; Listing generated by Microsoft (R) Optimizing Compiler Version 13.10.3077 

	TITLE	.\src\Gui\CommonControl\ListCtrol\GdiEx.cpp
	.386P
include listing.inc
if @Version gt 510
.model FLAT
else
_TEXT	SEGMENT PARA USE32 PUBLIC 'CODE'
_TEXT	ENDS
_DATA	SEGMENT DWORD USE32 PUBLIC 'DATA'
_DATA	ENDS
CONST	SEGMENT DWORD USE32 PUBLIC 'CONST'
CONST	ENDS
_BSS	SEGMENT DWORD USE32 PUBLIC 'BSS'
_BSS	ENDS
$$SYMBOLS	SEGMENT BYTE USE32 'DEBSYM'
$$SYMBOLS	ENDS
$$TYPES	SEGMENT BYTE USE32 'DEBTYP'
$$TYPES	ENDS
_TLS	SEGMENT DWORD USE32 PUBLIC 'TLS'
_TLS	ENDS
rdata$r	SEGMENT DWORD USE32 PUBLIC 'CONST'
rdata$r	ENDS
xdata$x	SEGMENT DWORD USE32 PUBLIC 'CONST'
xdata$x	ENDS
text$AFX_COL1	SEGMENT PARA USE32 PUBLIC ''
text$AFX_COL1	ENDS
text$yc	SEGMENT PARA USE32 PUBLIC 'CODE'
text$yc	ENDS
CRT$XCA	SEGMENT DWORD USE32 PUBLIC 'DATA'
CRT$XCA	ENDS
CRT$XCU	SEGMENT DWORD USE32 PUBLIC 'DATA'
CRT$XCU	ENDS
CRT$XCL	SEGMENT DWORD USE32 PUBLIC 'DATA'
CRT$XCL	ENDS
CRT$XCC	SEGMENT DWORD USE32 PUBLIC 'DATA'
CRT$XCC	ENDS
CRT$XCZ	SEGMENT DWORD USE32 PUBLIC 'DATA'
CRT$XCZ	ENDS
text$yd	SEGMENT PARA USE32 PUBLIC 'CODE'
text$yd	ENDS
ATL$__m	SEGMENT DWORD USE32 PUBLIC ''
ATL$__m	ENDS
ATL$__z	SEGMENT DWORD USE32 PUBLIC ''
ATL$__z	ENDS
ATL$__a	SEGMENT DWORD USE32 PUBLIC ''
ATL$__a	ENDS
;	COMDAT ?ToRGB1@CGdiEx@@QAEMMMM@Z
_TEXT	SEGMENT PARA USE32 PUBLIC 'CODE'
_TEXT	ENDS
;	COMDAT ?RGBtoHSL@CGdiEx@@QAEXKPAN00@Z
_TEXT	SEGMENT PARA USE32 PUBLIC 'CODE'
_TEXT	ENDS
;	COMDAT ?HLStoRGB@CGdiEx@@QAEKABN00@Z
_TEXT	SEGMENT PARA USE32 PUBLIC 'CODE'
_TEXT	ENDS
;	COMDAT ?HuetoRGB@CGdiEx@@QAENNNN@Z
_TEXT	SEGMENT PARA USE32 PUBLIC 'CODE'
_TEXT	ENDS
;	COMDAT _$E5
text$yc	SEGMENT PARA USE32 PUBLIC 'CODE'
text$yc	ENDS
;	COMDAT _$E6
text$yd	SEGMENT PARA USE32 PUBLIC 'CODE'
text$yd	ENDS
;	COMDAT ??B?$CComPtrBase@UITypeInfo2@@@ATL@@QBEPAUITypeInfo2@@XZ
_TEXT	SEGMENT PARA USE32 PUBLIC 'CODE'
_TEXT	ENDS
;	COMDAT ?equal@?$istreambuf_iterator@DU?$char_traits@D@std@@@std@@QBE_NABV12@@Z
_TEXT	SEGMENT PARA USE32 PUBLIC 'CODE'
_TEXT	ENDS
;	COMDAT ?equal@?$istreambuf_iterator@_WU?$char_traits@_W@std@@@std@@QBE_NABV12@@Z
_TEXT	SEGMENT PARA USE32 PUBLIC 'CODE'
_TEXT	ENDS
;	COMDAT ?Unlock@?$CComCritSecLock@VCComCriticalSection@ATL@@@ATL@@QAEXXZ
_TEXT	SEGMENT PARA USE32 PUBLIC 'CODE'
_TEXT	ENDS
;	COMDAT ??$_Maklocstr@D@std@@YAPADPBDPADABU_Cvtvec@@@Z
_TEXT	SEGMENT PARA USE32 PUBLIC 'CODE'
_TEXT	ENDS
;	COMDAT ??_R3CGdiEx@@8
rdata$r	SEGMENT DWORD USE32 PUBLIC 'CONST'
rdata$r	ENDS
;	COMDAT ??_R3?$numpunct@_W@std@@8
rdata$r	SEGMENT DWORD USE32 PUBLIC 'CONST'
rdata$r	ENDS
;	COMDAT ??_R3?$numpunct@D@std@@8
rdata$r	SEGMENT DWORD USE32 PUBLIC 'CONST'
rdata$r	ENDS
;	COMDAT ??_R2CGdiEx@@8
rdata$r	SEGMENT DWORD USE32 PUBLIC 'CONST'
rdata$r	ENDS
;	COMDAT ??_R2?$numpunct@_W@std@@8
rdata$r	SEGMENT DWORD USE32 PUBLIC 'CONST'
rdata$r	ENDS
;	COMDAT ??_R2?$numpunct@D@std@@8
rdata$r	SEGMENT DWORD USE32 PUBLIC 'CONST'
rdata$r	ENDS
;	COMDAT ??_R1A@?0A@A@CGdiEx@@8
rdata$r	SEGMENT DWORD USE32 PUBLIC 'CONST'
rdata$r	ENDS
;	COMDAT ??_R1A@?0A@A@?$numpunct@_W@std@@8
rdata$r	SEGMENT DWORD USE32 PUBLIC 'CONST'
rdata$r	ENDS
;	COMDAT ??_R1A@?0A@A@facet@locale@std@@8
rdata$r	SEGMENT DWORD USE32 PUBLIC 'CONST'
rdata$r	ENDS
;	COMDAT ??_R0?AVfacet@locale@std@@@8
_DATA	SEGMENT DWORD USE32 PUBLIC 'DATA'
_DATA	ENDS
;	COMDAT ??_R1A@?0A@A@?$numpunct@D@std@@8
rdata$r	SEGMENT DWORD USE32 PUBLIC 'CONST'
rdata$r	ENDS
;	COMDAT ??_R0?AVCGdiEx@@@8
_DATA	SEGMENT DWORD USE32 PUBLIC 'DATA'
_DATA	ENDS
;	COMDAT ??_R0?AV?$numpunct@_W@std@@@8
_DATA	SEGMENT DWORD USE32 PUBLIC 'DATA'
_DATA	ENDS
;	COMDAT ??_R0?AV?$numpunct@D@std@@@8
_DATA	SEGMENT DWORD USE32 PUBLIC 'DATA'
_DATA	ENDS
;	COMDAT ??_R4CGdiEx@@6B@
rdata$r	SEGMENT DWORD USE32 PUBLIC 'CONST'
rdata$r	ENDS
;	COMDAT ??0?$allocator@_W@std@@QAE@XZ
_TEXT	SEGMENT PARA USE32 PUBLIC 'CODE'
_TEXT	ENDS
;	COMDAT ??0?$allocator@D@std@@QAE@ABV01@@Z
_TEXT	SEGMENT PARA USE32 PUBLIC 'CODE'
_TEXT	ENDS
;	COMDAT ??0?$allocator@D@std@@QAE@XZ
_TEXT	SEGMENT PARA USE32 PUBLIC 'CODE'
_TEXT	ENDS
;	COMDAT ?deallocate@?$allocator@D@std@@QAEXPADI@Z
_TEXT	SEGMENT PARA USE32 PUBLIC 'CODE'
_TEXT	ENDS
;	COMDAT ?max_size@?$allocator@D@std@@QBEIXZ
_TEXT	SEGMENT PARA USE32 PUBLIC 'CODE'
_TEXT	ENDS
;	COMDAT ?allocate@?$allocator@D@std@@QAEPADI@Z
_TEXT	SEGMENT PARA USE32 PUBLIC 'CODE'
_TEXT	ENDS
;	COMDAT ??$_Allocate@D@std@@YAPADIPAD@Z
_TEXT	SEGMENT PARA USE32 PUBLIC 'CODE'
_TEXT	ENDS
;	COMDAT ??_G?$numpunct@_W@std@@MAEPAXI@Z
_TEXT	SEGMENT PARA USE32 PUBLIC 'CODE'
_TEXT	ENDS
;	COMDAT ??_R4?$numpunct@_W@std@@6B@
rdata$r	SEGMENT DWORD USE32 PUBLIC 'CONST'
rdata$r	ENDS
;	COMDAT ??_G?$numpunct@D@std@@MAEPAXI@Z
_TEXT	SEGMENT PARA USE32 PUBLIC 'CODE'
_TEXT	ENDS
;	COMDAT ??_R4?$numpunct@D@std@@6B@
rdata$r	SEGMENT DWORD USE32 PUBLIC 'CONST'
rdata$r	ENDS
;	COMDAT ?_Psave@?$_Facetptr@V?$numpunct@_W@std@@@std@@2PBVfacet@locale@2@B
_DATA	SEGMENT DWORD USE32 PUBLIC 'DATA'
_DATA	ENDS
;	COMDAT ?_Psave@?$_Facetptr@V?$numpunct@D@std@@@std@@2PBVfacet@locale@2@B
_DATA	SEGMENT DWORD USE32 PUBLIC 'DATA'
_DATA	ENDS
;	COMDAT ?Unlock@CComCriticalSection@ATL@@QAEJXZ
_TEXT	SEGMENT PARA USE32 PUBLIC 'CODE'
_TEXT	ENDS
;	COMDAT ?_Psave@?$_Facetptr@V?$ctype@_W@std@@@std@@2PBVfacet@locale@2@B
_DATA	SEGMENT DWORD USE32 PUBLIC 'DATA'
_DATA	ENDS
;	COMDAT ?_Psave@?$_Facetptr@V?$ctype@D@std@@@std@@2PBVfacet@locale@2@B
_DATA	SEGMENT DWORD USE32 PUBLIC 'DATA'
_DATA	ENDS
;	COMDAT ??$_Maklocchr@_W@std@@YA_WDPA_WABU_Cvtvec@@@Z
_TEXT	SEGMENT PARA USE32 PUBLIC 'CODE'
_TEXT	ENDS
;	COMDAT ??$_Maklocstr@_W@std@@YAPA_WPBDPA_WABU_Cvtvec@@@Z
_TEXT	SEGMENT PARA USE32 PUBLIC 'CODE'
_TEXT	ENDS
;	COMDAT ??$_Maklocchr@D@std@@YADDPADABU_Cvtvec@@@Z
_TEXT	SEGMENT PARA USE32 PUBLIC 'CODE'
_TEXT	ENDS
;	COMDAT ??_C@_04LOAJBDKD@true?$AA@
CONST	SEGMENT DWORD USE32 PUBLIC 'CONST'
CONST	ENDS
;	COMDAT ??_C@_05LAPONLG@false?$AA@
CONST	SEGMENT DWORD USE32 PUBLIC 'CONST'
CONST	ENDS
;	COMDAT _wmemcpy
_TEXT	SEGMENT PARA USE32 PUBLIC 'CODE'
_TEXT	ENDS
;	COMDAT ?max_size@?$allocator@_W@std@@QBEIXZ
_TEXT	SEGMENT PARA USE32 PUBLIC 'CODE'
_TEXT	ENDS
;	COMDAT ?allocate@?$allocator@_W@std@@QAEPA_WI@Z
_TEXT	SEGMENT PARA USE32 PUBLIC 'CODE'
_TEXT	ENDS
;	COMDAT ??$_Allocate@_W@std@@YAPA_WIPA_W@Z
_TEXT	SEGMENT PARA USE32 PUBLIC 'CODE'
_TEXT	ENDS
;	COMDAT ?IsShared@CStringData@ATL@@QBE_NXZ
_TEXT	SEGMENT PARA USE32 PUBLIC 'CODE'
_TEXT	ENDS
;	COMDAT ?AtlThrow@ATL@@YGXJ@Z
_TEXT	SEGMENT PARA USE32 PUBLIC 'CODE'
_TEXT	ENDS
;	COMDAT ?data@CStringData@ATL@@QAEPAXXZ
_TEXT	SEGMENT PARA USE32 PUBLIC 'CODE'
_TEXT	ENDS
;	COMDAT ?Release@CStringData@ATL@@QAEXXZ
_TEXT	SEGMENT PARA USE32 PUBLIC 'CODE'
_TEXT	ENDS
;	COMDAT ??_C@_01GFHCPBMG@C?$AA@
CONST	SEGMENT DWORD USE32 PUBLIC 'CONST'
CONST	ENDS
;	COMDAT ?_Peek@?$istreambuf_iterator@_WU?$char_traits@_W@std@@@std@@AAE_WXZ
_TEXT	SEGMENT PARA USE32 PUBLIC 'CODE'
_TEXT	ENDS
;	COMDAT ?_Peek@?$istreambuf_iterator@DU?$char_traits@D@std@@@std@@AAEDXZ
_TEXT	SEGMENT PARA USE32 PUBLIC 'CODE'
_TEXT	ENDS
;	COMDAT ??$use_facet@V?$ctype@_W@std@@@std@@YAABV?$ctype@_W@0@ABVlocale@0@@Z
_TEXT	SEGMENT PARA USE32 PUBLIC 'CODE'
_TEXT	ENDS
;	COMDAT ??_S?$ctype@_W@std@@6B@
CONST	SEGMENT DWORD USE32 PUBLIC 'CONST'
CONST	ENDS
;	COMDAT ??_R4?$ctype@_W@std@@6B@
rdata$r	SEGMENT DWORD USE32 PUBLIC 'CONST'
rdata$r	ENDS
;	COMDAT ??_R0?AV?$ctype@_W@std@@@8
_DATA	SEGMENT DWORD USE32 PUBLIC 'DATA'
_DATA	ENDS
;	COMDAT ??_R3?$ctype@_W@std@@8
rdata$r	SEGMENT DWORD USE32 PUBLIC 'CONST'
rdata$r	ENDS
;	COMDAT ??_R2?$ctype@_W@std@@8
rdata$r	SEGMENT DWORD USE32 PUBLIC 'CONST'
rdata$r	ENDS
;	COMDAT ??_R1A@?0A@A@?$ctype@_W@std@@8
rdata$r	SEGMENT DWORD USE32 PUBLIC 'CONST'
rdata$r	ENDS
;	COMDAT ??_R1A@?0A@A@ctype_base@std@@8
rdata$r	SEGMENT DWORD USE32 PUBLIC 'CONST'
rdata$r	ENDS
;	COMDAT ??_R0?AUctype_base@std@@@8
_DATA	SEGMENT DWORD USE32 PUBLIC 'DATA'
_DATA	ENDS
;	COMDAT ??_G?$ctype@_W@std@@MAEPAXI@Z
_TEXT	SEGMENT PARA USE32 PUBLIC 'CODE'
_TEXT	ENDS
;	COMDAT ??_C@_08EPJLHIJG@bad?5cast?$AA@
CONST	SEGMENT DWORD USE32 PUBLIC 'CONST'
CONST	ENDS
;	COMDAT __TI2?AVbad_cast@@
xdata$x	SEGMENT DWORD USE32 PUBLIC 'CONST'
xdata$x	ENDS
;	COMDAT __CTA2?AVbad_cast@@
xdata$x	SEGMENT DWORD USE32 PUBLIC 'CONST'
xdata$x	ENDS
;	COMDAT __CT??_R0?AVbad_cast@@@8??0bad_cast@@QAE@ABV0@@Z12
xdata$x	SEGMENT DWORD USE32 PUBLIC 'CONST'
xdata$x	ENDS
;	COMDAT ??_R0?AVbad_cast@@@8
_DATA	SEGMENT DWORD USE32 PUBLIC 'DATA'
_DATA	ENDS
;	COMDAT __CT??_R0?AVexception@@@8??0exception@@QAE@ABV0@@Z12
xdata$x	SEGMENT DWORD USE32 PUBLIC 'CONST'
xdata$x	ENDS
;	COMDAT ??_R0?AVexception@@@8
_DATA	SEGMENT DWORD USE32 PUBLIC 'DATA'
_DATA	ENDS
;	COMDAT ??$use_facet@V?$ctype@D@std@@@std@@YAABV?$ctype@D@0@ABVlocale@0@@Z
_TEXT	SEGMENT PARA USE32 PUBLIC 'CODE'
_TEXT	ENDS
;	COMDAT ??_S?$ctype@D@std@@6B@
CONST	SEGMENT DWORD USE32 PUBLIC 'CONST'
CONST	ENDS
;	COMDAT ??_R4?$ctype@D@std@@6B@
rdata$r	SEGMENT DWORD USE32 PUBLIC 'CONST'
rdata$r	ENDS
;	COMDAT ??_R0?AV?$ctype@D@std@@@8
_DATA	SEGMENT DWORD USE32 PUBLIC 'DATA'
_DATA	ENDS
;	COMDAT ??_R3?$ctype@D@std@@8
rdata$r	SEGMENT DWORD USE32 PUBLIC 'CONST'
rdata$r	ENDS
;	COMDAT ??_R2?$ctype@D@std@@8
rdata$r	SEGMENT DWORD USE32 PUBLIC 'CONST'
rdata$r	ENDS
;	COMDAT ??_R1A@?0A@A@?$ctype@D@std@@8
rdata$r	SEGMENT DWORD USE32 PUBLIC 'CONST'
rdata$r	ENDS
;	COMDAT ??_G?$ctype@D@std@@MAEPAXI@Z
_TEXT	SEGMENT PARA USE32 PUBLIC 'CODE'
_TEXT	ENDS
;	COMDAT ??_S?$numpunct@_W@std@@6B@
CONST	SEGMENT DWORD USE32 PUBLIC 'CONST'
CONST	ENDS
;	COMDAT ??_S?$numpunct@D@std@@6B@
CONST	SEGMENT DWORD USE32 PUBLIC 'CONST'
CONST	ENDS
;	COMDAT _wmemmove
_TEXT	SEGMENT PARA USE32 PUBLIC 'CODE'
_TEXT	ENDS
;	COMDAT ?deallocate@?$allocator@_W@std@@QAEXPA_WI@Z
_TEXT	SEGMENT PARA USE32 PUBLIC 'CODE'
_TEXT	ENDS
;	COMDAT ??0?$allocator@_W@std@@QAE@ABV01@@Z
_TEXT	SEGMENT PARA USE32 PUBLIC 'CODE'
_TEXT	ENDS
;	COMDAT ?Add@CImageList@@QAEHPAVCBitmap@@K@Z
_TEXT	SEGMENT PARA USE32 PUBLIC 'CODE'
_TEXT	ENDS
;	COMDAT ?GetSafeHandle@CGdiObject@@QBEPAXXZ
_TEXT	SEGMENT PARA USE32 PUBLIC 'CODE'
_TEXT	ENDS
;	COMDAT ??1CBitmap@@UAE@XZ
_TEXT	SEGMENT PARA USE32 PUBLIC 'CODE'
_TEXT	ENDS
;	COMDAT ??_7CBitmap@@6B@
CONST	SEGMENT DWORD USE32 PUBLIC 'CONST'
CONST	ENDS
;	COMDAT ??_R4CBitmap@@6B@
rdata$r	SEGMENT DWORD USE32 PUBLIC 'CONST'
rdata$r	ENDS
;	COMDAT ??_R0?AVCBitmap@@@8
_DATA	SEGMENT DWORD USE32 PUBLIC 'DATA'
_DATA	ENDS
;	COMDAT ??_R3CBitmap@@8
rdata$r	SEGMENT DWORD USE32 PUBLIC 'CONST'
rdata$r	ENDS
;	COMDAT ??_R2CBitmap@@8
rdata$r	SEGMENT DWORD USE32 PUBLIC 'CONST'
rdata$r	ENDS
;	COMDAT ??_R1A@?0A@A@CBitmap@@8
rdata$r	SEGMENT DWORD USE32 PUBLIC 'CONST'
rdata$r	ENDS
;	COMDAT ??_R1A@?0A@A@CGdiObject@@8
rdata$r	SEGMENT DWORD USE32 PUBLIC 'CONST'
rdata$r	ENDS
;	COMDAT ??_R0?AVCGdiObject@@@8
_DATA	SEGMENT DWORD USE32 PUBLIC 'DATA'
_DATA	ENDS
;	COMDAT ??_R1A@?0A@A@CObject@@8
rdata$r	SEGMENT DWORD USE32 PUBLIC 'CONST'
rdata$r	ENDS
;	COMDAT ??_R0?AVCObject@@@8
_DATA	SEGMENT DWORD USE32 PUBLIC 'DATA'
_DATA	ENDS
;	COMDAT ??_GCBitmap@@UAEPAXI@Z
_TEXT	SEGMENT PARA USE32 PUBLIC 'CODE'
_TEXT	ENDS
;	COMDAT ??3CObject@@SGXPAX@Z
_TEXT	SEGMENT PARA USE32 PUBLIC 'CODE'
_TEXT	ENDS
;	COMDAT ?Serialize@CObject@@UAEXAAVCArchive@@@Z
_TEXT	SEGMENT PARA USE32 PUBLIC 'CODE'
_TEXT	ENDS
;	COMDAT ?AssertValid@CObject@@UBEXXZ
_TEXT	SEGMENT PARA USE32 PUBLIC 'CODE'
_TEXT	ENDS
;	COMDAT ?Dump@CObject@@UBEXAAVCDumpContext@@@Z
_TEXT	SEGMENT PARA USE32 PUBLIC 'CODE'
_TEXT	ENDS
;	COMDAT ??1CGdiObject@@UAE@XZ
_TEXT	SEGMENT PARA USE32 PUBLIC 'CODE'
_TEXT	ENDS
;	COMDAT ??_7CGdiObject@@6B@
CONST	SEGMENT DWORD USE32 PUBLIC 'CONST'
CONST	ENDS
;	COMDAT ??_R4CGdiObject@@6B@
rdata$r	SEGMENT DWORD USE32 PUBLIC 'CONST'
rdata$r	ENDS
;	COMDAT ??_R3CGdiObject@@8
rdata$r	SEGMENT DWORD USE32 PUBLIC 'CONST'
rdata$r	ENDS
;	COMDAT ??_R2CGdiObject@@8
rdata$r	SEGMENT DWORD USE32 PUBLIC 'CONST'
rdata$r	ENDS
;	COMDAT ??_GCGdiObject@@UAEPAXI@Z
_TEXT	SEGMENT PARA USE32 PUBLIC 'CODE'
_TEXT	ENDS
;	COMDAT ??1CObject@@UAE@XZ
_TEXT	SEGMENT PARA USE32 PUBLIC 'CODE'
_TEXT	ENDS
;	COMDAT ??0CBitmap@@QAE@XZ
_TEXT	SEGMENT PARA USE32 PUBLIC 'CODE'
_TEXT	ENDS
;	COMDAT ??0CGdiObject@@QAE@XZ
_TEXT	SEGMENT PARA USE32 PUBLIC 'CODE'
_TEXT	ENDS
;	COMDAT ??0CObject@@IAE@XZ
_TEXT	SEGMENT PARA USE32 PUBLIC 'CODE'
_TEXT	ENDS
;	COMDAT ?GetDefaultManager@?$StrTraitMFC_DLL@DV?$ChTraitsCRT@D@ATL@@@@SAPAUIAtlStringMgr@ATL@@XZ
_TEXT	SEGMENT PARA USE32 PUBLIC 'CODE'
_TEXT	ENDS
;	COMDAT ?FindStringResourceInstance@?$StrTraitMFC_DLL@DV?$ChTraitsCRT@D@ATL@@@@SAPAUHINSTANCE__@@I@Z
_TEXT	SEGMENT PARA USE32 PUBLIC 'CODE'
_TEXT	ENDS
;	COMDAT ?AtlGetStringResourceImage@ATL@@YAPBUATLSTRINGRESOURCEIMAGE@1@PAUHINSTANCE__@@I@Z
_TEXT	SEGMENT PARA USE32 PUBLIC 'CODE'
_TEXT	ENDS
;	COMDAT ?_AtlGetStringResourceImage@ATL@@YAPBUATLSTRINGRESOURCEIMAGE@1@PAUHINSTANCE__@@PAUHRSRC__@@I@Z
_TEXT	SEGMENT PARA USE32 PUBLIC 'CODE'
_TEXT	ENDS
;	COMDAT ?GetBaseTypeLength@?$ChTraitsCRT@D@ATL@@SAHPB_WH@Z
_TEXT	SEGMENT PARA USE32 PUBLIC 'CODE'
_TEXT	ENDS
;	COMDAT ?_AtlGetConversionACP@ATL@@YGIXZ
_TEXT	SEGMENT PARA USE32 PUBLIC 'CODE'
_TEXT	ENDS
;	COMDAT ?g_pfnGetThreadACP@ATL@@3P6GIXZA
_DATA	SEGMENT DWORD USE32 PUBLIC 'DATA'
_DATA	ENDS
;	COMDAT ?_AtlGetThreadACPThunk@ATL@@YGIXZ
_TEXT	SEGMENT PARA USE32 PUBLIC 'CODE'
_TEXT	ENDS
;	COMDAT ?_AtlGetThreadACPReal@ATL@@YGIXZ
_TEXT	SEGMENT PARA USE32 PUBLIC 'CODE'
_TEXT	ENDS
;	COMDAT ?_AtlGetThreadACPFake@ATL@@YGIXZ
_TEXT	SEGMENT PARA USE32 PUBLIC 'CODE'
_TEXT	ENDS
;	COMDAT ?InterlockedExchangePointer@@YGPAXPAPAXPAX@Z
_TEXT	SEGMENT PARA USE32 PUBLIC 'CODE'
_TEXT	ENDS
;	COMDAT ?ConvertToBaseType@?$ChTraitsCRT@D@ATL@@SAXPADHPB_WH@Z
_TEXT	SEGMENT PARA USE32 PUBLIC 'CODE'
_TEXT	ENDS
;	COMDAT ?IsLocked@CStringData@ATL@@QBE_NXZ
_TEXT	SEGMENT PARA USE32 PUBLIC 'CODE'
_TEXT	ENDS
;	COMDAT ?IsRectEmpty@CRect@@QBEHXZ
_TEXT	SEGMENT PARA USE32 PUBLIC 'CODE'
_TEXT	ENDS
;	COMDAT ?StretchBlt@CDC@@QAEHHHHHPAV1@HHHHK@Z
_TEXT	SEGMENT PARA USE32 PUBLIC 'CODE'
_TEXT	ENDS
;	COMDAT ?GetSafeHdc@CDC@@QBEPAUHDC__@@XZ
_TEXT	SEGMENT PARA USE32 PUBLIC 'CODE'
_TEXT	ENDS
;	COMDAT ?GetBitmap@CBitmap@@QAEHPAUtagBITMAP@@@Z
_TEXT	SEGMENT PARA USE32 PUBLIC 'CODE'
_TEXT	ENDS
;	COMDAT ?Width@CRect@@QBEHXZ
_TEXT	SEGMENT PARA USE32 PUBLIC 'CODE'
_TEXT	ENDS
;	COMDAT ?Height@CRect@@QBEHXZ
_TEXT	SEGMENT PARA USE32 PUBLIC 'CODE'
_TEXT	ENDS
;	COMDAT ?BitBlt@CDC@@QAEHHHHHPAV1@HHK@Z
_TEXT	SEGMENT PARA USE32 PUBLIC 'CODE'
_TEXT	ENDS
;	COMDAT ?SelectObject@CDC@@QAEPAVCBitmap@@PAV2@@Z
_TEXT	SEGMENT PARA USE32 PUBLIC 'CODE'
_TEXT	ENDS
;	COMDAT ?CreateCompatibleDC@CDC@@QAEHPAV1@@Z
_TEXT	SEGMENT PARA USE32 PUBLIC 'CODE'
_TEXT	ENDS
;	COMDAT ?LoadBitmapA@CBitmap@@QAEHI@Z
_TEXT	SEGMENT PARA USE32 PUBLIC 'CODE'
_TEXT	ENDS
;	COMDAT ?CreateFontIndirectA@CFont@@QAEHPBUtagLOGFONTA@@@Z
_TEXT	SEGMENT PARA USE32 PUBLIC 'CODE'
_TEXT	ENDS
;	COMDAT ??1CFont@@UAE@XZ
_TEXT	SEGMENT PARA USE32 PUBLIC 'CODE'
_TEXT	ENDS
;	COMDAT ??_7CFont@@6B@
CONST	SEGMENT DWORD USE32 PUBLIC 'CONST'
CONST	ENDS
;	COMDAT ??_R4CFont@@6B@
rdata$r	SEGMENT DWORD USE32 PUBLIC 'CONST'
rdata$r	ENDS
;	COMDAT ??_R0?AVCFont@@@8
_DATA	SEGMENT DWORD USE32 PUBLIC 'DATA'
_DATA	ENDS
;	COMDAT ??_R3CFont@@8
rdata$r	SEGMENT DWORD USE32 PUBLIC 'CONST'
rdata$r	ENDS
;	COMDAT ??_R2CFont@@8
rdata$r	SEGMENT DWORD USE32 PUBLIC 'CONST'
rdata$r	ENDS
;	COMDAT ??_R1A@?0A@A@CFont@@8
rdata$r	SEGMENT DWORD USE32 PUBLIC 'CONST'
rdata$r	ENDS
;	COMDAT ??_GCFont@@UAEPAXI@Z
_TEXT	SEGMENT PARA USE32 PUBLIC 'CODE'
_TEXT	ENDS
;	COMDAT ??0CFont@@QAE@XZ
_TEXT	SEGMENT PARA USE32 PUBLIC 'CODE'
_TEXT	ENDS
;	COMDAT ?GetTextColor@CDC@@QBEKXZ
_TEXT	SEGMENT PARA USE32 PUBLIC 'CODE'
_TEXT	ENDS
;	COMDAT ?SetPixel@CDC@@QAEKHHK@Z
_TEXT	SEGMENT PARA USE32 PUBLIC 'CODE'
_TEXT	ENDS
;	COMDAT ?Polygon@CDC@@QAEHPAUtagPOINT@@H@Z
_TEXT	SEGMENT PARA USE32 PUBLIC 'CODE'
_TEXT	ENDS
;	COMDAT ??0CPoint@@QAE@HH@Z
_TEXT	SEGMENT PARA USE32 PUBLIC 'CODE'
_TEXT	ENDS
;	COMDAT ?CreatePen@CPen@@QAEHHHK@Z
_TEXT	SEGMENT PARA USE32 PUBLIC 'CODE'
_TEXT	ENDS
;	COMDAT ??1CPen@@UAE@XZ
_TEXT	SEGMENT PARA USE32 PUBLIC 'CODE'
_TEXT	ENDS
;	COMDAT ??_7CPen@@6B@
CONST	SEGMENT DWORD USE32 PUBLIC 'CONST'
CONST	ENDS
;	COMDAT ??_R4CPen@@6B@
rdata$r	SEGMENT DWORD USE32 PUBLIC 'CONST'
rdata$r	ENDS
;	COMDAT ??_R0?AVCPen@@@8
_DATA	SEGMENT DWORD USE32 PUBLIC 'DATA'
_DATA	ENDS
;	COMDAT ??_R3CPen@@8
rdata$r	SEGMENT DWORD USE32 PUBLIC 'CONST'
rdata$r	ENDS
;	COMDAT ??_R2CPen@@8
rdata$r	SEGMENT DWORD USE32 PUBLIC 'CONST'
rdata$r	ENDS
;	COMDAT ??_R1A@?0A@A@CPen@@8
rdata$r	SEGMENT DWORD USE32 PUBLIC 'CONST'
rdata$r	ENDS
;	COMDAT ??_GCPen@@UAEPAXI@Z
_TEXT	SEGMENT PARA USE32 PUBLIC 'CODE'
_TEXT	ENDS
;	COMDAT ??0CPen@@QAE@XZ
_TEXT	SEGMENT PARA USE32 PUBLIC 'CODE'
_TEXT	ENDS
;	COMDAT ?FillRect@CDC@@QAEXPBUtagRECT@@PAVCBrush@@@Z
_TEXT	SEGMENT PARA USE32 PUBLIC 'CODE'
_TEXT	ENDS
;	COMDAT ?CreateSolidBrush@CBrush@@QAEHK@Z
_TEXT	SEGMENT PARA USE32 PUBLIC 'CODE'
_TEXT	ENDS
;	COMDAT ??1CBrush@@UAE@XZ
_TEXT	SEGMENT PARA USE32 PUBLIC 'CODE'
_TEXT	ENDS
;	COMDAT ??_7CBrush@@6B@
CONST	SEGMENT DWORD USE32 PUBLIC 'CONST'
CONST	ENDS
;	COMDAT ??_R4CBrush@@6B@
rdata$r	SEGMENT DWORD USE32 PUBLIC 'CONST'
rdata$r	ENDS
;	COMDAT ??_R0?AVCBrush@@@8
_DATA	SEGMENT DWORD USE32 PUBLIC 'DATA'
_DATA	ENDS
;	COMDAT ??_R3CBrush@@8
rdata$r	SEGMENT DWORD USE32 PUBLIC 'CONST'
rdata$r	ENDS
;	COMDAT ??_R2CBrush@@8
rdata$r	SEGMENT DWORD USE32 PUBLIC 'CONST'
rdata$r	ENDS
;	COMDAT ??_R1A@?0A@A@CBrush@@8
rdata$r	SEGMENT DWORD USE32 PUBLIC 'CONST'
rdata$r	ENDS
;	COMDAT ??_GCBrush@@UAEPAXI@Z
_TEXT	SEGMENT PARA USE32 PUBLIC 'CODE'
_TEXT	ENDS
;	COMDAT ??0CBrush@@QAE@XZ
_TEXT	SEGMENT PARA USE32 PUBLIC 'CODE'
_TEXT	ENDS
;	COMDAT ?FrameRect@CDC@@QAEXPBUtagRECT@@PAVCBrush@@@Z
_TEXT	SEGMENT PARA USE32 PUBLIC 'CODE'
_TEXT	ENDS
;	COMDAT ??_7CGdiEx@@6B@
CONST	SEGMENT DWORD USE32 PUBLIC 'CONST'
CONST	ENDS
sxdata	SEGMENT DWORD USE32 'SXDATA'
sxdata	ENDS
FLAT	GROUP _DATA, CONST, _BSS
	ASSUME	CS: FLAT, DS: FLAT, SS: FLAT
endif

INCLUDELIB MSVCRT
INCLUDELIB OLDNAMES

PUBLIC	?g_pfnGetThreadACP@ATL@@3P6GIXZA		; ATL::g_pfnGetThreadACP
PUBLIC	?_AtlGetThreadACPThunk@ATL@@YGIXZ		; ATL::_AtlGetThreadACPThunk
CONST	SEGMENT
$SG198066 DB	0c1H, 0a5H, 0caH, 0e9H, 00H
	ORG $+3
$SG198158 DB	'\skin\', 00H
	ORG $+1
$SG198181 DB	'\skin\', 00H
CONST	ENDS
;	COMDAT ?g_pfnGetThreadACP@ATL@@3P6GIXZA
_DATA	SEGMENT
?g_pfnGetThreadACP@ATL@@3P6GIXZA DD FLAT:?_AtlGetThreadACPThunk@ATL@@YGIXZ ; ATL::g_pfnGetThreadACP
_DATA	ENDS
PUBLIC	??0CGdiEx@@QAE@XZ				; CGdiEx::CGdiEx
PUBLIC	?FrameRect@CGdiEx@@UAEXPAUHDC__@@AAUtagRECT@@PAVCBrush@@@Z ; CGdiEx::FrameRect
PUBLIC	?FillRectangle@CGdiEx@@UAEXPAUHDC__@@AAUtagRECT@@K@Z ; CGdiEx::FillRectangle
PUBLIC	?FillRectangle@CGdiEx@@UAEXPAUHDC__@@UtagRECT@@KH@Z ; CGdiEx::FillRectangle
PUBLIC	?FillRectangle@CGdiEx@@UAEXPAUHDC__@@UtagRECT@@KKW4ENUM_DrawOrientation@@HI@Z ; CGdiEx::FillRectangle
PUBLIC	?FillRectangleHue@CGdiEx@@UAEXPAUHDC__@@UtagRECT@@KKW4ENUM_DrawOrientation@@HI@Z ; CGdiEx::FillRectangleHue
PUBLIC	?FillRectangleLight@CGdiEx@@UAEXPAUHDC__@@UtagRECT@@KKIW4ENUM_DrawOrientation@@HI@Z ; CGdiEx::FillRectangleLight
PUBLIC	?FillRectangle@CGdiEx@@UAEXPAUHDC__@@UtagRECT@@KHHH@Z ; CGdiEx::FillRectangle
PUBLIC	?DrawLine@CGdiEx@@UAEXPAUHDC__@@KMHHHHH@Z	; CGdiEx::DrawLine
PUBLIC	?DrawArrow@CGdiEx@@UAEXPAUHDC__@@KHHHHHHH@Z	; CGdiEx::DrawArrow
PUBLIC	?DrawPointFrameXOR@CGdiEx@@UAEXPAUHDC__@@AAUtagRECT@@@Z ; CGdiEx::DrawPointFrameXOR
PUBLIC	?SetDrawTextFont@CGdiEx@@UAEXPAVCDC@@AAVCFont@@_N@Z ; CGdiEx::SetDrawTextFont
PUBLIC	?SetDrawTextFont@CGdiEx@@UAEPAVCFont@@PAVCDC@@PAV2@@Z ; CGdiEx::SetDrawTextFont
PUBLIC	?DrawTextA@CGdiEx@@UAEXPAVCDC@@V?$CStringT@DV?$StrTraitMFC_DLL@DV?$ChTraitsCRT@D@ATL@@@@@ATL@@KAAUtagRECT@@@Z ; CGdiEx::DrawTextA
PUBLIC	?DrawTextQuick@CGdiEx@@UAEXPAVCDC@@AAV?$CStringT@DV?$StrTraitMFC_DLL@DV?$ChTraitsCRT@D@ATL@@@@@ATL@@KAAUtagRECT@@AAVCFont@@HHH@Z ; CGdiEx::DrawTextQuick
PUBLIC	?DrawTextQuick@CGdiEx@@UAEXPAVCDC@@AAV?$CStringT@DV?$StrTraitMFC_DLL@DV?$ChTraitsCRT@D@ATL@@@@@ATL@@KAAUtagRECT@@AAVCFont@@H@Z ; CGdiEx::DrawTextQuick
PUBLIC	?DrawTextQuick@CGdiEx@@UAEXPAVCDC@@AAV?$CStringT@DV?$StrTraitMFC_DLL@DV?$ChTraitsCRT@D@ATL@@@@@ATL@@KAAUtagRECT@@H@Z ; CGdiEx::DrawTextQuick
PUBLIC	?DrawTextA@CGdiEx@@UAEXPAVCDC@@V?$CStringT@DV?$StrTraitMFC_DLL@DV?$ChTraitsCRT@D@ATL@@@@@ATL@@KAAUtagRECT@@I_NIIIV?$basic_string@DU?$char_traits@D@std@@V?$allocator@D@2@@std@@@Z ; CGdiEx::DrawTextA
PUBLIC	?DrawBitmap@CGdiEx@@UAEXPAVCDC@@AAVCBitmap@@AAVCRect@@I@Z ; CGdiEx::DrawBitmap
PUBLIC	?DrawBitmap@CGdiEx@@UAEXPAVCDC@@AAVCBitmap@@AAVCRect@@@Z ; CGdiEx::DrawBitmap
PUBLIC	?DrawStretchBitmap@CGdiEx@@UAEXPAVCDC@@AAVCBitmap@@AAVCRect@@@Z ; CGdiEx::DrawStretchBitmap
PUBLIC	?DrawStretchBitmap@CGdiEx@@UAEXPAVCDC@@AAVCBitmap@@AAVCRect@@2@Z ; CGdiEx::DrawStretchBitmap
PUBLIC	?DrawStretchBitmap2@CGdiEx@@UAEXPAVCDC@@AAVCBitmap@@AAVCRect@@2@Z ; CGdiEx::DrawStretchBitmap2
PUBLIC	?AttachBmpFromFile@CGdiEx@@UAEHPAVCBitmap@@V?$CStringT@DV?$StrTraitMFC_DLL@DV?$ChTraitsCRT@D@ATL@@@@@ATL@@II@Z ; CGdiEx::AttachBmpFromFile
PUBLIC	?GetImageListFromFile@CGdiEx@@UAEHPAVCImageList@@V?$CStringT@DV?$StrTraitMFC_DLL@DV?$ChTraitsCRT@D@ATL@@@@@ATL@@III@Z ; CGdiEx::GetImageListFromFile
PUBLIC	??_7CGdiEx@@6B@					; CGdiEx::`vftable'
PUBLIC	??_R4CGdiEx@@6B@				; CGdiEx::`RTTI Complete Object Locator'
PUBLIC	??_R0?AVCGdiEx@@@8				; CGdiEx `RTTI Type Descriptor'
PUBLIC	??_R3CGdiEx@@8					; CGdiEx::`RTTI Class Hierarchy Descriptor'
PUBLIC	??_R2CGdiEx@@8					; CGdiEx::`RTTI Base Class Array'
PUBLIC	??_R1A@?0A@A@CGdiEx@@8				; CGdiEx::`RTTI Base Class Descriptor at (0,-1,0,0)'
EXTRN	??_7type_info@@6B@:QWORD			; type_info::`vftable'
;	COMDAT ??_7CGdiEx@@6B@
; File d:\boxgit\playbox\playbox\dev\prj\playbox\src\gui\commoncontrol\listctrol\gdiex.cpp
CONST	SEGMENT
??_7CGdiEx@@6B@ DD FLAT:??_R4CGdiEx@@6B@		; CGdiEx::`vftable'
	DD	FLAT:?FrameRect@CGdiEx@@UAEXPAUHDC__@@AAUtagRECT@@PAVCBrush@@@Z
	DD	FLAT:?FillRectangle@CGdiEx@@UAEXPAUHDC__@@UtagRECT@@KHHH@Z
	DD	FLAT:?FillRectangle@CGdiEx@@UAEXPAUHDC__@@UtagRECT@@KKW4ENUM_DrawOrientation@@HI@Z
	DD	FLAT:?FillRectangle@CGdiEx@@UAEXPAUHDC__@@UtagRECT@@KH@Z
	DD	FLAT:?FillRectangle@CGdiEx@@UAEXPAUHDC__@@AAUtagRECT@@K@Z
	DD	FLAT:?FillRectangleHue@CGdiEx@@UAEXPAUHDC__@@UtagRECT@@KKW4ENUM_DrawOrientation@@HI@Z
	DD	FLAT:?FillRectangleLight@CGdiEx@@UAEXPAUHDC__@@UtagRECT@@KKIW4ENUM_DrawOrientation@@HI@Z
	DD	FLAT:?DrawLine@CGdiEx@@UAEXPAUHDC__@@KMHHHHH@Z
	DD	FLAT:?DrawArrow@CGdiEx@@UAEXPAUHDC__@@KHHHHHHH@Z
	DD	FLAT:?DrawPointFrameXOR@CGdiEx@@UAEXPAUHDC__@@AAUtagRECT@@@Z
	DD	FLAT:?SetDrawTextFont@CGdiEx@@UAEPAVCFont@@PAVCDC@@PAV2@@Z
	DD	FLAT:?SetDrawTextFont@CGdiEx@@UAEXPAVCDC@@AAVCFont@@_N@Z
	DD	FLAT:?DrawTextA@CGdiEx@@UAEXPAVCDC@@V?$CStringT@DV?$StrTraitMFC_DLL@DV?$ChTraitsCRT@D@ATL@@@@@ATL@@KAAUtagRECT@@I_NIIIV?$basic_string@DU?$char_traits@D@std@@V?$allocator@D@2@@std@@@Z
	DD	FLAT:?DrawTextA@CGdiEx@@UAEXPAVCDC@@V?$CStringT@DV?$StrTraitMFC_DLL@DV?$ChTraitsCRT@D@ATL@@@@@ATL@@KAAUtagRECT@@@Z
	DD	FLAT:?DrawTextQuick@CGdiEx@@UAEXPAVCDC@@AAV?$CStringT@DV?$StrTraitMFC_DLL@DV?$ChTraitsCRT@D@ATL@@@@@ATL@@KAAUtagRECT@@H@Z
	DD	FLAT:?DrawTextQuick@CGdiEx@@UAEXPAVCDC@@AAV?$CStringT@DV?$StrTraitMFC_DLL@DV?$ChTraitsCRT@D@ATL@@@@@ATL@@KAAUtagRECT@@AAVCFont@@H@Z
	DD	FLAT:?DrawTextQuick@CGdiEx@@UAEXPAVCDC@@AAV?$CStringT@DV?$StrTraitMFC_DLL@DV?$ChTraitsCRT@D@ATL@@@@@ATL@@KAAUtagRECT@@AAVCFont@@HHH@Z
	DD	FLAT:?DrawBitmap@CGdiEx@@UAEXPAVCDC@@AAVCBitmap@@AAVCRect@@@Z
	DD	FLAT:?DrawBitmap@CGdiEx@@UAEXPAVCDC@@AAVCBitmap@@AAVCRect@@I@Z
	DD	FLAT:?DrawStretchBitmap@CGdiEx@@UAEXPAVCDC@@AAVCBitmap@@AAVCRect@@2@Z
	DD	FLAT:?DrawStretchBitmap@CGdiEx@@UAEXPAVCDC@@AAVCBitmap@@AAVCRect@@@Z
	DD	FLAT:?DrawStretchBitmap2@CGdiEx@@UAEXPAVCDC@@AAVCBitmap@@AAVCRect@@2@Z
	DD	FLAT:?AttachBmpFromFile@CGdiEx@@UAEHPAVCBitmap@@V?$CStringT@DV?$StrTraitMFC_DLL@DV?$ChTraitsCRT@D@ATL@@@@@ATL@@II@Z
	DD	FLAT:?GetImageListFromFile@CGdiEx@@UAEHPAVCImageList@@V?$CStringT@DV?$StrTraitMFC_DLL@DV?$ChTraitsCRT@D@ATL@@@@@ATL@@III@Z
CONST	ENDS
;	COMDAT ??_R4CGdiEx@@6B@
rdata$r	SEGMENT
??_R4CGdiEx@@6B@ DD 00H					; CGdiEx::`RTTI Complete Object Locator'
	DD	00H
	DD	00H
	DD	FLAT:??_R0?AVCGdiEx@@@8
	DD	FLAT:??_R3CGdiEx@@8
rdata$r	ENDS
;	COMDAT ??_R0?AVCGdiEx@@@8
_DATA	SEGMENT
??_R0?AVCGdiEx@@@8 DD FLAT:??_7type_info@@6B@		; CGdiEx `RTTI Type Descriptor'
	DD	00H
	DB	'.?AVCGdiEx@@', 00H
_DATA	ENDS
;	COMDAT ??_R3CGdiEx@@8
rdata$r	SEGMENT
??_R3CGdiEx@@8 DD 00H					; CGdiEx::`RTTI Class Hierarchy Descriptor'
	DD	00H
	DD	01H
	DD	FLAT:??_R2CGdiEx@@8
rdata$r	ENDS
;	COMDAT ??_R2CGdiEx@@8
rdata$r	SEGMENT
??_R2CGdiEx@@8 DD FLAT:??_R1A@?0A@A@CGdiEx@@8		; CGdiEx::`RTTI Base Class Array'
rdata$r	ENDS
;	COMDAT ??_R1A@?0A@A@CGdiEx@@8
rdata$r	SEGMENT
??_R1A@?0A@A@CGdiEx@@8 DD FLAT:??_R0?AVCGdiEx@@@8	; CGdiEx::`RTTI Base Class Descriptor at (0,-1,0,0)'
	DD	00H
	DD	00H
	DD	0ffffffffH
	DD	00H
	DD	00H
; Function compile flags: /Odt
rdata$r	ENDS
_TEXT	SEGMENT
_this$ = -4						; size = 4
??0CGdiEx@@QAE@XZ PROC NEAR				; CGdiEx::CGdiEx
; _this$ = ecx

; 15   : {

  00000	55		 push	 ebp
  00001	8b ec		 mov	 ebp, esp
  00003	51		 push	 ecx
  00004	89 4d fc	 mov	 DWORD PTR _this$[ebp], ecx
  00007	8b 45 fc	 mov	 eax, DWORD PTR _this$[ebp]
  0000a	c7 00 00 00 00
	00		 mov	 DWORD PTR [eax], OFFSET FLAT:??_7CGdiEx@@6B@

; 16   : }

  00010	8b 45 fc	 mov	 eax, DWORD PTR _this$[ebp]
  00013	8b e5		 mov	 esp, ebp
  00015	5d		 pop	 ebp
  00016	c3		 ret	 0
??0CGdiEx@@QAE@XZ ENDP					; CGdiEx::CGdiEx
_TEXT	ENDS
PUBLIC	??1CGdiEx@@QAE@XZ				; CGdiEx::~CGdiEx
; Function compile flags: /Odt
_TEXT	SEGMENT
_this$ = -4						; size = 4
??1CGdiEx@@QAE@XZ PROC NEAR				; CGdiEx::~CGdiEx
; _this$ = ecx

; 19   : {

  00020	55		 push	 ebp
  00021	8b ec		 mov	 ebp, esp
  00023	51		 push	 ecx
  00024	89 4d fc	 mov	 DWORD PTR _this$[ebp], ecx
  00027	8b 45 fc	 mov	 eax, DWORD PTR _this$[ebp]
  0002a	c7 00 00 00 00
	00		 mov	 DWORD PTR [eax], OFFSET FLAT:??_7CGdiEx@@6B@

; 20   : }

  00030	8b e5		 mov	 esp, ebp
  00032	5d		 pop	 ebp
  00033	c3		 ret	 0
??1CGdiEx@@QAE@XZ ENDP					; CGdiEx::~CGdiEx
_TEXT	ENDS
PUBLIC	?ToRGB1@CGdiEx@@QAEMMMM@Z			; CGdiEx::ToRGB1
PUBLIC	?SetRGB@CGdiEx@@QAEXAAKMMM@Z			; CGdiEx::SetRGB
PUBLIC	__real@00000000
PUBLIC	__real@437f0000
PUBLIC	__real@3f000000
PUBLIC	__real@40000000
PUBLIC	__real@42f00000
EXTRN	__ftol2:NEAR
EXTRN	__fltused:NEAR
;	COMDAT __real@00000000
CONST	SEGMENT
__real@00000000 DD 000000000r			; 0
CONST	ENDS
;	COMDAT __real@437f0000
CONST	SEGMENT
__real@437f0000 DD 0437f0000r			; 255
CONST	ENDS
;	COMDAT __real@3f000000
CONST	SEGMENT
__real@3f000000 DD 03f000000r			; 0.5
CONST	ENDS
;	COMDAT __real@40000000
CONST	SEGMENT
__real@40000000 DD 040000000r			; 2
CONST	ENDS
;	COMDAT __real@42f00000
CONST	SEGMENT
__real@42f00000 DD 042f00000r			; 120
; Function compile flags: /Odt
CONST	ENDS
_TEXT	SEGMENT
tv150 = -36						; size = 4
tv147 = -32						; size = 4
tv145 = -28						; size = 4
_this$ = -24						; size = 4
_lfValue1$197403 = -20					; size = 4
_lfValue2$197404 = -16					; size = 4
_lfRed$ = -12						; size = 4
_lfGreen$ = -8						; size = 4
_lfBlue$ = -4						; size = 4
_aSourceColor$ = 8					; size = 4
_afHue$ = 12						; size = 4
_afBrightness$ = 16					; size = 4
_afSaturation$ = 20					; size = 4
?SetRGB@CGdiEx@@QAEXAAKMMM@Z PROC NEAR			; CGdiEx::SetRGB
; _this$ = ecx

; 38   : {

  00040	55		 push	 ebp
  00041	8b ec		 mov	 ebp, esp
  00043	83 ec 24	 sub	 esp, 36			; 00000024H
  00046	56		 push	 esi
  00047	89 4d e8	 mov	 DWORD PTR _this$[ebp], ecx

; 39   : 	FLOAT lfRed = GetRValue(aSourceColor);

  0004a	8b 45 08	 mov	 eax, DWORD PTR _aSourceColor$[ebp]
  0004d	0f b6 08	 movzx	 ecx, BYTE PTR [eax]
  00050	89 4d e4	 mov	 DWORD PTR tv145[ebp], ecx
  00053	db 45 e4	 fild	 DWORD PTR tv145[ebp]
  00056	d9 5d f4	 fstp	 DWORD PTR _lfRed$[ebp]

; 40   : 	FLOAT lfGreen = GetGValue(aSourceColor);

  00059	8b 55 08	 mov	 edx, DWORD PTR _aSourceColor$[ebp]
  0005c	0f b7 02	 movzx	 eax, WORD PTR [edx]
  0005f	c1 f8 08	 sar	 eax, 8
  00062	0f b6 c8	 movzx	 ecx, al
  00065	89 4d e0	 mov	 DWORD PTR tv147[ebp], ecx
  00068	db 45 e0	 fild	 DWORD PTR tv147[ebp]
  0006b	d9 5d f8	 fstp	 DWORD PTR _lfGreen$[ebp]

; 41   : 	FLOAT lfBlue = GetBValue(aSourceColor);

  0006e	8b 55 08	 mov	 edx, DWORD PTR _aSourceColor$[ebp]
  00071	8b 02		 mov	 eax, DWORD PTR [edx]
  00073	c1 e8 10	 shr	 eax, 16			; 00000010H
  00076	0f b6 c8	 movzx	 ecx, al
  00079	89 4d dc	 mov	 DWORD PTR tv150[ebp], ecx
  0007c	db 45 dc	 fild	 DWORD PTR tv150[ebp]
  0007f	d9 5d fc	 fstp	 DWORD PTR _lfBlue$[ebp]

; 42   : 
; 43   : 	if (afSaturation == 0.0f)

  00082	d9 05 00 00 00
	00		 fld	 DWORD PTR __real@00000000
  00088	d9 45 14	 fld	 DWORD PTR _afSaturation$[ebp]
  0008b	da e9		 fucompp
  0008d	df e0		 fnstsw	 ax
  0008f	f6 c4 44	 test	 ah, 68			; 00000044H
  00092	7a 1d		 jp	 SHORT $L197401

; 44   : 	{
; 45   : 		lfRed = lfGreen = lfBlue = afBrightness * 255.0f;

  00094	d9 45 10	 fld	 DWORD PTR _afBrightness$[ebp]
  00097	d8 0d 00 00 00
	00		 fmul	 DWORD PTR __real@437f0000
  0009d	d9 5d fc	 fstp	 DWORD PTR _lfBlue$[ebp]
  000a0	8b 55 fc	 mov	 edx, DWORD PTR _lfBlue$[ebp]
  000a3	89 55 f8	 mov	 DWORD PTR _lfGreen$[ebp], edx
  000a6	8b 45 f8	 mov	 eax, DWORD PTR _lfGreen$[ebp]
  000a9	89 45 f4	 mov	 DWORD PTR _lfRed$[ebp], eax

; 46   : 	}
; 47   : 	else

  000ac	e9 95 00 00 00	 jmp	 $L197402
$L197401:

; 48   : 	{
; 49   : 		FLOAT lfValue1, lfValue2;
; 50   : 
; 51   : 		if (afBrightness <= 0.5f)

  000b1	d9 45 10	 fld	 DWORD PTR _afBrightness$[ebp]
  000b4	d8 1d 00 00 00
	00		 fcomp	 DWORD PTR __real@3f000000
  000ba	df e0		 fnstsw	 ax
  000bc	f6 c4 41	 test	 ah, 65			; 00000041H
  000bf	7a 0e		 jp	 SHORT $L197405

; 52   : 			lfValue2 = afBrightness + afBrightness * afSaturation;

  000c1	d9 45 10	 fld	 DWORD PTR _afBrightness$[ebp]
  000c4	d8 4d 14	 fmul	 DWORD PTR _afSaturation$[ebp]
  000c7	d8 45 10	 fadd	 DWORD PTR _afBrightness$[ebp]
  000ca	d9 5d f0	 fstp	 DWORD PTR _lfValue2$197404[ebp]

; 53   : 		else

  000cd	eb 11		 jmp	 SHORT $L197406
$L197405:

; 54   : 			lfValue2 = afBrightness + afSaturation - afBrightness * afSaturation;

  000cf	d9 45 10	 fld	 DWORD PTR _afBrightness$[ebp]
  000d2	d8 45 14	 fadd	 DWORD PTR _afSaturation$[ebp]
  000d5	d9 45 10	 fld	 DWORD PTR _afBrightness$[ebp]
  000d8	d8 4d 14	 fmul	 DWORD PTR _afSaturation$[ebp]
  000db	de e9		 fsubp	 ST(1), ST(0)
  000dd	d9 5d f0	 fstp	 DWORD PTR _lfValue2$197404[ebp]
$L197406:

; 55   : 
; 56   : 		lfValue1 = 2.0f * afBrightness - lfValue2;

  000e0	d9 05 00 00 00
	00		 fld	 DWORD PTR __real@40000000
  000e6	d8 4d 10	 fmul	 DWORD PTR _afBrightness$[ebp]
  000e9	d8 65 f0	 fsub	 DWORD PTR _lfValue2$197404[ebp]
  000ec	d9 5d ec	 fstp	 DWORD PTR _lfValue1$197403[ebp]

; 57   : 		lfRed = ToRGB1(lfValue1, lfValue2, afHue + 120.0f);

  000ef	d9 45 0c	 fld	 DWORD PTR _afHue$[ebp]
  000f2	d8 05 00 00 00
	00		 fadd	 DWORD PTR __real@42f00000
  000f8	51		 push	 ecx
  000f9	d9 1c 24	 fstp	 DWORD PTR [esp]
  000fc	8b 4d f0	 mov	 ecx, DWORD PTR _lfValue2$197404[ebp]
  000ff	51		 push	 ecx
  00100	8b 55 ec	 mov	 edx, DWORD PTR _lfValue1$197403[ebp]
  00103	52		 push	 edx
  00104	8b 4d e8	 mov	 ecx, DWORD PTR _this$[ebp]
  00107	e8 00 00 00 00	 call	 ?ToRGB1@CGdiEx@@QAEMMMM@Z ; CGdiEx::ToRGB1
  0010c	d9 5d f4	 fstp	 DWORD PTR _lfRed$[ebp]

; 58   : 		lfGreen = ToRGB1(lfValue1, lfValue2, afHue);

  0010f	8b 45 0c	 mov	 eax, DWORD PTR _afHue$[ebp]
  00112	50		 push	 eax
  00113	8b 4d f0	 mov	 ecx, DWORD PTR _lfValue2$197404[ebp]
  00116	51		 push	 ecx
  00117	8b 55 ec	 mov	 edx, DWORD PTR _lfValue1$197403[ebp]
  0011a	52		 push	 edx
  0011b	8b 4d e8	 mov	 ecx, DWORD PTR _this$[ebp]
  0011e	e8 00 00 00 00	 call	 ?ToRGB1@CGdiEx@@QAEMMMM@Z ; CGdiEx::ToRGB1
  00123	d9 5d f8	 fstp	 DWORD PTR _lfGreen$[ebp]

; 59   : 		lfBlue = ToRGB1(lfValue1, lfValue2, afHue - 120.0f);

  00126	d9 45 0c	 fld	 DWORD PTR _afHue$[ebp]
  00129	d8 25 00 00 00
	00		 fsub	 DWORD PTR __real@42f00000
  0012f	51		 push	 ecx
  00130	d9 1c 24	 fstp	 DWORD PTR [esp]
  00133	8b 45 f0	 mov	 eax, DWORD PTR _lfValue2$197404[ebp]
  00136	50		 push	 eax
  00137	8b 4d ec	 mov	 ecx, DWORD PTR _lfValue1$197403[ebp]
  0013a	51		 push	 ecx
  0013b	8b 4d e8	 mov	 ecx, DWORD PTR _this$[ebp]
  0013e	e8 00 00 00 00	 call	 ?ToRGB1@CGdiEx@@QAEMMMM@Z ; CGdiEx::ToRGB1
  00143	d9 5d fc	 fstp	 DWORD PTR _lfBlue$[ebp]
$L197402:

; 60   : 	}
; 61   : 
; 62   : 	aSourceColor = RGB(lfRed, lfGreen, lfBlue);

  00146	d9 45 f4	 fld	 DWORD PTR _lfRed$[ebp]
  00149	e8 00 00 00 00	 call	 __ftol2
  0014e	0f b6 f0	 movzx	 esi, al
  00151	d9 45 f8	 fld	 DWORD PTR _lfGreen$[ebp]
  00154	e8 00 00 00 00	 call	 __ftol2
  00159	0f b6 d0	 movzx	 edx, al
  0015c	c1 e2 08	 shl	 edx, 8
  0015f	0b f2		 or	 esi, edx
  00161	d9 45 fc	 fld	 DWORD PTR _lfBlue$[ebp]
  00164	e8 00 00 00 00	 call	 __ftol2
  00169	0f b6 c0	 movzx	 eax, al
  0016c	c1 e0 10	 shl	 eax, 16			; 00000010H
  0016f	0b f0		 or	 esi, eax
  00171	8b 4d 08	 mov	 ecx, DWORD PTR _aSourceColor$[ebp]
  00174	89 31		 mov	 DWORD PTR [ecx], esi

; 63   : }

  00176	5e		 pop	 esi
  00177	8b e5		 mov	 esp, ebp
  00179	5d		 pop	 ebp
  0017a	c2 10 00	 ret	 16			; 00000010H
?SetRGB@CGdiEx@@QAEXAAKMMM@Z ENDP			; CGdiEx::SetRGB
_TEXT	ENDS
PUBLIC	__real@43b40000
PUBLIC	__real@42700000
PUBLIC	__real@43340000
PUBLIC	__real@43700000
;	COMDAT __real@43b40000
CONST	SEGMENT
__real@43b40000 DD 043b40000r			; 360
CONST	ENDS
;	COMDAT __real@42700000
CONST	SEGMENT
__real@42700000 DD 042700000r			; 60
CONST	ENDS
;	COMDAT __real@43340000
CONST	SEGMENT
__real@43340000 DD 043340000r			; 180
CONST	ENDS
;	COMDAT __real@43700000
CONST	SEGMENT
__real@43700000 DD 043700000r			; 240
; Function compile flags: /Odt
CONST	ENDS
;	COMDAT ?ToRGB1@CGdiEx@@QAEMMMM@Z
_TEXT	SEGMENT
_this$ = -4						; size = 4
_afValue1$ = 8						; size = 4
_afValue2$ = 12						; size = 4
_afValue3$ = 16						; size = 4
?ToRGB1@CGdiEx@@QAEMMMM@Z PROC NEAR			; CGdiEx::ToRGB1, COMDAT
; _this$ = ecx

; 22   : {

  00000	55		 push	 ebp
  00001	8b ec		 mov	 ebp, esp
  00003	51		 push	 ecx
  00004	89 4d fc	 mov	 DWORD PTR _this$[ebp], ecx

; 23   : 	if (afValue3 > 360.0f)

  00007	d9 45 10	 fld	 DWORD PTR _afValue3$[ebp]
  0000a	d8 1d 00 00 00
	00		 fcomp	 DWORD PTR __real@43b40000
  00010	df e0		 fnstsw	 ax
  00012	f6 c4 41	 test	 ah, 65			; 00000041H
  00015	75 0e		 jne	 SHORT $L197379

; 24   : 		afValue3 -= 360.0f;

  00017	d9 45 10	 fld	 DWORD PTR _afValue3$[ebp]
  0001a	d8 25 00 00 00
	00		 fsub	 DWORD PTR __real@43b40000
  00020	d9 5d 10	 fstp	 DWORD PTR _afValue3$[ebp]

; 25   : 	else if (afValue3 < 0.0f)

  00023	eb 1c		 jmp	 SHORT $L197380
$L197379:
  00025	d9 45 10	 fld	 DWORD PTR _afValue3$[ebp]
  00028	d8 1d 00 00 00
	00		 fcomp	 DWORD PTR __real@00000000
  0002e	df e0		 fnstsw	 ax
  00030	f6 c4 05	 test	 ah, 5
  00033	7a 0c		 jp	 SHORT $L197380

; 26   : 		afValue3 += 360.0f;

  00035	d9 45 10	 fld	 DWORD PTR _afValue3$[ebp]
  00038	d8 05 00 00 00
	00		 fadd	 DWORD PTR __real@43b40000
  0003e	d9 5d 10	 fstp	 DWORD PTR _afValue3$[ebp]
$L197380:

; 27   : 
; 28   : 	if (afValue3 < 60.0f)

  00041	d9 45 10	 fld	 DWORD PTR _afValue3$[ebp]
  00044	d8 1d 00 00 00
	00		 fcomp	 DWORD PTR __real@42700000
  0004a	df e0		 fnstsw	 ax
  0004c	f6 c4 05	 test	 ah, 5
  0004f	7a 17		 jp	 SHORT $L197382

; 29   : 		afValue1 = afValue1 + (afValue2 - afValue1) * afValue3 / 60.0f;

  00051	d9 45 0c	 fld	 DWORD PTR _afValue2$[ebp]
  00054	d8 65 08	 fsub	 DWORD PTR _afValue1$[ebp]
  00057	d8 4d 10	 fmul	 DWORD PTR _afValue3$[ebp]
  0005a	d8 35 00 00 00
	00		 fdiv	 DWORD PTR __real@42700000
  00060	d8 45 08	 fadd	 DWORD PTR _afValue1$[ebp]
  00063	d9 5d 08	 fstp	 DWORD PTR _afValue1$[ebp]

; 30   : 	else if (afValue3 < 180.0f)

  00066	eb 45		 jmp	 SHORT $L197383
$L197382:
  00068	d9 45 10	 fld	 DWORD PTR _afValue3$[ebp]
  0006b	d8 1d 00 00 00
	00		 fcomp	 DWORD PTR __real@43340000
  00071	df e0		 fnstsw	 ax
  00073	f6 c4 05	 test	 ah, 5
  00076	7a 08		 jp	 SHORT $L197384

; 31   : 		afValue1 = afValue2;

  00078	8b 45 0c	 mov	 eax, DWORD PTR _afValue2$[ebp]
  0007b	89 45 08	 mov	 DWORD PTR _afValue1$[ebp], eax

; 32   : 	else if (afValue3 < 240.0f)

  0007e	eb 2d		 jmp	 SHORT $L197383
$L197384:
  00080	d9 45 10	 fld	 DWORD PTR _afValue3$[ebp]
  00083	d8 1d 00 00 00
	00		 fcomp	 DWORD PTR __real@43700000
  00089	df e0		 fnstsw	 ax
  0008b	f6 c4 05	 test	 ah, 5
  0008e	7a 1d		 jp	 SHORT $L197383

; 33   : 		afValue1 = afValue1 + (afValue2 - afValue1) * (240.0f - afValue3) / 60.0f;

  00090	d9 45 0c	 fld	 DWORD PTR _afValue2$[ebp]
  00093	d8 65 08	 fsub	 DWORD PTR _afValue1$[ebp]
  00096	d9 05 00 00 00
	00		 fld	 DWORD PTR __real@43700000
  0009c	d8 65 10	 fsub	 DWORD PTR _afValue3$[ebp]
  0009f	de c9		 fmulp	 ST(1), ST(0)
  000a1	d8 35 00 00 00
	00		 fdiv	 DWORD PTR __real@42700000
  000a7	d8 45 08	 fadd	 DWORD PTR _afValue1$[ebp]
  000aa	d9 5d 08	 fstp	 DWORD PTR _afValue1$[ebp]
$L197383:

; 34   : 
; 35   : 	return afValue1 * 255;

  000ad	d9 45 08	 fld	 DWORD PTR _afValue1$[ebp]
  000b0	d8 0d 00 00 00
	00		 fmul	 DWORD PTR __real@437f0000

; 36   : }

  000b6	8b e5		 mov	 esp, ebp
  000b8	5d		 pop	 ebp
  000b9	c2 0c 00	 ret	 12			; 0000000cH
?ToRGB1@CGdiEx@@QAEMMMM@Z ENDP				; CGdiEx::ToRGB1
_TEXT	ENDS
PUBLIC	?SetHBS@CGdiEx@@QAEXKAAM00@Z			; CGdiEx::SetHBS
PUBLIC	__real@43ff0000
PUBLIC	__real@40c00000
PUBLIC	__real@40800000
;	COMDAT __real@43ff0000
CONST	SEGMENT
__real@43ff0000 DD 043ff0000r			; 510
CONST	ENDS
;	COMDAT __real@40c00000
CONST	SEGMENT
__real@40c00000 DD 040c00000r			; 6
CONST	ENDS
;	COMDAT __real@40800000
CONST	SEGMENT
__real@40800000 DD 040800000r			; 4
; Function compile flags: /Odt
CONST	ENDS
_TEXT	SEGMENT
tv85 = -80						; size = 4
tv86 = -76						; size = 4
tv82 = -72						; size = 4
tv79 = -68						; size = 4
tv80 = -64						; size = 4
tv76 = -60						; size = 4
tv157 = -56						; size = 4
tv155 = -52						; size = 4
tv154 = -48						; size = 4
_this$ = -44						; size = 4
_lfMaxValue$ = -40					; size = 4
_lfMinValue$ = -36					; size = 4
_lfBlueTarget$ = -32					; size = 4
_lfRed$ = -28						; size = 4
_lfSum$ = -24						; size = 4
_lfGreenTarget$ = -20					; size = 4
_lfGreen$ = -16						; size = 4
_lfDiff$ = -12						; size = 4
_lfBlue$ = -8						; size = 4
_lfRedTarget$ = -4					; size = 4
_aSourceColor$ = 8					; size = 4
_afHue$ = 12						; size = 4
_afBrightness$ = 16					; size = 4
_afSaturation$ = 20					; size = 4
?SetHBS@CGdiEx@@QAEXKAAM00@Z PROC NEAR			; CGdiEx::SetHBS
; _this$ = ecx

; 65   : {

  00180	55		 push	 ebp
  00181	8b ec		 mov	 ebp, esp
  00183	83 ec 50	 sub	 esp, 80			; 00000050H
  00186	89 4d d4	 mov	 DWORD PTR _this$[ebp], ecx

; 66   : 	FLOAT lfRed   = GetRValue(aSourceColor);

  00189	0f b6 45 08	 movzx	 eax, BYTE PTR _aSourceColor$[ebp]
  0018d	89 45 d0	 mov	 DWORD PTR tv154[ebp], eax
  00190	db 45 d0	 fild	 DWORD PTR tv154[ebp]
  00193	d9 5d e4	 fstp	 DWORD PTR _lfRed$[ebp]

; 67   : 	FLOAT lfGreen = GetGValue(aSourceColor);

  00196	0f b7 4d 08	 movzx	 ecx, WORD PTR _aSourceColor$[ebp]
  0019a	c1 f9 08	 sar	 ecx, 8
  0019d	0f b6 d1	 movzx	 edx, cl
  001a0	89 55 cc	 mov	 DWORD PTR tv155[ebp], edx
  001a3	db 45 cc	 fild	 DWORD PTR tv155[ebp]
  001a6	d9 5d f0	 fstp	 DWORD PTR _lfGreen$[ebp]

; 68   : 	FLOAT lfBlue  = GetBValue(aSourceColor);

  001a9	8b 45 08	 mov	 eax, DWORD PTR _aSourceColor$[ebp]
  001ac	c1 e8 10	 shr	 eax, 16			; 00000010H
  001af	0f b6 c8	 movzx	 ecx, al
  001b2	89 4d c8	 mov	 DWORD PTR tv157[ebp], ecx
  001b5	db 45 c8	 fild	 DWORD PTR tv157[ebp]
  001b8	d9 5d f8	 fstp	 DWORD PTR _lfBlue$[ebp]

; 69   : 
; 70   : 	FLOAT lfMaxValue = max(lfRed, max(lfGreen, lfBlue));

  001bb	d9 45 f0	 fld	 DWORD PTR _lfGreen$[ebp]
  001be	d8 5d f8	 fcomp	 DWORD PTR _lfBlue$[ebp]
  001c1	df e0		 fnstsw	 ax
  001c3	f6 c4 41	 test	 ah, 65			; 00000041H
  001c6	75 08		 jne	 SHORT $L198813
  001c8	8b 55 f0	 mov	 edx, DWORD PTR _lfGreen$[ebp]
  001cb	89 55 c4	 mov	 DWORD PTR tv76[ebp], edx
  001ce	eb 06		 jmp	 SHORT $L198814
$L198813:
  001d0	8b 45 f8	 mov	 eax, DWORD PTR _lfBlue$[ebp]
  001d3	89 45 c4	 mov	 DWORD PTR tv76[ebp], eax
$L198814:
  001d6	d9 45 e4	 fld	 DWORD PTR _lfRed$[ebp]
  001d9	d8 5d c4	 fcomp	 DWORD PTR tv76[ebp]
  001dc	df e0		 fnstsw	 ax
  001de	f6 c4 41	 test	 ah, 65			; 00000041H
  001e1	75 08		 jne	 SHORT $L198817
  001e3	8b 4d e4	 mov	 ecx, DWORD PTR _lfRed$[ebp]
  001e6	89 4d c0	 mov	 DWORD PTR tv80[ebp], ecx
  001e9	eb 21		 jmp	 SHORT $L198818
$L198817:
  001eb	d9 45 f0	 fld	 DWORD PTR _lfGreen$[ebp]
  001ee	d8 5d f8	 fcomp	 DWORD PTR _lfBlue$[ebp]
  001f1	df e0		 fnstsw	 ax
  001f3	f6 c4 41	 test	 ah, 65			; 00000041H
  001f6	75 08		 jne	 SHORT $L198815
  001f8	8b 55 f0	 mov	 edx, DWORD PTR _lfGreen$[ebp]
  001fb	89 55 bc	 mov	 DWORD PTR tv79[ebp], edx
  001fe	eb 06		 jmp	 SHORT $L198816
$L198815:
  00200	8b 45 f8	 mov	 eax, DWORD PTR _lfBlue$[ebp]
  00203	89 45 bc	 mov	 DWORD PTR tv79[ebp], eax
$L198816:
  00206	8b 4d bc	 mov	 ecx, DWORD PTR tv79[ebp]
  00209	89 4d c0	 mov	 DWORD PTR tv80[ebp], ecx
$L198818:
  0020c	8b 55 c0	 mov	 edx, DWORD PTR tv80[ebp]
  0020f	89 55 d8	 mov	 DWORD PTR _lfMaxValue$[ebp], edx

; 71   : 	FLOAT lfMinValue = min(lfRed, min(lfGreen, lfBlue));

  00212	d9 45 f0	 fld	 DWORD PTR _lfGreen$[ebp]
  00215	d8 5d f8	 fcomp	 DWORD PTR _lfBlue$[ebp]
  00218	df e0		 fnstsw	 ax
  0021a	f6 c4 05	 test	 ah, 5
  0021d	7a 08		 jp	 SHORT $L198819
  0021f	8b 45 f0	 mov	 eax, DWORD PTR _lfGreen$[ebp]
  00222	89 45 b8	 mov	 DWORD PTR tv82[ebp], eax
  00225	eb 06		 jmp	 SHORT $L198820
$L198819:
  00227	8b 4d f8	 mov	 ecx, DWORD PTR _lfBlue$[ebp]
  0022a	89 4d b8	 mov	 DWORD PTR tv82[ebp], ecx
$L198820:
  0022d	d9 45 e4	 fld	 DWORD PTR _lfRed$[ebp]
  00230	d8 5d b8	 fcomp	 DWORD PTR tv82[ebp]
  00233	df e0		 fnstsw	 ax
  00235	f6 c4 05	 test	 ah, 5
  00238	7a 08		 jp	 SHORT $L198823
  0023a	8b 55 e4	 mov	 edx, DWORD PTR _lfRed$[ebp]
  0023d	89 55 b4	 mov	 DWORD PTR tv86[ebp], edx
  00240	eb 21		 jmp	 SHORT $L198824
$L198823:
  00242	d9 45 f0	 fld	 DWORD PTR _lfGreen$[ebp]
  00245	d8 5d f8	 fcomp	 DWORD PTR _lfBlue$[ebp]
  00248	df e0		 fnstsw	 ax
  0024a	f6 c4 05	 test	 ah, 5
  0024d	7a 08		 jp	 SHORT $L198821
  0024f	8b 45 f0	 mov	 eax, DWORD PTR _lfGreen$[ebp]
  00252	89 45 b0	 mov	 DWORD PTR tv85[ebp], eax
  00255	eb 06		 jmp	 SHORT $L198822
$L198821:
  00257	8b 4d f8	 mov	 ecx, DWORD PTR _lfBlue$[ebp]
  0025a	89 4d b0	 mov	 DWORD PTR tv85[ebp], ecx
$L198822:
  0025d	8b 55 b0	 mov	 edx, DWORD PTR tv85[ebp]
  00260	89 55 b4	 mov	 DWORD PTR tv86[ebp], edx
$L198824:
  00263	8b 45 b4	 mov	 eax, DWORD PTR tv86[ebp]
  00266	89 45 dc	 mov	 DWORD PTR _lfMinValue$[ebp], eax

; 72   : 
; 73   : 	FLOAT lfDiff, lfSum, lfRedTarget, lfGreenTarget, lfBlueTarget;
; 74   : 
; 75   : 	lfDiff = lfMaxValue - lfMinValue;

  00269	d9 45 d8	 fld	 DWORD PTR _lfMaxValue$[ebp]
  0026c	d8 65 dc	 fsub	 DWORD PTR _lfMinValue$[ebp]
  0026f	d9 5d f4	 fstp	 DWORD PTR _lfDiff$[ebp]

; 76   : 	lfSum  = lfMaxValue + lfMinValue;

  00272	d9 45 d8	 fld	 DWORD PTR _lfMaxValue$[ebp]
  00275	d8 45 dc	 fadd	 DWORD PTR _lfMinValue$[ebp]
  00278	d9 55 e8	 fst	 DWORD PTR _lfSum$[ebp]

; 77   : 	afBrightness = lfSum / 510.0f;

  0027b	d8 35 00 00 00
	00		 fdiv	 DWORD PTR __real@43ff0000
  00281	8b 4d 10	 mov	 ecx, DWORD PTR _afBrightness$[ebp]
  00284	d9 19		 fstp	 DWORD PTR [ecx]

; 78   : 
; 79   : 	if (lfMaxValue == lfMinValue)

  00286	d9 45 dc	 fld	 DWORD PTR _lfMinValue$[ebp]
  00289	d9 45 d8	 fld	 DWORD PTR _lfMaxValue$[ebp]
  0028c	da e9		 fucompp
  0028e	df e0		 fnstsw	 ax
  00290	f6 c4 44	 test	 ah, 68			; 00000044H
  00293	7a 17		 jp	 SHORT $L197434

; 80   : 	{
; 81   : 		afSaturation = 0.0f;

  00295	8b 55 14	 mov	 edx, DWORD PTR _afSaturation$[ebp]
  00298	c7 02 00 00 00
	00		 mov	 DWORD PTR [edx], 0

; 82   : 		afHue = 0.0f;

  0029e	8b 45 0c	 mov	 eax, DWORD PTR _afHue$[ebp]
  002a1	c7 00 00 00 00
	00		 mov	 DWORD PTR [eax], 0

; 83   : 	}
; 84   : 	else

  002a7	e9 e8 00 00 00	 jmp	 $L197419
$L197434:

; 85   : 	{
; 86   : 		lfRedTarget = (lfMaxValue - lfRed) / lfDiff;

  002ac	d9 45 d8	 fld	 DWORD PTR _lfMaxValue$[ebp]
  002af	d8 65 e4	 fsub	 DWORD PTR _lfRed$[ebp]
  002b2	d8 75 f4	 fdiv	 DWORD PTR _lfDiff$[ebp]
  002b5	d9 5d fc	 fstp	 DWORD PTR _lfRedTarget$[ebp]

; 87   : 		lfGreenTarget = (lfMaxValue - lfGreen) / lfDiff;

  002b8	d9 45 d8	 fld	 DWORD PTR _lfMaxValue$[ebp]
  002bb	d8 65 f0	 fsub	 DWORD PTR _lfGreen$[ebp]
  002be	d8 75 f4	 fdiv	 DWORD PTR _lfDiff$[ebp]
  002c1	d9 5d ec	 fstp	 DWORD PTR _lfGreenTarget$[ebp]

; 88   : 		lfBlueTarget = (lfMaxValue - lfBlue) / lfDiff;

  002c4	d9 45 d8	 fld	 DWORD PTR _lfMaxValue$[ebp]
  002c7	d8 65 f8	 fsub	 DWORD PTR _lfBlue$[ebp]
  002ca	d8 75 f4	 fdiv	 DWORD PTR _lfDiff$[ebp]
  002cd	d9 5d e0	 fstp	 DWORD PTR _lfBlueTarget$[ebp]

; 89   : 
; 90   : 		if (afBrightness <= 0.5f)

  002d0	8b 4d 10	 mov	 ecx, DWORD PTR _afBrightness$[ebp]
  002d3	d9 01		 fld	 DWORD PTR [ecx]
  002d5	d8 1d 00 00 00
	00		 fcomp	 DWORD PTR __real@3f000000
  002db	df e0		 fnstsw	 ax
  002dd	f6 c4 41	 test	 ah, 65			; 00000041H
  002e0	7a 0d		 jp	 SHORT $L197436

; 91   : 			afSaturation = lfDiff / lfSum;

  002e2	d9 45 f4	 fld	 DWORD PTR _lfDiff$[ebp]
  002e5	d8 75 e8	 fdiv	 DWORD PTR _lfSum$[ebp]
  002e8	8b 55 14	 mov	 edx, DWORD PTR _afSaturation$[ebp]
  002eb	d9 1a		 fstp	 DWORD PTR [edx]

; 92   : 		else

  002ed	eb 11		 jmp	 SHORT $L197437
$L197436:

; 93   : 			afSaturation = lfDiff / (510.0f - lfSum);

  002ef	d9 05 00 00 00
	00		 fld	 DWORD PTR __real@43ff0000
  002f5	d8 65 e8	 fsub	 DWORD PTR _lfSum$[ebp]
  002f8	d8 7d f4	 fdivr	 DWORD PTR _lfDiff$[ebp]
  002fb	8b 45 14	 mov	 eax, DWORD PTR _afSaturation$[ebp]
  002fe	d9 18		 fstp	 DWORD PTR [eax]
$L197437:

; 94   : 
; 95   : 		if (lfRed == lfMaxValue)

  00300	d9 45 d8	 fld	 DWORD PTR _lfMaxValue$[ebp]
  00303	d9 45 e4	 fld	 DWORD PTR _lfRed$[ebp]
  00306	da e9		 fucompp
  00308	df e0		 fnstsw	 ax
  0030a	f6 c4 44	 test	 ah, 68			; 00000044H
  0030d	7a 17		 jp	 SHORT $L197438

; 96   : 			afHue = 60.0f * (6.0f + lfBlueTarget - lfGreenTarget);

  0030f	d9 05 00 00 00
	00		 fld	 DWORD PTR __real@40c00000
  00315	d8 45 e0	 fadd	 DWORD PTR _lfBlueTarget$[ebp]
  00318	d8 65 ec	 fsub	 DWORD PTR _lfGreenTarget$[ebp]
  0031b	d8 0d 00 00 00
	00		 fmul	 DWORD PTR __real@42700000
  00321	8b 4d 0c	 mov	 ecx, DWORD PTR _afHue$[ebp]
  00324	d9 19		 fstp	 DWORD PTR [ecx]
$L197438:

; 97   : 		if (lfGreen == lfMaxValue)

  00326	d9 45 d8	 fld	 DWORD PTR _lfMaxValue$[ebp]
  00329	d9 45 f0	 fld	 DWORD PTR _lfGreen$[ebp]
  0032c	da e9		 fucompp
  0032e	df e0		 fnstsw	 ax
  00330	f6 c4 44	 test	 ah, 68			; 00000044H
  00333	7a 17		 jp	 SHORT $L197439

; 98   : 			afHue = 60.0f * (2.0f + lfRedTarget - lfBlueTarget);

  00335	d9 05 00 00 00
	00		 fld	 DWORD PTR __real@40000000
  0033b	d8 45 fc	 fadd	 DWORD PTR _lfRedTarget$[ebp]
  0033e	d8 65 e0	 fsub	 DWORD PTR _lfBlueTarget$[ebp]
  00341	d8 0d 00 00 00
	00		 fmul	 DWORD PTR __real@42700000
  00347	8b 55 0c	 mov	 edx, DWORD PTR _afHue$[ebp]
  0034a	d9 1a		 fstp	 DWORD PTR [edx]
$L197439:

; 99   : 		if (lfBlue == lfMaxValue)

  0034c	d9 45 d8	 fld	 DWORD PTR _lfMaxValue$[ebp]
  0034f	d9 45 f8	 fld	 DWORD PTR _lfBlue$[ebp]
  00352	da e9		 fucompp
  00354	df e0		 fnstsw	 ax
  00356	f6 c4 44	 test	 ah, 68			; 00000044H
  00359	7a 17		 jp	 SHORT $L197440

; 100  : 			afHue = 60.0f * (4.0f + lfGreenTarget - lfRedTarget);

  0035b	d9 05 00 00 00
	00		 fld	 DWORD PTR __real@40800000
  00361	d8 45 ec	 fadd	 DWORD PTR _lfGreenTarget$[ebp]
  00364	d8 65 fc	 fsub	 DWORD PTR _lfRedTarget$[ebp]
  00367	d8 0d 00 00 00
	00		 fmul	 DWORD PTR __real@42700000
  0036d	8b 45 0c	 mov	 eax, DWORD PTR _afHue$[ebp]
  00370	d9 18		 fstp	 DWORD PTR [eax]
$L197440:

; 101  : 		if (afHue > 360.0f)

  00372	8b 4d 0c	 mov	 ecx, DWORD PTR _afHue$[ebp]
  00375	d9 01		 fld	 DWORD PTR [ecx]
  00377	d8 1d 00 00 00
	00		 fcomp	 DWORD PTR __real@43b40000
  0037d	df e0		 fnstsw	 ax
  0037f	f6 c4 41	 test	 ah, 65			; 00000041H
  00382	75 10		 jne	 SHORT $L197419

; 102  : 			afHue = afHue - 360.0f;

  00384	8b 55 0c	 mov	 edx, DWORD PTR _afHue$[ebp]
  00387	d9 02		 fld	 DWORD PTR [edx]
  00389	d8 25 00 00 00
	00		 fsub	 DWORD PTR __real@43b40000
  0038f	8b 45 0c	 mov	 eax, DWORD PTR _afHue$[ebp]
  00392	d9 18		 fstp	 DWORD PTR [eax]
$L197419:

; 103  : 	}
; 104  : }

  00394	8b e5		 mov	 esp, ebp
  00396	5d		 pop	 ebp
  00397	c2 10 00	 ret	 16			; 00000010H
?SetHBS@CGdiEx@@QAEXKAAM00@Z ENDP			; CGdiEx::SetHBS
_TEXT	ENDS
PUBLIC	?CreateRgnFromBitmap@CGdiEx@@QAEPAUHRGN__@@PAUHBITMAP__@@KK@Z ; CGdiEx::CreateRgnFromBitmap
EXTRN	__imp__GlobalAlloc@8:NEAR
EXTRN	__imp__GlobalReAlloc@12:NEAR
EXTRN	__imp__GlobalLock@4:NEAR
EXTRN	__imp__SelectObject@8:NEAR
EXTRN	__imp__GlobalUnlock@4:NEAR
EXTRN	__imp__GlobalFree@4:NEAR
EXTRN	__imp__BitBlt@36:NEAR
EXTRN	__imp__CombineRgn@16:NEAR
EXTRN	__imp__CreateCompatibleDC@4:NEAR
EXTRN	__imp__DeleteDC@4:NEAR
EXTRN	__imp__DeleteObject@4:NEAR
EXTRN	__imp__ExtCreateRegion@12:NEAR
EXTRN	__imp__CreateDIBSection@24:NEAR
EXTRN	__imp__GetObjectA@12:NEAR
EXTRN	__imp__SetRect@20:NEAR
; Function compile flags: /Odt
_TEXT	SEGMENT
tv223 = -192						; size = 4
tv210 = -188						; size = 4
tv195 = -184						; size = 4
_this$ = -180						; size = 4
_h$197531 = -176					; size = 4
_pr$197524 = -172					; size = 4
_b$197511 = -165					; size = 1
_x0$197505 = -164					; size = 4
_p$197506 = -160					; size = 4
_x$197501 = -156					; size = 4
_y$197497 = -152					; size = 4
_lb$197482 = -148					; size = 1
_lg$197479 = -147					; size = 1
_hr$197484 = -146					; size = 1
_hb$197492 = -145					; size = 1
_hData$197471 = -144					; size = 4
_holdBmp$197467 = -140					; size = 4
_p32$197495 = -136					; size = 4
_hg$197487 = -129					; size = 1
_bm32$197463 = -128					; size = 24
_pData$197474 = -104					; size = 4
_h$197536 = -100					; size = 4
_maxRects$197470 = -96					; size = 4
_lr$197477 = -89					; size = 1
_holdBmp$197459 = -88					; size = 4
_hDC$197461 = -84					; size = 4
_bm$197452 = -80					; size = 24
_RGB32BITSBITMAPINFO$197453 = -56			; size = 40
_pbits32$197455 = -16					; size = 4
_hbm32$197456 = -12					; size = 4
_hMemDC$197450 = -8					; size = 4
_hRgn$ = -4						; size = 4
_hBmp$ = 8						; size = 4
_cTransparentColor$ = 12				; size = 4
_cTolerance$ = 16					; size = 4
?CreateRgnFromBitmap@CGdiEx@@QAEPAUHRGN__@@PAUHBITMAP__@@KK@Z PROC NEAR ; CGdiEx::CreateRgnFromBitmap
; _this$ = ecx

; 107  : {

  003a0	55		 push	 ebp
  003a1	8b ec		 mov	 ebp, esp
  003a3	81 ec c0 00 00
	00		 sub	 esp, 192		; 000000c0H
  003a9	89 8d 4c ff ff
	ff		 mov	 DWORD PTR _this$[ebp], ecx

; 108  : 	/*if (!hBmp) return NULL;
; 109  : 
; 110  : 
; 111  : 
; 112  : 	BITMAP bm;
; 113  : 	GetObject( hBmp, sizeof(BITMAP), &bm );	
; 114  : 
; 115  : 	CDC dcBmp;
; 116  : 	CDC* lpdc = CWnd::FromHandle(handle)->GetDC();
; 117  : 	dcBmp.CreateCompatibleDC(lpdc );
; 118  : 	dcBmp.SelectObject(hBmp);			
; 119  : 
; 120  : 	const DWORD RDHDR = sizeof(RGNDATAHEADER);
; 121  : 	const DWORD MAXBUF = 40;		
; 122  : 	LPRECT	pRects;								
; 123  : 	DWORD	cBlocks = 0;		
; 124  : 
; 125  : 	INT		i, j;
; 126  : 	INT		first = 0;		
; 127  : 	bool	wasfirst = false;	
; 128  : 	bool	ismask;		
; 129  : 	RGNDATAHEADER* pRgnData = (RGNDATAHEADER*)new BYTE[ RDHDR + ++cBlocks * MAXBUF * sizeof(RECT) ];
; 130  : 	memset( pRgnData, 0, RDHDR + cBlocks * MAXBUF * sizeof(RECT) );
; 131  : 	pRgnData->dwSize	= RDHDR;
; 132  : 	pRgnData->iType		= RDH_RECTANGLES;
; 133  : 	pRgnData->nCount	= 0;
; 134  : 	for ( i = 0; i < bm.bmHeight; i++ )
; 135  : 	for ( j = 0; j < bm.bmWidth; j++ ){
; 136  : 	ismask=(dcBmp.GetPixel(j,bm.bmHeight-i-1)!=color);
; 137  : 	if (wasfirst && ((ismask && (j==(bm.bmWidth-1)))||(ismask ^ (j<bm.bmWidth)))){
; 138  : 	pRects = (LPRECT)((LPBYTE)pRgnData + RDHDR);
; 139  : 	pRects[ pRgnData->nCount++ ] = CRect( first, bm.bmHeight - i - 1, j+(j==(bm.bmWidth-1)), bm.bmHeight - i );
; 140  : 	if ( pRgnData->nCount >= cBlocks * MAXBUF ){
; 141  : 	LPBYTE pRgnDataNew = new BYTE[ RDHDR + ++cBlocks * MAXBUF * sizeof(RECT) ];
; 142  : 	memcpy( pRgnDataNew, pRgnData, RDHDR + (cBlocks - 1) * MAXBUF * sizeof(RECT) );
; 143  : 	delete pRgnData;
; 144  : 	pRgnData = (RGNDATAHEADER*)pRgnDataNew;
; 145  : 	}
; 146  : 	wasfirst = false;
; 147  : 	} else if ( !wasfirst && ismask ){
; 148  : 	first = j;
; 149  : 	wasfirst = true;
; 150  : 	}
; 151  : 	}
; 152  : 	dcBmp.DeleteDC();	
; 153  : 	HRGN hRgn=CreateRectRgn(0, 0, 0, 0);
; 154  : 	ASSERT( hRgn!=NULL );
; 155  : 	pRects = (LPRECT)((LPBYTE)pRgnData + RDHDR);
; 156  : 	for(i=0;i<(int)pRgnData->nCount;i++)
; 157  : 	{
; 158  : 	HRGN hr=CreateRectRgn(pRects[i].left, pRects[i].top, pRects[i].right, pRects[i].bottom);
; 159  : 	VERIFY(CombineRgn(hRgn, hRgn, hr, RGN_OR)!=ERROR);
; 160  : 	if (hr) DeleteObject(hr);
; 161  : 	}
; 162  : 	ASSERT( hRgn!=NULL );
; 163  : 	ReleaseDC(handle,lpdc->m_hDC);
; 164  : 	delete pRgnData;
; 165  : 	return hRgn;*/
; 166  : 
; 167  : 
; 168  : 	 HRGN hRgn = NULL;

  003af	c7 45 fc 00 00
	00 00		 mov	 DWORD PTR _hRgn$[ebp], 0

; 169  : 
; 170  :     if (hBmp)

  003b6	83 7d 08 00	 cmp	 DWORD PTR _hBmp$[ebp], 0
  003ba	0f 84 1b 06 00
	00		 je	 $L197449

; 171  :    {
; 172  :         // Create a memory DC inside which we will scan the bitmap content
; 173  :         HDC hMemDC = CreateCompatibleDC(NULL);

  003c0	6a 00		 push	 0
  003c2	ff 15 00 00 00
	00		 call	 DWORD PTR __imp__CreateCompatibleDC@4
  003c8	89 45 f8	 mov	 DWORD PTR _hMemDC$197450[ebp], eax

; 174  :         if (hMemDC)

  003cb	83 7d f8 00	 cmp	 DWORD PTR _hMemDC$197450[ebp], 0
  003cf	0f 84 06 06 00
	00		 je	 $L197449

; 175  :         {
; 176  :             // Get bitmap size
; 177  :             BITMAP bm;
; 178  :             GetObject(hBmp, sizeof(bm), &bm);

  003d5	8d 45 b0	 lea	 eax, DWORD PTR _bm$197452[ebp]
  003d8	50		 push	 eax
  003d9	6a 18		 push	 24			; 00000018H
  003db	8b 4d 08	 mov	 ecx, DWORD PTR _hBmp$[ebp]
  003de	51		 push	 ecx
  003df	ff 15 00 00 00
	00		 call	 DWORD PTR __imp__GetObjectA@12

; 179  : 
; 180  :             // Create a 32 bits depth bitmap and select it into the memory DC 
; 181  :             BITMAPINFOHEADER RGB32BITSBITMAPINFO = {    
; 182  :                     sizeof(BITMAPINFOHEADER),    // biSize 

  003e5	c7 45 c8 28 00
	00 00		 mov	 DWORD PTR _RGB32BITSBITMAPINFO$197453[ebp], 40 ; 00000028H

; 183  :                     bm.bmWidth,                    // biWidth; 

  003ec	8b 55 b4	 mov	 edx, DWORD PTR _bm$197452[ebp+4]
  003ef	89 55 cc	 mov	 DWORD PTR _RGB32BITSBITMAPINFO$197453[ebp+4], edx

; 184  :                     bm.bmHeight,                // biHeight; 

  003f2	8b 45 b8	 mov	 eax, DWORD PTR _bm$197452[ebp+8]
  003f5	89 45 d0	 mov	 DWORD PTR _RGB32BITSBITMAPINFO$197453[ebp+8], eax

; 185  :                     1,                            // biPlanes; 

  003f8	66 c7 45 d4 01
	00		 mov	 WORD PTR _RGB32BITSBITMAPINFO$197453[ebp+12], 1

; 186  :                     32,                            // biBitCount 

  003fe	66 c7 45 d6 20
	00		 mov	 WORD PTR _RGB32BITSBITMAPINFO$197453[ebp+14], 32 ; 00000020H

; 187  :                     BI_RGB,                        // biCompression; 

  00404	c7 45 d8 00 00
	00 00		 mov	 DWORD PTR _RGB32BITSBITMAPINFO$197453[ebp+16], 0

; 188  :                     0,                            // biSizeImage; 

  0040b	c7 45 dc 00 00
	00 00		 mov	 DWORD PTR _RGB32BITSBITMAPINFO$197453[ebp+20], 0

; 189  :                     0,                            // biXPelsPerMeter; 

  00412	c7 45 e0 00 00
	00 00		 mov	 DWORD PTR _RGB32BITSBITMAPINFO$197453[ebp+24], 0

; 190  :                     0,                            // biYPelsPerMeter; 

  00419	c7 45 e4 00 00
	00 00		 mov	 DWORD PTR _RGB32BITSBITMAPINFO$197453[ebp+28], 0

; 191  :                     0,                            // biClrUsed; 

  00420	c7 45 e8 00 00
	00 00		 mov	 DWORD PTR _RGB32BITSBITMAPINFO$197453[ebp+32], 0

; 192  :                     0                            // biClrImportant; 
; 193  :             };

  00427	c7 45 ec 00 00
	00 00		 mov	 DWORD PTR _RGB32BITSBITMAPINFO$197453[ebp+36], 0

; 194  :             VOID * pbits32; 
; 195  :             HBITMAP hbm32 = CreateDIBSection(hMemDC, (BITMAPINFO *)&RGB32BITSBITMAPINFO, DIB_RGB_COLORS, &pbits32, NULL, 0);

  0042e	6a 00		 push	 0
  00430	6a 00		 push	 0
  00432	8d 4d f0	 lea	 ecx, DWORD PTR _pbits32$197455[ebp]
  00435	51		 push	 ecx
  00436	6a 00		 push	 0
  00438	8d 55 c8	 lea	 edx, DWORD PTR _RGB32BITSBITMAPINFO$197453[ebp]
  0043b	52		 push	 edx
  0043c	8b 45 f8	 mov	 eax, DWORD PTR _hMemDC$197450[ebp]
  0043f	50		 push	 eax
  00440	ff 15 00 00 00
	00		 call	 DWORD PTR __imp__CreateDIBSection@24
  00446	89 45 f4	 mov	 DWORD PTR _hbm32$197456[ebp], eax

; 196  :             if (hbm32)

  00449	83 7d f4 00	 cmp	 DWORD PTR _hbm32$197456[ebp], 0
  0044d	0f 84 7e 05 00
	00		 je	 $L197458

; 197  :             {
; 198  :                 HBITMAP holdBmp = (HBITMAP)SelectObject(hMemDC, hbm32);

  00453	8b 4d f4	 mov	 ecx, DWORD PTR _hbm32$197456[ebp]
  00456	51		 push	 ecx
  00457	8b 55 f8	 mov	 edx, DWORD PTR _hMemDC$197450[ebp]
  0045a	52		 push	 edx
  0045b	ff 15 00 00 00
	00		 call	 DWORD PTR __imp__SelectObject@8
  00461	89 45 a8	 mov	 DWORD PTR _holdBmp$197459[ebp], eax

; 199  : 
; 200  :                 // Create a DC just to copy the bitmap into the memory DC
; 201  :                 HDC hDC = CreateCompatibleDC(hMemDC);

  00464	8b 45 f8	 mov	 eax, DWORD PTR _hMemDC$197450[ebp]
  00467	50		 push	 eax
  00468	ff 15 00 00 00
	00		 call	 DWORD PTR __imp__CreateCompatibleDC@4
  0046e	89 45 ac	 mov	 DWORD PTR _hDC$197461[ebp], eax

; 202  :                 if (hDC)

  00471	83 7d ac 00	 cmp	 DWORD PTR _hDC$197461[ebp], 0
  00475	0f 84 41 05 00
	00		 je	 $L197462

; 203  :                 {
; 204  :                     // Get how many bytes per row we have for the bitmap bits (rounded up to 32 bits)
; 205  :                     BITMAP bm32;
; 206  :                     GetObject(hbm32, sizeof(bm32), &bm32);

  0047b	8d 4d 80	 lea	 ecx, DWORD PTR _bm32$197463[ebp]
  0047e	51		 push	 ecx
  0047f	6a 18		 push	 24			; 00000018H
  00481	8b 55 f4	 mov	 edx, DWORD PTR _hbm32$197456[ebp]
  00484	52		 push	 edx
  00485	ff 15 00 00 00
	00		 call	 DWORD PTR __imp__GetObjectA@12
$L197465:

; 207  :                     while (bm32.bmWidthBytes % 4)

  0048b	8b 45 8c	 mov	 eax, DWORD PTR _bm32$197463[ebp+12]
  0048e	25 03 00 00 80	 and	 eax, -2147483645	; 80000003H
  00493	79 05		 jns	 SHORT $L198838
  00495	48		 dec	 eax
  00496	83 c8 fc	 or	 eax, -4			; fffffffcH
  00499	40		 inc	 eax
$L198838:
  0049a	85 c0		 test	 eax, eax
  0049c	74 0b		 je	 SHORT $L197466

; 208  :                         bm32.bmWidthBytes++;

  0049e	8b 4d 8c	 mov	 ecx, DWORD PTR _bm32$197463[ebp+12]
  004a1	83 c1 01	 add	 ecx, 1
  004a4	89 4d 8c	 mov	 DWORD PTR _bm32$197463[ebp+12], ecx
  004a7	eb e2		 jmp	 SHORT $L197465
$L197466:

; 209  : 
; 210  :                     // Copy the bitmap into the memory DC
; 211  :                     HBITMAP holdBmp = (HBITMAP)SelectObject(hDC, hBmp);

  004a9	8b 55 08	 mov	 edx, DWORD PTR _hBmp$[ebp]
  004ac	52		 push	 edx
  004ad	8b 45 ac	 mov	 eax, DWORD PTR _hDC$197461[ebp]
  004b0	50		 push	 eax
  004b1	ff 15 00 00 00
	00		 call	 DWORD PTR __imp__SelectObject@8
  004b7	89 85 74 ff ff
	ff		 mov	 DWORD PTR _holdBmp$197467[ebp], eax

; 212  :                     BitBlt(hMemDC, 0, 0, bm.bmWidth, bm.bmHeight, hDC, 0, 0, SRCCOPY);

  004bd	68 20 00 cc 00	 push	 13369376		; 00cc0020H
  004c2	6a 00		 push	 0
  004c4	6a 00		 push	 0
  004c6	8b 4d ac	 mov	 ecx, DWORD PTR _hDC$197461[ebp]
  004c9	51		 push	 ecx
  004ca	8b 55 b8	 mov	 edx, DWORD PTR _bm$197452[ebp+8]
  004cd	52		 push	 edx
  004ce	8b 45 b4	 mov	 eax, DWORD PTR _bm$197452[ebp+4]
  004d1	50		 push	 eax
  004d2	6a 00		 push	 0
  004d4	6a 00		 push	 0
  004d6	8b 4d f8	 mov	 ecx, DWORD PTR _hMemDC$197450[ebp]
  004d9	51		 push	 ecx
  004da	ff 15 00 00 00
	00		 call	 DWORD PTR __imp__BitBlt@36

; 213  : 
; 214  :                     // For better performances, we will use the ExtCreateRegion() function to create the
; 215  :                     // region. This function take a RGNDATA structure on entry. We will add rectangles by
; 216  :                     // amount of ALLOC_UNIT number in this structure.
; 217  :                     #define ALLOC_UNIT    100
; 218  :                     DWORD maxRects = ALLOC_UNIT;

  004e0	c7 45 a0 64 00
	00 00		 mov	 DWORD PTR _maxRects$197470[ebp], 100 ; 00000064H

; 219  :                     HANDLE hData = GlobalAlloc(GMEM_MOVEABLE, sizeof(RGNDATAHEADER) + (sizeof(RECT) * maxRects));

  004e7	8b 55 a0	 mov	 edx, DWORD PTR _maxRects$197470[ebp]
  004ea	c1 e2 04	 shl	 edx, 4
  004ed	83 c2 20	 add	 edx, 32			; 00000020H
  004f0	52		 push	 edx
  004f1	6a 02		 push	 2
  004f3	ff 15 00 00 00
	00		 call	 DWORD PTR __imp__GlobalAlloc@8
  004f9	89 85 70 ff ff
	ff		 mov	 DWORD PTR _hData$197471[ebp], eax

; 220  :                     RGNDATA *pData = (RGNDATA *)GlobalLock(hData);

  004ff	8b 85 70 ff ff
	ff		 mov	 eax, DWORD PTR _hData$197471[ebp]
  00505	50		 push	 eax
  00506	ff 15 00 00 00
	00		 call	 DWORD PTR __imp__GlobalLock@4
  0050c	89 45 98	 mov	 DWORD PTR _pData$197474[ebp], eax

; 221  :                     pData->rdh.dwSize = sizeof(RGNDATAHEADER);

  0050f	8b 4d 98	 mov	 ecx, DWORD PTR _pData$197474[ebp]
  00512	c7 01 20 00 00
	00		 mov	 DWORD PTR [ecx], 32	; 00000020H

; 222  :                     pData->rdh.iType = RDH_RECTANGLES;

  00518	8b 55 98	 mov	 edx, DWORD PTR _pData$197474[ebp]
  0051b	c7 42 04 01 00
	00 00		 mov	 DWORD PTR [edx+4], 1

; 223  :                     pData->rdh.nCount = pData->rdh.nRgnSize = 0;

  00522	8b 45 98	 mov	 eax, DWORD PTR _pData$197474[ebp]
  00525	c7 40 0c 00 00
	00 00		 mov	 DWORD PTR [eax+12], 0
  0052c	8b 4d 98	 mov	 ecx, DWORD PTR _pData$197474[ebp]
  0052f	c7 41 08 00 00
	00 00		 mov	 DWORD PTR [ecx+8], 0

; 224  :                     SetRect(&pData->rdh.rcBound, MAXLONG, MAXLONG, 0, 0);

  00536	6a 00		 push	 0
  00538	6a 00		 push	 0
  0053a	68 ff ff ff 7f	 push	 2147483647		; 7fffffffH
  0053f	68 ff ff ff 7f	 push	 2147483647		; 7fffffffH
  00544	8b 55 98	 mov	 edx, DWORD PTR _pData$197474[ebp]
  00547	83 c2 10	 add	 edx, 16			; 00000010H
  0054a	52		 push	 edx
  0054b	ff 15 00 00 00
	00		 call	 DWORD PTR __imp__SetRect@20

; 225  : 
; 226  :                     // Keep on hand highest and lowest values for the "transparent" pixels
; 227  :                     BYTE lr = GetRValue(cTransparentColor);

  00551	8a 45 0c	 mov	 al, BYTE PTR _cTransparentColor$[ebp]
  00554	88 45 a7	 mov	 BYTE PTR _lr$197477[ebp], al

; 228  :                     BYTE lg = GetGValue(cTransparentColor);

  00557	0f b7 4d 0c	 movzx	 ecx, WORD PTR _cTransparentColor$[ebp]
  0055b	c1 f9 08	 sar	 ecx, 8
  0055e	88 8d 6d ff ff
	ff		 mov	 BYTE PTR _lg$197479[ebp], cl

; 229  :                     BYTE lb = GetBValue(cTransparentColor);

  00564	8b 55 0c	 mov	 edx, DWORD PTR _cTransparentColor$[ebp]
  00567	c1 ea 10	 shr	 edx, 16			; 00000010H
  0056a	88 95 6c ff ff
	ff		 mov	 BYTE PTR _lb$197482[ebp], dl

; 230  :                     BYTE hr = min(0xff, lr + GetRValue(cTolerance));

  00570	0f b6 45 a7	 movzx	 eax, BYTE PTR _lr$197477[ebp]
  00574	0f b6 4d 10	 movzx	 ecx, BYTE PTR _cTolerance$[ebp]
  00578	03 c1		 add	 eax, ecx
  0057a	3d ff 00 00 00	 cmp	 eax, 255		; 000000ffH
  0057f	7e 0c		 jle	 SHORT $L198832
  00581	c7 85 48 ff ff
	ff ff 00 00 00	 mov	 DWORD PTR tv195[ebp], 255 ; 000000ffH
  0058b	eb 10		 jmp	 SHORT $L198833
$L198832:
  0058d	0f b6 55 a7	 movzx	 edx, BYTE PTR _lr$197477[ebp]
  00591	0f b6 45 10	 movzx	 eax, BYTE PTR _cTolerance$[ebp]
  00595	03 d0		 add	 edx, eax
  00597	89 95 48 ff ff
	ff		 mov	 DWORD PTR tv195[ebp], edx
$L198833:
  0059d	8a 8d 48 ff ff
	ff		 mov	 cl, BYTE PTR tv195[ebp]
  005a3	88 8d 6e ff ff
	ff		 mov	 BYTE PTR _hr$197484[ebp], cl

; 231  :                     BYTE hg = min(0xff, lg + GetGValue(cTolerance));

  005a9	0f b6 95 6d ff
	ff ff		 movzx	 edx, BYTE PTR _lg$197479[ebp]
  005b0	0f b7 45 10	 movzx	 eax, WORD PTR _cTolerance$[ebp]
  005b4	c1 f8 08	 sar	 eax, 8
  005b7	0f b6 c8	 movzx	 ecx, al
  005ba	03 d1		 add	 edx, ecx
  005bc	81 fa ff 00 00
	00		 cmp	 edx, 255		; 000000ffH
  005c2	7e 0c		 jle	 SHORT $L198834
  005c4	c7 85 44 ff ff
	ff ff 00 00 00	 mov	 DWORD PTR tv210[ebp], 255 ; 000000ffH
  005ce	eb 19		 jmp	 SHORT $L198835
$L198834:
  005d0	0f b6 95 6d ff
	ff ff		 movzx	 edx, BYTE PTR _lg$197479[ebp]
  005d7	0f b7 45 10	 movzx	 eax, WORD PTR _cTolerance$[ebp]
  005db	c1 f8 08	 sar	 eax, 8
  005de	0f b6 c8	 movzx	 ecx, al
  005e1	03 d1		 add	 edx, ecx
  005e3	89 95 44 ff ff
	ff		 mov	 DWORD PTR tv210[ebp], edx
$L198835:
  005e9	8a 95 44 ff ff
	ff		 mov	 dl, BYTE PTR tv210[ebp]
  005ef	88 95 7f ff ff
	ff		 mov	 BYTE PTR _hg$197487[ebp], dl

; 232  :                     BYTE hb = min(0xff, lb + GetBValue(cTolerance));

  005f5	0f b6 85 6c ff
	ff ff		 movzx	 eax, BYTE PTR _lb$197482[ebp]
  005fc	8b 4d 10	 mov	 ecx, DWORD PTR _cTolerance$[ebp]
  005ff	c1 e9 10	 shr	 ecx, 16			; 00000010H
  00602	0f b6 d1	 movzx	 edx, cl
  00605	03 c2		 add	 eax, edx
  00607	3d ff 00 00 00	 cmp	 eax, 255		; 000000ffH
  0060c	7e 0c		 jle	 SHORT $L198836
  0060e	c7 85 40 ff ff
	ff ff 00 00 00	 mov	 DWORD PTR tv223[ebp], 255 ; 000000ffH
  00618	eb 18		 jmp	 SHORT $L198837
$L198836:
  0061a	0f b6 85 6c ff
	ff ff		 movzx	 eax, BYTE PTR _lb$197482[ebp]
  00621	8b 4d 10	 mov	 ecx, DWORD PTR _cTolerance$[ebp]
  00624	c1 e9 10	 shr	 ecx, 16			; 00000010H
  00627	0f b6 d1	 movzx	 edx, cl
  0062a	03 c2		 add	 eax, edx
  0062c	89 85 40 ff ff
	ff		 mov	 DWORD PTR tv223[ebp], eax
$L198837:
  00632	8a 85 40 ff ff
	ff		 mov	 al, BYTE PTR tv223[ebp]
  00638	88 85 6f ff ff
	ff		 mov	 BYTE PTR _hb$197492[ebp], al

; 233  : 
; 234  :                     // Scan each bitmap row from bottom to top (the bitmap is inverted vertically)
; 235  :                     BYTE *p32 = (BYTE *)bm32.bmBits + (bm32.bmHeight - 1) * bm32.bmWidthBytes;

  0063e	8b 4d 88	 mov	 ecx, DWORD PTR _bm32$197463[ebp+8]
  00641	83 e9 01	 sub	 ecx, 1
  00644	0f af 4d 8c	 imul	 ecx, DWORD PTR _bm32$197463[ebp+12]
  00648	03 4d 94	 add	 ecx, DWORD PTR _bm32$197463[ebp+20]
  0064b	89 8d 78 ff ff
	ff		 mov	 DWORD PTR _p32$197495[ebp], ecx

; 236  :                     for (int y = 0; y < bm.bmHeight; y++)

  00651	c7 85 68 ff ff
	ff 00 00 00 00	 mov	 DWORD PTR _y$197497[ebp], 0
  0065b	eb 0f		 jmp	 SHORT $L197498
$L197499:
  0065d	8b 95 68 ff ff
	ff		 mov	 edx, DWORD PTR _y$197497[ebp]
  00663	83 c2 01	 add	 edx, 1
  00666	89 95 68 ff ff
	ff		 mov	 DWORD PTR _y$197497[ebp], edx
$L197498:
  0066c	8b 85 68 ff ff
	ff		 mov	 eax, DWORD PTR _y$197497[ebp]
  00672	3b 45 b8	 cmp	 eax, DWORD PTR _bm$197452[ebp+8]
  00675	0f 8d d4 02 00
	00		 jge	 $L197500

; 237  :                     {
; 238  :                         // Scan each bitmap pixel from left to right
; 239  :                         for (int x = 0; x < bm.bmWidth; x++)

  0067b	c7 85 64 ff ff
	ff 00 00 00 00	 mov	 DWORD PTR _x$197501[ebp], 0
  00685	eb 0f		 jmp	 SHORT $L197502
$L197503:
  00687	8b 8d 64 ff ff
	ff		 mov	 ecx, DWORD PTR _x$197501[ebp]
  0068d	83 c1 01	 add	 ecx, 1
  00690	89 8d 64 ff ff
	ff		 mov	 DWORD PTR _x$197501[ebp], ecx
$L197502:
  00696	8b 95 64 ff ff
	ff		 mov	 edx, DWORD PTR _x$197501[ebp]
  0069c	3b 55 b4	 cmp	 edx, DWORD PTR _bm$197452[ebp+4]
  0069f	0f 8d 96 02 00
	00		 jge	 $L197504

; 240  :                         {
; 241  :                             // Search for a continuous range of "non transparent pixels"
; 242  :                             int x0 = x;

  006a5	8b 85 64 ff ff
	ff		 mov	 eax, DWORD PTR _x$197501[ebp]
  006ab	89 85 5c ff ff
	ff		 mov	 DWORD PTR _x0$197505[ebp], eax

; 243  :                             LONG *p = (LONG *)p32 + x;

  006b1	8b 8d 64 ff ff
	ff		 mov	 ecx, DWORD PTR _x$197501[ebp]
  006b7	8b 95 78 ff ff
	ff		 mov	 edx, DWORD PTR _p32$197495[ebp]
  006bd	8d 04 8a	 lea	 eax, DWORD PTR [edx+ecx*4]
  006c0	89 85 60 ff ff
	ff		 mov	 DWORD PTR _p$197506[ebp], eax
$L197509:

; 244  :                             while (x < bm.bmWidth)

  006c6	8b 8d 64 ff ff
	ff		 mov	 ecx, DWORD PTR _x$197501[ebp]
  006cc	3b 4d b4	 cmp	 ecx, DWORD PTR _bm$197452[ebp+4]
  006cf	0f 8d bf 00 00
	00		 jge	 $L197510

; 245  :                             {
; 246  :                                 BYTE b = GetRValue(*p);

  006d5	8b 95 60 ff ff
	ff		 mov	 edx, DWORD PTR _p$197506[ebp]
  006db	8a 02		 mov	 al, BYTE PTR [edx]
  006dd	88 85 5b ff ff
	ff		 mov	 BYTE PTR _b$197511[ebp], al

; 247  :                                 if (b >= lr && b <= hr)

  006e3	0f b6 8d 5b ff
	ff ff		 movzx	 ecx, BYTE PTR _b$197511[ebp]
  006ea	0f b6 55 a7	 movzx	 edx, BYTE PTR _lr$197477[ebp]
  006ee	3b ca		 cmp	 ecx, edx
  006f0	7c 7f		 jl	 SHORT $L197513
  006f2	0f b6 85 5b ff
	ff ff		 movzx	 eax, BYTE PTR _b$197511[ebp]
  006f9	0f b6 8d 6e ff
	ff ff		 movzx	 ecx, BYTE PTR _hr$197484[ebp]
  00700	3b c1		 cmp	 eax, ecx
  00702	7f 6d		 jg	 SHORT $L197513

; 248  :                                 {
; 249  :                                     b = GetGValue(*p);

  00704	8b 95 60 ff ff
	ff		 mov	 edx, DWORD PTR _p$197506[ebp]
  0070a	0f b7 02	 movzx	 eax, WORD PTR [edx]
  0070d	c1 f8 08	 sar	 eax, 8
  00710	88 85 5b ff ff
	ff		 mov	 BYTE PTR _b$197511[ebp], al

; 250  :                                     if (b >= lg && b <= hg)

  00716	0f b6 8d 5b ff
	ff ff		 movzx	 ecx, BYTE PTR _b$197511[ebp]
  0071d	0f b6 95 6d ff
	ff ff		 movzx	 edx, BYTE PTR _lg$197479[ebp]
  00724	3b ca		 cmp	 ecx, edx
  00726	7c 49		 jl	 SHORT $L197513
  00728	0f b6 85 5b ff
	ff ff		 movzx	 eax, BYTE PTR _b$197511[ebp]
  0072f	0f b6 8d 7f ff
	ff ff		 movzx	 ecx, BYTE PTR _hg$197487[ebp]
  00736	3b c1		 cmp	 eax, ecx
  00738	7f 37		 jg	 SHORT $L197513

; 251  :                                     {
; 252  :                                         b = GetBValue(*p);

  0073a	8b 95 60 ff ff
	ff		 mov	 edx, DWORD PTR _p$197506[ebp]
  00740	8b 02		 mov	 eax, DWORD PTR [edx]
  00742	c1 f8 10	 sar	 eax, 16			; 00000010H
  00745	88 85 5b ff ff
	ff		 mov	 BYTE PTR _b$197511[ebp], al

; 253  :                                         if (b >= lb && b <= hb)

  0074b	0f b6 8d 5b ff
	ff ff		 movzx	 ecx, BYTE PTR _b$197511[ebp]
  00752	0f b6 95 6c ff
	ff ff		 movzx	 edx, BYTE PTR _lb$197482[ebp]
  00759	3b ca		 cmp	 ecx, edx
  0075b	7c 14		 jl	 SHORT $L197513
  0075d	0f b6 85 5b ff
	ff ff		 movzx	 eax, BYTE PTR _b$197511[ebp]
  00764	0f b6 8d 6f ff
	ff ff		 movzx	 ecx, BYTE PTR _hb$197492[ebp]
  0076b	3b c1		 cmp	 eax, ecx
  0076d	7f 02		 jg	 SHORT $L197513

; 254  :                                             // This pixel is "transparent"
; 255  :                                             break;

  0076f	eb 23		 jmp	 SHORT $L197510
$L197513:

; 256  :                                     }
; 257  :                                 }
; 258  :                                 p++;

  00771	8b 95 60 ff ff
	ff		 mov	 edx, DWORD PTR _p$197506[ebp]
  00777	83 c2 04	 add	 edx, 4
  0077a	89 95 60 ff ff
	ff		 mov	 DWORD PTR _p$197506[ebp], edx

; 259  :                                 x++;

  00780	8b 85 64 ff ff
	ff		 mov	 eax, DWORD PTR _x$197501[ebp]
  00786	83 c0 01	 add	 eax, 1
  00789	89 85 64 ff ff
	ff		 mov	 DWORD PTR _x$197501[ebp], eax

; 260  :                             }

  0078f	e9 32 ff ff ff	 jmp	 $L197509
$L197510:

; 261  : 
; 262  :                             if (x > x0)

  00794	8b 8d 64 ff ff
	ff		 mov	 ecx, DWORD PTR _x$197501[ebp]
  0079a	3b 8d 5c ff ff
	ff		 cmp	 ecx, DWORD PTR _x0$197505[ebp]
  007a0	0f 8e 90 01 00
	00		 jle	 $L197519

; 263  :                             {
; 264  :                                 // Add the pixels (x0, y) to (x, y+1) as a new rectangle in the region
; 265  :                                 if (pData->rdh.nCount >= maxRects)

  007a6	8b 55 98	 mov	 edx, DWORD PTR _pData$197474[ebp]
  007a9	8b 42 08	 mov	 eax, DWORD PTR [edx+8]
  007ac	3b 45 a0	 cmp	 eax, DWORD PTR _maxRects$197470[ebp]
  007af	72 45		 jb	 SHORT $L197520

; 266  :                                 {
; 267  :                                     GlobalUnlock(hData);

  007b1	8b 8d 70 ff ff
	ff		 mov	 ecx, DWORD PTR _hData$197471[ebp]
  007b7	51		 push	 ecx
  007b8	ff 15 00 00 00
	00		 call	 DWORD PTR __imp__GlobalUnlock@4

; 268  :                                     maxRects += ALLOC_UNIT;

  007be	8b 55 a0	 mov	 edx, DWORD PTR _maxRects$197470[ebp]
  007c1	83 c2 64	 add	 edx, 100		; 00000064H
  007c4	89 55 a0	 mov	 DWORD PTR _maxRects$197470[ebp], edx

; 269  :                                     hData = GlobalReAlloc(hData, sizeof(RGNDATAHEADER) + (sizeof(RECT) * maxRects), GMEM_MOVEABLE);

  007c7	6a 02		 push	 2
  007c9	8b 45 a0	 mov	 eax, DWORD PTR _maxRects$197470[ebp]
  007cc	c1 e0 04	 shl	 eax, 4
  007cf	83 c0 20	 add	 eax, 32			; 00000020H
  007d2	50		 push	 eax
  007d3	8b 8d 70 ff ff
	ff		 mov	 ecx, DWORD PTR _hData$197471[ebp]
  007d9	51		 push	 ecx
  007da	ff 15 00 00 00
	00		 call	 DWORD PTR __imp__GlobalReAlloc@12
  007e0	89 85 70 ff ff
	ff		 mov	 DWORD PTR _hData$197471[ebp], eax

; 270  :                                     pData = (RGNDATA *)GlobalLock(hData);

  007e6	8b 95 70 ff ff
	ff		 mov	 edx, DWORD PTR _hData$197471[ebp]
  007ec	52		 push	 edx
  007ed	ff 15 00 00 00
	00		 call	 DWORD PTR __imp__GlobalLock@4
  007f3	89 45 98	 mov	 DWORD PTR _pData$197474[ebp], eax
$L197520:

; 271  :                                 }
; 272  :                                 RECT *pr = (RECT *)&pData->Buffer;

  007f6	8b 45 98	 mov	 eax, DWORD PTR _pData$197474[ebp]
  007f9	83 c0 20	 add	 eax, 32			; 00000020H
  007fc	89 85 54 ff ff
	ff		 mov	 DWORD PTR _pr$197524[ebp], eax

; 273  :                                 SetRect(&pr[pData->rdh.nCount], x0, y, x, y+1);

  00802	8b 8d 68 ff ff
	ff		 mov	 ecx, DWORD PTR _y$197497[ebp]
  00808	83 c1 01	 add	 ecx, 1
  0080b	51		 push	 ecx
  0080c	8b 95 64 ff ff
	ff		 mov	 edx, DWORD PTR _x$197501[ebp]
  00812	52		 push	 edx
  00813	8b 85 68 ff ff
	ff		 mov	 eax, DWORD PTR _y$197497[ebp]
  00819	50		 push	 eax
  0081a	8b 8d 5c ff ff
	ff		 mov	 ecx, DWORD PTR _x0$197505[ebp]
  00820	51		 push	 ecx
  00821	8b 55 98	 mov	 edx, DWORD PTR _pData$197474[ebp]
  00824	8b 42 08	 mov	 eax, DWORD PTR [edx+8]
  00827	c1 e0 04	 shl	 eax, 4
  0082a	03 85 54 ff ff
	ff		 add	 eax, DWORD PTR _pr$197524[ebp]
  00830	50		 push	 eax
  00831	ff 15 00 00 00
	00		 call	 DWORD PTR __imp__SetRect@20

; 274  :                                 if (x0 < pData->rdh.rcBound.left)

  00837	8b 4d 98	 mov	 ecx, DWORD PTR _pData$197474[ebp]
  0083a	8b 95 5c ff ff
	ff		 mov	 edx, DWORD PTR _x0$197505[ebp]
  00840	3b 51 10	 cmp	 edx, DWORD PTR [ecx+16]
  00843	7d 0c		 jge	 SHORT $L197526

; 275  :                                     pData->rdh.rcBound.left = x0;

  00845	8b 45 98	 mov	 eax, DWORD PTR _pData$197474[ebp]
  00848	8b 8d 5c ff ff
	ff		 mov	 ecx, DWORD PTR _x0$197505[ebp]
  0084e	89 48 10	 mov	 DWORD PTR [eax+16], ecx
$L197526:

; 276  :                                 if (y < pData->rdh.rcBound.top)

  00851	8b 55 98	 mov	 edx, DWORD PTR _pData$197474[ebp]
  00854	8b 85 68 ff ff
	ff		 mov	 eax, DWORD PTR _y$197497[ebp]
  0085a	3b 42 14	 cmp	 eax, DWORD PTR [edx+20]
  0085d	7d 0c		 jge	 SHORT $L197527

; 277  :                                     pData->rdh.rcBound.top = y;

  0085f	8b 4d 98	 mov	 ecx, DWORD PTR _pData$197474[ebp]
  00862	8b 95 68 ff ff
	ff		 mov	 edx, DWORD PTR _y$197497[ebp]
  00868	89 51 14	 mov	 DWORD PTR [ecx+20], edx
$L197527:

; 278  :                                 if (x > pData->rdh.rcBound.right)

  0086b	8b 45 98	 mov	 eax, DWORD PTR _pData$197474[ebp]
  0086e	8b 8d 64 ff ff
	ff		 mov	 ecx, DWORD PTR _x$197501[ebp]
  00874	3b 48 18	 cmp	 ecx, DWORD PTR [eax+24]
  00877	7e 0c		 jle	 SHORT $L197528

; 279  :                                     pData->rdh.rcBound.right = x;

  00879	8b 55 98	 mov	 edx, DWORD PTR _pData$197474[ebp]
  0087c	8b 85 64 ff ff
	ff		 mov	 eax, DWORD PTR _x$197501[ebp]
  00882	89 42 18	 mov	 DWORD PTR [edx+24], eax
$L197528:

; 280  :                                 if (y+1 > pData->rdh.rcBound.bottom)

  00885	8b 8d 68 ff ff
	ff		 mov	 ecx, DWORD PTR _y$197497[ebp]
  0088b	83 c1 01	 add	 ecx, 1
  0088e	8b 55 98	 mov	 edx, DWORD PTR _pData$197474[ebp]
  00891	3b 4a 1c	 cmp	 ecx, DWORD PTR [edx+28]
  00894	7e 0f		 jle	 SHORT $L197529

; 281  :                                     pData->rdh.rcBound.bottom = y+1;

  00896	8b 85 68 ff ff
	ff		 mov	 eax, DWORD PTR _y$197497[ebp]
  0089c	83 c0 01	 add	 eax, 1
  0089f	8b 4d 98	 mov	 ecx, DWORD PTR _pData$197474[ebp]
  008a2	89 41 1c	 mov	 DWORD PTR [ecx+28], eax
$L197529:

; 282  :                                 pData->rdh.nCount++;

  008a5	8b 55 98	 mov	 edx, DWORD PTR _pData$197474[ebp]
  008a8	8b 42 08	 mov	 eax, DWORD PTR [edx+8]
  008ab	83 c0 01	 add	 eax, 1
  008ae	8b 4d 98	 mov	 ecx, DWORD PTR _pData$197474[ebp]
  008b1	89 41 08	 mov	 DWORD PTR [ecx+8], eax

; 283  : 
; 284  :                                 // On Windows98, ExtCreateRegion() may fail if the number of rectangles is too
; 285  :                                 // large (ie: > 4000). Therefore, we have to create the region by multiple steps.
; 286  :                                 if (pData->rdh.nCount == 2000)

  008b4	8b 55 98	 mov	 edx, DWORD PTR _pData$197474[ebp]
  008b7	81 7a 08 d0 07
	00 00		 cmp	 DWORD PTR [edx+8], 2000	; 000007d0H
  008be	75 76		 jne	 SHORT $L197519

; 287  :                                 {
; 288  :                                     HRGN h = ExtCreateRegion(NULL, sizeof(RGNDATAHEADER) + (sizeof(RECT) * maxRects), pData);

  008c0	8b 45 98	 mov	 eax, DWORD PTR _pData$197474[ebp]
  008c3	50		 push	 eax
  008c4	8b 4d a0	 mov	 ecx, DWORD PTR _maxRects$197470[ebp]
  008c7	c1 e1 04	 shl	 ecx, 4
  008ca	83 c1 20	 add	 ecx, 32			; 00000020H
  008cd	51		 push	 ecx
  008ce	6a 00		 push	 0
  008d0	ff 15 00 00 00
	00		 call	 DWORD PTR __imp__ExtCreateRegion@12
  008d6	89 85 50 ff ff
	ff		 mov	 DWORD PTR _h$197531[ebp], eax

; 289  :                                     if (hRgn)

  008dc	83 7d fc 00	 cmp	 DWORD PTR _hRgn$[ebp], 0
  008e0	74 26		 je	 SHORT $L197534

; 290  :                                     {
; 291  :                                         CombineRgn(hRgn, hRgn, h, RGN_OR);

  008e2	6a 02		 push	 2
  008e4	8b 95 50 ff ff
	ff		 mov	 edx, DWORD PTR _h$197531[ebp]
  008ea	52		 push	 edx
  008eb	8b 45 fc	 mov	 eax, DWORD PTR _hRgn$[ebp]
  008ee	50		 push	 eax
  008ef	8b 4d fc	 mov	 ecx, DWORD PTR _hRgn$[ebp]
  008f2	51		 push	 ecx
  008f3	ff 15 00 00 00
	00		 call	 DWORD PTR __imp__CombineRgn@16

; 292  :                                         DeleteObject(h);

  008f9	8b 95 50 ff ff
	ff		 mov	 edx, DWORD PTR _h$197531[ebp]
  008ff	52		 push	 edx
  00900	ff 15 00 00 00
	00		 call	 DWORD PTR __imp__DeleteObject@4

; 293  :                                     }
; 294  :                                     else

  00906	eb 09		 jmp	 SHORT $L197535
$L197534:

; 295  :                                         hRgn = h;

  00908	8b 85 50 ff ff
	ff		 mov	 eax, DWORD PTR _h$197531[ebp]
  0090e	89 45 fc	 mov	 DWORD PTR _hRgn$[ebp], eax
$L197535:

; 296  :                                     pData->rdh.nCount = 0;

  00911	8b 4d 98	 mov	 ecx, DWORD PTR _pData$197474[ebp]
  00914	c7 41 08 00 00
	00 00		 mov	 DWORD PTR [ecx+8], 0

; 297  :                                     SetRect(&pData->rdh.rcBound, MAXLONG, MAXLONG, 0, 0);

  0091b	6a 00		 push	 0
  0091d	6a 00		 push	 0
  0091f	68 ff ff ff 7f	 push	 2147483647		; 7fffffffH
  00924	68 ff ff ff 7f	 push	 2147483647		; 7fffffffH
  00929	8b 55 98	 mov	 edx, DWORD PTR _pData$197474[ebp]
  0092c	83 c2 10	 add	 edx, 16			; 00000010H
  0092f	52		 push	 edx
  00930	ff 15 00 00 00
	00		 call	 DWORD PTR __imp__SetRect@20
$L197519:

; 298  :                                 }
; 299  :                             }
; 300  :                         }

  00936	e9 4c fd ff ff	 jmp	 $L197503
$L197504:

; 301  : 
; 302  :                         // Go to next row (remember, the bitmap is inverted vertically)
; 303  :                         p32 -= bm32.bmWidthBytes;

  0093b	8b 85 78 ff ff
	ff		 mov	 eax, DWORD PTR _p32$197495[ebp]
  00941	2b 45 8c	 sub	 eax, DWORD PTR _bm32$197463[ebp+12]
  00944	89 85 78 ff ff
	ff		 mov	 DWORD PTR _p32$197495[ebp], eax

; 304  :                     }

  0094a	e9 0e fd ff ff	 jmp	 $L197499
$L197500:

; 305  : 
; 306  :                     // Create or extend the region with the remaining rectangles
; 307  :                     HRGN h = ExtCreateRegion(NULL, sizeof(RGNDATAHEADER) + (sizeof(RECT) * maxRects), pData);

  0094f	8b 4d 98	 mov	 ecx, DWORD PTR _pData$197474[ebp]
  00952	51		 push	 ecx
  00953	8b 55 a0	 mov	 edx, DWORD PTR _maxRects$197470[ebp]
  00956	c1 e2 04	 shl	 edx, 4
  00959	83 c2 20	 add	 edx, 32			; 00000020H
  0095c	52		 push	 edx
  0095d	6a 00		 push	 0
  0095f	ff 15 00 00 00
	00		 call	 DWORD PTR __imp__ExtCreateRegion@12
  00965	89 45 9c	 mov	 DWORD PTR _h$197536[ebp], eax

; 308  :                     if (hRgn)

  00968	83 7d fc 00	 cmp	 DWORD PTR _hRgn$[ebp], 0
  0096c	74 20		 je	 SHORT $L197539

; 309  :                     {
; 310  :                         CombineRgn(hRgn, hRgn, h, RGN_OR);

  0096e	6a 02		 push	 2
  00970	8b 45 9c	 mov	 eax, DWORD PTR _h$197536[ebp]
  00973	50		 push	 eax
  00974	8b 4d fc	 mov	 ecx, DWORD PTR _hRgn$[ebp]
  00977	51		 push	 ecx
  00978	8b 55 fc	 mov	 edx, DWORD PTR _hRgn$[ebp]
  0097b	52		 push	 edx
  0097c	ff 15 00 00 00
	00		 call	 DWORD PTR __imp__CombineRgn@16

; 311  :                         DeleteObject(h);

  00982	8b 45 9c	 mov	 eax, DWORD PTR _h$197536[ebp]
  00985	50		 push	 eax
  00986	ff 15 00 00 00
	00		 call	 DWORD PTR __imp__DeleteObject@4

; 312  :                     }
; 313  :                     else

  0098c	eb 06		 jmp	 SHORT $L197540
$L197539:

; 314  :                         hRgn = h;

  0098e	8b 4d 9c	 mov	 ecx, DWORD PTR _h$197536[ebp]
  00991	89 4d fc	 mov	 DWORD PTR _hRgn$[ebp], ecx
$L197540:

; 315  : 
; 316  :                     // Clean up
; 317  :                     GlobalFree(hData);

  00994	8b 95 70 ff ff
	ff		 mov	 edx, DWORD PTR _hData$197471[ebp]
  0099a	52		 push	 edx
  0099b	ff 15 00 00 00
	00		 call	 DWORD PTR __imp__GlobalFree@4

; 318  :                     SelectObject(hDC, holdBmp);

  009a1	8b 85 74 ff ff
	ff		 mov	 eax, DWORD PTR _holdBmp$197467[ebp]
  009a7	50		 push	 eax
  009a8	8b 4d ac	 mov	 ecx, DWORD PTR _hDC$197461[ebp]
  009ab	51		 push	 ecx
  009ac	ff 15 00 00 00
	00		 call	 DWORD PTR __imp__SelectObject@8

; 319  :                     DeleteDC(hDC);

  009b2	8b 55 ac	 mov	 edx, DWORD PTR _hDC$197461[ebp]
  009b5	52		 push	 edx
  009b6	ff 15 00 00 00
	00		 call	 DWORD PTR __imp__DeleteDC@4
$L197462:

; 320  :                 }
; 321  : 
; 322  :                 DeleteObject(SelectObject(hMemDC, holdBmp));

  009bc	8b 45 a8	 mov	 eax, DWORD PTR _holdBmp$197459[ebp]
  009bf	50		 push	 eax
  009c0	8b 4d f8	 mov	 ecx, DWORD PTR _hMemDC$197450[ebp]
  009c3	51		 push	 ecx
  009c4	ff 15 00 00 00
	00		 call	 DWORD PTR __imp__SelectObject@8
  009ca	50		 push	 eax
  009cb	ff 15 00 00 00
	00		 call	 DWORD PTR __imp__DeleteObject@4
$L197458:

; 323  :             }
; 324  : 
; 325  :             DeleteDC(hMemDC);

  009d1	8b 55 f8	 mov	 edx, DWORD PTR _hMemDC$197450[ebp]
  009d4	52		 push	 edx
  009d5	ff 15 00 00 00
	00		 call	 DWORD PTR __imp__DeleteDC@4
$L197449:

; 326  :         }    
; 327  :     }
; 328  : 
; 329  :     return hRgn;

  009db	8b 45 fc	 mov	 eax, DWORD PTR _hRgn$[ebp]

; 330  : 
; 331  : }

  009de	8b e5		 mov	 esp, ebp
  009e0	5d		 pop	 ebp
  009e1	c2 0c 00	 ret	 12			; 0000000cH
?CreateRgnFromBitmap@CGdiEx@@QAEPAUHRGN__@@PAUHBITMAP__@@KK@Z ENDP ; CGdiEx::CreateRgnFromBitmap
_TEXT	ENDS
PUBLIC	?BrightColor@CGdiEx@@QAEKKM@Z			; CGdiEx::BrightColor
PUBLIC	__real@3f800000
;	COMDAT __real@3f800000
CONST	SEGMENT
__real@3f800000 DD 03f800000r			; 1
; Function compile flags: /Odt
CONST	ENDS
_TEXT	SEGMENT
_this$ = -20						; size = 4
_lColor$ = -16						; size = 4
_lfSaturation$ = -12					; size = 4
_lfBrightness$ = -8					; size = 4
_lfHue$ = -4						; size = 4
_aSourceColor$ = 8					; size = 4
_afAmount$ = 12						; size = 4
?BrightColor@CGdiEx@@QAEKKM@Z PROC NEAR			; CGdiEx::BrightColor
; _this$ = ecx

; 334  : {

  009f0	55		 push	 ebp
  009f1	8b ec		 mov	 ebp, esp
  009f3	83 ec 14	 sub	 esp, 20			; 00000014H
  009f6	89 4d ec	 mov	 DWORD PTR _this$[ebp], ecx

; 335  : 	FLOAT lfHue, lfBrightness, lfSaturation;
; 336  : 	COLORREF lColor = aSourceColor;

  009f9	8b 45 08	 mov	 eax, DWORD PTR _aSourceColor$[ebp]
  009fc	89 45 f0	 mov	 DWORD PTR _lColor$[ebp], eax

; 337  : 
; 338  : 	SetHBS(lColor, lfHue, lfBrightness, lfSaturation);

  009ff	8d 4d f4	 lea	 ecx, DWORD PTR _lfSaturation$[ebp]
  00a02	51		 push	 ecx
  00a03	8d 55 f8	 lea	 edx, DWORD PTR _lfBrightness$[ebp]
  00a06	52		 push	 edx
  00a07	8d 45 fc	 lea	 eax, DWORD PTR _lfHue$[ebp]
  00a0a	50		 push	 eax
  00a0b	8b 4d f0	 mov	 ecx, DWORD PTR _lColor$[ebp]
  00a0e	51		 push	 ecx
  00a0f	8b 4d ec	 mov	 ecx, DWORD PTR _this$[ebp]
  00a12	e8 00 00 00 00	 call	 ?SetHBS@CGdiEx@@QAEXKAAM00@Z ; CGdiEx::SetHBS

; 339  : 	if (afAmount > 0 && afAmount < 1)

  00a17	d9 45 0c	 fld	 DWORD PTR _afAmount$[ebp]
  00a1a	d8 1d 00 00 00
	00		 fcomp	 DWORD PTR __real@00000000
  00a20	df e0		 fnstsw	 ax
  00a22	f6 c4 41	 test	 ah, 65			; 00000041H
  00a25	75 2e		 jne	 SHORT $L197550
  00a27	d9 45 0c	 fld	 DWORD PTR _afAmount$[ebp]
  00a2a	d8 1d 00 00 00
	00		 fcomp	 DWORD PTR __real@3f800000
  00a30	df e0		 fnstsw	 ax
  00a32	f6 c4 05	 test	 ah, 5
  00a35	7a 1e		 jp	 SHORT $L197550

; 340  : 	{
; 341  : 		lfBrightness = afAmount;

  00a37	8b 55 0c	 mov	 edx, DWORD PTR _afAmount$[ebp]
  00a3a	89 55 f8	 mov	 DWORD PTR _lfBrightness$[ebp], edx

; 342  : 		SetRGB(lColor, lfHue, lfBrightness, lfSaturation);

  00a3d	8b 45 f4	 mov	 eax, DWORD PTR _lfSaturation$[ebp]
  00a40	50		 push	 eax
  00a41	8b 4d f8	 mov	 ecx, DWORD PTR _lfBrightness$[ebp]
  00a44	51		 push	 ecx
  00a45	8b 55 fc	 mov	 edx, DWORD PTR _lfHue$[ebp]
  00a48	52		 push	 edx
  00a49	8d 45 f0	 lea	 eax, DWORD PTR _lColor$[ebp]
  00a4c	50		 push	 eax
  00a4d	8b 4d ec	 mov	 ecx, DWORD PTR _this$[ebp]
  00a50	e8 00 00 00 00	 call	 ?SetRGB@CGdiEx@@QAEXAAKMMM@Z ; CGdiEx::SetRGB
$L197550:

; 343  : 	}
; 344  : 
; 345  : 	return lColor;

  00a55	8b 45 f0	 mov	 eax, DWORD PTR _lColor$[ebp]

; 346  : }

  00a58	8b e5		 mov	 esp, ebp
  00a5a	5d		 pop	 ebp
  00a5b	c2 08 00	 ret	 8
?BrightColor@CGdiEx@@QAEKKM@Z ENDP			; CGdiEx::BrightColor
_TEXT	ENDS
EXTRN	__imp__CreateCompatibleBitmap@12:NEAR
EXTRN	__imp__CreateSolidBrush@4:NEAR
EXTRN	__imp__FillRect@12:NEAR
; Function compile flags: /Odt
_TEXT	SEGMENT
tv373 = -152						; size = 4
tv367 = -148						; size = 8
tv350 = -140						; size = 4
tv344 = -136						; size = 8
tv329 = -128						; size = 8
tv327 = -120						; size = 4
tv322 = -116						; size = 8
tv320 = -108						; size = 4
tv317 = -104						; size = 8
tv315 = -96						; size = 4
tv83 = -92						; size = 4
tv81 = -88						; size = 4
tv77 = -84						; size = 4
_this$ = -80						; size = 4
_nCount$197680 = -76					; size = 4
_nCount$197666 = -72					; size = 4
_fRStep$197646 = -68					; size = 4
_hbrFill$197635 = -64					; size = 4
_fStep$197633 = -60					; size = 4
_fGStep$197650 = -56					; size = 4
_nR$197639 = -52					; size = 4
_nB$197644 = -48					; size = 4
_rect$197634 = -44					; size = 16
_fBStep$197656 = -28					; size = 4
_hdcMem$197660 = -24					; size = 4
_hbmpMem$197661 = -20					; size = 4
_hobjOld$197662 = -16					; size = 4
_nG$197641 = -12					; size = 4
_nHeight$197631 = -8					; size = 4
_nWidth$197630 = -4					; size = 4
_DC$ = 8						; size = 4
_aRect$ = 12						; size = 16
_aBeginColor$ = 28					; size = 4
_aEndColor$ = 32					; size = 4
_Orientation$ = 36					; size = 4
_abEclosion$ = 40					; size = 4
_anStep$ = 44						; size = 4
?FillRectangle@CGdiEx@@UAEXPAUHDC__@@UtagRECT@@KKW4ENUM_DrawOrientation@@HI@Z PROC NEAR ; CGdiEx::FillRectangle
; _this$ = ecx

; 420  : {

  00a60	55		 push	 ebp
  00a61	8b ec		 mov	 ebp, esp
  00a63	81 ec 98 00 00
	00		 sub	 esp, 152		; 00000098H
  00a69	56		 push	 esi
  00a6a	89 4d b0	 mov	 DWORD PTR _this$[ebp], ecx

; 421  : 	if(aBeginColor == aEndColor)

  00a6d	8b 45 1c	 mov	 eax, DWORD PTR _aBeginColor$[ebp]
  00a70	3b 45 20	 cmp	 eax, DWORD PTR _aEndColor$[ebp]
  00a73	75 38		 jne	 SHORT $L197628

; 422  : 	{
; 423  : 		FillRectangle(DC, aRect, aBeginColor,  abEclosion);

  00a75	8b 4d 28	 mov	 ecx, DWORD PTR _abEclosion$[ebp]
  00a78	51		 push	 ecx
  00a79	8b 55 1c	 mov	 edx, DWORD PTR _aBeginColor$[ebp]
  00a7c	52		 push	 edx
  00a7d	83 ec 10	 sub	 esp, 16			; 00000010H
  00a80	8b c4		 mov	 eax, esp
  00a82	8b 4d 0c	 mov	 ecx, DWORD PTR _aRect$[ebp]
  00a85	89 08		 mov	 DWORD PTR [eax], ecx
  00a87	8b 55 10	 mov	 edx, DWORD PTR _aRect$[ebp+4]
  00a8a	89 50 04	 mov	 DWORD PTR [eax+4], edx
  00a8d	8b 4d 14	 mov	 ecx, DWORD PTR _aRect$[ebp+8]
  00a90	89 48 08	 mov	 DWORD PTR [eax+8], ecx
  00a93	8b 55 18	 mov	 edx, DWORD PTR _aRect$[ebp+12]
  00a96	89 50 0c	 mov	 DWORD PTR [eax+12], edx
  00a99	8b 45 08	 mov	 eax, DWORD PTR _DC$[ebp]
  00a9c	50		 push	 eax
  00a9d	8b 4d b0	 mov	 ecx, DWORD PTR _this$[ebp]
  00aa0	8b 11		 mov	 edx, DWORD PTR [ecx]
  00aa2	8b 4d b0	 mov	 ecx, DWORD PTR _this$[ebp]
  00aa5	ff 52 0c	 call	 DWORD PTR [edx+12]

; 424  : 	}
; 425  : 	else

  00aa8	e9 6e 03 00 00	 jmp	 $L197627
$L197628:

; 426  : 	{
; 427  : 		int nWidth  = aRect.right  - aRect.left;

  00aad	8b 45 14	 mov	 eax, DWORD PTR _aRect$[ebp+8]
  00ab0	2b 45 0c	 sub	 eax, DWORD PTR _aRect$[ebp]
  00ab3	89 45 fc	 mov	 DWORD PTR _nWidth$197630[ebp], eax

; 428  : 		int nHeight = aRect.bottom - aRect.top;  

  00ab6	8b 4d 18	 mov	 ecx, DWORD PTR _aRect$[ebp+12]
  00ab9	2b 4d 10	 sub	 ecx, DWORD PTR _aRect$[ebp+4]
  00abc	89 4d f8	 mov	 DWORD PTR _nHeight$197631[ebp], ecx

; 429  : 		if(!(nWidth<=0|| nHeight<= 0))

  00abf	83 7d fc 00	 cmp	 DWORD PTR _nWidth$197630[ebp], 0
  00ac3	0f 8e 52 03 00
	00		 jle	 $L197627
  00ac9	83 7d f8 00	 cmp	 DWORD PTR _nHeight$197631[ebp], 0
  00acd	0f 8e 48 03 00
	00		 jle	 $L197627

; 430  : 		{
; 431  : 			float fStep;
; 432  : 			RECT rect;
; 433  : 			HBRUSH hbrFill;
; 434  : 			anStep = anStep == 1 ?  10:anStep;

  00ad3	83 7d 2c 01	 cmp	 DWORD PTR _anStep$[ebp], 1
  00ad7	75 09		 jne	 SHORT $L198843
  00ad9	c7 45 ac 0a 00
	00 00		 mov	 DWORD PTR tv77[ebp], 10	; 0000000aH
  00ae0	eb 06		 jmp	 SHORT $L198844
$L198843:
  00ae2	8b 55 2c	 mov	 edx, DWORD PTR _anStep$[ebp]
  00ae5	89 55 ac	 mov	 DWORD PTR tv77[ebp], edx
$L198844:
  00ae8	8b 45 ac	 mov	 eax, DWORD PTR tv77[ebp]
  00aeb	89 45 2c	 mov	 DWORD PTR _anStep$[ebp], eax

; 435  : 			if( -1 == anStep)

  00aee	83 7d 2c ff	 cmp	 DWORD PTR _anStep$[ebp], -1
  00af2	75 3e		 jne	 SHORT $L197636

; 436  : 			{
; 437  : 				if(true == Orientation)

  00af4	83 7d 24 01	 cmp	 DWORD PTR _Orientation$[ebp], 1
  00af8	75 1d		 jne	 SHORT $L197637

; 438  : 				{
; 439  : 					anStep = nHeight > 10 ? 10 : nHeight;

  00afa	83 7d f8 0a	 cmp	 DWORD PTR _nHeight$197631[ebp], 10 ; 0000000aH
  00afe	7e 09		 jle	 SHORT $L198845
  00b00	c7 45 a8 0a 00
	00 00		 mov	 DWORD PTR tv81[ebp], 10	; 0000000aH
  00b07	eb 06		 jmp	 SHORT $L198846
$L198845:
  00b09	8b 4d f8	 mov	 ecx, DWORD PTR _nHeight$197631[ebp]
  00b0c	89 4d a8	 mov	 DWORD PTR tv81[ebp], ecx
$L198846:
  00b0f	8b 55 a8	 mov	 edx, DWORD PTR tv81[ebp]
  00b12	89 55 2c	 mov	 DWORD PTR _anStep$[ebp], edx

; 440  : 
; 441  : 				}
; 442  : 				else

  00b15	eb 1b		 jmp	 SHORT $L197636
$L197637:

; 443  : 				{
; 444  : 					anStep = nWidth >= 10 ? 10: nWidth;

  00b17	83 7d fc 0a	 cmp	 DWORD PTR _nWidth$197630[ebp], 10 ; 0000000aH
  00b1b	7c 09		 jl	 SHORT $L198847
  00b1d	c7 45 a4 0a 00
	00 00		 mov	 DWORD PTR tv83[ebp], 10	; 0000000aH
  00b24	eb 06		 jmp	 SHORT $L198848
$L198847:
  00b26	8b 45 fc	 mov	 eax, DWORD PTR _nWidth$197630[ebp]
  00b29	89 45 a4	 mov	 DWORD PTR tv83[ebp], eax
$L198848:
  00b2c	8b 4d a4	 mov	 ecx, DWORD PTR tv83[ebp]
  00b2f	89 4d 2c	 mov	 DWORD PTR _anStep$[ebp], ecx
$L197636:

; 445  : 				}
; 446  : 			}
; 447  : 
; 448  : 			int nR = GetRValue( aBeginColor );

  00b32	0f b6 55 1c	 movzx	 edx, BYTE PTR _aBeginColor$[ebp]
  00b36	89 55 cc	 mov	 DWORD PTR _nR$197639[ebp], edx

; 449  : 			int nG = GetGValue( aBeginColor );

  00b39	0f b7 45 1c	 movzx	 eax, WORD PTR _aBeginColor$[ebp]
  00b3d	c1 f8 08	 sar	 eax, 8
  00b40	0f b6 c8	 movzx	 ecx, al
  00b43	89 4d f4	 mov	 DWORD PTR _nG$197641[ebp], ecx

; 450  : 			int nB = GetBValue( aBeginColor );

  00b46	8b 55 1c	 mov	 edx, DWORD PTR _aBeginColor$[ebp]
  00b49	c1 ea 10	 shr	 edx, 16			; 00000010H
  00b4c	0f b6 c2	 movzx	 eax, dl
  00b4f	89 45 d0	 mov	 DWORD PTR _nB$197644[ebp], eax

; 451  : 
; 452  : 			float fRStep = ( GetRValue( aEndColor ) - GetRValue( aBeginColor ) ) / (float)anStep;

  00b52	0f b6 4d 20	 movzx	 ecx, BYTE PTR _aEndColor$[ebp]
  00b56	0f b6 55 1c	 movzx	 edx, BYTE PTR _aBeginColor$[ebp]
  00b5a	2b ca		 sub	 ecx, edx
  00b5c	89 4d a0	 mov	 DWORD PTR tv315[ebp], ecx
  00b5f	db 45 a0	 fild	 DWORD PTR tv315[ebp]
  00b62	8b 45 2c	 mov	 eax, DWORD PTR _anStep$[ebp]
  00b65	89 45 98	 mov	 DWORD PTR tv317[ebp], eax
  00b68	c7 45 9c 00 00
	00 00		 mov	 DWORD PTR tv317[ebp+4], 0
  00b6f	df 6d 98	 fild	 QWORD PTR tv317[ebp]
  00b72	de f9		 fdivp	 ST(1), ST(0)
  00b74	d9 5d bc	 fstp	 DWORD PTR _fRStep$197646[ebp]

; 453  : 			float fGStep = ( GetGValue( aEndColor ) - GetGValue( aBeginColor ) ) / (float)anStep;

  00b77	0f b7 4d 20	 movzx	 ecx, WORD PTR _aEndColor$[ebp]
  00b7b	c1 f9 08	 sar	 ecx, 8
  00b7e	0f b6 d1	 movzx	 edx, cl
  00b81	0f b7 45 1c	 movzx	 eax, WORD PTR _aBeginColor$[ebp]
  00b85	c1 f8 08	 sar	 eax, 8
  00b88	0f b6 c8	 movzx	 ecx, al
  00b8b	2b d1		 sub	 edx, ecx
  00b8d	89 55 94	 mov	 DWORD PTR tv320[ebp], edx
  00b90	db 45 94	 fild	 DWORD PTR tv320[ebp]
  00b93	8b 55 2c	 mov	 edx, DWORD PTR _anStep$[ebp]
  00b96	89 55 8c	 mov	 DWORD PTR tv322[ebp], edx
  00b99	c7 45 90 00 00
	00 00		 mov	 DWORD PTR tv322[ebp+4], 0
  00ba0	df 6d 8c	 fild	 QWORD PTR tv322[ebp]
  00ba3	de f9		 fdivp	 ST(1), ST(0)
  00ba5	d9 5d c8	 fstp	 DWORD PTR _fGStep$197650[ebp]

; 454  : 			float fBStep = ( GetBValue( aEndColor ) - GetBValue( aBeginColor ) ) / (float)anStep;

  00ba8	8b 45 20	 mov	 eax, DWORD PTR _aEndColor$[ebp]
  00bab	c1 e8 10	 shr	 eax, 16			; 00000010H
  00bae	0f b6 c8	 movzx	 ecx, al
  00bb1	8b 55 1c	 mov	 edx, DWORD PTR _aBeginColor$[ebp]
  00bb4	c1 ea 10	 shr	 edx, 16			; 00000010H
  00bb7	0f b6 c2	 movzx	 eax, dl
  00bba	2b c8		 sub	 ecx, eax
  00bbc	89 4d 88	 mov	 DWORD PTR tv327[ebp], ecx
  00bbf	db 45 88	 fild	 DWORD PTR tv327[ebp]
  00bc2	8b 4d 2c	 mov	 ecx, DWORD PTR _anStep$[ebp]
  00bc5	89 4d 80	 mov	 DWORD PTR tv329[ebp], ecx
  00bc8	c7 45 84 00 00
	00 00		 mov	 DWORD PTR tv329[ebp+4], 0
  00bcf	df 6d 80	 fild	 QWORD PTR tv329[ebp]
  00bd2	de f9		 fdivp	 ST(1), ST(0)
  00bd4	d9 5d e4	 fstp	 DWORD PTR _fBStep$197656[ebp]

; 455  : 
; 456  : 			HDC hdcMem   = ::CreateCompatibleDC( DC );

  00bd7	8b 55 08	 mov	 edx, DWORD PTR _DC$[ebp]
  00bda	52		 push	 edx
  00bdb	ff 15 00 00 00
	00		 call	 DWORD PTR __imp__CreateCompatibleDC@4
  00be1	89 45 e8	 mov	 DWORD PTR _hdcMem$197660[ebp], eax

; 457  : 			HBITMAP hbmpMem  = ::CreateCompatibleBitmap( DC, nWidth, nHeight );

  00be4	8b 45 f8	 mov	 eax, DWORD PTR _nHeight$197631[ebp]
  00be7	50		 push	 eax
  00be8	8b 4d fc	 mov	 ecx, DWORD PTR _nWidth$197630[ebp]
  00beb	51		 push	 ecx
  00bec	8b 55 08	 mov	 edx, DWORD PTR _DC$[ebp]
  00bef	52		 push	 edx
  00bf0	ff 15 00 00 00
	00		 call	 DWORD PTR __imp__CreateCompatibleBitmap@12
  00bf6	89 45 ec	 mov	 DWORD PTR _hbmpMem$197661[ebp], eax

; 458  : 			HGDIOBJ hobjOld  = ::SelectObject( hdcMem, hbmpMem );

  00bf9	8b 45 ec	 mov	 eax, DWORD PTR _hbmpMem$197661[ebp]
  00bfc	50		 push	 eax
  00bfd	8b 4d e8	 mov	 ecx, DWORD PTR _hdcMem$197660[ebp]
  00c00	51		 push	 ecx
  00c01	ff 15 00 00 00
	00		 call	 DWORD PTR __imp__SelectObject@8
  00c07	89 45 f0	 mov	 DWORD PTR _hobjOld$197662[ebp], eax

; 459  : 
; 460  : 			rect.top = rect.left = 0;

  00c0a	c7 45 d4 00 00
	00 00		 mov	 DWORD PTR _rect$197634[ebp], 0
  00c11	8b 55 d4	 mov	 edx, DWORD PTR _rect$197634[ebp]
  00c14	89 55 d8	 mov	 DWORD PTR _rect$197634[ebp+4], edx

; 461  : 
; 462  : 			if ( Orientation )

  00c17	83 7d 24 00	 cmp	 DWORD PTR _Orientation$[ebp], 0
  00c1b	0f 84 db 00 00
	00		 je	 $L197663

; 463  : 			{
; 464  : 				rect.right= nWidth;

  00c21	8b 45 fc	 mov	 eax, DWORD PTR _nWidth$197630[ebp]
  00c24	89 45 dc	 mov	 DWORD PTR _rect$197634[ebp+8], eax

; 465  : 				fStep= (float)nHeight / (float)anStep;

  00c27	db 45 f8	 fild	 DWORD PTR _nHeight$197631[ebp]
  00c2a	8b 4d 2c	 mov	 ecx, DWORD PTR _anStep$[ebp]
  00c2d	89 8d 78 ff ff
	ff		 mov	 DWORD PTR tv344[ebp], ecx
  00c33	c7 85 7c ff ff
	ff 00 00 00 00	 mov	 DWORD PTR tv344[ebp+4], 0
  00c3d	df ad 78 ff ff
	ff		 fild	 QWORD PTR tv344[ebp]
  00c43	de f9		 fdivp	 ST(1), ST(0)
  00c45	d9 5d c4	 fstp	 DWORD PTR _fStep$197633[ebp]

; 466  : 
; 467  : 				for ( int nCount=0; nCount<=anStep; nCount++ )

  00c48	c7 45 b8 00 00
	00 00		 mov	 DWORD PTR _nCount$197666[ebp], 0
  00c4f	eb 09		 jmp	 SHORT $L197667
$L197668:
  00c51	8b 55 b8	 mov	 edx, DWORD PTR _nCount$197666[ebp]
  00c54	83 c2 01	 add	 edx, 1
  00c57	89 55 b8	 mov	 DWORD PTR _nCount$197666[ebp], edx
$L197667:
  00c5a	8b 45 b8	 mov	 eax, DWORD PTR _nCount$197666[ebp]
  00c5d	3b 45 2c	 cmp	 eax, DWORD PTR _anStep$[ebp]
  00c60	0f 87 91 00 00
	00		 ja	 $L197669

; 468  : 				{
; 469  : 					rect.bottom = (int)( (nCount+1) * fStep );

  00c66	8b 4d b8	 mov	 ecx, DWORD PTR _nCount$197666[ebp]
  00c69	83 c1 01	 add	 ecx, 1
  00c6c	89 8d 74 ff ff
	ff		 mov	 DWORD PTR tv350[ebp], ecx
  00c72	db 85 74 ff ff
	ff		 fild	 DWORD PTR tv350[ebp]
  00c78	d8 4d c4	 fmul	 DWORD PTR _fStep$197633[ebp]
  00c7b	e8 00 00 00 00	 call	 __ftol2
  00c80	89 45 e0	 mov	 DWORD PTR _rect$197634[ebp+12], eax

; 470  : 
; 471  : 					hbrFill = ::CreateSolidBrush( RGB( nR+fRStep*nCount, nG+fGStep*nCount, nB+fBStep*nCount ) );

  00c83	db 45 cc	 fild	 DWORD PTR _nR$197639[ebp]
  00c86	db 45 b8	 fild	 DWORD PTR _nCount$197666[ebp]
  00c89	d8 4d bc	 fmul	 DWORD PTR _fRStep$197646[ebp]
  00c8c	de c1		 faddp	 ST(1), ST(0)
  00c8e	e8 00 00 00 00	 call	 __ftol2
  00c93	0f b6 f0	 movzx	 esi, al
  00c96	db 45 f4	 fild	 DWORD PTR _nG$197641[ebp]
  00c99	db 45 b8	 fild	 DWORD PTR _nCount$197666[ebp]
  00c9c	d8 4d c8	 fmul	 DWORD PTR _fGStep$197650[ebp]
  00c9f	de c1		 faddp	 ST(1), ST(0)
  00ca1	e8 00 00 00 00	 call	 __ftol2
  00ca6	0f b6 d0	 movzx	 edx, al
  00ca9	c1 e2 08	 shl	 edx, 8
  00cac	0b f2		 or	 esi, edx
  00cae	db 45 d0	 fild	 DWORD PTR _nB$197644[ebp]
  00cb1	db 45 b8	 fild	 DWORD PTR _nCount$197666[ebp]
  00cb4	d8 4d e4	 fmul	 DWORD PTR _fBStep$197656[ebp]
  00cb7	de c1		 faddp	 ST(1), ST(0)
  00cb9	e8 00 00 00 00	 call	 __ftol2
  00cbe	0f b6 c0	 movzx	 eax, al
  00cc1	c1 e0 10	 shl	 eax, 16			; 00000010H
  00cc4	0b f0		 or	 esi, eax
  00cc6	56		 push	 esi
  00cc7	ff 15 00 00 00
	00		 call	 DWORD PTR __imp__CreateSolidBrush@4
  00ccd	89 45 c0	 mov	 DWORD PTR _hbrFill$197635[ebp], eax

; 472  : 					::FillRect( hdcMem, &rect, hbrFill );

  00cd0	8b 4d c0	 mov	 ecx, DWORD PTR _hbrFill$197635[ebp]
  00cd3	51		 push	 ecx
  00cd4	8d 55 d4	 lea	 edx, DWORD PTR _rect$197634[ebp]
  00cd7	52		 push	 edx
  00cd8	8b 45 e8	 mov	 eax, DWORD PTR _hdcMem$197660[ebp]
  00cdb	50		 push	 eax
  00cdc	ff 15 00 00 00
	00		 call	 DWORD PTR __imp__FillRect@12

; 473  : 					::DeleteObject( hbrFill );

  00ce2	8b 4d c0	 mov	 ecx, DWORD PTR _hbrFill$197635[ebp]
  00ce5	51		 push	 ecx
  00ce6	ff 15 00 00 00
	00		 call	 DWORD PTR __imp__DeleteObject@4

; 474  : 
; 475  : 					rect.top = rect.bottom;

  00cec	8b 55 e0	 mov	 edx, DWORD PTR _rect$197634[ebp+12]
  00cef	89 55 d8	 mov	 DWORD PTR _rect$197634[ebp+4], edx

; 476  : 				}

  00cf2	e9 5a ff ff ff	 jmp	 $L197668
$L197669:

; 477  : 			}
; 478  : 			else

  00cf7	e9 d6 00 00 00	 jmp	 $L197677
$L197663:

; 479  : 			{
; 480  : 				rect.bottom = nHeight;

  00cfc	8b 45 f8	 mov	 eax, DWORD PTR _nHeight$197631[ebp]
  00cff	89 45 e0	 mov	 DWORD PTR _rect$197634[ebp+12], eax

; 481  : 				fStep= (float)nWidth / (float)anStep;

  00d02	db 45 fc	 fild	 DWORD PTR _nWidth$197630[ebp]
  00d05	8b 4d 2c	 mov	 ecx, DWORD PTR _anStep$[ebp]
  00d08	89 8d 6c ff ff
	ff		 mov	 DWORD PTR tv367[ebp], ecx
  00d0e	c7 85 70 ff ff
	ff 00 00 00 00	 mov	 DWORD PTR tv367[ebp+4], 0
  00d18	df ad 6c ff ff
	ff		 fild	 QWORD PTR tv367[ebp]
  00d1e	de f9		 fdivp	 ST(1), ST(0)
  00d20	d9 5d c4	 fstp	 DWORD PTR _fStep$197633[ebp]

; 482  : 
; 483  : 				for ( int nCount=0; nCount<=anStep; nCount++ )

  00d23	c7 45 b4 00 00
	00 00		 mov	 DWORD PTR _nCount$197680[ebp], 0
  00d2a	eb 09		 jmp	 SHORT $L197681
$L197682:
  00d2c	8b 55 b4	 mov	 edx, DWORD PTR _nCount$197680[ebp]
  00d2f	83 c2 01	 add	 edx, 1
  00d32	89 55 b4	 mov	 DWORD PTR _nCount$197680[ebp], edx
$L197681:
  00d35	8b 45 b4	 mov	 eax, DWORD PTR _nCount$197680[ebp]
  00d38	3b 45 2c	 cmp	 eax, DWORD PTR _anStep$[ebp]
  00d3b	0f 87 91 00 00
	00		 ja	 $L197677

; 484  : 				{
; 485  : 					rect.right= (int)( (nCount+1) * fStep );

  00d41	8b 4d b4	 mov	 ecx, DWORD PTR _nCount$197680[ebp]
  00d44	83 c1 01	 add	 ecx, 1
  00d47	89 8d 68 ff ff
	ff		 mov	 DWORD PTR tv373[ebp], ecx
  00d4d	db 85 68 ff ff
	ff		 fild	 DWORD PTR tv373[ebp]
  00d53	d8 4d c4	 fmul	 DWORD PTR _fStep$197633[ebp]
  00d56	e8 00 00 00 00	 call	 __ftol2
  00d5b	89 45 dc	 mov	 DWORD PTR _rect$197634[ebp+8], eax

; 486  : 
; 487  : 					hbrFill = ::CreateSolidBrush( RGB( nR+fRStep*nCount, nG+fGStep*nCount, nB+fBStep*nCount ) );

  00d5e	db 45 cc	 fild	 DWORD PTR _nR$197639[ebp]
  00d61	db 45 b4	 fild	 DWORD PTR _nCount$197680[ebp]
  00d64	d8 4d bc	 fmul	 DWORD PTR _fRStep$197646[ebp]
  00d67	de c1		 faddp	 ST(1), ST(0)
  00d69	e8 00 00 00 00	 call	 __ftol2
  00d6e	0f b6 f0	 movzx	 esi, al
  00d71	db 45 f4	 fild	 DWORD PTR _nG$197641[ebp]
  00d74	db 45 b4	 fild	 DWORD PTR _nCount$197680[ebp]
  00d77	d8 4d c8	 fmul	 DWORD PTR _fGStep$197650[ebp]
  00d7a	de c1		 faddp	 ST(1), ST(0)
  00d7c	e8 00 00 00 00	 call	 __ftol2
  00d81	0f b6 d0	 movzx	 edx, al
  00d84	c1 e2 08	 shl	 edx, 8
  00d87	0b f2		 or	 esi, edx
  00d89	db 45 d0	 fild	 DWORD PTR _nB$197644[ebp]
  00d8c	db 45 b4	 fild	 DWORD PTR _nCount$197680[ebp]
  00d8f	d8 4d e4	 fmul	 DWORD PTR _fBStep$197656[ebp]
  00d92	de c1		 faddp	 ST(1), ST(0)
  00d94	e8 00 00 00 00	 call	 __ftol2
  00d99	0f b6 c0	 movzx	 eax, al
  00d9c	c1 e0 10	 shl	 eax, 16			; 00000010H
  00d9f	0b f0		 or	 esi, eax
  00da1	56		 push	 esi
  00da2	ff 15 00 00 00
	00		 call	 DWORD PTR __imp__CreateSolidBrush@4
  00da8	89 45 c0	 mov	 DWORD PTR _hbrFill$197635[ebp], eax

; 488  : 					::FillRect( hdcMem, &rect, hbrFill );

  00dab	8b 4d c0	 mov	 ecx, DWORD PTR _hbrFill$197635[ebp]
  00dae	51		 push	 ecx
  00daf	8d 55 d4	 lea	 edx, DWORD PTR _rect$197634[ebp]
  00db2	52		 push	 edx
  00db3	8b 45 e8	 mov	 eax, DWORD PTR _hdcMem$197660[ebp]
  00db6	50		 push	 eax
  00db7	ff 15 00 00 00
	00		 call	 DWORD PTR __imp__FillRect@12

; 489  : 					::DeleteObject( hbrFill );

  00dbd	8b 4d c0	 mov	 ecx, DWORD PTR _hbrFill$197635[ebp]
  00dc0	51		 push	 ecx
  00dc1	ff 15 00 00 00
	00		 call	 DWORD PTR __imp__DeleteObject@4

; 490  : 
; 491  : 					rect.left = rect.right;

  00dc7	8b 55 dc	 mov	 edx, DWORD PTR _rect$197634[ebp+8]
  00dca	89 55 d4	 mov	 DWORD PTR _rect$197634[ebp], edx

; 492  : 				}

  00dcd	e9 5a ff ff ff	 jmp	 $L197682
$L197677:

; 493  : 			}
; 494  : 
; 495  : 			::BitBlt( DC, aRect.left, aRect.top, nWidth, nHeight, hdcMem, 0, 0, SRCCOPY );

  00dd2	68 20 00 cc 00	 push	 13369376		; 00cc0020H
  00dd7	6a 00		 push	 0
  00dd9	6a 00		 push	 0
  00ddb	8b 45 e8	 mov	 eax, DWORD PTR _hdcMem$197660[ebp]
  00dde	50		 push	 eax
  00ddf	8b 4d f8	 mov	 ecx, DWORD PTR _nHeight$197631[ebp]
  00de2	51		 push	 ecx
  00de3	8b 55 fc	 mov	 edx, DWORD PTR _nWidth$197630[ebp]
  00de6	52		 push	 edx
  00de7	8b 45 10	 mov	 eax, DWORD PTR _aRect$[ebp+4]
  00dea	50		 push	 eax
  00deb	8b 4d 0c	 mov	 ecx, DWORD PTR _aRect$[ebp]
  00dee	51		 push	 ecx
  00def	8b 55 08	 mov	 edx, DWORD PTR _DC$[ebp]
  00df2	52		 push	 edx
  00df3	ff 15 00 00 00
	00		 call	 DWORD PTR __imp__BitBlt@36

; 496  : 
; 497  : 			::SelectObject( hdcMem, hobjOld );

  00df9	8b 45 f0	 mov	 eax, DWORD PTR _hobjOld$197662[ebp]
  00dfc	50		 push	 eax
  00dfd	8b 4d e8	 mov	 ecx, DWORD PTR _hdcMem$197660[ebp]
  00e00	51		 push	 ecx
  00e01	ff 15 00 00 00
	00		 call	 DWORD PTR __imp__SelectObject@8

; 498  : 			::DeleteObject( hbmpMem );

  00e07	8b 55 ec	 mov	 edx, DWORD PTR _hbmpMem$197661[ebp]
  00e0a	52		 push	 edx
  00e0b	ff 15 00 00 00
	00		 call	 DWORD PTR __imp__DeleteObject@4

; 499  : 			::DeleteDC( hdcMem );

  00e11	8b 45 e8	 mov	 eax, DWORD PTR _hdcMem$197660[ebp]
  00e14	50		 push	 eax
  00e15	ff 15 00 00 00
	00		 call	 DWORD PTR __imp__DeleteDC@4
$L197627:

; 500  : 		}
; 501  : 	}
; 502  : }

  00e1b	5e		 pop	 esi
  00e1c	8b e5		 mov	 esp, ebp
  00e1e	5d		 pop	 ebp
  00e1f	c2 28 00	 ret	 40			; 00000028H
?FillRectangle@CGdiEx@@UAEXPAUHDC__@@UtagRECT@@KKW4ENUM_DrawOrientation@@HI@Z ENDP ; CGdiEx::FillRectangle
_TEXT	ENDS
PUBLIC	?RGBtoHSL@CGdiEx@@QAEXKPAN00@Z			; CGdiEx::RGBtoHSL
PUBLIC	?HLStoRGB@CGdiEx@@QAEKABN00@Z			; CGdiEx::HLStoRGB
PUBLIC	__real@406e000000000000
PUBLIC	__real@3ff0000000000000
PUBLIC	__real@3fe0000000000000
;	COMDAT __real@406e000000000000
CONST	SEGMENT
__real@406e000000000000 DQ 0406e000000000000r	; 240
CONST	ENDS
;	COMDAT __real@3ff0000000000000
CONST	SEGMENT
__real@3ff0000000000000 DQ 03ff0000000000000r	; 1
CONST	ENDS
;	COMDAT __real@3fe0000000000000
CONST	SEGMENT
__real@3fe0000000000000 DQ 03fe0000000000000r	; 0.5
; Function compile flags: /Odt
CONST	ENDS
_TEXT	SEGMENT
tv352 = -232						; size = 4
tv346 = -228						; size = 8
tv328 = -220						; size = 4
tv322 = -216						; size = 8
tv305 = -208						; size = 8
tv83 = -200						; size = 4
tv81 = -196						; size = 4
tv77 = -192						; size = 4
_this$ = -188						; size = 4
$T198861 = -184						; size = 8
$T198860 = -176						; size = 8
$T198859 = -168						; size = 8
$T198858 = -160						; size = 8
$T198857 = -152						; size = 8
$T198856 = -144						; size = 8
_nCount$197765 = -132					; size = 4
_nCount$197753 = -128					; size = 4
_fHStep$197745 = -124					; size = 4
_lH1$197716 = -120					; size = 8
_lS2$197733 = -112					; size = 8
_hbrFill$197709 = -104					; size = 4
_lR2$197729 = -100					; size = 4
_fStep$197707 = -96					; size = 4
_lR1$197713 = -92					; size = 4
_lL1$197718 = -88					; size = 8
_lS1$197717 = -80					; size = 8
_lL2$197734 = -72					; size = 8
_lG2$197730 = -64					; size = 4
_lB1$197715 = -60					; size = 4
_lH2$197732 = -56					; size = 8
_rect$197708 = -44					; size = 16
_lG1$197714 = -28					; size = 4
_hdcMem$197747 = -24					; size = 4
_hbmpMem$197748 = -20					; size = 4
_hobjOld$197749 = -16					; size = 4
_lB2$197731 = -12					; size = 4
_nHeight$197705 = -8					; size = 4
_nWidth$197704 = -4					; size = 4
_DC$ = 8						; size = 4
_aRect$ = 12						; size = 16
_aBeginColor$ = 28					; size = 4
_aEndColor$ = 32					; size = 4
_Orientation$ = 36					; size = 4
_abEclosion$ = 40					; size = 4
_anStep$ = 44						; size = 4
?FillRectangleHue@CGdiEx@@UAEXPAUHDC__@@UtagRECT@@KKW4ENUM_DrawOrientation@@HI@Z PROC NEAR ; CGdiEx::FillRectangleHue
; _this$ = ecx

; 504  : {

  00e30	55		 push	 ebp
  00e31	8b ec		 mov	 ebp, esp
  00e33	81 ec e8 00 00
	00		 sub	 esp, 232		; 000000e8H
  00e39	89 8d 44 ff ff
	ff		 mov	 DWORD PTR _this$[ebp], ecx

; 505  : 	if(aBeginColor == aEndColor)

  00e3f	8b 45 1c	 mov	 eax, DWORD PTR _aBeginColor$[ebp]
  00e42	3b 45 20	 cmp	 eax, DWORD PTR _aEndColor$[ebp]
  00e45	75 3e		 jne	 SHORT $L197702

; 506  : 	{
; 507  : 		FillRectangle(DC, aRect, aBeginColor,  abEclosion);

  00e47	8b 4d 28	 mov	 ecx, DWORD PTR _abEclosion$[ebp]
  00e4a	51		 push	 ecx
  00e4b	8b 55 1c	 mov	 edx, DWORD PTR _aBeginColor$[ebp]
  00e4e	52		 push	 edx
  00e4f	83 ec 10	 sub	 esp, 16			; 00000010H
  00e52	8b c4		 mov	 eax, esp
  00e54	8b 4d 0c	 mov	 ecx, DWORD PTR _aRect$[ebp]
  00e57	89 08		 mov	 DWORD PTR [eax], ecx
  00e59	8b 55 10	 mov	 edx, DWORD PTR _aRect$[ebp+4]
  00e5c	89 50 04	 mov	 DWORD PTR [eax+4], edx
  00e5f	8b 4d 14	 mov	 ecx, DWORD PTR _aRect$[ebp+8]
  00e62	89 48 08	 mov	 DWORD PTR [eax+8], ecx
  00e65	8b 55 18	 mov	 edx, DWORD PTR _aRect$[ebp+12]
  00e68	89 50 0c	 mov	 DWORD PTR [eax+12], edx
  00e6b	8b 45 08	 mov	 eax, DWORD PTR _DC$[ebp]
  00e6e	50		 push	 eax
  00e6f	8b 8d 44 ff ff
	ff		 mov	 ecx, DWORD PTR _this$[ebp]
  00e75	8b 11		 mov	 edx, DWORD PTR [ecx]
  00e77	8b 8d 44 ff ff
	ff		 mov	 ecx, DWORD PTR _this$[ebp]
  00e7d	ff 52 0c	 call	 DWORD PTR [edx+12]

; 508  : 	}
; 509  : 	else

  00e80	e9 d0 03 00 00	 jmp	 $L197701
$L197702:

; 510  : 	{
; 511  : 		int nWidth  = aRect.right  - aRect.left;

  00e85	8b 45 14	 mov	 eax, DWORD PTR _aRect$[ebp+8]
  00e88	2b 45 0c	 sub	 eax, DWORD PTR _aRect$[ebp]
  00e8b	89 45 fc	 mov	 DWORD PTR _nWidth$197704[ebp], eax

; 512  : 		int nHeight = aRect.bottom - aRect.top;  

  00e8e	8b 4d 18	 mov	 ecx, DWORD PTR _aRect$[ebp+12]
  00e91	2b 4d 10	 sub	 ecx, DWORD PTR _aRect$[ebp+4]
  00e94	89 4d f8	 mov	 DWORD PTR _nHeight$197705[ebp], ecx

; 513  : 		if(!(nWidth<=0|| nHeight<= 0))

  00e97	83 7d fc 00	 cmp	 DWORD PTR _nWidth$197704[ebp], 0
  00e9b	0f 8e b4 03 00
	00		 jle	 $L197701
  00ea1	83 7d f8 00	 cmp	 DWORD PTR _nHeight$197705[ebp], 0
  00ea5	0f 8e aa 03 00
	00		 jle	 $L197701

; 514  : 		{
; 515  : 			float fStep;
; 516  : 			RECT rect;
; 517  : 			HBRUSH hbrFill;
; 518  : 			anStep = anStep == 1 ?  10:anStep;

  00eab	83 7d 2c 01	 cmp	 DWORD PTR _anStep$[ebp], 1
  00eaf	75 0c		 jne	 SHORT $L198850
  00eb1	c7 85 40 ff ff
	ff 0a 00 00 00	 mov	 DWORD PTR tv77[ebp], 10	; 0000000aH
  00ebb	eb 09		 jmp	 SHORT $L198851
$L198850:
  00ebd	8b 55 2c	 mov	 edx, DWORD PTR _anStep$[ebp]
  00ec0	89 95 40 ff ff
	ff		 mov	 DWORD PTR tv77[ebp], edx
$L198851:
  00ec6	8b 85 40 ff ff
	ff		 mov	 eax, DWORD PTR tv77[ebp]
  00ecc	89 45 2c	 mov	 DWORD PTR _anStep$[ebp], eax

; 519  : 			if( -1 == anStep)

  00ecf	83 7d 2c ff	 cmp	 DWORD PTR _anStep$[ebp], -1
  00ed3	75 50		 jne	 SHORT $L197710

; 520  : 			{
; 521  : 				if(true == Orientation)

  00ed5	83 7d 24 01	 cmp	 DWORD PTR _Orientation$[ebp], 1
  00ed9	75 26		 jne	 SHORT $L197711

; 522  : 				{
; 523  : 					anStep = nHeight > 10 ? 10 : nHeight;

  00edb	83 7d f8 0a	 cmp	 DWORD PTR _nHeight$197705[ebp], 10 ; 0000000aH
  00edf	7e 0c		 jle	 SHORT $L198852
  00ee1	c7 85 3c ff ff
	ff 0a 00 00 00	 mov	 DWORD PTR tv81[ebp], 10	; 0000000aH
  00eeb	eb 09		 jmp	 SHORT $L198853
$L198852:
  00eed	8b 4d f8	 mov	 ecx, DWORD PTR _nHeight$197705[ebp]
  00ef0	89 8d 3c ff ff
	ff		 mov	 DWORD PTR tv81[ebp], ecx
$L198853:
  00ef6	8b 95 3c ff ff
	ff		 mov	 edx, DWORD PTR tv81[ebp]
  00efc	89 55 2c	 mov	 DWORD PTR _anStep$[ebp], edx

; 524  : 
; 525  : 				}
; 526  : 				else

  00eff	eb 24		 jmp	 SHORT $L197710
$L197711:

; 527  : 				{
; 528  : 					anStep = nWidth >= 10 ? 10: nWidth;

  00f01	83 7d fc 0a	 cmp	 DWORD PTR _nWidth$197704[ebp], 10 ; 0000000aH
  00f05	7c 0c		 jl	 SHORT $L198854
  00f07	c7 85 38 ff ff
	ff 0a 00 00 00	 mov	 DWORD PTR tv83[ebp], 10	; 0000000aH
  00f11	eb 09		 jmp	 SHORT $L198855
$L198854:
  00f13	8b 45 fc	 mov	 eax, DWORD PTR _nWidth$197704[ebp]
  00f16	89 85 38 ff ff
	ff		 mov	 DWORD PTR tv83[ebp], eax
$L198855:
  00f1c	8b 8d 38 ff ff
	ff		 mov	 ecx, DWORD PTR tv83[ebp]
  00f22	89 4d 2c	 mov	 DWORD PTR _anStep$[ebp], ecx
$L197710:

; 529  : 				}
; 530  : 			}
; 531  : 
; 532  : 			int    lR1,lG1,lB1;
; 533  : 			double lH1,lS1,lL1;
; 534  : 			lR1 = GetRValue( aBeginColor );

  00f25	0f b6 55 1c	 movzx	 edx, BYTE PTR _aBeginColor$[ebp]
  00f29	89 55 a4	 mov	 DWORD PTR _lR1$197713[ebp], edx

; 535  : 			lG1 = GetGValue( aBeginColor );

  00f2c	0f b7 45 1c	 movzx	 eax, WORD PTR _aBeginColor$[ebp]
  00f30	c1 f8 08	 sar	 eax, 8
  00f33	0f b6 c8	 movzx	 ecx, al
  00f36	89 4d e4	 mov	 DWORD PTR _lG1$197714[ebp], ecx

; 536  : 			lB1 = GetBValue( aBeginColor );

  00f39	8b 55 1c	 mov	 edx, DWORD PTR _aBeginColor$[ebp]
  00f3c	c1 ea 10	 shr	 edx, 16			; 00000010H
  00f3f	0f b6 c2	 movzx	 eax, dl
  00f42	89 45 c4	 mov	 DWORD PTR _lB1$197715[ebp], eax

; 537  : 			RGBtoHSL(RGB(lR1,lG1,lB1),&lH1,&lS1,&lL1);

  00f45	8d 4d a8	 lea	 ecx, DWORD PTR _lL1$197718[ebp]
  00f48	51		 push	 ecx
  00f49	8d 55 b0	 lea	 edx, DWORD PTR _lS1$197717[ebp]
  00f4c	52		 push	 edx
  00f4d	8d 45 88	 lea	 eax, DWORD PTR _lH1$197716[ebp]
  00f50	50		 push	 eax
  00f51	0f b6 4d a4	 movzx	 ecx, BYTE PTR _lR1$197713[ebp]
  00f55	0f b6 55 e4	 movzx	 edx, BYTE PTR _lG1$197714[ebp]
  00f59	c1 e2 08	 shl	 edx, 8
  00f5c	0b ca		 or	 ecx, edx
  00f5e	0f b6 45 c4	 movzx	 eax, BYTE PTR _lB1$197715[ebp]
  00f62	c1 e0 10	 shl	 eax, 16			; 00000010H
  00f65	0b c8		 or	 ecx, eax
  00f67	51		 push	 ecx
  00f68	8b 8d 44 ff ff
	ff		 mov	 ecx, DWORD PTR _this$[ebp]
  00f6e	e8 00 00 00 00	 call	 ?RGBtoHSL@CGdiEx@@QAEXKPAN00@Z ; CGdiEx::RGBtoHSL

; 538  : 
; 539  : 			int    lR2,lG2,lB2;
; 540  : 			double lH2,lS2,lL2;
; 541  : 			lR2 = GetRValue( aEndColor );

  00f73	0f b6 4d 20	 movzx	 ecx, BYTE PTR _aEndColor$[ebp]
  00f77	89 4d 9c	 mov	 DWORD PTR _lR2$197729[ebp], ecx

; 542  : 			lG2 = GetGValue( aEndColor );

  00f7a	0f b7 55 20	 movzx	 edx, WORD PTR _aEndColor$[ebp]
  00f7e	c1 fa 08	 sar	 edx, 8
  00f81	0f b6 c2	 movzx	 eax, dl
  00f84	89 45 c0	 mov	 DWORD PTR _lG2$197730[ebp], eax

; 543  : 			lB2 = GetBValue( aEndColor );

  00f87	8b 4d 20	 mov	 ecx, DWORD PTR _aEndColor$[ebp]
  00f8a	c1 e9 10	 shr	 ecx, 16			; 00000010H
  00f8d	0f b6 d1	 movzx	 edx, cl
  00f90	89 55 f4	 mov	 DWORD PTR _lB2$197731[ebp], edx

; 544  : 			RGBtoHSL(RGB(lR2,lG2,lB2),&lH2,&lS2,&lL2);

  00f93	8d 45 b8	 lea	 eax, DWORD PTR _lL2$197734[ebp]
  00f96	50		 push	 eax
  00f97	8d 4d 90	 lea	 ecx, DWORD PTR _lS2$197733[ebp]
  00f9a	51		 push	 ecx
  00f9b	8d 55 c8	 lea	 edx, DWORD PTR _lH2$197732[ebp]
  00f9e	52		 push	 edx
  00f9f	0f b6 45 9c	 movzx	 eax, BYTE PTR _lR2$197729[ebp]
  00fa3	0f b6 4d c0	 movzx	 ecx, BYTE PTR _lG2$197730[ebp]
  00fa7	c1 e1 08	 shl	 ecx, 8
  00faa	0b c1		 or	 eax, ecx
  00fac	0f b6 55 f4	 movzx	 edx, BYTE PTR _lB2$197731[ebp]
  00fb0	c1 e2 10	 shl	 edx, 16			; 00000010H
  00fb3	0b c2		 or	 eax, edx
  00fb5	50		 push	 eax
  00fb6	8b 8d 44 ff ff
	ff		 mov	 ecx, DWORD PTR _this$[ebp]
  00fbc	e8 00 00 00 00	 call	 ?RGBtoHSL@CGdiEx@@QAEXKPAN00@Z ; CGdiEx::RGBtoHSL

; 545  : 
; 546  : 			float fHStep = ( lH2 - lH1 )*240 / (float)anStep;

  00fc1	dd 45 c8	 fld	 QWORD PTR _lH2$197732[ebp]
  00fc4	dc 65 88	 fsub	 QWORD PTR _lH1$197716[ebp]
  00fc7	dc 0d 00 00 00
	00		 fmul	 QWORD PTR __real@406e000000000000
  00fcd	8b 45 2c	 mov	 eax, DWORD PTR _anStep$[ebp]
  00fd0	89 85 30 ff ff
	ff		 mov	 DWORD PTR tv305[ebp], eax
  00fd6	c7 85 34 ff ff
	ff 00 00 00 00	 mov	 DWORD PTR tv305[ebp+4], 0
  00fe0	df ad 30 ff ff
	ff		 fild	 QWORD PTR tv305[ebp]
  00fe6	de f9		 fdivp	 ST(1), ST(0)
  00fe8	d9 5d 84	 fstp	 DWORD PTR _fHStep$197745[ebp]

; 547  : 			HDC hdcMem   = ::CreateCompatibleDC( DC );

  00feb	8b 4d 08	 mov	 ecx, DWORD PTR _DC$[ebp]
  00fee	51		 push	 ecx
  00fef	ff 15 00 00 00
	00		 call	 DWORD PTR __imp__CreateCompatibleDC@4
  00ff5	89 45 e8	 mov	 DWORD PTR _hdcMem$197747[ebp], eax

; 548  : 			HBITMAP hbmpMem  = ::CreateCompatibleBitmap( DC, nWidth, nHeight );

  00ff8	8b 55 f8	 mov	 edx, DWORD PTR _nHeight$197705[ebp]
  00ffb	52		 push	 edx
  00ffc	8b 45 fc	 mov	 eax, DWORD PTR _nWidth$197704[ebp]
  00fff	50		 push	 eax
  01000	8b 4d 08	 mov	 ecx, DWORD PTR _DC$[ebp]
  01003	51		 push	 ecx
  01004	ff 15 00 00 00
	00		 call	 DWORD PTR __imp__CreateCompatibleBitmap@12
  0100a	89 45 ec	 mov	 DWORD PTR _hbmpMem$197748[ebp], eax

; 549  : 			HGDIOBJ hobjOld  = ::SelectObject( hdcMem, hbmpMem );

  0100d	8b 55 ec	 mov	 edx, DWORD PTR _hbmpMem$197748[ebp]
  01010	52		 push	 edx
  01011	8b 45 e8	 mov	 eax, DWORD PTR _hdcMem$197747[ebp]
  01014	50		 push	 eax
  01015	ff 15 00 00 00
	00		 call	 DWORD PTR __imp__SelectObject@8
  0101b	89 45 f0	 mov	 DWORD PTR _hobjOld$197749[ebp], eax

; 550  : 
; 551  : 			rect.top = rect.left = 0;

  0101e	c7 45 d4 00 00
	00 00		 mov	 DWORD PTR _rect$197708[ebp], 0
  01025	8b 4d d4	 mov	 ecx, DWORD PTR _rect$197708[ebp]
  01028	89 4d d8	 mov	 DWORD PTR _rect$197708[ebp+4], ecx

; 552  : 
; 553  : 			if ( Orientation )

  0102b	83 7d 24 00	 cmp	 DWORD PTR _Orientation$[ebp], 0
  0102f	0f 84 e5 00 00
	00		 je	 $L197750

; 554  : 			{
; 555  : 				rect.right= nWidth;

  01035	8b 55 fc	 mov	 edx, DWORD PTR _nWidth$197704[ebp]
  01038	89 55 dc	 mov	 DWORD PTR _rect$197708[ebp+8], edx

; 556  : 				fStep= (float)nHeight / (float)anStep;

  0103b	db 45 f8	 fild	 DWORD PTR _nHeight$197705[ebp]
  0103e	8b 45 2c	 mov	 eax, DWORD PTR _anStep$[ebp]
  01041	89 85 28 ff ff
	ff		 mov	 DWORD PTR tv322[ebp], eax
  01047	c7 85 2c ff ff
	ff 00 00 00 00	 mov	 DWORD PTR tv322[ebp+4], 0
  01051	df ad 28 ff ff
	ff		 fild	 QWORD PTR tv322[ebp]
  01057	de f9		 fdivp	 ST(1), ST(0)
  01059	d9 5d a0	 fstp	 DWORD PTR _fStep$197707[ebp]

; 557  : 
; 558  : 				for ( int nCount=0; nCount<=anStep; nCount++ )

  0105c	c7 45 80 00 00
	00 00		 mov	 DWORD PTR _nCount$197753[ebp], 0
  01063	eb 09		 jmp	 SHORT $L197754
$L197755:
  01065	8b 4d 80	 mov	 ecx, DWORD PTR _nCount$197753[ebp]
  01068	83 c1 01	 add	 ecx, 1
  0106b	89 4d 80	 mov	 DWORD PTR _nCount$197753[ebp], ecx
$L197754:
  0106e	8b 55 80	 mov	 edx, DWORD PTR _nCount$197753[ebp]
  01071	3b 55 2c	 cmp	 edx, DWORD PTR _anStep$[ebp]
  01074	0f 87 9b 00 00
	00		 ja	 $L197756

; 559  : 				{
; 560  : 					rect.bottom = (int)( (nCount+1) * fStep );

  0107a	8b 45 80	 mov	 eax, DWORD PTR _nCount$197753[ebp]
  0107d	83 c0 01	 add	 eax, 1
  01080	89 85 24 ff ff
	ff		 mov	 DWORD PTR tv328[ebp], eax
  01086	db 85 24 ff ff
	ff		 fild	 DWORD PTR tv328[ebp]
  0108c	d8 4d a0	 fmul	 DWORD PTR _fStep$197707[ebp]
  0108f	e8 00 00 00 00	 call	 __ftol2
  01094	89 45 e0	 mov	 DWORD PTR _rect$197708[ebp+12], eax

; 561  : 
; 562  : 					hbrFill = ::CreateSolidBrush( HLStoRGB(lH1+fHStep*nCount/(float)(240) ,0.5,1.0 )  );

  01097	dd 05 00 00 00
	00		 fld	 QWORD PTR __real@3ff0000000000000
  0109d	dd 9d 70 ff ff
	ff		 fstp	 QWORD PTR $T198856[ebp]
  010a3	dd 05 00 00 00
	00		 fld	 QWORD PTR __real@3fe0000000000000
  010a9	dd 9d 68 ff ff
	ff		 fstp	 QWORD PTR $T198857[ebp]
  010af	db 45 80	 fild	 DWORD PTR _nCount$197753[ebp]
  010b2	d8 4d 84	 fmul	 DWORD PTR _fHStep$197745[ebp]
  010b5	d8 35 00 00 00
	00		 fdiv	 DWORD PTR __real@43700000
  010bb	dc 45 88	 fadd	 QWORD PTR _lH1$197716[ebp]
  010be	dd 9d 60 ff ff
	ff		 fstp	 QWORD PTR $T198858[ebp]
  010c4	8d 8d 70 ff ff
	ff		 lea	 ecx, DWORD PTR $T198856[ebp]
  010ca	51		 push	 ecx
  010cb	8d 95 68 ff ff
	ff		 lea	 edx, DWORD PTR $T198857[ebp]
  010d1	52		 push	 edx
  010d2	8d 85 60 ff ff
	ff		 lea	 eax, DWORD PTR $T198858[ebp]
  010d8	50		 push	 eax
  010d9	8b 8d 44 ff ff
	ff		 mov	 ecx, DWORD PTR _this$[ebp]
  010df	e8 00 00 00 00	 call	 ?HLStoRGB@CGdiEx@@QAEKABN00@Z ; CGdiEx::HLStoRGB
  010e4	50		 push	 eax
  010e5	ff 15 00 00 00
	00		 call	 DWORD PTR __imp__CreateSolidBrush@4
  010eb	89 45 98	 mov	 DWORD PTR _hbrFill$197709[ebp], eax

; 563  : 					::FillRect( hdcMem, &rect, hbrFill );

  010ee	8b 4d 98	 mov	 ecx, DWORD PTR _hbrFill$197709[ebp]
  010f1	51		 push	 ecx
  010f2	8d 55 d4	 lea	 edx, DWORD PTR _rect$197708[ebp]
  010f5	52		 push	 edx
  010f6	8b 45 e8	 mov	 eax, DWORD PTR _hdcMem$197747[ebp]
  010f9	50		 push	 eax
  010fa	ff 15 00 00 00
	00		 call	 DWORD PTR __imp__FillRect@12

; 564  : 					::DeleteObject( hbrFill );

  01100	8b 4d 98	 mov	 ecx, DWORD PTR _hbrFill$197709[ebp]
  01103	51		 push	 ecx
  01104	ff 15 00 00 00
	00		 call	 DWORD PTR __imp__DeleteObject@4

; 565  : 
; 566  : 					rect.top = rect.bottom;

  0110a	8b 55 e0	 mov	 edx, DWORD PTR _rect$197708[ebp+12]
  0110d	89 55 d8	 mov	 DWORD PTR _rect$197708[ebp+4], edx

; 567  : 				}

  01110	e9 50 ff ff ff	 jmp	 $L197755
$L197756:

; 568  : 			}
; 569  : 			else

  01115	e9 f2 00 00 00	 jmp	 $L197762
$L197750:

; 570  : 			{
; 571  : 				rect.bottom = nHeight;

  0111a	8b 45 f8	 mov	 eax, DWORD PTR _nHeight$197705[ebp]
  0111d	89 45 e0	 mov	 DWORD PTR _rect$197708[ebp+12], eax

; 572  : 				fStep= (float)nWidth / (float)anStep;

  01120	db 45 fc	 fild	 DWORD PTR _nWidth$197704[ebp]
  01123	8b 4d 2c	 mov	 ecx, DWORD PTR _anStep$[ebp]
  01126	89 8d 1c ff ff
	ff		 mov	 DWORD PTR tv346[ebp], ecx
  0112c	c7 85 20 ff ff
	ff 00 00 00 00	 mov	 DWORD PTR tv346[ebp+4], 0
  01136	df ad 1c ff ff
	ff		 fild	 QWORD PTR tv346[ebp]
  0113c	de f9		 fdivp	 ST(1), ST(0)
  0113e	d9 5d a0	 fstp	 DWORD PTR _fStep$197707[ebp]

; 573  : 
; 574  : 				for ( int nCount=0; nCount<=anStep; nCount++ )

  01141	c7 85 7c ff ff
	ff 00 00 00 00	 mov	 DWORD PTR _nCount$197765[ebp], 0
  0114b	eb 0f		 jmp	 SHORT $L197766
$L197767:
  0114d	8b 95 7c ff ff
	ff		 mov	 edx, DWORD PTR _nCount$197765[ebp]
  01153	83 c2 01	 add	 edx, 1
  01156	89 95 7c ff ff
	ff		 mov	 DWORD PTR _nCount$197765[ebp], edx
$L197766:
  0115c	8b 85 7c ff ff
	ff		 mov	 eax, DWORD PTR _nCount$197765[ebp]
  01162	3b 45 2c	 cmp	 eax, DWORD PTR _anStep$[ebp]
  01165	0f 87 a1 00 00
	00		 ja	 $L197762

; 575  : 				{
; 576  : 					rect.right= (int)( (nCount+1) * fStep );

  0116b	8b 8d 7c ff ff
	ff		 mov	 ecx, DWORD PTR _nCount$197765[ebp]
  01171	83 c1 01	 add	 ecx, 1
  01174	89 8d 18 ff ff
	ff		 mov	 DWORD PTR tv352[ebp], ecx
  0117a	db 85 18 ff ff
	ff		 fild	 DWORD PTR tv352[ebp]
  01180	d8 4d a0	 fmul	 DWORD PTR _fStep$197707[ebp]
  01183	e8 00 00 00 00	 call	 __ftol2
  01188	89 45 dc	 mov	 DWORD PTR _rect$197708[ebp+8], eax

; 577  : 					hbrFill = ::CreateSolidBrush( HLStoRGB(lH1+fHStep*nCount/(float)(240) ,0.5,1.0 )  );

  0118b	dd 05 00 00 00
	00		 fld	 QWORD PTR __real@3ff0000000000000
  01191	dd 9d 58 ff ff
	ff		 fstp	 QWORD PTR $T198859[ebp]
  01197	dd 05 00 00 00
	00		 fld	 QWORD PTR __real@3fe0000000000000
  0119d	dd 9d 50 ff ff
	ff		 fstp	 QWORD PTR $T198860[ebp]
  011a3	db 85 7c ff ff
	ff		 fild	 DWORD PTR _nCount$197765[ebp]
  011a9	d8 4d 84	 fmul	 DWORD PTR _fHStep$197745[ebp]
  011ac	d8 35 00 00 00
	00		 fdiv	 DWORD PTR __real@43700000
  011b2	dc 45 88	 fadd	 QWORD PTR _lH1$197716[ebp]
  011b5	dd 9d 48 ff ff
	ff		 fstp	 QWORD PTR $T198861[ebp]
  011bb	8d 95 58 ff ff
	ff		 lea	 edx, DWORD PTR $T198859[ebp]
  011c1	52		 push	 edx
  011c2	8d 85 50 ff ff
	ff		 lea	 eax, DWORD PTR $T198860[ebp]
  011c8	50		 push	 eax
  011c9	8d 8d 48 ff ff
	ff		 lea	 ecx, DWORD PTR $T198861[ebp]
  011cf	51		 push	 ecx
  011d0	8b 8d 44 ff ff
	ff		 mov	 ecx, DWORD PTR _this$[ebp]
  011d6	e8 00 00 00 00	 call	 ?HLStoRGB@CGdiEx@@QAEKABN00@Z ; CGdiEx::HLStoRGB
  011db	50		 push	 eax
  011dc	ff 15 00 00 00
	00		 call	 DWORD PTR __imp__CreateSolidBrush@4
  011e2	89 45 98	 mov	 DWORD PTR _hbrFill$197709[ebp], eax

; 578  : 					::FillRect( hdcMem, &rect, hbrFill );

  011e5	8b 55 98	 mov	 edx, DWORD PTR _hbrFill$197709[ebp]
  011e8	52		 push	 edx
  011e9	8d 45 d4	 lea	 eax, DWORD PTR _rect$197708[ebp]
  011ec	50		 push	 eax
  011ed	8b 4d e8	 mov	 ecx, DWORD PTR _hdcMem$197747[ebp]
  011f0	51		 push	 ecx
  011f1	ff 15 00 00 00
	00		 call	 DWORD PTR __imp__FillRect@12

; 579  : 					::DeleteObject( hbrFill );

  011f7	8b 55 98	 mov	 edx, DWORD PTR _hbrFill$197709[ebp]
  011fa	52		 push	 edx
  011fb	ff 15 00 00 00
	00		 call	 DWORD PTR __imp__DeleteObject@4

; 580  : 
; 581  : 					rect.left = rect.right;

  01201	8b 45 dc	 mov	 eax, DWORD PTR _rect$197708[ebp+8]
  01204	89 45 d4	 mov	 DWORD PTR _rect$197708[ebp], eax

; 582  : 				}

  01207	e9 41 ff ff ff	 jmp	 $L197767
$L197762:

; 583  : 			}
; 584  : 
; 585  : 			::BitBlt( DC, aRect.left, aRect.top, nWidth, nHeight, hdcMem, 0, 0, SRCCOPY );

  0120c	68 20 00 cc 00	 push	 13369376		; 00cc0020H
  01211	6a 00		 push	 0
  01213	6a 00		 push	 0
  01215	8b 4d e8	 mov	 ecx, DWORD PTR _hdcMem$197747[ebp]
  01218	51		 push	 ecx
  01219	8b 55 f8	 mov	 edx, DWORD PTR _nHeight$197705[ebp]
  0121c	52		 push	 edx
  0121d	8b 45 fc	 mov	 eax, DWORD PTR _nWidth$197704[ebp]
  01220	50		 push	 eax
  01221	8b 4d 10	 mov	 ecx, DWORD PTR _aRect$[ebp+4]
  01224	51		 push	 ecx
  01225	8b 55 0c	 mov	 edx, DWORD PTR _aRect$[ebp]
  01228	52		 push	 edx
  01229	8b 45 08	 mov	 eax, DWORD PTR _DC$[ebp]
  0122c	50		 push	 eax
  0122d	ff 15 00 00 00
	00		 call	 DWORD PTR __imp__BitBlt@36

; 586  : 
; 587  : 			::SelectObject( hdcMem, hobjOld );

  01233	8b 4d f0	 mov	 ecx, DWORD PTR _hobjOld$197749[ebp]
  01236	51		 push	 ecx
  01237	8b 55 e8	 mov	 edx, DWORD PTR _hdcMem$197747[ebp]
  0123a	52		 push	 edx
  0123b	ff 15 00 00 00
	00		 call	 DWORD PTR __imp__SelectObject@8

; 588  : 			::DeleteObject( hbmpMem );

  01241	8b 45 ec	 mov	 eax, DWORD PTR _hbmpMem$197748[ebp]
  01244	50		 push	 eax
  01245	ff 15 00 00 00
	00		 call	 DWORD PTR __imp__DeleteObject@4

; 589  : 			::DeleteDC( hdcMem );

  0124b	8b 4d e8	 mov	 ecx, DWORD PTR _hdcMem$197747[ebp]
  0124e	51		 push	 ecx
  0124f	ff 15 00 00 00
	00		 call	 DWORD PTR __imp__DeleteDC@4
$L197701:

; 590  : 		}
; 591  : 	}
; 592  : }

  01255	8b e5		 mov	 esp, ebp
  01257	5d		 pop	 ebp
  01258	c2 28 00	 ret	 40			; 00000028H
?FillRectangleHue@CGdiEx@@UAEXPAUHDC__@@UtagRECT@@KKW4ENUM_DrawOrientation@@HI@Z ENDP ; CGdiEx::FillRectangleHue
_TEXT	ENDS
PUBLIC	__real@406fe00000000000
PUBLIC	__real@4000000000000000
PUBLIC	__real@0000000000000000
PUBLIC	__real@4010000000000000
PUBLIC	__real@4018000000000000
;	COMDAT __real@406fe00000000000
CONST	SEGMENT
__real@406fe00000000000 DQ 0406fe00000000000r	; 255
CONST	ENDS
;	COMDAT __real@4000000000000000
CONST	SEGMENT
__real@4000000000000000 DQ 04000000000000000r	; 2
CONST	ENDS
;	COMDAT __real@0000000000000000
CONST	SEGMENT
__real@0000000000000000 DQ 00000000000000000r	; 0
CONST	ENDS
;	COMDAT __real@4010000000000000
CONST	SEGMENT
__real@4010000000000000 DQ 04010000000000000r	; 4
CONST	ENDS
;	COMDAT __real@4018000000000000
CONST	SEGMENT
__real@4018000000000000 DQ 04018000000000000r	; 6
; Function compile flags: /Odt
CONST	ENDS
;	COMDAT ?RGBtoHSL@CGdiEx@@QAEXKPAN00@Z
_TEXT	SEGMENT
tv88 = -112						; size = 8
tv89 = -104						; size = 8
tv85 = -96						; size = 8
tv82 = -88						; size = 8
tv83 = -80						; size = 8
tv79 = -72						; size = 8
tv158 = -64						; size = 4
tv156 = -60						; size = 4
tv155 = -56						; size = 4
_this$ = -52						; size = 4
_delta$ = -48						; size = 8
_r$ = -40						; size = 8
_g$ = -32						; size = 8
_b$ = -24						; size = 8
_cmax$ = -16						; size = 8
_cmin$ = -8						; size = 8
_rgb$ = 8						; size = 4
_H$ = 12						; size = 4
_S$ = 16						; size = 4
_L$ = 20						; size = 4
?RGBtoHSL@CGdiEx@@QAEXKPAN00@Z PROC NEAR		; CGdiEx::RGBtoHSL, COMDAT
; _this$ = ecx

; 349  : {

  00000	55		 push	 ebp
  00001	8b ec		 mov	 ebp, esp
  00003	83 ec 70	 sub	 esp, 112		; 00000070H
  00006	89 4d cc	 mov	 DWORD PTR _this$[ebp], ecx

; 350  : 	double delta;
; 351  : 	double r = (double)GetRValue(rgb)/255;

  00009	0f b6 45 08	 movzx	 eax, BYTE PTR _rgb$[ebp]
  0000d	89 45 c8	 mov	 DWORD PTR tv155[ebp], eax
  00010	db 45 c8	 fild	 DWORD PTR tv155[ebp]
  00013	dc 35 00 00 00
	00		 fdiv	 QWORD PTR __real@406fe00000000000
  00019	dd 5d d8	 fstp	 QWORD PTR _r$[ebp]

; 352  : 	double g = (double)GetGValue(rgb)/255;

  0001c	0f b7 4d 08	 movzx	 ecx, WORD PTR _rgb$[ebp]
  00020	c1 f9 08	 sar	 ecx, 8
  00023	0f b6 d1	 movzx	 edx, cl
  00026	89 55 c4	 mov	 DWORD PTR tv156[ebp], edx
  00029	db 45 c4	 fild	 DWORD PTR tv156[ebp]
  0002c	dc 35 00 00 00
	00		 fdiv	 QWORD PTR __real@406fe00000000000
  00032	dd 5d e0	 fstp	 QWORD PTR _g$[ebp]

; 353  : 	double b = (double)GetBValue(rgb)/255;

  00035	8b 45 08	 mov	 eax, DWORD PTR _rgb$[ebp]
  00038	c1 e8 10	 shr	 eax, 16			; 00000010H
  0003b	0f b6 c8	 movzx	 ecx, al
  0003e	89 4d c0	 mov	 DWORD PTR tv158[ebp], ecx
  00041	db 45 c0	 fild	 DWORD PTR tv158[ebp]
  00044	dc 35 00 00 00
	00		 fdiv	 QWORD PTR __real@406fe00000000000
  0004a	dd 5d e8	 fstp	 QWORD PTR _b$[ebp]

; 354  : 	double cmax = max(r,max(g,b));

  0004d	dd 45 e0	 fld	 QWORD PTR _g$[ebp]
  00050	dc 5d e8	 fcomp	 QWORD PTR _b$[ebp]
  00053	df e0		 fnstsw	 ax
  00055	f6 c4 41	 test	 ah, 65			; 00000041H
  00058	75 08		 jne	 SHORT $L198869
  0005a	dd 45 e0	 fld	 QWORD PTR _g$[ebp]
  0005d	dd 5d b8	 fstp	 QWORD PTR tv79[ebp]
  00060	eb 06		 jmp	 SHORT $L198870
$L198869:
  00062	dd 45 e8	 fld	 QWORD PTR _b$[ebp]
  00065	dd 5d b8	 fstp	 QWORD PTR tv79[ebp]
$L198870:
  00068	dd 45 d8	 fld	 QWORD PTR _r$[ebp]
  0006b	dc 5d b8	 fcomp	 QWORD PTR tv79[ebp]
  0006e	df e0		 fnstsw	 ax
  00070	f6 c4 41	 test	 ah, 65			; 00000041H
  00073	75 08		 jne	 SHORT $L198873
  00075	dd 45 d8	 fld	 QWORD PTR _r$[ebp]
  00078	dd 5d b0	 fstp	 QWORD PTR tv83[ebp]
  0007b	eb 21		 jmp	 SHORT $L198874
$L198873:
  0007d	dd 45 e0	 fld	 QWORD PTR _g$[ebp]
  00080	dc 5d e8	 fcomp	 QWORD PTR _b$[ebp]
  00083	df e0		 fnstsw	 ax
  00085	f6 c4 41	 test	 ah, 65			; 00000041H
  00088	75 08		 jne	 SHORT $L198871
  0008a	dd 45 e0	 fld	 QWORD PTR _g$[ebp]
  0008d	dd 5d a8	 fstp	 QWORD PTR tv82[ebp]
  00090	eb 06		 jmp	 SHORT $L198872
$L198871:
  00092	dd 45 e8	 fld	 QWORD PTR _b$[ebp]
  00095	dd 5d a8	 fstp	 QWORD PTR tv82[ebp]
$L198872:
  00098	dd 45 a8	 fld	 QWORD PTR tv82[ebp]
  0009b	dd 5d b0	 fstp	 QWORD PTR tv83[ebp]
$L198874:
  0009e	dd 45 b0	 fld	 QWORD PTR tv83[ebp]
  000a1	dd 5d f0	 fstp	 QWORD PTR _cmax$[ebp]

; 355  : 	double cmin = min(r,min(g,b));

  000a4	dd 45 e0	 fld	 QWORD PTR _g$[ebp]
  000a7	dc 5d e8	 fcomp	 QWORD PTR _b$[ebp]
  000aa	df e0		 fnstsw	 ax
  000ac	f6 c4 05	 test	 ah, 5
  000af	7a 08		 jp	 SHORT $L198875
  000b1	dd 45 e0	 fld	 QWORD PTR _g$[ebp]
  000b4	dd 5d a0	 fstp	 QWORD PTR tv85[ebp]
  000b7	eb 06		 jmp	 SHORT $L198876
$L198875:
  000b9	dd 45 e8	 fld	 QWORD PTR _b$[ebp]
  000bc	dd 5d a0	 fstp	 QWORD PTR tv85[ebp]
$L198876:
  000bf	dd 45 d8	 fld	 QWORD PTR _r$[ebp]
  000c2	dc 5d a0	 fcomp	 QWORD PTR tv85[ebp]
  000c5	df e0		 fnstsw	 ax
  000c7	f6 c4 05	 test	 ah, 5
  000ca	7a 08		 jp	 SHORT $L198879
  000cc	dd 45 d8	 fld	 QWORD PTR _r$[ebp]
  000cf	dd 5d 98	 fstp	 QWORD PTR tv89[ebp]
  000d2	eb 21		 jmp	 SHORT $L198880
$L198879:
  000d4	dd 45 e0	 fld	 QWORD PTR _g$[ebp]
  000d7	dc 5d e8	 fcomp	 QWORD PTR _b$[ebp]
  000da	df e0		 fnstsw	 ax
  000dc	f6 c4 05	 test	 ah, 5
  000df	7a 08		 jp	 SHORT $L198877
  000e1	dd 45 e0	 fld	 QWORD PTR _g$[ebp]
  000e4	dd 5d 90	 fstp	 QWORD PTR tv88[ebp]
  000e7	eb 06		 jmp	 SHORT $L198878
$L198877:
  000e9	dd 45 e8	 fld	 QWORD PTR _b$[ebp]
  000ec	dd 5d 90	 fstp	 QWORD PTR tv88[ebp]
$L198878:
  000ef	dd 45 90	 fld	 QWORD PTR tv88[ebp]
  000f2	dd 5d 98	 fstp	 QWORD PTR tv89[ebp]
$L198880:
  000f5	dd 45 98	 fld	 QWORD PTR tv89[ebp]
  000f8	dd 5d f8	 fstp	 QWORD PTR _cmin$[ebp]

; 356  : 	*L = (cmax+cmin)/2.0;

  000fb	dd 45 f0	 fld	 QWORD PTR _cmax$[ebp]
  000fe	dc 45 f8	 fadd	 QWORD PTR _cmin$[ebp]
  00101	dc 35 00 00 00
	00		 fdiv	 QWORD PTR __real@4000000000000000
  00107	8b 55 14	 mov	 edx, DWORD PTR _L$[ebp]
  0010a	dd 1a		 fstp	 QWORD PTR [edx]

; 357  : 	if (cmax == cmin)

  0010c	dd 45 f8	 fld	 QWORD PTR _cmin$[ebp]
  0010f	dd 45 f0	 fld	 QWORD PTR _cmax$[ebp]
  00112	da e9		 fucompp
  00114	df e0		 fnstsw	 ax
  00116	f6 c4 44	 test	 ah, 68			; 00000044H
  00119	7a 1b		 jp	 SHORT $L197571

; 358  : 	{
; 359  : 		*S = 0;

  0011b	8b 45 10	 mov	 eax, DWORD PTR _S$[ebp]
  0011e	dd 05 00 00 00
	00		 fld	 QWORD PTR __real@0000000000000000
  00124	dd 18		 fstp	 QWORD PTR [eax]

; 360  : 		*H = 0; // it's really undefined

  00126	8b 4d 0c	 mov	 ecx, DWORD PTR _H$[ebp]
  00129	dd 05 00 00 00
	00		 fld	 QWORD PTR __real@0000000000000000
  0012f	dd 19		 fstp	 QWORD PTR [ecx]

; 361  : 	}
; 362  : 	else

  00131	e9 d3 00 00 00	 jmp	 $L197557
$L197571:

; 363  : 	{
; 364  : 		if (*L < 0.5)

  00136	8b 55 14	 mov	 edx, DWORD PTR _L$[ebp]
  00139	dd 02		 fld	 QWORD PTR [edx]
  0013b	dc 1d 00 00 00
	00		 fcomp	 QWORD PTR __real@3fe0000000000000
  00141	df e0		 fnstsw	 ax
  00143	f6 c4 05	 test	 ah, 5
  00146	7a 15		 jp	 SHORT $L197573

; 365  : 			*S = (cmax-cmin)/(cmax+cmin);

  00148	dd 45 f0	 fld	 QWORD PTR _cmax$[ebp]
  0014b	dc 65 f8	 fsub	 QWORD PTR _cmin$[ebp]
  0014e	dd 45 f0	 fld	 QWORD PTR _cmax$[ebp]
  00151	dc 45 f8	 fadd	 QWORD PTR _cmin$[ebp]
  00154	de f9		 fdivp	 ST(1), ST(0)
  00156	8b 45 10	 mov	 eax, DWORD PTR _S$[ebp]
  00159	dd 18		 fstp	 QWORD PTR [eax]

; 366  : 		else

  0015b	eb 19		 jmp	 SHORT $L197574
$L197573:

; 367  : 			*S = (cmax-cmin)/(2.0-cmax-cmin);

  0015d	dd 45 f0	 fld	 QWORD PTR _cmax$[ebp]
  00160	dc 65 f8	 fsub	 QWORD PTR _cmin$[ebp]
  00163	dd 05 00 00 00
	00		 fld	 QWORD PTR __real@4000000000000000
  00169	dc 65 f0	 fsub	 QWORD PTR _cmax$[ebp]
  0016c	dc 65 f8	 fsub	 QWORD PTR _cmin$[ebp]
  0016f	de f9		 fdivp	 ST(1), ST(0)
  00171	8b 4d 10	 mov	 ecx, DWORD PTR _S$[ebp]
  00174	dd 19		 fstp	 QWORD PTR [ecx]
$L197574:

; 368  : 		delta = cmax - cmin;

  00176	dd 45 f0	 fld	 QWORD PTR _cmax$[ebp]
  00179	dc 65 f8	 fsub	 QWORD PTR _cmin$[ebp]
  0017c	dd 5d d0	 fstp	 QWORD PTR _delta$[ebp]

; 369  : 		if (r==cmax)

  0017f	dd 45 f0	 fld	 QWORD PTR _cmax$[ebp]
  00182	dd 45 d8	 fld	 QWORD PTR _r$[ebp]
  00185	da e9		 fucompp
  00187	df e0		 fnstsw	 ax
  00189	f6 c4 44	 test	 ah, 68			; 00000044H
  0018c	7a 10		 jp	 SHORT $L197575

; 370  : 			*H = (g-b)/delta;

  0018e	dd 45 e0	 fld	 QWORD PTR _g$[ebp]
  00191	dc 65 e8	 fsub	 QWORD PTR _b$[ebp]
  00194	dc 75 d0	 fdiv	 QWORD PTR _delta$[ebp]
  00197	8b 55 0c	 mov	 edx, DWORD PTR _H$[ebp]
  0019a	dd 1a		 fstp	 QWORD PTR [edx]

; 371  : 		else if (g==cmax)

  0019c	eb 39		 jmp	 SHORT $L197576
$L197575:
  0019e	dd 45 f0	 fld	 QWORD PTR _cmax$[ebp]
  001a1	dd 45 e0	 fld	 QWORD PTR _g$[ebp]
  001a4	da e9		 fucompp
  001a6	df e0		 fnstsw	 ax
  001a8	f6 c4 44	 test	 ah, 68			; 00000044H
  001ab	7a 16		 jp	 SHORT $L197577

; 372  : 			*H = 2.0 +(b-r)/delta;

  001ad	dd 45 e8	 fld	 QWORD PTR _b$[ebp]
  001b0	dc 65 d8	 fsub	 QWORD PTR _r$[ebp]
  001b3	dc 75 d0	 fdiv	 QWORD PTR _delta$[ebp]
  001b6	dc 05 00 00 00
	00		 fadd	 QWORD PTR __real@4000000000000000
  001bc	8b 45 0c	 mov	 eax, DWORD PTR _H$[ebp]
  001bf	dd 18		 fstp	 QWORD PTR [eax]

; 373  : 		else

  001c1	eb 14		 jmp	 SHORT $L197576
$L197577:

; 374  : 			*H = 4.0+(r-g)/delta;

  001c3	dd 45 d8	 fld	 QWORD PTR _r$[ebp]
  001c6	dc 65 e0	 fsub	 QWORD PTR _g$[ebp]
  001c9	dc 75 d0	 fdiv	 QWORD PTR _delta$[ebp]
  001cc	dc 05 00 00 00
	00		 fadd	 QWORD PTR __real@4010000000000000
  001d2	8b 4d 0c	 mov	 ecx, DWORD PTR _H$[ebp]
  001d5	dd 19		 fstp	 QWORD PTR [ecx]
$L197576:

; 375  : 		*H /= 6.0;

  001d7	8b 55 0c	 mov	 edx, DWORD PTR _H$[ebp]
  001da	dd 02		 fld	 QWORD PTR [edx]
  001dc	dc 35 00 00 00
	00		 fdiv	 QWORD PTR __real@4018000000000000
  001e2	8b 45 0c	 mov	 eax, DWORD PTR _H$[ebp]
  001e5	dd 18		 fstp	 QWORD PTR [eax]

; 376  : 		if (*H < 0.0)

  001e7	8b 4d 0c	 mov	 ecx, DWORD PTR _H$[ebp]
  001ea	dd 01		 fld	 QWORD PTR [ecx]
  001ec	dc 1d 00 00 00
	00		 fcomp	 QWORD PTR __real@0000000000000000
  001f2	df e0		 fnstsw	 ax
  001f4	f6 c4 05	 test	 ah, 5
  001f7	7a 10		 jp	 SHORT $L197557

; 377  : 			*H += 1;

  001f9	8b 55 0c	 mov	 edx, DWORD PTR _H$[ebp]
  001fc	dd 02		 fld	 QWORD PTR [edx]
  001fe	dc 05 00 00 00
	00		 fadd	 QWORD PTR __real@3ff0000000000000
  00204	8b 45 0c	 mov	 eax, DWORD PTR _H$[ebp]
  00207	dd 18		 fstp	 QWORD PTR [eax]
$L197557:

; 378  : 	}
; 379  : }

  00209	8b e5		 mov	 esp, ebp
  0020b	5d		 pop	 ebp
  0020c	c2 10 00	 ret	 16			; 00000010H
?RGBtoHSL@CGdiEx@@QAEXKPAN00@Z ENDP			; CGdiEx::RGBtoHSL
_TEXT	ENDS
PUBLIC	?HuetoRGB@CGdiEx@@QAENNNN@Z			; CGdiEx::HuetoRGB
PUBLIC	__real@3fd5555555555555
;	COMDAT __real@3fd5555555555555
CONST	SEGMENT
__real@3fd5555555555555 DQ 03fd5555555555555r	; 0.333333
; Function compile flags: /Odt
CONST	ENDS
;	COMDAT ?HLStoRGB@CGdiEx@@QAEKABN00@Z
_TEXT	SEGMENT
_this$ = -44						; size = 4
_r$ = -40						; size = 8
_m2$ = -32						; size = 8
_g$ = -24						; size = 8
_b$ = -16						; size = 8
_m1$ = -8						; size = 8
_H$ = 8							; size = 4
_L$ = 12						; size = 4
_S$ = 16						; size = 4
?HLStoRGB@CGdiEx@@QAEKABN00@Z PROC NEAR			; CGdiEx::HLStoRGB, COMDAT
; _this$ = ecx

; 381  : {

  00000	55		 push	 ebp
  00001	8b ec		 mov	 ebp, esp
  00003	83 ec 2c	 sub	 esp, 44			; 0000002cH
  00006	56		 push	 esi
  00007	89 4d d4	 mov	 DWORD PTR _this$[ebp], ecx

; 382  : 	double r,g,b;
; 383  : 	double m1, m2;
; 384  : 
; 385  : 	if (S==0)

  0000a	8b 45 10	 mov	 eax, DWORD PTR _S$[ebp]
  0000d	dd 05 00 00 00
	00		 fld	 QWORD PTR __real@0000000000000000
  00013	dd 00		 fld	 QWORD PTR [eax]
  00015	da e9		 fucompp
  00017	df e0		 fnstsw	 ax
  00019	f6 c4 44	 test	 ah, 68			; 00000044H
  0001c	7a 13		 jp	 SHORT $L197591

; 386  : 	{
; 387  : 		r=g=b=L;

  0001e	8b 4d 0c	 mov	 ecx, DWORD PTR _L$[ebp]
  00021	dd 01		 fld	 QWORD PTR [ecx]
  00023	dd 55 f0	 fst	 QWORD PTR _b$[ebp]
  00026	dd 55 e8	 fst	 QWORD PTR _g$[ebp]
  00029	dd 5d d8	 fstp	 QWORD PTR _r$[ebp]

; 388  : 	}
; 389  : 	else

  0002c	e9 d5 00 00 00	 jmp	 $L197592
$L197591:

; 390  : 	{
; 391  : 		if (L <= 0.5)

  00031	8b 55 0c	 mov	 edx, DWORD PTR _L$[ebp]
  00034	dd 02		 fld	 QWORD PTR [edx]
  00036	dc 1d 00 00 00
	00		 fcomp	 QWORD PTR __real@3fe0000000000000
  0003c	df e0		 fnstsw	 ax
  0003e	f6 c4 41	 test	 ah, 65			; 00000041H
  00041	7a 15		 jp	 SHORT $L197593

; 392  : 			m2 = L*(1.0+S);

  00043	8b 45 10	 mov	 eax, DWORD PTR _S$[ebp]
  00046	dd 05 00 00 00
	00		 fld	 QWORD PTR __real@3ff0000000000000
  0004c	dc 00		 fadd	 QWORD PTR [eax]
  0004e	8b 4d 0c	 mov	 ecx, DWORD PTR _L$[ebp]
  00051	dc 09		 fmul	 QWORD PTR [ecx]
  00053	dd 5d e0	 fstp	 QWORD PTR _m2$[ebp]

; 393  : 		else

  00056	eb 19		 jmp	 SHORT $L197594
$L197593:

; 394  : 			m2 = L+S-L*S;

  00058	8b 55 0c	 mov	 edx, DWORD PTR _L$[ebp]
  0005b	8b 45 10	 mov	 eax, DWORD PTR _S$[ebp]
  0005e	dd 02		 fld	 QWORD PTR [edx]
  00060	dc 00		 fadd	 QWORD PTR [eax]
  00062	8b 4d 0c	 mov	 ecx, DWORD PTR _L$[ebp]
  00065	8b 55 10	 mov	 edx, DWORD PTR _S$[ebp]
  00068	dd 01		 fld	 QWORD PTR [ecx]
  0006a	dc 0a		 fmul	 QWORD PTR [edx]
  0006c	de e9		 fsubp	 ST(1), ST(0)
  0006e	dd 5d e0	 fstp	 QWORD PTR _m2$[ebp]
$L197594:

; 395  : 		m1 = 2.0*L-m2;

  00071	8b 45 0c	 mov	 eax, DWORD PTR _L$[ebp]
  00074	dd 05 00 00 00
	00		 fld	 QWORD PTR __real@4000000000000000
  0007a	dc 08		 fmul	 QWORD PTR [eax]
  0007c	dc 65 e0	 fsub	 QWORD PTR _m2$[ebp]
  0007f	dd 5d f8	 fstp	 QWORD PTR _m1$[ebp]

; 396  : 		r = HuetoRGB(m1, m2, H+1.0/3.0);

  00082	8b 4d 08	 mov	 ecx, DWORD PTR _H$[ebp]
  00085	dd 01		 fld	 QWORD PTR [ecx]
  00087	dc 05 00 00 00
	00		 fadd	 QWORD PTR __real@3fd5555555555555
  0008d	83 ec 08	 sub	 esp, 8
  00090	dd 1c 24	 fstp	 QWORD PTR [esp]
  00093	dd 45 e0	 fld	 QWORD PTR _m2$[ebp]
  00096	83 ec 08	 sub	 esp, 8
  00099	dd 1c 24	 fstp	 QWORD PTR [esp]
  0009c	dd 45 f8	 fld	 QWORD PTR _m1$[ebp]
  0009f	83 ec 08	 sub	 esp, 8
  000a2	dd 1c 24	 fstp	 QWORD PTR [esp]
  000a5	8b 4d d4	 mov	 ecx, DWORD PTR _this$[ebp]
  000a8	e8 00 00 00 00	 call	 ?HuetoRGB@CGdiEx@@QAENNNN@Z ; CGdiEx::HuetoRGB
  000ad	dd 5d d8	 fstp	 QWORD PTR _r$[ebp]

; 397  : 		g = HuetoRGB(m1, m2, H);

  000b0	8b 55 08	 mov	 edx, DWORD PTR _H$[ebp]
  000b3	dd 02		 fld	 QWORD PTR [edx]
  000b5	83 ec 08	 sub	 esp, 8
  000b8	dd 1c 24	 fstp	 QWORD PTR [esp]
  000bb	dd 45 e0	 fld	 QWORD PTR _m2$[ebp]
  000be	83 ec 08	 sub	 esp, 8
  000c1	dd 1c 24	 fstp	 QWORD PTR [esp]
  000c4	dd 45 f8	 fld	 QWORD PTR _m1$[ebp]
  000c7	83 ec 08	 sub	 esp, 8
  000ca	dd 1c 24	 fstp	 QWORD PTR [esp]
  000cd	8b 4d d4	 mov	 ecx, DWORD PTR _this$[ebp]
  000d0	e8 00 00 00 00	 call	 ?HuetoRGB@CGdiEx@@QAENNNN@Z ; CGdiEx::HuetoRGB
  000d5	dd 5d e8	 fstp	 QWORD PTR _g$[ebp]

; 398  : 		b = HuetoRGB(m1, m2, H-1.0/3.0);

  000d8	8b 45 08	 mov	 eax, DWORD PTR _H$[ebp]
  000db	dd 00		 fld	 QWORD PTR [eax]
  000dd	dc 25 00 00 00
	00		 fsub	 QWORD PTR __real@3fd5555555555555
  000e3	83 ec 08	 sub	 esp, 8
  000e6	dd 1c 24	 fstp	 QWORD PTR [esp]
  000e9	dd 45 e0	 fld	 QWORD PTR _m2$[ebp]
  000ec	83 ec 08	 sub	 esp, 8
  000ef	dd 1c 24	 fstp	 QWORD PTR [esp]
  000f2	dd 45 f8	 fld	 QWORD PTR _m1$[ebp]
  000f5	83 ec 08	 sub	 esp, 8
  000f8	dd 1c 24	 fstp	 QWORD PTR [esp]
  000fb	8b 4d d4	 mov	 ecx, DWORD PTR _this$[ebp]
  000fe	e8 00 00 00 00	 call	 ?HuetoRGB@CGdiEx@@QAENNNN@Z ; CGdiEx::HuetoRGB
  00103	dd 5d f0	 fstp	 QWORD PTR _b$[ebp]
$L197592:

; 399  : 	}
; 400  : 	return RGB((BYTE)(r*255),(BYTE)(g*255),(BYTE)(b*255));

  00106	dd 45 d8	 fld	 QWORD PTR _r$[ebp]
  00109	dc 0d 00 00 00
	00		 fmul	 QWORD PTR __real@406fe00000000000
  0010f	e8 00 00 00 00	 call	 __ftol2
  00114	0f b6 f0	 movzx	 esi, al
  00117	dd 45 e8	 fld	 QWORD PTR _g$[ebp]
  0011a	dc 0d 00 00 00
	00		 fmul	 QWORD PTR __real@406fe00000000000
  00120	e8 00 00 00 00	 call	 __ftol2
  00125	0f b6 c8	 movzx	 ecx, al
  00128	c1 e1 08	 shl	 ecx, 8
  0012b	0b f1		 or	 esi, ecx
  0012d	dd 45 f0	 fld	 QWORD PTR _b$[ebp]
  00130	dc 0d 00 00 00
	00		 fmul	 QWORD PTR __real@406fe00000000000
  00136	e8 00 00 00 00	 call	 __ftol2
  0013b	0f b6 d0	 movzx	 edx, al
  0013e	c1 e2 10	 shl	 edx, 16			; 00000010H
  00141	0b f2		 or	 esi, edx
  00143	8b c6		 mov	 eax, esi

; 401  : }

  00145	5e		 pop	 esi
  00146	8b e5		 mov	 esp, ebp
  00148	5d		 pop	 ebp
  00149	c2 0c 00	 ret	 12			; 0000000cH
?HLStoRGB@CGdiEx@@QAEKABN00@Z ENDP			; CGdiEx::HLStoRGB
_TEXT	ENDS
PUBLIC	__real@4008000000000000
PUBLIC	__real@3fe5555555555555
;	COMDAT __real@4008000000000000
CONST	SEGMENT
__real@4008000000000000 DQ 04008000000000000r	; 3
CONST	ENDS
;	COMDAT __real@3fe5555555555555
CONST	SEGMENT
__real@3fe5555555555555 DQ 03fe5555555555555r	; 0.666667
; Function compile flags: /Odt
CONST	ENDS
;	COMDAT ?HuetoRGB@CGdiEx@@QAENNNN@Z
_TEXT	SEGMENT
_this$ = -4						; size = 4
_m1$ = 8						; size = 8
_m2$ = 16						; size = 8
_h$ = 24						; size = 8
?HuetoRGB@CGdiEx@@QAENNNN@Z PROC NEAR			; CGdiEx::HuetoRGB, COMDAT
; _this$ = ecx

; 405  : {

  00000	55		 push	 ebp
  00001	8b ec		 mov	 ebp, esp
  00003	51		 push	 ecx
  00004	89 4d fc	 mov	 DWORD PTR _this$[ebp], ecx

; 406  : 	if (h < 0)

  00007	dd 45 18	 fld	 QWORD PTR _h$[ebp]
  0000a	dc 1d 00 00 00
	00		 fcomp	 QWORD PTR __real@0000000000000000
  00010	df e0		 fnstsw	 ax
  00012	f6 c4 05	 test	 ah, 5
  00015	7a 0e		 jp	 SHORT $L197610

; 407  : 		h += 1.0;

  00017	dd 45 18	 fld	 QWORD PTR _h$[ebp]
  0001a	dc 05 00 00 00
	00		 fadd	 QWORD PTR __real@3ff0000000000000
  00020	dd 5d 18	 fstp	 QWORD PTR _h$[ebp]

; 408  : 	else if (h > 1)

  00023	eb 1c		 jmp	 SHORT $L197611
$L197610:
  00025	dd 45 18	 fld	 QWORD PTR _h$[ebp]
  00028	dc 1d 00 00 00
	00		 fcomp	 QWORD PTR __real@3ff0000000000000
  0002e	df e0		 fnstsw	 ax
  00030	f6 c4 41	 test	 ah, 65			; 00000041H
  00033	75 0c		 jne	 SHORT $L197611

; 409  : 		h -= 1.0;

  00035	dd 45 18	 fld	 QWORD PTR _h$[ebp]
  00038	dc 25 00 00 00
	00		 fsub	 QWORD PTR __real@3ff0000000000000
  0003e	dd 5d 18	 fstp	 QWORD PTR _h$[ebp]
$L197611:

; 410  : 
; 411  : 	if (6.0*h < 1)

  00041	dd 05 00 00 00
	00		 fld	 QWORD PTR __real@4018000000000000
  00047	dc 4d 18	 fmul	 QWORD PTR _h$[ebp]
  0004a	dc 1d 00 00 00
	00		 fcomp	 QWORD PTR __real@3ff0000000000000
  00050	df e0		 fnstsw	 ax
  00052	f6 c4 05	 test	 ah, 5
  00055	7a 14		 jp	 SHORT $L197613

; 412  : 		return (m1+(m2-m1)*h*6.0);

  00057	dd 45 10	 fld	 QWORD PTR _m2$[ebp]
  0005a	dc 65 08	 fsub	 QWORD PTR _m1$[ebp]
  0005d	dc 4d 18	 fmul	 QWORD PTR _h$[ebp]
  00060	dc 0d 00 00 00
	00		 fmul	 QWORD PTR __real@4018000000000000
  00066	dc 45 08	 fadd	 QWORD PTR _m1$[ebp]
  00069	eb 50		 jmp	 SHORT $L197609
$L197613:

; 413  : 	else if (2.0*h < 1)

  0006b	dd 05 00 00 00
	00		 fld	 QWORD PTR __real@4000000000000000
  00071	dc 4d 18	 fmul	 QWORD PTR _h$[ebp]
  00074	dc 1d 00 00 00
	00		 fcomp	 QWORD PTR __real@3ff0000000000000
  0007a	df e0		 fnstsw	 ax
  0007c	f6 c4 05	 test	 ah, 5
  0007f	7a 05		 jp	 SHORT $L197615

; 414  : 		return m2;

  00081	dd 45 10	 fld	 QWORD PTR _m2$[ebp]
  00084	eb 35		 jmp	 SHORT $L197609
$L197615:

; 415  : 	else if (3.0*h < 2.0)

  00086	dd 05 00 00 00
	00		 fld	 QWORD PTR __real@4008000000000000
  0008c	dc 4d 18	 fmul	 QWORD PTR _h$[ebp]
  0008f	dc 1d 00 00 00
	00		 fcomp	 QWORD PTR __real@4000000000000000
  00095	df e0		 fnstsw	 ax
  00097	f6 c4 05	 test	 ah, 5
  0009a	7a 1c		 jp	 SHORT $L197614

; 416  : 		return (m1+(m2-m1)*((2.0/3.0)-h)*6.0);

  0009c	dd 45 10	 fld	 QWORD PTR _m2$[ebp]
  0009f	dc 65 08	 fsub	 QWORD PTR _m1$[ebp]
  000a2	dd 05 00 00 00
	00		 fld	 QWORD PTR __real@3fe5555555555555
  000a8	dc 65 18	 fsub	 QWORD PTR _h$[ebp]
  000ab	de c9		 fmulp	 ST(1), ST(0)
  000ad	dc 0d 00 00 00
	00		 fmul	 QWORD PTR __real@4018000000000000
  000b3	dc 45 08	 fadd	 QWORD PTR _m1$[ebp]
  000b6	eb 03		 jmp	 SHORT $L197609
$L197614:

; 417  : 	return m1;

  000b8	dd 45 08	 fld	 QWORD PTR _m1$[ebp]
$L197609:

; 418  : }

  000bb	8b e5		 mov	 esp, ebp
  000bd	5d		 pop	 ebp
  000be	c2 18 00	 ret	 24			; 00000018H
?HuetoRGB@CGdiEx@@QAENNNN@Z ENDP			; CGdiEx::HuetoRGB
_TEXT	ENDS
PUBLIC	?InterlockedExchangePointer@@YGPAXPAPAXPAX@Z	; InterlockedExchangePointer
PUBLIC	?_AtlGetThreadACPFake@ATL@@YGIXZ		; ATL::_AtlGetThreadACPFake
PUBLIC	?_AtlGetThreadACPReal@ATL@@YGIXZ		; ATL::_AtlGetThreadACPReal
EXTRN	___security_cookie:DWORD
EXTRN	@__security_check_cookie@4:NEAR
EXTRN	__imp__GetVersionExA@4:NEAR
; Function compile flags: /Odt
; File d:\program files (x86)\microsoft visual studio .net 2003\vc7\atlmfc\include\atlconv.h
;	COMDAT ?_AtlGetThreadACPThunk@ATL@@YGIXZ
_TEXT	SEGMENT
_pfnGetThreadACP$ = -164				; size = 4
_ver$ = -160						; size = 148
__$ArrayPad$ = -4					; size = 4
__$ReturnAddr$ = 4					; size = 4
?_AtlGetThreadACPThunk@ATL@@YGIXZ PROC NEAR		; ATL::_AtlGetThreadACPThunk, COMDAT

; 134  : {

  00000	55		 push	 ebp
  00001	8b ec		 mov	 ebp, esp
  00003	81 ec a4 00 00
	00		 sub	 esp, 164		; 000000a4H
  00009	a1 00 00 00 00	 mov	 eax, DWORD PTR ___security_cookie
  0000e	89 45 fc	 mov	 DWORD PTR __$ArrayPad$[ebp], eax

; 135  : 	OSVERSIONINFO ver;
; 136  : 	ATLGETTHREADACP pfnGetThreadACP;
; 137  : 
; 138  : 	ver.dwOSVersionInfoSize = sizeof( ver );

  00011	c7 85 60 ff ff
	ff 94 00 00 00	 mov	 DWORD PTR _ver$[ebp], 148 ; 00000094H

; 139  : 	::GetVersionEx( &ver );

  0001b	8d 85 60 ff ff
	ff		 lea	 eax, DWORD PTR _ver$[ebp]
  00021	50		 push	 eax
  00022	ff 15 00 00 00
	00		 call	 DWORD PTR __imp__GetVersionExA@4

; 140  : 	if( (ver.dwPlatformId == VER_PLATFORM_WIN32_NT) && (ver.dwMajorVersion >= 5) )

  00028	83 bd 70 ff ff
	ff 02		 cmp	 DWORD PTR _ver$[ebp+16], 2
  0002f	75 15		 jne	 SHORT $L24173
  00031	83 bd 64 ff ff
	ff 05		 cmp	 DWORD PTR _ver$[ebp+4], 5
  00038	72 0c		 jb	 SHORT $L24173

; 141  : 	{
; 142  : 		// On Win2K, CP_THREAD_ACP is supported
; 143  : 		pfnGetThreadACP = _AtlGetThreadACPReal;

  0003a	c7 85 5c ff ff
	ff 00 00 00 00	 mov	 DWORD PTR _pfnGetThreadACP$[ebp], OFFSET FLAT:?_AtlGetThreadACPReal@ATL@@YGIXZ ; ATL::_AtlGetThreadACPReal

; 144  : 	}
; 145  : 	else

  00044	eb 0a		 jmp	 SHORT $L24174
$L24173:

; 146  : 	{
; 147  : 		pfnGetThreadACP = _AtlGetThreadACPFake;

  00046	c7 85 5c ff ff
	ff 00 00 00 00	 mov	 DWORD PTR _pfnGetThreadACP$[ebp], OFFSET FLAT:?_AtlGetThreadACPFake@ATL@@YGIXZ ; ATL::_AtlGetThreadACPFake
$L24174:

; 148  : 	}
; 149  : 	InterlockedExchangePointer( reinterpret_cast< void** >(&g_pfnGetThreadACP), pfnGetThreadACP );

  00050	8b 8d 5c ff ff
	ff		 mov	 ecx, DWORD PTR _pfnGetThreadACP$[ebp]
  00056	51		 push	 ecx
  00057	68 00 00 00 00	 push	 OFFSET FLAT:?g_pfnGetThreadACP@ATL@@3P6GIXZA ; ATL::g_pfnGetThreadACP
  0005c	e8 00 00 00 00	 call	 ?InterlockedExchangePointer@@YGPAXPAPAXPAX@Z ; InterlockedExchangePointer

; 150  : 
; 151  : 	return( g_pfnGetThreadACP() );

  00061	ff 15 00 00 00
	00		 call	 DWORD PTR ?g_pfnGetThreadACP@ATL@@3P6GIXZA ; ATL::g_pfnGetThreadACP

; 152  : }

  00067	8b 4d fc	 mov	 ecx, DWORD PTR __$ArrayPad$[ebp]
  0006a	e8 00 00 00 00	 call	 @__security_check_cookie@4
  0006f	8b e5		 mov	 esp, ebp
  00071	5d		 pop	 ebp
  00072	c3		 ret	 0
?_AtlGetThreadACPThunk@ATL@@YGIXZ ENDP			; ATL::_AtlGetThreadACPThunk
_TEXT	ENDS
EXTRN	__imp__InterlockedExchange@8:NEAR
; Function compile flags: /Odt
;	COMDAT ?InterlockedExchangePointer@@YGPAXPAPAXPAX@Z
_TEXT	SEGMENT
_pp$ = 8						; size = 4
_pNew$ = 12						; size = 4
?InterlockedExchangePointer@@YGPAXPAPAXPAX@Z PROC NEAR	; InterlockedExchangePointer, COMDAT

; 91   : {

  00000	55		 push	 ebp
  00001	8b ec		 mov	 ebp, esp

; 92   : 	return( reinterpret_cast<void*>(static_cast<LONG_PTR>(::InterlockedExchange(reinterpret_cast<LONG*>(pp), static_cast<LONG>(reinterpret_cast<LONG_PTR>(pNew))))) );

  00003	8b 45 0c	 mov	 eax, DWORD PTR _pNew$[ebp]
  00006	50		 push	 eax
  00007	8b 4d 08	 mov	 ecx, DWORD PTR _pp$[ebp]
  0000a	51		 push	 ecx
  0000b	ff 15 00 00 00
	00		 call	 DWORD PTR __imp__InterlockedExchange@8

; 93   : }

  00011	5d		 pop	 ebp
  00012	c2 08 00	 ret	 8
?InterlockedExchangePointer@@YGPAXPAPAXPAX@Z ENDP	; InterlockedExchangePointer
_TEXT	ENDS
EXTRN	__imp__GetACP@0:NEAR
EXTRN	__imp__GetLocaleInfoA@16:NEAR
EXTRN	__imp__GetThreadLocale@0:NEAR
; Function compile flags: /Odt
;	COMDAT ?_AtlGetThreadACPFake@ATL@@YGIXZ
_TEXT	SEGMENT
_pch$24161 = -24					; size = 4
_lcidThread$ = -20					; size = 4
_szACP$ = -16						; size = 7
__$ArrayPad$ = -8					; size = 4
_nACP$ = -4						; size = 4
__$ReturnAddr$ = 4					; size = 4
?_AtlGetThreadACPFake@ATL@@YGIXZ PROC NEAR		; ATL::_AtlGetThreadACPFake, COMDAT

; 101  : {

  00000	55		 push	 ebp
  00001	8b ec		 mov	 ebp, esp
  00003	83 ec 18	 sub	 esp, 24			; 00000018H
  00006	a1 00 00 00 00	 mov	 eax, DWORD PTR ___security_cookie
  0000b	89 45 f8	 mov	 DWORD PTR __$ArrayPad$[ebp], eax

; 102  : 	UINT nACP = 0;

  0000e	c7 45 fc 00 00
	00 00		 mov	 DWORD PTR _nACP$[ebp], 0

; 103  : 
; 104  : 	LCID lcidThread = ::GetThreadLocale();

  00015	ff 15 00 00 00
	00		 call	 DWORD PTR __imp__GetThreadLocale@0
  0001b	89 45 ec	 mov	 DWORD PTR _lcidThread$[ebp], eax

; 105  : 
; 106  : 	char szACP[7];
; 107  : 	// GetLocaleInfoA will fail for a Unicode-only LCID, but those are only supported on 
; 108  : 	// Windows 2000.  Since Windows 2000 supports CP_THREAD_ACP, this code path is never
; 109  : 	// executed on Windows 2000.
; 110  : 	if (::GetLocaleInfoA(lcidThread, LOCALE_IDEFAULTANSICODEPAGE, szACP, 7) != 0)

  0001e	6a 07		 push	 7
  00020	8d 45 f0	 lea	 eax, DWORD PTR _szACP$[ebp]
  00023	50		 push	 eax
  00024	68 04 10 00 00	 push	 4100			; 00001004H
  00029	8b 4d ec	 mov	 ecx, DWORD PTR _lcidThread$[ebp]
  0002c	51		 push	 ecx
  0002d	ff 15 00 00 00
	00		 call	 DWORD PTR __imp__GetLocaleInfoA@16
  00033	85 c0		 test	 eax, eax
  00035	74 34		 je	 SHORT $L24160

; 111  : 	{
; 112  : 		char* pch = szACP;

  00037	8d 55 f0	 lea	 edx, DWORD PTR _szACP$[ebp]
  0003a	89 55 e8	 mov	 DWORD PTR _pch$24161[ebp], edx
$L24163:

; 113  : 		while (*pch != '\0')

  0003d	8b 45 e8	 mov	 eax, DWORD PTR _pch$24161[ebp]
  00040	0f be 08	 movsx	 ecx, BYTE PTR [eax]
  00043	85 c9		 test	 ecx, ecx
  00045	74 24		 je	 SHORT $L24160

; 114  : 		{
; 115  : 			nACP *= 10;

  00047	8b 55 fc	 mov	 edx, DWORD PTR _nACP$[ebp]
  0004a	6b d2 0a	 imul	 edx, 10			; 0000000aH
  0004d	89 55 fc	 mov	 DWORD PTR _nACP$[ebp], edx

; 116  : 			nACP += *pch++ - '0';

  00050	8b 45 e8	 mov	 eax, DWORD PTR _pch$24161[ebp]
  00053	0f be 08	 movsx	 ecx, BYTE PTR [eax]
  00056	8b 55 fc	 mov	 edx, DWORD PTR _nACP$[ebp]
  00059	8d 44 0a d0	 lea	 eax, DWORD PTR [edx+ecx-48]
  0005d	89 45 fc	 mov	 DWORD PTR _nACP$[ebp], eax
  00060	8b 4d e8	 mov	 ecx, DWORD PTR _pch$24161[ebp]
  00063	83 c1 01	 add	 ecx, 1
  00066	89 4d e8	 mov	 DWORD PTR _pch$24161[ebp], ecx

; 117  : 		}

  00069	eb d2		 jmp	 SHORT $L24163
$L24160:

; 118  : 	}
; 119  : 	// Use the Default ANSI Code Page if we were unable to get the thread ACP or if one does not exist.
; 120  : 	if (nACP == 0)

  0006b	83 7d fc 00	 cmp	 DWORD PTR _nACP$[ebp], 0
  0006f	75 09		 jne	 SHORT $L24165

; 121  : 		nACP = ::GetACP();

  00071	ff 15 00 00 00
	00		 call	 DWORD PTR __imp__GetACP@0
  00077	89 45 fc	 mov	 DWORD PTR _nACP$[ebp], eax
$L24165:

; 122  : 
; 123  : 	return nACP;

  0007a	8b 45 fc	 mov	 eax, DWORD PTR _nACP$[ebp]

; 124  : }

  0007d	8b 4d f8	 mov	 ecx, DWORD PTR __$ArrayPad$[ebp]
  00080	e8 00 00 00 00	 call	 @__security_check_cookie@4
  00085	8b e5		 mov	 esp, ebp
  00087	5d		 pop	 ebp
  00088	c3		 ret	 0
?_AtlGetThreadACPFake@ATL@@YGIXZ ENDP			; ATL::_AtlGetThreadACPFake
; Function compile flags: /Odt
_TEXT	ENDS
;	COMDAT ?_AtlGetThreadACPReal@ATL@@YGIXZ
_TEXT	SEGMENT
?_AtlGetThreadACPReal@ATL@@YGIXZ PROC NEAR		; ATL::_AtlGetThreadACPReal, COMDAT

; 127  : {

  00000	55		 push	 ebp
  00001	8b ec		 mov	 ebp, esp

; 128  : 	return( CP_THREAD_ACP );

  00003	b8 03 00 00 00	 mov	 eax, 3

; 129  : }

  00008	5d		 pop	 ebp
  00009	c3		 ret	 0
?_AtlGetThreadACPReal@ATL@@YGIXZ ENDP			; ATL::_AtlGetThreadACPReal
_TEXT	ENDS
PUBLIC	__real@436f0000
;	COMDAT __real@436f0000
; File d:\boxgit\playbox\playbox\dev\prj\playbox\src\gui\commoncontrol\listctrol\gdiex.cpp
CONST	SEGMENT
__real@436f0000 DD 0436f0000r			; 239
; Function compile flags: /Odt
CONST	ENDS
_TEXT	SEGMENT
tv374 = -244						; size = 8
tv368 = -236						; size = 4
tv362 = -232						; size = 8
tv346 = -224						; size = 8
tv340 = -216						; size = 4
tv334 = -212						; size = 8
tv317 = -204						; size = 8
tv85 = -196						; size = 4
tv83 = -192						; size = 4
tv79 = -188						; size = 4
tv65 = -184						; size = 4
_this$ = -180						; size = 4
$T198930 = -176						; size = 8
$T198929 = -168						; size = 8
$T198928 = -160						; size = 8
$T198927 = -152						; size = 8
$T198926 = -144						; size = 8
$T198925 = -136						; size = 8
_nCount$197851 = -128					; size = 4
_nCount$197837 = -124					; size = 4
_lH1$197800 = -120					; size = 8
_lS2$197817 = -112					; size = 8
_hbrFill$197793 = -104					; size = 4
_lR2$197813 = -100					; size = 4
_fStep$197791 = -96					; size = 4
_lR1$197797 = -92					; size = 4
_lL1$197802 = -88					; size = 8
_lS1$197801 = -80					; size = 8
_lL2$197818 = -72					; size = 8
_lG2$197814 = -64					; size = 4
_lB1$197799 = -60					; size = 4
_lH2$197816 = -56					; size = 8
_fLStep$197829 = -48					; size = 4
_rect$197792 = -44					; size = 16
_lG1$197798 = -28					; size = 4
_hdcMem$197831 = -24					; size = 4
_hbmpMem$197832 = -20					; size = 4
_hobjOld$197833 = -16					; size = 4
_lB2$197815 = -12					; size = 4
_nHeight$197789 = -8					; size = 4
_nWidth$197788 = -4					; size = 4
_DC$ = 8						; size = 4
_aRect$ = 12						; size = 16
_aBeginColor$ = 28					; size = 4
_aEndColor$ = 32					; size = 4
_aHue$ = 36						; size = 4
_Orientation$ = 40					; size = 4
_abEclosion$ = 44					; size = 4
_anStep$ = 48						; size = 4
?FillRectangleLight@CGdiEx@@UAEXPAUHDC__@@UtagRECT@@KKIW4ENUM_DrawOrientation@@HI@Z PROC NEAR ; CGdiEx::FillRectangleLight
; _this$ = ecx

; 594  : {

  01260	55		 push	 ebp
  01261	8b ec		 mov	 ebp, esp
  01263	81 ec f4 00 00
	00		 sub	 esp, 244		; 000000f4H
  01269	89 8d 4c ff ff
	ff		 mov	 DWORD PTR _this$[ebp], ecx

; 595  : 	aHue = aHue > 239 ? 239 : aHue;

  0126f	81 7d 24 ef 00
	00 00		 cmp	 DWORD PTR _aHue$[ebp], 239 ; 000000efH
  01276	76 0c		 jbe	 SHORT $L198917
  01278	c7 85 48 ff ff
	ff ef 00 00 00	 mov	 DWORD PTR tv65[ebp], 239 ; 000000efH
  01282	eb 09		 jmp	 SHORT $L198918
$L198917:
  01284	8b 45 24	 mov	 eax, DWORD PTR _aHue$[ebp]
  01287	89 85 48 ff ff
	ff		 mov	 DWORD PTR tv65[ebp], eax
$L198918:
  0128d	8b 8d 48 ff ff
	ff		 mov	 ecx, DWORD PTR tv65[ebp]
  01293	89 4d 24	 mov	 DWORD PTR _aHue$[ebp], ecx

; 596  : 	if(aBeginColor == aEndColor)

  01296	8b 55 1c	 mov	 edx, DWORD PTR _aBeginColor$[ebp]
  01299	3b 55 20	 cmp	 edx, DWORD PTR _aEndColor$[ebp]
  0129c	75 3e		 jne	 SHORT $L197786

; 597  : 	{
; 598  : 		FillRectangle(DC, aRect, aBeginColor,  abEclosion);

  0129e	8b 45 2c	 mov	 eax, DWORD PTR _abEclosion$[ebp]
  012a1	50		 push	 eax
  012a2	8b 4d 1c	 mov	 ecx, DWORD PTR _aBeginColor$[ebp]
  012a5	51		 push	 ecx
  012a6	83 ec 10	 sub	 esp, 16			; 00000010H
  012a9	8b d4		 mov	 edx, esp
  012ab	8b 45 0c	 mov	 eax, DWORD PTR _aRect$[ebp]
  012ae	89 02		 mov	 DWORD PTR [edx], eax
  012b0	8b 4d 10	 mov	 ecx, DWORD PTR _aRect$[ebp+4]
  012b3	89 4a 04	 mov	 DWORD PTR [edx+4], ecx
  012b6	8b 45 14	 mov	 eax, DWORD PTR _aRect$[ebp+8]
  012b9	89 42 08	 mov	 DWORD PTR [edx+8], eax
  012bc	8b 4d 18	 mov	 ecx, DWORD PTR _aRect$[ebp+12]
  012bf	89 4a 0c	 mov	 DWORD PTR [edx+12], ecx
  012c2	8b 55 08	 mov	 edx, DWORD PTR _DC$[ebp]
  012c5	52		 push	 edx
  012c6	8b 85 4c ff ff
	ff		 mov	 eax, DWORD PTR _this$[ebp]
  012cc	8b 10		 mov	 edx, DWORD PTR [eax]
  012ce	8b 8d 4c ff ff
	ff		 mov	 ecx, DWORD PTR _this$[ebp]
  012d4	ff 52 0c	 call	 DWORD PTR [edx+12]

; 599  : 	}
; 600  : 	else

  012d7	e9 f0 03 00 00	 jmp	 $L197785
$L197786:

; 601  : 	{
; 602  : 		int nWidth  = aRect.right  - aRect.left;

  012dc	8b 45 14	 mov	 eax, DWORD PTR _aRect$[ebp+8]
  012df	2b 45 0c	 sub	 eax, DWORD PTR _aRect$[ebp]
  012e2	89 45 fc	 mov	 DWORD PTR _nWidth$197788[ebp], eax

; 603  : 		int nHeight = aRect.bottom - aRect.top;  

  012e5	8b 4d 18	 mov	 ecx, DWORD PTR _aRect$[ebp+12]
  012e8	2b 4d 10	 sub	 ecx, DWORD PTR _aRect$[ebp+4]
  012eb	89 4d f8	 mov	 DWORD PTR _nHeight$197789[ebp], ecx

; 604  : 		if(!(nWidth<=0|| nHeight<= 0))

  012ee	83 7d fc 00	 cmp	 DWORD PTR _nWidth$197788[ebp], 0
  012f2	0f 8e d4 03 00
	00		 jle	 $L197785
  012f8	83 7d f8 00	 cmp	 DWORD PTR _nHeight$197789[ebp], 0
  012fc	0f 8e ca 03 00
	00		 jle	 $L197785

; 605  : 		{
; 606  : 			float fStep;
; 607  : 			RECT rect;
; 608  : 			HBRUSH hbrFill;
; 609  : 			anStep = anStep == 1 ?  10:anStep;

  01302	83 7d 30 01	 cmp	 DWORD PTR _anStep$[ebp], 1
  01306	75 0c		 jne	 SHORT $L198919
  01308	c7 85 44 ff ff
	ff 0a 00 00 00	 mov	 DWORD PTR tv79[ebp], 10	; 0000000aH
  01312	eb 09		 jmp	 SHORT $L198920
$L198919:
  01314	8b 55 30	 mov	 edx, DWORD PTR _anStep$[ebp]
  01317	89 95 44 ff ff
	ff		 mov	 DWORD PTR tv79[ebp], edx
$L198920:
  0131d	8b 85 44 ff ff
	ff		 mov	 eax, DWORD PTR tv79[ebp]
  01323	89 45 30	 mov	 DWORD PTR _anStep$[ebp], eax

; 610  : 			if( -1 == anStep)

  01326	83 7d 30 ff	 cmp	 DWORD PTR _anStep$[ebp], -1
  0132a	75 50		 jne	 SHORT $L197794

; 611  : 			{
; 612  : 				if(true == Orientation)

  0132c	83 7d 28 01	 cmp	 DWORD PTR _Orientation$[ebp], 1
  01330	75 26		 jne	 SHORT $L197795

; 613  : 				{
; 614  : 					anStep = nHeight > 10 ? 10 : nHeight;

  01332	83 7d f8 0a	 cmp	 DWORD PTR _nHeight$197789[ebp], 10 ; 0000000aH
  01336	7e 0c		 jle	 SHORT $L198921
  01338	c7 85 40 ff ff
	ff 0a 00 00 00	 mov	 DWORD PTR tv83[ebp], 10	; 0000000aH
  01342	eb 09		 jmp	 SHORT $L198922
$L198921:
  01344	8b 4d f8	 mov	 ecx, DWORD PTR _nHeight$197789[ebp]
  01347	89 8d 40 ff ff
	ff		 mov	 DWORD PTR tv83[ebp], ecx
$L198922:
  0134d	8b 95 40 ff ff
	ff		 mov	 edx, DWORD PTR tv83[ebp]
  01353	89 55 30	 mov	 DWORD PTR _anStep$[ebp], edx

; 615  : 
; 616  : 				}
; 617  : 				else

  01356	eb 24		 jmp	 SHORT $L197794
$L197795:

; 618  : 				{
; 619  : 					anStep = nWidth >= 10 ? 10: nWidth;

  01358	83 7d fc 0a	 cmp	 DWORD PTR _nWidth$197788[ebp], 10 ; 0000000aH
  0135c	7c 0c		 jl	 SHORT $L198923
  0135e	c7 85 3c ff ff
	ff 0a 00 00 00	 mov	 DWORD PTR tv85[ebp], 10	; 0000000aH
  01368	eb 09		 jmp	 SHORT $L198924
$L198923:
  0136a	8b 45 fc	 mov	 eax, DWORD PTR _nWidth$197788[ebp]
  0136d	89 85 3c ff ff
	ff		 mov	 DWORD PTR tv85[ebp], eax
$L198924:
  01373	8b 8d 3c ff ff
	ff		 mov	 ecx, DWORD PTR tv85[ebp]
  01379	89 4d 30	 mov	 DWORD PTR _anStep$[ebp], ecx
$L197794:

; 620  : 				}
; 621  : 			}
; 622  : 
; 623  : 			int    lR1,lG1,lB1;
; 624  : 			double lH1,lS1,lL1;
; 625  : 			lR1 = GetRValue( aBeginColor );

  0137c	0f b6 55 1c	 movzx	 edx, BYTE PTR _aBeginColor$[ebp]
  01380	89 55 a4	 mov	 DWORD PTR _lR1$197797[ebp], edx

; 626  : 			lG1 = GetGValue( aBeginColor );

  01383	0f b7 45 1c	 movzx	 eax, WORD PTR _aBeginColor$[ebp]
  01387	c1 f8 08	 sar	 eax, 8
  0138a	0f b6 c8	 movzx	 ecx, al
  0138d	89 4d e4	 mov	 DWORD PTR _lG1$197798[ebp], ecx

; 627  : 			lB1 = GetBValue( aBeginColor );

  01390	8b 55 1c	 mov	 edx, DWORD PTR _aBeginColor$[ebp]
  01393	c1 ea 10	 shr	 edx, 16			; 00000010H
  01396	0f b6 c2	 movzx	 eax, dl
  01399	89 45 c4	 mov	 DWORD PTR _lB1$197799[ebp], eax

; 628  : 			RGBtoHSL(RGB(lR1,lG1,lB1),&lH1,&lS1,&lL1);

  0139c	8d 4d a8	 lea	 ecx, DWORD PTR _lL1$197802[ebp]
  0139f	51		 push	 ecx
  013a0	8d 55 b0	 lea	 edx, DWORD PTR _lS1$197801[ebp]
  013a3	52		 push	 edx
  013a4	8d 45 88	 lea	 eax, DWORD PTR _lH1$197800[ebp]
  013a7	50		 push	 eax
  013a8	0f b6 4d a4	 movzx	 ecx, BYTE PTR _lR1$197797[ebp]
  013ac	0f b6 55 e4	 movzx	 edx, BYTE PTR _lG1$197798[ebp]
  013b0	c1 e2 08	 shl	 edx, 8
  013b3	0b ca		 or	 ecx, edx
  013b5	0f b6 45 c4	 movzx	 eax, BYTE PTR _lB1$197799[ebp]
  013b9	c1 e0 10	 shl	 eax, 16			; 00000010H
  013bc	0b c8		 or	 ecx, eax
  013be	51		 push	 ecx
  013bf	8b 8d 4c ff ff
	ff		 mov	 ecx, DWORD PTR _this$[ebp]
  013c5	e8 00 00 00 00	 call	 ?RGBtoHSL@CGdiEx@@QAEXKPAN00@Z ; CGdiEx::RGBtoHSL

; 629  : 
; 630  : 			int    lR2,lG2,lB2;
; 631  : 			double lH2,lS2,lL2;
; 632  : 			lR2 = GetRValue( aEndColor );

  013ca	0f b6 4d 20	 movzx	 ecx, BYTE PTR _aEndColor$[ebp]
  013ce	89 4d 9c	 mov	 DWORD PTR _lR2$197813[ebp], ecx

; 633  : 			lG2 = GetGValue( aEndColor );

  013d1	0f b7 55 20	 movzx	 edx, WORD PTR _aEndColor$[ebp]
  013d5	c1 fa 08	 sar	 edx, 8
  013d8	0f b6 c2	 movzx	 eax, dl
  013db	89 45 c0	 mov	 DWORD PTR _lG2$197814[ebp], eax

; 634  : 			lB2 = GetBValue( aEndColor );

  013de	8b 4d 20	 mov	 ecx, DWORD PTR _aEndColor$[ebp]
  013e1	c1 e9 10	 shr	 ecx, 16			; 00000010H
  013e4	0f b6 d1	 movzx	 edx, cl
  013e7	89 55 f4	 mov	 DWORD PTR _lB2$197815[ebp], edx

; 635  : 			RGBtoHSL(RGB(lR2,lG2,lB2),&lH2,&lS2,&lL2);

  013ea	8d 45 b8	 lea	 eax, DWORD PTR _lL2$197818[ebp]
  013ed	50		 push	 eax
  013ee	8d 4d 90	 lea	 ecx, DWORD PTR _lS2$197817[ebp]
  013f1	51		 push	 ecx
  013f2	8d 55 c8	 lea	 edx, DWORD PTR _lH2$197816[ebp]
  013f5	52		 push	 edx
  013f6	0f b6 45 9c	 movzx	 eax, BYTE PTR _lR2$197813[ebp]
  013fa	0f b6 4d c0	 movzx	 ecx, BYTE PTR _lG2$197814[ebp]
  013fe	c1 e1 08	 shl	 ecx, 8
  01401	0b c1		 or	 eax, ecx
  01403	0f b6 55 f4	 movzx	 edx, BYTE PTR _lB2$197815[ebp]
  01407	c1 e2 10	 shl	 edx, 16			; 00000010H
  0140a	0b c2		 or	 eax, edx
  0140c	50		 push	 eax
  0140d	8b 8d 4c ff ff
	ff		 mov	 ecx, DWORD PTR _this$[ebp]
  01413	e8 00 00 00 00	 call	 ?RGBtoHSL@CGdiEx@@QAEXKPAN00@Z ; CGdiEx::RGBtoHSL

; 636  : 
; 637  : 			float fLStep = ( lL2 - lL1 )*240 / (float)anStep;

  01418	dd 45 b8	 fld	 QWORD PTR _lL2$197818[ebp]
  0141b	dc 65 a8	 fsub	 QWORD PTR _lL1$197802[ebp]
  0141e	dc 0d 00 00 00
	00		 fmul	 QWORD PTR __real@406e000000000000
  01424	8b 45 30	 mov	 eax, DWORD PTR _anStep$[ebp]
  01427	89 85 34 ff ff
	ff		 mov	 DWORD PTR tv317[ebp], eax
  0142d	c7 85 38 ff ff
	ff 00 00 00 00	 mov	 DWORD PTR tv317[ebp+4], 0
  01437	df ad 34 ff ff
	ff		 fild	 QWORD PTR tv317[ebp]
  0143d	de f9		 fdivp	 ST(1), ST(0)
  0143f	d9 5d d0	 fstp	 DWORD PTR _fLStep$197829[ebp]

; 638  : 			HDC hdcMem   = ::CreateCompatibleDC( DC );

  01442	8b 4d 08	 mov	 ecx, DWORD PTR _DC$[ebp]
  01445	51		 push	 ecx
  01446	ff 15 00 00 00
	00		 call	 DWORD PTR __imp__CreateCompatibleDC@4
  0144c	89 45 e8	 mov	 DWORD PTR _hdcMem$197831[ebp], eax

; 639  : 			HBITMAP hbmpMem  = ::CreateCompatibleBitmap( DC, nWidth, nHeight );

  0144f	8b 55 f8	 mov	 edx, DWORD PTR _nHeight$197789[ebp]
  01452	52		 push	 edx
  01453	8b 45 fc	 mov	 eax, DWORD PTR _nWidth$197788[ebp]
  01456	50		 push	 eax
  01457	8b 4d 08	 mov	 ecx, DWORD PTR _DC$[ebp]
  0145a	51		 push	 ecx
  0145b	ff 15 00 00 00
	00		 call	 DWORD PTR __imp__CreateCompatibleBitmap@12
  01461	89 45 ec	 mov	 DWORD PTR _hbmpMem$197832[ebp], eax

; 640  : 			HGDIOBJ hobjOld  = ::SelectObject( hdcMem, hbmpMem );

  01464	8b 55 ec	 mov	 edx, DWORD PTR _hbmpMem$197832[ebp]
  01467	52		 push	 edx
  01468	8b 45 e8	 mov	 eax, DWORD PTR _hdcMem$197831[ebp]
  0146b	50		 push	 eax
  0146c	ff 15 00 00 00
	00		 call	 DWORD PTR __imp__SelectObject@8
  01472	89 45 f0	 mov	 DWORD PTR _hobjOld$197833[ebp], eax

; 641  : 
; 642  : 			rect.top = rect.left = 0;

  01475	c7 45 d4 00 00
	00 00		 mov	 DWORD PTR _rect$197792[ebp], 0
  0147c	8b 4d d4	 mov	 ecx, DWORD PTR _rect$197792[ebp]
  0147f	89 4d d8	 mov	 DWORD PTR _rect$197792[ebp+4], ecx

; 643  : 
; 644  : 			if ( Orientation )

  01482	83 7d 28 00	 cmp	 DWORD PTR _Orientation$[ebp], 0
  01486	0f 84 fe 00 00
	00		 je	 $L197834

; 645  : 			{
; 646  : 				rect.right= nWidth;

  0148c	8b 55 fc	 mov	 edx, DWORD PTR _nWidth$197788[ebp]
  0148f	89 55 dc	 mov	 DWORD PTR _rect$197792[ebp+8], edx

; 647  : 				fStep= (float)nHeight / (float)anStep;

  01492	db 45 f8	 fild	 DWORD PTR _nHeight$197789[ebp]
  01495	8b 45 30	 mov	 eax, DWORD PTR _anStep$[ebp]
  01498	89 85 2c ff ff
	ff		 mov	 DWORD PTR tv334[ebp], eax
  0149e	c7 85 30 ff ff
	ff 00 00 00 00	 mov	 DWORD PTR tv334[ebp+4], 0
  014a8	df ad 2c ff ff
	ff		 fild	 QWORD PTR tv334[ebp]
  014ae	de f9		 fdivp	 ST(1), ST(0)
  014b0	d9 5d a0	 fstp	 DWORD PTR _fStep$197791[ebp]

; 648  : 
; 649  : 				for ( int nCount=0; nCount<=anStep; nCount++ )

  014b3	c7 45 84 00 00
	00 00		 mov	 DWORD PTR _nCount$197837[ebp], 0
  014ba	eb 09		 jmp	 SHORT $L197838
$L197839:
  014bc	8b 4d 84	 mov	 ecx, DWORD PTR _nCount$197837[ebp]
  014bf	83 c1 01	 add	 ecx, 1
  014c2	89 4d 84	 mov	 DWORD PTR _nCount$197837[ebp], ecx
$L197838:
  014c5	8b 55 84	 mov	 edx, DWORD PTR _nCount$197837[ebp]
  014c8	3b 55 30	 cmp	 edx, DWORD PTR _anStep$[ebp]
  014cb	0f 87 b4 00 00
	00		 ja	 $L197840

; 650  : 				{
; 651  : 					rect.bottom = (int)( (nCount+1) * fStep );

  014d1	8b 45 84	 mov	 eax, DWORD PTR _nCount$197837[ebp]
  014d4	83 c0 01	 add	 eax, 1
  014d7	89 85 28 ff ff
	ff		 mov	 DWORD PTR tv340[ebp], eax
  014dd	db 85 28 ff ff
	ff		 fild	 DWORD PTR tv340[ebp]
  014e3	d8 4d a0	 fmul	 DWORD PTR _fStep$197791[ebp]
  014e6	e8 00 00 00 00	 call	 __ftol2
  014eb	89 45 e0	 mov	 DWORD PTR _rect$197792[ebp+12], eax

; 652  : 
; 653  : 					hbrFill = ::CreateSolidBrush( HLStoRGB((double)(aHue/(float)(239) ) ,lL1+fLStep*nCount/(float)(240),1.0 )  );

  014ee	dd 05 00 00 00
	00		 fld	 QWORD PTR __real@3ff0000000000000
  014f4	dd 9d 78 ff ff
	ff		 fstp	 QWORD PTR $T198925[ebp]
  014fa	db 45 84	 fild	 DWORD PTR _nCount$197837[ebp]
  014fd	d8 4d d0	 fmul	 DWORD PTR _fLStep$197829[ebp]
  01500	d8 35 00 00 00
	00		 fdiv	 DWORD PTR __real@43700000
  01506	dc 45 a8	 fadd	 QWORD PTR _lL1$197802[ebp]
  01509	dd 9d 70 ff ff
	ff		 fstp	 QWORD PTR $T198926[ebp]
  0150f	8b 4d 24	 mov	 ecx, DWORD PTR _aHue$[ebp]
  01512	89 8d 20 ff ff
	ff		 mov	 DWORD PTR tv346[ebp], ecx
  01518	c7 85 24 ff ff
	ff 00 00 00 00	 mov	 DWORD PTR tv346[ebp+4], 0
  01522	df ad 20 ff ff
	ff		 fild	 QWORD PTR tv346[ebp]
  01528	d8 35 00 00 00
	00		 fdiv	 DWORD PTR __real@436f0000
  0152e	dd 9d 68 ff ff
	ff		 fstp	 QWORD PTR $T198927[ebp]
  01534	8d 95 78 ff ff
	ff		 lea	 edx, DWORD PTR $T198925[ebp]
  0153a	52		 push	 edx
  0153b	8d 85 70 ff ff
	ff		 lea	 eax, DWORD PTR $T198926[ebp]
  01541	50		 push	 eax
  01542	8d 8d 68 ff ff
	ff		 lea	 ecx, DWORD PTR $T198927[ebp]
  01548	51		 push	 ecx
  01549	8b 8d 4c ff ff
	ff		 mov	 ecx, DWORD PTR _this$[ebp]
  0154f	e8 00 00 00 00	 call	 ?HLStoRGB@CGdiEx@@QAEKABN00@Z ; CGdiEx::HLStoRGB
  01554	50		 push	 eax
  01555	ff 15 00 00 00
	00		 call	 DWORD PTR __imp__CreateSolidBrush@4
  0155b	89 45 98	 mov	 DWORD PTR _hbrFill$197793[ebp], eax

; 654  : 					::FillRect( hdcMem, &rect, hbrFill );

  0155e	8b 55 98	 mov	 edx, DWORD PTR _hbrFill$197793[ebp]
  01561	52		 push	 edx
  01562	8d 45 d4	 lea	 eax, DWORD PTR _rect$197792[ebp]
  01565	50		 push	 eax
  01566	8b 4d e8	 mov	 ecx, DWORD PTR _hdcMem$197831[ebp]
  01569	51		 push	 ecx
  0156a	ff 15 00 00 00
	00		 call	 DWORD PTR __imp__FillRect@12

; 655  : 					::DeleteObject( hbrFill );

  01570	8b 55 98	 mov	 edx, DWORD PTR _hbrFill$197793[ebp]
  01573	52		 push	 edx
  01574	ff 15 00 00 00
	00		 call	 DWORD PTR __imp__DeleteObject@4

; 656  : 
; 657  : 					rect.top = rect.bottom;

  0157a	8b 45 e0	 mov	 eax, DWORD PTR _rect$197792[ebp+12]
  0157d	89 45 d8	 mov	 DWORD PTR _rect$197792[ebp+4], eax

; 658  : 				}

  01580	e9 37 ff ff ff	 jmp	 $L197839
$L197840:

; 659  : 			}
; 660  : 			else

  01585	e9 f9 00 00 00	 jmp	 $L197848
$L197834:

; 661  : 			{
; 662  : 				rect.bottom = nHeight;

  0158a	8b 4d f8	 mov	 ecx, DWORD PTR _nHeight$197789[ebp]
  0158d	89 4d e0	 mov	 DWORD PTR _rect$197792[ebp+12], ecx

; 663  : 				fStep= (float)nWidth / (float)anStep;

  01590	db 45 fc	 fild	 DWORD PTR _nWidth$197788[ebp]
  01593	8b 55 30	 mov	 edx, DWORD PTR _anStep$[ebp]
  01596	89 95 18 ff ff
	ff		 mov	 DWORD PTR tv362[ebp], edx
  0159c	c7 85 1c ff ff
	ff 00 00 00 00	 mov	 DWORD PTR tv362[ebp+4], 0
  015a6	df ad 18 ff ff
	ff		 fild	 QWORD PTR tv362[ebp]
  015ac	de f9		 fdivp	 ST(1), ST(0)
  015ae	d9 5d a0	 fstp	 DWORD PTR _fStep$197791[ebp]

; 664  : 
; 665  : 				for ( int nCount=0; nCount<=anStep; nCount++ )

  015b1	c7 45 80 00 00
	00 00		 mov	 DWORD PTR _nCount$197851[ebp], 0
  015b8	eb 09		 jmp	 SHORT $L197852
$L197853:
  015ba	8b 45 80	 mov	 eax, DWORD PTR _nCount$197851[ebp]
  015bd	83 c0 01	 add	 eax, 1
  015c0	89 45 80	 mov	 DWORD PTR _nCount$197851[ebp], eax
$L197852:
  015c3	8b 4d 80	 mov	 ecx, DWORD PTR _nCount$197851[ebp]
  015c6	3b 4d 30	 cmp	 ecx, DWORD PTR _anStep$[ebp]
  015c9	0f 87 b4 00 00
	00		 ja	 $L197848

; 666  : 				{
; 667  : 					rect.right= (int)( (nCount+1) * fStep );

  015cf	8b 55 80	 mov	 edx, DWORD PTR _nCount$197851[ebp]
  015d2	83 c2 01	 add	 edx, 1
  015d5	89 95 14 ff ff
	ff		 mov	 DWORD PTR tv368[ebp], edx
  015db	db 85 14 ff ff
	ff		 fild	 DWORD PTR tv368[ebp]
  015e1	d8 4d a0	 fmul	 DWORD PTR _fStep$197791[ebp]
  015e4	e8 00 00 00 00	 call	 __ftol2
  015e9	89 45 dc	 mov	 DWORD PTR _rect$197792[ebp+8], eax

; 668  : 					hbrFill = ::CreateSolidBrush( HLStoRGB((double)(aHue/(float)(239)) ,lL1+fLStep*nCount/(float)(240),1.0 )  );

  015ec	dd 05 00 00 00
	00		 fld	 QWORD PTR __real@3ff0000000000000
  015f2	dd 9d 60 ff ff
	ff		 fstp	 QWORD PTR $T198928[ebp]
  015f8	db 45 80	 fild	 DWORD PTR _nCount$197851[ebp]
  015fb	d8 4d d0	 fmul	 DWORD PTR _fLStep$197829[ebp]
  015fe	d8 35 00 00 00
	00		 fdiv	 DWORD PTR __real@43700000
  01604	dc 45 a8	 fadd	 QWORD PTR _lL1$197802[ebp]
  01607	dd 9d 58 ff ff
	ff		 fstp	 QWORD PTR $T198929[ebp]
  0160d	8b 45 24	 mov	 eax, DWORD PTR _aHue$[ebp]
  01610	89 85 0c ff ff
	ff		 mov	 DWORD PTR tv374[ebp], eax
  01616	c7 85 10 ff ff
	ff 00 00 00 00	 mov	 DWORD PTR tv374[ebp+4], 0
  01620	df ad 0c ff ff
	ff		 fild	 QWORD PTR tv374[ebp]
  01626	d8 35 00 00 00
	00		 fdiv	 DWORD PTR __real@436f0000
  0162c	dd 9d 50 ff ff
	ff		 fstp	 QWORD PTR $T198930[ebp]
  01632	8d 8d 60 ff ff
	ff		 lea	 ecx, DWORD PTR $T198928[ebp]
  01638	51		 push	 ecx
  01639	8d 95 58 ff ff
	ff		 lea	 edx, DWORD PTR $T198929[ebp]
  0163f	52		 push	 edx
  01640	8d 85 50 ff ff
	ff		 lea	 eax, DWORD PTR $T198930[ebp]
  01646	50		 push	 eax
  01647	8b 8d 4c ff ff
	ff		 mov	 ecx, DWORD PTR _this$[ebp]
  0164d	e8 00 00 00 00	 call	 ?HLStoRGB@CGdiEx@@QAEKABN00@Z ; CGdiEx::HLStoRGB
  01652	50		 push	 eax
  01653	ff 15 00 00 00
	00		 call	 DWORD PTR __imp__CreateSolidBrush@4
  01659	89 45 98	 mov	 DWORD PTR _hbrFill$197793[ebp], eax

; 669  : 					::FillRect( hdcMem, &rect, hbrFill );

  0165c	8b 4d 98	 mov	 ecx, DWORD PTR _hbrFill$197793[ebp]
  0165f	51		 push	 ecx
  01660	8d 55 d4	 lea	 edx, DWORD PTR _rect$197792[ebp]
  01663	52		 push	 edx
  01664	8b 45 e8	 mov	 eax, DWORD PTR _hdcMem$197831[ebp]
  01667	50		 push	 eax
  01668	ff 15 00 00 00
	00		 call	 DWORD PTR __imp__FillRect@12

; 670  : 					::DeleteObject( hbrFill );

  0166e	8b 4d 98	 mov	 ecx, DWORD PTR _hbrFill$197793[ebp]
  01671	51		 push	 ecx
  01672	ff 15 00 00 00
	00		 call	 DWORD PTR __imp__DeleteObject@4

; 671  : 
; 672  : 					rect.left = rect.right;

  01678	8b 55 dc	 mov	 edx, DWORD PTR _rect$197792[ebp+8]
  0167b	89 55 d4	 mov	 DWORD PTR _rect$197792[ebp], edx

; 673  : 				}

  0167e	e9 37 ff ff ff	 jmp	 $L197853
$L197848:

; 674  : 			}
; 675  : 
; 676  : 			::BitBlt( DC, aRect.left, aRect.top, nWidth, nHeight, hdcMem, 0, 0, SRCCOPY );

  01683	68 20 00 cc 00	 push	 13369376		; 00cc0020H
  01688	6a 00		 push	 0
  0168a	6a 00		 push	 0
  0168c	8b 45 e8	 mov	 eax, DWORD PTR _hdcMem$197831[ebp]
  0168f	50		 push	 eax
  01690	8b 4d f8	 mov	 ecx, DWORD PTR _nHeight$197789[ebp]
  01693	51		 push	 ecx
  01694	8b 55 fc	 mov	 edx, DWORD PTR _nWidth$197788[ebp]
  01697	52		 push	 edx
  01698	8b 45 10	 mov	 eax, DWORD PTR _aRect$[ebp+4]
  0169b	50		 push	 eax
  0169c	8b 4d 0c	 mov	 ecx, DWORD PTR _aRect$[ebp]
  0169f	51		 push	 ecx
  016a0	8b 55 08	 mov	 edx, DWORD PTR _DC$[ebp]
  016a3	52		 push	 edx
  016a4	ff 15 00 00 00
	00		 call	 DWORD PTR __imp__BitBlt@36

; 677  : 
; 678  : 			::SelectObject( hdcMem, hobjOld );

  016aa	8b 45 f0	 mov	 eax, DWORD PTR _hobjOld$197833[ebp]
  016ad	50		 push	 eax
  016ae	8b 4d e8	 mov	 ecx, DWORD PTR _hdcMem$197831[ebp]
  016b1	51		 push	 ecx
  016b2	ff 15 00 00 00
	00		 call	 DWORD PTR __imp__SelectObject@8

; 679  : 			::DeleteObject( hbmpMem );

  016b8	8b 55 ec	 mov	 edx, DWORD PTR _hbmpMem$197832[ebp]
  016bb	52		 push	 edx
  016bc	ff 15 00 00 00
	00		 call	 DWORD PTR __imp__DeleteObject@4

; 680  : 			::DeleteDC( hdcMem );

  016c2	8b 45 e8	 mov	 eax, DWORD PTR _hdcMem$197831[ebp]
  016c5	50		 push	 eax
  016c6	ff 15 00 00 00
	00		 call	 DWORD PTR __imp__DeleteDC@4
$L197785:

; 681  : 		}
; 682  : 	}
; 683  : }

  016cc	8b e5		 mov	 esp, ebp
  016ce	5d		 pop	 ebp
  016cf	c2 2c 00	 ret	 44			; 0000002cH
?FillRectangleLight@CGdiEx@@UAEXPAUHDC__@@UtagRECT@@KKIW4ENUM_DrawOrientation@@HI@Z ENDP ; CGdiEx::FillRectangleLight
_TEXT	ENDS
PUBLIC	?FrameRect@CDC@@QAEXPBUtagRECT@@PAVCBrush@@@Z	; CDC::FrameRect
EXTRN	?FromHandle@CDC@@SGPAV1@PAUHDC__@@@Z:NEAR	; CDC::FromHandle
; Function compile flags: /Odt
_TEXT	SEGMENT
_this$ = -8						; size = 4
_pDC$ = -4						; size = 4
_DC$ = 8						; size = 4
_aRect$ = 12						; size = 4
_pBrush$ = 16						; size = 4
?FrameRect@CGdiEx@@UAEXPAUHDC__@@AAUtagRECT@@PAVCBrush@@@Z PROC NEAR ; CGdiEx::FrameRect
; _this$ = ecx

; 685  : {

  016e0	55		 push	 ebp
  016e1	8b ec		 mov	 ebp, esp
  016e3	83 ec 08	 sub	 esp, 8
  016e6	89 4d f8	 mov	 DWORD PTR _this$[ebp], ecx

; 686  : 	CDC * pDC = CDC::FromHandle(DC);

  016e9	8b 45 08	 mov	 eax, DWORD PTR _DC$[ebp]
  016ec	50		 push	 eax
  016ed	e8 00 00 00 00	 call	 ?FromHandle@CDC@@SGPAV1@PAUHDC__@@@Z ; CDC::FromHandle
  016f2	89 45 fc	 mov	 DWORD PTR _pDC$[ebp], eax

; 687  : 	pDC->FrameRect( &aRect,pBrush );

  016f5	8b 4d 10	 mov	 ecx, DWORD PTR _pBrush$[ebp]
  016f8	51		 push	 ecx
  016f9	8b 55 0c	 mov	 edx, DWORD PTR _aRect$[ebp]
  016fc	52		 push	 edx
  016fd	8b 4d fc	 mov	 ecx, DWORD PTR _pDC$[ebp]
  01700	e8 00 00 00 00	 call	 ?FrameRect@CDC@@QAEXPBUtagRECT@@PAVCBrush@@@Z ; CDC::FrameRect

; 688  : }

  01705	8b e5		 mov	 esp, ebp
  01707	5d		 pop	 ebp
  01708	c2 0c 00	 ret	 12			; 0000000cH
?FrameRect@CGdiEx@@UAEXPAUHDC__@@AAUtagRECT@@PAVCBrush@@@Z ENDP ; CGdiEx::FrameRect
_TEXT	ENDS
EXTRN	?FillSolidRect@CDC@@QAEXHHHHK@Z:NEAR		; CDC::FillSolidRect
; Function compile flags: /Odt
_TEXT	SEGMENT
_this$ = -8						; size = 4
_pDC$ = -4						; size = 4
_DC$ = 8						; size = 4
_aRect$ = 12						; size = 4
_aColor$ = 16						; size = 4
?FillRectangle@CGdiEx@@UAEXPAUHDC__@@AAUtagRECT@@K@Z PROC NEAR ; CGdiEx::FillRectangle
; _this$ = ecx

; 690  : {

  01710	55		 push	 ebp
  01711	8b ec		 mov	 ebp, esp
  01713	83 ec 08	 sub	 esp, 8
  01716	89 4d f8	 mov	 DWORD PTR _this$[ebp], ecx

; 691  : 	CDC * pDC = CDC::FromHandle(DC);

  01719	8b 45 08	 mov	 eax, DWORD PTR _DC$[ebp]
  0171c	50		 push	 eax
  0171d	e8 00 00 00 00	 call	 ?FromHandle@CDC@@SGPAV1@PAUHDC__@@@Z ; CDC::FromHandle
  01722	89 45 fc	 mov	 DWORD PTR _pDC$[ebp], eax

; 692  : 	pDC->FillSolidRect(aRect.left, aRect.top, aRect.right - aRect.left, aRect.bottom - aRect.top,aColor);

  01725	8b 4d 10	 mov	 ecx, DWORD PTR _aColor$[ebp]
  01728	51		 push	 ecx
  01729	8b 55 0c	 mov	 edx, DWORD PTR _aRect$[ebp]
  0172c	8b 45 0c	 mov	 eax, DWORD PTR _aRect$[ebp]
  0172f	8b 4a 0c	 mov	 ecx, DWORD PTR [edx+12]
  01732	2b 48 04	 sub	 ecx, DWORD PTR [eax+4]
  01735	51		 push	 ecx
  01736	8b 55 0c	 mov	 edx, DWORD PTR _aRect$[ebp]
  01739	8b 45 0c	 mov	 eax, DWORD PTR _aRect$[ebp]
  0173c	8b 4a 08	 mov	 ecx, DWORD PTR [edx+8]
  0173f	2b 08		 sub	 ecx, DWORD PTR [eax]
  01741	51		 push	 ecx
  01742	8b 55 0c	 mov	 edx, DWORD PTR _aRect$[ebp]
  01745	8b 42 04	 mov	 eax, DWORD PTR [edx+4]
  01748	50		 push	 eax
  01749	8b 4d 0c	 mov	 ecx, DWORD PTR _aRect$[ebp]
  0174c	8b 11		 mov	 edx, DWORD PTR [ecx]
  0174e	52		 push	 edx
  0174f	8b 4d fc	 mov	 ecx, DWORD PTR _pDC$[ebp]
  01752	e8 00 00 00 00	 call	 ?FillSolidRect@CDC@@QAEXHHHHK@Z ; CDC::FillSolidRect

; 693  : }

  01757	8b e5		 mov	 esp, ebp
  01759	5d		 pop	 ebp
  0175a	c2 0c 00	 ret	 12			; 0000000cH
?FillRectangle@CGdiEx@@UAEXPAUHDC__@@AAUtagRECT@@K@Z ENDP ; CGdiEx::FillRectangle
_TEXT	ENDS
PUBLIC	??0CBrush@@QAE@XZ				; CBrush::CBrush
PUBLIC	?CreateSolidBrush@CBrush@@QAEHK@Z		; CBrush::CreateSolidBrush
PUBLIC	??1CBrush@@UAE@XZ				; CBrush::~CBrush
EXTRN	?SelectObject@CDC@@QAEPAVCBrush@@PAV2@@Z:NEAR	; CDC::SelectObject
EXTRN	__except_list:DWORD
EXTRN	___CxxFrameHandler:NEAR
EXTRN	?DeleteObject@CGdiObject@@QAEHXZ:NEAR		; CGdiObject::DeleteObject
xdata$x	SEGMENT
$T198943 DD	0ffffffffH
	DD	FLAT:$L198936
$T198940 DD	019930520H
	DD	01H
	DD	FLAT:$T198943
	DD	2 DUP(00H)
	DD	2 DUP(00H)
; Function compile flags: /Odt
xdata$x	ENDS
_TEXT	SEGMENT
_this$ = -32						; size = 4
_pOldBrush$ = -28					; size = 4
_pDC$ = -24						; size = 4
_Brush$ = -20						; size = 8
__$EHRec$ = -12						; size = 12
_DC$ = 8						; size = 4
_aRect$ = 12						; size = 16
_aColor$ = 28						; size = 4
_abEclosion$ = 32					; size = 4
?FillRectangle@CGdiEx@@UAEXPAUHDC__@@UtagRECT@@KH@Z PROC NEAR ; CGdiEx::FillRectangle
; _this$ = ecx

; 695  : {

  01760	55		 push	 ebp
  01761	8b ec		 mov	 ebp, esp
  01763	6a ff		 push	 -1
  01765	68 00 00 00 00	 push	 __ehhandler$?FillRectangle@CGdiEx@@UAEXPAUHDC__@@UtagRECT@@KH@Z
  0176a	64 a1 00 00 00
	00		 mov	 eax, DWORD PTR fs:__except_list
  01770	50		 push	 eax
  01771	64 89 25 00 00
	00 00		 mov	 DWORD PTR fs:__except_list, esp
  01778	83 ec 14	 sub	 esp, 20			; 00000014H
  0177b	89 4d e0	 mov	 DWORD PTR _this$[ebp], ecx

; 696  : 	CDC * pDC = CDC::FromHandle(DC);

  0177e	8b 45 08	 mov	 eax, DWORD PTR _DC$[ebp]
  01781	50		 push	 eax
  01782	e8 00 00 00 00	 call	 ?FromHandle@CDC@@SGPAV1@PAUHDC__@@@Z ; CDC::FromHandle
  01787	89 45 e8	 mov	 DWORD PTR _pDC$[ebp], eax

; 697  : 	CBrush Brush, *pOldBrush;

  0178a	8d 4d ec	 lea	 ecx, DWORD PTR _Brush$[ebp]
  0178d	e8 00 00 00 00	 call	 ??0CBrush@@QAE@XZ	; CBrush::CBrush
  01792	c7 45 fc 00 00
	00 00		 mov	 DWORD PTR __$EHRec$[ebp+8], 0

; 698  : 	Brush.CreateSolidBrush(aColor);

  01799	8b 4d 1c	 mov	 ecx, DWORD PTR _aColor$[ebp]
  0179c	51		 push	 ecx
  0179d	8d 4d ec	 lea	 ecx, DWORD PTR _Brush$[ebp]
  017a0	e8 00 00 00 00	 call	 ?CreateSolidBrush@CBrush@@QAEHK@Z ; CBrush::CreateSolidBrush

; 699  : 	pOldBrush = pDC->SelectObject(&Brush);

  017a5	8d 55 ec	 lea	 edx, DWORD PTR _Brush$[ebp]
  017a8	52		 push	 edx
  017a9	8b 4d e8	 mov	 ecx, DWORD PTR _pDC$[ebp]
  017ac	e8 00 00 00 00	 call	 ?SelectObject@CDC@@QAEPAVCBrush@@PAV2@@Z ; CDC::SelectObject
  017b1	89 45 e4	 mov	 DWORD PTR _pOldBrush$[ebp], eax

; 700  : 	pDC->FillSolidRect(aRect.left, aRect.top, aRect.right - aRect.left, aRect.bottom - aRect.top,aColor);

  017b4	8b 45 1c	 mov	 eax, DWORD PTR _aColor$[ebp]
  017b7	50		 push	 eax
  017b8	8b 4d 18	 mov	 ecx, DWORD PTR _aRect$[ebp+12]
  017bb	2b 4d 10	 sub	 ecx, DWORD PTR _aRect$[ebp+4]
  017be	51		 push	 ecx
  017bf	8b 55 14	 mov	 edx, DWORD PTR _aRect$[ebp+8]
  017c2	2b 55 0c	 sub	 edx, DWORD PTR _aRect$[ebp]
  017c5	52		 push	 edx
  017c6	8b 45 10	 mov	 eax, DWORD PTR _aRect$[ebp+4]
  017c9	50		 push	 eax
  017ca	8b 4d 0c	 mov	 ecx, DWORD PTR _aRect$[ebp]
  017cd	51		 push	 ecx
  017ce	8b 4d e8	 mov	 ecx, DWORD PTR _pDC$[ebp]
  017d1	e8 00 00 00 00	 call	 ?FillSolidRect@CDC@@QAEXHHHHK@Z ; CDC::FillSolidRect

; 701  : 	pDC->SelectObject(pOldBrush);

  017d6	8b 55 e4	 mov	 edx, DWORD PTR _pOldBrush$[ebp]
  017d9	52		 push	 edx
  017da	8b 4d e8	 mov	 ecx, DWORD PTR _pDC$[ebp]
  017dd	e8 00 00 00 00	 call	 ?SelectObject@CDC@@QAEPAVCBrush@@PAV2@@Z ; CDC::SelectObject

; 702  : 	Brush.DeleteObject();

  017e2	8d 4d ec	 lea	 ecx, DWORD PTR _Brush$[ebp]
  017e5	e8 00 00 00 00	 call	 ?DeleteObject@CGdiObject@@QAEHXZ ; CGdiObject::DeleteObject

; 703  : 
; 704  : }

  017ea	c7 45 fc ff ff
	ff ff		 mov	 DWORD PTR __$EHRec$[ebp+8], -1
  017f1	8d 4d ec	 lea	 ecx, DWORD PTR _Brush$[ebp]
  017f4	e8 00 00 00 00	 call	 ??1CBrush@@UAE@XZ	; CBrush::~CBrush
  017f9	8b 4d f4	 mov	 ecx, DWORD PTR __$EHRec$[ebp]
  017fc	64 89 0d 00 00
	00 00		 mov	 DWORD PTR fs:__except_list, ecx
  01803	8b e5		 mov	 esp, ebp
  01805	5d		 pop	 ebp
  01806	c2 1c 00	 ret	 28			; 0000001cH
_TEXT	ENDS
text$x	SEGMENT
$L198936:
  00000	8d 4d ec	 lea	 ecx, DWORD PTR _Brush$[ebp]
  00003	e9 00 00 00 00	 jmp	 ??1CBrush@@UAE@XZ	; CBrush::~CBrush
__ehhandler$?FillRectangle@CGdiEx@@UAEXPAUHDC__@@UtagRECT@@KH@Z:
  00008	b8 00 00 00 00	 mov	 eax, OFFSET FLAT:$T198940
  0000d	e9 00 00 00 00	 jmp	 ___CxxFrameHandler
text$x	ENDS
?FillRectangle@CGdiEx@@UAEXPAUHDC__@@UtagRECT@@KH@Z ENDP ; CGdiEx::FillRectangle
PUBLIC	?FillRect@CDC@@QAEXPBUtagRECT@@PAVCBrush@@@Z	; CDC::FillRect
EXTRN	??0CBrush@@QAE@K@Z:NEAR				; CBrush::CBrush
xdata$x	SEGMENT
$T198951 DD	0ffffffffH
	DD	FLAT:$L198947
$T198949 DD	019930520H
	DD	01H
	DD	FLAT:$T198951
	DD	2 DUP(00H)
	DD	2 DUP(00H)
; Function compile flags: /Odt
xdata$x	ENDS
_TEXT	SEGMENT
tv83 = -36						; size = 4
tv84 = -32						; size = 4
_this$ = -28						; size = 4
$T198946 = -24						; size = 8
_pDC$ = -16						; size = 4
__$EHRec$ = -12						; size = 12
_DC$ = 8						; size = 4
_aRect$ = 12						; size = 16
_aColor$ = 28						; size = 4
_abEclosion$ = 32					; size = 4
_maxX$ = 36						; size = 4
_maxY$ = 40						; size = 4
?FillRectangle@CGdiEx@@UAEXPAUHDC__@@UtagRECT@@KHHH@Z PROC NEAR ; CGdiEx::FillRectangle
; _this$ = ecx

; 706  : {

  01810	55		 push	 ebp
  01811	8b ec		 mov	 ebp, esp
  01813	6a ff		 push	 -1
  01815	68 00 00 00 00	 push	 __ehhandler$?FillRectangle@CGdiEx@@UAEXPAUHDC__@@UtagRECT@@KHHH@Z
  0181a	64 a1 00 00 00
	00		 mov	 eax, DWORD PTR fs:__except_list
  01820	50		 push	 eax
  01821	64 89 25 00 00
	00 00		 mov	 DWORD PTR fs:__except_list, esp
  01828	83 ec 18	 sub	 esp, 24			; 00000018H
  0182b	89 4d e4	 mov	 DWORD PTR _this$[ebp], ecx

; 707  : 	if( aRect.bottom < 0) return;

  0182e	83 7d 18 00	 cmp	 DWORD PTR _aRect$[ebp+12], 0
  01832	7d 05		 jge	 SHORT $L197896
  01834	e9 9f 00 00 00	 jmp	 $L197895
$L197896:

; 708  : 	if( aRect.right < 0)  return;

  01839	83 7d 14 00	 cmp	 DWORD PTR _aRect$[ebp+8], 0
  0183d	7d 05		 jge	 SHORT $L197897
  0183f	e9 94 00 00 00	 jmp	 $L197895
$L197897:

; 709  : 	if( aRect.left>maxX)  return;

  01844	8b 45 0c	 mov	 eax, DWORD PTR _aRect$[ebp]
  01847	3b 45 24	 cmp	 eax, DWORD PTR _maxX$[ebp]
  0184a	7e 05		 jle	 SHORT $L197898
  0184c	e9 87 00 00 00	 jmp	 $L197895
$L197898:

; 710  : 	if( aRect.top> maxY)  return;

  01851	8b 4d 10	 mov	 ecx, DWORD PTR _aRect$[ebp+4]
  01854	3b 4d 28	 cmp	 ecx, DWORD PTR _maxY$[ebp]
  01857	7e 02		 jle	 SHORT $L197899
  01859	eb 7d		 jmp	 SHORT $L197895
$L197899:

; 711  : 	
; 712  : 	
; 713  : 	if( aRect.top < 0) aRect.top = 0;

  0185b	83 7d 10 00	 cmp	 DWORD PTR _aRect$[ebp+4], 0
  0185f	7d 07		 jge	 SHORT $L197900
  01861	c7 45 10 00 00
	00 00		 mov	 DWORD PTR _aRect$[ebp+4], 0
$L197900:

; 714  : 	if( aRect.left < 0) aRect.left = 0;

  01868	83 7d 0c 00	 cmp	 DWORD PTR _aRect$[ebp], 0
  0186c	7d 07		 jge	 SHORT $L197901
  0186e	c7 45 0c 00 00
	00 00		 mov	 DWORD PTR _aRect$[ebp], 0
$L197901:

; 715  : 	if( aRect.right>maxX)   aRect.right = maxX;

  01875	8b 55 14	 mov	 edx, DWORD PTR _aRect$[ebp+8]
  01878	3b 55 24	 cmp	 edx, DWORD PTR _maxX$[ebp]
  0187b	7e 06		 jle	 SHORT $L197902
  0187d	8b 45 24	 mov	 eax, DWORD PTR _maxX$[ebp]
  01880	89 45 14	 mov	 DWORD PTR _aRect$[ebp+8], eax
$L197902:

; 716  : 	if( aRect.bottom>maxY ) aRect.bottom = maxY;

  01883	8b 4d 18	 mov	 ecx, DWORD PTR _aRect$[ebp+12]
  01886	3b 4d 28	 cmp	 ecx, DWORD PTR _maxY$[ebp]
  01889	7e 06		 jle	 SHORT $L197903
  0188b	8b 55 28	 mov	 edx, DWORD PTR _maxY$[ebp]
  0188e	89 55 18	 mov	 DWORD PTR _aRect$[ebp+12], edx
$L197903:

; 717  : 
; 718  : 	CDC * pDC = CDC::FromHandle(DC);

  01891	8b 45 08	 mov	 eax, DWORD PTR _DC$[ebp]
  01894	50		 push	 eax
  01895	e8 00 00 00 00	 call	 ?FromHandle@CDC@@SGPAV1@PAUHDC__@@@Z ; CDC::FromHandle
  0189a	89 45 f0	 mov	 DWORD PTR _pDC$[ebp], eax

; 719  : 	/*CBrush Brush, *pOldBrush;
; 720  : 	Brush.CreateSolidBrush(aColor);
; 721  : 	pOldBrush = pDC->SelectObject(&Brush);*/
; 722  : 	pDC->FillRect(&aRect,&CBrush(aColor) );

  0189d	8b 4d 1c	 mov	 ecx, DWORD PTR _aColor$[ebp]
  018a0	51		 push	 ecx
  018a1	8d 4d e8	 lea	 ecx, DWORD PTR $T198946[ebp]
  018a4	e8 00 00 00 00	 call	 ??0CBrush@@QAE@K@Z	; CBrush::CBrush
  018a9	89 45 e0	 mov	 DWORD PTR tv84[ebp], eax
  018ac	8b 55 e0	 mov	 edx, DWORD PTR tv84[ebp]
  018af	89 55 dc	 mov	 DWORD PTR tv83[ebp], edx
  018b2	c7 45 fc 00 00
	00 00		 mov	 DWORD PTR __$EHRec$[ebp+8], 0
  018b9	8b 45 dc	 mov	 eax, DWORD PTR tv83[ebp]
  018bc	50		 push	 eax
  018bd	8d 4d 0c	 lea	 ecx, DWORD PTR _aRect$[ebp]
  018c0	51		 push	 ecx
  018c1	8b 4d f0	 mov	 ecx, DWORD PTR _pDC$[ebp]
  018c4	e8 00 00 00 00	 call	 ?FillRect@CDC@@QAEXPBUtagRECT@@PAVCBrush@@@Z ; CDC::FillRect
  018c9	c7 45 fc ff ff
	ff ff		 mov	 DWORD PTR __$EHRec$[ebp+8], -1
  018d0	8d 4d e8	 lea	 ecx, DWORD PTR $T198946[ebp]
  018d3	e8 00 00 00 00	 call	 ??1CBrush@@UAE@XZ	; CBrush::~CBrush
$L197895:

; 723  : 	/*pDC->SelectObject(pOldBrush);
; 724  : 	Brush.DeleteObject();*/
; 725  : 
; 726  : }

  018d8	8b 4d f4	 mov	 ecx, DWORD PTR __$EHRec$[ebp]
  018db	64 89 0d 00 00
	00 00		 mov	 DWORD PTR fs:__except_list, ecx
  018e2	8b e5		 mov	 esp, ebp
  018e4	5d		 pop	 ebp
  018e5	c2 24 00	 ret	 36			; 00000024H
_TEXT	ENDS
text$x	SEGMENT
$L198947:
  00012	8d 4d e8	 lea	 ecx, DWORD PTR $T198946[ebp]
  00015	e9 00 00 00 00	 jmp	 ??1CBrush@@UAE@XZ	; CBrush::~CBrush
__ehhandler$?FillRectangle@CGdiEx@@UAEXPAUHDC__@@UtagRECT@@KHHH@Z:
  0001a	b8 00 00 00 00	 mov	 eax, OFFSET FLAT:$T198949
  0001f	e9 00 00 00 00	 jmp	 ___CxxFrameHandler
text$x	ENDS
?FillRectangle@CGdiEx@@UAEXPAUHDC__@@UtagRECT@@KHHH@Z ENDP ; CGdiEx::FillRectangle
PUBLIC	??0CPen@@QAE@XZ					; CPen::CPen
PUBLIC	?CreatePen@CPen@@QAEHHHK@Z			; CPen::CreatePen
PUBLIC	??1CPen@@UAE@XZ					; CPen::~CPen
EXTRN	?SelectObject@CDC@@QAEPAVCPen@@PAV2@@Z:NEAR	; CDC::SelectObject
EXTRN	?MoveTo@CDC@@QAE?AVCPoint@@HH@Z:NEAR		; CDC::MoveTo
EXTRN	?LineTo@CDC@@QAEHHH@Z:NEAR			; CDC::LineTo
xdata$x	SEGMENT
$T198958 DD	0ffffffffH
	DD	FLAT:$L198954
$T198956 DD	019930520H
	DD	01H
	DD	FLAT:$T198958
	DD	2 DUP(00H)
	DD	2 DUP(00H)
; Function compile flags: /Odt
xdata$x	ENDS
_TEXT	SEGMENT
_this$ = -40						; size = 4
$T198953 = -36						; size = 8
_pOldPen$ = -28						; size = 4
_Pen$ = -24						; size = 8
_pDC$ = -16						; size = 4
__$EHRec$ = -12						; size = 12
_DC$ = 8						; size = 4
_aColor$ = 12						; size = 4
_afPenWidth$ = 16					; size = 4
_aiBeginLeft$ = 20					; size = 4
_aiBeginTop$ = 24					; size = 4
_aiEndLeft$ = 28					; size = 4
_aiEndTop$ = 32						; size = 4
_abEclosion$ = 36					; size = 4
?DrawLine@CGdiEx@@UAEXPAUHDC__@@KMHHHHH@Z PROC NEAR	; CGdiEx::DrawLine
; _this$ = ecx

; 728  : {

  018f0	55		 push	 ebp
  018f1	8b ec		 mov	 ebp, esp
  018f3	6a ff		 push	 -1
  018f5	68 00 00 00 00	 push	 __ehhandler$?DrawLine@CGdiEx@@UAEXPAUHDC__@@KMHHHHH@Z
  018fa	64 a1 00 00 00
	00		 mov	 eax, DWORD PTR fs:__except_list
  01900	50		 push	 eax
  01901	64 89 25 00 00
	00 00		 mov	 DWORD PTR fs:__except_list, esp
  01908	83 ec 1c	 sub	 esp, 28			; 0000001cH
  0190b	89 4d d8	 mov	 DWORD PTR _this$[ebp], ecx

; 729  : 	CDC * pDC = CDC::FromHandle(DC);

  0190e	8b 45 08	 mov	 eax, DWORD PTR _DC$[ebp]
  01911	50		 push	 eax
  01912	e8 00 00 00 00	 call	 ?FromHandle@CDC@@SGPAV1@PAUHDC__@@@Z ; CDC::FromHandle
  01917	89 45 f0	 mov	 DWORD PTR _pDC$[ebp], eax

; 730  : 	CPen Pen, *pOldPen;

  0191a	8d 4d e8	 lea	 ecx, DWORD PTR _Pen$[ebp]
  0191d	e8 00 00 00 00	 call	 ??0CPen@@QAE@XZ		; CPen::CPen
  01922	c7 45 fc 00 00
	00 00		 mov	 DWORD PTR __$EHRec$[ebp+8], 0

; 731  : 	Pen.CreatePen(PS_SOLID, afPenWidth, aColor);	

  01929	8b 4d 0c	 mov	 ecx, DWORD PTR _aColor$[ebp]
  0192c	51		 push	 ecx
  0192d	d9 45 10	 fld	 DWORD PTR _afPenWidth$[ebp]
  01930	e8 00 00 00 00	 call	 __ftol2
  01935	50		 push	 eax
  01936	6a 00		 push	 0
  01938	8d 4d e8	 lea	 ecx, DWORD PTR _Pen$[ebp]
  0193b	e8 00 00 00 00	 call	 ?CreatePen@CPen@@QAEHHHK@Z ; CPen::CreatePen

; 732  : 	pOldPen = pDC->SelectObject(&Pen);

  01940	8d 55 e8	 lea	 edx, DWORD PTR _Pen$[ebp]
  01943	52		 push	 edx
  01944	8b 4d f0	 mov	 ecx, DWORD PTR _pDC$[ebp]
  01947	e8 00 00 00 00	 call	 ?SelectObject@CDC@@QAEPAVCPen@@PAV2@@Z ; CDC::SelectObject
  0194c	89 45 e4	 mov	 DWORD PTR _pOldPen$[ebp], eax

; 733  : 
; 734  : 	pDC->MoveTo(aiBeginLeft, aiBeginTop);

  0194f	8b 45 18	 mov	 eax, DWORD PTR _aiBeginTop$[ebp]
  01952	50		 push	 eax
  01953	8b 4d 14	 mov	 ecx, DWORD PTR _aiBeginLeft$[ebp]
  01956	51		 push	 ecx
  01957	8d 55 dc	 lea	 edx, DWORD PTR $T198953[ebp]
  0195a	52		 push	 edx
  0195b	8b 4d f0	 mov	 ecx, DWORD PTR _pDC$[ebp]
  0195e	e8 00 00 00 00	 call	 ?MoveTo@CDC@@QAE?AVCPoint@@HH@Z ; CDC::MoveTo

; 735  : 	pDC->LineTo(aiEndLeft, aiEndTop);

  01963	8b 45 20	 mov	 eax, DWORD PTR _aiEndTop$[ebp]
  01966	50		 push	 eax
  01967	8b 4d 1c	 mov	 ecx, DWORD PTR _aiEndLeft$[ebp]
  0196a	51		 push	 ecx
  0196b	8b 4d f0	 mov	 ecx, DWORD PTR _pDC$[ebp]
  0196e	e8 00 00 00 00	 call	 ?LineTo@CDC@@QAEHHH@Z	; CDC::LineTo

; 736  : 	pDC->SelectObject(pOldPen);

  01973	8b 55 e4	 mov	 edx, DWORD PTR _pOldPen$[ebp]
  01976	52		 push	 edx
  01977	8b 4d f0	 mov	 ecx, DWORD PTR _pDC$[ebp]
  0197a	e8 00 00 00 00	 call	 ?SelectObject@CDC@@QAEPAVCPen@@PAV2@@Z ; CDC::SelectObject

; 737  : 	Pen.DeleteObject();

  0197f	8d 4d e8	 lea	 ecx, DWORD PTR _Pen$[ebp]
  01982	e8 00 00 00 00	 call	 ?DeleteObject@CGdiObject@@QAEHXZ ; CGdiObject::DeleteObject

; 738  : }

  01987	c7 45 fc ff ff
	ff ff		 mov	 DWORD PTR __$EHRec$[ebp+8], -1
  0198e	8d 4d e8	 lea	 ecx, DWORD PTR _Pen$[ebp]
  01991	e8 00 00 00 00	 call	 ??1CPen@@UAE@XZ		; CPen::~CPen
  01996	8b 4d f4	 mov	 ecx, DWORD PTR __$EHRec$[ebp]
  01999	64 89 0d 00 00
	00 00		 mov	 DWORD PTR fs:__except_list, ecx
  019a0	8b e5		 mov	 esp, ebp
  019a2	5d		 pop	 ebp
  019a3	c2 20 00	 ret	 32			; 00000020H
_TEXT	ENDS
text$x	SEGMENT
$L198954:
  00024	8d 4d e8	 lea	 ecx, DWORD PTR _Pen$[ebp]
  00027	e9 00 00 00 00	 jmp	 ??1CPen@@UAE@XZ		; CPen::~CPen
__ehhandler$?DrawLine@CGdiEx@@UAEXPAUHDC__@@KMHHHHH@Z:
  0002c	b8 00 00 00 00	 mov	 eax, OFFSET FLAT:$T198956
  00031	e9 00 00 00 00	 jmp	 ___CxxFrameHandler
text$x	ENDS
?DrawLine@CGdiEx@@UAEXPAUHDC__@@KMHHHHH@Z ENDP		; CGdiEx::DrawLine
PUBLIC	??0CPoint@@QAE@HH@Z				; CPoint::CPoint
PUBLIC	?Polygon@CDC@@QAEHPAUtagPOINT@@H@Z		; CDC::Polygon
xdata$x	SEGMENT
$T198965 DD	0ffffffffH
	DD	FLAT:$L198960
	DD	00H
	DD	FLAT:$L198961
$T198963 DD	019930520H
	DD	02H
	DD	FLAT:$T198965
	DD	2 DUP(00H)
	DD	2 DUP(00H)
; Function compile flags: /Odt
xdata$x	ENDS
_TEXT	SEGMENT
_this$ = -68						; size = 4
_pOldPen$ = -64						; size = 4
_pOldBrush$ = -60					; size = 4
_Pen$ = -56						; size = 8
_Points$ = -48						; size = 24
_pDC$ = -24						; size = 4
_Brush$ = -20						; size = 8
__$EHRec$ = -12						; size = 12
_DC$ = 8						; size = 4
_aColor$ = 12						; size = 4
_aiFirstLeft$ = 16					; size = 4
_aiFirstTop$ = 20					; size = 4
_aiSecondLeft$ = 24					; size = 4
_aiSecondTop$ = 28					; size = 4
_aiThirdLeft$ = 32					; size = 4
_aiThirdTop$ = 36					; size = 4
_aEclosion$ = 40					; size = 4
?DrawArrow@CGdiEx@@UAEXPAUHDC__@@KHHHHHHH@Z PROC NEAR	; CGdiEx::DrawArrow
; _this$ = ecx

; 741  : {

  019b0	55		 push	 ebp
  019b1	8b ec		 mov	 ebp, esp
  019b3	6a ff		 push	 -1
  019b5	68 00 00 00 00	 push	 __ehhandler$?DrawArrow@CGdiEx@@UAEXPAUHDC__@@KHHHHHHH@Z
  019ba	64 a1 00 00 00
	00		 mov	 eax, DWORD PTR fs:__except_list
  019c0	50		 push	 eax
  019c1	64 89 25 00 00
	00 00		 mov	 DWORD PTR fs:__except_list, esp
  019c8	83 ec 38	 sub	 esp, 56			; 00000038H
  019cb	89 4d bc	 mov	 DWORD PTR _this$[ebp], ecx

; 742  : 	CPoint Points[] = {CPoint(aiFirstLeft, aiFirstTop),

  019ce	8b 45 14	 mov	 eax, DWORD PTR _aiFirstTop$[ebp]
  019d1	50		 push	 eax
  019d2	8b 4d 10	 mov	 ecx, DWORD PTR _aiFirstLeft$[ebp]
  019d5	51		 push	 ecx
  019d6	8d 4d d0	 lea	 ecx, DWORD PTR _Points$[ebp]
  019d9	e8 00 00 00 00	 call	 ??0CPoint@@QAE@HH@Z	; CPoint::CPoint

; 743  : 		CPoint(aiSecondLeft, aiSecondTop),

  019de	8b 55 1c	 mov	 edx, DWORD PTR _aiSecondTop$[ebp]
  019e1	52		 push	 edx
  019e2	8b 45 18	 mov	 eax, DWORD PTR _aiSecondLeft$[ebp]
  019e5	50		 push	 eax
  019e6	8d 4d d8	 lea	 ecx, DWORD PTR _Points$[ebp+8]
  019e9	e8 00 00 00 00	 call	 ??0CPoint@@QAE@HH@Z	; CPoint::CPoint

; 744  : 		CPoint(aiThirdLeft, aiThirdTop),

  019ee	8b 4d 24	 mov	 ecx, DWORD PTR _aiThirdTop$[ebp]
  019f1	51		 push	 ecx
  019f2	8b 55 20	 mov	 edx, DWORD PTR _aiThirdLeft$[ebp]
  019f5	52		 push	 edx
  019f6	8d 4d e0	 lea	 ecx, DWORD PTR _Points$[ebp+16]
  019f9	e8 00 00 00 00	 call	 ??0CPoint@@QAE@HH@Z	; CPoint::CPoint

; 745  : 	};
; 746  : 
; 747  : 	CDC * pDC = CDC::FromHandle(DC);

  019fe	8b 45 08	 mov	 eax, DWORD PTR _DC$[ebp]
  01a01	50		 push	 eax
  01a02	e8 00 00 00 00	 call	 ?FromHandle@CDC@@SGPAV1@PAUHDC__@@@Z ; CDC::FromHandle
  01a07	89 45 e8	 mov	 DWORD PTR _pDC$[ebp], eax

; 748  : 	CBrush Brush, *pOldBrush;

  01a0a	8d 4d ec	 lea	 ecx, DWORD PTR _Brush$[ebp]
  01a0d	e8 00 00 00 00	 call	 ??0CBrush@@QAE@XZ	; CBrush::CBrush
  01a12	c7 45 fc 00 00
	00 00		 mov	 DWORD PTR __$EHRec$[ebp+8], 0

; 749  : 	Brush.CreateSolidBrush(aColor);

  01a19	8b 4d 0c	 mov	 ecx, DWORD PTR _aColor$[ebp]
  01a1c	51		 push	 ecx
  01a1d	8d 4d ec	 lea	 ecx, DWORD PTR _Brush$[ebp]
  01a20	e8 00 00 00 00	 call	 ?CreateSolidBrush@CBrush@@QAEHK@Z ; CBrush::CreateSolidBrush

; 750  : 	pOldBrush = pDC->SelectObject(&Brush);

  01a25	8d 55 ec	 lea	 edx, DWORD PTR _Brush$[ebp]
  01a28	52		 push	 edx
  01a29	8b 4d e8	 mov	 ecx, DWORD PTR _pDC$[ebp]
  01a2c	e8 00 00 00 00	 call	 ?SelectObject@CDC@@QAEPAVCBrush@@PAV2@@Z ; CDC::SelectObject
  01a31	89 45 c4	 mov	 DWORD PTR _pOldBrush$[ebp], eax

; 751  : 	CPen Pen, *pOldPen;

  01a34	8d 4d c8	 lea	 ecx, DWORD PTR _Pen$[ebp]
  01a37	e8 00 00 00 00	 call	 ??0CPen@@QAE@XZ		; CPen::CPen
  01a3c	c6 45 fc 01	 mov	 BYTE PTR __$EHRec$[ebp+8], 1

; 752  : 	Pen.CreatePen(PS_SOLID, 1, aColor);	

  01a40	8b 45 0c	 mov	 eax, DWORD PTR _aColor$[ebp]
  01a43	50		 push	 eax
  01a44	6a 01		 push	 1
  01a46	6a 00		 push	 0
  01a48	8d 4d c8	 lea	 ecx, DWORD PTR _Pen$[ebp]
  01a4b	e8 00 00 00 00	 call	 ?CreatePen@CPen@@QAEHHHK@Z ; CPen::CreatePen

; 753  : 	pOldPen = pDC->SelectObject(&Pen);

  01a50	8d 4d c8	 lea	 ecx, DWORD PTR _Pen$[ebp]
  01a53	51		 push	 ecx
  01a54	8b 4d e8	 mov	 ecx, DWORD PTR _pDC$[ebp]
  01a57	e8 00 00 00 00	 call	 ?SelectObject@CDC@@QAEPAVCPen@@PAV2@@Z ; CDC::SelectObject
  01a5c	89 45 c0	 mov	 DWORD PTR _pOldPen$[ebp], eax

; 754  : 
; 755  : 	pDC->Polygon(Points, 3);

  01a5f	6a 03		 push	 3
  01a61	8d 55 d0	 lea	 edx, DWORD PTR _Points$[ebp]
  01a64	52		 push	 edx
  01a65	8b 4d e8	 mov	 ecx, DWORD PTR _pDC$[ebp]
  01a68	e8 00 00 00 00	 call	 ?Polygon@CDC@@QAEHPAUtagPOINT@@H@Z ; CDC::Polygon

; 756  : 	pDC->SelectObject(pOldBrush);

  01a6d	8b 45 c4	 mov	 eax, DWORD PTR _pOldBrush$[ebp]
  01a70	50		 push	 eax
  01a71	8b 4d e8	 mov	 ecx, DWORD PTR _pDC$[ebp]
  01a74	e8 00 00 00 00	 call	 ?SelectObject@CDC@@QAEPAVCBrush@@PAV2@@Z ; CDC::SelectObject

; 757  : 	pDC->SelectObject(pOldPen);

  01a79	8b 4d c0	 mov	 ecx, DWORD PTR _pOldPen$[ebp]
  01a7c	51		 push	 ecx
  01a7d	8b 4d e8	 mov	 ecx, DWORD PTR _pDC$[ebp]
  01a80	e8 00 00 00 00	 call	 ?SelectObject@CDC@@QAEPAVCPen@@PAV2@@Z ; CDC::SelectObject

; 758  : 
; 759  : 	Pen.DeleteObject();

  01a85	8d 4d c8	 lea	 ecx, DWORD PTR _Pen$[ebp]
  01a88	e8 00 00 00 00	 call	 ?DeleteObject@CGdiObject@@QAEHXZ ; CGdiObject::DeleteObject

; 760  : 	Brush.DeleteObject();

  01a8d	8d 4d ec	 lea	 ecx, DWORD PTR _Brush$[ebp]
  01a90	e8 00 00 00 00	 call	 ?DeleteObject@CGdiObject@@QAEHXZ ; CGdiObject::DeleteObject

; 761  : }

  01a95	c6 45 fc 00	 mov	 BYTE PTR __$EHRec$[ebp+8], 0
  01a99	8d 4d c8	 lea	 ecx, DWORD PTR _Pen$[ebp]
  01a9c	e8 00 00 00 00	 call	 ??1CPen@@UAE@XZ		; CPen::~CPen
  01aa1	c7 45 fc ff ff
	ff ff		 mov	 DWORD PTR __$EHRec$[ebp+8], -1
  01aa8	8d 4d ec	 lea	 ecx, DWORD PTR _Brush$[ebp]
  01aab	e8 00 00 00 00	 call	 ??1CBrush@@UAE@XZ	; CBrush::~CBrush
  01ab0	8b 4d f4	 mov	 ecx, DWORD PTR __$EHRec$[ebp]
  01ab3	64 89 0d 00 00
	00 00		 mov	 DWORD PTR fs:__except_list, ecx
  01aba	8b e5		 mov	 esp, ebp
  01abc	5d		 pop	 ebp
  01abd	c2 24 00	 ret	 36			; 00000024H
_TEXT	ENDS
text$x	SEGMENT
$L198960:
  00036	8d 4d ec	 lea	 ecx, DWORD PTR _Brush$[ebp]
  00039	e9 00 00 00 00	 jmp	 ??1CBrush@@UAE@XZ	; CBrush::~CBrush
$L198961:
  0003e	8d 4d c8	 lea	 ecx, DWORD PTR _Pen$[ebp]
  00041	e9 00 00 00 00	 jmp	 ??1CPen@@UAE@XZ		; CPen::~CPen
__ehhandler$?DrawArrow@CGdiEx@@UAEXPAUHDC__@@KHHHHHHH@Z:
  00046	b8 00 00 00 00	 mov	 eax, OFFSET FLAT:$T198963
  0004b	e9 00 00 00 00	 jmp	 ___CxxFrameHandler
text$x	ENDS
?DrawArrow@CGdiEx@@UAEXPAUHDC__@@KHHHHHHH@Z ENDP	; CGdiEx::DrawArrow
PUBLIC	?SetPixel@CDC@@QAEKHHK@Z			; CDC::SetPixel
EXTRN	?SetROP2@CDC@@QAEHH@Z:NEAR			; CDC::SetROP2
xdata$x	SEGMENT
$T198971 DD	0ffffffffH
	DD	FLAT:$L198967
$T198969 DD	019930520H
	DD	01H
	DD	FLAT:$T198971
	DD	2 DUP(00H)
	DD	2 DUP(00H)
; Function compile flags: /Odt
xdata$x	ENDS
_TEXT	SEGMENT
_this$ = -68						; size = 4
_j$197973 = -64						; size = 4
_i$197972 = -60						; size = 4
_j$197968 = -56						; size = 4
_i$197967 = -52						; size = 4
_j$197963 = -48						; size = 4
_i$197962 = -44						; size = 4
_j$197958 = -40						; size = 4
_i$197957 = -36						; size = 4
_pOldPen$ = -32						; size = 4
_Pen$ = -28						; size = 8
_pDC$ = -20						; size = 4
_nRop$ = -16						; size = 4
__$EHRec$ = -12						; size = 12
_DC$ = 8						; size = 4
_aRect$ = 12						; size = 4
?DrawPointFrameXOR@CGdiEx@@UAEXPAUHDC__@@AAUtagRECT@@@Z PROC NEAR ; CGdiEx::DrawPointFrameXOR
; _this$ = ecx

; 763  : {

  01ac0	55		 push	 ebp
  01ac1	8b ec		 mov	 ebp, esp
  01ac3	6a ff		 push	 -1
  01ac5	68 00 00 00 00	 push	 __ehhandler$?DrawPointFrameXOR@CGdiEx@@UAEXPAUHDC__@@AAUtagRECT@@@Z
  01aca	64 a1 00 00 00
	00		 mov	 eax, DWORD PTR fs:__except_list
  01ad0	50		 push	 eax
  01ad1	64 89 25 00 00
	00 00		 mov	 DWORD PTR fs:__except_list, esp
  01ad8	83 ec 38	 sub	 esp, 56			; 00000038H
  01adb	89 4d bc	 mov	 DWORD PTR _this$[ebp], ecx

; 764  : 	CDC * pDC = CDC::FromHandle(DC);

  01ade	8b 45 08	 mov	 eax, DWORD PTR _DC$[ebp]
  01ae1	50		 push	 eax
  01ae2	e8 00 00 00 00	 call	 ?FromHandle@CDC@@SGPAV1@PAUHDC__@@@Z ; CDC::FromHandle
  01ae7	89 45 ec	 mov	 DWORD PTR _pDC$[ebp], eax

; 765  : 
; 766  : 	int nRop = pDC->SetROP2(R2_NOTXORPEN);

  01aea	6a 0a		 push	 10			; 0000000aH
  01aec	8b 4d ec	 mov	 ecx, DWORD PTR _pDC$[ebp]
  01aef	e8 00 00 00 00	 call	 ?SetROP2@CDC@@QAEHH@Z	; CDC::SetROP2
  01af4	89 45 f0	 mov	 DWORD PTR _nRop$[ebp], eax

; 767  : 	CPen Pen, *pOldPen;

  01af7	8d 4d e4	 lea	 ecx, DWORD PTR _Pen$[ebp]
  01afa	e8 00 00 00 00	 call	 ??0CPen@@QAE@XZ		; CPen::CPen
  01aff	c7 45 fc 00 00
	00 00		 mov	 DWORD PTR __$EHRec$[ebp+8], 0

; 768  : 	Pen.CreatePen(0, 1, RGB(0, 0, 0));

  01b06	6a 00		 push	 0
  01b08	6a 01		 push	 1
  01b0a	6a 00		 push	 0
  01b0c	8d 4d e4	 lea	 ecx, DWORD PTR _Pen$[ebp]
  01b0f	e8 00 00 00 00	 call	 ?CreatePen@CPen@@QAEHHHK@Z ; CPen::CreatePen

; 769  : 	pOldPen = pDC->SelectObject(&Pen);

  01b14	8d 4d e4	 lea	 ecx, DWORD PTR _Pen$[ebp]
  01b17	51		 push	 ecx
  01b18	8b 4d ec	 mov	 ecx, DWORD PTR _pDC$[ebp]
  01b1b	e8 00 00 00 00	 call	 ?SelectObject@CDC@@QAEPAVCPen@@PAV2@@Z ; CDC::SelectObject
  01b20	89 45 e0	 mov	 DWORD PTR _pOldPen$[ebp], eax

; 770  : 
; 771  : 	for( int i= aRect.left+1, int j=aRect.top; i<aRect.right; i++ )

  01b23	8b 55 0c	 mov	 edx, DWORD PTR _aRect$[ebp]
  01b26	8b 02		 mov	 eax, DWORD PTR [edx]
  01b28	83 c0 01	 add	 eax, 1
  01b2b	89 45 dc	 mov	 DWORD PTR _i$197957[ebp], eax
  01b2e	8b 4d 0c	 mov	 ecx, DWORD PTR _aRect$[ebp]
  01b31	8b 51 04	 mov	 edx, DWORD PTR [ecx+4]
  01b34	89 55 d8	 mov	 DWORD PTR _j$197958[ebp], edx
  01b37	eb 09		 jmp	 SHORT $L197959
$L197960:
  01b39	8b 45 dc	 mov	 eax, DWORD PTR _i$197957[ebp]
  01b3c	83 c0 01	 add	 eax, 1
  01b3f	89 45 dc	 mov	 DWORD PTR _i$197957[ebp], eax
$L197959:
  01b42	8b 4d 0c	 mov	 ecx, DWORD PTR _aRect$[ebp]
  01b45	8b 55 dc	 mov	 edx, DWORD PTR _i$197957[ebp]
  01b48	3b 51 08	 cmp	 edx, DWORD PTR [ecx+8]
  01b4b	7d 1d		 jge	 SHORT $L197961

; 772  : 	{
; 773  : 		pDC->SetPixel(i,j,0);

  01b4d	6a 00		 push	 0
  01b4f	8b 45 d8	 mov	 eax, DWORD PTR _j$197958[ebp]
  01b52	50		 push	 eax
  01b53	8b 4d dc	 mov	 ecx, DWORD PTR _i$197957[ebp]
  01b56	51		 push	 ecx
  01b57	8b 4d ec	 mov	 ecx, DWORD PTR _pDC$[ebp]
  01b5a	e8 00 00 00 00	 call	 ?SetPixel@CDC@@QAEKHHK@Z ; CDC::SetPixel

; 774  : 		i++;

  01b5f	8b 55 dc	 mov	 edx, DWORD PTR _i$197957[ebp]
  01b62	83 c2 01	 add	 edx, 1
  01b65	89 55 dc	 mov	 DWORD PTR _i$197957[ebp], edx

; 775  : 	}

  01b68	eb cf		 jmp	 SHORT $L197960
$L197961:

; 776  : 	for( int i= aRect.right, int j=aRect.top+1; j<aRect.bottom; j++ )

  01b6a	8b 45 0c	 mov	 eax, DWORD PTR _aRect$[ebp]
  01b6d	8b 48 08	 mov	 ecx, DWORD PTR [eax+8]
  01b70	89 4d d4	 mov	 DWORD PTR _i$197962[ebp], ecx
  01b73	8b 55 0c	 mov	 edx, DWORD PTR _aRect$[ebp]
  01b76	8b 42 04	 mov	 eax, DWORD PTR [edx+4]
  01b79	83 c0 01	 add	 eax, 1
  01b7c	89 45 d0	 mov	 DWORD PTR _j$197963[ebp], eax
  01b7f	eb 09		 jmp	 SHORT $L197964
$L197965:
  01b81	8b 4d d0	 mov	 ecx, DWORD PTR _j$197963[ebp]
  01b84	83 c1 01	 add	 ecx, 1
  01b87	89 4d d0	 mov	 DWORD PTR _j$197963[ebp], ecx
$L197964:
  01b8a	8b 55 0c	 mov	 edx, DWORD PTR _aRect$[ebp]
  01b8d	8b 45 d0	 mov	 eax, DWORD PTR _j$197963[ebp]
  01b90	3b 42 0c	 cmp	 eax, DWORD PTR [edx+12]
  01b93	7d 1d		 jge	 SHORT $L197966

; 777  : 	{
; 778  : 		pDC->SetPixel(i,j,0 );

  01b95	6a 00		 push	 0
  01b97	8b 4d d0	 mov	 ecx, DWORD PTR _j$197963[ebp]
  01b9a	51		 push	 ecx
  01b9b	8b 55 d4	 mov	 edx, DWORD PTR _i$197962[ebp]
  01b9e	52		 push	 edx
  01b9f	8b 4d ec	 mov	 ecx, DWORD PTR _pDC$[ebp]
  01ba2	e8 00 00 00 00	 call	 ?SetPixel@CDC@@QAEKHHK@Z ; CDC::SetPixel

; 779  : 		j++;

  01ba7	8b 45 d0	 mov	 eax, DWORD PTR _j$197963[ebp]
  01baa	83 c0 01	 add	 eax, 1
  01bad	89 45 d0	 mov	 DWORD PTR _j$197963[ebp], eax

; 780  : 	}

  01bb0	eb cf		 jmp	 SHORT $L197965
$L197966:

; 781  : 	for( int i= aRect.right-1, int j=aRect.bottom; i>aRect.left; i-- )

  01bb2	8b 4d 0c	 mov	 ecx, DWORD PTR _aRect$[ebp]
  01bb5	8b 51 08	 mov	 edx, DWORD PTR [ecx+8]
  01bb8	83 ea 01	 sub	 edx, 1
  01bbb	89 55 cc	 mov	 DWORD PTR _i$197967[ebp], edx
  01bbe	8b 45 0c	 mov	 eax, DWORD PTR _aRect$[ebp]
  01bc1	8b 48 0c	 mov	 ecx, DWORD PTR [eax+12]
  01bc4	89 4d c8	 mov	 DWORD PTR _j$197968[ebp], ecx
  01bc7	eb 09		 jmp	 SHORT $L197969
$L197970:
  01bc9	8b 55 cc	 mov	 edx, DWORD PTR _i$197967[ebp]
  01bcc	83 ea 01	 sub	 edx, 1
  01bcf	89 55 cc	 mov	 DWORD PTR _i$197967[ebp], edx
$L197969:
  01bd2	8b 45 0c	 mov	 eax, DWORD PTR _aRect$[ebp]
  01bd5	8b 4d cc	 mov	 ecx, DWORD PTR _i$197967[ebp]
  01bd8	3b 08		 cmp	 ecx, DWORD PTR [eax]
  01bda	7e 1d		 jle	 SHORT $L197971

; 782  : 	{
; 783  : 		pDC->SetPixel(i,j,0);

  01bdc	6a 00		 push	 0
  01bde	8b 55 c8	 mov	 edx, DWORD PTR _j$197968[ebp]
  01be1	52		 push	 edx
  01be2	8b 45 cc	 mov	 eax, DWORD PTR _i$197967[ebp]
  01be5	50		 push	 eax
  01be6	8b 4d ec	 mov	 ecx, DWORD PTR _pDC$[ebp]
  01be9	e8 00 00 00 00	 call	 ?SetPixel@CDC@@QAEKHHK@Z ; CDC::SetPixel

; 784  : 		i--;

  01bee	8b 4d cc	 mov	 ecx, DWORD PTR _i$197967[ebp]
  01bf1	83 e9 01	 sub	 ecx, 1
  01bf4	89 4d cc	 mov	 DWORD PTR _i$197967[ebp], ecx

; 785  : 	}

  01bf7	eb d0		 jmp	 SHORT $L197970
$L197971:

; 786  : 	for( int i= aRect.left, int j=aRect.bottom-1; j>aRect.top; j-- )

  01bf9	8b 55 0c	 mov	 edx, DWORD PTR _aRect$[ebp]
  01bfc	8b 02		 mov	 eax, DWORD PTR [edx]
  01bfe	89 45 c4	 mov	 DWORD PTR _i$197972[ebp], eax
  01c01	8b 4d 0c	 mov	 ecx, DWORD PTR _aRect$[ebp]
  01c04	8b 51 0c	 mov	 edx, DWORD PTR [ecx+12]
  01c07	83 ea 01	 sub	 edx, 1
  01c0a	89 55 c0	 mov	 DWORD PTR _j$197973[ebp], edx
  01c0d	eb 09		 jmp	 SHORT $L197974
$L197975:
  01c0f	8b 45 c0	 mov	 eax, DWORD PTR _j$197973[ebp]
  01c12	83 e8 01	 sub	 eax, 1
  01c15	89 45 c0	 mov	 DWORD PTR _j$197973[ebp], eax
$L197974:
  01c18	8b 4d 0c	 mov	 ecx, DWORD PTR _aRect$[ebp]
  01c1b	8b 55 c0	 mov	 edx, DWORD PTR _j$197973[ebp]
  01c1e	3b 51 04	 cmp	 edx, DWORD PTR [ecx+4]
  01c21	7e 1d		 jle	 SHORT $L197976

; 787  : 	{
; 788  : 		pDC->SetPixel(i,j,0);

  01c23	6a 00		 push	 0
  01c25	8b 45 c0	 mov	 eax, DWORD PTR _j$197973[ebp]
  01c28	50		 push	 eax
  01c29	8b 4d c4	 mov	 ecx, DWORD PTR _i$197972[ebp]
  01c2c	51		 push	 ecx
  01c2d	8b 4d ec	 mov	 ecx, DWORD PTR _pDC$[ebp]
  01c30	e8 00 00 00 00	 call	 ?SetPixel@CDC@@QAEKHHK@Z ; CDC::SetPixel

; 789  : 		j--;

  01c35	8b 55 c0	 mov	 edx, DWORD PTR _j$197973[ebp]
  01c38	83 ea 01	 sub	 edx, 1
  01c3b	89 55 c0	 mov	 DWORD PTR _j$197973[ebp], edx

; 790  : 	}

  01c3e	eb cf		 jmp	 SHORT $L197975
$L197976:

; 791  : 	pDC->SetROP2(nRop);

  01c40	8b 45 f0	 mov	 eax, DWORD PTR _nRop$[ebp]
  01c43	50		 push	 eax
  01c44	8b 4d ec	 mov	 ecx, DWORD PTR _pDC$[ebp]
  01c47	e8 00 00 00 00	 call	 ?SetROP2@CDC@@QAEHH@Z	; CDC::SetROP2

; 792  : 	pDC->SelectObject(pOldPen);

  01c4c	8b 4d e0	 mov	 ecx, DWORD PTR _pOldPen$[ebp]
  01c4f	51		 push	 ecx
  01c50	8b 4d ec	 mov	 ecx, DWORD PTR _pDC$[ebp]
  01c53	e8 00 00 00 00	 call	 ?SelectObject@CDC@@QAEPAVCPen@@PAV2@@Z ; CDC::SelectObject

; 793  : 	Pen.DeleteObject();

  01c58	8d 4d e4	 lea	 ecx, DWORD PTR _Pen$[ebp]
  01c5b	e8 00 00 00 00	 call	 ?DeleteObject@CGdiObject@@QAEHXZ ; CGdiObject::DeleteObject

; 794  : }

  01c60	c7 45 fc ff ff
	ff ff		 mov	 DWORD PTR __$EHRec$[ebp+8], -1
  01c67	8d 4d e4	 lea	 ecx, DWORD PTR _Pen$[ebp]
  01c6a	e8 00 00 00 00	 call	 ??1CPen@@UAE@XZ		; CPen::~CPen
  01c6f	8b 4d f4	 mov	 ecx, DWORD PTR __$EHRec$[ebp]
  01c72	64 89 0d 00 00
	00 00		 mov	 DWORD PTR fs:__except_list, ecx
  01c79	8b e5		 mov	 esp, ebp
  01c7b	5d		 pop	 ebp
  01c7c	c2 08 00	 ret	 8
_TEXT	ENDS
text$x	SEGMENT
$L198967:
  00050	8d 4d e4	 lea	 ecx, DWORD PTR _Pen$[ebp]
  00053	e9 00 00 00 00	 jmp	 ??1CPen@@UAE@XZ		; CPen::~CPen
__ehhandler$?DrawPointFrameXOR@CGdiEx@@UAEXPAUHDC__@@AAUtagRECT@@@Z:
  00058	b8 00 00 00 00	 mov	 eax, OFFSET FLAT:$T198969
  0005d	e9 00 00 00 00	 jmp	 ___CxxFrameHandler
text$x	ENDS
?DrawPointFrameXOR@CGdiEx@@UAEXPAUHDC__@@AAUtagRECT@@@Z ENDP ; CGdiEx::DrawPointFrameXOR
PUBLIC	?GetTextColor@CDC@@QBEKXZ			; CDC::GetTextColor
PUBLIC	??0CFont@@QAE@XZ				; CFont::CFont
PUBLIC	?CreateFontIndirectA@CFont@@QAEHPBUtagLOGFONTA@@@Z ; CFont::CreateFontIndirectA
PUBLIC	??1CFont@@UAE@XZ				; CFont::~CFont
EXTRN	__imp_??B?$CSimpleStringT@D$00@ATL@@QBEPBDXZ:NEAR
EXTRN	__imp_?GetLength@?$CSimpleStringT@D$00@ATL@@QBEHXZ:NEAR
EXTRN	__imp__SetBkMode@8:NEAR
EXTRN	__imp__DrawTextA@20:NEAR
EXTRN	__imp_??1?$CStringT@DV?$StrTraitMFC_DLL@DV?$ChTraitsCRT@D@ATL@@@@@ATL@@QAE@XZ:NEAR
EXTRN	__imp__GetDeviceCaps@8:NEAR
EXTRN	_memset:NEAR
EXTRN	__imp__MulDiv@12:NEAR
xdata$x	SEGMENT
$T198980 DD	0ffffffffH
	DD	FLAT:$L198974
	DD	00H
	DD	FLAT:$L198975
$T198977 DD	019930520H
	DD	02H
	DD	FLAT:$T198980
	DD	2 DUP(00H)
	DD	2 DUP(00H)
; Function compile flags: /Odt
xdata$x	ENDS
_TEXT	SEGMENT
_this$ = -96						; size = 4
_oldFont$ = -92						; size = 4
_font$ = -88						; size = 8
_lf$ = -80						; size = 60
__$ArrayPad$ = -20					; size = 4
_ltempColor$ = -16					; size = 4
__$EHRec$ = -12						; size = 12
__$ReturnAddr$ = 4					; size = 4
_apDC$ = 8						; size = 4
_astrText$ = 12						; size = 4
_acolText$ = 16						; size = 4
_lrectText$ = 20					; size = 4
?DrawTextA@CGdiEx@@UAEXPAVCDC@@V?$CStringT@DV?$StrTraitMFC_DLL@DV?$ChTraitsCRT@D@ATL@@@@@ATL@@KAAUtagRECT@@@Z PROC NEAR ; CGdiEx::DrawTextA
; _this$ = ecx

; 796  : {

  01c80	55		 push	 ebp
  01c81	8b ec		 mov	 ebp, esp
  01c83	6a ff		 push	 -1
  01c85	68 00 00 00 00	 push	 __ehhandler$?DrawTextA@CGdiEx@@UAEXPAVCDC@@V?$CStringT@DV?$StrTraitMFC_DLL@DV?$ChTraitsCRT@D@ATL@@@@@ATL@@KAAUtagRECT@@@Z
  01c8a	64 a1 00 00 00
	00		 mov	 eax, DWORD PTR fs:__except_list
  01c90	50		 push	 eax
  01c91	64 89 25 00 00
	00 00		 mov	 DWORD PTR fs:__except_list, esp
  01c98	83 ec 54	 sub	 esp, 84			; 00000054H
  01c9b	a1 00 00 00 00	 mov	 eax, DWORD PTR ___security_cookie
  01ca0	89 45 ec	 mov	 DWORD PTR __$ArrayPad$[ebp], eax
  01ca3	89 4d a0	 mov	 DWORD PTR _this$[ebp], ecx
  01ca6	c7 45 fc 00 00
	00 00		 mov	 DWORD PTR __$EHRec$[ebp+8], 0

; 797  : 	
; 798  : 	if( !(apDC->m_hDC) ) return; 

  01cad	8b 45 08	 mov	 eax, DWORD PTR _apDC$[ebp]
  01cb0	83 78 04 00	 cmp	 DWORD PTR [eax+4], 0
  01cb4	75 15		 jne	 SHORT $L197984
  01cb6	c7 45 fc ff ff
	ff ff		 mov	 DWORD PTR __$EHRec$[ebp+8], -1
  01cbd	8d 4d 0c	 lea	 ecx, DWORD PTR _astrText$[ebp]
  01cc0	ff 15 00 00 00
	00		 call	 DWORD PTR __imp_??1?$CStringT@DV?$StrTraitMFC_DLL@DV?$ChTraitsCRT@D@ATL@@@@@ATL@@QAE@XZ
  01cc6	e9 09 01 00 00	 jmp	 $L197983
$L197984:

; 799  : 	apDC->SetTextColor(acolText);

  01ccb	8b 4d 10	 mov	 ecx, DWORD PTR _acolText$[ebp]
  01cce	51		 push	 ecx
  01ccf	8b 55 08	 mov	 edx, DWORD PTR _apDC$[ebp]
  01cd2	8b 02		 mov	 eax, DWORD PTR [edx]
  01cd4	8b 4d 08	 mov	 ecx, DWORD PTR _apDC$[ebp]
  01cd7	ff 50 38	 call	 DWORD PTR [eax+56]

; 800  : 	SetBkMode(apDC->m_hDC, TRANSPARENT);

  01cda	6a 01		 push	 1
  01cdc	8b 4d 08	 mov	 ecx, DWORD PTR _apDC$[ebp]
  01cdf	8b 51 04	 mov	 edx, DWORD PTR [ecx+4]
  01ce2	52		 push	 edx
  01ce3	ff 15 00 00 00
	00		 call	 DWORD PTR __imp__SetBkMode@8

; 801  : 	COLORREF ltempColor = apDC->GetTextColor();

  01ce9	8b 4d 08	 mov	 ecx, DWORD PTR _apDC$[ebp]
  01cec	e8 00 00 00 00	 call	 ?GetTextColor@CDC@@QBEKXZ ; CDC::GetTextColor
  01cf1	89 45 f0	 mov	 DWORD PTR _ltempColor$[ebp], eax

; 802  : 	LOGFONT  lf;
; 803  : 	ZeroMemory(&lf,sizeof(lf));

  01cf4	6a 3c		 push	 60			; 0000003cH
  01cf6	6a 00		 push	 0
  01cf8	8d 45 b0	 lea	 eax, DWORD PTR _lf$[ebp]
  01cfb	50		 push	 eax
  01cfc	e8 00 00 00 00	 call	 _memset
  01d01	83 c4 0c	 add	 esp, 12			; 0000000cH

; 804  : 	lf.lfHeight=-MulDiv(9,GetDeviceCaps(apDC->m_hDC,LOGPIXELSY),72);

  01d04	6a 48		 push	 72			; 00000048H
  01d06	6a 5a		 push	 90			; 0000005aH
  01d08	8b 4d 08	 mov	 ecx, DWORD PTR _apDC$[ebp]
  01d0b	8b 51 04	 mov	 edx, DWORD PTR [ecx+4]
  01d0e	52		 push	 edx
  01d0f	ff 15 00 00 00
	00		 call	 DWORD PTR __imp__GetDeviceCaps@8
  01d15	50		 push	 eax
  01d16	6a 09		 push	 9
  01d18	ff 15 00 00 00
	00		 call	 DWORD PTR __imp__MulDiv@12
  01d1e	f7 d8		 neg	 eax
  01d20	89 45 b0	 mov	 DWORD PTR _lf$[ebp], eax

; 805  : 	lf.lfWeight=FW_MEDIUM;

  01d23	c7 45 c0 f4 01
	00 00		 mov	 DWORD PTR _lf$[ebp+16], 500 ; 000001f4H

; 806  : 	lf.lfCharSet=GB2312_CHARSET;

  01d2a	c6 45 c7 86	 mov	 BYTE PTR _lf$[ebp+23], 134 ; 00000086H

; 807  : 	lf.lfOutPrecision=OUT_DEFAULT_PRECIS;

  01d2e	c6 45 c8 00	 mov	 BYTE PTR _lf$[ebp+24], 0

; 808  : 	lf.lfClipPrecision=CLIP_DEFAULT_PRECIS;

  01d32	c6 45 c9 00	 mov	 BYTE PTR _lf$[ebp+25], 0

; 809  : 	lf.lfQuality=PROOF_QUALITY;

  01d36	c6 45 ca 02	 mov	 BYTE PTR _lf$[ebp+26], 2

; 810  : 	lf.lfPitchAndFamily=FF_DONTCARE | DEFAULT_PITCH;

  01d3a	c6 45 cb 00	 mov	 BYTE PTR _lf$[ebp+27], 0

; 811  : 	CFont font;

  01d3e	8d 4d a8	 lea	 ecx, DWORD PTR _font$[ebp]
  01d41	e8 00 00 00 00	 call	 ??0CFont@@QAE@XZ	; CFont::CFont
  01d46	c6 45 fc 01	 mov	 BYTE PTR __$EHRec$[ebp+8], 1

; 812  : 	font.CreateFontIndirect(&lf);

  01d4a	8d 45 b0	 lea	 eax, DWORD PTR _lf$[ebp]
  01d4d	50		 push	 eax
  01d4e	8d 4d a8	 lea	 ecx, DWORD PTR _font$[ebp]
  01d51	e8 00 00 00 00	 call	 ?CreateFontIndirectA@CFont@@QAEHPBUtagLOGFONTA@@@Z ; CFont::CreateFontIndirectA

; 813  : 	CFont* oldFont = (CFont*)apDC->SelectObject(&font);

  01d56	8d 4d a8	 lea	 ecx, DWORD PTR _font$[ebp]
  01d59	51		 push	 ecx
  01d5a	8b 55 08	 mov	 edx, DWORD PTR _apDC$[ebp]
  01d5d	8b 02		 mov	 eax, DWORD PTR [edx]
  01d5f	8b 4d 08	 mov	 ecx, DWORD PTR _apDC$[ebp]
  01d62	ff 50 30	 call	 DWORD PTR [eax+48]
  01d65	89 45 a4	 mov	 DWORD PTR _oldFont$[ebp], eax

; 814  : 	::DrawText(
; 815  : 		apDC->m_hDC,
; 816  : 		astrText,
; 817  : 		astrText.GetLength(),
; 818  : 		&lrectText,
; 819  : 		DT_LEFT | DT_VCENTER | DT_SINGLELINE | DT_END_ELLIPSIS
; 820  : 		);

  01d68	68 24 80 00 00	 push	 32804			; 00008024H
  01d6d	8b 4d 14	 mov	 ecx, DWORD PTR _lrectText$[ebp]
  01d70	51		 push	 ecx
  01d71	8d 4d 0c	 lea	 ecx, DWORD PTR _astrText$[ebp]
  01d74	ff 15 00 00 00
	00		 call	 DWORD PTR __imp_?GetLength@?$CSimpleStringT@D$00@ATL@@QBEHXZ
  01d7a	50		 push	 eax
  01d7b	8d 4d 0c	 lea	 ecx, DWORD PTR _astrText$[ebp]
  01d7e	ff 15 00 00 00
	00		 call	 DWORD PTR __imp_??B?$CSimpleStringT@D$00@ATL@@QBEPBDXZ
  01d84	50		 push	 eax
  01d85	8b 55 08	 mov	 edx, DWORD PTR _apDC$[ebp]
  01d88	8b 42 04	 mov	 eax, DWORD PTR [edx+4]
  01d8b	50		 push	 eax
  01d8c	ff 15 00 00 00
	00		 call	 DWORD PTR __imp__DrawTextA@20

; 821  : 	apDC->SetTextColor(ltempColor);

  01d92	8b 4d f0	 mov	 ecx, DWORD PTR _ltempColor$[ebp]
  01d95	51		 push	 ecx
  01d96	8b 55 08	 mov	 edx, DWORD PTR _apDC$[ebp]
  01d99	8b 02		 mov	 eax, DWORD PTR [edx]
  01d9b	8b 4d 08	 mov	 ecx, DWORD PTR _apDC$[ebp]
  01d9e	ff 50 38	 call	 DWORD PTR [eax+56]

; 822  : 	apDC->SelectObject(oldFont);

  01da1	8b 4d a4	 mov	 ecx, DWORD PTR _oldFont$[ebp]
  01da4	51		 push	 ecx
  01da5	8b 55 08	 mov	 edx, DWORD PTR _apDC$[ebp]
  01da8	8b 02		 mov	 eax, DWORD PTR [edx]
  01daa	8b 4d 08	 mov	 ecx, DWORD PTR _apDC$[ebp]
  01dad	ff 50 30	 call	 DWORD PTR [eax+48]

; 823  : 	font.DeleteObject();

  01db0	8d 4d a8	 lea	 ecx, DWORD PTR _font$[ebp]
  01db3	e8 00 00 00 00	 call	 ?DeleteObject@CGdiObject@@QAEHXZ ; CGdiObject::DeleteObject

; 824  : }

  01db8	c6 45 fc 00	 mov	 BYTE PTR __$EHRec$[ebp+8], 0
  01dbc	8d 4d a8	 lea	 ecx, DWORD PTR _font$[ebp]
  01dbf	e8 00 00 00 00	 call	 ??1CFont@@UAE@XZ	; CFont::~CFont
  01dc4	c7 45 fc ff ff
	ff ff		 mov	 DWORD PTR __$EHRec$[ebp+8], -1
  01dcb	8d 4d 0c	 lea	 ecx, DWORD PTR _astrText$[ebp]
  01dce	ff 15 00 00 00
	00		 call	 DWORD PTR __imp_??1?$CStringT@DV?$StrTraitMFC_DLL@DV?$ChTraitsCRT@D@ATL@@@@@ATL@@QAE@XZ
$L197983:
  01dd4	8b 4d f4	 mov	 ecx, DWORD PTR __$EHRec$[ebp]
  01dd7	64 89 0d 00 00
	00 00		 mov	 DWORD PTR fs:__except_list, ecx
  01dde	8b 4d ec	 mov	 ecx, DWORD PTR __$ArrayPad$[ebp]
  01de1	e8 00 00 00 00	 call	 @__security_check_cookie@4
  01de6	8b e5		 mov	 esp, ebp
  01de8	5d		 pop	 ebp
  01de9	c2 10 00	 ret	 16			; 00000010H
_TEXT	ENDS
text$x	SEGMENT
$L198974:
  00062	8d 4d 0c	 lea	 ecx, DWORD PTR _astrText$[ebp]
  00065	ff 25 00 00 00
	00		 jmp	 DWORD PTR __imp_??1?$CStringT@DV?$StrTraitMFC_DLL@DV?$ChTraitsCRT@D@ATL@@@@@ATL@@QAE@XZ
$L198975:
  0006b	8d 4d a8	 lea	 ecx, DWORD PTR _font$[ebp]
  0006e	e9 00 00 00 00	 jmp	 ??1CFont@@UAE@XZ	; CFont::~CFont
__ehhandler$?DrawTextA@CGdiEx@@UAEXPAVCDC@@V?$CStringT@DV?$StrTraitMFC_DLL@DV?$ChTraitsCRT@D@ATL@@@@@ATL@@KAAUtagRECT@@@Z:
  00073	b8 00 00 00 00	 mov	 eax, OFFSET FLAT:$T198977
  00078	e9 00 00 00 00	 jmp	 ___CxxFrameHandler
text$x	ENDS
?DrawTextA@CGdiEx@@UAEXPAVCDC@@V?$CStringT@DV?$StrTraitMFC_DLL@DV?$ChTraitsCRT@D@ATL@@@@@ATL@@KAAUtagRECT@@@Z ENDP ; CGdiEx::DrawTextA
; Function compile flags: /Odt
_TEXT	SEGMENT
_this$ = -12						; size = 4
_oldFont$ = -8						; size = 4
_ltempColor$ = -4					; size = 4
_apDC$ = 8						; size = 4
_astrText$ = 12						; size = 4
_acolText$ = 16						; size = 4
_lrectText$ = 20					; size = 4
_font$ = 24						; size = 4
_maxX$ = 28						; size = 4
_maxY$ = 32						; size = 4
_anFormat$ = 36						; size = 4
?DrawTextQuick@CGdiEx@@UAEXPAVCDC@@AAV?$CStringT@DV?$StrTraitMFC_DLL@DV?$ChTraitsCRT@D@ATL@@@@@ATL@@KAAUtagRECT@@AAVCFont@@HHH@Z PROC NEAR ; CGdiEx::DrawTextQuick
; _this$ = ecx

; 826  : {

  01df0	55		 push	 ebp
  01df1	8b ec		 mov	 ebp, esp
  01df3	83 ec 0c	 sub	 esp, 12			; 0000000cH
  01df6	89 4d f4	 mov	 DWORD PTR _this$[ebp], ecx

; 827  : 	
; 828  : 	if( !(apDC->m_hDC) ) return; 

  01df9	8b 45 08	 mov	 eax, DWORD PTR _apDC$[ebp]
  01dfc	83 78 04 00	 cmp	 DWORD PTR [eax+4], 0
  01e00	75 05		 jne	 SHORT $L198001
  01e02	e9 c2 00 00 00	 jmp	 $L198000
$L198001:

; 829  : 
; 830  : 	if( lrectText.bottom < 0) return;

  01e07	8b 4d 14	 mov	 ecx, DWORD PTR _lrectText$[ebp]
  01e0a	83 79 0c 00	 cmp	 DWORD PTR [ecx+12], 0
  01e0e	7d 05		 jge	 SHORT $L198002
  01e10	e9 b4 00 00 00	 jmp	 $L198000
$L198002:

; 831  : 	if( lrectText.right < 0)  return;

  01e15	8b 55 14	 mov	 edx, DWORD PTR _lrectText$[ebp]
  01e18	83 7a 08 00	 cmp	 DWORD PTR [edx+8], 0
  01e1c	7d 05		 jge	 SHORT $L198003
  01e1e	e9 a6 00 00 00	 jmp	 $L198000
$L198003:

; 832  : 	if( lrectText.left>maxX)  return;

  01e23	8b 45 14	 mov	 eax, DWORD PTR _lrectText$[ebp]
  01e26	8b 08		 mov	 ecx, DWORD PTR [eax]
  01e28	3b 4d 1c	 cmp	 ecx, DWORD PTR _maxX$[ebp]
  01e2b	7e 05		 jle	 SHORT $L198004
  01e2d	e9 97 00 00 00	 jmp	 $L198000
$L198004:

; 833  : 	if( lrectText.top> maxY)  return;

  01e32	8b 55 14	 mov	 edx, DWORD PTR _lrectText$[ebp]
  01e35	8b 42 04	 mov	 eax, DWORD PTR [edx+4]
  01e38	3b 45 20	 cmp	 eax, DWORD PTR _maxY$[ebp]
  01e3b	7e 05		 jle	 SHORT $L198005
  01e3d	e9 87 00 00 00	 jmp	 $L198000
$L198005:

; 834  : 
; 835  : 	
; 836  : 	
; 837  : 	apDC->SetTextColor(acolText);

  01e42	8b 4d 10	 mov	 ecx, DWORD PTR _acolText$[ebp]
  01e45	51		 push	 ecx
  01e46	8b 55 08	 mov	 edx, DWORD PTR _apDC$[ebp]
  01e49	8b 02		 mov	 eax, DWORD PTR [edx]
  01e4b	8b 4d 08	 mov	 ecx, DWORD PTR _apDC$[ebp]
  01e4e	ff 50 38	 call	 DWORD PTR [eax+56]

; 838  : 	SetBkMode(apDC->m_hDC, TRANSPARENT);

  01e51	6a 01		 push	 1
  01e53	8b 4d 08	 mov	 ecx, DWORD PTR _apDC$[ebp]
  01e56	8b 51 04	 mov	 edx, DWORD PTR [ecx+4]
  01e59	52		 push	 edx
  01e5a	ff 15 00 00 00
	00		 call	 DWORD PTR __imp__SetBkMode@8

; 839  : 	COLORREF ltempColor = apDC->GetTextColor();

  01e60	8b 4d 08	 mov	 ecx, DWORD PTR _apDC$[ebp]
  01e63	e8 00 00 00 00	 call	 ?GetTextColor@CDC@@QBEKXZ ; CDC::GetTextColor
  01e68	89 45 fc	 mov	 DWORD PTR _ltempColor$[ebp], eax

; 840  : 	CFont* oldFont = (CFont*)apDC->SelectObject(&font);

  01e6b	8b 45 18	 mov	 eax, DWORD PTR _font$[ebp]
  01e6e	50		 push	 eax
  01e6f	8b 4d 08	 mov	 ecx, DWORD PTR _apDC$[ebp]
  01e72	8b 11		 mov	 edx, DWORD PTR [ecx]
  01e74	8b 4d 08	 mov	 ecx, DWORD PTR _apDC$[ebp]
  01e77	ff 52 30	 call	 DWORD PTR [edx+48]
  01e7a	89 45 f8	 mov	 DWORD PTR _oldFont$[ebp], eax

; 841  : 	::DrawText(
; 842  : 		apDC->m_hDC,
; 843  : 		astrText,
; 844  : 		astrText.GetLength(),
; 845  : 		&lrectText,
; 846  : 		anFormat|DT_NOPREFIX
; 847  : 		);

  01e7d	8b 45 24	 mov	 eax, DWORD PTR _anFormat$[ebp]
  01e80	0d 00 08 00 00	 or	 eax, 2048		; 00000800H
  01e85	50		 push	 eax
  01e86	8b 4d 14	 mov	 ecx, DWORD PTR _lrectText$[ebp]
  01e89	51		 push	 ecx
  01e8a	8b 4d 0c	 mov	 ecx, DWORD PTR _astrText$[ebp]
  01e8d	ff 15 00 00 00
	00		 call	 DWORD PTR __imp_?GetLength@?$CSimpleStringT@D$00@ATL@@QBEHXZ
  01e93	50		 push	 eax
  01e94	8b 4d 0c	 mov	 ecx, DWORD PTR _astrText$[ebp]
  01e97	ff 15 00 00 00
	00		 call	 DWORD PTR __imp_??B?$CSimpleStringT@D$00@ATL@@QBEPBDXZ
  01e9d	50		 push	 eax
  01e9e	8b 55 08	 mov	 edx, DWORD PTR _apDC$[ebp]
  01ea1	8b 42 04	 mov	 eax, DWORD PTR [edx+4]
  01ea4	50		 push	 eax
  01ea5	ff 15 00 00 00
	00		 call	 DWORD PTR __imp__DrawTextA@20

; 848  : 	apDC->SetTextColor(ltempColor);	

  01eab	8b 4d fc	 mov	 ecx, DWORD PTR _ltempColor$[ebp]
  01eae	51		 push	 ecx
  01eaf	8b 55 08	 mov	 edx, DWORD PTR _apDC$[ebp]
  01eb2	8b 02		 mov	 eax, DWORD PTR [edx]
  01eb4	8b 4d 08	 mov	 ecx, DWORD PTR _apDC$[ebp]
  01eb7	ff 50 38	 call	 DWORD PTR [eax+56]

; 849  : 	apDC->SelectObject(oldFont);

  01eba	8b 4d f8	 mov	 ecx, DWORD PTR _oldFont$[ebp]
  01ebd	51		 push	 ecx
  01ebe	8b 55 08	 mov	 edx, DWORD PTR _apDC$[ebp]
  01ec1	8b 02		 mov	 eax, DWORD PTR [edx]
  01ec3	8b 4d 08	 mov	 ecx, DWORD PTR _apDC$[ebp]
  01ec6	ff 50 30	 call	 DWORD PTR [eax+48]
$L198000:

; 850  : }

  01ec9	8b e5		 mov	 esp, ebp
  01ecb	5d		 pop	 ebp
  01ecc	c2 20 00	 ret	 32			; 00000020H
?DrawTextQuick@CGdiEx@@UAEXPAVCDC@@AAV?$CStringT@DV?$StrTraitMFC_DLL@DV?$ChTraitsCRT@D@ATL@@@@@ATL@@KAAUtagRECT@@AAVCFont@@HHH@Z ENDP ; CGdiEx::DrawTextQuick
; Function compile flags: /Odt
_this$ = -12						; size = 4
_oldFont$ = -8						; size = 4
_ltempColor$ = -4					; size = 4
_apDC$ = 8						; size = 4
_astrText$ = 12						; size = 4
_acolText$ = 16						; size = 4
_lrectText$ = 20					; size = 4
_font$ = 24						; size = 4
_anFormat$ = 28						; size = 4
?DrawTextQuick@CGdiEx@@UAEXPAVCDC@@AAV?$CStringT@DV?$StrTraitMFC_DLL@DV?$ChTraitsCRT@D@ATL@@@@@ATL@@KAAUtagRECT@@AAVCFont@@H@Z PROC NEAR ; CGdiEx::DrawTextQuick
; _this$ = ecx

; 852  : {

  01ed0	55		 push	 ebp
  01ed1	8b ec		 mov	 ebp, esp
  01ed3	83 ec 0c	 sub	 esp, 12			; 0000000cH
  01ed6	89 4d f4	 mov	 DWORD PTR _this$[ebp], ecx

; 853  : 	
; 854  : 	if( !(apDC->m_hDC) ) return; 

  01ed9	8b 45 08	 mov	 eax, DWORD PTR _apDC$[ebp]
  01edc	83 78 04 00	 cmp	 DWORD PTR [eax+4], 0
  01ee0	75 05		 jne	 SHORT $L198018
  01ee2	e9 87 00 00 00	 jmp	 $L198017
$L198018:

; 855  : 
; 856  : 	apDC->SetTextColor(acolText);

  01ee7	8b 4d 10	 mov	 ecx, DWORD PTR _acolText$[ebp]
  01eea	51		 push	 ecx
  01eeb	8b 55 08	 mov	 edx, DWORD PTR _apDC$[ebp]
  01eee	8b 02		 mov	 eax, DWORD PTR [edx]
  01ef0	8b 4d 08	 mov	 ecx, DWORD PTR _apDC$[ebp]
  01ef3	ff 50 38	 call	 DWORD PTR [eax+56]

; 857  : 	SetBkMode(apDC->m_hDC, TRANSPARENT);

  01ef6	6a 01		 push	 1
  01ef8	8b 4d 08	 mov	 ecx, DWORD PTR _apDC$[ebp]
  01efb	8b 51 04	 mov	 edx, DWORD PTR [ecx+4]
  01efe	52		 push	 edx
  01eff	ff 15 00 00 00
	00		 call	 DWORD PTR __imp__SetBkMode@8

; 858  : 	COLORREF ltempColor = apDC->GetTextColor();

  01f05	8b 4d 08	 mov	 ecx, DWORD PTR _apDC$[ebp]
  01f08	e8 00 00 00 00	 call	 ?GetTextColor@CDC@@QBEKXZ ; CDC::GetTextColor
  01f0d	89 45 fc	 mov	 DWORD PTR _ltempColor$[ebp], eax

; 859  : 	CFont* oldFont = (CFont*)apDC->SelectObject(&font);

  01f10	8b 45 18	 mov	 eax, DWORD PTR _font$[ebp]
  01f13	50		 push	 eax
  01f14	8b 4d 08	 mov	 ecx, DWORD PTR _apDC$[ebp]
  01f17	8b 11		 mov	 edx, DWORD PTR [ecx]
  01f19	8b 4d 08	 mov	 ecx, DWORD PTR _apDC$[ebp]
  01f1c	ff 52 30	 call	 DWORD PTR [edx+48]
  01f1f	89 45 f8	 mov	 DWORD PTR _oldFont$[ebp], eax

; 860  : 
; 861  : 	::DrawText(
; 862  : 		apDC->m_hDC,
; 863  : 		astrText,
; 864  : 		astrText.GetLength(),
; 865  : 		&lrectText,
; 866  : 		anFormat|DT_NOPREFIX
; 867  : 		);

  01f22	8b 45 1c	 mov	 eax, DWORD PTR _anFormat$[ebp]
  01f25	0d 00 08 00 00	 or	 eax, 2048		; 00000800H
  01f2a	50		 push	 eax
  01f2b	8b 4d 14	 mov	 ecx, DWORD PTR _lrectText$[ebp]
  01f2e	51		 push	 ecx
  01f2f	8b 4d 0c	 mov	 ecx, DWORD PTR _astrText$[ebp]
  01f32	ff 15 00 00 00
	00		 call	 DWORD PTR __imp_?GetLength@?$CSimpleStringT@D$00@ATL@@QBEHXZ
  01f38	50		 push	 eax
  01f39	8b 4d 0c	 mov	 ecx, DWORD PTR _astrText$[ebp]
  01f3c	ff 15 00 00 00
	00		 call	 DWORD PTR __imp_??B?$CSimpleStringT@D$00@ATL@@QBEPBDXZ
  01f42	50		 push	 eax
  01f43	8b 55 08	 mov	 edx, DWORD PTR _apDC$[ebp]
  01f46	8b 42 04	 mov	 eax, DWORD PTR [edx+4]
  01f49	50		 push	 eax
  01f4a	ff 15 00 00 00
	00		 call	 DWORD PTR __imp__DrawTextA@20

; 868  : 	apDC->SetTextColor(ltempColor);	

  01f50	8b 4d fc	 mov	 ecx, DWORD PTR _ltempColor$[ebp]
  01f53	51		 push	 ecx
  01f54	8b 55 08	 mov	 edx, DWORD PTR _apDC$[ebp]
  01f57	8b 02		 mov	 eax, DWORD PTR [edx]
  01f59	8b 4d 08	 mov	 ecx, DWORD PTR _apDC$[ebp]
  01f5c	ff 50 38	 call	 DWORD PTR [eax+56]

; 869  : 	apDC->SelectObject(oldFont);

  01f5f	8b 4d f8	 mov	 ecx, DWORD PTR _oldFont$[ebp]
  01f62	51		 push	 ecx
  01f63	8b 55 08	 mov	 edx, DWORD PTR _apDC$[ebp]
  01f66	8b 02		 mov	 eax, DWORD PTR [edx]
  01f68	8b 4d 08	 mov	 ecx, DWORD PTR _apDC$[ebp]
  01f6b	ff 50 30	 call	 DWORD PTR [eax+48]
$L198017:

; 870  : }

  01f6e	8b e5		 mov	 esp, ebp
  01f70	5d		 pop	 ebp
  01f71	c2 18 00	 ret	 24			; 00000018H
?DrawTextQuick@CGdiEx@@UAEXPAVCDC@@AAV?$CStringT@DV?$StrTraitMFC_DLL@DV?$ChTraitsCRT@D@ATL@@@@@ATL@@KAAUtagRECT@@AAVCFont@@H@Z ENDP ; CGdiEx::DrawTextQuick
; Function compile flags: /Odt
_this$ = -8						; size = 4
_ltempColor$ = -4					; size = 4
_apDC$ = 8						; size = 4
_astrText$ = 12						; size = 4
_acolText$ = 16						; size = 4
_lrectText$ = 20					; size = 4
_anFormat$ = 24						; size = 4
?DrawTextQuick@CGdiEx@@UAEXPAVCDC@@AAV?$CStringT@DV?$StrTraitMFC_DLL@DV?$ChTraitsCRT@D@ATL@@@@@ATL@@KAAUtagRECT@@H@Z PROC NEAR ; CGdiEx::DrawTextQuick
; _this$ = ecx

; 872  : {

  01f80	55		 push	 ebp
  01f81	8b ec		 mov	 ebp, esp
  01f83	83 ec 08	 sub	 esp, 8
  01f86	89 4d f8	 mov	 DWORD PTR _this$[ebp], ecx

; 873  : 	
; 874  : 	if( !(apDC->m_hDC) ) return; 

  01f89	8b 45 08	 mov	 eax, DWORD PTR _apDC$[ebp]
  01f8c	83 78 04 00	 cmp	 DWORD PTR [eax+4], 0
  01f90	75 02		 jne	 SHORT $L198030
  01f92	eb 66		 jmp	 SHORT $L198029
$L198030:

; 875  : 	
; 876  : 	apDC->SetTextColor(acolText);

  01f94	8b 4d 10	 mov	 ecx, DWORD PTR _acolText$[ebp]
  01f97	51		 push	 ecx
  01f98	8b 55 08	 mov	 edx, DWORD PTR _apDC$[ebp]
  01f9b	8b 02		 mov	 eax, DWORD PTR [edx]
  01f9d	8b 4d 08	 mov	 ecx, DWORD PTR _apDC$[ebp]
  01fa0	ff 50 38	 call	 DWORD PTR [eax+56]

; 877  : 	SetBkMode(apDC->m_hDC, TRANSPARENT);

  01fa3	6a 01		 push	 1
  01fa5	8b 4d 08	 mov	 ecx, DWORD PTR _apDC$[ebp]
  01fa8	8b 51 04	 mov	 edx, DWORD PTR [ecx+4]
  01fab	52		 push	 edx
  01fac	ff 15 00 00 00
	00		 call	 DWORD PTR __imp__SetBkMode@8

; 878  : 	COLORREF ltempColor = apDC->GetTextColor();

  01fb2	8b 4d 08	 mov	 ecx, DWORD PTR _apDC$[ebp]
  01fb5	e8 00 00 00 00	 call	 ?GetTextColor@CDC@@QBEKXZ ; CDC::GetTextColor
  01fba	89 45 fc	 mov	 DWORD PTR _ltempColor$[ebp], eax

; 879  : 	::DrawText(
; 880  : 		apDC->m_hDC,
; 881  : 		astrText,
; 882  : 		astrText.GetLength(),
; 883  : 		&lrectText,
; 884  : 		anFormat|DT_NOPREFIX
; 885  : 		);

  01fbd	8b 45 18	 mov	 eax, DWORD PTR _anFormat$[ebp]
  01fc0	0d 00 08 00 00	 or	 eax, 2048		; 00000800H
  01fc5	50		 push	 eax
  01fc6	8b 4d 14	 mov	 ecx, DWORD PTR _lrectText$[ebp]
  01fc9	51		 push	 ecx
  01fca	8b 4d 0c	 mov	 ecx, DWORD PTR _astrText$[ebp]
  01fcd	ff 15 00 00 00
	00		 call	 DWORD PTR __imp_?GetLength@?$CSimpleStringT@D$00@ATL@@QBEHXZ
  01fd3	50		 push	 eax
  01fd4	8b 4d 0c	 mov	 ecx, DWORD PTR _astrText$[ebp]
  01fd7	ff 15 00 00 00
	00		 call	 DWORD PTR __imp_??B?$CSimpleStringT@D$00@ATL@@QBEPBDXZ
  01fdd	50		 push	 eax
  01fde	8b 55 08	 mov	 edx, DWORD PTR _apDC$[ebp]
  01fe1	8b 42 04	 mov	 eax, DWORD PTR [edx+4]
  01fe4	50		 push	 eax
  01fe5	ff 15 00 00 00
	00		 call	 DWORD PTR __imp__DrawTextA@20

; 886  : 	apDC->SetTextColor(ltempColor);	

  01feb	8b 4d fc	 mov	 ecx, DWORD PTR _ltempColor$[ebp]
  01fee	51		 push	 ecx
  01fef	8b 55 08	 mov	 edx, DWORD PTR _apDC$[ebp]
  01ff2	8b 02		 mov	 eax, DWORD PTR [edx]
  01ff4	8b 4d 08	 mov	 ecx, DWORD PTR _apDC$[ebp]
  01ff7	ff 50 38	 call	 DWORD PTR [eax+56]
$L198029:

; 887  : }

  01ffa	8b e5		 mov	 esp, ebp
  01ffc	5d		 pop	 ebp
  01ffd	c2 14 00	 ret	 20			; 00000014H
?DrawTextQuick@CGdiEx@@UAEXPAVCDC@@AAV?$CStringT@DV?$StrTraitMFC_DLL@DV?$ChTraitsCRT@D@ATL@@@@@ATL@@KAAUtagRECT@@H@Z ENDP ; CGdiEx::DrawTextQuick
; Function compile flags: /Odt
_this$ = -68						; size = 4
_lf$ = -64						; size = 60
__$ArrayPad$ = -4					; size = 4
__$ReturnAddr$ = 4					; size = 4
_apDC$ = 8						; size = 4
_font$ = 12						; size = 4
_bUnderline$ = 16					; size = 1
?SetDrawTextFont@CGdiEx@@UAEXPAVCDC@@AAVCFont@@_N@Z PROC NEAR ; CGdiEx::SetDrawTextFont
; _this$ = ecx

; 890  : {

  02000	55		 push	 ebp
  02001	8b ec		 mov	 ebp, esp
  02003	83 ec 44	 sub	 esp, 68			; 00000044H
  02006	a1 00 00 00 00	 mov	 eax, DWORD PTR ___security_cookie
  0200b	89 45 fc	 mov	 DWORD PTR __$ArrayPad$[ebp], eax
  0200e	89 4d bc	 mov	 DWORD PTR _this$[ebp], ecx

; 891  : 	
; 892  : 	if( !(apDC->m_hDC) ) return ; 

  02011	8b 45 08	 mov	 eax, DWORD PTR _apDC$[ebp]
  02014	83 78 04 00	 cmp	 DWORD PTR [eax+4], 0
  02018	75 02		 jne	 SHORT $L198038
  0201a	eb 62		 jmp	 SHORT $L198037
$L198038:

; 893  : 	LOGFONT  lf;
; 894  : 	ZeroMemory(&lf,sizeof(lf));

  0201c	6a 3c		 push	 60			; 0000003cH
  0201e	6a 00		 push	 0
  02020	8d 4d c0	 lea	 ecx, DWORD PTR _lf$[ebp]
  02023	51		 push	 ecx
  02024	e8 00 00 00 00	 call	 _memset
  02029	83 c4 0c	 add	 esp, 12			; 0000000cH

; 895  : 	lf.lfHeight=-MulDiv(9,GetDeviceCaps(apDC->m_hDC,LOGPIXELSY),72);

  0202c	6a 48		 push	 72			; 00000048H
  0202e	6a 5a		 push	 90			; 0000005aH
  02030	8b 55 08	 mov	 edx, DWORD PTR _apDC$[ebp]
  02033	8b 42 04	 mov	 eax, DWORD PTR [edx+4]
  02036	50		 push	 eax
  02037	ff 15 00 00 00
	00		 call	 DWORD PTR __imp__GetDeviceCaps@8
  0203d	50		 push	 eax
  0203e	6a 09		 push	 9
  02040	ff 15 00 00 00
	00		 call	 DWORD PTR __imp__MulDiv@12
  02046	f7 d8		 neg	 eax
  02048	89 45 c0	 mov	 DWORD PTR _lf$[ebp], eax

; 896  : 	lf.lfWeight=FW_MEDIUM;

  0204b	c7 45 d0 f4 01
	00 00		 mov	 DWORD PTR _lf$[ebp+16], 500 ; 000001f4H

; 897  : 	lf.lfCharSet=GB2312_CHARSET;

  02052	c6 45 d7 86	 mov	 BYTE PTR _lf$[ebp+23], 134 ; 00000086H

; 898  : 	lf.lfOutPrecision=OUT_DEFAULT_PRECIS;

  02056	c6 45 d8 00	 mov	 BYTE PTR _lf$[ebp+24], 0

; 899  : 	lf.lfClipPrecision=CLIP_DEFAULT_PRECIS;

  0205a	c6 45 d9 00	 mov	 BYTE PTR _lf$[ebp+25], 0

; 900  : 	lf.lfQuality=DEFAULT_QUALITY;

  0205e	c6 45 da 00	 mov	 BYTE PTR _lf$[ebp+26], 0

; 901  : 	lf.lfPitchAndFamily=FF_DONTCARE | DEFAULT_PITCH;

  02062	c6 45 db 00	 mov	 BYTE PTR _lf$[ebp+27], 0

; 902  : 	if(bUnderline)

  02066	0f b6 4d 10	 movzx	 ecx, BYTE PTR _bUnderline$[ebp]
  0206a	85 c9		 test	 ecx, ecx
  0206c	74 04		 je	 SHORT $L198040

; 903  : 		lf.lfUnderline = BYTE(1);

  0206e	c6 45 d5 01	 mov	 BYTE PTR _lf$[ebp+21], 1
$L198040:

; 904  : 	font.CreateFontIndirect(&lf);

  02072	8d 55 c0	 lea	 edx, DWORD PTR _lf$[ebp]
  02075	52		 push	 edx
  02076	8b 4d 0c	 mov	 ecx, DWORD PTR _font$[ebp]
  02079	e8 00 00 00 00	 call	 ?CreateFontIndirectA@CFont@@QAEHPBUtagLOGFONTA@@@Z ; CFont::CreateFontIndirectA
$L198037:

; 905  : }

  0207e	8b 4d fc	 mov	 ecx, DWORD PTR __$ArrayPad$[ebp]
  02081	e8 00 00 00 00	 call	 @__security_check_cookie@4
  02086	8b e5		 mov	 esp, ebp
  02088	5d		 pop	 ebp
  02089	c2 0c 00	 ret	 12			; 0000000cH
?SetDrawTextFont@CGdiEx@@UAEXPAVCDC@@AAVCFont@@_N@Z ENDP ; CGdiEx::SetDrawTextFont
; Function compile flags: /Odt
_this$ = -8						; size = 4
_oldFont$ = -4						; size = 4
_apDC$ = 8						; size = 4
_apFontSave$ = 12					; size = 4
?SetDrawTextFont@CGdiEx@@UAEPAVCFont@@PAVCDC@@PAV2@@Z PROC NEAR ; CGdiEx::SetDrawTextFont
; _this$ = ecx

; 907  : {

  02090	55		 push	 ebp
  02091	8b ec		 mov	 ebp, esp
  02093	83 ec 08	 sub	 esp, 8
  02096	89 4d f8	 mov	 DWORD PTR _this$[ebp], ecx

; 908  : 	
; 909  : 	if( !(apDC->m_hDC) ) return NULL; 

  02099	8b 45 08	 mov	 eax, DWORD PTR _apDC$[ebp]
  0209c	83 78 04 00	 cmp	 DWORD PTR [eax+4], 0
  020a0	75 04		 jne	 SHORT $L198046
  020a2	33 c0		 xor	 eax, eax
  020a4	eb 15		 jmp	 SHORT $L198045
$L198046:

; 910  : 	CFont* oldFont = (CFont*)apDC->SelectObject(apFontSave);

  020a6	8b 4d 0c	 mov	 ecx, DWORD PTR _apFontSave$[ebp]
  020a9	51		 push	 ecx
  020aa	8b 55 08	 mov	 edx, DWORD PTR _apDC$[ebp]
  020ad	8b 02		 mov	 eax, DWORD PTR [edx]
  020af	8b 4d 08	 mov	 ecx, DWORD PTR _apDC$[ebp]
  020b2	ff 50 30	 call	 DWORD PTR [eax+48]
  020b5	89 45 fc	 mov	 DWORD PTR _oldFont$[ebp], eax

; 911  : 	return oldFont;

  020b8	8b 45 fc	 mov	 eax, DWORD PTR _oldFont$[ebp]
$L198045:

; 912  : }

  020bb	8b e5		 mov	 esp, ebp
  020bd	5d		 pop	 ebp
  020be	c2 08 00	 ret	 8
?SetDrawTextFont@CGdiEx@@UAEPAVCFont@@PAVCDC@@PAV2@@Z ENDP ; CGdiEx::SetDrawTextFont
_TEXT	ENDS
EXTRN	__imp_?size@?$basic_string@DU?$char_traits@D@std@@V?$allocator@D@2@@std@@QBEIXZ:NEAR
EXTRN	_strcpy:NEAR
EXTRN	__imp_??1?$basic_string@DU?$char_traits@D@std@@V?$allocator@D@2@@std@@QAE@XZ:NEAR
xdata$x	SEGMENT
$T198997 DD	0ffffffffH
	DD	FLAT:$L198990
	DD	00H
	DD	FLAT:$L198991
	DD	01H
	DD	FLAT:$L198992
$T198994 DD	019930520H
	DD	03H
	DD	FLAT:$T198997
	DD	2 DUP(00H)
	DD	2 DUP(00H)
; Function compile flags: /Odt
xdata$x	ENDS
_TEXT	SEGMENT
_this$ = -96						; size = 4
_oldFont$ = -92						; size = 4
_font$ = -88						; size = 8
_lf$ = -80						; size = 60
__$ArrayPad$ = -20					; size = 4
_ltempColor$ = -16					; size = 4
__$EHRec$ = -12						; size = 12
__$ReturnAddr$ = 4					; size = 4
_apDC$ = 8						; size = 4
_astrText$ = 12						; size = 4
_acolText$ = 16						; size = 4
_lrectText$ = 20					; size = 4
_anFormat$ = 24						; size = 4
_abUnderLine$ = 28					; size = 1
_anWidth$ = 32						; size = 4
_anSize$ = 36						; size = 4
_anSet$ = 40						; size = 4
_strTextName$ = 44					; size = 28
?DrawTextA@CGdiEx@@UAEXPAVCDC@@V?$CStringT@DV?$StrTraitMFC_DLL@DV?$ChTraitsCRT@D@ATL@@@@@ATL@@KAAUtagRECT@@I_NIIIV?$basic_string@DU?$char_traits@D@std@@V?$allocator@D@2@@std@@@Z PROC NEAR ; CGdiEx::DrawTextA
; _this$ = ecx

; 914  : {

  020d0	55		 push	 ebp
  020d1	8b ec		 mov	 ebp, esp
  020d3	6a ff		 push	 -1
  020d5	68 00 00 00 00	 push	 __ehhandler$?DrawTextA@CGdiEx@@UAEXPAVCDC@@V?$CStringT@DV?$StrTraitMFC_DLL@DV?$ChTraitsCRT@D@ATL@@@@@ATL@@KAAUtagRECT@@I_NIIIV?$basic_string@DU?$char_traits@D@std@@V?$allocator@D@2@@std@@@Z
  020da	64 a1 00 00 00
	00		 mov	 eax, DWORD PTR fs:__except_list
  020e0	50		 push	 eax
  020e1	64 89 25 00 00
	00 00		 mov	 DWORD PTR fs:__except_list, esp
  020e8	83 ec 54	 sub	 esp, 84			; 00000054H
  020eb	a1 00 00 00 00	 mov	 eax, DWORD PTR ___security_cookie
  020f0	89 45 ec	 mov	 DWORD PTR __$ArrayPad$[ebp], eax
  020f3	89 4d a0	 mov	 DWORD PTR _this$[ebp], ecx
  020f6	c7 45 fc 01 00
	00 00		 mov	 DWORD PTR __$EHRec$[ebp+8], 1

; 915  : 	if( !(apDC->m_hDC) ) return; 

  020fd	8b 45 08	 mov	 eax, DWORD PTR _apDC$[ebp]
  02100	83 78 04 00	 cmp	 DWORD PTR [eax+4], 0
  02104	75 22		 jne	 SHORT $L198062
  02106	c6 45 fc 00	 mov	 BYTE PTR __$EHRec$[ebp+8], 0
  0210a	8d 4d 0c	 lea	 ecx, DWORD PTR _astrText$[ebp]
  0210d	ff 15 00 00 00
	00		 call	 DWORD PTR __imp_??1?$CStringT@DV?$StrTraitMFC_DLL@DV?$ChTraitsCRT@D@ATL@@@@@ATL@@QAE@XZ
  02113	c7 45 fc ff ff
	ff ff		 mov	 DWORD PTR __$EHRec$[ebp+8], -1
  0211a	8d 4d 2c	 lea	 ecx, DWORD PTR _strTextName$[ebp]
  0211d	ff 15 00 00 00
	00		 call	 DWORD PTR __imp_??1?$basic_string@DU?$char_traits@D@std@@V?$allocator@D@2@@std@@QAE@XZ
  02123	e9 89 01 00 00	 jmp	 $L198061
$L198062:

; 916  : 	apDC->SetTextColor(acolText);

  02128	8b 4d 10	 mov	 ecx, DWORD PTR _acolText$[ebp]
  0212b	51		 push	 ecx
  0212c	8b 55 08	 mov	 edx, DWORD PTR _apDC$[ebp]
  0212f	8b 02		 mov	 eax, DWORD PTR [edx]
  02131	8b 4d 08	 mov	 ecx, DWORD PTR _apDC$[ebp]
  02134	ff 50 38	 call	 DWORD PTR [eax+56]

; 917  : 	SetBkMode(apDC->m_hDC, TRANSPARENT);

  02137	6a 01		 push	 1
  02139	8b 4d 08	 mov	 ecx, DWORD PTR _apDC$[ebp]
  0213c	8b 51 04	 mov	 edx, DWORD PTR [ecx+4]
  0213f	52		 push	 edx
  02140	ff 15 00 00 00
	00		 call	 DWORD PTR __imp__SetBkMode@8

; 918  : 	COLORREF ltempColor = apDC->GetTextColor();

  02146	8b 4d 08	 mov	 ecx, DWORD PTR _apDC$[ebp]
  02149	e8 00 00 00 00	 call	 ?GetTextColor@CDC@@QBEKXZ ; CDC::GetTextColor
  0214e	89 45 f0	 mov	 DWORD PTR _ltempColor$[ebp], eax

; 919  : 	LOGFONT  lf;
; 920  : 	ZeroMemory(&lf,sizeof(lf));

  02151	6a 3c		 push	 60			; 0000003cH
  02153	6a 00		 push	 0
  02155	8d 45 b0	 lea	 eax, DWORD PTR _lf$[ebp]
  02158	50		 push	 eax
  02159	e8 00 00 00 00	 call	 _memset
  0215e	83 c4 0c	 add	 esp, 12			; 0000000cH

; 921  : 	lf.lfHeight=-MulDiv(anSize,GetDeviceCaps(apDC->m_hDC,LOGPIXELSY),72); // 12

  02161	6a 48		 push	 72			; 00000048H
  02163	6a 5a		 push	 90			; 0000005aH
  02165	8b 4d 08	 mov	 ecx, DWORD PTR _apDC$[ebp]
  02168	8b 51 04	 mov	 edx, DWORD PTR [ecx+4]
  0216b	52		 push	 edx
  0216c	ff 15 00 00 00
	00		 call	 DWORD PTR __imp__GetDeviceCaps@8
  02172	50		 push	 eax
  02173	8b 45 24	 mov	 eax, DWORD PTR _anSize$[ebp]
  02176	50		 push	 eax
  02177	ff 15 00 00 00
	00		 call	 DWORD PTR __imp__MulDiv@12
  0217d	f7 d8		 neg	 eax
  0217f	89 45 b0	 mov	 DWORD PTR _lf$[ebp], eax

; 922  : 	lf.lfWeight= anWidth;//FW_NORMAL

  02182	8b 4d 20	 mov	 ecx, DWORD PTR _anWidth$[ebp]
  02185	89 4d c0	 mov	 DWORD PTR _lf$[ebp+16], ecx

; 923  : 	lf.lfWidth =0;

  02188	c7 45 b4 00 00
	00 00		 mov	 DWORD PTR _lf$[ebp+4], 0

; 924  : 	lf.lfStrikeOut = FALSE;

  0218f	c6 45 c6 00	 mov	 BYTE PTR _lf$[ebp+22], 0

; 925  : 	lf.lfCharSet=anSet;

  02193	8a 55 28	 mov	 dl, BYTE PTR _anSet$[ebp]
  02196	88 55 c7	 mov	 BYTE PTR _lf$[ebp+23], dl

; 926  : 	lf.lfOutPrecision=OUT_DEFAULT_PRECIS;

  02199	c6 45 c8 00	 mov	 BYTE PTR _lf$[ebp+24], 0

; 927  : 	lf.lfClipPrecision=CLIP_DEFAULT_PRECIS;

  0219d	c6 45 c9 00	 mov	 BYTE PTR _lf$[ebp+25], 0

; 928  : 	lf.lfQuality=DEFAULT_QUALITY;

  021a1	c6 45 ca 00	 mov	 BYTE PTR _lf$[ebp+26], 0

; 929  : 	lf.lfPitchAndFamily=FF_DONTCARE | DEFAULT_PITCH;

  021a5	c6 45 cb 00	 mov	 BYTE PTR _lf$[ebp+27], 0

; 930  : 	lf.lfUnderline = abUnderLine;

  021a9	8a 45 1c	 mov	 al, BYTE PTR _abUnderLine$[ebp]
  021ac	88 45 c5	 mov	 BYTE PTR _lf$[ebp+21], al

; 931  : 	if( 0 != strTextName.size() )

  021af	8d 4d 2c	 lea	 ecx, DWORD PTR _strTextName$[ebp]
  021b2	ff 15 00 00 00
	00		 call	 DWORD PTR __imp_?size@?$basic_string@DU?$char_traits@D@std@@V?$allocator@D@2@@std@@QBEIXZ
  021b8	85 c0		 test	 eax, eax
  021ba	74 11		 je	 SHORT $L198065

; 932  : 	{
; 933  : 		strcpy(lf.lfFaceName, ""/*strTextName.c_str()*/ );

  021bc	68 00 00 00 00	 push	 OFFSET FLAT:$SG198066
  021c1	8d 4d cc	 lea	 ecx, DWORD PTR _lf$[ebp+28]
  021c4	51		 push	 ecx
  021c5	e8 00 00 00 00	 call	 _strcpy
  021ca	83 c4 08	 add	 esp, 8
$L198065:

; 934  : 	}
; 935  : 
; 936  : 	CFont font;

  021cd	8d 4d a8	 lea	 ecx, DWORD PTR _font$[ebp]
  021d0	e8 00 00 00 00	 call	 ??0CFont@@QAE@XZ	; CFont::CFont
  021d5	c6 45 fc 02	 mov	 BYTE PTR __$EHRec$[ebp+8], 2

; 937  : 	font.CreateFontIndirect(&lf);

  021d9	8d 55 b0	 lea	 edx, DWORD PTR _lf$[ebp]
  021dc	52		 push	 edx
  021dd	8d 4d a8	 lea	 ecx, DWORD PTR _font$[ebp]
  021e0	e8 00 00 00 00	 call	 ?CreateFontIndirectA@CFont@@QAEHPBUtagLOGFONTA@@@Z ; CFont::CreateFontIndirectA

; 938  : 	CFont* oldFont = (CFont*)apDC->SelectObject(&font);

  021e5	8d 45 a8	 lea	 eax, DWORD PTR _font$[ebp]
  021e8	50		 push	 eax
  021e9	8b 4d 08	 mov	 ecx, DWORD PTR _apDC$[ebp]
  021ec	8b 11		 mov	 edx, DWORD PTR [ecx]
  021ee	8b 4d 08	 mov	 ecx, DWORD PTR _apDC$[ebp]
  021f1	ff 52 30	 call	 DWORD PTR [edx+48]
  021f4	89 45 a4	 mov	 DWORD PTR _oldFont$[ebp], eax

; 939  : 	if ( abUnderLine )

  021f7	0f b6 45 1c	 movzx	 eax, BYTE PTR _abUnderLine$[ebp]
  021fb	85 c0		 test	 eax, eax
  021fd	74 34		 je	 SHORT $L198070

; 940  : 	{
; 941  : 		::DrawText(
; 942  : 			apDC->m_hDC,
; 943  : 			astrText,
; 944  : 			astrText.GetLength(),
; 945  : 			&lrectText,
; 946  : 			anFormat|DT_WORDBREAK|DT_END_ELLIPSIS
; 947  : 			);

  021ff	8b 4d 18	 mov	 ecx, DWORD PTR _anFormat$[ebp]
  02202	83 c9 10	 or	 ecx, 16			; 00000010H
  02205	81 c9 00 80 00
	00		 or	 ecx, 32768		; 00008000H
  0220b	51		 push	 ecx
  0220c	8b 55 14	 mov	 edx, DWORD PTR _lrectText$[ebp]
  0220f	52		 push	 edx
  02210	8d 4d 0c	 lea	 ecx, DWORD PTR _astrText$[ebp]
  02213	ff 15 00 00 00
	00		 call	 DWORD PTR __imp_?GetLength@?$CSimpleStringT@D$00@ATL@@QBEHXZ
  02219	50		 push	 eax
  0221a	8d 4d 0c	 lea	 ecx, DWORD PTR _astrText$[ebp]
  0221d	ff 15 00 00 00
	00		 call	 DWORD PTR __imp_??B?$CSimpleStringT@D$00@ATL@@QBEPBDXZ
  02223	50		 push	 eax
  02224	8b 45 08	 mov	 eax, DWORD PTR _apDC$[ebp]
  02227	8b 48 04	 mov	 ecx, DWORD PTR [eax+4]
  0222a	51		 push	 ecx
  0222b	ff 15 00 00 00
	00		 call	 DWORD PTR __imp__DrawTextA@20

; 948  : 	}
; 949  : 	else

  02231	eb 2f		 jmp	 SHORT $L198071
$L198070:

; 950  : 	{
; 951  : 		::DrawText(
; 952  : 			apDC->m_hDC,
; 953  : 			astrText,
; 954  : 			astrText.GetLength(),
; 955  : 			&lrectText,
; 956  : 			anFormat|DT_END_ELLIPSIS
; 957  : 			);

  02233	8b 55 18	 mov	 edx, DWORD PTR _anFormat$[ebp]
  02236	81 ca 00 80 00
	00		 or	 edx, 32768		; 00008000H
  0223c	52		 push	 edx
  0223d	8b 45 14	 mov	 eax, DWORD PTR _lrectText$[ebp]
  02240	50		 push	 eax
  02241	8d 4d 0c	 lea	 ecx, DWORD PTR _astrText$[ebp]
  02244	ff 15 00 00 00
	00		 call	 DWORD PTR __imp_?GetLength@?$CSimpleStringT@D$00@ATL@@QBEHXZ
  0224a	50		 push	 eax
  0224b	8d 4d 0c	 lea	 ecx, DWORD PTR _astrText$[ebp]
  0224e	ff 15 00 00 00
	00		 call	 DWORD PTR __imp_??B?$CSimpleStringT@D$00@ATL@@QBEPBDXZ
  02254	50		 push	 eax
  02255	8b 4d 08	 mov	 ecx, DWORD PTR _apDC$[ebp]
  02258	8b 51 04	 mov	 edx, DWORD PTR [ecx+4]
  0225b	52		 push	 edx
  0225c	ff 15 00 00 00
	00		 call	 DWORD PTR __imp__DrawTextA@20
$L198071:

; 958  : 	}
; 959  : 	apDC->SetTextColor(ltempColor);

  02262	8b 45 f0	 mov	 eax, DWORD PTR _ltempColor$[ebp]
  02265	50		 push	 eax
  02266	8b 4d 08	 mov	 ecx, DWORD PTR _apDC$[ebp]
  02269	8b 11		 mov	 edx, DWORD PTR [ecx]
  0226b	8b 4d 08	 mov	 ecx, DWORD PTR _apDC$[ebp]
  0226e	ff 52 38	 call	 DWORD PTR [edx+56]

; 960  : 	apDC->SelectObject(oldFont);

  02271	8b 45 a4	 mov	 eax, DWORD PTR _oldFont$[ebp]
  02274	50		 push	 eax
  02275	8b 4d 08	 mov	 ecx, DWORD PTR _apDC$[ebp]
  02278	8b 11		 mov	 edx, DWORD PTR [ecx]
  0227a	8b 4d 08	 mov	 ecx, DWORD PTR _apDC$[ebp]
  0227d	ff 52 30	 call	 DWORD PTR [edx+48]

; 961  : 	font.DeleteObject();

  02280	8d 4d a8	 lea	 ecx, DWORD PTR _font$[ebp]
  02283	e8 00 00 00 00	 call	 ?DeleteObject@CGdiObject@@QAEHXZ ; CGdiObject::DeleteObject

; 962  : }

  02288	c6 45 fc 01	 mov	 BYTE PTR __$EHRec$[ebp+8], 1
  0228c	8d 4d a8	 lea	 ecx, DWORD PTR _font$[ebp]
  0228f	e8 00 00 00 00	 call	 ??1CFont@@UAE@XZ	; CFont::~CFont
  02294	c6 45 fc 00	 mov	 BYTE PTR __$EHRec$[ebp+8], 0
  02298	8d 4d 0c	 lea	 ecx, DWORD PTR _astrText$[ebp]
  0229b	ff 15 00 00 00
	00		 call	 DWORD PTR __imp_??1?$CStringT@DV?$StrTraitMFC_DLL@DV?$ChTraitsCRT@D@ATL@@@@@ATL@@QAE@XZ
  022a1	c7 45 fc ff ff
	ff ff		 mov	 DWORD PTR __$EHRec$[ebp+8], -1
  022a8	8d 4d 2c	 lea	 ecx, DWORD PTR _strTextName$[ebp]
  022ab	ff 15 00 00 00
	00		 call	 DWORD PTR __imp_??1?$basic_string@DU?$char_traits@D@std@@V?$allocator@D@2@@std@@QAE@XZ
$L198061:
  022b1	8b 4d f4	 mov	 ecx, DWORD PTR __$EHRec$[ebp]
  022b4	64 89 0d 00 00
	00 00		 mov	 DWORD PTR fs:__except_list, ecx
  022bb	8b 4d ec	 mov	 ecx, DWORD PTR __$ArrayPad$[ebp]
  022be	e8 00 00 00 00	 call	 @__security_check_cookie@4
  022c3	8b e5		 mov	 esp, ebp
  022c5	5d		 pop	 ebp
  022c6	c2 40 00	 ret	 64			; 00000040H
_TEXT	ENDS
text$x	SEGMENT
$L198990:
  0007d	8d 4d 2c	 lea	 ecx, DWORD PTR _strTextName$[ebp]
  00080	ff 25 00 00 00
	00		 jmp	 DWORD PTR __imp_??1?$basic_string@DU?$char_traits@D@std@@V?$allocator@D@2@@std@@QAE@XZ
$L198991:
  00086	8d 4d 0c	 lea	 ecx, DWORD PTR _astrText$[ebp]
  00089	ff 25 00 00 00
	00		 jmp	 DWORD PTR __imp_??1?$CStringT@DV?$StrTraitMFC_DLL@DV?$ChTraitsCRT@D@ATL@@@@@ATL@@QAE@XZ
$L198992:
  0008f	8d 4d a8	 lea	 ecx, DWORD PTR _font$[ebp]
  00092	e9 00 00 00 00	 jmp	 ??1CFont@@UAE@XZ	; CFont::~CFont
__ehhandler$?DrawTextA@CGdiEx@@UAEXPAVCDC@@V?$CStringT@DV?$StrTraitMFC_DLL@DV?$ChTraitsCRT@D@ATL@@@@@ATL@@KAAUtagRECT@@I_NIIIV?$basic_string@DU?$char_traits@D@std@@V?$allocator@D@2@@std@@@Z:
  00097	b8 00 00 00 00	 mov	 eax, OFFSET FLAT:$T198994
  0009c	e9 00 00 00 00	 jmp	 ___CxxFrameHandler
text$x	ENDS
?DrawTextA@CGdiEx@@UAEXPAVCDC@@V?$CStringT@DV?$StrTraitMFC_DLL@DV?$ChTraitsCRT@D@ATL@@@@@ATL@@KAAUtagRECT@@I_NIIIV?$basic_string@DU?$char_traits@D@std@@V?$allocator@D@2@@std@@@Z ENDP ; CGdiEx::DrawTextA
PUBLIC	?GetWindowRectInParentCoordinates@CGdiEx@@QAEHPAUHWND__@@PAUtagRECT@@@Z ; CGdiEx::GetWindowRectInParentCoordinates
EXTRN	__imp__IsWindow@4:NEAR
EXTRN	__imp__GetWindowRect@8:NEAR
EXTRN	__imp__MapWindowPoints@16:NEAR
EXTRN	__imp__GetWindowLongA@8:NEAR
EXTRN	__imp__GetParent@4:NEAR
; Function compile flags: /Odt
_TEXT	SEGMENT
_this$ = -20						; size = 4
_rc$ = -16						; size = 16
_hwnd$ = 8						; size = 4
_prc$ = 12						; size = 4
?GetWindowRectInParentCoordinates@CGdiEx@@QAEHPAUHWND__@@PAUtagRECT@@@Z PROC NEAR ; CGdiEx::GetWindowRectInParentCoordinates
; _this$ = ecx

; 964  : {      

  022d0	55		 push	 ebp
  022d1	8b ec		 mov	 ebp, esp
  022d3	83 ec 14	 sub	 esp, 20			; 00000014H
  022d6	89 4d ec	 mov	 DWORD PTR _this$[ebp], ecx

; 965  : 	if(!hwnd   ||   !prc   ||   !IsWindow(hwnd))   

  022d9	83 7d 08 00	 cmp	 DWORD PTR _hwnd$[ebp], 0
  022dd	74 14		 je	 SHORT $L198078
  022df	83 7d 0c 00	 cmp	 DWORD PTR _prc$[ebp], 0
  022e3	74 0e		 je	 SHORT $L198078
  022e5	8b 45 08	 mov	 eax, DWORD PTR _hwnd$[ebp]
  022e8	50		 push	 eax
  022e9	ff 15 00 00 00
	00		 call	 DWORD PTR __imp__IsWindow@4
  022ef	85 c0		 test	 eax, eax
  022f1	75 04		 jne	 SHORT $L198077
$L198078:

; 966  : 		return   FALSE;   

  022f3	33 c0		 xor	 eax, eax
  022f5	eb 69		 jmp	 SHORT $L198076
$L198077:

; 967  : 
; 968  : 	RECT   rc;   
; 969  : 	if(!GetWindowRect(hwnd,   &rc))   

  022f7	8d 4d f0	 lea	 ecx, DWORD PTR _rc$[ebp]
  022fa	51		 push	 ecx
  022fb	8b 55 08	 mov	 edx, DWORD PTR _hwnd$[ebp]
  022fe	52		 push	 edx
  022ff	ff 15 00 00 00
	00		 call	 DWORD PTR __imp__GetWindowRect@8
  02305	85 c0		 test	 eax, eax
  02307	75 04		 jne	 SHORT $L198080

; 970  : 		return   FALSE;   

  02309	33 c0		 xor	 eax, eax
  0230b	eb 53		 jmp	 SHORT $L198076
$L198080:

; 971  : 
; 972  : 	if((GetWindowLong(hwnd,   GWL_STYLE)   &   WS_CHILD))   

  0230d	6a f0		 push	 -16			; fffffff0H
  0230f	8b 45 08	 mov	 eax, DWORD PTR _hwnd$[ebp]
  02312	50		 push	 eax
  02313	ff 15 00 00 00
	00		 call	 DWORD PTR __imp__GetWindowLongA@8
  02319	25 00 00 00 40	 and	 eax, 1073741824		; 40000000H
  0231e	74 21		 je	 SHORT $L198081

; 973  : 	{   
; 974  : 		if(!MapWindowPoints(HWND_DESKTOP,   GetParent(hwnd),   (LPPOINT)&rc,   2))   

  02320	6a 02		 push	 2
  02322	8d 4d f0	 lea	 ecx, DWORD PTR _rc$[ebp]
  02325	51		 push	 ecx
  02326	8b 55 08	 mov	 edx, DWORD PTR _hwnd$[ebp]
  02329	52		 push	 edx
  0232a	ff 15 00 00 00
	00		 call	 DWORD PTR __imp__GetParent@4
  02330	50		 push	 eax
  02331	6a 00		 push	 0
  02333	ff 15 00 00 00
	00		 call	 DWORD PTR __imp__MapWindowPoints@16
  02339	85 c0		 test	 eax, eax
  0233b	75 04		 jne	 SHORT $L198081

; 975  : 			return   FALSE;   

  0233d	33 c0		 xor	 eax, eax
  0233f	eb 1f		 jmp	 SHORT $L198076
$L198081:

; 976  : 	}   
; 977  : 
; 978  : 	*prc   =   rc;   

  02341	8b 45 0c	 mov	 eax, DWORD PTR _prc$[ebp]
  02344	8b 4d f0	 mov	 ecx, DWORD PTR _rc$[ebp]
  02347	89 08		 mov	 DWORD PTR [eax], ecx
  02349	8b 55 f4	 mov	 edx, DWORD PTR _rc$[ebp+4]
  0234c	89 50 04	 mov	 DWORD PTR [eax+4], edx
  0234f	8b 4d f8	 mov	 ecx, DWORD PTR _rc$[ebp+8]
  02352	89 48 08	 mov	 DWORD PTR [eax+8], ecx
  02355	8b 55 fc	 mov	 edx, DWORD PTR _rc$[ebp+12]
  02358	89 50 0c	 mov	 DWORD PTR [eax+12], edx

; 979  : 	return   TRUE;   

  0235b	b8 01 00 00 00	 mov	 eax, 1
$L198076:

; 980  : }   

  02360	8b e5		 mov	 esp, ebp
  02362	5d		 pop	 ebp
  02363	c2 08 00	 ret	 8
?GetWindowRectInParentCoordinates@CGdiEx@@QAEHPAUHWND__@@PAUtagRECT@@@Z ENDP ; CGdiEx::GetWindowRectInParentCoordinates
_TEXT	ENDS
PUBLIC	?CreateCompatibleDC@CDC@@QAEHPAV1@@Z		; CDC::CreateCompatibleDC
PUBLIC	?SelectObject@CDC@@QAEPAVCBitmap@@PAV2@@Z	; CDC::SelectObject
PUBLIC	?Width@CRect@@QBEHXZ				; CRect::Width
PUBLIC	?Height@CRect@@QBEHXZ				; CRect::Height
PUBLIC	?BitBlt@CDC@@QAEHHHHHPAV1@HHK@Z			; CDC::BitBlt
PUBLIC	?LoadBitmapA@CBitmap@@QAEHI@Z			; CBitmap::LoadBitmapA
EXTRN	??0CDC@@QAE@XZ:NEAR				; CDC::CDC
EXTRN	?DeleteDC@CDC@@QAEHXZ:NEAR			; CDC::DeleteDC
EXTRN	??1CDC@@UAE@XZ:NEAR				; CDC::~CDC
xdata$x	SEGMENT
$T199004 DD	0ffffffffH
	DD	FLAT:$L199000
$T199002 DD	019930520H
	DD	01H
	DD	FLAT:$T199004
	DD	2 DUP(00H)
	DD	2 DUP(00H)
; Function compile flags: /Odt
xdata$x	ENDS
_TEXT	SEGMENT
_this$ = -36						; size = 4
_dcMem$ = -32						; size = 16
_pbmpOld$ = -16						; size = 4
__$EHRec$ = -12						; size = 12
_apDC$ = 8						; size = 4
_abmpBigmap$ = 12					; size = 4
_aRect$ = 16						; size = 4
_aMapID$ = 20						; size = 4
?DrawBitmap@CGdiEx@@UAEXPAVCDC@@AAVCBitmap@@AAVCRect@@I@Z PROC NEAR ; CGdiEx::DrawBitmap
; _this$ = ecx

; 982  : {

  02370	55		 push	 ebp
  02371	8b ec		 mov	 ebp, esp
  02373	6a ff		 push	 -1
  02375	68 00 00 00 00	 push	 __ehhandler$?DrawBitmap@CGdiEx@@UAEXPAVCDC@@AAVCBitmap@@AAVCRect@@I@Z
  0237a	64 a1 00 00 00
	00		 mov	 eax, DWORD PTR fs:__except_list
  02380	50		 push	 eax
  02381	64 89 25 00 00
	00 00		 mov	 DWORD PTR fs:__except_list, esp
  02388	83 ec 18	 sub	 esp, 24			; 00000018H
  0238b	89 4d dc	 mov	 DWORD PTR _this$[ebp], ecx

; 983  : 	if( !abmpBigmap.m_hObject )

  0238e	8b 45 0c	 mov	 eax, DWORD PTR _abmpBigmap$[ebp]
  02391	83 78 04 00	 cmp	 DWORD PTR [eax+4], 0
  02395	75 0c		 jne	 SHORT $L198092

; 984  : 		abmpBigmap.LoadBitmap(aMapID);

  02397	8b 4d 14	 mov	 ecx, DWORD PTR _aMapID$[ebp]
  0239a	51		 push	 ecx
  0239b	8b 4d 0c	 mov	 ecx, DWORD PTR _abmpBigmap$[ebp]
  0239e	e8 00 00 00 00	 call	 ?LoadBitmapA@CBitmap@@QAEHI@Z ; CBitmap::LoadBitmapA
$L198092:

; 985  : 	CDC dcMem;

  023a3	8d 4d e0	 lea	 ecx, DWORD PTR _dcMem$[ebp]
  023a6	e8 00 00 00 00	 call	 ??0CDC@@QAE@XZ		; CDC::CDC
  023ab	c7 45 fc 00 00
	00 00		 mov	 DWORD PTR __$EHRec$[ebp+8], 0

; 986  : 	dcMem.CreateCompatibleDC(apDC); 

  023b2	8b 55 08	 mov	 edx, DWORD PTR _apDC$[ebp]
  023b5	52		 push	 edx
  023b6	8d 4d e0	 lea	 ecx, DWORD PTR _dcMem$[ebp]
  023b9	e8 00 00 00 00	 call	 ?CreateCompatibleDC@CDC@@QAEHPAV1@@Z ; CDC::CreateCompatibleDC

; 987  : 	CBitmap *pbmpOld=dcMem.SelectObject(&abmpBigmap);

  023be	8b 45 0c	 mov	 eax, DWORD PTR _abmpBigmap$[ebp]
  023c1	50		 push	 eax
  023c2	8d 4d e0	 lea	 ecx, DWORD PTR _dcMem$[ebp]
  023c5	e8 00 00 00 00	 call	 ?SelectObject@CDC@@QAEPAVCBitmap@@PAV2@@Z ; CDC::SelectObject
  023ca	89 45 f0	 mov	 DWORD PTR _pbmpOld$[ebp], eax

; 988  : 	apDC->BitBlt(aRect.left,aRect.top,aRect.Width(),aRect.Height(),&dcMem,0,0,SRCCOPY);

  023cd	68 20 00 cc 00	 push	 13369376		; 00cc0020H
  023d2	6a 00		 push	 0
  023d4	6a 00		 push	 0
  023d6	8d 4d e0	 lea	 ecx, DWORD PTR _dcMem$[ebp]
  023d9	51		 push	 ecx
  023da	8b 4d 10	 mov	 ecx, DWORD PTR _aRect$[ebp]
  023dd	e8 00 00 00 00	 call	 ?Height@CRect@@QBEHXZ	; CRect::Height
  023e2	50		 push	 eax
  023e3	8b 4d 10	 mov	 ecx, DWORD PTR _aRect$[ebp]
  023e6	e8 00 00 00 00	 call	 ?Width@CRect@@QBEHXZ	; CRect::Width
