; Listing generated by Microsoft (R) Optimizing Compiler Version 13.10.3077 

	TITLE	.\src\LayoutMgr\SeperateMode\HostWndMgr.cpp
	.386P
include listing.inc
if @Version gt 510
.model FLAT
else
_TEXT	SEGMENT PARA USE32 PUBLIC 'CODE'
_TEXT	ENDS
_DATA	SEGMENT DWORD USE32 PUBLIC 'DATA'
_DATA	ENDS
CONST	SEGMENT DWORD USE32 PUBLIC 'CONST'
CONST	ENDS
_BSS	SEGMENT DWORD USE32 PUBLIC 'BSS'
_BSS	ENDS
$$SYMBOLS	SEGMENT BYTE USE32 'DEBSYM'
$$SYMBOLS	ENDS
$$TYPES	SEGMENT BYTE USE32 'DEBTYP'
$$TYPES	ENDS
_TLS	SEGMENT DWORD USE32 PUBLIC 'TLS'
_TLS	ENDS
;	COMDAT ??_C@_0BE@JONHPENG@map?1set?$DMT?$DO?5too?5long?$AA@
CONST	SEGMENT DWORD USE32 PUBLIC 'CONST'
CONST	ENDS
;	COMDAT ??_C@_0BD@OLBABOEK@vector?$DMT?$DO?5too?5long?$AA@
CONST	SEGMENT DWORD USE32 PUBLIC 'CONST'
CONST	ENDS
rdata$r	SEGMENT DWORD USE32 PUBLIC 'CONST'
rdata$r	ENDS
xdata$x	SEGMENT DWORD USE32 PUBLIC 'CONST'
xdata$x	ENDS
text$AFX_COL1	SEGMENT PARA USE32 PUBLIC ''
text$AFX_COL1	ENDS
text$yc	SEGMENT PARA USE32 PUBLIC 'CODE'
text$yc	ENDS
CRT$XCA	SEGMENT DWORD USE32 PUBLIC 'DATA'
CRT$XCA	ENDS
CRT$XCU	SEGMENT DWORD USE32 PUBLIC 'DATA'
CRT$XCU	ENDS
CRT$XCL	SEGMENT DWORD USE32 PUBLIC 'DATA'
CRT$XCL	ENDS
CRT$XCC	SEGMENT DWORD USE32 PUBLIC 'DATA'
CRT$XCC	ENDS
CRT$XCZ	SEGMENT DWORD USE32 PUBLIC 'DATA'
CRT$XCZ	ENDS
text$yd	SEGMENT PARA USE32 PUBLIC 'CODE'
text$yd	ENDS
ATL$__m	SEGMENT DWORD USE32 PUBLIC ''
ATL$__m	ENDS
ATL$__z	SEGMENT DWORD USE32 PUBLIC ''
ATL$__z	ENDS
ATL$__a	SEGMENT DWORD USE32 PUBLIC ''
ATL$__a	ENDS
;	COMDAT ??1IData@@MAE@XZ
_TEXT	SEGMENT PARA USE32 PUBLIC 'CODE'
_TEXT	ENDS
;	COMDAT ?DataAppStart@IData@@UAEXXZ
_TEXT	SEGMENT PARA USE32 PUBLIC 'CODE'
_TEXT	ENDS
;	COMDAT ?DataAppExit@IData@@UAEXXZ
_TEXT	SEGMENT PARA USE32 PUBLIC 'CODE'
_TEXT	ENDS
;	COMDAT ??_GIData@@MAEPAXI@Z
_TEXT	SEGMENT PARA USE32 PUBLIC 'CODE'
_TEXT	ENDS
;	COMDAT ?SetMinConstrant@CHostWnd@@QAEXHH@Z
_TEXT	SEGMENT PARA USE32 PUBLIC 'CODE'
_TEXT	ENDS
;	COMDAT ?SetMainWnd@CHostWnd@@QAEXH@Z
_TEXT	SEGMENT PARA USE32 PUBLIC 'CODE'
_TEXT	ENDS
;	COMDAT ?SetName@CHostWnd@@QAEXV?$basic_string@DU?$char_traits@D@std@@V?$allocator@D@2@@std@@@Z
_TEXT	SEGMENT PARA USE32 PUBLIC 'CODE'
_TEXT	ENDS
;	COMDAT ?GetName@CHostWnd@@QAE?AV?$basic_string@DU?$char_traits@D@std@@V?$allocator@D@2@@std@@XZ
_TEXT	SEGMENT PARA USE32 PUBLIC 'CODE'
_TEXT	ENDS
;	COMDAT ?SetResizable@CHostWnd@@QAEX_N@Z
_TEXT	SEGMENT PARA USE32 PUBLIC 'CODE'
_TEXT	ENDS
;	COMDAT ?SetContent@CHostWnd@@QAEXV?$CStringT@DV?$StrTraitMFC_DLL@DV?$ChTraitsCRT@D@ATL@@@@@ATL@@@Z
_TEXT	SEGMENT PARA USE32 PUBLIC 'CODE'
_TEXT	ENDS
;	COMDAT ?GetContentWnd@CHostWnd@@QAEPAVCWnd@@XZ
_TEXT	SEGMENT PARA USE32 PUBLIC 'CODE'
_TEXT	ENDS
;	COMDAT ??_GCHostWndMgr@@AAEPAXI@Z
_TEXT	SEGMENT PARA USE32 PUBLIC 'CODE'
_TEXT	ENDS
;	COMDAT ??1?$map@PAUHWND__@@UCWndData@@U?$less@PAUHWND__@@@std@@V?$allocator@U?$pair@QAUHWND__@@UCWndData@@@std@@@4@@std@@QAE@XZ
_TEXT	SEGMENT PARA USE32 PUBLIC 'CODE'
_TEXT	ENDS
;	COMDAT ??0SepWindowData@@QAE@ABU0@@Z
_TEXT	SEGMENT PARA USE32 PUBLIC 'CODE'
_TEXT	ENDS
;	COMDAT ??1SepWindowData@@QAE@XZ
_TEXT	SEGMENT PARA USE32 PUBLIC 'CODE'
_TEXT	ENDS
;	COMDAT ??B?$CComPtrBase@UITypeInfo2@@@ATL@@QBEPAUITypeInfo2@@XZ
_TEXT	SEGMENT PARA USE32 PUBLIC 'CODE'
_TEXT	ENDS
;	COMDAT ?equal@?$istreambuf_iterator@DU?$char_traits@D@std@@@std@@QBE_NABV12@@Z
_TEXT	SEGMENT PARA USE32 PUBLIC 'CODE'
_TEXT	ENDS
;	COMDAT ?equal@?$istreambuf_iterator@_WU?$char_traits@_W@std@@@std@@QBE_NABV12@@Z
_TEXT	SEGMENT PARA USE32 PUBLIC 'CODE'
_TEXT	ENDS
;	COMDAT ??0?$map@PAUHWND__@@UCWndData@@U?$less@PAUHWND__@@@std@@V?$allocator@U?$pair@QAUHWND__@@UCWndData@@@std@@@4@@std@@QAE@XZ
_TEXT	SEGMENT PARA USE32 PUBLIC 'CODE'
_TEXT	ENDS
;	COMDAT ??A?$map@PAUHWND__@@UCWndData@@U?$less@PAUHWND__@@@std@@V?$allocator@U?$pair@QAUHWND__@@UCWndData@@@std@@@4@@std@@QAEAAUCWndData@@ABQAUHWND__@@@Z
_TEXT	SEGMENT PARA USE32 PUBLIC 'CODE'
_TEXT	ENDS
;	COMDAT ??1?$_Tree@V?$_Tmap_traits@PAUHWND__@@UCWndData@@U?$less@PAUHWND__@@@std@@V?$allocator@U?$pair@QAUHWND__@@UCWndData@@@std@@@4@$0A@@std@@@std@@QAE@XZ
_TEXT	SEGMENT PARA USE32 PUBLIC 'CODE'
_TEXT	ENDS
;	COMDAT ?begin@?$_Tree@V?$_Tmap_traits@PAUHWND__@@UCWndData@@U?$less@PAUHWND__@@@std@@V?$allocator@U?$pair@QAUHWND__@@UCWndData@@@std@@@4@$0A@@std@@@std@@QAE?AViterator@12@XZ
_TEXT	SEGMENT PARA USE32 PUBLIC 'CODE'
_TEXT	ENDS
;	COMDAT ?end@?$_Tree@V?$_Tmap_traits@PAUHWND__@@UCWndData@@U?$less@PAUHWND__@@@std@@V?$allocator@U?$pair@QAUHWND__@@UCWndData@@@std@@@4@$0A@@std@@@std@@QAE?AViterator@12@XZ
_TEXT	SEGMENT PARA USE32 PUBLIC 'CODE'
_TEXT	ENDS
;	COMDAT ??0?$vector@PAVCHostWnd@@V?$allocator@PAVCHostWnd@@@std@@@std@@QAE@XZ
_TEXT	SEGMENT PARA USE32 PUBLIC 'CODE'
_TEXT	ENDS
;	COMDAT ??1?$vector@PAVCHostWnd@@V?$allocator@PAVCHostWnd@@@std@@@std@@QAE@XZ
_TEXT	SEGMENT PARA USE32 PUBLIC 'CODE'
_TEXT	ENDS
;	COMDAT ?size@?$vector@PAVCHostWnd@@V?$allocator@PAVCHostWnd@@@std@@@std@@QBEIXZ
_TEXT	SEGMENT PARA USE32 PUBLIC 'CODE'
_TEXT	ENDS
;	COMDAT ??A?$vector@PAVCHostWnd@@V?$allocator@PAVCHostWnd@@@std@@@std@@QAEAAPAVCHostWnd@@I@Z
_TEXT	SEGMENT PARA USE32 PUBLIC 'CODE'
_TEXT	ENDS
;	COMDAT ?push_back@?$vector@PAVCHostWnd@@V?$allocator@PAVCHostWnd@@@std@@@std@@QAEXABQAVCHostWnd@@@Z
_TEXT	SEGMENT PARA USE32 PUBLIC 'CODE'
_TEXT	ENDS
;	COMDAT ?clear@?$vector@PAVCHostWnd@@V?$allocator@PAVCHostWnd@@@std@@@std@@QAEXXZ
_TEXT	SEGMENT PARA USE32 PUBLIC 'CODE'
_TEXT	ENDS
;	COMDAT ??0?$vector@PAVILyricPopupWndShowObserver@@V?$allocator@PAVILyricPopupWndShowObserver@@@std@@@std@@QAE@XZ
_TEXT	SEGMENT PARA USE32 PUBLIC 'CODE'
_TEXT	ENDS
;	COMDAT ??1?$vector@PAVILyricPopupWndShowObserver@@V?$allocator@PAVILyricPopupWndShowObserver@@@std@@@std@@QAE@XZ
_TEXT	SEGMENT PARA USE32 PUBLIC 'CODE'
_TEXT	ENDS
;	COMDAT ?push_back@?$vector@PAVILyricPopupWndShowObserver@@V?$allocator@PAVILyricPopupWndShowObserver@@@std@@@std@@QAEXABQAVILyricPopupWndShowObserver@@@Z
_TEXT	SEGMENT PARA USE32 PUBLIC 'CODE'
_TEXT	ENDS
;	COMDAT ?size@?$vector@USepWindowData@@V?$allocator@USepWindowData@@@std@@@std@@QBEIXZ
_TEXT	SEGMENT PARA USE32 PUBLIC 'CODE'
_TEXT	ENDS
;	COMDAT ??A?$vector@USepWindowData@@V?$allocator@USepWindowData@@@std@@@std@@QAEAAUSepWindowData@@I@Z
_TEXT	SEGMENT PARA USE32 PUBLIC 'CODE'
_TEXT	ENDS
;	COMDAT ??Citerator@?$_Tree@V?$_Tmap_traits@PAUHWND__@@UCWndData@@U?$less@PAUHWND__@@@std@@V?$allocator@U?$pair@QAUHWND__@@UCWndData@@@std@@@4@$0A@@std@@@std@@QBEPAU?$pair@QAUHWND__@@UCWndData@@@2@XZ
_TEXT	SEGMENT PARA USE32 PUBLIC 'CODE'
_TEXT	ENDS
;	COMDAT ??Eiterator@?$_Tree@V?$_Tmap_traits@PAUHWND__@@UCWndData@@U?$less@PAUHWND__@@@std@@V?$allocator@U?$pair@QAUHWND__@@UCWndData@@@std@@@4@$0A@@std@@@std@@QAE?AV012@H@Z
_TEXT	SEGMENT PARA USE32 PUBLIC 'CODE'
_TEXT	ENDS
;	COMDAT ??9const_iterator@?$_Tree@V?$_Tmap_traits@PAUHWND__@@UCWndData@@U?$less@PAUHWND__@@@std@@V?$allocator@U?$pair@QAUHWND__@@UCWndData@@@std@@@4@$0A@@std@@@std@@QBE_NABV012@@Z
_TEXT	SEGMENT PARA USE32 PUBLIC 'CODE'
_TEXT	ENDS
;	COMDAT ?_Key@?$_Tree@V?$_Tmap_traits@PAUHWND__@@UCWndData@@U?$less@PAUHWND__@@@std@@V?$allocator@U?$pair@QAUHWND__@@UCWndData@@@std@@@4@$0A@@std@@@std@@KAABQAUHWND__@@PAU_Node@?$_Tree_nod@V?$_Tmap_traits@PAUHWND__@@UCWndData@@U?$less@PAUHWND__@@@std@@V?$allocator@U?$pair@QAUHWND__@@UCWndData@@@std@@@4@$0A@@std@@@2@@Z
_TEXT	SEGMENT PARA USE32 PUBLIC 'CODE'
_TEXT	ENDS
;	COMDAT ??0?$_Tree@V?$_Tmap_traits@PAUHWND__@@UCWndData@@U?$less@PAUHWND__@@@std@@V?$allocator@U?$pair@QAUHWND__@@UCWndData@@@std@@@4@$0A@@std@@@std@@QAE@ABU?$less@PAUHWND__@@@1@ABV?$allocator@U?$pair@QAUHWND__@@UCWndData@@@std@@@1@@Z
_TEXT	SEGMENT PARA USE32 PUBLIC 'CODE'
_TEXT	ENDS
;	COMDAT ?insert@?$_Tree@V?$_Tmap_traits@PAUHWND__@@UCWndData@@U?$less@PAUHWND__@@@std@@V?$allocator@U?$pair@QAUHWND__@@UCWndData@@@std@@@4@$0A@@std@@@std@@QAE?AViterator@12@V312@ABU?$pair@QAUHWND__@@UCWndData@@@2@@Z
_TEXT	SEGMENT PARA USE32 PUBLIC 'CODE'
_TEXT	ENDS
;	COMDAT ?lower_bound@?$_Tree@V?$_Tmap_traits@PAUHWND__@@UCWndData@@U?$less@PAUHWND__@@@std@@V?$allocator@U?$pair@QAUHWND__@@UCWndData@@@std@@@4@$0A@@std@@@std@@QAE?AViterator@12@ABQAUHWND__@@@Z
_TEXT	SEGMENT PARA USE32 PUBLIC 'CODE'
_TEXT	ENDS
;	COMDAT ?_Lmost@?$_Tree@V?$_Tmap_traits@PAUHWND__@@UCWndData@@U?$less@PAUHWND__@@@std@@V?$allocator@U?$pair@QAUHWND__@@UCWndData@@@std@@@4@$0A@@std@@@std@@IAEAAPAU_Node@?$_Tree_nod@V?$_Tmap_traits@PAUHWND__@@UCWndData@@U?$less@PAUHWND__@@@std@@V?$allocator@U?$pair@QAUHWND__@@UCWndData@@@std@@@4@$0A@@std@@@2@XZ
_TEXT	SEGMENT PARA USE32 PUBLIC 'CODE'
_TEXT	ENDS
;	COMDAT ?_Tidy@?$_Tree@V?$_Tmap_traits@PAUHWND__@@UCWndData@@U?$less@PAUHWND__@@@std@@V?$allocator@U?$pair@QAUHWND__@@UCWndData@@@std@@@4@$0A@@std@@@std@@IAEXXZ
_TEXT	SEGMENT PARA USE32 PUBLIC 'CODE'
_TEXT	ENDS
;	COMDAT ??0?$allocator@U?$pair@QAUHWND__@@UCWndData@@@std@@@std@@QAE@XZ
_TEXT	SEGMENT PARA USE32 PUBLIC 'CODE'
_TEXT	ENDS
;	COMDAT ??R?$less@PAUHWND__@@@std@@QBE_NABQAUHWND__@@0@Z
_TEXT	SEGMENT PARA USE32 PUBLIC 'CODE'
_TEXT	ENDS
;	COMDAT ?capacity@?$vector@PAVCHostWnd@@V?$allocator@PAVCHostWnd@@@std@@@std@@QBEIXZ
_TEXT	SEGMENT PARA USE32 PUBLIC 'CODE'
_TEXT	ENDS
;	COMDAT ?begin@?$vector@PAVCHostWnd@@V?$allocator@PAVCHostWnd@@@std@@@std@@QAE?AViterator@12@XZ
_TEXT	SEGMENT PARA USE32 PUBLIC 'CODE'
_TEXT	ENDS
;	COMDAT ?end@?$vector@PAVCHostWnd@@V?$allocator@PAVCHostWnd@@@std@@@std@@QAE?AViterator@12@XZ
_TEXT	SEGMENT PARA USE32 PUBLIC 'CODE'
_TEXT	ENDS
;	COMDAT ?insert@?$vector@PAVCHostWnd@@V?$allocator@PAVCHostWnd@@@std@@@std@@QAE?AViterator@12@V312@ABQAVCHostWnd@@@Z
_TEXT	SEGMENT PARA USE32 PUBLIC 'CODE'
_TEXT	ENDS
;	COMDAT ?_Buy@?$vector@PAVCHostWnd@@V?$allocator@PAVCHostWnd@@@std@@@std@@IAE_NI@Z
_TEXT	SEGMENT PARA USE32 PUBLIC 'CODE'
_TEXT	ENDS
;	COMDAT ?_Tidy@?$vector@PAVCHostWnd@@V?$allocator@PAVCHostWnd@@@std@@@std@@IAEXXZ
_TEXT	SEGMENT PARA USE32 PUBLIC 'CODE'
_TEXT	ENDS
;	COMDAT ?_Ufill@?$vector@PAVCHostWnd@@V?$allocator@PAVCHostWnd@@@std@@@std@@IAEPAPAVCHostWnd@@PAPAV3@IABQAV3@@Z
_TEXT	SEGMENT PARA USE32 PUBLIC 'CODE'
_TEXT	ENDS
;	COMDAT ??0?$_Vector_val@PAVCHostWnd@@V?$allocator@PAVCHostWnd@@@std@@@std@@IAE@V?$allocator@PAVCHostWnd@@@1@@Z
_TEXT	SEGMENT PARA USE32 PUBLIC 'CODE'
_TEXT	ENDS
;	COMDAT ??0?$allocator@PAVCHostWnd@@@std@@QAE@XZ
_TEXT	SEGMENT PARA USE32 PUBLIC 'CODE'
_TEXT	ENDS
;	COMDAT ?capacity@?$vector@PAVILyricPopupWndShowObserver@@V?$allocator@PAVILyricPopupWndShowObserver@@@std@@@std@@QBEIXZ
_TEXT	SEGMENT PARA USE32 PUBLIC 'CODE'
_TEXT	ENDS
;	COMDAT ?end@?$vector@PAVILyricPopupWndShowObserver@@V?$allocator@PAVILyricPopupWndShowObserver@@@std@@@std@@QAE?AViterator@12@XZ
_TEXT	SEGMENT PARA USE32 PUBLIC 'CODE'
_TEXT	ENDS
;	COMDAT ?size@?$vector@PAVILyricPopupWndShowObserver@@V?$allocator@PAVILyricPopupWndShowObserver@@@std@@@std@@QBEIXZ
_TEXT	SEGMENT PARA USE32 PUBLIC 'CODE'
_TEXT	ENDS
;	COMDAT ?insert@?$vector@PAVILyricPopupWndShowObserver@@V?$allocator@PAVILyricPopupWndShowObserver@@@std@@@std@@QAE?AViterator@12@V312@ABQAVILyricPopupWndShowObserver@@@Z
_TEXT	SEGMENT PARA USE32 PUBLIC 'CODE'
_TEXT	ENDS
;	COMDAT ?_Buy@?$vector@PAVILyricPopupWndShowObserver@@V?$allocator@PAVILyricPopupWndShowObserver@@@std@@@std@@IAE_NI@Z
_TEXT	SEGMENT PARA USE32 PUBLIC 'CODE'
_TEXT	ENDS
;	COMDAT ?_Tidy@?$vector@PAVILyricPopupWndShowObserver@@V?$allocator@PAVILyricPopupWndShowObserver@@@std@@@std@@IAEXXZ
_TEXT	SEGMENT PARA USE32 PUBLIC 'CODE'
_TEXT	ENDS
;	COMDAT ?_Ufill@?$vector@PAVILyricPopupWndShowObserver@@V?$allocator@PAVILyricPopupWndShowObserver@@@std@@@std@@IAEPAPAVILyricPopupWndShowObserver@@PAPAV3@IABQAV3@@Z
_TEXT	SEGMENT PARA USE32 PUBLIC 'CODE'
_TEXT	ENDS
;	COMDAT ??0?$_Vector_val@PAVILyricPopupWndShowObserver@@V?$allocator@PAVILyricPopupWndShowObserver@@@std@@@std@@IAE@V?$allocator@PAVILyricPopupWndShowObserver@@@1@@Z
_TEXT	SEGMENT PARA USE32 PUBLIC 'CODE'
_TEXT	ENDS
;	COMDAT ??0?$allocator@PAVILyricPopupWndShowObserver@@@std@@QAE@XZ
_TEXT	SEGMENT PARA USE32 PUBLIC 'CODE'
_TEXT	ENDS
;	COMDAT ?begin@?$vector@USepWindowData@@V?$allocator@USepWindowData@@@std@@@std@@QAE?AViterator@12@XZ
_TEXT	SEGMENT PARA USE32 PUBLIC 'CODE'
_TEXT	ENDS
;	COMDAT ??0iterator@?$_Tree@V?$_Tmap_traits@PAUHWND__@@UCWndData@@U?$less@PAUHWND__@@@std@@V?$allocator@U?$pair@QAUHWND__@@UCWndData@@@std@@@4@$0A@@std@@@std@@QAE@PAU_Node@?$_Tree_nod@V?$_Tmap_traits@PAUHWND__@@UCWndData@@U?$less@PAUHWND__@@@std@@V?$allocator@U?$pair@QAUHWND__@@UCWndData@@@std@@@4@$0A@@std@@@2@@Z
_TEXT	SEGMENT PARA USE32 PUBLIC 'CODE'
_TEXT	ENDS
;	COMDAT ??Diterator@?$_Tree@V?$_Tmap_traits@PAUHWND__@@UCWndData@@U?$less@PAUHWND__@@@std@@V?$allocator@U?$pair@QAUHWND__@@UCWndData@@@std@@@4@$0A@@std@@@std@@QBEAAU?$pair@QAUHWND__@@UCWndData@@@2@XZ
_TEXT	SEGMENT PARA USE32 PUBLIC 'CODE'
_TEXT	ENDS
;	COMDAT ??Eiterator@?$_Tree@V?$_Tmap_traits@PAUHWND__@@UCWndData@@U?$less@PAUHWND__@@@std@@V?$allocator@U?$pair@QAUHWND__@@UCWndData@@@std@@@4@$0A@@std@@@std@@QAEAAV012@XZ
_TEXT	SEGMENT PARA USE32 PUBLIC 'CODE'
_TEXT	ENDS
;	COMDAT ??8const_iterator@?$_Tree@V?$_Tmap_traits@PAUHWND__@@UCWndData@@U?$less@PAUHWND__@@@std@@V?$allocator@U?$pair@QAUHWND__@@UCWndData@@@std@@@4@$0A@@std@@@std@@QBE_NABV012@@Z
_TEXT	SEGMENT PARA USE32 PUBLIC 'CODE'
_TEXT	ENDS
;	COMDAT ?_Mynode@const_iterator@?$_Tree@V?$_Tmap_traits@PAUHWND__@@UCWndData@@U?$less@PAUHWND__@@@std@@V?$allocator@U?$pair@QAUHWND__@@UCWndData@@@std@@@4@$0A@@std@@@std@@QBEPAU_Node@?$_Tree_nod@V?$_Tmap_traits@PAUHWND__@@UCWndData@@U?$less@PAUHWND__@@@std@@V?$allocator@U?$pair@QAUHWND__@@UCWndData@@@std@@@4@$0A@@std@@@3@XZ
_TEXT	SEGMENT PARA USE32 PUBLIC 'CODE'
_TEXT	ENDS
;	COMDAT ??0?$pair@QAUHWND__@@UCWndData@@@std@@QAE@ABQAUHWND__@@ABUCWndData@@@Z
_TEXT	SEGMENT PARA USE32 PUBLIC 'CODE'
_TEXT	ENDS
;	COMDAT ??Diterator@?$vector@PAVCHostWnd@@V?$allocator@PAVCHostWnd@@@std@@@std@@QBEAAPAVCHostWnd@@XZ
_TEXT	SEGMENT PARA USE32 PUBLIC 'CODE'
_TEXT	ENDS
;	COMDAT ??Hiterator@?$vector@PAVCHostWnd@@V?$allocator@PAVCHostWnd@@@std@@@std@@QBE?AV012@H@Z
_TEXT	SEGMENT PARA USE32 PUBLIC 'CODE'
_TEXT	ENDS
;	COMDAT ??Diterator@?$vector@USepWindowData@@V?$allocator@USepWindowData@@@std@@@std@@QBEAAUSepWindowData@@XZ
_TEXT	SEGMENT PARA USE32 PUBLIC 'CODE'
_TEXT	ENDS
;	COMDAT ??Hiterator@?$vector@USepWindowData@@V?$allocator@USepWindowData@@@std@@@std@@QBE?AV012@H@Z
_TEXT	SEGMENT PARA USE32 PUBLIC 'CODE'
_TEXT	ENDS
;	COMDAT ?_Isnil@?$_Tree@V?$_Tmap_traits@PAUHWND__@@UCWndData@@U?$less@PAUHWND__@@@std@@V?$allocator@U?$pair@QAUHWND__@@UCWndData@@@std@@@4@$0A@@std@@@std@@KAAADPAU_Node@?$_Tree_nod@V?$_Tmap_traits@PAUHWND__@@UCWndData@@U?$less@PAUHWND__@@@std@@V?$allocator@U?$pair@QAUHWND__@@UCWndData@@@std@@@4@$0A@@std@@@2@@Z
_TEXT	SEGMENT PARA USE32 PUBLIC 'CODE'
_TEXT	ENDS
;	COMDAT ?_Left@?$_Tree@V?$_Tmap_traits@PAUHWND__@@UCWndData@@U?$less@PAUHWND__@@@std@@V?$allocator@U?$pair@QAUHWND__@@UCWndData@@@std@@@4@$0A@@std@@@std@@KAAAPAU_Node@?$_Tree_nod@V?$_Tmap_traits@PAUHWND__@@UCWndData@@U?$less@PAUHWND__@@@std@@V?$allocator@U?$pair@QAUHWND__@@UCWndData@@@std@@@4@$0A@@std@@@2@PAU342@@Z
_TEXT	SEGMENT PARA USE32 PUBLIC 'CODE'
_TEXT	ENDS
;	COMDAT ?_Parent@?$_Tree@V?$_Tmap_traits@PAUHWND__@@UCWndData@@U?$less@PAUHWND__@@@std@@V?$allocator@U?$pair@QAUHWND__@@UCWndData@@@std@@@4@$0A@@std@@@std@@KAAAPAU_Node@?$_Tree_nod@V?$_Tmap_traits@PAUHWND__@@UCWndData@@U?$less@PAUHWND__@@@std@@V?$allocator@U?$pair@QAUHWND__@@UCWndData@@@std@@@4@$0A@@std@@@2@PAU342@@Z
_TEXT	SEGMENT PARA USE32 PUBLIC 'CODE'
_TEXT	ENDS
;	COMDAT ?_Right@?$_Tree@V?$_Tmap_traits@PAUHWND__@@UCWndData@@U?$less@PAUHWND__@@@std@@V?$allocator@U?$pair@QAUHWND__@@UCWndData@@@std@@@4@$0A@@std@@@std@@KAAAPAU_Node@?$_Tree_nod@V?$_Tmap_traits@PAUHWND__@@UCWndData@@U?$less@PAUHWND__@@@std@@V?$allocator@U?$pair@QAUHWND__@@UCWndData@@@std@@@4@$0A@@std@@@2@PAU342@@Z
_TEXT	SEGMENT PARA USE32 PUBLIC 'CODE'
_TEXT	ENDS
;	COMDAT ?_Myval@?$_Tree@V?$_Tmap_traits@PAUHWND__@@UCWndData@@U?$less@PAUHWND__@@@std@@V?$allocator@U?$pair@QAUHWND__@@UCWndData@@@std@@@4@$0A@@std@@@std@@KAAAU?$pair@QAUHWND__@@UCWndData@@@2@PAU_Node@?$_Tree_nod@V?$_Tmap_traits@PAUHWND__@@UCWndData@@U?$less@PAUHWND__@@@std@@V?$allocator@U?$pair@QAUHWND__@@UCWndData@@@std@@@4@$0A@@std@@@2@@Z
_TEXT	SEGMENT PARA USE32 PUBLIC 'CODE'
_TEXT	ENDS
;	COMDAT ?size@?$_Tree@V?$_Tmap_traits@PAUHWND__@@UCWndData@@U?$less@PAUHWND__@@@std@@V?$allocator@U?$pair@QAUHWND__@@UCWndData@@@std@@@4@$0A@@std@@@std@@QBEIXZ
_TEXT	SEGMENT PARA USE32 PUBLIC 'CODE'
_TEXT	ENDS
;	COMDAT ?insert@?$_Tree@V?$_Tmap_traits@PAUHWND__@@UCWndData@@U?$less@PAUHWND__@@@std@@V?$allocator@U?$pair@QAUHWND__@@UCWndData@@@std@@@4@$0A@@std@@@std@@QAE?AU?$pair@Viterator@?$_Tree@V?$_Tmap_traits@PAUHWND__@@UCWndData@@U?$less@PAUHWND__@@@std@@V?$allocator@U?$pair@QAUHWND__@@UCWndData@@@std@@@4@$0A@@std@@@std@@_N@2@ABU?$pair@QAUHWND__@@UCWndData@@@2@@Z
_TEXT	SEGMENT PARA USE32 PUBLIC 'CODE'
_TEXT	ENDS
;	COMDAT ?erase@?$_Tree@V?$_Tmap_traits@PAUHWND__@@UCWndData@@U?$less@PAUHWND__@@@std@@V?$allocator@U?$pair@QAUHWND__@@UCWndData@@@std@@@4@$0A@@std@@@std@@QAE?AViterator@12@V312@0@Z
_TEXT	SEGMENT PARA USE32 PUBLIC 'CODE'
_TEXT	ENDS
;	COMDAT ?_Init@?$_Tree@V?$_Tmap_traits@PAUHWND__@@UCWndData@@U?$less@PAUHWND__@@@std@@V?$allocator@U?$pair@QAUHWND__@@UCWndData@@@std@@@4@$0A@@std@@@std@@IAEXXZ
_TEXT	SEGMENT PARA USE32 PUBLIC 'CODE'
_TEXT	ENDS
;	COMDAT ?_Insert@?$_Tree@V?$_Tmap_traits@PAUHWND__@@UCWndData@@U?$less@PAUHWND__@@@std@@V?$allocator@U?$pair@QAUHWND__@@UCWndData@@@std@@@4@$0A@@std@@@std@@IAE?AViterator@12@_NPAU_Node@?$_Tree_nod@V?$_Tmap_traits@PAUHWND__@@UCWndData@@U?$less@PAUHWND__@@@std@@V?$allocator@U?$pair@QAUHWND__@@UCWndData@@@std@@@4@$0A@@std@@@2@ABU?$pair@QAUHWND__@@UCWndData@@@2@@Z
_TEXT	SEGMENT PARA USE32 PUBLIC 'CODE'
_TEXT	ENDS
;	COMDAT ?_Lbound@?$_Tree@V?$_Tmap_traits@PAUHWND__@@UCWndData@@U?$less@PAUHWND__@@@std@@V?$allocator@U?$pair@QAUHWND__@@UCWndData@@@std@@@4@$0A@@std@@@std@@IBEPAU_Node@?$_Tree_nod@V?$_Tmap_traits@PAUHWND__@@UCWndData@@U?$less@PAUHWND__@@@std@@V?$allocator@U?$pair@QAUHWND__@@UCWndData@@@std@@@4@$0A@@std@@@2@ABQAUHWND__@@@Z
_TEXT	SEGMENT PARA USE32 PUBLIC 'CODE'
_TEXT	ENDS
;	COMDAT ?_Rmost@?$_Tree@V?$_Tmap_traits@PAUHWND__@@UCWndData@@U?$less@PAUHWND__@@@std@@V?$allocator@U?$pair@QAUHWND__@@UCWndData@@@std@@@4@$0A@@std@@@std@@IAEAAPAU_Node@?$_Tree_nod@V?$_Tmap_traits@PAUHWND__@@UCWndData@@U?$less@PAUHWND__@@@std@@V?$allocator@U?$pair@QAUHWND__@@UCWndData@@@std@@@4@$0A@@std@@@2@XZ
_TEXT	SEGMENT PARA USE32 PUBLIC 'CODE'
_TEXT	ENDS
;	COMDAT ??0?$_Tree_val@V?$_Tmap_traits@PAUHWND__@@UCWndData@@U?$less@PAUHWND__@@@std@@V?$allocator@U?$pair@QAUHWND__@@UCWndData@@@std@@@4@$0A@@std@@@std@@IAE@ABU?$less@PAUHWND__@@@1@V?$allocator@U?$pair@QAUHWND__@@UCWndData@@@std@@@1@@Z
_TEXT	SEGMENT PARA USE32 PUBLIC 'CODE'
_TEXT	ENDS
;	COMDAT ?_Kfn@?$_Tmap_traits@PAUHWND__@@UCWndData@@U?$less@PAUHWND__@@@std@@V?$allocator@U?$pair@QAUHWND__@@UCWndData@@@std@@@4@$0A@@std@@SAABQAUHWND__@@ABU?$pair@QAUHWND__@@UCWndData@@@2@@Z
_TEXT	SEGMENT PARA USE32 PUBLIC 'CODE'
_TEXT	ENDS
;	COMDAT ??0?$allocator@U?$pair@QAUHWND__@@UCWndData@@@std@@@std@@QAE@ABV01@@Z
_TEXT	SEGMENT PARA USE32 PUBLIC 'CODE'
_TEXT	ENDS
;	COMDAT ?deallocate@?$allocator@U_Node@?$_Tree_nod@V?$_Tmap_traits@PAUHWND__@@UCWndData@@U?$less@PAUHWND__@@@std@@V?$allocator@U?$pair@QAUHWND__@@UCWndData@@@std@@@4@$0A@@std@@@std@@@std@@QAEXPAU_Node@?$_Tree_nod@V?$_Tmap_traits@PAUHWND__@@UCWndData@@U?$less@PAUHWND__@@@std@@V?$allocator@U?$pair@QAUHWND__@@UCWndData@@@std@@@4@$0A@@std@@@2@I@Z
_TEXT	SEGMENT PARA USE32 PUBLIC 'CODE'
_TEXT	ENDS
;	COMDAT ?destroy@?$allocator@PAU_Node@?$_Tree_nod@V?$_Tmap_traits@PAUHWND__@@UCWndData@@U?$less@PAUHWND__@@@std@@V?$allocator@U?$pair@QAUHWND__@@UCWndData@@@std@@@4@$0A@@std@@@std@@@std@@QAEXPAPAU_Node@?$_Tree_nod@V?$_Tmap_traits@PAUHWND__@@UCWndData@@U?$less@PAUHWND__@@@std@@V?$allocator@U?$pair@QAUHWND__@@UCWndData@@@std@@@4@$0A@@std@@@2@@Z
_TEXT	SEGMENT PARA USE32 PUBLIC 'CODE'
_TEXT	ENDS
;	COMDAT ?max_size@?$vector@PAVCHostWnd@@V?$allocator@PAVCHostWnd@@@std@@@std@@QBEIXZ
_TEXT	SEGMENT PARA USE32 PUBLIC 'CODE'
_TEXT	ENDS
;	COMDAT ?_Destroy@?$vector@PAVCHostWnd@@V?$allocator@PAVCHostWnd@@@std@@@std@@IAEXPAPAVCHostWnd@@0@Z
_TEXT	SEGMENT PARA USE32 PUBLIC 'CODE'
_TEXT	ENDS
;	COMDAT ?_Insert_n@?$vector@PAVCHostWnd@@V?$allocator@PAVCHostWnd@@@std@@@std@@IAEXViterator@12@IABQAVCHostWnd@@@Z
_TEXT	SEGMENT PARA USE32 PUBLIC 'CODE'
_TEXT	ENDS
;	COMDAT ?_Xlen@?$vector@PAVCHostWnd@@V?$allocator@PAVCHostWnd@@@std@@@std@@IBEXXZ
_TEXT	SEGMENT PARA USE32 PUBLIC 'CODE'
_TEXT	ENDS
;	COMDAT ??0?$allocator@PAVCHostWnd@@@std@@QAE@ABV01@@Z
_TEXT	SEGMENT PARA USE32 PUBLIC 'CODE'
_TEXT	ENDS
;	COMDAT ?deallocate@?$allocator@PAVCHostWnd@@@std@@QAEXPAPAVCHostWnd@@I@Z
_TEXT	SEGMENT PARA USE32 PUBLIC 'CODE'
_TEXT	ENDS
;	COMDAT ?allocate@?$allocator@PAVCHostWnd@@@std@@QAEPAPAVCHostWnd@@I@Z
_TEXT	SEGMENT PARA USE32 PUBLIC 'CODE'
_TEXT	ENDS
;	COMDAT ?begin@?$vector@PAVILyricPopupWndShowObserver@@V?$allocator@PAVILyricPopupWndShowObserver@@@std@@@std@@QAE?AViterator@12@XZ
_TEXT	SEGMENT PARA USE32 PUBLIC 'CODE'
_TEXT	ENDS
;	COMDAT ?max_size@?$vector@PAVILyricPopupWndShowObserver@@V?$allocator@PAVILyricPopupWndShowObserver@@@std@@@std@@QBEIXZ
_TEXT	SEGMENT PARA USE32 PUBLIC 'CODE'
_TEXT	ENDS
;	COMDAT ?_Destroy@?$vector@PAVILyricPopupWndShowObserver@@V?$allocator@PAVILyricPopupWndShowObserver@@@std@@@std@@IAEXPAPAVILyricPopupWndShowObserver@@0@Z
_TEXT	SEGMENT PARA USE32 PUBLIC 'CODE'
_TEXT	ENDS
;	COMDAT ?_Insert_n@?$vector@PAVILyricPopupWndShowObserver@@V?$allocator@PAVILyricPopupWndShowObserver@@@std@@@std@@IAEXViterator@12@IABQAVILyricPopupWndShowObserver@@@Z
_TEXT	SEGMENT PARA USE32 PUBLIC 'CODE'
_TEXT	ENDS
;	COMDAT ?_Xlen@?$vector@PAVILyricPopupWndShowObserver@@V?$allocator@PAVILyricPopupWndShowObserver@@@std@@@std@@IBEXXZ
_TEXT	SEGMENT PARA USE32 PUBLIC 'CODE'
_TEXT	ENDS
;	COMDAT ??0?$allocator@PAVILyricPopupWndShowObserver@@@std@@QAE@ABV01@@Z
_TEXT	SEGMENT PARA USE32 PUBLIC 'CODE'
_TEXT	ENDS
;	COMDAT ?deallocate@?$allocator@PAVILyricPopupWndShowObserver@@@std@@QAEXPAPAVILyricPopupWndShowObserver@@I@Z
_TEXT	SEGMENT PARA USE32 PUBLIC 'CODE'
_TEXT	ENDS
;	COMDAT ?allocate@?$allocator@PAVILyricPopupWndShowObserver@@@std@@QAEPAPAVILyricPopupWndShowObserver@@I@Z
_TEXT	SEGMENT PARA USE32 PUBLIC 'CODE'
_TEXT	ENDS
;	COMDAT ??0iterator@?$_Tree@V?$_Tmap_traits@PAUHWND__@@UCWndData@@U?$less@PAUHWND__@@@std@@V?$allocator@U?$pair@QAUHWND__@@UCWndData@@@std@@@4@$0A@@std@@@std@@QAE@XZ
_TEXT	SEGMENT PARA USE32 PUBLIC 'CODE'
_TEXT	ENDS
;	COMDAT ??Fiterator@?$_Tree@V?$_Tmap_traits@PAUHWND__@@UCWndData@@U?$less@PAUHWND__@@@std@@V?$allocator@U?$pair@QAUHWND__@@UCWndData@@@std@@@4@$0A@@std@@@std@@QAEAAV012@XZ
_TEXT	SEGMENT PARA USE32 PUBLIC 'CODE'
_TEXT	ENDS
;	COMDAT ??0const_iterator@?$_Tree@V?$_Tmap_traits@PAUHWND__@@UCWndData@@U?$less@PAUHWND__@@@std@@V?$allocator@U?$pair@QAUHWND__@@UCWndData@@@std@@@4@$0A@@std@@@std@@QAE@PAU_Node@?$_Tree_nod@V?$_Tmap_traits@PAUHWND__@@UCWndData@@U?$less@PAUHWND__@@@std@@V?$allocator@U?$pair@QAUHWND__@@UCWndData@@@std@@@4@$0A@@std@@@2@@Z
_TEXT	SEGMENT PARA USE32 PUBLIC 'CODE'
_TEXT	ENDS
;	COMDAT ??Dconst_iterator@?$_Tree@V?$_Tmap_traits@PAUHWND__@@UCWndData@@U?$less@PAUHWND__@@@std@@V?$allocator@U?$pair@QAUHWND__@@UCWndData@@@std@@@4@$0A@@std@@@std@@QBEABU?$pair@QAUHWND__@@UCWndData@@@2@XZ
_TEXT	SEGMENT PARA USE32 PUBLIC 'CODE'
_TEXT	ENDS
;	COMDAT ??Econst_iterator@?$_Tree@V?$_Tmap_traits@PAUHWND__@@UCWndData@@U?$less@PAUHWND__@@@std@@V?$allocator@U?$pair@QAUHWND__@@UCWndData@@@std@@@4@$0A@@std@@@std@@QAEAAV012@XZ
_TEXT	SEGMENT PARA USE32 PUBLIC 'CODE'
_TEXT	ENDS
;	COMDAT ??0iterator@?$vector@PAVCHostWnd@@V?$allocator@PAVCHostWnd@@@std@@@std@@QAE@PAPAVCHostWnd@@@Z
_TEXT	SEGMENT PARA USE32 PUBLIC 'CODE'
_TEXT	ENDS
;	COMDAT ??Yiterator@?$vector@PAVCHostWnd@@V?$allocator@PAVCHostWnd@@@std@@@std@@QAEAAV012@H@Z
_TEXT	SEGMENT PARA USE32 PUBLIC 'CODE'
_TEXT	ENDS
;	COMDAT ??Giterator@?$vector@PAVCHostWnd@@V?$allocator@PAVCHostWnd@@@std@@@std@@QBEHABVconst_iterator@12@@Z
_TEXT	SEGMENT PARA USE32 PUBLIC 'CODE'
_TEXT	ENDS
;	COMDAT ??Dconst_iterator@?$vector@PAVCHostWnd@@V?$allocator@PAVCHostWnd@@@std@@@std@@QBEABQAVCHostWnd@@XZ
_TEXT	SEGMENT PARA USE32 PUBLIC 'CODE'
_TEXT	ENDS
;	COMDAT ??0iterator@?$vector@PAVILyricPopupWndShowObserver@@V?$allocator@PAVILyricPopupWndShowObserver@@@std@@@std@@QAE@PAPAVILyricPopupWndShowObserver@@@Z
_TEXT	SEGMENT PARA USE32 PUBLIC 'CODE'
_TEXT	ENDS
;	COMDAT ??Hiterator@?$vector@PAVILyricPopupWndShowObserver@@V?$allocator@PAVILyricPopupWndShowObserver@@@std@@@std@@QBE?AV012@H@Z
_TEXT	SEGMENT PARA USE32 PUBLIC 'CODE'
_TEXT	ENDS
;	COMDAT ??Giterator@?$vector@PAVILyricPopupWndShowObserver@@V?$allocator@PAVILyricPopupWndShowObserver@@@std@@@std@@QBEHABVconst_iterator@12@@Z
_TEXT	SEGMENT PARA USE32 PUBLIC 'CODE'
_TEXT	ENDS
;	COMDAT ??0iterator@?$vector@USepWindowData@@V?$allocator@USepWindowData@@@std@@@std@@QAE@PAUSepWindowData@@@Z
_TEXT	SEGMENT PARA USE32 PUBLIC 'CODE'
_TEXT	ENDS
;	COMDAT ??Yiterator@?$vector@USepWindowData@@V?$allocator@USepWindowData@@@std@@@std@@QAEAAV012@H@Z
_TEXT	SEGMENT PARA USE32 PUBLIC 'CODE'
_TEXT	ENDS
;	COMDAT ??Dconst_iterator@?$vector@USepWindowData@@V?$allocator@USepWindowData@@@std@@@std@@QBEABUSepWindowData@@XZ
_TEXT	SEGMENT PARA USE32 PUBLIC 'CODE'
_TEXT	ENDS
;	COMDAT ??0length_error@std@@QAE@ABV01@@Z
_TEXT	SEGMENT PARA USE32 PUBLIC 'CODE'
_TEXT	ENDS
;	COMDAT ?_Color@?$_Tree@V?$_Tmap_traits@PAUHWND__@@UCWndData@@U?$less@PAUHWND__@@@std@@V?$allocator@U?$pair@QAUHWND__@@UCWndData@@@std@@@4@$0A@@std@@@std@@KAAADPAU_Node@?$_Tree_nod@V?$_Tmap_traits@PAUHWND__@@UCWndData@@U?$less@PAUHWND__@@@std@@V?$allocator@U?$pair@QAUHWND__@@UCWndData@@@std@@@4@$0A@@std@@@2@@Z
_TEXT	SEGMENT PARA USE32 PUBLIC 'CODE'
_TEXT	ENDS
;	COMDAT ?max_size@?$_Tree@V?$_Tmap_traits@PAUHWND__@@UCWndData@@U?$less@PAUHWND__@@@std@@V?$allocator@U?$pair@QAUHWND__@@UCWndData@@@std@@@4@$0A@@std@@@std@@QBEIXZ
_TEXT	SEGMENT PARA USE32 PUBLIC 'CODE'
_TEXT	ENDS
;	COMDAT ?erase@?$_Tree@V?$_Tmap_traits@PAUHWND__@@UCWndData@@U?$less@PAUHWND__@@@std@@V?$allocator@U?$pair@QAUHWND__@@UCWndData@@@std@@@4@$0A@@std@@@std@@QAE?AViterator@12@V312@@Z
_TEXT	SEGMENT PARA USE32 PUBLIC 'CODE'
_TEXT	ENDS
;	COMDAT ?clear@?$_Tree@V?$_Tmap_traits@PAUHWND__@@UCWndData@@U?$less@PAUHWND__@@@std@@V?$allocator@U?$pair@QAUHWND__@@UCWndData@@@std@@@4@$0A@@std@@@std@@QAEXXZ
_TEXT	SEGMENT PARA USE32 PUBLIC 'CODE'
_TEXT	ENDS
;	COMDAT ?_Lrotate@?$_Tree@V?$_Tmap_traits@PAUHWND__@@UCWndData@@U?$less@PAUHWND__@@@std@@V?$allocator@U?$pair@QAUHWND__@@UCWndData@@@std@@@4@$0A@@std@@@std@@IAEXPAU_Node@?$_Tree_nod@V?$_Tmap_traits@PAUHWND__@@UCWndData@@U?$less@PAUHWND__@@@std@@V?$allocator@U?$pair@QAUHWND__@@UCWndData@@@std@@@4@$0A@@std@@@2@@Z
_TEXT	SEGMENT PARA USE32 PUBLIC 'CODE'
_TEXT	ENDS
;	COMDAT ?_Root@?$_Tree@V?$_Tmap_traits@PAUHWND__@@UCWndData@@U?$less@PAUHWND__@@@std@@V?$allocator@U?$pair@QAUHWND__@@UCWndData@@@std@@@4@$0A@@std@@@std@@IAEAAPAU_Node@?$_Tree_nod@V?$_Tmap_traits@PAUHWND__@@UCWndData@@U?$less@PAUHWND__@@@std@@V?$allocator@U?$pair@QAUHWND__@@UCWndData@@@std@@@4@$0A@@std@@@2@XZ
_TEXT	SEGMENT PARA USE32 PUBLIC 'CODE'
_TEXT	ENDS
;	COMDAT ?_Root@?$_Tree@V?$_Tmap_traits@PAUHWND__@@UCWndData@@U?$less@PAUHWND__@@@std@@V?$allocator@U?$pair@QAUHWND__@@UCWndData@@@std@@@4@$0A@@std@@@std@@IBEAAPAU_Node@?$_Tree_nod@V?$_Tmap_traits@PAUHWND__@@UCWndData@@U?$less@PAUHWND__@@@std@@V?$allocator@U?$pair@QAUHWND__@@UCWndData@@@std@@@4@$0A@@std@@@2@XZ
_TEXT	SEGMENT PARA USE32 PUBLIC 'CODE'
_TEXT	ENDS
;	COMDAT ?_Rrotate@?$_Tree@V?$_Tmap_traits@PAUHWND__@@UCWndData@@U?$less@PAUHWND__@@@std@@V?$allocator@U?$pair@QAUHWND__@@UCWndData@@@std@@@4@$0A@@std@@@std@@IAEXPAU_Node@?$_Tree_nod@V?$_Tmap_traits@PAUHWND__@@UCWndData@@U?$less@PAUHWND__@@@std@@V?$allocator@U?$pair@QAUHWND__@@UCWndData@@@std@@@4@$0A@@std@@@2@@Z
_TEXT	SEGMENT PARA USE32 PUBLIC 'CODE'
_TEXT	ENDS
;	COMDAT ?_Buynode@?$_Tree@V?$_Tmap_traits@PAUHWND__@@UCWndData@@U?$less@PAUHWND__@@@std@@V?$allocator@U?$pair@QAUHWND__@@UCWndData@@@std@@@4@$0A@@std@@@std@@IAEPAU_Node@?$_Tree_nod@V?$_Tmap_traits@PAUHWND__@@UCWndData@@U?$less@PAUHWND__@@@std@@V?$allocator@U?$pair@QAUHWND__@@UCWndData@@@std@@@4@$0A@@std@@@2@XZ
_TEXT	SEGMENT PARA USE32 PUBLIC 'CODE'
_TEXT	ENDS
;	COMDAT ?_Buynode@?$_Tree@V?$_Tmap_traits@PAUHWND__@@UCWndData@@U?$less@PAUHWND__@@@std@@V?$allocator@U?$pair@QAUHWND__@@UCWndData@@@std@@@4@$0A@@std@@@std@@IAEPAU_Node@?$_Tree_nod@V?$_Tmap_traits@PAUHWND__@@UCWndData@@U?$less@PAUHWND__@@@std@@V?$allocator@U?$pair@QAUHWND__@@UCWndData@@@std@@@4@$0A@@std@@@2@PAU342@00ABU?$pair@QAUHWND__@@UCWndData@@@2@D@Z
_TEXT	SEGMENT PARA USE32 PUBLIC 'CODE'
_TEXT	ENDS
;	COMDAT ??0?$_Tree_ptr@V?$_Tmap_traits@PAUHWND__@@UCWndData@@U?$less@PAUHWND__@@@std@@V?$allocator@U?$pair@QAUHWND__@@UCWndData@@@std@@@4@$0A@@std@@@std@@IAE@ABU?$less@PAUHWND__@@@1@V?$allocator@U?$pair@QAUHWND__@@UCWndData@@@std@@@1@@Z
_TEXT	SEGMENT PARA USE32 PUBLIC 'CODE'
_TEXT	ENDS
;	COMDAT ?max_size@?$allocator@PAVCHostWnd@@@std@@QBEIXZ
_TEXT	SEGMENT PARA USE32 PUBLIC 'CODE'
_TEXT	ENDS
;	COMDAT ?max_size@?$allocator@PAVILyricPopupWndShowObserver@@@std@@QBEIXZ
_TEXT	SEGMENT PARA USE32 PUBLIC 'CODE'
_TEXT	ENDS
;	COMDAT ??0const_iterator@?$_Tree@V?$_Tmap_traits@PAUHWND__@@UCWndData@@U?$less@PAUHWND__@@@std@@V?$allocator@U?$pair@QAUHWND__@@UCWndData@@@std@@@4@$0A@@std@@@std@@QAE@XZ
_TEXT	SEGMENT PARA USE32 PUBLIC 'CODE'
_TEXT	ENDS
;	COMDAT ??Fconst_iterator@?$_Tree@V?$_Tmap_traits@PAUHWND__@@UCWndData@@U?$less@PAUHWND__@@@std@@V?$allocator@U?$pair@QAUHWND__@@UCWndData@@@std@@@4@$0A@@std@@@std@@QAEAAV012@XZ
_TEXT	SEGMENT PARA USE32 PUBLIC 'CODE'
_TEXT	ENDS
;	COMDAT ?_Inc@const_iterator@?$_Tree@V?$_Tmap_traits@PAUHWND__@@UCWndData@@U?$less@PAUHWND__@@@std@@V?$allocator@U?$pair@QAUHWND__@@UCWndData@@@std@@@4@$0A@@std@@@std@@QAEXXZ
_TEXT	SEGMENT PARA USE32 PUBLIC 'CODE'
_TEXT	ENDS
;	COMDAT ??0const_iterator@?$vector@PAVCHostWnd@@V?$allocator@PAVCHostWnd@@@std@@@std@@QAE@PAPAVCHostWnd@@@Z
_TEXT	SEGMENT PARA USE32 PUBLIC 'CODE'
_TEXT	ENDS
;	COMDAT ??Gconst_iterator@?$vector@PAVCHostWnd@@V?$allocator@PAVCHostWnd@@@std@@@std@@QBEHABV012@@Z
_TEXT	SEGMENT PARA USE32 PUBLIC 'CODE'
_TEXT	ENDS
;	COMDAT ??Yiterator@?$vector@PAVILyricPopupWndShowObserver@@V?$allocator@PAVILyricPopupWndShowObserver@@@std@@@std@@QAEAAV012@H@Z
_TEXT	SEGMENT PARA USE32 PUBLIC 'CODE'
_TEXT	ENDS
;	COMDAT ??0const_iterator@?$vector@PAVILyricPopupWndShowObserver@@V?$allocator@PAVILyricPopupWndShowObserver@@@std@@@std@@QAE@PAPAVILyricPopupWndShowObserver@@@Z
_TEXT	SEGMENT PARA USE32 PUBLIC 'CODE'
_TEXT	ENDS
;	COMDAT ??Gconst_iterator@?$vector@PAVILyricPopupWndShowObserver@@V?$allocator@PAVILyricPopupWndShowObserver@@@std@@@std@@QBEHABV012@@Z
_TEXT	SEGMENT PARA USE32 PUBLIC 'CODE'
_TEXT	ENDS
;	COMDAT ??0const_iterator@?$vector@USepWindowData@@V?$allocator@USepWindowData@@@std@@@std@@QAE@PAUSepWindowData@@@Z
_TEXT	SEGMENT PARA USE32 PUBLIC 'CODE'
_TEXT	ENDS
;	COMDAT ??0?$pair@Viterator@?$_Tree@V?$_Tmap_traits@PAUHWND__@@UCWndData@@U?$less@PAUHWND__@@@std@@V?$allocator@U?$pair@QAUHWND__@@UCWndData@@@std@@@4@$0A@@std@@@std@@_N@std@@QAE@ABViterator@?$_Tree@V?$_Tmap_traits@PAUHWND__@@UCWndData@@U?$less@PAUHWND__@@@std@@V?$allocator@U?$pair@QAUHWND__@@UCWndData@@@std@@@4@$0A@@std@@@1@AB_N@Z
_TEXT	SEGMENT PARA USE32 PUBLIC 'CODE'
_TEXT	ENDS
;	COMDAT ?_Erase@?$_Tree@V?$_Tmap_traits@PAUHWND__@@UCWndData@@U?$less@PAUHWND__@@@std@@V?$allocator@U?$pair@QAUHWND__@@UCWndData@@@std@@@4@$0A@@std@@@std@@IAEXPAU_Node@?$_Tree_nod@V?$_Tmap_traits@PAUHWND__@@UCWndData@@U?$less@PAUHWND__@@@std@@V?$allocator@U?$pair@QAUHWND__@@UCWndData@@@std@@@4@$0A@@std@@@2@@Z
_TEXT	SEGMENT PARA USE32 PUBLIC 'CODE'
_TEXT	ENDS
;	COMDAT ?_Max@?$_Tree@V?$_Tmap_traits@PAUHWND__@@UCWndData@@U?$less@PAUHWND__@@@std@@V?$allocator@U?$pair@QAUHWND__@@UCWndData@@@std@@@4@$0A@@std@@@std@@KAPAU_Node@?$_Tree_nod@V?$_Tmap_traits@PAUHWND__@@UCWndData@@U?$less@PAUHWND__@@@std@@V?$allocator@U?$pair@QAUHWND__@@UCWndData@@@std@@@4@$0A@@std@@@2@PAU342@@Z
_TEXT	SEGMENT PARA USE32 PUBLIC 'CODE'
_TEXT	ENDS
;	COMDAT ?_Min@?$_Tree@V?$_Tmap_traits@PAUHWND__@@UCWndData@@U?$less@PAUHWND__@@@std@@V?$allocator@U?$pair@QAUHWND__@@UCWndData@@@std@@@4@$0A@@std@@@std@@KAPAU_Node@?$_Tree_nod@V?$_Tmap_traits@PAUHWND__@@UCWndData@@U?$less@PAUHWND__@@@std@@V?$allocator@U?$pair@QAUHWND__@@UCWndData@@@std@@@4@$0A@@std@@@2@PAU342@@Z
_TEXT	SEGMENT PARA USE32 PUBLIC 'CODE'
_TEXT	ENDS
;	COMDAT ??0?$_Tree_nod@V?$_Tmap_traits@PAUHWND__@@UCWndData@@U?$less@PAUHWND__@@@std@@V?$allocator@U?$pair@QAUHWND__@@UCWndData@@@std@@@4@$0A@@std@@@std@@IAE@ABU?$less@PAUHWND__@@@1@V?$allocator@U?$pair@QAUHWND__@@UCWndData@@@std@@@1@@Z
_TEXT	SEGMENT PARA USE32 PUBLIC 'CODE'
_TEXT	ENDS
;	COMDAT ?max_size@?$allocator@U?$pair@QAUHWND__@@UCWndData@@@std@@@std@@QBEIXZ
_TEXT	SEGMENT PARA USE32 PUBLIC 'CODE'
_TEXT	ENDS
;	COMDAT ?allocate@?$allocator@U_Node@?$_Tree_nod@V?$_Tmap_traits@PAUHWND__@@UCWndData@@U?$less@PAUHWND__@@@std@@V?$allocator@U?$pair@QAUHWND__@@UCWndData@@@std@@@4@$0A@@std@@@std@@@std@@QAEPAU_Node@?$_Tree_nod@V?$_Tmap_traits@PAUHWND__@@UCWndData@@U?$less@PAUHWND__@@@std@@V?$allocator@U?$pair@QAUHWND__@@UCWndData@@@std@@@4@$0A@@std@@@2@I@Z
_TEXT	SEGMENT PARA USE32 PUBLIC 'CODE'
_TEXT	ENDS
;	COMDAT ?destroy@?$allocator@U_Node@?$_Tree_nod@V?$_Tmap_traits@PAUHWND__@@UCWndData@@U?$less@PAUHWND__@@@std@@V?$allocator@U?$pair@QAUHWND__@@UCWndData@@@std@@@4@$0A@@std@@@std@@@std@@QAEXPAU_Node@?$_Tree_nod@V?$_Tmap_traits@PAUHWND__@@UCWndData@@U?$less@PAUHWND__@@@std@@V?$allocator@U?$pair@QAUHWND__@@UCWndData@@@std@@@4@$0A@@std@@@2@@Z
_TEXT	SEGMENT PARA USE32 PUBLIC 'CODE'
_TEXT	ENDS
;	COMDAT ?construct@?$allocator@PAU_Node@?$_Tree_nod@V?$_Tmap_traits@PAUHWND__@@UCWndData@@U?$less@PAUHWND__@@@std@@V?$allocator@U?$pair@QAUHWND__@@UCWndData@@@std@@@4@$0A@@std@@@std@@@std@@QAEXPAPAU_Node@?$_Tree_nod@V?$_Tmap_traits@PAUHWND__@@UCWndData@@U?$less@PAUHWND__@@@std@@V?$allocator@U?$pair@QAUHWND__@@UCWndData@@@std@@@4@$0A@@std@@@2@ABQAU342@@Z
_TEXT	SEGMENT PARA USE32 PUBLIC 'CODE'
_TEXT	ENDS
;	COMDAT ?_Dec@const_iterator@?$_Tree@V?$_Tmap_traits@PAUHWND__@@UCWndData@@U?$less@PAUHWND__@@@std@@V?$allocator@U?$pair@QAUHWND__@@UCWndData@@@std@@@4@$0A@@std@@@std@@QAEXXZ
_TEXT	SEGMENT PARA USE32 PUBLIC 'CODE'
_TEXT	ENDS
;	COMDAT ??0_Node@?$_Tree_nod@V?$_Tmap_traits@PAUHWND__@@UCWndData@@U?$less@PAUHWND__@@@std@@V?$allocator@U?$pair@QAUHWND__@@UCWndData@@@std@@@4@$0A@@std@@@std@@QAE@PAU012@00ABU?$pair@QAUHWND__@@UCWndData@@@2@D@Z
_TEXT	SEGMENT PARA USE32 PUBLIC 'CODE'
_TEXT	ENDS
;	COMDAT ??0?$_Tmap_traits@PAUHWND__@@UCWndData@@U?$less@PAUHWND__@@@std@@V?$allocator@U?$pair@QAUHWND__@@UCWndData@@@std@@@4@$0A@@std@@QAE@U?$less@PAUHWND__@@@1@@Z
_TEXT	SEGMENT PARA USE32 PUBLIC 'CODE'
_TEXT	ENDS
;	COMDAT ?Unlock@?$CComCritSecLock@VCComCriticalSection@ATL@@@ATL@@QAEXXZ
_TEXT	SEGMENT PARA USE32 PUBLIC 'CODE'
_TEXT	ENDS
;	COMDAT ??$_Uninitialized_fill_n@PAPAVCHostWnd@@IPAV1@V?$allocator@PAVCHostWnd@@@std@@@std@@YAXPAPAVCHostWnd@@IABQAV1@AAV?$allocator@PAVCHostWnd@@@0@@Z
_TEXT	SEGMENT PARA USE32 PUBLIC 'CODE'
_TEXT	ENDS
;	COMDAT ??$_Uninitialized_fill_n@PAPAVILyricPopupWndShowObserver@@IPAV1@V?$allocator@PAVILyricPopupWndShowObserver@@@std@@@std@@YAXPAPAVILyricPopupWndShowObserver@@IABQAV1@AAV?$allocator@PAVILyricPopupWndShowObserver@@@0@@Z
_TEXT	SEGMENT PARA USE32 PUBLIC 'CODE'
_TEXT	ENDS
;	COMDAT ??$_Maklocstr@D@std@@YAPADPBDPADABU_Cvtvec@@@Z
_TEXT	SEGMENT PARA USE32 PUBLIC 'CODE'
_TEXT	ENDS
;	COMDAT ??$_Destroy@PAU_Node@?$_Tree_nod@V?$_Tmap_traits@PAUHWND__@@UCWndData@@U?$less@PAUHWND__@@@std@@V?$allocator@U?$pair@QAUHWND__@@UCWndData@@@std@@@4@$0A@@std@@@std@@@std@@YAXPAPAU_Node@?$_Tree_nod@V?$_Tmap_traits@PAUHWND__@@UCWndData@@U?$less@PAUHWND__@@@std@@V?$allocator@U?$pair@QAUHWND__@@UCWndData@@@std@@@4@$0A@@std@@@0@@Z
_TEXT	SEGMENT PARA USE32 PUBLIC 'CODE'
_TEXT	ENDS
;	COMDAT ??$_Destroy_range@PAVCHostWnd@@V?$allocator@PAVCHostWnd@@@std@@@std@@YAXPAPAVCHostWnd@@0AAV?$allocator@PAVCHostWnd@@@0@@Z
_TEXT	SEGMENT PARA USE32 PUBLIC 'CODE'
_TEXT	ENDS
;	COMDAT ??$_Ucopy@PAPAVCHostWnd@@@?$vector@PAVCHostWnd@@V?$allocator@PAVCHostWnd@@@std@@@std@@IAEPAPAVCHostWnd@@PAPAV2@00@Z
_TEXT	SEGMENT PARA USE32 PUBLIC 'CODE'
_TEXT	ENDS
;	COMDAT ??$fill@PAPAVCHostWnd@@PAV1@@std@@YAXPAPAVCHostWnd@@0ABQAV1@@Z
_TEXT	SEGMENT PARA USE32 PUBLIC 'CODE'
_TEXT	ENDS
;	COMDAT ??$copy_backward@PAPAVCHostWnd@@PAPAV1@@std@@YAPAPAVCHostWnd@@PAPAV1@00@Z
_TEXT	SEGMENT PARA USE32 PUBLIC 'CODE'
_TEXT	ENDS
;	COMDAT ??$_Allocate@PAVCHostWnd@@@std@@YAPAPAVCHostWnd@@IPAPAV1@@Z
_TEXT	SEGMENT PARA USE32 PUBLIC 'CODE'
_TEXT	ENDS
;	COMDAT ??$_Destroy_range@PAVILyricPopupWndShowObserver@@V?$allocator@PAVILyricPopupWndShowObserver@@@std@@@std@@YAXPAPAVILyricPopupWndShowObserver@@0AAV?$allocator@PAVILyricPopupWndShowObserver@@@0@@Z
_TEXT	SEGMENT PARA USE32 PUBLIC 'CODE'
_TEXT	ENDS
;	COMDAT ??$_Ucopy@PAPAVILyricPopupWndShowObserver@@@?$vector@PAVILyricPopupWndShowObserver@@V?$allocator@PAVILyricPopupWndShowObserver@@@std@@@std@@IAEPAPAVILyricPopupWndShowObserver@@PAPAV2@00@Z
_TEXT	SEGMENT PARA USE32 PUBLIC 'CODE'
_TEXT	ENDS
;	COMDAT ??$fill@PAPAVILyricPopupWndShowObserver@@PAV1@@std@@YAXPAPAVILyricPopupWndShowObserver@@0ABQAV1@@Z
_TEXT	SEGMENT PARA USE32 PUBLIC 'CODE'
_TEXT	ENDS
;	COMDAT ??$copy_backward@PAPAVILyricPopupWndShowObserver@@PAPAV1@@std@@YAPAPAVILyricPopupWndShowObserver@@PAPAV1@00@Z
_TEXT	SEGMENT PARA USE32 PUBLIC 'CODE'
_TEXT	ENDS
;	COMDAT ??$_Allocate@PAVILyricPopupWndShowObserver@@@std@@YAPAPAVILyricPopupWndShowObserver@@IPAPAV1@@Z
_TEXT	SEGMENT PARA USE32 PUBLIC 'CODE'
_TEXT	ENDS
;	COMDAT ??$?0U?$pair@QAUHWND__@@UCWndData@@@std@@@?$allocator@PAU_Node@?$_Tree_nod@V?$_Tmap_traits@PAUHWND__@@UCWndData@@U?$less@PAUHWND__@@@std@@V?$allocator@U?$pair@QAUHWND__@@UCWndData@@@std@@@4@$0A@@std@@@std@@@std@@QAE@ABV?$allocator@U?$pair@QAUHWND__@@UCWndData@@@std@@@1@@Z
_TEXT	SEGMENT PARA USE32 PUBLIC 'CODE'
_TEXT	ENDS
;	COMDAT ??$?0U?$pair@QAUHWND__@@UCWndData@@@std@@@?$allocator@U_Node@?$_Tree_nod@V?$_Tmap_traits@PAUHWND__@@UCWndData@@U?$less@PAUHWND__@@@std@@V?$allocator@U?$pair@QAUHWND__@@UCWndData@@@std@@@4@$0A@@std@@@std@@@std@@QAE@ABV?$allocator@U?$pair@QAUHWND__@@UCWndData@@@std@@@1@@Z
_TEXT	SEGMENT PARA USE32 PUBLIC 'CODE'
_TEXT	ENDS
;	COMDAT ??$_Allocate@U_Node@?$_Tree_nod@V?$_Tmap_traits@PAUHWND__@@UCWndData@@U?$less@PAUHWND__@@@std@@V?$allocator@U?$pair@QAUHWND__@@UCWndData@@@std@@@4@$0A@@std@@@std@@@std@@YAPAU_Node@?$_Tree_nod@V?$_Tmap_traits@PAUHWND__@@UCWndData@@U?$less@PAUHWND__@@@std@@V?$allocator@U?$pair@QAUHWND__@@UCWndData@@@std@@@4@$0A@@std@@@0@IPAU120@@Z
_TEXT	SEGMENT PARA USE32 PUBLIC 'CODE'
_TEXT	ENDS
;	COMDAT ??$_Destroy@U_Node@?$_Tree_nod@V?$_Tmap_traits@PAUHWND__@@UCWndData@@U?$less@PAUHWND__@@@std@@V?$allocator@U?$pair@QAUHWND__@@UCWndData@@@std@@@4@$0A@@std@@@std@@@std@@YAXPAU_Node@?$_Tree_nod@V?$_Tmap_traits@PAUHWND__@@UCWndData@@U?$less@PAUHWND__@@@std@@V?$allocator@U?$pair@QAUHWND__@@UCWndData@@@std@@@4@$0A@@std@@@0@@Z
_TEXT	SEGMENT PARA USE32 PUBLIC 'CODE'
_TEXT	ENDS
;	COMDAT ??$_Construct@PAU_Node@?$_Tree_nod@V?$_Tmap_traits@PAUHWND__@@UCWndData@@U?$less@PAUHWND__@@@std@@V?$allocator@U?$pair@QAUHWND__@@UCWndData@@@std@@@4@$0A@@std@@@std@@PAU123@@std@@YAXPAPAU_Node@?$_Tree_nod@V?$_Tmap_traits@PAUHWND__@@UCWndData@@U?$less@PAUHWND__@@@std@@V?$allocator@U?$pair@QAUHWND__@@UCWndData@@@std@@@4@$0A@@std@@@0@ABQAU120@@Z
_TEXT	SEGMENT PARA USE32 PUBLIC 'CODE'
_TEXT	ENDS
;	COMDAT ??$_Ptr_cat@VCHostWnd@@@std@@YA?AU_Scalar_ptr_iterator_tag@0@PAPAVCHostWnd@@0@Z
_TEXT	SEGMENT PARA USE32 PUBLIC 'CODE'
_TEXT	ENDS
;	COMDAT ??$_Uninit_fill_n@PAVCHostWnd@@IPAV1@@std@@YAXPAPAVCHostWnd@@IABQAV1@AAV?$allocator@PAVCHostWnd@@@0@U_Scalar_ptr_iterator_tag@0@@Z
_TEXT	SEGMENT PARA USE32 PUBLIC 'CODE'
_TEXT	ENDS
;	COMDAT ??$_Ptr_cat@VILyricPopupWndShowObserver@@@std@@YA?AU_Scalar_ptr_iterator_tag@0@PAPAVILyricPopupWndShowObserver@@0@Z
_TEXT	SEGMENT PARA USE32 PUBLIC 'CODE'
_TEXT	ENDS
;	COMDAT ??$_Uninit_fill_n@PAVILyricPopupWndShowObserver@@IPAV1@@std@@YAXPAPAVILyricPopupWndShowObserver@@IABQAV1@AAV?$allocator@PAVILyricPopupWndShowObserver@@@0@U_Scalar_ptr_iterator_tag@0@@Z
_TEXT	SEGMENT PARA USE32 PUBLIC 'CODE'
_TEXT	ENDS
;	COMDAT ??$_Destroy_range@PAVCHostWnd@@V?$allocator@PAVCHostWnd@@@std@@@std@@YAXPAPAVCHostWnd@@0AAV?$allocator@PAVCHostWnd@@@0@U_Scalar_ptr_iterator_tag@0@@Z
_TEXT	SEGMENT PARA USE32 PUBLIC 'CODE'
_TEXT	ENDS
;	COMDAT ??$_Uninitialized_copy@PAPAVCHostWnd@@PAPAV1@V?$allocator@PAVCHostWnd@@@std@@@std@@YAPAPAVCHostWnd@@PAPAV1@00AAV?$allocator@PAVCHostWnd@@@0@@Z
_TEXT	SEGMENT PARA USE32 PUBLIC 'CODE'
_TEXT	ENDS
;	COMDAT ??$_Copy_backward_opt@PAPAVCHostWnd@@PAPAV1@@std@@YAPAPAVCHostWnd@@PAPAV1@00U_Scalar_ptr_iterator_tag@0@@Z
_TEXT	SEGMENT PARA USE32 PUBLIC 'CODE'
_TEXT	ENDS
;	COMDAT ??$_Destroy_range@PAVILyricPopupWndShowObserver@@V?$allocator@PAVILyricPopupWndShowObserver@@@std@@@std@@YAXPAPAVILyricPopupWndShowObserver@@0AAV?$allocator@PAVILyricPopupWndShowObserver@@@0@U_Scalar_ptr_iterator_tag@0@@Z
_TEXT	SEGMENT PARA USE32 PUBLIC 'CODE'
_TEXT	ENDS
;	COMDAT ??$_Uninitialized_copy@PAPAVILyricPopupWndShowObserver@@PAPAV1@V?$allocator@PAVILyricPopupWndShowObserver@@@std@@@std@@YAPAPAVILyricPopupWndShowObserver@@PAPAV1@00AAV?$allocator@PAVILyricPopupWndShowObserver@@@0@@Z
_TEXT	SEGMENT PARA USE32 PUBLIC 'CODE'
_TEXT	ENDS
;	COMDAT ??$_Copy_backward_opt@PAPAVILyricPopupWndShowObserver@@PAPAV1@@std@@YAPAPAVILyricPopupWndShowObserver@@PAPAV1@00U_Scalar_ptr_iterator_tag@0@@Z
_TEXT	SEGMENT PARA USE32 PUBLIC 'CODE'
_TEXT	ENDS
;	COMDAT ??$fill_n@PAPAVCHostWnd@@IPAV1@@std@@YAXPAPAVCHostWnd@@IABQAV1@@Z
_TEXT	SEGMENT PARA USE32 PUBLIC 'CODE'
_TEXT	ENDS
;	COMDAT ??$fill_n@PAPAVILyricPopupWndShowObserver@@IPAV1@@std@@YAXPAPAVILyricPopupWndShowObserver@@IABQAV1@@Z
_TEXT	SEGMENT PARA USE32 PUBLIC 'CODE'
_TEXT	ENDS
;	COMDAT ??$_Uninit_copy@PAVCHostWnd@@PAV1@@std@@YAPAPAVCHostWnd@@PAPAV1@00AAV?$allocator@PAVCHostWnd@@@0@U_Scalar_ptr_iterator_tag@0@@Z
_TEXT	SEGMENT PARA USE32 PUBLIC 'CODE'
_TEXT	ENDS
;	COMDAT ??$_Uninit_copy@PAVILyricPopupWndShowObserver@@PAV1@@std@@YAPAPAVILyricPopupWndShowObserver@@PAPAV1@00AAV?$allocator@PAVILyricPopupWndShowObserver@@@0@U_Scalar_ptr_iterator_tag@0@@Z
_TEXT	SEGMENT PARA USE32 PUBLIC 'CODE'
_TEXT	ENDS
;	COMDAT ??_R3IData@@8
rdata$r	SEGMENT DWORD USE32 PUBLIC 'CONST'
rdata$r	ENDS
;	COMDAT ??_R3?$numpunct@_W@std@@8
rdata$r	SEGMENT DWORD USE32 PUBLIC 'CONST'
rdata$r	ENDS
;	COMDAT ??_R3?$numpunct@D@std@@8
rdata$r	SEGMENT DWORD USE32 PUBLIC 'CONST'
rdata$r	ENDS
;	COMDAT ??_R2IData@@8
rdata$r	SEGMENT DWORD USE32 PUBLIC 'CONST'
rdata$r	ENDS
;	COMDAT ??_R2?$numpunct@_W@std@@8
rdata$r	SEGMENT DWORD USE32 PUBLIC 'CONST'
rdata$r	ENDS
;	COMDAT ??_R2?$numpunct@D@std@@8
rdata$r	SEGMENT DWORD USE32 PUBLIC 'CONST'
rdata$r	ENDS
;	COMDAT ??_R1A@?0A@A@IData@@8
rdata$r	SEGMENT DWORD USE32 PUBLIC 'CONST'
rdata$r	ENDS
;	COMDAT ??_R1A@?0A@A@?$numpunct@_W@std@@8
rdata$r	SEGMENT DWORD USE32 PUBLIC 'CONST'
rdata$r	ENDS
;	COMDAT ??_R1A@?0A@A@facet@locale@std@@8
rdata$r	SEGMENT DWORD USE32 PUBLIC 'CONST'
rdata$r	ENDS
;	COMDAT ??_R0?AVfacet@locale@std@@@8
_DATA	SEGMENT DWORD USE32 PUBLIC 'DATA'
_DATA	ENDS
;	COMDAT ??_R1A@?0A@A@?$numpunct@D@std@@8
rdata$r	SEGMENT DWORD USE32 PUBLIC 'CONST'
rdata$r	ENDS
;	COMDAT ??_R0?AVIData@@@8
_DATA	SEGMENT DWORD USE32 PUBLIC 'DATA'
_DATA	ENDS
;	COMDAT ??_R0?AV?$numpunct@_W@std@@@8
_DATA	SEGMENT DWORD USE32 PUBLIC 'DATA'
_DATA	ENDS
;	COMDAT ??_R0?AV?$numpunct@D@std@@@8
_DATA	SEGMENT DWORD USE32 PUBLIC 'DATA'
_DATA	ENDS
;	COMDAT ??_R4IData@@6B@
rdata$r	SEGMENT DWORD USE32 PUBLIC 'CONST'
rdata$r	ENDS
;	COMDAT ??0?$allocator@_W@std@@QAE@XZ
_TEXT	SEGMENT PARA USE32 PUBLIC 'CODE'
_TEXT	ENDS
;	COMDAT ??_G?$numpunct@_W@std@@MAEPAXI@Z
_TEXT	SEGMENT PARA USE32 PUBLIC 'CODE'
_TEXT	ENDS
;	COMDAT ??_R4?$numpunct@_W@std@@6B@
rdata$r	SEGMENT DWORD USE32 PUBLIC 'CONST'
rdata$r	ENDS
;	COMDAT ??_G?$numpunct@D@std@@MAEPAXI@Z
_TEXT	SEGMENT PARA USE32 PUBLIC 'CODE'
_TEXT	ENDS
;	COMDAT ??_R4?$numpunct@D@std@@6B@
rdata$r	SEGMENT DWORD USE32 PUBLIC 'CONST'
rdata$r	ENDS
;	COMDAT ?_Psave@?$_Facetptr@V?$numpunct@_W@std@@@std@@2PBVfacet@locale@2@B
_DATA	SEGMENT DWORD USE32 PUBLIC 'DATA'
_DATA	ENDS
;	COMDAT ?_Psave@?$_Facetptr@V?$numpunct@D@std@@@std@@2PBVfacet@locale@2@B
_DATA	SEGMENT DWORD USE32 PUBLIC 'DATA'
_DATA	ENDS
;	COMDAT ?Unlock@CComCriticalSection@ATL@@QAEJXZ
_TEXT	SEGMENT PARA USE32 PUBLIC 'CODE'
_TEXT	ENDS
;	COMDAT ?_Psave@?$_Facetptr@V?$ctype@_W@std@@@std@@2PBVfacet@locale@2@B
_DATA	SEGMENT DWORD USE32 PUBLIC 'DATA'
_DATA	ENDS
;	COMDAT ?_Psave@?$_Facetptr@V?$ctype@D@std@@@std@@2PBVfacet@locale@2@B
_DATA	SEGMENT DWORD USE32 PUBLIC 'DATA'
_DATA	ENDS
;	COMDAT ??3@YAXPAX0@Z
_TEXT	SEGMENT PARA USE32 PUBLIC 'CODE'
_TEXT	ENDS
;	COMDAT ??2@YAPAXIPAX@Z
_TEXT	SEGMENT PARA USE32 PUBLIC 'CODE'
_TEXT	ENDS
;	COMDAT ??$swap@D@std@@YAXAAD0@Z
_TEXT	SEGMENT PARA USE32 PUBLIC 'CODE'
_TEXT	ENDS
;	COMDAT __TI3?AVout_of_range@std@@
xdata$x	SEGMENT DWORD USE32 PUBLIC 'CONST'
xdata$x	ENDS
;	COMDAT ??1out_of_range@std@@UAE@XZ
_TEXT	SEGMENT PARA USE32 PUBLIC 'CODE'
_TEXT	ENDS
;	COMDAT ??_7out_of_range@std@@6B@
CONST	SEGMENT DWORD USE32 PUBLIC 'CONST'
CONST	ENDS
;	COMDAT ??_R4out_of_range@std@@6B@
rdata$r	SEGMENT DWORD USE32 PUBLIC 'CONST'
rdata$r	ENDS
;	COMDAT ??_R0?AVout_of_range@std@@@8
_DATA	SEGMENT DWORD USE32 PUBLIC 'DATA'
_DATA	ENDS
;	COMDAT ??_R3out_of_range@std@@8
rdata$r	SEGMENT DWORD USE32 PUBLIC 'CONST'
rdata$r	ENDS
;	COMDAT ??_R2out_of_range@std@@8
rdata$r	SEGMENT DWORD USE32 PUBLIC 'CONST'
rdata$r	ENDS
;	COMDAT ??_R1A@?0A@A@out_of_range@std@@8
rdata$r	SEGMENT DWORD USE32 PUBLIC 'CONST'
rdata$r	ENDS
;	COMDAT ??_R1A@?0A@A@logic_error@std@@8
rdata$r	SEGMENT DWORD USE32 PUBLIC 'CONST'
rdata$r	ENDS
;	COMDAT ??_R0?AVlogic_error@std@@@8
_DATA	SEGMENT DWORD USE32 PUBLIC 'DATA'
_DATA	ENDS
;	COMDAT ??_R1A@?0A@A@exception@@8
rdata$r	SEGMENT DWORD USE32 PUBLIC 'CONST'
rdata$r	ENDS
;	COMDAT ??_R0?AVexception@@@8
_DATA	SEGMENT DWORD USE32 PUBLIC 'DATA'
_DATA	ENDS
;	COMDAT ??_Gout_of_range@std@@UAEPAXI@Z
_TEXT	SEGMENT PARA USE32 PUBLIC 'CODE'
_TEXT	ENDS
;	COMDAT ?what@logic_error@std@@UBEPBDXZ
_TEXT	SEGMENT PARA USE32 PUBLIC 'CODE'
_TEXT	ENDS
;	COMDAT __CTA3?AVout_of_range@std@@
xdata$x	SEGMENT DWORD USE32 PUBLIC 'CONST'
xdata$x	ENDS
;	COMDAT __CT??_R0?AVout_of_range@std@@@8??0out_of_range@std@@QAE@ABV01@@Z40
xdata$x	SEGMENT DWORD USE32 PUBLIC 'CONST'
xdata$x	ENDS
;	COMDAT ??0out_of_range@std@@QAE@ABV01@@Z
_TEXT	SEGMENT PARA USE32 PUBLIC 'CODE'
_TEXT	ENDS
;	COMDAT ??_C@_0BM@PAPJHAGI@invalid?5map?1set?$DMT?$DO?5iterator?$AA@
CONST	SEGMENT DWORD USE32 PUBLIC 'CONST'
CONST	ENDS
;	COMDAT ??0out_of_range@std@@QAE@ABV?$basic_string@DU?$char_traits@D@std@@V?$allocator@D@2@@1@@Z
_TEXT	SEGMENT PARA USE32 PUBLIC 'CODE'
_TEXT	ENDS
;	COMDAT ??0logic_error@std@@QAE@ABV?$basic_string@DU?$char_traits@D@std@@V?$allocator@D@2@@1@@Z
_TEXT	SEGMENT PARA USE32 PUBLIC 'CODE'
_TEXT	ENDS
;	COMDAT ??_7logic_error@std@@6B@
CONST	SEGMENT DWORD USE32 PUBLIC 'CONST'
CONST	ENDS
;	COMDAT ??_R4logic_error@std@@6B@
rdata$r	SEGMENT DWORD USE32 PUBLIC 'CONST'
rdata$r	ENDS
;	COMDAT ??_R3logic_error@std@@8
rdata$r	SEGMENT DWORD USE32 PUBLIC 'CONST'
rdata$r	ENDS
;	COMDAT ??_R2logic_error@std@@8
rdata$r	SEGMENT DWORD USE32 PUBLIC 'CONST'
rdata$r	ENDS
;	COMDAT ??_Glogic_error@std@@UAEPAXI@Z
_TEXT	SEGMENT PARA USE32 PUBLIC 'CODE'
_TEXT	ENDS
;	COMDAT ??_7length_error@std@@6B@
CONST	SEGMENT DWORD USE32 PUBLIC 'CONST'
CONST	ENDS
;	COMDAT ??_R4length_error@std@@6B@
rdata$r	SEGMENT DWORD USE32 PUBLIC 'CONST'
rdata$r	ENDS
;	COMDAT ??_R3length_error@std@@8
rdata$r	SEGMENT DWORD USE32 PUBLIC 'CONST'
rdata$r	ENDS
;	COMDAT ??_R2length_error@std@@8
rdata$r	SEGMENT DWORD USE32 PUBLIC 'CONST'
rdata$r	ENDS
;	COMDAT ??_R1A@?0A@A@length_error@std@@8
rdata$r	SEGMENT DWORD USE32 PUBLIC 'CONST'
rdata$r	ENDS
;	COMDAT ??_Glength_error@std@@UAEPAXI@Z
_TEXT	SEGMENT PARA USE32 PUBLIC 'CODE'
_TEXT	ENDS
;	COMDAT ??1logic_error@std@@UAE@XZ
_TEXT	SEGMENT PARA USE32 PUBLIC 'CODE'
_TEXT	ENDS
;	COMDAT ??0logic_error@std@@QAE@ABV01@@Z
_TEXT	SEGMENT PARA USE32 PUBLIC 'CODE'
_TEXT	ENDS
;	COMDAT __CTA3?AVlength_error@std@@
xdata$x	SEGMENT DWORD USE32 PUBLIC 'CONST'
xdata$x	ENDS
;	COMDAT ??1length_error@std@@UAE@XZ
_TEXT	SEGMENT PARA USE32 PUBLIC 'CODE'
_TEXT	ENDS
;	COMDAT __CT??_R0?AVexception@@@8??0exception@@QAE@ABV0@@Z12
xdata$x	SEGMENT DWORD USE32 PUBLIC 'CONST'
xdata$x	ENDS
;	COMDAT __CT??_R0?AVlogic_error@std@@@8??0logic_error@std@@QAE@ABV01@@Z40
xdata$x	SEGMENT DWORD USE32 PUBLIC 'CONST'
xdata$x	ENDS
;	COMDAT __CT??_R0?AVlength_error@std@@@8??0length_error@std@@QAE@ABV01@@Z40
xdata$x	SEGMENT DWORD USE32 PUBLIC 'CONST'
xdata$x	ENDS
;	COMDAT ??_R0?AVlength_error@std@@@8
_DATA	SEGMENT DWORD USE32 PUBLIC 'DATA'
_DATA	ENDS
;	COMDAT __TI3?AVlength_error@std@@
xdata$x	SEGMENT DWORD USE32 PUBLIC 'CONST'
xdata$x	ENDS
;	COMDAT ??0length_error@std@@QAE@ABV?$basic_string@DU?$char_traits@D@std@@V?$allocator@D@2@@1@@Z
_TEXT	SEGMENT PARA USE32 PUBLIC 'CODE'
_TEXT	ENDS
;	COMDAT ??$_Maklocchr@_W@std@@YA_WDPA_WABU_Cvtvec@@@Z
_TEXT	SEGMENT PARA USE32 PUBLIC 'CODE'
_TEXT	ENDS
;	COMDAT ??$_Maklocstr@_W@std@@YAPA_WPBDPA_WABU_Cvtvec@@@Z
_TEXT	SEGMENT PARA USE32 PUBLIC 'CODE'
_TEXT	ENDS
;	COMDAT ??$_Maklocchr@D@std@@YADDPADABU_Cvtvec@@@Z
_TEXT	SEGMENT PARA USE32 PUBLIC 'CODE'
_TEXT	ENDS
;	COMDAT ??_C@_04LOAJBDKD@true?$AA@
CONST	SEGMENT DWORD USE32 PUBLIC 'CONST'
CONST	ENDS
;	COMDAT ??_C@_05LAPONLG@false?$AA@
CONST	SEGMENT DWORD USE32 PUBLIC 'CONST'
CONST	ENDS
;	COMDAT _wmemcpy
_TEXT	SEGMENT PARA USE32 PUBLIC 'CODE'
_TEXT	ENDS
;	COMDAT ?max_size@?$allocator@_W@std@@QBEIXZ
_TEXT	SEGMENT PARA USE32 PUBLIC 'CODE'
_TEXT	ENDS
;	COMDAT ?allocate@?$allocator@_W@std@@QAEPA_WI@Z
_TEXT	SEGMENT PARA USE32 PUBLIC 'CODE'
_TEXT	ENDS
;	COMDAT ??$_Allocate@_W@std@@YAPA_WIPA_W@Z
_TEXT	SEGMENT PARA USE32 PUBLIC 'CODE'
_TEXT	ENDS
;	COMDAT ??_C@_01GFHCPBMG@C?$AA@
CONST	SEGMENT DWORD USE32 PUBLIC 'CONST'
CONST	ENDS
;	COMDAT ?max_size@?$allocator@D@std@@QBEIXZ
_TEXT	SEGMENT PARA USE32 PUBLIC 'CODE'
_TEXT	ENDS
;	COMDAT ?allocate@?$allocator@D@std@@QAEPADI@Z
_TEXT	SEGMENT PARA USE32 PUBLIC 'CODE'
_TEXT	ENDS
;	COMDAT ??$_Allocate@D@std@@YAPADIPAD@Z
_TEXT	SEGMENT PARA USE32 PUBLIC 'CODE'
_TEXT	ENDS
;	COMDAT ?deallocate@?$allocator@D@std@@QAEXPADI@Z
_TEXT	SEGMENT PARA USE32 PUBLIC 'CODE'
_TEXT	ENDS
;	COMDAT ?Format@?$ChTraitsCRT@D@ATL@@SAHPADPBD0@Z
_TEXT	SEGMENT PARA USE32 PUBLIC 'CODE'
_TEXT	ENDS
;	COMDAT ?IsShared@CStringData@ATL@@QBE_NXZ
_TEXT	SEGMENT PARA USE32 PUBLIC 'CODE'
_TEXT	ENDS
;	COMDAT ?data@CStringData@ATL@@QAEPAXXZ
_TEXT	SEGMENT PARA USE32 PUBLIC 'CODE'
_TEXT	ENDS
;	COMDAT ?Release@CStringData@ATL@@QAEXXZ
_TEXT	SEGMENT PARA USE32 PUBLIC 'CODE'
_TEXT	ENDS
;	COMDAT ?GetFormattedLength@?$ChTraitsCRT@D@ATL@@SAHPBDPAD@Z
_TEXT	SEGMENT PARA USE32 PUBLIC 'CODE'
_TEXT	ENDS
;	COMDAT ?AtlThrow@ATL@@YGXJ@Z
_TEXT	SEGMENT PARA USE32 PUBLIC 'CODE'
_TEXT	ENDS
;	COMDAT ?_Peek@?$istreambuf_iterator@_WU?$char_traits@_W@std@@@std@@AAE_WXZ
_TEXT	SEGMENT PARA USE32 PUBLIC 'CODE'
_TEXT	ENDS
;	COMDAT ?_Peek@?$istreambuf_iterator@DU?$char_traits@D@std@@@std@@AAEDXZ
_TEXT	SEGMENT PARA USE32 PUBLIC 'CODE'
_TEXT	ENDS
;	COMDAT ??$use_facet@V?$ctype@_W@std@@@std@@YAABV?$ctype@_W@0@ABVlocale@0@@Z
_TEXT	SEGMENT PARA USE32 PUBLIC 'CODE'
_TEXT	ENDS
;	COMDAT ??_S?$ctype@_W@std@@6B@
CONST	SEGMENT DWORD USE32 PUBLIC 'CONST'
CONST	ENDS
;	COMDAT ??_R4?$ctype@_W@std@@6B@
rdata$r	SEGMENT DWORD USE32 PUBLIC 'CONST'
rdata$r	ENDS
;	COMDAT ??_R0?AV?$ctype@_W@std@@@8
_DATA	SEGMENT DWORD USE32 PUBLIC 'DATA'
_DATA	ENDS
;	COMDAT ??_R3?$ctype@_W@std@@8
rdata$r	SEGMENT DWORD USE32 PUBLIC 'CONST'
rdata$r	ENDS
;	COMDAT ??_R2?$ctype@_W@std@@8
rdata$r	SEGMENT DWORD USE32 PUBLIC 'CONST'
rdata$r	ENDS
;	COMDAT ??_R1A@?0A@A@?$ctype@_W@std@@8
rdata$r	SEGMENT DWORD USE32 PUBLIC 'CONST'
rdata$r	ENDS
;	COMDAT ??_R1A@?0A@A@ctype_base@std@@8
rdata$r	SEGMENT DWORD USE32 PUBLIC 'CONST'
rdata$r	ENDS
;	COMDAT ??_R0?AUctype_base@std@@@8
_DATA	SEGMENT DWORD USE32 PUBLIC 'DATA'
_DATA	ENDS
;	COMDAT ??_G?$ctype@_W@std@@MAEPAXI@Z
_TEXT	SEGMENT PARA USE32 PUBLIC 'CODE'
_TEXT	ENDS
;	COMDAT ??_C@_08EPJLHIJG@bad?5cast?$AA@
CONST	SEGMENT DWORD USE32 PUBLIC 'CONST'
CONST	ENDS
;	COMDAT __TI2?AVbad_cast@@
xdata$x	SEGMENT DWORD USE32 PUBLIC 'CONST'
xdata$x	ENDS
;	COMDAT __CTA2?AVbad_cast@@
xdata$x	SEGMENT DWORD USE32 PUBLIC 'CONST'
xdata$x	ENDS
;	COMDAT __CT??_R0?AVbad_cast@@@8??0bad_cast@@QAE@ABV0@@Z12
xdata$x	SEGMENT DWORD USE32 PUBLIC 'CONST'
xdata$x	ENDS
;	COMDAT ??_R0?AVbad_cast@@@8
_DATA	SEGMENT DWORD USE32 PUBLIC 'DATA'
_DATA	ENDS
;	COMDAT ??$use_facet@V?$ctype@D@std@@@std@@YAABV?$ctype@D@0@ABVlocale@0@@Z
_TEXT	SEGMENT PARA USE32 PUBLIC 'CODE'
_TEXT	ENDS
;	COMDAT ??_S?$ctype@D@std@@6B@
CONST	SEGMENT DWORD USE32 PUBLIC 'CONST'
CONST	ENDS
;	COMDAT ??_R4?$ctype@D@std@@6B@
rdata$r	SEGMENT DWORD USE32 PUBLIC 'CONST'
rdata$r	ENDS
;	COMDAT ??_R0?AV?$ctype@D@std@@@8
_DATA	SEGMENT DWORD USE32 PUBLIC 'DATA'
_DATA	ENDS
;	COMDAT ??_R3?$ctype@D@std@@8
rdata$r	SEGMENT DWORD USE32 PUBLIC 'CONST'
rdata$r	ENDS
;	COMDAT ??_R2?$ctype@D@std@@8
rdata$r	SEGMENT DWORD USE32 PUBLIC 'CONST'
rdata$r	ENDS
;	COMDAT ??_R1A@?0A@A@?$ctype@D@std@@8
rdata$r	SEGMENT DWORD USE32 PUBLIC 'CONST'
rdata$r	ENDS
;	COMDAT ??_G?$ctype@D@std@@MAEPAXI@Z
_TEXT	SEGMENT PARA USE32 PUBLIC 'CODE'
_TEXT	ENDS
;	COMDAT ??_S?$numpunct@_W@std@@6B@
CONST	SEGMENT DWORD USE32 PUBLIC 'CONST'
CONST	ENDS
;	COMDAT ??_S?$numpunct@D@std@@6B@
CONST	SEGMENT DWORD USE32 PUBLIC 'CONST'
CONST	ENDS
;	COMDAT _wmemmove
_TEXT	SEGMENT PARA USE32 PUBLIC 'CODE'
_TEXT	ENDS
;	COMDAT ?deallocate@?$allocator@_W@std@@QAEXPA_WI@Z
_TEXT	SEGMENT PARA USE32 PUBLIC 'CODE'
_TEXT	ENDS
;	COMDAT ??0?$allocator@_W@std@@QAE@ABV01@@Z
_TEXT	SEGMENT PARA USE32 PUBLIC 'CODE'
_TEXT	ENDS
;	COMDAT ??0CRect@@QAE@XZ
_TEXT	SEGMENT PARA USE32 PUBLIC 'CODE'
_TEXT	ENDS
;	COMDAT ?IsWindowVisible@CWnd@@QBEHXZ
_TEXT	SEGMENT PARA USE32 PUBLIC 'CODE'
_TEXT	ENDS
;	COMDAT ??0CRect@@QAE@HHHH@Z
_TEXT	SEGMENT PARA USE32 PUBLIC 'CODE'
_TEXT	ENDS
;	COMDAT ?SetParent@CWnd@@QAEPAV1@PAV1@@Z
_TEXT	SEGMENT PARA USE32 PUBLIC 'CODE'
_TEXT	ENDS
;	COMDAT ?GetSafeHwnd@CWnd@@QBEPAUHWND__@@XZ
_TEXT	SEGMENT PARA USE32 PUBLIC 'CODE'
_TEXT	ENDS
;	COMDAT ?GetWindowRect@CWnd@@QBEXPAUtagRECT@@@Z
_TEXT	SEGMENT PARA USE32 PUBLIC 'CODE'
_TEXT	ENDS
;	COMDAT ?GetDefaultManager@?$StrTraitMFC_DLL@DV?$ChTraitsCRT@D@ATL@@@@SAPAUIAtlStringMgr@ATL@@XZ
_TEXT	SEGMENT PARA USE32 PUBLIC 'CODE'
_TEXT	ENDS
;	COMDAT ??BCRect@@QAEPAUtagRECT@@XZ
_TEXT	SEGMENT PARA USE32 PUBLIC 'CODE'
_TEXT	ENDS
;	COMDAT ?MoveWindow@CWnd@@QAEXPBUtagRECT@@H@Z
_TEXT	SEGMENT PARA USE32 PUBLIC 'CODE'
_TEXT	ENDS
;	COMDAT ??0?$allocator@D@std@@QAE@ABV01@@Z
_TEXT	SEGMENT PARA USE32 PUBLIC 'CODE'
_TEXT	ENDS
;	COMDAT ??0?$allocator@D@std@@QAE@XZ
_TEXT	SEGMENT PARA USE32 PUBLIC 'CODE'
_TEXT	ENDS
;	COMDAT ??3CObject@@SGXPAX@Z
_TEXT	SEGMENT PARA USE32 PUBLIC 'CODE'
_TEXT	ENDS
;	COMDAT ??2CObject@@SGPAXI@Z
_TEXT	SEGMENT PARA USE32 PUBLIC 'CODE'
_TEXT	ENDS
;	COMDAT ?IsLocked@CStringData@ATL@@QBE_NXZ
_TEXT	SEGMENT PARA USE32 PUBLIC 'CODE'
_TEXT	ENDS
;	COMDAT ?AddRef@CStringData@ATL@@QAEXXZ
_TEXT	SEGMENT PARA USE32 PUBLIC 'CODE'
_TEXT	ENDS
;	COMDAT ?GetParent@CWnd@@QBEPAV1@XZ
_TEXT	SEGMENT PARA USE32 PUBLIC 'CODE'
_TEXT	ENDS
;	COMDAT ??_7IData@@6B@
CONST	SEGMENT DWORD USE32 PUBLIC 'CONST'
CONST	ENDS
sxdata	SEGMENT DWORD USE32 'SXDATA'
sxdata	ENDS
FLAT	GROUP _DATA, CONST, _BSS
	ASSUME	CS: FLAT, DS: FLAT, SS: FLAT
endif

INCLUDELIB MSVCRT
INCLUDELIB OLDNAMES

PUBLIC	?m_pHostMgr@CHostWndMgr@@0PAV1@A		; CHostWndMgr::m_pHostMgr
_BSS	SEGMENT
?m_pHostMgr@CHostWndMgr@@0PAV1@A DD 01H DUP (?)		; CHostWndMgr::m_pHostMgr
_BSS	ENDS
CONST	SEGMENT
$SG199825 DB	'%d,%d', 00H
	ORG $+2
$SG199836 DB	'3', 00H
	ORG $+2
$SG199837 DB	'CUIManager', 00H
	ORG $+1
$SG199838 DB	'main.txt', 00H
	ORG $+3
$SG199847 DB	'31', 00H
	ORG $+1
$SG199848 DB	'CUIManager', 00H
	ORG $+1
$SG199849 DB	'main.txt', 00H
	ORG $+3
$SG199960 DB	'32', 00H
	ORG $+1
$SG199961 DB	'CUIManager', 00H
	ORG $+1
$SG199962 DB	'main.txt', 00H
	ORG $+3
$SG199973 DB	'33', 00H
	ORG $+1
$SG199974 DB	'CUIManager', 00H
	ORG $+1
$SG199975 DB	'main.txt', 00H
	ORG $+3
$SG199978 DB	'34', 00H
	ORG $+1
$SG199979 DB	'CUIManager', 00H
	ORG $+1
$SG199980 DB	'main.txt', 00H
CONST	ENDS
PUBLIC	??0CHostWndMgr@@AAE@XZ				; CHostWndMgr::CHostWndMgr
PUBLIC	?GetInstance@CHostWndMgr@@SAPAV1@XZ		; CHostWndMgr::GetInstance
EXTRN	??2@YAPAXI@Z:NEAR				; operator new
EXTRN	??3@YAXPAX@Z:NEAR				; operator delete
EXTRN	__except_list:DWORD
EXTRN	___CxxFrameHandler:NEAR
xdata$x	SEGMENT
$T202451 DD	0ffffffffH
	DD	FLAT:$L202444
$T202448 DD	019930520H
	DD	01H
	DD	FLAT:$T202451
	DD	2 DUP(00H)
	DD	2 DUP(00H)
; Function compile flags: /Odt
; File d:\boxgit\playbox\playbox\dev\prj\playbox\src\layoutmgr\seperatemode\hostwndmgr.cpp
xdata$x	ENDS
_TEXT	SEGMENT
tv72 = -24						; size = 4
$T202441 = -20						; size = 4
$T202440 = -16						; size = 4
__$EHRec$ = -12						; size = 12
?GetInstance@CHostWndMgr@@SAPAV1@XZ PROC NEAR		; CHostWndMgr::GetInstance

; 11   : {

  00000	55		 push	 ebp
  00001	8b ec		 mov	 ebp, esp
  00003	6a ff		 push	 -1
  00005	68 00 00 00 00	 push	 __ehhandler$?GetInstance@CHostWndMgr@@SAPAV1@XZ
  0000a	64 a1 00 00 00
	00		 mov	 eax, DWORD PTR fs:__except_list
  00010	50		 push	 eax
  00011	64 89 25 00 00
	00 00		 mov	 DWORD PTR fs:__except_list, esp
  00018	83 ec 0c	 sub	 esp, 12			; 0000000cH

; 12   : 	if(m_pHostMgr == NULL)

  0001b	83 3d 00 00 00
	00 00		 cmp	 DWORD PTR ?m_pHostMgr@CHostWndMgr@@0PAV1@A, 0 ; CHostWndMgr::m_pHostMgr
  00022	75 44		 jne	 SHORT $L199518

; 13   : 	{
; 14   : 		m_pHostMgr = new CHostWndMgr();

  00024	6a 44		 push	 68			; 00000044H
  00026	e8 00 00 00 00	 call	 ??2@YAPAXI@Z		; operator new
  0002b	83 c4 04	 add	 esp, 4
  0002e	89 45 ec	 mov	 DWORD PTR $T202441[ebp], eax
  00031	c7 45 fc 00 00
	00 00		 mov	 DWORD PTR __$EHRec$[ebp+8], 0
  00038	83 7d ec 00	 cmp	 DWORD PTR $T202441[ebp], 0
  0003c	74 0d		 je	 SHORT $L202442
  0003e	8b 4d ec	 mov	 ecx, DWORD PTR $T202441[ebp]
  00041	e8 00 00 00 00	 call	 ??0CHostWndMgr@@AAE@XZ	; CHostWndMgr::CHostWndMgr
  00046	89 45 e8	 mov	 DWORD PTR tv72[ebp], eax
  00049	eb 07		 jmp	 SHORT $L202443
$L202442:
  0004b	c7 45 e8 00 00
	00 00		 mov	 DWORD PTR tv72[ebp], 0
$L202443:
  00052	8b 45 e8	 mov	 eax, DWORD PTR tv72[ebp]
  00055	89 45 f0	 mov	 DWORD PTR $T202440[ebp], eax
  00058	c7 45 fc ff ff
	ff ff		 mov	 DWORD PTR __$EHRec$[ebp+8], -1
  0005f	8b 4d f0	 mov	 ecx, DWORD PTR $T202440[ebp]
  00062	89 0d 00 00 00
	00		 mov	 DWORD PTR ?m_pHostMgr@CHostWndMgr@@0PAV1@A, ecx ; CHostWndMgr::m_pHostMgr
$L199518:

; 15   : 
; 16   : 	}
; 17   : 
; 18   : 	return m_pHostMgr;

  00068	a1 00 00 00 00	 mov	 eax, DWORD PTR ?m_pHostMgr@CHostWndMgr@@0PAV1@A ; CHostWndMgr::m_pHostMgr

; 19   : }

  0006d	8b 4d f4	 mov	 ecx, DWORD PTR __$EHRec$[ebp]
  00070	64 89 0d 00 00
	00 00		 mov	 DWORD PTR fs:__except_list, ecx
  00077	8b e5		 mov	 esp, ebp
  00079	5d		 pop	 ebp
  0007a	c3		 ret	 0
_TEXT	ENDS
text$x	SEGMENT
$L202444:
  00000	8b 45 ec	 mov	 eax, DWORD PTR $T202441[ebp]
  00003	50		 push	 eax
  00004	e8 00 00 00 00	 call	 ??3@YAXPAX@Z		; operator delete
  00009	59		 pop	 ecx
  0000a	c3		 ret	 0
__ehhandler$?GetInstance@CHostWndMgr@@SAPAV1@XZ:
  0000b	b8 00 00 00 00	 mov	 eax, OFFSET FLAT:$T202448
  00010	e9 00 00 00 00	 jmp	 ___CxxFrameHandler
text$x	ENDS
?GetInstance@CHostWndMgr@@SAPAV1@XZ ENDP		; CHostWndMgr::GetInstance
PUBLIC	?DelInstance@CHostWndMgr@@SAXXZ			; CHostWndMgr::DelInstance
PUBLIC	??_GCHostWndMgr@@AAEPAXI@Z			; CHostWndMgr::`scalar deleting destructor'
; Function compile flags: /Odt
_TEXT	SEGMENT
tv68 = -12						; size = 4
$T202455 = -8						; size = 4
$T202454 = -4						; size = 4
?DelInstance@CHostWndMgr@@SAXXZ PROC NEAR		; CHostWndMgr::DelInstance

; 22   : {

  00080	55		 push	 ebp
  00081	8b ec		 mov	 ebp, esp
  00083	83 ec 0c	 sub	 esp, 12			; 0000000cH

; 23   : 	delete m_pHostMgr;

  00086	a1 00 00 00 00	 mov	 eax, DWORD PTR ?m_pHostMgr@CHostWndMgr@@0PAV1@A ; CHostWndMgr::m_pHostMgr
  0008b	89 45 f8	 mov	 DWORD PTR $T202455[ebp], eax
  0008e	8b 4d f8	 mov	 ecx, DWORD PTR $T202455[ebp]
  00091	89 4d fc	 mov	 DWORD PTR $T202454[ebp], ecx
  00094	83 7d fc 00	 cmp	 DWORD PTR $T202454[ebp], 0
  00098	74 0f		 je	 SHORT $L202456
  0009a	6a 01		 push	 1
  0009c	8b 4d fc	 mov	 ecx, DWORD PTR $T202454[ebp]
  0009f	e8 00 00 00 00	 call	 ??_GCHostWndMgr@@AAEPAXI@Z
  000a4	89 45 f4	 mov	 DWORD PTR tv68[ebp], eax
  000a7	eb 07		 jmp	 SHORT $L199524
$L202456:
  000a9	c7 45 f4 00 00
	00 00		 mov	 DWORD PTR tv68[ebp], 0
$L199524:

; 24   : }

  000b0	8b e5		 mov	 esp, ebp
  000b2	5d		 pop	 ebp
  000b3	c3		 ret	 0
?DelInstance@CHostWndMgr@@SAXXZ ENDP			; CHostWndMgr::DelInstance
_TEXT	ENDS
PUBLIC	??1CHostWndMgr@@AAE@XZ				; CHostWndMgr::~CHostWndMgr
; Function compile flags: /Odt
;	COMDAT ??_GCHostWndMgr@@AAEPAXI@Z
_TEXT	SEGMENT
_this$ = -4						; size = 4
___flags$ = 8						; size = 4
??_GCHostWndMgr@@AAEPAXI@Z PROC NEAR			; CHostWndMgr::`scalar deleting destructor', COMDAT
; _this$ = ecx
  00000	55		 push	 ebp
  00001	8b ec		 mov	 ebp, esp
  00003	51		 push	 ecx
  00004	89 4d fc	 mov	 DWORD PTR _this$[ebp], ecx
  00007	8b 4d fc	 mov	 ecx, DWORD PTR _this$[ebp]
  0000a	e8 00 00 00 00	 call	 ??1CHostWndMgr@@AAE@XZ	; CHostWndMgr::~CHostWndMgr
  0000f	8b 45 08	 mov	 eax, DWORD PTR ___flags$[ebp]
  00012	83 e0 01	 and	 eax, 1
  00015	74 0c		 je	 SHORT $L199530
  00017	8b 4d fc	 mov	 ecx, DWORD PTR _this$[ebp]
  0001a	51		 push	 ecx
  0001b	e8 00 00 00 00	 call	 ??3@YAXPAX@Z		; operator delete
  00020	83 c4 04	 add	 esp, 4
$L199530:
  00023	8b 45 fc	 mov	 eax, DWORD PTR _this$[ebp]
  00026	8b e5		 mov	 esp, ebp
  00028	5d		 pop	 ebp
  00029	c2 04 00	 ret	 4
??_GCHostWndMgr@@AAEPAXI@Z ENDP				; CHostWndMgr::`scalar deleting destructor'
_TEXT	ENDS
PUBLIC	??0?$vector@PAVILyricPopupWndShowObserver@@V?$allocator@PAVILyricPopupWndShowObserver@@@std@@@std@@QAE@XZ ; std::vector<ILyricPopupWndShowObserver *,std::allocator<ILyricPopupWndShowObserver *> >::vector<ILyricPopupWndShowObserver *,std::allocator<ILyricPopupWndShowObserver *> >
PUBLIC	??0?$map@PAUHWND__@@UCWndData@@U?$less@PAUHWND__@@@std@@V?$allocator@U?$pair@QAUHWND__@@UCWndData@@@std@@@4@@std@@QAE@XZ ; std::map<HWND__ *,CWndData,std::less<HWND__ *>,std::allocator<std::pair<HWND__ * const,CWndData> > >::map<HWND__ *,CWndData,std::less<HWND__ *>,std::allocator<std::pair<HWND__ * const,CWndData> > >
PUBLIC	??1?$map@PAUHWND__@@UCWndData@@U?$less@PAUHWND__@@@std@@V?$allocator@U?$pair@QAUHWND__@@UCWndData@@@std@@@4@@std@@QAE@XZ ; std::map<HWND__ *,CWndData,std::less<HWND__ *>,std::allocator<std::pair<HWND__ * const,CWndData> > >::~map<HWND__ *,CWndData,std::less<HWND__ *>,std::allocator<std::pair<HWND__ * const,CWndData> > >
PUBLIC	??0?$vector@PAVCHostWnd@@V?$allocator@PAVCHostWnd@@@std@@@std@@QAE@XZ ; std::vector<CHostWnd *,std::allocator<CHostWnd *> >::vector<CHostWnd *,std::allocator<CHostWnd *> >
PUBLIC	??1?$vector@PAVCHostWnd@@V?$allocator@PAVCHostWnd@@@std@@@std@@QAE@XZ ; std::vector<CHostWnd *,std::allocator<CHostWnd *> >::~vector<CHostWnd *,std::allocator<CHostWnd *> >
xdata$x	SEGMENT
$T202468 DD	0ffffffffH
	DD	FLAT:$L202461
	DD	00H
	DD	FLAT:$L202462
	DD	01H
	DD	FLAT:$L202463
$T202466 DD	019930520H
	DD	03H
	DD	FLAT:$T202468
	DD	2 DUP(00H)
	DD	2 DUP(00H)
; Function compile flags: /Odt
xdata$x	ENDS
_TEXT	SEGMENT
_this$ = -16						; size = 4
__$EHRec$ = -12						; size = 12
??0CHostWndMgr@@AAE@XZ PROC NEAR			; CHostWndMgr::CHostWndMgr
; _this$ = ecx

; 27   : {

  000c0	55		 push	 ebp
  000c1	8b ec		 mov	 ebp, esp
  000c3	6a ff		 push	 -1
  000c5	68 00 00 00 00	 push	 __ehhandler$??0CHostWndMgr@@AAE@XZ
  000ca	64 a1 00 00 00
	00		 mov	 eax, DWORD PTR fs:__except_list
  000d0	50		 push	 eax
  000d1	64 89 25 00 00
	00 00		 mov	 DWORD PTR fs:__except_list, esp
  000d8	51		 push	 ecx
  000d9	89 4d f0	 mov	 DWORD PTR _this$[ebp], ecx
  000dc	8b 4d f0	 mov	 ecx, DWORD PTR _this$[ebp]
  000df	e8 00 00 00 00	 call	 ??0?$map@PAUHWND__@@UCWndData@@U?$less@PAUHWND__@@@std@@V?$allocator@U?$pair@QAUHWND__@@UCWndData@@@std@@@4@@std@@QAE@XZ ; std::map<HWND__ *,CWndData,std::less<HWND__ *>,std::allocator<std::pair<HWND__ * const,CWndData> > >::map<HWND__ *,CWndData,std::less<HWND__ *>,std::allocator<std::pair<HWND__ * const,CWndData> > >
  000e4	c7 45 fc 00 00
	00 00		 mov	 DWORD PTR __$EHRec$[ebp+8], 0
  000eb	8b 4d f0	 mov	 ecx, DWORD PTR _this$[ebp]
  000ee	83 c1 0c	 add	 ecx, 12			; 0000000cH
  000f1	e8 00 00 00 00	 call	 ??0?$vector@PAVCHostWnd@@V?$allocator@PAVCHostWnd@@@std@@@std@@QAE@XZ ; std::vector<CHostWnd *,std::allocator<CHostWnd *> >::vector<CHostWnd *,std::allocator<CHostWnd *> >
  000f6	c6 45 fc 01	 mov	 BYTE PTR __$EHRec$[ebp+8], 1
  000fa	8b 4d f0	 mov	 ecx, DWORD PTR _this$[ebp]
  000fd	83 c1 1c	 add	 ecx, 28			; 0000001cH
  00100	e8 00 00 00 00	 call	 ??0?$vector@PAVCHostWnd@@V?$allocator@PAVCHostWnd@@@std@@@std@@QAE@XZ ; std::vector<CHostWnd *,std::allocator<CHostWnd *> >::vector<CHostWnd *,std::allocator<CHostWnd *> >
  00105	c6 45 fc 02	 mov	 BYTE PTR __$EHRec$[ebp+8], 2
  00109	8b 4d f0	 mov	 ecx, DWORD PTR _this$[ebp]
  0010c	83 c1 2c	 add	 ecx, 44			; 0000002cH
  0010f	e8 00 00 00 00	 call	 ??0?$vector@PAVILyricPopupWndShowObserver@@V?$allocator@PAVILyricPopupWndShowObserver@@@std@@@std@@QAE@XZ ; std::vector<ILyricPopupWndShowObserver *,std::allocator<ILyricPopupWndShowObserver *> >::vector<ILyricPopupWndShowObserver *,std::allocator<ILyricPopupWndShowObserver *> >
  00114	8b 45 f0	 mov	 eax, DWORD PTR _this$[ebp]
  00117	c6 40 40 00	 mov	 BYTE PTR [eax+64], 0

; 28   : 	m_pMainWnd = NULL;

  0011b	8b 4d f0	 mov	 ecx, DWORD PTR _this$[ebp]
  0011e	c7 41 3c 00 00
	00 00		 mov	 DWORD PTR [ecx+60], 0

; 29   : }

  00125	c7 45 fc ff ff
	ff ff		 mov	 DWORD PTR __$EHRec$[ebp+8], -1
  0012c	8b 45 f0	 mov	 eax, DWORD PTR _this$[ebp]
  0012f	8b 4d f4	 mov	 ecx, DWORD PTR __$EHRec$[ebp]
  00132	64 89 0d 00 00
	00 00		 mov	 DWORD PTR fs:__except_list, ecx
  00139	8b e5		 mov	 esp, ebp
  0013b	5d		 pop	 ebp
  0013c	c3		 ret	 0
_TEXT	ENDS
text$x	SEGMENT
$L202461:
  00015	8b 4d f0	 mov	 ecx, DWORD PTR _this$[ebp]
  00018	e9 00 00 00 00	 jmp	 ??1?$map@PAUHWND__@@UCWndData@@U?$less@PAUHWND__@@@std@@V?$allocator@U?$pair@QAUHWND__@@UCWndData@@@std@@@4@@std@@QAE@XZ
$L202462:
  0001d	8b 4d f0	 mov	 ecx, DWORD PTR _this$[ebp]
  00020	83 c1 0c	 add	 ecx, 12			; 0000000cH
  00023	e9 00 00 00 00	 jmp	 ??1?$vector@PAVCHostWnd@@V?$allocator@PAVCHostWnd@@@std@@@std@@QAE@XZ ; std::vector<CHostWnd *,std::allocator<CHostWnd *> >::~vector<CHostWnd *,std::allocator<CHostWnd *> >
$L202463:
  00028	8b 4d f0	 mov	 ecx, DWORD PTR _this$[ebp]
  0002b	83 c1 1c	 add	 ecx, 28			; 0000001cH
  0002e	e9 00 00 00 00	 jmp	 ??1?$vector@PAVCHostWnd@@V?$allocator@PAVCHostWnd@@@std@@@std@@QAE@XZ ; std::vector<CHostWnd *,std::allocator<CHostWnd *> >::~vector<CHostWnd *,std::allocator<CHostWnd *> >
__ehhandler$??0CHostWndMgr@@AAE@XZ:
  00033	b8 00 00 00 00	 mov	 eax, OFFSET FLAT:$T202466
  00038	e9 00 00 00 00	 jmp	 ___CxxFrameHandler
text$x	ENDS
??0CHostWndMgr@@AAE@XZ ENDP				; CHostWndMgr::CHostWndMgr
PUBLIC	??1?$_Tree@V?$_Tmap_traits@PAUHWND__@@UCWndData@@U?$less@PAUHWND__@@@std@@V?$allocator@U?$pair@QAUHWND__@@UCWndData@@@std@@@4@$0A@@std@@@std@@QAE@XZ ; std::_Tree<std::_Tmap_traits<HWND__ *,CWndData,std::less<HWND__ *>,std::allocator<std::pair<HWND__ * const,CWndData> >,0> >::~_Tree<std::_Tmap_traits<HWND__ *,CWndData,std::less<HWND__ *>,std::allocator<std::pair<HWND__ * const,CWndData> >,0> >
; Function compile flags: /Odt
;	COMDAT ??1?$map@PAUHWND__@@UCWndData@@U?$less@PAUHWND__@@@std@@V?$allocator@U?$pair@QAUHWND__@@UCWndData@@@std@@@4@@std@@QAE@XZ
_TEXT	SEGMENT
_this$ = -4						; size = 4
??1?$map@PAUHWND__@@UCWndData@@U?$less@PAUHWND__@@@std@@V?$allocator@U?$pair@QAUHWND__@@UCWndData@@@std@@@4@@std@@QAE@XZ PROC NEAR ; std::map<HWND__ *,CWndData,std::less<HWND__ *>,std::allocator<std::pair<HWND__ * const,CWndData> > >::~map<HWND__ *,CWndData,std::less<HWND__ *>,std::allocator<std::pair<HWND__ * const,CWndData> > >, COMDAT
; _this$ = ecx
  00000	55		 push	 ebp
  00001	8b ec		 mov	 ebp, esp
  00003	51		 push	 ecx
  00004	89 4d fc	 mov	 DWORD PTR _this$[ebp], ecx
  00007	8b 4d fc	 mov	 ecx, DWORD PTR _this$[ebp]
  0000a	e8 00 00 00 00	 call	 ??1?$_Tree@V?$_Tmap_traits@PAUHWND__@@UCWndData@@U?$less@PAUHWND__@@@std@@V?$allocator@U?$pair@QAUHWND__@@UCWndData@@@std@@@4@$0A@@std@@@std@@QAE@XZ ; std::_Tree<std::_Tmap_traits<HWND__ *,CWndData,std::less<HWND__ *>,std::allocator<std::pair<HWND__ * const,CWndData> >,0> >::~_Tree<std::_Tmap_traits<HWND__ *,CWndData,std::less<HWND__ *>,std::allocator<std::pair<HWND__ * const,CWndData> >,0> >
  0000f	8b e5		 mov	 esp, ebp
  00011	5d		 pop	 ebp
  00012	c3		 ret	 0
??1?$map@PAUHWND__@@UCWndData@@U?$less@PAUHWND__@@@std@@V?$allocator@U?$pair@QAUHWND__@@UCWndData@@@std@@@4@@std@@QAE@XZ ENDP ; std::map<HWND__ *,CWndData,std::less<HWND__ *>,std::allocator<std::pair<HWND__ * const,CWndData> > >::~map<HWND__ *,CWndData,std::less<HWND__ *>,std::allocator<std::pair<HWND__ * const,CWndData> > >
_TEXT	ENDS
PUBLIC	??1?$vector@PAVILyricPopupWndShowObserver@@V?$allocator@PAVILyricPopupWndShowObserver@@@std@@@std@@QAE@XZ ; std::vector<ILyricPopupWndShowObserver *,std::allocator<ILyricPopupWndShowObserver *> >::~vector<ILyricPopupWndShowObserver *,std::allocator<ILyricPopupWndShowObserver *> >
xdata$x	SEGMENT
$T202480 DD	0ffffffffH
	DD	FLAT:$L202473
	DD	00H
	DD	FLAT:$L202474
	DD	01H
	DD	FLAT:$L202475
$T202478 DD	019930520H
	DD	03H
	DD	FLAT:$T202480
	DD	2 DUP(00H)
	DD	2 DUP(00H)
; Function compile flags: /Odt
xdata$x	ENDS
_TEXT	SEGMENT
_this$ = -16						; size = 4
__$EHRec$ = -12						; size = 12
??1CHostWndMgr@@AAE@XZ PROC NEAR			; CHostWndMgr::~CHostWndMgr
; _this$ = ecx

; 32   : {

  00140	55		 push	 ebp
  00141	8b ec		 mov	 ebp, esp
  00143	6a ff		 push	 -1
  00145	68 00 00 00 00	 push	 __ehhandler$??1CHostWndMgr@@AAE@XZ
  0014a	64 a1 00 00 00
	00		 mov	 eax, DWORD PTR fs:__except_list
  00150	50		 push	 eax
  00151	64 89 25 00 00
	00 00		 mov	 DWORD PTR fs:__except_list, esp
  00158	51		 push	 ecx
  00159	89 4d f0	 mov	 DWORD PTR _this$[ebp], ecx
  0015c	c7 45 fc 02 00
	00 00		 mov	 DWORD PTR __$EHRec$[ebp+8], 2

; 33   : }

  00163	8b 4d f0	 mov	 ecx, DWORD PTR _this$[ebp]
  00166	83 c1 2c	 add	 ecx, 44			; 0000002cH
  00169	e8 00 00 00 00	 call	 ??1?$vector@PAVILyricPopupWndShowObserver@@V?$allocator@PAVILyricPopupWndShowObserver@@@std@@@std@@QAE@XZ ; std::vector<ILyricPopupWndShowObserver *,std::allocator<ILyricPopupWndShowObserver *> >::~vector<ILyricPopupWndShowObserver *,std::allocator<ILyricPopupWndShowObserver *> >
  0016e	c6 45 fc 01	 mov	 BYTE PTR __$EHRec$[ebp+8], 1
  00172	8b 4d f0	 mov	 ecx, DWORD PTR _this$[ebp]
  00175	83 c1 1c	 add	 ecx, 28			; 0000001cH
  00178	e8 00 00 00 00	 call	 ??1?$vector@PAVCHostWnd@@V?$allocator@PAVCHostWnd@@@std@@@std@@QAE@XZ ; std::vector<CHostWnd *,std::allocator<CHostWnd *> >::~vector<CHostWnd *,std::allocator<CHostWnd *> >
  0017d	c6 45 fc 00	 mov	 BYTE PTR __$EHRec$[ebp+8], 0
  00181	8b 4d f0	 mov	 ecx, DWORD PTR _this$[ebp]
  00184	83 c1 0c	 add	 ecx, 12			; 0000000cH
  00187	e8 00 00 00 00	 call	 ??1?$vector@PAVCHostWnd@@V?$allocator@PAVCHostWnd@@@std@@@std@@QAE@XZ ; std::vector<CHostWnd *,std::allocator<CHostWnd *> >::~vector<CHostWnd *,std::allocator<CHostWnd *> >
  0018c	c7 45 fc ff ff
	ff ff		 mov	 DWORD PTR __$EHRec$[ebp+8], -1
  00193	8b 4d f0	 mov	 ecx, DWORD PTR _this$[ebp]
  00196	e8 00 00 00 00	 call	 ??1?$map@PAUHWND__@@UCWndData@@U?$less@PAUHWND__@@@std@@V?$allocator@U?$pair@QAUHWND__@@UCWndData@@@std@@@4@@std@@QAE@XZ
  0019b	8b 4d f4	 mov	 ecx, DWORD PTR __$EHRec$[ebp]
  0019e	64 89 0d 00 00
	00 00		 mov	 DWORD PTR fs:__except_list, ecx
  001a5	8b e5		 mov	 esp, ebp
  001a7	5d		 pop	 ebp
  001a8	c3		 ret	 0
_TEXT	ENDS
text$x	SEGMENT
$L202473:
  0003d	8b 4d f0	 mov	 ecx, DWORD PTR _this$[ebp]
  00040	e9 00 00 00 00	 jmp	 ??1?$map@PAUHWND__@@UCWndData@@U?$less@PAUHWND__@@@std@@V?$allocator@U?$pair@QAUHWND__@@UCWndData@@@std@@@4@@std@@QAE@XZ
$L202474:
  00045	8b 4d f0	 mov	 ecx, DWORD PTR _this$[ebp]
  00048	83 c1 0c	 add	 ecx, 12			; 0000000cH
  0004b	e9 00 00 00 00	 jmp	 ??1?$vector@PAVCHostWnd@@V?$allocator@PAVCHostWnd@@@std@@@std@@QAE@XZ ; std::vector<CHostWnd *,std::allocator<CHostWnd *> >::~vector<CHostWnd *,std::allocator<CHostWnd *> >
$L202475:
  00050	8b 4d f0	 mov	 ecx, DWORD PTR _this$[ebp]
  00053	83 c1 1c	 add	 ecx, 28			; 0000001cH
  00056	e9 00 00 00 00	 jmp	 ??1?$vector@PAVCHostWnd@@V?$allocator@PAVCHostWnd@@@std@@@std@@QAE@XZ ; std::vector<CHostWnd *,std::allocator<CHostWnd *> >::~vector<CHostWnd *,std::allocator<CHostWnd *> >
__ehhandler$??1CHostWndMgr@@AAE@XZ:
  0005b	b8 00 00 00 00	 mov	 eax, OFFSET FLAT:$T202478
  00060	e9 00 00 00 00	 jmp	 ___CxxFrameHandler
text$x	ENDS
??1CHostWndMgr@@AAE@XZ ENDP				; CHostWndMgr::~CHostWndMgr
PUBLIC	?KeepOriParent@CHostWndMgr@@QAEXPAVCWnd@@@Z	; CHostWndMgr::KeepOriParent
PUBLIC	?GetParent@CWnd@@QBEPAV1@XZ			; CWnd::GetParent
PUBLIC	??A?$map@PAUHWND__@@UCWndData@@U?$less@PAUHWND__@@@std@@V?$allocator@U?$pair@QAUHWND__@@UCWndData@@@std@@@4@@std@@QAEAAUCWndData@@ABQAUHWND__@@@Z ; std::map<HWND__ *,CWndData,std::less<HWND__ *>,std::allocator<std::pair<HWND__ * const,CWndData> > >::operator[]
; Function compile flags: /Odt
_TEXT	SEGMENT
_this$ = -12						; size = 4
_data$ = -8						; size = 8
_pWndContent$ = 8					; size = 4
?KeepOriParent@CHostWndMgr@@QAEXPAVCWnd@@@Z PROC NEAR	; CHostWndMgr::KeepOriParent
; _this$ = ecx

; 36   : {

  001b0	55		 push	 ebp
  001b1	8b ec		 mov	 ebp, esp
  001b3	83 ec 0c	 sub	 esp, 12			; 0000000cH
  001b6	89 4d f4	 mov	 DWORD PTR _this$[ebp], ecx

; 37   : 	//;//pHostWnd->HostWindow(pWndContent);
; 38   : 	CWndData data;
; 39   : 	data.pWnd = pWndContent;

  001b9	8b 45 08	 mov	 eax, DWORD PTR _pWndContent$[ebp]
  001bc	89 45 f8	 mov	 DWORD PTR _data$[ebp], eax

; 40   : 	data.pParentWnd = pWndContent->GetParent();

  001bf	8b 4d 08	 mov	 ecx, DWORD PTR _pWndContent$[ebp]
  001c2	e8 00 00 00 00	 call	 ?GetParent@CWnd@@QBEPAV1@XZ ; CWnd::GetParent
  001c7	89 45 fc	 mov	 DWORD PTR _data$[ebp+4], eax

; 41   : 	//pWnd->SetParent(this);
; 42   : 	m_mapContentWnd[pWndContent->m_hWnd] = data;

  001ca	8b 4d 08	 mov	 ecx, DWORD PTR _pWndContent$[ebp]
  001cd	83 c1 20	 add	 ecx, 32			; 00000020H
  001d0	51		 push	 ecx
  001d1	8b 4d f4	 mov	 ecx, DWORD PTR _this$[ebp]
  001d4	e8 00 00 00 00	 call	 ??A?$map@PAUHWND__@@UCWndData@@U?$less@PAUHWND__@@@std@@V?$allocator@U?$pair@QAUHWND__@@UCWndData@@@std@@@4@@std@@QAEAAUCWndData@@ABQAUHWND__@@@Z ; std::map<HWND__ *,CWndData,std::less<HWND__ *>,std::allocator<std::pair<HWND__ * const,CWndData> > >::operator[]
  001d9	8b 55 f8	 mov	 edx, DWORD PTR _data$[ebp]
  001dc	89 10		 mov	 DWORD PTR [eax], edx
  001de	8b 4d fc	 mov	 ecx, DWORD PTR _data$[ebp+4]
  001e1	89 48 04	 mov	 DWORD PTR [eax+4], ecx

; 43   : }

  001e4	8b e5		 mov	 esp, ebp
  001e6	5d		 pop	 ebp
  001e7	c2 04 00	 ret	 4
?KeepOriParent@CHostWndMgr@@QAEXPAVCWnd@@@Z ENDP	; CHostWndMgr::KeepOriParent
_TEXT	ENDS
PUBLIC	?size@?$vector@USepWindowData@@V?$allocator@USepWindowData@@@std@@@std@@QBEIXZ ; std::vector<SepWindowData,std::allocator<SepWindowData> >::size
PUBLIC	??A?$vector@USepWindowData@@V?$allocator@USepWindowData@@@std@@@std@@QAEAAUSepWindowData@@I@Z ; std::vector<SepWindowData,std::allocator<SepWindowData> >::operator[]
PUBLIC	??0SepWindowData@@QAE@ABU0@@Z			; SepWindowData::SepWindowData
PUBLIC	?AttachMovingWnd@CHostWndMgr@@QAEXUSepWindowData@@@Z ; CHostWndMgr::AttachMovingWnd
PUBLIC	?AttachMovingWnds@CHostWndMgr@@QAEXAAV?$vector@USepWindowData@@V?$allocator@USepWindowData@@@std@@@std@@@Z ; CHostWndMgr::AttachMovingWnds
; Function compile flags: /Odt
_TEXT	SEGMENT
tv87 = -16						; size = 4
_this$ = -12						; size = 4
$T202483 = -8						; size = 4
_i$199549 = -4						; size = 4
_vecSepData$ = 8					; size = 4
?AttachMovingWnds@CHostWndMgr@@QAEXAAV?$vector@USepWindowData@@V?$allocator@USepWindowData@@@std@@@std@@@Z PROC NEAR ; CHostWndMgr::AttachMovingWnds
; _this$ = ecx

; 46   : {

  001f0	55		 push	 ebp
  001f1	8b ec		 mov	 ebp, esp
  001f3	83 ec 10	 sub	 esp, 16			; 00000010H
  001f6	89 4d f4	 mov	 DWORD PTR _this$[ebp], ecx

; 47   : 	for(int i = 0; i<vecSepData.size(); i++)

  001f9	c7 45 fc 00 00
	00 00		 mov	 DWORD PTR _i$199549[ebp], 0
  00200	eb 09		 jmp	 SHORT $L199791
$L199792:
  00202	8b 45 fc	 mov	 eax, DWORD PTR _i$199549[ebp]
  00205	83 c0 01	 add	 eax, 1
  00208	89 45 fc	 mov	 DWORD PTR _i$199549[ebp], eax
$L199791:
  0020b	8b 4d 08	 mov	 ecx, DWORD PTR _vecSepData$[ebp]
  0020e	e8 00 00 00 00	 call	 ?size@?$vector@USepWindowData@@V?$allocator@USepWindowData@@@std@@@std@@QBEIXZ ; std::vector<SepWindowData,std::allocator<SepWindowData> >::size
  00213	39 45 fc	 cmp	 DWORD PTR _i$199549[ebp], eax
  00216	73 27		 jae	 SHORT $L199548

; 48   : 		AttachMovingWnd(vecSepData[i]);

  00218	8b 4d fc	 mov	 ecx, DWORD PTR _i$199549[ebp]
  0021b	51		 push	 ecx
  0021c	8b 4d 08	 mov	 ecx, DWORD PTR _vecSepData$[ebp]
  0021f	e8 00 00 00 00	 call	 ??A?$vector@USepWindowData@@V?$allocator@USepWindowData@@@std@@@std@@QAEAAUSepWindowData@@I@Z ; std::vector<SepWindowData,std::allocator<SepWindowData> >::operator[]
  00224	83 ec 30	 sub	 esp, 48			; 00000030H
  00227	8b cc		 mov	 ecx, esp
  00229	89 65 f8	 mov	 DWORD PTR $T202483[ebp], esp
  0022c	50		 push	 eax
  0022d	e8 00 00 00 00	 call	 ??0SepWindowData@@QAE@ABU0@@Z
  00232	89 45 f0	 mov	 DWORD PTR tv87[ebp], eax
  00235	8b 4d f4	 mov	 ecx, DWORD PTR _this$[ebp]
  00238	e8 00 00 00 00	 call	 ?AttachMovingWnd@CHostWndMgr@@QAEXUSepWindowData@@@Z ; CHostWndMgr::AttachMovingWnd
  0023d	eb c3		 jmp	 SHORT $L199792
$L199548:

; 49   : }

  0023f	8b e5		 mov	 esp, ebp
  00241	5d		 pop	 ebp
  00242	c2 04 00	 ret	 4
?AttachMovingWnds@CHostWndMgr@@QAEXAAV?$vector@USepWindowData@@V?$allocator@USepWindowData@@@std@@@std@@@Z ENDP ; CHostWndMgr::AttachMovingWnds
_TEXT	ENDS
EXTRN	__imp_??0?$CStringT@DV?$StrTraitMFC_DLL@DV?$ChTraitsCRT@D@ATL@@@@@ATL@@QAE@ABV01@@Z:NEAR
EXTRN	__imp_??1?$CStringT@DV?$StrTraitMFC_DLL@DV?$ChTraitsCRT@D@ATL@@@@@ATL@@QAE@XZ:NEAR
;	COMDAT xdata$x
xdata$x	SEGMENT
$T202491 DD	0ffffffffH
	DD	FLAT:$L202486
$T202489 DD	019930520H
	DD	01H
	DD	FLAT:$T202491
	DD	2 DUP(00H)
	DD	2 DUP(00H)
; Function compile flags: /Odt
xdata$x	ENDS
;	COMDAT ??0SepWindowData@@QAE@ABU0@@Z
_TEXT	SEGMENT
_this$ = -16						; size = 4
__$EHRec$ = -12						; size = 12
___that$ = 8						; size = 4
??0SepWindowData@@QAE@ABU0@@Z PROC NEAR			; SepWindowData::SepWindowData, COMDAT
; _this$ = ecx
  00000	55		 push	 ebp
  00001	8b ec		 mov	 ebp, esp
  00003	6a ff		 push	 -1
  00005	68 00 00 00 00	 push	 __ehhandler$??0SepWindowData@@QAE@ABU0@@Z
  0000a	64 a1 00 00 00
	00		 mov	 eax, DWORD PTR fs:__except_list
  00010	50		 push	 eax
  00011	64 89 25 00 00
	00 00		 mov	 DWORD PTR fs:__except_list, esp
  00018	51		 push	 ecx
  00019	89 4d f0	 mov	 DWORD PTR _this$[ebp], ecx
  0001c	8b 45 f0	 mov	 eax, DWORD PTR _this$[ebp]
  0001f	8b 4d 08	 mov	 ecx, DWORD PTR ___that$[ebp]
  00022	8b 11		 mov	 edx, DWORD PTR [ecx]
  00024	89 10		 mov	 DWORD PTR [eax], edx
  00026	8b 45 f0	 mov	 eax, DWORD PTR _this$[ebp]
  00029	8b 4d 08	 mov	 ecx, DWORD PTR ___that$[ebp]
  0002c	8b 51 04	 mov	 edx, DWORD PTR [ecx+4]
  0002f	89 50 04	 mov	 DWORD PTR [eax+4], edx
  00032	8b 45 f0	 mov	 eax, DWORD PTR _this$[ebp]
  00035	8b 4d 08	 mov	 ecx, DWORD PTR ___that$[ebp]
  00038	8b 51 08	 mov	 edx, DWORD PTR [ecx+8]
  0003b	89 50 08	 mov	 DWORD PTR [eax+8], edx
  0003e	8b 45 08	 mov	 eax, DWORD PTR ___that$[ebp]
  00041	83 c0 0c	 add	 eax, 12			; 0000000cH
  00044	8b 4d f0	 mov	 ecx, DWORD PTR _this$[ebp]
  00047	83 c1 0c	 add	 ecx, 12			; 0000000cH
  0004a	8b 10		 mov	 edx, DWORD PTR [eax]
  0004c	89 11		 mov	 DWORD PTR [ecx], edx
  0004e	8b 50 04	 mov	 edx, DWORD PTR [eax+4]
  00051	89 51 04	 mov	 DWORD PTR [ecx+4], edx
  00054	8b 50 08	 mov	 edx, DWORD PTR [eax+8]
  00057	89 51 08	 mov	 DWORD PTR [ecx+8], edx
  0005a	8b 40 0c	 mov	 eax, DWORD PTR [eax+12]
  0005d	89 41 0c	 mov	 DWORD PTR [ecx+12], eax
  00060	8b 4d 08	 mov	 ecx, DWORD PTR ___that$[ebp]
  00063	83 c1 1c	 add	 ecx, 28			; 0000001cH
  00066	51		 push	 ecx
  00067	8b 4d f0	 mov	 ecx, DWORD PTR _this$[ebp]
  0006a	83 c1 1c	 add	 ecx, 28			; 0000001cH
  0006d	ff 15 00 00 00
	00		 call	 DWORD PTR __imp_??0?$CStringT@DV?$StrTraitMFC_DLL@DV?$ChTraitsCRT@D@ATL@@@@@ATL@@QAE@ABV01@@Z
  00073	c7 45 fc 00 00
	00 00		 mov	 DWORD PTR __$EHRec$[ebp+8], 0
  0007a	8b 55 08	 mov	 edx, DWORD PTR ___that$[ebp]
  0007d	83 c2 20	 add	 edx, 32			; 00000020H
  00080	52		 push	 edx
  00081	8b 4d f0	 mov	 ecx, DWORD PTR _this$[ebp]
  00084	83 c1 20	 add	 ecx, 32			; 00000020H
  00087	ff 15 00 00 00
	00		 call	 DWORD PTR __imp_??0?$CStringT@DV?$StrTraitMFC_DLL@DV?$ChTraitsCRT@D@ATL@@@@@ATL@@QAE@ABV01@@Z
  0008d	8b 45 f0	 mov	 eax, DWORD PTR _this$[ebp]
  00090	8b 4d 08	 mov	 ecx, DWORD PTR ___that$[ebp]
  00093	8b 51 24	 mov	 edx, DWORD PTR [ecx+36]
  00096	89 50 24	 mov	 DWORD PTR [eax+36], edx
  00099	8b 45 f0	 mov	 eax, DWORD PTR _this$[ebp]
  0009c	8b 4d 08	 mov	 ecx, DWORD PTR ___that$[ebp]
  0009f	8b 51 28	 mov	 edx, DWORD PTR [ecx+40]
  000a2	89 50 28	 mov	 DWORD PTR [eax+40], edx
  000a5	8b 45 f0	 mov	 eax, DWORD PTR _this$[ebp]
  000a8	8b 4d 08	 mov	 ecx, DWORD PTR ___that$[ebp]
  000ab	8b 51 2c	 mov	 edx, DWORD PTR [ecx+44]
  000ae	89 50 2c	 mov	 DWORD PTR [eax+44], edx
  000b1	c7 45 fc ff ff
	ff ff		 mov	 DWORD PTR __$EHRec$[ebp+8], -1
  000b8	8b 45 f0	 mov	 eax, DWORD PTR _this$[ebp]
  000bb	8b 4d f4	 mov	 ecx, DWORD PTR __$EHRec$[ebp]
  000be	64 89 0d 00 00
	00 00		 mov	 DWORD PTR fs:__except_list, ecx
  000c5	8b e5		 mov	 esp, ebp
  000c7	5d		 pop	 ebp
  000c8	c2 04 00	 ret	 4
_TEXT	ENDS
;	COMDAT text$x
text$x	SEGMENT
$L202486:
  00000	8b 4d f0	 mov	 ecx, DWORD PTR _this$[ebp]
  00003	83 c1 1c	 add	 ecx, 28			; 0000001cH
  00006	ff 25 00 00 00
	00		 jmp	 DWORD PTR __imp_??1?$CStringT@DV?$StrTraitMFC_DLL@DV?$ChTraitsCRT@D@ATL@@@@@ATL@@QAE@XZ
__ehhandler$??0SepWindowData@@QAE@ABU0@@Z:
  0000c	b8 00 00 00 00	 mov	 eax, OFFSET FLAT:$T202489
  00011	e9 00 00 00 00	 jmp	 ___CxxFrameHandler
text$x	ENDS
??0SepWindowData@@QAE@ABU0@@Z ENDP			; SepWindowData::SepWindowData
PUBLIC	?GetWindowRect@CWnd@@QBEXPAUtagRECT@@@Z		; CWnd::GetWindowRect
PUBLIC	?SetMinConstrant@CHostWnd@@QAEXHH@Z		; CHostWnd::SetMinConstrant
PUBLIC	?SetMainWnd@CHostWnd@@QAEXH@Z			; CHostWnd::SetMainWnd
PUBLIC	?SetName@CHostWnd@@QAEXV?$basic_string@DU?$char_traits@D@std@@V?$allocator@D@2@@std@@@Z ; CHostWnd::SetName
PUBLIC	?SetResizable@CHostWnd@@QAEX_N@Z		; CHostWnd::SetResizable
PUBLIC	?SetContent@CHostWnd@@QAEXV?$CStringT@DV?$StrTraitMFC_DLL@DV?$ChTraitsCRT@D@ATL@@@@@ATL@@@Z ; CHostWnd::SetContent
PUBLIC	??1SepWindowData@@QAE@XZ			; SepWindowData::~SepWindowData
PUBLIC	??BCRect@@QAEPAUtagRECT@@XZ			; CRect::operator tagRECT *
PUBLIC	??2CObject@@SGPAXI@Z				; CObject::operator new
PUBLIC	??3CObject@@SGXPAX@Z				; CObject::operator delete
PUBLIC	?push_back@?$vector@PAVCHostWnd@@V?$allocator@PAVCHostWnd@@@std@@@std@@QAEXABQAVCHostWnd@@@Z ; std::vector<CHostWnd *,std::allocator<CHostWnd *> >::push_back
PUBLIC	?MoveWindow@CWnd@@QAEXPBUtagRECT@@H@Z		; CWnd::MoveWindow
EXTRN	??0CHostWnd@@QAE@PAVCWnd@@@Z:NEAR		; CHostWnd::CHostWnd
EXTRN	?HostWindow@CHostWnd@@QAEXPAVCWnd@@_N@Z:NEAR	; CHostWnd::HostWindow
EXTRN	?ShowWindow@CWnd@@QAEHH@Z:NEAR			; CWnd::ShowWindow
EXTRN	__imp_??B?$CSimpleStringT@D$00@ATL@@QBEPBDXZ:NEAR
EXTRN	__imp_??0?$CStringT@DV?$StrTraitMFC_DLL@DV?$ChTraitsCRT@D@ATL@@@@@ATL@@QAE@XZ:NEAR
EXTRN	??0CMainHostWnd@@QAE@PAVCWnd@@@Z:NEAR		; CMainHostWnd::CMainHostWnd
EXTRN	__imp_?Format@?$CStringT@DV?$StrTraitMFC_DLL@DV?$ChTraitsCRT@D@ATL@@@@@ATL@@QAAXPBDZZ:NEAR
EXTRN	__imp_??0?$basic_string@DU?$char_traits@D@std@@V?$allocator@D@2@@std@@QAE@PBD@Z:NEAR
EXTRN	?AfxGetMainWindow@@YAPAVCWnd@@XZ:NEAR		; AfxGetMainWindow
EXTRN	?MoveWindow@CWnd@@QAEXHHHHH@Z:NEAR		; CWnd::MoveWindow
xdata$x	SEGMENT
$T202515 DD	0ffffffffH
	DD	FLAT:$L202506
	DD	00H
	DD	FLAT:$L202507
	DD	00H
	DD	FLAT:$L202508
	DD	00H
	DD	FLAT:$L202511
$T202513 DD	019930520H
	DD	04H
	DD	FLAT:$T202515
	DD	2 DUP(00H)
	DD	2 DUP(00H)
; Function compile flags: /Odt
xdata$x	ENDS
_TEXT	SEGMENT
tv218 = -64						; size = 4
tv216 = -60						; size = 4
tv83 = -56						; size = 4
tv74 = -52						; size = 4
_this$ = -48						; size = 4
$T202505 = -44						; size = 4
$T202504 = -40						; size = 4
$T202501 = -36						; size = 4
$T202500 = -32						; size = 4
$T202497 = -28						; size = 4
$T202496 = -24						; size = 4
_str$199824 = -20					; size = 4
_pHostWnd$ = -16					; size = 4
__$EHRec$ = -12						; size = 12
_data$ = 8						; size = 48
?AttachMovingWnd@CHostWndMgr@@QAEXUSepWindowData@@@Z PROC NEAR ; CHostWndMgr::AttachMovingWnd
; _this$ = ecx

; 53   : {

  00250	55		 push	 ebp
  00251	8b ec		 mov	 ebp, esp
  00253	6a ff		 push	 -1
  00255	68 00 00 00 00	 push	 __ehhandler$?AttachMovingWnd@CHostWndMgr@@QAEXUSepWindowData@@@Z
  0025a	64 a1 00 00 00
	00		 mov	 eax, DWORD PTR fs:__except_list
  00260	50		 push	 eax
  00261	64 89 25 00 00
	00 00		 mov	 DWORD PTR fs:__except_list, esp
  00268	83 ec 34	 sub	 esp, 52			; 00000034H
  0026b	89 4d d0	 mov	 DWORD PTR _this$[ebp], ecx
  0026e	c7 45 fc 00 00
	00 00		 mov	 DWORD PTR __$EHRec$[ebp+8], 0

; 54   : 	CHostWnd *pHostWnd = NULL;

  00275	c7 45 f0 00 00
	00 00		 mov	 DWORD PTR _pHostWnd$[ebp], 0

; 55   : 
; 56   : 	if(data.isMain)

  0027c	83 7d 0c 00	 cmp	 DWORD PTR _data$[ebp+4], 0
  00280	74 48		 je	 SHORT $L199805

; 57   : 	{
; 58   : 		pHostWnd = new CMainHostWnd();

  00282	68 50 02 00 00	 push	 592			; 00000250H
  00287	e8 00 00 00 00	 call	 ??2CObject@@SGPAXI@Z	; CObject::operator new
  0028c	89 45 e4	 mov	 DWORD PTR $T202497[ebp], eax
  0028f	c6 45 fc 01	 mov	 BYTE PTR __$EHRec$[ebp+8], 1
  00293	83 7d e4 00	 cmp	 DWORD PTR $T202497[ebp], 0
  00297	74 0f		 je	 SHORT $L202498
  00299	6a 00		 push	 0
  0029b	8b 4d e4	 mov	 ecx, DWORD PTR $T202497[ebp]
  0029e	e8 00 00 00 00	 call	 ??0CMainHostWnd@@QAE@PAVCWnd@@@Z ; CMainHostWnd::CMainHostWnd
  002a3	89 45 cc	 mov	 DWORD PTR tv74[ebp], eax
  002a6	eb 07		 jmp	 SHORT $L202499
$L202498:
  002a8	c7 45 cc 00 00
	00 00		 mov	 DWORD PTR tv74[ebp], 0
$L202499:
  002af	8b 45 cc	 mov	 eax, DWORD PTR tv74[ebp]
  002b2	89 45 e8	 mov	 DWORD PTR $T202496[ebp], eax
  002b5	c6 45 fc 00	 mov	 BYTE PTR __$EHRec$[ebp+8], 0
  002b9	8b 4d e8	 mov	 ecx, DWORD PTR $T202496[ebp]
  002bc	89 4d f0	 mov	 DWORD PTR _pHostWnd$[ebp], ecx

; 59   : 		m_pMainWnd = pHostWnd;//data.pWnd;

  002bf	8b 55 d0	 mov	 edx, DWORD PTR _this$[ebp]
  002c2	8b 45 f0	 mov	 eax, DWORD PTR _pHostWnd$[ebp]
  002c5	89 42 3c	 mov	 DWORD PTR [edx+60], eax

; 60   : 	}
; 61   : 	else

  002c8	eb 3d		 jmp	 SHORT $L199810
$L199805:

; 62   : 		pHostWnd = new CHostWnd();

  002ca	68 34 02 00 00	 push	 564			; 00000234H
  002cf	e8 00 00 00 00	 call	 ??2CObject@@SGPAXI@Z	; CObject::operator new
  002d4	89 45 dc	 mov	 DWORD PTR $T202501[ebp], eax
  002d7	c6 45 fc 02	 mov	 BYTE PTR __$EHRec$[ebp+8], 2
  002db	83 7d dc 00	 cmp	 DWORD PTR $T202501[ebp], 0
  002df	74 0f		 je	 SHORT $L202502
  002e1	6a 00		 push	 0
  002e3	8b 4d dc	 mov	 ecx, DWORD PTR $T202501[ebp]
  002e6	e8 00 00 00 00	 call	 ??0CHostWnd@@QAE@PAVCWnd@@@Z ; CHostWnd::CHostWnd
  002eb	89 45 c8	 mov	 DWORD PTR tv83[ebp], eax
  002ee	eb 07		 jmp	 SHORT $L202503
$L202502:
  002f0	c7 45 c8 00 00
	00 00		 mov	 DWORD PTR tv83[ebp], 0
$L202503:
  002f7	8b 4d c8	 mov	 ecx, DWORD PTR tv83[ebp]
  002fa	89 4d e0	 mov	 DWORD PTR $T202500[ebp], ecx
  002fd	c6 45 fc 00	 mov	 BYTE PTR __$EHRec$[ebp+8], 0
  00301	8b 55 e0	 mov	 edx, DWORD PTR $T202500[ebp]
  00304	89 55 f0	 mov	 DWORD PTR _pHostWnd$[ebp], edx
$L199810:

; 63   : 
; 64   : 	pHostWnd->SetMainWnd(data.isMain);

  00307	8b 45 0c	 mov	 eax, DWORD PTR _data$[ebp+4]
  0030a	50		 push	 eax
  0030b	8b 4d f0	 mov	 ecx, DWORD PTR _pHostWnd$[ebp]
  0030e	e8 00 00 00 00	 call	 ?SetMainWnd@CHostWnd@@QAEXH@Z ; CHostWnd::SetMainWnd

; 65   : //	pHostWnd->SetBackGround(strBorder);
; 66   : 	pHostWnd->SetResizable(data.isResizable);

  00313	83 7d 10 00	 cmp	 DWORD PTR _data$[ebp+8], 0
  00317	0f 95 c1	 setne	 cl
  0031a	51		 push	 ecx
  0031b	8b 4d f0	 mov	 ecx, DWORD PTR _pHostWnd$[ebp]
  0031e	e8 00 00 00 00	 call	 ?SetResizable@CHostWnd@@QAEX_N@Z ; CHostWnd::SetResizable

; 67   : 	pHostWnd->SetContent(data.strContent);

  00323	51		 push	 ecx
  00324	8b cc		 mov	 ecx, esp
  00326	89 65 d8	 mov	 DWORD PTR $T202504[ebp], esp
  00329	8d 55 28	 lea	 edx, DWORD PTR _data$[ebp+32]
  0032c	52		 push	 edx
  0032d	ff 15 00 00 00
	00		 call	 DWORD PTR __imp_??0?$CStringT@DV?$StrTraitMFC_DLL@DV?$ChTraitsCRT@D@ATL@@@@@ATL@@QAE@ABV01@@Z
  00333	89 45 c4	 mov	 DWORD PTR tv216[ebp], eax
  00336	8b 4d f0	 mov	 ecx, DWORD PTR _pHostWnd$[ebp]
  00339	e8 00 00 00 00	 call	 ?SetContent@CHostWnd@@QAEXV?$CStringT@DV?$StrTraitMFC_DLL@DV?$ChTraitsCRT@D@ATL@@@@@ATL@@@Z ; CHostWnd::SetContent

; 68   : 	pHostWnd->SetMinConstrant(data.nMinX, data.nMinY);

  0033e	8b 45 30	 mov	 eax, DWORD PTR _data$[ebp+40]
  00341	50		 push	 eax
  00342	8b 4d 2c	 mov	 ecx, DWORD PTR _data$[ebp+36]
  00345	51		 push	 ecx
  00346	8b 4d f0	 mov	 ecx, DWORD PTR _pHostWnd$[ebp]
  00349	e8 00 00 00 00	 call	 ?SetMinConstrant@CHostWnd@@QAEXHH@Z ; CHostWnd::SetMinConstrant

; 69   : 
; 70   :     //pHostWnd->Create(IDD_HOST,NULL);
; 71   : 	if(!data.isMain)

  0034e	83 7d 0c 00	 cmp	 DWORD PTR _data$[ebp+4], 0
  00352	75 18		 jne	 SHORT $L199816

; 72   : 		pHostWnd->Create(IDD_HOST,::AfxGetMainWindow());//pHostWnd->SetParent(m_pMainWnd);//::AfxGetMainWindow());

  00354	e8 00 00 00 00	 call	 ?AfxGetMainWindow@@YAPAVCWnd@@XZ ; AfxGetMainWindow
  00359	50		 push	 eax
  0035a	6a 6d		 push	 109			; 0000006dH
  0035c	8b 55 f0	 mov	 edx, DWORD PTR _pHostWnd$[ebp]
  0035f	8b 02		 mov	 eax, DWORD PTR [edx]
  00361	8b 4d f0	 mov	 ecx, DWORD PTR _pHostWnd$[ebp]
  00364	ff 90 38 01 00
	00		 call	 DWORD PTR [eax+312]

; 73   : 	else

  0036a	eb 16		 jmp	 SHORT $L199817
$L199816:

; 74   : 		pHostWnd->Create(IDD_HOST,::AfxGetMainWindow());

  0036c	e8 00 00 00 00	 call	 ?AfxGetMainWindow@@YAPAVCWnd@@XZ ; AfxGetMainWindow
  00371	50		 push	 eax
  00372	6a 6d		 push	 109			; 0000006dH
  00374	8b 4d f0	 mov	 ecx, DWORD PTR _pHostWnd$[ebp]
  00377	8b 11		 mov	 edx, DWORD PTR [ecx]
  00379	8b 4d f0	 mov	 ecx, DWORD PTR _pHostWnd$[ebp]
  0037c	ff 92 38 01 00
	00		 call	 DWORD PTR [edx+312]
$L199817:

; 75   : 
; 76   : 	pHostWnd->SetName(string(data.strName));

  00382	8d 4d 24	 lea	 ecx, DWORD PTR _data$[ebp+28]
  00385	ff 15 00 00 00
	00		 call	 DWORD PTR __imp_??B?$CSimpleStringT@D$00@ATL@@QBEPBDXZ
  0038b	83 ec 1c	 sub	 esp, 28			; 0000001cH
  0038e	8b cc		 mov	 ecx, esp
  00390	89 65 d4	 mov	 DWORD PTR $T202505[ebp], esp
  00393	50		 push	 eax
  00394	ff 15 00 00 00
	00		 call	 DWORD PTR __imp_??0?$basic_string@DU?$char_traits@D@std@@V?$allocator@D@2@@std@@QAE@PBD@Z
  0039a	89 45 c0	 mov	 DWORD PTR tv218[ebp], eax
  0039d	8b 4d f0	 mov	 ecx, DWORD PTR _pHostWnd$[ebp]
  003a0	e8 00 00 00 00	 call	 ?SetName@CHostWnd@@QAEXV?$basic_string@DU?$char_traits@D@std@@V?$allocator@D@2@@std@@@Z ; CHostWnd::SetName

; 77   : 	m_vecHostWnds.push_back(pHostWnd);

  003a5	8d 45 f0	 lea	 eax, DWORD PTR _pHostWnd$[ebp]
  003a8	50		 push	 eax
  003a9	8b 4d d0	 mov	 ecx, DWORD PTR _this$[ebp]
  003ac	83 c1 0c	 add	 ecx, 12			; 0000000cH
  003af	e8 00 00 00 00	 call	 ?push_back@?$vector@PAVCHostWnd@@V?$allocator@PAVCHostWnd@@@std@@@std@@QAEXABQAVCHostWnd@@@Z ; std::vector<CHostWnd *,std::allocator<CHostWnd *> >::push_back

; 78   : 
; 79   : 	m_vecVisibleWnds.push_back(pHostWnd);

  003b4	8d 4d f0	 lea	 ecx, DWORD PTR _pHostWnd$[ebp]
  003b7	51		 push	 ecx
  003b8	8b 4d d0	 mov	 ecx, DWORD PTR _this$[ebp]
  003bb	83 c1 1c	 add	 ecx, 28			; 0000001cH
  003be	e8 00 00 00 00	 call	 ?push_back@?$vector@PAVCHostWnd@@V?$allocator@PAVCHostWnd@@@std@@@std@@QAEXABQAVCHostWnd@@@Z ; std::vector<CHostWnd *,std::allocator<CHostWnd *> >::push_back

; 80   : 	if(data.bHide && !data.isMain)

  003c3	83 7d 34 00	 cmp	 DWORD PTR _data$[ebp+44], 0
  003c7	74 12		 je	 SHORT $L199820
  003c9	83 7d 0c 00	 cmp	 DWORD PTR _data$[ebp+4], 0
  003cd	75 0c		 jne	 SHORT $L199820

; 81   : 		pHostWnd->ShowWindow(SW_HIDE);

  003cf	6a 00		 push	 0
  003d1	8b 4d f0	 mov	 ecx, DWORD PTR _pHostWnd$[ebp]
  003d4	e8 00 00 00 00	 call	 ?ShowWindow@CWnd@@QAEHH@Z ; CWnd::ShowWindow

; 82   : 	else

  003d9	eb 15		 jmp	 SHORT $L199821
$L199820:

; 83   : 	{
; 84   : 		if (!m_bHideWindow)

  003db	8b 55 d0	 mov	 edx, DWORD PTR _this$[ebp]
  003de	0f b6 42 40	 movzx	 eax, BYTE PTR [edx+64]
  003e2	85 c0		 test	 eax, eax
  003e4	75 0a		 jne	 SHORT $L199821

; 85   : 		{
; 86   : 			pHostWnd->ShowWindow(SW_SHOW);

  003e6	6a 05		 push	 5
  003e8	8b 4d f0	 mov	 ecx, DWORD PTR _pHostWnd$[ebp]
  003eb	e8 00 00 00 00	 call	 ?ShowWindow@CWnd@@QAEHH@Z ; CWnd::ShowWindow
$L199821:

; 87   : 		}
; 88   : 	}
; 89   : 
; 90   : 	pHostWnd->HostWindow(data.pWnd, data.isMain);

  003f0	83 7d 0c 00	 cmp	 DWORD PTR _data$[ebp+4], 0
  003f4	0f 95 c1	 setne	 cl
  003f7	51		 push	 ecx
  003f8	8b 55 08	 mov	 edx, DWORD PTR _data$[ebp]
  003fb	52		 push	 edx
  003fc	8b 4d f0	 mov	 ecx, DWORD PTR _pHostWnd$[ebp]
  003ff	e8 00 00 00 00	 call	 ?HostWindow@CHostWnd@@QAEXPAVCWnd@@_N@Z ; CHostWnd::HostWindow

; 91   : 	pHostWnd->MoveWindow(data.rc);

  00404	6a 01		 push	 1
  00406	8d 4d 14	 lea	 ecx, DWORD PTR _data$[ebp+12]
  00409	e8 00 00 00 00	 call	 ??BCRect@@QAEPAUtagRECT@@XZ ; CRect::operator tagRECT *
  0040e	50		 push	 eax
  0040f	8b 4d f0	 mov	 ecx, DWORD PTR _pHostWnd$[ebp]
  00412	e8 00 00 00 00	 call	 ?MoveWindow@CWnd@@QAEXPBUtagRECT@@H@Z ; CWnd::MoveWindow

; 92   : 
; 93   : 
; 94   : 	if(data.isMain)

  00417	83 7d 0c 00	 cmp	 DWORD PTR _data$[ebp+4], 0
  0041b	74 5e		 je	 SHORT $L199823

; 95   : 	{
; 96   : 		AfxGetMainWindow()->MoveWindow(data.rc.left, data.rc.top, 0,0);

  0041d	6a 01		 push	 1
  0041f	6a 00		 push	 0
  00421	6a 00		 push	 0
  00423	8b 45 18	 mov	 eax, DWORD PTR _data$[ebp+16]
  00426	50		 push	 eax
  00427	8b 4d 14	 mov	 ecx, DWORD PTR _data$[ebp+12]
  0042a	51		 push	 ecx
  0042b	e8 00 00 00 00	 call	 ?AfxGetMainWindow@@YAPAVCWnd@@XZ ; AfxGetMainWindow
  00430	8b c8		 mov	 ecx, eax
  00432	e8 00 00 00 00	 call	 ?MoveWindow@CWnd@@QAEXHHHHH@Z ; CWnd::MoveWindow

; 97   : 		CString str;

  00437	8d 4d ec	 lea	 ecx, DWORD PTR _str$199824[ebp]
  0043a	ff 15 00 00 00
	00		 call	 DWORD PTR __imp_??0?$CStringT@DV?$StrTraitMFC_DLL@DV?$ChTraitsCRT@D@ATL@@@@@ATL@@QAE@XZ
  00440	c6 45 fc 03	 mov	 BYTE PTR __$EHRec$[ebp+8], 3

; 98   : 		str.Format("%d,%d", data.rc.left, data.rc.top);

  00444	8b 55 18	 mov	 edx, DWORD PTR _data$[ebp+16]
  00447	52		 push	 edx
  00448	8b 45 14	 mov	 eax, DWORD PTR _data$[ebp+12]
  0044b	50		 push	 eax
  0044c	68 00 00 00 00	 push	 OFFSET FLAT:$SG199825
  00451	8d 4d ec	 lea	 ecx, DWORD PTR _str$199824[ebp]
  00454	51		 push	 ecx
  00455	ff 15 00 00 00
	00		 call	 DWORD PTR __imp_?Format@?$CStringT@DV?$StrTraitMFC_DLL@DV?$ChTraitsCRT@D@ATL@@@@@ATL@@QAAXPBDZZ
  0045b	83 c4 10	 add	 esp, 16			; 00000010H

; 99   : 		AfxGetMainWindow()->GetWindowRect(&data.rc);

  0045e	8d 55 14	 lea	 edx, DWORD PTR _data$[ebp+12]
  00461	52		 push	 edx
  00462	e8 00 00 00 00	 call	 ?AfxGetMainWindow@@YAPAVCWnd@@XZ ; AfxGetMainWindow
  00467	8b c8		 mov	 ecx, eax
  00469	e8 00 00 00 00	 call	 ?GetWindowRect@CWnd@@QBEXPAUtagRECT@@@Z ; CWnd::GetWindowRect

; 100  : 		//if(AfxGetMainWindow()->IsWindowVisible())
; 101  : 		//AfxMessageBox(str);
; 102  : 	}

  0046e	c6 45 fc 00	 mov	 BYTE PTR __$EHRec$[ebp+8], 0
  00472	8d 4d ec	 lea	 ecx, DWORD PTR _str$199824[ebp]
  00475	ff 15 00 00 00
	00		 call	 DWORD PTR __imp_??1?$CStringT@DV?$StrTraitMFC_DLL@DV?$ChTraitsCRT@D@ATL@@@@@ATL@@QAE@XZ
$L199823:

; 103  : }

  0047b	c7 45 fc ff ff
	ff ff		 mov	 DWORD PTR __$EHRec$[ebp+8], -1
  00482	8d 4d 08	 lea	 ecx, DWORD PTR _data$[ebp]
  00485	e8 00 00 00 00	 call	 ??1SepWindowData@@QAE@XZ
  0048a	8b 4d f4	 mov	 ecx, DWORD PTR __$EHRec$[ebp]
  0048d	64 89 0d 00 00
	00 00		 mov	 DWORD PTR fs:__except_list, ecx
  00494	8b e5		 mov	 esp, ebp
  00496	5d		 pop	 ebp
  00497	c2 30 00	 ret	 48			; 00000030H
_TEXT	ENDS
text$x	SEGMENT
$L202506:
  00065	8d 4d 08	 lea	 ecx, DWORD PTR _data$[ebp]
  00068	e9 00 00 00 00	 jmp	 ??1SepWindowData@@QAE@XZ
$L202507:
  0006d	8b 45 e4	 mov	 eax, DWORD PTR $T202497[ebp]
  00070	50		 push	 eax
  00071	e8 00 00 00 00	 call	 ??3CObject@@SGXPAX@Z	; CObject::operator delete
  00076	c3		 ret	 0
$L202508:
  00077	8b 45 dc	 mov	 eax, DWORD PTR $T202501[ebp]
  0007a	50		 push	 eax
  0007b	e8 00 00 00 00	 call	 ??3CObject@@SGXPAX@Z	; CObject::operator delete
  00080	c3		 ret	 0
$L202511:
  00081	8d 4d ec	 lea	 ecx, DWORD PTR _str$199824[ebp]
  00084	ff 25 00 00 00
	00		 jmp	 DWORD PTR __imp_??1?$CStringT@DV?$StrTraitMFC_DLL@DV?$ChTraitsCRT@D@ATL@@@@@ATL@@QAE@XZ
__ehhandler$?AttachMovingWnd@CHostWndMgr@@QAEXUSepWindowData@@@Z:
  0008a	b8 00 00 00 00	 mov	 eax, OFFSET FLAT:$T202513
  0008f	e9 00 00 00 00	 jmp	 ___CxxFrameHandler
text$x	ENDS
?AttachMovingWnd@CHostWndMgr@@QAEXUSepWindowData@@@Z ENDP ; CHostWndMgr::AttachMovingWnd
; Function compile flags: /Odt
; File d:\boxgit\playbox\playbox\dev\prj\playbox\src\layoutmgr\seperatemode\hostwnd.h
;	COMDAT ?SetMinConstrant@CHostWnd@@QAEXHH@Z
_TEXT	SEGMENT
_this$ = -4						; size = 4
_nx$ = 8						; size = 4
_ny$ = 12						; size = 4
?SetMinConstrant@CHostWnd@@QAEXHH@Z PROC NEAR		; CHostWnd::SetMinConstrant, COMDAT
; _this$ = ecx

; 64   : 	void	SetMinConstrant(int nx, int ny){m_nMinCx = nx; m_nMinCy = ny;};

  00000	55		 push	 ebp
  00001	8b ec		 mov	 ebp, esp
  00003	51		 push	 ecx
  00004	89 4d fc	 mov	 DWORD PTR _this$[ebp], ecx
  00007	8b 45 fc	 mov	 eax, DWORD PTR _this$[ebp]
  0000a	8b 4d 08	 mov	 ecx, DWORD PTR _nx$[ebp]
  0000d	89 88 08 01 00
	00		 mov	 DWORD PTR [eax+264], ecx
  00013	8b 55 fc	 mov	 edx, DWORD PTR _this$[ebp]
  00016	8b 45 0c	 mov	 eax, DWORD PTR _ny$[ebp]
  00019	89 82 0c 01 00
	00		 mov	 DWORD PTR [edx+268], eax
  0001f	8b e5		 mov	 esp, ebp
  00021	5d		 pop	 ebp
  00022	c2 08 00	 ret	 8
?SetMinConstrant@CHostWnd@@QAEXHH@Z ENDP		; CHostWnd::SetMinConstrant
; Function compile flags: /Odt
_TEXT	ENDS
;	COMDAT ?SetMainWnd@CHostWnd@@QAEXH@Z
_TEXT	SEGMENT
_this$ = -4						; size = 4
_isMain$ = 8						; size = 4
?SetMainWnd@CHostWnd@@QAEXH@Z PROC NEAR			; CHostWnd::SetMainWnd, COMDAT
; _this$ = ecx

; 68   : 	void	SetMainWnd(BOOL isMain){m_isMainWnd = isMain;};

  00000	55		 push	 ebp
  00001	8b ec		 mov	 ebp, esp
  00003	51		 push	 ecx
  00004	89 4d fc	 mov	 DWORD PTR _this$[ebp], ecx
  00007	8b 45 fc	 mov	 eax, DWORD PTR _this$[ebp]
  0000a	8b 4d 08	 mov	 ecx, DWORD PTR _isMain$[ebp]
  0000d	89 88 80 00 00
	00		 mov	 DWORD PTR [eax+128], ecx
  00013	8b e5		 mov	 esp, ebp
  00015	5d		 pop	 ebp
  00016	c2 04 00	 ret	 4
?SetMainWnd@CHostWnd@@QAEXH@Z ENDP			; CHostWnd::SetMainWnd
_TEXT	ENDS
EXTRN	__imp_??1?$basic_string@DU?$char_traits@D@std@@V?$allocator@D@2@@std@@QAE@XZ:NEAR
EXTRN	__imp_??4?$basic_string@DU?$char_traits@D@std@@V?$allocator@D@2@@std@@QAEAAV01@ABV01@@Z:NEAR
;	COMDAT xdata$x
xdata$x	SEGMENT
$T202525 DD	0ffffffffH
	DD	FLAT:$L202521
$T202523 DD	019930520H
	DD	01H
	DD	FLAT:$T202525
	DD	2 DUP(00H)
	DD	2 DUP(00H)
; Function compile flags: /Odt
xdata$x	ENDS
;	COMDAT ?SetName@CHostWnd@@QAEXV?$basic_string@DU?$char_traits@D@std@@V?$allocator@D@2@@std@@@Z
_TEXT	SEGMENT
_this$ = -16						; size = 4
__$EHRec$ = -12						; size = 12
_name$ = 8						; size = 28
?SetName@CHostWnd@@QAEXV?$basic_string@DU?$char_traits@D@std@@V?$allocator@D@2@@std@@@Z PROC NEAR ; CHostWnd::SetName, COMDAT
; _this$ = ecx

; 69   : 	void	SetName(string name){m_strName = name;};

  00000	55		 push	 ebp
  00001	8b ec		 mov	 ebp, esp
  00003	6a ff		 push	 -1
  00005	68 00 00 00 00	 push	 __ehhandler$?SetName@CHostWnd@@QAEXV?$basic_string@DU?$char_traits@D@std@@V?$allocator@D@2@@std@@@Z
  0000a	64 a1 00 00 00
	00		 mov	 eax, DWORD PTR fs:__except_list
  00010	50		 push	 eax
  00011	64 89 25 00 00
	00 00		 mov	 DWORD PTR fs:__except_list, esp
  00018	51		 push	 ecx
  00019	89 4d f0	 mov	 DWORD PTR _this$[ebp], ecx
  0001c	c7 45 fc 00 00
	00 00		 mov	 DWORD PTR __$EHRec$[ebp+8], 0
  00023	8d 45 08	 lea	 eax, DWORD PTR _name$[ebp]
  00026	50		 push	 eax
  00027	8b 4d f0	 mov	 ecx, DWORD PTR _this$[ebp]
  0002a	81 c1 cc 00 00
	00		 add	 ecx, 204		; 000000ccH
  00030	ff 15 00 00 00
	00		 call	 DWORD PTR __imp_??4?$basic_string@DU?$char_traits@D@std@@V?$allocator@D@2@@std@@QAEAAV01@ABV01@@Z
  00036	c7 45 fc ff ff
	ff ff		 mov	 DWORD PTR __$EHRec$[ebp+8], -1
  0003d	8d 4d 08	 lea	 ecx, DWORD PTR _name$[ebp]
  00040	ff 15 00 00 00
	00		 call	 DWORD PTR __imp_??1?$basic_string@DU?$char_traits@D@std@@V?$allocator@D@2@@std@@QAE@XZ
  00046	8b 4d f4	 mov	 ecx, DWORD PTR __$EHRec$[ebp]
  00049	64 89 0d 00 00
	00 00		 mov	 DWORD PTR fs:__except_list, ecx
  00050	8b e5		 mov	 esp, ebp
  00052	5d		 pop	 ebp
  00053	c2 1c 00	 ret	 28			; 0000001cH
_TEXT	ENDS
;	COMDAT text$x
text$x	SEGMENT
$L202521:
  00000	8d 4d 08	 lea	 ecx, DWORD PTR _name$[ebp]
  00003	ff 25 00 00 00
	00		 jmp	 DWORD PTR __imp_??1?$basic_string@DU?$char_traits@D@std@@V?$allocator@D@2@@std@@QAE@XZ
__ehhandler$?SetName@CHostWnd@@QAEXV?$basic_string@DU?$char_traits@D@std@@V?$allocator@D@2@@std@@@Z:
  00009	b8 00 00 00 00	 mov	 eax, OFFSET FLAT:$T202523
  0000e	e9 00 00 00 00	 jmp	 ___CxxFrameHandler
text$x	ENDS
?SetName@CHostWnd@@QAEXV?$basic_string@DU?$char_traits@D@std@@V?$allocator@D@2@@std@@@Z ENDP ; CHostWnd::SetName
; Function compile flags: /Odt
;	COMDAT ?SetResizable@CHostWnd@@QAEX_N@Z
_TEXT	SEGMENT
_this$ = -4						; size = 4
_b$ = 8							; size = 1
?SetResizable@CHostWnd@@QAEX_N@Z PROC NEAR		; CHostWnd::SetResizable, COMDAT
; _this$ = ecx

; 71   : 	void	SetResizable(bool b){m_bMovable = b;};

  00000	55		 push	 ebp
  00001	8b ec		 mov	 ebp, esp
  00003	51		 push	 ecx
  00004	89 4d fc	 mov	 DWORD PTR _this$[ebp], ecx
  00007	0f b6 45 08	 movzx	 eax, BYTE PTR _b$[ebp]
  0000b	8b 4d fc	 mov	 ecx, DWORD PTR _this$[ebp]
  0000e	89 41 7c	 mov	 DWORD PTR [ecx+124], eax
  00011	8b e5		 mov	 esp, ebp
  00013	5d		 pop	 ebp
  00014	c2 04 00	 ret	 4
?SetResizable@CHostWnd@@QAEX_N@Z ENDP			; CHostWnd::SetResizable
_TEXT	ENDS
EXTRN	__imp_??4?$CStringT@DV?$StrTraitMFC_DLL@DV?$ChTraitsCRT@D@ATL@@@@@ATL@@QAEAAV01@ABV01@@Z:NEAR
;	COMDAT xdata$x
xdata$x	SEGMENT
$T202536 DD	0ffffffffH
	DD	FLAT:$L202532
$T202534 DD	019930520H
	DD	01H
	DD	FLAT:$T202536
	DD	2 DUP(00H)
	DD	2 DUP(00H)
; Function compile flags: /Odt
xdata$x	ENDS
;	COMDAT ?SetContent@CHostWnd@@QAEXV?$CStringT@DV?$StrTraitMFC_DLL@DV?$ChTraitsCRT@D@ATL@@@@@ATL@@@Z
_TEXT	SEGMENT
_this$ = -16						; size = 4
__$EHRec$ = -12						; size = 12
_strContent$ = 8					; size = 4
?SetContent@CHostWnd@@QAEXV?$CStringT@DV?$StrTraitMFC_DLL@DV?$ChTraitsCRT@D@ATL@@@@@ATL@@@Z PROC NEAR ; CHostWnd::SetContent, COMDAT
; _this$ = ecx

; 74   : 	void	SetContent(CString strContent){m_strContent = strContent;};

  00000	55		 push	 ebp
  00001	8b ec		 mov	 ebp, esp
  00003	6a ff		 push	 -1
  00005	68 00 00 00 00	 push	 __ehhandler$?SetContent@CHostWnd@@QAEXV?$CStringT@DV?$StrTraitMFC_DLL@DV?$ChTraitsCRT@D@ATL@@@@@ATL@@@Z
  0000a	64 a1 00 00 00
	00		 mov	 eax, DWORD PTR fs:__except_list
  00010	50		 push	 eax
  00011	64 89 25 00 00
	00 00		 mov	 DWORD PTR fs:__except_list, esp
  00018	51		 push	 ecx
  00019	89 4d f0	 mov	 DWORD PTR _this$[ebp], ecx
  0001c	c7 45 fc 00 00
	00 00		 mov	 DWORD PTR __$EHRec$[ebp+8], 0
  00023	8d 45 08	 lea	 eax, DWORD PTR _strContent$[ebp]
  00026	50		 push	 eax
  00027	8b 4d f0	 mov	 ecx, DWORD PTR _this$[ebp]
  0002a	81 c1 04 01 00
	00		 add	 ecx, 260		; 00000104H
  00030	ff 15 00 00 00
	00		 call	 DWORD PTR __imp_??4?$CStringT@DV?$StrTraitMFC_DLL@DV?$ChTraitsCRT@D@ATL@@@@@ATL@@QAEAAV01@ABV01@@Z
  00036	c7 45 fc ff ff
	ff ff		 mov	 DWORD PTR __$EHRec$[ebp+8], -1
  0003d	8d 4d 08	 lea	 ecx, DWORD PTR _strContent$[ebp]
  00040	ff 15 00 00 00
	00		 call	 DWORD PTR __imp_??1?$CStringT@DV?$StrTraitMFC_DLL@DV?$ChTraitsCRT@D@ATL@@@@@ATL@@QAE@XZ
  00046	8b 4d f4	 mov	 ecx, DWORD PTR __$EHRec$[ebp]
  00049	64 89 0d 00 00
	00 00		 mov	 DWORD PTR fs:__except_list, ecx
  00050	8b e5		 mov	 esp, ebp
  00052	5d		 pop	 ebp
  00053	c2 04 00	 ret	 4
_TEXT	ENDS
;	COMDAT text$x
text$x	SEGMENT
$L202532:
  00000	8d 4d 08	 lea	 ecx, DWORD PTR _strContent$[ebp]
  00003	ff 25 00 00 00
	00		 jmp	 DWORD PTR __imp_??1?$CStringT@DV?$StrTraitMFC_DLL@DV?$ChTraitsCRT@D@ATL@@@@@ATL@@QAE@XZ
__ehhandler$?SetContent@CHostWnd@@QAEXV?$CStringT@DV?$StrTraitMFC_DLL@DV?$ChTraitsCRT@D@ATL@@@@@ATL@@@Z:
  00009	b8 00 00 00 00	 mov	 eax, OFFSET FLAT:$T202534
  0000e	e9 00 00 00 00	 jmp	 ___CxxFrameHandler
text$x	ENDS
?SetContent@CHostWnd@@QAEXV?$CStringT@DV?$StrTraitMFC_DLL@DV?$ChTraitsCRT@D@ATL@@@@@ATL@@@Z ENDP ; CHostWnd::SetContent
; Function compile flags: /Odt
;	COMDAT ??1SepWindowData@@QAE@XZ
_TEXT	SEGMENT
_this$ = -4						; size = 4
??1SepWindowData@@QAE@XZ PROC NEAR			; SepWindowData::~SepWindowData, COMDAT
; _this$ = ecx
  00000	55		 push	 ebp
  00001	8b ec		 mov	 ebp, esp
  00003	51		 push	 ecx
  00004	89 4d fc	 mov	 DWORD PTR _this$[ebp], ecx
  00007	8b 4d fc	 mov	 ecx, DWORD PTR _this$[ebp]
  0000a	83 c1 20	 add	 ecx, 32			; 00000020H
  0000d	ff 15 00 00 00
	00		 call	 DWORD PTR __imp_??1?$CStringT@DV?$StrTraitMFC_DLL@DV?$ChTraitsCRT@D@ATL@@@@@ATL@@QAE@XZ
  00013	8b 4d fc	 mov	 ecx, DWORD PTR _this$[ebp]
  00016	83 c1 1c	 add	 ecx, 28			; 0000001cH
  00019	ff 15 00 00 00
	00		 call	 DWORD PTR __imp_??1?$CStringT@DV?$StrTraitMFC_DLL@DV?$ChTraitsCRT@D@ATL@@@@@ATL@@QAE@XZ
  0001f	8b e5		 mov	 esp, ebp
  00021	5d		 pop	 ebp
  00022	c3		 ret	 0
??1SepWindowData@@QAE@XZ ENDP				; SepWindowData::~SepWindowData
_TEXT	ENDS
PUBLIC	?GetHostWnds@CHostWndMgr@@QAEPAV?$vector@PAVCHostWnd@@V?$allocator@PAVCHostWnd@@@std@@@std@@XZ ; CHostWndMgr::GetHostWnds
; Function compile flags: /Odt
; File d:\boxgit\playbox\playbox\dev\prj\playbox\src\layoutmgr\seperatemode\hostwndmgr.cpp
_TEXT	SEGMENT
_this$ = -4						; size = 4
?GetHostWnds@CHostWndMgr@@QAEPAV?$vector@PAVCHostWnd@@V?$allocator@PAVCHostWnd@@@std@@@std@@XZ PROC NEAR ; CHostWndMgr::GetHostWnds
; _this$ = ecx

; 106  : {

  004a0	55		 push	 ebp
  004a1	8b ec		 mov	 ebp, esp
  004a3	51		 push	 ecx
  004a4	89 4d fc	 mov	 DWORD PTR _this$[ebp], ecx

; 107  : 	return &m_vecHostWnds;

  004a7	8b 45 fc	 mov	 eax, DWORD PTR _this$[ebp]
  004aa	83 c0 0c	 add	 eax, 12			; 0000000cH

; 108  : 	/*for(int i = 0 ; i<m_vecHostWnds.size(); i++)
; 109  : 	{
; 110  : 		vecNames.push_back(m_vecHostWnds[i]->GetName());
; 111  : 	}
; 112  : 	*/
; 113  : }

  004ad	8b e5		 mov	 esp, ebp
  004af	5d		 pop	 ebp
  004b0	c3		 ret	 0
?GetHostWnds@CHostWndMgr@@QAEPAV?$vector@PAVCHostWnd@@V?$allocator@PAVCHostWnd@@@std@@@std@@XZ ENDP ; CHostWndMgr::GetHostWnds
_TEXT	ENDS
PUBLIC	?DetachAllMovingWnd@CHostWndMgr@@QAEXXZ		; CHostWndMgr::DetachAllMovingWnd
PUBLIC	??9const_iterator@?$_Tree@V?$_Tmap_traits@PAUHWND__@@UCWndData@@U?$less@PAUHWND__@@@std@@V?$allocator@U?$pair@QAUHWND__@@UCWndData@@@std@@@4@$0A@@std@@@std@@QBE_NABV012@@Z ; std::_Tree<std::_Tmap_traits<HWND__ *,CWndData,std::less<HWND__ *>,std::allocator<std::pair<HWND__ * const,CWndData> >,0> >::const_iterator::operator!=
PUBLIC	??Citerator@?$_Tree@V?$_Tmap_traits@PAUHWND__@@UCWndData@@U?$less@PAUHWND__@@@std@@V?$allocator@U?$pair@QAUHWND__@@UCWndData@@@std@@@4@$0A@@std@@@std@@QBEPAU?$pair@QAUHWND__@@UCWndData@@@2@XZ ; std::_Tree<std::_Tmap_traits<HWND__ *,CWndData,std::less<HWND__ *>,std::allocator<std::pair<HWND__ * const,CWndData> >,0> >::iterator::operator->
PUBLIC	??Eiterator@?$_Tree@V?$_Tmap_traits@PAUHWND__@@UCWndData@@U?$less@PAUHWND__@@@std@@V?$allocator@U?$pair@QAUHWND__@@UCWndData@@@std@@@4@$0A@@std@@@std@@QAE?AV012@H@Z ; std::_Tree<std::_Tmap_traits<HWND__ *,CWndData,std::less<HWND__ *>,std::allocator<std::pair<HWND__ * const,CWndData> >,0> >::iterator::operator++
PUBLIC	?SetParent@CWnd@@QAEPAV1@PAV1@@Z		; CWnd::SetParent
PUBLIC	?begin@?$_Tree@V?$_Tmap_traits@PAUHWND__@@UCWndData@@U?$less@PAUHWND__@@@std@@V?$allocator@U?$pair@QAUHWND__@@UCWndData@@@std@@@4@$0A@@std@@@std@@QAE?AViterator@12@XZ ; std::_Tree<std::_Tmap_traits<HWND__ *,CWndData,std::less<HWND__ *>,std::allocator<std::pair<HWND__ * const,CWndData> >,0> >::begin
PUBLIC	?end@?$_Tree@V?$_Tmap_traits@PAUHWND__@@UCWndData@@U?$less@PAUHWND__@@@std@@V?$allocator@U?$pair@QAUHWND__@@UCWndData@@@std@@@4@$0A@@std@@@std@@QAE?AViterator@12@XZ ; std::_Tree<std::_Tmap_traits<HWND__ *,CWndData,std::less<HWND__ *>,std::allocator<std::pair<HWND__ * const,CWndData> >,0> >::end
PUBLIC	?size@?$vector@PAVCHostWnd@@V?$allocator@PAVCHostWnd@@@std@@@std@@QBEIXZ ; std::vector<CHostWnd *,std::allocator<CHostWnd *> >::size
PUBLIC	??A?$vector@PAVCHostWnd@@V?$allocator@PAVCHostWnd@@@std@@@std@@QAEAAPAVCHostWnd@@I@Z ; std::vector<CHostWnd *,std::allocator<CHostWnd *> >::operator[]
PUBLIC	?clear@?$vector@PAVCHostWnd@@V?$allocator@PAVCHostWnd@@@std@@@std@@QAEXXZ ; std::vector<CHostWnd *,std::allocator<CHostWnd *> >::clear
EXTRN	?DetachWindow@CHostWnd@@QAEXXZ:NEAR		; CHostWnd::DetachWindow
EXTRN	__imp_?YL_Log@@YAXABV?$basic_string@DU?$char_traits@D@std@@V?$allocator@D@2@@std@@H0PBDZZ:NEAR
EXTRN	?GetInstance@CWindowsMover@@SAPAV1@XZ:NEAR	; CWindowsMover::GetInstance
EXTRN	?Clear@CWindowsMover@@QAEXXZ:NEAR		; CWindowsMover::Clear
xdata$x	SEGMENT
$T202573 DD	0ffffffffH
	DD	FLAT:$L202560
	DD	00H
	DD	FLAT:$L202561
	DD	0ffffffffH
	DD	FLAT:$L202562
	DD	02H
	DD	FLAT:$L202563
	DD	0ffffffffH
	DD	FLAT:$L202564
	DD	04H
	DD	FLAT:$L202565
	DD	0ffffffffH
	DD	FLAT:$L202566
	DD	06H
	DD	FLAT:$L202567
	DD	0ffffffffH
	DD	FLAT:$L202568
	DD	08H
	DD	FLAT:$L202569
$T202571 DD	019930520H
	DD	0aH
	DD	FLAT:$T202573
	DD	2 DUP(00H)
	DD	2 DUP(00H)
; Function compile flags: /Odt
xdata$x	ENDS
_TEXT	SEGMENT
tv192 = -344						; size = 4
_this$ = -340						; size = 4
$T202559 = -336						; size = 28
$T202558 = -308						; size = 28
$T202557 = -280						; size = 28
$T202556 = -252						; size = 28
$T202553 = -224						; size = 4
$T202552 = -220						; size = 4
$T202551 = -216						; size = 28
$T202550 = -188						; size = 28
$T202549 = -160						; size = 4
$T202548 = -156						; size = 4
$T202547 = -152						; size = 28
$T202546 = -124						; size = 28
$T202545 = -96						; size = 28
$T202544 = -68						; size = 28
_pHost$199967 = -40					; size = 4
_i$199963 = -36						; size = 4
_d$199938 = -32						; size = 8
_pHost$199843 = -24					; size = 4
_i$199839 = -20						; size = 4
_it$ = -16						; size = 4
__$EHRec$ = -12						; size = 12
?DetachAllMovingWnd@CHostWndMgr@@QAEXXZ PROC NEAR	; CHostWndMgr::DetachAllMovingWnd
; _this$ = ecx

; 116  : {

  004c0	55		 push	 ebp
  004c1	8b ec		 mov	 ebp, esp
  004c3	6a ff		 push	 -1
  004c5	68 00 00 00 00	 push	 __ehhandler$?DetachAllMovingWnd@CHostWndMgr@@QAEXXZ
  004ca	64 a1 00 00 00
	00		 mov	 eax, DWORD PTR fs:__except_list
  004d0	50		 push	 eax
  004d1	64 89 25 00 00
	00 00		 mov	 DWORD PTR fs:__except_list, esp
  004d8	81 ec 4c 01 00
	00		 sub	 esp, 332		; 0000014cH
  004de	89 8d ac fe ff
	ff		 mov	 DWORD PTR _this$[ebp], ecx

; 117  : 	if(m_vecHostWnds.size() == 0)

  004e4	8b 8d ac fe ff
	ff		 mov	 ecx, DWORD PTR _this$[ebp]
  004ea	83 c1 0c	 add	 ecx, 12			; 0000000cH
  004ed	e8 00 00 00 00	 call	 ?size@?$vector@PAVCHostWnd@@V?$allocator@PAVCHostWnd@@@std@@@std@@QBEIXZ ; std::vector<CHostWnd *,std::allocator<CHostWnd *> >::size
  004f2	85 c0		 test	 eax, eax
  004f4	75 05		 jne	 SHORT $L199833

; 118  : 		return ;

  004f6	e9 6e 03 00 00	 jmp	 $L199832
$L199833:

; 119  : 
; 120  : 	YL_Log(STR_LOG_FILE,LOG_DEBUG,"CUIManager","3");	

  004fb	68 00 00 00 00	 push	 OFFSET FLAT:$SG199837
  00500	8d 4d bc	 lea	 ecx, DWORD PTR $T202544[ebp]
  00503	ff 15 00 00 00
	00		 call	 DWORD PTR __imp_??0?$basic_string@DU?$char_traits@D@std@@V?$allocator@D@2@@std@@QAE@PBD@Z
  00509	c7 45 fc 00 00
	00 00		 mov	 DWORD PTR __$EHRec$[ebp+8], 0
  00510	68 00 00 00 00	 push	 OFFSET FLAT:$SG199838
  00515	8d 4d a0	 lea	 ecx, DWORD PTR $T202545[ebp]
  00518	ff 15 00 00 00
	00		 call	 DWORD PTR __imp_??0?$basic_string@DU?$char_traits@D@std@@V?$allocator@D@2@@std@@QAE@PBD@Z
  0051e	c6 45 fc 01	 mov	 BYTE PTR __$EHRec$[ebp+8], 1
  00522	68 00 00 00 00	 push	 OFFSET FLAT:$SG199836
  00527	8d 45 bc	 lea	 eax, DWORD PTR $T202544[ebp]
  0052a	50		 push	 eax
  0052b	6a 00		 push	 0
  0052d	8d 4d a0	 lea	 ecx, DWORD PTR $T202545[ebp]
  00530	51		 push	 ecx
  00531	ff 15 00 00 00
	00		 call	 DWORD PTR __imp_?YL_Log@@YAXABV?$basic_string@DU?$char_traits@D@std@@V?$allocator@D@2@@std@@H0PBDZZ
  00537	83 c4 10	 add	 esp, 16			; 00000010H
  0053a	c6 45 fc 00	 mov	 BYTE PTR __$EHRec$[ebp+8], 0
  0053e	8d 4d a0	 lea	 ecx, DWORD PTR $T202545[ebp]
  00541	ff 15 00 00 00
	00		 call	 DWORD PTR __imp_??1?$basic_string@DU?$char_traits@D@std@@V?$allocator@D@2@@std@@QAE@XZ
  00547	c7 45 fc ff ff
	ff ff		 mov	 DWORD PTR __$EHRec$[ebp+8], -1
  0054e	8d 4d bc	 lea	 ecx, DWORD PTR $T202544[ebp]
  00551	ff 15 00 00 00
	00		 call	 DWORD PTR __imp_??1?$basic_string@DU?$char_traits@D@std@@V?$allocator@D@2@@std@@QAE@XZ

; 121  : 	for(int i = 0 ; i<m_vecHostWnds.size(); i++)

  00557	c7 45 ec 00 00
	00 00		 mov	 DWORD PTR _i$199839[ebp], 0
  0055e	eb 09		 jmp	 SHORT $L199840
$L199841:
  00560	8b 55 ec	 mov	 edx, DWORD PTR _i$199839[ebp]
  00563	83 c2 01	 add	 edx, 1
  00566	89 55 ec	 mov	 DWORD PTR _i$199839[ebp], edx
$L199840:
  00569	8b 8d ac fe ff
	ff		 mov	 ecx, DWORD PTR _this$[ebp]
  0056f	83 c1 0c	 add	 ecx, 12			; 0000000cH
  00572	e8 00 00 00 00	 call	 ?size@?$vector@PAVCHostWnd@@V?$allocator@PAVCHostWnd@@@std@@@std@@QBEIXZ ; std::vector<CHostWnd *,std::allocator<CHostWnd *> >::size
  00577	39 45 ec	 cmp	 DWORD PTR _i$199839[ebp], eax
  0057a	73 21		 jae	 SHORT $L199842

; 122  : 	{
; 123  : 		CHostWnd* pHost = (CHostWnd*)m_vecHostWnds[i];

  0057c	8b 45 ec	 mov	 eax, DWORD PTR _i$199839[ebp]
  0057f	50		 push	 eax
  00580	8b 8d ac fe ff
	ff		 mov	 ecx, DWORD PTR _this$[ebp]
  00586	83 c1 0c	 add	 ecx, 12			; 0000000cH
  00589	e8 00 00 00 00	 call	 ??A?$vector@PAVCHostWnd@@V?$allocator@PAVCHostWnd@@@std@@@std@@QAEAAPAVCHostWnd@@I@Z ; std::vector<CHostWnd *,std::allocator<CHostWnd *> >::operator[]
  0058e	8b 08		 mov	 ecx, DWORD PTR [eax]
  00590	89 4d e8	 mov	 DWORD PTR _pHost$199843[ebp], ecx

; 124  : 		pHost->DetachWindow();

  00593	8b 4d e8	 mov	 ecx, DWORD PTR _pHost$199843[ebp]
  00596	e8 00 00 00 00	 call	 ?DetachWindow@CHostWnd@@QAEXXZ ; CHostWnd::DetachWindow

; 125  : 	}

  0059b	eb c3		 jmp	 SHORT $L199841
$L199842:

; 126  : 
; 127  : 	YL_Log(STR_LOG_FILE,LOG_DEBUG,"CUIManager","31");	

  0059d	68 00 00 00 00	 push	 OFFSET FLAT:$SG199848
  005a2	8d 4d 84	 lea	 ecx, DWORD PTR $T202546[ebp]
  005a5	ff 15 00 00 00
	00		 call	 DWORD PTR __imp_??0?$basic_string@DU?$char_traits@D@std@@V?$allocator@D@2@@std@@QAE@PBD@Z
  005ab	c7 45 fc 02 00
	00 00		 mov	 DWORD PTR __$EHRec$[ebp+8], 2
  005b2	68 00 00 00 00	 push	 OFFSET FLAT:$SG199849
  005b7	8d 8d 68 ff ff
	ff		 lea	 ecx, DWORD PTR $T202547[ebp]
  005bd	ff 15 00 00 00
	00		 call	 DWORD PTR __imp_??0?$basic_string@DU?$char_traits@D@std@@V?$allocator@D@2@@std@@QAE@PBD@Z
  005c3	c6 45 fc 03	 mov	 BYTE PTR __$EHRec$[ebp+8], 3
  005c7	68 00 00 00 00	 push	 OFFSET FLAT:$SG199847
  005cc	8d 55 84	 lea	 edx, DWORD PTR $T202546[ebp]
  005cf	52		 push	 edx
  005d0	6a 00		 push	 0
  005d2	8d 85 68 ff ff
	ff		 lea	 eax, DWORD PTR $T202547[ebp]
  005d8	50		 push	 eax
  005d9	ff 15 00 00 00
	00		 call	 DWORD PTR __imp_?YL_Log@@YAXABV?$basic_string@DU?$char_traits@D@std@@V?$allocator@D@2@@std@@H0PBDZZ
  005df	83 c4 10	 add	 esp, 16			; 00000010H
  005e2	c6 45 fc 02	 mov	 BYTE PTR __$EHRec$[ebp+8], 2
  005e6	8d 8d 68 ff ff
	ff		 lea	 ecx, DWORD PTR $T202547[ebp]
  005ec	ff 15 00 00 00
	00		 call	 DWORD PTR __imp_??1?$basic_string@DU?$char_traits@D@std@@V?$allocator@D@2@@std@@QAE@XZ
  005f2	c7 45 fc ff ff
	ff ff		 mov	 DWORD PTR __$EHRec$[ebp+8], -1
  005f9	8d 4d 84	 lea	 ecx, DWORD PTR $T202546[ebp]
  005fc	ff 15 00 00 00
	00		 call	 DWORD PTR __imp_??1?$basic_string@DU?$char_traits@D@std@@V?$allocator@D@2@@std@@QAE@XZ

; 128  : 	map<HWND, CWndData>::iterator it = m_mapContentWnd.begin();

  00602	8d 4d f0	 lea	 ecx, DWORD PTR _it$[ebp]
  00605	51		 push	 ecx
  00606	8b 8d ac fe ff
	ff		 mov	 ecx, DWORD PTR _this$[ebp]
  0060c	e8 00 00 00 00	 call	 ?begin@?$_Tree@V?$_Tmap_traits@PAUHWND__@@UCWndData@@U?$less@PAUHWND__@@@std@@V?$allocator@U?$pair@QAUHWND__@@UCWndData@@@std@@@4@$0A@@std@@@std@@QAE?AViterator@12@XZ ; std::_Tree<std::_Tmap_traits<HWND__ *,CWndData,std::less<HWND__ *>,std::allocator<std::pair<HWND__ * const,CWndData> >,0> >::begin
$L199935:

; 129  : 	while(it != m_mapContentWnd.end())

  00611	8d 95 64 ff ff
	ff		 lea	 edx, DWORD PTR $T202548[ebp]
  00617	52		 push	 edx
  00618	8b 8d ac fe ff
	ff		 mov	 ecx, DWORD PTR _this$[ebp]
  0061e	e8 00 00 00 00	 call	 ?end@?$_Tree@V?$_Tmap_traits@PAUHWND__@@UCWndData@@U?$less@PAUHWND__@@@std@@V?$allocator@U?$pair@QAUHWND__@@UCWndData@@@std@@@4@$0A@@std@@@std@@QAE?AViterator@12@XZ ; std::_Tree<std::_Tmap_traits<HWND__ *,CWndData,std::less<HWND__ *>,std::allocator<std::pair<HWND__ * const,CWndData> >,0> >::end
  00623	50		 push	 eax
  00624	8d 4d f0	 lea	 ecx, DWORD PTR _it$[ebp]
  00627	e8 00 00 00 00	 call	 ??9const_iterator@?$_Tree@V?$_Tmap_traits@PAUHWND__@@UCWndData@@U?$less@PAUHWND__@@@std@@V?$allocator@U?$pair@QAUHWND__@@UCWndData@@@std@@@4@$0A@@std@@@std@@QBE_NABV012@@Z ; std::_Tree<std::_Tmap_traits<HWND__ *,CWndData,std::less<HWND__ *>,std::allocator<std::pair<HWND__ * const,CWndData> >,0> >::const_iterator::operator!=
  0062c	0f b6 c0	 movzx	 eax, al
  0062f	85 c0		 test	 eax, eax
  00631	74 43		 je	 SHORT $L199936

; 130  : 	{
; 131  : 		CWndData d = it->second;

  00633	8d 4d f0	 lea	 ecx, DWORD PTR _it$[ebp]
  00636	e8 00 00 00 00	 call	 ??Citerator@?$_Tree@V?$_Tmap_traits@PAUHWND__@@UCWndData@@U?$less@PAUHWND__@@@std@@V?$allocator@U?$pair@QAUHWND__@@UCWndData@@@std@@@4@$0A@@std@@@std@@QBEPAU?$pair@QAUHWND__@@UCWndData@@@2@XZ ; std::_Tree<std::_Tmap_traits<HWND__ *,CWndData,std::less<HWND__ *>,std::allocator<std::pair<HWND__ * const,CWndData> >,0> >::iterator::operator->
  0063b	8b 48 04	 mov	 ecx, DWORD PTR [eax+4]
  0063e	8b 50 08	 mov	 edx, DWORD PTR [eax+8]
  00641	89 4d e0	 mov	 DWORD PTR _d$199938[ebp], ecx
  00644	89 55 e4	 mov	 DWORD PTR _d$199938[ebp+4], edx

; 132  : 		it->second.pWnd->SetParent(it->second.pParentWnd);

  00647	8d 4d f0	 lea	 ecx, DWORD PTR _it$[ebp]
  0064a	e8 00 00 00 00	 call	 ??Citerator@?$_Tree@V?$_Tmap_traits@PAUHWND__@@UCWndData@@U?$less@PAUHWND__@@@std@@V?$allocator@U?$pair@QAUHWND__@@UCWndData@@@std@@@4@$0A@@std@@@std@@QBEPAU?$pair@QAUHWND__@@UCWndData@@@2@XZ ; std::_Tree<std::_Tmap_traits<HWND__ *,CWndData,std::less<HWND__ *>,std::allocator<std::pair<HWND__ * const,CWndData> >,0> >::iterator::operator->
  0064f	8b 40 08	 mov	 eax, DWORD PTR [eax+8]
  00652	50		 push	 eax
  00653	8d 4d f0	 lea	 ecx, DWORD PTR _it$[ebp]
  00656	e8 00 00 00 00	 call	 ??Citerator@?$_Tree@V?$_Tmap_traits@PAUHWND__@@UCWndData@@U?$less@PAUHWND__@@@std@@V?$allocator@U?$pair@QAUHWND__@@UCWndData@@@std@@@4@$0A@@std@@@std@@QBEPAU?$pair@QAUHWND__@@UCWndData@@@2@XZ ; std::_Tree<std::_Tmap_traits<HWND__ *,CWndData,std::less<HWND__ *>,std::allocator<std::pair<HWND__ * const,CWndData> >,0> >::iterator::operator->
  0065b	8b 48 04	 mov	 ecx, DWORD PTR [eax+4]
  0065e	e8 00 00 00 00	 call	 ?SetParent@CWnd@@QAEPAV1@PAV1@@Z ; CWnd::SetParent

; 133  : 		//it->second.pWnd->SetParent(::AfxGetMainWindow());
; 134  : 		it++;

  00663	6a 00		 push	 0
  00665	8d 8d 60 ff ff
	ff		 lea	 ecx, DWORD PTR $T202549[ebp]
  0066b	51		 push	 ecx
  0066c	8d 4d f0	 lea	 ecx, DWORD PTR _it$[ebp]
  0066f	e8 00 00 00 00	 call	 ??Eiterator@?$_Tree@V?$_Tmap_traits@PAUHWND__@@UCWndData@@U?$less@PAUHWND__@@@std@@V?$allocator@U?$pair@QAUHWND__@@UCWndData@@@std@@@4@$0A@@std@@@std@@QAE?AV012@H@Z ; std::_Tree<std::_Tmap_traits<HWND__ *,CWndData,std::less<HWND__ *>,std::allocator<std::pair<HWND__ * const,CWndData> >,0> >::iterator::operator++

; 135  : 	}

  00674	eb 9b		 jmp	 SHORT $L199935
$L199936:

; 136  : 
; 137  : 	YL_Log(STR_LOG_FILE,LOG_DEBUG,"CUIManager","32");	

  00676	68 00 00 00 00	 push	 OFFSET FLAT:$SG199961
  0067b	8d 8d 44 ff ff
	ff		 lea	 ecx, DWORD PTR $T202550[ebp]
  00681	ff 15 00 00 00
	00		 call	 DWORD PTR __imp_??0?$basic_string@DU?$char_traits@D@std@@V?$allocator@D@2@@std@@QAE@PBD@Z
  00687	c7 45 fc 04 00
	00 00		 mov	 DWORD PTR __$EHRec$[ebp+8], 4
  0068e	68 00 00 00 00	 push	 OFFSET FLAT:$SG199962
  00693	8d 8d 28 ff ff
	ff		 lea	 ecx, DWORD PTR $T202551[ebp]
  00699	ff 15 00 00 00
	00		 call	 DWORD PTR __imp_??0?$basic_string@DU?$char_traits@D@std@@V?$allocator@D@2@@std@@QAE@PBD@Z
  0069f	c6 45 fc 05	 mov	 BYTE PTR __$EHRec$[ebp+8], 5
  006a3	68 00 00 00 00	 push	 OFFSET FLAT:$SG199960
  006a8	8d 95 44 ff ff
	ff		 lea	 edx, DWORD PTR $T202550[ebp]
  006ae	52		 push	 edx
  006af	6a 00		 push	 0
  006b1	8d 85 28 ff ff
	ff		 lea	 eax, DWORD PTR $T202551[ebp]
  006b7	50		 push	 eax
  006b8	ff 15 00 00 00
	00		 call	 DWORD PTR __imp_?YL_Log@@YAXABV?$basic_string@DU?$char_traits@D@std@@V?$allocator@D@2@@std@@H0PBDZZ
  006be	83 c4 10	 add	 esp, 16			; 00000010H
  006c1	c6 45 fc 04	 mov	 BYTE PTR __$EHRec$[ebp+8], 4
  006c5	8d 8d 28 ff ff
	ff		 lea	 ecx, DWORD PTR $T202551[ebp]
  006cb	ff 15 00 00 00
	00		 call	 DWORD PTR __imp_??1?$basic_string@DU?$char_traits@D@std@@V?$allocator@D@2@@std@@QAE@XZ
  006d1	c7 45 fc ff ff
	ff ff		 mov	 DWORD PTR __$EHRec$[ebp+8], -1
  006d8	8d 8d 44 ff ff
	ff		 lea	 ecx, DWORD PTR $T202550[ebp]
  006de	ff 15 00 00 00
	00		 call	 DWORD PTR __imp_??1?$basic_string@DU?$char_traits@D@std@@V?$allocator@D@2@@std@@QAE@XZ

; 138  : 	for(int i = 0 ; i<m_vecHostWnds.size(); i++)

  006e4	c7 45 dc 00 00
	00 00		 mov	 DWORD PTR _i$199963[ebp], 0
  006eb	eb 09		 jmp	 SHORT $L199964
$L199965:
  006ed	8b 4d dc	 mov	 ecx, DWORD PTR _i$199963[ebp]
  006f0	83 c1 01	 add	 ecx, 1
  006f3	89 4d dc	 mov	 DWORD PTR _i$199963[ebp], ecx
$L199964:
  006f6	8b 8d ac fe ff
	ff		 mov	 ecx, DWORD PTR _this$[ebp]
  006fc	83 c1 0c	 add	 ecx, 12			; 0000000cH
  006ff	e8 00 00 00 00	 call	 ?size@?$vector@PAVCHostWnd@@V?$allocator@PAVCHostWnd@@@std@@@std@@QBEIXZ ; std::vector<CHostWnd *,std::allocator<CHostWnd *> >::size
  00704	39 45 dc	 cmp	 DWORD PTR _i$199963[ebp], eax
  00707	73 6a		 jae	 SHORT $L199966

; 139  : 	{
; 140  : 		CHostWnd* pHost = (CHostWnd*)m_vecHostWnds[i];

  00709	8b 55 dc	 mov	 edx, DWORD PTR _i$199963[ebp]
  0070c	52		 push	 edx
  0070d	8b 8d ac fe ff
	ff		 mov	 ecx, DWORD PTR _this$[ebp]
  00713	83 c1 0c	 add	 ecx, 12			; 0000000cH
  00716	e8 00 00 00 00	 call	 ??A?$vector@PAVCHostWnd@@V?$allocator@PAVCHostWnd@@@std@@@std@@QAEAAPAVCHostWnd@@I@Z ; std::vector<CHostWnd *,std::allocator<CHostWnd *> >::operator[]
  0071b	8b 00		 mov	 eax, DWORD PTR [eax]
  0071d	89 45 d8	 mov	 DWORD PTR _pHost$199967[ebp], eax

; 141  : 		pHost->DestroyWindow();

  00720	8b 4d d8	 mov	 ecx, DWORD PTR _pHost$199967[ebp]
  00723	8b 11		 mov	 edx, DWORD PTR [ecx]
  00725	8b 4d d8	 mov	 ecx, DWORD PTR _pHost$199967[ebp]
  00728	ff 52 68	 call	 DWORD PTR [edx+104]

; 142  : 		delete pHost;

  0072b	8b 45 d8	 mov	 eax, DWORD PTR _pHost$199967[ebp]
  0072e	89 85 20 ff ff
	ff		 mov	 DWORD PTR $T202553[ebp], eax
  00734	8b 8d 20 ff ff
	ff		 mov	 ecx, DWORD PTR $T202553[ebp]
  0073a	89 8d 24 ff ff
	ff		 mov	 DWORD PTR $T202552[ebp], ecx
  00740	83 bd 24 ff ff
	ff 00		 cmp	 DWORD PTR $T202552[ebp], 0
  00747	74 1b		 je	 SHORT $L202554
  00749	6a 01		 push	 1
  0074b	8b 95 24 ff ff
	ff		 mov	 edx, DWORD PTR $T202552[ebp]
  00751	8b 02		 mov	 eax, DWORD PTR [edx]
  00753	8b 8d 24 ff ff
	ff		 mov	 ecx, DWORD PTR $T202552[ebp]
  00759	ff 50 04	 call	 DWORD PTR [eax+4]
  0075c	89 85 a8 fe ff
	ff		 mov	 DWORD PTR tv192[ebp], eax
  00762	eb 0a		 jmp	 SHORT $L202555
$L202554:
  00764	c7 85 a8 fe ff
	ff 00 00 00 00	 mov	 DWORD PTR tv192[ebp], 0
$L202555:

; 143  : 	}

  0076e	e9 7a ff ff ff	 jmp	 $L199965
$L199966:

; 144  : 	m_vecHostWnds.clear();

  00773	8b 8d ac fe ff
	ff		 mov	 ecx, DWORD PTR _this$[ebp]
  00779	83 c1 0c	 add	 ecx, 12			; 0000000cH
  0077c	e8 00 00 00 00	 call	 ?clear@?$vector@PAVCHostWnd@@V?$allocator@PAVCHostWnd@@@std@@@std@@QAEXXZ ; std::vector<CHostWnd *,std::allocator<CHostWnd *> >::clear

; 145  : 	YL_Log(STR_LOG_FILE,LOG_DEBUG,"CUIManager","33");	

  00781	68 00 00 00 00	 push	 OFFSET FLAT:$SG199974
  00786	8d 8d 04 ff ff
	ff		 lea	 ecx, DWORD PTR $T202556[ebp]
  0078c	ff 15 00 00 00
	00		 call	 DWORD PTR __imp_??0?$basic_string@DU?$char_traits@D@std@@V?$allocator@D@2@@std@@QAE@PBD@Z
  00792	c7 45 fc 06 00
	00 00		 mov	 DWORD PTR __$EHRec$[ebp+8], 6
  00799	68 00 00 00 00	 push	 OFFSET FLAT:$SG199975
  0079e	8d 8d e8 fe ff
	ff		 lea	 ecx, DWORD PTR $T202557[ebp]
  007a4	ff 15 00 00 00
	00		 call	 DWORD PTR __imp_??0?$basic_string@DU?$char_traits@D@std@@V?$allocator@D@2@@std@@QAE@PBD@Z
  007aa	c6 45 fc 07	 mov	 BYTE PTR __$EHRec$[ebp+8], 7
  007ae	68 00 00 00 00	 push	 OFFSET FLAT:$SG199973
  007b3	8d 8d 04 ff ff
	ff		 lea	 ecx, DWORD PTR $T202556[ebp]
  007b9	51		 push	 ecx
  007ba	6a 00		 push	 0
  007bc	8d 95 e8 fe ff
	ff		 lea	 edx, DWORD PTR $T202557[ebp]
  007c2	52		 push	 edx
  007c3	ff 15 00 00 00
	00		 call	 DWORD PTR __imp_?YL_Log@@YAXABV?$basic_string@DU?$char_traits@D@std@@V?$allocator@D@2@@std@@H0PBDZZ
  007c9	83 c4 10	 add	 esp, 16			; 00000010H
  007cc	c6 45 fc 06	 mov	 BYTE PTR __$EHRec$[ebp+8], 6
  007d0	8d 8d e8 fe ff
	ff		 lea	 ecx, DWORD PTR $T202557[ebp]
  007d6	ff 15 00 00 00
	00		 call	 DWORD PTR __imp_??1?$basic_string@DU?$char_traits@D@std@@V?$allocator@D@2@@std@@QAE@XZ
  007dc	c7 45 fc ff ff
	ff ff		 mov	 DWORD PTR __$EHRec$[ebp+8], -1
  007e3	8d 8d 04 ff ff
	ff		 lea	 ecx, DWORD PTR $T202556[ebp]
  007e9	ff 15 00 00 00
	00		 call	 DWORD PTR __imp_??1?$basic_string@DU?$char_traits@D@std@@V?$allocator@D@2@@std@@QAE@XZ

; 146  : 	CWindowsMover::GetInstance()->Clear();

  007ef	e8 00 00 00 00	 call	 ?GetInstance@CWindowsMover@@SAPAV1@XZ ; CWindowsMover::GetInstance
  007f4	8b c8		 mov	 ecx, eax
  007f6	e8 00 00 00 00	 call	 ?Clear@CWindowsMover@@QAEXXZ ; CWindowsMover::Clear

; 147  : 
; 148  : 	YL_Log(STR_LOG_FILE,LOG_DEBUG,"CUIManager","34");	

  007fb	68 00 00 00 00	 push	 OFFSET FLAT:$SG199979
  00800	8d 8d cc fe ff
	ff		 lea	 ecx, DWORD PTR $T202558[ebp]
  00806	ff 15 00 00 00
	00		 call	 DWORD PTR __imp_??0?$basic_string@DU?$char_traits@D@std@@V?$allocator@D@2@@std@@QAE@PBD@Z
  0080c	c7 45 fc 08 00
	00 00		 mov	 DWORD PTR __$EHRec$[ebp+8], 8
  00813	68 00 00 00 00	 push	 OFFSET FLAT:$SG199980
  00818	8d 8d b0 fe ff
	ff		 lea	 ecx, DWORD PTR $T202559[ebp]
  0081e	ff 15 00 00 00
	00		 call	 DWORD PTR __imp_??0?$basic_string@DU?$char_traits@D@std@@V?$allocator@D@2@@std@@QAE@PBD@Z
  00824	c6 45 fc 09	 mov	 BYTE PTR __$EHRec$[ebp+8], 9
  00828	68 00 00 00 00	 push	 OFFSET FLAT:$SG199978
  0082d	8d 85 cc fe ff
	ff		 lea	 eax, DWORD PTR $T202558[ebp]
  00833	50		 push	 eax
  00834	6a 00		 push	 0
  00836	8d 8d b0 fe ff
	ff		 lea	 ecx, DWORD PTR $T202559[ebp]
  0083c	51		 push	 ecx
  0083d	ff 15 00 00 00
	00		 call	 DWORD PTR __imp_?YL_Log@@YAXABV?$basic_string@DU?$char_traits@D@std@@V?$allocator@D@2@@std@@H0PBDZZ
  00843	83 c4 10	 add	 esp, 16			; 00000010H
  00846	c6 45 fc 08	 mov	 BYTE PTR __$EHRec$[ebp+8], 8
  0084a	8d 8d b0 fe ff
	ff		 lea	 ecx, DWORD PTR $T202559[ebp]
  00850	ff 15 00 00 00
	00		 call	 DWORD PTR __imp_??1?$basic_string@DU?$char_traits@D@std@@V?$allocator@D@2@@std@@QAE@XZ
  00856	c7 45 fc ff ff
	ff ff		 mov	 DWORD PTR __$EHRec$[ebp+8], -1
  0085d	8d 8d cc fe ff
	ff		 lea	 ecx, DWORD PTR $T202558[ebp]
  00863	ff 15 00 00 00
	00		 call	 DWORD PTR __imp_??1?$basic_string@DU?$char_traits@D@std@@V?$allocator@D@2@@std@@QAE@XZ
$L199832:

; 149  : }

  00869	8b 4d f4	 mov	 ecx, DWORD PTR __$EHRec$[ebp]
  0086c	64 89 0d 00 00
	00 00		 mov	 DWORD PTR fs:__except_list, ecx
  00873	8b e5		 mov	 esp, ebp
  00875	5d		 pop	 ebp
  00876	c3		 ret	 0
_TEXT	ENDS
text$x	SEGMENT
$L202560:
  00094	8d 4d bc	 lea	 ecx, DWORD PTR $T202544[ebp]
  00097	ff 25 00 00 00
	00		 jmp	 DWORD PTR __imp_??1?$basic_string@DU?$char_traits@D@std@@V?$allocator@D@2@@std@@QAE@XZ
$L202561:
  0009d	8d 4d a0	 lea	 ecx, DWORD PTR $T202545[ebp]
  000a0	ff 25 00 00 00
	00		 jmp	 DWORD PTR __imp_??1?$basic_string@DU?$char_traits@D@std@@V?$allocator@D@2@@std@@QAE@XZ
$L202562:
  000a6	8d 4d 84	 lea	 ecx, DWORD PTR $T202546[ebp]
  000a9	ff 25 00 00 00
	00		 jmp	 DWORD PTR __imp_??1?$basic_string@DU?$char_traits@D@std@@V?$allocator@D@2@@std@@QAE@XZ
$L202563:
  000af	8d 8d 68 ff ff
	ff		 lea	 ecx, DWORD PTR $T202547[ebp]
  000b5	ff 25 00 00 00
	00		 jmp	 DWORD PTR __imp_??1?$basic_string@DU?$char_traits@D@std@@V?$allocator@D@2@@std@@QAE@XZ
$L202564:
  000bb	8d 8d 44 ff ff
	ff		 lea	 ecx, DWORD PTR $T202550[ebp]
  000c1	ff 25 00 00 00
	00		 jmp	 DWORD PTR __imp_??1?$basic_string@DU?$char_traits@D@std@@V?$allocator@D@2@@std@@QAE@XZ
$L202565:
  000c7	8d 8d 28 ff ff
	ff		 lea	 ecx, DWORD PTR $T202551[ebp]
  000cd	ff 25 00 00 00
	00		 jmp	 DWORD PTR __imp_??1?$basic_string@DU?$char_traits@D@std@@V?$allocator@D@2@@std@@QAE@XZ
$L202566:
  000d3	8d 8d 04 ff ff
	ff		 lea	 ecx, DWORD PTR $T202556[ebp]
  000d9	ff 25 00 00 00
	00		 jmp	 DWORD PTR __imp_??1?$basic_string@DU?$char_traits@D@std@@V?$allocator@D@2@@std@@QAE@XZ
$L202567:
  000df	8d 8d e8 fe ff
	ff		 lea	 ecx, DWORD PTR $T202557[ebp]
  000e5	ff 25 00 00 00
	00		 jmp	 DWORD PTR __imp_??1?$basic_string@DU?$char_traits@D@std@@V?$allocator@D@2@@std@@QAE@XZ
$L202568:
  000eb	8d 8d cc fe ff
	ff		 lea	 ecx, DWORD PTR $T202558[ebp]
  000f1	ff 25 00 00 00
	00		 jmp	 DWORD PTR __imp_??1?$basic_string@DU?$char_traits@D@std@@V?$allocator@D@2@@std@@QAE@XZ
$L202569:
  000f7	8d 8d b0 fe ff
	ff		 lea	 ecx, DWORD PTR $T202559[ebp]
  000fd	ff 25 00 00 00
	00		 jmp	 DWORD PTR __imp_??1?$basic_string@DU?$char_traits@D@std@@V?$allocator@D@2@@std@@QAE@XZ
__ehhandler$?DetachAllMovingWnd@CHostWndMgr@@QAEXXZ:
  00103	b8 00 00 00 00	 mov	 eax, OFFSET FLAT:$T202571
  00108	e9 00 00 00 00	 jmp	 ___CxxFrameHandler
text$x	ENDS
?DetachAllMovingWnd@CHostWndMgr@@QAEXXZ ENDP		; CHostWndMgr::DetachAllMovingWnd
PUBLIC	?MoveMainWindow@CHostWndMgr@@QAEXVCRect@@@Z	; CHostWndMgr::MoveMainWindow
; Function compile flags: /Odt
_TEXT	SEGMENT
_this$ = -4						; size = 4
_rcNew$ = 8						; size = 16
?MoveMainWindow@CHostWndMgr@@QAEXVCRect@@@Z PROC NEAR	; CHostWndMgr::MoveMainWindow
; _this$ = ecx

; 156  : {

  00880	55		 push	 ebp
  00881	8b ec		 mov	 ebp, esp
  00883	51		 push	 ecx
  00884	89 4d fc	 mov	 DWORD PTR _this$[ebp], ecx

; 157  : 
; 158  : }

  00887	8b e5		 mov	 esp, ebp
  00889	5d		 pop	 ebp
  0088a	c2 10 00	 ret	 16			; 00000010H
?MoveMainWindow@CHostWndMgr@@QAEXVCRect@@@Z ENDP	; CHostWndMgr::MoveMainWindow
_TEXT	ENDS
PUBLIC	??0CRect@@QAE@HHHH@Z				; CRect::CRect
PUBLIC	?test@CHostWndMgr@@QAEXXZ			; CHostWndMgr::test
EXTRN	__imp__TranslateMessage@4:NEAR
EXTRN	__imp__DispatchMessageA@4:NEAR
EXTRN	__imp__PeekMessageA@20:NEAR
EXTRN	__imp__GetMessageA@16:NEAR
xdata$x	SEGMENT
$T202585 DD	0ffffffffH
	DD	FLAT:$L202581
$T202583 DD	019930520H
	DD	01H
	DD	FLAT:$T202585
	DD	2 DUP(00H)
	DD	2 DUP(00H)
; Function compile flags: /Odt
xdata$x	ENDS
_TEXT	SEGMENT
tv74 = -88						; size = 4
_this$ = -84						; size = 4
$T202580 = -80						; size = 16
$T202577 = -64						; size = 4
$T202576 = -60						; size = 4
_x$199999 = -56						; size = 4
_i$199990 = -52						; size = 4
_pWnd$ = -48						; size = 4
_msg$ = -44						; size = 28
_pMain$ = -16						; size = 4
__$EHRec$ = -12						; size = 12
?test@CHostWndMgr@@QAEXXZ PROC NEAR			; CHostWndMgr::test
; _this$ = ecx

; 161  : {

  00890	55		 push	 ebp
  00891	8b ec		 mov	 ebp, esp
  00893	6a ff		 push	 -1
  00895	68 00 00 00 00	 push	 __ehhandler$?test@CHostWndMgr@@QAEXXZ
  0089a	64 a1 00 00 00
	00		 mov	 eax, DWORD PTR fs:__except_list
  008a0	50		 push	 eax
  008a1	64 89 25 00 00
	00 00		 mov	 DWORD PTR fs:__except_list, esp
  008a8	83 ec 4c	 sub	 esp, 76			; 0000004cH
  008ab	89 4d ac	 mov	 DWORD PTR _this$[ebp], ecx

; 162  : 	CHostWnd *pWnd;
; 163  : 	CWnd * pMain;
; 164  : 	for(int i = 0 ; i<10; i++)

  008ae	c7 45 cc 00 00
	00 00		 mov	 DWORD PTR _i$199990[ebp], 0
  008b5	eb 09		 jmp	 SHORT $L199991
$L199992:
  008b7	8b 45 cc	 mov	 eax, DWORD PTR _i$199990[ebp]
  008ba	83 c0 01	 add	 eax, 1
  008bd	89 45 cc	 mov	 DWORD PTR _i$199990[ebp], eax
$L199991:
  008c0	83 7d cc 0a	 cmp	 DWORD PTR _i$199990[ebp], 10 ; 0000000aH
  008c4	0f 8d d9 00 00
	00		 jge	 $L200008

; 165  : 	{
; 166  : 		pWnd = new CHostWnd();

  008ca	68 34 02 00 00	 push	 564			; 00000234H
  008cf	e8 00 00 00 00	 call	 ??2CObject@@SGPAXI@Z	; CObject::operator new
  008d4	89 45 c0	 mov	 DWORD PTR $T202577[ebp], eax
  008d7	c7 45 fc 00 00
	00 00		 mov	 DWORD PTR __$EHRec$[ebp+8], 0
  008de	83 7d c0 00	 cmp	 DWORD PTR $T202577[ebp], 0
  008e2	74 0f		 je	 SHORT $L202578
  008e4	6a 00		 push	 0
  008e6	8b 4d c0	 mov	 ecx, DWORD PTR $T202577[ebp]
  008e9	e8 00 00 00 00	 call	 ??0CHostWnd@@QAE@PAVCWnd@@@Z ; CHostWnd::CHostWnd
  008ee	89 45 a8	 mov	 DWORD PTR tv74[ebp], eax
  008f1	eb 07		 jmp	 SHORT $L202579
$L202578:
  008f3	c7 45 a8 00 00
	00 00		 mov	 DWORD PTR tv74[ebp], 0
$L202579:
  008fa	8b 4d a8	 mov	 ecx, DWORD PTR tv74[ebp]
  008fd	89 4d c4	 mov	 DWORD PTR $T202576[ebp], ecx
  00900	c7 45 fc ff ff
	ff ff		 mov	 DWORD PTR __$EHRec$[ebp+8], -1
  00907	8b 55 c4	 mov	 edx, DWORD PTR $T202576[ebp]
  0090a	89 55 d0	 mov	 DWORD PTR _pWnd$[ebp], edx

; 167  : 		if(i == 0)

  0090d	83 7d cc 00	 cmp	 DWORD PTR _i$199990[ebp], 0
  00911	75 10		 jne	 SHORT $L199998

; 168  : 		{
; 169  : 			pWnd->SetMainWnd(true);

  00913	6a 01		 push	 1
  00915	8b 4d d0	 mov	 ecx, DWORD PTR _pWnd$[ebp]
  00918	e8 00 00 00 00	 call	 ?SetMainWnd@CHostWnd@@QAEXH@Z ; CHostWnd::SetMainWnd

; 170  : 			pMain = pWnd;

  0091d	8b 45 d0	 mov	 eax, DWORD PTR _pWnd$[ebp]
  00920	89 45 f0	 mov	 DWORD PTR _pMain$[ebp], eax
$L199998:

; 171  : 		}
; 172  : 		int x = i*150;

  00923	8b 4d cc	 mov	 ecx, DWORD PTR _i$199990[ebp]
  00926	69 c9 96 00 00
	00		 imul	 ecx, 150		; 00000096H
  0092c	89 4d c8	 mov	 DWORD PTR _x$199999[ebp], ecx

; 173  : 		if(i == 0)

  0092f	83 7d cc 00	 cmp	 DWORD PTR _i$199990[ebp], 0
  00933	75 18		 jne	 SHORT $L200000

; 174  : 			pWnd->Create(IDD_HOST, ::AfxGetMainWindow());

  00935	e8 00 00 00 00	 call	 ?AfxGetMainWindow@@YAPAVCWnd@@XZ ; AfxGetMainWindow
  0093a	50		 push	 eax
  0093b	6a 6d		 push	 109			; 0000006dH
  0093d	8b 55 d0	 mov	 edx, DWORD PTR _pWnd$[ebp]
  00940	8b 02		 mov	 eax, DWORD PTR [edx]
  00942	8b 4d d0	 mov	 ecx, DWORD PTR _pWnd$[ebp]
  00945	ff 90 38 01 00
	00		 call	 DWORD PTR [eax+312]

; 175  : 		else

  0094b	eb 14		 jmp	 SHORT $L200001
$L200000:

; 176  : 			pWnd->Create(IDD_HOST, pMain);

  0094d	8b 4d f0	 mov	 ecx, DWORD PTR _pMain$[ebp]
  00950	51		 push	 ecx
  00951	6a 6d		 push	 109			; 0000006dH
  00953	8b 55 d0	 mov	 edx, DWORD PTR _pWnd$[ebp]
  00956	8b 02		 mov	 eax, DWORD PTR [edx]
  00958	8b 4d d0	 mov	 ecx, DWORD PTR _pWnd$[ebp]
  0095b	ff 90 38 01 00
	00		 call	 DWORD PTR [eax+312]
$L200001:

; 177  : 		pWnd->ShowWindow(SW_SHOW);

  00961	6a 05		 push	 5
  00963	8b 4d d0	 mov	 ecx, DWORD PTR _pWnd$[ebp]
  00966	e8 00 00 00 00	 call	 ?ShowWindow@CWnd@@QAEHH@Z ; CWnd::ShowWindow

; 178  : 		pWnd->MoveWindow(CRect(x, x, x + 200 , x+ 100));

  0096b	6a 01		 push	 1
  0096d	8b 4d c8	 mov	 ecx, DWORD PTR _x$199999[ebp]
  00970	83 c1 64	 add	 ecx, 100		; 00000064H
  00973	51		 push	 ecx
  00974	8b 55 c8	 mov	 edx, DWORD PTR _x$199999[ebp]
  00977	81 c2 c8 00 00
	00		 add	 edx, 200		; 000000c8H
  0097d	52		 push	 edx
  0097e	8b 45 c8	 mov	 eax, DWORD PTR _x$199999[ebp]
  00981	50		 push	 eax
  00982	8b 4d c8	 mov	 ecx, DWORD PTR _x$199999[ebp]
  00985	51		 push	 ecx
  00986	8d 4d b0	 lea	 ecx, DWORD PTR $T202580[ebp]
  00989	e8 00 00 00 00	 call	 ??0CRect@@QAE@HHHH@Z	; CRect::CRect
  0098e	8b c8		 mov	 ecx, eax
  00990	e8 00 00 00 00	 call	 ??BCRect@@QAEPAUtagRECT@@XZ ; CRect::operator tagRECT *
  00995	50		 push	 eax
  00996	8b 4d d0	 mov	 ecx, DWORD PTR _pWnd$[ebp]
  00999	e8 00 00 00 00	 call	 ?MoveWindow@CWnd@@QAEXPBUtagRECT@@H@Z ; CWnd::MoveWindow

; 179  : 	}

  0099e	e9 14 ff ff ff	 jmp	 $L199992
$L200008:

; 180  : 
; 181  : 	// Another improved PeekMessage() loop
; 182  : 	MSG msg;
; 183  : 	for (;;)   
; 184  : 	{
; 185  : 		for (;;)    
; 186  : 		{        
; 187  : 			if (false)//IfBackgroundProcessingRequired())  

  009a3	33 d2		 xor	 edx, edx
  009a5	74 1a		 je	 SHORT $L200010

; 188  : 			{          
; 189  : 				if (!PeekMessage(&msg, NULL, 0, 0, PM_REMOVE))           

  009a7	6a 01		 push	 1
  009a9	6a 00		 push	 0
  009ab	6a 00		 push	 0
  009ad	6a 00		 push	 0
  009af	8d 45 d4	 lea	 eax, DWORD PTR _msg$[ebp]
  009b2	50		 push	 eax
  009b3	ff 15 00 00 00
	00		 call	 DWORD PTR __imp__PeekMessageA@20
  009b9	85 c0		 test	 eax, eax
  009bb	75 02		 jne	 SHORT $L200011

; 190  : 					break;     

  009bd	eb 30		 jmp	 SHORT $L200009
$L200011:

; 191  : 			}       
; 192  : 			else      

  009bf	eb 10		 jmp	 SHORT $L200012
$L200010:

; 193  : 				GetMessage(&msg, NULL, 0, 0);

  009c1	6a 00		 push	 0
  009c3	6a 00		 push	 0
  009c5	6a 00		 push	 0
  009c7	8d 4d d4	 lea	 ecx, DWORD PTR _msg$[ebp]
  009ca	51		 push	 ecx
  009cb	ff 15 00 00 00
	00		 call	 DWORD PTR __imp__GetMessageA@16
$L200012:

; 194  : 
; 195  :             if (msg.message == WM_QUIT)    

  009d1	83 7d d8 12	 cmp	 DWORD PTR _msg$[ebp+4], 18 ; 00000012H
  009d5	75 02		 jne	 SHORT $L200013

; 196  : 				return;

  009d7	eb 18		 jmp	 SHORT $L199987
$L200013:

; 197  : 			TranslateMessage(&msg);      

  009d9	8d 55 d4	 lea	 edx, DWORD PTR _msg$[ebp]
  009dc	52		 push	 edx
  009dd	ff 15 00 00 00
	00		 call	 DWORD PTR __imp__TranslateMessage@4

; 198  : 			DispatchMessage(&msg);      

  009e3	8d 45 d4	 lea	 eax, DWORD PTR _msg$[ebp]
  009e6	50		 push	 eax
  009e7	ff 15 00 00 00
	00		 call	 DWORD PTR __imp__DispatchMessageA@4

; 199  : 		}     

  009ed	eb b4		 jmp	 SHORT $L200008
$L200009:

; 200  : 		//BackgroundProcessing();
; 201  : 	}	

  009ef	eb b2		 jmp	 SHORT $L200008
$L199987:

; 202  : 
; 203  : }

  009f1	8b 4d f4	 mov	 ecx, DWORD PTR __$EHRec$[ebp]
  009f4	64 89 0d 00 00
	00 00		 mov	 DWORD PTR fs:__except_list, ecx
  009fb	8b e5		 mov	 esp, ebp
  009fd	5d		 pop	 ebp
  009fe	c3		 ret	 0
_TEXT	ENDS
text$x	SEGMENT
$L202581:
  0010d	8b 45 c0	 mov	 eax, DWORD PTR $T202577[ebp]
  00110	50		 push	 eax
  00111	e8 00 00 00 00	 call	 ??3CObject@@SGXPAX@Z	; CObject::operator delete
  00116	c3		 ret	 0
__ehhandler$?test@CHostWndMgr@@QAEXXZ:
  00117	b8 00 00 00 00	 mov	 eax, OFFSET FLAT:$T202583
  0011c	e9 00 00 00 00	 jmp	 ___CxxFrameHandler
text$x	ENDS
?test@CHostWndMgr@@QAEXXZ ENDP				; CHostWndMgr::test
PUBLIC	?GetName@CHostWnd@@QAE?AV?$basic_string@DU?$char_traits@D@std@@V?$allocator@D@2@@std@@XZ ; CHostWnd::GetName
PUBLIC	?GetHostWnd@CHostWndMgr@@QAEPAVCHostWnd@@V?$basic_string@DU?$char_traits@D@std@@V?$allocator@D@2@@std@@@Z ; CHostWndMgr::GetHostWnd
EXTRN	__imp_??$?8DU?$char_traits@D@std@@V?$allocator@D@1@@std@@YA_NABV?$basic_string@DU?$char_traits@D@std@@V?$allocator@D@2@@0@0@Z:NEAR
xdata$x	SEGMENT
$T202596 DD	0ffffffffH
	DD	FLAT:$L202591
	DD	00H
	DD	FLAT:$L202592
$T202594 DD	019930520H
	DD	02H
	DD	FLAT:$T202596
	DD	2 DUP(00H)
	DD	2 DUP(00H)
; Function compile flags: /Odt
xdata$x	ENDS
_TEXT	SEGMENT
tv86 = -72						; size = 4
tv89 = -68						; size = 4
_this$ = -64						; size = 4
$T202590 = -60						; size = 4
$T202589 = -56						; size = 4
$T202588 = -52						; size = 28
$T202587 = -21						; size = 1
_wnd$200022 = -20					; size = 4
_i$200018 = -16						; size = 4
__$EHRec$ = -12						; size = 12
_strName$ = 8						; size = 28
?GetHostWnd@CHostWndMgr@@QAEPAVCHostWnd@@V?$basic_string@DU?$char_traits@D@std@@V?$allocator@D@2@@std@@@Z PROC NEAR ; CHostWndMgr::GetHostWnd
; _this$ = ecx

; 206  : {

  00a00	55		 push	 ebp
  00a01	8b ec		 mov	 ebp, esp
  00a03	6a ff		 push	 -1
  00a05	68 00 00 00 00	 push	 __ehhandler$?GetHostWnd@CHostWndMgr@@QAEPAVCHostWnd@@V?$basic_string@DU?$char_traits@D@std@@V?$allocator@D@2@@std@@@Z
  00a0a	64 a1 00 00 00
	00		 mov	 eax, DWORD PTR fs:__except_list
  00a10	50		 push	 eax
  00a11	64 89 25 00 00
	00 00		 mov	 DWORD PTR fs:__except_list, esp
  00a18	83 ec 3c	 sub	 esp, 60			; 0000003cH
  00a1b	89 4d c0	 mov	 DWORD PTR _this$[ebp], ecx
  00a1e	c7 45 fc 00 00
	00 00		 mov	 DWORD PTR __$EHRec$[ebp+8], 0

; 207  : 	for(int i = 0; i<m_vecHostWnds.size(); i++)

  00a25	c7 45 f0 00 00
	00 00		 mov	 DWORD PTR _i$200018[ebp], 0
  00a2c	eb 09		 jmp	 SHORT $L200019
$L200020:
  00a2e	8b 45 f0	 mov	 eax, DWORD PTR _i$200018[ebp]
  00a31	83 c0 01	 add	 eax, 1
  00a34	89 45 f0	 mov	 DWORD PTR _i$200018[ebp], eax
$L200019:
  00a37	8b 4d c0	 mov	 ecx, DWORD PTR _this$[ebp]
  00a3a	83 c1 0c	 add	 ecx, 12			; 0000000cH
  00a3d	e8 00 00 00 00	 call	 ?size@?$vector@PAVCHostWnd@@V?$allocator@PAVCHostWnd@@@std@@@std@@QBEIXZ ; std::vector<CHostWnd *,std::allocator<CHostWnd *> >::size
  00a42	39 45 f0	 cmp	 DWORD PTR _i$200018[ebp], eax
  00a45	73 76		 jae	 SHORT $L200021

; 208  : 	{
; 209  : 		CHostWnd * wnd = m_vecHostWnds[i]; 

  00a47	8b 4d f0	 mov	 ecx, DWORD PTR _i$200018[ebp]
  00a4a	51		 push	 ecx
  00a4b	8b 4d c0	 mov	 ecx, DWORD PTR _this$[ebp]
  00a4e	83 c1 0c	 add	 ecx, 12			; 0000000cH
  00a51	e8 00 00 00 00	 call	 ??A?$vector@PAVCHostWnd@@V?$allocator@PAVCHostWnd@@@std@@@std@@QAEAAPAVCHostWnd@@I@Z ; std::vector<CHostWnd *,std::allocator<CHostWnd *> >::operator[]
  00a56	8b 10		 mov	 edx, DWORD PTR [eax]
  00a58	89 55 ec	 mov	 DWORD PTR _wnd$200022[ebp], edx

; 210  : 
; 211  : 		if(wnd->GetName() == strName)

  00a5b	8d 45 cc	 lea	 eax, DWORD PTR $T202588[ebp]
  00a5e	50		 push	 eax
  00a5f	8b 4d ec	 mov	 ecx, DWORD PTR _wnd$200022[ebp]
  00a62	e8 00 00 00 00	 call	 ?GetName@CHostWnd@@QAE?AV?$basic_string@DU?$char_traits@D@std@@V?$allocator@D@2@@std@@XZ ; CHostWnd::GetName
  00a67	89 45 bc	 mov	 DWORD PTR tv89[ebp], eax
  00a6a	8b 4d bc	 mov	 ecx, DWORD PTR tv89[ebp]
  00a6d	89 4d b8	 mov	 DWORD PTR tv86[ebp], ecx
  00a70	c6 45 fc 01	 mov	 BYTE PTR __$EHRec$[ebp+8], 1
  00a74	8d 55 08	 lea	 edx, DWORD PTR _strName$[ebp]
  00a77	52		 push	 edx
  00a78	8b 45 b8	 mov	 eax, DWORD PTR tv86[ebp]
  00a7b	50		 push	 eax
  00a7c	ff 15 00 00 00
	00		 call	 DWORD PTR __imp_??$?8DU?$char_traits@D@std@@V?$allocator@D@1@@std@@YA_NABV?$basic_string@DU?$char_traits@D@std@@V?$allocator@D@2@@0@0@Z
  00a82	83 c4 08	 add	 esp, 8
  00a85	88 45 eb	 mov	 BYTE PTR $T202587[ebp], al
  00a88	c6 45 fc 00	 mov	 BYTE PTR __$EHRec$[ebp+8], 0
  00a8c	8d 4d cc	 lea	 ecx, DWORD PTR $T202588[ebp]
  00a8f	ff 15 00 00 00
	00		 call	 DWORD PTR __imp_??1?$basic_string@DU?$char_traits@D@std@@V?$allocator@D@2@@std@@QAE@XZ
  00a95	0f b6 4d eb	 movzx	 ecx, BYTE PTR $T202587[ebp]
  00a99	85 c9		 test	 ecx, ecx
  00a9b	74 1b		 je	 SHORT $L200024

; 212  : 			return wnd;

  00a9d	8b 55 ec	 mov	 edx, DWORD PTR _wnd$200022[ebp]
  00aa0	89 55 c8	 mov	 DWORD PTR $T202589[ebp], edx
  00aa3	c7 45 fc ff ff
	ff ff		 mov	 DWORD PTR __$EHRec$[ebp+8], -1
  00aaa	8d 4d 08	 lea	 ecx, DWORD PTR _strName$[ebp]
  00aad	ff 15 00 00 00
	00		 call	 DWORD PTR __imp_??1?$basic_string@DU?$char_traits@D@std@@V?$allocator@D@2@@std@@QAE@XZ
  00ab3	8b 45 c8	 mov	 eax, DWORD PTR $T202589[ebp]
  00ab6	eb 1f		 jmp	 SHORT $L200017
$L200024:

; 213  : 	}

  00ab8	e9 71 ff ff ff	 jmp	 $L200020
$L200021:

; 214  : 	return NULL;

  00abd	c7 45 c4 00 00
	00 00		 mov	 DWORD PTR $T202590[ebp], 0
  00ac4	c7 45 fc ff ff
	ff ff		 mov	 DWORD PTR __$EHRec$[ebp+8], -1
  00acb	8d 4d 08	 lea	 ecx, DWORD PTR _strName$[ebp]
  00ace	ff 15 00 00 00
	00		 call	 DWORD PTR __imp_??1?$basic_string@DU?$char_traits@D@std@@V?$allocator@D@2@@std@@QAE@XZ
  00ad4	8b 45 c4	 mov	 eax, DWORD PTR $T202590[ebp]
$L200017:

; 215  : }

  00ad7	8b 4d f4	 mov	 ecx, DWORD PTR __$EHRec$[ebp]
  00ada	64 89 0d 00 00
	00 00		 mov	 DWORD PTR fs:__except_list, ecx
  00ae1	8b e5		 mov	 esp, ebp
  00ae3	5d		 pop	 ebp
  00ae4	c2 1c 00	 ret	 28			; 0000001cH
_TEXT	ENDS
text$x	SEGMENT
$L202591:
  00121	8d 4d 08	 lea	 ecx, DWORD PTR _strName$[ebp]
  00124	ff 25 00 00 00
	00		 jmp	 DWORD PTR __imp_??1?$basic_string@DU?$char_traits@D@std@@V?$allocator@D@2@@std@@QAE@XZ
$L202592:
  0012a	8d 4d cc	 lea	 ecx, DWORD PTR $T202588[ebp]
  0012d	ff 25 00 00 00
	00		 jmp	 DWORD PTR __imp_??1?$basic_string@DU?$char_traits@D@std@@V?$allocator@D@2@@std@@QAE@XZ
__ehhandler$?GetHostWnd@CHostWndMgr@@QAEPAVCHostWnd@@V?$basic_string@DU?$char_traits@D@std@@V?$allocator@D@2@@std@@@Z:
  00133	b8 00 00 00 00	 mov	 eax, OFFSET FLAT:$T202594
  00138	e9 00 00 00 00	 jmp	 ___CxxFrameHandler
text$x	ENDS
?GetHostWnd@CHostWndMgr@@QAEPAVCHostWnd@@V?$basic_string@DU?$char_traits@D@std@@V?$allocator@D@2@@std@@@Z ENDP ; CHostWndMgr::GetHostWnd
EXTRN	__imp_??0?$basic_string@DU?$char_traits@D@std@@V?$allocator@D@2@@std@@QAE@ABV01@@Z:NEAR
; Function compile flags: /Odt
; File d:\boxgit\playbox\playbox\dev\prj\playbox\src\layoutmgr\seperatemode\hostwnd.h
;	COMDAT ?GetName@CHostWnd@@QAE?AV?$basic_string@DU?$char_traits@D@std@@V?$allocator@D@2@@std@@XZ
_TEXT	SEGMENT
_this$ = -8						; size = 4
$T202599 = -4						; size = 4
___$ReturnUdt$ = 8					; size = 4
?GetName@CHostWnd@@QAE?AV?$basic_string@DU?$char_traits@D@std@@V?$allocator@D@2@@std@@XZ PROC NEAR ; CHostWnd::GetName, COMDAT
; _this$ = ecx

; 70   : 	string	GetName(){return m_strName;};

  00000	55		 push	 ebp
  00001	8b ec		 mov	 ebp, esp
  00003	83 ec 08	 sub	 esp, 8
  00006	89 4d f8	 mov	 DWORD PTR _this$[ebp], ecx
  00009	c7 45 fc 00 00
	00 00		 mov	 DWORD PTR $T202599[ebp], 0
  00010	8b 45 f8	 mov	 eax, DWORD PTR _this$[ebp]
  00013	05 cc 00 00 00	 add	 eax, 204		; 000000ccH
  00018	50		 push	 eax
  00019	8b 4d 08	 mov	 ecx, DWORD PTR ___$ReturnUdt$[ebp]
  0001c	ff 15 00 00 00
	00		 call	 DWORD PTR __imp_??0?$basic_string@DU?$char_traits@D@std@@V?$allocator@D@2@@std@@QAE@ABV01@@Z
  00022	8b 4d fc	 mov	 ecx, DWORD PTR $T202599[ebp]
  00025	83 c9 01	 or	 ecx, 1
  00028	89 4d fc	 mov	 DWORD PTR $T202599[ebp], ecx
  0002b	8b 45 08	 mov	 eax, DWORD PTR ___$ReturnUdt$[ebp]
  0002e	8b e5		 mov	 esp, ebp
  00030	5d		 pop	 ebp
  00031	c2 04 00	 ret	 4
?GetName@CHostWnd@@QAE?AV?$basic_string@DU?$char_traits@D@std@@V?$allocator@D@2@@std@@XZ ENDP ; CHostWnd::GetName
_TEXT	ENDS
PUBLIC	?GetContentWnd@CHostWnd@@QAEPAVCWnd@@XZ		; CHostWnd::GetContentWnd
PUBLIC	?GetHostWnd@CHostWndMgr@@QAEPAVCHostWnd@@PAVCWnd@@@Z ; CHostWndMgr::GetHostWnd
; Function compile flags: /Odt
; File d:\boxgit\playbox\playbox\dev\prj\playbox\src\layoutmgr\seperatemode\hostwndmgr.cpp
_TEXT	SEGMENT
_this$ = -12						; size = 4
_wnd$200036 = -8					; size = 4
_i$200032 = -4						; size = 4
_pWnd$ = 8						; size = 4
?GetHostWnd@CHostWndMgr@@QAEPAVCHostWnd@@PAVCWnd@@@Z PROC NEAR ; CHostWndMgr::GetHostWnd
; _this$ = ecx

; 218  : {

  00af0	55		 push	 ebp
  00af1	8b ec		 mov	 ebp, esp
  00af3	83 ec 0c	 sub	 esp, 12			; 0000000cH
  00af6	89 4d f4	 mov	 DWORD PTR _this$[ebp], ecx

; 219  : 	for(int i = 0; i<m_vecHostWnds.size(); i++)

  00af9	c7 45 fc 00 00
	00 00		 mov	 DWORD PTR _i$200032[ebp], 0
  00b00	eb 09		 jmp	 SHORT $L200033
$L200034:
  00b02	8b 45 fc	 mov	 eax, DWORD PTR _i$200032[ebp]
  00b05	83 c0 01	 add	 eax, 1
  00b08	89 45 fc	 mov	 DWORD PTR _i$200032[ebp], eax
$L200033:
  00b0b	8b 4d f4	 mov	 ecx, DWORD PTR _this$[ebp]
  00b0e	83 c1 0c	 add	 ecx, 12			; 0000000cH
  00b11	e8 00 00 00 00	 call	 ?size@?$vector@PAVCHostWnd@@V?$allocator@PAVCHostWnd@@@std@@@std@@QBEIXZ ; std::vector<CHostWnd *,std::allocator<CHostWnd *> >::size
  00b16	39 45 fc	 cmp	 DWORD PTR _i$200032[ebp], eax
  00b19	73 28		 jae	 SHORT $L200035

; 220  : 	{
; 221  : 		CHostWnd * wnd = m_vecHostWnds[i]; 

  00b1b	8b 4d fc	 mov	 ecx, DWORD PTR _i$200032[ebp]
  00b1e	51		 push	 ecx
  00b1f	8b 4d f4	 mov	 ecx, DWORD PTR _this$[ebp]
  00b22	83 c1 0c	 add	 ecx, 12			; 0000000cH
  00b25	e8 00 00 00 00	 call	 ??A?$vector@PAVCHostWnd@@V?$allocator@PAVCHostWnd@@@std@@@std@@QAEAAPAVCHostWnd@@I@Z ; std::vector<CHostWnd *,std::allocator<CHostWnd *> >::operator[]
  00b2a	8b 10		 mov	 edx, DWORD PTR [eax]
  00b2c	89 55 f8	 mov	 DWORD PTR _wnd$200036[ebp], edx

; 222  : 
; 223  : 		if(wnd->GetContentWnd() == pWnd)

  00b2f	8b 4d f8	 mov	 ecx, DWORD PTR _wnd$200036[ebp]
  00b32	e8 00 00 00 00	 call	 ?GetContentWnd@CHostWnd@@QAEPAVCWnd@@XZ ; CHostWnd::GetContentWnd
  00b37	3b 45 08	 cmp	 eax, DWORD PTR _pWnd$[ebp]
  00b3a	75 05		 jne	 SHORT $L200037

; 224  : 			return wnd;

  00b3c	8b 45 f8	 mov	 eax, DWORD PTR _wnd$200036[ebp]
  00b3f	eb 04		 jmp	 SHORT $L200031
$L200037:

; 225  : 	}

  00b41	eb bf		 jmp	 SHORT $L200034
$L200035:

; 226  : 	return NULL;

  00b43	33 c0		 xor	 eax, eax
$L200031:

; 227  : }

  00b45	8b e5		 mov	 esp, ebp
  00b47	5d		 pop	 ebp
  00b48	c2 04 00	 ret	 4
?GetHostWnd@CHostWndMgr@@QAEPAVCHostWnd@@PAVCWnd@@@Z ENDP ; CHostWndMgr::GetHostWnd
; Function compile flags: /Odt
; File d:\boxgit\playbox\playbox\dev\prj\playbox\src\layoutmgr\seperatemode\hostwnd.h
_TEXT	ENDS
;	COMDAT ?GetContentWnd@CHostWnd@@QAEPAVCWnd@@XZ
_TEXT	SEGMENT
_this$ = -4						; size = 4
?GetContentWnd@CHostWnd@@QAEPAVCWnd@@XZ PROC NEAR	; CHostWnd::GetContentWnd, COMDAT
; _this$ = ecx

; 75   : 	CWnd*	GetContentWnd(){return m_pWnd;};

  00000	55		 push	 ebp
  00001	8b ec		 mov	 ebp, esp
  00003	51		 push	 ecx
  00004	89 4d fc	 mov	 DWORD PTR _this$[ebp], ecx
  00007	8b 45 fc	 mov	 eax, DWORD PTR _this$[ebp]
  0000a	8b 80 88 00 00
	00		 mov	 eax, DWORD PTR [eax+136]
  00010	8b e5		 mov	 esp, ebp
  00012	5d		 pop	 ebp
  00013	c3		 ret	 0
?GetContentWnd@CHostWnd@@QAEPAVCWnd@@XZ ENDP		; CHostWnd::GetContentWnd
_TEXT	ENDS
PUBLIC	?IsWindowVisible@CWnd@@QBEHXZ			; CWnd::IsWindowVisible
PUBLIC	??0CRect@@QAE@XZ				; CRect::CRect
PUBLIC	?ShowHostWindows@CHostWndMgr@@QAEXH@Z		; CHostWndMgr::ShowHostWindows
PUBLIC	?ShowPopupWndsBeforeMainChange@CHostWndMgr@@QAEXH@Z ; CHostWndMgr::ShowPopupWndsBeforeMainChange
PUBLIC	?ShowPopupWndsAfterMainChange@CHostWndMgr@@QAEXH@Z ; CHostWndMgr::ShowPopupWndsAfterMainChange
EXTRN	?AfxGetUIManager@@YAPAVIUIManager@@XZ:NEAR	; AfxGetUIManager
xdata$x	SEGMENT
$T202610 DD	0ffffffffH
	DD	FLAT:$L202606
$T202608 DD	019930520H
	DD	01H
	DD	FLAT:$T202610
	DD	2 DUP(00H)
	DD	2 DUP(00H)
; Function compile flags: /Odt
; File d:\boxgit\playbox\playbox\dev\prj\playbox\src\layoutmgr\seperatemode\hostwndmgr.cpp
xdata$x	ENDS
_TEXT	SEGMENT
tv71 = -60						; size = 4
tv66 = -56						; size = 4
_this$ = -52						; size = 4
_i$200065 = -48						; size = 4
_str$200062 = -44					; size = 4
_rc$200063 = -40					; size = 16
_i$200057 = -24						; size = 4
_i$200051 = -20						; size = 4
_i$200044 = -16						; size = 4
__$EHRec$ = -12						; size = 12
_bShow$ = 8						; size = 4
?ShowHostWindows@CHostWndMgr@@QAEXH@Z PROC NEAR		; CHostWndMgr::ShowHostWindows
; _this$ = ecx

; 229  : {

  00b50	55		 push	 ebp
  00b51	8b ec		 mov	 ebp, esp
  00b53	6a ff		 push	 -1
  00b55	68 00 00 00 00	 push	 __ehhandler$?ShowHostWindows@CHostWndMgr@@QAEXH@Z
  00b5a	64 a1 00 00 00
	00		 mov	 eax, DWORD PTR fs:__except_list
  00b60	50		 push	 eax
  00b61	64 89 25 00 00
	00 00		 mov	 DWORD PTR fs:__except_list, esp
  00b68	83 ec 30	 sub	 esp, 48			; 00000030H
  00b6b	89 4d cc	 mov	 DWORD PTR _this$[ebp], ecx

; 230  : 	if(::AfxGetUIManager()->UIGetLayoutMgr()->GetDisplayMode() != DISPLAY_SEPERATE_MODE)

  00b6e	e8 00 00 00 00	 call	 ?AfxGetUIManager@@YAPAVIUIManager@@XZ ; AfxGetUIManager
  00b73	89 45 c8	 mov	 DWORD PTR tv66[ebp], eax
  00b76	8b 45 c8	 mov	 eax, DWORD PTR tv66[ebp]
  00b79	8b 10		 mov	 edx, DWORD PTR [eax]
  00b7b	8b 4d c8	 mov	 ecx, DWORD PTR tv66[ebp]
  00b7e	ff 52 24	 call	 DWORD PTR [edx+36]
  00b81	89 45 c4	 mov	 DWORD PTR tv71[ebp], eax
  00b84	8b 45 c4	 mov	 eax, DWORD PTR tv71[ebp]
  00b87	8b 10		 mov	 edx, DWORD PTR [eax]
  00b89	8b 4d c4	 mov	 ecx, DWORD PTR tv71[ebp]
  00b8c	ff 52 7c	 call	 DWORD PTR [edx+124]
  00b8f	85 c0		 test	 eax, eax
  00b91	74 05		 je	 SHORT $L200042

; 231  : 		return;

  00b93	e9 ce 01 00 00	 jmp	 $L200041
$L200042:

; 232  : 
; 233  : 	if(!bShow)

  00b98	83 7d 08 00	 cmp	 DWORD PTR _bShow$[ebp], 0
  00b9c	75 55		 jne	 SHORT $L200043

; 234  : 	{
; 235  : 		for(int i = 0 ; i<m_vecHostWnds.size(); i++)

  00b9e	c7 45 f0 00 00
	00 00		 mov	 DWORD PTR _i$200044[ebp], 0
  00ba5	eb 09		 jmp	 SHORT $L200045
$L200046:
  00ba7	8b 45 f0	 mov	 eax, DWORD PTR _i$200044[ebp]
  00baa	83 c0 01	 add	 eax, 1
  00bad	89 45 f0	 mov	 DWORD PTR _i$200044[ebp], eax
$L200045:
  00bb0	8b 4d cc	 mov	 ecx, DWORD PTR _this$[ebp]
  00bb3	83 c1 0c	 add	 ecx, 12			; 0000000cH
  00bb6	e8 00 00 00 00	 call	 ?size@?$vector@PAVCHostWnd@@V?$allocator@PAVCHostWnd@@@std@@@std@@QBEIXZ ; std::vector<CHostWnd *,std::allocator<CHostWnd *> >::size
  00bbb	39 45 f0	 cmp	 DWORD PTR _i$200044[ebp], eax
  00bbe	73 1e		 jae	 SHORT $L200047

; 236  : 		{
; 237  : 			if(m_vecHostWnds[i]->IsWindowVisible())

  00bc0	8b 4d f0	 mov	 ecx, DWORD PTR _i$200044[ebp]
  00bc3	51		 push	 ecx
  00bc4	8b 4d cc	 mov	 ecx, DWORD PTR _this$[ebp]
  00bc7	83 c1 0c	 add	 ecx, 12			; 0000000cH
  00bca	e8 00 00 00 00	 call	 ??A?$vector@PAVCHostWnd@@V?$allocator@PAVCHostWnd@@@std@@@std@@QAEAAPAVCHostWnd@@I@Z ; std::vector<CHostWnd *,std::allocator<CHostWnd *> >::operator[]
  00bcf	8b 08		 mov	 ecx, DWORD PTR [eax]
  00bd1	e8 00 00 00 00	 call	 ?IsWindowVisible@CWnd@@QBEHXZ ; CWnd::IsWindowVisible
  00bd6	85 c0		 test	 eax, eax
  00bd8	74 02		 je	 SHORT $L200048

; 238  : 			{
; 239  : 				break;

  00bda	eb 02		 jmp	 SHORT $L200047
$L200048:

; 240  : 			}
; 241  : 		}

  00bdc	eb c9		 jmp	 SHORT $L200046
$L200047:

; 242  : 		//
; 243  : 		if(i == m_vecHostWnds.size())

  00bde	8b 4d cc	 mov	 ecx, DWORD PTR _this$[ebp]
  00be1	83 c1 0c	 add	 ecx, 12			; 0000000cH
  00be4	e8 00 00 00 00	 call	 ?size@?$vector@PAVCHostWnd@@V?$allocator@PAVCHostWnd@@@std@@@std@@QBEIXZ ; std::vector<CHostWnd *,std::allocator<CHostWnd *> >::size
  00be9	39 45 f0	 cmp	 DWORD PTR _i$200044[ebp], eax
  00bec	75 05		 jne	 SHORT $L200043

; 244  : 		{
; 245  : 			return;

  00bee	e9 73 01 00 00	 jmp	 $L200041
$L200043:

; 246  : 		}
; 247  : 	}
; 248  : 
; 249  : 	if(bShow)

  00bf3	83 7d 08 00	 cmp	 DWORD PTR _bShow$[ebp], 0
  00bf7	74 43		 je	 SHORT $L200050

; 250  : 	{
; 251  : 		for(int i = 0 ; i<m_vecHostWnds.size(); i++)

  00bf9	c7 45 ec 00 00
	00 00		 mov	 DWORD PTR _i$200051[ebp], 0
  00c00	eb 09		 jmp	 SHORT $L200052
$L200053:
  00c02	8b 55 ec	 mov	 edx, DWORD PTR _i$200051[ebp]
  00c05	83 c2 01	 add	 edx, 1
  00c08	89 55 ec	 mov	 DWORD PTR _i$200051[ebp], edx
$L200052:
  00c0b	8b 4d cc	 mov	 ecx, DWORD PTR _this$[ebp]
  00c0e	83 c1 0c	 add	 ecx, 12			; 0000000cH
  00c11	e8 00 00 00 00	 call	 ?size@?$vector@PAVCHostWnd@@V?$allocator@PAVCHostWnd@@@std@@@std@@QBEIXZ ; std::vector<CHostWnd *,std::allocator<CHostWnd *> >::size
  00c16	39 45 ec	 cmp	 DWORD PTR _i$200051[ebp], eax
  00c19	73 21		 jae	 SHORT $L200050

; 252  : 		{
; 253  : 			//
; 254  : 			if(m_vecHostWnds[i]->IsWindowVisible())

  00c1b	8b 45 ec	 mov	 eax, DWORD PTR _i$200051[ebp]
  00c1e	50		 push	 eax
  00c1f	8b 4d cc	 mov	 ecx, DWORD PTR _this$[ebp]
  00c22	83 c1 0c	 add	 ecx, 12			; 0000000cH
  00c25	e8 00 00 00 00	 call	 ??A?$vector@PAVCHostWnd@@V?$allocator@PAVCHostWnd@@@std@@@std@@QAEAAPAVCHostWnd@@I@Z ; std::vector<CHostWnd *,std::allocator<CHostWnd *> >::operator[]
  00c2a	8b 08		 mov	 ecx, DWORD PTR [eax]
  00c2c	e8 00 00 00 00	 call	 ?IsWindowVisible@CWnd@@QBEHXZ ; CWnd::IsWindowVisible
  00c31	85 c0		 test	 eax, eax
  00c33	74 05		 je	 SHORT $L200055

; 255  : 			{
; 256  : 				return;

  00c35	e9 2c 01 00 00	 jmp	 $L200041
$L200055:

; 257  : 			}
; 258  : 		}

  00c3a	eb c6		 jmp	 SHORT $L200053
$L200050:

; 259  : 	}
; 260  : 
; 261  : 	if(bShow)

  00c3c	83 7d 08 00	 cmp	 DWORD PTR _bShow$[ebp], 0
  00c40	0f 84 90 00 00
	00		 je	 $L200056

; 262  : 	{
; 263  : 		ShowPopupWndsBeforeMainChange(true);

  00c46	6a 01		 push	 1
  00c48	8b 4d cc	 mov	 ecx, DWORD PTR _this$[ebp]
  00c4b	e8 00 00 00 00	 call	 ?ShowPopupWndsBeforeMainChange@CHostWndMgr@@QAEXH@Z ; CHostWndMgr::ShowPopupWndsBeforeMainChange

; 264  : 		for(int i = 0 ; i<m_vecVisibleWnds.size(); i++)

  00c50	c7 45 e8 00 00
	00 00		 mov	 DWORD PTR _i$200057[ebp], 0
  00c57	eb 09		 jmp	 SHORT $L200058
$L200059:
  00c59	8b 4d e8	 mov	 ecx, DWORD PTR _i$200057[ebp]
  00c5c	83 c1 01	 add	 ecx, 1
  00c5f	89 4d e8	 mov	 DWORD PTR _i$200057[ebp], ecx
$L200058:
  00c62	8b 4d cc	 mov	 ecx, DWORD PTR _this$[ebp]
  00c65	83 c1 1c	 add	 ecx, 28			; 0000001cH
  00c68	e8 00 00 00 00	 call	 ?size@?$vector@PAVCHostWnd@@V?$allocator@PAVCHostWnd@@@std@@@std@@QBEIXZ ; std::vector<CHostWnd *,std::allocator<CHostWnd *> >::size
  00c6d	39 45 e8	 cmp	 DWORD PTR _i$200057[ebp], eax
  00c70	73 1a		 jae	 SHORT $L200060

; 265  : 			m_vecVisibleWnds[i]->ShowWindow(SW_SHOW);

  00c72	6a 05		 push	 5
  00c74	8b 55 e8	 mov	 edx, DWORD PTR _i$200057[ebp]
  00c77	52		 push	 edx
  00c78	8b 4d cc	 mov	 ecx, DWORD PTR _this$[ebp]
  00c7b	83 c1 1c	 add	 ecx, 28			; 0000001cH
  00c7e	e8 00 00 00 00	 call	 ??A?$vector@PAVCHostWnd@@V?$allocator@PAVCHostWnd@@@std@@@std@@QAEAAPAVCHostWnd@@I@Z ; std::vector<CHostWnd *,std::allocator<CHostWnd *> >::operator[]
  00c83	8b 08		 mov	 ecx, DWORD PTR [eax]
  00c85	e8 00 00 00 00	 call	 ?ShowWindow@CWnd@@QAEHH@Z ; CWnd::ShowWindow
  00c8a	eb cd		 jmp	 SHORT $L200059
$L200060:

; 266  : 
; 267  : 		if( i == 0)

  00c8c	83 7d e8 00	 cmp	 DWORD PTR _i$200057[ebp], 0
  00c90	75 35		 jne	 SHORT $L200061

; 268  : 		{
; 269  : 			CString str;

  00c92	8d 4d d4	 lea	 ecx, DWORD PTR _str$200062[ebp]
  00c95	ff 15 00 00 00
	00		 call	 DWORD PTR __imp_??0?$CStringT@DV?$StrTraitMFC_DLL@DV?$ChTraitsCRT@D@ATL@@@@@ATL@@QAE@XZ
  00c9b	c7 45 fc 00 00
	00 00		 mov	 DWORD PTR __$EHRec$[ebp+8], 0

; 270  : 			CRect rc;

  00ca2	8d 4d d8	 lea	 ecx, DWORD PTR _rc$200063[ebp]
  00ca5	e8 00 00 00 00	 call	 ??0CRect@@QAE@XZ	; CRect::CRect

; 271  : 			m_pMainWnd->ShowWindow(SW_SHOW);

  00caa	6a 05		 push	 5
  00cac	8b 45 cc	 mov	 eax, DWORD PTR _this$[ebp]
  00caf	8b 48 3c	 mov	 ecx, DWORD PTR [eax+60]
  00cb2	e8 00 00 00 00	 call	 ?ShowWindow@CWnd@@QAEHH@Z ; CWnd::ShowWindow

; 272  : 		}

  00cb7	c7 45 fc ff ff
	ff ff		 mov	 DWORD PTR __$EHRec$[ebp+8], -1
  00cbe	8d 4d d4	 lea	 ecx, DWORD PTR _str$200062[ebp]
  00cc1	ff 15 00 00 00
	00		 call	 DWORD PTR __imp_??1?$CStringT@DV?$StrTraitMFC_DLL@DV?$ChTraitsCRT@D@ATL@@@@@ATL@@QAE@XZ
$L200061:

; 273  : 		ShowPopupWndsAfterMainChange(true);

  00cc7	6a 01		 push	 1
  00cc9	8b 4d cc	 mov	 ecx, DWORD PTR _this$[ebp]
  00ccc	e8 00 00 00 00	 call	 ?ShowPopupWndsAfterMainChange@CHostWndMgr@@QAEXH@Z ; CHostWndMgr::ShowPopupWndsAfterMainChange

; 274  : 	}
; 275  : 	else

  00cd1	e9 90 00 00 00	 jmp	 $L200041
$L200056:

; 276  : 	{
; 277  : 		ShowPopupWndsBeforeMainChange(false);

  00cd6	6a 00		 push	 0
  00cd8	8b 4d cc	 mov	 ecx, DWORD PTR _this$[ebp]
  00cdb	e8 00 00 00 00	 call	 ?ShowPopupWndsBeforeMainChange@CHostWndMgr@@QAEXH@Z ; CHostWndMgr::ShowPopupWndsBeforeMainChange

; 278  : 		m_vecVisibleWnds.clear();

  00ce0	8b 4d cc	 mov	 ecx, DWORD PTR _this$[ebp]
  00ce3	83 c1 1c	 add	 ecx, 28			; 0000001cH
  00ce6	e8 00 00 00 00	 call	 ?clear@?$vector@PAVCHostWnd@@V?$allocator@PAVCHostWnd@@@std@@@std@@QAEXXZ ; std::vector<CHostWnd *,std::allocator<CHostWnd *> >::clear

; 279  : 		for(int i = 0 ; i<m_vecHostWnds.size(); i++)

  00ceb	c7 45 d0 00 00
	00 00		 mov	 DWORD PTR _i$200065[ebp], 0
  00cf2	eb 09		 jmp	 SHORT $L200066
$L200067:
  00cf4	8b 4d d0	 mov	 ecx, DWORD PTR _i$200065[ebp]
  00cf7	83 c1 01	 add	 ecx, 1
  00cfa	89 4d d0	 mov	 DWORD PTR _i$200065[ebp], ecx
$L200066:
  00cfd	8b 4d cc	 mov	 ecx, DWORD PTR _this$[ebp]
  00d00	83 c1 0c	 add	 ecx, 12			; 0000000cH
  00d03	e8 00 00 00 00	 call	 ?size@?$vector@PAVCHostWnd@@V?$allocator@PAVCHostWnd@@@std@@@std@@QBEIXZ ; std::vector<CHostWnd *,std::allocator<CHostWnd *> >::size
  00d08	39 45 d0	 cmp	 DWORD PTR _i$200065[ebp], eax
  00d0b	73 4f		 jae	 SHORT $L200068

; 280  : 		{
; 281  : 			if(m_vecHostWnds[i]->IsWindowVisible())

  00d0d	8b 55 d0	 mov	 edx, DWORD PTR _i$200065[ebp]
  00d10	52		 push	 edx
  00d11	8b 4d cc	 mov	 ecx, DWORD PTR _this$[ebp]
  00d14	83 c1 0c	 add	 ecx, 12			; 0000000cH
  00d17	e8 00 00 00 00	 call	 ??A?$vector@PAVCHostWnd@@V?$allocator@PAVCHostWnd@@@std@@@std@@QAEAAPAVCHostWnd@@I@Z ; std::vector<CHostWnd *,std::allocator<CHostWnd *> >::operator[]
  00d1c	8b 08		 mov	 ecx, DWORD PTR [eax]
  00d1e	e8 00 00 00 00	 call	 ?IsWindowVisible@CWnd@@QBEHXZ ; CWnd::IsWindowVisible
  00d23	85 c0		 test	 eax, eax
  00d25	74 33		 je	 SHORT $L200069

; 282  : 			{
; 283  : 				m_vecVisibleWnds.push_back(m_vecHostWnds[i]);

  00d27	8b 45 d0	 mov	 eax, DWORD PTR _i$200065[ebp]
  00d2a	50		 push	 eax
  00d2b	8b 4d cc	 mov	 ecx, DWORD PTR _this$[ebp]
  00d2e	83 c1 0c	 add	 ecx, 12			; 0000000cH
  00d31	e8 00 00 00 00	 call	 ??A?$vector@PAVCHostWnd@@V?$allocator@PAVCHostWnd@@@std@@@std@@QAEAAPAVCHostWnd@@I@Z ; std::vector<CHostWnd *,std::allocator<CHostWnd *> >::operator[]
  00d36	50		 push	 eax
  00d37	8b 4d cc	 mov	 ecx, DWORD PTR _this$[ebp]
  00d3a	83 c1 1c	 add	 ecx, 28			; 0000001cH
  00d3d	e8 00 00 00 00	 call	 ?push_back@?$vector@PAVCHostWnd@@V?$allocator@PAVCHostWnd@@@std@@@std@@QAEXABQAVCHostWnd@@@Z ; std::vector<CHostWnd *,std::allocator<CHostWnd *> >::push_back

; 284  : 				m_vecHostWnds[i]->ShowWindow(SW_HIDE);

  00d42	6a 00		 push	 0
  00d44	8b 4d d0	 mov	 ecx, DWORD PTR _i$200065[ebp]
  00d47	51		 push	 ecx
  00d48	8b 4d cc	 mov	 ecx, DWORD PTR _this$[ebp]
  00d4b	83 c1 0c	 add	 ecx, 12			; 0000000cH
  00d4e	e8 00 00 00 00	 call	 ??A?$vector@PAVCHostWnd@@V?$allocator@PAVCHostWnd@@@std@@@std@@QAEAAPAVCHostWnd@@I@Z ; std::vector<CHostWnd *,std::allocator<CHostWnd *> >::operator[]
  00d53	8b 08		 mov	 ecx, DWORD PTR [eax]
  00d55	e8 00 00 00 00	 call	 ?ShowWindow@CWnd@@QAEHH@Z ; CWnd::ShowWindow
$L200069:

; 285  : 			}
; 286  : 		}

  00d5a	eb 98		 jmp	 SHORT $L200067
$L200068:

; 287  : 		ShowPopupWndsAfterMainChange(false);

  00d5c	6a 00		 push	 0
  00d5e	8b 4d cc	 mov	 ecx, DWORD PTR _this$[ebp]
  00d61	e8 00 00 00 00	 call	 ?ShowPopupWndsAfterMainChange@CHostWndMgr@@QAEXH@Z ; CHostWndMgr::ShowPopupWndsAfterMainChange
$L200041:

; 288  : 	}
; 289  : }

  00d66	8b 4d f4	 mov	 ecx, DWORD PTR __$EHRec$[ebp]
  00d69	64 89 0d 00 00
	00 00		 mov	 DWORD PTR fs:__except_list, ecx
  00d70	8b e5		 mov	 esp, ebp
  00d72	5d		 pop	 ebp
  00d73	c2 04 00	 ret	 4
_TEXT	ENDS
text$x	SEGMENT
$L202606:
  0013d	8d 4d d4	 lea	 ecx, DWORD PTR _str$200062[ebp]
  00140	ff 25 00 00 00
	00		 jmp	 DWORD PTR __imp_??1?$CStringT@DV?$StrTraitMFC_DLL@DV?$ChTraitsCRT@D@ATL@@@@@ATL@@QAE@XZ
__ehhandler$?ShowHostWindows@CHostWndMgr@@QAEXH@Z:
  00146	b8 00 00 00 00	 mov	 eax, OFFSET FLAT:$T202608
  0014b	e9 00 00 00 00	 jmp	 ___CxxFrameHandler
text$x	ENDS
?ShowHostWindows@CHostWndMgr@@QAEXH@Z ENDP		; CHostWndMgr::ShowHostWindows
; Function compile flags: /Odt
_TEXT	SEGMENT
_this$ = -4						; size = 4
_bShow$ = 8						; size = 4
?ShowPopupWndsBeforeMainChange@CHostWndMgr@@QAEXH@Z PROC NEAR ; CHostWndMgr::ShowPopupWndsBeforeMainChange
; _this$ = ecx

; 292  : {

  00d80	55		 push	 ebp
  00d81	8b ec		 mov	 ebp, esp
  00d83	51		 push	 ecx
  00d84	89 4d fc	 mov	 DWORD PTR _this$[ebp], ecx

; 293  : }

  00d87	8b e5		 mov	 esp, ebp
  00d89	5d		 pop	 ebp
  00d8a	c2 04 00	 ret	 4
?ShowPopupWndsBeforeMainChange@CHostWndMgr@@QAEXH@Z ENDP ; CHostWndMgr::ShowPopupWndsBeforeMainChange
; Function compile flags: /Odt
_this$ = -4						; size = 4
_bShow$ = 8						; size = 4
?ShowPopupWndsAfterMainChange@CHostWndMgr@@QAEXH@Z PROC NEAR ; CHostWndMgr::ShowPopupWndsAfterMainChange
; _this$ = ecx

; 295  : {

  00d90	55		 push	 ebp
  00d91	8b ec		 mov	 ebp, esp
  00d93	51		 push	 ecx
  00d94	89 4d fc	 mov	 DWORD PTR _this$[ebp], ecx

; 296  : 
; 297  : }

  00d97	8b e5		 mov	 esp, ebp
  00d99	5d		 pop	 ebp
  00d9a	c2 04 00	 ret	 4
?ShowPopupWndsAfterMainChange@CHostWndMgr@@QAEXH@Z ENDP	; CHostWndMgr::ShowPopupWndsAfterMainChange
_TEXT	ENDS
PUBLIC	?PopupWndsChangeTo1x@CHostWndMgr@@QAEXXZ	; CHostWndMgr::PopupWndsChangeTo1x
; Function compile flags: /Odt
_TEXT	SEGMENT
_this$ = -4						; size = 4
?PopupWndsChangeTo1x@CHostWndMgr@@QAEXXZ PROC NEAR	; CHostWndMgr::PopupWndsChangeTo1x
; _this$ = ecx

; 299  : {

  00da0	55		 push	 ebp
  00da1	8b ec		 mov	 ebp, esp
  00da3	51		 push	 ecx
  00da4	89 4d fc	 mov	 DWORD PTR _this$[ebp], ecx

; 300  : 
; 301  : }

  00da7	8b e5		 mov	 esp, ebp
  00da9	5d		 pop	 ebp
  00daa	c3		 ret	 0
?PopupWndsChangeTo1x@CHostWndMgr@@QAEXXZ ENDP		; CHostWndMgr::PopupWndsChangeTo1x
_TEXT	ENDS
PUBLIC	?PopupWndsChangeTo2x@CHostWndMgr@@QAEXXZ	; CHostWndMgr::PopupWndsChangeTo2x
; Function compile flags: /Odt
_TEXT	SEGMENT
_this$ = -4						; size = 4
?PopupWndsChangeTo2x@CHostWndMgr@@QAEXXZ PROC NEAR	; CHostWndMgr::PopupWndsChangeTo2x
; _this$ = ecx

; 303  : {

  00db0	55		 push	 ebp
  00db1	8b ec		 mov	 ebp, esp
  00db3	51		 push	 ecx
  00db4	89 4d fc	 mov	 DWORD PTR _this$[ebp], ecx

; 304  : }

  00db7	8b e5		 mov	 esp, ebp
  00db9	5d		 pop	 ebp
  00dba	c3		 ret	 0
?PopupWndsChangeTo2x@CHostWndMgr@@QAEXXZ ENDP		; CHostWndMgr::PopupWndsChangeTo2x
_TEXT	ENDS
PUBLIC	??0?$allocator@U?$pair@QAUHWND__@@UCWndData@@@std@@@std@@QAE@XZ ; std::allocator<std::pair<HWND__ * const,CWndData> >::allocator<std::pair<HWND__ * const,CWndData> >
PUBLIC	??0?$_Tree@V?$_Tmap_traits@PAUHWND__@@UCWndData@@U?$less@PAUHWND__@@@std@@V?$allocator@U?$pair@QAUHWND__@@UCWndData@@@std@@@4@$0A@@std@@@std@@QAE@ABU?$less@PAUHWND__@@@1@ABV?$allocator@U?$pair@QAUHWND__@@UCWndData@@@std@@@1@@Z ; std::_Tree<std::_Tmap_traits<HWND__ *,CWndData,std::less<HWND__ *>,std::allocator<std::pair<HWND__ * const,CWndData> >,0> >::_Tree<std::_Tmap_traits<HWND__ *,CWndData,std::less<HWND__ *>,std::allocator<std::pair<HWND__ * const,CWndData> >,0> >
; Function compile flags: /Odt
; File d:\program files (x86)\microsoft visual studio .net 2003\vc7\include\map
;	COMDAT ??0?$map@PAUHWND__@@UCWndData@@U?$less@PAUHWND__@@@std@@V?$allocator@U?$pair@QAUHWND__@@UCWndData@@@std@@@4@@std@@QAE@XZ
_TEXT	SEGMENT
_this$ = -8						; size = 4
$T202617 = -2						; size = 1
$T202616 = -1						; size = 1
??0?$map@PAUHWND__@@UCWndData@@U?$less@PAUHWND__@@@std@@V?$allocator@U?$pair@QAUHWND__@@UCWndData@@@std@@@4@@std@@QAE@XZ PROC NEAR ; std::map<HWND__ *,CWndData,std::less<HWND__ *>,std::allocator<std::pair<HWND__ * const,CWndData> > >::map<HWND__ *,CWndData,std::less<HWND__ *>,std::allocator<std::pair<HWND__ * const,CWndData> > >, COMDAT
; _this$ = ecx

; 102  : 		{	// construct empty map from defaults

  00000	55		 push	 ebp
  00001	8b ec		 mov	 ebp, esp
  00003	83 ec 08	 sub	 esp, 8
  00006	89 4d f8	 mov	 DWORD PTR _this$[ebp], ecx
  00009	8d 4d ff	 lea	 ecx, DWORD PTR $T202616[ebp]
  0000c	e8 00 00 00 00	 call	 ??0?$allocator@U?$pair@QAUHWND__@@UCWndData@@@std@@@std@@QAE@XZ ; std::allocator<std::pair<HWND__ * const,CWndData> >::allocator<std::pair<HWND__ * const,CWndData> >
  00011	50		 push	 eax
  00012	8d 45 fe	 lea	 eax, DWORD PTR $T202617[ebp]
  00015	50		 push	 eax
  00016	8b 4d f8	 mov	 ecx, DWORD PTR _this$[ebp]
  00019	e8 00 00 00 00	 call	 ??0?$_Tree@V?$_Tmap_traits@PAUHWND__@@UCWndData@@U?$less@PAUHWND__@@@std@@V?$allocator@U?$pair@QAUHWND__@@UCWndData@@@std@@@4@$0A@@std@@@std@@QAE@ABU?$less@PAUHWND__@@@1@ABV?$allocator@U?$pair@QAUHWND__@@UCWndData@@@std@@@1@@Z ; std::_Tree<std::_Tmap_traits<HWND__ *,CWndData,std::less<HWND__ *>,std::allocator<std::pair<HWND__ * const,CWndData> >,0> >::_Tree<std::_Tmap_traits<HWND__ *,CWndData,std::less<HWND__ *>,std::allocator<std::pair<HWND__ * const,CWndData> >,0> >

; 103  : 		}

  0001e	8b 45 f8	 mov	 eax, DWORD PTR _this$[ebp]
  00021	8b e5		 mov	 esp, ebp
  00023	5d		 pop	 ebp
  00024	c3		 ret	 0
??0?$map@PAUHWND__@@UCWndData@@U?$less@PAUHWND__@@@std@@V?$allocator@U?$pair@QAUHWND__@@UCWndData@@@std@@@4@@std@@QAE@XZ ENDP ; std::map<HWND__ *,CWndData,std::less<HWND__ *>,std::allocator<std::pair<HWND__ * const,CWndData> > >::map<HWND__ *,CWndData,std::less<HWND__ *>,std::allocator<std::pair<HWND__ * const,CWndData> > >
_TEXT	ENDS
PUBLIC	??8const_iterator@?$_Tree@V?$_Tmap_traits@PAUHWND__@@UCWndData@@U?$less@PAUHWND__@@@std@@V?$allocator@U?$pair@QAUHWND__@@UCWndData@@@std@@@4@$0A@@std@@@std@@QBE_NABV012@@Z ; std::_Tree<std::_Tmap_traits<HWND__ *,CWndData,std::less<HWND__ *>,std::allocator<std::pair<HWND__ * const,CWndData> >,0> >::const_iterator::operator==
PUBLIC	?_Mynode@const_iterator@?$_Tree@V?$_Tmap_traits@PAUHWND__@@UCWndData@@U?$less@PAUHWND__@@@std@@V?$allocator@U?$pair@QAUHWND__@@UCWndData@@@std@@@4@$0A@@std@@@std@@QBEPAU_Node@?$_Tree_nod@V?$_Tmap_traits@PAUHWND__@@UCWndData@@U?$less@PAUHWND__@@@std@@V?$allocator@U?$pair@QAUHWND__@@UCWndData@@@std@@@4@$0A@@std@@@3@XZ ; std::_Tree<std::_Tmap_traits<HWND__ *,CWndData,std::less<HWND__ *>,std::allocator<std::pair<HWND__ * const,CWndData> >,0> >::const_iterator::_Mynode
PUBLIC	??Diterator@?$_Tree@V?$_Tmap_traits@PAUHWND__@@UCWndData@@U?$less@PAUHWND__@@@std@@V?$allocator@U?$pair@QAUHWND__@@UCWndData@@@std@@@4@$0A@@std@@@std@@QBEAAU?$pair@QAUHWND__@@UCWndData@@@2@XZ ; std::_Tree<std::_Tmap_traits<HWND__ *,CWndData,std::less<HWND__ *>,std::allocator<std::pair<HWND__ * const,CWndData> >,0> >::iterator::operator*
PUBLIC	??R?$less@PAUHWND__@@@std@@QBE_NABQAUHWND__@@0@Z ; std::less<HWND__ *>::operator()
PUBLIC	??0?$pair@QAUHWND__@@UCWndData@@@std@@QAE@ABQAUHWND__@@ABUCWndData@@@Z ; std::pair<HWND__ * const,CWndData>::pair<HWND__ * const,CWndData>
PUBLIC	?_Key@?$_Tree@V?$_Tmap_traits@PAUHWND__@@UCWndData@@U?$less@PAUHWND__@@@std@@V?$allocator@U?$pair@QAUHWND__@@UCWndData@@@std@@@4@$0A@@std@@@std@@KAABQAUHWND__@@PAU_Node@?$_Tree_nod@V?$_Tmap_traits@PAUHWND__@@UCWndData@@U?$less@PAUHWND__@@@std@@V?$allocator@U?$pair@QAUHWND__@@UCWndData@@@std@@@4@$0A@@std@@@2@@Z ; std::_Tree<std::_Tmap_traits<HWND__ *,CWndData,std::less<HWND__ *>,std::allocator<std::pair<HWND__ * const,CWndData> >,0> >::_Key
PUBLIC	?insert@?$_Tree@V?$_Tmap_traits@PAUHWND__@@UCWndData@@U?$less@PAUHWND__@@@std@@V?$allocator@U?$pair@QAUHWND__@@UCWndData@@@std@@@4@$0A@@std@@@std@@QAE?AViterator@12@V312@ABU?$pair@QAUHWND__@@UCWndData@@@2@@Z ; std::_Tree<std::_Tmap_traits<HWND__ *,CWndData,std::less<HWND__ *>,std::allocator<std::pair<HWND__ * const,CWndData> >,0> >::insert
PUBLIC	?lower_bound@?$_Tree@V?$_Tmap_traits@PAUHWND__@@UCWndData@@U?$less@PAUHWND__@@@std@@V?$allocator@U?$pair@QAUHWND__@@UCWndData@@@std@@@4@$0A@@std@@@std@@QAE?AViterator@12@ABQAUHWND__@@@Z ; std::_Tree<std::_Tmap_traits<HWND__ *,CWndData,std::less<HWND__ *>,std::allocator<std::pair<HWND__ * const,CWndData> >,0> >::lower_bound
; Function compile flags: /Odt
;	COMDAT ??A?$map@PAUHWND__@@UCWndData@@U?$less@PAUHWND__@@@std@@V?$allocator@U?$pair@QAUHWND__@@UCWndData@@@std@@@4@@std@@QAEAAUCWndData@@ABQAUHWND__@@@Z
_TEXT	SEGMENT
_this$ = -36						; size = 4
$T202624 = -32						; size = 4
$T202623 = -28						; size = 8
$T202622 = -20						; size = 12
$T202621 = -8						; size = 4
__Where$ = -4						; size = 4
__Keyval$ = 8						; size = 4
??A?$map@PAUHWND__@@UCWndData@@U?$less@PAUHWND__@@@std@@V?$allocator@U?$pair@QAUHWND__@@UCWndData@@@std@@@4@@std@@QAEAAUCWndData@@ABQAUHWND__@@@Z PROC NEAR ; std::map<HWND__ *,CWndData,std::less<HWND__ *>,std::allocator<std::pair<HWND__ * const,CWndData> > >::operator[], COMDAT
; _this$ = ecx

; 142  : 		{	// find element matching _Keyval or insert with default mapped

  00000	55		 push	 ebp
  00001	8b ec		 mov	 ebp, esp
  00003	83 ec 24	 sub	 esp, 36			; 00000024H
  00006	89 4d dc	 mov	 DWORD PTR _this$[ebp], ecx

; 143  : 		iterator _Where = this->lower_bound(_Keyval);

  00009	8b 45 08	 mov	 eax, DWORD PTR __Keyval$[ebp]
  0000c	50		 push	 eax
  0000d	8d 4d fc	 lea	 ecx, DWORD PTR __Where$[ebp]
  00010	51		 push	 ecx
  00011	8b 4d dc	 mov	 ecx, DWORD PTR _this$[ebp]
  00014	e8 00 00 00 00	 call	 ?lower_bound@?$_Tree@V?$_Tmap_traits@PAUHWND__@@UCWndData@@U?$less@PAUHWND__@@@std@@V?$allocator@U?$pair@QAUHWND__@@UCWndData@@@std@@@4@$0A@@std@@@std@@QAE?AViterator@12@ABQAUHWND__@@@Z ; std::_Tree<std::_Tmap_traits<HWND__ *,CWndData,std::less<HWND__ *>,std::allocator<std::pair<HWND__ * const,CWndData> >,0> >::lower_bound

; 144  : 		if (_Where == this->end() || this->comp(_Keyval, this->_Key(_Where._Mynode())))

  00019	8d 55 f8	 lea	 edx, DWORD PTR $T202621[ebp]
  0001c	52		 push	 edx
  0001d	8b 4d dc	 mov	 ecx, DWORD PTR _this$[ebp]
  00020	e8 00 00 00 00	 call	 ?end@?$_Tree@V?$_Tmap_traits@PAUHWND__@@UCWndData@@U?$less@PAUHWND__@@@std@@V?$allocator@U?$pair@QAUHWND__@@UCWndData@@@std@@@4@$0A@@std@@@std@@QAE?AViterator@12@XZ ; std::_Tree<std::_Tmap_traits<HWND__ *,CWndData,std::less<HWND__ *>,std::allocator<std::pair<HWND__ * const,CWndData> >,0> >::end
  00025	50		 push	 eax
  00026	8d 4d fc	 lea	 ecx, DWORD PTR __Where$[ebp]
  00029	e8 00 00 00 00	 call	 ??8const_iterator@?$_Tree@V?$_Tmap_traits@PAUHWND__@@UCWndData@@U?$less@PAUHWND__@@@std@@V?$allocator@U?$pair@QAUHWND__@@UCWndData@@@std@@@4@$0A@@std@@@std@@QBE_NABV012@@Z ; std::_Tree<std::_Tmap_traits<HWND__ *,CWndData,std::less<HWND__ *>,std::allocator<std::pair<HWND__ * const,CWndData> >,0> >::const_iterator::operator==
  0002e	0f b6 c0	 movzx	 eax, al
  00031	85 c0		 test	 eax, eax
  00033	75 25		 jne	 SHORT $L200154
  00035	8d 4d fc	 lea	 ecx, DWORD PTR __Where$[ebp]
  00038	e8 00 00 00 00	 call	 ?_Mynode@const_iterator@?$_Tree@V?$_Tmap_traits@PAUHWND__@@UCWndData@@U?$less@PAUHWND__@@@std@@V?$allocator@U?$pair@QAUHWND__@@UCWndData@@@std@@@4@$0A@@std@@@std@@QBEPAU_Node@?$_Tree_nod@V?$_Tmap_traits@PAUHWND__@@UCWndData@@U?$less@PAUHWND__@@@std@@V?$allocator@U?$pair@QAUHWND__@@UCWndData@@@std@@@4@$0A@@std@@@3@XZ ; std::_Tree<std::_Tmap_traits<HWND__ *,CWndData,std::less<HWND__ *>,std::allocator<std::pair<HWND__ * const,CWndData> >,0> >::const_iterator::_Mynode
  0003d	50		 push	 eax
  0003e	e8 00 00 00 00	 call	 ?_Key@?$_Tree@V?$_Tmap_traits@PAUHWND__@@UCWndData@@U?$less@PAUHWND__@@@std@@V?$allocator@U?$pair@QAUHWND__@@UCWndData@@@std@@@4@$0A@@std@@@std@@KAABQAUHWND__@@PAU_Node@?$_Tree_nod@V?$_Tmap_traits@PAUHWND__@@UCWndData@@U?$less@PAUHWND__@@@std@@V?$allocator@U?$pair@QAUHWND__@@UCWndData@@@std@@@4@$0A@@std@@@2@@Z ; std::_Tree<std::_Tmap_traits<HWND__ *,CWndData,std::less<HWND__ *>,std::allocator<std::pair<HWND__ * const,CWndData> >,0> >::_Key
  00043	83 c4 04	 add	 esp, 4
  00046	50		 push	 eax
  00047	8b 4d 08	 mov	 ecx, DWORD PTR __Keyval$[ebp]
  0004a	51		 push	 ecx
  0004b	8b 4d dc	 mov	 ecx, DWORD PTR _this$[ebp]
  0004e	e8 00 00 00 00	 call	 ??R?$less@PAUHWND__@@@std@@QBE_NABQAUHWND__@@0@Z ; std::less<HWND__ *>::operator()
  00053	0f b6 d0	 movzx	 edx, al
  00056	85 d2		 test	 edx, edx
  00058	74 2e		 je	 SHORT $L200153
$L200154:

; 145  : 			_Where = this->insert(_Where,
; 146  : 				value_type(_Keyval, mapped_type()));

  0005a	33 c0		 xor	 eax, eax
  0005c	89 45 e4	 mov	 DWORD PTR $T202623[ebp], eax
  0005f	89 45 e8	 mov	 DWORD PTR $T202623[ebp+4], eax
  00062	8d 4d e4	 lea	 ecx, DWORD PTR $T202623[ebp]
  00065	51		 push	 ecx
  00066	8b 55 08	 mov	 edx, DWORD PTR __Keyval$[ebp]
  00069	52		 push	 edx
  0006a	8d 4d ec	 lea	 ecx, DWORD PTR $T202622[ebp]
  0006d	e8 00 00 00 00	 call	 ??0?$pair@QAUHWND__@@UCWndData@@@std@@QAE@ABQAUHWND__@@ABUCWndData@@@Z ; std::pair<HWND__ * const,CWndData>::pair<HWND__ * const,CWndData>
  00072	50		 push	 eax
  00073	8b 45 fc	 mov	 eax, DWORD PTR __Where$[ebp]
  00076	50		 push	 eax
  00077	8d 4d e0	 lea	 ecx, DWORD PTR $T202624[ebp]
  0007a	51		 push	 ecx
  0007b	8b 4d dc	 mov	 ecx, DWORD PTR _this$[ebp]
  0007e	e8 00 00 00 00	 call	 ?insert@?$_Tree@V?$_Tmap_traits@PAUHWND__@@UCWndData@@U?$less@PAUHWND__@@@std@@V?$allocator@U?$pair@QAUHWND__@@UCWndData@@@std@@@4@$0A@@std@@@std@@QAE?AViterator@12@V312@ABU?$pair@QAUHWND__@@UCWndData@@@2@@Z ; std::_Tree<std::_Tmap_traits<HWND__ *,CWndData,std::less<HWND__ *>,std::allocator<std::pair<HWND__ * const,CWndData> >,0> >::insert
  00083	8b 10		 mov	 edx, DWORD PTR [eax]
  00085	89 55 fc	 mov	 DWORD PTR __Where$[ebp], edx
$L200153:

; 147  : 		return ((*_Where).second);

  00088	8d 4d fc	 lea	 ecx, DWORD PTR __Where$[ebp]
  0008b	e8 00 00 00 00	 call	 ??Diterator@?$_Tree@V?$_Tmap_traits@PAUHWND__@@UCWndData@@U?$less@PAUHWND__@@@std@@V?$allocator@U?$pair@QAUHWND__@@UCWndData@@@std@@@4@$0A@@std@@@std@@QBEAAU?$pair@QAUHWND__@@UCWndData@@@2@XZ ; std::_Tree<std::_Tmap_traits<HWND__ *,CWndData,std::less<HWND__ *>,std::allocator<std::pair<HWND__ * const,CWndData> >,0> >::iterator::operator*
  00090	83 c0 04	 add	 eax, 4

; 148  : 		}

  00093	8b e5		 mov	 esp, ebp
  00095	5d		 pop	 ebp
  00096	c2 04 00	 ret	 4
??A?$map@PAUHWND__@@UCWndData@@U?$less@PAUHWND__@@@std@@V?$allocator@U?$pair@QAUHWND__@@UCWndData@@@std@@@4@@std@@QAEAAUCWndData@@ABQAUHWND__@@@Z ENDP ; std::map<HWND__ *,CWndData,std::less<HWND__ *>,std::allocator<std::pair<HWND__ * const,CWndData> > >::operator[]
_TEXT	ENDS
PUBLIC	?_Tidy@?$_Tree@V?$_Tmap_traits@PAUHWND__@@UCWndData@@U?$less@PAUHWND__@@@std@@V?$allocator@U?$pair@QAUHWND__@@UCWndData@@@std@@@4@$0A@@std@@@std@@IAEXXZ ; std::_Tree<std::_Tmap_traits<HWND__ *,CWndData,std::less<HWND__ *>,std::allocator<std::pair<HWND__ * const,CWndData> >,0> >::_Tidy
; Function compile flags: /Odt
; File d:\program files (x86)\microsoft visual studio .net 2003\vc7\include\xtree
;	COMDAT ??1?$_Tree@V?$_Tmap_traits@PAUHWND__@@UCWndData@@U?$less@PAUHWND__@@@std@@V?$allocator@U?$pair@QAUHWND__@@UCWndData@@@std@@@4@$0A@@std@@@std@@QAE@XZ
_TEXT	SEGMENT
_this$ = -4						; size = 4
??1?$_Tree@V?$_Tmap_traits@PAUHWND__@@UCWndData@@U?$less@PAUHWND__@@@std@@V?$allocator@U?$pair@QAUHWND__@@UCWndData@@@std@@@4@$0A@@std@@@std@@QAE@XZ PROC NEAR ; std::_Tree<std::_Tmap_traits<HWND__ *,CWndData,std::less<HWND__ *>,std::allocator<std::pair<HWND__ * const,CWndData> >,0> >::~_Tree<std::_Tmap_traits<HWND__ *,CWndData,std::less<HWND__ *>,std::allocator<std::pair<HWND__ * const,CWndData> >,0> >, COMDAT
; _this$ = ecx

; 391  : 		{	// destroy tree

  00000	55		 push	 ebp
  00001	8b ec		 mov	 ebp, esp
  00003	51		 push	 ecx
  00004	89 4d fc	 mov	 DWORD PTR _this$[ebp], ecx

; 392  : 		_Tidy();

  00007	8b 4d fc	 mov	 ecx, DWORD PTR _this$[ebp]
  0000a	e8 00 00 00 00	 call	 ?_Tidy@?$_Tree@V?$_Tmap_traits@PAUHWND__@@UCWndData@@U?$less@PAUHWND__@@@std@@V?$allocator@U?$pair@QAUHWND__@@UCWndData@@@std@@@4@$0A@@std@@@std@@IAEXXZ ; std::_Tree<std::_Tmap_traits<HWND__ *,CWndData,std::less<HWND__ *>,std::allocator<std::pair<HWND__ * const,CWndData> >,0> >::_Tidy

; 393  : 		}

  0000f	8b e5		 mov	 esp, ebp
  00011	5d		 pop	 ebp
  00012	c3		 ret	 0
??1?$_Tree@V?$_Tmap_traits@PAUHWND__@@UCWndData@@U?$less@PAUHWND__@@@std@@V?$allocator@U?$pair@QAUHWND__@@UCWndData@@@std@@@4@$0A@@std@@@std@@QAE@XZ ENDP ; std::_Tree<std::_Tmap_traits<HWND__ *,CWndData,std::less<HWND__ *>,std::allocator<std::pair<HWND__ * const,CWndData> >,0> >::~_Tree<std::_Tmap_traits<HWND__ *,CWndData,std::less<HWND__ *>,std::allocator<std::pair<HWND__ * const,CWndData> >,0> >
_TEXT	ENDS
PUBLIC	??0iterator@?$_Tree@V?$_Tmap_traits@PAUHWND__@@UCWndData@@U?$less@PAUHWND__@@@std@@V?$allocator@U?$pair@QAUHWND__@@UCWndData@@@std@@@4@$0A@@std@@@std@@QAE@PAU_Node@?$_Tree_nod@V?$_Tmap_traits@PAUHWND__@@UCWndData@@U?$less@PAUHWND__@@@std@@V?$allocator@U?$pair@QAUHWND__@@UCWndData@@@std@@@4@$0A@@std@@@2@@Z ; std::_Tree<std::_Tmap_traits<HWND__ *,CWndData,std::less<HWND__ *>,std::allocator<std::pair<HWND__ * const,CWndData> >,0> >::iterator::iterator
PUBLIC	?_Lmost@?$_Tree@V?$_Tmap_traits@PAUHWND__@@UCWndData@@U?$less@PAUHWND__@@@std@@V?$allocator@U?$pair@QAUHWND__@@UCWndData@@@std@@@4@$0A@@std@@@std@@IAEAAPAU_Node@?$_Tree_nod@V?$_Tmap_traits@PAUHWND__@@UCWndData@@U?$less@PAUHWND__@@@std@@V?$allocator@U?$pair@QAUHWND__@@UCWndData@@@std@@@4@$0A@@std@@@2@XZ ; std::_Tree<std::_Tmap_traits<HWND__ *,CWndData,std::less<HWND__ *>,std::allocator<std::pair<HWND__ * const,CWndData> >,0> >::_Lmost
; Function compile flags: /Odt
;	COMDAT ?begin@?$_Tree@V?$_Tmap_traits@PAUHWND__@@UCWndData@@U?$less@PAUHWND__@@@std@@V?$allocator@U?$pair@QAUHWND__@@UCWndData@@@std@@@4@$0A@@std@@@std@@QAE?AViterator@12@XZ
_TEXT	SEGMENT
_this$ = -4						; size = 4
___$ReturnUdt$ = 8					; size = 4
?begin@?$_Tree@V?$_Tmap_traits@PAUHWND__@@UCWndData@@U?$less@PAUHWND__@@@std@@V?$allocator@U?$pair@QAUHWND__@@UCWndData@@@std@@@4@$0A@@std@@@std@@QAE?AViterator@12@XZ PROC NEAR ; std::_Tree<std::_Tmap_traits<HWND__ *,CWndData,std::less<HWND__ *>,std::allocator<std::pair<HWND__ * const,CWndData> >,0> >::begin, COMDAT
; _this$ = ecx

; 407  : 		{	// return iterator for beginning of mutable sequence

  00000	55		 push	 ebp
  00001	8b ec		 mov	 ebp, esp
  00003	51		 push	 ecx
  00004	89 4d fc	 mov	 DWORD PTR _this$[ebp], ecx

; 408  : 		return (_TREE_ITERATOR(_Lmost()));

  00007	8b 4d fc	 mov	 ecx, DWORD PTR _this$[ebp]
  0000a	e8 00 00 00 00	 call	 ?_Lmost@?$_Tree@V?$_Tmap_traits@PAUHWND__@@UCWndData@@U?$less@PAUHWND__@@@std@@V?$allocator@U?$pair@QAUHWND__@@UCWndData@@@std@@@4@$0A@@std@@@std@@IAEAAPAU_Node@?$_Tree_nod@V?$_Tmap_traits@PAUHWND__@@UCWndData@@U?$less@PAUHWND__@@@std@@V?$allocator@U?$pair@QAUHWND__@@UCWndData@@@std@@@4@$0A@@std@@@2@XZ ; std::_Tree<std::_Tmap_traits<HWND__ *,CWndData,std::less<HWND__ *>,std::allocator<std::pair<HWND__ * const,CWndData> >,0> >::_Lmost
  0000f	8b 00		 mov	 eax, DWORD PTR [eax]
  00011	50		 push	 eax
  00012	8b 4d 08	 mov	 ecx, DWORD PTR ___$ReturnUdt$[ebp]
  00015	e8 00 00 00 00	 call	 ??0iterator@?$_Tree@V?$_Tmap_traits@PAUHWND__@@UCWndData@@U?$less@PAUHWND__@@@std@@V?$allocator@U?$pair@QAUHWND__@@UCWndData@@@std@@@4@$0A@@std@@@std@@QAE@PAU_Node@?$_Tree_nod@V?$_Tmap_traits@PAUHWND__@@UCWndData@@U?$less@PAUHWND__@@@std@@V?$allocator@U?$pair@QAUHWND__@@UCWndData@@@std@@@4@$0A@@std@@@2@@Z ; std::_Tree<std::_Tmap_traits<HWND__ *,CWndData,std::less<HWND__ *>,std::allocator<std::pair<HWND__ * const,CWndData> >,0> >::iterator::iterator
  0001a	8b 45 08	 mov	 eax, DWORD PTR ___$ReturnUdt$[ebp]

; 409  : 		}

  0001d	8b e5		 mov	 esp, ebp
  0001f	5d		 pop	 ebp
  00020	c2 04 00	 ret	 4
?begin@?$_Tree@V?$_Tmap_traits@PAUHWND__@@UCWndData@@U?$less@PAUHWND__@@@std@@V?$allocator@U?$pair@QAUHWND__@@UCWndData@@@std@@@4@$0A@@std@@@std@@QAE?AViterator@12@XZ ENDP ; std::_Tree<std::_Tmap_traits<HWND__ *,CWndData,std::less<HWND__ *>,std::allocator<std::pair<HWND__ * const,CWndData> >,0> >::begin
; Function compile flags: /Odt
_TEXT	ENDS
;	COMDAT ?end@?$_Tree@V?$_Tmap_traits@PAUHWND__@@UCWndData@@U?$less@PAUHWND__@@@std@@V?$allocator@U?$pair@QAUHWND__@@UCWndData@@@std@@@4@$0A@@std@@@std@@QAE?AViterator@12@XZ
_TEXT	SEGMENT
_this$ = -4						; size = 4
___$ReturnUdt$ = 8					; size = 4
?end@?$_Tree@V?$_Tmap_traits@PAUHWND__@@UCWndData@@U?$less@PAUHWND__@@@std@@V?$allocator@U?$pair@QAUHWND__@@UCWndData@@@std@@@4@$0A@@std@@@std@@QAE?AViterator@12@XZ PROC NEAR ; std::_Tree<std::_Tmap_traits<HWND__ *,CWndData,std::less<HWND__ *>,std::allocator<std::pair<HWND__ * const,CWndData> >,0> >::end, COMDAT
; _this$ = ecx

; 417  : 		{	// return iterator for end of mutable sequence

  00000	55		 push	 ebp
  00001	8b ec		 mov	 ebp, esp
  00003	51		 push	 ecx
  00004	89 4d fc	 mov	 DWORD PTR _this$[ebp], ecx

; 418  : 		return (_TREE_ITERATOR(_Myhead));

  00007	8b 45 fc	 mov	 eax, DWORD PTR _this$[ebp]
  0000a	8b 48 04	 mov	 ecx, DWORD PTR [eax+4]
  0000d	51		 push	 ecx
  0000e	8b 4d 08	 mov	 ecx, DWORD PTR ___$ReturnUdt$[ebp]
  00011	e8 00 00 00 00	 call	 ??0iterator@?$_Tree@V?$_Tmap_traits@PAUHWND__@@UCWndData@@U?$less@PAUHWND__@@@std@@V?$allocator@U?$pair@QAUHWND__@@UCWndData@@@std@@@4@$0A@@std@@@std@@QAE@PAU_Node@?$_Tree_nod@V?$_Tmap_traits@PAUHWND__@@UCWndData@@U?$less@PAUHWND__@@@std@@V?$allocator@U?$pair@QAUHWND__@@UCWndData@@@std@@@4@$0A@@std@@@2@@Z ; std::_Tree<std::_Tmap_traits<HWND__ *,CWndData,std::less<HWND__ *>,std::allocator<std::pair<HWND__ * const,CWndData> >,0> >::iterator::iterator
  00016	8b 45 08	 mov	 eax, DWORD PTR ___$ReturnUdt$[ebp]

; 419  : 		}

  00019	8b e5		 mov	 esp, ebp
  0001b	5d		 pop	 ebp
  0001c	c2 04 00	 ret	 4
?end@?$_Tree@V?$_Tmap_traits@PAUHWND__@@UCWndData@@U?$less@PAUHWND__@@@std@@V?$allocator@U?$pair@QAUHWND__@@UCWndData@@@std@@@4@$0A@@std@@@std@@QAE?AViterator@12@XZ ENDP ; std::_Tree<std::_Tmap_traits<HWND__ *,CWndData,std::less<HWND__ *>,std::allocator<std::pair<HWND__ * const,CWndData> >,0> >::end
_TEXT	ENDS
PUBLIC	??0?$_Vector_val@PAVCHostWnd@@V?$allocator@PAVCHostWnd@@@std@@@std@@IAE@V?$allocator@PAVCHostWnd@@@1@@Z ; std::_Vector_val<CHostWnd *,std::allocator<CHostWnd *> >::_Vector_val<CHostWnd *,std::allocator<CHostWnd *> >
PUBLIC	??0?$allocator@PAVCHostWnd@@@std@@QAE@XZ	; std::allocator<CHostWnd *>::allocator<CHostWnd *>
PUBLIC	?_Buy@?$vector@PAVCHostWnd@@V?$allocator@PAVCHostWnd@@@std@@@std@@IAE_NI@Z ; std::vector<CHostWnd *,std::allocator<CHostWnd *> >::_Buy
; Function compile flags: /Odt
; File d:\program files (x86)\microsoft visual studio .net 2003\vc7\include\vector
;	COMDAT ??0?$vector@PAVCHostWnd@@V?$allocator@PAVCHostWnd@@@std@@@std@@QAE@XZ
_TEXT	SEGMENT
_this$ = -8						; size = 4
??0?$vector@PAVCHostWnd@@V?$allocator@PAVCHostWnd@@@std@@@std@@QAE@XZ PROC NEAR ; std::vector<CHostWnd *,std::allocator<CHostWnd *> >::vector<CHostWnd *,std::allocator<CHostWnd *> >, COMDAT
; _this$ = ecx

; 299  : 		{	// construct empty vector

  00000	55		 push	 ebp
  00001	8b ec		 mov	 ebp, esp
  00003	83 ec 08	 sub	 esp, 8
  00006	89 4d f8	 mov	 DWORD PTR _this$[ebp], ecx
  00009	51		 push	 ecx
  0000a	8b cc		 mov	 ecx, esp
  0000c	e8 00 00 00 00	 call	 ??0?$allocator@PAVCHostWnd@@@std@@QAE@XZ ; std::allocator<CHostWnd *>::allocator<CHostWnd *>
  00011	8b 4d f8	 mov	 ecx, DWORD PTR _this$[ebp]
  00014	e8 00 00 00 00	 call	 ??0?$_Vector_val@PAVCHostWnd@@V?$allocator@PAVCHostWnd@@@std@@@std@@IAE@V?$allocator@PAVCHostWnd@@@1@@Z ; std::_Vector_val<CHostWnd *,std::allocator<CHostWnd *> >::_Vector_val<CHostWnd *,std::allocator<CHostWnd *> >

; 300  : 		_Buy(0);

  00019	6a 00		 push	 0
  0001b	8b 4d f8	 mov	 ecx, DWORD PTR _this$[ebp]
  0001e	e8 00 00 00 00	 call	 ?_Buy@?$vector@PAVCHostWnd@@V?$allocator@PAVCHostWnd@@@std@@@std@@IAE_NI@Z ; std::vector<CHostWnd *,std::allocator<CHostWnd *> >::_Buy

; 301  : 		}

  00023	8b 45 f8	 mov	 eax, DWORD PTR _this$[ebp]
  00026	8b e5		 mov	 esp, ebp
  00028	5d		 pop	 ebp
  00029	c3		 ret	 0
??0?$vector@PAVCHostWnd@@V?$allocator@PAVCHostWnd@@@std@@@std@@QAE@XZ ENDP ; std::vector<CHostWnd *,std::allocator<CHostWnd *> >::vector<CHostWnd *,std::allocator<CHostWnd *> >
_TEXT	ENDS
PUBLIC	?_Tidy@?$vector@PAVCHostWnd@@V?$allocator@PAVCHostWnd@@@std@@@std@@IAEXXZ ; std::vector<CHostWnd *,std::allocator<CHostWnd *> >::_Tidy
; Function compile flags: /Odt
;	COMDAT ??1?$vector@PAVCHostWnd@@V?$allocator@PAVCHostWnd@@@std@@@std@@QAE@XZ
_TEXT	SEGMENT
_this$ = -4						; size = 4
??1?$vector@PAVCHostWnd@@V?$allocator@PAVCHostWnd@@@std@@@std@@QAE@XZ PROC NEAR ; std::vector<CHostWnd *,std::allocator<CHostWnd *> >::~vector<CHostWnd *,std::allocator<CHostWnd *> >, COMDAT
; _this$ = ecx

; 387  : 		{	// destroy the object

  00000	55		 push	 ebp
  00001	8b ec		 mov	 ebp, esp
  00003	51		 push	 ecx
  00004	89 4d fc	 mov	 DWORD PTR _this$[ebp], ecx

; 388  : 		_Tidy();

  00007	8b 4d fc	 mov	 ecx, DWORD PTR _this$[ebp]
  0000a	e8 00 00 00 00	 call	 ?_Tidy@?$vector@PAVCHostWnd@@V?$allocator@PAVCHostWnd@@@std@@@std@@IAEXXZ ; std::vector<CHostWnd *,std::allocator<CHostWnd *> >::_Tidy

; 389  : 		}

  0000f	8b e5		 mov	 esp, ebp
  00011	5d		 pop	 ebp
  00012	c3		 ret	 0
??1?$vector@PAVCHostWnd@@V?$allocator@PAVCHostWnd@@@std@@@std@@QAE@XZ ENDP ; std::vector<CHostWnd *,std::allocator<CHostWnd *> >::~vector<CHostWnd *,std::allocator<CHostWnd *> >
; Function compile flags: /Odt
_TEXT	ENDS
;	COMDAT ?size@?$vector@PAVCHostWnd@@V?$allocator@PAVCHostWnd@@@std@@@std@@QBEIXZ
_TEXT	SEGMENT
tv70 = -8						; size = 4
_this$ = -4						; size = 4
?size@?$vector@PAVCHostWnd@@V?$allocator@PAVCHostWnd@@@std@@@std@@QBEIXZ PROC NEAR ; std::vector<CHostWnd *,std::allocator<CHostWnd *> >::size, COMDAT
; _this$ = ecx

; 515  : 		{	// return length of sequence

  00000	55		 push	 ebp
  00001	8b ec		 mov	 ebp, esp
  00003	83 ec 08	 sub	 esp, 8
  00006	89 4d fc	 mov	 DWORD PTR _this$[ebp], ecx

; 516  : 		return (_Myfirst == 0 ? 0 : _Mylast - _Myfirst);

  00009	8b 45 fc	 mov	 eax, DWORD PTR _this$[ebp]
  0000c	83 78 04 00	 cmp	 DWORD PTR [eax+4], 0
  00010	75 09		 jne	 SHORT $L202638
  00012	c7 45 f8 00 00
	00 00		 mov	 DWORD PTR tv70[ebp], 0
  00019	eb 12		 jmp	 SHORT $L202639
$L202638:
  0001b	8b 4d fc	 mov	 ecx, DWORD PTR _this$[ebp]
  0001e	8b 55 fc	 mov	 edx, DWORD PTR _this$[ebp]
  00021	8b 41 08	 mov	 eax, DWORD PTR [ecx+8]
  00024	2b 42 04	 sub	 eax, DWORD PTR [edx+4]
  00027	c1 f8 02	 sar	 eax, 2
  0002a	89 45 f8	 mov	 DWORD PTR tv70[ebp], eax
$L202639:
  0002d	8b 45 f8	 mov	 eax, DWORD PTR tv70[ebp]

; 517  : 		}

  00030	8b e5		 mov	 esp, ebp
  00032	5d		 pop	 ebp
  00033	c3		 ret	 0
?size@?$vector@PAVCHostWnd@@V?$allocator@PAVCHostWnd@@@std@@@std@@QBEIXZ ENDP ; std::vector<CHostWnd *,std::allocator<CHostWnd *> >::size
_TEXT	ENDS
PUBLIC	??Diterator@?$vector@PAVCHostWnd@@V?$allocator@PAVCHostWnd@@@std@@@std@@QBEAAPAVCHostWnd@@XZ ; std::vector<CHostWnd *,std::allocator<CHostWnd *> >::iterator::operator*
PUBLIC	??Hiterator@?$vector@PAVCHostWnd@@V?$allocator@PAVCHostWnd@@@std@@@std@@QBE?AV012@H@Z ; std::vector<CHostWnd *,std::allocator<CHostWnd *> >::iterator::operator+
PUBLIC	?begin@?$vector@PAVCHostWnd@@V?$allocator@PAVCHostWnd@@@std@@@std@@QAE?AViterator@12@XZ ; std::vector<CHostWnd *,std::allocator<CHostWnd *> >::begin
; Function compile flags: /Odt
;	COMDAT ??A?$vector@PAVCHostWnd@@V?$allocator@PAVCHostWnd@@@std@@@std@@QAEAAPAVCHostWnd@@I@Z
_TEXT	SEGMENT
_this$ = -12						; size = 4
$T202643 = -8						; size = 4
$T202642 = -4						; size = 4
__Pos$ = 8						; size = 4
??A?$vector@PAVCHostWnd@@V?$allocator@PAVCHostWnd@@@std@@@std@@QAEAAPAVCHostWnd@@I@Z PROC NEAR ; std::vector<CHostWnd *,std::allocator<CHostWnd *> >::operator[], COMDAT
; _this$ = ecx

; 554  : 		{	// subscript mutable sequence

  00000	55		 push	 ebp
  00001	8b ec		 mov	 ebp, esp
  00003	83 ec 0c	 sub	 esp, 12			; 0000000cH
  00006	89 4d f4	 mov	 DWORD PTR _this$[ebp], ecx

; 555  : 		return (*(begin() + _Pos));

  00009	8b 45 08	 mov	 eax, DWORD PTR __Pos$[ebp]
  0000c	50		 push	 eax
  0000d	8d 4d f8	 lea	 ecx, DWORD PTR $T202643[ebp]
  00010	51		 push	 ecx
  00011	8d 55 fc	 lea	 edx, DWORD PTR $T202642[ebp]
  00014	52		 push	 edx
  00015	8b 4d f4	 mov	 ecx, DWORD PTR _this$[ebp]
  00018	e8 00 00 00 00	 call	 ?begin@?$vector@PAVCHostWnd@@V?$allocator@PAVCHostWnd@@@std@@@std@@QAE?AViterator@12@XZ ; std::vector<CHostWnd *,std::allocator<CHostWnd *> >::begin
  0001d	8b c8		 mov	 ecx, eax
  0001f	e8 00 00 00 00	 call	 ??Hiterator@?$vector@PAVCHostWnd@@V?$allocator@PAVCHostWnd@@@std@@@std@@QBE?AV012@H@Z ; std::vector<CHostWnd *,std::allocator<CHostWnd *> >::iterator::operator+
  00024	8b c8		 mov	 ecx, eax
  00026	e8 00 00 00 00	 call	 ??Diterator@?$vector@PAVCHostWnd@@V?$allocator@PAVCHostWnd@@@std@@@std@@QBEAAPAVCHostWnd@@XZ ; std::vector<CHostWnd *,std::allocator<CHostWnd *> >::iterator::operator*

; 556  : 		}

  0002b	8b e5		 mov	 esp, ebp
  0002d	5d		 pop	 ebp
  0002e	c2 04 00	 ret	 4
??A?$vector@PAVCHostWnd@@V?$allocator@PAVCHostWnd@@@std@@@std@@QAEAAPAVCHostWnd@@I@Z ENDP ; std::vector<CHostWnd *,std::allocator<CHostWnd *> >::operator[]
_TEXT	ENDS
PUBLIC	?capacity@?$vector@PAVCHostWnd@@V?$allocator@PAVCHostWnd@@@std@@@std@@QBEIXZ ; std::vector<CHostWnd *,std::allocator<CHostWnd *> >::capacity
PUBLIC	?end@?$vector@PAVCHostWnd@@V?$allocator@PAVCHostWnd@@@std@@@std@@QAE?AViterator@12@XZ ; std::vector<CHostWnd *,std::allocator<CHostWnd *> >::end
PUBLIC	?insert@?$vector@PAVCHostWnd@@V?$allocator@PAVCHostWnd@@@std@@@std@@QAE?AViterator@12@V312@ABQAVCHostWnd@@@Z ; std::vector<CHostWnd *,std::allocator<CHostWnd *> >::insert
PUBLIC	?_Ufill@?$vector@PAVCHostWnd@@V?$allocator@PAVCHostWnd@@@std@@@std@@IAEPAPAVCHostWnd@@PAPAV3@IABQAV3@@Z ; std::vector<CHostWnd *,std::allocator<CHostWnd *> >::_Ufill
; Function compile flags: /Odt
;	COMDAT ?push_back@?$vector@PAVCHostWnd@@V?$allocator@PAVCHostWnd@@@std@@@std@@QAEXABQAVCHostWnd@@@Z
_TEXT	SEGMENT
_this$ = -12						; size = 4
$T202647 = -8						; size = 4
$T202646 = -4						; size = 4
__Val$ = 8						; size = 4
?push_back@?$vector@PAVCHostWnd@@V?$allocator@PAVCHostWnd@@@std@@@std@@QAEXABQAVCHostWnd@@@Z PROC NEAR ; std::vector<CHostWnd *,std::allocator<CHostWnd *> >::push_back, COMDAT
; _this$ = ecx

; 579  : 		{	// insert element at end

  00000	55		 push	 ebp
  00001	8b ec		 mov	 ebp, esp
  00003	83 ec 0c	 sub	 esp, 12			; 0000000cH
  00006	56		 push	 esi
  00007	89 4d f4	 mov	 DWORD PTR _this$[ebp], ecx

; 580  : 		if (size() < capacity())

  0000a	8b 4d f4	 mov	 ecx, DWORD PTR _this$[ebp]
  0000d	e8 00 00 00 00	 call	 ?size@?$vector@PAVCHostWnd@@V?$allocator@PAVCHostWnd@@@std@@@std@@QBEIXZ ; std::vector<CHostWnd *,std::allocator<CHostWnd *> >::size
  00012	8b f0		 mov	 esi, eax
  00014	8b 4d f4	 mov	 ecx, DWORD PTR _this$[ebp]
  00017	e8 00 00 00 00	 call	 ?capacity@?$vector@PAVCHostWnd@@V?$allocator@PAVCHostWnd@@@std@@@std@@QBEIXZ ; std::vector<CHostWnd *,std::allocator<CHostWnd *> >::capacity
  0001c	3b f0		 cmp	 esi, eax
  0001e	73 1d		 jae	 SHORT $L200302

; 581  : 			_Mylast = _Ufill(_Mylast, 1, _Val);

  00020	8b 45 08	 mov	 eax, DWORD PTR __Val$[ebp]
  00023	50		 push	 eax
  00024	6a 01		 push	 1
  00026	8b 4d f4	 mov	 ecx, DWORD PTR _this$[ebp]
  00029	8b 51 08	 mov	 edx, DWORD PTR [ecx+8]
  0002c	52		 push	 edx
  0002d	8b 4d f4	 mov	 ecx, DWORD PTR _this$[ebp]
  00030	e8 00 00 00 00	 call	 ?_Ufill@?$vector@PAVCHostWnd@@V?$allocator@PAVCHostWnd@@@std@@@std@@IAEPAPAVCHostWnd@@PAPAV3@IABQAV3@@Z ; std::vector<CHostWnd *,std::allocator<CHostWnd *> >::_Ufill
  00035	8b 4d f4	 mov	 ecx, DWORD PTR _this$[ebp]
  00038	89 41 08	 mov	 DWORD PTR [ecx+8], eax

; 582  : 		else

  0003b	eb 1f		 jmp	 SHORT $L200301
$L200302:

; 583  : 			insert(end(), _Val);

  0003d	8b 55 08	 mov	 edx, DWORD PTR __Val$[ebp]
  00040	52		 push	 edx
  00041	8d 45 fc	 lea	 eax, DWORD PTR $T202646[ebp]
  00044	50		 push	 eax
  00045	8b 4d f4	 mov	 ecx, DWORD PTR _this$[ebp]
  00048	e8 00 00 00 00	 call	 ?end@?$vector@PAVCHostWnd@@V?$allocator@PAVCHostWnd@@@std@@@std@@QAE?AViterator@12@XZ ; std::vector<CHostWnd *,std::allocator<CHostWnd *> >::end
  0004d	8b 08		 mov	 ecx, DWORD PTR [eax]
  0004f	51		 push	 ecx
  00050	8d 55 f8	 lea	 edx, DWORD PTR $T202647[ebp]
  00053	52		 push	 edx
  00054	8b 4d f4	 mov	 ecx, DWORD PTR _this$[ebp]
  00057	e8 00 00 00 00	 call	 ?insert@?$vector@PAVCHostWnd@@V?$allocator@PAVCHostWnd@@@std@@@std@@QAE?AViterator@12@V312@ABQAVCHostWnd@@@Z ; std::vector<CHostWnd *,std::allocator<CHostWnd *> >::insert
$L200301:

; 584  : 		}

  0005c	5e		 pop	 esi
  0005d	8b e5		 mov	 esp, ebp
  0005f	5d		 pop	 ebp
  00060	c2 04 00	 ret	 4
?push_back@?$vector@PAVCHostWnd@@V?$allocator@PAVCHostWnd@@@std@@@std@@QAEXABQAVCHostWnd@@@Z ENDP ; std::vector<CHostWnd *,std::allocator<CHostWnd *> >::push_back
; Function compile flags: /Odt
_TEXT	ENDS
;	COMDAT ?clear@?$vector@PAVCHostWnd@@V?$allocator@PAVCHostWnd@@@std@@@std@@QAEXXZ
_TEXT	SEGMENT
_this$ = -4						; size = 4
?clear@?$vector@PAVCHostWnd@@V?$allocator@PAVCHostWnd@@@std@@@std@@QAEXXZ PROC NEAR ; std::vector<CHostWnd *,std::allocator<CHostWnd *> >::clear, COMDAT
; _this$ = ecx

; 743  : 		{	// erase all

  00000	55		 push	 ebp
  00001	8b ec		 mov	 ebp, esp
  00003	51		 push	 ecx
  00004	89 4d fc	 mov	 DWORD PTR _this$[ebp], ecx

; 744  : 		_Tidy();

  00007	8b 4d fc	 mov	 ecx, DWORD PTR _this$[ebp]
  0000a	e8 00 00 00 00	 call	 ?_Tidy@?$vector@PAVCHostWnd@@V?$allocator@PAVCHostWnd@@@std@@@std@@IAEXXZ ; std::vector<CHostWnd *,std::allocator<CHostWnd *> >::_Tidy

; 745  : 		}

  0000f	8b e5		 mov	 esp, ebp
  00011	5d		 pop	 ebp
  00012	c3		 ret	 0
?clear@?$vector@PAVCHostWnd@@V?$allocator@PAVCHostWnd@@@std@@@std@@QAEXXZ ENDP ; std::vector<CHostWnd *,std::allocator<CHostWnd *> >::clear
_TEXT	ENDS
PUBLIC	?_Buy@?$vector@PAVILyricPopupWndShowObserver@@V?$allocator@PAVILyricPopupWndShowObserver@@@std@@@std@@IAE_NI@Z ; std::vector<ILyricPopupWndShowObserver *,std::allocator<ILyricPopupWndShowObserver *> >::_Buy
PUBLIC	??0?$_Vector_val@PAVILyricPopupWndShowObserver@@V?$allocator@PAVILyricPopupWndShowObserver@@@std@@@std@@IAE@V?$allocator@PAVILyricPopupWndShowObserver@@@1@@Z ; std::_Vector_val<ILyricPopupWndShowObserver *,std::allocator<ILyricPopupWndShowObserver *> >::_Vector_val<ILyricPopupWndShowObserver *,std::allocator<ILyricPopupWndShowObserver *> >
PUBLIC	??0?$allocator@PAVILyricPopupWndShowObserver@@@std@@QAE@XZ ; std::allocator<ILyricPopupWndShowObserver *>::allocator<ILyricPopupWndShowObserver *>
; Function compile flags: /Odt
;	COMDAT ??0?$vector@PAVILyricPopupWndShowObserver@@V?$allocator@PAVILyricPopupWndShowObserver@@@std@@@std@@QAE@XZ
_TEXT	SEGMENT
_this$ = -8						; size = 4
??0?$vector@PAVILyricPopupWndShowObserver@@V?$allocator@PAVILyricPopupWndShowObserver@@@std@@@std@@QAE@XZ PROC NEAR ; std::vector<ILyricPopupWndShowObserver *,std::allocator<ILyricPopupWndShowObserver *> >::vector<ILyricPopupWndShowObserver *,std::allocator<ILyricPopupWndShowObserver *> >, COMDAT
; _this$ = ecx

; 299  : 		{	// construct empty vector

  00000	55		 push	 ebp
  00001	8b ec		 mov	 ebp, esp
  00003	83 ec 08	 sub	 esp, 8
  00006	89 4d f8	 mov	 DWORD PTR _this$[ebp], ecx
  00009	51		 push	 ecx
  0000a	8b cc		 mov	 ecx, esp
  0000c	e8 00 00 00 00	 call	 ??0?$allocator@PAVILyricPopupWndShowObserver@@@std@@QAE@XZ ; std::allocator<ILyricPopupWndShowObserver *>::allocator<ILyricPopupWndShowObserver *>
  00011	8b 4d f8	 mov	 ecx, DWORD PTR _this$[ebp]
  00014	e8 00 00 00 00	 call	 ??0?$_Vector_val@PAVILyricPopupWndShowObserver@@V?$allocator@PAVILyricPopupWndShowObserver@@@std@@@std@@IAE@V?$allocator@PAVILyricPopupWndShowObserver@@@1@@Z ; std::_Vector_val<ILyricPopupWndShowObserver *,std::allocator<ILyricPopupWndShowObserver *> >::_Vector_val<ILyricPopupWndShowObserver *,std::allocator<ILyricPopupWndShowObserver *> >

; 300  : 		_Buy(0);

  00019	6a 00		 push	 0
  0001b	8b 4d f8	 mov	 ecx, DWORD PTR _this$[ebp]
  0001e	e8 00 00 00 00	 call	 ?_Buy@?$vector@PAVILyricPopupWndShowObserver@@V?$allocator@PAVILyricPopupWndShowObserver@@@std@@@std@@IAE_NI@Z ; std::vector<ILyricPopupWndShowObserver *,std::allocator<ILyricPopupWndShowObserver *> >::_Buy

; 301  : 		}

  00023	8b 45 f8	 mov	 eax, DWORD PTR _this$[ebp]
  00026	8b e5		 mov	 esp, ebp
  00028	5d		 pop	 ebp
  00029	c3		 ret	 0
??0?$vector@PAVILyricPopupWndShowObserver@@V?$allocator@PAVILyricPopupWndShowObserver@@@std@@@std@@QAE@XZ ENDP ; std::vector<ILyricPopupWndShowObserver *,std::allocator<ILyricPopupWndShowObserver *> >::vector<ILyricPopupWndShowObserver *,std::allocator<ILyricPopupWndShowObserver *> >
_TEXT	ENDS
PUBLIC	?_Tidy@?$vector@PAVILyricPopupWndShowObserver@@V?$allocator@PAVILyricPopupWndShowObserver@@@std@@@std@@IAEXXZ ; std::vector<ILyricPopupWndShowObserver *,std::allocator<ILyricPopupWndShowObserver *> >::_Tidy
; Function compile flags: /Odt
;	COMDAT ??1?$vector@PAVILyricPopupWndShowObserver@@V?$allocator@PAVILyricPopupWndShowObserver@@@std@@@std@@QAE@XZ
_TEXT	SEGMENT
_this$ = -4						; size = 4
??1?$vector@PAVILyricPopupWndShowObserver@@V?$allocator@PAVILyricPopupWndShowObserver@@@std@@@std@@QAE@XZ PROC NEAR ; std::vector<ILyricPopupWndShowObserver *,std::allocator<ILyricPopupWndShowObserver *> >::~vector<ILyricPopupWndShowObserver *,std::allocator<ILyricPopupWndShowObserver *> >, COMDAT
; _this$ = ecx

; 387  : 		{	// destroy the object

  00000	55		 push	 ebp
  00001	8b ec		 mov	 ebp, esp
  00003	51		 push	 ecx
  00004	89 4d fc	 mov	 DWORD PTR _this$[ebp], ecx

; 388  : 		_Tidy();

  00007	8b 4d fc	 mov	 ecx, DWORD PTR _this$[ebp]
  0000a	e8 00 00 00 00	 call	 ?_Tidy@?$vector@PAVILyricPopupWndShowObserver@@V?$allocator@PAVILyricPopupWndShowObserver@@@std@@@std@@IAEXXZ ; std::vector<ILyricPopupWndShowObserver *,std::allocator<ILyricPopupWndShowObserver *> >::_Tidy

; 389  : 		}

  0000f	8b e5		 mov	 esp, ebp
  00011	5d		 pop	 ebp
  00012	c3		 ret	 0
??1?$vector@PAVILyricPopupWndShowObserver@@V?$allocator@PAVILyricPopupWndShowObserver@@@std@@@std@@QAE@XZ ENDP ; std::vector<ILyricPopupWndShowObserver *,std::allocator<ILyricPopupWndShowObserver *> >::~vector<ILyricPopupWndShowObserver *,std::allocator<ILyricPopupWndShowObserver *> >
; Function compile flags: /Odt
_TEXT	ENDS
;	COMDAT ?size@?$vector@USepWindowData@@V?$allocator@USepWindowData@@@std@@@std@@QBEIXZ
_TEXT	SEGMENT
tv70 = -8						; size = 4
_this$ = -4						; size = 4
?size@?$vector@USepWindowData@@V?$allocator@USepWindowData@@@std@@@std@@QBEIXZ PROC NEAR ; std::vector<SepWindowData,std::allocator<SepWindowData> >::size, COMDAT
; _this$ = ecx

; 515  : 		{	// return length of sequence

  00000	55		 push	 ebp
  00001	8b ec		 mov	 ebp, esp
  00003	83 ec 08	 sub	 esp, 8
  00006	89 4d fc	 mov	 DWORD PTR _this$[ebp], ecx

; 516  : 		return (_Myfirst == 0 ? 0 : _Mylast - _Myfirst);

  00009	8b 45 fc	 mov	 eax, DWORD PTR _this$[ebp]
  0000c	83 78 04 00	 cmp	 DWORD PTR [eax+4], 0
  00010	75 09		 jne	 SHORT $L202657
  00012	c7 45 f8 00 00
	00 00		 mov	 DWORD PTR tv70[ebp], 0
  00019	eb 17		 jmp	 SHORT $L202658
$L202657:
  0001b	8b 4d fc	 mov	 ecx, DWORD PTR _this$[ebp]
  0001e	8b 55 fc	 mov	 edx, DWORD PTR _this$[ebp]
  00021	8b 41 08	 mov	 eax, DWORD PTR [ecx+8]
  00024	2b 42 04	 sub	 eax, DWORD PTR [edx+4]
  00027	99		 cdq
  00028	b9 30 00 00 00	 mov	 ecx, 48			; 00000030H
  0002d	f7 f9		 idiv	 ecx
  0002f	89 45 f8	 mov	 DWORD PTR tv70[ebp], eax
$L202658:
  00032	8b 45 f8	 mov	 eax, DWORD PTR tv70[ebp]

; 517  : 		}

  00035	8b e5		 mov	 esp, ebp
  00037	5d		 pop	 ebp
  00038	c3		 ret	 0
?size@?$vector@USepWindowData@@V?$allocator@USepWindowData@@@std@@@std@@QBEIXZ ENDP ; std::vector<SepWindowData,std::allocator<SepWindowData> >::size
_TEXT	ENDS
PUBLIC	?begin@?$vector@USepWindowData@@V?$allocator@USepWindowData@@@std@@@std@@QAE?AViterator@12@XZ ; std::vector<SepWindowData,std::allocator<SepWindowData> >::begin
PUBLIC	??Diterator@?$vector@USepWindowData@@V?$allocator@USepWindowData@@@std@@@std@@QBEAAUSepWindowData@@XZ ; std::vector<SepWindowData,std::allocator<SepWindowData> >::iterator::operator*
PUBLIC	??Hiterator@?$vector@USepWindowData@@V?$allocator@USepWindowData@@@std@@@std@@QBE?AV012@H@Z ; std::vector<SepWindowData,std::allocator<SepWindowData> >::iterator::operator+
; Function compile flags: /Odt
;	COMDAT ??A?$vector@USepWindowData@@V?$allocator@USepWindowData@@@std@@@std@@QAEAAUSepWindowData@@I@Z
_TEXT	SEGMENT
_this$ = -12						; size = 4
$T202662 = -8						; size = 4
$T202661 = -4						; size = 4
__Pos$ = 8						; size = 4
??A?$vector@USepWindowData@@V?$allocator@USepWindowData@@@std@@@std@@QAEAAUSepWindowData@@I@Z PROC NEAR ; std::vector<SepWindowData,std::allocator<SepWindowData> >::operator[], COMDAT
; _this$ = ecx

; 554  : 		{	// subscript mutable sequence

  00000	55		 push	 ebp
  00001	8b ec		 mov	 ebp, esp
  00003	83 ec 0c	 sub	 esp, 12			; 0000000cH
  00006	89 4d f4	 mov	 DWORD PTR _this$[ebp], ecx

; 555  : 		return (*(begin() + _Pos));

  00009	8b 45 08	 mov	 eax, DWORD PTR __Pos$[ebp]
  0000c	50		 push	 eax
  0000d	8d 4d f8	 lea	 ecx, DWORD PTR $T202662[ebp]
  00010	51		 push	 ecx
  00011	8d 55 fc	 lea	 edx, DWORD PTR $T202661[ebp]
  00014	52		 push	 edx
  00015	8b 4d f4	 mov	 ecx, DWORD PTR _this$[ebp]
  00018	e8 00 00 00 00	 call	 ?begin@?$vector@USepWindowData@@V?$allocator@USepWindowData@@@std@@@std@@QAE?AViterator@12@XZ ; std::vector<SepWindowData,std::allocator<SepWindowData> >::begin
  0001d	8b c8		 mov	 ecx, eax
  0001f	e8 00 00 00 00	 call	 ??Hiterator@?$vector@USepWindowData@@V?$allocator@USepWindowData@@@std@@@std@@QBE?AV012@H@Z ; std::vector<SepWindowData,std::allocator<SepWindowData> >::iterator::operator+
  00024	8b c8		 mov	 ecx, eax
  00026	e8 00 00 00 00	 call	 ??Diterator@?$vector@USepWindowData@@V?$allocator@USepWindowData@@@std@@@std@@QBEAAUSepWindowData@@XZ ; std::vector<SepWindowData,std::allocator<SepWindowData> >::iterator::operator*

; 556  : 		}

  0002b	8b e5		 mov	 esp, ebp
  0002d	5d		 pop	 ebp
  0002e	c2 04 00	 ret	 4
??A?$vector@USepWindowData@@V?$allocator@USepWindowData@@@std@@@std@@QAEAAUSepWindowData@@I@Z ENDP ; std::vector<SepWindowData,std::allocator<SepWindowData> >::operator[]
; Function compile flags: /Odt
; File d:\program files (x86)\microsoft visual studio .net 2003\vc7\include\xtree
_TEXT	ENDS
;	COMDAT ??Citerator@?$_Tree@V?$_Tmap_traits@PAUHWND__@@UCWndData@@U?$less@PAUHWND__@@@std@@V?$allocator@U?$pair@QAUHWND__@@UCWndData@@@std@@@4@$0A@@std@@@std@@QBEPAU?$pair@QAUHWND__@@UCWndData@@@2@XZ
_TEXT	SEGMENT
_this$ = -4						; size = 4
??Citerator@?$_Tree@V?$_Tmap_traits@PAUHWND__@@UCWndData@@U?$less@PAUHWND__@@@std@@V?$allocator@U?$pair@QAUHWND__@@UCWndData@@@std@@@4@$0A@@std@@@std@@QBEPAU?$pair@QAUHWND__@@UCWndData@@@2@XZ PROC NEAR ; std::_Tree<std::_Tmap_traits<HWND__ *,CWndData,std::less<HWND__ *>,std::allocator<std::pair<HWND__ * const,CWndData> >,0> >::iterator::operator->, COMDAT
; _this$ = ecx

; 321  : 			{	// return pointer to class object

  00000	55		 push	 ebp
  00001	8b ec		 mov	 ebp, esp
  00003	51		 push	 ecx
  00004	89 4d fc	 mov	 DWORD PTR _this$[ebp], ecx

; 322  : 			return (&**this);

  00007	8b 4d fc	 mov	 ecx, DWORD PTR _this$[ebp]
  0000a	e8 00 00 00 00	 call	 ??Diterator@?$_Tree@V?$_Tmap_traits@PAUHWND__@@UCWndData@@U?$less@PAUHWND__@@@std@@V?$allocator@U?$pair@QAUHWND__@@UCWndData@@@std@@@4@$0A@@std@@@std@@QBEAAU?$pair@QAUHWND__@@UCWndData@@@2@XZ ; std::_Tree<std::_Tmap_traits<HWND__ *,CWndData,std::less<HWND__ *>,std::allocator<std::pair<HWND__ * const,CWndData> >,0> >::iterator::operator*

; 323  : 			}

  0000f	8b e5		 mov	 esp, ebp
  00011	5d		 pop	 ebp
  00012	c3		 ret	 0
??Citerator@?$_Tree@V?$_Tmap_traits@PAUHWND__@@UCWndData@@U?$less@PAUHWND__@@@std@@V?$allocator@U?$pair@QAUHWND__@@UCWndData@@@std@@@4@$0A@@std@@@std@@QBEPAU?$pair@QAUHWND__@@UCWndData@@@2@XZ ENDP ; std::_Tree<std::_Tmap_traits<HWND__ *,CWndData,std::less<HWND__ *>,std::allocator<std::pair<HWND__ * const,CWndData> >,0> >::iterator::operator->
_TEXT	ENDS
PUBLIC	??Eiterator@?$_Tree@V?$_Tmap_traits@PAUHWND__@@UCWndData@@U?$less@PAUHWND__@@@std@@V?$allocator@U?$pair@QAUHWND__@@UCWndData@@@std@@@4@$0A@@std@@@std@@QAEAAV012@XZ ; std::_Tree<std::_Tmap_traits<HWND__ *,CWndData,std::less<HWND__ *>,std::allocator<std::pair<HWND__ * const,CWndData> >,0> >::iterator::operator++
; Function compile flags: /Odt
;	COMDAT ??Eiterator@?$_Tree@V?$_Tmap_traits@PAUHWND__@@UCWndData@@U?$less@PAUHWND__@@@std@@V?$allocator@U?$pair@QAUHWND__@@UCWndData@@@std@@@4@$0A@@std@@@std@@QAE?AV012@H@Z
_TEXT	SEGMENT
_this$ = -8						; size = 4
__Tmp$ = -4						; size = 4
___$ReturnUdt$ = 8					; size = 4
___formal$ = 12						; size = 4
??Eiterator@?$_Tree@V?$_Tmap_traits@PAUHWND__@@UCWndData@@U?$less@PAUHWND__@@@std@@V?$allocator@U?$pair@QAUHWND__@@UCWndData@@@std@@@4@$0A@@std@@@std@@QAE?AV012@H@Z PROC NEAR ; std::_Tree<std::_Tmap_traits<HWND__ *,CWndData,std::less<HWND__ *>,std::allocator<std::pair<HWND__ * const,CWndData> >,0> >::iterator::operator++, COMDAT
; _this$ = ecx

; 332  : 			{	// postincrement

  00000	55		 push	 ebp
  00001	8b ec		 mov	 ebp, esp
  00003	83 ec 08	 sub	 esp, 8
  00006	89 4d f8	 mov	 DWORD PTR _this$[ebp], ecx

; 333  : 			iterator _Tmp = *this;

  00009	8b 45 f8	 mov	 eax, DWORD PTR _this$[ebp]
  0000c	8b 08		 mov	 ecx, DWORD PTR [eax]
  0000e	89 4d fc	 mov	 DWORD PTR __Tmp$[ebp], ecx

; 334  : 			++*this;

  00011	8b 4d f8	 mov	 ecx, DWORD PTR _this$[ebp]
  00014	e8 00 00 00 00	 call	 ??Eiterator@?$_Tree@V?$_Tmap_traits@PAUHWND__@@UCWndData@@U?$less@PAUHWND__@@@std@@V?$allocator@U?$pair@QAUHWND__@@UCWndData@@@std@@@4@$0A@@std@@@std@@QAEAAV012@XZ ; std::_Tree<std::_Tmap_traits<HWND__ *,CWndData,std::less<HWND__ *>,std::allocator<std::pair<HWND__ * const,CWndData> >,0> >::iterator::operator++

; 335  : 			return (_Tmp);

  00019	8b 55 08	 mov	 edx, DWORD PTR ___$ReturnUdt$[ebp]
  0001c	8b 45 fc	 mov	 eax, DWORD PTR __Tmp$[ebp]
  0001f	89 02		 mov	 DWORD PTR [edx], eax
  00021	8b 45 08	 mov	 eax, DWORD PTR ___$ReturnUdt$[ebp]

; 336  : 			}

  00024	8b e5		 mov	 esp, ebp
  00026	5d		 pop	 ebp
  00027	c2 08 00	 ret	 8
??Eiterator@?$_Tree@V?$_Tmap_traits@PAUHWND__@@UCWndData@@U?$less@PAUHWND__@@@std@@V?$allocator@U?$pair@QAUHWND__@@UCWndData@@@std@@@4@$0A@@std@@@std@@QAE?AV012@H@Z ENDP ; std::_Tree<std::_Tmap_traits<HWND__ *,CWndData,std::less<HWND__ *>,std::allocator<std::pair<HWND__ * const,CWndData> >,0> >::iterator::operator++
; Function compile flags: /Odt
_TEXT	ENDS
;	COMDAT ??9const_iterator@?$_Tree@V?$_Tmap_traits@PAUHWND__@@UCWndData@@U?$less@PAUHWND__@@@std@@V?$allocator@U?$pair@QAUHWND__@@UCWndData@@@std@@@4@$0A@@std@@@std@@QBE_NABV012@@Z
_TEXT	SEGMENT
_this$ = -4						; size = 4
__Right$ = 8						; size = 4
??9const_iterator@?$_Tree@V?$_Tmap_traits@PAUHWND__@@UCWndData@@U?$less@PAUHWND__@@@std@@V?$allocator@U?$pair@QAUHWND__@@UCWndData@@@std@@@4@$0A@@std@@@std@@QBE_NABV012@@Z PROC NEAR ; std::_Tree<std::_Tmap_traits<HWND__ *,CWndData,std::less<HWND__ *>,std::allocator<std::pair<HWND__ * const,CWndData> >,0> >::const_iterator::operator!=, COMDAT
; _this$ = ecx

; 245  : 			{	// test for iterator inequality

  00000	55		 push	 ebp
  00001	8b ec		 mov	 ebp, esp
  00003	51		 push	 ecx
  00004	89 4d fc	 mov	 DWORD PTR _this$[ebp], ecx

; 246  : 			return (!(*this == _Right));

  00007	8b 45 08	 mov	 eax, DWORD PTR __Right$[ebp]
  0000a	50		 push	 eax
  0000b	8b 4d fc	 mov	 ecx, DWORD PTR _this$[ebp]
  0000e	e8 00 00 00 00	 call	 ??8const_iterator@?$_Tree@V?$_Tmap_traits@PAUHWND__@@UCWndData@@U?$less@PAUHWND__@@@std@@V?$allocator@U?$pair@QAUHWND__@@UCWndData@@@std@@@4@$0A@@std@@@std@@QBE_NABV012@@Z ; std::_Tree<std::_Tmap_traits<HWND__ *,CWndData,std::less<HWND__ *>,std::allocator<std::pair<HWND__ * const,CWndData> >,0> >::const_iterator::operator==
  00013	0f b6 c0	 movzx	 eax, al
  00016	f7 d8		 neg	 eax
  00018	1b c0		 sbb	 eax, eax
  0001a	40		 inc	 eax

; 247  : 			}

  0001b	8b e5		 mov	 esp, ebp
  0001d	5d		 pop	 ebp
  0001e	c2 04 00	 ret	 4
??9const_iterator@?$_Tree@V?$_Tmap_traits@PAUHWND__@@UCWndData@@U?$less@PAUHWND__@@@std@@V?$allocator@U?$pair@QAUHWND__@@UCWndData@@@std@@@4@$0A@@std@@@std@@QBE_NABV012@@Z ENDP ; std::_Tree<std::_Tmap_traits<HWND__ *,CWndData,std::less<HWND__ *>,std::allocator<std::pair<HWND__ * const,CWndData> >,0> >::const_iterator::operator!=
_TEXT	ENDS
PUBLIC	?_Kfn@?$_Tmap_traits@PAUHWND__@@UCWndData@@U?$less@PAUHWND__@@@std@@V?$allocator@U?$pair@QAUHWND__@@UCWndData@@@std@@@4@$0A@@std@@SAABQAUHWND__@@ABU?$pair@QAUHWND__@@UCWndData@@@2@@Z ; std::_Tmap_traits<HWND__ *,CWndData,std::less<HWND__ *>,std::allocator<std::pair<HWND__ * const,CWndData> >,0>::_Kfn
PUBLIC	?_Myval@?$_Tree@V?$_Tmap_traits@PAUHWND__@@UCWndData@@U?$less@PAUHWND__@@@std@@V?$allocator@U?$pair@QAUHWND__@@UCWndData@@@std@@@4@$0A@@std@@@std@@KAAAU?$pair@QAUHWND__@@UCWndData@@@2@PAU_Node@?$_Tree_nod@V?$_Tmap_traits@PAUHWND__@@UCWndData@@U?$less@PAUHWND__@@@std@@V?$allocator@U?$pair@QAUHWND__@@UCWndData@@@std@@@4@$0A@@std@@@2@@Z ; std::_Tree<std::_Tmap_traits<HWND__ *,CWndData,std::less<HWND__ *>,std::allocator<std::pair<HWND__ * const,CWndData> >,0> >::_Myval
; Function compile flags: /Odt
;	COMDAT ?_Key@?$_Tree@V?$_Tmap_traits@PAUHWND__@@UCWndData@@U?$less@PAUHWND__@@@std@@V?$allocator@U?$pair@QAUHWND__@@UCWndData@@@std@@@4@$0A@@std@@@std@@KAABQAUHWND__@@PAU_Node@?$_Tree_nod@V?$_Tmap_traits@PAUHWND__@@UCWndData@@U?$less@PAUHWND__@@@std@@V?$allocator@U?$pair@QAUHWND__@@UCWndData@@@std@@@4@$0A@@std@@@2@@Z
_TEXT	SEGMENT
__Pnode$ = 8						; size = 4
?_Key@?$_Tree@V?$_Tmap_traits@PAUHWND__@@UCWndData@@U?$less@PAUHWND__@@@std@@V?$allocator@U?$pair@QAUHWND__@@UCWndData@@@std@@@4@$0A@@std@@@std@@KAABQAUHWND__@@PAU_Node@?$_Tree_nod@V?$_Tmap_traits@PAUHWND__@@UCWndData@@U?$less@PAUHWND__@@@std@@V?$allocator@U?$pair@QAUHWND__@@UCWndData@@@std@@@4@$0A@@std@@@2@@Z PROC NEAR ; std::_Tree<std::_Tmap_traits<HWND__ *,CWndData,std::less<HWND__ *>,std::allocator<std::pair<HWND__ * const,CWndData> >,0> >::_Key, COMDAT

; 141  : 		{	// return reference to key in node

  00000	55		 push	 ebp
  00001	8b ec		 mov	 ebp, esp

; 142  : 		return (_Mybase::_Kfn(_Myval(_Pnode)));

  00003	8b 45 08	 mov	 eax, DWORD PTR __Pnode$[ebp]
  00006	50		 push	 eax
  00007	e8 00 00 00 00	 call	 ?_Myval@?$_Tree@V?$_Tmap_traits@PAUHWND__@@UCWndData@@U?$less@PAUHWND__@@@std@@V?$allocator@U?$pair@QAUHWND__@@UCWndData@@@std@@@4@$0A@@std@@@std@@KAAAU?$pair@QAUHWND__@@UCWndData@@@2@PAU_Node@?$_Tree_nod@V?$_Tmap_traits@PAUHWND__@@UCWndData@@U?$less@PAUHWND__@@@std@@V?$allocator@U?$pair@QAUHWND__@@UCWndData@@@std@@@4@$0A@@std@@@2@@Z ; std::_Tree<std::_Tmap_traits<HWND__ *,CWndData,std::less<HWND__ *>,std::allocator<std::pair<HWND__ * const,CWndData> >,0> >::_Myval
  0000c	83 c4 04	 add	 esp, 4
  0000f	50		 push	 eax
  00010	e8 00 00 00 00	 call	 ?_Kfn@?$_Tmap_traits@PAUHWND__@@UCWndData@@U?$less@PAUHWND__@@@std@@V?$allocator@U?$pair@QAUHWND__@@UCWndData@@@std@@@4@$0A@@std@@SAABQAUHWND__@@ABU?$pair@QAUHWND__@@UCWndData@@@2@@Z ; std::_Tmap_traits<HWND__ *,CWndData,std::less<HWND__ *>,std::allocator<std::pair<HWND__ * const,CWndData> >,0>::_Kfn
  00015	83 c4 04	 add	 esp, 4

; 143  : 		}

  00018	5d		 pop	 ebp
  00019	c3		 ret	 0
?_Key@?$_Tree@V?$_Tmap_traits@PAUHWND__@@UCWndData@@U?$less@PAUHWND__@@@std@@V?$allocator@U?$pair@QAUHWND__@@UCWndData@@@std@@@4@$0A@@std@@@std@@KAABQAUHWND__@@PAU_Node@?$_Tree_nod@V?$_Tmap_traits@PAUHWND__@@UCWndData@@U?$less@PAUHWND__@@@std@@V?$allocator@U?$pair@QAUHWND__@@UCWndData@@@std@@@4@$0A@@std@@@2@@Z ENDP ; std::_Tree<std::_Tmap_traits<HWND__ *,CWndData,std::less<HWND__ *>,std::allocator<std::pair<HWND__ * const,CWndData> >,0> >::_Key
_TEXT	ENDS
PUBLIC	??0?$allocator@U?$pair@QAUHWND__@@UCWndData@@@std@@@std@@QAE@ABV01@@Z ; std::allocator<std::pair<HWND__ * const,CWndData> >::allocator<std::pair<HWND__ * const,CWndData> >
PUBLIC	??0?$_Tree_val@V?$_Tmap_traits@PAUHWND__@@UCWndData@@U?$less@PAUHWND__@@@std@@V?$allocator@U?$pair@QAUHWND__@@UCWndData@@@std@@@4@$0A@@std@@@std@@IAE@ABU?$less@PAUHWND__@@@1@V?$allocator@U?$pair@QAUHWND__@@UCWndData@@@std@@@1@@Z ; std::_Tree_val<std::_Tmap_traits<HWND__ *,CWndData,std::less<HWND__ *>,std::allocator<std::pair<HWND__ * const,CWndData> >,0> >::_Tree_val<std::_Tmap_traits<HWND__ *,CWndData,std::less<HWND__ *>,std::allocator<std::pair<HWND__ * const,CWndData> >,0> >
PUBLIC	?_Init@?$_Tree@V?$_Tmap_traits@PAUHWND__@@UCWndData@@U?$less@PAUHWND__@@@std@@V?$allocator@U?$pair@QAUHWND__@@UCWndData@@@std@@@4@$0A@@std@@@std@@IAEXXZ ; std::_Tree<std::_Tmap_traits<HWND__ *,CWndData,std::less<HWND__ *>,std::allocator<std::pair<HWND__ * const,CWndData> >,0> >::_Init
; Function compile flags: /Odt
;	COMDAT ??0?$_Tree@V?$_Tmap_traits@PAUHWND__@@UCWndData@@U?$less@PAUHWND__@@@std@@V?$allocator@U?$pair@QAUHWND__@@UCWndData@@@std@@@4@$0A@@std@@@std@@QAE@ABU?$less@PAUHWND__@@@1@ABV?$allocator@U?$pair@QAUHWND__@@UCWndData@@@std@@@1@@Z
_TEXT	SEGMENT
_this$ = -8						; size = 4
__Parg$ = 8						; size = 4
__Al$ = 12						; size = 4
??0?$_Tree@V?$_Tmap_traits@PAUHWND__@@UCWndData@@U?$less@PAUHWND__@@@std@@V?$allocator@U?$pair@QAUHWND__@@UCWndData@@@std@@@4@$0A@@std@@@std@@QAE@ABU?$less@PAUHWND__@@@1@ABV?$allocator@U?$pair@QAUHWND__@@UCWndData@@@std@@@1@@Z PROC NEAR ; std::_Tree<std::_Tmap_traits<HWND__ *,CWndData,std::less<HWND__ *>,std::allocator<std::pair<HWND__ * const,CWndData> >,0> >::_Tree<std::_Tmap_traits<HWND__ *,CWndData,std::less<HWND__ *>,std::allocator<std::pair<HWND__ * const,CWndData> >,0> >, COMDAT
; _this$ = ecx

; 361  : 		{	// construct empty tree

  00000	55		 push	 ebp
  00001	8b ec		 mov	 ebp, esp
  00003	83 ec 08	 sub	 esp, 8
  00006	89 4d f8	 mov	 DWORD PTR _this$[ebp], ecx
  00009	51		 push	 ecx
  0000a	8b cc		 mov	 ecx, esp
  0000c	8b 45 0c	 mov	 eax, DWORD PTR __Al$[ebp]
  0000f	50		 push	 eax
  00010	e8 00 00 00 00	 call	 ??0?$allocator@U?$pair@QAUHWND__@@UCWndData@@@std@@@std@@QAE@ABV01@@Z ; std::allocator<std::pair<HWND__ * const,CWndData> >::allocator<std::pair<HWND__ * const,CWndData> >
  00015	8b 4d 08	 mov	 ecx, DWORD PTR __Parg$[ebp]
  00018	51		 push	 ecx
  00019	8b 4d f8	 mov	 ecx, DWORD PTR _this$[ebp]
  0001c	e8 00 00 00 00	 call	 ??0?$_Tree_val@V?$_Tmap_traits@PAUHWND__@@UCWndData@@U?$less@PAUHWND__@@@std@@V?$allocator@U?$pair@QAUHWND__@@UCWndData@@@std@@@4@$0A@@std@@@std@@IAE@ABU?$less@PAUHWND__@@@1@V?$allocator@U?$pair@QAUHWND__@@UCWndData@@@std@@@1@@Z ; std::_Tree_val<std::_Tmap_traits<HWND__ *,CWndData,std::less<HWND__ *>,std::allocator<std::pair<HWND__ * const,CWndData> >,0> >::_Tree_val<std::_Tmap_traits<HWND__ *,CWndData,std::less<HWND__ *>,std::allocator<std::pair<HWND__ * const,CWndData> >,0> >

; 362  : 		_Init();

  00021	8b 4d f8	 mov	 ecx, DWORD PTR _this$[ebp]
  00024	e8 00 00 00 00	 call	 ?_Init@?$_Tree@V?$_Tmap_traits@PAUHWND__@@UCWndData@@U?$less@PAUHWND__@@@std@@V?$allocator@U?$pair@QAUHWND__@@UCWndData@@@std@@@4@$0A@@std@@@std@@IAEXXZ ; std::_Tree<std::_Tmap_traits<HWND__ *,CWndData,std::less<HWND__ *>,std::allocator<std::pair<HWND__ * const,CWndData> >,0> >::_Init

; 363  : 		}

  00029	8b 45 f8	 mov	 eax, DWORD PTR _this$[ebp]
  0002c	8b e5		 mov	 esp, ebp
  0002e	5d		 pop	 ebp
  0002f	c2 08 00	 ret	 8
??0?$_Tree@V?$_Tmap_traits@PAUHWND__@@UCWndData@@U?$less@PAUHWND__@@@std@@V?$allocator@U?$pair@QAUHWND__@@UCWndData@@@std@@@4@$0A@@std@@@std@@QAE@ABU?$less@PAUHWND__@@@1@ABV?$allocator@U?$pair@QAUHWND__@@UCWndData@@@std@@@1@@Z ENDP ; std::_Tree<std::_Tmap_traits<HWND__ *,CWndData,std::less<HWND__ *>,std::allocator<std::pair<HWND__ * const,CWndData> >,0> >::_Tree<std::_Tmap_traits<HWND__ *,CWndData,std::less<HWND__ *>,std::allocator<std::pair<HWND__ * const,CWndData> >,0> >
_TEXT	ENDS
PUBLIC	??0iterator@?$_Tree@V?$_Tmap_traits@PAUHWND__@@UCWndData@@U?$less@PAUHWND__@@@std@@V?$allocator@U?$pair@QAUHWND__@@UCWndData@@@std@@@4@$0A@@std@@@std@@QAE@XZ ; std::_Tree<std::_Tmap_traits<HWND__ *,CWndData,std::less<HWND__ *>,std::allocator<std::pair<HWND__ * const,CWndData> >,0> >::iterator::iterator
PUBLIC	??Fiterator@?$_Tree@V?$_Tmap_traits@PAUHWND__@@UCWndData@@U?$less@PAUHWND__@@@std@@V?$allocator@U?$pair@QAUHWND__@@UCWndData@@@std@@@4@$0A@@std@@@std@@QAEAAV012@XZ ; std::_Tree<std::_Tmap_traits<HWND__ *,CWndData,std::less<HWND__ *>,std::allocator<std::pair<HWND__ * const,CWndData> >,0> >::iterator::operator--
PUBLIC	?_Isnil@?$_Tree@V?$_Tmap_traits@PAUHWND__@@UCWndData@@U?$less@PAUHWND__@@@std@@V?$allocator@U?$pair@QAUHWND__@@UCWndData@@@std@@@4@$0A@@std@@@std@@KAAADPAU_Node@?$_Tree_nod@V?$_Tmap_traits@PAUHWND__@@UCWndData@@U?$less@PAUHWND__@@@std@@V?$allocator@U?$pair@QAUHWND__@@UCWndData@@@std@@@4@$0A@@std@@@2@@Z ; std::_Tree<std::_Tmap_traits<HWND__ *,CWndData,std::less<HWND__ *>,std::allocator<std::pair<HWND__ * const,CWndData> >,0> >::_Isnil
PUBLIC	?_Right@?$_Tree@V?$_Tmap_traits@PAUHWND__@@UCWndData@@U?$less@PAUHWND__@@@std@@V?$allocator@U?$pair@QAUHWND__@@UCWndData@@@std@@@4@$0A@@std@@@std@@KAAAPAU_Node@?$_Tree_nod@V?$_Tmap_traits@PAUHWND__@@UCWndData@@U?$less@PAUHWND__@@@std@@V?$allocator@U?$pair@QAUHWND__@@UCWndData@@@std@@@4@$0A@@std@@@2@PAU342@@Z ; std::_Tree<std::_Tmap_traits<HWND__ *,CWndData,std::less<HWND__ *>,std::allocator<std::pair<HWND__ * const,CWndData> >,0> >::_Right
PUBLIC	?size@?$_Tree@V?$_Tmap_traits@PAUHWND__@@UCWndData@@U?$less@PAUHWND__@@@std@@V?$allocator@U?$pair@QAUHWND__@@UCWndData@@@std@@@4@$0A@@std@@@std@@QBEIXZ ; std::_Tree<std::_Tmap_traits<HWND__ *,CWndData,std::less<HWND__ *>,std::allocator<std::pair<HWND__ * const,CWndData> >,0> >::size
PUBLIC	?insert@?$_Tree@V?$_Tmap_traits@PAUHWND__@@UCWndData@@U?$less@PAUHWND__@@@std@@V?$allocator@U?$pair@QAUHWND__@@UCWndData@@@std@@@4@$0A@@std@@@std@@QAE?AU?$pair@Viterator@?$_Tree@V?$_Tmap_traits@PAUHWND__@@UCWndData@@U?$less@PAUHWND__@@@std@@V?$allocator@U?$pair@QAUHWND__@@UCWndData@@@std@@@4@$0A@@std@@@std@@_N@2@ABU?$pair@QAUHWND__@@UCWndData@@@2@@Z ; std::_Tree<std::_Tmap_traits<HWND__ *,CWndData,std::less<HWND__ *>,std::allocator<std::pair<HWND__ * const,CWndData> >,0> >::insert
PUBLIC	?_Insert@?$_Tree@V?$_Tmap_traits@PAUHWND__@@UCWndData@@U?$less@PAUHWND__@@@std@@V?$allocator@U?$pair@QAUHWND__@@UCWndData@@@std@@@4@$0A@@std@@@std@@IAE?AViterator@12@_NPAU_Node@?$_Tree_nod@V?$_Tmap_traits@PAUHWND__@@UCWndData@@U?$less@PAUHWND__@@@std@@V?$allocator@U?$pair@QAUHWND__@@UCWndData@@@std@@@4@$0A@@std@@@2@ABU?$pair@QAUHWND__@@UCWndData@@@2@@Z ; std::_Tree<std::_Tmap_traits<HWND__ *,CWndData,std::less<HWND__ *>,std::allocator<std::pair<HWND__ * const,CWndData> >,0> >::_Insert
PUBLIC	?_Rmost@?$_Tree@V?$_Tmap_traits@PAUHWND__@@UCWndData@@U?$less@PAUHWND__@@@std@@V?$allocator@U?$pair@QAUHWND__@@UCWndData@@@std@@@4@$0A@@std@@@std@@IAEAAPAU_Node@?$_Tree_nod@V?$_Tmap_traits@PAUHWND__@@UCWndData@@U?$less@PAUHWND__@@@std@@V?$allocator@U?$pair@QAUHWND__@@UCWndData@@@std@@@4@$0A@@std@@@2@XZ ; std::_Tree<std::_Tmap_traits<HWND__ *,CWndData,std::less<HWND__ *>,std::allocator<std::pair<HWND__ * const,CWndData> >,0> >::_Rmost
; Function compile flags: /Odt
;	COMDAT ?insert@?$_Tree@V?$_Tmap_traits@PAUHWND__@@UCWndData@@U?$less@PAUHWND__@@@std@@V?$allocator@U?$pair@QAUHWND__@@UCWndData@@@std@@@4@$0A@@std@@@std@@QAE?AViterator@12@V312@ABU?$pair@QAUHWND__@@UCWndData@@@2@@Z
_TEXT	SEGMENT
_this$ = -40						; size = 4
$T202682 = -36						; size = 8
$T202681 = -28						; size = 4
$T202680 = -24						; size = 4
$T202679 = -20						; size = 4
$T202678 = -16						; size = 4
$T202677 = -12						; size = 4
$T202676 = -8						; size = 4
__Next$ = -4						; size = 4
___$ReturnUdt$ = 8					; size = 4
__Where$ = 12						; size = 4
__Val$ = 16						; size = 4
?insert@?$_Tree@V?$_Tmap_traits@PAUHWND__@@UCWndData@@U?$less@PAUHWND__@@@std@@V?$allocator@U?$pair@QAUHWND__@@UCWndData@@@std@@@4@$0A@@std@@@std@@QAE?AViterator@12@V312@ABU?$pair@QAUHWND__@@UCWndData@@@2@@Z PROC NEAR ; std::_Tree<std::_Tmap_traits<HWND__ *,CWndData,std::less<HWND__ *>,std::allocator<std::pair<HWND__ * const,CWndData> >,0> >::insert, COMDAT
; _this$ = ecx

; 509  : 		{	// try to insert node with value _Val using _Where as a hint

  00000	55		 push	 ebp
  00001	8b ec		 mov	 ebp, esp
  00003	83 ec 28	 sub	 esp, 40			; 00000028H
  00006	89 4d d8	 mov	 DWORD PTR _this$[ebp], ecx

; 510  : 		iterator _Next;

  00009	8d 4d fc	 lea	 ecx, DWORD PTR __Next$[ebp]
  0000c	e8 00 00 00 00	 call	 ??0iterator@?$_Tree@V?$_Tmap_traits@PAUHWND__@@UCWndData@@U?$less@PAUHWND__@@@std@@V?$allocator@U?$pair@QAUHWND__@@UCWndData@@@std@@@4@$0A@@std@@@std@@QAE@XZ ; std::_Tree<std::_Tmap_traits<HWND__ *,CWndData,std::less<HWND__ *>,std::allocator<std::pair<HWND__ * const,CWndData> >,0> >::iterator::iterator

; 511  : 
; 512  : 		if (size() == 0)

  00011	8b 4d d8	 mov	 ecx, DWORD PTR _this$[ebp]
  00014	e8 00 00 00 00	 call	 ?size@?$_Tree@V?$_Tmap_traits@PAUHWND__@@UCWndData@@U?$less@PAUHWND__@@@std@@V?$allocator@U?$pair@QAUHWND__@@UCWndData@@@std@@@4@$0A@@std@@@std@@QBEIXZ ; std::_Tree<std::_Tmap_traits<HWND__ *,CWndData,std::less<HWND__ *>,std::allocator<std::pair<HWND__ * const,CWndData> >,0> >::size
  00019	85 c0		 test	 eax, eax
  0001b	75 21		 jne	 SHORT $L200598

; 513  : 			return (_Insert(true, _Myhead, _Val));	// insert into empty tree

  0001d	8b 45 10	 mov	 eax, DWORD PTR __Val$[ebp]
  00020	50		 push	 eax
  00021	8b 4d d8	 mov	 ecx, DWORD PTR _this$[ebp]
  00024	8b 51 04	 mov	 edx, DWORD PTR [ecx+4]
  00027	52		 push	 edx
  00028	6a 01		 push	 1
  0002a	8b 45 08	 mov	 eax, DWORD PTR ___$ReturnUdt$[ebp]
  0002d	50		 push	 eax
  0002e	8b 4d d8	 mov	 ecx, DWORD PTR _this$[ebp]
  00031	e8 00 00 00 00	 call	 ?_Insert@?$_Tree@V?$_Tmap_traits@PAUHWND__@@UCWndData@@U?$less@PAUHWND__@@@std@@V?$allocator@U?$pair@QAUHWND__@@UCWndData@@@std@@@4@$0A@@std@@@std@@IAE?AViterator@12@_NPAU_Node@?$_Tree_nod@V?$_Tmap_traits@PAUHWND__@@UCWndData@@U?$less@PAUHWND__@@@std@@V?$allocator@U?$pair@QAUHWND__@@UCWndData@@@std@@@4@$0A@@std@@@2@ABU?$pair@QAUHWND__@@UCWndData@@@2@@Z ; std::_Tree<std::_Tmap_traits<HWND__ *,CWndData,std::less<HWND__ *>,std::allocator<std::pair<HWND__ * const,CWndData> >,0> >::_Insert
  00036	8b 45 08	 mov	 eax, DWORD PTR ___$ReturnUdt$[ebp]
  00039	e9 81 05 00 00	 jmp	 $L200596
$L200598:

; 514  : 		else if (this->_Multi)

  0003e	33 c9		 xor	 ecx, ecx
  00040	0f 84 b5 02 00
	00		 je	 $L200601

; 515  : 			{	// insert even if duplicate
; 516  : 			if (_Where == begin())

  00046	8d 55 f8	 lea	 edx, DWORD PTR $T202676[ebp]
  00049	52		 push	 edx
  0004a	8b 4d d8	 mov	 ecx, DWORD PTR _this$[ebp]
  0004d	e8 00 00 00 00	 call	 ?begin@?$_Tree@V?$_Tmap_traits@PAUHWND__@@UCWndData@@U?$less@PAUHWND__@@@std@@V?$allocator@U?$pair@QAUHWND__@@UCWndData@@@std@@@4@$0A@@std@@@std@@QAE?AViterator@12@XZ ; std::_Tree<std::_Tmap_traits<HWND__ *,CWndData,std::less<HWND__ *>,std::allocator<std::pair<HWND__ * const,CWndData> >,0> >::begin
  00052	50		 push	 eax
  00053	8d 4d 0c	 lea	 ecx, DWORD PTR __Where$[ebp]
  00056	e8 00 00 00 00	 call	 ??8const_iterator@?$_Tree@V?$_Tmap_traits@PAUHWND__@@UCWndData@@U?$less@PAUHWND__@@@std@@V?$allocator@U?$pair@QAUHWND__@@UCWndData@@@std@@@4@$0A@@std@@@std@@QBE_NABV012@@Z ; std::_Tree<std::_Tmap_traits<HWND__ *,CWndData,std::less<HWND__ *>,std::allocator<std::pair<HWND__ * const,CWndData> >,0> >::const_iterator::operator==
  0005b	0f b6 c0	 movzx	 eax, al
  0005e	85 c0		 test	 eax, eax
  00060	74 56		 je	 SHORT $L200603

; 517  : 				{	// insert at beginning if before first element
; 518  : 				if (!this->comp(_Key(_Where._Mynode()), this->_Kfn(_Val)))

  00062	8b 4d 10	 mov	 ecx, DWORD PTR __Val$[ebp]
  00065	51		 push	 ecx
  00066	e8 00 00 00 00	 call	 ?_Kfn@?$_Tmap_traits@PAUHWND__@@UCWndData@@U?$less@PAUHWND__@@@std@@V?$allocator@U?$pair@QAUHWND__@@UCWndData@@@std@@@4@$0A@@std@@SAABQAUHWND__@@ABU?$pair@QAUHWND__@@UCWndData@@@2@@Z ; std::_Tmap_traits<HWND__ *,CWndData,std::less<HWND__ *>,std::allocator<std::pair<HWND__ * const,CWndData> >,0>::_Kfn
  0006b	83 c4 04	 add	 esp, 4
  0006e	50		 push	 eax
  0006f	8d 4d 0c	 lea	 ecx, DWORD PTR __Where$[ebp]
  00072	e8 00 00 00 00	 call	 ?_Mynode@const_iterator@?$_Tree@V?$_Tmap_traits@PAUHWND__@@UCWndData@@U?$less@PAUHWND__@@@std@@V?$allocator@U?$pair@QAUHWND__@@UCWndData@@@std@@@4@$0A@@std@@@std@@QBEPAU_Node@?$_Tree_nod@V?$_Tmap_traits@PAUHWND__@@UCWndData@@U?$less@PAUHWND__@@@std@@V?$allocator@U?$pair@QAUHWND__@@UCWndData@@@std@@@4@$0A@@std@@@3@XZ ; std::_Tree<std::_Tmap_traits<HWND__ *,CWndData,std::less<HWND__ *>,std::allocator<std::pair<HWND__ * const,CWndData> >,0> >::const_iterator::_Mynode
  00077	50		 push	 eax
  00078	e8 00 00 00 00	 call	 ?_Key@?$_Tree@V?$_Tmap_traits@PAUHWND__@@UCWndData@@U?$less@PAUHWND__@@@std@@V?$allocator@U?$pair@QAUHWND__@@UCWndData@@@std@@@4@$0A@@std@@@std@@KAABQAUHWND__@@PAU_Node@?$_Tree_nod@V?$_Tmap_traits@PAUHWND__@@UCWndData@@U?$less@PAUHWND__@@@std@@V?$allocator@U?$pair@QAUHWND__@@UCWndData@@@std@@@4@$0A@@std@@@2@@Z ; std::_Tree<std::_Tmap_traits<HWND__ *,CWndData,std::less<HWND__ *>,std::allocator<std::pair<HWND__ * const,CWndData> >,0> >::_Key
  0007d	83 c4 04	 add	 esp, 4
  00080	50		 push	 eax
  00081	8b 4d d8	 mov	 ecx, DWORD PTR _this$[ebp]
  00084	e8 00 00 00 00	 call	 ??R?$less@PAUHWND__@@@std@@QBE_NABQAUHWND__@@0@Z ; std::less<HWND__ *>::operator()
  00089	0f b6 d0	 movzx	 edx, al
  0008c	85 d2		 test	 edx, edx
  0008e	75 23		 jne	 SHORT $L200604

; 519  : 					return (_Insert(true, _Where._Mynode(), _Val));

  00090	8b 45 10	 mov	 eax, DWORD PTR __Val$[ebp]
  00093	50		 push	 eax
  00094	8d 4d 0c	 lea	 ecx, DWORD PTR __Where$[ebp]
  00097	e8 00 00 00 00	 call	 ?_Mynode@const_iterator@?$_Tree@V?$_Tmap_traits@PAUHWND__@@UCWndData@@U?$less@PAUHWND__@@@std@@V?$allocator@U?$pair@QAUHWND__@@UCWndData@@@std@@@4@$0A@@std@@@std@@QBEPAU_Node@?$_Tree_nod@V?$_Tmap_traits@PAUHWND__@@UCWndData@@U?$less@PAUHWND__@@@std@@V?$allocator@U?$pair@QAUHWND__@@UCWndData@@@std@@@4@$0A@@std@@@3@XZ ; std::_Tree<std::_Tmap_traits<HWND__ *,CWndData,std::less<HWND__ *>,std::allocator<std::pair<HWND__ * const,CWndData> >,0> >::const_iterator::_Mynode
  0009c	50		 push	 eax
  0009d	6a 01		 push	 1
  0009f	8b 4d 08	 mov	 ecx, DWORD PTR ___$ReturnUdt$[ebp]
  000a2	51		 push	 ecx
  000a3	8b 4d d8	 mov	 ecx, DWORD PTR _this$[ebp]
  000a6	e8 00 00 00 00	 call	 ?_Insert@?$_Tree@V?$_Tmap_traits@PAUHWND__@@UCWndData@@U?$less@PAUHWND__@@@std@@V?$allocator@U?$pair@QAUHWND__@@UCWndData@@@std@@@4@$0A@@std@@@std@@IAE?AViterator@12@_NPAU_Node@?$_Tree_nod@V?$_Tmap_traits@PAUHWND__@@UCWndData@@U?$less@PAUHWND__@@@std@@V?$allocator@U?$pair@QAUHWND__@@UCWndData@@@std@@@4@$0A@@std@@@2@ABU?$pair@QAUHWND__@@UCWndData@@@2@@Z ; std::_Tree<std::_Tmap_traits<HWND__ *,CWndData,std::less<HWND__ *>,std::allocator<std::pair<HWND__ * const,CWndData> >,0> >::_Insert
  000ab	8b 45 08	 mov	 eax, DWORD PTR ___$ReturnUdt$[ebp]
  000ae	e9 0c 05 00 00	 jmp	 $L200596
$L200604:

; 520  : 				}
; 521  : 			else if (_Where == end())

  000b3	e9 3e 02 00 00	 jmp	 $L200606
$L200603:
  000b8	8d 55 f4	 lea	 edx, DWORD PTR $T202677[ebp]
  000bb	52		 push	 edx
  000bc	8b 4d d8	 mov	 ecx, DWORD PTR _this$[ebp]
  000bf	e8 00 00 00 00	 call	 ?end@?$_Tree@V?$_Tmap_traits@PAUHWND__@@UCWndData@@U?$less@PAUHWND__@@@std@@V?$allocator@U?$pair@QAUHWND__@@UCWndData@@@std@@@4@$0A@@std@@@std@@QAE?AViterator@12@XZ ; std::_Tree<std::_Tmap_traits<HWND__ *,CWndData,std::less<HWND__ *>,std::allocator<std::pair<HWND__ * const,CWndData> >,0> >::end
  000c4	50		 push	 eax
  000c5	8d 4d 0c	 lea	 ecx, DWORD PTR __Where$[ebp]
  000c8	e8 00 00 00 00	 call	 ??8const_iterator@?$_Tree@V?$_Tmap_traits@PAUHWND__@@UCWndData@@U?$less@PAUHWND__@@@std@@V?$allocator@U?$pair@QAUHWND__@@UCWndData@@@std@@@4@$0A@@std@@@std@@QBE_NABV012@@Z ; std::_Tree<std::_Tmap_traits<HWND__ *,CWndData,std::less<HWND__ *>,std::allocator<std::pair<HWND__ * const,CWndData> >,0> >::const_iterator::operator==
  000cd	0f b6 c0	 movzx	 eax, al
  000d0	85 c0		 test	 eax, eax
  000d2	74 5a		 je	 SHORT $L200608

; 522  : 				{	// insert at end if after last element
; 523  : 				if (!this->comp(this->_Kfn(_Val), _Key(_Rmost())))

  000d4	8b 4d d8	 mov	 ecx, DWORD PTR _this$[ebp]
  000d7	e8 00 00 00 00	 call	 ?_Rmost@?$_Tree@V?$_Tmap_traits@PAUHWND__@@UCWndData@@U?$less@PAUHWND__@@@std@@V?$allocator@U?$pair@QAUHWND__@@UCWndData@@@std@@@4@$0A@@std@@@std@@IAEAAPAU_Node@?$_Tree_nod@V?$_Tmap_traits@PAUHWND__@@UCWndData@@U?$less@PAUHWND__@@@std@@V?$allocator@U?$pair@QAUHWND__@@UCWndData@@@std@@@4@$0A@@std@@@2@XZ ; std::_Tree<std::_Tmap_traits<HWND__ *,CWndData,std::less<HWND__ *>,std::allocator<std::pair<HWND__ * const,CWndData> >,0> >::_Rmost
  000dc	8b 08		 mov	 ecx, DWORD PTR [eax]
  000de	51		 push	 ecx
  000df	e8 00 00 00 00	 call	 ?_Key@?$_Tree@V?$_Tmap_traits@PAUHWND__@@UCWndData@@U?$less@PAUHWND__@@@std@@V?$allocator@U?$pair@QAUHWND__@@UCWndData@@@std@@@4@$0A@@std@@@std@@KAABQAUHWND__@@PAU_Node@?$_Tree_nod@V?$_Tmap_traits@PAUHWND__@@UCWndData@@U?$less@PAUHWND__@@@std@@V?$allocator@U?$pair@QAUHWND__@@UCWndData@@@std@@@4@$0A@@std@@@2@@Z ; std::_Tree<std::_Tmap_traits<HWND__ *,CWndData,std::less<HWND__ *>,std::allocator<std::pair<HWND__ * const,CWndData> >,0> >::_Key
  000e4	83 c4 04	 add	 esp, 4
  000e7	50		 push	 eax
  000e8	8b 55 10	 mov	 edx, DWORD PTR __Val$[ebp]
  000eb	52		 push	 edx
  000ec	e8 00 00 00 00	 call	 ?_Kfn@?$_Tmap_traits@PAUHWND__@@UCWndData@@U?$less@PAUHWND__@@@std@@V?$allocator@U?$pair@QAUHWND__@@UCWndData@@@std@@@4@$0A@@std@@SAABQAUHWND__@@ABU?$pair@QAUHWND__@@UCWndData@@@2@@Z ; std::_Tmap_traits<HWND__ *,CWndData,std::less<HWND__ *>,std::allocator<std::pair<HWND__ * const,CWndData> >,0>::_Kfn
  000f1	83 c4 04	 add	 esp, 4
  000f4	50		 push	 eax
  000f5	8b 4d d8	 mov	 ecx, DWORD PTR _this$[ebp]
  000f8	e8 00 00 00 00	 call	 ??R?$less@PAUHWND__@@@std@@QBE_NABQAUHWND__@@0@Z ; std::less<HWND__ *>::operator()
  000fd	0f b6 c0	 movzx	 eax, al
  00100	85 c0		 test	 eax, eax
  00102	75 25		 jne	 SHORT $L200609

; 524  : 					return (_Insert(false, _Rmost(), _Val));

  00104	8b 4d 10	 mov	 ecx, DWORD PTR __Val$[ebp]
  00107	51		 push	 ecx
  00108	8b 4d d8	 mov	 ecx, DWORD PTR _this$[ebp]
  0010b	e8 00 00 00 00	 call	 ?_Rmost@?$_Tree@V?$_Tmap_traits@PAUHWND__@@UCWndData@@U?$less@PAUHWND__@@@std@@V?$allocator@U?$pair@QAUHWND__@@UCWndData@@@std@@@4@$0A@@std@@@std@@IAEAAPAU_Node@?$_Tree_nod@V?$_Tmap_traits@PAUHWND__@@UCWndData@@U?$less@PAUHWND__@@@std@@V?$allocator@U?$pair@QAUHWND__@@UCWndData@@@std@@@4@$0A@@std@@@2@XZ ; std::_Tree<std::_Tmap_traits<HWND__ *,CWndData,std::less<HWND__ *>,std::allocator<std::pair<HWND__ * const,CWndData> >,0> >::_Rmost
  00110	8b 10		 mov	 edx, DWORD PTR [eax]
  00112	52		 push	 edx
  00113	6a 00		 push	 0
  00115	8b 45 08	 mov	 eax, DWORD PTR ___$ReturnUdt$[ebp]
  00118	50		 push	 eax
  00119	8b 4d d8	 mov	 ecx, DWORD PTR _this$[ebp]
  0011c	e8 00 00 00 00	 call	 ?_Insert@?$_Tree@V?$_Tmap_traits@PAUHWND__@@UCWndData@@U?$less@PAUHWND__@@@std@@V?$allocator@U?$pair@QAUHWND__@@UCWndData@@@std@@@4@$0A@@std@@@std@@IAE?AViterator@12@_NPAU_Node@?$_Tree_nod@V?$_Tmap_traits@PAUHWND__@@UCWndData@@U?$less@PAUHWND__@@@std@@V?$allocator@U?$pair@QAUHWND__@@UCWndData@@@std@@@4@$0A@@std@@@2@ABU?$pair@QAUHWND__@@UCWndData@@@2@@Z ; std::_Tree<std::_Tmap_traits<HWND__ *,CWndData,std::less<HWND__ *>,std::allocator<std::pair<HWND__ * const,CWndData> >,0> >::_Insert
  00121	8b 45 08	 mov	 eax, DWORD PTR ___$ReturnUdt$[ebp]
  00124	e9 96 04 00 00	 jmp	 $L200596
$L200609:

; 525  : 				}
; 526  : 			else if (!this->comp(_Key(_Where._Mynode()), this->_Kfn(_Val))

  00129	e9 c8 01 00 00	 jmp	 $L200606
$L200608:

; 527  : 				&& !this->comp(this->_Kfn(_Val),
; 528  : 					_Key((--(_Next = _Where))._Mynode())))

  0012e	8b 4d 10	 mov	 ecx, DWORD PTR __Val$[ebp]
  00131	51		 push	 ecx
  00132	e8 00 00 00 00	 call	 ?_Kfn@?$_Tmap_traits@PAUHWND__@@UCWndData@@U?$less@PAUHWND__@@@std@@V?$allocator@U?$pair@QAUHWND__@@UCWndData@@@std@@@4@$0A@@std@@SAABQAUHWND__@@ABU?$pair@QAUHWND__@@UCWndData@@@2@@Z ; std::_Tmap_traits<HWND__ *,CWndData,std::less<HWND__ *>,std::allocator<std::pair<HWND__ * const,CWndData> >,0>::_Kfn
  00137	83 c4 04	 add	 esp, 4
  0013a	50		 push	 eax
  0013b	8d 4d 0c	 lea	 ecx, DWORD PTR __Where$[ebp]
  0013e	e8 00 00 00 00	 call	 ?_Mynode@const_iterator@?$_Tree@V?$_Tmap_traits@PAUHWND__@@UCWndData@@U?$less@PAUHWND__@@@std@@V?$allocator@U?$pair@QAUHWND__@@UCWndData@@@std@@@4@$0A@@std@@@std@@QBEPAU_Node@?$_Tree_nod@V?$_Tmap_traits@PAUHWND__@@UCWndData@@U?$less@PAUHWND__@@@std@@V?$allocator@U?$pair@QAUHWND__@@UCWndData@@@std@@@4@$0A@@std@@@3@XZ ; std::_Tree<std::_Tmap_traits<HWND__ *,CWndData,std::less<HWND__ *>,std::allocator<std::pair<HWND__ * const,CWndData> >,0> >::const_iterator::_Mynode
  00143	50		 push	 eax
  00144	e8 00 00 00 00	 call	 ?_Key@?$_Tree@V?$_Tmap_traits@PAUHWND__@@UCWndData@@U?$less@PAUHWND__@@@std@@V?$allocator@U?$pair@QAUHWND__@@UCWndData@@@std@@@4@$0A@@std@@@std@@KAABQAUHWND__@@PAU_Node@?$_Tree_nod@V?$_Tmap_traits@PAUHWND__@@UCWndData@@U?$less@PAUHWND__@@@std@@V?$allocator@U?$pair@QAUHWND__@@UCWndData@@@std@@@4@$0A@@std@@@2@@Z ; std::_Tree<std::_Tmap_traits<HWND__ *,CWndData,std::less<HWND__ *>,std::allocator<std::pair<HWND__ * const,CWndData> >,0> >::_Key
  00149	83 c4 04	 add	 esp, 4
  0014c	50		 push	 eax
  0014d	8b 4d d8	 mov	 ecx, DWORD PTR _this$[ebp]
  00150	e8 00 00 00 00	 call	 ??R?$less@PAUHWND__@@@std@@QBE_NABQAUHWND__@@0@Z ; std::less<HWND__ *>::operator()
  00155	0f b6 d0	 movzx	 edx, al
  00158	85 d2		 test	 edx, edx
  0015a	0f 85 a4 00 00
	00		 jne	 $L200612
  00160	8b 45 0c	 mov	 eax, DWORD PTR __Where$[ebp]
  00163	89 45 fc	 mov	 DWORD PTR __Next$[ebp], eax
  00166	8d 4d fc	 lea	 ecx, DWORD PTR __Next$[ebp]
  00169	e8 00 00 00 00	 call	 ??Fiterator@?$_Tree@V?$_Tmap_traits@PAUHWND__@@UCWndData@@U?$less@PAUHWND__@@@std@@V?$allocator@U?$pair@QAUHWND__@@UCWndData@@@std@@@4@$0A@@std@@@std@@QAEAAV012@XZ ; std::_Tree<std::_Tmap_traits<HWND__ *,CWndData,std::less<HWND__ *>,std::allocator<std::pair<HWND__ * const,CWndData> >,0> >::iterator::operator--
  0016e	8b c8		 mov	 ecx, eax
  00170	e8 00 00 00 00	 call	 ?_Mynode@const_iterator@?$_Tree@V?$_Tmap_traits@PAUHWND__@@UCWndData@@U?$less@PAUHWND__@@@std@@V?$allocator@U?$pair@QAUHWND__@@UCWndData@@@std@@@4@$0A@@std@@@std@@QBEPAU_Node@?$_Tree_nod@V?$_Tmap_traits@PAUHWND__@@UCWndData@@U?$less@PAUHWND__@@@std@@V?$allocator@U?$pair@QAUHWND__@@UCWndData@@@std@@@4@$0A@@std@@@3@XZ ; std::_Tree<std::_Tmap_traits<HWND__ *,CWndData,std::less<HWND__ *>,std::allocator<std::pair<HWND__ * const,CWndData> >,0> >::const_iterator::_Mynode
  00175	50		 push	 eax
  00176	e8 00 00 00 00	 call	 ?_Key@?$_Tree@V?$_Tmap_traits@PAUHWND__@@UCWndData@@U?$less@PAUHWND__@@@std@@V?$allocator@U?$pair@QAUHWND__@@UCWndData@@@std@@@4@$0A@@std@@@std@@KAABQAUHWND__@@PAU_Node@?$_Tree_nod@V?$_Tmap_traits@PAUHWND__@@UCWndData@@U?$less@PAUHWND__@@@std@@V?$allocator@U?$pair@QAUHWND__@@UCWndData@@@std@@@4@$0A@@std@@@2@@Z ; std::_Tree<std::_Tmap_traits<HWND__ *,CWndData,std::less<HWND__ *>,std::allocator<std::pair<HWND__ * const,CWndData> >,0> >::_Key
  0017b	83 c4 04	 add	 esp, 4
  0017e	50		 push	 eax
  0017f	8b 4d 10	 mov	 ecx, DWORD PTR __Val$[ebp]
  00182	51		 push	 ecx
  00183	e8 00 00 00 00	 call	 ?_Kfn@?$_Tmap_traits@PAUHWND__@@UCWndData@@U?$less@PAUHWND__@@@std@@V?$allocator@U?$pair@QAUHWND__@@UCWndData@@@std@@@4@$0A@@std@@SAABQAUHWND__@@ABU?$pair@QAUHWND__@@UCWndData@@@2@@Z ; std::_Tmap_traits<HWND__ *,CWndData,std::less<HWND__ *>,std::allocator<std::pair<HWND__ * const,CWndData> >,0>::_Kfn
  00188	83 c4 04	 add	 esp, 4
  0018b	50		 push	 eax
  0018c	8b 4d d8	 mov	 ecx, DWORD PTR _this$[ebp]
  0018f	e8 00 00 00 00	 call	 ??R?$less@PAUHWND__@@@std@@QBE_NABQAUHWND__@@0@Z ; std::less<HWND__ *>::operator()
  00194	0f b6 d0	 movzx	 edx, al
  00197	85 d2		 test	 edx, edx
  00199	75 69		 jne	 SHORT $L200612

; 529  : 				{	// insert before _Where
; 530  : 				if (_Isnil(_Right(_Next._Mynode())))

  0019b	8d 4d fc	 lea	 ecx, DWORD PTR __Next$[ebp]
  0019e	e8 00 00 00 00	 call	 ?_Mynode@const_iterator@?$_Tree@V?$_Tmap_traits@PAUHWND__@@UCWndData@@U?$less@PAUHWND__@@@std@@V?$allocator@U?$pair@QAUHWND__@@UCWndData@@@std@@@4@$0A@@std@@@std@@QBEPAU_Node@?$_Tree_nod@V?$_Tmap_traits@PAUHWND__@@UCWndData@@U?$less@PAUHWND__@@@std@@V?$allocator@U?$pair@QAUHWND__@@UCWndData@@@std@@@4@$0A@@std@@@3@XZ ; std::_Tree<std::_Tmap_traits<HWND__ *,CWndData,std::less<HWND__ *>,std::allocator<std::pair<HWND__ * const,CWndData> >,0> >::const_iterator::_Mynode
  001a3	50		 push	 eax
  001a4	e8 00 00 00 00	 call	 ?_Right@?$_Tree@V?$_Tmap_traits@PAUHWND__@@UCWndData@@U?$less@PAUHWND__@@@std@@V?$allocator@U?$pair@QAUHWND__@@UCWndData@@@std@@@4@$0A@@std@@@std@@KAAAPAU_Node@?$_Tree_nod@V?$_Tmap_traits@PAUHWND__@@UCWndData@@U?$less@PAUHWND__@@@std@@V?$allocator@U?$pair@QAUHWND__@@UCWndData@@@std@@@4@$0A@@std@@@2@PAU342@@Z ; std::_Tree<std::_Tmap_traits<HWND__ *,CWndData,std::less<HWND__ *>,std::allocator<std::pair<HWND__ * const,CWndData> >,0> >::_Right
  001a9	83 c4 04	 add	 esp, 4
  001ac	8b 00		 mov	 eax, DWORD PTR [eax]
  001ae	50		 push	 eax
  001af	e8 00 00 00 00	 call	 ?_Isnil@?$_Tree@V?$_Tmap_traits@PAUHWND__@@UCWndData@@U?$less@PAUHWND__@@@std@@V?$allocator@U?$pair@QAUHWND__@@UCWndData@@@std@@@4@$0A@@std@@@std@@KAAADPAU_Node@?$_Tree_nod@V?$_Tmap_traits@PAUHWND__@@UCWndData@@U?$less@PAUHWND__@@@std@@V?$allocator@U?$pair@QAUHWND__@@UCWndData@@@std@@@4@$0A@@std@@@2@@Z ; std::_Tree<std::_Tmap_traits<HWND__ *,CWndData,std::less<HWND__ *>,std::allocator<std::pair<HWND__ * const,CWndData> >,0> >::_Isnil
  001b4	83 c4 04	 add	 esp, 4
  001b7	0f be 08	 movsx	 ecx, BYTE PTR [eax]
  001ba	85 c9		 test	 ecx, ecx
  001bc	74 23		 je	 SHORT $L200613

; 531  : 					return (_Insert(false, _Next._Mynode(), _Val));

  001be	8b 55 10	 mov	 edx, DWORD PTR __Val$[ebp]
  001c1	52		 push	 edx
  001c2	8d 4d fc	 lea	 ecx, DWORD PTR __Next$[ebp]
  001c5	e8 00 00 00 00	 call	 ?_Mynode@const_iterator@?$_Tree@V?$_Tmap_traits@PAUHWND__@@UCWndData@@U?$less@PAUHWND__@@@std@@V?$allocator@U?$pair@QAUHWND__@@UCWndData@@@std@@@4@$0A@@std@@@std@@QBEPAU_Node@?$_Tree_nod@V?$_Tmap_traits@PAUHWND__@@UCWndData@@U?$less@PAUHWND__@@@std@@V?$allocator@U?$pair@QAUHWND__@@UCWndData@@@std@@@4@$0A@@std@@@3@XZ ; std::_Tree<std::_Tmap_traits<HWND__ *,CWndData,std::less<HWND__ *>,std::allocator<std::pair<HWND__ * const,CWndData> >,0> >::const_iterator::_Mynode
  001ca	50		 push	 eax
  001cb	6a 00		 push	 0
  001cd	8b 45 08	 mov	 eax, DWORD PTR ___$ReturnUdt$[ebp]
  001d0	50		 push	 eax
  001d1	8b 4d d8	 mov	 ecx, DWORD PTR _this$[ebp]
  001d4	e8 00 00 00 00	 call	 ?_Insert@?$_Tree@V?$_Tmap_traits@PAUHWND__@@UCWndData@@U?$less@PAUHWND__@@@std@@V?$allocator@U?$pair@QAUHWND__@@UCWndData@@@std@@@4@$0A@@std@@@std@@IAE?AViterator@12@_NPAU_Node@?$_Tree_nod@V?$_Tmap_traits@PAUHWND__@@UCWndData@@U?$less@PAUHWND__@@@std@@V?$allocator@U?$pair@QAUHWND__@@UCWndData@@@std@@@4@$0A@@std@@@2@ABU?$pair@QAUHWND__@@UCWndData@@@2@@Z ; std::_Tree<std::_Tmap_traits<HWND__ *,CWndData,std::less<HWND__ *>,std::allocator<std::pair<HWND__ * const,CWndData> >,0> >::_Insert
  001d9	8b 45 08	 mov	 eax, DWORD PTR ___$ReturnUdt$[ebp]
  001dc	e9 de 03 00 00	 jmp	 $L200596
$L200613:

; 532  : 				else
; 533  : 					return (_Insert(true, _Where._Mynode(), _Val));

  001e1	8b 4d 10	 mov	 ecx, DWORD PTR __Val$[ebp]
  001e4	51		 push	 ecx
  001e5	8d 4d 0c	 lea	 ecx, DWORD PTR __Where$[ebp]
  001e8	e8 00 00 00 00	 call	 ?_Mynode@const_iterator@?$_Tree@V?$_Tmap_traits@PAUHWND__@@UCWndData@@U?$less@PAUHWND__@@@std@@V?$allocator@U?$pair@QAUHWND__@@UCWndData@@@std@@@4@$0A@@std@@@std@@QBEPAU_Node@?$_Tree_nod@V?$_Tmap_traits@PAUHWND__@@UCWndData@@U?$less@PAUHWND__@@@std@@V?$allocator@U?$pair@QAUHWND__@@UCWndData@@@std@@@4@$0A@@std@@@3@XZ ; std::_Tree<std::_Tmap_traits<HWND__ *,CWndData,std::less<HWND__ *>,std::allocator<std::pair<HWND__ * const,CWndData> >,0> >::const_iterator::_Mynode
  001ed	50		 push	 eax
  001ee	6a 01		 push	 1
  001f0	8b 55 08	 mov	 edx, DWORD PTR ___$ReturnUdt$[ebp]
  001f3	52		 push	 edx
  001f4	8b 4d d8	 mov	 ecx, DWORD PTR _this$[ebp]
  001f7	e8 00 00 00 00	 call	 ?_Insert@?$_Tree@V?$_Tmap_traits@PAUHWND__@@UCWndData@@U?$less@PAUHWND__@@@std@@V?$allocator@U?$pair@QAUHWND__@@UCWndData@@@std@@@4@$0A@@std@@@std@@IAE?AViterator@12@_NPAU_Node@?$_Tree_nod@V?$_Tmap_traits@PAUHWND__@@UCWndData@@U?$less@PAUHWND__@@@std@@V?$allocator@U?$pair@QAUHWND__@@UCWndData@@@std@@@4@$0A@@std@@@2@ABU?$pair@QAUHWND__@@UCWndData@@@2@@Z ; std::_Tree<std::_Tmap_traits<HWND__ *,CWndData,std::less<HWND__ *>,std::allocator<std::pair<HWND__ * const,CWndData> >,0> >::_Insert
  001fc	8b 45 08	 mov	 eax, DWORD PTR ___$ReturnUdt$[ebp]
  001ff	e9 bb 03 00 00	 jmp	 $L200596
$L200612:

; 534  : 				}
; 535  : 			else if (!this->comp(this->_Kfn(_Val), _Key(_Where._Mynode()))
; 536  : 				&& (++(_Next = _Where) == end()
; 537  : 					|| !this->comp(_Key(_Next._Mynode()),
; 538  : 						this->_Kfn(_Val))))

  00204	8d 4d 0c	 lea	 ecx, DWORD PTR __Where$[ebp]
  00207	e8 00 00 00 00	 call	 ?_Mynode@const_iterator@?$_Tree@V?$_Tmap_traits@PAUHWND__@@UCWndData@@U?$less@PAUHWND__@@@std@@V?$allocator@U?$pair@QAUHWND__@@UCWndData@@@std@@@4@$0A@@std@@@std@@QBEPAU_Node@?$_Tree_nod@V?$_Tmap_traits@PAUHWND__@@UCWndData@@U?$less@PAUHWND__@@@std@@V?$allocator@U?$pair@QAUHWND__@@UCWndData@@@std@@@4@$0A@@std@@@3@XZ ; std::_Tree<std::_Tmap_traits<HWND__ *,CWndData,std::less<HWND__ *>,std::allocator<std::pair<HWND__ * const,CWndData> >,0> >::const_iterator::_Mynode
  0020c	50		 push	 eax
  0020d	e8 00 00 00 00	 call	 ?_Key@?$_Tree@V?$_Tmap_traits@PAUHWND__@@UCWndData@@U?$less@PAUHWND__@@@std@@V?$allocator@U?$pair@QAUHWND__@@UCWndData@@@std@@@4@$0A@@std@@@std@@KAABQAUHWND__@@PAU_Node@?$_Tree_nod@V?$_Tmap_traits@PAUHWND__@@UCWndData@@U?$less@PAUHWND__@@@std@@V?$allocator@U?$pair@QAUHWND__@@UCWndData@@@std@@@4@$0A@@std@@@2@@Z ; std::_Tree<std::_Tmap_traits<HWND__ *,CWndData,std::less<HWND__ *>,std::allocator<std::pair<HWND__ * const,CWndData> >,0> >::_Key
  00212	83 c4 04	 add	 esp, 4
  00215	50		 push	 eax
  00216	8b 45 10	 mov	 eax, DWORD PTR __Val$[ebp]
  00219	50		 push	 eax
  0021a	e8 00 00 00 00	 call	 ?_Kfn@?$_Tmap_traits@PAUHWND__@@UCWndData@@U?$less@PAUHWND__@@@std@@V?$allocator@U?$pair@QAUHWND__@@UCWndData@@@std@@@4@$0A@@std@@SAABQAUHWND__@@ABU?$pair@QAUHWND__@@UCWndData@@@2@@Z ; std::_Tmap_traits<HWND__ *,CWndData,std::less<HWND__ *>,std::allocator<std::pair<HWND__ * const,CWndData> >,0>::_Kfn
  0021f	83 c4 04	 add	 esp, 4
  00222	50		 push	 eax
  00223	8b 4d d8	 mov	 ecx, DWORD PTR _this$[ebp]
  00226	e8 00 00 00 00	 call	 ??R?$less@PAUHWND__@@@std@@QBE_NABQAUHWND__@@0@Z ; std::less<HWND__ *>::operator()
  0022b	0f b6 c8	 movzx	 ecx, al
  0022e	85 c9		 test	 ecx, ecx
  00230	0f 85 c0 00 00
	00		 jne	 $L200606
  00236	8b 55 0c	 mov	 edx, DWORD PTR __Where$[ebp]
  00239	89 55 fc	 mov	 DWORD PTR __Next$[ebp], edx
  0023c	8d 45 f0	 lea	 eax, DWORD PTR $T202678[ebp]
  0023f	50		 push	 eax
  00240	8b 4d d8	 mov	 ecx, DWORD PTR _this$[ebp]
  00243	e8 00 00 00 00	 call	 ?end@?$_Tree@V?$_Tmap_traits@PAUHWND__@@UCWndData@@U?$less@PAUHWND__@@@std@@V?$allocator@U?$pair@QAUHWND__@@UCWndData@@@std@@@4@$0A@@std@@@std@@QAE?AViterator@12@XZ ; std::_Tree<std::_Tmap_traits<HWND__ *,CWndData,std::less<HWND__ *>,std::allocator<std::pair<HWND__ * const,CWndData> >,0> >::end
  00248	50		 push	 eax
  00249	8d 4d fc	 lea	 ecx, DWORD PTR __Next$[ebp]
  0024c	e8 00 00 00 00	 call	 ??Eiterator@?$_Tree@V?$_Tmap_traits@PAUHWND__@@UCWndData@@U?$less@PAUHWND__@@@std@@V?$allocator@U?$pair@QAUHWND__@@UCWndData@@@std@@@4@$0A@@std@@@std@@QAEAAV012@XZ ; std::_Tree<std::_Tmap_traits<HWND__ *,CWndData,std::less<HWND__ *>,std::allocator<std::pair<HWND__ * const,CWndData> >,0> >::iterator::operator++
  00251	8b c8		 mov	 ecx, eax
  00253	e8 00 00 00 00	 call	 ??8const_iterator@?$_Tree@V?$_Tmap_traits@PAUHWND__@@UCWndData@@U?$less@PAUHWND__@@@std@@V?$allocator@U?$pair@QAUHWND__@@UCWndData@@@std@@@4@$0A@@std@@@std@@QBE_NABV012@@Z ; std::_Tree<std::_Tmap_traits<HWND__ *,CWndData,std::less<HWND__ *>,std::allocator<std::pair<HWND__ * const,CWndData> >,0> >::const_iterator::operator==
  00258	0f b6 c8	 movzx	 ecx, al
  0025b	85 c9		 test	 ecx, ecx
  0025d	75 2e		 jne	 SHORT $L200620
  0025f	8b 55 10	 mov	 edx, DWORD PTR __Val$[ebp]
  00262	52		 push	 edx
  00263	e8 00 00 00 00	 call	 ?_Kfn@?$_Tmap_traits@PAUHWND__@@UCWndData@@U?$less@PAUHWND__@@@std@@V?$allocator@U?$pair@QAUHWND__@@UCWndData@@@std@@@4@$0A@@std@@SAABQAUHWND__@@ABU?$pair@QAUHWND__@@UCWndData@@@2@@Z ; std::_Tmap_traits<HWND__ *,CWndData,std::less<HWND__ *>,std::allocator<std::pair<HWND__ * const,CWndData> >,0>::_Kfn
  00268	83 c4 04	 add	 esp, 4
  0026b	50		 push	 eax
  0026c	8d 4d fc	 lea	 ecx, DWORD PTR __Next$[ebp]
  0026f	e8 00 00 00 00	 call	 ?_Mynode@const_iterator@?$_Tree@V?$_Tmap_traits@PAUHWND__@@UCWndData@@U?$less@PAUHWND__@@@std@@V?$allocator@U?$pair@QAUHWND__@@UCWndData@@@std@@@4@$0A@@std@@@std@@QBEPAU_Node@?$_Tree_nod@V?$_Tmap_traits@PAUHWND__@@UCWndData@@U?$less@PAUHWND__@@@std@@V?$allocator@U?$pair@QAUHWND__@@UCWndData@@@std@@@4@$0A@@std@@@3@XZ ; std::_Tree<std::_Tmap_traits<HWND__ *,CWndData,std::less<HWND__ *>,std::allocator<std::pair<HWND__ * const,CWndData> >,0> >::const_iterator::_Mynode
  00274	50		 push	 eax
  00275	e8 00 00 00 00	 call	 ?_Key@?$_Tree@V?$_Tmap_traits@PAUHWND__@@UCWndData@@U?$less@PAUHWND__@@@std@@V?$allocator@U?$pair@QAUHWND__@@UCWndData@@@std@@@4@$0A@@std@@@std@@KAABQAUHWND__@@PAU_Node@?$_Tree_nod@V?$_Tmap_traits@PAUHWND__@@UCWndData@@U?$less@PAUHWND__@@@std@@V?$allocator@U?$pair@QAUHWND__@@UCWndData@@@std@@@4@$0A@@std@@@2@@Z ; std::_Tree<std::_Tmap_traits<HWND__ *,CWndData,std::less<HWND__ *>,std::allocator<std::pair<HWND__ * const,CWndData> >,0> >::_Key
  0027a	83 c4 04	 add	 esp, 4
  0027d	50		 push	 eax
  0027e	8b 4d d8	 mov	 ecx, DWORD PTR _this$[ebp]
  00281	e8 00 00 00 00	 call	 ??R?$less@PAUHWND__@@@std@@QBE_NABQAUHWND__@@0@Z ; std::less<HWND__ *>::operator()
  00286	0f b6 c0	 movzx	 eax, al
  00289	85 c0		 test	 eax, eax
  0028b	75 69		 jne	 SHORT $L200606
$L200620:

; 539  : 				{	// insert after _Where
; 540  : 				if (_Isnil(_Right(_Where._Mynode())))

  0028d	8d 4d 0c	 lea	 ecx, DWORD PTR __Where$[ebp]
  00290	e8 00 00 00 00	 call	 ?_Mynode@const_iterator@?$_Tree@V?$_Tmap_traits@PAUHWND__@@UCWndData@@U?$less@PAUHWND__@@@std@@V?$allocator@U?$pair@QAUHWND__@@UCWndData@@@std@@@4@$0A@@std@@@std@@QBEPAU_Node@?$_Tree_nod@V?$_Tmap_traits@PAUHWND__@@UCWndData@@U?$less@PAUHWND__@@@std@@V?$allocator@U?$pair@QAUHWND__@@UCWndData@@@std@@@4@$0A@@std@@@3@XZ ; std::_Tree<std::_Tmap_traits<HWND__ *,CWndData,std::less<HWND__ *>,std::allocator<std::pair<HWND__ * const,CWndData> >,0> >::const_iterator::_Mynode
  00295	50		 push	 eax
  00296	e8 00 00 00 00	 call	 ?_Right@?$_Tree@V?$_Tmap_traits@PAUHWND__@@UCWndData@@U?$less@PAUHWND__@@@std@@V?$allocator@U?$pair@QAUHWND__@@UCWndData@@@std@@@4@$0A@@std@@@std@@KAAAPAU_Node@?$_Tree_nod@V?$_Tmap_traits@PAUHWND__@@UCWndData@@U?$less@PAUHWND__@@@std@@V?$allocator@U?$pair@QAUHWND__@@UCWndData@@@std@@@4@$0A@@std@@@2@PAU342@@Z ; std::_Tree<std::_Tmap_traits<HWND__ *,CWndData,std::less<HWND__ *>,std::allocator<std::pair<HWND__ * const,CWndData> >,0> >::_Right
  0029b	83 c4 04	 add	 esp, 4
  0029e	8b 08		 mov	 ecx, DWORD PTR [eax]
  002a0	51		 push	 ecx
  002a1	e8 00 00 00 00	 call	 ?_Isnil@?$_Tree@V?$_Tmap_traits@PAUHWND__@@UCWndData@@U?$less@PAUHWND__@@@std@@V?$allocator@U?$pair@QAUHWND__@@UCWndData@@@std@@@4@$0A@@std@@@std@@KAAADPAU_Node@?$_Tree_nod@V?$_Tmap_traits@PAUHWND__@@UCWndData@@U?$less@PAUHWND__@@@std@@V?$allocator@U?$pair@QAUHWND__@@UCWndData@@@std@@@4@$0A@@std@@@2@@Z ; std::_Tree<std::_Tmap_traits<HWND__ *,CWndData,std::less<HWND__ *>,std::allocator<std::pair<HWND__ * const,CWndData> >,0> >::_Isnil
  002a6	83 c4 04	 add	 esp, 4
  002a9	0f be 10	 movsx	 edx, BYTE PTR [eax]
  002ac	85 d2		 test	 edx, edx
  002ae	74 23		 je	 SHORT $L200621

; 541  : 					return (_Insert(false, _Where._Mynode(), _Val));

  002b0	8b 45 10	 mov	 eax, DWORD PTR __Val$[ebp]
  002b3	50		 push	 eax
  002b4	8d 4d 0c	 lea	 ecx, DWORD PTR __Where$[ebp]
  002b7	e8 00 00 00 00	 call	 ?_Mynode@const_iterator@?$_Tree@V?$_Tmap_traits@PAUHWND__@@UCWndData@@U?$less@PAUHWND__@@@std@@V?$allocator@U?$pair@QAUHWND__@@UCWndData@@@std@@@4@$0A@@std@@@std@@QBEPAU_Node@?$_Tree_nod@V?$_Tmap_traits@PAUHWND__@@UCWndData@@U?$less@PAUHWND__@@@std@@V?$allocator@U?$pair@QAUHWND__@@UCWndData@@@std@@@4@$0A@@std@@@3@XZ ; std::_Tree<std::_Tmap_traits<HWND__ *,CWndData,std::less<HWND__ *>,std::allocator<std::pair<HWND__ * const,CWndData> >,0> >::const_iterator::_Mynode
  002bc	50		 push	 eax
  002bd	6a 00		 push	 0
  002bf	8b 4d 08	 mov	 ecx, DWORD PTR ___$ReturnUdt$[ebp]
  002c2	51		 push	 ecx
  002c3	8b 4d d8	 mov	 ecx, DWORD PTR _this$[ebp]
  002c6	e8 00 00 00 00	 call	 ?_Insert@?$_Tree@V?$_Tmap_traits@PAUHWND__@@UCWndData@@U?$less@PAUHWND__@@@std@@V?$allocator@U?$pair@QAUHWND__@@UCWndData@@@std@@@4@$0A@@std@@@std@@IAE?AViterator@12@_NPAU_Node@?$_Tree_nod@V?$_Tmap_traits@PAUHWND__@@UCWndData@@U?$less@PAUHWND__@@@std@@V?$allocator@U?$pair@QAUHWND__@@UCWndData@@@std@@@4@$0A@@std@@@2@ABU?$pair@QAUHWND__@@UCWndData@@@2@@Z ; std::_Tree<std::_Tmap_traits<HWND__ *,CWndData,std::less<HWND__ *>,std::allocator<std::pair<HWND__ * const,CWndData> >,0> >::_Insert
  002cb	8b 45 08	 mov	 eax, DWORD PTR ___$ReturnUdt$[ebp]
  002ce	e9 ec 02 00 00	 jmp	 $L200596
$L200621:

; 542  : 				else
; 543  : 					return (_Insert(true, _Next._Mynode(), _Val));

  002d3	8b 55 10	 mov	 edx, DWORD PTR __Val$[ebp]
  002d6	52		 push	 edx
  002d7	8d 4d fc	 lea	 ecx, DWORD PTR __Next$[ebp]
  002da	e8 00 00 00 00	 call	 ?_Mynode@const_iterator@?$_Tree@V?$_Tmap_traits@PAUHWND__@@UCWndData@@U?$less@PAUHWND__@@@std@@V?$allocator@U?$pair@QAUHWND__@@UCWndData@@@std@@@4@$0A@@std@@@std@@QBEPAU_Node@?$_Tree_nod@V?$_Tmap_traits@PAUHWND__@@UCWndData@@U?$less@PAUHWND__@@@std@@V?$allocator@U?$pair@QAUHWND__@@UCWndData@@@std@@@4@$0A@@std@@@3@XZ ; std::_Tree<std::_Tmap_traits<HWND__ *,CWndData,std::less<HWND__ *>,std::allocator<std::pair<HWND__ * const,CWndData> >,0> >::const_iterator::_Mynode
  002df	50		 push	 eax
  002e0	6a 01		 push	 1
  002e2	8b 45 08	 mov	 eax, DWORD PTR ___$ReturnUdt$[ebp]
  002e5	50		 push	 eax
  002e6	8b 4d d8	 mov	 ecx, DWORD PTR _this$[ebp]
  002e9	e8 00 00 00 00	 call	 ?_Insert@?$_Tree@V?$_Tmap_traits@PAUHWND__@@UCWndData@@U?$less@PAUHWND__@@@std@@V?$allocator@U?$pair@QAUHWND__@@UCWndData@@@std@@@4@$0A@@std@@@std@@IAE?AViterator@12@_NPAU_Node@?$_Tree_nod@V?$_Tmap_traits@PAUHWND__@@UCWndData@@U?$less@PAUHWND__@@@std@@V?$allocator@U?$pair@QAUHWND__@@UCWndData@@@std@@@4@$0A@@std@@@2@ABU?$pair@QAUHWND__@@UCWndData@@@2@@Z ; std::_Tree<std::_Tmap_traits<HWND__ *,CWndData,std::less<HWND__ *>,std::allocator<std::pair<HWND__ * const,CWndData> >,0> >::_Insert
  002ee	8b 45 08	 mov	 eax, DWORD PTR ___$ReturnUdt$[ebp]
  002f1	e9 c9 02 00 00	 jmp	 $L200596
$L200606:

; 544  : 				}
; 545  : 			}
; 546  : 		else

  002f6	e9 aa 02 00 00	 jmp	 $L200600
$L200601:

; 547  : 			{	// insert only if unique
; 548  : 			if (_Where == begin())

  002fb	8d 4d ec	 lea	 ecx, DWORD PTR $T202679[ebp]
  002fe	51		 push	 ecx
  002ff	8b 4d d8	 mov	 ecx, DWORD PTR _this$[ebp]
  00302	e8 00 00 00 00	 call	 ?begin@?$_Tree@V?$_Tmap_traits@PAUHWND__@@UCWndData@@U?$less@PAUHWND__@@@std@@V?$allocator@U?$pair@QAUHWND__@@UCWndData@@@std@@@4@$0A@@std@@@std@@QAE?AViterator@12@XZ ; std::_Tree<std::_Tmap_traits<HWND__ *,CWndData,std::less<HWND__ *>,std::allocator<std::pair<HWND__ * const,CWndData> >,0> >::begin
  00307	50		 push	 eax
  00308	8d 4d 0c	 lea	 ecx, DWORD PTR __Where$[ebp]
  0030b	e8 00 00 00 00	 call	 ??8const_iterator@?$_Tree@V?$_Tmap_traits@PAUHWND__@@UCWndData@@U?$less@PAUHWND__@@@std@@V?$allocator@U?$pair@QAUHWND__@@UCWndData@@@std@@@4@$0A@@std@@@std@@QBE_NABV012@@Z ; std::_Tree<std::_Tmap_traits<HWND__ *,CWndData,std::less<HWND__ *>,std::allocator<std::pair<HWND__ * const,CWndData> >,0> >::const_iterator::operator==
  00310	0f b6 d0	 movzx	 edx, al
  00313	85 d2		 test	 edx, edx
  00315	74 56		 je	 SHORT $L200627

; 549  : 				{	// insert at beginning if before first element
; 550  : 				if (this->comp(this->_Kfn(_Val), _Key(_Where._Mynode())))

  00317	8d 4d 0c	 lea	 ecx, DWORD PTR __Where$[ebp]
  0031a	e8 00 00 00 00	 call	 ?_Mynode@const_iterator@?$_Tree@V?$_Tmap_traits@PAUHWND__@@UCWndData@@U?$less@PAUHWND__@@@std@@V?$allocator@U?$pair@QAUHWND__@@UCWndData@@@std@@@4@$0A@@std@@@std@@QBEPAU_Node@?$_Tree_nod@V?$_Tmap_traits@PAUHWND__@@UCWndData@@U?$less@PAUHWND__@@@std@@V?$allocator@U?$pair@QAUHWND__@@UCWndData@@@std@@@4@$0A@@std@@@3@XZ ; std::_Tree<std::_Tmap_traits<HWND__ *,CWndData,std::less<HWND__ *>,std::allocator<std::pair<HWND__ * const,CWndData> >,0> >::const_iterator::_Mynode
  0031f	50		 push	 eax
  00320	e8 00 00 00 00	 call	 ?_Key@?$_Tree@V?$_Tmap_traits@PAUHWND__@@UCWndData@@U?$less@PAUHWND__@@@std@@V?$allocator@U?$pair@QAUHWND__@@UCWndData@@@std@@@4@$0A@@std@@@std@@KAABQAUHWND__@@PAU_Node@?$_Tree_nod@V?$_Tmap_traits@PAUHWND__@@UCWndData@@U?$less@PAUHWND__@@@std@@V?$allocator@U?$pair@QAUHWND__@@UCWndData@@@std@@@4@$0A@@std@@@2@@Z ; std::_Tree<std::_Tmap_traits<HWND__ *,CWndData,std::less<HWND__ *>,std::allocator<std::pair<HWND__ * const,CWndData> >,0> >::_Key
  00325	83 c4 04	 add	 esp, 4
  00328	50		 push	 eax
  00329	8b 45 10	 mov	 eax, DWORD PTR __Val$[ebp]
  0032c	50		 push	 eax
  0032d	e8 00 00 00 00	 call	 ?_Kfn@?$_Tmap_traits@PAUHWND__@@UCWndData@@U?$less@PAUHWND__@@@std@@V?$allocator@U?$pair@QAUHWND__@@UCWndData@@@std@@@4@$0A@@std@@SAABQAUHWND__@@ABU?$pair@QAUHWND__@@UCWndData@@@2@@Z ; std::_Tmap_traits<HWND__ *,CWndData,std::less<HWND__ *>,std::allocator<std::pair<HWND__ * const,CWndData> >,0>::_Kfn
  00332	83 c4 04	 add	 esp, 4
  00335	50		 push	 eax
  00336	8b 4d d8	 mov	 ecx, DWORD PTR _this$[ebp]
  00339	e8 00 00 00 00	 call	 ??R?$less@PAUHWND__@@@std@@QBE_NABQAUHWND__@@0@Z ; std::less<HWND__ *>::operator()
  0033e	0f b6 c8	 movzx	 ecx, al
  00341	85 c9		 test	 ecx, ecx
  00343	74 23		 je	 SHORT $L200628

; 551  : 					return (_Insert(true, _Where._Mynode(), _Val));

  00345	8b 55 10	 mov	 edx, DWORD PTR __Val$[ebp]
  00348	52		 push	 edx
  00349	8d 4d 0c	 lea	 ecx, DWORD PTR __Where$[ebp]
  0034c	e8 00 00 00 00	 call	 ?_Mynode@const_iterator@?$_Tree@V?$_Tmap_traits@PAUHWND__@@UCWndData@@U?$less@PAUHWND__@@@std@@V?$allocator@U?$pair@QAUHWND__@@UCWndData@@@std@@@4@$0A@@std@@@std@@QBEPAU_Node@?$_Tree_nod@V?$_Tmap_traits@PAUHWND__@@UCWndData@@U?$less@PAUHWND__@@@std@@V?$allocator@U?$pair@QAUHWND__@@UCWndData@@@std@@@4@$0A@@std@@@3@XZ ; std::_Tree<std::_Tmap_traits<HWND__ *,CWndData,std::less<HWND__ *>,std::allocator<std::pair<HWND__ * const,CWndData> >,0> >::const_iterator::_Mynode
  00351	50		 push	 eax
  00352	6a 01		 push	 1
  00354	8b 45 08	 mov	 eax, DWORD PTR ___$ReturnUdt$[ebp]
  00357	50		 push	 eax
  00358	8b 4d d8	 mov	 ecx, DWORD PTR _this$[ebp]
  0035b	e8 00 00 00 00	 call	 ?_Insert@?$_Tree@V?$_Tmap_traits@PAUHWND__@@UCWndData@@U?$less@PAUHWND__@@@std@@V?$allocator@U?$pair@QAUHWND__@@UCWndData@@@std@@@4@$0A@@std@@@std@@IAE?AViterator@12@_NPAU_Node@?$_Tree_nod@V?$_Tmap_traits@PAUHWND__@@UCWndData@@U?$less@PAUHWND__@@@std@@V?$allocator@U?$pair@QAUHWND__@@UCWndData@@@std@@@4@$0A@@std@@@2@ABU?$pair@QAUHWND__@@UCWndData@@@2@@Z ; std::_Tree<std::_Tmap_traits<HWND__ *,CWndData,std::less<HWND__ *>,std::allocator<std::pair<HWND__ * const,CWndData> >,0> >::_Insert
  00360	8b 45 08	 mov	 eax, DWORD PTR ___$ReturnUdt$[ebp]
  00363	e9 57 02 00 00	 jmp	 $L200596
$L200628:

; 552  : 				}
; 553  : 			else if (_Where == end())

  00368	e9 38 02 00 00	 jmp	 $L200600
$L200627:
  0036d	8d 4d e8	 lea	 ecx, DWORD PTR $T202680[ebp]
  00370	51		 push	 ecx
  00371	8b 4d d8	 mov	 ecx, DWORD PTR _this$[ebp]
  00374	e8 00 00 00 00	 call	 ?end@?$_Tree@V?$_Tmap_traits@PAUHWND__@@UCWndData@@U?$less@PAUHWND__@@@std@@V?$allocator@U?$pair@QAUHWND__@@UCWndData@@@std@@@4@$0A@@std@@@std@@QAE?AViterator@12@XZ ; std::_Tree<std::_Tmap_traits<HWND__ *,CWndData,std::less<HWND__ *>,std::allocator<std::pair<HWND__ * const,CWndData> >,0> >::end
  00379	50		 push	 eax
  0037a	8d 4d 0c	 lea	 ecx, DWORD PTR __Where$[ebp]
  0037d	e8 00 00 00 00	 call	 ??8const_iterator@?$_Tree@V?$_Tmap_traits@PAUHWND__@@UCWndData@@U?$less@PAUHWND__@@@std@@V?$allocator@U?$pair@QAUHWND__@@UCWndData@@@std@@@4@$0A@@std@@@std@@QBE_NABV012@@Z ; std::_Tree<std::_Tmap_traits<HWND__ *,CWndData,std::less<HWND__ *>,std::allocator<std::pair<HWND__ * const,CWndData> >,0> >::const_iterator::operator==
  00382	0f b6 d0	 movzx	 edx, al
  00385	85 d2		 test	 edx, edx
  00387	74 5a		 je	 SHORT $L200632

; 554  : 				{	// insert at end if after last element
; 555  : 				if (this->comp(_Key(_Rmost()), this->_Kfn(_Val)))

  00389	8b 45 10	 mov	 eax, DWORD PTR __Val$[ebp]
  0038c	50		 push	 eax
  0038d	e8 00 00 00 00	 call	 ?_Kfn@?$_Tmap_traits@PAUHWND__@@UCWndData@@U?$less@PAUHWND__@@@std@@V?$allocator@U?$pair@QAUHWND__@@UCWndData@@@std@@@4@$0A@@std@@SAABQAUHWND__@@ABU?$pair@QAUHWND__@@UCWndData@@@2@@Z ; std::_Tmap_traits<HWND__ *,CWndData,std::less<HWND__ *>,std::allocator<std::pair<HWND__ * const,CWndData> >,0>::_Kfn
  00392	83 c4 04	 add	 esp, 4
  00395	50		 push	 eax
  00396	8b 4d d8	 mov	 ecx, DWORD PTR _this$[ebp]
  00399	e8 00 00 00 00	 call	 ?_Rmost@?$_Tree@V?$_Tmap_traits@PAUHWND__@@UCWndData@@U?$less@PAUHWND__@@@std@@V?$allocator@U?$pair@QAUHWND__@@UCWndData@@@std@@@4@$0A@@std@@@std@@IAEAAPAU_Node@?$_Tree_nod@V?$_Tmap_traits@PAUHWND__@@UCWndData@@U?$less@PAUHWND__@@@std@@V?$allocator@U?$pair@QAUHWND__@@UCWndData@@@std@@@4@$0A@@std@@@2@XZ ; std::_Tree<std::_Tmap_traits<HWND__ *,CWndData,std::less<HWND__ *>,std::allocator<std::pair<HWND__ * const,CWndData> >,0> >::_Rmost
  0039e	8b 08		 mov	 ecx, DWORD PTR [eax]
  003a0	51		 push	 ecx
  003a1	e8 00 00 00 00	 call	 ?_Key@?$_Tree@V?$_Tmap_traits@PAUHWND__@@UCWndData@@U?$less@PAUHWND__@@@std@@V?$allocator@U?$pair@QAUHWND__@@UCWndData@@@std@@@4@$0A@@std@@@std@@KAABQAUHWND__@@PAU_Node@?$_Tree_nod@V?$_Tmap_traits@PAUHWND__@@UCWndData@@U?$less@PAUHWND__@@@std@@V?$allocator@U?$pair@QAUHWND__@@UCWndData@@@std@@@4@$0A@@std@@@2@@Z ; std::_Tree<std::_Tmap_traits<HWND__ *,CWndData,std::less<HWND__ *>,std::allocator<std::pair<HWND__ * const,CWndData> >,0> >::_Key
  003a6	83 c4 04	 add	 esp, 4
  003a9	50		 push	 eax
  003aa	8b 4d d8	 mov	 ecx, DWORD PTR _this$[ebp]
  003ad	e8 00 00 00 00	 call	 ??R?$less@PAUHWND__@@@std@@QBE_NABQAUHWND__@@0@Z ; std::less<HWND__ *>::operator()
  003b2	0f b6 d0	 movzx	 edx, al
  003b5	85 d2		 test	 edx, edx
  003b7	74 25		 je	 SHORT $L200633

; 556  : 					return (_Insert(false, _Rmost(), _Val));

  003b9	8b 45 10	 mov	 eax, DWORD PTR __Val$[ebp]
  003bc	50		 push	 eax
  003bd	8b 4d d8	 mov	 ecx, DWORD PTR _this$[ebp]
  003c0	e8 00 00 00 00	 call	 ?_Rmost@?$_Tree@V?$_Tmap_traits@PAUHWND__@@UCWndData@@U?$less@PAUHWND__@@@std@@V?$allocator@U?$pair@QAUHWND__@@UCWndData@@@std@@@4@$0A@@std@@@std@@IAEAAPAU_Node@?$_Tree_nod@V?$_Tmap_traits@PAUHWND__@@UCWndData@@U?$less@PAUHWND__@@@std@@V?$allocator@U?$pair@QAUHWND__@@UCWndData@@@std@@@4@$0A@@std@@@2@XZ ; std::_Tree<std::_Tmap_traits<HWND__ *,CWndData,std::less<HWND__ *>,std::allocator<std::pair<HWND__ * const,CWndData> >,0> >::_Rmost
  003c5	8b 08		 mov	 ecx, DWORD PTR [eax]
  003c7	51		 push	 ecx
  003c8	6a 00		 push	 0
  003ca	8b 55 08	 mov	 edx, DWORD PTR ___$ReturnUdt$[ebp]
  003cd	52		 push	 edx
  003ce	8b 4d d8	 mov	 ecx, DWORD PTR _this$[ebp]
  003d1	e8 00 00 00 00	 call	 ?_Insert@?$_Tree@V?$_Tmap_traits@PAUHWND__@@UCWndData@@U?$less@PAUHWND__@@@std@@V?$allocator@U?$pair@QAUHWND__@@UCWndData@@@std@@@4@$0A@@std@@@std@@IAE?AViterator@12@_NPAU_Node@?$_Tree_nod@V?$_Tmap_traits@PAUHWND__@@UCWndData@@U?$less@PAUHWND__@@@std@@V?$allocator@U?$pair@QAUHWND__@@UCWndData@@@std@@@4@$0A@@std@@@2@ABU?$pair@QAUHWND__@@UCWndData@@@2@@Z ; std::_Tree<std::_Tmap_traits<HWND__ *,CWndData,std::less<HWND__ *>,std::allocator<std::pair<HWND__ * const,CWndData> >,0> >::_Insert
  003d6	8b 45 08	 mov	 eax, DWORD PTR ___$ReturnUdt$[ebp]
  003d9	e9 e1 01 00 00	 jmp	 $L200596
$L200633:

; 557  : 				}
; 558  : 			else if (this->comp(this->_Kfn(_Val), _Key(_Where._Mynode()))

  003de	e9 c2 01 00 00	 jmp	 $L200600
$L200632:

; 559  : 				&& this->comp(_Key((--(_Next = _Where))._Mynode()),
; 560  : 					this->_Kfn(_Val)))

  003e3	8d 4d 0c	 lea	 ecx, DWORD PTR __Where$[ebp]
  003e6	e8 00 00 00 00	 call	 ?_Mynode@const_iterator@?$_Tree@V?$_Tmap_traits@PAUHWND__@@UCWndData@@U?$less@PAUHWND__@@@std@@V?$allocator@U?$pair@QAUHWND__@@UCWndData@@@std@@@4@$0A@@std@@@std@@QBEPAU_Node@?$_Tree_nod@V?$_Tmap_traits@PAUHWND__@@UCWndData@@U?$less@PAUHWND__@@@std@@V?$allocator@U?$pair@QAUHWND__@@UCWndData@@@std@@@4@$0A@@std@@@3@XZ ; std::_Tree<std::_Tmap_traits<HWND__ *,CWndData,std::less<HWND__ *>,std::allocator<std::pair<HWND__ * const,CWndData> >,0> >::const_iterator::_Mynode
  003eb	50		 push	 eax
  003ec	e8 00 00 00 00	 call	 ?_Key@?$_Tree@V?$_Tmap_traits@PAUHWND__@@UCWndData@@U?$less@PAUHWND__@@@std@@V?$allocator@U?$pair@QAUHWND__@@UCWndData@@@std@@@4@$0A@@std@@@std@@KAABQAUHWND__@@PAU_Node@?$_Tree_nod@V?$_Tmap_traits@PAUHWND__@@UCWndData@@U?$less@PAUHWND__@@@std@@V?$allocator@U?$pair@QAUHWND__@@UCWndData@@@std@@@4@$0A@@std@@@2@@Z ; std::_Tree<std::_Tmap_traits<HWND__ *,CWndData,std::less<HWND__ *>,std::allocator<std::pair<HWND__ * const,CWndData> >,0> >::_Key
  003f1	83 c4 04	 add	 esp, 4
  003f4	50		 push	 eax
  003f5	8b 45 10	 mov	 eax, DWORD PTR __Val$[ebp]
  003f8	50		 push	 eax
  003f9	e8 00 00 00 00	 call	 ?_Kfn@?$_Tmap_traits@PAUHWND__@@UCWndData@@U?$less@PAUHWND__@@@std@@V?$allocator@U?$pair@QAUHWND__@@UCWndData@@@std@@@4@$0A@@std@@SAABQAUHWND__@@ABU?$pair@QAUHWND__@@UCWndData@@@2@@Z ; std::_Tmap_traits<HWND__ *,CWndData,std::less<HWND__ *>,std::allocator<std::pair<HWND__ * const,CWndData> >,0>::_Kfn
  003fe	83 c4 04	 add	 esp, 4
  00401	50		 push	 eax
  00402	8b 4d d8	 mov	 ecx, DWORD PTR _this$[ebp]
  00405	e8 00 00 00 00	 call	 ??R?$less@PAUHWND__@@@std@@QBE_NABQAUHWND__@@0@Z ; std::less<HWND__ *>::operator()
  0040a	0f b6 c8	 movzx	 ecx, al
  0040d	85 c9		 test	 ecx, ecx
  0040f	0f 84 a4 00 00
	00		 je	 $L200636
  00415	8b 55 0c	 mov	 edx, DWORD PTR __Where$[ebp]
  00418	89 55 fc	 mov	 DWORD PTR __Next$[ebp], edx
  0041b	8b 45 10	 mov	 eax, DWORD PTR __Val$[ebp]
  0041e	50		 push	 eax
  0041f	e8 00 00 00 00	 call	 ?_Kfn@?$_Tmap_traits@PAUHWND__@@UCWndData@@U?$less@PAUHWND__@@@std@@V?$allocator@U?$pair@QAUHWND__@@UCWndData@@@std@@@4@$0A@@std@@SAABQAUHWND__@@ABU?$pair@QAUHWND__@@UCWndData@@@2@@Z ; std::_Tmap_traits<HWND__ *,CWndData,std::less<HWND__ *>,std::allocator<std::pair<HWND__ * const,CWndData> >,0>::_Kfn
  00424	83 c4 04	 add	 esp, 4
  00427	50		 push	 eax
  00428	8d 4d fc	 lea	 ecx, DWORD PTR __Next$[ebp]
  0042b	e8 00 00 00 00	 call	 ??Fiterator@?$_Tree@V?$_Tmap_traits@PAUHWND__@@UCWndData@@U?$less@PAUHWND__@@@std@@V?$allocator@U?$pair@QAUHWND__@@UCWndData@@@std@@@4@$0A@@std@@@std@@QAEAAV012@XZ ; std::_Tree<std::_Tmap_traits<HWND__ *,CWndData,std::less<HWND__ *>,std::allocator<std::pair<HWND__ * const,CWndData> >,0> >::iterator::operator--
  00430	8b c8		 mov	 ecx, eax
  00432	e8 00 00 00 00	 call	 ?_Mynode@const_iterator@?$_Tree@V?$_Tmap_traits@PAUHWND__@@UCWndData@@U?$less@PAUHWND__@@@std@@V?$allocator@U?$pair@QAUHWND__@@UCWndData@@@std@@@4@$0A@@std@@@std@@QBEPAU_Node@?$_Tree_nod@V?$_Tmap_traits@PAUHWND__@@UCWndData@@U?$less@PAUHWND__@@@std@@V?$allocator@U?$pair@QAUHWND__@@UCWndData@@@std@@@4@$0A@@std@@@3@XZ ; std::_Tree<std::_Tmap_traits<HWND__ *,CWndData,std::less<HWND__ *>,std::allocator<std::pair<HWND__ * const,CWndData> >,0> >::const_iterator::_Mynode
  00437	50		 push	 eax
  00438	e8 00 00 00 00	 call	 ?_Key@?$_Tree@V?$_Tmap_traits@PAUHWND__@@UCWndData@@U?$less@PAUHWND__@@@std@@V?$allocator@U?$pair@QAUHWND__@@UCWndData@@@std@@@4@$0A@@std@@@std@@KAABQAUHWND__@@PAU_Node@?$_Tree_nod@V?$_Tmap_traits@PAUHWND__@@UCWndData@@U?$less@PAUHWND__@@@std@@V?$allocator@U?$pair@QAUHWND__@@UCWndData@@@std@@@4@$0A@@std@@@2@@Z ; std::_Tree<std::_Tmap_traits<HWND__ *,CWndData,std::less<HWND__ *>,std::allocator<std::pair<HWND__ * const,CWndData> >,0> >::_Key
  0043d	83 c4 04	 add	 esp, 4
  00440	50		 push	 eax
  00441	8b 4d d8	 mov	 ecx, DWORD PTR _this$[ebp]
  00444	e8 00 00 00 00	 call	 ??R?$less@PAUHWND__@@@std@@QBE_NABQAUHWND__@@0@Z ; std::less<HWND__ *>::operator()
  00449	0f b6 c8	 movzx	 ecx, al
  0044c	85 c9		 test	 ecx, ecx
  0044e	74 69		 je	 SHORT $L200636

; 561  : 				{	// insert before _Where
; 562  : 				if (_Isnil(_Right(_Next._Mynode())))

  00450	8d 4d fc	 lea	 ecx, DWORD PTR __Next$[ebp]
  00453	e8 00 00 00 00	 call	 ?_Mynode@const_iterator@?$_Tree@V?$_Tmap_traits@PAUHWND__@@UCWndData@@U?$less@PAUHWND__@@@std@@V?$allocator@U?$pair@QAUHWND__@@UCWndData@@@std@@@4@$0A@@std@@@std@@QBEPAU_Node@?$_Tree_nod@V?$_Tmap_traits@PAUHWND__@@UCWndData@@U?$less@PAUHWND__@@@std@@V?$allocator@U?$pair@QAUHWND__@@UCWndData@@@std@@@4@$0A@@std@@@3@XZ ; std::_Tree<std::_Tmap_traits<HWND__ *,CWndData,std::less<HWND__ *>,std::allocator<std::pair<HWND__ * const,CWndData> >,0> >::const_iterator::_Mynode
  00458	50		 push	 eax
  00459	e8 00 00 00 00	 call	 ?_Right@?$_Tree@V?$_Tmap_traits@PAUHWND__@@UCWndData@@U?$less@PAUHWND__@@@std@@V?$allocator@U?$pair@QAUHWND__@@UCWndData@@@std@@@4@$0A@@std@@@std@@KAAAPAU_Node@?$_Tree_nod@V?$_Tmap_traits@PAUHWND__@@UCWndData@@U?$less@PAUHWND__@@@std@@V?$allocator@U?$pair@QAUHWND__@@UCWndData@@@std@@@4@$0A@@std@@@2@PAU342@@Z ; std::_Tree<std::_Tmap_traits<HWND__ *,CWndData,std::less<HWND__ *>,std::allocator<std::pair<HWND__ * const,CWndData> >,0> >::_Right
  0045e	83 c4 04	 add	 esp, 4
  00461	8b 10		 mov	 edx, DWORD PTR [eax]
  00463	52		 push	 edx
  00464	e8 00 00 00 00	 call	 ?_Isnil@?$_Tree@V?$_Tmap_traits@PAUHWND__@@UCWndData@@U?$less@PAUHWND__@@@std@@V?$allocator@U?$pair@QAUHWND__@@UCWndData@@@std@@@4@$0A@@std@@@std@@KAAADPAU_Node@?$_Tree_nod@V?$_Tmap_traits@PAUHWND__@@UCWndData@@U?$less@PAUHWND__@@@std@@V?$allocator@U?$pair@QAUHWND__@@UCWndData@@@std@@@4@$0A@@std@@@2@@Z ; std::_Tree<std::_Tmap_traits<HWND__ *,CWndData,std::less<HWND__ *>,std::allocator<std::pair<HWND__ * const,CWndData> >,0> >::_Isnil
  00469	83 c4 04	 add	 esp, 4
  0046c	0f be 00	 movsx	 eax, BYTE PTR [eax]
  0046f	85 c0		 test	 eax, eax
  00471	74 23		 je	 SHORT $L200637

; 563  : 					return (_Insert(false, _Next._Mynode(), _Val));

  00473	8b 4d 10	 mov	 ecx, DWORD PTR __Val$[ebp]
  00476	51		 push	 ecx
  00477	8d 4d fc	 lea	 ecx, DWORD PTR __Next$[ebp]
  0047a	e8 00 00 00 00	 call	 ?_Mynode@const_iterator@?$_Tree@V?$_Tmap_traits@PAUHWND__@@UCWndData@@U?$less@PAUHWND__@@@std@@V?$allocator@U?$pair@QAUHWND__@@UCWndData@@@std@@@4@$0A@@std@@@std@@QBEPAU_Node@?$_Tree_nod@V?$_Tmap_traits@PAUHWND__@@UCWndData@@U?$less@PAUHWND__@@@std@@V?$allocator@U?$pair@QAUHWND__@@UCWndData@@@std@@@4@$0A@@std@@@3@XZ ; std::_Tree<std::_Tmap_traits<HWND__ *,CWndData,std::less<HWND__ *>,std::allocator<std::pair<HWND__ * const,CWndData> >,0> >::const_iterator::_Mynode
  0047f	50		 push	 eax
  00480	6a 00		 push	 0
  00482	8b 55 08	 mov	 edx, DWORD PTR ___$ReturnUdt$[ebp]
  00485	52		 push	 edx
  00486	8b 4d d8	 mov	 ecx, DWORD PTR _this$[ebp]
  00489	e8 00 00 00 00	 call	 ?_Insert@?$_Tree@V?$_Tmap_traits@PAUHWND__@@UCWndData@@U?$less@PAUHWND__@@@std@@V?$allocator@U?$pair@QAUHWND__@@UCWndData@@@std@@@4@$0A@@std@@@std@@IAE?AViterator@12@_NPAU_Node@?$_Tree_nod@V?$_Tmap_traits@PAUHWND__@@UCWndData@@U?$less@PAUHWND__@@@std@@V?$allocator@U?$pair@QAUHWND__@@UCWndData@@@std@@@4@$0A@@std@@@2@ABU?$pair@QAUHWND__@@UCWndData@@@2@@Z ; std::_Tree<std::_Tmap_traits<HWND__ *,CWndData,std::less<HWND__ *>,std::allocator<std::pair<HWND__ * const,CWndData> >,0> >::_Insert
  0048e	8b 45 08	 mov	 eax, DWORD PTR ___$ReturnUdt$[ebp]
  00491	e9 29 01 00 00	 jmp	 $L200596
$L200637:

; 564  : 				else
; 565  : 					return (_Insert(true, _Where._Mynode(), _Val));

  00496	8b 45 10	 mov	 eax, DWORD PTR __Val$[ebp]
  00499	50		 push	 eax
  0049a	8d 4d 0c	 lea	 ecx, DWORD PTR __Where$[ebp]
  0049d	e8 00 00 00 00	 call	 ?_Mynode@const_iterator@?$_Tree@V?$_Tmap_traits@PAUHWND__@@UCWndData@@U?$less@PAUHWND__@@@std@@V?$allocator@U?$pair@QAUHWND__@@UCWndData@@@std@@@4@$0A@@std@@@std@@QBEPAU_Node@?$_Tree_nod@V?$_Tmap_traits@PAUHWND__@@UCWndData@@U?$less@PAUHWND__@@@std@@V?$allocator@U?$pair@QAUHWND__@@UCWndData@@@std@@@4@$0A@@std@@@3@XZ ; std::_Tree<std::_Tmap_traits<HWND__ *,CWndData,std::less<HWND__ *>,std::allocator<std::pair<HWND__ * const,CWndData> >,0> >::const_iterator::_Mynode
  004a2	50		 push	 eax
  004a3	6a 01		 push	 1
  004a5	8b 4d 08	 mov	 ecx, DWORD PTR ___$ReturnUdt$[ebp]
  004a8	51		 push	 ecx
  004a9	8b 4d d8	 mov	 ecx, DWORD PTR _this$[ebp]
  004ac	e8 00 00 00 00	 call	 ?_Insert@?$_Tree@V?$_Tmap_traits@PAUHWND__@@UCWndData@@U?$less@PAUHWND__@@@std@@V?$allocator@U?$pair@QAUHWND__@@UCWndData@@@std@@@4@$0A@@std@@@std@@IAE?AViterator@12@_NPAU_Node@?$_Tree_nod@V?$_Tmap_traits@PAUHWND__@@UCWndData@@U?$less@PAUHWND__@@@std@@V?$allocator@U?$pair@QAUHWND__@@UCWndData@@@std@@@4@$0A@@std@@@2@ABU?$pair@QAUHWND__@@UCWndData@@@2@@Z ; std::_Tree<std::_Tmap_traits<HWND__ *,CWndData,std::less<HWND__ *>,std::allocator<std::pair<HWND__ * const,CWndData> >,0> >::_Insert
  004b1	8b 45 08	 mov	 eax, DWORD PTR ___$ReturnUdt$[ebp]
  004b4	e9 06 01 00 00	 jmp	 $L200596
$L200636:

; 566  : 				}
; 567  : 			else if (this->comp(_Key(_Where._Mynode()), this->_Kfn(_Val))
; 568  : 				&& (++(_Next = _Where) == end()
; 569  : 					|| this->comp(this->_Kfn(_Val),
; 570  : 						_Key(_Next._Mynode()))))

  004b9	8b 55 10	 mov	 edx, DWORD PTR __Val$[ebp]
  004bc	52		 push	 edx
  004bd	e8 00 00 00 00	 call	 ?_Kfn@?$_Tmap_traits@PAUHWND__@@UCWndData@@U?$less@PAUHWND__@@@std@@V?$allocator@U?$pair@QAUHWND__@@UCWndData@@@std@@@4@$0A@@std@@SAABQAUHWND__@@ABU?$pair@QAUHWND__@@UCWndData@@@2@@Z ; std::_Tmap_traits<HWND__ *,CWndData,std::less<HWND__ *>,std::allocator<std::pair<HWND__ * const,CWndData> >,0>::_Kfn
  004c2	83 c4 04	 add	 esp, 4
  004c5	50		 push	 eax
  004c6	8d 4d 0c	 lea	 ecx, DWORD PTR __Where$[ebp]
  004c9	e8 00 00 00 00	 call	 ?_Mynode@const_iterator@?$_Tree@V?$_Tmap_traits@PAUHWND__@@UCWndData@@U?$less@PAUHWND__@@@std@@V?$allocator@U?$pair@QAUHWND__@@UCWndData@@@std@@@4@$0A@@std@@@std@@QBEPAU_Node@?$_Tree_nod@V?$_Tmap_traits@PAUHWND__@@UCWndData@@U?$less@PAUHWND__@@@std@@V?$allocator@U?$pair@QAUHWND__@@UCWndData@@@std@@@4@$0A@@std@@@3@XZ ; std::_Tree<std::_Tmap_traits<HWND__ *,CWndData,std::less<HWND__ *>,std::allocator<std::pair<HWND__ * const,CWndData> >,0> >::const_iterator::_Mynode
  004ce	50		 push	 eax
  004cf	e8 00 00 00 00	 call	 ?_Key@?$_Tree@V?$_Tmap_traits@PAUHWND__@@UCWndData@@U?$less@PAUHWND__@@@std@@V?$allocator@U?$pair@QAUHWND__@@UCWndData@@@std@@@4@$0A@@std@@@std@@KAABQAUHWND__@@PAU_Node@?$_Tree_nod@V?$_Tmap_traits@PAUHWND__@@UCWndData@@U?$less@PAUHWND__@@@std@@V?$allocator@U?$pair@QAUHWND__@@UCWndData@@@std@@@4@$0A@@std@@@2@@Z ; std::_Tree<std::_Tmap_traits<HWND__ *,CWndData,std::less<HWND__ *>,std::allocator<std::pair<HWND__ * const,CWndData> >,0> >::_Key
  004d4	83 c4 04	 add	 esp, 4
  004d7	50		 push	 eax
  004d8	8b 4d d8	 mov	 ecx, DWORD PTR _this$[ebp]
  004db	e8 00 00 00 00	 call	 ??R?$less@PAUHWND__@@@std@@QBE_NABQAUHWND__@@0@Z ; std::less<HWND__ *>::operator()
  004e0	0f b6 c0	 movzx	 eax, al
  004e3	85 c0		 test	 eax, eax
  004e5	0f 84 ba 00 00
	00		 je	 $L200600
  004eb	8b 4d 0c	 mov	 ecx, DWORD PTR __Where$[ebp]
  004ee	89 4d fc	 mov	 DWORD PTR __Next$[ebp], ecx
  004f1	8d 55 e4	 lea	 edx, DWORD PTR $T202681[ebp]
  004f4	52		 push	 edx
  004f5	8b 4d d8	 mov	 ecx, DWORD PTR _this$[ebp]
  004f8	e8 00 00 00 00	 call	 ?end@?$_Tree@V?$_Tmap_traits@PAUHWND__@@UCWndData@@U?$less@PAUHWND__@@@std@@V?$allocator@U?$pair@QAUHWND__@@UCWndData@@@std@@@4@$0A@@std@@@std@@QAE?AViterator@12@XZ ; std::_Tree<std::_Tmap_traits<HWND__ *,CWndData,std::less<HWND__ *>,std::allocator<std::pair<HWND__ * const,CWndData> >,0> >::end
  004fd	50		 push	 eax
  004fe	8d 4d fc	 lea	 ecx, DWORD PTR __Next$[ebp]
  00501	e8 00 00 00 00	 call	 ??Eiterator@?$_Tree@V?$_Tmap_traits@PAUHWND__@@UCWndData@@U?$less@PAUHWND__@@@std@@V?$allocator@U?$pair@QAUHWND__@@UCWndData@@@std@@@4@$0A@@std@@@std@@QAEAAV012@XZ ; std::_Tree<std::_Tmap_traits<HWND__ *,CWndData,std::less<HWND__ *>,std::allocator<std::pair<HWND__ * const,CWndData> >,0> >::iterator::operator++
  00506	8b c8		 mov	 ecx, eax
  00508	e8 00 00 00 00	 call	 ??8const_iterator@?$_Tree@V?$_Tmap_traits@PAUHWND__@@UCWndData@@U?$less@PAUHWND__@@@std@@V?$allocator@U?$pair@QAUHWND__@@UCWndData@@@std@@@4@$0A@@std@@@std@@QBE_NABV012@@Z ; std::_Tree<std::_Tmap_traits<HWND__ *,CWndData,std::less<HWND__ *>,std::allocator<std::pair<HWND__ * const,CWndData> >,0> >::const_iterator::operator==
  0050d	0f b6 c0	 movzx	 eax, al
  00510	85 c0		 test	 eax, eax
  00512	75 2e		 jne	 SHORT $L200644
  00514	8d 4d fc	 lea	 ecx, DWORD PTR __Next$[ebp]
  00517	e8 00 00 00 00	 call	 ?_Mynode@const_iterator@?$_Tree@V?$_Tmap_traits@PAUHWND__@@UCWndData@@U?$less@PAUHWND__@@@std@@V?$allocator@U?$pair@QAUHWND__@@UCWndData@@@std@@@4@$0A@@std@@@std@@QBEPAU_Node@?$_Tree_nod@V?$_Tmap_traits@PAUHWND__@@UCWndData@@U?$less@PAUHWND__@@@std@@V?$allocator@U?$pair@QAUHWND__@@UCWndData@@@std@@@4@$0A@@std@@@3@XZ ; std::_Tree<std::_Tmap_traits<HWND__ *,CWndData,std::less<HWND__ *>,std::allocator<std::pair<HWND__ * const,CWndData> >,0> >::const_iterator::_Mynode
  0051c	50		 push	 eax
  0051d	e8 00 00 00 00	 call	 ?_Key@?$_Tree@V?$_Tmap_traits@PAUHWND__@@UCWndData@@U?$less@PAUHWND__@@@std@@V?$allocator@U?$pair@QAUHWND__@@UCWndData@@@std@@@4@$0A@@std@@@std@@KAABQAUHWND__@@PAU_Node@?$_Tree_nod@V?$_Tmap_traits@PAUHWND__@@UCWndData@@U?$less@PAUHWND__@@@std@@V?$allocator@U?$pair@QAUHWND__@@UCWndData@@@std@@@4@$0A@@std@@@2@@Z ; std::_Tree<std::_Tmap_traits<HWND__ *,CWndData,std::less<HWND__ *>,std::allocator<std::pair<HWND__ * const,CWndData> >,0> >::_Key
  00522	83 c4 04	 add	 esp, 4
  00525	50		 push	 eax
  00526	8b 4d 10	 mov	 ecx, DWORD PTR __Val$[ebp]
  00529	51		 push	 ecx
  0052a	e8 00 00 00 00	 call	 ?_Kfn@?$_Tmap_traits@PAUHWND__@@UCWndData@@U?$less@PAUHWND__@@@std@@V?$allocator@U?$pair@QAUHWND__@@UCWndData@@@std@@@4@$0A@@std@@SAABQAUHWND__@@ABU?$pair@QAUHWND__@@UCWndData@@@2@@Z ; std::_Tmap_traits<HWND__ *,CWndData,std::less<HWND__ *>,std::allocator<std::pair<HWND__ * const,CWndData> >,0>::_Kfn
  0052f	83 c4 04	 add	 esp, 4
  00532	50		 push	 eax
  00533	8b 4d d8	 mov	 ecx, DWORD PTR _this$[ebp]
  00536	e8 00 00 00 00	 call	 ??R?$less@PAUHWND__@@@std@@QBE_NABQAUHWND__@@0@Z ; std::less<HWND__ *>::operator()
  0053b	0f b6 d0	 movzx	 edx, al
  0053e	85 d2		 test	 edx, edx
  00540	74 63		 je	 SHORT $L200600
$L200644:

; 571  : 				{	// insert after _Where
; 572  : 				if (_Isnil(_Right(_Where._Mynode())))

  00542	8d 4d 0c	 lea	 ecx, DWORD PTR __Where$[ebp]
  00545	e8 00 00 00 00	 call	 ?_Mynode@const_iterator@?$_Tree@V?$_Tmap_traits@PAUHWND__@@UCWndData@@U?$less@PAUHWND__@@@std@@V?$allocator@U?$pair@QAUHWND__@@UCWndData@@@std@@@4@$0A@@std@@@std@@QBEPAU_Node@?$_Tree_nod@V?$_Tmap_traits@PAUHWND__@@UCWndData@@U?$less@PAUHWND__@@@std@@V?$allocator@U?$pair@QAUHWND__@@UCWndData@@@std@@@4@$0A@@std@@@3@XZ ; std::_Tree<std::_Tmap_traits<HWND__ *,CWndData,std::less<HWND__ *>,std::allocator<std::pair<HWND__ * const,CWndData> >,0> >::const_iterator::_Mynode
  0054a	50		 push	 eax
  0054b	e8 00 00 00 00	 call	 ?_Right@?$_Tree@V?$_Tmap_traits@PAUHWND__@@UCWndData@@U?$less@PAUHWND__@@@std@@V?$allocator@U?$pair@QAUHWND__@@UCWndData@@@std@@@4@$0A@@std@@@std@@KAAAPAU_Node@?$_Tree_nod@V?$_Tmap_traits@PAUHWND__@@UCWndData@@U?$less@PAUHWND__@@@std@@V?$allocator@U?$pair@QAUHWND__@@UCWndData@@@std@@@4@$0A@@std@@@2@PAU342@@Z ; std::_Tree<std::_Tmap_traits<HWND__ *,CWndData,std::less<HWND__ *>,std::allocator<std::pair<HWND__ * const,CWndData> >,0> >::_Right
  00550	83 c4 04	 add	 esp, 4
  00553	8b 00		 mov	 eax, DWORD PTR [eax]
  00555	50		 push	 eax
  00556	e8 00 00 00 00	 call	 ?_Isnil@?$_Tree@V?$_Tmap_traits@PAUHWND__@@UCWndData@@U?$less@PAUHWND__@@@std@@V?$allocator@U?$pair@QAUHWND__@@UCWndData@@@std@@@4@$0A@@std@@@std@@KAAADPAU_Node@?$_Tree_nod@V?$_Tmap_traits@PAUHWND__@@UCWndData@@U?$less@PAUHWND__@@@std@@V?$allocator@U?$pair@QAUHWND__@@UCWndData@@@std@@@4@$0A@@std@@@2@@Z ; std::_Tree<std::_Tmap_traits<HWND__ *,CWndData,std::less<HWND__ *>,std::allocator<std::pair<HWND__ * const,CWndData> >,0> >::_Isnil
  0055b	83 c4 04	 add	 esp, 4
  0055e	0f be 08	 movsx	 ecx, BYTE PTR [eax]
  00561	85 c9		 test	 ecx, ecx
  00563	74 20		 je	 SHORT $L200645

; 573  : 					return (_Insert(false, _Where._Mynode(), _Val));

  00565	8b 55 10	 mov	 edx, DWORD PTR __Val$[ebp]
  00568	52		 push	 edx
  00569	8d 4d 0c	 lea	 ecx, DWORD PTR __Where$[ebp]
  0056c	e8 00 00 00 00	 call	 ?_Mynode@const_iterator@?$_Tree@V?$_Tmap_traits@PAUHWND__@@UCWndData@@U?$less@PAUHWND__@@@std@@V?$allocator@U?$pair@QAUHWND__@@UCWndData@@@std@@@4@$0A@@std@@@std@@QBEPAU_Node@?$_Tree_nod@V?$_Tmap_traits@PAUHWND__@@UCWndData@@U?$less@PAUHWND__@@@std@@V?$allocator@U?$pair@QAUHWND__@@UCWndData@@@std@@@4@$0A@@std@@@3@XZ ; std::_Tree<std::_Tmap_traits<HWND__ *,CWndData,std::less<HWND__ *>,std::allocator<std::pair<HWND__ * const,CWndData> >,0> >::const_iterator::_Mynode
  00571	50		 push	 eax
  00572	6a 00		 push	 0
  00574	8b 45 08	 mov	 eax, DWORD PTR ___$ReturnUdt$[ebp]
  00577	50		 push	 eax
  00578	8b 4d d8	 mov	 ecx, DWORD PTR _this$[ebp]
  0057b	e8 00 00 00 00	 call	 ?_Insert@?$_Tree@V?$_Tmap_traits@PAUHWND__@@UCWndData@@U?$less@PAUHWND__@@@std@@V?$allocator@U?$pair@QAUHWND__@@UCWndData@@@std@@@4@$0A@@std@@@std@@IAE?AViterator@12@_NPAU_Node@?$_Tree_nod@V?$_Tmap_traits@PAUHWND__@@UCWndData@@U?$less@PAUHWND__@@@std@@V?$allocator@U?$pair@QAUHWND__@@UCWndData@@@std@@@4@$0A@@std@@@2@ABU?$pair@QAUHWND__@@UCWndData@@@2@@Z ; std::_Tree<std::_Tmap_traits<HWND__ *,CWndData,std::less<HWND__ *>,std::allocator<std::pair<HWND__ * const,CWndData> >,0> >::_Insert
  00580	8b 45 08	 mov	 eax, DWORD PTR ___$ReturnUdt$[ebp]
  00583	eb 3a		 jmp	 SHORT $L200596
$L200645:

; 574  : 				else
; 575  : 					return (_Insert(true, _Next._Mynode(), _Val));

  00585	8b 4d 10	 mov	 ecx, DWORD PTR __Val$[ebp]
  00588	51		 push	 ecx
  00589	8d 4d fc	 lea	 ecx, DWORD PTR __Next$[ebp]
  0058c	e8 00 00 00 00	 call	 ?_Mynode@const_iterator@?$_Tree@V?$_Tmap_traits@PAUHWND__@@UCWndData@@U?$less@PAUHWND__@@@std@@V?$allocator@U?$pair@QAUHWND__@@UCWndData@@@std@@@4@$0A@@std@@@std@@QBEPAU_Node@?$_Tree_nod@V?$_Tmap_traits@PAUHWND__@@UCWndData@@U?$less@PAUHWND__@@@std@@V?$allocator@U?$pair@QAUHWND__@@UCWndData@@@std@@@4@$0A@@std@@@3@XZ ; std::_Tree<std::_Tmap_traits<HWND__ *,CWndData,std::less<HWND__ *>,std::allocator<std::pair<HWND__ * const,CWndData> >,0> >::const_iterator::_Mynode
  00591	50		 push	 eax
  00592	6a 01		 push	 1
  00594	8b 55 08	 mov	 edx, DWORD PTR ___$ReturnUdt$[ebp]
  00597	52		 push	 edx
  00598	8b 4d d8	 mov	 ecx, DWORD PTR _this$[ebp]
  0059b	e8 00 00 00 00	 call	 ?_Insert@?$_Tree@V?$_Tmap_traits@PAUHWND__@@UCWndData@@U?$less@PAUHWND__@@@std@@V?$allocator@U?$pair@QAUHWND__@@UCWndData@@@std@@@4@$0A@@std@@@std@@IAE?AViterator@12@_NPAU_Node@?$_Tree_nod@V?$_Tmap_traits@PAUHWND__@@UCWndData@@U?$less@PAUHWND__@@@std@@V?$allocator@U?$pair@QAUHWND__@@UCWndData@@@std@@@4@$0A@@std@@@2@ABU?$pair@QAUHWND__@@UCWndData@@@2@@Z ; std::_Tree<std::_Tmap_traits<HWND__ *,CWndData,std::less<HWND__ *>,std::allocator<std::pair<HWND__ * const,CWndData> >,0> >::_Insert
  005a0	8b 45 08	 mov	 eax, DWORD PTR ___$ReturnUdt$[ebp]
  005a3	eb 1a		 jmp	 SHORT $L200596
$L200600:

; 576  : 				}
; 577  : 			}
; 578  : 
; 579  : 		return (insert(_Val).first);	// try usual insert if all else fails

  005a5	8b 45 10	 mov	 eax, DWORD PTR __Val$[ebp]
  005a8	50		 push	 eax
  005a9	8d 4d dc	 lea	 ecx, DWORD PTR $T202682[ebp]
  005ac	51		 push	 ecx
  005ad	8b 4d d8	 mov	 ecx, DWORD PTR _this$[ebp]
  005b0	e8 00 00 00 00	 call	 ?insert@?$_Tree@V?$_Tmap_traits@PAUHWND__@@UCWndData@@U?$less@PAUHWND__@@@std@@V?$allocator@U?$pair@QAUHWND__@@UCWndData@@@std@@@4@$0A@@std@@@std@@QAE?AU?$pair@Viterator@?$_Tree@V?$_Tmap_traits@PAUHWND__@@UCWndData@@U?$less@PAUHWND__@@@std@@V?$allocator@U?$pair@QAUHWND__@@UCWndData@@@std@@@4@$0A@@std@@@std@@_N@2@ABU?$pair@QAUHWND__@@UCWndData@@@2@@Z ; std::_Tree<std::_Tmap_traits<HWND__ *,CWndData,std::less<HWND__ *>,std::allocator<std::pair<HWND__ * const,CWndData> >,0> >::insert
  005b5	8b 10		 mov	 edx, DWORD PTR [eax]
  005b7	8b 45 08	 mov	 eax, DWORD PTR ___$ReturnUdt$[ebp]
  005ba	89 10		 mov	 DWORD PTR [eax], edx
  005bc	8b 45 08	 mov	 eax, DWORD PTR ___$ReturnUdt$[ebp]
$L200596:

; 580  : 		}

  005bf	8b e5		 mov	 esp, ebp
  005c1	5d		 pop	 ebp
  005c2	c2 0c 00	 ret	 12			; 0000000cH
?insert@?$_Tree@V?$_Tmap_traits@PAUHWND__@@UCWndData@@U?$less@PAUHWND__@@@std@@V?$allocator@U?$pair@QAUHWND__@@UCWndData@@@std@@@4@$0A@@std@@@std@@QAE?AViterator@12@V312@ABU?$pair@QAUHWND__@@UCWndData@@@2@@Z ENDP ; std::_Tree<std::_Tmap_traits<HWND__ *,CWndData,std::less<HWND__ *>,std::allocator<std::pair<HWND__ * const,CWndData> >,0> >::insert
_TEXT	ENDS
PUBLIC	?_Lbound@?$_Tree@V?$_Tmap_traits@PAUHWND__@@UCWndData@@U?$less@PAUHWND__@@@std@@V?$allocator@U?$pair@QAUHWND__@@UCWndData@@@std@@@4@$0A@@std@@@std@@IBEPAU_Node@?$_Tree_nod@V?$_Tmap_traits@PAUHWND__@@UCWndData@@U?$less@PAUHWND__@@@std@@V?$allocator@U?$pair@QAUHWND__@@UCWndData@@@std@@@4@$0A@@std@@@2@ABQAUHWND__@@@Z ; std::_Tree<std::_Tmap_traits<HWND__ *,CWndData,std::less<HWND__ *>,std::allocator<std::pair<HWND__ * const,CWndData> >,0> >::_Lbound
; Function compile flags: /Odt
;	COMDAT ?lower_bound@?$_Tree@V?$_Tmap_traits@PAUHWND__@@UCWndData@@U?$less@PAUHWND__@@@std@@V?$allocator@U?$pair@QAUHWND__@@UCWndData@@@std@@@4@$0A@@std@@@std@@QAE?AViterator@12@ABQAUHWND__@@@Z
_TEXT	SEGMENT
_this$ = -4						; size = 4
___$ReturnUdt$ = 8					; size = 4
__Keyval$ = 12						; size = 4
?lower_bound@?$_Tree@V?$_Tmap_traits@PAUHWND__@@UCWndData@@U?$less@PAUHWND__@@@std@@V?$allocator@U?$pair@QAUHWND__@@UCWndData@@@std@@@4@$0A@@std@@@std@@QAE?AViterator@12@ABQAUHWND__@@@Z PROC NEAR ; std::_Tree<std::_Tmap_traits<HWND__ *,CWndData,std::less<HWND__ *>,std::allocator<std::pair<HWND__ * const,CWndData> >,0> >::lower_bound, COMDAT
; _this$ = ecx

; 809  : 		{	// find leftmost node not less than _Keyval in mutable tree

  00000	55		 push	 ebp
  00001	8b ec		 mov	 ebp, esp
  00003	51		 push	 ecx
  00004	89 4d fc	 mov	 DWORD PTR _this$[ebp], ecx

; 810  : 		return (_TREE_ITERATOR(_Lbound(_Keyval)));

  00007	8b 45 0c	 mov	 eax, DWORD PTR __Keyval$[ebp]
  0000a	50		 push	 eax
  0000b	8b 4d fc	 mov	 ecx, DWORD PTR _this$[ebp]
  0000e	e8 00 00 00 00	 call	 ?_Lbound@?$_Tree@V?$_Tmap_traits@PAUHWND__@@UCWndData@@U?$less@PAUHWND__@@@std@@V?$allocator@U?$pair@QAUHWND__@@UCWndData@@@std@@@4@$0A@@std@@@std@@IBEPAU_Node@?$_Tree_nod@V?$_Tmap_traits@PAUHWND__@@UCWndData@@U?$less@PAUHWND__@@@std@@V?$allocator@U?$pair@QAUHWND__@@UCWndData@@@std@@@4@$0A@@std@@@2@ABQAUHWND__@@@Z ; std::_Tree<std::_Tmap_traits<HWND__ *,CWndData,std::less<HWND__ *>,std::allocator<std::pair<HWND__ * const,CWndData> >,0> >::_Lbound
  00013	50		 push	 eax
  00014	8b 4d 08	 mov	 ecx, DWORD PTR ___$ReturnUdt$[ebp]
  00017	e8 00 00 00 00	 call	 ??0iterator@?$_Tree@V?$_Tmap_traits@PAUHWND__@@UCWndData@@U?$less@PAUHWND__@@@std@@V?$allocator@U?$pair@QAUHWND__@@UCWndData@@@std@@@4@$0A@@std@@@std@@QAE@PAU_Node@?$_Tree_nod@V?$_Tmap_traits@PAUHWND__@@UCWndData@@U?$less@PAUHWND__@@@std@@V?$allocator@U?$pair@QAUHWND__@@UCWndData@@@std@@@4@$0A@@std@@@2@@Z ; std::_Tree<std::_Tmap_traits<HWND__ *,CWndData,std::less<HWND__ *>,std::allocator<std::pair<HWND__ * const,CWndData> >,0> >::iterator::iterator
  0001c	8b 45 08	 mov	 eax, DWORD PTR ___$ReturnUdt$[ebp]

; 811  : 		}

  0001f	8b e5		 mov	 esp, ebp
  00021	5d		 pop	 ebp
  00022	c2 08 00	 ret	 8
?lower_bound@?$_Tree@V?$_Tmap_traits@PAUHWND__@@UCWndData@@U?$less@PAUHWND__@@@std@@V?$allocator@U?$pair@QAUHWND__@@UCWndData@@@std@@@4@$0A@@std@@@std@@QAE?AViterator@12@ABQAUHWND__@@@Z ENDP ; std::_Tree<std::_Tmap_traits<HWND__ *,CWndData,std::less<HWND__ *>,std::allocator<std::pair<HWND__ * const,CWndData> >,0> >::lower_bound
_TEXT	ENDS
PUBLIC	?_Left@?$_Tree@V?$_Tmap_traits@PAUHWND__@@UCWndData@@U?$less@PAUHWND__@@@std@@V?$allocator@U?$pair@QAUHWND__@@UCWndData@@@std@@@4@$0A@@std@@@std@@KAAAPAU_Node@?$_Tree_nod@V?$_Tmap_traits@PAUHWND__@@UCWndData@@U?$less@PAUHWND__@@@std@@V?$allocator@U?$pair@QAUHWND__@@UCWndData@@@std@@@4@$0A@@std@@@2@PAU342@@Z ; std::_Tree<std::_Tmap_traits<HWND__ *,CWndData,std::less<HWND__ *>,std::allocator<std::pair<HWND__ * const,CWndData> >,0> >::_Left
; Function compile flags: /Odt
;	COMDAT ?_Lmost@?$_Tree@V?$_Tmap_traits@PAUHWND__@@UCWndData@@U?$less@PAUHWND__@@@std@@V?$allocator@U?$pair@QAUHWND__@@UCWndData@@@std@@@4@$0A@@std@@@std@@IAEAAPAU_Node@?$_Tree_nod@V?$_Tmap_traits@PAUHWND__@@UCWndData@@U?$less@PAUHWND__@@@std@@V?$allocator@U?$pair@QAUHWND__@@UCWndData@@@std@@@4@$0A@@std@@@2@XZ
_TEXT	SEGMENT
_this$ = -4						; size = 4
?_Lmost@?$_Tree@V?$_Tmap_traits@PAUHWND__@@UCWndData@@U?$less@PAUHWND__@@@std@@V?$allocator@U?$pair@QAUHWND__@@UCWndData@@@std@@@4@$0A@@std@@@std@@IAEAAPAU_Node@?$_Tree_nod@V?$_Tmap_traits@PAUHWND__@@UCWndData@@U?$less@PAUHWND__@@@std@@V?$allocator@U?$pair@QAUHWND__@@UCWndData@@@std@@@4@$0A@@std@@@2@XZ PROC NEAR ; std::_Tree<std::_Tmap_traits<HWND__ *,CWndData,std::less<HWND__ *>,std::allocator<std::pair<HWND__ * const,CWndData> >,0> >::_Lmost, COMDAT
; _this$ = ecx

; 1004 : 		{	// return leftmost node in mutable tree

  00000	55		 push	 ebp
  00001	8b ec		 mov	 ebp, esp
  00003	51		 push	 ecx
  00004	89 4d fc	 mov	 DWORD PTR _this$[ebp], ecx

; 1005 : 		return (_Left(_Myhead));

  00007	8b 45 fc	 mov	 eax, DWORD PTR _this$[ebp]
  0000a	8b 48 04	 mov	 ecx, DWORD PTR [eax+4]
  0000d	51		 push	 ecx
  0000e	e8 00 00 00 00	 call	 ?_Left@?$_Tree@V?$_Tmap_traits@PAUHWND__@@UCWndData@@U?$less@PAUHWND__@@@std@@V?$allocator@U?$pair@QAUHWND__@@UCWndData@@@std@@@4@$0A@@std@@@std@@KAAAPAU_Node@?$_Tree_nod@V?$_Tmap_traits@PAUHWND__@@UCWndData@@U?$less@PAUHWND__@@@std@@V?$allocator@U?$pair@QAUHWND__@@UCWndData@@@std@@@4@$0A@@std@@@2@PAU342@@Z ; std::_Tree<std::_Tmap_traits<HWND__ *,CWndData,std::less<HWND__ *>,std::allocator<std::pair<HWND__ * const,CWndData> >,0> >::_Left
  00013	83 c4 04	 add	 esp, 4

; 1006 : 		}

  00016	8b e5		 mov	 esp, ebp
  00018	5d		 pop	 ebp
  00019	c3		 ret	 0
?_Lmost@?$_Tree@V?$_Tmap_traits@PAUHWND__@@UCWndData@@U?$less@PAUHWND__@@@std@@V?$allocator@U?$pair@QAUHWND__@@UCWndData@@@std@@@4@$0A@@std@@@std@@IAEAAPAU_Node@?$_Tree_nod@V?$_Tmap_traits@PAUHWND__@@UCWndData@@U?$less@PAUHWND__@@@std@@V?$allocator@U?$pair@QAUHWND__@@UCWndData@@@std@@@4@$0A@@std@@@2@XZ ENDP ; std::_Tree<std::_Tmap_traits<HWND__ *,CWndData,std::less<HWND__ *>,std::allocator<std::pair<HWND__ * const,CWndData> >,0> >::_Lmost
_TEXT	ENDS
PUBLIC	?deallocate@?$allocator@U_Node@?$_Tree_nod@V?$_Tmap_traits@PAUHWND__@@UCWndData@@U?$less@PAUHWND__@@@std@@V?$allocator@U?$pair@QAUHWND__@@UCWndData@@@std@@@4@$0A@@std@@@std@@@std@@QAEXPAU_Node@?$_Tree_nod@V?$_Tmap_traits@PAUHWND__@@UCWndData@@U?$less@PAUHWND__@@@std@@V?$allocator@U?$pair@QAUHWND__@@UCWndData@@@std@@@4@$0A@@std@@@2@I@Z ; std::allocator<std::_Tree_nod<std::_Tmap_traits<HWND__ *,CWndData,std::less<HWND__ *>,std::allocator<std::pair<HWND__ * const,CWndData> >,0> >::_Node>::deallocate
PUBLIC	?destroy@?$allocator@PAU_Node@?$_Tree_nod@V?$_Tmap_traits@PAUHWND__@@UCWndData@@U?$less@PAUHWND__@@@std@@V?$allocator@U?$pair@QAUHWND__@@UCWndData@@@std@@@4@$0A@@std@@@std@@@std@@QAEXPAPAU_Node@?$_Tree_nod@V?$_Tmap_traits@PAUHWND__@@UCWndData@@U?$less@PAUHWND__@@@std@@V?$allocator@U?$pair@QAUHWND__@@UCWndData@@@std@@@4@$0A@@std@@@2@@Z ; std::allocator<std::_Tree_nod<std::_Tmap_traits<HWND__ *,CWndData,std::less<HWND__ *>,std::allocator<std::pair<HWND__ * const,CWndData> >,0> >::_Node *>::destroy
PUBLIC	?_Parent@?$_Tree@V?$_Tmap_traits@PAUHWND__@@UCWndData@@U?$less@PAUHWND__@@@std@@V?$allocator@U?$pair@QAUHWND__@@UCWndData@@@std@@@4@$0A@@std@@@std@@KAAAPAU_Node@?$_Tree_nod@V?$_Tmap_traits@PAUHWND__@@UCWndData@@U?$less@PAUHWND__@@@std@@V?$allocator@U?$pair@QAUHWND__@@UCWndData@@@std@@@4@$0A@@std@@@2@PAU342@@Z ; std::_Tree<std::_Tmap_traits<HWND__ *,CWndData,std::less<HWND__ *>,std::allocator<std::pair<HWND__ * const,CWndData> >,0> >::_Parent
PUBLIC	?erase@?$_Tree@V?$_Tmap_traits@PAUHWND__@@UCWndData@@U?$less@PAUHWND__@@@std@@V?$allocator@U?$pair@QAUHWND__@@UCWndData@@@std@@@4@$0A@@std@@@std@@QAE?AViterator@12@V312@0@Z ; std::_Tree<std::_Tmap_traits<HWND__ *,CWndData,std::less<HWND__ *>,std::allocator<std::pair<HWND__ * const,CWndData> >,0> >::erase
; Function compile flags: /Odt
;	COMDAT ?_Tidy@?$_Tree@V?$_Tmap_traits@PAUHWND__@@UCWndData@@U?$less@PAUHWND__@@@std@@V?$allocator@U?$pair@QAUHWND__@@UCWndData@@@std@@@4@$0A@@std@@@std@@IAEXXZ
_TEXT	SEGMENT
_this$ = -16						; size = 4
$T202691 = -12						; size = 4
$T202690 = -8						; size = 4
$T202689 = -4						; size = 4
?_Tidy@?$_Tree@V?$_Tmap_traits@PAUHWND__@@UCWndData@@U?$less@PAUHWND__@@@std@@V?$allocator@U?$pair@QAUHWND__@@UCWndData@@@std@@@4@$0A@@std@@@std@@IAEXXZ PROC NEAR ; std::_Tree<std::_Tmap_traits<HWND__ *,CWndData,std::less<HWND__ *>,std::allocator<std::pair<HWND__ * const,CWndData> >,0> >::_Tidy, COMDAT
; _this$ = ecx

; 1142 : 		{	// free all storage

  00000	55		 push	 ebp
  00001	8b ec		 mov	 ebp, esp
  00003	83 ec 10	 sub	 esp, 16			; 00000010H
  00006	89 4d f0	 mov	 DWORD PTR _this$[ebp], ecx

; 1143 : 		erase(begin(), end());

  00009	8d 45 fc	 lea	 eax, DWORD PTR $T202689[ebp]
  0000c	50		 push	 eax
  0000d	8b 4d f0	 mov	 ecx, DWORD PTR _this$[ebp]
  00010	e8 00 00 00 00	 call	 ?end@?$_Tree@V?$_Tmap_traits@PAUHWND__@@UCWndData@@U?$less@PAUHWND__@@@std@@V?$allocator@U?$pair@QAUHWND__@@UCWndData@@@std@@@4@$0A@@std@@@std@@QAE?AViterator@12@XZ ; std::_Tree<std::_Tmap_traits<HWND__ *,CWndData,std::less<HWND__ *>,std::allocator<std::pair<HWND__ * const,CWndData> >,0> >::end
  00015	8b 08		 mov	 ecx, DWORD PTR [eax]
  00017	51		 push	 ecx
  00018	8d 55 f8	 lea	 edx, DWORD PTR $T202690[ebp]
  0001b	52		 push	 edx
  0001c	8b 4d f0	 mov	 ecx, DWORD PTR _this$[ebp]
  0001f	e8 00 00 00 00	 call	 ?begin@?$_Tree@V?$_Tmap_traits@PAUHWND__@@UCWndData@@U?$less@PAUHWND__@@@std@@V?$allocator@U?$pair@QAUHWND__@@UCWndData@@@std@@@4@$0A@@std@@@std@@QAE?AViterator@12@XZ ; std::_Tree<std::_Tmap_traits<HWND__ *,CWndData,std::less<HWND__ *>,std::allocator<std::pair<HWND__ * const,CWndData> >,0> >::begin
  00024	8b 00		 mov	 eax, DWORD PTR [eax]
  00026	50		 push	 eax
  00027	8d 4d f4	 lea	 ecx, DWORD PTR $T202691[ebp]
  0002a	51		 push	 ecx
  0002b	8b 4d f0	 mov	 ecx, DWORD PTR _this$[ebp]
  0002e	e8 00 00 00 00	 call	 ?erase@?$_Tree@V?$_Tmap_traits@PAUHWND__@@UCWndData@@U?$less@PAUHWND__@@@std@@V?$allocator@U?$pair@QAUHWND__@@UCWndData@@@std@@@4@$0A@@std@@@std@@QAE?AViterator@12@V312@0@Z ; std::_Tree<std::_Tmap_traits<HWND__ *,CWndData,std::less<HWND__ *>,std::allocator<std::pair<HWND__ * const,CWndData> >,0> >::erase

; 1144 : 		this->_Alptr.destroy(&_Left(_Myhead));

  00033	8b 55 f0	 mov	 edx, DWORD PTR _this$[ebp]
  00036	8b 42 04	 mov	 eax, DWORD PTR [edx+4]
  00039	50		 push	 eax
  0003a	e8 00 00 00 00	 call	 ?_Left@?$_Tree@V?$_Tmap_traits@PAUHWND__@@UCWndData@@U?$less@PAUHWND__@@@std@@V?$allocator@U?$pair@QAUHWND__@@UCWndData@@@std@@@4@$0A@@std@@@std@@KAAAPAU_Node@?$_Tree_nod@V?$_Tmap_traits@PAUHWND__@@UCWndData@@U?$less@PAUHWND__@@@std@@V?$allocator@U?$pair@QAUHWND__@@UCWndData@@@std@@@4@$0A@@std@@@2@PAU342@@Z ; std::_Tree<std::_Tmap_traits<HWND__ *,CWndData,std::less<HWND__ *>,std::allocator<std::pair<HWND__ * const,CWndData> >,0> >::_Left
  0003f	83 c4 04	 add	 esp, 4
  00042	50		 push	 eax
  00043	8b 4d f0	 mov	 ecx, DWORD PTR _this$[ebp]
  00046	83 c1 02	 add	 ecx, 2
  00049	e8 00 00 00 00	 call	 ?destroy@?$allocator@PAU_Node@?$_Tree_nod@V?$_Tmap_traits@PAUHWND__@@UCWndData@@U?$less@PAUHWND__@@@std@@V?$allocator@U?$pair@QAUHWND__@@UCWndData@@@std@@@4@$0A@@std@@@std@@@std@@QAEXPAPAU_Node@?$_Tree_nod@V?$_Tmap_traits@PAUHWND__@@UCWndData@@U?$less@PAUHWND__@@@std@@V?$allocator@U?$pair@QAUHWND__@@UCWndData@@@std@@@4@$0A@@std@@@2@@Z ; std::allocator<std::_Tree_nod<std::_Tmap_traits<HWND__ *,CWndData,std::less<HWND__ *>,std::allocator<std::pair<HWND__ * const,CWndData> >,0> >::_Node *>::destroy

; 1145 : 		this->_Alptr.destroy(&_Parent(_Myhead));

  0004e	8b 4d f0	 mov	 ecx, DWORD PTR _this$[ebp]
  00051	8b 51 04	 mov	 edx, DWORD PTR [ecx+4]
  00054	52		 push	 edx
  00055	e8 00 00 00 00	 call	 ?_Parent@?$_Tree@V?$_Tmap_traits@PAUHWND__@@UCWndData@@U?$less@PAUHWND__@@@std@@V?$allocator@U?$pair@QAUHWND__@@UCWndData@@@std@@@4@$0A@@std@@@std@@KAAAPAU_Node@?$_Tree_nod@V?$_Tmap_traits@PAUHWND__@@UCWndData@@U?$less@PAUHWND__@@@std@@V?$allocator@U?$pair@QAUHWND__@@UCWndData@@@std@@@4@$0A@@std@@@2@PAU342@@Z ; std::_Tree<std::_Tmap_traits<HWND__ *,CWndData,std::less<HWND__ *>,std::allocator<std::pair<HWND__ * const,CWndData> >,0> >::_Parent
  0005a	83 c4 04	 add	 esp, 4
  0005d	50		 push	 eax
  0005e	8b 4d f0	 mov	 ecx, DWORD PTR _this$[ebp]
  00061	83 c1 02	 add	 ecx, 2
  00064	e8 00 00 00 00	 call	 ?destroy@?$allocator@PAU_Node@?$_Tree_nod@V?$_Tmap_traits@PAUHWND__@@UCWndData@@U?$less@PAUHWND__@@@std@@V?$allocator@U?$pair@QAUHWND__@@UCWndData@@@std@@@4@$0A@@std@@@std@@@std@@QAEXPAPAU_Node@?$_Tree_nod@V?$_Tmap_traits@PAUHWND__@@UCWndData@@U?$less@PAUHWND__@@@std@@V?$allocator@U?$pair@QAUHWND__@@UCWndData@@@std@@@4@$0A@@std@@@2@@Z ; std::allocator<std::_Tree_nod<std::_Tmap_traits<HWND__ *,CWndData,std::less<HWND__ *>,std::allocator<std::pair<HWND__ * const,CWndData> >,0> >::_Node *>::destroy

; 1146 : 		this->_Alptr.destroy(&_Right(_Myhead));

  00069	8b 45 f0	 mov	 eax, DWORD PTR _this$[ebp]
  0006c	8b 48 04	 mov	 ecx, DWORD PTR [eax+4]
  0006f	51		 push	 ecx
  00070	e8 00 00 00 00	 call	 ?_Right@?$_Tree@V?$_Tmap_traits@PAUHWND__@@UCWndData@@U?$less@PAUHWND__@@@std@@V?$allocator@U?$pair@QAUHWND__@@UCWndData@@@std@@@4@$0A@@std@@@std@@KAAAPAU_Node@?$_Tree_nod@V?$_Tmap_traits@PAUHWND__@@UCWndData@@U?$less@PAUHWND__@@@std@@V?$allocator@U?$pair@QAUHWND__@@UCWndData@@@std@@@4@$0A@@std@@@2@PAU342@@Z ; std::_Tree<std::_Tmap_traits<HWND__ *,CWndData,std::less<HWND__ *>,std::allocator<std::pair<HWND__ * const,CWndData> >,0> >::_Right
  00075	83 c4 04	 add	 esp, 4
  00078	50		 push	 eax
  00079	8b 4d f0	 mov	 ecx, DWORD PTR _this$[ebp]
  0007c	83 c1 02	 add	 ecx, 2
  0007f	e8 00 00 00 00	 call	 ?destroy@?$allocator@PAU_Node@?$_Tree_nod@V?$_Tmap_traits@PAUHWND__@@UCWndData@@U?$less@PAUHWND__@@@std@@V?$allocator@U?$pair@QAUHWND__@@UCWndData@@@std@@@4@$0A@@std@@@std@@@std@@QAEXPAPAU_Node@?$_Tree_nod@V?$_Tmap_traits@PAUHWND__@@UCWndData@@U?$less@PAUHWND__@@@std@@V?$allocator@U?$pair@QAUHWND__@@UCWndData@@@std@@@4@$0A@@std@@@2@@Z ; std::allocator<std::_Tree_nod<std::_Tmap_traits<HWND__ *,CWndData,std::less<HWND__ *>,std::allocator<std::pair<HWND__ * const,CWndData> >,0> >::_Node *>::destroy

; 1147 : 		this->_Alnod.deallocate(_Myhead, 1);

  00084	6a 01		 push	 1
  00086	8b 55 f0	 mov	 edx, DWORD PTR _this$[ebp]
  00089	8b 42 04	 mov	 eax, DWORD PTR [edx+4]
  0008c	50		 push	 eax
  0008d	8b 4d f0	 mov	 ecx, DWORD PTR _this$[ebp]
  00090	83 c1 01	 add	 ecx, 1
  00093	e8 00 00 00 00	 call	 ?deallocate@?$allocator@U_Node@?$_Tree_nod@V?$_Tmap_traits@PAUHWND__@@UCWndData@@U?$less@PAUHWND__@@@std@@V?$allocator@U?$pair@QAUHWND__@@UCWndData@@@std@@@4@$0A@@std@@@std@@@std@@QAEXPAU_Node@?$_Tree_nod@V?$_Tmap_traits@PAUHWND__@@UCWndData@@U?$less@PAUHWND__@@@std@@V?$allocator@U?$pair@QAUHWND__@@UCWndData@@@std@@@4@$0A@@std@@@2@I@Z ; std::allocator<std::_Tree_nod<std::_Tmap_traits<HWND__ *,CWndData,std::less<HWND__ *>,std::allocator<std::pair<HWND__ * const,CWndData> >,0> >::_Node>::deallocate

; 1148 : 		_Myhead = 0, _Mysize = 0;

  00098	8b 4d f0	 mov	 ecx, DWORD PTR _this$[ebp]
  0009b	c7 41 04 00 00
	00 00		 mov	 DWORD PTR [ecx+4], 0
  000a2	8b 55 f0	 mov	 edx, DWORD PTR _this$[ebp]
  000a5	c7 42 08 00 00
	00 00		 mov	 DWORD PTR [edx+8], 0

; 1149 : 		}

  000ac	8b e5		 mov	 esp, ebp
  000ae	5d		 pop	 ebp
  000af	c3		 ret	 0
?_Tidy@?$_Tree@V?$_Tmap_traits@PAUHWND__@@UCWndData@@U?$less@PAUHWND__@@@std@@V?$allocator@U?$pair@QAUHWND__@@UCWndData@@@std@@@4@$0A@@std@@@std@@IAEXXZ ENDP ; std::_Tree<std::_Tmap_traits<HWND__ *,CWndData,std::less<HWND__ *>,std::allocator<std::pair<HWND__ * const,CWndData> >,0> >::_Tidy
; Function compile flags: /Odt
; File d:\program files (x86)\microsoft visual studio .net 2003\vc7\include\xmemory
_TEXT	ENDS
;	COMDAT ??0?$allocator@U?$pair@QAUHWND__@@UCWndData@@@std@@@std@@QAE@XZ
_TEXT	SEGMENT
_this$ = -4						; size = 4
??0?$allocator@U?$pair@QAUHWND__@@UCWndData@@@std@@@std@@QAE@XZ PROC NEAR ; std::allocator<std::pair<HWND__ * const,CWndData> >::allocator<std::pair<HWND__ * const,CWndData> >, COMDAT
; _this$ = ecx

; 111  : 	allocator()

  00000	55		 push	 ebp
  00001	8b ec		 mov	 ebp, esp
  00003	51		 push	 ecx
  00004	89 4d fc	 mov	 DWORD PTR _this$[ebp], ecx

; 112  : 		{	// construct default allocator (do nothing)
; 113  : 		}

  00007	8b 45 fc	 mov	 eax, DWORD PTR _this$[ebp]
  0000a	8b e5		 mov	 esp, ebp
  0000c	5d		 pop	 ebp
  0000d	c3		 ret	 0
??0?$allocator@U?$pair@QAUHWND__@@UCWndData@@@std@@@std@@QAE@XZ ENDP ; std::allocator<std::pair<HWND__ * const,CWndData> >::allocator<std::pair<HWND__ * const,CWndData> >
; Function compile flags: /Odt
; File d:\program files (x86)\microsoft visual studio .net 2003\vc7\include\functional
_TEXT	ENDS
;	COMDAT ??R?$less@PAUHWND__@@@std@@QBE_NABQAUHWND__@@0@Z
_TEXT	SEGMENT
_this$ = -4						; size = 4
__Left$ = 8						; size = 4
__Right$ = 12						; size = 4
??R?$less@PAUHWND__@@@std@@QBE_NABQAUHWND__@@0@Z PROC NEAR ; std::less<HWND__ *>::operator(), COMDAT
; _this$ = ecx

; 138  : 		{	// apply operator< to operands

  00000	55		 push	 ebp
  00001	8b ec		 mov	 ebp, esp
  00003	51		 push	 ecx
  00004	89 4d fc	 mov	 DWORD PTR _this$[ebp], ecx

; 139  : 		return (_Left < _Right);

  00007	8b 45 08	 mov	 eax, DWORD PTR __Left$[ebp]
  0000a	8b 4d 0c	 mov	 ecx, DWORD PTR __Right$[ebp]
  0000d	8b 10		 mov	 edx, DWORD PTR [eax]
  0000f	3b 11		 cmp	 edx, DWORD PTR [ecx]
  00011	1b c0		 sbb	 eax, eax
  00013	f7 d8		 neg	 eax

; 140  : 		}

  00015	8b e5		 mov	 esp, ebp
  00017	5d		 pop	 ebp
  00018	c2 08 00	 ret	 8
??R?$less@PAUHWND__@@@std@@QBE_NABQAUHWND__@@0@Z ENDP	; std::less<HWND__ *>::operator()
; Function compile flags: /Odt
; File d:\program files (x86)\microsoft visual studio .net 2003\vc7\include\vector
_TEXT	ENDS
;	COMDAT ?capacity@?$vector@PAVCHostWnd@@V?$allocator@PAVCHostWnd@@@std@@@std@@QBEIXZ
_TEXT	SEGMENT
tv70 = -8						; size = 4
_this$ = -4						; size = 4
?capacity@?$vector@PAVCHostWnd@@V?$allocator@PAVCHostWnd@@@std@@@std@@QBEIXZ PROC NEAR ; std::vector<CHostWnd *,std::allocator<CHostWnd *> >::capacity, COMDAT
; _this$ = ecx

; 457  : 		{	// return current length of allocated storage

  00000	55		 push	 ebp
  00001	8b ec		 mov	 ebp, esp
  00003	83 ec 08	 sub	 esp, 8
  00006	89 4d fc	 mov	 DWORD PTR _this$[ebp], ecx

; 458  : 		return (_Myfirst == 0 ? 0 : _Myend - _Myfirst);

  00009	8b 45 fc	 mov	 eax, DWORD PTR _this$[ebp]
  0000c	83 78 04 00	 cmp	 DWORD PTR [eax+4], 0
  00010	75 09		 jne	 SHORT $L202698
  00012	c7 45 f8 00 00
	00 00		 mov	 DWORD PTR tv70[ebp], 0
  00019	eb 12		 jmp	 SHORT $L202699
$L202698:
  0001b	8b 4d fc	 mov	 ecx, DWORD PTR _this$[ebp]
  0001e	8b 55 fc	 mov	 edx, DWORD PTR _this$[ebp]
  00021	8b 41 0c	 mov	 eax, DWORD PTR [ecx+12]
  00024	2b 42 04	 sub	 eax, DWORD PTR [edx+4]
  00027	c1 f8 02	 sar	 eax, 2
  0002a	89 45 f8	 mov	 DWORD PTR tv70[ebp], eax
$L202699:
  0002d	8b 45 f8	 mov	 eax, DWORD PTR tv70[ebp]

; 459  : 		}

  00030	8b e5		 mov	 esp, ebp
  00032	5d		 pop	 ebp
  00033	c3		 ret	 0
?capacity@?$vector@PAVCHostWnd@@V?$allocator@PAVCHostWnd@@@std@@@std@@QBEIXZ ENDP ; std::vector<CHostWnd *,std::allocator<CHostWnd *> >::capacity
_TEXT	ENDS
PUBLIC	??0iterator@?$vector@PAVCHostWnd@@V?$allocator@PAVCHostWnd@@@std@@@std@@QAE@PAPAVCHostWnd@@@Z ; std::vector<CHostWnd *,std::allocator<CHostWnd *> >::iterator::iterator
; Function compile flags: /Odt
;	COMDAT ?begin@?$vector@PAVCHostWnd@@V?$allocator@PAVCHostWnd@@@std@@@std@@QAE?AViterator@12@XZ
_TEXT	SEGMENT
_this$ = -4						; size = 4
___$ReturnUdt$ = 8					; size = 4
?begin@?$vector@PAVCHostWnd@@V?$allocator@PAVCHostWnd@@@std@@@std@@QAE?AViterator@12@XZ PROC NEAR ; std::vector<CHostWnd *,std::allocator<CHostWnd *> >::begin, COMDAT
; _this$ = ecx

; 462  : 		{	// return iterator for beginning of mutable sequence

  00000	55		 push	 ebp
  00001	8b ec		 mov	 ebp, esp
  00003	51		 push	 ecx
  00004	89 4d fc	 mov	 DWORD PTR _this$[ebp], ecx

; 463  : 		return (iterator(_Myfirst));

  00007	8b 45 fc	 mov	 eax, DWORD PTR _this$[ebp]
  0000a	8b 48 04	 mov	 ecx, DWORD PTR [eax+4]
  0000d	51		 push	 ecx
  0000e	8b 4d 08	 mov	 ecx, DWORD PTR ___$ReturnUdt$[ebp]
  00011	e8 00 00 00 00	 call	 ??0iterator@?$vector@PAVCHostWnd@@V?$allocator@PAVCHostWnd@@@std@@@std@@QAE@PAPAVCHostWnd@@@Z ; std::vector<CHostWnd *,std::allocator<CHostWnd *> >::iterator::iterator
  00016	8b 45 08	 mov	 eax, DWORD PTR ___$ReturnUdt$[ebp]

; 464  : 		}

  00019	8b e5		 mov	 esp, ebp
  0001b	5d		 pop	 ebp
  0001c	c2 04 00	 ret	 4
?begin@?$vector@PAVCHostWnd@@V?$allocator@PAVCHostWnd@@@std@@@std@@QAE?AViterator@12@XZ ENDP ; std::vector<CHostWnd *,std::allocator<CHostWnd *> >::begin
; Function compile flags: /Odt
_TEXT	ENDS
;	COMDAT ?end@?$vector@PAVCHostWnd@@V?$allocator@PAVCHostWnd@@@std@@@std@@QAE?AViterator@12@XZ
_TEXT	SEGMENT
_this$ = -4						; size = 4
___$ReturnUdt$ = 8					; size = 4
?end@?$vector@PAVCHostWnd@@V?$allocator@PAVCHostWnd@@@std@@@std@@QAE?AViterator@12@XZ PROC NEAR ; std::vector<CHostWnd *,std::allocator<CHostWnd *> >::end, COMDAT
; _this$ = ecx

; 472  : 		{	// return iterator for end of mutable sequence

  00000	55		 push	 ebp
  00001	8b ec		 mov	 ebp, esp
  00003	51		 push	 ecx
  00004	89 4d fc	 mov	 DWORD PTR _this$[ebp], ecx

; 473  : 		return (iterator(_Mylast));

  00007	8b 45 fc	 mov	 eax, DWORD PTR _this$[ebp]
  0000a	8b 48 08	 mov	 ecx, DWORD PTR [eax+8]
  0000d	51		 push	 ecx
  0000e	8b 4d 08	 mov	 ecx, DWORD PTR ___$ReturnUdt$[ebp]
  00011	e8 00 00 00 00	 call	 ??0iterator@?$vector@PAVCHostWnd@@V?$allocator@PAVCHostWnd@@@std@@@std@@QAE@PAPAVCHostWnd@@@Z ; std::vector<CHostWnd *,std::allocator<CHostWnd *> >::iterator::iterator
  00016	8b 45 08	 mov	 eax, DWORD PTR ___$ReturnUdt$[ebp]

; 474  : 		}

  00019	8b e5		 mov	 esp, ebp
  0001b	5d		 pop	 ebp
  0001c	c2 04 00	 ret	 4
?end@?$vector@PAVCHostWnd@@V?$allocator@PAVCHostWnd@@@std@@@std@@QAE?AViterator@12@XZ ENDP ; std::vector<CHostWnd *,std::allocator<CHostWnd *> >::end
_TEXT	ENDS
PUBLIC	??Giterator@?$vector@PAVCHostWnd@@V?$allocator@PAVCHostWnd@@@std@@@std@@QBEHABVconst_iterator@12@@Z ; std::vector<CHostWnd *,std::allocator<CHostWnd *> >::iterator::operator-
PUBLIC	?_Insert_n@?$vector@PAVCHostWnd@@V?$allocator@PAVCHostWnd@@@std@@@std@@IAEXViterator@12@IABQAVCHostWnd@@@Z ; std::vector<CHostWnd *,std::allocator<CHostWnd *> >::_Insert_n
; Function compile flags: /Odt
;	COMDAT ?insert@?$vector@PAVCHostWnd@@V?$allocator@PAVCHostWnd@@@std@@@std@@QAE?AViterator@12@V312@ABQAVCHostWnd@@@Z
_TEXT	SEGMENT
tv73 = -20						; size = 4
_this$ = -16						; size = 4
$T202709 = -12						; size = 4
$T202706 = -8						; size = 4
__Off$ = -4						; size = 4
___$ReturnUdt$ = 8					; size = 4
__Where$ = 12						; size = 4
__Val$ = 16						; size = 4
?insert@?$vector@PAVCHostWnd@@V?$allocator@PAVCHostWnd@@@std@@@std@@QAE?AViterator@12@V312@ABQAVCHostWnd@@@Z PROC NEAR ; std::vector<CHostWnd *,std::allocator<CHostWnd *> >::insert, COMDAT
; _this$ = ecx

; 620  : 		{	// insert _Val at _Where

  00000	55		 push	 ebp
  00001	8b ec		 mov	 ebp, esp
  00003	83 ec 14	 sub	 esp, 20			; 00000014H
  00006	89 4d f0	 mov	 DWORD PTR _this$[ebp], ecx

; 621  : 		size_type _Off = size() == 0 ? 0 : _Where - begin();

  00009	8b 4d f0	 mov	 ecx, DWORD PTR _this$[ebp]
  0000c	e8 00 00 00 00	 call	 ?size@?$vector@PAVCHostWnd@@V?$allocator@PAVCHostWnd@@@std@@@std@@QBEIXZ ; std::vector<CHostWnd *,std::allocator<CHostWnd *> >::size
  00011	85 c0		 test	 eax, eax
  00013	75 09		 jne	 SHORT $L202707
  00015	c7 45 ec 00 00
	00 00		 mov	 DWORD PTR tv73[ebp], 0
  0001c	eb 18		 jmp	 SHORT $L202708
$L202707:
  0001e	8d 45 f8	 lea	 eax, DWORD PTR $T202706[ebp]
  00021	50		 push	 eax
  00022	8b 4d f0	 mov	 ecx, DWORD PTR _this$[ebp]
  00025	e8 00 00 00 00	 call	 ?begin@?$vector@PAVCHostWnd@@V?$allocator@PAVCHostWnd@@@std@@@std@@QAE?AViterator@12@XZ ; std::vector<CHostWnd *,std::allocator<CHostWnd *> >::begin
  0002a	50		 push	 eax
  0002b	8d 4d 0c	 lea	 ecx, DWORD PTR __Where$[ebp]
  0002e	e8 00 00 00 00	 call	 ??Giterator@?$vector@PAVCHostWnd@@V?$allocator@PAVCHostWnd@@@std@@@std@@QBEHABVconst_iterator@12@@Z ; std::vector<CHostWnd *,std::allocator<CHostWnd *> >::iterator::operator-
  00033	89 45 ec	 mov	 DWORD PTR tv73[ebp], eax
$L202708:
  00036	8b 4d ec	 mov	 ecx, DWORD PTR tv73[ebp]
  00039	89 4d fc	 mov	 DWORD PTR __Off$[ebp], ecx

; 622  : 		_Insert_n(_Where, (size_type)1, _Val);

  0003c	8b 55 10	 mov	 edx, DWORD PTR __Val$[ebp]
  0003f	52		 push	 edx
  00040	6a 01		 push	 1
  00042	8b 45 0c	 mov	 eax, DWORD PTR __Where$[ebp]
  00045	50		 push	 eax
  00046	8b 4d f0	 mov	 ecx, DWORD PTR _this$[ebp]
  00049	e8 00 00 00 00	 call	 ?_Insert_n@?$vector@PAVCHostWnd@@V?$allocator@PAVCHostWnd@@@std@@@std@@IAEXViterator@12@IABQAVCHostWnd@@@Z ; std::vector<CHostWnd *,std::allocator<CHostWnd *> >::_Insert_n

; 623  : 		return (begin() + _Off);

  0004e	8b 4d fc	 mov	 ecx, DWORD PTR __Off$[ebp]
  00051	51		 push	 ecx
  00052	8b 55 08	 mov	 edx, DWORD PTR ___$ReturnUdt$[ebp]
  00055	52		 push	 edx
  00056	8d 45 f4	 lea	 eax, DWORD PTR $T202709[ebp]
  00059	50		 push	 eax
  0005a	8b 4d f0	 mov	 ecx, DWORD PTR _this$[ebp]
  0005d	e8 00 00 00 00	 call	 ?begin@?$vector@PAVCHostWnd@@V?$allocator@PAVCHostWnd@@@std@@@std@@QAE?AViterator@12@XZ ; std::vector<CHostWnd *,std::allocator<CHostWnd *> >::begin
  00062	8b c8		 mov	 ecx, eax
  00064	e8 00 00 00 00	 call	 ??Hiterator@?$vector@PAVCHostWnd@@V?$allocator@PAVCHostWnd@@@std@@@std@@QBE?AV012@H@Z ; std::vector<CHostWnd *,std::allocator<CHostWnd *> >::iterator::operator+
  00069	8b 45 08	 mov	 eax, DWORD PTR ___$ReturnUdt$[ebp]

; 624  : 		}

  0006c	8b e5		 mov	 esp, ebp
  0006e	5d		 pop	 ebp
  0006f	c2 0c 00	 ret	 12			; 0000000cH
?insert@?$vector@PAVCHostWnd@@V?$allocator@PAVCHostWnd@@@std@@@std@@QAE?AViterator@12@V312@ABQAVCHostWnd@@@Z ENDP ; std::vector<CHostWnd *,std::allocator<CHostWnd *> >::insert
_TEXT	ENDS
PUBLIC	?allocate@?$allocator@PAVCHostWnd@@@std@@QAEPAPAVCHostWnd@@I@Z ; std::allocator<CHostWnd *>::allocate
PUBLIC	?max_size@?$vector@PAVCHostWnd@@V?$allocator@PAVCHostWnd@@@std@@@std@@QBEIXZ ; std::vector<CHostWnd *,std::allocator<CHostWnd *> >::max_size
PUBLIC	?_Xlen@?$vector@PAVCHostWnd@@V?$allocator@PAVCHostWnd@@@std@@@std@@IBEXXZ ; std::vector<CHostWnd *,std::allocator<CHostWnd *> >::_Xlen
; Function compile flags: /Odt
;	COMDAT ?_Buy@?$vector@PAVCHostWnd@@V?$allocator@PAVCHostWnd@@@std@@@std@@IAE_NI@Z
_TEXT	SEGMENT
_this$ = -4						; size = 4
__Capacity$ = 8						; size = 4
?_Buy@?$vector@PAVCHostWnd@@V?$allocator@PAVCHostWnd@@@std@@@std@@IAE_NI@Z PROC NEAR ; std::vector<CHostWnd *,std::allocator<CHostWnd *> >::_Buy, COMDAT
; _this$ = ecx

; 770  : 		{	// allocate array with _Capacity elements

  00000	55		 push	 ebp
  00001	8b ec		 mov	 ebp, esp
  00003	51		 push	 ecx
  00004	89 4d fc	 mov	 DWORD PTR _this$[ebp], ecx

; 771  : 		_Myfirst = 0, _Mylast = 0, _Myend = 0;

  00007	8b 45 fc	 mov	 eax, DWORD PTR _this$[ebp]
  0000a	c7 40 04 00 00
	00 00		 mov	 DWORD PTR [eax+4], 0
  00011	8b 4d fc	 mov	 ecx, DWORD PTR _this$[ebp]
  00014	c7 41 08 00 00
	00 00		 mov	 DWORD PTR [ecx+8], 0
  0001b	8b 55 fc	 mov	 edx, DWORD PTR _this$[ebp]
  0001e	c7 42 0c 00 00
	00 00		 mov	 DWORD PTR [edx+12], 0

; 772  : 		if (_Capacity == 0)

  00025	83 7d 08 00	 cmp	 DWORD PTR __Capacity$[ebp], 0
  00029	75 04		 jne	 SHORT $L200705

; 773  : 			return (false);

  0002b	32 c0		 xor	 al, al
  0002d	eb 49		 jmp	 SHORT $L200704
$L200705:

; 774  : 		else if (max_size() < _Capacity)

  0002f	8b 4d fc	 mov	 ecx, DWORD PTR _this$[ebp]
  00032	e8 00 00 00 00	 call	 ?max_size@?$vector@PAVCHostWnd@@V?$allocator@PAVCHostWnd@@@std@@@std@@QBEIXZ ; std::vector<CHostWnd *,std::allocator<CHostWnd *> >::max_size
  00037	3b 45 08	 cmp	 eax, DWORD PTR __Capacity$[ebp]
  0003a	73 0a		 jae	 SHORT $L200707

; 775  : 			_Xlen();	// result too long

  0003c	8b 4d fc	 mov	 ecx, DWORD PTR _this$[ebp]
  0003f	e8 00 00 00 00	 call	 ?_Xlen@?$vector@PAVCHostWnd@@V?$allocator@PAVCHostWnd@@@std@@@std@@IBEXXZ ; std::vector<CHostWnd *,std::allocator<CHostWnd *> >::_Xlen

; 776  : 		else

  00044	eb 30		 jmp	 SHORT $L200706
$L200707:

; 777  : 			{	// nonempty array, allocate storage
; 778  : 			_Myfirst = this->_Alval.allocate(_Capacity);

  00046	8b 45 08	 mov	 eax, DWORD PTR __Capacity$[ebp]
  00049	50		 push	 eax
  0004a	8b 4d fc	 mov	 ecx, DWORD PTR _this$[ebp]
  0004d	e8 00 00 00 00	 call	 ?allocate@?$allocator@PAVCHostWnd@@@std@@QAEPAPAVCHostWnd@@I@Z ; std::allocator<CHostWnd *>::allocate
  00052	8b 4d fc	 mov	 ecx, DWORD PTR _this$[ebp]
  00055	89 41 04	 mov	 DWORD PTR [ecx+4], eax

; 779  : 			_Mylast = _Myfirst;

  00058	8b 55 fc	 mov	 edx, DWORD PTR _this$[ebp]
  0005b	8b 45 fc	 mov	 eax, DWORD PTR _this$[ebp]
  0005e	8b 48 04	 mov	 ecx, DWORD PTR [eax+4]
  00061	89 4a 08	 mov	 DWORD PTR [edx+8], ecx

; 780  : 			_Myend = _Myfirst + _Capacity;

  00064	8b 55 fc	 mov	 edx, DWORD PTR _this$[ebp]
  00067	8b 42 04	 mov	 eax, DWORD PTR [edx+4]
  0006a	8b 4d 08	 mov	 ecx, DWORD PTR __Capacity$[ebp]
  0006d	8d 14 88	 lea	 edx, DWORD PTR [eax+ecx*4]
  00070	8b 45 fc	 mov	 eax, DWORD PTR _this$[ebp]
  00073	89 50 0c	 mov	 DWORD PTR [eax+12], edx
$L200706:

; 781  : 			}
; 782  : 		return (true);

  00076	b0 01		 mov	 al, 1
$L200704:

; 783  : 		}

  00078	8b e5		 mov	 esp, ebp
  0007a	5d		 pop	 ebp
  0007b	c2 04 00	 ret	 4
?_Buy@?$vector@PAVCHostWnd@@V?$allocator@PAVCHostWnd@@@std@@@std@@IAE_NI@Z ENDP ; std::vector<CHostWnd *,std::allocator<CHostWnd *> >::_Buy
_TEXT	ENDS
PUBLIC	?deallocate@?$allocator@PAVCHostWnd@@@std@@QAEXPAPAVCHostWnd@@I@Z ; std::allocator<CHostWnd *>::deallocate
PUBLIC	?_Destroy@?$vector@PAVCHostWnd@@V?$allocator@PAVCHostWnd@@@std@@@std@@IAEXPAPAVCHostWnd@@0@Z ; std::vector<CHostWnd *,std::allocator<CHostWnd *> >::_Destroy
; Function compile flags: /Odt
;	COMDAT ?_Tidy@?$vector@PAVCHostWnd@@V?$allocator@PAVCHostWnd@@@std@@@std@@IAEXXZ
_TEXT	SEGMENT
_this$ = -4						; size = 4
?_Tidy@?$vector@PAVCHostWnd@@V?$allocator@PAVCHostWnd@@@std@@@std@@IAEXXZ PROC NEAR ; std::vector<CHostWnd *,std::allocator<CHostWnd *> >::_Tidy, COMDAT
; _this$ = ecx

; 791  : 		{	// free all storage

  00000	55		 push	 ebp
  00001	8b ec		 mov	 ebp, esp
  00003	51		 push	 ecx
  00004	89 4d fc	 mov	 DWORD PTR _this$[ebp], ecx

; 792  : 		if (_Myfirst != 0)

  00007	8b 45 fc	 mov	 eax, DWORD PTR _this$[ebp]
  0000a	83 78 04 00	 cmp	 DWORD PTR [eax+4], 0
  0000e	74 35		 je	 SHORT $L200711

; 793  : 			{	// something to free, destroy and deallocate it
; 794  : 			_Destroy(_Myfirst, _Mylast);

  00010	8b 4d fc	 mov	 ecx, DWORD PTR _this$[ebp]
  00013	8b 51 08	 mov	 edx, DWORD PTR [ecx+8]
  00016	52		 push	 edx
  00017	8b 45 fc	 mov	 eax, DWORD PTR _this$[ebp]
  0001a	8b 48 04	 mov	 ecx, DWORD PTR [eax+4]
  0001d	51		 push	 ecx
  0001e	8b 4d fc	 mov	 ecx, DWORD PTR _this$[ebp]
  00021	e8 00 00 00 00	 call	 ?_Destroy@?$vector@PAVCHostWnd@@V?$allocator@PAVCHostWnd@@@std@@@std@@IAEXPAPAVCHostWnd@@0@Z ; std::vector<CHostWnd *,std::allocator<CHostWnd *> >::_Destroy

; 795  : 			this->_Alval.deallocate(_Myfirst, _Myend - _Myfirst);

  00026	8b 55 fc	 mov	 edx, DWORD PTR _this$[ebp]
  00029	8b 45 fc	 mov	 eax, DWORD PTR _this$[ebp]
  0002c	8b 4a 0c	 mov	 ecx, DWORD PTR [edx+12]
  0002f	2b 48 04	 sub	 ecx, DWORD PTR [eax+4]
  00032	c1 f9 02	 sar	 ecx, 2
  00035	51		 push	 ecx
  00036	8b 55 fc	 mov	 edx, DWORD PTR _this$[ebp]
  00039	8b 42 04	 mov	 eax, DWORD PTR [edx+4]
  0003c	50		 push	 eax
  0003d	8b 4d fc	 mov	 ecx, DWORD PTR _this$[ebp]
  00040	e8 00 00 00 00	 call	 ?deallocate@?$allocator@PAVCHostWnd@@@std@@QAEXPAPAVCHostWnd@@I@Z ; std::allocator<CHostWnd *>::deallocate
$L200711:

; 796  : 			}
; 797  : 		_Myfirst = 0, _Mylast = 0, _Myend = 0;

  00045	8b 4d fc	 mov	 ecx, DWORD PTR _this$[ebp]
  00048	c7 41 04 00 00
	00 00		 mov	 DWORD PTR [ecx+4], 0
  0004f	8b 55 fc	 mov	 edx, DWORD PTR _this$[ebp]
  00052	c7 42 08 00 00
	00 00		 mov	 DWORD PTR [edx+8], 0
  00059	8b 45 fc	 mov	 eax, DWORD PTR _this$[ebp]
  0005c	c7 40 0c 00 00
	00 00		 mov	 DWORD PTR [eax+12], 0

; 798  : 		}

  00063	8b e5		 mov	 esp, ebp
  00065	5d		 pop	 ebp
  00066	c3		 ret	 0
?_Tidy@?$vector@PAVCHostWnd@@V?$allocator@PAVCHostWnd@@@std@@@std@@IAEXXZ ENDP ; std::vector<CHostWnd *,std::allocator<CHostWnd *> >::_Tidy
_TEXT	ENDS
PUBLIC	??$_Uninitialized_fill_n@PAPAVCHostWnd@@IPAV1@V?$allocator@PAVCHostWnd@@@std@@@std@@YAXPAPAVCHostWnd@@IABQAV1@AAV?$allocator@PAVCHostWnd@@@0@@Z ; std::_Uninitialized_fill_n<CHostWnd * *,unsigned int,CHostWnd *,std::allocator<CHostWnd *> >
; Function compile flags: /Odt
;	COMDAT ?_Ufill@?$vector@PAVCHostWnd@@V?$allocator@PAVCHostWnd@@@std@@@std@@IAEPAPAVCHostWnd@@PAPAV3@IABQAV3@@Z
_TEXT	SEGMENT
_this$ = -4						; size = 4
__Ptr$ = 8						; size = 4
__Count$ = 12						; size = 4
__Val$ = 16						; size = 4
?_Ufill@?$vector@PAVCHostWnd@@V?$allocator@PAVCHostWnd@@@std@@@std@@IAEPAPAVCHostWnd@@PAPAV3@IABQAV3@@Z PROC NEAR ; std::vector<CHostWnd *,std::allocator<CHostWnd *> >::_Ufill, COMDAT
; _this$ = ecx

; 877  : 		{	// copy initializing _Count * _Val, using allocator

  00000	55		 push	 ebp
  00001	8b ec		 mov	 ebp, esp
  00003	51		 push	 ecx
  00004	89 4d fc	 mov	 DWORD PTR _this$[ebp], ecx

; 878  : 		_Uninitialized_fill_n(_Ptr, _Count, _Val, this->_Alval);

  00007	8b 45 fc	 mov	 eax, DWORD PTR _this$[ebp]
  0000a	50		 push	 eax
  0000b	8b 4d 10	 mov	 ecx, DWORD PTR __Val$[ebp]
  0000e	51		 push	 ecx
  0000f	8b 55 0c	 mov	 edx, DWORD PTR __Count$[ebp]
  00012	52		 push	 edx
  00013	8b 45 08	 mov	 eax, DWORD PTR __Ptr$[ebp]
  00016	50		 push	 eax
  00017	e8 00 00 00 00	 call	 ??$_Uninitialized_fill_n@PAPAVCHostWnd@@IPAV1@V?$allocator@PAVCHostWnd@@@std@@@std@@YAXPAPAVCHostWnd@@IABQAV1@AAV?$allocator@PAVCHostWnd@@@0@@Z ; std::_Uninitialized_fill_n<CHostWnd * *,unsigned int,CHostWnd *,std::allocator<CHostWnd *> >
  0001c	83 c4 10	 add	 esp, 16			; 00000010H

; 879  : 		return (_Ptr + _Count);

  0001f	8b 4d 0c	 mov	 ecx, DWORD PTR __Count$[ebp]
  00022	8b 55 08	 mov	 edx, DWORD PTR __Ptr$[ebp]
  00025	8d 04 8a	 lea	 eax, DWORD PTR [edx+ecx*4]

; 880  : 		}

  00028	8b e5		 mov	 esp, ebp
  0002a	5d		 pop	 ebp
  0002b	c2 0c 00	 ret	 12			; 0000000cH
?_Ufill@?$vector@PAVCHostWnd@@V?$allocator@PAVCHostWnd@@@std@@@std@@IAEPAPAVCHostWnd@@PAPAV3@IABQAV3@@Z ENDP ; std::vector<CHostWnd *,std::allocator<CHostWnd *> >::_Ufill
_TEXT	ENDS
PUBLIC	??0?$allocator@PAVCHostWnd@@@std@@QAE@ABV01@@Z	; std::allocator<CHostWnd *>::allocator<CHostWnd *>
; Function compile flags: /Odt
;	COMDAT ??0?$_Vector_val@PAVCHostWnd@@V?$allocator@PAVCHostWnd@@@std@@@std@@IAE@V?$allocator@PAVCHostWnd@@@1@@Z
_TEXT	SEGMENT
_this$ = -4						; size = 4
__Al$ = 8						; size = 1
??0?$_Vector_val@PAVCHostWnd@@V?$allocator@PAVCHostWnd@@@std@@@std@@IAE@V?$allocator@PAVCHostWnd@@@1@@Z PROC NEAR ; std::_Vector_val<CHostWnd *,std::allocator<CHostWnd *> >::_Vector_val<CHostWnd *,std::allocator<CHostWnd *> >, COMDAT
; _this$ = ecx

; 21   : 		{	// construct allocator from _Al

  00000	55		 push	 ebp
  00001	8b ec		 mov	 ebp, esp
  00003	51		 push	 ecx
  00004	89 4d fc	 mov	 DWORD PTR _this$[ebp], ecx
  00007	8d 45 08	 lea	 eax, DWORD PTR __Al$[ebp]
  0000a	50		 push	 eax
  0000b	8b 4d fc	 mov	 ecx, DWORD PTR _this$[ebp]
  0000e	e8 00 00 00 00	 call	 ??0?$allocator@PAVCHostWnd@@@std@@QAE@ABV01@@Z ; std::allocator<CHostWnd *>::allocator<CHostWnd *>

; 22   : 		}

  00013	8b 45 fc	 mov	 eax, DWORD PTR _this$[ebp]
  00016	8b e5		 mov	 esp, ebp
  00018	5d		 pop	 ebp
  00019	c2 04 00	 ret	 4
??0?$_Vector_val@PAVCHostWnd@@V?$allocator@PAVCHostWnd@@@std@@@std@@IAE@V?$allocator@PAVCHostWnd@@@1@@Z ENDP ; std::_Vector_val<CHostWnd *,std::allocator<CHostWnd *> >::_Vector_val<CHostWnd *,std::allocator<CHostWnd *> >
; Function compile flags: /Odt
; File d:\program files (x86)\microsoft visual studio .net 2003\vc7\include\xmemory
_TEXT	ENDS
;	COMDAT ??0?$allocator@PAVCHostWnd@@@std@@QAE@XZ
_TEXT	SEGMENT
_this$ = -4						; size = 4
??0?$allocator@PAVCHostWnd@@@std@@QAE@XZ PROC NEAR	; std::allocator<CHostWnd *>::allocator<CHostWnd *>, COMDAT
; _this$ = ecx

; 111  : 	allocator()

  00000	55		 push	 ebp
  00001	8b ec		 mov	 ebp, esp
  00003	51		 push	 ecx
  00004	89 4d fc	 mov	 DWORD PTR _this$[ebp], ecx

; 112  : 		{	// construct default allocator (do nothing)
; 113  : 		}

  00007	8b 45 fc	 mov	 eax, DWORD PTR _this$[ebp]
  0000a	8b e5		 mov	 esp, ebp
  0000c	5d		 pop	 ebp
  0000d	c3		 ret	 0
??0?$allocator@PAVCHostWnd@@@std@@QAE@XZ ENDP		; std::allocator<CHostWnd *>::allocator<CHostWnd *>
_TEXT	ENDS
PUBLIC	?max_size@?$vector@PAVILyricPopupWndShowObserver@@V?$allocator@PAVILyricPopupWndShowObserver@@@std@@@std@@QBEIXZ ; std::vector<ILyricPopupWndShowObserver *,std::allocator<ILyricPopupWndShowObserver *> >::max_size
PUBLIC	?_Xlen@?$vector@PAVILyricPopupWndShowObserver@@V?$allocator@PAVILyricPopupWndShowObserver@@@std@@@std@@IBEXXZ ; std::vector<ILyricPopupWndShowObserver *,std::allocator<ILyricPopupWndShowObserver *> >::_Xlen
PUBLIC	?allocate@?$allocator@PAVILyricPopupWndShowObserver@@@std@@QAEPAPAVILyricPopupWndShowObserver@@I@Z ; std::allocator<ILyricPopupWndShowObserver *>::allocate
; Function compile flags: /Odt
; File d:\program files (x86)\microsoft visual studio .net 2003\vc7\include\vector
;	COMDAT ?_Buy@?$vector@PAVILyricPopupWndShowObserver@@V?$allocator@PAVILyricPopupWndShowObserver@@@std@@@std@@IAE_NI@Z
_TEXT	SEGMENT
_this$ = -4						; size = 4
__Capacity$ = 8						; size = 4
?_Buy@?$vector@PAVILyricPopupWndShowObserver@@V?$allocator@PAVILyricPopupWndShowObserver@@@std@@@std@@IAE_NI@Z PROC NEAR ; std::vector<ILyricPopupWndShowObserver *,std::allocator<ILyricPopupWndShowObserver *> >::_Buy, COMDAT
; _this$ = ecx

; 770  : 		{	// allocate array with _Capacity elements

  00000	55		 push	 ebp
  00001	8b ec		 mov	 ebp, esp
  00003	51		 push	 ecx
  00004	89 4d fc	 mov	 DWORD PTR _this$[ebp], ecx

; 771  : 		_Myfirst = 0, _Mylast = 0, _Myend = 0;

  00007	8b 45 fc	 mov	 eax, DWORD PTR _this$[ebp]
  0000a	c7 40 04 00 00
	00 00		 mov	 DWORD PTR [eax+4], 0
  00011	8b 4d fc	 mov	 ecx, DWORD PTR _this$[ebp]
  00014	c7 41 08 00 00
	00 00		 mov	 DWORD PTR [ecx+8], 0
  0001b	8b 55 fc	 mov	 edx, DWORD PTR _this$[ebp]
  0001e	c7 42 0c 00 00
	00 00		 mov	 DWORD PTR [edx+12], 0

; 772  : 		if (_Capacity == 0)

  00025	83 7d 08 00	 cmp	 DWORD PTR __Capacity$[ebp], 0
  00029	75 04		 jne	 SHORT $L200746

; 773  : 			return (false);

  0002b	32 c0		 xor	 al, al
  0002d	eb 49		 jmp	 SHORT $L200745
$L200746:

; 774  : 		else if (max_size() < _Capacity)

  0002f	8b 4d fc	 mov	 ecx, DWORD PTR _this$[ebp]
  00032	e8 00 00 00 00	 call	 ?max_size@?$vector@PAVILyricPopupWndShowObserver@@V?$allocator@PAVILyricPopupWndShowObserver@@@std@@@std@@QBEIXZ ; std::vector<ILyricPopupWndShowObserver *,std::allocator<ILyricPopupWndShowObserver *> >::max_size
  00037	3b 45 08	 cmp	 eax, DWORD PTR __Capacity$[ebp]
  0003a	73 0a		 jae	 SHORT $L200748

; 775  : 			_Xlen();	// result too long

  0003c	8b 4d fc	 mov	 ecx, DWORD PTR _this$[ebp]
  0003f	e8 00 00 00 00	 call	 ?_Xlen@?$vector@PAVILyricPopupWndShowObserver@@V?$allocator@PAVILyricPopupWndShowObserver@@@std@@@std@@IBEXXZ ; std::vector<ILyricPopupWndShowObserver *,std::allocator<ILyricPopupWndShowObserver *> >::_Xlen

; 776  : 		else

  00044	eb 30		 jmp	 SHORT $L200747
$L200748:

; 777  : 			{	// nonempty array, allocate storage
; 778  : 			_Myfirst = this->_Alval.allocate(_Capacity);

  00046	8b 45 08	 mov	 eax, DWORD PTR __Capacity$[ebp]
  00049	50		 push	 eax
  0004a	8b 4d fc	 mov	 ecx, DWORD PTR _this$[ebp]
  0004d	e8 00 00 00 00	 call	 ?allocate@?$allocator@PAVILyricPopupWndShowObserver@@@std@@QAEPAPAVILyricPopupWndShowObserver@@I@Z ; std::allocator<ILyricPopupWndShowObserver *>::allocate
  00052	8b 4d fc	 mov	 ecx, DWORD PTR _this$[ebp]
  00055	89 41 04	 mov	 DWORD PTR [ecx+4], eax

; 779  : 			_Mylast = _Myfirst;

  00058	8b 55 fc	 mov	 edx, DWORD PTR _this$[ebp]
  0005b	8b 45 fc	 mov	 eax, DWORD PTR _this$[ebp]
  0005e	8b 48 04	 mov	 ecx, DWORD PTR [eax+4]
  00061	89 4a 08	 mov	 DWORD PTR [edx+8], ecx

; 780  : 			_Myend = _Myfirst + _Capacity;

  00064	8b 55 fc	 mov	 edx, DWORD PTR _this$[ebp]
  00067	8b 42 04	 mov	 eax, DWORD PTR [edx+4]
  0006a	8b 4d 08	 mov	 ecx, DWORD PTR __Capacity$[ebp]
  0006d	8d 14 88	 lea	 edx, DWORD PTR [eax+ecx*4]
  00070	8b 45 fc	 mov	 eax, DWORD PTR _this$[ebp]
  00073	89 50 0c	 mov	 DWORD PTR [eax+12], edx
$L200747:

; 781  : 			}
; 782  : 		return (true);

  00076	b0 01		 mov	 al, 1
$L200745:

; 783  : 		}

  00078	8b e5		 mov	 esp, ebp
  0007a	5d		 pop	 ebp
  0007b	c2 04 00	 ret	 4
?_Buy@?$vector@PAVILyricPopupWndShowObserver@@V?$allocator@PAVILyricPopupWndShowObserver@@@std@@@std@@IAE_NI@Z ENDP ; std::vector<ILyricPopupWndShowObserver *,std::allocator<ILyricPopupWndShowObserver *> >::_Buy
_TEXT	ENDS
PUBLIC	?_Destroy@?$vector@PAVILyricPopupWndShowObserver@@V?$allocator@PAVILyricPopupWndShowObserver@@@std@@@std@@IAEXPAPAVILyricPopupWndShowObserver@@0@Z ; std::vector<ILyricPopupWndShowObserver *,std::allocator<ILyricPopupWndShowObserver *> >::_Destroy
PUBLIC	?deallocate@?$allocator@PAVILyricPopupWndShowObserver@@@std@@QAEXPAPAVILyricPopupWndShowObserver@@I@Z ; std::allocator<ILyricPopupWndShowObserver *>::deallocate
; Function compile flags: /Odt
;	COMDAT ?_Tidy@?$vector@PAVILyricPopupWndShowObserver@@V?$allocator@PAVILyricPopupWndShowObserver@@@std@@@std@@IAEXXZ
_TEXT	SEGMENT
_this$ = -4						; size = 4
?_Tidy@?$vector@PAVILyricPopupWndShowObserver@@V?$allocator@PAVILyricPopupWndShowObserver@@@std@@@std@@IAEXXZ PROC NEAR ; std::vector<ILyricPopupWndShowObserver *,std::allocator<ILyricPopupWndShowObserver *> >::_Tidy, COMDAT
; _this$ = ecx

; 791  : 		{	// free all storage

  00000	55		 push	 ebp
  00001	8b ec		 mov	 ebp, esp
  00003	51		 push	 ecx
  00004	89 4d fc	 mov	 DWORD PTR _this$[ebp], ecx

; 792  : 		if (_Myfirst != 0)

  00007	8b 45 fc	 mov	 eax, DWORD PTR _this$[ebp]
  0000a	83 78 04 00	 cmp	 DWORD PTR [eax+4], 0
  0000e	74 35		 je	 SHORT $L200752

; 793  : 			{	// something to free, destroy and deallocate it
; 794  : 			_Destroy(_Myfirst, _Mylast);

  00010	8b 4d fc	 mov	 ecx, DWORD PTR _this$[ebp]
  00013	8b 51 08	 mov	 edx, DWORD PTR [ecx+8]
  00016	52		 push	 edx
  00017	8b 45 fc	 mov	 eax, DWORD PTR _this$[ebp]
  0001a	8b 48 04	 mov	 ecx, DWORD PTR [eax+4]
  0001d	51		 push	 ecx
  0001e	8b 4d fc	 mov	 ecx, DWORD PTR _this$[ebp]
  00021	e8 00 00 00 00	 call	 ?_Destroy@?$vector@PAVILyricPopupWndShowObserver@@V?$allocator@PAVILyricPopupWndShowObserver@@@std@@@std@@IAEXPAPAVILyricPopupWndShowObserver@@0@Z ; std::vector<ILyricPopupWndShowObserver *,std::allocator<ILyricPopupWndShowObserver *> >::_Destroy

; 795  : 			this->_Alval.deallocate(_Myfirst, _Myend - _Myfirst);

  00026	8b 55 fc	 mov	 edx, DWORD PTR _this$[ebp]
  00029	8b 45 fc	 mov	 eax, DWORD PTR _this$[ebp]
  0002c	8b 4a 0c	 mov	 ecx, DWORD PTR [edx+12]
  0002f	2b 48 04	 sub	 ecx, DWORD PTR [eax+4]
  00032	c1 f9 02	 sar	 ecx, 2
  00035	51		 push	 ecx
  00036	8b 55 fc	 mov	 edx, DWORD PTR _this$[ebp]
  00039	8b 42 04	 mov	 eax, DWORD PTR [edx+4]
  0003c	50		 push	 eax
  0003d	8b 4d fc	 mov	 ecx, DWORD PTR _this$[ebp]
  00040	e8 00 00 00 00	 call	 ?deallocate@?$allocator@PAVILyricPopupWndShowObserver@@@std@@QAEXPAPAVILyricPopupWndShowObserver@@I@Z ; std::allocator<ILyricPopupWndShowObserver *>::deallocate
$L200752:

; 796  : 			}
; 797  : 		_Myfirst = 0, _Mylast = 0, _Myend = 0;

  00045	8b 4d fc	 mov	 ecx, DWORD PTR _this$[ebp]
  00048	c7 41 04 00 00
	00 00		 mov	 DWORD PTR [ecx+4], 0
  0004f	8b 55 fc	 mov	 edx, DWORD PTR _this$[ebp]
  00052	c7 42 08 00 00
	00 00		 mov	 DWORD PTR [edx+8], 0
  00059	8b 45 fc	 mov	 eax, DWORD PTR _this$[ebp]
  0005c	c7 40 0c 00 00
	00 00		 mov	 DWORD PTR [eax+12], 0

; 798  : 		}

  00063	8b e5		 mov	 esp, ebp
  00065	5d		 pop	 ebp
  00066	c3		 ret	 0
?_Tidy@?$vector@PAVILyricPopupWndShowObserver@@V?$allocator@PAVILyricPopupWndShowObserver@@@std@@@std@@IAEXXZ ENDP ; std::vector<ILyricPopupWndShowObserver *,std::allocator<ILyricPopupWndShowObserver *> >::_Tidy
_TEXT	ENDS
PUBLIC	??0?$allocator@PAVILyricPopupWndShowObserver@@@std@@QAE@ABV01@@Z ; std::allocator<ILyricPopupWndShowObserver *>::allocator<ILyricPopupWndShowObserver *>
; Function compile flags: /Odt
;	COMDAT ??0?$_Vector_val@PAVILyricPopupWndShowObserver@@V?$allocator@PAVILyricPopupWndShowObserver@@@std@@@std@@IAE@V?$allocator@PAVILyricPopupWndShowObserver@@@1@@Z
_TEXT	SEGMENT
_this$ = -4						; size = 4
__Al$ = 8						; size = 1
??0?$_Vector_val@PAVILyricPopupWndShowObserver@@V?$allocator@PAVILyricPopupWndShowObserver@@@std@@@std@@IAE@V?$allocator@PAVILyricPopupWndShowObserver@@@1@@Z PROC NEAR ; std::_Vector_val<ILyricPopupWndShowObserver *,std::allocator<ILyricPopupWndShowObserver *> >::_Vector_val<ILyricPopupWndShowObserver *,std::allocator<ILyricPopupWndShowObserver *> >, COMDAT
; _this$ = ecx

; 21   : 		{	// construct allocator from _Al

  00000	55		 push	 ebp
  00001	8b ec		 mov	 ebp, esp
  00003	51		 push	 ecx
  00004	89 4d fc	 mov	 DWORD PTR _this$[ebp], ecx
  00007	8d 45 08	 lea	 eax, DWORD PTR __Al$[ebp]
  0000a	50		 push	 eax
  0000b	8b 4d fc	 mov	 ecx, DWORD PTR _this$[ebp]
  0000e	e8 00 00 00 00	 call	 ??0?$allocator@PAVILyricPopupWndShowObserver@@@std@@QAE@ABV01@@Z ; std::allocator<ILyricPopupWndShowObserver *>::allocator<ILyricPopupWndShowObserver *>

; 22   : 		}

  00013	8b 45 fc	 mov	 eax, DWORD PTR _this$[ebp]
  00016	8b e5		 mov	 esp, ebp
  00018	5d		 pop	 ebp
  00019	c2 04 00	 ret	 4
??0?$_Vector_val@PAVILyricPopupWndShowObserver@@V?$allocator@PAVILyricPopupWndShowObserver@@@std@@@std@@IAE@V?$allocator@PAVILyricPopupWndShowObserver@@@1@@Z ENDP ; std::_Vector_val<ILyricPopupWndShowObserver *,std::allocator<ILyricPopupWndShowObserver *> >::_Vector_val<ILyricPopupWndShowObserver *,std::allocator<ILyricPopupWndShowObserver *> >
; Function compile flags: /Odt
; File d:\program files (x86)\microsoft visual studio .net 2003\vc7\include\xmemory
_TEXT	ENDS
;	COMDAT ??0?$allocator@PAVILyricPopupWndShowObserver@@@std@@QAE@XZ
_TEXT	SEGMENT
_this$ = -4						; size = 4
??0?$allocator@PAVILyricPopupWndShowObserver@@@std@@QAE@XZ PROC NEAR ; std::allocator<ILyricPopupWndShowObserver *>::allocator<ILyricPopupWndShowObserver *>, COMDAT
; _this$ = ecx

; 111  : 	allocator()

  00000	55		 push	 ebp
  00001	8b ec		 mov	 ebp, esp
  00003	51		 push	 ecx
  00004	89 4d fc	 mov	 DWORD PTR _this$[ebp], ecx

; 112  : 		{	// construct default allocator (do nothing)
; 113  : 		}

  00007	8b 45 fc	 mov	 eax, DWORD PTR _this$[ebp]
  0000a	8b e5		 mov	 esp, ebp
  0000c	5d		 pop	 ebp
  0000d	c3		 ret	 0
??0?$allocator@PAVILyricPopupWndShowObserver@@@std@@QAE@XZ ENDP ; std::allocator<ILyricPopupWndShowObserver *>::allocator<ILyricPopupWndShowObserver *>
_TEXT	ENDS
PUBLIC	??0iterator@?$vector@USepWindowData@@V?$allocator@USepWindowData@@@std@@@std@@QAE@PAUSepWindowData@@@Z ; std::vector<SepWindowData,std::allocator<SepWindowData> >::iterator::iterator
; Function compile flags: /Odt
; File d:\program files (x86)\microsoft visual studio .net 2003\vc7\include\vector
;	COMDAT ?begin@?$vector@USepWindowData@@V?$allocator@USepWindowData@@@std@@@std@@QAE?AViterator@12@XZ
_TEXT	SEGMENT
_this$ = -4						; size = 4
___$ReturnUdt$ = 8					; size = 4
?begin@?$vector@USepWindowData@@V?$allocator@USepWindowData@@@std@@@std@@QAE?AViterator@12@XZ PROC NEAR ; std::vector<SepWindowData,std::allocator<SepWindowData> >::begin, COMDAT
; _this$ = ecx

; 462  : 		{	// return iterator for beginning of mutable sequence

  00000	55		 push	 ebp
  00001	8b ec		 mov	 ebp, esp
  00003	51		 push	 ecx
  00004	89 4d fc	 mov	 DWORD PTR _this$[ebp], ecx

; 463  : 		return (iterator(_Myfirst));

  00007	8b 45 fc	 mov	 eax, DWORD PTR _this$[ebp]
  0000a	8b 48 04	 mov	 ecx, DWORD PTR [eax+4]
  0000d	51		 push	 ecx
  0000e	8b 4d 08	 mov	 ecx, DWORD PTR ___$ReturnUdt$[ebp]
  00011	e8 00 00 00 00	 call	 ??0iterator@?$vector@USepWindowData@@V?$allocator@USepWindowData@@@std@@@std@@QAE@PAUSepWindowData@@@Z ; std::vector<SepWindowData,std::allocator<SepWindowData> >::iterator::iterator
  00016	8b 45 08	 mov	 eax, DWORD PTR ___$ReturnUdt$[ebp]

; 464  : 		}

  00019	8b e5		 mov	 esp, ebp
  0001b	5d		 pop	 ebp
  0001c	c2 04 00	 ret	 4
?begin@?$vector@USepWindowData@@V?$allocator@USepWindowData@@@std@@@std@@QAE?AViterator@12@XZ ENDP ; std::vector<SepWindowData,std::allocator<SepWindowData> >::begin
_TEXT	ENDS
PUBLIC	??0const_iterator@?$_Tree@V?$_Tmap_traits@PAUHWND__@@UCWndData@@U?$less@PAUHWND__@@@std@@V?$allocator@U?$pair@QAUHWND__@@UCWndData@@@std@@@4@$0A@@std@@@std@@QAE@PAU_Node@?$_Tree_nod@V?$_Tmap_traits@PAUHWND__@@UCWndData@@U?$less@PAUHWND__@@@std@@V?$allocator@U?$pair@QAUHWND__@@UCWndData@@@std@@@4@$0A@@std@@@2@@Z ; std::_Tree<std::_Tmap_traits<HWND__ *,CWndData,std::less<HWND__ *>,std::allocator<std::pair<HWND__ * const,CWndData> >,0> >::const_iterator::const_iterator
; Function compile flags: /Odt
; File d:\program files (x86)\microsoft visual studio .net 2003\vc7\include\xtree
;	COMDAT ??0iterator@?$_Tree@V?$_Tmap_traits@PAUHWND__@@UCWndData@@U?$less@PAUHWND__@@@std@@V?$allocator@U?$pair@QAUHWND__@@UCWndData@@@std@@@4@$0A@@std@@@std@@QAE@PAU_Node@?$_Tree_nod@V?$_Tmap_traits@PAUHWND__@@UCWndData@@U?$less@PAUHWND__@@@std@@V?$allocator@U?$pair@QAUHWND__@@UCWndData@@@std@@@4@$0A@@std@@@2@@Z
_TEXT	SEGMENT
_this$ = -4						; size = 4
__Pnode$ = 8						; size = 4
??0iterator@?$_Tree@V?$_Tmap_traits@PAUHWND__@@UCWndData@@U?$less@PAUHWND__@@@std@@V?$allocator@U?$pair@QAUHWND__@@UCWndData@@@std@@@4@$0A@@std@@@std@@QAE@PAU_Node@?$_Tree_nod@V?$_Tmap_traits@PAUHWND__@@UCWndData@@U?$less@PAUHWND__@@@std@@V?$allocator@U?$pair@QAUHWND__@@UCWndData@@@std@@@4@$0A@@std@@@2@@Z PROC NEAR ; std::_Tree<std::_Tmap_traits<HWND__ *,CWndData,std::less<HWND__ *>,std::allocator<std::pair<HWND__ * const,CWndData> >,0> >::iterator::iterator, COMDAT
; _this$ = ecx

; 312  : 			{	// construct with node pointer _Pnode

  00000	55		 push	 ebp
  00001	8b ec		 mov	 ebp, esp
  00003	51		 push	 ecx
  00004	89 4d fc	 mov	 DWORD PTR _this$[ebp], ecx
  00007	8b 45 08	 mov	 eax, DWORD PTR __Pnode$[ebp]
  0000a	50		 push	 eax
  0000b	8b 4d fc	 mov	 ecx, DWORD PTR _this$[ebp]
  0000e	e8 00 00 00 00	 call	 ??0const_iterator@?$_Tree@V?$_Tmap_traits@PAUHWND__@@UCWndData@@U?$less@PAUHWND__@@@std@@V?$allocator@U?$pair@QAUHWND__@@UCWndData@@@std@@@4@$0A@@std@@@std@@QAE@PAU_Node@?$_Tree_nod@V?$_Tmap_traits@PAUHWND__@@UCWndData@@U?$less@PAUHWND__@@@std@@V?$allocator@U?$pair@QAUHWND__@@UCWndData@@@std@@@4@$0A@@std@@@2@@Z ; std::_Tree<std::_Tmap_traits<HWND__ *,CWndData,std::less<HWND__ *>,std::allocator<std::pair<HWND__ * const,CWndData> >,0> >::const_iterator::const_iterator

; 313  : 			}

  00013	8b 45 fc	 mov	 eax, DWORD PTR _this$[ebp]
  00016	8b e5		 mov	 esp, ebp
  00018	5d		 pop	 ebp
  00019	c2 04 00	 ret	 4
??0iterator@?$_Tree@V?$_Tmap_traits@PAUHWND__@@UCWndData@@U?$less@PAUHWND__@@@std@@V?$allocator@U?$pair@QAUHWND__@@UCWndData@@@std@@@4@$0A@@std@@@std@@QAE@PAU_Node@?$_Tree_nod@V?$_Tmap_traits@PAUHWND__@@UCWndData@@U?$less@PAUHWND__@@@std@@V?$allocator@U?$pair@QAUHWND__@@UCWndData@@@std@@@4@$0A@@std@@@2@@Z ENDP ; std::_Tree<std::_Tmap_traits<HWND__ *,CWndData,std::less<HWND__ *>,std::allocator<std::pair<HWND__ * const,CWndData> >,0> >::iterator::iterator
_TEXT	ENDS
PUBLIC	??Dconst_iterator@?$_Tree@V?$_Tmap_traits@PAUHWND__@@UCWndData@@U?$less@PAUHWND__@@@std@@V?$allocator@U?$pair@QAUHWND__@@UCWndData@@@std@@@4@$0A@@std@@@std@@QBEABU?$pair@QAUHWND__@@UCWndData@@@2@XZ ; std::_Tree<std::_Tmap_traits<HWND__ *,CWndData,std::less<HWND__ *>,std::allocator<std::pair<HWND__ * const,CWndData> >,0> >::const_iterator::operator*
; Function compile flags: /Odt
;	COMDAT ??Diterator@?$_Tree@V?$_Tmap_traits@PAUHWND__@@UCWndData@@U?$less@PAUHWND__@@@std@@V?$allocator@U?$pair@QAUHWND__@@UCWndData@@@std@@@4@$0A@@std@@@std@@QBEAAU?$pair@QAUHWND__@@UCWndData@@@2@XZ
_TEXT	SEGMENT
_this$ = -4						; size = 4
??Diterator@?$_Tree@V?$_Tmap_traits@PAUHWND__@@UCWndData@@U?$less@PAUHWND__@@@std@@V?$allocator@U?$pair@QAUHWND__@@UCWndData@@@std@@@4@$0A@@std@@@std@@QBEAAU?$pair@QAUHWND__@@UCWndData@@@2@XZ PROC NEAR ; std::_Tree<std::_Tmap_traits<HWND__ *,CWndData,std::less<HWND__ *>,std::allocator<std::pair<HWND__ * const,CWndData> >,0> >::iterator::operator*, COMDAT
; _this$ = ecx

; 316  : 			{	// return designated value

  00000	55		 push	 ebp
  00001	8b ec		 mov	 ebp, esp
  00003	51		 push	 ecx
  00004	89 4d fc	 mov	 DWORD PTR _this$[ebp], ecx

; 317  : 			return ((reference)**(const_iterator *)this);

  00007	8b 4d fc	 mov	 ecx, DWORD PTR _this$[ebp]
  0000a	e8 00 00 00 00	 call	 ??Dconst_iterator@?$_Tree@V?$_Tmap_traits@PAUHWND__@@UCWndData@@U?$less@PAUHWND__@@@std@@V?$allocator@U?$pair@QAUHWND__@@UCWndData@@@std@@@4@$0A@@std@@@std@@QBEABU?$pair@QAUHWND__@@UCWndData@@@2@XZ ; std::_Tree<std::_Tmap_traits<HWND__ *,CWndData,std::less<HWND__ *>,std::allocator<std::pair<HWND__ * const,CWndData> >,0> >::const_iterator::operator*

; 318  : 			}

  0000f	8b e5		 mov	 esp, ebp
  00011	5d		 pop	 ebp
  00012	c3		 ret	 0
??Diterator@?$_Tree@V?$_Tmap_traits@PAUHWND__@@UCWndData@@U?$less@PAUHWND__@@@std@@V?$allocator@U?$pair@QAUHWND__@@UCWndData@@@std@@@4@$0A@@std@@@std@@QBEAAU?$pair@QAUHWND__@@UCWndData@@@2@XZ ENDP ; std::_Tree<std::_Tmap_traits<HWND__ *,CWndData,std::less<HWND__ *>,std::allocator<std::pair<HWND__ * const,CWndData> >,0> >::iterator::operator*
_TEXT	ENDS
PUBLIC	??Econst_iterator@?$_Tree@V?$_Tmap_traits@PAUHWND__@@UCWndData@@U?$less@PAUHWND__@@@std@@V?$allocator@U?$pair@QAUHWND__@@UCWndData@@@std@@@4@$0A@@std@@@std@@QAEAAV012@XZ ; std::_Tree<std::_Tmap_traits<HWND__ *,CWndData,std::less<HWND__ *>,std::allocator<std::pair<HWND__ * const,CWndData> >,0> >::const_iterator::operator++
; Function compile flags: /Odt
;	COMDAT ??Eiterator@?$_Tree@V?$_Tmap_traits@PAUHWND__@@UCWndData@@U?$less@PAUHWND__@@@std@@V?$allocator@U?$pair@QAUHWND__@@UCWndData@@@std@@@4@$0A@@std@@@std@@QAEAAV012@XZ
_TEXT	SEGMENT
_this$ = -4						; size = 4
??Eiterator@?$_Tree@V?$_Tmap_traits@PAUHWND__@@UCWndData@@U?$less@PAUHWND__@@@std@@V?$allocator@U?$pair@QAUHWND__@@UCWndData@@@std@@@4@$0A@@std@@@std@@QAEAAV012@XZ PROC NEAR ; std::_Tree<std::_Tmap_traits<HWND__ *,CWndData,std::less<HWND__ *>,std::allocator<std::pair<HWND__ * const,CWndData> >,0> >::iterator::operator++, COMDAT
; _this$ = ecx

; 326  : 			{	// preincrement

  00000	55		 push	 ebp
  00001	8b ec		 mov	 ebp, esp
  00003	51		 push	 ecx
  00004	89 4d fc	 mov	 DWORD PTR _this$[ebp], ecx

; 327  : 			++(*(const_iterator *)this);

  00007	8b 4d fc	 mov	 ecx, DWORD PTR _this$[ebp]
  0000a	e8 00 00 00 00	 call	 ??Econst_iterator@?$_Tree@V?$_Tmap_traits@PAUHWND__@@UCWndData@@U?$less@PAUHWND__@@@std@@V?$allocator@U?$pair@QAUHWND__@@UCWndData@@@std@@@4@$0A@@std@@@std@@QAEAAV012@XZ ; std::_Tree<std::_Tmap_traits<HWND__ *,CWndData,std::less<HWND__ *>,std::allocator<std::pair<HWND__ * const,CWndData> >,0> >::const_iterator::operator++

; 328  : 			return (*this);

  0000f	8b 45 fc	 mov	 eax, DWORD PTR _this$[ebp]

; 329  : 			}

  00012	8b e5		 mov	 esp, ebp
  00014	5d		 pop	 ebp
  00015	c3		 ret	 0
??Eiterator@?$_Tree@V?$_Tmap_traits@PAUHWND__@@UCWndData@@U?$less@PAUHWND__@@@std@@V?$allocator@U?$pair@QAUHWND__@@UCWndData@@@std@@@4@$0A@@std@@@std@@QAEAAV012@XZ ENDP ; std::_Tree<std::_Tmap_traits<HWND__ *,CWndData,std::less<HWND__ *>,std::allocator<std::pair<HWND__ * const,CWndData> >,0> >::iterator::operator++
; Function compile flags: /Odt
_TEXT	ENDS
;	COMDAT ??8const_iterator@?$_Tree@V?$_Tmap_traits@PAUHWND__@@UCWndData@@U?$less@PAUHWND__@@@std@@V?$allocator@U?$pair@QAUHWND__@@UCWndData@@@std@@@4@$0A@@std@@@std@@QBE_NABV012@@Z
_TEXT	SEGMENT
_this$ = -4						; size = 4
__Right$ = 8						; size = 4
??8const_iterator@?$_Tree@V?$_Tmap_traits@PAUHWND__@@UCWndData@@U?$less@PAUHWND__@@@std@@V?$allocator@U?$pair@QAUHWND__@@UCWndData@@@std@@@4@$0A@@std@@@std@@QBE_NABV012@@Z PROC NEAR ; std::_Tree<std::_Tmap_traits<HWND__ *,CWndData,std::less<HWND__ *>,std::allocator<std::pair<HWND__ * const,CWndData> >,0> >::const_iterator::operator==, COMDAT
; _this$ = ecx

; 240  : 			{	// test for iterator equality

  00000	55		 push	 ebp
  00001	8b ec		 mov	 ebp, esp
  00003	51		 push	 ecx
  00004	89 4d fc	 mov	 DWORD PTR _this$[ebp], ecx

; 241  : 			return (_Ptr == _Right._Ptr);

  00007	8b 45 fc	 mov	 eax, DWORD PTR _this$[ebp]
  0000a	8b 4d 08	 mov	 ecx, DWORD PTR __Right$[ebp]
  0000d	8b 00		 mov	 eax, DWORD PTR [eax]
  0000f	2b 01		 sub	 eax, DWORD PTR [ecx]
  00011	f7 d8		 neg	 eax
  00013	1b c0		 sbb	 eax, eax
  00015	40		 inc	 eax

; 242  : 			}

  00016	8b e5		 mov	 esp, ebp
  00018	5d		 pop	 ebp
  00019	c2 04 00	 ret	 4
??8const_iterator@?$_Tree@V?$_Tmap_traits@PAUHWND__@@UCWndData@@U?$less@PAUHWND__@@@std@@V?$allocator@U?$pair@QAUHWND__@@UCWndData@@@std@@@4@$0A@@std@@@std@@QBE_NABV012@@Z ENDP ; std::_Tree<std::_Tmap_traits<HWND__ *,CWndData,std::less<HWND__ *>,std::allocator<std::pair<HWND__ * const,CWndData> >,0> >::const_iterator::operator==
; Function compile flags: /Odt
_TEXT	ENDS
;	COMDAT ?_Mynode@const_iterator@?$_Tree@V?$_Tmap_traits@PAUHWND__@@UCWndData@@U?$less@PAUHWND__@@@std@@V?$allocator@U?$pair@QAUHWND__@@UCWndData@@@std@@@4@$0A@@std@@@std@@QBEPAU_Node@?$_Tree_nod@V?$_Tmap_traits@PAUHWND__@@UCWndData@@U?$less@PAUHWND__@@@std@@V?$allocator@U?$pair@QAUHWND__@@UCWndData@@@std@@@4@$0A@@std@@@3@XZ
_TEXT	SEGMENT
_this$ = -4						; size = 4
?_Mynode@const_iterator@?$_Tree@V?$_Tmap_traits@PAUHWND__@@UCWndData@@U?$less@PAUHWND__@@@std@@V?$allocator@U?$pair@QAUHWND__@@UCWndData@@@std@@@4@$0A@@std@@@std@@QBEPAU_Node@?$_Tree_nod@V?$_Tmap_traits@PAUHWND__@@UCWndData@@U?$less@PAUHWND__@@@std@@V?$allocator@U?$pair@QAUHWND__@@UCWndData@@@std@@@4@$0A@@std@@@3@XZ PROC NEAR ; std::_Tree<std::_Tmap_traits<HWND__ *,CWndData,std::less<HWND__ *>,std::allocator<std::pair<HWND__ * const,CWndData> >,0> >::const_iterator::_Mynode, COMDAT
; _this$ = ecx

; 283  : 			{	// return node pointer

  00000	55		 push	 ebp
  00001	8b ec		 mov	 ebp, esp
  00003	51		 push	 ecx
  00004	89 4d fc	 mov	 DWORD PTR _this$[ebp], ecx

; 284  : 			return (_Ptr);

  00007	8b 45 fc	 mov	 eax, DWORD PTR _this$[ebp]
  0000a	8b 00		 mov	 eax, DWORD PTR [eax]

; 285  : 			}

  0000c	8b e5		 mov	 esp, ebp
  0000e	5d		 pop	 ebp
  0000f	c3		 ret	 0
?_Mynode@const_iterator@?$_Tree@V?$_Tmap_traits@PAUHWND__@@UCWndData@@U?$less@PAUHWND__@@@std@@V?$allocator@U?$pair@QAUHWND__@@UCWndData@@@std@@@4@$0A@@std@@@std@@QBEPAU_Node@?$_Tree_nod@V?$_Tmap_traits@PAUHWND__@@UCWndData@@U?$less@PAUHWND__@@@std@@V?$allocator@U?$pair@QAUHWND__@@UCWndData@@@std@@@4@$0A@@std@@@3@XZ ENDP ; std::_Tree<std::_Tmap_traits<HWND__ *,CWndData,std::less<HWND__ *>,std::allocator<std::pair<HWND__ * const,CWndData> >,0> >::const_iterator::_Mynode
; Function compile flags: /Odt
; File d:\program files (x86)\microsoft visual studio .net 2003\vc7\include\utility
_TEXT	ENDS
;	COMDAT ??0?$pair@QAUHWND__@@UCWndData@@@std@@QAE@ABQAUHWND__@@ABUCWndData@@@Z
_TEXT	SEGMENT
_this$ = -4						; size = 4
__Val1$ = 8						; size = 4
__Val2$ = 12						; size = 4
??0?$pair@QAUHWND__@@UCWndData@@@std@@QAE@ABQAUHWND__@@ABUCWndData@@@Z PROC NEAR ; std::pair<HWND__ * const,CWndData>::pair<HWND__ * const,CWndData>, COMDAT
; _this$ = ecx

; 34   : 		{	// construct from specified values

  00000	55		 push	 ebp
  00001	8b ec		 mov	 ebp, esp
  00003	51		 push	 ecx
  00004	89 4d fc	 mov	 DWORD PTR _this$[ebp], ecx
  00007	8b 45 fc	 mov	 eax, DWORD PTR _this$[ebp]
  0000a	8b 4d 08	 mov	 ecx, DWORD PTR __Val1$[ebp]
  0000d	8b 11		 mov	 edx, DWORD PTR [ecx]
  0000f	89 10		 mov	 DWORD PTR [eax], edx
  00011	8b 45 0c	 mov	 eax, DWORD PTR __Val2$[ebp]
  00014	8b 08		 mov	 ecx, DWORD PTR [eax]
  00016	8b 50 04	 mov	 edx, DWORD PTR [eax+4]
  00019	8b 45 fc	 mov	 eax, DWORD PTR _this$[ebp]
  0001c	89 48 04	 mov	 DWORD PTR [eax+4], ecx
  0001f	89 50 08	 mov	 DWORD PTR [eax+8], edx

; 35   : 		}

  00022	8b 45 fc	 mov	 eax, DWORD PTR _this$[ebp]
  00025	8b e5		 mov	 esp, ebp
  00027	5d		 pop	 ebp
  00028	c2 08 00	 ret	 8
??0?$pair@QAUHWND__@@UCWndData@@@std@@QAE@ABQAUHWND__@@ABUCWndData@@@Z ENDP ; std::pair<HWND__ * const,CWndData>::pair<HWND__ * const,CWndData>
_TEXT	ENDS
PUBLIC	??Dconst_iterator@?$vector@PAVCHostWnd@@V?$allocator@PAVCHostWnd@@@std@@@std@@QBEABQAVCHostWnd@@XZ ; std::vector<CHostWnd *,std::allocator<CHostWnd *> >::const_iterator::operator*
; Function compile flags: /Odt
; File d:\program files (x86)\microsoft visual studio .net 2003\vc7\include\vector
;	COMDAT ??Diterator@?$vector@PAVCHostWnd@@V?$allocator@PAVCHostWnd@@@std@@@std@@QBEAAPAVCHostWnd@@XZ
_TEXT	SEGMENT
_this$ = -4						; size = 4
??Diterator@?$vector@PAVCHostWnd@@V?$allocator@PAVCHostWnd@@@std@@@std@@QBEAAPAVCHostWnd@@XZ PROC NEAR ; std::vector<CHostWnd *,std::allocator<CHostWnd *> >::iterator::operator*, COMDAT
; _this$ = ecx

; 219  : 			{	// return designated object

  00000	55		 push	 ebp
  00001	8b ec		 mov	 ebp, esp
  00003	51		 push	 ecx
  00004	89 4d fc	 mov	 DWORD PTR _this$[ebp], ecx

; 220  : 			return ((reference)**(const_iterator *)this);

  00007	8b 4d fc	 mov	 ecx, DWORD PTR _this$[ebp]
  0000a	e8 00 00 00 00	 call	 ??Dconst_iterator@?$vector@PAVCHostWnd@@V?$allocator@PAVCHostWnd@@@std@@@std@@QBEABQAVCHostWnd@@XZ ; std::vector<CHostWnd *,std::allocator<CHostWnd *> >::const_iterator::operator*

; 221  : 			}

  0000f	8b e5		 mov	 esp, ebp
  00011	5d		 pop	 ebp
  00012	c3		 ret	 0
??Diterator@?$vector@PAVCHostWnd@@V?$allocator@PAVCHostWnd@@@std@@@std@@QBEAAPAVCHostWnd@@XZ ENDP ; std::vector<CHostWnd *,std::allocator<CHostWnd *> >::iterator::operator*
_TEXT	ENDS
PUBLIC	??Yiterator@?$vector@PAVCHostWnd@@V?$allocator@PAVCHostWnd@@@std@@@std@@QAEAAV012@H@Z ; std::vector<CHostWnd *,std::allocator<CHostWnd *> >::iterator::operator+=
; Function compile flags: /Odt
;	COMDAT ??Hiterator@?$vector@PAVCHostWnd@@V?$allocator@PAVCHostWnd@@@std@@@std@@QBE?AV012@H@Z
_TEXT	SEGMENT
_this$ = -8						; size = 4
__Tmp$ = -4						; size = 4
___$ReturnUdt$ = 8					; size = 4
__Off$ = 12						; size = 4
??Hiterator@?$vector@PAVCHostWnd@@V?$allocator@PAVCHostWnd@@@std@@@std@@QBE?AV012@H@Z PROC NEAR ; std::vector<CHostWnd *,std::allocator<CHostWnd *> >::iterator::operator+, COMDAT
; _this$ = ecx

; 261  : 			{	// return this + integer

  00000	55		 push	 ebp
  00001	8b ec		 mov	 ebp, esp
  00003	83 ec 08	 sub	 esp, 8
  00006	89 4d f8	 mov	 DWORD PTR _this$[ebp], ecx

; 262  : 			iterator _Tmp = *this;

  00009	8b 45 f8	 mov	 eax, DWORD PTR _this$[ebp]
  0000c	8b 08		 mov	 ecx, DWORD PTR [eax]
  0000e	89 4d fc	 mov	 DWORD PTR __Tmp$[ebp], ecx

; 263  : 			return (_Tmp += _Off);

  00011	8b 55 0c	 mov	 edx, DWORD PTR __Off$[ebp]
  00014	52		 push	 edx
  00015	8d 4d fc	 lea	 ecx, DWORD PTR __Tmp$[ebp]
  00018	e8 00 00 00 00	 call	 ??Yiterator@?$vector@PAVCHostWnd@@V?$allocator@PAVCHostWnd@@@std@@@std@@QAEAAV012@H@Z ; std::vector<CHostWnd *,std::allocator<CHostWnd *> >::iterator::operator+=
  0001d	8b 00		 mov	 eax, DWORD PTR [eax]
  0001f	8b 4d 08	 mov	 ecx, DWORD PTR ___$ReturnUdt$[ebp]
  00022	89 01		 mov	 DWORD PTR [ecx], eax
  00024	8b 45 08	 mov	 eax, DWORD PTR ___$ReturnUdt$[ebp]

; 264  : 			}

  00027	8b e5		 mov	 esp, ebp
  00029	5d		 pop	 ebp
  0002a	c2 08 00	 ret	 8
??Hiterator@?$vector@PAVCHostWnd@@V?$allocator@PAVCHostWnd@@@std@@@std@@QBE?AV012@H@Z ENDP ; std::vector<CHostWnd *,std::allocator<CHostWnd *> >::iterator::operator+
_TEXT	ENDS
PUBLIC	??Dconst_iterator@?$vector@USepWindowData@@V?$allocator@USepWindowData@@@std@@@std@@QBEABUSepWindowData@@XZ ; std::vector<SepWindowData,std::allocator<SepWindowData> >::const_iterator::operator*
; Function compile flags: /Odt
;	COMDAT ??Diterator@?$vector@USepWindowData@@V?$allocator@USepWindowData@@@std@@@std@@QBEAAUSepWindowData@@XZ
_TEXT	SEGMENT
_this$ = -4						; size = 4
??Diterator@?$vector@USepWindowData@@V?$allocator@USepWindowData@@@std@@@std@@QBEAAUSepWindowData@@XZ PROC NEAR ; std::vector<SepWindowData,std::allocator<SepWindowData> >::iterator::operator*, COMDAT
; _this$ = ecx

; 219  : 			{	// return designated object

  00000	55		 push	 ebp
  00001	8b ec		 mov	 ebp, esp
  00003	51		 push	 ecx
  00004	89 4d fc	 mov	 DWORD PTR _this$[ebp], ecx

; 220  : 			return ((reference)**(const_iterator *)this);

  00007	8b 4d fc	 mov	 ecx, DWORD PTR _this$[ebp]
  0000a	e8 00 00 00 00	 call	 ??Dconst_iterator@?$vector@USepWindowData@@V?$allocator@USepWindowData@@@std@@@std@@QBEABUSepWindowData@@XZ ; std::vector<SepWindowData,std::allocator<SepWindowData> >::const_iterator::operator*

; 221  : 			}

  0000f	8b e5		 mov	 esp, ebp
  00011	5d		 pop	 ebp
  00012	c3		 ret	 0
??Diterator@?$vector@USepWindowData@@V?$allocator@USepWindowData@@@std@@@std@@QBEAAUSepWindowData@@XZ ENDP ; std::vector<SepWindowData,std::allocator<SepWindowData> >::iterator::operator*
_TEXT	ENDS
PUBLIC	??Yiterator@?$vector@USepWindowData@@V?$allocator@USepWindowData@@@std@@@std@@QAEAAV012@H@Z ; std::vector<SepWindowData,std::allocator<SepWindowData> >::iterator::operator+=
; Function compile flags: /Odt
;	COMDAT ??Hiterator@?$vector@USepWindowData@@V?$allocator@USepWindowData@@@std@@@std@@QBE?AV012@H@Z
_TEXT	SEGMENT
_this$ = -8						; size = 4
__Tmp$ = -4						; size = 4
___$ReturnUdt$ = 8					; size = 4
__Off$ = 12						; size = 4
??Hiterator@?$vector@USepWindowData@@V?$allocator@USepWindowData@@@std@@@std@@QBE?AV012@H@Z PROC NEAR ; std::vector<SepWindowData,std::allocator<SepWindowData> >::iterator::operator+, COMDAT
; _this$ = ecx

; 261  : 			{	// return this + integer

  00000	55		 push	 ebp
  00001	8b ec		 mov	 ebp, esp
  00003	83 ec 08	 sub	 esp, 8
  00006	89 4d f8	 mov	 DWORD PTR _this$[ebp], ecx

; 262  : 			iterator _Tmp = *this;

  00009	8b 45 f8	 mov	 eax, DWORD PTR _this$[ebp]
  0000c	8b 08		 mov	 ecx, DWORD PTR [eax]
  0000e	89 4d fc	 mov	 DWORD PTR __Tmp$[ebp], ecx

; 263  : 			return (_Tmp += _Off);

  00011	8b 55 0c	 mov	 edx, DWORD PTR __Off$[ebp]
  00014	52		 push	 edx
  00015	8d 4d fc	 lea	 ecx, DWORD PTR __Tmp$[ebp]
  00018	e8 00 00 00 00	 call	 ??Yiterator@?$vector@USepWindowData@@V?$allocator@USepWindowData@@@std@@@std@@QAEAAV012@H@Z ; std::vector<SepWindowData,std::allocator<SepWindowData> >::iterator::operator+=
  0001d	8b 00		 mov	 eax, DWORD PTR [eax]
  0001f	8b 4d 08	 mov	 ecx, DWORD PTR ___$ReturnUdt$[ebp]
  00022	89 01		 mov	 DWORD PTR [ecx], eax
  00024	8b 45 08	 mov	 eax, DWORD PTR ___$ReturnUdt$[ebp]

; 264  : 			}

  00027	8b e5		 mov	 esp, ebp
  00029	5d		 pop	 ebp
  0002a	c2 08 00	 ret	 8
??Hiterator@?$vector@USepWindowData@@V?$allocator@USepWindowData@@@std@@@std@@QBE?AV012@H@Z ENDP ; std::vector<SepWindowData,std::allocator<SepWindowData> >::iterator::operator+
; Function compile flags: /Odt
; File d:\program files (x86)\microsoft visual studio .net 2003\vc7\include\xtree
_TEXT	ENDS
;	COMDAT ?_Isnil@?$_Tree@V?$_Tmap_traits@PAUHWND__@@UCWndData@@U?$less@PAUHWND__@@@std@@V?$allocator@U?$pair@QAUHWND__@@UCWndData@@@std@@@4@$0A@@std@@@std@@KAAADPAU_Node@?$_Tree_nod@V?$_Tmap_traits@PAUHWND__@@UCWndData@@U?$less@PAUHWND__@@@std@@V?$allocator@U?$pair@QAUHWND__@@UCWndData@@@std@@@4@$0A@@std@@@2@@Z
_TEXT	SEGMENT
__Pnode$ = 8						; size = 4
?_Isnil@?$_Tree@V?$_Tmap_traits@PAUHWND__@@UCWndData@@U?$less@PAUHWND__@@@std@@V?$allocator@U?$pair@QAUHWND__@@UCWndData@@@std@@@4@$0A@@std@@@std@@KAAADPAU_Node@?$_Tree_nod@V?$_Tmap_traits@PAUHWND__@@UCWndData@@U?$less@PAUHWND__@@@std@@V?$allocator@U?$pair@QAUHWND__@@UCWndData@@@std@@@4@$0A@@std@@@2@@Z PROC NEAR ; std::_Tree<std::_Tmap_traits<HWND__ *,CWndData,std::less<HWND__ *>,std::allocator<std::pair<HWND__ * const,CWndData> >,0> >::_Isnil, COMDAT

; 136  : 		{	// return reference to nil flag in node

  00000	55		 push	 ebp
  00001	8b ec		 mov	 ebp, esp

; 137  : 		return ((_Charref)(*_Pnode)._Isnil);

  00003	8b 45 08	 mov	 eax, DWORD PTR __Pnode$[ebp]
  00006	83 c0 19	 add	 eax, 25			; 00000019H

; 138  : 		}

  00009	5d		 pop	 ebp
  0000a	c3		 ret	 0
?_Isnil@?$_Tree@V?$_Tmap_traits@PAUHWND__@@UCWndData@@U?$less@PAUHWND__@@@std@@V?$allocator@U?$pair@QAUHWND__@@UCWndData@@@std@@@4@$0A@@std@@@std@@KAAADPAU_Node@?$_Tree_nod@V?$_Tmap_traits@PAUHWND__@@UCWndData@@U?$less@PAUHWND__@@@std@@V?$allocator@U?$pair@QAUHWND__@@UCWndData@@@std@@@4@$0A@@std@@@2@@Z ENDP ; std::_Tree<std::_Tmap_traits<HWND__ *,CWndData,std::less<HWND__ *>,std::allocator<std::pair<HWND__ * const,CWndData> >,0> >::_Isnil
; Function compile flags: /Odt
_TEXT	ENDS
;	COMDAT ?_Left@?$_Tree@V?$_Tmap_traits@PAUHWND__@@UCWndData@@U?$less@PAUHWND__@@@std@@V?$allocator@U?$pair@QAUHWND__@@UCWndData@@@std@@@4@$0A@@std@@@std@@KAAAPAU_Node@?$_Tree_nod@V?$_Tmap_traits@PAUHWND__@@UCWndData@@U?$less@PAUHWND__@@@std@@V?$allocator@U?$pair@QAUHWND__@@UCWndData@@@std@@@4@$0A@@std@@@2@PAU342@@Z
_TEXT	SEGMENT
__Pnode$ = 8						; size = 4
?_Left@?$_Tree@V?$_Tmap_traits@PAUHWND__@@UCWndData@@U?$less@PAUHWND__@@@std@@V?$allocator@U?$pair@QAUHWND__@@UCWndData@@@std@@@4@$0A@@std@@@std@@KAAAPAU_Node@?$_Tree_nod@V?$_Tmap_traits@PAUHWND__@@UCWndData@@U?$less@PAUHWND__@@@std@@V?$allocator@U?$pair@QAUHWND__@@UCWndData@@@std@@@4@$0A@@std@@@2@PAU342@@Z PROC NEAR ; std::_Tree<std::_Tmap_traits<HWND__ *,CWndData,std::less<HWND__ *>,std::allocator<std::pair<HWND__ * const,CWndData> >,0> >::_Left, COMDAT

; 146  : 		{	// return reference to left pointer in node

  00000	55		 push	 ebp
  00001	8b ec		 mov	 ebp, esp

; 147  : 		return ((_Nodepref)(*_Pnode)._Left);

  00003	8b 45 08	 mov	 eax, DWORD PTR __Pnode$[ebp]

; 148  : 		}

  00006	5d		 pop	 ebp
  00007	c3		 ret	 0
?_Left@?$_Tree@V?$_Tmap_traits@PAUHWND__@@UCWndData@@U?$less@PAUHWND__@@@std@@V?$allocator@U?$pair@QAUHWND__@@UCWndData@@@std@@@4@$0A@@std@@@std@@KAAAPAU_Node@?$_Tree_nod@V?$_Tmap_traits@PAUHWND__@@UCWndData@@U?$less@PAUHWND__@@@std@@V?$allocator@U?$pair@QAUHWND__@@UCWndData@@@std@@@4@$0A@@std@@@2@PAU342@@Z ENDP ; std::_Tree<std::_Tmap_traits<HWND__ *,CWndData,std::less<HWND__ *>,std::allocator<std::pair<HWND__ * const,CWndData> >,0> >::_Left
; Function compile flags: /Odt
_TEXT	ENDS
;	COMDAT ?_Parent@?$_Tree@V?$_Tmap_traits@PAUHWND__@@UCWndData@@U?$less@PAUHWND__@@@std@@V?$allocator@U?$pair@QAUHWND__@@UCWndData@@@std@@@4@$0A@@std@@@std@@KAAAPAU_Node@?$_Tree_nod@V?$_Tmap_traits@PAUHWND__@@UCWndData@@U?$less@PAUHWND__@@@std@@V?$allocator@U?$pair@QAUHWND__@@UCWndData@@@std@@@4@$0A@@std@@@2@PAU342@@Z
_TEXT	SEGMENT
__Pnode$ = 8						; size = 4
?_Parent@?$_Tree@V?$_Tmap_traits@PAUHWND__@@UCWndData@@U?$less@PAUHWND__@@@std@@V?$allocator@U?$pair@QAUHWND__@@UCWndData@@@std@@@4@$0A@@std@@@std@@KAAAPAU_Node@?$_Tree_nod@V?$_Tmap_traits@PAUHWND__@@UCWndData@@U?$less@PAUHWND__@@@std@@V?$allocator@U?$pair@QAUHWND__@@UCWndData@@@std@@@4@$0A@@std@@@2@PAU342@@Z PROC NEAR ; std::_Tree<std::_Tmap_traits<HWND__ *,CWndData,std::less<HWND__ *>,std::allocator<std::pair<HWND__ * const,CWndData> >,0> >::_Parent, COMDAT

; 151  : 		{	// return reference to parent pointer in node

  00000	55		 push	 ebp
  00001	8b ec		 mov	 ebp, esp

; 152  : 		return ((_Nodepref)(*_Pnode)._Parent);

  00003	8b 45 08	 mov	 eax, DWORD PTR __Pnode$[ebp]
  00006	83 c0 04	 add	 eax, 4

; 153  : 		}

  00009	5d		 pop	 ebp
  0000a	c3		 ret	 0
?_Parent@?$_Tree@V?$_Tmap_traits@PAUHWND__@@UCWndData@@U?$less@PAUHWND__@@@std@@V?$allocator@U?$pair@QAUHWND__@@UCWndData@@@std@@@4@$0A@@std@@@std@@KAAAPAU_Node@?$_Tree_nod@V?$_Tmap_traits@PAUHWND__@@UCWndData@@U?$less@PAUHWND__@@@std@@V?$allocator@U?$pair@QAUHWND__@@UCWndData@@@std@@@4@$0A@@std@@@2@PAU342@@Z ENDP ; std::_Tree<std::_Tmap_traits<HWND__ *,CWndData,std::less<HWND__ *>,std::allocator<std::pair<HWND__ * const,CWndData> >,0> >::_Parent
; Function compile flags: /Odt
_TEXT	ENDS
;	COMDAT ?_Right@?$_Tree@V?$_Tmap_traits@PAUHWND__@@UCWndData@@U?$less@PAUHWND__@@@std@@V?$allocator@U?$pair@QAUHWND__@@UCWndData@@@std@@@4@$0A@@std@@@std@@KAAAPAU_Node@?$_Tree_nod@V?$_Tmap_traits@PAUHWND__@@UCWndData@@U?$less@PAUHWND__@@@std@@V?$allocator@U?$pair@QAUHWND__@@UCWndData@@@std@@@4@$0A@@std@@@2@PAU342@@Z
_TEXT	SEGMENT
__Pnode$ = 8						; size = 4
?_Right@?$_Tree@V?$_Tmap_traits@PAUHWND__@@UCWndData@@U?$less@PAUHWND__@@@std@@V?$allocator@U?$pair@QAUHWND__@@UCWndData@@@std@@@4@$0A@@std@@@std@@KAAAPAU_Node@?$_Tree_nod@V?$_Tmap_traits@PAUHWND__@@UCWndData@@U?$less@PAUHWND__@@@std@@V?$allocator@U?$pair@QAUHWND__@@UCWndData@@@std@@@4@$0A@@std@@@2@PAU342@@Z PROC NEAR ; std::_Tree<std::_Tmap_traits<HWND__ *,CWndData,std::less<HWND__ *>,std::allocator<std::pair<HWND__ * const,CWndData> >,0> >::_Right, COMDAT

; 156  : 		{	// return reference to right pointer in node

  00000	55		 push	 ebp
  00001	8b ec		 mov	 ebp, esp

; 157  : 		return ((_Nodepref)(*_Pnode)._Right);

  00003	8b 45 08	 mov	 eax, DWORD PTR __Pnode$[ebp]
  00006	83 c0 08	 add	 eax, 8

; 158  : 		}

  00009	5d		 pop	 ebp
  0000a	c3		 ret	 0
?_Right@?$_Tree@V?$_Tmap_traits@PAUHWND__@@UCWndData@@U?$less@PAUHWND__@@@std@@V?$allocator@U?$pair@QAUHWND__@@UCWndData@@@std@@@4@$0A@@std@@@std@@KAAAPAU_Node@?$_Tree_nod@V?$_Tmap_traits@PAUHWND__@@UCWndData@@U?$less@PAUHWND__@@@std@@V?$allocator@U?$pair@QAUHWND__@@UCWndData@@@std@@@4@$0A@@std@@@2@PAU342@@Z ENDP ; std::_Tree<std::_Tmap_traits<HWND__ *,CWndData,std::less<HWND__ *>,std::allocator<std::pair<HWND__ * const,CWndData> >,0> >::_Right
; Function compile flags: /Odt
_TEXT	ENDS
;	COMDAT ?_Myval@?$_Tree@V?$_Tmap_traits@PAUHWND__@@UCWndData@@U?$less@PAUHWND__@@@std@@V?$allocator@U?$pair@QAUHWND__@@UCWndData@@@std@@@4@$0A@@std@@@std@@KAAAU?$pair@QAUHWND__@@UCWndData@@@2@PAU_Node@?$_Tree_nod@V?$_Tmap_traits@PAUHWND__@@UCWndData@@U?$less@PAUHWND__@@@std@@V?$allocator@U?$pair@QAUHWND__@@UCWndData@@@std@@@4@$0A@@std@@@2@@Z
_TEXT	SEGMENT
__Pnode$ = 8						; size = 4
?_Myval@?$_Tree@V?$_Tmap_traits@PAUHWND__@@UCWndData@@U?$less@PAUHWND__@@@std@@V?$allocator@U?$pair@QAUHWND__@@UCWndData@@@std@@@4@$0A@@std@@@std@@KAAAU?$pair@QAUHWND__@@UCWndData@@@2@PAU_Node@?$_Tree_nod@V?$_Tmap_traits@PAUHWND__@@UCWndData@@U?$less@PAUHWND__@@@std@@V?$allocator@U?$pair@QAUHWND__@@UCWndData@@@std@@@4@$0A@@std@@@2@@Z PROC NEAR ; std::_Tree<std::_Tmap_traits<HWND__ *,CWndData,std::less<HWND__ *>,std::allocator<std::pair<HWND__ * const,CWndData> >,0> >::_Myval, COMDAT

; 161  : 		{	// return reference to value in node

  00000	55		 push	 ebp
  00001	8b ec		 mov	 ebp, esp

; 162  : 		return ((_Vref)(*_Pnode)._Myval);

  00003	8b 45 08	 mov	 eax, DWORD PTR __Pnode$[ebp]
  00006	83 c0 0c	 add	 eax, 12			; 0000000cH

; 163  : 		}

  00009	5d		 pop	 ebp
  0000a	c3		 ret	 0
?_Myval@?$_Tree@V?$_Tmap_traits@PAUHWND__@@UCWndData@@U?$less@PAUHWND__@@@std@@V?$allocator@U?$pair@QAUHWND__@@UCWndData@@@std@@@4@$0A@@std@@@std@@KAAAU?$pair@QAUHWND__@@UCWndData@@@2@PAU_Node@?$_Tree_nod@V?$_Tmap_traits@PAUHWND__@@UCWndData@@U?$less@PAUHWND__@@@std@@V?$allocator@U?$pair@QAUHWND__@@UCWndData@@@std@@@4@$0A@@std@@@2@@Z ENDP ; std::_Tree<std::_Tmap_traits<HWND__ *,CWndData,std::less<HWND__ *>,std::allocator<std::pair<HWND__ * const,CWndData> >,0> >::_Myval
; Function compile flags: /Odt
_TEXT	ENDS
;	COMDAT ?size@?$_Tree@V?$_Tmap_traits@PAUHWND__@@UCWndData@@U?$less@PAUHWND__@@@std@@V?$allocator@U?$pair@QAUHWND__@@UCWndData@@@std@@@4@$0A@@std@@@std@@QBEIXZ
_TEXT	SEGMENT
_this$ = -4						; size = 4
?size@?$_Tree@V?$_Tmap_traits@PAUHWND__@@UCWndData@@U?$less@PAUHWND__@@@std@@V?$allocator@U?$pair@QAUHWND__@@UCWndData@@@std@@@4@$0A@@std@@@std@@QBEIXZ PROC NEAR ; std::_Tree<std::_Tmap_traits<HWND__ *,CWndData,std::less<HWND__ *>,std::allocator<std::pair<HWND__ * const,CWndData> >,0> >::size, COMDAT
; _this$ = ecx

; 447  : 		{	// return length of sequence

  00000	55		 push	 ebp
  00001	8b ec		 mov	 ebp, esp
  00003	51		 push	 ecx
  00004	89 4d fc	 mov	 DWORD PTR _this$[ebp], ecx

; 448  : 		return (_Mysize);

  00007	8b 45 fc	 mov	 eax, DWORD PTR _this$[ebp]
  0000a	8b 40 08	 mov	 eax, DWORD PTR [eax+8]

; 449  : 		}

  0000d	8b e5		 mov	 esp, ebp
  0000f	5d		 pop	 ebp
  00010	c3		 ret	 0
?size@?$_Tree@V?$_Tmap_traits@PAUHWND__@@UCWndData@@U?$less@PAUHWND__@@@std@@V?$allocator@U?$pair@QAUHWND__@@UCWndData@@@std@@@4@$0A@@std@@@std@@QBEIXZ ENDP ; std::_Tree<std::_Tmap_traits<HWND__ *,CWndData,std::less<HWND__ *>,std::allocator<std::pair<HWND__ * const,CWndData> >,0> >::size
_TEXT	ENDS
PUBLIC	?_Root@?$_Tree@V?$_Tmap_traits@PAUHWND__@@UCWndData@@U?$less@PAUHWND__@@@std@@V?$allocator@U?$pair@QAUHWND__@@UCWndData@@@std@@@4@$0A@@std@@@std@@IAEAAPAU_Node@?$_Tree_nod@V?$_Tmap_traits@PAUHWND__@@UCWndData@@U?$less@PAUHWND__@@@std@@V?$allocator@U?$pair@QAUHWND__@@UCWndData@@@std@@@4@$0A@@std@@@2@XZ ; std::_Tree<std::_Tmap_traits<HWND__ *,CWndData,std::less<HWND__ *>,std::allocator<std::pair<HWND__ * const,CWndData> >,0> >::_Root
PUBLIC	??0?$pair@Viterator@?$_Tree@V?$_Tmap_traits@PAUHWND__@@UCWndData@@U?$less@PAUHWND__@@@std@@V?$allocator@U?$pair@QAUHWND__@@UCWndData@@@std@@@4@$0A@@std@@@std@@_N@std@@QAE@ABViterator@?$_Tree@V?$_Tmap_traits@PAUHWND__@@UCWndData@@U?$less@PAUHWND__@@@std@@V?$allocator@U?$pair@QAUHWND__@@UCWndData@@@std@@@4@$0A@@std@@@1@AB_N@Z ; std::pair<std::_Tree<std::_Tmap_traits<HWND__ *,CWndData,std::less<HWND__ *>,std::allocator<std::pair<HWND__ * const,CWndData> >,0> >::iterator,bool>::pair<std::_Tree<std::_Tmap_traits<HWND__ *,CWndData,std::less<HWND__ *>,std::allocator<std::pair<HWND__ * const,CWndData> >,0> >::iterator,bool>
; Function compile flags: /Odt
;	COMDAT ?insert@?$_Tree@V?$_Tmap_traits@PAUHWND__@@UCWndData@@U?$less@PAUHWND__@@@std@@V?$allocator@U?$pair@QAUHWND__@@UCWndData@@@std@@@4@$0A@@std@@@std@@QAE?AU?$pair@Viterator@?$_Tree@V?$_Tmap_traits@PAUHWND__@@UCWndData@@U?$less@PAUHWND__@@@std@@V?$allocator@U?$pair@QAUHWND__@@UCWndData@@@std@@@4@$0A@@std@@@std@@_N@2@ABU?$pair@QAUHWND__@@UCWndData@@@2@@Z
_TEXT	SEGMENT
tv85 = -56						; size = 4
_this$ = -52						; size = 4
$T202773 = -45						; size = 1
$T202772 = -44						; size = 4
$T202771 = -37						; size = 1
$T202770 = -36						; size = 4
$T202769 = -29						; size = 1
$T202768 = -28						; size = 4
$T202767 = -24						; size = 4
$T202766 = -17						; size = 1
__Where$200889 = -16					; size = 4
__Trynode$ = -12					; size = 4
__Wherenode$ = -8					; size = 4
__Addleft$ = -1						; size = 1
___$ReturnUdt$ = 8					; size = 4
__Val$ = 12						; size = 4
?insert@?$_Tree@V?$_Tmap_traits@PAUHWND__@@UCWndData@@U?$less@PAUHWND__@@@std@@V?$allocator@U?$pair@QAUHWND__@@UCWndData@@@std@@@4@$0A@@std@@@std@@QAE?AU?$pair@Viterator@?$_Tree@V?$_Tmap_traits@PAUHWND__@@UCWndData@@U?$less@PAUHWND__@@@std@@V?$allocator@U?$pair@QAUHWND__@@UCWndData@@@std@@@4@$0A@@std@@@std@@_N@2@ABU?$pair@QAUHWND__@@UCWndData@@@2@@Z PROC NEAR ; std::_Tree<std::_Tmap_traits<HWND__ *,CWndData,std::less<HWND__ *>,std::allocator<std::pair<HWND__ * const,CWndData> >,0> >::insert, COMDAT
; _this$ = ecx

; 477  : 		{	// try to insert node with value _Val

  00000	55		 push	 ebp
  00001	8b ec		 mov	 ebp, esp
  00003	83 ec 38	 sub	 esp, 56			; 00000038H
  00006	89 4d cc	 mov	 DWORD PTR _this$[ebp], ecx

; 478  : 		_Nodeptr _Trynode = _Root();

  00009	8b 4d cc	 mov	 ecx, DWORD PTR _this$[ebp]
  0000c	e8 00 00 00 00	 call	 ?_Root@?$_Tree@V?$_Tmap_traits@PAUHWND__@@UCWndData@@U?$less@PAUHWND__@@@std@@V?$allocator@U?$pair@QAUHWND__@@UCWndData@@@std@@@4@$0A@@std@@@std@@IAEAAPAU_Node@?$_Tree_nod@V?$_Tmap_traits@PAUHWND__@@UCWndData@@U?$less@PAUHWND__@@@std@@V?$allocator@U?$pair@QAUHWND__@@UCWndData@@@std@@@4@$0A@@std@@@2@XZ ; std::_Tree<std::_Tmap_traits<HWND__ *,CWndData,std::less<HWND__ *>,std::allocator<std::pair<HWND__ * const,CWndData> >,0> >::_Root
  00011	8b 00		 mov	 eax, DWORD PTR [eax]
  00013	89 45 f4	 mov	 DWORD PTR __Trynode$[ebp], eax

; 479  : 		_Nodeptr _Wherenode = _Myhead;

  00016	8b 4d cc	 mov	 ecx, DWORD PTR _this$[ebp]
  00019	8b 51 04	 mov	 edx, DWORD PTR [ecx+4]
  0001c	89 55 f8	 mov	 DWORD PTR __Wherenode$[ebp], edx

; 480  : 		bool _Addleft = true;	// add to left of head if tree empty

  0001f	c6 45 ff 01	 mov	 BYTE PTR __Addleft$[ebp], 1
$L200878:

; 481  : 		while (!_Isnil(_Trynode))

  00023	8b 45 f4	 mov	 eax, DWORD PTR __Trynode$[ebp]
  00026	50		 push	 eax
  00027	e8 00 00 00 00	 call	 ?_Isnil@?$_Tree@V?$_Tmap_traits@PAUHWND__@@UCWndData@@U?$less@PAUHWND__@@@std@@V?$allocator@U?$pair@QAUHWND__@@UCWndData@@@std@@@4@$0A@@std@@@std@@KAAADPAU_Node@?$_Tree_nod@V?$_Tmap_traits@PAUHWND__@@UCWndData@@U?$less@PAUHWND__@@@std@@V?$allocator@U?$pair@QAUHWND__@@UCWndData@@@std@@@4@$0A@@std@@@2@@Z ; std::_Tree<std::_Tmap_traits<HWND__ *,CWndData,std::less<HWND__ *>,std::allocator<std::pair<HWND__ * const,CWndData> >,0> >::_Isnil
  0002c	83 c4 04	 add	 esp, 4
  0002f	0f be 08	 movsx	 ecx, BYTE PTR [eax]
  00032	85 c9		 test	 ecx, ecx
  00034	75 5f		 jne	 SHORT $L200879

; 482  : 			{	// look for leaf to insert before (_Addleft) or after
; 483  : 			_Wherenode = _Trynode;

  00036	8b 55 f4	 mov	 edx, DWORD PTR __Trynode$[ebp]
  00039	89 55 f8	 mov	 DWORD PTR __Wherenode$[ebp], edx

; 484  : 			_Addleft = this->comp(this->_Kfn(_Val), _Key(_Trynode));

  0003c	8b 45 f4	 mov	 eax, DWORD PTR __Trynode$[ebp]
  0003f	50		 push	 eax
  00040	e8 00 00 00 00	 call	 ?_Key@?$_Tree@V?$_Tmap_traits@PAUHWND__@@UCWndData@@U?$less@PAUHWND__@@@std@@V?$allocator@U?$pair@QAUHWND__@@UCWndData@@@std@@@4@$0A@@std@@@std@@KAABQAUHWND__@@PAU_Node@?$_Tree_nod@V?$_Tmap_traits@PAUHWND__@@UCWndData@@U?$less@PAUHWND__@@@std@@V?$allocator@U?$pair@QAUHWND__@@UCWndData@@@std@@@4@$0A@@std@@@2@@Z ; std::_Tree<std::_Tmap_traits<HWND__ *,CWndData,std::less<HWND__ *>,std::allocator<std::pair<HWND__ * const,CWndData> >,0> >::_Key
  00045	83 c4 04	 add	 esp, 4
  00048	50		 push	 eax
  00049	8b 4d 0c	 mov	 ecx, DWORD PTR __Val$[ebp]
  0004c	51		 push	 ecx
  0004d	e8 00 00 00 00	 call	 ?_Kfn@?$_Tmap_traits@PAUHWND__@@UCWndData@@U?$less@PAUHWND__@@@std@@V?$allocator@U?$pair@QAUHWND__@@UCWndData@@@std@@@4@$0A@@std@@SAABQAUHWND__@@ABU?$pair@QAUHWND__@@UCWndData@@@2@@Z ; std::_Tmap_traits<HWND__ *,CWndData,std::less<HWND__ *>,std::allocator<std::pair<HWND__ * const,CWndData> >,0>::_Kfn
  00052	83 c4 04	 add	 esp, 4
  00055	50		 push	 eax
  00056	8b 4d cc	 mov	 ecx, DWORD PTR _this$[ebp]
  00059	e8 00 00 00 00	 call	 ??R?$less@PAUHWND__@@@std@@QBE_NABQAUHWND__@@0@Z ; std::less<HWND__ *>::operator()
  0005e	88 45 ff	 mov	 BYTE PTR __Addleft$[ebp], al

; 485  : 			_Trynode = _Addleft ? _Left(_Trynode) : _Right(_Trynode);

  00061	0f b6 55 ff	 movzx	 edx, BYTE PTR __Addleft$[ebp]
  00065	85 d2		 test	 edx, edx
  00067	74 13		 je	 SHORT $L202764
  00069	8b 45 f4	 mov	 eax, DWORD PTR __Trynode$[ebp]
  0006c	50		 push	 eax
  0006d	e8 00 00 00 00	 call	 ?_Left@?$_Tree@V?$_Tmap_traits@PAUHWND__@@UCWndData@@U?$less@PAUHWND__@@@std@@V?$allocator@U?$pair@QAUHWND__@@UCWndData@@@std@@@4@$0A@@std@@@std@@KAAAPAU_Node@?$_Tree_nod@V?$_Tmap_traits@PAUHWND__@@UCWndData@@U?$less@PAUHWND__@@@std@@V?$allocator@U?$pair@QAUHWND__@@UCWndData@@@std@@@4@$0A@@std@@@2@PAU342@@Z ; std::_Tree<std::_Tmap_traits<HWND__ *,CWndData,std::less<HWND__ *>,std::allocator<std::pair<HWND__ * const,CWndData> >,0> >::_Left
  00072	83 c4 04	 add	 esp, 4
  00075	8b 08		 mov	 ecx, DWORD PTR [eax]
  00077	89 4d c8	 mov	 DWORD PTR tv85[ebp], ecx
  0007a	eb 11		 jmp	 SHORT $L202765
$L202764:
  0007c	8b 55 f4	 mov	 edx, DWORD PTR __Trynode$[ebp]
  0007f	52		 push	 edx
  00080	e8 00 00 00 00	 call	 ?_Right@?$_Tree@V?$_Tmap_traits@PAUHWND__@@UCWndData@@U?$less@PAUHWND__@@@std@@V?$allocator@U?$pair@QAUHWND__@@UCWndData@@@std@@@4@$0A@@std@@@std@@KAAAPAU_Node@?$_Tree_nod@V?$_Tmap_traits@PAUHWND__@@UCWndData@@U?$less@PAUHWND__@@@std@@V?$allocator@U?$pair@QAUHWND__@@UCWndData@@@std@@@4@$0A@@std@@@2@PAU342@@Z ; std::_Tree<std::_Tmap_traits<HWND__ *,CWndData,std::less<HWND__ *>,std::allocator<std::pair<HWND__ * const,CWndData> >,0> >::_Right
  00085	83 c4 04	 add	 esp, 4
  00088	8b 00		 mov	 eax, DWORD PTR [eax]
  0008a	89 45 c8	 mov	 DWORD PTR tv85[ebp], eax
$L202765:
  0008d	8b 4d c8	 mov	 ecx, DWORD PTR tv85[ebp]
  00090	89 4d f4	 mov	 DWORD PTR __Trynode$[ebp], ecx

; 486  : 			}

  00093	eb 8e		 jmp	 SHORT $L200878
$L200879:

; 487  : 
; 488  : 		if (this->_Multi)

  00095	33 d2		 xor	 edx, edx
  00097	74 31		 je	 SHORT $L200880

; 489  : 			return (_Pairib(_Insert(_Addleft, _Wherenode, _Val), true));

  00099	c6 45 ef 01	 mov	 BYTE PTR $T202766[ebp], 1
  0009d	8d 45 ef	 lea	 eax, DWORD PTR $T202766[ebp]
  000a0	50		 push	 eax
  000a1	8b 4d 0c	 mov	 ecx, DWORD PTR __Val$[ebp]
  000a4	51		 push	 ecx
  000a5	8b 55 f8	 mov	 edx, DWORD PTR __Wherenode$[ebp]
  000a8	52		 push	 edx
  000a9	8a 45 ff	 mov	 al, BYTE PTR __Addleft$[ebp]
  000ac	50		 push	 eax
  000ad	8d 4d e8	 lea	 ecx, DWORD PTR $T202767[ebp]
  000b0	51		 push	 ecx
  000b1	8b 4d cc	 mov	 ecx, DWORD PTR _this$[ebp]
  000b4	e8 00 00 00 00	 call	 ?_Insert@?$_Tree@V?$_Tmap_traits@PAUHWND__@@UCWndData@@U?$less@PAUHWND__@@@std@@V?$allocator@U?$pair@QAUHWND__@@UCWndData@@@std@@@4@$0A@@std@@@std@@IAE?AViterator@12@_NPAU_Node@?$_Tree_nod@V?$_Tmap_traits@PAUHWND__@@UCWndData@@U?$less@PAUHWND__@@@std@@V?$allocator@U?$pair@QAUHWND__@@UCWndData@@@std@@@4@$0A@@std@@@2@ABU?$pair@QAUHWND__@@UCWndData@@@2@@Z ; std::_Tree<std::_Tmap_traits<HWND__ *,CWndData,std::less<HWND__ *>,std::allocator<std::pair<HWND__ * const,CWndData> >,0> >::_Insert
  000b9	50		 push	 eax
  000ba	8b 4d 08	 mov	 ecx, DWORD PTR ___$ReturnUdt$[ebp]
  000bd	e8 00 00 00 00	 call	 ??0?$pair@Viterator@?$_Tree@V?$_Tmap_traits@PAUHWND__@@UCWndData@@U?$less@PAUHWND__@@@std@@V?$allocator@U?$pair@QAUHWND__@@UCWndData@@@std@@@4@$0A@@std@@@std@@_N@std@@QAE@ABViterator@?$_Tree@V?$_Tmap_traits@PAUHWND__@@UCWndData@@U?$less@PAUHWND__@@@std@@V?$allocator@U?$pair@QAUHWND__@@UCWndData@@@std@@@4@$0A@@std@@@1@AB_N@Z ; std::pair<std::_Tree<std::_Tmap_traits<HWND__ *,CWndData,std::less<HWND__ *>,std::allocator<std::pair<HWND__ * const,CWndData> >,0> >::iterator,bool>::pair<std::_Tree<std::_Tmap_traits<HWND__ *,CWndData,std::less<HWND__ *>,std::allocator<std::pair<HWND__ * const,CWndData> >,0> >::iterator,bool>
  000c2	8b 45 08	 mov	 eax, DWORD PTR ___$ReturnUdt$[ebp]
  000c5	e9 d9 00 00 00	 jmp	 $L200873
$L200880:

; 490  : 		else
; 491  : 			{	// insert only if unique
; 492  : 			iterator _Where = _TREE_ITERATOR(_Wherenode);

  000ca	8b 55 f8	 mov	 edx, DWORD PTR __Wherenode$[ebp]
  000cd	52		 push	 edx
  000ce	8d 4d f0	 lea	 ecx, DWORD PTR __Where$200889[ebp]
  000d1	e8 00 00 00 00	 call	 ??0iterator@?$_Tree@V?$_Tmap_traits@PAUHWND__@@UCWndData@@U?$less@PAUHWND__@@@std@@V?$allocator@U?$pair@QAUHWND__@@UCWndData@@@std@@@4@$0A@@std@@@std@@QAE@PAU_Node@?$_Tree_nod@V?$_Tmap_traits@PAUHWND__@@UCWndData@@U?$less@PAUHWND__@@@std@@V?$allocator@U?$pair@QAUHWND__@@UCWndData@@@std@@@4@$0A@@std@@@2@@Z ; std::_Tree<std::_Tmap_traits<HWND__ *,CWndData,std::less<HWND__ *>,std::allocator<std::pair<HWND__ * const,CWndData> >,0> >::iterator::iterator

; 493  : 			if (!_Addleft)

  000d6	0f b6 45 ff	 movzx	 eax, BYTE PTR __Addleft$[ebp]
  000da	85 c0		 test	 eax, eax
  000dc	75 02		 jne	 SHORT $L200891

; 494  : 				;	// need to test if insert after is okay
; 495  : 			else if (_Where == begin())

  000de	eb 50		 jmp	 SHORT $L200892
$L200891:
  000e0	8d 4d e4	 lea	 ecx, DWORD PTR $T202768[ebp]
  000e3	51		 push	 ecx
  000e4	8b 4d cc	 mov	 ecx, DWORD PTR _this$[ebp]
  000e7	e8 00 00 00 00	 call	 ?begin@?$_Tree@V?$_Tmap_traits@PAUHWND__@@UCWndData@@U?$less@PAUHWND__@@@std@@V?$allocator@U?$pair@QAUHWND__@@UCWndData@@@std@@@4@$0A@@std@@@std@@QAE?AViterator@12@XZ ; std::_Tree<std::_Tmap_traits<HWND__ *,CWndData,std::less<HWND__ *>,std::allocator<std::pair<HWND__ * const,CWndData> >,0> >::begin
  000ec	50		 push	 eax
  000ed	8d 4d f0	 lea	 ecx, DWORD PTR __Where$200889[ebp]
  000f0	e8 00 00 00 00	 call	 ??8const_iterator@?$_Tree@V?$_Tmap_traits@PAUHWND__@@UCWndData@@U?$less@PAUHWND__@@@std@@V?$allocator@U?$pair@QAUHWND__@@UCWndData@@@std@@@4@$0A@@std@@@std@@QBE_NABV012@@Z ; std::_Tree<std::_Tmap_traits<HWND__ *,CWndData,std::less<HWND__ *>,std::allocator<std::pair<HWND__ * const,CWndData> >,0> >::const_iterator::operator==
  000f5	0f b6 d0	 movzx	 edx, al
  000f8	85 d2		 test	 edx, edx
  000fa	74 2c		 je	 SHORT $L200894

; 496  : 				return (_Pairib(_Insert(true, _Wherenode, _Val), true));

  000fc	c6 45 e3 01	 mov	 BYTE PTR $T202769[ebp], 1
  00100	8d 45 e3	 lea	 eax, DWORD PTR $T202769[ebp]
  00103	50		 push	 eax
  00104	8b 4d 0c	 mov	 ecx, DWORD PTR __Val$[ebp]
  00107	51		 push	 ecx
  00108	8b 55 f8	 mov	 edx, DWORD PTR __Wherenode$[ebp]
  0010b	52		 push	 edx
  0010c	6a 01		 push	 1
  0010e	8d 45 dc	 lea	 eax, DWORD PTR $T202770[ebp]
  00111	50		 push	 eax
  00112	8b 4d cc	 mov	 ecx, DWORD PTR _this$[ebp]
  00115	e8 00 00 00 00	 call	 ?_Insert@?$_Tree@V?$_Tmap_traits@PAUHWND__@@UCWndData@@U?$less@PAUHWND__@@@std@@V?$allocator@U?$pair@QAUHWND__@@UCWndData@@@std@@@4@$0A@@std@@@std@@IAE?AViterator@12@_NPAU_Node@?$_Tree_nod@V?$_Tmap_traits@PAUHWND__@@UCWndData@@U?$less@PAUHWND__@@@std@@V?$allocator@U?$pair@QAUHWND__@@UCWndData@@@std@@@4@$0A@@std@@@2@ABU?$pair@QAUHWND__@@UCWndData@@@2@@Z ; std::_Tree<std::_Tmap_traits<HWND__ *,CWndData,std::less<HWND__ *>,std::allocator<std::pair<HWND__ * const,CWndData> >,0> >::_Insert
  0011a	50		 push	 eax
  0011b	8b 4d 08	 mov	 ecx, DWORD PTR ___$ReturnUdt$[ebp]
  0011e	e8 00 00 00 00	 call	 ??0?$pair@Viterator@?$_Tree@V?$_Tmap_traits@PAUHWND__@@UCWndData@@U?$less@PAUHWND__@@@std@@V?$allocator@U?$pair@QAUHWND__@@UCWndData@@@std@@@4@$0A@@std@@@std@@_N@std@@QAE@ABViterator@?$_Tree@V?$_Tmap_traits@PAUHWND__@@UCWndData@@U?$less@PAUHWND__@@@std@@V?$allocator@U?$pair@QAUHWND__@@UCWndData@@@std@@@4@$0A@@std@@@1@AB_N@Z ; std::pair<std::_Tree<std::_Tmap_traits<HWND__ *,CWndData,std::less<HWND__ *>,std::allocator<std::pair<HWND__ * const,CWndData> >,0> >::iterator,bool>::pair<std::_Tree<std::_Tmap_traits<HWND__ *,CWndData,std::less<HWND__ *>,std::allocator<std::pair<HWND__ * const,CWndData> >,0> >::iterator,bool>
  00123	8b 45 08	 mov	 eax, DWORD PTR ___$ReturnUdt$[ebp]
  00126	eb 7b		 jmp	 SHORT $L200873
$L200894:

; 497  : 			else
; 498  : 				--_Where;	// need to test if insert before is okay

  00128	8d 4d f0	 lea	 ecx, DWORD PTR __Where$200889[ebp]
  0012b	e8 00 00 00 00	 call	 ??Fiterator@?$_Tree@V?$_Tmap_traits@PAUHWND__@@UCWndData@@U?$less@PAUHWND__@@@std@@V?$allocator@U?$pair@QAUHWND__@@UCWndData@@@std@@@4@$0A@@std@@@std@@QAEAAV012@XZ ; std::_Tree<std::_Tmap_traits<HWND__ *,CWndData,std::less<HWND__ *>,std::allocator<std::pair<HWND__ * const,CWndData> >,0> >::iterator::operator--
$L200892:

; 499  : 
; 500  : 			if (this->comp(_Key(_Where._Mynode()), this->_Kfn(_Val)))

  00130	8b 4d 0c	 mov	 ecx, DWORD PTR __Val$[ebp]
  00133	51		 push	 ecx
  00134	e8 00 00 00 00	 call	 ?_Kfn@?$_Tmap_traits@PAUHWND__@@UCWndData@@U?$less@PAUHWND__@@@std@@V?$allocator@U?$pair@QAUHWND__@@UCWndData@@@std@@@4@$0A@@std@@SAABQAUHWND__@@ABU?$pair@QAUHWND__@@UCWndData@@@2@@Z ; std::_Tmap_traits<HWND__ *,CWndData,std::less<HWND__ *>,std::allocator<std::pair<HWND__ * const,CWndData> >,0>::_Kfn
  00139	83 c4 04	 add	 esp, 4
  0013c	50		 push	 eax
  0013d	8d 4d f0	 lea	 ecx, DWORD PTR __Where$200889[ebp]
  00140	e8 00 00 00 00	 call	 ?_Mynode@const_iterator@?$_Tree@V?$_Tmap_traits@PAUHWND__@@UCWndData@@U?$less@PAUHWND__@@@std@@V?$allocator@U?$pair@QAUHWND__@@UCWndData@@@std@@@4@$0A@@std@@@std@@QBEPAU_Node@?$_Tree_nod@V?$_Tmap_traits@PAUHWND__@@UCWndData@@U?$less@PAUHWND__@@@std@@V?$allocator@U?$pair@QAUHWND__@@UCWndData@@@std@@@4@$0A@@std@@@3@XZ ; std::_Tree<std::_Tmap_traits<HWND__ *,CWndData,std::less<HWND__ *>,std::allocator<std::pair<HWND__ * const,CWndData> >,0> >::const_iterator::_Mynode
  00145	50		 push	 eax
  00146	e8 00 00 00 00	 call	 ?_Key@?$_Tree@V?$_Tmap_traits@PAUHWND__@@UCWndData@@U?$less@PAUHWND__@@@std@@V?$allocator@U?$pair@QAUHWND__@@UCWndData@@@std@@@4@$0A@@std@@@std@@KAABQAUHWND__@@PAU_Node@?$_Tree_nod@V?$_Tmap_traits@PAUHWND__@@UCWndData@@U?$less@PAUHWND__@@@std@@V?$allocator@U?$pair@QAUHWND__@@UCWndData@@@std@@@4@$0A@@std@@@2@@Z ; std::_Tree<std::_Tmap_traits<HWND__ *,CWndData,std::less<HWND__ *>,std::allocator<std::pair<HWND__ * const,CWndData> >,0> >::_Key
  0014b	83 c4 04	 add	 esp, 4
  0014e	50		 push	 eax
  0014f	8b 4d cc	 mov	 ecx, DWORD PTR _this$[ebp]
  00152	e8 00 00 00 00	 call	 ??R?$less@PAUHWND__@@@std@@QBE_NABQAUHWND__@@0@Z ; std::less<HWND__ *>::operator()
  00157	0f b6 d0	 movzx	 edx, al
  0015a	85 d2		 test	 edx, edx
  0015c	74 2e		 je	 SHORT $L200899

; 501  : 				return (_Pairib(_Insert(_Addleft, _Wherenode, _Val), true));

  0015e	c6 45 db 01	 mov	 BYTE PTR $T202771[ebp], 1
  00162	8d 45 db	 lea	 eax, DWORD PTR $T202771[ebp]
  00165	50		 push	 eax
  00166	8b 4d 0c	 mov	 ecx, DWORD PTR __Val$[ebp]
  00169	51		 push	 ecx
  0016a	8b 55 f8	 mov	 edx, DWORD PTR __Wherenode$[ebp]
  0016d	52		 push	 edx
  0016e	8a 45 ff	 mov	 al, BYTE PTR __Addleft$[ebp]
  00171	50		 push	 eax
  00172	8d 4d d4	 lea	 ecx, DWORD PTR $T202772[ebp]
  00175	51		 push	 ecx
  00176	8b 4d cc	 mov	 ecx, DWORD PTR _this$[ebp]
  00179	e8 00 00 00 00	 call	 ?_Insert@?$_Tree@V?$_Tmap_traits@PAUHWND__@@UCWndData@@U?$less@PAUHWND__@@@std@@V?$allocator@U?$pair@QAUHWND__@@UCWndData@@@std@@@4@$0A@@std@@@std@@IAE?AViterator@12@_NPAU_Node@?$_Tree_nod@V?$_Tmap_traits@PAUHWND__@@UCWndData@@U?$less@PAUHWND__@@@std@@V?$allocator@U?$pair@QAUHWND__@@UCWndData@@@std@@@4@$0A@@std@@@2@ABU?$pair@QAUHWND__@@UCWndData@@@2@@Z ; std::_Tree<std::_Tmap_traits<HWND__ *,CWndData,std::less<HWND__ *>,std::allocator<std::pair<HWND__ * const,CWndData> >,0> >::_Insert
  0017e	50		 push	 eax
  0017f	8b 4d 08	 mov	 ecx, DWORD PTR ___$ReturnUdt$[ebp]
  00182	e8 00 00 00 00	 call	 ??0?$pair@Viterator@?$_Tree@V?$_Tmap_traits@PAUHWND__@@UCWndData@@U?$less@PAUHWND__@@@std@@V?$allocator@U?$pair@QAUHWND__@@UCWndData@@@std@@@4@$0A@@std@@@std@@_N@std@@QAE@ABViterator@?$_Tree@V?$_Tmap_traits@PAUHWND__@@UCWndData@@U?$less@PAUHWND__@@@std@@V?$allocator@U?$pair@QAUHWND__@@UCWndData@@@std@@@4@$0A@@std@@@1@AB_N@Z ; std::pair<std::_Tree<std::_Tmap_traits<HWND__ *,CWndData,std::less<HWND__ *>,std::allocator<std::pair<HWND__ * const,CWndData> >,0> >::iterator,bool>::pair<std::_Tree<std::_Tmap_traits<HWND__ *,CWndData,std::less<HWND__ *>,std::allocator<std::pair<HWND__ * const,CWndData> >,0> >::iterator,bool>
  00187	8b 45 08	 mov	 eax, DWORD PTR ___$ReturnUdt$[ebp]
  0018a	eb 17		 jmp	 SHORT $L200873
$L200899:

; 502  : 			else
; 503  : 				return (_Pairib(_Where, false));

  0018c	c6 45 d3 00	 mov	 BYTE PTR $T202773[ebp], 0
  00190	8d 55 d3	 lea	 edx, DWORD PTR $T202773[ebp]
  00193	52		 push	 edx
  00194	8d 45 f0	 lea	 eax, DWORD PTR __Where$200889[ebp]
  00197	50		 push	 eax
  00198	8b 4d 08	 mov	 ecx, DWORD PTR ___$ReturnUdt$[ebp]
  0019b	e8 00 00 00 00	 call	 ??0?$pair@Viterator@?$_Tree@V?$_Tmap_traits@PAUHWND__@@UCWndData@@U?$less@PAUHWND__@@@std@@V?$allocator@U?$pair@QAUHWND__@@UCWndData@@@std@@@4@$0A@@std@@@std@@_N@std@@QAE@ABViterator@?$_Tree@V?$_Tmap_traits@PAUHWND__@@UCWndData@@U?$less@PAUHWND__@@@std@@V?$allocator@U?$pair@QAUHWND__@@UCWndData@@@std@@@4@$0A@@std@@@1@AB_N@Z ; std::pair<std::_Tree<std::_Tmap_traits<HWND__ *,CWndData,std::less<HWND__ *>,std::allocator<std::pair<HWND__ * const,CWndData> >,0> >::iterator,bool>::pair<std::_Tree<std::_Tmap_traits<HWND__ *,CWndData,std::less<HWND__ *>,std::allocator<std::pair<HWND__ * const,CWndData> >,0> >::iterator,bool>
  001a0	8b 45 08	 mov	 eax, DWORD PTR ___$ReturnUdt$[ebp]
$L200873:

; 504  : 			}
; 505  : 		}

  001a3	8b e5		 mov	 esp, ebp
  001a5	5d		 pop	 ebp
  001a6	c2 08 00	 ret	 8
?insert@?$_Tree@V?$_Tmap_traits@PAUHWND__@@UCWndData@@U?$less@PAUHWND__@@@std@@V?$allocator@U?$pair@QAUHWND__@@UCWndData@@@std@@@4@$0A@@std@@@std@@QAE?AU?$pair@Viterator@?$_Tree@V?$_Tmap_traits@PAUHWND__@@UCWndData@@U?$less@PAUHWND__@@@std@@V?$allocator@U?$pair@QAUHWND__@@UCWndData@@@std@@@4@$0A@@std@@@std@@_N@2@ABU?$pair@QAUHWND__@@UCWndData@@@2@@Z ENDP ; std::_Tree<std::_Tmap_traits<HWND__ *,CWndData,std::less<HWND__ *>,std::allocator<std::pair<HWND__ * const,CWndData> >,0> >::insert
_TEXT	ENDS
PUBLIC	?erase@?$_Tree@V?$_Tmap_traits@PAUHWND__@@UCWndData@@U?$less@PAUHWND__@@@std@@V?$allocator@U?$pair@QAUHWND__@@UCWndData@@@std@@@4@$0A@@std@@@std@@QAE?AViterator@12@V312@@Z ; std::_Tree<std::_Tmap_traits<HWND__ *,CWndData,std::less<HWND__ *>,std::allocator<std::pair<HWND__ * const,CWndData> >,0> >::erase
PUBLIC	?clear@?$_Tree@V?$_Tmap_traits@PAUHWND__@@UCWndData@@U?$less@PAUHWND__@@@std@@V?$allocator@U?$pair@QAUHWND__@@UCWndData@@@std@@@4@$0A@@std@@@std@@QAEXXZ ; std::_Tree<std::_Tmap_traits<HWND__ *,CWndData,std::less<HWND__ *>,std::allocator<std::pair<HWND__ * const,CWndData> >,0> >::clear
; Function compile flags: /Odt
;	COMDAT ?erase@?$_Tree@V?$_Tmap_traits@PAUHWND__@@UCWndData@@U?$less@PAUHWND__@@@std@@V?$allocator@U?$pair@QAUHWND__@@UCWndData@@@std@@@4@$0A@@std@@@std@@QAE?AViterator@12@V312@0@Z
_TEXT	SEGMENT
_this$ = -20						; size = 4
$T202779 = -16						; size = 4
$T202778 = -12						; size = 4
$T202777 = -8						; size = 4
$T202776 = -4						; size = 4
___$ReturnUdt$ = 8					; size = 4
__First$ = 12						; size = 4
__Last$ = 16						; size = 4
?erase@?$_Tree@V?$_Tmap_traits@PAUHWND__@@UCWndData@@U?$less@PAUHWND__@@@std@@V?$allocator@U?$pair@QAUHWND__@@UCWndData@@@std@@@4@$0A@@std@@@std@@QAE?AViterator@12@V312@0@Z PROC NEAR ; std::_Tree<std::_Tmap_traits<HWND__ *,CWndData,std::less<HWND__ *>,std::allocator<std::pair<HWND__ * const,CWndData> >,0> >::erase, COMDAT
; _this$ = ecx

; 750  : 		{	// erase [_First, _Last)

  00000	55		 push	 ebp
  00001	8b ec		 mov	 ebp, esp
  00003	83 ec 14	 sub	 esp, 20			; 00000014H
  00006	89 4d ec	 mov	 DWORD PTR _this$[ebp], ecx

; 751  : 		if (_First == begin() && _Last == end())

  00009	8d 45 fc	 lea	 eax, DWORD PTR $T202776[ebp]
  0000c	50		 push	 eax
  0000d	8b 4d ec	 mov	 ecx, DWORD PTR _this$[ebp]
  00010	e8 00 00 00 00	 call	 ?begin@?$_Tree@V?$_Tmap_traits@PAUHWND__@@UCWndData@@U?$less@PAUHWND__@@@std@@V?$allocator@U?$pair@QAUHWND__@@UCWndData@@@std@@@4@$0A@@std@@@std@@QAE?AViterator@12@XZ ; std::_Tree<std::_Tmap_traits<HWND__ *,CWndData,std::less<HWND__ *>,std::allocator<std::pair<HWND__ * const,CWndData> >,0> >::begin
  00015	50		 push	 eax
  00016	8d 4d 0c	 lea	 ecx, DWORD PTR __First$[ebp]
  00019	e8 00 00 00 00	 call	 ??8const_iterator@?$_Tree@V?$_Tmap_traits@PAUHWND__@@UCWndData@@U?$less@PAUHWND__@@@std@@V?$allocator@U?$pair@QAUHWND__@@UCWndData@@@std@@@4@$0A@@std@@@std@@QBE_NABV012@@Z ; std::_Tree<std::_Tmap_traits<HWND__ *,CWndData,std::less<HWND__ *>,std::allocator<std::pair<HWND__ * const,CWndData> >,0> >::const_iterator::operator==
  0001e	0f b6 c8	 movzx	 ecx, al
  00021	85 c9		 test	 ecx, ecx
  00023	74 35		 je	 SHORT $L200915
  00025	8d 55 f8	 lea	 edx, DWORD PTR $T202777[ebp]
  00028	52		 push	 edx
  00029	8b 4d ec	 mov	 ecx, DWORD PTR _this$[ebp]
  0002c	e8 00 00 00 00	 call	 ?end@?$_Tree@V?$_Tmap_traits@PAUHWND__@@UCWndData@@U?$less@PAUHWND__@@@std@@V?$allocator@U?$pair@QAUHWND__@@UCWndData@@@std@@@4@$0A@@std@@@std@@QAE?AViterator@12@XZ ; std::_Tree<std::_Tmap_traits<HWND__ *,CWndData,std::less<HWND__ *>,std::allocator<std::pair<HWND__ * const,CWndData> >,0> >::end
  00031	50		 push	 eax
  00032	8d 4d 10	 lea	 ecx, DWORD PTR __Last$[ebp]
  00035	e8 00 00 00 00	 call	 ??8const_iterator@?$_Tree@V?$_Tmap_traits@PAUHWND__@@UCWndData@@U?$less@PAUHWND__@@@std@@V?$allocator@U?$pair@QAUHWND__@@UCWndData@@@std@@@4@$0A@@std@@@std@@QBE_NABV012@@Z ; std::_Tree<std::_Tmap_traits<HWND__ *,CWndData,std::less<HWND__ *>,std::allocator<std::pair<HWND__ * const,CWndData> >,0> >::const_iterator::operator==
  0003a	0f b6 c0	 movzx	 eax, al
  0003d	85 c0		 test	 eax, eax
  0003f	74 19		 je	 SHORT $L200915

; 752  : 			{	// erase all
; 753  : 			clear();

  00041	8b 4d ec	 mov	 ecx, DWORD PTR _this$[ebp]
  00044	e8 00 00 00 00	 call	 ?clear@?$_Tree@V?$_Tmap_traits@PAUHWND__@@UCWndData@@U?$less@PAUHWND__@@@std@@V?$allocator@U?$pair@QAUHWND__@@UCWndData@@@std@@@4@$0A@@std@@@std@@QAEXXZ ; std::_Tree<std::_Tmap_traits<HWND__ *,CWndData,std::less<HWND__ *>,std::allocator<std::pair<HWND__ * const,CWndData> >,0> >::clear

; 754  : 			return (begin());

  00049	8b 4d 08	 mov	 ecx, DWORD PTR ___$ReturnUdt$[ebp]
  0004c	51		 push	 ecx
  0004d	8b 4d ec	 mov	 ecx, DWORD PTR _this$[ebp]
  00050	e8 00 00 00 00	 call	 ?begin@?$_Tree@V?$_Tmap_traits@PAUHWND__@@UCWndData@@U?$less@PAUHWND__@@@std@@V?$allocator@U?$pair@QAUHWND__@@UCWndData@@@std@@@4@$0A@@std@@@std@@QAE?AViterator@12@XZ ; std::_Tree<std::_Tmap_traits<HWND__ *,CWndData,std::less<HWND__ *>,std::allocator<std::pair<HWND__ * const,CWndData> >,0> >::begin
  00055	8b 45 08	 mov	 eax, DWORD PTR ___$ReturnUdt$[ebp]
  00058	eb 3d		 jmp	 SHORT $L200908
$L200915:

; 755  : 			}
; 756  : 		else
; 757  : 			{	// partial erase, one at a time
; 758  : 			while (_First != _Last)

  0005a	8d 55 10	 lea	 edx, DWORD PTR __Last$[ebp]
  0005d	52		 push	 edx
  0005e	8d 4d 0c	 lea	 ecx, DWORD PTR __First$[ebp]
  00061	e8 00 00 00 00	 call	 ??9const_iterator@?$_Tree@V?$_Tmap_traits@PAUHWND__@@UCWndData@@U?$less@PAUHWND__@@@std@@V?$allocator@U?$pair@QAUHWND__@@UCWndData@@@std@@@4@$0A@@std@@@std@@QBE_NABV012@@Z ; std::_Tree<std::_Tmap_traits<HWND__ *,CWndData,std::less<HWND__ *>,std::allocator<std::pair<HWND__ * const,CWndData> >,0> >::const_iterator::operator!=
  00066	0f b6 c0	 movzx	 eax, al
  00069	85 c0		 test	 eax, eax
  0006b	74 1f		 je	 SHORT $L200916

; 759  : 				erase(_First++);

  0006d	6a 00		 push	 0
  0006f	8d 4d f4	 lea	 ecx, DWORD PTR $T202778[ebp]
  00072	51		 push	 ecx
  00073	8d 4d 0c	 lea	 ecx, DWORD PTR __First$[ebp]
  00076	e8 00 00 00 00	 call	 ??Eiterator@?$_Tree@V?$_Tmap_traits@PAUHWND__@@UCWndData@@U?$less@PAUHWND__@@@std@@V?$allocator@U?$pair@QAUHWND__@@UCWndData@@@std@@@4@$0A@@std@@@std@@QAE?AV012@H@Z ; std::_Tree<std::_Tmap_traits<HWND__ *,CWndData,std::less<HWND__ *>,std::allocator<std::pair<HWND__ * const,CWndData> >,0> >::iterator::operator++
  0007b	8b 10		 mov	 edx, DWORD PTR [eax]
  0007d	52		 push	 edx
  0007e	8d 45 f0	 lea	 eax, DWORD PTR $T202779[ebp]
  00081	50		 push	 eax
  00082	8b 4d ec	 mov	 ecx, DWORD PTR _this$[ebp]
  00085	e8 00 00 00 00	 call	 ?erase@?$_Tree@V?$_Tmap_traits@PAUHWND__@@UCWndData@@U?$less@PAUHWND__@@@std@@V?$allocator@U?$pair@QAUHWND__@@UCWndData@@@std@@@4@$0A@@std@@@std@@QAE?AViterator@12@V312@@Z ; std::_Tree<std::_Tmap_traits<HWND__ *,CWndData,std::less<HWND__ *>,std::allocator<std::pair<HWND__ * const,CWndData> >,0> >::erase
  0008a	eb ce		 jmp	 SHORT $L200915
$L200916:

; 760  : 			return (_First);

  0008c	8b 4d 08	 mov	 ecx, DWORD PTR ___$ReturnUdt$[ebp]
  0008f	8b 55 0c	 mov	 edx, DWORD PTR __First$[ebp]
  00092	89 11		 mov	 DWORD PTR [ecx], edx
  00094	8b 45 08	 mov	 eax, DWORD PTR ___$ReturnUdt$[ebp]
$L200908:

; 761  : 			}
; 762  : 		}

  00097	8b e5		 mov	 esp, ebp
  00099	5d		 pop	 ebp
  0009a	c2 0c 00	 ret	 12			; 0000000cH
?erase@?$_Tree@V?$_Tmap_traits@PAUHWND__@@UCWndData@@U?$less@PAUHWND__@@@std@@V?$allocator@U?$pair@QAUHWND__@@UCWndData@@@std@@@4@$0A@@std@@@std@@QAE?AViterator@12@V312@0@Z ENDP ; std::_Tree<std::_Tmap_traits<HWND__ *,CWndData,std::less<HWND__ *>,std::allocator<std::pair<HWND__ * const,CWndData> >,0> >::erase
_TEXT	ENDS
PUBLIC	?_Buynode@?$_Tree@V?$_Tmap_traits@PAUHWND__@@UCWndData@@U?$less@PAUHWND__@@@std@@V?$allocator@U?$pair@QAUHWND__@@UCWndData@@@std@@@4@$0A@@std@@@std@@IAEPAU_Node@?$_Tree_nod@V?$_Tmap_traits@PAUHWND__@@UCWndData@@U?$less@PAUHWND__@@@std@@V?$allocator@U?$pair@QAUHWND__@@UCWndData@@@std@@@4@$0A@@std@@@2@XZ ; std::_Tree<std::_Tmap_traits<HWND__ *,CWndData,std::less<HWND__ *>,std::allocator<std::pair<HWND__ * const,CWndData> >,0> >::_Buynode
; Function compile flags: /Odt
;	COMDAT ?_Init@?$_Tree@V?$_Tmap_traits@PAUHWND__@@UCWndData@@U?$less@PAUHWND__@@@std@@V?$allocator@U?$pair@QAUHWND__@@UCWndData@@@std@@@4@$0A@@std@@@std@@IAEXXZ
_TEXT	SEGMENT
_this$ = -4						; size = 4
?_Init@?$_Tree@V?$_Tmap_traits@PAUHWND__@@UCWndData@@U?$less@PAUHWND__@@@std@@V?$allocator@U?$pair@QAUHWND__@@UCWndData@@@std@@@4@$0A@@std@@@std@@IAEXXZ PROC NEAR ; std::_Tree<std::_Tmap_traits<HWND__ *,CWndData,std::less<HWND__ *>,std::allocator<std::pair<HWND__ * const,CWndData> >,0> >::_Init, COMDAT
; _this$ = ecx

; 901  : 		{	// create head/nil node and make tree empty

  00000	55		 push	 ebp
  00001	8b ec		 mov	 ebp, esp
  00003	51		 push	 ecx
  00004	89 4d fc	 mov	 DWORD PTR _this$[ebp], ecx

; 902  : 		_Myhead = _Buynode();

  00007	8b 4d fc	 mov	 ecx, DWORD PTR _this$[ebp]
  0000a	e8 00 00 00 00	 call	 ?_Buynode@?$_Tree@V?$_Tmap_traits@PAUHWND__@@UCWndData@@U?$less@PAUHWND__@@@std@@V?$allocator@U?$pair@QAUHWND__@@UCWndData@@@std@@@4@$0A@@std@@@std@@IAEPAU_Node@?$_Tree_nod@V?$_Tmap_traits@PAUHWND__@@UCWndData@@U?$less@PAUHWND__@@@std@@V?$allocator@U?$pair@QAUHWND__@@UCWndData@@@std@@@4@$0A@@std@@@2@XZ ; std::_Tree<std::_Tmap_traits<HWND__ *,CWndData,std::less<HWND__ *>,std::allocator<std::pair<HWND__ * const,CWndData> >,0> >::_Buynode
  0000f	8b 4d fc	 mov	 ecx, DWORD PTR _this$[ebp]
  00012	89 41 04	 mov	 DWORD PTR [ecx+4], eax

; 903  : 		_Isnil(_Myhead) = true;

  00015	8b 55 fc	 mov	 edx, DWORD PTR _this$[ebp]
  00018	8b 42 04	 mov	 eax, DWORD PTR [edx+4]
  0001b	50		 push	 eax
  0001c	e8 00 00 00 00	 call	 ?_Isnil@?$_Tree@V?$_Tmap_traits@PAUHWND__@@UCWndData@@U?$less@PAUHWND__@@@std@@V?$allocator@U?$pair@QAUHWND__@@UCWndData@@@std@@@4@$0A@@std@@@std@@KAAADPAU_Node@?$_Tree_nod@V?$_Tmap_traits@PAUHWND__@@UCWndData@@U?$less@PAUHWND__@@@std@@V?$allocator@U?$pair@QAUHWND__@@UCWndData@@@std@@@4@$0A@@std@@@2@@Z ; std::_Tree<std::_Tmap_traits<HWND__ *,CWndData,std::less<HWND__ *>,std::allocator<std::pair<HWND__ * const,CWndData> >,0> >::_Isnil
  00021	83 c4 04	 add	 esp, 4
  00024	c6 00 01	 mov	 BYTE PTR [eax], 1

; 904  : 		_Root() = _Myhead;

  00027	8b 4d fc	 mov	 ecx, DWORD PTR _this$[ebp]
  0002a	e8 00 00 00 00	 call	 ?_Root@?$_Tree@V?$_Tmap_traits@PAUHWND__@@UCWndData@@U?$less@PAUHWND__@@@std@@V?$allocator@U?$pair@QAUHWND__@@UCWndData@@@std@@@4@$0A@@std@@@std@@IAEAAPAU_Node@?$_Tree_nod@V?$_Tmap_traits@PAUHWND__@@UCWndData@@U?$less@PAUHWND__@@@std@@V?$allocator@U?$pair@QAUHWND__@@UCWndData@@@std@@@4@$0A@@std@@@2@XZ ; std::_Tree<std::_Tmap_traits<HWND__ *,CWndData,std::less<HWND__ *>,std::allocator<std::pair<HWND__ * const,CWndData> >,0> >::_Root
  0002f	8b 4d fc	 mov	 ecx, DWORD PTR _this$[ebp]
  00032	8b 51 04	 mov	 edx, DWORD PTR [ecx+4]
  00035	89 10		 mov	 DWORD PTR [eax], edx

; 905  : 		_Lmost() = _Myhead, _Rmost() = _Myhead;

  00037	8b 4d fc	 mov	 ecx, DWORD PTR _this$[ebp]
  0003a	e8 00 00 00 00	 call	 ?_Lmost@?$_Tree@V?$_Tmap_traits@PAUHWND__@@UCWndData@@U?$less@PAUHWND__@@@std@@V?$allocator@U?$pair@QAUHWND__@@UCWndData@@@std@@@4@$0A@@std@@@std@@IAEAAPAU_Node@?$_Tree_nod@V?$_Tmap_traits@PAUHWND__@@UCWndData@@U?$less@PAUHWND__@@@std@@V?$allocator@U?$pair@QAUHWND__@@UCWndData@@@std@@@4@$0A@@std@@@2@XZ ; std::_Tree<std::_Tmap_traits<HWND__ *,CWndData,std::less<HWND__ *>,std::allocator<std::pair<HWND__ * const,CWndData> >,0> >::_Lmost
  0003f	8b 4d fc	 mov	 ecx, DWORD PTR _this$[ebp]
  00042	8b 51 04	 mov	 edx, DWORD PTR [ecx+4]
  00045	89 10		 mov	 DWORD PTR [eax], edx
  00047	8b 4d fc	 mov	 ecx, DWORD PTR _this$[ebp]
  0004a	e8 00 00 00 00	 call	 ?_Rmost@?$_Tree@V?$_Tmap_traits@PAUHWND__@@UCWndData@@U?$less@PAUHWND__@@@std@@V?$allocator@U?$pair@QAUHWND__@@UCWndData@@@std@@@4@$0A@@std@@@std@@IAEAAPAU_Node@?$_Tree_nod@V?$_Tmap_traits@PAUHWND__@@UCWndData@@U?$less@PAUHWND__@@@std@@V?$allocator@U?$pair@QAUHWND__@@UCWndData@@@std@@@4@$0A@@std@@@2@XZ ; std::_Tree<std::_Tmap_traits<HWND__ *,CWndData,std::less<HWND__ *>,std::allocator<std::pair<HWND__ * const,CWndData> >,0> >::_Rmost
  0004f	8b 4d fc	 mov	 ecx, DWORD PTR _this$[ebp]
  00052	8b 51 04	 mov	 edx, DWORD PTR [ecx+4]
  00055	89 10		 mov	 DWORD PTR [eax], edx

; 906  : 		_Mysize = 0;

  00057	8b 45 fc	 mov	 eax, DWORD PTR _this$[ebp]
  0005a	c7 40 08 00 00
	00 00		 mov	 DWORD PTR [eax+8], 0

; 907  : 		}

  00061	8b e5		 mov	 esp, ebp
  00063	5d		 pop	 ebp
  00064	c3		 ret	 0
?_Init@?$_Tree@V?$_Tmap_traits@PAUHWND__@@UCWndData@@U?$less@PAUHWND__@@@std@@V?$allocator@U?$pair@QAUHWND__@@UCWndData@@@std@@@4@$0A@@std@@@std@@IAEXXZ ENDP ; std::_Tree<std::_Tmap_traits<HWND__ *,CWndData,std::less<HWND__ *>,std::allocator<std::pair<HWND__ * const,CWndData> >,0> >::_Init
_TEXT	ENDS
PUBLIC	??_R0?AVlogic_error@std@@@8			; std::logic_error `RTTI Type Descriptor'
PUBLIC	__CT??_R0?AVlogic_error@std@@@8??0logic_error@std@@QAE@ABV01@@Z40
PUBLIC	??_R0?AVexception@@@8				; exception `RTTI Type Descriptor'
PUBLIC	__CT??_R0?AVexception@@@8??0exception@@QAE@ABV0@@Z12
PUBLIC	__TI3?AVlength_error@std@@
PUBLIC	__CTA3?AVlength_error@std@@
PUBLIC	__CT??_R0?AVlength_error@std@@@8??0length_error@std@@QAE@ABV01@@Z40
PUBLIC	??_C@_0BE@JONHPENG@map?1set?$DMT?$DO?5too?5long?$AA@ ; `string'
PUBLIC	??_R0?AVlength_error@std@@@8			; std::length_error `RTTI Type Descriptor'
PUBLIC	?_Color@?$_Tree@V?$_Tmap_traits@PAUHWND__@@UCWndData@@U?$less@PAUHWND__@@@std@@V?$allocator@U?$pair@QAUHWND__@@UCWndData@@@std@@@4@$0A@@std@@@std@@KAAADPAU_Node@?$_Tree_nod@V?$_Tmap_traits@PAUHWND__@@UCWndData@@U?$less@PAUHWND__@@@std@@V?$allocator@U?$pair@QAUHWND__@@UCWndData@@@std@@@4@$0A@@std@@@2@@Z ; std::_Tree<std::_Tmap_traits<HWND__ *,CWndData,std::less<HWND__ *>,std::allocator<std::pair<HWND__ * const,CWndData> >,0> >::_Color
PUBLIC	?max_size@?$_Tree@V?$_Tmap_traits@PAUHWND__@@UCWndData@@U?$less@PAUHWND__@@@std@@V?$allocator@U?$pair@QAUHWND__@@UCWndData@@@std@@@4@$0A@@std@@@std@@QBEIXZ ; std::_Tree<std::_Tmap_traits<HWND__ *,CWndData,std::less<HWND__ *>,std::allocator<std::pair<HWND__ * const,CWndData> >,0> >::max_size
PUBLIC	?_Lrotate@?$_Tree@V?$_Tmap_traits@PAUHWND__@@UCWndData@@U?$less@PAUHWND__@@@std@@V?$allocator@U?$pair@QAUHWND__@@UCWndData@@@std@@@4@$0A@@std@@@std@@IAEXPAU_Node@?$_Tree_nod@V?$_Tmap_traits@PAUHWND__@@UCWndData@@U?$less@PAUHWND__@@@std@@V?$allocator@U?$pair@QAUHWND__@@UCWndData@@@std@@@4@$0A@@std@@@2@@Z ; std::_Tree<std::_Tmap_traits<HWND__ *,CWndData,std::less<HWND__ *>,std::allocator<std::pair<HWND__ * const,CWndData> >,0> >::_Lrotate
PUBLIC	?_Rrotate@?$_Tree@V?$_Tmap_traits@PAUHWND__@@UCWndData@@U?$less@PAUHWND__@@@std@@V?$allocator@U?$pair@QAUHWND__@@UCWndData@@@std@@@4@$0A@@std@@@std@@IAEXPAU_Node@?$_Tree_nod@V?$_Tmap_traits@PAUHWND__@@UCWndData@@U?$less@PAUHWND__@@@std@@V?$allocator@U?$pair@QAUHWND__@@UCWndData@@@std@@@4@$0A@@std@@@2@@Z ; std::_Tree<std::_Tmap_traits<HWND__ *,CWndData,std::less<HWND__ *>,std::allocator<std::pair<HWND__ * const,CWndData> >,0> >::_Rrotate
PUBLIC	?_Buynode@?$_Tree@V?$_Tmap_traits@PAUHWND__@@UCWndData@@U?$less@PAUHWND__@@@std@@V?$allocator@U?$pair@QAUHWND__@@UCWndData@@@std@@@4@$0A@@std@@@std@@IAEPAU_Node@?$_Tree_nod@V?$_Tmap_traits@PAUHWND__@@UCWndData@@U?$less@PAUHWND__@@@std@@V?$allocator@U?$pair@QAUHWND__@@UCWndData@@@std@@@4@$0A@@std@@@2@PAU342@00ABU?$pair@QAUHWND__@@UCWndData@@@2@D@Z ; std::_Tree<std::_Tmap_traits<HWND__ *,CWndData,std::less<HWND__ *>,std::allocator<std::pair<HWND__ * const,CWndData> >,0> >::_Buynode
PUBLIC	??0logic_error@std@@QAE@ABV01@@Z		; std::logic_error::logic_error
PUBLIC	??0length_error@std@@QAE@ABV?$basic_string@DU?$char_traits@D@std@@V?$allocator@D@2@@1@@Z ; std::length_error::length_error
PUBLIC	??1length_error@std@@UAE@XZ			; std::length_error::~length_error
PUBLIC	??0length_error@std@@QAE@ABV01@@Z		; std::length_error::length_error
EXTRN	__CxxThrowException@8:NEAR
EXTRN	??0exception@@QAE@ABV0@@Z:NEAR			; exception::exception
EXTRN	??_7type_info@@6B@:QWORD			; type_info::`vftable'
;	COMDAT xdata$x
xdata$x	SEGMENT
$T202791 DD	0ffffffffH
	DD	FLAT:$L202787
$T202789 DD	019930520H
	DD	01H
	DD	FLAT:$T202791
	DD	2 DUP(00H)
	DD	2 DUP(00H)
xdata$x	ENDS
;	COMDAT ??_C@_0BE@JONHPENG@map?1set?$DMT?$DO?5too?5long?$AA@
CONST	SEGMENT
??_C@_0BE@JONHPENG@map?1set?$DMT?$DO?5too?5long?$AA@ DB 'map/set<T> too l'
	DB	'ong', 00H					; `string'
CONST	ENDS
;	COMDAT __TI3?AVlength_error@std@@
xdata$x	SEGMENT
__TI3?AVlength_error@std@@ DD 00H
	DD	FLAT:??1length_error@std@@UAE@XZ
	DD	00H
	DD	FLAT:__CTA3?AVlength_error@std@@
xdata$x	ENDS
;	COMDAT __CTA3?AVlength_error@std@@
xdata$x	SEGMENT
__CTA3?AVlength_error@std@@ DD 03H
	DD	FLAT:__CT??_R0?AVlength_error@std@@@8??0length_error@std@@QAE@ABV01@@Z40
	DD	FLAT:__CT??_R0?AVlogic_error@std@@@8??0logic_error@std@@QAE@ABV01@@Z40
	DD	FLAT:__CT??_R0?AVexception@@@8??0exception@@QAE@ABV0@@Z12
xdata$x	ENDS
;	COMDAT __CT??_R0?AVlength_error@std@@@8??0length_error@std@@QAE@ABV01@@Z40
xdata$x	SEGMENT
__CT??_R0?AVlength_error@std@@@8??0length_error@std@@QAE@ABV01@@Z40 DD 00H
	DD	FLAT:??_R0?AVlength_error@std@@@8
	DD	00H
	DD	0ffffffffH
	ORG $+4
	DD	028H
	DD	FLAT:??0length_error@std@@QAE@ABV01@@Z
xdata$x	ENDS
;	COMDAT ??_R0?AVlength_error@std@@@8
_DATA	SEGMENT
??_R0?AVlength_error@std@@@8 DD FLAT:??_7type_info@@6B@	; std::length_error `RTTI Type Descriptor'
	DD	00H
	DB	'.?AVlength_error@std@@', 00H
	ORG $-31
	DD	FLAT:??_7type_info@@6B@
	DD	00H
	DB	'.?AVlength_error@std@@', 00H
_DATA	ENDS
;	COMDAT __CT??_R0?AVlogic_error@std@@@8??0logic_error@std@@QAE@ABV01@@Z40
xdata$x	SEGMENT
__CT??_R0?AVlogic_error@std@@@8??0logic_error@std@@QAE@ABV01@@Z40 DD 00H
	DD	FLAT:??_R0?AVlogic_error@std@@@8
	DD	00H
	DD	0ffffffffH
	ORG $+4
	DD	028H
	DD	FLAT:??0logic_error@std@@QAE@ABV01@@Z
xdata$x	ENDS
;	COMDAT ??_R0?AVlogic_error@std@@@8
_DATA	SEGMENT
??_R0?AVlogic_error@std@@@8 DD FLAT:??_7type_info@@6B@	; std::logic_error `RTTI Type Descriptor'
	DD	00H
	DB	'.?AVlogic_error@std@@', 00H
	ORG $-30
	DD	FLAT:??_7type_info@@6B@
	DD	00H
	DB	'.?AVlogic_error@std@@', 00H
_DATA	ENDS
;	COMDAT __CT??_R0?AVexception@@@8??0exception@@QAE@ABV0@@Z12
xdata$x	SEGMENT
__CT??_R0?AVexception@@@8??0exception@@QAE@ABV0@@Z12 DD 00H
	DD	FLAT:??_R0?AVexception@@@8
	DD	00H
	DD	0ffffffffH
	ORG $+4
	DD	0cH
	DD	FLAT:??0exception@@QAE@ABV0@@Z
xdata$x	ENDS
;	COMDAT ??_R0?AVexception@@@8
_DATA	SEGMENT
??_R0?AVexception@@@8 DD FLAT:??_7type_info@@6B@	; exception `RTTI Type Descriptor'
	DD	00H
	DB	'.?AVexception@@', 00H
	ORG $-24
	DD	FLAT:??_7type_info@@6B@
	DD	00H
	DB	'.?AVexception@@', 00H
; Function compile flags: /Odt
_DATA	ENDS
;	COMDAT ?_Insert@?$_Tree@V?$_Tmap_traits@PAUHWND__@@UCWndData@@U?$less@PAUHWND__@@@std@@V?$allocator@U?$pair@QAUHWND__@@UCWndData@@@std@@@4@$0A@@std@@@std@@IAE?AViterator@12@_NPAU_Node@?$_Tree_nod@V?$_Tmap_traits@PAUHWND__@@UCWndData@@U?$less@PAUHWND__@@@std@@V?$allocator@U?$pair@QAUHWND__@@UCWndData@@@std@@@4@$0A@@std@@@2@ABU?$pair@QAUHWND__@@UCWndData@@@2@@Z
_TEXT	SEGMENT
_this$ = -92						; size = 4
$T202785 = -88						; size = 28
$T202784 = -60						; size = 40
__Pnode$200939 = -20					; size = 4
__Newnode$ = -16					; size = 4
__$EHRec$ = -12						; size = 12
___$ReturnUdt$ = 8					; size = 4
__Addleft$ = 12						; size = 1
__Wherenode$ = 16					; size = 4
__Val$ = 20						; size = 4
?_Insert@?$_Tree@V?$_Tmap_traits@PAUHWND__@@UCWndData@@U?$less@PAUHWND__@@@std@@V?$allocator@U?$pair@QAUHWND__@@UCWndData@@@std@@@4@$0A@@std@@@std@@IAE?AViterator@12@_NPAU_Node@?$_Tree_nod@V?$_Tmap_traits@PAUHWND__@@UCWndData@@U?$less@PAUHWND__@@@std@@V?$allocator@U?$pair@QAUHWND__@@UCWndData@@@std@@@4@$0A@@std@@@2@ABU?$pair@QAUHWND__@@UCWndData@@@2@@Z PROC NEAR ; std::_Tree<std::_Tmap_traits<HWND__ *,CWndData,std::less<HWND__ *>,std::allocator<std::pair<HWND__ * const,CWndData> >,0> >::_Insert, COMDAT
; _this$ = ecx

; 911  : 		{	// add node with value next to _Wherenode, to left if _Addnode

  00000	55		 push	 ebp
  00001	8b ec		 mov	 ebp, esp
  00003	6a ff		 push	 -1
  00005	68 00 00 00 00	 push	 __ehhandler$?_Insert@?$_Tree@V?$_Tmap_traits@PAUHWND__@@UCWndData@@U?$less@PAUHWND__@@@std@@V?$allocator@U?$pair@QAUHWND__@@UCWndData@@@std@@@4@$0A@@std@@@std@@IAE?AViterator@12@_NPAU_Node@?$_Tree_nod@V?$_Tmap_traits@PAUHWND__@@UCWndData@@U?$less@PAUHWND__@@@std@@V?$allocator@U?$pair@QAUHWND__@@UCWndData@@@std@@@4@$0A@@std@@@2@ABU?$pair@QAUHWND__@@UCWndData@@@2@@Z
  0000a	64 a1 00 00 00
	00		 mov	 eax, DWORD PTR fs:__except_list
  00010	50		 push	 eax
  00011	64 89 25 00 00
	00 00		 mov	 DWORD PTR fs:__except_list, esp
  00018	83 ec 50	 sub	 esp, 80			; 00000050H
  0001b	56		 push	 esi
  0001c	89 4d a4	 mov	 DWORD PTR _this$[ebp], ecx

; 912  : 		if (max_size() - 1 <= _Mysize)

  0001f	8b 4d a4	 mov	 ecx, DWORD PTR _this$[ebp]
  00022	e8 00 00 00 00	 call	 ?max_size@?$_Tree@V?$_Tmap_traits@PAUHWND__@@UCWndData@@U?$less@PAUHWND__@@@std@@V?$allocator@U?$pair@QAUHWND__@@UCWndData@@@std@@@4@$0A@@std@@@std@@QBEIXZ ; std::_Tree<std::_Tmap_traits<HWND__ *,CWndData,std::less<HWND__ *>,std::allocator<std::pair<HWND__ * const,CWndData> >,0> >::max_size
  00027	83 e8 01	 sub	 eax, 1
  0002a	8b 4d a4	 mov	 ecx, DWORD PTR _this$[ebp]
  0002d	3b 41 08	 cmp	 eax, DWORD PTR [ecx+8]
  00030	77 2f		 ja	 SHORT $L200924

; 913  : 			_THROW(length_error, "map/set<T> too long");

  00032	68 00 00 00 00	 push	 OFFSET FLAT:??_C@_0BE@JONHPENG@map?1set?$DMT?$DO?5too?5long?$AA@
  00037	8d 4d a8	 lea	 ecx, DWORD PTR $T202785[ebp]
  0003a	ff 15 00 00 00
	00		 call	 DWORD PTR __imp_??0?$basic_string@DU?$char_traits@D@std@@V?$allocator@D@2@@std@@QAE@PBD@Z
  00040	c7 45 fc 00 00
	00 00		 mov	 DWORD PTR __$EHRec$[ebp+8], 0
  00047	8d 55 a8	 lea	 edx, DWORD PTR $T202785[ebp]
  0004a	52		 push	 edx
  0004b	8d 4d c4	 lea	 ecx, DWORD PTR $T202784[ebp]
  0004e	e8 00 00 00 00	 call	 ??0length_error@std@@QAE@ABV?$basic_string@DU?$char_traits@D@std@@V?$allocator@D@2@@1@@Z ; std::length_error::length_error
  00053	68 00 00 00 00	 push	 OFFSET FLAT:__TI3?AVlength_error@std@@
  00058	8d 45 c4	 lea	 eax, DWORD PTR $T202784[ebp]
  0005b	50		 push	 eax
  0005c	e8 00 00 00 00	 call	 __CxxThrowException@8
$L200924:

; 914  : 		_Nodeptr _Newnode = _Buynode(_Myhead, _Wherenode, _Myhead,
; 915  : 			_Val, _Red);

  00061	6a 00		 push	 0
  00063	8b 4d 14	 mov	 ecx, DWORD PTR __Val$[ebp]
  00066	51		 push	 ecx
  00067	8b 55 a4	 mov	 edx, DWORD PTR _this$[ebp]
  0006a	8b 42 04	 mov	 eax, DWORD PTR [edx+4]
  0006d	50		 push	 eax
  0006e	8b 4d 10	 mov	 ecx, DWORD PTR __Wherenode$[ebp]
  00071	51		 push	 ecx
  00072	8b 55 a4	 mov	 edx, DWORD PTR _this$[ebp]
  00075	8b 42 04	 mov	 eax, DWORD PTR [edx+4]
  00078	50		 push	 eax
  00079	8b 4d a4	 mov	 ecx, DWORD PTR _this$[ebp]
  0007c	e8 00 00 00 00	 call	 ?_Buynode@?$_Tree@V?$_Tmap_traits@PAUHWND__@@UCWndData@@U?$less@PAUHWND__@@@std@@V?$allocator@U?$pair@QAUHWND__@@UCWndData@@@std@@@4@$0A@@std@@@std@@IAEPAU_Node@?$_Tree_nod@V?$_Tmap_traits@PAUHWND__@@UCWndData@@U?$less@PAUHWND__@@@std@@V?$allocator@U?$pair@QAUHWND__@@UCWndData@@@std@@@4@$0A@@std@@@2@PAU342@00ABU?$pair@QAUHWND__@@UCWndData@@@2@D@Z ; std::_Tree<std::_Tmap_traits<HWND__ *,CWndData,std::less<HWND__ *>,std::allocator<std::pair<HWND__ * const,CWndData> >,0> >::_Buynode
  00081	89 45 f0	 mov	 DWORD PTR __Newnode$[ebp], eax

; 916  : 
; 917  : 		++_Mysize;

  00084	8b 4d a4	 mov	 ecx, DWORD PTR _this$[ebp]
  00087	8b 51 08	 mov	 edx, DWORD PTR [ecx+8]
  0008a	83 c2 01	 add	 edx, 1
  0008d	8b 45 a4	 mov	 eax, DWORD PTR _this$[ebp]
  00090	89 50 08	 mov	 DWORD PTR [eax+8], edx

; 918  : 		if (_Wherenode == _Myhead)

  00093	8b 4d a4	 mov	 ecx, DWORD PTR _this$[ebp]
  00096	8b 55 10	 mov	 edx, DWORD PTR __Wherenode$[ebp]
  00099	3b 51 04	 cmp	 edx, DWORD PTR [ecx+4]
  0009c	75 29		 jne	 SHORT $L200933

; 919  : 			{	// first node in tree, just set head values
; 920  : 			_Root() = _Newnode;

  0009e	8b 4d a4	 mov	 ecx, DWORD PTR _this$[ebp]
  000a1	e8 00 00 00 00	 call	 ?_Root@?$_Tree@V?$_Tmap_traits@PAUHWND__@@UCWndData@@U?$less@PAUHWND__@@@std@@V?$allocator@U?$pair@QAUHWND__@@UCWndData@@@std@@@4@$0A@@std@@@std@@IAEAAPAU_Node@?$_Tree_nod@V?$_Tmap_traits@PAUHWND__@@UCWndData@@U?$less@PAUHWND__@@@std@@V?$allocator@U?$pair@QAUHWND__@@UCWndData@@@std@@@4@$0A@@std@@@2@XZ ; std::_Tree<std::_Tmap_traits<HWND__ *,CWndData,std::less<HWND__ *>,std::allocator<std::pair<HWND__ * const,CWndData> >,0> >::_Root
  000a6	8b 4d f0	 mov	 ecx, DWORD PTR __Newnode$[ebp]
  000a9	89 08		 mov	 DWORD PTR [eax], ecx

; 921  : 			_Lmost() = _Newnode, _Rmost() = _Newnode;

  000ab	8b 4d a4	 mov	 ecx, DWORD PTR _this$[ebp]
  000ae	e8 00 00 00 00	 call	 ?_Lmost@?$_Tree@V?$_Tmap_traits@PAUHWND__@@UCWndData@@U?$less@PAUHWND__@@@std@@V?$allocator@U?$pair@QAUHWND__@@UCWndData@@@std@@@4@$0A@@std@@@std@@IAEAAPAU_Node@?$_Tree_nod@V?$_Tmap_traits@PAUHWND__@@UCWndData@@U?$less@PAUHWND__@@@std@@V?$allocator@U?$pair@QAUHWND__@@UCWndData@@@std@@@4@$0A@@std@@@2@XZ ; std::_Tree<std::_Tmap_traits<HWND__ *,CWndData,std::less<HWND__ *>,std::allocator<std::pair<HWND__ * const,CWndData> >,0> >::_Lmost
  000b3	8b 55 f0	 mov	 edx, DWORD PTR __Newnode$[ebp]
  000b6	89 10		 mov	 DWORD PTR [eax], edx
  000b8	8b 4d a4	 mov	 ecx, DWORD PTR _this$[ebp]
  000bb	e8 00 00 00 00	 call	 ?_Rmost@?$_Tree@V?$_Tmap_traits@PAUHWND__@@UCWndData@@U?$less@PAUHWND__@@@std@@V?$allocator@U?$pair@QAUHWND__@@UCWndData@@@std@@@4@$0A@@std@@@std@@IAEAAPAU_Node@?$_Tree_nod@V?$_Tmap_traits@PAUHWND__@@UCWndData@@U?$less@PAUHWND__@@@std@@V?$allocator@U?$pair@QAUHWND__@@UCWndData@@@std@@@4@$0A@@std@@@2@XZ ; std::_Tree<std::_Tmap_traits<HWND__ *,CWndData,std::less<HWND__ *>,std::allocator<std::pair<HWND__ * const,CWndData> >,0> >::_Rmost
  000c0	8b 4d f0	 mov	 ecx, DWORD PTR __Newnode$[ebp]
  000c3	89 08		 mov	 DWORD PTR [eax], ecx

; 922  : 			}
; 923  : 		else if (_Addleft)

  000c5	eb 64		 jmp	 SHORT $L200934
$L200933:
  000c7	0f b6 55 0c	 movzx	 edx, BYTE PTR __Addleft$[ebp]
  000cb	85 d2		 test	 edx, edx
  000cd	74 2f		 je	 SHORT $L200935

; 924  : 			{	// add to left of _Wherenode
; 925  : 			_Left(_Wherenode) = _Newnode;

  000cf	8b 45 10	 mov	 eax, DWORD PTR __Wherenode$[ebp]
  000d2	50		 push	 eax
  000d3	e8 00 00 00 00	 call	 ?_Left@?$_Tree@V?$_Tmap_traits@PAUHWND__@@UCWndData@@U?$less@PAUHWND__@@@std@@V?$allocator@U?$pair@QAUHWND__@@UCWndData@@@std@@@4@$0A@@std@@@std@@KAAAPAU_Node@?$_Tree_nod@V?$_Tmap_traits@PAUHWND__@@UCWndData@@U?$less@PAUHWND__@@@std@@V?$allocator@U?$pair@QAUHWND__@@UCWndData@@@std@@@4@$0A@@std@@@2@PAU342@@Z ; std::_Tree<std::_Tmap_traits<HWND__ *,CWndData,std::less<HWND__ *>,std::allocator<std::pair<HWND__ * const,CWndData> >,0> >::_Left
  000d8	83 c4 04	 add	 esp, 4
  000db	8b 4d f0	 mov	 ecx, DWORD PTR __Newnode$[ebp]
  000de	89 08		 mov	 DWORD PTR [eax], ecx

; 926  : 			if (_Wherenode == _Lmost())

  000e0	8b 4d a4	 mov	 ecx, DWORD PTR _this$[ebp]
  000e3	e8 00 00 00 00	 call	 ?_Lmost@?$_Tree@V?$_Tmap_traits@PAUHWND__@@UCWndData@@U?$less@PAUHWND__@@@std@@V?$allocator@U?$pair@QAUHWND__@@UCWndData@@@std@@@4@$0A@@std@@@std@@IAEAAPAU_Node@?$_Tree_nod@V?$_Tmap_traits@PAUHWND__@@UCWndData@@U?$less@PAUHWND__@@@std@@V?$allocator@U?$pair@QAUHWND__@@UCWndData@@@std@@@4@$0A@@std@@@2@XZ ; std::_Tree<std::_Tmap_traits<HWND__ *,CWndData,std::less<HWND__ *>,std::allocator<std::pair<HWND__ * const,CWndData> >,0> >::_Lmost
  000e8	8b 55 10	 mov	 edx, DWORD PTR __Wherenode$[ebp]
  000eb	3b 10		 cmp	 edx, DWORD PTR [eax]
  000ed	75 0d		 jne	 SHORT $L200936

; 927  : 				_Lmost() = _Newnode;

  000ef	8b 4d a4	 mov	 ecx, DWORD PTR _this$[ebp]
  000f2	e8 00 00 00 00	 call	 ?_Lmost@?$_Tree@V?$_Tmap_traits@PAUHWND__@@UCWndData@@U?$less@PAUHWND__@@@std@@V?$allocator@U?$pair@QAUHWND__@@UCWndData@@@std@@@4@$0A@@std@@@std@@IAEAAPAU_Node@?$_Tree_nod@V?$_Tmap_traits@PAUHWND__@@UCWndData@@U?$less@PAUHWND__@@@std@@V?$allocator@U?$pair@QAUHWND__@@UCWndData@@@std@@@4@$0A@@std@@@2@XZ ; std::_Tree<std::_Tmap_traits<HWND__ *,CWndData,std::less<HWND__ *>,std::allocator<std::pair<HWND__ * const,CWndData> >,0> >::_Lmost
  000f7	8b 4d f0	 mov	 ecx, DWORD PTR __Newnode$[ebp]
  000fa	89 08		 mov	 DWORD PTR [eax], ecx
$L200936:

; 928  : 			}
; 929  : 		else

  000fc	eb 2d		 jmp	 SHORT $L200934
$L200935:

; 930  : 			{	// add to right of _Wherenode
; 931  : 			_Right(_Wherenode) = _Newnode;

  000fe	8b 55 10	 mov	 edx, DWORD PTR __Wherenode$[ebp]
  00101	52		 push	 edx
  00102	e8 00 00 00 00	 call	 ?_Right@?$_Tree@V?$_Tmap_traits@PAUHWND__@@UCWndData@@U?$less@PAUHWND__@@@std@@V?$allocator@U?$pair@QAUHWND__@@UCWndData@@@std@@@4@$0A@@std@@@std@@KAAAPAU_Node@?$_Tree_nod@V?$_Tmap_traits@PAUHWND__@@UCWndData@@U?$less@PAUHWND__@@@std@@V?$allocator@U?$pair@QAUHWND__@@UCWndData@@@std@@@4@$0A@@std@@@2@PAU342@@Z ; std::_Tree<std::_Tmap_traits<HWND__ *,CWndData,std::less<HWND__ *>,std::allocator<std::pair<HWND__ * const,CWndData> >,0> >::_Right
  00107	83 c4 04	 add	 esp, 4
  0010a	8b 4d f0	 mov	 ecx, DWORD PTR __Newnode$[ebp]
  0010d	89 08		 mov	 DWORD PTR [eax], ecx

; 932  : 			if (_Wherenode == _Rmost())

  0010f	8b 4d a4	 mov	 ecx, DWORD PTR _this$[ebp]
  00112	e8 00 00 00 00	 call	 ?_Rmost@?$_Tree@V?$_Tmap_traits@PAUHWND__@@UCWndData@@U?$less@PAUHWND__@@@std@@V?$allocator@U?$pair@QAUHWND__@@UCWndData@@@std@@@4@$0A@@std@@@std@@IAEAAPAU_Node@?$_Tree_nod@V?$_Tmap_traits@PAUHWND__@@UCWndData@@U?$less@PAUHWND__@@@std@@V?$allocator@U?$pair@QAUHWND__@@UCWndData@@@std@@@4@$0A@@std@@@2@XZ ; std::_Tree<std::_Tmap_traits<HWND__ *,CWndData,std::less<HWND__ *>,std::allocator<std::pair<HWND__ * const,CWndData> >,0> >::_Rmost
  00117	8b 55 10	 mov	 edx, DWORD PTR __Wherenode$[ebp]
  0011a	3b 10		 cmp	 edx, DWORD PTR [eax]
  0011c	75 0d		 jne	 SHORT $L200934

; 933  : 				_Rmost() = _Newnode;

  0011e	8b 4d a4	 mov	 ecx, DWORD PTR _this$[ebp]
  00121	e8 00 00 00 00	 call	 ?_Rmost@?$_Tree@V?$_Tmap_traits@PAUHWND__@@UCWndData@@U?$less@PAUHWND__@@@std@@V?$allocator@U?$pair@QAUHWND__@@UCWndData@@@std@@@4@$0A@@std@@@std@@IAEAAPAU_Node@?$_Tree_nod@V?$_Tmap_traits@PAUHWND__@@UCWndData@@U?$less@PAUHWND__@@@std@@V?$allocator@U?$pair@QAUHWND__@@UCWndData@@@std@@@4@$0A@@std@@@2@XZ ; std::_Tree<std::_Tmap_traits<HWND__ *,CWndData,std::less<HWND__ *>,std::allocator<std::pair<HWND__ * const,CWndData> >,0> >::_Rmost
  00126	8b 4d f0	 mov	 ecx, DWORD PTR __Newnode$[ebp]
  00129	89 08		 mov	 DWORD PTR [eax], ecx
$L200934:

; 934  : 			}
; 935  : 
; 936  : 		for (_Nodeptr _Pnode = _Newnode; _Color(_Parent(_Pnode)) == _Red; )

  0012b	8b 55 f0	 mov	 edx, DWORD PTR __Newnode$[ebp]
  0012e	89 55 ec	 mov	 DWORD PTR __Pnode$200939[ebp], edx
$L200941:
  00131	8b 45 ec	 mov	 eax, DWORD PTR __Pnode$200939[ebp]
  00134	50		 push	 eax
  00135	e8 00 00 00 00	 call	 ?_Parent@?$_Tree@V?$_Tmap_traits@PAUHWND__@@UCWndData@@U?$less@PAUHWND__@@@std@@V?$allocator@U?$pair@QAUHWND__@@UCWndData@@@std@@@4@$0A@@std@@@std@@KAAAPAU_Node@?$_Tree_nod@V?$_Tmap_traits@PAUHWND__@@UCWndData@@U?$less@PAUHWND__@@@std@@V?$allocator@U?$pair@QAUHWND__@@UCWndData@@@std@@@4@$0A@@std@@@2@PAU342@@Z ; std::_Tree<std::_Tmap_traits<HWND__ *,CWndData,std::less<HWND__ *>,std::allocator<std::pair<HWND__ * const,CWndData> >,0> >::_Parent
  0013a	83 c4 04	 add	 esp, 4
  0013d	8b 08		 mov	 ecx, DWORD PTR [eax]
  0013f	51		 push	 ecx
  00140	e8 00 00 00 00	 call	 ?_Color@?$_Tree@V?$_Tmap_traits@PAUHWND__@@UCWndData@@U?$less@PAUHWND__@@@std@@V?$allocator@U?$pair@QAUHWND__@@UCWndData@@@std@@@4@$0A@@std@@@std@@KAAADPAU_Node@?$_Tree_nod@V?$_Tmap_traits@PAUHWND__@@UCWndData@@U?$less@PAUHWND__@@@std@@V?$allocator@U?$pair@QAUHWND__@@UCWndData@@@std@@@4@$0A@@std@@@2@@Z ; std::_Tree<std::_Tmap_traits<HWND__ *,CWndData,std::less<HWND__ *>,std::allocator<std::pair<HWND__ * const,CWndData> >,0> >::_Color
  00145	83 c4 04	 add	 esp, 4
  00148	0f be 10	 movsx	 edx, BYTE PTR [eax]
  0014b	85 d2		 test	 edx, edx
  0014d	0f 85 ce 02 00
	00		 jne	 $L200942

; 937  : 			if (_Parent(_Pnode) == _Left(_Parent(_Parent(_Pnode))))

  00153	8b 45 ec	 mov	 eax, DWORD PTR __Pnode$200939[ebp]
  00156	50		 push	 eax
  00157	e8 00 00 00 00	 call	 ?_Parent@?$_Tree@V?$_Tmap_traits@PAUHWND__@@UCWndData@@U?$less@PAUHWND__@@@std@@V?$allocator@U?$pair@QAUHWND__@@UCWndData@@@std@@@4@$0A@@std@@@std@@KAAAPAU_Node@?$_Tree_nod@V?$_Tmap_traits@PAUHWND__@@UCWndData@@U?$less@PAUHWND__@@@std@@V?$allocator@U?$pair@QAUHWND__@@UCWndData@@@std@@@4@$0A@@std@@@2@PAU342@@Z ; std::_Tree<std::_Tmap_traits<HWND__ *,CWndData,std::less<HWND__ *>,std::allocator<std::pair<HWND__ * const,CWndData> >,0> >::_Parent
  0015c	83 c4 04	 add	 esp, 4
  0015f	8b f0		 mov	 esi, eax
  00161	8b 4d ec	 mov	 ecx, DWORD PTR __Pnode$200939[ebp]
  00164	51		 push	 ecx
  00165	e8 00 00 00 00	 call	 ?_Parent@?$_Tree@V?$_Tmap_traits@PAUHWND__@@UCWndData@@U?$less@PAUHWND__@@@std@@V?$allocator@U?$pair@QAUHWND__@@UCWndData@@@std@@@4@$0A@@std@@@std@@KAAAPAU_Node@?$_Tree_nod@V?$_Tmap_traits@PAUHWND__@@UCWndData@@U?$less@PAUHWND__@@@std@@V?$allocator@U?$pair@QAUHWND__@@UCWndData@@@std@@@4@$0A@@std@@@2@PAU342@@Z ; std::_Tree<std::_Tmap_traits<HWND__ *,CWndData,std::less<HWND__ *>,std::allocator<std::pair<HWND__ * const,CWndData> >,0> >::_Parent
  0016a	83 c4 04	 add	 esp, 4
  0016d	8b 10		 mov	 edx, DWORD PTR [eax]
  0016f	52		 push	 edx
  00170	e8 00 00 00 00	 call	 ?_Parent@?$_Tree@V?$_Tmap_traits@PAUHWND__@@UCWndData@@U?$less@PAUHWND__@@@std@@V?$allocator@U?$pair@QAUHWND__@@UCWndData@@@std@@@4@$0A@@std@@@std@@KAAAPAU_Node@?$_Tree_nod@V?$_Tmap_traits@PAUHWND__@@UCWndData@@U?$less@PAUHWND__@@@std@@V?$allocator@U?$pair@QAUHWND__@@UCWndData@@@std@@@4@$0A@@std@@@2@PAU342@@Z ; std::_Tree<std::_Tmap_traits<HWND__ *,CWndData,std::less<HWND__ *>,std::allocator<std::pair<HWND__ * const,CWndData> >,0> >::_Parent
  00175	83 c4 04	 add	 esp, 4
  00178	8b 00		 mov	 eax, DWORD PTR [eax]
  0017a	50		 push	 eax
  0017b	e8 00 00 00 00	 call	 ?_Left@?$_Tree@V?$_Tmap_traits@PAUHWND__@@UCWndData@@U?$less@PAUHWND__@@@std@@V?$allocator@U?$pair@QAUHWND__@@UCWndData@@@std@@@4@$0A@@std@@@std@@KAAAPAU_Node@?$_Tree_nod@V?$_Tmap_traits@PAUHWND__@@UCWndData@@U?$less@PAUHWND__@@@std@@V?$allocator@U?$pair@QAUHWND__@@UCWndData@@@std@@@4@$0A@@std@@@2@PAU342@@Z ; std::_Tree<std::_Tmap_traits<HWND__ *,CWndData,std::less<HWND__ *>,std::allocator<std::pair<HWND__ * const,CWndData> >,0> >::_Left
  00180	83 c4 04	 add	 esp, 4
  00183	8b 0e		 mov	 ecx, DWORD PTR [esi]
  00185	3b 08		 cmp	 ecx, DWORD PTR [eax]
  00187	0f 85 4a 01 00
	00		 jne	 $L200943

; 938  : 				{	// fixup red-red in left subtree
; 939  : 				_Wherenode = _Right(_Parent(_Parent(_Pnode)));

  0018d	8b 55 ec	 mov	 edx, DWORD PTR __Pnode$200939[ebp]
  00190	52		 push	 edx
  00191	e8 00 00 00 00	 call	 ?_Parent@?$_Tree@V?$_Tmap_traits@PAUHWND__@@UCWndData@@U?$less@PAUHWND__@@@std@@V?$allocator@U?$pair@QAUHWND__@@UCWndData@@@std@@@4@$0A@@std@@@std@@KAAAPAU_Node@?$_Tree_nod@V?$_Tmap_traits@PAUHWND__@@UCWndData@@U?$less@PAUHWND__@@@std@@V?$allocator@U?$pair@QAUHWND__@@UCWndData@@@std@@@4@$0A@@std@@@2@PAU342@@Z ; std::_Tree<std::_Tmap_traits<HWND__ *,CWndData,std::less<HWND__ *>,std::allocator<std::pair<HWND__ * const,CWndData> >,0> >::_Parent
  00196	83 c4 04	 add	 esp, 4
  00199	8b 00		 mov	 eax, DWORD PTR [eax]
  0019b	50		 push	 eax
  0019c	e8 00 00 00 00	 call	 ?_Parent@?$_Tree@V?$_Tmap_traits@PAUHWND__@@UCWndData@@U?$less@PAUHWND__@@@std@@V?$allocator@U?$pair@QAUHWND__@@UCWndData@@@std@@@4@$0A@@std@@@std@@KAAAPAU_Node@?$_Tree_nod@V?$_Tmap_traits@PAUHWND__@@UCWndData@@U?$less@PAUHWND__@@@std@@V?$allocator@U?$pair@QAUHWND__@@UCWndData@@@std@@@4@$0A@@std@@@2@PAU342@@Z ; std::_Tree<std::_Tmap_traits<HWND__ *,CWndData,std::less<HWND__ *>,std::allocator<std::pair<HWND__ * const,CWndData> >,0> >::_Parent
  001a1	83 c4 04	 add	 esp, 4
  001a4	8b 08		 mov	 ecx, DWORD PTR [eax]
  001a6	51		 push	 ecx
  001a7	e8 00 00 00 00	 call	 ?_Right@?$_Tree@V?$_Tmap_traits@PAUHWND__@@UCWndData@@U?$less@PAUHWND__@@@std@@V?$allocator@U?$pair@QAUHWND__@@UCWndData@@@std@@@4@$0A@@std@@@std@@KAAAPAU_Node@?$_Tree_nod@V?$_Tmap_traits@PAUHWND__@@UCWndData@@U?$less@PAUHWND__@@@std@@V?$allocator@U?$pair@QAUHWND__@@UCWndData@@@std@@@4@$0A@@std@@@2@PAU342@@Z ; std::_Tree<std::_Tmap_traits<HWND__ *,CWndData,std::less<HWND__ *>,std::allocator<std::pair<HWND__ * const,CWndData> >,0> >::_Right
  001ac	83 c4 04	 add	 esp, 4
  001af	8b 10		 mov	 edx, DWORD PTR [eax]
  001b1	89 55 10	 mov	 DWORD PTR __Wherenode$[ebp], edx

; 940  : 				if (_Color(_Wherenode) == _Red)

  001b4	8b 45 10	 mov	 eax, DWORD PTR __Wherenode$[ebp]
  001b7	50		 push	 eax
  001b8	e8 00 00 00 00	 call	 ?_Color@?$_Tree@V?$_Tmap_traits@PAUHWND__@@UCWndData@@U?$less@PAUHWND__@@@std@@V?$allocator@U?$pair@QAUHWND__@@UCWndData@@@std@@@4@$0A@@std@@@std@@KAAADPAU_Node@?$_Tree_nod@V?$_Tmap_traits@PAUHWND__@@UCWndData@@U?$less@PAUHWND__@@@std@@V?$allocator@U?$pair@QAUHWND__@@UCWndData@@@std@@@4@$0A@@std@@@2@@Z ; std::_Tree<std::_Tmap_traits<HWND__ *,CWndData,std::less<HWND__ *>,std::allocator<std::pair<HWND__ * const,CWndData> >,0> >::_Color
  001bd	83 c4 04	 add	 esp, 4
  001c0	0f be 08	 movsx	 ecx, BYTE PTR [eax]
  001c3	85 c9		 test	 ecx, ecx
  001c5	75 6f		 jne	 SHORT $L200944

; 941  : 					{	// parent has two red children, blacken both
; 942  : 					_Color(_Parent(_Pnode)) = _Black;

  001c7	8b 55 ec	 mov	 edx, DWORD PTR __Pnode$200939[ebp]
  001ca	52		 push	 edx
  001cb	e8 00 00 00 00	 call	 ?_Parent@?$_Tree@V?$_Tmap_traits@PAUHWND__@@UCWndData@@U?$less@PAUHWND__@@@std@@V?$allocator@U?$pair@QAUHWND__@@UCWndData@@@std@@@4@$0A@@std@@@std@@KAAAPAU_Node@?$_Tree_nod@V?$_Tmap_traits@PAUHWND__@@UCWndData@@U?$less@PAUHWND__@@@std@@V?$allocator@U?$pair@QAUHWND__@@UCWndData@@@std@@@4@$0A@@std@@@2@PAU342@@Z ; std::_Tree<std::_Tmap_traits<HWND__ *,CWndData,std::less<HWND__ *>,std::allocator<std::pair<HWND__ * const,CWndData> >,0> >::_Parent
  001d0	83 c4 04	 add	 esp, 4
  001d3	8b 00		 mov	 eax, DWORD PTR [eax]
  001d5	50		 push	 eax
  001d6	e8 00 00 00 00	 call	 ?_Color@?$_Tree@V?$_Tmap_traits@PAUHWND__@@UCWndData@@U?$less@PAUHWND__@@@std@@V?$allocator@U?$pair@QAUHWND__@@UCWndData@@@std@@@4@$0A@@std@@@std@@KAAADPAU_Node@?$_Tree_nod@V?$_Tmap_traits@PAUHWND__@@UCWndData@@U?$less@PAUHWND__@@@std@@V?$allocator@U?$pair@QAUHWND__@@UCWndData@@@std@@@4@$0A@@std@@@2@@Z ; std::_Tree<std::_Tmap_traits<HWND__ *,CWndData,std::less<HWND__ *>,std::allocator<std::pair<HWND__ * const,CWndData> >,0> >::_Color
  001db	83 c4 04	 add	 esp, 4
  001de	c6 00 01	 mov	 BYTE PTR [eax], 1

; 943  : 					_Color(_Wherenode) = _Black;

  001e1	8b 4d 10	 mov	 ecx, DWORD PTR __Wherenode$[ebp]
  001e4	51		 push	 ecx
  001e5	e8 00 00 00 00	 call	 ?_Color@?$_Tree@V?$_Tmap_traits@PAUHWND__@@UCWndData@@U?$less@PAUHWND__@@@std@@V?$allocator@U?$pair@QAUHWND__@@UCWndData@@@std@@@4@$0A@@std@@@std@@KAAADPAU_Node@?$_Tree_nod@V?$_Tmap_traits@PAUHWND__@@UCWndData@@U?$less@PAUHWND__@@@std@@V?$allocator@U?$pair@QAUHWND__@@UCWndData@@@std@@@4@$0A@@std@@@2@@Z ; std::_Tree<std::_Tmap_traits<HWND__ *,CWndData,std::less<HWND__ *>,std::allocator<std::pair<HWND__ * const,CWndData> >,0> >::_Color
  001ea	83 c4 04	 add	 esp, 4
  001ed	c6 00 01	 mov	 BYTE PTR [eax], 1

; 944  : 					_Color(_Parent(_Parent(_Pnode))) = _Red;

  001f0	8b 55 ec	 mov	 edx, DWORD PTR __Pnode$200939[ebp]
  001f3	52		 push	 edx
  001f4	e8 00 00 00 00	 call	 ?_Parent@?$_Tree@V?$_Tmap_traits@PAUHWND__@@UCWndData@@U?$less@PAUHWND__@@@std@@V?$allocator@U?$pair@QAUHWND__@@UCWndData@@@std@@@4@$0A@@std@@@std@@KAAAPAU_Node@?$_Tree_nod@V?$_Tmap_traits@PAUHWND__@@UCWndData@@U?$less@PAUHWND__@@@std@@V?$allocator@U?$pair@QAUHWND__@@UCWndData@@@std@@@4@$0A@@std@@@2@PAU342@@Z ; std::_Tree<std::_Tmap_traits<HWND__ *,CWndData,std::less<HWND__ *>,std::allocator<std::pair<HWND__ * const,CWndData> >,0> >::_Parent
  001f9	83 c4 04	 add	 esp, 4
  001fc	8b 00		 mov	 eax, DWORD PTR [eax]
  001fe	50		 push	 eax
  001ff	e8 00 00 00 00	 call	 ?_Parent@?$_Tree@V?$_Tmap_traits@PAUHWND__@@UCWndData@@U?$less@PAUHWND__@@@std@@V?$allocator@U?$pair@QAUHWND__@@UCWndData@@@std@@@4@$0A@@std@@@std@@KAAAPAU_Node@?$_Tree_nod@V?$_Tmap_traits@PAUHWND__@@UCWndData@@U?$less@PAUHWND__@@@std@@V?$allocator@U?$pair@QAUHWND__@@UCWndData@@@std@@@4@$0A@@std@@@2@PAU342@@Z ; std::_Tree<std::_Tmap_traits<HWND__ *,CWndData,std::less<HWND__ *>,std::allocator<std::pair<HWND__ * const,CWndData> >,0> >::_Parent
  00204	83 c4 04	 add	 esp, 4
  00207	8b 08		 mov	 ecx, DWORD PTR [eax]
  00209	51		 push	 ecx
  0020a	e8 00 00 00 00	 call	 ?_Color@?$_Tree@V?$_Tmap_traits@PAUHWND__@@UCWndData@@U?$less@PAUHWND__@@@std@@V?$allocator@U?$pair@QAUHWND__@@UCWndData@@@std@@@4@$0A@@std@@@std@@KAAADPAU_Node@?$_Tree_nod@V?$_Tmap_traits@PAUHWND__@@UCWndData@@U?$less@PAUHWND__@@@std@@V?$allocator@U?$pair@QAUHWND__@@UCWndData@@@std@@@4@$0A@@std@@@2@@Z ; std::_Tree<std::_Tmap_traits<HWND__ *,CWndData,std::less<HWND__ *>,std::allocator<std::pair<HWND__ * const,CWndData> >,0> >::_Color
  0020f	83 c4 04	 add	 esp, 4
  00212	c6 00 00	 mov	 BYTE PTR [eax], 0

; 945  : 					_Pnode = _Parent(_Parent(_Pnode));

  00215	8b 55 ec	 mov	 edx, DWORD PTR __Pnode$200939[ebp]
  00218	52		 push	 edx
  00219	e8 00 00 00 00	 call	 ?_Parent@?$_Tree@V?$_Tmap_traits@PAUHWND__@@UCWndData@@U?$less@PAUHWND__@@@std@@V?$allocator@U?$pair@QAUHWND__@@UCWndData@@@std@@@4@$0A@@std@@@std@@KAAAPAU_Node@?$_Tree_nod@V?$_Tmap_traits@PAUHWND__@@UCWndData@@U?$less@PAUHWND__@@@std@@V?$allocator@U?$pair@QAUHWND__@@UCWndData@@@std@@@4@$0A@@std@@@2@PAU342@@Z ; std::_Tree<std::_Tmap_traits<HWND__ *,CWndData,std::less<HWND__ *>,std::allocator<std::pair<HWND__ * const,CWndData> >,0> >::_Parent
  0021e	83 c4 04	 add	 esp, 4
  00221	8b 00		 mov	 eax, DWORD PTR [eax]
  00223	50		 push	 eax
  00224	e8 00 00 00 00	 call	 ?_Parent@?$_Tree@V?$_Tmap_traits@PAUHWND__@@UCWndData@@U?$less@PAUHWND__@@@std@@V?$allocator@U?$pair@QAUHWND__@@UCWndData@@@std@@@4@$0A@@std@@@std@@KAAAPAU_Node@?$_Tree_nod@V?$_Tmap_traits@PAUHWND__@@UCWndData@@U?$less@PAUHWND__@@@std@@V?$allocator@U?$pair@QAUHWND__@@UCWndData@@@std@@@4@$0A@@std@@@2@PAU342@@Z ; std::_Tree<std::_Tmap_traits<HWND__ *,CWndData,std::less<HWND__ *>,std::allocator<std::pair<HWND__ * const,CWndData> >,0> >::_Parent
  00229	83 c4 04	 add	 esp, 4
  0022c	8b 08		 mov	 ecx, DWORD PTR [eax]
  0022e	89 4d ec	 mov	 DWORD PTR __Pnode$200939[ebp], ecx

; 946  : 					}
; 947  : 				else

  00231	e9 9c 00 00 00	 jmp	 $L200945
$L200944:

; 948  : 					{	// parent has red and black children
; 949  : 					if (_Pnode == _Right(_Parent(_Pnode)))

  00236	8b 55 ec	 mov	 edx, DWORD PTR __Pnode$200939[ebp]
  00239	52		 push	 edx
  0023a	e8 00 00 00 00	 call	 ?_Parent@?$_Tree@V?$_Tmap_traits@PAUHWND__@@UCWndData@@U?$less@PAUHWND__@@@std@@V?$allocator@U?$pair@QAUHWND__@@UCWndData@@@std@@@4@$0A@@std@@@std@@KAAAPAU_Node@?$_Tree_nod@V?$_Tmap_traits@PAUHWND__@@UCWndData@@U?$less@PAUHWND__@@@std@@V?$allocator@U?$pair@QAUHWND__@@UCWndData@@@std@@@4@$0A@@std@@@2@PAU342@@Z ; std::_Tree<std::_Tmap_traits<HWND__ *,CWndData,std::less<HWND__ *>,std::allocator<std::pair<HWND__ * const,CWndData> >,0> >::_Parent
  0023f	83 c4 04	 add	 esp, 4
  00242	8b 00		 mov	 eax, DWORD PTR [eax]
  00244	50		 push	 eax
  00245	e8 00 00 00 00	 call	 ?_Right@?$_Tree@V?$_Tmap_traits@PAUHWND__@@UCWndData@@U?$less@PAUHWND__@@@std@@V?$allocator@U?$pair@QAUHWND__@@UCWndData@@@std@@@4@$0A@@std@@@std@@KAAAPAU_Node@?$_Tree_nod@V?$_Tmap_traits@PAUHWND__@@UCWndData@@U?$less@PAUHWND__@@@std@@V?$allocator@U?$pair@QAUHWND__@@UCWndData@@@std@@@4@$0A@@std@@@2@PAU342@@Z ; std::_Tree<std::_Tmap_traits<HWND__ *,CWndData,std::less<HWND__ *>,std::allocator<std::pair<HWND__ * const,CWndData> >,0> >::_Right
  0024a	83 c4 04	 add	 esp, 4
  0024d	8b 4d ec	 mov	 ecx, DWORD PTR __Pnode$200939[ebp]
  00250	3b 08		 cmp	 ecx, DWORD PTR [eax]
  00252	75 1d		 jne	 SHORT $L200946

; 950  : 						{	// rotate right child to left
; 951  : 						_Pnode = _Parent(_Pnode);

  00254	8b 55 ec	 mov	 edx, DWORD PTR __Pnode$200939[ebp]
  00257	52		 push	 edx
  00258	e8 00 00 00 00	 call	 ?_Parent@?$_Tree@V?$_Tmap_traits@PAUHWND__@@UCWndData@@U?$less@PAUHWND__@@@std@@V?$allocator@U?$pair@QAUHWND__@@UCWndData@@@std@@@4@$0A@@std@@@std@@KAAAPAU_Node@?$_Tree_nod@V?$_Tmap_traits@PAUHWND__@@UCWndData@@U?$less@PAUHWND__@@@std@@V?$allocator@U?$pair@QAUHWND__@@UCWndData@@@std@@@4@$0A@@std@@@2@PAU342@@Z ; std::_Tree<std::_Tmap_traits<HWND__ *,CWndData,std::less<HWND__ *>,std::allocator<std::pair<HWND__ * const,CWndData> >,0> >::_Parent
  0025d	83 c4 04	 add	 esp, 4
  00260	8b 00		 mov	 eax, DWORD PTR [eax]
  00262	89 45 ec	 mov	 DWORD PTR __Pnode$200939[ebp], eax

; 952  : 						_Lrotate(_Pnode);

  00265	8b 4d ec	 mov	 ecx, DWORD PTR __Pnode$200939[ebp]
  00268	51		 push	 ecx
  00269	8b 4d a4	 mov	 ecx, DWORD PTR _this$[ebp]
  0026c	e8 00 00 00 00	 call	 ?_Lrotate@?$_Tree@V?$_Tmap_traits@PAUHWND__@@UCWndData@@U?$less@PAUHWND__@@@std@@V?$allocator@U?$pair@QAUHWND__@@UCWndData@@@std@@@4@$0A@@std@@@std@@IAEXPAU_Node@?$_Tree_nod@V?$_Tmap_traits@PAUHWND__@@UCWndData@@U?$less@PAUHWND__@@@std@@V?$allocator@U?$pair@QAUHWND__@@UCWndData@@@std@@@4@$0A@@std@@@2@@Z ; std::_Tree<std::_Tmap_traits<HWND__ *,CWndData,std::less<HWND__ *>,std::allocator<std::pair<HWND__ * const,CWndData> >,0> >::_Lrotate
$L200946:

; 953  : 						}
; 954  : 					_Color(_Parent(_Pnode)) = _Black;	// propagate red up

  00271	8b 55 ec	 mov	 edx, DWORD PTR __Pnode$200939[ebp]
  00274	52		 push	 edx
  00275	e8 00 00 00 00	 call	 ?_Parent@?$_Tree@V?$_Tmap_traits@PAUHWND__@@UCWndData@@U?$less@PAUHWND__@@@std@@V?$allocator@U?$pair@QAUHWND__@@UCWndData@@@std@@@4@$0A@@std@@@std@@KAAAPAU_Node@?$_Tree_nod@V?$_Tmap_traits@PAUHWND__@@UCWndData@@U?$less@PAUHWND__@@@std@@V?$allocator@U?$pair@QAUHWND__@@UCWndData@@@std@@@4@$0A@@std@@@2@PAU342@@Z ; std::_Tree<std::_Tmap_traits<HWND__ *,CWndData,std::less<HWND__ *>,std::allocator<std::pair<HWND__ * const,CWndData> >,0> >::_Parent
  0027a	83 c4 04	 add	 esp, 4
  0027d	8b 00		 mov	 eax, DWORD PTR [eax]
  0027f	50		 push	 eax
  00280	e8 00 00 00 00	 call	 ?_Color@?$_Tree@V?$_Tmap_traits@PAUHWND__@@UCWndData@@U?$less@PAUHWND__@@@std@@V?$allocator@U?$pair@QAUHWND__@@UCWndData@@@std@@@4@$0A@@std@@@std@@KAAADPAU_Node@?$_Tree_nod@V?$_Tmap_traits@PAUHWND__@@UCWndData@@U?$less@PAUHWND__@@@std@@V?$allocator@U?$pair@QAUHWND__@@UCWndData@@@std@@@4@$0A@@std@@@2@@Z ; std::_Tree<std::_Tmap_traits<HWND__ *,CWndData,std::less<HWND__ *>,std::allocator<std::pair<HWND__ * const,CWndData> >,0> >::_Color
  00285	83 c4 04	 add	 esp, 4
  00288	c6 00 01	 mov	 BYTE PTR [eax], 1

; 955  : 					_Color(_Parent(_Parent(_Pnode))) = _Red;

  0028b	8b 4d ec	 mov	 ecx, DWORD PTR __Pnode$200939[ebp]
  0028e	51		 push	 ecx
  0028f	e8 00 00 00 00	 call	 ?_Parent@?$_Tree@V?$_Tmap_traits@PAUHWND__@@UCWndData@@U?$less@PAUHWND__@@@std@@V?$allocator@U?$pair@QAUHWND__@@UCWndData@@@std@@@4@$0A@@std@@@std@@KAAAPAU_Node@?$_Tree_nod@V?$_Tmap_traits@PAUHWND__@@UCWndData@@U?$less@PAUHWND__@@@std@@V?$allocator@U?$pair@QAUHWND__@@UCWndData@@@std@@@4@$0A@@std@@@2@PAU342@@Z ; std::_Tree<std::_Tmap_traits<HWND__ *,CWndData,std::less<HWND__ *>,std::allocator<std::pair<HWND__ * const,CWndData> >,0> >::_Parent
  00294	83 c4 04	 add	 esp, 4
  00297	8b 10		 mov	 edx, DWORD PTR [eax]
  00299	52		 push	 edx
  0029a	e8 00 00 00 00	 call	 ?_Parent@?$_Tree@V?$_Tmap_traits@PAUHWND__@@UCWndData@@U?$less@PAUHWND__@@@std@@V?$allocator@U?$pair@QAUHWND__@@UCWndData@@@std@@@4@$0A@@std@@@std@@KAAAPAU_Node@?$_Tree_nod@V?$_Tmap_traits@PAUHWND__@@UCWndData@@U?$less@PAUHWND__@@@std@@V?$allocator@U?$pair@QAUHWND__@@UCWndData@@@std@@@4@$0A@@std@@@2@PAU342@@Z ; std::_Tree<std::_Tmap_traits<HWND__ *,CWndData,std::less<HWND__ *>,std::allocator<std::pair<HWND__ * const,CWndData> >,0> >::_Parent
  0029f	83 c4 04	 add	 esp, 4
  002a2	8b 00		 mov	 eax, DWORD PTR [eax]
  002a4	50		 push	 eax
  002a5	e8 00 00 00 00	 call	 ?_Color@?$_Tree@V?$_Tmap_traits@PAUHWND__@@UCWndData@@U?$less@PAUHWND__@@@std@@V?$allocator@U?$pair@QAUHWND__@@UCWndData@@@std@@@4@$0A@@std@@@std@@KAAADPAU_Node@?$_Tree_nod@V?$_Tmap_traits@PAUHWND__@@UCWndData@@U?$less@PAUHWND__@@@std@@V?$allocator@U?$pair@QAUHWND__@@UCWndData@@@std@@@4@$0A@@std@@@2@@Z ; std::_Tree<std::_Tmap_traits<HWND__ *,CWndData,std::less<HWND__ *>,std::allocator<std::pair<HWND__ * const,CWndData> >,0> >::_Color
  002aa	83 c4 04	 add	 esp, 4
  002ad	c6 00 00	 mov	 BYTE PTR [eax], 0

; 956  : 					_Rrotate(_Parent(_Parent(_Pnode)));

  002b0	8b 4d ec	 mov	 ecx, DWORD PTR __Pnode$200939[ebp]
  002b3	51		 push	 ecx
  002b4	e8 00 00 00 00	 call	 ?_Parent@?$_Tree@V?$_Tmap_traits@PAUHWND__@@UCWndData@@U?$less@PAUHWND__@@@std@@V?$allocator@U?$pair@QAUHWND__@@UCWndData@@@std@@@4@$0A@@std@@@std@@KAAAPAU_Node@?$_Tree_nod@V?$_Tmap_traits@PAUHWND__@@UCWndData@@U?$less@PAUHWND__@@@std@@V?$allocator@U?$pair@QAUHWND__@@UCWndData@@@std@@@4@$0A@@std@@@2@PAU342@@Z ; std::_Tree<std::_Tmap_traits<HWND__ *,CWndData,std::less<HWND__ *>,std::allocator<std::pair<HWND__ * const,CWndData> >,0> >::_Parent
  002b9	83 c4 04	 add	 esp, 4
  002bc	8b 10		 mov	 edx, DWORD PTR [eax]
  002be	52		 push	 edx
  002bf	e8 00 00 00 00	 call	 ?_Parent@?$_Tree@V?$_Tmap_traits@PAUHWND__@@UCWndData@@U?$less@PAUHWND__@@@std@@V?$allocator@U?$pair@QAUHWND__@@UCWndData@@@std@@@4@$0A@@std@@@std@@KAAAPAU_Node@?$_Tree_nod@V?$_Tmap_traits@PAUHWND__@@UCWndData@@U?$less@PAUHWND__@@@std@@V?$allocator@U?$pair@QAUHWND__@@UCWndData@@@std@@@4@$0A@@std@@@2@PAU342@@Z ; std::_Tree<std::_Tmap_traits<HWND__ *,CWndData,std::less<HWND__ *>,std::allocator<std::pair<HWND__ * const,CWndData> >,0> >::_Parent
  002c4	83 c4 04	 add	 esp, 4
  002c7	8b 00		 mov	 eax, DWORD PTR [eax]
  002c9	50		 push	 eax
  002ca	8b 4d a4	 mov	 ecx, DWORD PTR _this$[ebp]
  002cd	e8 00 00 00 00	 call	 ?_Rrotate@?$_Tree@V?$_Tmap_traits@PAUHWND__@@UCWndData@@U?$less@PAUHWND__@@@std@@V?$allocator@U?$pair@QAUHWND__@@UCWndData@@@std@@@4@$0A@@std@@@std@@IAEXPAU_Node@?$_Tree_nod@V?$_Tmap_traits@PAUHWND__@@UCWndData@@U?$less@PAUHWND__@@@std@@V?$allocator@U?$pair@QAUHWND__@@UCWndData@@@std@@@4@$0A@@std@@@2@@Z ; std::_Tree<std::_Tmap_traits<HWND__ *,CWndData,std::less<HWND__ *>,std::allocator<std::pair<HWND__ * const,CWndData> >,0> >::_Rrotate
$L200945:

; 957  : 					}
; 958  : 				}
; 959  : 			else

  002d2	e9 45 01 00 00	 jmp	 $L200947
$L200943:

; 960  : 				{	// fixup red-red in right subtree
; 961  : 				_Wherenode = _Left(_Parent(_Parent(_Pnode)));

  002d7	8b 4d ec	 mov	 ecx, DWORD PTR __Pnode$200939[ebp]
  002da	51		 push	 ecx
  002db	e8 00 00 00 00	 call	 ?_Parent@?$_Tree@V?$_Tmap_traits@PAUHWND__@@UCWndData@@U?$less@PAUHWND__@@@std@@V?$allocator@U?$pair@QAUHWND__@@UCWndData@@@std@@@4@$0A@@std@@@std@@KAAAPAU_Node@?$_Tree_nod@V?$_Tmap_traits@PAUHWND__@@UCWndData@@U?$less@PAUHWND__@@@std@@V?$allocator@U?$pair@QAUHWND__@@UCWndData@@@std@@@4@$0A@@std@@@2@PAU342@@Z ; std::_Tree<std::_Tmap_traits<HWND__ *,CWndData,std::less<HWND__ *>,std::allocator<std::pair<HWND__ * const,CWndData> >,0> >::_Parent
  002e0	83 c4 04	 add	 esp, 4
  002e3	8b 10		 mov	 edx, DWORD PTR [eax]
  002e5	52		 push	 edx
  002e6	e8 00 00 00 00	 call	 ?_Parent@?$_Tree@V?$_Tmap_traits@PAUHWND__@@UCWndData@@U?$less@PAUHWND__@@@std@@V?$allocator@U?$pair@QAUHWND__@@UCWndData@@@std@@@4@$0A@@std@@@std@@KAAAPAU_Node@?$_Tree_nod@V?$_Tmap_traits@PAUHWND__@@UCWndData@@U?$less@PAUHWND__@@@std@@V?$allocator@U?$pair@QAUHWND__@@UCWndData@@@std@@@4@$0A@@std@@@2@PAU342@@Z ; std::_Tree<std::_Tmap_traits<HWND__ *,CWndData,std::less<HWND__ *>,std::allocator<std::pair<HWND__ * const,CWndData> >,0> >::_Parent
  002eb	83 c4 04	 add	 esp, 4
  002ee	8b 00		 mov	 eax, DWORD PTR [eax]
  002f0	50		 push	 eax
  002f1	e8 00 00 00 00	 call	 ?_Left@?$_Tree@V?$_Tmap_traits@PAUHWND__@@UCWndData@@U?$less@PAUHWND__@@@std@@V?$allocator@U?$pair@QAUHWND__@@UCWndData@@@std@@@4@$0A@@std@@@std@@KAAAPAU_Node@?$_Tree_nod@V?$_Tmap_traits@PAUHWND__@@UCWndData@@U?$less@PAUHWND__@@@std@@V?$allocator@U?$pair@QAUHWND__@@UCWndData@@@std@@@4@$0A@@std@@@2@PAU342@@Z ; std::_Tree<std::_Tmap_traits<HWND__ *,CWndData,std::less<HWND__ *>,std::allocator<std::pair<HWND__ * const,CWndData> >,0> >::_Left
  002f6	83 c4 04	 add	 esp, 4
  002f9	8b 08		 mov	 ecx, DWORD PTR [eax]
  002fb	89 4d 10	 mov	 DWORD PTR __Wherenode$[ebp], ecx

; 962  : 				if (_Color(_Wherenode) == _Red)

  002fe	8b 55 10	 mov	 edx, DWORD PTR __Wherenode$[ebp]
  00301	52		 push	 edx
  00302	e8 00 00 00 00	 call	 ?_Color@?$_Tree@V?$_Tmap_traits@PAUHWND__@@UCWndData@@U?$less@PAUHWND__@@@std@@V?$allocator@U?$pair@QAUHWND__@@UCWndData@@@std@@@4@$0A@@std@@@std@@KAAADPAU_Node@?$_Tree_nod@V?$_Tmap_traits@PAUHWND__@@UCWndData@@U?$less@PAUHWND__@@@std@@V?$allocator@U?$pair@QAUHWND__@@UCWndData@@@std@@@4@$0A@@std@@@2@@Z ; std::_Tree<std::_Tmap_traits<HWND__ *,CWndData,std::less<HWND__ *>,std::allocator<std::pair<HWND__ * const,CWndData> >,0> >::_Color
  00307	83 c4 04	 add	 esp, 4
  0030a	0f be 00	 movsx	 eax, BYTE PTR [eax]
  0030d	85 c0		 test	 eax, eax
  0030f	75 6f		 jne	 SHORT $L200948

; 963  : 					{	// parent has two red children, blacken both
; 964  : 					_Color(_Parent(_Pnode)) = _Black;

  00311	8b 4d ec	 mov	 ecx, DWORD PTR __Pnode$200939[ebp]
  00314	51		 push	 ecx
  00315	e8 00 00 00 00	 call	 ?_Parent@?$_Tree@V?$_Tmap_traits@PAUHWND__@@UCWndData@@U?$less@PAUHWND__@@@std@@V?$allocator@U?$pair@QAUHWND__@@UCWndData@@@std@@@4@$0A@@std@@@std@@KAAAPAU_Node@?$_Tree_nod@V?$_Tmap_traits@PAUHWND__@@UCWndData@@U?$less@PAUHWND__@@@std@@V?$allocator@U?$pair@QAUHWND__@@UCWndData@@@std@@@4@$0A@@std@@@2@PAU342@@Z ; std::_Tree<std::_Tmap_traits<HWND__ *,CWndData,std::less<HWND__ *>,std::allocator<std::pair<HWND__ * const,CWndData> >,0> >::_Parent
  0031a	83 c4 04	 add	 esp, 4
  0031d	8b 10		 mov	 edx, DWORD PTR [eax]
  0031f	52		 push	 edx
  00320	e8 00 00 00 00	 call	 ?_Color@?$_Tree@V?$_Tmap_traits@PAUHWND__@@UCWndData@@U?$less@PAUHWND__@@@std@@V?$allocator@U?$pair@QAUHWND__@@UCWndData@@@std@@@4@$0A@@std@@@std@@KAAADPAU_Node@?$_Tree_nod@V?$_Tmap_traits@PAUHWND__@@UCWndData@@U?$less@PAUHWND__@@@std@@V?$allocator@U?$pair@QAUHWND__@@UCWndData@@@std@@@4@$0A@@std@@@2@@Z ; std::_Tree<std::_Tmap_traits<HWND__ *,CWndData,std::less<HWND__ *>,std::allocator<std::pair<HWND__ * const,CWndData> >,0> >::_Color
  00325	83 c4 04	 add	 esp, 4
  00328	c6 00 01	 mov	 BYTE PTR [eax], 1

; 965  : 					_Color(_Wherenode) = _Black;

  0032b	8b 45 10	 mov	 eax, DWORD PTR __Wherenode$[ebp]
  0032e	50		 push	 eax
  0032f	e8 00 00 00 00	 call	 ?_Color@?$_Tree@V?$_Tmap_traits@PAUHWND__@@UCWndData@@U?$less@PAUHWND__@@@std@@V?$allocator@U?$pair@QAUHWND__@@UCWndData@@@std@@@4@$0A@@std@@@std@@KAAADPAU_Node@?$_Tree_nod@V?$_Tmap_traits@PAUHWND__@@UCWndData@@U?$less@PAUHWND__@@@std@@V?$allocator@U?$pair@QAUHWND__@@UCWndData@@@std@@@4@$0A@@std@@@2@@Z ; std::_Tree<std::_Tmap_traits<HWND__ *,CWndData,std::less<HWND__ *>,std::allocator<std::pair<HWND__ * const,CWndData> >,0> >::_Color
  00334	83 c4 04	 add	 esp, 4
  00337	c6 00 01	 mov	 BYTE PTR [eax], 1

; 966  : 					_Color(_Parent(_Parent(_Pnode))) = _Red;

  0033a	8b 4d ec	 mov	 ecx, DWORD PTR __Pnode$200939[ebp]
  0033d	51		 push	 ecx
  0033e	e8 00 00 00 00	 call	 ?_Parent@?$_Tree@V?$_Tmap_traits@PAUHWND__@@UCWndData@@U?$less@PAUHWND__@@@std@@V?$allocator@U?$pair@QAUHWND__@@UCWndData@@@std@@@4@$0A@@std@@@std@@KAAAPAU_Node@?$_Tree_nod@V?$_Tmap_traits@PAUHWND__@@UCWndData@@U?$less@PAUHWND__@@@std@@V?$allocator@U?$pair@QAUHWND__@@UCWndData@@@std@@@4@$0A@@std@@@2@PAU342@@Z ; std::_Tree<std::_Tmap_traits<HWND__ *,CWndData,std::less<HWND__ *>,std::allocator<std::pair<HWND__ * const,CWndData> >,0> >::_Parent
  00343	83 c4 04	 add	 esp, 4
  00346	8b 10		 mov	 edx, DWORD PTR [eax]
  00348	52		 push	 edx
  00349	e8 00 00 00 00	 call	 ?_Parent@?$_Tree@V?$_Tmap_traits@PAUHWND__@@UCWndData@@U?$less@PAUHWND__@@@std@@V?$allocator@U?$pair@QAUHWND__@@UCWndData@@@std@@@4@$0A@@std@@@std@@KAAAPAU_Node@?$_Tree_nod@V?$_Tmap_traits@PAUHWND__@@UCWndData@@U?$less@PAUHWND__@@@std@@V?$allocator@U?$pair@QAUHWND__@@UCWndData@@@std@@@4@$0A@@std@@@2@PAU342@@Z ; std::_Tree<std::_Tmap_traits<HWND__ *,CWndData,std::less<HWND__ *>,std::allocator<std::pair<HWND__ * const,CWndData> >,0> >::_Parent
  0034e	83 c4 04	 add	 esp, 4
  00351	8b 00		 mov	 eax, DWORD PTR [eax]
  00353	50		 push	 eax
  00354	e8 00 00 00 00	 call	 ?_Color@?$_Tree@V?$_Tmap_traits@PAUHWND__@@UCWndData@@U?$less@PAUHWND__@@@std@@V?$allocator@U?$pair@QAUHWND__@@UCWndData@@@std@@@4@$0A@@std@@@std@@KAAADPAU_Node@?$_Tree_nod@V?$_Tmap_traits@PAUHWND__@@UCWndData@@U?$less@PAUHWND__@@@std@@V?$allocator@U?$pair@QAUHWND__@@UCWndData@@@std@@@4@$0A@@std@@@2@@Z ; std::_Tree<std::_Tmap_traits<HWND__ *,CWndData,std::less<HWND__ *>,std::allocator<std::pair<HWND__ * const,CWndData> >,0> >::_Color
  00359	83 c4 04	 add	 esp, 4
  0035c	c6 00 00	 mov	 BYTE PTR [eax], 0

; 967  : 					_Pnode = _Parent(_Parent(_Pnode));

  0035f	8b 4d ec	 mov	 ecx, DWORD PTR __Pnode$200939[ebp]
  00362	51		 push	 ecx
  00363	e8 00 00 00 00	 call	 ?_Parent@?$_Tree@V?$_Tmap_traits@PAUHWND__@@UCWndData@@U?$less@PAUHWND__@@@std@@V?$allocator@U?$pair@QAUHWND__@@UCWndData@@@std@@@4@$0A@@std@@@std@@KAAAPAU_Node@?$_Tree_nod@V?$_Tmap_traits@PAUHWND__@@UCWndData@@U?$less@PAUHWND__@@@std@@V?$allocator@U?$pair@QAUHWND__@@UCWndData@@@std@@@4@$0A@@std@@@2@PAU342@@Z ; std::_Tree<std::_Tmap_traits<HWND__ *,CWndData,std::less<HWND__ *>,std::allocator<std::pair<HWND__ * const,CWndData> >,0> >::_Parent
  00368	83 c4 04	 add	 esp, 4
  0036b	8b 10		 mov	 edx, DWORD PTR [eax]
  0036d	52		 push	 edx
  0036e	e8 00 00 00 00	 call	 ?_Parent@?$_Tree@V?$_Tmap_traits@PAUHWND__@@UCWndData@@U?$less@PAUHWND__@@@std@@V?$allocator@U?$pair@QAUHWND__@@UCWndData@@@std@@@4@$0A@@std@@@std@@KAAAPAU_Node@?$_Tree_nod@V?$_Tmap_traits@PAUHWND__@@UCWndData@@U?$less@PAUHWND__@@@std@@V?$allocator@U?$pair@QAUHWND__@@UCWndData@@@std@@@4@$0A@@std@@@2@PAU342@@Z ; std::_Tree<std::_Tmap_traits<HWND__ *,CWndData,std::less<HWND__ *>,std::allocator<std::pair<HWND__ * const,CWndData> >,0> >::_Parent
  00373	83 c4 04	 add	 esp, 4
  00376	8b 00		 mov	 eax, DWORD PTR [eax]
  00378	89 45 ec	 mov	 DWORD PTR __Pnode$200939[ebp], eax

; 968  : 					}
; 969  : 				else

  0037b	e9 9c 00 00 00	 jmp	 $L200947
$L200948:

; 970  : 					{	// parent has red and black children
; 971  : 					if (_Pnode == _Left(_Parent(_Pnode)))

  00380	8b 4d ec	 mov	 ecx, DWORD PTR __Pnode$200939[ebp]
  00383	51		 push	 ecx
  00384	e8 00 00 00 00	 call	 ?_Parent@?$_Tree@V?$_Tmap_traits@PAUHWND__@@UCWndData@@U?$less@PAUHWND__@@@std@@V?$allocator@U?$pair@QAUHWND__@@UCWndData@@@std@@@4@$0A@@std@@@std@@KAAAPAU_Node@?$_Tree_nod@V?$_Tmap_traits@PAUHWND__@@UCWndData@@U?$less@PAUHWND__@@@std@@V?$allocator@U?$pair@QAUHWND__@@UCWndData@@@std@@@4@$0A@@std@@@2@PAU342@@Z ; std::_Tree<std::_Tmap_traits<HWND__ *,CWndData,std::less<HWND__ *>,std::allocator<std::pair<HWND__ * const,CWndData> >,0> >::_Parent
  00389	83 c4 04	 add	 esp, 4
  0038c	8b 10		 mov	 edx, DWORD PTR [eax]
  0038e	52		 push	 edx
  0038f	e8 00 00 00 00	 call	 ?_Left@?$_Tree@V?$_Tmap_traits@PAUHWND__@@UCWndData@@U?$less@PAUHWND__@@@std@@V?$allocator@U?$pair@QAUHWND__@@UCWndData@@@std@@@4@$0A@@std@@@std@@KAAAPAU_Node@?$_Tree_nod@V?$_Tmap_traits@PAUHWND__@@UCWndData@@U?$less@PAUHWND__@@@std@@V?$allocator@U?$pair@QAUHWND__@@UCWndData@@@std@@@4@$0A@@std@@@2@PAU342@@Z ; std::_Tree<std::_Tmap_traits<HWND__ *,CWndData,std::less<HWND__ *>,std::allocator<std::pair<HWND__ * const,CWndData> >,0> >::_Left
  00394	83 c4 04	 add	 esp, 4
  00397	8b 4d ec	 mov	 ecx, DWORD PTR __Pnode$200939[ebp]
  0039a	3b 08		 cmp	 ecx, DWORD PTR [eax]
  0039c	75 1d		 jne	 SHORT $L200950

; 972  : 						{	// rotate left child to right
; 973  : 						_Pnode = _Parent(_Pnode);

  0039e	8b 55 ec	 mov	 edx, DWORD PTR __Pnode$200939[ebp]
  003a1	52		 push	 edx
  003a2	e8 00 00 00 00	 call	 ?_Parent@?$_Tree@V?$_Tmap_traits@PAUHWND__@@UCWndData@@U?$less@PAUHWND__@@@std@@V?$allocator@U?$pair@QAUHWND__@@UCWndData@@@std@@@4@$0A@@std@@@std@@KAAAPAU_Node@?$_Tree_nod@V?$_Tmap_traits@PAUHWND__@@UCWndData@@U?$less@PAUHWND__@@@std@@V?$allocator@U?$pair@QAUHWND__@@UCWndData@@@std@@@4@$0A@@std@@@2@PAU342@@Z ; std::_Tree<std::_Tmap_traits<HWND__ *,CWndData,std::less<HWND__ *>,std::allocator<std::pair<HWND__ * const,CWndData> >,0> >::_Parent
  003a7	83 c4 04	 add	 esp, 4
  003aa	8b 00		 mov	 eax, DWORD PTR [eax]
  003ac	89 45 ec	 mov	 DWORD PTR __Pnode$200939[ebp], eax

; 974  : 						_Rrotate(_Pnode);

  003af	8b 4d ec	 mov	 ecx, DWORD PTR __Pnode$200939[ebp]
  003b2	51		 push	 ecx
  003b3	8b 4d a4	 mov	 ecx, DWORD PTR _this$[ebp]
  003b6	e8 00 00 00 00	 call	 ?_Rrotate@?$_Tree@V?$_Tmap_traits@PAUHWND__@@UCWndData@@U?$less@PAUHWND__@@@std@@V?$allocator@U?$pair@QAUHWND__@@UCWndData@@@std@@@4@$0A@@std@@@std@@IAEXPAU_Node@?$_Tree_nod@V?$_Tmap_traits@PAUHWND__@@UCWndData@@U?$less@PAUHWND__@@@std@@V?$allocator@U?$pair@QAUHWND__@@UCWndData@@@std@@@4@$0A@@std@@@2@@Z ; std::_Tree<std::_Tmap_traits<HWND__ *,CWndData,std::less<HWND__ *>,std::allocator<std::pair<HWND__ * const,CWndData> >,0> >::_Rrotate
$L200950:

; 975  : 						}
; 976  : 					_Color(_Parent(_Pnode)) = _Black;	// propagate red up

  003bb	8b 55 ec	 mov	 edx, DWORD PTR __Pnode$200939[ebp]
  003be	52		 push	 edx
  003bf	e8 00 00 00 00	 call	 ?_Parent@?$_Tree@V?$_Tmap_traits@PAUHWND__@@UCWndData@@U?$less@PAUHWND__@@@std@@V?$allocator@U?$pair@QAUHWND__@@UCWndData@@@std@@@4@$0A@@std@@@std@@KAAAPAU_Node@?$_Tree_nod@V?$_Tmap_traits@PAUHWND__@@UCWndData@@U?$less@PAUHWND__@@@std@@V?$allocator@U?$pair@QAUHWND__@@UCWndData@@@std@@@4@$0A@@std@@@2@PAU342@@Z ; std::_Tree<std::_Tmap_traits<HWND__ *,CWndData,std::less<HWND__ *>,std::allocator<std::pair<HWND__ * const,CWndData> >,0> >::_Parent
  003c4	83 c4 04	 add	 esp, 4
  003c7	8b 00		 mov	 eax, DWORD PTR [eax]
  003c9	50		 push	 eax
  003ca	e8 00 00 00 00	 call	 ?_Color@?$_Tree@V?$_Tmap_traits@PAUHWND__@@UCWndData@@U?$less@PAUHWND__@@@std@@V?$allocator@U?$pair@QAUHWND__@@UCWndData@@@std@@@4@$0A@@std@@@std@@KAAADPAU_Node@?$_Tree_nod@V?$_Tmap_traits@PAUHWND__@@UCWndData@@U?$less@PAUHWND__@@@std@@V?$allocator@U?$pair@QAUHWND__@@UCWndData@@@std@@@4@$0A@@std@@@2@@Z ; std::_Tree<std::_Tmap_traits<HWND__ *,CWndData,std::less<HWND__ *>,std::allocator<std::pair<HWND__ * const,CWndData> >,0> >::_Color
  003cf	83 c4 04	 add	 esp, 4
  003d2	c6 00 01	 mov	 BYTE PTR [eax], 1

; 977  : 					_Color(_Parent(_Parent(_Pnode))) = _Red;

  003d5	8b 4d ec	 mov	 ecx, DWORD PTR __Pnode$200939[ebp]
  003d8	51		 push	 ecx
  003d9	e8 00 00 00 00	 call	 ?_Parent@?$_Tree@V?$_Tmap_traits@PAUHWND__@@UCWndData@@U?$less@PAUHWND__@@@std@@V?$allocator@U?$pair@QAUHWND__@@UCWndData@@@std@@@4@$0A@@std@@@std@@KAAAPAU_Node@?$_Tree_nod@V?$_Tmap_traits@PAUHWND__@@UCWndData@@U?$less@PAUHWND__@@@std@@V?$allocator@U?$pair@QAUHWND__@@UCWndData@@@std@@@4@$0A@@std@@@2@PAU342@@Z ; std::_Tree<std::_Tmap_traits<HWND__ *,CWndData,std::less<HWND__ *>,std::allocator<std::pair<HWND__ * const,CWndData> >,0> >::_Parent
  003de	83 c4 04	 add	 esp, 4
  003e1	8b 10		 mov	 edx, DWORD PTR [eax]
  003e3	52		 push	 edx
  003e4	e8 00 00 00 00	 call	 ?_Parent@?$_Tree@V?$_Tmap_traits@PAUHWND__@@UCWndData@@U?$less@PAUHWND__@@@std@@V?$allocator@U?$pair@QAUHWND__@@UCWndData@@@std@@@4@$0A@@std@@@std@@KAAAPAU_Node@?$_Tree_nod@V?$_Tmap_traits@PAUHWND__@@UCWndData@@U?$less@PAUHWND__@@@std@@V?$allocator@U?$pair@QAUHWND__@@UCWndData@@@std@@@4@$0A@@std@@@2@PAU342@@Z ; std::_Tree<std::_Tmap_traits<HWND__ *,CWndData,std::less<HWND__ *>,std::allocator<std::pair<HWND__ * const,CWndData> >,0> >::_Parent
  003e9	83 c4 04	 add	 esp, 4
  003ec	8b 00		 mov	 eax, DWORD PTR [eax]
  003ee	50		 push	 eax
  003ef	e8 00 00 00 00	 call	 ?_Color@?$_Tree@V?$_Tmap_traits@PAUHWND__@@UCWndData@@U?$less@PAUHWND__@@@std@@V?$allocator@U?$pair@QAUHWND__@@UCWndData@@@std@@@4@$0A@@std@@@std@@KAAADPAU_Node@?$_Tree_nod@V?$_Tmap_traits@PAUHWND__@@UCWndData@@U?$less@PAUHWND__@@@std@@V?$allocator@U?$pair@QAUHWND__@@UCWndData@@@std@@@4@$0A@@std@@@2@@Z ; std::_Tree<std::_Tmap_traits<HWND__ *,CWndData,std::less<HWND__ *>,std::allocator<std::pair<HWND__ * const,CWndData> >,0> >::_Color
  003f4	83 c4 04	 add	 esp, 4
  003f7	c6 00 00	 mov	 BYTE PTR [eax], 0

; 978  : 					_Lrotate(_Parent(_Parent(_Pnode)));

  003fa	8b 4d ec	 mov	 ecx, DWORD PTR __Pnode$200939[ebp]
  003fd	51		 push	 ecx
  003fe	e8 00 00 00 00	 call	 ?_Parent@?$_Tree@V?$_Tmap_traits@PAUHWND__@@UCWndData@@U?$less@PAUHWND__@@@std@@V?$allocator@U?$pair@QAUHWND__@@UCWndData@@@std@@@4@$0A@@std@@@std@@KAAAPAU_Node@?$_Tree_nod@V?$_Tmap_traits@PAUHWND__@@UCWndData@@U?$less@PAUHWND__@@@std@@V?$allocator@U?$pair@QAUHWND__@@UCWndData@@@std@@@4@$0A@@std@@@2@PAU342@@Z ; std::_Tree<std::_Tmap_traits<HWND__ *,CWndData,std::less<HWND__ *>,std::allocator<std::pair<HWND__ * const,CWndData> >,0> >::_Parent
  00403	83 c4 04	 add	 esp, 4
  00406	8b 10		 mov	 edx, DWORD PTR [eax]
  00408	52		 push	 edx
  00409	e8 00 00 00 00	 call	 ?_Parent@?$_Tree@V?$_Tmap_traits@PAUHWND__@@UCWndData@@U?$less@PAUHWND__@@@std@@V?$allocator@U?$pair@QAUHWND__@@UCWndData@@@std@@@4@$0A@@std@@@std@@KAAAPAU_Node@?$_Tree_nod@V?$_Tmap_traits@PAUHWND__@@UCWndData@@U?$less@PAUHWND__@@@std@@V?$allocator@U?$pair@QAUHWND__@@UCWndData@@@std@@@4@$0A@@std@@@2@PAU342@@Z ; std::_Tree<std::_Tmap_traits<HWND__ *,CWndData,std::less<HWND__ *>,std::allocator<std::pair<HWND__ * const,CWndData> >,0> >::_Parent
  0040e	83 c4 04	 add	 esp, 4
  00411	8b 00		 mov	 eax, DWORD PTR [eax]
  00413	50		 push	 eax
  00414	8b 4d a4	 mov	 ecx, DWORD PTR _this$[ebp]
  00417	e8 00 00 00 00	 call	 ?_Lrotate@?$_Tree@V?$_Tmap_traits@PAUHWND__@@UCWndData@@U?$less@PAUHWND__@@@std@@V?$allocator@U?$pair@QAUHWND__@@UCWndData@@@std@@@4@$0A@@std@@@std@@IAEXPAU_Node@?$_Tree_nod@V?$_Tmap_traits@PAUHWND__@@UCWndData@@U?$less@PAUHWND__@@@std@@V?$allocator@U?$pair@QAUHWND__@@UCWndData@@@std@@@4@$0A@@std@@@2@@Z ; std::_Tree<std::_Tmap_traits<HWND__ *,CWndData,std::less<HWND__ *>,std::allocator<std::pair<HWND__ * const,CWndData> >,0> >::_Lrotate
$L200947:

; 979  : 					}
; 980  : 				}

  0041c	e9 10 fd ff ff	 jmp	 $L200941
$L200942:

; 981  : 
; 982  : 		_Color(_Root()) = _Black;	// root is always black

  00421	8b 4d a4	 mov	 ecx, DWORD PTR _this$[ebp]
  00424	e8 00 00 00 00	 call	 ?_Root@?$_Tree@V?$_Tmap_traits@PAUHWND__@@UCWndData@@U?$less@PAUHWND__@@@std@@V?$allocator@U?$pair@QAUHWND__@@UCWndData@@@std@@@4@$0A@@std@@@std@@IAEAAPAU_Node@?$_Tree_nod@V?$_Tmap_traits@PAUHWND__@@UCWndData@@U?$less@PAUHWND__@@@std@@V?$allocator@U?$pair@QAUHWND__@@UCWndData@@@std@@@4@$0A@@std@@@2@XZ ; std::_Tree<std::_Tmap_traits<HWND__ *,CWndData,std::less<HWND__ *>,std::allocator<std::pair<HWND__ * const,CWndData> >,0> >::_Root
  00429	8b 08		 mov	 ecx, DWORD PTR [eax]
  0042b	51		 push	 ecx
  0042c	e8 00 00 00 00	 call	 ?_Color@?$_Tree@V?$_Tmap_traits@PAUHWND__@@UCWndData@@U?$less@PAUHWND__@@@std@@V?$allocator@U?$pair@QAUHWND__@@UCWndData@@@std@@@4@$0A@@std@@@std@@KAAADPAU_Node@?$_Tree_nod@V?$_Tmap_traits@PAUHWND__@@UCWndData@@U?$less@PAUHWND__@@@std@@V?$allocator@U?$pair@QAUHWND__@@UCWndData@@@std@@@4@$0A@@std@@@2@@Z ; std::_Tree<std::_Tmap_traits<HWND__ *,CWndData,std::less<HWND__ *>,std::allocator<std::pair<HWND__ * const,CWndData> >,0> >::_Color
  00431	83 c4 04	 add	 esp, 4
  00434	c6 00 01	 mov	 BYTE PTR [eax], 1

; 983  : 		return (_TREE_ITERATOR(_Newnode));

  00437	8b 55 f0	 mov	 edx, DWORD PTR __Newnode$[ebp]
  0043a	52		 push	 edx
  0043b	8b 4d 08	 mov	 ecx, DWORD PTR ___$ReturnUdt$[ebp]
  0043e	e8 00 00 00 00	 call	 ??0iterator@?$_Tree@V?$_Tmap_traits@PAUHWND__@@UCWndData@@U?$less@PAUHWND__@@@std@@V?$allocator@U?$pair@QAUHWND__@@UCWndData@@@std@@@4@$0A@@std@@@std@@QAE@PAU_Node@?$_Tree_nod@V?$_Tmap_traits@PAUHWND__@@UCWndData@@U?$less@PAUHWND__@@@std@@V?$allocator@U?$pair@QAUHWND__@@UCWndData@@@std@@@4@$0A@@std@@@2@@Z ; std::_Tree<std::_Tmap_traits<HWND__ *,CWndData,std::less<HWND__ *>,std::allocator<std::pair<HWND__ * const,CWndData> >,0> >::iterator::iterator
  00443	8b 45 08	 mov	 eax, DWORD PTR ___$ReturnUdt$[ebp]
$L202783:

; 984  : 		}

  00446	8b 4d f4	 mov	 ecx, DWORD PTR __$EHRec$[ebp]
  00449	64 89 0d 00 00
	00 00		 mov	 DWORD PTR fs:__except_list, ecx
  00450	5e		 pop	 esi
  00451	8b e5		 mov	 esp, ebp
  00453	5d		 pop	 ebp
  00454	c2 10 00	 ret	 16			; 00000010H
_TEXT	ENDS
;	COMDAT text$x
text$x	SEGMENT
$L202787:
  00000	8d 4d a8	 lea	 ecx, DWORD PTR $T202785[ebp]
  00003	ff 25 00 00 00
	00		 jmp	 DWORD PTR __imp_??1?$basic_string@DU?$char_traits@D@std@@V?$allocator@D@2@@std@@QAE@XZ
__ehhandler$?_Insert@?$_Tree@V?$_Tmap_traits@PAUHWND__@@UCWndData@@U?$less@PAUHWND__@@@std@@V?$allocator@U?$pair@QAUHWND__@@UCWndData@@@std@@@4@$0A@@std@@@std@@IAE?AViterator@12@_NPAU_Node@?$_Tree_nod@V?$_Tmap_traits@PAUHWND__@@UCWndData@@U?$less@PAUHWND__@@@std@@V?$allocator@U?$pair@QAUHWND__@@UCWndData@@@std@@@4@$0A@@std@@@2@ABU?$pair@QAUHWND__@@UCWndData@@@2@@Z:
  00009	b8 00 00 00 00	 mov	 eax, OFFSET FLAT:$T202789
  0000e	e9 00 00 00 00	 jmp	 ___CxxFrameHandler
text$x	ENDS
?_Insert@?$_Tree@V?$_Tmap_traits@PAUHWND__@@UCWndData@@U?$less@PAUHWND__@@@std@@V?$allocator@U?$pair@QAUHWND__@@UCWndData@@@std@@@4@$0A@@std@@@std@@IAE?AViterator@12@_NPAU_Node@?$_Tree_nod@V?$_Tmap_traits@PAUHWND__@@UCWndData@@U?$less@PAUHWND__@@@std@@V?$allocator@U?$pair@QAUHWND__@@UCWndData@@@std@@@4@$0A@@std@@@2@ABU?$pair@QAUHWND__@@UCWndData@@@2@@Z ENDP ; std::_Tree<std::_Tmap_traits<HWND__ *,CWndData,std::less<HWND__ *>,std::allocator<std::pair<HWND__ * const,CWndData> >,0> >::_Insert
PUBLIC	?_Root@?$_Tree@V?$_Tmap_traits@PAUHWND__@@UCWndData@@U?$less@PAUHWND__@@@std@@V?$allocator@U?$pair@QAUHWND__@@UCWndData@@@std@@@4@$0A@@std@@@std@@IBEAAPAU_Node@?$_Tree_nod@V?$_Tmap_traits@PAUHWND__@@UCWndData@@U?$less@PAUHWND__@@@std@@V?$allocator@U?$pair@QAUHWND__@@UCWndData@@@std@@@4@$0A@@std@@@2@XZ ; std::_Tree<std::_Tmap_traits<HWND__ *,CWndData,std::less<HWND__ *>,std::allocator<std::pair<HWND__ * const,CWndData> >,0> >::_Root
; Function compile flags: /Odt
;	COMDAT ?_Lbound@?$_Tree@V?$_Tmap_traits@PAUHWND__@@UCWndData@@U?$less@PAUHWND__@@@std@@V?$allocator@U?$pair@QAUHWND__@@UCWndData@@@std@@@4@$0A@@std@@@std@@IBEPAU_Node@?$_Tree_nod@V?$_Tmap_traits@PAUHWND__@@UCWndData@@U?$less@PAUHWND__@@@std@@V?$allocator@U?$pair@QAUHWND__@@UCWndData@@@std@@@4@$0A@@std@@@2@ABQAUHWND__@@@Z
_TEXT	SEGMENT
_this$ = -12						; size = 4
__Pnode$ = -8						; size = 4
__Wherenode$ = -4					; size = 4
__Keyval$ = 8						; size = 4
?_Lbound@?$_Tree@V?$_Tmap_traits@PAUHWND__@@UCWndData@@U?$less@PAUHWND__@@@std@@V?$allocator@U?$pair@QAUHWND__@@UCWndData@@@std@@@4@$0A@@std@@@std@@IBEPAU_Node@?$_Tree_nod@V?$_Tmap_traits@PAUHWND__@@UCWndData@@U?$less@PAUHWND__@@@std@@V?$allocator@U?$pair@QAUHWND__@@UCWndData@@@std@@@4@$0A@@std@@@2@ABQAUHWND__@@@Z PROC NEAR ; std::_Tree<std::_Tmap_traits<HWND__ *,CWndData,std::less<HWND__ *>,std::allocator<std::pair<HWND__ * const,CWndData> >,0> >::_Lbound, COMDAT
; _this$ = ecx

; 987  : 		{	// find leftmost node not less than _Keyval

  00000	55		 push	 ebp
  00001	8b ec		 mov	 ebp, esp
  00003	83 ec 0c	 sub	 esp, 12			; 0000000cH
  00006	89 4d f4	 mov	 DWORD PTR _this$[ebp], ecx

; 988  : 		_Nodeptr _Pnode = _Root();

  00009	8b 4d f4	 mov	 ecx, DWORD PTR _this$[ebp]
  0000c	e8 00 00 00 00	 call	 ?_Root@?$_Tree@V?$_Tmap_traits@PAUHWND__@@UCWndData@@U?$less@PAUHWND__@@@std@@V?$allocator@U?$pair@QAUHWND__@@UCWndData@@@std@@@4@$0A@@std@@@std@@IBEAAPAU_Node@?$_Tree_nod@V?$_Tmap_traits@PAUHWND__@@UCWndData@@U?$less@PAUHWND__@@@std@@V?$allocator@U?$pair@QAUHWND__@@UCWndData@@@std@@@4@$0A@@std@@@2@XZ ; std::_Tree<std::_Tmap_traits<HWND__ *,CWndData,std::less<HWND__ *>,std::allocator<std::pair<HWND__ * const,CWndData> >,0> >::_Root
  00011	8b 00		 mov	 eax, DWORD PTR [eax]
  00013	89 45 f8	 mov	 DWORD PTR __Pnode$[ebp], eax

; 989  : 		_Nodeptr _Wherenode = _Myhead;	// end() if search fails

  00016	8b 4d f4	 mov	 ecx, DWORD PTR _this$[ebp]
  00019	8b 51 04	 mov	 edx, DWORD PTR [ecx+4]
  0001c	89 55 fc	 mov	 DWORD PTR __Wherenode$[ebp], edx
$L200957:

; 990  : 
; 991  : 		while (!_Isnil(_Pnode))

  0001f	8b 45 f8	 mov	 eax, DWORD PTR __Pnode$[ebp]
  00022	50		 push	 eax
  00023	e8 00 00 00 00	 call	 ?_Isnil@?$_Tree@V?$_Tmap_traits@PAUHWND__@@UCWndData@@U?$less@PAUHWND__@@@std@@V?$allocator@U?$pair@QAUHWND__@@UCWndData@@@std@@@4@$0A@@std@@@std@@KAAADPAU_Node@?$_Tree_nod@V?$_Tmap_traits@PAUHWND__@@UCWndData@@U?$less@PAUHWND__@@@std@@V?$allocator@U?$pair@QAUHWND__@@UCWndData@@@std@@@4@$0A@@std@@@2@@Z ; std::_Tree<std::_Tmap_traits<HWND__ *,CWndData,std::less<HWND__ *>,std::allocator<std::pair<HWND__ * const,CWndData> >,0> >::_Isnil
  00028	83 c4 04	 add	 esp, 4
  0002b	0f be 08	 movsx	 ecx, BYTE PTR [eax]
  0002e	85 c9		 test	 ecx, ecx
  00030	75 4c		 jne	 SHORT $L200958

; 992  : 			if (this->comp(_Key(_Pnode), _Keyval))

  00032	8b 55 08	 mov	 edx, DWORD PTR __Keyval$[ebp]
  00035	52		 push	 edx
  00036	8b 45 f8	 mov	 eax, DWORD PTR __Pnode$[ebp]
  00039	50		 push	 eax
  0003a	e8 00 00 00 00	 call	 ?_Key@?$_Tree@V?$_Tmap_traits@PAUHWND__@@UCWndData@@U?$less@PAUHWND__@@@std@@V?$allocator@U?$pair@QAUHWND__@@UCWndData@@@std@@@4@$0A@@std@@@std@@KAABQAUHWND__@@PAU_Node@?$_Tree_nod@V?$_Tmap_traits@PAUHWND__@@UCWndData@@U?$less@PAUHWND__@@@std@@V?$allocator@U?$pair@QAUHWND__@@UCWndData@@@std@@@4@$0A@@std@@@2@@Z ; std::_Tree<std::_Tmap_traits<HWND__ *,CWndData,std::less<HWND__ *>,std::allocator<std::pair<HWND__ * const,CWndData> >,0> >::_Key
  0003f	83 c4 04	 add	 esp, 4
  00042	50		 push	 eax
  00043	8b 4d f4	 mov	 ecx, DWORD PTR _this$[ebp]
  00046	e8 00 00 00 00	 call	 ??R?$less@PAUHWND__@@@std@@QBE_NABQAUHWND__@@0@Z ; std::less<HWND__ *>::operator()
  0004b	0f b6 c8	 movzx	 ecx, al
  0004e	85 c9		 test	 ecx, ecx
  00050	74 13		 je	 SHORT $L200959

; 993  : 				_Pnode = _Right(_Pnode);	// descend right subtree

  00052	8b 55 f8	 mov	 edx, DWORD PTR __Pnode$[ebp]
  00055	52		 push	 edx
  00056	e8 00 00 00 00	 call	 ?_Right@?$_Tree@V?$_Tmap_traits@PAUHWND__@@UCWndData@@U?$less@PAUHWND__@@@std@@V?$allocator@U?$pair@QAUHWND__@@UCWndData@@@std@@@4@$0A@@std@@@std@@KAAAPAU_Node@?$_Tree_nod@V?$_Tmap_traits@PAUHWND__@@UCWndData@@U?$less@PAUHWND__@@@std@@V?$allocator@U?$pair@QAUHWND__@@UCWndData@@@std@@@4@$0A@@std@@@2@PAU342@@Z ; std::_Tree<std::_Tmap_traits<HWND__ *,CWndData,std::less<HWND__ *>,std::allocator<std::pair<HWND__ * const,CWndData> >,0> >::_Right
  0005b	83 c4 04	 add	 esp, 4
  0005e	8b 00		 mov	 eax, DWORD PTR [eax]
  00060	89 45 f8	 mov	 DWORD PTR __Pnode$[ebp], eax

; 994  : 			else

  00063	eb 17		 jmp	 SHORT $L200960
$L200959:

; 995  : 				{	// _Pnode not less than _Keyval, remember it
; 996  : 				_Wherenode = _Pnode;

  00065	8b 4d f8	 mov	 ecx, DWORD PTR __Pnode$[ebp]
  00068	89 4d fc	 mov	 DWORD PTR __Wherenode$[ebp], ecx

; 997  : 				_Pnode = _Left(_Pnode);	// descend left subtree

  0006b	8b 55 f8	 mov	 edx, DWORD PTR __Pnode$[ebp]
  0006e	52		 push	 edx
  0006f	e8 00 00 00 00	 call	 ?_Left@?$_Tree@V?$_Tmap_traits@PAUHWND__@@UCWndData@@U?$less@PAUHWND__@@@std@@V?$allocator@U?$pair@QAUHWND__@@UCWndData@@@std@@@4@$0A@@std@@@std@@KAAAPAU_Node@?$_Tree_nod@V?$_Tmap_traits@PAUHWND__@@UCWndData@@U?$less@PAUHWND__@@@std@@V?$allocator@U?$pair@QAUHWND__@@UCWndData@@@std@@@4@$0A@@std@@@2@PAU342@@Z ; std::_Tree<std::_Tmap_traits<HWND__ *,CWndData,std::less<HWND__ *>,std::allocator<std::pair<HWND__ * const,CWndData> >,0> >::_Left
  00074	83 c4 04	 add	 esp, 4
  00077	8b 00		 mov	 eax, DWORD PTR [eax]
  00079	89 45 f8	 mov	 DWORD PTR __Pnode$[ebp], eax
$L200960:

; 998  : 				}

  0007c	eb a1		 jmp	 SHORT $L200957
$L200958:

; 999  : 
; 1000 : 		return (_Wherenode);	// return best remembered candidate

  0007e	8b 45 fc	 mov	 eax, DWORD PTR __Wherenode$[ebp]

; 1001 : 		}

  00081	8b e5		 mov	 esp, ebp
  00083	5d		 pop	 ebp
  00084	c2 04 00	 ret	 4
?_Lbound@?$_Tree@V?$_Tmap_traits@PAUHWND__@@UCWndData@@U?$less@PAUHWND__@@@std@@V?$allocator@U?$pair@QAUHWND__@@UCWndData@@@std@@@4@$0A@@std@@@std@@IBEPAU_Node@?$_Tree_nod@V?$_Tmap_traits@PAUHWND__@@UCWndData@@U?$less@PAUHWND__@@@std@@V?$allocator@U?$pair@QAUHWND__@@UCWndData@@@std@@@4@$0A@@std@@@2@ABQAUHWND__@@@Z ENDP ; std::_Tree<std::_Tmap_traits<HWND__ *,CWndData,std::less<HWND__ *>,std::allocator<std::pair<HWND__ * const,CWndData> >,0> >::_Lbound
; Function compile flags: /Odt
_TEXT	ENDS
;	COMDAT ?_Rmost@?$_Tree@V?$_Tmap_traits@PAUHWND__@@UCWndData@@U?$less@PAUHWND__@@@std@@V?$allocator@U?$pair@QAUHWND__@@UCWndData@@@std@@@4@$0A@@std@@@std@@IAEAAPAU_Node@?$_Tree_nod@V?$_Tmap_traits@PAUHWND__@@UCWndData@@U?$less@PAUHWND__@@@std@@V?$allocator@U?$pair@QAUHWND__@@UCWndData@@@std@@@4@$0A@@std@@@2@XZ
_TEXT	SEGMENT
_this$ = -4						; size = 4
?_Rmost@?$_Tree@V?$_Tmap_traits@PAUHWND__@@UCWndData@@U?$less@PAUHWND__@@@std@@V?$allocator@U?$pair@QAUHWND__@@UCWndData@@@std@@@4@$0A@@std@@@std@@IAEAAPAU_Node@?$_Tree_nod@V?$_Tmap_traits@PAUHWND__@@UCWndData@@U?$less@PAUHWND__@@@std@@V?$allocator@U?$pair@QAUHWND__@@UCWndData@@@std@@@4@$0A@@std@@@2@XZ PROC NEAR ; std::_Tree<std::_Tmap_traits<HWND__ *,CWndData,std::less<HWND__ *>,std::allocator<std::pair<HWND__ * const,CWndData> >,0> >::_Rmost, COMDAT
; _this$ = ecx

; 1048 : 		{	// return rightmost node in mutable tree

  00000	55		 push	 ebp
  00001	8b ec		 mov	 ebp, esp
  00003	51		 push	 ecx
  00004	89 4d fc	 mov	 DWORD PTR _this$[ebp], ecx

; 1049 : 		return (_Right(_Myhead));

  00007	8b 45 fc	 mov	 eax, DWORD PTR _this$[ebp]
  0000a	8b 48 04	 mov	 ecx, DWORD PTR [eax+4]
  0000d	51		 push	 ecx
  0000e	e8 00 00 00 00	 call	 ?_Right@?$_Tree@V?$_Tmap_traits@PAUHWND__@@UCWndData@@U?$less@PAUHWND__@@@std@@V?$allocator@U?$pair@QAUHWND__@@UCWndData@@@std@@@4@$0A@@std@@@std@@KAAAPAU_Node@?$_Tree_nod@V?$_Tmap_traits@PAUHWND__@@UCWndData@@U?$less@PAUHWND__@@@std@@V?$allocator@U?$pair@QAUHWND__@@UCWndData@@@std@@@4@$0A@@std@@@2@PAU342@@Z ; std::_Tree<std::_Tmap_traits<HWND__ *,CWndData,std::less<HWND__ *>,std::allocator<std::pair<HWND__ * const,CWndData> >,0> >::_Right
  00013	83 c4 04	 add	 esp, 4

; 1050 : 		}

  00016	8b e5		 mov	 esp, ebp
  00018	5d		 pop	 ebp
  00019	c3		 ret	 0
?_Rmost@?$_Tree@V?$_Tmap_traits@PAUHWND__@@UCWndData@@U?$less@PAUHWND__@@@std@@V?$allocator@U?$pair@QAUHWND__@@UCWndData@@@std@@@4@$0A@@std@@@std@@IAEAAPAU_Node@?$_Tree_nod@V?$_Tmap_traits@PAUHWND__@@UCWndData@@U?$less@PAUHWND__@@@std@@V?$allocator@U?$pair@QAUHWND__@@UCWndData@@@std@@@4@$0A@@std@@@2@XZ ENDP ; std::_Tree<std::_Tmap_traits<HWND__ *,CWndData,std::less<HWND__ *>,std::allocator<std::pair<HWND__ * const,CWndData> >,0> >::_Rmost
_TEXT	ENDS
PUBLIC	??0?$_Tree_ptr@V?$_Tmap_traits@PAUHWND__@@UCWndData@@U?$less@PAUHWND__@@@std@@V?$allocator@U?$pair@QAUHWND__@@UCWndData@@@std@@@4@$0A@@std@@@std@@IAE@ABU?$less@PAUHWND__@@@1@V?$allocator@U?$pair@QAUHWND__@@UCWndData@@@std@@@1@@Z ; std::_Tree_ptr<std::_Tmap_traits<HWND__ *,CWndData,std::less<HWND__ *>,std::allocator<std::pair<HWND__ * const,CWndData> >,0> >::_Tree_ptr<std::_Tmap_traits<HWND__ *,CWndData,std::less<HWND__ *>,std::allocator<std::pair<HWND__ * const,CWndData> >,0> >
; Function compile flags: /Odt
;	COMDAT ??0?$_Tree_val@V?$_Tmap_traits@PAUHWND__@@UCWndData@@U?$less@PAUHWND__@@@std@@V?$allocator@U?$pair@QAUHWND__@@UCWndData@@@std@@@4@$0A@@std@@@std@@IAE@ABU?$less@PAUHWND__@@@1@V?$allocator@U?$pair@QAUHWND__@@UCWndData@@@std@@@1@@Z
_TEXT	SEGMENT
_this$ = -8						; size = 4
__Parg$ = 8						; size = 4
__Al$ = 12						; size = 1
??0?$_Tree_val@V?$_Tmap_traits@PAUHWND__@@UCWndData@@U?$less@PAUHWND__@@@std@@V?$allocator@U?$pair@QAUHWND__@@UCWndData@@@std@@@4@$0A@@std@@@std@@IAE@ABU?$less@PAUHWND__@@@1@V?$allocator@U?$pair@QAUHWND__@@UCWndData@@@std@@@1@@Z PROC NEAR ; std::_Tree_val<std::_Tmap_traits<HWND__ *,CWndData,std::less<HWND__ *>,std::allocator<std::pair<HWND__ * const,CWndData> >,0> >::_Tree_val<std::_Tmap_traits<HWND__ *,CWndData,std::less<HWND__ *>,std::allocator<std::pair<HWND__ * const,CWndData> >,0> >, COMDAT
; _this$ = ecx

; 95   : 		{	// construct base, and allocator from _Al

  00000	55		 push	 ebp
  00001	8b ec		 mov	 ebp, esp
  00003	83 ec 08	 sub	 esp, 8
  00006	89 4d f8	 mov	 DWORD PTR _this$[ebp], ecx
  00009	51		 push	 ecx
  0000a	8b cc		 mov	 ecx, esp
  0000c	8d 45 0c	 lea	 eax, DWORD PTR __Al$[ebp]
  0000f	50		 push	 eax
  00010	e8 00 00 00 00	 call	 ??0?$allocator@U?$pair@QAUHWND__@@UCWndData@@@std@@@std@@QAE@ABV01@@Z ; std::allocator<std::pair<HWND__ * const,CWndData> >::allocator<std::pair<HWND__ * const,CWndData> >
  00015	8b 4d 08	 mov	 ecx, DWORD PTR __Parg$[ebp]
  00018	51		 push	 ecx
  00019	8b 4d f8	 mov	 ecx, DWORD PTR _this$[ebp]
  0001c	e8 00 00 00 00	 call	 ??0?$_Tree_ptr@V?$_Tmap_traits@PAUHWND__@@UCWndData@@U?$less@PAUHWND__@@@std@@V?$allocator@U?$pair@QAUHWND__@@UCWndData@@@std@@@4@$0A@@std@@@std@@IAE@ABU?$less@PAUHWND__@@@1@V?$allocator@U?$pair@QAUHWND__@@UCWndData@@@std@@@1@@Z ; std::_Tree_ptr<std::_Tmap_traits<HWND__ *,CWndData,std::less<HWND__ *>,std::allocator<std::pair<HWND__ * const,CWndData> >,0> >::_Tree_ptr<std::_Tmap_traits<HWND__ *,CWndData,std::less<HWND__ *>,std::allocator<std::pair<HWND__ * const,CWndData> >,0> >
  00021	8d 55 0c	 lea	 edx, DWORD PTR __Al$[ebp]
  00024	52		 push	 edx
  00025	8b 4d f8	 mov	 ecx, DWORD PTR _this$[ebp]
  00028	83 c1 03	 add	 ecx, 3
  0002b	e8 00 00 00 00	 call	 ??0?$allocator@U?$pair@QAUHWND__@@UCWndData@@@std@@@std@@QAE@ABV01@@Z ; std::allocator<std::pair<HWND__ * const,CWndData> >::allocator<std::pair<HWND__ * const,CWndData> >

; 96   : 		}

  00030	8b 45 f8	 mov	 eax, DWORD PTR _this$[ebp]
  00033	8b e5		 mov	 esp, ebp
  00035	5d		 pop	 ebp
  00036	c2 08 00	 ret	 8
??0?$_Tree_val@V?$_Tmap_traits@PAUHWND__@@UCWndData@@U?$less@PAUHWND__@@@std@@V?$allocator@U?$pair@QAUHWND__@@UCWndData@@@std@@@4@$0A@@std@@@std@@IAE@ABU?$less@PAUHWND__@@@1@V?$allocator@U?$pair@QAUHWND__@@UCWndData@@@std@@@1@@Z ENDP ; std::_Tree_val<std::_Tmap_traits<HWND__ *,CWndData,std::less<HWND__ *>,std::allocator<std::pair<HWND__ * const,CWndData> >,0> >::_Tree_val<std::_Tmap_traits<HWND__ *,CWndData,std::less<HWND__ *>,std::allocator<std::pair<HWND__ * const,CWndData> >,0> >
; Function compile flags: /Odt
; File d:\program files (x86)\microsoft visual studio .net 2003\vc7\include\map
_TEXT	ENDS
;	COMDAT ?_Kfn@?$_Tmap_traits@PAUHWND__@@UCWndData@@U?$less@PAUHWND__@@@std@@V?$allocator@U?$pair@QAUHWND__@@UCWndData@@@std@@@4@$0A@@std@@SAABQAUHWND__@@ABU?$pair@QAUHWND__@@UCWndData@@@2@@Z
_TEXT	SEGMENT
__Val$ = 8						; size = 4
?_Kfn@?$_Tmap_traits@PAUHWND__@@UCWndData@@U?$less@PAUHWND__@@@std@@V?$allocator@U?$pair@QAUHWND__@@UCWndData@@@std@@@4@$0A@@std@@SAABQAUHWND__@@ABU?$pair@QAUHWND__@@UCWndData@@@2@@Z PROC NEAR ; std::_Tmap_traits<HWND__ *,CWndData,std::less<HWND__ *>,std::allocator<std::pair<HWND__ * const,CWndData> >,0>::_Kfn, COMDAT

; 63   : 		{	// extract key from element value

  00000	55		 push	 ebp
  00001	8b ec		 mov	 ebp, esp

; 64   : 		return (_Val.first);

  00003	8b 45 08	 mov	 eax, DWORD PTR __Val$[ebp]

; 65   : 		}

  00006	5d		 pop	 ebp
  00007	c3		 ret	 0
?_Kfn@?$_Tmap_traits@PAUHWND__@@UCWndData@@U?$less@PAUHWND__@@@std@@V?$allocator@U?$pair@QAUHWND__@@UCWndData@@@std@@@4@$0A@@std@@SAABQAUHWND__@@ABU?$pair@QAUHWND__@@UCWndData@@@2@@Z ENDP ; std::_Tmap_traits<HWND__ *,CWndData,std::less<HWND__ *>,std::allocator<std::pair<HWND__ * const,CWndData> >,0>::_Kfn
; Function compile flags: /Odt
; File d:\program files (x86)\microsoft visual studio .net 2003\vc7\include\xmemory
_TEXT	ENDS
;	COMDAT ??0?$allocator@U?$pair@QAUHWND__@@UCWndData@@@std@@@std@@QAE@ABV01@@Z
_TEXT	SEGMENT
_this$ = -4						; size = 4
___formal$ = 8						; size = 4
??0?$allocator@U?$pair@QAUHWND__@@UCWndData@@@std@@@std@@QAE@ABV01@@Z PROC NEAR ; std::allocator<std::pair<HWND__ * const,CWndData> >::allocator<std::pair<HWND__ * const,CWndData> >, COMDAT
; _this$ = ecx

; 115  : 	allocator(const allocator<_Ty>&)

  00000	55		 push	 ebp
  00001	8b ec		 mov	 ebp, esp
  00003	51		 push	 ecx
  00004	89 4d fc	 mov	 DWORD PTR _this$[ebp], ecx

; 116  : 		{	// construct by copying (do nothing)
; 117  : 		}

  00007	8b 45 fc	 mov	 eax, DWORD PTR _this$[ebp]
  0000a	8b e5		 mov	 esp, ebp
  0000c	5d		 pop	 ebp
  0000d	c2 04 00	 ret	 4
??0?$allocator@U?$pair@QAUHWND__@@UCWndData@@@std@@@std@@QAE@ABV01@@Z ENDP ; std::allocator<std::pair<HWND__ * const,CWndData> >::allocator<std::pair<HWND__ * const,CWndData> >
; Function compile flags: /Odt
_TEXT	ENDS
;	COMDAT ?deallocate@?$allocator@U_Node@?$_Tree_nod@V?$_Tmap_traits@PAUHWND__@@UCWndData@@U?$less@PAUHWND__@@@std@@V?$allocator@U?$pair@QAUHWND__@@UCWndData@@@std@@@4@$0A@@std@@@std@@@std@@QAEXPAU_Node@?$_Tree_nod@V?$_Tmap_traits@PAUHWND__@@UCWndData@@U?$less@PAUHWND__@@@std@@V?$allocator@U?$pair@QAUHWND__@@UCWndData@@@std@@@4@$0A@@std@@@2@I@Z
_TEXT	SEGMENT
_this$ = -4						; size = 4
__Ptr$ = 8						; size = 4
___formal$ = 12						; size = 4
?deallocate@?$allocator@U_Node@?$_Tree_nod@V?$_Tmap_traits@PAUHWND__@@UCWndData@@U?$less@PAUHWND__@@@std@@V?$allocator@U?$pair@QAUHWND__@@UCWndData@@@std@@@4@$0A@@std@@@std@@@std@@QAEXPAU_Node@?$_Tree_nod@V?$_Tmap_traits@PAUHWND__@@UCWndData@@U?$less@PAUHWND__@@@std@@V?$allocator@U?$pair@QAUHWND__@@UCWndData@@@std@@@4@$0A@@std@@@2@I@Z PROC NEAR ; std::allocator<std::_Tree_nod<std::_Tmap_traits<HWND__ *,CWndData,std::less<HWND__ *>,std::allocator<std::pair<HWND__ * const,CWndData> >,0> >::_Node>::deallocate, COMDAT
; _this$ = ecx

; 131  : 		{	// deallocate object at _Ptr, ignore size

  00000	55		 push	 ebp
  00001	8b ec		 mov	 ebp, esp
  00003	51		 push	 ecx
  00004	89 4d fc	 mov	 DWORD PTR _this$[ebp], ecx

; 132  : 		operator delete(_Ptr);

  00007	8b 45 08	 mov	 eax, DWORD PTR __Ptr$[ebp]
  0000a	50		 push	 eax
  0000b	e8 00 00 00 00	 call	 ??3@YAXPAX@Z		; operator delete
  00010	83 c4 04	 add	 esp, 4

; 133  : 		}

  00013	8b e5		 mov	 esp, ebp
  00015	5d		 pop	 ebp
  00016	c2 08 00	 ret	 8
?deallocate@?$allocator@U_Node@?$_Tree_nod@V?$_Tmap_traits@PAUHWND__@@UCWndData@@U?$less@PAUHWND__@@@std@@V?$allocator@U?$pair@QAUHWND__@@UCWndData@@@std@@@4@$0A@@std@@@std@@@std@@QAEXPAU_Node@?$_Tree_nod@V?$_Tmap_traits@PAUHWND__@@UCWndData@@U?$less@PAUHWND__@@@std@@V?$allocator@U?$pair@QAUHWND__@@UCWndData@@@std@@@4@$0A@@std@@@2@I@Z ENDP ; std::allocator<std::_Tree_nod<std::_Tmap_traits<HWND__ *,CWndData,std::less<HWND__ *>,std::allocator<std::pair<HWND__ * const,CWndData> >,0> >::_Node>::deallocate
_TEXT	ENDS
PUBLIC	??$_Destroy@PAU_Node@?$_Tree_nod@V?$_Tmap_traits@PAUHWND__@@UCWndData@@U?$less@PAUHWND__@@@std@@V?$allocator@U?$pair@QAUHWND__@@UCWndData@@@std@@@4@$0A@@std@@@std@@@std@@YAXPAPAU_Node@?$_Tree_nod@V?$_Tmap_traits@PAUHWND__@@UCWndData@@U?$less@PAUHWND__@@@std@@V?$allocator@U?$pair@QAUHWND__@@UCWndData@@@std@@@4@$0A@@std@@@0@@Z ; std::_Destroy<std::_Tree_nod<std::_Tmap_traits<HWND__ *,CWndData,std::less<HWND__ *>,std::allocator<std::pair<HWND__ * const,CWndData> >,0> >::_Node *>
; Function compile flags: /Odt
;	COMDAT ?destroy@?$allocator@PAU_Node@?$_Tree_nod@V?$_Tmap_traits@PAUHWND__@@UCWndData@@U?$less@PAUHWND__@@@std@@V?$allocator@U?$pair@QAUHWND__@@UCWndData@@@std@@@4@$0A@@std@@@std@@@std@@QAEXPAPAU_Node@?$_Tree_nod@V?$_Tmap_traits@PAUHWND__@@UCWndData@@U?$less@PAUHWND__@@@std@@V?$allocator@U?$pair@QAUHWND__@@UCWndData@@@std@@@4@$0A@@std@@@2@@Z
_TEXT	SEGMENT
_this$ = -4						; size = 4
__Ptr$ = 8						; size = 4
?destroy@?$allocator@PAU_Node@?$_Tree_nod@V?$_Tmap_traits@PAUHWND__@@UCWndData@@U?$less@PAUHWND__@@@std@@V?$allocator@U?$pair@QAUHWND__@@UCWndData@@@std@@@4@$0A@@std@@@std@@@std@@QAEXPAPAU_Node@?$_Tree_nod@V?$_Tmap_traits@PAUHWND__@@UCWndData@@U?$less@PAUHWND__@@@std@@V?$allocator@U?$pair@QAUHWND__@@UCWndData@@@std@@@4@$0A@@std@@@2@@Z PROC NEAR ; std::allocator<std::_Tree_nod<std::_Tmap_traits<HWND__ *,CWndData,std::less<HWND__ *>,std::allocator<std::pair<HWND__ * const,CWndData> >,0> >::_Node *>::destroy, COMDAT
; _this$ = ecx

; 151  : 		{	// destroy object at _Ptr

  00000	55		 push	 ebp
  00001	8b ec		 mov	 ebp, esp
  00003	51		 push	 ecx
  00004	89 4d fc	 mov	 DWORD PTR _this$[ebp], ecx

; 152  : 		_Destroy(_Ptr);

  00007	8b 45 08	 mov	 eax, DWORD PTR __Ptr$[ebp]
  0000a	50		 push	 eax
  0000b	e8 00 00 00 00	 call	 ??$_Destroy@PAU_Node@?$_Tree_nod@V?$_Tmap_traits@PAUHWND__@@UCWndData@@U?$less@PAUHWND__@@@std@@V?$allocator@U?$pair@QAUHWND__@@UCWndData@@@std@@@4@$0A@@std@@@std@@@std@@YAXPAPAU_Node@?$_Tree_nod@V?$_Tmap_traits@PAUHWND__@@UCWndData@@U?$less@PAUHWND__@@@std@@V?$allocator@U?$pair@QAUHWND__@@UCWndData@@@std@@@4@$0A@@std@@@0@@Z ; std::_Destroy<std::_Tree_nod<std::_Tmap_traits<HWND__ *,CWndData,std::less<HWND__ *>,std::allocator<std::pair<HWND__ * const,CWndData> >,0> >::_Node *>
  00010	83 c4 04	 add	 esp, 4

; 153  : 		}

  00013	8b e5		 mov	 esp, ebp
  00015	5d		 pop	 ebp
  00016	c2 04 00	 ret	 4
?destroy@?$allocator@PAU_Node@?$_Tree_nod@V?$_Tmap_traits@PAUHWND__@@UCWndData@@U?$less@PAUHWND__@@@std@@V?$allocator@U?$pair@QAUHWND__@@UCWndData@@@std@@@4@$0A@@std@@@std@@@std@@QAEXPAPAU_Node@?$_Tree_nod@V?$_Tmap_traits@PAUHWND__@@UCWndData@@U?$less@PAUHWND__@@@std@@V?$allocator@U?$pair@QAUHWND__@@UCWndData@@@std@@@4@$0A@@std@@@2@@Z ENDP ; std::allocator<std::_Tree_nod<std::_Tmap_traits<HWND__ *,CWndData,std::less<HWND__ *>,std::allocator<std::pair<HWND__ * const,CWndData> >,0> >::_Node *>::destroy
_TEXT	ENDS
PUBLIC	?max_size@?$allocator@PAVCHostWnd@@@std@@QBEIXZ	; std::allocator<CHostWnd *>::max_size
; Function compile flags: /Odt
; File d:\program files (x86)\microsoft visual studio .net 2003\vc7\include\vector
;	COMDAT ?max_size@?$vector@PAVCHostWnd@@V?$allocator@PAVCHostWnd@@@std@@@std@@QBEIXZ
_TEXT	SEGMENT
_this$ = -4						; size = 4
?max_size@?$vector@PAVCHostWnd@@V?$allocator@PAVCHostWnd@@@std@@@std@@QBEIXZ PROC NEAR ; std::vector<CHostWnd *,std::allocator<CHostWnd *> >::max_size, COMDAT
; _this$ = ecx

; 520  : 		{	// return maximum possible length of sequence

  00000	55		 push	 ebp
  00001	8b ec		 mov	 ebp, esp
  00003	51		 push	 ecx
  00004	89 4d fc	 mov	 DWORD PTR _this$[ebp], ecx

; 521  : 		return (this->_Alval.max_size());

  00007	8b 4d fc	 mov	 ecx, DWORD PTR _this$[ebp]
  0000a	e8 00 00 00 00	 call	 ?max_size@?$allocator@PAVCHostWnd@@@std@@QBEIXZ ; std::allocator<CHostWnd *>::max_size

; 522  : 		}

  0000f	8b e5		 mov	 esp, ebp
  00011	5d		 pop	 ebp
  00012	c3		 ret	 0
?max_size@?$vector@PAVCHostWnd@@V?$allocator@PAVCHostWnd@@@std@@@std@@QBEIXZ ENDP ; std::vector<CHostWnd *,std::allocator<CHostWnd *> >::max_size
_TEXT	ENDS
PUBLIC	??$_Destroy_range@PAVCHostWnd@@V?$allocator@PAVCHostWnd@@@std@@@std@@YAXPAPAVCHostWnd@@0AAV?$allocator@PAVCHostWnd@@@0@@Z ; std::_Destroy_range<CHostWnd *,std::allocator<CHostWnd *> >
; Function compile flags: /Odt
;	COMDAT ?_Destroy@?$vector@PAVCHostWnd@@V?$allocator@PAVCHostWnd@@@std@@@std@@IAEXPAPAVCHostWnd@@0@Z
_TEXT	SEGMENT
_this$ = -4						; size = 4
__First$ = 8						; size = 4
__Last$ = 12						; size = 4
?_Destroy@?$vector@PAVCHostWnd@@V?$allocator@PAVCHostWnd@@@std@@@std@@IAEXPAPAVCHostWnd@@0@Z PROC NEAR ; std::vector<CHostWnd *,std::allocator<CHostWnd *> >::_Destroy, COMDAT
; _this$ = ecx

; 786  : 		{	// destroy [_First, _Last) using allocator

  00000	55		 push	 ebp
  00001	8b ec		 mov	 ebp, esp
  00003	51		 push	 ecx
  00004	89 4d fc	 mov	 DWORD PTR _this$[ebp], ecx

; 787  : 		_Destroy_range(_First, _Last, this->_Alval);

  00007	8b 45 fc	 mov	 eax, DWORD PTR _this$[ebp]
  0000a	50		 push	 eax
  0000b	8b 4d 0c	 mov	 ecx, DWORD PTR __Last$[ebp]
  0000e	51		 push	 ecx
  0000f	8b 55 08	 mov	 edx, DWORD PTR __First$[ebp]
  00012	52		 push	 edx
  00013	e8 00 00 00 00	 call	 ??$_Destroy_range@PAVCHostWnd@@V?$allocator@PAVCHostWnd@@@std@@@std@@YAXPAPAVCHostWnd@@0AAV?$allocator@PAVCHostWnd@@@0@@Z ; std::_Destroy_range<CHostWnd *,std::allocator<CHostWnd *> >
  00018	83 c4 0c	 add	 esp, 12			; 0000000cH

; 788  : 		}

  0001b	8b e5		 mov	 esp, ebp
  0001d	5d		 pop	 ebp
  0001e	c2 08 00	 ret	 8
?_Destroy@?$vector@PAVCHostWnd@@V?$allocator@PAVCHostWnd@@@std@@@std@@IAEXPAPAVCHostWnd@@0@Z ENDP ; std::vector<CHostWnd *,std::allocator<CHostWnd *> >::_Destroy
_TEXT	ENDS
PUBLIC	??$_Ucopy@PAPAVCHostWnd@@@?$vector@PAVCHostWnd@@V?$allocator@PAVCHostWnd@@@std@@@std@@IAEPAPAVCHostWnd@@PAPAV2@00@Z ; std::vector<CHostWnd *,std::allocator<CHostWnd *> >::_Ucopy<CHostWnd * *>
PUBLIC	??$fill@PAPAVCHostWnd@@PAV1@@std@@YAXPAPAVCHostWnd@@0ABQAV1@@Z ; std::fill<CHostWnd * *,CHostWnd *>
PUBLIC	??$copy_backward@PAPAVCHostWnd@@PAPAV1@@std@@YAPAPAVCHostWnd@@PAPAV1@00@Z ; std::copy_backward<CHostWnd * *,CHostWnd * *>
;	COMDAT xdata$x
xdata$x	SEGMENT
$T202824 DD	0ffffffffH
	DD	00H
	DD	0ffffffffH
	DD	00H
	DD	0ffffffffH
	DD	00H
	DD	0ffffffffH
	DD	00H
$T202826 DD	00H
	DD	00H
	DD	00H
	DD	FLAT:$L202818
$T202827 DD	00H
	DD	00H
	DD	00H
	DD	FLAT:$L202820
$T202825 DD	00H
	DD	00H
	DD	01H
	DD	01H
	DD	FLAT:$T202826
	DD	02H
	DD	02H
	DD	03H
	DD	01H
	DD	FLAT:$T202827
$T202822 DD	019930520H
	DD	04H
	DD	FLAT:$T202824
	DD	02H
	DD	FLAT:$T202825
	DD	2 DUP(00H)
; Function compile flags: /Odt
xdata$x	ENDS
;	COMDAT ?_Insert_n@?$vector@PAVCHostWnd@@V?$allocator@PAVCHostWnd@@@std@@@std@@IAEXViterator@12@IABQAVCHostWnd@@@Z
_TEXT	SEGMENT
tv240 = -52						; size = 4
tv239 = -48						; size = 4
tv85 = -44						; size = 4
_this$ = -40						; size = 4
__Oldend$201019 = -36					; size = 4
__Newvec$200998 = -32					; size = 4
__Ptr$200999 = -28					; size = 4
__Capacity$ = -24					; size = 4
__Tmp$ = -20						; size = 4
__$EHRec$ = -16						; size = 16
__Where$ = 8						; size = 4
__Count$ = 12						; size = 4
__Val$ = 16						; size = 4
?_Insert_n@?$vector@PAVCHostWnd@@V?$allocator@PAVCHostWnd@@@std@@@std@@IAEXViterator@12@IABQAVCHostWnd@@@Z PROC NEAR ; std::vector<CHostWnd *,std::allocator<CHostWnd *> >::_Insert_n, COMDAT
; _this$ = ecx

; 809  : 		{	// insert _Count * _Val at _Where

  00000	55		 push	 ebp
  00001	8b ec		 mov	 ebp, esp
  00003	6a ff		 push	 -1
  00005	68 00 00 00 00	 push	 __ehhandler$?_Insert_n@?$vector@PAVCHostWnd@@V?$allocator@PAVCHostWnd@@@std@@@std@@IAEXViterator@12@IABQAVCHostWnd@@@Z
  0000a	64 a1 00 00 00
	00		 mov	 eax, DWORD PTR fs:__except_list
  00010	50		 push	 eax
  00011	64 89 25 00 00
	00 00		 mov	 DWORD PTR fs:__except_list, esp
  00018	51		 push	 ecx
  00019	83 ec 24	 sub	 esp, 36			; 00000024H
  0001c	53		 push	 ebx
  0001d	56		 push	 esi
  0001e	57		 push	 edi
  0001f	89 65 f0	 mov	 DWORD PTR __$EHRec$[ebp], esp
  00022	89 4d d8	 mov	 DWORD PTR _this$[ebp], ecx

; 810  : 		_Ty _Tmp = _Val;	// in case _Val is in sequence

  00025	8b 45 10	 mov	 eax, DWORD PTR __Val$[ebp]
  00028	8b 08		 mov	 ecx, DWORD PTR [eax]
  0002a	89 4d ec	 mov	 DWORD PTR __Tmp$[ebp], ecx

; 811  : 		size_type _Capacity = capacity();

  0002d	8b 4d d8	 mov	 ecx, DWORD PTR _this$[ebp]
  00030	e8 00 00 00 00	 call	 ?capacity@?$vector@PAVCHostWnd@@V?$allocator@PAVCHostWnd@@@std@@@std@@QBEIXZ ; std::vector<CHostWnd *,std::allocator<CHostWnd *> >::capacity
  00035	89 45 e8	 mov	 DWORD PTR __Capacity$[ebp], eax

; 812  : 
; 813  : 		if (_Count == 0)

  00038	83 7d 0c 00	 cmp	 DWORD PTR __Count$[ebp], 0
  0003c	75 05		 jne	 SHORT $L200992

; 814  : 			;
; 815  : 		else if (max_size() - size() < _Count)

  0003e	e9 c6 02 00 00	 jmp	 $L202814
$L200992:
  00043	8b 4d d8	 mov	 ecx, DWORD PTR _this$[ebp]
  00046	e8 00 00 00 00	 call	 ?size@?$vector@PAVCHostWnd@@V?$allocator@PAVCHostWnd@@@std@@@std@@QBEIXZ ; std::vector<CHostWnd *,std::allocator<CHostWnd *> >::size
  0004b	8b f0		 mov	 esi, eax
  0004d	8b 4d d8	 mov	 ecx, DWORD PTR _this$[ebp]
  00050	e8 00 00 00 00	 call	 ?max_size@?$vector@PAVCHostWnd@@V?$allocator@PAVCHostWnd@@@std@@@std@@QBEIXZ ; std::vector<CHostWnd *,std::allocator<CHostWnd *> >::max_size
  00055	2b c6		 sub	 eax, esi
  00057	3b 45 0c	 cmp	 eax, DWORD PTR __Count$[ebp]
  0005a	73 0d		 jae	 SHORT $L200994

; 816  : 			_Xlen();	// result too long

  0005c	8b 4d d8	 mov	 ecx, DWORD PTR _this$[ebp]
  0005f	e8 00 00 00 00	 call	 ?_Xlen@?$vector@PAVCHostWnd@@V?$allocator@PAVCHostWnd@@@std@@@std@@IBEXXZ ; std::vector<CHostWnd *,std::allocator<CHostWnd *> >::_Xlen

; 817  : 		else if (_Capacity < size() + _Count)

  00064	e9 a0 02 00 00	 jmp	 $L202814
$L200994:
  00069	8b 4d d8	 mov	 ecx, DWORD PTR _this$[ebp]
  0006c	e8 00 00 00 00	 call	 ?size@?$vector@PAVCHostWnd@@V?$allocator@PAVCHostWnd@@@std@@@std@@QBEIXZ ; std::vector<CHostWnd *,std::allocator<CHostWnd *> >::size
  00071	03 45 0c	 add	 eax, DWORD PTR __Count$[ebp]
  00074	39 45 e8	 cmp	 DWORD PTR __Capacity$[ebp], eax
  00077	0f 83 66 01 00
	00		 jae	 $L200996

; 818  : 			{	// not enough room, reallocate
; 819  : 			_Capacity = max_size() - _Capacity / 2 < _Capacity
; 820  : 				? 0 : _Capacity + _Capacity / 2;	// try to grow by 50%

  0007d	8b 75 e8	 mov	 esi, DWORD PTR __Capacity$[ebp]
  00080	d1 ee		 shr	 esi, 1
  00082	8b 4d d8	 mov	 ecx, DWORD PTR _this$[ebp]
  00085	e8 00 00 00 00	 call	 ?max_size@?$vector@PAVCHostWnd@@V?$allocator@PAVCHostWnd@@@std@@@std@@QBEIXZ ; std::vector<CHostWnd *,std::allocator<CHostWnd *> >::max_size
  0008a	2b c6		 sub	 eax, esi
  0008c	3b 45 e8	 cmp	 eax, DWORD PTR __Capacity$[ebp]
  0008f	73 09		 jae	 SHORT $L202815
  00091	c7 45 d4 00 00
	00 00		 mov	 DWORD PTR tv85[ebp], 0
  00098	eb 0b		 jmp	 SHORT $L202816
$L202815:
  0009a	8b 55 e8	 mov	 edx, DWORD PTR __Capacity$[ebp]
  0009d	d1 ea		 shr	 edx, 1
  0009f	03 55 e8	 add	 edx, DWORD PTR __Capacity$[ebp]
  000a2	89 55 d4	 mov	 DWORD PTR tv85[ebp], edx
$L202816:
  000a5	8b 45 d4	 mov	 eax, DWORD PTR tv85[ebp]
  000a8	89 45 e8	 mov	 DWORD PTR __Capacity$[ebp], eax

; 821  : 			if (_Capacity < size() + _Count)

  000ab	8b 4d d8	 mov	 ecx, DWORD PTR _this$[ebp]
  000ae	e8 00 00 00 00	 call	 ?size@?$vector@PAVCHostWnd@@V?$allocator@PAVCHostWnd@@@std@@@std@@QBEIXZ ; std::vector<CHostWnd *,std::allocator<CHostWnd *> >::size
  000b3	03 45 0c	 add	 eax, DWORD PTR __Count$[ebp]
  000b6	39 45 e8	 cmp	 DWORD PTR __Capacity$[ebp], eax
  000b9	73 0e		 jae	 SHORT $L200997

; 822  : 				_Capacity = size() + _Count;

  000bb	8b 4d d8	 mov	 ecx, DWORD PTR _this$[ebp]
  000be	e8 00 00 00 00	 call	 ?size@?$vector@PAVCHostWnd@@V?$allocator@PAVCHostWnd@@@std@@@std@@QBEIXZ ; std::vector<CHostWnd *,std::allocator<CHostWnd *> >::size
  000c3	03 45 0c	 add	 eax, DWORD PTR __Count$[ebp]
  000c6	89 45 e8	 mov	 DWORD PTR __Capacity$[ebp], eax
$L200997:

; 823  : 			pointer _Newvec = this->_Alval.allocate(_Capacity);

  000c9	8b 4d e8	 mov	 ecx, DWORD PTR __Capacity$[ebp]
  000cc	51		 push	 ecx
  000cd	8b 4d d8	 mov	 ecx, DWORD PTR _this$[ebp]
  000d0	e8 00 00 00 00	 call	 ?allocate@?$allocator@PAVCHostWnd@@@std@@QAEPAPAVCHostWnd@@I@Z ; std::allocator<CHostWnd *>::allocate
  000d5	89 45 e0	 mov	 DWORD PTR __Newvec$200998[ebp], eax

; 824  : 			pointer _Ptr = _Newvec;

  000d8	8b 55 e0	 mov	 edx, DWORD PTR __Newvec$200998[ebp]
  000db	89 55 e4	 mov	 DWORD PTR __Ptr$200999[ebp], edx

; 825  : 
; 826  : 			_TRY_BEGIN

  000de	c7 45 fc 00 00
	00 00		 mov	 DWORD PTR __$EHRec$[ebp+12], 0

; 827  : 			_Ptr = _Ucopy(_Myfirst, _ITER_BASE(_Where),
; 828  : 				_Newvec);	// copy prefix

  000e5	8b 45 e0	 mov	 eax, DWORD PTR __Newvec$200998[ebp]
  000e8	50		 push	 eax
  000e9	8b 4d 08	 mov	 ecx, DWORD PTR __Where$[ebp]
  000ec	51		 push	 ecx
  000ed	8b 55 d8	 mov	 edx, DWORD PTR _this$[ebp]
  000f0	8b 42 04	 mov	 eax, DWORD PTR [edx+4]
  000f3	50		 push	 eax
  000f4	8b 4d d8	 mov	 ecx, DWORD PTR _this$[ebp]
  000f7	e8 00 00 00 00	 call	 ??$_Ucopy@PAPAVCHostWnd@@@?$vector@PAVCHostWnd@@V?$allocator@PAVCHostWnd@@@std@@@std@@IAEPAPAVCHostWnd@@PAPAV2@00@Z ; std::vector<CHostWnd *,std::allocator<CHostWnd *> >::_Ucopy<CHostWnd * *>
  000fc	89 45 d0	 mov	 DWORD PTR tv239[ebp], eax
  000ff	8b 4d d0	 mov	 ecx, DWORD PTR tv239[ebp]
  00102	89 4d e4	 mov	 DWORD PTR __Ptr$200999[ebp], ecx

; 829  : 			_Ptr = _Ufill(_Ptr, _Count, _Tmp);	// add new stuff

  00105	8d 55 ec	 lea	 edx, DWORD PTR __Tmp$[ebp]
  00108	52		 push	 edx
  00109	8b 45 0c	 mov	 eax, DWORD PTR __Count$[ebp]
  0010c	50		 push	 eax
  0010d	8b 4d e4	 mov	 ecx, DWORD PTR __Ptr$200999[ebp]
  00110	51		 push	 ecx
  00111	8b 4d d8	 mov	 ecx, DWORD PTR _this$[ebp]
  00114	e8 00 00 00 00	 call	 ?_Ufill@?$vector@PAVCHostWnd@@V?$allocator@PAVCHostWnd@@@std@@@std@@IAEPAPAVCHostWnd@@PAPAV3@IABQAV3@@Z ; std::vector<CHostWnd *,std::allocator<CHostWnd *> >::_Ufill
  00119	89 45 cc	 mov	 DWORD PTR tv240[ebp], eax
  0011c	8b 55 cc	 mov	 edx, DWORD PTR tv240[ebp]
  0011f	89 55 e4	 mov	 DWORD PTR __Ptr$200999[ebp], edx

; 830  : 			_Ucopy(_ITER_BASE(_Where), _Mylast, _Ptr);	// copy suffix

  00122	8b 45 e4	 mov	 eax, DWORD PTR __Ptr$200999[ebp]
  00125	50		 push	 eax
  00126	8b 4d d8	 mov	 ecx, DWORD PTR _this$[ebp]
  00129	8b 51 08	 mov	 edx, DWORD PTR [ecx+8]
  0012c	52		 push	 edx
  0012d	8b 45 08	 mov	 eax, DWORD PTR __Where$[ebp]
  00130	50		 push	 eax
  00131	8b 4d d8	 mov	 ecx, DWORD PTR _this$[ebp]
  00134	e8 00 00 00 00	 call	 ??$_Ucopy@PAPAVCHostWnd@@@?$vector@PAVCHostWnd@@V?$allocator@PAVCHostWnd@@@std@@@std@@IAEPAPAVCHostWnd@@PAPAV2@00@Z ; std::vector<CHostWnd *,std::allocator<CHostWnd *> >::_Ucopy<CHostWnd * *>
  00139	eb 29		 jmp	 SHORT $L202817
$L202818:

; 831  : 			_CATCH_ALL
; 832  : 			_Destroy(_Newvec, _Ptr);

  0013b	8b 4d e4	 mov	 ecx, DWORD PTR __Ptr$200999[ebp]
  0013e	51		 push	 ecx
  0013f	8b 55 e0	 mov	 edx, DWORD PTR __Newvec$200998[ebp]
  00142	52		 push	 edx
  00143	8b 4d d8	 mov	 ecx, DWORD PTR _this$[ebp]
  00146	e8 00 00 00 00	 call	 ?_Destroy@?$vector@PAVCHostWnd@@V?$allocator@PAVCHostWnd@@@std@@@std@@IAEXPAPAVCHostWnd@@0@Z ; std::vector<CHostWnd *,std::allocator<CHostWnd *> >::_Destroy

; 833  : 			this->_Alval.deallocate(_Newvec, _Capacity);

  0014b	8b 45 e8	 mov	 eax, DWORD PTR __Capacity$[ebp]
  0014e	50		 push	 eax
  0014f	8b 4d e0	 mov	 ecx, DWORD PTR __Newvec$200998[ebp]
  00152	51		 push	 ecx
  00153	8b 4d d8	 mov	 ecx, DWORD PTR _this$[ebp]
  00156	e8 00 00 00 00	 call	 ?deallocate@?$allocator@PAVCHostWnd@@@std@@QAEXPAPAVCHostWnd@@I@Z ; std::allocator<CHostWnd *>::deallocate

; 834  : 			_RERAISE;

  0015b	6a 00		 push	 0
  0015d	6a 00		 push	 0
  0015f	e8 00 00 00 00	 call	 __CxxThrowException@8
$L202817:

; 835  : 			_CATCH_END

  00164	c7 45 fc ff ff
	ff ff		 mov	 DWORD PTR __$EHRec$[ebp+12], -1

; 836  : 
; 837  : 			_Count += size();

  0016b	8b 4d d8	 mov	 ecx, DWORD PTR _this$[ebp]
  0016e	e8 00 00 00 00	 call	 ?size@?$vector@PAVCHostWnd@@V?$allocator@PAVCHostWnd@@@std@@@std@@QBEIXZ ; std::vector<CHostWnd *,std::allocator<CHostWnd *> >::size
  00173	03 45 0c	 add	 eax, DWORD PTR __Count$[ebp]
  00176	89 45 0c	 mov	 DWORD PTR __Count$[ebp], eax

; 838  : 			if (_Myfirst != 0)

  00179	8b 55 d8	 mov	 edx, DWORD PTR _this$[ebp]
  0017c	83 7a 04 00	 cmp	 DWORD PTR [edx+4], 0
  00180	74 35		 je	 SHORT $L201006

; 839  : 				{	// destroy and deallocate old array
; 840  : 				_Destroy(_Myfirst, _Mylast);

  00182	8b 45 d8	 mov	 eax, DWORD PTR _this$[ebp]
  00185	8b 48 08	 mov	 ecx, DWORD PTR [eax+8]
  00188	51		 push	 ecx
  00189	8b 55 d8	 mov	 edx, DWORD PTR _this$[ebp]
  0018c	8b 42 04	 mov	 eax, DWORD PTR [edx+4]
  0018f	50		 push	 eax
  00190	8b 4d d8	 mov	 ecx, DWORD PTR _this$[ebp]
  00193	e8 00 00 00 00	 call	 ?_Destroy@?$vector@PAVCHostWnd@@V?$allocator@PAVCHostWnd@@@std@@@std@@IAEXPAPAVCHostWnd@@0@Z ; std::vector<CHostWnd *,std::allocator<CHostWnd *> >::_Destroy

; 841  : 				this->_Alval.deallocate(_Myfirst, _Myend - _Myfirst);

  00198	8b 4d d8	 mov	 ecx, DWORD PTR _this$[ebp]
  0019b	8b 55 d8	 mov	 edx, DWORD PTR _this$[ebp]
  0019e	8b 41 0c	 mov	 eax, DWORD PTR [ecx+12]
  001a1	2b 42 04	 sub	 eax, DWORD PTR [edx+4]
  001a4	c1 f8 02	 sar	 eax, 2
  001a7	50		 push	 eax
  001a8	8b 4d d8	 mov	 ecx, DWORD PTR _this$[ebp]
  001ab	8b 51 04	 mov	 edx, DWORD PTR [ecx+4]
  001ae	52		 push	 edx
  001af	8b 4d d8	 mov	 ecx, DWORD PTR _this$[ebp]
  001b2	e8 00 00 00 00	 call	 ?deallocate@?$allocator@PAVCHostWnd@@@std@@QAEXPAPAVCHostWnd@@I@Z ; std::allocator<CHostWnd *>::deallocate
$L201006:

; 842  : 				}
; 843  : 			_Myend = _Newvec + _Capacity;

  001b7	8b 45 e8	 mov	 eax, DWORD PTR __Capacity$[ebp]
  001ba	8b 4d e0	 mov	 ecx, DWORD PTR __Newvec$200998[ebp]
  001bd	8d 14 81	 lea	 edx, DWORD PTR [ecx+eax*4]
  001c0	8b 45 d8	 mov	 eax, DWORD PTR _this$[ebp]
  001c3	89 50 0c	 mov	 DWORD PTR [eax+12], edx

; 844  : 			_Mylast = _Newvec + _Count;

  001c6	8b 4d 0c	 mov	 ecx, DWORD PTR __Count$[ebp]
  001c9	8b 55 e0	 mov	 edx, DWORD PTR __Newvec$200998[ebp]
  001cc	8d 04 8a	 lea	 eax, DWORD PTR [edx+ecx*4]
  001cf	8b 4d d8	 mov	 ecx, DWORD PTR _this$[ebp]
  001d2	89 41 08	 mov	 DWORD PTR [ecx+8], eax

; 845  : 			_Myfirst = _Newvec;

  001d5	8b 55 d8	 mov	 edx, DWORD PTR _this$[ebp]
  001d8	8b 45 e0	 mov	 eax, DWORD PTR __Newvec$200998[ebp]
  001db	89 42 04	 mov	 DWORD PTR [edx+4], eax

; 846  : 			}
; 847  : 		else if ((size_type)(_Mylast - _ITER_BASE(_Where)) < _Count)

  001de	e9 26 01 00 00	 jmp	 $L202814
$L200996:
  001e3	8b 4d d8	 mov	 ecx, DWORD PTR _this$[ebp]
  001e6	8b 51 08	 mov	 edx, DWORD PTR [ecx+8]
  001e9	2b 55 08	 sub	 edx, DWORD PTR __Where$[ebp]
  001ec	c1 fa 02	 sar	 edx, 2
  001ef	3b 55 0c	 cmp	 edx, DWORD PTR __Count$[ebp]
  001f2	0f 83 ad 00 00
	00		 jae	 $L201009

; 848  : 			{	// new stuff spills off end
; 849  : 			_Ucopy(_ITER_BASE(_Where), _Mylast,
; 850  : 				_ITER_BASE(_Where) + _Count);	// copy suffix

  001f8	8b 45 0c	 mov	 eax, DWORD PTR __Count$[ebp]
  001fb	8b 4d 08	 mov	 ecx, DWORD PTR __Where$[ebp]
  001fe	8d 14 81	 lea	 edx, DWORD PTR [ecx+eax*4]
  00201	52		 push	 edx
  00202	8b 45 d8	 mov	 eax, DWORD PTR _this$[ebp]
  00205	8b 48 08	 mov	 ecx, DWORD PTR [eax+8]
  00208	51		 push	 ecx
  00209	8b 55 08	 mov	 edx, DWORD PTR __Where$[ebp]
  0020c	52		 push	 edx
  0020d	8b 4d d8	 mov	 ecx, DWORD PTR _this$[ebp]
  00210	e8 00 00 00 00	 call	 ??$_Ucopy@PAPAVCHostWnd@@@?$vector@PAVCHostWnd@@V?$allocator@PAVCHostWnd@@@std@@@std@@IAEPAPAVCHostWnd@@PAPAV2@00@Z ; std::vector<CHostWnd *,std::allocator<CHostWnd *> >::_Ucopy<CHostWnd * *>

; 851  : 
; 852  : 			_TRY_BEGIN

  00215	c7 45 fc 02 00
	00 00		 mov	 DWORD PTR __$EHRec$[ebp+12], 2

; 853  : 			_Ufill(_Mylast, _Count - (_Mylast - _ITER_BASE(_Where)),
; 854  : 				_Tmp);	// insert new stuff off end

  0021c	8d 45 ec	 lea	 eax, DWORD PTR __Tmp$[ebp]
  0021f	50		 push	 eax
  00220	8b 4d d8	 mov	 ecx, DWORD PTR _this$[ebp]
  00223	8b 51 08	 mov	 edx, DWORD PTR [ecx+8]
  00226	2b 55 08	 sub	 edx, DWORD PTR __Where$[ebp]
  00229	c1 fa 02	 sar	 edx, 2
  0022c	8b 45 0c	 mov	 eax, DWORD PTR __Count$[ebp]
  0022f	2b c2		 sub	 eax, edx
  00231	50		 push	 eax
  00232	8b 4d d8	 mov	 ecx, DWORD PTR _this$[ebp]
  00235	8b 51 08	 mov	 edx, DWORD PTR [ecx+8]
  00238	52		 push	 edx
  00239	8b 4d d8	 mov	 ecx, DWORD PTR _this$[ebp]
  0023c	e8 00 00 00 00	 call	 ?_Ufill@?$vector@PAVCHostWnd@@V?$allocator@PAVCHostWnd@@@std@@@std@@IAEPAPAVCHostWnd@@PAPAV3@IABQAV3@@Z ; std::vector<CHostWnd *,std::allocator<CHostWnd *> >::_Ufill
  00241	eb 28		 jmp	 SHORT $L202819
$L202820:

; 855  : 			_CATCH_ALL
; 856  : 			_Destroy(_ITER_BASE(_Where) + _Count, _Mylast + _Count);

  00243	8b 45 d8	 mov	 eax, DWORD PTR _this$[ebp]
  00246	8b 48 08	 mov	 ecx, DWORD PTR [eax+8]
  00249	8b 55 0c	 mov	 edx, DWORD PTR __Count$[ebp]
  0024c	8d 04 91	 lea	 eax, DWORD PTR [ecx+edx*4]
  0024f	50		 push	 eax
  00250	8b 4d 0c	 mov	 ecx, DWORD PTR __Count$[ebp]
  00253	8b 55 08	 mov	 edx, DWORD PTR __Where$[ebp]
  00256	8d 04 8a	 lea	 eax, DWORD PTR [edx+ecx*4]
  00259	50		 push	 eax
  0025a	8b 4d d8	 mov	 ecx, DWORD PTR _this$[ebp]
  0025d	e8 00 00 00 00	 call	 ?_Destroy@?$vector@PAVCHostWnd@@V?$allocator@PAVCHostWnd@@@std@@@std@@IAEXPAPAVCHostWnd@@0@Z ; std::vector<CHostWnd *,std::allocator<CHostWnd *> >::_Destroy

; 857  : 			_RERAISE;

  00262	6a 00		 push	 0
  00264	6a 00		 push	 0
  00266	e8 00 00 00 00	 call	 __CxxThrowException@8
$L202819:

; 858  : 			_CATCH_END

  0026b	c7 45 fc ff ff
	ff ff		 mov	 DWORD PTR __$EHRec$[ebp+12], -1

; 859  : 
; 860  : 			_Mylast += _Count;

  00272	8b 4d d8	 mov	 ecx, DWORD PTR _this$[ebp]
  00275	8b 51 08	 mov	 edx, DWORD PTR [ecx+8]
  00278	8b 45 0c	 mov	 eax, DWORD PTR __Count$[ebp]
  0027b	8d 0c 82	 lea	 ecx, DWORD PTR [edx+eax*4]
  0027e	8b 55 d8	 mov	 edx, DWORD PTR _this$[ebp]
  00281	89 4a 08	 mov	 DWORD PTR [edx+8], ecx

; 861  : 			fill(_ITER_BASE(_Where), _Mylast - _Count,
; 862  : 				_Tmp);	// insert up to old end

  00284	8d 45 ec	 lea	 eax, DWORD PTR __Tmp$[ebp]
  00287	50		 push	 eax
  00288	8b 4d 0c	 mov	 ecx, DWORD PTR __Count$[ebp]
  0028b	c1 e1 02	 shl	 ecx, 2
  0028e	8b 55 d8	 mov	 edx, DWORD PTR _this$[ebp]
  00291	8b 42 08	 mov	 eax, DWORD PTR [edx+8]
  00294	2b c1		 sub	 eax, ecx
  00296	50		 push	 eax
  00297	8b 4d 08	 mov	 ecx, DWORD PTR __Where$[ebp]
  0029a	51		 push	 ecx
  0029b	e8 00 00 00 00	 call	 ??$fill@PAPAVCHostWnd@@PAV1@@std@@YAXPAPAVCHostWnd@@0ABQAV1@@Z ; std::fill<CHostWnd * *,CHostWnd *>
  002a0	83 c4 0c	 add	 esp, 12			; 0000000cH

; 863  : 			}
; 864  : 		else

  002a3	eb 64		 jmp	 SHORT $L202814
$L201009:

; 865  : 			{	// new stuff can all be assigned
; 866  : 			pointer _Oldend = _Mylast;

  002a5	8b 55 d8	 mov	 edx, DWORD PTR _this$[ebp]
  002a8	8b 42 08	 mov	 eax, DWORD PTR [edx+8]
  002ab	89 45 dc	 mov	 DWORD PTR __Oldend$201019[ebp], eax

; 867  : 			_Mylast = _Ucopy(_Oldend - _Count, _Oldend,
; 868  : 				_Mylast);	// copy suffix

  002ae	8b 4d d8	 mov	 ecx, DWORD PTR _this$[ebp]
  002b1	8b 51 08	 mov	 edx, DWORD PTR [ecx+8]
  002b4	52		 push	 edx
  002b5	8b 45 dc	 mov	 eax, DWORD PTR __Oldend$201019[ebp]
  002b8	50		 push	 eax
  002b9	8b 4d 0c	 mov	 ecx, DWORD PTR __Count$[ebp]
  002bc	c1 e1 02	 shl	 ecx, 2
  002bf	8b 55 dc	 mov	 edx, DWORD PTR __Oldend$201019[ebp]
  002c2	2b d1		 sub	 edx, ecx
  002c4	52		 push	 edx
  002c5	8b 4d d8	 mov	 ecx, DWORD PTR _this$[ebp]
  002c8	e8 00 00 00 00	 call	 ??$_Ucopy@PAPAVCHostWnd@@@?$vector@PAVCHostWnd@@V?$allocator@PAVCHostWnd@@@std@@@std@@IAEPAPAVCHostWnd@@PAPAV2@00@Z ; std::vector<CHostWnd *,std::allocator<CHostWnd *> >::_Ucopy<CHostWnd * *>
  002cd	8b 4d d8	 mov	 ecx, DWORD PTR _this$[ebp]
  002d0	89 41 08	 mov	 DWORD PTR [ecx+8], eax

; 869  : 			copy_backward(_ITER_BASE(_Where), _Oldend - _Count,
; 870  : 				_Oldend);	// copy hole

  002d3	8b 55 dc	 mov	 edx, DWORD PTR __Oldend$201019[ebp]
  002d6	52		 push	 edx
  002d7	8b 45 0c	 mov	 eax, DWORD PTR __Count$[ebp]
  002da	c1 e0 02	 shl	 eax, 2
  002dd	8b 4d dc	 mov	 ecx, DWORD PTR __Oldend$201019[ebp]
  002e0	2b c8		 sub	 ecx, eax
  002e2	51		 push	 ecx
  002e3	8b 55 08	 mov	 edx, DWORD PTR __Where$[ebp]
  002e6	52		 push	 edx
  002e7	e8 00 00 00 00	 call	 ??$copy_backward@PAPAVCHostWnd@@PAPAV1@@std@@YAPAPAVCHostWnd@@PAPAV1@00@Z ; std::copy_backward<CHostWnd * *,CHostWnd * *>
  002ec	83 c4 0c	 add	 esp, 12			; 0000000cH

; 871  : 			fill(_ITER_BASE(_Where), _ITER_BASE(_Where) + _Count,
; 872  : 				_Tmp);	// insert into hole

  002ef	8d 45 ec	 lea	 eax, DWORD PTR __Tmp$[ebp]
  002f2	50		 push	 eax
  002f3	8b 4d 0c	 mov	 ecx, DWORD PTR __Count$[ebp]
  002f6	8b 55 08	 mov	 edx, DWORD PTR __Where$[ebp]
  002f9	8d 04 8a	 lea	 eax, DWORD PTR [edx+ecx*4]
  002fc	50		 push	 eax
  002fd	8b 4d 08	 mov	 ecx, DWORD PTR __Where$[ebp]
  00300	51		 push	 ecx
  00301	e8 00 00 00 00	 call	 ??$fill@PAPAVCHostWnd@@PAV1@@std@@YAXPAPAVCHostWnd@@0ABQAV1@@Z ; std::fill<CHostWnd * *,CHostWnd *>
  00306	83 c4 0c	 add	 esp, 12			; 0000000cH
$L202814:

; 873  : 			}
; 874  : 		}

  00309	8b 4d f4	 mov	 ecx, DWORD PTR __$EHRec$[ebp+4]
  0030c	64 89 0d 00 00
	00 00		 mov	 DWORD PTR fs:__except_list, ecx
  00313	5f		 pop	 edi
  00314	5e		 pop	 esi
  00315	5b		 pop	 ebx
  00316	8b e5		 mov	 esp, ebp
  00318	5d		 pop	 ebp
  00319	c2 0c 00	 ret	 12			; 0000000cH
_TEXT	ENDS
;	COMDAT text$x
text$x	SEGMENT
__ehhandler$?_Insert_n@?$vector@PAVCHostWnd@@V?$allocator@PAVCHostWnd@@@std@@@std@@IAEXViterator@12@IABQAVCHostWnd@@@Z:
  00000	b8 00 00 00 00	 mov	 eax, OFFSET FLAT:$T202822
  00005	e9 00 00 00 00	 jmp	 ___CxxFrameHandler
text$x	ENDS
?_Insert_n@?$vector@PAVCHostWnd@@V?$allocator@PAVCHostWnd@@@std@@@std@@IAEXViterator@12@IABQAVCHostWnd@@@Z ENDP ; std::vector<CHostWnd *,std::allocator<CHostWnd *> >::_Insert_n
PUBLIC	??_C@_0BD@OLBABOEK@vector?$DMT?$DO?5too?5long?$AA@ ; `string'
;	COMDAT xdata$x
xdata$x	SEGMENT
$T202838 DD	0ffffffffH
	DD	FLAT:$L202834
$T202836 DD	019930520H
	DD	01H
	DD	FLAT:$T202838
	DD	2 DUP(00H)
	DD	2 DUP(00H)
xdata$x	ENDS
;	COMDAT ??_C@_0BD@OLBABOEK@vector?$DMT?$DO?5too?5long?$AA@
CONST	SEGMENT
??_C@_0BD@OLBABOEK@vector?$DMT?$DO?5too?5long?$AA@ DB 'vector<T> too long'
	DB	00H						; `string'
; Function compile flags: /Odt
CONST	ENDS
;	COMDAT ?_Xlen@?$vector@PAVCHostWnd@@V?$allocator@PAVCHostWnd@@@std@@@std@@IBEXXZ
_TEXT	SEGMENT
_this$ = -84						; size = 4
$T202833 = -80						; size = 28
$T202832 = -52						; size = 40
__$EHRec$ = -12						; size = 12
?_Xlen@?$vector@PAVCHostWnd@@V?$allocator@PAVCHostWnd@@@std@@@std@@IBEXXZ PROC NEAR ; std::vector<CHostWnd *,std::allocator<CHostWnd *> >::_Xlen, COMDAT
; _this$ = ecx

; 883  : 		{	// report a length_error

  00000	55		 push	 ebp
  00001	8b ec		 mov	 ebp, esp
  00003	6a ff		 push	 -1
  00005	68 00 00 00 00	 push	 __ehhandler$?_Xlen@?$vector@PAVCHostWnd@@V?$allocator@PAVCHostWnd@@@std@@@std@@IBEXXZ
  0000a	64 a1 00 00 00
	00		 mov	 eax, DWORD PTR fs:__except_list
  00010	50		 push	 eax
  00011	64 89 25 00 00
	00 00		 mov	 DWORD PTR fs:__except_list, esp
  00018	83 ec 48	 sub	 esp, 72			; 00000048H
  0001b	89 4d ac	 mov	 DWORD PTR _this$[ebp], ecx

; 884  : 		_THROW(length_error, "vector<T> too long");

  0001e	68 00 00 00 00	 push	 OFFSET FLAT:??_C@_0BD@OLBABOEK@vector?$DMT?$DO?5too?5long?$AA@
  00023	8d 4d b0	 lea	 ecx, DWORD PTR $T202833[ebp]
  00026	ff 15 00 00 00
	00		 call	 DWORD PTR __imp_??0?$basic_string@DU?$char_traits@D@std@@V?$allocator@D@2@@std@@QAE@PBD@Z
  0002c	c7 45 fc 00 00
	00 00		 mov	 DWORD PTR __$EHRec$[ebp+8], 0
  00033	8d 45 b0	 lea	 eax, DWORD PTR $T202833[ebp]
  00036	50		 push	 eax
  00037	8d 4d cc	 lea	 ecx, DWORD PTR $T202832[ebp]
  0003a	e8 00 00 00 00	 call	 ??0length_error@std@@QAE@ABV?$basic_string@DU?$char_traits@D@std@@V?$allocator@D@2@@1@@Z ; std::length_error::length_error
  0003f	68 00 00 00 00	 push	 OFFSET FLAT:__TI3?AVlength_error@std@@
  00044	8d 4d cc	 lea	 ecx, DWORD PTR $T202832[ebp]
  00047	51		 push	 ecx
  00048	e8 00 00 00 00	 call	 __CxxThrowException@8
$L202831:

; 885  : 		}

  0004d	8b 4d f4	 mov	 ecx, DWORD PTR __$EHRec$[ebp]
  00050	64 89 0d 00 00
	00 00		 mov	 DWORD PTR fs:__except_list, ecx
  00057	8b e5		 mov	 esp, ebp
  00059	5d		 pop	 ebp
  0005a	c3		 ret	 0
_TEXT	ENDS
;	COMDAT text$x
text$x	SEGMENT
$L202834:
  00000	8d 4d b0	 lea	 ecx, DWORD PTR $T202833[ebp]
  00003	ff 25 00 00 00
	00		 jmp	 DWORD PTR __imp_??1?$basic_string@DU?$char_traits@D@std@@V?$allocator@D@2@@std@@QAE@XZ
__ehhandler$?_Xlen@?$vector@PAVCHostWnd@@V?$allocator@PAVCHostWnd@@@std@@@std@@IBEXXZ:
  00009	b8 00 00 00 00	 mov	 eax, OFFSET FLAT:$T202836
  0000e	e9 00 00 00 00	 jmp	 ___CxxFrameHandler
text$x	ENDS
?_Xlen@?$vector@PAVCHostWnd@@V?$allocator@PAVCHostWnd@@@std@@@std@@IBEXXZ ENDP ; std::vector<CHostWnd *,std::allocator<CHostWnd *> >::_Xlen
; Function compile flags: /Odt
; File d:\program files (x86)\microsoft visual studio .net 2003\vc7\include\xmemory
;	COMDAT ??0?$allocator@PAVCHostWnd@@@std@@QAE@ABV01@@Z
_TEXT	SEGMENT
_this$ = -4						; size = 4
___formal$ = 8						; size = 4
??0?$allocator@PAVCHostWnd@@@std@@QAE@ABV01@@Z PROC NEAR ; std::allocator<CHostWnd *>::allocator<CHostWnd *>, COMDAT
; _this$ = ecx

; 115  : 	allocator(const allocator<_Ty>&)

  00000	55		 push	 ebp
  00001	8b ec		 mov	 ebp, esp
  00003	51		 push	 ecx
  00004	89 4d fc	 mov	 DWORD PTR _this$[ebp], ecx

; 116  : 		{	// construct by copying (do nothing)
; 117  : 		}

  00007	8b 45 fc	 mov	 eax, DWORD PTR _this$[ebp]
  0000a	8b e5		 mov	 esp, ebp
  0000c	5d		 pop	 ebp
  0000d	c2 04 00	 ret	 4
??0?$allocator@PAVCHostWnd@@@std@@QAE@ABV01@@Z ENDP	; std::allocator<CHostWnd *>::allocator<CHostWnd *>
; Function compile flags: /Odt
_TEXT	ENDS
;	COMDAT ?deallocate@?$allocator@PAVCHostWnd@@@std@@QAEXPAPAVCHostWnd@@I@Z
_TEXT	SEGMENT
_this$ = -4						; size = 4
__Ptr$ = 8						; size = 4
___formal$ = 12						; size = 4
?deallocate@?$allocator@PAVCHostWnd@@@std@@QAEXPAPAVCHostWnd@@I@Z PROC NEAR ; std::allocator<CHostWnd *>::deallocate, COMDAT
; _this$ = ecx

; 131  : 		{	// deallocate object at _Ptr, ignore size

  00000	55		 push	 ebp
  00001	8b ec		 mov	 ebp, esp
  00003	51		 push	 ecx
  00004	89 4d fc	 mov	 DWORD PTR _this$[ebp], ecx

; 132  : 		operator delete(_Ptr);

  00007	8b 45 08	 mov	 eax, DWORD PTR __Ptr$[ebp]
  0000a	50		 push	 eax
  0000b	e8 00 00 00 00	 call	 ??3@YAXPAX@Z		; operator delete
  00010	83 c4 04	 add	 esp, 4

; 133  : 		}

  00013	8b e5		 mov	 esp, ebp
  00015	5d		 pop	 ebp
  00016	c2 08 00	 ret	 8
?deallocate@?$allocator@PAVCHostWnd@@@std@@QAEXPAPAVCHostWnd@@I@Z ENDP ; std::allocator<CHostWnd *>::deallocate
_TEXT	ENDS
PUBLIC	??$_Allocate@PAVCHostWnd@@@std@@YAPAPAVCHostWnd@@IPAPAV1@@Z ; std::_Allocate<CHostWnd *>
; Function compile flags: /Odt
;	COMDAT ?allocate@?$allocator@PAVCHostWnd@@@std@@QAEPAPAVCHostWnd@@I@Z
_TEXT	SEGMENT
_this$ = -4						; size = 4
__Count$ = 8						; size = 4
?allocate@?$allocator@PAVCHostWnd@@@std@@QAEPAPAVCHostWnd@@I@Z PROC NEAR ; std::allocator<CHostWnd *>::allocate, COMDAT
; _this$ = ecx

; 136  : 		{	// allocate array of _Count elements

  00000	55		 push	 ebp
  00001	8b ec		 mov	 ebp, esp
  00003	51		 push	 ecx
  00004	89 4d fc	 mov	 DWORD PTR _this$[ebp], ecx

; 137  : 		return (_Allocate(_Count, (pointer)0));

  00007	6a 00		 push	 0
  00009	8b 45 08	 mov	 eax, DWORD PTR __Count$[ebp]
  0000c	50		 push	 eax
  0000d	e8 00 00 00 00	 call	 ??$_Allocate@PAVCHostWnd@@@std@@YAPAPAVCHostWnd@@IPAPAV1@@Z ; std::_Allocate<CHostWnd *>
  00012	83 c4 08	 add	 esp, 8

; 138  : 		}

  00015	8b e5		 mov	 esp, ebp
  00017	5d		 pop	 ebp
  00018	c2 04 00	 ret	 4
?allocate@?$allocator@PAVCHostWnd@@@std@@QAEPAPAVCHostWnd@@I@Z ENDP ; std::allocator<CHostWnd *>::allocate
_TEXT	ENDS
PUBLIC	?max_size@?$allocator@PAVILyricPopupWndShowObserver@@@std@@QBEIXZ ; std::allocator<ILyricPopupWndShowObserver *>::max_size
; Function compile flags: /Odt
; File d:\program files (x86)\microsoft visual studio .net 2003\vc7\include\vector
;	COMDAT ?max_size@?$vector@PAVILyricPopupWndShowObserver@@V?$allocator@PAVILyricPopupWndShowObserver@@@std@@@std@@QBEIXZ
_TEXT	SEGMENT
_this$ = -4						; size = 4
?max_size@?$vector@PAVILyricPopupWndShowObserver@@V?$allocator@PAVILyricPopupWndShowObserver@@@std@@@std@@QBEIXZ PROC NEAR ; std::vector<ILyricPopupWndShowObserver *,std::allocator<ILyricPopupWndShowObserver *> >::max_size, COMDAT
; _this$ = ecx

; 520  : 		{	// return maximum possible length of sequence

  00000	55		 push	 ebp
  00001	8b ec		 mov	 ebp, esp
  00003	51		 push	 ecx
  00004	89 4d fc	 mov	 DWORD PTR _this$[ebp], ecx

; 521  : 		return (this->_Alval.max_size());

  00007	8b 4d fc	 mov	 ecx, DWORD PTR _this$[ebp]
  0000a	e8 00 00 00 00	 call	 ?max_size@?$allocator@PAVILyricPopupWndShowObserver@@@std@@QBEIXZ ; std::allocator<ILyricPopupWndShowObserver *>::max_size

; 522  : 		}

  0000f	8b e5		 mov	 esp, ebp
  00011	5d		 pop	 ebp
  00012	c3		 ret	 0
?max_size@?$vector@PAVILyricPopupWndShowObserver@@V?$allocator@PAVILyricPopupWndShowObserver@@@std@@@std@@QBEIXZ ENDP ; std::vector<ILyricPopupWndShowObserver *,std::allocator<ILyricPopupWndShowObserver *> >::max_size
_TEXT	ENDS
PUBLIC	??$_Destroy_range@PAVILyricPopupWndShowObserver@@V?$allocator@PAVILyricPopupWndShowObserver@@@std@@@std@@YAXPAPAVILyricPopupWndShowObserver@@0AAV?$allocator@PAVILyricPopupWndShowObserver@@@0@@Z ; std::_Destroy_range<ILyricPopupWndShowObserver *,std::allocator<ILyricPopupWndShowObserver *> >
; Function compile flags: /Odt
;	COMDAT ?_Destroy@?$vector@PAVILyricPopupWndShowObserver@@V?$allocator@PAVILyricPopupWndShowObserver@@@std@@@std@@IAEXPAPAVILyricPopupWndShowObserver@@0@Z
_TEXT	SEGMENT
_this$ = -4						; size = 4
__First$ = 8						; size = 4
__Last$ = 12						; size = 4
?_Destroy@?$vector@PAVILyricPopupWndShowObserver@@V?$allocator@PAVILyricPopupWndShowObserver@@@std@@@std@@IAEXPAPAVILyricPopupWndShowObserver@@0@Z PROC NEAR ; std::vector<ILyricPopupWndShowObserver *,std::allocator<ILyricPopupWndShowObserver *> >::_Destroy, COMDAT
; _this$ = ecx

; 786  : 		{	// destroy [_First, _Last) using allocator

  00000	55		 push	 ebp
  00001	8b ec		 mov	 ebp, esp
  00003	51		 push	 ecx
  00004	89 4d fc	 mov	 DWORD PTR _this$[ebp], ecx

; 787  : 		_Destroy_range(_First, _Last, this->_Alval);

  00007	8b 45 fc	 mov	 eax, DWORD PTR _this$[ebp]
  0000a	50		 push	 eax
  0000b	8b 4d 0c	 mov	 ecx, DWORD PTR __Last$[ebp]
  0000e	51		 push	 ecx
  0000f	8b 55 08	 mov	 edx, DWORD PTR __First$[ebp]
  00012	52		 push	 edx
  00013	e8 00 00 00 00	 call	 ??$_Destroy_range@PAVILyricPopupWndShowObserver@@V?$allocator@PAVILyricPopupWndShowObserver@@@std@@@std@@YAXPAPAVILyricPopupWndShowObserver@@0AAV?$allocator@PAVILyricPopupWndShowObserver@@@0@@Z ; std::_Destroy_range<ILyricPopupWndShowObserver *,std::allocator<ILyricPopupWndShowObserver *> >
  00018	83 c4 0c	 add	 esp, 12			; 0000000cH

; 788  : 		}

  0001b	8b e5		 mov	 esp, ebp
  0001d	5d		 pop	 ebp
  0001e	c2 08 00	 ret	 8
?_Destroy@?$vector@PAVILyricPopupWndShowObserver@@V?$allocator@PAVILyricPopupWndShowObserver@@@std@@@std@@IAEXPAPAVILyricPopupWndShowObserver@@0@Z ENDP ; std::vector<ILyricPopupWndShowObserver *,std::allocator<ILyricPopupWndShowObserver *> >::_Destroy
_TEXT	ENDS
;	COMDAT xdata$x
xdata$x	SEGMENT
$T202859 DD	0ffffffffH
	DD	FLAT:$L202855
$T202857 DD	019930520H
	DD	01H
	DD	FLAT:$T202859
	DD	2 DUP(00H)
	DD	2 DUP(00H)
; Function compile flags: /Odt
xdata$x	ENDS
;	COMDAT ?_Xlen@?$vector@PAVILyricPopupWndShowObserver@@V?$allocator@PAVILyricPopupWndShowObserver@@@std@@@std@@IBEXXZ
_TEXT	SEGMENT
_this$ = -84						; size = 4
$T202854 = -80						; size = 28
$T202853 = -52						; size = 40
__$EHRec$ = -12						; size = 12
?_Xlen@?$vector@PAVILyricPopupWndShowObserver@@V?$allocator@PAVILyricPopupWndShowObserver@@@std@@@std@@IBEXXZ PROC NEAR ; std::vector<ILyricPopupWndShowObserver *,std::allocator<ILyricPopupWndShowObserver *> >::_Xlen, COMDAT
; _this$ = ecx

; 883  : 		{	// report a length_error

  00000	55		 push	 ebp
  00001	8b ec		 mov	 ebp, esp
  00003	6a ff		 push	 -1
  00005	68 00 00 00 00	 push	 __ehhandler$?_Xlen@?$vector@PAVILyricPopupWndShowObserver@@V?$allocator@PAVILyricPopupWndShowObserver@@@std@@@std@@IBEXXZ
  0000a	64 a1 00 00 00
	00		 mov	 eax, DWORD PTR fs:__except_list
  00010	50		 push	 eax
  00011	64 89 25 00 00
	00 00		 mov	 DWORD PTR fs:__except_list, esp
  00018	83 ec 48	 sub	 esp, 72			; 00000048H
  0001b	89 4d ac	 mov	 DWORD PTR _this$[ebp], ecx

; 884  : 		_THROW(length_error, "vector<T> too long");

  0001e	68 00 00 00 00	 push	 OFFSET FLAT:??_C@_0BD@OLBABOEK@vector?$DMT?$DO?5too?5long?$AA@
  00023	8d 4d b0	 lea	 ecx, DWORD PTR $T202854[ebp]
  00026	ff 15 00 00 00
	00		 call	 DWORD PTR __imp_??0?$basic_string@DU?$char_traits@D@std@@V?$allocator@D@2@@std@@QAE@PBD@Z
  0002c	c7 45 fc 00 00
	00 00		 mov	 DWORD PTR __$EHRec$[ebp+8], 0
  00033	8d 45 b0	 lea	 eax, DWORD PTR $T202854[ebp]
  00036	50		 push	 eax
  00037	8d 4d cc	 lea	 ecx, DWORD PTR $T202853[ebp]
  0003a	e8 00 00 00 00	 call	 ??0length_error@std@@QAE@ABV?$basic_string@DU?$char_traits@D@std@@V?$allocator@D@2@@1@@Z ; std::length_error::length_error
  0003f	68 00 00 00 00	 push	 OFFSET FLAT:__TI3?AVlength_error@std@@
  00044	8d 4d cc	 lea	 ecx, DWORD PTR $T202853[ebp]
  00047	51		 push	 ecx
  00048	e8 00 00 00 00	 call	 __CxxThrowException@8
$L202852:

; 885  : 		}

  0004d	8b 4d f4	 mov	 ecx, DWORD PTR __$EHRec$[ebp]
  00050	64 89 0d 00 00
	00 00		 mov	 DWORD PTR fs:__except_list, ecx
  00057	8b e5		 mov	 esp, ebp
  00059	5d		 pop	 ebp
  0005a	c3		 ret	 0
_TEXT	ENDS
;	COMDAT text$x
text$x	SEGMENT
$L202855:
  00000	8d 4d b0	 lea	 ecx, DWORD PTR $T202854[ebp]
  00003	ff 25 00 00 00
	00		 jmp	 DWORD PTR __imp_??1?$basic_string@DU?$char_traits@D@std@@V?$allocator@D@2@@std@@QAE@XZ
__ehhandler$?_Xlen@?$vector@PAVILyricPopupWndShowObserver@@V?$allocator@PAVILyricPopupWndShowObserver@@@std@@@std@@IBEXXZ:
  00009	b8 00 00 00 00	 mov	 eax, OFFSET FLAT:$T202857
  0000e	e9 00 00 00 00	 jmp	 ___CxxFrameHandler
text$x	ENDS
?_Xlen@?$vector@PAVILyricPopupWndShowObserver@@V?$allocator@PAVILyricPopupWndShowObserver@@@std@@@std@@IBEXXZ ENDP ; std::vector<ILyricPopupWndShowObserver *,std::allocator<ILyricPopupWndShowObserver *> >::_Xlen
; Function compile flags: /Odt
; File d:\program files (x86)\microsoft visual studio .net 2003\vc7\include\xmemory
;	COMDAT ??0?$allocator@PAVILyricPopupWndShowObserver@@@std@@QAE@ABV01@@Z
_TEXT	SEGMENT
_this$ = -4						; size = 4
___formal$ = 8						; size = 4
??0?$allocator@PAVILyricPopupWndShowObserver@@@std@@QAE@ABV01@@Z PROC NEAR ; std::allocator<ILyricPopupWndShowObserver *>::allocator<ILyricPopupWndShowObserver *>, COMDAT
; _this$ = ecx

; 115  : 	allocator(const allocator<_Ty>&)

  00000	55		 push	 ebp
  00001	8b ec		 mov	 ebp, esp
  00003	51		 push	 ecx
  00004	89 4d fc	 mov	 DWORD PTR _this$[ebp], ecx

; 116  : 		{	// construct by copying (do nothing)
; 117  : 		}

  00007	8b 45 fc	 mov	 eax, DWORD PTR _this$[ebp]
  0000a	8b e5		 mov	 esp, ebp
  0000c	5d		 pop	 ebp
  0000d	c2 04 00	 ret	 4
??0?$allocator@PAVILyricPopupWndShowObserver@@@std@@QAE@ABV01@@Z ENDP ; std::allocator<ILyricPopupWndShowObserver *>::allocator<ILyricPopupWndShowObserver *>
; Function compile flags: /Odt
_TEXT	ENDS
;	COMDAT ?deallocate@?$allocator@PAVILyricPopupWndShowObserver@@@std@@QAEXPAPAVILyricPopupWndShowObserver@@I@Z
_TEXT	SEGMENT
_this$ = -4						; size = 4
__Ptr$ = 8						; size = 4
___formal$ = 12						; size = 4
?deallocate@?$allocator@PAVILyricPopupWndShowObserver@@@std@@QAEXPAPAVILyricPopupWndShowObserver@@I@Z PROC NEAR ; std::allocator<ILyricPopupWndShowObserver *>::deallocate, COMDAT
; _this$ = ecx

; 131  : 		{	// deallocate object at _Ptr, ignore size

  00000	55		 push	 ebp
  00001	8b ec		 mov	 ebp, esp
  00003	51		 push	 ecx
  00004	89 4d fc	 mov	 DWORD PTR _this$[ebp], ecx

; 132  : 		operator delete(_Ptr);

  00007	8b 45 08	 mov	 eax, DWORD PTR __Ptr$[ebp]
  0000a	50		 push	 eax
  0000b	e8 00 00 00 00	 call	 ??3@YAXPAX@Z		; operator delete
  00010	83 c4 04	 add	 esp, 4

; 133  : 		}

  00013	8b e5		 mov	 esp, ebp
  00015	5d		 pop	 ebp
  00016	c2 08 00	 ret	 8
?deallocate@?$allocator@PAVILyricPopupWndShowObserver@@@std@@QAEXPAPAVILyricPopupWndShowObserver@@I@Z ENDP ; std::allocator<ILyricPopupWndShowObserver *>::deallocate
_TEXT	ENDS
PUBLIC	??$_Allocate@PAVILyricPopupWndShowObserver@@@std@@YAPAPAVILyricPopupWndShowObserver@@IPAPAV1@@Z ; std::_Allocate<ILyricPopupWndShowObserver *>
; Function compile flags: /Odt
;	COMDAT ?allocate@?$allocator@PAVILyricPopupWndShowObserver@@@std@@QAEPAPAVILyricPopupWndShowObserver@@I@Z
_TEXT	SEGMENT
_this$ = -4						; size = 4
__Count$ = 8						; size = 4
?allocate@?$allocator@PAVILyricPopupWndShowObserver@@@std@@QAEPAPAVILyricPopupWndShowObserver@@I@Z PROC NEAR ; std::allocator<ILyricPopupWndShowObserver *>::allocate, COMDAT
; _this$ = ecx

; 136  : 		{	// allocate array of _Count elements

  00000	55		 push	 ebp
  00001	8b ec		 mov	 ebp, esp
  00003	51		 push	 ecx
  00004	89 4d fc	 mov	 DWORD PTR _this$[ebp], ecx

; 137  : 		return (_Allocate(_Count, (pointer)0));

  00007	6a 00		 push	 0
  00009	8b 45 08	 mov	 eax, DWORD PTR __Count$[ebp]
  0000c	50		 push	 eax
  0000d	e8 00 00 00 00	 call	 ??$_Allocate@PAVILyricPopupWndShowObserver@@@std@@YAPAPAVILyricPopupWndShowObserver@@IPAPAV1@@Z ; std::_Allocate<ILyricPopupWndShowObserver *>
  00012	83 c4 08	 add	 esp, 8

; 138  : 		}

  00015	8b e5		 mov	 esp, ebp
  00017	5d		 pop	 ebp
  00018	c2 04 00	 ret	 4
?allocate@?$allocator@PAVILyricPopupWndShowObserver@@@std@@QAEPAPAVILyricPopupWndShowObserver@@I@Z ENDP ; std::allocator<ILyricPopupWndShowObserver *>::allocate
_TEXT	ENDS
PUBLIC	??0const_iterator@?$_Tree@V?$_Tmap_traits@PAUHWND__@@UCWndData@@U?$less@PAUHWND__@@@std@@V?$allocator@U?$pair@QAUHWND__@@UCWndData@@@std@@@4@$0A@@std@@@std@@QAE@XZ ; std::_Tree<std::_Tmap_traits<HWND__ *,CWndData,std::less<HWND__ *>,std::allocator<std::pair<HWND__ * const,CWndData> >,0> >::const_iterator::const_iterator
; Function compile flags: /Odt
; File d:\program files (x86)\microsoft visual studio .net 2003\vc7\include\xtree
;	COMDAT ??0iterator@?$_Tree@V?$_Tmap_traits@PAUHWND__@@UCWndData@@U?$less@PAUHWND__@@@std@@V?$allocator@U?$pair@QAUHWND__@@UCWndData@@@std@@@4@$0A@@std@@@std@@QAE@XZ
_TEXT	SEGMENT
_this$ = -4						; size = 4
??0iterator@?$_Tree@V?$_Tmap_traits@PAUHWND__@@UCWndData@@U?$less@PAUHWND__@@@std@@V?$allocator@U?$pair@QAUHWND__@@UCWndData@@@std@@@4@$0A@@std@@@std@@QAE@XZ PROC NEAR ; std::_Tree<std::_Tmap_traits<HWND__ *,CWndData,std::less<HWND__ *>,std::allocator<std::pair<HWND__ * const,CWndData> >,0> >::iterator::iterator, COMDAT
; _this$ = ecx

; 304  : 		iterator()

  00000	55		 push	 ebp
  00001	8b ec		 mov	 ebp, esp
  00003	51		 push	 ecx
  00004	89 4d fc	 mov	 DWORD PTR _this$[ebp], ecx
  00007	8b 4d fc	 mov	 ecx, DWORD PTR _this$[ebp]
  0000a	e8 00 00 00 00	 call	 ??0const_iterator@?$_Tree@V?$_Tmap_traits@PAUHWND__@@UCWndData@@U?$less@PAUHWND__@@@std@@V?$allocator@U?$pair@QAUHWND__@@UCWndData@@@std@@@4@$0A@@std@@@std@@QAE@XZ ; std::_Tree<std::_Tmap_traits<HWND__ *,CWndData,std::less<HWND__ *>,std::allocator<std::pair<HWND__ * const,CWndData> >,0> >::const_iterator::const_iterator

; 305  : 			{	// construct with null node pointer
; 306  : 			}

  0000f	8b 45 fc	 mov	 eax, DWORD PTR _this$[ebp]
  00012	8b e5		 mov	 esp, ebp
  00014	5d		 pop	 ebp
  00015	c3		 ret	 0
??0iterator@?$_Tree@V?$_Tmap_traits@PAUHWND__@@UCWndData@@U?$less@PAUHWND__@@@std@@V?$allocator@U?$pair@QAUHWND__@@UCWndData@@@std@@@4@$0A@@std@@@std@@QAE@XZ ENDP ; std::_Tree<std::_Tmap_traits<HWND__ *,CWndData,std::less<HWND__ *>,std::allocator<std::pair<HWND__ * const,CWndData> >,0> >::iterator::iterator
_TEXT	ENDS
PUBLIC	??Fconst_iterator@?$_Tree@V?$_Tmap_traits@PAUHWND__@@UCWndData@@U?$less@PAUHWND__@@@std@@V?$allocator@U?$pair@QAUHWND__@@UCWndData@@@std@@@4@$0A@@std@@@std@@QAEAAV012@XZ ; std::_Tree<std::_Tmap_traits<HWND__ *,CWndData,std::less<HWND__ *>,std::allocator<std::pair<HWND__ * const,CWndData> >,0> >::const_iterator::operator--
; Function compile flags: /Odt
;	COMDAT ??Fiterator@?$_Tree@V?$_Tmap_traits@PAUHWND__@@UCWndData@@U?$less@PAUHWND__@@@std@@V?$allocator@U?$pair@QAUHWND__@@UCWndData@@@std@@@4@$0A@@std@@@std@@QAEAAV012@XZ
_TEXT	SEGMENT
_this$ = -4						; size = 4
??Fiterator@?$_Tree@V?$_Tmap_traits@PAUHWND__@@UCWndData@@U?$less@PAUHWND__@@@std@@V?$allocator@U?$pair@QAUHWND__@@UCWndData@@@std@@@4@$0A@@std@@@std@@QAEAAV012@XZ PROC NEAR ; std::_Tree<std::_Tmap_traits<HWND__ *,CWndData,std::less<HWND__ *>,std::allocator<std::pair<HWND__ * const,CWndData> >,0> >::iterator::operator--, COMDAT
; _this$ = ecx

; 339  : 			{	// predecrement

  00000	55		 push	 ebp
  00001	8b ec		 mov	 ebp, esp
  00003	51		 push	 ecx
  00004	89 4d fc	 mov	 DWORD PTR _this$[ebp], ecx

; 340  : 			--(*(const_iterator *)this);

  00007	8b 4d fc	 mov	 ecx, DWORD PTR _this$[ebp]
  0000a	e8 00 00 00 00	 call	 ??Fconst_iterator@?$_Tree@V?$_Tmap_traits@PAUHWND__@@UCWndData@@U?$less@PAUHWND__@@@std@@V?$allocator@U?$pair@QAUHWND__@@UCWndData@@@std@@@4@$0A@@std@@@std@@QAEAAV012@XZ ; std::_Tree<std::_Tmap_traits<HWND__ *,CWndData,std::less<HWND__ *>,std::allocator<std::pair<HWND__ * const,CWndData> >,0> >::const_iterator::operator--

; 341  : 			return (*this);

  0000f	8b 45 fc	 mov	 eax, DWORD PTR _this$[ebp]

; 342  : 			}

  00012	8b e5		 mov	 esp, ebp
  00014	5d		 pop	 ebp
  00015	c3		 ret	 0
??Fiterator@?$_Tree@V?$_Tmap_traits@PAUHWND__@@UCWndData@@U?$less@PAUHWND__@@@std@@V?$allocator@U?$pair@QAUHWND__@@UCWndData@@@std@@@4@$0A@@std@@@std@@QAEAAV012@XZ ENDP ; std::_Tree<std::_Tmap_traits<HWND__ *,CWndData,std::less<HWND__ *>,std::allocator<std::pair<HWND__ * const,CWndData> >,0> >::iterator::operator--
; Function compile flags: /Odt
_TEXT	ENDS
;	COMDAT ??0const_iterator@?$_Tree@V?$_Tmap_traits@PAUHWND__@@UCWndData@@U?$less@PAUHWND__@@@std@@V?$allocator@U?$pair@QAUHWND__@@UCWndData@@@std@@@4@$0A@@std@@@std@@QAE@PAU_Node@?$_Tree_nod@V?$_Tmap_traits@PAUHWND__@@UCWndData@@U?$less@PAUHWND__@@@std@@V?$allocator@U?$pair@QAUHWND__@@UCWndData@@@std@@@4@$0A@@std@@@2@@Z
_TEXT	SEGMENT
_this$ = -4						; size = 4
__Pnode$ = 8						; size = 4
??0const_iterator@?$_Tree@V?$_Tmap_traits@PAUHWND__@@UCWndData@@U?$less@PAUHWND__@@@std@@V?$allocator@U?$pair@QAUHWND__@@UCWndData@@@std@@@4@$0A@@std@@@std@@QAE@PAU_Node@?$_Tree_nod@V?$_Tmap_traits@PAUHWND__@@UCWndData@@U?$less@PAUHWND__@@@std@@V?$allocator@U?$pair@QAUHWND__@@UCWndData@@@std@@@4@$0A@@std@@@2@@Z PROC NEAR ; std::_Tree<std::_Tmap_traits<HWND__ *,CWndData,std::less<HWND__ *>,std::allocator<std::pair<HWND__ * const,CWndData> >,0> >::const_iterator::const_iterator, COMDAT
; _this$ = ecx

; 200  : 			{	// construct with node pointer _Pnode

  00000	55		 push	 ebp
  00001	8b ec		 mov	 ebp, esp
  00003	51		 push	 ecx
  00004	89 4d fc	 mov	 DWORD PTR _this$[ebp], ecx
  00007	8b 45 fc	 mov	 eax, DWORD PTR _this$[ebp]
  0000a	8b 4d 08	 mov	 ecx, DWORD PTR __Pnode$[ebp]
  0000d	89 08		 mov	 DWORD PTR [eax], ecx

; 201  : 			}

  0000f	8b 45 fc	 mov	 eax, DWORD PTR _this$[ebp]
  00012	8b e5		 mov	 esp, ebp
  00014	5d		 pop	 ebp
  00015	c2 04 00	 ret	 4
??0const_iterator@?$_Tree@V?$_Tmap_traits@PAUHWND__@@UCWndData@@U?$less@PAUHWND__@@@std@@V?$allocator@U?$pair@QAUHWND__@@UCWndData@@@std@@@4@$0A@@std@@@std@@QAE@PAU_Node@?$_Tree_nod@V?$_Tmap_traits@PAUHWND__@@UCWndData@@U?$less@PAUHWND__@@@std@@V?$allocator@U?$pair@QAUHWND__@@UCWndData@@@std@@@4@$0A@@std@@@2@@Z ENDP ; std::_Tree<std::_Tmap_traits<HWND__ *,CWndData,std::less<HWND__ *>,std::allocator<std::pair<HWND__ * const,CWndData> >,0> >::const_iterator::const_iterator
; Function compile flags: /Odt
_TEXT	ENDS
;	COMDAT ??Dconst_iterator@?$_Tree@V?$_Tmap_traits@PAUHWND__@@UCWndData@@U?$less@PAUHWND__@@@std@@V?$allocator@U?$pair@QAUHWND__@@UCWndData@@@std@@@4@$0A@@std@@@std@@QBEABU?$pair@QAUHWND__@@UCWndData@@@2@XZ
_TEXT	SEGMENT
_this$ = -4						; size = 4
??Dconst_iterator@?$_Tree@V?$_Tmap_traits@PAUHWND__@@UCWndData@@U?$less@PAUHWND__@@@std@@V?$allocator@U?$pair@QAUHWND__@@UCWndData@@@std@@@4@$0A@@std@@@std@@QBEABU?$pair@QAUHWND__@@UCWndData@@@2@XZ PROC NEAR ; std::_Tree<std::_Tmap_traits<HWND__ *,CWndData,std::less<HWND__ *>,std::allocator<std::pair<HWND__ * const,CWndData> >,0> >::const_iterator::operator*, COMDAT
; _this$ = ecx

; 204  : 			{	// return designated value

  00000	55		 push	 ebp
  00001	8b ec		 mov	 ebp, esp
  00003	51		 push	 ecx
  00004	89 4d fc	 mov	 DWORD PTR _this$[ebp], ecx

; 205  : 			return (_Myval(_Ptr));

  00007	8b 45 fc	 mov	 eax, DWORD PTR _this$[ebp]
  0000a	8b 08		 mov	 ecx, DWORD PTR [eax]
  0000c	51		 push	 ecx
  0000d	e8 00 00 00 00	 call	 ?_Myval@?$_Tree@V?$_Tmap_traits@PAUHWND__@@UCWndData@@U?$less@PAUHWND__@@@std@@V?$allocator@U?$pair@QAUHWND__@@UCWndData@@@std@@@4@$0A@@std@@@std@@KAAAU?$pair@QAUHWND__@@UCWndData@@@2@PAU_Node@?$_Tree_nod@V?$_Tmap_traits@PAUHWND__@@UCWndData@@U?$less@PAUHWND__@@@std@@V?$allocator@U?$pair@QAUHWND__@@UCWndData@@@std@@@4@$0A@@std@@@2@@Z ; std::_Tree<std::_Tmap_traits<HWND__ *,CWndData,std::less<HWND__ *>,std::allocator<std::pair<HWND__ * const,CWndData> >,0> >::_Myval
  00012	83 c4 04	 add	 esp, 4

; 206  : 			}

  00015	8b e5		 mov	 esp, ebp
  00017	5d		 pop	 ebp
  00018	c3		 ret	 0
??Dconst_iterator@?$_Tree@V?$_Tmap_traits@PAUHWND__@@UCWndData@@U?$less@PAUHWND__@@@std@@V?$allocator@U?$pair@QAUHWND__@@UCWndData@@@std@@@4@$0A@@std@@@std@@QBEABU?$pair@QAUHWND__@@UCWndData@@@2@XZ ENDP ; std::_Tree<std::_Tmap_traits<HWND__ *,CWndData,std::less<HWND__ *>,std::allocator<std::pair<HWND__ * const,CWndData> >,0> >::const_iterator::operator*
_TEXT	ENDS
PUBLIC	?_Inc@const_iterator@?$_Tree@V?$_Tmap_traits@PAUHWND__@@UCWndData@@U?$less@PAUHWND__@@@std@@V?$allocator@U?$pair@QAUHWND__@@UCWndData@@@std@@@4@$0A@@std@@@std@@QAEXXZ ; std::_Tree<std::_Tmap_traits<HWND__ *,CWndData,std::less<HWND__ *>,std::allocator<std::pair<HWND__ * const,CWndData> >,0> >::const_iterator::_Inc
; Function compile flags: /Odt
;	COMDAT ??Econst_iterator@?$_Tree@V?$_Tmap_traits@PAUHWND__@@UCWndData@@U?$less@PAUHWND__@@@std@@V?$allocator@U?$pair@QAUHWND__@@UCWndData@@@std@@@4@$0A@@std@@@std@@QAEAAV012@XZ
_TEXT	SEGMENT
_this$ = -4						; size = 4
??Econst_iterator@?$_Tree@V?$_Tmap_traits@PAUHWND__@@UCWndData@@U?$less@PAUHWND__@@@std@@V?$allocator@U?$pair@QAUHWND__@@UCWndData@@@std@@@4@$0A@@std@@@std@@QAEAAV012@XZ PROC NEAR ; std::_Tree<std::_Tmap_traits<HWND__ *,CWndData,std::less<HWND__ *>,std::allocator<std::pair<HWND__ * const,CWndData> >,0> >::const_iterator::operator++, COMDAT
; _this$ = ecx

; 214  : 			{	// preincrement

  00000	55		 push	 ebp
  00001	8b ec		 mov	 ebp, esp
  00003	51		 push	 ecx
  00004	89 4d fc	 mov	 DWORD PTR _this$[ebp], ecx

; 215  : 			_Inc();

  00007	8b 4d fc	 mov	 ecx, DWORD PTR _this$[ebp]
  0000a	e8 00 00 00 00	 call	 ?_Inc@const_iterator@?$_Tree@V?$_Tmap_traits@PAUHWND__@@UCWndData@@U?$less@PAUHWND__@@@std@@V?$allocator@U?$pair@QAUHWND__@@UCWndData@@@std@@@4@$0A@@std@@@std@@QAEXXZ ; std::_Tree<std::_Tmap_traits<HWND__ *,CWndData,std::less<HWND__ *>,std::allocator<std::pair<HWND__ * const,CWndData> >,0> >::const_iterator::_Inc

; 216  : 			return (*this);

  0000f	8b 45 fc	 mov	 eax, DWORD PTR _this$[ebp]

; 217  : 			}

  00012	8b e5		 mov	 esp, ebp
  00014	5d		 pop	 ebp
  00015	c3		 ret	 0
??Econst_iterator@?$_Tree@V?$_Tmap_traits@PAUHWND__@@UCWndData@@U?$less@PAUHWND__@@@std@@V?$allocator@U?$pair@QAUHWND__@@UCWndData@@@std@@@4@$0A@@std@@@std@@QAEAAV012@XZ ENDP ; std::_Tree<std::_Tmap_traits<HWND__ *,CWndData,std::less<HWND__ *>,std::allocator<std::pair<HWND__ * const,CWndData> >,0> >::const_iterator::operator++
_TEXT	ENDS
PUBLIC	??0const_iterator@?$vector@PAVCHostWnd@@V?$allocator@PAVCHostWnd@@@std@@@std@@QAE@PAPAVCHostWnd@@@Z ; std::vector<CHostWnd *,std::allocator<CHostWnd *> >::const_iterator::const_iterator
; Function compile flags: /Odt
; File d:\program files (x86)\microsoft visual studio .net 2003\vc7\include\vector
;	COMDAT ??0iterator@?$vector@PAVCHostWnd@@V?$allocator@PAVCHostWnd@@@std@@@std@@QAE@PAPAVCHostWnd@@@Z
_TEXT	SEGMENT
_this$ = -4						; size = 4
__Ptr$ = 8						; size = 4
??0iterator@?$vector@PAVCHostWnd@@V?$allocator@PAVCHostWnd@@@std@@@std@@QAE@PAPAVCHostWnd@@@Z PROC NEAR ; std::vector<CHostWnd *,std::allocator<CHostWnd *> >::iterator::iterator, COMDAT
; _this$ = ecx

; 215  : 			{	// construct with pointer _Ptr

  00000	55		 push	 ebp
  00001	8b ec		 mov	 ebp, esp
  00003	51		 push	 ecx
  00004	89 4d fc	 mov	 DWORD PTR _this$[ebp], ecx
  00007	8b 45 08	 mov	 eax, DWORD PTR __Ptr$[ebp]
  0000a	50		 push	 eax
  0000b	8b 4d fc	 mov	 ecx, DWORD PTR _this$[ebp]
  0000e	e8 00 00 00 00	 call	 ??0const_iterator@?$vector@PAVCHostWnd@@V?$allocator@PAVCHostWnd@@@std@@@std@@QAE@PAPAVCHostWnd@@@Z ; std::vector<CHostWnd *,std::allocator<CHostWnd *> >::const_iterator::const_iterator

; 216  : 			}

  00013	8b 45 fc	 mov	 eax, DWORD PTR _this$[ebp]
  00016	8b e5		 mov	 esp, ebp
  00018	5d		 pop	 ebp
  00019	c2 04 00	 ret	 4
??0iterator@?$vector@PAVCHostWnd@@V?$allocator@PAVCHostWnd@@@std@@@std@@QAE@PAPAVCHostWnd@@@Z ENDP ; std::vector<CHostWnd *,std::allocator<CHostWnd *> >::iterator::iterator
; Function compile flags: /Odt
_TEXT	ENDS
;	COMDAT ??Yiterator@?$vector@PAVCHostWnd@@V?$allocator@PAVCHostWnd@@@std@@@std@@QAEAAV012@H@Z
_TEXT	SEGMENT
_this$ = -4						; size = 4
__Off$ = 8						; size = 4
??Yiterator@?$vector@PAVCHostWnd@@V?$allocator@PAVCHostWnd@@@std@@@std@@QAEAAV012@H@Z PROC NEAR ; std::vector<CHostWnd *,std::allocator<CHostWnd *> >::iterator::operator+=, COMDAT
; _this$ = ecx

; 255  : 			{	// increment by integer

  00000	55		 push	 ebp
  00001	8b ec		 mov	 ebp, esp
  00003	51		 push	 ecx
  00004	89 4d fc	 mov	 DWORD PTR _this$[ebp], ecx

; 256  : 			this->_Myptr += _Off;

  00007	8b 45 fc	 mov	 eax, DWORD PTR _this$[ebp]
  0000a	8b 08		 mov	 ecx, DWORD PTR [eax]
  0000c	8b 55 08	 mov	 edx, DWORD PTR __Off$[ebp]
  0000f	8d 04 91	 lea	 eax, DWORD PTR [ecx+edx*4]
  00012	8b 4d fc	 mov	 ecx, DWORD PTR _this$[ebp]
  00015	89 01		 mov	 DWORD PTR [ecx], eax

; 257  : 			return (*this);

  00017	8b 45 fc	 mov	 eax, DWORD PTR _this$[ebp]

; 258  : 			}

  0001a	8b e5		 mov	 esp, ebp
  0001c	5d		 pop	 ebp
  0001d	c2 04 00	 ret	 4
??Yiterator@?$vector@PAVCHostWnd@@V?$allocator@PAVCHostWnd@@@std@@@std@@QAEAAV012@H@Z ENDP ; std::vector<CHostWnd *,std::allocator<CHostWnd *> >::iterator::operator+=
_TEXT	ENDS
PUBLIC	??Gconst_iterator@?$vector@PAVCHostWnd@@V?$allocator@PAVCHostWnd@@@std@@@std@@QBEHABV012@@Z ; std::vector<CHostWnd *,std::allocator<CHostWnd *> >::const_iterator::operator-
; Function compile flags: /Odt
;	COMDAT ??Giterator@?$vector@PAVCHostWnd@@V?$allocator@PAVCHostWnd@@@std@@@std@@QBEHABVconst_iterator@12@@Z
_TEXT	SEGMENT
_this$ = -8						; size = 4
$T202884 = -4						; size = 4
__Right$ = 8						; size = 4
??Giterator@?$vector@PAVCHostWnd@@V?$allocator@PAVCHostWnd@@@std@@@std@@QBEHABVconst_iterator@12@@Z PROC NEAR ; std::vector<CHostWnd *,std::allocator<CHostWnd *> >::iterator::operator-, COMDAT
; _this$ = ecx

; 278  : 			{	// return difference of iterators

  00000	55		 push	 ebp
  00001	8b ec		 mov	 ebp, esp
  00003	83 ec 08	 sub	 esp, 8
  00006	89 4d f8	 mov	 DWORD PTR _this$[ebp], ecx

; 279  : 			return ((const_iterator)*this - _Right);

  00009	8b 45 f8	 mov	 eax, DWORD PTR _this$[ebp]
  0000c	8b 08		 mov	 ecx, DWORD PTR [eax]
  0000e	89 4d fc	 mov	 DWORD PTR $T202884[ebp], ecx
  00011	8b 55 08	 mov	 edx, DWORD PTR __Right$[ebp]
  00014	52		 push	 edx
  00015	8d 4d fc	 lea	 ecx, DWORD PTR $T202884[ebp]
  00018	e8 00 00 00 00	 call	 ??Gconst_iterator@?$vector@PAVCHostWnd@@V?$allocator@PAVCHostWnd@@@std@@@std@@QBEHABV012@@Z ; std::vector<CHostWnd *,std::allocator<CHostWnd *> >::const_iterator::operator-

; 280  : 			}

  0001d	8b e5		 mov	 esp, ebp
  0001f	5d		 pop	 ebp
  00020	c2 04 00	 ret	 4
??Giterator@?$vector@PAVCHostWnd@@V?$allocator@PAVCHostWnd@@@std@@@std@@QBEHABVconst_iterator@12@@Z ENDP ; std::vector<CHostWnd *,std::allocator<CHostWnd *> >::iterator::operator-
; Function compile flags: /Odt
_TEXT	ENDS
;	COMDAT ??Dconst_iterator@?$vector@PAVCHostWnd@@V?$allocator@PAVCHostWnd@@@std@@@std@@QBEABQAVCHostWnd@@XZ
_TEXT	SEGMENT
_this$ = -4						; size = 4
??Dconst_iterator@?$vector@PAVCHostWnd@@V?$allocator@PAVCHostWnd@@@std@@@std@@QBEABQAVCHostWnd@@XZ PROC NEAR ; std::vector<CHostWnd *,std::allocator<CHostWnd *> >::const_iterator::operator*, COMDAT
; _this$ = ecx

; 79   : 			{	// return designated object

  00000	55		 push	 ebp
  00001	8b ec		 mov	 ebp, esp
  00003	51		 push	 ecx
  00004	89 4d fc	 mov	 DWORD PTR _this$[ebp], ecx

; 80   : 
; 81   : 
; 82   : 			return (*_Myptr);

  00007	8b 45 fc	 mov	 eax, DWORD PTR _this$[ebp]
  0000a	8b 00		 mov	 eax, DWORD PTR [eax]

; 83   : 			}

  0000c	8b e5		 mov	 esp, ebp
  0000e	5d		 pop	 ebp
  0000f	c3		 ret	 0
??Dconst_iterator@?$vector@PAVCHostWnd@@V?$allocator@PAVCHostWnd@@@std@@@std@@QBEABQAVCHostWnd@@XZ ENDP ; std::vector<CHostWnd *,std::allocator<CHostWnd *> >::const_iterator::operator*
_TEXT	ENDS
PUBLIC	??0const_iterator@?$vector@USepWindowData@@V?$allocator@USepWindowData@@@std@@@std@@QAE@PAUSepWindowData@@@Z ; std::vector<SepWindowData,std::allocator<SepWindowData> >::const_iterator::const_iterator
; Function compile flags: /Odt
;	COMDAT ??0iterator@?$vector@USepWindowData@@V?$allocator@USepWindowData@@@std@@@std@@QAE@PAUSepWindowData@@@Z
_TEXT	SEGMENT
_this$ = -4						; size = 4
__Ptr$ = 8						; size = 4
??0iterator@?$vector@USepWindowData@@V?$allocator@USepWindowData@@@std@@@std@@QAE@PAUSepWindowData@@@Z PROC NEAR ; std::vector<SepWindowData,std::allocator<SepWindowData> >::iterator::iterator, COMDAT
; _this$ = ecx

; 215  : 			{	// construct with pointer _Ptr

  00000	55		 push	 ebp
  00001	8b ec		 mov	 ebp, esp
  00003	51		 push	 ecx
  00004	89 4d fc	 mov	 DWORD PTR _this$[ebp], ecx
  00007	8b 45 08	 mov	 eax, DWORD PTR __Ptr$[ebp]
  0000a	50		 push	 eax
  0000b	8b 4d fc	 mov	 ecx, DWORD PTR _this$[ebp]
  0000e	e8 00 00 00 00	 call	 ??0const_iterator@?$vector@USepWindowData@@V?$allocator@USepWindowData@@@std@@@std@@QAE@PAUSepWindowData@@@Z ; std::vector<SepWindowData,std::allocator<SepWindowData> >::const_iterator::const_iterator

; 216  : 			}

  00013	8b 45 fc	 mov	 eax, DWORD PTR _this$[ebp]
  00016	8b e5		 mov	 esp, ebp
  00018	5d		 pop	 ebp
  00019	c2 04 00	 ret	 4
??0iterator@?$vector@USepWindowData@@V?$allocator@USepWindowData@@@std@@@std@@QAE@PAUSepWindowData@@@Z ENDP ; std::vector<SepWindowData,std::allocator<SepWindowData> >::iterator::iterator
; Function compile flags: /Odt
_TEXT	ENDS
;	COMDAT ??Yiterator@?$vector@USepWindowData@@V?$allocator@USepWindowData@@@std@@@std@@QAEAAV012@H@Z
_TEXT	SEGMENT
_this$ = -4						; size = 4
__Off$ = 8						; size = 4
??Yiterator@?$vector@USepWindowData@@V?$allocator@USepWindowData@@@std@@@std@@QAEAAV012@H@Z PROC NEAR ; std::vector<SepWindowData,std::allocator<SepWindowData> >::iterator::operator+=, COMDAT
; _this$ = ecx

; 255  : 			{	// increment by integer

  00000	55		 push	 ebp
  00001	8b ec		 mov	 ebp, esp
  00003	51		 push	 ecx
  00004	89 4d fc	 mov	 DWORD PTR _this$[ebp], ecx

; 256  : 			this->_Myptr += _Off;

  00007	8b 45 08	 mov	 eax, DWORD PTR __Off$[ebp]
  0000a	6b c0 30	 imul	 eax, 48			; 00000030H
  0000d	8b 4d fc	 mov	 ecx, DWORD PTR _this$[ebp]
  00010	03 01		 add	 eax, DWORD PTR [ecx]
  00012	8b 55 fc	 mov	 edx, DWORD PTR _this$[ebp]
  00015	89 02		 mov	 DWORD PTR [edx], eax

; 257  : 			return (*this);

  00017	8b 45 fc	 mov	 eax, DWORD PTR _this$[ebp]

; 258  : 			}

  0001a	8b e5		 mov	 esp, ebp
  0001c	5d		 pop	 ebp
  0001d	c2 04 00	 ret	 4
??Yiterator@?$vector@USepWindowData@@V?$allocator@USepWindowData@@@std@@@std@@QAEAAV012@H@Z ENDP ; std::vector<SepWindowData,std::allocator<SepWindowData> >::iterator::operator+=
; Function compile flags: /Odt
_TEXT	ENDS
;	COMDAT ??Dconst_iterator@?$vector@USepWindowData@@V?$allocator@USepWindowData@@@std@@@std@@QBEABUSepWindowData@@XZ
_TEXT	SEGMENT
_this$ = -4						; size = 4
??Dconst_iterator@?$vector@USepWindowData@@V?$allocator@USepWindowData@@@std@@@std@@QBEABUSepWindowData@@XZ PROC NEAR ; std::vector<SepWindowData,std::allocator<SepWindowData> >::const_iterator::operator*, COMDAT
; _this$ = ecx

; 79   : 			{	// return designated object

  00000	55		 push	 ebp
  00001	8b ec		 mov	 ebp, esp
  00003	51		 push	 ecx
  00004	89 4d fc	 mov	 DWORD PTR _this$[ebp], ecx

; 80   : 
; 81   : 
; 82   : 			return (*_Myptr);

  00007	8b 45 fc	 mov	 eax, DWORD PTR _this$[ebp]
  0000a	8b 00		 mov	 eax, DWORD PTR [eax]

; 83   : 			}

  0000c	8b e5		 mov	 esp, ebp
  0000e	5d		 pop	 ebp
  0000f	c3		 ret	 0
??Dconst_iterator@?$vector@USepWindowData@@V?$allocator@USepWindowData@@@std@@@std@@QBEABUSepWindowData@@XZ ENDP ; std::vector<SepWindowData,std::allocator<SepWindowData> >::const_iterator::operator*
_TEXT	ENDS
PUBLIC	??_R1A@?0A@A@logic_error@std@@8			; std::logic_error::`RTTI Base Class Descriptor at (0,-1,0,0)'
PUBLIC	??_R1A@?0A@A@exception@@8			; exception::`RTTI Base Class Descriptor at (0,-1,0,0)'
PUBLIC	??_R4length_error@std@@6B@			; std::length_error::`RTTI Complete Object Locator'
PUBLIC	??_R3length_error@std@@8			; std::length_error::`RTTI Class Hierarchy Descriptor'
PUBLIC	??_R2length_error@std@@8			; std::length_error::`RTTI Base Class Array'
PUBLIC	??_R1A@?0A@A@length_error@std@@8		; std::length_error::`RTTI Base Class Descriptor at (0,-1,0,0)'
PUBLIC	?what@logic_error@std@@UBEPBDXZ			; std::logic_error::what
PUBLIC	??_7length_error@std@@6B@			; std::length_error::`vftable'
PUBLIC	??_Glength_error@std@@UAEPAXI@Z			; std::length_error::`scalar deleting destructor'
EXTRN	??_Elength_error@std@@UAEPAXI@Z:NEAR		; std::length_error::`vector deleting destructor'
;	COMDAT ??_7length_error@std@@6B@
CONST	SEGMENT
??_7length_error@std@@6B@ DD FLAT:??_R4length_error@std@@6B@ ; std::length_error::`vftable'
	DD	FLAT:??_Elength_error@std@@UAEPAXI@Z
	DD	FLAT:?what@logic_error@std@@UBEPBDXZ
CONST	ENDS
;	COMDAT ??_R4length_error@std@@6B@
rdata$r	SEGMENT
??_R4length_error@std@@6B@ DD 00H			; std::length_error::`RTTI Complete Object Locator'
	DD	00H
	DD	00H
	DD	FLAT:??_R0?AVlength_error@std@@@8
	DD	FLAT:??_R3length_error@std@@8
rdata$r	ENDS
;	COMDAT ??_R3length_error@std@@8
rdata$r	SEGMENT
??_R3length_error@std@@8 DD 00H				; std::length_error::`RTTI Class Hierarchy Descriptor'
	DD	00H
	DD	03H
	DD	FLAT:??_R2length_error@std@@8
rdata$r	ENDS
;	COMDAT ??_R2length_error@std@@8
rdata$r	SEGMENT
??_R2length_error@std@@8 DD FLAT:??_R1A@?0A@A@length_error@std@@8 ; std::length_error::`RTTI Base Class Array'
	DD	FLAT:??_R1A@?0A@A@logic_error@std@@8
	DD	FLAT:??_R1A@?0A@A@exception@@8
rdata$r	ENDS
;	COMDAT ??_R1A@?0A@A@length_error@std@@8
rdata$r	SEGMENT
??_R1A@?0A@A@length_error@std@@8 DD FLAT:??_R0?AVlength_error@std@@@8 ; std::length_error::`RTTI Base Class Descriptor at (0,-1,0,0)'
	DD	02H
	DD	00H
	DD	0ffffffffH
	DD	00H
	DD	00H
rdata$r	ENDS
;	COMDAT ??_R1A@?0A@A@logic_error@std@@8
rdata$r	SEGMENT
??_R1A@?0A@A@logic_error@std@@8 DD FLAT:??_R0?AVlogic_error@std@@@8 ; std::logic_error::`RTTI Base Class Descriptor at (0,-1,0,0)'
	DD	01H
	DD	00H
	DD	0ffffffffH
	DD	00H
	DD	00H
rdata$r	ENDS
;	COMDAT ??_R1A@?0A@A@exception@@8
rdata$r	SEGMENT
??_R1A@?0A@A@exception@@8 DD FLAT:??_R0?AVexception@@@8	; exception::`RTTI Base Class Descriptor at (0,-1,0,0)'
	DD	00H
	DD	00H
	DD	0ffffffffH
	DD	00H
	DD	00H
; Function compile flags: /Odt
rdata$r	ENDS
;	COMDAT ??0length_error@std@@QAE@ABV01@@Z
_TEXT	SEGMENT
_this$ = -4						; size = 4
___that$ = 8						; size = 4
??0length_error@std@@QAE@ABV01@@Z PROC NEAR		; std::length_error::length_error, COMDAT
; _this$ = ecx
  00000	55		 push	 ebp
  00001	8b ec		 mov	 ebp, esp
  00003	51		 push	 ecx
  00004	89 4d fc	 mov	 DWORD PTR _this$[ebp], ecx
  00007	8b 45 08	 mov	 eax, DWORD PTR ___that$[ebp]
  0000a	50		 push	 eax
  0000b	8b 4d fc	 mov	 ecx, DWORD PTR _this$[ebp]
  0000e	e8 00 00 00 00	 call	 ??0logic_error@std@@QAE@ABV01@@Z
  00013	8b 4d fc	 mov	 ecx, DWORD PTR _this$[ebp]
  00016	c7 01 00 00 00
	00		 mov	 DWORD PTR [ecx], OFFSET FLAT:??_7length_error@std@@6B@
  0001c	8b 45 fc	 mov	 eax, DWORD PTR _this$[ebp]
  0001f	8b e5		 mov	 esp, ebp
  00021	5d		 pop	 ebp
  00022	c2 04 00	 ret	 4
??0length_error@std@@QAE@ABV01@@Z ENDP			; std::length_error::length_error
; Function compile flags: /Odt
; File d:\program files (x86)\microsoft visual studio .net 2003\vc7\include\xtree
_TEXT	ENDS
;	COMDAT ?_Color@?$_Tree@V?$_Tmap_traits@PAUHWND__@@UCWndData@@U?$less@PAUHWND__@@@std@@V?$allocator@U?$pair@QAUHWND__@@UCWndData@@@std@@@4@$0A@@std@@@std@@KAAADPAU_Node@?$_Tree_nod@V?$_Tmap_traits@PAUHWND__@@UCWndData@@U?$less@PAUHWND__@@@std@@V?$allocator@U?$pair@QAUHWND__@@UCWndData@@@std@@@4@$0A@@std@@@2@@Z
_TEXT	SEGMENT
__Pnode$ = 8						; size = 4
?_Color@?$_Tree@V?$_Tmap_traits@PAUHWND__@@UCWndData@@U?$less@PAUHWND__@@@std@@V?$allocator@U?$pair@QAUHWND__@@UCWndData@@@std@@@4@$0A@@std@@@std@@KAAADPAU_Node@?$_Tree_nod@V?$_Tmap_traits@PAUHWND__@@UCWndData@@U?$less@PAUHWND__@@@std@@V?$allocator@U?$pair@QAUHWND__@@UCWndData@@@std@@@4@$0A@@std@@@2@@Z PROC NEAR ; std::_Tree<std::_Tmap_traits<HWND__ *,CWndData,std::less<HWND__ *>,std::allocator<std::pair<HWND__ * const,CWndData> >,0> >::_Color, COMDAT

; 131  : 		{	// return reference to color in node

  00000	55		 push	 ebp
  00001	8b ec		 mov	 ebp, esp

; 132  : 		return ((_Charref)(*_Pnode)._Color);

  00003	8b 45 08	 mov	 eax, DWORD PTR __Pnode$[ebp]
  00006	83 c0 18	 add	 eax, 24			; 00000018H

; 133  : 		}

  00009	5d		 pop	 ebp
  0000a	c3		 ret	 0
?_Color@?$_Tree@V?$_Tmap_traits@PAUHWND__@@UCWndData@@U?$less@PAUHWND__@@@std@@V?$allocator@U?$pair@QAUHWND__@@UCWndData@@@std@@@4@$0A@@std@@@std@@KAAADPAU_Node@?$_Tree_nod@V?$_Tmap_traits@PAUHWND__@@UCWndData@@U?$less@PAUHWND__@@@std@@V?$allocator@U?$pair@QAUHWND__@@UCWndData@@@std@@@4@$0A@@std@@@2@@Z ENDP ; std::_Tree<std::_Tmap_traits<HWND__ *,CWndData,std::less<HWND__ *>,std::allocator<std::pair<HWND__ * const,CWndData> >,0> >::_Color
_TEXT	ENDS
PUBLIC	?max_size@?$allocator@U?$pair@QAUHWND__@@UCWndData@@@std@@@std@@QBEIXZ ; std::allocator<std::pair<HWND__ * const,CWndData> >::max_size
; Function compile flags: /Odt
;	COMDAT ?max_size@?$_Tree@V?$_Tmap_traits@PAUHWND__@@UCWndData@@U?$less@PAUHWND__@@@std@@V?$allocator@U?$pair@QAUHWND__@@UCWndData@@@std@@@4@$0A@@std@@@std@@QBEIXZ
_TEXT	SEGMENT
_this$ = -4						; size = 4
?max_size@?$_Tree@V?$_Tmap_traits@PAUHWND__@@UCWndData@@U?$less@PAUHWND__@@@std@@V?$allocator@U?$pair@QAUHWND__@@UCWndData@@@std@@@4@$0A@@std@@@std@@QBEIXZ PROC NEAR ; std::_Tree<std::_Tmap_traits<HWND__ *,CWndData,std::less<HWND__ *>,std::allocator<std::pair<HWND__ * const,CWndData> >,0> >::max_size, COMDAT
; _this$ = ecx

; 452  : 		{	// return maximum possible length of sequence

  00000	55		 push	 ebp
  00001	8b ec		 mov	 ebp, esp
  00003	51		 push	 ecx
  00004	89 4d fc	 mov	 DWORD PTR _this$[ebp], ecx

; 453  : 		return (this->_Alval.max_size());

  00007	8b 4d fc	 mov	 ecx, DWORD PTR _this$[ebp]
  0000a	83 c1 03	 add	 ecx, 3
  0000d	e8 00 00 00 00	 call	 ?max_size@?$allocator@U?$pair@QAUHWND__@@UCWndData@@@std@@@std@@QBEIXZ ; std::allocator<std::pair<HWND__ * const,CWndData> >::max_size

; 454  : 		}

  00012	8b e5		 mov	 esp, ebp
  00014	5d		 pop	 ebp
  00015	c3		 ret	 0
?max_size@?$_Tree@V?$_Tmap_traits@PAUHWND__@@UCWndData@@U?$less@PAUHWND__@@@std@@V?$allocator@U?$pair@QAUHWND__@@UCWndData@@@std@@@4@$0A@@std@@@std@@QBEIXZ ENDP ; std::_Tree<std::_Tmap_traits<HWND__ *,CWndData,std::less<HWND__ *>,std::allocator<std::pair<HWND__ * const,CWndData> >,0> >::max_size
_TEXT	ENDS
PUBLIC	__TI3?AVout_of_range@std@@
PUBLIC	__CTA3?AVout_of_range@std@@
PUBLIC	??_R0?AVout_of_range@std@@@8			; std::out_of_range `RTTI Type Descriptor'
PUBLIC	__CT??_R0?AVout_of_range@std@@@8??0out_of_range@std@@QAE@ABV01@@Z40
PUBLIC	??_C@_0BM@PAPJHAGI@invalid?5map?1set?$DMT?$DO?5iterator?$AA@ ; `string'
PUBLIC	??$swap@D@std@@YAXAAD0@Z			; std::swap<char>
PUBLIC	?destroy@?$allocator@U_Node@?$_Tree_nod@V?$_Tmap_traits@PAUHWND__@@UCWndData@@U?$less@PAUHWND__@@@std@@V?$allocator@U?$pair@QAUHWND__@@UCWndData@@@std@@@4@$0A@@std@@@std@@@std@@QAEXPAU_Node@?$_Tree_nod@V?$_Tmap_traits@PAUHWND__@@UCWndData@@U?$less@PAUHWND__@@@std@@V?$allocator@U?$pair@QAUHWND__@@UCWndData@@@std@@@4@$0A@@std@@@2@@Z ; std::allocator<std::_Tree_nod<std::_Tmap_traits<HWND__ *,CWndData,std::less<HWND__ *>,std::allocator<std::pair<HWND__ * const,CWndData> >,0> >::_Node>::destroy
PUBLIC	?_Max@?$_Tree@V?$_Tmap_traits@PAUHWND__@@UCWndData@@U?$less@PAUHWND__@@@std@@V?$allocator@U?$pair@QAUHWND__@@UCWndData@@@std@@@4@$0A@@std@@@std@@KAPAU_Node@?$_Tree_nod@V?$_Tmap_traits@PAUHWND__@@UCWndData@@U?$less@PAUHWND__@@@std@@V?$allocator@U?$pair@QAUHWND__@@UCWndData@@@std@@@4@$0A@@std@@@2@PAU342@@Z ; std::_Tree<std::_Tmap_traits<HWND__ *,CWndData,std::less<HWND__ *>,std::allocator<std::pair<HWND__ * const,CWndData> >,0> >::_Max
PUBLIC	?_Min@?$_Tree@V?$_Tmap_traits@PAUHWND__@@UCWndData@@U?$less@PAUHWND__@@@std@@V?$allocator@U?$pair@QAUHWND__@@UCWndData@@@std@@@4@$0A@@std@@@std@@KAPAU_Node@?$_Tree_nod@V?$_Tmap_traits@PAUHWND__@@UCWndData@@U?$less@PAUHWND__@@@std@@V?$allocator@U?$pair@QAUHWND__@@UCWndData@@@std@@@4@$0A@@std@@@2@PAU342@@Z ; std::_Tree<std::_Tmap_traits<HWND__ *,CWndData,std::less<HWND__ *>,std::allocator<std::pair<HWND__ * const,CWndData> >,0> >::_Min
PUBLIC	??0out_of_range@std@@QAE@ABV?$basic_string@DU?$char_traits@D@std@@V?$allocator@D@2@@1@@Z ; std::out_of_range::out_of_range
PUBLIC	??1out_of_range@std@@UAE@XZ			; std::out_of_range::~out_of_range
PUBLIC	??0out_of_range@std@@QAE@ABV01@@Z		; std::out_of_range::out_of_range
;	COMDAT xdata$x
xdata$x	SEGMENT
$T202912 DD	0ffffffffH
	DD	FLAT:$L202908
$T202910 DD	019930520H
	DD	01H
	DD	FLAT:$T202912
	DD	2 DUP(00H)
	DD	2 DUP(00H)
xdata$x	ENDS
;	COMDAT ??_C@_0BM@PAPJHAGI@invalid?5map?1set?$DMT?$DO?5iterator?$AA@
CONST	SEGMENT
??_C@_0BM@PAPJHAGI@invalid?5map?1set?$DMT?$DO?5iterator?$AA@ DB 'invalid '
	DB	'map/set<T> iterator', 00H			; `string'
CONST	ENDS
;	COMDAT __TI3?AVout_of_range@std@@
xdata$x	SEGMENT
__TI3?AVout_of_range@std@@ DD 00H
	DD	FLAT:??1out_of_range@std@@UAE@XZ
	DD	00H
	DD	FLAT:__CTA3?AVout_of_range@std@@
xdata$x	ENDS
;	COMDAT __CTA3?AVout_of_range@std@@
xdata$x	SEGMENT
__CTA3?AVout_of_range@std@@ DD 03H
	DD	FLAT:__CT??_R0?AVout_of_range@std@@@8??0out_of_range@std@@QAE@ABV01@@Z40
	DD	FLAT:__CT??_R0?AVlogic_error@std@@@8??0logic_error@std@@QAE@ABV01@@Z40
	DD	FLAT:__CT??_R0?AVexception@@@8??0exception@@QAE@ABV0@@Z12
xdata$x	ENDS
;	COMDAT __CT??_R0?AVout_of_range@std@@@8??0out_of_range@std@@QAE@ABV01@@Z40
xdata$x	SEGMENT
__CT??_R0?AVout_of_range@std@@@8??0out_of_range@std@@QAE@ABV01@@Z40 DD 00H
	DD	FLAT:??_R0?AVout_of_range@std@@@8
	DD	00H
	DD	0ffffffffH
	ORG $+4
	DD	028H
	DD	FLAT:??0out_of_range@std@@QAE@ABV01@@Z
xdata$x	ENDS
;	COMDAT ??_R0?AVout_of_range@std@@@8
_DATA	SEGMENT
??_R0?AVout_of_range@std@@@8 DD FLAT:??_7type_info@@6B@	; std::out_of_range `RTTI Type Descriptor'
	DD	00H
	DB	'.?AVout_of_range@std@@', 00H
; Function compile flags: /Odt
_DATA	ENDS
;	COMDAT ?erase@?$_Tree@V?$_Tmap_traits@PAUHWND__@@UCWndData@@U?$less@PAUHWND__@@@std@@V?$allocator@U?$pair@QAUHWND__@@UCWndData@@@std@@@4@$0A@@std@@@std@@QAE?AViterator@12@V312@@Z
_TEXT	SEGMENT
tv177 = -108						; size = 4
tv165 = -104						; size = 4
_this$ = -100						; size = 4
$T202903 = -96						; size = 28
$T202902 = -68						; size = 40
__Fixnodeparent$ = -28					; size = 4
__Pnode$ = -24						; size = 4
__Fixnode$ = -20					; size = 4
__Erasednode$ = -16					; size = 4
__$EHRec$ = -12						; size = 12
___$ReturnUdt$ = 8					; size = 4
__Where$ = 12						; size = 4
?erase@?$_Tree@V?$_Tmap_traits@PAUHWND__@@UCWndData@@U?$less@PAUHWND__@@@std@@V?$allocator@U?$pair@QAUHWND__@@UCWndData@@@std@@@4@$0A@@std@@@std@@QAE?AViterator@12@V312@@Z PROC NEAR ; std::_Tree<std::_Tmap_traits<HWND__ *,CWndData,std::less<HWND__ *>,std::allocator<std::pair<HWND__ * const,CWndData> >,0> >::erase, COMDAT
; _this$ = ecx

; 590  : 		{	// erase element at _Where

  00000	55		 push	 ebp
  00001	8b ec		 mov	 ebp, esp
  00003	6a ff		 push	 -1
  00005	68 00 00 00 00	 push	 __ehhandler$?erase@?$_Tree@V?$_Tmap_traits@PAUHWND__@@UCWndData@@U?$less@PAUHWND__@@@std@@V?$allocator@U?$pair@QAUHWND__@@UCWndData@@@std@@@4@$0A@@std@@@std@@QAE?AViterator@12@V312@@Z
  0000a	64 a1 00 00 00
	00		 mov	 eax, DWORD PTR fs:__except_list
  00010	50		 push	 eax
  00011	64 89 25 00 00
	00 00		 mov	 DWORD PTR fs:__except_list, esp
  00018	83 ec 60	 sub	 esp, 96			; 00000060H
  0001b	56		 push	 esi
  0001c	89 4d 9c	 mov	 DWORD PTR _this$[ebp], ecx

; 591  : 		if (_Isnil(_Where._Mynode()))

  0001f	8d 4d 0c	 lea	 ecx, DWORD PTR __Where$[ebp]
  00022	e8 00 00 00 00	 call	 ?_Mynode@const_iterator@?$_Tree@V?$_Tmap_traits@PAUHWND__@@UCWndData@@U?$less@PAUHWND__@@@std@@V?$allocator@U?$pair@QAUHWND__@@UCWndData@@@std@@@4@$0A@@std@@@std@@QBEPAU_Node@?$_Tree_nod@V?$_Tmap_traits@PAUHWND__@@UCWndData@@U?$less@PAUHWND__@@@std@@V?$allocator@U?$pair@QAUHWND__@@UCWndData@@@std@@@4@$0A@@std@@@3@XZ ; std::_Tree<std::_Tmap_traits<HWND__ *,CWndData,std::less<HWND__ *>,std::allocator<std::pair<HWND__ * const,CWndData> >,0> >::const_iterator::_Mynode
  00027	50		 push	 eax
  00028	e8 00 00 00 00	 call	 ?_Isnil@?$_Tree@V?$_Tmap_traits@PAUHWND__@@UCWndData@@U?$less@PAUHWND__@@@std@@V?$allocator@U?$pair@QAUHWND__@@UCWndData@@@std@@@4@$0A@@std@@@std@@KAAADPAU_Node@?$_Tree_nod@V?$_Tmap_traits@PAUHWND__@@UCWndData@@U?$less@PAUHWND__@@@std@@V?$allocator@U?$pair@QAUHWND__@@UCWndData@@@std@@@4@$0A@@std@@@2@@Z ; std::_Tree<std::_Tmap_traits<HWND__ *,CWndData,std::less<HWND__ *>,std::allocator<std::pair<HWND__ * const,CWndData> >,0> >::_Isnil
  0002d	83 c4 04	 add	 esp, 4
  00030	0f be 00	 movsx	 eax, BYTE PTR [eax]
  00033	85 c0		 test	 eax, eax
  00035	74 2f		 je	 SHORT $L201163

; 592  : 			_THROW(out_of_range, "invalid map/set<T> iterator");

  00037	68 00 00 00 00	 push	 OFFSET FLAT:??_C@_0BM@PAPJHAGI@invalid?5map?1set?$DMT?$DO?5iterator?$AA@
  0003c	8d 4d a0	 lea	 ecx, DWORD PTR $T202903[ebp]
  0003f	ff 15 00 00 00
	00		 call	 DWORD PTR __imp_??0?$basic_string@DU?$char_traits@D@std@@V?$allocator@D@2@@std@@QAE@PBD@Z
  00045	c7 45 fc 00 00
	00 00		 mov	 DWORD PTR __$EHRec$[ebp+8], 0
  0004c	8d 4d a0	 lea	 ecx, DWORD PTR $T202903[ebp]
  0004f	51		 push	 ecx
  00050	8d 4d bc	 lea	 ecx, DWORD PTR $T202902[ebp]
  00053	e8 00 00 00 00	 call	 ??0out_of_range@std@@QAE@ABV?$basic_string@DU?$char_traits@D@std@@V?$allocator@D@2@@1@@Z ; std::out_of_range::out_of_range
  00058	68 00 00 00 00	 push	 OFFSET FLAT:__TI3?AVout_of_range@std@@
  0005d	8d 55 bc	 lea	 edx, DWORD PTR $T202902[ebp]
  00060	52		 push	 edx
  00061	e8 00 00 00 00	 call	 __CxxThrowException@8
$L201163:

; 593  : 		_Nodeptr _Erasednode = _Where._Mynode();	// node to erase

  00066	8d 4d 0c	 lea	 ecx, DWORD PTR __Where$[ebp]
  00069	e8 00 00 00 00	 call	 ?_Mynode@const_iterator@?$_Tree@V?$_Tmap_traits@PAUHWND__@@UCWndData@@U?$less@PAUHWND__@@@std@@V?$allocator@U?$pair@QAUHWND__@@UCWndData@@@std@@@4@$0A@@std@@@std@@QBEPAU_Node@?$_Tree_nod@V?$_Tmap_traits@PAUHWND__@@UCWndData@@U?$less@PAUHWND__@@@std@@V?$allocator@U?$pair@QAUHWND__@@UCWndData@@@std@@@4@$0A@@std@@@3@XZ ; std::_Tree<std::_Tmap_traits<HWND__ *,CWndData,std::less<HWND__ *>,std::allocator<std::pair<HWND__ * const,CWndData> >,0> >::const_iterator::_Mynode
  0006e	89 45 f0	 mov	 DWORD PTR __Erasednode$[ebp], eax

; 594  : 		++_Where;	// save successor iterator for return

  00071	8d 4d 0c	 lea	 ecx, DWORD PTR __Where$[ebp]
  00074	e8 00 00 00 00	 call	 ??Eiterator@?$_Tree@V?$_Tmap_traits@PAUHWND__@@UCWndData@@U?$less@PAUHWND__@@@std@@V?$allocator@U?$pair@QAUHWND__@@UCWndData@@@std@@@4@$0A@@std@@@std@@QAEAAV012@XZ ; std::_Tree<std::_Tmap_traits<HWND__ *,CWndData,std::less<HWND__ *>,std::allocator<std::pair<HWND__ * const,CWndData> >,0> >::iterator::operator++

; 595  : 
; 596  : 		_Nodeptr _Fixnode;	// the node to recolor as needed
; 597  : 		_Nodeptr _Fixnodeparent;	// parent of _Fixnode (which may be nil)
; 598  : 		_Nodeptr _Pnode = _Erasednode;

  00079	8b 45 f0	 mov	 eax, DWORD PTR __Erasednode$[ebp]
  0007c	89 45 e8	 mov	 DWORD PTR __Pnode$[ebp], eax

; 599  : 
; 600  : 		if (_Isnil(_Left(_Pnode)))

  0007f	8b 4d e8	 mov	 ecx, DWORD PTR __Pnode$[ebp]
  00082	51		 push	 ecx
  00083	e8 00 00 00 00	 call	 ?_Left@?$_Tree@V?$_Tmap_traits@PAUHWND__@@UCWndData@@U?$less@PAUHWND__@@@std@@V?$allocator@U?$pair@QAUHWND__@@UCWndData@@@std@@@4@$0A@@std@@@std@@KAAAPAU_Node@?$_Tree_nod@V?$_Tmap_traits@PAUHWND__@@UCWndData@@U?$less@PAUHWND__@@@std@@V?$allocator@U?$pair@QAUHWND__@@UCWndData@@@std@@@4@$0A@@std@@@2@PAU342@@Z ; std::_Tree<std::_Tmap_traits<HWND__ *,CWndData,std::less<HWND__ *>,std::allocator<std::pair<HWND__ * const,CWndData> >,0> >::_Left
  00088	83 c4 04	 add	 esp, 4
  0008b	8b 10		 mov	 edx, DWORD PTR [eax]
  0008d	52		 push	 edx
  0008e	e8 00 00 00 00	 call	 ?_Isnil@?$_Tree@V?$_Tmap_traits@PAUHWND__@@UCWndData@@U?$less@PAUHWND__@@@std@@V?$allocator@U?$pair@QAUHWND__@@UCWndData@@@std@@@4@$0A@@std@@@std@@KAAADPAU_Node@?$_Tree_nod@V?$_Tmap_traits@PAUHWND__@@UCWndData@@U?$less@PAUHWND__@@@std@@V?$allocator@U?$pair@QAUHWND__@@UCWndData@@@std@@@4@$0A@@std@@@2@@Z ; std::_Tree<std::_Tmap_traits<HWND__ *,CWndData,std::less<HWND__ *>,std::allocator<std::pair<HWND__ * const,CWndData> >,0> >::_Isnil
  00093	83 c4 04	 add	 esp, 4
  00096	0f be 00	 movsx	 eax, BYTE PTR [eax]
  00099	85 c0		 test	 eax, eax
  0009b	74 13		 je	 SHORT $L201171

; 601  : 			_Fixnode = _Right(_Pnode);	// must stitch up right subtree

  0009d	8b 4d e8	 mov	 ecx, DWORD PTR __Pnode$[ebp]
  000a0	51		 push	 ecx
  000a1	e8 00 00 00 00	 call	 ?_Right@?$_Tree@V?$_Tmap_traits@PAUHWND__@@UCWndData@@U?$less@PAUHWND__@@@std@@V?$allocator@U?$pair@QAUHWND__@@UCWndData@@@std@@@4@$0A@@std@@@std@@KAAAPAU_Node@?$_Tree_nod@V?$_Tmap_traits@PAUHWND__@@UCWndData@@U?$less@PAUHWND__@@@std@@V?$allocator@U?$pair@QAUHWND__@@UCWndData@@@std@@@4@$0A@@std@@@2@PAU342@@Z ; std::_Tree<std::_Tmap_traits<HWND__ *,CWndData,std::less<HWND__ *>,std::allocator<std::pair<HWND__ * const,CWndData> >,0> >::_Right
  000a6	83 c4 04	 add	 esp, 4
  000a9	8b 10		 mov	 edx, DWORD PTR [eax]
  000ab	89 55 ec	 mov	 DWORD PTR __Fixnode$[ebp], edx

; 602  : 		else if (_Isnil(_Right(_Pnode)))

  000ae	eb 4d		 jmp	 SHORT $L201172
$L201171:
  000b0	8b 45 e8	 mov	 eax, DWORD PTR __Pnode$[ebp]
  000b3	50		 push	 eax
  000b4	e8 00 00 00 00	 call	 ?_Right@?$_Tree@V?$_Tmap_traits@PAUHWND__@@UCWndData@@U?$less@PAUHWND__@@@std@@V?$allocator@U?$pair@QAUHWND__@@UCWndData@@@std@@@4@$0A@@std@@@std@@KAAAPAU_Node@?$_Tree_nod@V?$_Tmap_traits@PAUHWND__@@UCWndData@@U?$less@PAUHWND__@@@std@@V?$allocator@U?$pair@QAUHWND__@@UCWndData@@@std@@@4@$0A@@std@@@2@PAU342@@Z ; std::_Tree<std::_Tmap_traits<HWND__ *,CWndData,std::less<HWND__ *>,std::allocator<std::pair<HWND__ * const,CWndData> >,0> >::_Right
  000b9	83 c4 04	 add	 esp, 4
  000bc	8b 08		 mov	 ecx, DWORD PTR [eax]
  000be	51		 push	 ecx
  000bf	e8 00 00 00 00	 call	 ?_Isnil@?$_Tree@V?$_Tmap_traits@PAUHWND__@@UCWndData@@U?$less@PAUHWND__@@@std@@V?$allocator@U?$pair@QAUHWND__@@UCWndData@@@std@@@4@$0A@@std@@@std@@KAAADPAU_Node@?$_Tree_nod@V?$_Tmap_traits@PAUHWND__@@UCWndData@@U?$less@PAUHWND__@@@std@@V?$allocator@U?$pair@QAUHWND__@@UCWndData@@@std@@@4@$0A@@std@@@2@@Z ; std::_Tree<std::_Tmap_traits<HWND__ *,CWndData,std::less<HWND__ *>,std::allocator<std::pair<HWND__ * const,CWndData> >,0> >::_Isnil
  000c4	83 c4 04	 add	 esp, 4
  000c7	0f be 10	 movsx	 edx, BYTE PTR [eax]
  000ca	85 d2		 test	 edx, edx
  000cc	74 13		 je	 SHORT $L201173

; 603  : 			_Fixnode = _Left(_Pnode);	// must stitch up left subtree

  000ce	8b 45 e8	 mov	 eax, DWORD PTR __Pnode$[ebp]
  000d1	50		 push	 eax
  000d2	e8 00 00 00 00	 call	 ?_Left@?$_Tree@V?$_Tmap_traits@PAUHWND__@@UCWndData@@U?$less@PAUHWND__@@@std@@V?$allocator@U?$pair@QAUHWND__@@UCWndData@@@std@@@4@$0A@@std@@@std@@KAAAPAU_Node@?$_Tree_nod@V?$_Tmap_traits@PAUHWND__@@UCWndData@@U?$less@PAUHWND__@@@std@@V?$allocator@U?$pair@QAUHWND__@@UCWndData@@@std@@@4@$0A@@std@@@2@PAU342@@Z ; std::_Tree<std::_Tmap_traits<HWND__ *,CWndData,std::less<HWND__ *>,std::allocator<std::pair<HWND__ * const,CWndData> >,0> >::_Left
  000d7	83 c4 04	 add	 esp, 4
  000da	8b 08		 mov	 ecx, DWORD PTR [eax]
  000dc	89 4d ec	 mov	 DWORD PTR __Fixnode$[ebp], ecx

; 604  : 		else

  000df	eb 1c		 jmp	 SHORT $L201172
$L201173:

; 605  : 			{	// two subtrees, must lift successor node to replace erased
; 606  : 			_Pnode = _Where._Mynode();	// _Pnode is successor node

  000e1	8d 4d 0c	 lea	 ecx, DWORD PTR __Where$[ebp]
  000e4	e8 00 00 00 00	 call	 ?_Mynode@const_iterator@?$_Tree@V?$_Tmap_traits@PAUHWND__@@UCWndData@@U?$less@PAUHWND__@@@std@@V?$allocator@U?$pair@QAUHWND__@@UCWndData@@@std@@@4@$0A@@std@@@std@@QBEPAU_Node@?$_Tree_nod@V?$_Tmap_traits@PAUHWND__@@UCWndData@@U?$less@PAUHWND__@@@std@@V?$allocator@U?$pair@QAUHWND__@@UCWndData@@@std@@@4@$0A@@std@@@3@XZ ; std::_Tree<std::_Tmap_traits<HWND__ *,CWndData,std::less<HWND__ *>,std::allocator<std::pair<HWND__ * const,CWndData> >,0> >::const_iterator::_Mynode
  000e9	89 45 e8	 mov	 DWORD PTR __Pnode$[ebp], eax

; 607  : 			_Fixnode = _Right(_Pnode);	// _Fixnode is its only subtree

  000ec	8b 55 e8	 mov	 edx, DWORD PTR __Pnode$[ebp]
  000ef	52		 push	 edx
  000f0	e8 00 00 00 00	 call	 ?_Right@?$_Tree@V?$_Tmap_traits@PAUHWND__@@UCWndData@@U?$less@PAUHWND__@@@std@@V?$allocator@U?$pair@QAUHWND__@@UCWndData@@@std@@@4@$0A@@std@@@std@@KAAAPAU_Node@?$_Tree_nod@V?$_Tmap_traits@PAUHWND__@@UCWndData@@U?$less@PAUHWND__@@@std@@V?$allocator@U?$pair@QAUHWND__@@UCWndData@@@std@@@4@$0A@@std@@@2@PAU342@@Z ; std::_Tree<std::_Tmap_traits<HWND__ *,CWndData,std::less<HWND__ *>,std::allocator<std::pair<HWND__ * const,CWndData> >,0> >::_Right
  000f5	83 c4 04	 add	 esp, 4
  000f8	8b 00		 mov	 eax, DWORD PTR [eax]
  000fa	89 45 ec	 mov	 DWORD PTR __Fixnode$[ebp], eax
$L201172:

; 608  : 			}
; 609  : 
; 610  : 		if (_Pnode == _Erasednode)

  000fd	8b 4d e8	 mov	 ecx, DWORD PTR __Pnode$[ebp]
  00100	3b 4d f0	 cmp	 ecx, DWORD PTR __Erasednode$[ebp]
  00103	0f 85 1b 01 00
	00		 jne	 $L201175

; 611  : 			{	// at most one subtree, relink it
; 612  : 			_Fixnodeparent = _Parent(_Erasednode);

  00109	8b 55 f0	 mov	 edx, DWORD PTR __Erasednode$[ebp]
  0010c	52		 push	 edx
  0010d	e8 00 00 00 00	 call	 ?_Parent@?$_Tree@V?$_Tmap_traits@PAUHWND__@@UCWndData@@U?$less@PAUHWND__@@@std@@V?$allocator@U?$pair@QAUHWND__@@UCWndData@@@std@@@4@$0A@@std@@@std@@KAAAPAU_Node@?$_Tree_nod@V?$_Tmap_traits@PAUHWND__@@UCWndData@@U?$less@PAUHWND__@@@std@@V?$allocator@U?$pair@QAUHWND__@@UCWndData@@@std@@@4@$0A@@std@@@2@PAU342@@Z ; std::_Tree<std::_Tmap_traits<HWND__ *,CWndData,std::less<HWND__ *>,std::allocator<std::pair<HWND__ * const,CWndData> >,0> >::_Parent
  00112	83 c4 04	 add	 esp, 4
  00115	8b 00		 mov	 eax, DWORD PTR [eax]
  00117	89 45 e4	 mov	 DWORD PTR __Fixnodeparent$[ebp], eax

; 613  : 			if (!_Isnil(_Fixnode))

  0011a	8b 4d ec	 mov	 ecx, DWORD PTR __Fixnode$[ebp]
  0011d	51		 push	 ecx
  0011e	e8 00 00 00 00	 call	 ?_Isnil@?$_Tree@V?$_Tmap_traits@PAUHWND__@@UCWndData@@U?$less@PAUHWND__@@@std@@V?$allocator@U?$pair@QAUHWND__@@UCWndData@@@std@@@4@$0A@@std@@@std@@KAAADPAU_Node@?$_Tree_nod@V?$_Tmap_traits@PAUHWND__@@UCWndData@@U?$less@PAUHWND__@@@std@@V?$allocator@U?$pair@QAUHWND__@@UCWndData@@@std@@@4@$0A@@std@@@2@@Z ; std::_Tree<std::_Tmap_traits<HWND__ *,CWndData,std::less<HWND__ *>,std::allocator<std::pair<HWND__ * const,CWndData> >,0> >::_Isnil
  00123	83 c4 04	 add	 esp, 4
  00126	0f be 10	 movsx	 edx, BYTE PTR [eax]
  00129	85 d2		 test	 edx, edx
  0012b	75 11		 jne	 SHORT $L201176

; 614  : 				_Parent(_Fixnode) = _Fixnodeparent;	// link up

  0012d	8b 45 ec	 mov	 eax, DWORD PTR __Fixnode$[ebp]
  00130	50		 push	 eax
  00131	e8 00 00 00 00	 call	 ?_Parent@?$_Tree@V?$_Tmap_traits@PAUHWND__@@UCWndData@@U?$less@PAUHWND__@@@std@@V?$allocator@U?$pair@QAUHWND__@@UCWndData@@@std@@@4@$0A@@std@@@std@@KAAAPAU_Node@?$_Tree_nod@V?$_Tmap_traits@PAUHWND__@@UCWndData@@U?$less@PAUHWND__@@@std@@V?$allocator@U?$pair@QAUHWND__@@UCWndData@@@std@@@4@$0A@@std@@@2@PAU342@@Z ; std::_Tree<std::_Tmap_traits<HWND__ *,CWndData,std::less<HWND__ *>,std::allocator<std::pair<HWND__ * const,CWndData> >,0> >::_Parent
  00136	83 c4 04	 add	 esp, 4
  00139	8b 4d e4	 mov	 ecx, DWORD PTR __Fixnodeparent$[ebp]
  0013c	89 08		 mov	 DWORD PTR [eax], ecx
$L201176:

; 615  : 
; 616  : 			if (_Root() == _Erasednode)

  0013e	8b 4d 9c	 mov	 ecx, DWORD PTR _this$[ebp]
  00141	e8 00 00 00 00	 call	 ?_Root@?$_Tree@V?$_Tmap_traits@PAUHWND__@@UCWndData@@U?$less@PAUHWND__@@@std@@V?$allocator@U?$pair@QAUHWND__@@UCWndData@@@std@@@4@$0A@@std@@@std@@IAEAAPAU_Node@?$_Tree_nod@V?$_Tmap_traits@PAUHWND__@@UCWndData@@U?$less@PAUHWND__@@@std@@V?$allocator@U?$pair@QAUHWND__@@UCWndData@@@std@@@4@$0A@@std@@@2@XZ ; std::_Tree<std::_Tmap_traits<HWND__ *,CWndData,std::less<HWND__ *>,std::allocator<std::pair<HWND__ * const,CWndData> >,0> >::_Root
  00146	8b 10		 mov	 edx, DWORD PTR [eax]
  00148	3b 55 f0	 cmp	 edx, DWORD PTR __Erasednode$[ebp]
  0014b	75 0f		 jne	 SHORT $L201177

; 617  : 				_Root() = _Fixnode;	// link down from root

  0014d	8b 4d 9c	 mov	 ecx, DWORD PTR _this$[ebp]
  00150	e8 00 00 00 00	 call	 ?_Root@?$_Tree@V?$_Tmap_traits@PAUHWND__@@UCWndData@@U?$less@PAUHWND__@@@std@@V?$allocator@U?$pair@QAUHWND__@@UCWndData@@@std@@@4@$0A@@std@@@std@@IAEAAPAU_Node@?$_Tree_nod@V?$_Tmap_traits@PAUHWND__@@UCWndData@@U?$less@PAUHWND__@@@std@@V?$allocator@U?$pair@QAUHWND__@@UCWndData@@@std@@@4@$0A@@std@@@2@XZ ; std::_Tree<std::_Tmap_traits<HWND__ *,CWndData,std::less<HWND__ *>,std::allocator<std::pair<HWND__ * const,CWndData> >,0> >::_Root
  00155	8b 4d ec	 mov	 ecx, DWORD PTR __Fixnode$[ebp]
  00158	89 08		 mov	 DWORD PTR [eax], ecx

; 618  : 			else if (_Left(_Fixnodeparent) == _Erasednode)

  0015a	eb 37		 jmp	 SHORT $L201178
$L201177:
  0015c	8b 55 e4	 mov	 edx, DWORD PTR __Fixnodeparent$[ebp]
  0015f	52		 push	 edx
  00160	e8 00 00 00 00	 call	 ?_Left@?$_Tree@V?$_Tmap_traits@PAUHWND__@@UCWndData@@U?$less@PAUHWND__@@@std@@V?$allocator@U?$pair@QAUHWND__@@UCWndData@@@std@@@4@$0A@@std@@@std@@KAAAPAU_Node@?$_Tree_nod@V?$_Tmap_traits@PAUHWND__@@UCWndData@@U?$less@PAUHWND__@@@std@@V?$allocator@U?$pair@QAUHWND__@@UCWndData@@@std@@@4@$0A@@std@@@2@PAU342@@Z ; std::_Tree<std::_Tmap_traits<HWND__ *,CWndData,std::less<HWND__ *>,std::allocator<std::pair<HWND__ * const,CWndData> >,0> >::_Left
  00165	83 c4 04	 add	 esp, 4
  00168	8b 00		 mov	 eax, DWORD PTR [eax]
  0016a	3b 45 f0	 cmp	 eax, DWORD PTR __Erasednode$[ebp]
  0016d	75 13		 jne	 SHORT $L201179

; 619  : 				_Left(_Fixnodeparent) = _Fixnode;	// link down to left

  0016f	8b 4d e4	 mov	 ecx, DWORD PTR __Fixnodeparent$[ebp]
  00172	51		 push	 ecx
  00173	e8 00 00 00 00	 call	 ?_Left@?$_Tree@V?$_Tmap_traits@PAUHWND__@@UCWndData@@U?$less@PAUHWND__@@@std@@V?$allocator@U?$pair@QAUHWND__@@UCWndData@@@std@@@4@$0A@@std@@@std@@KAAAPAU_Node@?$_Tree_nod@V?$_Tmap_traits@PAUHWND__@@UCWndData@@U?$less@PAUHWND__@@@std@@V?$allocator@U?$pair@QAUHWND__@@UCWndData@@@std@@@4@$0A@@std@@@2@PAU342@@Z ; std::_Tree<std::_Tmap_traits<HWND__ *,CWndData,std::less<HWND__ *>,std::allocator<std::pair<HWND__ * const,CWndData> >,0> >::_Left
  00178	83 c4 04	 add	 esp, 4
  0017b	8b 55 ec	 mov	 edx, DWORD PTR __Fixnode$[ebp]
  0017e	89 10		 mov	 DWORD PTR [eax], edx

; 620  : 			else

  00180	eb 11		 jmp	 SHORT $L201178
$L201179:

; 621  : 				_Right(_Fixnodeparent) = _Fixnode;	// link down to right

  00182	8b 45 e4	 mov	 eax, DWORD PTR __Fixnodeparent$[ebp]
  00185	50		 push	 eax
  00186	e8 00 00 00 00	 call	 ?_Right@?$_Tree@V?$_Tmap_traits@PAUHWND__@@UCWndData@@U?$less@PAUHWND__@@@std@@V?$allocator@U?$pair@QAUHWND__@@UCWndData@@@std@@@4@$0A@@std@@@std@@KAAAPAU_Node@?$_Tree_nod@V?$_Tmap_traits@PAUHWND__@@UCWndData@@U?$less@PAUHWND__@@@std@@V?$allocator@U?$pair@QAUHWND__@@UCWndData@@@std@@@4@$0A@@std@@@2@PAU342@@Z ; std::_Tree<std::_Tmap_traits<HWND__ *,CWndData,std::less<HWND__ *>,std::allocator<std::pair<HWND__ * const,CWndData> >,0> >::_Right
  0018b	83 c4 04	 add	 esp, 4
  0018e	8b 4d ec	 mov	 ecx, DWORD PTR __Fixnode$[ebp]
  00191	89 08		 mov	 DWORD PTR [eax], ecx
$L201178:

; 622  : 
; 623  : 			if (_Lmost() == _Erasednode)

  00193	8b 4d 9c	 mov	 ecx, DWORD PTR _this$[ebp]
  00196	e8 00 00 00 00	 call	 ?_Lmost@?$_Tree@V?$_Tmap_traits@PAUHWND__@@UCWndData@@U?$less@PAUHWND__@@@std@@V?$allocator@U?$pair@QAUHWND__@@UCWndData@@@std@@@4@$0A@@std@@@std@@IAEAAPAU_Node@?$_Tree_nod@V?$_Tmap_traits@PAUHWND__@@UCWndData@@U?$less@PAUHWND__@@@std@@V?$allocator@U?$pair@QAUHWND__@@UCWndData@@@std@@@4@$0A@@std@@@2@XZ ; std::_Tree<std::_Tmap_traits<HWND__ *,CWndData,std::less<HWND__ *>,std::allocator<std::pair<HWND__ * const,CWndData> >,0> >::_Lmost
  0019b	8b 10		 mov	 edx, DWORD PTR [eax]
  0019d	3b 55 f0	 cmp	 edx, DWORD PTR __Erasednode$[ebp]
  001a0	75 37		 jne	 SHORT $L201181

; 624  : 				_Lmost() = _Isnil(_Fixnode)
; 625  : 					? _Fixnodeparent	// smallest is parent of erased node
; 626  : 					: _Min(_Fixnode);	// smallest in relinked subtree

  001a2	8b 45 ec	 mov	 eax, DWORD PTR __Fixnode$[ebp]
  001a5	50		 push	 eax
  001a6	e8 00 00 00 00	 call	 ?_Isnil@?$_Tree@V?$_Tmap_traits@PAUHWND__@@UCWndData@@U?$less@PAUHWND__@@@std@@V?$allocator@U?$pair@QAUHWND__@@UCWndData@@@std@@@4@$0A@@std@@@std@@KAAADPAU_Node@?$_Tree_nod@V?$_Tmap_traits@PAUHWND__@@UCWndData@@U?$less@PAUHWND__@@@std@@V?$allocator@U?$pair@QAUHWND__@@UCWndData@@@std@@@4@$0A@@std@@@2@@Z ; std::_Tree<std::_Tmap_traits<HWND__ *,CWndData,std::less<HWND__ *>,std::allocator<std::pair<HWND__ * const,CWndData> >,0> >::_Isnil
  001ab	83 c4 04	 add	 esp, 4
  001ae	0f be 08	 movsx	 ecx, BYTE PTR [eax]
  001b1	85 c9		 test	 ecx, ecx
  001b3	74 08		 je	 SHORT $L202904
  001b5	8b 55 e4	 mov	 edx, DWORD PTR __Fixnodeparent$[ebp]
  001b8	89 55 98	 mov	 DWORD PTR tv165[ebp], edx
  001bb	eb 0f		 jmp	 SHORT $L202905
$L202904:
  001bd	8b 45 ec	 mov	 eax, DWORD PTR __Fixnode$[ebp]
  001c0	50		 push	 eax
  001c1	e8 00 00 00 00	 call	 ?_Min@?$_Tree@V?$_Tmap_traits@PAUHWND__@@UCWndData@@U?$less@PAUHWND__@@@std@@V?$allocator@U?$pair@QAUHWND__@@UCWndData@@@std@@@4@$0A@@std@@@std@@KAPAU_Node@?$_Tree_nod@V?$_Tmap_traits@PAUHWND__@@UCWndData@@U?$less@PAUHWND__@@@std@@V?$allocator@U?$pair@QAUHWND__@@UCWndData@@@std@@@4@$0A@@std@@@2@PAU342@@Z ; std::_Tree<std::_Tmap_traits<HWND__ *,CWndData,std::less<HWND__ *>,std::allocator<std::pair<HWND__ * const,CWndData> >,0> >::_Min
  001c6	83 c4 04	 add	 esp, 4
  001c9	89 45 98	 mov	 DWORD PTR tv165[ebp], eax
$L202905:
  001cc	8b 4d 9c	 mov	 ecx, DWORD PTR _this$[ebp]
  001cf	e8 00 00 00 00	 call	 ?_Lmost@?$_Tree@V?$_Tmap_traits@PAUHWND__@@UCWndData@@U?$less@PAUHWND__@@@std@@V?$allocator@U?$pair@QAUHWND__@@UCWndData@@@std@@@4@$0A@@std@@@std@@IAEAAPAU_Node@?$_Tree_nod@V?$_Tmap_traits@PAUHWND__@@UCWndData@@U?$less@PAUHWND__@@@std@@V?$allocator@U?$pair@QAUHWND__@@UCWndData@@@std@@@4@$0A@@std@@@2@XZ ; std::_Tree<std::_Tmap_traits<HWND__ *,CWndData,std::less<HWND__ *>,std::allocator<std::pair<HWND__ * const,CWndData> >,0> >::_Lmost
  001d4	8b 4d 98	 mov	 ecx, DWORD PTR tv165[ebp]
  001d7	89 08		 mov	 DWORD PTR [eax], ecx
$L201181:

; 627  : 
; 628  : 			if (_Rmost() == _Erasednode)

  001d9	8b 4d 9c	 mov	 ecx, DWORD PTR _this$[ebp]
  001dc	e8 00 00 00 00	 call	 ?_Rmost@?$_Tree@V?$_Tmap_traits@PAUHWND__@@UCWndData@@U?$less@PAUHWND__@@@std@@V?$allocator@U?$pair@QAUHWND__@@UCWndData@@@std@@@4@$0A@@std@@@std@@IAEAAPAU_Node@?$_Tree_nod@V?$_Tmap_traits@PAUHWND__@@UCWndData@@U?$less@PAUHWND__@@@std@@V?$allocator@U?$pair@QAUHWND__@@UCWndData@@@std@@@4@$0A@@std@@@2@XZ ; std::_Tree<std::_Tmap_traits<HWND__ *,CWndData,std::less<HWND__ *>,std::allocator<std::pair<HWND__ * const,CWndData> >,0> >::_Rmost
  001e1	8b 10		 mov	 edx, DWORD PTR [eax]
  001e3	3b 55 f0	 cmp	 edx, DWORD PTR __Erasednode$[ebp]
  001e6	75 37		 jne	 SHORT $L201182

; 629  : 				_Rmost() = _Isnil(_Fixnode)
; 630  : 					? _Fixnodeparent	// largest is parent of erased node
; 631  : 					: _Max(_Fixnode);	// largest in relinked subtree

  001e8	8b 45 ec	 mov	 eax, DWORD PTR __Fixnode$[ebp]
  001eb	50		 push	 eax
  001ec	e8 00 00 00 00	 call	 ?_Isnil@?$_Tree@V?$_Tmap_traits@PAUHWND__@@UCWndData@@U?$less@PAUHWND__@@@std@@V?$allocator@U?$pair@QAUHWND__@@UCWndData@@@std@@@4@$0A@@std@@@std@@KAAADPAU_Node@?$_Tree_nod@V?$_Tmap_traits@PAUHWND__@@UCWndData@@U?$less@PAUHWND__@@@std@@V?$allocator@U?$pair@QAUHWND__@@UCWndData@@@std@@@4@$0A@@std@@@2@@Z ; std::_Tree<std::_Tmap_traits<HWND__ *,CWndData,std::less<HWND__ *>,std::allocator<std::pair<HWND__ * const,CWndData> >,0> >::_Isnil
  001f1	83 c4 04	 add	 esp, 4
  001f4	0f be 08	 movsx	 ecx, BYTE PTR [eax]
  001f7	85 c9		 test	 ecx, ecx
  001f9	74 08		 je	 SHORT $L202906
  001fb	8b 55 e4	 mov	 edx, DWORD PTR __Fixnodeparent$[ebp]
  001fe	89 55 94	 mov	 DWORD PTR tv177[ebp], edx
  00201	eb 0f		 jmp	 SHORT $L202907
$L202906:
  00203	8b 45 ec	 mov	 eax, DWORD PTR __Fixnode$[ebp]
  00206	50		 push	 eax
  00207	e8 00 00 00 00	 call	 ?_Max@?$_Tree@V?$_Tmap_traits@PAUHWND__@@UCWndData@@U?$less@PAUHWND__@@@std@@V?$allocator@U?$pair@QAUHWND__@@UCWndData@@@std@@@4@$0A@@std@@@std@@KAPAU_Node@?$_Tree_nod@V?$_Tmap_traits@PAUHWND__@@UCWndData@@U?$less@PAUHWND__@@@std@@V?$allocator@U?$pair@QAUHWND__@@UCWndData@@@std@@@4@$0A@@std@@@2@PAU342@@Z ; std::_Tree<std::_Tmap_traits<HWND__ *,CWndData,std::less<HWND__ *>,std::allocator<std::pair<HWND__ * const,CWndData> >,0> >::_Max
  0020c	83 c4 04	 add	 esp, 4
  0020f	89 45 94	 mov	 DWORD PTR tv177[ebp], eax
$L202907:
  00212	8b 4d 9c	 mov	 ecx, DWORD PTR _this$[ebp]
  00215	e8 00 00 00 00	 call	 ?_Rmost@?$_Tree@V?$_Tmap_traits@PAUHWND__@@UCWndData@@U?$less@PAUHWND__@@@std@@V?$allocator@U?$pair@QAUHWND__@@UCWndData@@@std@@@4@$0A@@std@@@std@@IAEAAPAU_Node@?$_Tree_nod@V?$_Tmap_traits@PAUHWND__@@UCWndData@@U?$less@PAUHWND__@@@std@@V?$allocator@U?$pair@QAUHWND__@@UCWndData@@@std@@@4@$0A@@std@@@2@XZ ; std::_Tree<std::_Tmap_traits<HWND__ *,CWndData,std::less<HWND__ *>,std::allocator<std::pair<HWND__ * const,CWndData> >,0> >::_Rmost
  0021a	8b 4d 94	 mov	 ecx, DWORD PTR tv177[ebp]
  0021d	89 08		 mov	 DWORD PTR [eax], ecx
$L201182:

; 632  : 			}
; 633  : 		else

  0021f	e9 8e 01 00 00	 jmp	 $L201183
$L201175:

; 634  : 			{	// erased has two subtrees, _Pnode is successor to erased
; 635  : 			_Parent(_Left(_Erasednode)) = _Pnode;	// link left up

  00224	8b 55 f0	 mov	 edx, DWORD PTR __Erasednode$[ebp]
  00227	52		 push	 edx
  00228	e8 00 00 00 00	 call	 ?_Left@?$_Tree@V?$_Tmap_traits@PAUHWND__@@UCWndData@@U?$less@PAUHWND__@@@std@@V?$allocator@U?$pair@QAUHWND__@@UCWndData@@@std@@@4@$0A@@std@@@std@@KAAAPAU_Node@?$_Tree_nod@V?$_Tmap_traits@PAUHWND__@@UCWndData@@U?$less@PAUHWND__@@@std@@V?$allocator@U?$pair@QAUHWND__@@UCWndData@@@std@@@4@$0A@@std@@@2@PAU342@@Z ; std::_Tree<std::_Tmap_traits<HWND__ *,CWndData,std::less<HWND__ *>,std::allocator<std::pair<HWND__ * const,CWndData> >,0> >::_Left
  0022d	83 c4 04	 add	 esp, 4
  00230	8b 00		 mov	 eax, DWORD PTR [eax]
  00232	50		 push	 eax
  00233	e8 00 00 00 00	 call	 ?_Parent@?$_Tree@V?$_Tmap_traits@PAUHWND__@@UCWndData@@U?$less@PAUHWND__@@@std@@V?$allocator@U?$pair@QAUHWND__@@UCWndData@@@std@@@4@$0A@@std@@@std@@KAAAPAU_Node@?$_Tree_nod@V?$_Tmap_traits@PAUHWND__@@UCWndData@@U?$less@PAUHWND__@@@std@@V?$allocator@U?$pair@QAUHWND__@@UCWndData@@@std@@@4@$0A@@std@@@2@PAU342@@Z ; std::_Tree<std::_Tmap_traits<HWND__ *,CWndData,std::less<HWND__ *>,std::allocator<std::pair<HWND__ * const,CWndData> >,0> >::_Parent
  00238	83 c4 04	 add	 esp, 4
  0023b	8b 4d e8	 mov	 ecx, DWORD PTR __Pnode$[ebp]
  0023e	89 08		 mov	 DWORD PTR [eax], ecx

; 636  : 			_Left(_Pnode) = _Left(_Erasednode);	// link successor down

  00240	8b 55 f0	 mov	 edx, DWORD PTR __Erasednode$[ebp]
  00243	52		 push	 edx
  00244	e8 00 00 00 00	 call	 ?_Left@?$_Tree@V?$_Tmap_traits@PAUHWND__@@UCWndData@@U?$less@PAUHWND__@@@std@@V?$allocator@U?$pair@QAUHWND__@@UCWndData@@@std@@@4@$0A@@std@@@std@@KAAAPAU_Node@?$_Tree_nod@V?$_Tmap_traits@PAUHWND__@@UCWndData@@U?$less@PAUHWND__@@@std@@V?$allocator@U?$pair@QAUHWND__@@UCWndData@@@std@@@4@$0A@@std@@@2@PAU342@@Z ; std::_Tree<std::_Tmap_traits<HWND__ *,CWndData,std::less<HWND__ *>,std::allocator<std::pair<HWND__ * const,CWndData> >,0> >::_Left
  00249	83 c4 04	 add	 esp, 4
  0024c	8b f0		 mov	 esi, eax
  0024e	8b 45 e8	 mov	 eax, DWORD PTR __Pnode$[ebp]
  00251	50		 push	 eax
  00252	e8 00 00 00 00	 call	 ?_Left@?$_Tree@V?$_Tmap_traits@PAUHWND__@@UCWndData@@U?$less@PAUHWND__@@@std@@V?$allocator@U?$pair@QAUHWND__@@UCWndData@@@std@@@4@$0A@@std@@@std@@KAAAPAU_Node@?$_Tree_nod@V?$_Tmap_traits@PAUHWND__@@UCWndData@@U?$less@PAUHWND__@@@std@@V?$allocator@U?$pair@QAUHWND__@@UCWndData@@@std@@@4@$0A@@std@@@2@PAU342@@Z ; std::_Tree<std::_Tmap_traits<HWND__ *,CWndData,std::less<HWND__ *>,std::allocator<std::pair<HWND__ * const,CWndData> >,0> >::_Left
  00257	83 c4 04	 add	 esp, 4
  0025a	8b 0e		 mov	 ecx, DWORD PTR [esi]
  0025c	89 08		 mov	 DWORD PTR [eax], ecx

; 637  : 
; 638  : 			if (_Pnode == _Right(_Erasednode))

  0025e	8b 55 f0	 mov	 edx, DWORD PTR __Erasednode$[ebp]
  00261	52		 push	 edx
  00262	e8 00 00 00 00	 call	 ?_Right@?$_Tree@V?$_Tmap_traits@PAUHWND__@@UCWndData@@U?$less@PAUHWND__@@@std@@V?$allocator@U?$pair@QAUHWND__@@UCWndData@@@std@@@4@$0A@@std@@@std@@KAAAPAU_Node@?$_Tree_nod@V?$_Tmap_traits@PAUHWND__@@UCWndData@@U?$less@PAUHWND__@@@std@@V?$allocator@U?$pair@QAUHWND__@@UCWndData@@@std@@@4@$0A@@std@@@2@PAU342@@Z ; std::_Tree<std::_Tmap_traits<HWND__ *,CWndData,std::less<HWND__ *>,std::allocator<std::pair<HWND__ * const,CWndData> >,0> >::_Right
  00267	83 c4 04	 add	 esp, 4
  0026a	8b 4d e8	 mov	 ecx, DWORD PTR __Pnode$[ebp]
  0026d	3b 08		 cmp	 ecx, DWORD PTR [eax]
  0026f	75 0b		 jne	 SHORT $L201184

; 639  : 				_Fixnodeparent = _Pnode;	// successor is next to erased

  00271	8b 55 e8	 mov	 edx, DWORD PTR __Pnode$[ebp]
  00274	89 55 e4	 mov	 DWORD PTR __Fixnodeparent$[ebp], edx

; 640  : 			else

  00277	e9 80 00 00 00	 jmp	 $L201185
$L201184:

; 641  : 				{	// successor further down, link in place of erased
; 642  : 				_Fixnodeparent = _Parent(_Pnode);	// parent is successor's

  0027c	8b 45 e8	 mov	 eax, DWORD PTR __Pnode$[ebp]
  0027f	50		 push	 eax
  00280	e8 00 00 00 00	 call	 ?_Parent@?$_Tree@V?$_Tmap_traits@PAUHWND__@@UCWndData@@U?$less@PAUHWND__@@@std@@V?$allocator@U?$pair@QAUHWND__@@UCWndData@@@std@@@4@$0A@@std@@@std@@KAAAPAU_Node@?$_Tree_nod@V?$_Tmap_traits@PAUHWND__@@UCWndData@@U?$less@PAUHWND__@@@std@@V?$allocator@U?$pair@QAUHWND__@@UCWndData@@@std@@@4@$0A@@std@@@2@PAU342@@Z ; std::_Tree<std::_Tmap_traits<HWND__ *,CWndData,std::less<HWND__ *>,std::allocator<std::pair<HWND__ * const,CWndData> >,0> >::_Parent
  00285	83 c4 04	 add	 esp, 4
  00288	8b 08		 mov	 ecx, DWORD PTR [eax]
  0028a	89 4d e4	 mov	 DWORD PTR __Fixnodeparent$[ebp], ecx

; 643  : 				if (!_Isnil(_Fixnode))

  0028d	8b 55 ec	 mov	 edx, DWORD PTR __Fixnode$[ebp]
  00290	52		 push	 edx
  00291	e8 00 00 00 00	 call	 ?_Isnil@?$_Tree@V?$_Tmap_traits@PAUHWND__@@UCWndData@@U?$less@PAUHWND__@@@std@@V?$allocator@U?$pair@QAUHWND__@@UCWndData@@@std@@@4@$0A@@std@@@std@@KAAADPAU_Node@?$_Tree_nod@V?$_Tmap_traits@PAUHWND__@@UCWndData@@U?$less@PAUHWND__@@@std@@V?$allocator@U?$pair@QAUHWND__@@UCWndData@@@std@@@4@$0A@@std@@@2@@Z ; std::_Tree<std::_Tmap_traits<HWND__ *,CWndData,std::less<HWND__ *>,std::allocator<std::pair<HWND__ * const,CWndData> >,0> >::_Isnil
  00296	83 c4 04	 add	 esp, 4
  00299	0f be 00	 movsx	 eax, BYTE PTR [eax]
  0029c	85 c0		 test	 eax, eax
  0029e	75 11		 jne	 SHORT $L201186

; 644  : 					_Parent(_Fixnode) = _Fixnodeparent;	// link fix up

  002a0	8b 4d ec	 mov	 ecx, DWORD PTR __Fixnode$[ebp]
  002a3	51		 push	 ecx
  002a4	e8 00 00 00 00	 call	 ?_Parent@?$_Tree@V?$_Tmap_traits@PAUHWND__@@UCWndData@@U?$less@PAUHWND__@@@std@@V?$allocator@U?$pair@QAUHWND__@@UCWndData@@@std@@@4@$0A@@std@@@std@@KAAAPAU_Node@?$_Tree_nod@V?$_Tmap_traits@PAUHWND__@@UCWndData@@U?$less@PAUHWND__@@@std@@V?$allocator@U?$pair@QAUHWND__@@UCWndData@@@std@@@4@$0A@@std@@@2@PAU342@@Z ; std::_Tree<std::_Tmap_traits<HWND__ *,CWndData,std::less<HWND__ *>,std::allocator<std::pair<HWND__ * const,CWndData> >,0> >::_Parent
  002a9	83 c4 04	 add	 esp, 4
  002ac	8b 55 e4	 mov	 edx, DWORD PTR __Fixnodeparent$[ebp]
  002af	89 10		 mov	 DWORD PTR [eax], edx
$L201186:

; 645  : 				_Left(_Fixnodeparent) = _Fixnode;	// link fix down

  002b1	8b 45 e4	 mov	 eax, DWORD PTR __Fixnodeparent$[ebp]
  002b4	50		 push	 eax
  002b5	e8 00 00 00 00	 call	 ?_Left@?$_Tree@V?$_Tmap_traits@PAUHWND__@@UCWndData@@U?$less@PAUHWND__@@@std@@V?$allocator@U?$pair@QAUHWND__@@UCWndData@@@std@@@4@$0A@@std@@@std@@KAAAPAU_Node@?$_Tree_nod@V?$_Tmap_traits@PAUHWND__@@UCWndData@@U?$less@PAUHWND__@@@std@@V?$allocator@U?$pair@QAUHWND__@@UCWndData@@@std@@@4@$0A@@std@@@2@PAU342@@Z ; std::_Tree<std::_Tmap_traits<HWND__ *,CWndData,std::less<HWND__ *>,std::allocator<std::pair<HWND__ * const,CWndData> >,0> >::_Left
  002ba	83 c4 04	 add	 esp, 4
  002bd	8b 4d ec	 mov	 ecx, DWORD PTR __Fixnode$[ebp]
  002c0	89 08		 mov	 DWORD PTR [eax], ecx

; 646  : 				_Right(_Pnode) = _Right(_Erasednode);	// link successor down

  002c2	8b 55 f0	 mov	 edx, DWORD PTR __Erasednode$[ebp]
  002c5	52		 push	 edx
  002c6	e8 00 00 00 00	 call	 ?_Right@?$_Tree@V?$_Tmap_traits@PAUHWND__@@UCWndData@@U?$less@PAUHWND__@@@std@@V?$allocator@U?$pair@QAUHWND__@@UCWndData@@@std@@@4@$0A@@std@@@std@@KAAAPAU_Node@?$_Tree_nod@V?$_Tmap_traits@PAUHWND__@@UCWndData@@U?$less@PAUHWND__@@@std@@V?$allocator@U?$pair@QAUHWND__@@UCWndData@@@std@@@4@$0A@@std@@@2@PAU342@@Z ; std::_Tree<std::_Tmap_traits<HWND__ *,CWndData,std::less<HWND__ *>,std::allocator<std::pair<HWND__ * const,CWndData> >,0> >::_Right
  002cb	83 c4 04	 add	 esp, 4
  002ce	8b f0		 mov	 esi, eax
  002d0	8b 45 e8	 mov	 eax, DWORD PTR __Pnode$[ebp]
  002d3	50		 push	 eax
  002d4	e8 00 00 00 00	 call	 ?_Right@?$_Tree@V?$_Tmap_traits@PAUHWND__@@UCWndData@@U?$less@PAUHWND__@@@std@@V?$allocator@U?$pair@QAUHWND__@@UCWndData@@@std@@@4@$0A@@std@@@std@@KAAAPAU_Node@?$_Tree_nod@V?$_Tmap_traits@PAUHWND__@@UCWndData@@U?$less@PAUHWND__@@@std@@V?$allocator@U?$pair@QAUHWND__@@UCWndData@@@std@@@4@$0A@@std@@@2@PAU342@@Z ; std::_Tree<std::_Tmap_traits<HWND__ *,CWndData,std::less<HWND__ *>,std::allocator<std::pair<HWND__ * const,CWndData> >,0> >::_Right
  002d9	83 c4 04	 add	 esp, 4
  002dc	8b 0e		 mov	 ecx, DWORD PTR [esi]
  002de	89 08		 mov	 DWORD PTR [eax], ecx

; 647  : 				_Parent(_Right(_Erasednode)) = _Pnode;	// link right up

  002e0	8b 55 f0	 mov	 edx, DWORD PTR __Erasednode$[ebp]
  002e3	52		 push	 edx
  002e4	e8 00 00 00 00	 call	 ?_Right@?$_Tree@V?$_Tmap_traits@PAUHWND__@@UCWndData@@U?$less@PAUHWND__@@@std@@V?$allocator@U?$pair@QAUHWND__@@UCWndData@@@std@@@4@$0A@@std@@@std@@KAAAPAU_Node@?$_Tree_nod@V?$_Tmap_traits@PAUHWND__@@UCWndData@@U?$less@PAUHWND__@@@std@@V?$allocator@U?$pair@QAUHWND__@@UCWndData@@@std@@@4@$0A@@std@@@2@PAU342@@Z ; std::_Tree<std::_Tmap_traits<HWND__ *,CWndData,std::less<HWND__ *>,std::allocator<std::pair<HWND__ * const,CWndData> >,0> >::_Right
  002e9	83 c4 04	 add	 esp, 4
  002ec	8b 00		 mov	 eax, DWORD PTR [eax]
  002ee	50		 push	 eax
  002ef	e8 00 00 00 00	 call	 ?_Parent@?$_Tree@V?$_Tmap_traits@PAUHWND__@@UCWndData@@U?$less@PAUHWND__@@@std@@V?$allocator@U?$pair@QAUHWND__@@UCWndData@@@std@@@4@$0A@@std@@@std@@KAAAPAU_Node@?$_Tree_nod@V?$_Tmap_traits@PAUHWND__@@UCWndData@@U?$less@PAUHWND__@@@std@@V?$allocator@U?$pair@QAUHWND__@@UCWndData@@@std@@@4@$0A@@std@@@2@PAU342@@Z ; std::_Tree<std::_Tmap_traits<HWND__ *,CWndData,std::less<HWND__ *>,std::allocator<std::pair<HWND__ * const,CWndData> >,0> >::_Parent
  002f4	83 c4 04	 add	 esp, 4
  002f7	8b 4d e8	 mov	 ecx, DWORD PTR __Pnode$[ebp]
  002fa	89 08		 mov	 DWORD PTR [eax], ecx
$L201185:

; 648  : 				}
; 649  : 
; 650  : 			if (_Root() == _Erasednode)

  002fc	8b 4d 9c	 mov	 ecx, DWORD PTR _this$[ebp]
  002ff	e8 00 00 00 00	 call	 ?_Root@?$_Tree@V?$_Tmap_traits@PAUHWND__@@UCWndData@@U?$less@PAUHWND__@@@std@@V?$allocator@U?$pair@QAUHWND__@@UCWndData@@@std@@@4@$0A@@std@@@std@@IAEAAPAU_Node@?$_Tree_nod@V?$_Tmap_traits@PAUHWND__@@UCWndData@@U?$less@PAUHWND__@@@std@@V?$allocator@U?$pair@QAUHWND__@@UCWndData@@@std@@@4@$0A@@std@@@2@XZ ; std::_Tree<std::_Tmap_traits<HWND__ *,CWndData,std::less<HWND__ *>,std::allocator<std::pair<HWND__ * const,CWndData> >,0> >::_Root
  00304	8b 10		 mov	 edx, DWORD PTR [eax]
  00306	3b 55 f0	 cmp	 edx, DWORD PTR __Erasednode$[ebp]
  00309	75 0f		 jne	 SHORT $L201187

; 651  : 				_Root() = _Pnode;	// link down from root

  0030b	8b 4d 9c	 mov	 ecx, DWORD PTR _this$[ebp]
  0030e	e8 00 00 00 00	 call	 ?_Root@?$_Tree@V?$_Tmap_traits@PAUHWND__@@UCWndData@@U?$less@PAUHWND__@@@std@@V?$allocator@U?$pair@QAUHWND__@@UCWndData@@@std@@@4@$0A@@std@@@std@@IAEAAPAU_Node@?$_Tree_nod@V?$_Tmap_traits@PAUHWND__@@UCWndData@@U?$less@PAUHWND__@@@std@@V?$allocator@U?$pair@QAUHWND__@@UCWndData@@@std@@@4@$0A@@std@@@2@XZ ; std::_Tree<std::_Tmap_traits<HWND__ *,CWndData,std::less<HWND__ *>,std::allocator<std::pair<HWND__ * const,CWndData> >,0> >::_Root
  00313	8b 4d e8	 mov	 ecx, DWORD PTR __Pnode$[ebp]
  00316	89 08		 mov	 DWORD PTR [eax], ecx

; 652  : 			else if (_Left(_Parent(_Erasednode)) == _Erasednode)

  00318	eb 58		 jmp	 SHORT $L201188
$L201187:
  0031a	8b 55 f0	 mov	 edx, DWORD PTR __Erasednode$[ebp]
  0031d	52		 push	 edx
  0031e	e8 00 00 00 00	 call	 ?_Parent@?$_Tree@V?$_Tmap_traits@PAUHWND__@@UCWndData@@U?$less@PAUHWND__@@@std@@V?$allocator@U?$pair@QAUHWND__@@UCWndData@@@std@@@4@$0A@@std@@@std@@KAAAPAU_Node@?$_Tree_nod@V?$_Tmap_traits@PAUHWND__@@UCWndData@@U?$less@PAUHWND__@@@std@@V?$allocator@U?$pair@QAUHWND__@@UCWndData@@@std@@@4@$0A@@std@@@2@PAU342@@Z ; std::_Tree<std::_Tmap_traits<HWND__ *,CWndData,std::less<HWND__ *>,std::allocator<std::pair<HWND__ * const,CWndData> >,0> >::_Parent
  00323	83 c4 04	 add	 esp, 4
  00326	8b 00		 mov	 eax, DWORD PTR [eax]
  00328	50		 push	 eax
  00329	e8 00 00 00 00	 call	 ?_Left@?$_Tree@V?$_Tmap_traits@PAUHWND__@@UCWndData@@U?$less@PAUHWND__@@@std@@V?$allocator@U?$pair@QAUHWND__@@UCWndData@@@std@@@4@$0A@@std@@@std@@KAAAPAU_Node@?$_Tree_nod@V?$_Tmap_traits@PAUHWND__@@UCWndData@@U?$less@PAUHWND__@@@std@@V?$allocator@U?$pair@QAUHWND__@@UCWndData@@@std@@@4@$0A@@std@@@2@PAU342@@Z ; std::_Tree<std::_Tmap_traits<HWND__ *,CWndData,std::less<HWND__ *>,std::allocator<std::pair<HWND__ * const,CWndData> >,0> >::_Left
  0032e	83 c4 04	 add	 esp, 4
  00331	8b 08		 mov	 ecx, DWORD PTR [eax]
  00333	3b 4d f0	 cmp	 ecx, DWORD PTR __Erasednode$[ebp]
  00336	75 1e		 jne	 SHORT $L201189

; 653  : 				_Left(_Parent(_Erasednode)) = _Pnode;	// link down to left

  00338	8b 55 f0	 mov	 edx, DWORD PTR __Erasednode$[ebp]
  0033b	52		 push	 edx
  0033c	e8 00 00 00 00	 call	 ?_Parent@?$_Tree@V?$_Tmap_traits@PAUHWND__@@UCWndData@@U?$less@PAUHWND__@@@std@@V?$allocator@U?$pair@QAUHWND__@@UCWndData@@@std@@@4@$0A@@std@@@std@@KAAAPAU_Node@?$_Tree_nod@V?$_Tmap_traits@PAUHWND__@@UCWndData@@U?$less@PAUHWND__@@@std@@V?$allocator@U?$pair@QAUHWND__@@UCWndData@@@std@@@4@$0A@@std@@@2@PAU342@@Z ; std::_Tree<std::_Tmap_traits<HWND__ *,CWndData,std::less<HWND__ *>,std::allocator<std::pair<HWND__ * const,CWndData> >,0> >::_Parent
  00341	83 c4 04	 add	 esp, 4
  00344	8b 00		 mov	 eax, DWORD PTR [eax]
  00346	50		 push	 eax
  00347	e8 00 00 00 00	 call	 ?_Left@?$_Tree@V?$_Tmap_traits@PAUHWND__@@UCWndData@@U?$less@PAUHWND__@@@std@@V?$allocator@U?$pair@QAUHWND__@@UCWndData@@@std@@@4@$0A@@std@@@std@@KAAAPAU_Node@?$_Tree_nod@V?$_Tmap_traits@PAUHWND__@@UCWndData@@U?$less@PAUHWND__@@@std@@V?$allocator@U?$pair@QAUHWND__@@UCWndData@@@std@@@4@$0A@@std@@@2@PAU342@@Z ; std::_Tree<std::_Tmap_traits<HWND__ *,CWndData,std::less<HWND__ *>,std::allocator<std::pair<HWND__ * const,CWndData> >,0> >::_Left
  0034c	83 c4 04	 add	 esp, 4
  0034f	8b 4d e8	 mov	 ecx, DWORD PTR __Pnode$[ebp]
  00352	89 08		 mov	 DWORD PTR [eax], ecx

; 654  : 			else

  00354	eb 1c		 jmp	 SHORT $L201188
$L201189:

; 655  : 				_Right(_Parent(_Erasednode)) = _Pnode;	// link down to right

  00356	8b 55 f0	 mov	 edx, DWORD PTR __Erasednode$[ebp]
  00359	52		 push	 edx
  0035a	e8 00 00 00 00	 call	 ?_Parent@?$_Tree@V?$_Tmap_traits@PAUHWND__@@UCWndData@@U?$less@PAUHWND__@@@std@@V?$allocator@U?$pair@QAUHWND__@@UCWndData@@@std@@@4@$0A@@std@@@std@@KAAAPAU_Node@?$_Tree_nod@V?$_Tmap_traits@PAUHWND__@@UCWndData@@U?$less@PAUHWND__@@@std@@V?$allocator@U?$pair@QAUHWND__@@UCWndData@@@std@@@4@$0A@@std@@@2@PAU342@@Z ; std::_Tree<std::_Tmap_traits<HWND__ *,CWndData,std::less<HWND__ *>,std::allocator<std::pair<HWND__ * const,CWndData> >,0> >::_Parent
  0035f	83 c4 04	 add	 esp, 4
  00362	8b 00		 mov	 eax, DWORD PTR [eax]
  00364	50		 push	 eax
  00365	e8 00 00 00 00	 call	 ?_Right@?$_Tree@V?$_Tmap_traits@PAUHWND__@@UCWndData@@U?$less@PAUHWND__@@@std@@V?$allocator@U?$pair@QAUHWND__@@UCWndData@@@std@@@4@$0A@@std@@@std@@KAAAPAU_Node@?$_Tree_nod@V?$_Tmap_traits@PAUHWND__@@UCWndData@@U?$less@PAUHWND__@@@std@@V?$allocator@U?$pair@QAUHWND__@@UCWndData@@@std@@@4@$0A@@std@@@2@PAU342@@Z ; std::_Tree<std::_Tmap_traits<HWND__ *,CWndData,std::less<HWND__ *>,std::allocator<std::pair<HWND__ * const,CWndData> >,0> >::_Right
  0036a	83 c4 04	 add	 esp, 4
  0036d	8b 4d e8	 mov	 ecx, DWORD PTR __Pnode$[ebp]
  00370	89 08		 mov	 DWORD PTR [eax], ecx
$L201188:

; 656  : 
; 657  : 			_Parent(_Pnode) = _Parent(_Erasednode);	// link successor up

  00372	8b 55 f0	 mov	 edx, DWORD PTR __Erasednode$[ebp]
  00375	52		 push	 edx
  00376	e8 00 00 00 00	 call	 ?_Parent@?$_Tree@V?$_Tmap_traits@PAUHWND__@@UCWndData@@U?$less@PAUHWND__@@@std@@V?$allocator@U?$pair@QAUHWND__@@UCWndData@@@std@@@4@$0A@@std@@@std@@KAAAPAU_Node@?$_Tree_nod@V?$_Tmap_traits@PAUHWND__@@UCWndData@@U?$less@PAUHWND__@@@std@@V?$allocator@U?$pair@QAUHWND__@@UCWndData@@@std@@@4@$0A@@std@@@2@PAU342@@Z ; std::_Tree<std::_Tmap_traits<HWND__ *,CWndData,std::less<HWND__ *>,std::allocator<std::pair<HWND__ * const,CWndData> >,0> >::_Parent
  0037b	83 c4 04	 add	 esp, 4
  0037e	8b f0		 mov	 esi, eax
  00380	8b 45 e8	 mov	 eax, DWORD PTR __Pnode$[ebp]
  00383	50		 push	 eax
  00384	e8 00 00 00 00	 call	 ?_Parent@?$_Tree@V?$_Tmap_traits@PAUHWND__@@UCWndData@@U?$less@PAUHWND__@@@std@@V?$allocator@U?$pair@QAUHWND__@@UCWndData@@@std@@@4@$0A@@std@@@std@@KAAAPAU_Node@?$_Tree_nod@V?$_Tmap_traits@PAUHWND__@@UCWndData@@U?$less@PAUHWND__@@@std@@V?$allocator@U?$pair@QAUHWND__@@UCWndData@@@std@@@4@$0A@@std@@@2@PAU342@@Z ; std::_Tree<std::_Tmap_traits<HWND__ *,CWndData,std::less<HWND__ *>,std::allocator<std::pair<HWND__ * const,CWndData> >,0> >::_Parent
  00389	83 c4 04	 add	 esp, 4
  0038c	8b 0e		 mov	 ecx, DWORD PTR [esi]
  0038e	89 08		 mov	 DWORD PTR [eax], ecx

; 658  : 			std::swap(_Color(_Pnode), _Color(_Erasednode));	// recolor it

  00390	8b 55 f0	 mov	 edx, DWORD PTR __Erasednode$[ebp]
  00393	52		 push	 edx
  00394	e8 00 00 00 00	 call	 ?_Color@?$_Tree@V?$_Tmap_traits@PAUHWND__@@UCWndData@@U?$less@PAUHWND__@@@std@@V?$allocator@U?$pair@QAUHWND__@@UCWndData@@@std@@@4@$0A@@std@@@std@@KAAADPAU_Node@?$_Tree_nod@V?$_Tmap_traits@PAUHWND__@@UCWndData@@U?$less@PAUHWND__@@@std@@V?$allocator@U?$pair@QAUHWND__@@UCWndData@@@std@@@4@$0A@@std@@@2@@Z ; std::_Tree<std::_Tmap_traits<HWND__ *,CWndData,std::less<HWND__ *>,std::allocator<std::pair<HWND__ * const,CWndData> >,0> >::_Color
  00399	83 c4 04	 add	 esp, 4
  0039c	50		 push	 eax
  0039d	8b 45 e8	 mov	 eax, DWORD PTR __Pnode$[ebp]
  003a0	50		 push	 eax
  003a1	e8 00 00 00 00	 call	 ?_Color@?$_Tree@V?$_Tmap_traits@PAUHWND__@@UCWndData@@U?$less@PAUHWND__@@@std@@V?$allocator@U?$pair@QAUHWND__@@UCWndData@@@std@@@4@$0A@@std@@@std@@KAAADPAU_Node@?$_Tree_nod@V?$_Tmap_traits@PAUHWND__@@UCWndData@@U?$less@PAUHWND__@@@std@@V?$allocator@U?$pair@QAUHWND__@@UCWndData@@@std@@@4@$0A@@std@@@2@@Z ; std::_Tree<std::_Tmap_traits<HWND__ *,CWndData,std::less<HWND__ *>,std::allocator<std::pair<HWND__ * const,CWndData> >,0> >::_Color
  003a6	83 c4 04	 add	 esp, 4
  003a9	50		 push	 eax
  003aa	e8 00 00 00 00	 call	 ??$swap@D@std@@YAXAAD0@Z ; std::swap<char>
  003af	83 c4 08	 add	 esp, 8
$L201183:

; 659  : 			}
; 660  : 
; 661  : 		if (_Color(_Erasednode) == _Black)

  003b2	8b 4d f0	 mov	 ecx, DWORD PTR __Erasednode$[ebp]
  003b5	51		 push	 ecx
  003b6	e8 00 00 00 00	 call	 ?_Color@?$_Tree@V?$_Tmap_traits@PAUHWND__@@UCWndData@@U?$less@PAUHWND__@@@std@@V?$allocator@U?$pair@QAUHWND__@@UCWndData@@@std@@@4@$0A@@std@@@std@@KAAADPAU_Node@?$_Tree_nod@V?$_Tmap_traits@PAUHWND__@@UCWndData@@U?$less@PAUHWND__@@@std@@V?$allocator@U?$pair@QAUHWND__@@UCWndData@@@std@@@4@$0A@@std@@@2@@Z ; std::_Tree<std::_Tmap_traits<HWND__ *,CWndData,std::less<HWND__ *>,std::allocator<std::pair<HWND__ * const,CWndData> >,0> >::_Color
  003bb	83 c4 04	 add	 esp, 4
  003be	0f be 10	 movsx	 edx, BYTE PTR [eax]
  003c1	83 fa 01	 cmp	 edx, 1
  003c4	0f 85 8f 03 00
	00		 jne	 $L201191

; 662  : 			{	// erasing black link, must recolor/rebalance tree
; 663  : 			for (; _Fixnode != _Root() && _Color(_Fixnode) == _Black;
; 664  : 				_Fixnodeparent = _Parent(_Fixnode))

  003ca	eb 11		 jmp	 SHORT $L201192
$L201193:
  003cc	8b 45 ec	 mov	 eax, DWORD PTR __Fixnode$[ebp]
  003cf	50		 push	 eax
  003d0	e8 00 00 00 00	 call	 ?_Parent@?$_Tree@V?$_Tmap_traits@PAUHWND__@@UCWndData@@U?$less@PAUHWND__@@@std@@V?$allocator@U?$pair@QAUHWND__@@UCWndData@@@std@@@4@$0A@@std@@@std@@KAAAPAU_Node@?$_Tree_nod@V?$_Tmap_traits@PAUHWND__@@UCWndData@@U?$less@PAUHWND__@@@std@@V?$allocator@U?$pair@QAUHWND__@@UCWndData@@@std@@@4@$0A@@std@@@2@PAU342@@Z ; std::_Tree<std::_Tmap_traits<HWND__ *,CWndData,std::less<HWND__ *>,std::allocator<std::pair<HWND__ * const,CWndData> >,0> >::_Parent
  003d5	83 c4 04	 add	 esp, 4
  003d8	8b 08		 mov	 ecx, DWORD PTR [eax]
  003da	89 4d e4	 mov	 DWORD PTR __Fixnodeparent$[ebp], ecx
$L201192:
  003dd	8b 4d 9c	 mov	 ecx, DWORD PTR _this$[ebp]
  003e0	e8 00 00 00 00	 call	 ?_Root@?$_Tree@V?$_Tmap_traits@PAUHWND__@@UCWndData@@U?$less@PAUHWND__@@@std@@V?$allocator@U?$pair@QAUHWND__@@UCWndData@@@std@@@4@$0A@@std@@@std@@IAEAAPAU_Node@?$_Tree_nod@V?$_Tmap_traits@PAUHWND__@@UCWndData@@U?$less@PAUHWND__@@@std@@V?$allocator@U?$pair@QAUHWND__@@UCWndData@@@std@@@4@$0A@@std@@@2@XZ ; std::_Tree<std::_Tmap_traits<HWND__ *,CWndData,std::less<HWND__ *>,std::allocator<std::pair<HWND__ * const,CWndData> >,0> >::_Root
  003e5	8b 55 ec	 mov	 edx, DWORD PTR __Fixnode$[ebp]
  003e8	3b 10		 cmp	 edx, DWORD PTR [eax]
  003ea	0f 84 5a 03 00
	00		 je	 $L201194
  003f0	8b 45 ec	 mov	 eax, DWORD PTR __Fixnode$[ebp]
  003f3	50		 push	 eax
  003f4	e8 00 00 00 00	 call	 ?_Color@?$_Tree@V?$_Tmap_traits@PAUHWND__@@UCWndData@@U?$less@PAUHWND__@@@std@@V?$allocator@U?$pair@QAUHWND__@@UCWndData@@@std@@@4@$0A@@std@@@std@@KAAADPAU_Node@?$_Tree_nod@V?$_Tmap_traits@PAUHWND__@@UCWndData@@U?$less@PAUHWND__@@@std@@V?$allocator@U?$pair@QAUHWND__@@UCWndData@@@std@@@4@$0A@@std@@@2@@Z ; std::_Tree<std::_Tmap_traits<HWND__ *,CWndData,std::less<HWND__ *>,std::allocator<std::pair<HWND__ * const,CWndData> >,0> >::_Color
  003f9	83 c4 04	 add	 esp, 4
  003fc	0f be 08	 movsx	 ecx, BYTE PTR [eax]
  003ff	83 f9 01	 cmp	 ecx, 1
  00402	0f 85 42 03 00
	00		 jne	 $L201194

; 665  : 				if (_Fixnode == _Left(_Fixnodeparent))

  00408	8b 55 e4	 mov	 edx, DWORD PTR __Fixnodeparent$[ebp]
  0040b	52		 push	 edx
  0040c	e8 00 00 00 00	 call	 ?_Left@?$_Tree@V?$_Tmap_traits@PAUHWND__@@UCWndData@@U?$less@PAUHWND__@@@std@@V?$allocator@U?$pair@QAUHWND__@@UCWndData@@@std@@@4@$0A@@std@@@std@@KAAAPAU_Node@?$_Tree_nod@V?$_Tmap_traits@PAUHWND__@@UCWndData@@U?$less@PAUHWND__@@@std@@V?$allocator@U?$pair@QAUHWND__@@UCWndData@@@std@@@4@$0A@@std@@@2@PAU342@@Z ; std::_Tree<std::_Tmap_traits<HWND__ *,CWndData,std::less<HWND__ *>,std::allocator<std::pair<HWND__ * const,CWndData> >,0> >::_Left
  00411	83 c4 04	 add	 esp, 4
  00414	8b 4d ec	 mov	 ecx, DWORD PTR __Fixnode$[ebp]
  00417	3b 08		 cmp	 ecx, DWORD PTR [eax]
  00419	0f 85 97 01 00
	00		 jne	 $L201195

; 666  : 					{	// fixup left subtree
; 667  : 					_Pnode = _Right(_Fixnodeparent);

  0041f	8b 55 e4	 mov	 edx, DWORD PTR __Fixnodeparent$[ebp]
  00422	52		 push	 edx
  00423	e8 00 00 00 00	 call	 ?_Right@?$_Tree@V?$_Tmap_traits@PAUHWND__@@UCWndData@@U?$less@PAUHWND__@@@std@@V?$allocator@U?$pair@QAUHWND__@@UCWndData@@@std@@@4@$0A@@std@@@std@@KAAAPAU_Node@?$_Tree_nod@V?$_Tmap_traits@PAUHWND__@@UCWndData@@U?$less@PAUHWND__@@@std@@V?$allocator@U?$pair@QAUHWND__@@UCWndData@@@std@@@4@$0A@@std@@@2@PAU342@@Z ; std::_Tree<std::_Tmap_traits<HWND__ *,CWndData,std::less<HWND__ *>,std::allocator<std::pair<HWND__ * const,CWndData> >,0> >::_Right
  00428	83 c4 04	 add	 esp, 4
  0042b	8b 00		 mov	 eax, DWORD PTR [eax]
  0042d	89 45 e8	 mov	 DWORD PTR __Pnode$[ebp], eax

; 668  : 					if (_Color(_Pnode) == _Red)

  00430	8b 4d e8	 mov	 ecx, DWORD PTR __Pnode$[ebp]
  00433	51		 push	 ecx
  00434	e8 00 00 00 00	 call	 ?_Color@?$_Tree@V?$_Tmap_traits@PAUHWND__@@UCWndData@@U?$less@PAUHWND__@@@std@@V?$allocator@U?$pair@QAUHWND__@@UCWndData@@@std@@@4@$0A@@std@@@std@@KAAADPAU_Node@?$_Tree_nod@V?$_Tmap_traits@PAUHWND__@@UCWndData@@U?$less@PAUHWND__@@@std@@V?$allocator@U?$pair@QAUHWND__@@UCWndData@@@std@@@4@$0A@@std@@@2@@Z ; std::_Tree<std::_Tmap_traits<HWND__ *,CWndData,std::less<HWND__ *>,std::allocator<std::pair<HWND__ * const,CWndData> >,0> >::_Color
  00439	83 c4 04	 add	 esp, 4
  0043c	0f be 10	 movsx	 edx, BYTE PTR [eax]
  0043f	85 d2		 test	 edx, edx
  00441	75 3b		 jne	 SHORT $L201196

; 669  : 						{	// rotate red up from right subtree
; 670  : 						_Color(_Pnode) = _Black;

  00443	8b 45 e8	 mov	 eax, DWORD PTR __Pnode$[ebp]
  00446	50		 push	 eax
  00447	e8 00 00 00 00	 call	 ?_Color@?$_Tree@V?$_Tmap_traits@PAUHWND__@@UCWndData@@U?$less@PAUHWND__@@@std@@V?$allocator@U?$pair@QAUHWND__@@UCWndData@@@std@@@4@$0A@@std@@@std@@KAAADPAU_Node@?$_Tree_nod@V?$_Tmap_traits@PAUHWND__@@UCWndData@@U?$less@PAUHWND__@@@std@@V?$allocator@U?$pair@QAUHWND__@@UCWndData@@@std@@@4@$0A@@std@@@2@@Z ; std::_Tree<std::_Tmap_traits<HWND__ *,CWndData,std::less<HWND__ *>,std::allocator<std::pair<HWND__ * const,CWndData> >,0> >::_Color
  0044c	83 c4 04	 add	 esp, 4
  0044f	c6 00 01	 mov	 BYTE PTR [eax], 1

; 671  : 						_Color(_Fixnodeparent) = _Red;

  00452	8b 4d e4	 mov	 ecx, DWORD PTR __Fixnodeparent$[ebp]
  00455	51		 push	 ecx
  00456	e8 00 00 00 00	 call	 ?_Color@?$_Tree@V?$_Tmap_traits@PAUHWND__@@UCWndData@@U?$less@PAUHWND__@@@std@@V?$allocator@U?$pair@QAUHWND__@@UCWndData@@@std@@@4@$0A@@std@@@std@@KAAADPAU_Node@?$_Tree_nod@V?$_Tmap_traits@PAUHWND__@@UCWndData@@U?$less@PAUHWND__@@@std@@V?$allocator@U?$pair@QAUHWND__@@UCWndData@@@std@@@4@$0A@@std@@@2@@Z ; std::_Tree<std::_Tmap_traits<HWND__ *,CWndData,std::less<HWND__ *>,std::allocator<std::pair<HWND__ * const,CWndData> >,0> >::_Color
  0045b	83 c4 04	 add	 esp, 4
  0045e	c6 00 00	 mov	 BYTE PTR [eax], 0

; 672  : 						_Lrotate(_Fixnodeparent);

  00461	8b 55 e4	 mov	 edx, DWORD PTR __Fixnodeparent$[ebp]
  00464	52		 push	 edx
  00465	8b 4d 9c	 mov	 ecx, DWORD PTR _this$[ebp]
  00468	e8 00 00 00 00	 call	 ?_Lrotate@?$_Tree@V?$_Tmap_traits@PAUHWND__@@UCWndData@@U?$less@PAUHWND__@@@std@@V?$allocator@U?$pair@QAUHWND__@@UCWndData@@@std@@@4@$0A@@std@@@std@@IAEXPAU_Node@?$_Tree_nod@V?$_Tmap_traits@PAUHWND__@@UCWndData@@U?$less@PAUHWND__@@@std@@V?$allocator@U?$pair@QAUHWND__@@UCWndData@@@std@@@4@$0A@@std@@@2@@Z ; std::_Tree<std::_Tmap_traits<HWND__ *,CWndData,std::less<HWND__ *>,std::allocator<std::pair<HWND__ * const,CWndData> >,0> >::_Lrotate

; 673  : 						_Pnode = _Right(_Fixnodeparent);

  0046d	8b 45 e4	 mov	 eax, DWORD PTR __Fixnodeparent$[ebp]
  00470	50		 push	 eax
  00471	e8 00 00 00 00	 call	 ?_Right@?$_Tree@V?$_Tmap_traits@PAUHWND__@@UCWndData@@U?$less@PAUHWND__@@@std@@V?$allocator@U?$pair@QAUHWND__@@UCWndData@@@std@@@4@$0A@@std@@@std@@KAAAPAU_Node@?$_Tree_nod@V?$_Tmap_traits@PAUHWND__@@UCWndData@@U?$less@PAUHWND__@@@std@@V?$allocator@U?$pair@QAUHWND__@@UCWndData@@@std@@@4@$0A@@std@@@2@PAU342@@Z ; std::_Tree<std::_Tmap_traits<HWND__ *,CWndData,std::less<HWND__ *>,std::allocator<std::pair<HWND__ * const,CWndData> >,0> >::_Right
  00476	83 c4 04	 add	 esp, 4
  00479	8b 08		 mov	 ecx, DWORD PTR [eax]
  0047b	89 4d e8	 mov	 DWORD PTR __Pnode$[ebp], ecx
$L201196:

; 674  : 						}
; 675  : 
; 676  : 					if (_Isnil(_Pnode))

  0047e	8b 55 e8	 mov	 edx, DWORD PTR __Pnode$[ebp]
  00481	52		 push	 edx
  00482	e8 00 00 00 00	 call	 ?_Isnil@?$_Tree@V?$_Tmap_traits@PAUHWND__@@UCWndData@@U?$less@PAUHWND__@@@std@@V?$allocator@U?$pair@QAUHWND__@@UCWndData@@@std@@@4@$0A@@std@@@std@@KAAADPAU_Node@?$_Tree_nod@V?$_Tmap_traits@PAUHWND__@@UCWndData@@U?$less@PAUHWND__@@@std@@V?$allocator@U?$pair@QAUHWND__@@UCWndData@@@std@@@4@$0A@@std@@@2@@Z ; std::_Tree<std::_Tmap_traits<HWND__ *,CWndData,std::less<HWND__ *>,std::allocator<std::pair<HWND__ * const,CWndData> >,0> >::_Isnil
  00487	83 c4 04	 add	 esp, 4
  0048a	0f be 00	 movsx	 eax, BYTE PTR [eax]
  0048d	85 c0		 test	 eax, eax
  0048f	74 0b		 je	 SHORT $L201197

; 677  : 						_Fixnode = _Fixnodeparent;	// shouldn't happen

  00491	8b 4d e4	 mov	 ecx, DWORD PTR __Fixnodeparent$[ebp]
  00494	89 4d ec	 mov	 DWORD PTR __Fixnode$[ebp], ecx

; 678  : 					else if (_Color(_Left(_Pnode)) == _Black

  00497	e9 15 01 00 00	 jmp	 $L201198
$L201197:

; 679  : 						&& _Color(_Right(_Pnode)) == _Black)

  0049c	8b 55 e8	 mov	 edx, DWORD PTR __Pnode$[ebp]
  0049f	52		 push	 edx
  004a0	e8 00 00 00 00	 call	 ?_Left@?$_Tree@V?$_Tmap_traits@PAUHWND__@@UCWndData@@U?$less@PAUHWND__@@@std@@V?$allocator@U?$pair@QAUHWND__@@UCWndData@@@std@@@4@$0A@@std@@@std@@KAAAPAU_Node@?$_Tree_nod@V?$_Tmap_traits@PAUHWND__@@UCWndData@@U?$less@PAUHWND__@@@std@@V?$allocator@U?$pair@QAUHWND__@@UCWndData@@@std@@@4@$0A@@std@@@2@PAU342@@Z ; std::_Tree<std::_Tmap_traits<HWND__ *,CWndData,std::less<HWND__ *>,std::allocator<std::pair<HWND__ * const,CWndData> >,0> >::_Left
  004a5	83 c4 04	 add	 esp, 4
  004a8	8b 00		 mov	 eax, DWORD PTR [eax]
  004aa	50		 push	 eax
  004ab	e8 00 00 00 00	 call	 ?_Color@?$_Tree@V?$_Tmap_traits@PAUHWND__@@UCWndData@@U?$less@PAUHWND__@@@std@@V?$allocator@U?$pair@QAUHWND__@@UCWndData@@@std@@@4@$0A@@std@@@std@@KAAADPAU_Node@?$_Tree_nod@V?$_Tmap_traits@PAUHWND__@@UCWndData@@U?$less@PAUHWND__@@@std@@V?$allocator@U?$pair@QAUHWND__@@UCWndData@@@std@@@4@$0A@@std@@@2@@Z ; std::_Tree<std::_Tmap_traits<HWND__ *,CWndData,std::less<HWND__ *>,std::allocator<std::pair<HWND__ * const,CWndData> >,0> >::_Color
  004b0	83 c4 04	 add	 esp, 4
  004b3	0f be 08	 movsx	 ecx, BYTE PTR [eax]
  004b6	83 f9 01	 cmp	 ecx, 1
  004b9	75 39		 jne	 SHORT $L201199
  004bb	8b 55 e8	 mov	 edx, DWORD PTR __Pnode$[ebp]
  004be	52		 push	 edx
  004bf	e8 00 00 00 00	 call	 ?_Right@?$_Tree@V?$_Tmap_traits@PAUHWND__@@UCWndData@@U?$less@PAUHWND__@@@std@@V?$allocator@U?$pair@QAUHWND__@@UCWndData@@@std@@@4@$0A@@std@@@std@@KAAAPAU_Node@?$_Tree_nod@V?$_Tmap_traits@PAUHWND__@@UCWndData@@U?$less@PAUHWND__@@@std@@V?$allocator@U?$pair@QAUHWND__@@UCWndData@@@std@@@4@$0A@@std@@@2@PAU342@@Z ; std::_Tree<std::_Tmap_traits<HWND__ *,CWndData,std::less<HWND__ *>,std::allocator<std::pair<HWND__ * const,CWndData> >,0> >::_Right
  004c4	83 c4 04	 add	 esp, 4
  004c7	8b 00		 mov	 eax, DWORD PTR [eax]
  004c9	50		 push	 eax
  004ca	e8 00 00 00 00	 call	 ?_Color@?$_Tree@V?$_Tmap_traits@PAUHWND__@@UCWndData@@U?$less@PAUHWND__@@@std@@V?$allocator@U?$pair@QAUHWND__@@UCWndData@@@std@@@4@$0A@@std@@@std@@KAAADPAU_Node@?$_Tree_nod@V?$_Tmap_traits@PAUHWND__@@UCWndData@@U?$less@PAUHWND__@@@std@@V?$allocator@U?$pair@QAUHWND__@@UCWndData@@@std@@@4@$0A@@std@@@2@@Z ; std::_Tree<std::_Tmap_traits<HWND__ *,CWndData,std::less<HWND__ *>,std::allocator<std::pair<HWND__ * const,CWndData> >,0> >::_Color
  004cf	83 c4 04	 add	 esp, 4
  004d2	0f be 08	 movsx	 ecx, BYTE PTR [eax]
  004d5	83 f9 01	 cmp	 ecx, 1
  004d8	75 1a		 jne	 SHORT $L201199

; 680  : 						{	// redden right subtree with black children
; 681  : 						_Color(_Pnode) = _Red;

  004da	8b 55 e8	 mov	 edx, DWORD PTR __Pnode$[ebp]
  004dd	52		 push	 edx
  004de	e8 00 00 00 00	 call	 ?_Color@?$_Tree@V?$_Tmap_traits@PAUHWND__@@UCWndData@@U?$less@PAUHWND__@@@std@@V?$allocator@U?$pair@QAUHWND__@@UCWndData@@@std@@@4@$0A@@std@@@std@@KAAADPAU_Node@?$_Tree_nod@V?$_Tmap_traits@PAUHWND__@@UCWndData@@U?$less@PAUHWND__@@@std@@V?$allocator@U?$pair@QAUHWND__@@UCWndData@@@std@@@4@$0A@@std@@@2@@Z ; std::_Tree<std::_Tmap_traits<HWND__ *,CWndData,std::less<HWND__ *>,std::allocator<std::pair<HWND__ * const,CWndData> >,0> >::_Color
  004e3	83 c4 04	 add	 esp, 4
  004e6	c6 00 00	 mov	 BYTE PTR [eax], 0

; 682  : 						_Fixnode = _Fixnodeparent;

  004e9	8b 45 e4	 mov	 eax, DWORD PTR __Fixnodeparent$[ebp]
  004ec	89 45 ec	 mov	 DWORD PTR __Fixnode$[ebp], eax

; 683  : 						}
; 684  : 					else

  004ef	e9 bd 00 00 00	 jmp	 $L201198
$L201199:

; 685  : 						{	// must rearrange right subtree
; 686  : 						if (_Color(_Right(_Pnode)) == _Black)

  004f4	8b 4d e8	 mov	 ecx, DWORD PTR __Pnode$[ebp]
  004f7	51		 push	 ecx
  004f8	e8 00 00 00 00	 call	 ?_Right@?$_Tree@V?$_Tmap_traits@PAUHWND__@@UCWndData@@U?$less@PAUHWND__@@@std@@V?$allocator@U?$pair@QAUHWND__@@UCWndData@@@std@@@4@$0A@@std@@@std@@KAAAPAU_Node@?$_Tree_nod@V?$_Tmap_traits@PAUHWND__@@UCWndData@@U?$less@PAUHWND__@@@std@@V?$allocator@U?$pair@QAUHWND__@@UCWndData@@@std@@@4@$0A@@std@@@2@PAU342@@Z ; std::_Tree<std::_Tmap_traits<HWND__ *,CWndData,std::less<HWND__ *>,std::allocator<std::pair<HWND__ * const,CWndData> >,0> >::_Right
  004fd	83 c4 04	 add	 esp, 4
  00500	8b 10		 mov	 edx, DWORD PTR [eax]
  00502	52		 push	 edx
  00503	e8 00 00 00 00	 call	 ?_Color@?$_Tree@V?$_Tmap_traits@PAUHWND__@@UCWndData@@U?$less@PAUHWND__@@@std@@V?$allocator@U?$pair@QAUHWND__@@UCWndData@@@std@@@4@$0A@@std@@@std@@KAAADPAU_Node@?$_Tree_nod@V?$_Tmap_traits@PAUHWND__@@UCWndData@@U?$less@PAUHWND__@@@std@@V?$allocator@U?$pair@QAUHWND__@@UCWndData@@@std@@@4@$0A@@std@@@2@@Z ; std::_Tree<std::_Tmap_traits<HWND__ *,CWndData,std::less<HWND__ *>,std::allocator<std::pair<HWND__ * const,CWndData> >,0> >::_Color
  00508	83 c4 04	 add	 esp, 4
  0050b	0f be 00	 movsx	 eax, BYTE PTR [eax]
  0050e	83 f8 01	 cmp	 eax, 1
  00511	75 46		 jne	 SHORT $L201201

; 687  : 							{	// rotate red up from left sub-subtree
; 688  : 							_Color(_Left(_Pnode)) = _Black;

  00513	8b 4d e8	 mov	 ecx, DWORD PTR __Pnode$[ebp]
  00516	51		 push	 ecx
  00517	e8 00 00 00 00	 call	 ?_Left@?$_Tree@V?$_Tmap_traits@PAUHWND__@@UCWndData@@U?$less@PAUHWND__@@@std@@V?$allocator@U?$pair@QAUHWND__@@UCWndData@@@std@@@4@$0A@@std@@@std@@KAAAPAU_Node@?$_Tree_nod@V?$_Tmap_traits@PAUHWND__@@UCWndData@@U?$less@PAUHWND__@@@std@@V?$allocator@U?$pair@QAUHWND__@@UCWndData@@@std@@@4@$0A@@std@@@2@PAU342@@Z ; std::_Tree<std::_Tmap_traits<HWND__ *,CWndData,std::less<HWND__ *>,std::allocator<std::pair<HWND__ * const,CWndData> >,0> >::_Left
  0051c	83 c4 04	 add	 esp, 4
  0051f	8b 10		 mov	 edx, DWORD PTR [eax]
  00521	52		 push	 edx
  00522	e8 00 00 00 00	 call	 ?_Color@?$_Tree@V?$_Tmap_traits@PAUHWND__@@UCWndData@@U?$less@PAUHWND__@@@std@@V?$allocator@U?$pair@QAUHWND__@@UCWndData@@@std@@@4@$0A@@std@@@std@@KAAADPAU_Node@?$_Tree_nod@V?$_Tmap_traits@PAUHWND__@@UCWndData@@U?$less@PAUHWND__@@@std@@V?$allocator@U?$pair@QAUHWND__@@UCWndData@@@std@@@4@$0A@@std@@@2@@Z ; std::_Tree<std::_Tmap_traits<HWND__ *,CWndData,std::less<HWND__ *>,std::allocator<std::pair<HWND__ * const,CWndData> >,0> >::_Color
  00527	83 c4 04	 add	 esp, 4
  0052a	c6 00 01	 mov	 BYTE PTR [eax], 1

; 689  : 							_Color(_Pnode) = _Red;

  0052d	8b 45 e8	 mov	 eax, DWORD PTR __Pnode$[ebp]
  00530	50		 push	 eax
  00531	e8 00 00 00 00	 call	 ?_Color@?$_Tree@V?$_Tmap_traits@PAUHWND__@@UCWndData@@U?$less@PAUHWND__@@@std@@V?$allocator@U?$pair@QAUHWND__@@UCWndData@@@std@@@4@$0A@@std@@@std@@KAAADPAU_Node@?$_Tree_nod@V?$_Tmap_traits@PAUHWND__@@UCWndData@@U?$less@PAUHWND__@@@std@@V?$allocator@U?$pair@QAUHWND__@@UCWndData@@@std@@@4@$0A@@std@@@2@@Z ; std::_Tree<std::_Tmap_traits<HWND__ *,CWndData,std::less<HWND__ *>,std::allocator<std::pair<HWND__ * const,CWndData> >,0> >::_Color
  00536	83 c4 04	 add	 esp, 4
  00539	c6 00 00	 mov	 BYTE PTR [eax], 0

; 690  : 							_Rrotate(_Pnode);

  0053c	8b 4d e8	 mov	 ecx, DWORD PTR __Pnode$[ebp]
  0053f	51		 push	 ecx
  00540	8b 4d 9c	 mov	 ecx, DWORD PTR _this$[ebp]
  00543	e8 00 00 00 00	 call	 ?_Rrotate@?$_Tree@V?$_Tmap_traits@PAUHWND__@@UCWndData@@U?$less@PAUHWND__@@@std@@V?$allocator@U?$pair@QAUHWND__@@UCWndData@@@std@@@4@$0A@@std@@@std@@IAEXPAU_Node@?$_Tree_nod@V?$_Tmap_traits@PAUHWND__@@UCWndData@@U?$less@PAUHWND__@@@std@@V?$allocator@U?$pair@QAUHWND__@@UCWndData@@@std@@@4@$0A@@std@@@2@@Z ; std::_Tree<std::_Tmap_traits<HWND__ *,CWndData,std::less<HWND__ *>,std::allocator<std::pair<HWND__ * const,CWndData> >,0> >::_Rrotate

; 691  : 							_Pnode = _Right(_Fixnodeparent);

  00548	8b 55 e4	 mov	 edx, DWORD PTR __Fixnodeparent$[ebp]
  0054b	52		 push	 edx
  0054c	e8 00 00 00 00	 call	 ?_Right@?$_Tree@V?$_Tmap_traits@PAUHWND__@@UCWndData@@U?$less@PAUHWND__@@@std@@V?$allocator@U?$pair@QAUHWND__@@UCWndData@@@std@@@4@$0A@@std@@@std@@KAAAPAU_Node@?$_Tree_nod@V?$_Tmap_traits@PAUHWND__@@UCWndData@@U?$less@PAUHWND__@@@std@@V?$allocator@U?$pair@QAUHWND__@@UCWndData@@@std@@@4@$0A@@std@@@2@PAU342@@Z ; std::_Tree<std::_Tmap_traits<HWND__ *,CWndData,std::less<HWND__ *>,std::allocator<std::pair<HWND__ * const,CWndData> >,0> >::_Right
  00551	83 c4 04	 add	 esp, 4
  00554	8b 00		 mov	 eax, DWORD PTR [eax]
  00556	89 45 e8	 mov	 DWORD PTR __Pnode$[ebp], eax
$L201201:

; 692  : 							}
; 693  : 
; 694  : 						_Color(_Pnode) = _Color(_Fixnodeparent);

  00559	8b 4d e4	 mov	 ecx, DWORD PTR __Fixnodeparent$[ebp]
  0055c	51		 push	 ecx
  0055d	e8 00 00 00 00	 call	 ?_Color@?$_Tree@V?$_Tmap_traits@PAUHWND__@@UCWndData@@U?$less@PAUHWND__@@@std@@V?$allocator@U?$pair@QAUHWND__@@UCWndData@@@std@@@4@$0A@@std@@@std@@KAAADPAU_Node@?$_Tree_nod@V?$_Tmap_traits@PAUHWND__@@UCWndData@@U?$less@PAUHWND__@@@std@@V?$allocator@U?$pair@QAUHWND__@@UCWndData@@@std@@@4@$0A@@std@@@2@@Z ; std::_Tree<std::_Tmap_traits<HWND__ *,CWndData,std::less<HWND__ *>,std::allocator<std::pair<HWND__ * const,CWndData> >,0> >::_Color
  00562	83 c4 04	 add	 esp, 4
  00565	8b f0		 mov	 esi, eax
  00567	8b 55 e8	 mov	 edx, DWORD PTR __Pnode$[ebp]
  0056a	52		 push	 edx
  0056b	e8 00 00 00 00	 call	 ?_Color@?$_Tree@V?$_Tmap_traits@PAUHWND__@@UCWndData@@U?$less@PAUHWND__@@@std@@V?$allocator@U?$pair@QAUHWND__@@UCWndData@@@std@@@4@$0A@@std@@@std@@KAAADPAU_Node@?$_Tree_nod@V?$_Tmap_traits@PAUHWND__@@UCWndData@@U?$less@PAUHWND__@@@std@@V?$allocator@U?$pair@QAUHWND__@@UCWndData@@@std@@@4@$0A@@std@@@2@@Z ; std::_Tree<std::_Tmap_traits<HWND__ *,CWndData,std::less<HWND__ *>,std::allocator<std::pair<HWND__ * const,CWndData> >,0> >::_Color
  00570	83 c4 04	 add	 esp, 4
  00573	8a 0e		 mov	 cl, BYTE PTR [esi]
  00575	88 08		 mov	 BYTE PTR [eax], cl

; 695  : 						_Color(_Fixnodeparent) = _Black;

  00577	8b 55 e4	 mov	 edx, DWORD PTR __Fixnodeparent$[ebp]
  0057a	52		 push	 edx
  0057b	e8 00 00 00 00	 call	 ?_Color@?$_Tree@V?$_Tmap_traits@PAUHWND__@@UCWndData@@U?$less@PAUHWND__@@@std@@V?$allocator@U?$pair@QAUHWND__@@UCWndData@@@std@@@4@$0A@@std@@@std@@KAAADPAU_Node@?$_Tree_nod@V?$_Tmap_traits@PAUHWND__@@UCWndData@@U?$less@PAUHWND__@@@std@@V?$allocator@U?$pair@QAUHWND__@@UCWndData@@@std@@@4@$0A@@std@@@2@@Z ; std::_Tree<std::_Tmap_traits<HWND__ *,CWndData,std::less<HWND__ *>,std::allocator<std::pair<HWND__ * const,CWndData> >,0> >::_Color
  00580	83 c4 04	 add	 esp, 4
  00583	c6 00 01	 mov	 BYTE PTR [eax], 1

; 696  : 						_Color(_Right(_Pnode)) = _Black;

  00586	8b 45 e8	 mov	 eax, DWORD PTR __Pnode$[ebp]
  00589	50		 push	 eax
  0058a	e8 00 00 00 00	 call	 ?_Right@?$_Tree@V?$_Tmap_traits@PAUHWND__@@UCWndData@@U?$less@PAUHWND__@@@std@@V?$allocator@U?$pair@QAUHWND__@@UCWndData@@@std@@@4@$0A@@std@@@std@@KAAAPAU_Node@?$_Tree_nod@V?$_Tmap_traits@PAUHWND__@@UCWndData@@U?$less@PAUHWND__@@@std@@V?$allocator@U?$pair@QAUHWND__@@UCWndData@@@std@@@4@$0A@@std@@@2@PAU342@@Z ; std::_Tree<std::_Tmap_traits<HWND__ *,CWndData,std::less<HWND__ *>,std::allocator<std::pair<HWND__ * const,CWndData> >,0> >::_Right
  0058f	83 c4 04	 add	 esp, 4
  00592	8b 08		 mov	 ecx, DWORD PTR [eax]
  00594	51		 push	 ecx
  00595	e8 00 00 00 00	 call	 ?_Color@?$_Tree@V?$_Tmap_traits@PAUHWND__@@UCWndData@@U?$less@PAUHWND__@@@std@@V?$allocator@U?$pair@QAUHWND__@@UCWndData@@@std@@@4@$0A@@std@@@std@@KAAADPAU_Node@?$_Tree_nod@V?$_Tmap_traits@PAUHWND__@@UCWndData@@U?$less@PAUHWND__@@@std@@V?$allocator@U?$pair@QAUHWND__@@UCWndData@@@std@@@4@$0A@@std@@@2@@Z ; std::_Tree<std::_Tmap_traits<HWND__ *,CWndData,std::less<HWND__ *>,std::allocator<std::pair<HWND__ * const,CWndData> >,0> >::_Color
  0059a	83 c4 04	 add	 esp, 4
  0059d	c6 00 01	 mov	 BYTE PTR [eax], 1

; 697  : 						_Lrotate(_Fixnodeparent);

  005a0	8b 55 e4	 mov	 edx, DWORD PTR __Fixnodeparent$[ebp]
  005a3	52		 push	 edx
  005a4	8b 4d 9c	 mov	 ecx, DWORD PTR _this$[ebp]
  005a7	e8 00 00 00 00	 call	 ?_Lrotate@?$_Tree@V?$_Tmap_traits@PAUHWND__@@UCWndData@@U?$less@PAUHWND__@@@std@@V?$allocator@U?$pair@QAUHWND__@@UCWndData@@@std@@@4@$0A@@std@@@std@@IAEXPAU_Node@?$_Tree_nod@V?$_Tmap_traits@PAUHWND__@@UCWndData@@U?$less@PAUHWND__@@@std@@V?$allocator@U?$pair@QAUHWND__@@UCWndData@@@std@@@4@$0A@@std@@@2@@Z ; std::_Tree<std::_Tmap_traits<HWND__ *,CWndData,std::less<HWND__ *>,std::allocator<std::pair<HWND__ * const,CWndData> >,0> >::_Lrotate

; 698  : 						break;	// tree now recolored/rebalanced

  005ac	e9 99 01 00 00	 jmp	 $L201194
$L201198:

; 699  : 						}
; 700  : 					}
; 701  : 				else

  005b1	e9 8f 01 00 00	 jmp	 $L201202
$L201195:

; 702  : 					{	// fixup right subtree
; 703  : 					_Pnode = _Left(_Fixnodeparent);

  005b6	8b 45 e4	 mov	 eax, DWORD PTR __Fixnodeparent$[ebp]
  005b9	50		 push	 eax
  005ba	e8 00 00 00 00	 call	 ?_Left@?$_Tree@V?$_Tmap_traits@PAUHWND__@@UCWndData@@U?$less@PAUHWND__@@@std@@V?$allocator@U?$pair@QAUHWND__@@UCWndData@@@std@@@4@$0A@@std@@@std@@KAAAPAU_Node@?$_Tree_nod@V?$_Tmap_traits@PAUHWND__@@UCWndData@@U?$less@PAUHWND__@@@std@@V?$allocator@U?$pair@QAUHWND__@@UCWndData@@@std@@@4@$0A@@std@@@2@PAU342@@Z ; std::_Tree<std::_Tmap_traits<HWND__ *,CWndData,std::less<HWND__ *>,std::allocator<std::pair<HWND__ * const,CWndData> >,0> >::_Left
  005bf	83 c4 04	 add	 esp, 4
  005c2	8b 08		 mov	 ecx, DWORD PTR [eax]
  005c4	89 4d e8	 mov	 DWORD PTR __Pnode$[ebp], ecx

; 704  : 					if (_Color(_Pnode) == _Red)

  005c7	8b 55 e8	 mov	 edx, DWORD PTR __Pnode$[ebp]
  005ca	52		 push	 edx
  005cb	e8 00 00 00 00	 call	 ?_Color@?$_Tree@V?$_Tmap_traits@PAUHWND__@@UCWndData@@U?$less@PAUHWND__@@@std@@V?$allocator@U?$pair@QAUHWND__@@UCWndData@@@std@@@4@$0A@@std@@@std@@KAAADPAU_Node@?$_Tree_nod@V?$_Tmap_traits@PAUHWND__@@UCWndData@@U?$less@PAUHWND__@@@std@@V?$allocator@U?$pair@QAUHWND__@@UCWndData@@@std@@@4@$0A@@std@@@2@@Z ; std::_Tree<std::_Tmap_traits<HWND__ *,CWndData,std::less<HWND__ *>,std::allocator<std::pair<HWND__ * const,CWndData> >,0> >::_Color
  005d0	83 c4 04	 add	 esp, 4
  005d3	0f be 00	 movsx	 eax, BYTE PTR [eax]
  005d6	85 c0		 test	 eax, eax
  005d8	75 3b		 jne	 SHORT $L201203

; 705  : 						{	// rotate red up from left subtree
; 706  : 						_Color(_Pnode) = _Black;

  005da	8b 4d e8	 mov	 ecx, DWORD PTR __Pnode$[ebp]
  005dd	51		 push	 ecx
  005de	e8 00 00 00 00	 call	 ?_Color@?$_Tree@V?$_Tmap_traits@PAUHWND__@@UCWndData@@U?$less@PAUHWND__@@@std@@V?$allocator@U?$pair@QAUHWND__@@UCWndData@@@std@@@4@$0A@@std@@@std@@KAAADPAU_Node@?$_Tree_nod@V?$_Tmap_traits@PAUHWND__@@UCWndData@@U?$less@PAUHWND__@@@std@@V?$allocator@U?$pair@QAUHWND__@@UCWndData@@@std@@@4@$0A@@std@@@2@@Z ; std::_Tree<std::_Tmap_traits<HWND__ *,CWndData,std::less<HWND__ *>,std::allocator<std::pair<HWND__ * const,CWndData> >,0> >::_Color
  005e3	83 c4 04	 add	 esp, 4
  005e6	c6 00 01	 mov	 BYTE PTR [eax], 1

; 707  : 						_Color(_Fixnodeparent) = _Red;

  005e9	8b 55 e4	 mov	 edx, DWORD PTR __Fixnodeparent$[ebp]
  005ec	52		 push	 edx
  005ed	e8 00 00 00 00	 call	 ?_Color@?$_Tree@V?$_Tmap_traits@PAUHWND__@@UCWndData@@U?$less@PAUHWND__@@@std@@V?$allocator@U?$pair@QAUHWND__@@UCWndData@@@std@@@4@$0A@@std@@@std@@KAAADPAU_Node@?$_Tree_nod@V?$_Tmap_traits@PAUHWND__@@UCWndData@@U?$less@PAUHWND__@@@std@@V?$allocator@U?$pair@QAUHWND__@@UCWndData@@@std@@@4@$0A@@std@@@2@@Z ; std::_Tree<std::_Tmap_traits<HWND__ *,CWndData,std::less<HWND__ *>,std::allocator<std::pair<HWND__ * const,CWndData> >,0> >::_Color
  005f2	83 c4 04	 add	 esp, 4
  005f5	c6 00 00	 mov	 BYTE PTR [eax], 0

; 708  : 						_Rrotate(_Fixnodeparent);

  005f8	8b 45 e4	 mov	 eax, DWORD PTR __Fixnodeparent$[ebp]
  005fb	50		 push	 eax
  005fc	8b 4d 9c	 mov	 ecx, DWORD PTR _this$[ebp]
  005ff	e8 00 00 00 00	 call	 ?_Rrotate@?$_Tree@V?$_Tmap_traits@PAUHWND__@@UCWndData@@U?$less@PAUHWND__@@@std@@V?$allocator@U?$pair@QAUHWND__@@UCWndData@@@std@@@4@$0A@@std@@@std@@IAEXPAU_Node@?$_Tree_nod@V?$_Tmap_traits@PAUHWND__@@UCWndData@@U?$less@PAUHWND__@@@std@@V?$allocator@U?$pair@QAUHWND__@@UCWndData@@@std@@@4@$0A@@std@@@2@@Z ; std::_Tree<std::_Tmap_traits<HWND__ *,CWndData,std::less<HWND__ *>,std::allocator<std::pair<HWND__ * const,CWndData> >,0> >::_Rrotate

; 709  : 						_Pnode = _Left(_Fixnodeparent);

  00604	8b 4d e4	 mov	 ecx, DWORD PTR __Fixnodeparent$[ebp]
  00607	51		 push	 ecx
  00608	e8 00 00 00 00	 call	 ?_Left@?$_Tree@V?$_Tmap_traits@PAUHWND__@@UCWndData@@U?$less@PAUHWND__@@@std@@V?$allocator@U?$pair@QAUHWND__@@UCWndData@@@std@@@4@$0A@@std@@@std@@KAAAPAU_Node@?$_Tree_nod@V?$_Tmap_traits@PAUHWND__@@UCWndData@@U?$less@PAUHWND__@@@std@@V?$allocator@U?$pair@QAUHWND__@@UCWndData@@@std@@@4@$0A@@std@@@2@PAU342@@Z ; std::_Tree<std::_Tmap_traits<HWND__ *,CWndData,std::less<HWND__ *>,std::allocator<std::pair<HWND__ * const,CWndData> >,0> >::_Left
  0060d	83 c4 04	 add	 esp, 4
  00610	8b 10		 mov	 edx, DWORD PTR [eax]
  00612	89 55 e8	 mov	 DWORD PTR __Pnode$[ebp], edx
$L201203:

; 710  : 						}
; 711  : 					if (_Isnil(_Pnode))

  00615	8b 45 e8	 mov	 eax, DWORD PTR __Pnode$[ebp]
  00618	50		 push	 eax
  00619	e8 00 00 00 00	 call	 ?_Isnil@?$_Tree@V?$_Tmap_traits@PAUHWND__@@UCWndData@@U?$less@PAUHWND__@@@std@@V?$allocator@U?$pair@QAUHWND__@@UCWndData@@@std@@@4@$0A@@std@@@std@@KAAADPAU_Node@?$_Tree_nod@V?$_Tmap_traits@PAUHWND__@@UCWndData@@U?$less@PAUHWND__@@@std@@V?$allocator@U?$pair@QAUHWND__@@UCWndData@@@std@@@4@$0A@@std@@@2@@Z ; std::_Tree<std::_Tmap_traits<HWND__ *,CWndData,std::less<HWND__ *>,std::allocator<std::pair<HWND__ * const,CWndData> >,0> >::_Isnil
  0061e	83 c4 04	 add	 esp, 4
  00621	0f be 08	 movsx	 ecx, BYTE PTR [eax]
  00624	85 c9		 test	 ecx, ecx
  00626	74 0b		 je	 SHORT $L201204

; 712  : 						_Fixnode = _Fixnodeparent;	// shouldn't happen

  00628	8b 55 e4	 mov	 edx, DWORD PTR __Fixnodeparent$[ebp]
  0062b	89 55 ec	 mov	 DWORD PTR __Fixnode$[ebp], edx

; 713  : 					else if (_Color(_Right(_Pnode)) == _Black

  0062e	e9 12 01 00 00	 jmp	 $L201202
$L201204:

; 714  : 						&& _Color(_Left(_Pnode)) == _Black)

  00633	8b 45 e8	 mov	 eax, DWORD PTR __Pnode$[ebp]
  00636	50		 push	 eax
  00637	e8 00 00 00 00	 call	 ?_Right@?$_Tree@V?$_Tmap_traits@PAUHWND__@@UCWndData@@U?$less@PAUHWND__@@@std@@V?$allocator@U?$pair@QAUHWND__@@UCWndData@@@std@@@4@$0A@@std@@@std@@KAAAPAU_Node@?$_Tree_nod@V?$_Tmap_traits@PAUHWND__@@UCWndData@@U?$less@PAUHWND__@@@std@@V?$allocator@U?$pair@QAUHWND__@@UCWndData@@@std@@@4@$0A@@std@@@2@PAU342@@Z ; std::_Tree<std::_Tmap_traits<HWND__ *,CWndData,std::less<HWND__ *>,std::allocator<std::pair<HWND__ * const,CWndData> >,0> >::_Right
  0063c	83 c4 04	 add	 esp, 4
  0063f	8b 08		 mov	 ecx, DWORD PTR [eax]
  00641	51		 push	 ecx
  00642	e8 00 00 00 00	 call	 ?_Color@?$_Tree@V?$_Tmap_traits@PAUHWND__@@UCWndData@@U?$less@PAUHWND__@@@std@@V?$allocator@U?$pair@QAUHWND__@@UCWndData@@@std@@@4@$0A@@std@@@std@@KAAADPAU_Node@?$_Tree_nod@V?$_Tmap_traits@PAUHWND__@@UCWndData@@U?$less@PAUHWND__@@@std@@V?$allocator@U?$pair@QAUHWND__@@UCWndData@@@std@@@4@$0A@@std@@@2@@Z ; std::_Tree<std::_Tmap_traits<HWND__ *,CWndData,std::less<HWND__ *>,std::allocator<std::pair<HWND__ * const,CWndData> >,0> >::_Color
  00647	83 c4 04	 add	 esp, 4
  0064a	0f be 10	 movsx	 edx, BYTE PTR [eax]
  0064d	83 fa 01	 cmp	 edx, 1
  00650	75 39		 jne	 SHORT $L201206
  00652	8b 45 e8	 mov	 eax, DWORD PTR __Pnode$[ebp]
  00655	50		 push	 eax
  00656	e8 00 00 00 00	 call	 ?_Left@?$_Tree@V?$_Tmap_traits@PAUHWND__@@UCWndData@@U?$less@PAUHWND__@@@std@@V?$allocator@U?$pair@QAUHWND__@@UCWndData@@@std@@@4@$0A@@std@@@std@@KAAAPAU_Node@?$_Tree_nod@V?$_Tmap_traits@PAUHWND__@@UCWndData@@U?$less@PAUHWND__@@@std@@V?$allocator@U?$pair@QAUHWND__@@UCWndData@@@std@@@4@$0A@@std@@@2@PAU342@@Z ; std::_Tree<std::_Tmap_traits<HWND__ *,CWndData,std::less<HWND__ *>,std::allocator<std::pair<HWND__ * const,CWndData> >,0> >::_Left
  0065b	83 c4 04	 add	 esp, 4
  0065e	8b 08		 mov	 ecx, DWORD PTR [eax]
  00660	51		 push	 ecx
  00661	e8 00 00 00 00	 call	 ?_Color@?$_Tree@V?$_Tmap_traits@PAUHWND__@@UCWndData@@U?$less@PAUHWND__@@@std@@V?$allocator@U?$pair@QAUHWND__@@UCWndData@@@std@@@4@$0A@@std@@@std@@KAAADPAU_Node@?$_Tree_nod@V?$_Tmap_traits@PAUHWND__@@UCWndData@@U?$less@PAUHWND__@@@std@@V?$allocator@U?$pair@QAUHWND__@@UCWndData@@@std@@@4@$0A@@std@@@2@@Z ; std::_Tree<std::_Tmap_traits<HWND__ *,CWndData,std::less<HWND__ *>,std::allocator<std::pair<HWND__ * const,CWndData> >,0> >::_Color
  00666	83 c4 04	 add	 esp, 4
  00669	0f be 10	 movsx	 edx, BYTE PTR [eax]
  0066c	83 fa 01	 cmp	 edx, 1
  0066f	75 1a		 jne	 SHORT $L201206

; 715  : 						{	// redden left subtree with black children
; 716  : 						_Color(_Pnode) = _Red;

  00671	8b 45 e8	 mov	 eax, DWORD PTR __Pnode$[ebp]
  00674	50		 push	 eax
  00675	e8 00 00 00 00	 call	 ?_Color@?$_Tree@V?$_Tmap_traits@PAUHWND__@@UCWndData@@U?$less@PAUHWND__@@@std@@V?$allocator@U?$pair@QAUHWND__@@UCWndData@@@std@@@4@$0A@@std@@@std@@KAAADPAU_Node@?$_Tree_nod@V?$_Tmap_traits@PAUHWND__@@UCWndData@@U?$less@PAUHWND__@@@std@@V?$allocator@U?$pair@QAUHWND__@@UCWndData@@@std@@@4@$0A@@std@@@2@@Z ; std::_Tree<std::_Tmap_traits<HWND__ *,CWndData,std::less<HWND__ *>,std::allocator<std::pair<HWND__ * const,CWndData> >,0> >::_Color
  0067a	83 c4 04	 add	 esp, 4
  0067d	c6 00 00	 mov	 BYTE PTR [eax], 0

; 717  : 						_Fixnode = _Fixnodeparent;

  00680	8b 4d e4	 mov	 ecx, DWORD PTR __Fixnodeparent$[ebp]
  00683	89 4d ec	 mov	 DWORD PTR __Fixnode$[ebp], ecx

; 718  : 						}
; 719  : 					else

  00686	e9 ba 00 00 00	 jmp	 $L201202
$L201206:

; 720  : 						{	// must rearrange left subtree
; 721  : 						if (_Color(_Left(_Pnode)) == _Black)

  0068b	8b 55 e8	 mov	 edx, DWORD PTR __Pnode$[ebp]
  0068e	52		 push	 edx
  0068f	e8 00 00 00 00	 call	 ?_Left@?$_Tree@V?$_Tmap_traits@PAUHWND__@@UCWndData@@U?$less@PAUHWND__@@@std@@V?$allocator@U?$pair@QAUHWND__@@UCWndData@@@std@@@4@$0A@@std@@@std@@KAAAPAU_Node@?$_Tree_nod@V?$_Tmap_traits@PAUHWND__@@UCWndData@@U?$less@PAUHWND__@@@std@@V?$allocator@U?$pair@QAUHWND__@@UCWndData@@@std@@@4@$0A@@std@@@2@PAU342@@Z ; std::_Tree<std::_Tmap_traits<HWND__ *,CWndData,std::less<HWND__ *>,std::allocator<std::pair<HWND__ * const,CWndData> >,0> >::_Left
  00694	83 c4 04	 add	 esp, 4
  00697	8b 00		 mov	 eax, DWORD PTR [eax]
  00699	50		 push	 eax
  0069a	e8 00 00 00 00	 call	 ?_Color@?$_Tree@V?$_Tmap_traits@PAUHWND__@@UCWndData@@U?$less@PAUHWND__@@@std@@V?$allocator@U?$pair@QAUHWND__@@UCWndData@@@std@@@4@$0A@@std@@@std@@KAAADPAU_Node@?$_Tree_nod@V?$_Tmap_traits@PAUHWND__@@UCWndData@@U?$less@PAUHWND__@@@std@@V?$allocator@U?$pair@QAUHWND__@@UCWndData@@@std@@@4@$0A@@std@@@2@@Z ; std::_Tree<std::_Tmap_traits<HWND__ *,CWndData,std::less<HWND__ *>,std::allocator<std::pair<HWND__ * const,CWndData> >,0> >::_Color
  0069f	83 c4 04	 add	 esp, 4
  006a2	0f be 08	 movsx	 ecx, BYTE PTR [eax]
  006a5	83 f9 01	 cmp	 ecx, 1
  006a8	75 46		 jne	 SHORT $L201208

; 722  : 							{	// rotate red up from right sub-subtree
; 723  : 							_Color(_Right(_Pnode)) = _Black;

  006aa	8b 55 e8	 mov	 edx, DWORD PTR __Pnode$[ebp]
  006ad	52		 push	 edx
  006ae	e8 00 00 00 00	 call	 ?_Right@?$_Tree@V?$_Tmap_traits@PAUHWND__@@UCWndData@@U?$less@PAUHWND__@@@std@@V?$allocator@U?$pair@QAUHWND__@@UCWndData@@@std@@@4@$0A@@std@@@std@@KAAAPAU_Node@?$_Tree_nod@V?$_Tmap_traits@PAUHWND__@@UCWndData@@U?$less@PAUHWND__@@@std@@V?$allocator@U?$pair@QAUHWND__@@UCWndData@@@std@@@4@$0A@@std@@@2@PAU342@@Z ; std::_Tree<std::_Tmap_traits<HWND__ *,CWndData,std::less<HWND__ *>,std::allocator<std::pair<HWND__ * const,CWndData> >,0> >::_Right
  006b3	83 c4 04	 add	 esp, 4
  006b6	8b 00		 mov	 eax, DWORD PTR [eax]
  006b8	50		 push	 eax
  006b9	e8 00 00 00 00	 call	 ?_Color@?$_Tree@V?$_Tmap_traits@PAUHWND__@@UCWndData@@U?$less@PAUHWND__@@@std@@V?$allocator@U?$pair@QAUHWND__@@UCWndData@@@std@@@4@$0A@@std@@@std@@KAAADPAU_Node@?$_Tree_nod@V?$_Tmap_traits@PAUHWND__@@UCWndData@@U?$less@PAUHWND__@@@std@@V?$allocator@U?$pair@QAUHWND__@@UCWndData@@@std@@@4@$0A@@std@@@2@@Z ; std::_Tree<std::_Tmap_traits<HWND__ *,CWndData,std::less<HWND__ *>,std::allocator<std::pair<HWND__ * const,CWndData> >,0> >::_Color
  006be	83 c4 04	 add	 esp, 4
  006c1	c6 00 01	 mov	 BYTE PTR [eax], 1

; 724  : 							_Color(_Pnode) = _Red;

  006c4	8b 4d e8	 mov	 ecx, DWORD PTR __Pnode$[ebp]
  006c7	51		 push	 ecx
  006c8	e8 00 00 00 00	 call	 ?_Color@?$_Tree@V?$_Tmap_traits@PAUHWND__@@UCWndData@@U?$less@PAUHWND__@@@std@@V?$allocator@U?$pair@QAUHWND__@@UCWndData@@@std@@@4@$0A@@std@@@std@@KAAADPAU_Node@?$_Tree_nod@V?$_Tmap_traits@PAUHWND__@@UCWndData@@U?$less@PAUHWND__@@@std@@V?$allocator@U?$pair@QAUHWND__@@UCWndData@@@std@@@4@$0A@@std@@@2@@Z ; std::_Tree<std::_Tmap_traits<HWND__ *,CWndData,std::less<HWND__ *>,std::allocator<std::pair<HWND__ * const,CWndData> >,0> >::_Color
  006cd	83 c4 04	 add	 esp, 4
  006d0	c6 00 00	 mov	 BYTE PTR [eax], 0

; 725  : 							_Lrotate(_Pnode);

  006d3	8b 55 e8	 mov	 edx, DWORD PTR __Pnode$[ebp]
  006d6	52		 push	 edx
  006d7	8b 4d 9c	 mov	 ecx, DWORD PTR _this$[ebp]
  006da	e8 00 00 00 00	 call	 ?_Lrotate@?$_Tree@V?$_Tmap_traits@PAUHWND__@@UCWndData@@U?$less@PAUHWND__@@@std@@V?$allocator@U?$pair@QAUHWND__@@UCWndData@@@std@@@4@$0A@@std@@@std@@IAEXPAU_Node@?$_Tree_nod@V?$_Tmap_traits@PAUHWND__@@UCWndData@@U?$less@PAUHWND__@@@std@@V?$allocator@U?$pair@QAUHWND__@@UCWndData@@@std@@@4@$0A@@std@@@2@@Z ; std::_Tree<std::_Tmap_traits<HWND__ *,CWndData,std::less<HWND__ *>,std::allocator<std::pair<HWND__ * const,CWndData> >,0> >::_Lrotate

; 726  : 							_Pnode = _Left(_Fixnodeparent);

  006df	8b 45 e4	 mov	 eax, DWORD PTR __Fixnodeparent$[ebp]
  006e2	50		 push	 eax
  006e3	e8 00 00 00 00	 call	 ?_Left@?$_Tree@V?$_Tmap_traits@PAUHWND__@@UCWndData@@U?$less@PAUHWND__@@@std@@V?$allocator@U?$pair@QAUHWND__@@UCWndData@@@std@@@4@$0A@@std@@@std@@KAAAPAU_Node@?$_Tree_nod@V?$_Tmap_traits@PAUHWND__@@UCWndData@@U?$less@PAUHWND__@@@std@@V?$allocator@U?$pair@QAUHWND__@@UCWndData@@@std@@@4@$0A@@std@@@2@PAU342@@Z ; std::_Tree<std::_Tmap_traits<HWND__ *,CWndData,std::less<HWND__ *>,std::allocator<std::pair<HWND__ * const,CWndData> >,0> >::_Left
  006e8	83 c4 04	 add	 esp, 4
  006eb	8b 08		 mov	 ecx, DWORD PTR [eax]
  006ed	89 4d e8	 mov	 DWORD PTR __Pnode$[ebp], ecx
$L201208:

; 727  : 							}
; 728  : 
; 729  : 						_Color(_Pnode) = _Color(_Fixnodeparent);

  006f0	8b 55 e4	 mov	 edx, DWORD PTR __Fixnodeparent$[ebp]
  006f3	52		 push	 edx
  006f4	e8 00 00 00 00	 call	 ?_Color@?$_Tree@V?$_Tmap_traits@PAUHWND__@@UCWndData@@U?$less@PAUHWND__@@@std@@V?$allocator@U?$pair@QAUHWND__@@UCWndData@@@std@@@4@$0A@@std@@@std@@KAAADPAU_Node@?$_Tree_nod@V?$_Tmap_traits@PAUHWND__@@UCWndData@@U?$less@PAUHWND__@@@std@@V?$allocator@U?$pair@QAUHWND__@@UCWndData@@@std@@@4@$0A@@std@@@2@@Z ; std::_Tree<std::_Tmap_traits<HWND__ *,CWndData,std::less<HWND__ *>,std::allocator<std::pair<HWND__ * const,CWndData> >,0> >::_Color
  006f9	83 c4 04	 add	 esp, 4
  006fc	8b f0		 mov	 esi, eax
  006fe	8b 45 e8	 mov	 eax, DWORD PTR __Pnode$[ebp]
  00701	50		 push	 eax
  00702	e8 00 00 00 00	 call	 ?_Color@?$_Tree@V?$_Tmap_traits@PAUHWND__@@UCWndData@@U?$less@PAUHWND__@@@std@@V?$allocator@U?$pair@QAUHWND__@@UCWndData@@@std@@@4@$0A@@std@@@std@@KAAADPAU_Node@?$_Tree_nod@V?$_Tmap_traits@PAUHWND__@@UCWndData@@U?$less@PAUHWND__@@@std@@V?$allocator@U?$pair@QAUHWND__@@UCWndData@@@std@@@4@$0A@@std@@@2@@Z ; std::_Tree<std::_Tmap_traits<HWND__ *,CWndData,std::less<HWND__ *>,std::allocator<std::pair<HWND__ * const,CWndData> >,0> >::_Color
  00707	83 c4 04	 add	 esp, 4
  0070a	8a 0e		 mov	 cl, BYTE PTR [esi]
  0070c	88 08		 mov	 BYTE PTR [eax], cl

; 730  : 						_Color(_Fixnodeparent) = _Black;

  0070e	8b 55 e4	 mov	 edx, DWORD PTR __Fixnodeparent$[ebp]
  00711	52		 push	 edx
  00712	e8 00 00 00 00	 call	 ?_Color@?$_Tree@V?$_Tmap_traits@PAUHWND__@@UCWndData@@U?$less@PAUHWND__@@@std@@V?$allocator@U?$pair@QAUHWND__@@UCWndData@@@std@@@4@$0A@@std@@@std@@KAAADPAU_Node@?$_Tree_nod@V?$_Tmap_traits@PAUHWND__@@UCWndData@@U?$less@PAUHWND__@@@std@@V?$allocator@U?$pair@QAUHWND__@@UCWndData@@@std@@@4@$0A@@std@@@2@@Z ; std::_Tree<std::_Tmap_traits<HWND__ *,CWndData,std::less<HWND__ *>,std::allocator<std::pair<HWND__ * const,CWndData> >,0> >::_Color
  00717	83 c4 04	 add	 esp, 4
  0071a	c6 00 01	 mov	 BYTE PTR [eax], 1

; 731  : 						_Color(_Left(_Pnode)) = _Black;

  0071d	8b 45 e8	 mov	 eax, DWORD PTR __Pnode$[ebp]
  00720	50		 push	 eax
  00721	e8 00 00 00 00	 call	 ?_Left@?$_Tree@V?$_Tmap_traits@PAUHWND__@@UCWndData@@U?$less@PAUHWND__@@@std@@V?$allocator@U?$pair@QAUHWND__@@UCWndData@@@std@@@4@$0A@@std@@@std@@KAAAPAU_Node@?$_Tree_nod@V?$_Tmap_traits@PAUHWND__@@UCWndData@@U?$less@PAUHWND__@@@std@@V?$allocator@U?$pair@QAUHWND__@@UCWndData@@@std@@@4@$0A@@std@@@2@PAU342@@Z ; std::_Tree<std::_Tmap_traits<HWND__ *,CWndData,std::less<HWND__ *>,std::allocator<std::pair<HWND__ * const,CWndData> >,0> >::_Left
  00726	83 c4 04	 add	 esp, 4
  00729	8b 08		 mov	 ecx, DWORD PTR [eax]
  0072b	51		 push	 ecx
  0072c	e8 00 00 00 00	 call	 ?_Color@?$_Tree@V?$_Tmap_traits@PAUHWND__@@UCWndData@@U?$less@PAUHWND__@@@std@@V?$allocator@U?$pair@QAUHWND__@@UCWndData@@@std@@@4@$0A@@std@@@std@@KAAADPAU_Node@?$_Tree_nod@V?$_Tmap_traits@PAUHWND__@@UCWndData@@U?$less@PAUHWND__@@@std@@V?$allocator@U?$pair@QAUHWND__@@UCWndData@@@std@@@4@$0A@@std@@@2@@Z ; std::_Tree<std::_Tmap_traits<HWND__ *,CWndData,std::less<HWND__ *>,std::allocator<std::pair<HWND__ * const,CWndData> >,0> >::_Color
  00731	83 c4 04	 add	 esp, 4
  00734	c6 00 01	 mov	 BYTE PTR [eax], 1

; 732  : 						_Rrotate(_Fixnodeparent);

  00737	8b 55 e4	 mov	 edx, DWORD PTR __Fixnodeparent$[ebp]
  0073a	52		 push	 edx
  0073b	8b 4d 9c	 mov	 ecx, DWORD PTR _this$[ebp]
  0073e	e8 00 00 00 00	 call	 ?_Rrotate@?$_Tree@V?$_Tmap_traits@PAUHWND__@@UCWndData@@U?$less@PAUHWND__@@@std@@V?$allocator@U?$pair@QAUHWND__@@UCWndData@@@std@@@4@$0A@@std@@@std@@IAEXPAU_Node@?$_Tree_nod@V?$_Tmap_traits@PAUHWND__@@UCWndData@@U?$less@PAUHWND__@@@std@@V?$allocator@U?$pair@QAUHWND__@@UCWndData@@@std@@@4@$0A@@std@@@2@@Z ; std::_Tree<std::_Tmap_traits<HWND__ *,CWndData,std::less<HWND__ *>,std::allocator<std::pair<HWND__ * const,CWndData> >,0> >::_Rrotate

; 733  : 						break;	// tree now recolored/rebalanced

  00743	eb 05		 jmp	 SHORT $L201194
$L201202:

; 734  : 						}
; 735  : 					}

  00745	e9 82 fc ff ff	 jmp	 $L201193
$L201194:

; 736  : 
; 737  : 			_Color(_Fixnode) = _Black;	// ensure stopping node is black

  0074a	8b 45 ec	 mov	 eax, DWORD PTR __Fixnode$[ebp]
  0074d	50		 push	 eax
  0074e	e8 00 00 00 00	 call	 ?_Color@?$_Tree@V?$_Tmap_traits@PAUHWND__@@UCWndData@@U?$less@PAUHWND__@@@std@@V?$allocator@U?$pair@QAUHWND__@@UCWndData@@@std@@@4@$0A@@std@@@std@@KAAADPAU_Node@?$_Tree_nod@V?$_Tmap_traits@PAUHWND__@@UCWndData@@U?$less@PAUHWND__@@@std@@V?$allocator@U?$pair@QAUHWND__@@UCWndData@@@std@@@4@$0A@@std@@@2@@Z ; std::_Tree<std::_Tmap_traits<HWND__ *,CWndData,std::less<HWND__ *>,std::allocator<std::pair<HWND__ * const,CWndData> >,0> >::_Color
  00753	83 c4 04	 add	 esp, 4
  00756	c6 00 01	 mov	 BYTE PTR [eax], 1
$L201191:

; 738  : 			}
; 739  : 
; 740  : 		this->_Alnod.destroy(_Erasednode);	// destroy, free erased node

  00759	8b 4d f0	 mov	 ecx, DWORD PTR __Erasednode$[ebp]
  0075c	51		 push	 ecx
  0075d	8b 4d 9c	 mov	 ecx, DWORD PTR _this$[ebp]
  00760	83 c1 01	 add	 ecx, 1
  00763	e8 00 00 00 00	 call	 ?destroy@?$allocator@U_Node@?$_Tree_nod@V?$_Tmap_traits@PAUHWND__@@UCWndData@@U?$less@PAUHWND__@@@std@@V?$allocator@U?$pair@QAUHWND__@@UCWndData@@@std@@@4@$0A@@std@@@std@@@std@@QAEXPAU_Node@?$_Tree_nod@V?$_Tmap_traits@PAUHWND__@@UCWndData@@U?$less@PAUHWND__@@@std@@V?$allocator@U?$pair@QAUHWND__@@UCWndData@@@std@@@4@$0A@@std@@@2@@Z ; std::allocator<std::_Tree_nod<std::_Tmap_traits<HWND__ *,CWndData,std::less<HWND__ *>,std::allocator<std::pair<HWND__ * const,CWndData> >,0> >::_Node>::destroy

; 741  : 		this->_Alnod.deallocate(_Erasednode, 1);

  00768	6a 01		 push	 1
  0076a	8b 55 f0	 mov	 edx, DWORD PTR __Erasednode$[ebp]
  0076d	52		 push	 edx
  0076e	8b 4d 9c	 mov	 ecx, DWORD PTR _this$[ebp]
  00771	83 c1 01	 add	 ecx, 1
  00774	e8 00 00 00 00	 call	 ?deallocate@?$allocator@U_Node@?$_Tree_nod@V?$_Tmap_traits@PAUHWND__@@UCWndData@@U?$less@PAUHWND__@@@std@@V?$allocator@U?$pair@QAUHWND__@@UCWndData@@@std@@@4@$0A@@std@@@std@@@std@@QAEXPAU_Node@?$_Tree_nod@V?$_Tmap_traits@PAUHWND__@@UCWndData@@U?$less@PAUHWND__@@@std@@V?$allocator@U?$pair@QAUHWND__@@UCWndData@@@std@@@4@$0A@@std@@@2@I@Z ; std::allocator<std::_Tree_nod<std::_Tmap_traits<HWND__ *,CWndData,std::less<HWND__ *>,std::allocator<std::pair<HWND__ * const,CWndData> >,0> >::_Node>::deallocate

; 742  : 
; 743  : 		if (0 < _Mysize)

  00779	8b 45 9c	 mov	 eax, DWORD PTR _this$[ebp]
  0077c	83 78 08 00	 cmp	 DWORD PTR [eax+8], 0
  00780	76 0f		 jbe	 SHORT $L201209

; 744  : 			--_Mysize;

  00782	8b 4d 9c	 mov	 ecx, DWORD PTR _this$[ebp]
  00785	8b 51 08	 mov	 edx, DWORD PTR [ecx+8]
  00788	83 ea 01	 sub	 edx, 1
  0078b	8b 45 9c	 mov	 eax, DWORD PTR _this$[ebp]
  0078e	89 50 08	 mov	 DWORD PTR [eax+8], edx
$L201209:

; 745  : 
; 746  : 		return (_Where);	// return successor iterator

  00791	8b 4d 08	 mov	 ecx, DWORD PTR ___$ReturnUdt$[ebp]
  00794	8b 55 0c	 mov	 edx, DWORD PTR __Where$[ebp]
  00797	89 11		 mov	 DWORD PTR [ecx], edx
  00799	8b 45 08	 mov	 eax, DWORD PTR ___$ReturnUdt$[ebp]
$L202901:

; 747  : 		}

  0079c	8b 4d f4	 mov	 ecx, DWORD PTR __$EHRec$[ebp]
  0079f	64 89 0d 00 00
	00 00		 mov	 DWORD PTR fs:__except_list, ecx
  007a6	5e		 pop	 esi
  007a7	8b e5		 mov	 esp, ebp
  007a9	5d		 pop	 ebp
  007aa	c2 08 00	 ret	 8
_TEXT	ENDS
;	COMDAT text$x
text$x	SEGMENT
$L202908:
  00000	8d 4d a0	 lea	 ecx, DWORD PTR $T202903[ebp]
  00003	ff 25 00 00 00
	00		 jmp	 DWORD PTR __imp_??1?$basic_string@DU?$char_traits@D@std@@V?$allocator@D@2@@std@@QAE@XZ
__ehhandler$?erase@?$_Tree@V?$_Tmap_traits@PAUHWND__@@UCWndData@@U?$less@PAUHWND__@@@std@@V?$allocator@U?$pair@QAUHWND__@@UCWndData@@@std@@@4@$0A@@std@@@std@@QAE?AViterator@12@V312@@Z:
  00009	b8 00 00 00 00	 mov	 eax, OFFSET FLAT:$T202910
  0000e	e9 00 00 00 00	 jmp	 ___CxxFrameHandler
text$x	ENDS
?erase@?$_Tree@V?$_Tmap_traits@PAUHWND__@@UCWndData@@U?$less@PAUHWND__@@@std@@V?$allocator@U?$pair@QAUHWND__@@UCWndData@@@std@@@4@$0A@@std@@@std@@QAE?AViterator@12@V312@@Z ENDP ; std::_Tree<std::_Tmap_traits<HWND__ *,CWndData,std::less<HWND__ *>,std::allocator<std::pair<HWND__ * const,CWndData> >,0> >::erase
PUBLIC	?_Erase@?$_Tree@V?$_Tmap_traits@PAUHWND__@@UCWndData@@U?$less@PAUHWND__@@@std@@V?$allocator@U?$pair@QAUHWND__@@UCWndData@@@std@@@4@$0A@@std@@@std@@IAEXPAU_Node@?$_Tree_nod@V?$_Tmap_traits@PAUHWND__@@UCWndData@@U?$less@PAUHWND__@@@std@@V?$allocator@U?$pair@QAUHWND__@@UCWndData@@@std@@@4@$0A@@std@@@2@@Z ; std::_Tree<std::_Tmap_traits<HWND__ *,CWndData,std::less<HWND__ *>,std::allocator<std::pair<HWND__ * const,CWndData> >,0> >::_Erase
; Function compile flags: /Odt
;	COMDAT ?clear@?$_Tree@V?$_Tmap_traits@PAUHWND__@@UCWndData@@U?$less@PAUHWND__@@@std@@V?$allocator@U?$pair@QAUHWND__@@UCWndData@@@std@@@4@$0A@@std@@@std@@QAEXXZ
_TEXT	SEGMENT
_this$ = -4						; size = 4
?clear@?$_Tree@V?$_Tmap_traits@PAUHWND__@@UCWndData@@U?$less@PAUHWND__@@@std@@V?$allocator@U?$pair@QAUHWND__@@UCWndData@@@std@@@4@$0A@@std@@@std@@QAEXXZ PROC NEAR ; std::_Tree<std::_Tmap_traits<HWND__ *,CWndData,std::less<HWND__ *>,std::allocator<std::pair<HWND__ * const,CWndData> >,0> >::clear, COMDAT
; _this$ = ecx

; 780  : 		{	// erase all

  00000	55		 push	 ebp
  00001	8b ec		 mov	 ebp, esp
  00003	51		 push	 ecx
  00004	89 4d fc	 mov	 DWORD PTR _this$[ebp], ecx

; 781  : 		_Erase(_Root());

  00007	8b 4d fc	 mov	 ecx, DWORD PTR _this$[ebp]
  0000a	e8 00 00 00 00	 call	 ?_Root@?$_Tree@V?$_Tmap_traits@PAUHWND__@@UCWndData@@U?$less@PAUHWND__@@@std@@V?$allocator@U?$pair@QAUHWND__@@UCWndData@@@std@@@4@$0A@@std@@@std@@IAEAAPAU_Node@?$_Tree_nod@V?$_Tmap_traits@PAUHWND__@@UCWndData@@U?$less@PAUHWND__@@@std@@V?$allocator@U?$pair@QAUHWND__@@UCWndData@@@std@@@4@$0A@@std@@@2@XZ ; std::_Tree<std::_Tmap_traits<HWND__ *,CWndData,std::less<HWND__ *>,std::allocator<std::pair<HWND__ * const,CWndData> >,0> >::_Root
  0000f	8b 00		 mov	 eax, DWORD PTR [eax]
  00011	50		 push	 eax
  00012	8b 4d fc	 mov	 ecx, DWORD PTR _this$[ebp]
  00015	e8 00 00 00 00	 call	 ?_Erase@?$_Tree@V?$_Tmap_traits@PAUHWND__@@UCWndData@@U?$less@PAUHWND__@@@std@@V?$allocator@U?$pair@QAUHWND__@@UCWndData@@@std@@@4@$0A@@std@@@std@@IAEXPAU_Node@?$_Tree_nod@V?$_Tmap_traits@PAUHWND__@@UCWndData@@U?$less@PAUHWND__@@@std@@V?$allocator@U?$pair@QAUHWND__@@UCWndData@@@std@@@4@$0A@@std@@@2@@Z ; std::_Tree<std::_Tmap_traits<HWND__ *,CWndData,std::less<HWND__ *>,std::allocator<std::pair<HWND__ * const,CWndData> >,0> >::_Erase

; 782  : 		_Root() = _Myhead, _Mysize = 0;

  0001a	8b 4d fc	 mov	 ecx, DWORD PTR _this$[ebp]
  0001d	e8 00 00 00 00	 call	 ?_Root@?$_Tree@V?$_Tmap_traits@PAUHWND__@@UCWndData@@U?$less@PAUHWND__@@@std@@V?$allocator@U?$pair@QAUHWND__@@UCWndData@@@std@@@4@$0A@@std@@@std@@IAEAAPAU_Node@?$_Tree_nod@V?$_Tmap_traits@PAUHWND__@@UCWndData@@U?$less@PAUHWND__@@@std@@V?$allocator@U?$pair@QAUHWND__@@UCWndData@@@std@@@4@$0A@@std@@@2@XZ ; std::_Tree<std::_Tmap_traits<HWND__ *,CWndData,std::less<HWND__ *>,std::allocator<std::pair<HWND__ * const,CWndData> >,0> >::_Root
  00022	8b 4d fc	 mov	 ecx, DWORD PTR _this$[ebp]
  00025	8b 51 04	 mov	 edx, DWORD PTR [ecx+4]
  00028	89 10		 mov	 DWORD PTR [eax], edx
  0002a	8b 45 fc	 mov	 eax, DWORD PTR _this$[ebp]
  0002d	c7 40 08 00 00
	00 00		 mov	 DWORD PTR [eax+8], 0

; 783  : 		_Lmost() = _Myhead, _Rmost() = _Myhead;

  00034	8b 4d fc	 mov	 ecx, DWORD PTR _this$[ebp]
  00037	e8 00 00 00 00	 call	 ?_Lmost@?$_Tree@V?$_Tmap_traits@PAUHWND__@@UCWndData@@U?$less@PAUHWND__@@@std@@V?$allocator@U?$pair@QAUHWND__@@UCWndData@@@std@@@4@$0A@@std@@@std@@IAEAAPAU_Node@?$_Tree_nod@V?$_Tmap_traits@PAUHWND__@@UCWndData@@U?$less@PAUHWND__@@@std@@V?$allocator@U?$pair@QAUHWND__@@UCWndData@@@std@@@4@$0A@@std@@@2@XZ ; std::_Tree<std::_Tmap_traits<HWND__ *,CWndData,std::less<HWND__ *>,std::allocator<std::pair<HWND__ * const,CWndData> >,0> >::_Lmost
  0003c	8b 4d fc	 mov	 ecx, DWORD PTR _this$[ebp]
  0003f	8b 51 04	 mov	 edx, DWORD PTR [ecx+4]
  00042	89 10		 mov	 DWORD PTR [eax], edx
  00044	8b 4d fc	 mov	 ecx, DWORD PTR _this$[ebp]
  00047	e8 00 00 00 00	 call	 ?_Rmost@?$_Tree@V?$_Tmap_traits@PAUHWND__@@UCWndData@@U?$less@PAUHWND__@@@std@@V?$allocator@U?$pair@QAUHWND__@@UCWndData@@@std@@@4@$0A@@std@@@std@@IAEAAPAU_Node@?$_Tree_nod@V?$_Tmap_traits@PAUHWND__@@UCWndData@@U?$less@PAUHWND__@@@std@@V?$allocator@U?$pair@QAUHWND__@@UCWndData@@@std@@@4@$0A@@std@@@2@XZ ; std::_Tree<std::_Tmap_traits<HWND__ *,CWndData,std::less<HWND__ *>,std::allocator<std::pair<HWND__ * const,CWndData> >,0> >::_Rmost
  0004c	8b 4d fc	 mov	 ecx, DWORD PTR _this$[ebp]
  0004f	8b 51 04	 mov	 edx, DWORD PTR [ecx+4]
  00052	89 10		 mov	 DWORD PTR [eax], edx

; 784  : 		}

  00054	8b e5		 mov	 esp, ebp
  00056	5d		 pop	 ebp
  00057	c3		 ret	 0
?clear@?$_Tree@V?$_Tmap_traits@PAUHWND__@@UCWndData@@U?$less@PAUHWND__@@@std@@V?$allocator@U?$pair@QAUHWND__@@UCWndData@@@std@@@4@$0A@@std@@@std@@QAEXXZ ENDP ; std::_Tree<std::_Tmap_traits<HWND__ *,CWndData,std::less<HWND__ *>,std::allocator<std::pair<HWND__ * const,CWndData> >,0> >::clear
; Function compile flags: /Odt
_TEXT	ENDS
;	COMDAT ?_Lrotate@?$_Tree@V?$_Tmap_traits@PAUHWND__@@UCWndData@@U?$less@PAUHWND__@@@std@@V?$allocator@U?$pair@QAUHWND__@@UCWndData@@@std@@@4@$0A@@std@@@std@@IAEXPAU_Node@?$_Tree_nod@V?$_Tmap_traits@PAUHWND__@@UCWndData@@U?$less@PAUHWND__@@@std@@V?$allocator@U?$pair@QAUHWND__@@UCWndData@@@std@@@4@$0A@@std@@@2@@Z
_TEXT	SEGMENT
_this$ = -8						; size = 4
__Pnode$ = -4						; size = 4
__Wherenode$ = 8					; size = 4
?_Lrotate@?$_Tree@V?$_Tmap_traits@PAUHWND__@@UCWndData@@U?$less@PAUHWND__@@@std@@V?$allocator@U?$pair@QAUHWND__@@UCWndData@@@std@@@4@$0A@@std@@@std@@IAEXPAU_Node@?$_Tree_nod@V?$_Tmap_traits@PAUHWND__@@UCWndData@@U?$less@PAUHWND__@@@std@@V?$allocator@U?$pair@QAUHWND__@@UCWndData@@@std@@@4@$0A@@std@@@2@@Z PROC NEAR ; std::_Tree<std::_Tmap_traits<HWND__ *,CWndData,std::less<HWND__ *>,std::allocator<std::pair<HWND__ * const,CWndData> >,0> >::_Lrotate, COMDAT
; _this$ = ecx

; 1014 : 		{	// promote right node to root of subtree

  00000	55		 push	 ebp
  00001	8b ec		 mov	 ebp, esp
  00003	83 ec 08	 sub	 esp, 8
  00006	56		 push	 esi
  00007	89 4d f8	 mov	 DWORD PTR _this$[ebp], ecx

; 1015 : 		_Nodeptr _Pnode = _Right(_Wherenode);

  0000a	8b 45 08	 mov	 eax, DWORD PTR __Wherenode$[ebp]
  0000d	50		 push	 eax
  0000e	e8 00 00 00 00	 call	 ?_Right@?$_Tree@V?$_Tmap_traits@PAUHWND__@@UCWndData@@U?$less@PAUHWND__@@@std@@V?$allocator@U?$pair@QAUHWND__@@UCWndData@@@std@@@4@$0A@@std@@@std@@KAAAPAU_Node@?$_Tree_nod@V?$_Tmap_traits@PAUHWND__@@UCWndData@@U?$less@PAUHWND__@@@std@@V?$allocator@U?$pair@QAUHWND__@@UCWndData@@@std@@@4@$0A@@std@@@2@PAU342@@Z ; std::_Tree<std::_Tmap_traits<HWND__ *,CWndData,std::less<HWND__ *>,std::allocator<std::pair<HWND__ * const,CWndData> >,0> >::_Right
  00013	83 c4 04	 add	 esp, 4
  00016	8b 08		 mov	 ecx, DWORD PTR [eax]
  00018	89 4d fc	 mov	 DWORD PTR __Pnode$[ebp], ecx

; 1016 : 		_Right(_Wherenode) = _Left(_Pnode);

  0001b	8b 55 fc	 mov	 edx, DWORD PTR __Pnode$[ebp]
  0001e	52		 push	 edx
  0001f	e8 00 00 00 00	 call	 ?_Left@?$_Tree@V?$_Tmap_traits@PAUHWND__@@UCWndData@@U?$less@PAUHWND__@@@std@@V?$allocator@U?$pair@QAUHWND__@@UCWndData@@@std@@@4@$0A@@std@@@std@@KAAAPAU_Node@?$_Tree_nod@V?$_Tmap_traits@PAUHWND__@@UCWndData@@U?$less@PAUHWND__@@@std@@V?$allocator@U?$pair@QAUHWND__@@UCWndData@@@std@@@4@$0A@@std@@@2@PAU342@@Z ; std::_Tree<std::_Tmap_traits<HWND__ *,CWndData,std::less<HWND__ *>,std::allocator<std::pair<HWND__ * const,CWndData> >,0> >::_Left
  00024	83 c4 04	 add	 esp, 4
  00027	8b f0		 mov	 esi, eax
  00029	8b 45 08	 mov	 eax, DWORD PTR __Wherenode$[ebp]
  0002c	50		 push	 eax
  0002d	e8 00 00 00 00	 call	 ?_Right@?$_Tree@V?$_Tmap_traits@PAUHWND__@@UCWndData@@U?$less@PAUHWND__@@@std@@V?$allocator@U?$pair@QAUHWND__@@UCWndData@@@std@@@4@$0A@@std@@@std@@KAAAPAU_Node@?$_Tree_nod@V?$_Tmap_traits@PAUHWND__@@UCWndData@@U?$less@PAUHWND__@@@std@@V?$allocator@U?$pair@QAUHWND__@@UCWndData@@@std@@@4@$0A@@std@@@2@PAU342@@Z ; std::_Tree<std::_Tmap_traits<HWND__ *,CWndData,std::less<HWND__ *>,std::allocator<std::pair<HWND__ * const,CWndData> >,0> >::_Right
  00032	83 c4 04	 add	 esp, 4
  00035	8b 0e		 mov	 ecx, DWORD PTR [esi]
  00037	89 08		 mov	 DWORD PTR [eax], ecx

; 1017 : 
; 1018 : 		if (!_Isnil(_Left(_Pnode)))

  00039	8b 55 fc	 mov	 edx, DWORD PTR __Pnode$[ebp]
  0003c	52		 push	 edx
  0003d	e8 00 00 00 00	 call	 ?_Left@?$_Tree@V?$_Tmap_traits@PAUHWND__@@UCWndData@@U?$less@PAUHWND__@@@std@@V?$allocator@U?$pair@QAUHWND__@@UCWndData@@@std@@@4@$0A@@std@@@std@@KAAAPAU_Node@?$_Tree_nod@V?$_Tmap_traits@PAUHWND__@@UCWndData@@U?$less@PAUHWND__@@@std@@V?$allocator@U?$pair@QAUHWND__@@UCWndData@@@std@@@4@$0A@@std@@@2@PAU342@@Z ; std::_Tree<std::_Tmap_traits<HWND__ *,CWndData,std::less<HWND__ *>,std::allocator<std::pair<HWND__ * const,CWndData> >,0> >::_Left
  00042	83 c4 04	 add	 esp, 4
  00045	8b 00		 mov	 eax, DWORD PTR [eax]
  00047	50		 push	 eax
  00048	e8 00 00 00 00	 call	 ?_Isnil@?$_Tree@V?$_Tmap_traits@PAUHWND__@@UCWndData@@U?$less@PAUHWND__@@@std@@V?$allocator@U?$pair@QAUHWND__@@UCWndData@@@std@@@4@$0A@@std@@@std@@KAAADPAU_Node@?$_Tree_nod@V?$_Tmap_traits@PAUHWND__@@UCWndData@@U?$less@PAUHWND__@@@std@@V?$allocator@U?$pair@QAUHWND__@@UCWndData@@@std@@@4@$0A@@std@@@2@@Z ; std::_Tree<std::_Tmap_traits<HWND__ *,CWndData,std::less<HWND__ *>,std::allocator<std::pair<HWND__ * const,CWndData> >,0> >::_Isnil
  0004d	83 c4 04	 add	 esp, 4
  00050	0f be 08	 movsx	 ecx, BYTE PTR [eax]
  00053	85 c9		 test	 ecx, ecx
  00055	75 1c		 jne	 SHORT $L201215

; 1019 : 			_Parent(_Left(_Pnode)) = _Wherenode;

  00057	8b 55 fc	 mov	 edx, DWORD PTR __Pnode$[ebp]
  0005a	52		 push	 edx
  0005b	e8 00 00 00 00	 call	 ?_Left@?$_Tree@V?$_Tmap_traits@PAUHWND__@@UCWndData@@U?$less@PAUHWND__@@@std@@V?$allocator@U?$pair@QAUHWND__@@UCWndData@@@std@@@4@$0A@@std@@@std@@KAAAPAU_Node@?$_Tree_nod@V?$_Tmap_traits@PAUHWND__@@UCWndData@@U?$less@PAUHWND__@@@std@@V?$allocator@U?$pair@QAUHWND__@@UCWndData@@@std@@@4@$0A@@std@@@2@PAU342@@Z ; std::_Tree<std::_Tmap_traits<HWND__ *,CWndData,std::less<HWND__ *>,std::allocator<std::pair<HWND__ * const,CWndData> >,0> >::_Left
  00060	83 c4 04	 add	 esp, 4
  00063	8b 00		 mov	 eax, DWORD PTR [eax]
  00065	50		 push	 eax
  00066	e8 00 00 00 00	 call	 ?_Parent@?$_Tree@V?$_Tmap_traits@PAUHWND__@@UCWndData@@U?$less@PAUHWND__@@@std@@V?$allocator@U?$pair@QAUHWND__@@UCWndData@@@std@@@4@$0A@@std@@@std@@KAAAPAU_Node@?$_Tree_nod@V?$_Tmap_traits@PAUHWND__@@UCWndData@@U?$less@PAUHWND__@@@std@@V?$allocator@U?$pair@QAUHWND__@@UCWndData@@@std@@@4@$0A@@std@@@2@PAU342@@Z ; std::_Tree<std::_Tmap_traits<HWND__ *,CWndData,std::less<HWND__ *>,std::allocator<std::pair<HWND__ * const,CWndData> >,0> >::_Parent
  0006b	83 c4 04	 add	 esp, 4
  0006e	8b 4d 08	 mov	 ecx, DWORD PTR __Wherenode$[ebp]
  00071	89 08		 mov	 DWORD PTR [eax], ecx
$L201215:

; 1020 : 		_Parent(_Pnode) = _Parent(_Wherenode);

  00073	8b 55 08	 mov	 edx, DWORD PTR __Wherenode$[ebp]
  00076	52		 push	 edx
  00077	e8 00 00 00 00	 call	 ?_Parent@?$_Tree@V?$_Tmap_traits@PAUHWND__@@UCWndData@@U?$less@PAUHWND__@@@std@@V?$allocator@U?$pair@QAUHWND__@@UCWndData@@@std@@@4@$0A@@std@@@std@@KAAAPAU_Node@?$_Tree_nod@V?$_Tmap_traits@PAUHWND__@@UCWndData@@U?$less@PAUHWND__@@@std@@V?$allocator@U?$pair@QAUHWND__@@UCWndData@@@std@@@4@$0A@@std@@@2@PAU342@@Z ; std::_Tree<std::_Tmap_traits<HWND__ *,CWndData,std::less<HWND__ *>,std::allocator<std::pair<HWND__ * const,CWndData> >,0> >::_Parent
  0007c	83 c4 04	 add	 esp, 4
  0007f	8b f0		 mov	 esi, eax
  00081	8b 45 fc	 mov	 eax, DWORD PTR __Pnode$[ebp]
  00084	50		 push	 eax
  00085	e8 00 00 00 00	 call	 ?_Parent@?$_Tree@V?$_Tmap_traits@PAUHWND__@@UCWndData@@U?$less@PAUHWND__@@@std@@V?$allocator@U?$pair@QAUHWND__@@UCWndData@@@std@@@4@$0A@@std@@@std@@KAAAPAU_Node@?$_Tree_nod@V?$_Tmap_traits@PAUHWND__@@UCWndData@@U?$less@PAUHWND__@@@std@@V?$allocator@U?$pair@QAUHWND__@@UCWndData@@@std@@@4@$0A@@std@@@2@PAU342@@Z ; std::_Tree<std::_Tmap_traits<HWND__ *,CWndData,std::less<HWND__ *>,std::allocator<std::pair<HWND__ * const,CWndData> >,0> >::_Parent
  0008a	83 c4 04	 add	 esp, 4
  0008d	8b 0e		 mov	 ecx, DWORD PTR [esi]
  0008f	89 08		 mov	 DWORD PTR [eax], ecx

; 1021 : 
; 1022 : 		if (_Wherenode == _Root())

  00091	8b 4d f8	 mov	 ecx, DWORD PTR _this$[ebp]
  00094	e8 00 00 00 00	 call	 ?_Root@?$_Tree@V?$_Tmap_traits@PAUHWND__@@UCWndData@@U?$less@PAUHWND__@@@std@@V?$allocator@U?$pair@QAUHWND__@@UCWndData@@@std@@@4@$0A@@std@@@std@@IAEAAPAU_Node@?$_Tree_nod@V?$_Tmap_traits@PAUHWND__@@UCWndData@@U?$less@PAUHWND__@@@std@@V?$allocator@U?$pair@QAUHWND__@@UCWndData@@@std@@@4@$0A@@std@@@2@XZ ; std::_Tree<std::_Tmap_traits<HWND__ *,CWndData,std::less<HWND__ *>,std::allocator<std::pair<HWND__ * const,CWndData> >,0> >::_Root
  00099	8b 55 08	 mov	 edx, DWORD PTR __Wherenode$[ebp]
  0009c	3b 10		 cmp	 edx, DWORD PTR [eax]
  0009e	75 0f		 jne	 SHORT $L201216

; 1023 : 			_Root() = _Pnode;

  000a0	8b 4d f8	 mov	 ecx, DWORD PTR _this$[ebp]
  000a3	e8 00 00 00 00	 call	 ?_Root@?$_Tree@V?$_Tmap_traits@PAUHWND__@@UCWndData@@U?$less@PAUHWND__@@@std@@V?$allocator@U?$pair@QAUHWND__@@UCWndData@@@std@@@4@$0A@@std@@@std@@IAEAAPAU_Node@?$_Tree_nod@V?$_Tmap_traits@PAUHWND__@@UCWndData@@U?$less@PAUHWND__@@@std@@V?$allocator@U?$pair@QAUHWND__@@UCWndData@@@std@@@4@$0A@@std@@@2@XZ ; std::_Tree<std::_Tmap_traits<HWND__ *,CWndData,std::less<HWND__ *>,std::allocator<std::pair<HWND__ * const,CWndData> >,0> >::_Root
  000a8	8b 4d fc	 mov	 ecx, DWORD PTR __Pnode$[ebp]
  000ab	89 08		 mov	 DWORD PTR [eax], ecx

; 1024 : 		else if (_Wherenode == _Left(_Parent(_Wherenode)))

  000ad	eb 58		 jmp	 SHORT $L201217
$L201216:
  000af	8b 55 08	 mov	 edx, DWORD PTR __Wherenode$[ebp]
  000b2	52		 push	 edx
  000b3	e8 00 00 00 00	 call	 ?_Parent@?$_Tree@V?$_Tmap_traits@PAUHWND__@@UCWndData@@U?$less@PAUHWND__@@@std@@V?$allocator@U?$pair@QAUHWND__@@UCWndData@@@std@@@4@$0A@@std@@@std@@KAAAPAU_Node@?$_Tree_nod@V?$_Tmap_traits@PAUHWND__@@UCWndData@@U?$less@PAUHWND__@@@std@@V?$allocator@U?$pair@QAUHWND__@@UCWndData@@@std@@@4@$0A@@std@@@2@PAU342@@Z ; std::_Tree<std::_Tmap_traits<HWND__ *,CWndData,std::less<HWND__ *>,std::allocator<std::pair<HWND__ * const,CWndData> >,0> >::_Parent
  000b8	83 c4 04	 add	 esp, 4
  000bb	8b 00		 mov	 eax, DWORD PTR [eax]
  000bd	50		 push	 eax
  000be	e8 00 00 00 00	 call	 ?_Left@?$_Tree@V?$_Tmap_traits@PAUHWND__@@UCWndData@@U?$less@PAUHWND__@@@std@@V?$allocator@U?$pair@QAUHWND__@@UCWndData@@@std@@@4@$0A@@std@@@std@@KAAAPAU_Node@?$_Tree_nod@V?$_Tmap_traits@PAUHWND__@@UCWndData@@U?$less@PAUHWND__@@@std@@V?$allocator@U?$pair@QAUHWND__@@UCWndData@@@std@@@4@$0A@@std@@@2@PAU342@@Z ; std::_Tree<std::_Tmap_traits<HWND__ *,CWndData,std::less<HWND__ *>,std::allocator<std::pair<HWND__ * const,CWndData> >,0> >::_Left
  000c3	83 c4 04	 add	 esp, 4
  000c6	8b 4d 08	 mov	 ecx, DWORD PTR __Wherenode$[ebp]
  000c9	3b 08		 cmp	 ecx, DWORD PTR [eax]
  000cb	75 1e		 jne	 SHORT $L201218

; 1025 : 			_Left(_Parent(_Wherenode)) = _Pnode;

  000cd	8b 55 08	 mov	 edx, DWORD PTR __Wherenode$[ebp]
  000d0	52		 push	 edx
  000d1	e8 00 00 00 00	 call	 ?_Parent@?$_Tree@V?$_Tmap_traits@PAUHWND__@@UCWndData@@U?$less@PAUHWND__@@@std@@V?$allocator@U?$pair@QAUHWND__@@UCWndData@@@std@@@4@$0A@@std@@@std@@KAAAPAU_Node@?$_Tree_nod@V?$_Tmap_traits@PAUHWND__@@UCWndData@@U?$less@PAUHWND__@@@std@@V?$allocator@U?$pair@QAUHWND__@@UCWndData@@@std@@@4@$0A@@std@@@2@PAU342@@Z ; std::_Tree<std::_Tmap_traits<HWND__ *,CWndData,std::less<HWND__ *>,std::allocator<std::pair<HWND__ * const,CWndData> >,0> >::_Parent
  000d6	83 c4 04	 add	 esp, 4
  000d9	8b 00		 mov	 eax, DWORD PTR [eax]
  000db	50		 push	 eax
  000dc	e8 00 00 00 00	 call	 ?_Left@?$_Tree@V?$_Tmap_traits@PAUHWND__@@UCWndData@@U?$less@PAUHWND__@@@std@@V?$allocator@U?$pair@QAUHWND__@@UCWndData@@@std@@@4@$0A@@std@@@std@@KAAAPAU_Node@?$_Tree_nod@V?$_Tmap_traits@PAUHWND__@@UCWndData@@U?$less@PAUHWND__@@@std@@V?$allocator@U?$pair@QAUHWND__@@UCWndData@@@std@@@4@$0A@@std@@@2@PAU342@@Z ; std::_Tree<std::_Tmap_traits<HWND__ *,CWndData,std::less<HWND__ *>,std::allocator<std::pair<HWND__ * const,CWndData> >,0> >::_Left
  000e1	83 c4 04	 add	 esp, 4
  000e4	8b 4d fc	 mov	 ecx, DWORD PTR __Pnode$[ebp]
  000e7	89 08		 mov	 DWORD PTR [eax], ecx

; 1026 : 		else

  000e9	eb 1c		 jmp	 SHORT $L201217
$L201218:

; 1027 : 			_Right(_Parent(_Wherenode)) = _Pnode;

  000eb	8b 55 08	 mov	 edx, DWORD PTR __Wherenode$[ebp]
  000ee	52		 push	 edx
  000ef	e8 00 00 00 00	 call	 ?_Parent@?$_Tree@V?$_Tmap_traits@PAUHWND__@@UCWndData@@U?$less@PAUHWND__@@@std@@V?$allocator@U?$pair@QAUHWND__@@UCWndData@@@std@@@4@$0A@@std@@@std@@KAAAPAU_Node@?$_Tree_nod@V?$_Tmap_traits@PAUHWND__@@UCWndData@@U?$less@PAUHWND__@@@std@@V?$allocator@U?$pair@QAUHWND__@@UCWndData@@@std@@@4@$0A@@std@@@2@PAU342@@Z ; std::_Tree<std::_Tmap_traits<HWND__ *,CWndData,std::less<HWND__ *>,std::allocator<std::pair<HWND__ * const,CWndData> >,0> >::_Parent
  000f4	83 c4 04	 add	 esp, 4
  000f7	8b 00		 mov	 eax, DWORD PTR [eax]
  000f9	50		 push	 eax
  000fa	e8 00 00 00 00	 call	 ?_Right@?$_Tree@V?$_Tmap_traits@PAUHWND__@@UCWndData@@U?$less@PAUHWND__@@@std@@V?$allocator@U?$pair@QAUHWND__@@UCWndData@@@std@@@4@$0A@@std@@@std@@KAAAPAU_Node@?$_Tree_nod@V?$_Tmap_traits@PAUHWND__@@UCWndData@@U?$less@PAUHWND__@@@std@@V?$allocator@U?$pair@QAUHWND__@@UCWndData@@@std@@@4@$0A@@std@@@2@PAU342@@Z ; std::_Tree<std::_Tmap_traits<HWND__ *,CWndData,std::less<HWND__ *>,std::allocator<std::pair<HWND__ * const,CWndData> >,0> >::_Right
  000ff	83 c4 04	 add	 esp, 4
  00102	8b 4d fc	 mov	 ecx, DWORD PTR __Pnode$[ebp]
  00105	89 08		 mov	 DWORD PTR [eax], ecx
$L201217:

; 1028 : 
; 1029 : 		_Left(_Pnode) = _Wherenode;

  00107	8b 55 fc	 mov	 edx, DWORD PTR __Pnode$[ebp]
  0010a	52		 push	 edx
  0010b	e8 00 00 00 00	 call	 ?_Left@?$_Tree@V?$_Tmap_traits@PAUHWND__@@UCWndData@@U?$less@PAUHWND__@@@std@@V?$allocator@U?$pair@QAUHWND__@@UCWndData@@@std@@@4@$0A@@std@@@std@@KAAAPAU_Node@?$_Tree_nod@V?$_Tmap_traits@PAUHWND__@@UCWndData@@U?$less@PAUHWND__@@@std@@V?$allocator@U?$pair@QAUHWND__@@UCWndData@@@std@@@4@$0A@@std@@@2@PAU342@@Z ; std::_Tree<std::_Tmap_traits<HWND__ *,CWndData,std::less<HWND__ *>,std::allocator<std::pair<HWND__ * const,CWndData> >,0> >::_Left
  00110	83 c4 04	 add	 esp, 4
  00113	8b 4d 08	 mov	 ecx, DWORD PTR __Wherenode$[ebp]
  00116	89 08		 mov	 DWORD PTR [eax], ecx

; 1030 : 		_Parent(_Wherenode) = _Pnode;

  00118	8b 55 08	 mov	 edx, DWORD PTR __Wherenode$[ebp]
  0011b	52		 push	 edx
  0011c	e8 00 00 00 00	 call	 ?_Parent@?$_Tree@V?$_Tmap_traits@PAUHWND__@@UCWndData@@U?$less@PAUHWND__@@@std@@V?$allocator@U?$pair@QAUHWND__@@UCWndData@@@std@@@4@$0A@@std@@@std@@KAAAPAU_Node@?$_Tree_nod@V?$_Tmap_traits@PAUHWND__@@UCWndData@@U?$less@PAUHWND__@@@std@@V?$allocator@U?$pair@QAUHWND__@@UCWndData@@@std@@@4@$0A@@std@@@2@PAU342@@Z ; std::_Tree<std::_Tmap_traits<HWND__ *,CWndData,std::less<HWND__ *>,std::allocator<std::pair<HWND__ * const,CWndData> >,0> >::_Parent
  00121	83 c4 04	 add	 esp, 4
  00124	8b 4d fc	 mov	 ecx, DWORD PTR __Pnode$[ebp]
  00127	89 08		 mov	 DWORD PTR [eax], ecx

; 1031 : 		}

  00129	5e		 pop	 esi
  0012a	8b e5		 mov	 esp, ebp
  0012c	5d		 pop	 ebp
  0012d	c2 04 00	 ret	 4
?_Lrotate@?$_Tree@V?$_Tmap_traits@PAUHWND__@@UCWndData@@U?$less@PAUHWND__@@@std@@V?$allocator@U?$pair@QAUHWND__@@UCWndData@@@std@@@4@$0A@@std@@@std@@IAEXPAU_Node@?$_Tree_nod@V?$_Tmap_traits@PAUHWND__@@UCWndData@@U?$less@PAUHWND__@@@std@@V?$allocator@U?$pair@QAUHWND__@@UCWndData@@@std@@@4@$0A@@std@@@2@@Z ENDP ; std::_Tree<std::_Tmap_traits<HWND__ *,CWndData,std::less<HWND__ *>,std::allocator<std::pair<HWND__ * const,CWndData> >,0> >::_Lrotate
; Function compile flags: /Odt
_TEXT	ENDS
;	COMDAT ?_Root@?$_Tree@V?$_Tmap_traits@PAUHWND__@@UCWndData@@U?$less@PAUHWND__@@@std@@V?$allocator@U?$pair@QAUHWND__@@UCWndData@@@std@@@4@$0A@@std@@@std@@IAEAAPAU_Node@?$_Tree_nod@V?$_Tmap_traits@PAUHWND__@@UCWndData@@U?$less@PAUHWND__@@@std@@V?$allocator@U?$pair@QAUHWND__@@UCWndData@@@std@@@4@$0A@@std@@@2@XZ
_TEXT	SEGMENT
_this$ = -4						; size = 4
?_Root@?$_Tree@V?$_Tmap_traits@PAUHWND__@@UCWndData@@U?$less@PAUHWND__@@@std@@V?$allocator@U?$pair@QAUHWND__@@UCWndData@@@std@@@4@$0A@@std@@@std@@IAEAAPAU_Node@?$_Tree_nod@V?$_Tmap_traits@PAUHWND__@@UCWndData@@U?$less@PAUHWND__@@@std@@V?$allocator@U?$pair@QAUHWND__@@UCWndData@@@std@@@4@$0A@@std@@@2@XZ PROC NEAR ; std::_Tree<std::_Tmap_traits<HWND__ *,CWndData,std::less<HWND__ *>,std::allocator<std::pair<HWND__ * const,CWndData> >,0> >::_Root, COMDAT
; _this$ = ecx

; 1058 : 		{	// return root of mutable tree

  00000	55		 push	 ebp
  00001	8b ec		 mov	 ebp, esp
  00003	51		 push	 ecx
  00004	89 4d fc	 mov	 DWORD PTR _this$[ebp], ecx

; 1059 : 		return (_Parent(_Myhead));

  00007	8b 45 fc	 mov	 eax, DWORD PTR _this$[ebp]
  0000a	8b 48 04	 mov	 ecx, DWORD PTR [eax+4]
  0000d	51		 push	 ecx
  0000e	e8 00 00 00 00	 call	 ?_Parent@?$_Tree@V?$_Tmap_traits@PAUHWND__@@UCWndData@@U?$less@PAUHWND__@@@std@@V?$allocator@U?$pair@QAUHWND__@@UCWndData@@@std@@@4@$0A@@std@@@std@@KAAAPAU_Node@?$_Tree_nod@V?$_Tmap_traits@PAUHWND__@@UCWndData@@U?$less@PAUHWND__@@@std@@V?$allocator@U?$pair@QAUHWND__@@UCWndData@@@std@@@4@$0A@@std@@@2@PAU342@@Z ; std::_Tree<std::_Tmap_traits<HWND__ *,CWndData,std::less<HWND__ *>,std::allocator<std::pair<HWND__ * const,CWndData> >,0> >::_Parent
  00013	83 c4 04	 add	 esp, 4

; 1060 : 		}

  00016	8b e5		 mov	 esp, ebp
  00018	5d		 pop	 ebp
  00019	c3		 ret	 0
?_Root@?$_Tree@V?$_Tmap_traits@PAUHWND__@@UCWndData@@U?$less@PAUHWND__@@@std@@V?$allocator@U?$pair@QAUHWND__@@UCWndData@@@std@@@4@$0A@@std@@@std@@IAEAAPAU_Node@?$_Tree_nod@V?$_Tmap_traits@PAUHWND__@@UCWndData@@U?$less@PAUHWND__@@@std@@V?$allocator@U?$pair@QAUHWND__@@UCWndData@@@std@@@4@$0A@@std@@@2@XZ ENDP ; std::_Tree<std::_Tmap_traits<HWND__ *,CWndData,std::less<HWND__ *>,std::allocator<std::pair<HWND__ * const,CWndData> >,0> >::_Root
; Function compile flags: /Odt
_TEXT	ENDS
;	COMDAT ?_Root@?$_Tree@V?$_Tmap_traits@PAUHWND__@@UCWndData@@U?$less@PAUHWND__@@@std@@V?$allocator@U?$pair@QAUHWND__@@UCWndData@@@std@@@4@$0A@@std@@@std@@IBEAAPAU_Node@?$_Tree_nod@V?$_Tmap_traits@PAUHWND__@@UCWndData@@U?$less@PAUHWND__@@@std@@V?$allocator@U?$pair@QAUHWND__@@UCWndData@@@std@@@4@$0A@@std@@@2@XZ
_TEXT	SEGMENT
_this$ = -4						; size = 4
?_Root@?$_Tree@V?$_Tmap_traits@PAUHWND__@@UCWndData@@U?$less@PAUHWND__@@@std@@V?$allocator@U?$pair@QAUHWND__@@UCWndData@@@std@@@4@$0A@@std@@@std@@IBEAAPAU_Node@?$_Tree_nod@V?$_Tmap_traits@PAUHWND__@@UCWndData@@U?$less@PAUHWND__@@@std@@V?$allocator@U?$pair@QAUHWND__@@UCWndData@@@std@@@4@$0A@@std@@@2@XZ PROC NEAR ; std::_Tree<std::_Tmap_traits<HWND__ *,CWndData,std::less<HWND__ *>,std::allocator<std::pair<HWND__ * const,CWndData> >,0> >::_Root, COMDAT
; _this$ = ecx

; 1063 : 		{	// return root of nonmutable tree

  00000	55		 push	 ebp
  00001	8b ec		 mov	 ebp, esp
  00003	51		 push	 ecx
  00004	89 4d fc	 mov	 DWORD PTR _this$[ebp], ecx

; 1064 : 		return (_Parent(_Myhead));

  00007	8b 45 fc	 mov	 eax, DWORD PTR _this$[ebp]
  0000a	8b 48 04	 mov	 ecx, DWORD PTR [eax+4]
  0000d	51		 push	 ecx
  0000e	e8 00 00 00 00	 call	 ?_Parent@?$_Tree@V?$_Tmap_traits@PAUHWND__@@UCWndData@@U?$less@PAUHWND__@@@std@@V?$allocator@U?$pair@QAUHWND__@@UCWndData@@@std@@@4@$0A@@std@@@std@@KAAAPAU_Node@?$_Tree_nod@V?$_Tmap_traits@PAUHWND__@@UCWndData@@U?$less@PAUHWND__@@@std@@V?$allocator@U?$pair@QAUHWND__@@UCWndData@@@std@@@4@$0A@@std@@@2@PAU342@@Z ; std::_Tree<std::_Tmap_traits<HWND__ *,CWndData,std::less<HWND__ *>,std::allocator<std::pair<HWND__ * const,CWndData> >,0> >::_Parent
  00013	83 c4 04	 add	 esp, 4

; 1065 : 		}

  00016	8b e5		 mov	 esp, ebp
  00018	5d		 pop	 ebp
  00019	c3		 ret	 0
?_Root@?$_Tree@V?$_Tmap_traits@PAUHWND__@@UCWndData@@U?$less@PAUHWND__@@@std@@V?$allocator@U?$pair@QAUHWND__@@UCWndData@@@std@@@4@$0A@@std@@@std@@IBEAAPAU_Node@?$_Tree_nod@V?$_Tmap_traits@PAUHWND__@@UCWndData@@U?$less@PAUHWND__@@@std@@V?$allocator@U?$pair@QAUHWND__@@UCWndData@@@std@@@4@$0A@@std@@@2@XZ ENDP ; std::_Tree<std::_Tmap_traits<HWND__ *,CWndData,std::less<HWND__ *>,std::allocator<std::pair<HWND__ * const,CWndData> >,0> >::_Root
; Function compile flags: /Odt
_TEXT	ENDS
;	COMDAT ?_Rrotate@?$_Tree@V?$_Tmap_traits@PAUHWND__@@UCWndData@@U?$less@PAUHWND__@@@std@@V?$allocator@U?$pair@QAUHWND__@@UCWndData@@@std@@@4@$0A@@std@@@std@@IAEXPAU_Node@?$_Tree_nod@V?$_Tmap_traits@PAUHWND__@@UCWndData@@U?$less@PAUHWND__@@@std@@V?$allocator@U?$pair@QAUHWND__@@UCWndData@@@std@@@4@$0A@@std@@@2@@Z
_TEXT	SEGMENT
_this$ = -8						; size = 4
__Pnode$ = -4						; size = 4
__Wherenode$ = 8					; size = 4
?_Rrotate@?$_Tree@V?$_Tmap_traits@PAUHWND__@@UCWndData@@U?$less@PAUHWND__@@@std@@V?$allocator@U?$pair@QAUHWND__@@UCWndData@@@std@@@4@$0A@@std@@@std@@IAEXPAU_Node@?$_Tree_nod@V?$_Tmap_traits@PAUHWND__@@UCWndData@@U?$less@PAUHWND__@@@std@@V?$allocator@U?$pair@QAUHWND__@@UCWndData@@@std@@@4@$0A@@std@@@2@@Z PROC NEAR ; std::_Tree<std::_Tmap_traits<HWND__ *,CWndData,std::less<HWND__ *>,std::allocator<std::pair<HWND__ * const,CWndData> >,0> >::_Rrotate, COMDAT
; _this$ = ecx

; 1068 : 		{	// promote left node to root of subtree

  00000	55		 push	 ebp
  00001	8b ec		 mov	 ebp, esp
  00003	83 ec 08	 sub	 esp, 8
  00006	56		 push	 esi
  00007	89 4d f8	 mov	 DWORD PTR _this$[ebp], ecx

; 1069 : 		_Nodeptr _Pnode = _Left(_Wherenode);

  0000a	8b 45 08	 mov	 eax, DWORD PTR __Wherenode$[ebp]
  0000d	50		 push	 eax
  0000e	e8 00 00 00 00	 call	 ?_Left@?$_Tree@V?$_Tmap_traits@PAUHWND__@@UCWndData@@U?$less@PAUHWND__@@@std@@V?$allocator@U?$pair@QAUHWND__@@UCWndData@@@std@@@4@$0A@@std@@@std@@KAAAPAU_Node@?$_Tree_nod@V?$_Tmap_traits@PAUHWND__@@UCWndData@@U?$less@PAUHWND__@@@std@@V?$allocator@U?$pair@QAUHWND__@@UCWndData@@@std@@@4@$0A@@std@@@2@PAU342@@Z ; std::_Tree<std::_Tmap_traits<HWND__ *,CWndData,std::less<HWND__ *>,std::allocator<std::pair<HWND__ * const,CWndData> >,0> >::_Left
  00013	83 c4 04	 add	 esp, 4
  00016	8b 08		 mov	 ecx, DWORD PTR [eax]
  00018	89 4d fc	 mov	 DWORD PTR __Pnode$[ebp], ecx

; 1070 : 		_Left(_Wherenode) = _Right(_Pnode);

  0001b	8b 55 fc	 mov	 edx, DWORD PTR __Pnode$[ebp]
  0001e	52		 push	 edx
  0001f	e8 00 00 00 00	 call	 ?_Right@?$_Tree@V?$_Tmap_traits@PAUHWND__@@UCWndData@@U?$less@PAUHWND__@@@std@@V?$allocator@U?$pair@QAUHWND__@@UCWndData@@@std@@@4@$0A@@std@@@std@@KAAAPAU_Node@?$_Tree_nod@V?$_Tmap_traits@PAUHWND__@@UCWndData@@U?$less@PAUHWND__@@@std@@V?$allocator@U?$pair@QAUHWND__@@UCWndData@@@std@@@4@$0A@@std@@@2@PAU342@@Z ; std::_Tree<std::_Tmap_traits<HWND__ *,CWndData,std::less<HWND__ *>,std::allocator<std::pair<HWND__ * const,CWndData> >,0> >::_Right
  00024	83 c4 04	 add	 esp, 4
  00027	8b f0		 mov	 esi, eax
  00029	8b 45 08	 mov	 eax, DWORD PTR __Wherenode$[ebp]
  0002c	50		 push	 eax
  0002d	e8 00 00 00 00	 call	 ?_Left@?$_Tree@V?$_Tmap_traits@PAUHWND__@@UCWndData@@U?$less@PAUHWND__@@@std@@V?$allocator@U?$pair@QAUHWND__@@UCWndData@@@std@@@4@$0A@@std@@@std@@KAAAPAU_Node@?$_Tree_nod@V?$_Tmap_traits@PAUHWND__@@UCWndData@@U?$less@PAUHWND__@@@std@@V?$allocator@U?$pair@QAUHWND__@@UCWndData@@@std@@@4@$0A@@std@@@2@PAU342@@Z ; std::_Tree<std::_Tmap_traits<HWND__ *,CWndData,std::less<HWND__ *>,std::allocator<std::pair<HWND__ * const,CWndData> >,0> >::_Left
  00032	83 c4 04	 add	 esp, 4
  00035	8b 0e		 mov	 ecx, DWORD PTR [esi]
  00037	89 08		 mov	 DWORD PTR [eax], ecx

; 1071 : 
; 1072 : 		if (!_Isnil(_Right(_Pnode)))

  00039	8b 55 fc	 mov	 edx, DWORD PTR __Pnode$[ebp]
  0003c	52		 push	 edx
  0003d	e8 00 00 00 00	 call	 ?_Right@?$_Tree@V?$_Tmap_traits@PAUHWND__@@UCWndData@@U?$less@PAUHWND__@@@std@@V?$allocator@U?$pair@QAUHWND__@@UCWndData@@@std@@@4@$0A@@std@@@std@@KAAAPAU_Node@?$_Tree_nod@V?$_Tmap_traits@PAUHWND__@@UCWndData@@U?$less@PAUHWND__@@@std@@V?$allocator@U?$pair@QAUHWND__@@UCWndData@@@std@@@4@$0A@@std@@@2@PAU342@@Z ; std::_Tree<std::_Tmap_traits<HWND__ *,CWndData,std::less<HWND__ *>,std::allocator<std::pair<HWND__ * const,CWndData> >,0> >::_Right
  00042	83 c4 04	 add	 esp, 4
  00045	8b 00		 mov	 eax, DWORD PTR [eax]
  00047	50		 push	 eax
  00048	e8 00 00 00 00	 call	 ?_Isnil@?$_Tree@V?$_Tmap_traits@PAUHWND__@@UCWndData@@U?$less@PAUHWND__@@@std@@V?$allocator@U?$pair@QAUHWND__@@UCWndData@@@std@@@4@$0A@@std@@@std@@KAAADPAU_Node@?$_Tree_nod@V?$_Tmap_traits@PAUHWND__@@UCWndData@@U?$less@PAUHWND__@@@std@@V?$allocator@U?$pair@QAUHWND__@@UCWndData@@@std@@@4@$0A@@std@@@2@@Z ; std::_Tree<std::_Tmap_traits<HWND__ *,CWndData,std::less<HWND__ *>,std::allocator<std::pair<HWND__ * const,CWndData> >,0> >::_Isnil
  0004d	83 c4 04	 add	 esp, 4
  00050	0f be 08	 movsx	 ecx, BYTE PTR [eax]
  00053	85 c9		 test	 ecx, ecx
  00055	75 1c		 jne	 SHORT $L201227

; 1073 : 			_Parent(_Right(_Pnode)) = _Wherenode;

  00057	8b 55 fc	 mov	 edx, DWORD PTR __Pnode$[ebp]
  0005a	52		 push	 edx
  0005b	e8 00 00 00 00	 call	 ?_Right@?$_Tree@V?$_Tmap_traits@PAUHWND__@@UCWndData@@U?$less@PAUHWND__@@@std@@V?$allocator@U?$pair@QAUHWND__@@UCWndData@@@std@@@4@$0A@@std@@@std@@KAAAPAU_Node@?$_Tree_nod@V?$_Tmap_traits@PAUHWND__@@UCWndData@@U?$less@PAUHWND__@@@std@@V?$allocator@U?$pair@QAUHWND__@@UCWndData@@@std@@@4@$0A@@std@@@2@PAU342@@Z ; std::_Tree<std::_Tmap_traits<HWND__ *,CWndData,std::less<HWND__ *>,std::allocator<std::pair<HWND__ * const,CWndData> >,0> >::_Right
  00060	83 c4 04	 add	 esp, 4
  00063	8b 00		 mov	 eax, DWORD PTR [eax]
  00065	50		 push	 eax
  00066	e8 00 00 00 00	 call	 ?_Parent@?$_Tree@V?$_Tmap_traits@PAUHWND__@@UCWndData@@U?$less@PAUHWND__@@@std@@V?$allocator@U?$pair@QAUHWND__@@UCWndData@@@std@@@4@$0A@@std@@@std@@KAAAPAU_Node@?$_Tree_nod@V?$_Tmap_traits@PAUHWND__@@UCWndData@@U?$less@PAUHWND__@@@std@@V?$allocator@U?$pair@QAUHWND__@@UCWndData@@@std@@@4@$0A@@std@@@2@PAU342@@Z ; std::_Tree<std::_Tmap_traits<HWND__ *,CWndData,std::less<HWND__ *>,std::allocator<std::pair<HWND__ * const,CWndData> >,0> >::_Parent
  0006b	83 c4 04	 add	 esp, 4
  0006e	8b 4d 08	 mov	 ecx, DWORD PTR __Wherenode$[ebp]
  00071	89 08		 mov	 DWORD PTR [eax], ecx
$L201227:

; 1074 : 		_Parent(_Pnode) = _Parent(_Wherenode);

  00073	8b 55 08	 mov	 edx, DWORD PTR __Wherenode$[ebp]
  00076	52		 push	 edx
  00077	e8 00 00 00 00	 call	 ?_Parent@?$_Tree@V?$_Tmap_traits@PAUHWND__@@UCWndData@@U?$less@PAUHWND__@@@std@@V?$allocator@U?$pair@QAUHWND__@@UCWndData@@@std@@@4@$0A@@std@@@std@@KAAAPAU_Node@?$_Tree_nod@V?$_Tmap_traits@PAUHWND__@@UCWndData@@U?$less@PAUHWND__@@@std@@V?$allocator@U?$pair@QAUHWND__@@UCWndData@@@std@@@4@$0A@@std@@@2@PAU342@@Z ; std::_Tree<std::_Tmap_traits<HWND__ *,CWndData,std::less<HWND__ *>,std::allocator<std::pair<HWND__ * const,CWndData> >,0> >::_Parent
  0007c	83 c4 04	 add	 esp, 4
  0007f	8b f0		 mov	 esi, eax
  00081	8b 45 fc	 mov	 eax, DWORD PTR __Pnode$[ebp]
  00084	50		 push	 eax
  00085	e8 00 00 00 00	 call	 ?_Parent@?$_Tree@V?$_Tmap_traits@PAUHWND__@@UCWndData@@U?$less@PAUHWND__@@@std@@V?$allocator@U?$pair@QAUHWND__@@UCWndData@@@std@@@4@$0A@@std@@@std@@KAAAPAU_Node@?$_Tree_nod@V?$_Tmap_traits@PAUHWND__@@UCWndData@@U?$less@PAUHWND__@@@std@@V?$allocator@U?$pair@QAUHWND__@@UCWndData@@@std@@@4@$0A@@std@@@2@PAU342@@Z ; std::_Tree<std::_Tmap_traits<HWND__ *,CWndData,std::less<HWND__ *>,std::allocator<std::pair<HWND__ * const,CWndData> >,0> >::_Parent
  0008a	83 c4 04	 add	 esp, 4
  0008d	8b 0e		 mov	 ecx, DWORD PTR [esi]
  0008f	89 08		 mov	 DWORD PTR [eax], ecx

; 1075 : 
; 1076 : 		if (_Wherenode == _Root())

  00091	8b 4d f8	 mov	 ecx, DWORD PTR _this$[ebp]
  00094	e8 00 00 00 00	 call	 ?_Root@?$_Tree@V?$_Tmap_traits@PAUHWND__@@UCWndData@@U?$less@PAUHWND__@@@std@@V?$allocator@U?$pair@QAUHWND__@@UCWndData@@@std@@@4@$0A@@std@@@std@@IAEAAPAU_Node@?$_Tree_nod@V?$_Tmap_traits@PAUHWND__@@UCWndData@@U?$less@PAUHWND__@@@std@@V?$allocator@U?$pair@QAUHWND__@@UCWndData@@@std@@@4@$0A@@std@@@2@XZ ; std::_Tree<std::_Tmap_traits<HWND__ *,CWndData,std::less<HWND__ *>,std::allocator<std::pair<HWND__ * const,CWndData> >,0> >::_Root
  00099	8b 55 08	 mov	 edx, DWORD PTR __Wherenode$[ebp]
  0009c	3b 10		 cmp	 edx, DWORD PTR [eax]
  0009e	75 0f		 jne	 SHORT $L201228

; 1077 : 			_Root() = _Pnode;

  000a0	8b 4d f8	 mov	 ecx, DWORD PTR _this$[ebp]
  000a3	e8 00 00 00 00	 call	 ?_Root@?$_Tree@V?$_Tmap_traits@PAUHWND__@@UCWndData@@U?$less@PAUHWND__@@@std@@V?$allocator@U?$pair@QAUHWND__@@UCWndData@@@std@@@4@$0A@@std@@@std@@IAEAAPAU_Node@?$_Tree_nod@V?$_Tmap_traits@PAUHWND__@@UCWndData@@U?$less@PAUHWND__@@@std@@V?$allocator@U?$pair@QAUHWND__@@UCWndData@@@std@@@4@$0A@@std@@@2@XZ ; std::_Tree<std::_Tmap_traits<HWND__ *,CWndData,std::less<HWND__ *>,std::allocator<std::pair<HWND__ * const,CWndData> >,0> >::_Root
  000a8	8b 4d fc	 mov	 ecx, DWORD PTR __Pnode$[ebp]
  000ab	89 08		 mov	 DWORD PTR [eax], ecx

; 1078 : 		else if (_Wherenode == _Right(_Parent(_Wherenode)))

  000ad	eb 58		 jmp	 SHORT $L201229
$L201228:
  000af	8b 55 08	 mov	 edx, DWORD PTR __Wherenode$[ebp]
  000b2	52		 push	 edx
  000b3	e8 00 00 00 00	 call	 ?_Parent@?$_Tree@V?$_Tmap_traits@PAUHWND__@@UCWndData@@U?$less@PAUHWND__@@@std@@V?$allocator@U?$pair@QAUHWND__@@UCWndData@@@std@@@4@$0A@@std@@@std@@KAAAPAU_Node@?$_Tree_nod@V?$_Tmap_traits@PAUHWND__@@UCWndData@@U?$less@PAUHWND__@@@std@@V?$allocator@U?$pair@QAUHWND__@@UCWndData@@@std@@@4@$0A@@std@@@2@PAU342@@Z ; std::_Tree<std::_Tmap_traits<HWND__ *,CWndData,std::less<HWND__ *>,std::allocator<std::pair<HWND__ * const,CWndData> >,0> >::_Parent
  000b8	83 c4 04	 add	 esp, 4
  000bb	8b 00		 mov	 eax, DWORD PTR [eax]
  000bd	50		 push	 eax
  000be	e8 00 00 00 00	 call	 ?_Right@?$_Tree@V?$_Tmap_traits@PAUHWND__@@UCWndData@@U?$less@PAUHWND__@@@std@@V?$allocator@U?$pair@QAUHWND__@@UCWndData@@@std@@@4@$0A@@std@@@std@@KAAAPAU_Node@?$_Tree_nod@V?$_Tmap_traits@PAUHWND__@@UCWndData@@U?$less@PAUHWND__@@@std@@V?$allocator@U?$pair@QAUHWND__@@UCWndData@@@std@@@4@$0A@@std@@@2@PAU342@@Z ; std::_Tree<std::_Tmap_traits<HWND__ *,CWndData,std::less<HWND__ *>,std::allocator<std::pair<HWND__ * const,CWndData> >,0> >::_Right
  000c3	83 c4 04	 add	 esp, 4
  000c6	8b 4d 08	 mov	 ecx, DWORD PTR __Wherenode$[ebp]
  000c9	3b 08		 cmp	 ecx, DWORD PTR [eax]
  000cb	75 1e		 jne	 SHORT $L201230

; 1079 : 			_Right(_Parent(_Wherenode)) = _Pnode;

  000cd	8b 55 08	 mov	 edx, DWORD PTR __Wherenode$[ebp]
  000d0	52		 push	 edx
  000d1	e8 00 00 00 00	 call	 ?_Parent@?$_Tree@V?$_Tmap_traits@PAUHWND__@@UCWndData@@U?$less@PAUHWND__@@@std@@V?$allocator@U?$pair@QAUHWND__@@UCWndData@@@std@@@4@$0A@@std@@@std@@KAAAPAU_Node@?$_Tree_nod@V?$_Tmap_traits@PAUHWND__@@UCWndData@@U?$less@PAUHWND__@@@std@@V?$allocator@U?$pair@QAUHWND__@@UCWndData@@@std@@@4@$0A@@std@@@2@PAU342@@Z ; std::_Tree<std::_Tmap_traits<HWND__ *,CWndData,std::less<HWND__ *>,std::allocator<std::pair<HWND__ * const,CWndData> >,0> >::_Parent
  000d6	83 c4 04	 add	 esp, 4
  000d9	8b 00		 mov	 eax, DWORD PTR [eax]
  000db	50		 push	 eax
  000dc	e8 00 00 00 00	 call	 ?_Right@?$_Tree@V?$_Tmap_traits@PAUHWND__@@UCWndData@@U?$less@PAUHWND__@@@std@@V?$allocator@U?$pair@QAUHWND__@@UCWndData@@@std@@@4@$0A@@std@@@std@@KAAAPAU_Node@?$_Tree_nod@V?$_Tmap_traits@PAUHWND__@@UCWndData@@U?$less@PAUHWND__@@@std@@V?$allocator@U?$pair@QAUHWND__@@UCWndData@@@std@@@4@$0A@@std@@@2@PAU342@@Z ; std::_Tree<std::_Tmap_traits<HWND__ *,CWndData,std::less<HWND__ *>,std::allocator<std::pair<HWND__ * const,CWndData> >,0> >::_Right
  000e1	83 c4 04	 add	 esp, 4
  000e4	8b 4d fc	 mov	 ecx, DWORD PTR __Pnode$[ebp]
  000e7	89 08		 mov	 DWORD PTR [eax], ecx

; 1080 : 		else

  000e9	eb 1c		 jmp	 SHORT $L201229
$L201230:

; 1081 : 			_Left(_Parent(_Wherenode)) = _Pnode;

  000eb	8b 55 08	 mov	 edx, DWORD PTR __Wherenode$[ebp]
  000ee	52		 push	 edx
  000ef	e8 00 00 00 00	 call	 ?_Parent@?$_Tree@V?$_Tmap_traits@PAUHWND__@@UCWndData@@U?$less@PAUHWND__@@@std@@V?$allocator@U?$pair@QAUHWND__@@UCWndData@@@std@@@4@$0A@@std@@@std@@KAAAPAU_Node@?$_Tree_nod@V?$_Tmap_traits@PAUHWND__@@UCWndData@@U?$less@PAUHWND__@@@std@@V?$allocator@U?$pair@QAUHWND__@@UCWndData@@@std@@@4@$0A@@std@@@2@PAU342@@Z ; std::_Tree<std::_Tmap_traits<HWND__ *,CWndData,std::less<HWND__ *>,std::allocator<std::pair<HWND__ * const,CWndData> >,0> >::_Parent
  000f4	83 c4 04	 add	 esp, 4
  000f7	8b 00		 mov	 eax, DWORD PTR [eax]
  000f9	50		 push	 eax
  000fa	e8 00 00 00 00	 call	 ?_Left@?$_Tree@V?$_Tmap_traits@PAUHWND__@@UCWndData@@U?$less@PAUHWND__@@@std@@V?$allocator@U?$pair@QAUHWND__@@UCWndData@@@std@@@4@$0A@@std@@@std@@KAAAPAU_Node@?$_Tree_nod@V?$_Tmap_traits@PAUHWND__@@UCWndData@@U?$less@PAUHWND__@@@std@@V?$allocator@U?$pair@QAUHWND__@@UCWndData@@@std@@@4@$0A@@std@@@2@PAU342@@Z ; std::_Tree<std::_Tmap_traits<HWND__ *,CWndData,std::less<HWND__ *>,std::allocator<std::pair<HWND__ * const,CWndData> >,0> >::_Left
  000ff	83 c4 04	 add	 esp, 4
  00102	8b 4d fc	 mov	 ecx, DWORD PTR __Pnode$[ebp]
  00105	89 08		 mov	 DWORD PTR [eax], ecx
$L201229:

; 1082 : 
; 1083 : 		_Right(_Pnode) = _Wherenode;

  00107	8b 55 fc	 mov	 edx, DWORD PTR __Pnode$[ebp]
  0010a	52		 push	 edx
  0010b	e8 00 00 00 00	 call	 ?_Right@?$_Tree@V?$_Tmap_traits@PAUHWND__@@UCWndData@@U?$less@PAUHWND__@@@std@@V?$allocator@U?$pair@QAUHWND__@@UCWndData@@@std@@@4@$0A@@std@@@std@@KAAAPAU_Node@?$_Tree_nod@V?$_Tmap_traits@PAUHWND__@@UCWndData@@U?$less@PAUHWND__@@@std@@V?$allocator@U?$pair@QAUHWND__@@UCWndData@@@std@@@4@$0A@@std@@@2@PAU342@@Z ; std::_Tree<std::_Tmap_traits<HWND__ *,CWndData,std::less<HWND__ *>,std::allocator<std::pair<HWND__ * const,CWndData> >,0> >::_Right
  00110	83 c4 04	 add	 esp, 4
  00113	8b 4d 08	 mov	 ecx, DWORD PTR __Wherenode$[ebp]
  00116	89 08		 mov	 DWORD PTR [eax], ecx

; 1084 : 		_Parent(_Wherenode) = _Pnode;

  00118	8b 55 08	 mov	 edx, DWORD PTR __Wherenode$[ebp]
  0011b	52		 push	 edx
  0011c	e8 00 00 00 00	 call	 ?_Parent@?$_Tree@V?$_Tmap_traits@PAUHWND__@@UCWndData@@U?$less@PAUHWND__@@@std@@V?$allocator@U?$pair@QAUHWND__@@UCWndData@@@std@@@4@$0A@@std@@@std@@KAAAPAU_Node@?$_Tree_nod@V?$_Tmap_traits@PAUHWND__@@UCWndData@@U?$less@PAUHWND__@@@std@@V?$allocator@U?$pair@QAUHWND__@@UCWndData@@@std@@@4@$0A@@std@@@2@PAU342@@Z ; std::_Tree<std::_Tmap_traits<HWND__ *,CWndData,std::less<HWND__ *>,std::allocator<std::pair<HWND__ * const,CWndData> >,0> >::_Parent
  00121	83 c4 04	 add	 esp, 4
  00124	8b 4d fc	 mov	 ecx, DWORD PTR __Pnode$[ebp]
  00127	89 08		 mov	 DWORD PTR [eax], ecx

; 1085 : 		}

  00129	5e		 pop	 esi
  0012a	8b e5		 mov	 esp, ebp
  0012c	5d		 pop	 ebp
  0012d	c2 04 00	 ret	 4
?_Rrotate@?$_Tree@V?$_Tmap_traits@PAUHWND__@@UCWndData@@U?$less@PAUHWND__@@@std@@V?$allocator@U?$pair@QAUHWND__@@UCWndData@@@std@@@4@$0A@@std@@@std@@IAEXPAU_Node@?$_Tree_nod@V?$_Tmap_traits@PAUHWND__@@UCWndData@@U?$less@PAUHWND__@@@std@@V?$allocator@U?$pair@QAUHWND__@@UCWndData@@@std@@@4@$0A@@std@@@2@@Z ENDP ; std::_Tree<std::_Tmap_traits<HWND__ *,CWndData,std::less<HWND__ *>,std::allocator<std::pair<HWND__ * const,CWndData> >,0> >::_Rrotate
_TEXT	ENDS
PUBLIC	?allocate@?$allocator@U_Node@?$_Tree_nod@V?$_Tmap_traits@PAUHWND__@@UCWndData@@U?$less@PAUHWND__@@@std@@V?$allocator@U?$pair@QAUHWND__@@UCWndData@@@std@@@4@$0A@@std@@@std@@@std@@QAEPAU_Node@?$_Tree_nod@V?$_Tmap_traits@PAUHWND__@@UCWndData@@U?$less@PAUHWND__@@@std@@V?$allocator@U?$pair@QAUHWND__@@UCWndData@@@std@@@4@$0A@@std@@@2@I@Z ; std::allocator<std::_Tree_nod<std::_Tmap_traits<HWND__ *,CWndData,std::less<HWND__ *>,std::allocator<std::pair<HWND__ * const,CWndData> >,0> >::_Node>::allocate
PUBLIC	?construct@?$allocator@PAU_Node@?$_Tree_nod@V?$_Tmap_traits@PAUHWND__@@UCWndData@@U?$less@PAUHWND__@@@std@@V?$allocator@U?$pair@QAUHWND__@@UCWndData@@@std@@@4@$0A@@std@@@std@@@std@@QAEXPAPAU_Node@?$_Tree_nod@V?$_Tmap_traits@PAUHWND__@@UCWndData@@U?$less@PAUHWND__@@@std@@V?$allocator@U?$pair@QAUHWND__@@UCWndData@@@std@@@4@$0A@@std@@@2@ABQAU342@@Z ; std::allocator<std::_Tree_nod<std::_Tmap_traits<HWND__ *,CWndData,std::less<HWND__ *>,std::allocator<std::pair<HWND__ * const,CWndData> >,0> >::_Node *>::construct
;	COMDAT xdata$x
xdata$x	SEGMENT
$T202935 DD	0ffffffffH
	DD	00H
	DD	0ffffffffH
	DD	00H
$T202937 DD	00H
	DD	00H
	DD	00H
	DD	FLAT:$L202931
$T202936 DD	00H
	DD	00H
	DD	01H
	DD	01H
	DD	FLAT:$T202937
$T202933 DD	019930520H
	DD	02H
	DD	FLAT:$T202935
	DD	01H
	DD	FLAT:$T202936
	DD	2 DUP(00H)
; Function compile flags: /Odt
xdata$x	ENDS
;	COMDAT ?_Buynode@?$_Tree@V?$_Tmap_traits@PAUHWND__@@UCWndData@@U?$less@PAUHWND__@@@std@@V?$allocator@U?$pair@QAUHWND__@@UCWndData@@@std@@@4@$0A@@std@@@std@@IAEPAU_Node@?$_Tree_nod@V?$_Tmap_traits@PAUHWND__@@UCWndData@@U?$less@PAUHWND__@@@std@@V?$allocator@U?$pair@QAUHWND__@@UCWndData@@@std@@@4@$0A@@std@@@2@XZ
_TEXT	SEGMENT
tv145 = -52						; size = 4
tv144 = -48						; size = 4
tv143 = -44						; size = 4
_this$ = -40						; size = 4
$T202929 = -36						; size = 4
$T202928 = -32						; size = 4
$T202927 = -28						; size = 4
__Wherenode$ = -24					; size = 4
__Linkcnt$ = -20					; size = 4
__$EHRec$ = -16						; size = 16
?_Buynode@?$_Tree@V?$_Tmap_traits@PAUHWND__@@UCWndData@@U?$less@PAUHWND__@@@std@@V?$allocator@U?$pair@QAUHWND__@@UCWndData@@@std@@@4@$0A@@std@@@std@@IAEPAU_Node@?$_Tree_nod@V?$_Tmap_traits@PAUHWND__@@UCWndData@@U?$less@PAUHWND__@@@std@@V?$allocator@U?$pair@QAUHWND__@@UCWndData@@@std@@@4@$0A@@std@@@2@XZ PROC NEAR ; std::_Tree<std::_Tmap_traits<HWND__ *,CWndData,std::less<HWND__ *>,std::allocator<std::pair<HWND__ * const,CWndData> >,0> >::_Buynode, COMDAT
; _this$ = ecx

; 1105 : 		{	// allocate a head/nil node

  00000	55		 push	 ebp
  00001	8b ec		 mov	 ebp, esp
  00003	6a ff		 push	 -1
  00005	68 00 00 00 00	 push	 __ehhandler$?_Buynode@?$_Tree@V?$_Tmap_traits@PAUHWND__@@UCWndData@@U?$less@PAUHWND__@@@std@@V?$allocator@U?$pair@QAUHWND__@@UCWndData@@@std@@@4@$0A@@std@@@std@@IAEPAU_Node@?$_Tree_nod@V?$_Tmap_traits@PAUHWND__@@UCWndData@@U?$less@PAUHWND__@@@std@@V?$allocator@U?$pair@QAUHWND__@@UCWndData@@@std@@@4@$0A@@std@@@2@XZ
  0000a	64 a1 00 00 00
	00		 mov	 eax, DWORD PTR fs:__except_list
  00010	50		 push	 eax
  00011	64 89 25 00 00
	00 00		 mov	 DWORD PTR fs:__except_list, esp
  00018	51		 push	 ecx
  00019	83 ec 24	 sub	 esp, 36			; 00000024H
  0001c	53		 push	 ebx
  0001d	56		 push	 esi
  0001e	57		 push	 edi
  0001f	89 65 f0	 mov	 DWORD PTR __$EHRec$[ebp], esp
  00022	89 4d d8	 mov	 DWORD PTR _this$[ebp], ecx

; 1106 : 		_Nodeptr _Wherenode = this->_Alnod.allocate(1);

  00025	6a 01		 push	 1
  00027	8b 4d d8	 mov	 ecx, DWORD PTR _this$[ebp]
  0002a	83 c1 01	 add	 ecx, 1
  0002d	e8 00 00 00 00	 call	 ?allocate@?$allocator@U_Node@?$_Tree_nod@V?$_Tmap_traits@PAUHWND__@@UCWndData@@U?$less@PAUHWND__@@@std@@V?$allocator@U?$pair@QAUHWND__@@UCWndData@@@std@@@4@$0A@@std@@@std@@@std@@QAEPAU_Node@?$_Tree_nod@V?$_Tmap_traits@PAUHWND__@@UCWndData@@U?$less@PAUHWND__@@@std@@V?$allocator@U?$pair@QAUHWND__@@UCWndData@@@std@@@4@$0A@@std@@@2@I@Z ; std::allocator<std::_Tree_nod<std::_Tmap_traits<HWND__ *,CWndData,std::less<HWND__ *>,std::allocator<std::pair<HWND__ * const,CWndData> >,0> >::_Node>::allocate
  00032	89 45 e8	 mov	 DWORD PTR __Wherenode$[ebp], eax

; 1107 : 		int _Linkcnt = 0;

  00035	c7 45 ec 00 00
	00 00		 mov	 DWORD PTR __Linkcnt$[ebp], 0

; 1108 : 
; 1109 : 		_TRY_BEGIN

  0003c	c7 45 fc 00 00
	00 00		 mov	 DWORD PTR __$EHRec$[ebp+12], 0

; 1110 : 		this->_Alptr.construct(&_Left(_Wherenode), 0);

  00043	c7 45 e4 00 00
	00 00		 mov	 DWORD PTR $T202927[ebp], 0
  0004a	8b 45 e8	 mov	 eax, DWORD PTR __Wherenode$[ebp]
  0004d	50		 push	 eax
  0004e	e8 00 00 00 00	 call	 ?_Left@?$_Tree@V?$_Tmap_traits@PAUHWND__@@UCWndData@@U?$less@PAUHWND__@@@std@@V?$allocator@U?$pair@QAUHWND__@@UCWndData@@@std@@@4@$0A@@std@@@std@@KAAAPAU_Node@?$_Tree_nod@V?$_Tmap_traits@PAUHWND__@@UCWndData@@U?$less@PAUHWND__@@@std@@V?$allocator@U?$pair@QAUHWND__@@UCWndData@@@std@@@4@$0A@@std@@@2@PAU342@@Z ; std::_Tree<std::_Tmap_traits<HWND__ *,CWndData,std::less<HWND__ *>,std::allocator<std::pair<HWND__ * const,CWndData> >,0> >::_Left
  00053	83 c4 04	 add	 esp, 4
  00056	89 45 d4	 mov	 DWORD PTR tv143[ebp], eax
  00059	8d 4d e4	 lea	 ecx, DWORD PTR $T202927[ebp]
  0005c	51		 push	 ecx
  0005d	8b 55 d4	 mov	 edx, DWORD PTR tv143[ebp]
  00060	52		 push	 edx
  00061	8b 4d d8	 mov	 ecx, DWORD PTR _this$[ebp]
  00064	83 c1 02	 add	 ecx, 2
  00067	e8 00 00 00 00	 call	 ?construct@?$allocator@PAU_Node@?$_Tree_nod@V?$_Tmap_traits@PAUHWND__@@UCWndData@@U?$less@PAUHWND__@@@std@@V?$allocator@U?$pair@QAUHWND__@@UCWndData@@@std@@@4@$0A@@std@@@std@@@std@@QAEXPAPAU_Node@?$_Tree_nod@V?$_Tmap_traits@PAUHWND__@@UCWndData@@U?$less@PAUHWND__@@@std@@V?$allocator@U?$pair@QAUHWND__@@UCWndData@@@std@@@4@$0A@@std@@@2@ABQAU342@@Z ; std::allocator<std::_Tree_nod<std::_Tmap_traits<HWND__ *,CWndData,std::less<HWND__ *>,std::allocator<std::pair<HWND__ * const,CWndData> >,0> >::_Node *>::construct

; 1111 : 		++_Linkcnt;

  0006c	8b 45 ec	 mov	 eax, DWORD PTR __Linkcnt$[ebp]
  0006f	83 c0 01	 add	 eax, 1
  00072	89 45 ec	 mov	 DWORD PTR __Linkcnt$[ebp], eax

; 1112 : 		this->_Alptr.construct(&_Parent(_Wherenode), 0);

  00075	c7 45 e0 00 00
	00 00		 mov	 DWORD PTR $T202928[ebp], 0
  0007c	8b 4d e8	 mov	 ecx, DWORD PTR __Wherenode$[ebp]
  0007f	51		 push	 ecx
  00080	e8 00 00 00 00	 call	 ?_Parent@?$_Tree@V?$_Tmap_traits@PAUHWND__@@UCWndData@@U?$less@PAUHWND__@@@std@@V?$allocator@U?$pair@QAUHWND__@@UCWndData@@@std@@@4@$0A@@std@@@std@@KAAAPAU_Node@?$_Tree_nod@V?$_Tmap_traits@PAUHWND__@@UCWndData@@U?$less@PAUHWND__@@@std@@V?$allocator@U?$pair@QAUHWND__@@UCWndData@@@std@@@4@$0A@@std@@@2@PAU342@@Z ; std::_Tree<std::_Tmap_traits<HWND__ *,CWndData,std::less<HWND__ *>,std::allocator<std::pair<HWND__ * const,CWndData> >,0> >::_Parent
  00085	83 c4 04	 add	 esp, 4
  00088	89 45 d0	 mov	 DWORD PTR tv144[ebp], eax
  0008b	8d 55 e0	 lea	 edx, DWORD PTR $T202928[ebp]
  0008e	52		 push	 edx
  0008f	8b 45 d0	 mov	 eax, DWORD PTR tv144[ebp]
  00092	50		 push	 eax
  00093	8b 4d d8	 mov	 ecx, DWORD PTR _this$[ebp]
  00096	83 c1 02	 add	 ecx, 2
  00099	e8 00 00 00 00	 call	 ?construct@?$allocator@PAU_Node@?$_Tree_nod@V?$_Tmap_traits@PAUHWND__@@UCWndData@@U?$less@PAUHWND__@@@std@@V?$allocator@U?$pair@QAUHWND__@@UCWndData@@@std@@@4@$0A@@std@@@std@@@std@@QAEXPAPAU_Node@?$_Tree_nod@V?$_Tmap_traits@PAUHWND__@@UCWndData@@U?$less@PAUHWND__@@@std@@V?$allocator@U?$pair@QAUHWND__@@UCWndData@@@std@@@4@$0A@@std@@@2@ABQAU342@@Z ; std::allocator<std::_Tree_nod<std::_Tmap_traits<HWND__ *,CWndData,std::less<HWND__ *>,std::allocator<std::pair<HWND__ * const,CWndData> >,0> >::_Node *>::construct

; 1113 : 		++_Linkcnt;

  0009e	8b 4d ec	 mov	 ecx, DWORD PTR __Linkcnt$[ebp]
  000a1	83 c1 01	 add	 ecx, 1
  000a4	89 4d ec	 mov	 DWORD PTR __Linkcnt$[ebp], ecx

; 1114 : 		this->_Alptr.construct(&_Right(_Wherenode), 0);

  000a7	c7 45 dc 00 00
	00 00		 mov	 DWORD PTR $T202929[ebp], 0
  000ae	8b 55 e8	 mov	 edx, DWORD PTR __Wherenode$[ebp]
  000b1	52		 push	 edx
  000b2	e8 00 00 00 00	 call	 ?_Right@?$_Tree@V?$_Tmap_traits@PAUHWND__@@UCWndData@@U?$less@PAUHWND__@@@std@@V?$allocator@U?$pair@QAUHWND__@@UCWndData@@@std@@@4@$0A@@std@@@std@@KAAAPAU_Node@?$_Tree_nod@V?$_Tmap_traits@PAUHWND__@@UCWndData@@U?$less@PAUHWND__@@@std@@V?$allocator@U?$pair@QAUHWND__@@UCWndData@@@std@@@4@$0A@@std@@@2@PAU342@@Z ; std::_Tree<std::_Tmap_traits<HWND__ *,CWndData,std::less<HWND__ *>,std::allocator<std::pair<HWND__ * const,CWndData> >,0> >::_Right
  000b7	83 c4 04	 add	 esp, 4
  000ba	89 45 cc	 mov	 DWORD PTR tv145[ebp], eax
  000bd	8d 45 dc	 lea	 eax, DWORD PTR $T202929[ebp]
  000c0	50		 push	 eax
  000c1	8b 4d cc	 mov	 ecx, DWORD PTR tv145[ebp]
  000c4	51		 push	 ecx
  000c5	8b 4d d8	 mov	 ecx, DWORD PTR _this$[ebp]
  000c8	83 c1 02	 add	 ecx, 2
  000cb	e8 00 00 00 00	 call	 ?construct@?$allocator@PAU_Node@?$_Tree_nod@V?$_Tmap_traits@PAUHWND__@@UCWndData@@U?$less@PAUHWND__@@@std@@V?$allocator@U?$pair@QAUHWND__@@UCWndData@@@std@@@4@$0A@@std@@@std@@@std@@QAEXPAPAU_Node@?$_Tree_nod@V?$_Tmap_traits@PAUHWND__@@UCWndData@@U?$less@PAUHWND__@@@std@@V?$allocator@U?$pair@QAUHWND__@@UCWndData@@@std@@@4@$0A@@std@@@2@ABQAU342@@Z ; std::allocator<std::_Tree_nod<std::_Tmap_traits<HWND__ *,CWndData,std::less<HWND__ *>,std::allocator<std::pair<HWND__ * const,CWndData> >,0> >::_Node *>::construct
  000d0	eb 56		 jmp	 SHORT $L202930
$L202931:

; 1115 : 		_CATCH_ALL
; 1116 : 		if (1 < _Linkcnt)

  000d2	83 7d ec 01	 cmp	 DWORD PTR __Linkcnt$[ebp], 1
  000d6	7e 18		 jle	 SHORT $L201240

; 1117 : 			this->_Alptr.destroy(&_Parent(_Wherenode));

  000d8	8b 55 e8	 mov	 edx, DWORD PTR __Wherenode$[ebp]
  000db	52		 push	 edx
  000dc	e8 00 00 00 00	 call	 ?_Parent@?$_Tree@V?$_Tmap_traits@PAUHWND__@@UCWndData@@U?$less@PAUHWND__@@@std@@V?$allocator@U?$pair@QAUHWND__@@UCWndData@@@std@@@4@$0A@@std@@@std@@KAAAPAU_Node@?$_Tree_nod@V?$_Tmap_traits@PAUHWND__@@UCWndData@@U?$less@PAUHWND__@@@std@@V?$allocator@U?$pair@QAUHWND__@@UCWndData@@@std@@@4@$0A@@std@@@2@PAU342@@Z ; std::_Tree<std::_Tmap_traits<HWND__ *,CWndData,std::less<HWND__ *>,std::allocator<std::pair<HWND__ * const,CWndData> >,0> >::_Parent
  000e1	83 c4 04	 add	 esp, 4
  000e4	50		 push	 eax
  000e5	8b 4d d8	 mov	 ecx, DWORD PTR _this$[ebp]
  000e8	83 c1 02	 add	 ecx, 2
  000eb	e8 00 00 00 00	 call	 ?destroy@?$allocator@PAU_Node@?$_Tree_nod@V?$_Tmap_traits@PAUHWND__@@UCWndData@@U?$less@PAUHWND__@@@std@@V?$allocator@U?$pair@QAUHWND__@@UCWndData@@@std@@@4@$0A@@std@@@std@@@std@@QAEXPAPAU_Node@?$_Tree_nod@V?$_Tmap_traits@PAUHWND__@@UCWndData@@U?$less@PAUHWND__@@@std@@V?$allocator@U?$pair@QAUHWND__@@UCWndData@@@std@@@4@$0A@@std@@@2@@Z ; std::allocator<std::_Tree_nod<std::_Tmap_traits<HWND__ *,CWndData,std::less<HWND__ *>,std::allocator<std::pair<HWND__ * const,CWndData> >,0> >::_Node *>::destroy
$L201240:

; 1118 : 		if (0 < _Linkcnt)

  000f0	83 7d ec 00	 cmp	 DWORD PTR __Linkcnt$[ebp], 0
  000f4	7e 18		 jle	 SHORT $L201241

; 1119 : 			this->_Alptr.destroy(&_Left(_Wherenode));

  000f6	8b 45 e8	 mov	 eax, DWORD PTR __Wherenode$[ebp]
  000f9	50		 push	 eax
  000fa	e8 00 00 00 00	 call	 ?_Left@?$_Tree@V?$_Tmap_traits@PAUHWND__@@UCWndData@@U?$less@PAUHWND__@@@std@@V?$allocator@U?$pair@QAUHWND__@@UCWndData@@@std@@@4@$0A@@std@@@std@@KAAAPAU_Node@?$_Tree_nod@V?$_Tmap_traits@PAUHWND__@@UCWndData@@U?$less@PAUHWND__@@@std@@V?$allocator@U?$pair@QAUHWND__@@UCWndData@@@std@@@4@$0A@@std@@@2@PAU342@@Z ; std::_Tree<std::_Tmap_traits<HWND__ *,CWndData,std::less<HWND__ *>,std::allocator<std::pair<HWND__ * const,CWndData> >,0> >::_Left
  000ff	83 c4 04	 add	 esp, 4
  00102	50		 push	 eax
  00103	8b 4d d8	 mov	 ecx, DWORD PTR _this$[ebp]
  00106	83 c1 02	 add	 ecx, 2
  00109	e8 00 00 00 00	 call	 ?destroy@?$allocator@PAU_Node@?$_Tree_nod@V?$_Tmap_traits@PAUHWND__@@UCWndData@@U?$less@PAUHWND__@@@std@@V?$allocator@U?$pair@QAUHWND__@@UCWndData@@@std@@@4@$0A@@std@@@std@@@std@@QAEXPAPAU_Node@?$_Tree_nod@V?$_Tmap_traits@PAUHWND__@@UCWndData@@U?$less@PAUHWND__@@@std@@V?$allocator@U?$pair@QAUHWND__@@UCWndData@@@std@@@4@$0A@@std@@@2@@Z ; std::allocator<std::_Tree_nod<std::_Tmap_traits<HWND__ *,CWndData,std::less<HWND__ *>,std::allocator<std::pair<HWND__ * const,CWndData> >,0> >::_Node *>::destroy
$L201241:

; 1120 : 		this->_Alnod.deallocate(_Wherenode, 1);

  0010e	6a 01		 push	 1
  00110	8b 4d e8	 mov	 ecx, DWORD PTR __Wherenode$[ebp]
  00113	51		 push	 ecx
  00114	8b 4d d8	 mov	 ecx, DWORD PTR _this$[ebp]
  00117	83 c1 01	 add	 ecx, 1
  0011a	e8 00 00 00 00	 call	 ?deallocate@?$allocator@U_Node@?$_Tree_nod@V?$_Tmap_traits@PAUHWND__@@UCWndData@@U?$less@PAUHWND__@@@std@@V?$allocator@U?$pair@QAUHWND__@@UCWndData@@@std@@@4@$0A@@std@@@std@@@std@@QAEXPAU_Node@?$_Tree_nod@V?$_Tmap_traits@PAUHWND__@@UCWndData@@U?$less@PAUHWND__@@@std@@V?$allocator@U?$pair@QAUHWND__@@UCWndData@@@std@@@4@$0A@@std@@@2@I@Z ; std::allocator<std::_Tree_nod<std::_Tmap_traits<HWND__ *,CWndData,std::less<HWND__ *>,std::allocator<std::pair<HWND__ * const,CWndData> >,0> >::_Node>::deallocate

; 1121 : 		_RERAISE;

  0011f	6a 00		 push	 0
  00121	6a 00		 push	 0
  00123	e8 00 00 00 00	 call	 __CxxThrowException@8
$L202930:

; 1122 : 		_CATCH_END

  00128	c7 45 fc ff ff
	ff ff		 mov	 DWORD PTR __$EHRec$[ebp+12], -1

; 1123 : 		_Color(_Wherenode) = _Black;

  0012f	8b 55 e8	 mov	 edx, DWORD PTR __Wherenode$[ebp]
  00132	52		 push	 edx
  00133	e8 00 00 00 00	 call	 ?_Color@?$_Tree@V?$_Tmap_traits@PAUHWND__@@UCWndData@@U?$less@PAUHWND__@@@std@@V?$allocator@U?$pair@QAUHWND__@@UCWndData@@@std@@@4@$0A@@std@@@std@@KAAADPAU_Node@?$_Tree_nod@V?$_Tmap_traits@PAUHWND__@@UCWndData@@U?$less@PAUHWND__@@@std@@V?$allocator@U?$pair@QAUHWND__@@UCWndData@@@std@@@4@$0A@@std@@@2@@Z ; std::_Tree<std::_Tmap_traits<HWND__ *,CWndData,std::less<HWND__ *>,std::allocator<std::pair<HWND__ * const,CWndData> >,0> >::_Color
  00138	83 c4 04	 add	 esp, 4
  0013b	c6 00 01	 mov	 BYTE PTR [eax], 1

; 1124 : 		_Isnil(_Wherenode) = false;

  0013e	8b 45 e8	 mov	 eax, DWORD PTR __Wherenode$[ebp]
  00141	50		 push	 eax
  00142	e8 00 00 00 00	 call	 ?_Isnil@?$_Tree@V?$_Tmap_traits@PAUHWND__@@UCWndData@@U?$less@PAUHWND__@@@std@@V?$allocator@U?$pair@QAUHWND__@@UCWndData@@@std@@@4@$0A@@std@@@std@@KAAADPAU_Node@?$_Tree_nod@V?$_Tmap_traits@PAUHWND__@@UCWndData@@U?$less@PAUHWND__@@@std@@V?$allocator@U?$pair@QAUHWND__@@UCWndData@@@std@@@4@$0A@@std@@@2@@Z ; std::_Tree<std::_Tmap_traits<HWND__ *,CWndData,std::less<HWND__ *>,std::allocator<std::pair<HWND__ * const,CWndData> >,0> >::_Isnil
  00147	83 c4 04	 add	 esp, 4
  0014a	c6 00 00	 mov	 BYTE PTR [eax], 0

; 1125 : 		return (_Wherenode);

  0014d	8b 45 e8	 mov	 eax, DWORD PTR __Wherenode$[ebp]
$L202926:

; 1126 : 		}

  00150	8b 4d f4	 mov	 ecx, DWORD PTR __$EHRec$[ebp+4]
  00153	64 89 0d 00 00
	00 00		 mov	 DWORD PTR fs:__except_list, ecx
  0015a	5f		 pop	 edi
  0015b	5e		 pop	 esi
  0015c	5b		 pop	 ebx
  0015d	8b e5		 mov	 esp, ebp
  0015f	5d		 pop	 ebp
  00160	c3		 ret	 0
_TEXT	ENDS
;	COMDAT text$x
text$x	SEGMENT
__ehhandler$?_Buynode@?$_Tree@V?$_Tmap_traits@PAUHWND__@@UCWndData@@U?$less@PAUHWND__@@@std@@V?$allocator@U?$pair@QAUHWND__@@UCWndData@@@std@@@4@$0A@@std@@@std@@IAEPAU_Node@?$_Tree_nod@V?$_Tmap_traits@PAUHWND__@@UCWndData@@U?$less@PAUHWND__@@@std@@V?$allocator@U?$pair@QAUHWND__@@UCWndData@@@std@@@4@$0A@@std@@@2@XZ:
  00000	b8 00 00 00 00	 mov	 eax, OFFSET FLAT:$T202933
  00005	e9 00 00 00 00	 jmp	 ___CxxFrameHandler
text$x	ENDS
?_Buynode@?$_Tree@V?$_Tmap_traits@PAUHWND__@@UCWndData@@U?$less@PAUHWND__@@@std@@V?$allocator@U?$pair@QAUHWND__@@UCWndData@@@std@@@4@$0A@@std@@@std@@IAEPAU_Node@?$_Tree_nod@V?$_Tmap_traits@PAUHWND__@@UCWndData@@U?$less@PAUHWND__@@@std@@V?$allocator@U?$pair@QAUHWND__@@UCWndData@@@std@@@4@$0A@@std@@@2@XZ ENDP ; std::_Tree<std::_Tmap_traits<HWND__ *,CWndData,std::less<HWND__ *>,std::allocator<std::pair<HWND__ * const,CWndData> >,0> >::_Buynode
PUBLIC	??0_Node@?$_Tree_nod@V?$_Tmap_traits@PAUHWND__@@UCWndData@@U?$less@PAUHWND__@@@std@@V?$allocator@U?$pair@QAUHWND__@@UCWndData@@@std@@@4@$0A@@std@@@std@@QAE@PAU012@00ABU?$pair@QAUHWND__@@UCWndData@@@2@D@Z ; std::_Tree_nod<std::_Tmap_traits<HWND__ *,CWndData,std::less<HWND__ *>,std::allocator<std::pair<HWND__ * const,CWndData> >,0> >::_Node::_Node
PUBLIC	??2@YAPAXIPAX@Z					; operator new
PUBLIC	??3@YAXPAX0@Z					; operator delete
;	COMDAT xdata$x
xdata$x	SEGMENT
$T202952 DD	0ffffffffH
	DD	00H
	DD	00H
	DD	FLAT:$L202948
	DD	0ffffffffH
	DD	00H
$T202954 DD	00H
	DD	00H
	DD	00H
	DD	FLAT:$L202947
$T202953 DD	00H
	DD	01H
	DD	02H
	DD	01H
	DD	FLAT:$T202954
$T202950 DD	019930520H
	DD	03H
	DD	FLAT:$T202952
	DD	01H
	DD	FLAT:$T202953
	DD	2 DUP(00H)
; Function compile flags: /Odt
xdata$x	ENDS
;	COMDAT ?_Buynode@?$_Tree@V?$_Tmap_traits@PAUHWND__@@UCWndData@@U?$less@PAUHWND__@@@std@@V?$allocator@U?$pair@QAUHWND__@@UCWndData@@@std@@@4@$0A@@std@@@std@@IAEPAU_Node@?$_Tree_nod@V?$_Tmap_traits@PAUHWND__@@UCWndData@@U?$less@PAUHWND__@@@std@@V?$allocator@U?$pair@QAUHWND__@@UCWndData@@@std@@@4@$0A@@std@@@2@PAU342@00ABU?$pair@QAUHWND__@@UCWndData@@@2@D@Z
_TEXT	SEGMENT
tv82 = -44						; size = 4
tv94 = -40						; size = 4
tv91 = -36						; size = 4
_this$ = -32						; size = 4
$T202943 = -28						; size = 4
$T202942 = -24						; size = 4
__Wherenode$ = -20					; size = 4
__$EHRec$ = -16						; size = 16
__Larg$ = 8						; size = 4
__Parg$ = 12						; size = 4
__Rarg$ = 16						; size = 4
__Val$ = 20						; size = 4
__Carg$ = 24						; size = 1
?_Buynode@?$_Tree@V?$_Tmap_traits@PAUHWND__@@UCWndData@@U?$less@PAUHWND__@@@std@@V?$allocator@U?$pair@QAUHWND__@@UCWndData@@@std@@@4@$0A@@std@@@std@@IAEPAU_Node@?$_Tree_nod@V?$_Tmap_traits@PAUHWND__@@UCWndData@@U?$less@PAUHWND__@@@std@@V?$allocator@U?$pair@QAUHWND__@@UCWndData@@@std@@@4@$0A@@std@@@2@PAU342@00ABU?$pair@QAUHWND__@@UCWndData@@@2@D@Z PROC NEAR ; std::_Tree<std::_Tmap_traits<HWND__ *,CWndData,std::less<HWND__ *>,std::allocator<std::pair<HWND__ * const,CWndData> >,0> >::_Buynode, COMDAT
; _this$ = ecx

; 1130 : 		{	// allocate a node with pointers, value, and color

  00000	55		 push	 ebp
  00001	8b ec		 mov	 ebp, esp
  00003	6a ff		 push	 -1
  00005	68 00 00 00 00	 push	 __ehhandler$?_Buynode@?$_Tree@V?$_Tmap_traits@PAUHWND__@@UCWndData@@U?$less@PAUHWND__@@@std@@V?$allocator@U?$pair@QAUHWND__@@UCWndData@@@std@@@4@$0A@@std@@@std@@IAEPAU_Node@?$_Tree_nod@V?$_Tmap_traits@PAUHWND__@@UCWndData@@U?$less@PAUHWND__@@@std@@V?$allocator@U?$pair@QAUHWND__@@UCWndData@@@std@@@4@$0A@@std@@@2@PAU342@00ABU?$pair@QAUHWND__@@UCWndData@@@2@D@Z
  0000a	64 a1 00 00 00
	00		 mov	 eax, DWORD PTR fs:__except_list
  00010	50		 push	 eax
  00011	64 89 25 00 00
	00 00		 mov	 DWORD PTR fs:__except_list, esp
  00018	51		 push	 ecx
  00019	83 ec 1c	 sub	 esp, 28			; 0000001cH
  0001c	53		 push	 ebx
  0001d	56		 push	 esi
  0001e	57		 push	 edi
  0001f	89 65 f0	 mov	 DWORD PTR __$EHRec$[ebp], esp
  00022	89 4d e0	 mov	 DWORD PTR _this$[ebp], ecx

; 1131 : 		_Nodeptr _Wherenode = this->_Alnod.allocate(1);

  00025	6a 01		 push	 1
  00027	8b 4d e0	 mov	 ecx, DWORD PTR _this$[ebp]
  0002a	83 c1 01	 add	 ecx, 1
  0002d	e8 00 00 00 00	 call	 ?allocate@?$allocator@U_Node@?$_Tree_nod@V?$_Tmap_traits@PAUHWND__@@UCWndData@@U?$less@PAUHWND__@@@std@@V?$allocator@U?$pair@QAUHWND__@@UCWndData@@@std@@@4@$0A@@std@@@std@@@std@@QAEPAU_Node@?$_Tree_nod@V?$_Tmap_traits@PAUHWND__@@UCWndData@@U?$less@PAUHWND__@@@std@@V?$allocator@U?$pair@QAUHWND__@@UCWndData@@@std@@@4@$0A@@std@@@2@I@Z ; std::allocator<std::_Tree_nod<std::_Tmap_traits<HWND__ *,CWndData,std::less<HWND__ *>,std::allocator<std::pair<HWND__ * const,CWndData> >,0> >::_Node>::allocate
  00032	89 45 ec	 mov	 DWORD PTR __Wherenode$[ebp], eax

; 1132 : 		_TRY_BEGIN

  00035	c7 45 fc 00 00
	00 00		 mov	 DWORD PTR __$EHRec$[ebp+12], 0

; 1133 : 		new (_Wherenode) _Node(_Larg, _Parg, _Rarg, _Val, _Carg);

  0003c	8b 45 ec	 mov	 eax, DWORD PTR __Wherenode$[ebp]
  0003f	50		 push	 eax
  00040	6a 1c		 push	 28			; 0000001cH
  00042	e8 00 00 00 00	 call	 ??2@YAPAXIPAX@Z		; operator new
  00047	83 c4 08	 add	 esp, 8
  0004a	89 45 dc	 mov	 DWORD PTR tv91[ebp], eax
  0004d	8b 4d dc	 mov	 ecx, DWORD PTR tv91[ebp]
  00050	89 4d e4	 mov	 DWORD PTR $T202943[ebp], ecx
  00053	c6 45 fc 01	 mov	 BYTE PTR __$EHRec$[ebp+12], 1
  00057	83 7d e4 00	 cmp	 DWORD PTR $T202943[ebp], 0
  0005b	74 27		 je	 SHORT $L202944
  0005d	8a 55 18	 mov	 dl, BYTE PTR __Carg$[ebp]
  00060	52		 push	 edx
  00061	8b 45 14	 mov	 eax, DWORD PTR __Val$[ebp]
  00064	50		 push	 eax
  00065	8b 4d 10	 mov	 ecx, DWORD PTR __Rarg$[ebp]
  00068	51		 push	 ecx
  00069	8b 55 0c	 mov	 edx, DWORD PTR __Parg$[ebp]
  0006c	52		 push	 edx
  0006d	8b 45 08	 mov	 eax, DWORD PTR __Larg$[ebp]
  00070	50		 push	 eax
  00071	8b 4d e4	 mov	 ecx, DWORD PTR $T202943[ebp]
  00074	e8 00 00 00 00	 call	 ??0_Node@?$_Tree_nod@V?$_Tmap_traits@PAUHWND__@@UCWndData@@U?$less@PAUHWND__@@@std@@V?$allocator@U?$pair@QAUHWND__@@UCWndData@@@std@@@4@$0A@@std@@@std@@QAE@PAU012@00ABU?$pair@QAUHWND__@@UCWndData@@@2@D@Z ; std::_Tree_nod<std::_Tmap_traits<HWND__ *,CWndData,std::less<HWND__ *>,std::allocator<std::pair<HWND__ * const,CWndData> >,0> >::_Node::_Node
  00079	89 45 d8	 mov	 DWORD PTR tv94[ebp], eax
  0007c	8b 4d d8	 mov	 ecx, DWORD PTR tv94[ebp]
  0007f	89 4d d4	 mov	 DWORD PTR tv82[ebp], ecx
  00082	eb 07		 jmp	 SHORT $L202945
$L202944:
  00084	c7 45 d4 00 00
	00 00		 mov	 DWORD PTR tv82[ebp], 0
$L202945:
  0008b	8b 55 d4	 mov	 edx, DWORD PTR tv82[ebp]
  0008e	89 55 e8	 mov	 DWORD PTR $T202942[ebp], edx
  00091	c6 45 fc 00	 mov	 BYTE PTR __$EHRec$[ebp+12], 0
  00095	eb 1a		 jmp	 SHORT $L202946
$L202947:

; 1134 : 		_CATCH_ALL
; 1135 : 		this->_Alnod.deallocate(_Wherenode, 1);

  00097	6a 01		 push	 1
  00099	8b 45 ec	 mov	 eax, DWORD PTR __Wherenode$[ebp]
  0009c	50		 push	 eax
  0009d	8b 4d e0	 mov	 ecx, DWORD PTR _this$[ebp]
  000a0	83 c1 01	 add	 ecx, 1
  000a3	e8 00 00 00 00	 call	 ?deallocate@?$allocator@U_Node@?$_Tree_nod@V?$_Tmap_traits@PAUHWND__@@UCWndData@@U?$less@PAUHWND__@@@std@@V?$allocator@U?$pair@QAUHWND__@@UCWndData@@@std@@@4@$0A@@std@@@std@@@std@@QAEXPAU_Node@?$_Tree_nod@V?$_Tmap_traits@PAUHWND__@@UCWndData@@U?$less@PAUHWND__@@@std@@V?$allocator@U?$pair@QAUHWND__@@UCWndData@@@std@@@4@$0A@@std@@@2@I@Z ; std::allocator<std::_Tree_nod<std::_Tmap_traits<HWND__ *,CWndData,std::less<HWND__ *>,std::allocator<std::pair<HWND__ * const,CWndData> >,0> >::_Node>::deallocate

; 1136 : 		_RERAISE;

  000a8	6a 00		 push	 0
  000aa	6a 00		 push	 0
  000ac	e8 00 00 00 00	 call	 __CxxThrowException@8
$L202946:

; 1137 : 		_CATCH_END

  000b1	c7 45 fc ff ff
	ff ff		 mov	 DWORD PTR __$EHRec$[ebp+12], -1

; 1138 : 		return (_Wherenode);

  000b8	8b 45 ec	 mov	 eax, DWORD PTR __Wherenode$[ebp]
$L202941:

; 1139 : 		}

  000bb	8b 4d f4	 mov	 ecx, DWORD PTR __$EHRec$[ebp+4]
  000be	64 89 0d 00 00
	00 00		 mov	 DWORD PTR fs:__except_list, ecx
  000c5	5f		 pop	 edi
  000c6	5e		 pop	 esi
  000c7	5b		 pop	 ebx
  000c8	8b e5		 mov	 esp, ebp
  000ca	5d		 pop	 ebp
  000cb	c2 14 00	 ret	 20			; 00000014H
_TEXT	ENDS
;	COMDAT text$x
text$x	SEGMENT
$L202948:
  00000	8b 45 ec	 mov	 eax, DWORD PTR __Wherenode$[ebp]
  00003	50		 push	 eax
  00004	8b 4d e4	 mov	 ecx, DWORD PTR $T202943[ebp]
  00007	51		 push	 ecx
  00008	e8 00 00 00 00	 call	 ??3@YAXPAX0@Z		; operator delete
  0000d	83 c4 08	 add	 esp, 8
  00010	c3		 ret	 0
__ehhandler$?_Buynode@?$_Tree@V?$_Tmap_traits@PAUHWND__@@UCWndData@@U?$less@PAUHWND__@@@std@@V?$allocator@U?$pair@QAUHWND__@@UCWndData@@@std@@@4@$0A@@std@@@std@@IAEPAU_Node@?$_Tree_nod@V?$_Tmap_traits@PAUHWND__@@UCWndData@@U?$less@PAUHWND__@@@std@@V?$allocator@U?$pair@QAUHWND__@@UCWndData@@@std@@@4@$0A@@std@@@2@PAU342@00ABU?$pair@QAUHWND__@@UCWndData@@@2@D@Z:
  00011	b8 00 00 00 00	 mov	 eax, OFFSET FLAT:$T202950
  00016	e9 00 00 00 00	 jmp	 ___CxxFrameHandler
text$x	ENDS
?_Buynode@?$_Tree@V?$_Tmap_traits@PAUHWND__@@UCWndData@@U?$less@PAUHWND__@@@std@@V?$allocator@U?$pair@QAUHWND__@@UCWndData@@@std@@@4@$0A@@std@@@std@@IAEPAU_Node@?$_Tree_nod@V?$_Tmap_traits@PAUHWND__@@UCWndData@@U?$less@PAUHWND__@@@std@@V?$allocator@U?$pair@QAUHWND__@@UCWndData@@@std@@@4@$0A@@std@@@2@PAU342@00ABU?$pair@QAUHWND__@@UCWndData@@@2@D@Z ENDP ; std::_Tree<std::_Tmap_traits<HWND__ *,CWndData,std::less<HWND__ *>,std::allocator<std::pair<HWND__ * const,CWndData> >,0> >::_Buynode
; Function compile flags: /Odt
; File d:\program files (x86)\microsoft visual studio .net 2003\vc7\include\new.h
;	COMDAT ??2@YAPAXIPAX@Z
_TEXT	SEGMENT
___formal$ = 8						; size = 4
__P$ = 12						; size = 4
??2@YAPAXIPAX@Z PROC NEAR				; operator new, COMDAT

; 109  :         {return (_P); }

  00000	55		 push	 ebp
  00001	8b ec		 mov	 ebp, esp
  00003	8b 45 0c	 mov	 eax, DWORD PTR __P$[ebp]
  00006	5d		 pop	 ebp
  00007	c3		 ret	 0
??2@YAPAXIPAX@Z ENDP					; operator new
; Function compile flags: /Odt
_TEXT	ENDS
;	COMDAT ??3@YAXPAX0@Z
_TEXT	SEGMENT
___formal$ = 8						; size = 4
___formal$ = 12						; size = 4
??3@YAXPAX0@Z PROC NEAR					; operator delete, COMDAT

; 112  :         {return; }

  00000	55		 push	 ebp
  00001	8b ec		 mov	 ebp, esp
  00003	5d		 pop	 ebp
  00004	c3		 ret	 0
??3@YAXPAX0@Z ENDP					; operator delete
_TEXT	ENDS
PUBLIC	??0?$_Tree_nod@V?$_Tmap_traits@PAUHWND__@@UCWndData@@U?$less@PAUHWND__@@@std@@V?$allocator@U?$pair@QAUHWND__@@UCWndData@@@std@@@4@$0A@@std@@@std@@IAE@ABU?$less@PAUHWND__@@@1@V?$allocator@U?$pair@QAUHWND__@@UCWndData@@@std@@@1@@Z ; std::_Tree_nod<std::_Tmap_traits<HWND__ *,CWndData,std::less<HWND__ *>,std::allocator<std::pair<HWND__ * const,CWndData> >,0> >::_Tree_nod<std::_Tmap_traits<HWND__ *,CWndData,std::less<HWND__ *>,std::allocator<std::pair<HWND__ * const,CWndData> >,0> >
PUBLIC	??$?0U?$pair@QAUHWND__@@UCWndData@@@std@@@?$allocator@PAU_Node@?$_Tree_nod@V?$_Tmap_traits@PAUHWND__@@UCWndData@@U?$less@PAUHWND__@@@std@@V?$allocator@U?$pair@QAUHWND__@@UCWndData@@@std@@@4@$0A@@std@@@std@@@std@@QAE@ABV?$allocator@U?$pair@QAUHWND__@@UCWndData@@@std@@@1@@Z ; std::allocator<std::_Tree_nod<std::_Tmap_traits<HWND__ *,CWndData,std::less<HWND__ *>,std::allocator<std::pair<HWND__ * const,CWndData> >,0> >::_Node *>::allocator<std::_Tree_nod<std::_Tmap_traits<HWND__ *,CWndData,std::less<HWND__ *>,std::allocator<std::pair<HWND__ * const,CWndData> >,0> >::_Node *><std::pair<HWND__ * const,CWndData> >
; Function compile flags: /Odt
; File d:\program files (x86)\microsoft visual studio .net 2003\vc7\include\xtree
;	COMDAT ??0?$_Tree_ptr@V?$_Tmap_traits@PAUHWND__@@UCWndData@@U?$less@PAUHWND__@@@std@@V?$allocator@U?$pair@QAUHWND__@@UCWndData@@@std@@@4@$0A@@std@@@std@@IAE@ABU?$less@PAUHWND__@@@1@V?$allocator@U?$pair@QAUHWND__@@UCWndData@@@std@@@1@@Z
_TEXT	SEGMENT
_this$ = -8						; size = 4
__Parg$ = 8						; size = 4
__Al$ = 12						; size = 1
??0?$_Tree_ptr@V?$_Tmap_traits@PAUHWND__@@UCWndData@@U?$less@PAUHWND__@@@std@@V?$allocator@U?$pair@QAUHWND__@@UCWndData@@@std@@@4@$0A@@std@@@std@@IAE@ABU?$less@PAUHWND__@@@1@V?$allocator@U?$pair@QAUHWND__@@UCWndData@@@std@@@1@@Z PROC NEAR ; std::_Tree_ptr<std::_Tmap_traits<HWND__ *,CWndData,std::less<HWND__ *>,std::allocator<std::pair<HWND__ * const,CWndData> >,0> >::_Tree_ptr<std::_Tmap_traits<HWND__ *,CWndData,std::less<HWND__ *>,std::allocator<std::pair<HWND__ * const,CWndData> >,0> >, COMDAT
; _this$ = ecx

; 76   : 		{	// construct base, and allocator from _Al

  00000	55		 push	 ebp
  00001	8b ec		 mov	 ebp, esp
  00003	83 ec 08	 sub	 esp, 8
  00006	89 4d f8	 mov	 DWORD PTR _this$[ebp], ecx
  00009	51		 push	 ecx
  0000a	8b cc		 mov	 ecx, esp
  0000c	8d 45 0c	 lea	 eax, DWORD PTR __Al$[ebp]
  0000f	50		 push	 eax
  00010	e8 00 00 00 00	 call	 ??0?$allocator@U?$pair@QAUHWND__@@UCWndData@@@std@@@std@@QAE@ABV01@@Z ; std::allocator<std::pair<HWND__ * const,CWndData> >::allocator<std::pair<HWND__ * const,CWndData> >
  00015	8b 4d 08	 mov	 ecx, DWORD PTR __Parg$[ebp]
  00018	51		 push	 ecx
  00019	8b 4d f8	 mov	 ecx, DWORD PTR _this$[ebp]
  0001c	e8 00 00 00 00	 call	 ??0?$_Tree_nod@V?$_Tmap_traits@PAUHWND__@@UCWndData@@U?$less@PAUHWND__@@@std@@V?$allocator@U?$pair@QAUHWND__@@UCWndData@@@std@@@4@$0A@@std@@@std@@IAE@ABU?$less@PAUHWND__@@@1@V?$allocator@U?$pair@QAUHWND__@@UCWndData@@@std@@@1@@Z ; std::_Tree_nod<std::_Tmap_traits<HWND__ *,CWndData,std::less<HWND__ *>,std::allocator<std::pair<HWND__ * const,CWndData> >,0> >::_Tree_nod<std::_Tmap_traits<HWND__ *,CWndData,std::less<HWND__ *>,std::allocator<std::pair<HWND__ * const,CWndData> >,0> >
  00021	8d 55 0c	 lea	 edx, DWORD PTR __Al$[ebp]
  00024	52		 push	 edx
  00025	8b 4d f8	 mov	 ecx, DWORD PTR _this$[ebp]
  00028	83 c1 02	 add	 ecx, 2
  0002b	e8 00 00 00 00	 call	 ??$?0U?$pair@QAUHWND__@@UCWndData@@@std@@@?$allocator@PAU_Node@?$_Tree_nod@V?$_Tmap_traits@PAUHWND__@@UCWndData@@U?$less@PAUHWND__@@@std@@V?$allocator@U?$pair@QAUHWND__@@UCWndData@@@std@@@4@$0A@@std@@@std@@@std@@QAE@ABV?$allocator@U?$pair@QAUHWND__@@UCWndData@@@std@@@1@@Z ; std::allocator<std::_Tree_nod<std::_Tmap_traits<HWND__ *,CWndData,std::less<HWND__ *>,std::allocator<std::pair<HWND__ * const,CWndData> >,0> >::_Node *>::allocator<std::_Tree_nod<std::_Tmap_traits<HWND__ *,CWndData,std::less<HWND__ *>,std::allocator<std::pair<HWND__ * const,CWndData> >,0> >::_Node *><std::pair<HWND__ * const,CWndData> >

; 77   : 		}

  00030	8b 45 f8	 mov	 eax, DWORD PTR _this$[ebp]
  00033	8b e5		 mov	 esp, ebp
  00035	5d		 pop	 ebp
  00036	c2 08 00	 ret	 8
??0?$_Tree_ptr@V?$_Tmap_traits@PAUHWND__@@UCWndData@@U?$less@PAUHWND__@@@std@@V?$allocator@U?$pair@QAUHWND__@@UCWndData@@@std@@@4@$0A@@std@@@std@@IAE@ABU?$less@PAUHWND__@@@1@V?$allocator@U?$pair@QAUHWND__@@UCWndData@@@std@@@1@@Z ENDP ; std::_Tree_ptr<std::_Tmap_traits<HWND__ *,CWndData,std::less<HWND__ *>,std::allocator<std::pair<HWND__ * const,CWndData> >,0> >::_Tree_ptr<std::_Tmap_traits<HWND__ *,CWndData,std::less<HWND__ *>,std::allocator<std::pair<HWND__ * const,CWndData> >,0> >
; Function compile flags: /Odt
; File d:\program files (x86)\microsoft visual studio .net 2003\vc7\include\xmemory
_TEXT	ENDS
;	COMDAT ?max_size@?$allocator@PAVCHostWnd@@@std@@QBEIXZ
_TEXT	SEGMENT
tv65 = -12						; size = 4
_this$ = -8						; size = 4
__Count$ = -4						; size = 4
?max_size@?$allocator@PAVCHostWnd@@@std@@QBEIXZ PROC NEAR ; std::allocator<CHostWnd *>::max_size, COMDAT
; _this$ = ecx

; 156  : 		{	// estimate maximum array size

  00000	55		 push	 ebp
  00001	8b ec		 mov	 ebp, esp
  00003	83 ec 0c	 sub	 esp, 12			; 0000000cH
  00006	89 4d f8	 mov	 DWORD PTR _this$[ebp], ecx

; 157  : 		_SIZT _Count = (_SIZT)(-1) / sizeof (_Ty);

  00009	c7 45 fc ff ff
	ff 3f		 mov	 DWORD PTR __Count$[ebp], 1073741823 ; 3fffffffH

; 158  : 		return (0 < _Count ? _Count : 1);

  00010	83 7d fc 00	 cmp	 DWORD PTR __Count$[ebp], 0
  00014	76 08		 jbe	 SHORT $L202966
  00016	8b 45 fc	 mov	 eax, DWORD PTR __Count$[ebp]
  00019	89 45 f4	 mov	 DWORD PTR tv65[ebp], eax
  0001c	eb 07		 jmp	 SHORT $L202967
$L202966:
  0001e	c7 45 f4 01 00
	00 00		 mov	 DWORD PTR tv65[ebp], 1
$L202967:
  00025	8b 45 f4	 mov	 eax, DWORD PTR tv65[ebp]

; 159  : 		}

  00028	8b e5		 mov	 esp, ebp
  0002a	5d		 pop	 ebp
  0002b	c3		 ret	 0
?max_size@?$allocator@PAVCHostWnd@@@std@@QBEIXZ ENDP	; std::allocator<CHostWnd *>::max_size
; Function compile flags: /Odt
_TEXT	ENDS
;	COMDAT ?max_size@?$allocator@PAVILyricPopupWndShowObserver@@@std@@QBEIXZ
_TEXT	SEGMENT
tv65 = -12						; size = 4
_this$ = -8						; size = 4
__Count$ = -4						; size = 4
?max_size@?$allocator@PAVILyricPopupWndShowObserver@@@std@@QBEIXZ PROC NEAR ; std::allocator<ILyricPopupWndShowObserver *>::max_size, COMDAT
; _this$ = ecx

; 156  : 		{	// estimate maximum array size

  00000	55		 push	 ebp
  00001	8b ec		 mov	 ebp, esp
  00003	83 ec 0c	 sub	 esp, 12			; 0000000cH
  00006	89 4d f8	 mov	 DWORD PTR _this$[ebp], ecx

; 157  : 		_SIZT _Count = (_SIZT)(-1) / sizeof (_Ty);

  00009	c7 45 fc ff ff
	ff 3f		 mov	 DWORD PTR __Count$[ebp], 1073741823 ; 3fffffffH

; 158  : 		return (0 < _Count ? _Count : 1);

  00010	83 7d fc 00	 cmp	 DWORD PTR __Count$[ebp], 0
  00014	76 08		 jbe	 SHORT $L202970
  00016	8b 45 fc	 mov	 eax, DWORD PTR __Count$[ebp]
  00019	89 45 f4	 mov	 DWORD PTR tv65[ebp], eax
  0001c	eb 07		 jmp	 SHORT $L202971
$L202970:
  0001e	c7 45 f4 01 00
	00 00		 mov	 DWORD PTR tv65[ebp], 1
$L202971:
  00025	8b 45 f4	 mov	 eax, DWORD PTR tv65[ebp]

; 159  : 		}

  00028	8b e5		 mov	 esp, ebp
  0002a	5d		 pop	 ebp
  0002b	c3		 ret	 0
?max_size@?$allocator@PAVILyricPopupWndShowObserver@@@std@@QBEIXZ ENDP ; std::allocator<ILyricPopupWndShowObserver *>::max_size
; Function compile flags: /Odt
; File d:\program files (x86)\microsoft visual studio .net 2003\vc7\include\xtree
_TEXT	ENDS
;	COMDAT ??0const_iterator@?$_Tree@V?$_Tmap_traits@PAUHWND__@@UCWndData@@U?$less@PAUHWND__@@@std@@V?$allocator@U?$pair@QAUHWND__@@UCWndData@@@std@@@4@$0A@@std@@@std@@QAE@XZ
_TEXT	SEGMENT
_this$ = -4						; size = 4
??0const_iterator@?$_Tree@V?$_Tmap_traits@PAUHWND__@@UCWndData@@U?$less@PAUHWND__@@@std@@V?$allocator@U?$pair@QAUHWND__@@UCWndData@@@std@@@4@$0A@@std@@@std@@QAE@XZ PROC NEAR ; std::_Tree<std::_Tmap_traits<HWND__ *,CWndData,std::less<HWND__ *>,std::allocator<std::pair<HWND__ * const,CWndData> >,0> >::const_iterator::const_iterator, COMDAT
; _this$ = ecx

; 193  : 			{	// construct with null node pointer

  00000	55		 push	 ebp
  00001	8b ec		 mov	 ebp, esp
  00003	51		 push	 ecx
  00004	89 4d fc	 mov	 DWORD PTR _this$[ebp], ecx
  00007	8b 45 fc	 mov	 eax, DWORD PTR _this$[ebp]
  0000a	c7 00 00 00 00
	00		 mov	 DWORD PTR [eax], 0

; 194  : 			}

  00010	8b 45 fc	 mov	 eax, DWORD PTR _this$[ebp]
  00013	8b e5		 mov	 esp, ebp
  00015	5d		 pop	 ebp
  00016	c3		 ret	 0
??0const_iterator@?$_Tree@V?$_Tmap_traits@PAUHWND__@@UCWndData@@U?$less@PAUHWND__@@@std@@V?$allocator@U?$pair@QAUHWND__@@UCWndData@@@std@@@4@$0A@@std@@@std@@QAE@XZ ENDP ; std::_Tree<std::_Tmap_traits<HWND__ *,CWndData,std::less<HWND__ *>,std::allocator<std::pair<HWND__ * const,CWndData> >,0> >::const_iterator::const_iterator
_TEXT	ENDS
PUBLIC	?_Dec@const_iterator@?$_Tree@V?$_Tmap_traits@PAUHWND__@@UCWndData@@U?$less@PAUHWND__@@@std@@V?$allocator@U?$pair@QAUHWND__@@UCWndData@@@std@@@4@$0A@@std@@@std@@QAEXXZ ; std::_Tree<std::_Tmap_traits<HWND__ *,CWndData,std::less<HWND__ *>,std::allocator<std::pair<HWND__ * const,CWndData> >,0> >::const_iterator::_Dec
; Function compile flags: /Odt
;	COMDAT ??Fconst_iterator@?$_Tree@V?$_Tmap_traits@PAUHWND__@@UCWndData@@U?$less@PAUHWND__@@@std@@V?$allocator@U?$pair@QAUHWND__@@UCWndData@@@std@@@4@$0A@@std@@@std@@QAEAAV012@XZ
_TEXT	SEGMENT
_this$ = -4						; size = 4
??Fconst_iterator@?$_Tree@V?$_Tmap_traits@PAUHWND__@@UCWndData@@U?$less@PAUHWND__@@@std@@V?$allocator@U?$pair@QAUHWND__@@UCWndData@@@std@@@4@$0A@@std@@@std@@QAEAAV012@XZ PROC NEAR ; std::_Tree<std::_Tmap_traits<HWND__ *,CWndData,std::less<HWND__ *>,std::allocator<std::pair<HWND__ * const,CWndData> >,0> >::const_iterator::operator--, COMDAT
; _this$ = ecx

; 227  : 			{	// predecrement

  00000	55		 push	 ebp
  00001	8b ec		 mov	 ebp, esp
  00003	51		 push	 ecx
  00004	89 4d fc	 mov	 DWORD PTR _this$[ebp], ecx

; 228  : 			_Dec();

  00007	8b 4d fc	 mov	 ecx, DWORD PTR _this$[ebp]
  0000a	e8 00 00 00 00	 call	 ?_Dec@const_iterator@?$_Tree@V?$_Tmap_traits@PAUHWND__@@UCWndData@@U?$less@PAUHWND__@@@std@@V?$allocator@U?$pair@QAUHWND__@@UCWndData@@@std@@@4@$0A@@std@@@std@@QAEXXZ ; std::_Tree<std::_Tmap_traits<HWND__ *,CWndData,std::less<HWND__ *>,std::allocator<std::pair<HWND__ * const,CWndData> >,0> >::const_iterator::_Dec

; 229  : 			return (*this);

  0000f	8b 45 fc	 mov	 eax, DWORD PTR _this$[ebp]

; 230  : 			}

  00012	8b e5		 mov	 esp, ebp
  00014	5d		 pop	 ebp
  00015	c3		 ret	 0
??Fconst_iterator@?$_Tree@V?$_Tmap_traits@PAUHWND__@@UCWndData@@U?$less@PAUHWND__@@@std@@V?$allocator@U?$pair@QAUHWND__@@UCWndData@@@std@@@4@$0A@@std@@@std@@QAEAAV012@XZ ENDP ; std::_Tree<std::_Tmap_traits<HWND__ *,CWndData,std::less<HWND__ *>,std::allocator<std::pair<HWND__ * const,CWndData> >,0> >::const_iterator::operator--
; Function compile flags: /Odt
_TEXT	ENDS
;	COMDAT ?_Inc@const_iterator@?$_Tree@V?$_Tmap_traits@PAUHWND__@@UCWndData@@U?$less@PAUHWND__@@@std@@V?$allocator@U?$pair@QAUHWND__@@UCWndData@@@std@@@4@$0A@@std@@@std@@QAEXXZ
_TEXT	SEGMENT
_this$ = -8						; size = 4
__Pnode$201277 = -4					; size = 4
?_Inc@const_iterator@?$_Tree@V?$_Tmap_traits@PAUHWND__@@UCWndData@@U?$less@PAUHWND__@@@std@@V?$allocator@U?$pair@QAUHWND__@@UCWndData@@@std@@@4@$0A@@std@@@std@@QAEXXZ PROC NEAR ; std::_Tree<std::_Tmap_traits<HWND__ *,CWndData,std::less<HWND__ *>,std::allocator<std::pair<HWND__ * const,CWndData> >,0> >::const_iterator::_Inc, COMDAT
; _this$ = ecx

; 267  : 			{	// move to node with next larger value

  00000	55		 push	 ebp
  00001	8b ec		 mov	 ebp, esp
  00003	83 ec 08	 sub	 esp, 8
  00006	89 4d f8	 mov	 DWORD PTR _this$[ebp], ecx

; 268  : 			if (_Isnil(_Ptr))

  00009	8b 45 f8	 mov	 eax, DWORD PTR _this$[ebp]
  0000c	8b 08		 mov	 ecx, DWORD PTR [eax]
  0000e	51		 push	 ecx
  0000f	e8 00 00 00 00	 call	 ?_Isnil@?$_Tree@V?$_Tmap_traits@PAUHWND__@@UCWndData@@U?$less@PAUHWND__@@@std@@V?$allocator@U?$pair@QAUHWND__@@UCWndData@@@std@@@4@$0A@@std@@@std@@KAAADPAU_Node@?$_Tree_nod@V?$_Tmap_traits@PAUHWND__@@UCWndData@@U?$less@PAUHWND__@@@std@@V?$allocator@U?$pair@QAUHWND__@@UCWndData@@@std@@@4@$0A@@std@@@2@@Z ; std::_Tree<std::_Tmap_traits<HWND__ *,CWndData,std::less<HWND__ *>,std::allocator<std::pair<HWND__ * const,CWndData> >,0> >::_Isnil
  00014	83 c4 04	 add	 esp, 4
  00017	0f be 10	 movsx	 edx, BYTE PTR [eax]
  0001a	85 d2		 test	 edx, edx
  0001c	74 05		 je	 SHORT $L201273

; 269  : 				;	// end() shouldn't be incremented, don't move
; 270  : 			else if (!_Isnil(_Right(_Ptr)))

  0001e	e9 8d 00 00 00	 jmp	 $L201272
$L201273:
  00023	8b 45 f8	 mov	 eax, DWORD PTR _this$[ebp]
  00026	8b 08		 mov	 ecx, DWORD PTR [eax]
  00028	51		 push	 ecx
  00029	e8 00 00 00 00	 call	 ?_Right@?$_Tree@V?$_Tmap_traits@PAUHWND__@@UCWndData@@U?$less@PAUHWND__@@@std@@V?$allocator@U?$pair@QAUHWND__@@UCWndData@@@std@@@4@$0A@@std@@@std@@KAAAPAU_Node@?$_Tree_nod@V?$_Tmap_traits@PAUHWND__@@UCWndData@@U?$less@PAUHWND__@@@std@@V?$allocator@U?$pair@QAUHWND__@@UCWndData@@@std@@@4@$0A@@std@@@2@PAU342@@Z ; std::_Tree<std::_Tmap_traits<HWND__ *,CWndData,std::less<HWND__ *>,std::allocator<std::pair<HWND__ * const,CWndData> >,0> >::_Right
  0002e	83 c4 04	 add	 esp, 4
  00031	8b 10		 mov	 edx, DWORD PTR [eax]
  00033	52		 push	 edx
  00034	e8 00 00 00 00	 call	 ?_Isnil@?$_Tree@V?$_Tmap_traits@PAUHWND__@@UCWndData@@U?$less@PAUHWND__@@@std@@V?$allocator@U?$pair@QAUHWND__@@UCWndData@@@std@@@4@$0A@@std@@@std@@KAAADPAU_Node@?$_Tree_nod@V?$_Tmap_traits@PAUHWND__@@UCWndData@@U?$less@PAUHWND__@@@std@@V?$allocator@U?$pair@QAUHWND__@@UCWndData@@@std@@@4@$0A@@std@@@2@@Z ; std::_Tree<std::_Tmap_traits<HWND__ *,CWndData,std::less<HWND__ *>,std::allocator<std::pair<HWND__ * const,CWndData> >,0> >::_Isnil
  00039	83 c4 04	 add	 esp, 4
  0003c	0f be 00	 movsx	 eax, BYTE PTR [eax]
  0003f	85 c0		 test	 eax, eax
  00041	75 20		 jne	 SHORT $L201279

; 271  : 				_Ptr = _Min(_Right(_Ptr));	// ==> smallest of right subtree

  00043	8b 4d f8	 mov	 ecx, DWORD PTR _this$[ebp]
  00046	8b 11		 mov	 edx, DWORD PTR [ecx]
  00048	52		 push	 edx
  00049	e8 00 00 00 00	 call	 ?_Right@?$_Tree@V?$_Tmap_traits@PAUHWND__@@UCWndData@@U?$less@PAUHWND__@@@std@@V?$allocator@U?$pair@QAUHWND__@@UCWndData@@@std@@@4@$0A@@std@@@std@@KAAAPAU_Node@?$_Tree_nod@V?$_Tmap_traits@PAUHWND__@@UCWndData@@U?$less@PAUHWND__@@@std@@V?$allocator@U?$pair@QAUHWND__@@UCWndData@@@std@@@4@$0A@@std@@@2@PAU342@@Z ; std::_Tree<std::_Tmap_traits<HWND__ *,CWndData,std::less<HWND__ *>,std::allocator<std::pair<HWND__ * const,CWndData> >,0> >::_Right
  0004e	83 c4 04	 add	 esp, 4
  00051	8b 00		 mov	 eax, DWORD PTR [eax]
  00053	50		 push	 eax
  00054	e8 00 00 00 00	 call	 ?_Min@?$_Tree@V?$_Tmap_traits@PAUHWND__@@UCWndData@@U?$less@PAUHWND__@@@std@@V?$allocator@U?$pair@QAUHWND__@@UCWndData@@@std@@@4@$0A@@std@@@std@@KAPAU_Node@?$_Tree_nod@V?$_Tmap_traits@PAUHWND__@@UCWndData@@U?$less@PAUHWND__@@@std@@V?$allocator@U?$pair@QAUHWND__@@UCWndData@@@std@@@4@$0A@@std@@@2@PAU342@@Z ; std::_Tree<std::_Tmap_traits<HWND__ *,CWndData,std::less<HWND__ *>,std::allocator<std::pair<HWND__ * const,CWndData> >,0> >::_Min
  00059	83 c4 04	 add	 esp, 4
  0005c	8b 4d f8	 mov	 ecx, DWORD PTR _this$[ebp]
  0005f	89 01		 mov	 DWORD PTR [ecx], eax

; 272  : 			else

  00061	eb 4d		 jmp	 SHORT $L201272
$L201279:

; 273  : 				{	// climb looking for right subtree
; 274  : 				_Nodeptr _Pnode;
; 275  : 				while (!_Isnil(_Pnode = _Parent(_Ptr))
; 276  : 					&& _Ptr == _Right(_Pnode))

  00063	8b 55 f8	 mov	 edx, DWORD PTR _this$[ebp]
  00066	8b 02		 mov	 eax, DWORD PTR [edx]
  00068	50		 push	 eax
  00069	e8 00 00 00 00	 call	 ?_Parent@?$_Tree@V?$_Tmap_traits@PAUHWND__@@UCWndData@@U?$less@PAUHWND__@@@std@@V?$allocator@U?$pair@QAUHWND__@@UCWndData@@@std@@@4@$0A@@std@@@std@@KAAAPAU_Node@?$_Tree_nod@V?$_Tmap_traits@PAUHWND__@@UCWndData@@U?$less@PAUHWND__@@@std@@V?$allocator@U?$pair@QAUHWND__@@UCWndData@@@std@@@4@$0A@@std@@@2@PAU342@@Z ; std::_Tree<std::_Tmap_traits<HWND__ *,CWndData,std::less<HWND__ *>,std::allocator<std::pair<HWND__ * const,CWndData> >,0> >::_Parent
  0006e	83 c4 04	 add	 esp, 4
  00071	8b 08		 mov	 ecx, DWORD PTR [eax]
  00073	89 4d fc	 mov	 DWORD PTR __Pnode$201277[ebp], ecx
  00076	8b 55 fc	 mov	 edx, DWORD PTR __Pnode$201277[ebp]
  00079	52		 push	 edx
  0007a	e8 00 00 00 00	 call	 ?_Isnil@?$_Tree@V?$_Tmap_traits@PAUHWND__@@UCWndData@@U?$less@PAUHWND__@@@std@@V?$allocator@U?$pair@QAUHWND__@@UCWndData@@@std@@@4@$0A@@std@@@std@@KAAADPAU_Node@?$_Tree_nod@V?$_Tmap_traits@PAUHWND__@@UCWndData@@U?$less@PAUHWND__@@@std@@V?$allocator@U?$pair@QAUHWND__@@UCWndData@@@std@@@4@$0A@@std@@@2@@Z ; std::_Tree<std::_Tmap_traits<HWND__ *,CWndData,std::less<HWND__ *>,std::allocator<std::pair<HWND__ * const,CWndData> >,0> >::_Isnil
  0007f	83 c4 04	 add	 esp, 4
  00082	0f be 00	 movsx	 eax, BYTE PTR [eax]
  00085	85 c0		 test	 eax, eax
  00087	75 1f		 jne	 SHORT $L201280
  00089	8b 4d fc	 mov	 ecx, DWORD PTR __Pnode$201277[ebp]
  0008c	51		 push	 ecx
  0008d	e8 00 00 00 00	 call	 ?_Right@?$_Tree@V?$_Tmap_traits@PAUHWND__@@UCWndData@@U?$less@PAUHWND__@@@std@@V?$allocator@U?$pair@QAUHWND__@@UCWndData@@@std@@@4@$0A@@std@@@std@@KAAAPAU_Node@?$_Tree_nod@V?$_Tmap_traits@PAUHWND__@@UCWndData@@U?$less@PAUHWND__@@@std@@V?$allocator@U?$pair@QAUHWND__@@UCWndData@@@std@@@4@$0A@@std@@@2@PAU342@@Z ; std::_Tree<std::_Tmap_traits<HWND__ *,CWndData,std::less<HWND__ *>,std::allocator<std::pair<HWND__ * const,CWndData> >,0> >::_Right
  00092	83 c4 04	 add	 esp, 4
  00095	8b 55 f8	 mov	 edx, DWORD PTR _this$[ebp]
  00098	8b 0a		 mov	 ecx, DWORD PTR [edx]
  0009a	3b 08		 cmp	 ecx, DWORD PTR [eax]
  0009c	75 0a		 jne	 SHORT $L201280

; 277  : 					_Ptr = _Pnode;	// ==> parent while right subtree

  0009e	8b 55 f8	 mov	 edx, DWORD PTR _this$[ebp]
  000a1	8b 45 fc	 mov	 eax, DWORD PTR __Pnode$201277[ebp]
  000a4	89 02		 mov	 DWORD PTR [edx], eax
  000a6	eb bb		 jmp	 SHORT $L201279
$L201280:

; 278  : 				_Ptr = _Pnode;	// ==> parent (head if end())

  000a8	8b 4d f8	 mov	 ecx, DWORD PTR _this$[ebp]
  000ab	8b 55 fc	 mov	 edx, DWORD PTR __Pnode$201277[ebp]
  000ae	89 11		 mov	 DWORD PTR [ecx], edx
$L201272:

; 279  : 				}
; 280  : 			}

  000b0	8b e5		 mov	 esp, ebp
  000b2	5d		 pop	 ebp
  000b3	c3		 ret	 0
?_Inc@const_iterator@?$_Tree@V?$_Tmap_traits@PAUHWND__@@UCWndData@@U?$less@PAUHWND__@@@std@@V?$allocator@U?$pair@QAUHWND__@@UCWndData@@@std@@@4@$0A@@std@@@std@@QAEXXZ ENDP ; std::_Tree<std::_Tmap_traits<HWND__ *,CWndData,std::less<HWND__ *>,std::allocator<std::pair<HWND__ * const,CWndData> >,0> >::const_iterator::_Inc
; Function compile flags: /Odt
; File d:\program files (x86)\microsoft visual studio .net 2003\vc7\include\vector
_TEXT	ENDS
;	COMDAT ??0const_iterator@?$vector@PAVCHostWnd@@V?$allocator@PAVCHostWnd@@@std@@@std@@QAE@PAPAVCHostWnd@@@Z
_TEXT	SEGMENT
_this$ = -4						; size = 4
__Ptr$ = 8						; size = 4
??0const_iterator@?$vector@PAVCHostWnd@@V?$allocator@PAVCHostWnd@@@std@@@std@@QAE@PAPAVCHostWnd@@@Z PROC NEAR ; std::vector<CHostWnd *,std::allocator<CHostWnd *> >::const_iterator::const_iterator, COMDAT
; _this$ = ecx

; 73   : 		const_iterator(_Tptr _Ptr)

  00000	55		 push	 ebp
  00001	8b ec		 mov	 ebp, esp
  00003	51		 push	 ecx
  00004	89 4d fc	 mov	 DWORD PTR _this$[ebp], ecx

; 74   : 			{	// construct with pointer _Ptr
; 75   : 			_Myptr = _Ptr;

  00007	8b 45 fc	 mov	 eax, DWORD PTR _this$[ebp]
  0000a	8b 4d 08	 mov	 ecx, DWORD PTR __Ptr$[ebp]
  0000d	89 08		 mov	 DWORD PTR [eax], ecx

; 76   : 			}

  0000f	8b 45 fc	 mov	 eax, DWORD PTR _this$[ebp]
  00012	8b e5		 mov	 esp, ebp
  00014	5d		 pop	 ebp
  00015	c2 04 00	 ret	 4
??0const_iterator@?$vector@PAVCHostWnd@@V?$allocator@PAVCHostWnd@@@std@@@std@@QAE@PAPAVCHostWnd@@@Z ENDP ; std::vector<CHostWnd *,std::allocator<CHostWnd *> >::const_iterator::const_iterator
; Function compile flags: /Odt
_TEXT	ENDS
;	COMDAT ??Gconst_iterator@?$vector@PAVCHostWnd@@V?$allocator@PAVCHostWnd@@@std@@@std@@QBEHABV012@@Z
_TEXT	SEGMENT
_this$ = -4						; size = 4
__Right$ = 8						; size = 4
??Gconst_iterator@?$vector@PAVCHostWnd@@V?$allocator@PAVCHostWnd@@@std@@@std@@QBEHABV012@@Z PROC NEAR ; std::vector<CHostWnd *,std::allocator<CHostWnd *> >::const_iterator::operator-, COMDAT
; _this$ = ecx

; 140  : 			{	// return difference of iterators

  00000	55		 push	 ebp
  00001	8b ec		 mov	 ebp, esp
  00003	51		 push	 ecx
  00004	89 4d fc	 mov	 DWORD PTR _this$[ebp], ecx

; 141  : 
; 142  : 
; 143  : 			return (_Myptr - _Right._Myptr);

  00007	8b 45 fc	 mov	 eax, DWORD PTR _this$[ebp]
  0000a	8b 4d 08	 mov	 ecx, DWORD PTR __Right$[ebp]
  0000d	8b 00		 mov	 eax, DWORD PTR [eax]
  0000f	2b 01		 sub	 eax, DWORD PTR [ecx]
  00011	c1 f8 02	 sar	 eax, 2

; 144  : 			}

  00014	8b e5		 mov	 esp, ebp
  00016	5d		 pop	 ebp
  00017	c2 04 00	 ret	 4
??Gconst_iterator@?$vector@PAVCHostWnd@@V?$allocator@PAVCHostWnd@@@std@@@std@@QBEHABV012@@Z ENDP ; std::vector<CHostWnd *,std::allocator<CHostWnd *> >::const_iterator::operator-
; Function compile flags: /Odt
_TEXT	ENDS
;	COMDAT ??0const_iterator@?$vector@USepWindowData@@V?$allocator@USepWindowData@@@std@@@std@@QAE@PAUSepWindowData@@@Z
_TEXT	SEGMENT
_this$ = -4						; size = 4
__Ptr$ = 8						; size = 4
??0const_iterator@?$vector@USepWindowData@@V?$allocator@USepWindowData@@@std@@@std@@QAE@PAUSepWindowData@@@Z PROC NEAR ; std::vector<SepWindowData,std::allocator<SepWindowData> >::const_iterator::const_iterator, COMDAT
; _this$ = ecx

; 73   : 		const_iterator(_Tptr _Ptr)

  00000	55		 push	 ebp
  00001	8b ec		 mov	 ebp, esp
  00003	51		 push	 ecx
  00004	89 4d fc	 mov	 DWORD PTR _this$[ebp], ecx

; 74   : 			{	// construct with pointer _Ptr
; 75   : 			_Myptr = _Ptr;

  00007	8b 45 fc	 mov	 eax, DWORD PTR _this$[ebp]
  0000a	8b 4d 08	 mov	 ecx, DWORD PTR __Ptr$[ebp]
  0000d	89 08		 mov	 DWORD PTR [eax], ecx

; 76   : 			}

  0000f	8b 45 fc	 mov	 eax, DWORD PTR _this$[ebp]
  00012	8b e5		 mov	 esp, ebp
  00014	5d		 pop	 ebp
  00015	c2 04 00	 ret	 4
??0const_iterator@?$vector@USepWindowData@@V?$allocator@USepWindowData@@@std@@@std@@QAE@PAUSepWindowData@@@Z ENDP ; std::vector<SepWindowData,std::allocator<SepWindowData> >::const_iterator::const_iterator
; Function compile flags: /Odt
; File d:\program files (x86)\microsoft visual studio .net 2003\vc7\include\utility
_TEXT	ENDS
;	COMDAT ??0?$pair@Viterator@?$_Tree@V?$_Tmap_traits@PAUHWND__@@UCWndData@@U?$less@PAUHWND__@@@std@@V?$allocator@U?$pair@QAUHWND__@@UCWndData@@@std@@@4@$0A@@std@@@std@@_N@std@@QAE@ABViterator@?$_Tree@V?$_Tmap_traits@PAUHWND__@@UCWndData@@U?$less@PAUHWND__@@@std@@V?$allocator@U?$pair@QAUHWND__@@UCWndData@@@std@@@4@$0A@@std@@@1@AB_N@Z
_TEXT	SEGMENT
_this$ = -4						; size = 4
__Val1$ = 8						; size = 4
__Val2$ = 12						; size = 4
??0?$pair@Viterator@?$_Tree@V?$_Tmap_traits@PAUHWND__@@UCWndData@@U?$less@PAUHWND__@@@std@@V?$allocator@U?$pair@QAUHWND__@@UCWndData@@@std@@@4@$0A@@std@@@std@@_N@std@@QAE@ABViterator@?$_Tree@V?$_Tmap_traits@PAUHWND__@@UCWndData@@U?$less@PAUHWND__@@@std@@V?$allocator@U?$pair@QAUHWND__@@UCWndData@@@std@@@4@$0A@@std@@@1@AB_N@Z PROC NEAR ; std::pair<std::_Tree<std::_Tmap_traits<HWND__ *,CWndData,std::less<HWND__ *>,std::allocator<std::pair<HWND__ * const,CWndData> >,0> >::iterator,bool>::pair<std::_Tree<std::_Tmap_traits<HWND__ *,CWndData,std::less<HWND__ *>,std::allocator<std::pair<HWND__ * const,CWndData> >,0> >::iterator,bool>, COMDAT
; _this$ = ecx

; 34   : 		{	// construct from specified values

  00000	55		 push	 ebp
  00001	8b ec		 mov	 ebp, esp
  00003	51		 push	 ecx
  00004	89 4d fc	 mov	 DWORD PTR _this$[ebp], ecx
  00007	8b 45 08	 mov	 eax, DWORD PTR __Val1$[ebp]
  0000a	8b 08		 mov	 ecx, DWORD PTR [eax]
  0000c	8b 55 fc	 mov	 edx, DWORD PTR _this$[ebp]
  0000f	89 0a		 mov	 DWORD PTR [edx], ecx
  00011	8b 45 fc	 mov	 eax, DWORD PTR _this$[ebp]
  00014	8b 4d 0c	 mov	 ecx, DWORD PTR __Val2$[ebp]
  00017	8a 11		 mov	 dl, BYTE PTR [ecx]
  00019	88 50 04	 mov	 BYTE PTR [eax+4], dl

; 35   : 		}

  0001c	8b 45 fc	 mov	 eax, DWORD PTR _this$[ebp]
  0001f	8b e5		 mov	 esp, ebp
  00021	5d		 pop	 ebp
  00022	c2 08 00	 ret	 8
??0?$pair@Viterator@?$_Tree@V?$_Tmap_traits@PAUHWND__@@UCWndData@@U?$less@PAUHWND__@@@std@@V?$allocator@U?$pair@QAUHWND__@@UCWndData@@@std@@@4@$0A@@std@@@std@@_N@std@@QAE@ABViterator@?$_Tree@V?$_Tmap_traits@PAUHWND__@@UCWndData@@U?$less@PAUHWND__@@@std@@V?$allocator@U?$pair@QAUHWND__@@UCWndData@@@std@@@4@$0A@@std@@@1@AB_N@Z ENDP ; std::pair<std::_Tree<std::_Tmap_traits<HWND__ *,CWndData,std::less<HWND__ *>,std::allocator<std::pair<HWND__ * const,CWndData> >,0> >::iterator,bool>::pair<std::_Tree<std::_Tmap_traits<HWND__ *,CWndData,std::less<HWND__ *>,std::allocator<std::pair<HWND__ * const,CWndData> >,0> >::iterator,bool>
; Function compile flags: /Odt
; File d:\program files (x86)\microsoft visual studio .net 2003\vc7\include\xtree
_TEXT	ENDS
;	COMDAT ?_Erase@?$_Tree@V?$_Tmap_traits@PAUHWND__@@UCWndData@@U?$less@PAUHWND__@@@std@@V?$allocator@U?$pair@QAUHWND__@@UCWndData@@@std@@@4@$0A@@std@@@std@@IAEXPAU_Node@?$_Tree_nod@V?$_Tmap_traits@PAUHWND__@@UCWndData@@U?$less@PAUHWND__@@@std@@V?$allocator@U?$pair@QAUHWND__@@UCWndData@@@std@@@4@$0A@@std@@@2@@Z
_TEXT	SEGMENT
_this$ = -8						; size = 4
__Pnode$201297 = -4					; size = 4
__Rootnode$ = 8						; size = 4
?_Erase@?$_Tree@V?$_Tmap_traits@PAUHWND__@@UCWndData@@U?$less@PAUHWND__@@@std@@V?$allocator@U?$pair@QAUHWND__@@UCWndData@@@std@@@4@$0A@@std@@@std@@IAEXPAU_Node@?$_Tree_nod@V?$_Tmap_traits@PAUHWND__@@UCWndData@@U?$less@PAUHWND__@@@std@@V?$allocator@U?$pair@QAUHWND__@@UCWndData@@@std@@@4@$0A@@std@@@2@@Z PROC NEAR ; std::_Tree<std::_Tmap_traits<HWND__ *,CWndData,std::less<HWND__ *>,std::allocator<std::pair<HWND__ * const,CWndData> >,0> >::_Erase, COMDAT
; _this$ = ecx

; 890  : 		{	// free entire subtree, recursively

  00000	55		 push	 ebp
  00001	8b ec		 mov	 ebp, esp
  00003	83 ec 08	 sub	 esp, 8
  00006	89 4d f8	 mov	 DWORD PTR _this$[ebp], ecx

; 891  : 		for (_Nodeptr _Pnode = _Rootnode; !_Isnil(_Pnode); _Rootnode = _Pnode)

  00009	8b 45 08	 mov	 eax, DWORD PTR __Rootnode$[ebp]
  0000c	89 45 fc	 mov	 DWORD PTR __Pnode$201297[ebp], eax
  0000f	eb 06		 jmp	 SHORT $L201298
$L201299:
  00011	8b 4d fc	 mov	 ecx, DWORD PTR __Pnode$201297[ebp]
  00014	89 4d 08	 mov	 DWORD PTR __Rootnode$[ebp], ecx
$L201298:
  00017	8b 55 fc	 mov	 edx, DWORD PTR __Pnode$201297[ebp]
  0001a	52		 push	 edx
  0001b	e8 00 00 00 00	 call	 ?_Isnil@?$_Tree@V?$_Tmap_traits@PAUHWND__@@UCWndData@@U?$less@PAUHWND__@@@std@@V?$allocator@U?$pair@QAUHWND__@@UCWndData@@@std@@@4@$0A@@std@@@std@@KAAADPAU_Node@?$_Tree_nod@V?$_Tmap_traits@PAUHWND__@@UCWndData@@U?$less@PAUHWND__@@@std@@V?$allocator@U?$pair@QAUHWND__@@UCWndData@@@std@@@4@$0A@@std@@@2@@Z ; std::_Tree<std::_Tmap_traits<HWND__ *,CWndData,std::less<HWND__ *>,std::allocator<std::pair<HWND__ * const,CWndData> >,0> >::_Isnil
  00020	83 c4 04	 add	 esp, 4
  00023	0f be 00	 movsx	 eax, BYTE PTR [eax]
  00026	85 c0		 test	 eax, eax
  00028	75 4a		 jne	 SHORT $L201296

; 892  : 			{	// free subtrees, then node
; 893  : 			_Erase(_Right(_Pnode));

  0002a	8b 4d fc	 mov	 ecx, DWORD PTR __Pnode$201297[ebp]
  0002d	51		 push	 ecx
  0002e	e8 00 00 00 00	 call	 ?_Right@?$_Tree@V?$_Tmap_traits@PAUHWND__@@UCWndData@@U?$less@PAUHWND__@@@std@@V?$allocator@U?$pair@QAUHWND__@@UCWndData@@@std@@@4@$0A@@std@@@std@@KAAAPAU_Node@?$_Tree_nod@V?$_Tmap_traits@PAUHWND__@@UCWndData@@U?$less@PAUHWND__@@@std@@V?$allocator@U?$pair@QAUHWND__@@UCWndData@@@std@@@4@$0A@@std@@@2@PAU342@@Z ; std::_Tree<std::_Tmap_traits<HWND__ *,CWndData,std::less<HWND__ *>,std::allocator<std::pair<HWND__ * const,CWndData> >,0> >::_Right
  00033	83 c4 04	 add	 esp, 4
  00036	8b 10		 mov	 edx, DWORD PTR [eax]
  00038	52		 push	 edx
  00039	8b 4d f8	 mov	 ecx, DWORD PTR _this$[ebp]
  0003c	e8 00 00 00 00	 call	 ?_Erase@?$_Tree@V?$_Tmap_traits@PAUHWND__@@UCWndData@@U?$less@PAUHWND__@@@std@@V?$allocator@U?$pair@QAUHWND__@@UCWndData@@@std@@@4@$0A@@std@@@std@@IAEXPAU_Node@?$_Tree_nod@V?$_Tmap_traits@PAUHWND__@@UCWndData@@U?$less@PAUHWND__@@@std@@V?$allocator@U?$pair@QAUHWND__@@UCWndData@@@std@@@4@$0A@@std@@@2@@Z ; std::_Tree<std::_Tmap_traits<HWND__ *,CWndData,std::less<HWND__ *>,std::allocator<std::pair<HWND__ * const,CWndData> >,0> >::_Erase

; 894  : 			_Pnode = _Left(_Pnode);

  00041	8b 45 fc	 mov	 eax, DWORD PTR __Pnode$201297[ebp]
  00044	50		 push	 eax
  00045	e8 00 00 00 00	 call	 ?_Left@?$_Tree@V?$_Tmap_traits@PAUHWND__@@UCWndData@@U?$less@PAUHWND__@@@std@@V?$allocator@U?$pair@QAUHWND__@@UCWndData@@@std@@@4@$0A@@std@@@std@@KAAAPAU_Node@?$_Tree_nod@V?$_Tmap_traits@PAUHWND__@@UCWndData@@U?$less@PAUHWND__@@@std@@V?$allocator@U?$pair@QAUHWND__@@UCWndData@@@std@@@4@$0A@@std@@@2@PAU342@@Z ; std::_Tree<std::_Tmap_traits<HWND__ *,CWndData,std::less<HWND__ *>,std::allocator<std::pair<HWND__ * const,CWndData> >,0> >::_Left
  0004a	83 c4 04	 add	 esp, 4
  0004d	8b 08		 mov	 ecx, DWORD PTR [eax]
  0004f	89 4d fc	 mov	 DWORD PTR __Pnode$201297[ebp], ecx

; 895  : 			this->_Alnod.destroy(_Rootnode);	// destroy, free erased node

  00052	8b 55 08	 mov	 edx, DWORD PTR __Rootnode$[ebp]
  00055	52		 push	 edx
  00056	8b 4d f8	 mov	 ecx, DWORD PTR _this$[ebp]
  00059	83 c1 01	 add	 ecx, 1
  0005c	e8 00 00 00 00	 call	 ?destroy@?$allocator@U_Node@?$_Tree_nod@V?$_Tmap_traits@PAUHWND__@@UCWndData@@U?$less@PAUHWND__@@@std@@V?$allocator@U?$pair@QAUHWND__@@UCWndData@@@std@@@4@$0A@@std@@@std@@@std@@QAEXPAU_Node@?$_Tree_nod@V?$_Tmap_traits@PAUHWND__@@UCWndData@@U?$less@PAUHWND__@@@std@@V?$allocator@U?$pair@QAUHWND__@@UCWndData@@@std@@@4@$0A@@std@@@2@@Z ; std::allocator<std::_Tree_nod<std::_Tmap_traits<HWND__ *,CWndData,std::less<HWND__ *>,std::allocator<std::pair<HWND__ * const,CWndData> >,0> >::_Node>::destroy

; 896  : 			this->_Alnod.deallocate(_Rootnode, 1);

  00061	6a 01		 push	 1
  00063	8b 45 08	 mov	 eax, DWORD PTR __Rootnode$[ebp]
  00066	50		 push	 eax
  00067	8b 4d f8	 mov	 ecx, DWORD PTR _this$[ebp]
  0006a	83 c1 01	 add	 ecx, 1
  0006d	e8 00 00 00 00	 call	 ?deallocate@?$allocator@U_Node@?$_Tree_nod@V?$_Tmap_traits@PAUHWND__@@UCWndData@@U?$less@PAUHWND__@@@std@@V?$allocator@U?$pair@QAUHWND__@@UCWndData@@@std@@@4@$0A@@std@@@std@@@std@@QAEXPAU_Node@?$_Tree_nod@V?$_Tmap_traits@PAUHWND__@@UCWndData@@U?$less@PAUHWND__@@@std@@V?$allocator@U?$pair@QAUHWND__@@UCWndData@@@std@@@4@$0A@@std@@@2@I@Z ; std::allocator<std::_Tree_nod<std::_Tmap_traits<HWND__ *,CWndData,std::less<HWND__ *>,std::allocator<std::pair<HWND__ * const,CWndData> >,0> >::_Node>::deallocate

; 897  : 			}

  00072	eb 9d		 jmp	 SHORT $L201299
$L201296:

; 898  : 		}

  00074	8b e5		 mov	 esp, ebp
  00076	5d		 pop	 ebp
  00077	c2 04 00	 ret	 4
?_Erase@?$_Tree@V?$_Tmap_traits@PAUHWND__@@UCWndData@@U?$less@PAUHWND__@@@std@@V?$allocator@U?$pair@QAUHWND__@@UCWndData@@@std@@@4@$0A@@std@@@std@@IAEXPAU_Node@?$_Tree_nod@V?$_Tmap_traits@PAUHWND__@@UCWndData@@U?$less@PAUHWND__@@@std@@V?$allocator@U?$pair@QAUHWND__@@UCWndData@@@std@@@4@$0A@@std@@@2@@Z ENDP ; std::_Tree<std::_Tmap_traits<HWND__ *,CWndData,std::less<HWND__ *>,std::allocator<std::pair<HWND__ * const,CWndData> >,0> >::_Erase
; Function compile flags: /Odt
_TEXT	ENDS
;	COMDAT ?_Max@?$_Tree@V?$_Tmap_traits@PAUHWND__@@UCWndData@@U?$less@PAUHWND__@@@std@@V?$allocator@U?$pair@QAUHWND__@@UCWndData@@@std@@@4@$0A@@std@@@std@@KAPAU_Node@?$_Tree_nod@V?$_Tmap_traits@PAUHWND__@@UCWndData@@U?$less@PAUHWND__@@@std@@V?$allocator@U?$pair@QAUHWND__@@UCWndData@@@std@@@4@$0A@@std@@@2@PAU342@@Z
_TEXT	SEGMENT
__Pnode$ = 8						; size = 4
?_Max@?$_Tree@V?$_Tmap_traits@PAUHWND__@@UCWndData@@U?$less@PAUHWND__@@@std@@V?$allocator@U?$pair@QAUHWND__@@UCWndData@@@std@@@4@$0A@@std@@@std@@KAPAU_Node@?$_Tree_nod@V?$_Tmap_traits@PAUHWND__@@UCWndData@@U?$less@PAUHWND__@@@std@@V?$allocator@U?$pair@QAUHWND__@@UCWndData@@@std@@@4@$0A@@std@@@2@PAU342@@Z PROC NEAR ; std::_Tree<std::_Tmap_traits<HWND__ *,CWndData,std::less<HWND__ *>,std::allocator<std::pair<HWND__ * const,CWndData> >,0> >::_Max, COMDAT

; 1034 : 		{	// return rightmost node in subtree at _Pnode

  00000	55		 push	 ebp
  00001	8b ec		 mov	 ebp, esp
$L201303:

; 1035 : 		while (!_Isnil(_Right(_Pnode)))

  00003	8b 45 08	 mov	 eax, DWORD PTR __Pnode$[ebp]
  00006	50		 push	 eax
  00007	e8 00 00 00 00	 call	 ?_Right@?$_Tree@V?$_Tmap_traits@PAUHWND__@@UCWndData@@U?$less@PAUHWND__@@@std@@V?$allocator@U?$pair@QAUHWND__@@UCWndData@@@std@@@4@$0A@@std@@@std@@KAAAPAU_Node@?$_Tree_nod@V?$_Tmap_traits@PAUHWND__@@UCWndData@@U?$less@PAUHWND__@@@std@@V?$allocator@U?$pair@QAUHWND__@@UCWndData@@@std@@@4@$0A@@std@@@2@PAU342@@Z ; std::_Tree<std::_Tmap_traits<HWND__ *,CWndData,std::less<HWND__ *>,std::allocator<std::pair<HWND__ * const,CWndData> >,0> >::_Right
  0000c	83 c4 04	 add	 esp, 4
  0000f	8b 08		 mov	 ecx, DWORD PTR [eax]
  00011	51		 push	 ecx
  00012	e8 00 00 00 00	 call	 ?_Isnil@?$_Tree@V?$_Tmap_traits@PAUHWND__@@UCWndData@@U?$less@PAUHWND__@@@std@@V?$allocator@U?$pair@QAUHWND__@@UCWndData@@@std@@@4@$0A@@std@@@std@@KAAADPAU_Node@?$_Tree_nod@V?$_Tmap_traits@PAUHWND__@@UCWndData@@U?$less@PAUHWND__@@@std@@V?$allocator@U?$pair@QAUHWND__@@UCWndData@@@std@@@4@$0A@@std@@@2@@Z ; std::_Tree<std::_Tmap_traits<HWND__ *,CWndData,std::less<HWND__ *>,std::allocator<std::pair<HWND__ * const,CWndData> >,0> >::_Isnil
  00017	83 c4 04	 add	 esp, 4
  0001a	0f be 10	 movsx	 edx, BYTE PTR [eax]
  0001d	85 d2		 test	 edx, edx
  0001f	75 13		 jne	 SHORT $L201304

; 1036 : 			_Pnode = _Right(_Pnode);

  00021	8b 45 08	 mov	 eax, DWORD PTR __Pnode$[ebp]
  00024	50		 push	 eax
  00025	e8 00 00 00 00	 call	 ?_Right@?$_Tree@V?$_Tmap_traits@PAUHWND__@@UCWndData@@U?$less@PAUHWND__@@@std@@V?$allocator@U?$pair@QAUHWND__@@UCWndData@@@std@@@4@$0A@@std@@@std@@KAAAPAU_Node@?$_Tree_nod@V?$_Tmap_traits@PAUHWND__@@UCWndData@@U?$less@PAUHWND__@@@std@@V?$allocator@U?$pair@QAUHWND__@@UCWndData@@@std@@@4@$0A@@std@@@2@PAU342@@Z ; std::_Tree<std::_Tmap_traits<HWND__ *,CWndData,std::less<HWND__ *>,std::allocator<std::pair<HWND__ * const,CWndData> >,0> >::_Right
  0002a	83 c4 04	 add	 esp, 4
  0002d	8b 08		 mov	 ecx, DWORD PTR [eax]
  0002f	89 4d 08	 mov	 DWORD PTR __Pnode$[ebp], ecx
  00032	eb cf		 jmp	 SHORT $L201303
$L201304:

; 1037 : 		return (_Pnode);

  00034	8b 45 08	 mov	 eax, DWORD PTR __Pnode$[ebp]

; 1038 : 		}

  00037	5d		 pop	 ebp
  00038	c3		 ret	 0
?_Max@?$_Tree@V?$_Tmap_traits@PAUHWND__@@UCWndData@@U?$less@PAUHWND__@@@std@@V?$allocator@U?$pair@QAUHWND__@@UCWndData@@@std@@@4@$0A@@std@@@std@@KAPAU_Node@?$_Tree_nod@V?$_Tmap_traits@PAUHWND__@@UCWndData@@U?$less@PAUHWND__@@@std@@V?$allocator@U?$pair@QAUHWND__@@UCWndData@@@std@@@4@$0A@@std@@@2@PAU342@@Z ENDP ; std::_Tree<std::_Tmap_traits<HWND__ *,CWndData,std::less<HWND__ *>,std::allocator<std::pair<HWND__ * const,CWndData> >,0> >::_Max
; Function compile flags: /Odt
_TEXT	ENDS
;	COMDAT ?_Min@?$_Tree@V?$_Tmap_traits@PAUHWND__@@UCWndData@@U?$less@PAUHWND__@@@std@@V?$allocator@U?$pair@QAUHWND__@@UCWndData@@@std@@@4@$0A@@std@@@std@@KAPAU_Node@?$_Tree_nod@V?$_Tmap_traits@PAUHWND__@@UCWndData@@U?$less@PAUHWND__@@@std@@V?$allocator@U?$pair@QAUHWND__@@UCWndData@@@std@@@4@$0A@@std@@@2@PAU342@@Z
_TEXT	SEGMENT
__Pnode$ = 8						; size = 4
?_Min@?$_Tree@V?$_Tmap_traits@PAUHWND__@@UCWndData@@U?$less@PAUHWND__@@@std@@V?$allocator@U?$pair@QAUHWND__@@UCWndData@@@std@@@4@$0A@@std@@@std@@KAPAU_Node@?$_Tree_nod@V?$_Tmap_traits@PAUHWND__@@UCWndData@@U?$less@PAUHWND__@@@std@@V?$allocator@U?$pair@QAUHWND__@@UCWndData@@@std@@@4@$0A@@std@@@2@PAU342@@Z PROC NEAR ; std::_Tree<std::_Tmap_traits<HWND__ *,CWndData,std::less<HWND__ *>,std::allocator<std::pair<HWND__ * const,CWndData> >,0> >::_Min, COMDAT

; 1041 : 		{	// return leftmost node in subtree at _Pnode

  00000	55		 push	 ebp
  00001	8b ec		 mov	 ebp, esp
$L201307:

; 1042 : 		while (!_Isnil(_Left(_Pnode)))

  00003	8b 45 08	 mov	 eax, DWORD PTR __Pnode$[ebp]
  00006	50		 push	 eax
  00007	e8 00 00 00 00	 call	 ?_Left@?$_Tree@V?$_Tmap_traits@PAUHWND__@@UCWndData@@U?$less@PAUHWND__@@@std@@V?$allocator@U?$pair@QAUHWND__@@UCWndData@@@std@@@4@$0A@@std@@@std@@KAAAPAU_Node@?$_Tree_nod@V?$_Tmap_traits@PAUHWND__@@UCWndData@@U?$less@PAUHWND__@@@std@@V?$allocator@U?$pair@QAUHWND__@@UCWndData@@@std@@@4@$0A@@std@@@2@PAU342@@Z ; std::_Tree<std::_Tmap_traits<HWND__ *,CWndData,std::less<HWND__ *>,std::allocator<std::pair<HWND__ * const,CWndData> >,0> >::_Left
  0000c	83 c4 04	 add	 esp, 4
  0000f	8b 08		 mov	 ecx, DWORD PTR [eax]
  00011	51		 push	 ecx
  00012	e8 00 00 00 00	 call	 ?_Isnil@?$_Tree@V?$_Tmap_traits@PAUHWND__@@UCWndData@@U?$less@PAUHWND__@@@std@@V?$allocator@U?$pair@QAUHWND__@@UCWndData@@@std@@@4@$0A@@std@@@std@@KAAADPAU_Node@?$_Tree_nod@V?$_Tmap_traits@PAUHWND__@@UCWndData@@U?$less@PAUHWND__@@@std@@V?$allocator@U?$pair@QAUHWND__@@UCWndData@@@std@@@4@$0A@@std@@@2@@Z ; std::_Tree<std::_Tmap_traits<HWND__ *,CWndData,std::less<HWND__ *>,std::allocator<std::pair<HWND__ * const,CWndData> >,0> >::_Isnil
  00017	83 c4 04	 add	 esp, 4
  0001a	0f be 10	 movsx	 edx, BYTE PTR [eax]
  0001d	85 d2		 test	 edx, edx
  0001f	75 13		 jne	 SHORT $L201308

; 1043 : 			_Pnode = _Left(_Pnode);

  00021	8b 45 08	 mov	 eax, DWORD PTR __Pnode$[ebp]
  00024	50		 push	 eax
  00025	e8 00 00 00 00	 call	 ?_Left@?$_Tree@V?$_Tmap_traits@PAUHWND__@@UCWndData@@U?$less@PAUHWND__@@@std@@V?$allocator@U?$pair@QAUHWND__@@UCWndData@@@std@@@4@$0A@@std@@@std@@KAAAPAU_Node@?$_Tree_nod@V?$_Tmap_traits@PAUHWND__@@UCWndData@@U?$less@PAUHWND__@@@std@@V?$allocator@U?$pair@QAUHWND__@@UCWndData@@@std@@@4@$0A@@std@@@2@PAU342@@Z ; std::_Tree<std::_Tmap_traits<HWND__ *,CWndData,std::less<HWND__ *>,std::allocator<std::pair<HWND__ * const,CWndData> >,0> >::_Left
  0002a	83 c4 04	 add	 esp, 4
  0002d	8b 08		 mov	 ecx, DWORD PTR [eax]
  0002f	89 4d 08	 mov	 DWORD PTR __Pnode$[ebp], ecx
  00032	eb cf		 jmp	 SHORT $L201307
$L201308:

; 1044 : 		return (_Pnode);

  00034	8b 45 08	 mov	 eax, DWORD PTR __Pnode$[ebp]

; 1045 : 		}

  00037	5d		 pop	 ebp
  00038	c3		 ret	 0
?_Min@?$_Tree@V?$_Tmap_traits@PAUHWND__@@UCWndData@@U?$less@PAUHWND__@@@std@@V?$allocator@U?$pair@QAUHWND__@@UCWndData@@@std@@@4@$0A@@std@@@std@@KAPAU_Node@?$_Tree_nod@V?$_Tmap_traits@PAUHWND__@@UCWndData@@U?$less@PAUHWND__@@@std@@V?$allocator@U?$pair@QAUHWND__@@UCWndData@@@std@@@4@$0A@@std@@@2@PAU342@@Z ENDP ; std::_Tree<std::_Tmap_traits<HWND__ *,CWndData,std::less<HWND__ *>,std::allocator<std::pair<HWND__ * const,CWndData> >,0> >::_Min
_TEXT	ENDS
PUBLIC	??0?$_Tmap_traits@PAUHWND__@@UCWndData@@U?$less@PAUHWND__@@@std@@V?$allocator@U?$pair@QAUHWND__@@UCWndData@@@std@@@4@$0A@@std@@QAE@U?$less@PAUHWND__@@@1@@Z ; std::_Tmap_traits<HWND__ *,CWndData,std::less<HWND__ *>,std::allocator<std::pair<HWND__ * const,CWndData> >,0>::_Tmap_traits<HWND__ *,CWndData,std::less<HWND__ *>,std::allocator<std::pair<HWND__ * const,CWndData> >,0>
PUBLIC	??$?0U?$pair@QAUHWND__@@UCWndData@@@std@@@?$allocator@U_Node@?$_Tree_nod@V?$_Tmap_traits@PAUHWND__@@UCWndData@@U?$less@PAUHWND__@@@std@@V?$allocator@U?$pair@QAUHWND__@@UCWndData@@@std@@@4@$0A@@std@@@std@@@std@@QAE@ABV?$allocator@U?$pair@QAUHWND__@@UCWndData@@@std@@@1@@Z ; std::allocator<std::_Tree_nod<std::_Tmap_traits<HWND__ *,CWndData,std::less<HWND__ *>,std::allocator<std::pair<HWND__ * const,CWndData> >,0> >::_Node>::allocator<std::_Tree_nod<std::_Tmap_traits<HWND__ *,CWndData,std::less<HWND__ *>,std::allocator<std::pair<HWND__ * const,CWndData> >,0> >::_Node><std::pair<HWND__ * const,CWndData> >
; Function compile flags: /Odt
;	COMDAT ??0?$_Tree_nod@V?$_Tmap_traits@PAUHWND__@@UCWndData@@U?$less@PAUHWND__@@@std@@V?$allocator@U?$pair@QAUHWND__@@UCWndData@@@std@@@4@$0A@@std@@@std@@IAE@ABU?$less@PAUHWND__@@@1@V?$allocator@U?$pair@QAUHWND__@@UCWndData@@@std@@@1@@Z
_TEXT	SEGMENT
_this$ = -4						; size = 4
__Parg$ = 8						; size = 4
__Al$ = 12						; size = 1
??0?$_Tree_nod@V?$_Tmap_traits@PAUHWND__@@UCWndData@@U?$less@PAUHWND__@@@std@@V?$allocator@U?$pair@QAUHWND__@@UCWndData@@@std@@@4@$0A@@std@@@std@@IAE@ABU?$less@PAUHWND__@@@1@V?$allocator@U?$pair@QAUHWND__@@UCWndData@@@std@@@1@@Z PROC NEAR ; std::_Tree_nod<std::_Tmap_traits<HWND__ *,CWndData,std::less<HWND__ *>,std::allocator<std::pair<HWND__ * const,CWndData> >,0> >::_Tree_nod<std::_Tmap_traits<HWND__ *,CWndData,std::less<HWND__ *>,std::allocator<std::pair<HWND__ * const,CWndData> >,0> >, COMDAT
; _this$ = ecx

; 54   : 		{	// construct traits from _Parg and allocator from _Al

  00000	55		 push	 ebp
  00001	8b ec		 mov	 ebp, esp
  00003	51		 push	 ecx
  00004	89 4d fc	 mov	 DWORD PTR _this$[ebp], ecx
  00007	8b 45 08	 mov	 eax, DWORD PTR __Parg$[ebp]
  0000a	8a 08		 mov	 cl, BYTE PTR [eax]
  0000c	51		 push	 ecx
  0000d	8b 4d fc	 mov	 ecx, DWORD PTR _this$[ebp]
  00010	e8 00 00 00 00	 call	 ??0?$_Tmap_traits@PAUHWND__@@UCWndData@@U?$less@PAUHWND__@@@std@@V?$allocator@U?$pair@QAUHWND__@@UCWndData@@@std@@@4@$0A@@std@@QAE@U?$less@PAUHWND__@@@1@@Z ; std::_Tmap_traits<HWND__ *,CWndData,std::less<HWND__ *>,std::allocator<std::pair<HWND__ * const,CWndData> >,0>::_Tmap_traits<HWND__ *,CWndData,std::less<HWND__ *>,std::allocator<std::pair<HWND__ * const,CWndData> >,0>
  00015	8d 55 0c	 lea	 edx, DWORD PTR __Al$[ebp]
  00018	52		 push	 edx
  00019	8b 4d fc	 mov	 ecx, DWORD PTR _this$[ebp]
  0001c	83 c1 01	 add	 ecx, 1
  0001f	e8 00 00 00 00	 call	 ??$?0U?$pair@QAUHWND__@@UCWndData@@@std@@@?$allocator@U_Node@?$_Tree_nod@V?$_Tmap_traits@PAUHWND__@@UCWndData@@U?$less@PAUHWND__@@@std@@V?$allocator@U?$pair@QAUHWND__@@UCWndData@@@std@@@4@$0A@@std@@@std@@@std@@QAE@ABV?$allocator@U?$pair@QAUHWND__@@UCWndData@@@std@@@1@@Z ; std::allocator<std::_Tree_nod<std::_Tmap_traits<HWND__ *,CWndData,std::less<HWND__ *>,std::allocator<std::pair<HWND__ * const,CWndData> >,0> >::_Node>::allocator<std::_Tree_nod<std::_Tmap_traits<HWND__ *,CWndData,std::less<HWND__ *>,std::allocator<std::pair<HWND__ * const,CWndData> >,0> >::_Node><std::pair<HWND__ * const,CWndData> >

; 55   : 		}

  00024	8b 45 fc	 mov	 eax, DWORD PTR _this$[ebp]
  00027	8b e5		 mov	 esp, ebp
  00029	5d		 pop	 ebp
  0002a	c2 08 00	 ret	 8
??0?$_Tree_nod@V?$_Tmap_traits@PAUHWND__@@UCWndData@@U?$less@PAUHWND__@@@std@@V?$allocator@U?$pair@QAUHWND__@@UCWndData@@@std@@@4@$0A@@std@@@std@@IAE@ABU?$less@PAUHWND__@@@1@V?$allocator@U?$pair@QAUHWND__@@UCWndData@@@std@@@1@@Z ENDP ; std::_Tree_nod<std::_Tmap_traits<HWND__ *,CWndData,std::less<HWND__ *>,std::allocator<std::pair<HWND__ * const,CWndData> >,0> >::_Tree_nod<std::_Tmap_traits<HWND__ *,CWndData,std::less<HWND__ *>,std::allocator<std::pair<HWND__ * const,CWndData> >,0> >
; Function compile flags: /Odt
; File d:\program files (x86)\microsoft visual studio .net 2003\vc7\include\xmemory
_TEXT	ENDS
;	COMDAT ?max_size@?$allocator@U?$pair@QAUHWND__@@UCWndData@@@std@@@std@@QBEIXZ
_TEXT	SEGMENT
tv65 = -12						; size = 4
_this$ = -8						; size = 4
__Count$ = -4						; size = 4
?max_size@?$allocator@U?$pair@QAUHWND__@@UCWndData@@@std@@@std@@QBEIXZ PROC NEAR ; std::allocator<std::pair<HWND__ * const,CWndData> >::max_size, COMDAT
; _this$ = ecx

; 156  : 		{	// estimate maximum array size

  00000	55		 push	 ebp
  00001	8b ec		 mov	 ebp, esp
  00003	83 ec 0c	 sub	 esp, 12			; 0000000cH
  00006	89 4d f8	 mov	 DWORD PTR _this$[ebp], ecx

; 157  : 		_SIZT _Count = (_SIZT)(-1) / sizeof (_Ty);

  00009	c7 45 fc 55 55
	55 15		 mov	 DWORD PTR __Count$[ebp], 357913941 ; 15555555H

; 158  : 		return (0 < _Count ? _Count : 1);

  00010	83 7d fc 00	 cmp	 DWORD PTR __Count$[ebp], 0
  00014	76 08		 jbe	 SHORT $L202996
  00016	8b 45 fc	 mov	 eax, DWORD PTR __Count$[ebp]
  00019	89 45 f4	 mov	 DWORD PTR tv65[ebp], eax
  0001c	eb 07		 jmp	 SHORT $L202997
$L202996:
  0001e	c7 45 f4 01 00
	00 00		 mov	 DWORD PTR tv65[ebp], 1
$L202997:
  00025	8b 45 f4	 mov	 eax, DWORD PTR tv65[ebp]

; 159  : 		}

  00028	8b e5		 mov	 esp, ebp
  0002a	5d		 pop	 ebp
  0002b	c3		 ret	 0
?max_size@?$allocator@U?$pair@QAUHWND__@@UCWndData@@@std@@@std@@QBEIXZ ENDP ; std::allocator<std::pair<HWND__ * const,CWndData> >::max_size
_TEXT	ENDS
PUBLIC	??$_Allocate@U_Node@?$_Tree_nod@V?$_Tmap_traits@PAUHWND__@@UCWndData@@U?$less@PAUHWND__@@@std@@V?$allocator@U?$pair@QAUHWND__@@UCWndData@@@std@@@4@$0A@@std@@@std@@@std@@YAPAU_Node@?$_Tree_nod@V?$_Tmap_traits@PAUHWND__@@UCWndData@@U?$less@PAUHWND__@@@std@@V?$allocator@U?$pair@QAUHWND__@@UCWndData@@@std@@@4@$0A@@std@@@0@IPAU120@@Z ; std::_Allocate<std::_Tree_nod<std::_Tmap_traits<HWND__ *,CWndData,std::less<HWND__ *>,std::allocator<std::pair<HWND__ * const,CWndData> >,0> >::_Node>
; Function compile flags: /Odt
;	COMDAT ?allocate@?$allocator@U_Node@?$_Tree_nod@V?$_Tmap_traits@PAUHWND__@@UCWndData@@U?$less@PAUHWND__@@@std@@V?$allocator@U?$pair@QAUHWND__@@UCWndData@@@std@@@4@$0A@@std@@@std@@@std@@QAEPAU_Node@?$_Tree_nod@V?$_Tmap_traits@PAUHWND__@@UCWndData@@U?$less@PAUHWND__@@@std@@V?$allocator@U?$pair@QAUHWND__@@UCWndData@@@std@@@4@$0A@@std@@@2@I@Z
_TEXT	SEGMENT
_this$ = -4						; size = 4
__Count$ = 8						; size = 4
?allocate@?$allocator@U_Node@?$_Tree_nod@V?$_Tmap_traits@PAUHWND__@@UCWndData@@U?$less@PAUHWND__@@@std@@V?$allocator@U?$pair@QAUHWND__@@UCWndData@@@std@@@4@$0A@@std@@@std@@@std@@QAEPAU_Node@?$_Tree_nod@V?$_Tmap_traits@PAUHWND__@@UCWndData@@U?$less@PAUHWND__@@@std@@V?$allocator@U?$pair@QAUHWND__@@UCWndData@@@std@@@4@$0A@@std@@@2@I@Z PROC NEAR ; std::allocator<std::_Tree_nod<std::_Tmap_traits<HWND__ *,CWndData,std::less<HWND__ *>,std::allocator<std::pair<HWND__ * const,CWndData> >,0> >::_Node>::allocate, COMDAT
; _this$ = ecx

; 136  : 		{	// allocate array of _Count elements

  00000	55		 push	 ebp
  00001	8b ec		 mov	 ebp, esp
  00003	51		 push	 ecx
  00004	89 4d fc	 mov	 DWORD PTR _this$[ebp], ecx

; 137  : 		return (_Allocate(_Count, (pointer)0));

  00007	6a 00		 push	 0
  00009	8b 45 08	 mov	 eax, DWORD PTR __Count$[ebp]
  0000c	50		 push	 eax
  0000d	e8 00 00 00 00	 call	 ??$_Allocate@U_Node@?$_Tree_nod@V?$_Tmap_traits@PAUHWND__@@UCWndData@@U?$less@PAUHWND__@@@std@@V?$allocator@U?$pair@QAUHWND__@@UCWndData@@@std@@@4@$0A@@std@@@std@@@std@@YAPAU_Node@?$_Tree_nod@V?$_Tmap_traits@PAUHWND__@@UCWndData@@U?$less@PAUHWND__@@@std@@V?$allocator@U?$pair@QAUHWND__@@UCWndData@@@std@@@4@$0A@@std@@@0@IPAU120@@Z ; std::_Allocate<std::_Tree_nod<std::_Tmap_traits<HWND__ *,CWndData,std::less<HWND__ *>,std::allocator<std::pair<HWND__ * const,CWndData> >,0> >::_Node>
  00012	83 c4 08	 add	 esp, 8

; 138  : 		}

  00015	8b e5		 mov	 esp, ebp
  00017	5d		 pop	 ebp
  00018	c2 04 00	 ret	 4
?allocate@?$allocator@U_Node@?$_Tree_nod@V?$_Tmap_traits@PAUHWND__@@UCWndData@@U?$less@PAUHWND__@@@std@@V?$allocator@U?$pair@QAUHWND__@@UCWndData@@@std@@@4@$0A@@std@@@std@@@std@@QAEPAU_Node@?$_Tree_nod@V?$_Tmap_traits@PAUHWND__@@UCWndData@@U?$less@PAUHWND__@@@std@@V?$allocator@U?$pair@QAUHWND__@@UCWndData@@@std@@@4@$0A@@std@@@2@I@Z ENDP ; std::allocator<std::_Tree_nod<std::_Tmap_traits<HWND__ *,CWndData,std::less<HWND__ *>,std::allocator<std::pair<HWND__ * const,CWndData> >,0> >::_Node>::allocate
_TEXT	ENDS
PUBLIC	??$_Destroy@U_Node@?$_Tree_nod@V?$_Tmap_traits@PAUHWND__@@UCWndData@@U?$less@PAUHWND__@@@std@@V?$allocator@U?$pair@QAUHWND__@@UCWndData@@@std@@@4@$0A@@std@@@std@@@std@@YAXPAU_Node@?$_Tree_nod@V?$_Tmap_traits@PAUHWND__@@UCWndData@@U?$less@PAUHWND__@@@std@@V?$allocator@U?$pair@QAUHWND__@@UCWndData@@@std@@@4@$0A@@std@@@0@@Z ; std::_Destroy<std::_Tree_nod<std::_Tmap_traits<HWND__ *,CWndData,std::less<HWND__ *>,std::allocator<std::pair<HWND__ * const,CWndData> >,0> >::_Node>
; Function compile flags: /Odt
;	COMDAT ?destroy@?$allocator@U_Node@?$_Tree_nod@V?$_Tmap_traits@PAUHWND__@@UCWndData@@U?$less@PAUHWND__@@@std@@V?$allocator@U?$pair@QAUHWND__@@UCWndData@@@std@@@4@$0A@@std@@@std@@@std@@QAEXPAU_Node@?$_Tree_nod@V?$_Tmap_traits@PAUHWND__@@UCWndData@@U?$less@PAUHWND__@@@std@@V?$allocator@U?$pair@QAUHWND__@@UCWndData@@@std@@@4@$0A@@std@@@2@@Z
_TEXT	SEGMENT
_this$ = -4						; size = 4
__Ptr$ = 8						; size = 4
?destroy@?$allocator@U_Node@?$_Tree_nod@V?$_Tmap_traits@PAUHWND__@@UCWndData@@U?$less@PAUHWND__@@@std@@V?$allocator@U?$pair@QAUHWND__@@UCWndData@@@std@@@4@$0A@@std@@@std@@@std@@QAEXPAU_Node@?$_Tree_nod@V?$_Tmap_traits@PAUHWND__@@UCWndData@@U?$less@PAUHWND__@@@std@@V?$allocator@U?$pair@QAUHWND__@@UCWndData@@@std@@@4@$0A@@std@@@2@@Z PROC NEAR ; std::allocator<std::_Tree_nod<std::_Tmap_traits<HWND__ *,CWndData,std::less<HWND__ *>,std::allocator<std::pair<HWND__ * const,CWndData> >,0> >::_Node>::destroy, COMDAT
; _this$ = ecx

; 151  : 		{	// destroy object at _Ptr

  00000	55		 push	 ebp
  00001	8b ec		 mov	 ebp, esp
  00003	51		 push	 ecx
  00004	89 4d fc	 mov	 DWORD PTR _this$[ebp], ecx

; 152  : 		_Destroy(_Ptr);

  00007	8b 45 08	 mov	 eax, DWORD PTR __Ptr$[ebp]
  0000a	50		 push	 eax
  0000b	e8 00 00 00 00	 call	 ??$_Destroy@U_Node@?$_Tree_nod@V?$_Tmap_traits@PAUHWND__@@UCWndData@@U?$less@PAUHWND__@@@std@@V?$allocator@U?$pair@QAUHWND__@@UCWndData@@@std@@@4@$0A@@std@@@std@@@std@@YAXPAU_Node@?$_Tree_nod@V?$_Tmap_traits@PAUHWND__@@UCWndData@@U?$less@PAUHWND__@@@std@@V?$allocator@U?$pair@QAUHWND__@@UCWndData@@@std@@@4@$0A@@std@@@0@@Z ; std::_Destroy<std::_Tree_nod<std::_Tmap_traits<HWND__ *,CWndData,std::less<HWND__ *>,std::allocator<std::pair<HWND__ * const,CWndData> >,0> >::_Node>
  00010	83 c4 04	 add	 esp, 4

; 153  : 		}

  00013	8b e5		 mov	 esp, ebp
  00015	5d		 pop	 ebp
  00016	c2 04 00	 ret	 4
?destroy@?$allocator@U_Node@?$_Tree_nod@V?$_Tmap_traits@PAUHWND__@@UCWndData@@U?$less@PAUHWND__@@@std@@V?$allocator@U?$pair@QAUHWND__@@UCWndData@@@std@@@4@$0A@@std@@@std@@@std@@QAEXPAU_Node@?$_Tree_nod@V?$_Tmap_traits@PAUHWND__@@UCWndData@@U?$less@PAUHWND__@@@std@@V?$allocator@U?$pair@QAUHWND__@@UCWndData@@@std@@@4@$0A@@std@@@2@@Z ENDP ; std::allocator<std::_Tree_nod<std::_Tmap_traits<HWND__ *,CWndData,std::less<HWND__ *>,std::allocator<std::pair<HWND__ * const,CWndData> >,0> >::_Node>::destroy
_TEXT	ENDS
PUBLIC	??$_Construct@PAU_Node@?$_Tree_nod@V?$_Tmap_traits@PAUHWND__@@UCWndData@@U?$less@PAUHWND__@@@std@@V?$allocator@U?$pair@QAUHWND__@@UCWndData@@@std@@@4@$0A@@std@@@std@@PAU123@@std@@YAXPAPAU_Node@?$_Tree_nod@V?$_Tmap_traits@PAUHWND__@@UCWndData@@U?$less@PAUHWND__@@@std@@V?$allocator@U?$pair@QAUHWND__@@UCWndData@@@std@@@4@$0A@@std@@@0@ABQAU120@@Z ; std::_Construct<std::_Tree_nod<std::_Tmap_traits<HWND__ *,CWndData,std::less<HWND__ *>,std::allocator<std::pair<HWND__ * const,CWndData> >,0> >::_Node *,std::_Tree_nod<std::_Tmap_traits<HWND__ *,CWndData,std::less<HWND__ *>,std::allocator<std::pair<HWND__ * const,CWndData> >,0> >::_Node *>
; Function compile flags: /Odt
;	COMDAT ?construct@?$allocator@PAU_Node@?$_Tree_nod@V?$_Tmap_traits@PAUHWND__@@UCWndData@@U?$less@PAUHWND__@@@std@@V?$allocator@U?$pair@QAUHWND__@@UCWndData@@@std@@@4@$0A@@std@@@std@@@std@@QAEXPAPAU_Node@?$_Tree_nod@V?$_Tmap_traits@PAUHWND__@@UCWndData@@U?$less@PAUHWND__@@@std@@V?$allocator@U?$pair@QAUHWND__@@UCWndData@@@std@@@4@$0A@@std@@@2@ABQAU342@@Z
_TEXT	SEGMENT
_this$ = -4						; size = 4
__Ptr$ = 8						; size = 4
__Val$ = 12						; size = 4
?construct@?$allocator@PAU_Node@?$_Tree_nod@V?$_Tmap_traits@PAUHWND__@@UCWndData@@U?$less@PAUHWND__@@@std@@V?$allocator@U?$pair@QAUHWND__@@UCWndData@@@std@@@4@$0A@@std@@@std@@@std@@QAEXPAPAU_Node@?$_Tree_nod@V?$_Tmap_traits@PAUHWND__@@UCWndData@@U?$less@PAUHWND__@@@std@@V?$allocator@U?$pair@QAUHWND__@@UCWndData@@@std@@@4@$0A@@std@@@2@ABQAU342@@Z PROC NEAR ; std::allocator<std::_Tree_nod<std::_Tmap_traits<HWND__ *,CWndData,std::less<HWND__ *>,std::allocator<std::pair<HWND__ * const,CWndData> >,0> >::_Node *>::construct, COMDAT
; _this$ = ecx

; 146  : 		{	// construct object at _Ptr with value _Val

  00000	55		 push	 ebp
  00001	8b ec		 mov	 ebp, esp
  00003	51		 push	 ecx
  00004	89 4d fc	 mov	 DWORD PTR _this$[ebp], ecx

; 147  : 		_Construct(_Ptr, _Val);

  00007	8b 45 0c	 mov	 eax, DWORD PTR __Val$[ebp]
  0000a	50		 push	 eax
  0000b	8b 4d 08	 mov	 ecx, DWORD PTR __Ptr$[ebp]
  0000e	51		 push	 ecx
  0000f	e8 00 00 00 00	 call	 ??$_Construct@PAU_Node@?$_Tree_nod@V?$_Tmap_traits@PAUHWND__@@UCWndData@@U?$less@PAUHWND__@@@std@@V?$allocator@U?$pair@QAUHWND__@@UCWndData@@@std@@@4@$0A@@std@@@std@@PAU123@@std@@YAXPAPAU_Node@?$_Tree_nod@V?$_Tmap_traits@PAUHWND__@@UCWndData@@U?$less@PAUHWND__@@@std@@V?$allocator@U?$pair@QAUHWND__@@UCWndData@@@std@@@4@$0A@@std@@@0@ABQAU120@@Z ; std::_Construct<std::_Tree_nod<std::_Tmap_traits<HWND__ *,CWndData,std::less<HWND__ *>,std::allocator<std::pair<HWND__ * const,CWndData> >,0> >::_Node *,std::_Tree_nod<std::_Tmap_traits<HWND__ *,CWndData,std::less<HWND__ *>,std::allocator<std::pair<HWND__ * const,CWndData> >,0> >::_Node *>
  00014	83 c4 08	 add	 esp, 8

; 148  : 		}

  00017	8b e5		 mov	 esp, ebp
  00019	5d		 pop	 ebp
  0001a	c2 08 00	 ret	 8
?construct@?$allocator@PAU_Node@?$_Tree_nod@V?$_Tmap_traits@PAUHWND__@@UCWndData@@U?$less@PAUHWND__@@@std@@V?$allocator@U?$pair@QAUHWND__@@UCWndData@@@std@@@4@$0A@@std@@@std@@@std@@QAEXPAPAU_Node@?$_Tree_nod@V?$_Tmap_traits@PAUHWND__@@UCWndData@@U?$less@PAUHWND__@@@std@@V?$allocator@U?$pair@QAUHWND__@@UCWndData@@@std@@@4@$0A@@std@@@2@ABQAU342@@Z ENDP ; std::allocator<std::_Tree_nod<std::_Tmap_traits<HWND__ *,CWndData,std::less<HWND__ *>,std::allocator<std::pair<HWND__ * const,CWndData> >,0> >::_Node *>::construct
; Function compile flags: /Odt
; File d:\program files (x86)\microsoft visual studio .net 2003\vc7\include\xtree
_TEXT	ENDS
;	COMDAT ?_Dec@const_iterator@?$_Tree@V?$_Tmap_traits@PAUHWND__@@UCWndData@@U?$less@PAUHWND__@@@std@@V?$allocator@U?$pair@QAUHWND__@@UCWndData@@@std@@@4@$0A@@std@@@std@@QAEXXZ
_TEXT	SEGMENT
_this$ = -8						; size = 4
__Pnode$201347 = -4					; size = 4
?_Dec@const_iterator@?$_Tree@V?$_Tmap_traits@PAUHWND__@@UCWndData@@U?$less@PAUHWND__@@@std@@V?$allocator@U?$pair@QAUHWND__@@UCWndData@@@std@@@4@$0A@@std@@@std@@QAEXXZ PROC NEAR ; std::_Tree<std::_Tmap_traits<HWND__ *,CWndData,std::less<HWND__ *>,std::allocator<std::pair<HWND__ * const,CWndData> >,0> >::const_iterator::_Dec, COMDAT
; _this$ = ecx

; 250  : 			{	// move to node with next smaller value

  00000	55		 push	 ebp
  00001	8b ec		 mov	 ebp, esp
  00003	83 ec 08	 sub	 esp, 8
  00006	89 4d f8	 mov	 DWORD PTR _this$[ebp], ecx

; 251  : 			if (_Isnil(_Ptr))

  00009	8b 45 f8	 mov	 eax, DWORD PTR _this$[ebp]
  0000c	8b 08		 mov	 ecx, DWORD PTR [eax]
  0000e	51		 push	 ecx
  0000f	e8 00 00 00 00	 call	 ?_Isnil@?$_Tree@V?$_Tmap_traits@PAUHWND__@@UCWndData@@U?$less@PAUHWND__@@@std@@V?$allocator@U?$pair@QAUHWND__@@UCWndData@@@std@@@4@$0A@@std@@@std@@KAAADPAU_Node@?$_Tree_nod@V?$_Tmap_traits@PAUHWND__@@UCWndData@@U?$less@PAUHWND__@@@std@@V?$allocator@U?$pair@QAUHWND__@@UCWndData@@@std@@@4@$0A@@std@@@2@@Z ; std::_Tree<std::_Tmap_traits<HWND__ *,CWndData,std::less<HWND__ *>,std::allocator<std::pair<HWND__ * const,CWndData> >,0> >::_Isnil
  00014	83 c4 04	 add	 esp, 4
  00017	0f be 10	 movsx	 edx, BYTE PTR [eax]
  0001a	85 d2		 test	 edx, edx
  0001c	74 1a		 je	 SHORT $L201343

; 252  : 				_Ptr = _Right(_Ptr);	// end() ==> rightmost

  0001e	8b 45 f8	 mov	 eax, DWORD PTR _this$[ebp]
  00021	8b 08		 mov	 ecx, DWORD PTR [eax]
  00023	51		 push	 ecx
  00024	e8 00 00 00 00	 call	 ?_Right@?$_Tree@V?$_Tmap_traits@PAUHWND__@@UCWndData@@U?$less@PAUHWND__@@@std@@V?$allocator@U?$pair@QAUHWND__@@UCWndData@@@std@@@4@$0A@@std@@@std@@KAAAPAU_Node@?$_Tree_nod@V?$_Tmap_traits@PAUHWND__@@UCWndData@@U?$less@PAUHWND__@@@std@@V?$allocator@U?$pair@QAUHWND__@@UCWndData@@@std@@@4@$0A@@std@@@2@PAU342@@Z ; std::_Tree<std::_Tmap_traits<HWND__ *,CWndData,std::less<HWND__ *>,std::allocator<std::pair<HWND__ * const,CWndData> >,0> >::_Right
  00029	83 c4 04	 add	 esp, 4
  0002c	8b 55 f8	 mov	 edx, DWORD PTR _this$[ebp]
  0002f	8b 00		 mov	 eax, DWORD PTR [eax]
  00031	89 02		 mov	 DWORD PTR [edx], eax

; 253  : 			else if (!_Isnil(_Left(_Ptr)))

  00033	e9 a0 00 00 00	 jmp	 $L201342
$L201343:
  00038	8b 4d f8	 mov	 ecx, DWORD PTR _this$[ebp]
  0003b	8b 11		 mov	 edx, DWORD PTR [ecx]
  0003d	52		 push	 edx
  0003e	e8 00 00 00 00	 call	 ?_Left@?$_Tree@V?$_Tmap_traits@PAUHWND__@@UCWndData@@U?$less@PAUHWND__@@@std@@V?$allocator@U?$pair@QAUHWND__@@UCWndData@@@std@@@4@$0A@@std@@@std@@KAAAPAU_Node@?$_Tree_nod@V?$_Tmap_traits@PAUHWND__@@UCWndData@@U?$less@PAUHWND__@@@std@@V?$allocator@U?$pair@QAUHWND__@@UCWndData@@@std@@@4@$0A@@std@@@2@PAU342@@Z ; std::_Tree<std::_Tmap_traits<HWND__ *,CWndData,std::less<HWND__ *>,std::allocator<std::pair<HWND__ * const,CWndData> >,0> >::_Left
  00043	83 c4 04	 add	 esp, 4
  00046	8b 00		 mov	 eax, DWORD PTR [eax]
  00048	50		 push	 eax
  00049	e8 00 00 00 00	 call	 ?_Isnil@?$_Tree@V?$_Tmap_traits@PAUHWND__@@UCWndData@@U?$less@PAUHWND__@@@std@@V?$allocator@U?$pair@QAUHWND__@@UCWndData@@@std@@@4@$0A@@std@@@std@@KAAADPAU_Node@?$_Tree_nod@V?$_Tmap_traits@PAUHWND__@@UCWndData@@U?$less@PAUHWND__@@@std@@V?$allocator@U?$pair@QAUHWND__@@UCWndData@@@std@@@4@$0A@@std@@@2@@Z ; std::_Tree<std::_Tmap_traits<HWND__ *,CWndData,std::less<HWND__ *>,std::allocator<std::pair<HWND__ * const,CWndData> >,0> >::_Isnil
  0004e	83 c4 04	 add	 esp, 4
  00051	0f be 08	 movsx	 ecx, BYTE PTR [eax]
  00054	85 c9		 test	 ecx, ecx
  00056	75 20		 jne	 SHORT $L201349

; 254  : 				_Ptr = _Max(_Left(_Ptr));	// ==> largest of left subtree

  00058	8b 55 f8	 mov	 edx, DWORD PTR _this$[ebp]
  0005b	8b 02		 mov	 eax, DWORD PTR [edx]
  0005d	50		 push	 eax
  0005e	e8 00 00 00 00	 call	 ?_Left@?$_Tree@V?$_Tmap_traits@PAUHWND__@@UCWndData@@U?$less@PAUHWND__@@@std@@V?$allocator@U?$pair@QAUHWND__@@UCWndData@@@std@@@4@$0A@@std@@@std@@KAAAPAU_Node@?$_Tree_nod@V?$_Tmap_traits@PAUHWND__@@UCWndData@@U?$less@PAUHWND__@@@std@@V?$allocator@U?$pair@QAUHWND__@@UCWndData@@@std@@@4@$0A@@std@@@2@PAU342@@Z ; std::_Tree<std::_Tmap_traits<HWND__ *,CWndData,std::less<HWND__ *>,std::allocator<std::pair<HWND__ * const,CWndData> >,0> >::_Left
  00063	83 c4 04	 add	 esp, 4
  00066	8b 08		 mov	 ecx, DWORD PTR [eax]
  00068	51		 push	 ecx
  00069	e8 00 00 00 00	 call	 ?_Max@?$_Tree@V?$_Tmap_traits@PAUHWND__@@UCWndData@@U?$less@PAUHWND__@@@std@@V?$allocator@U?$pair@QAUHWND__@@UCWndData@@@std@@@4@$0A@@std@@@std@@KAPAU_Node@?$_Tree_nod@V?$_Tmap_traits@PAUHWND__@@UCWndData@@U?$less@PAUHWND__@@@std@@V?$allocator@U?$pair@QAUHWND__@@UCWndData@@@std@@@4@$0A@@std@@@2@PAU342@@Z ; std::_Tree<std::_Tmap_traits<HWND__ *,CWndData,std::less<HWND__ *>,std::allocator<std::pair<HWND__ * const,CWndData> >,0> >::_Max
  0006e	83 c4 04	 add	 esp, 4
  00071	8b 55 f8	 mov	 edx, DWORD PTR _this$[ebp]
  00074	89 02		 mov	 DWORD PTR [edx], eax

; 255  : 			else

  00076	eb 60		 jmp	 SHORT $L201342
$L201349:

; 256  : 				{	// climb looking for left subtree
; 257  : 				_Nodeptr _Pnode;
; 258  : 				while (!_Isnil(_Pnode = _Parent(_Ptr))
; 259  : 					&& _Ptr == _Left(_Pnode))

  00078	8b 45 f8	 mov	 eax, DWORD PTR _this$[ebp]
  0007b	8b 08		 mov	 ecx, DWORD PTR [eax]
  0007d	51		 push	 ecx
  0007e	e8 00 00 00 00	 call	 ?_Parent@?$_Tree@V?$_Tmap_traits@PAUHWND__@@UCWndData@@U?$less@PAUHWND__@@@std@@V?$allocator@U?$pair@QAUHWND__@@UCWndData@@@std@@@4@$0A@@std@@@std@@KAAAPAU_Node@?$_Tree_nod@V?$_Tmap_traits@PAUHWND__@@UCWndData@@U?$less@PAUHWND__@@@std@@V?$allocator@U?$pair@QAUHWND__@@UCWndData@@@std@@@4@$0A@@std@@@2@PAU342@@Z ; std::_Tree<std::_Tmap_traits<HWND__ *,CWndData,std::less<HWND__ *>,std::allocator<std::pair<HWND__ * const,CWndData> >,0> >::_Parent
  00083	83 c4 04	 add	 esp, 4
  00086	8b 10		 mov	 edx, DWORD PTR [eax]
  00088	89 55 fc	 mov	 DWORD PTR __Pnode$201347[ebp], edx
  0008b	8b 45 fc	 mov	 eax, DWORD PTR __Pnode$201347[ebp]
  0008e	50		 push	 eax
  0008f	e8 00 00 00 00	 call	 ?_Isnil@?$_Tree@V?$_Tmap_traits@PAUHWND__@@UCWndData@@U?$less@PAUHWND__@@@std@@V?$allocator@U?$pair@QAUHWND__@@UCWndData@@@std@@@4@$0A@@std@@@std@@KAAADPAU_Node@?$_Tree_nod@V?$_Tmap_traits@PAUHWND__@@UCWndData@@U?$less@PAUHWND__@@@std@@V?$allocator@U?$pair@QAUHWND__@@UCWndData@@@std@@@4@$0A@@std@@@2@@Z ; std::_Tree<std::_Tmap_traits<HWND__ *,CWndData,std::less<HWND__ *>,std::allocator<std::pair<HWND__ * const,CWndData> >,0> >::_Isnil
  00094	83 c4 04	 add	 esp, 4
  00097	0f be 08	 movsx	 ecx, BYTE PTR [eax]
  0009a	85 c9		 test	 ecx, ecx
  0009c	75 1f		 jne	 SHORT $L201350
  0009e	8b 55 fc	 mov	 edx, DWORD PTR __Pnode$201347[ebp]
  000a1	52		 push	 edx
  000a2	e8 00 00 00 00	 call	 ?_Left@?$_Tree@V?$_Tmap_traits@PAUHWND__@@UCWndData@@U?$less@PAUHWND__@@@std@@V?$allocator@U?$pair@QAUHWND__@@UCWndData@@@std@@@4@$0A@@std@@@std@@KAAAPAU_Node@?$_Tree_nod@V?$_Tmap_traits@PAUHWND__@@UCWndData@@U?$less@PAUHWND__@@@std@@V?$allocator@U?$pair@QAUHWND__@@UCWndData@@@std@@@4@$0A@@std@@@2@PAU342@@Z ; std::_Tree<std::_Tmap_traits<HWND__ *,CWndData,std::less<HWND__ *>,std::allocator<std::pair<HWND__ * const,CWndData> >,0> >::_Left
  000a7	83 c4 04	 add	 esp, 4
  000aa	8b 4d f8	 mov	 ecx, DWORD PTR _this$[ebp]
  000ad	8b 11		 mov	 edx, DWORD PTR [ecx]
  000af	3b 10		 cmp	 edx, DWORD PTR [eax]
  000b1	75 0a		 jne	 SHORT $L201350

; 260  : 					_Ptr = _Pnode;	// ==> parent while left subtree

  000b3	8b 45 f8	 mov	 eax, DWORD PTR _this$[ebp]
  000b6	8b 4d fc	 mov	 ecx, DWORD PTR __Pnode$201347[ebp]
  000b9	89 08		 mov	 DWORD PTR [eax], ecx
  000bb	eb bb		 jmp	 SHORT $L201349
$L201350:

; 261  : 				if (!_Isnil(_Pnode))

  000bd	8b 55 fc	 mov	 edx, DWORD PTR __Pnode$201347[ebp]
  000c0	52		 push	 edx
  000c1	e8 00 00 00 00	 call	 ?_Isnil@?$_Tree@V?$_Tmap_traits@PAUHWND__@@UCWndData@@U?$less@PAUHWND__@@@std@@V?$allocator@U?$pair@QAUHWND__@@UCWndData@@@std@@@4@$0A@@std@@@std@@KAAADPAU_Node@?$_Tree_nod@V?$_Tmap_traits@PAUHWND__@@UCWndData@@U?$less@PAUHWND__@@@std@@V?$allocator@U?$pair@QAUHWND__@@UCWndData@@@std@@@4@$0A@@std@@@2@@Z ; std::_Tree<std::_Tmap_traits<HWND__ *,CWndData,std::less<HWND__ *>,std::allocator<std::pair<HWND__ * const,CWndData> >,0> >::_Isnil
  000c6	83 c4 04	 add	 esp, 4
  000c9	0f be 00	 movsx	 eax, BYTE PTR [eax]
  000cc	85 c0		 test	 eax, eax
  000ce	75 08		 jne	 SHORT $L201342

; 262  : 					_Ptr = _Pnode;	// ==> parent if not head

  000d0	8b 4d f8	 mov	 ecx, DWORD PTR _this$[ebp]
  000d3	8b 55 fc	 mov	 edx, DWORD PTR __Pnode$201347[ebp]
  000d6	89 11		 mov	 DWORD PTR [ecx], edx
$L201342:

; 263  : 				}
; 264  : 			}

  000d8	8b e5		 mov	 esp, ebp
  000da	5d		 pop	 ebp
  000db	c3		 ret	 0
?_Dec@const_iterator@?$_Tree@V?$_Tmap_traits@PAUHWND__@@UCWndData@@U?$less@PAUHWND__@@@std@@V?$allocator@U?$pair@QAUHWND__@@UCWndData@@@std@@@4@$0A@@std@@@std@@QAEXXZ ENDP ; std::_Tree<std::_Tmap_traits<HWND__ *,CWndData,std::less<HWND__ *>,std::allocator<std::pair<HWND__ * const,CWndData> >,0> >::const_iterator::_Dec
; Function compile flags: /Odt
_TEXT	ENDS
;	COMDAT ??0_Node@?$_Tree_nod@V?$_Tmap_traits@PAUHWND__@@UCWndData@@U?$less@PAUHWND__@@@std@@V?$allocator@U?$pair@QAUHWND__@@UCWndData@@@std@@@4@$0A@@std@@@std@@QAE@PAU012@00ABU?$pair@QAUHWND__@@UCWndData@@@2@D@Z
_TEXT	SEGMENT
_this$ = -4						; size = 4
__Larg$ = 8						; size = 4
__Parg$ = 12						; size = 4
__Rarg$ = 16						; size = 4
__Val$ = 20						; size = 4
__Carg$ = 24						; size = 1
??0_Node@?$_Tree_nod@V?$_Tmap_traits@PAUHWND__@@UCWndData@@U?$less@PAUHWND__@@@std@@V?$allocator@U?$pair@QAUHWND__@@UCWndData@@@std@@@4@$0A@@std@@@std@@QAE@PAU012@00ABU?$pair@QAUHWND__@@UCWndData@@@2@D@Z PROC NEAR ; std::_Tree_nod<std::_Tmap_traits<HWND__ *,CWndData,std::less<HWND__ *>,std::allocator<std::pair<HWND__ * const,CWndData> >,0> >::_Node::_Node, COMDAT
; _this$ = ecx

; 40   : 			{	// construct a node with value

  00000	55		 push	 ebp
  00001	8b ec		 mov	 ebp, esp
  00003	51		 push	 ecx
  00004	89 4d fc	 mov	 DWORD PTR _this$[ebp], ecx
  00007	8b 45 fc	 mov	 eax, DWORD PTR _this$[ebp]
  0000a	8b 4d 08	 mov	 ecx, DWORD PTR __Larg$[ebp]
  0000d	89 08		 mov	 DWORD PTR [eax], ecx
  0000f	8b 55 fc	 mov	 edx, DWORD PTR _this$[ebp]
  00012	8b 45 0c	 mov	 eax, DWORD PTR __Parg$[ebp]
  00015	89 42 04	 mov	 DWORD PTR [edx+4], eax
  00018	8b 4d fc	 mov	 ecx, DWORD PTR _this$[ebp]
  0001b	8b 55 10	 mov	 edx, DWORD PTR __Rarg$[ebp]
  0001e	89 51 08	 mov	 DWORD PTR [ecx+8], edx
  00021	8b 45 14	 mov	 eax, DWORD PTR __Val$[ebp]
  00024	8b 4d fc	 mov	 ecx, DWORD PTR _this$[ebp]
  00027	83 c1 0c	 add	 ecx, 12			; 0000000cH
  0002a	8b 10		 mov	 edx, DWORD PTR [eax]
  0002c	89 11		 mov	 DWORD PTR [ecx], edx
  0002e	8b 50 04	 mov	 edx, DWORD PTR [eax+4]
  00031	89 51 04	 mov	 DWORD PTR [ecx+4], edx
  00034	8b 40 08	 mov	 eax, DWORD PTR [eax+8]
  00037	89 41 08	 mov	 DWORD PTR [ecx+8], eax
  0003a	8b 4d fc	 mov	 ecx, DWORD PTR _this$[ebp]
  0003d	8a 55 18	 mov	 dl, BYTE PTR __Carg$[ebp]
  00040	88 51 18	 mov	 BYTE PTR [ecx+24], dl
  00043	8b 45 fc	 mov	 eax, DWORD PTR _this$[ebp]
  00046	c6 40 19 00	 mov	 BYTE PTR [eax+25], 0

; 41   : 			}

  0004a	8b 45 fc	 mov	 eax, DWORD PTR _this$[ebp]
  0004d	8b e5		 mov	 esp, ebp
  0004f	5d		 pop	 ebp
  00050	c2 14 00	 ret	 20			; 00000014H
??0_Node@?$_Tree_nod@V?$_Tmap_traits@PAUHWND__@@UCWndData@@U?$less@PAUHWND__@@@std@@V?$allocator@U?$pair@QAUHWND__@@UCWndData@@@std@@@4@$0A@@std@@@std@@QAE@PAU012@00ABU?$pair@QAUHWND__@@UCWndData@@@2@D@Z ENDP ; std::_Tree_nod<std::_Tmap_traits<HWND__ *,CWndData,std::less<HWND__ *>,std::allocator<std::pair<HWND__ * const,CWndData> >,0> >::_Node::_Node
; Function compile flags: /Odt
; File d:\program files (x86)\microsoft visual studio .net 2003\vc7\include\map
_TEXT	ENDS
;	COMDAT ??0?$_Tmap_traits@PAUHWND__@@UCWndData@@U?$less@PAUHWND__@@@std@@V?$allocator@U?$pair@QAUHWND__@@UCWndData@@@std@@@4@$0A@@std@@QAE@U?$less@PAUHWND__@@@1@@Z
_TEXT	SEGMENT
_this$ = -4						; size = 4
__Parg$ = 8						; size = 1
??0?$_Tmap_traits@PAUHWND__@@UCWndData@@U?$less@PAUHWND__@@@std@@V?$allocator@U?$pair@QAUHWND__@@UCWndData@@@std@@@4@$0A@@std@@QAE@U?$less@PAUHWND__@@@1@@Z PROC NEAR ; std::_Tmap_traits<HWND__ *,CWndData,std::less<HWND__ *>,std::allocator<std::pair<HWND__ * const,CWndData> >,0>::_Tmap_traits<HWND__ *,CWndData,std::less<HWND__ *>,std::allocator<std::pair<HWND__ * const,CWndData> >,0>, COMDAT
; _this$ = ecx

; 38   : 		{	// construct with specified comparator

  00000	55		 push	 ebp
  00001	8b ec		 mov	 ebp, esp
  00003	51		 push	 ecx
  00004	89 4d fc	 mov	 DWORD PTR _this$[ebp], ecx

; 39   : 		}

  00007	8b 45 fc	 mov	 eax, DWORD PTR _this$[ebp]
  0000a	8b e5		 mov	 esp, ebp
  0000c	5d		 pop	 ebp
  0000d	c2 04 00	 ret	 4
??0?$_Tmap_traits@PAUHWND__@@UCWndData@@U?$less@PAUHWND__@@@std@@V?$allocator@U?$pair@QAUHWND__@@UCWndData@@@std@@@4@$0A@@std@@QAE@U?$less@PAUHWND__@@@1@@Z ENDP ; std::_Tmap_traits<HWND__ *,CWndData,std::less<HWND__ *>,std::allocator<std::pair<HWND__ * const,CWndData> >,0>::_Tmap_traits<HWND__ *,CWndData,std::less<HWND__ *>,std::allocator<std::pair<HWND__ * const,CWndData> >,0>
_TEXT	ENDS
PUBLIC	??$_Ptr_cat@VCHostWnd@@@std@@YA?AU_Scalar_ptr_iterator_tag@0@PAPAVCHostWnd@@0@Z ; std::_Ptr_cat<CHostWnd>
PUBLIC	??$_Uninit_fill_n@PAVCHostWnd@@IPAV1@@std@@YAXPAPAVCHostWnd@@IABQAV1@AAV?$allocator@PAVCHostWnd@@@0@U_Scalar_ptr_iterator_tag@0@@Z ; std::_Uninit_fill_n<CHostWnd *,unsigned int,CHostWnd *>
; Function compile flags: /Odt
; File d:\program files (x86)\microsoft visual studio .net 2003\vc7\include\memory
;	COMDAT ??$_Uninitialized_fill_n@PAPAVCHostWnd@@IPAV1@V?$allocator@PAVCHostWnd@@@std@@@std@@YAXPAPAVCHostWnd@@IABQAV1@AAV?$allocator@PAVCHostWnd@@@0@@Z
_TEXT	SEGMENT
$T203012 = -1						; size = 1
__First$ = 8						; size = 4
__Count$ = 12						; size = 4
__Val$ = 16						; size = 4
__Al$ = 20						; size = 4
??$_Uninitialized_fill_n@PAPAVCHostWnd@@IPAV1@V?$allocator@PAVCHostWnd@@@std@@@std@@YAXPAPAVCHostWnd@@IABQAV1@AAV?$allocator@PAVCHostWnd@@@0@@Z PROC NEAR ; std::_Uninitialized_fill_n<CHostWnd * *,unsigned int,CHostWnd *,std::allocator<CHostWnd *> >, COMDAT

; 255  : 	{	// copy _Count *_Val to raw _First, using _Al

  00000	55		 push	 ebp
  00001	8b ec		 mov	 ebp, esp
  00003	51		 push	 ecx

; 256  : 	_Uninit_fill_n(_First, _Count, _Val, _Al,
; 257  : 		_Ptr_cat(_First, _First));

  00004	8b 45 08	 mov	 eax, DWORD PTR __First$[ebp]
  00007	50		 push	 eax
  00008	8b 4d 08	 mov	 ecx, DWORD PTR __First$[ebp]
  0000b	51		 push	 ecx
  0000c	e8 00 00 00 00	 call	 ??$_Ptr_cat@VCHostWnd@@@std@@YA?AU_Scalar_ptr_iterator_tag@0@PAPAVCHostWnd@@0@Z ; std::_Ptr_cat<CHostWnd>
  00011	83 c4 08	 add	 esp, 8
  00014	88 45 ff	 mov	 BYTE PTR $T203012[ebp], al
  00017	8a 55 ff	 mov	 dl, BYTE PTR $T203012[ebp]
  0001a	52		 push	 edx
  0001b	8b 45 14	 mov	 eax, DWORD PTR __Al$[ebp]
  0001e	50		 push	 eax
  0001f	8b 4d 10	 mov	 ecx, DWORD PTR __Val$[ebp]
  00022	51		 push	 ecx
  00023	8b 55 0c	 mov	 edx, DWORD PTR __Count$[ebp]
  00026	52		 push	 edx
  00027	8b 45 08	 mov	 eax, DWORD PTR __First$[ebp]
  0002a	50		 push	 eax
  0002b	e8 00 00 00 00	 call	 ??$_Uninit_fill_n@PAVCHostWnd@@IPAV1@@std@@YAXPAPAVCHostWnd@@IABQAV1@AAV?$allocator@PAVCHostWnd@@@0@U_Scalar_ptr_iterator_tag@0@@Z ; std::_Uninit_fill_n<CHostWnd *,unsigned int,CHostWnd *>
  00030	83 c4 14	 add	 esp, 20			; 00000014H

; 258  : 	}

  00033	8b e5		 mov	 esp, ebp
  00035	5d		 pop	 ebp
  00036	c3		 ret	 0
??$_Uninitialized_fill_n@PAPAVCHostWnd@@IPAV1@V?$allocator@PAVCHostWnd@@@std@@@std@@YAXPAPAVCHostWnd@@IABQAV1@AAV?$allocator@PAVCHostWnd@@@0@@Z ENDP ; std::_Uninitialized_fill_n<CHostWnd * *,unsigned int,CHostWnd *,std::allocator<CHostWnd *> >
; Function compile flags: /Odt
; File d:\program files (x86)\microsoft visual studio .net 2003\vc7\include\xmemory
_TEXT	ENDS
;	COMDAT ??$_Destroy@PAU_Node@?$_Tree_nod@V?$_Tmap_traits@PAUHWND__@@UCWndData@@U?$less@PAUHWND__@@@std@@V?$allocator@U?$pair@QAUHWND__@@UCWndData@@@std@@@4@$0A@@std@@@std@@@std@@YAXPAPAU_Node@?$_Tree_nod@V?$_Tmap_traits@PAUHWND__@@UCWndData@@U?$less@PAUHWND__@@@std@@V?$allocator@U?$pair@QAUHWND__@@UCWndData@@@std@@@4@$0A@@std@@@0@@Z
_TEXT	SEGMENT
__Ptr$ = 8						; size = 4
??$_Destroy@PAU_Node@?$_Tree_nod@V?$_Tmap_traits@PAUHWND__@@UCWndData@@U?$less@PAUHWND__@@@std@@V?$allocator@U?$pair@QAUHWND__@@UCWndData@@@std@@@4@$0A@@std@@@std@@@std@@YAXPAPAU_Node@?$_Tree_nod@V?$_Tmap_traits@PAUHWND__@@UCWndData@@U?$less@PAUHWND__@@@std@@V?$allocator@U?$pair@QAUHWND__@@UCWndData@@@std@@@4@$0A@@std@@@0@@Z PROC NEAR ; std::_Destroy<std::_Tree_nod<std::_Tmap_traits<HWND__ *,CWndData,std::less<HWND__ *>,std::allocator<std::pair<HWND__ * const,CWndData> >,0> >::_Node *>, COMDAT

; 48   : 	{	// destroy object at _Ptr

  00000	55		 push	 ebp
  00001	8b ec		 mov	 ebp, esp

; 49   : 	_DESTRUCTOR(_Ty, _Ptr);
; 50   : 	}

  00003	5d		 pop	 ebp
  00004	c3		 ret	 0
??$_Destroy@PAU_Node@?$_Tree_nod@V?$_Tmap_traits@PAUHWND__@@UCWndData@@U?$less@PAUHWND__@@@std@@V?$allocator@U?$pair@QAUHWND__@@UCWndData@@@std@@@4@$0A@@std@@@std@@@std@@YAXPAPAU_Node@?$_Tree_nod@V?$_Tmap_traits@PAUHWND__@@UCWndData@@U?$less@PAUHWND__@@@std@@V?$allocator@U?$pair@QAUHWND__@@UCWndData@@@std@@@4@$0A@@std@@@0@@Z ENDP ; std::_Destroy<std::_Tree_nod<std::_Tmap_traits<HWND__ *,CWndData,std::less<HWND__ *>,std::allocator<std::pair<HWND__ * const,CWndData> >,0> >::_Node *>
_TEXT	ENDS
PUBLIC	??$_Destroy_range@PAVCHostWnd@@V?$allocator@PAVCHostWnd@@@std@@@std@@YAXPAPAVCHostWnd@@0AAV?$allocator@PAVCHostWnd@@@0@U_Scalar_ptr_iterator_tag@0@@Z ; std::_Destroy_range<CHostWnd *,std::allocator<CHostWnd *> >
; Function compile flags: /Odt
;	COMDAT ??$_Destroy_range@PAVCHostWnd@@V?$allocator@PAVCHostWnd@@@std@@@std@@YAXPAPAVCHostWnd@@0AAV?$allocator@PAVCHostWnd@@@0@@Z
_TEXT	SEGMENT
$T203017 = -1						; size = 1
__First$ = 8						; size = 4
__Last$ = 12						; size = 4
__Al$ = 16						; size = 4
??$_Destroy_range@PAVCHostWnd@@V?$allocator@PAVCHostWnd@@@std@@@std@@YAXPAPAVCHostWnd@@0AAV?$allocator@PAVCHostWnd@@@0@@Z PROC NEAR ; std::_Destroy_range<CHostWnd *,std::allocator<CHostWnd *> >, COMDAT

; 216  : 	{	// destroy [_First, _Last)

  00000	55		 push	 ebp
  00001	8b ec		 mov	 ebp, esp
  00003	51		 push	 ecx

; 217  : 	_Destroy_range(_First, _Last, _Al, _Ptr_cat(_First, _Last));

  00004	8b 45 0c	 mov	 eax, DWORD PTR __Last$[ebp]
  00007	50		 push	 eax
  00008	8b 4d 08	 mov	 ecx, DWORD PTR __First$[ebp]
  0000b	51		 push	 ecx
  0000c	e8 00 00 00 00	 call	 ??$_Ptr_cat@VCHostWnd@@@std@@YA?AU_Scalar_ptr_iterator_tag@0@PAPAVCHostWnd@@0@Z ; std::_Ptr_cat<CHostWnd>
  00011	83 c4 08	 add	 esp, 8
  00014	88 45 ff	 mov	 BYTE PTR $T203017[ebp], al
  00017	8a 55 ff	 mov	 dl, BYTE PTR $T203017[ebp]
  0001a	52		 push	 edx
  0001b	8b 45 10	 mov	 eax, DWORD PTR __Al$[ebp]
  0001e	50		 push	 eax
  0001f	8b 4d 0c	 mov	 ecx, DWORD PTR __Last$[ebp]
  00022	51		 push	 ecx
  00023	8b 55 08	 mov	 edx, DWORD PTR __First$[ebp]
  00026	52		 push	 edx
  00027	e8 00 00 00 00	 call	 ??$_Destroy_range@PAVCHostWnd@@V?$allocator@PAVCHostWnd@@@std@@@std@@YAXPAPAVCHostWnd@@0AAV?$allocator@PAVCHostWnd@@@0@U_Scalar_ptr_iterator_tag@0@@Z ; std::_Destroy_range<CHostWnd *,std::allocator<CHostWnd *> >
  0002c	83 c4 10	 add	 esp, 16			; 00000010H

; 218  : 	}

  0002f	8b e5		 mov	 esp, ebp
  00031	5d		 pop	 ebp
  00032	c3		 ret	 0
??$_Destroy_range@PAVCHostWnd@@V?$allocator@PAVCHostWnd@@@std@@@std@@YAXPAPAVCHostWnd@@0AAV?$allocator@PAVCHostWnd@@@0@@Z ENDP ; std::_Destroy_range<CHostWnd *,std::allocator<CHostWnd *> >
_TEXT	ENDS
PUBLIC	??$_Uninitialized_copy@PAPAVCHostWnd@@PAPAV1@V?$allocator@PAVCHostWnd@@@std@@@std@@YAPAPAVCHostWnd@@PAPAV1@00AAV?$allocator@PAVCHostWnd@@@0@@Z ; std::_Uninitialized_copy<CHostWnd * *,CHostWnd * *,std::allocator<CHostWnd *> >
; Function compile flags: /Odt
; File d:\program files (x86)\microsoft visual studio .net 2003\vc7\include\vector
;	COMDAT ??$_Ucopy@PAPAVCHostWnd@@@?$vector@PAVCHostWnd@@V?$allocator@PAVCHostWnd@@@std@@@std@@IAEPAPAVCHostWnd@@PAPAV2@00@Z
_TEXT	SEGMENT
_this$ = -4						; size = 4
__First$ = 8						; size = 4
__Last$ = 12						; size = 4
__Ptr$ = 16						; size = 4
??$_Ucopy@PAPAVCHostWnd@@@?$vector@PAVCHostWnd@@V?$allocator@PAVCHostWnd@@@std@@@std@@IAEPAPAVCHostWnd@@PAPAV2@00@Z PROC NEAR ; std::vector<CHostWnd *,std::allocator<CHostWnd *> >::_Ucopy<CHostWnd * *>, COMDAT
; _this$ = ecx

; 801  : 		pointer _Ucopy(_Iter _First, _Iter _Last, pointer _Ptr)

  00000	55		 push	 ebp
  00001	8b ec		 mov	 ebp, esp
  00003	51		 push	 ecx
  00004	89 4d fc	 mov	 DWORD PTR _this$[ebp], ecx

; 802  : 		{	// copy initializing [_First, _Last), using allocator
; 803  : 		return (_Uninitialized_copy(_First, _Last,
; 804  : 			_Ptr, this->_Alval));

  00007	8b 45 fc	 mov	 eax, DWORD PTR _this$[ebp]
  0000a	50		 push	 eax
  0000b	8b 4d 10	 mov	 ecx, DWORD PTR __Ptr$[ebp]
  0000e	51		 push	 ecx
  0000f	8b 55 0c	 mov	 edx, DWORD PTR __Last$[ebp]
  00012	52		 push	 edx
  00013	8b 45 08	 mov	 eax, DWORD PTR __First$[ebp]
  00016	50		 push	 eax
  00017	e8 00 00 00 00	 call	 ??$_Uninitialized_copy@PAPAVCHostWnd@@PAPAV1@V?$allocator@PAVCHostWnd@@@std@@@std@@YAPAPAVCHostWnd@@PAPAV1@00AAV?$allocator@PAVCHostWnd@@@0@@Z ; std::_Uninitialized_copy<CHostWnd * *,CHostWnd * *,std::allocator<CHostWnd *> >
  0001c	83 c4 10	 add	 esp, 16			; 00000010H

; 805  : 		}

  0001f	8b e5		 mov	 esp, ebp
  00021	5d		 pop	 ebp
  00022	c2 0c 00	 ret	 12			; 0000000cH
??$_Ucopy@PAPAVCHostWnd@@@?$vector@PAVCHostWnd@@V?$allocator@PAVCHostWnd@@@std@@@std@@IAEPAPAVCHostWnd@@PAPAV2@00@Z ENDP ; std::vector<CHostWnd *,std::allocator<CHostWnd *> >::_Ucopy<CHostWnd * *>
; Function compile flags: /Odt
; File d:\program files (x86)\microsoft visual studio .net 2003\vc7\include\xutility
_TEXT	ENDS
;	COMDAT ??$fill@PAPAVCHostWnd@@PAV1@@std@@YAXPAPAVCHostWnd@@0ABQAV1@@Z
_TEXT	SEGMENT
__First$ = 8						; size = 4
__Last$ = 12						; size = 4
__Val$ = 16						; size = 4
??$fill@PAPAVCHostWnd@@PAV1@@std@@YAXPAPAVCHostWnd@@0ABQAV1@@Z PROC NEAR ; std::fill<CHostWnd * *,CHostWnd *>, COMDAT

; 1134 : 	{	// copy _Val through [_First, _Last)

  00000	55		 push	 ebp
  00001	8b ec		 mov	 ebp, esp

; 1135 : 	for (; _First != _Last; ++_First)

  00003	eb 09		 jmp	 SHORT $L201650
$L201651:
  00005	8b 45 08	 mov	 eax, DWORD PTR __First$[ebp]
  00008	83 c0 04	 add	 eax, 4
  0000b	89 45 08	 mov	 DWORD PTR __First$[ebp], eax
$L201650:
  0000e	8b 4d 08	 mov	 ecx, DWORD PTR __First$[ebp]
  00011	3b 4d 0c	 cmp	 ecx, DWORD PTR __Last$[ebp]
  00014	74 0c		 je	 SHORT $L201649

; 1136 : 		*_First = _Val;

  00016	8b 55 08	 mov	 edx, DWORD PTR __First$[ebp]
  00019	8b 45 10	 mov	 eax, DWORD PTR __Val$[ebp]
  0001c	8b 08		 mov	 ecx, DWORD PTR [eax]
  0001e	89 0a		 mov	 DWORD PTR [edx], ecx
  00020	eb e3		 jmp	 SHORT $L201651
$L201649:

; 1137 : 	}

  00022	5d		 pop	 ebp
  00023	c3		 ret	 0
??$fill@PAPAVCHostWnd@@PAV1@@std@@YAXPAPAVCHostWnd@@0ABQAV1@@Z ENDP ; std::fill<CHostWnd * *,CHostWnd *>
_TEXT	ENDS
PUBLIC	??$_Copy_backward_opt@PAPAVCHostWnd@@PAPAV1@@std@@YAPAPAVCHostWnd@@PAPAV1@00U_Scalar_ptr_iterator_tag@0@@Z ; std::_Copy_backward_opt<CHostWnd * *,CHostWnd * *>
; Function compile flags: /Odt
;	COMDAT ??$copy_backward@PAPAVCHostWnd@@PAPAV1@@std@@YAPAPAVCHostWnd@@PAPAV1@00@Z
_TEXT	SEGMENT
$T203024 = -1						; size = 1
__First$ = 8						; size = 4
__Last$ = 12						; size = 4
__Dest$ = 16						; size = 4
??$copy_backward@PAPAVCHostWnd@@PAPAV1@@std@@YAPAPAVCHostWnd@@PAPAV1@00@Z PROC NEAR ; std::copy_backward<CHostWnd * *,CHostWnd * *>, COMDAT

; 1067 : 	{	// copy [_First, _Last) backwards to [..., _Dest)

  00000	55		 push	 ebp
  00001	8b ec		 mov	 ebp, esp
  00003	51		 push	 ecx

; 1068 : 	return (_Copy_backward_opt(_First, _Last, _Dest,
; 1069 : 		_Ptr_cat(_First, _Dest)));

  00004	8b 45 10	 mov	 eax, DWORD PTR __Dest$[ebp]
  00007	50		 push	 eax
  00008	8b 4d 08	 mov	 ecx, DWORD PTR __First$[ebp]
  0000b	51		 push	 ecx
  0000c	e8 00 00 00 00	 call	 ??$_Ptr_cat@VCHostWnd@@@std@@YA?AU_Scalar_ptr_iterator_tag@0@PAPAVCHostWnd@@0@Z ; std::_Ptr_cat<CHostWnd>
  00011	83 c4 08	 add	 esp, 8
  00014	88 45 ff	 mov	 BYTE PTR $T203024[ebp], al
  00017	8a 55 ff	 mov	 dl, BYTE PTR $T203024[ebp]
  0001a	52		 push	 edx
  0001b	8b 45 10	 mov	 eax, DWORD PTR __Dest$[ebp]
  0001e	50		 push	 eax
  0001f	8b 4d 0c	 mov	 ecx, DWORD PTR __Last$[ebp]
  00022	51		 push	 ecx
  00023	8b 55 08	 mov	 edx, DWORD PTR __First$[ebp]
  00026	52		 push	 edx
  00027	e8 00 00 00 00	 call	 ??$_Copy_backward_opt@PAPAVCHostWnd@@PAPAV1@@std@@YAPAPAVCHostWnd@@PAPAV1@00U_Scalar_ptr_iterator_tag@0@@Z ; std::_Copy_backward_opt<CHostWnd * *,CHostWnd * *>
  0002c	83 c4 10	 add	 esp, 16			; 00000010H

; 1070 : 	}

  0002f	8b e5		 mov	 esp, ebp
  00031	5d		 pop	 ebp
  00032	c3		 ret	 0
??$copy_backward@PAPAVCHostWnd@@PAPAV1@@std@@YAPAPAVCHostWnd@@PAPAV1@00@Z ENDP ; std::copy_backward<CHostWnd * *,CHostWnd * *>
; Function compile flags: /Odt
; File d:\program files (x86)\microsoft visual studio .net 2003\vc7\include\xmemory
_TEXT	ENDS
;	COMDAT ??$_Allocate@PAVCHostWnd@@@std@@YAPAPAVCHostWnd@@IPAPAV1@@Z
_TEXT	SEGMENT
__Count$ = 8						; size = 4
___formal$ = 12						; size = 4
??$_Allocate@PAVCHostWnd@@@std@@YAPAPAVCHostWnd@@IPAPAV1@@Z PROC NEAR ; std::_Allocate<CHostWnd *>, COMDAT

; 33   : 	{	// allocate storage for _Count elements of type _Ty

  00000	55		 push	 ebp
  00001	8b ec		 mov	 ebp, esp

; 34   : 	return ((_Ty _FARQ *)operator new(_Count * sizeof (_Ty)));

  00003	8b 45 08	 mov	 eax, DWORD PTR __Count$[ebp]
  00006	c1 e0 02	 shl	 eax, 2
  00009	50		 push	 eax
  0000a	e8 00 00 00 00	 call	 ??2@YAPAXI@Z		; operator new
  0000f	83 c4 04	 add	 esp, 4

; 35   : 	}

  00012	5d		 pop	 ebp
  00013	c3		 ret	 0
??$_Allocate@PAVCHostWnd@@@std@@YAPAPAVCHostWnd@@IPAPAV1@@Z ENDP ; std::_Allocate<CHostWnd *>
_TEXT	ENDS
PUBLIC	??$_Ptr_cat@VILyricPopupWndShowObserver@@@std@@YA?AU_Scalar_ptr_iterator_tag@0@PAPAVILyricPopupWndShowObserver@@0@Z ; std::_Ptr_cat<ILyricPopupWndShowObserver>
PUBLIC	??$_Destroy_range@PAVILyricPopupWndShowObserver@@V?$allocator@PAVILyricPopupWndShowObserver@@@std@@@std@@YAXPAPAVILyricPopupWndShowObserver@@0AAV?$allocator@PAVILyricPopupWndShowObserver@@@0@U_Scalar_ptr_iterator_tag@0@@Z ; std::_Destroy_range<ILyricPopupWndShowObserver *,std::allocator<ILyricPopupWndShowObserver *> >
; Function compile flags: /Odt
;	COMDAT ??$_Destroy_range@PAVILyricPopupWndShowObserver@@V?$allocator@PAVILyricPopupWndShowObserver@@@std@@@std@@YAXPAPAVILyricPopupWndShowObserver@@0AAV?$allocator@PAVILyricPopupWndShowObserver@@@0@@Z
_TEXT	SEGMENT
$T203029 = -1						; size = 1
__First$ = 8						; size = 4
__Last$ = 12						; size = 4
__Al$ = 16						; size = 4
??$_Destroy_range@PAVILyricPopupWndShowObserver@@V?$allocator@PAVILyricPopupWndShowObserver@@@std@@@std@@YAXPAPAVILyricPopupWndShowObserver@@0AAV?$allocator@PAVILyricPopupWndShowObserver@@@0@@Z PROC NEAR ; std::_Destroy_range<ILyricPopupWndShowObserver *,std::allocator<ILyricPopupWndShowObserver *> >, COMDAT

; 216  : 	{	// destroy [_First, _Last)

  00000	55		 push	 ebp
  00001	8b ec		 mov	 ebp, esp
  00003	51		 push	 ecx

; 217  : 	_Destroy_range(_First, _Last, _Al, _Ptr_cat(_First, _Last));

  00004	8b 45 0c	 mov	 eax, DWORD PTR __Last$[ebp]
  00007	50		 push	 eax
  00008	8b 4d 08	 mov	 ecx, DWORD PTR __First$[ebp]
  0000b	51		 push	 ecx
  0000c	e8 00 00 00 00	 call	 ??$_Ptr_cat@VILyricPopupWndShowObserver@@@std@@YA?AU_Scalar_ptr_iterator_tag@0@PAPAVILyricPopupWndShowObserver@@0@Z ; std::_Ptr_cat<ILyricPopupWndShowObserver>
  00011	83 c4 08	 add	 esp, 8
  00014	88 45 ff	 mov	 BYTE PTR $T203029[ebp], al
  00017	8a 55 ff	 mov	 dl, BYTE PTR $T203029[ebp]
  0001a	52		 push	 edx
  0001b	8b 45 10	 mov	 eax, DWORD PTR __Al$[ebp]
  0001e	50		 push	 eax
  0001f	8b 4d 0c	 mov	 ecx, DWORD PTR __Last$[ebp]
  00022	51		 push	 ecx
  00023	8b 55 08	 mov	 edx, DWORD PTR __First$[ebp]
  00026	52		 push	 edx
  00027	e8 00 00 00 00	 call	 ??$_Destroy_range@PAVILyricPopupWndShowObserver@@V?$allocator@PAVILyricPopupWndShowObserver@@@std@@@std@@YAXPAPAVILyricPopupWndShowObserver@@0AAV?$allocator@PAVILyricPopupWndShowObserver@@@0@U_Scalar_ptr_iterator_tag@0@@Z ; std::_Destroy_range<ILyricPopupWndShowObserver *,std::allocator<ILyricPopupWndShowObserver *> >
  0002c	83 c4 10	 add	 esp, 16			; 00000010H

; 218  : 	}

  0002f	8b e5		 mov	 esp, ebp
  00031	5d		 pop	 ebp
  00032	c3		 ret	 0
??$_Destroy_range@PAVILyricPopupWndShowObserver@@V?$allocator@PAVILyricPopupWndShowObserver@@@std@@@std@@YAXPAPAVILyricPopupWndShowObserver@@0AAV?$allocator@PAVILyricPopupWndShowObserver@@@0@@Z ENDP ; std::_Destroy_range<ILyricPopupWndShowObserver *,std::allocator<ILyricPopupWndShowObserver *> >
; Function compile flags: /Odt
_TEXT	ENDS
;	COMDAT ??$_Allocate@PAVILyricPopupWndShowObserver@@@std@@YAPAPAVILyricPopupWndShowObserver@@IPAPAV1@@Z
_TEXT	SEGMENT
__Count$ = 8						; size = 4
___formal$ = 12						; size = 4
??$_Allocate@PAVILyricPopupWndShowObserver@@@std@@YAPAPAVILyricPopupWndShowObserver@@IPAPAV1@@Z PROC NEAR ; std::_Allocate<ILyricPopupWndShowObserver *>, COMDAT

; 33   : 	{	// allocate storage for _Count elements of type _Ty

  00000	55		 push	 ebp
  00001	8b ec		 mov	 ebp, esp

; 34   : 	return ((_Ty _FARQ *)operator new(_Count * sizeof (_Ty)));

  00003	8b 45 08	 mov	 eax, DWORD PTR __Count$[ebp]
  00006	c1 e0 02	 shl	 eax, 2
  00009	50		 push	 eax
  0000a	e8 00 00 00 00	 call	 ??2@YAPAXI@Z		; operator new
  0000f	83 c4 04	 add	 esp, 4

; 35   : 	}

  00012	5d		 pop	 ebp
  00013	c3		 ret	 0
??$_Allocate@PAVILyricPopupWndShowObserver@@@std@@YAPAPAVILyricPopupWndShowObserver@@IPAPAV1@@Z ENDP ; std::_Allocate<ILyricPopupWndShowObserver *>
; Function compile flags: /Odt
_TEXT	ENDS
;	COMDAT ??$?0U?$pair@QAUHWND__@@UCWndData@@@std@@@?$allocator@PAU_Node@?$_Tree_nod@V?$_Tmap_traits@PAUHWND__@@UCWndData@@U?$less@PAUHWND__@@@std@@V?$allocator@U?$pair@QAUHWND__@@UCWndData@@@std@@@4@$0A@@std@@@std@@@std@@QAE@ABV?$allocator@U?$pair@QAUHWND__@@UCWndData@@@std@@@1@@Z
_TEXT	SEGMENT
_this$ = -4						; size = 4
___formal$ = 8						; size = 4
??$?0U?$pair@QAUHWND__@@UCWndData@@@std@@@?$allocator@PAU_Node@?$_Tree_nod@V?$_Tmap_traits@PAUHWND__@@UCWndData@@U?$less@PAUHWND__@@@std@@V?$allocator@U?$pair@QAUHWND__@@UCWndData@@@std@@@4@$0A@@std@@@std@@@std@@QAE@ABV?$allocator@U?$pair@QAUHWND__@@UCWndData@@@std@@@1@@Z PROC NEAR ; std::allocator<std::_Tree_nod<std::_Tmap_traits<HWND__ *,CWndData,std::less<HWND__ *>,std::allocator<std::pair<HWND__ * const,CWndData> >,0> >::_Node *>::allocator<std::_Tree_nod<std::_Tmap_traits<HWND__ *,CWndData,std::less<HWND__ *>,std::allocator<std::pair<HWND__ * const,CWndData> >,0> >::_Node *><std::pair<HWND__ * const,CWndData> >, COMDAT
; _this$ = ecx

; 120  : 		allocator(const allocator<_Other>&)

  00000	55		 push	 ebp
  00001	8b ec		 mov	 ebp, esp
  00003	51		 push	 ecx
  00004	89 4d fc	 mov	 DWORD PTR _this$[ebp], ecx

; 121  : 		{	// construct from a related allocator (do nothing)
; 122  : 		}

  00007	8b 45 fc	 mov	 eax, DWORD PTR _this$[ebp]
  0000a	8b e5		 mov	 esp, ebp
  0000c	5d		 pop	 ebp
  0000d	c2 04 00	 ret	 4
??$?0U?$pair@QAUHWND__@@UCWndData@@@std@@@?$allocator@PAU_Node@?$_Tree_nod@V?$_Tmap_traits@PAUHWND__@@UCWndData@@U?$less@PAUHWND__@@@std@@V?$allocator@U?$pair@QAUHWND__@@UCWndData@@@std@@@4@$0A@@std@@@std@@@std@@QAE@ABV?$allocator@U?$pair@QAUHWND__@@UCWndData@@@std@@@1@@Z ENDP ; std::allocator<std::_Tree_nod<std::_Tmap_traits<HWND__ *,CWndData,std::less<HWND__ *>,std::allocator<std::pair<HWND__ * const,CWndData> >,0> >::_Node *>::allocator<std::_Tree_nod<std::_Tmap_traits<HWND__ *,CWndData,std::less<HWND__ *>,std::allocator<std::pair<HWND__ * const,CWndData> >,0> >::_Node *><std::pair<HWND__ * const,CWndData> >
; Function compile flags: /Odt
_TEXT	ENDS
;	COMDAT ??$?0U?$pair@QAUHWND__@@UCWndData@@@std@@@?$allocator@U_Node@?$_Tree_nod@V?$_Tmap_traits@PAUHWND__@@UCWndData@@U?$less@PAUHWND__@@@std@@V?$allocator@U?$pair@QAUHWND__@@UCWndData@@@std@@@4@$0A@@std@@@std@@@std@@QAE@ABV?$allocator@U?$pair@QAUHWND__@@UCWndData@@@std@@@1@@Z
_TEXT	SEGMENT
_this$ = -4						; size = 4
___formal$ = 8						; size = 4
??$?0U?$pair@QAUHWND__@@UCWndData@@@std@@@?$allocator@U_Node@?$_Tree_nod@V?$_Tmap_traits@PAUHWND__@@UCWndData@@U?$less@PAUHWND__@@@std@@V?$allocator@U?$pair@QAUHWND__@@UCWndData@@@std@@@4@$0A@@std@@@std@@@std@@QAE@ABV?$allocator@U?$pair@QAUHWND__@@UCWndData@@@std@@@1@@Z PROC NEAR ; std::allocator<std::_Tree_nod<std::_Tmap_traits<HWND__ *,CWndData,std::less<HWND__ *>,std::allocator<std::pair<HWND__ * const,CWndData> >,0> >::_Node>::allocator<std::_Tree_nod<std::_Tmap_traits<HWND__ *,CWndData,std::less<HWND__ *>,std::allocator<std::pair<HWND__ * const,CWndData> >,0> >::_Node><std::pair<HWND__ * const,CWndData> >, COMDAT
; _this$ = ecx

; 120  : 		allocator(const allocator<_Other>&)

  00000	55		 push	 ebp
  00001	8b ec		 mov	 ebp, esp
  00003	51		 push	 ecx
  00004	89 4d fc	 mov	 DWORD PTR _this$[ebp], ecx

; 121  : 		{	// construct from a related allocator (do nothing)
; 122  : 		}

  00007	8b 45 fc	 mov	 eax, DWORD PTR _this$[ebp]
  0000a	8b e5		 mov	 esp, ebp
  0000c	5d		 pop	 ebp
  0000d	c2 04 00	 ret	 4
??$?0U?$pair@QAUHWND__@@UCWndData@@@std@@@?$allocator@U_Node@?$_Tree_nod@V?$_Tmap_traits@PAUHWND__@@UCWndData@@U?$less@PAUHWND__@@@std@@V?$allocator@U?$pair@QAUHWND__@@UCWndData@@@std@@@4@$0A@@std@@@std@@@std@@QAE@ABV?$allocator@U?$pair@QAUHWND__@@UCWndData@@@std@@@1@@Z ENDP ; std::allocator<std::_Tree_nod<std::_Tmap_traits<HWND__ *,CWndData,std::less<HWND__ *>,std::allocator<std::pair<HWND__ * const,CWndData> >,0> >::_Node>::allocator<std::_Tree_nod<std::_Tmap_traits<HWND__ *,CWndData,std::less<HWND__ *>,std::allocator<std::pair<HWND__ * const,CWndData> >,0> >::_Node><std::pair<HWND__ * const,CWndData> >
; Function compile flags: /Odt
_TEXT	ENDS
;	COMDAT ??$_Allocate@U_Node@?$_Tree_nod@V?$_Tmap_traits@PAUHWND__@@UCWndData@@U?$less@PAUHWND__@@@std@@V?$allocator@U?$pair@QAUHWND__@@UCWndData@@@std@@@4@$0A@@std@@@std@@@std@@YAPAU_Node@?$_Tree_nod@V?$_Tmap_traits@PAUHWND__@@UCWndData@@U?$less@PAUHWND__@@@std@@V?$allocator@U?$pair@QAUHWND__@@UCWndData@@@std@@@4@$0A@@std@@@0@IPAU120@@Z
_TEXT	SEGMENT
__Count$ = 8						; size = 4
___formal$ = 12						; size = 4
??$_Allocate@U_Node@?$_Tree_nod@V?$_Tmap_traits@PAUHWND__@@UCWndData@@U?$less@PAUHWND__@@@std@@V?$allocator@U?$pair@QAUHWND__@@UCWndData@@@std@@@4@$0A@@std@@@std@@@std@@YAPAU_Node@?$_Tree_nod@V?$_Tmap_traits@PAUHWND__@@UCWndData@@U?$less@PAUHWND__@@@std@@V?$allocator@U?$pair@QAUHWND__@@UCWndData@@@std@@@4@$0A@@std@@@0@IPAU120@@Z PROC NEAR ; std::_Allocate<std::_Tree_nod<std::_Tmap_traits<HWND__ *,CWndData,std::less<HWND__ *>,std::allocator<std::pair<HWND__ * const,CWndData> >,0> >::_Node>, COMDAT

; 33   : 	{	// allocate storage for _Count elements of type _Ty

  00000	55		 push	 ebp
  00001	8b ec		 mov	 ebp, esp

; 34   : 	return ((_Ty _FARQ *)operator new(_Count * sizeof (_Ty)));

  00003	8b 45 08	 mov	 eax, DWORD PTR __Count$[ebp]
  00006	6b c0 1c	 imul	 eax, 28			; 0000001cH
  00009	50		 push	 eax
  0000a	e8 00 00 00 00	 call	 ??2@YAPAXI@Z		; operator new
  0000f	83 c4 04	 add	 esp, 4

; 35   : 	}

  00012	5d		 pop	 ebp
  00013	c3		 ret	 0
??$_Allocate@U_Node@?$_Tree_nod@V?$_Tmap_traits@PAUHWND__@@UCWndData@@U?$less@PAUHWND__@@@std@@V?$allocator@U?$pair@QAUHWND__@@UCWndData@@@std@@@4@$0A@@std@@@std@@@std@@YAPAU_Node@?$_Tree_nod@V?$_Tmap_traits@PAUHWND__@@UCWndData@@U?$less@PAUHWND__@@@std@@V?$allocator@U?$pair@QAUHWND__@@UCWndData@@@std@@@4@$0A@@std@@@0@IPAU120@@Z ENDP ; std::_Allocate<std::_Tree_nod<std::_Tmap_traits<HWND__ *,CWndData,std::less<HWND__ *>,std::allocator<std::pair<HWND__ * const,CWndData> >,0> >::_Node>
; Function compile flags: /Odt
_TEXT	ENDS
;	COMDAT ??$_Destroy@U_Node@?$_Tree_nod@V?$_Tmap_traits@PAUHWND__@@UCWndData@@U?$less@PAUHWND__@@@std@@V?$allocator@U?$pair@QAUHWND__@@UCWndData@@@std@@@4@$0A@@std@@@std@@@std@@YAXPAU_Node@?$_Tree_nod@V?$_Tmap_traits@PAUHWND__@@UCWndData@@U?$less@PAUHWND__@@@std@@V?$allocator@U?$pair@QAUHWND__@@UCWndData@@@std@@@4@$0A@@std@@@0@@Z
_TEXT	SEGMENT
__Ptr$ = 8						; size = 4
??$_Destroy@U_Node@?$_Tree_nod@V?$_Tmap_traits@PAUHWND__@@UCWndData@@U?$less@PAUHWND__@@@std@@V?$allocator@U?$pair@QAUHWND__@@UCWndData@@@std@@@4@$0A@@std@@@std@@@std@@YAXPAU_Node@?$_Tree_nod@V?$_Tmap_traits@PAUHWND__@@UCWndData@@U?$less@PAUHWND__@@@std@@V?$allocator@U?$pair@QAUHWND__@@UCWndData@@@std@@@4@$0A@@std@@@0@@Z PROC NEAR ; std::_Destroy<std::_Tree_nod<std::_Tmap_traits<HWND__ *,CWndData,std::less<HWND__ *>,std::allocator<std::pair<HWND__ * const,CWndData> >,0> >::_Node>, COMDAT

; 48   : 	{	// destroy object at _Ptr

  00000	55		 push	 ebp
  00001	8b ec		 mov	 ebp, esp

; 49   : 	_DESTRUCTOR(_Ty, _Ptr);
; 50   : 	}

  00003	5d		 pop	 ebp
  00004	c3		 ret	 0
??$_Destroy@U_Node@?$_Tree_nod@V?$_Tmap_traits@PAUHWND__@@UCWndData@@U?$less@PAUHWND__@@@std@@V?$allocator@U?$pair@QAUHWND__@@UCWndData@@@std@@@4@$0A@@std@@@std@@@std@@YAXPAU_Node@?$_Tree_nod@V?$_Tmap_traits@PAUHWND__@@UCWndData@@U?$less@PAUHWND__@@@std@@V?$allocator@U?$pair@QAUHWND__@@UCWndData@@@std@@@4@$0A@@std@@@0@@Z ENDP ; std::_Destroy<std::_Tree_nod<std::_Tmap_traits<HWND__ *,CWndData,std::less<HWND__ *>,std::allocator<std::pair<HWND__ * const,CWndData> >,0> >::_Node>
; Function compile flags: /Odt
_TEXT	ENDS
;	COMDAT ??$_Construct@PAU_Node@?$_Tree_nod@V?$_Tmap_traits@PAUHWND__@@UCWndData@@U?$less@PAUHWND__@@@std@@V?$allocator@U?$pair@QAUHWND__@@UCWndData@@@std@@@4@$0A@@std@@@std@@PAU123@@std@@YAXPAPAU_Node@?$_Tree_nod@V?$_Tmap_traits@PAUHWND__@@UCWndData@@U?$less@PAUHWND__@@@std@@V?$allocator@U?$pair@QAUHWND__@@UCWndData@@@std@@@4@$0A@@std@@@0@ABQAU120@@Z
_TEXT	SEGMENT
tv68 = -8						; size = 4
$T203042 = -4						; size = 4
__Ptr$ = 8						; size = 4
__Val$ = 12						; size = 4
??$_Construct@PAU_Node@?$_Tree_nod@V?$_Tmap_traits@PAUHWND__@@UCWndData@@U?$less@PAUHWND__@@@std@@V?$allocator@U?$pair@QAUHWND__@@UCWndData@@@std@@@4@$0A@@std@@@std@@PAU123@@std@@YAXPAPAU_Node@?$_Tree_nod@V?$_Tmap_traits@PAUHWND__@@UCWndData@@U?$less@PAUHWND__@@@std@@V?$allocator@U?$pair@QAUHWND__@@UCWndData@@@std@@@4@$0A@@std@@@0@ABQAU120@@Z PROC NEAR ; std::_Construct<std::_Tree_nod<std::_Tmap_traits<HWND__ *,CWndData,std::less<HWND__ *>,std::allocator<std::pair<HWND__ * const,CWndData> >,0> >::_Node *,std::_Tree_nod<std::_Tmap_traits<HWND__ *,CWndData,std::less<HWND__ *>,std::allocator<std::pair<HWND__ * const,CWndData> >,0> >::_Node *>, COMDAT

; 41   : 	{	// construct object at _Ptr with value _Val

  00000	55		 push	 ebp
  00001	8b ec		 mov	 ebp, esp
  00003	83 ec 08	 sub	 esp, 8

; 42   : 	new ((void _FARQ *)_Ptr) _T1(_Val);

  00006	8b 45 08	 mov	 eax, DWORD PTR __Ptr$[ebp]
  00009	50		 push	 eax
  0000a	6a 04		 push	 4
  0000c	e8 00 00 00 00	 call	 ??2@YAPAXIPAX@Z		; operator new
  00011	83 c4 08	 add	 esp, 8
  00014	89 45 fc	 mov	 DWORD PTR $T203042[ebp], eax
  00017	83 7d fc 00	 cmp	 DWORD PTR $T203042[ebp], 0
  0001b	74 12		 je	 SHORT $L203043
  0001d	8b 4d fc	 mov	 ecx, DWORD PTR $T203042[ebp]
  00020	8b 55 0c	 mov	 edx, DWORD PTR __Val$[ebp]
  00023	8b 02		 mov	 eax, DWORD PTR [edx]
  00025	89 01		 mov	 DWORD PTR [ecx], eax
  00027	8b 4d fc	 mov	 ecx, DWORD PTR $T203042[ebp]
  0002a	89 4d f8	 mov	 DWORD PTR tv68[ebp], ecx
  0002d	eb 07		 jmp	 SHORT $L201736
$L203043:
  0002f	c7 45 f8 00 00
	00 00		 mov	 DWORD PTR tv68[ebp], 0
$L201736:

; 43   : 	}

  00036	8b e5		 mov	 esp, ebp
  00038	5d		 pop	 ebp
  00039	c3		 ret	 0
??$_Construct@PAU_Node@?$_Tree_nod@V?$_Tmap_traits@PAUHWND__@@UCWndData@@U?$less@PAUHWND__@@@std@@V?$allocator@U?$pair@QAUHWND__@@UCWndData@@@std@@@4@$0A@@std@@@std@@PAU123@@std@@YAXPAPAU_Node@?$_Tree_nod@V?$_Tmap_traits@PAUHWND__@@UCWndData@@U?$less@PAUHWND__@@@std@@V?$allocator@U?$pair@QAUHWND__@@UCWndData@@@std@@@4@$0A@@std@@@0@ABQAU120@@Z ENDP ; std::_Construct<std::_Tree_nod<std::_Tmap_traits<HWND__ *,CWndData,std::less<HWND__ *>,std::allocator<std::pair<HWND__ * const,CWndData> >,0> >::_Node *,std::_Tree_nod<std::_Tmap_traits<HWND__ *,CWndData,std::less<HWND__ *>,std::allocator<std::pair<HWND__ * const,CWndData> >,0> >::_Node *>
; Function compile flags: /Odt
; File d:\program files (x86)\microsoft visual studio .net 2003\vc7\include\xutility
_TEXT	ENDS
;	COMDAT ??$_Ptr_cat@VCHostWnd@@@std@@YA?AU_Scalar_ptr_iterator_tag@0@PAPAVCHostWnd@@0@Z
_TEXT	SEGMENT
__Cat$ = -1						; size = 1
___formal$ = 8						; size = 4
___formal$ = 12						; size = 4
??$_Ptr_cat@VCHostWnd@@@std@@YA?AU_Scalar_ptr_iterator_tag@0@PAPAVCHostWnd@@0@Z PROC NEAR ; std::_Ptr_cat<CHostWnd>, COMDAT

; 218  : 	{	// return pointer category from pointer to pointer arguments

  00000	55		 push	 ebp
  00001	8b ec		 mov	 ebp, esp
  00003	51		 push	 ecx

; 219  : 	_Scalar_ptr_iterator_tag _Cat;
; 220  : 	return (_Cat);

  00004	8a 45 ff	 mov	 al, BYTE PTR __Cat$[ebp]

; 221  : 	}

  00007	8b e5		 mov	 esp, ebp
  00009	5d		 pop	 ebp
  0000a	c3		 ret	 0
??$_Ptr_cat@VCHostWnd@@@std@@YA?AU_Scalar_ptr_iterator_tag@0@PAPAVCHostWnd@@0@Z ENDP ; std::_Ptr_cat<CHostWnd>
_TEXT	ENDS
PUBLIC	??$fill_n@PAPAVCHostWnd@@IPAV1@@std@@YAXPAPAVCHostWnd@@IABQAV1@@Z ; std::fill_n<CHostWnd * *,unsigned int,CHostWnd *>
; Function compile flags: /Odt
; File d:\program files (x86)\microsoft visual studio .net 2003\vc7\include\memory
;	COMDAT ??$_Uninit_fill_n@PAVCHostWnd@@IPAV1@@std@@YAXPAPAVCHostWnd@@IABQAV1@AAV?$allocator@PAVCHostWnd@@@0@U_Scalar_ptr_iterator_tag@0@@Z
_TEXT	SEGMENT
__First$ = 8						; size = 4
__Count$ = 12						; size = 4
__Val$ = 16						; size = 4
___formal$ = 20						; size = 4
___formal$ = 24						; size = 1
??$_Uninit_fill_n@PAVCHostWnd@@IPAV1@@std@@YAXPAPAVCHostWnd@@IABQAV1@AAV?$allocator@PAVCHostWnd@@@0@U_Scalar_ptr_iterator_tag@0@@Z PROC NEAR ; std::_Uninit_fill_n<CHostWnd *,unsigned int,CHostWnd *>, COMDAT

; 236  : 	{	// copy _Count *_Val to raw _First, using _Al, scalar type

  00000	55		 push	 ebp
  00001	8b ec		 mov	 ebp, esp

; 237  : 	fill_n(_First, _Count, _Val);

  00003	8b 45 10	 mov	 eax, DWORD PTR __Val$[ebp]
  00006	50		 push	 eax
  00007	8b 4d 0c	 mov	 ecx, DWORD PTR __Count$[ebp]
  0000a	51		 push	 ecx
  0000b	8b 55 08	 mov	 edx, DWORD PTR __First$[ebp]
  0000e	52		 push	 edx
  0000f	e8 00 00 00 00	 call	 ??$fill_n@PAPAVCHostWnd@@IPAV1@@std@@YAXPAPAVCHostWnd@@IABQAV1@@Z ; std::fill_n<CHostWnd * *,unsigned int,CHostWnd *>
  00014	83 c4 0c	 add	 esp, 12			; 0000000cH

; 238  : 	}

  00017	5d		 pop	 ebp
  00018	c3		 ret	 0
??$_Uninit_fill_n@PAVCHostWnd@@IPAV1@@std@@YAXPAPAVCHostWnd@@IABQAV1@AAV?$allocator@PAVCHostWnd@@@0@U_Scalar_ptr_iterator_tag@0@@Z ENDP ; std::_Uninit_fill_n<CHostWnd *,unsigned int,CHostWnd *>
; Function compile flags: /Odt
; File d:\program files (x86)\microsoft visual studio .net 2003\vc7\include\xutility
_TEXT	ENDS
;	COMDAT ??$_Ptr_cat@VILyricPopupWndShowObserver@@@std@@YA?AU_Scalar_ptr_iterator_tag@0@PAPAVILyricPopupWndShowObserver@@0@Z
_TEXT	SEGMENT
__Cat$ = -1						; size = 1
___formal$ = 8						; size = 4
___formal$ = 12						; size = 4
??$_Ptr_cat@VILyricPopupWndShowObserver@@@std@@YA?AU_Scalar_ptr_iterator_tag@0@PAPAVILyricPopupWndShowObserver@@0@Z PROC NEAR ; std::_Ptr_cat<ILyricPopupWndShowObserver>, COMDAT

; 218  : 	{	// return pointer category from pointer to pointer arguments

  00000	55		 push	 ebp
  00001	8b ec		 mov	 ebp, esp
  00003	51		 push	 ecx

; 219  : 	_Scalar_ptr_iterator_tag _Cat;
; 220  : 	return (_Cat);

  00004	8a 45 ff	 mov	 al, BYTE PTR __Cat$[ebp]

; 221  : 	}

  00007	8b e5		 mov	 esp, ebp
  00009	5d		 pop	 ebp
  0000a	c3		 ret	 0
??$_Ptr_cat@VILyricPopupWndShowObserver@@@std@@YA?AU_Scalar_ptr_iterator_tag@0@PAPAVILyricPopupWndShowObserver@@0@Z ENDP ; std::_Ptr_cat<ILyricPopupWndShowObserver>
; Function compile flags: /Odt
; File d:\program files (x86)\microsoft visual studio .net 2003\vc7\include\xmemory
_TEXT	ENDS
;	COMDAT ??$_Destroy_range@PAVCHostWnd@@V?$allocator@PAVCHostWnd@@@std@@@std@@YAXPAPAVCHostWnd@@0AAV?$allocator@PAVCHostWnd@@@0@U_Scalar_ptr_iterator_tag@0@@Z
_TEXT	SEGMENT
__First$ = 8						; size = 4
__Last$ = 12						; size = 4
__Al$ = 16						; size = 4
___formal$ = 20						; size = 1
??$_Destroy_range@PAVCHostWnd@@V?$allocator@PAVCHostWnd@@@std@@@std@@YAXPAPAVCHostWnd@@0AAV?$allocator@PAVCHostWnd@@@0@U_Scalar_ptr_iterator_tag@0@@Z PROC NEAR ; std::_Destroy_range<CHostWnd *,std::allocator<CHostWnd *> >, COMDAT

; 233  : 	{	// destroy [_First, _Last), scalar type (do nothing)

  00000	55		 push	 ebp
  00001	8b ec		 mov	 ebp, esp

; 234  : 	}

  00003	5d		 pop	 ebp
  00004	c3		 ret	 0
??$_Destroy_range@PAVCHostWnd@@V?$allocator@PAVCHostWnd@@@std@@@std@@YAXPAPAVCHostWnd@@0AAV?$allocator@PAVCHostWnd@@@0@U_Scalar_ptr_iterator_tag@0@@Z ENDP ; std::_Destroy_range<CHostWnd *,std::allocator<CHostWnd *> >
_TEXT	ENDS
PUBLIC	??$_Uninit_copy@PAVCHostWnd@@PAV1@@std@@YAPAPAVCHostWnd@@PAPAV1@00AAV?$allocator@PAVCHostWnd@@@0@U_Scalar_ptr_iterator_tag@0@@Z ; std::_Uninit_copy<CHostWnd *,CHostWnd *>
; Function compile flags: /Odt
; File d:\program files (x86)\microsoft visual studio .net 2003\vc7\include\memory
;	COMDAT ??$_Uninitialized_copy@PAPAVCHostWnd@@PAPAV1@V?$allocator@PAVCHostWnd@@@std@@@std@@YAPAPAVCHostWnd@@PAPAV1@00AAV?$allocator@PAVCHostWnd@@@0@@Z
_TEXT	SEGMENT
$T203055 = -1						; size = 1
__First$ = 8						; size = 4
__Last$ = 12						; size = 4
__Dest$ = 16						; size = 4
__Al$ = 20						; size = 4
??$_Uninitialized_copy@PAPAVCHostWnd@@PAPAV1@V?$allocator@PAVCHostWnd@@@std@@@std@@YAPAPAVCHostWnd@@PAPAV1@00AAV?$allocator@PAVCHostWnd@@@0@@Z PROC NEAR ; std::_Uninitialized_copy<CHostWnd * *,CHostWnd * *,std::allocator<CHostWnd *> >, COMDAT

; 126  : 	{	// copy [_First, _Last) to raw _Dest, using _Al

  00000	55		 push	 ebp
  00001	8b ec		 mov	 ebp, esp
  00003	51		 push	 ecx

; 127  : 	return (_Uninit_copy(_First, _Last, _Dest, _Al,
; 128  : 		_Ptr_cat(_First, _Dest)));

  00004	8b 45 10	 mov	 eax, DWORD PTR __Dest$[ebp]
  00007	50		 push	 eax
  00008	8b 4d 08	 mov	 ecx, DWORD PTR __First$[ebp]
  0000b	51		 push	 ecx
  0000c	e8 00 00 00 00	 call	 ??$_Ptr_cat@VCHostWnd@@@std@@YA?AU_Scalar_ptr_iterator_tag@0@PAPAVCHostWnd@@0@Z ; std::_Ptr_cat<CHostWnd>
  00011	83 c4 08	 add	 esp, 8
  00014	88 45 ff	 mov	 BYTE PTR $T203055[ebp], al
  00017	8a 55 ff	 mov	 dl, BYTE PTR $T203055[ebp]
  0001a	52		 push	 edx
  0001b	8b 45 14	 mov	 eax, DWORD PTR __Al$[ebp]
  0001e	50		 push	 eax
  0001f	8b 4d 10	 mov	 ecx, DWORD PTR __Dest$[ebp]
  00022	51		 push	 ecx
  00023	8b 55 0c	 mov	 edx, DWORD PTR __Last$[ebp]
  00026	52		 push	 edx
  00027	8b 45 08	 mov	 eax, DWORD PTR __First$[ebp]
  0002a	50		 push	 eax
  0002b	e8 00 00 00 00	 call	 ??$_Uninit_copy@PAVCHostWnd@@PAV1@@std@@YAPAPAVCHostWnd@@PAPAV1@00AAV?$allocator@PAVCHostWnd@@@0@U_Scalar_ptr_iterator_tag@0@@Z ; std::_Uninit_copy<CHostWnd *,CHostWnd *>
  00030	83 c4 14	 add	 esp, 20			; 00000014H

; 129  : 	}

  00033	8b e5		 mov	 esp, ebp
  00035	5d		 pop	 ebp
  00036	c3		 ret	 0
??$_Uninitialized_copy@PAPAVCHostWnd@@PAPAV1@V?$allocator@PAVCHostWnd@@@std@@@std@@YAPAPAVCHostWnd@@PAPAV1@00AAV?$allocator@PAVCHostWnd@@@0@@Z ENDP ; std::_Uninitialized_copy<CHostWnd * *,CHostWnd * *,std::allocator<CHostWnd *> >
_TEXT	ENDS
EXTRN	__imp__memmove:NEAR
; Function compile flags: /Odt
; File d:\program files (x86)\microsoft visual studio .net 2003\vc7\include\xutility
;	COMDAT ??$_Copy_backward_opt@PAPAVCHostWnd@@PAPAV1@@std@@YAPAPAVCHostWnd@@PAPAV1@00U_Scalar_ptr_iterator_tag@0@@Z
_TEXT	SEGMENT
__Off$ = -4						; size = 4
__First$ = 8						; size = 4
__Last$ = 12						; size = 4
__Dest$ = 16						; size = 4
___formal$ = 20						; size = 1
??$_Copy_backward_opt@PAPAVCHostWnd@@PAPAV1@@std@@YAPAPAVCHostWnd@@PAPAV1@00U_Scalar_ptr_iterator_tag@0@@Z PROC NEAR ; std::_Copy_backward_opt<CHostWnd * *,CHostWnd * *>, COMDAT

; 1058 : 	{	// copy [_First, _Last) backwards to [..., _Dest), pointers to scalars

  00000	55		 push	 ebp
  00001	8b ec		 mov	 ebp, esp
  00003	51		 push	 ecx

; 1059 : 	ptrdiff_t _Off = _Last - _First;	// NB: non-overlapping move

  00004	8b 45 0c	 mov	 eax, DWORD PTR __Last$[ebp]
  00007	2b 45 08	 sub	 eax, DWORD PTR __First$[ebp]
  0000a	c1 f8 02	 sar	 eax, 2
  0000d	89 45 fc	 mov	 DWORD PTR __Off$[ebp], eax

; 1060 : 	return ((_OutIt)memmove(&*_Dest - _Off, &*_First,
; 1061 : 		_Off * sizeof (*_First)));

  00010	8b 4d fc	 mov	 ecx, DWORD PTR __Off$[ebp]
  00013	c1 e1 02	 shl	 ecx, 2
  00016	51		 push	 ecx
  00017	8b 55 08	 mov	 edx, DWORD PTR __First$[ebp]
  0001a	52		 push	 edx
  0001b	8b 45 fc	 mov	 eax, DWORD PTR __Off$[ebp]
  0001e	c1 e0 02	 shl	 eax, 2
  00021	8b 4d 10	 mov	 ecx, DWORD PTR __Dest$[ebp]
  00024	2b c8		 sub	 ecx, eax
  00026	51		 push	 ecx
  00027	ff 15 00 00 00
	00		 call	 DWORD PTR __imp__memmove
  0002d	83 c4 0c	 add	 esp, 12			; 0000000cH

; 1062 : 	}

  00030	8b e5		 mov	 esp, ebp
  00032	5d		 pop	 ebp
  00033	c3		 ret	 0
??$_Copy_backward_opt@PAPAVCHostWnd@@PAPAV1@@std@@YAPAPAVCHostWnd@@PAPAV1@00U_Scalar_ptr_iterator_tag@0@@Z ENDP ; std::_Copy_backward_opt<CHostWnd * *,CHostWnd * *>
; Function compile flags: /Odt
; File d:\program files (x86)\microsoft visual studio .net 2003\vc7\include\xmemory
_TEXT	ENDS
;	COMDAT ??$_Destroy_range@PAVILyricPopupWndShowObserver@@V?$allocator@PAVILyricPopupWndShowObserver@@@std@@@std@@YAXPAPAVILyricPopupWndShowObserver@@0AAV?$allocator@PAVILyricPopupWndShowObserver@@@0@U_Scalar_ptr_iterator_tag@0@@Z
_TEXT	SEGMENT
__First$ = 8						; size = 4
__Last$ = 12						; size = 4
__Al$ = 16						; size = 4
___formal$ = 20						; size = 1
??$_Destroy_range@PAVILyricPopupWndShowObserver@@V?$allocator@PAVILyricPopupWndShowObserver@@@std@@@std@@YAXPAPAVILyricPopupWndShowObserver@@0AAV?$allocator@PAVILyricPopupWndShowObserver@@@0@U_Scalar_ptr_iterator_tag@0@@Z PROC NEAR ; std::_Destroy_range<ILyricPopupWndShowObserver *,std::allocator<ILyricPopupWndShowObserver *> >, COMDAT

; 233  : 	{	// destroy [_First, _Last), scalar type (do nothing)

  00000	55		 push	 ebp
  00001	8b ec		 mov	 ebp, esp

; 234  : 	}

  00003	5d		 pop	 ebp
  00004	c3		 ret	 0
??$_Destroy_range@PAVILyricPopupWndShowObserver@@V?$allocator@PAVILyricPopupWndShowObserver@@@std@@@std@@YAXPAPAVILyricPopupWndShowObserver@@0AAV?$allocator@PAVILyricPopupWndShowObserver@@@0@U_Scalar_ptr_iterator_tag@0@@Z ENDP ; std::_Destroy_range<ILyricPopupWndShowObserver *,std::allocator<ILyricPopupWndShowObserver *> >
; Function compile flags: /Odt
; File d:\program files (x86)\microsoft visual studio .net 2003\vc7\include\xutility
_TEXT	ENDS
;	COMDAT ??$fill_n@PAPAVCHostWnd@@IPAV1@@std@@YAXPAPAVCHostWnd@@IABQAV1@@Z
_TEXT	SEGMENT
__First$ = 8						; size = 4
__Count$ = 12						; size = 4
__Val$ = 16						; size = 4
??$fill_n@PAPAVCHostWnd@@IPAV1@@std@@YAXPAPAVCHostWnd@@IABQAV1@@Z PROC NEAR ; std::fill_n<CHostWnd * *,unsigned int,CHostWnd *>, COMDAT

; 1159 : 	{	// copy _Val _Count times through [_First, ...)

  00000	55		 push	 ebp
  00001	8b ec		 mov	 ebp, esp

; 1160 : 	for (; 0 < _Count; --_Count, ++_First)

  00003	eb 12		 jmp	 SHORT $L201852
$L201853:
  00005	8b 45 0c	 mov	 eax, DWORD PTR __Count$[ebp]
  00008	83 e8 01	 sub	 eax, 1
  0000b	89 45 0c	 mov	 DWORD PTR __Count$[ebp], eax
  0000e	8b 4d 08	 mov	 ecx, DWORD PTR __First$[ebp]
  00011	83 c1 04	 add	 ecx, 4
  00014	89 4d 08	 mov	 DWORD PTR __First$[ebp], ecx
$L201852:
  00017	83 7d 0c 00	 cmp	 DWORD PTR __Count$[ebp], 0
  0001b	76 0c		 jbe	 SHORT $L201851

; 1161 : 		*_First = _Val;

  0001d	8b 55 08	 mov	 edx, DWORD PTR __First$[ebp]
  00020	8b 45 10	 mov	 eax, DWORD PTR __Val$[ebp]
  00023	8b 08		 mov	 ecx, DWORD PTR [eax]
  00025	89 0a		 mov	 DWORD PTR [edx], ecx
  00027	eb dc		 jmp	 SHORT $L201853
$L201851:

; 1162 : 	}

  00029	5d		 pop	 ebp
  0002a	c3		 ret	 0
??$fill_n@PAPAVCHostWnd@@IPAV1@@std@@YAXPAPAVCHostWnd@@IABQAV1@@Z ENDP ; std::fill_n<CHostWnd * *,unsigned int,CHostWnd *>
; Function compile flags: /Odt
; File d:\program files (x86)\microsoft visual studio .net 2003\vc7\include\memory
_TEXT	ENDS
;	COMDAT ??$_Uninit_copy@PAVCHostWnd@@PAV1@@std@@YAPAPAVCHostWnd@@PAPAV1@00AAV?$allocator@PAVCHostWnd@@@0@U_Scalar_ptr_iterator_tag@0@@Z
_TEXT	SEGMENT
__Count$ = -4						; size = 4
__First$ = 8						; size = 4
__Last$ = 12						; size = 4
__Dest$ = 16						; size = 4
___formal$ = 20						; size = 4
___formal$ = 24						; size = 1
??$_Uninit_copy@PAVCHostWnd@@PAV1@@std@@YAPAPAVCHostWnd@@PAPAV1@00AAV?$allocator@PAVCHostWnd@@@0@U_Scalar_ptr_iterator_tag@0@@Z PROC NEAR ; std::_Uninit_copy<CHostWnd *,CHostWnd *>, COMDAT

; 105  : 	{	// copy [_First, _Last) to raw _Dest, (const) scalar type

  00000	55		 push	 ebp
  00001	8b ec		 mov	 ebp, esp
  00003	51		 push	 ecx

; 106  : 	size_t _Count = (size_t)(_Last - _First);

  00004	8b 45 0c	 mov	 eax, DWORD PTR __Last$[ebp]
  00007	2b 45 08	 sub	 eax, DWORD PTR __First$[ebp]
  0000a	c1 f8 02	 sar	 eax, 2
  0000d	89 45 fc	 mov	 DWORD PTR __Count$[ebp], eax

; 107  : 	return ((_Ty2 *)memmove(&*_Dest, &*_First,
; 108  : 		_Count * sizeof (*_First)) + _Count);	// NB: non-overlapping move

  00010	8b 4d fc	 mov	 ecx, DWORD PTR __Count$[ebp]
  00013	c1 e1 02	 shl	 ecx, 2
  00016	51		 push	 ecx
  00017	8b 55 08	 mov	 edx, DWORD PTR __First$[ebp]
  0001a	52		 push	 edx
  0001b	8b 45 10	 mov	 eax, DWORD PTR __Dest$[ebp]
  0001e	50		 push	 eax
  0001f	ff 15 00 00 00
	00		 call	 DWORD PTR __imp__memmove
  00025	83 c4 0c	 add	 esp, 12			; 0000000cH
  00028	8b 4d fc	 mov	 ecx, DWORD PTR __Count$[ebp]
  0002b	8d 04 88	 lea	 eax, DWORD PTR [eax+ecx*4]

; 109  : 	}

  0002e	8b e5		 mov	 esp, ebp
  00030	5d		 pop	 ebp
  00031	c3		 ret	 0
??$_Uninit_copy@PAVCHostWnd@@PAV1@@std@@YAPAPAVCHostWnd@@PAPAV1@00AAV?$allocator@PAVCHostWnd@@@0@U_Scalar_ptr_iterator_tag@0@@Z ENDP ; std::_Uninit_copy<CHostWnd *,CHostWnd *>
; Function compile flags: /Odt
; File d:\program files (x86)\microsoft visual studio .net 2003\vc7\atlmfc\include\atltypes.inl
_TEXT	ENDS
;	COMDAT ??0CRect@@QAE@XZ
_TEXT	SEGMENT
_this$ = -4						; size = 4
??0CRect@@QAE@XZ PROC NEAR				; CRect::CRect, COMDAT
; _this$ = ecx

; 110  : 	{ /* random filled */ }

  00000	55		 push	 ebp
  00001	8b ec		 mov	 ebp, esp
  00003	51		 push	 ecx
  00004	89 4d fc	 mov	 DWORD PTR _this$[ebp], ecx
  00007	8b 45 fc	 mov	 eax, DWORD PTR _this$[ebp]
  0000a	8b e5		 mov	 esp, ebp
  0000c	5d		 pop	 ebp
  0000d	c3		 ret	 0
??0CRect@@QAE@XZ ENDP					; CRect::CRect
; Function compile flags: /Odt
_TEXT	ENDS
;	COMDAT ??0CRect@@QAE@HHHH@Z
_TEXT	SEGMENT
_this$ = -4						; size = 4
_l$ = 8							; size = 4
_t$ = 12						; size = 4
_r$ = 16						; size = 4
_b$ = 20						; size = 4
??0CRect@@QAE@HHHH@Z PROC NEAR				; CRect::CRect, COMDAT
; _this$ = ecx

; 112  : 	{ left = l; top = t; right = r; bottom = b; }

  00000	55		 push	 ebp
  00001	8b ec		 mov	 ebp, esp
  00003	51		 push	 ecx
  00004	89 4d fc	 mov	 DWORD PTR _this$[ebp], ecx
  00007	8b 45 fc	 mov	 eax, DWORD PTR _this$[ebp]
  0000a	8b 4d 08	 mov	 ecx, DWORD PTR _l$[ebp]
  0000d	89 08		 mov	 DWORD PTR [eax], ecx
  0000f	8b 55 fc	 mov	 edx, DWORD PTR _this$[ebp]
  00012	8b 45 0c	 mov	 eax, DWORD PTR _t$[ebp]
  00015	89 42 04	 mov	 DWORD PTR [edx+4], eax
  00018	8b 4d fc	 mov	 ecx, DWORD PTR _this$[ebp]
  0001b	8b 55 10	 mov	 edx, DWORD PTR _r$[ebp]
  0001e	89 51 08	 mov	 DWORD PTR [ecx+8], edx
  00021	8b 45 fc	 mov	 eax, DWORD PTR _this$[ebp]
  00024	8b 4d 14	 mov	 ecx, DWORD PTR _b$[ebp]
  00027	89 48 0c	 mov	 DWORD PTR [eax+12], ecx
  0002a	8b 45 fc	 mov	 eax, DWORD PTR _this$[ebp]
  0002d	8b e5		 mov	 esp, ebp
  0002f	5d		 pop	 ebp
  00030	c2 10 00	 ret	 16			; 00000010H
??0CRect@@QAE@HHHH@Z ENDP				; CRect::CRect
; Function compile flags: /Odt
_TEXT	ENDS
;	COMDAT ??BCRect@@QAEPAUtagRECT@@XZ
_TEXT	SEGMENT
_this$ = -4						; size = 4
??BCRect@@QAEPAUtagRECT@@XZ PROC NEAR			; CRect::operator tagRECT *, COMDAT
; _this$ = ecx

; 143  : 	{ return this; }

  00000	55		 push	 ebp
  00001	8b ec		 mov	 ebp, esp
  00003	51		 push	 ecx
  00004	89 4d fc	 mov	 DWORD PTR _this$[ebp], ecx
  00007	8b 45 fc	 mov	 eax, DWORD PTR _this$[ebp]
  0000a	8b e5		 mov	 esp, ebp
  0000c	5d		 pop	 ebp
  0000d	c3		 ret	 0
??BCRect@@QAEPAUtagRECT@@XZ ENDP			; CRect::operator tagRECT *
; Function compile flags: /Odt
; File d:\program files (x86)\microsoft visual studio .net 2003\vc7\atlmfc\include\afx.inl
_TEXT	ENDS
;	COMDAT ??3CObject@@SGXPAX@Z
_TEXT	SEGMENT
_p$ = 8							; size = 4
??3CObject@@SGXPAX@Z PROC NEAR				; CObject::operator delete, COMDAT

; 31   : 	{ ::operator delete(p); }

  00000	55		 push	 ebp
  00001	8b ec		 mov	 ebp, esp
  00003	8b 45 08	 mov	 eax, DWORD PTR _p$[ebp]
  00006	50		 push	 eax
  00007	e8 00 00 00 00	 call	 ??3@YAXPAX@Z		; operator delete
  0000c	83 c4 04	 add	 esp, 4
  0000f	5d		 pop	 ebp
  00010	c2 04 00	 ret	 4
??3CObject@@SGXPAX@Z ENDP				; CObject::operator delete
; Function compile flags: /Odt
_TEXT	ENDS
;	COMDAT ??2CObject@@SGPAXI@Z
_TEXT	SEGMENT
_nSize$ = 8						; size = 4
??2CObject@@SGPAXI@Z PROC NEAR				; CObject::operator new, COMDAT

; 37   : 	{ return ::operator new(nSize); }

  00000	55		 push	 ebp
  00001	8b ec		 mov	 ebp, esp
  00003	8b 45 08	 mov	 eax, DWORD PTR _nSize$[ebp]
  00006	50		 push	 eax
  00007	e8 00 00 00 00	 call	 ??2@YAPAXI@Z		; operator new
  0000c	83 c4 04	 add	 esp, 4
  0000f	5d		 pop	 ebp
  00010	c2 04 00	 ret	 4
??2CObject@@SGPAXI@Z ENDP				; CObject::operator new
; Function compile flags: /Odt
; File d:\program files (x86)\microsoft visual studio .net 2003\vc7\atlmfc\include\afxwin2.inl
_TEXT	ENDS
;	COMDAT ?MoveWindow@CWnd@@QAEXPBUtagRECT@@H@Z
_TEXT	SEGMENT
_this$ = -4						; size = 4
_lpRect$ = 8						; size = 4
_bRepaint$ = 12						; size = 4
?MoveWindow@CWnd@@QAEXPBUtagRECT@@H@Z PROC NEAR		; CWnd::MoveWindow, COMDAT
; _this$ = ecx

; 89   : 	{ MoveWindow(lpRect->left, lpRect->top, lpRect->right - lpRect->left,

  00000	55		 push	 ebp
  00001	8b ec		 mov	 ebp, esp
  00003	51		 push	 ecx
  00004	89 4d fc	 mov	 DWORD PTR _this$[ebp], ecx

; 90   : 		lpRect->bottom - lpRect->top, bRepaint); }

  00007	8b 45 0c	 mov	 eax, DWORD PTR _bRepaint$[ebp]
  0000a	50		 push	 eax
  0000b	8b 4d 08	 mov	 ecx, DWORD PTR _lpRect$[ebp]
  0000e	8b 55 08	 mov	 edx, DWORD PTR _lpRect$[ebp]
  00011	8b 41 0c	 mov	 eax, DWORD PTR [ecx+12]
  00014	2b 42 04	 sub	 eax, DWORD PTR [edx+4]
  00017	50		 push	 eax
  00018	8b 4d 08	 mov	 ecx, DWORD PTR _lpRect$[ebp]
  0001b	8b 55 08	 mov	 edx, DWORD PTR _lpRect$[ebp]
  0001e	8b 41 08	 mov	 eax, DWORD PTR [ecx+8]
  00021	2b 02		 sub	 eax, DWORD PTR [edx]
  00023	50		 push	 eax
  00024	8b 4d 08	 mov	 ecx, DWORD PTR _lpRect$[ebp]
  00027	8b 51 04	 mov	 edx, DWORD PTR [ecx+4]
  0002a	52		 push	 edx
  0002b	8b 45 08	 mov	 eax, DWORD PTR _lpRect$[ebp]
  0002e	8b 08		 mov	 ecx, DWORD PTR [eax]
  00030	51		 push	 ecx
  00031	8b 4d fc	 mov	 ecx, DWORD PTR _this$[ebp]
  00034	e8 00 00 00 00	 call	 ?MoveWindow@CWnd@@QAEXHHHHH@Z ; CWnd::MoveWindow
  00039	8b e5		 mov	 esp, ebp
  0003b	5d		 pop	 ebp
  0003c	c2 08 00	 ret	 8
?MoveWindow@CWnd@@QAEXPBUtagRECT@@H@Z ENDP		; CWnd::MoveWindow
_TEXT	ENDS
EXTRN	__imp__GetWindowRect@8:NEAR
; Function compile flags: /Odt
;	COMDAT ?GetWindowRect@CWnd@@QBEXPAUtagRECT@@@Z
_TEXT	SEGMENT
_this$ = -4						; size = 4
_lpRect$ = 8						; size = 4
?GetWindowRect@CWnd@@QBEXPAUtagRECT@@@Z PROC NEAR	; CWnd::GetWindowRect, COMDAT
; _this$ = ecx

; 105  : 	{ ASSERT(::IsWindow(m_hWnd)); ::GetWindowRect(m_hWnd, lpRect); }

  00000	55		 push	 ebp
  00001	8b ec		 mov	 ebp, esp
  00003	51		 push	 ecx
  00004	89 4d fc	 mov	 DWORD PTR _this$[ebp], ecx
  00007	8b 45 08	 mov	 eax, DWORD PTR _lpRect$[ebp]
  0000a	50		 push	 eax
  0000b	8b 4d fc	 mov	 ecx, DWORD PTR _this$[ebp]
  0000e	8b 51 20	 mov	 edx, DWORD PTR [ecx+32]
  00011	52		 push	 edx
  00012	ff 15 00 00 00
	00		 call	 DWORD PTR __imp__GetWindowRect@8
  00018	8b e5		 mov	 esp, ebp
  0001a	5d		 pop	 ebp
  0001b	c2 04 00	 ret	 4
?GetWindowRect@CWnd@@QBEXPAUtagRECT@@@Z ENDP		; CWnd::GetWindowRect
_TEXT	ENDS
EXTRN	__imp__IsWindowVisible@4:NEAR
; Function compile flags: /Odt
;	COMDAT ?IsWindowVisible@CWnd@@QBEHXZ
_TEXT	SEGMENT
_this$ = -4						; size = 4
?IsWindowVisible@CWnd@@QBEHXZ PROC NEAR			; CWnd::IsWindowVisible, COMDAT
; _this$ = ecx

; 149  : 	{ ASSERT(::IsWindow(m_hWnd)); return ::IsWindowVisible(m_hWnd); }

  00000	55		 push	 ebp
  00001	8b ec		 mov	 ebp, esp
  00003	51		 push	 ecx
  00004	89 4d fc	 mov	 DWORD PTR _this$[ebp], ecx
  00007	8b 45 fc	 mov	 eax, DWORD PTR _this$[ebp]
  0000a	8b 48 20	 mov	 ecx, DWORD PTR [eax+32]
  0000d	51		 push	 ecx
  0000e	ff 15 00 00 00
	00		 call	 DWORD PTR __imp__IsWindowVisible@4
  00014	8b e5		 mov	 esp, ebp
  00016	5d		 pop	 ebp
  00017	c3		 ret	 0
?IsWindowVisible@CWnd@@QBEHXZ ENDP			; CWnd::IsWindowVisible
_TEXT	ENDS
EXTRN	__imp__GetParent@4:NEAR
EXTRN	?FromHandle@CWnd@@SGPAV1@PAUHWND__@@@Z:NEAR	; CWnd::FromHandle
; Function compile flags: /Odt
;	COMDAT ?GetParent@CWnd@@QBEPAV1@XZ
_TEXT	SEGMENT
_this$ = -4						; size = 4
?GetParent@CWnd@@QBEPAV1@XZ PROC NEAR			; CWnd::GetParent, COMDAT
; _this$ = ecx

; 282  : 	{ ASSERT(::IsWindow(m_hWnd)); return CWnd::FromHandle(::GetParent(m_hWnd)); }

  00000	55		 push	 ebp
  00001	8b ec		 mov	 ebp, esp
  00003	51		 push	 ecx
  00004	89 4d fc	 mov	 DWORD PTR _this$[ebp], ecx
  00007	8b 45 fc	 mov	 eax, DWORD PTR _this$[ebp]
  0000a	8b 48 20	 mov	 ecx, DWORD PTR [eax+32]
  0000d	51		 push	 ecx
  0000e	ff 15 00 00 00
	00		 call	 DWORD PTR __imp__GetParent@4
  00014	50		 push	 eax
  00015	e8 00 00 00 00	 call	 ?FromHandle@CWnd@@SGPAV1@PAUHWND__@@@Z ; CWnd::FromHandle
  0001a	8b e5		 mov	 esp, ebp
  0001c	5d		 pop	 ebp
  0001d	c3		 ret	 0
?GetParent@CWnd@@QBEPAV1@XZ ENDP			; CWnd::GetParent
_TEXT	ENDS
PUBLIC	?GetSafeHwnd@CWnd@@QBEPAUHWND__@@XZ		; CWnd::GetSafeHwnd
EXTRN	__imp__SetParent@8:NEAR
; Function compile flags: /Odt
;	COMDAT ?SetParent@CWnd@@QAEPAV1@PAV1@@Z
_TEXT	SEGMENT
_this$ = -4						; size = 4
_pWndNewParent$ = 8					; size = 4
?SetParent@CWnd@@QAEPAV1@PAV1@@Z PROC NEAR		; CWnd::SetParent, COMDAT
; _this$ = ecx

; 284  : 	{ ASSERT(::IsWindow(m_hWnd)); return CWnd::FromHandle(::SetParent(m_hWnd,

  00000	55		 push	 ebp
  00001	8b ec		 mov	 ebp, esp
  00003	51		 push	 ecx
  00004	89 4d fc	 mov	 DWORD PTR _this$[ebp], ecx

; 285  : 			pWndNewParent->GetSafeHwnd())); }

  00007	8b 4d 08	 mov	 ecx, DWORD PTR _pWndNewParent$[ebp]
  0000a	e8 00 00 00 00	 call	 ?GetSafeHwnd@CWnd@@QBEPAUHWND__@@XZ ; CWnd::GetSafeHwnd
  0000f	50		 push	 eax
  00010	8b 45 fc	 mov	 eax, DWORD PTR _this$[ebp]
  00013	8b 48 20	 mov	 ecx, DWORD PTR [eax+32]
  00016	51		 push	 ecx
  00017	ff 15 00 00 00
	00		 call	 DWORD PTR __imp__SetParent@8
  0001d	50		 push	 eax
  0001e	e8 00 00 00 00	 call	 ?FromHandle@CWnd@@SGPAV1@PAUHWND__@@@Z ; CWnd::FromHandle
  00023	8b e5		 mov	 esp, ebp
  00025	5d		 pop	 ebp
  00026	c2 04 00	 ret	 4
?SetParent@CWnd@@QAEPAV1@PAV1@@Z ENDP			; CWnd::SetParent
; Function compile flags: /Odt
_TEXT	ENDS
;	COMDAT ?GetSafeHwnd@CWnd@@QBEPAUHWND__@@XZ
_TEXT	SEGMENT
tv66 = -8						; size = 4
_this$ = -4						; size = 4
?GetSafeHwnd@CWnd@@QBEPAUHWND__@@XZ PROC NEAR		; CWnd::GetSafeHwnd, COMDAT
; _this$ = ecx

; 27   : 	{ return this == NULL ? NULL : m_hWnd; }

  00000	55		 push	 ebp
  00001	8b ec		 mov	 ebp, esp
  00003	83 ec 08	 sub	 esp, 8
  00006	89 4d fc	 mov	 DWORD PTR _this$[ebp], ecx
  00009	83 7d fc 00	 cmp	 DWORD PTR _this$[ebp], 0
  0000d	75 09		 jne	 SHORT $L203086
  0000f	c7 45 f8 00 00
	00 00		 mov	 DWORD PTR tv66[ebp], 0
  00016	eb 09		 jmp	 SHORT $L203087
$L203086:
  00018	8b 45 fc	 mov	 eax, DWORD PTR _this$[ebp]
  0001b	8b 48 20	 mov	 ecx, DWORD PTR [eax+32]
  0001e	89 4d f8	 mov	 DWORD PTR tv66[ebp], ecx
$L203087:
  00021	8b 45 f8	 mov	 eax, DWORD PTR tv66[ebp]
  00024	8b e5		 mov	 esp, ebp
  00026	5d		 pop	 ebp
  00027	c3		 ret	 0
?GetSafeHwnd@CWnd@@QBEPAUHWND__@@XZ ENDP		; CWnd::GetSafeHwnd
_TEXT	ENDS
EXTRN	__imp_?c_str@?$basic_string@DU?$char_traits@D@std@@V?$allocator@D@2@@std@@QBEPBDXZ:NEAR
; Function compile flags: /Odt
; File d:\program files (x86)\microsoft visual studio .net 2003\vc7\include\stdexcept
;	COMDAT ?what@logic_error@std@@UBEPBDXZ
_TEXT	SEGMENT
_this$ = -4						; size = 4
?what@logic_error@std@@UBEPBDXZ PROC NEAR		; std::logic_error::what, COMDAT
; _this$ = ecx

; 26   : 		{	// return pointer to message string

  00000	55		 push	 ebp
  00001	8b ec		 mov	 ebp, esp
  00003	51		 push	 ecx
  00004	89 4d fc	 mov	 DWORD PTR _this$[ebp], ecx

; 27   : 		return (_Str.c_str());

  00007	8b 4d fc	 mov	 ecx, DWORD PTR _this$[ebp]
  0000a	83 c1 0c	 add	 ecx, 12			; 0000000cH
  0000d	ff 15 00 00 00
	00		 call	 DWORD PTR __imp_?c_str@?$basic_string@DU?$char_traits@D@std@@V?$allocator@D@2@@std@@QBEPBDXZ

; 28   : 		}

  00013	8b e5		 mov	 esp, ebp
  00015	5d		 pop	 ebp
  00016	c3		 ret	 0
?what@logic_error@std@@UBEPBDXZ ENDP			; std::logic_error::what
_TEXT	ENDS
PUBLIC	??0logic_error@std@@QAE@ABV?$basic_string@DU?$char_traits@D@std@@V?$allocator@D@2@@1@@Z ; std::logic_error::logic_error
; Function compile flags: /Odt
;	COMDAT ??0length_error@std@@QAE@ABV?$basic_string@DU?$char_traits@D@std@@V?$allocator@D@2@@1@@Z
_TEXT	SEGMENT
_this$ = -4						; size = 4
__Message$ = 8						; size = 4
??0length_error@std@@QAE@ABV?$basic_string@DU?$char_traits@D@std@@V?$allocator@D@2@@1@@Z PROC NEAR ; std::length_error::length_error, COMDAT
; _this$ = ecx

; 95   : 		{	// construct from message string

  00000	55		 push	 ebp
  00001	8b ec		 mov	 ebp, esp
  00003	51		 push	 ecx
  00004	89 4d fc	 mov	 DWORD PTR _this$[ebp], ecx
  00007	8b 45 08	 mov	 eax, DWORD PTR __Message$[ebp]
  0000a	50		 push	 eax
  0000b	8b 4d fc	 mov	 ecx, DWORD PTR _this$[ebp]
  0000e	e8 00 00 00 00	 call	 ??0logic_error@std@@QAE@ABV?$basic_string@DU?$char_traits@D@std@@V?$allocator@D@2@@1@@Z ; std::logic_error::logic_error
  00013	8b 4d fc	 mov	 ecx, DWORD PTR _this$[ebp]
  00016	c7 01 00 00 00
	00		 mov	 DWORD PTR [ecx], OFFSET FLAT:??_7length_error@std@@6B@

; 96   : 		}

  0001c	8b 45 fc	 mov	 eax, DWORD PTR _this$[ebp]
  0001f	8b e5		 mov	 esp, ebp
  00021	5d		 pop	 ebp
  00022	c2 04 00	 ret	 4
??0length_error@std@@QAE@ABV?$basic_string@DU?$char_traits@D@std@@V?$allocator@D@2@@1@@Z ENDP ; std::length_error::length_error
_TEXT	ENDS
PUBLIC	??_R4logic_error@std@@6B@			; std::logic_error::`RTTI Complete Object Locator'
PUBLIC	??_R3logic_error@std@@8				; std::logic_error::`RTTI Class Hierarchy Descriptor'
PUBLIC	??_R2logic_error@std@@8				; std::logic_error::`RTTI Base Class Array'
PUBLIC	??_7logic_error@std@@6B@			; std::logic_error::`vftable'
PUBLIC	??_Glogic_error@std@@UAEPAXI@Z			; std::logic_error::`scalar deleting destructor'
EXTRN	__imp_??0exception@@QAE@XZ:NEAR
EXTRN	__imp_??1exception@@UAE@XZ:NEAR
EXTRN	??_Elogic_error@std@@UAEPAXI@Z:NEAR		; std::logic_error::`vector deleting destructor'
;	COMDAT xdata$x
xdata$x	SEGMENT
$T203100 DD	0ffffffffH
	DD	FLAT:$L203095
$T203098 DD	019930520H
	DD	01H
	DD	FLAT:$T203100
	DD	2 DUP(00H)
	DD	2 DUP(00H)
xdata$x	ENDS
;	COMDAT ??_7logic_error@std@@6B@
CONST	SEGMENT
??_7logic_error@std@@6B@ DD FLAT:??_R4logic_error@std@@6B@ ; std::logic_error::`vftable'
	DD	FLAT:??_Elogic_error@std@@UAEPAXI@Z
	DD	FLAT:?what@logic_error@std@@UBEPBDXZ
CONST	ENDS
;	COMDAT ??_R4logic_error@std@@6B@
rdata$r	SEGMENT
??_R4logic_error@std@@6B@ DD 00H			; std::logic_error::`RTTI Complete Object Locator'
	DD	00H
	DD	00H
	DD	FLAT:??_R0?AVlogic_error@std@@@8
	DD	FLAT:??_R3logic_error@std@@8
rdata$r	ENDS
;	COMDAT ??_R3logic_error@std@@8
rdata$r	SEGMENT
??_R3logic_error@std@@8 DD 00H				; std::logic_error::`RTTI Class Hierarchy Descriptor'
	DD	00H
	DD	02H
	DD	FLAT:??_R2logic_error@std@@8
rdata$r	ENDS
;	COMDAT ??_R2logic_error@std@@8
rdata$r	SEGMENT
??_R2logic_error@std@@8 DD FLAT:??_R1A@?0A@A@logic_error@std@@8 ; std::logic_error::`RTTI Base Class Array'
	DD	FLAT:??_R1A@?0A@A@exception@@8
; Function compile flags: /Odt
rdata$r	ENDS
;	COMDAT ??0logic_error@std@@QAE@ABV?$basic_string@DU?$char_traits@D@std@@V?$allocator@D@2@@1@@Z
_TEXT	SEGMENT
_this$ = -16						; size = 4
__$EHRec$ = -12						; size = 12
__Message$ = 8						; size = 4
??0logic_error@std@@QAE@ABV?$basic_string@DU?$char_traits@D@std@@V?$allocator@D@2@@1@@Z PROC NEAR ; std::logic_error::logic_error, COMDAT
; _this$ = ecx

; 19   : 		{	// construct from message string

  00000	55		 push	 ebp
  00001	8b ec		 mov	 ebp, esp
  00003	6a ff		 push	 -1
  00005	68 00 00 00 00	 push	 __ehhandler$??0logic_error@std@@QAE@ABV?$basic_string@DU?$char_traits@D@std@@V?$allocator@D@2@@1@@Z
  0000a	64 a1 00 00 00
	00		 mov	 eax, DWORD PTR fs:__except_list
  00010	50		 push	 eax
  00011	64 89 25 00 00
	00 00		 mov	 DWORD PTR fs:__except_list, esp
  00018	51		 push	 ecx
  00019	89 4d f0	 mov	 DWORD PTR _this$[ebp], ecx
  0001c	8b 4d f0	 mov	 ecx, DWORD PTR _this$[ebp]
  0001f	ff 15 00 00 00
	00		 call	 DWORD PTR __imp_??0exception@@QAE@XZ
  00025	c7 45 fc 00 00
	00 00		 mov	 DWORD PTR __$EHRec$[ebp+8], 0
  0002c	8b 45 f0	 mov	 eax, DWORD PTR _this$[ebp]
  0002f	c7 00 00 00 00
	00		 mov	 DWORD PTR [eax], OFFSET FLAT:??_7logic_error@std@@6B@
  00035	8b 4d 08	 mov	 ecx, DWORD PTR __Message$[ebp]
  00038	51		 push	 ecx
  00039	8b 4d f0	 mov	 ecx, DWORD PTR _this$[ebp]
  0003c	83 c1 0c	 add	 ecx, 12			; 0000000cH
  0003f	ff 15 00 00 00
	00		 call	 DWORD PTR __imp_??0?$basic_string@DU?$char_traits@D@std@@V?$allocator@D@2@@std@@QAE@ABV01@@Z

; 20   : 		}

  00045	c7 45 fc ff ff
	ff ff		 mov	 DWORD PTR __$EHRec$[ebp+8], -1
  0004c	8b 45 f0	 mov	 eax, DWORD PTR _this$[ebp]
  0004f	8b 4d f4	 mov	 ecx, DWORD PTR __$EHRec$[ebp]
  00052	64 89 0d 00 00
	00 00		 mov	 DWORD PTR fs:__except_list, ecx
  00059	8b e5		 mov	 esp, ebp
  0005b	5d		 pop	 ebp
  0005c	c2 04 00	 ret	 4
_TEXT	ENDS
;	COMDAT text$x
text$x	SEGMENT
$L203095:
  00000	8b 4d f0	 mov	 ecx, DWORD PTR _this$[ebp]
  00003	ff 25 00 00 00
	00		 jmp	 DWORD PTR __imp_??1exception@@UAE@XZ
__ehhandler$??0logic_error@std@@QAE@ABV?$basic_string@DU?$char_traits@D@std@@V?$allocator@D@2@@1@@Z:
  00009	b8 00 00 00 00	 mov	 eax, OFFSET FLAT:$T203098
  0000e	e9 00 00 00 00	 jmp	 ___CxxFrameHandler
text$x	ENDS
??0logic_error@std@@QAE@ABV?$basic_string@DU?$char_traits@D@std@@V?$allocator@D@2@@1@@Z ENDP ; std::logic_error::logic_error
PUBLIC	??1logic_error@std@@UAE@XZ			; std::logic_error::~logic_error
; Function compile flags: /Odt
;	COMDAT ??_Glogic_error@std@@UAEPAXI@Z
_TEXT	SEGMENT
_this$ = -4						; size = 4
___flags$ = 8						; size = 4
??_Glogic_error@std@@UAEPAXI@Z PROC NEAR		; std::logic_error::`scalar deleting destructor', COMDAT
; _this$ = ecx
  00000	55		 push	 ebp
  00001	8b ec		 mov	 ebp, esp
  00003	51		 push	 ecx
  00004	89 4d fc	 mov	 DWORD PTR _this$[ebp], ecx
  00007	8b 4d fc	 mov	 ecx, DWORD PTR _this$[ebp]
  0000a	e8 00 00 00 00	 call	 ??1logic_error@std@@UAE@XZ ; std::logic_error::~logic_error
  0000f	8b 45 08	 mov	 eax, DWORD PTR ___flags$[ebp]
  00012	83 e0 01	 and	 eax, 1
  00015	74 0c		 je	 SHORT $L102266
  00017	8b 4d fc	 mov	 ecx, DWORD PTR _this$[ebp]
  0001a	51		 push	 ecx
  0001b	e8 00 00 00 00	 call	 ??3@YAXPAX@Z		; operator delete
  00020	83 c4 04	 add	 esp, 4
$L102266:
  00023	8b 45 fc	 mov	 eax, DWORD PTR _this$[ebp]
  00026	8b e5		 mov	 esp, ebp
  00028	5d		 pop	 ebp
  00029	c2 04 00	 ret	 4
??_Glogic_error@std@@UAEPAXI@Z ENDP			; std::logic_error::`scalar deleting destructor'
_TEXT	ENDS
;	COMDAT xdata$x
xdata$x	SEGMENT
$T203112 DD	0ffffffffH
	DD	FLAT:$L203107
$T203110 DD	019930520H
	DD	01H
	DD	FLAT:$T203112
	DD	2 DUP(00H)
	DD	2 DUP(00H)
; Function compile flags: /Odt
xdata$x	ENDS
;	COMDAT ??1logic_error@std@@UAE@XZ
_TEXT	SEGMENT
_this$ = -16						; size = 4
__$EHRec$ = -12						; size = 12
??1logic_error@std@@UAE@XZ PROC NEAR			; std::logic_error::~logic_error, COMDAT
; _this$ = ecx

; 23   : 		{}	// destroy the object

  00000	55		 push	 ebp
  00001	8b ec		 mov	 ebp, esp
  00003	6a ff		 push	 -1
  00005	68 00 00 00 00	 push	 __ehhandler$??1logic_error@std@@UAE@XZ
  0000a	64 a1 00 00 00
	00		 mov	 eax, DWORD PTR fs:__except_list
  00010	50		 push	 eax
  00011	64 89 25 00 00
	00 00		 mov	 DWORD PTR fs:__except_list, esp
  00018	51		 push	 ecx
  00019	89 4d f0	 mov	 DWORD PTR _this$[ebp], ecx
  0001c	8b 45 f0	 mov	 eax, DWORD PTR _this$[ebp]
  0001f	c7 00 00 00 00
	00		 mov	 DWORD PTR [eax], OFFSET FLAT:??_7logic_error@std@@6B@
  00025	c7 45 fc 00 00
	00 00		 mov	 DWORD PTR __$EHRec$[ebp+8], 0
  0002c	8b 4d f0	 mov	 ecx, DWORD PTR _this$[ebp]
  0002f	83 c1 0c	 add	 ecx, 12			; 0000000cH
  00032	ff 15 00 00 00
	00		 call	 DWORD PTR __imp_??1?$basic_string@DU?$char_traits@D@std@@V?$allocator@D@2@@std@@QAE@XZ
  00038	c7 45 fc ff ff
	ff ff		 mov	 DWORD PTR __$EHRec$[ebp+8], -1
  0003f	8b 4d f0	 mov	 ecx, DWORD PTR _this$[ebp]
  00042	ff 15 00 00 00
	00		 call	 DWORD PTR __imp_??1exception@@UAE@XZ
  00048	8b 4d f4	 mov	 ecx, DWORD PTR __$EHRec$[ebp]
  0004b	64 89 0d 00 00
	00 00		 mov	 DWORD PTR fs:__except_list, ecx
  00052	8b e5		 mov	 esp, ebp
  00054	5d		 pop	 ebp
  00055	c3		 ret	 0
_TEXT	ENDS
;	COMDAT text$x
text$x	SEGMENT
$L203107:
  00000	8b 4d f0	 mov	 ecx, DWORD PTR _this$[ebp]
  00003	ff 25 00 00 00
	00		 jmp	 DWORD PTR __imp_??1exception@@UAE@XZ
__ehhandler$??1logic_error@std@@UAE@XZ:
  00009	b8 00 00 00 00	 mov	 eax, OFFSET FLAT:$T203110
  0000e	e9 00 00 00 00	 jmp	 ___CxxFrameHandler
text$x	ENDS
??1logic_error@std@@UAE@XZ ENDP				; std::logic_error::~logic_error
; Function compile flags: /Odt
;	COMDAT ??1length_error@std@@UAE@XZ
_TEXT	SEGMENT
_this$ = -4						; size = 4
??1length_error@std@@UAE@XZ PROC NEAR			; std::length_error::~length_error, COMDAT
; _this$ = ecx

; 99   : 		{}	// destroy the object

  00000	55		 push	 ebp
  00001	8b ec		 mov	 ebp, esp
  00003	51		 push	 ecx
  00004	89 4d fc	 mov	 DWORD PTR _this$[ebp], ecx
  00007	8b 45 fc	 mov	 eax, DWORD PTR _this$[ebp]
  0000a	c7 00 00 00 00
	00		 mov	 DWORD PTR [eax], OFFSET FLAT:??_7length_error@std@@6B@
  00010	8b 4d fc	 mov	 ecx, DWORD PTR _this$[ebp]
  00013	e8 00 00 00 00	 call	 ??1logic_error@std@@UAE@XZ ; std::logic_error::~logic_error
  00018	8b e5		 mov	 esp, ebp
  0001a	5d		 pop	 ebp
  0001b	c3		 ret	 0
??1length_error@std@@UAE@XZ ENDP			; std::length_error::~length_error
; Function compile flags: /Odt
_TEXT	ENDS
;	COMDAT ??_Glength_error@std@@UAEPAXI@Z
_TEXT	SEGMENT
_this$ = -4						; size = 4
___flags$ = 8						; size = 4
??_Glength_error@std@@UAEPAXI@Z PROC NEAR		; std::length_error::`scalar deleting destructor', COMDAT
; _this$ = ecx
  00000	55		 push	 ebp
  00001	8b ec		 mov	 ebp, esp
  00003	51		 push	 ecx
  00004	89 4d fc	 mov	 DWORD PTR _this$[ebp], ecx
  00007	8b 4d fc	 mov	 ecx, DWORD PTR _this$[ebp]
  0000a	e8 00 00 00 00	 call	 ??1length_error@std@@UAE@XZ ; std::length_error::~length_error
  0000f	8b 45 08	 mov	 eax, DWORD PTR ___flags$[ebp]
  00012	83 e0 01	 and	 eax, 1
  00015	74 0c		 je	 SHORT $L102332
  00017	8b 4d fc	 mov	 ecx, DWORD PTR _this$[ebp]
  0001a	51		 push	 ecx
  0001b	e8 00 00 00 00	 call	 ??3@YAXPAX@Z		; operator delete
  00020	83 c4 04	 add	 esp, 4
$L102332:
  00023	8b 45 fc	 mov	 eax, DWORD PTR _this$[ebp]
  00026	8b e5		 mov	 esp, ebp
  00028	5d		 pop	 ebp
  00029	c2 04 00	 ret	 4
??_Glength_error@std@@UAEPAXI@Z ENDP			; std::length_error::`scalar deleting destructor'
_TEXT	ENDS
PUBLIC	??_R4out_of_range@std@@6B@			; std::out_of_range::`RTTI Complete Object Locator'
PUBLIC	??_R3out_of_range@std@@8			; std::out_of_range::`RTTI Class Hierarchy Descriptor'
PUBLIC	??_R2out_of_range@std@@8			; std::out_of_range::`RTTI Base Class Array'
PUBLIC	??_R1A@?0A@A@out_of_range@std@@8		; std::out_of_range::`RTTI Base Class Descriptor at (0,-1,0,0)'
PUBLIC	??_7out_of_range@std@@6B@			; std::out_of_range::`vftable'
PUBLIC	??_Gout_of_range@std@@UAEPAXI@Z			; std::out_of_range::`scalar deleting destructor'
EXTRN	??_Eout_of_range@std@@UAEPAXI@Z:NEAR		; std::out_of_range::`vector deleting destructor'
;	COMDAT ??_7out_of_range@std@@6B@
CONST	SEGMENT
??_7out_of_range@std@@6B@ DD FLAT:??_R4out_of_range@std@@6B@ ; std::out_of_range::`vftable'
	DD	FLAT:??_Eout_of_range@std@@UAEPAXI@Z
	DD	FLAT:?what@logic_error@std@@UBEPBDXZ
CONST	ENDS
;	COMDAT ??_R4out_of_range@std@@6B@
rdata$r	SEGMENT
??_R4out_of_range@std@@6B@ DD 00H			; std::out_of_range::`RTTI Complete Object Locator'
	DD	00H
	DD	00H
	DD	FLAT:??_R0?AVout_of_range@std@@@8
	DD	FLAT:??_R3out_of_range@std@@8
rdata$r	ENDS
;	COMDAT ??_R3out_of_range@std@@8
rdata$r	SEGMENT
??_R3out_of_range@std@@8 DD 00H				; std::out_of_range::`RTTI Class Hierarchy Descriptor'
	DD	00H
	DD	03H
	DD	FLAT:??_R2out_of_range@std@@8
rdata$r	ENDS
;	COMDAT ??_R2out_of_range@std@@8
rdata$r	SEGMENT
??_R2out_of_range@std@@8 DD FLAT:??_R1A@?0A@A@out_of_range@std@@8 ; std::out_of_range::`RTTI Base Class Array'
	DD	FLAT:??_R1A@?0A@A@logic_error@std@@8
	DD	FLAT:??_R1A@?0A@A@exception@@8
rdata$r	ENDS
;	COMDAT ??_R1A@?0A@A@out_of_range@std@@8
rdata$r	SEGMENT
??_R1A@?0A@A@out_of_range@std@@8 DD FLAT:??_R0?AVout_of_range@std@@@8 ; std::out_of_range::`RTTI Base Class Descriptor at (0,-1,0,0)'
	DD	02H
	DD	00H
	DD	0ffffffffH
	DD	00H
	DD	00H
; Function compile flags: /Odt
rdata$r	ENDS
;	COMDAT ??0out_of_range@std@@QAE@ABV?$basic_string@DU?$char_traits@D@std@@V?$allocator@D@2@@1@@Z
_TEXT	SEGMENT
_this$ = -4						; size = 4
__Message$ = 8						; size = 4
??0out_of_range@std@@QAE@ABV?$basic_string@DU?$char_traits@D@std@@V?$allocator@D@2@@1@@Z PROC NEAR ; std::out_of_range::out_of_range, COMDAT
; _this$ = ecx

; 118  : 		{	// construct from message string

  00000	55		 push	 ebp
  00001	8b ec		 mov	 ebp, esp
  00003	51		 push	 ecx
  00004	89 4d fc	 mov	 DWORD PTR _this$[ebp], ecx
  00007	8b 45 08	 mov	 eax, DWORD PTR __Message$[ebp]
  0000a	50		 push	 eax
  0000b	8b 4d fc	 mov	 ecx, DWORD PTR _this$[ebp]
  0000e	e8 00 00 00 00	 call	 ??0logic_error@std@@QAE@ABV?$basic_string@DU?$char_traits@D@std@@V?$allocator@D@2@@1@@Z ; std::logic_error::logic_error
  00013	8b 4d fc	 mov	 ecx, DWORD PTR _this$[ebp]
  00016	c7 01 00 00 00
	00		 mov	 DWORD PTR [ecx], OFFSET FLAT:??_7out_of_range@std@@6B@

; 119  : 		}

  0001c	8b 45 fc	 mov	 eax, DWORD PTR _this$[ebp]
  0001f	8b e5		 mov	 esp, ebp
  00021	5d		 pop	 ebp
  00022	c2 04 00	 ret	 4
??0out_of_range@std@@QAE@ABV?$basic_string@DU?$char_traits@D@std@@V?$allocator@D@2@@1@@Z ENDP ; std::out_of_range::out_of_range
; Function compile flags: /Odt
_TEXT	ENDS
;	COMDAT ??1out_of_range@std@@UAE@XZ
_TEXT	SEGMENT
_this$ = -4						; size = 4
??1out_of_range@std@@UAE@XZ PROC NEAR			; std::out_of_range::~out_of_range, COMDAT
; _this$ = ecx

; 122  : 		{}	// destroy the object

  00000	55		 push	 ebp
  00001	8b ec		 mov	 ebp, esp
  00003	51		 push	 ecx
  00004	89 4d fc	 mov	 DWORD PTR _this$[ebp], ecx
  00007	8b 45 fc	 mov	 eax, DWORD PTR _this$[ebp]
  0000a	c7 00 00 00 00
	00		 mov	 DWORD PTR [eax], OFFSET FLAT:??_7out_of_range@std@@6B@
  00010	8b 4d fc	 mov	 ecx, DWORD PTR _this$[ebp]
  00013	e8 00 00 00 00	 call	 ??1logic_error@std@@UAE@XZ ; std::logic_error::~logic_error
  00018	8b e5		 mov	 esp, ebp
  0001a	5d		 pop	 ebp
  0001b	c3		 ret	 0
??1out_of_range@std@@UAE@XZ ENDP			; std::out_of_range::~out_of_range
; Function compile flags: /Odt
_TEXT	ENDS
;	COMDAT ??_Gout_of_range@std@@UAEPAXI@Z
_TEXT	SEGMENT
_this$ = -4						; size = 4
___flags$ = 8						; size = 4
??_Gout_of_range@std@@UAEPAXI@Z PROC NEAR		; std::out_of_range::`scalar deleting destructor', COMDAT
; _this$ = ecx
  00000	55		 push	 ebp
  00001	8b ec		 mov	 ebp, esp
  00003	51		 push	 ecx
  00004	89 4d fc	 mov	 DWORD PTR _this$[ebp], ecx
  00007	8b 4d fc	 mov	 ecx, DWORD PTR _this$[ebp]
  0000a	e8 00 00 00 00	 call	 ??1out_of_range@std@@UAE@XZ ; std::out_of_range::~out_of_range
  0000f	8b 45 08	 mov	 eax, DWORD PTR ___flags$[ebp]
  00012	83 e0 01	 and	 eax, 1
  00015	74 0c		 je	 SHORT $L102354
  00017	8b 4d fc	 mov	 ecx, DWORD PTR _this$[ebp]
  0001a	51		 push	 ecx
  0001b	e8 00 00 00 00	 call	 ??3@YAXPAX@Z		; operator delete
  00020	83 c4 04	 add	 esp, 4
$L102354:
  00023	8b 45 fc	 mov	 eax, DWORD PTR _this$[ebp]
  00026	8b e5		 mov	 esp, ebp
  00028	5d		 pop	 ebp
  00029	c2 04 00	 ret	 4
??_Gout_of_range@std@@UAEPAXI@Z ENDP			; std::out_of_range::`scalar deleting destructor'
; Function compile flags: /Odt
_TEXT	ENDS
;	COMDAT ??0out_of_range@std@@QAE@ABV01@@Z
_TEXT	SEGMENT
_this$ = -4						; size = 4
___that$ = 8						; size = 4
??0out_of_range@std@@QAE@ABV01@@Z PROC NEAR		; std::out_of_range::out_of_range, COMDAT
; _this$ = ecx
  00000	55		 push	 ebp
  00001	8b ec		 mov	 ebp, esp
  00003	51		 push	 ecx
  00004	89 4d fc	 mov	 DWORD PTR _this$[ebp], ecx
  00007	8b 45 08	 mov	 eax, DWORD PTR ___that$[ebp]
  0000a	50		 push	 eax
  0000b	8b 4d fc	 mov	 ecx, DWORD PTR _this$[ebp]
  0000e	e8 00 00 00 00	 call	 ??0logic_error@std@@QAE@ABV01@@Z
  00013	8b 4d fc	 mov	 ecx, DWORD PTR _this$[ebp]
  00016	c7 01 00 00 00
	00		 mov	 DWORD PTR [ecx], OFFSET FLAT:??_7out_of_range@std@@6B@
  0001c	8b 45 fc	 mov	 eax, DWORD PTR _this$[ebp]
  0001f	8b e5		 mov	 esp, ebp
  00021	5d		 pop	 ebp
  00022	c2 04 00	 ret	 4
??0out_of_range@std@@QAE@ABV01@@Z ENDP			; std::out_of_range::out_of_range
_TEXT	ENDS
EXTRN	__imp_??0exception@@QAE@ABV0@@Z:NEAR
;	COMDAT xdata$x
xdata$x	SEGMENT
$T203138 DD	0ffffffffH
	DD	FLAT:$L203133
$T203136 DD	019930520H
	DD	01H
	DD	FLAT:$T203138
	DD	2 DUP(00H)
	DD	2 DUP(00H)
; Function compile flags: /Odt
xdata$x	ENDS
;	COMDAT ??0logic_error@std@@QAE@ABV01@@Z
_TEXT	SEGMENT
_this$ = -16						; size = 4
__$EHRec$ = -12						; size = 12
___that$ = 8						; size = 4
??0logic_error@std@@QAE@ABV01@@Z PROC NEAR		; std::logic_error::logic_error, COMDAT
; _this$ = ecx
  00000	55		 push	 ebp
  00001	8b ec		 mov	 ebp, esp
  00003	6a ff		 push	 -1
  00005	68 00 00 00 00	 push	 __ehhandler$??0logic_error@std@@QAE@ABV01@@Z
  0000a	64 a1 00 00 00
	00		 mov	 eax, DWORD PTR fs:__except_list
  00010	50		 push	 eax
  00011	64 89 25 00 00
	00 00		 mov	 DWORD PTR fs:__except_list, esp
  00018	51		 push	 ecx
  00019	89 4d f0	 mov	 DWORD PTR _this$[ebp], ecx
  0001c	8b 45 08	 mov	 eax, DWORD PTR ___that$[ebp]
  0001f	50		 push	 eax
  00020	8b 4d f0	 mov	 ecx, DWORD PTR _this$[ebp]
  00023	ff 15 00 00 00
	00		 call	 DWORD PTR __imp_??0exception@@QAE@ABV0@@Z
  00029	c7 45 fc 00 00
	00 00		 mov	 DWORD PTR __$EHRec$[ebp+8], 0
  00030	8b 4d f0	 mov	 ecx, DWORD PTR _this$[ebp]
  00033	c7 01 00 00 00
	00		 mov	 DWORD PTR [ecx], OFFSET FLAT:??_7logic_error@std@@6B@
  00039	8b 55 08	 mov	 edx, DWORD PTR ___that$[ebp]
  0003c	83 c2 0c	 add	 edx, 12			; 0000000cH
  0003f	52		 push	 edx
  00040	8b 4d f0	 mov	 ecx, DWORD PTR _this$[ebp]
  00043	83 c1 0c	 add	 ecx, 12			; 0000000cH
  00046	ff 15 00 00 00
	00		 call	 DWORD PTR __imp_??0?$basic_string@DU?$char_traits@D@std@@V?$allocator@D@2@@std@@QAE@ABV01@@Z
  0004c	c7 45 fc ff ff
	ff ff		 mov	 DWORD PTR __$EHRec$[ebp+8], -1
  00053	8b 45 f0	 mov	 eax, DWORD PTR _this$[ebp]
  00056	8b 4d f4	 mov	 ecx, DWORD PTR __$EHRec$[ebp]
  00059	64 89 0d 00 00
	00 00		 mov	 DWORD PTR fs:__except_list, ecx
  00060	8b e5		 mov	 esp, ebp
  00062	5d		 pop	 ebp
  00063	c2 04 00	 ret	 4
_TEXT	ENDS
;	COMDAT text$x
text$x	SEGMENT
$L203133:
  00000	8b 4d f0	 mov	 ecx, DWORD PTR _this$[ebp]
  00003	ff 25 00 00 00
	00		 jmp	 DWORD PTR __imp_??1exception@@UAE@XZ
__ehhandler$??0logic_error@std@@QAE@ABV01@@Z:
  00009	b8 00 00 00 00	 mov	 eax, OFFSET FLAT:$T203136
  0000e	e9 00 00 00 00	 jmp	 ___CxxFrameHandler
text$x	ENDS
??0logic_error@std@@QAE@ABV01@@Z ENDP			; std::logic_error::logic_error
; Function compile flags: /Odt
; File d:\program files (x86)\microsoft visual studio .net 2003\vc7\include\utility
;	COMDAT ??$swap@D@std@@YAXAAD0@Z
_TEXT	SEGMENT
__Tmp$ = -1						; size = 1
__Left$ = 8						; size = 4
__Right$ = 12						; size = 4
??$swap@D@std@@YAXAAD0@Z PROC NEAR			; std::swap<char>, COMDAT

; 14   : 	{	// exchange values stored at _Left and _Right

  00000	55		 push	 ebp
  00001	8b ec		 mov	 ebp, esp
  00003	51		 push	 ecx

; 15   : 	_Ty _Tmp = _Left;

  00004	8b 45 08	 mov	 eax, DWORD PTR __Left$[ebp]
  00007	8a 08		 mov	 cl, BYTE PTR [eax]
  00009	88 4d ff	 mov	 BYTE PTR __Tmp$[ebp], cl

; 16   : 	_Left = _Right, _Right = _Tmp;

  0000c	8b 55 08	 mov	 edx, DWORD PTR __Left$[ebp]
  0000f	8b 45 0c	 mov	 eax, DWORD PTR __Right$[ebp]
  00012	8a 08		 mov	 cl, BYTE PTR [eax]
  00014	88 0a		 mov	 BYTE PTR [edx], cl
  00016	8b 55 0c	 mov	 edx, DWORD PTR __Right$[ebp]
  00019	8a 45 ff	 mov	 al, BYTE PTR __Tmp$[ebp]
  0001c	88 02		 mov	 BYTE PTR [edx], al

; 17   : 	}

  0001e	8b e5		 mov	 esp, ebp
  00020	5d		 pop	 ebp
  00021	c3		 ret	 0
??$swap@D@std@@YAXAAD0@Z ENDP				; std::swap<char>
_TEXT	ENDS
END
