; Listing generated by Microsoft (R) Optimizing Compiler Version 13.10.3077 

	TITLE	.\src\LayoutMgr\SeperateMode\HostWnd.cpp
	.386P
include listing.inc
if @Version gt 510
.model FLAT
else
_TEXT	SEGMENT PARA USE32 PUBLIC 'CODE'
_TEXT	ENDS
_DATA	SEGMENT DWORD USE32 PUBLIC 'DATA'
_DATA	ENDS
CONST	SEGMENT DWORD USE32 PUBLIC 'CONST'
CONST	ENDS
_BSS	SEGMENT DWORD USE32 PUBLIC 'BSS'
_BSS	ENDS
$$SYMBOLS	SEGMENT BYTE USE32 'DEBSYM'
$$SYMBOLS	ENDS
$$TYPES	SEGMENT BYTE USE32 'DEBTYP'
$$TYPES	ENDS
_TLS	SEGMENT DWORD USE32 PUBLIC 'TLS'
_TLS	ENDS
rdata$r	SEGMENT DWORD USE32 PUBLIC 'CONST'
rdata$r	ENDS
xdata$x	SEGMENT DWORD USE32 PUBLIC 'CONST'
xdata$x	ENDS
text$AFX_COL1	SEGMENT PARA USE32 PUBLIC ''
text$AFX_COL1	ENDS
text$yc	SEGMENT PARA USE32 PUBLIC 'CODE'
text$yc	ENDS
CRT$XCA	SEGMENT DWORD USE32 PUBLIC 'DATA'
CRT$XCA	ENDS
CRT$XCU	SEGMENT DWORD USE32 PUBLIC 'DATA'
CRT$XCU	ENDS
CRT$XCL	SEGMENT DWORD USE32 PUBLIC 'DATA'
CRT$XCL	ENDS
CRT$XCC	SEGMENT DWORD USE32 PUBLIC 'DATA'
CRT$XCC	ENDS
CRT$XCZ	SEGMENT DWORD USE32 PUBLIC 'DATA'
CRT$XCZ	ENDS
text$yd	SEGMENT PARA USE32 PUBLIC 'CODE'
text$yd	ENDS
ATL$__m	SEGMENT DWORD USE32 PUBLIC ''
ATL$__m	ENDS
ATL$__z	SEGMENT DWORD USE32 PUBLIC ''
ATL$__z	ENDS
ATL$__a	SEGMENT DWORD USE32 PUBLIC ''
ATL$__a	ENDS
;	COMDAT ??1IData@@MAE@XZ
_TEXT	SEGMENT PARA USE32 PUBLIC 'CODE'
_TEXT	ENDS
;	COMDAT ?DataAppStart@IData@@UAEXXZ
_TEXT	SEGMENT PARA USE32 PUBLIC 'CODE'
_TEXT	ENDS
;	COMDAT ?DataAppExit@IData@@UAEXXZ
_TEXT	SEGMENT PARA USE32 PUBLIC 'CODE'
_TEXT	ENDS
;	COMDAT ??_GIData@@MAEPAXI@Z
_TEXT	SEGMENT PARA USE32 PUBLIC 'CODE'
_TEXT	ENDS
;	COMDAT ??_GCHostWnd@@UAEPAXI@Z
_TEXT	SEGMENT PARA USE32 PUBLIC 'CODE'
_TEXT	ENDS
;	COMDAT ??8ATL@@YA_NABV?$CStringT@DV?$StrTraitMFC_DLL@DV?$ChTraitsCRT@D@ATL@@@@@0@PBD@Z
_TEXT	SEGMENT PARA USE32 PUBLIC 'CODE'
_TEXT	ENDS
;	COMDAT ??9ATL@@YA_NABV?$CStringT@DV?$StrTraitMFC_DLL@DV?$ChTraitsCRT@D@ATL@@@@@0@PBD@Z
_TEXT	SEGMENT PARA USE32 PUBLIC 'CODE'
_TEXT	ENDS
;	COMDAT ??B?$CComPtrBase@UITypeInfo2@@@ATL@@QBEPAUITypeInfo2@@XZ
_TEXT	SEGMENT PARA USE32 PUBLIC 'CODE'
_TEXT	ENDS
;	COMDAT ?equal@?$istreambuf_iterator@DU?$char_traits@D@std@@@std@@QBE_NABV12@@Z
_TEXT	SEGMENT PARA USE32 PUBLIC 'CODE'
_TEXT	ENDS
;	COMDAT ?equal@?$istreambuf_iterator@_WU?$char_traits@_W@std@@@std@@QBE_NABV12@@Z
_TEXT	SEGMENT PARA USE32 PUBLIC 'CODE'
_TEXT	ENDS
;	COMDAT ?StringCompare@?$ChTraitsCRT@D@ATL@@SAHPBD0@Z
_TEXT	SEGMENT PARA USE32 PUBLIC 'CODE'
_TEXT	ENDS
;	COMDAT ?Unlock@?$CComCritSecLock@VCComCriticalSection@ATL@@@ATL@@QAEXXZ
_TEXT	SEGMENT PARA USE32 PUBLIC 'CODE'
_TEXT	ENDS
;	COMDAT ??$_Maklocstr@D@std@@YAPADPBDPADABU_Cvtvec@@@Z
_TEXT	SEGMENT PARA USE32 PUBLIC 'CODE'
_TEXT	ENDS
;	COMDAT ??_R3IData@@8
rdata$r	SEGMENT DWORD USE32 PUBLIC 'CONST'
rdata$r	ENDS
;	COMDAT ??_R3CHostWnd@@8
rdata$r	SEGMENT DWORD USE32 PUBLIC 'CONST'
rdata$r	ENDS
;	COMDAT ??_R3?$numpunct@_W@std@@8
rdata$r	SEGMENT DWORD USE32 PUBLIC 'CONST'
rdata$r	ENDS
;	COMDAT ??_R3?$numpunct@D@std@@8
rdata$r	SEGMENT DWORD USE32 PUBLIC 'CONST'
rdata$r	ENDS
;	COMDAT ??_R2IData@@8
rdata$r	SEGMENT DWORD USE32 PUBLIC 'CONST'
rdata$r	ENDS
;	COMDAT ??_R2CHostWnd@@8
rdata$r	SEGMENT DWORD USE32 PUBLIC 'CONST'
rdata$r	ENDS
;	COMDAT ??_R2?$numpunct@_W@std@@8
rdata$r	SEGMENT DWORD USE32 PUBLIC 'CONST'
rdata$r	ENDS
;	COMDAT ??_R2?$numpunct@D@std@@8
rdata$r	SEGMENT DWORD USE32 PUBLIC 'CONST'
rdata$r	ENDS
;	COMDAT ??_R1A@?0A@A@IData@@8
rdata$r	SEGMENT DWORD USE32 PUBLIC 'CONST'
rdata$r	ENDS
;	COMDAT ??_R1A@?0A@A@CObject@@8
rdata$r	SEGMENT DWORD USE32 PUBLIC 'CONST'
rdata$r	ENDS
;	COMDAT ??_R0?AVCObject@@@8
_DATA	SEGMENT DWORD USE32 PUBLIC 'DATA'
_DATA	ENDS
;	COMDAT ??_R1A@?0A@A@CCmdTarget@@8
rdata$r	SEGMENT DWORD USE32 PUBLIC 'CONST'
rdata$r	ENDS
;	COMDAT ??_R0?AVCCmdTarget@@@8
_DATA	SEGMENT DWORD USE32 PUBLIC 'DATA'
_DATA	ENDS
;	COMDAT ??_R1A@?0A@A@CWnd@@8
rdata$r	SEGMENT DWORD USE32 PUBLIC 'CONST'
rdata$r	ENDS
;	COMDAT ??_R0?AVCWnd@@@8
_DATA	SEGMENT DWORD USE32 PUBLIC 'DATA'
_DATA	ENDS
;	COMDAT ??_R1A@?0A@A@CDialog@@8
rdata$r	SEGMENT DWORD USE32 PUBLIC 'CONST'
rdata$r	ENDS
;	COMDAT ??_R0?AVCDialog@@@8
_DATA	SEGMENT DWORD USE32 PUBLIC 'DATA'
_DATA	ENDS
;	COMDAT ??_R1A@?0A@A@CHostWnd@@8
rdata$r	SEGMENT DWORD USE32 PUBLIC 'CONST'
rdata$r	ENDS
;	COMDAT ??_R1A@?0A@A@?$numpunct@_W@std@@8
rdata$r	SEGMENT DWORD USE32 PUBLIC 'CONST'
rdata$r	ENDS
;	COMDAT ??_R1A@?0A@A@facet@locale@std@@8
rdata$r	SEGMENT DWORD USE32 PUBLIC 'CONST'
rdata$r	ENDS
;	COMDAT ??_R0?AVfacet@locale@std@@@8
_DATA	SEGMENT DWORD USE32 PUBLIC 'DATA'
_DATA	ENDS
;	COMDAT ??_R1A@?0A@A@?$numpunct@D@std@@8
rdata$r	SEGMENT DWORD USE32 PUBLIC 'CONST'
rdata$r	ENDS
;	COMDAT ??_R0?AVIData@@@8
_DATA	SEGMENT DWORD USE32 PUBLIC 'DATA'
_DATA	ENDS
;	COMDAT ??_R0?AVCHostWnd@@@8
_DATA	SEGMENT DWORD USE32 PUBLIC 'DATA'
_DATA	ENDS
;	COMDAT ??_R0?AV?$numpunct@_W@std@@@8
_DATA	SEGMENT DWORD USE32 PUBLIC 'DATA'
_DATA	ENDS
;	COMDAT ??_R0?AV?$numpunct@D@std@@@8
_DATA	SEGMENT DWORD USE32 PUBLIC 'DATA'
_DATA	ENDS
;	COMDAT ??_R4IData@@6B@
rdata$r	SEGMENT DWORD USE32 PUBLIC 'CONST'
rdata$r	ENDS
;	COMDAT ?Create@CDialog@@UAEHIPAVCWnd@@@Z
_TEXT	SEGMENT PARA USE32 PUBLIC 'CODE'
_TEXT	ENDS
;	COMDAT ?EndModalState@CWnd@@UAEXXZ
_TEXT	SEGMENT PARA USE32 PUBLIC 'CODE'
_TEXT	ENDS
;	COMDAT ?BeginModalState@CWnd@@UAEXXZ
_TEXT	SEGMENT PARA USE32 PUBLIC 'CODE'
_TEXT	ENDS
;	COMDAT ?DoDataExchange@CWnd@@MAEXPAVCDataExchange@@@Z
_TEXT	SEGMENT PARA USE32 PUBLIC 'CODE'
_TEXT	ENDS
;	COMDAT ?Dump@CObject@@UBEXAAVCDumpContext@@@Z
_TEXT	SEGMENT PARA USE32 PUBLIC 'CODE'
_TEXT	ENDS
;	COMDAT ?AssertValid@CObject@@UBEXXZ
_TEXT	SEGMENT PARA USE32 PUBLIC 'CODE'
_TEXT	ENDS
;	COMDAT ?Serialize@CObject@@UAEXAAVCArchive@@@Z
_TEXT	SEGMENT PARA USE32 PUBLIC 'CODE'
_TEXT	ENDS
;	COMDAT ??_R4CHostWnd@@6B@
rdata$r	SEGMENT DWORD USE32 PUBLIC 'CONST'
rdata$r	ENDS
;	COMDAT ??0?$allocator@_W@std@@QAE@XZ
_TEXT	SEGMENT PARA USE32 PUBLIC 'CODE'
_TEXT	ENDS
;	COMDAT ??0?$allocator@D@std@@QAE@ABV01@@Z
_TEXT	SEGMENT PARA USE32 PUBLIC 'CODE'
_TEXT	ENDS
;	COMDAT ??0?$allocator@D@std@@QAE@XZ
_TEXT	SEGMENT PARA USE32 PUBLIC 'CODE'
_TEXT	ENDS
;	COMDAT ?deallocate@?$allocator@D@std@@QAEXPADI@Z
_TEXT	SEGMENT PARA USE32 PUBLIC 'CODE'
_TEXT	ENDS
;	COMDAT ?max_size@?$allocator@D@std@@QBEIXZ
_TEXT	SEGMENT PARA USE32 PUBLIC 'CODE'
_TEXT	ENDS
;	COMDAT ?allocate@?$allocator@D@std@@QAEPADI@Z
_TEXT	SEGMENT PARA USE32 PUBLIC 'CODE'
_TEXT	ENDS
;	COMDAT ??$_Allocate@D@std@@YAPADIPAD@Z
_TEXT	SEGMENT PARA USE32 PUBLIC 'CODE'
_TEXT	ENDS
;	COMDAT ??_G?$numpunct@_W@std@@MAEPAXI@Z
_TEXT	SEGMENT PARA USE32 PUBLIC 'CODE'
_TEXT	ENDS
;	COMDAT ??_R4?$numpunct@_W@std@@6B@
rdata$r	SEGMENT DWORD USE32 PUBLIC 'CONST'
rdata$r	ENDS
;	COMDAT ??_G?$numpunct@D@std@@MAEPAXI@Z
_TEXT	SEGMENT PARA USE32 PUBLIC 'CODE'
_TEXT	ENDS
;	COMDAT ??_R4?$numpunct@D@std@@6B@
rdata$r	SEGMENT DWORD USE32 PUBLIC 'CONST'
rdata$r	ENDS
;	COMDAT ?_Psave@?$_Facetptr@V?$numpunct@_W@std@@@std@@2PBVfacet@locale@2@B
_DATA	SEGMENT DWORD USE32 PUBLIC 'DATA'
_DATA	ENDS
;	COMDAT ?_Psave@?$_Facetptr@V?$numpunct@D@std@@@std@@2PBVfacet@locale@2@B
_DATA	SEGMENT DWORD USE32 PUBLIC 'DATA'
_DATA	ENDS
;	COMDAT ?Unlock@CComCriticalSection@ATL@@QAEJXZ
_TEXT	SEGMENT PARA USE32 PUBLIC 'CODE'
_TEXT	ENDS
;	COMDAT ?_Psave@?$_Facetptr@V?$ctype@_W@std@@@std@@2PBVfacet@locale@2@B
_DATA	SEGMENT DWORD USE32 PUBLIC 'DATA'
_DATA	ENDS
;	COMDAT ?_Psave@?$_Facetptr@V?$ctype@D@std@@@std@@2PBVfacet@locale@2@B
_DATA	SEGMENT DWORD USE32 PUBLIC 'DATA'
_DATA	ENDS
;	COMDAT ??$_Maklocchr@_W@std@@YA_WDPA_WABU_Cvtvec@@@Z
_TEXT	SEGMENT PARA USE32 PUBLIC 'CODE'
_TEXT	ENDS
;	COMDAT ??$_Maklocstr@_W@std@@YAPA_WPBDPA_WABU_Cvtvec@@@Z
_TEXT	SEGMENT PARA USE32 PUBLIC 'CODE'
_TEXT	ENDS
;	COMDAT ??$_Maklocchr@D@std@@YADDPADABU_Cvtvec@@@Z
_TEXT	SEGMENT PARA USE32 PUBLIC 'CODE'
_TEXT	ENDS
;	COMDAT ??_C@_04LOAJBDKD@true?$AA@
CONST	SEGMENT DWORD USE32 PUBLIC 'CONST'
CONST	ENDS
;	COMDAT ??_C@_05LAPONLG@false?$AA@
CONST	SEGMENT DWORD USE32 PUBLIC 'CONST'
CONST	ENDS
;	COMDAT _wmemcpy
_TEXT	SEGMENT PARA USE32 PUBLIC 'CODE'
_TEXT	ENDS
;	COMDAT ?max_size@?$allocator@_W@std@@QBEIXZ
_TEXT	SEGMENT PARA USE32 PUBLIC 'CODE'
_TEXT	ENDS
;	COMDAT ?allocate@?$allocator@_W@std@@QAEPA_WI@Z
_TEXT	SEGMENT PARA USE32 PUBLIC 'CODE'
_TEXT	ENDS
;	COMDAT ??$_Allocate@_W@std@@YAPA_WIPA_W@Z
_TEXT	SEGMENT PARA USE32 PUBLIC 'CODE'
_TEXT	ENDS
;	COMDAT ??_C@_01GFHCPBMG@C?$AA@
CONST	SEGMENT DWORD USE32 PUBLIC 'CONST'
CONST	ENDS
;	COMDAT ?_Peek@?$istreambuf_iterator@_WU?$char_traits@_W@std@@@std@@AAE_WXZ
_TEXT	SEGMENT PARA USE32 PUBLIC 'CODE'
_TEXT	ENDS
;	COMDAT ?_Peek@?$istreambuf_iterator@DU?$char_traits@D@std@@@std@@AAEDXZ
_TEXT	SEGMENT PARA USE32 PUBLIC 'CODE'
_TEXT	ENDS
;	COMDAT ??$use_facet@V?$ctype@_W@std@@@std@@YAABV?$ctype@_W@0@ABVlocale@0@@Z
_TEXT	SEGMENT PARA USE32 PUBLIC 'CODE'
_TEXT	ENDS
;	COMDAT ??_S?$ctype@_W@std@@6B@
CONST	SEGMENT DWORD USE32 PUBLIC 'CONST'
CONST	ENDS
;	COMDAT ??_R4?$ctype@_W@std@@6B@
rdata$r	SEGMENT DWORD USE32 PUBLIC 'CONST'
rdata$r	ENDS
;	COMDAT ??_R0?AV?$ctype@_W@std@@@8
_DATA	SEGMENT DWORD USE32 PUBLIC 'DATA'
_DATA	ENDS
;	COMDAT ??_R3?$ctype@_W@std@@8
rdata$r	SEGMENT DWORD USE32 PUBLIC 'CONST'
rdata$r	ENDS
;	COMDAT ??_R2?$ctype@_W@std@@8
rdata$r	SEGMENT DWORD USE32 PUBLIC 'CONST'
rdata$r	ENDS
;	COMDAT ??_R1A@?0A@A@?$ctype@_W@std@@8
rdata$r	SEGMENT DWORD USE32 PUBLIC 'CONST'
rdata$r	ENDS
;	COMDAT ??_R1A@?0A@A@ctype_base@std@@8
rdata$r	SEGMENT DWORD USE32 PUBLIC 'CONST'
rdata$r	ENDS
;	COMDAT ??_R0?AUctype_base@std@@@8
_DATA	SEGMENT DWORD USE32 PUBLIC 'DATA'
_DATA	ENDS
;	COMDAT ??_G?$ctype@_W@std@@MAEPAXI@Z
_TEXT	SEGMENT PARA USE32 PUBLIC 'CODE'
_TEXT	ENDS
;	COMDAT ??_C@_08EPJLHIJG@bad?5cast?$AA@
CONST	SEGMENT DWORD USE32 PUBLIC 'CONST'
CONST	ENDS
;	COMDAT __TI2?AVbad_cast@@
xdata$x	SEGMENT DWORD USE32 PUBLIC 'CONST'
xdata$x	ENDS
;	COMDAT __CTA2?AVbad_cast@@
xdata$x	SEGMENT DWORD USE32 PUBLIC 'CONST'
xdata$x	ENDS
;	COMDAT __CT??_R0?AVbad_cast@@@8??0bad_cast@@QAE@ABV0@@Z12
xdata$x	SEGMENT DWORD USE32 PUBLIC 'CONST'
xdata$x	ENDS
;	COMDAT ??_R0?AVbad_cast@@@8
_DATA	SEGMENT DWORD USE32 PUBLIC 'DATA'
_DATA	ENDS
;	COMDAT __CT??_R0?AVexception@@@8??0exception@@QAE@ABV0@@Z12
xdata$x	SEGMENT DWORD USE32 PUBLIC 'CONST'
xdata$x	ENDS
;	COMDAT ??_R0?AVexception@@@8
_DATA	SEGMENT DWORD USE32 PUBLIC 'DATA'
_DATA	ENDS
;	COMDAT ??$use_facet@V?$ctype@D@std@@@std@@YAABV?$ctype@D@0@ABVlocale@0@@Z
_TEXT	SEGMENT PARA USE32 PUBLIC 'CODE'
_TEXT	ENDS
;	COMDAT ??_S?$ctype@D@std@@6B@
CONST	SEGMENT DWORD USE32 PUBLIC 'CONST'
CONST	ENDS
;	COMDAT ??_R4?$ctype@D@std@@6B@
rdata$r	SEGMENT DWORD USE32 PUBLIC 'CONST'
rdata$r	ENDS
;	COMDAT ??_R0?AV?$ctype@D@std@@@8
_DATA	SEGMENT DWORD USE32 PUBLIC 'DATA'
_DATA	ENDS
;	COMDAT ??_R3?$ctype@D@std@@8
rdata$r	SEGMENT DWORD USE32 PUBLIC 'CONST'
rdata$r	ENDS
;	COMDAT ??_R2?$ctype@D@std@@8
rdata$r	SEGMENT DWORD USE32 PUBLIC 'CONST'
rdata$r	ENDS
;	COMDAT ??_R1A@?0A@A@?$ctype@D@std@@8
rdata$r	SEGMENT DWORD USE32 PUBLIC 'CONST'
rdata$r	ENDS
;	COMDAT ??_G?$ctype@D@std@@MAEPAXI@Z
_TEXT	SEGMENT PARA USE32 PUBLIC 'CODE'
_TEXT	ENDS
;	COMDAT ??_S?$numpunct@_W@std@@6B@
CONST	SEGMENT DWORD USE32 PUBLIC 'CONST'
CONST	ENDS
;	COMDAT ??_S?$numpunct@D@std@@6B@
CONST	SEGMENT DWORD USE32 PUBLIC 'CONST'
CONST	ENDS
;	COMDAT _wmemmove
_TEXT	SEGMENT PARA USE32 PUBLIC 'CODE'
_TEXT	ENDS
;	COMDAT ?deallocate@?$allocator@_W@std@@QAEXPA_WI@Z
_TEXT	SEGMENT PARA USE32 PUBLIC 'CODE'
_TEXT	ENDS
;	COMDAT ??0?$allocator@_W@std@@QAE@ABV01@@Z
_TEXT	SEGMENT PARA USE32 PUBLIC 'CODE'
_TEXT	ENDS
;	COMDAT ?OnWindowPosChanged@CWnd@@IAEXPAUtagWINDOWPOS@@@Z
_TEXT	SEGMENT PARA USE32 PUBLIC 'CODE'
_TEXT	ENDS
;	COMDAT ?IsWindowVisible@CWnd@@QBEHXZ
_TEXT	SEGMENT PARA USE32 PUBLIC 'CODE'
_TEXT	ENDS
;	COMDAT ?PatBlt@CDC@@QAEHHHHHK@Z
_TEXT	SEGMENT PARA USE32 PUBLIC 'CODE'
_TEXT	ENDS
;	COMDAT ??1CBrush@@UAE@XZ
_TEXT	SEGMENT PARA USE32 PUBLIC 'CODE'
_TEXT	ENDS
;	COMDAT ??_7CBrush@@6B@
CONST	SEGMENT DWORD USE32 PUBLIC 'CONST'
CONST	ENDS
;	COMDAT ??_R4CBrush@@6B@
rdata$r	SEGMENT DWORD USE32 PUBLIC 'CONST'
rdata$r	ENDS
;	COMDAT ??_R0?AVCBrush@@@8
_DATA	SEGMENT DWORD USE32 PUBLIC 'DATA'
_DATA	ENDS
;	COMDAT ??_R3CBrush@@8
rdata$r	SEGMENT DWORD USE32 PUBLIC 'CONST'
rdata$r	ENDS
;	COMDAT ??_R2CBrush@@8
rdata$r	SEGMENT DWORD USE32 PUBLIC 'CONST'
rdata$r	ENDS
;	COMDAT ??_R1A@?0A@A@CBrush@@8
rdata$r	SEGMENT DWORD USE32 PUBLIC 'CONST'
rdata$r	ENDS
;	COMDAT ??_R1A@?0A@A@CGdiObject@@8
rdata$r	SEGMENT DWORD USE32 PUBLIC 'CONST'
rdata$r	ENDS
;	COMDAT ??_R0?AVCGdiObject@@@8
_DATA	SEGMENT DWORD USE32 PUBLIC 'DATA'
_DATA	ENDS
;	COMDAT ??_GCBrush@@UAEPAXI@Z
_TEXT	SEGMENT PARA USE32 PUBLIC 'CODE'
_TEXT	ENDS
;	COMDAT ??1CGdiObject@@UAE@XZ
_TEXT	SEGMENT PARA USE32 PUBLIC 'CODE'
_TEXT	ENDS
;	COMDAT ??_7CGdiObject@@6B@
CONST	SEGMENT DWORD USE32 PUBLIC 'CONST'
CONST	ENDS
;	COMDAT ??_R4CGdiObject@@6B@
rdata$r	SEGMENT DWORD USE32 PUBLIC 'CONST'
rdata$r	ENDS
;	COMDAT ??_R3CGdiObject@@8
rdata$r	SEGMENT DWORD USE32 PUBLIC 'CONST'
rdata$r	ENDS
;	COMDAT ??_R2CGdiObject@@8
rdata$r	SEGMENT DWORD USE32 PUBLIC 'CONST'
rdata$r	ENDS
;	COMDAT ??_GCGdiObject@@UAEPAXI@Z
_TEXT	SEGMENT PARA USE32 PUBLIC 'CODE'
_TEXT	ENDS
;	COMDAT ??1CObject@@UAE@XZ
_TEXT	SEGMENT PARA USE32 PUBLIC 'CODE'
_TEXT	ENDS
;	COMDAT ?LoadBitmapA@CBitmap@@QAEHI@Z
_TEXT	SEGMENT PARA USE32 PUBLIC 'CODE'
_TEXT	ENDS
;	COMDAT ??1CBitmap@@UAE@XZ
_TEXT	SEGMENT PARA USE32 PUBLIC 'CODE'
_TEXT	ENDS
;	COMDAT ??_7CBitmap@@6B@
CONST	SEGMENT DWORD USE32 PUBLIC 'CONST'
CONST	ENDS
;	COMDAT ??_R4CBitmap@@6B@
rdata$r	SEGMENT DWORD USE32 PUBLIC 'CONST'
rdata$r	ENDS
;	COMDAT ??_R0?AVCBitmap@@@8
_DATA	SEGMENT DWORD USE32 PUBLIC 'DATA'
_DATA	ENDS
;	COMDAT ??_R3CBitmap@@8
rdata$r	SEGMENT DWORD USE32 PUBLIC 'CONST'
rdata$r	ENDS
;	COMDAT ??_R2CBitmap@@8
rdata$r	SEGMENT DWORD USE32 PUBLIC 'CONST'
rdata$r	ENDS
;	COMDAT ??_R1A@?0A@A@CBitmap@@8
rdata$r	SEGMENT DWORD USE32 PUBLIC 'CONST'
rdata$r	ENDS
;	COMDAT ??_GCBitmap@@UAEPAXI@Z
_TEXT	SEGMENT PARA USE32 PUBLIC 'CODE'
_TEXT	ENDS
;	COMDAT ??0CBitmap@@QAE@XZ
_TEXT	SEGMENT PARA USE32 PUBLIC 'CODE'
_TEXT	ENDS
;	COMDAT ??0CGdiObject@@QAE@XZ
_TEXT	SEGMENT PARA USE32 PUBLIC 'CODE'
_TEXT	ENDS
;	COMDAT ??0CObject@@IAE@XZ
_TEXT	SEGMENT PARA USE32 PUBLIC 'CODE'
_TEXT	ENDS
;	COMDAT ?SetParent@CWnd@@QAEPAV1@PAV1@@Z
_TEXT	SEGMENT PARA USE32 PUBLIC 'CODE'
_TEXT	ENDS
;	COMDAT ?GetSafeHwnd@CWnd@@QBEPAUHWND__@@XZ
_TEXT	SEGMENT PARA USE32 PUBLIC 'CODE'
_TEXT	ENDS
;	COMDAT ?GetParent@CWnd@@QBEPAV1@XZ
_TEXT	SEGMENT PARA USE32 PUBLIC 'CODE'
_TEXT	ENDS
;	COMDAT ?OnEraseBkgnd@CWnd@@IAEHPAVCDC@@@Z
_TEXT	SEGMENT PARA USE32 PUBLIC 'CODE'
_TEXT	ENDS
;	COMDAT ?RedrawWindow@CWnd@@QAEHPBUtagRECT@@PAVCRgn@@I@Z
_TEXT	SEGMENT PARA USE32 PUBLIC 'CODE'
_TEXT	ENDS
;	COMDAT ?GetSafeHandle@CGdiObject@@QBEPAXXZ
_TEXT	SEGMENT PARA USE32 PUBLIC 'CODE'
_TEXT	ENDS
;	COMDAT ?ReleaseDC@CWnd@@QAEHPAVCDC@@@Z
_TEXT	SEGMENT PARA USE32 PUBLIC 'CODE'
_TEXT	ENDS
;	COMDAT ?GetDC@CWnd@@QAEPAVCDC@@XZ
_TEXT	SEGMENT PARA USE32 PUBLIC 'CODE'
_TEXT	ENDS
;	COMDAT ?OnSize@CWnd@@IAEXIHH@Z
_TEXT	SEGMENT PARA USE32 PUBLIC 'CODE'
_TEXT	ENDS
;	COMDAT ?OnMouseMove@CWnd@@IAEXIVCPoint@@@Z
_TEXT	SEGMENT PARA USE32 PUBLIC 'CODE'
_TEXT	ENDS
;	COMDAT ?MoveWindow@CWnd@@QAEXPBUtagRECT@@H@Z
_TEXT	SEGMENT PARA USE32 PUBLIC 'CODE'
_TEXT	ENDS
;	COMDAT ?Width@CRect@@QBEHXZ
_TEXT	SEGMENT PARA USE32 PUBLIC 'CODE'
_TEXT	ENDS
;	COMDAT ?Height@CRect@@QBEHXZ
_TEXT	SEGMENT PARA USE32 PUBLIC 'CODE'
_TEXT	ENDS
;	COMDAT ??BCRect@@QAEPAUtagRECT@@XZ
_TEXT	SEGMENT PARA USE32 PUBLIC 'CODE'
_TEXT	ENDS
;	COMDAT ?GetWindowRect@CWnd@@QBEXPAUtagRECT@@@Z
_TEXT	SEGMENT PARA USE32 PUBLIC 'CODE'
_TEXT	ENDS
;	COMDAT ?ClientToScreen@CWnd@@QBEXPAUtagPOINT@@@Z
_TEXT	SEGMENT PARA USE32 PUBLIC 'CODE'
_TEXT	ENDS
;	COMDAT ?SetCapture@CWnd@@QAEPAV1@XZ
_TEXT	SEGMENT PARA USE32 PUBLIC 'CODE'
_TEXT	ENDS
;	COMDAT ?IsLocked@CStringData@ATL@@QBE_NXZ
_TEXT	SEGMENT PARA USE32 PUBLIC 'CODE'
_TEXT	ENDS
;	COMDAT ?AddRef@CStringData@ATL@@QAEXXZ
_TEXT	SEGMENT PARA USE32 PUBLIC 'CODE'
_TEXT	ENDS
;	COMDAT ?AtlThrow@ATL@@YGXJ@Z
_TEXT	SEGMENT PARA USE32 PUBLIC 'CODE'
_TEXT	ENDS
;	COMDAT ?data@CStringData@ATL@@QAEPAXXZ
_TEXT	SEGMENT PARA USE32 PUBLIC 'CODE'
_TEXT	ENDS
;	COMDAT ?Release@CStringData@ATL@@QAEXXZ
_TEXT	SEGMENT PARA USE32 PUBLIC 'CODE'
_TEXT	ENDS
;	COMDAT ?GetDefaultManager@?$StrTraitMFC_DLL@DV?$ChTraitsCRT@D@ATL@@@@SAPAUIAtlStringMgr@ATL@@XZ
_TEXT	SEGMENT PARA USE32 PUBLIC 'CODE'
_TEXT	ENDS
;	COMDAT ?FindStringResourceInstance@?$StrTraitMFC_DLL@DV?$ChTraitsCRT@D@ATL@@@@SAPAUHINSTANCE__@@I@Z
_TEXT	SEGMENT PARA USE32 PUBLIC 'CODE'
_TEXT	ENDS
;	COMDAT ?AtlGetStringResourceImage@ATL@@YAPBUATLSTRINGRESOURCEIMAGE@1@PAUHINSTANCE__@@I@Z
_TEXT	SEGMENT PARA USE32 PUBLIC 'CODE'
_TEXT	ENDS
;	COMDAT ?_AtlGetStringResourceImage@ATL@@YAPBUATLSTRINGRESOURCEIMAGE@1@PAUHINSTANCE__@@PAUHRSRC__@@I@Z
_TEXT	SEGMENT PARA USE32 PUBLIC 'CODE'
_TEXT	ENDS
;	COMDAT ?GetBaseTypeLength@?$ChTraitsCRT@D@ATL@@SAHPB_WH@Z
_TEXT	SEGMENT PARA USE32 PUBLIC 'CODE'
_TEXT	ENDS
;	COMDAT ?_AtlGetConversionACP@ATL@@YGIXZ
_TEXT	SEGMENT PARA USE32 PUBLIC 'CODE'
_TEXT	ENDS
;	COMDAT ?g_pfnGetThreadACP@ATL@@3P6GIXZA
_DATA	SEGMENT DWORD USE32 PUBLIC 'DATA'
_DATA	ENDS
;	COMDAT ?_AtlGetThreadACPThunk@ATL@@YGIXZ
_TEXT	SEGMENT PARA USE32 PUBLIC 'CODE'
_TEXT	ENDS
;	COMDAT ?_AtlGetThreadACPReal@ATL@@YGIXZ
_TEXT	SEGMENT PARA USE32 PUBLIC 'CODE'
_TEXT	ENDS
;	COMDAT ?_AtlGetThreadACPFake@ATL@@YGIXZ
_TEXT	SEGMENT PARA USE32 PUBLIC 'CODE'
_TEXT	ENDS
;	COMDAT ?InterlockedExchangePointer@@YGPAXPAPAXPAX@Z
_TEXT	SEGMENT PARA USE32 PUBLIC 'CODE'
_TEXT	ENDS
;	COMDAT ?IsShared@CStringData@ATL@@QBE_NXZ
_TEXT	SEGMENT PARA USE32 PUBLIC 'CODE'
_TEXT	ENDS
;	COMDAT ?ConvertToBaseType@?$ChTraitsCRT@D@ATL@@SAXPADHPB_WH@Z
_TEXT	SEGMENT PARA USE32 PUBLIC 'CODE'
_TEXT	ENDS
;	COMDAT ??0CRect@@QAE@HHHH@Z
_TEXT	SEGMENT PARA USE32 PUBLIC 'CODE'
_TEXT	ENDS
;	COMDAT ?_messageEntries@CHostWnd@@0QBUAFX_MSGMAP_ENTRY@@B
CONST	SEGMENT DWORD USE32 PUBLIC 'CONST'
CONST	ENDS
;	COMDAT ?messageMap@CHostWnd@@1UAFX_MSGMAP@@B
CONST	SEGMENT DWORD USE32 PUBLIC 'CONST'
CONST	ENDS
;	COMDAT ??3CObject@@SGXPAX@Z
_TEXT	SEGMENT PARA USE32 PUBLIC 'CODE'
_TEXT	ENDS
;	COMDAT ??0CRect@@QAE@XZ
_TEXT	SEGMENT PARA USE32 PUBLIC 'CODE'
_TEXT	ENDS
;	COMDAT ??0CPoint@@QAE@XZ
_TEXT	SEGMENT PARA USE32 PUBLIC 'CODE'
_TEXT	ENDS
;	COMDAT ??_7CHostWnd@@6B@
CONST	SEGMENT DWORD USE32 PUBLIC 'CONST'
CONST	ENDS
;	COMDAT ??_7IData@@6B@
CONST	SEGMENT DWORD USE32 PUBLIC 'CONST'
CONST	ENDS
sxdata	SEGMENT DWORD USE32 'SXDATA'
sxdata	ENDS
FLAT	GROUP _DATA, CONST, _BSS
	ASSUME	CS: FLAT, DS: FLAT, SS: FLAT
endif

INCLUDELIB MSVCRT
INCLUDELIB OLDNAMES

PUBLIC	?_messageEntries@CHostWnd@@0QBUAFX_MSGMAP_ENTRY@@B ; CHostWnd::_messageEntries
PUBLIC	?messageMap@CHostWnd@@1UAFX_MSGMAP@@B		; CHostWnd::messageMap
PUBLIC	?OnLButtonDown@CHostWnd@@IAEXIVCPoint@@@Z	; CHostWnd::OnLButtonDown
PUBLIC	?OnLButtonUp@CHostWnd@@IAEXIVCPoint@@@Z		; CHostWnd::OnLButtonUp
PUBLIC	?OnMouseMove@CHostWnd@@IAEXIVCPoint@@@Z		; CHostWnd::OnMouseMove
PUBLIC	?OnPaint@CHostWnd@@IAEXXZ			; CHostWnd::OnPaint
PUBLIC	?OnSize@CHostWnd@@IAEXIHH@Z			; CHostWnd::OnSize
PUBLIC	?OnBnClickedClose@CHostWnd@@IAEXXZ		; CHostWnd::OnBnClickedClose
PUBLIC	?OnEraseBkgnd@CHostWnd@@IAEHPAVCDC@@@Z		; CHostWnd::OnEraseBkgnd
PUBLIC	?OnBnClickedOk@CHostWnd@@IAEXXZ			; CHostWnd::OnBnClickedOk
PUBLIC	?OnWindowPosChanged@CHostWnd@@QAEXPAUtagWINDOWPOS@@@Z ; CHostWnd::OnWindowPosChanged
PUBLIC	?g_pfnGetThreadACP@ATL@@3P6GIXZA		; ATL::g_pfnGetThreadACP
PUBLIC	?_AtlGetThreadACPThunk@ATL@@YGIXZ		; ATL::_AtlGetThreadACPThunk
EXTRN	?GetThisMessageMap@CDialog@@KGPBUAFX_MSGMAP@@XZ:NEAR ; CDialog::GetThisMessageMap
CONST	SEGMENT
$SG198396 DB	00H
CONST	ENDS
;	COMDAT ?_messageEntries@CHostWnd@@0QBUAFX_MSGMAP_ENTRY@@B
CONST	SEGMENT
?_messageEntries@CHostWnd@@0QBUAFX_MSGMAP_ENTRY@@B DD 0202H ; CHostWnd::_messageEntries
	DD	00H
	DD	00H
	DD	00H
	DD	032H
	DD	FLAT:?OnLButtonUp@CHostWnd@@IAEXIVCPoint@@@Z
	DD	0201H
	DD	00H
	DD	00H
	DD	00H
	DD	032H
	DD	FLAT:?OnLButtonDown@CHostWnd@@IAEXIVCPoint@@@Z
	DD	0111H
	DD	00H
	DD	09H
	DD	09H
	DD	035H
	DD	FLAT:?OnBnClickedClose@CHostWnd@@IAEXXZ
	DD	0200H
	DD	00H
	DD	00H
	DD	00H
	DD	032H
	DD	FLAT:?OnMouseMove@CHostWnd@@IAEXIVCPoint@@@Z
	DD	0fH
	DD	00H
	DD	00H
	DD	00H
	DD	010H
	DD	FLAT:?OnPaint@CHostWnd@@IAEXXZ
	DD	05H
	DD	00H
	DD	00H
	DD	00H
	DD	016H
	DD	FLAT:?OnSize@CHostWnd@@IAEXIHH@Z
	DD	0111H
	DD	00H
	DD	01H
	DD	01H
	DD	035H
	DD	FLAT:?OnBnClickedOk@CHostWnd@@IAEXXZ
	DD	014H
	DD	00H
	DD	00H
	DD	00H
	DD	01H
	DD	FLAT:?OnEraseBkgnd@CHostWnd@@IAEHPAVCDC@@@Z
	DD	047H
	DD	00H
	DD	00H
	DD	00H
	DD	030H
	DD	FLAT:?OnWindowPosChanged@CHostWnd@@QAEXPAUtagWINDOWPOS@@@Z
	DD	00H
	DD	00H
	DD	00H
	DD	00H
	DD	00H
	DD	00H
CONST	ENDS
;	COMDAT ?messageMap@CHostWnd@@1UAFX_MSGMAP@@B
CONST	SEGMENT
?messageMap@CHostWnd@@1UAFX_MSGMAP@@B DD FLAT:?GetThisMessageMap@CDialog@@KGPBUAFX_MSGMAP@@XZ ; CHostWnd::messageMap
	DD	FLAT:?_messageEntries@CHostWnd@@0QBUAFX_MSGMAP_ENTRY@@B
CONST	ENDS
CONST	SEGMENT
$SG198457 DB	00H
	ORG $+2
$SG198459 DB	'Close', 00H
$SG198462 DB	00H
$SG198465 DB	00H
$SG198468 DB	'sizeXMin', 00H
	ORG $+3
$SG198471 DB	'sizeYMin', 00H
$SG198537 DB	00H
$SG198549 DB	00H
$SG198569 DB	00H
CONST	ENDS
;	COMDAT ?g_pfnGetThreadACP@ATL@@3P6GIXZA
_DATA	SEGMENT
?g_pfnGetThreadACP@ATL@@3P6GIXZA DD FLAT:?_AtlGetThreadACPThunk@ATL@@YGIXZ ; ATL::g_pfnGetThreadACP
_DATA	ENDS
PUBLIC	?_needChangeCursor@CHostWnd@@MAE_NABVCPoint@@@Z	; CHostWnd::_needChangeCursor
PUBLIC	??0CHostWnd@@QAE@PAVCWnd@@@Z			; CHostWnd::CHostWnd
PUBLIC	?GetMessageMap@CHostWnd@@MBEPBUAFX_MSGMAP@@XZ	; CHostWnd::GetMessageMap
PUBLIC	?OnInitDialog@CHostWnd@@MAEHXZ			; CHostWnd::OnInitDialog
PUBLIC	??0CPoint@@QAE@XZ				; CPoint::CPoint
PUBLIC	?OnOK@CHostWnd@@MAEXXZ				; CHostWnd::OnOK
PUBLIC	?OnCancel@CHostWnd@@MAEXXZ			; CHostWnd::OnCancel
PUBLIC	?PreTranslateMessage@CHostWnd@@UAEHPAUtagMSG@@@Z ; CHostWnd::PreTranslateMessage
PUBLIC	??_7CHostWnd@@6B@				; CHostWnd::`vftable'
PUBLIC	??_GCHostWnd@@UAEPAXI@Z				; CHostWnd::`scalar deleting destructor'
PUBLIC	??0CRect@@QAE@XZ				; CRect::CRect
PUBLIC	?Create@CDialog@@UAEHIPAVCWnd@@@Z		; CDialog::Create
PUBLIC	??_R4CHostWnd@@6B@				; CHostWnd::`RTTI Complete Object Locator'
PUBLIC	??_R0?AVCHostWnd@@@8				; CHostWnd `RTTI Type Descriptor'
PUBLIC	??_R3CHostWnd@@8				; CHostWnd::`RTTI Class Hierarchy Descriptor'
PUBLIC	??_R2CHostWnd@@8				; CHostWnd::`RTTI Base Class Array'
PUBLIC	??_R1A@?0A@A@CHostWnd@@8			; CHostWnd::`RTTI Base Class Descriptor at (0,-1,0,0)'
PUBLIC	??_R1A@?0A@A@CObject@@8				; CObject::`RTTI Base Class Descriptor at (0,-1,0,0)'
PUBLIC	??_R0?AVCObject@@@8				; CObject `RTTI Type Descriptor'
PUBLIC	??_R1A@?0A@A@CWnd@@8				; CWnd::`RTTI Base Class Descriptor at (0,-1,0,0)'
PUBLIC	??_R0?AVCWnd@@@8				; CWnd `RTTI Type Descriptor'
PUBLIC	??_R1A@?0A@A@CCmdTarget@@8			; CCmdTarget::`RTTI Base Class Descriptor at (0,-1,0,0)'
PUBLIC	??_R0?AVCCmdTarget@@@8				; CCmdTarget `RTTI Type Descriptor'
PUBLIC	??_R1A@?0A@A@CDialog@@8				; CDialog::`RTTI Base Class Descriptor at (0,-1,0,0)'
PUBLIC	??_R0?AVCDialog@@@8				; CDialog `RTTI Type Descriptor'
PUBLIC	?Serialize@CObject@@UAEXAAVCArchive@@@Z		; CObject::Serialize
PUBLIC	?AssertValid@CObject@@UBEXXZ			; CObject::AssertValid
PUBLIC	?Dump@CObject@@UBEXAAVCDumpContext@@@Z		; CObject::Dump
PUBLIC	?DoDataExchange@CWnd@@MAEXPAVCDataExchange@@@Z	; CWnd::DoDataExchange
PUBLIC	?BeginModalState@CWnd@@UAEXXZ			; CWnd::BeginModalState
PUBLIC	?EndModalState@CWnd@@UAEXXZ			; CWnd::EndModalState
EXTRN	?CreateControlContainer@CWnd@@MAEHPAPAVCOleControlContainer@@@Z:NEAR ; CWnd::CreateControlContainer
EXTRN	?CreateControlSite@CWnd@@MAEHPAVCOleControlContainer@@PAPAVCOleControlSite@@IABU_GUID@@@Z:NEAR ; CWnd::CreateControlSite
EXTRN	??_ECHostWnd@@UAEPAXI@Z:NEAR			; CHostWnd::`vector deleting destructor'
EXTRN	?GetRuntimeClass@CDialog@@UBEPAUCRuntimeClass@@XZ:NEAR ; CDialog::GetRuntimeClass
EXTRN	?Create@CDialog@@UAEHPBDPAVCWnd@@@Z:NEAR	; CDialog::Create
EXTRN	?CreateIndirect@CDialog@@UAEHPBUDLGTEMPLATE@@PAVCWnd@@PAX@Z:NEAR ; CDialog::CreateIndirect
EXTRN	?CreateIndirect@CDialog@@UAEHPAXPAVCWnd@@@Z:NEAR ; CDialog::CreateIndirect
EXTRN	?OnToolHitTest@CWnd@@UBEHVCPoint@@PAUtagTOOLINFOA@@@Z:NEAR ; CWnd::OnToolHitTest
EXTRN	??0CDialog@@QAE@IPAVCWnd@@@Z:NEAR		; CDialog::CDialog
EXTRN	?DoModal@CDialog@@UAEHXZ:NEAR			; CDialog::DoModal
EXTRN	?OnSetFont@CDialog@@UAEXPAVCFont@@@Z:NEAR	; CDialog::OnSetFont
EXTRN	??1CDialog@@UAE@XZ:NEAR				; CDialog::~CDialog
EXTRN	?OnCmdMsg@CDialog@@UAEHIHPAXPAUAFX_CMDHANDLERINFO@@@Z:NEAR ; CDialog::OnCmdMsg
EXTRN	?CheckAutoCenter@CDialog@@UAEHXZ:NEAR		; CDialog::CheckAutoCenter
EXTRN	?SetOccDialogInfo@CDialog@@MAEHPAU_AFX_OCC_DIALOG_INFO@@@Z:NEAR ; CDialog::SetOccDialogInfo
EXTRN	?PreInitDialog@CDialog@@MAEXXZ:NEAR		; CDialog::PreInitDialog
EXTRN	__imp_??0?$CStringT@DV?$StrTraitMFC_DLL@DV?$ChTraitsCRT@D@ATL@@@@@ATL@@QAE@XZ:NEAR
EXTRN	?GetScrollBarCtrl@CWnd@@UBEPAVCScrollBar@@H@Z:NEAR ; CWnd::GetScrollBarCtrl
EXTRN	__imp_??1?$CStringT@DV?$StrTraitMFC_DLL@DV?$ChTraitsCRT@D@ATL@@@@@ATL@@QAE@XZ:NEAR
EXTRN	__imp_??4?$CStringT@DV?$StrTraitMFC_DLL@DV?$ChTraitsCRT@D@ATL@@@@@ATL@@QAEAAV01@PBD@Z:NEAR
EXTRN	?WinHelpA@CWnd@@UAEXKI@Z:NEAR			; CWnd::WinHelpA
EXTRN	?HtmlHelpA@CWnd@@UAEXKI@Z:NEAR			; CWnd::HtmlHelpA
EXTRN	?WinHelpInternal@CWnd@@UAEXKI@Z:NEAR		; CWnd::WinHelpInternal
EXTRN	?ContinueModal@CWnd@@UAEHXZ:NEAR		; CWnd::ContinueModal
EXTRN	?EndModalLoop@CWnd@@UAEXH@Z:NEAR		; CWnd::EndModalLoop
EXTRN	?GetInterfaceMap@CWnd@@MBEPBUAFX_INTERFACEMAP@@XZ:NEAR ; CWnd::GetInterfaceMap
EXTRN	?EnsureStdObj@CWnd@@UAEJXZ:NEAR			; CWnd::EnsureStdObj
EXTRN	?get_accParent@CWnd@@UAEJPAPAUIDispatch@@@Z:NEAR ; CWnd::get_accParent
EXTRN	?get_accChildCount@CWnd@@UAEJPAJ@Z:NEAR		; CWnd::get_accChildCount
EXTRN	?get_accChild@CWnd@@UAEJUtagVARIANT@@PAPAUIDispatch@@@Z:NEAR ; CWnd::get_accChild
EXTRN	?IsInvokeAllowed@CCmdTarget@@UAEHJ@Z:NEAR	; CCmdTarget::IsInvokeAllowed
EXTRN	?get_accName@CWnd@@UAEJUtagVARIANT@@PAPA_W@Z:NEAR ; CWnd::get_accName
EXTRN	?get_accValue@CWnd@@UAEJUtagVARIANT@@PAPA_W@Z:NEAR ; CWnd::get_accValue
EXTRN	?get_accDescription@CWnd@@UAEJUtagVARIANT@@PAPA_W@Z:NEAR ; CWnd::get_accDescription
EXTRN	?GetDispatchIID@CCmdTarget@@UAEHPAU_GUID@@@Z:NEAR ; CCmdTarget::GetDispatchIID
EXTRN	?GetTypeInfoCount@CCmdTarget@@UAEIXZ:NEAR	; CCmdTarget::GetTypeInfoCount
EXTRN	?GetTypeLibCache@CCmdTarget@@UAEPAVCTypeLibCache@@XZ:NEAR ; CCmdTarget::GetTypeLibCache
EXTRN	?get_accRole@CWnd@@UAEJUtagVARIANT@@PAU2@@Z:NEAR ; CWnd::get_accRole
EXTRN	?GetTypeLib@CCmdTarget@@UAEJKPAPAUITypeLib@@@Z:NEAR ; CCmdTarget::GetTypeLib
EXTRN	?get_accState@CWnd@@UAEJUtagVARIANT@@PAU2@@Z:NEAR ; CWnd::get_accState
EXTRN	?get_accHelp@CWnd@@UAEJUtagVARIANT@@PAPA_W@Z:NEAR ; CWnd::get_accHelp
EXTRN	?get_accHelpTopic@CWnd@@UAEJPAPA_WUtagVARIANT@@PAJ@Z:NEAR ; CWnd::get_accHelpTopic
EXTRN	?get_accKeyboardShortcut@CWnd@@UAEJUtagVARIANT@@PAPA_W@Z:NEAR ; CWnd::get_accKeyboardShortcut
EXTRN	?get_accFocus@CWnd@@UAEJPAUtagVARIANT@@@Z:NEAR	; CWnd::get_accFocus
EXTRN	?get_accSelection@CWnd@@UAEJPAUtagVARIANT@@@Z:NEAR ; CWnd::get_accSelection
EXTRN	?get_accDefaultAction@CWnd@@UAEJUtagVARIANT@@PAPA_W@Z:NEAR ; CWnd::get_accDefaultAction
EXTRN	?GetCommandMap@CCmdTarget@@MBEPBUAFX_OLECMDMAP@@XZ:NEAR ; CCmdTarget::GetCommandMap
EXTRN	?accSelect@CWnd@@UAEJJUtagVARIANT@@@Z:NEAR	; CWnd::accSelect
EXTRN	?accLocation@CWnd@@UAEJPAJ000UtagVARIANT@@@Z:NEAR ; CWnd::accLocation
EXTRN	?GetDispatchMap@CCmdTarget@@MBEPBUAFX_DISPMAP@@XZ:NEAR ; CCmdTarget::GetDispatchMap
EXTRN	?accNavigate@CWnd@@UAEJJUtagVARIANT@@PAU2@@Z:NEAR ; CWnd::accNavigate
EXTRN	?accHitTest@CWnd@@UAEJJJPAUtagVARIANT@@@Z:NEAR	; CWnd::accHitTest
EXTRN	__except_list:DWORD
EXTRN	?GetConnectionMap@CCmdTarget@@MBEPBUAFX_CONNECTIONMAP@@XZ:NEAR ; CCmdTarget::GetConnectionMap
EXTRN	?accDoDefaultAction@CWnd@@UAEJUtagVARIANT@@@Z:NEAR ; CWnd::accDoDefaultAction
EXTRN	___CxxFrameHandler:NEAR
EXTRN	?put_accName@CWnd@@UAEJUtagVARIANT@@PA_W@Z:NEAR	; CWnd::put_accName
EXTRN	?put_accValue@CWnd@@UAEJUtagVARIANT@@PA_W@Z:NEAR ; CWnd::put_accValue
EXTRN	?SetProxy@CWnd@@UAEJPAUIAccessibleProxy@@@Z:NEAR ; CWnd::SetProxy
EXTRN	?CreateAccessibleProxy@CWnd@@UAEJIJPAJ@Z:NEAR	; CWnd::CreateAccessibleProxy
EXTRN	?GetEventSinkMap@CCmdTarget@@MBEPBUAFX_EVENTSINKMAP@@XZ:NEAR ; CCmdTarget::GetEventSinkMap
EXTRN	?OnCreateAggregates@CCmdTarget@@UAEHXZ:NEAR	; CCmdTarget::OnCreateAggregates
EXTRN	?OnCommand@CWnd@@MAEHIJ@Z:NEAR			; CWnd::OnCommand
EXTRN	?GetInterfaceHook@CCmdTarget@@UAEPAUIUnknown@@PBX@Z:NEAR ; CCmdTarget::GetInterfaceHook
EXTRN	?OnNotify@CWnd@@MAEHIJPAJ@Z:NEAR		; CWnd::OnNotify
EXTRN	?GetExtraConnectionPoints@CCmdTarget@@MAEHPAVCPtrArray@@@Z:NEAR ; CCmdTarget::GetExtraConnectionPoints
EXTRN	?GetConnectionHook@CCmdTarget@@MAEPAUIConnectionPoint@@ABU_GUID@@@Z:NEAR ; CCmdTarget::GetConnectionHook
EXTRN	?PreSubclassWindow@CWnd@@UAEXXZ:NEAR		; CWnd::PreSubclassWindow
EXTRN	?Create@CWnd@@UAEHPBD0KABUtagRECT@@PAV1@IPAUCCreateContext@@@Z:NEAR ; CWnd::Create
EXTRN	__imp_??0?$basic_string@DU?$char_traits@D@std@@V?$allocator@D@2@@std@@QAE@XZ:NEAR
EXTRN	?CreateEx@CWnd@@UAEHKPBD0KHHHHPAUHWND__@@PAUHMENU__@@PAX@Z:NEAR ; CWnd::CreateEx
EXTRN	??0CxSkinButton@@QAE@XZ:NEAR			; CxSkinButton::CxSkinButton
EXTRN	?CreateEx@CWnd@@UAEHKPBD0KABUtagRECT@@PAV1@IPAX@Z:NEAR ; CWnd::CreateEx
EXTRN	??1CxSkinButton@@UAE@XZ:NEAR			; CxSkinButton::~CxSkinButton
EXTRN	?DestroyWindow@CWnd@@UAEHXZ:NEAR		; CWnd::DestroyWindow
EXTRN	?PreCreateWindow@CWnd@@UAEHAAUtagCREATESTRUCTA@@@Z:NEAR ; CWnd::PreCreateWindow
EXTRN	?CalcWindowRect@CWnd@@UAEXPAUtagRECT@@I@Z:NEAR	; CWnd::CalcWindowRect
EXTRN	__imp_??1?$basic_string@DU?$char_traits@D@std@@V?$allocator@D@2@@std@@QAE@XZ:NEAR
EXTRN	?GetSuperWndProcAddr@CWnd@@MAEPAP6GJPAUHWND__@@IIJ@ZXZ:NEAR ; CWnd::GetSuperWndProcAddr
EXTRN	??_7type_info@@6B@:QWORD			; type_info::`vftable'
EXTRN	?OnAmbientProperty@CWnd@@UAEHPAVCOleControlSite@@JPAUtagVARIANT@@@Z:NEAR ; CWnd::OnAmbientProperty
EXTRN	?WindowProc@CWnd@@MAEJIIJ@Z:NEAR		; CWnd::WindowProc
EXTRN	?OnWndMsg@CWnd@@MAEHIIJPAJ@Z:NEAR		; CWnd::OnWndMsg
EXTRN	?DefWindowProcA@CWnd@@MAEJIIJ@Z:NEAR		; CWnd::DefWindowProcA
EXTRN	?PostNcDestroy@CWnd@@MAEXXZ:NEAR		; CWnd::PostNcDestroy
EXTRN	?OnChildNotify@CWnd@@MAEHIIJPAJ@Z:NEAR		; CWnd::OnChildNotify
EXTRN	?IsFrameWnd@CWnd@@UBEHXZ:NEAR			; CWnd::IsFrameWnd
EXTRN	?OnFinalRelease@CWnd@@UAEXXZ:NEAR		; CWnd::OnFinalRelease
xdata$x	SEGMENT
$T199250 DD	0ffffffffH
	DD	FLAT:$L199239
	DD	00H
	DD	FLAT:$L199240
	DD	01H
	DD	FLAT:$L199241
	DD	02H
	DD	FLAT:$L199242
	DD	03H
	DD	FLAT:$L199243
$T199247 DD	019930520H
	DD	05H
	DD	FLAT:$T199250
	DD	2 DUP(00H)
	DD	2 DUP(00H)
xdata$x	ENDS
;	COMDAT ??_7CHostWnd@@6B@
; File d:\boxgit\playbox\playbox\dev\prj\playbox\src\layoutmgr\seperatemode\hostwnd.cpp
CONST	SEGMENT
??_7CHostWnd@@6B@ DD FLAT:??_R4CHostWnd@@6B@		; CHostWnd::`vftable'
	DD	FLAT:?GetRuntimeClass@CDialog@@UBEPAUCRuntimeClass@@XZ
	DD	FLAT:??_ECHostWnd@@UAEPAXI@Z
	DD	FLAT:?Serialize@CObject@@UAEXAAVCArchive@@@Z
	DD	FLAT:?AssertValid@CObject@@UBEXXZ
	DD	FLAT:?Dump@CObject@@UBEXAAVCDumpContext@@@Z
	DD	FLAT:?OnCmdMsg@CDialog@@UAEHIHPAXPAUAFX_CMDHANDLERINFO@@@Z
	DD	FLAT:?OnFinalRelease@CWnd@@UAEXXZ
	DD	FLAT:?IsInvokeAllowed@CCmdTarget@@UAEHJ@Z
	DD	FLAT:?GetDispatchIID@CCmdTarget@@UAEHPAU_GUID@@@Z
	DD	FLAT:?GetTypeInfoCount@CCmdTarget@@UAEIXZ
	DD	FLAT:?GetTypeLibCache@CCmdTarget@@UAEPAVCTypeLibCache@@XZ
	DD	FLAT:?GetTypeLib@CCmdTarget@@UAEJKPAPAUITypeLib@@@Z
	DD	FLAT:?GetMessageMap@CHostWnd@@MBEPBUAFX_MSGMAP@@XZ
	DD	FLAT:?GetCommandMap@CCmdTarget@@MBEPBUAFX_OLECMDMAP@@XZ
	DD	FLAT:?GetDispatchMap@CCmdTarget@@MBEPBUAFX_DISPMAP@@XZ
	DD	FLAT:?GetConnectionMap@CCmdTarget@@MBEPBUAFX_CONNECTIONMAP@@XZ
	DD	FLAT:?GetInterfaceMap@CWnd@@MBEPBUAFX_INTERFACEMAP@@XZ
	DD	FLAT:?GetEventSinkMap@CCmdTarget@@MBEPBUAFX_EVENTSINKMAP@@XZ
	DD	FLAT:?OnCreateAggregates@CCmdTarget@@UAEHXZ
	DD	FLAT:?GetInterfaceHook@CCmdTarget@@UAEPAUIUnknown@@PBX@Z
	DD	FLAT:?GetExtraConnectionPoints@CCmdTarget@@MAEHPAVCPtrArray@@@Z
	DD	FLAT:?GetConnectionHook@CCmdTarget@@MAEPAUIConnectionPoint@@ABU_GUID@@@Z
	DD	FLAT:?PreSubclassWindow@CWnd@@UAEXXZ
	DD	FLAT:?Create@CWnd@@UAEHPBD0KABUtagRECT@@PAV1@IPAUCCreateContext@@@Z
	DD	FLAT:?CreateEx@CWnd@@UAEHKPBD0KABUtagRECT@@PAV1@IPAX@Z
	DD	FLAT:?CreateEx@CWnd@@UAEHKPBD0KHHHHPAUHWND__@@PAUHMENU__@@PAX@Z
	DD	FLAT:?DestroyWindow@CWnd@@UAEHXZ
	DD	FLAT:?PreCreateWindow@CWnd@@UAEHAAUtagCREATESTRUCTA@@@Z
	DD	FLAT:?CalcWindowRect@CWnd@@UAEXPAUtagRECT@@I@Z
	DD	FLAT:?OnToolHitTest@CWnd@@UBEHVCPoint@@PAUtagTOOLINFOA@@@Z
	DD	FLAT:?GetScrollBarCtrl@CWnd@@UBEPAVCScrollBar@@H@Z
	DD	FLAT:?WinHelpA@CWnd@@UAEXKI@Z
	DD	FLAT:?HtmlHelpA@CWnd@@UAEXKI@Z
	DD	FLAT:?WinHelpInternal@CWnd@@UAEXKI@Z
	DD	FLAT:?ContinueModal@CWnd@@UAEHXZ
	DD	FLAT:?EndModalLoop@CWnd@@UAEXH@Z
	DD	FLAT:?EnsureStdObj@CWnd@@UAEJXZ
	DD	FLAT:?get_accParent@CWnd@@UAEJPAPAUIDispatch@@@Z
	DD	FLAT:?get_accChildCount@CWnd@@UAEJPAJ@Z
	DD	FLAT:?get_accChild@CWnd@@UAEJUtagVARIANT@@PAPAUIDispatch@@@Z
	DD	FLAT:?get_accName@CWnd@@UAEJUtagVARIANT@@PAPA_W@Z
	DD	FLAT:?get_accValue@CWnd@@UAEJUtagVARIANT@@PAPA_W@Z
	DD	FLAT:?get_accDescription@CWnd@@UAEJUtagVARIANT@@PAPA_W@Z
	DD	FLAT:?get_accRole@CWnd@@UAEJUtagVARIANT@@PAU2@@Z
	DD	FLAT:?get_accState@CWnd@@UAEJUtagVARIANT@@PAU2@@Z
	DD	FLAT:?get_accHelp@CWnd@@UAEJUtagVARIANT@@PAPA_W@Z
	DD	FLAT:?get_accHelpTopic@CWnd@@UAEJPAPA_WUtagVARIANT@@PAJ@Z
	DD	FLAT:?get_accKeyboardShortcut@CWnd@@UAEJUtagVARIANT@@PAPA_W@Z
	DD	FLAT:?get_accFocus@CWnd@@UAEJPAUtagVARIANT@@@Z
	DD	FLAT:?get_accSelection@CWnd@@UAEJPAUtagVARIANT@@@Z
	DD	FLAT:?get_accDefaultAction@CWnd@@UAEJUtagVARIANT@@PAPA_W@Z
	DD	FLAT:?accSelect@CWnd@@UAEJJUtagVARIANT@@@Z
	DD	FLAT:?accLocation@CWnd@@UAEJPAJ000UtagVARIANT@@@Z
	DD	FLAT:?accNavigate@CWnd@@UAEJJUtagVARIANT@@PAU2@@Z
	DD	FLAT:?accHitTest@CWnd@@UAEJJJPAUtagVARIANT@@@Z
	DD	FLAT:?accDoDefaultAction@CWnd@@UAEJUtagVARIANT@@@Z
	DD	FLAT:?put_accName@CWnd@@UAEJUtagVARIANT@@PA_W@Z
	DD	FLAT:?put_accValue@CWnd@@UAEJUtagVARIANT@@PA_W@Z
	DD	FLAT:?SetProxy@CWnd@@UAEJPAUIAccessibleProxy@@@Z
	DD	FLAT:?CreateAccessibleProxy@CWnd@@UAEJIJPAJ@Z
	DD	FLAT:?OnCommand@CWnd@@MAEHIJ@Z
	DD	FLAT:?OnNotify@CWnd@@MAEHIJPAJ@Z
	DD	FLAT:?GetSuperWndProcAddr@CWnd@@MAEPAP6GJPAUHWND__@@IIJ@ZXZ
	DD	FLAT:?DoDataExchange@CWnd@@MAEXPAVCDataExchange@@@Z
	DD	FLAT:?BeginModalState@CWnd@@UAEXXZ
	DD	FLAT:?EndModalState@CWnd@@UAEXXZ
	DD	FLAT:?PreTranslateMessage@CHostWnd@@UAEHPAUtagMSG@@@Z
	DD	FLAT:?OnAmbientProperty@CWnd@@UAEHPAVCOleControlSite@@JPAUtagVARIANT@@@Z
	DD	FLAT:?WindowProc@CWnd@@MAEJIIJ@Z
	DD	FLAT:?OnWndMsg@CWnd@@MAEHIIJPAJ@Z
	DD	FLAT:?DefWindowProcA@CWnd@@MAEJIIJ@Z
	DD	FLAT:?PostNcDestroy@CWnd@@MAEXXZ
	DD	FLAT:?OnChildNotify@CWnd@@MAEHIIJPAJ@Z
	DD	FLAT:?CheckAutoCenter@CDialog@@UAEHXZ
	DD	FLAT:?IsFrameWnd@CWnd@@UBEHXZ
	DD	FLAT:?CreateControlContainer@CWnd@@MAEHPAPAVCOleControlContainer@@@Z
	DD	FLAT:?CreateControlSite@CWnd@@MAEHPAVCOleControlContainer@@PAPAVCOleControlSite@@IABU_GUID@@@Z
	DD	FLAT:?SetOccDialogInfo@CDialog@@MAEHPAU_AFX_OCC_DIALOG_INFO@@@Z
	DD	FLAT:?Create@CDialog@@UAEHIPAVCWnd@@@Z
	DD	FLAT:?Create@CDialog@@UAEHPBDPAVCWnd@@@Z
	DD	FLAT:?CreateIndirect@CDialog@@UAEHPAXPAVCWnd@@@Z
	DD	FLAT:?CreateIndirect@CDialog@@UAEHPBUDLGTEMPLATE@@PAVCWnd@@PAX@Z
	DD	FLAT:?DoModal@CDialog@@UAEHXZ
	DD	FLAT:?OnInitDialog@CHostWnd@@MAEHXZ
	DD	FLAT:?OnSetFont@CDialog@@UAEXPAVCFont@@@Z
	DD	FLAT:?OnOK@CHostWnd@@MAEXXZ
	DD	FLAT:?OnCancel@CHostWnd@@MAEXXZ
	DD	FLAT:?PreInitDialog@CDialog@@MAEXXZ
	DD	FLAT:?_needChangeCursor@CHostWnd@@MAE_NABVCPoint@@@Z
CONST	ENDS
;	COMDAT ??_R4CHostWnd@@6B@
rdata$r	SEGMENT
??_R4CHostWnd@@6B@ DD 00H				; CHostWnd::`RTTI Complete Object Locator'
	DD	00H
	DD	00H
	DD	FLAT:??_R0?AVCHostWnd@@@8
	DD	FLAT:??_R3CHostWnd@@8
rdata$r	ENDS
;	COMDAT ??_R0?AVCHostWnd@@@8
_DATA	SEGMENT
??_R0?AVCHostWnd@@@8 DD FLAT:??_7type_info@@6B@		; CHostWnd `RTTI Type Descriptor'
	DD	00H
	DB	'.?AVCHostWnd@@', 00H
_DATA	ENDS
;	COMDAT ??_R3CHostWnd@@8
rdata$r	SEGMENT
??_R3CHostWnd@@8 DD 00H					; CHostWnd::`RTTI Class Hierarchy Descriptor'
	DD	00H
	DD	05H
	DD	FLAT:??_R2CHostWnd@@8
rdata$r	ENDS
;	COMDAT ??_R2CHostWnd@@8
rdata$r	SEGMENT
??_R2CHostWnd@@8 DD FLAT:??_R1A@?0A@A@CHostWnd@@8	; CHostWnd::`RTTI Base Class Array'
	DD	FLAT:??_R1A@?0A@A@CDialog@@8
	DD	FLAT:??_R1A@?0A@A@CWnd@@8
	DD	FLAT:??_R1A@?0A@A@CCmdTarget@@8
	DD	FLAT:??_R1A@?0A@A@CObject@@8
rdata$r	ENDS
;	COMDAT ??_R1A@?0A@A@CHostWnd@@8
rdata$r	SEGMENT
??_R1A@?0A@A@CHostWnd@@8 DD FLAT:??_R0?AVCHostWnd@@@8	; CHostWnd::`RTTI Base Class Descriptor at (0,-1,0,0)'
	DD	04H
	DD	00H
	DD	0ffffffffH
	DD	00H
	DD	00H
rdata$r	ENDS
;	COMDAT ??_R1A@?0A@A@CDialog@@8
rdata$r	SEGMENT
??_R1A@?0A@A@CDialog@@8 DD FLAT:??_R0?AVCDialog@@@8	; CDialog::`RTTI Base Class Descriptor at (0,-1,0,0)'
	DD	03H
	DD	00H
	DD	0ffffffffH
	DD	00H
	DD	00H
rdata$r	ENDS
;	COMDAT ??_R0?AVCDialog@@@8
_DATA	SEGMENT
??_R0?AVCDialog@@@8 DD FLAT:??_7type_info@@6B@		; CDialog `RTTI Type Descriptor'
	DD	00H
	DB	'.?AVCDialog@@', 00H
_DATA	ENDS
;	COMDAT ??_R1A@?0A@A@CWnd@@8
rdata$r	SEGMENT
??_R1A@?0A@A@CWnd@@8 DD FLAT:??_R0?AVCWnd@@@8		; CWnd::`RTTI Base Class Descriptor at (0,-1,0,0)'
	DD	02H
	DD	00H
	DD	0ffffffffH
	DD	00H
	DD	00H
rdata$r	ENDS
;	COMDAT ??_R0?AVCWnd@@@8
_DATA	SEGMENT
??_R0?AVCWnd@@@8 DD FLAT:??_7type_info@@6B@		; CWnd `RTTI Type Descriptor'
	DD	00H
	DB	'.?AVCWnd@@', 00H
_DATA	ENDS
;	COMDAT ??_R1A@?0A@A@CCmdTarget@@8
rdata$r	SEGMENT
??_R1A@?0A@A@CCmdTarget@@8 DD FLAT:??_R0?AVCCmdTarget@@@8 ; CCmdTarget::`RTTI Base Class Descriptor at (0,-1,0,0)'
	DD	01H
	DD	00H
	DD	0ffffffffH
	DD	00H
	DD	00H
rdata$r	ENDS
;	COMDAT ??_R0?AVCCmdTarget@@@8
_DATA	SEGMENT
??_R0?AVCCmdTarget@@@8 DD FLAT:??_7type_info@@6B@	; CCmdTarget `RTTI Type Descriptor'
	DD	00H
	DB	'.?AVCCmdTarget@@', 00H
_DATA	ENDS
;	COMDAT ??_R1A@?0A@A@CObject@@8
rdata$r	SEGMENT
??_R1A@?0A@A@CObject@@8 DD FLAT:??_R0?AVCObject@@@8	; CObject::`RTTI Base Class Descriptor at (0,-1,0,0)'
	DD	00H
	DD	00H
	DD	0ffffffffH
	DD	00H
	DD	00H
rdata$r	ENDS
;	COMDAT ??_R0?AVCObject@@@8
_DATA	SEGMENT
??_R0?AVCObject@@@8 DD FLAT:??_7type_info@@6B@		; CObject `RTTI Type Descriptor'
	DD	00H
	DB	'.?AVCObject@@', 00H
; Function compile flags: /Odt
_DATA	ENDS
_TEXT	SEGMENT
_this$ = -16						; size = 4
__$EHRec$ = -12						; size = 12
_pParent$ = 8						; size = 4
??0CHostWnd@@QAE@PAVCWnd@@@Z PROC NEAR			; CHostWnd::CHostWnd
; _this$ = ecx

; 11   : {

  00000	55		 push	 ebp
  00001	8b ec		 mov	 ebp, esp
  00003	6a ff		 push	 -1
  00005	68 00 00 00 00	 push	 __ehhandler$??0CHostWnd@@QAE@PAVCWnd@@@Z
  0000a	64 a1 00 00 00
	00		 mov	 eax, DWORD PTR fs:__except_list
  00010	50		 push	 eax
  00011	64 89 25 00 00
	00 00		 mov	 DWORD PTR fs:__except_list, esp
  00018	51		 push	 ecx
  00019	89 4d f0	 mov	 DWORD PTR _this$[ebp], ecx
  0001c	8b 45 08	 mov	 eax, DWORD PTR _pParent$[ebp]
  0001f	50		 push	 eax
  00020	6a 6d		 push	 109			; 0000006dH
  00022	8b 4d f0	 mov	 ecx, DWORD PTR _this$[ebp]
  00025	e8 00 00 00 00	 call	 ??0CDialog@@QAE@IPAVCWnd@@@Z ; CDialog::CDialog
  0002a	c7 45 fc 00 00
	00 00		 mov	 DWORD PTR __$EHRec$[ebp+8], 0
  00031	8b 4d f0	 mov	 ecx, DWORD PTR _this$[ebp]
  00034	c7 01 00 00 00
	00		 mov	 DWORD PTR [ecx], OFFSET FLAT:??_7CHostWnd@@6B@
  0003a	8b 4d f0	 mov	 ecx, DWORD PTR _this$[ebp]
  0003d	81 c1 a4 00 00
	00		 add	 ecx, 164		; 000000a4H
  00043	e8 00 00 00 00	 call	 ??0CPoint@@QAE@XZ	; CPoint::CPoint
  00048	8b 4d f0	 mov	 ecx, DWORD PTR _this$[ebp]
  0004b	81 c1 ac 00 00
	00		 add	 ecx, 172		; 000000acH
  00051	e8 00 00 00 00	 call	 ??0CRect@@QAE@XZ	; CRect::CRect
  00056	8b 4d f0	 mov	 ecx, DWORD PTR _this$[ebp]
  00059	81 c1 bc 00 00
	00		 add	 ecx, 188		; 000000bcH
  0005f	e8 00 00 00 00	 call	 ??0CRect@@QAE@XZ	; CRect::CRect
  00064	8b 4d f0	 mov	 ecx, DWORD PTR _this$[ebp]
  00067	81 c1 cc 00 00
	00		 add	 ecx, 204		; 000000ccH
  0006d	ff 15 00 00 00
	00		 call	 DWORD PTR __imp_??0?$basic_string@DU?$char_traits@D@std@@V?$allocator@D@2@@std@@QAE@XZ
  00073	c6 45 fc 01	 mov	 BYTE PTR __$EHRec$[ebp+8], 1
  00077	8b 4d f0	 mov	 ecx, DWORD PTR _this$[ebp]
  0007a	81 c1 e8 00 00
	00		 add	 ecx, 232		; 000000e8H
  00080	ff 15 00 00 00
	00		 call	 DWORD PTR __imp_??0?$basic_string@DU?$char_traits@D@std@@V?$allocator@D@2@@std@@QAE@XZ
  00086	c6 45 fc 02	 mov	 BYTE PTR __$EHRec$[ebp+8], 2
  0008a	8b 4d f0	 mov	 ecx, DWORD PTR _this$[ebp]
  0008d	81 c1 04 01 00
	00		 add	 ecx, 260		; 00000104H
  00093	ff 15 00 00 00
	00		 call	 DWORD PTR __imp_??0?$CStringT@DV?$StrTraitMFC_DLL@DV?$ChTraitsCRT@D@ATL@@@@@ATL@@QAE@XZ
  00099	c6 45 fc 03	 mov	 BYTE PTR __$EHRec$[ebp+8], 3
  0009d	8b 4d f0	 mov	 ecx, DWORD PTR _this$[ebp]
  000a0	81 c1 10 01 00
	00		 add	 ecx, 272		; 00000110H
  000a6	e8 00 00 00 00	 call	 ??0CxSkinButton@@QAE@XZ	; CxSkinButton::CxSkinButton
  000ab	c6 45 fc 04	 mov	 BYTE PTR __$EHRec$[ebp+8], 4

; 12   : 	m_isMainWnd = false;

  000af	8b 55 f0	 mov	 edx, DWORD PTR _this$[ebp]
  000b2	c7 82 80 00 00
	00 00 00 00 00	 mov	 DWORD PTR [edx+128], 0

; 13   : 	m_nL = m_nR = m_nT = m_nB = 0;

  000bc	8b 45 f0	 mov	 eax, DWORD PTR _this$[ebp]
  000bf	c7 80 98 00 00
	00 00 00 00 00	 mov	 DWORD PTR [eax+152], 0
  000c9	8b 4d f0	 mov	 ecx, DWORD PTR _this$[ebp]
  000cc	c7 81 94 00 00
	00 00 00 00 00	 mov	 DWORD PTR [ecx+148], 0
  000d6	8b 55 f0	 mov	 edx, DWORD PTR _this$[ebp]
  000d9	c7 82 90 00 00
	00 00 00 00 00	 mov	 DWORD PTR [edx+144], 0
  000e3	8b 45 f0	 mov	 eax, DWORD PTR _this$[ebp]
  000e6	c7 80 8c 00 00
	00 00 00 00 00	 mov	 DWORD PTR [eax+140], 0

; 14   : 	m_pWnd  = NULL;

  000f0	8b 4d f0	 mov	 ecx, DWORD PTR _this$[ebp]
  000f3	c7 81 88 00 00
	00 00 00 00 00	 mov	 DWORD PTR [ecx+136], 0

; 15   : 	m_isResizing = FALSE;

  000fd	8b 55 f0	 mov	 edx, DWORD PTR _this$[ebp]
  00100	c6 82 a1 00 00
	00 00		 mov	 BYTE PTR [edx+161], 0

; 16   : 	m_ptStartResizing.x = 0;

  00107	8b 45 f0	 mov	 eax, DWORD PTR _this$[ebp]
  0010a	c7 80 a4 00 00
	00 00 00 00 00	 mov	 DWORD PTR [eax+164], 0

; 17   : 	m_ptStartResizing.y = 0;

  00114	8b 4d f0	 mov	 ecx, DWORD PTR _this$[ebp]
  00117	c7 81 a8 00 00
	00 00 00 00 00	 mov	 DWORD PTR [ecx+168], 0

; 18   : 	m_rectStarResizing.left = 0;

  00121	8b 55 f0	 mov	 edx, DWORD PTR _this$[ebp]
  00124	c7 82 ac 00 00
	00 00 00 00 00	 mov	 DWORD PTR [edx+172], 0

; 19   : 	m_rectStarResizing.right = 0;

  0012e	8b 45 f0	 mov	 eax, DWORD PTR _this$[ebp]
  00131	c7 80 b4 00 00
	00 00 00 00 00	 mov	 DWORD PTR [eax+180], 0

; 20   : 	m_rectStarResizing.top = 0;

  0013b	8b 4d f0	 mov	 ecx, DWORD PTR _this$[ebp]
  0013e	c7 81 b0 00 00
	00 00 00 00 00	 mov	 DWORD PTR [ecx+176], 0

; 21   : 	m_rectStarResizing.bottom = 0;

  00148	8b 55 f0	 mov	 edx, DWORD PTR _this$[ebp]
  0014b	c7 82 b8 00 00
	00 00 00 00 00	 mov	 DWORD PTR [edx+184], 0

; 22   : 	m_iDirection = 0;

  00155	8b 45 f0	 mov	 eax, DWORD PTR _this$[ebp]
  00158	c7 80 9c 00 00
	00 00 00 00 00	 mov	 DWORD PTR [eax+156], 0

; 23   : 	m_bMovable = true;

  00162	8b 4d f0	 mov	 ecx, DWORD PTR _this$[ebp]
  00165	c7 41 7c 01 00
	00 00		 mov	 DWORD PTR [ecx+124], 1

; 24   : 	m_strContent = "";

  0016c	68 00 00 00 00	 push	 OFFSET FLAT:$SG198396
  00171	8b 4d f0	 mov	 ecx, DWORD PTR _this$[ebp]
  00174	81 c1 04 01 00
	00		 add	 ecx, 260		; 00000104H
  0017a	ff 15 00 00 00
	00		 call	 DWORD PTR __imp_??4?$CStringT@DV?$StrTraitMFC_DLL@DV?$ChTraitsCRT@D@ATL@@@@@ATL@@QAEAAV01@PBD@Z

; 25   : }

  00180	c7 45 fc ff ff
	ff ff		 mov	 DWORD PTR __$EHRec$[ebp+8], -1
  00187	8b 45 f0	 mov	 eax, DWORD PTR _this$[ebp]
  0018a	8b 4d f4	 mov	 ecx, DWORD PTR __$EHRec$[ebp]
  0018d	64 89 0d 00 00
	00 00		 mov	 DWORD PTR fs:__except_list, ecx
  00194	8b e5		 mov	 esp, ebp
  00196	5d		 pop	 ebp
  00197	c2 04 00	 ret	 4
_TEXT	ENDS
text$x	SEGMENT
$L199239:
  00000	8b 4d f0	 mov	 ecx, DWORD PTR _this$[ebp]
  00003	e9 00 00 00 00	 jmp	 ??1CDialog@@UAE@XZ	; CDialog::~CDialog
$L199240:
  00008	8b 4d f0	 mov	 ecx, DWORD PTR _this$[ebp]
  0000b	81 c1 cc 00 00
	00		 add	 ecx, 204		; 000000ccH
  00011	ff 25 00 00 00
	00		 jmp	 DWORD PTR __imp_??1?$basic_string@DU?$char_traits@D@std@@V?$allocator@D@2@@std@@QAE@XZ
$L199241:
  00017	8b 4d f0	 mov	 ecx, DWORD PTR _this$[ebp]
  0001a	81 c1 e8 00 00
	00		 add	 ecx, 232		; 000000e8H
  00020	ff 25 00 00 00
	00		 jmp	 DWORD PTR __imp_??1?$basic_string@DU?$char_traits@D@std@@V?$allocator@D@2@@std@@QAE@XZ
$L199242:
  00026	8b 4d f0	 mov	 ecx, DWORD PTR _this$[ebp]
  00029	81 c1 04 01 00
	00		 add	 ecx, 260		; 00000104H
  0002f	ff 25 00 00 00
	00		 jmp	 DWORD PTR __imp_??1?$CStringT@DV?$StrTraitMFC_DLL@DV?$ChTraitsCRT@D@ATL@@@@@ATL@@QAE@XZ
$L199243:
  00035	8b 4d f0	 mov	 ecx, DWORD PTR _this$[ebp]
  00038	81 c1 10 01 00
	00		 add	 ecx, 272		; 00000110H
  0003e	e9 00 00 00 00	 jmp	 ??1CxSkinButton@@UAE@XZ	; CxSkinButton::~CxSkinButton
__ehhandler$??0CHostWnd@@QAE@PAVCWnd@@@Z:
  00043	b8 00 00 00 00	 mov	 eax, OFFSET FLAT:$T199247
  00048	e9 00 00 00 00	 jmp	 ___CxxFrameHandler
text$x	ENDS
??0CHostWnd@@QAE@PAVCWnd@@@Z ENDP			; CHostWnd::CHostWnd
PUBLIC	??1CHostWnd@@UAE@XZ				; CHostWnd::~CHostWnd
PUBLIC	??3CObject@@SGXPAX@Z				; CObject::operator delete
; Function compile flags: /Odt
;	COMDAT ??_GCHostWnd@@UAEPAXI@Z
_TEXT	SEGMENT
_this$ = -4						; size = 4
___flags$ = 8						; size = 4
??_GCHostWnd@@UAEPAXI@Z PROC NEAR			; CHostWnd::`scalar deleting destructor', COMDAT
; _this$ = ecx
  00000	55		 push	 ebp
  00001	8b ec		 mov	 ebp, esp
  00003	51		 push	 ecx
  00004	89 4d fc	 mov	 DWORD PTR _this$[ebp], ecx
  00007	8b 4d fc	 mov	 ecx, DWORD PTR _this$[ebp]
  0000a	e8 00 00 00 00	 call	 ??1CHostWnd@@UAE@XZ	; CHostWnd::~CHostWnd
  0000f	8b 45 08	 mov	 eax, DWORD PTR ___flags$[ebp]
  00012	83 e0 01	 and	 eax, 1
  00015	74 09		 je	 SHORT $L198400
  00017	8b 4d fc	 mov	 ecx, DWORD PTR _this$[ebp]
  0001a	51		 push	 ecx
  0001b	e8 00 00 00 00	 call	 ??3CObject@@SGXPAX@Z	; CObject::operator delete
$L198400:
  00020	8b 45 fc	 mov	 eax, DWORD PTR _this$[ebp]
  00023	8b e5		 mov	 esp, ebp
  00025	5d		 pop	 ebp
  00026	c2 04 00	 ret	 4
??_GCHostWnd@@UAEPAXI@Z ENDP				; CHostWnd::`scalar deleting destructor'
_TEXT	ENDS
EXTRN	__imp__SetParent@8:NEAR
xdata$x	SEGMENT
$T199263 DD	0ffffffffH
	DD	FLAT:$L199255
	DD	00H
	DD	FLAT:$L199256
	DD	01H
	DD	FLAT:$L199257
	DD	02H
	DD	FLAT:$L199258
$T199261 DD	019930520H
	DD	04H
	DD	FLAT:$T199263
	DD	2 DUP(00H)
	DD	2 DUP(00H)
; Function compile flags: /Odt
xdata$x	ENDS
_TEXT	SEGMENT
_this$ = -16						; size = 4
__$EHRec$ = -12						; size = 12
??1CHostWnd@@UAE@XZ PROC NEAR				; CHostWnd::~CHostWnd
; _this$ = ecx

; 28   : {

  001a0	55		 push	 ebp
  001a1	8b ec		 mov	 ebp, esp
  001a3	6a ff		 push	 -1
  001a5	68 00 00 00 00	 push	 __ehhandler$??1CHostWnd@@UAE@XZ
  001aa	64 a1 00 00 00
	00		 mov	 eax, DWORD PTR fs:__except_list
  001b0	50		 push	 eax
  001b1	64 89 25 00 00
	00 00		 mov	 DWORD PTR fs:__except_list, esp
  001b8	51		 push	 ecx
  001b9	89 4d f0	 mov	 DWORD PTR _this$[ebp], ecx
  001bc	8b 45 f0	 mov	 eax, DWORD PTR _this$[ebp]
  001bf	c7 00 00 00 00
	00		 mov	 DWORD PTR [eax], OFFSET FLAT:??_7CHostWnd@@6B@
  001c5	c7 45 fc 03 00
	00 00		 mov	 DWORD PTR __$EHRec$[ebp+8], 3

; 29   : 	if(m_pWnd != NULL)

  001cc	8b 4d f0	 mov	 ecx, DWORD PTR _this$[ebp]
  001cf	83 b9 88 00 00
	00 00		 cmp	 DWORD PTR [ecx+136], 0
  001d6	74 1d		 je	 SHORT $L198403

; 30   : 		::SetParent(m_pWnd->m_hWnd,m_hParentWnd);

  001d8	8b 55 f0	 mov	 edx, DWORD PTR _this$[ebp]
  001db	8b 82 84 00 00
	00		 mov	 eax, DWORD PTR [edx+132]
  001e1	50		 push	 eax
  001e2	8b 4d f0	 mov	 ecx, DWORD PTR _this$[ebp]
  001e5	8b 91 88 00 00
	00		 mov	 edx, DWORD PTR [ecx+136]
  001eb	8b 42 20	 mov	 eax, DWORD PTR [edx+32]
  001ee	50		 push	 eax
  001ef	ff 15 00 00 00
	00		 call	 DWORD PTR __imp__SetParent@8
$L198403:

; 31   : }

  001f5	8b 4d f0	 mov	 ecx, DWORD PTR _this$[ebp]
  001f8	81 c1 10 01 00
	00		 add	 ecx, 272		; 00000110H
  001fe	e8 00 00 00 00	 call	 ??1CxSkinButton@@UAE@XZ	; CxSkinButton::~CxSkinButton
  00203	c6 45 fc 02	 mov	 BYTE PTR __$EHRec$[ebp+8], 2
  00207	8b 4d f0	 mov	 ecx, DWORD PTR _this$[ebp]
  0020a	81 c1 04 01 00
	00		 add	 ecx, 260		; 00000104H
  00210	ff 15 00 00 00
	00		 call	 DWORD PTR __imp_??1?$CStringT@DV?$StrTraitMFC_DLL@DV?$ChTraitsCRT@D@ATL@@@@@ATL@@QAE@XZ
  00216	c6 45 fc 01	 mov	 BYTE PTR __$EHRec$[ebp+8], 1
  0021a	8b 4d f0	 mov	 ecx, DWORD PTR _this$[ebp]
  0021d	81 c1 e8 00 00
	00		 add	 ecx, 232		; 000000e8H
  00223	ff 15 00 00 00
	00		 call	 DWORD PTR __imp_??1?$basic_string@DU?$char_traits@D@std@@V?$allocator@D@2@@std@@QAE@XZ
  00229	c6 45 fc 00	 mov	 BYTE PTR __$EHRec$[ebp+8], 0
  0022d	8b 4d f0	 mov	 ecx, DWORD PTR _this$[ebp]
  00230	81 c1 cc 00 00
	00		 add	 ecx, 204		; 000000ccH
  00236	ff 15 00 00 00
	00		 call	 DWORD PTR __imp_??1?$basic_string@DU?$char_traits@D@std@@V?$allocator@D@2@@std@@QAE@XZ
  0023c	c7 45 fc ff ff
	ff ff		 mov	 DWORD PTR __$EHRec$[ebp+8], -1
  00243	8b 4d f0	 mov	 ecx, DWORD PTR _this$[ebp]
  00246	e8 00 00 00 00	 call	 ??1CDialog@@UAE@XZ	; CDialog::~CDialog
  0024b	8b 4d f4	 mov	 ecx, DWORD PTR __$EHRec$[ebp]
  0024e	64 89 0d 00 00
	00 00		 mov	 DWORD PTR fs:__except_list, ecx
  00255	8b e5		 mov	 esp, ebp
  00257	5d		 pop	 ebp
  00258	c3		 ret	 0
_TEXT	ENDS
text$x	SEGMENT
$L199255:
  0004d	8b 4d f0	 mov	 ecx, DWORD PTR _this$[ebp]
  00050	e9 00 00 00 00	 jmp	 ??1CDialog@@UAE@XZ	; CDialog::~CDialog
$L199256:
  00055	8b 4d f0	 mov	 ecx, DWORD PTR _this$[ebp]
  00058	81 c1 cc 00 00
	00		 add	 ecx, 204		; 000000ccH
  0005e	ff 25 00 00 00
	00		 jmp	 DWORD PTR __imp_??1?$basic_string@DU?$char_traits@D@std@@V?$allocator@D@2@@std@@QAE@XZ
$L199257:
  00064	8b 4d f0	 mov	 ecx, DWORD PTR _this$[ebp]
  00067	81 c1 e8 00 00
	00		 add	 ecx, 232		; 000000e8H
  0006d	ff 25 00 00 00
	00		 jmp	 DWORD PTR __imp_??1?$basic_string@DU?$char_traits@D@std@@V?$allocator@D@2@@std@@QAE@XZ
$L199258:
  00073	8b 4d f0	 mov	 ecx, DWORD PTR _this$[ebp]
  00076	81 c1 04 01 00
	00		 add	 ecx, 260		; 00000104H
  0007c	ff 25 00 00 00
	00		 jmp	 DWORD PTR __imp_??1?$CStringT@DV?$StrTraitMFC_DLL@DV?$ChTraitsCRT@D@ATL@@@@@ATL@@QAE@XZ
__ehhandler$??1CHostWnd@@UAE@XZ:
  00082	b8 00 00 00 00	 mov	 eax, OFFSET FLAT:$T199261
  00087	e9 00 00 00 00	 jmp	 ___CxxFrameHandler
text$x	ENDS
??1CHostWnd@@UAE@XZ ENDP				; CHostWnd::~CHostWnd
PUBLIC	?GetThisMessageMap@CHostWnd@@KGPBUAFX_MSGMAP@@XZ ; CHostWnd::GetThisMessageMap
; Function compile flags: /Odt
_TEXT	SEGMENT
?GetThisMessageMap@CHostWnd@@KGPBUAFX_MSGMAP@@XZ PROC NEAR ; CHostWnd::GetThisMessageMap

; 34   : BEGIN_MESSAGE_MAP(CHostWnd, CDialog)

  00260	55		 push	 ebp
  00261	8b ec		 mov	 ebp, esp
  00263	b8 00 00 00 00	 mov	 eax, OFFSET FLAT:?messageMap@CHostWnd@@1UAFX_MSGMAP@@B ; CHostWnd::messageMap
  00268	5d		 pop	 ebp
  00269	c3		 ret	 0
?GetThisMessageMap@CHostWnd@@KGPBUAFX_MSGMAP@@XZ ENDP	; CHostWnd::GetThisMessageMap
; Function compile flags: /Odt
_this$ = -4						; size = 4
?GetMessageMap@CHostWnd@@MBEPBUAFX_MSGMAP@@XZ PROC NEAR	; CHostWnd::GetMessageMap
; _this$ = ecx

; 34   : BEGIN_MESSAGE_MAP(CHostWnd, CDialog)

  00270	55		 push	 ebp
  00271	8b ec		 mov	 ebp, esp
  00273	51		 push	 ecx
  00274	89 4d fc	 mov	 DWORD PTR _this$[ebp], ecx
  00277	b8 00 00 00 00	 mov	 eax, OFFSET FLAT:?messageMap@CHostWnd@@1UAFX_MSGMAP@@B ; CHostWnd::messageMap
  0027c	8b e5		 mov	 esp, ebp
  0027e	5d		 pop	 ebp
  0027f	c3		 ret	 0
?GetMessageMap@CHostWnd@@MBEPBUAFX_MSGMAP@@XZ ENDP	; CHostWnd::GetMessageMap
_TEXT	ENDS
PUBLIC	??0CRect@@QAE@HHHH@Z				; CRect::CRect
PUBLIC	??9ATL@@YA_NABV?$CStringT@DV?$StrTraitMFC_DLL@DV?$ChTraitsCRT@D@ATL@@@@@0@PBD@Z ; ATL::operator!=
EXTRN	__imp_??B?$CSimpleStringT@D$00@ATL@@QBEPBDXZ:NEAR
EXTRN	?OnInitDialog@CDialog@@UAEHXZ:NEAR		; CDialog::OnInitDialog
EXTRN	__imp_??0?$CStringT@DV?$StrTraitMFC_DLL@DV?$ChTraitsCRT@D@ATL@@@@@ATL@@QAE@ABV01@@Z:NEAR
EXTRN	__imp_??0?$CStringT@DV?$StrTraitMFC_DLL@DV?$ChTraitsCRT@D@ATL@@@@@ATL@@QAE@PBD@Z:NEAR
EXTRN	?GetInstance@CWindowsMover@@SAPAV1@XZ:NEAR	; CWindowsMover::GetInstance
EXTRN	?AddWndindow@CWindowsMover@@QAEXPAVCWnd@@_N@Z:NEAR ; CWindowsMover::AddWndindow
EXTRN	__imp__atoi:NEAR
EXTRN	?AfxGetUIManager@@YAPAVIUIManager@@XZ:NEAR	; AfxGetUIManager
xdata$x	SEGMENT
$T199289 DD	0ffffffffH
	DD	FLAT:$L199277
	DD	0ffffffffH
	DD	FLAT:$L199278
	DD	01H
	DD	FLAT:$L199279
	DD	0ffffffffH
	DD	FLAT:$L199280
	DD	03H
	DD	FLAT:$L199281
	DD	0ffffffffH
	DD	FLAT:$L199282
	DD	0ffffffffH
	DD	FLAT:$L199284
$T199287 DD	019930520H
	DD	07H
	DD	FLAT:$T199289
	DD	2 DUP(00H)
	DD	2 DUP(00H)
; Function compile flags: /Odt
xdata$x	ENDS
_TEXT	SEGMENT
tv324 = -180						; size = 4
tv322 = -176						; size = 4
tv276 = -172						; size = 4
tv271 = -168						; size = 4
tv321 = -164						; size = 4
tv331 = -160						; size = 4
tv319 = -156						; size = 4
tv317 = -152						; size = 4
tv241 = -148						; size = 4
tv236 = -144						; size = 4
tv316 = -140						; size = 4
tv330 = -136						; size = 4
tv200 = -132						; size = 4
tv195 = -128						; size = 4
tv314 = -124						; size = 4
tv329 = -120						; size = 4
tv311 = -116						; size = 4
tv328 = -112						; size = 4
tv161 = -108						; size = 4
tv156 = -104						; size = 4
tv309 = -100						; size = 4
tv327 = -96						; size = 4
tv306 = -92						; size = 4
tv326 = -88						; size = 4
tv134 = -84						; size = 4
tv129 = -80						; size = 4
tv304 = -76						; size = 4
tv325 = -72						; size = 4
_this$ = -68						; size = 4
$T199276 = -64						; size = 4
$T199275 = -60						; size = 4
$T199274 = -56						; size = 4
$T199273 = -52						; size = 4
$T199272 = -48						; size = 4
$T199271 = -44						; size = 4
$T199270 = -40						; size = 4
$T199269 = -36						; size = 4
$T199268 = -32						; size = 4
$T199267 = -28						; size = 16
__$EHRec$ = -12						; size = 12
?OnInitDialog@CHostWnd@@MAEHXZ PROC NEAR		; CHostWnd::OnInitDialog
; _this$ = ecx

; 48   : {

  00280	55		 push	 ebp
  00281	8b ec		 mov	 ebp, esp
  00283	6a ff		 push	 -1
  00285	68 00 00 00 00	 push	 __ehhandler$?OnInitDialog@CHostWnd@@MAEHXZ
  0028a	64 a1 00 00 00
	00		 mov	 eax, DWORD PTR fs:__except_list
  00290	50		 push	 eax
  00291	64 89 25 00 00
	00 00		 mov	 DWORD PTR fs:__except_list, esp
  00298	81 ec a8 00 00
	00		 sub	 esp, 168		; 000000a8H
  0029e	89 4d bc	 mov	 DWORD PTR _this$[ebp], ecx

; 49   : 	CDialog::OnInitDialog();

  002a1	8b 4d bc	 mov	 ecx, DWORD PTR _this$[ebp]
  002a4	e8 00 00 00 00	 call	 ?OnInitDialog@CDialog@@UAEHXZ ; CDialog::OnInitDialog

; 50   : 	
; 51   : 	CWindowsMover::GetInstance()->AddWndindow(this, m_isMainWnd);

  002a9	8b 45 bc	 mov	 eax, DWORD PTR _this$[ebp]
  002ac	83 b8 80 00 00
	00 00		 cmp	 DWORD PTR [eax+128], 0
  002b3	0f 95 c1	 setne	 cl
  002b6	51		 push	 ecx
  002b7	8b 55 bc	 mov	 edx, DWORD PTR _this$[ebp]
  002ba	52		 push	 edx
  002bb	e8 00 00 00 00	 call	 ?GetInstance@CWindowsMover@@SAPAV1@XZ ; CWindowsMover::GetInstance
  002c0	8b c8		 mov	 ecx, eax
  002c2	e8 00 00 00 00	 call	 ?AddWndindow@CWindowsMover@@QAEXPAVCWnd@@_N@Z ; CWindowsMover::AddWndindow

; 52   : 
; 53   : 	m_btnClose.Create(NULL,WS_VISIBLE,CRect(0,0,0,0),this,ID_BTN_CLOSE);

  002c7	6a 09		 push	 9
  002c9	8b 45 bc	 mov	 eax, DWORD PTR _this$[ebp]
  002cc	50		 push	 eax
  002cd	6a 00		 push	 0
  002cf	6a 00		 push	 0
  002d1	6a 00		 push	 0
  002d3	6a 00		 push	 0
  002d5	8d 4d e4	 lea	 ecx, DWORD PTR $T199267[ebp]
  002d8	e8 00 00 00 00	 call	 ??0CRect@@QAE@HHHH@Z	; CRect::CRect
  002dd	50		 push	 eax
  002de	68 00 00 00 10	 push	 268435456		; 10000000H
  002e3	6a 00		 push	 0
  002e5	8b 4d bc	 mov	 ecx, DWORD PTR _this$[ebp]
  002e8	81 c1 10 01 00
	00		 add	 ecx, 272		; 00000110H
  002ee	8b 55 bc	 mov	 edx, DWORD PTR _this$[ebp]
  002f1	8b 82 10 01 00
	00		 mov	 eax, DWORD PTR [edx+272]
  002f7	ff 90 38 01 00
	00		 call	 DWORD PTR [eax+312]

; 54   : 
; 55   : 	if(m_strContent != "")

  002fd	68 00 00 00 00	 push	 OFFSET FLAT:$SG198457
  00302	8b 4d bc	 mov	 ecx, DWORD PTR _this$[ebp]
  00305	81 c1 04 01 00
	00		 add	 ecx, 260		; 00000104H
  0030b	51		 push	 ecx
  0030c	e8 00 00 00 00	 call	 ??9ATL@@YA_NABV?$CStringT@DV?$StrTraitMFC_DLL@DV?$ChTraitsCRT@D@ATL@@@@@0@PBD@Z ; ATL::operator!=
  00311	83 c4 08	 add	 esp, 8
  00314	0f b6 d0	 movzx	 edx, al
  00317	85 d2		 test	 edx, edx
  00319	0f 84 93 02 00
	00		 je	 $L198456

; 56   : 	{
; 57   : 		AfxGetUIManager()->UIGetLayoutMgr()->RegisterCtrl( this,"Close",&m_btnClose);

  0031f	8b 45 bc	 mov	 eax, DWORD PTR _this$[ebp]
  00322	05 10 01 00 00	 add	 eax, 272		; 00000110H
  00327	50		 push	 eax
  00328	51		 push	 ecx
  00329	8b cc		 mov	 ecx, esp
  0032b	89 65 e0	 mov	 DWORD PTR $T199268[ebp], esp
  0032e	68 00 00 00 00	 push	 OFFSET FLAT:$SG198459
  00333	ff 15 00 00 00
	00		 call	 DWORD PTR __imp_??0?$CStringT@DV?$StrTraitMFC_DLL@DV?$ChTraitsCRT@D@ATL@@@@@ATL@@QAE@PBD@Z
  00339	89 45 b8	 mov	 DWORD PTR tv325[ebp], eax
  0033c	8b 4d b8	 mov	 ecx, DWORD PTR tv325[ebp]
  0033f	89 4d b4	 mov	 DWORD PTR tv304[ebp], ecx
  00342	c7 45 fc 00 00
	00 00		 mov	 DWORD PTR __$EHRec$[ebp+8], 0
  00349	e8 00 00 00 00	 call	 ?AfxGetUIManager@@YAPAVIUIManager@@XZ ; AfxGetUIManager
  0034e	89 45 b0	 mov	 DWORD PTR tv129[ebp], eax
  00351	8b 55 b0	 mov	 edx, DWORD PTR tv129[ebp]
  00354	8b 02		 mov	 eax, DWORD PTR [edx]
  00356	8b 4d b0	 mov	 ecx, DWORD PTR tv129[ebp]
  00359	ff 50 24	 call	 DWORD PTR [eax+36]
  0035c	89 45 ac	 mov	 DWORD PTR tv134[ebp], eax
  0035f	8b 4d bc	 mov	 ecx, DWORD PTR _this$[ebp]
  00362	51		 push	 ecx
  00363	8b 55 ac	 mov	 edx, DWORD PTR tv134[ebp]
  00366	8b 02		 mov	 eax, DWORD PTR [edx]
  00368	c7 45 fc ff ff
	ff ff		 mov	 DWORD PTR __$EHRec$[ebp+8], -1
  0036f	8b 4d ac	 mov	 ecx, DWORD PTR tv134[ebp]
  00372	ff 50 34	 call	 DWORD PTR [eax+52]

; 58   : 		AfxGetUIManager()->UIGetLayoutMgr()->CreateControlPane(this,m_strContent, "");

  00375	51		 push	 ecx
  00376	8b cc		 mov	 ecx, esp
  00378	89 65 dc	 mov	 DWORD PTR $T199269[ebp], esp
  0037b	68 00 00 00 00	 push	 OFFSET FLAT:$SG198462
  00380	ff 15 00 00 00
	00		 call	 DWORD PTR __imp_??0?$CStringT@DV?$StrTraitMFC_DLL@DV?$ChTraitsCRT@D@ATL@@@@@ATL@@QAE@PBD@Z
  00386	89 45 a8	 mov	 DWORD PTR tv326[ebp], eax
  00389	8b 4d a8	 mov	 ecx, DWORD PTR tv326[ebp]
  0038c	89 4d a4	 mov	 DWORD PTR tv306[ebp], ecx
  0038f	c7 45 fc 01 00
	00 00		 mov	 DWORD PTR __$EHRec$[ebp+8], 1
  00396	8b 55 bc	 mov	 edx, DWORD PTR _this$[ebp]
  00399	81 c2 04 01 00
	00		 add	 edx, 260		; 00000104H
  0039f	51		 push	 ecx
  003a0	8b cc		 mov	 ecx, esp
  003a2	89 65 d8	 mov	 DWORD PTR $T199270[ebp], esp
  003a5	52		 push	 edx
  003a6	ff 15 00 00 00
	00		 call	 DWORD PTR __imp_??0?$CStringT@DV?$StrTraitMFC_DLL@DV?$ChTraitsCRT@D@ATL@@@@@ATL@@QAE@ABV01@@Z
  003ac	89 45 a0	 mov	 DWORD PTR tv327[ebp], eax
  003af	8b 45 a0	 mov	 eax, DWORD PTR tv327[ebp]
  003b2	89 45 9c	 mov	 DWORD PTR tv309[ebp], eax
  003b5	c6 45 fc 02	 mov	 BYTE PTR __$EHRec$[ebp+8], 2
  003b9	e8 00 00 00 00	 call	 ?AfxGetUIManager@@YAPAVIUIManager@@XZ ; AfxGetUIManager
  003be	89 45 98	 mov	 DWORD PTR tv156[ebp], eax
  003c1	8b 4d 98	 mov	 ecx, DWORD PTR tv156[ebp]
  003c4	8b 11		 mov	 edx, DWORD PTR [ecx]
  003c6	8b 4d 98	 mov	 ecx, DWORD PTR tv156[ebp]
  003c9	ff 52 24	 call	 DWORD PTR [edx+36]
  003cc	89 45 94	 mov	 DWORD PTR tv161[ebp], eax
  003cf	8b 45 bc	 mov	 eax, DWORD PTR _this$[ebp]
  003d2	50		 push	 eax
  003d3	8b 4d 94	 mov	 ecx, DWORD PTR tv161[ebp]
  003d6	8b 11		 mov	 edx, DWORD PTR [ecx]
  003d8	c7 45 fc ff ff
	ff ff		 mov	 DWORD PTR __$EHRec$[ebp+8], -1
  003df	8b 4d 94	 mov	 ecx, DWORD PTR tv161[ebp]
  003e2	ff 52 38	 call	 DWORD PTR [edx+56]

; 59   : 		AfxGetUIManager()->UIGetLayoutMgr()->CreateBmpPane(this, m_strContent, "");

  003e5	51		 push	 ecx
  003e6	8b cc		 mov	 ecx, esp
  003e8	89 65 d4	 mov	 DWORD PTR $T199271[ebp], esp
  003eb	68 00 00 00 00	 push	 OFFSET FLAT:$SG198465
  003f0	ff 15 00 00 00
	00		 call	 DWORD PTR __imp_??0?$CStringT@DV?$StrTraitMFC_DLL@DV?$ChTraitsCRT@D@ATL@@@@@ATL@@QAE@PBD@Z
  003f6	89 45 90	 mov	 DWORD PTR tv328[ebp], eax
  003f9	8b 45 90	 mov	 eax, DWORD PTR tv328[ebp]
  003fc	89 45 8c	 mov	 DWORD PTR tv311[ebp], eax
  003ff	c7 45 fc 03 00
	00 00		 mov	 DWORD PTR __$EHRec$[ebp+8], 3
  00406	8b 4d bc	 mov	 ecx, DWORD PTR _this$[ebp]
  00409	81 c1 04 01 00
	00		 add	 ecx, 260		; 00000104H
  0040f	51		 push	 ecx
  00410	8b d4		 mov	 edx, esp
  00412	89 65 d0	 mov	 DWORD PTR $T199272[ebp], esp
  00415	51		 push	 ecx
  00416	8b ca		 mov	 ecx, edx
  00418	ff 15 00 00 00
	00		 call	 DWORD PTR __imp_??0?$CStringT@DV?$StrTraitMFC_DLL@DV?$ChTraitsCRT@D@ATL@@@@@ATL@@QAE@ABV01@@Z
  0041e	89 45 88	 mov	 DWORD PTR tv329[ebp], eax
  00421	8b 45 88	 mov	 eax, DWORD PTR tv329[ebp]
  00424	89 45 84	 mov	 DWORD PTR tv314[ebp], eax
  00427	c6 45 fc 04	 mov	 BYTE PTR __$EHRec$[ebp+8], 4
  0042b	e8 00 00 00 00	 call	 ?AfxGetUIManager@@YAPAVIUIManager@@XZ ; AfxGetUIManager
  00430	89 45 80	 mov	 DWORD PTR tv195[ebp], eax
  00433	8b 4d 80	 mov	 ecx, DWORD PTR tv195[ebp]
  00436	8b 11		 mov	 edx, DWORD PTR [ecx]
  00438	8b 4d 80	 mov	 ecx, DWORD PTR tv195[ebp]
  0043b	ff 52 24	 call	 DWORD PTR [edx+36]
  0043e	89 85 7c ff ff
	ff		 mov	 DWORD PTR tv200[ebp], eax
  00444	8b 45 bc	 mov	 eax, DWORD PTR _this$[ebp]
  00447	50		 push	 eax
  00448	8b 8d 7c ff ff
	ff		 mov	 ecx, DWORD PTR tv200[ebp]
  0044e	8b 11		 mov	 edx, DWORD PTR [ecx]
  00450	c7 45 fc ff ff
	ff ff		 mov	 DWORD PTR __$EHRec$[ebp+8], -1
  00457	8b 8d 7c ff ff
	ff		 mov	 ecx, DWORD PTR tv200[ebp]
  0045d	ff 52 58	 call	 DWORD PTR [edx+88]

; 60   : 		m_nMinCx = atoi(AfxGetUIManager()->UIGetLayoutMgr()->GetWndParameter(m_hWnd, "sizeXMin"));

  00460	51		 push	 ecx
  00461	8b cc		 mov	 ecx, esp
  00463	89 65 cc	 mov	 DWORD PTR $T199273[ebp], esp
  00466	68 00 00 00 00	 push	 OFFSET FLAT:$SG198468
  0046b	ff 15 00 00 00
	00		 call	 DWORD PTR __imp_??0?$CStringT@DV?$StrTraitMFC_DLL@DV?$ChTraitsCRT@D@ATL@@@@@ATL@@QAE@PBD@Z
  00471	89 85 78 ff ff
	ff		 mov	 DWORD PTR tv330[ebp], eax
  00477	8b 85 78 ff ff
	ff		 mov	 eax, DWORD PTR tv330[ebp]
  0047d	89 85 74 ff ff
	ff		 mov	 DWORD PTR tv316[ebp], eax
  00483	c7 45 fc 05 00
	00 00		 mov	 DWORD PTR __$EHRec$[ebp+8], 5
  0048a	e8 00 00 00 00	 call	 ?AfxGetUIManager@@YAPAVIUIManager@@XZ ; AfxGetUIManager
  0048f	89 85 70 ff ff
	ff		 mov	 DWORD PTR tv236[ebp], eax
  00495	8b 8d 70 ff ff
	ff		 mov	 ecx, DWORD PTR tv236[ebp]
  0049b	8b 11		 mov	 edx, DWORD PTR [ecx]
  0049d	8b 8d 70 ff ff
	ff		 mov	 ecx, DWORD PTR tv236[ebp]
  004a3	ff 52 24	 call	 DWORD PTR [edx+36]
  004a6	89 85 6c ff ff
	ff		 mov	 DWORD PTR tv241[ebp], eax
  004ac	8b 45 bc	 mov	 eax, DWORD PTR _this$[ebp]
  004af	8b 48 20	 mov	 ecx, DWORD PTR [eax+32]
  004b2	51		 push	 ecx
  004b3	8d 55 c8	 lea	 edx, DWORD PTR $T199274[ebp]
  004b6	52		 push	 edx
  004b7	8b 85 6c ff ff
	ff		 mov	 eax, DWORD PTR tv241[ebp]
  004bd	8b 10		 mov	 edx, DWORD PTR [eax]
  004bf	c7 45 fc ff ff
	ff ff		 mov	 DWORD PTR __$EHRec$[ebp+8], -1
  004c6	8b 8d 6c ff ff
	ff		 mov	 ecx, DWORD PTR tv241[ebp]
  004cc	ff 52 54	 call	 DWORD PTR [edx+84]
  004cf	89 85 68 ff ff
	ff		 mov	 DWORD PTR tv317[ebp], eax
  004d5	8b 85 68 ff ff
	ff		 mov	 eax, DWORD PTR tv317[ebp]
  004db	89 85 64 ff ff
	ff		 mov	 DWORD PTR tv319[ebp], eax
  004e1	8b 8d 64 ff ff
	ff		 mov	 ecx, DWORD PTR tv319[ebp]
  004e7	ff 15 00 00 00
	00		 call	 DWORD PTR __imp_??B?$CSimpleStringT@D$00@ATL@@QBEPBDXZ
  004ed	50		 push	 eax
  004ee	ff 15 00 00 00
	00		 call	 DWORD PTR __imp__atoi
  004f4	83 c4 04	 add	 esp, 4
  004f7	8b 4d bc	 mov	 ecx, DWORD PTR _this$[ebp]
  004fa	89 81 08 01 00
	00		 mov	 DWORD PTR [ecx+264], eax
  00500	8d 4d c8	 lea	 ecx, DWORD PTR $T199274[ebp]
  00503	ff 15 00 00 00
	00		 call	 DWORD PTR __imp_??1?$CStringT@DV?$StrTraitMFC_DLL@DV?$ChTraitsCRT@D@ATL@@@@@ATL@@QAE@XZ

; 61   : 		m_nMinCy = atoi(AfxGetUIManager()->UIGetLayoutMgr()->GetWndParameter(m_hWnd, "sizeYMin"));

  00509	51		 push	 ecx
  0050a	8b cc		 mov	 ecx, esp
  0050c	89 65 c4	 mov	 DWORD PTR $T199275[ebp], esp
  0050f	68 00 00 00 00	 push	 OFFSET FLAT:$SG198471
  00514	ff 15 00 00 00
	00		 call	 DWORD PTR __imp_??0?$CStringT@DV?$StrTraitMFC_DLL@DV?$ChTraitsCRT@D@ATL@@@@@ATL@@QAE@PBD@Z
  0051a	89 85 60 ff ff
	ff		 mov	 DWORD PTR tv331[ebp], eax
  00520	8b 95 60 ff ff
	ff		 mov	 edx, DWORD PTR tv331[ebp]
  00526	89 95 5c ff ff
	ff		 mov	 DWORD PTR tv321[ebp], edx
  0052c	c7 45 fc 06 00
	00 00		 mov	 DWORD PTR __$EHRec$[ebp+8], 6
  00533	e8 00 00 00 00	 call	 ?AfxGetUIManager@@YAPAVIUIManager@@XZ ; AfxGetUIManager
  00538	89 85 58 ff ff
	ff		 mov	 DWORD PTR tv271[ebp], eax
  0053e	8b 85 58 ff ff
	ff		 mov	 eax, DWORD PTR tv271[ebp]
  00544	8b 10		 mov	 edx, DWORD PTR [eax]
  00546	8b 8d 58 ff ff
	ff		 mov	 ecx, DWORD PTR tv271[ebp]
  0054c	ff 52 24	 call	 DWORD PTR [edx+36]
  0054f	89 85 54 ff ff
	ff		 mov	 DWORD PTR tv276[ebp], eax
  00555	8b 45 bc	 mov	 eax, DWORD PTR _this$[ebp]
  00558	8b 48 20	 mov	 ecx, DWORD PTR [eax+32]
  0055b	51		 push	 ecx
  0055c	8d 55 c0	 lea	 edx, DWORD PTR $T199276[ebp]
  0055f	52		 push	 edx
  00560	8b 85 54 ff ff
	ff		 mov	 eax, DWORD PTR tv276[ebp]
  00566	8b 10		 mov	 edx, DWORD PTR [eax]
  00568	c7 45 fc ff ff
	ff ff		 mov	 DWORD PTR __$EHRec$[ebp+8], -1
  0056f	8b 8d 54 ff ff
	ff		 mov	 ecx, DWORD PTR tv276[ebp]
  00575	ff 52 54	 call	 DWORD PTR [edx+84]
  00578	89 85 50 ff ff
	ff		 mov	 DWORD PTR tv322[ebp], eax
  0057e	8b 85 50 ff ff
	ff		 mov	 eax, DWORD PTR tv322[ebp]
  00584	89 85 4c ff ff
	ff		 mov	 DWORD PTR tv324[ebp], eax
  0058a	8b 8d 4c ff ff
	ff		 mov	 ecx, DWORD PTR tv324[ebp]
  00590	ff 15 00 00 00
	00		 call	 DWORD PTR __imp_??B?$CSimpleStringT@D$00@ATL@@QBEPBDXZ
  00596	50		 push	 eax
  00597	ff 15 00 00 00
	00		 call	 DWORD PTR __imp__atoi
  0059d	83 c4 04	 add	 esp, 4
  005a0	8b 4d bc	 mov	 ecx, DWORD PTR _this$[ebp]
  005a3	89 81 0c 01 00
	00		 mov	 DWORD PTR [ecx+268], eax
  005a9	8d 4d c0	 lea	 ecx, DWORD PTR $T199276[ebp]
  005ac	ff 15 00 00 00
	00		 call	 DWORD PTR __imp_??1?$CStringT@DV?$StrTraitMFC_DLL@DV?$ChTraitsCRT@D@ATL@@@@@ATL@@QAE@XZ
$L198456:

; 62   : 	}
; 63   : 
; 64   : 	return TRUE;

  005b2	b8 01 00 00 00	 mov	 eax, 1

; 65   : }

  005b7	8b 4d f4	 mov	 ecx, DWORD PTR __$EHRec$[ebp]
  005ba	64 89 0d 00 00
	00 00		 mov	 DWORD PTR fs:__except_list, ecx
  005c1	8b e5		 mov	 esp, ebp
  005c3	5d		 pop	 ebp
  005c4	c3		 ret	 0
_TEXT	ENDS
text$x	SEGMENT
$L199277:
  0008c	8b 4d e0	 mov	 ecx, DWORD PTR $T199268[ebp]
  0008f	ff 25 00 00 00
	00		 jmp	 DWORD PTR __imp_??1?$CStringT@DV?$StrTraitMFC_DLL@DV?$ChTraitsCRT@D@ATL@@@@@ATL@@QAE@XZ
$L199278:
  00095	8b 4d dc	 mov	 ecx, DWORD PTR $T199269[ebp]
  00098	ff 25 00 00 00
	00		 jmp	 DWORD PTR __imp_??1?$CStringT@DV?$StrTraitMFC_DLL@DV?$ChTraitsCRT@D@ATL@@@@@ATL@@QAE@XZ
$L199279:
  0009e	8b 4d d8	 mov	 ecx, DWORD PTR $T199270[ebp]
  000a1	ff 25 00 00 00
	00		 jmp	 DWORD PTR __imp_??1?$CStringT@DV?$StrTraitMFC_DLL@DV?$ChTraitsCRT@D@ATL@@@@@ATL@@QAE@XZ
$L199280:
  000a7	8b 4d d4	 mov	 ecx, DWORD PTR $T199271[ebp]
  000aa	ff 25 00 00 00
	00		 jmp	 DWORD PTR __imp_??1?$CStringT@DV?$StrTraitMFC_DLL@DV?$ChTraitsCRT@D@ATL@@@@@ATL@@QAE@XZ
$L199281:
  000b0	8b 4d d0	 mov	 ecx, DWORD PTR $T199272[ebp]
  000b3	ff 25 00 00 00
	00		 jmp	 DWORD PTR __imp_??1?$CStringT@DV?$StrTraitMFC_DLL@DV?$ChTraitsCRT@D@ATL@@@@@ATL@@QAE@XZ
$L199282:
  000b9	8b 4d cc	 mov	 ecx, DWORD PTR $T199273[ebp]
  000bc	ff 25 00 00 00
	00		 jmp	 DWORD PTR __imp_??1?$CStringT@DV?$StrTraitMFC_DLL@DV?$ChTraitsCRT@D@ATL@@@@@ATL@@QAE@XZ
$L199284:
  000c2	8b 4d c4	 mov	 ecx, DWORD PTR $T199275[ebp]
  000c5	ff 25 00 00 00
	00		 jmp	 DWORD PTR __imp_??1?$CStringT@DV?$StrTraitMFC_DLL@DV?$ChTraitsCRT@D@ATL@@@@@ATL@@QAE@XZ
__ehhandler$?OnInitDialog@CHostWnd@@MAEHXZ:
  000cb	b8 00 00 00 00	 mov	 eax, OFFSET FLAT:$T199287
  000d0	e9 00 00 00 00	 jmp	 ___CxxFrameHandler
text$x	ENDS
?OnInitDialog@CHostWnd@@MAEHXZ ENDP			; CHostWnd::OnInitDialog
PUBLIC	?GetWindowRect@CWnd@@QBEXPAUtagRECT@@@Z		; CWnd::GetWindowRect
PUBLIC	?ClientToScreen@CWnd@@QBEXPAUtagPOINT@@@Z	; CWnd::ClientToScreen
PUBLIC	?DrawMoveFrame@CHostWnd@@IAEXVCRect@@@Z		; CHostWnd::DrawMoveFrame
PUBLIC	?SetCapture@CWnd@@QAEPAV1@XZ			; CWnd::SetCapture
PUBLIC	??BCRect@@QAEPAUtagRECT@@XZ			; CRect::operator tagRECT *
EXTRN	?DoMouseDown@CWindowsMover@@QAEXPAUHWND__@@VCPoint@@@Z:NEAR ; CWindowsMover::DoMouseDown
; Function compile flags: /Odt
_TEXT	SEGMENT
_this$ = -4						; size = 4
_nFlags$ = 8						; size = 4
_point$ = 12						; size = 8
?OnLButtonDown@CHostWnd@@IAEXIVCPoint@@@Z PROC NEAR	; CHostWnd::OnLButtonDown
; _this$ = ecx

; 68   : {	

  005d0	55		 push	 ebp
  005d1	8b ec		 mov	 ebp, esp
  005d3	51		 push	 ecx
  005d4	89 4d fc	 mov	 DWORD PTR _this$[ebp], ecx

; 69   : ;//	PostMessage( WM_NCLBUTTONDOWN, HTCAPTION, (LPARAM)&point );	
; 70   : 
; 71   : 	m_iDirection = 0;

  005d7	8b 45 fc	 mov	 eax, DWORD PTR _this$[ebp]
  005da	c7 80 9c 00 00
	00 00 00 00 00	 mov	 DWORD PTR [eax+156], 0

; 72   : 
; 73   : 	if( _needChangeCursor(point))

  005e4	8d 4d 0c	 lea	 ecx, DWORD PTR _point$[ebp]
  005e7	51		 push	 ecx
  005e8	8b 55 fc	 mov	 edx, DWORD PTR _this$[ebp]
  005eb	8b 02		 mov	 eax, DWORD PTR [edx]
  005ed	8b 4d fc	 mov	 ecx, DWORD PTR _this$[ebp]
  005f0	ff 90 60 01 00
	00		 call	 DWORD PTR [eax+352]
  005f6	0f b6 c8	 movzx	 ecx, al
  005f9	85 c9		 test	 ecx, ecx
  005fb	0f 84 99 00 00
	00		 je	 $L198477

; 74   : 	{
; 75   : 		m_bChangeCursor  = true;

  00601	8b 55 fc	 mov	 edx, DWORD PTR _this$[ebp]
  00604	c6 82 a0 00 00
	00 01		 mov	 BYTE PTR [edx+160], 1

; 76   : 		SetCapture();		

  0060b	8b 4d fc	 mov	 ecx, DWORD PTR _this$[ebp]
  0060e	e8 00 00 00 00	 call	 ?SetCapture@CWnd@@QAEPAV1@XZ ; CWnd::SetCapture

; 77   : 		m_isResizing = TRUE;

  00613	8b 45 fc	 mov	 eax, DWORD PTR _this$[ebp]
  00616	c6 80 a1 00 00
	00 01		 mov	 BYTE PTR [eax+161], 1

; 78   : 		m_ptStartResizing = point;

  0061d	8b 4d fc	 mov	 ecx, DWORD PTR _this$[ebp]
  00620	8b 55 0c	 mov	 edx, DWORD PTR _point$[ebp]
  00623	89 91 a4 00 00
	00		 mov	 DWORD PTR [ecx+164], edx
  00629	8b 45 10	 mov	 eax, DWORD PTR _point$[ebp+4]
  0062c	89 81 a8 00 00
	00		 mov	 DWORD PTR [ecx+168], eax

; 79   : 		ClientToScreen( &m_ptStartResizing );

  00632	8b 4d fc	 mov	 ecx, DWORD PTR _this$[ebp]
  00635	81 c1 a4 00 00
	00		 add	 ecx, 164		; 000000a4H
  0063b	51		 push	 ecx
  0063c	8b 4d fc	 mov	 ecx, DWORD PTR _this$[ebp]
  0063f	e8 00 00 00 00	 call	 ?ClientToScreen@CWnd@@QBEXPAUtagPOINT@@@Z ; CWnd::ClientToScreen

; 80   : 		GetWindowRect( m_rectStarResizing );

  00644	8b 4d fc	 mov	 ecx, DWORD PTR _this$[ebp]
  00647	81 c1 ac 00 00
	00		 add	 ecx, 172		; 000000acH
  0064d	e8 00 00 00 00	 call	 ??BCRect@@QAEPAUtagRECT@@XZ ; CRect::operator tagRECT *
  00652	50		 push	 eax
  00653	8b 4d fc	 mov	 ecx, DWORD PTR _this$[ebp]
  00656	e8 00 00 00 00	 call	 ?GetWindowRect@CWnd@@QBEXPAUtagRECT@@@Z ; CWnd::GetWindowRect

; 81   : 		GetWindowRect(&m_rcMain);

  0065b	8b 55 fc	 mov	 edx, DWORD PTR _this$[ebp]
  0065e	81 c2 bc 00 00
	00		 add	 edx, 188		; 000000bcH
  00664	52		 push	 edx
  00665	8b 4d fc	 mov	 ecx, DWORD PTR _this$[ebp]
  00668	e8 00 00 00 00	 call	 ?GetWindowRect@CWnd@@QBEXPAUtagRECT@@@Z ; CWnd::GetWindowRect

; 82   : 		DrawMoveFrame(m_rcMain);

  0066d	8b 45 fc	 mov	 eax, DWORD PTR _this$[ebp]
  00670	05 bc 00 00 00	 add	 eax, 188		; 000000bcH
  00675	83 ec 10	 sub	 esp, 16			; 00000010H
  00678	8b cc		 mov	 ecx, esp
  0067a	8b 10		 mov	 edx, DWORD PTR [eax]
  0067c	89 11		 mov	 DWORD PTR [ecx], edx
  0067e	8b 50 04	 mov	 edx, DWORD PTR [eax+4]
  00681	89 51 04	 mov	 DWORD PTR [ecx+4], edx
  00684	8b 50 08	 mov	 edx, DWORD PTR [eax+8]
  00687	89 51 08	 mov	 DWORD PTR [ecx+8], edx
  0068a	8b 40 0c	 mov	 eax, DWORD PTR [eax+12]
  0068d	89 41 0c	 mov	 DWORD PTR [ecx+12], eax
  00690	8b 4d fc	 mov	 ecx, DWORD PTR _this$[ebp]
  00693	e8 00 00 00 00	 call	 ?DrawMoveFrame@CHostWnd@@IAEXVCRect@@@Z ; CHostWnd::DrawMoveFrame

; 83   : 		return ;

  00698	eb 33		 jmp	 SHORT $L198476
$L198477:

; 84   : 	}		
; 85   : 	if(!m_isResizing)

  0069a	8b 4d fc	 mov	 ecx, DWORD PTR _this$[ebp]
  0069d	0f b6 91 a1 00
	00 00		 movzx	 edx, BYTE PTR [ecx+161]
  006a4	85 d2		 test	 edx, edx
  006a6	75 1b		 jne	 SHORT $L198478

; 86   : 		CWindowsMover::GetInstance()->DoMouseDown(m_hWnd, point);

  006a8	8b 45 10	 mov	 eax, DWORD PTR _point$[ebp+4]
  006ab	50		 push	 eax
  006ac	8b 4d 0c	 mov	 ecx, DWORD PTR _point$[ebp]
  006af	51		 push	 ecx
  006b0	8b 55 fc	 mov	 edx, DWORD PTR _this$[ebp]
  006b3	8b 42 20	 mov	 eax, DWORD PTR [edx+32]
  006b6	50		 push	 eax
  006b7	e8 00 00 00 00	 call	 ?GetInstance@CWindowsMover@@SAPAV1@XZ ; CWindowsMover::GetInstance
  006bc	8b c8		 mov	 ecx, eax
  006be	e8 00 00 00 00	 call	 ?DoMouseDown@CWindowsMover@@QAEXPAUHWND__@@VCPoint@@@Z ; CWindowsMover::DoMouseDown
$L198478:

; 87   : 	m_isResizing = FALSE;

  006c3	8b 4d fc	 mov	 ecx, DWORD PTR _this$[ebp]
  006c6	c6 81 a1 00 00
	00 00		 mov	 BYTE PTR [ecx+161], 0
$L198476:

; 88   : 
; 89   : }

  006cd	8b e5		 mov	 esp, ebp
  006cf	5d		 pop	 ebp
  006d0	c2 0c 00	 ret	 12			; 0000000cH
?OnLButtonDown@CHostWnd@@IAEXIVCPoint@@@Z ENDP		; CHostWnd::OnLButtonDown
_TEXT	ENDS
PUBLIC	?Width@CRect@@QBEHXZ				; CRect::Width
PUBLIC	?Height@CRect@@QBEHXZ				; CRect::Height
PUBLIC	?MoveWindow@CWnd@@QAEXPBUtagRECT@@H@Z		; CWnd::MoveWindow
EXTRN	__imp__InvalidateRect@12:NEAR
EXTRN	?DoMouseResizingFinished@CWindowsMover@@QAEXPAUHWND__@@IVCPoint@@H@Z:NEAR ; CWindowsMover::DoMouseResizingFinished
EXTRN	?DoMouseUp@CWindowsMover@@QAEXPAUHWND__@@VCPoint@@@Z:NEAR ; CWindowsMover::DoMouseUp
EXTRN	__imp__GetDesktopWindow@0:NEAR
EXTRN	__imp__GetCapture@0:NEAR
EXTRN	__imp__ReleaseCapture@0:NEAR
; Function compile flags: /Odt
_TEXT	SEGMENT
_this$ = -20						; size = 4
_rc$198486 = -16					; size = 16
_nFlags$ = 8						; size = 4
_point$ = 12						; size = 8
?OnLButtonUp@CHostWnd@@IAEXIVCPoint@@@Z PROC NEAR	; CHostWnd::OnLButtonUp
; _this$ = ecx

; 92   : {

  006e0	55		 push	 ebp
  006e1	8b ec		 mov	 ebp, esp
  006e3	83 ec 14	 sub	 esp, 20			; 00000014H
  006e6	56		 push	 esi
  006e7	89 4d ec	 mov	 DWORD PTR _this$[ebp], ecx

; 93   : 	if(!m_isResizing)

  006ea	8b 45 ec	 mov	 eax, DWORD PTR _this$[ebp]
  006ed	0f b6 88 a1 00
	00 00		 movzx	 ecx, BYTE PTR [eax+161]
  006f4	85 c9		 test	 ecx, ecx
  006f6	75 1b		 jne	 SHORT $L198484

; 94   : 		CWindowsMover::GetInstance()->DoMouseUp(this->m_hWnd, point);

  006f8	8b 55 10	 mov	 edx, DWORD PTR _point$[ebp+4]
  006fb	52		 push	 edx
  006fc	8b 45 0c	 mov	 eax, DWORD PTR _point$[ebp]
  006ff	50		 push	 eax
  00700	8b 4d ec	 mov	 ecx, DWORD PTR _this$[ebp]
  00703	8b 51 20	 mov	 edx, DWORD PTR [ecx+32]
  00706	52		 push	 edx
  00707	e8 00 00 00 00	 call	 ?GetInstance@CWindowsMover@@SAPAV1@XZ ; CWindowsMover::GetInstance
  0070c	8b c8		 mov	 ecx, eax
  0070e	e8 00 00 00 00	 call	 ?DoMouseUp@CWindowsMover@@QAEXPAUHWND__@@VCPoint@@@Z ; CWindowsMover::DoMouseUp
$L198484:

; 95   : 
; 96   : 	if( m_isResizing )

  00713	8b 45 ec	 mov	 eax, DWORD PTR _this$[ebp]
  00716	0f b6 88 a1 00
	00 00		 movzx	 ecx, BYTE PTR [eax+161]
  0071d	85 c9		 test	 ecx, ecx
  0071f	0f 84 da 00 00
	00		 je	 $L198485

; 97   : 	{
; 98   : 		DrawMoveFrame(m_rcMain);

  00725	8b 55 ec	 mov	 edx, DWORD PTR _this$[ebp]
  00728	81 c2 bc 00 00
	00		 add	 edx, 188		; 000000bcH
  0072e	83 ec 10	 sub	 esp, 16			; 00000010H
  00731	8b c4		 mov	 eax, esp
  00733	8b 0a		 mov	 ecx, DWORD PTR [edx]
  00735	89 08		 mov	 DWORD PTR [eax], ecx
  00737	8b 4a 04	 mov	 ecx, DWORD PTR [edx+4]
  0073a	89 48 04	 mov	 DWORD PTR [eax+4], ecx
  0073d	8b 4a 08	 mov	 ecx, DWORD PTR [edx+8]
  00740	89 48 08	 mov	 DWORD PTR [eax+8], ecx
  00743	8b 52 0c	 mov	 edx, DWORD PTR [edx+12]
  00746	89 50 0c	 mov	 DWORD PTR [eax+12], edx
  00749	8b 4d ec	 mov	 ecx, DWORD PTR _this$[ebp]
  0074c	e8 00 00 00 00	 call	 ?DrawMoveFrame@CHostWnd@@IAEXVCRect@@@Z ; CHostWnd::DrawMoveFrame

; 99   : 		CRect rc;

  00751	8d 4d f0	 lea	 ecx, DWORD PTR _rc$198486[ebp]
  00754	e8 00 00 00 00	 call	 ??0CRect@@QAE@XZ	; CRect::CRect

; 100  : 		this->GetWindowRect(&rc);

  00759	8d 45 f0	 lea	 eax, DWORD PTR _rc$198486[ebp]
  0075c	50		 push	 eax
  0075d	8b 4d ec	 mov	 ecx, DWORD PTR _this$[ebp]
  00760	e8 00 00 00 00	 call	 ?GetWindowRect@CWnd@@QBEXPAUtagRECT@@@Z ; CWnd::GetWindowRect

; 101  : 		m_nDeltaHeight = m_rcMain.Height() - rc.Height();

  00765	8b 4d ec	 mov	 ecx, DWORD PTR _this$[ebp]
  00768	81 c1 bc 00 00
	00		 add	 ecx, 188		; 000000bcH
  0076e	e8 00 00 00 00	 call	 ?Height@CRect@@QBEHXZ	; CRect::Height
  00773	8b f0		 mov	 esi, eax
  00775	8d 4d f0	 lea	 ecx, DWORD PTR _rc$198486[ebp]
  00778	e8 00 00 00 00	 call	 ?Height@CRect@@QBEHXZ	; CRect::Height
  0077d	2b f0		 sub	 esi, eax
  0077f	8b 4d ec	 mov	 ecx, DWORD PTR _this$[ebp]
  00782	89 71 74	 mov	 DWORD PTR [ecx+116], esi

; 102  : 		m_nDeltaWidth = m_rcMain.Width() - rc.Width();

  00785	8b 4d ec	 mov	 ecx, DWORD PTR _this$[ebp]
  00788	81 c1 bc 00 00
	00		 add	 ecx, 188		; 000000bcH
  0078e	e8 00 00 00 00	 call	 ?Width@CRect@@QBEHXZ	; CRect::Width
  00793	8b f0		 mov	 esi, eax
  00795	8d 4d f0	 lea	 ecx, DWORD PTR _rc$198486[ebp]
  00798	e8 00 00 00 00	 call	 ?Width@CRect@@QBEHXZ	; CRect::Width
  0079d	2b f0		 sub	 esi, eax
  0079f	8b 55 ec	 mov	 edx, DWORD PTR _this$[ebp]
  007a2	89 72 78	 mov	 DWORD PTR [edx+120], esi

; 103  : 		MoveWindow( m_rcMain,true );

  007a5	6a 01		 push	 1
  007a7	8b 4d ec	 mov	 ecx, DWORD PTR _this$[ebp]
  007aa	81 c1 bc 00 00
	00		 add	 ecx, 188		; 000000bcH
  007b0	e8 00 00 00 00	 call	 ??BCRect@@QAEPAUtagRECT@@XZ ; CRect::operator tagRECT *
  007b5	50		 push	 eax
  007b6	8b 4d ec	 mov	 ecx, DWORD PTR _this$[ebp]
  007b9	e8 00 00 00 00	 call	 ?MoveWindow@CWnd@@QAEXPBUtagRECT@@H@Z ; CWnd::MoveWindow

; 104  : 		::InvalidateRect(::GetDesktopWindow(), &m_rcMain, true);

  007be	6a 01		 push	 1
  007c0	8b 45 ec	 mov	 eax, DWORD PTR _this$[ebp]
  007c3	05 bc 00 00 00	 add	 eax, 188		; 000000bcH
  007c8	50		 push	 eax
  007c9	ff 15 00 00 00
	00		 call	 DWORD PTR __imp__GetDesktopWindow@0
  007cf	50		 push	 eax
  007d0	ff 15 00 00 00
	00		 call	 DWORD PTR __imp__InvalidateRect@12

; 105  : 		CWindowsMover::GetInstance()->DoMouseResizingFinished(m_hWnd, nFlags, point, m_iDirection);

  007d6	8b 4d ec	 mov	 ecx, DWORD PTR _this$[ebp]
  007d9	8b 91 9c 00 00
	00		 mov	 edx, DWORD PTR [ecx+156]
  007df	52		 push	 edx
  007e0	8b 45 10	 mov	 eax, DWORD PTR _point$[ebp+4]
  007e3	50		 push	 eax
  007e4	8b 4d 0c	 mov	 ecx, DWORD PTR _point$[ebp]
  007e7	51		 push	 ecx
  007e8	8b 55 08	 mov	 edx, DWORD PTR _nFlags$[ebp]
  007eb	52		 push	 edx
  007ec	8b 45 ec	 mov	 eax, DWORD PTR _this$[ebp]
  007ef	8b 48 20	 mov	 ecx, DWORD PTR [eax+32]
  007f2	51		 push	 ecx
  007f3	e8 00 00 00 00	 call	 ?GetInstance@CWindowsMover@@SAPAV1@XZ ; CWindowsMover::GetInstance
  007f8	8b c8		 mov	 ecx, eax
  007fa	e8 00 00 00 00	 call	 ?DoMouseResizingFinished@CWindowsMover@@QAEXPAUHWND__@@IVCPoint@@H@Z ; CWindowsMover::DoMouseResizingFinished
$L198485:

; 106  : 	}
; 107  : 	if(::GetCapture() == m_hWnd)

  007ff	ff 15 00 00 00
	00		 call	 DWORD PTR __imp__GetCapture@0
  00805	8b 55 ec	 mov	 edx, DWORD PTR _this$[ebp]
  00808	3b 42 20	 cmp	 eax, DWORD PTR [edx+32]
  0080b	75 06		 jne	 SHORT $L198487

; 108  : 		::ReleaseCapture();

  0080d	ff 15 00 00 00
	00		 call	 DWORD PTR __imp__ReleaseCapture@0
$L198487:

; 109  : 	m_isResizing = FALSE;

  00813	8b 45 ec	 mov	 eax, DWORD PTR _this$[ebp]
  00816	c6 80 a1 00 00
	00 00		 mov	 BYTE PTR [eax+161], 0

; 110  : 
; 111  : }

  0081d	5e		 pop	 esi
  0081e	8b e5		 mov	 esp, ebp
  00820	5d		 pop	 ebp
  00821	c2 0c 00	 ret	 12			; 0000000cH
?OnLButtonUp@CHostWnd@@IAEXIVCPoint@@@Z ENDP		; CHostWnd::OnLButtonUp
_TEXT	ENDS
PUBLIC	?OnMouseMove@CWnd@@IAEXIVCPoint@@@Z		; CWnd::OnMouseMove
EXTRN	__imp__SetCursor@4:NEAR
EXTRN	?DoMouseMove@CWindowsMover@@QAEXPAUHWND__@@IVCPoint@@@Z:NEAR ; CWindowsMover::DoMouseMove
EXTRN	__imp__LoadCursorA@8:NEAR
; Function compile flags: /Odt
_TEXT	SEGMENT
_this$ = -40						; size = 4
_diff$198504 = -36					; size = 8
_tmpPT$198503 = -28					; size = 8
_newRect$198505 = -20					; size = 16
_m_hCursor$198497 = -4					; size = 4
_nFlags$ = 8						; size = 4
_point$ = 12						; size = 8
?OnMouseMove@CHostWnd@@IAEXIVCPoint@@@Z PROC NEAR	; CHostWnd::OnMouseMove
; _this$ = ecx

; 114  : {

  00830	55		 push	 ebp
  00831	8b ec		 mov	 ebp, esp
  00833	83 ec 28	 sub	 esp, 40			; 00000028H
  00836	89 4d d8	 mov	 DWORD PTR _this$[ebp], ecx

; 115  : 	if(!m_isResizing)

  00839	8b 45 d8	 mov	 eax, DWORD PTR _this$[ebp]
  0083c	0f b6 88 a1 00
	00 00		 movzx	 ecx, BYTE PTR [eax+161]
  00843	85 c9		 test	 ecx, ecx
  00845	75 1f		 jne	 SHORT $L198493

; 116  : 	{
; 117  : 		CWindowsMover::GetInstance()->DoMouseMove(m_hWnd, nFlags, point);

  00847	8b 55 10	 mov	 edx, DWORD PTR _point$[ebp+4]
  0084a	52		 push	 edx
  0084b	8b 45 0c	 mov	 eax, DWORD PTR _point$[ebp]
  0084e	50		 push	 eax
  0084f	8b 4d 08	 mov	 ecx, DWORD PTR _nFlags$[ebp]
  00852	51		 push	 ecx
  00853	8b 55 d8	 mov	 edx, DWORD PTR _this$[ebp]
  00856	8b 42 20	 mov	 eax, DWORD PTR [edx+32]
  00859	50		 push	 eax
  0085a	e8 00 00 00 00	 call	 ?GetInstance@CWindowsMover@@SAPAV1@XZ ; CWindowsMover::GetInstance
  0085f	8b c8		 mov	 ecx, eax
  00861	e8 00 00 00 00	 call	 ?DoMouseMove@CWindowsMover@@QAEXPAUHWND__@@IVCPoint@@@Z ; CWindowsMover::DoMouseMove
$L198493:

; 118  : 	}
; 119  : 	if( !m_isResizing )

  00866	8b 4d d8	 mov	 ecx, DWORD PTR _this$[ebp]
  00869	0f b6 91 a1 00
	00 00		 movzx	 edx, BYTE PTR [ecx+161]
  00870	85 d2		 test	 edx, edx
  00872	75 64		 jne	 SHORT $L198494

; 120  : 	{
; 121  : 		if( !_needChangeCursor( point ) )

  00874	8d 45 0c	 lea	 eax, DWORD PTR _point$[ebp]
  00877	50		 push	 eax
  00878	8b 4d d8	 mov	 ecx, DWORD PTR _this$[ebp]
  0087b	8b 11		 mov	 edx, DWORD PTR [ecx]
  0087d	8b 4d d8	 mov	 ecx, DWORD PTR _this$[ebp]
  00880	ff 92 60 01 00
	00		 call	 DWORD PTR [edx+352]
  00886	0f b6 c0	 movzx	 eax, al
  00889	85 c0		 test	 eax, eax
  0088b	75 41		 jne	 SHORT $L198495

; 122  : 		{
; 123  : 			if( m_bChangeCursor )

  0088d	8b 4d d8	 mov	 ecx, DWORD PTR _this$[ebp]
  00890	0f b6 91 a0 00
	00 00		 movzx	 edx, BYTE PTR [ecx+160]
  00897	85 d2		 test	 edx, edx
  00899	74 31		 je	 SHORT $L198496

; 124  : 			{
; 125  : 				HCURSOR  m_hCursor = ::LoadCursor(NULL, IDC_ARROW);		

  0089b	68 00 7f 00 00	 push	 32512			; 00007f00H
  008a0	6a 00		 push	 0
  008a2	ff 15 00 00 00
	00		 call	 DWORD PTR __imp__LoadCursorA@8
  008a8	89 45 fc	 mov	 DWORD PTR _m_hCursor$198497[ebp], eax

; 126  : 				m_iDirection = 0;

  008ab	8b 45 d8	 mov	 eax, DWORD PTR _this$[ebp]
  008ae	c7 80 9c 00 00
	00 00 00 00 00	 mov	 DWORD PTR [eax+156], 0

; 127  : 				::SetCursor(m_hCursor);			

  008b8	8b 4d fc	 mov	 ecx, DWORD PTR _m_hCursor$198497[ebp]
  008bb	51		 push	 ecx
  008bc	ff 15 00 00 00
	00		 call	 DWORD PTR __imp__SetCursor@4

; 128  : 				m_bChangeCursor = false;

  008c2	8b 55 d8	 mov	 edx, DWORD PTR _this$[ebp]
  008c5	c6 82 a0 00 00
	00 00		 mov	 BYTE PTR [edx+160], 0
$L198496:

; 129  : 			}
; 130  : 		}
; 131  : 		else

  008cc	eb 0a		 jmp	 SHORT $L198494
$L198495:

; 132  : 		{
; 133  : 			m_bChangeCursor = true;

  008ce	8b 45 d8	 mov	 eax, DWORD PTR _this$[ebp]
  008d1	c6 80 a0 00 00
	00 01		 mov	 BYTE PTR [eax+160], 1
$L198494:

; 134  : 		}
; 135  : 	}
; 136  : 
; 137  : 	if( nFlags & MK_LBUTTON && m_isResizing )//

  008d8	8b 4d 08	 mov	 ecx, DWORD PTR _nFlags$[ebp]
  008db	83 e1 01	 and	 ecx, 1
  008de	0f 84 3f 03 00
	00		 je	 $L198502
  008e4	8b 55 d8	 mov	 edx, DWORD PTR _this$[ebp]
  008e7	0f b6 82 a1 00
	00 00		 movzx	 eax, BYTE PTR [edx+161]
  008ee	85 c0		 test	 eax, eax
  008f0	0f 84 2d 03 00
	00		 je	 $L198502

; 138  : 	{
; 139  : 		CPoint tmpPT = point;

  008f6	8b 4d 0c	 mov	 ecx, DWORD PTR _point$[ebp]
  008f9	89 4d e4	 mov	 DWORD PTR _tmpPT$198503[ebp], ecx
  008fc	8b 55 10	 mov	 edx, DWORD PTR _point$[ebp+4]
  008ff	89 55 e8	 mov	 DWORD PTR _tmpPT$198503[ebp+4], edx

; 140  : 		ClientToScreen(&tmpPT);

  00902	8d 45 e4	 lea	 eax, DWORD PTR _tmpPT$198503[ebp]
  00905	50		 push	 eax
  00906	8b 4d d8	 mov	 ecx, DWORD PTR _this$[ebp]
  00909	e8 00 00 00 00	 call	 ?ClientToScreen@CWnd@@QBEXPAUtagPOINT@@@Z ; CWnd::ClientToScreen

; 141  : 		//Pt    
; 142  : 		CPoint diff;

  0090e	8d 4d dc	 lea	 ecx, DWORD PTR _diff$198504[ebp]
  00911	e8 00 00 00 00	 call	 ??0CPoint@@QAE@XZ	; CPoint::CPoint

; 143  : 		diff.x = tmpPT.x - m_ptStartResizing.x;

  00916	8b 4d d8	 mov	 ecx, DWORD PTR _this$[ebp]
  00919	8b 55 e4	 mov	 edx, DWORD PTR _tmpPT$198503[ebp]
  0091c	2b 91 a4 00 00
	00		 sub	 edx, DWORD PTR [ecx+164]
  00922	89 55 dc	 mov	 DWORD PTR _diff$198504[ebp], edx

; 144  : 		diff.y = tmpPT.y - m_ptStartResizing.y;

  00925	8b 45 d8	 mov	 eax, DWORD PTR _this$[ebp]
  00928	8b 4d e8	 mov	 ecx, DWORD PTR _tmpPT$198503[ebp+4]
  0092b	2b 88 a8 00 00
	00		 sub	 ecx, DWORD PTR [eax+168]
  00931	89 4d e0	 mov	 DWORD PTR _diff$198504[ebp+4], ecx

; 145  : 
; 146  : 		CRect newRect;

  00934	8d 4d ec	 lea	 ecx, DWORD PTR _newRect$198505[ebp]
  00937	e8 00 00 00 00	 call	 ??0CRect@@QAE@XZ	; CRect::CRect

; 147  : 
; 148  : 		if( m_iDirection & DIRECTION_LEFT )

  0093c	8b 55 d8	 mov	 edx, DWORD PTR _this$[ebp]
  0093f	8b 82 9c 00 00
	00		 mov	 eax, DWORD PTR [edx+156]
  00945	83 e0 01	 and	 eax, 1
  00948	74 68		 je	 SHORT $L198506

; 149  : 		{
; 150  : 			newRect.left = m_rectStarResizing.left + diff.x;

  0094a	8b 4d d8	 mov	 ecx, DWORD PTR _this$[ebp]
  0094d	8b 91 ac 00 00
	00		 mov	 edx, DWORD PTR [ecx+172]
  00953	03 55 dc	 add	 edx, DWORD PTR _diff$198504[ebp]
  00956	89 55 ec	 mov	 DWORD PTR _newRect$198505[ebp], edx

; 151  : 			newRect.right = m_rectStarResizing.right;

  00959	8b 45 d8	 mov	 eax, DWORD PTR _this$[ebp]
  0095c	8b 88 b4 00 00
	00		 mov	 ecx, DWORD PTR [eax+180]
  00962	89 4d f4	 mov	 DWORD PTR _newRect$198505[ebp+8], ecx

; 152  : 			newRect.bottom = m_rectStarResizing.bottom;

  00965	8b 55 d8	 mov	 edx, DWORD PTR _this$[ebp]
  00968	8b 82 b8 00 00
	00		 mov	 eax, DWORD PTR [edx+184]
  0096e	89 45 f8	 mov	 DWORD PTR _newRect$198505[ebp+12], eax

; 153  : 			newRect.top = m_rectStarResizing.top;

  00971	8b 4d d8	 mov	 ecx, DWORD PTR _this$[ebp]
  00974	8b 91 b0 00 00
	00		 mov	 edx, DWORD PTR [ecx+176]
  0097a	89 55 f0	 mov	 DWORD PTR _newRect$198505[ebp+4], edx

; 154  : 
; 155  : 			if( m_iDirection & DIRECTION_TOP )

  0097d	8b 45 d8	 mov	 eax, DWORD PTR _this$[ebp]
  00980	8b 88 9c 00 00
	00		 mov	 ecx, DWORD PTR [eax+156]
  00986	83 e1 04	 and	 ecx, 4
  00989	74 0b		 je	 SHORT $L198507

; 156  : 			{
; 157  : 				newRect.top += diff.y;

  0098b	8b 55 f0	 mov	 edx, DWORD PTR _newRect$198505[ebp+4]
  0098e	03 55 e0	 add	 edx, DWORD PTR _diff$198504[ebp+4]
  00991	89 55 f0	 mov	 DWORD PTR _newRect$198505[ebp+4], edx

; 158  : 			}
; 159  : 			else if( m_iDirection & DIRECTION_BOTTOM )

  00994	eb 17		 jmp	 SHORT $L198508
$L198507:
  00996	8b 45 d8	 mov	 eax, DWORD PTR _this$[ebp]
  00999	8b 88 9c 00 00
	00		 mov	 ecx, DWORD PTR [eax+156]
  0099f	83 e1 08	 and	 ecx, 8
  009a2	74 09		 je	 SHORT $L198508

; 160  : 			{
; 161  : 				newRect.bottom += diff.y;

  009a4	8b 55 f8	 mov	 edx, DWORD PTR _newRect$198505[ebp+12]
  009a7	03 55 e0	 add	 edx, DWORD PTR _diff$198504[ebp+4]
  009aa	89 55 f8	 mov	 DWORD PTR _newRect$198505[ebp+12], edx
$L198508:

; 162  : 			}				
; 163  : 		}
; 164  : 		else if( m_iDirection & DIRECTION_RIGHT )

  009ad	e9 78 01 00 00	 jmp	 $L198510
$L198506:
  009b2	8b 45 d8	 mov	 eax, DWORD PTR _this$[ebp]
  009b5	8b 88 9c 00 00
	00		 mov	 ecx, DWORD PTR [eax+156]
  009bb	83 e1 02	 and	 ecx, 2
  009be	74 68		 je	 SHORT $L198511

; 165  : 		{		
; 166  : 			newRect.left = m_rectStarResizing.left;

  009c0	8b 55 d8	 mov	 edx, DWORD PTR _this$[ebp]
  009c3	8b 82 ac 00 00
	00		 mov	 eax, DWORD PTR [edx+172]
  009c9	89 45 ec	 mov	 DWORD PTR _newRect$198505[ebp], eax

; 167  : 			newRect.right = m_rectStarResizing.right + diff.x;

  009cc	8b 4d d8	 mov	 ecx, DWORD PTR _this$[ebp]
  009cf	8b 91 b4 00 00
	00		 mov	 edx, DWORD PTR [ecx+180]
  009d5	03 55 dc	 add	 edx, DWORD PTR _diff$198504[ebp]
  009d8	89 55 f4	 mov	 DWORD PTR _newRect$198505[ebp+8], edx

; 168  : 			newRect.bottom = m_rectStarResizing.bottom;

  009db	8b 45 d8	 mov	 eax, DWORD PTR _this$[ebp]
  009de	8b 88 b8 00 00
	00		 mov	 ecx, DWORD PTR [eax+184]
  009e4	89 4d f8	 mov	 DWORD PTR _newRect$198505[ebp+12], ecx

; 169  : 			newRect.top = m_rectStarResizing.top;

  009e7	8b 55 d8	 mov	 edx, DWORD PTR _this$[ebp]
  009ea	8b 82 b0 00 00
	00		 mov	 eax, DWORD PTR [edx+176]
  009f0	89 45 f0	 mov	 DWORD PTR _newRect$198505[ebp+4], eax

; 170  : 
; 171  : 			if( m_iDirection & DIRECTION_TOP )

  009f3	8b 4d d8	 mov	 ecx, DWORD PTR _this$[ebp]
  009f6	8b 91 9c 00 00
	00		 mov	 edx, DWORD PTR [ecx+156]
  009fc	83 e2 04	 and	 edx, 4
  009ff	74 0b		 je	 SHORT $L198512

; 172  : 			{
; 173  : 				newRect.top += diff.y;

  00a01	8b 45 f0	 mov	 eax, DWORD PTR _newRect$198505[ebp+4]
  00a04	03 45 e0	 add	 eax, DWORD PTR _diff$198504[ebp+4]
  00a07	89 45 f0	 mov	 DWORD PTR _newRect$198505[ebp+4], eax

; 174  : 			}
; 175  : 			else if( m_iDirection & DIRECTION_BOTTOM )

  00a0a	eb 17		 jmp	 SHORT $L198513
$L198512:
  00a0c	8b 4d d8	 mov	 ecx, DWORD PTR _this$[ebp]
  00a0f	8b 91 9c 00 00
	00		 mov	 edx, DWORD PTR [ecx+156]
  00a15	83 e2 08	 and	 edx, 8
  00a18	74 09		 je	 SHORT $L198513

; 176  : 			{
; 177  : 				newRect.bottom += diff.y;

  00a1a	8b 45 f8	 mov	 eax, DWORD PTR _newRect$198505[ebp+12]
  00a1d	03 45 e0	 add	 eax, DWORD PTR _diff$198504[ebp+4]
  00a20	89 45 f8	 mov	 DWORD PTR _newRect$198505[ebp+12], eax
$L198513:

; 178  : 			}		
; 179  : 		}
; 180  : 		else if( m_iDirection & DIRECTION_TOP )

  00a23	e9 02 01 00 00	 jmp	 $L198510
$L198511:
  00a28	8b 4d d8	 mov	 ecx, DWORD PTR _this$[ebp]
  00a2b	8b 91 9c 00 00
	00		 mov	 edx, DWORD PTR [ecx+156]
  00a31	83 e2 04	 and	 edx, 4
  00a34	74 68		 je	 SHORT $L198516

; 181  : 		{
; 182  : 			newRect.left = m_rectStarResizing.left;

  00a36	8b 45 d8	 mov	 eax, DWORD PTR _this$[ebp]
  00a39	8b 88 ac 00 00
	00		 mov	 ecx, DWORD PTR [eax+172]
  00a3f	89 4d ec	 mov	 DWORD PTR _newRect$198505[ebp], ecx

; 183  : 			newRect.right = m_rectStarResizing.right;

  00a42	8b 55 d8	 mov	 edx, DWORD PTR _this$[ebp]
  00a45	8b 82 b4 00 00
	00		 mov	 eax, DWORD PTR [edx+180]
  00a4b	89 45 f4	 mov	 DWORD PTR _newRect$198505[ebp+8], eax

; 184  : 			newRect.bottom = m_rectStarResizing.bottom;

  00a4e	8b 4d d8	 mov	 ecx, DWORD PTR _this$[ebp]
  00a51	8b 91 b8 00 00
	00		 mov	 edx, DWORD PTR [ecx+184]
  00a57	89 55 f8	 mov	 DWORD PTR _newRect$198505[ebp+12], edx

; 185  : 			newRect.top = m_rectStarResizing.top + diff.y;

  00a5a	8b 45 d8	 mov	 eax, DWORD PTR _this$[ebp]
  00a5d	8b 88 b0 00 00
	00		 mov	 ecx, DWORD PTR [eax+176]
  00a63	03 4d e0	 add	 ecx, DWORD PTR _diff$198504[ebp+4]
  00a66	89 4d f0	 mov	 DWORD PTR _newRect$198505[ebp+4], ecx

; 186  : 
; 187  : 			if( m_iDirection & DIRECTION_LEFT )

  00a69	8b 55 d8	 mov	 edx, DWORD PTR _this$[ebp]
  00a6c	8b 82 9c 00 00
	00		 mov	 eax, DWORD PTR [edx+156]
  00a72	83 e0 01	 and	 eax, 1
  00a75	74 0b		 je	 SHORT $L198517

; 188  : 			{
; 189  : 				newRect.left += diff.x;

  00a77	8b 4d ec	 mov	 ecx, DWORD PTR _newRect$198505[ebp]
  00a7a	03 4d dc	 add	 ecx, DWORD PTR _diff$198504[ebp]
  00a7d	89 4d ec	 mov	 DWORD PTR _newRect$198505[ebp], ecx

; 190  : 			}
; 191  : 			else if( m_iDirection & DIRECTION_RIGHT )

  00a80	eb 17		 jmp	 SHORT $L198518
$L198517:
  00a82	8b 55 d8	 mov	 edx, DWORD PTR _this$[ebp]
  00a85	8b 82 9c 00 00
	00		 mov	 eax, DWORD PTR [edx+156]
  00a8b	83 e0 02	 and	 eax, 2
  00a8e	74 09		 je	 SHORT $L198518

; 192  : 			{
; 193  : 				newRect.right += diff.x;

  00a90	8b 4d f4	 mov	 ecx, DWORD PTR _newRect$198505[ebp+8]
  00a93	03 4d dc	 add	 ecx, DWORD PTR _diff$198504[ebp]
  00a96	89 4d f4	 mov	 DWORD PTR _newRect$198505[ebp+8], ecx
$L198518:

; 194  : 			}				
; 195  : 		}
; 196  : 		else if( m_iDirection & DIRECTION_BOTTOM )

  00a99	e9 8c 00 00 00	 jmp	 $L198510
$L198516:
  00a9e	8b 55 d8	 mov	 edx, DWORD PTR _this$[ebp]
  00aa1	8b 82 9c 00 00
	00		 mov	 eax, DWORD PTR [edx+156]
  00aa7	83 e0 08	 and	 eax, 8
  00aaa	74 65		 je	 SHORT $L198521

; 197  : 		{
; 198  : 			newRect.left = m_rectStarResizing.left;

  00aac	8b 4d d8	 mov	 ecx, DWORD PTR _this$[ebp]
  00aaf	8b 91 ac 00 00
	00		 mov	 edx, DWORD PTR [ecx+172]
  00ab5	89 55 ec	 mov	 DWORD PTR _newRect$198505[ebp], edx

; 199  : 			newRect.right = m_rectStarResizing.right;

  00ab8	8b 45 d8	 mov	 eax, DWORD PTR _this$[ebp]
  00abb	8b 88 b4 00 00
	00		 mov	 ecx, DWORD PTR [eax+180]
  00ac1	89 4d f4	 mov	 DWORD PTR _newRect$198505[ebp+8], ecx

; 200  : 			newRect.bottom = m_rectStarResizing.bottom + diff.y;

  00ac4	8b 55 d8	 mov	 edx, DWORD PTR _this$[ebp]
  00ac7	8b 82 b8 00 00
	00		 mov	 eax, DWORD PTR [edx+184]
  00acd	03 45 e0	 add	 eax, DWORD PTR _diff$198504[ebp+4]
  00ad0	89 45 f8	 mov	 DWORD PTR _newRect$198505[ebp+12], eax

; 201  : 			newRect.top = m_rectStarResizing.top;

  00ad3	8b 4d d8	 mov	 ecx, DWORD PTR _this$[ebp]
  00ad6	8b 91 b0 00 00
	00		 mov	 edx, DWORD PTR [ecx+176]
  00adc	89 55 f0	 mov	 DWORD PTR _newRect$198505[ebp+4], edx

; 202  : 
; 203  : 			if( m_iDirection & DIRECTION_LEFT )

  00adf	8b 45 d8	 mov	 eax, DWORD PTR _this$[ebp]
  00ae2	8b 88 9c 00 00
	00		 mov	 ecx, DWORD PTR [eax+156]
  00ae8	83 e1 01	 and	 ecx, 1
  00aeb	74 0b		 je	 SHORT $L198522

; 204  : 			{
; 205  : 				newRect.left += diff.x;

  00aed	8b 55 ec	 mov	 edx, DWORD PTR _newRect$198505[ebp]
  00af0	03 55 dc	 add	 edx, DWORD PTR _diff$198504[ebp]
  00af3	89 55 ec	 mov	 DWORD PTR _newRect$198505[ebp], edx

; 206  : 			}
; 207  : 			else if( m_iDirection & DIRECTION_RIGHT )

  00af6	eb 17		 jmp	 SHORT $L198523
$L198522:
  00af8	8b 45 d8	 mov	 eax, DWORD PTR _this$[ebp]
  00afb	8b 88 9c 00 00
	00		 mov	 ecx, DWORD PTR [eax+156]
  00b01	83 e1 02	 and	 ecx, 2
  00b04	74 09		 je	 SHORT $L198523

; 208  : 			{
; 209  : 				newRect.right += diff.x;

  00b06	8b 55 f4	 mov	 edx, DWORD PTR _newRect$198505[ebp+8]
  00b09	03 55 dc	 add	 edx, DWORD PTR _diff$198504[ebp]
  00b0c	89 55 f4	 mov	 DWORD PTR _newRect$198505[ebp+8], edx
$L198523:

; 210  : 			}			
; 211  : 		}
; 212  : 		else

  00b0f	eb 19		 jmp	 SHORT $L198510
$L198521:

; 213  : 		{
; 214  : 			__super::OnMouseMove( nFlags,point );

  00b11	8b 45 10	 mov	 eax, DWORD PTR _point$[ebp+4]
  00b14	50		 push	 eax
  00b15	8b 4d 0c	 mov	 ecx, DWORD PTR _point$[ebp]
  00b18	51		 push	 ecx
  00b19	8b 55 08	 mov	 edx, DWORD PTR _nFlags$[ebp]
  00b1c	52		 push	 edx
  00b1d	8b 4d d8	 mov	 ecx, DWORD PTR _this$[ebp]
  00b20	e8 00 00 00 00	 call	 ?OnMouseMove@CWnd@@IAEXIVCPoint@@@Z ; CWnd::OnMouseMove

; 215  : 			return;

  00b25	e9 0d 01 00 00	 jmp	 $L198492
$L198510:

; 216  : 		}
; 217  : 
; 218  : 		if(newRect.Width() < m_nMinCx)

  00b2a	8d 4d ec	 lea	 ecx, DWORD PTR _newRect$198505[ebp]
  00b2d	e8 00 00 00 00	 call	 ?Width@CRect@@QBEHXZ	; CRect::Width
  00b32	8b 4d d8	 mov	 ecx, DWORD PTR _this$[ebp]
  00b35	3b 81 08 01 00
	00		 cmp	 eax, DWORD PTR [ecx+264]
  00b3b	7d 2e		 jge	 SHORT $L198526

; 219  : 		{
; 220  : 			if(m_iDirection & DIRECTION_RIGHT)

  00b3d	8b 55 d8	 mov	 edx, DWORD PTR _this$[ebp]
  00b40	8b 82 9c 00 00
	00		 mov	 eax, DWORD PTR [edx+156]
  00b46	83 e0 02	 and	 eax, 2
  00b49	74 11		 je	 SHORT $L198527

; 221  : 				newRect.right = newRect.left + m_nMinCx;

  00b4b	8b 4d d8	 mov	 ecx, DWORD PTR _this$[ebp]
  00b4e	8b 55 ec	 mov	 edx, DWORD PTR _newRect$198505[ebp]
  00b51	03 91 08 01 00
	00		 add	 edx, DWORD PTR [ecx+264]
  00b57	89 55 f4	 mov	 DWORD PTR _newRect$198505[ebp+8], edx

; 222  : 			else

  00b5a	eb 0f		 jmp	 SHORT $L198526
$L198527:

; 223  : 				newRect.left = newRect.right - m_nMinCx;

  00b5c	8b 45 d8	 mov	 eax, DWORD PTR _this$[ebp]
  00b5f	8b 4d f4	 mov	 ecx, DWORD PTR _newRect$198505[ebp+8]
  00b62	2b 88 08 01 00
	00		 sub	 ecx, DWORD PTR [eax+264]
  00b68	89 4d ec	 mov	 DWORD PTR _newRect$198505[ebp], ecx
$L198526:

; 224  : 		}
; 225  : 		if(newRect.Height() < m_nMinCy)

  00b6b	8d 4d ec	 lea	 ecx, DWORD PTR _newRect$198505[ebp]
  00b6e	e8 00 00 00 00	 call	 ?Height@CRect@@QBEHXZ	; CRect::Height
  00b73	8b 55 d8	 mov	 edx, DWORD PTR _this$[ebp]
  00b76	3b 82 0c 01 00
	00		 cmp	 eax, DWORD PTR [edx+268]
  00b7c	7d 2e		 jge	 SHORT $L198529

; 226  : 		{
; 227  : 			if(m_iDirection & DIRECTION_BOTTOM)

  00b7e	8b 45 d8	 mov	 eax, DWORD PTR _this$[ebp]
  00b81	8b 88 9c 00 00
	00		 mov	 ecx, DWORD PTR [eax+156]
  00b87	83 e1 08	 and	 ecx, 8
  00b8a	74 11		 je	 SHORT $L198530

; 228  : 				newRect.bottom = newRect.top + m_nMinCy;

  00b8c	8b 55 d8	 mov	 edx, DWORD PTR _this$[ebp]
  00b8f	8b 45 f0	 mov	 eax, DWORD PTR _newRect$198505[ebp+4]
  00b92	03 82 0c 01 00
	00		 add	 eax, DWORD PTR [edx+268]
  00b98	89 45 f8	 mov	 DWORD PTR _newRect$198505[ebp+12], eax

; 229  : 			else

  00b9b	eb 0f		 jmp	 SHORT $L198529
$L198530:

; 230  : 				newRect.top = newRect.bottom - m_nMinCy;

  00b9d	8b 4d d8	 mov	 ecx, DWORD PTR _this$[ebp]
  00ba0	8b 55 f8	 mov	 edx, DWORD PTR _newRect$198505[ebp+12]
  00ba3	2b 91 0c 01 00
	00		 sub	 edx, DWORD PTR [ecx+268]
  00ba9	89 55 f0	 mov	 DWORD PTR _newRect$198505[ebp+4], edx
$L198529:

; 231  : 		}
; 232  : 		DrawMoveFrame(m_rcMain);

  00bac	8b 45 d8	 mov	 eax, DWORD PTR _this$[ebp]
  00baf	05 bc 00 00 00	 add	 eax, 188		; 000000bcH
  00bb4	83 ec 10	 sub	 esp, 16			; 00000010H
  00bb7	8b cc		 mov	 ecx, esp
  00bb9	8b 10		 mov	 edx, DWORD PTR [eax]
  00bbb	89 11		 mov	 DWORD PTR [ecx], edx
  00bbd	8b 50 04	 mov	 edx, DWORD PTR [eax+4]
  00bc0	89 51 04	 mov	 DWORD PTR [ecx+4], edx
  00bc3	8b 50 08	 mov	 edx, DWORD PTR [eax+8]
  00bc6	89 51 08	 mov	 DWORD PTR [ecx+8], edx
  00bc9	8b 40 0c	 mov	 eax, DWORD PTR [eax+12]
  00bcc	89 41 0c	 mov	 DWORD PTR [ecx+12], eax
  00bcf	8b 4d d8	 mov	 ecx, DWORD PTR _this$[ebp]
  00bd2	e8 00 00 00 00	 call	 ?DrawMoveFrame@CHostWnd@@IAEXVCRect@@@Z ; CHostWnd::DrawMoveFrame

; 233  : 		m_rcMain = newRect;

  00bd7	8b 4d d8	 mov	 ecx, DWORD PTR _this$[ebp]
  00bda	81 c1 bc 00 00
	00		 add	 ecx, 188		; 000000bcH
  00be0	8b 55 ec	 mov	 edx, DWORD PTR _newRect$198505[ebp]
  00be3	89 11		 mov	 DWORD PTR [ecx], edx
  00be5	8b 45 f0	 mov	 eax, DWORD PTR _newRect$198505[ebp+4]
  00be8	89 41 04	 mov	 DWORD PTR [ecx+4], eax
  00beb	8b 55 f4	 mov	 edx, DWORD PTR _newRect$198505[ebp+8]
  00bee	89 51 08	 mov	 DWORD PTR [ecx+8], edx
  00bf1	8b 45 f8	 mov	 eax, DWORD PTR _newRect$198505[ebp+12]
  00bf4	89 41 0c	 mov	 DWORD PTR [ecx+12], eax

; 234  : 		DrawMoveFrame(m_rcMain);

  00bf7	8b 4d d8	 mov	 ecx, DWORD PTR _this$[ebp]
  00bfa	81 c1 bc 00 00
	00		 add	 ecx, 188		; 000000bcH
  00c00	83 ec 10	 sub	 esp, 16			; 00000010H
  00c03	8b d4		 mov	 edx, esp
  00c05	8b 01		 mov	 eax, DWORD PTR [ecx]
  00c07	89 02		 mov	 DWORD PTR [edx], eax
  00c09	8b 41 04	 mov	 eax, DWORD PTR [ecx+4]
  00c0c	89 42 04	 mov	 DWORD PTR [edx+4], eax
  00c0f	8b 41 08	 mov	 eax, DWORD PTR [ecx+8]
  00c12	89 42 08	 mov	 DWORD PTR [edx+8], eax
  00c15	8b 49 0c	 mov	 ecx, DWORD PTR [ecx+12]
  00c18	89 4a 0c	 mov	 DWORD PTR [edx+12], ecx
  00c1b	8b 4d d8	 mov	 ecx, DWORD PTR _this$[ebp]
  00c1e	e8 00 00 00 00	 call	 ?DrawMoveFrame@CHostWnd@@IAEXVCRect@@@Z ; CHostWnd::DrawMoveFrame
$L198502:

; 235  : 
; 236  : 	}
; 237  : 	__super::OnMouseMove( nFlags,point );

  00c23	8b 55 10	 mov	 edx, DWORD PTR _point$[ebp+4]
  00c26	52		 push	 edx
  00c27	8b 45 0c	 mov	 eax, DWORD PTR _point$[ebp]
  00c2a	50		 push	 eax
  00c2b	8b 4d 08	 mov	 ecx, DWORD PTR _nFlags$[ebp]
  00c2e	51		 push	 ecx
  00c2f	8b 4d d8	 mov	 ecx, DWORD PTR _this$[ebp]
  00c32	e8 00 00 00 00	 call	 ?OnMouseMove@CWnd@@IAEXIVCPoint@@@Z ; CWnd::OnMouseMove
$L198492:

; 238  : 
; 239  : }

  00c37	8b e5		 mov	 esp, ebp
  00c39	5d		 pop	 ebp
  00c3a	c2 0c 00	 ret	 12			; 0000000cH
?OnMouseMove@CHostWnd@@IAEXIVCPoint@@@Z ENDP		; CHostWnd::OnMouseMove
_TEXT	ENDS
EXTRN	___security_cookie:DWORD
EXTRN	@__security_check_cookie@4:NEAR
EXTRN	??0CPaintDC@@QAE@PAVCWnd@@@Z:NEAR		; CPaintDC::CPaintDC
EXTRN	??1CPaintDC@@UAE@XZ:NEAR			; CPaintDC::~CPaintDC
xdata$x	SEGMENT
$T199302 DD	0ffffffffH
	DD	FLAT:$L199295
$T199297 DD	019930520H
	DD	01H
	DD	FLAT:$T199302
	DD	2 DUP(00H)
	DD	2 DUP(00H)
; Function compile flags: /Odt
xdata$x	ENDS
_TEXT	SEGMENT
tv81 = -120						; size = 4
tv76 = -116						; size = 4
_this$ = -112						; size = 4
_dc$ = -108						; size = 84
__$ArrayPad$ = -16					; size = 4
__$EHRec$ = -12						; size = 12
__$ReturnAddr$ = 4					; size = 4
?OnPaint@CHostWnd@@IAEXXZ PROC NEAR			; CHostWnd::OnPaint
; _this$ = ecx

; 242  : {

  00c40	55		 push	 ebp
  00c41	8b ec		 mov	 ebp, esp
  00c43	6a ff		 push	 -1
  00c45	68 00 00 00 00	 push	 __ehhandler$?OnPaint@CHostWnd@@IAEXXZ
  00c4a	64 a1 00 00 00
	00		 mov	 eax, DWORD PTR fs:__except_list
  00c50	50		 push	 eax
  00c51	64 89 25 00 00
	00 00		 mov	 DWORD PTR fs:__except_list, esp
  00c58	83 ec 6c	 sub	 esp, 108		; 0000006cH
  00c5b	a1 00 00 00 00	 mov	 eax, DWORD PTR ___security_cookie
  00c60	89 45 f0	 mov	 DWORD PTR __$ArrayPad$[ebp], eax
  00c63	89 4d 90	 mov	 DWORD PTR _this$[ebp], ecx

; 243  : 	CPaintDC dc(this);

  00c66	8b 45 90	 mov	 eax, DWORD PTR _this$[ebp]
  00c69	50		 push	 eax
  00c6a	8d 4d 94	 lea	 ecx, DWORD PTR _dc$[ebp]
  00c6d	e8 00 00 00 00	 call	 ??0CPaintDC@@QAE@PAVCWnd@@@Z ; CPaintDC::CPaintDC
  00c72	c7 45 fc 00 00
	00 00		 mov	 DWORD PTR __$EHRec$[ebp+8], 0

; 244  : 	//if(this->m_isMainWnd)
; 245  : 	//	dc.TextOut(20,20,"THE MAIN WINDOW");
; 246  : 	//CRect rc;
; 247  : 	//this->GetClientRect(&rc);
; 248  : 	//dc.FillSolidRect(&rc, RGB(100,100,100));
; 249  : 	//dc.Draw3dRect(&rc, RGB(222,111,111), RGB(111,55,55));
; 250  : 	if(m_strContent != "")

  00c79	68 00 00 00 00	 push	 OFFSET FLAT:$SG198537
  00c7e	8b 4d 90	 mov	 ecx, DWORD PTR _this$[ebp]
  00c81	81 c1 04 01 00
	00		 add	 ecx, 260		; 00000104H
  00c87	51		 push	 ecx
  00c88	e8 00 00 00 00	 call	 ??9ATL@@YA_NABV?$CStringT@DV?$StrTraitMFC_DLL@DV?$ChTraitsCRT@D@ATL@@@@@0@PBD@Z ; ATL::operator!=
  00c8d	83 c4 08	 add	 esp, 8
  00c90	0f b6 d0	 movzx	 edx, al
  00c93	85 d2		 test	 edx, edx
  00c95	74 2e		 je	 SHORT $L198536

; 251  : 		AfxGetUIManager()->UIGetLayoutMgr()->PaintBkGround( m_hWnd,&dc,true );

  00c97	e8 00 00 00 00	 call	 ?AfxGetUIManager@@YAPAVIUIManager@@XZ ; AfxGetUIManager
  00c9c	89 45 8c	 mov	 DWORD PTR tv76[ebp], eax
  00c9f	8b 45 8c	 mov	 eax, DWORD PTR tv76[ebp]
  00ca2	8b 10		 mov	 edx, DWORD PTR [eax]
  00ca4	8b 4d 8c	 mov	 ecx, DWORD PTR tv76[ebp]
  00ca7	ff 52 24	 call	 DWORD PTR [edx+36]
  00caa	89 45 88	 mov	 DWORD PTR tv81[ebp], eax
  00cad	6a 01		 push	 1
  00caf	8d 45 94	 lea	 eax, DWORD PTR _dc$[ebp]
  00cb2	50		 push	 eax
  00cb3	8b 4d 90	 mov	 ecx, DWORD PTR _this$[ebp]
  00cb6	8b 51 20	 mov	 edx, DWORD PTR [ecx+32]
  00cb9	52		 push	 edx
  00cba	8b 45 88	 mov	 eax, DWORD PTR tv81[ebp]
  00cbd	8b 10		 mov	 edx, DWORD PTR [eax]
  00cbf	8b 4d 88	 mov	 ecx, DWORD PTR tv81[ebp]
  00cc2	ff 52 5c	 call	 DWORD PTR [edx+92]
$L198536:

; 252  : }

  00cc5	c7 45 fc ff ff
	ff ff		 mov	 DWORD PTR __$EHRec$[ebp+8], -1
  00ccc	8d 4d 94	 lea	 ecx, DWORD PTR _dc$[ebp]
  00ccf	e8 00 00 00 00	 call	 ??1CPaintDC@@UAE@XZ	; CPaintDC::~CPaintDC
  00cd4	8b 4d f4	 mov	 ecx, DWORD PTR __$EHRec$[ebp]
  00cd7	64 89 0d 00 00
	00 00		 mov	 DWORD PTR fs:__except_list, ecx
  00cde	8b 4d f0	 mov	 ecx, DWORD PTR __$ArrayPad$[ebp]
  00ce1	e8 00 00 00 00	 call	 @__security_check_cookie@4
  00ce6	8b e5		 mov	 esp, ebp
  00ce8	5d		 pop	 ebp
  00ce9	c3		 ret	 0
_TEXT	ENDS
text$x	SEGMENT
$L199295:
  000d5	8d 4d 94	 lea	 ecx, DWORD PTR _dc$[ebp]
  000d8	e9 00 00 00 00	 jmp	 ??1CPaintDC@@UAE@XZ	; CPaintDC::~CPaintDC
__ehhandler$?OnPaint@CHostWnd@@IAEXXZ:
  000dd	b8 00 00 00 00	 mov	 eax, OFFSET FLAT:$T199297
  000e2	e9 00 00 00 00	 jmp	 ___CxxFrameHandler
text$x	ENDS
?OnPaint@CHostWnd@@IAEXXZ ENDP				; CHostWnd::OnPaint
PUBLIC	?MoveContentWindow@CHostWnd@@IAEXXZ		; CHostWnd::MoveContentWindow
PUBLIC	?GetDC@CWnd@@QAEPAVCDC@@XZ			; CWnd::GetDC
PUBLIC	?ReleaseDC@CWnd@@QAEHPAVCDC@@@Z			; CWnd::ReleaseDC
PUBLIC	?RedrawWindow@CWnd@@QAEHPBUtagRECT@@PAVCRgn@@I@Z ; CWnd::RedrawWindow
PUBLIC	?OnSize@CWnd@@IAEXIHH@Z				; CWnd::OnSize
EXTRN	__imp__SetWindowRgn@12:NEAR
EXTRN	__imp__GetTickCount@0:NEAR
; Function compile flags: /Odt
_TEXT	SEGMENT
tv155 = -44						; size = 4
tv150 = -40						; size = 4
tv137 = -36						; size = 4
tv132 = -32						; size = 4
tv85 = -28						; size = 4
tv80 = -24						; size = 4
tv70 = -20						; size = 4
_this$ = -16						; size = 4
_hrgn$198547 = -12					; size = 4
_dc$198546 = -8						; size = 4
_count$198545 = -4					; size = 4
_nType$ = 8						; size = 4
_cx$ = 12						; size = 4
_cy$ = 16						; size = 4
?OnSize@CHostWnd@@IAEXIHH@Z PROC NEAR			; CHostWnd::OnSize
; _this$ = ecx

; 255  : {

  00cf0	55		 push	 ebp
  00cf1	8b ec		 mov	 ebp, esp
  00cf3	83 ec 2c	 sub	 esp, 44			; 0000002cH
  00cf6	89 4d f0	 mov	 DWORD PTR _this$[ebp], ecx

; 256  : 	__super::OnSize(nType, cx,cy);

  00cf9	8b 45 10	 mov	 eax, DWORD PTR _cy$[ebp]
  00cfc	50		 push	 eax
  00cfd	8b 4d 0c	 mov	 ecx, DWORD PTR _cx$[ebp]
  00d00	51		 push	 ecx
  00d01	8b 55 08	 mov	 edx, DWORD PTR _nType$[ebp]
  00d04	52		 push	 edx
  00d05	8b 4d f0	 mov	 ecx, DWORD PTR _this$[ebp]
  00d08	e8 00 00 00 00	 call	 ?OnSize@CWnd@@IAEXIHH@Z	; CWnd::OnSize

; 257  : 
; 258  : 	if( AfxGetUIManager()->UIGetLayoutMgr() != NULL )

  00d0d	e8 00 00 00 00	 call	 ?AfxGetUIManager@@YAPAVIUIManager@@XZ ; AfxGetUIManager
  00d12	89 45 ec	 mov	 DWORD PTR tv70[ebp], eax
  00d15	8b 45 ec	 mov	 eax, DWORD PTR tv70[ebp]
  00d18	8b 10		 mov	 edx, DWORD PTR [eax]
  00d1a	8b 4d ec	 mov	 ecx, DWORD PTR tv70[ebp]
  00d1d	ff 52 24	 call	 DWORD PTR [edx+36]
  00d20	85 c0		 test	 eax, eax
  00d22	0f 84 8b 00 00
	00		 je	 $L198544

; 259  : 	{
; 260  : 		DWORD count = ::GetTickCount();

  00d28	ff 15 00 00 00
	00		 call	 DWORD PTR __imp__GetTickCount@0
  00d2e	89 45 fc	 mov	 DWORD PTR _count$198545[ebp], eax

; 261  : 		CDC* dc = GetDC();

  00d31	8b 4d f0	 mov	 ecx, DWORD PTR _this$[ebp]
  00d34	e8 00 00 00 00	 call	 ?GetDC@CWnd@@QAEPAVCDC@@XZ ; CWnd::GetDC
  00d39	89 45 f8	 mov	 DWORD PTR _dc$198546[ebp], eax

; 262  : 		HRGN hrgn = AfxGetUIManager()->UIGetSkinMgr()->GetFrameRGN(cx, cy , dc);

  00d3c	e8 00 00 00 00	 call	 ?AfxGetUIManager@@YAPAVIUIManager@@XZ ; AfxGetUIManager
  00d41	89 45 e8	 mov	 DWORD PTR tv80[ebp], eax
  00d44	8b 45 e8	 mov	 eax, DWORD PTR tv80[ebp]
  00d47	8b 10		 mov	 edx, DWORD PTR [eax]
  00d49	8b 4d e8	 mov	 ecx, DWORD PTR tv80[ebp]
  00d4c	ff 52 28	 call	 DWORD PTR [edx+40]
  00d4f	89 45 e4	 mov	 DWORD PTR tv85[ebp], eax
  00d52	8b 45 f8	 mov	 eax, DWORD PTR _dc$198546[ebp]
  00d55	50		 push	 eax
  00d56	8b 4d 10	 mov	 ecx, DWORD PTR _cy$[ebp]
  00d59	51		 push	 ecx
  00d5a	8b 55 0c	 mov	 edx, DWORD PTR _cx$[ebp]
  00d5d	52		 push	 edx
  00d5e	8b 45 e4	 mov	 eax, DWORD PTR tv85[ebp]
  00d61	8b 10		 mov	 edx, DWORD PTR [eax]
  00d63	8b 4d e4	 mov	 ecx, DWORD PTR tv85[ebp]
  00d66	ff 52 1c	 call	 DWORD PTR [edx+28]
  00d69	89 45 f4	 mov	 DWORD PTR _hrgn$198547[ebp], eax

; 263  : 		ReleaseDC(dc);

  00d6c	8b 45 f8	 mov	 eax, DWORD PTR _dc$198546[ebp]
  00d6f	50		 push	 eax
  00d70	8b 4d f0	 mov	 ecx, DWORD PTR _this$[ebp]
  00d73	e8 00 00 00 00	 call	 ?ReleaseDC@CWnd@@QAEHPAVCDC@@@Z ; CWnd::ReleaseDC

; 264  : 		::SetWindowRgn(m_hWnd, hrgn, true);

  00d78	6a 01		 push	 1
  00d7a	8b 4d f4	 mov	 ecx, DWORD PTR _hrgn$198547[ebp]
  00d7d	51		 push	 ecx
  00d7e	8b 55 f0	 mov	 edx, DWORD PTR _this$[ebp]
  00d81	8b 42 20	 mov	 eax, DWORD PTR [edx+32]
  00d84	50		 push	 eax
  00d85	ff 15 00 00 00
	00		 call	 DWORD PTR __imp__SetWindowRgn@12

; 265  : 		AfxGetUIManager()->UIGetLayoutMgr()->UpdateLayout(this->m_hWnd);

  00d8b	e8 00 00 00 00	 call	 ?AfxGetUIManager@@YAPAVIUIManager@@XZ ; AfxGetUIManager
  00d90	89 45 e0	 mov	 DWORD PTR tv132[ebp], eax
  00d93	8b 4d e0	 mov	 ecx, DWORD PTR tv132[ebp]
  00d96	8b 11		 mov	 edx, DWORD PTR [ecx]
  00d98	8b 4d e0	 mov	 ecx, DWORD PTR tv132[ebp]
  00d9b	ff 52 24	 call	 DWORD PTR [edx+36]
  00d9e	89 45 dc	 mov	 DWORD PTR tv137[ebp], eax
  00da1	8b 45 f0	 mov	 eax, DWORD PTR _this$[ebp]
  00da4	8b 48 20	 mov	 ecx, DWORD PTR [eax+32]
  00da7	51		 push	 ecx
  00da8	8b 55 dc	 mov	 edx, DWORD PTR tv137[ebp]
  00dab	8b 02		 mov	 eax, DWORD PTR [edx]
  00dad	8b 4d dc	 mov	 ecx, DWORD PTR tv137[ebp]
  00db0	ff 50 14	 call	 DWORD PTR [eax+20]
$L198544:

; 266  : 	}
; 267  : 
; 268  : 	if(m_strContent != "")

  00db3	68 00 00 00 00	 push	 OFFSET FLAT:$SG198549
  00db8	8b 4d f0	 mov	 ecx, DWORD PTR _this$[ebp]
  00dbb	81 c1 04 01 00
	00		 add	 ecx, 260		; 00000104H
  00dc1	51		 push	 ecx
  00dc2	e8 00 00 00 00	 call	 ??9ATL@@YA_NABV?$CStringT@DV?$StrTraitMFC_DLL@DV?$ChTraitsCRT@D@ATL@@@@@0@PBD@Z ; ATL::operator!=
  00dc7	83 c4 08	 add	 esp, 8
  00dca	0f b6 d0	 movzx	 edx, al
  00dcd	85 d2		 test	 edx, edx
  00dcf	74 2a		 je	 SHORT $L198548

; 269  : 		AfxGetUIManager()->UIGetLayoutMgr()->UpdateLayout( m_hWnd );

  00dd1	e8 00 00 00 00	 call	 ?AfxGetUIManager@@YAPAVIUIManager@@XZ ; AfxGetUIManager
  00dd6	89 45 d8	 mov	 DWORD PTR tv150[ebp], eax
  00dd9	8b 45 d8	 mov	 eax, DWORD PTR tv150[ebp]
  00ddc	8b 10		 mov	 edx, DWORD PTR [eax]
  00dde	8b 4d d8	 mov	 ecx, DWORD PTR tv150[ebp]
  00de1	ff 52 24	 call	 DWORD PTR [edx+36]
  00de4	89 45 d4	 mov	 DWORD PTR tv155[ebp], eax
  00de7	8b 45 f0	 mov	 eax, DWORD PTR _this$[ebp]
  00dea	8b 48 20	 mov	 ecx, DWORD PTR [eax+32]
  00ded	51		 push	 ecx
  00dee	8b 55 d4	 mov	 edx, DWORD PTR tv155[ebp]
  00df1	8b 02		 mov	 eax, DWORD PTR [edx]
  00df3	8b 4d d4	 mov	 ecx, DWORD PTR tv155[ebp]
  00df6	ff 50 14	 call	 DWORD PTR [eax+20]

; 270  : 	else

  00df9	eb 08		 jmp	 SHORT $L198550
$L198548:

; 271  : 		MoveContentWindow();

  00dfb	8b 4d f0	 mov	 ecx, DWORD PTR _this$[ebp]
  00dfe	e8 00 00 00 00	 call	 ?MoveContentWindow@CHostWnd@@IAEXXZ ; CHostWnd::MoveContentWindow
$L198550:

; 272  : 
; 273  : 	RedrawWindow(NULL, NULL, RDW_INVALIDATE | RDW_UPDATENOW | RDW_ERASE | RDW_ALLCHILDREN);

  00e03	68 85 01 00 00	 push	 389			; 00000185H
  00e08	6a 00		 push	 0
  00e0a	6a 00		 push	 0
  00e0c	8b 4d f0	 mov	 ecx, DWORD PTR _this$[ebp]
  00e0f	e8 00 00 00 00	 call	 ?RedrawWindow@CWnd@@QAEHPBUtagRECT@@PAVCRgn@@I@Z ; CWnd::RedrawWindow

; 274  : }

  00e14	8b e5		 mov	 esp, ebp
  00e16	5d		 pop	 ebp
  00e17	c2 0c 00	 ret	 12			; 0000000cH
?OnSize@CHostWnd@@IAEXIHH@Z ENDP			; CHostWnd::OnSize
; Function compile flags: /Odt
_this$ = -4						; size = 4
?OnBnClickedOk@CHostWnd@@IAEXXZ PROC NEAR		; CHostWnd::OnBnClickedOk
; _this$ = ecx

; 277  : {

  00e20	55		 push	 ebp
  00e21	8b ec		 mov	 ebp, esp
  00e23	51		 push	 ecx
  00e24	89 4d fc	 mov	 DWORD PTR _this$[ebp], ecx

; 278  : 	OnOK();

  00e27	8b 45 fc	 mov	 eax, DWORD PTR _this$[ebp]
  00e2a	8b 10		 mov	 edx, DWORD PTR [eax]
  00e2c	8b 4d fc	 mov	 ecx, DWORD PTR _this$[ebp]
  00e2f	ff 92 54 01 00
	00		 call	 DWORD PTR [edx+340]

; 279  : }

  00e35	8b e5		 mov	 esp, ebp
  00e37	5d		 pop	 ebp
  00e38	c3		 ret	 0
?OnBnClickedOk@CHostWnd@@IAEXXZ ENDP			; CHostWnd::OnBnClickedOk
; Function compile flags: /Odt
_this$ = -4						; size = 4
_pDC$ = 8						; size = 4
?OnEraseBkgnd@CHostWnd@@IAEHPAVCDC@@@Z PROC NEAR	; CHostWnd::OnEraseBkgnd
; _this$ = ecx

; 282  : {

  00e40	55		 push	 ebp
  00e41	8b ec		 mov	 ebp, esp
  00e43	51		 push	 ecx
  00e44	89 4d fc	 mov	 DWORD PTR _this$[ebp], ecx

; 283  : 	// TODO: Add your message handler code here and/or call default
; 284  : 	return true;

  00e47	b8 01 00 00 00	 mov	 eax, 1

; 285  : 	return CDialog::OnEraseBkgnd(pDC);
; 286  : }

  00e4c	8b e5		 mov	 esp, ebp
  00e4e	5d		 pop	 ebp
  00e4f	c2 04 00	 ret	 4
?OnEraseBkgnd@CHostWnd@@IAEHPAVCDC@@@Z ENDP		; CHostWnd::OnEraseBkgnd
_TEXT	ENDS
EXTRN	?ScreenToClient@CWnd@@QBEXPAUtagRECT@@@Z:NEAR	; CWnd::ScreenToClient
EXTRN	?ShowWindow@CWnd@@QAEHH@Z:NEAR			; CWnd::ShowWindow
; Function compile flags: /Odt
_TEXT	SEGMENT
_this$ = -20						; size = 4
_rc$ = -16						; size = 16
?MoveContentWindow@CHostWnd@@IAEXXZ PROC NEAR		; CHostWnd::MoveContentWindow
; _this$ = ecx

; 288  : {

  00e60	55		 push	 ebp
  00e61	8b ec		 mov	 ebp, esp
  00e63	83 ec 14	 sub	 esp, 20			; 00000014H
  00e66	89 4d ec	 mov	 DWORD PTR _this$[ebp], ecx

; 289  : 	CRect rc;

  00e69	8d 4d f0	 lea	 ecx, DWORD PTR _rc$[ebp]
  00e6c	e8 00 00 00 00	 call	 ??0CRect@@QAE@XZ	; CRect::CRect

; 290  : 	if(m_pWnd == NULL)

  00e71	8b 45 ec	 mov	 eax, DWORD PTR _this$[ebp]
  00e74	83 b8 88 00 00
	00 00		 cmp	 DWORD PTR [eax+136], 0
  00e7b	75 02		 jne	 SHORT $L198562

; 291  : 		return;

  00e7d	eb 78		 jmp	 SHORT $L198560
$L198562:

; 292  : 
; 293  : 	this->GetWindowRect(&rc);

  00e7f	8d 4d f0	 lea	 ecx, DWORD PTR _rc$[ebp]
  00e82	51		 push	 ecx
  00e83	8b 4d ec	 mov	 ecx, DWORD PTR _this$[ebp]
  00e86	e8 00 00 00 00	 call	 ?GetWindowRect@CWnd@@QBEXPAUtagRECT@@@Z ; CWnd::GetWindowRect

; 294  : 	rc.left += m_nL;

  00e8b	8b 55 ec	 mov	 edx, DWORD PTR _this$[ebp]
  00e8e	8b 45 f0	 mov	 eax, DWORD PTR _rc$[ebp]
  00e91	03 82 8c 00 00
	00		 add	 eax, DWORD PTR [edx+140]
  00e97	89 45 f0	 mov	 DWORD PTR _rc$[ebp], eax

; 295  : 	rc.top += m_nT;

  00e9a	8b 4d ec	 mov	 ecx, DWORD PTR _this$[ebp]
  00e9d	8b 55 f4	 mov	 edx, DWORD PTR _rc$[ebp+4]
  00ea0	03 91 94 00 00
	00		 add	 edx, DWORD PTR [ecx+148]
  00ea6	89 55 f4	 mov	 DWORD PTR _rc$[ebp+4], edx

; 296  : 	rc.right -= m_nR;

  00ea9	8b 45 ec	 mov	 eax, DWORD PTR _this$[ebp]
  00eac	8b 4d f8	 mov	 ecx, DWORD PTR _rc$[ebp+8]
  00eaf	2b 88 90 00 00
	00		 sub	 ecx, DWORD PTR [eax+144]
  00eb5	89 4d f8	 mov	 DWORD PTR _rc$[ebp+8], ecx

; 297  : 	rc.bottom -= m_nB;

  00eb8	8b 55 ec	 mov	 edx, DWORD PTR _this$[ebp]
  00ebb	8b 45 fc	 mov	 eax, DWORD PTR _rc$[ebp+12]
  00ebe	2b 82 98 00 00
	00		 sub	 eax, DWORD PTR [edx+152]
  00ec4	89 45 fc	 mov	 DWORD PTR _rc$[ebp+12], eax

; 298  : 	ScreenToClient(&rc);

  00ec7	8d 4d f0	 lea	 ecx, DWORD PTR _rc$[ebp]
  00eca	51		 push	 ecx
  00ecb	8b 4d ec	 mov	 ecx, DWORD PTR _this$[ebp]
  00ece	e8 00 00 00 00	 call	 ?ScreenToClient@CWnd@@QBEXPAUtagRECT@@@Z ; CWnd::ScreenToClient

; 299  : 	m_pWnd->MoveWindow(&rc, true);

  00ed3	6a 01		 push	 1
  00ed5	8d 55 f0	 lea	 edx, DWORD PTR _rc$[ebp]
  00ed8	52		 push	 edx
  00ed9	8b 45 ec	 mov	 eax, DWORD PTR _this$[ebp]
  00edc	8b 88 88 00 00
	00		 mov	 ecx, DWORD PTR [eax+136]
  00ee2	e8 00 00 00 00	 call	 ?MoveWindow@CWnd@@QAEXPBUtagRECT@@H@Z ; CWnd::MoveWindow

; 300  : 	m_pWnd->ShowWindow(SW_SHOW);

  00ee7	6a 05		 push	 5
  00ee9	8b 4d ec	 mov	 ecx, DWORD PTR _this$[ebp]
  00eec	8b 89 88 00 00
	00		 mov	 ecx, DWORD PTR [ecx+136]
  00ef2	e8 00 00 00 00	 call	 ?ShowWindow@CWnd@@QAEHH@Z ; CWnd::ShowWindow
$L198560:

; 301  : }

  00ef7	8b e5		 mov	 esp, ebp
  00ef9	5d		 pop	 ebp
  00efa	c3		 ret	 0
?MoveContentWindow@CHostWnd@@IAEXXZ ENDP		; CHostWnd::MoveContentWindow
_TEXT	ENDS
PUBLIC	?HostWindow@CHostWnd@@QAEXPAVCWnd@@_N@Z		; CHostWnd::HostWindow
PUBLIC	?GetParent@CWnd@@QBEPAV1@XZ			; CWnd::GetParent
PUBLIC	?SetParent@CWnd@@QAEPAV1@PAV1@@Z		; CWnd::SetParent
PUBLIC	??8ATL@@YA_NABV?$CStringT@DV?$StrTraitMFC_DLL@DV?$ChTraitsCRT@D@ATL@@@@@0@PBD@Z ; ATL::operator==
; Function compile flags: /Odt
_TEXT	SEGMENT
tv77 = -8						; size = 4
_this$ = -4						; size = 4
_pWnd$ = 8						; size = 4
_isMain$ = 12						; size = 1
?HostWindow@CHostWnd@@QAEXPAVCWnd@@_N@Z PROC NEAR	; CHostWnd::HostWindow
; _this$ = ecx

; 304  : {

  00f00	55		 push	 ebp
  00f01	8b ec		 mov	 ebp, esp
  00f03	83 ec 08	 sub	 esp, 8
  00f06	89 4d fc	 mov	 DWORD PTR _this$[ebp], ecx

; 305  : 	if(m_strContent == "")

  00f09	68 00 00 00 00	 push	 OFFSET FLAT:$SG198569
  00f0e	8b 45 fc	 mov	 eax, DWORD PTR _this$[ebp]
  00f11	05 04 01 00 00	 add	 eax, 260		; 00000104H
  00f16	50		 push	 eax
  00f17	e8 00 00 00 00	 call	 ??8ATL@@YA_NABV?$CStringT@DV?$StrTraitMFC_DLL@DV?$ChTraitsCRT@D@ATL@@@@@0@PBD@Z ; ATL::operator==
  00f1c	83 c4 08	 add	 esp, 8
  00f1f	0f b6 c8	 movzx	 ecx, al
  00f22	85 c9		 test	 ecx, ecx
  00f24	74 4f		 je	 SHORT $L198567

; 306  : 	{
; 307  : 		m_hParentWnd = (pWnd->GetParent() == NULL)? NULL: pWnd->GetParent()->m_hWnd;

  00f26	8b 4d 08	 mov	 ecx, DWORD PTR _pWnd$[ebp]
  00f29	e8 00 00 00 00	 call	 ?GetParent@CWnd@@QBEPAV1@XZ ; CWnd::GetParent
  00f2e	85 c0		 test	 eax, eax
  00f30	75 09		 jne	 SHORT $L199308
  00f32	c7 45 f8 00 00
	00 00		 mov	 DWORD PTR tv77[ebp], 0
  00f39	eb 0e		 jmp	 SHORT $L199309
$L199308:
  00f3b	8b 4d 08	 mov	 ecx, DWORD PTR _pWnd$[ebp]
  00f3e	e8 00 00 00 00	 call	 ?GetParent@CWnd@@QBEPAV1@XZ ; CWnd::GetParent
  00f43	8b 50 20	 mov	 edx, DWORD PTR [eax+32]
  00f46	89 55 f8	 mov	 DWORD PTR tv77[ebp], edx
$L199309:
  00f49	8b 45 fc	 mov	 eax, DWORD PTR _this$[ebp]
  00f4c	8b 4d f8	 mov	 ecx, DWORD PTR tv77[ebp]
  00f4f	89 88 84 00 00
	00		 mov	 DWORD PTR [eax+132], ecx

; 308  : 		MoveContentWindow();

  00f55	8b 4d fc	 mov	 ecx, DWORD PTR _this$[ebp]
  00f58	e8 00 00 00 00	 call	 ?MoveContentWindow@CHostWnd@@IAEXXZ ; CHostWnd::MoveContentWindow

; 309  : 		m_pWnd = pWnd;

  00f5d	8b 55 fc	 mov	 edx, DWORD PTR _this$[ebp]
  00f60	8b 45 08	 mov	 eax, DWORD PTR _pWnd$[ebp]
  00f63	89 82 88 00 00
	00		 mov	 DWORD PTR [edx+136], eax

; 310  : 		pWnd->SetParent(this);

  00f69	8b 4d fc	 mov	 ecx, DWORD PTR _this$[ebp]
  00f6c	51		 push	 ecx
  00f6d	8b 4d 08	 mov	 ecx, DWORD PTR _pWnd$[ebp]
  00f70	e8 00 00 00 00	 call	 ?SetParent@CWnd@@QAEPAV1@PAV1@@Z ; CWnd::SetParent
$L198567:

; 311  : 
; 312  : 	}
; 313  : }

  00f75	8b e5		 mov	 esp, ebp
  00f77	5d		 pop	 ebp
  00f78	c2 08 00	 ret	 8
?HostWindow@CHostWnd@@QAEXPAVCWnd@@_N@Z ENDP		; CHostWnd::HostWindow
_TEXT	ENDS
PUBLIC	?DetachWindow@CHostWnd@@QAEXXZ			; CHostWnd::DetachWindow
; Function compile flags: /Odt
_TEXT	SEGMENT
_this$ = -4						; size = 4
?DetachWindow@CHostWnd@@QAEXXZ PROC NEAR		; CHostWnd::DetachWindow
; _this$ = ecx

; 316  : {

  00f80	55		 push	 ebp
  00f81	8b ec		 mov	 ebp, esp
  00f83	51		 push	 ecx
  00f84	89 4d fc	 mov	 DWORD PTR _this$[ebp], ecx

; 317  : 	if(m_pWnd != NULL)

  00f87	8b 45 fc	 mov	 eax, DWORD PTR _this$[ebp]
  00f8a	83 b8 88 00 00
	00 00		 cmp	 DWORD PTR [eax+136], 0
  00f91	74 1d		 je	 SHORT $L198572

; 318  : 		::SetParent(m_pWnd->m_hWnd , m_hParentWnd);

  00f93	8b 4d fc	 mov	 ecx, DWORD PTR _this$[ebp]
  00f96	8b 91 84 00 00
	00		 mov	 edx, DWORD PTR [ecx+132]
  00f9c	52		 push	 edx
  00f9d	8b 45 fc	 mov	 eax, DWORD PTR _this$[ebp]
  00fa0	8b 88 88 00 00
	00		 mov	 ecx, DWORD PTR [eax+136]
  00fa6	8b 51 20	 mov	 edx, DWORD PTR [ecx+32]
  00fa9	52		 push	 edx
  00faa	ff 15 00 00 00
	00		 call	 DWORD PTR __imp__SetParent@8
$L198572:

; 319  : }

  00fb0	8b e5		 mov	 esp, ebp
  00fb2	5d		 pop	 ebp
  00fb3	c3		 ret	 0
?DetachWindow@CHostWnd@@QAEXXZ ENDP			; CHostWnd::DetachWindow
_TEXT	ENDS
PUBLIC	?InterlockedExchangePointer@@YGPAXPAPAXPAX@Z	; InterlockedExchangePointer
PUBLIC	?_AtlGetThreadACPFake@ATL@@YGIXZ		; ATL::_AtlGetThreadACPFake
PUBLIC	?_AtlGetThreadACPReal@ATL@@YGIXZ		; ATL::_AtlGetThreadACPReal
EXTRN	__imp__GetVersionExA@4:NEAR
; Function compile flags: /Odt
; File d:\program files (x86)\microsoft visual studio .net 2003\vc7\atlmfc\include\atlconv.h
;	COMDAT ?_AtlGetThreadACPThunk@ATL@@YGIXZ
_TEXT	SEGMENT
_pfnGetThreadACP$ = -164				; size = 4
_ver$ = -160						; size = 148
__$ArrayPad$ = -4					; size = 4
__$ReturnAddr$ = 4					; size = 4
?_AtlGetThreadACPThunk@ATL@@YGIXZ PROC NEAR		; ATL::_AtlGetThreadACPThunk, COMDAT

; 134  : {

  00000	55		 push	 ebp
  00001	8b ec		 mov	 ebp, esp
  00003	81 ec a4 00 00
	00		 sub	 esp, 164		; 000000a4H
  00009	a1 00 00 00 00	 mov	 eax, DWORD PTR ___security_cookie
  0000e	89 45 fc	 mov	 DWORD PTR __$ArrayPad$[ebp], eax

; 135  : 	OSVERSIONINFO ver;
; 136  : 	ATLGETTHREADACP pfnGetThreadACP;
; 137  : 
; 138  : 	ver.dwOSVersionInfoSize = sizeof( ver );

  00011	c7 85 60 ff ff
	ff 94 00 00 00	 mov	 DWORD PTR _ver$[ebp], 148 ; 00000094H

; 139  : 	::GetVersionEx( &ver );

  0001b	8d 85 60 ff ff
	ff		 lea	 eax, DWORD PTR _ver$[ebp]
  00021	50		 push	 eax
  00022	ff 15 00 00 00
	00		 call	 DWORD PTR __imp__GetVersionExA@4

; 140  : 	if( (ver.dwPlatformId == VER_PLATFORM_WIN32_NT) && (ver.dwMajorVersion >= 5) )

  00028	83 bd 70 ff ff
	ff 02		 cmp	 DWORD PTR _ver$[ebp+16], 2
  0002f	75 15		 jne	 SHORT $L24173
  00031	83 bd 64 ff ff
	ff 05		 cmp	 DWORD PTR _ver$[ebp+4], 5
  00038	72 0c		 jb	 SHORT $L24173

; 141  : 	{
; 142  : 		// On Win2K, CP_THREAD_ACP is supported
; 143  : 		pfnGetThreadACP = _AtlGetThreadACPReal;

  0003a	c7 85 5c ff ff
	ff 00 00 00 00	 mov	 DWORD PTR _pfnGetThreadACP$[ebp], OFFSET FLAT:?_AtlGetThreadACPReal@ATL@@YGIXZ ; ATL::_AtlGetThreadACPReal

; 144  : 	}
; 145  : 	else

  00044	eb 0a		 jmp	 SHORT $L24174
$L24173:

; 146  : 	{
; 147  : 		pfnGetThreadACP = _AtlGetThreadACPFake;

  00046	c7 85 5c ff ff
	ff 00 00 00 00	 mov	 DWORD PTR _pfnGetThreadACP$[ebp], OFFSET FLAT:?_AtlGetThreadACPFake@ATL@@YGIXZ ; ATL::_AtlGetThreadACPFake
$L24174:

; 148  : 	}
; 149  : 	InterlockedExchangePointer( reinterpret_cast< void** >(&g_pfnGetThreadACP), pfnGetThreadACP );

  00050	8b 8d 5c ff ff
	ff		 mov	 ecx, DWORD PTR _pfnGetThreadACP$[ebp]
  00056	51		 push	 ecx
  00057	68 00 00 00 00	 push	 OFFSET FLAT:?g_pfnGetThreadACP@ATL@@3P6GIXZA ; ATL::g_pfnGetThreadACP
  0005c	e8 00 00 00 00	 call	 ?InterlockedExchangePointer@@YGPAXPAPAXPAX@Z ; InterlockedExchangePointer

; 150  : 
; 151  : 	return( g_pfnGetThreadACP() );

  00061	ff 15 00 00 00
	00		 call	 DWORD PTR ?g_pfnGetThreadACP@ATL@@3P6GIXZA ; ATL::g_pfnGetThreadACP

; 152  : }

  00067	8b 4d fc	 mov	 ecx, DWORD PTR __$ArrayPad$[ebp]
  0006a	e8 00 00 00 00	 call	 @__security_check_cookie@4
  0006f	8b e5		 mov	 esp, ebp
  00071	5d		 pop	 ebp
  00072	c3		 ret	 0
?_AtlGetThreadACPThunk@ATL@@YGIXZ ENDP			; ATL::_AtlGetThreadACPThunk
_TEXT	ENDS
EXTRN	__imp__InterlockedExchange@8:NEAR
; Function compile flags: /Odt
;	COMDAT ?InterlockedExchangePointer@@YGPAXPAPAXPAX@Z
_TEXT	SEGMENT
_pp$ = 8						; size = 4
_pNew$ = 12						; size = 4
?InterlockedExchangePointer@@YGPAXPAPAXPAX@Z PROC NEAR	; InterlockedExchangePointer, COMDAT

; 91   : {

  00000	55		 push	 ebp
  00001	8b ec		 mov	 ebp, esp

; 92   : 	return( reinterpret_cast<void*>(static_cast<LONG_PTR>(::InterlockedExchange(reinterpret_cast<LONG*>(pp), static_cast<LONG>(reinterpret_cast<LONG_PTR>(pNew))))) );

  00003	8b 45 0c	 mov	 eax, DWORD PTR _pNew$[ebp]
  00006	50		 push	 eax
  00007	8b 4d 08	 mov	 ecx, DWORD PTR _pp$[ebp]
  0000a	51		 push	 ecx
  0000b	ff 15 00 00 00
	00		 call	 DWORD PTR __imp__InterlockedExchange@8

; 93   : }

  00011	5d		 pop	 ebp
  00012	c2 08 00	 ret	 8
?InterlockedExchangePointer@@YGPAXPAPAXPAX@Z ENDP	; InterlockedExchangePointer
_TEXT	ENDS
EXTRN	__imp__GetACP@0:NEAR
EXTRN	__imp__GetLocaleInfoA@16:NEAR
EXTRN	__imp__GetThreadLocale@0:NEAR
; Function compile flags: /Odt
;	COMDAT ?_AtlGetThreadACPFake@ATL@@YGIXZ
_TEXT	SEGMENT
_pch$24161 = -24					; size = 4
_lcidThread$ = -20					; size = 4
_szACP$ = -16						; size = 7
__$ArrayPad$ = -8					; size = 4
_nACP$ = -4						; size = 4
__$ReturnAddr$ = 4					; size = 4
?_AtlGetThreadACPFake@ATL@@YGIXZ PROC NEAR		; ATL::_AtlGetThreadACPFake, COMDAT

; 101  : {

  00000	55		 push	 ebp
  00001	8b ec		 mov	 ebp, esp
  00003	83 ec 18	 sub	 esp, 24			; 00000018H
  00006	a1 00 00 00 00	 mov	 eax, DWORD PTR ___security_cookie
  0000b	89 45 f8	 mov	 DWORD PTR __$ArrayPad$[ebp], eax

; 102  : 	UINT nACP = 0;

  0000e	c7 45 fc 00 00
	00 00		 mov	 DWORD PTR _nACP$[ebp], 0

; 103  : 
; 104  : 	LCID lcidThread = ::GetThreadLocale();

  00015	ff 15 00 00 00
	00		 call	 DWORD PTR __imp__GetThreadLocale@0
  0001b	89 45 ec	 mov	 DWORD PTR _lcidThread$[ebp], eax

; 105  : 
; 106  : 	char szACP[7];
; 107  : 	// GetLocaleInfoA will fail for a Unicode-only LCID, but those are only supported on 
; 108  : 	// Windows 2000.  Since Windows 2000 supports CP_THREAD_ACP, this code path is never
; 109  : 	// executed on Windows 2000.
; 110  : 	if (::GetLocaleInfoA(lcidThread, LOCALE_IDEFAULTANSICODEPAGE, szACP, 7) != 0)

  0001e	6a 07		 push	 7
  00020	8d 45 f0	 lea	 eax, DWORD PTR _szACP$[ebp]
  00023	50		 push	 eax
  00024	68 04 10 00 00	 push	 4100			; 00001004H
  00029	8b 4d ec	 mov	 ecx, DWORD PTR _lcidThread$[ebp]
  0002c	51		 push	 ecx
  0002d	ff 15 00 00 00
	00		 call	 DWORD PTR __imp__GetLocaleInfoA@16
  00033	85 c0		 test	 eax, eax
  00035	74 34		 je	 SHORT $L24160

; 111  : 	{
; 112  : 		char* pch = szACP;

  00037	8d 55 f0	 lea	 edx, DWORD PTR _szACP$[ebp]
  0003a	89 55 e8	 mov	 DWORD PTR _pch$24161[ebp], edx
$L24163:

; 113  : 		while (*pch != '\0')

  0003d	8b 45 e8	 mov	 eax, DWORD PTR _pch$24161[ebp]
  00040	0f be 08	 movsx	 ecx, BYTE PTR [eax]
  00043	85 c9		 test	 ecx, ecx
  00045	74 24		 je	 SHORT $L24160

; 114  : 		{
; 115  : 			nACP *= 10;

  00047	8b 55 fc	 mov	 edx, DWORD PTR _nACP$[ebp]
  0004a	6b d2 0a	 imul	 edx, 10			; 0000000aH
  0004d	89 55 fc	 mov	 DWORD PTR _nACP$[ebp], edx

; 116  : 			nACP += *pch++ - '0';

  00050	8b 45 e8	 mov	 eax, DWORD PTR _pch$24161[ebp]
  00053	0f be 08	 movsx	 ecx, BYTE PTR [eax]
  00056	8b 55 fc	 mov	 edx, DWORD PTR _nACP$[ebp]
  00059	8d 44 0a d0	 lea	 eax, DWORD PTR [edx+ecx-48]
  0005d	89 45 fc	 mov	 DWORD PTR _nACP$[ebp], eax
  00060	8b 4d e8	 mov	 ecx, DWORD PTR _pch$24161[ebp]
  00063	83 c1 01	 add	 ecx, 1
  00066	89 4d e8	 mov	 DWORD PTR _pch$24161[ebp], ecx

; 117  : 		}

  00069	eb d2		 jmp	 SHORT $L24163
$L24160:

; 118  : 	}
; 119  : 	// Use the Default ANSI Code Page if we were unable to get the thread ACP or if one does not exist.
; 120  : 	if (nACP == 0)

  0006b	83 7d fc 00	 cmp	 DWORD PTR _nACP$[ebp], 0
  0006f	75 09		 jne	 SHORT $L24165

; 121  : 		nACP = ::GetACP();

  00071	ff 15 00 00 00
	00		 call	 DWORD PTR __imp__GetACP@0
  00077	89 45 fc	 mov	 DWORD PTR _nACP$[ebp], eax
$L24165:

; 122  : 
; 123  : 	return nACP;

  0007a	8b 45 fc	 mov	 eax, DWORD PTR _nACP$[ebp]

; 124  : }

  0007d	8b 4d f8	 mov	 ecx, DWORD PTR __$ArrayPad$[ebp]
  00080	e8 00 00 00 00	 call	 @__security_check_cookie@4
  00085	8b e5		 mov	 esp, ebp
  00087	5d		 pop	 ebp
  00088	c3		 ret	 0
?_AtlGetThreadACPFake@ATL@@YGIXZ ENDP			; ATL::_AtlGetThreadACPFake
; Function compile flags: /Odt
_TEXT	ENDS
;	COMDAT ?_AtlGetThreadACPReal@ATL@@YGIXZ
_TEXT	SEGMENT
?_AtlGetThreadACPReal@ATL@@YGIXZ PROC NEAR		; ATL::_AtlGetThreadACPReal, COMDAT

; 127  : {

  00000	55		 push	 ebp
  00001	8b ec		 mov	 ebp, esp

; 128  : 	return( CP_THREAD_ACP );

  00003	b8 03 00 00 00	 mov	 eax, 3

; 129  : }

  00008	5d		 pop	 ebp
  00009	c3		 ret	 0
?_AtlGetThreadACPReal@ATL@@YGIXZ ENDP			; ATL::_AtlGetThreadACPReal
_TEXT	ENDS
EXTRN	__imp__GetWindowRect@8:NEAR
; Function compile flags: /Odt
; File d:\boxgit\playbox\playbox\dev\prj\playbox\src\layoutmgr\seperatemode\hostwnd.cpp
_TEXT	SEGMENT
_this$ = -52						; size = 4
_m_hCursor$198618 = -48					; size = 4
_m_hCursor$198612 = -44					; size = 4
_m_hCursor$198607 = -40					; size = 4
_m_hCursor$198601 = -36					; size = 4
_m_hCursor$198596 = -32					; size = 4
_m_hCursor$198591 = -28					; size = 4
_m_hCursor$198586 = -24					; size = 4
_m_hCursor$198581 = -20					; size = 4
_fullRect$ = -16					; size = 16
_Pt$ = 8						; size = 4
?_needChangeCursor@CHostWnd@@MAE_NABVCPoint@@@Z PROC NEAR ; CHostWnd::_needChangeCursor
; _this$ = ecx

; 323  : {

  00fc0	55		 push	 ebp
  00fc1	8b ec		 mov	 ebp, esp
  00fc3	83 ec 34	 sub	 esp, 52			; 00000034H
  00fc6	89 4d cc	 mov	 DWORD PTR _this$[ebp], ecx

; 324  : 	RECT fullRect;
; 325  : 
; 326  : 	if(!m_bMovable)

  00fc9	8b 45 cc	 mov	 eax, DWORD PTR _this$[ebp]
  00fcc	83 78 7c 00	 cmp	 DWORD PTR [eax+124], 0
  00fd0	75 07		 jne	 SHORT $L198579

; 327  : 		return false;

  00fd2	32 c0		 xor	 al, al
  00fd4	e9 f5 02 00 00	 jmp	 $L198577
$L198579:

; 328  : 
; 329  : 	::GetWindowRect(m_hWnd,&fullRect);//rect			

  00fd9	8d 4d f0	 lea	 ecx, DWORD PTR _fullRect$[ebp]
  00fdc	51		 push	 ecx
  00fdd	8b 55 cc	 mov	 edx, DWORD PTR _this$[ebp]
  00fe0	8b 42 20	 mov	 eax, DWORD PTR [edx+32]
  00fe3	50		 push	 eax
  00fe4	ff 15 00 00 00
	00		 call	 DWORD PTR __imp__GetWindowRect@8

; 330  : 
; 331  : 	// cursor 
; 332  : 	//  6*6 re_size
; 333  : 	if( (Pt.x >= 0 && Pt.x <= 8 ) && (Pt.y > fullRect.bottom - fullRect.top - 8) )

  00fea	8b 4d 08	 mov	 ecx, DWORD PTR _Pt$[ebp]
  00fed	83 39 00	 cmp	 DWORD PTR [ecx], 0
  00ff0	7c 64		 jl	 SHORT $L198580
  00ff2	8b 55 08	 mov	 edx, DWORD PTR _Pt$[ebp]
  00ff5	83 3a 08	 cmp	 DWORD PTR [edx], 8
  00ff8	7f 5c		 jg	 SHORT $L198580
  00ffa	8b 45 fc	 mov	 eax, DWORD PTR _fullRect$[ebp+12]
  00ffd	2b 45 f4	 sub	 eax, DWORD PTR _fullRect$[ebp+4]
  01000	83 e8 08	 sub	 eax, 8
  01003	8b 4d 08	 mov	 ecx, DWORD PTR _Pt$[ebp]
  01006	39 41 04	 cmp	 DWORD PTR [ecx+4], eax
  01009	7e 4b		 jle	 SHORT $L198580

; 334  : 	{
; 335  : 		//
; 336  : 		HCURSOR  m_hCursor = ::LoadCursor(NULL, IDC_SIZENESW);

  0100b	68 83 7f 00 00	 push	 32643			; 00007f83H
  01010	6a 00		 push	 0
  01012	ff 15 00 00 00
	00		 call	 DWORD PTR __imp__LoadCursorA@8
  01018	89 45 ec	 mov	 DWORD PTR _m_hCursor$198581[ebp], eax

; 337  : 		::SetCursor(m_hCursor);

  0101b	8b 55 ec	 mov	 edx, DWORD PTR _m_hCursor$198581[ebp]
  0101e	52		 push	 edx
  0101f	ff 15 00 00 00
	00		 call	 DWORD PTR __imp__SetCursor@4

; 338  : 		m_iDirection |= DIRECTION_LEFT;

  01025	8b 45 cc	 mov	 eax, DWORD PTR _this$[ebp]
  01028	8b 88 9c 00 00
	00		 mov	 ecx, DWORD PTR [eax+156]
  0102e	83 c9 01	 or	 ecx, 1
  01031	8b 55 cc	 mov	 edx, DWORD PTR _this$[ebp]
  01034	89 8a 9c 00 00
	00		 mov	 DWORD PTR [edx+156], ecx

; 339  : 		m_iDirection |= DIRECTION_BOTTOM;

  0103a	8b 45 cc	 mov	 eax, DWORD PTR _this$[ebp]
  0103d	8b 88 9c 00 00
	00		 mov	 ecx, DWORD PTR [eax+156]
  01043	83 c9 08	 or	 ecx, 8
  01046	8b 55 cc	 mov	 edx, DWORD PTR _this$[ebp]
  01049	89 8a 9c 00 00
	00		 mov	 DWORD PTR [edx+156], ecx

; 340  : 
; 341  : 		return TRUE;

  0104f	b0 01		 mov	 al, 1
  01051	e9 78 02 00 00	 jmp	 $L198577
$L198580:

; 342  : 	}
; 343  : 	//  6*6 re_size
; 344  : 	if( (Pt.x > fullRect.right - fullRect.left - 8) && (Pt.y > fullRect.bottom - fullRect.top - 8) )

  01056	8b 45 f8	 mov	 eax, DWORD PTR _fullRect$[ebp+8]
  01059	2b 45 f0	 sub	 eax, DWORD PTR _fullRect$[ebp]
  0105c	83 e8 08	 sub	 eax, 8
  0105f	8b 4d 08	 mov	 ecx, DWORD PTR _Pt$[ebp]
  01062	39 01		 cmp	 DWORD PTR [ecx], eax
  01064	7e 5c		 jle	 SHORT $L198585
  01066	8b 55 fc	 mov	 edx, DWORD PTR _fullRect$[ebp+12]
  01069	2b 55 f4	 sub	 edx, DWORD PTR _fullRect$[ebp+4]
  0106c	83 ea 08	 sub	 edx, 8
  0106f	8b 45 08	 mov	 eax, DWORD PTR _Pt$[ebp]
  01072	39 50 04	 cmp	 DWORD PTR [eax+4], edx
  01075	7e 4b		 jle	 SHORT $L198585

; 345  : 	{
; 346  : 		//
; 347  : 		HCURSOR  m_hCursor = ::LoadCursor(NULL, IDC_SIZENWSE);

  01077	68 82 7f 00 00	 push	 32642			; 00007f82H
  0107c	6a 00		 push	 0
  0107e	ff 15 00 00 00
	00		 call	 DWORD PTR __imp__LoadCursorA@8
  01084	89 45 e8	 mov	 DWORD PTR _m_hCursor$198586[ebp], eax

; 348  : 		::SetCursor(m_hCursor);

  01087	8b 4d e8	 mov	 ecx, DWORD PTR _m_hCursor$198586[ebp]
  0108a	51		 push	 ecx
  0108b	ff 15 00 00 00
	00		 call	 DWORD PTR __imp__SetCursor@4

; 349  : 		m_iDirection |= DIRECTION_RIGHT;

  01091	8b 55 cc	 mov	 edx, DWORD PTR _this$[ebp]
  01094	8b 82 9c 00 00
	00		 mov	 eax, DWORD PTR [edx+156]
  0109a	83 c8 02	 or	 eax, 2
  0109d	8b 4d cc	 mov	 ecx, DWORD PTR _this$[ebp]
  010a0	89 81 9c 00 00
	00		 mov	 DWORD PTR [ecx+156], eax

; 350  : 		m_iDirection |= DIRECTION_BOTTOM;

  010a6	8b 55 cc	 mov	 edx, DWORD PTR _this$[ebp]
  010a9	8b 82 9c 00 00
	00		 mov	 eax, DWORD PTR [edx+156]
  010af	83 c8 08	 or	 eax, 8
  010b2	8b 4d cc	 mov	 ecx, DWORD PTR _this$[ebp]
  010b5	89 81 9c 00 00
	00		 mov	 DWORD PTR [ecx+156], eax

; 351  : 
; 352  : 		return TRUE;

  010bb	b0 01		 mov	 al, 1
  010bd	e9 0c 02 00 00	 jmp	 $L198577
$L198585:

; 353  : 	}
; 354  : 	//  6*6 re_size
; 355  : 	if( (Pt.x >= 0 && Pt.x <= 4 ) && (Pt.y >= 0 && Pt.y <= 4) )

  010c2	8b 55 08	 mov	 edx, DWORD PTR _Pt$[ebp]
  010c5	83 3a 00	 cmp	 DWORD PTR [edx], 0
  010c8	7c 65		 jl	 SHORT $L198590
  010ca	8b 45 08	 mov	 eax, DWORD PTR _Pt$[ebp]
  010cd	83 38 04	 cmp	 DWORD PTR [eax], 4
  010d0	7f 5d		 jg	 SHORT $L198590
  010d2	8b 4d 08	 mov	 ecx, DWORD PTR _Pt$[ebp]
  010d5	83 79 04 00	 cmp	 DWORD PTR [ecx+4], 0
  010d9	7c 54		 jl	 SHORT $L198590
  010db	8b 55 08	 mov	 edx, DWORD PTR _Pt$[ebp]
  010de	83 7a 04 04	 cmp	 DWORD PTR [edx+4], 4
  010e2	7f 4b		 jg	 SHORT $L198590

; 356  : 	{
; 357  : 		//
; 358  : 		HCURSOR  m_hCursor = ::LoadCursor(NULL, IDC_SIZENWSE);

  010e4	68 82 7f 00 00	 push	 32642			; 00007f82H
  010e9	6a 00		 push	 0
  010eb	ff 15 00 00 00
	00		 call	 DWORD PTR __imp__LoadCursorA@8
  010f1	89 45 e4	 mov	 DWORD PTR _m_hCursor$198591[ebp], eax

; 359  : 		::SetCursor(m_hCursor);

  010f4	8b 45 e4	 mov	 eax, DWORD PTR _m_hCursor$198591[ebp]
  010f7	50		 push	 eax
  010f8	ff 15 00 00 00
	00		 call	 DWORD PTR __imp__SetCursor@4

; 360  : 		m_iDirection |= DIRECTION_LEFT;

  010fe	8b 4d cc	 mov	 ecx, DWORD PTR _this$[ebp]
  01101	8b 91 9c 00 00
	00		 mov	 edx, DWORD PTR [ecx+156]
  01107	83 ca 01	 or	 edx, 1
  0110a	8b 45 cc	 mov	 eax, DWORD PTR _this$[ebp]
  0110d	89 90 9c 00 00
	00		 mov	 DWORD PTR [eax+156], edx

; 361  : 		m_iDirection |= DIRECTION_TOP;

  01113	8b 4d cc	 mov	 ecx, DWORD PTR _this$[ebp]
  01116	8b 91 9c 00 00
	00		 mov	 edx, DWORD PTR [ecx+156]
  0111c	83 ca 04	 or	 edx, 4
  0111f	8b 45 cc	 mov	 eax, DWORD PTR _this$[ebp]
  01122	89 90 9c 00 00
	00		 mov	 DWORD PTR [eax+156], edx

; 362  : 
; 363  : 		return TRUE;

  01128	b0 01		 mov	 al, 1
  0112a	e9 9f 01 00 00	 jmp	 $L198577
$L198590:

; 364  : 	}
; 365  : 	//  6*6 re_size
; 366  : 	if( (Pt.x > fullRect.right - fullRect.left - 8) && (Pt.y >= 0 && Pt.y <= 8))

  0112f	8b 4d f8	 mov	 ecx, DWORD PTR _fullRect$[ebp+8]
  01132	2b 4d f0	 sub	 ecx, DWORD PTR _fullRect$[ebp]
  01135	83 e9 08	 sub	 ecx, 8
  01138	8b 55 08	 mov	 edx, DWORD PTR _Pt$[ebp]
  0113b	39 0a		 cmp	 DWORD PTR [edx], ecx
  0113d	7e 5d		 jle	 SHORT $L198595
  0113f	8b 45 08	 mov	 eax, DWORD PTR _Pt$[ebp]
  01142	83 78 04 00	 cmp	 DWORD PTR [eax+4], 0
  01146	7c 54		 jl	 SHORT $L198595
  01148	8b 4d 08	 mov	 ecx, DWORD PTR _Pt$[ebp]
  0114b	83 79 04 08	 cmp	 DWORD PTR [ecx+4], 8
  0114f	7f 4b		 jg	 SHORT $L198595

; 367  : 	{
; 368  : 		//
; 369  : 		HCURSOR  m_hCursor = ::LoadCursor(NULL, IDC_SIZENESW);

  01151	68 83 7f 00 00	 push	 32643			; 00007f83H
  01156	6a 00		 push	 0
  01158	ff 15 00 00 00
	00		 call	 DWORD PTR __imp__LoadCursorA@8
  0115e	89 45 e0	 mov	 DWORD PTR _m_hCursor$198596[ebp], eax

; 370  : 		::SetCursor(m_hCursor);

  01161	8b 55 e0	 mov	 edx, DWORD PTR _m_hCursor$198596[ebp]
  01164	52		 push	 edx
  01165	ff 15 00 00 00
	00		 call	 DWORD PTR __imp__SetCursor@4

; 371  : 		m_iDirection |= DIRECTION_RIGHT;

  0116b	8b 45 cc	 mov	 eax, DWORD PTR _this$[ebp]
  0116e	8b 88 9c 00 00
	00		 mov	 ecx, DWORD PTR [eax+156]
  01174	83 c9 02	 or	 ecx, 2
  01177	8b 55 cc	 mov	 edx, DWORD PTR _this$[ebp]
  0117a	89 8a 9c 00 00
	00		 mov	 DWORD PTR [edx+156], ecx

; 372  : 		m_iDirection |= DIRECTION_TOP;

  01180	8b 45 cc	 mov	 eax, DWORD PTR _this$[ebp]
  01183	8b 88 9c 00 00
	00		 mov	 ecx, DWORD PTR [eax+156]
  01189	83 c9 04	 or	 ecx, 4
  0118c	8b 55 cc	 mov	 edx, DWORD PTR _this$[ebp]
  0118f	89 8a 9c 00 00
	00		 mov	 DWORD PTR [edx+156], ecx

; 373  : 
; 374  : 		return TRUE;

  01195	b0 01		 mov	 al, 1
  01197	e9 32 01 00 00	 jmp	 $L198577
$L198595:

; 375  : 	}
; 376  : 	//    3 IDC_SIZEWE 
; 377  : 	if(Pt.x >= 0 && Pt.x <= 8)

  0119c	8b 45 08	 mov	 eax, DWORD PTR _Pt$[ebp]
  0119f	83 38 00	 cmp	 DWORD PTR [eax], 0
  011a2	7c 3e		 jl	 SHORT $L198600
  011a4	8b 4d 08	 mov	 ecx, DWORD PTR _Pt$[ebp]
  011a7	83 39 08	 cmp	 DWORD PTR [ecx], 8
  011aa	7f 36		 jg	 SHORT $L198600

; 378  : 	{
; 379  : 		//
; 380  : 		HCURSOR  m_hCursor = ::LoadCursor(NULL, IDC_SIZEWE);

  011ac	68 84 7f 00 00	 push	 32644			; 00007f84H
  011b1	6a 00		 push	 0
  011b3	ff 15 00 00 00
	00		 call	 DWORD PTR __imp__LoadCursorA@8
  011b9	89 45 dc	 mov	 DWORD PTR _m_hCursor$198601[ebp], eax

; 381  : 		::SetCursor(m_hCursor);

  011bc	8b 55 dc	 mov	 edx, DWORD PTR _m_hCursor$198601[ebp]
  011bf	52		 push	 edx
  011c0	ff 15 00 00 00
	00		 call	 DWORD PTR __imp__SetCursor@4

; 382  : 		m_iDirection |= DIRECTION_LEFT;

  011c6	8b 45 cc	 mov	 eax, DWORD PTR _this$[ebp]
  011c9	8b 88 9c 00 00
	00		 mov	 ecx, DWORD PTR [eax+156]
  011cf	83 c9 01	 or	 ecx, 1
  011d2	8b 55 cc	 mov	 edx, DWORD PTR _this$[ebp]
  011d5	89 8a 9c 00 00
	00		 mov	 DWORD PTR [edx+156], ecx

; 383  : 
; 384  : 		return TRUE;

  011db	b0 01		 mov	 al, 1
  011dd	e9 ec 00 00 00	 jmp	 $L198577
$L198600:

; 385  : 	}
; 386  : 	else if(Pt.x >= fullRect.right - fullRect.left -8 && Pt.x <= fullRect.right - fullRect.left)

  011e2	8b 45 f8	 mov	 eax, DWORD PTR _fullRect$[ebp+8]
  011e5	2b 45 f0	 sub	 eax, DWORD PTR _fullRect$[ebp]
  011e8	83 e8 08	 sub	 eax, 8
  011eb	8b 4d 08	 mov	 ecx, DWORD PTR _Pt$[ebp]
  011ee	39 01		 cmp	 DWORD PTR [ecx], eax
  011f0	7c 43		 jl	 SHORT $L198605
  011f2	8b 55 f8	 mov	 edx, DWORD PTR _fullRect$[ebp+8]
  011f5	2b 55 f0	 sub	 edx, DWORD PTR _fullRect$[ebp]
  011f8	8b 45 08	 mov	 eax, DWORD PTR _Pt$[ebp]
  011fb	39 10		 cmp	 DWORD PTR [eax], edx
  011fd	7f 36		 jg	 SHORT $L198605

; 387  : 	{
; 388  : 		//
; 389  : 		HCURSOR  m_hCursor = ::LoadCursor(NULL, IDC_SIZEWE);

  011ff	68 84 7f 00 00	 push	 32644			; 00007f84H
  01204	6a 00		 push	 0
  01206	ff 15 00 00 00
	00		 call	 DWORD PTR __imp__LoadCursorA@8
  0120c	89 45 d8	 mov	 DWORD PTR _m_hCursor$198607[ebp], eax

; 390  : 		::SetCursor(m_hCursor);

  0120f	8b 4d d8	 mov	 ecx, DWORD PTR _m_hCursor$198607[ebp]
  01212	51		 push	 ecx
  01213	ff 15 00 00 00
	00		 call	 DWORD PTR __imp__SetCursor@4

; 391  : 		m_iDirection |= DIRECTION_RIGHT;		

  01219	8b 55 cc	 mov	 edx, DWORD PTR _this$[ebp]
  0121c	8b 82 9c 00 00
	00		 mov	 eax, DWORD PTR [edx+156]
  01222	83 c8 02	 or	 eax, 2
  01225	8b 4d cc	 mov	 ecx, DWORD PTR _this$[ebp]
  01228	89 81 9c 00 00
	00		 mov	 DWORD PTR [ecx+156], eax

; 392  : 		return TRUE;

  0122e	b0 01		 mov	 al, 1
  01230	e9 99 00 00 00	 jmp	 $L198577
$L198605:

; 393  : 	}
; 394  : 	//   3IDC_SIZEWE 
; 395  : 	if(Pt.y >= 0 && Pt.y <= 3)

  01235	8b 55 08	 mov	 edx, DWORD PTR _Pt$[ebp]
  01238	83 7a 04 00	 cmp	 DWORD PTR [edx+4], 0
  0123c	7c 3c		 jl	 SHORT $L198611
  0123e	8b 45 08	 mov	 eax, DWORD PTR _Pt$[ebp]
  01241	83 78 04 03	 cmp	 DWORD PTR [eax+4], 3
  01245	7f 33		 jg	 SHORT $L198611

; 396  : 	{	
; 397  : 		//
; 398  : 		HCURSOR  m_hCursor = ::LoadCursor(NULL, IDC_SIZENS);

  01247	68 85 7f 00 00	 push	 32645			; 00007f85H
  0124c	6a 00		 push	 0
  0124e	ff 15 00 00 00
	00		 call	 DWORD PTR __imp__LoadCursorA@8
  01254	89 45 d4	 mov	 DWORD PTR _m_hCursor$198612[ebp], eax

; 399  : 		::SetCursor(m_hCursor);

  01257	8b 4d d4	 mov	 ecx, DWORD PTR _m_hCursor$198612[ebp]
  0125a	51		 push	 ecx
  0125b	ff 15 00 00 00
	00		 call	 DWORD PTR __imp__SetCursor@4

; 400  : 		m_iDirection |= DIRECTION_TOP;

  01261	8b 55 cc	 mov	 edx, DWORD PTR _this$[ebp]
  01264	8b 82 9c 00 00
	00		 mov	 eax, DWORD PTR [edx+156]
  0126a	83 c8 04	 or	 eax, 4
  0126d	8b 4d cc	 mov	 ecx, DWORD PTR _this$[ebp]
  01270	89 81 9c 00 00
	00		 mov	 DWORD PTR [ecx+156], eax

; 401  : 
; 402  : 		return TRUE;

  01276	b0 01		 mov	 al, 1
  01278	eb 54		 jmp	 SHORT $L198577
$L198611:

; 403  : 	}
; 404  : 	else if(Pt.y >= fullRect.bottom - fullRect.top -8 && Pt.y <= fullRect.bottom - fullRect.top)

  0127a	8b 55 fc	 mov	 edx, DWORD PTR _fullRect$[ebp+12]
  0127d	2b 55 f4	 sub	 edx, DWORD PTR _fullRect$[ebp+4]
  01280	83 ea 08	 sub	 edx, 8
  01283	8b 45 08	 mov	 eax, DWORD PTR _Pt$[ebp]
  01286	39 50 04	 cmp	 DWORD PTR [eax+4], edx
  01289	7c 41		 jl	 SHORT $L198616
  0128b	8b 4d fc	 mov	 ecx, DWORD PTR _fullRect$[ebp+12]
  0128e	2b 4d f4	 sub	 ecx, DWORD PTR _fullRect$[ebp+4]
  01291	8b 55 08	 mov	 edx, DWORD PTR _Pt$[ebp]
  01294	39 4a 04	 cmp	 DWORD PTR [edx+4], ecx
  01297	7f 33		 jg	 SHORT $L198616

; 405  : 	{
; 406  : 		//
; 407  : 		HCURSOR  m_hCursor = ::LoadCursor(NULL, IDC_SIZENS);

  01299	68 85 7f 00 00	 push	 32645			; 00007f85H
  0129e	6a 00		 push	 0
  012a0	ff 15 00 00 00
	00		 call	 DWORD PTR __imp__LoadCursorA@8
  012a6	89 45 d0	 mov	 DWORD PTR _m_hCursor$198618[ebp], eax

; 408  : 		::SetCursor(m_hCursor);

  012a9	8b 45 d0	 mov	 eax, DWORD PTR _m_hCursor$198618[ebp]
  012ac	50		 push	 eax
  012ad	ff 15 00 00 00
	00		 call	 DWORD PTR __imp__SetCursor@4

; 409  : 		m_iDirection |= DIRECTION_BOTTOM;

  012b3	8b 4d cc	 mov	 ecx, DWORD PTR _this$[ebp]
  012b6	8b 91 9c 00 00
	00		 mov	 edx, DWORD PTR [ecx+156]
  012bc	83 ca 08	 or	 edx, 8
  012bf	8b 45 cc	 mov	 eax, DWORD PTR _this$[ebp]
  012c2	89 90 9c 00 00
	00		 mov	 DWORD PTR [eax+156], edx

; 410  : 		return TRUE;

  012c8	b0 01		 mov	 al, 1
  012ca	eb 02		 jmp	 SHORT $L198577
$L198616:

; 411  : 	}
; 412  : 
; 413  : 	return FALSE;

  012cc	32 c0		 xor	 al, al
$L198577:

; 414  : }

  012ce	8b e5		 mov	 esp, ebp
  012d0	5d		 pop	 ebp
  012d1	c2 04 00	 ret	 4
?_needChangeCursor@CHostWnd@@MAE_NABVCPoint@@@Z ENDP	; CHostWnd::_needChangeCursor
_TEXT	ENDS
PUBLIC	?PatBlt@CDC@@QAEHHHHHK@Z			; CDC::PatBlt
PUBLIC	??1CBrush@@UAE@XZ				; CBrush::~CBrush
PUBLIC	??0CBitmap@@QAE@XZ				; CBitmap::CBitmap
PUBLIC	?LoadBitmapA@CBitmap@@QAEHI@Z			; CBitmap::LoadBitmapA
PUBLIC	??1CBitmap@@UAE@XZ				; CBitmap::~CBitmap
EXTRN	?SelectObject@CDC@@QAEPAVCBrush@@PAV2@@Z:NEAR	; CDC::SelectObject
EXTRN	??0CBrush@@QAE@PAVCBitmap@@@Z:NEAR		; CBrush::CBrush
EXTRN	?FromHandle@CWnd@@SGPAV1@PAUHWND__@@@Z:NEAR	; CWnd::FromHandle
EXTRN	??0CWindowDC@@QAE@PAVCWnd@@@Z:NEAR		; CWindowDC::CWindowDC
EXTRN	??1CWindowDC@@UAE@XZ:NEAR			; CWindowDC::~CWindowDC
xdata$x	SEGMENT
$T199331 DD	0ffffffffH
	DD	FLAT:$L199325
	DD	00H
	DD	FLAT:$L199326
	DD	01H
	DD	FLAT:$L199327
$T199329 DD	019930520H
	DD	03H
	DD	FLAT:$T199331
	DD	2 DUP(00H)
	DD	2 DUP(00H)
; Function compile flags: /Odt
xdata$x	ENDS
_TEXT	SEGMENT
_this$ = -60						; size = 4
_pOldBrush$ = -56					; size = 4
_brush$ = -52						; size = 8
_bmp$ = -44						; size = 8
_pParentWnd$ = -36					; size = 4
_dc$ = -32						; size = 20
__$EHRec$ = -12						; size = 12
_rc$ = 8						; size = 16
?DrawMoveFrame@CHostWnd@@IAEXVCRect@@@Z PROC NEAR	; CHostWnd::DrawMoveFrame
; _this$ = ecx

; 417  : {

  012e0	55		 push	 ebp
  012e1	8b ec		 mov	 ebp, esp
  012e3	6a ff		 push	 -1
  012e5	68 00 00 00 00	 push	 __ehhandler$?DrawMoveFrame@CHostWnd@@IAEXVCRect@@@Z
  012ea	64 a1 00 00 00
	00		 mov	 eax, DWORD PTR fs:__except_list
  012f0	50		 push	 eax
  012f1	64 89 25 00 00
	00 00		 mov	 DWORD PTR fs:__except_list, esp
  012f8	83 ec 30	 sub	 esp, 48			; 00000030H
  012fb	89 4d c4	 mov	 DWORD PTR _this$[ebp], ecx

; 418  : 	CWnd* pParentWnd = CWnd::FromHandle(::GetDesktopWindow());//GetParent();

  012fe	ff 15 00 00 00
	00		 call	 DWORD PTR __imp__GetDesktopWindow@0
  01304	50		 push	 eax
  01305	e8 00 00 00 00	 call	 ?FromHandle@CWnd@@SGPAV1@PAUHWND__@@@Z ; CWnd::FromHandle
  0130a	89 45 dc	 mov	 DWORD PTR _pParentWnd$[ebp], eax

; 419  : 	CWindowDC dc(pParentWnd);

  0130d	8b 45 dc	 mov	 eax, DWORD PTR _pParentWnd$[ebp]
  01310	50		 push	 eax
  01311	8d 4d e0	 lea	 ecx, DWORD PTR _dc$[ebp]
  01314	e8 00 00 00 00	 call	 ??0CWindowDC@@QAE@PAVCWnd@@@Z ; CWindowDC::CWindowDC
  01319	c7 45 fc 00 00
	00 00		 mov	 DWORD PTR __$EHRec$[ebp+8], 0

; 420  : 
; 421  : 
; 422  : 	//CRect rc;
; 423  : 	//this->GetWindowRect(&rc);
; 424  : 	//rc -= rcWin.TopLeft();					 
; 425  : 
; 426  : 	CBitmap bmp;

  01320	8d 4d d4	 lea	 ecx, DWORD PTR _bmp$[ebp]
  01323	e8 00 00 00 00	 call	 ??0CBitmap@@QAE@XZ	; CBitmap::CBitmap
  01328	c6 45 fc 01	 mov	 BYTE PTR __$EHRec$[ebp+8], 1

; 427  : 
; 428  : 	bmp.LoadBitmap(IDB_FRAME_LINE);

  0132c	68 84 00 00 00	 push	 132			; 00000084H
  01331	8d 4d d4	 lea	 ecx, DWORD PTR _bmp$[ebp]
  01334	e8 00 00 00 00	 call	 ?LoadBitmapA@CBitmap@@QAEHI@Z ; CBitmap::LoadBitmapA

; 429  : 
; 430  : 	CBrush brush(&bmp);

  01339	8d 4d d4	 lea	 ecx, DWORD PTR _bmp$[ebp]
  0133c	51		 push	 ecx
  0133d	8d 4d cc	 lea	 ecx, DWORD PTR _brush$[ebp]
  01340	e8 00 00 00 00	 call	 ??0CBrush@@QAE@PAVCBitmap@@@Z ; CBrush::CBrush
  01345	c6 45 fc 02	 mov	 BYTE PTR __$EHRec$[ebp+8], 2

; 431  : 	CBrush* pOldBrush = dc.SelectObject(&brush);

  01349	8d 55 cc	 lea	 edx, DWORD PTR _brush$[ebp]
  0134c	52		 push	 edx
  0134d	8d 4d e0	 lea	 ecx, DWORD PTR _dc$[ebp]
  01350	e8 00 00 00 00	 call	 ?SelectObject@CDC@@QAEPAVCBrush@@PAV2@@Z ; CDC::SelectObject
  01355	89 45 c8	 mov	 DWORD PTR _pOldBrush$[ebp], eax

; 432  : 
; 433  : 	dc.PatBlt(
; 434  : 		rc.left, 
; 435  : 		rc.top, 
; 436  : 		4, 
; 437  : 		rc.Height(), 
; 438  : 		PATINVERT);

  01358	68 49 00 5a 00	 push	 5898313			; 005a0049H
  0135d	8d 4d 08	 lea	 ecx, DWORD PTR _rc$[ebp]
  01360	e8 00 00 00 00	 call	 ?Height@CRect@@QBEHXZ	; CRect::Height
  01365	50		 push	 eax
  01366	6a 04		 push	 4
  01368	8b 45 0c	 mov	 eax, DWORD PTR _rc$[ebp+4]
  0136b	50		 push	 eax
  0136c	8b 4d 08	 mov	 ecx, DWORD PTR _rc$[ebp]
  0136f	51		 push	 ecx
  01370	8d 4d e0	 lea	 ecx, DWORD PTR _dc$[ebp]
  01373	e8 00 00 00 00	 call	 ?PatBlt@CDC@@QAEHHHHHK@Z ; CDC::PatBlt

; 439  : 
; 440  : 	dc.PatBlt(
; 441  : 		rc.left, 
; 442  : 		rc.top, 
; 443  : 		rc.Width(), 
; 444  : 		4, 
; 445  : 		PATINVERT);

  01378	68 49 00 5a 00	 push	 5898313			; 005a0049H
  0137d	6a 04		 push	 4
  0137f	8d 4d 08	 lea	 ecx, DWORD PTR _rc$[ebp]
  01382	e8 00 00 00 00	 call	 ?Width@CRect@@QBEHXZ	; CRect::Width
  01387	50		 push	 eax
  01388	8b 55 0c	 mov	 edx, DWORD PTR _rc$[ebp+4]
  0138b	52		 push	 edx
  0138c	8b 45 08	 mov	 eax, DWORD PTR _rc$[ebp]
  0138f	50		 push	 eax
  01390	8d 4d e0	 lea	 ecx, DWORD PTR _dc$[ebp]
  01393	e8 00 00 00 00	 call	 ?PatBlt@CDC@@QAEHHHHHK@Z ; CDC::PatBlt

; 446  : 
; 447  : 	dc.PatBlt(
; 448  : 		rc.left, 
; 449  : 		rc.bottom - 4, 
; 450  : 		rc.Width(), 
; 451  : 		4, 
; 452  : 		PATINVERT);

  01398	68 49 00 5a 00	 push	 5898313			; 005a0049H
  0139d	6a 04		 push	 4
  0139f	8d 4d 08	 lea	 ecx, DWORD PTR _rc$[ebp]
  013a2	e8 00 00 00 00	 call	 ?Width@CRect@@QBEHXZ	; CRect::Width
  013a7	50		 push	 eax
  013a8	8b 4d 14	 mov	 ecx, DWORD PTR _rc$[ebp+12]
  013ab	83 e9 04	 sub	 ecx, 4
  013ae	51		 push	 ecx
  013af	8b 55 08	 mov	 edx, DWORD PTR _rc$[ebp]
  013b2	52		 push	 edx
  013b3	8d 4d e0	 lea	 ecx, DWORD PTR _dc$[ebp]
  013b6	e8 00 00 00 00	 call	 ?PatBlt@CDC@@QAEHHHHHK@Z ; CDC::PatBlt

; 453  : 
; 454  : 	dc.PatBlt(
; 455  : 		rc.right, 
; 456  : 		rc.top, 
; 457  : 		4, 
; 458  : 		rc.Height(), 
; 459  : 		PATINVERT);

  013bb	68 49 00 5a 00	 push	 5898313			; 005a0049H
  013c0	8d 4d 08	 lea	 ecx, DWORD PTR _rc$[ebp]
  013c3	e8 00 00 00 00	 call	 ?Height@CRect@@QBEHXZ	; CRect::Height
  013c8	50		 push	 eax
  013c9	6a 04		 push	 4
  013cb	8b 45 0c	 mov	 eax, DWORD PTR _rc$[ebp+4]
  013ce	50		 push	 eax
  013cf	8b 4d 10	 mov	 ecx, DWORD PTR _rc$[ebp+8]
  013d2	51		 push	 ecx
  013d3	8d 4d e0	 lea	 ecx, DWORD PTR _dc$[ebp]
  013d6	e8 00 00 00 00	 call	 ?PatBlt@CDC@@QAEHHHHHK@Z ; CDC::PatBlt

; 460  : 
; 461  : 	dc.SelectObject(pOldBrush);

  013db	8b 55 c8	 mov	 edx, DWORD PTR _pOldBrush$[ebp]
  013de	52		 push	 edx
  013df	8d 4d e0	 lea	 ecx, DWORD PTR _dc$[ebp]
  013e2	e8 00 00 00 00	 call	 ?SelectObject@CDC@@QAEPAVCBrush@@PAV2@@Z ; CDC::SelectObject

; 462  : }

  013e7	c6 45 fc 01	 mov	 BYTE PTR __$EHRec$[ebp+8], 1
  013eb	8d 4d cc	 lea	 ecx, DWORD PTR _brush$[ebp]
  013ee	e8 00 00 00 00	 call	 ??1CBrush@@UAE@XZ	; CBrush::~CBrush
  013f3	c6 45 fc 00	 mov	 BYTE PTR __$EHRec$[ebp+8], 0
  013f7	8d 4d d4	 lea	 ecx, DWORD PTR _bmp$[ebp]
  013fa	e8 00 00 00 00	 call	 ??1CBitmap@@UAE@XZ	; CBitmap::~CBitmap
  013ff	c7 45 fc ff ff
	ff ff		 mov	 DWORD PTR __$EHRec$[ebp+8], -1
  01406	8d 4d e0	 lea	 ecx, DWORD PTR _dc$[ebp]
  01409	e8 00 00 00 00	 call	 ??1CWindowDC@@UAE@XZ	; CWindowDC::~CWindowDC
  0140e	8b 4d f4	 mov	 ecx, DWORD PTR __$EHRec$[ebp]
  01411	64 89 0d 00 00
	00 00		 mov	 DWORD PTR fs:__except_list, ecx
  01418	8b e5		 mov	 esp, ebp
  0141a	5d		 pop	 ebp
  0141b	c2 10 00	 ret	 16			; 00000010H
_TEXT	ENDS
text$x	SEGMENT
$L199325:
  000e7	8d 4d e0	 lea	 ecx, DWORD PTR _dc$[ebp]
  000ea	e9 00 00 00 00	 jmp	 ??1CWindowDC@@UAE@XZ	; CWindowDC::~CWindowDC
$L199326:
  000ef	8d 4d d4	 lea	 ecx, DWORD PTR _bmp$[ebp]
  000f2	e9 00 00 00 00	 jmp	 ??1CBitmap@@UAE@XZ	; CBitmap::~CBitmap
$L199327:
  000f7	8d 4d cc	 lea	 ecx, DWORD PTR _brush$[ebp]
  000fa	e9 00 00 00 00	 jmp	 ??1CBrush@@UAE@XZ	; CBrush::~CBrush
__ehhandler$?DrawMoveFrame@CHostWnd@@IAEXVCRect@@@Z:
  000ff	b8 00 00 00 00	 mov	 eax, OFFSET FLAT:$T199329
  00104	e9 00 00 00 00	 jmp	 ___CxxFrameHandler
text$x	ENDS
?DrawMoveFrame@CHostWnd@@IAEXVCRect@@@Z ENDP		; CHostWnd::DrawMoveFrame
PUBLIC	?IsWindowVisible@CWnd@@QBEHXZ			; CWnd::IsWindowVisible
; Function compile flags: /Odt
_TEXT	SEGMENT
_this$ = -20						; size = 4
_rc$ = -16						; size = 16
?OnBnClickedClose@CHostWnd@@IAEXXZ PROC NEAR		; CHostWnd::OnBnClickedClose
; _this$ = ecx

; 465  : {

  01420	55		 push	 ebp
  01421	8b ec		 mov	 ebp, esp
  01423	83 ec 14	 sub	 esp, 20			; 00000014H
  01426	89 4d ec	 mov	 DWORD PTR _this$[ebp], ecx

; 466  : 	CRect rc;

  01429	8d 4d f0	 lea	 ecx, DWORD PTR _rc$[ebp]
  0142c	e8 00 00 00 00	 call	 ??0CRect@@QAE@XZ	; CRect::CRect

; 467  : 	m_btnClose.GetWindowRect(&rc);

  01431	8d 45 f0	 lea	 eax, DWORD PTR _rc$[ebp]
  01434	50		 push	 eax
  01435	8b 4d ec	 mov	 ecx, DWORD PTR _this$[ebp]
  01438	81 c1 10 01 00
	00		 add	 ecx, 272		; 00000110H
  0143e	e8 00 00 00 00	 call	 ?GetWindowRect@CWnd@@QBEXPAUtagRECT@@@Z ; CWnd::GetWindowRect

; 468  : 	if(m_btnClose.IsWindowVisible() && rc.Width() != 0 && rc.Height() != 0)

  01443	8b 4d ec	 mov	 ecx, DWORD PTR _this$[ebp]
  01446	81 c1 10 01 00
	00		 add	 ecx, 272		; 00000110H
  0144c	e8 00 00 00 00	 call	 ?IsWindowVisible@CWnd@@QBEHXZ ; CWnd::IsWindowVisible
  01451	85 c0		 test	 eax, eax
  01453	74 22		 je	 SHORT $L198637
  01455	8d 4d f0	 lea	 ecx, DWORD PTR _rc$[ebp]
  01458	e8 00 00 00 00	 call	 ?Width@CRect@@QBEHXZ	; CRect::Width
  0145d	85 c0		 test	 eax, eax
  0145f	74 16		 je	 SHORT $L198637
  01461	8d 4d f0	 lea	 ecx, DWORD PTR _rc$[ebp]
  01464	e8 00 00 00 00	 call	 ?Height@CRect@@QBEHXZ	; CRect::Height
  01469	85 c0		 test	 eax, eax
  0146b	74 0a		 je	 SHORT $L198637

; 469  : 		ShowWindow(SW_HIDE);

  0146d	6a 00		 push	 0
  0146f	8b 4d ec	 mov	 ecx, DWORD PTR _this$[ebp]
  01472	e8 00 00 00 00	 call	 ?ShowWindow@CWnd@@QAEHH@Z ; CWnd::ShowWindow
$L198637:

; 470  : }

  01477	8b e5		 mov	 esp, ebp
  01479	5d		 pop	 ebp
  0147a	c3		 ret	 0
?OnBnClickedClose@CHostWnd@@IAEXXZ ENDP			; CHostWnd::OnBnClickedClose
; Function compile flags: /Odt
_this$ = -4						; size = 4
?OnOK@CHostWnd@@MAEXXZ PROC NEAR			; CHostWnd::OnOK
; _this$ = ecx

; 472  : {

  01480	55		 push	 ebp
  01481	8b ec		 mov	 ebp, esp
  01483	51		 push	 ecx
  01484	89 4d fc	 mov	 DWORD PTR _this$[ebp], ecx

; 473  : }

  01487	8b e5		 mov	 esp, ebp
  01489	5d		 pop	 ebp
  0148a	c3		 ret	 0
?OnOK@CHostWnd@@MAEXXZ ENDP				; CHostWnd::OnOK
; Function compile flags: /Odt
_this$ = -4						; size = 4
?OnCancel@CHostWnd@@MAEXXZ PROC NEAR			; CHostWnd::OnCancel
; _this$ = ecx

; 476  : {

  01490	55		 push	 ebp
  01491	8b ec		 mov	 ebp, esp
  01493	51		 push	 ecx
  01494	89 4d fc	 mov	 DWORD PTR _this$[ebp], ecx

; 477  : }

  01497	8b e5		 mov	 esp, ebp
  01499	5d		 pop	 ebp
  0149a	c3		 ret	 0
?OnCancel@CHostWnd@@MAEXXZ ENDP				; CHostWnd::OnCancel
_TEXT	ENDS
EXTRN	?PreTranslateMessage@CDialog@@UAEHPAUtagMSG@@@Z:NEAR ; CDialog::PreTranslateMessage
; Function compile flags: /Odt
_TEXT	SEGMENT
_this$ = -4						; size = 4
_pMsg$ = 8						; size = 4
?PreTranslateMessage@CHostWnd@@UAEHPAUtagMSG@@@Z PROC NEAR ; CHostWnd::PreTranslateMessage
; _this$ = ecx

; 480  : {

  014a0	55		 push	 ebp
  014a1	8b ec		 mov	 ebp, esp
  014a3	51		 push	 ecx
  014a4	89 4d fc	 mov	 DWORD PTR _this$[ebp], ecx

; 481  : 	return CDialog::PreTranslateMessage(pMsg);

  014a7	8b 45 08	 mov	 eax, DWORD PTR _pMsg$[ebp]
  014aa	50		 push	 eax
  014ab	8b 4d fc	 mov	 ecx, DWORD PTR _this$[ebp]
  014ae	e8 00 00 00 00	 call	 ?PreTranslateMessage@CDialog@@UAEHPAUtagMSG@@@Z ; CDialog::PreTranslateMessage

; 482  : }

  014b3	8b e5		 mov	 esp, ebp
  014b5	5d		 pop	 ebp
  014b6	c2 04 00	 ret	 4
?PreTranslateMessage@CHostWnd@@UAEHPAUtagMSG@@@Z ENDP	; CHostWnd::PreTranslateMessage
_TEXT	ENDS
PUBLIC	?OnWindowPosChanged@CWnd@@IAEXPAUtagWINDOWPOS@@@Z ; CWnd::OnWindowPosChanged
EXTRN	?AfxGetMainWindow@@YAPAVCWnd@@XZ:NEAR		; AfxGetMainWindow
; Function compile flags: /Odt
_TEXT	SEGMENT
_this$ = -20						; size = 4
$T199337 = -16						; size = 16
_lpwndpos$ = 8						; size = 4
?OnWindowPosChanged@CHostWnd@@QAEXPAUtagWINDOWPOS@@@Z PROC NEAR ; CHostWnd::OnWindowPosChanged
; _this$ = ecx

; 485  : {

  014c0	55		 push	 ebp
  014c1	8b ec		 mov	 ebp, esp
  014c3	83 ec 14	 sub	 esp, 20			; 00000014H
  014c6	89 4d ec	 mov	 DWORD PTR _this$[ebp], ecx

; 486  : 	CDialog::OnWindowPosChanged(lpwndpos);

  014c9	8b 45 08	 mov	 eax, DWORD PTR _lpwndpos$[ebp]
  014cc	50		 push	 eax
  014cd	8b 4d ec	 mov	 ecx, DWORD PTR _this$[ebp]
  014d0	e8 00 00 00 00	 call	 ?OnWindowPosChanged@CWnd@@IAEXPAUtagWINDOWPOS@@@Z ; CWnd::OnWindowPosChanged

; 487  : 	AfxGetMainWindow()->MoveWindow(&CRect(lpwndpos->x, lpwndpos->y, 0,0));

  014d5	6a 01		 push	 1
  014d7	6a 00		 push	 0
  014d9	6a 00		 push	 0
  014db	8b 4d 08	 mov	 ecx, DWORD PTR _lpwndpos$[ebp]
  014de	8b 51 0c	 mov	 edx, DWORD PTR [ecx+12]
  014e1	52		 push	 edx
  014e2	8b 45 08	 mov	 eax, DWORD PTR _lpwndpos$[ebp]
  014e5	8b 48 08	 mov	 ecx, DWORD PTR [eax+8]
  014e8	51		 push	 ecx
  014e9	8d 4d f0	 lea	 ecx, DWORD PTR $T199337[ebp]
  014ec	e8 00 00 00 00	 call	 ??0CRect@@QAE@HHHH@Z	; CRect::CRect
  014f1	50		 push	 eax
  014f2	e8 00 00 00 00	 call	 ?AfxGetMainWindow@@YAPAVCWnd@@XZ ; AfxGetMainWindow
  014f7	8b c8		 mov	 ecx, eax
  014f9	e8 00 00 00 00	 call	 ?MoveWindow@CWnd@@QAEXPBUtagRECT@@H@Z ; CWnd::MoveWindow

; 488  : }

  014fe	8b e5		 mov	 esp, ebp
  01500	5d		 pop	 ebp
  01501	c2 04 00	 ret	 4
?OnWindowPosChanged@CHostWnd@@QAEXPAUtagWINDOWPOS@@@Z ENDP ; CHostWnd::OnWindowPosChanged
_TEXT	ENDS
EXTRN	__imp_?Compare@?$CStringT@DV?$StrTraitMFC_DLL@DV?$ChTraitsCRT@D@ATL@@@@@ATL@@QBEHPBD@Z:NEAR
; Function compile flags: /Odt
; File d:\program files (x86)\microsoft visual studio .net 2003\vc7\atlmfc\include\cstringt.h
;	COMDAT ??8ATL@@YA_NABV?$CStringT@DV?$StrTraitMFC_DLL@DV?$ChTraitsCRT@D@ATL@@@@@0@PBD@Z
_TEXT	SEGMENT
_str1$ = 8						; size = 4
_psz2$ = 12						; size = 4
??8ATL@@YA_NABV?$CStringT@DV?$StrTraitMFC_DLL@DV?$ChTraitsCRT@D@ATL@@@@@0@PBD@Z PROC NEAR ; ATL::operator==, COMDAT

; 2087 : 	{

  00000	55		 push	 ebp
  00001	8b ec		 mov	 ebp, esp

; 2088 : 		return( str1.Compare( psz2 ) == 0 );

  00003	8b 45 0c	 mov	 eax, DWORD PTR _psz2$[ebp]
  00006	50		 push	 eax
  00007	8b 4d 08	 mov	 ecx, DWORD PTR _str1$[ebp]
  0000a	ff 15 00 00 00
	00		 call	 DWORD PTR __imp_?Compare@?$CStringT@DV?$StrTraitMFC_DLL@DV?$ChTraitsCRT@D@ATL@@@@@ATL@@QBEHPBD@Z
  00010	f7 d8		 neg	 eax
  00012	1b c0		 sbb	 eax, eax
  00014	40		 inc	 eax

; 2089 : 	}

  00015	5d		 pop	 ebp
  00016	c3		 ret	 0
??8ATL@@YA_NABV?$CStringT@DV?$StrTraitMFC_DLL@DV?$ChTraitsCRT@D@ATL@@@@@0@PBD@Z ENDP ; ATL::operator==
; Function compile flags: /Odt
_TEXT	ENDS
;	COMDAT ??9ATL@@YA_NABV?$CStringT@DV?$StrTraitMFC_DLL@DV?$ChTraitsCRT@D@ATL@@@@@0@PBD@Z
_TEXT	SEGMENT
_str1$ = 8						; size = 4
_psz2$ = 12						; size = 4
??9ATL@@YA_NABV?$CStringT@DV?$StrTraitMFC_DLL@DV?$ChTraitsCRT@D@ATL@@@@@0@PBD@Z PROC NEAR ; ATL::operator!=, COMDAT

; 2121 : 	{

  00000	55		 push	 ebp
  00001	8b ec		 mov	 ebp, esp

; 2122 : 		return( str1.Compare( psz2 ) != 0 );

  00003	8b 45 0c	 mov	 eax, DWORD PTR _psz2$[ebp]
  00006	50		 push	 eax
  00007	8b 4d 08	 mov	 ecx, DWORD PTR _str1$[ebp]
  0000a	ff 15 00 00 00
	00		 call	 DWORD PTR __imp_?Compare@?$CStringT@DV?$StrTraitMFC_DLL@DV?$ChTraitsCRT@D@ATL@@@@@ATL@@QBEHPBD@Z
  00010	f7 d8		 neg	 eax
  00012	1b c0		 sbb	 eax, eax
  00014	f7 d8		 neg	 eax

; 2123 : 	}

  00016	5d		 pop	 ebp
  00017	c3		 ret	 0
??9ATL@@YA_NABV?$CStringT@DV?$StrTraitMFC_DLL@DV?$ChTraitsCRT@D@ATL@@@@@0@PBD@Z ENDP ; ATL::operator!=
; Function compile flags: /Odt
; File d:\program files (x86)\microsoft visual studio .net 2003\vc7\atlmfc\include\atltypes.inl
_TEXT	ENDS
;	COMDAT ??0CPoint@@QAE@XZ
_TEXT	SEGMENT
_this$ = -4						; size = 4
??0CPoint@@QAE@XZ PROC NEAR				; CPoint::CPoint, COMDAT
; _this$ = ecx

; 61   : 	{ /* random filled */ }

  00000	55		 push	 ebp
  00001	8b ec		 mov	 ebp, esp
  00003	51		 push	 ecx
  00004	89 4d fc	 mov	 DWORD PTR _this$[ebp], ecx
  00007	8b 45 fc	 mov	 eax, DWORD PTR _this$[ebp]
  0000a	8b e5		 mov	 esp, ebp
  0000c	5d		 pop	 ebp
  0000d	c3		 ret	 0
??0CPoint@@QAE@XZ ENDP					; CPoint::CPoint
; Function compile flags: /Odt
_TEXT	ENDS
;	COMDAT ??0CRect@@QAE@XZ
_TEXT	SEGMENT
_this$ = -4						; size = 4
??0CRect@@QAE@XZ PROC NEAR				; CRect::CRect, COMDAT
; _this$ = ecx

; 110  : 	{ /* random filled */ }

  00000	55		 push	 ebp
  00001	8b ec		 mov	 ebp, esp
  00003	51		 push	 ecx
  00004	89 4d fc	 mov	 DWORD PTR _this$[ebp], ecx
  00007	8b 45 fc	 mov	 eax, DWORD PTR _this$[ebp]
  0000a	8b e5		 mov	 esp, ebp
  0000c	5d		 pop	 ebp
  0000d	c3		 ret	 0
??0CRect@@QAE@XZ ENDP					; CRect::CRect
; Function compile flags: /Odt
_TEXT	ENDS
;	COMDAT ??0CRect@@QAE@HHHH@Z
_TEXT	SEGMENT
_this$ = -4						; size = 4
_l$ = 8							; size = 4
_t$ = 12						; size = 4
_r$ = 16						; size = 4
_b$ = 20						; size = 4
??0CRect@@QAE@HHHH@Z PROC NEAR				; CRect::CRect, COMDAT
; _this$ = ecx

; 112  : 	{ left = l; top = t; right = r; bottom = b; }

  00000	55		 push	 ebp
  00001	8b ec		 mov	 ebp, esp
  00003	51		 push	 ecx
  00004	89 4d fc	 mov	 DWORD PTR _this$[ebp], ecx
  00007	8b 45 fc	 mov	 eax, DWORD PTR _this$[ebp]
  0000a	8b 4d 08	 mov	 ecx, DWORD PTR _l$[ebp]
  0000d	89 08		 mov	 DWORD PTR [eax], ecx
  0000f	8b 55 fc	 mov	 edx, DWORD PTR _this$[ebp]
  00012	8b 45 0c	 mov	 eax, DWORD PTR _t$[ebp]
  00015	89 42 04	 mov	 DWORD PTR [edx+4], eax
  00018	8b 4d fc	 mov	 ecx, DWORD PTR _this$[ebp]
  0001b	8b 55 10	 mov	 edx, DWORD PTR _r$[ebp]
  0001e	89 51 08	 mov	 DWORD PTR [ecx+8], edx
  00021	8b 45 fc	 mov	 eax, DWORD PTR _this$[ebp]
  00024	8b 4d 14	 mov	 ecx, DWORD PTR _b$[ebp]
  00027	89 48 0c	 mov	 DWORD PTR [eax+12], ecx
  0002a	8b 45 fc	 mov	 eax, DWORD PTR _this$[ebp]
  0002d	8b e5		 mov	 esp, ebp
  0002f	5d		 pop	 ebp
  00030	c2 10 00	 ret	 16			; 00000010H
??0CRect@@QAE@HHHH@Z ENDP				; CRect::CRect
; Function compile flags: /Odt
_TEXT	ENDS
;	COMDAT ?Width@CRect@@QBEHXZ
_TEXT	SEGMENT
_this$ = -4						; size = 4
?Width@CRect@@QBEHXZ PROC NEAR				; CRect::Width, COMDAT
; _this$ = ecx

; 123  : 	{ return right - left; }

  00000	55		 push	 ebp
  00001	8b ec		 mov	 ebp, esp
  00003	51		 push	 ecx
  00004	89 4d fc	 mov	 DWORD PTR _this$[ebp], ecx
  00007	8b 45 fc	 mov	 eax, DWORD PTR _this$[ebp]
  0000a	8b 4d fc	 mov	 ecx, DWORD PTR _this$[ebp]
  0000d	8b 40 08	 mov	 eax, DWORD PTR [eax+8]
  00010	2b 01		 sub	 eax, DWORD PTR [ecx]
  00012	8b e5		 mov	 esp, ebp
  00014	5d		 pop	 ebp
  00015	c3		 ret	 0
?Width@CRect@@QBEHXZ ENDP				; CRect::Width
; Function compile flags: /Odt
_TEXT	ENDS
;	COMDAT ?Height@CRect@@QBEHXZ
_TEXT	SEGMENT
_this$ = -4						; size = 4
?Height@CRect@@QBEHXZ PROC NEAR				; CRect::Height, COMDAT
; _this$ = ecx

; 125  : 	{ return bottom - top; }

  00000	55		 push	 ebp
  00001	8b ec		 mov	 ebp, esp
  00003	51		 push	 ecx
  00004	89 4d fc	 mov	 DWORD PTR _this$[ebp], ecx
  00007	8b 45 fc	 mov	 eax, DWORD PTR _this$[ebp]
  0000a	8b 4d fc	 mov	 ecx, DWORD PTR _this$[ebp]
  0000d	8b 40 0c	 mov	 eax, DWORD PTR [eax+12]
  00010	2b 41 04	 sub	 eax, DWORD PTR [ecx+4]
  00013	8b e5		 mov	 esp, ebp
  00015	5d		 pop	 ebp
  00016	c3		 ret	 0
?Height@CRect@@QBEHXZ ENDP				; CRect::Height
; Function compile flags: /Odt
_TEXT	ENDS
;	COMDAT ??BCRect@@QAEPAUtagRECT@@XZ
_TEXT	SEGMENT
_this$ = -4						; size = 4
??BCRect@@QAEPAUtagRECT@@XZ PROC NEAR			; CRect::operator tagRECT *, COMDAT
; _this$ = ecx

; 143  : 	{ return this; }

  00000	55		 push	 ebp
  00001	8b ec		 mov	 ebp, esp
  00003	51		 push	 ecx
  00004	89 4d fc	 mov	 DWORD PTR _this$[ebp], ecx
  00007	8b 45 fc	 mov	 eax, DWORD PTR _this$[ebp]
  0000a	8b e5		 mov	 esp, ebp
  0000c	5d		 pop	 ebp
  0000d	c3		 ret	 0
??BCRect@@QAEPAUtagRECT@@XZ ENDP			; CRect::operator tagRECT *
; Function compile flags: /Odt
; File d:\program files (x86)\microsoft visual studio .net 2003\vc7\atlmfc\include\afx.inl
_TEXT	ENDS
;	COMDAT ?Serialize@CObject@@UAEXAAVCArchive@@@Z
_TEXT	SEGMENT
_this$ = -4						; size = 4
___formal$ = 8						; size = 4
?Serialize@CObject@@UAEXAAVCArchive@@@Z PROC NEAR	; CObject::Serialize, COMDAT
; _this$ = ecx

; 25   : 	{ /* CObject does not serialize anything by default */ }

  00000	55		 push	 ebp
  00001	8b ec		 mov	 ebp, esp
  00003	51		 push	 ecx
  00004	89 4d fc	 mov	 DWORD PTR _this$[ebp], ecx
  00007	8b e5		 mov	 esp, ebp
  00009	5d		 pop	 ebp
  0000a	c2 04 00	 ret	 4
?Serialize@CObject@@UAEXAAVCArchive@@@Z ENDP		; CObject::Serialize
_TEXT	ENDS
EXTRN	??3@YAXPAX@Z:NEAR				; operator delete
; Function compile flags: /Odt
;	COMDAT ??3CObject@@SGXPAX@Z
_TEXT	SEGMENT
_p$ = 8							; size = 4
??3CObject@@SGXPAX@Z PROC NEAR				; CObject::operator delete, COMDAT

; 31   : 	{ ::operator delete(p); }

  00000	55		 push	 ebp
  00001	8b ec		 mov	 ebp, esp
  00003	8b 45 08	 mov	 eax, DWORD PTR _p$[ebp]
  00006	50		 push	 eax
  00007	e8 00 00 00 00	 call	 ??3@YAXPAX@Z		; operator delete
  0000c	83 c4 04	 add	 esp, 4
  0000f	5d		 pop	 ebp
  00010	c2 04 00	 ret	 4
??3CObject@@SGXPAX@Z ENDP				; CObject::operator delete
; Function compile flags: /Odt
_TEXT	ENDS
;	COMDAT ?AssertValid@CObject@@UBEXXZ
_TEXT	SEGMENT
_this$ = -4						; size = 4
?AssertValid@CObject@@UBEXXZ PROC NEAR			; CObject::AssertValid, COMDAT
; _this$ = ecx

; 41   : 	{ /* no asserts in release builds */ }

  00000	55		 push	 ebp
  00001	8b ec		 mov	 ebp, esp
  00003	51		 push	 ecx
  00004	89 4d fc	 mov	 DWORD PTR _this$[ebp], ecx
  00007	8b e5		 mov	 esp, ebp
  00009	5d		 pop	 ebp
  0000a	c3		 ret	 0
?AssertValid@CObject@@UBEXXZ ENDP			; CObject::AssertValid
; Function compile flags: /Odt
_TEXT	ENDS
;	COMDAT ?Dump@CObject@@UBEXAAVCDumpContext@@@Z
_TEXT	SEGMENT
_this$ = -4						; size = 4
___formal$ = 8						; size = 4
?Dump@CObject@@UBEXAAVCDumpContext@@@Z PROC NEAR	; CObject::Dump, COMDAT
; _this$ = ecx

; 43   : 	{ /* no dumping in release builds */ }

  00000	55		 push	 ebp
  00001	8b ec		 mov	 ebp, esp
  00003	51		 push	 ecx
  00004	89 4d fc	 mov	 DWORD PTR _this$[ebp], ecx
  00007	8b e5		 mov	 esp, ebp
  00009	5d		 pop	 ebp
  0000a	c2 04 00	 ret	 4
?Dump@CObject@@UBEXAAVCDumpContext@@@Z ENDP		; CObject::Dump
_TEXT	ENDS
PUBLIC	??_R0?AVCGdiObject@@@8				; CGdiObject `RTTI Type Descriptor'
PUBLIC	??_R1A@?0A@A@CGdiObject@@8			; CGdiObject::`RTTI Base Class Descriptor at (0,-1,0,0)'
PUBLIC	??_R4CBrush@@6B@				; CBrush::`RTTI Complete Object Locator'
PUBLIC	??_R0?AVCBrush@@@8				; CBrush `RTTI Type Descriptor'
PUBLIC	??_R3CBrush@@8					; CBrush::`RTTI Class Hierarchy Descriptor'
PUBLIC	??_R2CBrush@@8					; CBrush::`RTTI Base Class Array'
PUBLIC	??_R1A@?0A@A@CBrush@@8				; CBrush::`RTTI Base Class Descriptor at (0,-1,0,0)'
PUBLIC	??1CGdiObject@@UAE@XZ				; CGdiObject::~CGdiObject
PUBLIC	??_7CBrush@@6B@					; CBrush::`vftable'
PUBLIC	??_GCBrush@@UAEPAXI@Z				; CBrush::`scalar deleting destructor'
EXTRN	?GetRuntimeClass@CBrush@@UBEPAUCRuntimeClass@@XZ:NEAR ; CBrush::GetRuntimeClass
EXTRN	??_ECBrush@@UAEPAXI@Z:NEAR			; CBrush::`vector deleting destructor'
;	COMDAT ??_7CBrush@@6B@
; File d:\program files (x86)\microsoft visual studio .net 2003\vc7\atlmfc\include\afxwin1.inl
CONST	SEGMENT
??_7CBrush@@6B@ DD FLAT:??_R4CBrush@@6B@		; CBrush::`vftable'
	DD	FLAT:?GetRuntimeClass@CBrush@@UBEPAUCRuntimeClass@@XZ
	DD	FLAT:??_ECBrush@@UAEPAXI@Z
	DD	FLAT:?Serialize@CObject@@UAEXAAVCArchive@@@Z
	DD	FLAT:?AssertValid@CObject@@UBEXXZ
	DD	FLAT:?Dump@CObject@@UBEXAAVCDumpContext@@@Z
CONST	ENDS
;	COMDAT ??_R4CBrush@@6B@
rdata$r	SEGMENT
??_R4CBrush@@6B@ DD 00H					; CBrush::`RTTI Complete Object Locator'
	DD	00H
	DD	00H
	DD	FLAT:??_R0?AVCBrush@@@8
	DD	FLAT:??_R3CBrush@@8
rdata$r	ENDS
;	COMDAT ??_R0?AVCBrush@@@8
_DATA	SEGMENT
??_R0?AVCBrush@@@8 DD FLAT:??_7type_info@@6B@		; CBrush `RTTI Type Descriptor'
	DD	00H
	DB	'.?AVCBrush@@', 00H
_DATA	ENDS
;	COMDAT ??_R3CBrush@@8
rdata$r	SEGMENT
??_R3CBrush@@8 DD 00H					; CBrush::`RTTI Class Hierarchy Descriptor'
	DD	00H
	DD	03H
	DD	FLAT:??_R2CBrush@@8
rdata$r	ENDS
;	COMDAT ??_R2CBrush@@8
rdata$r	SEGMENT
??_R2CBrush@@8 DD FLAT:??_R1A@?0A@A@CBrush@@8		; CBrush::`RTTI Base Class Array'
	DD	FLAT:??_R1A@?0A@A@CGdiObject@@8
	DD	FLAT:??_R1A@?0A@A@CObject@@8
rdata$r	ENDS
;	COMDAT ??_R1A@?0A@A@CBrush@@8
rdata$r	SEGMENT
??_R1A@?0A@A@CBrush@@8 DD FLAT:??_R0?AVCBrush@@@8	; CBrush::`RTTI Base Class Descriptor at (0,-1,0,0)'
	DD	02H
	DD	00H
	DD	0ffffffffH
	DD	00H
	DD	00H
rdata$r	ENDS
;	COMDAT ??_R1A@?0A@A@CGdiObject@@8
rdata$r	SEGMENT
??_R1A@?0A@A@CGdiObject@@8 DD FLAT:??_R0?AVCGdiObject@@@8 ; CGdiObject::`RTTI Base Class Descriptor at (0,-1,0,0)'
	DD	01H
	DD	00H
	DD	0ffffffffH
	DD	00H
	DD	00H
rdata$r	ENDS
;	COMDAT ??_R0?AVCGdiObject@@@8
_DATA	SEGMENT
??_R0?AVCGdiObject@@@8 DD FLAT:??_7type_info@@6B@	; CGdiObject `RTTI Type Descriptor'
	DD	00H
	DB	'.?AVCGdiObject@@', 00H
; Function compile flags: /Odt
_DATA	ENDS
;	COMDAT ??1CBrush@@UAE@XZ
_TEXT	SEGMENT
_this$ = -4						; size = 4
??1CBrush@@UAE@XZ PROC NEAR				; CBrush::~CBrush, COMDAT
; _this$ = ecx

; 130  : 	{ }

  00000	55		 push	 ebp
  00001	8b ec		 mov	 ebp, esp
  00003	51		 push	 ecx
  00004	89 4d fc	 mov	 DWORD PTR _this$[ebp], ecx
  00007	8b 45 fc	 mov	 eax, DWORD PTR _this$[ebp]
  0000a	c7 00 00 00 00
	00		 mov	 DWORD PTR [eax], OFFSET FLAT:??_7CBrush@@6B@
  00010	8b 4d fc	 mov	 ecx, DWORD PTR _this$[ebp]
  00013	e8 00 00 00 00	 call	 ??1CGdiObject@@UAE@XZ	; CGdiObject::~CGdiObject
  00018	8b e5		 mov	 esp, ebp
  0001a	5d		 pop	 ebp
  0001b	c3		 ret	 0
??1CBrush@@UAE@XZ ENDP					; CBrush::~CBrush
_TEXT	ENDS
PUBLIC	??_R4CGdiObject@@6B@				; CGdiObject::`RTTI Complete Object Locator'
PUBLIC	??_R3CGdiObject@@8				; CGdiObject::`RTTI Class Hierarchy Descriptor'
PUBLIC	??_R2CGdiObject@@8				; CGdiObject::`RTTI Base Class Array'
PUBLIC	??1CObject@@UAE@XZ				; CObject::~CObject
PUBLIC	??_7CGdiObject@@6B@				; CGdiObject::`vftable'
PUBLIC	??_GCGdiObject@@UAEPAXI@Z			; CGdiObject::`scalar deleting destructor'
EXTRN	?GetRuntimeClass@CGdiObject@@UBEPAUCRuntimeClass@@XZ:NEAR ; CGdiObject::GetRuntimeClass
EXTRN	?DeleteObject@CGdiObject@@QAEHXZ:NEAR		; CGdiObject::DeleteObject
EXTRN	??_ECGdiObject@@UAEPAXI@Z:NEAR			; CGdiObject::`vector deleting destructor'
;	COMDAT xdata$x
xdata$x	SEGMENT
$T199370 DD	0ffffffffH
	DD	FLAT:$L199366
$T199368 DD	019930520H
	DD	01H
	DD	FLAT:$T199370
	DD	2 DUP(00H)
	DD	2 DUP(00H)
xdata$x	ENDS
;	COMDAT ??_7CGdiObject@@6B@
CONST	SEGMENT
??_7CGdiObject@@6B@ DD FLAT:??_R4CGdiObject@@6B@	; CGdiObject::`vftable'
	DD	FLAT:?GetRuntimeClass@CGdiObject@@UBEPAUCRuntimeClass@@XZ
	DD	FLAT:??_ECGdiObject@@UAEPAXI@Z
	DD	FLAT:?Serialize@CObject@@UAEXAAVCArchive@@@Z
	DD	FLAT:?AssertValid@CObject@@UBEXXZ
	DD	FLAT:?Dump@CObject@@UBEXAAVCDumpContext@@@Z
CONST	ENDS
;	COMDAT ??_R4CGdiObject@@6B@
rdata$r	SEGMENT
??_R4CGdiObject@@6B@ DD 00H				; CGdiObject::`RTTI Complete Object Locator'
	DD	00H
	DD	00H
	DD	FLAT:??_R0?AVCGdiObject@@@8
	DD	FLAT:??_R3CGdiObject@@8
rdata$r	ENDS
;	COMDAT ??_R3CGdiObject@@8
rdata$r	SEGMENT
??_R3CGdiObject@@8 DD 00H				; CGdiObject::`RTTI Class Hierarchy Descriptor'
	DD	00H
	DD	02H
	DD	FLAT:??_R2CGdiObject@@8
rdata$r	ENDS
;	COMDAT ??_R2CGdiObject@@8
rdata$r	SEGMENT
??_R2CGdiObject@@8 DD FLAT:??_R1A@?0A@A@CGdiObject@@8	; CGdiObject::`RTTI Base Class Array'
	DD	FLAT:??_R1A@?0A@A@CObject@@8
; Function compile flags: /Odt
rdata$r	ENDS
;	COMDAT ??1CGdiObject@@UAE@XZ
_TEXT	SEGMENT
_this$ = -16						; size = 4
__$EHRec$ = -12						; size = 12
??1CGdiObject@@UAE@XZ PROC NEAR				; CGdiObject::~CGdiObject, COMDAT
; _this$ = ecx

; 84   : 	{ DeleteObject(); }

  00000	55		 push	 ebp
  00001	8b ec		 mov	 ebp, esp
  00003	6a ff		 push	 -1
  00005	68 00 00 00 00	 push	 __ehhandler$??1CGdiObject@@UAE@XZ
  0000a	64 a1 00 00 00
	00		 mov	 eax, DWORD PTR fs:__except_list
  00010	50		 push	 eax
  00011	64 89 25 00 00
	00 00		 mov	 DWORD PTR fs:__except_list, esp
  00018	51		 push	 ecx
  00019	89 4d f0	 mov	 DWORD PTR _this$[ebp], ecx
  0001c	8b 45 f0	 mov	 eax, DWORD PTR _this$[ebp]
  0001f	c7 00 00 00 00
	00		 mov	 DWORD PTR [eax], OFFSET FLAT:??_7CGdiObject@@6B@
  00025	c7 45 fc 00 00
	00 00		 mov	 DWORD PTR __$EHRec$[ebp+8], 0
  0002c	8b 4d f0	 mov	 ecx, DWORD PTR _this$[ebp]
  0002f	e8 00 00 00 00	 call	 ?DeleteObject@CGdiObject@@QAEHXZ ; CGdiObject::DeleteObject
  00034	c7 45 fc ff ff
	ff ff		 mov	 DWORD PTR __$EHRec$[ebp+8], -1
  0003b	8b 4d f0	 mov	 ecx, DWORD PTR _this$[ebp]
  0003e	e8 00 00 00 00	 call	 ??1CObject@@UAE@XZ	; CObject::~CObject
  00043	8b 4d f4	 mov	 ecx, DWORD PTR __$EHRec$[ebp]
  00046	64 89 0d 00 00
	00 00		 mov	 DWORD PTR fs:__except_list, ecx
  0004d	8b e5		 mov	 esp, ebp
  0004f	5d		 pop	 ebp
  00050	c3		 ret	 0
_TEXT	ENDS
;	COMDAT text$x
text$x	SEGMENT
$L199366:
  00000	8b 4d f0	 mov	 ecx, DWORD PTR _this$[ebp]
  00003	e9 00 00 00 00	 jmp	 ??1CObject@@UAE@XZ	; CObject::~CObject
__ehhandler$??1CGdiObject@@UAE@XZ:
  00008	b8 00 00 00 00	 mov	 eax, OFFSET FLAT:$T199368
  0000d	e9 00 00 00 00	 jmp	 ___CxxFrameHandler
text$x	ENDS
??1CGdiObject@@UAE@XZ ENDP				; CGdiObject::~CGdiObject
; Function compile flags: /Odt
; File d:\program files (x86)\microsoft visual studio .net 2003\vc7\atlmfc\include\afx.inl
;	COMDAT ??1CObject@@UAE@XZ
_TEXT	SEGMENT
_this$ = -4						; size = 4
??1CObject@@UAE@XZ PROC NEAR				; CObject::~CObject, COMDAT
; _this$ = ecx

; 23   : 	{ }

  00000	55		 push	 ebp
  00001	8b ec		 mov	 ebp, esp
  00003	51		 push	 ecx
  00004	89 4d fc	 mov	 DWORD PTR _this$[ebp], ecx
  00007	8b e5		 mov	 esp, ebp
  00009	5d		 pop	 ebp
  0000a	c3		 ret	 0
??1CObject@@UAE@XZ ENDP					; CObject::~CObject
; Function compile flags: /Odt
_TEXT	ENDS
;	COMDAT ??_GCGdiObject@@UAEPAXI@Z
_TEXT	SEGMENT
_this$ = -4						; size = 4
___flags$ = 8						; size = 4
??_GCGdiObject@@UAEPAXI@Z PROC NEAR			; CGdiObject::`scalar deleting destructor', COMDAT
; _this$ = ecx
  00000	55		 push	 ebp
  00001	8b ec		 mov	 ebp, esp
  00003	51		 push	 ecx
  00004	89 4d fc	 mov	 DWORD PTR _this$[ebp], ecx
  00007	8b 4d fc	 mov	 ecx, DWORD PTR _this$[ebp]
  0000a	e8 00 00 00 00	 call	 ??1CGdiObject@@UAE@XZ	; CGdiObject::~CGdiObject
  0000f	8b 45 08	 mov	 eax, DWORD PTR ___flags$[ebp]
  00012	83 e0 01	 and	 eax, 1
  00015	74 09		 je	 SHORT $L41495
  00017	8b 4d fc	 mov	 ecx, DWORD PTR _this$[ebp]
  0001a	51		 push	 ecx
  0001b	e8 00 00 00 00	 call	 ??3CObject@@SGXPAX@Z	; CObject::operator delete
$L41495:
  00020	8b 45 fc	 mov	 eax, DWORD PTR _this$[ebp]
  00023	8b e5		 mov	 esp, ebp
  00025	5d		 pop	 ebp
  00026	c2 04 00	 ret	 4
??_GCGdiObject@@UAEPAXI@Z ENDP				; CGdiObject::`scalar deleting destructor'
; Function compile flags: /Odt
_TEXT	ENDS
;	COMDAT ??_GCBrush@@UAEPAXI@Z
_TEXT	SEGMENT
_this$ = -4						; size = 4
___flags$ = 8						; size = 4
??_GCBrush@@UAEPAXI@Z PROC NEAR				; CBrush::`scalar deleting destructor', COMDAT
; _this$ = ecx
  00000	55		 push	 ebp
  00001	8b ec		 mov	 ebp, esp
  00003	51		 push	 ecx
  00004	89 4d fc	 mov	 DWORD PTR _this$[ebp], ecx
  00007	8b 4d fc	 mov	 ecx, DWORD PTR _this$[ebp]
  0000a	e8 00 00 00 00	 call	 ??1CBrush@@UAE@XZ	; CBrush::~CBrush
  0000f	8b 45 08	 mov	 eax, DWORD PTR ___flags$[ebp]
  00012	83 e0 01	 and	 eax, 1
  00015	74 09		 je	 SHORT $L41589
  00017	8b 4d fc	 mov	 ecx, DWORD PTR _this$[ebp]
  0001a	51		 push	 ecx
  0001b	e8 00 00 00 00	 call	 ??3CObject@@SGXPAX@Z	; CObject::operator delete
$L41589:
  00020	8b 45 fc	 mov	 eax, DWORD PTR _this$[ebp]
  00023	8b e5		 mov	 esp, ebp
  00025	5d		 pop	 ebp
  00026	c2 04 00	 ret	 4
??_GCBrush@@UAEPAXI@Z ENDP				; CBrush::`scalar deleting destructor'
_TEXT	ENDS
PUBLIC	??_R4CBitmap@@6B@				; CBitmap::`RTTI Complete Object Locator'
PUBLIC	??_R0?AVCBitmap@@@8				; CBitmap `RTTI Type Descriptor'
PUBLIC	??_R3CBitmap@@8					; CBitmap::`RTTI Class Hierarchy Descriptor'
PUBLIC	??_R2CBitmap@@8					; CBitmap::`RTTI Base Class Array'
PUBLIC	??_R1A@?0A@A@CBitmap@@8				; CBitmap::`RTTI Base Class Descriptor at (0,-1,0,0)'
PUBLIC	??0CGdiObject@@QAE@XZ				; CGdiObject::CGdiObject
PUBLIC	??_7CBitmap@@6B@				; CBitmap::`vftable'
PUBLIC	??_GCBitmap@@UAEPAXI@Z				; CBitmap::`scalar deleting destructor'
EXTRN	?GetRuntimeClass@CBitmap@@UBEPAUCRuntimeClass@@XZ:NEAR ; CBitmap::GetRuntimeClass
EXTRN	??_ECBitmap@@UAEPAXI@Z:NEAR			; CBitmap::`vector deleting destructor'
;	COMDAT ??_7CBitmap@@6B@
; File d:\program files (x86)\microsoft visual studio .net 2003\vc7\atlmfc\include\afxwin1.inl
CONST	SEGMENT
??_7CBitmap@@6B@ DD FLAT:??_R4CBitmap@@6B@		; CBitmap::`vftable'
	DD	FLAT:?GetRuntimeClass@CBitmap@@UBEPAUCRuntimeClass@@XZ
	DD	FLAT:??_ECBitmap@@UAEPAXI@Z
	DD	FLAT:?Serialize@CObject@@UAEXAAVCArchive@@@Z
	DD	FLAT:?AssertValid@CObject@@UBEXXZ
	DD	FLAT:?Dump@CObject@@UBEXAAVCDumpContext@@@Z
CONST	ENDS
;	COMDAT ??_R4CBitmap@@6B@
rdata$r	SEGMENT
??_R4CBitmap@@6B@ DD 00H				; CBitmap::`RTTI Complete Object Locator'
	DD	00H
	DD	00H
	DD	FLAT:??_R0?AVCBitmap@@@8
	DD	FLAT:??_R3CBitmap@@8
rdata$r	ENDS
;	COMDAT ??_R0?AVCBitmap@@@8
_DATA	SEGMENT
??_R0?AVCBitmap@@@8 DD FLAT:??_7type_info@@6B@		; CBitmap `RTTI Type Descriptor'
	DD	00H
	DB	'.?AVCBitmap@@', 00H
_DATA	ENDS
;	COMDAT ??_R3CBitmap@@8
rdata$r	SEGMENT
??_R3CBitmap@@8 DD 00H					; CBitmap::`RTTI Class Hierarchy Descriptor'
	DD	00H
	DD	03H
	DD	FLAT:??_R2CBitmap@@8
rdata$r	ENDS
;	COMDAT ??_R2CBitmap@@8
rdata$r	SEGMENT
??_R2CBitmap@@8 DD FLAT:??_R1A@?0A@A@CBitmap@@8		; CBitmap::`RTTI Base Class Array'
	DD	FLAT:??_R1A@?0A@A@CGdiObject@@8
	DD	FLAT:??_R1A@?0A@A@CObject@@8
rdata$r	ENDS
;	COMDAT ??_R1A@?0A@A@CBitmap@@8
rdata$r	SEGMENT
??_R1A@?0A@A@CBitmap@@8 DD FLAT:??_R0?AVCBitmap@@@8	; CBitmap::`RTTI Base Class Descriptor at (0,-1,0,0)'
	DD	02H
	DD	00H
	DD	0ffffffffH
	DD	00H
	DD	00H
; Function compile flags: /Odt
rdata$r	ENDS
;	COMDAT ??0CBitmap@@QAE@XZ
_TEXT	SEGMENT
_this$ = -4						; size = 4
??0CBitmap@@QAE@XZ PROC NEAR				; CBitmap::CBitmap, COMDAT
; _this$ = ecx

; 177  : 	{ }

  00000	55		 push	 ebp
  00001	8b ec		 mov	 ebp, esp
  00003	51		 push	 ecx
  00004	89 4d fc	 mov	 DWORD PTR _this$[ebp], ecx
  00007	8b 4d fc	 mov	 ecx, DWORD PTR _this$[ebp]
  0000a	e8 00 00 00 00	 call	 ??0CGdiObject@@QAE@XZ	; CGdiObject::CGdiObject
  0000f	8b 45 fc	 mov	 eax, DWORD PTR _this$[ebp]
  00012	c7 00 00 00 00
	00		 mov	 DWORD PTR [eax], OFFSET FLAT:??_7CBitmap@@6B@
  00018	8b 45 fc	 mov	 eax, DWORD PTR _this$[ebp]
  0001b	8b e5		 mov	 esp, ebp
  0001d	5d		 pop	 ebp
  0001e	c3		 ret	 0
??0CBitmap@@QAE@XZ ENDP					; CBitmap::CBitmap
_TEXT	ENDS
PUBLIC	??0CObject@@IAE@XZ				; CObject::CObject
; Function compile flags: /Odt
;	COMDAT ??0CGdiObject@@QAE@XZ
_TEXT	SEGMENT
_this$ = -4						; size = 4
??0CGdiObject@@QAE@XZ PROC NEAR				; CGdiObject::CGdiObject, COMDAT
; _this$ = ecx

; 82   : 	{ m_hObject = NULL; }

  00000	55		 push	 ebp
  00001	8b ec		 mov	 ebp, esp
  00003	51		 push	 ecx
  00004	89 4d fc	 mov	 DWORD PTR _this$[ebp], ecx
  00007	8b 4d fc	 mov	 ecx, DWORD PTR _this$[ebp]
  0000a	e8 00 00 00 00	 call	 ??0CObject@@IAE@XZ	; CObject::CObject
  0000f	8b 45 fc	 mov	 eax, DWORD PTR _this$[ebp]
  00012	c7 00 00 00 00
	00		 mov	 DWORD PTR [eax], OFFSET FLAT:??_7CGdiObject@@6B@
  00018	8b 4d fc	 mov	 ecx, DWORD PTR _this$[ebp]
  0001b	c7 41 04 00 00
	00 00		 mov	 DWORD PTR [ecx+4], 0
  00022	8b 45 fc	 mov	 eax, DWORD PTR _this$[ebp]
  00025	8b e5		 mov	 esp, ebp
  00027	5d		 pop	 ebp
  00028	c3		 ret	 0
??0CGdiObject@@QAE@XZ ENDP				; CGdiObject::CGdiObject
; Function compile flags: /Odt
; File d:\program files (x86)\microsoft visual studio .net 2003\vc7\atlmfc\include\afx.inl
_TEXT	ENDS
;	COMDAT ??0CObject@@IAE@XZ
_TEXT	SEGMENT
_this$ = -4						; size = 4
??0CObject@@IAE@XZ PROC NEAR				; CObject::CObject, COMDAT
; _this$ = ecx

; 21   : 	{ }

  00000	55		 push	 ebp
  00001	8b ec		 mov	 ebp, esp
  00003	51		 push	 ecx
  00004	89 4d fc	 mov	 DWORD PTR _this$[ebp], ecx
  00007	8b 45 fc	 mov	 eax, DWORD PTR _this$[ebp]
  0000a	8b e5		 mov	 esp, ebp
  0000c	5d		 pop	 ebp
  0000d	c3		 ret	 0
??0CObject@@IAE@XZ ENDP					; CObject::CObject
; Function compile flags: /Odt
_TEXT	ENDS
;	COMDAT ??_GCBitmap@@UAEPAXI@Z
_TEXT	SEGMENT
_this$ = -4						; size = 4
___flags$ = 8						; size = 4
??_GCBitmap@@UAEPAXI@Z PROC NEAR			; CBitmap::`scalar deleting destructor', COMDAT
; _this$ = ecx
  00000	55		 push	 ebp
  00001	8b ec		 mov	 ebp, esp
  00003	51		 push	 ecx
  00004	89 4d fc	 mov	 DWORD PTR _this$[ebp], ecx
  00007	8b 4d fc	 mov	 ecx, DWORD PTR _this$[ebp]
  0000a	e8 00 00 00 00	 call	 ??1CBitmap@@UAE@XZ	; CBitmap::~CBitmap
  0000f	8b 45 08	 mov	 eax, DWORD PTR ___flags$[ebp]
  00012	83 e0 01	 and	 eax, 1
  00015	74 09		 je	 SHORT $L41685
  00017	8b 4d fc	 mov	 ecx, DWORD PTR _this$[ebp]
  0001a	51		 push	 ecx
  0001b	e8 00 00 00 00	 call	 ??3CObject@@SGXPAX@Z	; CObject::operator delete
$L41685:
  00020	8b 45 fc	 mov	 eax, DWORD PTR _this$[ebp]
  00023	8b e5		 mov	 esp, ebp
  00025	5d		 pop	 ebp
  00026	c2 04 00	 ret	 4
??_GCBitmap@@UAEPAXI@Z ENDP				; CBitmap::`scalar deleting destructor'
; Function compile flags: /Odt
; File d:\program files (x86)\microsoft visual studio .net 2003\vc7\atlmfc\include\afxwin1.inl
_TEXT	ENDS
;	COMDAT ??1CBitmap@@UAE@XZ
_TEXT	SEGMENT
_this$ = -4						; size = 4
??1CBitmap@@UAE@XZ PROC NEAR				; CBitmap::~CBitmap, COMDAT
; _this$ = ecx

; 179  : 	{ }

  00000	55		 push	 ebp
  00001	8b ec		 mov	 ebp, esp
  00003	51		 push	 ecx
  00004	89 4d fc	 mov	 DWORD PTR _this$[ebp], ecx
  00007	8b 45 fc	 mov	 eax, DWORD PTR _this$[ebp]
  0000a	c7 00 00 00 00
	00		 mov	 DWORD PTR [eax], OFFSET FLAT:??_7CBitmap@@6B@
  00010	8b 4d fc	 mov	 ecx, DWORD PTR _this$[ebp]
  00013	e8 00 00 00 00	 call	 ??1CGdiObject@@UAE@XZ	; CGdiObject::~CGdiObject
  00018	8b e5		 mov	 esp, ebp
  0001a	5d		 pop	 ebp
  0001b	c3		 ret	 0
??1CBitmap@@UAE@XZ ENDP					; CBitmap::~CBitmap
_TEXT	ENDS
EXTRN	?Attach@CGdiObject@@QAEHPAX@Z:NEAR		; CGdiObject::Attach
EXTRN	?AfxFindResourceHandle@@YGPAUHINSTANCE__@@PBD0@Z:NEAR ; AfxFindResourceHandle
EXTRN	__imp__LoadBitmapA@8:NEAR
; Function compile flags: /Odt
;	COMDAT ?LoadBitmapA@CBitmap@@QAEHI@Z
_TEXT	SEGMENT
_this$ = -4						; size = 4
_nIDResource$ = 8					; size = 4
?LoadBitmapA@CBitmap@@QAEHI@Z PROC NEAR			; CBitmap::LoadBitmapA, COMDAT
; _this$ = ecx

; 212  : 	{ return Attach(::LoadBitmap(AfxFindResourceHandle(

  00000	55		 push	 ebp
  00001	8b ec		 mov	 ebp, esp
  00003	51		 push	 ecx
  00004	89 4d fc	 mov	 DWORD PTR _this$[ebp], ecx

; 213  : 		MAKEINTRESOURCE(nIDResource), RT_BITMAP), MAKEINTRESOURCE(nIDResource))); }

  00007	0f b7 45 08	 movzx	 eax, WORD PTR _nIDResource$[ebp]
  0000b	50		 push	 eax
  0000c	6a 02		 push	 2
  0000e	0f b7 4d 08	 movzx	 ecx, WORD PTR _nIDResource$[ebp]
  00012	51		 push	 ecx
  00013	e8 00 00 00 00	 call	 ?AfxFindResourceHandle@@YGPAUHINSTANCE__@@PBD0@Z ; AfxFindResourceHandle
  00018	50		 push	 eax
  00019	ff 15 00 00 00
	00		 call	 DWORD PTR __imp__LoadBitmapA@8
  0001f	50		 push	 eax
  00020	8b 4d fc	 mov	 ecx, DWORD PTR _this$[ebp]
  00023	e8 00 00 00 00	 call	 ?Attach@CGdiObject@@QAEHPAX@Z ; CGdiObject::Attach
  00028	8b e5		 mov	 esp, ebp
  0002a	5d		 pop	 ebp
  0002b	c2 04 00	 ret	 4
?LoadBitmapA@CBitmap@@QAEHI@Z ENDP			; CBitmap::LoadBitmapA
_TEXT	ENDS
EXTRN	__imp__PatBlt@24:NEAR
; Function compile flags: /Odt
;	COMDAT ?PatBlt@CDC@@QAEHHHHHK@Z
_TEXT	SEGMENT
_this$ = -4						; size = 4
_x$ = 8							; size = 4
_y$ = 12						; size = 4
_nWidth$ = 16						; size = 4
_nHeight$ = 20						; size = 4
_dwRop$ = 24						; size = 4
?PatBlt@CDC@@QAEHHHHHK@Z PROC NEAR			; CDC::PatBlt, COMDAT
; _this$ = ecx

; 545  : 	{ ASSERT(m_hDC != NULL); return ::PatBlt(m_hDC, x, y, nWidth, nHeight, dwRop); }

  00000	55		 push	 ebp
  00001	8b ec		 mov	 ebp, esp
  00003	51		 push	 ecx
  00004	89 4d fc	 mov	 DWORD PTR _this$[ebp], ecx
  00007	8b 45 18	 mov	 eax, DWORD PTR _dwRop$[ebp]
  0000a	50		 push	 eax
  0000b	8b 4d 14	 mov	 ecx, DWORD PTR _nHeight$[ebp]
  0000e	51		 push	 ecx
  0000f	8b 55 10	 mov	 edx, DWORD PTR _nWidth$[ebp]
  00012	52		 push	 edx
  00013	8b 45 0c	 mov	 eax, DWORD PTR _y$[ebp]
  00016	50		 push	 eax
  00017	8b 4d 08	 mov	 ecx, DWORD PTR _x$[ebp]
  0001a	51		 push	 ecx
  0001b	8b 55 fc	 mov	 edx, DWORD PTR _this$[ebp]
  0001e	8b 42 04	 mov	 eax, DWORD PTR [edx+4]
  00021	50		 push	 eax
  00022	ff 15 00 00 00
	00		 call	 DWORD PTR __imp__PatBlt@24
  00028	8b e5		 mov	 esp, ebp
  0002a	5d		 pop	 ebp
  0002b	c2 14 00	 ret	 20			; 00000014H
?PatBlt@CDC@@QAEHHHHHK@Z ENDP				; CDC::PatBlt
_TEXT	ENDS
EXTRN	?MoveWindow@CWnd@@QAEXHHHHH@Z:NEAR		; CWnd::MoveWindow
; Function compile flags: /Odt
; File d:\program files (x86)\microsoft visual studio .net 2003\vc7\atlmfc\include\afxwin2.inl
;	COMDAT ?MoveWindow@CWnd@@QAEXPBUtagRECT@@H@Z
_TEXT	SEGMENT
_this$ = -4						; size = 4
_lpRect$ = 8						; size = 4
_bRepaint$ = 12						; size = 4
?MoveWindow@CWnd@@QAEXPBUtagRECT@@H@Z PROC NEAR		; CWnd::MoveWindow, COMDAT
; _this$ = ecx

; 89   : 	{ MoveWindow(lpRect->left, lpRect->top, lpRect->right - lpRect->left,

  00000	55		 push	 ebp
  00001	8b ec		 mov	 ebp, esp
  00003	51		 push	 ecx
  00004	89 4d fc	 mov	 DWORD PTR _this$[ebp], ecx

; 90   : 		lpRect->bottom - lpRect->top, bRepaint); }

  00007	8b 45 0c	 mov	 eax, DWORD PTR _bRepaint$[ebp]
  0000a	50		 push	 eax
  0000b	8b 4d 08	 mov	 ecx, DWORD PTR _lpRect$[ebp]
  0000e	8b 55 08	 mov	 edx, DWORD PTR _lpRect$[ebp]
  00011	8b 41 0c	 mov	 eax, DWORD PTR [ecx+12]
  00014	2b 42 04	 sub	 eax, DWORD PTR [edx+4]
  00017	50		 push	 eax
  00018	8b 4d 08	 mov	 ecx, DWORD PTR _lpRect$[ebp]
  0001b	8b 55 08	 mov	 edx, DWORD PTR _lpRect$[ebp]
  0001e	8b 41 08	 mov	 eax, DWORD PTR [ecx+8]
  00021	2b 02		 sub	 eax, DWORD PTR [edx]
  00023	50		 push	 eax
  00024	8b 4d 08	 mov	 ecx, DWORD PTR _lpRect$[ebp]
  00027	8b 51 04	 mov	 edx, DWORD PTR [ecx+4]
  0002a	52		 push	 edx
  0002b	8b 45 08	 mov	 eax, DWORD PTR _lpRect$[ebp]
  0002e	8b 08		 mov	 ecx, DWORD PTR [eax]
  00030	51		 push	 ecx
  00031	8b 4d fc	 mov	 ecx, DWORD PTR _this$[ebp]
  00034	e8 00 00 00 00	 call	 ?MoveWindow@CWnd@@QAEXHHHHH@Z ; CWnd::MoveWindow
  00039	8b e5		 mov	 esp, ebp
  0003b	5d		 pop	 ebp
  0003c	c2 08 00	 ret	 8
?MoveWindow@CWnd@@QAEXPBUtagRECT@@H@Z ENDP		; CWnd::MoveWindow
; Function compile flags: /Odt
_TEXT	ENDS
;	COMDAT ?GetWindowRect@CWnd@@QBEXPAUtagRECT@@@Z
_TEXT	SEGMENT
_this$ = -4						; size = 4
_lpRect$ = 8						; size = 4
?GetWindowRect@CWnd@@QBEXPAUtagRECT@@@Z PROC NEAR	; CWnd::GetWindowRect, COMDAT
; _this$ = ecx

; 105  : 	{ ASSERT(::IsWindow(m_hWnd)); ::GetWindowRect(m_hWnd, lpRect); }

  00000	55		 push	 ebp
  00001	8b ec		 mov	 ebp, esp
  00003	51		 push	 ecx
  00004	89 4d fc	 mov	 DWORD PTR _this$[ebp], ecx
  00007	8b 45 08	 mov	 eax, DWORD PTR _lpRect$[ebp]
  0000a	50		 push	 eax
  0000b	8b 4d fc	 mov	 ecx, DWORD PTR _this$[ebp]
  0000e	8b 51 20	 mov	 edx, DWORD PTR [ecx+32]
  00011	52		 push	 edx
  00012	ff 15 00 00 00
	00		 call	 DWORD PTR __imp__GetWindowRect@8
  00018	8b e5		 mov	 esp, ebp
  0001a	5d		 pop	 ebp
  0001b	c2 04 00	 ret	 4
?GetWindowRect@CWnd@@QBEXPAUtagRECT@@@Z ENDP		; CWnd::GetWindowRect
_TEXT	ENDS
EXTRN	__imp__ClientToScreen@8:NEAR
; Function compile flags: /Odt
;	COMDAT ?ClientToScreen@CWnd@@QBEXPAUtagPOINT@@@Z
_TEXT	SEGMENT
_this$ = -4						; size = 4
_lpPoint$ = 8						; size = 4
?ClientToScreen@CWnd@@QBEXPAUtagPOINT@@@Z PROC NEAR	; CWnd::ClientToScreen, COMDAT
; _this$ = ecx

; 113  : 	{ ASSERT(::IsWindow(m_hWnd)); ::ClientToScreen(m_hWnd, lpPoint); }

  00000	55		 push	 ebp
  00001	8b ec		 mov	 ebp, esp
  00003	51		 push	 ecx
  00004	89 4d fc	 mov	 DWORD PTR _this$[ebp], ecx
  00007	8b 45 08	 mov	 eax, DWORD PTR _lpPoint$[ebp]
  0000a	50		 push	 eax
  0000b	8b 4d fc	 mov	 ecx, DWORD PTR _this$[ebp]
  0000e	8b 51 20	 mov	 edx, DWORD PTR [ecx+32]
  00011	52		 push	 edx
  00012	ff 15 00 00 00
	00		 call	 DWORD PTR __imp__ClientToScreen@8
  00018	8b e5		 mov	 esp, ebp
  0001a	5d		 pop	 ebp
  0001b	c2 04 00	 ret	 4
?ClientToScreen@CWnd@@QBEXPAUtagPOINT@@@Z ENDP		; CWnd::ClientToScreen
_TEXT	ENDS
EXTRN	?FromHandle@CDC@@SGPAV1@PAUHDC__@@@Z:NEAR	; CDC::FromHandle
EXTRN	__imp__GetDC@4:NEAR
; Function compile flags: /Odt
;	COMDAT ?GetDC@CWnd@@QAEPAVCDC@@XZ
_TEXT	SEGMENT
_this$ = -4						; size = 4
?GetDC@CWnd@@QAEPAVCDC@@XZ PROC NEAR			; CWnd::GetDC, COMDAT
; _this$ = ecx

; 121  : 	{ ASSERT(::IsWindow(m_hWnd)); return CDC::FromHandle(::GetDC(m_hWnd)); }

  00000	55		 push	 ebp
  00001	8b ec		 mov	 ebp, esp
  00003	51		 push	 ecx
  00004	89 4d fc	 mov	 DWORD PTR _this$[ebp], ecx
  00007	8b 45 fc	 mov	 eax, DWORD PTR _this$[ebp]
  0000a	8b 48 20	 mov	 ecx, DWORD PTR [eax+32]
  0000d	51		 push	 ecx
  0000e	ff 15 00 00 00
	00		 call	 DWORD PTR __imp__GetDC@4
  00014	50		 push	 eax
  00015	e8 00 00 00 00	 call	 ?FromHandle@CDC@@SGPAV1@PAUHDC__@@@Z ; CDC::FromHandle
  0001a	8b e5		 mov	 esp, ebp
  0001c	5d		 pop	 ebp
  0001d	c3		 ret	 0
?GetDC@CWnd@@QAEPAVCDC@@XZ ENDP				; CWnd::GetDC
_TEXT	ENDS
EXTRN	__imp__ReleaseDC@8:NEAR
; Function compile flags: /Odt
;	COMDAT ?ReleaseDC@CWnd@@QAEHPAVCDC@@@Z
_TEXT	SEGMENT
_this$ = -4						; size = 4
_pDC$ = 8						; size = 4
?ReleaseDC@CWnd@@QAEHPAVCDC@@@Z PROC NEAR		; CWnd::ReleaseDC, COMDAT
; _this$ = ecx

; 125  : 	{ ASSERT(::IsWindow(m_hWnd)); return ::ReleaseDC(m_hWnd, pDC->m_hDC); }

  00000	55		 push	 ebp
  00001	8b ec		 mov	 ebp, esp
  00003	51		 push	 ecx
  00004	89 4d fc	 mov	 DWORD PTR _this$[ebp], ecx
  00007	8b 45 08	 mov	 eax, DWORD PTR _pDC$[ebp]
  0000a	8b 48 04	 mov	 ecx, DWORD PTR [eax+4]
  0000d	51		 push	 ecx
  0000e	8b 55 fc	 mov	 edx, DWORD PTR _this$[ebp]
  00011	8b 42 20	 mov	 eax, DWORD PTR [edx+32]
  00014	50		 push	 eax
  00015	ff 15 00 00 00
	00		 call	 DWORD PTR __imp__ReleaseDC@8
  0001b	8b e5		 mov	 esp, ebp
  0001d	5d		 pop	 ebp
  0001e	c2 04 00	 ret	 4
?ReleaseDC@CWnd@@QAEHPAVCDC@@@Z ENDP			; CWnd::ReleaseDC
_TEXT	ENDS
EXTRN	__imp__IsWindowVisible@4:NEAR
; Function compile flags: /Odt
;	COMDAT ?IsWindowVisible@CWnd@@QBEHXZ
_TEXT	SEGMENT
_this$ = -4						; size = 4
?IsWindowVisible@CWnd@@QBEHXZ PROC NEAR			; CWnd::IsWindowVisible, COMDAT
; _this$ = ecx

; 149  : 	{ ASSERT(::IsWindow(m_hWnd)); return ::IsWindowVisible(m_hWnd); }

  00000	55		 push	 ebp
  00001	8b ec		 mov	 ebp, esp
  00003	51		 push	 ecx
  00004	89 4d fc	 mov	 DWORD PTR _this$[ebp], ecx
  00007	8b 45 fc	 mov	 eax, DWORD PTR _this$[ebp]
  0000a	8b 48 20	 mov	 ecx, DWORD PTR [eax+32]
  0000d	51		 push	 ecx
  0000e	ff 15 00 00 00
	00		 call	 DWORD PTR __imp__IsWindowVisible@4
  00014	8b e5		 mov	 esp, ebp
  00016	5d		 pop	 ebp
  00017	c3		 ret	 0
?IsWindowVisible@CWnd@@QBEHXZ ENDP			; CWnd::IsWindowVisible
_TEXT	ENDS
PUBLIC	?GetSafeHandle@CGdiObject@@QBEPAXXZ		; CGdiObject::GetSafeHandle
EXTRN	__imp__RedrawWindow@16:NEAR
; Function compile flags: /Odt
;	COMDAT ?RedrawWindow@CWnd@@QAEHPBUtagRECT@@PAVCRgn@@I@Z
_TEXT	SEGMENT
_this$ = -4						; size = 4
_lpRectUpdate$ = 8					; size = 4
_prgnUpdate$ = 12					; size = 4
_flags$ = 16						; size = 4
?RedrawWindow@CWnd@@QAEHPBUtagRECT@@PAVCRgn@@I@Z PROC NEAR ; CWnd::RedrawWindow, COMDAT
; _this$ = ecx

; 172  : 	{ ASSERT(::IsWindow(m_hWnd)); return ::RedrawWindow(m_hWnd, lpRectUpdate, (HRGN)prgnUpdate->GetSafeHandle(), flags); }

  00000	55		 push	 ebp
  00001	8b ec		 mov	 ebp, esp
  00003	51		 push	 ecx
  00004	89 4d fc	 mov	 DWORD PTR _this$[ebp], ecx
  00007	8b 45 10	 mov	 eax, DWORD PTR _flags$[ebp]
  0000a	50		 push	 eax
  0000b	8b 4d 0c	 mov	 ecx, DWORD PTR _prgnUpdate$[ebp]
  0000e	e8 00 00 00 00	 call	 ?GetSafeHandle@CGdiObject@@QBEPAXXZ ; CGdiObject::GetSafeHandle
  00013	50		 push	 eax
  00014	8b 4d 08	 mov	 ecx, DWORD PTR _lpRectUpdate$[ebp]
  00017	51		 push	 ecx
  00018	8b 55 fc	 mov	 edx, DWORD PTR _this$[ebp]
  0001b	8b 42 20	 mov	 eax, DWORD PTR [edx+32]
  0001e	50		 push	 eax
  0001f	ff 15 00 00 00
	00		 call	 DWORD PTR __imp__RedrawWindow@16
  00025	8b e5		 mov	 esp, ebp
  00027	5d		 pop	 ebp
  00028	c2 0c 00	 ret	 12			; 0000000cH
?RedrawWindow@CWnd@@QAEHPBUtagRECT@@PAVCRgn@@I@Z ENDP	; CWnd::RedrawWindow
; Function compile flags: /Odt
; File d:\program files (x86)\microsoft visual studio .net 2003\vc7\atlmfc\include\afxwin1.inl
_TEXT	ENDS
;	COMDAT ?GetSafeHandle@CGdiObject@@QBEPAXXZ
_TEXT	SEGMENT
tv66 = -8						; size = 4
_this$ = -4						; size = 4
?GetSafeHandle@CGdiObject@@QBEPAXXZ PROC NEAR		; CGdiObject::GetSafeHandle, COMDAT
; _this$ = ecx

; 80   : 	{ return this == NULL ? NULL : m_hObject; }

  00000	55		 push	 ebp
  00001	8b ec		 mov	 ebp, esp
  00003	83 ec 08	 sub	 esp, 8
  00006	89 4d fc	 mov	 DWORD PTR _this$[ebp], ecx
  00009	83 7d fc 00	 cmp	 DWORD PTR _this$[ebp], 0
  0000d	75 09		 jne	 SHORT $L199412
  0000f	c7 45 f8 00 00
	00 00		 mov	 DWORD PTR tv66[ebp], 0
  00016	eb 09		 jmp	 SHORT $L199413
$L199412:
  00018	8b 45 fc	 mov	 eax, DWORD PTR _this$[ebp]
  0001b	8b 48 04	 mov	 ecx, DWORD PTR [eax+4]
  0001e	89 4d f8	 mov	 DWORD PTR tv66[ebp], ecx
$L199413:
  00021	8b 45 f8	 mov	 eax, DWORD PTR tv66[ebp]
  00024	8b e5		 mov	 esp, ebp
  00026	5d		 pop	 ebp
  00027	c3		 ret	 0
?GetSafeHandle@CGdiObject@@QBEPAXXZ ENDP		; CGdiObject::GetSafeHandle
_TEXT	ENDS
EXTRN	__imp__SetCapture@4:NEAR
; Function compile flags: /Odt
; File d:\program files (x86)\microsoft visual studio .net 2003\vc7\atlmfc\include\afxwin2.inl
;	COMDAT ?SetCapture@CWnd@@QAEPAV1@XZ
_TEXT	SEGMENT
_this$ = -4						; size = 4
?SetCapture@CWnd@@QAEPAV1@XZ PROC NEAR			; CWnd::SetCapture, COMDAT
; _this$ = ecx

; 199  : 	{ ASSERT(::IsWindow(m_hWnd)); return CWnd::FromHandle(::SetCapture(m_hWnd)); }

  00000	55		 push	 ebp
  00001	8b ec		 mov	 ebp, esp
  00003	51		 push	 ecx
  00004	89 4d fc	 mov	 DWORD PTR _this$[ebp], ecx
  00007	8b 45 fc	 mov	 eax, DWORD PTR _this$[ebp]
  0000a	8b 48 20	 mov	 ecx, DWORD PTR [eax+32]
  0000d	51		 push	 ecx
  0000e	ff 15 00 00 00
	00		 call	 DWORD PTR __imp__SetCapture@4
  00014	50		 push	 eax
  00015	e8 00 00 00 00	 call	 ?FromHandle@CWnd@@SGPAV1@PAUHWND__@@@Z ; CWnd::FromHandle
  0001a	8b e5		 mov	 esp, ebp
  0001c	5d		 pop	 ebp
  0001d	c3		 ret	 0
?SetCapture@CWnd@@QAEPAV1@XZ ENDP			; CWnd::SetCapture
_TEXT	ENDS
EXTRN	__imp__GetParent@4:NEAR
; Function compile flags: /Odt
;	COMDAT ?GetParent@CWnd@@QBEPAV1@XZ
_TEXT	SEGMENT
_this$ = -4						; size = 4
?GetParent@CWnd@@QBEPAV1@XZ PROC NEAR			; CWnd::GetParent, COMDAT
; _this$ = ecx

; 282  : 	{ ASSERT(::IsWindow(m_hWnd)); return CWnd::FromHandle(::GetParent(m_hWnd)); }

  00000	55		 push	 ebp
  00001	8b ec		 mov	 ebp, esp
  00003	51		 push	 ecx
  00004	89 4d fc	 mov	 DWORD PTR _this$[ebp], ecx
  00007	8b 45 fc	 mov	 eax, DWORD PTR _this$[ebp]
  0000a	8b 48 20	 mov	 ecx, DWORD PTR [eax+32]
  0000d	51		 push	 ecx
  0000e	ff 15 00 00 00
	00		 call	 DWORD PTR __imp__GetParent@4
  00014	50		 push	 eax
  00015	e8 00 00 00 00	 call	 ?FromHandle@CWnd@@SGPAV1@PAUHWND__@@@Z ; CWnd::FromHandle
  0001a	8b e5		 mov	 esp, ebp
  0001c	5d		 pop	 ebp
  0001d	c3		 ret	 0
?GetParent@CWnd@@QBEPAV1@XZ ENDP			; CWnd::GetParent
_TEXT	ENDS
PUBLIC	?GetSafeHwnd@CWnd@@QBEPAUHWND__@@XZ		; CWnd::GetSafeHwnd
; Function compile flags: /Odt
;	COMDAT ?SetParent@CWnd@@QAEPAV1@PAV1@@Z
_TEXT	SEGMENT
_this$ = -4						; size = 4
_pWndNewParent$ = 8					; size = 4
?SetParent@CWnd@@QAEPAV1@PAV1@@Z PROC NEAR		; CWnd::SetParent, COMDAT
; _this$ = ecx

; 284  : 	{ ASSERT(::IsWindow(m_hWnd)); return CWnd::FromHandle(::SetParent(m_hWnd,

  00000	55		 push	 ebp
  00001	8b ec		 mov	 ebp, esp
  00003	51		 push	 ecx
  00004	89 4d fc	 mov	 DWORD PTR _this$[ebp], ecx

; 285  : 			pWndNewParent->GetSafeHwnd())); }

  00007	8b 4d 08	 mov	 ecx, DWORD PTR _pWndNewParent$[ebp]
  0000a	e8 00 00 00 00	 call	 ?GetSafeHwnd@CWnd@@QBEPAUHWND__@@XZ ; CWnd::GetSafeHwnd
  0000f	50		 push	 eax
  00010	8b 45 fc	 mov	 eax, DWORD PTR _this$[ebp]
  00013	8b 48 20	 mov	 ecx, DWORD PTR [eax+32]
  00016	51		 push	 ecx
  00017	ff 15 00 00 00
	00		 call	 DWORD PTR __imp__SetParent@8
  0001d	50		 push	 eax
  0001e	e8 00 00 00 00	 call	 ?FromHandle@CWnd@@SGPAV1@PAUHWND__@@@Z ; CWnd::FromHandle
  00023	8b e5		 mov	 esp, ebp
  00025	5d		 pop	 ebp
  00026	c2 04 00	 ret	 4
?SetParent@CWnd@@QAEPAV1@PAV1@@Z ENDP			; CWnd::SetParent
; Function compile flags: /Odt
_TEXT	ENDS
;	COMDAT ?GetSafeHwnd@CWnd@@QBEPAUHWND__@@XZ
_TEXT	SEGMENT
tv66 = -8						; size = 4
_this$ = -4						; size = 4
?GetSafeHwnd@CWnd@@QBEPAUHWND__@@XZ PROC NEAR		; CWnd::GetSafeHwnd, COMDAT
; _this$ = ecx

; 27   : 	{ return this == NULL ? NULL : m_hWnd; }

  00000	55		 push	 ebp
  00001	8b ec		 mov	 ebp, esp
  00003	83 ec 08	 sub	 esp, 8
  00006	89 4d fc	 mov	 DWORD PTR _this$[ebp], ecx
  00009	83 7d fc 00	 cmp	 DWORD PTR _this$[ebp], 0
  0000d	75 09		 jne	 SHORT $L199422
  0000f	c7 45 f8 00 00
	00 00		 mov	 DWORD PTR tv66[ebp], 0
  00016	eb 09		 jmp	 SHORT $L199423
$L199422:
  00018	8b 45 fc	 mov	 eax, DWORD PTR _this$[ebp]
  0001b	8b 48 20	 mov	 ecx, DWORD PTR [eax+32]
  0001e	89 4d f8	 mov	 DWORD PTR tv66[ebp], ecx
$L199423:
  00021	8b 45 f8	 mov	 eax, DWORD PTR tv66[ebp]
  00024	8b e5		 mov	 esp, ebp
  00026	5d		 pop	 ebp
  00027	c3		 ret	 0
?GetSafeHwnd@CWnd@@QBEPAUHWND__@@XZ ENDP		; CWnd::GetSafeHwnd
_TEXT	ENDS
EXTRN	?Default@CWnd@@IAEJXZ:NEAR			; CWnd::Default
; Function compile flags: /Odt
;	COMDAT ?OnSize@CWnd@@IAEXIHH@Z
_TEXT	SEGMENT
_this$ = -4						; size = 4
___formal$ = 8						; size = 4
___formal$ = 12						; size = 4
___formal$ = 16						; size = 4
?OnSize@CWnd@@IAEXIHH@Z PROC NEAR			; CWnd::OnSize, COMDAT
; _this$ = ecx

; 392  : 	{ Default(); }

  00000	55		 push	 ebp
  00001	8b ec		 mov	 ebp, esp
  00003	51		 push	 ecx
  00004	89 4d fc	 mov	 DWORD PTR _this$[ebp], ecx
  00007	8b 4d fc	 mov	 ecx, DWORD PTR _this$[ebp]
  0000a	e8 00 00 00 00	 call	 ?Default@CWnd@@IAEJXZ	; CWnd::Default
  0000f	8b e5		 mov	 esp, ebp
  00011	5d		 pop	 ebp
  00012	c2 0c 00	 ret	 12			; 0000000cH
?OnSize@CWnd@@IAEXIHH@Z ENDP				; CWnd::OnSize
; Function compile flags: /Odt
_TEXT	ENDS
;	COMDAT ?OnWindowPosChanged@CWnd@@IAEXPAUtagWINDOWPOS@@@Z
_TEXT	SEGMENT
_this$ = -4						; size = 4
___formal$ = 8						; size = 4
?OnWindowPosChanged@CWnd@@IAEXPAUtagWINDOWPOS@@@Z PROC NEAR ; CWnd::OnWindowPosChanged, COMDAT
; _this$ = ecx

; 398  : 	{ Default(); }

  00000	55		 push	 ebp
  00001	8b ec		 mov	 ebp, esp
  00003	51		 push	 ecx
  00004	89 4d fc	 mov	 DWORD PTR _this$[ebp], ecx
  00007	8b 4d fc	 mov	 ecx, DWORD PTR _this$[ebp]
  0000a	e8 00 00 00 00	 call	 ?Default@CWnd@@IAEJXZ	; CWnd::Default
  0000f	8b e5		 mov	 esp, ebp
  00011	5d		 pop	 ebp
  00012	c2 04 00	 ret	 4
?OnWindowPosChanged@CWnd@@IAEXPAUtagWINDOWPOS@@@Z ENDP	; CWnd::OnWindowPosChanged
; Function compile flags: /Odt
_TEXT	ENDS
;	COMDAT ?OnMouseMove@CWnd@@IAEXIVCPoint@@@Z
_TEXT	SEGMENT
_this$ = -4						; size = 4
___formal$ = 8						; size = 4
___formal$ = 12						; size = 8
?OnMouseMove@CWnd@@IAEXIVCPoint@@@Z PROC NEAR		; CWnd::OnMouseMove, COMDAT
; _this$ = ecx

; 476  : 	{ Default(); }

  00000	55		 push	 ebp
  00001	8b ec		 mov	 ebp, esp
  00003	51		 push	 ecx
  00004	89 4d fc	 mov	 DWORD PTR _this$[ebp], ecx
  00007	8b 4d fc	 mov	 ecx, DWORD PTR _this$[ebp]
  0000a	e8 00 00 00 00	 call	 ?Default@CWnd@@IAEJXZ	; CWnd::Default
  0000f	8b e5		 mov	 esp, ebp
  00011	5d		 pop	 ebp
  00012	c2 0c 00	 ret	 12			; 0000000cH
?OnMouseMove@CWnd@@IAEXIVCPoint@@@Z ENDP		; CWnd::OnMouseMove
; Function compile flags: /Odt
_TEXT	ENDS
;	COMDAT ?DoDataExchange@CWnd@@MAEXPAVCDataExchange@@@Z
_TEXT	SEGMENT
_this$ = -4						; size = 4
___formal$ = 8						; size = 4
?DoDataExchange@CWnd@@MAEXPAVCDataExchange@@@Z PROC NEAR ; CWnd::DoDataExchange, COMDAT
; _this$ = ecx

; 545  : 	{ } // default does nothing

  00000	55		 push	 ebp
  00001	8b ec		 mov	 ebp, esp
  00003	51		 push	 ecx
  00004	89 4d fc	 mov	 DWORD PTR _this$[ebp], ecx
  00007	8b e5		 mov	 esp, ebp
  00009	5d		 pop	 ebp
  0000a	c2 04 00	 ret	 4
?DoDataExchange@CWnd@@MAEXPAVCDataExchange@@@Z ENDP	; CWnd::DoDataExchange
_TEXT	ENDS
EXTRN	__imp__EnableWindow@8:NEAR
; Function compile flags: /Odt
;	COMDAT ?BeginModalState@CWnd@@UAEXXZ
_TEXT	SEGMENT
_this$ = -4						; size = 4
?BeginModalState@CWnd@@UAEXXZ PROC NEAR			; CWnd::BeginModalState, COMDAT
; _this$ = ecx

; 549  : 	{ ::EnableWindow(m_hWnd, FALSE); }

  00000	55		 push	 ebp
  00001	8b ec		 mov	 ebp, esp
  00003	51		 push	 ecx
  00004	89 4d fc	 mov	 DWORD PTR _this$[ebp], ecx
  00007	6a 00		 push	 0
  00009	8b 45 fc	 mov	 eax, DWORD PTR _this$[ebp]
  0000c	8b 48 20	 mov	 ecx, DWORD PTR [eax+32]
  0000f	51		 push	 ecx
  00010	ff 15 00 00 00
	00		 call	 DWORD PTR __imp__EnableWindow@8
  00016	8b e5		 mov	 esp, ebp
  00018	5d		 pop	 ebp
  00019	c3		 ret	 0
?BeginModalState@CWnd@@UAEXXZ ENDP			; CWnd::BeginModalState
; Function compile flags: /Odt
_TEXT	ENDS
;	COMDAT ?EndModalState@CWnd@@UAEXXZ
_TEXT	SEGMENT
_this$ = -4						; size = 4
?EndModalState@CWnd@@UAEXXZ PROC NEAR			; CWnd::EndModalState, COMDAT
; _this$ = ecx

; 551  : 	{ ::EnableWindow(m_hWnd, TRUE); }

  00000	55		 push	 ebp
  00001	8b ec		 mov	 ebp, esp
  00003	51		 push	 ecx
  00004	89 4d fc	 mov	 DWORD PTR _this$[ebp], ecx
  00007	6a 01		 push	 1
  00009	8b 45 fc	 mov	 eax, DWORD PTR _this$[ebp]
  0000c	8b 48 20	 mov	 ecx, DWORD PTR [eax+32]
  0000f	51		 push	 ecx
  00010	ff 15 00 00 00
	00		 call	 DWORD PTR __imp__EnableWindow@8
  00016	8b e5		 mov	 esp, ebp
  00018	5d		 pop	 ebp
  00019	c3		 ret	 0
?EndModalState@CWnd@@UAEXXZ ENDP			; CWnd::EndModalState
; Function compile flags: /Odt
_TEXT	ENDS
;	COMDAT ?Create@CDialog@@UAEHIPAVCWnd@@@Z
_TEXT	SEGMENT
_this$ = -4						; size = 4
_nIDTemplate$ = 8					; size = 4
_pParentWnd$ = 12					; size = 4
?Create@CDialog@@UAEHIPAVCWnd@@@Z PROC NEAR		; CDialog::Create, COMDAT
; _this$ = ecx

; 569  : 	{ return Create(MAKEINTRESOURCE(nIDTemplate), pParentWnd); }

  00000	55		 push	 ebp
  00001	8b ec		 mov	 ebp, esp
  00003	51		 push	 ecx
  00004	89 4d fc	 mov	 DWORD PTR _this$[ebp], ecx
  00007	8b 45 0c	 mov	 eax, DWORD PTR _pParentWnd$[ebp]
  0000a	50		 push	 eax
  0000b	0f b7 4d 08	 movzx	 ecx, WORD PTR _nIDTemplate$[ebp]
  0000f	51		 push	 ecx
  00010	8b 55 fc	 mov	 edx, DWORD PTR _this$[ebp]
  00013	8b 02		 mov	 eax, DWORD PTR [edx]
  00015	8b 4d fc	 mov	 ecx, DWORD PTR _this$[ebp]
  00018	ff 90 3c 01 00
	00		 call	 DWORD PTR [eax+316]
  0001e	8b e5		 mov	 esp, ebp
  00020	5d		 pop	 ebp
  00021	c2 08 00	 ret	 8
?Create@CDialog@@UAEHIPAVCWnd@@@Z ENDP			; CDialog::Create
_TEXT	ENDS
END
