; Listing generated by Microsoft (R) Optimizing Compiler Version 13.10.3077 

	TITLE	.\src\LayoutMgr\ChangeColor\IChangeColorMgr.cpp
	.386P
include listing.inc
if @Version gt 510
.model FLAT
else
_TEXT	SEGMENT PARA USE32 PUBLIC 'CODE'
_TEXT	ENDS
_DATA	SEGMENT DWORD USE32 PUBLIC 'DATA'
_DATA	ENDS
CONST	SEGMENT DWORD USE32 PUBLIC 'CONST'
CONST	ENDS
_BSS	SEGMENT DWORD USE32 PUBLIC 'BSS'
_BSS	ENDS
$$SYMBOLS	SEGMENT BYTE USE32 'DEBSYM'
$$SYMBOLS	ENDS
$$TYPES	SEGMENT BYTE USE32 'DEBTYP'
$$TYPES	ENDS
_TLS	SEGMENT DWORD USE32 PUBLIC 'TLS'
_TLS	ENDS
;	COMDAT ??_C@_0BD@OLBABOEK@vector?$DMT?$DO?5too?5long?$AA@
CONST	SEGMENT DWORD USE32 PUBLIC 'CONST'
CONST	ENDS
rdata$r	SEGMENT DWORD USE32 PUBLIC 'CONST'
rdata$r	ENDS
xdata$x	SEGMENT DWORD USE32 PUBLIC 'CONST'
xdata$x	ENDS
text$AFX_COL1	SEGMENT PARA USE32 PUBLIC ''
text$AFX_COL1	ENDS
text$yc	SEGMENT PARA USE32 PUBLIC 'CODE'
text$yc	ENDS
CRT$XCA	SEGMENT DWORD USE32 PUBLIC 'DATA'
CRT$XCA	ENDS
CRT$XCU	SEGMENT DWORD USE32 PUBLIC 'DATA'
CRT$XCU	ENDS
CRT$XCL	SEGMENT DWORD USE32 PUBLIC 'DATA'
CRT$XCL	ENDS
CRT$XCC	SEGMENT DWORD USE32 PUBLIC 'DATA'
CRT$XCC	ENDS
CRT$XCZ	SEGMENT DWORD USE32 PUBLIC 'DATA'
CRT$XCZ	ENDS
text$yd	SEGMENT PARA USE32 PUBLIC 'CODE'
text$yd	ENDS
ATL$__m	SEGMENT DWORD USE32 PUBLIC ''
ATL$__m	ENDS
ATL$__z	SEGMENT DWORD USE32 PUBLIC ''
ATL$__z	ENDS
ATL$__a	SEGMENT DWORD USE32 PUBLIC ''
ATL$__a	ENDS
;	COMDAT ??1DIBINFO@@UAE@XZ
_TEXT	SEGMENT PARA USE32 PUBLIC 'CODE'
_TEXT	ENDS
;	COMDAT ??_GDIBINFO@@UAEPAXI@Z
_TEXT	SEGMENT PARA USE32 PUBLIC 'CODE'
_TEXT	ENDS
;	COMDAT ?SetAdjustValue@CBitMapOperate@@QAEXH@Z
_TEXT	SEGMENT PARA USE32 PUBLIC 'CODE'
_TEXT	ENDS
;	COMDAT ??1CGdiPlusBitmap@@UAE@XZ
_TEXT	SEGMENT PARA USE32 PUBLIC 'CODE'
_TEXT	ENDS
;	COMDAT ?Empty@CGdiPlusBitmap@@QAEXXZ
_TEXT	SEGMENT PARA USE32 PUBLIC 'CODE'
_TEXT	ENDS
;	COMDAT ?Load@CGdiPlusBitmap@@QAE_NPB_W@Z
_TEXT	SEGMENT PARA USE32 PUBLIC 'CODE'
_TEXT	ENDS
;	COMDAT ??_GCGdiPlusBitmap@@UAEPAXI@Z
_TEXT	SEGMENT PARA USE32 PUBLIC 'CODE'
_TEXT	ENDS
;	COMDAT ??1IData@@MAE@XZ
_TEXT	SEGMENT PARA USE32 PUBLIC 'CODE'
_TEXT	ENDS
;	COMDAT ?DataAppStart@IData@@UAEXXZ
_TEXT	SEGMENT PARA USE32 PUBLIC 'CODE'
_TEXT	ENDS
;	COMDAT ?DataAppExit@IData@@UAEXXZ
_TEXT	SEGMENT PARA USE32 PUBLIC 'CODE'
_TEXT	ENDS
;	COMDAT ??_GIData@@MAEPAXI@Z
_TEXT	SEGMENT PARA USE32 PUBLIC 'CODE'
_TEXT	ENDS
;	COMDAT ?OnCliekButton@IEventListener@@UAEXPAVCButton@@@Z
_TEXT	SEGMENT PARA USE32 PUBLIC 'CODE'
_TEXT	ENDS
;	COMDAT ?OnCliekSlide@IEventListener@@UAEXPAVCSliderCtrl@@@Z
_TEXT	SEGMENT PARA USE32 PUBLIC 'CODE'
_TEXT	ENDS
;	COMDAT ?OnSendChangeColor@IEventListener@@UAEXKI_N@Z
_TEXT	SEGMENT PARA USE32 PUBLIC 'CODE'
_TEXT	ENDS
;	COMDAT ?OnSendChangeSkin@IEventListener@@UAEXV?$CStringT@DV?$StrTraitMFC_DLL@DV?$ChTraitsCRT@D@ATL@@@@@ATL@@@Z
_TEXT	SEGMENT PARA USE32 PUBLIC 'CODE'
_TEXT	ENDS
;	COMDAT ?OnSendChangeSubject@IEventListener@@UAEXV?$CStringT@DV?$StrTraitMFC_DLL@DV?$ChTraitsCRT@D@ATL@@@@@ATL@@0@Z
_TEXT	SEGMENT PARA USE32 PUBLIC 'CODE'
_TEXT	ENDS
;	COMDAT ?OnChangeSkinAndSub@IEventListener@@UAEXABV?$CStringT@DV?$StrTraitMFC_DLL@DV?$ChTraitsCRT@D@ATL@@@@@ATL@@0@Z
_TEXT	SEGMENT PARA USE32 PUBLIC 'CODE'
_TEXT	ENDS
;	COMDAT ?OnStartDownSubject@IEventListener@@UAEXABV?$CStringT@DV?$StrTraitMFC_DLL@DV?$ChTraitsCRT@D@ATL@@@@@ATL@@@Z
_TEXT	SEGMENT PARA USE32 PUBLIC 'CODE'
_TEXT	ENDS
;	COMDAT ?OnFinishDownSubject@IEventListener@@UAEXH@Z
_TEXT	SEGMENT PARA USE32 PUBLIC 'CODE'
_TEXT	ENDS
;	COMDAT ?OnChangeSkinTemplate@IWndEventListener@@UAE_NV?$CStringT@DV?$StrTraitMFC_DLL@DV?$ChTraitsCRT@D@ATL@@@@@ATL@@@Z
_TEXT	SEGMENT PARA USE32 PUBLIC 'CODE'
_TEXT	ENDS
;	COMDAT ?OnchangeColor@IWndEventListener@@UAEXKI@Z
_TEXT	SEGMENT PARA USE32 PUBLIC 'CODE'
_TEXT	ENDS
;	COMDAT ?SetListener@CMainSkinWnd@@QAEXPAVIEventListener@@@Z
_TEXT	SEGMENT PARA USE32 PUBLIC 'CODE'
_TEXT	ENDS
;	COMDAT ?SetWndListener@CMainSkinWnd@@QAEXPAVIWndEventListener@@@Z
_TEXT	SEGMENT PARA USE32 PUBLIC 'CODE'
_TEXT	ENDS
;	COMDAT ??1CGdiPlusBitmap@CSkinButton@@UAE@XZ
_TEXT	SEGMENT PARA USE32 PUBLIC 'CODE'
_TEXT	ENDS
;	COMDAT ?Empty@CGdiPlusBitmap@CSkinButton@@QAEXXZ
_TEXT	SEGMENT PARA USE32 PUBLIC 'CODE'
_TEXT	ENDS
;	COMDAT ?Load@CGdiPlusBitmap@CSkinButton@@QAE_NPB_W@Z
_TEXT	SEGMENT PARA USE32 PUBLIC 'CODE'
_TEXT	ENDS
;	COMDAT ??_GCGdiPlusBitmap@CSkinButton@@UAEPAXI@Z
_TEXT	SEGMENT PARA USE32 PUBLIC 'CODE'
_TEXT	ENDS
;	COMDAT ?SetSendEventListener@CSkinWnd@@QAEXPAVIEventListener@@@Z
_TEXT	SEGMENT PARA USE32 PUBLIC 'CODE'
_TEXT	ENDS
;	COMDAT ?SetSendEventListener@CSubjectChildWnd@@QAEXPAVIEventListener@@@Z
_TEXT	SEGMENT PARA USE32 PUBLIC 'CODE'
_TEXT	ENDS
;	COMDAT ??1HTTPObserver@@UAE@XZ
_TEXT	SEGMENT PARA USE32 PUBLIC 'CODE'
_TEXT	ENDS
;	COMDAT ?HTTPOb_DownStart@HTTPObserver@@UAEXPBD0I@Z
_TEXT	SEGMENT PARA USE32 PUBLIC 'CODE'
_TEXT	ENDS
;	COMDAT ?HTTPOb_DownFinish@HTTPObserver@@UAEXPBD@Z
_TEXT	SEGMENT PARA USE32 PUBLIC 'CODE'
_TEXT	ENDS
;	COMDAT ?HTTPOb_DownFailed@HTTPObserver@@UAEXPBDW4HTTP_DOWN_FAILED_REASON@@@Z
_TEXT	SEGMENT PARA USE32 PUBLIC 'CODE'
_TEXT	ENDS
;	COMDAT ?HTTPOb_DownProgress@HTTPObserver@@UAEXPBDII@Z
_TEXT	SEGMENT PARA USE32 PUBLIC 'CODE'
_TEXT	ENDS
;	COMDAT ?HTTPOb_DownloadPause@HTTPObserver@@UAEXPBD@Z
_TEXT	SEGMENT PARA USE32 PUBLIC 'CODE'
_TEXT	ENDS
;	COMDAT ??_GHTTPObserver@@UAEPAXI@Z
_TEXT	SEGMENT PARA USE32 PUBLIC 'CODE'
_TEXT	ENDS
;	COMDAT ?SetEventListener@CDownloadPercentWnd@@QAEXPAVIEventListener@@@Z
_TEXT	SEGMENT PARA USE32 PUBLIC 'CODE'
_TEXT	ENDS
;	COMDAT ??1P2PObserver@@UAE@XZ
_TEXT	SEGMENT PARA USE32 PUBLIC 'CODE'
_TEXT	ENDS
;	COMDAT ?P2POb_DownStart@P2PObserver@@UAEXABV?$basic_string@DU?$char_traits@D@std@@V?$allocator@D@2@@std@@PBDI@Z
_TEXT	SEGMENT PARA USE32 PUBLIC 'CODE'
_TEXT	ENDS
;	COMDAT ?P2POb_DownFinish@P2PObserver@@UAEXABV?$basic_string@DU?$char_traits@D@std@@V?$allocator@D@2@@std@@@Z
_TEXT	SEGMENT PARA USE32 PUBLIC 'CODE'
_TEXT	ENDS
;	COMDAT ?P2POb_DownFailed@P2PObserver@@UAEXABV?$basic_string@DU?$char_traits@D@std@@V?$allocator@D@2@@std@@W4P2P_DOWN_FAILED_REASON@@@Z
_TEXT	SEGMENT PARA USE32 PUBLIC 'CODE'
_TEXT	ENDS
;	COMDAT ?P2POb_DownProgress@P2PObserver@@UAEXABV?$basic_string@DU?$char_traits@D@std@@V?$allocator@D@2@@std@@III@Z
_TEXT	SEGMENT PARA USE32 PUBLIC 'CODE'
_TEXT	ENDS
;	COMDAT ?P2POb_DownPause@P2PObserver@@UAEXABV?$basic_string@DU?$char_traits@D@std@@V?$allocator@D@2@@std@@@Z
_TEXT	SEGMENT PARA USE32 PUBLIC 'CODE'
_TEXT	ENDS
;	COMDAT ?P2POb_SigChange@P2PObserver@@UAEXABV?$basic_string@DU?$char_traits@D@std@@V?$allocator@D@2@@std@@0PBD@Z
_TEXT	SEGMENT PARA USE32 PUBLIC 'CODE'
_TEXT	ENDS
;	COMDAT ??_GP2PObserver@@UAEPAXI@Z
_TEXT	SEGMENT PARA USE32 PUBLIC 'CODE'
_TEXT	ENDS
;	COMDAT ?ILayoutChangeOb_LayerChanged@ILayoutChangeObserver@@UAEXV?$basic_string@DU?$char_traits@D@std@@V?$allocator@D@2@@std@@00@Z
_TEXT	SEGMENT PARA USE32 PUBLIC 'CODE'
_TEXT	ENDS
;	COMDAT ?ILayoutChangeOb_PaneChanged@ILayoutChangeObserver@@UAEXV?$basic_string@DU?$char_traits@D@std@@V?$allocator@D@2@@std@@0@Z
_TEXT	SEGMENT PARA USE32 PUBLIC 'CODE'
_TEXT	ENDS
;	COMDAT ?ILayoutChangeOb_SkinChanged@ILayoutChangeObserver@@UAEXV?$basic_string@DU?$char_traits@D@std@@V?$allocator@D@2@@std@@0@Z
_TEXT	SEGMENT PARA USE32 PUBLIC 'CODE'
_TEXT	ENDS
;	COMDAT ?ILayoutChangeOb_ColorChanged@ILayoutChangeObserver@@UAEXXZ
_TEXT	SEGMENT PARA USE32 PUBLIC 'CODE'
_TEXT	ENDS
;	COMDAT ?ILayoutChangeOb_ColorChanging@ILayoutChangeObserver@@UAEXXZ
_TEXT	SEGMENT PARA USE32 PUBLIC 'CODE'
_TEXT	ENDS
;	COMDAT ?ILayoutChangeOb_UpdateLayout@ILayoutChangeObserver@@UAEXPAUHWND__@@@Z
_TEXT	SEGMENT PARA USE32 PUBLIC 'CODE'
_TEXT	ENDS
;	COMDAT ?ILayoutChangeOb_InitFinished@ILayoutChangeObserver@@UAEXXZ
_TEXT	SEGMENT PARA USE32 PUBLIC 'CODE'
_TEXT	ENDS
;	COMDAT ?ILayoutChangeOb_InitBegin@ILayoutChangeObserver@@UAEXXZ
_TEXT	SEGMENT PARA USE32 PUBLIC 'CODE'
_TEXT	ENDS
;	COMDAT ?GetClsid@CShockwaveFlash@@QAEABU_GUID@@XZ
_TEXT	SEGMENT PARA USE32 PUBLIC 'CODE'
_TEXT	ENDS
;	COMDAT ?GetSkinWnd@CSkinMgrV1@@UAEPAVCWnd@@XZ
_TEXT	SEGMENT PARA USE32 PUBLIC 'CODE'
_TEXT	ENDS
;	COMDAT _$E5
text$yc	SEGMENT PARA USE32 PUBLIC 'CODE'
text$yc	ENDS
;	COMDAT ?SetMsg@CDialogMsg@@QAEXABV?$CStringT@DV?$StrTraitMFC_DLL@DV?$ChTraitsCRT@D@ATL@@@@@ATL@@@Z
_TEXT	SEGMENT PARA USE32 PUBLIC 'CODE'
_TEXT	ENDS
;	COMDAT ??_GCSkinMgrV1@@UAEPAXI@Z
_TEXT	SEGMENT PARA USE32 PUBLIC 'CODE'
_TEXT	ENDS
;	COMDAT ??0IChangeColorMgr@@QAE@XZ
_TEXT	SEGMENT PARA USE32 PUBLIC 'CODE'
_TEXT	ENDS
;	COMDAT ??0P2PObserver@@QAE@XZ
_TEXT	SEGMENT PARA USE32 PUBLIC 'CODE'
_TEXT	ENDS
;	COMDAT ??0ILayoutChangeObserver@@QAE@XZ
_TEXT	SEGMENT PARA USE32 PUBLIC 'CODE'
_TEXT	ENDS
;	COMDAT ??1ILayoutChangeObserver@@UAE@XZ
_TEXT	SEGMENT PARA USE32 PUBLIC 'CODE'
_TEXT	ENDS
;	COMDAT ??0IWndEventListener@@QAE@XZ
_TEXT	SEGMENT PARA USE32 PUBLIC 'CODE'
_TEXT	ENDS
;	COMDAT ??0IEventListener@@QAE@XZ
_TEXT	SEGMENT PARA USE32 PUBLIC 'CODE'
_TEXT	ENDS
;	COMDAT ??_GILayoutChangeObserver@@UAEPAXI@Z
_TEXT	SEGMENT PARA USE32 PUBLIC 'CODE'
_TEXT	ENDS
;	COMDAT ??0IMessageObserver@@QAE@XZ
_TEXT	SEGMENT PARA USE32 PUBLIC 'CODE'
_TEXT	ENDS
;	COMDAT ??HATL@@YA?AV?$CStringT@DV?$StrTraitMFC_DLL@DV?$ChTraitsCRT@D@ATL@@@@@0@ABV10@PBD@Z
_TEXT	SEGMENT PARA USE32 PUBLIC 'CODE'
_TEXT	ENDS
;	COMDAT ??HATL@@YA?AV?$CStringT@DV?$StrTraitMFC_DLL@DV?$ChTraitsCRT@D@ATL@@@@@0@PBDABV10@@Z
_TEXT	SEGMENT PARA USE32 PUBLIC 'CODE'
_TEXT	ENDS
;	COMDAT ??9ATL@@YA_NABV?$CStringT@DV?$StrTraitMFC_DLL@DV?$ChTraitsCRT@D@ATL@@@@@0@PBD@Z
_TEXT	SEGMENT PARA USE32 PUBLIC 'CODE'
_TEXT	ENDS
;	COMDAT ?size@?$vector@UOneSubject@@V?$allocator@UOneSubject@@@std@@@std@@QBEIXZ
_TEXT	SEGMENT PARA USE32 PUBLIC 'CODE'
_TEXT	ENDS
;	COMDAT ??A?$vector@UOneSubject@@V?$allocator@UOneSubject@@@std@@@std@@QAEAAUOneSubject@@I@Z
_TEXT	SEGMENT PARA USE32 PUBLIC 'CODE'
_TEXT	ENDS
;	COMDAT ??B?$CComPtrBase@UITypeInfo2@@@ATL@@QBEPAUITypeInfo2@@XZ
_TEXT	SEGMENT PARA USE32 PUBLIC 'CODE'
_TEXT	ENDS
;	COMDAT ?equal@?$istreambuf_iterator@DU?$char_traits@D@std@@@std@@QBE_NABV12@@Z
_TEXT	SEGMENT PARA USE32 PUBLIC 'CODE'
_TEXT	ENDS
;	COMDAT ?equal@?$istreambuf_iterator@_WU?$char_traits@_W@std@@@std@@QBE_NABV12@@Z
_TEXT	SEGMENT PARA USE32 PUBLIC 'CODE'
_TEXT	ENDS
;	COMDAT ??0?$vector@PAVIChangeSkinEventListener@@V?$allocator@PAVIChangeSkinEventListener@@@std@@@std@@QAE@XZ
_TEXT	SEGMENT PARA USE32 PUBLIC 'CODE'
_TEXT	ENDS
;	COMDAT ??1?$vector@PAVIChangeSkinEventListener@@V?$allocator@PAVIChangeSkinEventListener@@@std@@@std@@QAE@XZ
_TEXT	SEGMENT PARA USE32 PUBLIC 'CODE'
_TEXT	ENDS
;	COMDAT ?begin@?$vector@PAVIChangeSkinEventListener@@V?$allocator@PAVIChangeSkinEventListener@@@std@@@std@@QAE?AViterator@12@XZ
_TEXT	SEGMENT PARA USE32 PUBLIC 'CODE'
_TEXT	ENDS
;	COMDAT ?end@?$vector@PAVIChangeSkinEventListener@@V?$allocator@PAVIChangeSkinEventListener@@@std@@@std@@QAE?AViterator@12@XZ
_TEXT	SEGMENT PARA USE32 PUBLIC 'CODE'
_TEXT	ENDS
;	COMDAT ?size@?$vector@PAVIChangeSkinEventListener@@V?$allocator@PAVIChangeSkinEventListener@@@std@@@std@@QBEIXZ
_TEXT	SEGMENT PARA USE32 PUBLIC 'CODE'
_TEXT	ENDS
;	COMDAT ??A?$vector@PAVIChangeSkinEventListener@@V?$allocator@PAVIChangeSkinEventListener@@@std@@@std@@QAEAAPAVIChangeSkinEventListener@@I@Z
_TEXT	SEGMENT PARA USE32 PUBLIC 'CODE'
_TEXT	ENDS
;	COMDAT ?push_back@?$vector@PAVIChangeSkinEventListener@@V?$allocator@PAVIChangeSkinEventListener@@@std@@@std@@QAEXABQAVIChangeSkinEventListener@@@Z
_TEXT	SEGMENT PARA USE32 PUBLIC 'CODE'
_TEXT	ENDS
;	COMDAT ?erase@?$vector@PAVIChangeSkinEventListener@@V?$allocator@PAVIChangeSkinEventListener@@@std@@@std@@QAE?AViterator@12@V312@@Z
_TEXT	SEGMENT PARA USE32 PUBLIC 'CODE'
_TEXT	ENDS
;	COMDAT ??Diterator@?$vector@PAVIChangeSkinEventListener@@V?$allocator@PAVIChangeSkinEventListener@@@std@@@std@@QBEAAPAVIChangeSkinEventListener@@XZ
_TEXT	SEGMENT PARA USE32 PUBLIC 'CODE'
_TEXT	ENDS
;	COMDAT ??Eiterator@?$vector@PAVIChangeSkinEventListener@@V?$allocator@PAVIChangeSkinEventListener@@@std@@@std@@QAE?AV012@H@Z
_TEXT	SEGMENT PARA USE32 PUBLIC 'CODE'
_TEXT	ENDS
;	COMDAT ??9const_iterator@?$vector@PAVIChangeSkinEventListener@@V?$allocator@PAVIChangeSkinEventListener@@@std@@@std@@QBE_NABV012@@Z
_TEXT	SEGMENT PARA USE32 PUBLIC 'CODE'
_TEXT	ENDS
;	COMDAT ??0?$vector@V?$basic_string@DU?$char_traits@D@std@@V?$allocator@D@2@@std@@V?$allocator@V?$basic_string@DU?$char_traits@D@std@@V?$allocator@D@2@@std@@@2@@std@@QAE@XZ
_TEXT	SEGMENT PARA USE32 PUBLIC 'CODE'
_TEXT	ENDS
;	COMDAT ??1?$vector@V?$basic_string@DU?$char_traits@D@std@@V?$allocator@D@2@@std@@V?$allocator@V?$basic_string@DU?$char_traits@D@std@@V?$allocator@D@2@@std@@@2@@std@@QAE@XZ
_TEXT	SEGMENT PARA USE32 PUBLIC 'CODE'
_TEXT	ENDS
;	COMDAT ?CharNextA@?$ChTraitsCRT@D@ATL@@SAPADPBD@Z
_TEXT	SEGMENT PARA USE32 PUBLIC 'CODE'
_TEXT	ENDS
;	COMDAT ?StringFindString@?$ChTraitsCRT@D@ATL@@SAPBDPBD0@Z
_TEXT	SEGMENT PARA USE32 PUBLIC 'CODE'
_TEXT	ENDS
;	COMDAT ?StringFindString@?$ChTraitsCRT@D@ATL@@SAPADPADPBD@Z
_TEXT	SEGMENT PARA USE32 PUBLIC 'CODE'
_TEXT	ENDS
;	COMDAT ?StringFindChar@?$ChTraitsCRT@D@ATL@@SAPBDPBDD@Z
_TEXT	SEGMENT PARA USE32 PUBLIC 'CODE'
_TEXT	ENDS
;	COMDAT ?StringFindCharRev@?$ChTraitsCRT@D@ATL@@SAPBDPBDD@Z
_TEXT	SEGMENT PARA USE32 PUBLIC 'CODE'
_TEXT	ENDS
;	COMDAT ?StringSpanIncluding@?$ChTraitsCRT@D@ATL@@SAHPBD0@Z
_TEXT	SEGMENT PARA USE32 PUBLIC 'CODE'
_TEXT	ENDS
;	COMDAT ?StringSpanExcluding@?$ChTraitsCRT@D@ATL@@SAHPBD0@Z
_TEXT	SEGMENT PARA USE32 PUBLIC 'CODE'
_TEXT	ENDS
;	COMDAT ?SafeStringLen@?$ChTraitsCRT@D@ATL@@SAHPBD@Z
_TEXT	SEGMENT PARA USE32 PUBLIC 'CODE'
_TEXT	ENDS
;	COMDAT ?begin@?$vector@UOneSubject@@V?$allocator@UOneSubject@@@std@@@std@@QAE?AViterator@12@XZ
_TEXT	SEGMENT PARA USE32 PUBLIC 'CODE'
_TEXT	ENDS
;	COMDAT ??0?$allocator@V?$basic_string@DU?$char_traits@D@std@@V?$allocator@D@2@@std@@@std@@QAE@XZ
_TEXT	SEGMENT PARA USE32 PUBLIC 'CODE'
_TEXT	ENDS
;	COMDAT ?capacity@?$vector@PAVIChangeSkinEventListener@@V?$allocator@PAVIChangeSkinEventListener@@@std@@@std@@QBEIXZ
_TEXT	SEGMENT PARA USE32 PUBLIC 'CODE'
_TEXT	ENDS
;	COMDAT ?insert@?$vector@PAVIChangeSkinEventListener@@V?$allocator@PAVIChangeSkinEventListener@@@std@@@std@@QAE?AViterator@12@V312@ABQAVIChangeSkinEventListener@@@Z
_TEXT	SEGMENT PARA USE32 PUBLIC 'CODE'
_TEXT	ENDS
;	COMDAT ?_Buy@?$vector@PAVIChangeSkinEventListener@@V?$allocator@PAVIChangeSkinEventListener@@@std@@@std@@IAE_NI@Z
_TEXT	SEGMENT PARA USE32 PUBLIC 'CODE'
_TEXT	ENDS
;	COMDAT ?_Destroy@?$vector@PAVIChangeSkinEventListener@@V?$allocator@PAVIChangeSkinEventListener@@@std@@@std@@IAEXPAPAVIChangeSkinEventListener@@0@Z
_TEXT	SEGMENT PARA USE32 PUBLIC 'CODE'
_TEXT	ENDS
;	COMDAT ?_Tidy@?$vector@PAVIChangeSkinEventListener@@V?$allocator@PAVIChangeSkinEventListener@@@std@@@std@@IAEXXZ
_TEXT	SEGMENT PARA USE32 PUBLIC 'CODE'
_TEXT	ENDS
;	COMDAT ?_Ufill@?$vector@PAVIChangeSkinEventListener@@V?$allocator@PAVIChangeSkinEventListener@@@std@@@std@@IAEPAPAVIChangeSkinEventListener@@PAPAV3@IABQAV3@@Z
_TEXT	SEGMENT PARA USE32 PUBLIC 'CODE'
_TEXT	ENDS
;	COMDAT ??0?$_Vector_val@PAVIChangeSkinEventListener@@V?$allocator@PAVIChangeSkinEventListener@@@std@@@std@@IAE@V?$allocator@PAVIChangeSkinEventListener@@@1@@Z
_TEXT	SEGMENT PARA USE32 PUBLIC 'CODE'
_TEXT	ENDS
;	COMDAT ??0?$allocator@PAVIChangeSkinEventListener@@@std@@QAE@XZ
_TEXT	SEGMENT PARA USE32 PUBLIC 'CODE'
_TEXT	ENDS
;	COMDAT ??0iterator@?$vector@PAVIChangeSkinEventListener@@V?$allocator@PAVIChangeSkinEventListener@@@std@@@std@@QAE@PAPAVIChangeSkinEventListener@@@Z
_TEXT	SEGMENT PARA USE32 PUBLIC 'CODE'
_TEXT	ENDS
;	COMDAT ??Eiterator@?$vector@PAVIChangeSkinEventListener@@V?$allocator@PAVIChangeSkinEventListener@@@std@@@std@@QAEAAV012@XZ
_TEXT	SEGMENT PARA USE32 PUBLIC 'CODE'
_TEXT	ENDS
;	COMDAT ??Hiterator@?$vector@PAVIChangeSkinEventListener@@V?$allocator@PAVIChangeSkinEventListener@@@std@@@std@@QBE?AV012@H@Z
_TEXT	SEGMENT PARA USE32 PUBLIC 'CODE'
_TEXT	ENDS
;	COMDAT ??Dconst_iterator@?$vector@PAVIChangeSkinEventListener@@V?$allocator@PAVIChangeSkinEventListener@@@std@@@std@@QBEABQAVIChangeSkinEventListener@@XZ
_TEXT	SEGMENT PARA USE32 PUBLIC 'CODE'
_TEXT	ENDS
;	COMDAT ??8const_iterator@?$vector@PAVIChangeSkinEventListener@@V?$allocator@PAVIChangeSkinEventListener@@@std@@@std@@QBE_NABV012@@Z
_TEXT	SEGMENT PARA USE32 PUBLIC 'CODE'
_TEXT	ENDS
;	COMDAT ?_Buy@?$vector@V?$basic_string@DU?$char_traits@D@std@@V?$allocator@D@2@@std@@V?$allocator@V?$basic_string@DU?$char_traits@D@std@@V?$allocator@D@2@@std@@@2@@std@@IAE_NI@Z
_TEXT	SEGMENT PARA USE32 PUBLIC 'CODE'
_TEXT	ENDS
;	COMDAT ?_Tidy@?$vector@V?$basic_string@DU?$char_traits@D@std@@V?$allocator@D@2@@std@@V?$allocator@V?$basic_string@DU?$char_traits@D@std@@V?$allocator@D@2@@std@@@2@@std@@IAEXXZ
_TEXT	SEGMENT PARA USE32 PUBLIC 'CODE'
_TEXT	ENDS
;	COMDAT ??0?$_Vector_val@V?$basic_string@DU?$char_traits@D@std@@V?$allocator@D@2@@std@@V?$allocator@V?$basic_string@DU?$char_traits@D@std@@V?$allocator@D@2@@std@@@2@@std@@IAE@V?$allocator@V?$basic_string@DU?$char_traits@D@std@@V?$allocator@D@2@@std@@@1@@Z
_TEXT	SEGMENT PARA USE32 PUBLIC 'CODE'
_TEXT	ENDS
;	COMDAT ??Diterator@?$vector@UOneSubject@@V?$allocator@UOneSubject@@@std@@@std@@QBEAAUOneSubject@@XZ
_TEXT	SEGMENT PARA USE32 PUBLIC 'CODE'
_TEXT	ENDS
;	COMDAT ??Hiterator@?$vector@UOneSubject@@V?$allocator@UOneSubject@@@std@@@std@@QBE?AV012@H@Z
_TEXT	SEGMENT PARA USE32 PUBLIC 'CODE'
_TEXT	ENDS
;	COMDAT ?StringCompare@?$ChTraitsCRT@D@ATL@@SAHPBD0@Z
_TEXT	SEGMENT PARA USE32 PUBLIC 'CODE'
_TEXT	ENDS
;	COMDAT ??0?$allocator@V?$basic_string@DU?$char_traits@D@std@@V?$allocator@D@2@@std@@@std@@QAE@ABV01@@Z
_TEXT	SEGMENT PARA USE32 PUBLIC 'CODE'
_TEXT	ENDS
;	COMDAT ?deallocate@?$allocator@V?$basic_string@DU?$char_traits@D@std@@V?$allocator@D@2@@std@@@std@@QAEXPAV?$basic_string@DU?$char_traits@D@std@@V?$allocator@D@2@@2@I@Z
_TEXT	SEGMENT PARA USE32 PUBLIC 'CODE'
_TEXT	ENDS
;	COMDAT ?allocate@?$allocator@V?$basic_string@DU?$char_traits@D@std@@V?$allocator@D@2@@std@@@std@@QAEPAV?$basic_string@DU?$char_traits@D@std@@V?$allocator@D@2@@2@I@Z
_TEXT	SEGMENT PARA USE32 PUBLIC 'CODE'
_TEXT	ENDS
;	COMDAT ?max_size@?$vector@PAVIChangeSkinEventListener@@V?$allocator@PAVIChangeSkinEventListener@@@std@@@std@@QBEIXZ
_TEXT	SEGMENT PARA USE32 PUBLIC 'CODE'
_TEXT	ENDS
;	COMDAT ?_Insert_n@?$vector@PAVIChangeSkinEventListener@@V?$allocator@PAVIChangeSkinEventListener@@@std@@@std@@IAEXViterator@12@IABQAVIChangeSkinEventListener@@@Z
_TEXT	SEGMENT PARA USE32 PUBLIC 'CODE'
_TEXT	ENDS
;	COMDAT ?_Xlen@?$vector@PAVIChangeSkinEventListener@@V?$allocator@PAVIChangeSkinEventListener@@@std@@@std@@IBEXXZ
_TEXT	SEGMENT PARA USE32 PUBLIC 'CODE'
_TEXT	ENDS
;	COMDAT ??0?$allocator@PAVIChangeSkinEventListener@@@std@@QAE@ABV01@@Z
_TEXT	SEGMENT PARA USE32 PUBLIC 'CODE'
_TEXT	ENDS
;	COMDAT ?deallocate@?$allocator@PAVIChangeSkinEventListener@@@std@@QAEXPAPAVIChangeSkinEventListener@@I@Z
_TEXT	SEGMENT PARA USE32 PUBLIC 'CODE'
_TEXT	ENDS
;	COMDAT ?allocate@?$allocator@PAVIChangeSkinEventListener@@@std@@QAEPAPAVIChangeSkinEventListener@@I@Z
_TEXT	SEGMENT PARA USE32 PUBLIC 'CODE'
_TEXT	ENDS
;	COMDAT ??Yiterator@?$vector@PAVIChangeSkinEventListener@@V?$allocator@PAVIChangeSkinEventListener@@@std@@@std@@QAEAAV012@H@Z
_TEXT	SEGMENT PARA USE32 PUBLIC 'CODE'
_TEXT	ENDS
;	COMDAT ??Giterator@?$vector@PAVIChangeSkinEventListener@@V?$allocator@PAVIChangeSkinEventListener@@@std@@@std@@QBEHABVconst_iterator@12@@Z
_TEXT	SEGMENT PARA USE32 PUBLIC 'CODE'
_TEXT	ENDS
;	COMDAT ??0const_iterator@?$vector@PAVIChangeSkinEventListener@@V?$allocator@PAVIChangeSkinEventListener@@@std@@@std@@QAE@PAPAVIChangeSkinEventListener@@@Z
_TEXT	SEGMENT PARA USE32 PUBLIC 'CODE'
_TEXT	ENDS
;	COMDAT ?max_size@?$vector@V?$basic_string@DU?$char_traits@D@std@@V?$allocator@D@2@@std@@V?$allocator@V?$basic_string@DU?$char_traits@D@std@@V?$allocator@D@2@@std@@@2@@std@@QBEIXZ
_TEXT	SEGMENT PARA USE32 PUBLIC 'CODE'
_TEXT	ENDS
;	COMDAT ?_Destroy@?$vector@V?$basic_string@DU?$char_traits@D@std@@V?$allocator@D@2@@std@@V?$allocator@V?$basic_string@DU?$char_traits@D@std@@V?$allocator@D@2@@std@@@2@@std@@IAEXPAV?$basic_string@DU?$char_traits@D@std@@V?$allocator@D@2@@2@0@Z
_TEXT	SEGMENT PARA USE32 PUBLIC 'CODE'
_TEXT	ENDS
;	COMDAT ?_Xlen@?$vector@V?$basic_string@DU?$char_traits@D@std@@V?$allocator@D@2@@std@@V?$allocator@V?$basic_string@DU?$char_traits@D@std@@V?$allocator@D@2@@std@@@2@@std@@IBEXXZ
_TEXT	SEGMENT PARA USE32 PUBLIC 'CODE'
_TEXT	ENDS
;	COMDAT ??0iterator@?$vector@UOneSubject@@V?$allocator@UOneSubject@@@std@@@std@@QAE@PAUOneSubject@@@Z
_TEXT	SEGMENT PARA USE32 PUBLIC 'CODE'
_TEXT	ENDS
;	COMDAT ??Yiterator@?$vector@UOneSubject@@V?$allocator@UOneSubject@@@std@@@std@@QAEAAV012@H@Z
_TEXT	SEGMENT PARA USE32 PUBLIC 'CODE'
_TEXT	ENDS
;	COMDAT ??Dconst_iterator@?$vector@UOneSubject@@V?$allocator@UOneSubject@@@std@@@std@@QBEABUOneSubject@@XZ
_TEXT	SEGMENT PARA USE32 PUBLIC 'CODE'
_TEXT	ENDS
;	COMDAT ??0length_error@std@@QAE@ABV01@@Z
_TEXT	SEGMENT PARA USE32 PUBLIC 'CODE'
_TEXT	ENDS
;	COMDAT ?max_size@?$allocator@V?$basic_string@DU?$char_traits@D@std@@V?$allocator@D@2@@std@@@std@@QBEIXZ
_TEXT	SEGMENT PARA USE32 PUBLIC 'CODE'
_TEXT	ENDS
;	COMDAT ?max_size@?$allocator@PAVIChangeSkinEventListener@@@std@@QBEIXZ
_TEXT	SEGMENT PARA USE32 PUBLIC 'CODE'
_TEXT	ENDS
;	COMDAT ??Gconst_iterator@?$vector@PAVIChangeSkinEventListener@@V?$allocator@PAVIChangeSkinEventListener@@@std@@@std@@QBEHABV012@@Z
_TEXT	SEGMENT PARA USE32 PUBLIC 'CODE'
_TEXT	ENDS
;	COMDAT ??0const_iterator@?$vector@UOneSubject@@V?$allocator@UOneSubject@@@std@@@std@@QAE@PAUOneSubject@@@Z
_TEXT	SEGMENT PARA USE32 PUBLIC 'CODE'
_TEXT	ENDS
;	COMDAT ?Unlock@?$CComCritSecLock@VCComCriticalSection@ATL@@@ATL@@QAEXXZ
_TEXT	SEGMENT PARA USE32 PUBLIC 'CODE'
_TEXT	ENDS
;	COMDAT ??$copy@PAPAVIChangeSkinEventListener@@PAPAV1@@std@@YAPAPAVIChangeSkinEventListener@@PAPAV1@00@Z
_TEXT	SEGMENT PARA USE32 PUBLIC 'CODE'
_TEXT	ENDS
;	COMDAT ??$_Destroy_range@PAVIChangeSkinEventListener@@V?$allocator@PAVIChangeSkinEventListener@@@std@@@std@@YAXPAPAVIChangeSkinEventListener@@0AAV?$allocator@PAVIChangeSkinEventListener@@@0@@Z
_TEXT	SEGMENT PARA USE32 PUBLIC 'CODE'
_TEXT	ENDS
;	COMDAT ??$_Uninitialized_fill_n@PAPAVIChangeSkinEventListener@@IPAV1@V?$allocator@PAVIChangeSkinEventListener@@@std@@@std@@YAXPAPAVIChangeSkinEventListener@@IABQAV1@AAV?$allocator@PAVIChangeSkinEventListener@@@0@@Z
_TEXT	SEGMENT PARA USE32 PUBLIC 'CODE'
_TEXT	ENDS
;	COMDAT ??$_Maklocstr@D@std@@YAPADPBDPADABU_Cvtvec@@@Z
_TEXT	SEGMENT PARA USE32 PUBLIC 'CODE'
_TEXT	ENDS
;	COMDAT ??$_Allocate@V?$basic_string@DU?$char_traits@D@std@@V?$allocator@D@2@@std@@@std@@YAPAV?$basic_string@DU?$char_traits@D@std@@V?$allocator@D@2@@0@IPAV10@@Z
_TEXT	SEGMENT PARA USE32 PUBLIC 'CODE'
_TEXT	ENDS
;	COMDAT ??$_Ucopy@PAPAVIChangeSkinEventListener@@@?$vector@PAVIChangeSkinEventListener@@V?$allocator@PAVIChangeSkinEventListener@@@std@@@std@@IAEPAPAVIChangeSkinEventListener@@PAPAV2@00@Z
_TEXT	SEGMENT PARA USE32 PUBLIC 'CODE'
_TEXT	ENDS
;	COMDAT ??$fill@PAPAVIChangeSkinEventListener@@PAV1@@std@@YAXPAPAVIChangeSkinEventListener@@0ABQAV1@@Z
_TEXT	SEGMENT PARA USE32 PUBLIC 'CODE'
_TEXT	ENDS
;	COMDAT ??$copy_backward@PAPAVIChangeSkinEventListener@@PAPAV1@@std@@YAPAPAVIChangeSkinEventListener@@PAPAV1@00@Z
_TEXT	SEGMENT PARA USE32 PUBLIC 'CODE'
_TEXT	ENDS
;	COMDAT ??$_Allocate@PAVIChangeSkinEventListener@@@std@@YAPAPAVIChangeSkinEventListener@@IPAPAV1@@Z
_TEXT	SEGMENT PARA USE32 PUBLIC 'CODE'
_TEXT	ENDS
;	COMDAT ??$_Destroy_range@V?$basic_string@DU?$char_traits@D@std@@V?$allocator@D@2@@std@@V?$allocator@V?$basic_string@DU?$char_traits@D@std@@V?$allocator@D@2@@std@@@2@@std@@YAXPAV?$basic_string@DU?$char_traits@D@std@@V?$allocator@D@2@@0@0AAV?$allocator@V?$basic_string@DU?$char_traits@D@std@@V?$allocator@D@2@@std@@@0@@Z
_TEXT	SEGMENT PARA USE32 PUBLIC 'CODE'
_TEXT	ENDS
;	COMDAT ??$_Ptr_cat@VIChangeSkinEventListener@@@std@@YA?AU_Scalar_ptr_iterator_tag@0@PAPAVIChangeSkinEventListener@@0@Z
_TEXT	SEGMENT PARA USE32 PUBLIC 'CODE'
_TEXT	ENDS
;	COMDAT ??$_Copy_opt@PAPAVIChangeSkinEventListener@@PAPAV1@@std@@YAPAPAVIChangeSkinEventListener@@PAPAV1@00U_Scalar_ptr_iterator_tag@0@@Z
_TEXT	SEGMENT PARA USE32 PUBLIC 'CODE'
_TEXT	ENDS
;	COMDAT ??$_Destroy_range@PAVIChangeSkinEventListener@@V?$allocator@PAVIChangeSkinEventListener@@@std@@@std@@YAXPAPAVIChangeSkinEventListener@@0AAV?$allocator@PAVIChangeSkinEventListener@@@0@U_Scalar_ptr_iterator_tag@0@@Z
_TEXT	SEGMENT PARA USE32 PUBLIC 'CODE'
_TEXT	ENDS
;	COMDAT ??$_Uninit_fill_n@PAVIChangeSkinEventListener@@IPAV1@@std@@YAXPAPAVIChangeSkinEventListener@@IABQAV1@AAV?$allocator@PAVIChangeSkinEventListener@@@0@U_Scalar_ptr_iterator_tag@0@@Z
_TEXT	SEGMENT PARA USE32 PUBLIC 'CODE'
_TEXT	ENDS
;	COMDAT ??$_Uninitialized_copy@PAPAVIChangeSkinEventListener@@PAPAV1@V?$allocator@PAVIChangeSkinEventListener@@@std@@@std@@YAPAPAVIChangeSkinEventListener@@PAPAV1@00AAV?$allocator@PAVIChangeSkinEventListener@@@0@@Z
_TEXT	SEGMENT PARA USE32 PUBLIC 'CODE'
_TEXT	ENDS
;	COMDAT ??$_Copy_backward_opt@PAPAVIChangeSkinEventListener@@PAPAV1@@std@@YAPAPAVIChangeSkinEventListener@@PAPAV1@00U_Scalar_ptr_iterator_tag@0@@Z
_TEXT	SEGMENT PARA USE32 PUBLIC 'CODE'
_TEXT	ENDS
;	COMDAT ??$_Ptr_cat@PAV?$basic_string@DU?$char_traits@D@std@@V?$allocator@D@2@@std@@PAV12@@std@@YA?AU_Nonscalar_ptr_iterator_tag@0@AAPAV?$basic_string@DU?$char_traits@D@std@@V?$allocator@D@2@@0@0@Z
_TEXT	SEGMENT PARA USE32 PUBLIC 'CODE'
_TEXT	ENDS
;	COMDAT ??$_Destroy_range@V?$basic_string@DU?$char_traits@D@std@@V?$allocator@D@2@@std@@V?$allocator@V?$basic_string@DU?$char_traits@D@std@@V?$allocator@D@2@@std@@@2@@std@@YAXPAV?$basic_string@DU?$char_traits@D@std@@V?$allocator@D@2@@0@0AAV?$allocator@V?$basic_string@DU?$char_traits@D@std@@V?$allocator@D@2@@std@@@0@U_Nonscalar_ptr_iterator_tag@0@@Z
_TEXT	SEGMENT PARA USE32 PUBLIC 'CODE'
_TEXT	ENDS
;	COMDAT ?destroy@?$allocator@V?$basic_string@DU?$char_traits@D@std@@V?$allocator@D@2@@std@@@std@@QAEXPAV?$basic_string@DU?$char_traits@D@std@@V?$allocator@D@2@@2@@Z
_TEXT	SEGMENT PARA USE32 PUBLIC 'CODE'
_TEXT	ENDS
;	COMDAT ??$fill_n@PAPAVIChangeSkinEventListener@@IPAV1@@std@@YAXPAPAVIChangeSkinEventListener@@IABQAV1@@Z
_TEXT	SEGMENT PARA USE32 PUBLIC 'CODE'
_TEXT	ENDS
;	COMDAT ??$_Uninit_copy@PAVIChangeSkinEventListener@@PAV1@@std@@YAPAPAVIChangeSkinEventListener@@PAPAV1@00AAV?$allocator@PAVIChangeSkinEventListener@@@0@U_Scalar_ptr_iterator_tag@0@@Z
_TEXT	SEGMENT PARA USE32 PUBLIC 'CODE'
_TEXT	ENDS
;	COMDAT ??$_Destroy@V?$basic_string@DU?$char_traits@D@std@@V?$allocator@D@2@@std@@@std@@YAXPAV?$basic_string@DU?$char_traits@D@std@@V?$allocator@D@2@@0@@Z
_TEXT	SEGMENT PARA USE32 PUBLIC 'CODE'
_TEXT	ENDS
;	COMDAT ??_G?$basic_string@DU?$char_traits@D@std@@V?$allocator@D@2@@std@@QAEPAXI@Z
_TEXT	SEGMENT PARA USE32 PUBLIC 'CODE'
_TEXT	ENDS
;	COMDAT ??_ECSkinMgrV1@@W7AEPAXI@Z
_TEXT	SEGMENT PARA USE32 PUBLIC 'CODE'
_TEXT	ENDS
;	COMDAT ??_ECSkinMgrV1@@WM@AEPAXI@Z
_TEXT	SEGMENT PARA USE32 PUBLIC 'CODE'
_TEXT	ENDS
;	COMDAT ??_R3IData@@8
rdata$r	SEGMENT DWORD USE32 PUBLIC 'CONST'
rdata$r	ENDS
;	COMDAT ??_R3P2PObserver@@8
rdata$r	SEGMENT DWORD USE32 PUBLIC 'CONST'
rdata$r	ENDS
;	COMDAT ??_R3DIBINFO@@8
rdata$r	SEGMENT DWORD USE32 PUBLIC 'CONST'
rdata$r	ENDS
;	COMDAT ??_R3CSkinMgrV1@@8
rdata$r	SEGMENT DWORD USE32 PUBLIC 'CONST'
rdata$r	ENDS
;	COMDAT ??_R3HTTPObserver@@8
rdata$r	SEGMENT DWORD USE32 PUBLIC 'CONST'
rdata$r	ENDS
;	COMDAT ??_R3CGdiPlusBitmap@CSkinButton@@8
rdata$r	SEGMENT DWORD USE32 PUBLIC 'CONST'
rdata$r	ENDS
;	COMDAT ??_R3CGdiPlusBitmap@@8
rdata$r	SEGMENT DWORD USE32 PUBLIC 'CONST'
rdata$r	ENDS
;	COMDAT ??_R3IWndEventListener@@8
rdata$r	SEGMENT DWORD USE32 PUBLIC 'CONST'
rdata$r	ENDS
;	COMDAT ??_R3ILayoutChangeObserver@@8
rdata$r	SEGMENT DWORD USE32 PUBLIC 'CONST'
rdata$r	ENDS
;	COMDAT ??_R3IChangeColorMgr@@8
rdata$r	SEGMENT DWORD USE32 PUBLIC 'CONST'
rdata$r	ENDS
;	COMDAT ??_R3IEventListener@@8
rdata$r	SEGMENT DWORD USE32 PUBLIC 'CONST'
rdata$r	ENDS
;	COMDAT ??_R3?$numpunct@_W@std@@8
rdata$r	SEGMENT DWORD USE32 PUBLIC 'CONST'
rdata$r	ENDS
;	COMDAT ??_R3?$numpunct@D@std@@8
rdata$r	SEGMENT DWORD USE32 PUBLIC 'CONST'
rdata$r	ENDS
;	COMDAT ??_R2IData@@8
rdata$r	SEGMENT DWORD USE32 PUBLIC 'CONST'
rdata$r	ENDS
;	COMDAT ??_R2P2PObserver@@8
rdata$r	SEGMENT DWORD USE32 PUBLIC 'CONST'
rdata$r	ENDS
;	COMDAT ??_R2DIBINFO@@8
rdata$r	SEGMENT DWORD USE32 PUBLIC 'CONST'
rdata$r	ENDS
;	COMDAT ??_R2CSkinMgrV1@@8
rdata$r	SEGMENT DWORD USE32 PUBLIC 'CONST'
rdata$r	ENDS
;	COMDAT ??_R2HTTPObserver@@8
rdata$r	SEGMENT DWORD USE32 PUBLIC 'CONST'
rdata$r	ENDS
;	COMDAT ??_R2CGdiPlusBitmap@CSkinButton@@8
rdata$r	SEGMENT DWORD USE32 PUBLIC 'CONST'
rdata$r	ENDS
;	COMDAT ??_R2CGdiPlusBitmap@@8
rdata$r	SEGMENT DWORD USE32 PUBLIC 'CONST'
rdata$r	ENDS
;	COMDAT ??_R2IWndEventListener@@8
rdata$r	SEGMENT DWORD USE32 PUBLIC 'CONST'
rdata$r	ENDS
;	COMDAT ??_R2ILayoutChangeObserver@@8
rdata$r	SEGMENT DWORD USE32 PUBLIC 'CONST'
rdata$r	ENDS
;	COMDAT ??_R2IChangeColorMgr@@8
rdata$r	SEGMENT DWORD USE32 PUBLIC 'CONST'
rdata$r	ENDS
;	COMDAT ??_R2IEventListener@@8
rdata$r	SEGMENT DWORD USE32 PUBLIC 'CONST'
rdata$r	ENDS
;	COMDAT ??_R2?$numpunct@_W@std@@8
rdata$r	SEGMENT DWORD USE32 PUBLIC 'CONST'
rdata$r	ENDS
;	COMDAT ??_R2?$numpunct@D@std@@8
rdata$r	SEGMENT DWORD USE32 PUBLIC 'CONST'
rdata$r	ENDS
;	COMDAT ??_R1A@?0A@A@IData@@8
rdata$r	SEGMENT DWORD USE32 PUBLIC 'CONST'
rdata$r	ENDS
;	COMDAT ??_R1A@?0A@A@P2PObserver@@8
rdata$r	SEGMENT DWORD USE32 PUBLIC 'CONST'
rdata$r	ENDS
;	COMDAT ??_R1A@?0A@A@DIBINFO@@8
rdata$r	SEGMENT DWORD USE32 PUBLIC 'CONST'
rdata$r	ENDS
;	COMDAT ??_R1M@?0A@A@IMessageObserver@@8
rdata$r	SEGMENT DWORD USE32 PUBLIC 'CONST'
rdata$r	ENDS
;	COMDAT ??_R1M@?0A@A@ILayoutChangeObserver@@8
rdata$r	SEGMENT DWORD USE32 PUBLIC 'CONST'
rdata$r	ENDS
;	COMDAT ??_R17?0A@A@P2PObserver@@8
rdata$r	SEGMENT DWORD USE32 PUBLIC 'CONST'
rdata$r	ENDS
;	COMDAT ??_R1A@?0A@A@CSkinMgrV1@@8
rdata$r	SEGMENT DWORD USE32 PUBLIC 'CONST'
rdata$r	ENDS
;	COMDAT ??_R1A@?0A@A@HTTPObserver@@8
rdata$r	SEGMENT DWORD USE32 PUBLIC 'CONST'
rdata$r	ENDS
;	COMDAT ??_R1A@?0A@A@CGdiPlusBitmap@CSkinButton@@8
rdata$r	SEGMENT DWORD USE32 PUBLIC 'CONST'
rdata$r	ENDS
;	COMDAT ??_R1A@?0A@A@CGdiPlusBitmap@@8
rdata$r	SEGMENT DWORD USE32 PUBLIC 'CONST'
rdata$r	ENDS
;	COMDAT ??_R1A@?0A@A@IMessageObserver@@8
rdata$r	SEGMENT DWORD USE32 PUBLIC 'CONST'
rdata$r	ENDS
;	COMDAT ??_R1A@?0A@A@ILayoutChangeObserver@@8
rdata$r	SEGMENT DWORD USE32 PUBLIC 'CONST'
rdata$r	ENDS
;	COMDAT ??_R13?0A@A@IEventListener@@8
rdata$r	SEGMENT DWORD USE32 PUBLIC 'CONST'
rdata$r	ENDS
;	COMDAT ??_R1A@?0A@A@IWndEventListener@@8
rdata$r	SEGMENT DWORD USE32 PUBLIC 'CONST'
rdata$r	ENDS
;	COMDAT ??_R1A@?0A@A@IChangeColorMgr@@8
rdata$r	SEGMENT DWORD USE32 PUBLIC 'CONST'
rdata$r	ENDS
;	COMDAT ??_R1A@?0A@A@IEventListener@@8
rdata$r	SEGMENT DWORD USE32 PUBLIC 'CONST'
rdata$r	ENDS
;	COMDAT ??_R1A@?0A@A@?$numpunct@_W@std@@8
rdata$r	SEGMENT DWORD USE32 PUBLIC 'CONST'
rdata$r	ENDS
;	COMDAT ??_R1A@?0A@A@facet@locale@std@@8
rdata$r	SEGMENT DWORD USE32 PUBLIC 'CONST'
rdata$r	ENDS
;	COMDAT ??_R0?AVfacet@locale@std@@@8
_DATA	SEGMENT DWORD USE32 PUBLIC 'DATA'
_DATA	ENDS
;	COMDAT ??_R1A@?0A@A@?$numpunct@D@std@@8
rdata$r	SEGMENT DWORD USE32 PUBLIC 'CONST'
rdata$r	ENDS
;	COMDAT ??_R0?AVIData@@@8
_DATA	SEGMENT DWORD USE32 PUBLIC 'DATA'
_DATA	ENDS
;	COMDAT ??_R0?AVDIBINFO@@@8
_DATA	SEGMENT DWORD USE32 PUBLIC 'DATA'
_DATA	ENDS
;	COMDAT ??_R0?AVIMessageObserver@@@8
_DATA	SEGMENT DWORD USE32 PUBLIC 'DATA'
_DATA	ENDS
;	COMDAT ??_R0?AVP2PObserver@@@8
_DATA	SEGMENT DWORD USE32 PUBLIC 'DATA'
_DATA	ENDS
;	COMDAT ??_R0?AVCSkinMgrV1@@@8
_DATA	SEGMENT DWORD USE32 PUBLIC 'DATA'
_DATA	ENDS
;	COMDAT ??_R0?AVHTTPObserver@@@8
_DATA	SEGMENT DWORD USE32 PUBLIC 'DATA'
_DATA	ENDS
;	COMDAT ??_R0?AVCGdiPlusBitmap@CSkinButton@@@8
_DATA	SEGMENT DWORD USE32 PUBLIC 'DATA'
_DATA	ENDS
;	COMDAT ??_R0?AVCGdiPlusBitmap@@@8
_DATA	SEGMENT DWORD USE32 PUBLIC 'DATA'
_DATA	ENDS
;	COMDAT ??_R0?AVILayoutChangeObserver@@@8
_DATA	SEGMENT DWORD USE32 PUBLIC 'DATA'
_DATA	ENDS
;	COMDAT ??_R0?AVIWndEventListener@@@8
_DATA	SEGMENT DWORD USE32 PUBLIC 'DATA'
_DATA	ENDS
;	COMDAT ??_R0?AVIChangeColorMgr@@@8
_DATA	SEGMENT DWORD USE32 PUBLIC 'DATA'
_DATA	ENDS
;	COMDAT ??_R0?AVIEventListener@@@8
_DATA	SEGMENT DWORD USE32 PUBLIC 'DATA'
_DATA	ENDS
;	COMDAT ??_R0?AV?$numpunct@_W@std@@@8
_DATA	SEGMENT DWORD USE32 PUBLIC 'DATA'
_DATA	ENDS
;	COMDAT ??_R0?AV?$numpunct@D@std@@@8
_DATA	SEGMENT DWORD USE32 PUBLIC 'DATA'
_DATA	ENDS
;	COMDAT ??_R4IData@@6B@
rdata$r	SEGMENT DWORD USE32 PUBLIC 'CONST'
rdata$r	ENDS
;	COMDAT ??_R4P2PObserver@@6B@
rdata$r	SEGMENT DWORD USE32 PUBLIC 'CONST'
rdata$r	ENDS
;	COMDAT ??_R4DIBINFO@@6B@
rdata$r	SEGMENT DWORD USE32 PUBLIC 'CONST'
rdata$r	ENDS
;	COMDAT ??_R4CSkinMgrV1@@6BILayoutChangeObserver@@@
rdata$r	SEGMENT DWORD USE32 PUBLIC 'CONST'
rdata$r	ENDS
;	COMDAT ??_R4CSkinMgrV1@@6BP2PObserver@@@
rdata$r	SEGMENT DWORD USE32 PUBLIC 'CONST'
rdata$r	ENDS
;	COMDAT ??_R4CSkinMgrV1@@6BIEventListener@@@
rdata$r	SEGMENT DWORD USE32 PUBLIC 'CONST'
rdata$r	ENDS
;	COMDAT ??_R4CSkinMgrV1@@6BIWndEventListener@@@
rdata$r	SEGMENT DWORD USE32 PUBLIC 'CONST'
rdata$r	ENDS
;	COMDAT ??_R4HTTPObserver@@6B@
rdata$r	SEGMENT DWORD USE32 PUBLIC 'CONST'
rdata$r	ENDS
;	COMDAT ??_R4CGdiPlusBitmap@CSkinButton@@6B@
rdata$r	SEGMENT DWORD USE32 PUBLIC 'CONST'
rdata$r	ENDS
;	COMDAT ??_R4CGdiPlusBitmap@@6B@
rdata$r	SEGMENT DWORD USE32 PUBLIC 'CONST'
rdata$r	ENDS
;	COMDAT ??_R4IWndEventListener@@6B@
rdata$r	SEGMENT DWORD USE32 PUBLIC 'CONST'
rdata$r	ENDS
;	COMDAT ??_R4ILayoutChangeObserver@@6B@
rdata$r	SEGMENT DWORD USE32 PUBLIC 'CONST'
rdata$r	ENDS
;	COMDAT ??_R4IChangeColorMgr@@6BIEventListener@@@
rdata$r	SEGMENT DWORD USE32 PUBLIC 'CONST'
rdata$r	ENDS
;	COMDAT ??_R4IChangeColorMgr@@6BIWndEventListener@@@
rdata$r	SEGMENT DWORD USE32 PUBLIC 'CONST'
rdata$r	ENDS
;	COMDAT ??_R4IEventListener@@6B@
rdata$r	SEGMENT DWORD USE32 PUBLIC 'CONST'
rdata$r	ENDS
;	COMDAT ??0?$allocator@_W@std@@QAE@XZ
_TEXT	SEGMENT PARA USE32 PUBLIC 'CODE'
_TEXT	ENDS
;	COMDAT ??_G?$numpunct@_W@std@@MAEPAXI@Z
_TEXT	SEGMENT PARA USE32 PUBLIC 'CODE'
_TEXT	ENDS
;	COMDAT ??_R4?$numpunct@_W@std@@6B@
rdata$r	SEGMENT DWORD USE32 PUBLIC 'CONST'
rdata$r	ENDS
;	COMDAT ??_G?$numpunct@D@std@@MAEPAXI@Z
_TEXT	SEGMENT PARA USE32 PUBLIC 'CODE'
_TEXT	ENDS
;	COMDAT ??_R4?$numpunct@D@std@@6B@
rdata$r	SEGMENT DWORD USE32 PUBLIC 'CONST'
rdata$r	ENDS
;	COMDAT ?_Psave@?$_Facetptr@V?$numpunct@_W@std@@@std@@2PBVfacet@locale@2@B
_DATA	SEGMENT DWORD USE32 PUBLIC 'DATA'
_DATA	ENDS
;	COMDAT ?_Psave@?$_Facetptr@V?$numpunct@D@std@@@std@@2PBVfacet@locale@2@B
_DATA	SEGMENT DWORD USE32 PUBLIC 'DATA'
_DATA	ENDS
;	COMDAT ?Unlock@CComCriticalSection@ATL@@QAEJXZ
_TEXT	SEGMENT PARA USE32 PUBLIC 'CODE'
_TEXT	ENDS
;	COMDAT ?_Psave@?$_Facetptr@V?$ctype@_W@std@@@std@@2PBVfacet@locale@2@B
_DATA	SEGMENT DWORD USE32 PUBLIC 'DATA'
_DATA	ENDS
;	COMDAT ?_Psave@?$_Facetptr@V?$ctype@D@std@@@std@@2PBVfacet@locale@2@B
_DATA	SEGMENT DWORD USE32 PUBLIC 'DATA'
_DATA	ENDS
;	COMDAT ??_7length_error@std@@6B@
CONST	SEGMENT DWORD USE32 PUBLIC 'CONST'
CONST	ENDS
;	COMDAT ??_R4length_error@std@@6B@
rdata$r	SEGMENT DWORD USE32 PUBLIC 'CONST'
rdata$r	ENDS
;	COMDAT ??_R3length_error@std@@8
rdata$r	SEGMENT DWORD USE32 PUBLIC 'CONST'
rdata$r	ENDS
;	COMDAT ??_R2length_error@std@@8
rdata$r	SEGMENT DWORD USE32 PUBLIC 'CONST'
rdata$r	ENDS
;	COMDAT ??_R1A@?0A@A@length_error@std@@8
rdata$r	SEGMENT DWORD USE32 PUBLIC 'CONST'
rdata$r	ENDS
;	COMDAT ??_R1A@?0A@A@logic_error@std@@8
rdata$r	SEGMENT DWORD USE32 PUBLIC 'CONST'
rdata$r	ENDS
;	COMDAT ??_R0?AVlogic_error@std@@@8
_DATA	SEGMENT DWORD USE32 PUBLIC 'DATA'
_DATA	ENDS
;	COMDAT ??_R1A@?0A@A@exception@@8
rdata$r	SEGMENT DWORD USE32 PUBLIC 'CONST'
rdata$r	ENDS
;	COMDAT ??_R0?AVexception@@@8
_DATA	SEGMENT DWORD USE32 PUBLIC 'DATA'
_DATA	ENDS
;	COMDAT ??_Glength_error@std@@UAEPAXI@Z
_TEXT	SEGMENT PARA USE32 PUBLIC 'CODE'
_TEXT	ENDS
;	COMDAT ?what@logic_error@std@@UBEPBDXZ
_TEXT	SEGMENT PARA USE32 PUBLIC 'CODE'
_TEXT	ENDS
;	COMDAT ??1logic_error@std@@UAE@XZ
_TEXT	SEGMENT PARA USE32 PUBLIC 'CODE'
_TEXT	ENDS
;	COMDAT ??_7logic_error@std@@6B@
CONST	SEGMENT DWORD USE32 PUBLIC 'CONST'
CONST	ENDS
;	COMDAT ??_R4logic_error@std@@6B@
rdata$r	SEGMENT DWORD USE32 PUBLIC 'CONST'
rdata$r	ENDS
;	COMDAT ??_R3logic_error@std@@8
rdata$r	SEGMENT DWORD USE32 PUBLIC 'CONST'
rdata$r	ENDS
;	COMDAT ??_R2logic_error@std@@8
rdata$r	SEGMENT DWORD USE32 PUBLIC 'CONST'
rdata$r	ENDS
;	COMDAT ??_Glogic_error@std@@UAEPAXI@Z
_TEXT	SEGMENT PARA USE32 PUBLIC 'CODE'
_TEXT	ENDS
;	COMDAT ??0logic_error@std@@QAE@ABV01@@Z
_TEXT	SEGMENT PARA USE32 PUBLIC 'CODE'
_TEXT	ENDS
;	COMDAT __CTA3?AVlength_error@std@@
xdata$x	SEGMENT DWORD USE32 PUBLIC 'CONST'
xdata$x	ENDS
;	COMDAT ??1length_error@std@@UAE@XZ
_TEXT	SEGMENT PARA USE32 PUBLIC 'CODE'
_TEXT	ENDS
;	COMDAT __CT??_R0?AVexception@@@8??0exception@@QAE@ABV0@@Z12
xdata$x	SEGMENT DWORD USE32 PUBLIC 'CONST'
xdata$x	ENDS
;	COMDAT __CT??_R0?AVlogic_error@std@@@8??0logic_error@std@@QAE@ABV01@@Z40
xdata$x	SEGMENT DWORD USE32 PUBLIC 'CONST'
xdata$x	ENDS
;	COMDAT __CT??_R0?AVlength_error@std@@@8??0length_error@std@@QAE@ABV01@@Z40
xdata$x	SEGMENT DWORD USE32 PUBLIC 'CONST'
xdata$x	ENDS
;	COMDAT ??_R0?AVlength_error@std@@@8
_DATA	SEGMENT DWORD USE32 PUBLIC 'DATA'
_DATA	ENDS
;	COMDAT __TI3?AVlength_error@std@@
xdata$x	SEGMENT DWORD USE32 PUBLIC 'CONST'
xdata$x	ENDS
;	COMDAT ??0length_error@std@@QAE@ABV?$basic_string@DU?$char_traits@D@std@@V?$allocator@D@2@@1@@Z
_TEXT	SEGMENT PARA USE32 PUBLIC 'CODE'
_TEXT	ENDS
;	COMDAT ??0logic_error@std@@QAE@ABV?$basic_string@DU?$char_traits@D@std@@V?$allocator@D@2@@1@@Z
_TEXT	SEGMENT PARA USE32 PUBLIC 'CODE'
_TEXT	ENDS
;	COMDAT ??$_Maklocchr@_W@std@@YA_WDPA_WABU_Cvtvec@@@Z
_TEXT	SEGMENT PARA USE32 PUBLIC 'CODE'
_TEXT	ENDS
;	COMDAT ??$_Maklocstr@_W@std@@YAPA_WPBDPA_WABU_Cvtvec@@@Z
_TEXT	SEGMENT PARA USE32 PUBLIC 'CODE'
_TEXT	ENDS
;	COMDAT ??$_Maklocchr@D@std@@YADDPADABU_Cvtvec@@@Z
_TEXT	SEGMENT PARA USE32 PUBLIC 'CODE'
_TEXT	ENDS
;	COMDAT ??_C@_04LOAJBDKD@true?$AA@
CONST	SEGMENT DWORD USE32 PUBLIC 'CONST'
CONST	ENDS
;	COMDAT ??_C@_05LAPONLG@false?$AA@
CONST	SEGMENT DWORD USE32 PUBLIC 'CONST'
CONST	ENDS
;	COMDAT _wmemcpy
_TEXT	SEGMENT PARA USE32 PUBLIC 'CODE'
_TEXT	ENDS
;	COMDAT ?max_size@?$allocator@_W@std@@QBEIXZ
_TEXT	SEGMENT PARA USE32 PUBLIC 'CODE'
_TEXT	ENDS
;	COMDAT ?allocate@?$allocator@_W@std@@QAEPA_WI@Z
_TEXT	SEGMENT PARA USE32 PUBLIC 'CODE'
_TEXT	ENDS
;	COMDAT ??$_Allocate@_W@std@@YAPA_WIPA_W@Z
_TEXT	SEGMENT PARA USE32 PUBLIC 'CODE'
_TEXT	ENDS
;	COMDAT ?data@CStringData@ATL@@QAEPAXXZ
_TEXT	SEGMENT PARA USE32 PUBLIC 'CODE'
_TEXT	ENDS
;	COMDAT ??_C@_01GFHCPBMG@C?$AA@
CONST	SEGMENT DWORD USE32 PUBLIC 'CONST'
CONST	ENDS
;	COMDAT ?max_size@?$allocator@D@std@@QBEIXZ
_TEXT	SEGMENT PARA USE32 PUBLIC 'CODE'
_TEXT	ENDS
;	COMDAT ?allocate@?$allocator@D@std@@QAEPADI@Z
_TEXT	SEGMENT PARA USE32 PUBLIC 'CODE'
_TEXT	ENDS
;	COMDAT ??$_Allocate@D@std@@YAPADIPAD@Z
_TEXT	SEGMENT PARA USE32 PUBLIC 'CODE'
_TEXT	ENDS
;	COMDAT ?deallocate@?$allocator@D@std@@QAEXPADI@Z
_TEXT	SEGMENT PARA USE32 PUBLIC 'CODE'
_TEXT	ENDS
;	COMDAT ?Format@?$ChTraitsCRT@D@ATL@@SAHPADPBD0@Z
_TEXT	SEGMENT PARA USE32 PUBLIC 'CODE'
_TEXT	ENDS
;	COMDAT ?GetFormattedLength@?$ChTraitsCRT@D@ATL@@SAHPBDPAD@Z
_TEXT	SEGMENT PARA USE32 PUBLIC 'CODE'
_TEXT	ENDS
;	COMDAT ?Release@CStringData@ATL@@QAEXXZ
_TEXT	SEGMENT PARA USE32 PUBLIC 'CODE'
_TEXT	ENDS
;	COMDAT ?_Peek@?$istreambuf_iterator@_WU?$char_traits@_W@std@@@std@@AAE_WXZ
_TEXT	SEGMENT PARA USE32 PUBLIC 'CODE'
_TEXT	ENDS
;	COMDAT ?_Peek@?$istreambuf_iterator@DU?$char_traits@D@std@@@std@@AAEDXZ
_TEXT	SEGMENT PARA USE32 PUBLIC 'CODE'
_TEXT	ENDS
;	COMDAT ??$use_facet@V?$ctype@_W@std@@@std@@YAABV?$ctype@_W@0@ABVlocale@0@@Z
_TEXT	SEGMENT PARA USE32 PUBLIC 'CODE'
_TEXT	ENDS
;	COMDAT ??_S?$ctype@_W@std@@6B@
CONST	SEGMENT DWORD USE32 PUBLIC 'CONST'
CONST	ENDS
;	COMDAT ??_R4?$ctype@_W@std@@6B@
rdata$r	SEGMENT DWORD USE32 PUBLIC 'CONST'
rdata$r	ENDS
;	COMDAT ??_R0?AV?$ctype@_W@std@@@8
_DATA	SEGMENT DWORD USE32 PUBLIC 'DATA'
_DATA	ENDS
;	COMDAT ??_R3?$ctype@_W@std@@8
rdata$r	SEGMENT DWORD USE32 PUBLIC 'CONST'
rdata$r	ENDS
;	COMDAT ??_R2?$ctype@_W@std@@8
rdata$r	SEGMENT DWORD USE32 PUBLIC 'CONST'
rdata$r	ENDS
;	COMDAT ??_R1A@?0A@A@?$ctype@_W@std@@8
rdata$r	SEGMENT DWORD USE32 PUBLIC 'CONST'
rdata$r	ENDS
;	COMDAT ??_R1A@?0A@A@ctype_base@std@@8
rdata$r	SEGMENT DWORD USE32 PUBLIC 'CONST'
rdata$r	ENDS
;	COMDAT ??_R0?AUctype_base@std@@@8
_DATA	SEGMENT DWORD USE32 PUBLIC 'DATA'
_DATA	ENDS
;	COMDAT ??_G?$ctype@_W@std@@MAEPAXI@Z
_TEXT	SEGMENT PARA USE32 PUBLIC 'CODE'
_TEXT	ENDS
;	COMDAT ??_C@_08EPJLHIJG@bad?5cast?$AA@
CONST	SEGMENT DWORD USE32 PUBLIC 'CONST'
CONST	ENDS
;	COMDAT __TI2?AVbad_cast@@
xdata$x	SEGMENT DWORD USE32 PUBLIC 'CONST'
xdata$x	ENDS
;	COMDAT __CTA2?AVbad_cast@@
xdata$x	SEGMENT DWORD USE32 PUBLIC 'CONST'
xdata$x	ENDS
;	COMDAT __CT??_R0?AVbad_cast@@@8??0bad_cast@@QAE@ABV0@@Z12
xdata$x	SEGMENT DWORD USE32 PUBLIC 'CONST'
xdata$x	ENDS
;	COMDAT ??_R0?AVbad_cast@@@8
_DATA	SEGMENT DWORD USE32 PUBLIC 'DATA'
_DATA	ENDS
;	COMDAT ??$use_facet@V?$ctype@D@std@@@std@@YAABV?$ctype@D@0@ABVlocale@0@@Z
_TEXT	SEGMENT PARA USE32 PUBLIC 'CODE'
_TEXT	ENDS
;	COMDAT ??_S?$ctype@D@std@@6B@
CONST	SEGMENT DWORD USE32 PUBLIC 'CONST'
CONST	ENDS
;	COMDAT ??_R4?$ctype@D@std@@6B@
rdata$r	SEGMENT DWORD USE32 PUBLIC 'CONST'
rdata$r	ENDS
;	COMDAT ??_R0?AV?$ctype@D@std@@@8
_DATA	SEGMENT DWORD USE32 PUBLIC 'DATA'
_DATA	ENDS
;	COMDAT ??_R3?$ctype@D@std@@8
rdata$r	SEGMENT DWORD USE32 PUBLIC 'CONST'
rdata$r	ENDS
;	COMDAT ??_R2?$ctype@D@std@@8
rdata$r	SEGMENT DWORD USE32 PUBLIC 'CONST'
rdata$r	ENDS
;	COMDAT ??_R1A@?0A@A@?$ctype@D@std@@8
rdata$r	SEGMENT DWORD USE32 PUBLIC 'CONST'
rdata$r	ENDS
;	COMDAT ??_G?$ctype@D@std@@MAEPAXI@Z
_TEXT	SEGMENT PARA USE32 PUBLIC 'CODE'
_TEXT	ENDS
;	COMDAT ??_S?$numpunct@_W@std@@6B@
CONST	SEGMENT DWORD USE32 PUBLIC 'CONST'
CONST	ENDS
;	COMDAT ??_S?$numpunct@D@std@@6B@
CONST	SEGMENT DWORD USE32 PUBLIC 'CONST'
CONST	ENDS
;	COMDAT _wmemmove
_TEXT	SEGMENT PARA USE32 PUBLIC 'CODE'
_TEXT	ENDS
;	COMDAT ?deallocate@?$allocator@_W@std@@QAEXPA_WI@Z
_TEXT	SEGMENT PARA USE32 PUBLIC 'CODE'
_TEXT	ENDS
;	COMDAT ??0?$allocator@_W@std@@QAE@ABV01@@Z
_TEXT	SEGMENT PARA USE32 PUBLIC 'CODE'
_TEXT	ENDS
;	COMDAT ?AtlThrow@ATL@@YGXJ@Z
_TEXT	SEGMENT PARA USE32 PUBLIC 'CODE'
_TEXT	ENDS
;	COMDAT ?IsShared@CStringData@ATL@@QBE_NXZ
_TEXT	SEGMENT PARA USE32 PUBLIC 'CODE'
_TEXT	ENDS
;	COMDAT ?InvalidateRect@CWnd@@QAEXPBUtagRECT@@H@Z
_TEXT	SEGMENT PARA USE32 PUBLIC 'CODE'
_TEXT	ENDS
;	COMDAT ?GetWindowRect@CWnd@@QBEXPAUtagRECT@@@Z
_TEXT	SEGMENT PARA USE32 PUBLIC 'CODE'
_TEXT	ENDS
;	COMDAT ?UpdateWindow@CWnd@@QAEXXZ
_TEXT	SEGMENT PARA USE32 PUBLIC 'CODE'
_TEXT	ENDS
;	COMDAT ?AfxGetApp@@YGPAVCWinApp@@XZ
_TEXT	SEGMENT PARA USE32 PUBLIC 'CODE'
_TEXT	ENDS
;	COMDAT ?IsWindowVisible@CWnd@@QBEHXZ
_TEXT	SEGMENT PARA USE32 PUBLIC 'CODE'
_TEXT	ENDS
;	COMDAT ??BCRect@@QAEPAUtagRECT@@XZ
_TEXT	SEGMENT PARA USE32 PUBLIC 'CODE'
_TEXT	ENDS
;	COMDAT ?GetSafeHwnd@CWnd@@QBEPAUHWND__@@XZ
_TEXT	SEGMENT PARA USE32 PUBLIC 'CODE'
_TEXT	ENDS
;	COMDAT ?IsLocked@CStringData@ATL@@QBE_NXZ
_TEXT	SEGMENT PARA USE32 PUBLIC 'CODE'
_TEXT	ENDS
;	COMDAT ??0?$allocator@D@std@@QAE@ABV01@@Z
_TEXT	SEGMENT PARA USE32 PUBLIC 'CODE'
_TEXT	ENDS
;	COMDAT ??0?$allocator@D@std@@QAE@XZ
_TEXT	SEGMENT PARA USE32 PUBLIC 'CODE'
_TEXT	ENDS
;	COMDAT ?Invalidate@CWnd@@QAEXH@Z
_TEXT	SEGMENT PARA USE32 PUBLIC 'CODE'
_TEXT	ENDS
;	COMDAT ?SetRect@CRect@@QAEXHHHH@Z
_TEXT	SEGMENT PARA USE32 PUBLIC 'CODE'
_TEXT	ENDS
;	COMDAT ??3CObject@@SGXPAX@Z
_TEXT	SEGMENT PARA USE32 PUBLIC 'CODE'
_TEXT	ENDS
;	COMDAT ??2CObject@@SGPAXI@Z
_TEXT	SEGMENT PARA USE32 PUBLIC 'CODE'
_TEXT	ENDS
;	COMDAT ?MoveWindow@CWnd@@QAEXPBUtagRECT@@H@Z
_TEXT	SEGMENT PARA USE32 PUBLIC 'CODE'
_TEXT	ENDS
;	COMDAT ??0CRect@@QAE@HHHH@Z
_TEXT	SEGMENT PARA USE32 PUBLIC 'CODE'
_TEXT	ENDS
;	COMDAT ?RedrawWindow@CWnd@@QAEHPBUtagRECT@@PAVCRgn@@I@Z
_TEXT	SEGMENT PARA USE32 PUBLIC 'CODE'
_TEXT	ENDS
;	COMDAT ?GetSafeHandle@CGdiObject@@QBEPAXXZ
_TEXT	SEGMENT PARA USE32 PUBLIC 'CODE'
_TEXT	ENDS
;	COMDAT ??0CRect@@QAE@XZ
_TEXT	SEGMENT PARA USE32 PUBLIC 'CODE'
_TEXT	ENDS
;	COMDAT ??_7IMessageObserver@@6B@
CONST	SEGMENT DWORD USE32 PUBLIC 'CONST'
CONST	ENDS
;	COMDAT ??_R4IMessageObserver@@6B@
rdata$r	SEGMENT DWORD USE32 PUBLIC 'CONST'
rdata$r	ENDS
;	COMDAT ??_R3IMessageObserver@@8
rdata$r	SEGMENT DWORD USE32 PUBLIC 'CONST'
rdata$r	ENDS
;	COMDAT ??_R2IMessageObserver@@8
rdata$r	SEGMENT DWORD USE32 PUBLIC 'CONST'
rdata$r	ENDS
;	COMDAT ??_GIMessageObserver@@UAEPAXI@Z
_TEXT	SEGMENT PARA USE32 PUBLIC 'CODE'
_TEXT	ENDS
;	COMDAT ??_7IEventListener@@6B@
CONST	SEGMENT DWORD USE32 PUBLIC 'CONST'
CONST	ENDS
;	COMDAT ??_7IWndEventListener@@6B@
CONST	SEGMENT DWORD USE32 PUBLIC 'CONST'
CONST	ENDS
;	COMDAT ??_7ILayoutChangeObserver@@6B@
CONST	SEGMENT DWORD USE32 PUBLIC 'CONST'
CONST	ENDS
;	COMDAT ??1IMessageObserver@@UAE@XZ
_TEXT	SEGMENT PARA USE32 PUBLIC 'CODE'
_TEXT	ENDS
;	COMDAT ??_7IChangeColorMgr@@6BIEventListener@@@
CONST	SEGMENT DWORD USE32 PUBLIC 'CONST'
CONST	ENDS
;	COMDAT ??_7IChangeColorMgr@@6BIWndEventListener@@@
CONST	SEGMENT DWORD USE32 PUBLIC 'CONST'
CONST	ENDS
;	COMDAT ?GetDefaultManager@?$StrTraitMFC_DLL@DV?$ChTraitsCRT@D@ATL@@@@SAPAUIAtlStringMgr@ATL@@XZ
_TEXT	SEGMENT PARA USE32 PUBLIC 'CODE'
_TEXT	ENDS
;	COMDAT ??_7CSkinMgrV1@@6BILayoutChangeObserver@@@
CONST	SEGMENT DWORD USE32 PUBLIC 'CONST'
CONST	ENDS
;	COMDAT ??_7CSkinMgrV1@@6BP2PObserver@@@
CONST	SEGMENT DWORD USE32 PUBLIC 'CONST'
CONST	ENDS
;	COMDAT ??_7CSkinMgrV1@@6BIEventListener@@@
CONST	SEGMENT DWORD USE32 PUBLIC 'CONST'
CONST	ENDS
;	COMDAT ??_7CSkinMgrV1@@6BIWndEventListener@@@
CONST	SEGMENT DWORD USE32 PUBLIC 'CONST'
CONST	ENDS
;	COMDAT ?clsid@?1??GetClsid@CShockwaveFlash@@QAEABU_GUID@@XZ@4U3@B
CONST	SEGMENT DWORD USE32 PUBLIC 'CONST'
CONST	ENDS
;	COMDAT ??_7P2PObserver@@6B@
CONST	SEGMENT DWORD USE32 PUBLIC 'CONST'
CONST	ENDS
;	COMDAT ??_7HTTPObserver@@6B@
CONST	SEGMENT DWORD USE32 PUBLIC 'CONST'
CONST	ENDS
;	COMDAT ?FindStringResourceInstance@?$StrTraitMFC_DLL@DV?$ChTraitsCRT@D@ATL@@@@SAPAUHINSTANCE__@@I@Z
_TEXT	SEGMENT PARA USE32 PUBLIC 'CODE'
_TEXT	ENDS
;	COMDAT ?AtlGetStringResourceImage@ATL@@YAPBUATLSTRINGRESOURCEIMAGE@1@PAUHINSTANCE__@@I@Z
_TEXT	SEGMENT PARA USE32 PUBLIC 'CODE'
_TEXT	ENDS
;	COMDAT ?_AtlGetStringResourceImage@ATL@@YAPBUATLSTRINGRESOURCEIMAGE@1@PAUHINSTANCE__@@PAUHRSRC__@@I@Z
_TEXT	SEGMENT PARA USE32 PUBLIC 'CODE'
_TEXT	ENDS
;	COMDAT ?GetBaseTypeLength@?$ChTraitsCRT@D@ATL@@SAHPB_WH@Z
_TEXT	SEGMENT PARA USE32 PUBLIC 'CODE'
_TEXT	ENDS
;	COMDAT ?_AtlGetConversionACP@ATL@@YGIXZ
_TEXT	SEGMENT PARA USE32 PUBLIC 'CODE'
_TEXT	ENDS
;	COMDAT ?g_pfnGetThreadACP@ATL@@3P6GIXZA
_DATA	SEGMENT DWORD USE32 PUBLIC 'DATA'
_DATA	ENDS
;	COMDAT ?_AtlGetThreadACPThunk@ATL@@YGIXZ
_TEXT	SEGMENT PARA USE32 PUBLIC 'CODE'
_TEXT	ENDS
;	COMDAT ?_AtlGetThreadACPReal@ATL@@YGIXZ
_TEXT	SEGMENT PARA USE32 PUBLIC 'CODE'
_TEXT	ENDS
;	COMDAT ?_AtlGetThreadACPFake@ATL@@YGIXZ
_TEXT	SEGMENT PARA USE32 PUBLIC 'CODE'
_TEXT	ENDS
;	COMDAT ?InterlockedExchangePointer@@YGPAXPAPAXPAX@Z
_TEXT	SEGMENT PARA USE32 PUBLIC 'CODE'
_TEXT	ENDS
;	COMDAT ?ConvertToBaseType@?$ChTraitsCRT@D@ATL@@SAXPADHPB_WH@Z
_TEXT	SEGMENT PARA USE32 PUBLIC 'CODE'
_TEXT	ENDS
;	COMDAT ?AddRef@CStringData@ATL@@QAEXXZ
_TEXT	SEGMENT PARA USE32 PUBLIC 'CODE'
_TEXT	ENDS
;	COMDAT ??_7CGdiPlusBitmap@CSkinButton@@6B@
CONST	SEGMENT DWORD USE32 PUBLIC 'CONST'
CONST	ENDS
;	COMDAT ??_7IData@@6B@
CONST	SEGMENT DWORD USE32 PUBLIC 'CONST'
CONST	ENDS
;	COMDAT ?GetLastStatus@Image@Gdiplus@@QBE?AW4Status@2@XZ
_TEXT	SEGMENT PARA USE32 PUBLIC 'CODE'
_TEXT	ENDS
;	COMDAT ?FromFile@Bitmap@Gdiplus@@SAPAV12@PB_WH@Z
_TEXT	SEGMENT PARA USE32 PUBLIC 'CODE'
_TEXT	ENDS
;	COMDAT ??2GdiplusBase@Gdiplus@@SAPAXI@Z
_TEXT	SEGMENT PARA USE32 PUBLIC 'CODE'
_TEXT	ENDS
;	COMDAT ??3GdiplusBase@Gdiplus@@SAXPAX@Z
_TEXT	SEGMENT PARA USE32 PUBLIC 'CODE'
_TEXT	ENDS
;	COMDAT ??0Bitmap@Gdiplus@@QAE@PB_WH@Z
_TEXT	SEGMENT PARA USE32 PUBLIC 'CODE'
_TEXT	ENDS
;	COMDAT ??0Image@Gdiplus@@IAE@XZ
_TEXT	SEGMENT PARA USE32 PUBLIC 'CODE'
_TEXT	ENDS
;	COMDAT ??_7Image@Gdiplus@@6B@
CONST	SEGMENT DWORD USE32 PUBLIC 'CONST'
CONST	ENDS
;	COMDAT ??_R4Image@Gdiplus@@6B@
rdata$r	SEGMENT DWORD USE32 PUBLIC 'CONST'
rdata$r	ENDS
;	COMDAT ??_R0?AVImage@Gdiplus@@@8
_DATA	SEGMENT DWORD USE32 PUBLIC 'DATA'
_DATA	ENDS
;	COMDAT ??_R3Image@Gdiplus@@8
rdata$r	SEGMENT DWORD USE32 PUBLIC 'CONST'
rdata$r	ENDS
;	COMDAT ??_R2Image@Gdiplus@@8
rdata$r	SEGMENT DWORD USE32 PUBLIC 'CONST'
rdata$r	ENDS
;	COMDAT ??_R1A@?0A@A@Image@Gdiplus@@8
rdata$r	SEGMENT DWORD USE32 PUBLIC 'CONST'
rdata$r	ENDS
;	COMDAT ??_R13?0A@A@GdiplusBase@Gdiplus@@8
rdata$r	SEGMENT DWORD USE32 PUBLIC 'CONST'
rdata$r	ENDS
;	COMDAT ??_R0?AVGdiplusBase@Gdiplus@@@8
_DATA	SEGMENT DWORD USE32 PUBLIC 'DATA'
_DATA	ENDS
;	COMDAT ??_GImage@Gdiplus@@UAEPAXI@Z
_TEXT	SEGMENT PARA USE32 PUBLIC 'CODE'
_TEXT	ENDS
;	COMDAT ?Clone@Image@Gdiplus@@UAEPAV12@XZ
_TEXT	SEGMENT PARA USE32 PUBLIC 'CODE'
_TEXT	ENDS
;	COMDAT ?SetStatus@Image@Gdiplus@@IBE?AW4Status@2@W432@@Z
_TEXT	SEGMENT PARA USE32 PUBLIC 'CODE'
_TEXT	ENDS
;	COMDAT ??0Image@Gdiplus@@IAE@PAVGpImage@1@W4Status@1@@Z
_TEXT	SEGMENT PARA USE32 PUBLIC 'CODE'
_TEXT	ENDS
;	COMDAT ??1Image@Gdiplus@@UAE@XZ
_TEXT	SEGMENT PARA USE32 PUBLIC 'CODE'
_TEXT	ENDS
;	COMDAT ??_7Bitmap@Gdiplus@@6B@
CONST	SEGMENT DWORD USE32 PUBLIC 'CONST'
CONST	ENDS
;	COMDAT ??_R4Bitmap@Gdiplus@@6B@
rdata$r	SEGMENT DWORD USE32 PUBLIC 'CONST'
rdata$r	ENDS
;	COMDAT ??_R0?AVBitmap@Gdiplus@@@8
_DATA	SEGMENT DWORD USE32 PUBLIC 'DATA'
_DATA	ENDS
;	COMDAT ??_R3Bitmap@Gdiplus@@8
rdata$r	SEGMENT DWORD USE32 PUBLIC 'CONST'
rdata$r	ENDS
;	COMDAT ??_R2Bitmap@Gdiplus@@8
rdata$r	SEGMENT DWORD USE32 PUBLIC 'CONST'
rdata$r	ENDS
;	COMDAT ??_R1A@?0A@A@Bitmap@Gdiplus@@8
rdata$r	SEGMENT DWORD USE32 PUBLIC 'CONST'
rdata$r	ENDS
;	COMDAT ??_GBitmap@Gdiplus@@UAEPAXI@Z
_TEXT	SEGMENT PARA USE32 PUBLIC 'CODE'
_TEXT	ENDS
;	COMDAT ??1Bitmap@Gdiplus@@UAE@XZ
_TEXT	SEGMENT PARA USE32 PUBLIC 'CODE'
_TEXT	ENDS
;	COMDAT ?SetNativeImage@Image@Gdiplus@@IAEXPAVGpImage@2@@Z
_TEXT	SEGMENT PARA USE32 PUBLIC 'CODE'
_TEXT	ENDS
;	COMDAT ??_7CGdiPlusBitmap@@6B@
CONST	SEGMENT DWORD USE32 PUBLIC 'CONST'
CONST	ENDS
;	COMDAT ??_7DIBINFO@@6B@
CONST	SEGMENT DWORD USE32 PUBLIC 'CONST'
CONST	ENDS
sxdata	SEGMENT DWORD USE32 'SXDATA'
sxdata	ENDS
FLAT	GROUP _DATA, CONST, _BSS
	ASSUME	CS: FLAT, DS: FLAT, SS: FLAT
endif

INCLUDELIB MSVCRT
INCLUDELIB OLDNAMES

PUBLIC	?mp_IsHadObject@CSkinMgrV1@@0PAVIChangeColorMgr@@A ; CSkinMgrV1::mp_IsHadObject
PUBLIC	?g_pfnGetThreadACP@ATL@@3P6GIXZA		; ATL::g_pfnGetThreadACP
PUBLIC	?_AtlGetThreadACPThunk@ATL@@YGIXZ		; ATL::_AtlGetThreadACPThunk
_BSS	SEGMENT
?mp_IsHadObject@CSkinMgrV1@@0PAVIChangeColorMgr@@A DD 01H DUP (?) ; CSkinMgrV1::mp_IsHadObject
_BSS	ENDS
CONST	SEGMENT
$SG201889 DB	'int', 00H
CONST	ENDS
_DATA	SEGMENT
_TYPE_CONFIG_INT DD FLAT:$SG201889
_DATA	ENDS
CONST	SEGMENT
$SG201891 DB	'str', 00H
CONST	ENDS
_DATA	SEGMENT
_TYPE_CONFIG_STR DD FLAT:$SG201891
_DATA	ENDS
CONST	SEGMENT
$SG201893 DB	'double', 00H
CONST	ENDS
_DATA	SEGMENT
_TYPE_CONFIG_DOUBLE DD FLAT:$SG201893
_DATA	ENDS
CONST	SEGMENT
	ORG $+1
$SG201895 DB	'bool', 00H
CONST	ENDS
_DATA	SEGMENT
_TYPE_CONFIG_BOOL DD FLAT:$SG201895
_DATA	ENDS
CONST	SEGMENT
	ORG $+3
$SG201897 DB	'sepint', 00H
CONST	ENDS
_DATA	SEGMENT
_TYPE_CONFIG_INT_HASSEP DD FLAT:$SG201897
_DATA	ENDS
CONST	SEGMENT
	ORG $+1
$SG201899 DB	'sepstr', 00H
CONST	ENDS
_DATA	SEGMENT
_TYPE_CONFIG_STR_HASSEP DD FLAT:$SG201899
_DATA	ENDS
CONST	SEGMENT
	ORG $+1
$SG201901 DB	'sepdouble', 00H
CONST	ENDS
_DATA	SEGMENT
_TYPE_CONFIG_DOUBLE_HASSEP DD FLAT:$SG201901
_DATA	ENDS
CONST	SEGMENT
	ORG $+2
$SG201903 DB	'sepbool', 00H
CONST	ENDS
_DATA	SEGMENT
_TYPE_CONFIG_BOOL_HASSEP DD FLAT:$SG201903
_DATA	ENDS
CONST	SEGMENT
$SG201905 DB	'Setting', 00H
CONST	ENDS
_DATA	SEGMENT
_CONF_SETTING_MODULE_NAME DD FLAT:$SG201905
_DATA	ENDS
CONST	SEGMENT
$SG201907 DB	'skin', 00H
CONST	ENDS
_DATA	SEGMENT
_CONF_SETTING_SKIN_IDX DD FLAT:$SG201907
_DATA	ENDS
CONST	SEGMENT
	ORG $+3
$SG201909 DB	'MainPage', 00H
CONST	ENDS
_DATA	SEGMENT
_CONF_SETTING_CONFIG_MAIN_PAGE DD FLAT:$SG201909
_DATA	ENDS
CONST	SEGMENT
	ORG $+3
$SG201911 DB	'ProblemReport', 00H
CONST	ENDS
_DATA	SEGMENT
_CONF_SETTING_CONFIG_PROBLEM_REPORT DD FLAT:$SG201911
_DATA	ENDS
CONST	SEGMENT
	ORG $+2
$SG201913 DB	'HomePage', 00H
CONST	ENDS
_DATA	SEGMENT
_CONF_SETTING_CONFIG_HOME_PAGE DD FLAT:$SG201913
_DATA	ENDS
CONST	SEGMENT
	ORG $+3
$SG201915 DB	'askexit', 00H
CONST	ENDS
_DATA	SEGMENT
_CONF_SETTING_CONFIG_IFASKEXIT DD FLAT:$SG201915
_DATA	ENDS
CONST	SEGMENT
$SG201917 DB	'exitchoice', 00H
CONST	ENDS
_DATA	SEGMENT
_CONF_SETTING_CONFIG_EXITCHOICE DD FLAT:$SG201917
_DATA	ENDS
CONST	SEGMENT
	ORG $+1
$SG201919 DB	'UN', 00H
CONST	ENDS
_DATA	SEGMENT
_CONF_SETTING_LOGIN_USER_NAME DD FLAT:$SG201919
_DATA	ENDS
CONST	SEGMENT
	ORG $+1
$SG201921 DB	'PW', 00H
CONST	ENDS
_DATA	SEGMENT
_CONF_SETTING_LOGIN_PASSWORD DD FLAT:$SG201921
_DATA	ENDS
CONST	SEGMENT
	ORG $+1
$SG201923 DB	'NetID', 00H
CONST	ENDS
_DATA	SEGMENT
_CONF_SETTING_NETID DD FLAT:$SG201923
_DATA	ENDS
CONST	SEGMENT
	ORG $+2
$SG201925 DB	'ChangeColorValue', 00H
CONST	ENDS
_DATA	SEGMENT
_CONF_SETTING_COLOR DD FLAT:$SG201925
_DATA	ENDS
CONST	SEGMENT
	ORG $+3
$SG201927 DB	'changeColorLight', 00H
CONST	ENDS
_DATA	SEGMENT
_CONF_SETTING_LIGHT DD FLAT:$SG201927
_DATA	ENDS
CONST	SEGMENT
	ORG $+3
$SG201929 DB	'ColorIndex', 00H
CONST	ENDS
_DATA	SEGMENT
_CONF_SETTING_COLOR_BTN_INDEX DD FLAT:$SG201929
_DATA	ENDS
CONST	SEGMENT
	ORG $+1
$SG201931 DB	'ColorUser', 00H
CONST	ENDS
_DATA	SEGMENT
_CONF_SETTING_COLOR_USER DD FLAT:$SG201931
_DATA	ENDS
CONST	SEGMENT
	ORG $+2
$SG201933 DB	'FirstTimeChangeSkin', 00H
CONST	ENDS
_DATA	SEGMENT
_CONF_SETTING_FIRST_TIME_CHANGESKIN DD FLAT:$SG201933
_DATA	ENDS
CONST	SEGMENT
$SG202325 DB	0dH, 0aH, 0d7H, 0b4H, 0ccH, 0acH, ': ', 0d0H, 0e8H, 0b5H, 0e3H
	DB	0bbH, 0f7H, 0cfH, 0c2H, 0d4H, 0d8H, 00H
	ORG $+1
$SG202326 DB	0c6H, 0a4H, 0b7H, 0f4H, ': ', 00H
	ORG $+1
$SG202335 DB	0dH, 0aH, 0d7H, 0b4H, 0ccH, 0acH, ': ', 0d2H, 0d1H, 0b1H, 0b8H
	DB	0baH, 0c3H, 00H
	ORG $+1
$SG202336 DB	0c6H, 0a4H, 0b7H, 0f4H, ': ', 00H
	ORG $+1
$SG202642 DB	'%08x,%d', 00H
$SG202646 DB	'CHAGE_COLOR', 00H
$SG202652 DB	00H
	ORG $+3
$SG202659 DB	'\skin\', 00H
	ORG $+1
$SG202662 DB	'\', 00H
	ORG $+2
$SG202665 DB	'\', 00H
	ORG $+2
$SG202670 DB	'\skin.dat', 00H
$SG202679 DB	00H
$SG202682 DB	00H
$SG202689 DB	00H
	ORG $+3
$SG202696 DB	'\skin\', 00H
	ORG $+1
$SG202699 DB	'\', 00H
	ORG $+2
$SG202702 DB	'\', 00H
	ORG $+2
$SG202707 DB	'\skin.dat', 00H
$SG202744 DB	00H
	ORG $+1
$SG202745 DB	0d5H, 0fdH, 0d4H, 0daH, 0cfH, 0c2H, 0d4H, 0d8H, ' "%s" ', 0c6H
	DB	0a4H, 0b7H, 0f4H, 00H
	ORG $+1
$SG202758 DB	'\skin.ini', 00H
	ORG $+2
$SG202759 DB	'author', 00H
	ORG $+1
$SG202760 DB	'skin', 00H
	ORG $+3
$SG202766 DB	0dH, 0aH, 0d7H, 0b4H, 0ccH, 0acH, ': ', 0d2H, 0d1H, 0b1H, 0b8H
	DB	0baH, 0c3H, 00H
	ORG $+1
$SG202767 DB	0dH, 0aH, 0d7H, 0f7H, 0d5H, 0dfH, ': ', 00H
	ORG $+3
$SG202768 DB	0c6H, 0a4H, 0b7H, 0f4H, ': ', 00H
	ORG $+1
$SG202782 DB	'S:DOWN_START', 00H
	ORG $+3
$SG202783 DB	'HANDLE_SKIN', 00H
$SG202790 DB	0c6H, 0a4H, 0b7H, 0f4H, 0cfH, 0c2H, 0d4H, 0d8H, 0cdH, 0eaH
	DB	0b3H, 0c9H, ' %u,%u', 00H
	ORG $+1
$SG202791 DB	'DownStart', 00H
	ORG $+2
$SG202792 DB	'downskin.txt', 00H
	ORG $+3
$SG202799 DB	'S:DOWN_FINISHE', 00H
	ORG $+1
$SG202800 DB	'HANDLE_SKIN', 00H
$SG202803 DB	'\skin\', 00H
$SG203005 DB	00H
$SG203016 DB	0c6H, 0a4H, 0b7H, 0f4H, 0cfH, 0c2H, 0d4H, 0d8H, 0caH, 0a7H
	DB	0b0H, 0dcH, ' %u,%u', 00H
	ORG $+1
$SG203017 DB	'DownStart', 00H
	ORG $+2
$SG203018 DB	'downskin.txt', 00H
	ORG $+3
$SG203025 DB	'S:DOWN_FAILED', 00H
	ORG $+2
$SG203026 DB	'HANDLE_SKIN', 00H
$SG203037 DB	0c6H, 0a4H, 0b7H, 0f4H, 0cfH, 0c2H, 0d4H, 0d8H, 0bdH, 0f8H
	DB	0d0H, 0d0H, 0d6H, 0d0H, ' %u,%u,%u', 00H
$SG203038 DB	'DownStart', 00H
	ORG $+2
$SG203039 DB	'downskin.txt', 00H
	ORG $+3
$SG203048 DB	'Sub:%s', 00H
$SG203049 DB	00H
$SG203050 DB	'%', 00H
	ORG $+2
$SG203053 DB	'ClickSub', 00H
	ORG $+3
$SG203092 DB	'3', 00H
	ORG $+2
$SG203093 DB	'Click-In', 00H
	ORG $+3
$SG203094 DB	'SkinB.txt', 00H
	ORG $+2
$SG203097 DB	0d0H, 0e8H, 0d2H, 0aaH, 0cfH, 0c2H, 0d4H, 0d8H, 0c6H, 0a4H
	DB	0b7H, 0f4H, ' %s', 00H
$SG203098 DB	'DownStart', 00H
	ORG $+2
$SG203099 DB	'downskin.txt', 00H
	ORG $+3
$SG203126 DB	0d2H, 0d1H, 0d3H, 0d0H, 0cfH, 0c2H, 0d4H, 0d8H, 0c8H, 0ceH
	DB	0ceH, 0f1H, 0c1H, 0cbH, 0a3H, 0acH, 0c7H, 0ebH, 0c9H, 0d4H, 0baH
	DB	0f2H, '...', 00H
$SG203131 DB	00H
$SG203143 DB	00H
$SG203145 DB	0d5H, 0fdH, 0d4H, 0daH, 0cfH, 0c2H, 0d4H, 0d8H, ' "%s" ', 0c6H
	DB	0a4H, 0b7H, 0f4H, 00H
	ORG $+1
$SG203147 DB	0d5H, 0fdH, 0d4H, 0daH, 0cfH, 0c2H, 0d4H, 0d8H, 0c6H, 0a4H
	DB	0b7H, 0f4H, 00H
	ORG $+3
$SG203156 DB	'9', 00H
	ORG $+2
$SG203157 DB	'Click-In', 00H
	ORG $+3
$SG203158 DB	'SkinB.txt', 00H
$SG203165 DB	00H
	ORG $+1
$SG203167 DB	0c6H, 0a4H, 0b7H, 0f4H, ':  %s', 0dH, 0aH, 0d7H, 0b4H, 0ccH
	DB	0acH, ': ', 0d2H, 0d1H, 0b1H, 0b8H, 0baH, 0c3H, 00H
$SG203169 DB	0d7H, 0b4H, 0ccH, 0acH, ': ', 0d2H, 0d1H, 0b1H, 0b8H, 0baH
	DB	0c3H, 00H
	ORG $+3
$SG203176 DB	'10', 00H
	ORG $+1
$SG203177 DB	'Click-In', 00H
	ORG $+3
$SG203178 DB	'SkinB.txt', 00H
$SG203180 DB	00H
	ORG $+1
$SG203183 DB	'11', 00H
	ORG $+1
$SG203184 DB	'Click-In', 00H
	ORG $+3
$SG203185 DB	'SkinB.txt', 00H
	ORG $+2
$SG203190 DB	0d4H, 0ddH, 0caH, 0b1H, 0ceH, 0deH, 0b7H, 0a8H, 0cfH, 0c2H
	DB	0d4H, 0d8H, 0b8H, 0c3H, 0c6H, 0a4H, 0b7H, 0f4H, 0a3H, 0acH, 0c7H
	DB	0ebH, 0c9H, 0d4H, 0baH, 0f2H, 0d4H, 0d9H, 0caH, 0d4H, 00H
	ORG $+1
$SG203192 DB	0c8H, 0b7H, 0b6H, 0a8H, 00H
	ORG $+3
$SG203200 DB	'9', 00H
	ORG $+2
$SG203201 DB	'Click-In', 00H
	ORG $+3
$SG203202 DB	'SkinB.txt', 00H
	ORG $+2
$SG203217 DB	0c6H, 0a4H, 0b7H, 0f4H, 0d2H, 0d1H, 0b1H, 0a3H, 0b4H, 0e6H
	DB	0b5H, 0bdH, 0a1H, 0b0H, 0ceH, 0d2H, 0b5H, 0c4H, 0c6H, 0a4H, 0b7H
	DB	0f4H, 0a1H, 0b1H, 00H
$SG203219 DB	00H
	ORG $+2
$SG203221 DB	0c6H, 0a4H, 0b7H, 0f4H, ':  %s', 0dH, 0aH, 0d7H, 0b4H, 0ccH
	DB	0acH, ': ', 0d2H, 0d1H, 0b1H, 0b8H, 0baH, 0c3H, 00H
$SG203223 DB	0d7H, 0b4H, 0ccH, 0acH, ': ', 0d2H, 0d1H, 0b1H, 0b8H, 0baH
	DB	0c3H, 00H
	ORG $+3
$SG203230 DB	'10', 00H
	ORG $+1
$SG203231 DB	'Click-In', 00H
	ORG $+3
$SG203232 DB	'SkinB.txt', 00H
$SG203234 DB	00H
	ORG $+1
$SG203237 DB	'11', 00H
	ORG $+1
$SG203238 DB	'Click-In', 00H
	ORG $+3
$SG203239 DB	'SkinB.txt', 00H
	ORG $+2
$SG203244 DB	0d4H, 0ddH, 0caH, 0b1H, 0ceH, 0deH, 0b7H, 0a8H, 0cfH, 0c2H
	DB	0d4H, 0d8H, 0b8H, 0c3H, 0c6H, 0a4H, 0b7H, 0f4H, 0a3H, 0acH, 0c7H
	DB	0ebH, 0c9H, 0d4H, 0baH, 0f2H, 0d4H, 0d9H, 0caH, 0d4H, 00H
	ORG $+1
$SG203246 DB	0c8H, 0b7H, 0b6H, 0a8H, 00H
CONST	ENDS
;	COMDAT ?g_pfnGetThreadACP@ATL@@3P6GIXZA
_DATA	SEGMENT
?g_pfnGetThreadACP@ATL@@3P6GIXZA DD FLAT:?_AtlGetThreadACPThunk@ATL@@YGIXZ ; ATL::g_pfnGetThreadACP
_DATA	ENDS
CONST	SEGMENT
	ORG $+3
_ID_MESSAGE_LAYOUTMGR DD 08H
CONST	ENDS
PUBLIC	?InterlockedExchangePointer@@YGPAXPAPAXPAX@Z	; InterlockedExchangePointer
PUBLIC	?_AtlGetThreadACPFake@ATL@@YGIXZ		; ATL::_AtlGetThreadACPFake
PUBLIC	?_AtlGetThreadACPReal@ATL@@YGIXZ		; ATL::_AtlGetThreadACPReal
EXTRN	___security_cookie:DWORD
EXTRN	@__security_check_cookie@4:NEAR
EXTRN	__imp__GetVersionExA@4:NEAR
; Function compile flags: /Odt
; File d:\program files (x86)\microsoft visual studio .net 2003\vc7\atlmfc\include\atlconv.h
;	COMDAT ?_AtlGetThreadACPThunk@ATL@@YGIXZ
_TEXT	SEGMENT
_pfnGetThreadACP$ = -164				; size = 4
_ver$ = -160						; size = 148
__$ArrayPad$ = -4					; size = 4
__$ReturnAddr$ = 4					; size = 4
?_AtlGetThreadACPThunk@ATL@@YGIXZ PROC NEAR		; ATL::_AtlGetThreadACPThunk, COMDAT

; 134  : {

  00000	55		 push	 ebp
  00001	8b ec		 mov	 ebp, esp
  00003	81 ec a4 00 00
	00		 sub	 esp, 164		; 000000a4H
  00009	a1 00 00 00 00	 mov	 eax, DWORD PTR ___security_cookie
  0000e	89 45 fc	 mov	 DWORD PTR __$ArrayPad$[ebp], eax

; 135  : 	OSVERSIONINFO ver;
; 136  : 	ATLGETTHREADACP pfnGetThreadACP;
; 137  : 
; 138  : 	ver.dwOSVersionInfoSize = sizeof( ver );

  00011	c7 85 60 ff ff
	ff 94 00 00 00	 mov	 DWORD PTR _ver$[ebp], 148 ; 00000094H

; 139  : 	::GetVersionEx( &ver );

  0001b	8d 85 60 ff ff
	ff		 lea	 eax, DWORD PTR _ver$[ebp]
  00021	50		 push	 eax
  00022	ff 15 00 00 00
	00		 call	 DWORD PTR __imp__GetVersionExA@4

; 140  : 	if( (ver.dwPlatformId == VER_PLATFORM_WIN32_NT) && (ver.dwMajorVersion >= 5) )

  00028	83 bd 70 ff ff
	ff 02		 cmp	 DWORD PTR _ver$[ebp+16], 2
  0002f	75 15		 jne	 SHORT $L24173
  00031	83 bd 64 ff ff
	ff 05		 cmp	 DWORD PTR _ver$[ebp+4], 5
  00038	72 0c		 jb	 SHORT $L24173

; 141  : 	{
; 142  : 		// On Win2K, CP_THREAD_ACP is supported
; 143  : 		pfnGetThreadACP = _AtlGetThreadACPReal;

  0003a	c7 85 5c ff ff
	ff 00 00 00 00	 mov	 DWORD PTR _pfnGetThreadACP$[ebp], OFFSET FLAT:?_AtlGetThreadACPReal@ATL@@YGIXZ ; ATL::_AtlGetThreadACPReal

; 144  : 	}
; 145  : 	else

  00044	eb 0a		 jmp	 SHORT $L24174
$L24173:

; 146  : 	{
; 147  : 		pfnGetThreadACP = _AtlGetThreadACPFake;

  00046	c7 85 5c ff ff
	ff 00 00 00 00	 mov	 DWORD PTR _pfnGetThreadACP$[ebp], OFFSET FLAT:?_AtlGetThreadACPFake@ATL@@YGIXZ ; ATL::_AtlGetThreadACPFake
$L24174:

; 148  : 	}
; 149  : 	InterlockedExchangePointer( reinterpret_cast< void** >(&g_pfnGetThreadACP), pfnGetThreadACP );

  00050	8b 8d 5c ff ff
	ff		 mov	 ecx, DWORD PTR _pfnGetThreadACP$[ebp]
  00056	51		 push	 ecx
  00057	68 00 00 00 00	 push	 OFFSET FLAT:?g_pfnGetThreadACP@ATL@@3P6GIXZA ; ATL::g_pfnGetThreadACP
  0005c	e8 00 00 00 00	 call	 ?InterlockedExchangePointer@@YGPAXPAPAXPAX@Z ; InterlockedExchangePointer

; 150  : 
; 151  : 	return( g_pfnGetThreadACP() );

  00061	ff 15 00 00 00
	00		 call	 DWORD PTR ?g_pfnGetThreadACP@ATL@@3P6GIXZA ; ATL::g_pfnGetThreadACP

; 152  : }

  00067	8b 4d fc	 mov	 ecx, DWORD PTR __$ArrayPad$[ebp]
  0006a	e8 00 00 00 00	 call	 @__security_check_cookie@4
  0006f	8b e5		 mov	 esp, ebp
  00071	5d		 pop	 ebp
  00072	c3		 ret	 0
?_AtlGetThreadACPThunk@ATL@@YGIXZ ENDP			; ATL::_AtlGetThreadACPThunk
_TEXT	ENDS
EXTRN	__imp__InterlockedExchange@8:NEAR
; Function compile flags: /Odt
;	COMDAT ?InterlockedExchangePointer@@YGPAXPAPAXPAX@Z
_TEXT	SEGMENT
_pp$ = 8						; size = 4
_pNew$ = 12						; size = 4
?InterlockedExchangePointer@@YGPAXPAPAXPAX@Z PROC NEAR	; InterlockedExchangePointer, COMDAT

; 91   : {

  00000	55		 push	 ebp
  00001	8b ec		 mov	 ebp, esp

; 92   : 	return( reinterpret_cast<void*>(static_cast<LONG_PTR>(::InterlockedExchange(reinterpret_cast<LONG*>(pp), static_cast<LONG>(reinterpret_cast<LONG_PTR>(pNew))))) );

  00003	8b 45 0c	 mov	 eax, DWORD PTR _pNew$[ebp]
  00006	50		 push	 eax
  00007	8b 4d 08	 mov	 ecx, DWORD PTR _pp$[ebp]
  0000a	51		 push	 ecx
  0000b	ff 15 00 00 00
	00		 call	 DWORD PTR __imp__InterlockedExchange@8

; 93   : }

  00011	5d		 pop	 ebp
  00012	c2 08 00	 ret	 8
?InterlockedExchangePointer@@YGPAXPAPAXPAX@Z ENDP	; InterlockedExchangePointer
_TEXT	ENDS
EXTRN	__imp__GetACP@0:NEAR
EXTRN	__imp__GetLocaleInfoA@16:NEAR
EXTRN	__imp__GetThreadLocale@0:NEAR
; Function compile flags: /Odt
;	COMDAT ?_AtlGetThreadACPFake@ATL@@YGIXZ
_TEXT	SEGMENT
_pch$24161 = -24					; size = 4
_lcidThread$ = -20					; size = 4
_szACP$ = -16						; size = 7
__$ArrayPad$ = -8					; size = 4
_nACP$ = -4						; size = 4
__$ReturnAddr$ = 4					; size = 4
?_AtlGetThreadACPFake@ATL@@YGIXZ PROC NEAR		; ATL::_AtlGetThreadACPFake, COMDAT

; 101  : {

  00000	55		 push	 ebp
  00001	8b ec		 mov	 ebp, esp
  00003	83 ec 18	 sub	 esp, 24			; 00000018H
  00006	a1 00 00 00 00	 mov	 eax, DWORD PTR ___security_cookie
  0000b	89 45 f8	 mov	 DWORD PTR __$ArrayPad$[ebp], eax

; 102  : 	UINT nACP = 0;

  0000e	c7 45 fc 00 00
	00 00		 mov	 DWORD PTR _nACP$[ebp], 0

; 103  : 
; 104  : 	LCID lcidThread = ::GetThreadLocale();

  00015	ff 15 00 00 00
	00		 call	 DWORD PTR __imp__GetThreadLocale@0
  0001b	89 45 ec	 mov	 DWORD PTR _lcidThread$[ebp], eax

; 105  : 
; 106  : 	char szACP[7];
; 107  : 	// GetLocaleInfoA will fail for a Unicode-only LCID, but those are only supported on 
; 108  : 	// Windows 2000.  Since Windows 2000 supports CP_THREAD_ACP, this code path is never
; 109  : 	// executed on Windows 2000.
; 110  : 	if (::GetLocaleInfoA(lcidThread, LOCALE_IDEFAULTANSICODEPAGE, szACP, 7) != 0)

  0001e	6a 07		 push	 7
  00020	8d 45 f0	 lea	 eax, DWORD PTR _szACP$[ebp]
  00023	50		 push	 eax
  00024	68 04 10 00 00	 push	 4100			; 00001004H
  00029	8b 4d ec	 mov	 ecx, DWORD PTR _lcidThread$[ebp]
  0002c	51		 push	 ecx
  0002d	ff 15 00 00 00
	00		 call	 DWORD PTR __imp__GetLocaleInfoA@16
  00033	85 c0		 test	 eax, eax
  00035	74 34		 je	 SHORT $L24160

; 111  : 	{
; 112  : 		char* pch = szACP;

  00037	8d 55 f0	 lea	 edx, DWORD PTR _szACP$[ebp]
  0003a	89 55 e8	 mov	 DWORD PTR _pch$24161[ebp], edx
$L24163:

; 113  : 		while (*pch != '\0')

  0003d	8b 45 e8	 mov	 eax, DWORD PTR _pch$24161[ebp]
  00040	0f be 08	 movsx	 ecx, BYTE PTR [eax]
  00043	85 c9		 test	 ecx, ecx
  00045	74 24		 je	 SHORT $L24160

; 114  : 		{
; 115  : 			nACP *= 10;

  00047	8b 55 fc	 mov	 edx, DWORD PTR _nACP$[ebp]
  0004a	6b d2 0a	 imul	 edx, 10			; 0000000aH
  0004d	89 55 fc	 mov	 DWORD PTR _nACP$[ebp], edx

; 116  : 			nACP += *pch++ - '0';

  00050	8b 45 e8	 mov	 eax, DWORD PTR _pch$24161[ebp]
  00053	0f be 08	 movsx	 ecx, BYTE PTR [eax]
  00056	8b 55 fc	 mov	 edx, DWORD PTR _nACP$[ebp]
  00059	8d 44 0a d0	 lea	 eax, DWORD PTR [edx+ecx-48]
  0005d	89 45 fc	 mov	 DWORD PTR _nACP$[ebp], eax
  00060	8b 4d e8	 mov	 ecx, DWORD PTR _pch$24161[ebp]
  00063	83 c1 01	 add	 ecx, 1
  00066	89 4d e8	 mov	 DWORD PTR _pch$24161[ebp], ecx

; 117  : 		}

  00069	eb d2		 jmp	 SHORT $L24163
$L24160:

; 118  : 	}
; 119  : 	// Use the Default ANSI Code Page if we were unable to get the thread ACP or if one does not exist.
; 120  : 	if (nACP == 0)

  0006b	83 7d fc 00	 cmp	 DWORD PTR _nACP$[ebp], 0
  0006f	75 09		 jne	 SHORT $L24165

; 121  : 		nACP = ::GetACP();

  00071	ff 15 00 00 00
	00		 call	 DWORD PTR __imp__GetACP@0
  00077	89 45 fc	 mov	 DWORD PTR _nACP$[ebp], eax
$L24165:

; 122  : 
; 123  : 	return nACP;

  0007a	8b 45 fc	 mov	 eax, DWORD PTR _nACP$[ebp]

; 124  : }

  0007d	8b 4d f8	 mov	 ecx, DWORD PTR __$ArrayPad$[ebp]
  00080	e8 00 00 00 00	 call	 @__security_check_cookie@4
  00085	8b e5		 mov	 esp, ebp
  00087	5d		 pop	 ebp
  00088	c3		 ret	 0
?_AtlGetThreadACPFake@ATL@@YGIXZ ENDP			; ATL::_AtlGetThreadACPFake
; Function compile flags: /Odt
_TEXT	ENDS
;	COMDAT ?_AtlGetThreadACPReal@ATL@@YGIXZ
_TEXT	SEGMENT
?_AtlGetThreadACPReal@ATL@@YGIXZ PROC NEAR		; ATL::_AtlGetThreadACPReal, COMDAT

; 127  : {

  00000	55		 push	 ebp
  00001	8b ec		 mov	 ebp, esp

; 128  : 	return( CP_THREAD_ACP );

  00003	b8 03 00 00 00	 mov	 eax, 3

; 129  : }

  00008	5d		 pop	 ebp
  00009	c3		 ret	 0
?_AtlGetThreadACPReal@ATL@@YGIXZ ENDP			; ATL::_AtlGetThreadACPReal
_TEXT	ENDS
PUBLIC	?GetSkinWnd@CSkinMgrV1@@UAEPAVCWnd@@XZ		; CSkinMgrV1::GetSkinWnd
PUBLIC	??0CSkinMgrV1@@QAE@XZ				; CSkinMgrV1::CSkinMgrV1
PUBLIC	?CloseSkinWnd@CSkinMgrV1@@UAE_NXZ		; CSkinMgrV1::CloseSkinWnd
PUBLIC	?PopSkinWnd@CSkinMgrV1@@UAEHPAVCWnd@@IUtagPOINT@@@Z ; CSkinMgrV1::PopSkinWnd
PUBLIC	?InsertSmallSkin@CSkinMgrV1@@UAE_NV?$basic_string@DU?$char_traits@D@std@@V?$allocator@D@2@@std@@PAVCBitmap@@0_N@Z ; CSkinMgrV1::InsertSmallSkin
PUBLIC	?InsertSmallSubjectSkin@CSkinMgrV1@@UAE_NV?$basic_string@DU?$char_traits@D@std@@V?$allocator@D@2@@std@@PAVCBitmap@@0_N@Z ; CSkinMgrV1::InsertSmallSubjectSkin
PUBLIC	?SetTipText@CSkinMgrV1@@UAEXV?$CStringT@DV?$StrTraitMFC_DLL@DV?$ChTraitsCRT@D@ATL@@@@@ATL@@0@Z ; CSkinMgrV1::SetTipText
PUBLIC	?ChangeBmp@CSkinMgrV1@@UAEPAVDIBINFO@@V2@IK@Z	; CSkinMgrV1::ChangeBmp
PUBLIC	?ChangeColor@CSkinMgrV1@@UAEXAAK@Z		; CSkinMgrV1::ChangeColor
PUBLIC	?SetListener@CSkinMgrV1@@UAEXPAVIChangeSkinEventListener@@@Z ; CSkinMgrV1::SetListener
PUBLIC	?RemoveListener@CSkinMgrV1@@UAEXPAVIChangeSkinEventListener@@@Z ; CSkinMgrV1::RemoveListener
PUBLIC	?OnClose@CSkinMgrV1@@UAEXXZ			; CSkinMgrV1::OnClose
PUBLIC	?SetSelectedColor@CSkinMgrV1@@UAEXK@Z		; CSkinMgrV1::SetSelectedColor
PUBLIC	?BeforeChangeColor@CSkinMgrV1@@UAEXXZ		; CSkinMgrV1::BeforeChangeColor
PUBLIC	?AfterChangeColor@CSkinMgrV1@@UAEXXZ		; CSkinMgrV1::AfterChangeColor
PUBLIC	?SetTopMost@CSkinMgrV1@@UAEX_N@Z		; CSkinMgrV1::SetTopMost
PUBLIC	?DeleteObject@CSkinMgrV1@@UAEXXZ		; CSkinMgrV1::DeleteObject
PUBLIC	?DownloadStart@CSkinMgrV1@@UAEXXZ		; CSkinMgrV1::DownloadStart
PUBLIC	?SetDownloadPercentage@CSkinMgrV1@@UAEXHV?$CStringT@DV?$StrTraitMFC_DLL@DV?$ChTraitsCRT@D@ATL@@@@@ATL@@@Z ; CSkinMgrV1::SetDownloadPercentage
PUBLIC	?DownloadFinish@CSkinMgrV1@@UAEXV?$CStringT@DV?$StrTraitMFC_DLL@DV?$ChTraitsCRT@D@ATL@@@@@ATL@@@Z ; CSkinMgrV1::DownloadFinish
PUBLIC	?NotifyChangeSubject@CSkinMgrV1@@UAEXABV?$CStringT@DV?$StrTraitMFC_DLL@DV?$ChTraitsCRT@D@ATL@@@@@ATL@@@Z ; CSkinMgrV1::NotifyChangeSubject
PUBLIC	?OnTabSelChange@CSkinMgrV1@@UAEXI@Z		; CSkinMgrV1::OnTabSelChange
PUBLIC	?ClickSub@CSkinMgrV1@@UAEXABV?$CStringT@DV?$StrTraitMFC_DLL@DV?$ChTraitsCRT@D@ATL@@@@@ATL@@@Z ; CSkinMgrV1::ClickSub
PUBLIC	?DownloadWebSub@CSkinMgrV1@@UAEXABV?$CStringT@DV?$StrTraitMFC_DLL@DV?$ChTraitsCRT@D@ATL@@@@@ATL@@0@Z ; CSkinMgrV1::DownloadWebSub
PUBLIC	?ILayoutChangeOb_SkinChanged@CSkinMgrV1@@UAEXV?$basic_string@DU?$char_traits@D@std@@V?$allocator@D@2@@std@@0@Z ; CSkinMgrV1::ILayoutChangeOb_SkinChanged
PUBLIC	?OnSendChangeColor@CSkinMgrV1@@UAEXKI_N@Z	; CSkinMgrV1::OnSendChangeColor
PUBLIC	?OnSendChangeSkin@CSkinMgrV1@@UAEXV?$CStringT@DV?$StrTraitMFC_DLL@DV?$ChTraitsCRT@D@ATL@@@@@ATL@@@Z ; CSkinMgrV1::OnSendChangeSkin
PUBLIC	?OnSendChangeSubject@CSkinMgrV1@@UAEXV?$CStringT@DV?$StrTraitMFC_DLL@DV?$ChTraitsCRT@D@ATL@@@@@ATL@@0@Z ; CSkinMgrV1::OnSendChangeSubject
PUBLIC	?OnChangeSkinAndSub@CSkinMgrV1@@UAEXABV?$CStringT@DV?$StrTraitMFC_DLL@DV?$ChTraitsCRT@D@ATL@@@@@ATL@@0@Z ; CSkinMgrV1::OnChangeSkinAndSub
PUBLIC	?OnStartDownSubject@CSkinMgrV1@@UAEXABV?$CStringT@DV?$StrTraitMFC_DLL@DV?$ChTraitsCRT@D@ATL@@@@@ATL@@@Z ; CSkinMgrV1::OnStartDownSubject
PUBLIC	?OnFinishDownSubject@CSkinMgrV1@@UAEXH@Z	; CSkinMgrV1::OnFinishDownSubject
PUBLIC	??_7CSkinMgrV1@@6BIWndEventListener@@@		; CSkinMgrV1::`vftable'
PUBLIC	??_7CSkinMgrV1@@6BIEventListener@@@		; CSkinMgrV1::`vftable'
PUBLIC	??_7CSkinMgrV1@@6BP2PObserver@@@		; CSkinMgrV1::`vftable'
PUBLIC	??_7CSkinMgrV1@@6BILayoutChangeObserver@@@	; CSkinMgrV1::`vftable'
PUBLIC	??1P2PObserver@@UAE@XZ				; P2PObserver::~P2PObserver
PUBLIC	?P2POb_DownStart@P2PObserver@@UAEXABV?$basic_string@DU?$char_traits@D@std@@V?$allocator@D@2@@std@@PBDI@Z ; P2PObserver::P2POb_DownStart
PUBLIC	?P2POb_DownFinish@P2PObserver@@UAEXABV?$basic_string@DU?$char_traits@D@std@@V?$allocator@D@2@@std@@@Z ; P2PObserver::P2POb_DownFinish
PUBLIC	?P2POb_DownFailed@P2PObserver@@UAEXABV?$basic_string@DU?$char_traits@D@std@@V?$allocator@D@2@@std@@W4P2P_DOWN_FAILED_REASON@@@Z ; P2PObserver::P2POb_DownFailed
PUBLIC	?P2POb_DownProgress@P2PObserver@@UAEXABV?$basic_string@DU?$char_traits@D@std@@V?$allocator@D@2@@std@@III@Z ; P2PObserver::P2POb_DownProgress
PUBLIC	?P2POb_DownPause@P2PObserver@@UAEXABV?$basic_string@DU?$char_traits@D@std@@V?$allocator@D@2@@std@@@Z ; P2PObserver::P2POb_DownPause
PUBLIC	?P2POb_SigChange@P2PObserver@@UAEXABV?$basic_string@DU?$char_traits@D@std@@V?$allocator@D@2@@std@@0PBD@Z ; P2PObserver::P2POb_SigChange
PUBLIC	??0P2PObserver@@QAE@XZ				; P2PObserver::P2PObserver
PUBLIC	??_R0?AVIMessageObserver@@@8			; IMessageObserver `RTTI Type Descriptor'
PUBLIC	?OnCliekButton@IEventListener@@UAEXPAVCButton@@@Z ; IEventListener::OnCliekButton
PUBLIC	?OnCliekSlide@IEventListener@@UAEXPAVCSliderCtrl@@@Z ; IEventListener::OnCliekSlide
PUBLIC	?ILayoutChangeOb_LayerChanged@ILayoutChangeObserver@@UAEXV?$basic_string@DU?$char_traits@D@std@@V?$allocator@D@2@@std@@00@Z ; ILayoutChangeObserver::ILayoutChangeOb_LayerChanged
PUBLIC	?ILayoutChangeOb_PaneChanged@ILayoutChangeObserver@@UAEXV?$basic_string@DU?$char_traits@D@std@@V?$allocator@D@2@@std@@0@Z ; ILayoutChangeObserver::ILayoutChangeOb_PaneChanged
PUBLIC	?ILayoutChangeOb_ColorChanged@ILayoutChangeObserver@@UAEXXZ ; ILayoutChangeObserver::ILayoutChangeOb_ColorChanged
PUBLIC	?ILayoutChangeOb_ColorChanging@ILayoutChangeObserver@@UAEXXZ ; ILayoutChangeObserver::ILayoutChangeOb_ColorChanging
PUBLIC	?ILayoutChangeOb_UpdateLayout@ILayoutChangeObserver@@UAEXPAUHWND__@@@Z ; ILayoutChangeObserver::ILayoutChangeOb_UpdateLayout
PUBLIC	?ILayoutChangeOb_InitFinished@ILayoutChangeObserver@@UAEXXZ ; ILayoutChangeObserver::ILayoutChangeOb_InitFinished
PUBLIC	?ILayoutChangeOb_InitBegin@ILayoutChangeObserver@@UAEXXZ ; ILayoutChangeObserver::ILayoutChangeOb_InitBegin
PUBLIC	??0ILayoutChangeObserver@@QAE@XZ		; ILayoutChangeObserver::ILayoutChangeObserver
PUBLIC	??1ILayoutChangeObserver@@UAE@XZ		; ILayoutChangeObserver::~ILayoutChangeObserver
PUBLIC	??_R0?AVIEventListener@@@8			; IEventListener `RTTI Type Descriptor'
PUBLIC	??_R0?AVIChangeColorMgr@@@8			; IChangeColorMgr `RTTI Type Descriptor'
PUBLIC	??_R1A@?0A@A@IChangeColorMgr@@8			; IChangeColorMgr::`RTTI Base Class Descriptor at (0,-1,0,0)'
PUBLIC	??_R1A@?0A@A@IWndEventListener@@8		; IWndEventListener::`RTTI Base Class Descriptor at (0,-1,0,0)'
PUBLIC	??_R0?AVIWndEventListener@@@8			; IWndEventListener `RTTI Type Descriptor'
PUBLIC	??_R13?0A@A@IEventListener@@8			; IEventListener::`RTTI Base Class Descriptor at (4,-1,0,0)'
PUBLIC	??_R0?AVILayoutChangeObserver@@@8		; ILayoutChangeObserver `RTTI Type Descriptor'
PUBLIC	??_R4CSkinMgrV1@@6BIWndEventListener@@@		; CSkinMgrV1::`RTTI Complete Object Locator'
PUBLIC	??_R0?AVCSkinMgrV1@@@8				; CSkinMgrV1 `RTTI Type Descriptor'
PUBLIC	??_R3CSkinMgrV1@@8				; CSkinMgrV1::`RTTI Class Hierarchy Descriptor'
PUBLIC	??_R2CSkinMgrV1@@8				; CSkinMgrV1::`RTTI Base Class Array'
PUBLIC	??_R1A@?0A@A@CSkinMgrV1@@8			; CSkinMgrV1::`RTTI Base Class Descriptor at (0,-1,0,0)'
PUBLIC	??_R17?0A@A@P2PObserver@@8			; P2PObserver::`RTTI Base Class Descriptor at (8,-1,0,0)'
PUBLIC	??_R0?AVP2PObserver@@@8				; P2PObserver `RTTI Type Descriptor'
PUBLIC	??_R1M@?0A@A@ILayoutChangeObserver@@8		; ILayoutChangeObserver::`RTTI Base Class Descriptor at (12,-1,0,0)'
PUBLIC	??_R1M@?0A@A@IMessageObserver@@8		; IMessageObserver::`RTTI Base Class Descriptor at (12,-1,0,0)'
PUBLIC	??_R4CSkinMgrV1@@6BIEventListener@@@		; CSkinMgrV1::`RTTI Complete Object Locator'
PUBLIC	??_ECSkinMgrV1@@W7AEPAXI@Z			; [thunk]:CSkinMgrV1::`vector deleting destructor'
PUBLIC	??_R4CSkinMgrV1@@6BP2PObserver@@@		; CSkinMgrV1::`RTTI Complete Object Locator'
PUBLIC	??_ECSkinMgrV1@@WM@AEPAXI@Z			; [thunk]:CSkinMgrV1::`vector deleting destructor'
PUBLIC	??_R4CSkinMgrV1@@6BILayoutChangeObserver@@@	; CSkinMgrV1::`RTTI Complete Object Locator'
PUBLIC	?OnChangeSkinTemplate@IWndEventListener@@UAE_NV?$CStringT@DV?$StrTraitMFC_DLL@DV?$ChTraitsCRT@D@ATL@@@@@ATL@@@Z ; IWndEventListener::OnChangeSkinTemplate
PUBLIC	?OnchangeColor@IWndEventListener@@UAEXKI@Z	; IWndEventListener::OnchangeColor
PUBLIC	??0IChangeColorMgr@@QAE@XZ			; IChangeColorMgr::IChangeColorMgr
PUBLIC	??0?$vector@PAVIChangeSkinEventListener@@V?$allocator@PAVIChangeSkinEventListener@@@std@@@std@@QAE@XZ ; std::vector<IChangeSkinEventListener *,std::allocator<IChangeSkinEventListener *> >::vector<IChangeSkinEventListener *,std::allocator<IChangeSkinEventListener *> >
PUBLIC	??1?$vector@PAVIChangeSkinEventListener@@V?$allocator@PAVIChangeSkinEventListener@@@std@@@std@@QAE@XZ ; std::vector<IChangeSkinEventListener *,std::allocator<IChangeSkinEventListener *> >::~vector<IChangeSkinEventListener *,std::allocator<IChangeSkinEventListener *> >
EXTRN	__imp_??0?$CStringT@DV?$StrTraitMFC_DLL@DV?$ChTraitsCRT@D@ATL@@@@@ATL@@QAE@XZ:NEAR
EXTRN	__except_list:DWORD
EXTRN	___CxxFrameHandler:NEAR
EXTRN	__imp_??1?$CStringT@DV?$StrTraitMFC_DLL@DV?$ChTraitsCRT@D@ATL@@@@@ATL@@QAE@XZ:NEAR
EXTRN	__imp__InitializeCriticalSection@4:NEAR
EXTRN	??_7type_info@@6B@:QWORD			; type_info::`vftable'
EXTRN	?AfxGetMessageManager@@YAPAVIMessageManager@@XZ:NEAR ; AfxGetMessageManager
xdata$x	SEGMENT
$T205005 DD	0ffffffffH
	DD	FLAT:$L204992
	DD	00H
	DD	FLAT:$L204993
	DD	01H
	DD	FLAT:$L204994
	DD	02H
	DD	FLAT:$L204995
	DD	03H
	DD	FLAT:$L204996
	DD	04H
	DD	FLAT:$L204997
	DD	05H
	DD	FLAT:$L204998
$T205002 DD	019930520H
	DD	07H
	DD	FLAT:$T205005
	DD	2 DUP(00H)
	DD	2 DUP(00H)
xdata$x	ENDS
;	COMDAT ??_7CSkinMgrV1@@6BIWndEventListener@@@
; File d:\boxgit\playbox\playbox\dev\prj\playbox\src\layoutmgr\changecolor\ichangecolormgr.cpp
CONST	SEGMENT
??_7CSkinMgrV1@@6BIWndEventListener@@@ DD FLAT:??_R4CSkinMgrV1@@6BIWndEventListener@@@ ; CSkinMgrV1::`vftable'
	DD	FLAT:?OnChangeSkinTemplate@IWndEventListener@@UAE_NV?$CStringT@DV?$StrTraitMFC_DLL@DV?$ChTraitsCRT@D@ATL@@@@@ATL@@@Z
	DD	FLAT:?OnchangeColor@IWndEventListener@@UAEXKI@Z
	DD	FLAT:?OnTabSelChange@CSkinMgrV1@@UAEXI@Z
	DD	FLAT:?CloseSkinWnd@CSkinMgrV1@@UAE_NXZ
	DD	FLAT:?PopSkinWnd@CSkinMgrV1@@UAEHPAVCWnd@@IUtagPOINT@@@Z
	DD	FLAT:?GetSkinWnd@CSkinMgrV1@@UAEPAVCWnd@@XZ
	DD	FLAT:?InsertSmallSkin@CSkinMgrV1@@UAE_NV?$basic_string@DU?$char_traits@D@std@@V?$allocator@D@2@@std@@PAVCBitmap@@0_N@Z
	DD	FLAT:?InsertSmallSubjectSkin@CSkinMgrV1@@UAE_NV?$basic_string@DU?$char_traits@D@std@@V?$allocator@D@2@@std@@PAVCBitmap@@0_N@Z
	DD	FLAT:?ChangeBmp@CSkinMgrV1@@UAEPAVDIBINFO@@V2@IK@Z
	DD	FLAT:?ChangeColor@CSkinMgrV1@@UAEXAAK@Z
	DD	FLAT:?SetTipText@CSkinMgrV1@@UAEXV?$CStringT@DV?$StrTraitMFC_DLL@DV?$ChTraitsCRT@D@ATL@@@@@ATL@@0@Z
	DD	FLAT:?SetListener@CSkinMgrV1@@UAEXPAVIChangeSkinEventListener@@@Z
	DD	FLAT:?RemoveListener@CSkinMgrV1@@UAEXPAVIChangeSkinEventListener@@@Z
	DD	FLAT:?OnClose@CSkinMgrV1@@UAEXXZ
	DD	FLAT:?BeforeChangeColor@CSkinMgrV1@@UAEXXZ
	DD	FLAT:?AfterChangeColor@CSkinMgrV1@@UAEXXZ
	DD	FLAT:?SetTopMost@CSkinMgrV1@@UAEX_N@Z
	DD	FLAT:?SetSelectedColor@CSkinMgrV1@@UAEXK@Z
	DD	FLAT:?DeleteObject@CSkinMgrV1@@UAEXXZ
	DD	FLAT:?DownloadStart@CSkinMgrV1@@UAEXXZ
	DD	FLAT:?SetDownloadPercentage@CSkinMgrV1@@UAEXHV?$CStringT@DV?$StrTraitMFC_DLL@DV?$ChTraitsCRT@D@ATL@@@@@ATL@@@Z
	DD	FLAT:?DownloadFinish@CSkinMgrV1@@UAEXV?$CStringT@DV?$StrTraitMFC_DLL@DV?$ChTraitsCRT@D@ATL@@@@@ATL@@@Z
	DD	FLAT:?NotifyChangeSubject@CSkinMgrV1@@UAEXABV?$CStringT@DV?$StrTraitMFC_DLL@DV?$ChTraitsCRT@D@ATL@@@@@ATL@@@Z
	DD	FLAT:?ClickSub@CSkinMgrV1@@UAEXABV?$CStringT@DV?$StrTraitMFC_DLL@DV?$ChTraitsCRT@D@ATL@@@@@ATL@@@Z
	DD	FLAT:?DownloadWebSub@CSkinMgrV1@@UAEXABV?$CStringT@DV?$StrTraitMFC_DLL@DV?$ChTraitsCRT@D@ATL@@@@@ATL@@0@Z
CONST	ENDS
;	COMDAT ??_7CSkinMgrV1@@6BIEventListener@@@
CONST	SEGMENT
??_7CSkinMgrV1@@6BIEventListener@@@ DD FLAT:??_R4CSkinMgrV1@@6BIEventListener@@@ ; CSkinMgrV1::`vftable'
	DD	FLAT:?OnCliekButton@IEventListener@@UAEXPAVCButton@@@Z
	DD	FLAT:?OnCliekSlide@IEventListener@@UAEXPAVCSliderCtrl@@@Z
	DD	FLAT:?OnSendChangeColor@CSkinMgrV1@@UAEXKI_N@Z
	DD	FLAT:?OnSendChangeSkin@CSkinMgrV1@@UAEXV?$CStringT@DV?$StrTraitMFC_DLL@DV?$ChTraitsCRT@D@ATL@@@@@ATL@@@Z
	DD	FLAT:?OnSendChangeSubject@CSkinMgrV1@@UAEXV?$CStringT@DV?$StrTraitMFC_DLL@DV?$ChTraitsCRT@D@ATL@@@@@ATL@@0@Z
	DD	FLAT:?OnChangeSkinAndSub@CSkinMgrV1@@UAEXABV?$CStringT@DV?$StrTraitMFC_DLL@DV?$ChTraitsCRT@D@ATL@@@@@ATL@@0@Z
	DD	FLAT:?OnStartDownSubject@CSkinMgrV1@@UAEXABV?$CStringT@DV?$StrTraitMFC_DLL@DV?$ChTraitsCRT@D@ATL@@@@@ATL@@@Z
	DD	FLAT:?OnFinishDownSubject@CSkinMgrV1@@UAEXH@Z
CONST	ENDS
;	COMDAT ??_7CSkinMgrV1@@6BP2PObserver@@@
CONST	SEGMENT
??_7CSkinMgrV1@@6BP2PObserver@@@ DD FLAT:??_R4CSkinMgrV1@@6BP2PObserver@@@ ; CSkinMgrV1::`vftable'
	DD	FLAT:??_ECSkinMgrV1@@W7AEPAXI@Z
	DD	FLAT:?P2POb_DownStart@P2PObserver@@UAEXABV?$basic_string@DU?$char_traits@D@std@@V?$allocator@D@2@@std@@PBDI@Z
	DD	FLAT:?P2POb_DownFinish@P2PObserver@@UAEXABV?$basic_string@DU?$char_traits@D@std@@V?$allocator@D@2@@std@@@Z
	DD	FLAT:?P2POb_DownFailed@P2PObserver@@UAEXABV?$basic_string@DU?$char_traits@D@std@@V?$allocator@D@2@@std@@W4P2P_DOWN_FAILED_REASON@@@Z
	DD	FLAT:?P2POb_DownProgress@P2PObserver@@UAEXABV?$basic_string@DU?$char_traits@D@std@@V?$allocator@D@2@@std@@III@Z
	DD	FLAT:?P2POb_DownPause@P2PObserver@@UAEXABV?$basic_string@DU?$char_traits@D@std@@V?$allocator@D@2@@std@@@Z
	DD	FLAT:?P2POb_SigChange@P2PObserver@@UAEXABV?$basic_string@DU?$char_traits@D@std@@V?$allocator@D@2@@std@@0PBD@Z
CONST	ENDS
;	COMDAT ??_7CSkinMgrV1@@6BILayoutChangeObserver@@@
CONST	SEGMENT
??_7CSkinMgrV1@@6BILayoutChangeObserver@@@ DD FLAT:??_R4CSkinMgrV1@@6BILayoutChangeObserver@@@ ; CSkinMgrV1::`vftable'
	DD	FLAT:??_ECSkinMgrV1@@WM@AEPAXI@Z
	DD	FLAT:?ILayoutChangeOb_LayerChanged@ILayoutChangeObserver@@UAEXV?$basic_string@DU?$char_traits@D@std@@V?$allocator@D@2@@std@@00@Z
	DD	FLAT:?ILayoutChangeOb_PaneChanged@ILayoutChangeObserver@@UAEXV?$basic_string@DU?$char_traits@D@std@@V?$allocator@D@2@@std@@0@Z
	DD	FLAT:?ILayoutChangeOb_SkinChanged@CSkinMgrV1@@UAEXV?$basic_string@DU?$char_traits@D@std@@V?$allocator@D@2@@std@@0@Z
	DD	FLAT:?ILayoutChangeOb_ColorChanged@ILayoutChangeObserver@@UAEXXZ
	DD	FLAT:?ILayoutChangeOb_ColorChanging@ILayoutChangeObserver@@UAEXXZ
	DD	FLAT:?ILayoutChangeOb_UpdateLayout@ILayoutChangeObserver@@UAEXPAUHWND__@@@Z
	DD	FLAT:?ILayoutChangeOb_InitFinished@ILayoutChangeObserver@@UAEXXZ
	DD	FLAT:?ILayoutChangeOb_InitBegin@ILayoutChangeObserver@@UAEXXZ
CONST	ENDS
;	COMDAT ??_R4CSkinMgrV1@@6BIWndEventListener@@@
rdata$r	SEGMENT
??_R4CSkinMgrV1@@6BIWndEventListener@@@ DD 00H		; CSkinMgrV1::`RTTI Complete Object Locator'
	DD	00H
	DD	00H
	DD	FLAT:??_R0?AVCSkinMgrV1@@@8
	DD	FLAT:??_R3CSkinMgrV1@@8
rdata$r	ENDS
;	COMDAT ??_R0?AVCSkinMgrV1@@@8
_DATA	SEGMENT
??_R0?AVCSkinMgrV1@@@8 DD FLAT:??_7type_info@@6B@	; CSkinMgrV1 `RTTI Type Descriptor'
	DD	00H
	DB	'.?AVCSkinMgrV1@@', 00H
_DATA	ENDS
;	COMDAT ??_R3CSkinMgrV1@@8
rdata$r	SEGMENT
??_R3CSkinMgrV1@@8 DD 00H				; CSkinMgrV1::`RTTI Class Hierarchy Descriptor'
	DD	01H
	DD	07H
	DD	FLAT:??_R2CSkinMgrV1@@8
rdata$r	ENDS
;	COMDAT ??_R2CSkinMgrV1@@8
rdata$r	SEGMENT
??_R2CSkinMgrV1@@8 DD FLAT:??_R1A@?0A@A@CSkinMgrV1@@8	; CSkinMgrV1::`RTTI Base Class Array'
	DD	FLAT:??_R1A@?0A@A@IChangeColorMgr@@8
	DD	FLAT:??_R1A@?0A@A@IWndEventListener@@8
	DD	FLAT:??_R13?0A@A@IEventListener@@8
	DD	FLAT:??_R17?0A@A@P2PObserver@@8
	DD	FLAT:??_R1M@?0A@A@ILayoutChangeObserver@@8
	DD	FLAT:??_R1M@?0A@A@IMessageObserver@@8
rdata$r	ENDS
;	COMDAT ??_R1A@?0A@A@CSkinMgrV1@@8
rdata$r	SEGMENT
??_R1A@?0A@A@CSkinMgrV1@@8 DD FLAT:??_R0?AVCSkinMgrV1@@@8 ; CSkinMgrV1::`RTTI Base Class Descriptor at (0,-1,0,0)'
	DD	06H
	DD	00H
	DD	0ffffffffH
	DD	00H
	DD	00H
rdata$r	ENDS
;	COMDAT ??_R1A@?0A@A@IChangeColorMgr@@8
rdata$r	SEGMENT
??_R1A@?0A@A@IChangeColorMgr@@8 DD FLAT:??_R0?AVIChangeColorMgr@@@8 ; IChangeColorMgr::`RTTI Base Class Descriptor at (0,-1,0,0)'
	DD	02H
	DD	00H
	DD	0ffffffffH
	DD	00H
	DD	00H
rdata$r	ENDS
;	COMDAT ??_R0?AVIChangeColorMgr@@@8
_DATA	SEGMENT
??_R0?AVIChangeColorMgr@@@8 DD FLAT:??_7type_info@@6B@	; IChangeColorMgr `RTTI Type Descriptor'
	DD	00H
	DB	'.?AVIChangeColorMgr@@', 00H
_DATA	ENDS
;	COMDAT ??_R1A@?0A@A@IWndEventListener@@8
rdata$r	SEGMENT
??_R1A@?0A@A@IWndEventListener@@8 DD FLAT:??_R0?AVIWndEventListener@@@8 ; IWndEventListener::`RTTI Base Class Descriptor at (0,-1,0,0)'
	DD	00H
	DD	00H
	DD	0ffffffffH
	DD	00H
	DD	00H
rdata$r	ENDS
;	COMDAT ??_R0?AVIWndEventListener@@@8
_DATA	SEGMENT
??_R0?AVIWndEventListener@@@8 DD FLAT:??_7type_info@@6B@ ; IWndEventListener `RTTI Type Descriptor'
	DD	00H
	DB	'.?AVIWndEventListener@@', 00H
_DATA	ENDS
;	COMDAT ??_R13?0A@A@IEventListener@@8
rdata$r	SEGMENT
??_R13?0A@A@IEventListener@@8 DD FLAT:??_R0?AVIEventListener@@@8 ; IEventListener::`RTTI Base Class Descriptor at (4,-1,0,0)'
	DD	00H
	DD	04H
	DD	0ffffffffH
	DD	00H
	DD	00H
rdata$r	ENDS
;	COMDAT ??_R0?AVIEventListener@@@8
_DATA	SEGMENT
??_R0?AVIEventListener@@@8 DD FLAT:??_7type_info@@6B@	; IEventListener `RTTI Type Descriptor'
	DD	00H
	DB	'.?AVIEventListener@@', 00H
_DATA	ENDS
;	COMDAT ??_R17?0A@A@P2PObserver@@8
rdata$r	SEGMENT
??_R17?0A@A@P2PObserver@@8 DD FLAT:??_R0?AVP2PObserver@@@8 ; P2PObserver::`RTTI Base Class Descriptor at (8,-1,0,0)'
	DD	00H
	DD	08H
	DD	0ffffffffH
	DD	00H
	DD	00H
rdata$r	ENDS
;	COMDAT ??_R0?AVP2PObserver@@@8
_DATA	SEGMENT
??_R0?AVP2PObserver@@@8 DD FLAT:??_7type_info@@6B@	; P2PObserver `RTTI Type Descriptor'
	DD	00H
	DB	'.?AVP2PObserver@@', 00H
_DATA	ENDS
;	COMDAT ??_R1M@?0A@A@ILayoutChangeObserver@@8
rdata$r	SEGMENT
??_R1M@?0A@A@ILayoutChangeObserver@@8 DD FLAT:??_R0?AVILayoutChangeObserver@@@8 ; ILayoutChangeObserver::`RTTI Base Class Descriptor at (12,-1,0,0)'
	DD	01H
	DD	0cH
	DD	0ffffffffH
	DD	00H
	DD	00H
rdata$r	ENDS
;	COMDAT ??_R0?AVILayoutChangeObserver@@@8
_DATA	SEGMENT
??_R0?AVILayoutChangeObserver@@@8 DD FLAT:??_7type_info@@6B@ ; ILayoutChangeObserver `RTTI Type Descriptor'
	DD	00H
	DB	'.?AVILayoutChangeObserver@@', 00H
_DATA	ENDS
;	COMDAT ??_R1M@?0A@A@IMessageObserver@@8
rdata$r	SEGMENT
??_R1M@?0A@A@IMessageObserver@@8 DD FLAT:??_R0?AVIMessageObserver@@@8 ; IMessageObserver::`RTTI Base Class Descriptor at (12,-1,0,0)'
	DD	00H
	DD	0cH
	DD	0ffffffffH
	DD	00H
	DD	00H
rdata$r	ENDS
;	COMDAT ??_R0?AVIMessageObserver@@@8
_DATA	SEGMENT
??_R0?AVIMessageObserver@@@8 DD FLAT:??_7type_info@@6B@	; IMessageObserver `RTTI Type Descriptor'
	DD	00H
	DB	'.?AVIMessageObserver@@', 00H
	ORG $-31
	DD	FLAT:??_7type_info@@6B@
	DD	00H
	DB	'.?AVIMessageObserver@@', 00H
_DATA	ENDS
;	COMDAT ??_R4CSkinMgrV1@@6BIEventListener@@@
rdata$r	SEGMENT
??_R4CSkinMgrV1@@6BIEventListener@@@ DD 00H		; CSkinMgrV1::`RTTI Complete Object Locator'
	DD	04H
	DD	00H
	DD	FLAT:??_R0?AVCSkinMgrV1@@@8
	DD	FLAT:??_R3CSkinMgrV1@@8
rdata$r	ENDS
;	COMDAT ??_R4CSkinMgrV1@@6BP2PObserver@@@
rdata$r	SEGMENT
??_R4CSkinMgrV1@@6BP2PObserver@@@ DD 00H		; CSkinMgrV1::`RTTI Complete Object Locator'
	DD	08H
	DD	00H
	DD	FLAT:??_R0?AVCSkinMgrV1@@@8
	DD	FLAT:??_R3CSkinMgrV1@@8
rdata$r	ENDS
;	COMDAT ??_R4CSkinMgrV1@@6BILayoutChangeObserver@@@
rdata$r	SEGMENT
??_R4CSkinMgrV1@@6BILayoutChangeObserver@@@ DD 00H	; CSkinMgrV1::`RTTI Complete Object Locator'
	DD	0cH
	DD	00H
	DD	FLAT:??_R0?AVCSkinMgrV1@@@8
	DD	FLAT:??_R3CSkinMgrV1@@8
; Function compile flags: /Odt
rdata$r	ENDS
_TEXT	SEGMENT
tv167 = -24						; size = 4
tv173 = -20						; size = 4
_this$ = -16						; size = 4
__$EHRec$ = -12						; size = 12
??0CSkinMgrV1@@QAE@XZ PROC NEAR				; CSkinMgrV1::CSkinMgrV1
; _this$ = ecx

; 24   : {

  00000	55		 push	 ebp
  00001	8b ec		 mov	 ebp, esp
  00003	6a ff		 push	 -1
  00005	68 00 00 00 00	 push	 __ehhandler$??0CSkinMgrV1@@QAE@XZ
  0000a	64 a1 00 00 00
	00		 mov	 eax, DWORD PTR fs:__except_list
  00010	50		 push	 eax
  00011	64 89 25 00 00
	00 00		 mov	 DWORD PTR fs:__except_list, esp
  00018	83 ec 0c	 sub	 esp, 12			; 0000000cH
  0001b	89 4d f0	 mov	 DWORD PTR _this$[ebp], ecx
  0001e	8b 4d f0	 mov	 ecx, DWORD PTR _this$[ebp]
  00021	e8 00 00 00 00	 call	 ??0IChangeColorMgr@@QAE@XZ
  00026	8b 4d f0	 mov	 ecx, DWORD PTR _this$[ebp]
  00029	83 c1 08	 add	 ecx, 8
  0002c	e8 00 00 00 00	 call	 ??0P2PObserver@@QAE@XZ
  00031	c7 45 fc 00 00
	00 00		 mov	 DWORD PTR __$EHRec$[ebp+8], 0
  00038	8b 4d f0	 mov	 ecx, DWORD PTR _this$[ebp]
  0003b	83 c1 0c	 add	 ecx, 12			; 0000000cH
  0003e	e8 00 00 00 00	 call	 ??0ILayoutChangeObserver@@QAE@XZ
  00043	c6 45 fc 01	 mov	 BYTE PTR __$EHRec$[ebp+8], 1
  00047	8b 45 f0	 mov	 eax, DWORD PTR _this$[ebp]
  0004a	c7 00 00 00 00
	00		 mov	 DWORD PTR [eax], OFFSET FLAT:??_7CSkinMgrV1@@6BIWndEventListener@@@
  00050	8b 4d f0	 mov	 ecx, DWORD PTR _this$[ebp]
  00053	c7 41 04 00 00
	00 00		 mov	 DWORD PTR [ecx+4], OFFSET FLAT:??_7CSkinMgrV1@@6BIEventListener@@@
  0005a	8b 55 f0	 mov	 edx, DWORD PTR _this$[ebp]
  0005d	c7 42 08 00 00
	00 00		 mov	 DWORD PTR [edx+8], OFFSET FLAT:??_7CSkinMgrV1@@6BP2PObserver@@@
  00064	8b 45 f0	 mov	 eax, DWORD PTR _this$[ebp]
  00067	c7 40 0c 00 00
	00 00		 mov	 DWORD PTR [eax+12], OFFSET FLAT:??_7CSkinMgrV1@@6BILayoutChangeObserver@@@
  0006e	8b 4d f0	 mov	 ecx, DWORD PTR _this$[ebp]
  00071	83 c1 34	 add	 ecx, 52			; 00000034H
  00074	ff 15 00 00 00
	00		 call	 DWORD PTR __imp_??0?$CStringT@DV?$StrTraitMFC_DLL@DV?$ChTraitsCRT@D@ATL@@@@@ATL@@QAE@XZ
  0007a	c6 45 fc 02	 mov	 BYTE PTR __$EHRec$[ebp+8], 2
  0007e	8b 4d f0	 mov	 ecx, DWORD PTR _this$[ebp]
  00081	83 c1 38	 add	 ecx, 56			; 00000038H
  00084	e8 00 00 00 00	 call	 ??0?$vector@PAVIChangeSkinEventListener@@V?$allocator@PAVIChangeSkinEventListener@@@std@@@std@@QAE@XZ ; std::vector<IChangeSkinEventListener *,std::allocator<IChangeSkinEventListener *> >::vector<IChangeSkinEventListener *,std::allocator<IChangeSkinEventListener *> >
  00089	c6 45 fc 03	 mov	 BYTE PTR __$EHRec$[ebp+8], 3
  0008d	8b 4d f0	 mov	 ecx, DWORD PTR _this$[ebp]
  00090	83 c1 58	 add	 ecx, 88			; 00000058H
  00093	ff 15 00 00 00
	00		 call	 DWORD PTR __imp_??0?$CStringT@DV?$StrTraitMFC_DLL@DV?$ChTraitsCRT@D@ATL@@@@@ATL@@QAE@XZ
  00099	c6 45 fc 04	 mov	 BYTE PTR __$EHRec$[ebp+8], 4
  0009d	8b 4d f0	 mov	 ecx, DWORD PTR _this$[ebp]
  000a0	83 c1 5c	 add	 ecx, 92			; 0000005cH
  000a3	ff 15 00 00 00
	00		 call	 DWORD PTR __imp_??0?$CStringT@DV?$StrTraitMFC_DLL@DV?$ChTraitsCRT@D@ATL@@@@@ATL@@QAE@XZ
  000a9	c6 45 fc 05	 mov	 BYTE PTR __$EHRec$[ebp+8], 5
  000ad	8b 4d f0	 mov	 ecx, DWORD PTR _this$[ebp]
  000b0	83 c1 60	 add	 ecx, 96			; 00000060H
  000b3	ff 15 00 00 00
	00		 call	 DWORD PTR __imp_??0?$CStringT@DV?$StrTraitMFC_DLL@DV?$ChTraitsCRT@D@ATL@@@@@ATL@@QAE@XZ
  000b9	c6 45 fc 06	 mov	 BYTE PTR __$EHRec$[ebp+8], 6

; 25   : 	mp_mainSkinWnd		= NULL;

  000bd	8b 4d f0	 mov	 ecx, DWORD PTR _this$[ebp]
  000c0	c7 41 10 00 00
	00 00		 mov	 DWORD PTR [ecx+16], 0

; 26   : 	mp_skinWnd			= NULL;

  000c7	8b 55 f0	 mov	 edx, DWORD PTR _this$[ebp]
  000ca	c7 42 14 00 00
	00 00		 mov	 DWORD PTR [edx+20], 0

; 27   : 
; 28   : 	mp_downloadSkin		= NULL;

  000d1	8b 45 f0	 mov	 eax, DWORD PTR _this$[ebp]
  000d4	c7 40 20 00 00
	00 00		 mov	 DWORD PTR [eax+32], 0

; 29   : 	mp_downloadSubject	= NULL;

  000db	8b 4d f0	 mov	 ecx, DWORD PTR _this$[ebp]
  000de	c7 41 24 00 00
	00 00		 mov	 DWORD PTR [ecx+36], 0

; 30   : 
; 31   : 	m_BaseColor			= RGB( 0,0,0);

  000e5	8b 55 f0	 mov	 edx, DWORD PTR _this$[ebp]
  000e8	c7 42 28 00 00
	00 00		 mov	 DWORD PTR [edx+40], 0

; 32   : 	m_nLightPos			= 120;

  000ef	8b 45 f0	 mov	 eax, DWORD PTR _this$[ebp]
  000f2	c7 40 30 78 00
	00 00		 mov	 DWORD PTR [eax+48], 120	; 00000078H

; 33   : 	mb_HasPopWnd		= false;

  000f9	8b 4d f0	 mov	 ecx, DWORD PTR _this$[ebp]
  000fc	c6 41 48 00	 mov	 BYTE PTR [ecx+72], 0

; 34   : 	mb_isDownSkin		= false;

  00100	8b 55 f0	 mov	 edx, DWORD PTR _this$[ebp]
  00103	c6 42 49 00	 mov	 BYTE PTR [edx+73], 0

; 35   : 	mb_isDownSubject    = false;

  00107	8b 45 f0	 mov	 eax, DWORD PTR _this$[ebp]
  0010a	c6 40 4a 00	 mov	 BYTE PTR [eax+74], 0

; 36   : 	mb_isDownWebSub		= false;

  0010e	8b 4d f0	 mov	 ecx, DWORD PTR _this$[ebp]
  00111	c6 41 4b 00	 mov	 BYTE PTR [ecx+75], 0

; 37   : 	m_DefaultColor = RGB( 0,0,0);

  00115	8b 55 f0	 mov	 edx, DWORD PTR _this$[ebp]
  00118	c7 42 2c 00 00
	00 00		 mov	 DWORD PTR [edx+44], 0

; 38   : 	mp_SubjectWnd	= NULL;

  0011f	8b 45 f0	 mov	 eax, DWORD PTR _this$[ebp]
  00122	c7 40 18 00 00
	00 00		 mov	 DWORD PTR [eax+24], 0

; 39   : 
; 40   : 	m_iCheckTab = 0;

  00129	8b 4d f0	 mov	 ecx, DWORD PTR _this$[ebp]
  0012c	c7 81 80 00 00
	00 00 00 00 00	 mov	 DWORD PTR [ecx+128], 0

; 41   : 	mb_isFirstPop = TRUE;

  00136	8b 55 f0	 mov	 edx, DWORD PTR _this$[ebp]
  00139	c6 42 4c 01	 mov	 BYTE PTR [edx+76], 1

; 42   : 	InitializeCriticalSection( &m_csDownInfo );

  0013d	8b 45 f0	 mov	 eax, DWORD PTR _this$[ebp]
  00140	83 c0 68	 add	 eax, 104		; 00000068H
  00143	50		 push	 eax
  00144	ff 15 00 00 00
	00		 call	 DWORD PTR __imp__InitializeCriticalSection@4

; 43   : 
; 44   : 	AfxGetMessageManager()->AttachMessage( ID_MESSAGE_LAYOUTMGR,(ILayoutChangeObserver*)this);

  0014a	83 7d f0 00	 cmp	 DWORD PTR _this$[ebp], 0
  0014e	74 0b		 je	 SHORT $L204990
  00150	8b 4d f0	 mov	 ecx, DWORD PTR _this$[ebp]
  00153	83 c1 0c	 add	 ecx, 12			; 0000000cH
  00156	89 4d ec	 mov	 DWORD PTR tv173[ebp], ecx
  00159	eb 07		 jmp	 SHORT $L204991
$L204990:
  0015b	c7 45 ec 00 00
	00 00		 mov	 DWORD PTR tv173[ebp], 0
$L204991:
  00162	e8 00 00 00 00	 call	 ?AfxGetMessageManager@@YAPAVIMessageManager@@XZ ; AfxGetMessageManager
  00167	89 45 e8	 mov	 DWORD PTR tv167[ebp], eax
  0016a	6a 02		 push	 2
  0016c	8b 55 ec	 mov	 edx, DWORD PTR tv173[ebp]
  0016f	52		 push	 edx
  00170	68 00 00 00 00	 push	 OFFSET FLAT:_ID_MESSAGE_LAYOUTMGR
  00175	8b 45 e8	 mov	 eax, DWORD PTR tv167[ebp]
  00178	8b 10		 mov	 edx, DWORD PTR [eax]
  0017a	8b 4d e8	 mov	 ecx, DWORD PTR tv167[ebp]
  0017d	ff 52 04	 call	 DWORD PTR [edx+4]

; 45   : }

  00180	c7 45 fc ff ff
	ff ff		 mov	 DWORD PTR __$EHRec$[ebp+8], -1
  00187	8b 45 f0	 mov	 eax, DWORD PTR _this$[ebp]
  0018a	8b 4d f4	 mov	 ecx, DWORD PTR __$EHRec$[ebp]
  0018d	64 89 0d 00 00
	00 00		 mov	 DWORD PTR fs:__except_list, ecx
  00194	8b e5		 mov	 esp, ebp
  00196	5d		 pop	 ebp
  00197	c3		 ret	 0
_TEXT	ENDS
text$x	SEGMENT
$L204992:
  00000	8b 4d f0	 mov	 ecx, DWORD PTR _this$[ebp]
  00003	83 c1 08	 add	 ecx, 8
  00006	e9 00 00 00 00	 jmp	 ??1P2PObserver@@UAE@XZ	; P2PObserver::~P2PObserver
$L204993:
  0000b	8b 4d f0	 mov	 ecx, DWORD PTR _this$[ebp]
  0000e	83 c1 0c	 add	 ecx, 12			; 0000000cH
  00011	e9 00 00 00 00	 jmp	 ??1ILayoutChangeObserver@@UAE@XZ
$L204994:
  00016	8b 4d f0	 mov	 ecx, DWORD PTR _this$[ebp]
  00019	83 c1 34	 add	 ecx, 52			; 00000034H
  0001c	ff 25 00 00 00
	00		 jmp	 DWORD PTR __imp_??1?$CStringT@DV?$StrTraitMFC_DLL@DV?$ChTraitsCRT@D@ATL@@@@@ATL@@QAE@XZ
$L204995:
  00022	8b 4d f0	 mov	 ecx, DWORD PTR _this$[ebp]
  00025	83 c1 38	 add	 ecx, 56			; 00000038H
  00028	e9 00 00 00 00	 jmp	 ??1?$vector@PAVIChangeSkinEventListener@@V?$allocator@PAVIChangeSkinEventListener@@@std@@@std@@QAE@XZ ; std::vector<IChangeSkinEventListener *,std::allocator<IChangeSkinEventListener *> >::~vector<IChangeSkinEventListener *,std::allocator<IChangeSkinEventListener *> >
$L204996:
  0002d	8b 4d f0	 mov	 ecx, DWORD PTR _this$[ebp]
  00030	83 c1 58	 add	 ecx, 88			; 00000058H
  00033	ff 25 00 00 00
	00		 jmp	 DWORD PTR __imp_??1?$CStringT@DV?$StrTraitMFC_DLL@DV?$ChTraitsCRT@D@ATL@@@@@ATL@@QAE@XZ
$L204997:
  00039	8b 4d f0	 mov	 ecx, DWORD PTR _this$[ebp]
  0003c	83 c1 5c	 add	 ecx, 92			; 0000005cH
  0003f	ff 25 00 00 00
	00		 jmp	 DWORD PTR __imp_??1?$CStringT@DV?$StrTraitMFC_DLL@DV?$ChTraitsCRT@D@ATL@@@@@ATL@@QAE@XZ
$L204998:
  00045	8b 4d f0	 mov	 ecx, DWORD PTR _this$[ebp]
  00048	83 c1 60	 add	 ecx, 96			; 00000060H
  0004b	ff 25 00 00 00
	00		 jmp	 DWORD PTR __imp_??1?$CStringT@DV?$StrTraitMFC_DLL@DV?$ChTraitsCRT@D@ATL@@@@@ATL@@QAE@XZ
__ehhandler$??0CSkinMgrV1@@QAE@XZ:
  00051	b8 00 00 00 00	 mov	 eax, OFFSET FLAT:$T205002
  00056	e9 00 00 00 00	 jmp	 ___CxxFrameHandler
text$x	ENDS
??0CSkinMgrV1@@QAE@XZ ENDP				; CSkinMgrV1::CSkinMgrV1
; Function compile flags: /Odt
; File d:\boxgit\playbox\playbox\dev\prj\playbox\src\layoutmgr\changecolor\ievent.h
;	COMDAT ?OnCliekButton@IEventListener@@UAEXPAVCButton@@@Z
_TEXT	SEGMENT
_this$ = -4						; size = 4
_pBotton$ = 8						; size = 4
?OnCliekButton@IEventListener@@UAEXPAVCButton@@@Z PROC NEAR ; IEventListener::OnCliekButton, COMDAT
; _this$ = ecx

; 7    : 	virtual void OnCliekButton(CButton* pBotton){};

  00000	55		 push	 ebp
  00001	8b ec		 mov	 ebp, esp
  00003	51		 push	 ecx
  00004	89 4d fc	 mov	 DWORD PTR _this$[ebp], ecx
  00007	8b e5		 mov	 esp, ebp
  00009	5d		 pop	 ebp
  0000a	c2 04 00	 ret	 4
?OnCliekButton@IEventListener@@UAEXPAVCButton@@@Z ENDP	; IEventListener::OnCliekButton
; Function compile flags: /Odt
_TEXT	ENDS
;	COMDAT ?OnCliekSlide@IEventListener@@UAEXPAVCSliderCtrl@@@Z
_TEXT	SEGMENT
_this$ = -4						; size = 4
_pBotton$ = 8						; size = 4
?OnCliekSlide@IEventListener@@UAEXPAVCSliderCtrl@@@Z PROC NEAR ; IEventListener::OnCliekSlide, COMDAT
; _this$ = ecx

; 8    : 	virtual void OnCliekSlide(CSliderCtrl* pBotton){};

  00000	55		 push	 ebp
  00001	8b ec		 mov	 ebp, esp
  00003	51		 push	 ecx
  00004	89 4d fc	 mov	 DWORD PTR _this$[ebp], ecx
  00007	8b e5		 mov	 esp, ebp
  00009	5d		 pop	 ebp
  0000a	c2 04 00	 ret	 4
?OnCliekSlide@IEventListener@@UAEXPAVCSliderCtrl@@@Z ENDP ; IEventListener::OnCliekSlide
; Function compile flags: /Odt
; File d:\boxgit\playbox\playbox\dev\prj\playbox\src\layoutmgr\changecolor\mainskinwnd.h
_TEXT	ENDS
;	COMDAT ?OnChangeSkinTemplate@IWndEventListener@@UAE_NV?$CStringT@DV?$StrTraitMFC_DLL@DV?$ChTraitsCRT@D@ATL@@@@@ATL@@@Z
_TEXT	SEGMENT
_this$ = -8						; size = 4
$T205012 = -1						; size = 1
_strPath$ = 8						; size = 4
?OnChangeSkinTemplate@IWndEventListener@@UAE_NV?$CStringT@DV?$StrTraitMFC_DLL@DV?$ChTraitsCRT@D@ATL@@@@@ATL@@@Z PROC NEAR ; IWndEventListener::OnChangeSkinTemplate, COMDAT
; _this$ = ecx

; 12   : 	virtual bool OnChangeSkinTemplate(CString strPath){return false;};

  00000	55		 push	 ebp
  00001	8b ec		 mov	 ebp, esp
  00003	83 ec 08	 sub	 esp, 8
  00006	89 4d f8	 mov	 DWORD PTR _this$[ebp], ecx
  00009	c6 45 ff 00	 mov	 BYTE PTR $T205012[ebp], 0
  0000d	8d 4d 08	 lea	 ecx, DWORD PTR _strPath$[ebp]
  00010	ff 15 00 00 00
	00		 call	 DWORD PTR __imp_??1?$CStringT@DV?$StrTraitMFC_DLL@DV?$ChTraitsCRT@D@ATL@@@@@ATL@@QAE@XZ
  00016	8a 45 ff	 mov	 al, BYTE PTR $T205012[ebp]
  00019	8b e5		 mov	 esp, ebp
  0001b	5d		 pop	 ebp
  0001c	c2 04 00	 ret	 4
?OnChangeSkinTemplate@IWndEventListener@@UAE_NV?$CStringT@DV?$StrTraitMFC_DLL@DV?$ChTraitsCRT@D@ATL@@@@@ATL@@@Z ENDP ; IWndEventListener::OnChangeSkinTemplate
; Function compile flags: /Odt
_TEXT	ENDS
;	COMDAT ?OnchangeColor@IWndEventListener@@UAEXKI@Z
_TEXT	SEGMENT
_this$ = -4						; size = 4
_acolCol$ = 8						; size = 4
_anLightValue$ = 12					; size = 4
?OnchangeColor@IWndEventListener@@UAEXKI@Z PROC NEAR	; IWndEventListener::OnchangeColor, COMDAT
; _this$ = ecx

; 13   : 	virtual void OnchangeColor(COLORREF acolCol, UINT anLightValue){};

  00000	55		 push	 ebp
  00001	8b ec		 mov	 ebp, esp
  00003	51		 push	 ecx
  00004	89 4d fc	 mov	 DWORD PTR _this$[ebp], ecx
  00007	8b e5		 mov	 esp, ebp
  00009	5d		 pop	 ebp
  0000a	c2 08 00	 ret	 8
?OnchangeColor@IWndEventListener@@UAEXKI@Z ENDP		; IWndEventListener::OnchangeColor
_TEXT	ENDS
PUBLIC	??_7P2PObserver@@6B@				; P2PObserver::`vftable'
PUBLIC	??_GP2PObserver@@UAEPAXI@Z			; P2PObserver::`scalar deleting destructor'
PUBLIC	??_R4P2PObserver@@6B@				; P2PObserver::`RTTI Complete Object Locator'
PUBLIC	??_R3P2PObserver@@8				; P2PObserver::`RTTI Class Hierarchy Descriptor'
PUBLIC	??_R2P2PObserver@@8				; P2PObserver::`RTTI Base Class Array'
PUBLIC	??_R1A@?0A@A@P2PObserver@@8			; P2PObserver::`RTTI Base Class Descriptor at (0,-1,0,0)'
EXTRN	??_EP2PObserver@@UAEPAXI@Z:NEAR			; P2PObserver::`vector deleting destructor'
;	COMDAT ??_7P2PObserver@@6B@
; File d:\boxgit\playbox\commonlib\include\yl_p2pint.h
CONST	SEGMENT
??_7P2PObserver@@6B@ DD FLAT:??_R4P2PObserver@@6B@	; P2PObserver::`vftable'
	DD	FLAT:??_EP2PObserver@@UAEPAXI@Z
	DD	FLAT:?P2POb_DownStart@P2PObserver@@UAEXABV?$basic_string@DU?$char_traits@D@std@@V?$allocator@D@2@@std@@PBDI@Z
	DD	FLAT:?P2POb_DownFinish@P2PObserver@@UAEXABV?$basic_string@DU?$char_traits@D@std@@V?$allocator@D@2@@std@@@Z
	DD	FLAT:?P2POb_DownFailed@P2PObserver@@UAEXABV?$basic_string@DU?$char_traits@D@std@@V?$allocator@D@2@@std@@W4P2P_DOWN_FAILED_REASON@@@Z
	DD	FLAT:?P2POb_DownProgress@P2PObserver@@UAEXABV?$basic_string@DU?$char_traits@D@std@@V?$allocator@D@2@@std@@III@Z
	DD	FLAT:?P2POb_DownPause@P2PObserver@@UAEXABV?$basic_string@DU?$char_traits@D@std@@V?$allocator@D@2@@std@@@Z
	DD	FLAT:?P2POb_SigChange@P2PObserver@@UAEXABV?$basic_string@DU?$char_traits@D@std@@V?$allocator@D@2@@std@@0PBD@Z
CONST	ENDS
;	COMDAT ??_R4P2PObserver@@6B@
rdata$r	SEGMENT
??_R4P2PObserver@@6B@ DD 00H				; P2PObserver::`RTTI Complete Object Locator'
	DD	00H
	DD	00H
	DD	FLAT:??_R0?AVP2PObserver@@@8
	DD	FLAT:??_R3P2PObserver@@8
rdata$r	ENDS
;	COMDAT ??_R3P2PObserver@@8
rdata$r	SEGMENT
??_R3P2PObserver@@8 DD 00H				; P2PObserver::`RTTI Class Hierarchy Descriptor'
	DD	00H
	DD	01H
	DD	FLAT:??_R2P2PObserver@@8
rdata$r	ENDS
;	COMDAT ??_R2P2PObserver@@8
rdata$r	SEGMENT
??_R2P2PObserver@@8 DD FLAT:??_R1A@?0A@A@P2PObserver@@8	; P2PObserver::`RTTI Base Class Array'
rdata$r	ENDS
;	COMDAT ??_R1A@?0A@A@P2PObserver@@8
rdata$r	SEGMENT
??_R1A@?0A@A@P2PObserver@@8 DD FLAT:??_R0?AVP2PObserver@@@8 ; P2PObserver::`RTTI Base Class Descriptor at (0,-1,0,0)'
	DD	00H
	DD	00H
	DD	0ffffffffH
	DD	00H
	DD	00H
; Function compile flags: /Odt
rdata$r	ENDS
;	COMDAT ??1P2PObserver@@UAE@XZ
_TEXT	SEGMENT
_this$ = -4						; size = 4
??1P2PObserver@@UAE@XZ PROC NEAR			; P2PObserver::~P2PObserver, COMDAT
; _this$ = ecx

; 14   : 	virtual ~P2PObserver(){};

  00000	55		 push	 ebp
  00001	8b ec		 mov	 ebp, esp
  00003	51		 push	 ecx
  00004	89 4d fc	 mov	 DWORD PTR _this$[ebp], ecx
  00007	8b 45 fc	 mov	 eax, DWORD PTR _this$[ebp]
  0000a	c7 00 00 00 00
	00		 mov	 DWORD PTR [eax], OFFSET FLAT:??_7P2PObserver@@6B@
  00010	8b e5		 mov	 esp, ebp
  00012	5d		 pop	 ebp
  00013	c3		 ret	 0
??1P2PObserver@@UAE@XZ ENDP				; P2PObserver::~P2PObserver
; Function compile flags: /Odt
_TEXT	ENDS
;	COMDAT ?P2POb_DownStart@P2PObserver@@UAEXABV?$basic_string@DU?$char_traits@D@std@@V?$allocator@D@2@@std@@PBDI@Z
_TEXT	SEGMENT
_this$ = -4						; size = 4
_strID$ = 8						; size = 4
_lpszFilePath$ = 12					; size = 4
_unFileSize$ = 16					; size = 4
?P2POb_DownStart@P2PObserver@@UAEXABV?$basic_string@DU?$char_traits@D@std@@V?$allocator@D@2@@std@@PBDI@Z PROC NEAR ; P2PObserver::P2POb_DownStart, COMDAT
; _this$ = ecx

; 19   : 	virtual void P2POb_DownStart(const string& strID, const char* lpszFilePath, unsigned int unFileSize){};

  00000	55		 push	 ebp
  00001	8b ec		 mov	 ebp, esp
  00003	51		 push	 ecx
  00004	89 4d fc	 mov	 DWORD PTR _this$[ebp], ecx
  00007	8b e5		 mov	 esp, ebp
  00009	5d		 pop	 ebp
  0000a	c2 0c 00	 ret	 12			; 0000000cH
?P2POb_DownStart@P2PObserver@@UAEXABV?$basic_string@DU?$char_traits@D@std@@V?$allocator@D@2@@std@@PBDI@Z ENDP ; P2PObserver::P2POb_DownStart
; Function compile flags: /Odt
_TEXT	ENDS
;	COMDAT ?P2POb_DownFinish@P2PObserver@@UAEXABV?$basic_string@DU?$char_traits@D@std@@V?$allocator@D@2@@std@@@Z
_TEXT	SEGMENT
_this$ = -4						; size = 4
_strID$ = 8						; size = 4
?P2POb_DownFinish@P2PObserver@@UAEXABV?$basic_string@DU?$char_traits@D@std@@V?$allocator@D@2@@std@@@Z PROC NEAR ; P2PObserver::P2POb_DownFinish, COMDAT
; _this$ = ecx

; 22   : 	virtual void P2POb_DownFinish(const string& strID){};

  00000	55		 push	 ebp
  00001	8b ec		 mov	 ebp, esp
  00003	51		 push	 ecx
  00004	89 4d fc	 mov	 DWORD PTR _this$[ebp], ecx
  00007	8b e5		 mov	 esp, ebp
  00009	5d		 pop	 ebp
  0000a	c2 04 00	 ret	 4
?P2POb_DownFinish@P2PObserver@@UAEXABV?$basic_string@DU?$char_traits@D@std@@V?$allocator@D@2@@std@@@Z ENDP ; P2PObserver::P2POb_DownFinish
; Function compile flags: /Odt
_TEXT	ENDS
;	COMDAT ?P2POb_DownFailed@P2PObserver@@UAEXABV?$basic_string@DU?$char_traits@D@std@@V?$allocator@D@2@@std@@W4P2P_DOWN_FAILED_REASON@@@Z
_TEXT	SEGMENT
_this$ = -4						; size = 4
_strID$ = 8						; size = 4
_pdfr$ = 12						; size = 4
?P2POb_DownFailed@P2PObserver@@UAEXABV?$basic_string@DU?$char_traits@D@std@@V?$allocator@D@2@@std@@W4P2P_DOWN_FAILED_REASON@@@Z PROC NEAR ; P2PObserver::P2POb_DownFailed, COMDAT
; _this$ = ecx

; 25   : 	virtual void P2POb_DownFailed(const string& strID, P2P_DOWN_FAILED_REASON pdfr){};

  00000	55		 push	 ebp
  00001	8b ec		 mov	 ebp, esp
  00003	51		 push	 ecx
  00004	89 4d fc	 mov	 DWORD PTR _this$[ebp], ecx
  00007	8b e5		 mov	 esp, ebp
  00009	5d		 pop	 ebp
  0000a	c2 08 00	 ret	 8
?P2POb_DownFailed@P2PObserver@@UAEXABV?$basic_string@DU?$char_traits@D@std@@V?$allocator@D@2@@std@@W4P2P_DOWN_FAILED_REASON@@@Z ENDP ; P2PObserver::P2POb_DownFailed
; Function compile flags: /Odt
_TEXT	ENDS
;	COMDAT ?P2POb_DownProgress@P2PObserver@@UAEXABV?$basic_string@DU?$char_traits@D@std@@V?$allocator@D@2@@std@@III@Z
_TEXT	SEGMENT
_this$ = -4						; size = 4
_strID$ = 8						; size = 4
_unContinue$ = 12					; size = 4
_unFinished$ = 16					; size = 4
_unSpeed$ = 20						; size = 4
?P2POb_DownProgress@P2PObserver@@UAEXABV?$basic_string@DU?$char_traits@D@std@@V?$allocator@D@2@@std@@III@Z PROC NEAR ; P2PObserver::P2POb_DownProgress, COMDAT
; _this$ = ecx

; 28   : 	virtual void P2POb_DownProgress(const string& strID, unsigned int unContinue, unsigned int unFinished, unsigned int unSpeed){};

  00000	55		 push	 ebp
  00001	8b ec		 mov	 ebp, esp
  00003	51		 push	 ecx
  00004	89 4d fc	 mov	 DWORD PTR _this$[ebp], ecx
  00007	8b e5		 mov	 esp, ebp
  00009	5d		 pop	 ebp
  0000a	c2 10 00	 ret	 16			; 00000010H
?P2POb_DownProgress@P2PObserver@@UAEXABV?$basic_string@DU?$char_traits@D@std@@V?$allocator@D@2@@std@@III@Z ENDP ; P2PObserver::P2POb_DownProgress
; Function compile flags: /Odt
_TEXT	ENDS
;	COMDAT ?P2POb_DownPause@P2PObserver@@UAEXABV?$basic_string@DU?$char_traits@D@std@@V?$allocator@D@2@@std@@@Z
_TEXT	SEGMENT
_this$ = -4						; size = 4
_strID$ = 8						; size = 4
?P2POb_DownPause@P2PObserver@@UAEXABV?$basic_string@DU?$char_traits@D@std@@V?$allocator@D@2@@std@@@Z PROC NEAR ; P2PObserver::P2POb_DownPause, COMDAT
; _this$ = ecx

; 31   : 	virtual void P2POb_DownPause(const string& strID){};

  00000	55		 push	 ebp
  00001	8b ec		 mov	 ebp, esp
  00003	51		 push	 ecx
  00004	89 4d fc	 mov	 DWORD PTR _this$[ebp], ecx
  00007	8b e5		 mov	 esp, ebp
  00009	5d		 pop	 ebp
  0000a	c2 04 00	 ret	 4
?P2POb_DownPause@P2PObserver@@UAEXABV?$basic_string@DU?$char_traits@D@std@@V?$allocator@D@2@@std@@@Z ENDP ; P2PObserver::P2POb_DownPause
; Function compile flags: /Odt
_TEXT	ENDS
;	COMDAT ?P2POb_SigChange@P2PObserver@@UAEXABV?$basic_string@DU?$char_traits@D@std@@V?$allocator@D@2@@std@@0PBD@Z
_TEXT	SEGMENT
_this$ = -4						; size = 4
_strID$ = 8						; size = 4
_strIDNew$ = 12						; size = 4
_szRid$ = 16						; size = 4
?P2POb_SigChange@P2PObserver@@UAEXABV?$basic_string@DU?$char_traits@D@std@@V?$allocator@D@2@@std@@0PBD@Z PROC NEAR ; P2PObserver::P2POb_SigChange, COMDAT
; _this$ = ecx

; 34   : 	virtual void P2POb_SigChange(const string& strID, const string& strIDNew, const char* szRid){};

  00000	55		 push	 ebp
  00001	8b ec		 mov	 ebp, esp
  00003	51		 push	 ecx
  00004	89 4d fc	 mov	 DWORD PTR _this$[ebp], ecx
  00007	8b e5		 mov	 esp, ebp
  00009	5d		 pop	 ebp
  0000a	c2 0c 00	 ret	 12			; 0000000cH
?P2POb_SigChange@P2PObserver@@UAEXABV?$basic_string@DU?$char_traits@D@std@@V?$allocator@D@2@@std@@0PBD@Z ENDP ; P2PObserver::P2POb_SigChange
_TEXT	ENDS
EXTRN	??3@YAXPAX@Z:NEAR				; operator delete
; Function compile flags: /Odt
;	COMDAT ??_GP2PObserver@@UAEPAXI@Z
_TEXT	SEGMENT
_this$ = -4						; size = 4
___flags$ = 8						; size = 4
??_GP2PObserver@@UAEPAXI@Z PROC NEAR			; P2PObserver::`scalar deleting destructor', COMDAT
; _this$ = ecx
  00000	55		 push	 ebp
  00001	8b ec		 mov	 ebp, esp
  00003	51		 push	 ecx
  00004	89 4d fc	 mov	 DWORD PTR _this$[ebp], ecx
  00007	8b 4d fc	 mov	 ecx, DWORD PTR _this$[ebp]
  0000a	e8 00 00 00 00	 call	 ??1P2PObserver@@UAE@XZ	; P2PObserver::~P2PObserver
  0000f	8b 45 08	 mov	 eax, DWORD PTR ___flags$[ebp]
  00012	83 e0 01	 and	 eax, 1
  00015	74 0c		 je	 SHORT $L201084
  00017	8b 4d fc	 mov	 ecx, DWORD PTR _this$[ebp]
  0001a	51		 push	 ecx
  0001b	e8 00 00 00 00	 call	 ??3@YAXPAX@Z		; operator delete
  00020	83 c4 04	 add	 esp, 4
$L201084:
  00023	8b 45 fc	 mov	 eax, DWORD PTR _this$[ebp]
  00026	8b e5		 mov	 esp, ebp
  00028	5d		 pop	 ebp
  00029	c2 04 00	 ret	 4
??_GP2PObserver@@UAEPAXI@Z ENDP				; P2PObserver::`scalar deleting destructor'
_TEXT	ENDS
EXTRN	__imp_??1?$basic_string@DU?$char_traits@D@std@@V?$allocator@D@2@@std@@QAE@XZ:NEAR
;	COMDAT xdata$x
; File d:\boxgit\playbox\playbox\dev\prj\playbox\src\datainterface\ilayoutchangeobserver.h
xdata$x	SEGMENT
$T205040 DD	0ffffffffH
	DD	FLAT:$L205034
	DD	00H
	DD	FLAT:$L205035
$T205038 DD	019930520H
	DD	02H
	DD	FLAT:$T205040
	DD	2 DUP(00H)
	DD	2 DUP(00H)
; Function compile flags: /Odt
xdata$x	ENDS
;	COMDAT ?ILayoutChangeOb_LayerChanged@ILayoutChangeObserver@@UAEXV?$basic_string@DU?$char_traits@D@std@@V?$allocator@D@2@@std@@00@Z
_TEXT	SEGMENT
_this$ = -16						; size = 4
__$EHRec$ = -12						; size = 12
_paneName$ = 8						; size = 28
_oldLayerName$ = 36					; size = 28
_newLayerName$ = 64					; size = 28
?ILayoutChangeOb_LayerChanged@ILayoutChangeObserver@@UAEXV?$basic_string@DU?$char_traits@D@std@@V?$allocator@D@2@@std@@00@Z PROC NEAR ; ILayoutChangeObserver::ILayoutChangeOb_LayerChanged, COMDAT
; _this$ = ecx

; 9    : 	virtual void	ILayoutChangeOb_LayerChanged(string paneName, string oldLayerName, string newLayerName ){};

  00000	55		 push	 ebp
  00001	8b ec		 mov	 ebp, esp
  00003	6a ff		 push	 -1
  00005	68 00 00 00 00	 push	 __ehhandler$?ILayoutChangeOb_LayerChanged@ILayoutChangeObserver@@UAEXV?$basic_string@DU?$char_traits@D@std@@V?$allocator@D@2@@std@@00@Z
  0000a	64 a1 00 00 00
	00		 mov	 eax, DWORD PTR fs:__except_list
  00010	50		 push	 eax
  00011	64 89 25 00 00
	00 00		 mov	 DWORD PTR fs:__except_list, esp
  00018	51		 push	 ecx
  00019	89 4d f0	 mov	 DWORD PTR _this$[ebp], ecx
  0001c	c7 45 fc 01 00
	00 00		 mov	 DWORD PTR __$EHRec$[ebp+8], 1
  00023	8d 4d 08	 lea	 ecx, DWORD PTR _paneName$[ebp]
  00026	ff 15 00 00 00
	00		 call	 DWORD PTR __imp_??1?$basic_string@DU?$char_traits@D@std@@V?$allocator@D@2@@std@@QAE@XZ
  0002c	c6 45 fc 00	 mov	 BYTE PTR __$EHRec$[ebp+8], 0
  00030	8d 4d 24	 lea	 ecx, DWORD PTR _oldLayerName$[ebp]
  00033	ff 15 00 00 00
	00		 call	 DWORD PTR __imp_??1?$basic_string@DU?$char_traits@D@std@@V?$allocator@D@2@@std@@QAE@XZ
  00039	c7 45 fc ff ff
	ff ff		 mov	 DWORD PTR __$EHRec$[ebp+8], -1
  00040	8d 4d 40	 lea	 ecx, DWORD PTR _newLayerName$[ebp]
  00043	ff 15 00 00 00
	00		 call	 DWORD PTR __imp_??1?$basic_string@DU?$char_traits@D@std@@V?$allocator@D@2@@std@@QAE@XZ
  00049	8b 4d f4	 mov	 ecx, DWORD PTR __$EHRec$[ebp]
  0004c	64 89 0d 00 00
	00 00		 mov	 DWORD PTR fs:__except_list, ecx
  00053	8b e5		 mov	 esp, ebp
  00055	5d		 pop	 ebp
  00056	c2 54 00	 ret	 84			; 00000054H
_TEXT	ENDS
;	COMDAT text$x
text$x	SEGMENT
$L205034:
  00000	8d 4d 40	 lea	 ecx, DWORD PTR _newLayerName$[ebp]
  00003	ff 25 00 00 00
	00		 jmp	 DWORD PTR __imp_??1?$basic_string@DU?$char_traits@D@std@@V?$allocator@D@2@@std@@QAE@XZ
$L205035:
  00009	8d 4d 24	 lea	 ecx, DWORD PTR _oldLayerName$[ebp]
  0000c	ff 25 00 00 00
	00		 jmp	 DWORD PTR __imp_??1?$basic_string@DU?$char_traits@D@std@@V?$allocator@D@2@@std@@QAE@XZ
__ehhandler$?ILayoutChangeOb_LayerChanged@ILayoutChangeObserver@@UAEXV?$basic_string@DU?$char_traits@D@std@@V?$allocator@D@2@@std@@00@Z:
  00012	b8 00 00 00 00	 mov	 eax, OFFSET FLAT:$T205038
  00017	e9 00 00 00 00	 jmp	 ___CxxFrameHandler
text$x	ENDS
?ILayoutChangeOb_LayerChanged@ILayoutChangeObserver@@UAEXV?$basic_string@DU?$char_traits@D@std@@V?$allocator@D@2@@std@@00@Z ENDP ; ILayoutChangeObserver::ILayoutChangeOb_LayerChanged
;	COMDAT xdata$x
xdata$x	SEGMENT
$T205050 DD	0ffffffffH
	DD	FLAT:$L205045
$T205048 DD	019930520H
	DD	01H
	DD	FLAT:$T205050
	DD	2 DUP(00H)
	DD	2 DUP(00H)
; Function compile flags: /Odt
xdata$x	ENDS
;	COMDAT ?ILayoutChangeOb_PaneChanged@ILayoutChangeObserver@@UAEXV?$basic_string@DU?$char_traits@D@std@@V?$allocator@D@2@@std@@0@Z
_TEXT	SEGMENT
_this$ = -16						; size = 4
__$EHRec$ = -12						; size = 12
_oldPaneName$ = 8					; size = 28
_newPaneName$ = 36					; size = 28
?ILayoutChangeOb_PaneChanged@ILayoutChangeObserver@@UAEXV?$basic_string@DU?$char_traits@D@std@@V?$allocator@D@2@@std@@0@Z PROC NEAR ; ILayoutChangeObserver::ILayoutChangeOb_PaneChanged, COMDAT
; _this$ = ecx

; 10   : 	virtual void	ILayoutChangeOb_PaneChanged(string oldPaneName, string newPaneName){};

  00000	55		 push	 ebp
  00001	8b ec		 mov	 ebp, esp
  00003	6a ff		 push	 -1
  00005	68 00 00 00 00	 push	 __ehhandler$?ILayoutChangeOb_PaneChanged@ILayoutChangeObserver@@UAEXV?$basic_string@DU?$char_traits@D@std@@V?$allocator@D@2@@std@@0@Z
  0000a	64 a1 00 00 00
	00		 mov	 eax, DWORD PTR fs:__except_list
  00010	50		 push	 eax
  00011	64 89 25 00 00
	00 00		 mov	 DWORD PTR fs:__except_list, esp
  00018	51		 push	 ecx
  00019	89 4d f0	 mov	 DWORD PTR _this$[ebp], ecx
  0001c	c7 45 fc 00 00
	00 00		 mov	 DWORD PTR __$EHRec$[ebp+8], 0
  00023	8d 4d 08	 lea	 ecx, DWORD PTR _oldPaneName$[ebp]
  00026	ff 15 00 00 00
	00		 call	 DWORD PTR __imp_??1?$basic_string@DU?$char_traits@D@std@@V?$allocator@D@2@@std@@QAE@XZ
  0002c	c7 45 fc ff ff
	ff ff		 mov	 DWORD PTR __$EHRec$[ebp+8], -1
  00033	8d 4d 24	 lea	 ecx, DWORD PTR _newPaneName$[ebp]
  00036	ff 15 00 00 00
	00		 call	 DWORD PTR __imp_??1?$basic_string@DU?$char_traits@D@std@@V?$allocator@D@2@@std@@QAE@XZ
  0003c	8b 4d f4	 mov	 ecx, DWORD PTR __$EHRec$[ebp]
  0003f	64 89 0d 00 00
	00 00		 mov	 DWORD PTR fs:__except_list, ecx
  00046	8b e5		 mov	 esp, ebp
  00048	5d		 pop	 ebp
  00049	c2 38 00	 ret	 56			; 00000038H
_TEXT	ENDS
;	COMDAT text$x
text$x	SEGMENT
$L205045:
  00000	8d 4d 24	 lea	 ecx, DWORD PTR _newPaneName$[ebp]
  00003	ff 25 00 00 00
	00		 jmp	 DWORD PTR __imp_??1?$basic_string@DU?$char_traits@D@std@@V?$allocator@D@2@@std@@QAE@XZ
__ehhandler$?ILayoutChangeOb_PaneChanged@ILayoutChangeObserver@@UAEXV?$basic_string@DU?$char_traits@D@std@@V?$allocator@D@2@@std@@0@Z:
  00009	b8 00 00 00 00	 mov	 eax, OFFSET FLAT:$T205048
  0000e	e9 00 00 00 00	 jmp	 ___CxxFrameHandler
text$x	ENDS
?ILayoutChangeOb_PaneChanged@ILayoutChangeObserver@@UAEXV?$basic_string@DU?$char_traits@D@std@@V?$allocator@D@2@@std@@0@Z ENDP ; ILayoutChangeObserver::ILayoutChangeOb_PaneChanged
; Function compile flags: /Odt
;	COMDAT ?ILayoutChangeOb_ColorChanged@ILayoutChangeObserver@@UAEXXZ
_TEXT	SEGMENT
_this$ = -4						; size = 4
?ILayoutChangeOb_ColorChanged@ILayoutChangeObserver@@UAEXXZ PROC NEAR ; ILayoutChangeObserver::ILayoutChangeOb_ColorChanged, COMDAT
; _this$ = ecx

; 12   : 	virtual void	ILayoutChangeOb_ColorChanged(){};

  00000	55		 push	 ebp
  00001	8b ec		 mov	 ebp, esp
  00003	51		 push	 ecx
  00004	89 4d fc	 mov	 DWORD PTR _this$[ebp], ecx
  00007	8b e5		 mov	 esp, ebp
  00009	5d		 pop	 ebp
  0000a	c3		 ret	 0
?ILayoutChangeOb_ColorChanged@ILayoutChangeObserver@@UAEXXZ ENDP ; ILayoutChangeObserver::ILayoutChangeOb_ColorChanged
; Function compile flags: /Odt
_TEXT	ENDS
;	COMDAT ?ILayoutChangeOb_ColorChanging@ILayoutChangeObserver@@UAEXXZ
_TEXT	SEGMENT
_this$ = -4						; size = 4
?ILayoutChangeOb_ColorChanging@ILayoutChangeObserver@@UAEXXZ PROC NEAR ; ILayoutChangeObserver::ILayoutChangeOb_ColorChanging, COMDAT
; _this$ = ecx

; 13   : 	virtual void	ILayoutChangeOb_ColorChanging(){};

  00000	55		 push	 ebp
  00001	8b ec		 mov	 ebp, esp
  00003	51		 push	 ecx
  00004	89 4d fc	 mov	 DWORD PTR _this$[ebp], ecx
  00007	8b e5		 mov	 esp, ebp
  00009	5d		 pop	 ebp
  0000a	c3		 ret	 0
?ILayoutChangeOb_ColorChanging@ILayoutChangeObserver@@UAEXXZ ENDP ; ILayoutChangeObserver::ILayoutChangeOb_ColorChanging
; Function compile flags: /Odt
_TEXT	ENDS
;	COMDAT ?ILayoutChangeOb_UpdateLayout@ILayoutChangeObserver@@UAEXPAUHWND__@@@Z
_TEXT	SEGMENT
_this$ = -4						; size = 4
_m_hWnd$ = 8						; size = 4
?ILayoutChangeOb_UpdateLayout@ILayoutChangeObserver@@UAEXPAUHWND__@@@Z PROC NEAR ; ILayoutChangeObserver::ILayoutChangeOb_UpdateLayout, COMDAT
; _this$ = ecx

; 14   : 	virtual void	ILayoutChangeOb_UpdateLayout(HWND m_hWnd){};

  00000	55		 push	 ebp
  00001	8b ec		 mov	 ebp, esp
  00003	51		 push	 ecx
  00004	89 4d fc	 mov	 DWORD PTR _this$[ebp], ecx
  00007	8b e5		 mov	 esp, ebp
  00009	5d		 pop	 ebp
  0000a	c2 04 00	 ret	 4
?ILayoutChangeOb_UpdateLayout@ILayoutChangeObserver@@UAEXPAUHWND__@@@Z ENDP ; ILayoutChangeObserver::ILayoutChangeOb_UpdateLayout
; Function compile flags: /Odt
_TEXT	ENDS
;	COMDAT ?ILayoutChangeOb_InitFinished@ILayoutChangeObserver@@UAEXXZ
_TEXT	SEGMENT
_this$ = -4						; size = 4
?ILayoutChangeOb_InitFinished@ILayoutChangeObserver@@UAEXXZ PROC NEAR ; ILayoutChangeObserver::ILayoutChangeOb_InitFinished, COMDAT
; _this$ = ecx

; 15   : 	virtual void	ILayoutChangeOb_InitFinished(){};

  00000	55		 push	 ebp
  00001	8b ec		 mov	 ebp, esp
  00003	51		 push	 ecx
  00004	89 4d fc	 mov	 DWORD PTR _this$[ebp], ecx
  00007	8b e5		 mov	 esp, ebp
  00009	5d		 pop	 ebp
  0000a	c3		 ret	 0
?ILayoutChangeOb_InitFinished@ILayoutChangeObserver@@UAEXXZ ENDP ; ILayoutChangeObserver::ILayoutChangeOb_InitFinished
; Function compile flags: /Odt
_TEXT	ENDS
;	COMDAT ?ILayoutChangeOb_InitBegin@ILayoutChangeObserver@@UAEXXZ
_TEXT	SEGMENT
_this$ = -4						; size = 4
?ILayoutChangeOb_InitBegin@ILayoutChangeObserver@@UAEXXZ PROC NEAR ; ILayoutChangeObserver::ILayoutChangeOb_InitBegin, COMDAT
; _this$ = ecx

; 16   : 	virtual void	ILayoutChangeOb_InitBegin(){};

  00000	55		 push	 ebp
  00001	8b ec		 mov	 ebp, esp
  00003	51		 push	 ecx
  00004	89 4d fc	 mov	 DWORD PTR _this$[ebp], ecx
  00007	8b e5		 mov	 esp, ebp
  00009	5d		 pop	 ebp
  0000a	c3		 ret	 0
?ILayoutChangeOb_InitBegin@ILayoutChangeObserver@@UAEXXZ ENDP ; ILayoutChangeObserver::ILayoutChangeOb_InitBegin
; Function compile flags: /Odt
; File d:\boxgit\playbox\playbox\dev\prj\playbox\src\layoutmgr\changecolor\ichangecolormgr.h
_TEXT	ENDS
;	COMDAT ?GetSkinWnd@CSkinMgrV1@@UAEPAVCWnd@@XZ
_TEXT	SEGMENT
_this$ = -4						; size = 4
?GetSkinWnd@CSkinMgrV1@@UAEPAVCWnd@@XZ PROC NEAR	; CSkinMgrV1::GetSkinWnd, COMDAT
; _this$ = ecx

; 95   : 	virtual CWnd*	GetSkinWnd(){return mp_mainSkinWnd;};

  00000	55		 push	 ebp
  00001	8b ec		 mov	 ebp, esp
  00003	51		 push	 ecx
  00004	89 4d fc	 mov	 DWORD PTR _this$[ebp], ecx
  00007	8b 45 fc	 mov	 eax, DWORD PTR _this$[ebp]
  0000a	8b 40 10	 mov	 eax, DWORD PTR [eax+16]
  0000d	8b e5		 mov	 esp, ebp
  0000f	5d		 pop	 ebp
  00010	c3		 ret	 0
?GetSkinWnd@CSkinMgrV1@@UAEPAVCWnd@@XZ ENDP		; CSkinMgrV1::GetSkinWnd
_TEXT	ENDS
PUBLIC	?OnSendChangeColor@IEventListener@@UAEXKI_N@Z	; IEventListener::OnSendChangeColor
PUBLIC	?OnSendChangeSkin@IEventListener@@UAEXV?$CStringT@DV?$StrTraitMFC_DLL@DV?$ChTraitsCRT@D@ATL@@@@@ATL@@@Z ; IEventListener::OnSendChangeSkin
PUBLIC	?OnSendChangeSubject@IEventListener@@UAEXV?$CStringT@DV?$StrTraitMFC_DLL@DV?$ChTraitsCRT@D@ATL@@@@@ATL@@0@Z ; IEventListener::OnSendChangeSubject
PUBLIC	?OnChangeSkinAndSub@IEventListener@@UAEXABV?$CStringT@DV?$StrTraitMFC_DLL@DV?$ChTraitsCRT@D@ATL@@@@@ATL@@0@Z ; IEventListener::OnChangeSkinAndSub
PUBLIC	?OnStartDownSubject@IEventListener@@UAEXABV?$CStringT@DV?$StrTraitMFC_DLL@DV?$ChTraitsCRT@D@ATL@@@@@ATL@@@Z ; IEventListener::OnStartDownSubject
PUBLIC	?OnFinishDownSubject@IEventListener@@UAEXH@Z	; IEventListener::OnFinishDownSubject
PUBLIC	??0IEventListener@@QAE@XZ			; IEventListener::IEventListener
PUBLIC	??_R4IChangeColorMgr@@6BIWndEventListener@@@	; IChangeColorMgr::`RTTI Complete Object Locator'
PUBLIC	??_R3IChangeColorMgr@@8				; IChangeColorMgr::`RTTI Class Hierarchy Descriptor'
PUBLIC	??_R2IChangeColorMgr@@8				; IChangeColorMgr::`RTTI Base Class Array'
PUBLIC	??_R4IChangeColorMgr@@6BIEventListener@@@	; IChangeColorMgr::`RTTI Complete Object Locator'
PUBLIC	??0IWndEventListener@@QAE@XZ			; IWndEventListener::IWndEventListener
PUBLIC	??_7IChangeColorMgr@@6BIWndEventListener@@@	; IChangeColorMgr::`vftable'
PUBLIC	??_7IChangeColorMgr@@6BIEventListener@@@	; IChangeColorMgr::`vftable'
EXTRN	__purecall:NEAR
;	COMDAT ??_7IChangeColorMgr@@6BIWndEventListener@@@
CONST	SEGMENT
??_7IChangeColorMgr@@6BIWndEventListener@@@ DD FLAT:??_R4IChangeColorMgr@@6BIWndEventListener@@@ ; IChangeColorMgr::`vftable'
	DD	FLAT:?OnChangeSkinTemplate@IWndEventListener@@UAE_NV?$CStringT@DV?$StrTraitMFC_DLL@DV?$ChTraitsCRT@D@ATL@@@@@ATL@@@Z
	DD	FLAT:?OnchangeColor@IWndEventListener@@UAEXKI@Z
	DD	FLAT:__purecall
	DD	FLAT:__purecall
	DD	FLAT:__purecall
	DD	FLAT:__purecall
	DD	FLAT:__purecall
	DD	FLAT:__purecall
	DD	FLAT:__purecall
	DD	FLAT:__purecall
	DD	FLAT:__purecall
	DD	FLAT:__purecall
	DD	FLAT:__purecall
	DD	FLAT:__purecall
	DD	FLAT:__purecall
	DD	FLAT:__purecall
	DD	FLAT:__purecall
	DD	FLAT:__purecall
	DD	FLAT:__purecall
	DD	FLAT:__purecall
	DD	FLAT:__purecall
	DD	FLAT:__purecall
	DD	FLAT:__purecall
	DD	FLAT:__purecall
	DD	FLAT:__purecall
CONST	ENDS
;	COMDAT ??_7IChangeColorMgr@@6BIEventListener@@@
CONST	SEGMENT
??_7IChangeColorMgr@@6BIEventListener@@@ DD FLAT:??_R4IChangeColorMgr@@6BIEventListener@@@ ; IChangeColorMgr::`vftable'
	DD	FLAT:?OnCliekButton@IEventListener@@UAEXPAVCButton@@@Z
	DD	FLAT:?OnCliekSlide@IEventListener@@UAEXPAVCSliderCtrl@@@Z
	DD	FLAT:?OnSendChangeColor@IEventListener@@UAEXKI_N@Z
	DD	FLAT:?OnSendChangeSkin@IEventListener@@UAEXV?$CStringT@DV?$StrTraitMFC_DLL@DV?$ChTraitsCRT@D@ATL@@@@@ATL@@@Z
	DD	FLAT:?OnSendChangeSubject@IEventListener@@UAEXV?$CStringT@DV?$StrTraitMFC_DLL@DV?$ChTraitsCRT@D@ATL@@@@@ATL@@0@Z
	DD	FLAT:?OnChangeSkinAndSub@IEventListener@@UAEXABV?$CStringT@DV?$StrTraitMFC_DLL@DV?$ChTraitsCRT@D@ATL@@@@@ATL@@0@Z
	DD	FLAT:?OnStartDownSubject@IEventListener@@UAEXABV?$CStringT@DV?$StrTraitMFC_DLL@DV?$ChTraitsCRT@D@ATL@@@@@ATL@@@Z
	DD	FLAT:?OnFinishDownSubject@IEventListener@@UAEXH@Z
CONST	ENDS
;	COMDAT ??_R4IChangeColorMgr@@6BIWndEventListener@@@
rdata$r	SEGMENT
??_R4IChangeColorMgr@@6BIWndEventListener@@@ DD 00H	; IChangeColorMgr::`RTTI Complete Object Locator'
	DD	00H
	DD	00H
	DD	FLAT:??_R0?AVIChangeColorMgr@@@8
	DD	FLAT:??_R3IChangeColorMgr@@8
rdata$r	ENDS
;	COMDAT ??_R3IChangeColorMgr@@8
rdata$r	SEGMENT
??_R3IChangeColorMgr@@8 DD 00H				; IChangeColorMgr::`RTTI Class Hierarchy Descriptor'
	DD	01H
	DD	03H
	DD	FLAT:??_R2IChangeColorMgr@@8
rdata$r	ENDS
;	COMDAT ??_R2IChangeColorMgr@@8
rdata$r	SEGMENT
??_R2IChangeColorMgr@@8 DD FLAT:??_R1A@?0A@A@IChangeColorMgr@@8 ; IChangeColorMgr::`RTTI Base Class Array'
	DD	FLAT:??_R1A@?0A@A@IWndEventListener@@8
	DD	FLAT:??_R13?0A@A@IEventListener@@8
rdata$r	ENDS
;	COMDAT ??_R4IChangeColorMgr@@6BIEventListener@@@
rdata$r	SEGMENT
??_R4IChangeColorMgr@@6BIEventListener@@@ DD 00H	; IChangeColorMgr::`RTTI Complete Object Locator'
	DD	04H
	DD	00H
	DD	FLAT:??_R0?AVIChangeColorMgr@@@8
	DD	FLAT:??_R3IChangeColorMgr@@8
; Function compile flags: /Odt
rdata$r	ENDS
;	COMDAT ??0IChangeColorMgr@@QAE@XZ
_TEXT	SEGMENT
_this$ = -4						; size = 4
??0IChangeColorMgr@@QAE@XZ PROC NEAR			; IChangeColorMgr::IChangeColorMgr, COMDAT
; _this$ = ecx
  00000	55		 push	 ebp
  00001	8b ec		 mov	 ebp, esp
  00003	51		 push	 ecx
  00004	89 4d fc	 mov	 DWORD PTR _this$[ebp], ecx
  00007	8b 4d fc	 mov	 ecx, DWORD PTR _this$[ebp]
  0000a	e8 00 00 00 00	 call	 ??0IWndEventListener@@QAE@XZ
  0000f	8b 4d fc	 mov	 ecx, DWORD PTR _this$[ebp]
  00012	83 c1 04	 add	 ecx, 4
  00015	e8 00 00 00 00	 call	 ??0IEventListener@@QAE@XZ
  0001a	8b 45 fc	 mov	 eax, DWORD PTR _this$[ebp]
  0001d	c7 00 00 00 00
	00		 mov	 DWORD PTR [eax], OFFSET FLAT:??_7IChangeColorMgr@@6BIWndEventListener@@@
  00023	8b 4d fc	 mov	 ecx, DWORD PTR _this$[ebp]
  00026	c7 41 04 00 00
	00 00		 mov	 DWORD PTR [ecx+4], OFFSET FLAT:??_7IChangeColorMgr@@6BIEventListener@@@
  0002d	8b 45 fc	 mov	 eax, DWORD PTR _this$[ebp]
  00030	8b e5		 mov	 esp, ebp
  00032	5d		 pop	 ebp
  00033	c3		 ret	 0
??0IChangeColorMgr@@QAE@XZ ENDP				; IChangeColorMgr::IChangeColorMgr
; Function compile flags: /Odt
; File d:\boxgit\playbox\playbox\dev\prj\playbox\src\layoutmgr\changecolor\ievent.h
_TEXT	ENDS
;	COMDAT ?OnSendChangeColor@IEventListener@@UAEXKI_N@Z
_TEXT	SEGMENT
_this$ = -4						; size = 4
_acolCol$ = 8						; size = 4
_anLightValue$ = 12					; size = 4
_bChangeTop$ = 16					; size = 1
?OnSendChangeColor@IEventListener@@UAEXKI_N@Z PROC NEAR	; IEventListener::OnSendChangeColor, COMDAT
; _this$ = ecx

; 9    : 	virtual void OnSendChangeColor( COLORREF acolCol, UINT anLightValue,bool bChangeTop = true ){};

  00000	55		 push	 ebp
  00001	8b ec		 mov	 ebp, esp
  00003	51		 push	 ecx
  00004	89 4d fc	 mov	 DWORD PTR _this$[ebp], ecx
  00007	8b e5		 mov	 esp, ebp
  00009	5d		 pop	 ebp
  0000a	c2 0c 00	 ret	 12			; 0000000cH
?OnSendChangeColor@IEventListener@@UAEXKI_N@Z ENDP	; IEventListener::OnSendChangeColor
; Function compile flags: /Odt
_TEXT	ENDS
;	COMDAT ?OnSendChangeSkin@IEventListener@@UAEXV?$CStringT@DV?$StrTraitMFC_DLL@DV?$ChTraitsCRT@D@ATL@@@@@ATL@@@Z
_TEXT	SEGMENT
_this$ = -4						; size = 4
_strPath$ = 8						; size = 4
?OnSendChangeSkin@IEventListener@@UAEXV?$CStringT@DV?$StrTraitMFC_DLL@DV?$ChTraitsCRT@D@ATL@@@@@ATL@@@Z PROC NEAR ; IEventListener::OnSendChangeSkin, COMDAT
; _this$ = ecx

; 10   : 	virtual void OnSendChangeSkin ( CString strPath){};	

  00000	55		 push	 ebp
  00001	8b ec		 mov	 ebp, esp
  00003	51		 push	 ecx
  00004	89 4d fc	 mov	 DWORD PTR _this$[ebp], ecx
  00007	8d 4d 08	 lea	 ecx, DWORD PTR _strPath$[ebp]
  0000a	ff 15 00 00 00
	00		 call	 DWORD PTR __imp_??1?$CStringT@DV?$StrTraitMFC_DLL@DV?$ChTraitsCRT@D@ATL@@@@@ATL@@QAE@XZ
  00010	8b e5		 mov	 esp, ebp
  00012	5d		 pop	 ebp
  00013	c2 04 00	 ret	 4
?OnSendChangeSkin@IEventListener@@UAEXV?$CStringT@DV?$StrTraitMFC_DLL@DV?$ChTraitsCRT@D@ATL@@@@@ATL@@@Z ENDP ; IEventListener::OnSendChangeSkin
; Function compile flags: /Odt
_TEXT	ENDS
;	COMDAT ?OnSendChangeSubject@IEventListener@@UAEXV?$CStringT@DV?$StrTraitMFC_DLL@DV?$ChTraitsCRT@D@ATL@@@@@ATL@@0@Z
_TEXT	SEGMENT
_this$ = -4						; size = 4
___formal$ = 8						; size = 4
_subjectName$ = 12					; size = 4
?OnSendChangeSubject@IEventListener@@UAEXV?$CStringT@DV?$StrTraitMFC_DLL@DV?$ChTraitsCRT@D@ATL@@@@@ATL@@0@Z PROC NEAR ; IEventListener::OnSendChangeSubject, COMDAT
; _this$ = ecx

; 11   : 	virtual void OnSendChangeSubject(CString,CString subjectName){};

  00000	55		 push	 ebp
  00001	8b ec		 mov	 ebp, esp
  00003	51		 push	 ecx
  00004	89 4d fc	 mov	 DWORD PTR _this$[ebp], ecx
  00007	8d 4d 08	 lea	 ecx, DWORD PTR ___formal$[ebp]
  0000a	ff 15 00 00 00
	00		 call	 DWORD PTR __imp_??1?$CStringT@DV?$StrTraitMFC_DLL@DV?$ChTraitsCRT@D@ATL@@@@@ATL@@QAE@XZ
  00010	8d 4d 0c	 lea	 ecx, DWORD PTR _subjectName$[ebp]
  00013	ff 15 00 00 00
	00		 call	 DWORD PTR __imp_??1?$CStringT@DV?$StrTraitMFC_DLL@DV?$ChTraitsCRT@D@ATL@@@@@ATL@@QAE@XZ
  00019	8b e5		 mov	 esp, ebp
  0001b	5d		 pop	 ebp
  0001c	c2 08 00	 ret	 8
?OnSendChangeSubject@IEventListener@@UAEXV?$CStringT@DV?$StrTraitMFC_DLL@DV?$ChTraitsCRT@D@ATL@@@@@ATL@@0@Z ENDP ; IEventListener::OnSendChangeSubject
; Function compile flags: /Odt
_TEXT	ENDS
;	COMDAT ?OnChangeSkinAndSub@IEventListener@@UAEXABV?$CStringT@DV?$StrTraitMFC_DLL@DV?$ChTraitsCRT@D@ATL@@@@@ATL@@0@Z
_TEXT	SEGMENT
_this$ = -4						; size = 4
_strPath$ = 8						; size = 4
_strSub$ = 12						; size = 4
?OnChangeSkinAndSub@IEventListener@@UAEXABV?$CStringT@DV?$StrTraitMFC_DLL@DV?$ChTraitsCRT@D@ATL@@@@@ATL@@0@Z PROC NEAR ; IEventListener::OnChangeSkinAndSub, COMDAT
; _this$ = ecx

; 12   : 	virtual void OnChangeSkinAndSub(const CString& strPath,const CString& strSub){};

  00000	55		 push	 ebp
  00001	8b ec		 mov	 ebp, esp
  00003	51		 push	 ecx
  00004	89 4d fc	 mov	 DWORD PTR _this$[ebp], ecx
  00007	8b e5		 mov	 esp, ebp
  00009	5d		 pop	 ebp
  0000a	c2 08 00	 ret	 8
?OnChangeSkinAndSub@IEventListener@@UAEXABV?$CStringT@DV?$StrTraitMFC_DLL@DV?$ChTraitsCRT@D@ATL@@@@@ATL@@0@Z ENDP ; IEventListener::OnChangeSkinAndSub
; Function compile flags: /Odt
_TEXT	ENDS
;	COMDAT ?OnStartDownSubject@IEventListener@@UAEXABV?$CStringT@DV?$StrTraitMFC_DLL@DV?$ChTraitsCRT@D@ATL@@@@@ATL@@@Z
_TEXT	SEGMENT
_this$ = -4						; size = 4
_strSubName$ = 8					; size = 4
?OnStartDownSubject@IEventListener@@UAEXABV?$CStringT@DV?$StrTraitMFC_DLL@DV?$ChTraitsCRT@D@ATL@@@@@ATL@@@Z PROC NEAR ; IEventListener::OnStartDownSubject, COMDAT
; _this$ = ecx

; 13   : 	virtual void OnStartDownSubject(const CString& strSubName){};

  00000	55		 push	 ebp
  00001	8b ec		 mov	 ebp, esp
  00003	51		 push	 ecx
  00004	89 4d fc	 mov	 DWORD PTR _this$[ebp], ecx
  00007	8b e5		 mov	 esp, ebp
  00009	5d		 pop	 ebp
  0000a	c2 04 00	 ret	 4
?OnStartDownSubject@IEventListener@@UAEXABV?$CStringT@DV?$StrTraitMFC_DLL@DV?$ChTraitsCRT@D@ATL@@@@@ATL@@@Z ENDP ; IEventListener::OnStartDownSubject
; Function compile flags: /Odt
_TEXT	ENDS
;	COMDAT ?OnFinishDownSubject@IEventListener@@UAEXH@Z
_TEXT	SEGMENT
_this$ = -4						; size = 4
_bSuc$ = 8						; size = 4
?OnFinishDownSubject@IEventListener@@UAEXH@Z PROC NEAR	; IEventListener::OnFinishDownSubject, COMDAT
; _this$ = ecx

; 14   : 	virtual void OnFinishDownSubject(BOOL bSuc){};

  00000	55		 push	 ebp
  00001	8b ec		 mov	 ebp, esp
  00003	51		 push	 ecx
  00004	89 4d fc	 mov	 DWORD PTR _this$[ebp], ecx
  00007	8b e5		 mov	 esp, ebp
  00009	5d		 pop	 ebp
  0000a	c2 04 00	 ret	 4
?OnFinishDownSubject@IEventListener@@UAEXH@Z ENDP	; IEventListener::OnFinishDownSubject
; Function compile flags: /Odt
_TEXT	ENDS
;	COMDAT ??0P2PObserver@@QAE@XZ
_TEXT	SEGMENT
_this$ = -4						; size = 4
??0P2PObserver@@QAE@XZ PROC NEAR			; P2PObserver::P2PObserver, COMDAT
; _this$ = ecx
  00000	55		 push	 ebp
  00001	8b ec		 mov	 ebp, esp
  00003	51		 push	 ecx
  00004	89 4d fc	 mov	 DWORD PTR _this$[ebp], ecx
  00007	8b 45 fc	 mov	 eax, DWORD PTR _this$[ebp]
  0000a	c7 00 00 00 00
	00		 mov	 DWORD PTR [eax], OFFSET FLAT:??_7P2PObserver@@6B@
  00010	8b 45 fc	 mov	 eax, DWORD PTR _this$[ebp]
  00013	8b e5		 mov	 esp, ebp
  00015	5d		 pop	 ebp
  00016	c3		 ret	 0
??0P2PObserver@@QAE@XZ ENDP				; P2PObserver::P2PObserver
_TEXT	ENDS
PUBLIC	??_R1A@?0A@A@IMessageObserver@@8		; IMessageObserver::`RTTI Base Class Descriptor at (0,-1,0,0)'
PUBLIC	?ILayoutChangeOb_SkinChanged@ILayoutChangeObserver@@UAEXV?$basic_string@DU?$char_traits@D@std@@V?$allocator@D@2@@std@@0@Z ; ILayoutChangeObserver::ILayoutChangeOb_SkinChanged
PUBLIC	??_7ILayoutChangeObserver@@6B@			; ILayoutChangeObserver::`vftable'
PUBLIC	??_GILayoutChangeObserver@@UAEPAXI@Z		; ILayoutChangeObserver::`scalar deleting destructor'
PUBLIC	??_R4ILayoutChangeObserver@@6B@			; ILayoutChangeObserver::`RTTI Complete Object Locator'
PUBLIC	??_R3ILayoutChangeObserver@@8			; ILayoutChangeObserver::`RTTI Class Hierarchy Descriptor'
PUBLIC	??_R2ILayoutChangeObserver@@8			; ILayoutChangeObserver::`RTTI Base Class Array'
PUBLIC	??_R1A@?0A@A@ILayoutChangeObserver@@8		; ILayoutChangeObserver::`RTTI Base Class Descriptor at (0,-1,0,0)'
PUBLIC	??0IMessageObserver@@QAE@XZ			; IMessageObserver::IMessageObserver
EXTRN	??_EILayoutChangeObserver@@UAEPAXI@Z:NEAR	; ILayoutChangeObserver::`vector deleting destructor'
;	COMDAT ??_7ILayoutChangeObserver@@6B@
CONST	SEGMENT
??_7ILayoutChangeObserver@@6B@ DD FLAT:??_R4ILayoutChangeObserver@@6B@ ; ILayoutChangeObserver::`vftable'
	DD	FLAT:??_EILayoutChangeObserver@@UAEPAXI@Z
	DD	FLAT:?ILayoutChangeOb_LayerChanged@ILayoutChangeObserver@@UAEXV?$basic_string@DU?$char_traits@D@std@@V?$allocator@D@2@@std@@00@Z
	DD	FLAT:?ILayoutChangeOb_PaneChanged@ILayoutChangeObserver@@UAEXV?$basic_string@DU?$char_traits@D@std@@V?$allocator@D@2@@std@@0@Z
	DD	FLAT:?ILayoutChangeOb_SkinChanged@ILayoutChangeObserver@@UAEXV?$basic_string@DU?$char_traits@D@std@@V?$allocator@D@2@@std@@0@Z
	DD	FLAT:?ILayoutChangeOb_ColorChanged@ILayoutChangeObserver@@UAEXXZ
	DD	FLAT:?ILayoutChangeOb_ColorChanging@ILayoutChangeObserver@@UAEXXZ
	DD	FLAT:?ILayoutChangeOb_UpdateLayout@ILayoutChangeObserver@@UAEXPAUHWND__@@@Z
	DD	FLAT:?ILayoutChangeOb_InitFinished@ILayoutChangeObserver@@UAEXXZ
	DD	FLAT:?ILayoutChangeOb_InitBegin@ILayoutChangeObserver@@UAEXXZ
CONST	ENDS
;	COMDAT ??_R4ILayoutChangeObserver@@6B@
rdata$r	SEGMENT
??_R4ILayoutChangeObserver@@6B@ DD 00H			; ILayoutChangeObserver::`RTTI Complete Object Locator'
	DD	00H
	DD	00H
	DD	FLAT:??_R0?AVILayoutChangeObserver@@@8
	DD	FLAT:??_R3ILayoutChangeObserver@@8
rdata$r	ENDS
;	COMDAT ??_R3ILayoutChangeObserver@@8
rdata$r	SEGMENT
??_R3ILayoutChangeObserver@@8 DD 00H			; ILayoutChangeObserver::`RTTI Class Hierarchy Descriptor'
	DD	00H
	DD	02H
	DD	FLAT:??_R2ILayoutChangeObserver@@8
rdata$r	ENDS
;	COMDAT ??_R2ILayoutChangeObserver@@8
rdata$r	SEGMENT
??_R2ILayoutChangeObserver@@8 DD FLAT:??_R1A@?0A@A@ILayoutChangeObserver@@8 ; ILayoutChangeObserver::`RTTI Base Class Array'
	DD	FLAT:??_R1A@?0A@A@IMessageObserver@@8
rdata$r	ENDS
;	COMDAT ??_R1A@?0A@A@ILayoutChangeObserver@@8
rdata$r	SEGMENT
??_R1A@?0A@A@ILayoutChangeObserver@@8 DD FLAT:??_R0?AVILayoutChangeObserver@@@8 ; ILayoutChangeObserver::`RTTI Base Class Descriptor at (0,-1,0,0)'
	DD	01H
	DD	00H
	DD	0ffffffffH
	DD	00H
	DD	00H
rdata$r	ENDS
;	COMDAT ??_R1A@?0A@A@IMessageObserver@@8
rdata$r	SEGMENT
??_R1A@?0A@A@IMessageObserver@@8 DD FLAT:??_R0?AVIMessageObserver@@@8 ; IMessageObserver::`RTTI Base Class Descriptor at (0,-1,0,0)'
	DD	00H
	DD	00H
	DD	0ffffffffH
	DD	00H
	DD	00H
; Function compile flags: /Odt
rdata$r	ENDS
;	COMDAT ??0ILayoutChangeObserver@@QAE@XZ
_TEXT	SEGMENT
_this$ = -4						; size = 4
??0ILayoutChangeObserver@@QAE@XZ PROC NEAR		; ILayoutChangeObserver::ILayoutChangeObserver, COMDAT
; _this$ = ecx
  00000	55		 push	 ebp
  00001	8b ec		 mov	 ebp, esp
  00003	51		 push	 ecx
  00004	89 4d fc	 mov	 DWORD PTR _this$[ebp], ecx
  00007	8b 4d fc	 mov	 ecx, DWORD PTR _this$[ebp]
  0000a	e8 00 00 00 00	 call	 ??0IMessageObserver@@QAE@XZ
  0000f	8b 45 fc	 mov	 eax, DWORD PTR _this$[ebp]
  00012	c7 00 00 00 00
	00		 mov	 DWORD PTR [eax], OFFSET FLAT:??_7ILayoutChangeObserver@@6B@
  00018	8b 45 fc	 mov	 eax, DWORD PTR _this$[ebp]
  0001b	8b e5		 mov	 esp, ebp
  0001d	5d		 pop	 ebp
  0001e	c3		 ret	 0
??0ILayoutChangeObserver@@QAE@XZ ENDP			; ILayoutChangeObserver::ILayoutChangeObserver
_TEXT	ENDS
;	COMDAT xdata$x
; File d:\boxgit\playbox\playbox\dev\prj\playbox\src\datainterface\ilayoutchangeobserver.h
xdata$x	SEGMENT
$T205093 DD	0ffffffffH
	DD	FLAT:$L205088
$T205091 DD	019930520H
	DD	01H
	DD	FLAT:$T205093
	DD	2 DUP(00H)
	DD	2 DUP(00H)
; Function compile flags: /Odt
xdata$x	ENDS
;	COMDAT ?ILayoutChangeOb_SkinChanged@ILayoutChangeObserver@@UAEXV?$basic_string@DU?$char_traits@D@std@@V?$allocator@D@2@@std@@0@Z
_TEXT	SEGMENT
_this$ = -16						; size = 4
__$EHRec$ = -12						; size = 12
_oldSkinPath$ = 8					; size = 28
_newSkinPath$ = 36					; size = 28
?ILayoutChangeOb_SkinChanged@ILayoutChangeObserver@@UAEXV?$basic_string@DU?$char_traits@D@std@@V?$allocator@D@2@@std@@0@Z PROC NEAR ; ILayoutChangeObserver::ILayoutChangeOb_SkinChanged, COMDAT
; _this$ = ecx

; 11   : 	virtual void	ILayoutChangeOb_SkinChanged(string oldSkinPath, string newSkinPath){};

  00000	55		 push	 ebp
  00001	8b ec		 mov	 ebp, esp
  00003	6a ff		 push	 -1
  00005	68 00 00 00 00	 push	 __ehhandler$?ILayoutChangeOb_SkinChanged@ILayoutChangeObserver@@UAEXV?$basic_string@DU?$char_traits@D@std@@V?$allocator@D@2@@std@@0@Z
  0000a	64 a1 00 00 00
	00		 mov	 eax, DWORD PTR fs:__except_list
  00010	50		 push	 eax
  00011	64 89 25 00 00
	00 00		 mov	 DWORD PTR fs:__except_list, esp
  00018	51		 push	 ecx
  00019	89 4d f0	 mov	 DWORD PTR _this$[ebp], ecx
  0001c	c7 45 fc 00 00
	00 00		 mov	 DWORD PTR __$EHRec$[ebp+8], 0
  00023	8d 4d 08	 lea	 ecx, DWORD PTR _oldSkinPath$[ebp]
  00026	ff 15 00 00 00
	00		 call	 DWORD PTR __imp_??1?$basic_string@DU?$char_traits@D@std@@V?$allocator@D@2@@std@@QAE@XZ
  0002c	c7 45 fc ff ff
	ff ff		 mov	 DWORD PTR __$EHRec$[ebp+8], -1
  00033	8d 4d 24	 lea	 ecx, DWORD PTR _newSkinPath$[ebp]
  00036	ff 15 00 00 00
	00		 call	 DWORD PTR __imp_??1?$basic_string@DU?$char_traits@D@std@@V?$allocator@D@2@@std@@QAE@XZ
  0003c	8b 4d f4	 mov	 ecx, DWORD PTR __$EHRec$[ebp]
  0003f	64 89 0d 00 00
	00 00		 mov	 DWORD PTR fs:__except_list, ecx
  00046	8b e5		 mov	 esp, ebp
  00048	5d		 pop	 ebp
  00049	c2 38 00	 ret	 56			; 00000038H
_TEXT	ENDS
;	COMDAT text$x
text$x	SEGMENT
$L205088:
  00000	8d 4d 24	 lea	 ecx, DWORD PTR _newSkinPath$[ebp]
  00003	ff 25 00 00 00
	00		 jmp	 DWORD PTR __imp_??1?$basic_string@DU?$char_traits@D@std@@V?$allocator@D@2@@std@@QAE@XZ
__ehhandler$?ILayoutChangeOb_SkinChanged@ILayoutChangeObserver@@UAEXV?$basic_string@DU?$char_traits@D@std@@V?$allocator@D@2@@std@@0@Z:
  00009	b8 00 00 00 00	 mov	 eax, OFFSET FLAT:$T205091
  0000e	e9 00 00 00 00	 jmp	 ___CxxFrameHandler
text$x	ENDS
?ILayoutChangeOb_SkinChanged@ILayoutChangeObserver@@UAEXV?$basic_string@DU?$char_traits@D@std@@V?$allocator@D@2@@std@@0@Z ENDP ; ILayoutChangeObserver::ILayoutChangeOb_SkinChanged
PUBLIC	??1IMessageObserver@@UAE@XZ			; IMessageObserver::~IMessageObserver
; Function compile flags: /Odt
;	COMDAT ??1ILayoutChangeObserver@@UAE@XZ
_TEXT	SEGMENT
_this$ = -4						; size = 4
??1ILayoutChangeObserver@@UAE@XZ PROC NEAR		; ILayoutChangeObserver::~ILayoutChangeObserver, COMDAT
; _this$ = ecx
  00000	55		 push	 ebp
  00001	8b ec		 mov	 ebp, esp
  00003	51		 push	 ecx
  00004	89 4d fc	 mov	 DWORD PTR _this$[ebp], ecx
  00007	8b 4d fc	 mov	 ecx, DWORD PTR _this$[ebp]
  0000a	e8 00 00 00 00	 call	 ??1IMessageObserver@@UAE@XZ ; IMessageObserver::~IMessageObserver
  0000f	8b e5		 mov	 esp, ebp
  00011	5d		 pop	 ebp
  00012	c3		 ret	 0
??1ILayoutChangeObserver@@UAE@XZ ENDP			; ILayoutChangeObserver::~ILayoutChangeObserver
_TEXT	ENDS
PUBLIC	??_R4IWndEventListener@@6B@			; IWndEventListener::`RTTI Complete Object Locator'
PUBLIC	??_R3IWndEventListener@@8			; IWndEventListener::`RTTI Class Hierarchy Descriptor'
PUBLIC	??_R2IWndEventListener@@8			; IWndEventListener::`RTTI Base Class Array'
PUBLIC	??_7IWndEventListener@@6B@			; IWndEventListener::`vftable'
;	COMDAT ??_7IWndEventListener@@6B@
CONST	SEGMENT
??_7IWndEventListener@@6B@ DD FLAT:??_R4IWndEventListener@@6B@ ; IWndEventListener::`vftable'
	DD	FLAT:?OnChangeSkinTemplate@IWndEventListener@@UAE_NV?$CStringT@DV?$StrTraitMFC_DLL@DV?$ChTraitsCRT@D@ATL@@@@@ATL@@@Z
	DD	FLAT:?OnchangeColor@IWndEventListener@@UAEXKI@Z
	DD	FLAT:__purecall
CONST	ENDS
;	COMDAT ??_R4IWndEventListener@@6B@
rdata$r	SEGMENT
??_R4IWndEventListener@@6B@ DD 00H			; IWndEventListener::`RTTI Complete Object Locator'
	DD	00H
	DD	00H
	DD	FLAT:??_R0?AVIWndEventListener@@@8
	DD	FLAT:??_R3IWndEventListener@@8
rdata$r	ENDS
;	COMDAT ??_R3IWndEventListener@@8
rdata$r	SEGMENT
??_R3IWndEventListener@@8 DD 00H			; IWndEventListener::`RTTI Class Hierarchy Descriptor'
	DD	00H
	DD	01H
	DD	FLAT:??_R2IWndEventListener@@8
rdata$r	ENDS
;	COMDAT ??_R2IWndEventListener@@8
rdata$r	SEGMENT
??_R2IWndEventListener@@8 DD FLAT:??_R1A@?0A@A@IWndEventListener@@8 ; IWndEventListener::`RTTI Base Class Array'
; Function compile flags: /Odt
rdata$r	ENDS
;	COMDAT ??0IWndEventListener@@QAE@XZ
_TEXT	SEGMENT
_this$ = -4						; size = 4
??0IWndEventListener@@QAE@XZ PROC NEAR			; IWndEventListener::IWndEventListener, COMDAT
; _this$ = ecx
  00000	55		 push	 ebp
  00001	8b ec		 mov	 ebp, esp
  00003	51		 push	 ecx
  00004	89 4d fc	 mov	 DWORD PTR _this$[ebp], ecx
  00007	8b 45 fc	 mov	 eax, DWORD PTR _this$[ebp]
  0000a	c7 00 00 00 00
	00		 mov	 DWORD PTR [eax], OFFSET FLAT:??_7IWndEventListener@@6B@
  00010	8b 45 fc	 mov	 eax, DWORD PTR _this$[ebp]
  00013	8b e5		 mov	 esp, ebp
  00015	5d		 pop	 ebp
  00016	c3		 ret	 0
??0IWndEventListener@@QAE@XZ ENDP			; IWndEventListener::IWndEventListener
_TEXT	ENDS
PUBLIC	??_7IEventListener@@6B@				; IEventListener::`vftable'
PUBLIC	??_R4IEventListener@@6B@			; IEventListener::`RTTI Complete Object Locator'
PUBLIC	??_R3IEventListener@@8				; IEventListener::`RTTI Class Hierarchy Descriptor'
PUBLIC	??_R2IEventListener@@8				; IEventListener::`RTTI Base Class Array'
PUBLIC	??_R1A@?0A@A@IEventListener@@8			; IEventListener::`RTTI Base Class Descriptor at (0,-1,0,0)'
;	COMDAT ??_7IEventListener@@6B@
CONST	SEGMENT
??_7IEventListener@@6B@ DD FLAT:??_R4IEventListener@@6B@ ; IEventListener::`vftable'
	DD	FLAT:?OnCliekButton@IEventListener@@UAEXPAVCButton@@@Z
	DD	FLAT:?OnCliekSlide@IEventListener@@UAEXPAVCSliderCtrl@@@Z
	DD	FLAT:?OnSendChangeColor@IEventListener@@UAEXKI_N@Z
	DD	FLAT:?OnSendChangeSkin@IEventListener@@UAEXV?$CStringT@DV?$StrTraitMFC_DLL@DV?$ChTraitsCRT@D@ATL@@@@@ATL@@@Z
	DD	FLAT:?OnSendChangeSubject@IEventListener@@UAEXV?$CStringT@DV?$StrTraitMFC_DLL@DV?$ChTraitsCRT@D@ATL@@@@@ATL@@0@Z
	DD	FLAT:?OnChangeSkinAndSub@IEventListener@@UAEXABV?$CStringT@DV?$StrTraitMFC_DLL@DV?$ChTraitsCRT@D@ATL@@@@@ATL@@0@Z
	DD	FLAT:?OnStartDownSubject@IEventListener@@UAEXABV?$CStringT@DV?$StrTraitMFC_DLL@DV?$ChTraitsCRT@D@ATL@@@@@ATL@@@Z
	DD	FLAT:?OnFinishDownSubject@IEventListener@@UAEXH@Z
CONST	ENDS
;	COMDAT ??_R4IEventListener@@6B@
rdata$r	SEGMENT
??_R4IEventListener@@6B@ DD 00H				; IEventListener::`RTTI Complete Object Locator'
	DD	00H
	DD	00H
	DD	FLAT:??_R0?AVIEventListener@@@8
	DD	FLAT:??_R3IEventListener@@8
rdata$r	ENDS
;	COMDAT ??_R3IEventListener@@8
rdata$r	SEGMENT
??_R3IEventListener@@8 DD 00H				; IEventListener::`RTTI Class Hierarchy Descriptor'
	DD	00H
	DD	01H
	DD	FLAT:??_R2IEventListener@@8
rdata$r	ENDS
;	COMDAT ??_R2IEventListener@@8
rdata$r	SEGMENT
??_R2IEventListener@@8 DD FLAT:??_R1A@?0A@A@IEventListener@@8 ; IEventListener::`RTTI Base Class Array'
rdata$r	ENDS
;	COMDAT ??_R1A@?0A@A@IEventListener@@8
rdata$r	SEGMENT
??_R1A@?0A@A@IEventListener@@8 DD FLAT:??_R0?AVIEventListener@@@8 ; IEventListener::`RTTI Base Class Descriptor at (0,-1,0,0)'
	DD	00H
	DD	00H
	DD	0ffffffffH
	DD	00H
	DD	00H
; Function compile flags: /Odt
rdata$r	ENDS
;	COMDAT ??0IEventListener@@QAE@XZ
_TEXT	SEGMENT
_this$ = -4						; size = 4
??0IEventListener@@QAE@XZ PROC NEAR			; IEventListener::IEventListener, COMDAT
; _this$ = ecx
  00000	55		 push	 ebp
  00001	8b ec		 mov	 ebp, esp
  00003	51		 push	 ecx
  00004	89 4d fc	 mov	 DWORD PTR _this$[ebp], ecx
  00007	8b 45 fc	 mov	 eax, DWORD PTR _this$[ebp]
  0000a	c7 00 00 00 00
	00		 mov	 DWORD PTR [eax], OFFSET FLAT:??_7IEventListener@@6B@
  00010	8b 45 fc	 mov	 eax, DWORD PTR _this$[ebp]
  00013	8b e5		 mov	 esp, ebp
  00015	5d		 pop	 ebp
  00016	c3		 ret	 0
??0IEventListener@@QAE@XZ ENDP				; IEventListener::IEventListener
; Function compile flags: /Odt
_TEXT	ENDS
;	COMDAT ??_GILayoutChangeObserver@@UAEPAXI@Z
_TEXT	SEGMENT
_this$ = -4						; size = 4
___flags$ = 8						; size = 4
??_GILayoutChangeObserver@@UAEPAXI@Z PROC NEAR		; ILayoutChangeObserver::`scalar deleting destructor', COMDAT
; _this$ = ecx
  00000	55		 push	 ebp
  00001	8b ec		 mov	 ebp, esp
  00003	51		 push	 ecx
  00004	89 4d fc	 mov	 DWORD PTR _this$[ebp], ecx
  00007	8b 4d fc	 mov	 ecx, DWORD PTR _this$[ebp]
  0000a	e8 00 00 00 00	 call	 ??1ILayoutChangeObserver@@UAE@XZ
  0000f	8b 45 08	 mov	 eax, DWORD PTR ___flags$[ebp]
  00012	83 e0 01	 and	 eax, 1
  00015	74 0c		 je	 SHORT $L202257
  00017	8b 4d fc	 mov	 ecx, DWORD PTR _this$[ebp]
  0001a	51		 push	 ecx
  0001b	e8 00 00 00 00	 call	 ??3@YAXPAX@Z		; operator delete
  00020	83 c4 04	 add	 esp, 4
$L202257:
  00023	8b 45 fc	 mov	 eax, DWORD PTR _this$[ebp]
  00026	8b e5		 mov	 esp, ebp
  00028	5d		 pop	 ebp
  00029	c2 04 00	 ret	 4
??_GILayoutChangeObserver@@UAEPAXI@Z ENDP		; ILayoutChangeObserver::`scalar deleting destructor'
_TEXT	ENDS
PUBLIC	??_R4IMessageObserver@@6B@			; IMessageObserver::`RTTI Complete Object Locator'
PUBLIC	??_R3IMessageObserver@@8			; IMessageObserver::`RTTI Class Hierarchy Descriptor'
PUBLIC	??_R2IMessageObserver@@8			; IMessageObserver::`RTTI Base Class Array'
PUBLIC	??_7IMessageObserver@@6B@			; IMessageObserver::`vftable'
PUBLIC	??_GIMessageObserver@@UAEPAXI@Z			; IMessageObserver::`scalar deleting destructor'
EXTRN	??_EIMessageObserver@@UAEPAXI@Z:NEAR		; IMessageObserver::`vector deleting destructor'
;	COMDAT ??_7IMessageObserver@@6B@
CONST	SEGMENT
??_7IMessageObserver@@6B@ DD FLAT:??_R4IMessageObserver@@6B@ ; IMessageObserver::`vftable'
	DD	FLAT:??_EIMessageObserver@@UAEPAXI@Z
CONST	ENDS
;	COMDAT ??_R4IMessageObserver@@6B@
rdata$r	SEGMENT
??_R4IMessageObserver@@6B@ DD 00H			; IMessageObserver::`RTTI Complete Object Locator'
	DD	00H
	DD	00H
	DD	FLAT:??_R0?AVIMessageObserver@@@8
	DD	FLAT:??_R3IMessageObserver@@8
rdata$r	ENDS
;	COMDAT ??_R3IMessageObserver@@8
rdata$r	SEGMENT
??_R3IMessageObserver@@8 DD 00H				; IMessageObserver::`RTTI Class Hierarchy Descriptor'
	DD	00H
	DD	01H
	DD	FLAT:??_R2IMessageObserver@@8
rdata$r	ENDS
;	COMDAT ??_R2IMessageObserver@@8
rdata$r	SEGMENT
??_R2IMessageObserver@@8 DD FLAT:??_R1A@?0A@A@IMessageObserver@@8 ; IMessageObserver::`RTTI Base Class Array'
; Function compile flags: /Odt
rdata$r	ENDS
;	COMDAT ??0IMessageObserver@@QAE@XZ
_TEXT	SEGMENT
_this$ = -4						; size = 4
??0IMessageObserver@@QAE@XZ PROC NEAR			; IMessageObserver::IMessageObserver, COMDAT
; _this$ = ecx
  00000	55		 push	 ebp
  00001	8b ec		 mov	 ebp, esp
  00003	51		 push	 ecx
  00004	89 4d fc	 mov	 DWORD PTR _this$[ebp], ecx
  00007	8b 45 fc	 mov	 eax, DWORD PTR _this$[ebp]
  0000a	c7 00 00 00 00
	00		 mov	 DWORD PTR [eax], OFFSET FLAT:??_7IMessageObserver@@6B@
  00010	8b 45 fc	 mov	 eax, DWORD PTR _this$[ebp]
  00013	8b e5		 mov	 esp, ebp
  00015	5d		 pop	 ebp
  00016	c3		 ret	 0
??0IMessageObserver@@QAE@XZ ENDP			; IMessageObserver::IMessageObserver
_TEXT	ENDS
PUBLIC	??1CSkinMgrV1@@UAE@XZ				; CSkinMgrV1::~CSkinMgrV1
EXTRN	__imp__DeleteCriticalSection@4:NEAR
xdata$x	SEGMENT
$T205137 DD	0ffffffffH
	DD	FLAT:$L205125
	DD	00H
	DD	FLAT:$L205128
	DD	01H
	DD	FLAT:$L205129
	DD	02H
	DD	FLAT:$L205130
	DD	03H
	DD	FLAT:$L205131
	DD	04H
	DD	FLAT:$L205132
	DD	05H
	DD	FLAT:$L205133
$T205135 DD	019930520H
	DD	07H
	DD	FLAT:$T205137
	DD	2 DUP(00H)
	DD	2 DUP(00H)
; Function compile flags: /Odt
; File d:\boxgit\playbox\playbox\dev\prj\playbox\src\layoutmgr\changecolor\ichangecolormgr.cpp
xdata$x	ENDS
_TEXT	SEGMENT
tv69 = -56						; size = 4
tv73 = -52						; size = 4
tv153 = -48						; size = 4
tv158 = -44						; size = 4
tv147 = -40						; size = 4
tv136 = -36						; size = 4
_this$ = -32						; size = 4
$T205118 = -28						; size = 4
$T205117 = -24						; size = 4
$T205114 = -20						; size = 4
$T205113 = -16						; size = 4
__$EHRec$ = -12						; size = 12
??1CSkinMgrV1@@UAE@XZ PROC NEAR				; CSkinMgrV1::~CSkinMgrV1
; _this$ = ecx

; 47   : {

  001a0	55		 push	 ebp
  001a1	8b ec		 mov	 ebp, esp
  001a3	6a ff		 push	 -1
  001a5	68 00 00 00 00	 push	 __ehhandler$??1CSkinMgrV1@@UAE@XZ
  001aa	64 a1 00 00 00
	00		 mov	 eax, DWORD PTR fs:__except_list
  001b0	50		 push	 eax
  001b1	64 89 25 00 00
	00 00		 mov	 DWORD PTR fs:__except_list, esp
  001b8	83 ec 2c	 sub	 esp, 44			; 0000002cH
  001bb	89 4d e0	 mov	 DWORD PTR _this$[ebp], ecx
  001be	8b 45 e0	 mov	 eax, DWORD PTR _this$[ebp]
  001c1	c7 00 00 00 00
	00		 mov	 DWORD PTR [eax], OFFSET FLAT:??_7CSkinMgrV1@@6BIWndEventListener@@@
  001c7	8b 4d e0	 mov	 ecx, DWORD PTR _this$[ebp]
  001ca	c7 41 04 00 00
	00 00		 mov	 DWORD PTR [ecx+4], OFFSET FLAT:??_7CSkinMgrV1@@6BIEventListener@@@
  001d1	8b 55 e0	 mov	 edx, DWORD PTR _this$[ebp]
  001d4	c7 42 08 00 00
	00 00		 mov	 DWORD PTR [edx+8], OFFSET FLAT:??_7CSkinMgrV1@@6BP2PObserver@@@
  001db	8b 45 e0	 mov	 eax, DWORD PTR _this$[ebp]
  001de	c7 40 0c 00 00
	00 00		 mov	 DWORD PTR [eax+12], OFFSET FLAT:??_7CSkinMgrV1@@6BILayoutChangeObserver@@@
  001e5	c7 45 fc 06 00
	00 00		 mov	 DWORD PTR __$EHRec$[ebp+8], 6

; 48   : 
; 49   : 	/*if( NULL != mp_mainSkinWnd ) delete mp_mainSkinWnd;
; 50   : 	if( NULL != mp_skinWnd)        delete mp_skinWnd;
; 51   : 	if( NULL != mp_tabCtrol)       delete mp_tabCtrol;
; 52   : 	if( NULL != mp_colorWnd )      delete mp_colorWnd;
; 53   : 	if( NULL != mp_CloseBotton )   delete mp_CloseBotton;*/
; 54   : 	if( mp_downloadSkin )

  001ec	8b 4d e0	 mov	 ecx, DWORD PTR _this$[ebp]
  001ef	83 79 20 00	 cmp	 DWORD PTR [ecx+32], 0
  001f3	74 38		 je	 SHORT $L202263

; 55   : 	{
; 56   : 		delete mp_downloadSkin;

  001f5	8b 55 e0	 mov	 edx, DWORD PTR _this$[ebp]
  001f8	8b 42 20	 mov	 eax, DWORD PTR [edx+32]
  001fb	89 45 ec	 mov	 DWORD PTR $T205114[ebp], eax
  001fe	8b 4d ec	 mov	 ecx, DWORD PTR $T205114[ebp]
  00201	89 4d f0	 mov	 DWORD PTR $T205113[ebp], ecx
  00204	83 7d f0 00	 cmp	 DWORD PTR $T205113[ebp], 0
  00208	74 12		 je	 SHORT $L205115
  0020a	6a 01		 push	 1
  0020c	8b 55 f0	 mov	 edx, DWORD PTR $T205113[ebp]
  0020f	8b 02		 mov	 eax, DWORD PTR [edx]
  00211	8b 4d f0	 mov	 ecx, DWORD PTR $T205113[ebp]
  00214	ff 50 04	 call	 DWORD PTR [eax+4]
  00217	89 45 dc	 mov	 DWORD PTR tv136[ebp], eax
  0021a	eb 07		 jmp	 SHORT $L205116
$L205115:
  0021c	c7 45 dc 00 00
	00 00		 mov	 DWORD PTR tv136[ebp], 0
$L205116:

; 57   : 		mp_downloadSkin = NULL;

  00223	8b 4d e0	 mov	 ecx, DWORD PTR _this$[ebp]
  00226	c7 41 20 00 00
	00 00		 mov	 DWORD PTR [ecx+32], 0
$L202263:

; 58   : 	}
; 59   : 	if( mp_downloadSubject )

  0022d	8b 55 e0	 mov	 edx, DWORD PTR _this$[ebp]
  00230	83 7a 24 00	 cmp	 DWORD PTR [edx+36], 0
  00234	74 38		 je	 SHORT $L202266

; 60   : 	{
; 61   : 		delete mp_downloadSubject;

  00236	8b 45 e0	 mov	 eax, DWORD PTR _this$[ebp]
  00239	8b 48 24	 mov	 ecx, DWORD PTR [eax+36]
  0023c	89 4d e4	 mov	 DWORD PTR $T205118[ebp], ecx
  0023f	8b 55 e4	 mov	 edx, DWORD PTR $T205118[ebp]
  00242	89 55 e8	 mov	 DWORD PTR $T205117[ebp], edx
  00245	83 7d e8 00	 cmp	 DWORD PTR $T205117[ebp], 0
  00249	74 12		 je	 SHORT $L205119
  0024b	6a 01		 push	 1
  0024d	8b 45 e8	 mov	 eax, DWORD PTR $T205117[ebp]
  00250	8b 10		 mov	 edx, DWORD PTR [eax]
  00252	8b 4d e8	 mov	 ecx, DWORD PTR $T205117[ebp]
  00255	ff 52 04	 call	 DWORD PTR [edx+4]
  00258	89 45 d8	 mov	 DWORD PTR tv147[ebp], eax
  0025b	eb 07		 jmp	 SHORT $L205120
$L205119:
  0025d	c7 45 d8 00 00
	00 00		 mov	 DWORD PTR tv147[ebp], 0
$L205120:

; 62   : 		mp_downloadSubject = NULL;

  00264	8b 45 e0	 mov	 eax, DWORD PTR _this$[ebp]
  00267	c7 40 24 00 00
	00 00		 mov	 DWORD PTR [eax+36], 0
$L202266:

; 63   : 	}
; 64   : 
; 65   : 	DeleteCriticalSection( &m_csDownInfo );

  0026e	8b 4d e0	 mov	 ecx, DWORD PTR _this$[ebp]
  00271	83 c1 68	 add	 ecx, 104		; 00000068H
  00274	51		 push	 ecx
  00275	ff 15 00 00 00
	00		 call	 DWORD PTR __imp__DeleteCriticalSection@4

; 66   : 	AfxGetMessageManager()->DetachMessage( ID_MESSAGE_LAYOUTMGR,(ILayoutChangeObserver*)this);

  0027b	83 7d e0 00	 cmp	 DWORD PTR _this$[ebp], 0
  0027f	74 0b		 je	 SHORT $L205121
  00281	8b 55 e0	 mov	 edx, DWORD PTR _this$[ebp]
  00284	83 c2 0c	 add	 edx, 12			; 0000000cH
  00287	89 55 d4	 mov	 DWORD PTR tv158[ebp], edx
  0028a	eb 07		 jmp	 SHORT $L205122
$L205121:
  0028c	c7 45 d4 00 00
	00 00		 mov	 DWORD PTR tv158[ebp], 0
$L205122:
  00293	e8 00 00 00 00	 call	 ?AfxGetMessageManager@@YAPAVIMessageManager@@XZ ; AfxGetMessageManager
  00298	89 45 d0	 mov	 DWORD PTR tv153[ebp], eax
  0029b	8b 45 d4	 mov	 eax, DWORD PTR tv158[ebp]
  0029e	50		 push	 eax
  0029f	68 00 00 00 00	 push	 OFFSET FLAT:_ID_MESSAGE_LAYOUTMGR
  002a4	8b 4d d0	 mov	 ecx, DWORD PTR tv153[ebp]
  002a7	8b 11		 mov	 edx, DWORD PTR [ecx]
  002a9	8b 4d d0	 mov	 ecx, DWORD PTR tv153[ebp]
  002ac	ff 52 08	 call	 DWORD PTR [edx+8]

; 67   : }

  002af	c6 45 fc 05	 mov	 BYTE PTR __$EHRec$[ebp+8], 5
  002b3	8b 4d e0	 mov	 ecx, DWORD PTR _this$[ebp]
  002b6	83 c1 60	 add	 ecx, 96			; 00000060H
  002b9	ff 15 00 00 00
	00		 call	 DWORD PTR __imp_??1?$CStringT@DV?$StrTraitMFC_DLL@DV?$ChTraitsCRT@D@ATL@@@@@ATL@@QAE@XZ
  002bf	c6 45 fc 04	 mov	 BYTE PTR __$EHRec$[ebp+8], 4
  002c3	8b 4d e0	 mov	 ecx, DWORD PTR _this$[ebp]
  002c6	83 c1 5c	 add	 ecx, 92			; 0000005cH
  002c9	ff 15 00 00 00
	00		 call	 DWORD PTR __imp_??1?$CStringT@DV?$StrTraitMFC_DLL@DV?$ChTraitsCRT@D@ATL@@@@@ATL@@QAE@XZ
  002cf	c6 45 fc 03	 mov	 BYTE PTR __$EHRec$[ebp+8], 3
  002d3	8b 4d e0	 mov	 ecx, DWORD PTR _this$[ebp]
  002d6	83 c1 58	 add	 ecx, 88			; 00000058H
  002d9	ff 15 00 00 00
	00		 call	 DWORD PTR __imp_??1?$CStringT@DV?$StrTraitMFC_DLL@DV?$ChTraitsCRT@D@ATL@@@@@ATL@@QAE@XZ
  002df	c6 45 fc 02	 mov	 BYTE PTR __$EHRec$[ebp+8], 2
  002e3	8b 4d e0	 mov	 ecx, DWORD PTR _this$[ebp]
  002e6	83 c1 38	 add	 ecx, 56			; 00000038H
  002e9	e8 00 00 00 00	 call	 ??1?$vector@PAVIChangeSkinEventListener@@V?$allocator@PAVIChangeSkinEventListener@@@std@@@std@@QAE@XZ ; std::vector<IChangeSkinEventListener *,std::allocator<IChangeSkinEventListener *> >::~vector<IChangeSkinEventListener *,std::allocator<IChangeSkinEventListener *> >
  002ee	c6 45 fc 01	 mov	 BYTE PTR __$EHRec$[ebp+8], 1
  002f2	8b 4d e0	 mov	 ecx, DWORD PTR _this$[ebp]
  002f5	83 c1 34	 add	 ecx, 52			; 00000034H
  002f8	ff 15 00 00 00
	00		 call	 DWORD PTR __imp_??1?$CStringT@DV?$StrTraitMFC_DLL@DV?$ChTraitsCRT@D@ATL@@@@@ATL@@QAE@XZ
  002fe	c6 45 fc 00	 mov	 BYTE PTR __$EHRec$[ebp+8], 0
  00302	83 7d e0 00	 cmp	 DWORD PTR _this$[ebp], 0
  00306	74 0b		 je	 SHORT $L205111
  00308	8b 45 e0	 mov	 eax, DWORD PTR _this$[ebp]
  0030b	83 c0 0c	 add	 eax, 12			; 0000000cH
  0030e	89 45 cc	 mov	 DWORD PTR tv73[ebp], eax
  00311	eb 07		 jmp	 SHORT $L205112
$L205111:
  00313	c7 45 cc 00 00
	00 00		 mov	 DWORD PTR tv73[ebp], 0
$L205112:
  0031a	8b 4d cc	 mov	 ecx, DWORD PTR tv73[ebp]
  0031d	e8 00 00 00 00	 call	 ??1ILayoutChangeObserver@@UAE@XZ
  00322	c7 45 fc ff ff
	ff ff		 mov	 DWORD PTR __$EHRec$[ebp+8], -1
  00329	83 7d e0 00	 cmp	 DWORD PTR _this$[ebp], 0
  0032d	74 0b		 je	 SHORT $L205109
  0032f	8b 4d e0	 mov	 ecx, DWORD PTR _this$[ebp]
  00332	83 c1 08	 add	 ecx, 8
  00335	89 4d c8	 mov	 DWORD PTR tv69[ebp], ecx
  00338	eb 07		 jmp	 SHORT $L205110
$L205109:
  0033a	c7 45 c8 00 00
	00 00		 mov	 DWORD PTR tv69[ebp], 0
$L205110:
  00341	8b 4d c8	 mov	 ecx, DWORD PTR tv69[ebp]
  00344	e8 00 00 00 00	 call	 ??1P2PObserver@@UAE@XZ	; P2PObserver::~P2PObserver
  00349	8b 4d f4	 mov	 ecx, DWORD PTR __$EHRec$[ebp]
  0034c	64 89 0d 00 00
	00 00		 mov	 DWORD PTR fs:__except_list, ecx
  00353	8b e5		 mov	 esp, ebp
  00355	5d		 pop	 ebp
  00356	c3		 ret	 0
_TEXT	ENDS
text$x	SEGMENT
$L205125:
  0005b	83 7d e0 00	 cmp	 DWORD PTR _this$[ebp], 0
  0005f	0f 84 0e 00 00
	00		 je	 $L205123
  00065	8b 45 e0	 mov	 eax, DWORD PTR _this$[ebp]
  00068	83 c0 08	 add	 eax, 8
  0006b	89 45 c8	 mov	 DWORD PTR tv69[ebp], eax
  0006e	e9 07 00 00 00	 jmp	 $L205124
$L205123:
  00073	c7 45 c8 00 00
	00 00		 mov	 DWORD PTR tv69[ebp], 0
$L205124:
  0007a	8b 4d c8	 mov	 ecx, DWORD PTR tv69[ebp]
  0007d	e9 00 00 00 00	 jmp	 ??1P2PObserver@@UAE@XZ	; P2PObserver::~P2PObserver
$L205128:
  00082	83 7d e0 00	 cmp	 DWORD PTR _this$[ebp], 0
  00086	0f 84 0e 00 00
	00		 je	 $L205126
  0008c	8b 45 e0	 mov	 eax, DWORD PTR _this$[ebp]
  0008f	83 c0 0c	 add	 eax, 12			; 0000000cH
  00092	89 45 cc	 mov	 DWORD PTR tv73[ebp], eax
  00095	e9 07 00 00 00	 jmp	 $L205127
$L205126:
  0009a	c7 45 cc 00 00
	00 00		 mov	 DWORD PTR tv73[ebp], 0
$L205127:
  000a1	8b 4d cc	 mov	 ecx, DWORD PTR tv73[ebp]
  000a4	e9 00 00 00 00	 jmp	 ??1ILayoutChangeObserver@@UAE@XZ
$L205129:
  000a9	8b 4d e0	 mov	 ecx, DWORD PTR _this$[ebp]
  000ac	83 c1 34	 add	 ecx, 52			; 00000034H
  000af	ff 25 00 00 00
	00		 jmp	 DWORD PTR __imp_??1?$CStringT@DV?$StrTraitMFC_DLL@DV?$ChTraitsCRT@D@ATL@@@@@ATL@@QAE@XZ
$L205130:
  000b5	8b 4d e0	 mov	 ecx, DWORD PTR _this$[ebp]
  000b8	83 c1 38	 add	 ecx, 56			; 00000038H
  000bb	e9 00 00 00 00	 jmp	 ??1?$vector@PAVIChangeSkinEventListener@@V?$allocator@PAVIChangeSkinEventListener@@@std@@@std@@QAE@XZ ; std::vector<IChangeSkinEventListener *,std::allocator<IChangeSkinEventListener *> >::~vector<IChangeSkinEventListener *,std::allocator<IChangeSkinEventListener *> >
$L205131:
  000c0	8b 4d e0	 mov	 ecx, DWORD PTR _this$[ebp]
  000c3	83 c1 58	 add	 ecx, 88			; 00000058H
  000c6	ff 25 00 00 00
	00		 jmp	 DWORD PTR __imp_??1?$CStringT@DV?$StrTraitMFC_DLL@DV?$ChTraitsCRT@D@ATL@@@@@ATL@@QAE@XZ
$L205132:
  000cc	8b 4d e0	 mov	 ecx, DWORD PTR _this$[ebp]
  000cf	83 c1 5c	 add	 ecx, 92			; 0000005cH
  000d2	ff 25 00 00 00
	00		 jmp	 DWORD PTR __imp_??1?$CStringT@DV?$StrTraitMFC_DLL@DV?$ChTraitsCRT@D@ATL@@@@@ATL@@QAE@XZ
$L205133:
  000d8	8b 4d e0	 mov	 ecx, DWORD PTR _this$[ebp]
  000db	83 c1 60	 add	 ecx, 96			; 00000060H
  000de	ff 25 00 00 00
	00		 jmp	 DWORD PTR __imp_??1?$CStringT@DV?$StrTraitMFC_DLL@DV?$ChTraitsCRT@D@ATL@@@@@ATL@@QAE@XZ
__ehhandler$??1CSkinMgrV1@@UAE@XZ:
  000e4	b8 00 00 00 00	 mov	 eax, OFFSET FLAT:$T205135
  000e9	e9 00 00 00 00	 jmp	 ___CxxFrameHandler
text$x	ENDS
??1CSkinMgrV1@@UAE@XZ ENDP				; CSkinMgrV1::~CSkinMgrV1
PUBLIC	?GetObjectA@CSkinMgrV1@@SAPAVIChangeColorMgr@@XZ ; CSkinMgrV1::GetObjectA
EXTRN	??2@YAPAXI@Z:NEAR				; operator new
xdata$x	SEGMENT
$T205147 DD	0ffffffffH
	DD	FLAT:$L205143
$T205145 DD	019930520H
	DD	01H
	DD	FLAT:$T205147
	DD	2 DUP(00H)
	DD	2 DUP(00H)
; Function compile flags: /Odt
xdata$x	ENDS
_TEXT	SEGMENT
tv72 = -24						; size = 4
$T205140 = -20						; size = 4
$T205139 = -16						; size = 4
__$EHRec$ = -12						; size = 12
?GetObjectA@CSkinMgrV1@@SAPAVIChangeColorMgr@@XZ PROC NEAR ; CSkinMgrV1::GetObjectA

; 69   : {

  00360	55		 push	 ebp
  00361	8b ec		 mov	 ebp, esp
  00363	6a ff		 push	 -1
  00365	68 00 00 00 00	 push	 __ehhandler$?GetObjectA@CSkinMgrV1@@SAPAVIChangeColorMgr@@XZ
  0036a	64 a1 00 00 00
	00		 mov	 eax, DWORD PTR fs:__except_list
  00370	50		 push	 eax
  00371	64 89 25 00 00
	00 00		 mov	 DWORD PTR fs:__except_list, esp
  00378	83 ec 0c	 sub	 esp, 12			; 0000000cH

; 70   : 	if( NULL == mp_IsHadObject )

  0037b	83 3d 00 00 00
	00 00		 cmp	 DWORD PTR ?mp_IsHadObject@CSkinMgrV1@@0PAVIChangeColorMgr@@A, 0 ; CSkinMgrV1::mp_IsHadObject
  00382	75 47		 jne	 SHORT $L202272

; 71   : 	{
; 72   : 		mp_IsHadObject = new CSkinMgrV1();

  00384	68 84 00 00 00	 push	 132			; 00000084H
  00389	e8 00 00 00 00	 call	 ??2@YAPAXI@Z		; operator new
  0038e	83 c4 04	 add	 esp, 4
  00391	89 45 ec	 mov	 DWORD PTR $T205140[ebp], eax
  00394	c7 45 fc 00 00
	00 00		 mov	 DWORD PTR __$EHRec$[ebp+8], 0
  0039b	83 7d ec 00	 cmp	 DWORD PTR $T205140[ebp], 0
  0039f	74 0d		 je	 SHORT $L205141
  003a1	8b 4d ec	 mov	 ecx, DWORD PTR $T205140[ebp]
  003a4	e8 00 00 00 00	 call	 ??0CSkinMgrV1@@QAE@XZ	; CSkinMgrV1::CSkinMgrV1
  003a9	89 45 e8	 mov	 DWORD PTR tv72[ebp], eax
  003ac	eb 07		 jmp	 SHORT $L205142
$L205141:
  003ae	c7 45 e8 00 00
	00 00		 mov	 DWORD PTR tv72[ebp], 0
$L205142:
  003b5	8b 45 e8	 mov	 eax, DWORD PTR tv72[ebp]
  003b8	89 45 f0	 mov	 DWORD PTR $T205139[ebp], eax
  003bb	c7 45 fc ff ff
	ff ff		 mov	 DWORD PTR __$EHRec$[ebp+8], -1
  003c2	8b 4d f0	 mov	 ecx, DWORD PTR $T205139[ebp]
  003c5	89 0d 00 00 00
	00		 mov	 DWORD PTR ?mp_IsHadObject@CSkinMgrV1@@0PAVIChangeColorMgr@@A, ecx ; CSkinMgrV1::mp_IsHadObject
$L202272:

; 73   : 	}
; 74   : 	return mp_IsHadObject;

  003cb	a1 00 00 00 00	 mov	 eax, DWORD PTR ?mp_IsHadObject@CSkinMgrV1@@0PAVIChangeColorMgr@@A ; CSkinMgrV1::mp_IsHadObject

; 75   : }

  003d0	8b 4d f4	 mov	 ecx, DWORD PTR __$EHRec$[ebp]
  003d3	64 89 0d 00 00
	00 00		 mov	 DWORD PTR fs:__except_list, ecx
  003da	8b e5		 mov	 esp, ebp
  003dc	5d		 pop	 ebp
  003dd	c3		 ret	 0
_TEXT	ENDS
text$x	SEGMENT
$L205143:
  000ee	8b 45 ec	 mov	 eax, DWORD PTR $T205140[ebp]
  000f1	50		 push	 eax
  000f2	e8 00 00 00 00	 call	 ??3@YAXPAX@Z		; operator delete
  000f7	59		 pop	 ecx
  000f8	c3		 ret	 0
__ehhandler$?GetObjectA@CSkinMgrV1@@SAPAVIChangeColorMgr@@XZ:
  000f9	b8 00 00 00 00	 mov	 eax, OFFSET FLAT:$T205145
  000fe	e9 00 00 00 00	 jmp	 ___CxxFrameHandler
text$x	ENDS
?GetObjectA@CSkinMgrV1@@SAPAVIChangeColorMgr@@XZ ENDP	; CSkinMgrV1::GetObjectA
EXTRN	?CloseWindows@CMainSkinWnd@@QAEXXZ:NEAR		; CMainSkinWnd::CloseWindows
; Function compile flags: /Odt
_TEXT	SEGMENT
_this$ = -4						; size = 4
?OnClose@CSkinMgrV1@@UAEXXZ PROC NEAR			; CSkinMgrV1::OnClose
; _this$ = ecx

; 78   : {

  003e0	55		 push	 ebp
  003e1	8b ec		 mov	 ebp, esp
  003e3	51		 push	 ecx
  003e4	89 4d fc	 mov	 DWORD PTR _this$[ebp], ecx

; 79   : 	if(mb_HasPopWnd)

  003e7	8b 45 fc	 mov	 eax, DWORD PTR _this$[ebp]
  003ea	0f b6 48 48	 movzx	 ecx, BYTE PTR [eax+72]
  003ee	85 c9		 test	 ecx, ecx
  003f0	74 1c		 je	 SHORT $L202279

; 80   : 	{
; 81   : 		mp_mainSkinWnd->CloseWindows();

  003f2	8b 55 fc	 mov	 edx, DWORD PTR _this$[ebp]
  003f5	8b 4a 10	 mov	 ecx, DWORD PTR [edx+16]
  003f8	e8 00 00 00 00	 call	 ?CloseWindows@CMainSkinWnd@@QAEXXZ ; CMainSkinWnd::CloseWindows

; 82   : 		mb_HasPopWnd = FALSE;

  003fd	8b 45 fc	 mov	 eax, DWORD PTR _this$[ebp]
  00400	c6 40 48 00	 mov	 BYTE PTR [eax+72], 0

; 83   : 		mp_mainSkinWnd = NULL;

  00404	8b 4d fc	 mov	 ecx, DWORD PTR _this$[ebp]
  00407	c7 41 10 00 00
	00 00		 mov	 DWORD PTR [ecx+16], 0
$L202279:

; 84   : 	}
; 85   : }

  0040e	8b e5		 mov	 esp, ebp
  00410	5d		 pop	 ebp
  00411	c3		 ret	 0
?OnClose@CSkinMgrV1@@UAEXXZ ENDP			; CSkinMgrV1::OnClose
_TEXT	ENDS
PUBLIC	?GetSkinWndRect@CSkinMgrV1@@QAEXABUtagPOINT@@AAVCRect@@@Z ; CSkinMgrV1::GetSkinWndRect
EXTRN	__imp__GetSystemMetrics@4:NEAR
EXTRN	?AfxGetUIManager@@YAPAVIUIManager@@XZ:NEAR	; AfxGetUIManager
; Function compile flags: /Odt
_TEXT	SEGMENT
tv92 = -28						; size = 4
tv87 = -24						; size = 4
tv71 = -20						; size = 4
tv66 = -16						; size = 4
_this$ = -12						; size = 4
_lnScreenWidth$ = -8					; size = 4
_lnScreenHight$ = -4					; size = 4
_aPoint$ = 8						; size = 4
_lrect$ = 12						; size = 4
?GetSkinWndRect@CSkinMgrV1@@QAEXABUtagPOINT@@AAVCRect@@@Z PROC NEAR ; CSkinMgrV1::GetSkinWndRect
; _this$ = ecx

; 88   : {	

  00420	55		 push	 ebp
  00421	8b ec		 mov	 ebp, esp
  00423	83 ec 1c	 sub	 esp, 28			; 0000001cH
  00426	89 4d f4	 mov	 DWORD PTR _this$[ebp], ecx

; 89   : 	if(AfxGetUIManager()->UIGetLayoutMgr()->GetDisplayMode() == DISPLAY_SEPERATE_MODE)

  00429	e8 00 00 00 00	 call	 ?AfxGetUIManager@@YAPAVIUIManager@@XZ ; AfxGetUIManager
  0042e	89 45 f0	 mov	 DWORD PTR tv66[ebp], eax
  00431	8b 45 f0	 mov	 eax, DWORD PTR tv66[ebp]
  00434	8b 10		 mov	 edx, DWORD PTR [eax]
  00436	8b 4d f0	 mov	 ecx, DWORD PTR tv66[ebp]
  00439	ff 52 24	 call	 DWORD PTR [edx+36]
  0043c	89 45 ec	 mov	 DWORD PTR tv71[ebp], eax
  0043f	8b 45 ec	 mov	 eax, DWORD PTR tv71[ebp]
  00442	8b 10		 mov	 edx, DWORD PTR [eax]
  00444	8b 4d ec	 mov	 ecx, DWORD PTR tv71[ebp]
  00447	ff 52 7c	 call	 DWORD PTR [edx+124]
  0044a	85 c0		 test	 eax, eax
  0044c	75 10		 jne	 SHORT $L202286

; 90   : 		mp_mainSkinWnd->m_hight = 211;

  0044e	8b 45 f4	 mov	 eax, DWORD PTR _this$[ebp]
  00451	8b 48 10	 mov	 ecx, DWORD PTR [eax+16]
  00454	c7 81 d4 00 00
	00 d3 00 00 00	 mov	 DWORD PTR [ecx+212], 211 ; 000000d3H
$L202286:

; 91   : 
; 92   : 	lrect.top    = aPoint.y;

  0045e	8b 55 0c	 mov	 edx, DWORD PTR _lrect$[ebp]
  00461	8b 45 08	 mov	 eax, DWORD PTR _aPoint$[ebp]
  00464	8b 48 04	 mov	 ecx, DWORD PTR [eax+4]
  00467	89 4a 04	 mov	 DWORD PTR [edx+4], ecx

; 93   : 	lrect.bottom = lrect.top + mp_mainSkinWnd->m_hight;

  0046a	8b 55 f4	 mov	 edx, DWORD PTR _this$[ebp]
  0046d	8b 42 10	 mov	 eax, DWORD PTR [edx+16]
  00470	8b 4d 0c	 mov	 ecx, DWORD PTR _lrect$[ebp]
  00473	8b 51 04	 mov	 edx, DWORD PTR [ecx+4]
  00476	03 90 d4 00 00
	00		 add	 edx, DWORD PTR [eax+212]
  0047c	8b 45 0c	 mov	 eax, DWORD PTR _lrect$[ebp]
  0047f	89 50 0c	 mov	 DWORD PTR [eax+12], edx

; 94   : 	lrect.left   = aPoint.x;

  00482	8b 4d 0c	 mov	 ecx, DWORD PTR _lrect$[ebp]
  00485	8b 55 08	 mov	 edx, DWORD PTR _aPoint$[ebp]
  00488	8b 02		 mov	 eax, DWORD PTR [edx]
  0048a	89 01		 mov	 DWORD PTR [ecx], eax

; 95   : 	if(AfxGetUIManager()->UIGetLayoutMgr()->GetDisplayMode() == DISPLAY_SEPERATE_MODE)

  0048c	e8 00 00 00 00	 call	 ?AfxGetUIManager@@YAPAVIUIManager@@XZ ; AfxGetUIManager
  00491	89 45 e8	 mov	 DWORD PTR tv87[ebp], eax
  00494	8b 4d e8	 mov	 ecx, DWORD PTR tv87[ebp]
  00497	8b 11		 mov	 edx, DWORD PTR [ecx]
  00499	8b 4d e8	 mov	 ecx, DWORD PTR tv87[ebp]
  0049c	ff 52 24	 call	 DWORD PTR [edx+36]
  0049f	89 45 e4	 mov	 DWORD PTR tv92[ebp], eax
  004a2	8b 45 e4	 mov	 eax, DWORD PTR tv92[ebp]
  004a5	8b 10		 mov	 edx, DWORD PTR [eax]
  004a7	8b 4d e4	 mov	 ecx, DWORD PTR tv92[ebp]
  004aa	ff 52 7c	 call	 DWORD PTR [edx+124]
  004ad	85 c0		 test	 eax, eax
  004af	75 10		 jne	 SHORT $L202287

; 96   : 		mp_mainSkinWnd->m_width = 240;

  004b1	8b 45 f4	 mov	 eax, DWORD PTR _this$[ebp]
  004b4	8b 48 10	 mov	 ecx, DWORD PTR [eax+16]
  004b7	c7 81 d8 00 00
	00 f0 00 00 00	 mov	 DWORD PTR [ecx+216], 240 ; 000000f0H
$L202287:

; 97   : 	lrect.right  = lrect.left +mp_mainSkinWnd->m_width;

  004c1	8b 55 f4	 mov	 edx, DWORD PTR _this$[ebp]
  004c4	8b 42 10	 mov	 eax, DWORD PTR [edx+16]
  004c7	8b 4d 0c	 mov	 ecx, DWORD PTR _lrect$[ebp]
  004ca	8b 11		 mov	 edx, DWORD PTR [ecx]
  004cc	03 90 d8 00 00
	00		 add	 edx, DWORD PTR [eax+216]
  004d2	8b 45 0c	 mov	 eax, DWORD PTR _lrect$[ebp]
  004d5	89 50 08	 mov	 DWORD PTR [eax+8], edx

; 98   : 
; 99   : 	int lnScreenWidth = ::GetSystemMetrics(SM_CXSCREEN);

  004d8	6a 00		 push	 0
  004da	ff 15 00 00 00
	00		 call	 DWORD PTR __imp__GetSystemMetrics@4
  004e0	89 45 f8	 mov	 DWORD PTR _lnScreenWidth$[ebp], eax

; 100  : 	int lnScreenHight = ::GetSystemMetrics(SM_CYSCREEN);

  004e3	6a 01		 push	 1
  004e5	ff 15 00 00 00
	00		 call	 DWORD PTR __imp__GetSystemMetrics@4
  004eb	89 45 fc	 mov	 DWORD PTR _lnScreenHight$[ebp], eax

; 101  : 
; 102  : 	if( lnScreenWidth < (int)(mp_mainSkinWnd->m_width + aPoint.x) )

  004ee	8b 4d f4	 mov	 ecx, DWORD PTR _this$[ebp]
  004f1	8b 51 10	 mov	 edx, DWORD PTR [ecx+16]
  004f4	8b 82 d8 00 00
	00		 mov	 eax, DWORD PTR [edx+216]
  004fa	8b 4d 08	 mov	 ecx, DWORD PTR _aPoint$[ebp]
  004fd	03 01		 add	 eax, DWORD PTR [ecx]
  004ff	39 45 f8	 cmp	 DWORD PTR _lnScreenWidth$[ebp], eax
  00502	7d 21		 jge	 SHORT $L202291

; 103  : 	{
; 104  : 		lrect.left   =    aPoint.x - mp_mainSkinWnd->m_width;

  00504	8b 55 f4	 mov	 edx, DWORD PTR _this$[ebp]
  00507	8b 42 10	 mov	 eax, DWORD PTR [edx+16]
  0050a	8b 4d 08	 mov	 ecx, DWORD PTR _aPoint$[ebp]
  0050d	8b 11		 mov	 edx, DWORD PTR [ecx]
  0050f	2b 90 d8 00 00
	00		 sub	 edx, DWORD PTR [eax+216]
  00515	8b 45 0c	 mov	 eax, DWORD PTR _lrect$[ebp]
  00518	89 10		 mov	 DWORD PTR [eax], edx

; 105  : 		lrect.right  =    aPoint.x;

  0051a	8b 4d 0c	 mov	 ecx, DWORD PTR _lrect$[ebp]
  0051d	8b 55 08	 mov	 edx, DWORD PTR _aPoint$[ebp]
  00520	8b 02		 mov	 eax, DWORD PTR [edx]
  00522	89 41 08	 mov	 DWORD PTR [ecx+8], eax
$L202291:

; 106  : 	}
; 107  : 	if( lnScreenHight < (int)mp_mainSkinWnd->m_hight + aPoint.y )

  00525	8b 4d f4	 mov	 ecx, DWORD PTR _this$[ebp]
  00528	8b 51 10	 mov	 edx, DWORD PTR [ecx+16]
  0052b	8b 82 d4 00 00
	00		 mov	 eax, DWORD PTR [edx+212]
  00531	8b 4d 08	 mov	 ecx, DWORD PTR _aPoint$[ebp]
  00534	03 41 04	 add	 eax, DWORD PTR [ecx+4]
  00537	39 45 fc	 cmp	 DWORD PTR _lnScreenHight$[ebp], eax
  0053a	7d 24		 jge	 SHORT $L202285

; 108  : 	{
; 109  : 		lrect.top =     aPoint.y - mp_mainSkinWnd->m_hight;

  0053c	8b 55 f4	 mov	 edx, DWORD PTR _this$[ebp]
  0053f	8b 42 10	 mov	 eax, DWORD PTR [edx+16]
  00542	8b 4d 08	 mov	 ecx, DWORD PTR _aPoint$[ebp]
  00545	8b 51 04	 mov	 edx, DWORD PTR [ecx+4]
  00548	2b 90 d4 00 00
	00		 sub	 edx, DWORD PTR [eax+212]
  0054e	8b 45 0c	 mov	 eax, DWORD PTR _lrect$[ebp]
  00551	89 50 04	 mov	 DWORD PTR [eax+4], edx

; 110  : 		lrect.bottom =  aPoint.y;

  00554	8b 4d 0c	 mov	 ecx, DWORD PTR _lrect$[ebp]
  00557	8b 55 08	 mov	 edx, DWORD PTR _aPoint$[ebp]
  0055a	8b 42 04	 mov	 eax, DWORD PTR [edx+4]
  0055d	89 41 0c	 mov	 DWORD PTR [ecx+12], eax
$L202285:

; 111  : 	}
; 112  : }

  00560	8b e5		 mov	 esp, ebp
  00562	5d		 pop	 ebp
  00563	c2 08 00	 ret	 8
?GetSkinWndRect@CSkinMgrV1@@QAEXABUtagPOINT@@AAVCRect@@@Z ENDP ; CSkinMgrV1::GetSkinWndRect
_TEXT	ENDS
PUBLIC	?RedrawWindow@CWnd@@QAEHPBUtagRECT@@PAVCRgn@@I@Z ; CWnd::RedrawWindow
PUBLIC	??0CRect@@QAE@XZ				; CRect::CRect
PUBLIC	??0CRect@@QAE@HHHH@Z				; CRect::CRect
PUBLIC	?SetRect@CRect@@QAEXHHHH@Z			; CRect::SetRect
PUBLIC	?SetSendEventListener@CSkinWnd@@QAEXPAVIEventListener@@@Z ; CSkinWnd::SetSendEventListener
PUBLIC	??2CObject@@SGPAXI@Z				; CObject::operator new
PUBLIC	??3CObject@@SGXPAX@Z				; CObject::operator delete
PUBLIC	?SetSendEventListener@CSubjectChildWnd@@QAEXPAVIEventListener@@@Z ; CSubjectChildWnd::SetSendEventListener
PUBLIC	??HATL@@YA?AV?$CStringT@DV?$StrTraitMFC_DLL@DV?$ChTraitsCRT@D@ATL@@@@@0@ABV10@PBD@Z ; ATL::operator+
PUBLIC	?SetListener@CMainSkinWnd@@QAEXPAVIEventListener@@@Z ; CMainSkinWnd::SetListener
PUBLIC	?SetWndListener@CMainSkinWnd@@QAEXPAVIWndEventListener@@@Z ; CMainSkinWnd::SetWndListener
PUBLIC	?size@?$vector@UOneSubject@@V?$allocator@UOneSubject@@@std@@@std@@QBEIXZ ; std::vector<OneSubject,std::allocator<OneSubject> >::size
PUBLIC	??A?$vector@UOneSubject@@V?$allocator@UOneSubject@@@std@@@std@@QAEAAUOneSubject@@I@Z ; std::vector<OneSubject,std::allocator<OneSubject> >::operator[]
PUBLIC	?MoveWindow@CWnd@@QAEXPBUtagRECT@@H@Z		; CWnd::MoveWindow
EXTRN	?ShowWindow@CWnd@@QAEHH@Z:NEAR			; CWnd::ShowWindow
EXTRN	__imp_??B?$CSimpleStringT@D$00@ATL@@QBEPBDXZ:NEAR
EXTRN	?AfxRegisterWndClass@@YGPBDIPAUHICON__@@PAUHBRUSH__@@0@Z:NEAR ; AfxRegisterWndClass
EXTRN	__imp_?c_str@?$basic_string@DU?$char_traits@D@std@@V?$allocator@D@2@@std@@QBEPBDXZ:NEAR
EXTRN	__imp_??0?$CStringT@DV?$StrTraitMFC_DLL@DV?$ChTraitsCRT@D@ATL@@@@@ATL@@QAE@ABV01@@Z:NEAR
EXTRN	__imp_??0?$CStringT@DV?$StrTraitMFC_DLL@DV?$ChTraitsCRT@D@ATL@@@@@ATL@@QAE@PBD@Z:NEAR
EXTRN	??0CDownloadPercentWnd@@QAE@XZ:NEAR		; CDownloadPercentWnd::CDownloadPercentWnd
EXTRN	?InitScrollBar@CSkinWnd@@QAEXXZ:NEAR		; CSkinWnd::InitScrollBar
EXTRN	__imp__SetWindowPos@28:NEAR
EXTRN	?StopDownWebSubThread@CDownSub@@SAXXZ:NEAR	; CDownSub::StopDownWebSubThread
EXTRN	?ShowWindow@CSkinWnd@@QAEXH@Z:NEAR		; CSkinWnd::ShowWindow
EXTRN	?InitScrollBar@CSubjectChildWnd@@QAEXXZ:NEAR	; CSubjectChildWnd::InitScrollBar
EXTRN	__imp__GetClientRect@8:NEAR
EXTRN	?SetTipText@CSubjectChildWnd@@QAEXV?$CStringT@DV?$StrTraitMFC_DLL@DV?$ChTraitsCRT@D@ATL@@@@@ATL@@00@Z:NEAR ; CSubjectChildWnd::SetTipText
EXTRN	?Navigate@CWebSubWnd@@QAEXXZ:NEAR		; CWebSubWnd::Navigate
EXTRN	?ShowColorBtn@CMainSkinWnd@@QAEXH@Z:NEAR	; CMainSkinWnd::ShowColorBtn
EXTRN	?SetCheckBtn@CMainSkinWnd@@QAEXH@Z:NEAR		; CMainSkinWnd::SetCheckBtn
EXTRN	__imp__LoadCursorA@8:NEAR
EXTRN	?ShowWindow@CSubjectChildWnd@@QAEXH@Z:NEAR	; CSubjectChildWnd::ShowWindow
xdata$x	SEGMENT
$T205198 DD	0ffffffffH
	DD	FLAT:$L205179
	DD	00H
	DD	FLAT:$L205180
	DD	01H
	DD	FLAT:$L205181
	DD	0ffffffffH
	DD	FLAT:$L205181
	DD	03H
	DD	FLAT:$L205180
	DD	03H
	DD	FLAT:$L205182
	DD	05H
	DD	FLAT:$L205183
	DD	0ffffffffH
	DD	FLAT:$L205185
	DD	07H
	DD	FLAT:$L205186
	DD	08H
	DD	FLAT:$L205187
	DD	0ffffffffH
	DD	FLAT:$L205187
	DD	0aH
	DD	FLAT:$L205186
	DD	0aH
	DD	FLAT:$L205188
	DD	0cH
	DD	FLAT:$L205189
	DD	0ffffffffH
	DD	FLAT:$L205191
	DD	0ffffffffH
	DD	FLAT:$L205192
	DD	0ffffffffH
	DD	FLAT:$L205193
	DD	0ffffffffH
	DD	FLAT:$L205194
$T205196 DD	019930520H
	DD	012H
	DD	FLAT:$T205198
	DD	2 DUP(00H)
	DD	2 DUP(00H)
; Function compile flags: /Odt
xdata$x	ENDS
_TEXT	SEGMENT
tv648 = -364						; size = 4
tv571 = -360						; size = 4
tv566 = -356						; size = 4
tv511 = -352						; size = 4
tv439 = -348						; size = 4
tv706 = -344						; size = 4
tv703 = -340						; size = 4
tv716 = -336						; size = 4
tv700 = -332						; size = 4
tv370 = -328						; size = 4
tv697 = -324						; size = 4
tv715 = -320						; size = 4
tv695 = -316						; size = 4
tv714 = -312						; size = 4
tv693 = -308						; size = 4
tv690 = -304						; size = 4
tv713 = -300						; size = 4
tv687 = -296						; size = 4
tv302 = -292						; size = 4
tv684 = -288						; size = 4
tv712 = -284						; size = 4
tv682 = -280						; size = 4
tv711 = -276						; size = 4
tv286 = -272						; size = 4
tv281 = -268						; size = 4
tv240 = -264						; size = 4
tv201 = -260						; size = 4
tv147 = -256						; size = 4
tv71 = -252						; size = 4
tv66 = -248						; size = 4
_this$ = -244						; size = 4
$T205176 = -240						; size = 4
$T205175 = -236						; size = 4
$T205174 = -232						; size = 16
$T205171 = -216						; size = 4
$T205170 = -212						; size = 4
$T205169 = -208						; size = 4
$T205168 = -204						; size = 4
$T205167 = -200						; size = 4
$T205166 = -196						; size = 4
$T205165 = -192						; size = 4
$T205164 = -188						; size = 4
$T205163 = -184						; size = 4
$T205162 = -180						; size = 4
$T205161 = -176						; size = 4
$T205160 = -172						; size = 4
$T205159 = -168						; size = 16
$T205156 = -152						; size = 16
$T205153 = -136						; size = 16
_ClassName$202373 = -120				; size = 4
_ClassName$202357 = -116				; size = 4
_lrect$202348 = -112					; size = 16
_tips$202331 = -96					; size = 4
_tips$202321 = -92					; size = 4
_oneSub$202319 = -88					; size = 4
_idx$202315 = -84					; size = 4
_lClient$202306 = -80					; size = 16
_sub_wnd_h$202308 = -64					; size = 4
_pSub$202314 = -60					; size = 4
_lrect$202305 = -56					; size = 16
_sub_wnd_w$202307 = -40					; size = 4
_lClient$ = -36						; size = 16
_lbReturn$ = -20					; size = 4
_bSepMode$ = -16					; size = 4
__$EHRec$ = -12						; size = 12
_apParent$ = 8						; size = 4
_anID$ = 12						; size = 4
_aPoint$ = 16						; size = 8
?PopSkinWnd@CSkinMgrV1@@UAEHPAVCWnd@@IUtagPOINT@@@Z PROC NEAR ; CSkinMgrV1::PopSkinWnd
; _this$ = ecx

; 115  : {

  00570	55		 push	 ebp
  00571	8b ec		 mov	 ebp, esp
  00573	6a ff		 push	 -1
  00575	68 00 00 00 00	 push	 __ehhandler$?PopSkinWnd@CSkinMgrV1@@UAEHPAVCWnd@@IUtagPOINT@@@Z
  0057a	64 a1 00 00 00
	00		 mov	 eax, DWORD PTR fs:__except_list
  00580	50		 push	 eax
  00581	64 89 25 00 00
	00 00		 mov	 DWORD PTR fs:__except_list, esp
  00588	81 ec 60 01 00
	00		 sub	 esp, 352		; 00000160H
  0058e	89 8d 0c ff ff
	ff		 mov	 DWORD PTR _this$[ebp], ecx

; 116  : 	BOOL lbReturn = false;

  00594	c7 45 ec 00 00
	00 00		 mov	 DWORD PTR _lbReturn$[ebp], 0

; 117  : 	BOOL bSepMode = false;

  0059b	c7 45 f0 00 00
	00 00		 mov	 DWORD PTR _bSepMode$[ebp], 0

; 118  : 	if(AfxGetUIManager()->UIGetLayoutMgr()->GetDisplayMode() == DISPLAY_SEPERATE_MODE)

  005a2	e8 00 00 00 00	 call	 ?AfxGetUIManager@@YAPAVIUIManager@@XZ ; AfxGetUIManager
  005a7	89 85 08 ff ff
	ff		 mov	 DWORD PTR tv66[ebp], eax
  005ad	8b 85 08 ff ff
	ff		 mov	 eax, DWORD PTR tv66[ebp]
  005b3	8b 10		 mov	 edx, DWORD PTR [eax]
  005b5	8b 8d 08 ff ff
	ff		 mov	 ecx, DWORD PTR tv66[ebp]
  005bb	ff 52 24	 call	 DWORD PTR [edx+36]
  005be	89 85 04 ff ff
	ff		 mov	 DWORD PTR tv71[ebp], eax
  005c4	8b 85 04 ff ff
	ff		 mov	 eax, DWORD PTR tv71[ebp]
  005ca	8b 10		 mov	 edx, DWORD PTR [eax]
  005cc	8b 8d 04 ff ff
	ff		 mov	 ecx, DWORD PTR tv71[ebp]
  005d2	ff 52 7c	 call	 DWORD PTR [edx+124]
  005d5	85 c0		 test	 eax, eax
  005d7	75 17		 jne	 SHORT $L202302

; 119  : 	{
; 120  : 		bSepMode = true;

  005d9	c7 45 f0 01 00
	00 00		 mov	 DWORD PTR _bSepMode$[ebp], 1

; 121  : 		m_iCheckTab = 1;

  005e0	8b 85 0c ff ff
	ff		 mov	 eax, DWORD PTR _this$[ebp]
  005e6	c7 80 80 00 00
	00 01 00 00 00	 mov	 DWORD PTR [eax+128], 1
$L202302:

; 122  : 	}
; 123  : 
; 124  : 	if(!mb_HasPopWnd)

  005f0	8b 8d 0c ff ff
	ff		 mov	 ecx, DWORD PTR _this$[ebp]
  005f6	0f b6 51 48	 movzx	 edx, BYTE PTR [ecx+72]
  005fa	85 d2		 test	 edx, edx
  005fc	0f 85 fd 06 00
	00		 jne	 $L202303

; 125  : 	{
; 126  : 		if(mb_isDownWebSub)

  00602	8b 85 0c ff ff
	ff		 mov	 eax, DWORD PTR _this$[ebp]
  00608	0f b6 48 4b	 movzx	 ecx, BYTE PTR [eax+75]
  0060c	85 c9		 test	 ecx, ecx
  0060e	74 19		 je	 SHORT $L202304

; 127  : 		{
; 128  : 			CDownSub::StopDownWebSubThread();

  00610	e8 00 00 00 00	 call	 ?StopDownWebSubThread@CDownSub@@SAXXZ ; CDownSub::StopDownWebSubThread

; 129  : 			mb_isDownWebSub = false;

  00615	8b 95 0c ff ff
	ff		 mov	 edx, DWORD PTR _this$[ebp]
  0061b	c6 42 4b 00	 mov	 BYTE PTR [edx+75], 0

; 130  : 			mb_isDownSubject = false;

  0061f	8b 85 0c ff ff
	ff		 mov	 eax, DWORD PTR _this$[ebp]
  00625	c6 40 4a 00	 mov	 BYTE PTR [eax+74], 0
$L202304:

; 131  : 		}
; 132  : 
; 133  : 		CRect lrect;

  00629	8d 4d c8	 lea	 ecx, DWORD PTR _lrect$202305[ebp]
  0062c	e8 00 00 00 00	 call	 ??0CRect@@QAE@XZ	; CRect::CRect

; 134  : 		GetSkinWndRect( aPoint,lrect );

  00631	8d 4d c8	 lea	 ecx, DWORD PTR _lrect$202305[ebp]
  00634	51		 push	 ecx
  00635	8d 55 10	 lea	 edx, DWORD PTR _aPoint$[ebp]
  00638	52		 push	 edx
  00639	8b 8d 0c ff ff
	ff		 mov	 ecx, DWORD PTR _this$[ebp]
  0063f	e8 00 00 00 00	 call	 ?GetSkinWndRect@CSkinMgrV1@@QAEXABUtagPOINT@@AAVCRect@@@Z ; CSkinMgrV1::GetSkinWndRect

; 135  : 		// main win
; 136  : 		lbReturn = mp_mainSkinWnd->Create( NULL, NULL, NULL , lrect, apParent);

  00644	6a 00		 push	 0
  00646	6a 00		 push	 0
  00648	6a 00		 push	 0
  0064a	8b 45 08	 mov	 eax, DWORD PTR _apParent$[ebp]
  0064d	50		 push	 eax
  0064e	8d 4d c8	 lea	 ecx, DWORD PTR _lrect$202305[ebp]
  00651	51		 push	 ecx
  00652	6a 00		 push	 0
  00654	6a 00		 push	 0
  00656	6a 00		 push	 0
  00658	8b 95 0c ff ff
	ff		 mov	 edx, DWORD PTR _this$[ebp]
  0065e	8b 42 10	 mov	 eax, DWORD PTR [edx+16]
  00661	8b 8d 0c ff ff
	ff		 mov	 ecx, DWORD PTR _this$[ebp]
  00667	8b 49 10	 mov	 ecx, DWORD PTR [ecx+16]
  0066a	8b 10		 mov	 edx, DWORD PTR [eax]
  0066c	ff 92 38 01 00
	00		 call	 DWORD PTR [edx+312]
  00672	89 45 ec	 mov	 DWORD PTR _lbReturn$[ebp], eax

; 137  : 		mp_mainSkinWnd->SetCheckBtn(m_iCheckTab);

  00675	8b 85 0c ff ff
	ff		 mov	 eax, DWORD PTR _this$[ebp]
  0067b	8b 88 80 00 00
	00		 mov	 ecx, DWORD PTR [eax+128]
  00681	51		 push	 ecx
  00682	8b 95 0c ff ff
	ff		 mov	 edx, DWORD PTR _this$[ebp]
  00688	8b 4a 10	 mov	 ecx, DWORD PTR [edx+16]
  0068b	e8 00 00 00 00	 call	 ?SetCheckBtn@CMainSkinWnd@@QAEXH@Z ; CMainSkinWnd::SetCheckBtn

; 138  : 		mp_mainSkinWnd->SetListener(this);

  00690	83 bd 0c ff ff
	ff 00		 cmp	 DWORD PTR _this$[ebp], 0
  00697	74 11		 je	 SHORT $L205151
  00699	8b 85 0c ff ff
	ff		 mov	 eax, DWORD PTR _this$[ebp]
  0069f	83 c0 04	 add	 eax, 4
  006a2	89 85 00 ff ff
	ff		 mov	 DWORD PTR tv147[ebp], eax
  006a8	eb 0a		 jmp	 SHORT $L205152
$L205151:
  006aa	c7 85 00 ff ff
	ff 00 00 00 00	 mov	 DWORD PTR tv147[ebp], 0
$L205152:
  006b4	8b 8d 00 ff ff
	ff		 mov	 ecx, DWORD PTR tv147[ebp]
  006ba	51		 push	 ecx
  006bb	8b 95 0c ff ff
	ff		 mov	 edx, DWORD PTR _this$[ebp]
  006c1	8b 4a 10	 mov	 ecx, DWORD PTR [edx+16]
  006c4	e8 00 00 00 00	 call	 ?SetListener@CMainSkinWnd@@QAEXPAVIEventListener@@@Z ; CMainSkinWnd::SetListener

; 139  : 		mp_mainSkinWnd->SetWndListener(this);

  006c9	8b 85 0c ff ff
	ff		 mov	 eax, DWORD PTR _this$[ebp]
  006cf	50		 push	 eax
  006d0	8b 8d 0c ff ff
	ff		 mov	 ecx, DWORD PTR _this$[ebp]
  006d6	8b 49 10	 mov	 ecx, DWORD PTR [ecx+16]
  006d9	e8 00 00 00 00	 call	 ?SetWndListener@CMainSkinWnd@@QAEXPAVIWndEventListener@@@Z ; CMainSkinWnd::SetWndListener

; 140  : 
; 141  : 		mp_mainSkinWnd->ShowWindow(SW_SHOW);

  006de	6a 05		 push	 5
  006e0	8b 95 0c ff ff
	ff		 mov	 edx, DWORD PTR _this$[ebp]
  006e6	8b 4a 10	 mov	 ecx, DWORD PTR [edx+16]
  006e9	e8 00 00 00 00	 call	 ?ShowWindow@CWnd@@QAEHH@Z ; CWnd::ShowWindow

; 142  : 		mp_mainSkinWnd->RedrawWindow(NULL, NULL, RDW_INVALIDATE | RDW_UPDATENOW | RDW_ERASE | RDW_ALLCHILDREN);

  006ee	68 85 01 00 00	 push	 389			; 00000185H
  006f3	6a 00		 push	 0
  006f5	6a 00		 push	 0
  006f7	8b 85 0c ff ff
	ff		 mov	 eax, DWORD PTR _this$[ebp]
  006fd	8b 48 10	 mov	 ecx, DWORD PTR [eax+16]
  00700	e8 00 00 00 00	 call	 ?RedrawWindow@CWnd@@QAEHPBUtagRECT@@PAVCRgn@@I@Z ; CWnd::RedrawWindow

; 143  : 		RECT lClient;
; 144  : 		GetClientRect(mp_mainSkinWnd->m_hWnd, &lClient);

  00705	8d 4d b0	 lea	 ecx, DWORD PTR _lClient$202306[ebp]
  00708	51		 push	 ecx
  00709	8b 95 0c ff ff
	ff		 mov	 edx, DWORD PTR _this$[ebp]
  0070f	8b 42 10	 mov	 eax, DWORD PTR [edx+16]
  00712	8b 48 20	 mov	 ecx, DWORD PTR [eax+32]
  00715	51		 push	 ecx
  00716	ff 15 00 00 00
	00		 call	 DWORD PTR __imp__GetClientRect@8

; 145  : 		
; 146  : 		int sub_wnd_w,sub_wnd_h;
; 147  : 		if(bSepMode)

  0071c	83 7d f0 00	 cmp	 DWORD PTR _bSepMode$[ebp], 0
  00720	74 10		 je	 SHORT $L202309

; 148  : 		{
; 149  : 			sub_wnd_w = 234;

  00722	c7 45 d8 ea 00
	00 00		 mov	 DWORD PTR _sub_wnd_w$202307[ebp], 234 ; 000000eaH

; 150  : 			sub_wnd_h = 132;

  00729	c7 45 c0 84 00
	00 00		 mov	 DWORD PTR _sub_wnd_h$202308[ebp], 132 ; 00000084H

; 151  : 		}
; 152  : 		else

  00730	eb 0e		 jmp	 SHORT $L202310
$L202309:

; 153  : 		{
; 154  : 			sub_wnd_w = SUB_WND_WIDTH;

  00732	c7 45 d8 27 01
	00 00		 mov	 DWORD PTR _sub_wnd_w$202307[ebp], 295 ; 00000127H

; 155  : 			sub_wnd_h = SUB_WND_HEIGHT;

  00739	c7 45 c0 cf 00
	00 00		 mov	 DWORD PTR _sub_wnd_h$202308[ebp], 207 ; 000000cfH
$L202310:

; 156  : 		}
; 157  : 
; 158  : 
; 159  : 		// skin win
; 160  : 		lbReturn =  mp_skinWnd->Create(NULL,NULL, WS_VISIBLE|WS_CHILD,CRect(3,27,3+sub_wnd_w,sub_wnd_h+27),mp_mainSkinWnd);

  00740	6a 00		 push	 0
  00742	6a 00		 push	 0
  00744	6a 00		 push	 0
  00746	8b 95 0c ff ff
	ff		 mov	 edx, DWORD PTR _this$[ebp]
  0074c	8b 42 10	 mov	 eax, DWORD PTR [edx+16]
  0074f	50		 push	 eax
  00750	8b 4d c0	 mov	 ecx, DWORD PTR _sub_wnd_h$202308[ebp]
  00753	83 c1 1b	 add	 ecx, 27			; 0000001bH
  00756	51		 push	 ecx
  00757	8b 55 d8	 mov	 edx, DWORD PTR _sub_wnd_w$202307[ebp]
  0075a	83 c2 03	 add	 edx, 3
  0075d	52		 push	 edx
  0075e	6a 1b		 push	 27			; 0000001bH
  00760	6a 03		 push	 3
  00762	8d 8d 78 ff ff
	ff		 lea	 ecx, DWORD PTR $T205153[ebp]
  00768	e8 00 00 00 00	 call	 ??0CRect@@QAE@HHHH@Z	; CRect::CRect
  0076d	50		 push	 eax
  0076e	68 00 00 00 50	 push	 1342177280		; 50000000H
  00773	6a 00		 push	 0
  00775	6a 00		 push	 0
  00777	8b 85 0c ff ff
	ff		 mov	 eax, DWORD PTR _this$[ebp]
  0077d	8b 48 14	 mov	 ecx, DWORD PTR [eax+20]
  00780	8b 95 0c ff ff
	ff		 mov	 edx, DWORD PTR _this$[ebp]
  00786	8b 42 14	 mov	 eax, DWORD PTR [edx+20]
  00789	8b 11		 mov	 edx, DWORD PTR [ecx]
  0078b	8b c8		 mov	 ecx, eax
  0078d	ff 92 38 01 00
	00		 call	 DWORD PTR [edx+312]
  00793	89 45 ec	 mov	 DWORD PTR _lbReturn$[ebp], eax

; 161  : 		mp_skinWnd->InitScrollBar(); 

  00796	8b 85 0c ff ff
	ff		 mov	 eax, DWORD PTR _this$[ebp]
  0079c	8b 48 14	 mov	 ecx, DWORD PTR [eax+20]
  0079f	e8 00 00 00 00	 call	 ?InitScrollBar@CSkinWnd@@QAEXXZ ; CSkinWnd::InitScrollBar

; 162  : 		mp_skinWnd->SetSendEventListener(this);	

  007a4	83 bd 0c ff ff
	ff 00		 cmp	 DWORD PTR _this$[ebp], 0
  007ab	74 11		 je	 SHORT $L205154
  007ad	8b 8d 0c ff ff
	ff		 mov	 ecx, DWORD PTR _this$[ebp]
  007b3	83 c1 04	 add	 ecx, 4
  007b6	89 8d fc fe ff
	ff		 mov	 DWORD PTR tv201[ebp], ecx
  007bc	eb 0a		 jmp	 SHORT $L205155
$L205154:
  007be	c7 85 fc fe ff
	ff 00 00 00 00	 mov	 DWORD PTR tv201[ebp], 0
$L205155:
  007c8	8b 95 fc fe ff
	ff		 mov	 edx, DWORD PTR tv201[ebp]
  007ce	52		 push	 edx
  007cf	8b 85 0c ff ff
	ff		 mov	 eax, DWORD PTR _this$[ebp]
  007d5	8b 48 14	 mov	 ecx, DWORD PTR [eax+20]
  007d8	e8 00 00 00 00	 call	 ?SetSendEventListener@CSkinWnd@@QAEXPAVIEventListener@@@Z ; CSkinWnd::SetSendEventListener

; 163  : 		mp_skinWnd->ShowWindow(bSepMode); 

  007dd	8b 4d f0	 mov	 ecx, DWORD PTR _bSepMode$[ebp]
  007e0	51		 push	 ecx
  007e1	8b 95 0c ff ff
	ff		 mov	 edx, DWORD PTR _this$[ebp]
  007e7	8b 4a 14	 mov	 ecx, DWORD PTR [edx+20]
  007ea	e8 00 00 00 00	 call	 ?ShowWindow@CSkinWnd@@QAEXH@Z ; CSkinWnd::ShowWindow

; 164  : 
; 165  : 		// subject win
; 166  : 		lbReturn =  mp_SubjectWnd->Create(NULL,NULL, WS_VISIBLE|WS_CHILD,CRect(3,27,3+sub_wnd_w,sub_wnd_h+27),mp_mainSkinWnd);

  007ef	6a 00		 push	 0
  007f1	6a 00		 push	 0
  007f3	6a 00		 push	 0
  007f5	8b 85 0c ff ff
	ff		 mov	 eax, DWORD PTR _this$[ebp]
  007fb	8b 48 10	 mov	 ecx, DWORD PTR [eax+16]
  007fe	51		 push	 ecx
  007ff	8b 55 c0	 mov	 edx, DWORD PTR _sub_wnd_h$202308[ebp]
  00802	83 c2 1b	 add	 edx, 27			; 0000001bH
  00805	52		 push	 edx
  00806	8b 45 d8	 mov	 eax, DWORD PTR _sub_wnd_w$202307[ebp]
  00809	83 c0 03	 add	 eax, 3
  0080c	50		 push	 eax
  0080d	6a 1b		 push	 27			; 0000001bH
  0080f	6a 03		 push	 3
  00811	8d 8d 68 ff ff
	ff		 lea	 ecx, DWORD PTR $T205156[ebp]
  00817	e8 00 00 00 00	 call	 ??0CRect@@QAE@HHHH@Z	; CRect::CRect
  0081c	50		 push	 eax
  0081d	68 00 00 00 50	 push	 1342177280		; 50000000H
  00822	6a 00		 push	 0
  00824	6a 00		 push	 0
  00826	8b 8d 0c ff ff
	ff		 mov	 ecx, DWORD PTR _this$[ebp]
  0082c	8b 51 18	 mov	 edx, DWORD PTR [ecx+24]
  0082f	8b 85 0c ff ff
	ff		 mov	 eax, DWORD PTR _this$[ebp]
  00835	8b 48 18	 mov	 ecx, DWORD PTR [eax+24]
  00838	8b 12		 mov	 edx, DWORD PTR [edx]
  0083a	ff 92 38 01 00
	00		 call	 DWORD PTR [edx+312]
  00840	89 45 ec	 mov	 DWORD PTR _lbReturn$[ebp], eax

; 167  : 		mp_SubjectWnd->InitScrollBar(); 

  00843	8b 85 0c ff ff
	ff		 mov	 eax, DWORD PTR _this$[ebp]
  00849	8b 48 18	 mov	 ecx, DWORD PTR [eax+24]
  0084c	e8 00 00 00 00	 call	 ?InitScrollBar@CSubjectChildWnd@@QAEXXZ ; CSubjectChildWnd::InitScrollBar

; 168  : 		mp_SubjectWnd->SetSendEventListener(this);

  00851	83 bd 0c ff ff
	ff 00		 cmp	 DWORD PTR _this$[ebp], 0
  00858	74 11		 je	 SHORT $L205157
  0085a	8b 8d 0c ff ff
	ff		 mov	 ecx, DWORD PTR _this$[ebp]
  00860	83 c1 04	 add	 ecx, 4
  00863	89 8d f8 fe ff
	ff		 mov	 DWORD PTR tv240[ebp], ecx
  00869	eb 0a		 jmp	 SHORT $L205158
$L205157:
  0086b	c7 85 f8 fe ff
	ff 00 00 00 00	 mov	 DWORD PTR tv240[ebp], 0
$L205158:
  00875	8b 95 f8 fe ff
	ff		 mov	 edx, DWORD PTR tv240[ebp]
  0087b	52		 push	 edx
  0087c	8b 85 0c ff ff
	ff		 mov	 eax, DWORD PTR _this$[ebp]
  00882	8b 48 18	 mov	 ecx, DWORD PTR [eax+24]
  00885	e8 00 00 00 00	 call	 ?SetSendEventListener@CSubjectChildWnd@@QAEXPAVIEventListener@@@Z ; CSubjectChildWnd::SetSendEventListener

; 169  : 		mp_SubjectWnd->ShowWindow(SW_HIDE); 

  0088a	6a 00		 push	 0
  0088c	8b 8d 0c ff ff
	ff		 mov	 ecx, DWORD PTR _this$[ebp]
  00892	8b 49 18	 mov	 ecx, DWORD PTR [ecx+24]
  00895	e8 00 00 00 00	 call	 ?ShowWindow@CSubjectChildWnd@@QAEXH@Z ; CSubjectChildWnd::ShowWindow

; 170  : 
; 171  : 		//web subject win
; 172  : 		lbReturn =  mp_WebSubWnd->Create(NULL,NULL, WS_CHILD|WS_VISIBLE|WS_CLIPCHILDREN,CRect(3,27,sub_wnd_w+3,sub_wnd_h+27),mp_mainSkinWnd,ID_WND_WEBSUBJECT);

  0089a	6a 00		 push	 0
  0089c	68 38 27 00 00	 push	 10040			; 00002738H
  008a1	8b 95 0c ff ff
	ff		 mov	 edx, DWORD PTR _this$[ebp]
  008a7	8b 42 10	 mov	 eax, DWORD PTR [edx+16]
  008aa	50		 push	 eax
  008ab	8b 4d c0	 mov	 ecx, DWORD PTR _sub_wnd_h$202308[ebp]
  008ae	83 c1 1b	 add	 ecx, 27			; 0000001bH
  008b1	51		 push	 ecx
  008b2	8b 55 d8	 mov	 edx, DWORD PTR _sub_wnd_w$202307[ebp]
  008b5	83 c2 03	 add	 edx, 3
  008b8	52		 push	 edx
  008b9	6a 1b		 push	 27			; 0000001bH
  008bb	6a 03		 push	 3
  008bd	8d 8d 58 ff ff
	ff		 lea	 ecx, DWORD PTR $T205159[ebp]
  008c3	e8 00 00 00 00	 call	 ??0CRect@@QAE@HHHH@Z	; CRect::CRect
  008c8	50		 push	 eax
  008c9	68 00 00 00 52	 push	 1375731712		; 52000000H
  008ce	6a 00		 push	 0
  008d0	6a 00		 push	 0
  008d2	8b 85 0c ff ff
	ff		 mov	 eax, DWORD PTR _this$[ebp]
  008d8	8b 48 1c	 mov	 ecx, DWORD PTR [eax+28]
  008db	8b 95 0c ff ff
	ff		 mov	 edx, DWORD PTR _this$[ebp]
  008e1	8b 42 1c	 mov	 eax, DWORD PTR [edx+28]
  008e4	8b 11		 mov	 edx, DWORD PTR [ecx]
  008e6	8b c8		 mov	 ecx, eax
  008e8	ff 52 5c	 call	 DWORD PTR [edx+92]
  008eb	89 45 ec	 mov	 DWORD PTR _lbReturn$[ebp], eax

; 173  : 		mp_WebSubWnd->Navigate();

  008ee	8b 85 0c ff ff
	ff		 mov	 eax, DWORD PTR _this$[ebp]
  008f4	8b 48 1c	 mov	 ecx, DWORD PTR [eax+28]
  008f7	e8 00 00 00 00	 call	 ?Navigate@CWebSubWnd@@QAEXXZ ; CWebSubWnd::Navigate

; 174  : 		mp_WebSubWnd->ShowWindow(!bSepMode); 

  008fc	33 c9		 xor	 ecx, ecx
  008fe	83 7d f0 00	 cmp	 DWORD PTR _bSepMode$[ebp], 0
  00902	0f 94 c1	 sete	 cl
  00905	51		 push	 ecx
  00906	8b 95 0c ff ff
	ff		 mov	 edx, DWORD PTR _this$[ebp]
  0090c	8b 4a 1c	 mov	 ecx, DWORD PTR [edx+28]
  0090f	e8 00 00 00 00	 call	 ?ShowWindow@CWnd@@QAEHH@Z ; CWnd::ShowWindow

; 175  : 
; 176  : 		SubjectData*    pSub = AfxGetUIManager()->UIGetSkinMgr()->GetSubject();

  00914	e8 00 00 00 00	 call	 ?AfxGetUIManager@@YAPAVIUIManager@@XZ ; AfxGetUIManager
  00919	89 85 f4 fe ff
	ff		 mov	 DWORD PTR tv281[ebp], eax
  0091f	8b 85 f4 fe ff
	ff		 mov	 eax, DWORD PTR tv281[ebp]
  00925	8b 10		 mov	 edx, DWORD PTR [eax]
  00927	8b 8d f4 fe ff
	ff		 mov	 ecx, DWORD PTR tv281[ebp]
  0092d	ff 52 28	 call	 DWORD PTR [edx+40]
  00930	89 85 f0 fe ff
	ff		 mov	 DWORD PTR tv286[ebp], eax
  00936	8b 85 f0 fe ff
	ff		 mov	 eax, DWORD PTR tv286[ebp]
  0093c	8b 10		 mov	 edx, DWORD PTR [eax]
  0093e	8b 8d f0 fe ff
	ff		 mov	 ecx, DWORD PTR tv286[ebp]
  00944	ff 52 24	 call	 DWORD PTR [edx+36]
  00947	89 45 c4	 mov	 DWORD PTR _pSub$202314[ebp], eax

; 177  : 		for(size_t idx = 0 ;idx < pSub->vecSubject.size();idx++ )

  0094a	c7 45 ac 00 00
	00 00		 mov	 DWORD PTR _idx$202315[ebp], 0
  00951	eb 09		 jmp	 SHORT $L202316
$L202317:
  00953	8b 45 ac	 mov	 eax, DWORD PTR _idx$202315[ebp]
  00956	83 c0 01	 add	 eax, 1
  00959	89 45 ac	 mov	 DWORD PTR _idx$202315[ebp], eax
$L202316:
  0095c	8b 4d c4	 mov	 ecx, DWORD PTR _pSub$202314[ebp]
  0095f	83 c1 20	 add	 ecx, 32			; 00000020H
  00962	e8 00 00 00 00	 call	 ?size@?$vector@UOneSubject@@V?$allocator@UOneSubject@@@std@@@std@@QBEIXZ ; std::vector<OneSubject,std::allocator<OneSubject> >::size
  00967	39 45 ac	 cmp	 DWORD PTR _idx$202315[ebp], eax
  0096a	0f 83 9f 02 00
	00		 jae	 $L202318

; 178  : 		{
; 179  : 			OneSubject& oneSub = pSub->vecSubject[idx];			

  00970	8b 4d ac	 mov	 ecx, DWORD PTR _idx$202315[ebp]
  00973	51		 push	 ecx
  00974	8b 4d c4	 mov	 ecx, DWORD PTR _pSub$202314[ebp]
  00977	83 c1 20	 add	 ecx, 32			; 00000020H
  0097a	e8 00 00 00 00	 call	 ??A?$vector@UOneSubject@@V?$allocator@UOneSubject@@@std@@@std@@QAEAAUOneSubject@@I@Z ; std::vector<OneSubject,std::allocator<OneSubject> >::operator[]
  0097f	89 45 a8	 mov	 DWORD PTR _oneSub$202319[ebp], eax

; 180  : 
; 181  : 			if( oneSub.bNeedDown )

  00982	8b 55 a8	 mov	 edx, DWORD PTR _oneSub$202319[ebp]
  00985	0f b6 42 6c	 movzx	 eax, BYTE PTR [edx+108]
  00989	85 c0		 test	 eax, eax
  0098b	0f 84 3f 01 00
	00		 je	 $L202320

; 182  : 			{
; 183  : 				CString tips = CString(": ") + oneSub.strShowName.c_str() + "\r\n: ";

  00991	68 00 00 00 00	 push	 OFFSET FLAT:$SG202326
  00996	8d 8d 54 ff ff
	ff		 lea	 ecx, DWORD PTR $T205160[ebp]
  0099c	ff 15 00 00 00
	00		 call	 DWORD PTR __imp_??0?$CStringT@DV?$StrTraitMFC_DLL@DV?$ChTraitsCRT@D@ATL@@@@@ATL@@QAE@PBD@Z
  009a2	89 85 ec fe ff
	ff		 mov	 DWORD PTR tv711[ebp], eax
  009a8	8b 8d ec fe ff
	ff		 mov	 ecx, DWORD PTR tv711[ebp]
  009ae	89 8d e8 fe ff
	ff		 mov	 DWORD PTR tv682[ebp], ecx
  009b4	c7 45 fc 00 00
	00 00		 mov	 DWORD PTR __$EHRec$[ebp+8], 0
  009bb	8b 4d a8	 mov	 ecx, DWORD PTR _oneSub$202319[ebp]
  009be	83 c1 38	 add	 ecx, 56			; 00000038H
  009c1	ff 15 00 00 00
	00		 call	 DWORD PTR __imp_?c_str@?$basic_string@DU?$char_traits@D@std@@V?$allocator@D@2@@std@@QBEPBDXZ
  009c7	50		 push	 eax
  009c8	8b 95 e8 fe ff
	ff		 mov	 edx, DWORD PTR tv682[ebp]
  009ce	52		 push	 edx
  009cf	8d 85 50 ff ff
	ff		 lea	 eax, DWORD PTR $T205161[ebp]
  009d5	50		 push	 eax
  009d6	e8 00 00 00 00	 call	 ??HATL@@YA?AV?$CStringT@DV?$StrTraitMFC_DLL@DV?$ChTraitsCRT@D@ATL@@@@@0@ABV10@PBD@Z ; ATL::operator+
  009db	83 c4 0c	 add	 esp, 12			; 0000000cH
  009de	89 85 e4 fe ff
	ff		 mov	 DWORD PTR tv712[ebp], eax
  009e4	8b 8d e4 fe ff
	ff		 mov	 ecx, DWORD PTR tv712[ebp]
  009ea	89 8d e0 fe ff
	ff		 mov	 DWORD PTR tv684[ebp], ecx
  009f0	c6 45 fc 01	 mov	 BYTE PTR __$EHRec$[ebp+8], 1
  009f4	68 00 00 00 00	 push	 OFFSET FLAT:$SG202325
  009f9	8b 95 e0 fe ff
	ff		 mov	 edx, DWORD PTR tv684[ebp]
  009ff	52		 push	 edx
  00a00	8d 45 a4	 lea	 eax, DWORD PTR _tips$202321[ebp]
  00a03	50		 push	 eax
  00a04	e8 00 00 00 00	 call	 ??HATL@@YA?AV?$CStringT@DV?$StrTraitMFC_DLL@DV?$ChTraitsCRT@D@ATL@@@@@0@ABV10@PBD@Z ; ATL::operator+
  00a09	83 c4 0c	 add	 esp, 12			; 0000000cH
  00a0c	c6 45 fc 04	 mov	 BYTE PTR __$EHRec$[ebp+8], 4
  00a10	8d 8d 50 ff ff
	ff		 lea	 ecx, DWORD PTR $T205161[ebp]
  00a16	ff 15 00 00 00
	00		 call	 DWORD PTR __imp_??1?$CStringT@DV?$StrTraitMFC_DLL@DV?$ChTraitsCRT@D@ATL@@@@@ATL@@QAE@XZ
  00a1c	c6 45 fc 03	 mov	 BYTE PTR __$EHRec$[ebp+8], 3
  00a20	8d 8d 54 ff ff
	ff		 lea	 ecx, DWORD PTR $T205160[ebp]
  00a26	ff 15 00 00 00
	00		 call	 DWORD PTR __imp_??1?$CStringT@DV?$StrTraitMFC_DLL@DV?$ChTraitsCRT@D@ATL@@@@@ATL@@QAE@XZ

; 184  : 				mp_SubjectWnd->SetTipText( oneSub.strSubName.c_str(),tips,oneSub.strShowName.c_str() );

  00a2c	8b 4d a8	 mov	 ecx, DWORD PTR _oneSub$202319[ebp]
  00a2f	83 c1 38	 add	 ecx, 56			; 00000038H
  00a32	ff 15 00 00 00
	00		 call	 DWORD PTR __imp_?c_str@?$basic_string@DU?$char_traits@D@std@@V?$allocator@D@2@@std@@QBEPBDXZ
  00a38	51		 push	 ecx
  00a39	8b cc		 mov	 ecx, esp
  00a3b	89 a5 4c ff ff
	ff		 mov	 DWORD PTR $T205162[ebp], esp
  00a41	50		 push	 eax
  00a42	ff 15 00 00 00
	00		 call	 DWORD PTR __imp_??0?$CStringT@DV?$StrTraitMFC_DLL@DV?$ChTraitsCRT@D@ATL@@@@@ATL@@QAE@PBD@Z
  00a48	89 85 dc fe ff
	ff		 mov	 DWORD PTR tv302[ebp], eax
  00a4e	8b 8d dc fe ff
	ff		 mov	 ecx, DWORD PTR tv302[ebp]
  00a54	89 8d d8 fe ff
	ff		 mov	 DWORD PTR tv687[ebp], ecx
  00a5a	c6 45 fc 05	 mov	 BYTE PTR __$EHRec$[ebp+8], 5
  00a5e	51		 push	 ecx
  00a5f	8b cc		 mov	 ecx, esp
  00a61	89 a5 48 ff ff
	ff		 mov	 DWORD PTR $T205163[ebp], esp
  00a67	8d 55 a4	 lea	 edx, DWORD PTR _tips$202321[ebp]
  00a6a	52		 push	 edx
  00a6b	ff 15 00 00 00
	00		 call	 DWORD PTR __imp_??0?$CStringT@DV?$StrTraitMFC_DLL@DV?$ChTraitsCRT@D@ATL@@@@@ATL@@QAE@ABV01@@Z
  00a71	89 85 d4 fe ff
	ff		 mov	 DWORD PTR tv713[ebp], eax
  00a77	8b 85 d4 fe ff
	ff		 mov	 eax, DWORD PTR tv713[ebp]
  00a7d	89 85 d0 fe ff
	ff		 mov	 DWORD PTR tv690[ebp], eax
  00a83	c6 45 fc 06	 mov	 BYTE PTR __$EHRec$[ebp+8], 6
  00a87	8b 4d a8	 mov	 ecx, DWORD PTR _oneSub$202319[ebp]
  00a8a	83 c1 1c	 add	 ecx, 28			; 0000001cH
  00a8d	ff 15 00 00 00
	00		 call	 DWORD PTR __imp_?c_str@?$basic_string@DU?$char_traits@D@std@@V?$allocator@D@2@@std@@QBEPBDXZ
  00a93	51		 push	 ecx
  00a94	8b cc		 mov	 ecx, esp
  00a96	89 a5 44 ff ff
	ff		 mov	 DWORD PTR $T205164[ebp], esp
  00a9c	50		 push	 eax
  00a9d	ff 15 00 00 00
	00		 call	 DWORD PTR __imp_??0?$CStringT@DV?$StrTraitMFC_DLL@DV?$ChTraitsCRT@D@ATL@@@@@ATL@@QAE@PBD@Z
  00aa3	89 85 cc fe ff
	ff		 mov	 DWORD PTR tv693[ebp], eax
  00aa9	8b 8d 0c ff ff
	ff		 mov	 ecx, DWORD PTR _this$[ebp]
  00aaf	8b 49 18	 mov	 ecx, DWORD PTR [ecx+24]
  00ab2	c6 45 fc 03	 mov	 BYTE PTR __$EHRec$[ebp+8], 3
  00ab6	e8 00 00 00 00	 call	 ?SetTipText@CSubjectChildWnd@@QAEXV?$CStringT@DV?$StrTraitMFC_DLL@DV?$ChTraitsCRT@D@ATL@@@@@ATL@@00@Z ; CSubjectChildWnd::SetTipText

; 185  : 
; 186  : 			}

  00abb	c7 45 fc ff ff
	ff ff		 mov	 DWORD PTR __$EHRec$[ebp+8], -1
  00ac2	8d 4d a4	 lea	 ecx, DWORD PTR _tips$202321[ebp]
  00ac5	ff 15 00 00 00
	00		 call	 DWORD PTR __imp_??1?$CStringT@DV?$StrTraitMFC_DLL@DV?$ChTraitsCRT@D@ATL@@@@@ATL@@QAE@XZ

; 187  : 			else

  00acb	e9 3a 01 00 00	 jmp	 $L202330
$L202320:

; 188  : 			{
; 189  : 				CString tips = CString(": ") + oneSub.strShowName.c_str() + "\r\n: ";

  00ad0	68 00 00 00 00	 push	 OFFSET FLAT:$SG202336
  00ad5	8d 8d 40 ff ff
	ff		 lea	 ecx, DWORD PTR $T205165[ebp]
  00adb	ff 15 00 00 00
	00		 call	 DWORD PTR __imp_??0?$CStringT@DV?$StrTraitMFC_DLL@DV?$ChTraitsCRT@D@ATL@@@@@ATL@@QAE@PBD@Z
  00ae1	89 85 c8 fe ff
	ff		 mov	 DWORD PTR tv714[ebp], eax
  00ae7	8b 95 c8 fe ff
	ff		 mov	 edx, DWORD PTR tv714[ebp]
  00aed	89 95 c4 fe ff
	ff		 mov	 DWORD PTR tv695[ebp], edx
  00af3	c7 45 fc 07 00
	00 00		 mov	 DWORD PTR __$EHRec$[ebp+8], 7
  00afa	8b 4d a8	 mov	 ecx, DWORD PTR _oneSub$202319[ebp]
  00afd	83 c1 38	 add	 ecx, 56			; 00000038H
  00b00	ff 15 00 00 00
	00		 call	 DWORD PTR __imp_?c_str@?$basic_string@DU?$char_traits@D@std@@V?$allocator@D@2@@std@@QBEPBDXZ
  00b06	50		 push	 eax
  00b07	8b 85 c4 fe ff
	ff		 mov	 eax, DWORD PTR tv695[ebp]
  00b0d	50		 push	 eax
  00b0e	8d 8d 3c ff ff
	ff		 lea	 ecx, DWORD PTR $T205166[ebp]
  00b14	51		 push	 ecx
  00b15	e8 00 00 00 00	 call	 ??HATL@@YA?AV?$CStringT@DV?$StrTraitMFC_DLL@DV?$ChTraitsCRT@D@ATL@@@@@0@ABV10@PBD@Z ; ATL::operator+
  00b1a	83 c4 0c	 add	 esp, 12			; 0000000cH
  00b1d	89 85 c0 fe ff
	ff		 mov	 DWORD PTR tv715[ebp], eax
  00b23	8b 95 c0 fe ff
	ff		 mov	 edx, DWORD PTR tv715[ebp]
  00b29	89 95 bc fe ff
	ff		 mov	 DWORD PTR tv697[ebp], edx
  00b2f	c6 45 fc 08	 mov	 BYTE PTR __$EHRec$[ebp+8], 8
  00b33	68 00 00 00 00	 push	 OFFSET FLAT:$SG202335
  00b38	8b 85 bc fe ff
	ff		 mov	 eax, DWORD PTR tv697[ebp]
  00b3e	50		 push	 eax
  00b3f	8d 4d a0	 lea	 ecx, DWORD PTR _tips$202331[ebp]
  00b42	51		 push	 ecx
  00b43	e8 00 00 00 00	 call	 ??HATL@@YA?AV?$CStringT@DV?$StrTraitMFC_DLL@DV?$ChTraitsCRT@D@ATL@@@@@0@ABV10@PBD@Z ; ATL::operator+
  00b48	83 c4 0c	 add	 esp, 12			; 0000000cH
  00b4b	c6 45 fc 0b	 mov	 BYTE PTR __$EHRec$[ebp+8], 11 ; 0000000bH
  00b4f	8d 8d 3c ff ff
	ff		 lea	 ecx, DWORD PTR $T205166[ebp]
  00b55	ff 15 00 00 00
	00		 call	 DWORD PTR __imp_??1?$CStringT@DV?$StrTraitMFC_DLL@DV?$ChTraitsCRT@D@ATL@@@@@ATL@@QAE@XZ
  00b5b	c6 45 fc 0a	 mov	 BYTE PTR __$EHRec$[ebp+8], 10 ; 0000000aH
  00b5f	8d 8d 40 ff ff
	ff		 lea	 ecx, DWORD PTR $T205165[ebp]
  00b65	ff 15 00 00 00
	00		 call	 DWORD PTR __imp_??1?$CStringT@DV?$StrTraitMFC_DLL@DV?$ChTraitsCRT@D@ATL@@@@@ATL@@QAE@XZ

; 190  : 				mp_SubjectWnd->SetTipText( oneSub.strSubName.c_str(),tips,oneSub.strShowName.c_str());

  00b6b	8b 4d a8	 mov	 ecx, DWORD PTR _oneSub$202319[ebp]
  00b6e	83 c1 38	 add	 ecx, 56			; 00000038H
  00b71	ff 15 00 00 00
	00		 call	 DWORD PTR __imp_?c_str@?$basic_string@DU?$char_traits@D@std@@V?$allocator@D@2@@std@@QBEPBDXZ
  00b77	51		 push	 ecx
  00b78	8b cc		 mov	 ecx, esp
  00b7a	89 a5 38 ff ff
	ff		 mov	 DWORD PTR $T205167[ebp], esp
  00b80	50		 push	 eax
  00b81	ff 15 00 00 00
	00		 call	 DWORD PTR __imp_??0?$CStringT@DV?$StrTraitMFC_DLL@DV?$ChTraitsCRT@D@ATL@@@@@ATL@@QAE@PBD@Z
  00b87	89 85 b8 fe ff
	ff		 mov	 DWORD PTR tv370[ebp], eax
  00b8d	8b 95 b8 fe ff
	ff		 mov	 edx, DWORD PTR tv370[ebp]
  00b93	89 95 b4 fe ff
	ff		 mov	 DWORD PTR tv700[ebp], edx
  00b99	c6 45 fc 0c	 mov	 BYTE PTR __$EHRec$[ebp+8], 12 ; 0000000cH
  00b9d	51		 push	 ecx
  00b9e	8b cc		 mov	 ecx, esp
  00ba0	89 a5 34 ff ff
	ff		 mov	 DWORD PTR $T205168[ebp], esp
  00ba6	8d 45 a0	 lea	 eax, DWORD PTR _tips$202331[ebp]
  00ba9	50		 push	 eax
  00baa	ff 15 00 00 00
	00		 call	 DWORD PTR __imp_??0?$CStringT@DV?$StrTraitMFC_DLL@DV?$ChTraitsCRT@D@ATL@@@@@ATL@@QAE@ABV01@@Z
  00bb0	89 85 b0 fe ff
	ff		 mov	 DWORD PTR tv716[ebp], eax
  00bb6	8b 8d b0 fe ff
	ff		 mov	 ecx, DWORD PTR tv716[ebp]
  00bbc	89 8d ac fe ff
	ff		 mov	 DWORD PTR tv703[ebp], ecx
  00bc2	c6 45 fc 0d	 mov	 BYTE PTR __$EHRec$[ebp+8], 13 ; 0000000dH
  00bc6	8b 4d a8	 mov	 ecx, DWORD PTR _oneSub$202319[ebp]
  00bc9	83 c1 1c	 add	 ecx, 28			; 0000001cH
  00bcc	ff 15 00 00 00
	00		 call	 DWORD PTR __imp_?c_str@?$basic_string@DU?$char_traits@D@std@@V?$allocator@D@2@@std@@QBEPBDXZ
  00bd2	51		 push	 ecx
  00bd3	8b cc		 mov	 ecx, esp
  00bd5	89 a5 30 ff ff
	ff		 mov	 DWORD PTR $T205169[ebp], esp
  00bdb	50		 push	 eax
  00bdc	ff 15 00 00 00
	00		 call	 DWORD PTR __imp_??0?$CStringT@DV?$StrTraitMFC_DLL@DV?$ChTraitsCRT@D@ATL@@@@@ATL@@QAE@PBD@Z
  00be2	89 85 a8 fe ff
	ff		 mov	 DWORD PTR tv706[ebp], eax
  00be8	8b 95 0c ff ff
	ff		 mov	 edx, DWORD PTR _this$[ebp]
  00bee	8b 4a 18	 mov	 ecx, DWORD PTR [edx+24]
  00bf1	c6 45 fc 0a	 mov	 BYTE PTR __$EHRec$[ebp+8], 10 ; 0000000aH
  00bf5	e8 00 00 00 00	 call	 ?SetTipText@CSubjectChildWnd@@QAEXV?$CStringT@DV?$StrTraitMFC_DLL@DV?$ChTraitsCRT@D@ATL@@@@@ATL@@00@Z ; CSubjectChildWnd::SetTipText

; 191  : 			}

  00bfa	c7 45 fc ff ff
	ff ff		 mov	 DWORD PTR __$EHRec$[ebp+8], -1
  00c01	8d 4d a0	 lea	 ecx, DWORD PTR _tips$202331[ebp]
  00c04	ff 15 00 00 00
	00		 call	 DWORD PTR __imp_??1?$CStringT@DV?$StrTraitMFC_DLL@DV?$ChTraitsCRT@D@ATL@@@@@ATL@@QAE@XZ
$L202330:

; 192  : 		}

  00c0a	e9 44 fd ff ff	 jmp	 $L202317
$L202318:

; 193  : 
; 194  : 	
; 195  : 		switch(m_iCheckTab)

  00c0f	8b 85 0c ff ff
	ff		 mov	 eax, DWORD PTR _this$[ebp]
  00c15	8b 88 80 00 00
	00		 mov	 ecx, DWORD PTR [eax+128]
  00c1b	89 8d a4 fe ff
	ff		 mov	 DWORD PTR tv439[ebp], ecx
  00c21	83 bd a4 fe ff
	ff 00		 cmp	 DWORD PTR tv439[ebp], 0
  00c28	74 17		 je	 SHORT $L202344
  00c2a	83 bd a4 fe ff
	ff 01		 cmp	 DWORD PTR tv439[ebp], 1
  00c31	74 4a		 je	 SHORT $L202345
  00c33	83 bd a4 fe ff
	ff 02		 cmp	 DWORD PTR tv439[ebp], 2
  00c3a	74 7d		 je	 SHORT $L202346
  00c3c	e9 b2 00 00 00	 jmp	 $L202341
$L202344:

; 196  : 		{
; 197  : 		case 0:
; 198  : 			mp_skinWnd->ShowWindow(SW_HIDE);

  00c41	6a 00		 push	 0
  00c43	8b 95 0c ff ff
	ff		 mov	 edx, DWORD PTR _this$[ebp]
  00c49	8b 4a 14	 mov	 ecx, DWORD PTR [edx+20]
  00c4c	e8 00 00 00 00	 call	 ?ShowWindow@CSkinWnd@@QAEXH@Z ; CSkinWnd::ShowWindow

; 199  : 			mp_SubjectWnd->ShowWindow(SW_SHOW);

  00c51	6a 05		 push	 5
  00c53	8b 85 0c ff ff
	ff		 mov	 eax, DWORD PTR _this$[ebp]
  00c59	8b 48 18	 mov	 ecx, DWORD PTR [eax+24]
  00c5c	e8 00 00 00 00	 call	 ?ShowWindow@CSubjectChildWnd@@QAEXH@Z ; CSubjectChildWnd::ShowWindow

; 200  : 			mp_WebSubWnd->ShowWindow(SW_HIDE);

  00c61	6a 00		 push	 0
  00c63	8b 8d 0c ff ff
	ff		 mov	 ecx, DWORD PTR _this$[ebp]
  00c69	8b 49 1c	 mov	 ecx, DWORD PTR [ecx+28]
  00c6c	e8 00 00 00 00	 call	 ?ShowWindow@CWnd@@QAEHH@Z ; CWnd::ShowWindow

; 201  : 			m_bShowSkinWnd = FALSE;

  00c71	8b 95 0c ff ff
	ff		 mov	 edx, DWORD PTR _this$[ebp]
  00c77	c6 42 64 00	 mov	 BYTE PTR [edx+100], 0

; 202  : 			break;

  00c7b	eb 76		 jmp	 SHORT $L202341
$L202345:

; 203  : 		case 1:
; 204  : 			mp_skinWnd->ShowWindow(SW_SHOW);

  00c7d	6a 05		 push	 5
  00c7f	8b 85 0c ff ff
	ff		 mov	 eax, DWORD PTR _this$[ebp]
  00c85	8b 48 14	 mov	 ecx, DWORD PTR [eax+20]
  00c88	e8 00 00 00 00	 call	 ?ShowWindow@CSkinWnd@@QAEXH@Z ; CSkinWnd::ShowWindow

; 205  : 			mp_SubjectWnd->ShowWindow(SW_HIDE);

  00c8d	6a 00		 push	 0
  00c8f	8b 8d 0c ff ff
	ff		 mov	 ecx, DWORD PTR _this$[ebp]
  00c95	8b 49 18	 mov	 ecx, DWORD PTR [ecx+24]
  00c98	e8 00 00 00 00	 call	 ?ShowWindow@CSubjectChildWnd@@QAEXH@Z ; CSubjectChildWnd::ShowWindow

; 206  : 			mp_WebSubWnd->ShowWindow(SW_HIDE);

  00c9d	6a 00		 push	 0
  00c9f	8b 95 0c ff ff
	ff		 mov	 edx, DWORD PTR _this$[ebp]
  00ca5	8b 4a 1c	 mov	 ecx, DWORD PTR [edx+28]
  00ca8	e8 00 00 00 00	 call	 ?ShowWindow@CWnd@@QAEHH@Z ; CWnd::ShowWindow

; 207  : 			m_bShowSkinWnd = TRUE;

  00cad	8b 85 0c ff ff
	ff		 mov	 eax, DWORD PTR _this$[ebp]
  00cb3	c6 40 64 01	 mov	 BYTE PTR [eax+100], 1

; 208  : 			break;

  00cb7	eb 3a		 jmp	 SHORT $L202341
$L202346:

; 209  : 		case 2:
; 210  : 			mp_skinWnd->ShowWindow(SW_HIDE);

  00cb9	6a 00		 push	 0
  00cbb	8b 8d 0c ff ff
	ff		 mov	 ecx, DWORD PTR _this$[ebp]
  00cc1	8b 49 14	 mov	 ecx, DWORD PTR [ecx+20]
  00cc4	e8 00 00 00 00	 call	 ?ShowWindow@CSkinWnd@@QAEXH@Z ; CSkinWnd::ShowWindow

; 211  : 			mp_SubjectWnd->ShowWindow(SW_HIDE);

  00cc9	6a 00		 push	 0
  00ccb	8b 95 0c ff ff
	ff		 mov	 edx, DWORD PTR _this$[ebp]
  00cd1	8b 4a 18	 mov	 ecx, DWORD PTR [edx+24]
  00cd4	e8 00 00 00 00	 call	 ?ShowWindow@CSubjectChildWnd@@QAEXH@Z ; CSubjectChildWnd::ShowWindow

; 212  : 			mp_WebSubWnd->ShowWindow(SW_SHOW);

  00cd9	6a 05		 push	 5
  00cdb	8b 85 0c ff ff
	ff		 mov	 eax, DWORD PTR _this$[ebp]
  00ce1	8b 48 1c	 mov	 ecx, DWORD PTR [eax+28]
  00ce4	e8 00 00 00 00	 call	 ?ShowWindow@CWnd@@QAEHH@Z ; CWnd::ShowWindow

; 213  : 			m_bShowSkinWnd = FALSE;

  00ce9	8b 8d 0c ff ff
	ff		 mov	 ecx, DWORD PTR _this$[ebp]
  00cef	c6 41 64 00	 mov	 BYTE PTR [ecx+100], 0
$L202341:

; 214  : 			break;		
; 215  : 		}	
; 216  : 
; 217  : 
; 218  : 		mb_HasPopWnd	= true;

  00cf3	8b 95 0c ff ff
	ff		 mov	 edx, DWORD PTR _this$[ebp]
  00cf9	c6 42 48 01	 mov	 BYTE PTR [edx+72], 1

; 219  : 		//m_bShowSkinWnd	= (AfxGetUIManager()->UIGetLayoutMgr()->GetDisplayMode() == DISPLAY_SEPERATE_MODE );		
; 220  : 	}
; 221  : 	else

  00cfd	eb 4e		 jmp	 SHORT $L202347
$L202303:

; 222  : 	{
; 223  : 		CRect lrect;

  00cff	8d 4d 90	 lea	 ecx, DWORD PTR _lrect$202348[ebp]
  00d02	e8 00 00 00 00	 call	 ??0CRect@@QAE@XZ	; CRect::CRect

; 224  : 		GetSkinWndRect( aPoint,lrect );

  00d07	8d 45 90	 lea	 eax, DWORD PTR _lrect$202348[ebp]
  00d0a	50		 push	 eax
  00d0b	8d 4d 10	 lea	 ecx, DWORD PTR _aPoint$[ebp]
  00d0e	51		 push	 ecx
  00d0f	8b 8d 0c ff ff
	ff		 mov	 ecx, DWORD PTR _this$[ebp]
  00d15	e8 00 00 00 00	 call	 ?GetSkinWndRect@CSkinMgrV1@@QAEXABUtagPOINT@@AAVCRect@@@Z ; CSkinMgrV1::GetSkinWndRect

; 225  : 
; 226  : 		mp_mainSkinWnd->MoveWindow(&lrect,true);

  00d1a	6a 01		 push	 1
  00d1c	8d 55 90	 lea	 edx, DWORD PTR _lrect$202348[ebp]
  00d1f	52		 push	 edx
  00d20	8b 85 0c ff ff
	ff		 mov	 eax, DWORD PTR _this$[ebp]
  00d26	8b 48 10	 mov	 ecx, DWORD PTR [eax+16]
  00d29	e8 00 00 00 00	 call	 ?MoveWindow@CWnd@@QAEXPBUtagRECT@@H@Z ; CWnd::MoveWindow

; 227  : 		SetWindowPos(mp_mainSkinWnd->m_hWnd,HWND_TOP,0,0,0,0,SWP_NOACTIVATE|SWP_NOSIZE|SWP_NOMOVE);

  00d2e	6a 13		 push	 19			; 00000013H
  00d30	6a 00		 push	 0
  00d32	6a 00		 push	 0
  00d34	6a 00		 push	 0
  00d36	6a 00		 push	 0
  00d38	6a 00		 push	 0
  00d3a	8b 8d 0c ff ff
	ff		 mov	 ecx, DWORD PTR _this$[ebp]
  00d40	8b 51 10	 mov	 edx, DWORD PTR [ecx+16]
  00d43	8b 42 20	 mov	 eax, DWORD PTR [edx+32]
  00d46	50		 push	 eax
  00d47	ff 15 00 00 00
	00		 call	 DWORD PTR __imp__SetWindowPos@28
$L202347:

; 228  : 	}
; 229  : 	
; 230  : 	//
; 231  : 	if(!mp_downloadSkin )

  00d4d	8b 8d 0c ff ff
	ff		 mov	 ecx, DWORD PTR _this$[ebp]
  00d53	83 79 20 00	 cmp	 DWORD PTR [ecx+32], 0
  00d57	75 5f		 jne	 SHORT $L202350

; 232  : 	{
; 233  : 		mp_downloadSkin = new CDownloadPercentWnd;

  00d59	68 30 02 00 00	 push	 560			; 00000230H
  00d5e	e8 00 00 00 00	 call	 ??2CObject@@SGPAXI@Z	; CObject::operator new
  00d63	89 85 28 ff ff
	ff		 mov	 DWORD PTR $T205171[ebp], eax
  00d69	c7 45 fc 0e 00
	00 00		 mov	 DWORD PTR __$EHRec$[ebp+8], 14 ; 0000000eH
  00d70	83 bd 28 ff ff
	ff 00		 cmp	 DWORD PTR $T205171[ebp], 0
  00d77	74 13		 je	 SHORT $L205172
  00d79	8b 8d 28 ff ff
	ff		 mov	 ecx, DWORD PTR $T205171[ebp]
  00d7f	e8 00 00 00 00	 call	 ??0CDownloadPercentWnd@@QAE@XZ ; CDownloadPercentWnd::CDownloadPercentWnd
  00d84	89 85 a0 fe ff
	ff		 mov	 DWORD PTR tv511[ebp], eax
  00d8a	eb 0a		 jmp	 SHORT $L205173
$L205172:
  00d8c	c7 85 a0 fe ff
	ff 00 00 00 00	 mov	 DWORD PTR tv511[ebp], 0
$L205173:
  00d96	8b 95 a0 fe ff
	ff		 mov	 edx, DWORD PTR tv511[ebp]
  00d9c	89 95 2c ff ff
	ff		 mov	 DWORD PTR $T205170[ebp], edx
  00da2	c7 45 fc ff ff
	ff ff		 mov	 DWORD PTR __$EHRec$[ebp+8], -1
  00da9	8b 85 0c ff ff
	ff		 mov	 eax, DWORD PTR _this$[ebp]
  00daf	8b 8d 2c ff ff
	ff		 mov	 ecx, DWORD PTR $T205170[ebp]
  00db5	89 48 20	 mov	 DWORD PTR [eax+32], ecx
$L202350:

; 234  : 	}
; 235  : 	CRect lClient;

  00db8	8d 4d dc	 lea	 ecx, DWORD PTR _lClient$[ebp]
  00dbb	e8 00 00 00 00	 call	 ??0CRect@@QAE@XZ	; CRect::CRect

; 236  : 	lClient.SetRect(3,235,297,285);

  00dc0	68 1d 01 00 00	 push	 285			; 0000011dH
  00dc5	68 29 01 00 00	 push	 297			; 00000129H
  00dca	68 eb 00 00 00	 push	 235			; 000000ebH
  00dcf	6a 03		 push	 3
  00dd1	8d 4d dc	 lea	 ecx, DWORD PTR _lClient$[ebp]
  00dd4	e8 00 00 00 00	 call	 ?SetRect@CRect@@QAEXHHHH@Z ; CRect::SetRect

; 237  : 
; 238  : 	if( mp_downloadSkin->m_hWnd == NULL )

  00dd9	8b 95 0c ff ff
	ff		 mov	 edx, DWORD PTR _this$[ebp]
  00ddf	8b 42 20	 mov	 eax, DWORD PTR [edx+32]
  00de2	83 78 20 00	 cmp	 DWORD PTR [eax+32], 0
  00de6	0f 85 0f 01 00
	00		 jne	 $L202356

; 239  : 	{
; 240  : 		CString ClassName   = ::AfxRegisterWndClass(CS_CLASSDC,::LoadCursor(NULL,IDC_ARROW),NULL,NULL);   

  00dec	6a 00		 push	 0
  00dee	6a 00		 push	 0
  00df0	68 00 7f 00 00	 push	 32512			; 00007f00H
  00df5	6a 00		 push	 0
  00df7	ff 15 00 00 00
	00		 call	 DWORD PTR __imp__LoadCursorA@8
  00dfd	50		 push	 eax
  00dfe	6a 40		 push	 64			; 00000040H
  00e00	e8 00 00 00 00	 call	 ?AfxRegisterWndClass@@YGPBDIPAUHICON__@@PAUHBRUSH__@@0@Z ; AfxRegisterWndClass
  00e05	50		 push	 eax
  00e06	8d 4d 8c	 lea	 ecx, DWORD PTR _ClassName$202357[ebp]
  00e09	ff 15 00 00 00
	00		 call	 DWORD PTR __imp_??0?$CStringT@DV?$StrTraitMFC_DLL@DV?$ChTraitsCRT@D@ATL@@@@@ATL@@QAE@PBD@Z
  00e0f	c7 45 fc 0f 00
	00 00		 mov	 DWORD PTR __$EHRec$[ebp+8], 15 ; 0000000fH

; 241  : 		if( AfxGetUIManager()->UIGetLayoutMgr()->GetDisplayMode() == DISPLAY_SEPERATE_MODE )

  00e16	e8 00 00 00 00	 call	 ?AfxGetUIManager@@YAPAVIUIManager@@XZ ; AfxGetUIManager
  00e1b	89 85 9c fe ff
	ff		 mov	 DWORD PTR tv566[ebp], eax
  00e21	8b 8d 9c fe ff
	ff		 mov	 ecx, DWORD PTR tv566[ebp]
  00e27	8b 11		 mov	 edx, DWORD PTR [ecx]
  00e29	8b 8d 9c fe ff
	ff		 mov	 ecx, DWORD PTR tv566[ebp]
  00e2f	ff 52 24	 call	 DWORD PTR [edx+36]
  00e32	89 85 98 fe ff
	ff		 mov	 DWORD PTR tv571[ebp], eax
  00e38	8b 85 98 fe ff
	ff		 mov	 eax, DWORD PTR tv571[ebp]
  00e3e	8b 10		 mov	 edx, DWORD PTR [eax]
  00e40	8b 8d 98 fe ff
	ff		 mov	 ecx, DWORD PTR tv571[ebp]
  00e46	ff 52 7c	 call	 DWORD PTR [edx+124]
  00e49	85 c0		 test	 eax, eax
  00e4b	75 60		 jne	 SHORT $L202361

; 242  : 		{
; 243  : 			mp_downloadSkin->CreateEx( 0,ClassName,NULL,  WS_CHILD,CRect( lClient.left,lClient.top,lClient.left+220,lClient.top+30),mp_mainSkinWnd,0);		

  00e4d	6a 00		 push	 0
  00e4f	6a 00		 push	 0
  00e51	8b 85 0c ff ff
	ff		 mov	 eax, DWORD PTR _this$[ebp]
  00e57	8b 48 10	 mov	 ecx, DWORD PTR [eax+16]
  00e5a	51		 push	 ecx
  00e5b	8b 55 e0	 mov	 edx, DWORD PTR _lClient$[ebp+4]
  00e5e	83 c2 1e	 add	 edx, 30			; 0000001eH
  00e61	52		 push	 edx
  00e62	8b 45 dc	 mov	 eax, DWORD PTR _lClient$[ebp]
  00e65	05 dc 00 00 00	 add	 eax, 220		; 000000dcH
  00e6a	50		 push	 eax
  00e6b	8b 4d e0	 mov	 ecx, DWORD PTR _lClient$[ebp+4]
  00e6e	51		 push	 ecx
  00e6f	8b 55 dc	 mov	 edx, DWORD PTR _lClient$[ebp]
  00e72	52		 push	 edx
  00e73	8d 8d 18 ff ff
	ff		 lea	 ecx, DWORD PTR $T205174[ebp]
  00e79	e8 00 00 00 00	 call	 ??0CRect@@QAE@HHHH@Z	; CRect::CRect
  00e7e	50		 push	 eax
  00e7f	68 00 00 00 40	 push	 1073741824		; 40000000H
  00e84	6a 00		 push	 0
  00e86	8d 4d 8c	 lea	 ecx, DWORD PTR _ClassName$202357[ebp]
  00e89	ff 15 00 00 00
	00		 call	 DWORD PTR __imp_??B?$CSimpleStringT@D$00@ATL@@QBEPBDXZ
  00e8f	50		 push	 eax
  00e90	6a 00		 push	 0
  00e92	8b 85 0c ff ff
	ff		 mov	 eax, DWORD PTR _this$[ebp]
  00e98	8b 48 20	 mov	 ecx, DWORD PTR [eax+32]
  00e9b	8b 95 0c ff ff
	ff		 mov	 edx, DWORD PTR _this$[ebp]
  00ea1	8b 42 20	 mov	 eax, DWORD PTR [edx+32]
  00ea4	8b 11		 mov	 edx, DWORD PTR [ecx]
  00ea6	8b c8		 mov	 ecx, eax
  00ea8	ff 52 60	 call	 DWORD PTR [edx+96]

; 244  : 		}
; 245  : 		else

  00eab	eb 3e		 jmp	 SHORT $L202363
$L202361:

; 246  : 		{
; 247  : 			mp_downloadSkin->CreateEx( 0,ClassName,NULL,  WS_CHILD,lClient,mp_mainSkinWnd,0);		

  00ead	6a 00		 push	 0
  00eaf	6a 00		 push	 0
  00eb1	8b 85 0c ff ff
	ff		 mov	 eax, DWORD PTR _this$[ebp]
  00eb7	8b 48 10	 mov	 ecx, DWORD PTR [eax+16]
  00eba	51		 push	 ecx
  00ebb	8d 55 dc	 lea	 edx, DWORD PTR _lClient$[ebp]
  00ebe	52		 push	 edx
  00ebf	68 00 00 00 40	 push	 1073741824		; 40000000H
  00ec4	6a 00		 push	 0
  00ec6	8d 4d 8c	 lea	 ecx, DWORD PTR _ClassName$202357[ebp]
  00ec9	ff 15 00 00 00
	00		 call	 DWORD PTR __imp_??B?$CSimpleStringT@D$00@ATL@@QBEPBDXZ
  00ecf	50		 push	 eax
  00ed0	6a 00		 push	 0
  00ed2	8b 85 0c ff ff
	ff		 mov	 eax, DWORD PTR _this$[ebp]
  00ed8	8b 48 20	 mov	 ecx, DWORD PTR [eax+32]
  00edb	8b 95 0c ff ff
	ff		 mov	 edx, DWORD PTR _this$[ebp]
  00ee1	8b 42 20	 mov	 eax, DWORD PTR [edx+32]
  00ee4	8b 11		 mov	 edx, DWORD PTR [ecx]
  00ee6	8b c8		 mov	 ecx, eax
  00ee8	ff 52 60	 call	 DWORD PTR [edx+96]
$L202363:

; 248  : 		}
; 249  : 	}

  00eeb	c7 45 fc ff ff
	ff ff		 mov	 DWORD PTR __$EHRec$[ebp+8], -1
  00ef2	8d 4d 8c	 lea	 ecx, DWORD PTR _ClassName$202357[ebp]
  00ef5	ff 15 00 00 00
	00		 call	 DWORD PTR __imp_??1?$CStringT@DV?$StrTraitMFC_DLL@DV?$ChTraitsCRT@D@ATL@@@@@ATL@@QAE@XZ
$L202356:

; 250  : 		
; 251  : 	if( m_bShowSkinWnd )

  00efb	8b 85 0c ff ff
	ff		 mov	 eax, DWORD PTR _this$[ebp]
  00f01	0f b6 48 64	 movzx	 ecx, BYTE PTR [eax+100]
  00f05	85 c9		 test	 ecx, ecx
  00f07	74 40		 je	 SHORT $L202364

; 252  : 	{
; 253  : 		if( mb_isDownSkin )

  00f09	8b 95 0c ff ff
	ff		 mov	 edx, DWORD PTR _this$[ebp]
  00f0f	0f b6 42 49	 movzx	 eax, BYTE PTR [edx+73]
  00f13	85 c0		 test	 eax, eax
  00f15	74 12		 je	 SHORT $L202365

; 254  : 		{
; 255  : 			mp_downloadSkin->ShowWindow( SW_SHOW );

  00f17	6a 05		 push	 5
  00f19	8b 8d 0c ff ff
	ff		 mov	 ecx, DWORD PTR _this$[ebp]
  00f1f	8b 49 20	 mov	 ecx, DWORD PTR [ecx+32]
  00f22	e8 00 00 00 00	 call	 ?ShowWindow@CWnd@@QAEHH@Z ; CWnd::ShowWindow

; 256  : 			//DownloadStart();
; 257  : 		}
; 258  : 		else

  00f27	eb 20		 jmp	 SHORT $L202364
$L202365:

; 259  : 		{
; 260  : 			mp_downloadSkin->ShowWindow( SW_HIDE );

  00f29	6a 00		 push	 0
  00f2b	8b 95 0c ff ff
	ff		 mov	 edx, DWORD PTR _this$[ebp]
  00f31	8b 4a 20	 mov	 ecx, DWORD PTR [edx+32]
  00f34	e8 00 00 00 00	 call	 ?ShowWindow@CWnd@@QAEHH@Z ; CWnd::ShowWindow

; 261  : 			mp_mainSkinWnd->ShowColorBtn( TRUE );

  00f39	6a 01		 push	 1
  00f3b	8b 85 0c ff ff
	ff		 mov	 eax, DWORD PTR _this$[ebp]
  00f41	8b 48 10	 mov	 ecx, DWORD PTR [eax+16]
  00f44	e8 00 00 00 00	 call	 ?ShowColorBtn@CMainSkinWnd@@QAEXH@Z ; CMainSkinWnd::ShowColorBtn
$L202364:

; 262  : 		}
; 263  : 	}	
; 264  : 
; 265  : 	if(!mp_downloadSubject )

  00f49	8b 8d 0c ff ff
	ff		 mov	 ecx, DWORD PTR _this$[ebp]
  00f4f	83 79 24 00	 cmp	 DWORD PTR [ecx+36], 0
  00f53	75 5f		 jne	 SHORT $L202367

; 266  : 	{
; 267  : 		mp_downloadSubject = new CDownloadPercentWnd;

  00f55	68 30 02 00 00	 push	 560			; 00000230H
  00f5a	e8 00 00 00 00	 call	 ??2CObject@@SGPAXI@Z	; CObject::operator new
  00f5f	89 85 10 ff ff
	ff		 mov	 DWORD PTR $T205176[ebp], eax
  00f65	c7 45 fc 10 00
	00 00		 mov	 DWORD PTR __$EHRec$[ebp+8], 16 ; 00000010H
  00f6c	83 bd 10 ff ff
	ff 00		 cmp	 DWORD PTR $T205176[ebp], 0
  00f73	74 13		 je	 SHORT $L205177
  00f75	8b 8d 10 ff ff
	ff		 mov	 ecx, DWORD PTR $T205176[ebp]
  00f7b	e8 00 00 00 00	 call	 ??0CDownloadPercentWnd@@QAE@XZ ; CDownloadPercentWnd::CDownloadPercentWnd
  00f80	89 85 94 fe ff
	ff		 mov	 DWORD PTR tv648[ebp], eax
  00f86	eb 0a		 jmp	 SHORT $L205178
$L205177:
  00f88	c7 85 94 fe ff
	ff 00 00 00 00	 mov	 DWORD PTR tv648[ebp], 0
$L205178:
  00f92	8b 95 94 fe ff
	ff		 mov	 edx, DWORD PTR tv648[ebp]
  00f98	89 95 14 ff ff
	ff		 mov	 DWORD PTR $T205175[ebp], edx
  00f9e	c7 45 fc ff ff
	ff ff		 mov	 DWORD PTR __$EHRec$[ebp+8], -1
  00fa5	8b 85 0c ff ff
	ff		 mov	 eax, DWORD PTR _this$[ebp]
  00fab	8b 8d 14 ff ff
	ff		 mov	 ecx, DWORD PTR $T205175[ebp]
  00fb1	89 48 24	 mov	 DWORD PTR [eax+36], ecx
$L202367:

; 268  : 	}
; 269  : 	if( mp_downloadSubject->m_hWnd == NULL )

  00fb4	8b 95 0c ff ff
	ff		 mov	 edx, DWORD PTR _this$[ebp]
  00fba	8b 42 24	 mov	 eax, DWORD PTR [edx+36]
  00fbd	83 78 20 00	 cmp	 DWORD PTR [eax+32], 0
  00fc1	75 76		 jne	 SHORT $L202372

; 270  : 	{
; 271  : 		CString ClassName   = ::AfxRegisterWndClass(CS_CLASSDC,::LoadCursor(NULL,IDC_ARROW),NULL,NULL);   

  00fc3	6a 00		 push	 0
  00fc5	6a 00		 push	 0
  00fc7	68 00 7f 00 00	 push	 32512			; 00007f00H
  00fcc	6a 00		 push	 0
  00fce	ff 15 00 00 00
	00		 call	 DWORD PTR __imp__LoadCursorA@8
  00fd4	50		 push	 eax
  00fd5	6a 40		 push	 64			; 00000040H
  00fd7	e8 00 00 00 00	 call	 ?AfxRegisterWndClass@@YGPBDIPAUHICON__@@PAUHBRUSH__@@0@Z ; AfxRegisterWndClass
  00fdc	50		 push	 eax
  00fdd	8d 4d 88	 lea	 ecx, DWORD PTR _ClassName$202373[ebp]
  00fe0	ff 15 00 00 00
	00		 call	 DWORD PTR __imp_??0?$CStringT@DV?$StrTraitMFC_DLL@DV?$ChTraitsCRT@D@ATL@@@@@ATL@@QAE@PBD@Z
  00fe6	c7 45 fc 11 00
	00 00		 mov	 DWORD PTR __$EHRec$[ebp+8], 17 ; 00000011H

; 272  : 		mp_downloadSubject->CreateEx( 0,ClassName,NULL,WS_CHILD,lClient,mp_mainSkinWnd,1);		

  00fed	6a 00		 push	 0
  00fef	6a 01		 push	 1
  00ff1	8b 8d 0c ff ff
	ff		 mov	 ecx, DWORD PTR _this$[ebp]
  00ff7	8b 51 10	 mov	 edx, DWORD PTR [ecx+16]
  00ffa	52		 push	 edx
  00ffb	8d 45 dc	 lea	 eax, DWORD PTR _lClient$[ebp]
  00ffe	50		 push	 eax
  00fff	68 00 00 00 40	 push	 1073741824		; 40000000H
  01004	6a 00		 push	 0
  01006	8d 4d 88	 lea	 ecx, DWORD PTR _ClassName$202373[ebp]
  01009	ff 15 00 00 00
	00		 call	 DWORD PTR __imp_??B?$CSimpleStringT@D$00@ATL@@QBEPBDXZ
  0100f	50		 push	 eax
  01010	6a 00		 push	 0
  01012	8b 8d 0c ff ff
	ff		 mov	 ecx, DWORD PTR _this$[ebp]
  01018	8b 51 24	 mov	 edx, DWORD PTR [ecx+36]
  0101b	8b 85 0c ff ff
	ff		 mov	 eax, DWORD PTR _this$[ebp]
  01021	8b 48 24	 mov	 ecx, DWORD PTR [eax+36]
  01024	8b 12		 mov	 edx, DWORD PTR [edx]
  01026	ff 52 60	 call	 DWORD PTR [edx+96]

; 273  : 	}	

  01029	c7 45 fc ff ff
	ff ff		 mov	 DWORD PTR __$EHRec$[ebp+8], -1
  01030	8d 4d 88	 lea	 ecx, DWORD PTR _ClassName$202373[ebp]
  01033	ff 15 00 00 00
	00		 call	 DWORD PTR __imp_??1?$CStringT@DV?$StrTraitMFC_DLL@DV?$ChTraitsCRT@D@ATL@@@@@ATL@@QAE@XZ
$L202372:

; 274  : 
; 275  : 	return lbReturn;

  01039	8b 45 ec	 mov	 eax, DWORD PTR _lbReturn$[ebp]

; 276  : }

  0103c	8b 4d f4	 mov	 ecx, DWORD PTR __$EHRec$[ebp]
  0103f	64 89 0d 00 00
	00 00		 mov	 DWORD PTR fs:__except_list, ecx
  01046	8b e5		 mov	 esp, ebp
  01048	5d		 pop	 ebp
  01049	c2 10 00	 ret	 16			; 00000010H
_TEXT	ENDS
text$x	SEGMENT
$L205179:
  00103	8d 8d 54 ff ff
	ff		 lea	 ecx, DWORD PTR $T205160[ebp]
  00109	ff 25 00 00 00
	00		 jmp	 DWORD PTR __imp_??1?$CStringT@DV?$StrTraitMFC_DLL@DV?$ChTraitsCRT@D@ATL@@@@@ATL@@QAE@XZ
$L205180:
  0010f	8d 8d 50 ff ff
	ff		 lea	 ecx, DWORD PTR $T205161[ebp]
  00115	ff 25 00 00 00
	00		 jmp	 DWORD PTR __imp_??1?$CStringT@DV?$StrTraitMFC_DLL@DV?$ChTraitsCRT@D@ATL@@@@@ATL@@QAE@XZ
$L205181:
  0011b	8d 4d a4	 lea	 ecx, DWORD PTR _tips$202321[ebp]
  0011e	ff 25 00 00 00
	00		 jmp	 DWORD PTR __imp_??1?$CStringT@DV?$StrTraitMFC_DLL@DV?$ChTraitsCRT@D@ATL@@@@@ATL@@QAE@XZ
$L205182:
  00124	8b 8d 4c ff ff
	ff		 mov	 ecx, DWORD PTR $T205162[ebp]
  0012a	ff 25 00 00 00
	00		 jmp	 DWORD PTR __imp_??1?$CStringT@DV?$StrTraitMFC_DLL@DV?$ChTraitsCRT@D@ATL@@@@@ATL@@QAE@XZ
$L205183:
  00130	8b 8d 48 ff ff
	ff		 mov	 ecx, DWORD PTR $T205163[ebp]
  00136	ff 25 00 00 00
	00		 jmp	 DWORD PTR __imp_??1?$CStringT@DV?$StrTraitMFC_DLL@DV?$ChTraitsCRT@D@ATL@@@@@ATL@@QAE@XZ
$L205185:
  0013c	8d 8d 40 ff ff
	ff		 lea	 ecx, DWORD PTR $T205165[ebp]
  00142	ff 25 00 00 00
	00		 jmp	 DWORD PTR __imp_??1?$CStringT@DV?$StrTraitMFC_DLL@DV?$ChTraitsCRT@D@ATL@@@@@ATL@@QAE@XZ
$L205186:
  00148	8d 8d 3c ff ff
	ff		 lea	 ecx, DWORD PTR $T205166[ebp]
  0014e	ff 25 00 00 00
	00		 jmp	 DWORD PTR __imp_??1?$CStringT@DV?$StrTraitMFC_DLL@DV?$ChTraitsCRT@D@ATL@@@@@ATL@@QAE@XZ
$L205187:
  00154	8d 4d a0	 lea	 ecx, DWORD PTR _tips$202331[ebp]
  00157	ff 25 00 00 00
	00		 jmp	 DWORD PTR __imp_??1?$CStringT@DV?$StrTraitMFC_DLL@DV?$ChTraitsCRT@D@ATL@@@@@ATL@@QAE@XZ
$L205188:
  0015d	8b 8d 38 ff ff
	ff		 mov	 ecx, DWORD PTR $T205167[ebp]
  00163	ff 25 00 00 00
	00		 jmp	 DWORD PTR __imp_??1?$CStringT@DV?$StrTraitMFC_DLL@DV?$ChTraitsCRT@D@ATL@@@@@ATL@@QAE@XZ
$L205189:
  00169	8b 8d 34 ff ff
	ff		 mov	 ecx, DWORD PTR $T205168[ebp]
  0016f	ff 25 00 00 00
	00		 jmp	 DWORD PTR __imp_??1?$CStringT@DV?$StrTraitMFC_DLL@DV?$ChTraitsCRT@D@ATL@@@@@ATL@@QAE@XZ
$L205191:
  00175	8b 85 28 ff ff
	ff		 mov	 eax, DWORD PTR $T205171[ebp]
  0017b	50		 push	 eax
  0017c	e8 00 00 00 00	 call	 ??3CObject@@SGXPAX@Z	; CObject::operator delete
  00181	c3		 ret	 0
$L205192:
  00182	8d 4d 8c	 lea	 ecx, DWORD PTR _ClassName$202357[ebp]
  00185	ff 25 00 00 00
	00		 jmp	 DWORD PTR __imp_??1?$CStringT@DV?$StrTraitMFC_DLL@DV?$ChTraitsCRT@D@ATL@@@@@ATL@@QAE@XZ
$L205193:
  0018b	8b 85 10 ff ff
	ff		 mov	 eax, DWORD PTR $T205176[ebp]
  00191	50		 push	 eax
  00192	e8 00 00 00 00	 call	 ??3CObject@@SGXPAX@Z	; CObject::operator delete
  00197	c3		 ret	 0
$L205194:
  00198	8d 4d 88	 lea	 ecx, DWORD PTR _ClassName$202373[ebp]
  0019b	ff 25 00 00 00
	00		 jmp	 DWORD PTR __imp_??1?$CStringT@DV?$StrTraitMFC_DLL@DV?$ChTraitsCRT@D@ATL@@@@@ATL@@QAE@XZ
__ehhandler$?PopSkinWnd@CSkinMgrV1@@UAEHPAVCWnd@@IUtagPOINT@@@Z:
  001a1	b8 00 00 00 00	 mov	 eax, OFFSET FLAT:$T205196
  001a6	e9 00 00 00 00	 jmp	 ___CxxFrameHandler
text$x	ENDS
?PopSkinWnd@CSkinMgrV1@@UAEHPAVCWnd@@IUtagPOINT@@@Z ENDP ; CSkinMgrV1::PopSkinWnd
; Function compile flags: /Odt
; File d:\boxgit\playbox\playbox\dev\prj\playbox\src\layoutmgr\changecolor\mainskinwnd.h
;	COMDAT ?SetListener@CMainSkinWnd@@QAEXPAVIEventListener@@@Z
_TEXT	SEGMENT
_this$ = -4						; size = 4
_apListtener$ = 8					; size = 4
?SetListener@CMainSkinWnd@@QAEXPAVIEventListener@@@Z PROC NEAR ; CMainSkinWnd::SetListener, COMDAT
; _this$ = ecx

; 46   : 	void SetListener( IEventListener* apListtener ) { mp_EventListener = apListtener; }

  00000	55		 push	 ebp
  00001	8b ec		 mov	 ebp, esp
  00003	51		 push	 ecx
  00004	89 4d fc	 mov	 DWORD PTR _this$[ebp], ecx
  00007	8b 45 fc	 mov	 eax, DWORD PTR _this$[ebp]
  0000a	8b 4d 08	 mov	 ecx, DWORD PTR _apListtener$[ebp]
  0000d	89 88 dc 00 00
	00		 mov	 DWORD PTR [eax+220], ecx
  00013	8b e5		 mov	 esp, ebp
  00015	5d		 pop	 ebp
  00016	c2 04 00	 ret	 4
?SetListener@CMainSkinWnd@@QAEXPAVIEventListener@@@Z ENDP ; CMainSkinWnd::SetListener
; Function compile flags: /Odt
_TEXT	ENDS
;	COMDAT ?SetWndListener@CMainSkinWnd@@QAEXPAVIWndEventListener@@@Z
_TEXT	SEGMENT
_this$ = -4						; size = 4
_pWndListener$ = 8					; size = 4
?SetWndListener@CMainSkinWnd@@QAEXPAVIWndEventListener@@@Z PROC NEAR ; CMainSkinWnd::SetWndListener, COMDAT
; _this$ = ecx

; 47   : 	void SetWndListener(IWndEventListener* pWndListener){ mp_WndListener = pWndListener; }

  00000	55		 push	 ebp
  00001	8b ec		 mov	 ebp, esp
  00003	51		 push	 ecx
  00004	89 4d fc	 mov	 DWORD PTR _this$[ebp], ecx
  00007	8b 45 fc	 mov	 eax, DWORD PTR _this$[ebp]
  0000a	8b 4d 08	 mov	 ecx, DWORD PTR _pWndListener$[ebp]
  0000d	89 88 e0 00 00
	00		 mov	 DWORD PTR [eax+224], ecx
  00013	8b e5		 mov	 esp, ebp
  00015	5d		 pop	 ebp
  00016	c2 04 00	 ret	 4
?SetWndListener@CMainSkinWnd@@QAEXPAVIWndEventListener@@@Z ENDP ; CMainSkinWnd::SetWndListener
; Function compile flags: /Odt
; File d:\boxgit\playbox\playbox\dev\prj\playbox\src\layoutmgr\changecolor\skinwnd.h
_TEXT	ENDS
;	COMDAT ?SetSendEventListener@CSkinWnd@@QAEXPAVIEventListener@@@Z
_TEXT	SEGMENT
_this$ = -4						; size = 4
_aEventListener$ = 8					; size = 4
?SetSendEventListener@CSkinWnd@@QAEXPAVIEventListener@@@Z PROC NEAR ; CSkinWnd::SetSendEventListener, COMDAT
; _this$ = ecx

; 43   : 	void SetSendEventListener(IEventListener* aEventListener ){mp_EventListener = aEventListener ;}

  00000	55		 push	 ebp
  00001	8b ec		 mov	 ebp, esp
  00003	51		 push	 ecx
  00004	89 4d fc	 mov	 DWORD PTR _this$[ebp], ecx
  00007	8b 45 fc	 mov	 eax, DWORD PTR _this$[ebp]
  0000a	8b 4d 08	 mov	 ecx, DWORD PTR _aEventListener$[ebp]
  0000d	89 88 dc 02 00
	00		 mov	 DWORD PTR [eax+732], ecx
  00013	8b e5		 mov	 esp, ebp
  00015	5d		 pop	 ebp
  00016	c2 04 00	 ret	 4
?SetSendEventListener@CSkinWnd@@QAEXPAVIEventListener@@@Z ENDP ; CSkinWnd::SetSendEventListener
; Function compile flags: /Odt
; File d:\boxgit\playbox\playbox\dev\prj\playbox\src\layoutmgr\changecolor\subjectchildwnd.h
_TEXT	ENDS
;	COMDAT ?SetSendEventListener@CSubjectChildWnd@@QAEXPAVIEventListener@@@Z
_TEXT	SEGMENT
_this$ = -4						; size = 4
_aEventListener$ = 8					; size = 4
?SetSendEventListener@CSubjectChildWnd@@QAEXPAVIEventListener@@@Z PROC NEAR ; CSubjectChildWnd::SetSendEventListener, COMDAT
; _this$ = ecx

; 25   : 	void SetSendEventListener(IEventListener* aEventListener ){mp_EventListener = aEventListener ;}	

  00000	55		 push	 ebp
  00001	8b ec		 mov	 ebp, esp
  00003	51		 push	 ecx
  00004	89 4d fc	 mov	 DWORD PTR _this$[ebp], ecx
  00007	8b 45 fc	 mov	 eax, DWORD PTR _this$[ebp]
  0000a	8b 4d 08	 mov	 ecx, DWORD PTR _aEventListener$[ebp]
  0000d	89 88 f0 02 00
	00		 mov	 DWORD PTR [eax+752], ecx
  00013	8b e5		 mov	 esp, ebp
  00015	5d		 pop	 ebp
  00016	c2 04 00	 ret	 4
?SetSendEventListener@CSubjectChildWnd@@QAEXPAVIEventListener@@@Z ENDP ; CSubjectChildWnd::SetSendEventListener
_TEXT	ENDS
EXTRN	??0CSkinWnd@@QAE@XZ:NEAR			; CSkinWnd::CSkinWnd
EXTRN	?InsertSmallSkin@CSkinWnd@@QAEXAAV?$basic_string@DU?$char_traits@D@std@@V?$allocator@D@2@@std@@PAVCBitmap@@V23@_N@Z:NEAR ; CSkinWnd::InsertSmallSkin
EXTRN	??0CSubjectChildWnd@@QAE@XZ:NEAR		; CSubjectChildWnd::CSubjectChildWnd
EXTRN	??0CMainSkinWnd@@QAE@XZ:NEAR			; CMainSkinWnd::CMainSkinWnd
EXTRN	??0CWebSubWnd@@QAE@XZ:NEAR			; CWebSubWnd::CWebSubWnd
EXTRN	__imp_??0?$basic_string@DU?$char_traits@D@std@@V?$allocator@D@2@@std@@QAE@ABV01@@Z:NEAR
xdata$x	SEGMENT
$T205237 DD	0ffffffffH
	DD	FLAT:$L205227
	DD	00H
	DD	FLAT:$L205228
	DD	01H
	DD	FLAT:$L205229
	DD	01H
	DD	FLAT:$L205230
	DD	01H
	DD	FLAT:$L205231
	DD	01H
	DD	FLAT:$L205232
$T205235 DD	019930520H
	DD	06H
	DD	FLAT:$T205237
	DD	2 DUP(00H)
	DD	2 DUP(00H)
; Function compile flags: /Odt
; File d:\boxgit\playbox\playbox\dev\prj\playbox\src\layoutmgr\changecolor\ichangecolormgr.cpp
xdata$x	ENDS
_TEXT	SEGMENT
tv163 = -76						; size = 4
tv135 = -72						; size = 4
tv95 = -68						; size = 4
tv87 = -64						; size = 4
tv79 = -60						; size = 4
_this$ = -56						; size = 4
$T205226 = -50						; size = 1
$T205225 = -49						; size = 1
$T205224 = -48						; size = 4
$T205221 = -44						; size = 4
$T205220 = -40						; size = 4
$T205217 = -36						; size = 4
$T205216 = -32						; size = 4
$T205213 = -28						; size = 4
$T205212 = -24						; size = 4
$T205209 = -20						; size = 4
$T205208 = -16						; size = 4
__$EHRec$ = -12						; size = 12
_astrName$ = 8						; size = 28
_apBmp$ = 36						; size = 4
_strPath$ = 40						; size = 28
_bHasSkin$ = 68						; size = 1
?InsertSmallSkin@CSkinMgrV1@@UAE_NV?$basic_string@DU?$char_traits@D@std@@V?$allocator@D@2@@std@@PAVCBitmap@@0_N@Z PROC NEAR ; CSkinMgrV1::InsertSmallSkin
; _this$ = ecx

; 278  : {

  01050	55		 push	 ebp
  01051	8b ec		 mov	 ebp, esp
  01053	6a ff		 push	 -1
  01055	68 00 00 00 00	 push	 __ehhandler$?InsertSmallSkin@CSkinMgrV1@@UAE_NV?$basic_string@DU?$char_traits@D@std@@V?$allocator@D@2@@std@@PAVCBitmap@@0_N@Z
  0105a	64 a1 00 00 00
	00		 mov	 eax, DWORD PTR fs:__except_list
  01060	50		 push	 eax
  01061	64 89 25 00 00
	00 00		 mov	 DWORD PTR fs:__except_list, esp
  01068	83 ec 40	 sub	 esp, 64			; 00000040H
  0106b	89 4d c8	 mov	 DWORD PTR _this$[ebp], ecx
  0106e	c7 45 fc 01 00
	00 00		 mov	 DWORD PTR __$EHRec$[ebp+8], 1

; 279  : 	if( !mb_HasPopWnd)

  01075	8b 45 c8	 mov	 eax, DWORD PTR _this$[ebp]
  01078	0f b6 48 48	 movzx	 ecx, BYTE PTR [eax+72]
  0107c	85 c9		 test	 ecx, ecx
  0107e	0f 85 57 01 00
	00		 jne	 $L202384

; 280  : 	{
; 281  : 		if(NULL == mp_mainSkinWnd)

  01084	8b 55 c8	 mov	 edx, DWORD PTR _this$[ebp]
  01087	83 7a 10 00	 cmp	 DWORD PTR [edx+16], 0
  0108b	0f 85 f8 00 00
	00		 jne	 $L202385

; 282  : 		{
; 283  : 			mp_mainSkinWnd	= new CMainSkinWnd;

  01091	68 60 09 00 00	 push	 2400			; 00000960H
  01096	e8 00 00 00 00	 call	 ??2CObject@@SGPAXI@Z	; CObject::operator new
  0109b	89 45 ec	 mov	 DWORD PTR $T205209[ebp], eax
  0109e	c6 45 fc 02	 mov	 BYTE PTR __$EHRec$[ebp+8], 2
  010a2	83 7d ec 00	 cmp	 DWORD PTR $T205209[ebp], 0
  010a6	74 0d		 je	 SHORT $L205210
  010a8	8b 4d ec	 mov	 ecx, DWORD PTR $T205209[ebp]
  010ab	e8 00 00 00 00	 call	 ??0CMainSkinWnd@@QAE@XZ	; CMainSkinWnd::CMainSkinWnd
  010b0	89 45 c4	 mov	 DWORD PTR tv79[ebp], eax
  010b3	eb 07		 jmp	 SHORT $L205211
$L205210:
  010b5	c7 45 c4 00 00
	00 00		 mov	 DWORD PTR tv79[ebp], 0
$L205211:
  010bc	8b 45 c4	 mov	 eax, DWORD PTR tv79[ebp]
  010bf	89 45 f0	 mov	 DWORD PTR $T205208[ebp], eax
  010c2	c6 45 fc 01	 mov	 BYTE PTR __$EHRec$[ebp+8], 1
  010c6	8b 4d c8	 mov	 ecx, DWORD PTR _this$[ebp]
  010c9	8b 55 f0	 mov	 edx, DWORD PTR $T205208[ebp]
  010cc	89 51 10	 mov	 DWORD PTR [ecx+16], edx

; 284  : 			mp_skinWnd		= new CSkinWnd;

  010cf	68 e8 02 00 00	 push	 744			; 000002e8H
  010d4	e8 00 00 00 00	 call	 ??2CObject@@SGPAXI@Z	; CObject::operator new
  010d9	89 45 e4	 mov	 DWORD PTR $T205213[ebp], eax
  010dc	c6 45 fc 03	 mov	 BYTE PTR __$EHRec$[ebp+8], 3
  010e0	83 7d e4 00	 cmp	 DWORD PTR $T205213[ebp], 0
  010e4	74 0d		 je	 SHORT $L205214
  010e6	8b 4d e4	 mov	 ecx, DWORD PTR $T205213[ebp]
  010e9	e8 00 00 00 00	 call	 ??0CSkinWnd@@QAE@XZ	; CSkinWnd::CSkinWnd
  010ee	89 45 c0	 mov	 DWORD PTR tv87[ebp], eax
  010f1	eb 07		 jmp	 SHORT $L205215
$L205214:
  010f3	c7 45 c0 00 00
	00 00		 mov	 DWORD PTR tv87[ebp], 0
$L205215:
  010fa	8b 45 c0	 mov	 eax, DWORD PTR tv87[ebp]
  010fd	89 45 e8	 mov	 DWORD PTR $T205212[ebp], eax
  01100	c6 45 fc 01	 mov	 BYTE PTR __$EHRec$[ebp+8], 1
  01104	8b 4d c8	 mov	 ecx, DWORD PTR _this$[ebp]
  01107	8b 55 e8	 mov	 edx, DWORD PTR $T205212[ebp]
  0110a	89 51 14	 mov	 DWORD PTR [ecx+20], edx

; 285  : 			mp_SubjectWnd	= new CSubjectChildWnd;

  0110d	68 f4 02 00 00	 push	 756			; 000002f4H
  01112	e8 00 00 00 00	 call	 ??2CObject@@SGPAXI@Z	; CObject::operator new
  01117	89 45 dc	 mov	 DWORD PTR $T205217[ebp], eax
  0111a	c6 45 fc 04	 mov	 BYTE PTR __$EHRec$[ebp+8], 4
  0111e	83 7d dc 00	 cmp	 DWORD PTR $T205217[ebp], 0
  01122	74 0d		 je	 SHORT $L205218
  01124	8b 4d dc	 mov	 ecx, DWORD PTR $T205217[ebp]
  01127	e8 00 00 00 00	 call	 ??0CSubjectChildWnd@@QAE@XZ ; CSubjectChildWnd::CSubjectChildWnd
  0112c	89 45 bc	 mov	 DWORD PTR tv95[ebp], eax
  0112f	eb 07		 jmp	 SHORT $L205219
$L205218:
  01131	c7 45 bc 00 00
	00 00		 mov	 DWORD PTR tv95[ebp], 0
$L205219:
  01138	8b 45 bc	 mov	 eax, DWORD PTR tv95[ebp]
  0113b	89 45 e0	 mov	 DWORD PTR $T205216[ebp], eax
  0113e	c6 45 fc 01	 mov	 BYTE PTR __$EHRec$[ebp+8], 1
  01142	8b 4d c8	 mov	 ecx, DWORD PTR _this$[ebp]
  01145	8b 55 e0	 mov	 edx, DWORD PTR $T205216[ebp]
  01148	89 51 18	 mov	 DWORD PTR [ecx+24], edx

; 286  : 			mp_WebSubWnd	= new CWebSubWnd;

  0114b	68 bc 01 00 00	 push	 444			; 000001bcH
  01150	e8 00 00 00 00	 call	 ??2CObject@@SGPAXI@Z	; CObject::operator new
  01155	89 45 d4	 mov	 DWORD PTR $T205221[ebp], eax
  01158	c6 45 fc 05	 mov	 BYTE PTR __$EHRec$[ebp+8], 5
  0115c	83 7d d4 00	 cmp	 DWORD PTR $T205221[ebp], 0
  01160	74 0d		 je	 SHORT $L205222
  01162	8b 4d d4	 mov	 ecx, DWORD PTR $T205221[ebp]
  01165	e8 00 00 00 00	 call	 ??0CWebSubWnd@@QAE@XZ	; CWebSubWnd::CWebSubWnd
  0116a	89 45 b8	 mov	 DWORD PTR tv135[ebp], eax
  0116d	eb 07		 jmp	 SHORT $L205223
$L205222:
  0116f	c7 45 b8 00 00
	00 00		 mov	 DWORD PTR tv135[ebp], 0
$L205223:
  01176	8b 45 b8	 mov	 eax, DWORD PTR tv135[ebp]
  01179	89 45 d8	 mov	 DWORD PTR $T205220[ebp], eax
  0117c	c6 45 fc 01	 mov	 BYTE PTR __$EHRec$[ebp+8], 1
  01180	8b 4d c8	 mov	 ecx, DWORD PTR _this$[ebp]
  01183	8b 55 d8	 mov	 edx, DWORD PTR $T205220[ebp]
  01186	89 51 1c	 mov	 DWORD PTR [ecx+28], edx
$L202385:

; 287  : //			m_pToolTip = new CCWToolTips();
; 288  : 		}
; 289  : 
; 290  : 		mp_skinWnd->InsertSmallSkin(astrName,apBmp, strPath,bHasSkin);

  01189	8a 45 44	 mov	 al, BYTE PTR _bHasSkin$[ebp]
  0118c	50		 push	 eax
  0118d	83 ec 1c	 sub	 esp, 28			; 0000001cH
  01190	8b cc		 mov	 ecx, esp
  01192	89 65 d0	 mov	 DWORD PTR $T205224[ebp], esp
  01195	8d 55 28	 lea	 edx, DWORD PTR _strPath$[ebp]
  01198	52		 push	 edx
  01199	ff 15 00 00 00
	00		 call	 DWORD PTR __imp_??0?$basic_string@DU?$char_traits@D@std@@V?$allocator@D@2@@std@@QAE@ABV01@@Z
  0119f	89 45 b4	 mov	 DWORD PTR tv163[ebp], eax
  011a2	8b 45 24	 mov	 eax, DWORD PTR _apBmp$[ebp]
  011a5	50		 push	 eax
  011a6	8d 4d 08	 lea	 ecx, DWORD PTR _astrName$[ebp]
  011a9	51		 push	 ecx
  011aa	8b 55 c8	 mov	 edx, DWORD PTR _this$[ebp]
  011ad	8b 4a 14	 mov	 ecx, DWORD PTR [edx+20]
  011b0	e8 00 00 00 00	 call	 ?InsertSmallSkin@CSkinWnd@@QAEXAAV?$basic_string@DU?$char_traits@D@std@@V?$allocator@D@2@@std@@PAVCBitmap@@V23@_N@Z ; CSkinWnd::InsertSmallSkin

; 291  : 		return true;

  011b5	c6 45 cf 01	 mov	 BYTE PTR $T205225[ebp], 1
  011b9	c6 45 fc 00	 mov	 BYTE PTR __$EHRec$[ebp+8], 0
  011bd	8d 4d 08	 lea	 ecx, DWORD PTR _astrName$[ebp]
  011c0	ff 15 00 00 00
	00		 call	 DWORD PTR __imp_??1?$basic_string@DU?$char_traits@D@std@@V?$allocator@D@2@@std@@QAE@XZ
  011c6	c7 45 fc ff ff
	ff ff		 mov	 DWORD PTR __$EHRec$[ebp+8], -1
  011cd	8d 4d 28	 lea	 ecx, DWORD PTR _strPath$[ebp]
  011d0	ff 15 00 00 00
	00		 call	 DWORD PTR __imp_??1?$basic_string@DU?$char_traits@D@std@@V?$allocator@D@2@@std@@QAE@XZ
  011d6	8a 45 cf	 mov	 al, BYTE PTR $T205225[ebp]
  011d9	eb 24		 jmp	 SHORT $L202383
$L202384:

; 292  : 	}
; 293  : 	return false;

  011db	c6 45 ce 00	 mov	 BYTE PTR $T205226[ebp], 0
  011df	c6 45 fc 00	 mov	 BYTE PTR __$EHRec$[ebp+8], 0
  011e3	8d 4d 08	 lea	 ecx, DWORD PTR _astrName$[ebp]
  011e6	ff 15 00 00 00
	00		 call	 DWORD PTR __imp_??1?$basic_string@DU?$char_traits@D@std@@V?$allocator@D@2@@std@@QAE@XZ
  011ec	c7 45 fc ff ff
	ff ff		 mov	 DWORD PTR __$EHRec$[ebp+8], -1
  011f3	8d 4d 28	 lea	 ecx, DWORD PTR _strPath$[ebp]
  011f6	ff 15 00 00 00
	00		 call	 DWORD PTR __imp_??1?$basic_string@DU?$char_traits@D@std@@V?$allocator@D@2@@std@@QAE@XZ
  011fc	8a 45 ce	 mov	 al, BYTE PTR $T205226[ebp]
$L202383:

; 294  : }

  011ff	8b 4d f4	 mov	 ecx, DWORD PTR __$EHRec$[ebp]
  01202	64 89 0d 00 00
	00 00		 mov	 DWORD PTR fs:__except_list, ecx
  01209	8b e5		 mov	 esp, ebp
  0120b	5d		 pop	 ebp
  0120c	c2 40 00	 ret	 64			; 00000040H
_TEXT	ENDS
text$x	SEGMENT
$L205227:
  001ab	8d 4d 28	 lea	 ecx, DWORD PTR _strPath$[ebp]
  001ae	ff 25 00 00 00
	00		 jmp	 DWORD PTR __imp_??1?$basic_string@DU?$char_traits@D@std@@V?$allocator@D@2@@std@@QAE@XZ
$L205228:
  001b4	8d 4d 08	 lea	 ecx, DWORD PTR _astrName$[ebp]
  001b7	ff 25 00 00 00
	00		 jmp	 DWORD PTR __imp_??1?$basic_string@DU?$char_traits@D@std@@V?$allocator@D@2@@std@@QAE@XZ
$L205229:
  001bd	8b 45 ec	 mov	 eax, DWORD PTR $T205209[ebp]
  001c0	50		 push	 eax
  001c1	e8 00 00 00 00	 call	 ??3CObject@@SGXPAX@Z	; CObject::operator delete
  001c6	c3		 ret	 0
$L205230:
  001c7	8b 45 e4	 mov	 eax, DWORD PTR $T205213[ebp]
  001ca	50		 push	 eax
  001cb	e8 00 00 00 00	 call	 ??3CObject@@SGXPAX@Z	; CObject::operator delete
  001d0	c3		 ret	 0
$L205231:
  001d1	8b 45 dc	 mov	 eax, DWORD PTR $T205217[ebp]
  001d4	50		 push	 eax
  001d5	e8 00 00 00 00	 call	 ??3CObject@@SGXPAX@Z	; CObject::operator delete
  001da	c3		 ret	 0
$L205232:
  001db	8b 45 d4	 mov	 eax, DWORD PTR $T205221[ebp]
  001de	50		 push	 eax
  001df	e8 00 00 00 00	 call	 ??3CObject@@SGXPAX@Z	; CObject::operator delete
  001e4	c3		 ret	 0
__ehhandler$?InsertSmallSkin@CSkinMgrV1@@UAE_NV?$basic_string@DU?$char_traits@D@std@@V?$allocator@D@2@@std@@PAVCBitmap@@0_N@Z:
  001e5	b8 00 00 00 00	 mov	 eax, OFFSET FLAT:$T205235
  001ea	e9 00 00 00 00	 jmp	 ___CxxFrameHandler
text$x	ENDS
?InsertSmallSkin@CSkinMgrV1@@UAE_NV?$basic_string@DU?$char_traits@D@std@@V?$allocator@D@2@@std@@PAVCBitmap@@0_N@Z ENDP ; CSkinMgrV1::InsertSmallSkin
EXTRN	?InsertSmallObjectBmp@CSubjectChildWnd@@QAEXAAV?$basic_string@DU?$char_traits@D@std@@V?$allocator@D@2@@std@@PAVCBitmap@@V23@_N@Z:NEAR ; CSubjectChildWnd::InsertSmallObjectBmp
xdata$x	SEGMENT
$T205268 DD	0ffffffffH
	DD	FLAT:$L205258
	DD	00H
	DD	FLAT:$L205259
	DD	01H
	DD	FLAT:$L205260
	DD	01H
	DD	FLAT:$L205261
	DD	01H
	DD	FLAT:$L205262
	DD	01H
	DD	FLAT:$L205263
$T205266 DD	019930520H
	DD	06H
	DD	FLAT:$T205268
	DD	2 DUP(00H)
	DD	2 DUP(00H)
; Function compile flags: /Odt
xdata$x	ENDS
_TEXT	SEGMENT
tv163 = -76						; size = 4
tv135 = -72						; size = 4
tv95 = -68						; size = 4
tv87 = -64						; size = 4
tv79 = -60						; size = 4
_this$ = -56						; size = 4
$T205257 = -50						; size = 1
$T205256 = -49						; size = 1
$T205255 = -48						; size = 4
$T205252 = -44						; size = 4
$T205251 = -40						; size = 4
$T205248 = -36						; size = 4
$T205247 = -32						; size = 4
$T205244 = -28						; size = 4
$T205243 = -24						; size = 4
$T205240 = -20						; size = 4
$T205239 = -16						; size = 4
__$EHRec$ = -12						; size = 12
_astrName$ = 8						; size = 28
_apBmp$ = 36						; size = 4
_strPath$ = 40						; size = 28
_bHasSkin$ = 68						; size = 1
?InsertSmallSubjectSkin@CSkinMgrV1@@UAE_NV?$basic_string@DU?$char_traits@D@std@@V?$allocator@D@2@@std@@PAVCBitmap@@0_N@Z PROC NEAR ; CSkinMgrV1::InsertSmallSubjectSkin
; _this$ = ecx

; 296  : {

  01210	55		 push	 ebp
  01211	8b ec		 mov	 ebp, esp
  01213	6a ff		 push	 -1
  01215	68 00 00 00 00	 push	 __ehhandler$?InsertSmallSubjectSkin@CSkinMgrV1@@UAE_NV?$basic_string@DU?$char_traits@D@std@@V?$allocator@D@2@@std@@PAVCBitmap@@0_N@Z
  0121a	64 a1 00 00 00
	00		 mov	 eax, DWORD PTR fs:__except_list
  01220	50		 push	 eax
  01221	64 89 25 00 00
	00 00		 mov	 DWORD PTR fs:__except_list, esp
  01228	83 ec 40	 sub	 esp, 64			; 00000040H
  0122b	89 4d c8	 mov	 DWORD PTR _this$[ebp], ecx
  0122e	c7 45 fc 01 00
	00 00		 mov	 DWORD PTR __$EHRec$[ebp+8], 1

; 297  : 	if( !mb_HasPopWnd)

  01235	8b 45 c8	 mov	 eax, DWORD PTR _this$[ebp]
  01238	0f b6 48 48	 movzx	 ecx, BYTE PTR [eax+72]
  0123c	85 c9		 test	 ecx, ecx
  0123e	0f 85 57 01 00
	00		 jne	 $L202412

; 298  : 	{	
; 299  : 		if(NULL == mp_mainSkinWnd)

  01244	8b 55 c8	 mov	 edx, DWORD PTR _this$[ebp]
  01247	83 7a 10 00	 cmp	 DWORD PTR [edx+16], 0
  0124b	0f 85 f8 00 00
	00		 jne	 $L202413

; 300  : 		{
; 301  : 			mp_mainSkinWnd	= new CMainSkinWnd;

  01251	68 60 09 00 00	 push	 2400			; 00000960H
  01256	e8 00 00 00 00	 call	 ??2CObject@@SGPAXI@Z	; CObject::operator new
  0125b	89 45 ec	 mov	 DWORD PTR $T205240[ebp], eax
  0125e	c6 45 fc 02	 mov	 BYTE PTR __$EHRec$[ebp+8], 2
  01262	83 7d ec 00	 cmp	 DWORD PTR $T205240[ebp], 0
  01266	74 0d		 je	 SHORT $L205241
  01268	8b 4d ec	 mov	 ecx, DWORD PTR $T205240[ebp]
  0126b	e8 00 00 00 00	 call	 ??0CMainSkinWnd@@QAE@XZ	; CMainSkinWnd::CMainSkinWnd
  01270	89 45 c4	 mov	 DWORD PTR tv79[ebp], eax
  01273	eb 07		 jmp	 SHORT $L205242
$L205241:
  01275	c7 45 c4 00 00
	00 00		 mov	 DWORD PTR tv79[ebp], 0
$L205242:
  0127c	8b 45 c4	 mov	 eax, DWORD PTR tv79[ebp]
  0127f	89 45 f0	 mov	 DWORD PTR $T205239[ebp], eax
  01282	c6 45 fc 01	 mov	 BYTE PTR __$EHRec$[ebp+8], 1
  01286	8b 4d c8	 mov	 ecx, DWORD PTR _this$[ebp]
  01289	8b 55 f0	 mov	 edx, DWORD PTR $T205239[ebp]
  0128c	89 51 10	 mov	 DWORD PTR [ecx+16], edx

; 302  : 			mp_skinWnd		= new CSkinWnd;

  0128f	68 e8 02 00 00	 push	 744			; 000002e8H
  01294	e8 00 00 00 00	 call	 ??2CObject@@SGPAXI@Z	; CObject::operator new
  01299	89 45 e4	 mov	 DWORD PTR $T205244[ebp], eax
  0129c	c6 45 fc 03	 mov	 BYTE PTR __$EHRec$[ebp+8], 3
  012a0	83 7d e4 00	 cmp	 DWORD PTR $T205244[ebp], 0
  012a4	74 0d		 je	 SHORT $L205245
  012a6	8b 4d e4	 mov	 ecx, DWORD PTR $T205244[ebp]
  012a9	e8 00 00 00 00	 call	 ??0CSkinWnd@@QAE@XZ	; CSkinWnd::CSkinWnd
  012ae	89 45 c0	 mov	 DWORD PTR tv87[ebp], eax
  012b1	eb 07		 jmp	 SHORT $L205246
$L205245:
  012b3	c7 45 c0 00 00
	00 00		 mov	 DWORD PTR tv87[ebp], 0
$L205246:
  012ba	8b 45 c0	 mov	 eax, DWORD PTR tv87[ebp]
  012bd	89 45 e8	 mov	 DWORD PTR $T205243[ebp], eax
  012c0	c6 45 fc 01	 mov	 BYTE PTR __$EHRec$[ebp+8], 1
  012c4	8b 4d c8	 mov	 ecx, DWORD PTR _this$[ebp]
  012c7	8b 55 e8	 mov	 edx, DWORD PTR $T205243[ebp]
  012ca	89 51 14	 mov	 DWORD PTR [ecx+20], edx

; 303  : 			mp_SubjectWnd	= new CSubjectChildWnd;

  012cd	68 f4 02 00 00	 push	 756			; 000002f4H
  012d2	e8 00 00 00 00	 call	 ??2CObject@@SGPAXI@Z	; CObject::operator new
  012d7	89 45 dc	 mov	 DWORD PTR $T205248[ebp], eax
  012da	c6 45 fc 04	 mov	 BYTE PTR __$EHRec$[ebp+8], 4
  012de	83 7d dc 00	 cmp	 DWORD PTR $T205248[ebp], 0
  012e2	74 0d		 je	 SHORT $L205249
  012e4	8b 4d dc	 mov	 ecx, DWORD PTR $T205248[ebp]
  012e7	e8 00 00 00 00	 call	 ??0CSubjectChildWnd@@QAE@XZ ; CSubjectChildWnd::CSubjectChildWnd
  012ec	89 45 bc	 mov	 DWORD PTR tv95[ebp], eax
  012ef	eb 07		 jmp	 SHORT $L205250
$L205249:
  012f1	c7 45 bc 00 00
	00 00		 mov	 DWORD PTR tv95[ebp], 0
$L205250:
  012f8	8b 45 bc	 mov	 eax, DWORD PTR tv95[ebp]
  012fb	89 45 e0	 mov	 DWORD PTR $T205247[ebp], eax
  012fe	c6 45 fc 01	 mov	 BYTE PTR __$EHRec$[ebp+8], 1
  01302	8b 4d c8	 mov	 ecx, DWORD PTR _this$[ebp]
  01305	8b 55 e0	 mov	 edx, DWORD PTR $T205247[ebp]
  01308	89 51 18	 mov	 DWORD PTR [ecx+24], edx

; 304  : 			mp_WebSubWnd	= new CWebSubWnd;

  0130b	68 bc 01 00 00	 push	 444			; 000001bcH
  01310	e8 00 00 00 00	 call	 ??2CObject@@SGPAXI@Z	; CObject::operator new
  01315	89 45 d4	 mov	 DWORD PTR $T205252[ebp], eax
  01318	c6 45 fc 05	 mov	 BYTE PTR __$EHRec$[ebp+8], 5
  0131c	83 7d d4 00	 cmp	 DWORD PTR $T205252[ebp], 0
  01320	74 0d		 je	 SHORT $L205253
  01322	8b 4d d4	 mov	 ecx, DWORD PTR $T205252[ebp]
  01325	e8 00 00 00 00	 call	 ??0CWebSubWnd@@QAE@XZ	; CWebSubWnd::CWebSubWnd
  0132a	89 45 b8	 mov	 DWORD PTR tv135[ebp], eax
  0132d	eb 07		 jmp	 SHORT $L205254
$L205253:
  0132f	c7 45 b8 00 00
	00 00		 mov	 DWORD PTR tv135[ebp], 0
$L205254:
  01336	8b 45 b8	 mov	 eax, DWORD PTR tv135[ebp]
  01339	89 45 d8	 mov	 DWORD PTR $T205251[ebp], eax
  0133c	c6 45 fc 01	 mov	 BYTE PTR __$EHRec$[ebp+8], 1
  01340	8b 4d c8	 mov	 ecx, DWORD PTR _this$[ebp]
  01343	8b 55 d8	 mov	 edx, DWORD PTR $T205251[ebp]
  01346	89 51 1c	 mov	 DWORD PTR [ecx+28], edx
$L202413:

; 305  : //			m_pToolTip = new CCWToolTips();
; 306  : 		}
; 307  : 
; 308  : 		mp_SubjectWnd->InsertSmallObjectBmp(astrName,apBmp, strPath,bHasSkin);

  01349	8a 45 44	 mov	 al, BYTE PTR _bHasSkin$[ebp]
  0134c	50		 push	 eax
  0134d	83 ec 1c	 sub	 esp, 28			; 0000001cH
  01350	8b cc		 mov	 ecx, esp
  01352	89 65 d0	 mov	 DWORD PTR $T205255[ebp], esp
  01355	8d 55 28	 lea	 edx, DWORD PTR _strPath$[ebp]
  01358	52		 push	 edx
  01359	ff 15 00 00 00
	00		 call	 DWORD PTR __imp_??0?$basic_string@DU?$char_traits@D@std@@V?$allocator@D@2@@std@@QAE@ABV01@@Z
  0135f	89 45 b4	 mov	 DWORD PTR tv163[ebp], eax
  01362	8b 45 24	 mov	 eax, DWORD PTR _apBmp$[ebp]
  01365	50		 push	 eax
  01366	8d 4d 08	 lea	 ecx, DWORD PTR _astrName$[ebp]
  01369	51		 push	 ecx
  0136a	8b 55 c8	 mov	 edx, DWORD PTR _this$[ebp]
  0136d	8b 4a 18	 mov	 ecx, DWORD PTR [edx+24]
  01370	e8 00 00 00 00	 call	 ?InsertSmallObjectBmp@CSubjectChildWnd@@QAEXAAV?$basic_string@DU?$char_traits@D@std@@V?$allocator@D@2@@std@@PAVCBitmap@@V23@_N@Z ; CSubjectChildWnd::InsertSmallObjectBmp

; 309  : 		return true;

  01375	c6 45 cf 01	 mov	 BYTE PTR $T205256[ebp], 1
  01379	c6 45 fc 00	 mov	 BYTE PTR __$EHRec$[ebp+8], 0
  0137d	8d 4d 08	 lea	 ecx, DWORD PTR _astrName$[ebp]
  01380	ff 15 00 00 00
	00		 call	 DWORD PTR __imp_??1?$basic_string@DU?$char_traits@D@std@@V?$allocator@D@2@@std@@QAE@XZ
  01386	c7 45 fc ff ff
	ff ff		 mov	 DWORD PTR __$EHRec$[ebp+8], -1
  0138d	8d 4d 28	 lea	 ecx, DWORD PTR _strPath$[ebp]
  01390	ff 15 00 00 00
	00		 call	 DWORD PTR __imp_??1?$basic_string@DU?$char_traits@D@std@@V?$allocator@D@2@@std@@QAE@XZ
  01396	8a 45 cf	 mov	 al, BYTE PTR $T205256[ebp]
  01399	eb 24		 jmp	 SHORT $L202411
$L202412:

; 310  : 	}
; 311  : 	return false;

  0139b	c6 45 ce 00	 mov	 BYTE PTR $T205257[ebp], 0
  0139f	c6 45 fc 00	 mov	 BYTE PTR __$EHRec$[ebp+8], 0
  013a3	8d 4d 08	 lea	 ecx, DWORD PTR _astrName$[ebp]
  013a6	ff 15 00 00 00
	00		 call	 DWORD PTR __imp_??1?$basic_string@DU?$char_traits@D@std@@V?$allocator@D@2@@std@@QAE@XZ
  013ac	c7 45 fc ff ff
	ff ff		 mov	 DWORD PTR __$EHRec$[ebp+8], -1
  013b3	8d 4d 28	 lea	 ecx, DWORD PTR _strPath$[ebp]
  013b6	ff 15 00 00 00
	00		 call	 DWORD PTR __imp_??1?$basic_string@DU?$char_traits@D@std@@V?$allocator@D@2@@std@@QAE@XZ
  013bc	8a 45 ce	 mov	 al, BYTE PTR $T205257[ebp]
$L202411:

; 312  : }

  013bf	8b 4d f4	 mov	 ecx, DWORD PTR __$EHRec$[ebp]
  013c2	64 89 0d 00 00
	00 00		 mov	 DWORD PTR fs:__except_list, ecx
  013c9	8b e5		 mov	 esp, ebp
  013cb	5d		 pop	 ebp
  013cc	c2 40 00	 ret	 64			; 00000040H
_TEXT	ENDS
text$x	SEGMENT
$L205258:
  001ef	8d 4d 28	 lea	 ecx, DWORD PTR _strPath$[ebp]
  001f2	ff 25 00 00 00
	00		 jmp	 DWORD PTR __imp_??1?$basic_string@DU?$char_traits@D@std@@V?$allocator@D@2@@std@@QAE@XZ
$L205259:
  001f8	8d 4d 08	 lea	 ecx, DWORD PTR _astrName$[ebp]
  001fb	ff 25 00 00 00
	00		 jmp	 DWORD PTR __imp_??1?$basic_string@DU?$char_traits@D@std@@V?$allocator@D@2@@std@@QAE@XZ
$L205260:
  00201	8b 45 ec	 mov	 eax, DWORD PTR $T205240[ebp]
  00204	50		 push	 eax
  00205	e8 00 00 00 00	 call	 ??3CObject@@SGXPAX@Z	; CObject::operator delete
  0020a	c3		 ret	 0
$L205261:
  0020b	8b 45 e4	 mov	 eax, DWORD PTR $T205244[ebp]
  0020e	50		 push	 eax
  0020f	e8 00 00 00 00	 call	 ??3CObject@@SGXPAX@Z	; CObject::operator delete
  00214	c3		 ret	 0
$L205262:
  00215	8b 45 dc	 mov	 eax, DWORD PTR $T205248[ebp]
  00218	50		 push	 eax
  00219	e8 00 00 00 00	 call	 ??3CObject@@SGXPAX@Z	; CObject::operator delete
  0021e	c3		 ret	 0
$L205263:
  0021f	8b 45 d4	 mov	 eax, DWORD PTR $T205252[ebp]
  00222	50		 push	 eax
  00223	e8 00 00 00 00	 call	 ??3CObject@@SGXPAX@Z	; CObject::operator delete
  00228	c3		 ret	 0
__ehhandler$?InsertSmallSubjectSkin@CSkinMgrV1@@UAE_NV?$basic_string@DU?$char_traits@D@std@@V?$allocator@D@2@@std@@PAVCBitmap@@0_N@Z:
  00229	b8 00 00 00 00	 mov	 eax, OFFSET FLAT:$T205266
  0022e	e9 00 00 00 00	 jmp	 ___CxxFrameHandler
text$x	ENDS
?InsertSmallSubjectSkin@CSkinMgrV1@@UAE_NV?$basic_string@DU?$char_traits@D@std@@V?$allocator@D@2@@std@@PAVCBitmap@@0_N@Z ENDP ; CSkinMgrV1::InsertSmallSubjectSkin
EXTRN	?SetTipText@CSkinWnd@@QAEXV?$CStringT@DV?$StrTraitMFC_DLL@DV?$ChTraitsCRT@D@ATL@@@@@ATL@@0@Z:NEAR ; CSkinWnd::SetTipText
xdata$x	SEGMENT
$T205279 DD	0ffffffffH
	DD	FLAT:$L205272
	DD	00H
	DD	FLAT:$L205273
	DD	01H
	DD	FLAT:$L205274
$T205277 DD	019930520H
	DD	03H
	DD	FLAT:$T205279
	DD	2 DUP(00H)
	DD	2 DUP(00H)
; Function compile flags: /Odt
xdata$x	ENDS
_TEXT	SEGMENT
tv136 = -36						; size = 4
tv133 = -32						; size = 4
tv139 = -28						; size = 4
_this$ = -24						; size = 4
$T205271 = -20						; size = 4
$T205270 = -16						; size = 4
__$EHRec$ = -12						; size = 12
_astrName$ = 8						; size = 4
_strTip$ = 12						; size = 4
?SetTipText@CSkinMgrV1@@UAEXV?$CStringT@DV?$StrTraitMFC_DLL@DV?$ChTraitsCRT@D@ATL@@@@@ATL@@0@Z PROC NEAR ; CSkinMgrV1::SetTipText
; _this$ = ecx

; 316  : {

  013d0	55		 push	 ebp
  013d1	8b ec		 mov	 ebp, esp
  013d3	6a ff		 push	 -1
  013d5	68 00 00 00 00	 push	 __ehhandler$?SetTipText@CSkinMgrV1@@UAEXV?$CStringT@DV?$StrTraitMFC_DLL@DV?$ChTraitsCRT@D@ATL@@@@@ATL@@0@Z
  013da	64 a1 00 00 00
	00		 mov	 eax, DWORD PTR fs:__except_list
  013e0	50		 push	 eax
  013e1	64 89 25 00 00
	00 00		 mov	 DWORD PTR fs:__except_list, esp
  013e8	83 ec 18	 sub	 esp, 24			; 00000018H
  013eb	89 4d e8	 mov	 DWORD PTR _this$[ebp], ecx
  013ee	c7 45 fc 01 00
	00 00		 mov	 DWORD PTR __$EHRec$[ebp+8], 1

; 317  : 	if( mp_skinWnd )

  013f5	8b 45 e8	 mov	 eax, DWORD PTR _this$[ebp]
  013f8	83 78 14 00	 cmp	 DWORD PTR [eax+20], 0
  013fc	74 3f		 je	 SHORT $L202438

; 318  : 		mp_skinWnd->SetTipText( astrName,strTip );

  013fe	51		 push	 ecx
  013ff	8b cc		 mov	 ecx, esp
  01401	89 65 f0	 mov	 DWORD PTR $T205270[ebp], esp
  01404	8d 55 0c	 lea	 edx, DWORD PTR _strTip$[ebp]
  01407	52		 push	 edx
  01408	ff 15 00 00 00
	00		 call	 DWORD PTR __imp_??0?$CStringT@DV?$StrTraitMFC_DLL@DV?$ChTraitsCRT@D@ATL@@@@@ATL@@QAE@ABV01@@Z
  0140e	89 45 e4	 mov	 DWORD PTR tv139[ebp], eax
  01411	8b 45 e4	 mov	 eax, DWORD PTR tv139[ebp]
  01414	89 45 e0	 mov	 DWORD PTR tv133[ebp], eax
  01417	c6 45 fc 02	 mov	 BYTE PTR __$EHRec$[ebp+8], 2
  0141b	51		 push	 ecx
  0141c	8b cc		 mov	 ecx, esp
  0141e	89 65 ec	 mov	 DWORD PTR $T205271[ebp], esp
  01421	8d 55 08	 lea	 edx, DWORD PTR _astrName$[ebp]
  01424	52		 push	 edx
  01425	ff 15 00 00 00
	00		 call	 DWORD PTR __imp_??0?$CStringT@DV?$StrTraitMFC_DLL@DV?$ChTraitsCRT@D@ATL@@@@@ATL@@QAE@ABV01@@Z
  0142b	89 45 dc	 mov	 DWORD PTR tv136[ebp], eax
  0142e	8b 45 e8	 mov	 eax, DWORD PTR _this$[ebp]
  01431	8b 48 14	 mov	 ecx, DWORD PTR [eax+20]
  01434	c6 45 fc 01	 mov	 BYTE PTR __$EHRec$[ebp+8], 1
  01438	e8 00 00 00 00	 call	 ?SetTipText@CSkinWnd@@QAEXV?$CStringT@DV?$StrTraitMFC_DLL@DV?$ChTraitsCRT@D@ATL@@@@@ATL@@0@Z ; CSkinWnd::SetTipText
$L202438:

; 319  : }

  0143d	c6 45 fc 00	 mov	 BYTE PTR __$EHRec$[ebp+8], 0
  01441	8d 4d 08	 lea	 ecx, DWORD PTR _astrName$[ebp]
  01444	ff 15 00 00 00
	00		 call	 DWORD PTR __imp_??1?$CStringT@DV?$StrTraitMFC_DLL@DV?$ChTraitsCRT@D@ATL@@@@@ATL@@QAE@XZ
  0144a	c7 45 fc ff ff
	ff ff		 mov	 DWORD PTR __$EHRec$[ebp+8], -1
  01451	8d 4d 0c	 lea	 ecx, DWORD PTR _strTip$[ebp]
  01454	ff 15 00 00 00
	00		 call	 DWORD PTR __imp_??1?$CStringT@DV?$StrTraitMFC_DLL@DV?$ChTraitsCRT@D@ATL@@@@@ATL@@QAE@XZ
  0145a	8b 4d f4	 mov	 ecx, DWORD PTR __$EHRec$[ebp]
  0145d	64 89 0d 00 00
	00 00		 mov	 DWORD PTR fs:__except_list, ecx
  01464	8b e5		 mov	 esp, ebp
  01466	5d		 pop	 ebp
  01467	c2 08 00	 ret	 8
_TEXT	ENDS
text$x	SEGMENT
$L205272:
  00233	8d 4d 0c	 lea	 ecx, DWORD PTR _strTip$[ebp]
  00236	ff 25 00 00 00
	00		 jmp	 DWORD PTR __imp_??1?$CStringT@DV?$StrTraitMFC_DLL@DV?$ChTraitsCRT@D@ATL@@@@@ATL@@QAE@XZ
$L205273:
  0023c	8d 4d 08	 lea	 ecx, DWORD PTR _astrName$[ebp]
  0023f	ff 25 00 00 00
	00		 jmp	 DWORD PTR __imp_??1?$CStringT@DV?$StrTraitMFC_DLL@DV?$ChTraitsCRT@D@ATL@@@@@ATL@@QAE@XZ
$L205274:
  00245	8b 4d f0	 mov	 ecx, DWORD PTR $T205270[ebp]
  00248	ff 25 00 00 00
	00		 jmp	 DWORD PTR __imp_??1?$CStringT@DV?$StrTraitMFC_DLL@DV?$ChTraitsCRT@D@ATL@@@@@ATL@@QAE@XZ
__ehhandler$?SetTipText@CSkinMgrV1@@UAEXV?$CStringT@DV?$StrTraitMFC_DLL@DV?$ChTraitsCRT@D@ATL@@@@@ATL@@0@Z:
  0024e	b8 00 00 00 00	 mov	 eax, OFFSET FLAT:$T205277
  00253	e9 00 00 00 00	 jmp	 ___CxxFrameHandler
text$x	ENDS
?SetTipText@CSkinMgrV1@@UAEXV?$CStringT@DV?$StrTraitMFC_DLL@DV?$ChTraitsCRT@D@ATL@@@@@ATL@@0@Z ENDP ; CSkinMgrV1::SetTipText
PUBLIC	??1DIBINFO@@UAE@XZ				; DIBINFO::~DIBINFO
EXTRN	?gBitMapOperate@@3VCBitMapOperate@@A:BYTE	; gBitMapOperate
EXTRN	?ChangeBmpSkin@CBitMapOperate@@QAEPAVDIBINFO@@AAV2@AAIAAK21@Z:NEAR ; CBitMapOperate::ChangeBmpSkin
xdata$x	SEGMENT
$T205286 DD	0ffffffffH
	DD	FLAT:$L205282
$T205284 DD	019930520H
	DD	01H
	DD	FLAT:$T205286
	DD	2 DUP(00H)
	DD	2 DUP(00H)
; Function compile flags: /Odt
xdata$x	ENDS
_TEXT	SEGMENT
_this$ = -20						; size = 4
$T205281 = -16						; size = 4
__$EHRec$ = -12						; size = 12
_ahSourceDib$ = 8					; size = 24
_aColorGroup$ = 32					; size = 4
_aMaskColor$ = 36					; size = 4
?ChangeBmp@CSkinMgrV1@@UAEPAVDIBINFO@@V2@IK@Z PROC NEAR	; CSkinMgrV1::ChangeBmp
; _this$ = ecx

; 322  : {

  01470	55		 push	 ebp
  01471	8b ec		 mov	 ebp, esp
  01473	6a ff		 push	 -1
  01475	68 00 00 00 00	 push	 __ehhandler$?ChangeBmp@CSkinMgrV1@@UAEPAVDIBINFO@@V2@IK@Z
  0147a	64 a1 00 00 00
	00		 mov	 eax, DWORD PTR fs:__except_list
  01480	50		 push	 eax
  01481	64 89 25 00 00
	00 00		 mov	 DWORD PTR fs:__except_list, esp
  01488	83 ec 08	 sub	 esp, 8
  0148b	89 4d ec	 mov	 DWORD PTR _this$[ebp], ecx
  0148e	c7 45 fc 00 00
	00 00		 mov	 DWORD PTR __$EHRec$[ebp+8], 0

; 323  : 	return gBitMapOperate.ChangeBmpSkin(ahSourceDib,aColorGroup,m_BaseColor,aMaskColor,m_nLightPos);

  01495	8b 45 ec	 mov	 eax, DWORD PTR _this$[ebp]
  01498	83 c0 30	 add	 eax, 48			; 00000030H
  0149b	50		 push	 eax
  0149c	8d 4d 24	 lea	 ecx, DWORD PTR _aMaskColor$[ebp]
  0149f	51		 push	 ecx
  014a0	8b 55 ec	 mov	 edx, DWORD PTR _this$[ebp]
  014a3	83 c2 28	 add	 edx, 40			; 00000028H
  014a6	52		 push	 edx
  014a7	8d 45 20	 lea	 eax, DWORD PTR _aColorGroup$[ebp]
  014aa	50		 push	 eax
  014ab	8d 4d 08	 lea	 ecx, DWORD PTR _ahSourceDib$[ebp]
  014ae	51		 push	 ecx
  014af	b9 00 00 00 00	 mov	 ecx, OFFSET FLAT:?gBitMapOperate@@3VCBitMapOperate@@A
  014b4	e8 00 00 00 00	 call	 ?ChangeBmpSkin@CBitMapOperate@@QAEPAVDIBINFO@@AAV2@AAIAAK21@Z ; CBitMapOperate::ChangeBmpSkin
  014b9	89 45 f0	 mov	 DWORD PTR $T205281[ebp], eax
  014bc	c7 45 fc ff ff
	ff ff		 mov	 DWORD PTR __$EHRec$[ebp+8], -1
  014c3	8d 4d 08	 lea	 ecx, DWORD PTR _ahSourceDib$[ebp]
  014c6	e8 00 00 00 00	 call	 ??1DIBINFO@@UAE@XZ	; DIBINFO::~DIBINFO
  014cb	8b 45 f0	 mov	 eax, DWORD PTR $T205281[ebp]

; 324  : }

  014ce	8b 4d f4	 mov	 ecx, DWORD PTR __$EHRec$[ebp]
  014d1	64 89 0d 00 00
	00 00		 mov	 DWORD PTR fs:__except_list, ecx
  014d8	8b e5		 mov	 esp, ebp
  014da	5d		 pop	 ebp
  014db	c2 20 00	 ret	 32			; 00000020H
_TEXT	ENDS
text$x	SEGMENT
$L205282:
  00258	8d 4d 08	 lea	 ecx, DWORD PTR _ahSourceDib$[ebp]
  0025b	e9 00 00 00 00	 jmp	 ??1DIBINFO@@UAE@XZ	; DIBINFO::~DIBINFO
__ehhandler$?ChangeBmp@CSkinMgrV1@@UAEPAVDIBINFO@@V2@IK@Z:
  00260	b8 00 00 00 00	 mov	 eax, OFFSET FLAT:$T205284
  00265	e9 00 00 00 00	 jmp	 ___CxxFrameHandler
text$x	ENDS
?ChangeBmp@CSkinMgrV1@@UAEPAVDIBINFO@@V2@IK@Z ENDP	; CSkinMgrV1::ChangeBmp
PUBLIC	??_R4DIBINFO@@6B@				; DIBINFO::`RTTI Complete Object Locator'
PUBLIC	??_R0?AVDIBINFO@@@8				; DIBINFO `RTTI Type Descriptor'
PUBLIC	??_R3DIBINFO@@8					; DIBINFO::`RTTI Class Hierarchy Descriptor'
PUBLIC	??_R2DIBINFO@@8					; DIBINFO::`RTTI Base Class Array'
PUBLIC	??_R1A@?0A@A@DIBINFO@@8				; DIBINFO::`RTTI Base Class Descriptor at (0,-1,0,0)'
