; Listing generated by Microsoft (R) Optimizing Compiler Version 13.10.3077 

	TITLE	.\src\LayoutMgr\ChangeColor\IChangeColorMgr.cpp
	.386P
include listing.inc
if @Version gt 510
.model FLAT
else
_TEXT	SEGMENT PARA USE32 PUBLIC 'CODE'
_TEXT	ENDS
_DATA	SEGMENT DWORD USE32 PUBLIC 'DATA'
_DATA	ENDS
CONST	SEGMENT DWORD USE32 PUBLIC 'CONST'
CONST	ENDS
_BSS	SEGMENT DWORD USE32 PUBLIC 'BSS'
_BSS	ENDS
$$SYMBOLS	SEGMENT BYTE USE32 'DEBSYM'
$$SYMBOLS	ENDS
$$TYPES	SEGMENT BYTE USE32 'DEBTYP'
$$TYPES	ENDS
_TLS	SEGMENT DWORD USE32 PUBLIC 'TLS'
_TLS	ENDS
;	COMDAT ??_C@_0BD@OLBABOEK@vector?$DMT?$DO?5too?5long?$AA@
CONST	SEGMENT DWORD USE32 PUBLIC 'CONST'
CONST	ENDS
rdata$r	SEGMENT DWORD USE32 PUBLIC 'CONST'
rdata$r	ENDS
xdata$x	SEGMENT DWORD USE32 PUBLIC 'CONST'
xdata$x	ENDS
text$AFX_COL1	SEGMENT PARA USE32 PUBLIC ''
text$AFX_COL1	ENDS
text$yc	SEGMENT PARA USE32 PUBLIC 'CODE'
text$yc	ENDS
CRT$XCA	SEGMENT DWORD USE32 PUBLIC 'DATA'
CRT$XCA	ENDS
CRT$XCU	SEGMENT DWORD USE32 PUBLIC 'DATA'
CRT$XCU	ENDS
CRT$XCL	SEGMENT DWORD USE32 PUBLIC 'DATA'
CRT$XCL	ENDS
CRT$XCC	SEGMENT DWORD USE32 PUBLIC 'DATA'
CRT$XCC	ENDS
CRT$XCZ	SEGMENT DWORD USE32 PUBLIC 'DATA'
CRT$XCZ	ENDS
text$yd	SEGMENT PARA USE32 PUBLIC 'CODE'
text$yd	ENDS
ATL$__m	SEGMENT DWORD USE32 PUBLIC ''
ATL$__m	ENDS
ATL$__z	SEGMENT DWORD USE32 PUBLIC ''
ATL$__z	ENDS
ATL$__a	SEGMENT DWORD USE32 PUBLIC ''
ATL$__a	ENDS
;	COMDAT ??1DIBINFO@@UAE@XZ
_TEXT	SEGMENT PARA USE32 PUBLIC 'CODE'
_TEXT	ENDS
;	COMDAT ??_GDIBINFO@@UAEPAXI@Z
_TEXT	SEGMENT PARA USE32 PUBLIC 'CODE'
_TEXT	ENDS
;	COMDAT ?SetAdjustValue@CBitMapOperate@@QAEXH@Z
_TEXT	SEGMENT PARA USE32 PUBLIC 'CODE'
_TEXT	ENDS
;	COMDAT ??1CGdiPlusBitmap@@UAE@XZ
_TEXT	SEGMENT PARA USE32 PUBLIC 'CODE'
_TEXT	ENDS
;	COMDAT ?Empty@CGdiPlusBitmap@@QAEXXZ
_TEXT	SEGMENT PARA USE32 PUBLIC 'CODE'
_TEXT	ENDS
;	COMDAT ?Load@CGdiPlusBitmap@@QAE_NPB_W@Z
_TEXT	SEGMENT PARA USE32 PUBLIC 'CODE'
_TEXT	ENDS
;	COMDAT ??_GCGdiPlusBitmap@@UAEPAXI@Z
_TEXT	SEGMENT PARA USE32 PUBLIC 'CODE'
_TEXT	ENDS
;	COMDAT ??1IData@@MAE@XZ
_TEXT	SEGMENT PARA USE32 PUBLIC 'CODE'
_TEXT	ENDS
;	COMDAT ?DataAppStart@IData@@UAEXXZ
_TEXT	SEGMENT PARA USE32 PUBLIC 'CODE'
_TEXT	ENDS
;	COMDAT ?DataAppExit@IData@@UAEXXZ
_TEXT	SEGMENT PARA USE32 PUBLIC 'CODE'
_TEXT	ENDS
;	COMDAT ??_GIData@@MAEPAXI@Z
_TEXT	SEGMENT PARA USE32 PUBLIC 'CODE'
_TEXT	ENDS
;	COMDAT ?OnCliekButton@IEventListener@@UAEXPAVCButton@@@Z
_TEXT	SEGMENT PARA USE32 PUBLIC 'CODE'
_TEXT	ENDS
;	COMDAT ?OnCliekSlide@IEventListener@@UAEXPAVCSliderCtrl@@@Z
_TEXT	SEGMENT PARA USE32 PUBLIC 'CODE'
_TEXT	ENDS
;	COMDAT ?OnSendChangeColor@IEventListener@@UAEXKI_N@Z
_TEXT	SEGMENT PARA USE32 PUBLIC 'CODE'
_TEXT	ENDS
;	COMDAT ?OnSendChangeSkin@IEventListener@@UAEXV?$CStringT@DV?$StrTraitMFC_DLL@DV?$ChTraitsCRT@D@ATL@@@@@ATL@@@Z
_TEXT	SEGMENT PARA USE32 PUBLIC 'CODE'
_TEXT	ENDS
;	COMDAT ?OnSendChangeSubject@IEventListener@@UAEXV?$CStringT@DV?$StrTraitMFC_DLL@DV?$ChTraitsCRT@D@ATL@@@@@ATL@@0@Z
_TEXT	SEGMENT PARA USE32 PUBLIC 'CODE'
_TEXT	ENDS
;	COMDAT ?OnChangeSkinAndSub@IEventListener@@UAEXABV?$CStringT@DV?$StrTraitMFC_DLL@DV?$ChTraitsCRT@D@ATL@@@@@ATL@@0@Z
_TEXT	SEGMENT PARA USE32 PUBLIC 'CODE'
_TEXT	ENDS
;	COMDAT ?OnStartDownSubject@IEventListener@@UAEXABV?$CStringT@DV?$StrTraitMFC_DLL@DV?$ChTraitsCRT@D@ATL@@@@@ATL@@@Z
_TEXT	SEGMENT PARA USE32 PUBLIC 'CODE'
_TEXT	ENDS
;	COMDAT ?OnFinishDownSubject@IEventListener@@UAEXH@Z
_TEXT	SEGMENT PARA USE32 PUBLIC 'CODE'
_TEXT	ENDS
;	COMDAT ?OnChangeSkinTemplate@IWndEventListener@@UAE_NV?$CStringT@DV?$StrTraitMFC_DLL@DV?$ChTraitsCRT@D@ATL@@@@@ATL@@@Z
_TEXT	SEGMENT PARA USE32 PUBLIC 'CODE'
_TEXT	ENDS
;	COMDAT ?OnchangeColor@IWndEventListener@@UAEXKI@Z
_TEXT	SEGMENT PARA USE32 PUBLIC 'CODE'
_TEXT	ENDS
;	COMDAT ?SetListener@CMainSkinWnd@@QAEXPAVIEventListener@@@Z
_TEXT	SEGMENT PARA USE32 PUBLIC 'CODE'
_TEXT	ENDS
;	COMDAT ?SetWndListener@CMainSkinWnd@@QAEXPAVIWndEventListener@@@Z
_TEXT	SEGMENT PARA USE32 PUBLIC 'CODE'
_TEXT	ENDS
;	COMDAT ??1CGdiPlusBitmap@CSkinButton@@UAE@XZ
_TEXT	SEGMENT PARA USE32 PUBLIC 'CODE'
_TEXT	ENDS
;	COMDAT ?Empty@CGdiPlusBitmap@CSkinButton@@QAEXXZ
_TEXT	SEGMENT PARA USE32 PUBLIC 'CODE'
_TEXT	ENDS
;	COMDAT ?Load@CGdiPlusBitmap@CSkinButton@@QAE_NPB_W@Z
_TEXT	SEGMENT PARA USE32 PUBLIC 'CODE'
_TEXT	ENDS
;	COMDAT ??_GCGdiPlusBitmap@CSkinButton@@UAEPAXI@Z
_TEXT	SEGMENT PARA USE32 PUBLIC 'CODE'
_TEXT	ENDS
;	COMDAT ?SetSendEventListener@CSkinWnd@@QAEXPAVIEventListener@@@Z
_TEXT	SEGMENT PARA USE32 PUBLIC 'CODE'
_TEXT	ENDS
;	COMDAT ?SetSendEventListener@CSubjectChildWnd@@QAEXPAVIEventListener@@@Z
_TEXT	SEGMENT PARA USE32 PUBLIC 'CODE'
_TEXT	ENDS
;	COMDAT ??1HTTPObserver@@UAE@XZ
_TEXT	SEGMENT PARA USE32 PUBLIC 'CODE'
_TEXT	ENDS
;	COMDAT ?HTTPOb_DownStart@HTTPObserver@@UAEXPBD0I@Z
_TEXT	SEGMENT PARA USE32 PUBLIC 'CODE'
_TEXT	ENDS
;	COMDAT ?HTTPOb_DownFinish@HTTPObserver@@UAEXPBD@Z
_TEXT	SEGMENT PARA USE32 PUBLIC 'CODE'
_TEXT	ENDS
;	COMDAT ?HTTPOb_DownFailed@HTTPObserver@@UAEXPBDW4HTTP_DOWN_FAILED_REASON@@@Z
_TEXT	SEGMENT PARA USE32 PUBLIC 'CODE'
_TEXT	ENDS
;	COMDAT ?HTTPOb_DownProgress@HTTPObserver@@UAEXPBDII@Z
_TEXT	SEGMENT PARA USE32 PUBLIC 'CODE'
_TEXT	ENDS
;	COMDAT ?HTTPOb_DownloadPause@HTTPObserver@@UAEXPBD@Z
_TEXT	SEGMENT PARA USE32 PUBLIC 'CODE'
_TEXT	ENDS
;	COMDAT ??_GHTTPObserver@@UAEPAXI@Z
_TEXT	SEGMENT PARA USE32 PUBLIC 'CODE'
_TEXT	ENDS
;	COMDAT ?SetEventListener@CDownloadPercentWnd@@QAEXPAVIEventListener@@@Z
_TEXT	SEGMENT PARA USE32 PUBLIC 'CODE'
_TEXT	ENDS
;	COMDAT ??1P2PObserver@@UAE@XZ
_TEXT	SEGMENT PARA USE32 PUBLIC 'CODE'
_TEXT	ENDS
;	COMDAT ?P2POb_DownStart@P2PObserver@@UAEXABV?$basic_string@DU?$char_traits@D@std@@V?$allocator@D@2@@std@@PBDI@Z
_TEXT	SEGMENT PARA USE32 PUBLIC 'CODE'
_TEXT	ENDS
;	COMDAT ?P2POb_DownFinish@P2PObserver@@UAEXABV?$basic_string@DU?$char_traits@D@std@@V?$allocator@D@2@@std@@@Z
_TEXT	SEGMENT PARA USE32 PUBLIC 'CODE'
_TEXT	ENDS
;	COMDAT ?P2POb_DownFailed@P2PObserver@@UAEXABV?$basic_string@DU?$char_traits@D@std@@V?$allocator@D@2@@std@@W4P2P_DOWN_FAILED_REASON@@@Z
_TEXT	SEGMENT PARA USE32 PUBLIC 'CODE'
_TEXT	ENDS
;	COMDAT ?P2POb_DownProgress@P2PObserver@@UAEXABV?$basic_string@DU?$char_traits@D@std@@V?$allocator@D@2@@std@@III@Z
_TEXT	SEGMENT PARA USE32 PUBLIC 'CODE'
_TEXT	ENDS
;	COMDAT ?P2POb_DownPause@P2PObserver@@UAEXABV?$basic_string@DU?$char_traits@D@std@@V?$allocator@D@2@@std@@@Z
_TEXT	SEGMENT PARA USE32 PUBLIC 'CODE'
_TEXT	ENDS
;	COMDAT ?P2POb_SigChange@P2PObserver@@UAEXABV?$basic_string@DU?$char_traits@D@std@@V?$allocator@D@2@@std@@0PBD@Z
_TEXT	SEGMENT PARA USE32 PUBLIC 'CODE'
_TEXT	ENDS
;	COMDAT ??_GP2PObserver@@UAEPAXI@Z
_TEXT	SEGMENT PARA USE32 PUBLIC 'CODE'
_TEXT	ENDS
;	COMDAT ?ILayoutChangeOb_LayerChanged@ILayoutChangeObserver@@UAEXV?$basic_string@DU?$char_traits@D@std@@V?$allocator@D@2@@std@@00@Z
_TEXT	SEGMENT PARA USE32 PUBLIC 'CODE'
_TEXT	ENDS
;	COMDAT ?ILayoutChangeOb_PaneChanged@ILayoutChangeObserver@@UAEXV?$basic_string@DU?$char_traits@D@std@@V?$allocator@D@2@@std@@0@Z
_TEXT	SEGMENT PARA USE32 PUBLIC 'CODE'
_TEXT	ENDS
;	COMDAT ?ILayoutChangeOb_SkinChanged@ILayoutChangeObserver@@UAEXV?$basic_string@DU?$char_traits@D@std@@V?$allocator@D@2@@std@@0@Z
_TEXT	SEGMENT PARA USE32 PUBLIC 'CODE'
_TEXT	ENDS
;	COMDAT ?ILayoutChangeOb_ColorChanged@ILayoutChangeObserver@@UAEXXZ
_TEXT	SEGMENT PARA USE32 PUBLIC 'CODE'
_TEXT	ENDS
;	COMDAT ?ILayoutChangeOb_ColorChanging@ILayoutChangeObserver@@UAEXXZ
_TEXT	SEGMENT PARA USE32 PUBLIC 'CODE'
_TEXT	ENDS
;	COMDAT ?ILayoutChangeOb_UpdateLayout@ILayoutChangeObserver@@UAEXPAUHWND__@@@Z
_TEXT	SEGMENT PARA USE32 PUBLIC 'CODE'
_TEXT	ENDS
;	COMDAT ?ILayoutChangeOb_InitFinished@ILayoutChangeObserver@@UAEXXZ
_TEXT	SEGMENT PARA USE32 PUBLIC 'CODE'
_TEXT	ENDS
;	COMDAT ?ILayoutChangeOb_InitBegin@ILayoutChangeObserver@@UAEXXZ
_TEXT	SEGMENT PARA USE32 PUBLIC 'CODE'
_TEXT	ENDS
;	COMDAT ?GetClsid@CShockwaveFlash@@QAEABU_GUID@@XZ
_TEXT	SEGMENT PARA USE32 PUBLIC 'CODE'
_TEXT	ENDS
;	COMDAT ?GetSkinWnd@CSkinMgrV1@@UAEPAVCWnd@@XZ
_TEXT	SEGMENT PARA USE32 PUBLIC 'CODE'
_TEXT	ENDS
;	COMDAT _$E5
text$yc	SEGMENT PARA USE32 PUBLIC 'CODE'
text$yc	ENDS
;	COMDAT ?SetMsg@CDialogMsg@@QAEXABV?$CStringT@DV?$StrTraitMFC_DLL@DV?$ChTraitsCRT@D@ATL@@@@@ATL@@@Z
_TEXT	SEGMENT PARA USE32 PUBLIC 'CODE'
_TEXT	ENDS
;	COMDAT ??_GCSkinMgrV1@@UAEPAXI@Z
_TEXT	SEGMENT PARA USE32 PUBLIC 'CODE'
_TEXT	ENDS
;	COMDAT ??0IChangeColorMgr@@QAE@XZ
_TEXT	SEGMENT PARA USE32 PUBLIC 'CODE'
_TEXT	ENDS
;	COMDAT ??0P2PObserver@@QAE@XZ
_TEXT	SEGMENT PARA USE32 PUBLIC 'CODE'
_TEXT	ENDS
;	COMDAT ??0ILayoutChangeObserver@@QAE@XZ
_TEXT	SEGMENT PARA USE32 PUBLIC 'CODE'
_TEXT	ENDS
;	COMDAT ??1ILayoutChangeObserver@@UAE@XZ
_TEXT	SEGMENT PARA USE32 PUBLIC 'CODE'
_TEXT	ENDS
;	COMDAT ??0IWndEventListener@@QAE@XZ
_TEXT	SEGMENT PARA USE32 PUBLIC 'CODE'
_TEXT	ENDS
;	COMDAT ??0IEventListener@@QAE@XZ
_TEXT	SEGMENT PARA USE32 PUBLIC 'CODE'
_TEXT	ENDS
;	COMDAT ??_GILayoutChangeObserver@@UAEPAXI@Z
_TEXT	SEGMENT PARA USE32 PUBLIC 'CODE'
_TEXT	ENDS
;	COMDAT ??0IMessageObserver@@QAE@XZ
_TEXT	SEGMENT PARA USE32 PUBLIC 'CODE'
_TEXT	ENDS
;	COMDAT ??HATL@@YA?AV?$CStringT@DV?$StrTraitMFC_DLL@DV?$ChTraitsCRT@D@ATL@@@@@0@ABV10@PBD@Z
_TEXT	SEGMENT PARA USE32 PUBLIC 'CODE'
_TEXT	ENDS
;	COMDAT ??HATL@@YA?AV?$CStringT@DV?$StrTraitMFC_DLL@DV?$ChTraitsCRT@D@ATL@@@@@0@PBDABV10@@Z
_TEXT	SEGMENT PARA USE32 PUBLIC 'CODE'
_TEXT	ENDS
;	COMDAT ??9ATL@@YA_NABV?$CStringT@DV?$StrTraitMFC_DLL@DV?$ChTraitsCRT@D@ATL@@@@@0@PBD@Z
_TEXT	SEGMENT PARA USE32 PUBLIC 'CODE'
_TEXT	ENDS
;	COMDAT ?size@?$vector@UOneSubject@@V?$allocator@UOneSubject@@@std@@@std@@QBEIXZ
_TEXT	SEGMENT PARA USE32 PUBLIC 'CODE'
_TEXT	ENDS
;	COMDAT ??A?$vector@UOneSubject@@V?$allocator@UOneSubject@@@std@@@std@@QAEAAUOneSubject@@I@Z
_TEXT	SEGMENT PARA USE32 PUBLIC 'CODE'
_TEXT	ENDS
;	COMDAT ??B?$CComPtrBase@UITypeInfo2@@@ATL@@QBEPAUITypeInfo2@@XZ
_TEXT	SEGMENT PARA USE32 PUBLIC 'CODE'
_TEXT	ENDS
;	COMDAT ?equal@?$istreambuf_iterator@DU?$char_traits@D@std@@@std@@QBE_NABV12@@Z
_TEXT	SEGMENT PARA USE32 PUBLIC 'CODE'
_TEXT	ENDS
;	COMDAT ?equal@?$istreambuf_iterator@_WU?$char_traits@_W@std@@@std@@QBE_NABV12@@Z
_TEXT	SEGMENT PARA USE32 PUBLIC 'CODE'
_TEXT	ENDS
;	COMDAT ??0?$vector@PAVIChangeSkinEventListener@@V?$allocator@PAVIChangeSkinEventListener@@@std@@@std@@QAE@XZ
_TEXT	SEGMENT PARA USE32 PUBLIC 'CODE'
_TEXT	ENDS
;	COMDAT ??1?$vector@PAVIChangeSkinEventListener@@V?$allocator@PAVIChangeSkinEventListener@@@std@@@std@@QAE@XZ
_TEXT	SEGMENT PARA USE32 PUBLIC 'CODE'
_TEXT	ENDS
;	COMDAT ?begin@?$vector@PAVIChangeSkinEventListener@@V?$allocator@PAVIChangeSkinEventListener@@@std@@@std@@QAE?AViterator@12@XZ
_TEXT	SEGMENT PARA USE32 PUBLIC 'CODE'
_TEXT	ENDS
;	COMDAT ?end@?$vector@PAVIChangeSkinEventListener@@V?$allocator@PAVIChangeSkinEventListener@@@std@@@std@@QAE?AViterator@12@XZ
_TEXT	SEGMENT PARA USE32 PUBLIC 'CODE'
_TEXT	ENDS
;	COMDAT ?size@?$vector@PAVIChangeSkinEventListener@@V?$allocator@PAVIChangeSkinEventListener@@@std@@@std@@QBEIXZ
_TEXT	SEGMENT PARA USE32 PUBLIC 'CODE'
_TEXT	ENDS
;	COMDAT ??A?$vector@PAVIChangeSkinEventListener@@V?$allocator@PAVIChangeSkinEventListener@@@std@@@std@@QAEAAPAVIChangeSkinEventListener@@I@Z
_TEXT	SEGMENT PARA USE32 PUBLIC 'CODE'
_TEXT	ENDS
;	COMDAT ?push_back@?$vector@PAVIChangeSkinEventListener@@V?$allocator@PAVIChangeSkinEventListener@@@std@@@std@@QAEXABQAVIChangeSkinEventListener@@@Z
_TEXT	SEGMENT PARA USE32 PUBLIC 'CODE'
_TEXT	ENDS
;	COMDAT ?erase@?$vector@PAVIChangeSkinEventListener@@V?$allocator@PAVIChangeSkinEventListener@@@std@@@std@@QAE?AViterator@12@V312@@Z
_TEXT	SEGMENT PARA USE32 PUBLIC 'CODE'
_TEXT	ENDS
;	COMDAT ??Diterator@?$vector@PAVIChangeSkinEventListener@@V?$allocator@PAVIChangeSkinEventListener@@@std@@@std@@QBEAAPAVIChangeSkinEventListener@@XZ
_TEXT	SEGMENT PARA USE32 PUBLIC 'CODE'
_TEXT	ENDS
;	COMDAT ??Eiterator@?$vector@PAVIChangeSkinEventListener@@V?$allocator@PAVIChangeSkinEventListener@@@std@@@std@@QAE?AV012@H@Z
_TEXT	SEGMENT PARA USE32 PUBLIC 'CODE'
_TEXT	ENDS
;	COMDAT ??9const_iterator@?$vector@PAVIChangeSkinEventListener@@V?$allocator@PAVIChangeSkinEventListener@@@std@@@std@@QBE_NABV012@@Z
_TEXT	SEGMENT PARA USE32 PUBLIC 'CODE'
_TEXT	ENDS
;	COMDAT ??0?$vector@V?$basic_string@DU?$char_traits@D@std@@V?$allocator@D@2@@std@@V?$allocator@V?$basic_string@DU?$char_traits@D@std@@V?$allocator@D@2@@std@@@2@@std@@QAE@XZ
_TEXT	SEGMENT PARA USE32 PUBLIC 'CODE'
_TEXT	ENDS
;	COMDAT ??1?$vector@V?$basic_string@DU?$char_traits@D@std@@V?$allocator@D@2@@std@@V?$allocator@V?$basic_string@DU?$char_traits@D@std@@V?$allocator@D@2@@std@@@2@@std@@QAE@XZ
_TEXT	SEGMENT PARA USE32 PUBLIC 'CODE'
_TEXT	ENDS
;	COMDAT ?CharNextA@?$ChTraitsCRT@D@ATL@@SAPADPBD@Z
_TEXT	SEGMENT PARA USE32 PUBLIC 'CODE'
_TEXT	ENDS
;	COMDAT ?StringFindString@?$ChTraitsCRT@D@ATL@@SAPBDPBD0@Z
_TEXT	SEGMENT PARA USE32 PUBLIC 'CODE'
_TEXT	ENDS
;	COMDAT ?StringFindString@?$ChTraitsCRT@D@ATL@@SAPADPADPBD@Z
_TEXT	SEGMENT PARA USE32 PUBLIC 'CODE'
_TEXT	ENDS
;	COMDAT ?StringFindChar@?$ChTraitsCRT@D@ATL@@SAPBDPBDD@Z
_TEXT	SEGMENT PARA USE32 PUBLIC 'CODE'
_TEXT	ENDS
;	COMDAT ?StringFindCharRev@?$ChTraitsCRT@D@ATL@@SAPBDPBDD@Z
_TEXT	SEGMENT PARA USE32 PUBLIC 'CODE'
_TEXT	ENDS
;	COMDAT ?StringSpanIncluding@?$ChTraitsCRT@D@ATL@@SAHPBD0@Z
_TEXT	SEGMENT PARA USE32 PUBLIC 'CODE'
_TEXT	ENDS
;	COMDAT ?StringSpanExcluding@?$ChTraitsCRT@D@ATL@@SAHPBD0@Z
_TEXT	SEGMENT PARA USE32 PUBLIC 'CODE'
_TEXT	ENDS
;	COMDAT ?SafeStringLen@?$ChTraitsCRT@D@ATL@@SAHPBD@Z
_TEXT	SEGMENT PARA USE32 PUBLIC 'CODE'
_TEXT	ENDS
;	COMDAT ?begin@?$vector@UOneSubject@@V?$allocator@UOneSubject@@@std@@@std@@QAE?AViterator@12@XZ
_TEXT	SEGMENT PARA USE32 PUBLIC 'CODE'
_TEXT	ENDS
;	COMDAT ??0?$allocator@V?$basic_string@DU?$char_traits@D@std@@V?$allocator@D@2@@std@@@std@@QAE@XZ
_TEXT	SEGMENT PARA USE32 PUBLIC 'CODE'
_TEXT	ENDS
;	COMDAT ?capacity@?$vector@PAVIChangeSkinEventListener@@V?$allocator@PAVIChangeSkinEventListener@@@std@@@std@@QBEIXZ
_TEXT	SEGMENT PARA USE32 PUBLIC 'CODE'
_TEXT	ENDS
;	COMDAT ?insert@?$vector@PAVIChangeSkinEventListener@@V?$allocator@PAVIChangeSkinEventListener@@@std@@@std@@QAE?AViterator@12@V312@ABQAVIChangeSkinEventListener@@@Z
_TEXT	SEGMENT PARA USE32 PUBLIC 'CODE'
_TEXT	ENDS
;	COMDAT ?_Buy@?$vector@PAVIChangeSkinEventListener@@V?$allocator@PAVIChangeSkinEventListener@@@std@@@std@@IAE_NI@Z
_TEXT	SEGMENT PARA USE32 PUBLIC 'CODE'
_TEXT	ENDS
;	COMDAT ?_Destroy@?$vector@PAVIChangeSkinEventListener@@V?$allocator@PAVIChangeSkinEventListener@@@std@@@std@@IAEXPAPAVIChangeSkinEventListener@@0@Z
_TEXT	SEGMENT PARA USE32 PUBLIC 'CODE'
_TEXT	ENDS
;	COMDAT ?_Tidy@?$vector@PAVIChangeSkinEventListener@@V?$allocator@PAVIChangeSkinEventListener@@@std@@@std@@IAEXXZ
_TEXT	SEGMENT PARA USE32 PUBLIC 'CODE'
_TEXT	ENDS
;	COMDAT ?_Ufill@?$vector@PAVIChangeSkinEventListener@@V?$allocator@PAVIChangeSkinEventListener@@@std@@@std@@IAEPAPAVIChangeSkinEventListener@@PAPAV3@IABQAV3@@Z
_TEXT	SEGMENT PARA USE32 PUBLIC 'CODE'
_TEXT	ENDS
;	COMDAT ??0?$_Vector_val@PAVIChangeSkinEventListener@@V?$allocator@PAVIChangeSkinEventListener@@@std@@@std@@IAE@V?$allocator@PAVIChangeSkinEventListener@@@1@@Z
_TEXT	SEGMENT PARA USE32 PUBLIC 'CODE'
_TEXT	ENDS
;	COMDAT ??0?$allocator@PAVIChangeSkinEventListener@@@std@@QAE@XZ
_TEXT	SEGMENT PARA USE32 PUBLIC 'CODE'
_TEXT	ENDS
;	COMDAT ??0iterator@?$vector@PAVIChangeSkinEventListener@@V?$allocator@PAVIChangeSkinEventListener@@@std@@@std@@QAE@PAPAVIChangeSkinEventListener@@@Z
_TEXT	SEGMENT PARA USE32 PUBLIC 'CODE'
_TEXT	ENDS
;	COMDAT ??Eiterator@?$vector@PAVIChangeSkinEventListener@@V?$allocator@PAVIChangeSkinEventListener@@@std@@@std@@QAEAAV012@XZ
_TEXT	SEGMENT PARA USE32 PUBLIC 'CODE'
_TEXT	ENDS
;	COMDAT ??Hiterator@?$vector@PAVIChangeSkinEventListener@@V?$allocator@PAVIChangeSkinEventListener@@@std@@@std@@QBE?AV012@H@Z
_TEXT	SEGMENT PARA USE32 PUBLIC 'CODE'
_TEXT	ENDS
;	COMDAT ??Dconst_iterator@?$vector@PAVIChangeSkinEventListener@@V?$allocator@PAVIChangeSkinEventListener@@@std@@@std@@QBEABQAVIChangeSkinEventListener@@XZ
_TEXT	SEGMENT PARA USE32 PUBLIC 'CODE'
_TEXT	ENDS
;	COMDAT ??8const_iterator@?$vector@PAVIChangeSkinEventListener@@V?$allocator@PAVIChangeSkinEventListener@@@std@@@std@@QBE_NABV012@@Z
_TEXT	SEGMENT PARA USE32 PUBLIC 'CODE'
_TEXT	ENDS
;	COMDAT ?_Buy@?$vector@V?$basic_string@DU?$char_traits@D@std@@V?$allocator@D@2@@std@@V?$allocator@V?$basic_string@DU?$char_traits@D@std@@V?$allocator@D@2@@std@@@2@@std@@IAE_NI@Z
_TEXT	SEGMENT PARA USE32 PUBLIC 'CODE'
_TEXT	ENDS
;	COMDAT ?_Tidy@?$vector@V?$basic_string@DU?$char_traits@D@std@@V?$allocator@D@2@@std@@V?$allocator@V?$basic_string@DU?$char_traits@D@std@@V?$allocator@D@2@@std@@@2@@std@@IAEXXZ
_TEXT	SEGMENT PARA USE32 PUBLIC 'CODE'
_TEXT	ENDS
;	COMDAT ??0?$_Vector_val@V?$basic_string@DU?$char_traits@D@std@@V?$allocator@D@2@@std@@V?$allocator@V?$basic_string@DU?$char_traits@D@std@@V?$allocator@D@2@@std@@@2@@std@@IAE@V?$allocator@V?$basic_string@DU?$char_traits@D@std@@V?$allocator@D@2@@std@@@1@@Z
_TEXT	SEGMENT PARA USE32 PUBLIC 'CODE'
_TEXT	ENDS
;	COMDAT ??Diterator@?$vector@UOneSubject@@V?$allocator@UOneSubject@@@std@@@std@@QBEAAUOneSubject@@XZ
_TEXT	SEGMENT PARA USE32 PUBLIC 'CODE'
_TEXT	ENDS
;	COMDAT ??Hiterator@?$vector@UOneSubject@@V?$allocator@UOneSubject@@@std@@@std@@QBE?AV012@H@Z
_TEXT	SEGMENT PARA USE32 PUBLIC 'CODE'
_TEXT	ENDS
;	COMDAT ?StringCompare@?$ChTraitsCRT@D@ATL@@SAHPBD0@Z
_TEXT	SEGMENT PARA USE32 PUBLIC 'CODE'
_TEXT	ENDS
;	COMDAT ??0?$allocator@V?$basic_string@DU?$char_traits@D@std@@V?$allocator@D@2@@std@@@std@@QAE@ABV01@@Z
_TEXT	SEGMENT PARA USE32 PUBLIC 'CODE'
_TEXT	ENDS
;	COMDAT ?deallocate@?$allocator@V?$basic_string@DU?$char_traits@D@std@@V?$allocator@D@2@@std@@@std@@QAEXPAV?$basic_string@DU?$char_traits@D@std@@V?$allocator@D@2@@2@I@Z
_TEXT	SEGMENT PARA USE32 PUBLIC 'CODE'
_TEXT	ENDS
;	COMDAT ?allocate@?$allocator@V?$basic_string@DU?$char_traits@D@std@@V?$allocator@D@2@@std@@@std@@QAEPAV?$basic_string@DU?$char_traits@D@std@@V?$allocator@D@2@@2@I@Z
_TEXT	SEGMENT PARA USE32 PUBLIC 'CODE'
_TEXT	ENDS
;	COMDAT ?max_size@?$vector@PAVIChangeSkinEventListener@@V?$allocator@PAVIChangeSkinEventListener@@@std@@@std@@QBEIXZ
_TEXT	SEGMENT PARA USE32 PUBLIC 'CODE'
_TEXT	ENDS
;	COMDAT ?_Insert_n@?$vector@PAVIChangeSkinEventListener@@V?$allocator@PAVIChangeSkinEventListener@@@std@@@std@@IAEXViterator@12@IABQAVIChangeSkinEventListener@@@Z
_TEXT	SEGMENT PARA USE32 PUBLIC 'CODE'
_TEXT	ENDS
;	COMDAT ?_Xlen@?$vector@PAVIChangeSkinEventListener@@V?$allocator@PAVIChangeSkinEventListener@@@std@@@std@@IBEXXZ
_TEXT	SEGMENT PARA USE32 PUBLIC 'CODE'
_TEXT	ENDS
;	COMDAT ??0?$allocator@PAVIChangeSkinEventListener@@@std@@QAE@ABV01@@Z
_TEXT	SEGMENT PARA USE32 PUBLIC 'CODE'
_TEXT	ENDS
;	COMDAT ?deallocate@?$allocator@PAVIChangeSkinEventListener@@@std@@QAEXPAPAVIChangeSkinEventListener@@I@Z
_TEXT	SEGMENT PARA USE32 PUBLIC 'CODE'
_TEXT	ENDS
;	COMDAT ?allocate@?$allocator@PAVIChangeSkinEventListener@@@std@@QAEPAPAVIChangeSkinEventListener@@I@Z
_TEXT	SEGMENT PARA USE32 PUBLIC 'CODE'
_TEXT	ENDS
;	COMDAT ??Yiterator@?$vector@PAVIChangeSkinEventListener@@V?$allocator@PAVIChangeSkinEventListener@@@std@@@std@@QAEAAV012@H@Z
_TEXT	SEGMENT PARA USE32 PUBLIC 'CODE'
_TEXT	ENDS
;	COMDAT ??Giterator@?$vector@PAVIChangeSkinEventListener@@V?$allocator@PAVIChangeSkinEventListener@@@std@@@std@@QBEHABVconst_iterator@12@@Z
_TEXT	SEGMENT PARA USE32 PUBLIC 'CODE'
_TEXT	ENDS
;	COMDAT ??0const_iterator@?$vector@PAVIChangeSkinEventListener@@V?$allocator@PAVIChangeSkinEventListener@@@std@@@std@@QAE@PAPAVIChangeSkinEventListener@@@Z
_TEXT	SEGMENT PARA USE32 PUBLIC 'CODE'
_TEXT	ENDS
;	COMDAT ?max_size@?$vector@V?$basic_string@DU?$char_traits@D@std@@V?$allocator@D@2@@std@@V?$allocator@V?$basic_string@DU?$char_traits@D@std@@V?$allocator@D@2@@std@@@2@@std@@QBEIXZ
_TEXT	SEGMENT PARA USE32 PUBLIC 'CODE'
_TEXT	ENDS
;	COMDAT ?_Destroy@?$vector@V?$basic_string@DU?$char_traits@D@std@@V?$allocator@D@2@@std@@V?$allocator@V?$basic_string@DU?$char_traits@D@std@@V?$allocator@D@2@@std@@@2@@std@@IAEXPAV?$basic_string@DU?$char_traits@D@std@@V?$allocator@D@2@@2@0@Z
_TEXT	SEGMENT PARA USE32 PUBLIC 'CODE'
_TEXT	ENDS
;	COMDAT ?_Xlen@?$vector@V?$basic_string@DU?$char_traits@D@std@@V?$allocator@D@2@@std@@V?$allocator@V?$basic_string@DU?$char_traits@D@std@@V?$allocator@D@2@@std@@@2@@std@@IBEXXZ
_TEXT	SEGMENT PARA USE32 PUBLIC 'CODE'
_TEXT	ENDS
;	COMDAT ??0iterator@?$vector@UOneSubject@@V?$allocator@UOneSubject@@@std@@@std@@QAE@PAUOneSubject@@@Z
_TEXT	SEGMENT PARA USE32 PUBLIC 'CODE'
_TEXT	ENDS
;	COMDAT ??Yiterator@?$vector@UOneSubject@@V?$allocator@UOneSubject@@@std@@@std@@QAEAAV012@H@Z
_TEXT	SEGMENT PARA USE32 PUBLIC 'CODE'
_TEXT	ENDS
;	COMDAT ??Dconst_iterator@?$vector@UOneSubject@@V?$allocator@UOneSubject@@@std@@@std@@QBEABUOneSubject@@XZ
_TEXT	SEGMENT PARA USE32 PUBLIC 'CODE'
_TEXT	ENDS
;	COMDAT ??0length_error@std@@QAE@ABV01@@Z
_TEXT	SEGMENT PARA USE32 PUBLIC 'CODE'
_TEXT	ENDS
;	COMDAT ?max_size@?$allocator@V?$basic_string@DU?$char_traits@D@std@@V?$allocator@D@2@@std@@@std@@QBEIXZ
_TEXT	SEGMENT PARA USE32 PUBLIC 'CODE'
_TEXT	ENDS
;	COMDAT ?max_size@?$allocator@PAVIChangeSkinEventListener@@@std@@QBEIXZ
_TEXT	SEGMENT PARA USE32 PUBLIC 'CODE'
_TEXT	ENDS
;	COMDAT ??Gconst_iterator@?$vector@PAVIChangeSkinEventListener@@V?$allocator@PAVIChangeSkinEventListener@@@std@@@std@@QBEHABV012@@Z
_TEXT	SEGMENT PARA USE32 PUBLIC 'CODE'
_TEXT	ENDS
;	COMDAT ??0const_iterator@?$vector@UOneSubject@@V?$allocator@UOneSubject@@@std@@@std@@QAE@PAUOneSubject@@@Z
_TEXT	SEGMENT PARA USE32 PUBLIC 'CODE'
_TEXT	ENDS
;	COMDAT ?Unlock@?$CComCritSecLock@VCComCriticalSection@ATL@@@ATL@@QAEXXZ
_TEXT	SEGMENT PARA USE32 PUBLIC 'CODE'
_TEXT	ENDS
;	COMDAT ??$copy@PAPAVIChangeSkinEventListener@@PAPAV1@@std@@YAPAPAVIChangeSkinEventListener@@PAPAV1@00@Z
_TEXT	SEGMENT PARA USE32 PUBLIC 'CODE'
_TEXT	ENDS
;	COMDAT ??$_Destroy_range@PAVIChangeSkinEventListener@@V?$allocator@PAVIChangeSkinEventListener@@@std@@@std@@YAXPAPAVIChangeSkinEventListener@@0AAV?$allocator@PAVIChangeSkinEventListener@@@0@@Z
_TEXT	SEGMENT PARA USE32 PUBLIC 'CODE'
_TEXT	ENDS
;	COMDAT ??$_Uninitialized_fill_n@PAPAVIChangeSkinEventListener@@IPAV1@V?$allocator@PAVIChangeSkinEventListener@@@std@@@std@@YAXPAPAVIChangeSkinEventListener@@IABQAV1@AAV?$allocator@PAVIChangeSkinEventListener@@@0@@Z
_TEXT	SEGMENT PARA USE32 PUBLIC 'CODE'
_TEXT	ENDS
;	COMDAT ??$_Maklocstr@D@std@@YAPADPBDPADABU_Cvtvec@@@Z
_TEXT	SEGMENT PARA USE32 PUBLIC 'CODE'
_TEXT	ENDS
;	COMDAT ??$_Allocate@V?$basic_string@DU?$char_traits@D@std@@V?$allocator@D@2@@std@@@std@@YAPAV?$basic_string@DU?$char_traits@D@std@@V?$allocator@D@2@@0@IPAV10@@Z
_TEXT	SEGMENT PARA USE32 PUBLIC 'CODE'
_TEXT	ENDS
;	COMDAT ??$_Ucopy@PAPAVIChangeSkinEventListener@@@?$vector@PAVIChangeSkinEventListener@@V?$allocator@PAVIChangeSkinEventListener@@@std@@@std@@IAEPAPAVIChangeSkinEventListener@@PAPAV2@00@Z
_TEXT	SEGMENT PARA USE32 PUBLIC 'CODE'
_TEXT	ENDS
;	COMDAT ??$fill@PAPAVIChangeSkinEventListener@@PAV1@@std@@YAXPAPAVIChangeSkinEventListener@@0ABQAV1@@Z
_TEXT	SEGMENT PARA USE32 PUBLIC 'CODE'
_TEXT	ENDS
;	COMDAT ??$copy_backward@PAPAVIChangeSkinEventListener@@PAPAV1@@std@@YAPAPAVIChangeSkinEventListener@@PAPAV1@00@Z
_TEXT	SEGMENT PARA USE32 PUBLIC 'CODE'
_TEXT	ENDS
;	COMDAT ??$_Allocate@PAVIChangeSkinEventListener@@@std@@YAPAPAVIChangeSkinEventListener@@IPAPAV1@@Z
_TEXT	SEGMENT PARA USE32 PUBLIC 'CODE'
_TEXT	ENDS
;	COMDAT ??$_Destroy_range@V?$basic_string@DU?$char_traits@D@std@@V?$allocator@D@2@@std@@V?$allocator@V?$basic_string@DU?$char_traits@D@std@@V?$allocator@D@2@@std@@@2@@std@@YAXPAV?$basic_string@DU?$char_traits@D@std@@V?$allocator@D@2@@0@0AAV?$allocator@V?$basic_string@DU?$char_traits@D@std@@V?$allocator@D@2@@std@@@0@@Z
_TEXT	SEGMENT PARA USE32 PUBLIC 'CODE'
_TEXT	ENDS
;	COMDAT ??$_Ptr_cat@VIChangeSkinEventListener@@@std@@YA?AU_Scalar_ptr_iterator_tag@0@PAPAVIChangeSkinEventListener@@0@Z
_TEXT	SEGMENT PARA USE32 PUBLIC 'CODE'
_TEXT	ENDS
;	COMDAT ??$_Copy_opt@PAPAVIChangeSkinEventListener@@PAPAV1@@std@@YAPAPAVIChangeSkinEventListener@@PAPAV1@00U_Scalar_ptr_iterator_tag@0@@Z
_TEXT	SEGMENT PARA USE32 PUBLIC 'CODE'
_TEXT	ENDS
;	COMDAT ??$_Destroy_range@PAVIChangeSkinEventListener@@V?$allocator@PAVIChangeSkinEventListener@@@std@@@std@@YAXPAPAVIChangeSkinEventListener@@0AAV?$allocator@PAVIChangeSkinEventListener@@@0@U_Scalar_ptr_iterator_tag@0@@Z
_TEXT	SEGMENT PARA USE32 PUBLIC 'CODE'
_TEXT	ENDS
;	COMDAT ??$_Uninit_fill_n@PAVIChangeSkinEventListener@@IPAV1@@std@@YAXPAPAVIChangeSkinEventListener@@IABQAV1@AAV?$allocator@PAVIChangeSkinEventListener@@@0@U_Scalar_ptr_iterator_tag@0@@Z
_TEXT	SEGMENT PARA USE32 PUBLIC 'CODE'
_TEXT	ENDS
;	COMDAT ??$_Uninitialized_copy@PAPAVIChangeSkinEventListener@@PAPAV1@V?$allocator@PAVIChangeSkinEventListener@@@std@@@std@@YAPAPAVIChangeSkinEventListener@@PAPAV1@00AAV?$allocator@PAVIChangeSkinEventListener@@@0@@Z
_TEXT	SEGMENT PARA USE32 PUBLIC 'CODE'
_TEXT	ENDS
;	COMDAT ??$_Copy_backward_opt@PAPAVIChangeSkinEventListener@@PAPAV1@@std@@YAPAPAVIChangeSkinEventListener@@PAPAV1@00U_Scalar_ptr_iterator_tag@0@@Z
_TEXT	SEGMENT PARA USE32 PUBLIC 'CODE'
_TEXT	ENDS
;	COMDAT ??$_Ptr_cat@PAV?$basic_string@DU?$char_traits@D@std@@V?$allocator@D@2@@std@@PAV12@@std@@YA?AU_Nonscalar_ptr_iterator_tag@0@AAPAV?$basic_string@DU?$char_traits@D@std@@V?$allocator@D@2@@0@0@Z
_TEXT	SEGMENT PARA USE32 PUBLIC 'CODE'
_TEXT	ENDS
;	COMDAT ??$_Destroy_range@V?$basic_string@DU?$char_traits@D@std@@V?$allocator@D@2@@std@@V?$allocator@V?$basic_string@DU?$char_traits@D@std@@V?$allocator@D@2@@std@@@2@@std@@YAXPAV?$basic_string@DU?$char_traits@D@std@@V?$allocator@D@2@@0@0AAV?$allocator@V?$basic_string@DU?$char_traits@D@std@@V?$allocator@D@2@@std@@@0@U_Nonscalar_ptr_iterator_tag@0@@Z
_TEXT	SEGMENT PARA USE32 PUBLIC 'CODE'
_TEXT	ENDS
;	COMDAT ?destroy@?$allocator@V?$basic_string@DU?$char_traits@D@std@@V?$allocator@D@2@@std@@@std@@QAEXPAV?$basic_string@DU?$char_traits@D@std@@V?$allocator@D@2@@2@@Z
_TEXT	SEGMENT PARA USE32 PUBLIC 'CODE'
_TEXT	ENDS
;	COMDAT ??$fill_n@PAPAVIChangeSkinEventListener@@IPAV1@@std@@YAXPAPAVIChangeSkinEventListener@@IABQAV1@@Z
_TEXT	SEGMENT PARA USE32 PUBLIC 'CODE'
_TEXT	ENDS
;	COMDAT ??$_Uninit_copy@PAVIChangeSkinEventListener@@PAV1@@std@@YAPAPAVIChangeSkinEventListener@@PAPAV1@00AAV?$allocator@PAVIChangeSkinEventListener@@@0@U_Scalar_ptr_iterator_tag@0@@Z
_TEXT	SEGMENT PARA USE32 PUBLIC 'CODE'
_TEXT	ENDS
;	COMDAT ??$_Destroy@V?$basic_string@DU?$char_traits@D@std@@V?$allocator@D@2@@std@@@std@@YAXPAV?$basic_string@DU?$char_traits@D@std@@V?$allocator@D@2@@0@@Z
_TEXT	SEGMENT PARA USE32 PUBLIC 'CODE'
_TEXT	ENDS
;	COMDAT ??_G?$basic_string@DU?$char_traits@D@std@@V?$allocator@D@2@@std@@QAEPAXI@Z
_TEXT	SEGMENT PARA USE32 PUBLIC 'CODE'
_TEXT	ENDS
;	COMDAT ??_ECSkinMgrV1@@W7AEPAXI@Z
_TEXT	SEGMENT PARA USE32 PUBLIC 'CODE'
_TEXT	ENDS
;	COMDAT ??_ECSkinMgrV1@@WM@AEPAXI@Z
_TEXT	SEGMENT PARA USE32 PUBLIC 'CODE'
_TEXT	ENDS
;	COMDAT ??_R3IData@@8
rdata$r	SEGMENT DWORD USE32 PUBLIC 'CONST'
rdata$r	ENDS
;	COMDAT ??_R3P2PObserver@@8
rdata$r	SEGMENT DWORD USE32 PUBLIC 'CONST'
rdata$r	ENDS
;	COMDAT ??_R3DIBINFO@@8
rdata$r	SEGMENT DWORD USE32 PUBLIC 'CONST'
rdata$r	ENDS
;	COMDAT ??_R3CSkinMgrV1@@8
rdata$r	SEGMENT DWORD USE32 PUBLIC 'CONST'
rdata$r	ENDS
;	COMDAT ??_R3HTTPObserver@@8
rdata$r	SEGMENT DWORD USE32 PUBLIC 'CONST'
rdata$r	ENDS
;	COMDAT ??_R3CGdiPlusBitmap@CSkinButton@@8
rdata$r	SEGMENT DWORD USE32 PUBLIC 'CONST'
rdata$r	ENDS
;	COMDAT ??_R3CGdiPlusBitmap@@8
rdata$r	SEGMENT DWORD USE32 PUBLIC 'CONST'
rdata$r	ENDS
;	COMDAT ??_R3IWndEventListener@@8
rdata$r	SEGMENT DWORD USE32 PUBLIC 'CONST'
rdata$r	ENDS
;	COMDAT ??_R3ILayoutChangeObserver@@8
rdata$r	SEGMENT DWORD USE32 PUBLIC 'CONST'
rdata$r	ENDS
;	COMDAT ??_R3IChangeColorMgr@@8
rdata$r	SEGMENT DWORD USE32 PUBLIC 'CONST'
rdata$r	ENDS
;	COMDAT ??_R3IEventListener@@8
rdata$r	SEGMENT DWORD USE32 PUBLIC 'CONST'
rdata$r	ENDS
;	COMDAT ??_R3?$numpunct@_W@std@@8
rdata$r	SEGMENT DWORD USE32 PUBLIC 'CONST'
rdata$r	ENDS
;	COMDAT ??_R3?$numpunct@D@std@@8
rdata$r	SEGMENT DWORD USE32 PUBLIC 'CONST'
rdata$r	ENDS
;	COMDAT ??_R2IData@@8
rdata$r	SEGMENT DWORD USE32 PUBLIC 'CONST'
rdata$r	ENDS
;	COMDAT ??_R2P2PObserver@@8
rdata$r	SEGMENT DWORD USE32 PUBLIC 'CONST'
rdata$r	ENDS
;	COMDAT ??_R2DIBINFO@@8
rdata$r	SEGMENT DWORD USE32 PUBLIC 'CONST'
rdata$r	ENDS
;	COMDAT ??_R2CSkinMgrV1@@8
rdata$r	SEGMENT DWORD USE32 PUBLIC 'CONST'
rdata$r	ENDS
;	COMDAT ??_R2HTTPObserver@@8
rdata$r	SEGMENT DWORD USE32 PUBLIC 'CONST'
rdata$r	ENDS
;	COMDAT ??_R2CGdiPlusBitmap@CSkinButton@@8
rdata$r	SEGMENT DWORD USE32 PUBLIC 'CONST'
rdata$r	ENDS
;	COMDAT ??_R2CGdiPlusBitmap@@8
rdata$r	SEGMENT DWORD USE32 PUBLIC 'CONST'
rdata$r	ENDS
;	COMDAT ??_R2IWndEventListener@@8
rdata$r	SEGMENT DWORD USE32 PUBLIC 'CONST'
rdata$r	ENDS
;	COMDAT ??_R2ILayoutChangeObserver@@8
rdata$r	SEGMENT DWORD USE32 PUBLIC 'CONST'
rdata$r	ENDS
;	COMDAT ??_R2IChangeColorMgr@@8
rdata$r	SEGMENT DWORD USE32 PUBLIC 'CONST'
rdata$r	ENDS
;	COMDAT ??_R2IEventListener@@8
rdata$r	SEGMENT DWORD USE32 PUBLIC 'CONST'
rdata$r	ENDS
;	COMDAT ??_R2?$numpunct@_W@std@@8
rdata$r	SEGMENT DWORD USE32 PUBLIC 'CONST'
rdata$r	ENDS
;	COMDAT ??_R2?$numpunct@D@std@@8
rdata$r	SEGMENT DWORD USE32 PUBLIC 'CONST'
rdata$r	ENDS
;	COMDAT ??_R1A@?0A@A@IData@@8
rdata$r	SEGMENT DWORD USE32 PUBLIC 'CONST'
rdata$r	ENDS
;	COMDAT ??_R1A@?0A@A@P2PObserver@@8
rdata$r	SEGMENT DWORD USE32 PUBLIC 'CONST'
rdata$r	ENDS
;	COMDAT ??_R1A@?0A@A@DIBINFO@@8
rdata$r	SEGMENT DWORD USE32 PUBLIC 'CONST'
rdata$r	ENDS
;	COMDAT ??_R1M@?0A@A@IMessageObserver@@8
rdata$r	SEGMENT DWORD USE32 PUBLIC 'CONST'
rdata$r	ENDS
;	COMDAT ??_R1M@?0A@A@ILayoutChangeObserver@@8
rdata$r	SEGMENT DWORD USE32 PUBLIC 'CONST'
rdata$r	ENDS
;	COMDAT ??_R17?0A@A@P2PObserver@@8
rdata$r	SEGMENT DWORD USE32 PUBLIC 'CONST'
rdata$r	ENDS
;	COMDAT ??_R1A@?0A@A@CSkinMgrV1@@8
rdata$r	SEGMENT DWORD USE32 PUBLIC 'CONST'
rdata$r	ENDS
;	COMDAT ??_R1A@?0A@A@HTTPObserver@@8
rdata$r	SEGMENT DWORD USE32 PUBLIC 'CONST'
rdata$r	ENDS
;	COMDAT ??_R1A@?0A@A@CGdiPlusBitmap@CSkinButton@@8
rdata$r	SEGMENT DWORD USE32 PUBLIC 'CONST'
rdata$r	ENDS
;	COMDAT ??_R1A@?0A@A@CGdiPlusBitmap@@8
rdata$r	SEGMENT DWORD USE32 PUBLIC 'CONST'
rdata$r	ENDS
;	COMDAT ??_R1A@?0A@A@IMessageObserver@@8
rdata$r	SEGMENT DWORD USE32 PUBLIC 'CONST'
rdata$r	ENDS
;	COMDAT ??_R1A@?0A@A@ILayoutChangeObserver@@8
rdata$r	SEGMENT DWORD USE32 PUBLIC 'CONST'
rdata$r	ENDS
;	COMDAT ??_R13?0A@A@IEventListener@@8
rdata$r	SEGMENT DWORD USE32 PUBLIC 'CONST'
rdata$r	ENDS
;	COMDAT ??_R1A@?0A@A@IWndEventListener@@8
rdata$r	SEGMENT DWORD USE32 PUBLIC 'CONST'
rdata$r	ENDS
;	COMDAT ??_R1A@?0A@A@IChangeColorMgr@@8
rdata$r	SEGMENT DWORD USE32 PUBLIC 'CONST'
rdata$r	ENDS
;	COMDAT ??_R1A@?0A@A@IEventListener@@8
rdata$r	SEGMENT DWORD USE32 PUBLIC 'CONST'
rdata$r	ENDS
;	COMDAT ??_R1A@?0A@A@?$numpunct@_W@std@@8
rdata$r	SEGMENT DWORD USE32 PUBLIC 'CONST'
rdata$r	ENDS
;	COMDAT ??_R1A@?0A@A@facet@locale@std@@8
rdata$r	SEGMENT DWORD USE32 PUBLIC 'CONST'
rdata$r	ENDS
;	COMDAT ??_R0?AVfacet@locale@std@@@8
_DATA	SEGMENT DWORD USE32 PUBLIC 'DATA'
_DATA	ENDS
;	COMDAT ??_R1A@?0A@A@?$numpunct@D@std@@8
rdata$r	SEGMENT DWORD USE32 PUBLIC 'CONST'
rdata$r	ENDS
;	COMDAT ??_R0?AVIData@@@8
_DATA	SEGMENT DWORD USE32 PUBLIC 'DATA'
_DATA	ENDS
;	COMDAT ??_R0?AVDIBINFO@@@8
_DATA	SEGMENT DWORD USE32 PUBLIC 'DATA'
_DATA	ENDS
;	COMDAT ??_R0?AVIMessageObserver@@@8
_DATA	SEGMENT DWORD USE32 PUBLIC 'DATA'
_DATA	ENDS
;	COMDAT ??_R0?AVP2PObserver@@@8
_DATA	SEGMENT DWORD USE32 PUBLIC 'DATA'
_DATA	ENDS
;	COMDAT ??_R0?AVCSkinMgrV1@@@8
_DATA	SEGMENT DWORD USE32 PUBLIC 'DATA'
_DATA	ENDS
;	COMDAT ??_R0?AVHTTPObserver@@@8
_DATA	SEGMENT DWORD USE32 PUBLIC 'DATA'
_DATA	ENDS
;	COMDAT ??_R0?AVCGdiPlusBitmap@CSkinButton@@@8
_DATA	SEGMENT DWORD USE32 PUBLIC 'DATA'
_DATA	ENDS
;	COMDAT ??_R0?AVCGdiPlusBitmap@@@8
_DATA	SEGMENT DWORD USE32 PUBLIC 'DATA'
_DATA	ENDS
;	COMDAT ??_R0?AVILayoutChangeObserver@@@8
_DATA	SEGMENT DWORD USE32 PUBLIC 'DATA'
_DATA	ENDS
;	COMDAT ??_R0?AVIWndEventListener@@@8
_DATA	SEGMENT DWORD USE32 PUBLIC 'DATA'
_DATA	ENDS
;	COMDAT ??_R0?AVIChangeColorMgr@@@8
_DATA	SEGMENT DWORD USE32 PUBLIC 'DATA'
_DATA	ENDS
;	COMDAT ??_R0?AVIEventListener@@@8
_DATA	SEGMENT DWORD USE32 PUBLIC 'DATA'
_DATA	ENDS
;	COMDAT ??_R0?AV?$numpunct@_W@std@@@8
_DATA	SEGMENT DWORD USE32 PUBLIC 'DATA'
_DATA	ENDS
;	COMDAT ??_R0?AV?$numpunct@D@std@@@8
_DATA	SEGMENT DWORD USE32 PUBLIC 'DATA'
_DATA	ENDS
;	COMDAT ??_R4IData@@6B@
rdata$r	SEGMENT DWORD USE32 PUBLIC 'CONST'
rdata$r	ENDS
;	COMDAT ??_R4P2PObserver@@6B@
rdata$r	SEGMENT DWORD USE32 PUBLIC 'CONST'
rdata$r	ENDS
;	COMDAT ??_R4DIBINFO@@6B@
rdata$r	SEGMENT DWORD USE32 PUBLIC 'CONST'
rdata$r	ENDS
;	COMDAT ??_R4CSkinMgrV1@@6BILayoutChangeObserver@@@
rdata$r	SEGMENT DWORD USE32 PUBLIC 'CONST'
rdata$r	ENDS
;	COMDAT ??_R4CSkinMgrV1@@6BP2PObserver@@@
rdata$r	SEGMENT DWORD USE32 PUBLIC 'CONST'
rdata$r	ENDS
;	COMDAT ??_R4CSkinMgrV1@@6BIEventListener@@@
rdata$r	SEGMENT DWORD USE32 PUBLIC 'CONST'
rdata$r	ENDS
;	COMDAT ??_R4CSkinMgrV1@@6BIWndEventListener@@@
rdata$r	SEGMENT DWORD USE32 PUBLIC 'CONST'
rdata$r	ENDS
;	COMDAT ??_R4HTTPObserver@@6B@
rdata$r	SEGMENT DWORD USE32 PUBLIC 'CONST'
rdata$r	ENDS
;	COMDAT ??_R4CGdiPlusBitmap@CSkinButton@@6B@
rdata$r	SEGMENT DWORD USE32 PUBLIC 'CONST'
rdata$r	ENDS
;	COMDAT ??_R4CGdiPlusBitmap@@6B@
rdata$r	SEGMENT DWORD USE32 PUBLIC 'CONST'
rdata$r	ENDS
;	COMDAT ??_R4IWndEventListener@@6B@
rdata$r	SEGMENT DWORD USE32 PUBLIC 'CONST'
rdata$r	ENDS
;	COMDAT ??_R4ILayoutChangeObserver@@6B@
rdata$r	SEGMENT DWORD USE32 PUBLIC 'CONST'
rdata$r	ENDS
;	COMDAT ??_R4IChangeColorMgr@@6BIEventListener@@@
rdata$r	SEGMENT DWORD USE32 PUBLIC 'CONST'
rdata$r	ENDS
;	COMDAT ??_R4IChangeColorMgr@@6BIWndEventListener@@@
rdata$r	SEGMENT DWORD USE32 PUBLIC 'CONST'
rdata$r	ENDS
;	COMDAT ??_R4IEventListener@@6B@
rdata$r	SEGMENT DWORD USE32 PUBLIC 'CONST'
rdata$r	ENDS
;	COMDAT ??0?$allocator@_W@std@@QAE@XZ
_TEXT	SEGMENT PARA USE32 PUBLIC 'CODE'
_TEXT	ENDS
;	COMDAT ??_G?$numpunct@_W@std@@MAEPAXI@Z
_TEXT	SEGMENT PARA USE32 PUBLIC 'CODE'
_TEXT	ENDS
;	COMDAT ??_R4?$numpunct@_W@std@@6B@
rdata$r	SEGMENT DWORD USE32 PUBLIC 'CONST'
rdata$r	ENDS
;	COMDAT ??_G?$numpunct@D@std@@MAEPAXI@Z
_TEXT	SEGMENT PARA USE32 PUBLIC 'CODE'
_TEXT	ENDS
;	COMDAT ??_R4?$numpunct@D@std@@6B@
rdata$r	SEGMENT DWORD USE32 PUBLIC 'CONST'
rdata$r	ENDS
;	COMDAT ?_Psave@?$_Facetptr@V?$numpunct@_W@std@@@std@@2PBVfacet@locale@2@B
_DATA	SEGMENT DWORD USE32 PUBLIC 'DATA'
_DATA	ENDS
;	COMDAT ?_Psave@?$_Facetptr@V?$numpunct@D@std@@@std@@2PBVfacet@locale@2@B
_DATA	SEGMENT DWORD USE32 PUBLIC 'DATA'
_DATA	ENDS
;	COMDAT ?Unlock@CComCriticalSection@ATL@@QAEJXZ
_TEXT	SEGMENT PARA USE32 PUBLIC 'CODE'
_TEXT	ENDS
;	COMDAT ?_Psave@?$_Facetptr@V?$ctype@_W@std@@@std@@2PBVfacet@locale@2@B
_DATA	SEGMENT DWORD USE32 PUBLIC 'DATA'
_DATA	ENDS
;	COMDAT ?_Psave@?$_Facetptr@V?$ctype@D@std@@@std@@2PBVfacet@locale@2@B
_DATA	SEGMENT DWORD USE32 PUBLIC 'DATA'
_DATA	ENDS
;	COMDAT ??_7length_error@std@@6B@
CONST	SEGMENT DWORD USE32 PUBLIC 'CONST'
CONST	ENDS
;	COMDAT ??_R4length_error@std@@6B@
rdata$r	SEGMENT DWORD USE32 PUBLIC 'CONST'
rdata$r	ENDS
;	COMDAT ??_R3length_error@std@@8
rdata$r	SEGMENT DWORD USE32 PUBLIC 'CONST'
rdata$r	ENDS
;	COMDAT ??_R2length_error@std@@8
rdata$r	SEGMENT DWORD USE32 PUBLIC 'CONST'
rdata$r	ENDS
;	COMDAT ??_R1A@?0A@A@length_error@std@@8
rdata$r	SEGMENT DWORD USE32 PUBLIC 'CONST'
rdata$r	ENDS
;	COMDAT ??_R1A@?0A@A@logic_error@std@@8
rdata$r	SEGMENT DWORD USE32 PUBLIC 'CONST'
rdata$r	ENDS
;	COMDAT ??_R0?AVlogic_error@std@@@8
_DATA	SEGMENT DWORD USE32 PUBLIC 'DATA'
_DATA	ENDS
;	COMDAT ??_R1A@?0A@A@exception@@8
rdata$r	SEGMENT DWORD USE32 PUBLIC 'CONST'
rdata$r	ENDS
;	COMDAT ??_R0?AVexception@@@8
_DATA	SEGMENT DWORD USE32 PUBLIC 'DATA'
_DATA	ENDS
;	COMDAT ??_Glength_error@std@@UAEPAXI@Z
_TEXT	SEGMENT PARA USE32 PUBLIC 'CODE'
_TEXT	ENDS
;	COMDAT ?what@logic_error@std@@UBEPBDXZ
_TEXT	SEGMENT PARA USE32 PUBLIC 'CODE'
_TEXT	ENDS
;	COMDAT ??1logic_error@std@@UAE@XZ
_TEXT	SEGMENT PARA USE32 PUBLIC 'CODE'
_TEXT	ENDS
;	COMDAT ??_7logic_error@std@@6B@
CONST	SEGMENT DWORD USE32 PUBLIC 'CONST'
CONST	ENDS
;	COMDAT ??_R4logic_error@std@@6B@
rdata$r	SEGMENT DWORD USE32 PUBLIC 'CONST'
rdata$r	ENDS
;	COMDAT ??_R3logic_error@std@@8
rdata$r	SEGMENT DWORD USE32 PUBLIC 'CONST'
rdata$r	ENDS
;	COMDAT ??_R2logic_error@std@@8
rdata$r	SEGMENT DWORD USE32 PUBLIC 'CONST'
rdata$r	ENDS
;	COMDAT ??_Glogic_error@std@@UAEPAXI@Z
_TEXT	SEGMENT PARA USE32 PUBLIC 'CODE'
_TEXT	ENDS
;	COMDAT ??0logic_error@std@@QAE@ABV01@@Z
_TEXT	SEGMENT PARA USE32 PUBLIC 'CODE'
_TEXT	ENDS
;	COMDAT __CTA3?AVlength_error@std@@
xdata$x	SEGMENT DWORD USE32 PUBLIC 'CONST'
xdata$x	ENDS
;	COMDAT ??1length_error@std@@UAE@XZ
_TEXT	SEGMENT PARA USE32 PUBLIC 'CODE'
_TEXT	ENDS
;	COMDAT __CT??_R0?AVexception@@@8??0exception@@QAE@ABV0@@Z12
xdata$x	SEGMENT DWORD USE32 PUBLIC 'CONST'
xdata$x	ENDS
;	COMDAT __CT??_R0?AVlogic_error@std@@@8??0logic_error@std@@QAE@ABV01@@Z40
xdata$x	SEGMENT DWORD USE32 PUBLIC 'CONST'
xdata$x	ENDS
;	COMDAT __CT??_R0?AVlength_error@std@@@8??0length_error@std@@QAE@ABV01@@Z40
xdata$x	SEGMENT DWORD USE32 PUBLIC 'CONST'
xdata$x	ENDS
;	COMDAT ??_R0?AVlength_error@std@@@8
_DATA	SEGMENT DWORD USE32 PUBLIC 'DATA'
_DATA	ENDS
;	COMDAT __TI3?AVlength_error@std@@
xdata$x	SEGMENT DWORD USE32 PUBLIC 'CONST'
xdata$x	ENDS
;	COMDAT ??0length_error@std@@QAE@ABV?$basic_string@DU?$char_traits@D@std@@V?$allocator@D@2@@1@@Z
_TEXT	SEGMENT PARA USE32 PUBLIC 'CODE'
_TEXT	ENDS
;	COMDAT ??0logic_error@std@@QAE@ABV?$basic_string@DU?$char_traits@D@std@@V?$allocator@D@2@@1@@Z
_TEXT	SEGMENT PARA USE32 PUBLIC 'CODE'
_TEXT	ENDS
;	COMDAT ??$_Maklocchr@_W@std@@YA_WDPA_WABU_Cvtvec@@@Z
_TEXT	SEGMENT PARA USE32 PUBLIC 'CODE'
_TEXT	ENDS
;	COMDAT ??$_Maklocstr@_W@std@@YAPA_WPBDPA_WABU_Cvtvec@@@Z
_TEXT	SEGMENT PARA USE32 PUBLIC 'CODE'
_TEXT	ENDS
;	COMDAT ??$_Maklocchr@D@std@@YADDPADABU_Cvtvec@@@Z
_TEXT	SEGMENT PARA USE32 PUBLIC 'CODE'
_TEXT	ENDS
;	COMDAT ??_C@_04LOAJBDKD@true?$AA@
CONST	SEGMENT DWORD USE32 PUBLIC 'CONST'
CONST	ENDS
;	COMDAT ??_C@_05LAPONLG@false?$AA@
CONST	SEGMENT DWORD USE32 PUBLIC 'CONST'
CONST	ENDS
;	COMDAT _wmemcpy
_TEXT	SEGMENT PARA USE32 PUBLIC 'CODE'
_TEXT	ENDS
;	COMDAT ?max_size@?$allocator@_W@std@@QBEIXZ
_TEXT	SEGMENT PARA USE32 PUBLIC 'CODE'
_TEXT	ENDS
;	COMDAT ?allocate@?$allocator@_W@std@@QAEPA_WI@Z
_TEXT	SEGMENT PARA USE32 PUBLIC 'CODE'
_TEXT	ENDS
;	COMDAT ??$_Allocate@_W@std@@YAPA_WIPA_W@Z
_TEXT	SEGMENT PARA USE32 PUBLIC 'CODE'
_TEXT	ENDS
;	COMDAT ?data@CStringData@ATL@@QAEPAXXZ
_TEXT	SEGMENT PARA USE32 PUBLIC 'CODE'
_TEXT	ENDS
;	COMDAT ??_C@_01GFHCPBMG@C?$AA@
CONST	SEGMENT DWORD USE32 PUBLIC 'CONST'
CONST	ENDS
;	COMDAT ?max_size@?$allocator@D@std@@QBEIXZ
_TEXT	SEGMENT PARA USE32 PUBLIC 'CODE'
_TEXT	ENDS
;	COMDAT ?allocate@?$allocator@D@std@@QAEPADI@Z
_TEXT	SEGMENT PARA USE32 PUBLIC 'CODE'
_TEXT	ENDS
;	COMDAT ??$_Allocate@D@std@@YAPADIPAD@Z
_TEXT	SEGMENT PARA USE32 PUBLIC 'CODE'
_TEXT	ENDS
;	COMDAT ?deallocate@?$allocator@D@std@@QAEXPADI@Z
_TEXT	SEGMENT PARA USE32 PUBLIC 'CODE'
_TEXT	ENDS
;	COMDAT ?Format@?$ChTraitsCRT@D@ATL@@SAHPADPBD0@Z
_TEXT	SEGMENT PARA USE32 PUBLIC 'CODE'
_TEXT	ENDS
;	COMDAT ?GetFormattedLength@?$ChTraitsCRT@D@ATL@@SAHPBDPAD@Z
_TEXT	SEGMENT PARA USE32 PUBLIC 'CODE'
_TEXT	ENDS
;	COMDAT ?Release@CStringData@ATL@@QAEXXZ
_TEXT	SEGMENT PARA USE32 PUBLIC 'CODE'
_TEXT	ENDS
;	COMDAT ?_Peek@?$istreambuf_iterator@_WU?$char_traits@_W@std@@@std@@AAE_WXZ
_TEXT	SEGMENT PARA USE32 PUBLIC 'CODE'
_TEXT	ENDS
;	COMDAT ?_Peek@?$istreambuf_iterator@DU?$char_traits@D@std@@@std@@AAEDXZ
_TEXT	SEGMENT PARA USE32 PUBLIC 'CODE'
_TEXT	ENDS
;	COMDAT ??$use_facet@V?$ctype@_W@std@@@std@@YAABV?$ctype@_W@0@ABVlocale@0@@Z
_TEXT	SEGMENT PARA USE32 PUBLIC 'CODE'
_TEXT	ENDS
;	COMDAT ??_S?$ctype@_W@std@@6B@
CONST	SEGMENT DWORD USE32 PUBLIC 'CONST'
CONST	ENDS
;	COMDAT ??_R4?$ctype@_W@std@@6B@
rdata$r	SEGMENT DWORD USE32 PUBLIC 'CONST'
rdata$r	ENDS
;	COMDAT ??_R0?AV?$ctype@_W@std@@@8
_DATA	SEGMENT DWORD USE32 PUBLIC 'DATA'
_DATA	ENDS
;	COMDAT ??_R3?$ctype@_W@std@@8
rdata$r	SEGMENT DWORD USE32 PUBLIC 'CONST'
rdata$r	ENDS
;	COMDAT ??_R2?$ctype@_W@std@@8
rdata$r	SEGMENT DWORD USE32 PUBLIC 'CONST'
rdata$r	ENDS
;	COMDAT ??_R1A@?0A@A@?$ctype@_W@std@@8
rdata$r	SEGMENT DWORD USE32 PUBLIC 'CONST'
rdata$r	ENDS
;	COMDAT ??_R1A@?0A@A@ctype_base@std@@8
rdata$r	SEGMENT DWORD USE32 PUBLIC 'CONST'
rdata$r	ENDS
;	COMDAT ??_R0?AUctype_base@std@@@8
_DATA	SEGMENT DWORD USE32 PUBLIC 'DATA'
_DATA	ENDS
;	COMDAT ??_G?$ctype@_W@std@@MAEPAXI@Z
_TEXT	SEGMENT PARA USE32 PUBLIC 'CODE'
_TEXT	ENDS
;	COMDAT ??_C@_08EPJLHIJG@bad?5cast?$AA@
CONST	SEGMENT DWORD USE32 PUBLIC 'CONST'
CONST	ENDS
;	COMDAT __TI2?AVbad_cast@@
xdata$x	SEGMENT DWORD USE32 PUBLIC 'CONST'
xdata$x	ENDS
;	COMDAT __CTA2?AVbad_cast@@
xdata$x	SEGMENT DWORD USE32 PUBLIC 'CONST'
xdata$x	ENDS
;	COMDAT __CT??_R0?AVbad_cast@@@8??0bad_cast@@QAE@ABV0@@Z12
xdata$x	SEGMENT DWORD USE32 PUBLIC 'CONST'
xdata$x	ENDS
;	COMDAT ??_R0?AVbad_cast@@@8
_DATA	SEGMENT DWORD USE32 PUBLIC 'DATA'
_DATA	ENDS
;	COMDAT ??$use_facet@V?$ctype@D@std@@@std@@YAABV?$ctype@D@0@ABVlocale@0@@Z
_TEXT	SEGMENT PARA USE32 PUBLIC 'CODE'
_TEXT	ENDS
;	COMDAT ??_S?$ctype@D@std@@6B@
CONST	SEGMENT DWORD USE32 PUBLIC 'CONST'
CONST	ENDS
;	COMDAT ??_R4?$ctype@D@std@@6B@
rdata$r	SEGMENT DWORD USE32 PUBLIC 'CONST'
rdata$r	ENDS
;	COMDAT ??_R0?AV?$ctype@D@std@@@8
_DATA	SEGMENT DWORD USE32 PUBLIC 'DATA'
_DATA	ENDS
;	COMDAT ??_R3?$ctype@D@std@@8
rdata$r	SEGMENT DWORD USE32 PUBLIC 'CONST'
rdata$r	ENDS
;	COMDAT ??_R2?$ctype@D@std@@8
rdata$r	SEGMENT DWORD USE32 PUBLIC 'CONST'
rdata$r	ENDS
;	COMDAT ??_R1A@?0A@A@?$ctype@D@std@@8
rdata$r	SEGMENT DWORD USE32 PUBLIC 'CONST'
rdata$r	ENDS
;	COMDAT ??_G?$ctype@D@std@@MAEPAXI@Z
_TEXT	SEGMENT PARA USE32 PUBLIC 'CODE'
_TEXT	ENDS
;	COMDAT ??_S?$numpunct@_W@std@@6B@
CONST	SEGMENT DWORD USE32 PUBLIC 'CONST'
CONST	ENDS
;	COMDAT ??_S?$numpunct@D@std@@6B@
CONST	SEGMENT DWORD USE32 PUBLIC 'CONST'
CONST	ENDS
;	COMDAT _wmemmove
_TEXT	SEGMENT PARA USE32 PUBLIC 'CODE'
_TEXT	ENDS
;	COMDAT ?deallocate@?$allocator@_W@std@@QAEXPA_WI@Z
_TEXT	SEGMENT PARA USE32 PUBLIC 'CODE'
_TEXT	ENDS
;	COMDAT ??0?$allocator@_W@std@@QAE@ABV01@@Z
_TEXT	SEGMENT PARA USE32 PUBLIC 'CODE'
_TEXT	ENDS
;	COMDAT ?AtlThrow@ATL@@YGXJ@Z
_TEXT	SEGMENT PARA USE32 PUBLIC 'CODE'
_TEXT	ENDS
;	COMDAT ?IsShared@CStringData@ATL@@QBE_NXZ
_TEXT	SEGMENT PARA USE32 PUBLIC 'CODE'
_TEXT	ENDS
;	COMDAT ?InvalidateRect@CWnd@@QAEXPBUtagRECT@@H@Z
_TEXT	SEGMENT PARA USE32 PUBLIC 'CODE'
_TEXT	ENDS
;	COMDAT ?GetWindowRect@CWnd@@QBEXPAUtagRECT@@@Z
_TEXT	SEGMENT PARA USE32 PUBLIC 'CODE'
_TEXT	ENDS
;	COMDAT ?UpdateWindow@CWnd@@QAEXXZ
_TEXT	SEGMENT PARA USE32 PUBLIC 'CODE'
_TEXT	ENDS
;	COMDAT ?AfxGetApp@@YGPAVCWinApp@@XZ
_TEXT	SEGMENT PARA USE32 PUBLIC 'CODE'
_TEXT	ENDS
;	COMDAT ?IsWindowVisible@CWnd@@QBEHXZ
_TEXT	SEGMENT PARA USE32 PUBLIC 'CODE'
_TEXT	ENDS
;	COMDAT ??BCRect@@QAEPAUtagRECT@@XZ
_TEXT	SEGMENT PARA USE32 PUBLIC 'CODE'
_TEXT	ENDS
;	COMDAT ?GetSafeHwnd@CWnd@@QBEPAUHWND__@@XZ
_TEXT	SEGMENT PARA USE32 PUBLIC 'CODE'
_TEXT	ENDS
;	COMDAT ?IsLocked@CStringData@ATL@@QBE_NXZ
_TEXT	SEGMENT PARA USE32 PUBLIC 'CODE'
_TEXT	ENDS
;	COMDAT ??0?$allocator@D@std@@QAE@ABV01@@Z
_TEXT	SEGMENT PARA USE32 PUBLIC 'CODE'
_TEXT	ENDS
;	COMDAT ??0?$allocator@D@std@@QAE@XZ
_TEXT	SEGMENT PARA USE32 PUBLIC 'CODE'
_TEXT	ENDS
;	COMDAT ?Invalidate@CWnd@@QAEXH@Z
_TEXT	SEGMENT PARA USE32 PUBLIC 'CODE'
_TEXT	ENDS
;	COMDAT ?SetRect@CRect@@QAEXHHHH@Z
_TEXT	SEGMENT PARA USE32 PUBLIC 'CODE'
_TEXT	ENDS
;	COMDAT ??3CObject@@SGXPAX@Z
_TEXT	SEGMENT PARA USE32 PUBLIC 'CODE'
_TEXT	ENDS
;	COMDAT ??2CObject@@SGPAXI@Z
_TEXT	SEGMENT PARA USE32 PUBLIC 'CODE'
_TEXT	ENDS
;	COMDAT ?MoveWindow@CWnd@@QAEXPBUtagRECT@@H@Z
_TEXT	SEGMENT PARA USE32 PUBLIC 'CODE'
_TEXT	ENDS
;	COMDAT ??0CRect@@QAE@HHHH@Z
_TEXT	SEGMENT PARA USE32 PUBLIC 'CODE'
_TEXT	ENDS
;	COMDAT ?RedrawWindow@CWnd@@QAEHPBUtagRECT@@PAVCRgn@@I@Z
_TEXT	SEGMENT PARA USE32 PUBLIC 'CODE'
_TEXT	ENDS
;	COMDAT ?GetSafeHandle@CGdiObject@@QBEPAXXZ
_TEXT	SEGMENT PARA USE32 PUBLIC 'CODE'
_TEXT	ENDS
;	COMDAT ??0CRect@@QAE@XZ
_TEXT	SEGMENT PARA USE32 PUBLIC 'CODE'
_TEXT	ENDS
;	COMDAT ??_7IMessageObserver@@6B@
CONST	SEGMENT DWORD USE32 PUBLIC 'CONST'
CONST	ENDS
;	COMDAT ??_R4IMessageObserver@@6B@
rdata$r	SEGMENT DWORD USE32 PUBLIC 'CONST'
rdata$r	ENDS
;	COMDAT ??_R3IMessageObserver@@8
rdata$r	SEGMENT DWORD USE32 PUBLIC 'CONST'
rdata$r	ENDS
;	COMDAT ??_R2IMessageObserver@@8
rdata$r	SEGMENT DWORD USE32 PUBLIC 'CONST'
rdata$r	ENDS
;	COMDAT ??_GIMessageObserver@@UAEPAXI@Z
_TEXT	SEGMENT PARA USE32 PUBLIC 'CODE'
_TEXT	ENDS
;	COMDAT ??_7IEventListener@@6B@
CONST	SEGMENT DWORD USE32 PUBLIC 'CONST'
CONST	ENDS
;	COMDAT ??_7IWndEventListener@@6B@
CONST	SEGMENT DWORD USE32 PUBLIC 'CONST'
CONST	ENDS
;	COMDAT ??_7ILayoutChangeObserver@@6B@
CONST	SEGMENT DWORD USE32 PUBLIC 'CONST'
CONST	ENDS
;	COMDAT ??1IMessageObserver@@UAE@XZ
_TEXT	SEGMENT PARA USE32 PUBLIC 'CODE'
_TEXT	ENDS
;	COMDAT ??_7IChangeColorMgr@@6BIEventListener@@@
CONST	SEGMENT DWORD USE32 PUBLIC 'CONST'
CONST	ENDS
;	COMDAT ??_7IChangeColorMgr@@6BIWndEventListener@@@
CONST	SEGMENT DWORD USE32 PUBLIC 'CONST'
CONST	ENDS
;	COMDAT ?GetDefaultManager@?$StrTraitMFC_DLL@DV?$ChTraitsCRT@D@ATL@@@@SAPAUIAtlStringMgr@ATL@@XZ
_TEXT	SEGMENT PARA USE32 PUBLIC 'CODE'
_TEXT	ENDS
;	COMDAT ??_7CSkinMgrV1@@6BILayoutChangeObserver@@@
CONST	SEGMENT DWORD USE32 PUBLIC 'CONST'
CONST	ENDS
;	COMDAT ??_7CSkinMgrV1@@6BP2PObserver@@@
CONST	SEGMENT DWORD USE32 PUBLIC 'CONST'
CONST	ENDS
;	COMDAT ??_7CSkinMgrV1@@6BIEventListener@@@
CONST	SEGMENT DWORD USE32 PUBLIC 'CONST'
CONST	ENDS
;	COMDAT ??_7CSkinMgrV1@@6BIWndEventListener@@@
CONST	SEGMENT DWORD USE32 PUBLIC 'CONST'
CONST	ENDS
;	COMDAT ?clsid@?1??GetClsid@CShockwaveFlash@@QAEABU_GUID@@XZ@4U3@B
CONST	SEGMENT DWORD USE32 PUBLIC 'CONST'
CONST	ENDS
;	COMDAT ??_7P2PObserver@@6B@
CONST	SEGMENT DWORD USE32 PUBLIC 'CONST'
CONST	ENDS
;	COMDAT ??_7HTTPObserver@@6B@
CONST	SEGMENT DWORD USE32 PUBLIC 'CONST'
CONST	ENDS
;	COMDAT ?FindStringResourceInstance@?$StrTraitMFC_DLL@DV?$ChTraitsCRT@D@ATL@@@@SAPAUHINSTANCE__@@I@Z
_TEXT	SEGMENT PARA USE32 PUBLIC 'CODE'
_TEXT	ENDS
;	COMDAT ?AtlGetStringResourceImage@ATL@@YAPBUATLSTRINGRESOURCEIMAGE@1@PAUHINSTANCE__@@I@Z
_TEXT	SEGMENT PARA USE32 PUBLIC 'CODE'
_TEXT	ENDS
;	COMDAT ?_AtlGetStringResourceImage@ATL@@YAPBUATLSTRINGRESOURCEIMAGE@1@PAUHINSTANCE__@@PAUHRSRC__@@I@Z
_TEXT	SEGMENT PARA USE32 PUBLIC 'CODE'
_TEXT	ENDS
;	COMDAT ?GetBaseTypeLength@?$ChTraitsCRT@D@ATL@@SAHPB_WH@Z
_TEXT	SEGMENT PARA USE32 PUBLIC 'CODE'
_TEXT	ENDS
;	COMDAT ?_AtlGetConversionACP@ATL@@YGIXZ
_TEXT	SEGMENT PARA USE32 PUBLIC 'CODE'
_TEXT	ENDS
;	COMDAT ?g_pfnGetThreadACP@ATL@@3P6GIXZA
_DATA	SEGMENT DWORD USE32 PUBLIC 'DATA'
_DATA	ENDS
;	COMDAT ?_AtlGetThreadACPThunk@ATL@@YGIXZ
_TEXT	SEGMENT PARA USE32 PUBLIC 'CODE'
_TEXT	ENDS
;	COMDAT ?_AtlGetThreadACPReal@ATL@@YGIXZ
_TEXT	SEGMENT PARA USE32 PUBLIC 'CODE'
_TEXT	ENDS
;	COMDAT ?_AtlGetThreadACPFake@ATL@@YGIXZ
_TEXT	SEGMENT PARA USE32 PUBLIC 'CODE'
_TEXT	ENDS
;	COMDAT ?InterlockedExchangePointer@@YGPAXPAPAXPAX@Z
_TEXT	SEGMENT PARA USE32 PUBLIC 'CODE'
_TEXT	ENDS
;	COMDAT ?ConvertToBaseType@?$ChTraitsCRT@D@ATL@@SAXPADHPB_WH@Z
_TEXT	SEGMENT PARA USE32 PUBLIC 'CODE'
_TEXT	ENDS
;	COMDAT ?AddRef@CStringData@ATL@@QAEXXZ
_TEXT	SEGMENT PARA USE32 PUBLIC 'CODE'
_TEXT	ENDS
;	COMDAT ??_7CGdiPlusBitmap@CSkinButton@@6B@
CONST	SEGMENT DWORD USE32 PUBLIC 'CONST'
CONST	ENDS
;	COMDAT ??_7IData@@6B@
CONST	SEGMENT DWORD USE32 PUBLIC 'CONST'
CONST	ENDS
;	COMDAT ?GetLastStatus@Image@Gdiplus@@QBE?AW4Status@2@XZ
_TEXT	SEGMENT PARA USE32 PUBLIC 'CODE'
_TEXT	ENDS
;	COMDAT ?FromFile@Bitmap@Gdiplus@@SAPAV12@PB_WH@Z
_TEXT	SEGMENT PARA USE32 PUBLIC 'CODE'
_TEXT	ENDS
;	COMDAT ??2GdiplusBase@Gdiplus@@SAPAXI@Z
_TEXT	SEGMENT PARA USE32 PUBLIC 'CODE'
_TEXT	ENDS
;	COMDAT ??3GdiplusBase@Gdiplus@@SAXPAX@Z
_TEXT	SEGMENT PARA USE32 PUBLIC 'CODE'
_TEXT	ENDS
;	COMDAT ??0Bitmap@Gdiplus@@QAE@PB_WH@Z
_TEXT	SEGMENT PARA USE32 PUBLIC 'CODE'
_TEXT	ENDS
;	COMDAT ??0Image@Gdiplus@@IAE@XZ
_TEXT	SEGMENT PARA USE32 PUBLIC 'CODE'
_TEXT	ENDS
;	COMDAT ??_7Image@Gdiplus@@6B@
CONST	SEGMENT DWORD USE32 PUBLIC 'CONST'
CONST	ENDS
;	COMDAT ??_R4Image@Gdiplus@@6B@
rdata$r	SEGMENT DWORD USE32 PUBLIC 'CONST'
rdata$r	ENDS
;	COMDAT ??_R0?AVImage@Gdiplus@@@8
_DATA	SEGMENT DWORD USE32 PUBLIC 'DATA'
_DATA	ENDS
;	COMDAT ??_R3Image@Gdiplus@@8
rdata$r	SEGMENT DWORD USE32 PUBLIC 'CONST'
rdata$r	ENDS
;	COMDAT ??_R2Image@Gdiplus@@8
rdata$r	SEGMENT DWORD USE32 PUBLIC 'CONST'
rdata$r	ENDS
;	COMDAT ??_R1A@?0A@A@Image@Gdiplus@@8
rdata$r	SEGMENT DWORD USE32 PUBLIC 'CONST'
rdata$r	ENDS
;	COMDAT ??_R13?0A@A@GdiplusBase@Gdiplus@@8
rdata$r	SEGMENT DWORD USE32 PUBLIC 'CONST'
rdata$r	ENDS
;	COMDAT ??_R0?AVGdiplusBase@Gdiplus@@@8
_DATA	SEGMENT DWORD USE32 PUBLIC 'DATA'
_DATA	ENDS
;	COMDAT ??_GImage@Gdiplus@@UAEPAXI@Z
_TEXT	SEGMENT PARA USE32 PUBLIC 'CODE'
_TEXT	ENDS
;	COMDAT ?Clone@Image@Gdiplus@@UAEPAV12@XZ
_TEXT	SEGMENT PARA USE32 PUBLIC 'CODE'
_TEXT	ENDS
;	COMDAT ?SetStatus@Image@Gdiplus@@IBE?AW4Status@2@W432@@Z
_TEXT	SEGMENT PARA USE32 PUBLIC 'CODE'
_TEXT	ENDS
;	COMDAT ??0Image@Gdiplus@@IAE@PAVGpImage@1@W4Status@1@@Z
_TEXT	SEGMENT PARA USE32 PUBLIC 'CODE'
_TEXT	ENDS
;	COMDAT ??1Image@Gdiplus@@UAE@XZ
_TEXT	SEGMENT PARA USE32 PUBLIC 'CODE'
_TEXT	ENDS
;	COMDAT ??_7Bitmap@Gdiplus@@6B@
CONST	SEGMENT DWORD USE32 PUBLIC 'CONST'
CONST	ENDS
;	COMDAT ??_R4Bitmap@Gdiplus@@6B@
rdata$r	SEGMENT DWORD USE32 PUBLIC 'CONST'
rdata$r	ENDS
;	COMDAT ??_R0?AVBitmap@Gdiplus@@@8
_DATA	SEGMENT DWORD USE32 PUBLIC 'DATA'
_DATA	ENDS
;	COMDAT ??_R3Bitmap@Gdiplus@@8
rdata$r	SEGMENT DWORD USE32 PUBLIC 'CONST'
rdata$r	ENDS
;	COMDAT ??_R2Bitmap@Gdiplus@@8
rdata$r	SEGMENT DWORD USE32 PUBLIC 'CONST'
rdata$r	ENDS
;	COMDAT ??_R1A@?0A@A@Bitmap@Gdiplus@@8
rdata$r	SEGMENT DWORD USE32 PUBLIC 'CONST'
rdata$r	ENDS
;	COMDAT ??_GBitmap@Gdiplus@@UAEPAXI@Z
_TEXT	SEGMENT PARA USE32 PUBLIC 'CODE'
_TEXT	ENDS
;	COMDAT ??1Bitmap@Gdiplus@@UAE@XZ
_TEXT	SEGMENT PARA USE32 PUBLIC 'CODE'
_TEXT	ENDS
;	COMDAT ?SetNativeImage@Image@Gdiplus@@IAEXPAVGpImage@2@@Z
_TEXT	SEGMENT PARA USE32 PUBLIC 'CODE'
_TEXT	ENDS
;	COMDAT ??_7CGdiPlusBitmap@@6B@
CONST	SEGMENT DWORD USE32 PUBLIC 'CONST'
CONST	ENDS
;	COMDAT ??_7DIBINFO@@6B@
CONST	SEGMENT DWORD USE32 PUBLIC 'CONST'
CONST	ENDS
sxdata	SEGMENT DWORD USE32 'SXDATA'
sxdata	ENDS
FLAT	GROUP _DATA, CONST, _BSS
	ASSUME	CS: FLAT, DS: FLAT, SS: FLAT
endif

INCLUDELIB MSVCRT
INCLUDELIB OLDNAMES

PUBLIC	?mp_IsHadObject@CSkinMgrV1@@0PAVIChangeColorMgr@@A ; CSkinMgrV1::mp_IsHadObject
PUBLIC	?g_pfnGetThreadACP@ATL@@3P6GIXZA		; ATL::g_pfnGetThreadACP
PUBLIC	?_AtlGetThreadACPThunk@ATL@@YGIXZ		; ATL::_AtlGetThreadACPThunk
_BSS	SEGMENT
?mp_IsHadObject@CSkinMgrV1@@0PAVIChangeColorMgr@@A DD 01H DUP (?) ; CSkinMgrV1::mp_IsHadObject
_BSS	ENDS
CONST	SEGMENT
$SG201889 DB	'int', 00H
CONST	ENDS
_DATA	SEGMENT
_TYPE_CONFIG_INT DD FLAT:$SG201889
_DATA	ENDS
CONST	SEGMENT
$SG201891 DB	'str', 00H
CONST	ENDS
_DATA	SEGMENT
_TYPE_CONFIG_STR DD FLAT:$SG201891
_DATA	ENDS
CONST	SEGMENT
$SG201893 DB	'double', 00H
CONST	ENDS
_DATA	SEGMENT
_TYPE_CONFIG_DOUBLE DD FLAT:$SG201893
_DATA	ENDS
CONST	SEGMENT
	ORG $+1
$SG201895 DB	'bool', 00H
CONST	ENDS
_DATA	SEGMENT
_TYPE_CONFIG_BOOL DD FLAT:$SG201895
_DATA	ENDS
CONST	SEGMENT
	ORG $+3
$SG201897 DB	'sepint', 00H
CONST	ENDS
_DATA	SEGMENT
_TYPE_CONFIG_INT_HASSEP DD FLAT:$SG201897
_DATA	ENDS
CONST	SEGMENT
	ORG $+1
$SG201899 DB	'sepstr', 00H
CONST	ENDS
_DATA	SEGMENT
_TYPE_CONFIG_STR_HASSEP DD FLAT:$SG201899
_DATA	ENDS
CONST	SEGMENT
	ORG $+1
$SG201901 DB	'sepdouble', 00H
CONST	ENDS
_DATA	SEGMENT
_TYPE_CONFIG_DOUBLE_HASSEP DD FLAT:$SG201901
_DATA	ENDS
CONST	SEGMENT
	ORG $+2
$SG201903 DB	'sepbool', 00H
CONST	ENDS
_DATA	SEGMENT
_TYPE_CONFIG_BOOL_HASSEP DD FLAT:$SG201903
_DATA	ENDS
CONST	SEGMENT
$SG201905 DB	'Setting', 00H
CONST	ENDS
_DATA	SEGMENT
_CONF_SETTING_MODULE_NAME DD FLAT:$SG201905
_DATA	ENDS
CONST	SEGMENT
$SG201907 DB	'skin', 00H
CONST	ENDS
_DATA	SEGMENT
_CONF_SETTING_SKIN_IDX DD FLAT:$SG201907
_DATA	ENDS
CONST	SEGMENT
	ORG $+3
$SG201909 DB	'MainPage', 00H
CONST	ENDS
_DATA	SEGMENT
_CONF_SETTING_CONFIG_MAIN_PAGE DD FLAT:$SG201909
_DATA	ENDS
CONST	SEGMENT
	ORG $+3
$SG201911 DB	'ProblemReport', 00H
CONST	ENDS
_DATA	SEGMENT
_CONF_SETTING_CONFIG_PROBLEM_REPORT DD FLAT:$SG201911
_DATA	ENDS
CONST	SEGMENT
	ORG $+2
$SG201913 DB	'HomePage', 00H
CONST	ENDS
_DATA	SEGMENT
_CONF_SETTING_CONFIG_HOME_PAGE DD FLAT:$SG201913
_DATA	ENDS
CONST	SEGMENT
	ORG $+3
$SG201915 DB	'askexit', 00H
CONST	ENDS
_DATA	SEGMENT
_CONF_SETTING_CONFIG_IFASKEXIT DD FLAT:$SG201915
_DATA	ENDS
CONST	SEGMENT
$SG201917 DB	'exitchoice', 00H
CONST	ENDS
_DATA	SEGMENT
_CONF_SETTING_CONFIG_EXITCHOICE DD FLAT:$SG201917
_DATA	ENDS
CONST	SEGMENT
	ORG $+1
$SG201919 DB	'UN', 00H
CONST	ENDS
_DATA	SEGMENT
_CONF_SETTING_LOGIN_USER_NAME DD FLAT:$SG201919
_DATA	ENDS
CONST	SEGMENT
	ORG $+1
$SG201921 DB	'PW', 00H
CONST	ENDS
_DATA	SEGMENT
_CONF_SETTING_LOGIN_PASSWORD DD FLAT:$SG201921
_DATA	ENDS
CONST	SEGMENT
	ORG $+1
$SG201923 DB	'NetID', 00H
CONST	ENDS
_DATA	SEGMENT
_CONF_SETTING_NETID DD FLAT:$SG201923
_DATA	ENDS
CONST	SEGMENT
	ORG $+2
$SG201925 DB	'ChangeColorValue', 00H
CONST	ENDS
_DATA	SEGMENT
_CONF_SETTING_COLOR DD FLAT:$SG201925
_DATA	ENDS
CONST	SEGMENT
	ORG $+3
$SG201927 DB	'changeColorLight', 00H
CONST	ENDS
_DATA	SEGMENT
_CONF_SETTING_LIGHT DD FLAT:$SG201927
_DATA	ENDS
CONST	SEGMENT
	ORG $+3
$SG201929 DB	'ColorIndex', 00H
CONST	ENDS
_DATA	SEGMENT
_CONF_SETTING_COLOR_BTN_INDEX DD FLAT:$SG201929
_DATA	ENDS
CONST	SEGMENT
	ORG $+1
$SG201931 DB	'ColorUser', 00H
CONST	ENDS
_DATA	SEGMENT
_CONF_SETTING_COLOR_USER DD FLAT:$SG201931
_DATA	ENDS
CONST	SEGMENT
	ORG $+2
$SG201933 DB	'FirstTimeChangeSkin', 00H
CONST	ENDS
_DATA	SEGMENT
_CONF_SETTING_FIRST_TIME_CHANGESKIN DD FLAT:$SG201933
_DATA	ENDS
CONST	SEGMENT
$SG202325 DB	0dH, 0aH, 0d7H, 0b4H, 0ccH, 0acH, ': ', 0d0H, 0e8H, 0b5H, 0e3H
	DB	0bbH, 0f7H, 0cfH, 0c2H, 0d4H, 0d8H, 00H
	ORG $+1
$SG202326 DB	0c6H, 0a4H, 0b7H, 0f4H, ': ', 00H
	ORG $+1
$SG202335 DB	0dH, 0aH, 0d7H, 0b4H, 0ccH, 0acH, ': ', 0d2H, 0d1H, 0b1H, 0b8H
	DB	0baH, 0c3H, 00H
	ORG $+1
$SG202336 DB	0c6H, 0a4H, 0b7H, 0f4H, ': ', 00H
	ORG $+1
$SG202642 DB	'%08x,%d', 00H
$SG202646 DB	'CHAGE_COLOR', 00H
$SG202652 DB	00H
	ORG $+3
$SG202659 DB	'\skin\', 00H
	ORG $+1
$SG202662 DB	'\', 00H
	ORG $+2
$SG202665 DB	'\', 00H
	ORG $+2
$SG202670 DB	'\skin.dat', 00H
$SG202679 DB	00H
$SG202682 DB	00H
$SG202689 DB	00H
	ORG $+3
$SG202696 DB	'\skin\', 00H
	ORG $+1
$SG202699 DB	'\', 00H
	ORG $+2
$SG202702 DB	'\', 00H
	ORG $+2
$SG202707 DB	'\skin.dat', 00H
$SG202744 DB	00H
	ORG $+1
$SG202745 DB	0d5H, 0fdH, 0d4H, 0daH, 0cfH, 0c2H, 0d4H, 0d8H, ' "%s" ', 0c6H
	DB	0a4H, 0b7H, 0f4H, 00H
	ORG $+1
$SG202758 DB	'\skin.ini', 00H
	ORG $+2
$SG202759 DB	'author', 00H
	ORG $+1
$SG202760 DB	'skin', 00H
	ORG $+3
$SG202766 DB	0dH, 0aH, 0d7H, 0b4H, 0ccH, 0acH, ': ', 0d2H, 0d1H, 0b1H, 0b8H
	DB	0baH, 0c3H, 00H
	ORG $+1
$SG202767 DB	0dH, 0aH, 0d7H, 0f7H, 0d5H, 0dfH, ': ', 00H
	ORG $+3
$SG202768 DB	0c6H, 0a4H, 0b7H, 0f4H, ': ', 00H
	ORG $+1
$SG202782 DB	'S:DOWN_START', 00H
	ORG $+3
$SG202783 DB	'HANDLE_SKIN', 00H
$SG202790 DB	0c6H, 0a4H, 0b7H, 0f4H, 0cfH, 0c2H, 0d4H, 0d8H, 0cdH, 0eaH
	DB	0b3H, 0c9H, ' %u,%u', 00H
	ORG $+1
$SG202791 DB	'DownStart', 00H
	ORG $+2
$SG202792 DB	'downskin.txt', 00H
	ORG $+3
$SG202799 DB	'S:DOWN_FINISHE', 00H
	ORG $+1
$SG202800 DB	'HANDLE_SKIN', 00H
$SG202803 DB	'\skin\', 00H
$SG203005 DB	00H
$SG203016 DB	0c6H, 0a4H, 0b7H, 0f4H, 0cfH, 0c2H, 0d4H, 0d8H, 0caH, 0a7H
	DB	0b0H, 0dcH, ' %u,%u', 00H
	ORG $+1
$SG203017 DB	'DownStart', 00H
	ORG $+2
$SG203018 DB	'downskin.txt', 00H
	ORG $+3
$SG203025 DB	'S:DOWN_FAILED', 00H
	ORG $+2
$SG203026 DB	'HANDLE_SKIN', 00H
$SG203037 DB	0c6H, 0a4H, 0b7H, 0f4H, 0cfH, 0c2H, 0d4H, 0d8H, 0bdH, 0f8H
	DB	0d0H, 0d0H, 0d6H, 0d0H, ' %u,%u,%u', 00H
$SG203038 DB	'DownStart', 00H
	ORG $+2
$SG203039 DB	'downskin.txt', 00H
	ORG $+3
$SG203048 DB	'Sub:%s', 00H
$SG203049 DB	00H
$SG203050 DB	'%', 00H
	ORG $+2
$SG203053 DB	'ClickSub', 00H
	ORG $+3
$SG203092 DB	'3', 00H
	ORG $+2
$SG203093 DB	'Click-In', 00H
	ORG $+3
$SG203094 DB	'SkinB.txt', 00H
	ORG $+2
$SG203097 DB	0d0H, 0e8H, 0d2H, 0aaH, 0cfH, 0c2H, 0d4H, 0d8H, 0c6H, 0a4H
	DB	0b7H, 0f4H, ' %s', 00H
$SG203098 DB	'DownStart', 00H
	ORG $+2
$SG203099 DB	'downskin.txt', 00H
	ORG $+3
$SG203126 DB	0d2H, 0d1H, 0d3H, 0d0H, 0cfH, 0c2H, 0d4H, 0d8H, 0c8H, 0ceH
	DB	0ceH, 0f1H, 0c1H, 0cbH, 0a3H, 0acH, 0c7H, 0ebH, 0c9H, 0d4H, 0baH
	DB	0f2H, '...', 00H
$SG203131 DB	00H
$SG203143 DB	00H
$SG203145 DB	0d5H, 0fdH, 0d4H, 0daH, 0cfH, 0c2H, 0d4H, 0d8H, ' "%s" ', 0c6H
	DB	0a4H, 0b7H, 0f4H, 00H
	ORG $+1
$SG203147 DB	0d5H, 0fdH, 0d4H, 0daH, 0cfH, 0c2H, 0d4H, 0d8H, 0c6H, 0a4H
	DB	0b7H, 0f4H, 00H
	ORG $+3
$SG203156 DB	'9', 00H
	ORG $+2
$SG203157 DB	'Click-In', 00H
	ORG $+3
$SG203158 DB	'SkinB.txt', 00H
$SG203165 DB	00H
	ORG $+1
$SG203167 DB	0c6H, 0a4H, 0b7H, 0f4H, ':  %s', 0dH, 0aH, 0d7H, 0b4H, 0ccH
	DB	0acH, ': ', 0d2H, 0d1H, 0b1H, 0b8H, 0baH, 0c3H, 00H
$SG203169 DB	0d7H, 0b4H, 0ccH, 0acH, ': ', 0d2H, 0d1H, 0b1H, 0b8H, 0baH
	DB	0c3H, 00H
	ORG $+3
$SG203176 DB	'10', 00H
	ORG $+1
$SG203177 DB	'Click-In', 00H
	ORG $+3
$SG203178 DB	'SkinB.txt', 00H
$SG203180 DB	00H
	ORG $+1
$SG203183 DB	'11', 00H
	ORG $+1
$SG203184 DB	'Click-In', 00H
	ORG $+3
$SG203185 DB	'SkinB.txt', 00H
	ORG $+2
$SG203190 DB	0d4H, 0ddH, 0caH, 0b1H, 0ceH, 0deH, 0b7H, 0a8H, 0cfH, 0c2H
	DB	0d4H, 0d8H, 0b8H, 0c3H, 0c6H, 0a4H, 0b7H, 0f4H, 0a3H, 0acH, 0c7H
	DB	0ebH, 0c9H, 0d4H, 0baH, 0f2H, 0d4H, 0d9H, 0caH, 0d4H, 00H
	ORG $+1
$SG203192 DB	0c8H, 0b7H, 0b6H, 0a8H, 00H
	ORG $+3
$SG203200 DB	'9', 00H
	ORG $+2
$SG203201 DB	'Click-In', 00H
	ORG $+3
$SG203202 DB	'SkinB.txt', 00H
	ORG $+2
$SG203217 DB	0c6H, 0a4H, 0b7H, 0f4H, 0d2H, 0d1H, 0b1H, 0a3H, 0b4H, 0e6H
	DB	0b5H, 0bdH, 0a1H, 0b0H, 0ceH, 0d2H, 0b5H, 0c4H, 0c6H, 0a4H, 0b7H
	DB	0f4H, 0a1H, 0b1H, 00H
$SG203219 DB	00H
	ORG $+2
$SG203221 DB	0c6H, 0a4H, 0b7H, 0f4H, ':  %s', 0dH, 0aH, 0d7H, 0b4H, 0ccH
	DB	0acH, ': ', 0d2H, 0d1H, 0b1H, 0b8H, 0baH, 0c3H, 00H
$SG203223 DB	0d7H, 0b4H, 0ccH, 0acH, ': ', 0d2H, 0d1H, 0b1H, 0b8H, 0baH
	DB	0c3H, 00H
	ORG $+3
$SG203230 DB	'10', 00H
	ORG $+1
$SG203231 DB	'Click-In', 00H
	ORG $+3
$SG203232 DB	'SkinB.txt', 00H
$SG203234 DB	00H
	ORG $+1
$SG203237 DB	'11', 00H
	ORG $+1
$SG203238 DB	'Click-In', 00H
	ORG $+3
$SG203239 DB	'SkinB.txt', 00H
	ORG $+2
$SG203244 DB	0d4H, 0ddH, 0caH, 0b1H, 0ceH, 0deH, 0b7H, 0a8H, 0cfH, 0c2H
	DB	0d4H, 0d8H, 0b8H, 0c3H, 0c6H, 0a4H, 0b7H, 0f4H, 0a3H, 0acH, 0c7H
	DB	0ebH, 0c9H, 0d4H, 0baH, 0f2H, 0d4H, 0d9H, 0caH, 0d4H, 00H
	ORG $+1
$SG203246 DB	0c8H, 0b7H, 0b6H, 0a8H, 00H
CONST	ENDS
;	COMDAT ?g_pfnGetThreadACP@ATL@@3P6GIXZA
_DATA	SEGMENT
?g_pfnGetThreadACP@ATL@@3P6GIXZA DD FLAT:?_AtlGetThreadACPThunk@ATL@@YGIXZ ; ATL::g_pfnGetThreadACP
_DATA	ENDS
CONST	SEGMENT
	ORG $+3
_ID_MESSAGE_LAYOUTMGR DD 08H
CONST	ENDS
PUBLIC	?InterlockedExchangePointer@@YGPAXPAPAXPAX@Z	; InterlockedExchangePointer
PUBLIC	?_AtlGetThreadACPFake@ATL@@YGIXZ		; ATL::_AtlGetThreadACPFake
PUBLIC	?_AtlGetThreadACPReal@ATL@@YGIXZ		; ATL::_AtlGetThreadACPReal
EXTRN	___security_cookie:DWORD
EXTRN	@__security_check_cookie@4:NEAR
EXTRN	__imp__GetVersionExA@4:NEAR
; Function compile flags: /Odt
; File d:\program files (x86)\microsoft visual studio .net 2003\vc7\atlmfc\include\atlconv.h
;	COMDAT ?_AtlGetThreadACPThunk@ATL@@YGIXZ
_TEXT	SEGMENT
_pfnGetThreadACP$ = -164				; size = 4
_ver$ = -160						; size = 148
__$ArrayPad$ = -4					; size = 4
__$ReturnAddr$ = 4					; size = 4
?_AtlGetThreadACPThunk@ATL@@YGIXZ PROC NEAR		; ATL::_AtlGetThreadACPThunk, COMDAT

; 134  : {

  00000	55		 push	 ebp
  00001	8b ec		 mov	 ebp, esp
  00003	81 ec a4 00 00
	00		 sub	 esp, 164		; 000000a4H
  00009	a1 00 00 00 00	 mov	 eax, DWORD PTR ___security_cookie
  0000e	89 45 fc	 mov	 DWORD PTR __$ArrayPad$[ebp], eax

; 135  : 	OSVERSIONINFO ver;
; 136  : 	ATLGETTHREADACP pfnGetThreadACP;
; 137  : 
; 138  : 	ver.dwOSVersionInfoSize = sizeof( ver );

  00011	c7 85 60 ff ff
	ff 94 00 00 00	 mov	 DWORD PTR _ver$[ebp], 148 ; 00000094H

; 139  : 	::GetVersionEx( &ver );

  0001b	8d 85 60 ff ff
	ff		 lea	 eax, DWORD PTR _ver$[ebp]
  00021	50		 push	 eax
  00022	ff 15 00 00 00
	00		 call	 DWORD PTR __imp__GetVersionExA@4

; 140  : 	if( (ver.dwPlatformId == VER_PLATFORM_WIN32_NT) && (ver.dwMajorVersion >= 5) )

  00028	83 bd 70 ff ff
	ff 02		 cmp	 DWORD PTR _ver$[ebp+16], 2
  0002f	75 15		 jne	 SHORT $L24173
  00031	83 bd 64 ff ff
	ff 05		 cmp	 DWORD PTR _ver$[ebp+4], 5
  00038	72 0c		 jb	 SHORT $L24173

; 141  : 	{
; 142  : 		// On Win2K, CP_THREAD_ACP is supported
; 143  : 		pfnGetThreadACP = _AtlGetThreadACPReal;

  0003a	c7 85 5c ff ff
	ff 00 00 00 00	 mov	 DWORD PTR _pfnGetThreadACP$[ebp], OFFSET FLAT:?_AtlGetThreadACPReal@ATL@@YGIXZ ; ATL::_AtlGetThreadACPReal

; 144  : 	}
; 145  : 	else

  00044	eb 0a		 jmp	 SHORT $L24174
$L24173:

; 146  : 	{
; 147  : 		pfnGetThreadACP = _AtlGetThreadACPFake;

  00046	c7 85 5c ff ff
	ff 00 00 00 00	 mov	 DWORD PTR _pfnGetThreadACP$[ebp], OFFSET FLAT:?_AtlGetThreadACPFake@ATL@@YGIXZ ; ATL::_AtlGetThreadACPFake
$L24174:

; 148  : 	}
; 149  : 	InterlockedExchangePointer( reinterpret_cast< void** >(&g_pfnGetThreadACP), pfnGetThreadACP );

  00050	8b 8d 5c ff ff
	ff		 mov	 ecx, DWORD PTR _pfnGetThreadACP$[ebp]
  00056	51		 push	 ecx
  00057	68 00 00 00 00	 push	 OFFSET FLAT:?g_pfnGetThreadACP@ATL@@3P6GIXZA ; ATL::g_pfnGetThreadACP
  0005c	e8 00 00 00 00	 call	 ?InterlockedExchangePointer@@YGPAXPAPAXPAX@Z ; InterlockedExchangePointer

; 150  : 
; 151  : 	return( g_pfnGetThreadACP() );

  00061	ff 15 00 00 00
	00		 call	 DWORD PTR ?g_pfnGetThreadACP@ATL@@3P6GIXZA ; ATL::g_pfnGetThreadACP

; 152  : }

  00067	8b 4d fc	 mov	 ecx, DWORD PTR __$ArrayPad$[ebp]
  0006a	e8 00 00 00 00	 call	 @__security_check_cookie@4
  0006f	8b e5		 mov	 esp, ebp
  00071	5d		 pop	 ebp
  00072	c3		 ret	 0
?_AtlGetThreadACPThunk@ATL@@YGIXZ ENDP			; ATL::_AtlGetThreadACPThunk
_TEXT	ENDS
EXTRN	__imp__InterlockedExchange@8:NEAR
; Function compile flags: /Odt
;	COMDAT ?InterlockedExchangePointer@@YGPAXPAPAXPAX@Z
_TEXT	SEGMENT
_pp$ = 8						; size = 4
_pNew$ = 12						; size = 4
?InterlockedExchangePointer@@YGPAXPAPAXPAX@Z PROC NEAR	; InterlockedExchangePointer, COMDAT

; 91   : {

  00000	55		 push	 ebp
  00001	8b ec		 mov	 ebp, esp

; 92   : 	return( reinterpret_cast<void*>(static_cast<LONG_PTR>(::InterlockedExchange(reinterpret_cast<LONG*>(pp), static_cast<LONG>(reinterpret_cast<LONG_PTR>(pNew))))) );

  00003	8b 45 0c	 mov	 eax, DWORD PTR _pNew$[ebp]
  00006	50		 push	 eax
  00007	8b 4d 08	 mov	 ecx, DWORD PTR _pp$[ebp]
  0000a	51		 push	 ecx
  0000b	ff 15 00 00 00
	00		 call	 DWORD PTR __imp__InterlockedExchange@8

; 93   : }

  00011	5d		 pop	 ebp
  00012	c2 08 00	 ret	 8
?InterlockedExchangePointer@@YGPAXPAPAXPAX@Z ENDP	; InterlockedExchangePointer
_TEXT	ENDS
EXTRN	__imp__GetACP@0:NEAR
EXTRN	__imp__GetLocaleInfoA@16:NEAR
EXTRN	__imp__GetThreadLocale@0:NEAR
; Function compile flags: /Odt
;	COMDAT ?_AtlGetThreadACPFake@ATL@@YGIXZ
_TEXT	SEGMENT
_pch$24161 = -24					; size = 4
_lcidThread$ = -20					; size = 4
_szACP$ = -16						; size = 7
__$ArrayPad$ = -8					; size = 4
_nACP$ = -4						; size = 4
__$ReturnAddr$ = 4					; size = 4
?_AtlGetThreadACPFake@ATL@@YGIXZ PROC NEAR		; ATL::_AtlGetThreadACPFake, COMDAT

; 101  : {

  00000	55		 push	 ebp
  00001	8b ec		 mov	 ebp, esp
  00003	83 ec 18	 sub	 esp, 24			; 00000018H
  00006	a1 00 00 00 00	 mov	 eax, DWORD PTR ___security_cookie
  0000b	89 45 f8	 mov	 DWORD PTR __$ArrayPad$[ebp], eax

; 102  : 	UINT nACP = 0;

  0000e	c7 45 fc 00 00
	00 00		 mov	 DWORD PTR _nACP$[ebp], 0

; 103  : 
; 104  : 	LCID lcidThread = ::GetThreadLocale();

  00015	ff 15 00 00 00
	00		 call	 DWORD PTR __imp__GetThreadLocale@0
  0001b	89 45 ec	 mov	 DWORD PTR _lcidThread$[ebp], eax

; 105  : 
; 106  : 	char szACP[7];
; 107  : 	// GetLocaleInfoA will fail for a Unicode-only LCID, but those are only supported on 
; 108  : 	// Windows 2000.  Since Windows 2000 supports CP_THREAD_ACP, this code path is never
; 109  : 	// executed on Windows 2000.
; 110  : 	if (::GetLocaleInfoA(lcidThread, LOCALE_IDEFAULTANSICODEPAGE, szACP, 7) != 0)

  0001e	6a 07		 push	 7
  00020	8d 45 f0	 lea	 eax, DWORD PTR _szACP$[ebp]
  00023	50		 push	 eax
  00024	68 04 10 00 00	 push	 4100			; 00001004H
  00029	8b 4d ec	 mov	 ecx, DWORD PTR _lcidThread$[ebp]
  0002c	51		 push	 ecx
  0002d	ff 15 00 00 00
	00		 call	 DWORD PTR __imp__GetLocaleInfoA@16
  00033	85 c0		 test	 eax, eax
  00035	74 34		 je	 SHORT $L24160

; 111  : 	{
; 112  : 		char* pch = szACP;

  00037	8d 55 f0	 lea	 edx, DWORD PTR _szACP$[ebp]
  0003a	89 55 e8	 mov	 DWORD PTR _pch$24161[ebp], edx
$L24163:

; 113  : 		while (*pch != '\0')

  0003d	8b 45 e8	 mov	 eax, DWORD PTR _pch$24161[ebp]
  00040	0f be 08	 movsx	 ecx, BYTE PTR [eax]
  00043	85 c9		 test	 ecx, ecx
  00045	74 24		 je	 SHORT $L24160

; 114  : 		{
; 115  : 			nACP *= 10;

  00047	8b 55 fc	 mov	 edx, DWORD PTR _nACP$[ebp]
  0004a	6b d2 0a	 imul	 edx, 10			; 0000000aH
  0004d	89 55 fc	 mov	 DWORD PTR _nACP$[ebp], edx

; 116  : 			nACP += *pch++ - '0';

  00050	8b 45 e8	 mov	 eax, DWORD PTR _pch$24161[ebp]
  00053	0f be 08	 movsx	 ecx, BYTE PTR [eax]
  00056	8b 55 fc	 mov	 edx, DWORD PTR _nACP$[ebp]
  00059	8d 44 0a d0	 lea	 eax, DWORD PTR [edx+ecx-48]
  0005d	89 45 fc	 mov	 DWORD PTR _nACP$[ebp], eax
  00060	8b 4d e8	 mov	 ecx, DWORD PTR _pch$24161[ebp]
  00063	83 c1 01	 add	 ecx, 1
  00066	89 4d e8	 mov	 DWORD PTR _pch$24161[ebp], ecx

; 117  : 		}

  00069	eb d2		 jmp	 SHORT $L24163
$L24160:

; 118  : 	}
; 119  : 	// Use the Default ANSI Code Page if we were unable to get the thread ACP or if one does not exist.
; 120  : 	if (nACP == 0)

  0006b	83 7d fc 00	 cmp	 DWORD PTR _nACP$[ebp], 0
  0006f	75 09		 jne	 SHORT $L24165

; 121  : 		nACP = ::GetACP();

  00071	ff 15 00 00 00
	00		 call	 DWORD PTR __imp__GetACP@0
  00077	89 45 fc	 mov	 DWORD PTR _nACP$[ebp], eax
$L24165:

; 122  : 
; 123  : 	return nACP;

  0007a	8b 45 fc	 mov	 eax, DWORD PTR _nACP$[ebp]

; 124  : }

  0007d	8b 4d f8	 mov	 ecx, DWORD PTR __$ArrayPad$[ebp]
  00080	e8 00 00 00 00	 call	 @__security_check_cookie@4
  00085	8b e5		 mov	 esp, ebp
  00087	5d		 pop	 ebp
  00088	c3		 ret	 0
?_AtlGetThreadACPFake@ATL@@YGIXZ ENDP			; ATL::_AtlGetThreadACPFake
; Function compile flags: /Odt
_TEXT	ENDS
;	COMDAT ?_AtlGetThreadACPReal@ATL@@YGIXZ
_TEXT	SEGMENT
?_AtlGetThreadACPReal@ATL@@YGIXZ PROC NEAR		; ATL::_AtlGetThreadACPReal, COMDAT

; 127  : {

  00000	55		 push	 ebp
  00001	8b ec		 mov	 ebp, esp

; 128  : 	return( CP_THREAD_ACP );

  00003	b8 03 00 00 00	 mov	 eax, 3

; 129  : }

  00008	5d		 pop	 ebp
  00009	c3		 ret	 0
?_AtlGetThreadACPReal@ATL@@YGIXZ ENDP			; ATL::_AtlGetThreadACPReal
_TEXT	ENDS
PUBLIC	?GetSkinWnd@CSkinMgrV1@@UAEPAVCWnd@@XZ		; CSkinMgrV1::GetSkinWnd
PUBLIC	??0CSkinMgrV1@@QAE@XZ				; CSkinMgrV1::CSkinMgrV1
PUBLIC	?CloseSkinWnd@CSkinMgrV1@@UAE_NXZ		; CSkinMgrV1::CloseSkinWnd
PUBLIC	?PopSkinWnd@CSkinMgrV1@@UAEHPAVCWnd@@IUtagPOINT@@@Z ; CSkinMgrV1::PopSkinWnd
PUBLIC	?InsertSmallSkin@CSkinMgrV1@@UAE_NV?$basic_string@DU?$char_traits@D@std@@V?$allocator@D@2@@std@@PAVCBitmap@@0_N@Z ; CSkinMgrV1::InsertSmallSkin
PUBLIC	?InsertSmallSubjectSkin@CSkinMgrV1@@UAE_NV?$basic_string@DU?$char_traits@D@std@@V?$allocator@D@2@@std@@PAVCBitmap@@0_N@Z ; CSkinMgrV1::InsertSmallSubjectSkin
PUBLIC	?SetTipText@CSkinMgrV1@@UAEXV?$CStringT@DV?$StrTraitMFC_DLL@DV?$ChTraitsCRT@D@ATL@@@@@ATL@@0@Z ; CSkinMgrV1::SetTipText
PUBLIC	?ChangeBmp@CSkinMgrV1@@UAEPAVDIBINFO@@V2@IK@Z	; CSkinMgrV1::ChangeBmp
PUBLIC	?ChangeColor@CSkinMgrV1@@UAEXAAK@Z		; CSkinMgrV1::ChangeColor
PUBLIC	?SetListener@CSkinMgrV1@@UAEXPAVIChangeSkinEventListener@@@Z ; CSkinMgrV1::SetListener
PUBLIC	?RemoveListener@CSkinMgrV1@@UAEXPAVIChangeSkinEventListener@@@Z ; CSkinMgrV1::RemoveListener
PUBLIC	?OnClose@CSkinMgrV1@@UAEXXZ			; CSkinMgrV1::OnClose
PUBLIC	?SetSelectedColor@CSkinMgrV1@@UAEXK@Z		; CSkinMgrV1::SetSelectedColor
PUBLIC	?BeforeChangeColor@CSkinMgrV1@@UAEXXZ		; CSkinMgrV1::BeforeChangeColor
PUBLIC	?AfterChangeColor@CSkinMgrV1@@UAEXXZ		; CSkinMgrV1::AfterChangeColor
PUBLIC	?SetTopMost@CSkinMgrV1@@UAEX_N@Z		; CSkinMgrV1::SetTopMost
PUBLIC	?DeleteObject@CSkinMgrV1@@UAEXXZ		; CSkinMgrV1::DeleteObject
PUBLIC	?DownloadStart@CSkinMgrV1@@UAEXXZ		; CSkinMgrV1::DownloadStart
PUBLIC	?SetDownloadPercentage@CSkinMgrV1@@UAEXHV?$CStringT@DV?$StrTraitMFC_DLL@DV?$ChTraitsCRT@D@ATL@@@@@ATL@@@Z ; CSkinMgrV1::SetDownloadPercentage
PUBLIC	?DownloadFinish@CSkinMgrV1@@UAEXV?$CStringT@DV?$StrTraitMFC_DLL@DV?$ChTraitsCRT@D@ATL@@@@@ATL@@@Z ; CSkinMgrV1::DownloadFinish
PUBLIC	?NotifyChangeSubject@CSkinMgrV1@@UAEXABV?$CStringT@DV?$StrTraitMFC_DLL@DV?$ChTraitsCRT@D@ATL@@@@@ATL@@@Z ; CSkinMgrV1::NotifyChangeSubject
PUBLIC	?OnTabSelChange@CSkinMgrV1@@UAEXI@Z		; CSkinMgrV1::OnTabSelChange
PUBLIC	?ClickSub@CSkinMgrV1@@UAEXABV?$CStringT@DV?$StrTraitMFC_DLL@DV?$ChTraitsCRT@D@ATL@@@@@ATL@@@Z ; CSkinMgrV1::ClickSub
PUBLIC	?DownloadWebSub@CSkinMgrV1@@UAEXABV?$CStringT@DV?$StrTraitMFC_DLL@DV?$ChTraitsCRT@D@ATL@@@@@ATL@@0@Z ; CSkinMgrV1::DownloadWebSub
PUBLIC	?ILayoutChangeOb_SkinChanged@CSkinMgrV1@@UAEXV?$basic_string@DU?$char_traits@D@std@@V?$allocator@D@2@@std@@0@Z ; CSkinMgrV1::ILayoutChangeOb_SkinChanged
PUBLIC	?OnSendChangeColor@CSkinMgrV1@@UAEXKI_N@Z	; CSkinMgrV1::OnSendChangeColor
PUBLIC	?OnSendChangeSkin@CSkinMgrV1@@UAEXV?$CStringT@DV?$StrTraitMFC_DLL@DV?$ChTraitsCRT@D@ATL@@@@@ATL@@@Z ; CSkinMgrV1::OnSendChangeSkin
PUBLIC	?OnSendChangeSubject@CSkinMgrV1@@UAEXV?$CStringT@DV?$StrTraitMFC_DLL@DV?$ChTraitsCRT@D@ATL@@@@@ATL@@0@Z ; CSkinMgrV1::OnSendChangeSubject
PUBLIC	?OnChangeSkinAndSub@CSkinMgrV1@@UAEXABV?$CStringT@DV?$StrTraitMFC_DLL@DV?$ChTraitsCRT@D@ATL@@@@@ATL@@0@Z ; CSkinMgrV1::OnChangeSkinAndSub
PUBLIC	?OnStartDownSubject@CSkinMgrV1@@UAEXABV?$CStringT@DV?$StrTraitMFC_DLL@DV?$ChTraitsCRT@D@ATL@@@@@ATL@@@Z ; CSkinMgrV1::OnStartDownSubject
PUBLIC	?OnFinishDownSubject@CSkinMgrV1@@UAEXH@Z	; CSkinMgrV1::OnFinishDownSubject
PUBLIC	??_7CSkinMgrV1@@6BIWndEventListener@@@		; CSkinMgrV1::`vftable'
PUBLIC	??_7CSkinMgrV1@@6BIEventListener@@@		; CSkinMgrV1::`vftable'
PUBLIC	??_7CSkinMgrV1@@6BP2PObserver@@@		; CSkinMgrV1::`vftable'
PUBLIC	??_7CSkinMgrV1@@6BILayoutChangeObserver@@@	; CSkinMgrV1::`vftable'
PUBLIC	??1P2PObserver@@UAE@XZ				; P2PObserver::~P2PObserver
PUBLIC	?P2POb_DownStart@P2PObserver@@UAEXABV?$basic_string@DU?$char_traits@D@std@@V?$allocator@D@2@@std@@PBDI@Z ; P2PObserver::P2POb_DownStart
PUBLIC	?P2POb_DownFinish@P2PObserver@@UAEXABV?$basic_string@DU?$char_traits@D@std@@V?$allocator@D@2@@std@@@Z ; P2PObserver::P2POb_DownFinish
PUBLIC	?P2POb_DownFailed@P2PObserver@@UAEXABV?$basic_string@DU?$char_traits@D@std@@V?$allocator@D@2@@std@@W4P2P_DOWN_FAILED_REASON@@@Z ; P2PObserver::P2POb_DownFailed
PUBLIC	?P2POb_DownProgress@P2PObserver@@UAEXABV?$basic_string@DU?$char_traits@D@std@@V?$allocator@D@2@@std@@III@Z ; P2PObserver::P2POb_DownProgress
PUBLIC	?P2POb_DownPause@P2PObserver@@UAEXABV?$basic_string@DU?$char_traits@D@std@@V?$allocator@D@2@@std@@@Z ; P2PObserver::P2POb_DownPause
PUBLIC	?P2POb_SigChange@P2PObserver@@UAEXABV?$basic_string@DU?$char_traits@D@std@@V?$allocator@D@2@@std@@0PBD@Z ; P2PObserver::P2POb_SigChange
PUBLIC	??0P2PObserver@@QAE@XZ				; P2PObserver::P2PObserver
PUBLIC	??_R0?AVIMessageObserver@@@8			; IMessageObserver `RTTI Type Descriptor'
PUBLIC	?OnCliekButton@IEventListener@@UAEXPAVCButton@@@Z ; IEventListener::OnCliekButton
PUBLIC	?OnCliekSlide@IEventListener@@UAEXPAVCSliderCtrl@@@Z ; IEventListener::OnCliekSlide
PUBLIC	?ILayoutChangeOb_LayerChanged@ILayoutChangeObserver@@UAEXV?$basic_string@DU?$char_traits@D@std@@V?$allocator@D@2@@std@@00@Z ; ILayoutChangeObserver::ILayoutChangeOb_LayerChanged
PUBLIC	?ILayoutChangeOb_PaneChanged@ILayoutChangeObserver@@UAEXV?$basic_string@DU?$char_traits@D@std@@V?$allocator@D@2@@std@@0@Z ; ILayoutChangeObserver::ILayoutChangeOb_PaneChanged
PUBLIC	?ILayoutChangeOb_ColorChanged@ILayoutChangeObserver@@UAEXXZ ; ILayoutChangeObserver::ILayoutChangeOb_ColorChanged
PUBLIC	?ILayoutChangeOb_ColorChanging@ILayoutChangeObserver@@UAEXXZ ; ILayoutChangeObserver::ILayoutChangeOb_ColorChanging
PUBLIC	?ILayoutChangeOb_UpdateLayout@ILayoutChangeObserver@@UAEXPAUHWND__@@@Z ; ILayoutChangeObserver::ILayoutChangeOb_UpdateLayout
PUBLIC	?ILayoutChangeOb_InitFinished@ILayoutChangeObserver@@UAEXXZ ; ILayoutChangeObserver::ILayoutChangeOb_InitFinished
PUBLIC	?ILayoutChangeOb_InitBegin@ILayoutChangeObserver@@UAEXXZ ; ILayoutChangeObserver::ILayoutChangeOb_InitBegin
PUBLIC	??0ILayoutChangeObserver@@QAE@XZ		; ILayoutChangeObserver::ILayoutChangeObserver
PUBLIC	??1ILayoutChangeObserver@@UAE@XZ		; ILayoutChangeObserver::~ILayoutChangeObserver
PUBLIC	??_R0?AVIEventListener@@@8			; IEventListener `RTTI Type Descriptor'
PUBLIC	??_R0?AVIChangeColorMgr@@@8			; IChangeColorMgr `RTTI Type Descriptor'
PUBLIC	??_R1A@?0A@A@IChangeColorMgr@@8			; IChangeColorMgr::`RTTI Base Class Descriptor at (0,-1,0,0)'
PUBLIC	??_R1A@?0A@A@IWndEventListener@@8		; IWndEventListener::`RTTI Base Class Descriptor at (0,-1,0,0)'
PUBLIC	??_R0?AVIWndEventListener@@@8			; IWndEventListener `RTTI Type Descriptor'
PUBLIC	??_R13?0A@A@IEventListener@@8			; IEventListener::`RTTI Base Class Descriptor at (4,-1,0,0)'
PUBLIC	??_R0?AVILayoutChangeObserver@@@8		; ILayoutChangeObserver `RTTI Type Descriptor'
PUBLIC	??_R4CSkinMgrV1@@6BIWndEventListener@@@		; CSkinMgrV1::`RTTI Complete Object Locator'
PUBLIC	??_R0?AVCSkinMgrV1@@@8				; CSkinMgrV1 `RTTI Type Descriptor'
PUBLIC	??_R3CSkinMgrV1@@8				; CSkinMgrV1::`RTTI Class Hierarchy Descriptor'
PUBLIC	??_R2CSkinMgrV1@@8				; CSkinMgrV1::`RTTI Base Class Array'
PUBLIC	??_R1A@?0A@A@CSkinMgrV1@@8			; CSkinMgrV1::`RTTI Base Class Descriptor at (0,-1,0,0)'
PUBLIC	??_R17?0A@A@P2PObserver@@8			; P2PObserver::`RTTI Base Class Descriptor at (8,-1,0,0)'
PUBLIC	??_R0?AVP2PObserver@@@8				; P2PObserver `RTTI Type Descriptor'
PUBLIC	??_R1M@?0A@A@ILayoutChangeObserver@@8		; ILayoutChangeObserver::`RTTI Base Class Descriptor at (12,-1,0,0)'
PUBLIC	??_R1M@?0A@A@IMessageObserver@@8		; IMessageObserver::`RTTI Base Class Descriptor at (12,-1,0,0)'
PUBLIC	??_R4CSkinMgrV1@@6BIEventListener@@@		; CSkinMgrV1::`RTTI Complete Object Locator'
PUBLIC	??_ECSkinMgrV1@@W7AEPAXI@Z			; [thunk]:CSkinMgrV1::`vector deleting destructor'
PUBLIC	??_R4CSkinMgrV1@@6BP2PObserver@@@		; CSkinMgrV1::`RTTI Complete Object Locator'
PUBLIC	??_ECSkinMgrV1@@WM@AEPAXI@Z			; [thunk]:CSkinMgrV1::`vector deleting destructor'
PUBLIC	??_R4CSkinMgrV1@@6BILayoutChangeObserver@@@	; CSkinMgrV1::`RTTI Complete Object Locator'
PUBLIC	?OnChangeSkinTemplate@IWndEventListener@@UAE_NV?$CStringT@DV?$StrTraitMFC_DLL@DV?$ChTraitsCRT@D@ATL@@@@@ATL@@@Z ; IWndEventListener::OnChangeSkinTemplate
PUBLIC	?OnchangeColor@IWndEventListener@@UAEXKI@Z	; IWndEventListener::OnchangeColor
PUBLIC	??0IChangeColorMgr@@QAE@XZ			; IChangeColorMgr::IChangeColorMgr
PUBLIC	??0?$vector@PAVIChangeSkinEventListener@@V?$allocator@PAVIChangeSkinEventListener@@@std@@@std@@QAE@XZ ; std::vector<IChangeSkinEventListener *,std::allocator<IChangeSkinEventListener *> >::vector<IChangeSkinEventListener *,std::allocator<IChangeSkinEventListener *> >
PUBLIC	??1?$vector@PAVIChangeSkinEventListener@@V?$allocator@PAVIChangeSkinEventListener@@@std@@@std@@QAE@XZ ; std::vector<IChangeSkinEventListener *,std::allocator<IChangeSkinEventListener *> >::~vector<IChangeSkinEventListener *,std::allocator<IChangeSkinEventListener *> >
EXTRN	__imp_??0?$CStringT@DV?$StrTraitMFC_DLL@DV?$ChTraitsCRT@D@ATL@@@@@ATL@@QAE@XZ:NEAR
EXTRN	__except_list:DWORD
EXTRN	___CxxFrameHandler:NEAR
EXTRN	__imp_??1?$CStringT@DV?$StrTraitMFC_DLL@DV?$ChTraitsCRT@D@ATL@@@@@ATL@@QAE@XZ:NEAR
EXTRN	__imp__InitializeCriticalSection@4:NEAR
EXTRN	??_7type_info@@6B@:QWORD			; type_info::`vftable'
EXTRN	?AfxGetMessageManager@@YAPAVIMessageManager@@XZ:NEAR ; AfxGetMessageManager
xdata$x	SEGMENT
$T205005 DD	0ffffffffH
	DD	FLAT:$L204992
	DD	00H
	DD	FLAT:$L204993
	DD	01H
	DD	FLAT:$L204994
	DD	02H
	DD	FLAT:$L204995
	DD	03H
	DD	FLAT:$L204996
	DD	04H
	DD	FLAT:$L204997
	DD	05H
	DD	FLAT:$L204998
$T205002 DD	019930520H
	DD	07H
	DD	FLAT:$T205005
	DD	2 DUP(00H)
	DD	2 DUP(00H)
xdata$x	ENDS
;	COMDAT ??_7CSkinMgrV1@@6BIWndEventListener@@@
; File d:\boxgit\playbox\playbox\dev\prj\playbox\src\layoutmgr\changecolor\ichangecolormgr.cpp
CONST	SEGMENT
??_7CSkinMgrV1@@6BIWndEventListener@@@ DD FLAT:??_R4CSkinMgrV1@@6BIWndEventListener@@@ ; CSkinMgrV1::`vftable'
	DD	FLAT:?OnChangeSkinTemplate@IWndEventListener@@UAE_NV?$CStringT@DV?$StrTraitMFC_DLL@DV?$ChTraitsCRT@D@ATL@@@@@ATL@@@Z
	DD	FLAT:?OnchangeColor@IWndEventListener@@UAEXKI@Z
	DD	FLAT:?OnTabSelChange@CSkinMgrV1@@UAEXI@Z
	DD	FLAT:?CloseSkinWnd@CSkinMgrV1@@UAE_NXZ
	DD	FLAT:?PopSkinWnd@CSkinMgrV1@@UAEHPAVCWnd@@IUtagPOINT@@@Z
	DD	FLAT:?GetSkinWnd@CSkinMgrV1@@UAEPAVCWnd@@XZ
	DD	FLAT:?InsertSmallSkin@CSkinMgrV1@@UAE_NV?$basic_string@DU?$char_traits@D@std@@V?$allocator@D@2@@std@@PAVCBitmap@@0_N@Z
	DD	FLAT:?InsertSmallSubjectSkin@CSkinMgrV1@@UAE_NV?$basic_string@DU?$char_traits@D@std@@V?$allocator@D@2@@std@@PAVCBitmap@@0_N@Z
	DD	FLAT:?ChangeBmp@CSkinMgrV1@@UAEPAVDIBINFO@@V2@IK@Z
	DD	FLAT:?ChangeColor@CSkinMgrV1@@UAEXAAK@Z
	DD	FLAT:?SetTipText@CSkinMgrV1@@UAEXV?$CStringT@DV?$StrTraitMFC_DLL@DV?$ChTraitsCRT@D@ATL@@@@@ATL@@0@Z
	DD	FLAT:?SetListener@CSkinMgrV1@@UAEXPAVIChangeSkinEventListener@@@Z
	DD	FLAT:?RemoveListener@CSkinMgrV1@@UAEXPAVIChangeSkinEventListener@@@Z
	DD	FLAT:?OnClose@CSkinMgrV1@@UAEXXZ
	DD	FLAT:?BeforeChangeColor@CSkinMgrV1@@UAEXXZ
	DD	FLAT:?AfterChangeColor@CSkinMgrV1@@UAEXXZ
	DD	FLAT:?SetTopMost@CSkinMgrV1@@UAEX_N@Z
	DD	FLAT:?SetSelectedColor@CSkinMgrV1@@UAEXK@Z
	DD	FLAT:?DeleteObject@CSkinMgrV1@@UAEXXZ
	DD	FLAT:?DownloadStart@CSkinMgrV1@@UAEXXZ
	DD	FLAT:?SetDownloadPercentage@CSkinMgrV1@@UAEXHV?$CStringT@DV?$StrTraitMFC_DLL@DV?$ChTraitsCRT@D@ATL@@@@@ATL@@@Z
	DD	FLAT:?DownloadFinish@CSkinMgrV1@@UAEXV?$CStringT@DV?$StrTraitMFC_DLL@DV?$ChTraitsCRT@D@ATL@@@@@ATL@@@Z
	DD	FLAT:?NotifyChangeSubject@CSkinMgrV1@@UAEXABV?$CStringT@DV?$StrTraitMFC_DLL@DV?$ChTraitsCRT@D@ATL@@@@@ATL@@@Z
	DD	FLAT:?ClickSub@CSkinMgrV1@@UAEXABV?$CStringT@DV?$StrTraitMFC_DLL@DV?$ChTraitsCRT@D@ATL@@@@@ATL@@@Z
	DD	FLAT:?DownloadWebSub@CSkinMgrV1@@UAEXABV?$CStringT@DV?$StrTraitMFC_DLL@DV?$ChTraitsCRT@D@ATL@@@@@ATL@@0@Z
CONST	ENDS
;	COMDAT ??_7CSkinMgrV1@@6BIEventListener@@@
CONST	SEGMENT
??_7CSkinMgrV1@@6BIEventListener@@@ DD FLAT:??_R4CSkinMgrV1@@6BIEventListener@@@ ; CSkinMgrV1::`vftable'
	DD	FLAT:?OnCliekButton@IEventListener@@UAEXPAVCButton@@@Z
	DD	FLAT:?OnCliekSlide@IEventListener@@UAEXPAVCSliderCtrl@@@Z
	DD	FLAT:?OnSendChangeColor@CSkinMgrV1@@UAEXKI_N@Z
	DD	FLAT:?OnSendChangeSkin@CSkinMgrV1@@UAEXV?$CStringT@DV?$StrTraitMFC_DLL@DV?$ChTraitsCRT@D@ATL@@@@@ATL@@@Z
	DD	FLAT:?OnSendChangeSubject@CSkinMgrV1@@UAEXV?$CStringT@DV?$StrTraitMFC_DLL@DV?$ChTraitsCRT@D@ATL@@@@@ATL@@0@Z
	DD	FLAT:?OnChangeSkinAndSub@CSkinMgrV1@@UAEXABV?$CStringT@DV?$StrTraitMFC_DLL@DV?$ChTraitsCRT@D@ATL@@@@@ATL@@0@Z
	DD	FLAT:?OnStartDownSubject@CSkinMgrV1@@UAEXABV?$CStringT@DV?$StrTraitMFC_DLL@DV?$ChTraitsCRT@D@ATL@@@@@ATL@@@Z
	DD	FLAT:?OnFinishDownSubject@CSkinMgrV1@@UAEXH@Z
CONST	ENDS
;	COMDAT ??_7CSkinMgrV1@@6BP2PObserver@@@
CONST	SEGMENT
??_7CSkinMgrV1@@6BP2PObserver@@@ DD FLAT:??_R4CSkinMgrV1@@6BP2PObserver@@@ ; CSkinMgrV1::`vftable'
	DD	FLAT:??_ECSkinMgrV1@@W7AEPAXI@Z
	DD	FLAT:?P2POb_DownStart@P2PObserver@@UAEXABV?$basic_string@DU?$char_traits@D@std@@V?$allocator@D@2@@std@@PBDI@Z
	DD	FLAT:?P2POb_DownFinish@P2PObserver@@UAEXABV?$basic_string@DU?$char_traits@D@std@@V?$allocator@D@2@@std@@@Z
	DD	FLAT:?P2POb_DownFailed@P2PObserver@@UAEXABV?$basic_string@DU?$char_traits@D@std@@V?$allocator@D@2@@std@@W4P2P_DOWN_FAILED_REASON@@@Z
	DD	FLAT:?P2POb_DownProgress@P2PObserver@@UAEXABV?$basic_string@DU?$char_traits@D@std@@V?$allocator@D@2@@std@@III@Z
	DD	FLAT:?P2POb_DownPause@P2PObserver@@UAEXABV?$basic_string@DU?$char_traits@D@std@@V?$allocator@D@2@@std@@@Z
	DD	FLAT:?P2POb_SigChange@P2PObserver@@UAEXABV?$basic_string@DU?$char_traits@D@std@@V?$allocator@D@2@@std@@0PBD@Z
CONST	ENDS
;	COMDAT ??_7CSkinMgrV1@@6BILayoutChangeObserver@@@
CONST	SEGMENT
??_7CSkinMgrV1@@6BILayoutChangeObserver@@@ DD FLAT:??_R4CSkinMgrV1@@6BILayoutChangeObserver@@@ ; CSkinMgrV1::`vftable'
	DD	FLAT:??_ECSkinMgrV1@@WM@AEPAXI@Z
	DD	FLAT:?ILayoutChangeOb_LayerChanged@ILayoutChangeObserver@@UAEXV?$basic_string@DU?$char_traits@D@std@@V?$allocator@D@2@@std@@00@Z
	DD	FLAT:?ILayoutChangeOb_PaneChanged@ILayoutChangeObserver@@UAEXV?$basic_string@DU?$char_traits@D@std@@V?$allocator@D@2@@std@@0@Z
	DD	FLAT:?ILayoutChangeOb_SkinChanged@CSkinMgrV1@@UAEXV?$basic_string@DU?$char_traits@D@std@@V?$allocator@D@2@@std@@0@Z
	DD	FLAT:?ILayoutChangeOb_ColorChanged@ILayoutChangeObserver@@UAEXXZ
	DD	FLAT:?ILayoutChangeOb_ColorChanging@ILayoutChangeObserver@@UAEXXZ
	DD	FLAT:?ILayoutChangeOb_UpdateLayout@ILayoutChangeObserver@@UAEXPAUHWND__@@@Z
	DD	FLAT:?ILayoutChangeOb_InitFinished@ILayoutChangeObserver@@UAEXXZ
	DD	FLAT:?ILayoutChangeOb_InitBegin@ILayoutChangeObserver@@UAEXXZ
CONST	ENDS
;	COMDAT ??_R4CSkinMgrV1@@6BIWndEventListener@@@
rdata$r	SEGMENT
??_R4CSkinMgrV1@@6BIWndEventListener@@@ DD 00H		; CSkinMgrV1::`RTTI Complete Object Locator'
	DD	00H
	DD	00H
	DD	FLAT:??_R0?AVCSkinMgrV1@@@8
	DD	FLAT:??_R3CSkinMgrV1@@8
rdata$r	ENDS
;	COMDAT ??_R0?AVCSkinMgrV1@@@8
_DATA	SEGMENT
??_R0?AVCSkinMgrV1@@@8 DD FLAT:??_7type_info@@6B@	; CSkinMgrV1 `RTTI Type Descriptor'
	DD	00H
	DB	'.?AVCSkinMgrV1@@', 00H
_DATA	ENDS
;	COMDAT ??_R3CSkinMgrV1@@8
rdata$r	SEGMENT
??_R3CSkinMgrV1@@8 DD 00H				; CSkinMgrV1::`RTTI Class Hierarchy Descriptor'
	DD	01H
	DD	07H
	DD	FLAT:??_R2CSkinMgrV1@@8
rdata$r	ENDS
;	COMDAT ??_R2CSkinMgrV1@@8
rdata$r	SEGMENT
??_R2CSkinMgrV1@@8 DD FLAT:??_R1A@?0A@A@CSkinMgrV1@@8	; CSkinMgrV1::`RTTI Base Class Array'
	DD	FLAT:??_R1A@?0A@A@IChangeColorMgr@@8
	DD	FLAT:??_R1A@?0A@A@IWndEventListener@@8
	DD	FLAT:??_R13?0A@A@IEventListener@@8
	DD	FLAT:??_R17?0A@A@P2PObserver@@8
	DD	FLAT:??_R1M@?0A@A@ILayoutChangeObserver@@8
	DD	FLAT:??_R1M@?0A@A@IMessageObserver@@8
rdata$r	ENDS
;	COMDAT ??_R1A@?0A@A@CSkinMgrV1@@8
rdata$r	SEGMENT
??_R1A@?0A@A@CSkinMgrV1@@8 DD FLAT:??_R0?AVCSkinMgrV1@@@8 ; CSkinMgrV1::`RTTI Base Class Descriptor at (0,-1,0,0)'
	DD	06H
	DD	00H
	DD	0ffffffffH
	DD	00H
	DD	00H
rdata$r	ENDS
;	COMDAT ??_R1A@?0A@A@IChangeColorMgr@@8
rdata$r	SEGMENT
??_R1A@?0A@A@IChangeColorMgr@@8 DD FLAT:??_R0?AVIChangeColorMgr@@@8 ; IChangeColorMgr::`RTTI Base Class Descriptor at (0,-1,0,0)'
	DD	02H
	DD	00H
	DD	0ffffffffH
	DD	00H
	DD	00H
rdata$r	ENDS
;	COMDAT ??_R0?AVIChangeColorMgr@@@8
_DATA	SEGMENT
??_R0?AVIChangeColorMgr@@@8 DD FLAT:??_7type_info@@6B@	; IChangeColorMgr `RTTI Type Descriptor'
	DD	00H
	DB	'.?AVIChangeColorMgr@@', 00H
_DATA	ENDS
;	COMDAT ??_R1A@?0A@A@IWndEventListener@@8
rdata$r	SEGMENT
??_R1A@?0A@A@IWndEventListener@@8 DD FLAT:??_R0?AVIWndEventListener@@@8 ; IWndEventListener::`RTTI Base Class Descriptor at (0,-1,0,0)'
	DD	00H
	DD	00H
	DD	0ffffffffH
	DD	00H
	DD	00H
rdata$r	ENDS
;	COMDAT ??_R0?AVIWndEventListener@@@8
_DATA	SEGMENT
??_R0?AVIWndEventListener@@@8 DD FLAT:??_7type_info@@6B@ ; IWndEventListener `RTTI Type Descriptor'
	DD	00H
	DB	'.?AVIWndEventListener@@', 00H
_DATA	ENDS
;	COMDAT ??_R13?0A@A@IEventListener@@8
rdata$r	SEGMENT
??_R13?0A@A@IEventListener@@8 DD FLAT:??_R0?AVIEventListener@@@8 ; IEventListener::`RTTI Base Class Descriptor at (4,-1,0,0)'
	DD	00H
	DD	04H
	DD	0ffffffffH
	DD	00H
	DD	00H
rdata$r	ENDS
;	COMDAT ??_R0?AVIEventListener@@@8
_DATA	SEGMENT
??_R0?AVIEventListener@@@8 DD FLAT:??_7type_info@@6B@	; IEventListener `RTTI Type Descriptor'
	DD	00H
	DB	'.?AVIEventListener@@', 00H
_DATA	ENDS
;	COMDAT ??_R17?0A@A@P2PObserver@@8
rdata$r	SEGMENT
??_R17?0A@A@P2PObserver@@8 DD FLAT:??_R0?AVP2PObserver@@@8 ; P2PObserver::`RTTI Base Class Descriptor at (8,-1,0,0)'
	DD	00H
	DD	08H
	DD	0ffffffffH
	DD	00H
	DD	00H
rdata$r	ENDS
;	COMDAT ??_R0?AVP2PObserver@@@8
_DATA	SEGMENT
??_R0?AVP2PObserver@@@8 DD FLAT:??_7type_info@@6B@	; P2PObserver `RTTI Type Descriptor'
	DD	00H
	DB	'.?AVP2PObserver@@', 00H
_DATA	ENDS
;	COMDAT ??_R1M@?0A@A@ILayoutChangeObserver@@8
rdata$r	SEGMENT
??_R1M@?0A@A@ILayoutChangeObserver@@8 DD FLAT:??_R0?AVILayoutChangeObserver@@@8 ; ILayoutChangeObserver::`RTTI Base Class Descriptor at (12,-1,0,0)'
	DD	01H
	DD	0cH
	DD	0ffffffffH
	DD	00H
	DD	00H
rdata$r	ENDS
;	COMDAT ??_R0?AVILayoutChangeObserver@@@8
_DATA	SEGMENT
??_R0?AVILayoutChangeObserver@@@8 DD FLAT:??_7type_info@@6B@ ; ILayoutChangeObserver `RTTI Type Descriptor'
	DD	00H
	DB	'.?AVILayoutChangeObserver@@', 00H
_DATA	ENDS
;	COMDAT ??_R1M@?0A@A@IMessageObserver@@8
rdata$r	SEGMENT
??_R1M@?0A@A@IMessageObserver@@8 DD FLAT:??_R0?AVIMessageObserver@@@8 ; IMessageObserver::`RTTI Base Class Descriptor at (12,-1,0,0)'
	DD	00H
	DD	0cH
	DD	0ffffffffH
	DD	00H
	DD	00H
rdata$r	ENDS
;	COMDAT ??_R0?AVIMessageObserver@@@8
_DATA	SEGMENT
??_R0?AVIMessageObserver@@@8 DD FLAT:??_7type_info@@6B@	; IMessageObserver `RTTI Type Descriptor'
	DD	00H
	DB	'.?AVIMessageObserver@@', 00H
	ORG $-31
	DD	FLAT:??_7type_info@@6B@
	DD	00H
	DB	'.?AVIMessageObserver@@', 00H
_DATA	ENDS
;	COMDAT ??_R4CSkinMgrV1@@6BIEventListener@@@
rdata$r	SEGMENT
??_R4CSkinMgrV1@@6BIEventListener@@@ DD 00H		; CSkinMgrV1::`RTTI Complete Object Locator'
	DD	04H
	DD	00H
	DD	FLAT:??_R0?AVCSkinMgrV1@@@8
	DD	FLAT:??_R3CSkinMgrV1@@8
rdata$r	ENDS
;	COMDAT ??_R4CSkinMgrV1@@6BP2PObserver@@@
rdata$r	SEGMENT
??_R4CSkinMgrV1@@6BP2PObserver@@@ DD 00H		; CSkinMgrV1::`RTTI Complete Object Locator'
	DD	08H
	DD	00H
	DD	FLAT:??_R0?AVCSkinMgrV1@@@8
	DD	FLAT:??_R3CSkinMgrV1@@8
rdata$r	ENDS
;	COMDAT ??_R4CSkinMgrV1@@6BILayoutChangeObserver@@@
rdata$r	SEGMENT
??_R4CSkinMgrV1@@6BILayoutChangeObserver@@@ DD 00H	; CSkinMgrV1::`RTTI Complete Object Locator'
	DD	0cH
	DD	00H
	DD	FLAT:??_R0?AVCSkinMgrV1@@@8
	DD	FLAT:??_R3CSkinMgrV1@@8
; Function compile flags: /Odt
rdata$r	ENDS
_TEXT	SEGMENT
tv167 = -24						; size = 4
tv173 = -20						; size = 4
_this$ = -16						; size = 4
__$EHRec$ = -12						; size = 12
??0CSkinMgrV1@@QAE@XZ PROC NEAR				; CSkinMgrV1::CSkinMgrV1
; _this$ = ecx

; 24   : {

  00000	55		 push	 ebp
  00001	8b ec		 mov	 ebp, esp
  00003	6a ff		 push	 -1
  00005	68 00 00 00 00	 push	 __ehhandler$??0CSkinMgrV1@@QAE@XZ
  0000a	64 a1 00 00 00
	00		 mov	 eax, DWORD PTR fs:__except_list
  00010	50		 push	 eax
  00011	64 89 25 00 00
	00 00		 mov	 DWORD PTR fs:__except_list, esp
  00018	83 ec 0c	 sub	 esp, 12			; 0000000cH
  0001b	89 4d f0	 mov	 DWORD PTR _this$[ebp], ecx
  0001e	8b 4d f0	 mov	 ecx, DWORD PTR _this$[ebp]
  00021	e8 00 00 00 00	 call	 ??0IChangeColorMgr@@QAE@XZ
  00026	8b 4d f0	 mov	 ecx, DWORD PTR _this$[ebp]
  00029	83 c1 08	 add	 ecx, 8
  0002c	e8 00 00 00 00	 call	 ??0P2PObserver@@QAE@XZ
  00031	c7 45 fc 00 00
	00 00		 mov	 DWORD PTR __$EHRec$[ebp+8], 0
  00038	8b 4d f0	 mov	 ecx, DWORD PTR _this$[ebp]
  0003b	83 c1 0c	 add	 ecx, 12			; 0000000cH
  0003e	e8 00 00 00 00	 call	 ??0ILayoutChangeObserver@@QAE@XZ
  00043	c6 45 fc 01	 mov	 BYTE PTR __$EHRec$[ebp+8], 1
  00047	8b 45 f0	 mov	 eax, DWORD PTR _this$[ebp]
  0004a	c7 00 00 00 00
	00		 mov	 DWORD PTR [eax], OFFSET FLAT:??_7CSkinMgrV1@@6BIWndEventListener@@@
  00050	8b 4d f0	 mov	 ecx, DWORD PTR _this$[ebp]
  00053	c7 41 04 00 00
	00 00		 mov	 DWORD PTR [ecx+4], OFFSET FLAT:??_7CSkinMgrV1@@6BIEventListener@@@
  0005a	8b 55 f0	 mov	 edx, DWORD PTR _this$[ebp]
  0005d	c7 42 08 00 00
	00 00		 mov	 DWORD PTR [edx+8], OFFSET FLAT:??_7CSkinMgrV1@@6BP2PObserver@@@
  00064	8b 45 f0	 mov	 eax, DWORD PTR _this$[ebp]
  00067	c7 40 0c 00 00
	00 00		 mov	 DWORD PTR [eax+12], OFFSET FLAT:??_7CSkinMgrV1@@6BILayoutChangeObserver@@@
  0006e	8b 4d f0	 mov	 ecx, DWORD PTR _this$[ebp]
  00071	83 c1 34	 add	 ecx, 52			; 00000034H
  00074	ff 15 00 00 00
	00		 call	 DWORD PTR __imp_??0?$CStringT@DV?$StrTraitMFC_DLL@DV?$ChTraitsCRT@D@ATL@@@@@ATL@@QAE@XZ
  0007a	c6 45 fc 02	 mov	 BYTE PTR __$EHRec$[ebp+8], 2
  0007e	8b 4d f0	 mov	 ecx, DWORD PTR _this$[ebp]
  00081	83 c1 38	 add	 ecx, 56			; 00000038H
  00084	e8 00 00 00 00	 call	 ??0?$vector@PAVIChangeSkinEventListener@@V?$allocator@PAVIChangeSkinEventListener@@@std@@@std@@QAE@XZ ; std::vector<IChangeSkinEventListener *,std::allocator<IChangeSkinEventListener *> >::vector<IChangeSkinEventListener *,std::allocator<IChangeSkinEventListener *> >
  00089	c6 45 fc 03	 mov	 BYTE PTR __$EHRec$[ebp+8], 3
  0008d	8b 4d f0	 mov	 ecx, DWORD PTR _this$[ebp]
  00090	83 c1 58	 add	 ecx, 88			; 00000058H
  00093	ff 15 00 00 00
	00		 call	 DWORD PTR __imp_??0?$CStringT@DV?$StrTraitMFC_DLL@DV?$ChTraitsCRT@D@ATL@@@@@ATL@@QAE@XZ
  00099	c6 45 fc 04	 mov	 BYTE PTR __$EHRec$[ebp+8], 4
  0009d	8b 4d f0	 mov	 ecx, DWORD PTR _this$[ebp]
  000a0	83 c1 5c	 add	 ecx, 92			; 0000005cH
  000a3	ff 15 00 00 00
	00		 call	 DWORD PTR __imp_??0?$CStringT@DV?$StrTraitMFC_DLL@DV?$ChTraitsCRT@D@ATL@@@@@ATL@@QAE@XZ
  000a9	c6 45 fc 05	 mov	 BYTE PTR __$EHRec$[ebp+8], 5
  000ad	8b 4d f0	 mov	 ecx, DWORD PTR _this$[ebp]
  000b0	83 c1 60	 add	 ecx, 96			; 00000060H
  000b3	ff 15 00 00 00
	00		 call	 DWORD PTR __imp_??0?$CStringT@DV?$StrTraitMFC_DLL@DV?$ChTraitsCRT@D@ATL@@@@@ATL@@QAE@XZ
  000b9	c6 45 fc 06	 mov	 BYTE PTR __$EHRec$[ebp+8], 6

; 25   : 	mp_mainSkinWnd		= NULL;

  000bd	8b 4d f0	 mov	 ecx, DWORD PTR _this$[ebp]
  000c0	c7 41 10 00 00
	00 00		 mov	 DWORD PTR [ecx+16], 0

; 26   : 	mp_skinWnd			= NULL;

  000c7	8b 55 f0	 mov	 edx, DWORD PTR _this$[ebp]
  000ca	c7 42 14 00 00
	00 00		 mov	 DWORD PTR [edx+20], 0

; 27   : 
; 28   : 	mp_downloadSkin		= NULL;

  000d1	8b 45 f0	 mov	 eax, DWORD PTR _this$[ebp]
  000d4	c7 40 20 00 00
	00 00		 mov	 DWORD PTR [eax+32], 0

; 29   : 	mp_downloadSubject	= NULL;

  000db	8b 4d f0	 mov	 ecx, DWORD PTR _this$[ebp]
  000de	c7 41 24 00 00
	00 00		 mov	 DWORD PTR [ecx+36], 0

; 30   : 
; 31   : 	m_BaseColor			= RGB( 0,0,0);

  000e5	8b 55 f0	 mov	 edx, DWORD PTR _this$[ebp]
  000e8	c7 42 28 00 00
	00 00		 mov	 DWORD PTR [edx+40], 0

; 32   : 	m_nLightPos			= 120;

  000ef	8b 45 f0	 mov	 eax, DWORD PTR _this$[ebp]
  000f2	c7 40 30 78 00
	00 00		 mov	 DWORD PTR [eax+48], 120	; 00000078H

; 33   : 	mb_HasPopWnd		= false;

  000f9	8b 4d f0	 mov	 ecx, DWORD PTR _this$[ebp]
  000fc	c6 41 48 00	 mov	 BYTE PTR [ecx+72], 0

; 34   : 	mb_isDownSkin		= false;

  00100	8b 55 f0	 mov	 edx, DWORD PTR _this$[ebp]
  00103	c6 42 49 00	 mov	 BYTE PTR [edx+73], 0

; 35   : 	mb_isDownSubject    = false;

  00107	8b 45 f0	 mov	 eax, DWORD PTR _this$[ebp]
  0010a	c6 40 4a 00	 mov	 BYTE PTR [eax+74], 0

; 36   : 	mb_isDownWebSub		= false;

  0010e	8b 4d f0	 mov	 ecx, DWORD PTR _this$[ebp]
  00111	c6 41 4b 00	 mov	 BYTE PTR [ecx+75], 0

; 37   : 	m_DefaultColor = RGB( 0,0,0);

  00115	8b 55 f0	 mov	 edx, DWORD PTR _this$[ebp]
  00118	c7 42 2c 00 00
	00 00		 mov	 DWORD PTR [edx+44], 0

; 38   : 	mp_SubjectWnd	= NULL;

  0011f	8b 45 f0	 mov	 eax, DWORD PTR _this$[ebp]
  00122	c7 40 18 00 00
	00 00		 mov	 DWORD PTR [eax+24], 0

; 39   : 
; 40   : 	m_iCheckTab = 0;

  00129	8b 4d f0	 mov	 ecx, DWORD PTR _this$[ebp]
  0012c	c7 81 80 00 00
	00 00 00 00 00	 mov	 DWORD PTR [ecx+128], 0

; 41   : 	mb_isFirstPop = TRUE;

  00136	8b 55 f0	 mov	 edx, DWORD PTR _this$[ebp]
  00139	c6 42 4c 01	 mov	 BYTE PTR [edx+76], 1

; 42   : 	InitializeCriticalSection( &m_csDownInfo );

  0013d	8b 45 f0	 mov	 eax, DWORD PTR _this$[ebp]
  00140	83 c0 68	 add	 eax, 104		; 00000068H
  00143	50		 push	 eax
  00144	ff 15 00 00 00
	00		 call	 DWORD PTR __imp__InitializeCriticalSection@4

; 43   : 
; 44   : 	AfxGetMessageManager()->AttachMessage( ID_MESSAGE_LAYOUTMGR,(ILayoutChangeObserver*)this);

  0014a	83 7d f0 00	 cmp	 DWORD PTR _this$[ebp], 0
  0014e	74 0b		 je	 SHORT $L204990
  00150	8b 4d f0	 mov	 ecx, DWORD PTR _this$[ebp]
  00153	83 c1 0c	 add	 ecx, 12			; 0000000cH
  00156	89 4d ec	 mov	 DWORD PTR tv173[ebp], ecx
  00159	eb 07		 jmp	 SHORT $L204991
$L204990:
  0015b	c7 45 ec 00 00
	00 00		 mov	 DWORD PTR tv173[ebp], 0
$L204991:
  00162	e8 00 00 00 00	 call	 ?AfxGetMessageManager@@YAPAVIMessageManager@@XZ ; AfxGetMessageManager
  00167	89 45 e8	 mov	 DWORD PTR tv167[ebp], eax
  0016a	6a 02		 push	 2
  0016c	8b 55 ec	 mov	 edx, DWORD PTR tv173[ebp]
  0016f	52		 push	 edx
  00170	68 00 00 00 00	 push	 OFFSET FLAT:_ID_MESSAGE_LAYOUTMGR
  00175	8b 45 e8	 mov	 eax, DWORD PTR tv167[ebp]
  00178	8b 10		 mov	 edx, DWORD PTR [eax]
  0017a	8b 4d e8	 mov	 ecx, DWORD PTR tv167[ebp]
  0017d	ff 52 04	 call	 DWORD PTR [edx+4]

; 45   : }

  00180	c7 45 fc ff ff
	ff ff		 mov	 DWORD PTR __$EHRec$[ebp+8], -1
  00187	8b 45 f0	 mov	 eax, DWORD PTR _this$[ebp]
  0018a	8b 4d f4	 mov	 ecx, DWORD PTR __$EHRec$[ebp]
  0018d	64 89 0d 00 00
	00 00		 mov	 DWORD PTR fs:__except_list, ecx
  00194	8b e5		 mov	 esp, ebp
  00196	5d		 pop	 ebp
  00197	c3		 ret	 0
_TEXT	ENDS
text$x	SEGMENT
$L204992:
  00000	8b 4d f0	 mov	 ecx, DWORD PTR _this$[ebp]
  00003	83 c1 08	 add	 ecx, 8
  00006	e9 00 00 00 00	 jmp	 ??1P2PObserver@@UAE@XZ	; P2PObserver::~P2PObserver
$L204993:
  0000b	8b 4d f0	 mov	 ecx, DWORD PTR _this$[ebp]
  0000e	83 c1 0c	 add	 ecx, 12			; 0000000cH
  00011	e9 00 00 00 00	 jmp	 ??1ILayoutChangeObserver@@UAE@XZ
$L204994:
  00016	8b 4d f0	 mov	 ecx, DWORD PTR _this$[ebp]
  00019	83 c1 34	 add	 ecx, 52			; 00000034H
  0001c	ff 25 00 00 00
	00		 jmp	 DWORD PTR __imp_??1?$CStringT@DV?$StrTraitMFC_DLL@DV?$ChTraitsCRT@D@ATL@@@@@ATL@@QAE@XZ
$L204995:
  00022	8b 4d f0	 mov	 ecx, DWORD PTR _this$[ebp]
  00025	83 c1 38	 add	 ecx, 56			; 00000038H
  00028	e9 00 00 00 00	 jmp	 ??1?$vector@PAVIChangeSkinEventListener@@V?$allocator@PAVIChangeSkinEventListener@@@std@@@std@@QAE@XZ ; std::vector<IChangeSkinEventListener *,std::allocator<IChangeSkinEventListener *> >::~vector<IChangeSkinEventListener *,std::allocator<IChangeSkinEventListener *> >
$L204996:
  0002d	8b 4d f0	 mov	 ecx, DWORD PTR _this$[ebp]
  00030	83 c1 58	 add	 ecx, 88			; 00000058H
  00033	ff 25 00 00 00
	00		 jmp	 DWORD PTR __imp_??1?$CStringT@DV?$StrTraitMFC_DLL@DV?$ChTraitsCRT@D@ATL@@@@@ATL@@QAE@XZ
$L204997:
  00039	8b 4d f0	 mov	 ecx, DWORD PTR _this$[ebp]
  0003c	83 c1 5c	 add	 ecx, 92			; 0000005cH
  0003f	ff 25 00 00 00
	00		 jmp	 DWORD PTR __imp_??1?$CStringT@DV?$StrTraitMFC_DLL@DV?$ChTraitsCRT@D@ATL@@@@@ATL@@QAE@XZ
$L204998:
  00045	8b 4d f0	 mov	 ecx, DWORD PTR _this$[ebp]
  00048	83 c1 60	 add	 ecx, 96			; 00000060H
  0004b	ff 25 00 00 00
	00		 jmp	 DWORD PTR __imp_??1?$CStringT@DV?$StrTraitMFC_DLL@DV?$ChTraitsCRT@D@ATL@@@@@ATL@@QAE@XZ
__ehhandler$??0CSkinMgrV1@@QAE@XZ:
  00051	b8 00 00 00 00	 mov	 eax, OFFSET FLAT:$T205002
  00056	e9 00 00 00 00	 jmp	 ___CxxFrameHandler
text$x	ENDS
??0CSkinMgrV1@@QAE@XZ ENDP				; CSkinMgrV1::CSkinMgrV1
; Function compile flags: /Odt
; File d:\boxgit\playbox\playbox\dev\prj\playbox\src\layoutmgr\changecolor\ievent.h
;	COMDAT ?OnCliekButton@IEventListener@@UAEXPAVCButton@@@Z
_TEXT	SEGMENT
_this$ = -4						; size = 4
_pBotton$ = 8						; size = 4
?OnCliekButton@IEventListener@@UAEXPAVCButton@@@Z PROC NEAR ; IEventListener::OnCliekButton, COMDAT
; _this$ = ecx

; 7    : 	virtual void OnCliekButton(CButton* pBotton){};

  00000	55		 push	 ebp
  00001	8b ec		 mov	 ebp, esp
  00003	51		 push	 ecx
  00004	89 4d fc	 mov	 DWORD PTR _this$[ebp], ecx
  00007	8b e5		 mov	 esp, ebp
  00009	5d		 pop	 ebp
  0000a	c2 04 00	 ret	 4
?OnCliekButton@IEventListener@@UAEXPAVCButton@@@Z ENDP	; IEventListener::OnCliekButton
; Function compile flags: /Odt
_TEXT	ENDS
;	COMDAT ?OnCliekSlide@IEventListener@@UAEXPAVCSliderCtrl@@@Z
_TEXT	SEGMENT
_this$ = -4						; size = 4
_pBotton$ = 8						; size = 4
?OnCliekSlide@IEventListener@@UAEXPAVCSliderCtrl@@@Z PROC NEAR ; IEventListener::OnCliekSlide, COMDAT
; _this$ = ecx

; 8    : 	virtual void OnCliekSlide(CSliderCtrl* pBotton){};

  00000	55		 push	 ebp
  00001	8b ec		 mov	 ebp, esp
  00003	51		 push	 ecx
  00004	89 4d fc	 mov	 DWORD PTR _this$[ebp], ecx
  00007	8b e5		 mov	 esp, ebp
  00009	5d		 pop	 ebp
  0000a	c2 04 00	 ret	 4
?OnCliekSlide@IEventListener@@UAEXPAVCSliderCtrl@@@Z ENDP ; IEventListener::OnCliekSlide
; Function compile flags: /Odt
; File d:\boxgit\playbox\playbox\dev\prj\playbox\src\layoutmgr\changecolor\mainskinwnd.h
_TEXT	ENDS
;	COMDAT ?OnChangeSkinTemplate@IWndEventListener@@UAE_NV?$CStringT@DV?$StrTraitMFC_DLL@DV?$ChTraitsCRT@D@ATL@@@@@ATL@@@Z
_TEXT	SEGMENT
_this$ = -8						; size = 4
$T205012 = -1						; size = 1
_strPath$ = 8						; size = 4
?OnChangeSkinTemplate@IWndEventListener@@UAE_NV?$CStringT@DV?$StrTraitMFC_DLL@DV?$ChTraitsCRT@D@ATL@@@@@ATL@@@Z PROC NEAR ; IWndEventListener::OnChangeSkinTemplate, COMDAT
; _this$ = ecx

; 12   : 	virtual bool OnChangeSkinTemplate(CString strPath){return false;};

  00000	55		 push	 ebp
  00001	8b ec		 mov	 ebp, esp
  00003	83 ec 08	 sub	 esp, 8
  00006	89 4d f8	 mov	 DWORD PTR _this$[ebp], ecx
  00009	c6 45 ff 00	 mov	 BYTE PTR $T205012[ebp], 0
  0000d	8d 4d 08	 lea	 ecx, DWORD PTR _strPath$[ebp]
  00010	ff 15 00 00 00
	00		 call	 DWORD PTR __imp_??1?$CStringT@DV?$StrTraitMFC_DLL@DV?$ChTraitsCRT@D@ATL@@@@@ATL@@QAE@XZ
  00016	8a 45 ff	 mov	 al, BYTE PTR $T205012[ebp]
  00019	8b e5		 mov	 esp, ebp
  0001b	5d		 pop	 ebp
  0001c	c2 04 00	 ret	 4
?OnChangeSkinTemplate@IWndEventListener@@UAE_NV?$CStringT@DV?$StrTraitMFC_DLL@DV?$ChTraitsCRT@D@ATL@@@@@ATL@@@Z ENDP ; IWndEventListener::OnChangeSkinTemplate
; Function compile flags: /Odt
_TEXT	ENDS
;	COMDAT ?OnchangeColor@IWndEventListener@@UAEXKI@Z
_TEXT	SEGMENT
_this$ = -4						; size = 4
_acolCol$ = 8						; size = 4
_anLightValue$ = 12					; size = 4
?OnchangeColor@IWndEventListener@@UAEXKI@Z PROC NEAR	; IWndEventListener::OnchangeColor, COMDAT
; _this$ = ecx

; 13   : 	virtual void OnchangeColor(COLORREF acolCol, UINT anLightValue){};

  00000	55		 push	 ebp
  00001	8b ec		 mov	 ebp, esp
  00003	51		 push	 ecx
  00004	89 4d fc	 mov	 DWORD PTR _this$[ebp], ecx
  00007	8b e5		 mov	 esp, ebp
  00009	5d		 pop	 ebp
  0000a	c2 08 00	 ret	 8
?OnchangeColor@IWndEventListener@@UAEXKI@Z ENDP		; IWndEventListener::OnchangeColor
_TEXT	ENDS
PUBLIC	??_7P2PObserver@@6B@				; P2PObserver::`vftable'
PUBLIC	??_GP2PObserver@@UAEPAXI@Z			; P2PObserver::`scalar deleting destructor'
PUBLIC	??_R4P2PObserver@@6B@				; P2PObserver::`RTTI Complete Object Locator'
PUBLIC	??_R3P2PObserver@@8				; P2PObserver::`RTTI Class Hierarchy Descriptor'
PUBLIC	??_R2P2PObserver@@8				; P2PObserver::`RTTI Base Class Array'
PUBLIC	??_R1A@?0A@A@P2PObserver@@8			; P2PObserver::`RTTI Base Class Descriptor at (0,-1,0,0)'
EXTRN	??_EP2PObserver@@UAEPAXI@Z:NEAR			; P2PObserver::`vector deleting destructor'
;	COMDAT ??_7P2PObserver@@6B@
; File d:\boxgit\playbox\commonlib\include\yl_p2pint.h
CONST	SEGMENT
??_7P2PObserver@@6B@ DD FLAT:??_R4P2PObserver@@6B@	; P2PObserver::`vftable'
	DD	FLAT:??_EP2PObserver@@UAEPAXI@Z
	DD	FLAT:?P2POb_DownStart@P2PObserver@@UAEXABV?$basic_string@DU?$char_traits@D@std@@V?$allocator@D@2@@std@@PBDI@Z
	DD	FLAT:?P2POb_DownFinish@P2PObserver@@UAEXABV?$basic_string@DU?$char_traits@D@std@@V?$allocator@D@2@@std@@@Z
	DD	FLAT:?P2POb_DownFailed@P2PObserver@@UAEXABV?$basic_string@DU?$char_traits@D@std@@V?$allocator@D@2@@std@@W4P2P_DOWN_FAILED_REASON@@@Z
	DD	FLAT:?P2POb_DownProgress@P2PObserver@@UAEXABV?$basic_string@DU?$char_traits@D@std@@V?$allocator@D@2@@std@@III@Z
	DD	FLAT:?P2POb_DownPause@P2PObserver@@UAEXABV?$basic_string@DU?$char_traits@D@std@@V?$allocator@D@2@@std@@@Z
	DD	FLAT:?P2POb_SigChange@P2PObserver@@UAEXABV?$basic_string@DU?$char_traits@D@std@@V?$allocator@D@2@@std@@0PBD@Z
CONST	ENDS
;	COMDAT ??_R4P2PObserver@@6B@
rdata$r	SEGMENT
??_R4P2PObserver@@6B@ DD 00H				; P2PObserver::`RTTI Complete Object Locator'
	DD	00H
	DD	00H
	DD	FLAT:??_R0?AVP2PObserver@@@8
	DD	FLAT:??_R3P2PObserver@@8
rdata$r	ENDS
;	COMDAT ??_R3P2PObserver@@8
rdata$r	SEGMENT
??_R3P2PObserver@@8 DD 00H				; P2PObserver::`RTTI Class Hierarchy Descriptor'
	DD	00H
	DD	01H
	DD	FLAT:??_R2P2PObserver@@8
rdata$r	ENDS
;	COMDAT ??_R2P2PObserver@@8
rdata$r	SEGMENT
??_R2P2PObserver@@8 DD FLAT:??_R1A@?0A@A@P2PObserver@@8	; P2PObserver::`RTTI Base Class Array'
rdata$r	ENDS
;	COMDAT ??_R1A@?0A@A@P2PObserver@@8
rdata$r	SEGMENT
??_R1A@?0A@A@P2PObserver@@8 DD FLAT:??_R0?AVP2PObserver@@@8 ; P2PObserver::`RTTI Base Class Descriptor at (0,-1,0,0)'
	DD	00H
	DD	00H
	DD	0ffffffffH
	DD	00H
	DD	00H
; Function compile flags: /Odt
rdata$r	ENDS
;	COMDAT ??1P2PObserver@@UAE@XZ
_TEXT	SEGMENT
_this$ = -4						; size = 4
??1P2PObserver@@UAE@XZ PROC NEAR			; P2PObserver::~P2PObserver, COMDAT
; _this$ = ecx

; 14   : 	virtual ~P2PObserver(){};

  00000	55		 push	 ebp
  00001	8b ec		 mov	 ebp, esp
  00003	51		 push	 ecx
  00004	89 4d fc	 mov	 DWORD PTR _this$[ebp], ecx
  00007	8b 45 fc	 mov	 eax, DWORD PTR _this$[ebp]
  0000a	c7 00 00 00 00
	00		 mov	 DWORD PTR [eax], OFFSET FLAT:??_7P2PObserver@@6B@
  00010	8b e5		 mov	 esp, ebp
  00012	5d		 pop	 ebp
  00013	c3		 ret	 0
??1P2PObserver@@UAE@XZ ENDP				; P2PObserver::~P2PObserver
; Function compile flags: /Odt
_TEXT	ENDS
;	COMDAT ?P2POb_DownStart@P2PObserver@@UAEXABV?$basic_string@DU?$char_traits@D@std@@V?$allocator@D@2@@std@@PBDI@Z
_TEXT	SEGMENT
_this$ = -4						; size = 4
_strID$ = 8						; size = 4
_lpszFilePath$ = 12					; size = 4
_unFileSize$ = 16					; size = 4
?P2POb_DownStart@P2PObserver@@UAEXABV?$basic_string@DU?$char_traits@D@std@@V?$allocator@D@2@@std@@PBDI@Z PROC NEAR ; P2PObserver::P2POb_DownStart, COMDAT
; _this$ = ecx

; 19   : 	virtual void P2POb_DownStart(const string& strID, const char* lpszFilePath, unsigned int unFileSize){};

  00000	55		 push	 ebp
  00001	8b ec		 mov	 ebp, esp
  00003	51		 push	 ecx
  00004	89 4d fc	 mov	 DWORD PTR _this$[ebp], ecx
  00007	8b e5		 mov	 esp, ebp
  00009	5d		 pop	 ebp
  0000a	c2 0c 00	 ret	 12			; 0000000cH
?P2POb_DownStart@P2PObserver@@UAEXABV?$basic_string@DU?$char_traits@D@std@@V?$allocator@D@2@@std@@PBDI@Z ENDP ; P2PObserver::P2POb_DownStart
; Function compile flags: /Odt
_TEXT	ENDS
;	COMDAT ?P2POb_DownFinish@P2PObserver@@UAEXABV?$basic_string@DU?$char_traits@D@std@@V?$allocator@D@2@@std@@@Z
_TEXT	SEGMENT
_this$ = -4						; size = 4
_strID$ = 8						; size = 4
?P2POb_DownFinish@P2PObserver@@UAEXABV?$basic_string@DU?$char_traits@D@std@@V?$allocator@D@2@@std@@@Z PROC NEAR ; P2PObserver::P2POb_DownFinish, COMDAT
; _this$ = ecx

; 22   : 	virtual void P2POb_DownFinish(const string& strID){};

  00000	55		 push	 ebp
  00001	8b ec		 mov	 ebp, esp
  00003	51		 push	 ecx
  00004	89 4d fc	 mov	 DWORD PTR _this$[ebp], ecx
  00007	8b e5		 mov	 esp, ebp
  00009	5d		 pop	 ebp
  0000a	c2 04 00	 ret	 4
?P2POb_DownFinish@P2PObserver@@UAEXABV?$basic_string@DU?$char_traits@D@std@@V?$allocator@D@2@@std@@@Z ENDP ; P2PObserver::P2POb_DownFinish
; Function compile flags: /Odt
_TEXT	ENDS
;	COMDAT ?P2POb_DownFailed@P2PObserver@@UAEXABV?$basic_string@DU?$char_traits@D@std@@V?$allocator@D@2@@std@@W4P2P_DOWN_FAILED_REASON@@@Z
_TEXT	SEGMENT
_this$ = -4						; size = 4
_strID$ = 8						; size = 4
_pdfr$ = 12						; size = 4
?P2POb_DownFailed@P2PObserver@@UAEXABV?$basic_string@DU?$char_traits@D@std@@V?$allocator@D@2@@std@@W4P2P_DOWN_FAILED_REASON@@@Z PROC NEAR ; P2PObserver::P2POb_DownFailed, COMDAT
; _this$ = ecx

; 25   : 	virtual void P2POb_DownFailed(const string& strID, P2P_DOWN_FAILED_REASON pdfr){};

  00000	55		 push	 ebp
  00001	8b ec		 mov	 ebp, esp
  00003	51		 push	 ecx
  00004	89 4d fc	 mov	 DWORD PTR _this$[ebp], ecx
  00007	8b e5		 mov	 esp, ebp
  00009	5d		 pop	 ebp
  0000a	c2 08 00	 ret	 8
?P2POb_DownFailed@P2PObserver@@UAEXABV?$basic_string@DU?$char_traits@D@std@@V?$allocator@D@2@@std@@W4P2P_DOWN_FAILED_REASON@@@Z ENDP ; P2PObserver::P2POb_DownFailed
; Function compile flags: /Odt
_TEXT	ENDS
;	COMDAT ?P2POb_DownProgress@P2PObserver@@UAEXABV?$basic_string@DU?$char_traits@D@std@@V?$allocator@D@2@@std@@III@Z
_TEXT	SEGMENT
_this$ = -4						; size = 4
_strID$ = 8						; size = 4
_unContinue$ = 12					; size = 4
_unFinished$ = 16					; size = 4
_unSpeed$ = 20						; size = 4
?P2POb_DownProgress@P2PObserver@@UAEXABV?$basic_string@DU?$char_traits@D@std@@V?$allocator@D@2@@std@@III@Z PROC NEAR ; P2PObserver::P2POb_DownProgress, COMDAT
; _this$ = ecx

; 28   : 	virtual void P2POb_DownProgress(const string& strID, unsigned int unContinue, unsigned int unFinished, unsigned int unSpeed){};

  00000	55		 push	 ebp
  00001	8b ec		 mov	 ebp, esp
  00003	51		 push	 ecx
  00004	89 4d fc	 mov	 DWORD PTR _this$[ebp], ecx
  00007	8b e5		 mov	 esp, ebp
  00009	5d		 pop	 ebp
  0000a	c2 10 00	 ret	 16			; 00000010H
?P2POb_DownProgress@P2PObserver@@UAEXABV?$basic_string@DU?$char_traits@D@std@@V?$allocator@D@2@@std@@III@Z ENDP ; P2PObserver::P2POb_DownProgress
; Function compile flags: /Odt
_TEXT	ENDS
;	COMDAT ?P2POb_DownPause@P2PObserver@@UAEXABV?$basic_string@DU?$char_traits@D@std@@V?$allocator@D@2@@std@@@Z
_TEXT	SEGMENT
_this$ = -4						; size = 4
_strID$ = 8						; size = 4
?P2POb_DownPause@P2PObserver@@UAEXABV?$basic_string@DU?$char_traits@D@std@@V?$allocator@D@2@@std@@@Z PROC NEAR ; P2PObserver::P2POb_DownPause, COMDAT
; _this$ = ecx

; 31   : 	virtual void P2POb_DownPause(const string& strID){};

  00000	55		 push	 ebp
  00001	8b ec		 mov	 ebp, esp
  00003	51		 push	 ecx
  00004	89 4d fc	 mov	 DWORD PTR _this$[ebp], ecx
  00007	8b e5		 mov	 esp, ebp
  00009	5d		 pop	 ebp
  0000a	c2 04 00	 ret	 4
?P2POb_DownPause@P2PObserver@@UAEXABV?$basic_string@DU?$char_traits@D@std@@V?$allocator@D@2@@std@@@Z ENDP ; P2PObserver::P2POb_DownPause
; Function compile flags: /Odt
_TEXT	ENDS
;	COMDAT ?P2POb_SigChange@P2PObserver@@UAEXABV?$basic_string@DU?$char_traits@D@std@@V?$allocator@D@2@@std@@0PBD@Z
_TEXT	SEGMENT
_this$ = -4						; size = 4
_strID$ = 8						; size = 4
_strIDNew$ = 12						; size = 4
_szRid$ = 16						; size = 4
?P2POb_SigChange@P2PObserver@@UAEXABV?$basic_string@DU?$char_traits@D@std@@V?$allocator@D@2@@std@@0PBD@Z PROC NEAR ; P2PObserver::P2POb_SigChange, COMDAT
; _this$ = ecx

; 34   : 	virtual void P2POb_SigChange(const string& strID, const string& strIDNew, const char* szRid){};

  00000	55		 push	 ebp
  00001	8b ec		 mov	 ebp, esp
  00003	51		 push	 ecx
  00004	89 4d fc	 mov	 DWORD PTR _this$[ebp], ecx
  00007	8b e5		 mov	 esp, ebp
  00009	5d		 pop	 ebp
  0000a	c2 0c 00	 ret	 12			; 0000000cH
?P2POb_SigChange@P2PObserver@@UAEXABV?$basic_string@DU?$char_traits@D@std@@V?$allocator@D@2@@std@@0PBD@Z ENDP ; P2PObserver::P2POb_SigChange
_TEXT	ENDS
EXTRN	??3@YAXPAX@Z:NEAR				; operator delete
; Function compile flags: /Odt
;	COMDAT ??_GP2PObserver@@UAEPAXI@Z
_TEXT	SEGMENT
_this$ = -4						; size = 4
___flags$ = 8						; size = 4
??_GP2PObserver@@UAEPAXI@Z PROC NEAR			; P2PObserver::`scalar deleting destructor', COMDAT
; _this$ = ecx
  00000	55		 push	 ebp
  00001	8b ec		 mov	 ebp, esp
  00003	51		 push	 ecx
  00004	89 4d fc	 mov	 DWORD PTR _this$[ebp], ecx
  00007	8b 4d fc	 mov	 ecx, DWORD PTR _this$[ebp]
  0000a	e8 00 00 00 00	 call	 ??1P2PObserver@@UAE@XZ	; P2PObserver::~P2PObserver
  0000f	8b 45 08	 mov	 eax, DWORD PTR ___flags$[ebp]
  00012	83 e0 01	 and	 eax, 1
  00015	74 0c		 je	 SHORT $L201084
  00017	8b 4d fc	 mov	 ecx, DWORD PTR _this$[ebp]
  0001a	51		 push	 ecx
  0001b	e8 00 00 00 00	 call	 ??3@YAXPAX@Z		; operator delete
  00020	83 c4 04	 add	 esp, 4
$L201084:
  00023	8b 45 fc	 mov	 eax, DWORD PTR _this$[ebp]
  00026	8b e5		 mov	 esp, ebp
  00028	5d		 pop	 ebp
  00029	c2 04 00	 ret	 4
??_GP2PObserver@@UAEPAXI@Z ENDP				; P2PObserver::`scalar deleting destructor'
_TEXT	ENDS
EXTRN	__imp_??1?$basic_string@DU?$char_traits@D@std@@V?$allocator@D@2@@std@@QAE@XZ:NEAR
;	COMDAT xdata$x
; File d:\boxgit\playbox\playbox\dev\prj\playbox\src\datainterface\ilayoutchangeobserver.h
xdata$x	SEGMENT
$T205040 DD	0ffffffffH
	DD	FLAT:$L205034
	DD	00H
	DD	FLAT:$L205035
$T205038 DD	019930520H
	DD	02H
	DD	FLAT:$T205040
	DD	2 DUP(00H)
	DD	2 DUP(00H)
; Function compile flags: /Odt
xdata$x	ENDS
;	COMDAT ?ILayoutChangeOb_LayerChanged@ILayoutChangeObserver@@UAEXV?$basic_string@DU?$char_traits@D@std@@V?$allocator@D@2@@std@@00@Z
_TEXT	SEGMENT
_this$ = -16						; size = 4
__$EHRec$ = -12						; size = 12
_paneName$ = 8						; size = 28
_oldLayerName$ = 36					; size = 28
_newLayerName$ = 64					; size = 28
?ILayoutChangeOb_LayerChanged@ILayoutChangeObserver@@UAEXV?$basic_string@DU?$char_traits@D@std@@V?$allocator@D@2@@std@@00@Z PROC NEAR ; ILayoutChangeObserver::ILayoutChangeOb_LayerChanged, COMDAT
; _this$ = ecx

; 9    : 	virtual void	ILayoutChangeOb_LayerChanged(string paneName, string oldLayerName, string newLayerName ){};

  00000	55		 push	 ebp
  00001	8b ec		 mov	 ebp, esp
  00003	6a ff		 push	 -1
  00005	68 00 00 00 00	 push	 __ehhandler$?ILayoutChangeOb_LayerChanged@ILayoutChangeObserver@@UAEXV?$basic_string@DU?$char_traits@D@std@@V?$allocator@D@2@@std@@00@Z
  0000a	64 a1 00 00 00
	00		 mov	 eax, DWORD PTR fs:__except_list
  00010	50		 push	 eax
  00011	64 89 25 00 00
	00 00		 mov	 DWORD PTR fs:__except_list, esp
  00018	51		 push	 ecx
  00019	89 4d f0	 mov	 DWORD PTR _this$[ebp], ecx
  0001c	c7 45 fc 01 00
	00 00		 mov	 DWORD PTR __$EHRec$[ebp+8], 1
  00023	8d 4d 08	 lea	 ecx, DWORD PTR _paneName$[ebp]
  00026	ff 15 00 00 00
	00		 call	 DWORD PTR __imp_??1?$basic_string@DU?$char_traits@D@std@@V?$allocator@D@2@@std@@QAE@XZ
  0002c	c6 45 fc 00	 mov	 BYTE PTR __$EHRec$[ebp+8], 0
  00030	8d 4d 24	 lea	 ecx, DWORD PTR _oldLayerName$[ebp]
  00033	ff 15 00 00 00
	00		 call	 DWORD PTR __imp_??1?$basic_string@DU?$char_traits@D@std@@V?$allocator@D@2@@std@@QAE@XZ
  00039	c7 45 fc ff ff
	ff ff		 mov	 DWORD PTR __$EHRec$[ebp+8], -1
  00040	8d 4d 40	 lea	 ecx, DWORD PTR _newLayerName$[ebp]
  00043	ff 15 00 00 00
	00		 call	 DWORD PTR __imp_??1?$basic_string@DU?$char_traits@D@std@@V?$allocator@D@2@@std@@QAE@XZ
  00049	8b 4d f4	 mov	 ecx, DWORD PTR __$EHRec$[ebp]
  0004c	64 89 0d 00 00
	00 00		 mov	 DWORD PTR fs:__except_list, ecx
  00053	8b e5		 mov	 esp, ebp
  00055	5d		 pop	 ebp
  00056	c2 54 00	 ret	 84			; 00000054H
_TEXT	ENDS
;	COMDAT text$x
text$x	SEGMENT
$L205034:
  00000	8d 4d 40	 lea	 ecx, DWORD PTR _newLayerName$[ebp]
  00003	ff 25 00 00 00
	00		 jmp	 DWORD PTR __imp_??1?$basic_string@DU?$char_traits@D@std@@V?$allocator@D@2@@std@@QAE@XZ
$L205035:
  00009	8d 4d 24	 lea	 ecx, DWORD PTR _oldLayerName$[ebp]
  0000c	ff 25 00 00 00
	00		 jmp	 DWORD PTR __imp_??1?$basic_string@DU?$char_traits@D@std@@V?$allocator@D@2@@std@@QAE@XZ
__ehhandler$?ILayoutChangeOb_LayerChanged@ILayoutChangeObserver@@UAEXV?$basic_string@DU?$char_traits@D@std@@V?$allocator@D@2@@std@@00@Z:
  00012	b8 00 00 00 00	 mov	 eax, OFFSET FLAT:$T205038
  00017	e9 00 00 00 00	 jmp	 ___CxxFrameHandler
text$x	ENDS
?ILayoutChangeOb_LayerChanged@ILayoutChangeObserver@@UAEXV?$basic_string@DU?$char_traits@D@std@@V?$allocator@D@2@@std@@00@Z ENDP ; ILayoutChangeObserver::ILayoutChangeOb_LayerChanged
;	COMDAT xdata$x
xdata$x	SEGMENT
$T205050 DD	0ffffffffH
	DD	FLAT:$L205045
$T205048 DD	019930520H
	DD	01H
	DD	FLAT:$T205050
	DD	2 DUP(00H)
	DD	2 DUP(00H)
; Function compile flags: /Odt
xdata$x	ENDS
;	COMDAT ?ILayoutChangeOb_PaneChanged@ILayoutChangeObserver@@UAEXV?$basic_string@DU?$char_traits@D@std@@V?$allocator@D@2@@std@@0@Z
_TEXT	SEGMENT
_this$ = -16						; size = 4
__$EHRec$ = -12						; size = 12
_oldPaneName$ = 8					; size = 28
_newPaneName$ = 36					; size = 28
?ILayoutChangeOb_PaneChanged@ILayoutChangeObserver@@UAEXV?$basic_string@DU?$char_traits@D@std@@V?$allocator@D@2@@std@@0@Z PROC NEAR ; ILayoutChangeObserver::ILayoutChangeOb_PaneChanged, COMDAT
; _this$ = ecx

; 10   : 	virtual void	ILayoutChangeOb_PaneChanged(string oldPaneName, string newPaneName){};

  00000	55		 push	 ebp
  00001	8b ec		 mov	 ebp, esp
  00003	6a ff		 push	 -1
  00005	68 00 00 00 00	 push	 __ehhandler$?ILayoutChangeOb_PaneChanged@ILayoutChangeObserver@@UAEXV?$basic_string@DU?$char_traits@D@std@@V?$allocator@D@2@@std@@0@Z
  0000a	64 a1 00 00 00
	00		 mov	 eax, DWORD PTR fs:__except_list
  00010	50		 push	 eax
  00011	64 89 25 00 00
	00 00		 mov	 DWORD PTR fs:__except_list, esp
  00018	51		 push	 ecx
  00019	89 4d f0	 mov	 DWORD PTR _this$[ebp], ecx
  0001c	c7 45 fc 00 00
	00 00		 mov	 DWORD PTR __$EHRec$[ebp+8], 0
  00023	8d 4d 08	 lea	 ecx, DWORD PTR _oldPaneName$[ebp]
  00026	ff 15 00 00 00
	00		 call	 DWORD PTR __imp_??1?$basic_string@DU?$char_traits@D@std@@V?$allocator@D@2@@std@@QAE@XZ
  0002c	c7 45 fc ff ff
	ff ff		 mov	 DWORD PTR __$EHRec$[ebp+8], -1
  00033	8d 4d 24	 lea	 ecx, DWORD PTR _newPaneName$[ebp]
  00036	ff 15 00 00 00
	00		 call	 DWORD PTR __imp_??1?$basic_string@DU?$char_traits@D@std@@V?$allocator@D@2@@std@@QAE@XZ
  0003c	8b 4d f4	 mov	 ecx, DWORD PTR __$EHRec$[ebp]
  0003f	64 89 0d 00 00
	00 00		 mov	 DWORD PTR fs:__except_list, ecx
  00046	8b e5		 mov	 esp, ebp
  00048	5d		 pop	 ebp
  00049	c2 38 00	 ret	 56			; 00000038H
_TEXT	ENDS
;	COMDAT text$x
text$x	SEGMENT
$L205045:
  00000	8d 4d 24	 lea	 ecx, DWORD PTR _newPaneName$[ebp]
  00003	ff 25 00 00 00
	00		 jmp	 DWORD PTR __imp_??1?$basic_string@DU?$char_traits@D@std@@V?$allocator@D@2@@std@@QAE@XZ
__ehhandler$?ILayoutChangeOb_PaneChanged@ILayoutChangeObserver@@UAEXV?$basic_string@DU?$char_traits@D@std@@V?$allocator@D@2@@std@@0@Z:
  00009	b8 00 00 00 00	 mov	 eax, OFFSET FLAT:$T205048
  0000e	e9 00 00 00 00	 jmp	 ___CxxFrameHandler
text$x	ENDS
?ILayoutChangeOb_PaneChanged@ILayoutChangeObserver@@UAEXV?$basic_string@DU?$char_traits@D@std@@V?$allocator@D@2@@std@@0@Z ENDP ; ILayoutChangeObserver::ILayoutChangeOb_PaneChanged
; Function compile flags: /Odt
;	COMDAT ?ILayoutChangeOb_ColorChanged@ILayoutChangeObserver@@UAEXXZ
_TEXT	SEGMENT
_this$ = -4						; size = 4
?ILayoutChangeOb_ColorChanged@ILayoutChangeObserver@@UAEXXZ PROC NEAR ; ILayoutChangeObserver::ILayoutChangeOb_ColorChanged, COMDAT
; _this$ = ecx

; 12   : 	virtual void	ILayoutChangeOb_ColorChanged(){};

  00000	55		 push	 ebp
  00001	8b ec		 mov	 ebp, esp
  00003	51		 push	 ecx
  00004	89 4d fc	 mov	 DWORD PTR _this$[ebp], ecx
  00007	8b e5		 mov	 esp, ebp
  00009	5d		 pop	 ebp
  0000a	c3		 ret	 0
?ILayoutChangeOb_ColorChanged@ILayoutChangeObserver@@UAEXXZ ENDP ; ILayoutChangeObserver::ILayoutChangeOb_ColorChanged
; Function compile flags: /Odt
_TEXT	ENDS
;	COMDAT ?ILayoutChangeOb_ColorChanging@ILayoutChangeObserver@@UAEXXZ
_TEXT	SEGMENT
_this$ = -4						; size = 4
?ILayoutChangeOb_ColorChanging@ILayoutChangeObserver@@UAEXXZ PROC NEAR ; ILayoutChangeObserver::ILayoutChangeOb_ColorChanging, COMDAT
; _this$ = ecx

; 13   : 	virtual void	ILayoutChangeOb_ColorChanging(){};

  00000	55		 push	 ebp
  00001	8b ec		 mov	 ebp, esp
  00003	51		 push	 ecx
  00004	89 4d fc	 mov	 DWORD PTR _this$[ebp], ecx
  00007	8b e5		 mov	 esp, ebp
  00009	5d		 pop	 ebp
  0000a	c3		 ret	 0
?ILayoutChangeOb_ColorChanging@ILayoutChangeObserver@@UAEXXZ ENDP ; ILayoutChangeObserver::ILayoutChangeOb_ColorChanging
; Function compile flags: /Odt
_TEXT	ENDS
;	COMDAT ?ILayoutChangeOb_UpdateLayout@ILayoutChangeObserver@@UAEXPAUHWND__@@@Z
_TEXT	SEGMENT
_this$ = -4						; size = 4
_m_hWnd$ = 8						; size = 4
?ILayoutChangeOb_UpdateLayout@ILayoutChangeObserver@@UAEXPAUHWND__@@@Z PROC NEAR ; ILayoutChangeObserver::ILayoutChangeOb_UpdateLayout, COMDAT
; _this$ = ecx

; 14   : 	virtual void	ILayoutChangeOb_UpdateLayout(HWND m_hWnd){};

  00000	55		 push	 ebp
  00001	8b ec		 mov	 ebp, esp
  00003	51		 push	 ecx
  00004	89 4d fc	 mov	 DWORD PTR _this$[ebp], ecx
  00007	8b e5		 mov	 esp, ebp
  00009	5d		 pop	 ebp
  0000a	c2 04 00	 ret	 4
?ILayoutChangeOb_UpdateLayout@ILayoutChangeObserver@@UAEXPAUHWND__@@@Z ENDP ; ILayoutChangeObserver::ILayoutChangeOb_UpdateLayout
; Function compile flags: /Odt
_TEXT	ENDS
;	COMDAT ?ILayoutChangeOb_InitFinished@ILayoutChangeObserver@@UAEXXZ
_TEXT	SEGMENT
_this$ = -4						; size = 4
?ILayoutChangeOb_InitFinished@ILayoutChangeObserver@@UAEXXZ PROC NEAR ; ILayoutChangeObserver::ILayoutChangeOb_InitFinished, COMDAT
; _this$ = ecx

; 15   : 	virtual void	ILayoutChangeOb_InitFinished(){};

  00000	55		 push	 ebp
  00001	8b ec		 mov	 ebp, esp
  00003	51		 push	 ecx
  00004	89 4d fc	 mov	 DWORD PTR _this$[ebp], ecx
  00007	8b e5		 mov	 esp, ebp
  00009	5d		 pop	 ebp
  0000a	c3		 ret	 0
?ILayoutChangeOb_InitFinished@ILayoutChangeObserver@@UAEXXZ ENDP ; ILayoutChangeObserver::ILayoutChangeOb_InitFinished
; Function compile flags: /Odt
_TEXT	ENDS
;	COMDAT ?ILayoutChangeOb_InitBegin@ILayoutChangeObserver@@UAEXXZ
_TEXT	SEGMENT
_this$ = -4						; size = 4
?ILayoutChangeOb_InitBegin@ILayoutChangeObserver@@UAEXXZ PROC NEAR ; ILayoutChangeObserver::ILayoutChangeOb_InitBegin, COMDAT
; _this$ = ecx

; 16   : 	virtual void	ILayoutChangeOb_InitBegin(){};

  00000	55		 push	 ebp
  00001	8b ec		 mov	 ebp, esp
  00003	51		 push	 ecx
  00004	89 4d fc	 mov	 DWORD PTR _this$[ebp], ecx
  00007	8b e5		 mov	 esp, ebp
  00009	5d		 pop	 ebp
  0000a	c3		 ret	 0
?ILayoutChangeOb_InitBegin@ILayoutChangeObserver@@UAEXXZ ENDP ; ILayoutChangeObserver::ILayoutChangeOb_InitBegin
; Function compile flags: /Odt
; File d:\boxgit\playbox\playbox\dev\prj\playbox\src\layoutmgr\changecolor\ichangecolormgr.h
_TEXT	ENDS
;	COMDAT ?GetSkinWnd@CSkinMgrV1@@UAEPAVCWnd@@XZ
_TEXT	SEGMENT
_this$ = -4						; size = 4
?GetSkinWnd@CSkinMgrV1@@UAEPAVCWnd@@XZ PROC NEAR	; CSkinMgrV1::GetSkinWnd, COMDAT
; _this$ = ecx

; 95   : 	virtual CWnd*	GetSkinWnd(){return mp_mainSkinWnd;};

  00000	55		 push	 ebp
  00001	8b ec		 mov	 ebp, esp
  00003	51		 push	 ecx
  00004	89 4d fc	 mov	 DWORD PTR _this$[ebp], ecx
  00007	8b 45 fc	 mov	 eax, DWORD PTR _this$[ebp]
  0000a	8b 40 10	 mov	 eax, DWORD PTR [eax+16]
  0000d	8b e5		 mov	 esp, ebp
  0000f	5d		 pop	 ebp
  00010	c3		 ret	 0
?GetSkinWnd@CSkinMgrV1@@UAEPAVCWnd@@XZ ENDP		; CSkinMgrV1::GetSkinWnd
_TEXT	ENDS
PUBLIC	?OnSendChangeColor@IEventListener@@UAEXKI_N@Z	; IEventListener::OnSendChangeColor
PUBLIC	?OnSendChangeSkin@IEventListener@@UAEXV?$CStringT@DV?$StrTraitMFC_DLL@DV?$ChTraitsCRT@D@ATL@@@@@ATL@@@Z ; IEventListener::OnSendChangeSkin
PUBLIC	?OnSendChangeSubject@IEventListener@@UAEXV?$CStringT@DV?$StrTraitMFC_DLL@DV?$ChTraitsCRT@D@ATL@@@@@ATL@@0@Z ; IEventListener::OnSendChangeSubject
PUBLIC	?OnChangeSkinAndSub@IEventListener@@UAEXABV?$CStringT@DV?$StrTraitMFC_DLL@DV?$ChTraitsCRT@D@ATL@@@@@ATL@@0@Z ; IEventListener::OnChangeSkinAndSub
PUBLIC	?OnStartDownSubject@IEventListener@@UAEXABV?$CStringT@DV?$StrTraitMFC_DLL@DV?$ChTraitsCRT@D@ATL@@@@@ATL@@@Z ; IEventListener::OnStartDownSubject
PUBLIC	?OnFinishDownSubject@IEventListener@@UAEXH@Z	; IEventListener::OnFinishDownSubject
PUBLIC	??0IEventListener@@QAE@XZ			; IEventListener::IEventListener
PUBLIC	??_R4IChangeColorMgr@@6BIWndEventListener@@@	; IChangeColorMgr::`RTTI Complete Object Locator'
PUBLIC	??_R3IChangeColorMgr@@8				; IChangeColorMgr::`RTTI Class Hierarchy Descriptor'
PUBLIC	??_R2IChangeColorMgr@@8				; IChangeColorMgr::`RTTI Base Class Array'
PUBLIC	??_R4IChangeColorMgr@@6BIEventListener@@@	; IChangeColorMgr::`RTTI Complete Object Locator'
PUBLIC	??0IWndEventListener@@QAE@XZ			; IWndEventListener::IWndEventListener
PUBLIC	??_7IChangeColorMgr@@6BIWndEventListener@@@	; IChangeColorMgr::`vftable'
PUBLIC	??_7IChangeColorMgr@@6BIEventListener@@@	; IChangeColorMgr::`vftable'
EXTRN	__purecall:NEAR
;	COMDAT ??_7IChangeColorMgr@@6BIWndEventListener@@@
CONST	SEGMENT
??_7IChangeColorMgr@@6BIWndEventListener@@@ DD FLAT:??_R4IChangeColorMgr@@6BIWndEventListener@@@ ; IChangeColorMgr::`vftable'
	DD	FLAT:?OnChangeSkinTemplate@IWndEventListener@@UAE_NV?$CStringT@DV?$StrTraitMFC_DLL@DV?$ChTraitsCRT@D@ATL@@@@@ATL@@@Z
	DD	FLAT:?OnchangeColor@IWndEventListener@@UAEXKI@Z
	DD	FLAT:__purecall
	DD	FLAT:__purecall
	DD	FLAT:__purecall
	DD	FLAT:__purecall
	DD	FLAT:__purecall
	DD	FLAT:__purecall
	DD	FLAT:__purecall
	DD	FLAT:__purecall
	DD	FLAT:__purecall
	DD	FLAT:__purecall
	DD	FLAT:__purecall
	DD	FLAT:__purecall
	DD	FLAT:__purecall
	DD	FLAT:__purecall
	DD	FLAT:__purecall
	DD	FLAT:__purecall
	DD	FLAT:__purecall
	DD	FLAT:__purecall
	DD	FLAT:__purecall
	DD	FLAT:__purecall
	DD	FLAT:__purecall
	DD	FLAT:__purecall
	DD	FLAT:__purecall
CONST	ENDS
;	COMDAT ??_7IChangeColorMgr@@6BIEventListener@@@
CONST	SEGMENT
??_7IChangeColorMgr@@6BIEventListener@@@ DD FLAT:??_R4IChangeColorMgr@@6BIEventListener@@@ ; IChangeColorMgr::`vftable'
	DD	FLAT:?OnCliekButton@IEventListener@@UAEXPAVCButton@@@Z
	DD	FLAT:?OnCliekSlide@IEventListener@@UAEXPAVCSliderCtrl@@@Z
	DD	FLAT:?OnSendChangeColor@IEventListener@@UAEXKI_N@Z
	DD	FLAT:?OnSendChangeSkin@IEventListener@@UAEXV?$CStringT@DV?$StrTraitMFC_DLL@DV?$ChTraitsCRT@D@ATL@@@@@ATL@@@Z
	DD	FLAT:?OnSendChangeSubject@IEventListener@@UAEXV?$CStringT@DV?$StrTraitMFC_DLL@DV?$ChTraitsCRT@D@ATL@@@@@ATL@@0@Z
	DD	FLAT:?OnChangeSkinAndSub@IEventListener@@UAEXABV?$CStringT@DV?$StrTraitMFC_DLL@DV?$ChTraitsCRT@D@ATL@@@@@ATL@@0@Z
	DD	FLAT:?OnStartDownSubject@IEventListener@@UAEXABV?$CStringT@DV?$StrTraitMFC_DLL@DV?$ChTraitsCRT@D@ATL@@@@@ATL@@@Z
	DD	FLAT:?OnFinishDownSubject@IEventListener@@UAEXH@Z
CONST	ENDS
;	COMDAT ??_R4IChangeColorMgr@@6BIWndEventListener@@@
rdata$r	SEGMENT
??_R4IChangeColorMgr@@6BIWndEventListener@@@ DD 00H	; IChangeColorMgr::`RTTI Complete Object Locator'
	DD	00H
	DD	00H
	DD	FLAT:??_R0?AVIChangeColorMgr@@@8
	DD	FLAT:??_R3IChangeColorMgr@@8
rdata$r	ENDS
;	COMDAT ??_R3IChangeColorMgr@@8
rdata$r	SEGMENT
??_R3IChangeColorMgr@@8 DD 00H				; IChangeColorMgr::`RTTI Class Hierarchy Descriptor'
	DD	01H
	DD	03H
	DD	FLAT:??_R2IChangeColorMgr@@8
rdata$r	ENDS
;	COMDAT ??_R2IChangeColorMgr@@8
rdata$r	SEGMENT
??_R2IChangeColorMgr@@8 DD FLAT:??_R1A@?0A@A@IChangeColorMgr@@8 ; IChangeColorMgr::`RTTI Base Class Array'
	DD	FLAT:??_R1A@?0A@A@IWndEventListener@@8
	DD	FLAT:??_R13?0A@A@IEventListener@@8
rdata$r	ENDS
;	COMDAT ??_R4IChangeColorMgr@@6BIEventListener@@@
rdata$r	SEGMENT
??_R4IChangeColorMgr@@6BIEventListener@@@ DD 00H	; IChangeColorMgr::`RTTI Complete Object Locator'
	DD	04H
	DD	00H
	DD	FLAT:??_R0?AVIChangeColorMgr@@@8
	DD	FLAT:??_R3IChangeColorMgr@@8
; Function compile flags: /Odt
rdata$r	ENDS
;	COMDAT ??0IChangeColorMgr@@QAE@XZ
_TEXT	SEGMENT
_this$ = -4						; size = 4
??0IChangeColorMgr@@QAE@XZ PROC NEAR			; IChangeColorMgr::IChangeColorMgr, COMDAT
; _this$ = ecx
  00000	55		 push	 ebp
  00001	8b ec		 mov	 ebp, esp
  00003	51		 push	 ecx
  00004	89 4d fc	 mov	 DWORD PTR _this$[ebp], ecx
  00007	8b 4d fc	 mov	 ecx, DWORD PTR _this$[ebp]
  0000a	e8 00 00 00 00	 call	 ??0IWndEventListener@@QAE@XZ
  0000f	8b 4d fc	 mov	 ecx, DWORD PTR _this$[ebp]
  00012	83 c1 04	 add	 ecx, 4
  00015	e8 00 00 00 00	 call	 ??0IEventListener@@QAE@XZ
  0001a	8b 45 fc	 mov	 eax, DWORD PTR _this$[ebp]
  0001d	c7 00 00 00 00
	00		 mov	 DWORD PTR [eax], OFFSET FLAT:??_7IChangeColorMgr@@6BIWndEventListener@@@
  00023	8b 4d fc	 mov	 ecx, DWORD PTR _this$[ebp]
  00026	c7 41 04 00 00
	00 00		 mov	 DWORD PTR [ecx+4], OFFSET FLAT:??_7IChangeColorMgr@@6BIEventListener@@@
  0002d	8b 45 fc	 mov	 eax, DWORD PTR _this$[ebp]
  00030	8b e5		 mov	 esp, ebp
  00032	5d		 pop	 ebp
  00033	c3		 ret	 0
??0IChangeColorMgr@@QAE@XZ ENDP				; IChangeColorMgr::IChangeColorMgr
; Function compile flags: /Odt
; File d:\boxgit\playbox\playbox\dev\prj\playbox\src\layoutmgr\changecolor\ievent.h
_TEXT	ENDS
;	COMDAT ?OnSendChangeColor@IEventListener@@UAEXKI_N@Z
_TEXT	SEGMENT
_this$ = -4						; size = 4
_acolCol$ = 8						; size = 4
_anLightValue$ = 12					; size = 4
_bChangeTop$ = 16					; size = 1
?OnSendChangeColor@IEventListener@@UAEXKI_N@Z PROC NEAR	; IEventListener::OnSendChangeColor, COMDAT
; _this$ = ecx

; 9    : 	virtual void OnSendChangeColor( COLORREF acolCol, UINT anLightValue,bool bChangeTop = true ){};

  00000	55		 push	 ebp
  00001	8b ec		 mov	 ebp, esp
  00003	51		 push	 ecx
  00004	89 4d fc	 mov	 DWORD PTR _this$[ebp], ecx
  00007	8b e5		 mov	 esp, ebp
  00009	5d		 pop	 ebp
  0000a	c2 0c 00	 ret	 12			; 0000000cH
?OnSendChangeColor@IEventListener@@UAEXKI_N@Z ENDP	; IEventListener::OnSendChangeColor
; Function compile flags: /Odt
_TEXT	ENDS
;	COMDAT ?OnSendChangeSkin@IEventListener@@UAEXV?$CStringT@DV?$StrTraitMFC_DLL@DV?$ChTraitsCRT@D@ATL@@@@@ATL@@@Z
_TEXT	SEGMENT
_this$ = -4						; size = 4
_strPath$ = 8						; size = 4
?OnSendChangeSkin@IEventListener@@UAEXV?$CStringT@DV?$StrTraitMFC_DLL@DV?$ChTraitsCRT@D@ATL@@@@@ATL@@@Z PROC NEAR ; IEventListener::OnSendChangeSkin, COMDAT
; _this$ = ecx

; 10   : 	virtual void OnSendChangeSkin ( CString strPath){};	

  00000	55		 push	 ebp
  00001	8b ec		 mov	 ebp, esp
  00003	51		 push	 ecx
  00004	89 4d fc	 mov	 DWORD PTR _this$[ebp], ecx
  00007	8d 4d 08	 lea	 ecx, DWORD PTR _strPath$[ebp]
  0000a	ff 15 00 00 00
	00		 call	 DWORD PTR __imp_??1?$CStringT@DV?$StrTraitMFC_DLL@DV?$ChTraitsCRT@D@ATL@@@@@ATL@@QAE@XZ
  00010	8b e5		 mov	 esp, ebp
  00012	5d		 pop	 ebp
  00013	c2 04 00	 ret	 4
?OnSendChangeSkin@IEventListener@@UAEXV?$CStringT@DV?$StrTraitMFC_DLL@DV?$ChTraitsCRT@D@ATL@@@@@ATL@@@Z ENDP ; IEventListener::OnSendChangeSkin
; Function compile flags: /Odt
_TEXT	ENDS
;	COMDAT ?OnSendChangeSubject@IEventListener@@UAEXV?$CStringT@DV?$StrTraitMFC_DLL@DV?$ChTraitsCRT@D@ATL@@@@@ATL@@0@Z
_TEXT	SEGMENT
_this$ = -4						; size = 4
___formal$ = 8						; size = 4
_subjectName$ = 12					; size = 4
?OnSendChangeSubject@IEventListener@@UAEXV?$CStringT@DV?$StrTraitMFC_DLL@DV?$ChTraitsCRT@D@ATL@@@@@ATL@@0@Z PROC NEAR ; IEventListener::OnSendChangeSubject, COMDAT
; _this$ = ecx

; 11   : 	virtual void OnSendChangeSubject(CString,CString subjectName){};

  00000	55		 push	 ebp
  00001	8b ec		 mov	 ebp, esp
  00003	51		 push	 ecx
  00004	89 4d fc	 mov	 DWORD PTR _this$[ebp], ecx
  00007	8d 4d 08	 lea	 ecx, DWORD PTR ___formal$[ebp]
  0000a	ff 15 00 00 00
	00		 call	 DWORD PTR __imp_??1?$CStringT@DV?$StrTraitMFC_DLL@DV?$ChTraitsCRT@D@ATL@@@@@ATL@@QAE@XZ
  00010	8d 4d 0c	 lea	 ecx, DWORD PTR _subjectName$[ebp]
  00013	ff 15 00 00 00
	00		 call	 DWORD PTR __imp_??1?$CStringT@DV?$StrTraitMFC_DLL@DV?$ChTraitsCRT@D@ATL@@@@@ATL@@QAE@XZ
  00019	8b e5		 mov	 esp, ebp
  0001b	5d		 pop	 ebp
  0001c	c2 08 00	 ret	 8
?OnSendChangeSubject@IEventListener@@UAEXV?$CStringT@DV?$StrTraitMFC_DLL@DV?$ChTraitsCRT@D@ATL@@@@@ATL@@0@Z ENDP ; IEventListener::OnSendChangeSubject
; Function compile flags: /Odt
_TEXT	ENDS
;	COMDAT ?OnChangeSkinAndSub@IEventListener@@UAEXABV?$CStringT@DV?$StrTraitMFC_DLL@DV?$ChTraitsCRT@D@ATL@@@@@ATL@@0@Z
_TEXT	SEGMENT
_this$ = -4						; size = 4
_strPath$ = 8						; size = 4
_strSub$ = 12						; size = 4
?OnChangeSkinAndSub@IEventListener@@UAEXABV?$CStringT@DV?$StrTraitMFC_DLL@DV?$ChTraitsCRT@D@ATL@@@@@ATL@@0@Z PROC NEAR ; IEventListener::OnChangeSkinAndSub, COMDAT
; _this$ = ecx

; 12   : 	virtual void OnChangeSkinAndSub(const CString& strPath,const CString& strSub){};

  00000	55		 push	 ebp
  00001	8b ec		 mov	 ebp, esp
  00003	51		 push	 ecx
  00004	89 4d fc	 mov	 DWORD PTR _this$[ebp], ecx
  00007	8b e5		 mov	 esp, ebp
  00009	5d		 pop	 ebp
  0000a	c2 08 00	 ret	 8
?OnChangeSkinAndSub@IEventListener@@UAEXABV?$CStringT@DV?$StrTraitMFC_DLL@DV?$ChTraitsCRT@D@ATL@@@@@ATL@@0@Z ENDP ; IEventListener::OnChangeSkinAndSub
; Function compile flags: /Odt
_TEXT	ENDS
;	COMDAT ?OnStartDownSubject@IEventListener@@UAEXABV?$CStringT@DV?$StrTraitMFC_DLL@DV?$ChTraitsCRT@D@ATL@@@@@ATL@@@Z
_TEXT	SEGMENT
_this$ = -4						; size = 4
_strSubName$ = 8					; size = 4
?OnStartDownSubject@IEventListener@@UAEXABV?$CStringT@DV?$StrTraitMFC_DLL@DV?$ChTraitsCRT@D@ATL@@@@@ATL@@@Z PROC NEAR ; IEventListener::OnStartDownSubject, COMDAT
; _this$ = ecx

; 13   : 	virtual void OnStartDownSubject(const CString& strSubName){};

  00000	55		 push	 ebp
  00001	8b ec		 mov	 ebp, esp
  00003	51		 push	 ecx
  00004	89 4d fc	 mov	 DWORD PTR _this$[ebp], ecx
  00007	8b e5		 mov	 esp, ebp
  00009	5d		 pop	 ebp
  0000a	c2 04 00	 ret	 4
?OnStartDownSubject@IEventListener@@UAEXABV?$CStringT@DV?$StrTraitMFC_DLL@DV?$ChTraitsCRT@D@ATL@@@@@ATL@@@Z ENDP ; IEventListener::OnStartDownSubject
; Function compile flags: /Odt
_TEXT	ENDS
;	COMDAT ?OnFinishDownSubject@IEventListener@@UAEXH@Z
_TEXT	SEGMENT
_this$ = -4						; size = 4
_bSuc$ = 8						; size = 4
?OnFinishDownSubject@IEventListener@@UAEXH@Z PROC NEAR	; IEventListener::OnFinishDownSubject, COMDAT
; _this$ = ecx

; 14   : 	virtual void OnFinishDownSubject(BOOL bSuc){};

  00000	55		 push	 ebp
  00001	8b ec		 mov	 ebp, esp
  00003	51		 push	 ecx
  00004	89 4d fc	 mov	 DWORD PTR _this$[ebp], ecx
  00007	8b e5		 mov	 esp, ebp
  00009	5d		 pop	 ebp
  0000a	c2 04 00	 ret	 4
?OnFinishDownSubject@IEventListener@@UAEXH@Z ENDP	; IEventListener::OnFinishDownSubject
; Function compile flags: /Odt
_TEXT	ENDS
;	COMDAT ??0P2PObserver@@QAE@XZ
_TEXT	SEGMENT
_this$ = -4						; size = 4
??0P2PObserver@@QAE@XZ PROC NEAR			; P2PObserver::P2PObserver, COMDAT
; _this$ = ecx
  00000	55		 push	 ebp
  00001	8b ec		 mov	 ebp, esp
  00003	51		 push	 ecx
  00004	89 4d fc	 mov	 DWORD PTR _this$[ebp], ecx
  00007	8b 45 fc	 mov	 eax, DWORD PTR _this$[ebp]
  0000a	c7 00 00 00 00
	00		 mov	 DWORD PTR [eax], OFFSET FLAT:??_7P2PObserver@@6B@
  00010	8b 45 fc	 mov	 eax, DWORD PTR _this$[ebp]
  00013	8b e5		 mov	 esp, ebp
  00015	5d		 pop	 ebp
  00016	c3		 ret	 0
??0P2PObserver@@QAE@XZ ENDP				; P2PObserver::P2PObserver
_TEXT	ENDS
PUBLIC	??_R1A@?0A@A@IMessageObserver@@8		; IMessageObserver::`RTTI Base Class Descriptor at (0,-1,0,0)'
PUBLIC	?ILayoutChangeOb_SkinChanged@ILayoutChangeObserver@@UAEXV?$basic_string@DU?$char_traits@D@std@@V?$allocator@D@2@@std@@0@Z ; ILayoutChangeObserver::ILayoutChangeOb_SkinChanged
PUBLIC	??_7ILayoutChangeObserver@@6B@			; ILayoutChangeObserver::`vftable'
PUBLIC	??_GILayoutChangeObserver@@UAEPAXI@Z		; ILayoutChangeObserver::`scalar deleting destructor'
PUBLIC	??_R4ILayoutChangeObserver@@6B@			; ILayoutChangeObserver::`RTTI Complete Object Locator'
PUBLIC	??_R3ILayoutChangeObserver@@8			; ILayoutChangeObserver::`RTTI Class Hierarchy Descriptor'
PUBLIC	??_R2ILayoutChangeObserver@@8			; ILayoutChangeObserver::`RTTI Base Class Array'
PUBLIC	??_R1A@?0A@A@ILayoutChangeObserver@@8		; ILayoutChangeObserver::`RTTI Base Class Descriptor at (0,-1,0,0)'
PUBLIC	??0IMessageObserver@@QAE@XZ			; IMessageObserver::IMessageObserver
EXTRN	??_EILayoutChangeObserver@@UAEPAXI@Z:NEAR	; ILayoutChangeObserver::`vector deleting destructor'
;	COMDAT ??_7ILayoutChangeObserver@@6B@
CONST	SEGMENT
??_7ILayoutChangeObserver@@6B@ DD FLAT:??_R4ILayoutChangeObserver@@6B@ ; ILayoutChangeObserver::`vftable'
	DD	FLAT:??_EILayoutChangeObserver@@UAEPAXI@Z
	DD	FLAT:?ILayoutChangeOb_LayerChanged@ILayoutChangeObserver@@UAEXV?$basic_string@DU?$char_traits@D@std@@V?$allocator@D@2@@std@@00@Z
	DD	FLAT:?ILayoutChangeOb_PaneChanged@ILayoutChangeObserver@@UAEXV?$basic_string@DU?$char_traits@D@std@@V?$allocator@D@2@@std@@0@Z
	DD	FLAT:?ILayoutChangeOb_SkinChanged@ILayoutChangeObserver@@UAEXV?$basic_string@DU?$char_traits@D@std@@V?$allocator@D@2@@std@@0@Z
	DD	FLAT:?ILayoutChangeOb_ColorChanged@ILayoutChangeObserver@@UAEXXZ
	DD	FLAT:?ILayoutChangeOb_ColorChanging@ILayoutChangeObserver@@UAEXXZ
	DD	FLAT:?ILayoutChangeOb_UpdateLayout@ILayoutChangeObserver@@UAEXPAUHWND__@@@Z
	DD	FLAT:?ILayoutChangeOb_InitFinished@ILayoutChangeObserver@@UAEXXZ
	DD	FLAT:?ILayoutChangeOb_InitBegin@ILayoutChangeObserver@@UAEXXZ
CONST	ENDS
;	COMDAT ??_R4ILayoutChangeObserver@@6B@
rdata$r	SEGMENT
??_R4ILayoutChangeObserver@@6B@ DD 00H			; ILayoutChangeObserver::`RTTI Complete Object Locator'
	DD	00H
	DD	00H
	DD	FLAT:??_R0?AVILayoutChangeObserver@@@8
	DD	FLAT:??_R3ILayoutChangeObserver@@8
rdata$r	ENDS
;	COMDAT ??_R3ILayoutChangeObserver@@8
rdata$r	SEGMENT
??_R3ILayoutChangeObserver@@8 DD 00H			; ILayoutChangeObserver::`RTTI Class Hierarchy Descriptor'
	DD	00H
	DD	02H
	DD	FLAT:??_R2ILayoutChangeObserver@@8
rdata$r	ENDS
;	COMDAT ??_R2ILayoutChangeObserver@@8
rdata$r	SEGMENT
??_R2ILayoutChangeObserver@@8 DD FLAT:??_R1A@?0A@A@ILayoutChangeObserver@@8 ; ILayoutChangeObserver::`RTTI Base Class Array'
	DD	FLAT:??_R1A@?0A@A@IMessageObserver@@8
rdata$r	ENDS
;	COMDAT ??_R1A@?0A@A@ILayoutChangeObserver@@8
rdata$r	SEGMENT
??_R1A@?0A@A@ILayoutChangeObserver@@8 DD FLAT:??_R0?AVILayoutChangeObserver@@@8 ; ILayoutChangeObserver::`RTTI Base Class Descriptor at (0,-1,0,0)'
	DD	01H
	DD	00H
	DD	0ffffffffH
	DD	00H
	DD	00H
rdata$r	ENDS
;	COMDAT ??_R1A@?0A@A@IMessageObserver@@8
rdata$r	SEGMENT
??_R1A@?0A@A@IMessageObserver@@8 DD FLAT:??_R0?AVIMessageObserver@@@8 ; IMessageObserver::`RTTI Base Class Descriptor at (0,-1,0,0)'
	DD	00H
	DD	00H
	DD	0ffffffffH
	DD	00H
	DD	00H
; Function compile flags: /Odt
rdata$r	ENDS
;	COMDAT ??0ILayoutChangeObserver@@QAE@XZ
_TEXT	SEGMENT
_this$ = -4						; size = 4
??0ILayoutChangeObserver@@QAE@XZ PROC NEAR		; ILayoutChangeObserver::ILayoutChangeObserver, COMDAT
; _this$ = ecx
  00000	55		 push	 ebp
  00001	8b ec		 mov	 ebp, esp
  00003	51		 push	 ecx
  00004	89 4d fc	 mov	 DWORD PTR _this$[ebp], ecx
  00007	8b 4d fc	 mov	 ecx, DWORD PTR _this$[ebp]
  0000a	e8 00 00 00 00	 call	 ??0IMessageObserver@@QAE@XZ
  0000f	8b 45 fc	 mov	 eax, DWORD PTR _this$[ebp]
  00012	c7 00 00 00 00
	00		 mov	 DWORD PTR [eax], OFFSET FLAT:??_7ILayoutChangeObserver@@6B@
  00018	8b 45 fc	 mov	 eax, DWORD PTR _this$[ebp]
  0001b	8b e5		 mov	 esp, ebp
  0001d	5d		 pop	 ebp
  0001e	c3		 ret	 0
??0ILayoutChangeObserver@@QAE@XZ ENDP			; ILayoutChangeObserver::ILayoutChangeObserver
_TEXT	ENDS
;	COMDAT xdata$x
; File d:\boxgit\playbox\playbox\dev\prj\playbox\src\datainterface\ilayoutchangeobserver.h
xdata$x	SEGMENT
$T205093 DD	0ffffffffH
	DD	FLAT:$L205088
$T205091 DD	019930520H
	DD	01H
	DD	FLAT:$T205093
	DD	2 DUP(00H)
	DD	2 DUP(00H)
; Function compile flags: /Odt
xdata$x	ENDS
;	COMDAT ?ILayoutChangeOb_SkinChanged@ILayoutChangeObserver@@UAEXV?$basic_string@DU?$char_traits@D@std@@V?$allocator@D@2@@std@@0@Z
_TEXT	SEGMENT
_this$ = -16						; size = 4
__$EHRec$ = -12						; size = 12
_oldSkinPath$ = 8					; size = 28
_newSkinPath$ = 36					; size = 28
?ILayoutChangeOb_SkinChanged@ILayoutChangeObserver@@UAEXV?$basic_string@DU?$char_traits@D@std@@V?$allocator@D@2@@std@@0@Z PROC NEAR ; ILayoutChangeObserver::ILayoutChangeOb_SkinChanged, COMDAT
; _this$ = ecx

; 11   : 	virtual void	ILayoutChangeOb_SkinChanged(string oldSkinPath, string newSkinPath){};

  00000	55		 push	 ebp
  00001	8b ec		 mov	 ebp, esp
  00003	6a ff		 push	 -1
  00005	68 00 00 00 00	 push	 __ehhandler$?ILayoutChangeOb_SkinChanged@ILayoutChangeObserver@@UAEXV?$basic_string@DU?$char_traits@D@std@@V?$allocator@D@2@@std@@0@Z
  0000a	64 a1 00 00 00
	00		 mov	 eax, DWORD PTR fs:__except_list
  00010	50		 push	 eax
  00011	64 89 25 00 00
	00 00		 mov	 DWORD PTR fs:__except_list, esp
  00018	51		 push	 ecx
  00019	89 4d f0	 mov	 DWORD PTR _this$[ebp], ecx
  0001c	c7 45 fc 00 00
	00 00		 mov	 DWORD PTR __$EHRec$[ebp+8], 0
  00023	8d 4d 08	 lea	 ecx, DWORD PTR _oldSkinPath$[ebp]
  00026	ff 15 00 00 00
	00		 call	 DWORD PTR __imp_??1?$basic_string@DU?$char_traits@D@std@@V?$allocator@D@2@@std@@QAE@XZ
  0002c	c7 45 fc ff ff
	ff ff		 mov	 DWORD PTR __$EHRec$[ebp+8], -1
  00033	8d 4d 24	 lea	 ecx, DWORD PTR _newSkinPath$[ebp]
  00036	ff 15 00 00 00
	00		 call	 DWORD PTR __imp_??1?$basic_string@DU?$char_traits@D@std@@V?$allocator@D@2@@std@@QAE@XZ
  0003c	8b 4d f4	 mov	 ecx, DWORD PTR __$EHRec$[ebp]
  0003f	64 89 0d 00 00
	00 00		 mov	 DWORD PTR fs:__except_list, ecx
  00046	8b e5		 mov	 esp, ebp
  00048	5d		 pop	 ebp
  00049	c2 38 00	 ret	 56			; 00000038H
_TEXT	ENDS
;	COMDAT text$x
text$x	SEGMENT
$L205088:
  00000	8d 4d 24	 lea	 ecx, DWORD PTR _newSkinPath$[ebp]
  00003	ff 25 00 00 00
	00		 jmp	 DWORD PTR __imp_??1?$basic_string@DU?$char_traits@D@std@@V?$allocator@D@2@@std@@QAE@XZ
__ehhandler$?ILayoutChangeOb_SkinChanged@ILayoutChangeObserver@@UAEXV?$basic_string@DU?$char_traits@D@std@@V?$allocator@D@2@@std@@0@Z:
  00009	b8 00 00 00 00	 mov	 eax, OFFSET FLAT:$T205091
  0000e	e9 00 00 00 00	 jmp	 ___CxxFrameHandler
text$x	ENDS
?ILayoutChangeOb_SkinChanged@ILayoutChangeObserver@@UAEXV?$basic_string@DU?$char_traits@D@std@@V?$allocator@D@2@@std@@0@Z ENDP ; ILayoutChangeObserver::ILayoutChangeOb_SkinChanged
PUBLIC	??1IMessageObserver@@UAE@XZ			; IMessageObserver::~IMessageObserver
; Function compile flags: /Odt
;	COMDAT ??1ILayoutChangeObserver@@UAE@XZ
_TEXT	SEGMENT
_this$ = -4						; size = 4
??1ILayoutChangeObserver@@UAE@XZ PROC NEAR		; ILayoutChangeObserver::~ILayoutChangeObserver, COMDAT
; _this$ = ecx
  00000	55		 push	 ebp
  00001	8b ec		 mov	 ebp, esp
  00003	51		 push	 ecx
  00004	89 4d fc	 mov	 DWORD PTR _this$[ebp], ecx
  00007	8b 4d fc	 mov	 ecx, DWORD PTR _this$[ebp]
  0000a	e8 00 00 00 00	 call	 ??1IMessageObserver@@UAE@XZ ; IMessageObserver::~IMessageObserver
  0000f	8b e5		 mov	 esp, ebp
  00011	5d		 pop	 ebp
  00012	c3		 ret	 0
??1ILayoutChangeObserver@@UAE@XZ ENDP			; ILayoutChangeObserver::~ILayoutChangeObserver
_TEXT	ENDS
PUBLIC	??_R4IWndEventListener@@6B@			; IWndEventListener::`RTTI Complete Object Locator'
PUBLIC	??_R3IWndEventListener@@8			; IWndEventListener::`RTTI Class Hierarchy Descriptor'
PUBLIC	??_R2IWndEventListener@@8			; IWndEventListener::`RTTI Base Class Array'
PUBLIC	??_7IWndEventListener@@6B@			; IWndEventListener::`vftable'
;	COMDAT ??_7IWndEventListener@@6B@
CONST	SEGMENT
??_7IWndEventListener@@6B@ DD FLAT:??_R4IWndEventListener@@6B@ ; IWndEventListener::`vftable'
	DD	FLAT:?OnChangeSkinTemplate@IWndEventListener@@UAE_NV?$CStringT@DV?$StrTraitMFC_DLL@DV?$ChTraitsCRT@D@ATL@@@@@ATL@@@Z
	DD	FLAT:?OnchangeColor@IWndEventListener@@UAEXKI@Z
	DD	FLAT:__purecall
CONST	ENDS
;	COMDAT ??_R4IWndEventListener@@6B@
rdata$r	SEGMENT
??_R4IWndEventListener@@6B@ DD 00H			; IWndEventListener::`RTTI Complete Object Locator'
	DD	00H
	DD	00H
	DD	FLAT:??_R0?AVIWndEventListener@@@8
	DD	FLAT:??_R3IWndEventListener@@8
rdata$r	ENDS
;	COMDAT ??_R3IWndEventListener@@8
rdata$r	SEGMENT
??_R3IWndEventListener@@8 DD 00H			; IWndEventListener::`RTTI Class Hierarchy Descriptor'
	DD	00H
	DD	01H
	DD	FLAT:??_R2IWndEventListener@@8
rdata$r	ENDS
;	COMDAT ??_R2IWndEventListener@@8
rdata$r	SEGMENT
??_R2IWndEventListener@@8 DD FLAT:??_R1A@?0A@A@IWndEventListener@@8 ; IWndEventListener::`RTTI Base Class Array'
; Function compile flags: /Odt
rdata$r	ENDS
;	COMDAT ??0IWndEventListener@@QAE@XZ
_TEXT	SEGMENT
_this$ = -4						; size = 4
??0IWndEventListener@@QAE@XZ PROC NEAR			; IWndEventListener::IWndEventListener, COMDAT
; _this$ = ecx
  00000	55		 push	 ebp
  00001	8b ec		 mov	 ebp, esp
  00003	51		 push	 ecx
  00004	89 4d fc	 mov	 DWORD PTR _this$[ebp], ecx
  00007	8b 45 fc	 mov	 eax, DWORD PTR _this$[ebp]
  0000a	c7 00 00 00 00
	00		 mov	 DWORD PTR [eax], OFFSET FLAT:??_7IWndEventListener@@6B@
  00010	8b 45 fc	 mov	 eax, DWORD PTR _this$[ebp]
  00013	8b e5		 mov	 esp, ebp
  00015	5d		 pop	 ebp
  00016	c3		 ret	 0
??0IWndEventListener@@QAE@XZ ENDP			; IWndEventListener::IWndEventListener
_TEXT	ENDS
PUBLIC	??_7IEventListener@@6B@				; IEventListener::`vftable'
PUBLIC	??_R4IEventListener@@6B@			; IEventListener::`RTTI Complete Object Locator'
PUBLIC	??_R3IEventListener@@8				; IEventListener::`RTTI Class Hierarchy Descriptor'
PUBLIC	??_R2IEventListener@@8				; IEventListener::`RTTI Base Class Array'
PUBLIC	??_R1A@?0A@A@IEventListener@@8			; IEventListener::`RTTI Base Class Descriptor at (0,-1,0,0)'
;	COMDAT ??_7IEventListener@@6B@
CONST	SEGMENT
??_7IEventListener@@6B@ DD FLAT:??_R4IEventListener@@6B@ ; IEventListener::`vftable'
	DD	FLAT:?OnCliekButton@IEventListener@@UAEXPAVCButton@@@Z
	DD	FLAT:?OnCliekSlide@IEventListener@@UAEXPAVCSliderCtrl@@@Z
	DD	FLAT:?OnSendChangeColor@IEventListener@@UAEXKI_N@Z
	DD	FLAT:?OnSendChangeSkin@IEventListener@@UAEXV?$CStringT@DV?$StrTraitMFC_DLL@DV?$ChTraitsCRT@D@ATL@@@@@ATL@@@Z
	DD	FLAT:?OnSendChangeSubject@IEventListener@@UAEXV?$CStringT@DV?$StrTraitMFC_DLL@DV?$ChTraitsCRT@D@ATL@@@@@ATL@@0@Z
	DD	FLAT:?OnChangeSkinAndSub@IEventListener@@UAEXABV?$CStringT@DV?$StrTraitMFC_DLL@DV?$ChTraitsCRT@D@ATL@@@@@ATL@@0@Z
	DD	FLAT:?OnStartDownSubject@IEventListener@@UAEXABV?$CStringT@DV?$StrTraitMFC_DLL@DV?$ChTraitsCRT@D@ATL@@@@@ATL@@@Z
	DD	FLAT:?OnFinishDownSubject@IEventListener@@UAEXH@Z
CONST	ENDS
;	COMDAT ??_R4IEventListener@@6B@
rdata$r	SEGMENT
??_R4IEventListener@@6B@ DD 00H				; IEventListener::`RTTI Complete Object Locator'
	DD	00H
	DD	00H
	DD	FLAT:??_R0?AVIEventListener@@@8
	DD	FLAT:??_R3IEventListener@@8
rdata$r	ENDS
;	COMDAT ??_R3IEventListener@@8
rdata$r	SEGMENT
??_R3IEventListener@@8 DD 00H				; IEventListener::`RTTI Class Hierarchy Descriptor'
	DD	00H
	DD	01H
	DD	FLAT:??_R2IEventListener@@8
rdata$r	ENDS
;	COMDAT ??_R2IEventListener@@8
rdata$r	SEGMENT
??_R2IEventListener@@8 DD FLAT:??_R1A@?0A@A@IEventListener@@8 ; IEventListener::`RTTI Base Class Array'
rdata$r	ENDS
;	COMDAT ??_R1A@?0A@A@IEventListener@@8
rdata$r	SEGMENT
??_R1A@?0A@A@IEventListener@@8 DD FLAT:??_R0?AVIEventListener@@@8 ; IEventListener::`RTTI Base Class Descriptor at (0,-1,0,0)'
	DD	00H
	DD	00H
	DD	0ffffffffH
	DD	00H
	DD	00H
; Function compile flags: /Odt
rdata$r	ENDS
;	COMDAT ??0IEventListener@@QAE@XZ
_TEXT	SEGMENT
_this$ = -4						; size = 4
??0IEventListener@@QAE@XZ PROC NEAR			; IEventListener::IEventListener, COMDAT
; _this$ = ecx
  00000	55		 push	 ebp
  00001	8b ec		 mov	 ebp, esp
  00003	51		 push	 ecx
  00004	89 4d fc	 mov	 DWORD PTR _this$[ebp], ecx
  00007	8b 45 fc	 mov	 eax, DWORD PTR _this$[ebp]
  0000a	c7 00 00 00 00
	00		 mov	 DWORD PTR [eax], OFFSET FLAT:??_7IEventListener@@6B@
  00010	8b 45 fc	 mov	 eax, DWORD PTR _this$[ebp]
  00013	8b e5		 mov	 esp, ebp
  00015	5d		 pop	 ebp
  00016	c3		 ret	 0
??0IEventListener@@QAE@XZ ENDP				; IEventListener::IEventListener
; Function compile flags: /Odt
_TEXT	ENDS
;	COMDAT ??_GILayoutChangeObserver@@UAEPAXI@Z
_TEXT	SEGMENT
_this$ = -4						; size = 4
___flags$ = 8						; size = 4
??_GILayoutChangeObserver@@UAEPAXI@Z PROC NEAR		; ILayoutChangeObserver::`scalar deleting destructor', COMDAT
; _this$ = ecx
  00000	55		 push	 ebp
  00001	8b ec		 mov	 ebp, esp
  00003	51		 push	 ecx
  00004	89 4d fc	 mov	 DWORD PTR _this$[ebp], ecx
  00007	8b 4d fc	 mov	 ecx, DWORD PTR _this$[ebp]
  0000a	e8 00 00 00 00	 call	 ??1ILayoutChangeObserver@@UAE@XZ
  0000f	8b 45 08	 mov	 eax, DWORD PTR ___flags$[ebp]
  00012	83 e0 01	 and	 eax, 1
  00015	74 0c		 je	 SHORT $L202257
  00017	8b 4d fc	 mov	 ecx, DWORD PTR _this$[ebp]
  0001a	51		 push	 ecx
  0001b	e8 00 00 00 00	 call	 ??3@YAXPAX@Z		; operator delete
  00020	83 c4 04	 add	 esp, 4
$L202257:
  00023	8b 45 fc	 mov	 eax, DWORD PTR _this$[ebp]
  00026	8b e5		 mov	 esp, ebp
  00028	5d		 pop	 ebp
  00029	c2 04 00	 ret	 4
??_GILayoutChangeObserver@@UAEPAXI@Z ENDP		; ILayoutChangeObserver::`scalar deleting destructor'
_TEXT	ENDS
PUBLIC	??_R4IMessageObserver@@6B@			; IMessageObserver::`RTTI Complete Object Locator'
PUBLIC	??_R3IMessageObserver@@8			; IMessageObserver::`RTTI Class Hierarchy Descriptor'
PUBLIC	??_R2IMessageObserver@@8			; IMessageObserver::`RTTI Base Class Array'
PUBLIC	??_7IMessageObserver@@6B@			; IMessageObserver::`vftable'
PUBLIC	??_GIMessageObserver@@UAEPAXI@Z			; IMessageObserver::`scalar deleting destructor'
EXTRN	??_EIMessageObserver@@UAEPAXI@Z:NEAR		; IMessageObserver::`vector deleting destructor'
;	COMDAT ??_7IMessageObserver@@6B@
CONST	SEGMENT
??_7IMessageObserver@@6B@ DD FLAT:??_R4IMessageObserver@@6B@ ; IMessageObserver::`vftable'
	DD	FLAT:??_EIMessageObserver@@UAEPAXI@Z
CONST	ENDS
;	COMDAT ??_R4IMessageObserver@@6B@
rdata$r	SEGMENT
??_R4IMessageObserver@@6B@ DD 00H			; IMessageObserver::`RTTI Complete Object Locator'
	DD	00H
	DD	00H
	DD	FLAT:??_R0?AVIMessageObserver@@@8
	DD	FLAT:??_R3IMessageObserver@@8
rdata$r	ENDS
;	COMDAT ??_R3IMessageObserver@@8
rdata$r	SEGMENT
??_R3IMessageObserver@@8 DD 00H				; IMessageObserver::`RTTI Class Hierarchy Descriptor'
	DD	00H
	DD	01H
	DD	FLAT:??_R2IMessageObserver@@8
rdata$r	ENDS
;	COMDAT ??_R2IMessageObserver@@8
rdata$r	SEGMENT
??_R2IMessageObserver@@8 DD FLAT:??_R1A@?0A@A@IMessageObserver@@8 ; IMessageObserver::`RTTI Base Class Array'
; Function compile flags: /Odt
rdata$r	ENDS
;	COMDAT ??0IMessageObserver@@QAE@XZ
_TEXT	SEGMENT
_this$ = -4						; size = 4
??0IMessageObserver@@QAE@XZ PROC NEAR			; IMessageObserver::IMessageObserver, COMDAT
; _this$ = ecx
  00000	55		 push	 ebp
  00001	8b ec		 mov	 ebp, esp
  00003	51		 push	 ecx
  00004	89 4d fc	 mov	 DWORD PTR _this$[ebp], ecx
  00007	8b 45 fc	 mov	 eax, DWORD PTR _this$[ebp]
  0000a	c7 00 00 00 00
	00		 mov	 DWORD PTR [eax], OFFSET FLAT:??_7IMessageObserver@@6B@
  00010	8b 45 fc	 mov	 eax, DWORD PTR _this$[ebp]
  00013	8b e5		 mov	 esp, ebp
  00015	5d		 pop	 ebp
  00016	c3		 ret	 0
??0IMessageObserver@@QAE@XZ ENDP			; IMessageObserver::IMessageObserver
_TEXT	ENDS
PUBLIC	??1CSkinMgrV1@@UAE@XZ				; CSkinMgrV1::~CSkinMgrV1
EXTRN	__imp__DeleteCriticalSection@4:NEAR
xdata$x	SEGMENT
$T205137 DD	0ffffffffH
	DD	FLAT:$L205125
	DD	00H
	DD	FLAT:$L205128
	DD	01H
	DD	FLAT:$L205129
	DD	02H
	DD	FLAT:$L205130
	DD	03H
	DD	FLAT:$L205131
	DD	04H
	DD	FLAT:$L205132
	DD	05H
	DD	FLAT:$L205133
$T205135 DD	019930520H
	DD	07H
	DD	FLAT:$T205137
	DD	2 DUP(00H)
	DD	2 DUP(00H)
; Function compile flags: /Odt
; File d:\boxgit\playbox\playbox\dev\prj\playbox\src\layoutmgr\changecolor\ichangecolormgr.cpp
xdata$x	ENDS
_TEXT	SEGMENT
tv69 = -56						; size = 4
tv73 = -52						; size = 4
tv153 = -48						; size = 4
tv158 = -44						; size = 4
tv147 = -40						; size = 4
tv136 = -36						; size = 4
_this$ = -32						; size = 4
$T205118 = -28						; size = 4
$T205117 = -24						; size = 4
$T205114 = -20						; size = 4
$T205113 = -16						; size = 4
__$EHRec$ = -12						; size = 12
??1CSkinMgrV1@@UAE@XZ PROC NEAR				; CSkinMgrV1::~CSkinMgrV1
; _this$ = ecx

; 47   : {

  001a0	55		 push	 ebp
  001a1	8b ec		 mov	 ebp, esp
  001a3	6a ff		 push	 -1
  001a5	68 00 00 00 00	 push	 __ehhandler$??1CSkinMgrV1@@UAE@XZ
  001aa	64 a1 00 00 00
	00		 mov	 eax, DWORD PTR fs:__except_list
  001b0	50		 push	 eax
  001b1	64 89 25 00 00
	00 00		 mov	 DWORD PTR fs:__except_list, esp
  001b8	83 ec 2c	 sub	 esp, 44			; 0000002cH
  001bb	89 4d e0	 mov	 DWORD PTR _this$[ebp], ecx
  001be	8b 45 e0	 mov	 eax, DWORD PTR _this$[ebp]
  001c1	c7 00 00 00 00
	00		 mov	 DWORD PTR [eax], OFFSET FLAT:??_7CSkinMgrV1@@6BIWndEventListener@@@
  001c7	8b 4d e0	 mov	 ecx, DWORD PTR _this$[ebp]
  001ca	c7 41 04 00 00
	00 00		 mov	 DWORD PTR [ecx+4], OFFSET FLAT:??_7CSkinMgrV1@@6BIEventListener@@@
  001d1	8b 55 e0	 mov	 edx, DWORD PTR _this$[ebp]
  001d4	c7 42 08 00 00
	00 00		 mov	 DWORD PTR [edx+8], OFFSET FLAT:??_7CSkinMgrV1@@6BP2PObserver@@@
  001db	8b 45 e0	 mov	 eax, DWORD PTR _this$[ebp]
  001de	c7 40 0c 00 00
	00 00		 mov	 DWORD PTR [eax+12], OFFSET FLAT:??_7CSkinMgrV1@@6BILayoutChangeObserver@@@
  001e5	c7 45 fc 06 00
	00 00		 mov	 DWORD PTR __$EHRec$[ebp+8], 6

; 48   : 
; 49   : 	/*if( NULL != mp_mainSkinWnd ) delete mp_mainSkinWnd;
; 50   : 	if( NULL != mp_skinWnd)        delete mp_skinWnd;
; 51   : 	if( NULL != mp_tabCtrol)       delete mp_tabCtrol;
; 52   : 	if( NULL != mp_colorWnd )      delete mp_colorWnd;
; 53   : 	if( NULL != mp_CloseBotton )   delete mp_CloseBotton;*/
; 54   : 	if( mp_downloadSkin )

  001ec	8b 4d e0	 mov	 ecx, DWORD PTR _this$[ebp]
  001ef	83 79 20 00	 cmp	 DWORD PTR [ecx+32], 0
  001f3	74 38		 je	 SHORT $L202263

; 55   : 	{
; 56   : 		delete mp_downloadSkin;

  001f5	8b 55 e0	 mov	 edx, DWORD PTR _this$[ebp]
  001f8	8b 42 20	 mov	 eax, DWORD PTR [edx+32]
  001fb	89 45 ec	 mov	 DWORD PTR $T205114[ebp], eax
  001fe	8b 4d ec	 mov	 ecx, DWORD PTR $T205114[ebp]
  00201	89 4d f0	 mov	 DWORD PTR $T205113[ebp], ecx
  00204	83 7d f0 00	 cmp	 DWORD PTR $T205113[ebp], 0
  00208	74 12		 je	 SHORT $L205115
  0020a	6a 01		 push	 1
  0020c	8b 55 f0	 mov	 edx, DWORD PTR $T205113[ebp]
  0020f	8b 02		 mov	 eax, DWORD PTR [edx]
  00211	8b 4d f0	 mov	 ecx, DWORD PTR $T205113[ebp]
  00214	ff 50 04	 call	 DWORD PTR [eax+4]
  00217	89 45 dc	 mov	 DWORD PTR tv136[ebp], eax
  0021a	eb 07		 jmp	 SHORT $L205116
$L205115:
  0021c	c7 45 dc 00 00
	00 00		 mov	 DWORD PTR tv136[ebp], 0
$L205116:

; 57   : 		mp_downloadSkin = NULL;

  00223	8b 4d e0	 mov	 ecx, DWORD PTR _this$[ebp]
  00226	c7 41 20 00 00
	00 00		 mov	 DWORD PTR [ecx+32], 0
$L202263:

; 58   : 	}
; 59   : 	if( mp_downloadSubject )

  0022d	8b 55 e0	 mov	 edx, DWORD PTR _this$[ebp]
  00230	83 7a 24 00	 cmp	 DWORD PTR [edx+36], 0
  00234	74 38		 je	 SHORT $L202266

; 60   : 	{
; 61   : 		delete mp_downloadSubject;

  00236	8b 45 e0	 mov	 eax, DWORD PTR _this$[ebp]
  00239	8b 48 24	 mov	 ecx, DWORD PTR [eax+36]
  0023c	89 4d e4	 mov	 DWORD PTR $T205118[ebp], ecx
  0023f	8b 55 e4	 mov	 edx, DWORD PTR $T205118[ebp]
  00242	89 55 e8	 mov	 DWORD PTR $T205117[ebp], edx
  00245	83 7d e8 00	 cmp	 DWORD PTR $T205117[ebp], 0
  00249	74 12		 je	 SHORT $L205119
  0024b	6a 01		 push	 1
  0024d	8b 45 e8	 mov	 eax, DWORD PTR $T205117[ebp]
  00250	8b 10		 mov	 edx, DWORD PTR [eax]
  00252	8b 4d e8	 mov	 ecx, DWORD PTR $T205117[ebp]
  00255	ff 52 04	 call	 DWORD PTR [edx+4]
  00258	89 45 d8	 mov	 DWORD PTR tv147[ebp], eax
  0025b	eb 07		 jmp	 SHORT $L205120
$L205119:
  0025d	c7 45 d8 00 00
	00 00		 mov	 DWORD PTR tv147[ebp], 0
$L205120:

; 62   : 		mp_downloadSubject = NULL;

  00264	8b 45 e0	 mov	 eax, DWORD PTR _this$[ebp]
  00267	c7 40 24 00 00
	00 00		 mov	 DWORD PTR [eax+36], 0
$L202266:

; 63   : 	}
; 64   : 
; 65   : 	DeleteCriticalSection( &m_csDownInfo );

  0026e	8b 4d e0	 mov	 ecx, DWORD PTR _this$[ebp]
  00271	83 c1 68	 add	 ecx, 104		; 00000068H
  00274	51		 push	 ecx
  00275	ff 15 00 00 00
	00		 call	 DWORD PTR __imp__DeleteCriticalSection@4

; 66   : 	AfxGetMessageManager()->DetachMessage( ID_MESSAGE_LAYOUTMGR,(ILayoutChangeObserver*)this);

  0027b	83 7d e0 00	 cmp	 DWORD PTR _this$[ebp], 0
  0027f	74 0b		 je	 SHORT $L205121
  00281	8b 55 e0	 mov	 edx, DWORD PTR _this$[ebp]
  00284	83 c2 0c	 add	 edx, 12			; 0000000cH
  00287	89 55 d4	 mov	 DWORD PTR tv158[ebp], edx
  0028a	eb 07		 jmp	 SHORT $L205122
$L205121:
  0028c	c7 45 d4 00 00
	00 00		 mov	 DWORD PTR tv158[ebp], 0
$L205122:
  00293	e8 00 00 00 00	 call	 ?AfxGetMessageManager@@YAPAVIMessageManager@@XZ ; AfxGetMessageManager
  00298	89 45 d0	 mov	 DWORD PTR tv153[ebp], eax
  0029b	8b 45 d4	 mov	 eax, DWORD PTR tv158[ebp]
  0029e	50		 push	 eax
  0029f	68 00 00 00 00	 push	 OFFSET FLAT:_ID_MESSAGE_LAYOUTMGR
  002a4	8b 4d d0	 mov	 ecx, DWORD PTR tv153[ebp]
  002a7	8b 11		 mov	 edx, DWORD PTR [ecx]
  002a9	8b 4d d0	 mov	 ecx, DWORD PTR tv153[ebp]
  002ac	ff 52 08	 call	 DWORD PTR [edx+8]

; 67   : }

  002af	c6 45 fc 05	 mov	 BYTE PTR __$EHRec$[ebp+8], 5
  002b3	8b 4d e0	 mov	 ecx, DWORD PTR _this$[ebp]
  002b6	83 c1 60	 add	 ecx, 96			; 00000060H
  002b9	ff 15 00 00 00
	00		 call	 DWORD PTR __imp_??1?$CStringT@DV?$StrTraitMFC_DLL@DV?$ChTraitsCRT@D@ATL@@@@@ATL@@QAE@XZ
  002bf	c6 45 fc 04	 mov	 BYTE PTR __$EHRec$[ebp+8], 4
  002c3	8b 4d e0	 mov	 ecx, DWORD PTR _this$[ebp]
  002c6	83 c1 5c	 add	 ecx, 92			; 0000005cH
  002c9	ff 15 00 00 00
	00		 call	 DWORD PTR __imp_??1?$CStringT@DV?$StrTraitMFC_DLL@DV?$ChTraitsCRT@D@ATL@@@@@ATL@@QAE@XZ
  002cf	c6 45 fc 03	 mov	 BYTE PTR __$EHRec$[ebp+8], 3
  002d3	8b 4d e0	 mov	 ecx, DWORD PTR _this$[ebp]
  002d6	83 c1 58	 add	 ecx, 88			; 00000058H
  002d9	ff 15 00 00 00
	00		 call	 DWORD PTR __imp_??1?$CStringT@DV?$StrTraitMFC_DLL@DV?$ChTraitsCRT@D@ATL@@@@@ATL@@QAE@XZ
  002df	c6 45 fc 02	 mov	 BYTE PTR __$EHRec$[ebp+8], 2
  002e3	8b 4d e0	 mov	 ecx, DWORD PTR _this$[ebp]
  002e6	83 c1 38	 add	 ecx, 56			; 00000038H
  002e9	e8 00 00 00 00	 call	 ??1?$vector@PAVIChangeSkinEventListener@@V?$allocator@PAVIChangeSkinEventListener@@@std@@@std@@QAE@XZ ; std::vector<IChangeSkinEventListener *,std::allocator<IChangeSkinEventListener *> >::~vector<IChangeSkinEventListener *,std::allocator<IChangeSkinEventListener *> >
  002ee	c6 45 fc 01	 mov	 BYTE PTR __$EHRec$[ebp+8], 1
  002f2	8b 4d e0	 mov	 ecx, DWORD PTR _this$[ebp]
  002f5	83 c1 34	 add	 ecx, 52			; 00000034H
  002f8	ff 15 00 00 00
	00		 call	 DWORD PTR __imp_??1?$CStringT@DV?$StrTraitMFC_DLL@DV?$ChTraitsCRT@D@ATL@@@@@ATL@@QAE@XZ
  002fe	c6 45 fc 00	 mov	 BYTE PTR __$EHRec$[ebp+8], 0
  00302	83 7d e0 00	 cmp	 DWORD PTR _this$[ebp], 0
  00306	74 0b		 je	 SHORT $L205111
  00308	8b 45 e0	 mov	 eax, DWORD PTR _this$[ebp]
  0030b	83 c0 0c	 add	 eax, 12			; 0000000cH
  0030e	89 45 cc	 mov	 DWORD PTR tv73[ebp], eax
  00311	eb 07		 jmp	 SHORT $L205112
$L205111:
  00313	c7 45 cc 00 00
	00 00		 mov	 DWORD PTR tv73[ebp], 0
$L205112:
  0031a	8b 4d cc	 mov	 ecx, DWORD PTR tv73[ebp]
  0031d	e8 00 00 00 00	 call	 ??1ILayoutChangeObserver@@UAE@XZ
  00322	c7 45 fc ff ff
	ff ff		 mov	 DWORD PTR __$EHRec$[ebp+8], -1
  00329	83 7d e0 00	 cmp	 DWORD PTR _this$[ebp], 0
  0032d	74 0b		 je	 SHORT $L205109
  0032f	8b 4d e0	 mov	 ecx, DWORD PTR _this$[ebp]
  00332	83 c1 08	 add	 ecx, 8
  00335	89 4d c8	 mov	 DWORD PTR tv69[ebp], ecx
  00338	eb 07		 jmp	 SHORT $L205110
$L205109:
  0033a	c7 45 c8 00 00
	00 00		 mov	 DWORD PTR tv69[ebp], 0
$L205110:
  00341	8b 4d c8	 mov	 ecx, DWORD PTR tv69[ebp]
  00344	e8 00 00 00 00	 call	 ??1P2PObserver@@UAE@XZ	; P2PObserver::~P2PObserver
  00349	8b 4d f4	 mov	 ecx, DWORD PTR __$EHRec$[ebp]
  0034c	64 89 0d 00 00
	00 00		 mov	 DWORD PTR fs:__except_list, ecx
  00353	8b e5		 mov	 esp, ebp
  00355	5d		 pop	 ebp
  00356	c3		 ret	 0
_TEXT	ENDS
text$x	SEGMENT
$L205125:
  0005b	83 7d e0 00	 cmp	 DWORD PTR _this$[ebp], 0
  0005f	0f 84 0e 00 00
	00		 je	 $L205123
  00065	8b 45 e0	 mov	 eax, DWORD PTR _this$[ebp]
  00068	83 c0 08	 add	 eax, 8
  0006b	89 45 c8	 mov	 DWORD PTR tv69[ebp], eax
  0006e	e9 07 00 00 00	 jmp	 $L205124
$L205123:
  00073	c7 45 c8 00 00
	00 00		 mov	 DWORD PTR tv69[ebp], 0
$L205124:
  0007a	8b 4d c8	 mov	 ecx, DWORD PTR tv69[ebp]
  0007d	e9 00 00 00 00	 jmp	 ??1P2PObserver@@UAE@XZ	; P2PObserver::~P2PObserver
$L205128:
  00082	83 7d e0 00	 cmp	 DWORD PTR _this$[ebp], 0
  00086	0f 84 0e 00 00
	00		 je	 $L205126
  0008c	8b 45 e0	 mov	 eax, DWORD PTR _this$[ebp]
  0008f	83 c0 0c	 add	 eax, 12			; 0000000cH
  00092	89 45 cc	 mov	 DWORD PTR tv73[ebp], eax
  00095	e9 07 00 00 00	 jmp	 $L205127
$L205126:
  0009a	c7 45 cc 00 00
	00 00		 mov	 DWORD PTR tv73[ebp], 0
$L205127:
  000a1	8b 4d cc	 mov	 ecx, DWORD PTR tv73[ebp]
  000a4	e9 00 00 00 00	 jmp	 ??1ILayoutChangeObserver@@UAE@XZ
$L205129:
  000a9	8b 4d e0	 mov	 ecx, DWORD PTR _this$[ebp]
  000ac	83 c1 34	 add	 ecx, 52			; 00000034H
  000af	ff 25 00 00 00
	00		 jmp	 DWORD PTR __imp_??1?$CStringT@DV?$StrTraitMFC_DLL@DV?$ChTraitsCRT@D@ATL@@@@@ATL@@QAE@XZ
$L205130:
  000b5	8b 4d e0	 mov	 ecx, DWORD PTR _this$[ebp]
  000b8	83 c1 38	 add	 ecx, 56			; 00000038H
  000bb	e9 00 00 00 00	 jmp	 ??1?$vector@PAVIChangeSkinEventListener@@V?$allocator@PAVIChangeSkinEventListener@@@std@@@std@@QAE@XZ ; std::vector<IChangeSkinEventListener *,std::allocator<IChangeSkinEventListener *> >::~vector<IChangeSkinEventListener *,std::allocator<IChangeSkinEventListener *> >
$L205131:
  000c0	8b 4d e0	 mov	 ecx, DWORD PTR _this$[ebp]
  000c3	83 c1 58	 add	 ecx, 88			; 00000058H
  000c6	ff 25 00 00 00
	00		 jmp	 DWORD PTR __imp_??1?$CStringT@DV?$StrTraitMFC_DLL@DV?$ChTraitsCRT@D@ATL@@@@@ATL@@QAE@XZ
$L205132:
  000cc	8b 4d e0	 mov	 ecx, DWORD PTR _this$[ebp]
  000cf	83 c1 5c	 add	 ecx, 92			; 0000005cH
  000d2	ff 25 00 00 00
	00		 jmp	 DWORD PTR __imp_??1?$CStringT@DV?$StrTraitMFC_DLL@DV?$ChTraitsCRT@D@ATL@@@@@ATL@@QAE@XZ
$L205133:
  000d8	8b 4d e0	 mov	 ecx, DWORD PTR _this$[ebp]
  000db	83 c1 60	 add	 ecx, 96			; 00000060H
  000de	ff 25 00 00 00
	00		 jmp	 DWORD PTR __imp_??1?$CStringT@DV?$StrTraitMFC_DLL@DV?$ChTraitsCRT@D@ATL@@@@@ATL@@QAE@XZ
__ehhandler$??1CSkinMgrV1@@UAE@XZ:
  000e4	b8 00 00 00 00	 mov	 eax, OFFSET FLAT:$T205135
  000e9	e9 00 00 00 00	 jmp	 ___CxxFrameHandler
text$x	ENDS
??1CSkinMgrV1@@UAE@XZ ENDP				; CSkinMgrV1::~CSkinMgrV1
PUBLIC	?GetObjectA@CSkinMgrV1@@SAPAVIChangeColorMgr@@XZ ; CSkinMgrV1::GetObjectA
EXTRN	??2@YAPAXI@Z:NEAR				; operator new
xdata$x	SEGMENT
$T205147 DD	0ffffffffH
	DD	FLAT:$L205143
$T205145 DD	019930520H
	DD	01H
	DD	FLAT:$T205147
	DD	2 DUP(00H)
	DD	2 DUP(00H)
; Function compile flags: /Odt
xdata$x	ENDS
_TEXT	SEGMENT
tv72 = -24						; size = 4
$T205140 = -20						; size = 4
$T205139 = -16						; size = 4
__$EHRec$ = -12						; size = 12
?GetObjectA@CSkinMgrV1@@SAPAVIChangeColorMgr@@XZ PROC NEAR ; CSkinMgrV1::GetObjectA

; 69   : {

  00360	55		 push	 ebp
  00361	8b ec		 mov	 ebp, esp
  00363	6a ff		 push	 -1
  00365	68 00 00 00 00	 push	 __ehhandler$?GetObjectA@CSkinMgrV1@@SAPAVIChangeColorMgr@@XZ
  0036a	64 a1 00 00 00
	00		 mov	 eax, DWORD PTR fs:__except_list
  00370	50		 push	 eax
  00371	64 89 25 00 00
	00 00		 mov	 DWORD PTR fs:__except_list, esp
  00378	83 ec 0c	 sub	 esp, 12			; 0000000cH

; 70   : 	if( NULL == mp_IsHadObject )

  0037b	83 3d 00 00 00
	00 00		 cmp	 DWORD PTR ?mp_IsHadObject@CSkinMgrV1@@0PAVIChangeColorMgr@@A, 0 ; CSkinMgrV1::mp_IsHadObject
  00382	75 47		 jne	 SHORT $L202272

; 71   : 	{
; 72   : 		mp_IsHadObject = new CSkinMgrV1();

  00384	68 84 00 00 00	 push	 132			; 00000084H
  00389	e8 00 00 00 00	 call	 ??2@YAPAXI@Z		; operator new
  0038e	83 c4 04	 add	 esp, 4
  00391	89 45 ec	 mov	 DWORD PTR $T205140[ebp], eax
  00394	c7 45 fc 00 00
	00 00		 mov	 DWORD PTR __$EHRec$[ebp+8], 0
  0039b	83 7d ec 00	 cmp	 DWORD PTR $T205140[ebp], 0
  0039f	74 0d		 je	 SHORT $L205141
  003a1	8b 4d ec	 mov	 ecx, DWORD PTR $T205140[ebp]
  003a4	e8 00 00 00 00	 call	 ??0CSkinMgrV1@@QAE@XZ	; CSkinMgrV1::CSkinMgrV1
  003a9	89 45 e8	 mov	 DWORD PTR tv72[ebp], eax
  003ac	eb 07		 jmp	 SHORT $L205142
$L205141:
  003ae	c7 45 e8 00 00
	00 00		 mov	 DWORD PTR tv72[ebp], 0
$L205142:
  003b5	8b 45 e8	 mov	 eax, DWORD PTR tv72[ebp]
  003b8	89 45 f0	 mov	 DWORD PTR $T205139[ebp], eax
  003bb	c7 45 fc ff ff
	ff ff		 mov	 DWORD PTR __$EHRec$[ebp+8], -1
  003c2	8b 4d f0	 mov	 ecx, DWORD PTR $T205139[ebp]
  003c5	89 0d 00 00 00
	00		 mov	 DWORD PTR ?mp_IsHadObject@CSkinMgrV1@@0PAVIChangeColorMgr@@A, ecx ; CSkinMgrV1::mp_IsHadObject
$L202272:

; 73   : 	}
; 74   : 	return mp_IsHadObject;

  003cb	a1 00 00 00 00	 mov	 eax, DWORD PTR ?mp_IsHadObject@CSkinMgrV1@@0PAVIChangeColorMgr@@A ; CSkinMgrV1::mp_IsHadObject

; 75   : }

  003d0	8b 4d f4	 mov	 ecx, DWORD PTR __$EHRec$[ebp]
  003d3	64 89 0d 00 00
	00 00		 mov	 DWORD PTR fs:__except_list, ecx
  003da	8b e5		 mov	 esp, ebp
  003dc	5d		 pop	 ebp
  003dd	c3		 ret	 0
_TEXT	ENDS
text$x	SEGMENT
$L205143:
  000ee	8b 45 ec	 mov	 eax, DWORD PTR $T205140[ebp]
  000f1	50		 push	 eax
  000f2	e8 00 00 00 00	 call	 ??3@YAXPAX@Z		; operator delete
  000f7	59		 pop	 ecx
  000f8	c3		 ret	 0
__ehhandler$?GetObjectA@CSkinMgrV1@@SAPAVIChangeColorMgr@@XZ:
  000f9	b8 00 00 00 00	 mov	 eax, OFFSET FLAT:$T205145
  000fe	e9 00 00 00 00	 jmp	 ___CxxFrameHandler
text$x	ENDS
?GetObjectA@CSkinMgrV1@@SAPAVIChangeColorMgr@@XZ ENDP	; CSkinMgrV1::GetObjectA
EXTRN	?CloseWindows@CMainSkinWnd@@QAEXXZ:NEAR		; CMainSkinWnd::CloseWindows
; Function compile flags: /Odt
_TEXT	SEGMENT
_this$ = -4						; size = 4
?OnClose@CSkinMgrV1@@UAEXXZ PROC NEAR			; CSkinMgrV1::OnClose
; _this$ = ecx

; 78   : {

  003e0	55		 push	 ebp
  003e1	8b ec		 mov	 ebp, esp
  003e3	51		 push	 ecx
  003e4	89 4d fc	 mov	 DWORD PTR _this$[ebp], ecx

; 79   : 	if(mb_HasPopWnd)

  003e7	8b 45 fc	 mov	 eax, DWORD PTR _this$[ebp]
  003ea	0f b6 48 48	 movzx	 ecx, BYTE PTR [eax+72]
  003ee	85 c9		 test	 ecx, ecx
  003f0	74 1c		 je	 SHORT $L202279

; 80   : 	{
; 81   : 		mp_mainSkinWnd->CloseWindows();

  003f2	8b 55 fc	 mov	 edx, DWORD PTR _this$[ebp]
  003f5	8b 4a 10	 mov	 ecx, DWORD PTR [edx+16]
  003f8	e8 00 00 00 00	 call	 ?CloseWindows@CMainSkinWnd@@QAEXXZ ; CMainSkinWnd::CloseWindows

; 82   : 		mb_HasPopWnd = FALSE;

  003fd	8b 45 fc	 mov	 eax, DWORD PTR _this$[ebp]
  00400	c6 40 48 00	 mov	 BYTE PTR [eax+72], 0

; 83   : 		mp_mainSkinWnd = NULL;

  00404	8b 4d fc	 mov	 ecx, DWORD PTR _this$[ebp]
  00407	c7 41 10 00 00
	00 00		 mov	 DWORD PTR [ecx+16], 0
$L202279:

; 84   : 	}
; 85   : }

  0040e	8b e5		 mov	 esp, ebp
  00410	5d		 pop	 ebp
  00411	c3		 ret	 0
?OnClose@CSkinMgrV1@@UAEXXZ ENDP			; CSkinMgrV1::OnClose
_TEXT	ENDS
PUBLIC	?GetSkinWndRect@CSkinMgrV1@@QAEXABUtagPOINT@@AAVCRect@@@Z ; CSkinMgrV1::GetSkinWndRect
EXTRN	__imp__GetSystemMetrics@4:NEAR
EXTRN	?AfxGetUIManager@@YAPAVIUIManager@@XZ:NEAR	; AfxGetUIManager
; Function compile flags: /Odt
_TEXT	SEGMENT
tv92 = -28						; size = 4
tv87 = -24						; size = 4
tv71 = -20						; size = 4
tv66 = -16						; size = 4
_this$ = -12						; size = 4
_lnScreenWidth$ = -8					; size = 4
_lnScreenHight$ = -4					; size = 4
_aPoint$ = 8						; size = 4
_lrect$ = 12						; size = 4
?GetSkinWndRect@CSkinMgrV1@@QAEXABUtagPOINT@@AAVCRect@@@Z PROC NEAR ; CSkinMgrV1::GetSkinWndRect
; _this$ = ecx

; 88   : {	

  00420	55		 push	 ebp
  00421	8b ec		 mov	 ebp, esp
  00423	83 ec 1c	 sub	 esp, 28			; 0000001cH
  00426	89 4d f4	 mov	 DWORD PTR _this$[ebp], ecx

; 89   : 	if(AfxGetUIManager()->UIGetLayoutMgr()->GetDisplayMode() == DISPLAY_SEPERATE_MODE)

  00429	e8 00 00 00 00	 call	 ?AfxGetUIManager@@YAPAVIUIManager@@XZ ; AfxGetUIManager
  0042e	89 45 f0	 mov	 DWORD PTR tv66[ebp], eax
  00431	8b 45 f0	 mov	 eax, DWORD PTR tv66[ebp]
  00434	8b 10		 mov	 edx, DWORD PTR [eax]
  00436	8b 4d f0	 mov	 ecx, DWORD PTR tv66[ebp]
  00439	ff 52 24	 call	 DWORD PTR [edx+36]
  0043c	89 45 ec	 mov	 DWORD PTR tv71[ebp], eax
  0043f	8b 45 ec	 mov	 eax, DWORD PTR tv71[ebp]
  00442	8b 10		 mov	 edx, DWORD PTR [eax]
  00444	8b 4d ec	 mov	 ecx, DWORD PTR tv71[ebp]
  00447	ff 52 7c	 call	 DWORD PTR [edx+124]
  0044a	85 c0		 test	 eax, eax
  0044c	75 10		 jne	 SHORT $L202286

; 90   : 		mp_mainSkinWnd->m_hight = 211;

  0044e	8b 45 f4	 mov	 eax, DWORD PTR _this$[ebp]
  00451	8b 48 10	 mov	 ecx, DWORD PTR [eax+16]
  00454	c7 81 d4 00 00
	00 d3 00 00 00	 mov	 DWORD PTR [ecx+212], 211 ; 000000d3H
$L202286:

; 91   : 
; 92   : 	lrect.top    = aPoint.y;

  0045e	8b 55 0c	 mov	 edx, DWORD PTR _lrect$[ebp]
  00461	8b 45 08	 mov	 eax, DWORD PTR _aPoint$[ebp]
  00464	8b 48 04	 mov	 ecx, DWORD PTR [eax+4]
  00467	89 4a 04	 mov	 DWORD PTR [edx+4], ecx

; 93   : 	lrect.bottom = lrect.top + mp_mainSkinWnd->m_hight;

  0046a	8b 55 f4	 mov	 edx, DWORD PTR _this$[ebp]
  0046d	8b 42 10	 mov	 eax, DWORD PTR [edx+16]
  00470	8b 4d 0c	 mov	 ecx, DWORD PTR _lrect$[ebp]
  00473	8b 51 04	 mov	 edx, DWORD PTR [ecx+4]
  00476	03 90 d4 00 00
	00		 add	 edx, DWORD PTR [eax+212]
  0047c	8b 45 0c	 mov	 eax, DWORD PTR _lrect$[ebp]
  0047f	89 50 0c	 mov	 DWORD PTR [eax+12], edx

; 94   : 	lrect.left   = aPoint.x;

  00482	8b 4d 0c	 mov	 ecx, DWORD PTR _lrect$[ebp]
  00485	8b 55 08	 mov	 edx, DWORD PTR _aPoint$[ebp]
  00488	8b 02		 mov	 eax, DWORD PTR [edx]
  0048a	89 01		 mov	 DWORD PTR [ecx], eax

; 95   : 	if(AfxGetUIManager()->UIGetLayoutMgr()->GetDisplayMode() == DISPLAY_SEPERATE_MODE)

  0048c	e8 00 00 00 00	 call	 ?AfxGetUIManager@@YAPAVIUIManager@@XZ ; AfxGetUIManager
  00491	89 45 e8	 mov	 DWORD PTR tv87[ebp], eax
  00494	8b 4d e8	 mov	 ecx, DWORD PTR tv87[ebp]
  00497	8b 11		 mov	 edx, DWORD PTR [ecx]
  00499	8b 4d e8	 mov	 ecx, DWORD PTR tv87[ebp]
  0049c	ff 52 24	 call	 DWORD PTR [edx+36]
  0049f	89 45 e4	 mov	 DWORD PTR tv92[ebp], eax
  004a2	8b 45 e4	 mov	 eax, DWORD PTR tv92[ebp]
  004a5	8b 10		 mov	 edx, DWORD PTR [eax]
  004a7	8b 4d e4	 mov	 ecx, DWORD PTR tv92[ebp]
  004aa	ff 52 7c	 call	 DWORD PTR [edx+124]
  004ad	85 c0		 test	 eax, eax
  004af	75 10		 jne	 SHORT $L202287

; 96   : 		mp_mainSkinWnd->m_width = 240;

  004b1	8b 45 f4	 mov	 eax, DWORD PTR _this$[ebp]
  004b4	8b 48 10	 mov	 ecx, DWORD PTR [eax+16]
  004b7	c7 81 d8 00 00
	00 f0 00 00 00	 mov	 DWORD PTR [ecx+216], 240 ; 000000f0H
$L202287:

; 97   : 	lrect.right  = lrect.left +mp_mainSkinWnd->m_width;

  004c1	8b 55 f4	 mov	 edx, DWORD PTR _this$[ebp]
  004c4	8b 42 10	 mov	 eax, DWORD PTR [edx+16]
  004c7	8b 4d 0c	 mov	 ecx, DWORD PTR _lrect$[ebp]
  004ca	8b 11		 mov	 edx, DWORD PTR [ecx]
  004cc	03 90 d8 00 00
	00		 add	 edx, DWORD PTR [eax+216]
  004d2	8b 45 0c	 mov	 eax, DWORD PTR _lrect$[ebp]
  004d5	89 50 08	 mov	 DWORD PTR [eax+8], edx

; 98   : 
; 99   : 	int lnScreenWidth = ::GetSystemMetrics(SM_CXSCREEN);

  004d8	6a 00		 push	 0
  004da	ff 15 00 00 00
	00		 call	 DWORD PTR __imp__GetSystemMetrics@4
  004e0	89 45 f8	 mov	 DWORD PTR _lnScreenWidth$[ebp], eax

; 100  : 	int lnScreenHight = ::GetSystemMetrics(SM_CYSCREEN);

  004e3	6a 01		 push	 1
  004e5	ff 15 00 00 00
	00		 call	 DWORD PTR __imp__GetSystemMetrics@4
  004eb	89 45 fc	 mov	 DWORD PTR _lnScreenHight$[ebp], eax

; 101  : 
; 102  : 	if( lnScreenWidth < (int)(mp_mainSkinWnd->m_width + aPoint.x) )

  004ee	8b 4d f4	 mov	 ecx, DWORD PTR _this$[ebp]
  004f1	8b 51 10	 mov	 edx, DWORD PTR [ecx+16]
  004f4	8b 82 d8 00 00
	00		 mov	 eax, DWORD PTR [edx+216]
  004fa	8b 4d 08	 mov	 ecx, DWORD PTR _aPoint$[ebp]
  004fd	03 01		 add	 eax, DWORD PTR [ecx]
  004ff	39 45 f8	 cmp	 DWORD PTR _lnScreenWidth$[ebp], eax
  00502	7d 21		 jge	 SHORT $L202291

; 103  : 	{
; 104  : 		lrect.left   =    aPoint.x - mp_mainSkinWnd->m_width;

  00504	8b 55 f4	 mov	 edx, DWORD PTR _this$[ebp]
  00507	8b 42 10	 mov	 eax, DWORD PTR [edx+16]
  0050a	8b 4d 08	 mov	 ecx, DWORD PTR _aPoint$[ebp]
  0050d	8b 11		 mov	 edx, DWORD PTR [ecx]
  0050f	2b 90 d8 00 00
	00		 sub	 edx, DWORD PTR [eax+216]
  00515	8b 45 0c	 mov	 eax, DWORD PTR _lrect$[ebp]
  00518	89 10		 mov	 DWORD PTR [eax], edx

; 105  : 		lrect.right  =    aPoint.x;

  0051a	8b 4d 0c	 mov	 ecx, DWORD PTR _lrect$[ebp]
  0051d	8b 55 08	 mov	 edx, DWORD PTR _aPoint$[ebp]
  00520	8b 02		 mov	 eax, DWORD PTR [edx]
  00522	89 41 08	 mov	 DWORD PTR [ecx+8], eax
$L202291:

; 106  : 	}
; 107  : 	if( lnScreenHight < (int)mp_mainSkinWnd->m_hight + aPoint.y )

  00525	8b 4d f4	 mov	 ecx, DWORD PTR _this$[ebp]
  00528	8b 51 10	 mov	 edx, DWORD PTR [ecx+16]
  0052b	8b 82 d4 00 00
	00		 mov	 eax, DWORD PTR [edx+212]
  00531	8b 4d 08	 mov	 ecx, DWORD PTR _aPoint$[ebp]
  00534	03 41 04	 add	 eax, DWORD PTR [ecx+4]
  00537	39 45 fc	 cmp	 DWORD PTR _lnScreenHight$[ebp], eax
  0053a	7d 24		 jge	 SHORT $L202285

; 108  : 	{
; 109  : 		lrect.top =     aPoint.y - mp_mainSkinWnd->m_hight;

  0053c	8b 55 f4	 mov	 edx, DWORD PTR _this$[ebp]
  0053f	8b 42 10	 mov	 eax, DWORD PTR [edx+16]
  00542	8b 4d 08	 mov	 ecx, DWORD PTR _aPoint$[ebp]
  00545	8b 51 04	 mov	 edx, DWORD PTR [ecx+4]
  00548	2b 90 d4 00 00
	00		 sub	 edx, DWORD PTR [eax+212]
  0054e	8b 45 0c	 mov	 eax, DWORD PTR _lrect$[ebp]
  00551	89 50 04	 mov	 DWORD PTR [eax+4], edx

; 110  : 		lrect.bottom =  aPoint.y;

  00554	8b 4d 0c	 mov	 ecx, DWORD PTR _lrect$[ebp]
  00557	8b 55 08	 mov	 edx, DWORD PTR _aPoint$[ebp]
  0055a	8b 42 04	 mov	 eax, DWORD PTR [edx+4]
  0055d	89 41 0c	 mov	 DWORD PTR [ecx+12], eax
$L202285:

; 111  : 	}
; 112  : }

  00560	8b e5		 mov	 esp, ebp
  00562	5d		 pop	 ebp
  00563	c2 08 00	 ret	 8
?GetSkinWndRect@CSkinMgrV1@@QAEXABUtagPOINT@@AAVCRect@@@Z ENDP ; CSkinMgrV1::GetSkinWndRect
_TEXT	ENDS
PUBLIC	?RedrawWindow@CWnd@@QAEHPBUtagRECT@@PAVCRgn@@I@Z ; CWnd::RedrawWindow
PUBLIC	??0CRect@@QAE@XZ				; CRect::CRect
PUBLIC	??0CRect@@QAE@HHHH@Z				; CRect::CRect
PUBLIC	?SetRect@CRect@@QAEXHHHH@Z			; CRect::SetRect
PUBLIC	?SetSendEventListener@CSkinWnd@@QAEXPAVIEventListener@@@Z ; CSkinWnd::SetSendEventListener
PUBLIC	??2CObject@@SGPAXI@Z				; CObject::operator new
PUBLIC	??3CObject@@SGXPAX@Z				; CObject::operator delete
PUBLIC	?SetSendEventListener@CSubjectChildWnd@@QAEXPAVIEventListener@@@Z ; CSubjectChildWnd::SetSendEventListener
PUBLIC	??HATL@@YA?AV?$CStringT@DV?$StrTraitMFC_DLL@DV?$ChTraitsCRT@D@ATL@@@@@0@ABV10@PBD@Z ; ATL::operator+
PUBLIC	?SetListener@CMainSkinWnd@@QAEXPAVIEventListener@@@Z ; CMainSkinWnd::SetListener
PUBLIC	?SetWndListener@CMainSkinWnd@@QAEXPAVIWndEventListener@@@Z ; CMainSkinWnd::SetWndListener
PUBLIC	?size@?$vector@UOneSubject@@V?$allocator@UOneSubject@@@std@@@std@@QBEIXZ ; std::vector<OneSubject,std::allocator<OneSubject> >::size
PUBLIC	??A?$vector@UOneSubject@@V?$allocator@UOneSubject@@@std@@@std@@QAEAAUOneSubject@@I@Z ; std::vector<OneSubject,std::allocator<OneSubject> >::operator[]
PUBLIC	?MoveWindow@CWnd@@QAEXPBUtagRECT@@H@Z		; CWnd::MoveWindow
EXTRN	?ShowWindow@CWnd@@QAEHH@Z:NEAR			; CWnd::ShowWindow
EXTRN	__imp_??B?$CSimpleStringT@D$00@ATL@@QBEPBDXZ:NEAR
EXTRN	?AfxRegisterWndClass@@YGPBDIPAUHICON__@@PAUHBRUSH__@@0@Z:NEAR ; AfxRegisterWndClass
EXTRN	__imp_?c_str@?$basic_string@DU?$char_traits@D@std@@V?$allocator@D@2@@std@@QBEPBDXZ:NEAR
EXTRN	__imp_??0?$CStringT@DV?$StrTraitMFC_DLL@DV?$ChTraitsCRT@D@ATL@@@@@ATL@@QAE@ABV01@@Z:NEAR
EXTRN	__imp_??0?$CStringT@DV?$StrTraitMFC_DLL@DV?$ChTraitsCRT@D@ATL@@@@@ATL@@QAE@PBD@Z:NEAR
EXTRN	??0CDownloadPercentWnd@@QAE@XZ:NEAR		; CDownloadPercentWnd::CDownloadPercentWnd
EXTRN	?InitScrollBar@CSkinWnd@@QAEXXZ:NEAR		; CSkinWnd::InitScrollBar
EXTRN	__imp__SetWindowPos@28:NEAR
EXTRN	?StopDownWebSubThread@CDownSub@@SAXXZ:NEAR	; CDownSub::StopDownWebSubThread
EXTRN	?ShowWindow@CSkinWnd@@QAEXH@Z:NEAR		; CSkinWnd::ShowWindow
EXTRN	?InitScrollBar@CSubjectChildWnd@@QAEXXZ:NEAR	; CSubjectChildWnd::InitScrollBar
EXTRN	__imp__GetClientRect@8:NEAR
EXTRN	?SetTipText@CSubjectChildWnd@@QAEXV?$CStringT@DV?$StrTraitMFC_DLL@DV?$ChTraitsCRT@D@ATL@@@@@ATL@@00@Z:NEAR ; CSubjectChildWnd::SetTipText
EXTRN	?Navigate@CWebSubWnd@@QAEXXZ:NEAR		; CWebSubWnd::Navigate
EXTRN	?ShowColorBtn@CMainSkinWnd@@QAEXH@Z:NEAR	; CMainSkinWnd::ShowColorBtn
EXTRN	?SetCheckBtn@CMainSkinWnd@@QAEXH@Z:NEAR		; CMainSkinWnd::SetCheckBtn
EXTRN	__imp__LoadCursorA@8:NEAR
EXTRN	?ShowWindow@CSubjectChildWnd@@QAEXH@Z:NEAR	; CSubjectChildWnd::ShowWindow
xdata$x	SEGMENT
$T205198 DD	0ffffffffH
	DD	FLAT:$L205179
	DD	00H
	DD	FLAT:$L205180
	DD	01H
	DD	FLAT:$L205181
	DD	0ffffffffH
	DD	FLAT:$L205181
	DD	03H
	DD	FLAT:$L205180
	DD	03H
	DD	FLAT:$L205182
	DD	05H
	DD	FLAT:$L205183
	DD	0ffffffffH
	DD	FLAT:$L205185
	DD	07H
	DD	FLAT:$L205186
	DD	08H
	DD	FLAT:$L205187
	DD	0ffffffffH
	DD	FLAT:$L205187
	DD	0aH
	DD	FLAT:$L205186
	DD	0aH
	DD	FLAT:$L205188
	DD	0cH
	DD	FLAT:$L205189
	DD	0ffffffffH
	DD	FLAT:$L205191
	DD	0ffffffffH
	DD	FLAT:$L205192
	DD	0ffffffffH
	DD	FLAT:$L205193
	DD	0ffffffffH
	DD	FLAT:$L205194
$T205196 DD	019930520H
	DD	012H
	DD	FLAT:$T205198
	DD	2 DUP(00H)
	DD	2 DUP(00H)
; Function compile flags: /Odt
xdata$x	ENDS
_TEXT	SEGMENT
tv648 = -364						; size = 4
tv571 = -360						; size = 4
tv566 = -356						; size = 4
tv511 = -352						; size = 4
tv439 = -348						; size = 4
tv706 = -344						; size = 4
tv703 = -340						; size = 4
tv716 = -336						; size = 4
tv700 = -332						; size = 4
tv370 = -328						; size = 4
tv697 = -324						; size = 4
tv715 = -320						; size = 4
tv695 = -316						; size = 4
tv714 = -312						; size = 4
tv693 = -308						; size = 4
tv690 = -304						; size = 4
tv713 = -300						; size = 4
tv687 = -296						; size = 4
tv302 = -292						; size = 4
tv684 = -288						; size = 4
tv712 = -284						; size = 4
tv682 = -280						; size = 4
tv711 = -276						; size = 4
tv286 = -272						; size = 4
tv281 = -268						; size = 4
tv240 = -264						; size = 4
tv201 = -260						; size = 4
tv147 = -256						; size = 4
tv71 = -252						; size = 4
tv66 = -248						; size = 4
_this$ = -244						; size = 4
$T205176 = -240						; size = 4
$T205175 = -236						; size = 4
$T205174 = -232						; size = 16
$T205171 = -216						; size = 4
$T205170 = -212						; size = 4
$T205169 = -208						; size = 4
$T205168 = -204						; size = 4
$T205167 = -200						; size = 4
$T205166 = -196						; size = 4
$T205165 = -192						; size = 4
$T205164 = -188						; size = 4
$T205163 = -184						; size = 4
$T205162 = -180						; size = 4
$T205161 = -176						; size = 4
$T205160 = -172						; size = 4
$T205159 = -168						; size = 16
$T205156 = -152						; size = 16
$T205153 = -136						; size = 16
_ClassName$202373 = -120				; size = 4
_ClassName$202357 = -116				; size = 4
_lrect$202348 = -112					; size = 16
_tips$202331 = -96					; size = 4
_tips$202321 = -92					; size = 4
_oneSub$202319 = -88					; size = 4
_idx$202315 = -84					; size = 4
_lClient$202306 = -80					; size = 16
_sub_wnd_h$202308 = -64					; size = 4
_pSub$202314 = -60					; size = 4
_lrect$202305 = -56					; size = 16
_sub_wnd_w$202307 = -40					; size = 4
_lClient$ = -36						; size = 16
_lbReturn$ = -20					; size = 4
_bSepMode$ = -16					; size = 4
__$EHRec$ = -12						; size = 12
_apParent$ = 8						; size = 4
_anID$ = 12						; size = 4
_aPoint$ = 16						; size = 8
?PopSkinWnd@CSkinMgrV1@@UAEHPAVCWnd@@IUtagPOINT@@@Z PROC NEAR ; CSkinMgrV1::PopSkinWnd
; _this$ = ecx

; 115  : {

  00570	55		 push	 ebp
  00571	8b ec		 mov	 ebp, esp
  00573	6a ff		 push	 -1
  00575	68 00 00 00 00	 push	 __ehhandler$?PopSkinWnd@CSkinMgrV1@@UAEHPAVCWnd@@IUtagPOINT@@@Z
  0057a	64 a1 00 00 00
	00		 mov	 eax, DWORD PTR fs:__except_list
  00580	50		 push	 eax
  00581	64 89 25 00 00
	00 00		 mov	 DWORD PTR fs:__except_list, esp
  00588	81 ec 60 01 00
	00		 sub	 esp, 352		; 00000160H
  0058e	89 8d 0c ff ff
	ff		 mov	 DWORD PTR _this$[ebp], ecx

; 116  : 	BOOL lbReturn = false;

  00594	c7 45 ec 00 00
	00 00		 mov	 DWORD PTR _lbReturn$[ebp], 0

; 117  : 	BOOL bSepMode = false;

  0059b	c7 45 f0 00 00
	00 00		 mov	 DWORD PTR _bSepMode$[ebp], 0

; 118  : 	if(AfxGetUIManager()->UIGetLayoutMgr()->GetDisplayMode() == DISPLAY_SEPERATE_MODE)

  005a2	e8 00 00 00 00	 call	 ?AfxGetUIManager@@YAPAVIUIManager@@XZ ; AfxGetUIManager
  005a7	89 85 08 ff ff
	ff		 mov	 DWORD PTR tv66[ebp], eax
  005ad	8b 85 08 ff ff
	ff		 mov	 eax, DWORD PTR tv66[ebp]
  005b3	8b 10		 mov	 edx, DWORD PTR [eax]
  005b5	8b 8d 08 ff ff
	ff		 mov	 ecx, DWORD PTR tv66[ebp]
  005bb	ff 52 24	 call	 DWORD PTR [edx+36]
  005be	89 85 04 ff ff
	ff		 mov	 DWORD PTR tv71[ebp], eax
  005c4	8b 85 04 ff ff
	ff		 mov	 eax, DWORD PTR tv71[ebp]
  005ca	8b 10		 mov	 edx, DWORD PTR [eax]
  005cc	8b 8d 04 ff ff
	ff		 mov	 ecx, DWORD PTR tv71[ebp]
  005d2	ff 52 7c	 call	 DWORD PTR [edx+124]
  005d5	85 c0		 test	 eax, eax
  005d7	75 17		 jne	 SHORT $L202302

; 119  : 	{
; 120  : 		bSepMode = true;

  005d9	c7 45 f0 01 00
	00 00		 mov	 DWORD PTR _bSepMode$[ebp], 1

; 121  : 		m_iCheckTab = 1;

  005e0	8b 85 0c ff ff
	ff		 mov	 eax, DWORD PTR _this$[ebp]
  005e6	c7 80 80 00 00
	00 01 00 00 00	 mov	 DWORD PTR [eax+128], 1
$L202302:

; 122  : 	}
; 123  : 
; 124  : 	if(!mb_HasPopWnd)

  005f0	8b 8d 0c ff ff
	ff		 mov	 ecx, DWORD PTR _this$[ebp]
  005f6	0f b6 51 48	 movzx	 edx, BYTE PTR [ecx+72]
  005fa	85 d2		 test	 edx, edx
  005fc	0f 85 fd 06 00
	00		 jne	 $L202303

; 125  : 	{
; 126  : 		if(mb_isDownWebSub)

  00602	8b 85 0c ff ff
	ff		 mov	 eax, DWORD PTR _this$[ebp]
  00608	0f b6 48 4b	 movzx	 ecx, BYTE PTR [eax+75]
  0060c	85 c9		 test	 ecx, ecx
  0060e	74 19		 je	 SHORT $L202304

; 127  : 		{
; 128  : 			CDownSub::StopDownWebSubThread();

  00610	e8 00 00 00 00	 call	 ?StopDownWebSubThread@CDownSub@@SAXXZ ; CDownSub::StopDownWebSubThread

; 129  : 			mb_isDownWebSub = false;

  00615	8b 95 0c ff ff
	ff		 mov	 edx, DWORD PTR _this$[ebp]
  0061b	c6 42 4b 00	 mov	 BYTE PTR [edx+75], 0

; 130  : 			mb_isDownSubject = false;

  0061f	8b 85 0c ff ff
	ff		 mov	 eax, DWORD PTR _this$[ebp]
  00625	c6 40 4a 00	 mov	 BYTE PTR [eax+74], 0
$L202304:

; 131  : 		}
; 132  : 
; 133  : 		CRect lrect;

  00629	8d 4d c8	 lea	 ecx, DWORD PTR _lrect$202305[ebp]
  0062c	e8 00 00 00 00	 call	 ??0CRect@@QAE@XZ	; CRect::CRect

; 134  : 		GetSkinWndRect( aPoint,lrect );

  00631	8d 4d c8	 lea	 ecx, DWORD PTR _lrect$202305[ebp]
  00634	51		 push	 ecx
  00635	8d 55 10	 lea	 edx, DWORD PTR _aPoint$[ebp]
  00638	52		 push	 edx
  00639	8b 8d 0c ff ff
	ff		 mov	 ecx, DWORD PTR _this$[ebp]
  0063f	e8 00 00 00 00	 call	 ?GetSkinWndRect@CSkinMgrV1@@QAEXABUtagPOINT@@AAVCRect@@@Z ; CSkinMgrV1::GetSkinWndRect

; 135  : 		// main win
; 136  : 		lbReturn = mp_mainSkinWnd->Create( NULL, NULL, NULL , lrect, apParent);

  00644	6a 00		 push	 0
  00646	6a 00		 push	 0
  00648	6a 00		 push	 0
  0064a	8b 45 08	 mov	 eax, DWORD PTR _apParent$[ebp]
  0064d	50		 push	 eax
  0064e	8d 4d c8	 lea	 ecx, DWORD PTR _lrect$202305[ebp]
  00651	51		 push	 ecx
  00652	6a 00		 push	 0
  00654	6a 00		 push	 0
  00656	6a 00		 push	 0
  00658	8b 95 0c ff ff
	ff		 mov	 edx, DWORD PTR _this$[ebp]
  0065e	8b 42 10	 mov	 eax, DWORD PTR [edx+16]
  00661	8b 8d 0c ff ff
	ff		 mov	 ecx, DWORD PTR _this$[ebp]
  00667	8b 49 10	 mov	 ecx, DWORD PTR [ecx+16]
  0066a	8b 10		 mov	 edx, DWORD PTR [eax]
  0066c	ff 92 38 01 00
	00		 call	 DWORD PTR [edx+312]
  00672	89 45 ec	 mov	 DWORD PTR _lbReturn$[ebp], eax

; 137  : 		mp_mainSkinWnd->SetCheckBtn(m_iCheckTab);

  00675	8b 85 0c ff ff
	ff		 mov	 eax, DWORD PTR _this$[ebp]
  0067b	8b 88 80 00 00
	00		 mov	 ecx, DWORD PTR [eax+128]
  00681	51		 push	 ecx
  00682	8b 95 0c ff ff
	ff		 mov	 edx, DWORD PTR _this$[ebp]
  00688	8b 4a 10	 mov	 ecx, DWORD PTR [edx+16]
  0068b	e8 00 00 00 00	 call	 ?SetCheckBtn@CMainSkinWnd@@QAEXH@Z ; CMainSkinWnd::SetCheckBtn

; 138  : 		mp_mainSkinWnd->SetListener(this);

  00690	83 bd 0c ff ff
	ff 00		 cmp	 DWORD PTR _this$[ebp], 0
  00697	74 11		 je	 SHORT $L205151
  00699	8b 85 0c ff ff
	ff		 mov	 eax, DWORD PTR _this$[ebp]
  0069f	83 c0 04	 add	 eax, 4
  006a2	89 85 00 ff ff
	ff		 mov	 DWORD PTR tv147[ebp], eax
  006a8	eb 0a		 jmp	 SHORT $L205152
$L205151:
  006aa	c7 85 00 ff ff
	ff 00 00 00 00	 mov	 DWORD PTR tv147[ebp], 0
$L205152:
  006b4	8b 8d 00 ff ff
	ff		 mov	 ecx, DWORD PTR tv147[ebp]
  006ba	51		 push	 ecx
  006bb	8b 95 0c ff ff
	ff		 mov	 edx, DWORD PTR _this$[ebp]
  006c1	8b 4a 10	 mov	 ecx, DWORD PTR [edx+16]
  006c4	e8 00 00 00 00	 call	 ?SetListener@CMainSkinWnd@@QAEXPAVIEventListener@@@Z ; CMainSkinWnd::SetListener

; 139  : 		mp_mainSkinWnd->SetWndListener(this);

  006c9	8b 85 0c ff ff
	ff		 mov	 eax, DWORD PTR _this$[ebp]
  006cf	50		 push	 eax
  006d0	8b 8d 0c ff ff
	ff		 mov	 ecx, DWORD PTR _this$[ebp]
  006d6	8b 49 10	 mov	 ecx, DWORD PTR [ecx+16]
  006d9	e8 00 00 00 00	 call	 ?SetWndListener@CMainSkinWnd@@QAEXPAVIWndEventListener@@@Z ; CMainSkinWnd::SetWndListener

; 140  : 
; 141  : 		mp_mainSkinWnd->ShowWindow(SW_SHOW);

  006de	6a 05		 push	 5
  006e0	8b 95 0c ff ff
	ff		 mov	 edx, DWORD PTR _this$[ebp]
  006e6	8b 4a 10	 mov	 ecx, DWORD PTR [edx+16]
  006e9	e8 00 00 00 00	 call	 ?ShowWindow@CWnd@@QAEHH@Z ; CWnd::ShowWindow

; 142  : 		mp_mainSkinWnd->RedrawWindow(NULL, NULL, RDW_INVALIDATE | RDW_UPDATENOW | RDW_ERASE | RDW_ALLCHILDREN);

  006ee	68 85 01 00 00	 push	 389			; 00000185H
  006f3	6a 00		 push	 0
  006f5	6a 00		 push	 0
  006f7	8b 85 0c ff ff
	ff		 mov	 eax, DWORD PTR _this$[ebp]
  006fd	8b 48 10	 mov	 ecx, DWORD PTR [eax+16]
  00700	e8 00 00 00 00	 call	 ?RedrawWindow@CWnd@@QAEHPBUtagRECT@@PAVCRgn@@I@Z ; CWnd::RedrawWindow

; 143  : 		RECT lClient;
; 144  : 		GetClientRect(mp_mainSkinWnd->m_hWnd, &lClient);

  00705	8d 4d b0	 lea	 ecx, DWORD PTR _lClient$202306[ebp]
  00708	51		 push	 ecx
  00709	8b 95 0c ff ff
	ff		 mov	 edx, DWORD PTR _this$[ebp]
  0070f	8b 42 10	 mov	 eax, DWORD PTR [edx+16]
  00712	8b 48 20	 mov	 ecx, DWORD PTR [eax+32]
  00715	51		 push	 ecx
  00716	ff 15 00 00 00
	00		 call	 DWORD PTR __imp__GetClientRect@8

; 145  : 		
; 146  : 		int sub_wnd_w,sub_wnd_h;
; 147  : 		if(bSepMode)

  0071c	83 7d f0 00	 cmp	 DWORD PTR _bSepMode$[ebp], 0
  00720	74 10		 je	 SHORT $L202309

; 148  : 		{
; 149  : 			sub_wnd_w = 234;

  00722	c7 45 d8 ea 00
	00 00		 mov	 DWORD PTR _sub_wnd_w$202307[ebp], 234 ; 000000eaH

; 150  : 			sub_wnd_h = 132;

  00729	c7 45 c0 84 00
	00 00		 mov	 DWORD PTR _sub_wnd_h$202308[ebp], 132 ; 00000084H

; 151  : 		}
; 152  : 		else

  00730	eb 0e		 jmp	 SHORT $L202310
$L202309:

; 153  : 		{
; 154  : 			sub_wnd_w = SUB_WND_WIDTH;

  00732	c7 45 d8 27 01
	00 00		 mov	 DWORD PTR _sub_wnd_w$202307[ebp], 295 ; 00000127H

; 155  : 			sub_wnd_h = SUB_WND_HEIGHT;

  00739	c7 45 c0 cf 00
	00 00		 mov	 DWORD PTR _sub_wnd_h$202308[ebp], 207 ; 000000cfH
$L202310:

; 156  : 		}
; 157  : 
; 158  : 
; 159  : 		// skin win
; 160  : 		lbReturn =  mp_skinWnd->Create(NULL,NULL, WS_VISIBLE|WS_CHILD,CRect(3,27,3+sub_wnd_w,sub_wnd_h+27),mp_mainSkinWnd);

  00740	6a 00		 push	 0
  00742	6a 00		 push	 0
  00744	6a 00		 push	 0
  00746	8b 95 0c ff ff
	ff		 mov	 edx, DWORD PTR _this$[ebp]
  0074c	8b 42 10	 mov	 eax, DWORD PTR [edx+16]
  0074f	50		 push	 eax
  00750	8b 4d c0	 mov	 ecx, DWORD PTR _sub_wnd_h$202308[ebp]
  00753	83 c1 1b	 add	 ecx, 27			; 0000001bH
  00756	51		 push	 ecx
  00757	8b 55 d8	 mov	 edx, DWORD PTR _sub_wnd_w$202307[ebp]
  0075a	83 c2 03	 add	 edx, 3
  0075d	52		 push	 edx
  0075e	6a 1b		 push	 27			; 0000001bH
  00760	6a 03		 push	 3
  00762	8d 8d 78 ff ff
	ff		 lea	 ecx, DWORD PTR $T205153[ebp]
  00768	e8 00 00 00 00	 call	 ??0CRect@@QAE@HHHH@Z	; CRect::CRect
  0076d	50		 push	 eax
  0076e	68 00 00 00 50	 push	 1342177280		; 50000000H
  00773	6a 00		 push	 0
  00775	6a 00		 push	 0
  00777	8b 85 0c ff ff
	ff		 mov	 eax, DWORD PTR _this$[ebp]
  0077d	8b 48 14	 mov	 ecx, DWORD PTR [eax+20]
  00780	8b 95 0c ff ff
	ff		 mov	 edx, DWORD PTR _this$[ebp]
  00786	8b 42 14	 mov	 eax, DWORD PTR [edx+20]
  00789	8b 11		 mov	 edx, DWORD PTR [ecx]
  0078b	8b c8		 mov	 ecx, eax
  0078d	ff 92 38 01 00
	00		 call	 DWORD PTR [edx+312]
  00793	89 45 ec	 mov	 DWORD PTR _lbReturn$[ebp], eax

; 161  : 		mp_skinWnd->InitScrollBar(); 

  00796	8b 85 0c ff ff
	ff		 mov	 eax, DWORD PTR _this$[ebp]
  0079c	8b 48 14	 mov	 ecx, DWORD PTR [eax+20]
  0079f	e8 00 00 00 00	 call	 ?InitScrollBar@CSkinWnd@@QAEXXZ ; CSkinWnd::InitScrollBar

; 162  : 		mp_skinWnd->SetSendEventListener(this);	

  007a4	83 bd 0c ff ff
	ff 00		 cmp	 DWORD PTR _this$[ebp], 0
  007ab	74 11		 je	 SHORT $L205154
  007ad	8b 8d 0c ff ff
	ff		 mov	 ecx, DWORD PTR _this$[ebp]
  007b3	83 c1 04	 add	 ecx, 4
  007b6	89 8d fc fe ff
	ff		 mov	 DWORD PTR tv201[ebp], ecx
  007bc	eb 0a		 jmp	 SHORT $L205155
$L205154:
  007be	c7 85 fc fe ff
	ff 00 00 00 00	 mov	 DWORD PTR tv201[ebp], 0
$L205155:
  007c8	8b 95 fc fe ff
	ff		 mov	 edx, DWORD PTR tv201[ebp]
  007ce	52		 push	 edx
  007cf	8b 85 0c ff ff
	ff		 mov	 eax, DWORD PTR _this$[ebp]
  007d5	8b 48 14	 mov	 ecx, DWORD PTR [eax+20]
  007d8	e8 00 00 00 00	 call	 ?SetSendEventListener@CSkinWnd@@QAEXPAVIEventListener@@@Z ; CSkinWnd::SetSendEventListener

; 163  : 		mp_skinWnd->ShowWindow(bSepMode); 

  007dd	8b 4d f0	 mov	 ecx, DWORD PTR _bSepMode$[ebp]
  007e0	51		 push	 ecx
  007e1	8b 95 0c ff ff
	ff		 mov	 edx, DWORD PTR _this$[ebp]
  007e7	8b 4a 14	 mov	 ecx, DWORD PTR [edx+20]
  007ea	e8 00 00 00 00	 call	 ?ShowWindow@CSkinWnd@@QAEXH@Z ; CSkinWnd::ShowWindow

; 164  : 
; 165  : 		// subject win
; 166  : 		lbReturn =  mp_SubjectWnd->Create(NULL,NULL, WS_VISIBLE|WS_CHILD,CRect(3,27,3+sub_wnd_w,sub_wnd_h+27),mp_mainSkinWnd);

  007ef	6a 00		 push	 0
  007f1	6a 00		 push	 0
  007f3	6a 00		 push	 0
  007f5	8b 85 0c ff ff
	ff		 mov	 eax, DWORD PTR _this$[ebp]
  007fb	8b 48 10	 mov	 ecx, DWORD PTR [eax+16]
  007fe	51		 push	 ecx
  007ff	8b 55 c0	 mov	 edx, DWORD PTR _sub_wnd_h$202308[ebp]
  00802	83 c2 1b	 add	 edx, 27			; 0000001bH
  00805	52		 push	 edx
  00806	8b 45 d8	 mov	 eax, DWORD PTR _sub_wnd_w$202307[ebp]
  00809	83 c0 03	 add	 eax, 3
  0080c	50		 push	 eax
  0080d	6a 1b		 push	 27			; 0000001bH
  0080f	6a 03		 push	 3
  00811	8d 8d 68 ff ff
	ff		 lea	 ecx, DWORD PTR $T205156[ebp]
  00817	e8 00 00 00 00	 call	 ??0CRect@@QAE@HHHH@Z	; CRect::CRect
  0081c	50		 push	 eax
  0081d	68 00 00 00 50	 push	 1342177280		; 50000000H
  00822	6a 00		 push	 0
  00824	6a 00		 push	 0
  00826	8b 8d 0c ff ff
	ff		 mov	 ecx, DWORD PTR _this$[ebp]
  0082c	8b 51 18	 mov	 edx, DWORD PTR [ecx+24]
  0082f	8b 85 0c ff ff
	ff		 mov	 eax, DWORD PTR _this$[ebp]
  00835	8b 48 18	 mov	 ecx, DWORD PTR [eax+24]
  00838	8b 12		 mov	 edx, DWORD PTR [edx]
  0083a	ff 92 38 01 00
	00		 call	 DWORD PTR [edx+312]
  00840	89 45 ec	 mov	 DWORD PTR _lbReturn$[ebp], eax

; 167  : 		mp_SubjectWnd->InitScrollBar(); 

  00843	8b 85 0c ff ff
	ff		 mov	 eax, DWORD PTR _this$[ebp]
  00849	8b 48 18	 mov	 ecx, DWORD PTR [eax+24]
  0084c	e8 00 00 00 00	 call	 ?InitScrollBar@CSubjectChildWnd@@QAEXXZ ; CSubjectChildWnd::InitScrollBar

; 168  : 		mp_SubjectWnd->SetSendEventListener(this);

  00851	83 bd 0c ff ff
	ff 00		 cmp	 DWORD PTR _this$[ebp], 0
  00858	74 11		 je	 SHORT $L205157
  0085a	8b 8d 0c ff ff
	ff		 mov	 ecx, DWORD PTR _this$[ebp]
  00860	83 c1 04	 add	 ecx, 4
  00863	89 8d f8 fe ff
	ff		 mov	 DWORD PTR tv240[ebp], ecx
  00869	eb 0a		 jmp	 SHORT $L205158
$L205157:
  0086b	c7 85 f8 fe ff
	ff 00 00 00 00	 mov	 DWORD PTR tv240[ebp], 0
$L205158:
  00875	8b 95 f8 fe ff
	ff		 mov	 edx, DWORD PTR tv240[ebp]
  0087b	52		 push	 edx
  0087c	8b 85 0c ff ff
	ff		 mov	 eax, DWORD PTR _this$[ebp]
  00882	8b 48 18	 mov	 ecx, DWORD PTR [eax+24]
  00885	e8 00 00 00 00	 call	 ?SetSendEventListener@CSubjectChildWnd@@QAEXPAVIEventListener@@@Z ; CSubjectChildWnd::SetSendEventListener

; 169  : 		mp_SubjectWnd->ShowWindow(SW_HIDE); 

  0088a	6a 00		 push	 0
  0088c	8b 8d 0c ff ff
	ff		 mov	 ecx, DWORD PTR _this$[ebp]
  00892	8b 49 18	 mov	 ecx, DWORD PTR [ecx+24]
  00895	e8 00 00 00 00	 call	 ?ShowWindow@CSubjectChildWnd@@QAEXH@Z ; CSubjectChildWnd::ShowWindow

; 170  : 
; 171  : 		//web subject win
; 172  : 		lbReturn =  mp_WebSubWnd->Create(NULL,NULL, WS_CHILD|WS_VISIBLE|WS_CLIPCHILDREN,CRect(3,27,sub_wnd_w+3,sub_wnd_h+27),mp_mainSkinWnd,ID_WND_WEBSUBJECT);

  0089a	6a 00		 push	 0
  0089c	68 38 27 00 00	 push	 10040			; 00002738H
  008a1	8b 95 0c ff ff
	ff		 mov	 edx, DWORD PTR _this$[ebp]
  008a7	8b 42 10	 mov	 eax, DWORD PTR [edx+16]
  008aa	50		 push	 eax
  008ab	8b 4d c0	 mov	 ecx, DWORD PTR _sub_wnd_h$202308[ebp]
  008ae	83 c1 1b	 add	 ecx, 27			; 0000001bH
  008b1	51		 push	 ecx
  008b2	8b 55 d8	 mov	 edx, DWORD PTR _sub_wnd_w$202307[ebp]
  008b5	83 c2 03	 add	 edx, 3
  008b8	52		 push	 edx
  008b9	6a 1b		 push	 27			; 0000001bH
  008bb	6a 03		 push	 3
  008bd	8d 8d 58 ff ff
	ff		 lea	 ecx, DWORD PTR $T205159[ebp]
  008c3	e8 00 00 00 00	 call	 ??0CRect@@QAE@HHHH@Z	; CRect::CRect
  008c8	50		 push	 eax
  008c9	68 00 00 00 52	 push	 1375731712		; 52000000H
  008ce	6a 00		 push	 0
  008d0	6a 00		 push	 0
  008d2	8b 85 0c ff ff
	ff		 mov	 eax, DWORD PTR _this$[ebp]
  008d8	8b 48 1c	 mov	 ecx, DWORD PTR [eax+28]
  008db	8b 95 0c ff ff
	ff		 mov	 edx, DWORD PTR _this$[ebp]
  008e1	8b 42 1c	 mov	 eax, DWORD PTR [edx+28]
  008e4	8b 11		 mov	 edx, DWORD PTR [ecx]
  008e6	8b c8		 mov	 ecx, eax
  008e8	ff 52 5c	 call	 DWORD PTR [edx+92]
  008eb	89 45 ec	 mov	 DWORD PTR _lbReturn$[ebp], eax

; 173  : 		mp_WebSubWnd->Navigate();

  008ee	8b 85 0c ff ff
	ff		 mov	 eax, DWORD PTR _this$[ebp]
  008f4	8b 48 1c	 mov	 ecx, DWORD PTR [eax+28]
  008f7	e8 00 00 00 00	 call	 ?Navigate@CWebSubWnd@@QAEXXZ ; CWebSubWnd::Navigate

; 174  : 		mp_WebSubWnd->ShowWindow(!bSepMode); 

  008fc	33 c9		 xor	 ecx, ecx
  008fe	83 7d f0 00	 cmp	 DWORD PTR _bSepMode$[ebp], 0
  00902	0f 94 c1	 sete	 cl
  00905	51		 push	 ecx
  00906	8b 95 0c ff ff
	ff		 mov	 edx, DWORD PTR _this$[ebp]
  0090c	8b 4a 1c	 mov	 ecx, DWORD PTR [edx+28]
  0090f	e8 00 00 00 00	 call	 ?ShowWindow@CWnd@@QAEHH@Z ; CWnd::ShowWindow

; 175  : 
; 176  : 		SubjectData*    pSub = AfxGetUIManager()->UIGetSkinMgr()->GetSubject();

  00914	e8 00 00 00 00	 call	 ?AfxGetUIManager@@YAPAVIUIManager@@XZ ; AfxGetUIManager
  00919	89 85 f4 fe ff
	ff		 mov	 DWORD PTR tv281[ebp], eax
  0091f	8b 85 f4 fe ff
	ff		 mov	 eax, DWORD PTR tv281[ebp]
  00925	8b 10		 mov	 edx, DWORD PTR [eax]
  00927	8b 8d f4 fe ff
	ff		 mov	 ecx, DWORD PTR tv281[ebp]
  0092d	ff 52 28	 call	 DWORD PTR [edx+40]
  00930	89 85 f0 fe ff
	ff		 mov	 DWORD PTR tv286[ebp], eax
  00936	8b 85 f0 fe ff
	ff		 mov	 eax, DWORD PTR tv286[ebp]
  0093c	8b 10		 mov	 edx, DWORD PTR [eax]
  0093e	8b 8d f0 fe ff
	ff		 mov	 ecx, DWORD PTR tv286[ebp]
  00944	ff 52 24	 call	 DWORD PTR [edx+36]
  00947	89 45 c4	 mov	 DWORD PTR _pSub$202314[ebp], eax

; 177  : 		for(size_t idx = 0 ;idx < pSub->vecSubject.size();idx++ )

  0094a	c7 45 ac 00 00
	00 00		 mov	 DWORD PTR _idx$202315[ebp], 0
  00951	eb 09		 jmp	 SHORT $L202316
$L202317:
  00953	8b 45 ac	 mov	 eax, DWORD PTR _idx$202315[ebp]
  00956	83 c0 01	 add	 eax, 1
  00959	89 45 ac	 mov	 DWORD PTR _idx$202315[ebp], eax
$L202316:
  0095c	8b 4d c4	 mov	 ecx, DWORD PTR _pSub$202314[ebp]
  0095f	83 c1 20	 add	 ecx, 32			; 00000020H
  00962	e8 00 00 00 00	 call	 ?size@?$vector@UOneSubject@@V?$allocator@UOneSubject@@@std@@@std@@QBEIXZ ; std::vector<OneSubject,std::allocator<OneSubject> >::size
  00967	39 45 ac	 cmp	 DWORD PTR _idx$202315[ebp], eax
  0096a	0f 83 9f 02 00
	00		 jae	 $L202318

; 178  : 		{
; 179  : 			OneSubject& oneSub = pSub->vecSubject[idx];			

  00970	8b 4d ac	 mov	 ecx, DWORD PTR _idx$202315[ebp]
  00973	51		 push	 ecx
  00974	8b 4d c4	 mov	 ecx, DWORD PTR _pSub$202314[ebp]
  00977	83 c1 20	 add	 ecx, 32			; 00000020H
  0097a	e8 00 00 00 00	 call	 ??A?$vector@UOneSubject@@V?$allocator@UOneSubject@@@std@@@std@@QAEAAUOneSubject@@I@Z ; std::vector<OneSubject,std::allocator<OneSubject> >::operator[]
  0097f	89 45 a8	 mov	 DWORD PTR _oneSub$202319[ebp], eax

; 180  : 
; 181  : 			if( oneSub.bNeedDown )

  00982	8b 55 a8	 mov	 edx, DWORD PTR _oneSub$202319[ebp]
  00985	0f b6 42 6c	 movzx	 eax, BYTE PTR [edx+108]
  00989	85 c0		 test	 eax, eax
  0098b	0f 84 3f 01 00
	00		 je	 $L202320

; 182  : 			{
; 183  : 				CString tips = CString(": ") + oneSub.strShowName.c_str() + "\r\n: ";

  00991	68 00 00 00 00	 push	 OFFSET FLAT:$SG202326
  00996	8d 8d 54 ff ff
	ff		 lea	 ecx, DWORD PTR $T205160[ebp]
  0099c	ff 15 00 00 00
	00		 call	 DWORD PTR __imp_??0?$CStringT@DV?$StrTraitMFC_DLL@DV?$ChTraitsCRT@D@ATL@@@@@ATL@@QAE@PBD@Z
  009a2	89 85 ec fe ff
	ff		 mov	 DWORD PTR tv711[ebp], eax
  009a8	8b 8d ec fe ff
	ff		 mov	 ecx, DWORD PTR tv711[ebp]
  009ae	89 8d e8 fe ff
	ff		 mov	 DWORD PTR tv682[ebp], ecx
  009b4	c7 45 fc 00 00
	00 00		 mov	 DWORD PTR __$EHRec$[ebp+8], 0
  009bb	8b 4d a8	 mov	 ecx, DWORD PTR _oneSub$202319[ebp]
  009be	83 c1 38	 add	 ecx, 56			; 00000038H
  009c1	ff 15 00 00 00
	00		 call	 DWORD PTR __imp_?c_str@?$basic_string@DU?$char_traits@D@std@@V?$allocator@D@2@@std@@QBEPBDXZ
  009c7	50		 push	 eax
  009c8	8b 95 e8 fe ff
	ff		 mov	 edx, DWORD PTR tv682[ebp]
  009ce	52		 push	 edx
  009cf	8d 85 50 ff ff
	ff		 lea	 eax, DWORD PTR $T205161[ebp]
  009d5	50		 push	 eax
  009d6	e8 00 00 00 00	 call	 ??HATL@@YA?AV?$CStringT@DV?$StrTraitMFC_DLL@DV?$ChTraitsCRT@D@ATL@@@@@0@ABV10@PBD@Z ; ATL::operator+
  009db	83 c4 0c	 add	 esp, 12			; 0000000cH
  009de	89 85 e4 fe ff
	ff		 mov	 DWORD PTR tv712[ebp], eax
  009e4	8b 8d e4 fe ff
	ff		 mov	 ecx, DWORD PTR tv712[ebp]
  009ea	89 8d e0 fe ff
	ff		 mov	 DWORD PTR tv684[ebp], ecx
  009f0	c6 45 fc 01	 mov	 BYTE PTR __$EHRec$[ebp+8], 1
  009f4	68 00 00 00 00	 push	 OFFSET FLAT:$SG202325
  009f9	8b 95 e0 fe ff
	ff		 mov	 edx, DWORD PTR tv684[ebp]
  009ff	52		 push	 edx
  00a00	8d 45 a4	 lea	 eax, DWORD PTR _tips$202321[ebp]
  00a03	50		 push	 eax
  00a04	e8 00 00 00 00	 call	 ??HATL@@YA?AV?$CStringT@DV?$StrTraitMFC_DLL@DV?$ChTraitsCRT@D@ATL@@@@@0@ABV10@PBD@Z ; ATL::operator+
  00a09	83 c4 0c	 add	 esp, 12			; 0000000cH
  00a0c	c6 45 fc 04	 mov	 BYTE PTR __$EHRec$[ebp+8], 4
  00a10	8d 8d 50 ff ff
	ff		 lea	 ecx, DWORD PTR $T205161[ebp]
  00a16	ff 15 00 00 00
	00		 call	 DWORD PTR __imp_??1?$CStringT@DV?$StrTraitMFC_DLL@DV?$ChTraitsCRT@D@ATL@@@@@ATL@@QAE@XZ
  00a1c	c6 45 fc 03	 mov	 BYTE PTR __$EHRec$[ebp+8], 3
  00a20	8d 8d 54 ff ff
	ff		 lea	 ecx, DWORD PTR $T205160[ebp]
  00a26	ff 15 00 00 00
	00		 call	 DWORD PTR __imp_??1?$CStringT@DV?$StrTraitMFC_DLL@DV?$ChTraitsCRT@D@ATL@@@@@ATL@@QAE@XZ

; 184  : 				mp_SubjectWnd->SetTipText( oneSub.strSubName.c_str(),tips,oneSub.strShowName.c_str() );

  00a2c	8b 4d a8	 mov	 ecx, DWORD PTR _oneSub$202319[ebp]
  00a2f	83 c1 38	 add	 ecx, 56			; 00000038H
  00a32	ff 15 00 00 00
	00		 call	 DWORD PTR __imp_?c_str@?$basic_string@DU?$char_traits@D@std@@V?$allocator@D@2@@std@@QBEPBDXZ
  00a38	51		 push	 ecx
  00a39	8b cc		 mov	 ecx, esp
  00a3b	89 a5 4c ff ff
	ff		 mov	 DWORD PTR $T205162[ebp], esp
  00a41	50		 push	 eax
  00a42	ff 15 00 00 00
	00		 call	 DWORD PTR __imp_??0?$CStringT@DV?$StrTraitMFC_DLL@DV?$ChTraitsCRT@D@ATL@@@@@ATL@@QAE@PBD@Z
  00a48	89 85 dc fe ff
	ff		 mov	 DWORD PTR tv302[ebp], eax
  00a4e	8b 8d dc fe ff
	ff		 mov	 ecx, DWORD PTR tv302[ebp]
  00a54	89 8d d8 fe ff
	ff		 mov	 DWORD PTR tv687[ebp], ecx
  00a5a	c6 45 fc 05	 mov	 BYTE PTR __$EHRec$[ebp+8], 5
  00a5e	51		 push	 ecx
  00a5f	8b cc		 mov	 ecx, esp
  00a61	89 a5 48 ff ff
	ff		 mov	 DWORD PTR $T205163[ebp], esp
  00a67	8d 55 a4	 lea	 edx, DWORD PTR _tips$202321[ebp]
  00a6a	52		 push	 edx
  00a6b	ff 15 00 00 00
	00		 call	 DWORD PTR __imp_??0?$CStringT@DV?$StrTraitMFC_DLL@DV?$ChTraitsCRT@D@ATL@@@@@ATL@@QAE@ABV01@@Z
  00a71	89 85 d4 fe ff
	ff		 mov	 DWORD PTR tv713[ebp], eax
  00a77	8b 85 d4 fe ff
	ff		 mov	 eax, DWORD PTR tv713[ebp]
  00a7d	89 85 d0 fe ff
	ff		 mov	 DWORD PTR tv690[ebp], eax
  00a83	c6 45 fc 06	 mov	 BYTE PTR __$EHRec$[ebp+8], 6
  00a87	8b 4d a8	 mov	 ecx, DWORD PTR _oneSub$202319[ebp]
  00a8a	83 c1 1c	 add	 ecx, 28			; 0000001cH
  00a8d	ff 15 00 00 00
	00		 call	 DWORD PTR __imp_?c_str@?$basic_string@DU?$char_traits@D@std@@V?$allocator@D@2@@std@@QBEPBDXZ
  00a93	51		 push	 ecx
  00a94	8b cc		 mov	 ecx, esp
  00a96	89 a5 44 ff ff
	ff		 mov	 DWORD PTR $T205164[ebp], esp
  00a9c	50		 push	 eax
  00a9d	ff 15 00 00 00
	00		 call	 DWORD PTR __imp_??0?$CStringT@DV?$StrTraitMFC_DLL@DV?$ChTraitsCRT@D@ATL@@@@@ATL@@QAE@PBD@Z
  00aa3	89 85 cc fe ff
	ff		 mov	 DWORD PTR tv693[ebp], eax
  00aa9	8b 8d 0c ff ff
	ff		 mov	 ecx, DWORD PTR _this$[ebp]
  00aaf	8b 49 18	 mov	 ecx, DWORD PTR [ecx+24]
  00ab2	c6 45 fc 03	 mov	 BYTE PTR __$EHRec$[ebp+8], 3
  00ab6	e8 00 00 00 00	 call	 ?SetTipText@CSubjectChildWnd@@QAEXV?$CStringT@DV?$StrTraitMFC_DLL@DV?$ChTraitsCRT@D@ATL@@@@@ATL@@00@Z ; CSubjectChildWnd::SetTipText

; 185  : 
; 186  : 			}

  00abb	c7 45 fc ff ff
	ff ff		 mov	 DWORD PTR __$EHRec$[ebp+8], -1
  00ac2	8d 4d a4	 lea	 ecx, DWORD PTR _tips$202321[ebp]
  00ac5	ff 15 00 00 00
	00		 call	 DWORD PTR __imp_??1?$CStringT@DV?$StrTraitMFC_DLL@DV?$ChTraitsCRT@D@ATL@@@@@ATL@@QAE@XZ

; 187  : 			else

  00acb	e9 3a 01 00 00	 jmp	 $L202330
$L202320:

; 188  : 			{
; 189  : 				CString tips = CString(": ") + oneSub.strShowName.c_str() + "\r\n: ";

  00ad0	68 00 00 00 00	 push	 OFFSET FLAT:$SG202336
  00ad5	8d 8d 40 ff ff
	ff		 lea	 ecx, DWORD PTR $T205165[ebp]
  00adb	ff 15 00 00 00
	00		 call	 DWORD PTR __imp_??0?$CStringT@DV?$StrTraitMFC_DLL@DV?$ChTraitsCRT@D@ATL@@@@@ATL@@QAE@PBD@Z
  00ae1	89 85 c8 fe ff
	ff		 mov	 DWORD PTR tv714[ebp], eax
  00ae7	8b 95 c8 fe ff
	ff		 mov	 edx, DWORD PTR tv714[ebp]
  00aed	89 95 c4 fe ff
	ff		 mov	 DWORD PTR tv695[ebp], edx
  00af3	c7 45 fc 07 00
	00 00		 mov	 DWORD PTR __$EHRec$[ebp+8], 7
  00afa	8b 4d a8	 mov	 ecx, DWORD PTR _oneSub$202319[ebp]
  00afd	83 c1 38	 add	 ecx, 56			; 00000038H
  00b00	ff 15 00 00 00
	00		 call	 DWORD PTR __imp_?c_str@?$basic_string@DU?$char_traits@D@std@@V?$allocator@D@2@@std@@QBEPBDXZ
  00b06	50		 push	 eax
  00b07	8b 85 c4 fe ff
	ff		 mov	 eax, DWORD PTR tv695[ebp]
  00b0d	50		 push	 eax
  00b0e	8d 8d 3c ff ff
	ff		 lea	 ecx, DWORD PTR $T205166[ebp]
  00b14	51		 push	 ecx
  00b15	e8 00 00 00 00	 call	 ??HATL@@YA?AV?$CStringT@DV?$StrTraitMFC_DLL@DV?$ChTraitsCRT@D@ATL@@@@@0@ABV10@PBD@Z ; ATL::operator+
  00b1a	83 c4 0c	 add	 esp, 12			; 0000000cH
  00b1d	89 85 c0 fe ff
	ff		 mov	 DWORD PTR tv715[ebp], eax
  00b23	8b 95 c0 fe ff
	ff		 mov	 edx, DWORD PTR tv715[ebp]
  00b29	89 95 bc fe ff
	ff		 mov	 DWORD PTR tv697[ebp], edx
  00b2f	c6 45 fc 08	 mov	 BYTE PTR __$EHRec$[ebp+8], 8
  00b33	68 00 00 00 00	 push	 OFFSET FLAT:$SG202335
  00b38	8b 85 bc fe ff
	ff		 mov	 eax, DWORD PTR tv697[ebp]
  00b3e	50		 push	 eax
  00b3f	8d 4d a0	 lea	 ecx, DWORD PTR _tips$202331[ebp]
  00b42	51		 push	 ecx
  00b43	e8 00 00 00 00	 call	 ??HATL@@YA?AV?$CStringT@DV?$StrTraitMFC_DLL@DV?$ChTraitsCRT@D@ATL@@@@@0@ABV10@PBD@Z ; ATL::operator+
  00b48	83 c4 0c	 add	 esp, 12			; 0000000cH
  00b4b	c6 45 fc 0b	 mov	 BYTE PTR __$EHRec$[ebp+8], 11 ; 0000000bH
  00b4f	8d 8d 3c ff ff
	ff		 lea	 ecx, DWORD PTR $T205166[ebp]
  00b55	ff 15 00 00 00
	00		 call	 DWORD PTR __imp_??1?$CStringT@DV?$StrTraitMFC_DLL@DV?$ChTraitsCRT@D@ATL@@@@@ATL@@QAE@XZ
  00b5b	c6 45 fc 0a	 mov	 BYTE PTR __$EHRec$[ebp+8], 10 ; 0000000aH
  00b5f	8d 8d 40 ff ff
	ff		 lea	 ecx, DWORD PTR $T205165[ebp]
  00b65	ff 15 00 00 00
	00		 call	 DWORD PTR __imp_??1?$CStringT@DV?$StrTraitMFC_DLL@DV?$ChTraitsCRT@D@ATL@@@@@ATL@@QAE@XZ

; 190  : 				mp_SubjectWnd->SetTipText( oneSub.strSubName.c_str(),tips,oneSub.strShowName.c_str());

  00b6b	8b 4d a8	 mov	 ecx, DWORD PTR _oneSub$202319[ebp]
  00b6e	83 c1 38	 add	 ecx, 56			; 00000038H
  00b71	ff 15 00 00 00
	00		 call	 DWORD PTR __imp_?c_str@?$basic_string@DU?$char_traits@D@std@@V?$allocator@D@2@@std@@QBEPBDXZ
  00b77	51		 push	 ecx
  00b78	8b cc		 mov	 ecx, esp
  00b7a	89 a5 38 ff ff
	ff		 mov	 DWORD PTR $T205167[ebp], esp
  00b80	50		 push	 eax
  00b81	ff 15 00 00 00
	00		 call	 DWORD PTR __imp_??0?$CStringT@DV?$StrTraitMFC_DLL@DV?$ChTraitsCRT@D@ATL@@@@@ATL@@QAE@PBD@Z
  00b87	89 85 b8 fe ff
	ff		 mov	 DWORD PTR tv370[ebp], eax
  00b8d	8b 95 b8 fe ff
	ff		 mov	 edx, DWORD PTR tv370[ebp]
  00b93	89 95 b4 fe ff
	ff		 mov	 DWORD PTR tv700[ebp], edx
  00b99	c6 45 fc 0c	 mov	 BYTE PTR __$EHRec$[ebp+8], 12 ; 0000000cH
  00b9d	51		 push	 ecx
  00b9e	8b cc		 mov	 ecx, esp
  00ba0	89 a5 34 ff ff
	ff		 mov	 DWORD PTR $T205168[ebp], esp
  00ba6	8d 45 a0	 lea	 eax, DWORD PTR _tips$202331[ebp]
  00ba9	50		 push	 eax
  00baa	ff 15 00 00 00
	00		 call	 DWORD PTR __imp_??0?$CStringT@DV?$StrTraitMFC_DLL@DV?$ChTraitsCRT@D@ATL@@@@@ATL@@QAE@ABV01@@Z
  00bb0	89 85 b0 fe ff
	ff		 mov	 DWORD PTR tv716[ebp], eax
  00bb6	8b 8d b0 fe ff
	ff		 mov	 ecx, DWORD PTR tv716[ebp]
  00bbc	89 8d ac fe ff
	ff		 mov	 DWORD PTR tv703[ebp], ecx
  00bc2	c6 45 fc 0d	 mov	 BYTE PTR __$EHRec$[ebp+8], 13 ; 0000000dH
  00bc6	8b 4d a8	 mov	 ecx, DWORD PTR _oneSub$202319[ebp]
  00bc9	83 c1 1c	 add	 ecx, 28			; 0000001cH
  00bcc	ff 15 00 00 00
	00		 call	 DWORD PTR __imp_?c_str@?$basic_string@DU?$char_traits@D@std@@V?$allocator@D@2@@std@@QBEPBDXZ
  00bd2	51		 push	 ecx
  00bd3	8b cc		 mov	 ecx, esp
  00bd5	89 a5 30 ff ff
	ff		 mov	 DWORD PTR $T205169[ebp], esp
  00bdb	50		 push	 eax
  00bdc	ff 15 00 00 00
	00		 call	 DWORD PTR __imp_??0?$CStringT@DV?$StrTraitMFC_DLL@DV?$ChTraitsCRT@D@ATL@@@@@ATL@@QAE@PBD@Z
  00be2	89 85 a8 fe ff
	ff		 mov	 DWORD PTR tv706[ebp], eax
  00be8	8b 95 0c ff ff
	ff		 mov	 edx, DWORD PTR _this$[ebp]
  00bee	8b 4a 18	 mov	 ecx, DWORD PTR [edx+24]
  00bf1	c6 45 fc 0a	 mov	 BYTE PTR __$EHRec$[ebp+8], 10 ; 0000000aH
  00bf5	e8 00 00 00 00	 call	 ?SetTipText@CSubjectChildWnd@@QAEXV?$CStringT@DV?$StrTraitMFC_DLL@DV?$ChTraitsCRT@D@ATL@@@@@ATL@@00@Z ; CSubjectChildWnd::SetTipText

; 191  : 			}

  00bfa	c7 45 fc ff ff
	ff ff		 mov	 DWORD PTR __$EHRec$[ebp+8], -1
  00c01	8d 4d a0	 lea	 ecx, DWORD PTR _tips$202331[ebp]
  00c04	ff 15 00 00 00
	00		 call	 DWORD PTR __imp_??1?$CStringT@DV?$StrTraitMFC_DLL@DV?$ChTraitsCRT@D@ATL@@@@@ATL@@QAE@XZ
$L202330:

; 192  : 		}

  00c0a	e9 44 fd ff ff	 jmp	 $L202317
$L202318:

; 193  : 
; 194  : 	
; 195  : 		switch(m_iCheckTab)

  00c0f	8b 85 0c ff ff
	ff		 mov	 eax, DWORD PTR _this$[ebp]
  00c15	8b 88 80 00 00
	00		 mov	 ecx, DWORD PTR [eax+128]
  00c1b	89 8d a4 fe ff
	ff		 mov	 DWORD PTR tv439[ebp], ecx
  00c21	83 bd a4 fe ff
	ff 00		 cmp	 DWORD PTR tv439[ebp], 0
  00c28	74 17		 je	 SHORT $L202344
  00c2a	83 bd a4 fe ff
	ff 01		 cmp	 DWORD PTR tv439[ebp], 1
  00c31	74 4a		 je	 SHORT $L202345
  00c33	83 bd a4 fe ff
	ff 02		 cmp	 DWORD PTR tv439[ebp], 2
  00c3a	74 7d		 je	 SHORT $L202346
  00c3c	e9 b2 00 00 00	 jmp	 $L202341
$L202344:

; 196  : 		{
; 197  : 		case 0:
; 198  : 			mp_skinWnd->ShowWindow(SW_HIDE);

  00c41	6a 00		 push	 0
  00c43	8b 95 0c ff ff
	ff		 mov	 edx, DWORD PTR _this$[ebp]
  00c49	8b 4a 14	 mov	 ecx, DWORD PTR [edx+20]
  00c4c	e8 00 00 00 00	 call	 ?ShowWindow@CSkinWnd@@QAEXH@Z ; CSkinWnd::ShowWindow

; 199  : 			mp_SubjectWnd->ShowWindow(SW_SHOW);

  00c51	6a 05		 push	 5
  00c53	8b 85 0c ff ff
	ff		 mov	 eax, DWORD PTR _this$[ebp]
  00c59	8b 48 18	 mov	 ecx, DWORD PTR [eax+24]
  00c5c	e8 00 00 00 00	 call	 ?ShowWindow@CSubjectChildWnd@@QAEXH@Z ; CSubjectChildWnd::ShowWindow

; 200  : 			mp_WebSubWnd->ShowWindow(SW_HIDE);

  00c61	6a 00		 push	 0
  00c63	8b 8d 0c ff ff
	ff		 mov	 ecx, DWORD PTR _this$[ebp]
  00c69	8b 49 1c	 mov	 ecx, DWORD PTR [ecx+28]
  00c6c	e8 00 00 00 00	 call	 ?ShowWindow@CWnd@@QAEHH@Z ; CWnd::ShowWindow

; 201  : 			m_bShowSkinWnd = FALSE;

  00c71	8b 95 0c ff ff
	ff		 mov	 edx, DWORD PTR _this$[ebp]
  00c77	c6 42 64 00	 mov	 BYTE PTR [edx+100], 0

; 202  : 			break;

  00c7b	eb 76		 jmp	 SHORT $L202341
$L202345:

; 203  : 		case 1:
; 204  : 			mp_skinWnd->ShowWindow(SW_SHOW);

  00c7d	6a 05		 push	 5
  00c7f	8b 85 0c ff ff
	ff		 mov	 eax, DWORD PTR _this$[ebp]
  00c85	8b 48 14	 mov	 ecx, DWORD PTR [eax+20]
  00c88	e8 00 00 00 00	 call	 ?ShowWindow@CSkinWnd@@QAEXH@Z ; CSkinWnd::ShowWindow

; 205  : 			mp_SubjectWnd->ShowWindow(SW_HIDE);

  00c8d	6a 00		 push	 0
  00c8f	8b 8d 0c ff ff
	ff		 mov	 ecx, DWORD PTR _this$[ebp]
  00c95	8b 49 18	 mov	 ecx, DWORD PTR [ecx+24]
  00c98	e8 00 00 00 00	 call	 ?ShowWindow@CSubjectChildWnd@@QAEXH@Z ; CSubjectChildWnd::ShowWindow

; 206  : 			mp_WebSubWnd->ShowWindow(SW_HIDE);

  00c9d	6a 00		 push	 0
  00c9f	8b 95 0c ff ff
	ff		 mov	 edx, DWORD PTR _this$[ebp]
  00ca5	8b 4a 1c	 mov	 ecx, DWORD PTR [edx+28]
  00ca8	e8 00 00 00 00	 call	 ?ShowWindow@CWnd@@QAEHH@Z ; CWnd::ShowWindow

; 207  : 			m_bShowSkinWnd = TRUE;

  00cad	8b 85 0c ff ff
	ff		 mov	 eax, DWORD PTR _this$[ebp]
  00cb3	c6 40 64 01	 mov	 BYTE PTR [eax+100], 1

; 208  : 			break;

  00cb7	eb 3a		 jmp	 SHORT $L202341
$L202346:

; 209  : 		case 2:
; 210  : 			mp_skinWnd->ShowWindow(SW_HIDE);

  00cb9	6a 00		 push	 0
  00cbb	8b 8d 0c ff ff
	ff		 mov	 ecx, DWORD PTR _this$[ebp]
  00cc1	8b 49 14	 mov	 ecx, DWORD PTR [ecx+20]
  00cc4	e8 00 00 00 00	 call	 ?ShowWindow@CSkinWnd@@QAEXH@Z ; CSkinWnd::ShowWindow

; 211  : 			mp_SubjectWnd->ShowWindow(SW_HIDE);

  00cc9	6a 00		 push	 0
  00ccb	8b 95 0c ff ff
	ff		 mov	 edx, DWORD PTR _this$[ebp]
  00cd1	8b 4a 18	 mov	 ecx, DWORD PTR [edx+24]
  00cd4	e8 00 00 00 00	 call	 ?ShowWindow@CSubjectChildWnd@@QAEXH@Z ; CSubjectChildWnd::ShowWindow

; 212  : 			mp_WebSubWnd->ShowWindow(SW_SHOW);

  00cd9	6a 05		 push	 5
  00cdb	8b 85 0c ff ff
	ff		 mov	 eax, DWORD PTR _this$[ebp]
  00ce1	8b 48 1c	 mov	 ecx, DWORD PTR [eax+28]
  00ce4	e8 00 00 00 00	 call	 ?ShowWindow@CWnd@@QAEHH@Z ; CWnd::ShowWindow

; 213  : 			m_bShowSkinWnd = FALSE;

  00ce9	8b 8d 0c ff ff
	ff		 mov	 ecx, DWORD PTR _this$[ebp]
  00cef	c6 41 64 00	 mov	 BYTE PTR [ecx+100], 0
$L202341:

; 214  : 			break;		
; 215  : 		}	
; 216  : 
; 217  : 
; 218  : 		mb_HasPopWnd	= true;

  00cf3	8b 95 0c ff ff
	ff		 mov	 edx, DWORD PTR _this$[ebp]
  00cf9	c6 42 48 01	 mov	 BYTE PTR [edx+72], 1

; 219  : 		//m_bShowSkinWnd	= (AfxGetUIManager()->UIGetLayoutMgr()->GetDisplayMode() == DISPLAY_SEPERATE_MODE );		
; 220  : 	}
; 221  : 	else

  00cfd	eb 4e		 jmp	 SHORT $L202347
$L202303:

; 222  : 	{
; 223  : 		CRect lrect;

  00cff	8d 4d 90	 lea	 ecx, DWORD PTR _lrect$202348[ebp]
  00d02	e8 00 00 00 00	 call	 ??0CRect@@QAE@XZ	; CRect::CRect

; 224  : 		GetSkinWndRect( aPoint,lrect );

  00d07	8d 45 90	 lea	 eax, DWORD PTR _lrect$202348[ebp]
  00d0a	50		 push	 eax
  00d0b	8d 4d 10	 lea	 ecx, DWORD PTR _aPoint$[ebp]
  00d0e	51		 push	 ecx
  00d0f	8b 8d 0c ff ff
	ff		 mov	 ecx, DWORD PTR _this$[ebp]
  00d15	e8 00 00 00 00	 call	 ?GetSkinWndRect@CSkinMgrV1@@QAEXABUtagPOINT@@AAVCRect@@@Z ; CSkinMgrV1::GetSkinWndRect

; 225  : 
; 226  : 		mp_mainSkinWnd->MoveWindow(&lrect,true);

  00d1a	6a 01		 push	 1
  00d1c	8d 55 90	 lea	 edx, DWORD PTR _lrect$202348[ebp]
  00d1f	52		 push	 edx
  00d20	8b 85 0c ff ff
	ff		 mov	 eax, DWORD PTR _this$[ebp]
  00d26	8b 48 10	 mov	 ecx, DWORD PTR [eax+16]
  00d29	e8 00 00 00 00	 call	 ?MoveWindow@CWnd@@QAEXPBUtagRECT@@H@Z ; CWnd::MoveWindow

; 227  : 		SetWindowPos(mp_mainSkinWnd->m_hWnd,HWND_TOP,0,0,0,0,SWP_NOACTIVATE|SWP_NOSIZE|SWP_NOMOVE);

  00d2e	6a 13		 push	 19			; 00000013H
  00d30	6a 00		 push	 0
  00d32	6a 00		 push	 0
  00d34	6a 00		 push	 0
  00d36	6a 00		 push	 0
  00d38	6a 00		 push	 0
  00d3a	8b 8d 0c ff ff
	ff		 mov	 ecx, DWORD PTR _this$[ebp]
  00d40	8b 51 10	 mov	 edx, DWORD PTR [ecx+16]
  00d43	8b 42 20	 mov	 eax, DWORD PTR [edx+32]
  00d46	50		 push	 eax
  00d47	ff 15 00 00 00
	00		 call	 DWORD PTR __imp__SetWindowPos@28
$L202347:

; 228  : 	}
; 229  : 	
; 230  : 	//
; 231  : 	if(!mp_downloadSkin )

  00d4d	8b 8d 0c ff ff
	ff		 mov	 ecx, DWORD PTR _this$[ebp]
  00d53	83 79 20 00	 cmp	 DWORD PTR [ecx+32], 0
  00d57	75 5f		 jne	 SHORT $L202350

; 232  : 	{
; 233  : 		mp_downloadSkin = new CDownloadPercentWnd;

  00d59	68 30 02 00 00	 push	 560			; 00000230H
  00d5e	e8 00 00 00 00	 call	 ??2CObject@@SGPAXI@Z	; CObject::operator new
  00d63	89 85 28 ff ff
	ff		 mov	 DWORD PTR $T205171[ebp], eax
  00d69	c7 45 fc 0e 00
	00 00		 mov	 DWORD PTR __$EHRec$[ebp+8], 14 ; 0000000eH
  00d70	83 bd 28 ff ff
	ff 00		 cmp	 DWORD PTR $T205171[ebp], 0
  00d77	74 13		 je	 SHORT $L205172
  00d79	8b 8d 28 ff ff
	ff		 mov	 ecx, DWORD PTR $T205171[ebp]
  00d7f	e8 00 00 00 00	 call	 ??0CDownloadPercentWnd@@QAE@XZ ; CDownloadPercentWnd::CDownloadPercentWnd
  00d84	89 85 a0 fe ff
	ff		 mov	 DWORD PTR tv511[ebp], eax
  00d8a	eb 0a		 jmp	 SHORT $L205173
$L205172:
  00d8c	c7 85 a0 fe ff
	ff 00 00 00 00	 mov	 DWORD PTR tv511[ebp], 0
$L205173:
  00d96	8b 95 a0 fe ff
	ff		 mov	 edx, DWORD PTR tv511[ebp]
  00d9c	89 95 2c ff ff
	ff		 mov	 DWORD PTR $T205170[ebp], edx
  00da2	c7 45 fc ff ff
	ff ff		 mov	 DWORD PTR __$EHRec$[ebp+8], -1
  00da9	8b 85 0c ff ff
	ff		 mov	 eax, DWORD PTR _this$[ebp]
  00daf	8b 8d 2c ff ff
	ff		 mov	 ecx, DWORD PTR $T205170[ebp]
  00db5	89 48 20	 mov	 DWORD PTR [eax+32], ecx
$L202350:

; 234  : 	}
; 235  : 	CRect lClient;

  00db8	8d 4d dc	 lea	 ecx, DWORD PTR _lClient$[ebp]
  00dbb	e8 00 00 00 00	 call	 ??0CRect@@QAE@XZ	; CRect::CRect

; 236  : 	lClient.SetRect(3,235,297,285);

  00dc0	68 1d 01 00 00	 push	 285			; 0000011dH
  00dc5	68 29 01 00 00	 push	 297			; 00000129H
  00dca	68 eb 00 00 00	 push	 235			; 000000ebH
  00dcf	6a 03		 push	 3
  00dd1	8d 4d dc	 lea	 ecx, DWORD PTR _lClient$[ebp]
  00dd4	e8 00 00 00 00	 call	 ?SetRect@CRect@@QAEXHHHH@Z ; CRect::SetRect

; 237  : 
; 238  : 	if( mp_downloadSkin->m_hWnd == NULL )

  00dd9	8b 95 0c ff ff
	ff		 mov	 edx, DWORD PTR _this$[ebp]
  00ddf	8b 42 20	 mov	 eax, DWORD PTR [edx+32]
  00de2	83 78 20 00	 cmp	 DWORD PTR [eax+32], 0
  00de6	0f 85 0f 01 00
	00		 jne	 $L202356

; 239  : 	{
; 240  : 		CString ClassName   = ::AfxRegisterWndClass(CS_CLASSDC,::LoadCursor(NULL,IDC_ARROW),NULL,NULL);   

  00dec	6a 00		 push	 0
  00dee	6a 00		 push	 0
  00df0	68 00 7f 00 00	 push	 32512			; 00007f00H
  00df5	6a 00		 push	 0
  00df7	ff 15 00 00 00
	00		 call	 DWORD PTR __imp__LoadCursorA@8
  00dfd	50		 push	 eax
  00dfe	6a 40		 push	 64			; 00000040H
  00e00	e8 00 00 00 00	 call	 ?AfxRegisterWndClass@@YGPBDIPAUHICON__@@PAUHBRUSH__@@0@Z ; AfxRegisterWndClass
  00e05	50		 push	 eax
  00e06	8d 4d 8c	 lea	 ecx, DWORD PTR _ClassName$202357[ebp]
  00e09	ff 15 00 00 00
	00		 call	 DWORD PTR __imp_??0?$CStringT@DV?$StrTraitMFC_DLL@DV?$ChTraitsCRT@D@ATL@@@@@ATL@@QAE@PBD@Z
  00e0f	c7 45 fc 0f 00
	00 00		 mov	 DWORD PTR __$EHRec$[ebp+8], 15 ; 0000000fH

; 241  : 		if( AfxGetUIManager()->UIGetLayoutMgr()->GetDisplayMode() == DISPLAY_SEPERATE_MODE )

  00e16	e8 00 00 00 00	 call	 ?AfxGetUIManager@@YAPAVIUIManager@@XZ ; AfxGetUIManager
  00e1b	89 85 9c fe ff
	ff		 mov	 DWORD PTR tv566[ebp], eax
  00e21	8b 8d 9c fe ff
	ff		 mov	 ecx, DWORD PTR tv566[ebp]
  00e27	8b 11		 mov	 edx, DWORD PTR [ecx]
  00e29	8b 8d 9c fe ff
	ff		 mov	 ecx, DWORD PTR tv566[ebp]
  00e2f	ff 52 24	 call	 DWORD PTR [edx+36]
  00e32	89 85 98 fe ff
	ff		 mov	 DWORD PTR tv571[ebp], eax
  00e38	8b 85 98 fe ff
	ff		 mov	 eax, DWORD PTR tv571[ebp]
  00e3e	8b 10		 mov	 edx, DWORD PTR [eax]
  00e40	8b 8d 98 fe ff
	ff		 mov	 ecx, DWORD PTR tv571[ebp]
  00e46	ff 52 7c	 call	 DWORD PTR [edx+124]
  00e49	85 c0		 test	 eax, eax
  00e4b	75 60		 jne	 SHORT $L202361

; 242  : 		{
; 243  : 			mp_downloadSkin->CreateEx( 0,ClassName,NULL,  WS_CHILD,CRect( lClient.left,lClient.top,lClient.left+220,lClient.top+30),mp_mainSkinWnd,0);		

  00e4d	6a 00		 push	 0
  00e4f	6a 00		 push	 0
  00e51	8b 85 0c ff ff
	ff		 mov	 eax, DWORD PTR _this$[ebp]
  00e57	8b 48 10	 mov	 ecx, DWORD PTR [eax+16]
  00e5a	51		 push	 ecx
  00e5b	8b 55 e0	 mov	 edx, DWORD PTR _lClient$[ebp+4]
  00e5e	83 c2 1e	 add	 edx, 30			; 0000001eH
  00e61	52		 push	 edx
  00e62	8b 45 dc	 mov	 eax, DWORD PTR _lClient$[ebp]
  00e65	05 dc 00 00 00	 add	 eax, 220		; 000000dcH
  00e6a	50		 push	 eax
  00e6b	8b 4d e0	 mov	 ecx, DWORD PTR _lClient$[ebp+4]
  00e6e	51		 push	 ecx
  00e6f	8b 55 dc	 mov	 edx, DWORD PTR _lClient$[ebp]
  00e72	52		 push	 edx
  00e73	8d 8d 18 ff ff
	ff		 lea	 ecx, DWORD PTR $T205174[ebp]
  00e79	e8 00 00 00 00	 call	 ??0CRect@@QAE@HHHH@Z	; CRect::CRect
  00e7e	50		 push	 eax
  00e7f	68 00 00 00 40	 push	 1073741824		; 40000000H
  00e84	6a 00		 push	 0
  00e86	8d 4d 8c	 lea	 ecx, DWORD PTR _ClassName$202357[ebp]
  00e89	ff 15 00 00 00
	00		 call	 DWORD PTR __imp_??B?$CSimpleStringT@D$00@ATL@@QBEPBDXZ
  00e8f	50		 push	 eax
  00e90	6a 00		 push	 0
  00e92	8b 85 0c ff ff
	ff		 mov	 eax, DWORD PTR _this$[ebp]
  00e98	8b 48 20	 mov	 ecx, DWORD PTR [eax+32]
  00e9b	8b 95 0c ff ff
	ff		 mov	 edx, DWORD PTR _this$[ebp]
  00ea1	8b 42 20	 mov	 eax, DWORD PTR [edx+32]
  00ea4	8b 11		 mov	 edx, DWORD PTR [ecx]
  00ea6	8b c8		 mov	 ecx, eax
  00ea8	ff 52 60	 call	 DWORD PTR [edx+96]

; 244  : 		}
; 245  : 		else

  00eab	eb 3e		 jmp	 SHORT $L202363
$L202361:

; 246  : 		{
; 247  : 			mp_downloadSkin->CreateEx( 0,ClassName,NULL,  WS_CHILD,lClient,mp_mainSkinWnd,0);		

  00ead	6a 00		 push	 0
  00eaf	6a 00		 push	 0
  00eb1	8b 85 0c ff ff
	ff		 mov	 eax, DWORD PTR _this$[ebp]
  00eb7	8b 48 10	 mov	 ecx, DWORD PTR [eax+16]
  00eba	51		 push	 ecx
  00ebb	8d 55 dc	 lea	 edx, DWORD PTR _lClient$[ebp]
  00ebe	52		 push	 edx
  00ebf	68 00 00 00 40	 push	 1073741824		; 40000000H
  00ec4	6a 00		 push	 0
  00ec6	8d 4d 8c	 lea	 ecx, DWORD PTR _ClassName$202357[ebp]
  00ec9	ff 15 00 00 00
	00		 call	 DWORD PTR __imp_??B?$CSimpleStringT@D$00@ATL@@QBEPBDXZ
  00ecf	50		 push	 eax
  00ed0	6a 00		 push	 0
  00ed2	8b 85 0c ff ff
	ff		 mov	 eax, DWORD PTR _this$[ebp]
  00ed8	8b 48 20	 mov	 ecx, DWORD PTR [eax+32]
  00edb	8b 95 0c ff ff
	ff		 mov	 edx, DWORD PTR _this$[ebp]
  00ee1	8b 42 20	 mov	 eax, DWORD PTR [edx+32]
  00ee4	8b 11		 mov	 edx, DWORD PTR [ecx]
  00ee6	8b c8		 mov	 ecx, eax
  00ee8	ff 52 60	 call	 DWORD PTR [edx+96]
$L202363:

; 248  : 		}
; 249  : 	}

  00eeb	c7 45 fc ff ff
	ff ff		 mov	 DWORD PTR __$EHRec$[ebp+8], -1
  00ef2	8d 4d 8c	 lea	 ecx, DWORD PTR _ClassName$202357[ebp]
  00ef5	ff 15 00 00 00
	00		 call	 DWORD PTR __imp_??1?$CStringT@DV?$StrTraitMFC_DLL@DV?$ChTraitsCRT@D@ATL@@@@@ATL@@QAE@XZ
$L202356:

; 250  : 		
; 251  : 	if( m_bShowSkinWnd )

  00efb	8b 85 0c ff ff
	ff		 mov	 eax, DWORD PTR _this$[ebp]
  00f01	0f b6 48 64	 movzx	 ecx, BYTE PTR [eax+100]
  00f05	85 c9		 test	 ecx, ecx
  00f07	74 40		 je	 SHORT $L202364

; 252  : 	{
; 253  : 		if( mb_isDownSkin )

  00f09	8b 95 0c ff ff
	ff		 mov	 edx, DWORD PTR _this$[ebp]
  00f0f	0f b6 42 49	 movzx	 eax, BYTE PTR [edx+73]
  00f13	85 c0		 test	 eax, eax
  00f15	74 12		 je	 SHORT $L202365

; 254  : 		{
; 255  : 			mp_downloadSkin->ShowWindow( SW_SHOW );

  00f17	6a 05		 push	 5
  00f19	8b 8d 0c ff ff
	ff		 mov	 ecx, DWORD PTR _this$[ebp]
  00f1f	8b 49 20	 mov	 ecx, DWORD PTR [ecx+32]
  00f22	e8 00 00 00 00	 call	 ?ShowWindow@CWnd@@QAEHH@Z ; CWnd::ShowWindow

; 256  : 			//DownloadStart();
; 257  : 		}
; 258  : 		else

  00f27	eb 20		 jmp	 SHORT $L202364
$L202365:

; 259  : 		{
; 260  : 			mp_downloadSkin->ShowWindow( SW_HIDE );

  00f29	6a 00		 push	 0
  00f2b	8b 95 0c ff ff
	ff		 mov	 edx, DWORD PTR _this$[ebp]
  00f31	8b 4a 20	 mov	 ecx, DWORD PTR [edx+32]
  00f34	e8 00 00 00 00	 call	 ?ShowWindow@CWnd@@QAEHH@Z ; CWnd::ShowWindow

; 261  : 			mp_mainSkinWnd->ShowColorBtn( TRUE );

  00f39	6a 01		 push	 1
  00f3b	8b 85 0c ff ff
	ff		 mov	 eax, DWORD PTR _this$[ebp]
  00f41	8b 48 10	 mov	 ecx, DWORD PTR [eax+16]
  00f44	e8 00 00 00 00	 call	 ?ShowColorBtn@CMainSkinWnd@@QAEXH@Z ; CMainSkinWnd::ShowColorBtn
$L202364:

; 262  : 		}
; 263  : 	}	
; 264  : 
; 265  : 	if(!mp_downloadSubject )

  00f49	8b 8d 0c ff ff
	ff		 mov	 ecx, DWORD PTR _this$[ebp]
  00f4f	83 79 24 00	 cmp	 DWORD PTR [ecx+36], 0
  00f53	75 5f		 jne	 SHORT $L202367

; 266  : 	{
; 267  : 		mp_downloadSubject = new CDownloadPercentWnd;

  00f55	68 30 02 00 00	 push	 560			; 00000230H
  00f5a	e8 00 00 00 00	 call	 ??2CObject@@SGPAXI@Z	; CObject::operator new
  00f5f	89 85 10 ff ff
	ff		 mov	 DWORD PTR $T205176[ebp], eax
  00f65	c7 45 fc 10 00
	00 00		 mov	 DWORD PTR __$EHRec$[ebp+8], 16 ; 00000010H
  00f6c	83 bd 10 ff ff
	ff 00		 cmp	 DWORD PTR $T205176[ebp], 0
  00f73	74 13		 je	 SHORT $L205177
  00f75	8b 8d 10 ff ff
	ff		 mov	 ecx, DWORD PTR $T205176[ebp]
  00f7b	e8 00 00 00 00	 call	 ??0CDownloadPercentWnd@@QAE@XZ ; CDownloadPercentWnd::CDownloadPercentWnd
  00f80	89 85 94 fe ff
	ff		 mov	 DWORD PTR tv648[ebp], eax
  00f86	eb 0a		 jmp	 SHORT $L205178
$L205177:
  00f88	c7 85 94 fe ff
	ff 00 00 00 00	 mov	 DWORD PTR tv648[ebp], 0
$L205178:
  00f92	8b 95 94 fe ff
	ff		 mov	 edx, DWORD PTR tv648[ebp]
  00f98	89 95 14 ff ff
	ff		 mov	 DWORD PTR $T205175[ebp], edx
  00f9e	c7 45 fc ff ff
	ff ff		 mov	 DWORD PTR __$EHRec$[ebp+8], -1
  00fa5	8b 85 0c ff ff
	ff		 mov	 eax, DWORD PTR _this$[ebp]
  00fab	8b 8d 14 ff ff
	ff		 mov	 ecx, DWORD PTR $T205175[ebp]
  00fb1	89 48 24	 mov	 DWORD PTR [eax+36], ecx
$L202367:

; 268  : 	}
; 269  : 	if( mp_downloadSubject->m_hWnd == NULL )

  00fb4	8b 95 0c ff ff
	ff		 mov	 edx, DWORD PTR _this$[ebp]
  00fba	8b 42 24	 mov	 eax, DWORD PTR [edx+36]
  00fbd	83 78 20 00	 cmp	 DWORD PTR [eax+32], 0
  00fc1	75 76		 jne	 SHORT $L202372

; 270  : 	{
; 271  : 		CString ClassName   = ::AfxRegisterWndClass(CS_CLASSDC,::LoadCursor(NULL,IDC_ARROW),NULL,NULL);   

  00fc3	6a 00		 push	 0
  00fc5	6a 00		 push	 0
  00fc7	68 00 7f 00 00	 push	 32512			; 00007f00H
  00fcc	6a 00		 push	 0
  00fce	ff 15 00 00 00
	00		 call	 DWORD PTR __imp__LoadCursorA@8
  00fd4	50		 push	 eax
  00fd5	6a 40		 push	 64			; 00000040H
  00fd7	e8 00 00 00 00	 call	 ?AfxRegisterWndClass@@YGPBDIPAUHICON__@@PAUHBRUSH__@@0@Z ; AfxRegisterWndClass
  00fdc	50		 push	 eax
  00fdd	8d 4d 88	 lea	 ecx, DWORD PTR _ClassName$202373[ebp]
  00fe0	ff 15 00 00 00
	00		 call	 DWORD PTR __imp_??0?$CStringT@DV?$StrTraitMFC_DLL@DV?$ChTraitsCRT@D@ATL@@@@@ATL@@QAE@PBD@Z
  00fe6	c7 45 fc 11 00
	00 00		 mov	 DWORD PTR __$EHRec$[ebp+8], 17 ; 00000011H

; 272  : 		mp_downloadSubject->CreateEx( 0,ClassName,NULL,WS_CHILD,lClient,mp_mainSkinWnd,1);		

  00fed	6a 00		 push	 0
  00fef	6a 01		 push	 1
  00ff1	8b 8d 0c ff ff
	ff		 mov	 ecx, DWORD PTR _this$[ebp]
  00ff7	8b 51 10	 mov	 edx, DWORD PTR [ecx+16]
  00ffa	52		 push	 edx
  00ffb	8d 45 dc	 lea	 eax, DWORD PTR _lClient$[ebp]
  00ffe	50		 push	 eax
  00fff	68 00 00 00 40	 push	 1073741824		; 40000000H
  01004	6a 00		 push	 0
  01006	8d 4d 88	 lea	 ecx, DWORD PTR _ClassName$202373[ebp]
  01009	ff 15 00 00 00
	00		 call	 DWORD PTR __imp_??B?$CSimpleStringT@D$00@ATL@@QBEPBDXZ
  0100f	50		 push	 eax
  01010	6a 00		 push	 0
  01012	8b 8d 0c ff ff
	ff		 mov	 ecx, DWORD PTR _this$[ebp]
  01018	8b 51 24	 mov	 edx, DWORD PTR [ecx+36]
  0101b	8b 85 0c ff ff
	ff		 mov	 eax, DWORD PTR _this$[ebp]
  01021	8b 48 24	 mov	 ecx, DWORD PTR [eax+36]
  01024	8b 12		 mov	 edx, DWORD PTR [edx]
  01026	ff 52 60	 call	 DWORD PTR [edx+96]

; 273  : 	}	

  01029	c7 45 fc ff ff
	ff ff		 mov	 DWORD PTR __$EHRec$[ebp+8], -1
  01030	8d 4d 88	 lea	 ecx, DWORD PTR _ClassName$202373[ebp]
  01033	ff 15 00 00 00
	00		 call	 DWORD PTR __imp_??1?$CStringT@DV?$StrTraitMFC_DLL@DV?$ChTraitsCRT@D@ATL@@@@@ATL@@QAE@XZ
$L202372:

; 274  : 
; 275  : 	return lbReturn;

  01039	8b 45 ec	 mov	 eax, DWORD PTR _lbReturn$[ebp]

; 276  : }

  0103c	8b 4d f4	 mov	 ecx, DWORD PTR __$EHRec$[ebp]
  0103f	64 89 0d 00 00
	00 00		 mov	 DWORD PTR fs:__except_list, ecx
  01046	8b e5		 mov	 esp, ebp
  01048	5d		 pop	 ebp
  01049	c2 10 00	 ret	 16			; 00000010H
_TEXT	ENDS
text$x	SEGMENT
$L205179:
  00103	8d 8d 54 ff ff
	ff		 lea	 ecx, DWORD PTR $T205160[ebp]
  00109	ff 25 00 00 00
	00		 jmp	 DWORD PTR __imp_??1?$CStringT@DV?$StrTraitMFC_DLL@DV?$ChTraitsCRT@D@ATL@@@@@ATL@@QAE@XZ
$L205180:
  0010f	8d 8d 50 ff ff
	ff		 lea	 ecx, DWORD PTR $T205161[ebp]
  00115	ff 25 00 00 00
	00		 jmp	 DWORD PTR __imp_??1?$CStringT@DV?$StrTraitMFC_DLL@DV?$ChTraitsCRT@D@ATL@@@@@ATL@@QAE@XZ
$L205181:
  0011b	8d 4d a4	 lea	 ecx, DWORD PTR _tips$202321[ebp]
  0011e	ff 25 00 00 00
	00		 jmp	 DWORD PTR __imp_??1?$CStringT@DV?$StrTraitMFC_DLL@DV?$ChTraitsCRT@D@ATL@@@@@ATL@@QAE@XZ
$L205182:
  00124	8b 8d 4c ff ff
	ff		 mov	 ecx, DWORD PTR $T205162[ebp]
  0012a	ff 25 00 00 00
	00		 jmp	 DWORD PTR __imp_??1?$CStringT@DV?$StrTraitMFC_DLL@DV?$ChTraitsCRT@D@ATL@@@@@ATL@@QAE@XZ
$L205183:
  00130	8b 8d 48 ff ff
	ff		 mov	 ecx, DWORD PTR $T205163[ebp]
  00136	ff 25 00 00 00
	00		 jmp	 DWORD PTR __imp_??1?$CStringT@DV?$StrTraitMFC_DLL@DV?$ChTraitsCRT@D@ATL@@@@@ATL@@QAE@XZ
$L205185:
  0013c	8d 8d 40 ff ff
	ff		 lea	 ecx, DWORD PTR $T205165[ebp]
  00142	ff 25 00 00 00
	00		 jmp	 DWORD PTR __imp_??1?$CStringT@DV?$StrTraitMFC_DLL@DV?$ChTraitsCRT@D@ATL@@@@@ATL@@QAE@XZ
$L205186:
  00148	8d 8d 3c ff ff
	ff		 lea	 ecx, DWORD PTR $T205166[ebp]
  0014e	ff 25 00 00 00
	00		 jmp	 DWORD PTR __imp_??1?$CStringT@DV?$StrTraitMFC_DLL@DV?$ChTraitsCRT@D@ATL@@@@@ATL@@QAE@XZ
$L205187:
  00154	8d 4d a0	 lea	 ecx, DWORD PTR _tips$202331[ebp]
  00157	ff 25 00 00 00
	00		 jmp	 DWORD PTR __imp_??1?$CStringT@DV?$StrTraitMFC_DLL@DV?$ChTraitsCRT@D@ATL@@@@@ATL@@QAE@XZ
$L205188:
  0015d	8b 8d 38 ff ff
	ff		 mov	 ecx, DWORD PTR $T205167[ebp]
  00163	ff 25 00 00 00
	00		 jmp	 DWORD PTR __imp_??1?$CStringT@DV?$StrTraitMFC_DLL@DV?$ChTraitsCRT@D@ATL@@@@@ATL@@QAE@XZ
$L205189:
  00169	8b 8d 34 ff ff
	ff		 mov	 ecx, DWORD PTR $T205168[ebp]
  0016f	ff 25 00 00 00
	00		 jmp	 DWORD PTR __imp_??1?$CStringT@DV?$StrTraitMFC_DLL@DV?$ChTraitsCRT@D@ATL@@@@@ATL@@QAE@XZ
$L205191:
  00175	8b 85 28 ff ff
	ff		 mov	 eax, DWORD PTR $T205171[ebp]
  0017b	50		 push	 eax
  0017c	e8 00 00 00 00	 call	 ??3CObject@@SGXPAX@Z	; CObject::operator delete
  00181	c3		 ret	 0
$L205192:
  00182	8d 4d 8c	 lea	 ecx, DWORD PTR _ClassName$202357[ebp]
  00185	ff 25 00 00 00
	00		 jmp	 DWORD PTR __imp_??1?$CStringT@DV?$StrTraitMFC_DLL@DV?$ChTraitsCRT@D@ATL@@@@@ATL@@QAE@XZ
$L205193:
  0018b	8b 85 10 ff ff
	ff		 mov	 eax, DWORD PTR $T205176[ebp]
  00191	50		 push	 eax
  00192	e8 00 00 00 00	 call	 ??3CObject@@SGXPAX@Z	; CObject::operator delete
  00197	c3		 ret	 0
$L205194:
  00198	8d 4d 88	 lea	 ecx, DWORD PTR _ClassName$202373[ebp]
  0019b	ff 25 00 00 00
	00		 jmp	 DWORD PTR __imp_??1?$CStringT@DV?$StrTraitMFC_DLL@DV?$ChTraitsCRT@D@ATL@@@@@ATL@@QAE@XZ
__ehhandler$?PopSkinWnd@CSkinMgrV1@@UAEHPAVCWnd@@IUtagPOINT@@@Z:
  001a1	b8 00 00 00 00	 mov	 eax, OFFSET FLAT:$T205196
  001a6	e9 00 00 00 00	 jmp	 ___CxxFrameHandler
text$x	ENDS
?PopSkinWnd@CSkinMgrV1@@UAEHPAVCWnd@@IUtagPOINT@@@Z ENDP ; CSkinMgrV1::PopSkinWnd
; Function compile flags: /Odt
; File d:\boxgit\playbox\playbox\dev\prj\playbox\src\layoutmgr\changecolor\mainskinwnd.h
;	COMDAT ?SetListener@CMainSkinWnd@@QAEXPAVIEventListener@@@Z
_TEXT	SEGMENT
_this$ = -4						; size = 4
_apListtener$ = 8					; size = 4
?SetListener@CMainSkinWnd@@QAEXPAVIEventListener@@@Z PROC NEAR ; CMainSkinWnd::SetListener, COMDAT
; _this$ = ecx

; 46   : 	void SetListener( IEventListener* apListtener ) { mp_EventListener = apListtener; }

  00000	55		 push	 ebp
  00001	8b ec		 mov	 ebp, esp
  00003	51		 push	 ecx
  00004	89 4d fc	 mov	 DWORD PTR _this$[ebp], ecx
  00007	8b 45 fc	 mov	 eax, DWORD PTR _this$[ebp]
  0000a	8b 4d 08	 mov	 ecx, DWORD PTR _apListtener$[ebp]
  0000d	89 88 dc 00 00
	00		 mov	 DWORD PTR [eax+220], ecx
  00013	8b e5		 mov	 esp, ebp
  00015	5d		 pop	 ebp
  00016	c2 04 00	 ret	 4
?SetListener@CMainSkinWnd@@QAEXPAVIEventListener@@@Z ENDP ; CMainSkinWnd::SetListener
; Function compile flags: /Odt
_TEXT	ENDS
;	COMDAT ?SetWndListener@CMainSkinWnd@@QAEXPAVIWndEventListener@@@Z
_TEXT	SEGMENT
_this$ = -4						; size = 4
_pWndListener$ = 8					; size = 4
?SetWndListener@CMainSkinWnd@@QAEXPAVIWndEventListener@@@Z PROC NEAR ; CMainSkinWnd::SetWndListener, COMDAT
; _this$ = ecx

; 47   : 	void SetWndListener(IWndEventListener* pWndListener){ mp_WndListener = pWndListener; }

  00000	55		 push	 ebp
  00001	8b ec		 mov	 ebp, esp
  00003	51		 push	 ecx
  00004	89 4d fc	 mov	 DWORD PTR _this$[ebp], ecx
  00007	8b 45 fc	 mov	 eax, DWORD PTR _this$[ebp]
  0000a	8b 4d 08	 mov	 ecx, DWORD PTR _pWndListener$[ebp]
  0000d	89 88 e0 00 00
	00		 mov	 DWORD PTR [eax+224], ecx
  00013	8b e5		 mov	 esp, ebp
  00015	5d		 pop	 ebp
  00016	c2 04 00	 ret	 4
?SetWndListener@CMainSkinWnd@@QAEXPAVIWndEventListener@@@Z ENDP ; CMainSkinWnd::SetWndListener
; Function compile flags: /Odt
; File d:\boxgit\playbox\playbox\dev\prj\playbox\src\layoutmgr\changecolor\skinwnd.h
_TEXT	ENDS
;	COMDAT ?SetSendEventListener@CSkinWnd@@QAEXPAVIEventListener@@@Z
_TEXT	SEGMENT
_this$ = -4						; size = 4
_aEventListener$ = 8					; size = 4
?SetSendEventListener@CSkinWnd@@QAEXPAVIEventListener@@@Z PROC NEAR ; CSkinWnd::SetSendEventListener, COMDAT
; _this$ = ecx

; 43   : 	void SetSendEventListener(IEventListener* aEventListener ){mp_EventListener = aEventListener ;}

  00000	55		 push	 ebp
  00001	8b ec		 mov	 ebp, esp
  00003	51		 push	 ecx
  00004	89 4d fc	 mov	 DWORD PTR _this$[ebp], ecx
  00007	8b 45 fc	 mov	 eax, DWORD PTR _this$[ebp]
  0000a	8b 4d 08	 mov	 ecx, DWORD PTR _aEventListener$[ebp]
  0000d	89 88 dc 02 00
	00		 mov	 DWORD PTR [eax+732], ecx
  00013	8b e5		 mov	 esp, ebp
  00015	5d		 pop	 ebp
  00016	c2 04 00	 ret	 4
?SetSendEventListener@CSkinWnd@@QAEXPAVIEventListener@@@Z ENDP ; CSkinWnd::SetSendEventListener
; Function compile flags: /Odt
; File d:\boxgit\playbox\playbox\dev\prj\playbox\src\layoutmgr\changecolor\subjectchildwnd.h
_TEXT	ENDS
;	COMDAT ?SetSendEventListener@CSubjectChildWnd@@QAEXPAVIEventListener@@@Z
_TEXT	SEGMENT
_this$ = -4						; size = 4
_aEventListener$ = 8					; size = 4
?SetSendEventListener@CSubjectChildWnd@@QAEXPAVIEventListener@@@Z PROC NEAR ; CSubjectChildWnd::SetSendEventListener, COMDAT
; _this$ = ecx

; 25   : 	void SetSendEventListener(IEventListener* aEventListener ){mp_EventListener = aEventListener ;}	

  00000	55		 push	 ebp
  00001	8b ec		 mov	 ebp, esp
  00003	51		 push	 ecx
  00004	89 4d fc	 mov	 DWORD PTR _this$[ebp], ecx
  00007	8b 45 fc	 mov	 eax, DWORD PTR _this$[ebp]
  0000a	8b 4d 08	 mov	 ecx, DWORD PTR _aEventListener$[ebp]
  0000d	89 88 f0 02 00
	00		 mov	 DWORD PTR [eax+752], ecx
  00013	8b e5		 mov	 esp, ebp
  00015	5d		 pop	 ebp
  00016	c2 04 00	 ret	 4
?SetSendEventListener@CSubjectChildWnd@@QAEXPAVIEventListener@@@Z ENDP ; CSubjectChildWnd::SetSendEventListener
_TEXT	ENDS
EXTRN	??0CSkinWnd@@QAE@XZ:NEAR			; CSkinWnd::CSkinWnd
EXTRN	?InsertSmallSkin@CSkinWnd@@QAEXAAV?$basic_string@DU?$char_traits@D@std@@V?$allocator@D@2@@std@@PAVCBitmap@@V23@_N@Z:NEAR ; CSkinWnd::InsertSmallSkin
EXTRN	??0CSubjectChildWnd@@QAE@XZ:NEAR		; CSubjectChildWnd::CSubjectChildWnd
EXTRN	??0CMainSkinWnd@@QAE@XZ:NEAR			; CMainSkinWnd::CMainSkinWnd
EXTRN	??0CWebSubWnd@@QAE@XZ:NEAR			; CWebSubWnd::CWebSubWnd
EXTRN	__imp_??0?$basic_string@DU?$char_traits@D@std@@V?$allocator@D@2@@std@@QAE@ABV01@@Z:NEAR
xdata$x	SEGMENT
$T205237 DD	0ffffffffH
	DD	FLAT:$L205227
	DD	00H
	DD	FLAT:$L205228
	DD	01H
	DD	FLAT:$L205229
	DD	01H
	DD	FLAT:$L205230
	DD	01H
	DD	FLAT:$L205231
	DD	01H
	DD	FLAT:$L205232
$T205235 DD	019930520H
	DD	06H
	DD	FLAT:$T205237
	DD	2 DUP(00H)
	DD	2 DUP(00H)
; Function compile flags: /Odt
; File d:\boxgit\playbox\playbox\dev\prj\playbox\src\layoutmgr\changecolor\ichangecolormgr.cpp
xdata$x	ENDS
_TEXT	SEGMENT
tv163 = -76						; size = 4
tv135 = -72						; size = 4
tv95 = -68						; size = 4
tv87 = -64						; size = 4
tv79 = -60						; size = 4
_this$ = -56						; size = 4
$T205226 = -50						; size = 1
$T205225 = -49						; size = 1
$T205224 = -48						; size = 4
$T205221 = -44						; size = 4
$T205220 = -40						; size = 4
$T205217 = -36						; size = 4
$T205216 = -32						; size = 4
$T205213 = -28						; size = 4
$T205212 = -24						; size = 4
$T205209 = -20						; size = 4
$T205208 = -16						; size = 4
__$EHRec$ = -12						; size = 12
_astrName$ = 8						; size = 28
_apBmp$ = 36						; size = 4
_strPath$ = 40						; size = 28
_bHasSkin$ = 68						; size = 1
?InsertSmallSkin@CSkinMgrV1@@UAE_NV?$basic_string@DU?$char_traits@D@std@@V?$allocator@D@2@@std@@PAVCBitmap@@0_N@Z PROC NEAR ; CSkinMgrV1::InsertSmallSkin
; _this$ = ecx

; 278  : {

  01050	55		 push	 ebp
  01051	8b ec		 mov	 ebp, esp
  01053	6a ff		 push	 -1
  01055	68 00 00 00 00	 push	 __ehhandler$?InsertSmallSkin@CSkinMgrV1@@UAE_NV?$basic_string@DU?$char_traits@D@std@@V?$allocator@D@2@@std@@PAVCBitmap@@0_N@Z
  0105a	64 a1 00 00 00
	00		 mov	 eax, DWORD PTR fs:__except_list
  01060	50		 push	 eax
  01061	64 89 25 00 00
	00 00		 mov	 DWORD PTR fs:__except_list, esp
  01068	83 ec 40	 sub	 esp, 64			; 00000040H
  0106b	89 4d c8	 mov	 DWORD PTR _this$[ebp], ecx
  0106e	c7 45 fc 01 00
	00 00		 mov	 DWORD PTR __$EHRec$[ebp+8], 1

; 279  : 	if( !mb_HasPopWnd)

  01075	8b 45 c8	 mov	 eax, DWORD PTR _this$[ebp]
  01078	0f b6 48 48	 movzx	 ecx, BYTE PTR [eax+72]
  0107c	85 c9		 test	 ecx, ecx
  0107e	0f 85 57 01 00
	00		 jne	 $L202384

; 280  : 	{
; 281  : 		if(NULL == mp_mainSkinWnd)

  01084	8b 55 c8	 mov	 edx, DWORD PTR _this$[ebp]
  01087	83 7a 10 00	 cmp	 DWORD PTR [edx+16], 0
  0108b	0f 85 f8 00 00
	00		 jne	 $L202385

; 282  : 		{
; 283  : 			mp_mainSkinWnd	= new CMainSkinWnd;

  01091	68 60 09 00 00	 push	 2400			; 00000960H
  01096	e8 00 00 00 00	 call	 ??2CObject@@SGPAXI@Z	; CObject::operator new
  0109b	89 45 ec	 mov	 DWORD PTR $T205209[ebp], eax
  0109e	c6 45 fc 02	 mov	 BYTE PTR __$EHRec$[ebp+8], 2
  010a2	83 7d ec 00	 cmp	 DWORD PTR $T205209[ebp], 0
  010a6	74 0d		 je	 SHORT $L205210
  010a8	8b 4d ec	 mov	 ecx, DWORD PTR $T205209[ebp]
  010ab	e8 00 00 00 00	 call	 ??0CMainSkinWnd@@QAE@XZ	; CMainSkinWnd::CMainSkinWnd
  010b0	89 45 c4	 mov	 DWORD PTR tv79[ebp], eax
  010b3	eb 07		 jmp	 SHORT $L205211
$L205210:
  010b5	c7 45 c4 00 00
	00 00		 mov	 DWORD PTR tv79[ebp], 0
$L205211:
  010bc	8b 45 c4	 mov	 eax, DWORD PTR tv79[ebp]
  010bf	89 45 f0	 mov	 DWORD PTR $T205208[ebp], eax
  010c2	c6 45 fc 01	 mov	 BYTE PTR __$EHRec$[ebp+8], 1
  010c6	8b 4d c8	 mov	 ecx, DWORD PTR _this$[ebp]
  010c9	8b 55 f0	 mov	 edx, DWORD PTR $T205208[ebp]
  010cc	89 51 10	 mov	 DWORD PTR [ecx+16], edx

; 284  : 			mp_skinWnd		= new CSkinWnd;

  010cf	68 e8 02 00 00	 push	 744			; 000002e8H
  010d4	e8 00 00 00 00	 call	 ??2CObject@@SGPAXI@Z	; CObject::operator new
  010d9	89 45 e4	 mov	 DWORD PTR $T205213[ebp], eax
  010dc	c6 45 fc 03	 mov	 BYTE PTR __$EHRec$[ebp+8], 3
  010e0	83 7d e4 00	 cmp	 DWORD PTR $T205213[ebp], 0
  010e4	74 0d		 je	 SHORT $L205214
  010e6	8b 4d e4	 mov	 ecx, DWORD PTR $T205213[ebp]
  010e9	e8 00 00 00 00	 call	 ??0CSkinWnd@@QAE@XZ	; CSkinWnd::CSkinWnd
  010ee	89 45 c0	 mov	 DWORD PTR tv87[ebp], eax
  010f1	eb 07		 jmp	 SHORT $L205215
$L205214:
  010f3	c7 45 c0 00 00
	00 00		 mov	 DWORD PTR tv87[ebp], 0
$L205215:
  010fa	8b 45 c0	 mov	 eax, DWORD PTR tv87[ebp]
  010fd	89 45 e8	 mov	 DWORD PTR $T205212[ebp], eax
  01100	c6 45 fc 01	 mov	 BYTE PTR __$EHRec$[ebp+8], 1
  01104	8b 4d c8	 mov	 ecx, DWORD PTR _this$[ebp]
  01107	8b 55 e8	 mov	 edx, DWORD PTR $T205212[ebp]
  0110a	89 51 14	 mov	 DWORD PTR [ecx+20], edx

; 285  : 			mp_SubjectWnd	= new CSubjectChildWnd;

  0110d	68 f4 02 00 00	 push	 756			; 000002f4H
  01112	e8 00 00 00 00	 call	 ??2CObject@@SGPAXI@Z	; CObject::operator new
  01117	89 45 dc	 mov	 DWORD PTR $T205217[ebp], eax
  0111a	c6 45 fc 04	 mov	 BYTE PTR __$EHRec$[ebp+8], 4
  0111e	83 7d dc 00	 cmp	 DWORD PTR $T205217[ebp], 0
  01122	74 0d		 je	 SHORT $L205218
  01124	8b 4d dc	 mov	 ecx, DWORD PTR $T205217[ebp]
  01127	e8 00 00 00 00	 call	 ??0CSubjectChildWnd@@QAE@XZ ; CSubjectChildWnd::CSubjectChildWnd
  0112c	89 45 bc	 mov	 DWORD PTR tv95[ebp], eax
  0112f	eb 07		 jmp	 SHORT $L205219
$L205218:
  01131	c7 45 bc 00 00
	00 00		 mov	 DWORD PTR tv95[ebp], 0
$L205219:
  01138	8b 45 bc	 mov	 eax, DWORD PTR tv95[ebp]
  0113b	89 45 e0	 mov	 DWORD PTR $T205216[ebp], eax
  0113e	c6 45 fc 01	 mov	 BYTE PTR __$EHRec$[ebp+8], 1
  01142	8b 4d c8	 mov	 ecx, DWORD PTR _this$[ebp]
  01145	8b 55 e0	 mov	 edx, DWORD PTR $T205216[ebp]
  01148	89 51 18	 mov	 DWORD PTR [ecx+24], edx

; 286  : 			mp_WebSubWnd	= new CWebSubWnd;

  0114b	68 bc 01 00 00	 push	 444			; 000001bcH
  01150	e8 00 00 00 00	 call	 ??2CObject@@SGPAXI@Z	; CObject::operator new
  01155	89 45 d4	 mov	 DWORD PTR $T205221[ebp], eax
  01158	c6 45 fc 05	 mov	 BYTE PTR __$EHRec$[ebp+8], 5
  0115c	83 7d d4 00	 cmp	 DWORD PTR $T205221[ebp], 0
  01160	74 0d		 je	 SHORT $L205222
  01162	8b 4d d4	 mov	 ecx, DWORD PTR $T205221[ebp]
  01165	e8 00 00 00 00	 call	 ??0CWebSubWnd@@QAE@XZ	; CWebSubWnd::CWebSubWnd
  0116a	89 45 b8	 mov	 DWORD PTR tv135[ebp], eax
  0116d	eb 07		 jmp	 SHORT $L205223
$L205222:
  0116f	c7 45 b8 00 00
	00 00		 mov	 DWORD PTR tv135[ebp], 0
$L205223:
  01176	8b 45 b8	 mov	 eax, DWORD PTR tv135[ebp]
  01179	89 45 d8	 mov	 DWORD PTR $T205220[ebp], eax
  0117c	c6 45 fc 01	 mov	 BYTE PTR __$EHRec$[ebp+8], 1
  01180	8b 4d c8	 mov	 ecx, DWORD PTR _this$[ebp]
  01183	8b 55 d8	 mov	 edx, DWORD PTR $T205220[ebp]
  01186	89 51 1c	 mov	 DWORD PTR [ecx+28], edx
$L202385:

; 287  : //			m_pToolTip = new CCWToolTips();
; 288  : 		}
; 289  : 
; 290  : 		mp_skinWnd->InsertSmallSkin(astrName,apBmp, strPath,bHasSkin);

  01189	8a 45 44	 mov	 al, BYTE PTR _bHasSkin$[ebp]
  0118c	50		 push	 eax
  0118d	83 ec 1c	 sub	 esp, 28			; 0000001cH
  01190	8b cc		 mov	 ecx, esp
  01192	89 65 d0	 mov	 DWORD PTR $T205224[ebp], esp
  01195	8d 55 28	 lea	 edx, DWORD PTR _strPath$[ebp]
  01198	52		 push	 edx
  01199	ff 15 00 00 00
	00		 call	 DWORD PTR __imp_??0?$basic_string@DU?$char_traits@D@std@@V?$allocator@D@2@@std@@QAE@ABV01@@Z
  0119f	89 45 b4	 mov	 DWORD PTR tv163[ebp], eax
  011a2	8b 45 24	 mov	 eax, DWORD PTR _apBmp$[ebp]
  011a5	50		 push	 eax
  011a6	8d 4d 08	 lea	 ecx, DWORD PTR _astrName$[ebp]
  011a9	51		 push	 ecx
  011aa	8b 55 c8	 mov	 edx, DWORD PTR _this$[ebp]
  011ad	8b 4a 14	 mov	 ecx, DWORD PTR [edx+20]
  011b0	e8 00 00 00 00	 call	 ?InsertSmallSkin@CSkinWnd@@QAEXAAV?$basic_string@DU?$char_traits@D@std@@V?$allocator@D@2@@std@@PAVCBitmap@@V23@_N@Z ; CSkinWnd::InsertSmallSkin

; 291  : 		return true;

  011b5	c6 45 cf 01	 mov	 BYTE PTR $T205225[ebp], 1
  011b9	c6 45 fc 00	 mov	 BYTE PTR __$EHRec$[ebp+8], 0
  011bd	8d 4d 08	 lea	 ecx, DWORD PTR _astrName$[ebp]
  011c0	ff 15 00 00 00
	00		 call	 DWORD PTR __imp_??1?$basic_string@DU?$char_traits@D@std@@V?$allocator@D@2@@std@@QAE@XZ
  011c6	c7 45 fc ff ff
	ff ff		 mov	 DWORD PTR __$EHRec$[ebp+8], -1
  011cd	8d 4d 28	 lea	 ecx, DWORD PTR _strPath$[ebp]
  011d0	ff 15 00 00 00
	00		 call	 DWORD PTR __imp_??1?$basic_string@DU?$char_traits@D@std@@V?$allocator@D@2@@std@@QAE@XZ
  011d6	8a 45 cf	 mov	 al, BYTE PTR $T205225[ebp]
  011d9	eb 24		 jmp	 SHORT $L202383
$L202384:

; 292  : 	}
; 293  : 	return false;

  011db	c6 45 ce 00	 mov	 BYTE PTR $T205226[ebp], 0
  011df	c6 45 fc 00	 mov	 BYTE PTR __$EHRec$[ebp+8], 0
  011e3	8d 4d 08	 lea	 ecx, DWORD PTR _astrName$[ebp]
  011e6	ff 15 00 00 00
	00		 call	 DWORD PTR __imp_??1?$basic_string@DU?$char_traits@D@std@@V?$allocator@D@2@@std@@QAE@XZ
  011ec	c7 45 fc ff ff
	ff ff		 mov	 DWORD PTR __$EHRec$[ebp+8], -1
  011f3	8d 4d 28	 lea	 ecx, DWORD PTR _strPath$[ebp]
  011f6	ff 15 00 00 00
	00		 call	 DWORD PTR __imp_??1?$basic_string@DU?$char_traits@D@std@@V?$allocator@D@2@@std@@QAE@XZ
  011fc	8a 45 ce	 mov	 al, BYTE PTR $T205226[ebp]
$L202383:

; 294  : }

  011ff	8b 4d f4	 mov	 ecx, DWORD PTR __$EHRec$[ebp]
  01202	64 89 0d 00 00
	00 00		 mov	 DWORD PTR fs:__except_list, ecx
  01209	8b e5		 mov	 esp, ebp
  0120b	5d		 pop	 ebp
  0120c	c2 40 00	 ret	 64			; 00000040H
_TEXT	ENDS
text$x	SEGMENT
$L205227:
  001ab	8d 4d 28	 lea	 ecx, DWORD PTR _strPath$[ebp]
  001ae	ff 25 00 00 00
	00		 jmp	 DWORD PTR __imp_??1?$basic_string@DU?$char_traits@D@std@@V?$allocator@D@2@@std@@QAE@XZ
$L205228:
  001b4	8d 4d 08	 lea	 ecx, DWORD PTR _astrName$[ebp]
  001b7	ff 25 00 00 00
	00		 jmp	 DWORD PTR __imp_??1?$basic_string@DU?$char_traits@D@std@@V?$allocator@D@2@@std@@QAE@XZ
$L205229:
  001bd	8b 45 ec	 mov	 eax, DWORD PTR $T205209[ebp]
  001c0	50		 push	 eax
  001c1	e8 00 00 00 00	 call	 ??3CObject@@SGXPAX@Z	; CObject::operator delete
  001c6	c3		 ret	 0
$L205230:
  001c7	8b 45 e4	 mov	 eax, DWORD PTR $T205213[ebp]
  001ca	50		 push	 eax
  001cb	e8 00 00 00 00	 call	 ??3CObject@@SGXPAX@Z	; CObject::operator delete
  001d0	c3		 ret	 0
$L205231:
  001d1	8b 45 dc	 mov	 eax, DWORD PTR $T205217[ebp]
  001d4	50		 push	 eax
  001d5	e8 00 00 00 00	 call	 ??3CObject@@SGXPAX@Z	; CObject::operator delete
  001da	c3		 ret	 0
$L205232:
  001db	8b 45 d4	 mov	 eax, DWORD PTR $T205221[ebp]
  001de	50		 push	 eax
  001df	e8 00 00 00 00	 call	 ??3CObject@@SGXPAX@Z	; CObject::operator delete
  001e4	c3		 ret	 0
__ehhandler$?InsertSmallSkin@CSkinMgrV1@@UAE_NV?$basic_string@DU?$char_traits@D@std@@V?$allocator@D@2@@std@@PAVCBitmap@@0_N@Z:
  001e5	b8 00 00 00 00	 mov	 eax, OFFSET FLAT:$T205235
  001ea	e9 00 00 00 00	 jmp	 ___CxxFrameHandler
text$x	ENDS
?InsertSmallSkin@CSkinMgrV1@@UAE_NV?$basic_string@DU?$char_traits@D@std@@V?$allocator@D@2@@std@@PAVCBitmap@@0_N@Z ENDP ; CSkinMgrV1::InsertSmallSkin
EXTRN	?InsertSmallObjectBmp@CSubjectChildWnd@@QAEXAAV?$basic_string@DU?$char_traits@D@std@@V?$allocator@D@2@@std@@PAVCBitmap@@V23@_N@Z:NEAR ; CSubjectChildWnd::InsertSmallObjectBmp
xdata$x	SEGMENT
$T205268 DD	0ffffffffH
	DD	FLAT:$L205258
	DD	00H
	DD	FLAT:$L205259
	DD	01H
	DD	FLAT:$L205260
	DD	01H
	DD	FLAT:$L205261
	DD	01H
	DD	FLAT:$L205262
	DD	01H
	DD	FLAT:$L205263
$T205266 DD	019930520H
	DD	06H
	DD	FLAT:$T205268
	DD	2 DUP(00H)
	DD	2 DUP(00H)
; Function compile flags: /Odt
xdata$x	ENDS
_TEXT	SEGMENT
tv163 = -76						; size = 4
tv135 = -72						; size = 4
tv95 = -68						; size = 4
tv87 = -64						; size = 4
tv79 = -60						; size = 4
_this$ = -56						; size = 4
$T205257 = -50						; size = 1
$T205256 = -49						; size = 1
$T205255 = -48						; size = 4
$T205252 = -44						; size = 4
$T205251 = -40						; size = 4
$T205248 = -36						; size = 4
$T205247 = -32						; size = 4
$T205244 = -28						; size = 4
$T205243 = -24						; size = 4
$T205240 = -20						; size = 4
$T205239 = -16						; size = 4
__$EHRec$ = -12						; size = 12
_astrName$ = 8						; size = 28
_apBmp$ = 36						; size = 4
_strPath$ = 40						; size = 28
_bHasSkin$ = 68						; size = 1
?InsertSmallSubjectSkin@CSkinMgrV1@@UAE_NV?$basic_string@DU?$char_traits@D@std@@V?$allocator@D@2@@std@@PAVCBitmap@@0_N@Z PROC NEAR ; CSkinMgrV1::InsertSmallSubjectSkin
; _this$ = ecx

; 296  : {

  01210	55		 push	 ebp
  01211	8b ec		 mov	 ebp, esp
  01213	6a ff		 push	 -1
  01215	68 00 00 00 00	 push	 __ehhandler$?InsertSmallSubjectSkin@CSkinMgrV1@@UAE_NV?$basic_string@DU?$char_traits@D@std@@V?$allocator@D@2@@std@@PAVCBitmap@@0_N@Z
  0121a	64 a1 00 00 00
	00		 mov	 eax, DWORD PTR fs:__except_list
  01220	50		 push	 eax
  01221	64 89 25 00 00
	00 00		 mov	 DWORD PTR fs:__except_list, esp
  01228	83 ec 40	 sub	 esp, 64			; 00000040H
  0122b	89 4d c8	 mov	 DWORD PTR _this$[ebp], ecx
  0122e	c7 45 fc 01 00
	00 00		 mov	 DWORD PTR __$EHRec$[ebp+8], 1

; 297  : 	if( !mb_HasPopWnd)

  01235	8b 45 c8	 mov	 eax, DWORD PTR _this$[ebp]
  01238	0f b6 48 48	 movzx	 ecx, BYTE PTR [eax+72]
  0123c	85 c9		 test	 ecx, ecx
  0123e	0f 85 57 01 00
	00		 jne	 $L202412

; 298  : 	{	
; 299  : 		if(NULL == mp_mainSkinWnd)

  01244	8b 55 c8	 mov	 edx, DWORD PTR _this$[ebp]
  01247	83 7a 10 00	 cmp	 DWORD PTR [edx+16], 0
  0124b	0f 85 f8 00 00
	00		 jne	 $L202413

; 300  : 		{
; 301  : 			mp_mainSkinWnd	= new CMainSkinWnd;

  01251	68 60 09 00 00	 push	 2400			; 00000960H
  01256	e8 00 00 00 00	 call	 ??2CObject@@SGPAXI@Z	; CObject::operator new
  0125b	89 45 ec	 mov	 DWORD PTR $T205240[ebp], eax
  0125e	c6 45 fc 02	 mov	 BYTE PTR __$EHRec$[ebp+8], 2
  01262	83 7d ec 00	 cmp	 DWORD PTR $T205240[ebp], 0
  01266	74 0d		 je	 SHORT $L205241
  01268	8b 4d ec	 mov	 ecx, DWORD PTR $T205240[ebp]
  0126b	e8 00 00 00 00	 call	 ??0CMainSkinWnd@@QAE@XZ	; CMainSkinWnd::CMainSkinWnd
  01270	89 45 c4	 mov	 DWORD PTR tv79[ebp], eax
  01273	eb 07		 jmp	 SHORT $L205242
$L205241:
  01275	c7 45 c4 00 00
	00 00		 mov	 DWORD PTR tv79[ebp], 0
$L205242:
  0127c	8b 45 c4	 mov	 eax, DWORD PTR tv79[ebp]
  0127f	89 45 f0	 mov	 DWORD PTR $T205239[ebp], eax
  01282	c6 45 fc 01	 mov	 BYTE PTR __$EHRec$[ebp+8], 1
  01286	8b 4d c8	 mov	 ecx, DWORD PTR _this$[ebp]
  01289	8b 55 f0	 mov	 edx, DWORD PTR $T205239[ebp]
  0128c	89 51 10	 mov	 DWORD PTR [ecx+16], edx

; 302  : 			mp_skinWnd		= new CSkinWnd;

  0128f	68 e8 02 00 00	 push	 744			; 000002e8H
  01294	e8 00 00 00 00	 call	 ??2CObject@@SGPAXI@Z	; CObject::operator new
  01299	89 45 e4	 mov	 DWORD PTR $T205244[ebp], eax
  0129c	c6 45 fc 03	 mov	 BYTE PTR __$EHRec$[ebp+8], 3
  012a0	83 7d e4 00	 cmp	 DWORD PTR $T205244[ebp], 0
  012a4	74 0d		 je	 SHORT $L205245
  012a6	8b 4d e4	 mov	 ecx, DWORD PTR $T205244[ebp]
  012a9	e8 00 00 00 00	 call	 ??0CSkinWnd@@QAE@XZ	; CSkinWnd::CSkinWnd
  012ae	89 45 c0	 mov	 DWORD PTR tv87[ebp], eax
  012b1	eb 07		 jmp	 SHORT $L205246
$L205245:
  012b3	c7 45 c0 00 00
	00 00		 mov	 DWORD PTR tv87[ebp], 0
$L205246:
  012ba	8b 45 c0	 mov	 eax, DWORD PTR tv87[ebp]
  012bd	89 45 e8	 mov	 DWORD PTR $T205243[ebp], eax
  012c0	c6 45 fc 01	 mov	 BYTE PTR __$EHRec$[ebp+8], 1
  012c4	8b 4d c8	 mov	 ecx, DWORD PTR _this$[ebp]
  012c7	8b 55 e8	 mov	 edx, DWORD PTR $T205243[ebp]
  012ca	89 51 14	 mov	 DWORD PTR [ecx+20], edx

; 303  : 			mp_SubjectWnd	= new CSubjectChildWnd;

  012cd	68 f4 02 00 00	 push	 756			; 000002f4H
  012d2	e8 00 00 00 00	 call	 ??2CObject@@SGPAXI@Z	; CObject::operator new
  012d7	89 45 dc	 mov	 DWORD PTR $T205248[ebp], eax
  012da	c6 45 fc 04	 mov	 BYTE PTR __$EHRec$[ebp+8], 4
  012de	83 7d dc 00	 cmp	 DWORD PTR $T205248[ebp], 0
  012e2	74 0d		 je	 SHORT $L205249
  012e4	8b 4d dc	 mov	 ecx, DWORD PTR $T205248[ebp]
  012e7	e8 00 00 00 00	 call	 ??0CSubjectChildWnd@@QAE@XZ ; CSubjectChildWnd::CSubjectChildWnd
  012ec	89 45 bc	 mov	 DWORD PTR tv95[ebp], eax
  012ef	eb 07		 jmp	 SHORT $L205250
$L205249:
  012f1	c7 45 bc 00 00
	00 00		 mov	 DWORD PTR tv95[ebp], 0
$L205250:
  012f8	8b 45 bc	 mov	 eax, DWORD PTR tv95[ebp]
  012fb	89 45 e0	 mov	 DWORD PTR $T205247[ebp], eax
  012fe	c6 45 fc 01	 mov	 BYTE PTR __$EHRec$[ebp+8], 1
  01302	8b 4d c8	 mov	 ecx, DWORD PTR _this$[ebp]
  01305	8b 55 e0	 mov	 edx, DWORD PTR $T205247[ebp]
  01308	89 51 18	 mov	 DWORD PTR [ecx+24], edx

; 304  : 			mp_WebSubWnd	= new CWebSubWnd;

  0130b	68 bc 01 00 00	 push	 444			; 000001bcH
  01310	e8 00 00 00 00	 call	 ??2CObject@@SGPAXI@Z	; CObject::operator new
  01315	89 45 d4	 mov	 DWORD PTR $T205252[ebp], eax
  01318	c6 45 fc 05	 mov	 BYTE PTR __$EHRec$[ebp+8], 5
  0131c	83 7d d4 00	 cmp	 DWORD PTR $T205252[ebp], 0
  01320	74 0d		 je	 SHORT $L205253
  01322	8b 4d d4	 mov	 ecx, DWORD PTR $T205252[ebp]
  01325	e8 00 00 00 00	 call	 ??0CWebSubWnd@@QAE@XZ	; CWebSubWnd::CWebSubWnd
  0132a	89 45 b8	 mov	 DWORD PTR tv135[ebp], eax
  0132d	eb 07		 jmp	 SHORT $L205254
$L205253:
  0132f	c7 45 b8 00 00
	00 00		 mov	 DWORD PTR tv135[ebp], 0
$L205254:
  01336	8b 45 b8	 mov	 eax, DWORD PTR tv135[ebp]
  01339	89 45 d8	 mov	 DWORD PTR $T205251[ebp], eax
  0133c	c6 45 fc 01	 mov	 BYTE PTR __$EHRec$[ebp+8], 1
  01340	8b 4d c8	 mov	 ecx, DWORD PTR _this$[ebp]
  01343	8b 55 d8	 mov	 edx, DWORD PTR $T205251[ebp]
  01346	89 51 1c	 mov	 DWORD PTR [ecx+28], edx
$L202413:

; 305  : //			m_pToolTip = new CCWToolTips();
; 306  : 		}
; 307  : 
; 308  : 		mp_SubjectWnd->InsertSmallObjectBmp(astrName,apBmp, strPath,bHasSkin);

  01349	8a 45 44	 mov	 al, BYTE PTR _bHasSkin$[ebp]
  0134c	50		 push	 eax
  0134d	83 ec 1c	 sub	 esp, 28			; 0000001cH
  01350	8b cc		 mov	 ecx, esp
  01352	89 65 d0	 mov	 DWORD PTR $T205255[ebp], esp
  01355	8d 55 28	 lea	 edx, DWORD PTR _strPath$[ebp]
  01358	52		 push	 edx
  01359	ff 15 00 00 00
	00		 call	 DWORD PTR __imp_??0?$basic_string@DU?$char_traits@D@std@@V?$allocator@D@2@@std@@QAE@ABV01@@Z
  0135f	89 45 b4	 mov	 DWORD PTR tv163[ebp], eax
  01362	8b 45 24	 mov	 eax, DWORD PTR _apBmp$[ebp]
  01365	50		 push	 eax
  01366	8d 4d 08	 lea	 ecx, DWORD PTR _astrName$[ebp]
  01369	51		 push	 ecx
  0136a	8b 55 c8	 mov	 edx, DWORD PTR _this$[ebp]
  0136d	8b 4a 18	 mov	 ecx, DWORD PTR [edx+24]
  01370	e8 00 00 00 00	 call	 ?InsertSmallObjectBmp@CSubjectChildWnd@@QAEXAAV?$basic_string@DU?$char_traits@D@std@@V?$allocator@D@2@@std@@PAVCBitmap@@V23@_N@Z ; CSubjectChildWnd::InsertSmallObjectBmp

; 309  : 		return true;

  01375	c6 45 cf 01	 mov	 BYTE PTR $T205256[ebp], 1
  01379	c6 45 fc 00	 mov	 BYTE PTR __$EHRec$[ebp+8], 0
  0137d	8d 4d 08	 lea	 ecx, DWORD PTR _astrName$[ebp]
  01380	ff 15 00 00 00
	00		 call	 DWORD PTR __imp_??1?$basic_string@DU?$char_traits@D@std@@V?$allocator@D@2@@std@@QAE@XZ
  01386	c7 45 fc ff ff
	ff ff		 mov	 DWORD PTR __$EHRec$[ebp+8], -1
  0138d	8d 4d 28	 lea	 ecx, DWORD PTR _strPath$[ebp]
  01390	ff 15 00 00 00
	00		 call	 DWORD PTR __imp_??1?$basic_string@DU?$char_traits@D@std@@V?$allocator@D@2@@std@@QAE@XZ
  01396	8a 45 cf	 mov	 al, BYTE PTR $T205256[ebp]
  01399	eb 24		 jmp	 SHORT $L202411
$L202412:

; 310  : 	}
; 311  : 	return false;

  0139b	c6 45 ce 00	 mov	 BYTE PTR $T205257[ebp], 0
  0139f	c6 45 fc 00	 mov	 BYTE PTR __$EHRec$[ebp+8], 0
  013a3	8d 4d 08	 lea	 ecx, DWORD PTR _astrName$[ebp]
  013a6	ff 15 00 00 00
	00		 call	 DWORD PTR __imp_??1?$basic_string@DU?$char_traits@D@std@@V?$allocator@D@2@@std@@QAE@XZ
  013ac	c7 45 fc ff ff
	ff ff		 mov	 DWORD PTR __$EHRec$[ebp+8], -1
  013b3	8d 4d 28	 lea	 ecx, DWORD PTR _strPath$[ebp]
  013b6	ff 15 00 00 00
	00		 call	 DWORD PTR __imp_??1?$basic_string@DU?$char_traits@D@std@@V?$allocator@D@2@@std@@QAE@XZ
  013bc	8a 45 ce	 mov	 al, BYTE PTR $T205257[ebp]
$L202411:

; 312  : }

  013bf	8b 4d f4	 mov	 ecx, DWORD PTR __$EHRec$[ebp]
  013c2	64 89 0d 00 00
	00 00		 mov	 DWORD PTR fs:__except_list, ecx
  013c9	8b e5		 mov	 esp, ebp
  013cb	5d		 pop	 ebp
  013cc	c2 40 00	 ret	 64			; 00000040H
_TEXT	ENDS
text$x	SEGMENT
$L205258:
  001ef	8d 4d 28	 lea	 ecx, DWORD PTR _strPath$[ebp]
  001f2	ff 25 00 00 00
	00		 jmp	 DWORD PTR __imp_??1?$basic_string@DU?$char_traits@D@std@@V?$allocator@D@2@@std@@QAE@XZ
$L205259:
  001f8	8d 4d 08	 lea	 ecx, DWORD PTR _astrName$[ebp]
  001fb	ff 25 00 00 00
	00		 jmp	 DWORD PTR __imp_??1?$basic_string@DU?$char_traits@D@std@@V?$allocator@D@2@@std@@QAE@XZ
$L205260:
  00201	8b 45 ec	 mov	 eax, DWORD PTR $T205240[ebp]
  00204	50		 push	 eax
  00205	e8 00 00 00 00	 call	 ??3CObject@@SGXPAX@Z	; CObject::operator delete
  0020a	c3		 ret	 0
$L205261:
  0020b	8b 45 e4	 mov	 eax, DWORD PTR $T205244[ebp]
  0020e	50		 push	 eax
  0020f	e8 00 00 00 00	 call	 ??3CObject@@SGXPAX@Z	; CObject::operator delete
  00214	c3		 ret	 0
$L205262:
  00215	8b 45 dc	 mov	 eax, DWORD PTR $T205248[ebp]
  00218	50		 push	 eax
  00219	e8 00 00 00 00	 call	 ??3CObject@@SGXPAX@Z	; CObject::operator delete
  0021e	c3		 ret	 0
$L205263:
  0021f	8b 45 d4	 mov	 eax, DWORD PTR $T205252[ebp]
  00222	50		 push	 eax
  00223	e8 00 00 00 00	 call	 ??3CObject@@SGXPAX@Z	; CObject::operator delete
  00228	c3		 ret	 0
__ehhandler$?InsertSmallSubjectSkin@CSkinMgrV1@@UAE_NV?$basic_string@DU?$char_traits@D@std@@V?$allocator@D@2@@std@@PAVCBitmap@@0_N@Z:
  00229	b8 00 00 00 00	 mov	 eax, OFFSET FLAT:$T205266
  0022e	e9 00 00 00 00	 jmp	 ___CxxFrameHandler
text$x	ENDS
?InsertSmallSubjectSkin@CSkinMgrV1@@UAE_NV?$basic_string@DU?$char_traits@D@std@@V?$allocator@D@2@@std@@PAVCBitmap@@0_N@Z ENDP ; CSkinMgrV1::InsertSmallSubjectSkin
EXTRN	?SetTipText@CSkinWnd@@QAEXV?$CStringT@DV?$StrTraitMFC_DLL@DV?$ChTraitsCRT@D@ATL@@@@@ATL@@0@Z:NEAR ; CSkinWnd::SetTipText
xdata$x	SEGMENT
$T205279 DD	0ffffffffH
	DD	FLAT:$L205272
	DD	00H
	DD	FLAT:$L205273
	DD	01H
	DD	FLAT:$L205274
$T205277 DD	019930520H
	DD	03H
	DD	FLAT:$T205279
	DD	2 DUP(00H)
	DD	2 DUP(00H)
; Function compile flags: /Odt
xdata$x	ENDS
_TEXT	SEGMENT
tv136 = -36						; size = 4
tv133 = -32						; size = 4
tv139 = -28						; size = 4
_this$ = -24						; size = 4
$T205271 = -20						; size = 4
$T205270 = -16						; size = 4
__$EHRec$ = -12						; size = 12
_astrName$ = 8						; size = 4
_strTip$ = 12						; size = 4
?SetTipText@CSkinMgrV1@@UAEXV?$CStringT@DV?$StrTraitMFC_DLL@DV?$ChTraitsCRT@D@ATL@@@@@ATL@@0@Z PROC NEAR ; CSkinMgrV1::SetTipText
; _this$ = ecx

; 316  : {

  013d0	55		 push	 ebp
  013d1	8b ec		 mov	 ebp, esp
  013d3	6a ff		 push	 -1
  013d5	68 00 00 00 00	 push	 __ehhandler$?SetTipText@CSkinMgrV1@@UAEXV?$CStringT@DV?$StrTraitMFC_DLL@DV?$ChTraitsCRT@D@ATL@@@@@ATL@@0@Z
  013da	64 a1 00 00 00
	00		 mov	 eax, DWORD PTR fs:__except_list
  013e0	50		 push	 eax
  013e1	64 89 25 00 00
	00 00		 mov	 DWORD PTR fs:__except_list, esp
  013e8	83 ec 18	 sub	 esp, 24			; 00000018H
  013eb	89 4d e8	 mov	 DWORD PTR _this$[ebp], ecx
  013ee	c7 45 fc 01 00
	00 00		 mov	 DWORD PTR __$EHRec$[ebp+8], 1

; 317  : 	if( mp_skinWnd )

  013f5	8b 45 e8	 mov	 eax, DWORD PTR _this$[ebp]
  013f8	83 78 14 00	 cmp	 DWORD PTR [eax+20], 0
  013fc	74 3f		 je	 SHORT $L202438

; 318  : 		mp_skinWnd->SetTipText( astrName,strTip );

  013fe	51		 push	 ecx
  013ff	8b cc		 mov	 ecx, esp
  01401	89 65 f0	 mov	 DWORD PTR $T205270[ebp], esp
  01404	8d 55 0c	 lea	 edx, DWORD PTR _strTip$[ebp]
  01407	52		 push	 edx
  01408	ff 15 00 00 00
	00		 call	 DWORD PTR __imp_??0?$CStringT@DV?$StrTraitMFC_DLL@DV?$ChTraitsCRT@D@ATL@@@@@ATL@@QAE@ABV01@@Z
  0140e	89 45 e4	 mov	 DWORD PTR tv139[ebp], eax
  01411	8b 45 e4	 mov	 eax, DWORD PTR tv139[ebp]
  01414	89 45 e0	 mov	 DWORD PTR tv133[ebp], eax
  01417	c6 45 fc 02	 mov	 BYTE PTR __$EHRec$[ebp+8], 2
  0141b	51		 push	 ecx
  0141c	8b cc		 mov	 ecx, esp
  0141e	89 65 ec	 mov	 DWORD PTR $T205271[ebp], esp
  01421	8d 55 08	 lea	 edx, DWORD PTR _astrName$[ebp]
  01424	52		 push	 edx
  01425	ff 15 00 00 00
	00		 call	 DWORD PTR __imp_??0?$CStringT@DV?$StrTraitMFC_DLL@DV?$ChTraitsCRT@D@ATL@@@@@ATL@@QAE@ABV01@@Z
  0142b	89 45 dc	 mov	 DWORD PTR tv136[ebp], eax
  0142e	8b 45 e8	 mov	 eax, DWORD PTR _this$[ebp]
  01431	8b 48 14	 mov	 ecx, DWORD PTR [eax+20]
  01434	c6 45 fc 01	 mov	 BYTE PTR __$EHRec$[ebp+8], 1
  01438	e8 00 00 00 00	 call	 ?SetTipText@CSkinWnd@@QAEXV?$CStringT@DV?$StrTraitMFC_DLL@DV?$ChTraitsCRT@D@ATL@@@@@ATL@@0@Z ; CSkinWnd::SetTipText
$L202438:

; 319  : }

  0143d	c6 45 fc 00	 mov	 BYTE PTR __$EHRec$[ebp+8], 0
  01441	8d 4d 08	 lea	 ecx, DWORD PTR _astrName$[ebp]
  01444	ff 15 00 00 00
	00		 call	 DWORD PTR __imp_??1?$CStringT@DV?$StrTraitMFC_DLL@DV?$ChTraitsCRT@D@ATL@@@@@ATL@@QAE@XZ
  0144a	c7 45 fc ff ff
	ff ff		 mov	 DWORD PTR __$EHRec$[ebp+8], -1
  01451	8d 4d 0c	 lea	 ecx, DWORD PTR _strTip$[ebp]
  01454	ff 15 00 00 00
	00		 call	 DWORD PTR __imp_??1?$CStringT@DV?$StrTraitMFC_DLL@DV?$ChTraitsCRT@D@ATL@@@@@ATL@@QAE@XZ
  0145a	8b 4d f4	 mov	 ecx, DWORD PTR __$EHRec$[ebp]
  0145d	64 89 0d 00 00
	00 00		 mov	 DWORD PTR fs:__except_list, ecx
  01464	8b e5		 mov	 esp, ebp
  01466	5d		 pop	 ebp
  01467	c2 08 00	 ret	 8
_TEXT	ENDS
text$x	SEGMENT
$L205272:
  00233	8d 4d 0c	 lea	 ecx, DWORD PTR _strTip$[ebp]
  00236	ff 25 00 00 00
	00		 jmp	 DWORD PTR __imp_??1?$CStringT@DV?$StrTraitMFC_DLL@DV?$ChTraitsCRT@D@ATL@@@@@ATL@@QAE@XZ
$L205273:
  0023c	8d 4d 08	 lea	 ecx, DWORD PTR _astrName$[ebp]
  0023f	ff 25 00 00 00
	00		 jmp	 DWORD PTR __imp_??1?$CStringT@DV?$StrTraitMFC_DLL@DV?$ChTraitsCRT@D@ATL@@@@@ATL@@QAE@XZ
$L205274:
  00245	8b 4d f0	 mov	 ecx, DWORD PTR $T205270[ebp]
  00248	ff 25 00 00 00
	00		 jmp	 DWORD PTR __imp_??1?$CStringT@DV?$StrTraitMFC_DLL@DV?$ChTraitsCRT@D@ATL@@@@@ATL@@QAE@XZ
__ehhandler$?SetTipText@CSkinMgrV1@@UAEXV?$CStringT@DV?$StrTraitMFC_DLL@DV?$ChTraitsCRT@D@ATL@@@@@ATL@@0@Z:
  0024e	b8 00 00 00 00	 mov	 eax, OFFSET FLAT:$T205277
  00253	e9 00 00 00 00	 jmp	 ___CxxFrameHandler
text$x	ENDS
?SetTipText@CSkinMgrV1@@UAEXV?$CStringT@DV?$StrTraitMFC_DLL@DV?$ChTraitsCRT@D@ATL@@@@@ATL@@0@Z ENDP ; CSkinMgrV1::SetTipText
PUBLIC	??1DIBINFO@@UAE@XZ				; DIBINFO::~DIBINFO
EXTRN	?gBitMapOperate@@3VCBitMapOperate@@A:BYTE	; gBitMapOperate
EXTRN	?ChangeBmpSkin@CBitMapOperate@@QAEPAVDIBINFO@@AAV2@AAIAAK21@Z:NEAR ; CBitMapOperate::ChangeBmpSkin
xdata$x	SEGMENT
$T205286 DD	0ffffffffH
	DD	FLAT:$L205282
$T205284 DD	019930520H
	DD	01H
	DD	FLAT:$T205286
	DD	2 DUP(00H)
	DD	2 DUP(00H)
; Function compile flags: /Odt
xdata$x	ENDS
_TEXT	SEGMENT
_this$ = -20						; size = 4
$T205281 = -16						; size = 4
__$EHRec$ = -12						; size = 12
_ahSourceDib$ = 8					; size = 24
_aColorGroup$ = 32					; size = 4
_aMaskColor$ = 36					; size = 4
?ChangeBmp@CSkinMgrV1@@UAEPAVDIBINFO@@V2@IK@Z PROC NEAR	; CSkinMgrV1::ChangeBmp
; _this$ = ecx

; 322  : {

  01470	55		 push	 ebp
  01471	8b ec		 mov	 ebp, esp
  01473	6a ff		 push	 -1
  01475	68 00 00 00 00	 push	 __ehhandler$?ChangeBmp@CSkinMgrV1@@UAEPAVDIBINFO@@V2@IK@Z
  0147a	64 a1 00 00 00
	00		 mov	 eax, DWORD PTR fs:__except_list
  01480	50		 push	 eax
  01481	64 89 25 00 00
	00 00		 mov	 DWORD PTR fs:__except_list, esp
  01488	83 ec 08	 sub	 esp, 8
  0148b	89 4d ec	 mov	 DWORD PTR _this$[ebp], ecx
  0148e	c7 45 fc 00 00
	00 00		 mov	 DWORD PTR __$EHRec$[ebp+8], 0

; 323  : 	return gBitMapOperate.ChangeBmpSkin(ahSourceDib,aColorGroup,m_BaseColor,aMaskColor,m_nLightPos);

  01495	8b 45 ec	 mov	 eax, DWORD PTR _this$[ebp]
  01498	83 c0 30	 add	 eax, 48			; 00000030H
  0149b	50		 push	 eax
  0149c	8d 4d 24	 lea	 ecx, DWORD PTR _aMaskColor$[ebp]
  0149f	51		 push	 ecx
  014a0	8b 55 ec	 mov	 edx, DWORD PTR _this$[ebp]
  014a3	83 c2 28	 add	 edx, 40			; 00000028H
  014a6	52		 push	 edx
  014a7	8d 45 20	 lea	 eax, DWORD PTR _aColorGroup$[ebp]
  014aa	50		 push	 eax
  014ab	8d 4d 08	 lea	 ecx, DWORD PTR _ahSourceDib$[ebp]
  014ae	51		 push	 ecx
  014af	b9 00 00 00 00	 mov	 ecx, OFFSET FLAT:?gBitMapOperate@@3VCBitMapOperate@@A
  014b4	e8 00 00 00 00	 call	 ?ChangeBmpSkin@CBitMapOperate@@QAEPAVDIBINFO@@AAV2@AAIAAK21@Z ; CBitMapOperate::ChangeBmpSkin
  014b9	89 45 f0	 mov	 DWORD PTR $T205281[ebp], eax
  014bc	c7 45 fc ff ff
	ff ff		 mov	 DWORD PTR __$EHRec$[ebp+8], -1
  014c3	8d 4d 08	 lea	 ecx, DWORD PTR _ahSourceDib$[ebp]
  014c6	e8 00 00 00 00	 call	 ??1DIBINFO@@UAE@XZ	; DIBINFO::~DIBINFO
  014cb	8b 45 f0	 mov	 eax, DWORD PTR $T205281[ebp]

; 324  : }

  014ce	8b 4d f4	 mov	 ecx, DWORD PTR __$EHRec$[ebp]
  014d1	64 89 0d 00 00
	00 00		 mov	 DWORD PTR fs:__except_list, ecx
  014d8	8b e5		 mov	 esp, ebp
  014da	5d		 pop	 ebp
  014db	c2 20 00	 ret	 32			; 00000020H
_TEXT	ENDS
text$x	SEGMENT
$L205282:
  00258	8d 4d 08	 lea	 ecx, DWORD PTR _ahSourceDib$[ebp]
  0025b	e9 00 00 00 00	 jmp	 ??1DIBINFO@@UAE@XZ	; DIBINFO::~DIBINFO
__ehhandler$?ChangeBmp@CSkinMgrV1@@UAEPAVDIBINFO@@V2@IK@Z:
  00260	b8 00 00 00 00	 mov	 eax, OFFSET FLAT:$T205284
  00265	e9 00 00 00 00	 jmp	 ___CxxFrameHandler
text$x	ENDS
?ChangeBmp@CSkinMgrV1@@UAEPAVDIBINFO@@V2@IK@Z ENDP	; CSkinMgrV1::ChangeBmp
PUBLIC	??_R4DIBINFO@@6B@				; DIBINFO::`RTTI Complete Object Locator'
PUBLIC	??_R0?AVDIBINFO@@@8				; DIBINFO `RTTI Type Descriptor'
PUBLIC	??_R3DIBINFO@@8					; DIBINFO::`RTTI Class Hierarchy Descriptor'
PUBLIC	??_R2DIBINFO@@8					; DIBINFO::`RTTI Base Class Array'
PUBLIC	??_R1A@?0A@A@DIBINFO@@8				; DIBINFO::`RTTI Base Class Descriptor at (0,-1,0,0)'
PUBLIC	??_7DIBINFO@@6B@				; DIBINFO::`vftable'
PUBLIC	??_GDIBINFO@@UAEPAXI@Z				; DIBINFO::`scalar deleting destructor'
EXTRN	_memset:NEAR
EXTRN	??_EDIBINFO@@UAEPAXI@Z:NEAR			; DIBINFO::`vector deleting destructor'
;	COMDAT ??_7DIBINFO@@6B@
; File d:\boxgit\playbox\playbox\dev\prj\playbox\src\layoutmgr\changecolor\bitmapoperate.h
CONST	SEGMENT
??_7DIBINFO@@6B@ DD FLAT:??_R4DIBINFO@@6B@		; DIBINFO::`vftable'
	DD	FLAT:??_EDIBINFO@@UAEPAXI@Z
CONST	ENDS
;	COMDAT ??_R4DIBINFO@@6B@
rdata$r	SEGMENT
??_R4DIBINFO@@6B@ DD 00H				; DIBINFO::`RTTI Complete Object Locator'
	DD	00H
	DD	00H
	DD	FLAT:??_R0?AVDIBINFO@@@8
	DD	FLAT:??_R3DIBINFO@@8
rdata$r	ENDS
;	COMDAT ??_R0?AVDIBINFO@@@8
_DATA	SEGMENT
??_R0?AVDIBINFO@@@8 DD FLAT:??_7type_info@@6B@		; DIBINFO `RTTI Type Descriptor'
	DD	00H
	DB	'.?AVDIBINFO@@', 00H
_DATA	ENDS
;	COMDAT ??_R3DIBINFO@@8
rdata$r	SEGMENT
??_R3DIBINFO@@8 DD 00H					; DIBINFO::`RTTI Class Hierarchy Descriptor'
	DD	00H
	DD	01H
	DD	FLAT:??_R2DIBINFO@@8
rdata$r	ENDS
;	COMDAT ??_R2DIBINFO@@8
rdata$r	SEGMENT
??_R2DIBINFO@@8 DD FLAT:??_R1A@?0A@A@DIBINFO@@8		; DIBINFO::`RTTI Base Class Array'
rdata$r	ENDS
;	COMDAT ??_R1A@?0A@A@DIBINFO@@8
rdata$r	SEGMENT
??_R1A@?0A@A@DIBINFO@@8 DD FLAT:??_R0?AVDIBINFO@@@8	; DIBINFO::`RTTI Base Class Descriptor at (0,-1,0,0)'
	DD	00H
	DD	00H
	DD	0ffffffffH
	DD	00H
	DD	00H
; Function compile flags: /Odt
rdata$r	ENDS
;	COMDAT ??1DIBINFO@@UAE@XZ
_TEXT	SEGMENT
_this$ = -4						; size = 4
??1DIBINFO@@UAE@XZ PROC NEAR				; DIBINFO::~DIBINFO, COMDAT
; _this$ = ecx

; 25   : 	{

  00000	55		 push	 ebp
  00001	8b ec		 mov	 ebp, esp
  00003	51		 push	 ecx
  00004	89 4d fc	 mov	 DWORD PTR _this$[ebp], ecx
  00007	8b 45 fc	 mov	 eax, DWORD PTR _this$[ebp]
  0000a	c7 00 00 00 00
	00		 mov	 DWORD PTR [eax], OFFSET FLAT:??_7DIBINFO@@6B@

; 26   : 		::ZeroMemory(this,sizeof(*this) );

  00010	6a 18		 push	 24			; 00000018H
  00012	6a 00		 push	 0
  00014	8b 4d fc	 mov	 ecx, DWORD PTR _this$[ebp]
  00017	51		 push	 ecx
  00018	e8 00 00 00 00	 call	 _memset
  0001d	83 c4 0c	 add	 esp, 12			; 0000000cH

; 27   : 	};

  00020	8b e5		 mov	 esp, ebp
  00022	5d		 pop	 ebp
  00023	c3		 ret	 0
??1DIBINFO@@UAE@XZ ENDP					; DIBINFO::~DIBINFO
; Function compile flags: /Odt
_TEXT	ENDS
;	COMDAT ??_GDIBINFO@@UAEPAXI@Z
_TEXT	SEGMENT
_this$ = -4						; size = 4
___flags$ = 8						; size = 4
??_GDIBINFO@@UAEPAXI@Z PROC NEAR			; DIBINFO::`scalar deleting destructor', COMDAT
; _this$ = ecx
  00000	55		 push	 ebp
  00001	8b ec		 mov	 ebp, esp
  00003	51		 push	 ecx
  00004	89 4d fc	 mov	 DWORD PTR _this$[ebp], ecx
  00007	8b 4d fc	 mov	 ecx, DWORD PTR _this$[ebp]
  0000a	e8 00 00 00 00	 call	 ??1DIBINFO@@UAE@XZ	; DIBINFO::~DIBINFO
  0000f	8b 45 08	 mov	 eax, DWORD PTR ___flags$[ebp]
  00012	83 e0 01	 and	 eax, 1
  00015	74 0c		 je	 SHORT $L197413
  00017	8b 4d fc	 mov	 ecx, DWORD PTR _this$[ebp]
  0001a	51		 push	 ecx
  0001b	e8 00 00 00 00	 call	 ??3@YAXPAX@Z		; operator delete
  00020	83 c4 04	 add	 esp, 4
$L197413:
  00023	8b 45 fc	 mov	 eax, DWORD PTR _this$[ebp]
  00026	8b e5		 mov	 esp, ebp
  00028	5d		 pop	 ebp
  00029	c2 04 00	 ret	 4
??_GDIBINFO@@UAEPAXI@Z ENDP				; DIBINFO::`scalar deleting destructor'
_TEXT	ENDS
EXTRN	?changeColor@CBitMapOperate@@QAEXAAKKI@Z:NEAR	; CBitMapOperate::changeColor
; Function compile flags: /Odt
; File d:\boxgit\playbox\playbox\dev\prj\playbox\src\layoutmgr\changecolor\ichangecolormgr.cpp
_TEXT	SEGMENT
_this$ = -4						; size = 4
_aColor$ = 8						; size = 4
?ChangeColor@CSkinMgrV1@@UAEXAAK@Z PROC NEAR		; CSkinMgrV1::ChangeColor
; _this$ = ecx

; 327  : {

  014e0	55		 push	 ebp
  014e1	8b ec		 mov	 ebp, esp
  014e3	51		 push	 ecx
  014e4	89 4d fc	 mov	 DWORD PTR _this$[ebp], ecx

; 328  : 	gBitMapOperate.changeColor(aColor,m_BaseColor,m_nLightPos);

  014e7	8b 45 fc	 mov	 eax, DWORD PTR _this$[ebp]
  014ea	8b 48 30	 mov	 ecx, DWORD PTR [eax+48]
  014ed	51		 push	 ecx
  014ee	8b 55 fc	 mov	 edx, DWORD PTR _this$[ebp]
  014f1	8b 42 28	 mov	 eax, DWORD PTR [edx+40]
  014f4	50		 push	 eax
  014f5	8b 4d 08	 mov	 ecx, DWORD PTR _aColor$[ebp]
  014f8	51		 push	 ecx
  014f9	b9 00 00 00 00	 mov	 ecx, OFFSET FLAT:?gBitMapOperate@@3VCBitMapOperate@@A
  014fe	e8 00 00 00 00	 call	 ?changeColor@CBitMapOperate@@QAEXAAKKI@Z ; CBitMapOperate::changeColor

; 329  : }

  01503	8b e5		 mov	 esp, ebp
  01505	5d		 pop	 ebp
  01506	c2 04 00	 ret	 4
?ChangeColor@CSkinMgrV1@@UAEXAAK@Z ENDP			; CSkinMgrV1::ChangeColor
_TEXT	ENDS
PUBLIC	?size@?$vector@PAVIChangeSkinEventListener@@V?$allocator@PAVIChangeSkinEventListener@@@std@@@std@@QBEIXZ ; std::vector<IChangeSkinEventListener *,std::allocator<IChangeSkinEventListener *> >::size
PUBLIC	??A?$vector@PAVIChangeSkinEventListener@@V?$allocator@PAVIChangeSkinEventListener@@@std@@@std@@QAEAAPAVIChangeSkinEventListener@@I@Z ; std::vector<IChangeSkinEventListener *,std::allocator<IChangeSkinEventListener *> >::operator[]
PUBLIC	?push_back@?$vector@PAVIChangeSkinEventListener@@V?$allocator@PAVIChangeSkinEventListener@@@std@@@std@@QAEXABQAVIChangeSkinEventListener@@@Z ; std::vector<IChangeSkinEventListener *,std::allocator<IChangeSkinEventListener *> >::push_back
; Function compile flags: /Odt
_TEXT	SEGMENT
_this$ = -8						; size = 4
_idx$202456 = -4					; size = 4
_apListtener$ = 8					; size = 4
?SetListener@CSkinMgrV1@@UAEXPAVIChangeSkinEventListener@@@Z PROC NEAR ; CSkinMgrV1::SetListener
; _this$ = ecx

; 331  : {

  01510	55		 push	 ebp
  01511	8b ec		 mov	 ebp, esp
  01513	83 ec 08	 sub	 esp, 8
  01516	89 4d f8	 mov	 DWORD PTR _this$[ebp], ecx

; 332  : 	for(size_t idx = 0;idx < mp_changeSkinEven.size();idx++ )

  01519	c7 45 fc 00 00
	00 00		 mov	 DWORD PTR _idx$202456[ebp], 0
  01520	eb 09		 jmp	 SHORT $L202457
$L202458:
  01522	8b 45 fc	 mov	 eax, DWORD PTR _idx$202456[ebp]
  01525	83 c0 01	 add	 eax, 1
  01528	89 45 fc	 mov	 DWORD PTR _idx$202456[ebp], eax
$L202457:
  0152b	8b 4d f8	 mov	 ecx, DWORD PTR _this$[ebp]
  0152e	83 c1 38	 add	 ecx, 56			; 00000038H
  01531	e8 00 00 00 00	 call	 ?size@?$vector@PAVIChangeSkinEventListener@@V?$allocator@PAVIChangeSkinEventListener@@@std@@@std@@QBEIXZ ; std::vector<IChangeSkinEventListener *,std::allocator<IChangeSkinEventListener *> >::size
  01536	39 45 fc	 cmp	 DWORD PTR _idx$202456[ebp], eax
  01539	73 1a		 jae	 SHORT $L202459

; 333  : 	{
; 334  : 		if( mp_changeSkinEven[idx] == apListtener )

  0153b	8b 4d fc	 mov	 ecx, DWORD PTR _idx$202456[ebp]
  0153e	51		 push	 ecx
  0153f	8b 4d f8	 mov	 ecx, DWORD PTR _this$[ebp]
  01542	83 c1 38	 add	 ecx, 56			; 00000038H
  01545	e8 00 00 00 00	 call	 ??A?$vector@PAVIChangeSkinEventListener@@V?$allocator@PAVIChangeSkinEventListener@@@std@@@std@@QAEAAPAVIChangeSkinEventListener@@I@Z ; std::vector<IChangeSkinEventListener *,std::allocator<IChangeSkinEventListener *> >::operator[]
  0154a	8b 10		 mov	 edx, DWORD PTR [eax]
  0154c	3b 55 08	 cmp	 edx, DWORD PTR _apListtener$[ebp]
  0154f	75 02		 jne	 SHORT $L202460

; 335  : 		{
; 336  : 			return;

  01551	eb 11		 jmp	 SHORT $L202455
$L202460:

; 337  : 		}
; 338  : 	}

  01553	eb cd		 jmp	 SHORT $L202458
$L202459:

; 339  : 
; 340  : 	mp_changeSkinEven.push_back( apListtener );	

  01555	8d 45 08	 lea	 eax, DWORD PTR _apListtener$[ebp]
  01558	50		 push	 eax
  01559	8b 4d f8	 mov	 ecx, DWORD PTR _this$[ebp]
  0155c	83 c1 38	 add	 ecx, 56			; 00000038H
  0155f	e8 00 00 00 00	 call	 ?push_back@?$vector@PAVIChangeSkinEventListener@@V?$allocator@PAVIChangeSkinEventListener@@@std@@@std@@QAEXABQAVIChangeSkinEventListener@@@Z ; std::vector<IChangeSkinEventListener *,std::allocator<IChangeSkinEventListener *> >::push_back
$L202455:

; 341  : }

  01564	8b e5		 mov	 esp, ebp
  01566	5d		 pop	 ebp
  01567	c2 04 00	 ret	 4
?SetListener@CSkinMgrV1@@UAEXPAVIChangeSkinEventListener@@@Z ENDP ; CSkinMgrV1::SetListener
_TEXT	ENDS
PUBLIC	??9const_iterator@?$vector@PAVIChangeSkinEventListener@@V?$allocator@PAVIChangeSkinEventListener@@@std@@@std@@QBE_NABV012@@Z ; std::vector<IChangeSkinEventListener *,std::allocator<IChangeSkinEventListener *> >::const_iterator::operator!=
PUBLIC	??Diterator@?$vector@PAVIChangeSkinEventListener@@V?$allocator@PAVIChangeSkinEventListener@@@std@@@std@@QBEAAPAVIChangeSkinEventListener@@XZ ; std::vector<IChangeSkinEventListener *,std::allocator<IChangeSkinEventListener *> >::iterator::operator*
PUBLIC	??Eiterator@?$vector@PAVIChangeSkinEventListener@@V?$allocator@PAVIChangeSkinEventListener@@@std@@@std@@QAE?AV012@H@Z ; std::vector<IChangeSkinEventListener *,std::allocator<IChangeSkinEventListener *> >::iterator::operator++
PUBLIC	?begin@?$vector@PAVIChangeSkinEventListener@@V?$allocator@PAVIChangeSkinEventListener@@@std@@@std@@QAE?AViterator@12@XZ ; std::vector<IChangeSkinEventListener *,std::allocator<IChangeSkinEventListener *> >::begin
PUBLIC	?end@?$vector@PAVIChangeSkinEventListener@@V?$allocator@PAVIChangeSkinEventListener@@@std@@@std@@QAE?AViterator@12@XZ ; std::vector<IChangeSkinEventListener *,std::allocator<IChangeSkinEventListener *> >::end
PUBLIC	?erase@?$vector@PAVIChangeSkinEventListener@@V?$allocator@PAVIChangeSkinEventListener@@@std@@@std@@QAE?AViterator@12@V312@@Z ; std::vector<IChangeSkinEventListener *,std::allocator<IChangeSkinEventListener *> >::erase
; Function compile flags: /Odt
_TEXT	SEGMENT
_this$ = -20						; size = 4
$T205296 = -16						; size = 4
$T205295 = -12						; size = 4
$T205294 = -8						; size = 4
_it1$202582 = -4					; size = 4
_apListtener$ = 8					; size = 4
?RemoveListener@CSkinMgrV1@@UAEXPAVIChangeSkinEventListener@@@Z PROC NEAR ; CSkinMgrV1::RemoveListener
; _this$ = ecx

; 344  : {

  01570	55		 push	 ebp
  01571	8b ec		 mov	 ebp, esp
  01573	83 ec 14	 sub	 esp, 20			; 00000014H
  01576	89 4d ec	 mov	 DWORD PTR _this$[ebp], ecx

; 345  : 	for( vector<IChangeSkinEventListener*>::iterator it1 = mp_changeSkinEven.begin(); 

  01579	8d 45 fc	 lea	 eax, DWORD PTR _it1$202582[ebp]
  0157c	50		 push	 eax
  0157d	8b 4d ec	 mov	 ecx, DWORD PTR _this$[ebp]
  01580	83 c1 38	 add	 ecx, 56			; 00000038H
  01583	e8 00 00 00 00	 call	 ?begin@?$vector@PAVIChangeSkinEventListener@@V?$allocator@PAVIChangeSkinEventListener@@@std@@@std@@QAE?AViterator@12@XZ ; std::vector<IChangeSkinEventListener *,std::allocator<IChangeSkinEventListener *> >::begin

; 346  : 		it1 != mp_changeSkinEven.end(); it1++ )

  01588	eb 0e		 jmp	 SHORT $L202586
$L202587:
  0158a	6a 00		 push	 0
  0158c	8d 4d f8	 lea	 ecx, DWORD PTR $T205294[ebp]
  0158f	51		 push	 ecx
  01590	8d 4d fc	 lea	 ecx, DWORD PTR _it1$202582[ebp]
  01593	e8 00 00 00 00	 call	 ??Eiterator@?$vector@PAVIChangeSkinEventListener@@V?$allocator@PAVIChangeSkinEventListener@@@std@@@std@@QAE?AV012@H@Z ; std::vector<IChangeSkinEventListener *,std::allocator<IChangeSkinEventListener *> >::iterator::operator++
$L202586:
  01598	8d 55 f4	 lea	 edx, DWORD PTR $T205295[ebp]
  0159b	52		 push	 edx
  0159c	8b 4d ec	 mov	 ecx, DWORD PTR _this$[ebp]
  0159f	83 c1 38	 add	 ecx, 56			; 00000038H
  015a2	e8 00 00 00 00	 call	 ?end@?$vector@PAVIChangeSkinEventListener@@V?$allocator@PAVIChangeSkinEventListener@@@std@@@std@@QAE?AViterator@12@XZ ; std::vector<IChangeSkinEventListener *,std::allocator<IChangeSkinEventListener *> >::end
  015a7	50		 push	 eax
  015a8	8d 4d fc	 lea	 ecx, DWORD PTR _it1$202582[ebp]
  015ab	e8 00 00 00 00	 call	 ??9const_iterator@?$vector@PAVIChangeSkinEventListener@@V?$allocator@PAVIChangeSkinEventListener@@@std@@@std@@QBE_NABV012@@Z ; std::vector<IChangeSkinEventListener *,std::allocator<IChangeSkinEventListener *> >::const_iterator::operator!=
  015b0	0f b6 c0	 movzx	 eax, al
  015b3	85 c0		 test	 eax, eax
  015b5	74 26		 je	 SHORT $L202464

; 347  : 	{
; 348  : 		if( (*it1) == apListtener )

  015b7	8d 4d fc	 lea	 ecx, DWORD PTR _it1$202582[ebp]
  015ba	e8 00 00 00 00	 call	 ??Diterator@?$vector@PAVIChangeSkinEventListener@@V?$allocator@PAVIChangeSkinEventListener@@@std@@@std@@QBEAAPAVIChangeSkinEventListener@@XZ ; std::vector<IChangeSkinEventListener *,std::allocator<IChangeSkinEventListener *> >::iterator::operator*
  015bf	8b 08		 mov	 ecx, DWORD PTR [eax]
  015c1	3b 4d 08	 cmp	 ecx, DWORD PTR _apListtener$[ebp]
  015c4	75 15		 jne	 SHORT $L202589

; 349  : 		{
; 350  : 			mp_changeSkinEven.erase( it1 );

  015c6	8b 55 fc	 mov	 edx, DWORD PTR _it1$202582[ebp]
  015c9	52		 push	 edx
  015ca	8d 45 f0	 lea	 eax, DWORD PTR $T205296[ebp]
  015cd	50		 push	 eax
  015ce	8b 4d ec	 mov	 ecx, DWORD PTR _this$[ebp]
  015d1	83 c1 38	 add	 ecx, 56			; 00000038H
  015d4	e8 00 00 00 00	 call	 ?erase@?$vector@PAVIChangeSkinEventListener@@V?$allocator@PAVIChangeSkinEventListener@@@std@@@std@@QAE?AViterator@12@V312@@Z ; std::vector<IChangeSkinEventListener *,std::allocator<IChangeSkinEventListener *> >::erase

; 351  : 			return;

  015d9	eb 02		 jmp	 SHORT $L202464
$L202589:

; 352  : 		}
; 353  : 	}

  015db	eb ad		 jmp	 SHORT $L202587
$L202464:

; 354  : }

  015dd	8b e5		 mov	 esp, ebp
  015df	5d		 pop	 ebp
  015e0	c2 04 00	 ret	 4
?RemoveListener@CSkinMgrV1@@UAEXPAVIChangeSkinEventListener@@@Z ENDP ; CSkinMgrV1::RemoveListener
_TEXT	ENDS
PUBLIC	?Invalidate@CWnd@@QAEXH@Z			; CWnd::Invalidate
EXTRN	?UpdateControlsEnable@CSkinWnd@@QAEXH@Z:NEAR	; CSkinWnd::UpdateControlsEnable
EXTRN	__imp__IsWindowVisible@4:NEAR
EXTRN	?EnableSkinBtn@CSkinWnd@@QAEXH@Z:NEAR		; CSkinWnd::EnableSkinBtn
EXTRN	?SetUseTip@CSkinWnd@@QAEX_N@Z:NEAR		; CSkinWnd::SetUseTip
EXTRN	?ResetScroll@CSubjectChildWnd@@QAEXXZ:NEAR	; CSubjectChildWnd::ResetScroll
; Function compile flags: /Odt
_TEXT	SEGMENT
_this$ = -4						; size = 4
_anIndex$ = 8						; size = 4
?OnTabSelChange@CSkinMgrV1@@UAEXI@Z PROC NEAR		; CSkinMgrV1::OnTabSelChange
; _this$ = ecx

; 357  : {

  015f0	55		 push	 ebp
  015f1	8b ec		 mov	 ebp, esp
  015f3	51		 push	 ecx
  015f4	89 4d fc	 mov	 DWORD PTR _this$[ebp], ecx

; 358  : 	if( 1 ==anIndex )

  015f7	83 7d 08 01	 cmp	 DWORD PTR _anIndex$[ebp], 1
  015fb	0f 85 d3 00 00
	00		 jne	 $L202595

; 359  : 	{
; 360  : 		m_iCheckTab = 1;

  01601	8b 45 fc	 mov	 eax, DWORD PTR _this$[ebp]
  01604	c7 80 80 00 00
	00 01 00 00 00	 mov	 DWORD PTR [eax+128], 1

; 361  : 		m_bShowSkinWnd = true;

  0160e	8b 4d fc	 mov	 ecx, DWORD PTR _this$[ebp]
  01611	c6 41 64 01	 mov	 BYTE PTR [ecx+100], 1

; 362  : 		mp_SubjectWnd->ShowWindow(FALSE);

  01615	6a 00		 push	 0
  01617	8b 55 fc	 mov	 edx, DWORD PTR _this$[ebp]
  0161a	8b 4a 18	 mov	 ecx, DWORD PTR [edx+24]
  0161d	e8 00 00 00 00	 call	 ?ShowWindow@CSubjectChildWnd@@QAEXH@Z ; CSubjectChildWnd::ShowWindow

; 363  : 		mp_skinWnd->ShowWindow(TRUE);

  01622	6a 01		 push	 1
  01624	8b 45 fc	 mov	 eax, DWORD PTR _this$[ebp]
  01627	8b 48 14	 mov	 ecx, DWORD PTR [eax+20]
  0162a	e8 00 00 00 00	 call	 ?ShowWindow@CSkinWnd@@QAEXH@Z ; CSkinWnd::ShowWindow

; 364  : 		mp_WebSubWnd->ShowWindow(FALSE);

  0162f	6a 00		 push	 0
  01631	8b 4d fc	 mov	 ecx, DWORD PTR _this$[ebp]
  01634	8b 49 1c	 mov	 ecx, DWORD PTR [ecx+28]
  01637	e8 00 00 00 00	 call	 ?ShowWindow@CWnd@@QAEHH@Z ; CWnd::ShowWindow

; 365  : 		mp_skinWnd->UpdateControlsEnable(true);

  0163c	6a 01		 push	 1
  0163e	8b 55 fc	 mov	 edx, DWORD PTR _this$[ebp]
  01641	8b 4a 14	 mov	 ecx, DWORD PTR [edx+20]
  01644	e8 00 00 00 00	 call	 ?UpdateControlsEnable@CSkinWnd@@QAEXH@Z ; CSkinWnd::UpdateControlsEnable

; 366  : 
; 367  : 		mp_downloadSubject->ShowWindow( SW_HIDE );

  01649	6a 00		 push	 0
  0164b	8b 45 fc	 mov	 eax, DWORD PTR _this$[ebp]
  0164e	8b 48 24	 mov	 ecx, DWORD PTR [eax+36]
  01651	e8 00 00 00 00	 call	 ?ShowWindow@CWnd@@QAEHH@Z ; CWnd::ShowWindow

; 368  : 		if( (mp_downloadSkin) && (mp_downloadSkin->m_hWnd) && mb_isDownSkin)

  01656	8b 4d fc	 mov	 ecx, DWORD PTR _this$[ebp]
  01659	83 79 20 00	 cmp	 DWORD PTR [ecx+32], 0
  0165d	74 56		 je	 SHORT $L202596
  0165f	8b 55 fc	 mov	 edx, DWORD PTR _this$[ebp]
  01662	8b 42 20	 mov	 eax, DWORD PTR [edx+32]
  01665	83 78 20 00	 cmp	 DWORD PTR [eax+32], 0
  01669	74 4a		 je	 SHORT $L202596
  0166b	8b 4d fc	 mov	 ecx, DWORD PTR _this$[ebp]
  0166e	0f b6 51 49	 movzx	 edx, BYTE PTR [ecx+73]
  01672	85 d2		 test	 edx, edx
  01674	74 3f		 je	 SHORT $L202596

; 369  : 		{
; 370  : 			if(mp_skinWnd != NULL)

  01676	8b 45 fc	 mov	 eax, DWORD PTR _this$[ebp]
  01679	83 78 14 00	 cmp	 DWORD PTR [eax+20], 0
  0167d	74 1a		 je	 SHORT $L202597

; 371  : 			{
; 372  : 				mp_skinWnd->EnableSkinBtn( FALSE );

  0167f	6a 00		 push	 0
  01681	8b 4d fc	 mov	 ecx, DWORD PTR _this$[ebp]
  01684	8b 49 14	 mov	 ecx, DWORD PTR [ecx+20]
  01687	e8 00 00 00 00	 call	 ?EnableSkinBtn@CSkinWnd@@QAEXH@Z ; CSkinWnd::EnableSkinBtn

; 373  : 				mp_skinWnd->SetUseTip(false);

  0168c	6a 00		 push	 0
  0168e	8b 55 fc	 mov	 edx, DWORD PTR _this$[ebp]
  01691	8b 4a 14	 mov	 ecx, DWORD PTR [edx+20]
  01694	e8 00 00 00 00	 call	 ?SetUseTip@CSkinWnd@@QAEX_N@Z ; CSkinWnd::SetUseTip
$L202597:

; 374  : 			}
; 375  : 
; 376  : 			mp_downloadSkin->ShowWindow( SW_SHOW );

  01699	6a 05		 push	 5
  0169b	8b 45 fc	 mov	 eax, DWORD PTR _this$[ebp]
  0169e	8b 48 20	 mov	 ecx, DWORD PTR [eax+32]
  016a1	e8 00 00 00 00	 call	 ?ShowWindow@CWnd@@QAEHH@Z ; CWnd::ShowWindow

; 377  : 			mp_mainSkinWnd->ShowColorBtn( FALSE );

  016a6	6a 00		 push	 0
  016a8	8b 4d fc	 mov	 ecx, DWORD PTR _this$[ebp]
  016ab	8b 49 10	 mov	 ecx, DWORD PTR [ecx+16]
  016ae	e8 00 00 00 00	 call	 ?ShowColorBtn@CMainSkinWnd@@QAEXH@Z ; CMainSkinWnd::ShowColorBtn

; 378  : 		}
; 379  : 		else

  016b3	eb 1a		 jmp	 SHORT $L202598
$L202596:

; 380  : 		{
; 381  : 			mp_downloadSkin->ShowWindow( SW_HIDE );

  016b5	6a 00		 push	 0
  016b7	8b 55 fc	 mov	 edx, DWORD PTR _this$[ebp]
  016ba	8b 4a 20	 mov	 ecx, DWORD PTR [edx+32]
  016bd	e8 00 00 00 00	 call	 ?ShowWindow@CWnd@@QAEHH@Z ; CWnd::ShowWindow

; 382  : 			mp_mainSkinWnd->ShowColorBtn( TRUE );

  016c2	6a 01		 push	 1
  016c4	8b 45 fc	 mov	 eax, DWORD PTR _this$[ebp]
  016c7	8b 48 10	 mov	 ecx, DWORD PTR [eax+16]
  016ca	e8 00 00 00 00	 call	 ?ShowColorBtn@CMainSkinWnd@@QAEXH@Z ; CMainSkinWnd::ShowColorBtn
$L202598:

; 383  : 		}
; 384  : 	}
; 385  : 	else if( 0 == anIndex )

  016cf	e9 af 01 00 00	 jmp	 $L202594
$L202595:
  016d4	83 7d 08 00	 cmp	 DWORD PTR _anIndex$[ebp], 0
  016d8	0f 85 dc 00 00
	00		 jne	 $L202600

; 386  : 	{
; 387  : 		m_bShowSkinWnd = false;

  016de	8b 4d fc	 mov	 ecx, DWORD PTR _this$[ebp]
  016e1	c6 41 64 00	 mov	 BYTE PTR [ecx+100], 0

; 388  : 		m_iCheckTab = 0;

  016e5	8b 55 fc	 mov	 edx, DWORD PTR _this$[ebp]
  016e8	c7 82 80 00 00
	00 00 00 00 00	 mov	 DWORD PTR [edx+128], 0

; 389  : 		mp_SubjectWnd->ResetScroll();

  016f2	8b 45 fc	 mov	 eax, DWORD PTR _this$[ebp]
  016f5	8b 48 18	 mov	 ecx, DWORD PTR [eax+24]
  016f8	e8 00 00 00 00	 call	 ?ResetScroll@CSubjectChildWnd@@QAEXXZ ; CSubjectChildWnd::ResetScroll

; 390  : 
; 391  : 		mp_SubjectWnd->ShowWindow(TRUE);

  016fd	6a 01		 push	 1
  016ff	8b 4d fc	 mov	 ecx, DWORD PTR _this$[ebp]
  01702	8b 49 18	 mov	 ecx, DWORD PTR [ecx+24]
  01705	e8 00 00 00 00	 call	 ?ShowWindow@CSubjectChildWnd@@QAEXH@Z ; CSubjectChildWnd::ShowWindow

; 392  : 		mp_skinWnd->ShowWindow(FALSE);	

  0170a	6a 00		 push	 0
  0170c	8b 55 fc	 mov	 edx, DWORD PTR _this$[ebp]
  0170f	8b 4a 14	 mov	 ecx, DWORD PTR [edx+20]
  01712	e8 00 00 00 00	 call	 ?ShowWindow@CSkinWnd@@QAEXH@Z ; CSkinWnd::ShowWindow

; 393  : 		mp_WebSubWnd->ShowWindow(FALSE);

  01717	6a 00		 push	 0
  01719	8b 45 fc	 mov	 eax, DWORD PTR _this$[ebp]
  0171c	8b 48 1c	 mov	 ecx, DWORD PTR [eax+28]
  0171f	e8 00 00 00 00	 call	 ?ShowWindow@CWnd@@QAEHH@Z ; CWnd::ShowWindow

; 394  : 		mp_skinWnd->UpdateControlsEnable(false);

  01724	6a 00		 push	 0
  01726	8b 4d fc	 mov	 ecx, DWORD PTR _this$[ebp]
  01729	8b 49 14	 mov	 ecx, DWORD PTR [ecx+20]
  0172c	e8 00 00 00 00	 call	 ?UpdateControlsEnable@CSkinWnd@@QAEXH@Z ; CSkinWnd::UpdateControlsEnable

; 395  : 		
; 396  : 		if( ::IsWindowVisible(mp_downloadSkin->m_hWnd ) )

  01731	8b 55 fc	 mov	 edx, DWORD PTR _this$[ebp]
  01734	8b 42 20	 mov	 eax, DWORD PTR [edx+32]
  01737	8b 48 20	 mov	 ecx, DWORD PTR [eax+32]
  0173a	51		 push	 ecx
  0173b	ff 15 00 00 00
	00		 call	 DWORD PTR __imp__IsWindowVisible@4
  01741	85 c0		 test	 eax, eax
  01743	74 1a		 je	 SHORT $L202601

; 397  : 		{
; 398  : 			mp_downloadSkin->ShowWindow( SW_HIDE );

  01745	6a 00		 push	 0
  01747	8b 55 fc	 mov	 edx, DWORD PTR _this$[ebp]
  0174a	8b 4a 20	 mov	 ecx, DWORD PTR [edx+32]
  0174d	e8 00 00 00 00	 call	 ?ShowWindow@CWnd@@QAEHH@Z ; CWnd::ShowWindow

; 399  : 			mp_downloadSkin->Invalidate();

  01752	6a 01		 push	 1
  01754	8b 45 fc	 mov	 eax, DWORD PTR _this$[ebp]
  01757	8b 48 20	 mov	 ecx, DWORD PTR [eax+32]
  0175a	e8 00 00 00 00	 call	 ?Invalidate@CWnd@@QAEXH@Z ; CWnd::Invalidate
$L202601:

; 400  : 		}
; 401  : 		
; 402  : 		if( (mp_downloadSubject) && (mp_downloadSubject->m_hWnd) && mb_isDownSubject)

  0175f	8b 4d fc	 mov	 ecx, DWORD PTR _this$[ebp]
  01762	83 79 24 00	 cmp	 DWORD PTR [ecx+36], 0
  01766	74 33		 je	 SHORT $L202602
  01768	8b 55 fc	 mov	 edx, DWORD PTR _this$[ebp]
  0176b	8b 42 24	 mov	 eax, DWORD PTR [edx+36]
  0176e	83 78 20 00	 cmp	 DWORD PTR [eax+32], 0
  01772	74 27		 je	 SHORT $L202602
  01774	8b 4d fc	 mov	 ecx, DWORD PTR _this$[ebp]
  01777	0f b6 51 4a	 movzx	 edx, BYTE PTR [ecx+74]
  0177b	85 d2		 test	 edx, edx
  0177d	74 1c		 je	 SHORT $L202602

; 403  : 		{
; 404  : 			mp_downloadSubject->ShowWindow( SW_SHOW );

  0177f	6a 05		 push	 5
  01781	8b 45 fc	 mov	 eax, DWORD PTR _this$[ebp]
  01784	8b 48 24	 mov	 ecx, DWORD PTR [eax+36]
  01787	e8 00 00 00 00	 call	 ?ShowWindow@CWnd@@QAEHH@Z ; CWnd::ShowWindow

; 405  : 			mp_mainSkinWnd->ShowColorBtn( FALSE );

  0178c	6a 00		 push	 0
  0178e	8b 4d fc	 mov	 ecx, DWORD PTR _this$[ebp]
  01791	8b 49 10	 mov	 ecx, DWORD PTR [ecx+16]
  01794	e8 00 00 00 00	 call	 ?ShowColorBtn@CMainSkinWnd@@QAEXH@Z ; CMainSkinWnd::ShowColorBtn

; 406  : 		}
; 407  : 		else

  01799	eb 1a		 jmp	 SHORT $L202603
$L202602:

; 408  : 		{
; 409  : 			mp_downloadSubject->ShowWindow( SW_HIDE );

  0179b	6a 00		 push	 0
  0179d	8b 55 fc	 mov	 edx, DWORD PTR _this$[ebp]
  017a0	8b 4a 24	 mov	 ecx, DWORD PTR [edx+36]
  017a3	e8 00 00 00 00	 call	 ?ShowWindow@CWnd@@QAEHH@Z ; CWnd::ShowWindow

; 410  : 			mp_mainSkinWnd->ShowColorBtn( TRUE );

  017a8	6a 01		 push	 1
  017aa	8b 45 fc	 mov	 eax, DWORD PTR _this$[ebp]
  017ad	8b 48 10	 mov	 ecx, DWORD PTR [eax+16]
  017b0	e8 00 00 00 00	 call	 ?ShowColorBtn@CMainSkinWnd@@QAEXH@Z ; CMainSkinWnd::ShowColorBtn
$L202603:

; 411  : 		}
; 412  : 	}
; 413  : 	else if( 2 == anIndex )//websubwnd

  017b5	e9 c9 00 00 00	 jmp	 $L202594
$L202600:
  017ba	83 7d 08 02	 cmp	 DWORD PTR _anIndex$[ebp], 2
  017be	0f 85 bf 00 00
	00		 jne	 $L202594

; 414  : 	{
; 415  : 		m_iCheckTab = 2;

  017c4	8b 4d fc	 mov	 ecx, DWORD PTR _this$[ebp]
  017c7	c7 81 80 00 00
	00 02 00 00 00	 mov	 DWORD PTR [ecx+128], 2

; 416  : 		m_bShowSkinWnd = false;

  017d1	8b 55 fc	 mov	 edx, DWORD PTR _this$[ebp]
  017d4	c6 42 64 00	 mov	 BYTE PTR [edx+100], 0

; 417  : 		mp_SubjectWnd->ShowWindow(FALSE);

  017d8	6a 00		 push	 0
  017da	8b 45 fc	 mov	 eax, DWORD PTR _this$[ebp]
  017dd	8b 48 18	 mov	 ecx, DWORD PTR [eax+24]
  017e0	e8 00 00 00 00	 call	 ?ShowWindow@CSubjectChildWnd@@QAEXH@Z ; CSubjectChildWnd::ShowWindow

; 418  : 		mp_skinWnd->ShowWindow(FALSE);	

  017e5	6a 00		 push	 0
  017e7	8b 4d fc	 mov	 ecx, DWORD PTR _this$[ebp]
  017ea	8b 49 14	 mov	 ecx, DWORD PTR [ecx+20]
  017ed	e8 00 00 00 00	 call	 ?ShowWindow@CSkinWnd@@QAEXH@Z ; CSkinWnd::ShowWindow

; 419  : 		mp_WebSubWnd->ShowWindow(TRUE);

  017f2	6a 01		 push	 1
  017f4	8b 55 fc	 mov	 edx, DWORD PTR _this$[ebp]
  017f7	8b 4a 1c	 mov	 ecx, DWORD PTR [edx+28]
  017fa	e8 00 00 00 00	 call	 ?ShowWindow@CWnd@@QAEHH@Z ; CWnd::ShowWindow

; 420  : 
; 421  : 		if( ::IsWindowVisible(mp_downloadSkin->m_hWnd ) )

  017ff	8b 45 fc	 mov	 eax, DWORD PTR _this$[ebp]
  01802	8b 48 20	 mov	 ecx, DWORD PTR [eax+32]
  01805	8b 51 20	 mov	 edx, DWORD PTR [ecx+32]
  01808	52		 push	 edx
  01809	ff 15 00 00 00
	00		 call	 DWORD PTR __imp__IsWindowVisible@4
  0180f	85 c0		 test	 eax, eax
  01811	74 1a		 je	 SHORT $L202606

; 422  : 		{
; 423  : 			mp_downloadSkin->ShowWindow( SW_HIDE );

  01813	6a 00		 push	 0
  01815	8b 45 fc	 mov	 eax, DWORD PTR _this$[ebp]
  01818	8b 48 20	 mov	 ecx, DWORD PTR [eax+32]
  0181b	e8 00 00 00 00	 call	 ?ShowWindow@CWnd@@QAEHH@Z ; CWnd::ShowWindow

; 424  : 			mp_downloadSkin->Invalidate();

  01820	6a 01		 push	 1
  01822	8b 4d fc	 mov	 ecx, DWORD PTR _this$[ebp]
  01825	8b 49 20	 mov	 ecx, DWORD PTR [ecx+32]
  01828	e8 00 00 00 00	 call	 ?Invalidate@CWnd@@QAEXH@Z ; CWnd::Invalidate
$L202606:

; 425  : 		}
; 426  : 
; 427  : 		if( (mp_downloadSubject) && (mp_downloadSubject->m_hWnd) && mb_isDownWebSub)

  0182d	8b 55 fc	 mov	 edx, DWORD PTR _this$[ebp]
  01830	83 7a 24 00	 cmp	 DWORD PTR [edx+36], 0
  01834	74 33		 je	 SHORT $L202607
  01836	8b 45 fc	 mov	 eax, DWORD PTR _this$[ebp]
  01839	8b 48 24	 mov	 ecx, DWORD PTR [eax+36]
  0183c	83 79 20 00	 cmp	 DWORD PTR [ecx+32], 0
  01840	74 27		 je	 SHORT $L202607
  01842	8b 55 fc	 mov	 edx, DWORD PTR _this$[ebp]
  01845	0f b6 42 4b	 movzx	 eax, BYTE PTR [edx+75]
  01849	85 c0		 test	 eax, eax
  0184b	74 1c		 je	 SHORT $L202607

; 428  : 		{
; 429  : 			mp_downloadSubject->ShowWindow( SW_SHOW );

  0184d	6a 05		 push	 5
  0184f	8b 4d fc	 mov	 ecx, DWORD PTR _this$[ebp]
  01852	8b 49 24	 mov	 ecx, DWORD PTR [ecx+36]
  01855	e8 00 00 00 00	 call	 ?ShowWindow@CWnd@@QAEHH@Z ; CWnd::ShowWindow

; 430  : 			mp_mainSkinWnd->ShowColorBtn( FALSE );

  0185a	6a 00		 push	 0
  0185c	8b 55 fc	 mov	 edx, DWORD PTR _this$[ebp]
  0185f	8b 4a 10	 mov	 ecx, DWORD PTR [edx+16]
  01862	e8 00 00 00 00	 call	 ?ShowColorBtn@CMainSkinWnd@@QAEXH@Z ; CMainSkinWnd::ShowColorBtn

; 431  : 		}
; 432  : 		else

  01867	eb 1a		 jmp	 SHORT $L202594
$L202607:

; 433  : 		{
; 434  : 			mp_downloadSubject->ShowWindow( SW_HIDE );

  01869	6a 00		 push	 0
  0186b	8b 45 fc	 mov	 eax, DWORD PTR _this$[ebp]
  0186e	8b 48 24	 mov	 ecx, DWORD PTR [eax+36]
  01871	e8 00 00 00 00	 call	 ?ShowWindow@CWnd@@QAEHH@Z ; CWnd::ShowWindow

; 435  : 			mp_mainSkinWnd->ShowColorBtn( TRUE );

  01876	6a 01		 push	 1
  01878	8b 4d fc	 mov	 ecx, DWORD PTR _this$[ebp]
  0187b	8b 49 10	 mov	 ecx, DWORD PTR [ecx+16]
  0187e	e8 00 00 00 00	 call	 ?ShowColorBtn@CMainSkinWnd@@QAEXH@Z ; CMainSkinWnd::ShowColorBtn
$L202594:

; 436  : 		}
; 437  : 	}
; 438  : }

  01883	8b e5		 mov	 esp, ebp
  01885	5d		 pop	 ebp
  01886	c2 04 00	 ret	 4
?OnTabSelChange@CSkinMgrV1@@UAEXI@Z ENDP		; CSkinMgrV1::OnTabSelChange
_TEXT	ENDS
EXTRN	__imp__IsWindow@4:NEAR
; Function compile flags: /Odt
_TEXT	SEGMENT
_this$ = -4						; size = 4
_bTopMost$ = 8						; size = 1
?SetTopMost@CSkinMgrV1@@UAEX_N@Z PROC NEAR		; CSkinMgrV1::SetTopMost
; _this$ = ecx

; 441  : {

  01890	55		 push	 ebp
  01891	8b ec		 mov	 ebp, esp
  01893	51		 push	 ecx
  01894	89 4d fc	 mov	 DWORD PTR _this$[ebp], ecx

; 442  : 	if(mp_mainSkinWnd != NULL && ::IsWindow(mp_mainSkinWnd->m_hWnd))

  01897	8b 45 fc	 mov	 eax, DWORD PTR _this$[ebp]
  0189a	83 78 10 00	 cmp	 DWORD PTR [eax+16], 0
  0189e	74 56		 je	 SHORT $L202612
  018a0	8b 4d fc	 mov	 ecx, DWORD PTR _this$[ebp]
  018a3	8b 51 10	 mov	 edx, DWORD PTR [ecx+16]
  018a6	8b 42 20	 mov	 eax, DWORD PTR [edx+32]
  018a9	50		 push	 eax
  018aa	ff 15 00 00 00
	00		 call	 DWORD PTR __imp__IsWindow@4
  018b0	85 c0		 test	 eax, eax
  018b2	74 42		 je	 SHORT $L202612

; 443  : 	{
; 444  : 		if(bTopMost)

  018b4	0f b6 4d 08	 movzx	 ecx, BYTE PTR _bTopMost$[ebp]
  018b8	85 c9		 test	 ecx, ecx
  018ba	74 1e		 je	 SHORT $L202614

; 445  : 			SetWindowPos(mp_mainSkinWnd->m_hWnd,HWND_TOPMOST,0,0,0,0,SWP_NOACTIVATE|SWP_NOSIZE|SWP_NOMOVE);

  018bc	6a 13		 push	 19			; 00000013H
  018be	6a 00		 push	 0
  018c0	6a 00		 push	 0
  018c2	6a 00		 push	 0
  018c4	6a 00		 push	 0
  018c6	6a ff		 push	 -1
  018c8	8b 55 fc	 mov	 edx, DWORD PTR _this$[ebp]
  018cb	8b 42 10	 mov	 eax, DWORD PTR [edx+16]
  018ce	8b 48 20	 mov	 ecx, DWORD PTR [eax+32]
  018d1	51		 push	 ecx
  018d2	ff 15 00 00 00
	00		 call	 DWORD PTR __imp__SetWindowPos@28

; 446  : 		else

  018d8	eb 1c		 jmp	 SHORT $L202612
$L202614:

; 447  : 			SetWindowPos(mp_mainSkinWnd->m_hWnd,HWND_TOP,0,0,0,0,SWP_NOACTIVATE|SWP_NOSIZE|SWP_NOMOVE);

  018da	6a 13		 push	 19			; 00000013H
  018dc	6a 00		 push	 0
  018de	6a 00		 push	 0
  018e0	6a 00		 push	 0
  018e2	6a 00		 push	 0
  018e4	6a 00		 push	 0
  018e6	8b 55 fc	 mov	 edx, DWORD PTR _this$[ebp]
  018e9	8b 42 10	 mov	 eax, DWORD PTR [edx+16]
  018ec	8b 48 20	 mov	 ecx, DWORD PTR [eax+32]
  018ef	51		 push	 ecx
  018f0	ff 15 00 00 00
	00		 call	 DWORD PTR __imp__SetWindowPos@28
$L202612:

; 448  : 	}
; 449  : }

  018f6	8b e5		 mov	 esp, ebp
  018f8	5d		 pop	 ebp
  018f9	c2 04 00	 ret	 4
?SetTopMost@CSkinMgrV1@@UAEX_N@Z ENDP			; CSkinMgrV1::SetTopMost
; Function compile flags: /Odt
tv81 = -16						; size = 4
_this$ = -12						; size = 4
$T205301 = -8						; size = 4
$T205300 = -4						; size = 4
?DeleteObject@CSkinMgrV1@@UAEXXZ PROC NEAR		; CSkinMgrV1::DeleteObject
; _this$ = ecx

; 451  : {

  01900	55		 push	 ebp
  01901	8b ec		 mov	 ebp, esp
  01903	83 ec 10	 sub	 esp, 16			; 00000010H
  01906	89 4d f4	 mov	 DWORD PTR _this$[ebp], ecx

; 452  : 	if( NULL != mp_mainSkinWnd ) 

  01909	8b 45 f4	 mov	 eax, DWORD PTR _this$[ebp]
  0190c	83 78 10 00	 cmp	 DWORD PTR [eax+16], 0
  01910	74 11		 je	 SHORT $L202621

; 453  : 	{
; 454  : 		mp_mainSkinWnd->DestroyWindow();

  01912	8b 4d f4	 mov	 ecx, DWORD PTR _this$[ebp]
  01915	8b 51 10	 mov	 edx, DWORD PTR [ecx+16]
  01918	8b 45 f4	 mov	 eax, DWORD PTR _this$[ebp]
  0191b	8b 48 10	 mov	 ecx, DWORD PTR [eax+16]
  0191e	8b 12		 mov	 edx, DWORD PTR [edx]
  01920	ff 52 68	 call	 DWORD PTR [edx+104]
$L202621:

; 455  : 	}
; 456  : 
; 457  : 	delete this;

  01923	8b 45 f4	 mov	 eax, DWORD PTR _this$[ebp]
  01926	89 45 f8	 mov	 DWORD PTR $T205301[ebp], eax
  01929	8b 4d f8	 mov	 ecx, DWORD PTR $T205301[ebp]
  0192c	89 4d fc	 mov	 DWORD PTR $T205300[ebp], ecx
  0192f	83 7d fc 00	 cmp	 DWORD PTR $T205300[ebp], 0
  01933	74 15		 je	 SHORT $L205302
  01935	6a 01		 push	 1
  01937	8b 4d fc	 mov	 ecx, DWORD PTR $T205300[ebp]
  0193a	83 c1 08	 add	 ecx, 8
  0193d	8b 55 fc	 mov	 edx, DWORD PTR $T205300[ebp]
  01940	8b 42 08	 mov	 eax, DWORD PTR [edx+8]
  01943	ff 10		 call	 DWORD PTR [eax]
  01945	89 45 f0	 mov	 DWORD PTR tv81[ebp], eax
  01948	eb 07		 jmp	 SHORT $L202620
$L205302:
  0194a	c7 45 f0 00 00
	00 00		 mov	 DWORD PTR tv81[ebp], 0
$L202620:

; 458  : }

  01951	8b e5		 mov	 esp, ebp
  01953	5d		 pop	 ebp
  01954	c3		 ret	 0
?DeleteObject@CSkinMgrV1@@UAEXXZ ENDP			; CSkinMgrV1::DeleteObject
_TEXT	ENDS
EXTRN	__imp_?LogUserActMsg@@YAXABV?$basic_string@DU?$char_traits@D@std@@V?$allocator@D@2@@std@@0@Z:NEAR
EXTRN	__imp_?Format@?$CStringT@DV?$StrTraitMFC_DLL@DV?$ChTraitsCRT@D@ATL@@@@@ATL@@QAAXPBDZZ:NEAR
EXTRN	__imp_??0?$basic_string@DU?$char_traits@D@std@@V?$allocator@D@2@@std@@QAE@PBD@Z:NEAR
xdata$x	SEGMENT
$T205313 DD	0ffffffffH
	DD	FLAT:$L205307
	DD	00H
	DD	FLAT:$L205308
	DD	01H
	DD	FLAT:$L205309
$T205311 DD	019930520H
	DD	03H
	DD	FLAT:$T205313
	DD	2 DUP(00H)
	DD	2 DUP(00H)
; Function compile flags: /Odt
xdata$x	ENDS
_TEXT	SEGMENT
tv149 = -92						; size = 4
tv92 = -88						; size = 4
_this$ = -84						; size = 4
$T205306 = -80						; size = 28
$T205305 = -52						; size = 28
_idx$202637 = -24					; size = 4
_idx$202632 = -20					; size = 4
_msg$202641 = -16					; size = 4
__$EHRec$ = -12						; size = 12
_acolCol$ = 8						; size = 4
_anLightValue$ = 12					; size = 4
_bChange$ = 16						; size = 1
?OnSendChangeColor@CSkinMgrV1@@UAEXKI_N@Z PROC NEAR	; CSkinMgrV1::OnSendChangeColor
; _this$ = ecx

; 460  : {

  01960	55		 push	 ebp
  01961	8b ec		 mov	 ebp, esp
  01963	6a ff		 push	 -1
  01965	68 00 00 00 00	 push	 __ehhandler$?OnSendChangeColor@CSkinMgrV1@@UAEXKI_N@Z
  0196a	64 a1 00 00 00
	00		 mov	 eax, DWORD PTR fs:__except_list
  01970	50		 push	 eax
  01971	64 89 25 00 00
	00 00		 mov	 DWORD PTR fs:__except_list, esp
  01978	83 ec 50	 sub	 esp, 80			; 00000050H
  0197b	89 4d ac	 mov	 DWORD PTR _this$[ebp], ecx

; 461  : 	if( mp_changeSkinEven.size() > 0 )

  0197e	8b 4d ac	 mov	 ecx, DWORD PTR _this$[ebp]
  01981	83 c1 34	 add	 ecx, 52			; 00000034H
  01984	e8 00 00 00 00	 call	 ?size@?$vector@PAVIChangeSkinEventListener@@V?$allocator@PAVIChangeSkinEventListener@@@std@@@std@@QBEIXZ ; std::vector<IChangeSkinEventListener *,std::allocator<IChangeSkinEventListener *> >::size
  01989	85 c0		 test	 eax, eax
  0198b	0f 86 66 01 00
	00		 jbe	 $L202629

; 462  : 	{
; 463  : 		if(( 0== anLightValue)&& (0!= m_DefaultColor)) 

  01991	83 7d 0c 00	 cmp	 DWORD PTR _anLightValue$[ebp], 0
  01995	75 71		 jne	 SHORT $L202631
  01997	8b 45 ac	 mov	 eax, DWORD PTR _this$[ebp]
  0199a	83 78 28 00	 cmp	 DWORD PTR [eax+40], 0
  0199e	74 68		 je	 SHORT $L202631

; 464  : 		{
; 465  : 			m_BaseColor = m_DefaultColor;

  019a0	8b 4d ac	 mov	 ecx, DWORD PTR _this$[ebp]
  019a3	8b 55 ac	 mov	 edx, DWORD PTR _this$[ebp]
  019a6	8b 42 28	 mov	 eax, DWORD PTR [edx+40]
  019a9	89 41 24	 mov	 DWORD PTR [ecx+36], eax

; 466  : 			m_nLightPos = 120;

  019ac	8b 4d ac	 mov	 ecx, DWORD PTR _this$[ebp]
  019af	c7 41 2c 78 00
	00 00		 mov	 DWORD PTR [ecx+44], 120	; 00000078H

; 467  : 
; 468  : 			//if( mb_HasPopWnd )
; 469  : 			//mp_colorWnd->SetSelectedColor(m_DefaultColor);
; 470  : 
; 471  : 			for(size_t idx = 0;idx < mp_changeSkinEven.size();idx++ )

  019b6	c7 45 ec 00 00
	00 00		 mov	 DWORD PTR _idx$202632[ebp], 0
  019bd	eb 09		 jmp	 SHORT $L202633
$L202634:
  019bf	8b 55 ec	 mov	 edx, DWORD PTR _idx$202632[ebp]
  019c2	83 c2 01	 add	 edx, 1
  019c5	89 55 ec	 mov	 DWORD PTR _idx$202632[ebp], edx
$L202633:
  019c8	8b 4d ac	 mov	 ecx, DWORD PTR _this$[ebp]
  019cb	83 c1 34	 add	 ecx, 52			; 00000034H
  019ce	e8 00 00 00 00	 call	 ?size@?$vector@PAVIChangeSkinEventListener@@V?$allocator@PAVIChangeSkinEventListener@@@std@@@std@@QBEIXZ ; std::vector<IChangeSkinEventListener *,std::allocator<IChangeSkinEventListener *> >::size
  019d3	39 45 ec	 cmp	 DWORD PTR _idx$202632[ebp], eax
  019d6	73 2e		 jae	 SHORT $L202635

; 472  : 			{
; 473  : 				mp_changeSkinEven[idx]->OnchangeColor( m_DefaultColor, 120,bChange );

  019d8	8b 45 ec	 mov	 eax, DWORD PTR _idx$202632[ebp]
  019db	50		 push	 eax
  019dc	8b 4d ac	 mov	 ecx, DWORD PTR _this$[ebp]
  019df	83 c1 34	 add	 ecx, 52			; 00000034H
  019e2	e8 00 00 00 00	 call	 ??A?$vector@PAVIChangeSkinEventListener@@V?$allocator@PAVIChangeSkinEventListener@@@std@@@std@@QAEAAPAVIChangeSkinEventListener@@I@Z ; std::vector<IChangeSkinEventListener *,std::allocator<IChangeSkinEventListener *> >::operator[]
  019e7	8b 08		 mov	 ecx, DWORD PTR [eax]
  019e9	89 4d a8	 mov	 DWORD PTR tv92[ebp], ecx
  019ec	8a 55 10	 mov	 dl, BYTE PTR _bChange$[ebp]
  019ef	52		 push	 edx
  019f0	6a 78		 push	 120			; 00000078H
  019f2	8b 45 ac	 mov	 eax, DWORD PTR _this$[ebp]
  019f5	8b 48 28	 mov	 ecx, DWORD PTR [eax+40]
  019f8	51		 push	 ecx
  019f9	8b 55 a8	 mov	 edx, DWORD PTR tv92[ebp]
  019fc	8b 02		 mov	 eax, DWORD PTR [edx]
  019fe	8b 4d a8	 mov	 ecx, DWORD PTR tv92[ebp]
  01a01	ff 50 04	 call	 DWORD PTR [eax+4]

; 474  : 			}

  01a04	eb b9		 jmp	 SHORT $L202634
$L202635:

; 475  : 
; 476  : 		}
; 477  : 		else

  01a06	eb 61		 jmp	 SHORT $L202636
$L202631:

; 478  : 		{
; 479  : 			m_BaseColor = acolCol;

  01a08	8b 4d ac	 mov	 ecx, DWORD PTR _this$[ebp]
  01a0b	8b 55 08	 mov	 edx, DWORD PTR _acolCol$[ebp]
  01a0e	89 51 24	 mov	 DWORD PTR [ecx+36], edx

; 480  : 			m_nLightPos = anLightValue;

  01a11	8b 45 ac	 mov	 eax, DWORD PTR _this$[ebp]
  01a14	8b 4d 0c	 mov	 ecx, DWORD PTR _anLightValue$[ebp]
  01a17	89 48 2c	 mov	 DWORD PTR [eax+44], ecx

; 481  : 
; 482  : 
; 483  : 			for(size_t idx = 0;idx < mp_changeSkinEven.size();idx++ )

  01a1a	c7 45 e8 00 00
	00 00		 mov	 DWORD PTR _idx$202637[ebp], 0
  01a21	eb 09		 jmp	 SHORT $L202638
$L202639:
  01a23	8b 55 e8	 mov	 edx, DWORD PTR _idx$202637[ebp]
  01a26	83 c2 01	 add	 edx, 1
  01a29	89 55 e8	 mov	 DWORD PTR _idx$202637[ebp], edx
$L202638:
  01a2c	8b 4d ac	 mov	 ecx, DWORD PTR _this$[ebp]
  01a2f	83 c1 34	 add	 ecx, 52			; 00000034H
  01a32	e8 00 00 00 00	 call	 ?size@?$vector@PAVIChangeSkinEventListener@@V?$allocator@PAVIChangeSkinEventListener@@@std@@@std@@QBEIXZ ; std::vector<IChangeSkinEventListener *,std::allocator<IChangeSkinEventListener *> >::size
  01a37	39 45 e8	 cmp	 DWORD PTR _idx$202637[ebp], eax
  01a3a	73 2d		 jae	 SHORT $L202636

; 484  : 			{
; 485  : 				mp_changeSkinEven[idx]->OnchangeColor( acolCol, anLightValue,bChange );

  01a3c	8b 45 e8	 mov	 eax, DWORD PTR _idx$202637[ebp]
  01a3f	50		 push	 eax
  01a40	8b 4d ac	 mov	 ecx, DWORD PTR _this$[ebp]
  01a43	83 c1 34	 add	 ecx, 52			; 00000034H
  01a46	e8 00 00 00 00	 call	 ??A?$vector@PAVIChangeSkinEventListener@@V?$allocator@PAVIChangeSkinEventListener@@@std@@@std@@QAEAAPAVIChangeSkinEventListener@@I@Z ; std::vector<IChangeSkinEventListener *,std::allocator<IChangeSkinEventListener *> >::operator[]
  01a4b	8b 08		 mov	 ecx, DWORD PTR [eax]
  01a4d	89 4d a4	 mov	 DWORD PTR tv149[ebp], ecx
  01a50	8a 55 10	 mov	 dl, BYTE PTR _bChange$[ebp]
  01a53	52		 push	 edx
  01a54	8b 45 0c	 mov	 eax, DWORD PTR _anLightValue$[ebp]
  01a57	50		 push	 eax
  01a58	8b 4d 08	 mov	 ecx, DWORD PTR _acolCol$[ebp]
  01a5b	51		 push	 ecx
  01a5c	8b 55 a4	 mov	 edx, DWORD PTR tv149[ebp]
  01a5f	8b 02		 mov	 eax, DWORD PTR [edx]
  01a61	8b 4d a4	 mov	 ecx, DWORD PTR tv149[ebp]
  01a64	ff 50 04	 call	 DWORD PTR [eax+4]

; 486  : 			}			

  01a67	eb ba		 jmp	 SHORT $L202639
$L202636:

; 487  : 
; 488  : 		}
; 489  : 		CString msg;

  01a69	8d 4d f0	 lea	 ecx, DWORD PTR _msg$202641[ebp]
  01a6c	ff 15 00 00 00
	00		 call	 DWORD PTR __imp_??0?$CStringT@DV?$StrTraitMFC_DLL@DV?$ChTraitsCRT@D@ATL@@@@@ATL@@QAE@XZ
  01a72	c7 45 fc 00 00
	00 00		 mov	 DWORD PTR __$EHRec$[ebp+8], 0

; 490  : 		msg.Format("%08x,%d",acolCol, anLightValue );

  01a79	8b 4d 0c	 mov	 ecx, DWORD PTR _anLightValue$[ebp]
  01a7c	51		 push	 ecx
  01a7d	8b 55 08	 mov	 edx, DWORD PTR _acolCol$[ebp]
  01a80	52		 push	 edx
  01a81	68 00 00 00 00	 push	 OFFSET FLAT:$SG202642
  01a86	8d 45 f0	 lea	 eax, DWORD PTR _msg$202641[ebp]
  01a89	50		 push	 eax
  01a8a	ff 15 00 00 00
	00		 call	 DWORD PTR __imp_?Format@?$CStringT@DV?$StrTraitMFC_DLL@DV?$ChTraitsCRT@D@ATL@@@@@ATL@@QAAXPBDZZ
  01a90	83 c4 10	 add	 esp, 16			; 00000010H

; 491  : 		LogUserActMsg("CHAGE_COLOR", (LPCSTR)msg);

  01a93	8d 4d f0	 lea	 ecx, DWORD PTR _msg$202641[ebp]
  01a96	ff 15 00 00 00
	00		 call	 DWORD PTR __imp_??B?$CSimpleStringT@D$00@ATL@@QBEPBDXZ
  01a9c	50		 push	 eax
  01a9d	8d 4d cc	 lea	 ecx, DWORD PTR $T205305[ebp]
  01aa0	ff 15 00 00 00
	00		 call	 DWORD PTR __imp_??0?$basic_string@DU?$char_traits@D@std@@V?$allocator@D@2@@std@@QAE@PBD@Z
  01aa6	c6 45 fc 01	 mov	 BYTE PTR __$EHRec$[ebp+8], 1
  01aaa	68 00 00 00 00	 push	 OFFSET FLAT:$SG202646
  01aaf	8d 4d b0	 lea	 ecx, DWORD PTR $T205306[ebp]
  01ab2	ff 15 00 00 00
	00		 call	 DWORD PTR __imp_??0?$basic_string@DU?$char_traits@D@std@@V?$allocator@D@2@@std@@QAE@PBD@Z
  01ab8	c6 45 fc 02	 mov	 BYTE PTR __$EHRec$[ebp+8], 2
  01abc	8d 4d cc	 lea	 ecx, DWORD PTR $T205305[ebp]
  01abf	51		 push	 ecx
  01ac0	8d 55 b0	 lea	 edx, DWORD PTR $T205306[ebp]
  01ac3	52		 push	 edx
  01ac4	ff 15 00 00 00
	00		 call	 DWORD PTR __imp_?LogUserActMsg@@YAXABV?$basic_string@DU?$char_traits@D@std@@V?$allocator@D@2@@std@@0@Z
  01aca	83 c4 08	 add	 esp, 8
  01acd	c6 45 fc 01	 mov	 BYTE PTR __$EHRec$[ebp+8], 1
  01ad1	8d 4d b0	 lea	 ecx, DWORD PTR $T205306[ebp]
  01ad4	ff 15 00 00 00
	00		 call	 DWORD PTR __imp_??1?$basic_string@DU?$char_traits@D@std@@V?$allocator@D@2@@std@@QAE@XZ
  01ada	c6 45 fc 00	 mov	 BYTE PTR __$EHRec$[ebp+8], 0
  01ade	8d 4d cc	 lea	 ecx, DWORD PTR $T205305[ebp]
  01ae1	ff 15 00 00 00
	00		 call	 DWORD PTR __imp_??1?$basic_string@DU?$char_traits@D@std@@V?$allocator@D@2@@std@@QAE@XZ

; 492  : 	}

  01ae7	c7 45 fc ff ff
	ff ff		 mov	 DWORD PTR __$EHRec$[ebp+8], -1
  01aee	8d 4d f0	 lea	 ecx, DWORD PTR _msg$202641[ebp]
  01af1	ff 15 00 00 00
	00		 call	 DWORD PTR __imp_??1?$CStringT@DV?$StrTraitMFC_DLL@DV?$ChTraitsCRT@D@ATL@@@@@ATL@@QAE@XZ
$L202629:

; 493  : }

  01af7	8b 4d f4	 mov	 ecx, DWORD PTR __$EHRec$[ebp]
  01afa	64 89 0d 00 00
	00 00		 mov	 DWORD PTR fs:__except_list, ecx
  01b01	8b e5		 mov	 esp, ebp
  01b03	5d		 pop	 ebp
  01b04	c2 0c 00	 ret	 12			; 0000000cH
_TEXT	ENDS
text$x	SEGMENT
$L205307:
  0026a	8d 4d f0	 lea	 ecx, DWORD PTR _msg$202641[ebp]
  0026d	ff 25 00 00 00
	00		 jmp	 DWORD PTR __imp_??1?$CStringT@DV?$StrTraitMFC_DLL@DV?$ChTraitsCRT@D@ATL@@@@@ATL@@QAE@XZ
$L205308:
  00273	8d 4d cc	 lea	 ecx, DWORD PTR $T205305[ebp]
  00276	ff 25 00 00 00
	00		 jmp	 DWORD PTR __imp_??1?$basic_string@DU?$char_traits@D@std@@V?$allocator@D@2@@std@@QAE@XZ
$L205309:
  0027c	8d 4d b0	 lea	 ecx, DWORD PTR $T205306[ebp]
  0027f	ff 25 00 00 00
	00		 jmp	 DWORD PTR __imp_??1?$basic_string@DU?$char_traits@D@std@@V?$allocator@D@2@@std@@QAE@XZ
__ehhandler$?OnSendChangeColor@CSkinMgrV1@@UAEXKI_N@Z:
  00285	b8 00 00 00 00	 mov	 eax, OFFSET FLAT:$T205311
  0028a	e9 00 00 00 00	 jmp	 ___CxxFrameHandler
text$x	ENDS
?OnSendChangeColor@CSkinMgrV1@@UAEXKI_N@Z ENDP		; CSkinMgrV1::OnSendChangeColor
PUBLIC	??HATL@@YA?AV?$CStringT@DV?$StrTraitMFC_DLL@DV?$ChTraitsCRT@D@ATL@@@@@0@PBDABV10@@Z ; ATL::operator+
PUBLIC	??9ATL@@YA_NABV?$CStringT@DV?$StrTraitMFC_DLL@DV?$ChTraitsCRT@D@ATL@@@@@0@PBD@Z ; ATL::operator!=
PUBLIC	?GetSafeHwnd@CWnd@@QBEPAUHWND__@@XZ		; CWnd::GetSafeHwnd
EXTRN	?IsValid@YL_FileInfo@@SA_NPBD@Z:NEAR		; YL_FileInfo::IsValid
EXTRN	__imp_??4?$CStringT@DV?$StrTraitMFC_DLL@DV?$ChTraitsCRT@D@ATL@@@@@ATL@@QAEAAV01@ABV01@@Z:NEAR
EXTRN	__imp_??4?$CStringT@DV?$StrTraitMFC_DLL@DV?$ChTraitsCRT@D@ATL@@@@@ATL@@QAEAAV01@PBD@Z:NEAR
EXTRN	?GetConfigStringValue@AfxUserConfig@@QAEXABV?$basic_string@DU?$char_traits@D@std@@V?$allocator@D@2@@std@@0AAV23@@Z:NEAR ; AfxUserConfig::GetConfigStringValue
EXTRN	__imp_?Tokenize@?$CStringT@DV?$StrTraitMFC_DLL@DV?$ChTraitsCRT@D@ATL@@@@@ATL@@QBE?AV12@PBDAAH@Z:NEAR
EXTRN	__imp_?ReverseFind@?$CStringT@DV?$StrTraitMFC_DLL@DV?$ChTraitsCRT@D@ATL@@@@@ATL@@QBEHD@Z:NEAR
EXTRN	__imp_?TrimRight@?$CStringT@DV?$StrTraitMFC_DLL@DV?$ChTraitsCRT@D@ATL@@@@@ATL@@QAEAAV12@PBD@Z:NEAR
EXTRN	__imp_?Left@?$CStringT@DV?$StrTraitMFC_DLL@DV?$ChTraitsCRT@D@ATL@@@@@ATL@@QBE?AV12@H@Z:NEAR
EXTRN	_strcat:NEAR
EXTRN	__imp_??0?$basic_string@DU?$char_traits@D@std@@V?$allocator@D@2@@std@@QAE@XZ:NEAR
EXTRN	?AfxGetUserConfig@@YAPAVAfxUserConfig@@XZ:NEAR	; AfxGetUserConfig
EXTRN	?GetHomePath@CLhcImg@@SA_NQADH@Z:NEAR		; CLhcImg::GetHomePath
xdata$x	SEGMENT
$T205340 DD	0ffffffffH
	DD	FLAT:$L205325
	DD	00H
	DD	FLAT:$L205326
	DD	01H
	DD	FLAT:$L205327
	DD	02H
	DD	FLAT:$L205328
	DD	01H
	DD	FLAT:$L205329
	DD	00H
	DD	FLAT:$L205330
	DD	05H
	DD	FLAT:$L205331
	DD	06H
	DD	FLAT:$L205332
	DD	05H
	DD	FLAT:$L205333
	DD	08H
	DD	FLAT:$L205334
$T205337 DD	019930520H
	DD	0aH
	DD	FLAT:$T205340
	DD	2 DUP(00H)
	DD	2 DUP(00H)
; Function compile flags: /Odt
xdata$x	ENDS
_TEXT	SEGMENT
tv287 = -708						; size = 4
tv204 = -704						; size = 4
tv285 = -700						; size = 4
tv289 = -696						; size = 4
tv282 = -692						; size = 4
tv76 = -688						; size = 4
tv280 = -684						; size = 4
tv81 = -680						; size = 4
tv278 = -676						; size = 4
tv155 = -672						; size = 4
tv275 = -668						; size = 4
tv86 = -664						; size = 4
_this$ = -660						; size = 4
$T205324 = -656						; size = 4
$T205323 = -652						; size = 4
$T205322 = -648						; size = 4
$T205321 = -644						; size = 4
$T205320 = -640						; size = 4
$T205319 = -633						; size = 1
$T205318 = -632						; size = 4
$T205317 = -628						; size = 28
$T205316 = -600						; size = 28
_idx$202673 = -572					; size = 4
_path$202655 = -568					; size = 28
_szbuffer$202658 = -540					; size = 512
__$ArrayPad$ = -28					; size = 4
_pUserConfig$202654 = -24				; size = 4
_nPos$ = -20						; size = 4
_name$ = -16						; size = 4
__$EHRec$ = -12						; size = 12
__$ReturnAddr$ = 4					; size = 4
_strPath$ = 8						; size = 4
?OnSendChangeSkin@CSkinMgrV1@@UAEXV?$CStringT@DV?$StrTraitMFC_DLL@DV?$ChTraitsCRT@D@ATL@@@@@ATL@@@Z PROC NEAR ; CSkinMgrV1::OnSendChangeSkin
; _this$ = ecx

; 496  : {

  01b10	55		 push	 ebp
  01b11	8b ec		 mov	 ebp, esp
  01b13	6a ff		 push	 -1
  01b15	68 00 00 00 00	 push	 __ehhandler$?OnSendChangeSkin@CSkinMgrV1@@UAEXV?$CStringT@DV?$StrTraitMFC_DLL@DV?$ChTraitsCRT@D@ATL@@@@@ATL@@@Z
  01b1a	64 a1 00 00 00
	00		 mov	 eax, DWORD PTR fs:__except_list
  01b20	50		 push	 eax
  01b21	64 89 25 00 00
	00 00		 mov	 DWORD PTR fs:__except_list, esp
  01b28	81 ec b8 02 00
	00		 sub	 esp, 696		; 000002b8H
  01b2e	a1 00 00 00 00	 mov	 eax, DWORD PTR ___security_cookie
  01b33	89 45 e4	 mov	 DWORD PTR __$ArrayPad$[ebp], eax
  01b36	89 8d 6c fd ff
	ff		 mov	 DWORD PTR _this$[ebp], ecx
  01b3c	c7 45 fc 00 00
	00 00		 mov	 DWORD PTR __$EHRec$[ebp+8], 0

; 497  : 	if(strPath != "")

  01b43	68 00 00 00 00	 push	 OFFSET FLAT:$SG202652
  01b48	8d 45 08	 lea	 eax, DWORD PTR _strPath$[ebp]
  01b4b	50		 push	 eax
  01b4c	e8 00 00 00 00	 call	 ??9ATL@@YA_NABV?$CStringT@DV?$StrTraitMFC_DLL@DV?$ChTraitsCRT@D@ATL@@@@@0@PBD@Z ; ATL::operator!=
  01b51	83 c4 08	 add	 esp, 8
  01b54	0f b6 c8	 movzx	 ecx, al
  01b57	85 c9		 test	 ecx, ecx
  01b59	74 18		 je	 SHORT $L202651

; 498  : 		m_strSkinPath = strPath;

  01b5b	8d 55 08	 lea	 edx, DWORD PTR _strPath$[ebp]
  01b5e	52		 push	 edx
  01b5f	8b 8d 6c fd ff
	ff		 mov	 ecx, DWORD PTR _this$[ebp]
  01b65	83 c1 30	 add	 ecx, 48			; 00000030H
  01b68	ff 15 00 00 00
	00		 call	 DWORD PTR __imp_??4?$CStringT@DV?$StrTraitMFC_DLL@DV?$ChTraitsCRT@D@ATL@@@@@ATL@@QAEAAV01@ABV01@@Z

; 499  : 	else

  01b6e	e9 32 01 00 00	 jmp	 $L202653
$L202651:

; 500  : 	{
; 501  : 		AfxUserConfig* pUserConfig = AfxGetUserConfig();

  01b73	e8 00 00 00 00	 call	 ?AfxGetUserConfig@@YAPAVAfxUserConfig@@XZ ; AfxGetUserConfig
  01b78	89 45 e8	 mov	 DWORD PTR _pUserConfig$202654[ebp], eax

; 502  : 		string path;

  01b7b	8d 8d c8 fd ff
	ff		 lea	 ecx, DWORD PTR _path$202655[ebp]
  01b81	ff 15 00 00 00
	00		 call	 DWORD PTR __imp_??0?$basic_string@DU?$char_traits@D@std@@V?$allocator@D@2@@std@@QAE@XZ
  01b87	c6 45 fc 01	 mov	 BYTE PTR __$EHRec$[ebp+8], 1

; 503  : 		pUserConfig->GetConfigStringValue(CONF_SETTING_MODULE_NAME, CONF_SETTING_SKIN_IDX, path);

  01b8b	a1 00 00 00 00	 mov	 eax, DWORD PTR _CONF_SETTING_SKIN_IDX
  01b90	50		 push	 eax
  01b91	8d 8d a8 fd ff
	ff		 lea	 ecx, DWORD PTR $T205316[ebp]
  01b97	ff 15 00 00 00
	00		 call	 DWORD PTR __imp_??0?$basic_string@DU?$char_traits@D@std@@V?$allocator@D@2@@std@@QAE@PBD@Z
  01b9d	c6 45 fc 02	 mov	 BYTE PTR __$EHRec$[ebp+8], 2
  01ba1	8b 0d 00 00 00
	00		 mov	 ecx, DWORD PTR _CONF_SETTING_MODULE_NAME
  01ba7	51		 push	 ecx
  01ba8	8d 8d 8c fd ff
	ff		 lea	 ecx, DWORD PTR $T205317[ebp]
  01bae	ff 15 00 00 00
	00		 call	 DWORD PTR __imp_??0?$basic_string@DU?$char_traits@D@std@@V?$allocator@D@2@@std@@QAE@PBD@Z
  01bb4	c6 45 fc 03	 mov	 BYTE PTR __$EHRec$[ebp+8], 3
  01bb8	8d 95 c8 fd ff
	ff		 lea	 edx, DWORD PTR _path$202655[ebp]
  01bbe	52		 push	 edx
  01bbf	8d 85 a8 fd ff
	ff		 lea	 eax, DWORD PTR $T205316[ebp]
  01bc5	50		 push	 eax
  01bc6	8d 8d 8c fd ff
	ff		 lea	 ecx, DWORD PTR $T205317[ebp]
  01bcc	51		 push	 ecx
  01bcd	8b 4d e8	 mov	 ecx, DWORD PTR _pUserConfig$202654[ebp]
  01bd0	e8 00 00 00 00	 call	 ?GetConfigStringValue@AfxUserConfig@@QAEXABV?$basic_string@DU?$char_traits@D@std@@V?$allocator@D@2@@std@@0AAV23@@Z ; AfxUserConfig::GetConfigStringValue
  01bd5	c6 45 fc 02	 mov	 BYTE PTR __$EHRec$[ebp+8], 2
  01bd9	8d 8d 8c fd ff
	ff		 lea	 ecx, DWORD PTR $T205317[ebp]
  01bdf	ff 15 00 00 00
	00		 call	 DWORD PTR __imp_??1?$basic_string@DU?$char_traits@D@std@@V?$allocator@D@2@@std@@QAE@XZ
  01be5	c6 45 fc 01	 mov	 BYTE PTR __$EHRec$[ebp+8], 1
  01be9	8d 8d a8 fd ff
	ff		 lea	 ecx, DWORD PTR $T205316[ebp]
  01bef	ff 15 00 00 00
	00		 call	 DWORD PTR __imp_??1?$basic_string@DU?$char_traits@D@std@@V?$allocator@D@2@@std@@QAE@XZ

; 504  : 		m_strSkinPath = path.c_str();

  01bf5	8d 8d c8 fd ff
	ff		 lea	 ecx, DWORD PTR _path$202655[ebp]
  01bfb	ff 15 00 00 00
	00		 call	 DWORD PTR __imp_?c_str@?$basic_string@DU?$char_traits@D@std@@V?$allocator@D@2@@std@@QBEPBDXZ
  01c01	50		 push	 eax
  01c02	8b 8d 6c fd ff
	ff		 mov	 ecx, DWORD PTR _this$[ebp]
  01c08	83 c1 30	 add	 ecx, 48			; 00000030H
  01c0b	ff 15 00 00 00
	00		 call	 DWORD PTR __imp_??4?$CStringT@DV?$StrTraitMFC_DLL@DV?$ChTraitsCRT@D@ATL@@@@@ATL@@QAEAAV01@PBD@Z

; 505  : 		char szbuffer[512];
; 506  : 		CLhcImg::GetHomePath(szbuffer,512);

  01c11	68 00 02 00 00	 push	 512			; 00000200H
  01c16	8d 95 e4 fd ff
	ff		 lea	 edx, DWORD PTR _szbuffer$202658[ebp]
  01c1c	52		 push	 edx
  01c1d	e8 00 00 00 00	 call	 ?GetHomePath@CLhcImg@@SA_NQADH@Z ; CLhcImg::GetHomePath
  01c22	83 c4 08	 add	 esp, 8

; 507  : 		strcat(szbuffer,"\\skin\\");

  01c25	68 00 00 00 00	 push	 OFFSET FLAT:$SG202659
  01c2a	8d 85 e4 fd ff
	ff		 lea	 eax, DWORD PTR _szbuffer$202658[ebp]
  01c30	50		 push	 eax
  01c31	e8 00 00 00 00	 call	 _strcat
  01c36	83 c4 08	 add	 esp, 8

; 508  : 		m_strSkinPath = szbuffer + m_strSkinPath;

  01c39	8b 8d 6c fd ff
	ff		 mov	 ecx, DWORD PTR _this$[ebp]
  01c3f	83 c1 30	 add	 ecx, 48			; 00000030H
  01c42	51		 push	 ecx
  01c43	8d 95 e4 fd ff
	ff		 lea	 edx, DWORD PTR _szbuffer$202658[ebp]
  01c49	52		 push	 edx
  01c4a	8d 85 88 fd ff
	ff		 lea	 eax, DWORD PTR $T205318[ebp]
  01c50	50		 push	 eax
  01c51	e8 00 00 00 00	 call	 ??HATL@@YA?AV?$CStringT@DV?$StrTraitMFC_DLL@DV?$ChTraitsCRT@D@ATL@@@@@0@PBDABV10@@Z ; ATL::operator+
  01c56	83 c4 0c	 add	 esp, 12			; 0000000cH
  01c59	89 85 68 fd ff
	ff		 mov	 DWORD PTR tv86[ebp], eax
  01c5f	8b 8d 68 fd ff
	ff		 mov	 ecx, DWORD PTR tv86[ebp]
  01c65	89 8d 64 fd ff
	ff		 mov	 DWORD PTR tv275[ebp], ecx
  01c6b	c6 45 fc 04	 mov	 BYTE PTR __$EHRec$[ebp+8], 4
  01c6f	8b 95 64 fd ff
	ff		 mov	 edx, DWORD PTR tv275[ebp]
  01c75	52		 push	 edx
  01c76	8b 8d 6c fd ff
	ff		 mov	 ecx, DWORD PTR _this$[ebp]
  01c7c	83 c1 30	 add	 ecx, 48			; 00000030H
  01c7f	ff 15 00 00 00
	00		 call	 DWORD PTR __imp_??4?$CStringT@DV?$StrTraitMFC_DLL@DV?$ChTraitsCRT@D@ATL@@@@@ATL@@QAEAAV01@ABV01@@Z
  01c85	c6 45 fc 01	 mov	 BYTE PTR __$EHRec$[ebp+8], 1
  01c89	8d 8d 88 fd ff
	ff		 lea	 ecx, DWORD PTR $T205318[ebp]
  01c8f	ff 15 00 00 00
	00		 call	 DWORD PTR __imp_??1?$CStringT@DV?$StrTraitMFC_DLL@DV?$ChTraitsCRT@D@ATL@@@@@ATL@@QAE@XZ

; 509  : 		//	pUserConfig->SetConfigStringValue( CONF_SETTING_MODULE_NAME, CONF_SETTING_SKIN_IDX, string(skinPath), true);
; 510  : 	}

  01c95	c6 45 fc 00	 mov	 BYTE PTR __$EHRec$[ebp+8], 0
  01c99	8d 8d c8 fd ff
	ff		 lea	 ecx, DWORD PTR _path$202655[ebp]
  01c9f	ff 15 00 00 00
	00		 call	 DWORD PTR __imp_??1?$basic_string@DU?$char_traits@D@std@@V?$allocator@D@2@@std@@QAE@XZ
$L202653:

; 511  : 	int	nPos = m_strSkinPath.TrimRight("\\").ReverseFind('\\');

  01ca5	6a 5c		 push	 92			; 0000005cH
  01ca7	68 00 00 00 00	 push	 OFFSET FLAT:$SG202662
  01cac	8b 8d 6c fd ff
	ff		 mov	 ecx, DWORD PTR _this$[ebp]
  01cb2	83 c1 30	 add	 ecx, 48			; 00000030H
  01cb5	ff 15 00 00 00
	00		 call	 DWORD PTR __imp_?TrimRight@?$CStringT@DV?$StrTraitMFC_DLL@DV?$ChTraitsCRT@D@ATL@@@@@ATL@@QAEAAV12@PBD@Z
  01cbb	8b c8		 mov	 ecx, eax
  01cbd	ff 15 00 00 00
	00		 call	 DWORD PTR __imp_?ReverseFind@?$CStringT@DV?$StrTraitMFC_DLL@DV?$ChTraitsCRT@D@ATL@@@@@ATL@@QBEHD@Z
  01cc3	89 45 ec	 mov	 DWORD PTR _nPos$[ebp], eax

; 512  : 	CString name = m_strSkinPath.Tokenize("\\", nPos);

  01cc6	8d 45 ec	 lea	 eax, DWORD PTR _nPos$[ebp]
  01cc9	50		 push	 eax
  01cca	68 00 00 00 00	 push	 OFFSET FLAT:$SG202665
  01ccf	8d 4d f0	 lea	 ecx, DWORD PTR _name$[ebp]
  01cd2	51		 push	 ecx
  01cd3	8b 8d 6c fd ff
	ff		 mov	 ecx, DWORD PTR _this$[ebp]
  01cd9	83 c1 30	 add	 ecx, 48			; 00000030H
  01cdc	ff 15 00 00 00
	00		 call	 DWORD PTR __imp_?Tokenize@?$CStringT@DV?$StrTraitMFC_DLL@DV?$ChTraitsCRT@D@ATL@@@@@ATL@@QBE?AV12@PBDAAH@Z
  01ce2	c6 45 fc 05	 mov	 BYTE PTR __$EHRec$[ebp+8], 5

; 513  : 	if(!YL_FileInfo::IsValid(m_strSkinPath.Left(nPos) + "\\skin.dat"))

  01ce6	8b 55 ec	 mov	 edx, DWORD PTR _nPos$[ebp]
  01ce9	52		 push	 edx
  01cea	8d 85 80 fd ff
	ff		 lea	 eax, DWORD PTR $T205320[ebp]
  01cf0	50		 push	 eax
  01cf1	8b 8d 6c fd ff
	ff		 mov	 ecx, DWORD PTR _this$[ebp]
  01cf7	83 c1 30	 add	 ecx, 48			; 00000030H
  01cfa	ff 15 00 00 00
	00		 call	 DWORD PTR __imp_?Left@?$CStringT@DV?$StrTraitMFC_DLL@DV?$ChTraitsCRT@D@ATL@@@@@ATL@@QBE?AV12@H@Z
  01d00	89 85 60 fd ff
	ff		 mov	 DWORD PTR tv155[ebp], eax
  01d06	8b 8d 60 fd ff
	ff		 mov	 ecx, DWORD PTR tv155[ebp]
  01d0c	89 8d 5c fd ff
	ff		 mov	 DWORD PTR tv278[ebp], ecx
  01d12	c6 45 fc 06	 mov	 BYTE PTR __$EHRec$[ebp+8], 6
  01d16	68 00 00 00 00	 push	 OFFSET FLAT:$SG202670
  01d1b	8b 95 5c fd ff
	ff		 mov	 edx, DWORD PTR tv278[ebp]
  01d21	52		 push	 edx
  01d22	8d 85 7c fd ff
	ff		 lea	 eax, DWORD PTR $T205321[ebp]
  01d28	50		 push	 eax
  01d29	e8 00 00 00 00	 call	 ??HATL@@YA?AV?$CStringT@DV?$StrTraitMFC_DLL@DV?$ChTraitsCRT@D@ATL@@@@@0@ABV10@PBD@Z ; ATL::operator+
  01d2e	83 c4 0c	 add	 esp, 12			; 0000000cH
  01d31	89 85 58 fd ff
	ff		 mov	 DWORD PTR tv81[ebp], eax
  01d37	8b 8d 58 fd ff
	ff		 mov	 ecx, DWORD PTR tv81[ebp]
  01d3d	89 8d 54 fd ff
	ff		 mov	 DWORD PTR tv280[ebp], ecx
  01d43	c6 45 fc 07	 mov	 BYTE PTR __$EHRec$[ebp+8], 7
  01d47	8b 8d 54 fd ff
	ff		 mov	 ecx, DWORD PTR tv280[ebp]
  01d4d	ff 15 00 00 00
	00		 call	 DWORD PTR __imp_??B?$CSimpleStringT@D$00@ATL@@QBEPBDXZ
  01d53	50		 push	 eax
  01d54	e8 00 00 00 00	 call	 ?IsValid@YL_FileInfo@@SA_NPBD@Z ; YL_FileInfo::IsValid
  01d59	83 c4 04	 add	 esp, 4
  01d5c	0f b6 d0	 movzx	 edx, al
  01d5f	f7 da		 neg	 edx
  01d61	1b d2		 sbb	 edx, edx
  01d63	42		 inc	 edx
  01d64	88 95 87 fd ff
	ff		 mov	 BYTE PTR $T205319[ebp], dl
  01d6a	c6 45 fc 06	 mov	 BYTE PTR __$EHRec$[ebp+8], 6
  01d6e	8d 8d 7c fd ff
	ff		 lea	 ecx, DWORD PTR $T205321[ebp]
  01d74	ff 15 00 00 00
	00		 call	 DWORD PTR __imp_??1?$CStringT@DV?$StrTraitMFC_DLL@DV?$ChTraitsCRT@D@ATL@@@@@ATL@@QAE@XZ
  01d7a	c6 45 fc 05	 mov	 BYTE PTR __$EHRec$[ebp+8], 5
  01d7e	8d 8d 80 fd ff
	ff		 lea	 ecx, DWORD PTR $T205320[ebp]
  01d84	ff 15 00 00 00
	00		 call	 DWORD PTR __imp_??1?$CStringT@DV?$StrTraitMFC_DLL@DV?$ChTraitsCRT@D@ATL@@@@@ATL@@QAE@XZ
  01d8a	0f b6 85 87 fd
	ff ff		 movzx	 eax, BYTE PTR $T205319[ebp]
  01d91	85 c0		 test	 eax, eax
  01d93	74 05		 je	 SHORT $L202668

; 514  : 	{
; 515  : 		//
; 516  : 	}
; 517  : 	else

  01d95	e9 49 01 00 00	 jmp	 $L202671
$L202668:

; 518  : 	{
; 519  : 		m_BaseColor = 0;

  01d9a	8b 8d 6c fd ff
	ff		 mov	 ecx, DWORD PTR _this$[ebp]
  01da0	c7 41 24 00 00
	00 00		 mov	 DWORD PTR [ecx+36], 0

; 520  : 		if( mp_changeSkinEven.size() > 0 )

  01da7	8b 8d 6c fd ff
	ff		 mov	 ecx, DWORD PTR _this$[ebp]
  01dad	83 c1 34	 add	 ecx, 52			; 00000034H
  01db0	e8 00 00 00 00	 call	 ?size@?$vector@PAVIChangeSkinEventListener@@V?$allocator@PAVIChangeSkinEventListener@@@std@@@std@@QBEIXZ ; std::vector<IChangeSkinEventListener *,std::allocator<IChangeSkinEventListener *> >::size
  01db5	85 c0		 test	 eax, eax
  01db7	0f 86 c6 00 00
	00		 jbe	 $L202672

; 521  : 		{
; 522  : 			for(size_t idx = 0;idx < mp_changeSkinEven.size();idx++ )

  01dbd	c7 85 c4 fd ff
	ff 00 00 00 00	 mov	 DWORD PTR _idx$202673[ebp], 0
  01dc7	eb 0f		 jmp	 SHORT $L202674
$L202675:
  01dc9	8b 95 c4 fd ff
	ff		 mov	 edx, DWORD PTR _idx$202673[ebp]
  01dcf	83 c2 01	 add	 edx, 1
  01dd2	89 95 c4 fd ff
	ff		 mov	 DWORD PTR _idx$202673[ebp], edx
$L202674:
  01dd8	8b 8d 6c fd ff
	ff		 mov	 ecx, DWORD PTR _this$[ebp]
  01dde	83 c1 34	 add	 ecx, 52			; 00000034H
  01de1	e8 00 00 00 00	 call	 ?size@?$vector@PAVIChangeSkinEventListener@@V?$allocator@PAVIChangeSkinEventListener@@@std@@@std@@QBEIXZ ; std::vector<IChangeSkinEventListener *,std::allocator<IChangeSkinEventListener *> >::size
  01de6	39 85 c4 fd ff
	ff		 cmp	 DWORD PTR _idx$202673[ebp], eax
  01dec	0f 83 91 00 00
	00		 jae	 $L202672

; 523  : 			{
; 524  : 				mp_changeSkinEven[idx]->OnChangeSkinTemplate( m_strSkinPath );

  01df2	51		 push	 ecx
  01df3	8b cc		 mov	 ecx, esp
  01df5	89 a5 78 fd ff
	ff		 mov	 DWORD PTR $T205322[ebp], esp
  01dfb	68 00 00 00 00	 push	 OFFSET FLAT:$SG202679
  01e00	ff 15 00 00 00
	00		 call	 DWORD PTR __imp_??0?$CStringT@DV?$StrTraitMFC_DLL@DV?$ChTraitsCRT@D@ATL@@@@@ATL@@QAE@PBD@Z
  01e06	89 85 50 fd ff
	ff		 mov	 DWORD PTR tv76[ebp], eax
  01e0c	8b 85 50 fd ff
	ff		 mov	 eax, DWORD PTR tv76[ebp]
  01e12	89 85 4c fd ff
	ff		 mov	 DWORD PTR tv282[ebp], eax
  01e18	c6 45 fc 08	 mov	 BYTE PTR __$EHRec$[ebp+8], 8
  01e1c	8b 8d 6c fd ff
	ff		 mov	 ecx, DWORD PTR _this$[ebp]
  01e22	83 c1 30	 add	 ecx, 48			; 00000030H
  01e25	51		 push	 ecx
  01e26	8b d4		 mov	 edx, esp
  01e28	89 a5 74 fd ff
	ff		 mov	 DWORD PTR $T205323[ebp], esp
  01e2e	51		 push	 ecx
  01e2f	8b ca		 mov	 ecx, edx
  01e31	ff 15 00 00 00
	00		 call	 DWORD PTR __imp_??0?$CStringT@DV?$StrTraitMFC_DLL@DV?$ChTraitsCRT@D@ATL@@@@@ATL@@QAE@ABV01@@Z
  01e37	89 85 48 fd ff
	ff		 mov	 DWORD PTR tv289[ebp], eax
  01e3d	8b 85 48 fd ff
	ff		 mov	 eax, DWORD PTR tv289[ebp]
  01e43	89 85 44 fd ff
	ff		 mov	 DWORD PTR tv285[ebp], eax
  01e49	c6 45 fc 09	 mov	 BYTE PTR __$EHRec$[ebp+8], 9
  01e4d	8b 8d c4 fd ff
	ff		 mov	 ecx, DWORD PTR _idx$202673[ebp]
  01e53	51		 push	 ecx
  01e54	8b 8d 6c fd ff
	ff		 mov	 ecx, DWORD PTR _this$[ebp]
  01e5a	83 c1 34	 add	 ecx, 52			; 00000034H
  01e5d	e8 00 00 00 00	 call	 ??A?$vector@PAVIChangeSkinEventListener@@V?$allocator@PAVIChangeSkinEventListener@@@std@@@std@@QAEAAPAVIChangeSkinEventListener@@I@Z ; std::vector<IChangeSkinEventListener *,std::allocator<IChangeSkinEventListener *> >::operator[]
  01e62	8b 10		 mov	 edx, DWORD PTR [eax]
  01e64	89 95 40 fd ff
	ff		 mov	 DWORD PTR tv204[ebp], edx
  01e6a	8b 85 40 fd ff
	ff		 mov	 eax, DWORD PTR tv204[ebp]
  01e70	8b 10		 mov	 edx, DWORD PTR [eax]
  01e72	c6 45 fc 05	 mov	 BYTE PTR __$EHRec$[ebp+8], 5
  01e76	8b 8d 40 fd ff
	ff		 mov	 ecx, DWORD PTR tv204[ebp]
  01e7c	ff 12		 call	 DWORD PTR [edx]

; 525  : 			}

  01e7e	e9 46 ff ff ff	 jmp	 $L202675
$L202672:

; 526  : 		}
; 527  : 
; 528  : 		if( mp_SubjectWnd && IsWindow(mp_SubjectWnd->GetSafeHwnd()))

  01e83	8b 85 6c fd ff
	ff		 mov	 eax, DWORD PTR _this$[ebp]
  01e89	83 78 14 00	 cmp	 DWORD PTR [eax+20], 0
  01e8d	74 54		 je	 SHORT $L202671
  01e8f	8b 8d 6c fd ff
	ff		 mov	 ecx, DWORD PTR _this$[ebp]
  01e95	8b 49 14	 mov	 ecx, DWORD PTR [ecx+20]
  01e98	e8 00 00 00 00	 call	 ?GetSafeHwnd@CWnd@@QBEPAUHWND__@@XZ ; CWnd::GetSafeHwnd
  01e9d	50		 push	 eax
  01e9e	ff 15 00 00 00
	00		 call	 DWORD PTR __imp__IsWindow@4
  01ea4	85 c0		 test	 eax, eax
  01ea6	74 3b		 je	 SHORT $L202671

; 529  : 		{
; 530  : 			mp_SubjectWnd->OnSendChangeSkin("");

  01ea8	51		 push	 ecx
  01ea9	8b cc		 mov	 ecx, esp
  01eab	89 a5 70 fd ff
	ff		 mov	 DWORD PTR $T205324[ebp], esp
  01eb1	68 00 00 00 00	 push	 OFFSET FLAT:$SG202682
  01eb6	ff 15 00 00 00
	00		 call	 DWORD PTR __imp_??0?$CStringT@DV?$StrTraitMFC_DLL@DV?$ChTraitsCRT@D@ATL@@@@@ATL@@QAE@PBD@Z
  01ebc	89 85 3c fd ff
	ff		 mov	 DWORD PTR tv287[ebp], eax
  01ec2	8b 95 6c fd ff
	ff		 mov	 edx, DWORD PTR _this$[ebp]
  01ec8	8b 42 14	 mov	 eax, DWORD PTR [edx+20]
  01ecb	8b 8d 6c fd ff
	ff		 mov	 ecx, DWORD PTR _this$[ebp]
  01ed1	8b 49 14	 mov	 ecx, DWORD PTR [ecx+20]
  01ed4	81 c1 d4 00 00
	00		 add	 ecx, 212		; 000000d4H
  01eda	8b 90 d4 00 00
	00		 mov	 edx, DWORD PTR [eax+212]
  01ee0	ff 52 0c	 call	 DWORD PTR [edx+12]
$L202671:

; 531  : 		}
; 532  : 	}
; 533  : }

  01ee3	c6 45 fc 00	 mov	 BYTE PTR __$EHRec$[ebp+8], 0
  01ee7	8d 4d f0	 lea	 ecx, DWORD PTR _name$[ebp]
  01eea	ff 15 00 00 00
	00		 call	 DWORD PTR __imp_??1?$CStringT@DV?$StrTraitMFC_DLL@DV?$ChTraitsCRT@D@ATL@@@@@ATL@@QAE@XZ
  01ef0	c7 45 fc ff ff
	ff ff		 mov	 DWORD PTR __$EHRec$[ebp+8], -1
  01ef7	8d 4d 08	 lea	 ecx, DWORD PTR _strPath$[ebp]
  01efa	ff 15 00 00 00
	00		 call	 DWORD PTR __imp_??1?$CStringT@DV?$StrTraitMFC_DLL@DV?$ChTraitsCRT@D@ATL@@@@@ATL@@QAE@XZ
  01f00	8b 4d f4	 mov	 ecx, DWORD PTR __$EHRec$[ebp]
  01f03	64 89 0d 00 00
	00 00		 mov	 DWORD PTR fs:__except_list, ecx
  01f0a	8b 4d e4	 mov	 ecx, DWORD PTR __$ArrayPad$[ebp]
  01f0d	e8 00 00 00 00	 call	 @__security_check_cookie@4
  01f12	8b e5		 mov	 esp, ebp
  01f14	5d		 pop	 ebp
  01f15	c2 04 00	 ret	 4
_TEXT	ENDS
text$x	SEGMENT
$L205325:
  0028f	8d 4d 08	 lea	 ecx, DWORD PTR _strPath$[ebp]
  00292	ff 25 00 00 00
	00		 jmp	 DWORD PTR __imp_??1?$CStringT@DV?$StrTraitMFC_DLL@DV?$ChTraitsCRT@D@ATL@@@@@ATL@@QAE@XZ
$L205326:
  00298	8d 8d c8 fd ff
	ff		 lea	 ecx, DWORD PTR _path$202655[ebp]
  0029e	ff 25 00 00 00
	00		 jmp	 DWORD PTR __imp_??1?$basic_string@DU?$char_traits@D@std@@V?$allocator@D@2@@std@@QAE@XZ
$L205327:
  002a4	8d 8d a8 fd ff
	ff		 lea	 ecx, DWORD PTR $T205316[ebp]
  002aa	ff 25 00 00 00
	00		 jmp	 DWORD PTR __imp_??1?$basic_string@DU?$char_traits@D@std@@V?$allocator@D@2@@std@@QAE@XZ
$L205328:
  002b0	8d 8d 8c fd ff
	ff		 lea	 ecx, DWORD PTR $T205317[ebp]
  002b6	ff 25 00 00 00
	00		 jmp	 DWORD PTR __imp_??1?$basic_string@DU?$char_traits@D@std@@V?$allocator@D@2@@std@@QAE@XZ
$L205329:
  002bc	8d 8d 88 fd ff
	ff		 lea	 ecx, DWORD PTR $T205318[ebp]
  002c2	ff 25 00 00 00
	00		 jmp	 DWORD PTR __imp_??1?$CStringT@DV?$StrTraitMFC_DLL@DV?$ChTraitsCRT@D@ATL@@@@@ATL@@QAE@XZ
$L205330:
  002c8	8d 4d f0	 lea	 ecx, DWORD PTR _name$[ebp]
  002cb	ff 25 00 00 00
	00		 jmp	 DWORD PTR __imp_??1?$CStringT@DV?$StrTraitMFC_DLL@DV?$ChTraitsCRT@D@ATL@@@@@ATL@@QAE@XZ
$L205331:
  002d1	8d 8d 80 fd ff
	ff		 lea	 ecx, DWORD PTR $T205320[ebp]
  002d7	ff 25 00 00 00
	00		 jmp	 DWORD PTR __imp_??1?$CStringT@DV?$StrTraitMFC_DLL@DV?$ChTraitsCRT@D@ATL@@@@@ATL@@QAE@XZ
$L205332:
  002dd	8d 8d 7c fd ff
	ff		 lea	 ecx, DWORD PTR $T205321[ebp]
  002e3	ff 25 00 00 00
	00		 jmp	 DWORD PTR __imp_??1?$CStringT@DV?$StrTraitMFC_DLL@DV?$ChTraitsCRT@D@ATL@@@@@ATL@@QAE@XZ
$L205333:
  002e9	8b 8d 78 fd ff
	ff		 mov	 ecx, DWORD PTR $T205322[ebp]
  002ef	ff 25 00 00 00
	00		 jmp	 DWORD PTR __imp_??1?$CStringT@DV?$StrTraitMFC_DLL@DV?$ChTraitsCRT@D@ATL@@@@@ATL@@QAE@XZ
$L205334:
  002f5	8b 8d 74 fd ff
	ff		 mov	 ecx, DWORD PTR $T205323[ebp]
  002fb	ff 25 00 00 00
	00		 jmp	 DWORD PTR __imp_??1?$CStringT@DV?$StrTraitMFC_DLL@DV?$ChTraitsCRT@D@ATL@@@@@ATL@@QAE@XZ
__ehhandler$?OnSendChangeSkin@CSkinMgrV1@@UAEXV?$CStringT@DV?$StrTraitMFC_DLL@DV?$ChTraitsCRT@D@ATL@@@@@ATL@@@Z:
  00301	b8 00 00 00 00	 mov	 eax, OFFSET FLAT:$T205337
  00306	e9 00 00 00 00	 jmp	 ___CxxFrameHandler
text$x	ENDS
?OnSendChangeSkin@CSkinMgrV1@@UAEXV?$CStringT@DV?$StrTraitMFC_DLL@DV?$ChTraitsCRT@D@ATL@@@@@ATL@@@Z ENDP ; CSkinMgrV1::OnSendChangeSkin
xdata$x	SEGMENT
$T205364 DD	0ffffffffH
	DD	FLAT:$L205351
	DD	00H
	DD	FLAT:$L205352
	DD	01H
	DD	FLAT:$L205353
	DD	00H
	DD	FLAT:$L205354
	DD	0ffffffffH
	DD	FLAT:$L205355
	DD	04H
	DD	FLAT:$L205356
	DD	05H
	DD	FLAT:$L205357
	DD	04H
	DD	FLAT:$L205358
	DD	07H
	DD	FLAT:$L205359
$T205361 DD	019930520H
	DD	09H
	DD	FLAT:$T205364
	DD	2 DUP(00H)
	DD	2 DUP(00H)
; Function compile flags: /Odt
xdata$x	ENDS
_TEXT	SEGMENT
tv203 = -700						; size = 4
tv249 = -696						; size = 4
tv250 = -692						; size = 4
tv246 = -688						; size = 4
tv75 = -684						; size = 4
tv244 = -680						; size = 4
tv80 = -676						; size = 4
tv242 = -672						; size = 4
tv154 = -668						; size = 4
tv239 = -664						; size = 4
tv85 = -660						; size = 4
_this$ = -656						; size = 4
$T205350 = -652						; size = 4
$T205349 = -648						; size = 4
$T205348 = -644						; size = 4
$T205347 = -640						; size = 4
$T205346 = -633						; size = 1
$T205345 = -632						; size = 4
$T205344 = -628						; size = 28
$T205343 = -600						; size = 28
_idx$202710 = -572					; size = 4
_path$202692 = -568					; size = 28
_szbuffer$202695 = -540					; size = 512
__$ArrayPad$ = -28					; size = 4
_pUserConfig$202691 = -24				; size = 4
_nPos$ = -20						; size = 4
_name$ = -16						; size = 4
__$EHRec$ = -12						; size = 12
__$ReturnAddr$ = 4					; size = 4
_strPath$ = 8						; size = 4
_strSub$ = 12						; size = 4
?OnChangeSkinAndSub@CSkinMgrV1@@UAEXABV?$CStringT@DV?$StrTraitMFC_DLL@DV?$ChTraitsCRT@D@ATL@@@@@ATL@@0@Z PROC NEAR ; CSkinMgrV1::OnChangeSkinAndSub
; _this$ = ecx

; 536  : {

  01f20	55		 push	 ebp
  01f21	8b ec		 mov	 ebp, esp
  01f23	6a ff		 push	 -1
  01f25	68 00 00 00 00	 push	 __ehhandler$?OnChangeSkinAndSub@CSkinMgrV1@@UAEXABV?$CStringT@DV?$StrTraitMFC_DLL@DV?$ChTraitsCRT@D@ATL@@@@@ATL@@0@Z
  01f2a	64 a1 00 00 00
	00		 mov	 eax, DWORD PTR fs:__except_list
  01f30	50		 push	 eax
  01f31	64 89 25 00 00
	00 00		 mov	 DWORD PTR fs:__except_list, esp
  01f38	81 ec b0 02 00
	00		 sub	 esp, 688		; 000002b0H
  01f3e	a1 00 00 00 00	 mov	 eax, DWORD PTR ___security_cookie
  01f43	89 45 e4	 mov	 DWORD PTR __$ArrayPad$[ebp], eax
  01f46	89 8d 70 fd ff
	ff		 mov	 DWORD PTR _this$[ebp], ecx

; 537  : 	if(strPath != "")

  01f4c	68 00 00 00 00	 push	 OFFSET FLAT:$SG202689
  01f51	8b 45 08	 mov	 eax, DWORD PTR _strPath$[ebp]
  01f54	50		 push	 eax
  01f55	e8 00 00 00 00	 call	 ??9ATL@@YA_NABV?$CStringT@DV?$StrTraitMFC_DLL@DV?$ChTraitsCRT@D@ATL@@@@@0@PBD@Z ; ATL::operator!=
  01f5a	83 c4 08	 add	 esp, 8
  01f5d	0f b6 c8	 movzx	 ecx, al
  01f60	85 c9		 test	 ecx, ecx
  01f62	74 18		 je	 SHORT $L202688

; 538  : 		m_strSkinPath = strPath;

  01f64	8b 55 08	 mov	 edx, DWORD PTR _strPath$[ebp]
  01f67	52		 push	 edx
  01f68	8b 8d 70 fd ff
	ff		 mov	 ecx, DWORD PTR _this$[ebp]
  01f6e	83 c1 30	 add	 ecx, 48			; 00000030H
  01f71	ff 15 00 00 00
	00		 call	 DWORD PTR __imp_??4?$CStringT@DV?$StrTraitMFC_DLL@DV?$ChTraitsCRT@D@ATL@@@@@ATL@@QAEAAV01@ABV01@@Z

; 539  : 	else

  01f77	e9 38 01 00 00	 jmp	 $L202690
$L202688:

; 540  : 	{
; 541  : 		AfxUserConfig* pUserConfig = AfxGetUserConfig();

  01f7c	e8 00 00 00 00	 call	 ?AfxGetUserConfig@@YAPAVAfxUserConfig@@XZ ; AfxGetUserConfig
  01f81	89 45 e8	 mov	 DWORD PTR _pUserConfig$202691[ebp], eax

; 542  : 		string path;

  01f84	8d 8d c8 fd ff
	ff		 lea	 ecx, DWORD PTR _path$202692[ebp]
  01f8a	ff 15 00 00 00
	00		 call	 DWORD PTR __imp_??0?$basic_string@DU?$char_traits@D@std@@V?$allocator@D@2@@std@@QAE@XZ
  01f90	c7 45 fc 00 00
	00 00		 mov	 DWORD PTR __$EHRec$[ebp+8], 0

; 543  : 		pUserConfig->GetConfigStringValue(CONF_SETTING_MODULE_NAME, CONF_SETTING_SKIN_IDX, path);

  01f97	a1 00 00 00 00	 mov	 eax, DWORD PTR _CONF_SETTING_SKIN_IDX
  01f9c	50		 push	 eax
  01f9d	8d 8d a8 fd ff
	ff		 lea	 ecx, DWORD PTR $T205343[ebp]
  01fa3	ff 15 00 00 00
	00		 call	 DWORD PTR __imp_??0?$basic_string@DU?$char_traits@D@std@@V?$allocator@D@2@@std@@QAE@PBD@Z
  01fa9	c6 45 fc 01	 mov	 BYTE PTR __$EHRec$[ebp+8], 1
  01fad	8b 0d 00 00 00
	00		 mov	 ecx, DWORD PTR _CONF_SETTING_MODULE_NAME
  01fb3	51		 push	 ecx
  01fb4	8d 8d 8c fd ff
	ff		 lea	 ecx, DWORD PTR $T205344[ebp]
  01fba	ff 15 00 00 00
	00		 call	 DWORD PTR __imp_??0?$basic_string@DU?$char_traits@D@std@@V?$allocator@D@2@@std@@QAE@PBD@Z
  01fc0	c6 45 fc 02	 mov	 BYTE PTR __$EHRec$[ebp+8], 2
  01fc4	8d 95 c8 fd ff
	ff		 lea	 edx, DWORD PTR _path$202692[ebp]
  01fca	52		 push	 edx
  01fcb	8d 85 a8 fd ff
	ff		 lea	 eax, DWORD PTR $T205343[ebp]
  01fd1	50		 push	 eax
  01fd2	8d 8d 8c fd ff
	ff		 lea	 ecx, DWORD PTR $T205344[ebp]
  01fd8	51		 push	 ecx
  01fd9	8b 4d e8	 mov	 ecx, DWORD PTR _pUserConfig$202691[ebp]
  01fdc	e8 00 00 00 00	 call	 ?GetConfigStringValue@AfxUserConfig@@QAEXABV?$basic_string@DU?$char_traits@D@std@@V?$allocator@D@2@@std@@0AAV23@@Z ; AfxUserConfig::GetConfigStringValue
  01fe1	c6 45 fc 01	 mov	 BYTE PTR __$EHRec$[ebp+8], 1
  01fe5	8d 8d 8c fd ff
	ff		 lea	 ecx, DWORD PTR $T205344[ebp]
  01feb	ff 15 00 00 00
	00		 call	 DWORD PTR __imp_??1?$basic_string@DU?$char_traits@D@std@@V?$allocator@D@2@@std@@QAE@XZ
  01ff1	c6 45 fc 00	 mov	 BYTE PTR __$EHRec$[ebp+8], 0
  01ff5	8d 8d a8 fd ff
	ff		 lea	 ecx, DWORD PTR $T205343[ebp]
  01ffb	ff 15 00 00 00
	00		 call	 DWORD PTR __imp_??1?$basic_string@DU?$char_traits@D@std@@V?$allocator@D@2@@std@@QAE@XZ

; 544  : 		m_strSkinPath = path.c_str();

  02001	8d 8d c8 fd ff
	ff		 lea	 ecx, DWORD PTR _path$202692[ebp]
  02007	ff 15 00 00 00
	00		 call	 DWORD PTR __imp_?c_str@?$basic_string@DU?$char_traits@D@std@@V?$allocator@D@2@@std@@QBEPBDXZ
  0200d	50		 push	 eax
  0200e	8b 8d 70 fd ff
	ff		 mov	 ecx, DWORD PTR _this$[ebp]
  02014	83 c1 30	 add	 ecx, 48			; 00000030H
  02017	ff 15 00 00 00
	00		 call	 DWORD PTR __imp_??4?$CStringT@DV?$StrTraitMFC_DLL@DV?$ChTraitsCRT@D@ATL@@@@@ATL@@QAEAAV01@PBD@Z

; 545  : 		char szbuffer[512];
; 546  : 		CLhcImg::GetHomePath(szbuffer,512);

  0201d	68 00 02 00 00	 push	 512			; 00000200H
  02022	8d 95 e4 fd ff
	ff		 lea	 edx, DWORD PTR _szbuffer$202695[ebp]
  02028	52		 push	 edx
  02029	e8 00 00 00 00	 call	 ?GetHomePath@CLhcImg@@SA_NQADH@Z ; CLhcImg::GetHomePath
  0202e	83 c4 08	 add	 esp, 8

; 547  : 		strcat(szbuffer,"\\skin\\");

  02031	68 00 00 00 00	 push	 OFFSET FLAT:$SG202696
  02036	8d 85 e4 fd ff
	ff		 lea	 eax, DWORD PTR _szbuffer$202695[ebp]
  0203c	50		 push	 eax
  0203d	e8 00 00 00 00	 call	 _strcat
  02042	83 c4 08	 add	 esp, 8

; 548  : 		m_strSkinPath = szbuffer + m_strSkinPath;

  02045	8b 8d 70 fd ff
	ff		 mov	 ecx, DWORD PTR _this$[ebp]
  0204b	83 c1 30	 add	 ecx, 48			; 00000030H
  0204e	51		 push	 ecx
  0204f	8d 95 e4 fd ff
	ff		 lea	 edx, DWORD PTR _szbuffer$202695[ebp]
  02055	52		 push	 edx
  02056	8d 85 88 fd ff
	ff		 lea	 eax, DWORD PTR $T205345[ebp]
  0205c	50		 push	 eax
  0205d	e8 00 00 00 00	 call	 ??HATL@@YA?AV?$CStringT@DV?$StrTraitMFC_DLL@DV?$ChTraitsCRT@D@ATL@@@@@0@PBDABV10@@Z ; ATL::operator+
  02062	83 c4 0c	 add	 esp, 12			; 0000000cH
  02065	89 85 6c fd ff
	ff		 mov	 DWORD PTR tv85[ebp], eax
  0206b	8b 8d 6c fd ff
	ff		 mov	 ecx, DWORD PTR tv85[ebp]
  02071	89 8d 68 fd ff
	ff		 mov	 DWORD PTR tv239[ebp], ecx
  02077	c6 45 fc 03	 mov	 BYTE PTR __$EHRec$[ebp+8], 3
  0207b	8b 95 68 fd ff
	ff		 mov	 edx, DWORD PTR tv239[ebp]
  02081	52		 push	 edx
  02082	8b 8d 70 fd ff
	ff		 mov	 ecx, DWORD PTR _this$[ebp]
  02088	83 c1 30	 add	 ecx, 48			; 00000030H
  0208b	ff 15 00 00 00
	00		 call	 DWORD PTR __imp_??4?$CStringT@DV?$StrTraitMFC_DLL@DV?$ChTraitsCRT@D@ATL@@@@@ATL@@QAEAAV01@ABV01@@Z
  02091	c6 45 fc 00	 mov	 BYTE PTR __$EHRec$[ebp+8], 0
  02095	8d 8d 88 fd ff
	ff		 lea	 ecx, DWORD PTR $T205345[ebp]
  0209b	ff 15 00 00 00
	00		 call	 DWORD PTR __imp_??1?$CStringT@DV?$StrTraitMFC_DLL@DV?$ChTraitsCRT@D@ATL@@@@@ATL@@QAE@XZ

; 549  : 		//	pUserConfig->SetConfigStringValue( CONF_SETTING_MODULE_NAME, CONF_SETTING_SKIN_IDX, string(skinPath), true);
; 550  : 	}

  020a1	c7 45 fc ff ff
	ff ff		 mov	 DWORD PTR __$EHRec$[ebp+8], -1
  020a8	8d 8d c8 fd ff
	ff		 lea	 ecx, DWORD PTR _path$202692[ebp]
  020ae	ff 15 00 00 00
	00		 call	 DWORD PTR __imp_??1?$basic_string@DU?$char_traits@D@std@@V?$allocator@D@2@@std@@QAE@XZ
$L202690:

; 551  : 
; 552  : 	int	nPos = m_strSkinPath.TrimRight("\\").ReverseFind('\\');

  020b4	6a 5c		 push	 92			; 0000005cH
  020b6	68 00 00 00 00	 push	 OFFSET FLAT:$SG202699
  020bb	8b 8d 70 fd ff
	ff		 mov	 ecx, DWORD PTR _this$[ebp]
  020c1	83 c1 30	 add	 ecx, 48			; 00000030H
  020c4	ff 15 00 00 00
	00		 call	 DWORD PTR __imp_?TrimRight@?$CStringT@DV?$StrTraitMFC_DLL@DV?$ChTraitsCRT@D@ATL@@@@@ATL@@QAEAAV12@PBD@Z
  020ca	8b c8		 mov	 ecx, eax
  020cc	ff 15 00 00 00
	00		 call	 DWORD PTR __imp_?ReverseFind@?$CStringT@DV?$StrTraitMFC_DLL@DV?$ChTraitsCRT@D@ATL@@@@@ATL@@QBEHD@Z
  020d2	89 45 ec	 mov	 DWORD PTR _nPos$[ebp], eax

; 553  : 	CString name = m_strSkinPath.Tokenize("\\", nPos);

  020d5	8d 45 ec	 lea	 eax, DWORD PTR _nPos$[ebp]
  020d8	50		 push	 eax
  020d9	68 00 00 00 00	 push	 OFFSET FLAT:$SG202702
  020de	8d 4d f0	 lea	 ecx, DWORD PTR _name$[ebp]
  020e1	51		 push	 ecx
  020e2	8b 8d 70 fd ff
	ff		 mov	 ecx, DWORD PTR _this$[ebp]
  020e8	83 c1 30	 add	 ecx, 48			; 00000030H
  020eb	ff 15 00 00 00
	00		 call	 DWORD PTR __imp_?Tokenize@?$CStringT@DV?$StrTraitMFC_DLL@DV?$ChTraitsCRT@D@ATL@@@@@ATL@@QBE?AV12@PBDAAH@Z
  020f1	c7 45 fc 04 00
	00 00		 mov	 DWORD PTR __$EHRec$[ebp+8], 4

; 554  : 	if(!YL_FileInfo::IsValid(m_strSkinPath.Left(nPos) + "\\skin.dat"))

  020f8	8b 55 ec	 mov	 edx, DWORD PTR _nPos$[ebp]
  020fb	52		 push	 edx
  020fc	8d 85 80 fd ff
	ff		 lea	 eax, DWORD PTR $T205347[ebp]
  02102	50		 push	 eax
  02103	8b 8d 70 fd ff
	ff		 mov	 ecx, DWORD PTR _this$[ebp]
  02109	83 c1 30	 add	 ecx, 48			; 00000030H
  0210c	ff 15 00 00 00
	00		 call	 DWORD PTR __imp_?Left@?$CStringT@DV?$StrTraitMFC_DLL@DV?$ChTraitsCRT@D@ATL@@@@@ATL@@QBE?AV12@H@Z
  02112	89 85 64 fd ff
	ff		 mov	 DWORD PTR tv154[ebp], eax
  02118	8b 8d 64 fd ff
	ff		 mov	 ecx, DWORD PTR tv154[ebp]
  0211e	89 8d 60 fd ff
	ff		 mov	 DWORD PTR tv242[ebp], ecx
  02124	c6 45 fc 05	 mov	 BYTE PTR __$EHRec$[ebp+8], 5
  02128	68 00 00 00 00	 push	 OFFSET FLAT:$SG202707
  0212d	8b 95 60 fd ff
	ff		 mov	 edx, DWORD PTR tv242[ebp]
  02133	52		 push	 edx
  02134	8d 85 7c fd ff
	ff		 lea	 eax, DWORD PTR $T205348[ebp]
  0213a	50		 push	 eax
  0213b	e8 00 00 00 00	 call	 ??HATL@@YA?AV?$CStringT@DV?$StrTraitMFC_DLL@DV?$ChTraitsCRT@D@ATL@@@@@0@ABV10@PBD@Z ; ATL::operator+
  02140	83 c4 0c	 add	 esp, 12			; 0000000cH
  02143	89 85 5c fd ff
	ff		 mov	 DWORD PTR tv80[ebp], eax
  02149	8b 8d 5c fd ff
	ff		 mov	 ecx, DWORD PTR tv80[ebp]
  0214f	89 8d 58 fd ff
	ff		 mov	 DWORD PTR tv244[ebp], ecx
  02155	c6 45 fc 06	 mov	 BYTE PTR __$EHRec$[ebp+8], 6
  02159	8b 8d 58 fd ff
	ff		 mov	 ecx, DWORD PTR tv244[ebp]
  0215f	ff 15 00 00 00
	00		 call	 DWORD PTR __imp_??B?$CSimpleStringT@D$00@ATL@@QBEPBDXZ
  02165	50		 push	 eax
  02166	e8 00 00 00 00	 call	 ?IsValid@YL_FileInfo@@SA_NPBD@Z ; YL_FileInfo::IsValid
  0216b	83 c4 04	 add	 esp, 4
  0216e	0f b6 d0	 movzx	 edx, al
  02171	f7 da		 neg	 edx
  02173	1b d2		 sbb	 edx, edx
  02175	42		 inc	 edx
  02176	88 95 87 fd ff
	ff		 mov	 BYTE PTR $T205346[ebp], dl
  0217c	c6 45 fc 05	 mov	 BYTE PTR __$EHRec$[ebp+8], 5
  02180	8d 8d 7c fd ff
	ff		 lea	 ecx, DWORD PTR $T205348[ebp]
  02186	ff 15 00 00 00
	00		 call	 DWORD PTR __imp_??1?$CStringT@DV?$StrTraitMFC_DLL@DV?$ChTraitsCRT@D@ATL@@@@@ATL@@QAE@XZ
  0218c	c6 45 fc 04	 mov	 BYTE PTR __$EHRec$[ebp+8], 4
  02190	8d 8d 80 fd ff
	ff		 lea	 ecx, DWORD PTR $T205347[ebp]
  02196	ff 15 00 00 00
	00		 call	 DWORD PTR __imp_??1?$CStringT@DV?$StrTraitMFC_DLL@DV?$ChTraitsCRT@D@ATL@@@@@ATL@@QAE@XZ
  0219c	0f b6 85 87 fd
	ff ff		 movzx	 eax, BYTE PTR $T205346[ebp]
  021a3	85 c0		 test	 eax, eax
  021a5	74 05		 je	 SHORT $L202705

; 555  : 	{
; 556  : 
; 557  : 	}
; 558  : 	else

  021a7	e9 e6 00 00 00	 jmp	 $L202708
$L202705:

; 559  : 	{
; 560  : 		m_BaseColor = 0;

  021ac	8b 8d 70 fd ff
	ff		 mov	 ecx, DWORD PTR _this$[ebp]
  021b2	c7 41 24 00 00
	00 00		 mov	 DWORD PTR [ecx+36], 0

; 561  : 		if( mp_changeSkinEven.size() > 0 )

  021b9	8b 8d 70 fd ff
	ff		 mov	 ecx, DWORD PTR _this$[ebp]
  021bf	83 c1 34	 add	 ecx, 52			; 00000034H
  021c2	e8 00 00 00 00	 call	 ?size@?$vector@PAVIChangeSkinEventListener@@V?$allocator@PAVIChangeSkinEventListener@@@std@@@std@@QBEIXZ ; std::vector<IChangeSkinEventListener *,std::allocator<IChangeSkinEventListener *> >::size
  021c7	85 c0		 test	 eax, eax
  021c9	0f 86 c3 00 00
	00		 jbe	 $L202708

; 562  : 		{
; 563  : 			for(size_t idx = 0;idx < mp_changeSkinEven.size();idx++ )

  021cf	c7 85 c4 fd ff
	ff 00 00 00 00	 mov	 DWORD PTR _idx$202710[ebp], 0
  021d9	eb 0f		 jmp	 SHORT $L202711
$L202712:
  021db	8b 95 c4 fd ff
	ff		 mov	 edx, DWORD PTR _idx$202710[ebp]
  021e1	83 c2 01	 add	 edx, 1
  021e4	89 95 c4 fd ff
	ff		 mov	 DWORD PTR _idx$202710[ebp], edx
$L202711:
  021ea	8b 8d 70 fd ff
	ff		 mov	 ecx, DWORD PTR _this$[ebp]
  021f0	83 c1 34	 add	 ecx, 52			; 00000034H
  021f3	e8 00 00 00 00	 call	 ?size@?$vector@PAVIChangeSkinEventListener@@V?$allocator@PAVIChangeSkinEventListener@@@std@@@std@@QBEIXZ ; std::vector<IChangeSkinEventListener *,std::allocator<IChangeSkinEventListener *> >::size
  021f8	39 85 c4 fd ff
	ff		 cmp	 DWORD PTR _idx$202710[ebp], eax
  021fe	0f 83 8e 00 00
	00		 jae	 $L202708

; 564  : 			{
; 565  : 				mp_changeSkinEven[idx]->OnChangeSkinTemplate( m_strSkinPath,strSub);

  02204	51		 push	 ecx
  02205	8b cc		 mov	 ecx, esp
  02207	89 a5 78 fd ff
	ff		 mov	 DWORD PTR $T205349[ebp], esp
  0220d	8b 45 0c	 mov	 eax, DWORD PTR _strSub$[ebp]
  02210	50		 push	 eax
  02211	ff 15 00 00 00
	00		 call	 DWORD PTR __imp_??0?$CStringT@DV?$StrTraitMFC_DLL@DV?$ChTraitsCRT@D@ATL@@@@@ATL@@QAE@ABV01@@Z
  02217	89 85 54 fd ff
	ff		 mov	 DWORD PTR tv75[ebp], eax
  0221d	8b 8d 54 fd ff
	ff		 mov	 ecx, DWORD PTR tv75[ebp]
  02223	89 8d 50 fd ff
	ff		 mov	 DWORD PTR tv246[ebp], ecx
  02229	c6 45 fc 07	 mov	 BYTE PTR __$EHRec$[ebp+8], 7
  0222d	8b 95 70 fd ff
	ff		 mov	 edx, DWORD PTR _this$[ebp]
  02233	83 c2 30	 add	 edx, 48			; 00000030H
  02236	51		 push	 ecx
  02237	8b cc		 mov	 ecx, esp
  02239	89 a5 74 fd ff
	ff		 mov	 DWORD PTR $T205350[ebp], esp
  0223f	52		 push	 edx
  02240	ff 15 00 00 00
	00		 call	 DWORD PTR __imp_??0?$CStringT@DV?$StrTraitMFC_DLL@DV?$ChTraitsCRT@D@ATL@@@@@ATL@@QAE@ABV01@@Z
  02246	89 85 4c fd ff
	ff		 mov	 DWORD PTR tv250[ebp], eax
  0224c	8b 85 4c fd ff
	ff		 mov	 eax, DWORD PTR tv250[ebp]
  02252	89 85 48 fd ff
	ff		 mov	 DWORD PTR tv249[ebp], eax
  02258	c6 45 fc 08	 mov	 BYTE PTR __$EHRec$[ebp+8], 8
  0225c	8b 8d c4 fd ff
	ff		 mov	 ecx, DWORD PTR _idx$202710[ebp]
  02262	51		 push	 ecx
  02263	8b 8d 70 fd ff
	ff		 mov	 ecx, DWORD PTR _this$[ebp]
  02269	83 c1 34	 add	 ecx, 52			; 00000034H
  0226c	e8 00 00 00 00	 call	 ??A?$vector@PAVIChangeSkinEventListener@@V?$allocator@PAVIChangeSkinEventListener@@@std@@@std@@QAEAAPAVIChangeSkinEventListener@@I@Z ; std::vector<IChangeSkinEventListener *,std::allocator<IChangeSkinEventListener *> >::operator[]
  02271	8b 10		 mov	 edx, DWORD PTR [eax]
  02273	89 95 44 fd ff
	ff		 mov	 DWORD PTR tv203[ebp], edx
  02279	8b 85 44 fd ff
	ff		 mov	 eax, DWORD PTR tv203[ebp]
  0227f	8b 10		 mov	 edx, DWORD PTR [eax]
  02281	c6 45 fc 04	 mov	 BYTE PTR __$EHRec$[ebp+8], 4
  02285	8b 8d 44 fd ff
	ff		 mov	 ecx, DWORD PTR tv203[ebp]
  0228b	ff 12		 call	 DWORD PTR [edx]

; 566  : 			}

  0228d	e9 49 ff ff ff	 jmp	 $L202712
$L202708:

; 567  : 		}
; 568  : 	}
; 569  : }

  02292	c7 45 fc ff ff
	ff ff		 mov	 DWORD PTR __$EHRec$[ebp+8], -1
  02299	8d 4d f0	 lea	 ecx, DWORD PTR _name$[ebp]
  0229c	ff 15 00 00 00
	00		 call	 DWORD PTR __imp_??1?$CStringT@DV?$StrTraitMFC_DLL@DV?$ChTraitsCRT@D@ATL@@@@@ATL@@QAE@XZ
  022a2	8b 4d f4	 mov	 ecx, DWORD PTR __$EHRec$[ebp]
  022a5	64 89 0d 00 00
	00 00		 mov	 DWORD PTR fs:__except_list, ecx
  022ac	8b 4d e4	 mov	 ecx, DWORD PTR __$ArrayPad$[ebp]
  022af	e8 00 00 00 00	 call	 @__security_check_cookie@4
  022b4	8b e5		 mov	 esp, ebp
  022b6	5d		 pop	 ebp
  022b7	c2 08 00	 ret	 8
_TEXT	ENDS
text$x	SEGMENT
$L205351:
  0030b	8d 8d c8 fd ff
	ff		 lea	 ecx, DWORD PTR _path$202692[ebp]
  00311	ff 25 00 00 00
	00		 jmp	 DWORD PTR __imp_??1?$basic_string@DU?$char_traits@D@std@@V?$allocator@D@2@@std@@QAE@XZ
$L205352:
  00317	8d 8d a8 fd ff
	ff		 lea	 ecx, DWORD PTR $T205343[ebp]
  0031d	ff 25 00 00 00
	00		 jmp	 DWORD PTR __imp_??1?$basic_string@DU?$char_traits@D@std@@V?$allocator@D@2@@std@@QAE@XZ
$L205353:
  00323	8d 8d 8c fd ff
	ff		 lea	 ecx, DWORD PTR $T205344[ebp]
  00329	ff 25 00 00 00
	00		 jmp	 DWORD PTR __imp_??1?$basic_string@DU?$char_traits@D@std@@V?$allocator@D@2@@std@@QAE@XZ
$L205354:
  0032f	8d 8d 88 fd ff
	ff		 lea	 ecx, DWORD PTR $T205345[ebp]
  00335	ff 25 00 00 00
	00		 jmp	 DWORD PTR __imp_??1?$CStringT@DV?$StrTraitMFC_DLL@DV?$ChTraitsCRT@D@ATL@@@@@ATL@@QAE@XZ
$L205355:
  0033b	8d 4d f0	 lea	 ecx, DWORD PTR _name$[ebp]
  0033e	ff 25 00 00 00
	00		 jmp	 DWORD PTR __imp_??1?$CStringT@DV?$StrTraitMFC_DLL@DV?$ChTraitsCRT@D@ATL@@@@@ATL@@QAE@XZ
$L205356:
  00344	8d 8d 80 fd ff
	ff		 lea	 ecx, DWORD PTR $T205347[ebp]
  0034a	ff 25 00 00 00
	00		 jmp	 DWORD PTR __imp_??1?$CStringT@DV?$StrTraitMFC_DLL@DV?$ChTraitsCRT@D@ATL@@@@@ATL@@QAE@XZ
$L205357:
  00350	8d 8d 7c fd ff
	ff		 lea	 ecx, DWORD PTR $T205348[ebp]
  00356	ff 25 00 00 00
	00		 jmp	 DWORD PTR __imp_??1?$CStringT@DV?$StrTraitMFC_DLL@DV?$ChTraitsCRT@D@ATL@@@@@ATL@@QAE@XZ
$L205358:
  0035c	8b 8d 78 fd ff
	ff		 mov	 ecx, DWORD PTR $T205349[ebp]
  00362	ff 25 00 00 00
	00		 jmp	 DWORD PTR __imp_??1?$CStringT@DV?$StrTraitMFC_DLL@DV?$ChTraitsCRT@D@ATL@@@@@ATL@@QAE@XZ
$L205359:
  00368	8b 8d 74 fd ff
	ff		 mov	 ecx, DWORD PTR $T205350[ebp]
  0036e	ff 25 00 00 00
	00		 jmp	 DWORD PTR __imp_??1?$CStringT@DV?$StrTraitMFC_DLL@DV?$ChTraitsCRT@D@ATL@@@@@ATL@@QAE@XZ
__ehhandler$?OnChangeSkinAndSub@CSkinMgrV1@@UAEXABV?$CStringT@DV?$StrTraitMFC_DLL@DV?$ChTraitsCRT@D@ATL@@@@@ATL@@0@Z:
  00374	b8 00 00 00 00	 mov	 eax, OFFSET FLAT:$T205361
  00379	e9 00 00 00 00	 jmp	 ___CxxFrameHandler
text$x	ENDS
?OnChangeSkinAndSub@CSkinMgrV1@@UAEXABV?$CStringT@DV?$StrTraitMFC_DLL@DV?$ChTraitsCRT@D@ATL@@@@@ATL@@0@Z ENDP ; CSkinMgrV1::OnChangeSkinAndSub
EXTRN	?BeforeChangeColor@CBitMapOperate@@QAEXXZ:NEAR	; CBitMapOperate::BeforeChangeColor
; Function compile flags: /Odt
_TEXT	SEGMENT
_this$ = -4						; size = 4
?BeforeChangeColor@CSkinMgrV1@@UAEXXZ PROC NEAR		; CSkinMgrV1::BeforeChangeColor
; _this$ = ecx

; 572  : {

  022c0	55		 push	 ebp
  022c1	8b ec		 mov	 ebp, esp
  022c3	51		 push	 ecx
  022c4	89 4d fc	 mov	 DWORD PTR _this$[ebp], ecx

; 573  : 	gBitMapOperate.BeforeChangeColor();

  022c7	b9 00 00 00 00	 mov	 ecx, OFFSET FLAT:?gBitMapOperate@@3VCBitMapOperate@@A
  022cc	e8 00 00 00 00	 call	 ?BeforeChangeColor@CBitMapOperate@@QAEXXZ ; CBitMapOperate::BeforeChangeColor

; 574  : }

  022d1	8b e5		 mov	 esp, ebp
  022d3	5d		 pop	 ebp
  022d4	c3		 ret	 0
?BeforeChangeColor@CSkinMgrV1@@UAEXXZ ENDP		; CSkinMgrV1::BeforeChangeColor
_TEXT	ENDS
PUBLIC	?SetAdjustValue@CBitMapOperate@@QAEXH@Z		; CBitMapOperate::SetAdjustValue
EXTRN	?AfterChangeColor@CBitMapOperate@@QAEXXZ:NEAR	; CBitMapOperate::AfterChangeColor
; Function compile flags: /Odt
_TEXT	SEGMENT
_this$ = -4						; size = 4
?AfterChangeColor@CSkinMgrV1@@UAEXXZ PROC NEAR		; CSkinMgrV1::AfterChangeColor
; _this$ = ecx

; 576  : {

  022e0	55		 push	 ebp
  022e1	8b ec		 mov	 ebp, esp
  022e3	51		 push	 ecx
  022e4	89 4d fc	 mov	 DWORD PTR _this$[ebp], ecx

; 577  : 	gBitMapOperate.AfterChangeColor();

  022e7	b9 00 00 00 00	 mov	 ecx, OFFSET FLAT:?gBitMapOperate@@3VCBitMapOperate@@A
  022ec	e8 00 00 00 00	 call	 ?AfterChangeColor@CBitMapOperate@@QAEXXZ ; CBitMapOperate::AfterChangeColor

; 578  : 	gBitMapOperate.SetAdjustValue(m_nLightPos);

  022f1	8b 45 fc	 mov	 eax, DWORD PTR _this$[ebp]
  022f4	8b 48 30	 mov	 ecx, DWORD PTR [eax+48]
  022f7	51		 push	 ecx
  022f8	b9 00 00 00 00	 mov	 ecx, OFFSET FLAT:?gBitMapOperate@@3VCBitMapOperate@@A
  022fd	e8 00 00 00 00	 call	 ?SetAdjustValue@CBitMapOperate@@QAEXH@Z ; CBitMapOperate::SetAdjustValue

; 579  : }

  02302	8b e5		 mov	 esp, ebp
  02304	5d		 pop	 ebp
  02305	c3		 ret	 0
?AfterChangeColor@CSkinMgrV1@@UAEXXZ ENDP		; CSkinMgrV1::AfterChangeColor
; Function compile flags: /Odt
; File d:\boxgit\playbox\playbox\dev\prj\playbox\src\layoutmgr\changecolor\bitmapoperate.h
_TEXT	ENDS
;	COMDAT ?SetAdjustValue@CBitMapOperate@@QAEXH@Z
_TEXT	SEGMENT
_this$ = -4						; size = 4
_lastLightPos$ = 8					; size = 4
?SetAdjustValue@CBitMapOperate@@QAEXH@Z PROC NEAR	; CBitMapOperate::SetAdjustValue, COMDAT
; _this$ = ecx

; 35   : 	void SetAdjustValue(int lastLightPos){m_nLastLightPos = lastLightPos;};

  00000	55		 push	 ebp
  00001	8b ec		 mov	 ebp, esp
  00003	51		 push	 ecx
  00004	89 4d fc	 mov	 DWORD PTR _this$[ebp], ecx
  00007	8b 45 fc	 mov	 eax, DWORD PTR _this$[ebp]
  0000a	8b 4d 08	 mov	 ecx, DWORD PTR _lastLightPos$[ebp]
  0000d	89 48 18	 mov	 DWORD PTR [eax+24], ecx
  00010	8b e5		 mov	 esp, ebp
  00012	5d		 pop	 ebp
  00013	c2 04 00	 ret	 4
?SetAdjustValue@CBitMapOperate@@QAEXH@Z ENDP		; CBitMapOperate::SetAdjustValue
_TEXT	ENDS
PUBLIC	??BCRect@@QAEPAUtagRECT@@XZ			; CRect::operator tagRECT *
; Function compile flags: /Odt
; File d:\boxgit\playbox\playbox\dev\prj\playbox\src\layoutmgr\changecolor\ichangecolormgr.cpp
_TEXT	SEGMENT
tv143 = -52						; size = 4
tv138 = -48						; size = 4
tv180 = -44						; size = 4
_this$ = -40						; size = 4
$T205371 = -36						; size = 16
$T205370 = -20						; size = 4
_lClient$202729 = -16					; size = 16
?DownloadStart@CSkinMgrV1@@UAEXXZ PROC NEAR		; CSkinMgrV1::DownloadStart
; _this$ = ecx

; 581  : {	

  02310	55		 push	 ebp
  02311	8b ec		 mov	 ebp, esp
  02313	83 ec 34	 sub	 esp, 52			; 00000034H
  02316	89 4d d8	 mov	 DWORD PTR _this$[ebp], ecx

; 582  : 	if( !mp_skinWnd ) return;

  02319	8b 45 d8	 mov	 eax, DWORD PTR _this$[ebp]
  0231c	83 78 14 00	 cmp	 DWORD PTR [eax+20], 0
  02320	75 05		 jne	 SHORT $L202725
  02322	e9 0c 01 00 00	 jmp	 $L202724
$L202725:

; 583  : 	
; 584  : 
; 585  : 	if(mp_skinWnd != NULL)

  02327	8b 4d d8	 mov	 ecx, DWORD PTR _this$[ebp]
  0232a	83 79 14 00	 cmp	 DWORD PTR [ecx+20], 0
  0232e	74 1a		 je	 SHORT $L202726

; 586  : 	{
; 587  : 		mp_skinWnd->EnableSkinBtn( FALSE );

  02330	6a 00		 push	 0
  02332	8b 55 d8	 mov	 edx, DWORD PTR _this$[ebp]
  02335	8b 4a 14	 mov	 ecx, DWORD PTR [edx+20]
  02338	e8 00 00 00 00	 call	 ?EnableSkinBtn@CSkinWnd@@QAEXH@Z ; CSkinWnd::EnableSkinBtn

; 588  : 		mp_skinWnd->SetUseTip(false);

  0233d	6a 00		 push	 0
  0233f	8b 45 d8	 mov	 eax, DWORD PTR _this$[ebp]
  02342	8b 48 14	 mov	 ecx, DWORD PTR [eax+20]
  02345	e8 00 00 00 00	 call	 ?SetUseTip@CSkinWnd@@QAEX_N@Z ; CSkinWnd::SetUseTip
$L202726:

; 589  : 	}
; 590  : 	SetDownloadPercentage(0, m_strDownSkin);

  0234a	8b 4d d8	 mov	 ecx, DWORD PTR _this$[ebp]
  0234d	83 c1 58	 add	 ecx, 88			; 00000058H
  02350	51		 push	 ecx
  02351	8b d4		 mov	 edx, esp
  02353	89 65 ec	 mov	 DWORD PTR $T205370[ebp], esp
  02356	51		 push	 ecx
  02357	8b ca		 mov	 ecx, edx
  02359	ff 15 00 00 00
	00		 call	 DWORD PTR __imp_??0?$CStringT@DV?$StrTraitMFC_DLL@DV?$ChTraitsCRT@D@ATL@@@@@ATL@@QAE@ABV01@@Z
  0235f	89 45 d4	 mov	 DWORD PTR tv180[ebp], eax
  02362	6a 00		 push	 0
  02364	8b 45 d8	 mov	 eax, DWORD PTR _this$[ebp]
  02367	8b 10		 mov	 edx, DWORD PTR [eax]
  02369	8b 4d d8	 mov	 ecx, DWORD PTR _this$[ebp]
  0236c	ff 52 50	 call	 DWORD PTR [edx+80]

; 591  : 
; 592  : 	if( m_bShowSkinWnd )

  0236f	8b 45 d8	 mov	 eax, DWORD PTR _this$[ebp]
  02372	0f b6 48 64	 movzx	 ecx, BYTE PTR [eax+100]
  02376	85 c9		 test	 ecx, ecx
  02378	0f 84 b5 00 00
	00		 je	 $L202724

; 593  : 	{
; 594  : 		CRect lClient;

  0237e	8d 4d f0	 lea	 ecx, DWORD PTR _lClient$202729[ebp]
  02381	e8 00 00 00 00	 call	 ??0CRect@@QAE@XZ	; CRect::CRect

; 595  : 
; 596  : 		lClient.SetRect(3,235,297,285);

  02386	68 1d 01 00 00	 push	 285			; 0000011dH
  0238b	68 29 01 00 00	 push	 297			; 00000129H
  02390	68 eb 00 00 00	 push	 235			; 000000ebH
  02395	6a 03		 push	 3
  02397	8d 4d f0	 lea	 ecx, DWORD PTR _lClient$202729[ebp]
  0239a	e8 00 00 00 00	 call	 ?SetRect@CRect@@QAEXHHHH@Z ; CRect::SetRect

; 597  : 
; 598  : 		if( AfxGetUIManager()->UIGetLayoutMgr()->GetDisplayMode() == DISPLAY_SEPERATE_MODE )

  0239f	e8 00 00 00 00	 call	 ?AfxGetUIManager@@YAPAVIUIManager@@XZ ; AfxGetUIManager
  023a4	89 45 d0	 mov	 DWORD PTR tv138[ebp], eax
  023a7	8b 55 d0	 mov	 edx, DWORD PTR tv138[ebp]
  023aa	8b 02		 mov	 eax, DWORD PTR [edx]
  023ac	8b 4d d0	 mov	 ecx, DWORD PTR tv138[ebp]
  023af	ff 50 24	 call	 DWORD PTR [eax+36]
  023b2	89 45 cc	 mov	 DWORD PTR tv143[ebp], eax
  023b5	8b 4d cc	 mov	 ecx, DWORD PTR tv143[ebp]
  023b8	8b 11		 mov	 edx, DWORD PTR [ecx]
  023ba	8b 4d cc	 mov	 ecx, DWORD PTR tv143[ebp]
  023bd	ff 52 7c	 call	 DWORD PTR [edx+124]
  023c0	85 c0		 test	 eax, eax
  023c2	75 38		 jne	 SHORT $L202730

; 599  : 		{			
; 600  : 			mp_downloadSkin->MoveWindow( CRect( lClient.left,lClient.top,lClient.left+220,lClient.top+30) );

  023c4	6a 01		 push	 1
  023c6	8b 45 f4	 mov	 eax, DWORD PTR _lClient$202729[ebp+4]
  023c9	83 c0 1e	 add	 eax, 30			; 0000001eH
  023cc	50		 push	 eax
  023cd	8b 4d f0	 mov	 ecx, DWORD PTR _lClient$202729[ebp]
  023d0	81 c1 dc 00 00
	00		 add	 ecx, 220		; 000000dcH
  023d6	51		 push	 ecx
  023d7	8b 55 f4	 mov	 edx, DWORD PTR _lClient$202729[ebp+4]
  023da	52		 push	 edx
  023db	8b 45 f0	 mov	 eax, DWORD PTR _lClient$202729[ebp]
  023de	50		 push	 eax
  023df	8d 4d dc	 lea	 ecx, DWORD PTR $T205371[ebp]
  023e2	e8 00 00 00 00	 call	 ??0CRect@@QAE@HHHH@Z	; CRect::CRect
  023e7	8b c8		 mov	 ecx, eax
  023e9	e8 00 00 00 00	 call	 ??BCRect@@QAEPAUtagRECT@@XZ ; CRect::operator tagRECT *
  023ee	50		 push	 eax
  023ef	8b 4d d8	 mov	 ecx, DWORD PTR _this$[ebp]
  023f2	8b 49 20	 mov	 ecx, DWORD PTR [ecx+32]
  023f5	e8 00 00 00 00	 call	 ?MoveWindow@CWnd@@QAEXPBUtagRECT@@H@Z ; CWnd::MoveWindow

; 601  : 		}
; 602  : 		else

  023fa	eb 16		 jmp	 SHORT $L202732
$L202730:

; 603  : 		{		
; 604  : 			mp_downloadSkin->MoveWindow( lClient );

  023fc	6a 01		 push	 1
  023fe	8d 4d f0	 lea	 ecx, DWORD PTR _lClient$202729[ebp]
  02401	e8 00 00 00 00	 call	 ??BCRect@@QAEPAUtagRECT@@XZ ; CRect::operator tagRECT *
  02406	50		 push	 eax
  02407	8b 55 d8	 mov	 edx, DWORD PTR _this$[ebp]
  0240a	8b 4a 20	 mov	 ecx, DWORD PTR [edx+32]
  0240d	e8 00 00 00 00	 call	 ?MoveWindow@CWnd@@QAEXPBUtagRECT@@H@Z ; CWnd::MoveWindow
$L202732:

; 605  : 		}
; 606  : 		mp_downloadSkin->ShowWindow( SW_SHOW );

  02412	6a 05		 push	 5
  02414	8b 45 d8	 mov	 eax, DWORD PTR _this$[ebp]
  02417	8b 48 20	 mov	 ecx, DWORD PTR [eax+32]
  0241a	e8 00 00 00 00	 call	 ?ShowWindow@CWnd@@QAEHH@Z ; CWnd::ShowWindow

; 607  : 		mb_isDownSkin = true;

  0241f	8b 4d d8	 mov	 ecx, DWORD PTR _this$[ebp]
  02422	c6 41 49 01	 mov	 BYTE PTR [ecx+73], 1

; 608  : 
; 609  : 		mp_mainSkinWnd->ShowColorBtn( FALSE );

  02426	6a 00		 push	 0
  02428	8b 55 d8	 mov	 edx, DWORD PTR _this$[ebp]
  0242b	8b 4a 10	 mov	 ecx, DWORD PTR [edx+16]
  0242e	e8 00 00 00 00	 call	 ?ShowColorBtn@CMainSkinWnd@@QAEXH@Z ; CMainSkinWnd::ShowColorBtn
$L202724:

; 610  : 	}
; 611  : }

  02433	8b e5		 mov	 esp, ebp
  02435	5d		 pop	 ebp
  02436	c3		 ret	 0
?DownloadStart@CSkinMgrV1@@UAEXXZ ENDP			; CSkinMgrV1::DownloadStart
_TEXT	ENDS
PUBLIC	?IsWindowVisible@CWnd@@QBEHXZ			; CWnd::IsWindowVisible
EXTRN	__imp_?GetLength@?$CSimpleStringT@D$00@ATL@@QBEHXZ:NEAR
EXTRN	?SetDownloadHit@CDownloadPercentWnd@@QAEXV?$CStringT@DV?$StrTraitMFC_DLL@DV?$ChTraitsCRT@D@ATL@@@@@ATL@@@Z:NEAR ; CDownloadPercentWnd::SetDownloadHit
EXTRN	?SetDownloadPercent@CDownloadPercentWnd@@QAEXH@Z:NEAR ; CDownloadPercentWnd::SetDownloadPercent
xdata$x	SEGMENT
$T205381 DD	0ffffffffH
	DD	FLAT:$L205375
	DD	00H
	DD	FLAT:$L205376
$T205379 DD	019930520H
	DD	02H
	DD	FLAT:$T205381
	DD	2 DUP(00H)
	DD	2 DUP(00H)
; Function compile flags: /Odt
xdata$x	ENDS
_TEXT	SEGMENT
tv156 = -28						; size = 4
_this$ = -24						; size = 4
$T205374 = -20						; size = 4
_strHit$202743 = -16					; size = 4
__$EHRec$ = -12						; size = 12
_percentage$ = 8					; size = 4
_strSkinName$ = 12					; size = 4
?SetDownloadPercentage@CSkinMgrV1@@UAEXHV?$CStringT@DV?$StrTraitMFC_DLL@DV?$ChTraitsCRT@D@ATL@@@@@ATL@@@Z PROC NEAR ; CSkinMgrV1::SetDownloadPercentage
; _this$ = ecx

; 613  : {

  02440	55		 push	 ebp
  02441	8b ec		 mov	 ebp, esp
  02443	6a ff		 push	 -1
  02445	68 00 00 00 00	 push	 __ehhandler$?SetDownloadPercentage@CSkinMgrV1@@UAEXHV?$CStringT@DV?$StrTraitMFC_DLL@DV?$ChTraitsCRT@D@ATL@@@@@ATL@@@Z
  0244a	64 a1 00 00 00
	00		 mov	 eax, DWORD PTR fs:__except_list
  02450	50		 push	 eax
  02451	64 89 25 00 00
	00 00		 mov	 DWORD PTR fs:__except_list, esp
  02458	83 ec 10	 sub	 esp, 16			; 00000010H
  0245b	89 4d e8	 mov	 DWORD PTR _this$[ebp], ecx
  0245e	c7 45 fc 00 00
	00 00		 mov	 DWORD PTR __$EHRec$[ebp+8], 0

; 614  : 	if(mp_skinWnd == NULL || !::IsWindow(mp_skinWnd->m_hWnd))

  02465	8b 45 e8	 mov	 eax, DWORD PTR _this$[ebp]
  02468	83 78 14 00	 cmp	 DWORD PTR [eax+20], 0
  0246c	74 14		 je	 SHORT $L202739
  0246e	8b 4d e8	 mov	 ecx, DWORD PTR _this$[ebp]
  02471	8b 51 14	 mov	 edx, DWORD PTR [ecx+20]
  02474	8b 42 20	 mov	 eax, DWORD PTR [edx+32]
  02477	50		 push	 eax
  02478	ff 15 00 00 00
	00		 call	 DWORD PTR __imp__IsWindow@4
  0247e	85 c0		 test	 eax, eax
  02480	75 15		 jne	 SHORT $L202738
$L202739:

; 615  : 		return;

  02482	c7 45 fc ff ff
	ff ff		 mov	 DWORD PTR __$EHRec$[ebp+8], -1
  02489	8d 4d 0c	 lea	 ecx, DWORD PTR _strSkinName$[ebp]
  0248c	ff 15 00 00 00
	00		 call	 DWORD PTR __imp_??1?$CStringT@DV?$StrTraitMFC_DLL@DV?$ChTraitsCRT@D@ATL@@@@@ATL@@QAE@XZ
  02492	e9 b9 00 00 00	 jmp	 $L202737
$L202738:

; 616  : 
; 617  : 	if( m_bShowSkinWnd )

  02497	8b 4d e8	 mov	 ecx, DWORD PTR _this$[ebp]
  0249a	0f b6 51 64	 movzx	 edx, BYTE PTR [ecx+100]
  0249e	85 d2		 test	 edx, edx
  024a0	0f 84 9a 00 00
	00		 je	 $L202740

; 618  : 	{
; 619  : 		if( !mp_downloadSkin->IsWindowVisible() && mp_skinWnd->IsWindowVisible())

  024a6	8b 45 e8	 mov	 eax, DWORD PTR _this$[ebp]
  024a9	8b 48 20	 mov	 ecx, DWORD PTR [eax+32]
  024ac	e8 00 00 00 00	 call	 ?IsWindowVisible@CWnd@@QBEHXZ ; CWnd::IsWindowVisible
  024b1	85 c0		 test	 eax, eax
  024b3	75 1c		 jne	 SHORT $L202741
  024b5	8b 4d e8	 mov	 ecx, DWORD PTR _this$[ebp]
  024b8	8b 49 14	 mov	 ecx, DWORD PTR [ecx+20]
  024bb	e8 00 00 00 00	 call	 ?IsWindowVisible@CWnd@@QBEHXZ ; CWnd::IsWindowVisible
  024c0	85 c0		 test	 eax, eax
  024c2	74 0d		 je	 SHORT $L202741

; 620  : 			mp_downloadSkin->ShowWindow( SW_SHOW );

  024c4	6a 05		 push	 5
  024c6	8b 55 e8	 mov	 edx, DWORD PTR _this$[ebp]
  024c9	8b 4a 20	 mov	 ecx, DWORD PTR [edx+32]
  024cc	e8 00 00 00 00	 call	 ?ShowWindow@CWnd@@QAEHH@Z ; CWnd::ShowWindow
$L202741:

; 621  : 		if( strSkinName.GetLength() != 0 )

  024d1	8d 4d 0c	 lea	 ecx, DWORD PTR _strSkinName$[ebp]
  024d4	ff 15 00 00 00
	00		 call	 DWORD PTR __imp_?GetLength@?$CSimpleStringT@D$00@ATL@@QBEHXZ
  024da	85 c0		 test	 eax, eax
  024dc	74 53		 je	 SHORT $L202742

; 622  : 		{
; 623  : 			CString strHit = "";

  024de	68 00 00 00 00	 push	 OFFSET FLAT:$SG202744
  024e3	8d 4d f0	 lea	 ecx, DWORD PTR _strHit$202743[ebp]
  024e6	ff 15 00 00 00
	00		 call	 DWORD PTR __imp_??0?$CStringT@DV?$StrTraitMFC_DLL@DV?$ChTraitsCRT@D@ATL@@@@@ATL@@QAE@PBD@Z
  024ec	c6 45 fc 01	 mov	 BYTE PTR __$EHRec$[ebp+8], 1

; 624  : 			strHit.Format( " \"%s\" ",strSkinName );

  024f0	8b 45 0c	 mov	 eax, DWORD PTR _strSkinName$[ebp]
  024f3	50		 push	 eax
  024f4	68 00 00 00 00	 push	 OFFSET FLAT:$SG202745
  024f9	8d 4d f0	 lea	 ecx, DWORD PTR _strHit$202743[ebp]
  024fc	51		 push	 ecx
  024fd	ff 15 00 00 00
	00		 call	 DWORD PTR __imp_?Format@?$CStringT@DV?$StrTraitMFC_DLL@DV?$ChTraitsCRT@D@ATL@@@@@ATL@@QAAXPBDZZ
  02503	83 c4 0c	 add	 esp, 12			; 0000000cH

; 625  : 			mp_downloadSkin->SetDownloadHit( strHit );

  02506	51		 push	 ecx
  02507	8b cc		 mov	 ecx, esp
  02509	89 65 ec	 mov	 DWORD PTR $T205374[ebp], esp
  0250c	8d 55 f0	 lea	 edx, DWORD PTR _strHit$202743[ebp]
  0250f	52		 push	 edx
  02510	ff 15 00 00 00
	00		 call	 DWORD PTR __imp_??0?$CStringT@DV?$StrTraitMFC_DLL@DV?$ChTraitsCRT@D@ATL@@@@@ATL@@QAE@ABV01@@Z
  02516	89 45 e4	 mov	 DWORD PTR tv156[ebp], eax
  02519	8b 45 e8	 mov	 eax, DWORD PTR _this$[ebp]
  0251c	8b 48 20	 mov	 ecx, DWORD PTR [eax+32]
  0251f	e8 00 00 00 00	 call	 ?SetDownloadHit@CDownloadPercentWnd@@QAEXV?$CStringT@DV?$StrTraitMFC_DLL@DV?$ChTraitsCRT@D@ATL@@@@@ATL@@@Z ; CDownloadPercentWnd::SetDownloadHit

; 626  : 		}

  02524	c6 45 fc 00	 mov	 BYTE PTR __$EHRec$[ebp+8], 0
  02528	8d 4d f0	 lea	 ecx, DWORD PTR _strHit$202743[ebp]
  0252b	ff 15 00 00 00
	00		 call	 DWORD PTR __imp_??1?$CStringT@DV?$StrTraitMFC_DLL@DV?$ChTraitsCRT@D@ATL@@@@@ATL@@QAE@XZ
$L202742:

; 627  : 		mp_downloadSkin->SetDownloadPercent( percentage );

  02531	8b 4d 08	 mov	 ecx, DWORD PTR _percentage$[ebp]
  02534	51		 push	 ecx
  02535	8b 55 e8	 mov	 edx, DWORD PTR _this$[ebp]
  02538	8b 4a 20	 mov	 ecx, DWORD PTR [edx+32]
  0253b	e8 00 00 00 00	 call	 ?SetDownloadPercent@CDownloadPercentWnd@@QAEXH@Z ; CDownloadPercentWnd::SetDownloadPercent
$L202740:

; 628  : 	}
; 629  : }

  02540	c7 45 fc ff ff
	ff ff		 mov	 DWORD PTR __$EHRec$[ebp+8], -1
  02547	8d 4d 0c	 lea	 ecx, DWORD PTR _strSkinName$[ebp]
  0254a	ff 15 00 00 00
	00		 call	 DWORD PTR __imp_??1?$CStringT@DV?$StrTraitMFC_DLL@DV?$ChTraitsCRT@D@ATL@@@@@ATL@@QAE@XZ
$L202737:
  02550	8b 4d f4	 mov	 ecx, DWORD PTR __$EHRec$[ebp]
  02553	64 89 0d 00 00
	00 00		 mov	 DWORD PTR fs:__except_list, ecx
  0255a	8b e5		 mov	 esp, ebp
  0255c	5d		 pop	 ebp
  0255d	c2 08 00	 ret	 8
_TEXT	ENDS
text$x	SEGMENT
$L205375:
  0037e	8d 4d 0c	 lea	 ecx, DWORD PTR _strSkinName$[ebp]
  00381	ff 25 00 00 00
	00		 jmp	 DWORD PTR __imp_??1?$CStringT@DV?$StrTraitMFC_DLL@DV?$ChTraitsCRT@D@ATL@@@@@ATL@@QAE@XZ
$L205376:
  00387	8d 4d f0	 lea	 ecx, DWORD PTR _strHit$202743[ebp]
  0038a	ff 25 00 00 00
	00		 jmp	 DWORD PTR __imp_??1?$CStringT@DV?$StrTraitMFC_DLL@DV?$ChTraitsCRT@D@ATL@@@@@ATL@@QAE@XZ
__ehhandler$?SetDownloadPercentage@CSkinMgrV1@@UAEXHV?$CStringT@DV?$StrTraitMFC_DLL@DV?$ChTraitsCRT@D@ATL@@@@@ATL@@@Z:
  00390	b8 00 00 00 00	 mov	 eax, OFFSET FLAT:$T205379
  00395	e9 00 00 00 00	 jmp	 ___CxxFrameHandler
text$x	ENDS
?SetDownloadPercentage@CSkinMgrV1@@UAEXHV?$CStringT@DV?$StrTraitMFC_DLL@DV?$ChTraitsCRT@D@ATL@@@@@ATL@@@Z ENDP ; CSkinMgrV1::SetDownloadPercentage
EXTRN	??0YL_Ini@@QAE@PBD@Z:NEAR			; YL_Ini::YL_Ini
EXTRN	??1YL_Ini@@UAE@XZ:NEAR				; YL_Ini::~YL_Ini
EXTRN	?GetString@YL_Ini@@QBEKPBD0PADK0@Z:NEAR		; YL_Ini::GetString
EXTRN	?DownloadSkinFinish@CSkinWnd@@QAEXV?$CStringT@DV?$StrTraitMFC_DLL@DV?$ChTraitsCRT@D@ATL@@@@@ATL@@@Z:NEAR ; CSkinWnd::DownloadSkinFinish
xdata$x	SEGMENT
$T205405 DD	0ffffffffH
	DD	FLAT:$L205391
	DD	00H
	DD	FLAT:$L205393
	DD	01H
	DD	FLAT:$L205394
	DD	00H
	DD	FLAT:$L205394
	DD	03H
	DD	FLAT:$L205395
	DD	04H
	DD	FLAT:$L205396
	DD	05H
	DD	FLAT:$L205397
	DD	06H
	DD	FLAT:$L205398
	DD	03H
	DD	FLAT:$L205398
	DD	08H
	DD	FLAT:$L205397
	DD	09H
	DD	FLAT:$L205396
	DD	08H
	DD	FLAT:$L205399
$T205402 DD	019930520H
	DD	0cH
	DD	FLAT:$T205405
	DD	2 DUP(00H)
	DD	2 DUP(00H)
; Function compile flags: /Odt
xdata$x	ENDS
_TEXT	SEGMENT
tv223 = -236						; size = 4
tv220 = -232						; size = 4
tv147 = -228						; size = 4
tv217 = -224						; size = 4
tv227 = -220						; size = 4
tv215 = -216						; size = 4
tv226 = -212						; size = 4
tv213 = -208						; size = 4
tv134 = -204						; size = 4
tv210 = -200						; size = 4
tv225 = -196						; size = 4
tv208 = -192						; size = 4
_this$ = -188						; size = 4
$T205390 = -184						; size = 4
$T205389 = -180						; size = 4
$T205388 = -176						; size = 4
$T205387 = -172						; size = 4
$T205386 = -168						; size = 4
$T205385 = -164						; size = 4
$T205384 = -160						; size = 4
_ini$ = -156						; size = 8
_szAuthor$ = -148					; size = 128
__$ArrayPad$ = -20					; size = 4
_tips$ = -16						; size = 4
__$EHRec$ = -12						; size = 12
__$ReturnAddr$ = 4					; size = 4
_strSkinName$ = 8					; size = 4
?DownloadFinish@CSkinMgrV1@@UAEXV?$CStringT@DV?$StrTraitMFC_DLL@DV?$ChTraitsCRT@D@ATL@@@@@ATL@@@Z PROC NEAR ; CSkinMgrV1::DownloadFinish
; _this$ = ecx

; 631  : {

  02560	55		 push	 ebp
  02561	8b ec		 mov	 ebp, esp
  02563	6a ff		 push	 -1
  02565	68 00 00 00 00	 push	 __ehhandler$?DownloadFinish@CSkinMgrV1@@UAEXV?$CStringT@DV?$StrTraitMFC_DLL@DV?$ChTraitsCRT@D@ATL@@@@@ATL@@@Z
  0256a	64 a1 00 00 00
	00		 mov	 eax, DWORD PTR fs:__except_list
  02570	50		 push	 eax
  02571	64 89 25 00 00
	00 00		 mov	 DWORD PTR fs:__except_list, esp
  02578	81 ec e0 00 00
	00		 sub	 esp, 224		; 000000e0H
  0257e	a1 00 00 00 00	 mov	 eax, DWORD PTR ___security_cookie
  02583	89 45 ec	 mov	 DWORD PTR __$ArrayPad$[ebp], eax
  02586	89 8d 44 ff ff
	ff		 mov	 DWORD PTR _this$[ebp], ecx
  0258c	c7 45 fc 00 00
	00 00		 mov	 DWORD PTR __$EHRec$[ebp+8], 0

; 632  : 	if(mp_skinWnd == NULL || !::IsWindow(mp_skinWnd->m_hWnd))

  02593	8b 85 44 ff ff
	ff		 mov	 eax, DWORD PTR _this$[ebp]
  02599	83 78 14 00	 cmp	 DWORD PTR [eax+20], 0
  0259d	74 17		 je	 SHORT $L202752
  0259f	8b 8d 44 ff ff
	ff		 mov	 ecx, DWORD PTR _this$[ebp]
  025a5	8b 51 14	 mov	 edx, DWORD PTR [ecx+20]
  025a8	8b 42 20	 mov	 eax, DWORD PTR [edx+32]
  025ab	50		 push	 eax
  025ac	ff 15 00 00 00
	00		 call	 DWORD PTR __imp__IsWindow@4
  025b2	85 c0		 test	 eax, eax
  025b4	75 15		 jne	 SHORT $L202751
$L202752:

; 633  : 		return;

  025b6	c7 45 fc ff ff
	ff ff		 mov	 DWORD PTR __$EHRec$[ebp+8], -1
  025bd	8d 4d 08	 lea	 ecx, DWORD PTR _strSkinName$[ebp]
  025c0	ff 15 00 00 00
	00		 call	 DWORD PTR __imp_??1?$CStringT@DV?$StrTraitMFC_DLL@DV?$ChTraitsCRT@D@ATL@@@@@ATL@@QAE@XZ
  025c6	e9 30 02 00 00	 jmp	 $L202750
$L202751:

; 634  : 
; 635  : 	mp_skinWnd->EnableSkinBtn( TRUE );

  025cb	6a 01		 push	 1
  025cd	8b 8d 44 ff ff
	ff		 mov	 ecx, DWORD PTR _this$[ebp]
  025d3	8b 49 14	 mov	 ecx, DWORD PTR [ecx+20]
  025d6	e8 00 00 00 00	 call	 ?EnableSkinBtn@CSkinWnd@@QAEXH@Z ; CSkinWnd::EnableSkinBtn

; 636  : 	mp_skinWnd->DownloadSkinFinish( strSkinName );

  025db	51		 push	 ecx
  025dc	8b cc		 mov	 ecx, esp
  025de	89 a5 60 ff ff
	ff		 mov	 DWORD PTR $T205384[ebp], esp
  025e4	8d 55 08	 lea	 edx, DWORD PTR _strSkinName$[ebp]
  025e7	52		 push	 edx
  025e8	ff 15 00 00 00
	00		 call	 DWORD PTR __imp_??0?$CStringT@DV?$StrTraitMFC_DLL@DV?$ChTraitsCRT@D@ATL@@@@@ATL@@QAE@ABV01@@Z
  025ee	89 85 40 ff ff
	ff		 mov	 DWORD PTR tv208[ebp], eax
  025f4	8b 85 44 ff ff
	ff		 mov	 eax, DWORD PTR _this$[ebp]
  025fa	8b 48 14	 mov	 ecx, DWORD PTR [eax+20]
  025fd	e8 00 00 00 00	 call	 ?DownloadSkinFinish@CSkinWnd@@QAEXV?$CStringT@DV?$StrTraitMFC_DLL@DV?$ChTraitsCRT@D@ATL@@@@@ATL@@@Z ; CSkinWnd::DownloadSkinFinish

; 637  : 	mp_downloadSkin->ShowWindow( SW_HIDE );

  02602	6a 00		 push	 0
  02604	8b 8d 44 ff ff
	ff		 mov	 ecx, DWORD PTR _this$[ebp]
  0260a	8b 49 20	 mov	 ecx, DWORD PTR [ecx+32]
  0260d	e8 00 00 00 00	 call	 ?ShowWindow@CWnd@@QAEHH@Z ; CWnd::ShowWindow

; 638  : 	mp_mainSkinWnd->ShowColorBtn( TRUE );

  02612	6a 01		 push	 1
  02614	8b 95 44 ff ff
	ff		 mov	 edx, DWORD PTR _this$[ebp]
  0261a	8b 4a 10	 mov	 ecx, DWORD PTR [edx+16]
  0261d	e8 00 00 00 00	 call	 ?ShowColorBtn@CMainSkinWnd@@QAEXH@Z ; CMainSkinWnd::ShowColorBtn

; 639  : 
; 640  : 	//  tooltips
; 641  : 	char szAuthor[SRC_LENGTH];
; 642  : 	YL_Ini ini((LPCTSTR)(m_strSkinPath + "\\skin.ini"));

  02622	68 00 00 00 00	 push	 OFFSET FLAT:$SG202758
  02627	8b 85 44 ff ff
	ff		 mov	 eax, DWORD PTR _this$[ebp]
  0262d	83 c0 34	 add	 eax, 52			; 00000034H
  02630	50		 push	 eax
  02631	8d 8d 5c ff ff
	ff		 lea	 ecx, DWORD PTR $T205385[ebp]
  02637	51		 push	 ecx
  02638	e8 00 00 00 00	 call	 ??HATL@@YA?AV?$CStringT@DV?$StrTraitMFC_DLL@DV?$ChTraitsCRT@D@ATL@@@@@0@ABV10@PBD@Z ; ATL::operator+
  0263d	83 c4 0c	 add	 esp, 12			; 0000000cH
  02640	89 85 3c ff ff
	ff		 mov	 DWORD PTR tv225[ebp], eax
  02646	8b 95 3c ff ff
	ff		 mov	 edx, DWORD PTR tv225[ebp]
  0264c	89 95 38 ff ff
	ff		 mov	 DWORD PTR tv210[ebp], edx
  02652	c6 45 fc 01	 mov	 BYTE PTR __$EHRec$[ebp+8], 1
  02656	8b 8d 38 ff ff
	ff		 mov	 ecx, DWORD PTR tv210[ebp]
  0265c	ff 15 00 00 00
	00		 call	 DWORD PTR __imp_??B?$CSimpleStringT@D$00@ATL@@QBEPBDXZ
  02662	50		 push	 eax
  02663	8d 8d 64 ff ff
	ff		 lea	 ecx, DWORD PTR _ini$[ebp]
  02669	e8 00 00 00 00	 call	 ??0YL_Ini@@QAE@PBD@Z	; YL_Ini::YL_Ini
  0266e	c6 45 fc 03	 mov	 BYTE PTR __$EHRec$[ebp+8], 3
  02672	8d 8d 5c ff ff
	ff		 lea	 ecx, DWORD PTR $T205385[ebp]
  02678	ff 15 00 00 00
	00		 call	 DWORD PTR __imp_??1?$CStringT@DV?$StrTraitMFC_DLL@DV?$ChTraitsCRT@D@ATL@@@@@ATL@@QAE@XZ

; 643  : 	ini.GetString("skin", "author", szAuthor, SRC_LENGTH-1);

  0267e	6a 00		 push	 0
  02680	6a 7f		 push	 127			; 0000007fH
  02682	8d 85 6c ff ff
	ff		 lea	 eax, DWORD PTR _szAuthor$[ebp]
  02688	50		 push	 eax
  02689	68 00 00 00 00	 push	 OFFSET FLAT:$SG202759
  0268e	68 00 00 00 00	 push	 OFFSET FLAT:$SG202760
  02693	8d 8d 64 ff ff
	ff		 lea	 ecx, DWORD PTR _ini$[ebp]
  02699	e8 00 00 00 00	 call	 ?GetString@YL_Ini@@QBEKPBD0PADK0@Z ; YL_Ini::GetString

; 644  : 	CString tips = ": " + strSkinName + "\r\n: " + szAuthor + "\r\n: ";

  0269e	8d 4d 08	 lea	 ecx, DWORD PTR _strSkinName$[ebp]
  026a1	51		 push	 ecx
  026a2	68 00 00 00 00	 push	 OFFSET FLAT:$SG202768
  026a7	8d 95 58 ff ff
	ff		 lea	 edx, DWORD PTR $T205386[ebp]
  026ad	52		 push	 edx
  026ae	e8 00 00 00 00	 call	 ??HATL@@YA?AV?$CStringT@DV?$StrTraitMFC_DLL@DV?$ChTraitsCRT@D@ATL@@@@@0@PBDABV10@@Z ; ATL::operator+
  026b3	83 c4 0c	 add	 esp, 12			; 0000000cH
  026b6	89 85 34 ff ff
	ff		 mov	 DWORD PTR tv134[ebp], eax
  026bc	8b 85 34 ff ff
	ff		 mov	 eax, DWORD PTR tv134[ebp]
  026c2	89 85 30 ff ff
	ff		 mov	 DWORD PTR tv213[ebp], eax
  026c8	c6 45 fc 04	 mov	 BYTE PTR __$EHRec$[ebp+8], 4
  026cc	68 00 00 00 00	 push	 OFFSET FLAT:$SG202767
  026d1	8b 8d 30 ff ff
	ff		 mov	 ecx, DWORD PTR tv213[ebp]
  026d7	51		 push	 ecx
  026d8	8d 95 54 ff ff
	ff		 lea	 edx, DWORD PTR $T205387[ebp]
  026de	52		 push	 edx
  026df	e8 00 00 00 00	 call	 ??HATL@@YA?AV?$CStringT@DV?$StrTraitMFC_DLL@DV?$ChTraitsCRT@D@ATL@@@@@0@ABV10@PBD@Z ; ATL::operator+
  026e4	83 c4 0c	 add	 esp, 12			; 0000000cH
  026e7	89 85 2c ff ff
	ff		 mov	 DWORD PTR tv226[ebp], eax
  026ed	8b 85 2c ff ff
	ff		 mov	 eax, DWORD PTR tv226[ebp]
  026f3	89 85 28 ff ff
	ff		 mov	 DWORD PTR tv215[ebp], eax
  026f9	c6 45 fc 05	 mov	 BYTE PTR __$EHRec$[ebp+8], 5
  026fd	8d 8d 6c ff ff
	ff		 lea	 ecx, DWORD PTR _szAuthor$[ebp]
  02703	51		 push	 ecx
  02704	8b 95 28 ff ff
	ff		 mov	 edx, DWORD PTR tv215[ebp]
  0270a	52		 push	 edx
  0270b	8d 85 50 ff ff
	ff		 lea	 eax, DWORD PTR $T205388[ebp]
  02711	50		 push	 eax
  02712	e8 00 00 00 00	 call	 ??HATL@@YA?AV?$CStringT@DV?$StrTraitMFC_DLL@DV?$ChTraitsCRT@D@ATL@@@@@0@ABV10@PBD@Z ; ATL::operator+
  02717	83 c4 0c	 add	 esp, 12			; 0000000cH
  0271a	89 85 24 ff ff
	ff		 mov	 DWORD PTR tv227[ebp], eax
  02720	8b 8d 24 ff ff
	ff		 mov	 ecx, DWORD PTR tv227[ebp]
  02726	89 8d 20 ff ff
	ff		 mov	 DWORD PTR tv217[ebp], ecx
  0272c	c6 45 fc 06	 mov	 BYTE PTR __$EHRec$[ebp+8], 6
  02730	68 00 00 00 00	 push	 OFFSET FLAT:$SG202766
  02735	8b 95 20 ff ff
	ff		 mov	 edx, DWORD PTR tv217[ebp]
  0273b	52		 push	 edx
  0273c	8d 45 f0	 lea	 eax, DWORD PTR _tips$[ebp]
  0273f	50		 push	 eax
  02740	e8 00 00 00 00	 call	 ??HATL@@YA?AV?$CStringT@DV?$StrTraitMFC_DLL@DV?$ChTraitsCRT@D@ATL@@@@@0@ABV10@PBD@Z ; ATL::operator+
  02745	83 c4 0c	 add	 esp, 12			; 0000000cH
  02748	c6 45 fc 0a	 mov	 BYTE PTR __$EHRec$[ebp+8], 10 ; 0000000aH
  0274c	8d 8d 50 ff ff
	ff		 lea	 ecx, DWORD PTR $T205388[ebp]
  02752	ff 15 00 00 00
	00		 call	 DWORD PTR __imp_??1?$CStringT@DV?$StrTraitMFC_DLL@DV?$ChTraitsCRT@D@ATL@@@@@ATL@@QAE@XZ
  02758	c6 45 fc 09	 mov	 BYTE PTR __$EHRec$[ebp+8], 9
  0275c	8d 8d 54 ff ff
	ff		 lea	 ecx, DWORD PTR $T205387[ebp]
  02762	ff 15 00 00 00
	00		 call	 DWORD PTR __imp_??1?$CStringT@DV?$StrTraitMFC_DLL@DV?$ChTraitsCRT@D@ATL@@@@@ATL@@QAE@XZ
  02768	c6 45 fc 08	 mov	 BYTE PTR __$EHRec$[ebp+8], 8
  0276c	8d 8d 58 ff ff
	ff		 lea	 ecx, DWORD PTR $T205386[ebp]
  02772	ff 15 00 00 00
	00		 call	 DWORD PTR __imp_??1?$CStringT@DV?$StrTraitMFC_DLL@DV?$ChTraitsCRT@D@ATL@@@@@ATL@@QAE@XZ

; 645  : 	SetTipText(strSkinName, tips);

  02778	51		 push	 ecx
  02779	8b cc		 mov	 ecx, esp
  0277b	89 a5 4c ff ff
	ff		 mov	 DWORD PTR $T205389[ebp], esp
  02781	8d 55 f0	 lea	 edx, DWORD PTR _tips$[ebp]
  02784	52		 push	 edx
  02785	ff 15 00 00 00
	00		 call	 DWORD PTR __imp_??0?$CStringT@DV?$StrTraitMFC_DLL@DV?$ChTraitsCRT@D@ATL@@@@@ATL@@QAE@ABV01@@Z
  0278b	89 85 1c ff ff
	ff		 mov	 DWORD PTR tv147[ebp], eax
  02791	8b 85 1c ff ff
	ff		 mov	 eax, DWORD PTR tv147[ebp]
  02797	89 85 18 ff ff
	ff		 mov	 DWORD PTR tv220[ebp], eax
  0279d	c6 45 fc 0b	 mov	 BYTE PTR __$EHRec$[ebp+8], 11 ; 0000000bH
  027a1	51		 push	 ecx
  027a2	8b cc		 mov	 ecx, esp
  027a4	89 a5 48 ff ff
	ff		 mov	 DWORD PTR $T205390[ebp], esp
  027aa	8d 55 08	 lea	 edx, DWORD PTR _strSkinName$[ebp]
  027ad	52		 push	 edx
  027ae	ff 15 00 00 00
	00		 call	 DWORD PTR __imp_??0?$CStringT@DV?$StrTraitMFC_DLL@DV?$ChTraitsCRT@D@ATL@@@@@ATL@@QAE@ABV01@@Z
  027b4	89 85 14 ff ff
	ff		 mov	 DWORD PTR tv223[ebp], eax
  027ba	8b 85 44 ff ff
	ff		 mov	 eax, DWORD PTR _this$[ebp]
  027c0	8b 10		 mov	 edx, DWORD PTR [eax]
  027c2	c6 45 fc 08	 mov	 BYTE PTR __$EHRec$[ebp+8], 8
  027c6	8b 8d 44 ff ff
	ff		 mov	 ecx, DWORD PTR _this$[ebp]
  027cc	ff 52 28	 call	 DWORD PTR [edx+40]

; 646  : }

  027cf	c6 45 fc 03	 mov	 BYTE PTR __$EHRec$[ebp+8], 3
  027d3	8d 4d f0	 lea	 ecx, DWORD PTR _tips$[ebp]
  027d6	ff 15 00 00 00
	00		 call	 DWORD PTR __imp_??1?$CStringT@DV?$StrTraitMFC_DLL@DV?$ChTraitsCRT@D@ATL@@@@@ATL@@QAE@XZ
  027dc	c6 45 fc 00	 mov	 BYTE PTR __$EHRec$[ebp+8], 0
  027e0	8d 8d 64 ff ff
	ff		 lea	 ecx, DWORD PTR _ini$[ebp]
  027e6	e8 00 00 00 00	 call	 ??1YL_Ini@@UAE@XZ	; YL_Ini::~YL_Ini
  027eb	c7 45 fc ff ff
	ff ff		 mov	 DWORD PTR __$EHRec$[ebp+8], -1
  027f2	8d 4d 08	 lea	 ecx, DWORD PTR _strSkinName$[ebp]
  027f5	ff 15 00 00 00
	00		 call	 DWORD PTR __imp_??1?$CStringT@DV?$StrTraitMFC_DLL@DV?$ChTraitsCRT@D@ATL@@@@@ATL@@QAE@XZ
$L202750:
  027fb	8b 4d f4	 mov	 ecx, DWORD PTR __$EHRec$[ebp]
  027fe	64 89 0d 00 00
	00 00		 mov	 DWORD PTR fs:__except_list, ecx
  02805	8b 4d ec	 mov	 ecx, DWORD PTR __$ArrayPad$[ebp]
  02808	e8 00 00 00 00	 call	 @__security_check_cookie@4
  0280d	8b e5		 mov	 esp, ebp
  0280f	5d		 pop	 ebp
  02810	c2 04 00	 ret	 4
_TEXT	ENDS
text$x	SEGMENT
$L205391:
  0039a	8d 4d 08	 lea	 ecx, DWORD PTR _strSkinName$[ebp]
  0039d	ff 25 00 00 00
	00		 jmp	 DWORD PTR __imp_??1?$CStringT@DV?$StrTraitMFC_DLL@DV?$ChTraitsCRT@D@ATL@@@@@ATL@@QAE@XZ
$L205393:
  003a3	8d 8d 5c ff ff
	ff		 lea	 ecx, DWORD PTR $T205385[ebp]
  003a9	ff 25 00 00 00
	00		 jmp	 DWORD PTR __imp_??1?$CStringT@DV?$StrTraitMFC_DLL@DV?$ChTraitsCRT@D@ATL@@@@@ATL@@QAE@XZ
$L205394:
  003af	8d 8d 64 ff ff
	ff		 lea	 ecx, DWORD PTR _ini$[ebp]
  003b5	e9 00 00 00 00	 jmp	 ??1YL_Ini@@UAE@XZ	; YL_Ini::~YL_Ini
$L205395:
  003ba	8d 8d 58 ff ff
	ff		 lea	 ecx, DWORD PTR $T205386[ebp]
  003c0	ff 25 00 00 00
	00		 jmp	 DWORD PTR __imp_??1?$CStringT@DV?$StrTraitMFC_DLL@DV?$ChTraitsCRT@D@ATL@@@@@ATL@@QAE@XZ
$L205396:
  003c6	8d 8d 54 ff ff
	ff		 lea	 ecx, DWORD PTR $T205387[ebp]
  003cc	ff 25 00 00 00
	00		 jmp	 DWORD PTR __imp_??1?$CStringT@DV?$StrTraitMFC_DLL@DV?$ChTraitsCRT@D@ATL@@@@@ATL@@QAE@XZ
$L205397:
  003d2	8d 8d 50 ff ff
	ff		 lea	 ecx, DWORD PTR $T205388[ebp]
  003d8	ff 25 00 00 00
	00		 jmp	 DWORD PTR __imp_??1?$CStringT@DV?$StrTraitMFC_DLL@DV?$ChTraitsCRT@D@ATL@@@@@ATL@@QAE@XZ
$L205398:
  003de	8d 4d f0	 lea	 ecx, DWORD PTR _tips$[ebp]
  003e1	ff 25 00 00 00
	00		 jmp	 DWORD PTR __imp_??1?$CStringT@DV?$StrTraitMFC_DLL@DV?$ChTraitsCRT@D@ATL@@@@@ATL@@QAE@XZ
$L205399:
  003e7	8b 8d 4c ff ff
	ff		 mov	 ecx, DWORD PTR $T205389[ebp]
  003ed	ff 25 00 00 00
	00		 jmp	 DWORD PTR __imp_??1?$CStringT@DV?$StrTraitMFC_DLL@DV?$ChTraitsCRT@D@ATL@@@@@ATL@@QAE@XZ
__ehhandler$?DownloadFinish@CSkinMgrV1@@UAEXV?$CStringT@DV?$StrTraitMFC_DLL@DV?$ChTraitsCRT@D@ATL@@@@@ATL@@@Z:
  003f3	b8 00 00 00 00	 mov	 eax, OFFSET FLAT:$T205402
  003f8	e9 00 00 00 00	 jmp	 ___CxxFrameHandler
text$x	ENDS
?DownloadFinish@CSkinMgrV1@@UAEXV?$CStringT@DV?$StrTraitMFC_DLL@DV?$ChTraitsCRT@D@ATL@@@@@ATL@@@Z ENDP ; CSkinMgrV1::DownloadFinish
PUBLIC	?P2POb_DownStart@CSkinMgrV1@@QAEXABUSign@@PBDI@Z ; CSkinMgrV1::P2POb_DownStart
EXTRN	__imp__EnterCriticalSection@4:NEAR
EXTRN	__imp__LeaveCriticalSection@4:NEAR
xdata$x	SEGMENT
$T205416 DD	0ffffffffH
	DD	FLAT:$L205411
	DD	00H
	DD	FLAT:$L205412
$T205414 DD	019930520H
	DD	02H
	DD	FLAT:$T205416
	DD	2 DUP(00H)
	DD	2 DUP(00H)
; Function compile flags: /Odt
xdata$x	ENDS
_TEXT	SEGMENT
tv145 = -80						; size = 4
_this$ = -76						; size = 4
$T205409 = -72						; size = 28
$T205408 = -44						; size = 28
$T205407 = -16						; size = 4
__$EHRec$ = -12						; size = 12
_sign$ = 8						; size = 4
_lpszFilePath$ = 12					; size = 4
_unFileSize$ = 16					; size = 4
?P2POb_DownStart@CSkinMgrV1@@QAEXABUSign@@PBDI@Z PROC NEAR ; CSkinMgrV1::P2POb_DownStart
; _this$ = ecx

; 649  : {

  02820	55		 push	 ebp
  02821	8b ec		 mov	 ebp, esp
  02823	6a ff		 push	 -1
  02825	68 00 00 00 00	 push	 __ehhandler$?P2POb_DownStart@CSkinMgrV1@@QAEXABUSign@@PBDI@Z
  0282a	64 a1 00 00 00
	00		 mov	 eax, DWORD PTR fs:__except_list
  02830	50		 push	 eax
  02831	64 89 25 00 00
	00 00		 mov	 DWORD PTR fs:__except_list, esp
  02838	83 ec 44	 sub	 esp, 68			; 00000044H
  0283b	89 4d b4	 mov	 DWORD PTR _this$[ebp], ecx

; 650  : EnterCriticalSection( &m_csDownInfo );

  0283e	8b 45 b4	 mov	 eax, DWORD PTR _this$[ebp]
  02841	83 c0 68	 add	 eax, 104		; 00000068H
  02844	50		 push	 eax
  02845	ff 15 00 00 00
	00		 call	 DWORD PTR __imp__EnterCriticalSection@4

; 651  : 	if( !mb_HasPopWnd )

  0284b	8b 4d b4	 mov	 ecx, DWORD PTR _this$[ebp]
  0284e	0f b6 51 48	 movzx	 edx, BYTE PTR [ecx+72]
  02852	85 d2		 test	 edx, edx
  02854	75 12		 jne	 SHORT $L202777

; 652  : 	{
; 653  : 		LeaveCriticalSection( &m_csDownInfo );

  02856	8b 45 b4	 mov	 eax, DWORD PTR _this$[ebp]
  02859	83 c0 68	 add	 eax, 104		; 00000068H
  0285c	50		 push	 eax
  0285d	ff 15 00 00 00
	00		 call	 DWORD PTR __imp__LeaveCriticalSection@4

; 654  : 		return;

  02863	e9 b2 00 00 00	 jmp	 $L202776
$L202777:

; 655  : 	}
; 656  : 	m_strDownPath = lpszFilePath;

  02868	8b 4d 0c	 mov	 ecx, DWORD PTR _lpszFilePath$[ebp]
  0286b	51		 push	 ecx
  0286c	8b 4d b4	 mov	 ecx, DWORD PTR _this$[ebp]
  0286f	83 c1 5c	 add	 ecx, 92			; 0000005cH
  02872	ff 15 00 00 00
	00		 call	 DWORD PTR __imp_??4?$CStringT@DV?$StrTraitMFC_DLL@DV?$ChTraitsCRT@D@ATL@@@@@ATL@@QAEAAV01@PBD@Z

; 657  : 	SetDownloadPercentage(0, m_strDownSkin);

  02878	8b 55 b4	 mov	 edx, DWORD PTR _this$[ebp]
  0287b	83 c2 58	 add	 edx, 88			; 00000058H
  0287e	51		 push	 ecx
  0287f	8b cc		 mov	 ecx, esp
  02881	89 65 f0	 mov	 DWORD PTR $T205407[ebp], esp
  02884	52		 push	 edx
  02885	ff 15 00 00 00
	00		 call	 DWORD PTR __imp_??0?$CStringT@DV?$StrTraitMFC_DLL@DV?$ChTraitsCRT@D@ATL@@@@@ATL@@QAE@ABV01@@Z
  0288b	89 45 b0	 mov	 DWORD PTR tv145[ebp], eax
  0288e	6a 00		 push	 0
  02890	8b 45 b4	 mov	 eax, DWORD PTR _this$[ebp]
  02893	8b 10		 mov	 edx, DWORD PTR [eax]
  02895	8b 4d b4	 mov	 ecx, DWORD PTR _this$[ebp]
  02898	ff 52 50	 call	 DWORD PTR [edx+80]

; 658  : 	mb_isDownSkin = true;

  0289b	8b 45 b4	 mov	 eax, DWORD PTR _this$[ebp]
  0289e	c6 40 49 01	 mov	 BYTE PTR [eax+73], 1

; 659  : 	if(mp_skinWnd != NULL)

  028a2	8b 4d b4	 mov	 ecx, DWORD PTR _this$[ebp]
  028a5	83 79 14 00	 cmp	 DWORD PTR [ecx+20], 0
  028a9	74 0d		 je	 SHORT $L202779

; 660  : 		mp_skinWnd->SetUseTip(false);

  028ab	6a 00		 push	 0
  028ad	8b 55 b4	 mov	 edx, DWORD PTR _this$[ebp]
  028b0	8b 4a 14	 mov	 ecx, DWORD PTR [edx+20]
  028b3	e8 00 00 00 00	 call	 ?SetUseTip@CSkinWnd@@QAEX_N@Z ; CSkinWnd::SetUseTip
$L202779:

; 661  : 	LogUserActMsg( "HANDLE_SKIN", "S:DOWN_START" );

  028b8	68 00 00 00 00	 push	 OFFSET FLAT:$SG202782
  028bd	8d 4d d4	 lea	 ecx, DWORD PTR $T205408[ebp]
  028c0	ff 15 00 00 00
	00		 call	 DWORD PTR __imp_??0?$basic_string@DU?$char_traits@D@std@@V?$allocator@D@2@@std@@QAE@PBD@Z
  028c6	c7 45 fc 00 00
	00 00		 mov	 DWORD PTR __$EHRec$[ebp+8], 0
  028cd	68 00 00 00 00	 push	 OFFSET FLAT:$SG202783
  028d2	8d 4d b8	 lea	 ecx, DWORD PTR $T205409[ebp]
  028d5	ff 15 00 00 00
	00		 call	 DWORD PTR __imp_??0?$basic_string@DU?$char_traits@D@std@@V?$allocator@D@2@@std@@QAE@PBD@Z
  028db	c6 45 fc 01	 mov	 BYTE PTR __$EHRec$[ebp+8], 1
  028df	8d 45 d4	 lea	 eax, DWORD PTR $T205408[ebp]
  028e2	50		 push	 eax
  028e3	8d 4d b8	 lea	 ecx, DWORD PTR $T205409[ebp]
  028e6	51		 push	 ecx
  028e7	ff 15 00 00 00
	00		 call	 DWORD PTR __imp_?LogUserActMsg@@YAXABV?$basic_string@DU?$char_traits@D@std@@V?$allocator@D@2@@std@@0@Z
  028ed	83 c4 08	 add	 esp, 8
  028f0	c6 45 fc 00	 mov	 BYTE PTR __$EHRec$[ebp+8], 0
  028f4	8d 4d b8	 lea	 ecx, DWORD PTR $T205409[ebp]
  028f7	ff 15 00 00 00
	00		 call	 DWORD PTR __imp_??1?$basic_string@DU?$char_traits@D@std@@V?$allocator@D@2@@std@@QAE@XZ
  028fd	c7 45 fc ff ff
	ff ff		 mov	 DWORD PTR __$EHRec$[ebp+8], -1
  02904	8d 4d d4	 lea	 ecx, DWORD PTR $T205408[ebp]
  02907	ff 15 00 00 00
	00		 call	 DWORD PTR __imp_??1?$basic_string@DU?$char_traits@D@std@@V?$allocator@D@2@@std@@QAE@XZ

; 662  : LeaveCriticalSection( &m_csDownInfo );

  0290d	8b 55 b4	 mov	 edx, DWORD PTR _this$[ebp]
  02910	83 c2 68	 add	 edx, 104		; 00000068H
  02913	52		 push	 edx
  02914	ff 15 00 00 00
	00		 call	 DWORD PTR __imp__LeaveCriticalSection@4
$L202776:

; 663  : 
; 664  : }

  0291a	8b 4d f4	 mov	 ecx, DWORD PTR __$EHRec$[ebp]
  0291d	64 89 0d 00 00
	00 00		 mov	 DWORD PTR fs:__except_list, ecx
  02924	8b e5		 mov	 esp, ebp
  02926	5d		 pop	 ebp
  02927	c2 0c 00	 ret	 12			; 0000000cH
_TEXT	ENDS
text$x	SEGMENT
$L205411:
  003fd	8d 4d d4	 lea	 ecx, DWORD PTR $T205408[ebp]
  00400	ff 25 00 00 00
	00		 jmp	 DWORD PTR __imp_??1?$basic_string@DU?$char_traits@D@std@@V?$allocator@D@2@@std@@QAE@XZ
$L205412:
  00406	8d 4d b8	 lea	 ecx, DWORD PTR $T205409[ebp]
  00409	ff 25 00 00 00
	00		 jmp	 DWORD PTR __imp_??1?$basic_string@DU?$char_traits@D@std@@V?$allocator@D@2@@std@@QAE@XZ
__ehhandler$?P2POb_DownStart@CSkinMgrV1@@QAEXABUSign@@PBDI@Z:
  0040f	b8 00 00 00 00	 mov	 eax, OFFSET FLAT:$T205414
  00414	e9 00 00 00 00	 jmp	 ___CxxFrameHandler
text$x	ENDS
?P2POb_DownStart@CSkinMgrV1@@QAEXABUSign@@PBDI@Z ENDP	; CSkinMgrV1::P2POb_DownStart
PUBLIC	??0?$vector@V?$basic_string@DU?$char_traits@D@std@@V?$allocator@D@2@@std@@V?$allocator@V?$basic_string@DU?$char_traits@D@std@@V?$allocator@D@2@@std@@@2@@std@@QAE@XZ ; std::vector<std::basic_string<char,std::char_traits<char>,std::allocator<char> >,std::allocator<std::basic_string<char,std::char_traits<char>,std::allocator<char> > > >::vector<std::basic_string<char,std::char_traits<char>,std::allocator<char> >,std::allocator<std::basic_string<char,std::char_traits<char>,std::allocator<char> > > >
PUBLIC	?P2POb_DownFinish@CSkinMgrV1@@QAEXABUSign@@@Z	; CSkinMgrV1::P2POb_DownFinish
PUBLIC	??1?$vector@V?$basic_string@DU?$char_traits@D@std@@V?$allocator@D@2@@std@@V?$allocator@V?$basic_string@DU?$char_traits@D@std@@V?$allocator@D@2@@std@@@2@@std@@QAE@XZ ; std::vector<std::basic_string<char,std::char_traits<char>,std::allocator<char> >,std::allocator<std::basic_string<char,std::char_traits<char>,std::allocator<char> > > >::~vector<std::basic_string<char,std::char_traits<char>,std::allocator<char> >,std::allocator<std::basic_string<char,std::char_traits<char>,std::allocator<char> > > >
PUBLIC	?AfxGetApp@@YGPAVCWinApp@@XZ			; AfxGetApp
EXTRN	__imp__SendMessageA@16:NEAR
EXTRN	__imp_?UnCompress@YL_CFileZip@@SA_NABV?$basic_string@DU?$char_traits@D@std@@V?$allocator@D@2@@std@@0AAV?$vector@V?$basic_string@DU?$char_traits@D@std@@V?$allocator@D@2@@std@@V?$allocator@V?$basic_string@DU?$char_traits@D@std@@V?$allocator@D@2@@std@@@2@@3@_NV23@@Z:NEAR
EXTRN	__imp_?YL_Log@@YAXABV?$basic_string@DU?$char_traits@D@std@@V?$allocator@D@2@@std@@H0PBDZZ:NEAR
xdata$x	SEGMENT
$T205443 DD	0ffffffffH
	DD	FLAT:$L205429
	DD	00H
	DD	FLAT:$L205430
	DD	0ffffffffH
	DD	FLAT:$L205433
	DD	02H
	DD	FLAT:$L205434
	DD	0ffffffffH
	DD	FLAT:$L205435
	DD	04H
	DD	FLAT:$L205436
	DD	05H
	DD	FLAT:$L205437
$T205440 DD	019930520H
	DD	07H
	DD	FLAT:$T205443
	DD	2 DUP(00H)
	DD	2 DUP(00H)
; Function compile flags: /Odt
xdata$x	ENDS
_TEXT	SEGMENT
tv242 = -749						; size = 1
tv241 = -748						; size = 4
tv234 = -744						; size = 4
tv232 = -740						; size = 4
_this$ = -736						; size = 4
$T205428 = -732						; size = 28
$T205427 = -704						; size = 28
$T205426 = -676						; size = 4
$T205425 = -669						; size = 1
$T205424 = -668						; size = 28
$T205423 = -640						; size = 28
$T205422 = -612						; size = 4
$T205421 = -608						; size = 4
$T205420 = -604						; size = 28
$T205419 = -576						; size = 28
_szbuffer$202802 = -548					; size = 512
__$ArrayPad$ = -32					; size = 4
_vec$202998 = -28					; size = 16
__$EHRec$ = -12						; size = 12
__$ReturnAddr$ = 4					; size = 4
_sign$ = 8						; size = 4
?P2POb_DownFinish@CSkinMgrV1@@QAEXABUSign@@@Z PROC NEAR	; CSkinMgrV1::P2POb_DownFinish
; _this$ = ecx

; 666  : {

  02930	55		 push	 ebp
  02931	8b ec		 mov	 ebp, esp
  02933	6a ff		 push	 -1
  02935	68 00 00 00 00	 push	 __ehhandler$?P2POb_DownFinish@CSkinMgrV1@@QAEXABUSign@@@Z
  0293a	64 a1 00 00 00
	00		 mov	 eax, DWORD PTR fs:__except_list
  02940	50		 push	 eax
  02941	64 89 25 00 00
	00 00		 mov	 DWORD PTR fs:__except_list, esp
  02948	81 ec e4 02 00
	00		 sub	 esp, 740		; 000002e4H
  0294e	a1 00 00 00 00	 mov	 eax, DWORD PTR ___security_cookie
  02953	89 45 e0	 mov	 DWORD PTR __$ArrayPad$[ebp], eax
  02956	89 8d 20 fd ff
	ff		 mov	 DWORD PTR _this$[ebp], ecx

; 667  : EnterCriticalSection( &m_csDownInfo );

  0295c	8b 85 20 fd ff
	ff		 mov	 eax, DWORD PTR _this$[ebp]
  02962	83 c0 68	 add	 eax, 104		; 00000068H
  02965	50		 push	 eax
  02966	ff 15 00 00 00
	00		 call	 DWORD PTR __imp__EnterCriticalSection@4

; 668  : 	YL_Log("downskin.txt",LOG_DEBUG,"DownStart"," %u,%u",sign.sign1,sign.sign2 );	

  0296c	68 00 00 00 00	 push	 OFFSET FLAT:$SG202791
  02971	8d 8d c0 fd ff
	ff		 lea	 ecx, DWORD PTR $T205419[ebp]
  02977	ff 15 00 00 00
	00		 call	 DWORD PTR __imp_??0?$basic_string@DU?$char_traits@D@std@@V?$allocator@D@2@@std@@QAE@PBD@Z
  0297d	c7 45 fc 00 00
	00 00		 mov	 DWORD PTR __$EHRec$[ebp+8], 0
  02984	68 00 00 00 00	 push	 OFFSET FLAT:$SG202792
  02989	8d 8d a4 fd ff
	ff		 lea	 ecx, DWORD PTR $T205420[ebp]
  0298f	ff 15 00 00 00
	00		 call	 DWORD PTR __imp_??0?$basic_string@DU?$char_traits@D@std@@V?$allocator@D@2@@std@@QAE@PBD@Z
  02995	c6 45 fc 01	 mov	 BYTE PTR __$EHRec$[ebp+8], 1
  02999	8b 4d 08	 mov	 ecx, DWORD PTR _sign$[ebp]
  0299c	8b 51 04	 mov	 edx, DWORD PTR [ecx+4]
  0299f	52		 push	 edx
  029a0	8b 45 08	 mov	 eax, DWORD PTR _sign$[ebp]
  029a3	8b 08		 mov	 ecx, DWORD PTR [eax]
  029a5	51		 push	 ecx
  029a6	68 00 00 00 00	 push	 OFFSET FLAT:$SG202790
  029ab	8d 95 c0 fd ff
	ff		 lea	 edx, DWORD PTR $T205419[ebp]
  029b1	52		 push	 edx
  029b2	6a 00		 push	 0
  029b4	8d 85 a4 fd ff
	ff		 lea	 eax, DWORD PTR $T205420[ebp]
  029ba	50		 push	 eax
  029bb	ff 15 00 00 00
	00		 call	 DWORD PTR __imp_?YL_Log@@YAXABV?$basic_string@DU?$char_traits@D@std@@V?$allocator@D@2@@std@@H0PBDZZ
  029c1	83 c4 18	 add	 esp, 24			; 00000018H
  029c4	c6 45 fc 00	 mov	 BYTE PTR __$EHRec$[ebp+8], 0
  029c8	8d 8d a4 fd ff
	ff		 lea	 ecx, DWORD PTR $T205420[ebp]
  029ce	ff 15 00 00 00
	00		 call	 DWORD PTR __imp_??1?$basic_string@DU?$char_traits@D@std@@V?$allocator@D@2@@std@@QAE@XZ
  029d4	c7 45 fc ff ff
	ff ff		 mov	 DWORD PTR __$EHRec$[ebp+8], -1
  029db	8d 8d c0 fd ff
	ff		 lea	 ecx, DWORD PTR $T205419[ebp]
  029e1	ff 15 00 00 00
	00		 call	 DWORD PTR __imp_??1?$basic_string@DU?$char_traits@D@std@@V?$allocator@D@2@@std@@QAE@XZ

; 669  : 
; 670  : 	mb_isDownSkin = false;

  029e7	8b 8d 20 fd ff
	ff		 mov	 ecx, DWORD PTR _this$[ebp]
  029ed	c6 41 49 00	 mov	 BYTE PTR [ecx+73], 0

; 671  : 
; 672  : 	if( mb_HasPopWnd )

  029f1	8b 95 20 fd ff
	ff		 mov	 edx, DWORD PTR _this$[ebp]
  029f7	0f b6 42 48	 movzx	 eax, BYTE PTR [edx+72]
  029fb	85 c0		 test	 eax, eax
  029fd	0f 84 e7 00 00
	00		 je	 $L202793

; 673  : 	{
; 674  : 		SetDownloadPercentage(100, m_strDownSkin);

  02a03	8b 8d 20 fd ff
	ff		 mov	 ecx, DWORD PTR _this$[ebp]
  02a09	83 c1 58	 add	 ecx, 88			; 00000058H
  02a0c	51		 push	 ecx
  02a0d	8b d4		 mov	 edx, esp
  02a0f	89 a5 a0 fd ff
	ff		 mov	 DWORD PTR $T205421[ebp], esp
  02a15	51		 push	 ecx
  02a16	8b ca		 mov	 ecx, edx
  02a18	ff 15 00 00 00
	00		 call	 DWORD PTR __imp_??0?$CStringT@DV?$StrTraitMFC_DLL@DV?$ChTraitsCRT@D@ATL@@@@@ATL@@QAE@ABV01@@Z
  02a1e	89 85 1c fd ff
	ff		 mov	 DWORD PTR tv232[ebp], eax
  02a24	6a 64		 push	 100			; 00000064H
  02a26	8b 85 20 fd ff
	ff		 mov	 eax, DWORD PTR _this$[ebp]
  02a2c	8b 10		 mov	 edx, DWORD PTR [eax]
  02a2e	8b 8d 20 fd ff
	ff		 mov	 ecx, DWORD PTR _this$[ebp]
  02a34	ff 52 50	 call	 DWORD PTR [edx+80]

; 675  : 		DownloadFinish(m_strDownSkin);	

  02a37	8b 85 20 fd ff
	ff		 mov	 eax, DWORD PTR _this$[ebp]
  02a3d	83 c0 58	 add	 eax, 88			; 00000058H
  02a40	51		 push	 ecx
  02a41	8b cc		 mov	 ecx, esp
  02a43	89 a5 9c fd ff
	ff		 mov	 DWORD PTR $T205422[ebp], esp
  02a49	50		 push	 eax
  02a4a	ff 15 00 00 00
	00		 call	 DWORD PTR __imp_??0?$CStringT@DV?$StrTraitMFC_DLL@DV?$ChTraitsCRT@D@ATL@@@@@ATL@@QAE@ABV01@@Z
  02a50	89 85 18 fd ff
	ff		 mov	 DWORD PTR tv234[ebp], eax
  02a56	8b 8d 20 fd ff
	ff		 mov	 ecx, DWORD PTR _this$[ebp]
  02a5c	8b 11		 mov	 edx, DWORD PTR [ecx]
  02a5e	8b 8d 20 fd ff
	ff		 mov	 ecx, DWORD PTR _this$[ebp]
  02a64	ff 52 54	 call	 DWORD PTR [edx+84]

; 676  : 		if(mp_skinWnd != NULL)

  02a67	8b 85 20 fd ff
	ff		 mov	 eax, DWORD PTR _this$[ebp]
  02a6d	83 78 14 00	 cmp	 DWORD PTR [eax+20], 0
  02a71	74 10		 je	 SHORT $L202796

; 677  : 			mp_skinWnd->SetUseTip(true);

  02a73	6a 01		 push	 1
  02a75	8b 8d 20 fd ff
	ff		 mov	 ecx, DWORD PTR _this$[ebp]
  02a7b	8b 49 14	 mov	 ecx, DWORD PTR [ecx+20]
  02a7e	e8 00 00 00 00	 call	 ?SetUseTip@CSkinWnd@@QAEX_N@Z ; CSkinWnd::SetUseTip
$L202796:

; 678  : 		LogUserActMsg( "HANDLE_SKIN", "S:DOWN_FINISHE" );

  02a83	68 00 00 00 00	 push	 OFFSET FLAT:$SG202799
  02a88	8d 8d 80 fd ff
	ff		 lea	 ecx, DWORD PTR $T205423[ebp]
  02a8e	ff 15 00 00 00
	00		 call	 DWORD PTR __imp_??0?$basic_string@DU?$char_traits@D@std@@V?$allocator@D@2@@std@@QAE@PBD@Z
  02a94	c7 45 fc 02 00
	00 00		 mov	 DWORD PTR __$EHRec$[ebp+8], 2
  02a9b	68 00 00 00 00	 push	 OFFSET FLAT:$SG202800
  02aa0	8d 8d 64 fd ff
	ff		 lea	 ecx, DWORD PTR $T205424[ebp]
  02aa6	ff 15 00 00 00
	00		 call	 DWORD PTR __imp_??0?$basic_string@DU?$char_traits@D@std@@V?$allocator@D@2@@std@@QAE@PBD@Z
  02aac	c6 45 fc 03	 mov	 BYTE PTR __$EHRec$[ebp+8], 3
  02ab0	8d 95 80 fd ff
	ff		 lea	 edx, DWORD PTR $T205423[ebp]
  02ab6	52		 push	 edx
  02ab7	8d 85 64 fd ff
	ff		 lea	 eax, DWORD PTR $T205424[ebp]
  02abd	50		 push	 eax
  02abe	ff 15 00 00 00
	00		 call	 DWORD PTR __imp_?LogUserActMsg@@YAXABV?$basic_string@DU?$char_traits@D@std@@V?$allocator@D@2@@std@@0@Z
  02ac4	83 c4 08	 add	 esp, 8
  02ac7	c6 45 fc 02	 mov	 BYTE PTR __$EHRec$[ebp+8], 2
  02acb	8d 8d 64 fd ff
	ff		 lea	 ecx, DWORD PTR $T205424[ebp]
  02ad1	ff 15 00 00 00
	00		 call	 DWORD PTR __imp_??1?$basic_string@DU?$char_traits@D@std@@V?$allocator@D@2@@std@@QAE@XZ
  02ad7	c7 45 fc ff ff
	ff ff		 mov	 DWORD PTR __$EHRec$[ebp+8], -1
  02ade	8d 8d 80 fd ff
	ff		 lea	 ecx, DWORD PTR $T205423[ebp]
  02ae4	ff 15 00 00 00
	00		 call	 DWORD PTR __imp_??1?$basic_string@DU?$char_traits@D@std@@V?$allocator@D@2@@std@@QAE@XZ
$L202793:

; 679  : 	}
; 680  : 
; 681  : 	if( mp_changeSkinEven.size() > 0 )

  02aea	8b 8d 20 fd ff
	ff		 mov	 ecx, DWORD PTR _this$[ebp]
  02af0	83 c1 38	 add	 ecx, 56			; 00000038H
  02af3	e8 00 00 00 00	 call	 ?size@?$vector@PAVIChangeSkinEventListener@@V?$allocator@PAVIChangeSkinEventListener@@@std@@@std@@QBEIXZ ; std::vector<IChangeSkinEventListener *,std::allocator<IChangeSkinEventListener *> >::size
  02af8	85 c0		 test	 eax, eax
  02afa	0f 86 37 01 00
	00		 jbe	 $L202801

; 682  : 	{
; 683  : 		char szbuffer[512];
; 684  : 		CLhcImg::GetHomePath(szbuffer,512);

  02b00	68 00 02 00 00	 push	 512			; 00000200H
  02b05	8d 8d dc fd ff
	ff		 lea	 ecx, DWORD PTR _szbuffer$202802[ebp]
  02b0b	51		 push	 ecx
  02b0c	e8 00 00 00 00	 call	 ?GetHomePath@CLhcImg@@SA_NQADH@Z ; CLhcImg::GetHomePath
  02b11	83 c4 08	 add	 esp, 8

; 685  : 		strcat(szbuffer,"\\skin\\");

  02b14	68 00 00 00 00	 push	 OFFSET FLAT:$SG202803
  02b19	8d 95 dc fd ff
	ff		 lea	 edx, DWORD PTR _szbuffer$202802[ebp]
  02b1f	52		 push	 edx
  02b20	e8 00 00 00 00	 call	 _strcat
  02b25	83 c4 08	 add	 esp, 8

; 686  : 
; 687  : 		vector<string> vec;

  02b28	8d 4d e4	 lea	 ecx, DWORD PTR _vec$202998[ebp]
  02b2b	e8 00 00 00 00	 call	 ??0?$vector@V?$basic_string@DU?$char_traits@D@std@@V?$allocator@D@2@@std@@V?$allocator@V?$basic_string@DU?$char_traits@D@std@@V?$allocator@D@2@@std@@@2@@std@@QAE@XZ ; std::vector<std::basic_string<char,std::char_traits<char>,std::allocator<char> >,std::allocator<std::basic_string<char,std::char_traits<char>,std::allocator<char> > > >::vector<std::basic_string<char,std::char_traits<char>,std::allocator<char> >,std::allocator<std::basic_string<char,std::char_traits<char>,std::allocator<char> > > >
  02b30	c7 45 fc 04 00
	00 00		 mov	 DWORD PTR __$EHRec$[ebp+8], 4

; 688  : 		if( YL_CFileZip::UnCompress( (LPCTSTR)m_strDownPath, szbuffer,vec,true) )

  02b37	8d 85 dc fd ff
	ff		 lea	 eax, DWORD PTR _szbuffer$202802[ebp]
  02b3d	50		 push	 eax
  02b3e	8d 8d 40 fd ff
	ff		 lea	 ecx, DWORD PTR $T205427[ebp]
  02b44	ff 15 00 00 00
	00		 call	 DWORD PTR __imp_??0?$basic_string@DU?$char_traits@D@std@@V?$allocator@D@2@@std@@QAE@PBD@Z
  02b4a	c6 45 fc 05	 mov	 BYTE PTR __$EHRec$[ebp+8], 5
  02b4e	8b 8d 20 fd ff
	ff		 mov	 ecx, DWORD PTR _this$[ebp]
  02b54	83 c1 5c	 add	 ecx, 92			; 0000005cH
  02b57	ff 15 00 00 00
	00		 call	 DWORD PTR __imp_??B?$CSimpleStringT@D$00@ATL@@QBEPBDXZ
  02b5d	50		 push	 eax
  02b5e	8d 8d 24 fd ff
	ff		 lea	 ecx, DWORD PTR $T205428[ebp]
  02b64	ff 15 00 00 00
	00		 call	 DWORD PTR __imp_??0?$basic_string@DU?$char_traits@D@std@@V?$allocator@D@2@@std@@QAE@PBD@Z
  02b6a	c6 45 fc 06	 mov	 BYTE PTR __$EHRec$[ebp+8], 6
  02b6e	83 ec 1c	 sub	 esp, 28			; 0000001cH
  02b71	8b cc		 mov	 ecx, esp
  02b73	89 a5 5c fd ff
	ff		 mov	 DWORD PTR $T205426[ebp], esp
  02b79	68 00 00 00 00	 push	 OFFSET FLAT:$SG203005
  02b7e	ff 15 00 00 00
	00		 call	 DWORD PTR __imp_??0?$basic_string@DU?$char_traits@D@std@@V?$allocator@D@2@@std@@QAE@PBD@Z
  02b84	89 85 14 fd ff
	ff		 mov	 DWORD PTR tv241[ebp], eax
  02b8a	6a 01		 push	 1
  02b8c	8d 4d e4	 lea	 ecx, DWORD PTR _vec$202998[ebp]
  02b8f	51		 push	 ecx
  02b90	8d 95 40 fd ff
	ff		 lea	 edx, DWORD PTR $T205427[ebp]
  02b96	52		 push	 edx
  02b97	8d 85 24 fd ff
	ff		 lea	 eax, DWORD PTR $T205428[ebp]
  02b9d	50		 push	 eax
  02b9e	ff 15 00 00 00
	00		 call	 DWORD PTR __imp_?UnCompress@YL_CFileZip@@SA_NABV?$basic_string@DU?$char_traits@D@std@@V?$allocator@D@2@@std@@0AAV?$vector@V?$basic_string@DU?$char_traits@D@std@@V?$allocator@D@2@@std@@V?$allocator@V?$basic_string@DU?$char_traits@D@std@@V?$allocator@D@2@@std@@@2@@3@_NV23@@Z
  02ba4	83 c4 2c	 add	 esp, 44			; 0000002cH
  02ba7	88 85 13 fd ff
	ff		 mov	 BYTE PTR tv242[ebp], al
  02bad	8a 8d 13 fd ff
	ff		 mov	 cl, BYTE PTR tv242[ebp]
  02bb3	88 8d 63 fd ff
	ff		 mov	 BYTE PTR $T205425[ebp], cl
  02bb9	c6 45 fc 05	 mov	 BYTE PTR __$EHRec$[ebp+8], 5
  02bbd	8d 8d 24 fd ff
	ff		 lea	 ecx, DWORD PTR $T205428[ebp]
  02bc3	ff 15 00 00 00
	00		 call	 DWORD PTR __imp_??1?$basic_string@DU?$char_traits@D@std@@V?$allocator@D@2@@std@@QAE@XZ
  02bc9	c6 45 fc 04	 mov	 BYTE PTR __$EHRec$[ebp+8], 4
  02bcd	8d 8d 40 fd ff
	ff		 lea	 ecx, DWORD PTR $T205427[ebp]
  02bd3	ff 15 00 00 00
	00		 call	 DWORD PTR __imp_??1?$basic_string@DU?$char_traits@D@std@@V?$allocator@D@2@@std@@QAE@XZ
  02bd9	0f b6 95 63 fd
	ff ff		 movzx	 edx, BYTE PTR $T205425[ebp]
  02be0	85 d2		 test	 edx, edx
  02be2	74 44		 je	 SHORT $L203003

; 689  : 		{
; 690  : 			m_BaseColor = 0;

  02be4	8b 85 20 fd ff
	ff		 mov	 eax, DWORD PTR _this$[ebp]
  02bea	c7 40 28 00 00
	00 00		 mov	 DWORD PTR [eax+40], 0

; 691  : 			if( mb_HasPopWnd )

  02bf1	8b 8d 20 fd ff
	ff		 mov	 ecx, DWORD PTR _this$[ebp]
  02bf7	0f b6 51 48	 movzx	 edx, BYTE PTR [ecx+72]
  02bfb	85 d2		 test	 edx, edx
  02bfd	74 29		 je	 SHORT $L203003

; 692  : 				::SendMessage(::AfxGetApp()->m_pMainWnd->m_hWnd, WM_SKIN_DOWNLOAD_FINISHED, (WPARAM)(LPCTSTR)m_strDownSkin, 0);

  02bff	6a 00		 push	 0
  02c01	8b 8d 20 fd ff
	ff		 mov	 ecx, DWORD PTR _this$[ebp]
  02c07	83 c1 58	 add	 ecx, 88			; 00000058H
  02c0a	ff 15 00 00 00
	00		 call	 DWORD PTR __imp_??B?$CSimpleStringT@D$00@ATL@@QBEPBDXZ
  02c10	50		 push	 eax
  02c11	68 18 0d 00 00	 push	 3352			; 00000d18H
  02c16	e8 00 00 00 00	 call	 ?AfxGetApp@@YGPAVCWinApp@@XZ ; AfxGetApp
  02c1b	8b 40 20	 mov	 eax, DWORD PTR [eax+32]
  02c1e	8b 48 20	 mov	 ecx, DWORD PTR [eax+32]
  02c21	51		 push	 ecx
  02c22	ff 15 00 00 00
	00		 call	 DWORD PTR __imp__SendMessageA@16
$L203003:

; 693  : 		}
; 694  : 	}

  02c28	c7 45 fc ff ff
	ff ff		 mov	 DWORD PTR __$EHRec$[ebp+8], -1
  02c2f	8d 4d e4	 lea	 ecx, DWORD PTR _vec$202998[ebp]
  02c32	e8 00 00 00 00	 call	 ??1?$vector@V?$basic_string@DU?$char_traits@D@std@@V?$allocator@D@2@@std@@V?$allocator@V?$basic_string@DU?$char_traits@D@std@@V?$allocator@D@2@@std@@@2@@std@@QAE@XZ ; std::vector<std::basic_string<char,std::char_traits<char>,std::allocator<char> >,std::allocator<std::basic_string<char,std::char_traits<char>,std::allocator<char> > > >::~vector<std::basic_string<char,std::char_traits<char>,std::allocator<char> >,std::allocator<std::basic_string<char,std::char_traits<char>,std::allocator<char> > > >
$L202801:

; 695  : 
; 696  : 	
; 697  : LeaveCriticalSection( &m_csDownInfo );

  02c37	8b 95 20 fd ff
	ff		 mov	 edx, DWORD PTR _this$[ebp]
  02c3d	83 c2 68	 add	 edx, 104		; 00000068H
  02c40	52		 push	 edx
  02c41	ff 15 00 00 00
	00		 call	 DWORD PTR __imp__LeaveCriticalSection@4

; 698  : }

  02c47	8b 4d f4	 mov	 ecx, DWORD PTR __$EHRec$[ebp]
  02c4a	64 89 0d 00 00
	00 00		 mov	 DWORD PTR fs:__except_list, ecx
  02c51	8b 4d e0	 mov	 ecx, DWORD PTR __$ArrayPad$[ebp]
  02c54	e8 00 00 00 00	 call	 @__security_check_cookie@4
  02c59	8b e5		 mov	 esp, ebp
  02c5b	5d		 pop	 ebp
  02c5c	c2 04 00	 ret	 4
_TEXT	ENDS
text$x	SEGMENT
$L205429:
  00419	8d 8d c0 fd ff
	ff		 lea	 ecx, DWORD PTR $T205419[ebp]
  0041f	ff 25 00 00 00
	00		 jmp	 DWORD PTR __imp_??1?$basic_string@DU?$char_traits@D@std@@V?$allocator@D@2@@std@@QAE@XZ
$L205430:
  00425	8d 8d a4 fd ff
	ff		 lea	 ecx, DWORD PTR $T205420[ebp]
  0042b	ff 25 00 00 00
	00		 jmp	 DWORD PTR __imp_??1?$basic_string@DU?$char_traits@D@std@@V?$allocator@D@2@@std@@QAE@XZ
$L205433:
  00431	8d 8d 80 fd ff
	ff		 lea	 ecx, DWORD PTR $T205423[ebp]
  00437	ff 25 00 00 00
	00		 jmp	 DWORD PTR __imp_??1?$basic_string@DU?$char_traits@D@std@@V?$allocator@D@2@@std@@QAE@XZ
$L205434:
  0043d	8d 8d 64 fd ff
	ff		 lea	 ecx, DWORD PTR $T205424[ebp]
  00443	ff 25 00 00 00
	00		 jmp	 DWORD PTR __imp_??1?$basic_string@DU?$char_traits@D@std@@V?$allocator@D@2@@std@@QAE@XZ
$L205435:
  00449	8d 4d e4	 lea	 ecx, DWORD PTR _vec$202998[ebp]
  0044c	e9 00 00 00 00	 jmp	 ??1?$vector@V?$basic_string@DU?$char_traits@D@std@@V?$allocator@D@2@@std@@V?$allocator@V?$basic_string@DU?$char_traits@D@std@@V?$allocator@D@2@@std@@@2@@std@@QAE@XZ ; std::vector<std::basic_string<char,std::char_traits<char>,std::allocator<char> >,std::allocator<std::basic_string<char,std::char_traits<char>,std::allocator<char> > > >::~vector<std::basic_string<char,std::char_traits<char>,std::allocator<char> >,std::allocator<std::basic_string<char,std::char_traits<char>,std::allocator<char> > > >
$L205436:
  00451	8d 8d 40 fd ff
	ff		 lea	 ecx, DWORD PTR $T205427[ebp]
  00457	ff 25 00 00 00
	00		 jmp	 DWORD PTR __imp_??1?$basic_string@DU?$char_traits@D@std@@V?$allocator@D@2@@std@@QAE@XZ
$L205437:
  0045d	8d 8d 24 fd ff
	ff		 lea	 ecx, DWORD PTR $T205428[ebp]
  00463	ff 25 00 00 00
	00		 jmp	 DWORD PTR __imp_??1?$basic_string@DU?$char_traits@D@std@@V?$allocator@D@2@@std@@QAE@XZ
__ehhandler$?P2POb_DownFinish@CSkinMgrV1@@QAEXABUSign@@@Z:
  00469	b8 00 00 00 00	 mov	 eax, OFFSET FLAT:$T205440
  0046e	e9 00 00 00 00	 jmp	 ___CxxFrameHandler
text$x	ENDS
?P2POb_DownFinish@CSkinMgrV1@@QAEXABUSign@@@Z ENDP	; CSkinMgrV1::P2POb_DownFinish
PUBLIC	?UpdateWindow@CWnd@@QAEXXZ			; CWnd::UpdateWindow
PUBLIC	?P2POb_DownFailed@CSkinMgrV1@@QAEXABUSign@@W4P2P_DOWN_FAILED_REASON@@@Z ; CSkinMgrV1::P2POb_DownFailed
EXTRN	__imp__PostMessageA@16:NEAR
xdata$x	SEGMENT
$T205456 DD	0ffffffffH
	DD	FLAT:$L205449
	DD	00H
	DD	FLAT:$L205450
	DD	0ffffffffH
	DD	FLAT:$L205451
	DD	02H
	DD	FLAT:$L205452
$T205454 DD	019930520H
	DD	04H
	DD	FLAT:$T205456
	DD	2 DUP(00H)
	DD	2 DUP(00H)
; Function compile flags: /Odt
xdata$x	ENDS
_TEXT	SEGMENT
_this$ = -128						; size = 4
$T205448 = -124						; size = 28
$T205447 = -96						; size = 28
$T205446 = -68						; size = 28
$T205445 = -40						; size = 28
__$EHRec$ = -12						; size = 12
_sign$ = 8						; size = 4
_pdfr$ = 12						; size = 4
?P2POb_DownFailed@CSkinMgrV1@@QAEXABUSign@@W4P2P_DOWN_FAILED_REASON@@@Z PROC NEAR ; CSkinMgrV1::P2POb_DownFailed
; _this$ = ecx

; 700  : {

  02c60	55		 push	 ebp
  02c61	8b ec		 mov	 ebp, esp
  02c63	6a ff		 push	 -1
  02c65	68 00 00 00 00	 push	 __ehhandler$?P2POb_DownFailed@CSkinMgrV1@@QAEXABUSign@@W4P2P_DOWN_FAILED_REASON@@@Z
  02c6a	64 a1 00 00 00
	00		 mov	 eax, DWORD PTR fs:__except_list
  02c70	50		 push	 eax
  02c71	64 89 25 00 00
	00 00		 mov	 DWORD PTR fs:__except_list, esp
  02c78	83 ec 74	 sub	 esp, 116		; 00000074H
  02c7b	89 4d 80	 mov	 DWORD PTR _this$[ebp], ecx

; 701  : EnterCriticalSection( &m_csDownInfo );

  02c7e	8b 45 80	 mov	 eax, DWORD PTR _this$[ebp]
  02c81	83 c0 68	 add	 eax, 104		; 00000068H
  02c84	50		 push	 eax
  02c85	ff 15 00 00 00
	00		 call	 DWORD PTR __imp__EnterCriticalSection@4

; 702  : 	YL_Log("downskin.txt",LOG_DEBUG,"DownStart"," %u,%u",sign.sign1,sign.sign2 );

  02c8b	68 00 00 00 00	 push	 OFFSET FLAT:$SG203017
  02c90	8d 4d d8	 lea	 ecx, DWORD PTR $T205445[ebp]
  02c93	ff 15 00 00 00
	00		 call	 DWORD PTR __imp_??0?$basic_string@DU?$char_traits@D@std@@V?$allocator@D@2@@std@@QAE@PBD@Z
  02c99	c7 45 fc 00 00
	00 00		 mov	 DWORD PTR __$EHRec$[ebp+8], 0
  02ca0	68 00 00 00 00	 push	 OFFSET FLAT:$SG203018
  02ca5	8d 4d bc	 lea	 ecx, DWORD PTR $T205446[ebp]
  02ca8	ff 15 00 00 00
	00		 call	 DWORD PTR __imp_??0?$basic_string@DU?$char_traits@D@std@@V?$allocator@D@2@@std@@QAE@PBD@Z
  02cae	c6 45 fc 01	 mov	 BYTE PTR __$EHRec$[ebp+8], 1
  02cb2	8b 4d 08	 mov	 ecx, DWORD PTR _sign$[ebp]
  02cb5	8b 51 04	 mov	 edx, DWORD PTR [ecx+4]
  02cb8	52		 push	 edx
  02cb9	8b 45 08	 mov	 eax, DWORD PTR _sign$[ebp]
  02cbc	8b 08		 mov	 ecx, DWORD PTR [eax]
  02cbe	51		 push	 ecx
  02cbf	68 00 00 00 00	 push	 OFFSET FLAT:$SG203016
  02cc4	8d 55 d8	 lea	 edx, DWORD PTR $T205445[ebp]
  02cc7	52		 push	 edx
  02cc8	6a 00		 push	 0
  02cca	8d 45 bc	 lea	 eax, DWORD PTR $T205446[ebp]
  02ccd	50		 push	 eax
  02cce	ff 15 00 00 00
	00		 call	 DWORD PTR __imp_?YL_Log@@YAXABV?$basic_string@DU?$char_traits@D@std@@V?$allocator@D@2@@std@@H0PBDZZ
  02cd4	83 c4 18	 add	 esp, 24			; 00000018H
  02cd7	c6 45 fc 00	 mov	 BYTE PTR __$EHRec$[ebp+8], 0
  02cdb	8d 4d bc	 lea	 ecx, DWORD PTR $T205446[ebp]
  02cde	ff 15 00 00 00
	00		 call	 DWORD PTR __imp_??1?$basic_string@DU?$char_traits@D@std@@V?$allocator@D@2@@std@@QAE@XZ
  02ce4	c7 45 fc ff ff
	ff ff		 mov	 DWORD PTR __$EHRec$[ebp+8], -1
  02ceb	8d 4d d8	 lea	 ecx, DWORD PTR $T205445[ebp]
  02cee	ff 15 00 00 00
	00		 call	 DWORD PTR __imp_??1?$basic_string@DU?$char_traits@D@std@@V?$allocator@D@2@@std@@QAE@XZ

; 703  : 
; 704  : 	if(!mb_HasPopWnd || mp_skinWnd == NULL || !::IsWindow(mp_skinWnd->m_hWnd))

  02cf4	8b 4d 80	 mov	 ecx, DWORD PTR _this$[ebp]
  02cf7	0f b6 51 48	 movzx	 edx, BYTE PTR [ecx+72]
  02cfb	85 d2		 test	 edx, edx
  02cfd	74 1d		 je	 SHORT $L203020
  02cff	8b 45 80	 mov	 eax, DWORD PTR _this$[ebp]
  02d02	83 78 14 00	 cmp	 DWORD PTR [eax+20], 0
  02d06	74 14		 je	 SHORT $L203020
  02d08	8b 4d 80	 mov	 ecx, DWORD PTR _this$[ebp]
  02d0b	8b 51 14	 mov	 edx, DWORD PTR [ecx+20]
  02d0e	8b 42 20	 mov	 eax, DWORD PTR [edx+32]
  02d11	50		 push	 eax
  02d12	ff 15 00 00 00
	00		 call	 DWORD PTR __imp__IsWindow@4
  02d18	85 c0		 test	 eax, eax
  02d1a	75 12		 jne	 SHORT $L203019
$L203020:

; 705  : 	{
; 706  : 		LeaveCriticalSection( &m_csDownInfo );

  02d1c	8b 4d 80	 mov	 ecx, DWORD PTR _this$[ebp]
  02d1f	83 c1 68	 add	 ecx, 104		; 00000068H
  02d22	51		 push	 ecx
  02d23	ff 15 00 00 00
	00		 call	 DWORD PTR __imp__LeaveCriticalSection@4

; 707  : 		return;

  02d29	e9 e0 00 00 00	 jmp	 $L203013
$L203019:

; 708  : 	}
; 709  : 	::PostMessage(mp_skinWnd->m_hWnd, WM_SKIN_DOWNLOAD_FAILED, 0, 0);

  02d2e	6a 00		 push	 0
  02d30	6a 00		 push	 0
  02d32	68 19 0d 00 00	 push	 3353			; 00000d19H
  02d37	8b 55 80	 mov	 edx, DWORD PTR _this$[ebp]
  02d3a	8b 42 14	 mov	 eax, DWORD PTR [edx+20]
  02d3d	8b 48 20	 mov	 ecx, DWORD PTR [eax+32]
  02d40	51		 push	 ecx
  02d41	ff 15 00 00 00
	00		 call	 DWORD PTR __imp__PostMessageA@16

; 710  : 	//MessageBox(mp_skinWnd->m_hWnd, "!", "", MB_OK);
; 711  : 	mb_isDownSkin = false;

  02d47	8b 55 80	 mov	 edx, DWORD PTR _this$[ebp]
  02d4a	c6 42 49 00	 mov	 BYTE PTR [edx+73], 0

; 712  : 	if(mp_skinWnd != NULL)

  02d4e	8b 45 80	 mov	 eax, DWORD PTR _this$[ebp]
  02d51	83 78 14 00	 cmp	 DWORD PTR [eax+20], 0
  02d55	74 1a		 je	 SHORT $L203021

; 713  : 	{
; 714  : 		mp_skinWnd->SetUseTip(true);

  02d57	6a 01		 push	 1
  02d59	8b 4d 80	 mov	 ecx, DWORD PTR _this$[ebp]
  02d5c	8b 49 14	 mov	 ecx, DWORD PTR [ecx+20]
  02d5f	e8 00 00 00 00	 call	 ?SetUseTip@CSkinWnd@@QAEX_N@Z ; CSkinWnd::SetUseTip

; 715  : 		mp_skinWnd->EnableSkinBtn( TRUE );

  02d64	6a 01		 push	 1
  02d66	8b 55 80	 mov	 edx, DWORD PTR _this$[ebp]
  02d69	8b 4a 14	 mov	 ecx, DWORD PTR [edx+20]
  02d6c	e8 00 00 00 00	 call	 ?EnableSkinBtn@CSkinWnd@@QAEXH@Z ; CSkinWnd::EnableSkinBtn
$L203021:

; 716  : 	}
; 717  : 	if( mp_downloadSkin != NULL )

  02d71	8b 45 80	 mov	 eax, DWORD PTR _this$[ebp]
  02d74	83 78 20 00	 cmp	 DWORD PTR [eax+32], 0
  02d78	74 0d		 je	 SHORT $L203022

; 718  : 		mp_downloadSkin->ShowWindow( SW_HIDE );

  02d7a	6a 00		 push	 0
  02d7c	8b 4d 80	 mov	 ecx, DWORD PTR _this$[ebp]
  02d7f	8b 49 20	 mov	 ecx, DWORD PTR [ecx+32]
  02d82	e8 00 00 00 00	 call	 ?ShowWindow@CWnd@@QAEHH@Z ; CWnd::ShowWindow
$L203022:

; 719  : 	mp_mainSkinWnd->ShowColorBtn( TRUE );

  02d87	6a 01		 push	 1
  02d89	8b 55 80	 mov	 edx, DWORD PTR _this$[ebp]
  02d8c	8b 4a 10	 mov	 ecx, DWORD PTR [edx+16]
  02d8f	e8 00 00 00 00	 call	 ?ShowColorBtn@CMainSkinWnd@@QAEXH@Z ; CMainSkinWnd::ShowColorBtn

; 720  : 	mp_mainSkinWnd->Invalidate();

  02d94	6a 01		 push	 1
  02d96	8b 45 80	 mov	 eax, DWORD PTR _this$[ebp]
  02d99	8b 48 10	 mov	 ecx, DWORD PTR [eax+16]
  02d9c	e8 00 00 00 00	 call	 ?Invalidate@CWnd@@QAEXH@Z ; CWnd::Invalidate

; 721  : 	mp_mainSkinWnd->UpdateWindow();

  02da1	8b 4d 80	 mov	 ecx, DWORD PTR _this$[ebp]
  02da4	8b 49 10	 mov	 ecx, DWORD PTR [ecx+16]
  02da7	e8 00 00 00 00	 call	 ?UpdateWindow@CWnd@@QAEXXZ ; CWnd::UpdateWindow

; 722  : 
; 723  : 	LogUserActMsg( "HANDLE_SKIN", "S:DOWN_FAILED" );

  02dac	68 00 00 00 00	 push	 OFFSET FLAT:$SG203025
  02db1	8d 4d a0	 lea	 ecx, DWORD PTR $T205447[ebp]
  02db4	ff 15 00 00 00
	00		 call	 DWORD PTR __imp_??0?$basic_string@DU?$char_traits@D@std@@V?$allocator@D@2@@std@@QAE@PBD@Z
  02dba	c7 45 fc 02 00
	00 00		 mov	 DWORD PTR __$EHRec$[ebp+8], 2
  02dc1	68 00 00 00 00	 push	 OFFSET FLAT:$SG203026
  02dc6	8d 4d 84	 lea	 ecx, DWORD PTR $T205448[ebp]
  02dc9	ff 15 00 00 00
	00		 call	 DWORD PTR __imp_??0?$basic_string@DU?$char_traits@D@std@@V?$allocator@D@2@@std@@QAE@PBD@Z
  02dcf	c6 45 fc 03	 mov	 BYTE PTR __$EHRec$[ebp+8], 3
  02dd3	8d 55 a0	 lea	 edx, DWORD PTR $T205447[ebp]
  02dd6	52		 push	 edx
  02dd7	8d 45 84	 lea	 eax, DWORD PTR $T205448[ebp]
  02dda	50		 push	 eax
  02ddb	ff 15 00 00 00
	00		 call	 DWORD PTR __imp_?LogUserActMsg@@YAXABV?$basic_string@DU?$char_traits@D@std@@V?$allocator@D@2@@std@@0@Z
  02de1	83 c4 08	 add	 esp, 8
  02de4	c6 45 fc 02	 mov	 BYTE PTR __$EHRec$[ebp+8], 2
  02de8	8d 4d 84	 lea	 ecx, DWORD PTR $T205448[ebp]
  02deb	ff 15 00 00 00
	00		 call	 DWORD PTR __imp_??1?$basic_string@DU?$char_traits@D@std@@V?$allocator@D@2@@std@@QAE@XZ
  02df1	c7 45 fc ff ff
	ff ff		 mov	 DWORD PTR __$EHRec$[ebp+8], -1
  02df8	8d 4d a0	 lea	 ecx, DWORD PTR $T205447[ebp]
  02dfb	ff 15 00 00 00
	00		 call	 DWORD PTR __imp_??1?$basic_string@DU?$char_traits@D@std@@V?$allocator@D@2@@std@@QAE@XZ

; 724  : 
; 725  : LeaveCriticalSection( &m_csDownInfo );

  02e01	8b 4d 80	 mov	 ecx, DWORD PTR _this$[ebp]
  02e04	83 c1 68	 add	 ecx, 104		; 00000068H
  02e07	51		 push	 ecx
  02e08	ff 15 00 00 00
	00		 call	 DWORD PTR __imp__LeaveCriticalSection@4
$L203013:

; 726  : }

  02e0e	8b 4d f4	 mov	 ecx, DWORD PTR __$EHRec$[ebp]
  02e11	64 89 0d 00 00
	00 00		 mov	 DWORD PTR fs:__except_list, ecx
  02e18	8b e5		 mov	 esp, ebp
  02e1a	5d		 pop	 ebp
  02e1b	c2 08 00	 ret	 8
_TEXT	ENDS
text$x	SEGMENT
$L205449:
  00473	8d 4d d8	 lea	 ecx, DWORD PTR $T205445[ebp]
  00476	ff 25 00 00 00
	00		 jmp	 DWORD PTR __imp_??1?$basic_string@DU?$char_traits@D@std@@V?$allocator@D@2@@std@@QAE@XZ
$L205450:
  0047c	8d 4d bc	 lea	 ecx, DWORD PTR $T205446[ebp]
  0047f	ff 25 00 00 00
	00		 jmp	 DWORD PTR __imp_??1?$basic_string@DU?$char_traits@D@std@@V?$allocator@D@2@@std@@QAE@XZ
$L205451:
  00485	8d 4d a0	 lea	 ecx, DWORD PTR $T205447[ebp]
  00488	ff 25 00 00 00
	00		 jmp	 DWORD PTR __imp_??1?$basic_string@DU?$char_traits@D@std@@V?$allocator@D@2@@std@@QAE@XZ
$L205452:
  0048e	8d 4d 84	 lea	 ecx, DWORD PTR $T205448[ebp]
  00491	ff 25 00 00 00
	00		 jmp	 DWORD PTR __imp_??1?$basic_string@DU?$char_traits@D@std@@V?$allocator@D@2@@std@@QAE@XZ
__ehhandler$?P2POb_DownFailed@CSkinMgrV1@@QAEXABUSign@@W4P2P_DOWN_FAILED_REASON@@@Z:
  00497	b8 00 00 00 00	 mov	 eax, OFFSET FLAT:$T205454
  0049c	e9 00 00 00 00	 jmp	 ___CxxFrameHandler
text$x	ENDS
?P2POb_DownFailed@CSkinMgrV1@@QAEXABUSign@@W4P2P_DOWN_FAILED_REASON@@@Z ENDP ; CSkinMgrV1::P2POb_DownFailed
PUBLIC	?P2POb_DownProgress@CSkinMgrV1@@QAEXABUSign@@III@Z ; CSkinMgrV1::P2POb_DownProgress
xdata$x	SEGMENT
$T205467 DD	0ffffffffH
	DD	FLAT:$L205461
	DD	00H
	DD	FLAT:$L205462
$T205465 DD	019930520H
	DD	02H
	DD	FLAT:$T205467
	DD	2 DUP(00H)
	DD	2 DUP(00H)
; Function compile flags: /Odt
xdata$x	ENDS
_TEXT	SEGMENT
tv143 = -80						; size = 4
_this$ = -76						; size = 4
$T205460 = -72						; size = 4
$T205459 = -68						; size = 28
$T205458 = -40						; size = 28
__$EHRec$ = -12						; size = 12
_sign$ = 8						; size = 4
_unContinue$ = 12					; size = 4
_unFinished$ = 16					; size = 4
_unSpeed$ = 20						; size = 4
?P2POb_DownProgress@CSkinMgrV1@@QAEXABUSign@@III@Z PROC NEAR ; CSkinMgrV1::P2POb_DownProgress
; _this$ = ecx

; 728  : {

  02e20	55		 push	 ebp
  02e21	8b ec		 mov	 ebp, esp
  02e23	6a ff		 push	 -1
  02e25	68 00 00 00 00	 push	 __ehhandler$?P2POb_DownProgress@CSkinMgrV1@@QAEXABUSign@@III@Z
  02e2a	64 a1 00 00 00
	00		 mov	 eax, DWORD PTR fs:__except_list
  02e30	50		 push	 eax
  02e31	64 89 25 00 00
	00 00		 mov	 DWORD PTR fs:__except_list, esp
  02e38	83 ec 44	 sub	 esp, 68			; 00000044H
  02e3b	89 4d b4	 mov	 DWORD PTR _this$[ebp], ecx

; 729  : EnterCriticalSection( &m_csDownInfo );

  02e3e	8b 45 b4	 mov	 eax, DWORD PTR _this$[ebp]
  02e41	83 c0 68	 add	 eax, 104		; 00000068H
  02e44	50		 push	 eax
  02e45	ff 15 00 00 00
	00		 call	 DWORD PTR __imp__EnterCriticalSection@4

; 730  : 	if( !mb_HasPopWnd )

  02e4b	8b 4d b4	 mov	 ecx, DWORD PTR _this$[ebp]
  02e4e	0f b6 51 48	 movzx	 edx, BYTE PTR [ecx+72]
  02e52	85 d2		 test	 edx, edx
  02e54	75 12		 jne	 SHORT $L203034

; 731  : 	{
; 732  : 		LeaveCriticalSection( &m_csDownInfo );

  02e56	8b 45 b4	 mov	 eax, DWORD PTR _this$[ebp]
  02e59	83 c0 68	 add	 eax, 104		; 00000068H
  02e5c	50		 push	 eax
  02e5d	ff 15 00 00 00
	00		 call	 DWORD PTR __imp__LeaveCriticalSection@4

; 733  : 		return;

  02e63	e9 9f 00 00 00	 jmp	 $L203033
$L203034:

; 734  : 	}
; 735  : 	YL_Log("downskin.txt",LOG_DEBUG,"DownStart"," %u,%u,%u",sign.sign1,sign.sign2,unFinished );

  02e68	68 00 00 00 00	 push	 OFFSET FLAT:$SG203038
  02e6d	8d 4d d8	 lea	 ecx, DWORD PTR $T205458[ebp]
  02e70	ff 15 00 00 00
	00		 call	 DWORD PTR __imp_??0?$basic_string@DU?$char_traits@D@std@@V?$allocator@D@2@@std@@QAE@PBD@Z
  02e76	c7 45 fc 00 00
	00 00		 mov	 DWORD PTR __$EHRec$[ebp+8], 0
  02e7d	68 00 00 00 00	 push	 OFFSET FLAT:$SG203039
  02e82	8d 4d bc	 lea	 ecx, DWORD PTR $T205459[ebp]
  02e85	ff 15 00 00 00
	00		 call	 DWORD PTR __imp_??0?$basic_string@DU?$char_traits@D@std@@V?$allocator@D@2@@std@@QAE@PBD@Z
  02e8b	c6 45 fc 01	 mov	 BYTE PTR __$EHRec$[ebp+8], 1
  02e8f	8b 4d 10	 mov	 ecx, DWORD PTR _unFinished$[ebp]
  02e92	51		 push	 ecx
  02e93	8b 55 08	 mov	 edx, DWORD PTR _sign$[ebp]
  02e96	8b 42 04	 mov	 eax, DWORD PTR [edx+4]
  02e99	50		 push	 eax
  02e9a	8b 4d 08	 mov	 ecx, DWORD PTR _sign$[ebp]
  02e9d	8b 11		 mov	 edx, DWORD PTR [ecx]
  02e9f	52		 push	 edx
  02ea0	68 00 00 00 00	 push	 OFFSET FLAT:$SG203037
  02ea5	8d 45 d8	 lea	 eax, DWORD PTR $T205458[ebp]
  02ea8	50		 push	 eax
  02ea9	6a 00		 push	 0
  02eab	8d 4d bc	 lea	 ecx, DWORD PTR $T205459[ebp]
  02eae	51		 push	 ecx
  02eaf	ff 15 00 00 00
	00		 call	 DWORD PTR __imp_?YL_Log@@YAXABV?$basic_string@DU?$char_traits@D@std@@V?$allocator@D@2@@std@@H0PBDZZ
  02eb5	83 c4 1c	 add	 esp, 28			; 0000001cH
  02eb8	c6 45 fc 00	 mov	 BYTE PTR __$EHRec$[ebp+8], 0
  02ebc	8d 4d bc	 lea	 ecx, DWORD PTR $T205459[ebp]
  02ebf	ff 15 00 00 00
	00		 call	 DWORD PTR __imp_??1?$basic_string@DU?$char_traits@D@std@@V?$allocator@D@2@@std@@QAE@XZ
  02ec5	c7 45 fc ff ff
	ff ff		 mov	 DWORD PTR __$EHRec$[ebp+8], -1
  02ecc	8d 4d d8	 lea	 ecx, DWORD PTR $T205458[ebp]
  02ecf	ff 15 00 00 00
	00		 call	 DWORD PTR __imp_??1?$basic_string@DU?$char_traits@D@std@@V?$allocator@D@2@@std@@QAE@XZ

; 736  : 	SetDownloadPercentage((UINT)unFinished, m_strDownSkin);

  02ed5	8b 55 b4	 mov	 edx, DWORD PTR _this$[ebp]
  02ed8	83 c2 58	 add	 edx, 88			; 00000058H
  02edb	51		 push	 ecx
  02edc	8b cc		 mov	 ecx, esp
  02ede	89 65 b8	 mov	 DWORD PTR $T205460[ebp], esp
  02ee1	52		 push	 edx
  02ee2	ff 15 00 00 00
	00		 call	 DWORD PTR __imp_??0?$CStringT@DV?$StrTraitMFC_DLL@DV?$ChTraitsCRT@D@ATL@@@@@ATL@@QAE@ABV01@@Z
  02ee8	89 45 b0	 mov	 DWORD PTR tv143[ebp], eax
  02eeb	8b 45 10	 mov	 eax, DWORD PTR _unFinished$[ebp]
  02eee	50		 push	 eax
  02eef	8b 4d b4	 mov	 ecx, DWORD PTR _this$[ebp]
  02ef2	8b 11		 mov	 edx, DWORD PTR [ecx]
  02ef4	8b 4d b4	 mov	 ecx, DWORD PTR _this$[ebp]
  02ef7	ff 52 50	 call	 DWORD PTR [edx+80]

; 737  : LeaveCriticalSection( &m_csDownInfo );

  02efa	8b 45 b4	 mov	 eax, DWORD PTR _this$[ebp]
  02efd	83 c0 68	 add	 eax, 104		; 00000068H
  02f00	50		 push	 eax
  02f01	ff 15 00 00 00
	00		 call	 DWORD PTR __imp__LeaveCriticalSection@4
$L203033:

; 738  : }

  02f07	8b 4d f4	 mov	 ecx, DWORD PTR __$EHRec$[ebp]
  02f0a	64 89 0d 00 00
	00 00		 mov	 DWORD PTR fs:__except_list, ecx
  02f11	8b e5		 mov	 esp, ebp
  02f13	5d		 pop	 ebp
  02f14	c2 10 00	 ret	 16			; 00000010H
_TEXT	ENDS
text$x	SEGMENT
$L205461:
  004a1	8d 4d d8	 lea	 ecx, DWORD PTR $T205458[ebp]
  004a4	ff 25 00 00 00
	00		 jmp	 DWORD PTR __imp_??1?$basic_string@DU?$char_traits@D@std@@V?$allocator@D@2@@std@@QAE@XZ
$L205462:
  004aa	8d 4d bc	 lea	 ecx, DWORD PTR $T205459[ebp]
  004ad	ff 25 00 00 00
	00		 jmp	 DWORD PTR __imp_??1?$basic_string@DU?$char_traits@D@std@@V?$allocator@D@2@@std@@QAE@XZ
__ehhandler$?P2POb_DownProgress@CSkinMgrV1@@QAEXABUSign@@III@Z:
  004b3	b8 00 00 00 00	 mov	 eax, OFFSET FLAT:$T205465
  004b8	e9 00 00 00 00	 jmp	 ___CxxFrameHandler
text$x	ENDS
?P2POb_DownProgress@CSkinMgrV1@@QAEXABUSign@@III@Z ENDP	; CSkinMgrV1::P2POb_DownProgress
EXTRN	__imp_?Replace@?$CStringT@DV?$StrTraitMFC_DLL@DV?$ChTraitsCRT@D@ATL@@@@@ATL@@QAEHPBD0@Z:NEAR
EXTRN	?GetInstance@CIrregularBorderMgr@@SAPAV1@XZ:NEAR ; CIrregularBorderMgr::GetInstance
EXTRN	?InitTransDlg@CIrregularBorderMgr@@QAEXH@Z:NEAR	; CIrregularBorderMgr::InitTransDlg
xdata$x	SEGMENT
$T205479 DD	0ffffffffH
	DD	FLAT:$L205471
	DD	00H
	DD	FLAT:$L205472
	DD	01H
	DD	FLAT:$L205473
	DD	02H
	DD	FLAT:$L205474
	DD	03H
	DD	FLAT:$L205475
$T205477 DD	019930520H
	DD	05H
	DD	FLAT:$T205479
	DD	2 DUP(00H)
	DD	2 DUP(00H)
; Function compile flags: /Odt
xdata$x	ENDS
_TEXT	SEGMENT
tv134 = -84						; size = 4
tv84 = -80						; size = 4
_this$ = -76						; size = 4
$T205470 = -72						; size = 28
$T205469 = -44						; size = 28
_strLog$ = -16						; size = 4
__$EHRec$ = -12						; size = 12
___formal$ = 8						; size = 4
_subjectName$ = 12					; size = 4
?OnSendChangeSubject@CSkinMgrV1@@UAEXV?$CStringT@DV?$StrTraitMFC_DLL@DV?$ChTraitsCRT@D@ATL@@@@@ATL@@0@Z PROC NEAR ; CSkinMgrV1::OnSendChangeSubject
; _this$ = ecx

; 742  : {

  02f20	55		 push	 ebp
  02f21	8b ec		 mov	 ebp, esp
  02f23	6a ff		 push	 -1
  02f25	68 00 00 00 00	 push	 __ehhandler$?OnSendChangeSubject@CSkinMgrV1@@UAEXV?$CStringT@DV?$StrTraitMFC_DLL@DV?$ChTraitsCRT@D@ATL@@@@@ATL@@0@Z
  02f2a	64 a1 00 00 00
	00		 mov	 eax, DWORD PTR fs:__except_list
  02f30	50		 push	 eax
  02f31	64 89 25 00 00
	00 00		 mov	 DWORD PTR fs:__except_list, esp
  02f38	83 ec 48	 sub	 esp, 72			; 00000048H
  02f3b	89 4d b4	 mov	 DWORD PTR _this$[ebp], ecx
  02f3e	c7 45 fc 01 00
	00 00		 mov	 DWORD PTR __$EHRec$[ebp+8], 1

; 743  : 	CString strLog;

  02f45	8d 4d f0	 lea	 ecx, DWORD PTR _strLog$[ebp]
  02f48	ff 15 00 00 00
	00		 call	 DWORD PTR __imp_??0?$CStringT@DV?$StrTraitMFC_DLL@DV?$ChTraitsCRT@D@ATL@@@@@ATL@@QAE@XZ
  02f4e	c6 45 fc 02	 mov	 BYTE PTR __$EHRec$[ebp+8], 2

; 744  : 	strLog.Format("Sub:%s",subjectName);

  02f52	8b 45 0c	 mov	 eax, DWORD PTR _subjectName$[ebp]
  02f55	50		 push	 eax
  02f56	68 00 00 00 00	 push	 OFFSET FLAT:$SG203048
  02f5b	8d 4d f0	 lea	 ecx, DWORD PTR _strLog$[ebp]
  02f5e	51		 push	 ecx
  02f5f	ff 15 00 00 00
	00		 call	 DWORD PTR __imp_?Format@?$CStringT@DV?$StrTraitMFC_DLL@DV?$ChTraitsCRT@D@ATL@@@@@ATL@@QAAXPBDZZ
  02f65	83 c4 0c	 add	 esp, 12			; 0000000cH

; 745  : 	strLog.Replace("%","");

  02f68	68 00 00 00 00	 push	 OFFSET FLAT:$SG203049
  02f6d	68 00 00 00 00	 push	 OFFSET FLAT:$SG203050
  02f72	8d 4d f0	 lea	 ecx, DWORD PTR _strLog$[ebp]
  02f75	ff 15 00 00 00
	00		 call	 DWORD PTR __imp_?Replace@?$CStringT@DV?$StrTraitMFC_DLL@DV?$ChTraitsCRT@D@ATL@@@@@ATL@@QAEHPBD0@Z

; 746  : 	LogUserActMsg("ClickSub",string(strLog) );

  02f7b	68 00 00 00 00	 push	 OFFSET FLAT:$SG203053
  02f80	8d 4d b8	 lea	 ecx, DWORD PTR $T205470[ebp]
  02f83	ff 15 00 00 00
	00		 call	 DWORD PTR __imp_??0?$basic_string@DU?$char_traits@D@std@@V?$allocator@D@2@@std@@QAE@PBD@Z
  02f89	c6 45 fc 03	 mov	 BYTE PTR __$EHRec$[ebp+8], 3
  02f8d	8d 4d f0	 lea	 ecx, DWORD PTR _strLog$[ebp]
  02f90	ff 15 00 00 00
	00		 call	 DWORD PTR __imp_??B?$CSimpleStringT@D$00@ATL@@QBEPBDXZ
  02f96	50		 push	 eax
  02f97	8d 4d d4	 lea	 ecx, DWORD PTR $T205469[ebp]
  02f9a	ff 15 00 00 00
	00		 call	 DWORD PTR __imp_??0?$basic_string@DU?$char_traits@D@std@@V?$allocator@D@2@@std@@QAE@PBD@Z
  02fa0	89 45 b0	 mov	 DWORD PTR tv84[ebp], eax
  02fa3	8b 55 b0	 mov	 edx, DWORD PTR tv84[ebp]
  02fa6	89 55 ac	 mov	 DWORD PTR tv134[ebp], edx
  02fa9	c6 45 fc 04	 mov	 BYTE PTR __$EHRec$[ebp+8], 4
  02fad	8b 45 ac	 mov	 eax, DWORD PTR tv134[ebp]
  02fb0	50		 push	 eax
  02fb1	8d 4d b8	 lea	 ecx, DWORD PTR $T205470[ebp]
  02fb4	51		 push	 ecx
  02fb5	ff 15 00 00 00
	00		 call	 DWORD PTR __imp_?LogUserActMsg@@YAXABV?$basic_string@DU?$char_traits@D@std@@V?$allocator@D@2@@std@@0@Z
  02fbb	83 c4 08	 add	 esp, 8
  02fbe	c6 45 fc 03	 mov	 BYTE PTR __$EHRec$[ebp+8], 3
  02fc2	8d 4d d4	 lea	 ecx, DWORD PTR $T205469[ebp]
  02fc5	ff 15 00 00 00
	00		 call	 DWORD PTR __imp_??1?$basic_string@DU?$char_traits@D@std@@V?$allocator@D@2@@std@@QAE@XZ
  02fcb	c6 45 fc 02	 mov	 BYTE PTR __$EHRec$[ebp+8], 2
  02fcf	8d 4d b8	 lea	 ecx, DWORD PTR $T205470[ebp]
  02fd2	ff 15 00 00 00
	00		 call	 DWORD PTR __imp_??1?$basic_string@DU?$char_traits@D@std@@V?$allocator@D@2@@std@@QAE@XZ

; 747  : 
; 748  : 	NotifyChangeSubject( subjectName );

  02fd8	8d 55 0c	 lea	 edx, DWORD PTR _subjectName$[ebp]
  02fdb	52		 push	 edx
  02fdc	8b 4d b4	 mov	 ecx, DWORD PTR _this$[ebp]
  02fdf	83 e9 04	 sub	 ecx, 4
  02fe2	8b 45 b4	 mov	 eax, DWORD PTR _this$[ebp]
  02fe5	8b 50 fc	 mov	 edx, DWORD PTR [eax-4]
  02fe8	ff 52 58	 call	 DWORD PTR [edx+88]

; 749  : 
; 750  : 	CIrregularBorderMgr::GetInstance()->InitTransDlg(true);

  02feb	6a 01		 push	 1
  02fed	e8 00 00 00 00	 call	 ?GetInstance@CIrregularBorderMgr@@SAPAV1@XZ ; CIrregularBorderMgr::GetInstance
  02ff2	8b c8		 mov	 ecx, eax
  02ff4	e8 00 00 00 00	 call	 ?InitTransDlg@CIrregularBorderMgr@@QAEXH@Z ; CIrregularBorderMgr::InitTransDlg

; 751  : }

  02ff9	c6 45 fc 01	 mov	 BYTE PTR __$EHRec$[ebp+8], 1
  02ffd	8d 4d f0	 lea	 ecx, DWORD PTR _strLog$[ebp]
  03000	ff 15 00 00 00
	00		 call	 DWORD PTR __imp_??1?$CStringT@DV?$StrTraitMFC_DLL@DV?$ChTraitsCRT@D@ATL@@@@@ATL@@QAE@XZ
  03006	c6 45 fc 00	 mov	 BYTE PTR __$EHRec$[ebp+8], 0
  0300a	8d 4d 08	 lea	 ecx, DWORD PTR ___formal$[ebp]
  0300d	ff 15 00 00 00
	00		 call	 DWORD PTR __imp_??1?$CStringT@DV?$StrTraitMFC_DLL@DV?$ChTraitsCRT@D@ATL@@@@@ATL@@QAE@XZ
  03013	c7 45 fc ff ff
	ff ff		 mov	 DWORD PTR __$EHRec$[ebp+8], -1
  0301a	8d 4d 0c	 lea	 ecx, DWORD PTR _subjectName$[ebp]
  0301d	ff 15 00 00 00
	00		 call	 DWORD PTR __imp_??1?$CStringT@DV?$StrTraitMFC_DLL@DV?$ChTraitsCRT@D@ATL@@@@@ATL@@QAE@XZ
  03023	8b 4d f4	 mov	 ecx, DWORD PTR __$EHRec$[ebp]
  03026	64 89 0d 00 00
	00 00		 mov	 DWORD PTR fs:__except_list, ecx
  0302d	8b e5		 mov	 esp, ebp
  0302f	5d		 pop	 ebp
  03030	c2 08 00	 ret	 8
_TEXT	ENDS
text$x	SEGMENT
$L205471:
  004bd	8d 4d 0c	 lea	 ecx, DWORD PTR _subjectName$[ebp]
  004c0	ff 25 00 00 00
	00		 jmp	 DWORD PTR __imp_??1?$CStringT@DV?$StrTraitMFC_DLL@DV?$ChTraitsCRT@D@ATL@@@@@ATL@@QAE@XZ
$L205472:
  004c6	8d 4d 08	 lea	 ecx, DWORD PTR ___formal$[ebp]
  004c9	ff 25 00 00 00
	00		 jmp	 DWORD PTR __imp_??1?$CStringT@DV?$StrTraitMFC_DLL@DV?$ChTraitsCRT@D@ATL@@@@@ATL@@QAE@XZ
$L205473:
  004cf	8d 4d f0	 lea	 ecx, DWORD PTR _strLog$[ebp]
  004d2	ff 25 00 00 00
	00		 jmp	 DWORD PTR __imp_??1?$CStringT@DV?$StrTraitMFC_DLL@DV?$ChTraitsCRT@D@ATL@@@@@ATL@@QAE@XZ
$L205474:
  004d8	8d 4d b8	 lea	 ecx, DWORD PTR $T205470[ebp]
  004db	ff 25 00 00 00
	00		 jmp	 DWORD PTR __imp_??1?$basic_string@DU?$char_traits@D@std@@V?$allocator@D@2@@std@@QAE@XZ
$L205475:
  004e1	8d 4d d4	 lea	 ecx, DWORD PTR $T205469[ebp]
  004e4	ff 25 00 00 00
	00		 jmp	 DWORD PTR __imp_??1?$basic_string@DU?$char_traits@D@std@@V?$allocator@D@2@@std@@QAE@XZ
__ehhandler$?OnSendChangeSubject@CSkinMgrV1@@UAEXV?$CStringT@DV?$StrTraitMFC_DLL@DV?$ChTraitsCRT@D@ATL@@@@@ATL@@0@Z:
  004ea	b8 00 00 00 00	 mov	 eax, OFFSET FLAT:$T205477
  004ef	e9 00 00 00 00	 jmp	 ___CxxFrameHandler
text$x	ENDS
?OnSendChangeSubject@CSkinMgrV1@@UAEXV?$CStringT@DV?$StrTraitMFC_DLL@DV?$ChTraitsCRT@D@ATL@@@@@ATL@@0@Z ENDP ; CSkinMgrV1::OnSendChangeSubject
EXTRN	?OnChangeSubject@CSkinWnd@@QAEXXZ:NEAR		; CSkinWnd::OnChangeSubject
EXTRN	__imp_??4?$basic_string@DU?$char_traits@D@std@@V?$allocator@D@2@@std@@QAEAAV01@PBD@Z:NEAR
xdata$x	SEGMENT
$T205488 DD	0ffffffffH
	DD	FLAT:$L205483
	DD	0ffffffffH
	DD	FLAT:$L205484
$T205486 DD	019930520H
	DD	02H
	DD	FLAT:$T205488
	DD	2 DUP(00H)
	DD	2 DUP(00H)
; Function compile flags: /Odt
xdata$x	ENDS
_TEXT	SEGMENT
tv176 = -76						; size = 4
tv148 = -72						; size = 4
tv143 = -68						; size = 4
tv193 = -64						; size = 4
tv195 = -60						; size = 4
tv132 = -56						; size = 4
tv95 = -52						; size = 4
tv191 = -45						; size = 1
tv71 = -44						; size = 4
tv66 = -40						; size = 4
tv190 = -36						; size = 4
tv194 = -32						; size = 4
_this$ = -28						; size = 4
$T205482 = -24						; size = 4
$T205481 = -20						; size = 4
_idx$203062 = -16					; size = 4
__$EHRec$ = -12						; size = 12
_strSbName$ = 8						; size = 4
?NotifyChangeSubject@CSkinMgrV1@@UAEXABV?$CStringT@DV?$StrTraitMFC_DLL@DV?$ChTraitsCRT@D@ATL@@@@@ATL@@@Z PROC NEAR ; CSkinMgrV1::NotifyChangeSubject
; _this$ = ecx

; 754  : {	

  03040	55		 push	 ebp
  03041	8b ec		 mov	 ebp, esp
  03043	6a ff		 push	 -1
  03045	68 00 00 00 00	 push	 __ehhandler$?NotifyChangeSubject@CSkinMgrV1@@UAEXABV?$CStringT@DV?$StrTraitMFC_DLL@DV?$ChTraitsCRT@D@ATL@@@@@ATL@@@Z
  0304a	64 a1 00 00 00
	00		 mov	 eax, DWORD PTR fs:__except_list
  03050	50		 push	 eax
  03051	64 89 25 00 00
	00 00		 mov	 DWORD PTR fs:__except_list, esp
  03058	83 ec 40	 sub	 esp, 64			; 00000040H
  0305b	89 4d e4	 mov	 DWORD PTR _this$[ebp], ecx

; 755  : 	if( !AfxGetUIManager()->UIGetSkinMgr()->SubjectToSkin( string(strSbName) ) )

  0305e	8b 4d 08	 mov	 ecx, DWORD PTR _strSbName$[ebp]
  03061	ff 15 00 00 00
	00		 call	 DWORD PTR __imp_??B?$CSimpleStringT@D$00@ATL@@QBEPBDXZ
  03067	83 ec 1c	 sub	 esp, 28			; 0000001cH
  0306a	8b cc		 mov	 ecx, esp
  0306c	89 65 ec	 mov	 DWORD PTR $T205481[ebp], esp
  0306f	50		 push	 eax
  03070	ff 15 00 00 00
	00		 call	 DWORD PTR __imp_??0?$basic_string@DU?$char_traits@D@std@@V?$allocator@D@2@@std@@QAE@PBD@Z
  03076	89 45 e0	 mov	 DWORD PTR tv194[ebp], eax
  03079	8b 45 e0	 mov	 eax, DWORD PTR tv194[ebp]
  0307c	89 45 dc	 mov	 DWORD PTR tv190[ebp], eax
  0307f	c7 45 fc 00 00
	00 00		 mov	 DWORD PTR __$EHRec$[ebp+8], 0
  03086	e8 00 00 00 00	 call	 ?AfxGetUIManager@@YAPAVIUIManager@@XZ ; AfxGetUIManager
  0308b	89 45 d8	 mov	 DWORD PTR tv66[ebp], eax
  0308e	8b 4d d8	 mov	 ecx, DWORD PTR tv66[ebp]
  03091	8b 11		 mov	 edx, DWORD PTR [ecx]
  03093	8b 4d d8	 mov	 ecx, DWORD PTR tv66[ebp]
  03096	ff 52 28	 call	 DWORD PTR [edx+40]
  03099	89 45 d4	 mov	 DWORD PTR tv71[ebp], eax
  0309c	8b 45 d4	 mov	 eax, DWORD PTR tv71[ebp]
  0309f	8b 10		 mov	 edx, DWORD PTR [eax]
  030a1	c7 45 fc ff ff
	ff ff		 mov	 DWORD PTR __$EHRec$[ebp+8], -1
  030a8	8b 4d d4	 mov	 ecx, DWORD PTR tv71[ebp]
  030ab	ff 52 38	 call	 DWORD PTR [edx+56]
  030ae	88 45 d3	 mov	 BYTE PTR tv191[ebp], al
  030b1	0f b6 45 d3	 movzx	 eax, BYTE PTR tv191[ebp]
  030b5	85 c0		 test	 eax, eax
  030b7	75 05		 jne	 SHORT $L203060

; 756  : 	{
; 757  : 		return;

  030b9	e9 e9 00 00 00	 jmp	 $L203057
$L203060:

; 758  : 	}
; 759  : 	AfxGetUIManager()->UIGetSkinMgr()->GetSubject()->strCurSubject = strSbName;

  030be	e8 00 00 00 00	 call	 ?AfxGetUIManager@@YAPAVIUIManager@@XZ ; AfxGetUIManager
  030c3	89 45 cc	 mov	 DWORD PTR tv95[ebp], eax
  030c6	8b 4d cc	 mov	 ecx, DWORD PTR tv95[ebp]
  030c9	8b 11		 mov	 edx, DWORD PTR [ecx]
  030cb	8b 4d cc	 mov	 ecx, DWORD PTR tv95[ebp]
  030ce	ff 52 28	 call	 DWORD PTR [edx+40]
  030d1	89 45 c8	 mov	 DWORD PTR tv132[ebp], eax
  030d4	8b 4d 08	 mov	 ecx, DWORD PTR _strSbName$[ebp]
  030d7	ff 15 00 00 00
	00		 call	 DWORD PTR __imp_??B?$CSimpleStringT@D$00@ATL@@QBEPBDXZ
  030dd	50		 push	 eax
  030de	8b 45 c8	 mov	 eax, DWORD PTR tv132[ebp]
  030e1	8b 10		 mov	 edx, DWORD PTR [eax]
  030e3	8b 4d c8	 mov	 ecx, DWORD PTR tv132[ebp]
  030e6	ff 52 24	 call	 DWORD PTR [edx+36]
  030e9	83 c0 04	 add	 eax, 4
  030ec	8b c8		 mov	 ecx, eax
  030ee	ff 15 00 00 00
	00		 call	 DWORD PTR __imp_??4?$basic_string@DU?$char_traits@D@std@@V?$allocator@D@2@@std@@QAEAAV01@PBD@Z

; 760  : 	AfxGetUIManager()->UIGetLayoutMgr()->OnChangeSubject( strSbName );

  030f4	51		 push	 ecx
  030f5	8b cc		 mov	 ecx, esp
  030f7	89 65 e8	 mov	 DWORD PTR $T205482[ebp], esp
  030fa	8b 45 08	 mov	 eax, DWORD PTR _strSbName$[ebp]
  030fd	50		 push	 eax
  030fe	ff 15 00 00 00
	00		 call	 DWORD PTR __imp_??0?$CStringT@DV?$StrTraitMFC_DLL@DV?$ChTraitsCRT@D@ATL@@@@@ATL@@QAE@ABV01@@Z
  03104	89 45 c4	 mov	 DWORD PTR tv195[ebp], eax
  03107	8b 4d c4	 mov	 ecx, DWORD PTR tv195[ebp]
  0310a	89 4d c0	 mov	 DWORD PTR tv193[ebp], ecx
  0310d	c7 45 fc 01 00
	00 00		 mov	 DWORD PTR __$EHRec$[ebp+8], 1
  03114	e8 00 00 00 00	 call	 ?AfxGetUIManager@@YAPAVIUIManager@@XZ ; AfxGetUIManager
  03119	89 45 bc	 mov	 DWORD PTR tv143[ebp], eax
  0311c	8b 55 bc	 mov	 edx, DWORD PTR tv143[ebp]
  0311f	8b 02		 mov	 eax, DWORD PTR [edx]
  03121	8b 4d bc	 mov	 ecx, DWORD PTR tv143[ebp]
  03124	ff 50 24	 call	 DWORD PTR [eax+36]
  03127	89 45 b8	 mov	 DWORD PTR tv148[ebp], eax
  0312a	8b 4d b8	 mov	 ecx, DWORD PTR tv148[ebp]
  0312d	8b 11		 mov	 edx, DWORD PTR [ecx]
  0312f	c7 45 fc ff ff
	ff ff		 mov	 DWORD PTR __$EHRec$[ebp+8], -1
  03136	8b 4d b8	 mov	 ecx, DWORD PTR tv148[ebp]
  03139	ff 52 64	 call	 DWORD PTR [edx+100]

; 761  : 
; 762  : 	for(size_t idx = 0;idx < mp_changeSkinEven.size();idx++ )

  0313c	c7 45 f0 00 00
	00 00		 mov	 DWORD PTR _idx$203062[ebp], 0
  03143	eb 09		 jmp	 SHORT $L203063
$L203064:
  03145	8b 45 f0	 mov	 eax, DWORD PTR _idx$203062[ebp]
  03148	83 c0 01	 add	 eax, 1
  0314b	89 45 f0	 mov	 DWORD PTR _idx$203062[ebp], eax
$L203063:
  0314e	8b 4d e4	 mov	 ecx, DWORD PTR _this$[ebp]
  03151	83 c1 38	 add	 ecx, 56			; 00000038H
  03154	e8 00 00 00 00	 call	 ?size@?$vector@PAVIChangeSkinEventListener@@V?$allocator@PAVIChangeSkinEventListener@@@std@@@std@@QBEIXZ ; std::vector<IChangeSkinEventListener *,std::allocator<IChangeSkinEventListener *> >::size
  03159	39 45 f0	 cmp	 DWORD PTR _idx$203062[ebp], eax
  0315c	73 21		 jae	 SHORT $L203065

; 763  : 	{
; 764  : 		mp_changeSkinEven[idx]->OnChangeSubject();

  0315e	8b 4d f0	 mov	 ecx, DWORD PTR _idx$203062[ebp]
  03161	51		 push	 ecx
  03162	8b 4d e4	 mov	 ecx, DWORD PTR _this$[ebp]
  03165	83 c1 38	 add	 ecx, 56			; 00000038H
  03168	e8 00 00 00 00	 call	 ??A?$vector@PAVIChangeSkinEventListener@@V?$allocator@PAVIChangeSkinEventListener@@@std@@@std@@QAEAAPAVIChangeSkinEventListener@@I@Z ; std::vector<IChangeSkinEventListener *,std::allocator<IChangeSkinEventListener *> >::operator[]
  0316d	8b 10		 mov	 edx, DWORD PTR [eax]
  0316f	89 55 b4	 mov	 DWORD PTR tv176[ebp], edx
  03172	8b 45 b4	 mov	 eax, DWORD PTR tv176[ebp]
  03175	8b 10		 mov	 edx, DWORD PTR [eax]
  03177	8b 4d b4	 mov	 ecx, DWORD PTR tv176[ebp]
  0317a	ff 52 08	 call	 DWORD PTR [edx+8]

; 765  : 	}		

  0317d	eb c6		 jmp	 SHORT $L203064
$L203065:

; 766  : 
; 767  : 	if( mp_skinWnd && ::IsWindow(mp_skinWnd->m_hWnd))

  0317f	8b 45 e4	 mov	 eax, DWORD PTR _this$[ebp]
  03182	83 78 14 00	 cmp	 DWORD PTR [eax+20], 0
  03186	74 1f		 je	 SHORT $L203057
  03188	8b 4d e4	 mov	 ecx, DWORD PTR _this$[ebp]
  0318b	8b 51 14	 mov	 edx, DWORD PTR [ecx+20]
  0318e	8b 42 20	 mov	 eax, DWORD PTR [edx+32]
  03191	50		 push	 eax
  03192	ff 15 00 00 00
	00		 call	 DWORD PTR __imp__IsWindow@4
  03198	85 c0		 test	 eax, eax
  0319a	74 0b		 je	 SHORT $L203057

; 768  : 	{
; 769  : 		mp_skinWnd->OnChangeSubject();

  0319c	8b 4d e4	 mov	 ecx, DWORD PTR _this$[ebp]
  0319f	8b 49 14	 mov	 ecx, DWORD PTR [ecx+20]
  031a2	e8 00 00 00 00	 call	 ?OnChangeSubject@CSkinWnd@@QAEXXZ ; CSkinWnd::OnChangeSubject
$L203057:

; 770  : 	}
; 771  : }

  031a7	8b 4d f4	 mov	 ecx, DWORD PTR __$EHRec$[ebp]
  031aa	64 89 0d 00 00
	00 00		 mov	 DWORD PTR fs:__except_list, ecx
  031b1	8b e5		 mov	 esp, ebp
  031b3	5d		 pop	 ebp
  031b4	c2 04 00	 ret	 4
_TEXT	ENDS
text$x	SEGMENT
$L205483:
  004f4	8b 4d ec	 mov	 ecx, DWORD PTR $T205481[ebp]
  004f7	ff 25 00 00 00
	00		 jmp	 DWORD PTR __imp_??1?$basic_string@DU?$char_traits@D@std@@V?$allocator@D@2@@std@@QAE@XZ
$L205484:
  004fd	8b 4d e8	 mov	 ecx, DWORD PTR $T205482[ebp]
  00500	ff 25 00 00 00
	00		 jmp	 DWORD PTR __imp_??1?$CStringT@DV?$StrTraitMFC_DLL@DV?$ChTraitsCRT@D@ATL@@@@@ATL@@QAE@XZ
__ehhandler$?NotifyChangeSubject@CSkinMgrV1@@UAEXABV?$CStringT@DV?$StrTraitMFC_DLL@DV?$ChTraitsCRT@D@ATL@@@@@ATL@@@Z:
  00506	b8 00 00 00 00	 mov	 eax, OFFSET FLAT:$T205486
  0050b	e9 00 00 00 00	 jmp	 ___CxxFrameHandler
text$x	ENDS
?NotifyChangeSubject@CSkinMgrV1@@UAEXABV?$CStringT@DV?$StrTraitMFC_DLL@DV?$ChTraitsCRT@D@ATL@@@@@ATL@@@Z ENDP ; CSkinMgrV1::NotifyChangeSubject
; Function compile flags: /Odt
_TEXT	SEGMENT
_this$ = -4						; size = 4
?CloseSkinWnd@CSkinMgrV1@@UAE_NXZ PROC NEAR		; CSkinMgrV1::CloseSkinWnd
; _this$ = ecx

; 774  : {

  031c0	55		 push	 ebp
  031c1	8b ec		 mov	 ebp, esp
  031c3	51		 push	 ecx
  031c4	89 4d fc	 mov	 DWORD PTR _this$[ebp], ecx

; 775  : 	EnterCriticalSection( &m_csDownInfo );

  031c7	8b 45 fc	 mov	 eax, DWORD PTR _this$[ebp]
  031ca	83 c0 68	 add	 eax, 104		; 00000068H
  031cd	50		 push	 eax
  031ce	ff 15 00 00 00
	00		 call	 DWORD PTR __imp__EnterCriticalSection@4

; 776  : 	mb_HasPopWnd = false;	

  031d4	8b 4d fc	 mov	 ecx, DWORD PTR _this$[ebp]
  031d7	c6 41 48 00	 mov	 BYTE PTR [ecx+72], 0

; 777  : 	mp_mainSkinWnd = NULL;

  031db	8b 55 fc	 mov	 edx, DWORD PTR _this$[ebp]
  031de	c7 42 10 00 00
	00 00		 mov	 DWORD PTR [edx+16], 0

; 778  : 
; 779  : //	mb_isDownSubject = false;
; 780  : 
; 781  : 	LeaveCriticalSection( &m_csDownInfo );

  031e5	8b 45 fc	 mov	 eax, DWORD PTR _this$[ebp]
  031e8	83 c0 68	 add	 eax, 104		; 00000068H
  031eb	50		 push	 eax
  031ec	ff 15 00 00 00
	00		 call	 DWORD PTR __imp__LeaveCriticalSection@4

; 782  : 	return true;

  031f2	b0 01		 mov	 al, 1

; 783  : }

  031f4	8b e5		 mov	 esp, ebp
  031f6	5d		 pop	 ebp
  031f7	c3		 ret	 0
?CloseSkinWnd@CSkinMgrV1@@UAE_NXZ ENDP			; CSkinMgrV1::CloseSkinWnd
; Function compile flags: /Odt
_this$ = -4						; size = 4
_aColor$ = 8						; size = 4
?SetSelectedColor@CSkinMgrV1@@UAEXK@Z PROC NEAR		; CSkinMgrV1::SetSelectedColor
; _this$ = ecx

; 787  : {

  03200	55		 push	 ebp
  03201	8b ec		 mov	 ebp, esp
  03203	51		 push	 ecx
  03204	89 4d fc	 mov	 DWORD PTR _this$[ebp], ecx

; 788  : 	m_BaseColor = aColor;

  03207	8b 45 fc	 mov	 eax, DWORD PTR _this$[ebp]
  0320a	8b 4d 08	 mov	 ecx, DWORD PTR _aColor$[ebp]
  0320d	89 48 28	 mov	 DWORD PTR [eax+40], ecx

; 789  : }

  03210	8b e5		 mov	 esp, ebp
  03212	5d		 pop	 ebp
  03213	c2 04 00	 ret	 4
?SetSelectedColor@CSkinMgrV1@@UAEXK@Z ENDP		; CSkinMgrV1::SetSelectedColor
; Function compile flags: /Odt
_this$ = -4						; size = 4
_str$ = 8						; size = 4
?ClickSub@CSkinMgrV1@@UAEXABV?$CStringT@DV?$StrTraitMFC_DLL@DV?$ChTraitsCRT@D@ATL@@@@@ATL@@@Z PROC NEAR ; CSkinMgrV1::ClickSub
; _this$ = ecx

; 792  : {

  03220	55		 push	 ebp
  03221	8b ec		 mov	 ebp, esp
  03223	51		 push	 ecx
  03224	89 4d fc	 mov	 DWORD PTR _this$[ebp], ecx

; 793  : 	if( mp_SubjectWnd && IsWindow(mp_SubjectWnd->GetSafeHwnd()))

  03227	8b 45 fc	 mov	 eax, DWORD PTR _this$[ebp]
  0322a	83 78 18 00	 cmp	 DWORD PTR [eax+24], 0
  0322e	74 30		 je	 SHORT $L203077
  03230	8b 4d fc	 mov	 ecx, DWORD PTR _this$[ebp]
  03233	8b 49 18	 mov	 ecx, DWORD PTR [ecx+24]
  03236	e8 00 00 00 00	 call	 ?GetSafeHwnd@CWnd@@QBEPAUHWND__@@XZ ; CWnd::GetSafeHwnd
  0323b	50		 push	 eax
  0323c	ff 15 00 00 00
	00		 call	 DWORD PTR __imp__IsWindow@4
  03242	85 c0		 test	 eax, eax
  03244	74 1a		 je	 SHORT $L203077

; 794  : 	{
; 795  : 		mp_SubjectWnd->OnCliekButton( str );

  03246	8b 55 08	 mov	 edx, DWORD PTR _str$[ebp]
  03249	52		 push	 edx
  0324a	8b 45 fc	 mov	 eax, DWORD PTR _this$[ebp]
  0324d	8b 48 18	 mov	 ecx, DWORD PTR [eax+24]
  03250	8b 55 fc	 mov	 edx, DWORD PTR _this$[ebp]
  03253	8b 42 18	 mov	 eax, DWORD PTR [edx+24]
  03256	8b 11		 mov	 edx, DWORD PTR [ecx]
  03258	8b c8		 mov	 ecx, eax
  0325a	ff 92 78 01 00
	00		 call	 DWORD PTR [edx+376]
$L203077:

; 796  : 	}
; 797  : }

  03260	8b e5		 mov	 esp, ebp
  03262	5d		 pop	 ebp
  03263	c2 04 00	 ret	 4
?ClickSub@CSkinMgrV1@@UAEXABV?$CStringT@DV?$StrTraitMFC_DLL@DV?$ChTraitsCRT@D@ATL@@@@@ATL@@@Z ENDP ; CSkinMgrV1::ClickSub
_TEXT	ENDS
EXTRN	?SkinChanged@CSkinWnd@@QAEXABV?$basic_string@DU?$char_traits@D@std@@V?$allocator@D@2@@std@@@Z:NEAR ; CSkinWnd::SkinChanged
xdata$x	SEGMENT
$T205498 DD	0ffffffffH
	DD	FLAT:$L205493
	DD	00H
	DD	FLAT:$L205494
$T205496 DD	019930520H
	DD	02H
	DD	FLAT:$T205498
	DD	2 DUP(00H)
	DD	2 DUP(00H)
; Function compile flags: /Odt
xdata$x	ENDS
_TEXT	SEGMENT
_this$ = -16						; size = 4
__$EHRec$ = -12						; size = 12
_oldSkinPath$ = 8					; size = 28
_newSkinPath$ = 36					; size = 28
?ILayoutChangeOb_SkinChanged@CSkinMgrV1@@UAEXV?$basic_string@DU?$char_traits@D@std@@V?$allocator@D@2@@std@@0@Z PROC NEAR ; CSkinMgrV1::ILayoutChangeOb_SkinChanged
; _this$ = ecx

; 800  : {

  03270	55		 push	 ebp
  03271	8b ec		 mov	 ebp, esp
  03273	6a ff		 push	 -1
  03275	68 00 00 00 00	 push	 __ehhandler$?ILayoutChangeOb_SkinChanged@CSkinMgrV1@@UAEXV?$basic_string@DU?$char_traits@D@std@@V?$allocator@D@2@@std@@0@Z
  0327a	64 a1 00 00 00
	00		 mov	 eax, DWORD PTR fs:__except_list
  03280	50		 push	 eax
  03281	64 89 25 00 00
	00 00		 mov	 DWORD PTR fs:__except_list, esp
  03288	51		 push	 ecx
  03289	89 4d f0	 mov	 DWORD PTR _this$[ebp], ecx
  0328c	c7 45 fc 01 00
	00 00		 mov	 DWORD PTR __$EHRec$[ebp+8], 1

; 801  : 	if( mb_HasPopWnd )

  03293	8b 45 f0	 mov	 eax, DWORD PTR _this$[ebp]
  03296	0f b6 48 3c	 movzx	 ecx, BYTE PTR [eax+60]
  0329a	85 c9		 test	 ecx, ecx
  0329c	74 18		 je	 SHORT $L203084

; 802  : 	{
; 803  : 		if( mp_skinWnd )

  0329e	8b 55 f0	 mov	 edx, DWORD PTR _this$[ebp]
  032a1	83 7a 08 00	 cmp	 DWORD PTR [edx+8], 0
  032a5	74 0f		 je	 SHORT $L203084

; 804  : 		{
; 805  : 			mp_skinWnd->SkinChanged( newSkinPath );

  032a7	8d 45 24	 lea	 eax, DWORD PTR _newSkinPath$[ebp]
  032aa	50		 push	 eax
  032ab	8b 4d f0	 mov	 ecx, DWORD PTR _this$[ebp]
  032ae	8b 49 08	 mov	 ecx, DWORD PTR [ecx+8]
  032b1	e8 00 00 00 00	 call	 ?SkinChanged@CSkinWnd@@QAEXABV?$basic_string@DU?$char_traits@D@std@@V?$allocator@D@2@@std@@@Z ; CSkinWnd::SkinChanged
$L203084:

; 806  : 		}
; 807  : 	}
; 808  : }

  032b6	c6 45 fc 00	 mov	 BYTE PTR __$EHRec$[ebp+8], 0
  032ba	8d 4d 08	 lea	 ecx, DWORD PTR _oldSkinPath$[ebp]
  032bd	ff 15 00 00 00
	00		 call	 DWORD PTR __imp_??1?$basic_string@DU?$char_traits@D@std@@V?$allocator@D@2@@std@@QAE@XZ
  032c3	c7 45 fc ff ff
	ff ff		 mov	 DWORD PTR __$EHRec$[ebp+8], -1
  032ca	8d 4d 24	 lea	 ecx, DWORD PTR _newSkinPath$[ebp]
  032cd	ff 15 00 00 00
	00		 call	 DWORD PTR __imp_??1?$basic_string@DU?$char_traits@D@std@@V?$allocator@D@2@@std@@QAE@XZ
  032d3	8b 4d f4	 mov	 ecx, DWORD PTR __$EHRec$[ebp]
  032d6	64 89 0d 00 00
	00 00		 mov	 DWORD PTR fs:__except_list, ecx
  032dd	8b e5		 mov	 esp, ebp
  032df	5d		 pop	 ebp
  032e0	c2 38 00	 ret	 56			; 00000038H
_TEXT	ENDS
text$x	SEGMENT
$L205493:
  00510	8d 4d 24	 lea	 ecx, DWORD PTR _newSkinPath$[ebp]
  00513	ff 25 00 00 00
	00		 jmp	 DWORD PTR __imp_??1?$basic_string@DU?$char_traits@D@std@@V?$allocator@D@2@@std@@QAE@XZ
$L205494:
  00519	8d 4d 08	 lea	 ecx, DWORD PTR _oldSkinPath$[ebp]
  0051c	ff 25 00 00 00
	00		 jmp	 DWORD PTR __imp_??1?$basic_string@DU?$char_traits@D@std@@V?$allocator@D@2@@std@@QAE@XZ
__ehhandler$?ILayoutChangeOb_SkinChanged@CSkinMgrV1@@UAEXV?$basic_string@DU?$char_traits@D@std@@V?$allocator@D@2@@std@@0@Z:
  00522	b8 00 00 00 00	 mov	 eax, OFFSET FLAT:$T205496
  00527	e9 00 00 00 00	 jmp	 ___CxxFrameHandler
text$x	ENDS
?ILayoutChangeOb_SkinChanged@CSkinMgrV1@@UAEXV?$basic_string@DU?$char_traits@D@std@@V?$allocator@D@2@@std@@0@Z ENDP ; CSkinMgrV1::ILayoutChangeOb_SkinChanged
PUBLIC	?DownloadSubStart@CSkinMgrV1@@QAEXABV?$CStringT@DV?$StrTraitMFC_DLL@DV?$ChTraitsCRT@D@ATL@@@@@ATL@@@Z ; CSkinMgrV1::DownloadSubStart
EXTRN	?ReqDownSub@CDownSub@@SAXABV?$CStringT@DV?$StrTraitMFC_DLL@DV?$ChTraitsCRT@D@ATL@@@@@ATL@@PAUHWND__@@@Z:NEAR ; CDownSub::ReqDownSub
xdata$x	SEGMENT
$T205511 DD	0ffffffffH
	DD	FLAT:$L205504
	DD	00H
	DD	FLAT:$L205505
	DD	0ffffffffH
	DD	FLAT:$L205506
	DD	02H
	DD	FLAT:$L205507
$T205509 DD	019930520H
	DD	04H
	DD	FLAT:$T205511
	DD	2 DUP(00H)
	DD	2 DUP(00H)
; Function compile flags: /Odt
xdata$x	ENDS
_TEXT	SEGMENT
_this$ = -128						; size = 4
$T205503 = -124						; size = 28
$T205502 = -96						; size = 28
$T205501 = -68						; size = 28
$T205500 = -40						; size = 28
__$EHRec$ = -12						; size = 12
_strSubName$ = 8					; size = 4
?OnStartDownSubject@CSkinMgrV1@@UAEXABV?$CStringT@DV?$StrTraitMFC_DLL@DV?$ChTraitsCRT@D@ATL@@@@@ATL@@@Z PROC NEAR ; CSkinMgrV1::OnStartDownSubject
; _this$ = ecx

; 811  : {

  032f0	55		 push	 ebp
  032f1	8b ec		 mov	 ebp, esp
  032f3	6a ff		 push	 -1
  032f5	68 00 00 00 00	 push	 __ehhandler$?OnStartDownSubject@CSkinMgrV1@@UAEXABV?$CStringT@DV?$StrTraitMFC_DLL@DV?$ChTraitsCRT@D@ATL@@@@@ATL@@@Z
  032fa	64 a1 00 00 00
	00		 mov	 eax, DWORD PTR fs:__except_list
  03300	50		 push	 eax
  03301	64 89 25 00 00
	00 00		 mov	 DWORD PTR fs:__except_list, esp
  03308	83 ec 74	 sub	 esp, 116		; 00000074H
  0330b	89 4d 80	 mov	 DWORD PTR _this$[ebp], ecx

; 812  : 	YL_Log("SkinB.txt",LOG_DEBUG,"Click-In","3");

  0330e	68 00 00 00 00	 push	 OFFSET FLAT:$SG203093
  03313	8d 4d d8	 lea	 ecx, DWORD PTR $T205500[ebp]
  03316	ff 15 00 00 00
	00		 call	 DWORD PTR __imp_??0?$basic_string@DU?$char_traits@D@std@@V?$allocator@D@2@@std@@QAE@PBD@Z
  0331c	c7 45 fc 00 00
	00 00		 mov	 DWORD PTR __$EHRec$[ebp+8], 0
  03323	68 00 00 00 00	 push	 OFFSET FLAT:$SG203094
  03328	8d 4d bc	 lea	 ecx, DWORD PTR $T205501[ebp]
  0332b	ff 15 00 00 00
	00		 call	 DWORD PTR __imp_??0?$basic_string@DU?$char_traits@D@std@@V?$allocator@D@2@@std@@QAE@PBD@Z
  03331	c6 45 fc 01	 mov	 BYTE PTR __$EHRec$[ebp+8], 1
  03335	68 00 00 00 00	 push	 OFFSET FLAT:$SG203092
  0333a	8d 45 d8	 lea	 eax, DWORD PTR $T205500[ebp]
  0333d	50		 push	 eax
  0333e	6a 00		 push	 0
  03340	8d 4d bc	 lea	 ecx, DWORD PTR $T205501[ebp]
  03343	51		 push	 ecx
  03344	ff 15 00 00 00
	00		 call	 DWORD PTR __imp_?YL_Log@@YAXABV?$basic_string@DU?$char_traits@D@std@@V?$allocator@D@2@@std@@H0PBDZZ
  0334a	83 c4 10	 add	 esp, 16			; 00000010H
  0334d	c6 45 fc 00	 mov	 BYTE PTR __$EHRec$[ebp+8], 0
  03351	8d 4d bc	 lea	 ecx, DWORD PTR $T205501[ebp]
  03354	ff 15 00 00 00
	00		 call	 DWORD PTR __imp_??1?$basic_string@DU?$char_traits@D@std@@V?$allocator@D@2@@std@@QAE@XZ
  0335a	c7 45 fc ff ff
	ff ff		 mov	 DWORD PTR __$EHRec$[ebp+8], -1
  03361	8d 4d d8	 lea	 ecx, DWORD PTR $T205500[ebp]
  03364	ff 15 00 00 00
	00		 call	 DWORD PTR __imp_??1?$basic_string@DU?$char_traits@D@std@@V?$allocator@D@2@@std@@QAE@XZ

; 813  : 	YL_Log("downskin.txt",LOG_DEBUG,"DownStart"," %s",strSubName);	

  0336a	68 00 00 00 00	 push	 OFFSET FLAT:$SG203098
  0336f	8d 4d a0	 lea	 ecx, DWORD PTR $T205502[ebp]
  03372	ff 15 00 00 00
	00		 call	 DWORD PTR __imp_??0?$basic_string@DU?$char_traits@D@std@@V?$allocator@D@2@@std@@QAE@PBD@Z
  03378	c7 45 fc 02 00
	00 00		 mov	 DWORD PTR __$EHRec$[ebp+8], 2
  0337f	68 00 00 00 00	 push	 OFFSET FLAT:$SG203099
  03384	8d 4d 84	 lea	 ecx, DWORD PTR $T205503[ebp]
  03387	ff 15 00 00 00
	00		 call	 DWORD PTR __imp_??0?$basic_string@DU?$char_traits@D@std@@V?$allocator@D@2@@std@@QAE@PBD@Z
  0338d	c6 45 fc 03	 mov	 BYTE PTR __$EHRec$[ebp+8], 3
  03391	8b 55 08	 mov	 edx, DWORD PTR _strSubName$[ebp]
  03394	8b 02		 mov	 eax, DWORD PTR [edx]
  03396	50		 push	 eax
  03397	68 00 00 00 00	 push	 OFFSET FLAT:$SG203097
  0339c	8d 4d a0	 lea	 ecx, DWORD PTR $T205502[ebp]
  0339f	51		 push	 ecx
  033a0	6a 00		 push	 0
  033a2	8d 55 84	 lea	 edx, DWORD PTR $T205503[ebp]
  033a5	52		 push	 edx
  033a6	ff 15 00 00 00
	00		 call	 DWORD PTR __imp_?YL_Log@@YAXABV?$basic_string@DU?$char_traits@D@std@@V?$allocator@D@2@@std@@H0PBDZZ
  033ac	83 c4 14	 add	 esp, 20			; 00000014H
  033af	c6 45 fc 02	 mov	 BYTE PTR __$EHRec$[ebp+8], 2
  033b3	8d 4d 84	 lea	 ecx, DWORD PTR $T205503[ebp]
  033b6	ff 15 00 00 00
	00		 call	 DWORD PTR __imp_??1?$basic_string@DU?$char_traits@D@std@@V?$allocator@D@2@@std@@QAE@XZ
  033bc	c7 45 fc ff ff
	ff ff		 mov	 DWORD PTR __$EHRec$[ebp+8], -1
  033c3	8d 4d a0	 lea	 ecx, DWORD PTR $T205502[ebp]
  033c6	ff 15 00 00 00
	00		 call	 DWORD PTR __imp_??1?$basic_string@DU?$char_traits@D@std@@V?$allocator@D@2@@std@@QAE@XZ

; 814  : 	DownloadSubStart(strSubName);

  033cc	8b 45 08	 mov	 eax, DWORD PTR _strSubName$[ebp]
  033cf	50		 push	 eax
  033d0	8b 4d 80	 mov	 ecx, DWORD PTR _this$[ebp]
  033d3	83 e9 04	 sub	 ecx, 4
  033d6	e8 00 00 00 00	 call	 ?DownloadSubStart@CSkinMgrV1@@QAEXABV?$CStringT@DV?$StrTraitMFC_DLL@DV?$ChTraitsCRT@D@ATL@@@@@ATL@@@Z ; CSkinMgrV1::DownloadSubStart

; 815  : 	CDownSub::ReqDownSub( strSubName,mp_downloadSubject->m_hWnd );

  033db	8b 4d 80	 mov	 ecx, DWORD PTR _this$[ebp]
  033de	8b 51 20	 mov	 edx, DWORD PTR [ecx+32]
  033e1	8b 42 20	 mov	 eax, DWORD PTR [edx+32]
  033e4	50		 push	 eax
  033e5	8b 4d 08	 mov	 ecx, DWORD PTR _strSubName$[ebp]
  033e8	51		 push	 ecx
  033e9	e8 00 00 00 00	 call	 ?ReqDownSub@CDownSub@@SAXABV?$CStringT@DV?$StrTraitMFC_DLL@DV?$ChTraitsCRT@D@ATL@@@@@ATL@@PAUHWND__@@@Z ; CDownSub::ReqDownSub
  033ee	83 c4 08	 add	 esp, 8

; 816  : 
; 817  : 	m_strDownSubName = strSubName;

  033f1	8b 55 08	 mov	 edx, DWORD PTR _strSubName$[ebp]
  033f4	52		 push	 edx
  033f5	8b 4d 80	 mov	 ecx, DWORD PTR _this$[ebp]
  033f8	83 c1 5c	 add	 ecx, 92			; 0000005cH
  033fb	ff 15 00 00 00
	00		 call	 DWORD PTR __imp_??4?$CStringT@DV?$StrTraitMFC_DLL@DV?$ChTraitsCRT@D@ATL@@@@@ATL@@QAEAAV01@ABV01@@Z

; 818  : }

  03401	8b 4d f4	 mov	 ecx, DWORD PTR __$EHRec$[ebp]
  03404	64 89 0d 00 00
	00 00		 mov	 DWORD PTR fs:__except_list, ecx
  0340b	8b e5		 mov	 esp, ebp
  0340d	5d		 pop	 ebp
  0340e	c2 04 00	 ret	 4
_TEXT	ENDS
text$x	SEGMENT
$L205504:
  0052c	8d 4d d8	 lea	 ecx, DWORD PTR $T205500[ebp]
  0052f	ff 25 00 00 00
	00		 jmp	 DWORD PTR __imp_??1?$basic_string@DU?$char_traits@D@std@@V?$allocator@D@2@@std@@QAE@XZ
$L205505:
  00535	8d 4d bc	 lea	 ecx, DWORD PTR $T205501[ebp]
  00538	ff 25 00 00 00
	00		 jmp	 DWORD PTR __imp_??1?$basic_string@DU?$char_traits@D@std@@V?$allocator@D@2@@std@@QAE@XZ
$L205506:
  0053e	8d 4d a0	 lea	 ecx, DWORD PTR $T205502[ebp]
  00541	ff 25 00 00 00
	00		 jmp	 DWORD PTR __imp_??1?$basic_string@DU?$char_traits@D@std@@V?$allocator@D@2@@std@@QAE@XZ
$L205507:
  00547	8d 4d 84	 lea	 ecx, DWORD PTR $T205503[ebp]
  0054a	ff 25 00 00 00
	00		 jmp	 DWORD PTR __imp_??1?$basic_string@DU?$char_traits@D@std@@V?$allocator@D@2@@std@@QAE@XZ
__ehhandler$?OnStartDownSubject@CSkinMgrV1@@UAEXABV?$CStringT@DV?$StrTraitMFC_DLL@DV?$ChTraitsCRT@D@ATL@@@@@ATL@@@Z:
  00550	b8 00 00 00 00	 mov	 eax, OFFSET FLAT:$T205509
  00555	e9 00 00 00 00	 jmp	 ___CxxFrameHandler
text$x	ENDS
?OnStartDownSubject@CSkinMgrV1@@UAEXABV?$CStringT@DV?$StrTraitMFC_DLL@DV?$ChTraitsCRT@D@ATL@@@@@ATL@@@Z ENDP ; CSkinMgrV1::OnStartDownSubject
PUBLIC	?DownloadSubFinish@CSkinMgrV1@@QAEXABV?$CStringT@DV?$StrTraitMFC_DLL@DV?$ChTraitsCRT@D@ATL@@@@@ATL@@H@Z ; CSkinMgrV1::DownloadSubFinish
PUBLIC	?DownloadWebSubFinish@CSkinMgrV1@@QAEXABV?$CStringT@DV?$StrTraitMFC_DLL@DV?$ChTraitsCRT@D@ATL@@@@@ATL@@H@Z ; CSkinMgrV1::DownloadWebSubFinish
PUBLIC	?InstallWebSubject@CSkinMgrV1@@QAEXV?$basic_string@DU?$char_traits@D@std@@V?$allocator@D@2@@std@@@Z ; CSkinMgrV1::InstallWebSubject
PUBLIC	?InsertSubject@CSkinMgrV1@@QAEXV?$basic_string@DU?$char_traits@D@std@@V?$allocator@D@2@@std@@@Z ; CSkinMgrV1::InsertSubject
xdata$x	SEGMENT
$T205523 DD	0ffffffffH
	DD	FLAT:$L205516
$T205520 DD	019930520H
	DD	01H
	DD	FLAT:$T205523
	DD	2 DUP(00H)
	DD	2 DUP(00H)
; Function compile flags: /Odt
xdata$x	ENDS
_TEXT	SEGMENT
tv160 = -64						; size = 4
tv158 = -60						; size = 4
_this$ = -56						; size = 4
$T205515 = -52						; size = 4
$T205514 = -48						; size = 4
_strName$203105 = -44					; size = 28
__$ArrayPad$ = -16					; size = 4
__$EHRec$ = -12						; size = 12
__$ReturnAddr$ = 4					; size = 4
_bSuc$ = 8						; size = 4
?OnFinishDownSubject@CSkinMgrV1@@UAEXH@Z PROC NEAR	; CSkinMgrV1::OnFinishDownSubject
; _this$ = ecx

; 821  : {

  03420	55		 push	 ebp
  03421	8b ec		 mov	 ebp, esp
  03423	6a ff		 push	 -1
  03425	68 00 00 00 00	 push	 __ehhandler$?OnFinishDownSubject@CSkinMgrV1@@UAEXH@Z
  0342a	64 a1 00 00 00
	00		 mov	 eax, DWORD PTR fs:__except_list
  03430	50		 push	 eax
  03431	64 89 25 00 00
	00 00		 mov	 DWORD PTR fs:__except_list, esp
  03438	83 ec 34	 sub	 esp, 52			; 00000034H
  0343b	a1 00 00 00 00	 mov	 eax, DWORD PTR ___security_cookie
  03440	89 45 f0	 mov	 DWORD PTR __$ArrayPad$[ebp], eax
  03443	89 4d c8	 mov	 DWORD PTR _this$[ebp], ecx

; 822  : 	mb_isDownSubject = false;

  03446	8b 45 c8	 mov	 eax, DWORD PTR _this$[ebp]
  03449	c6 40 46 00	 mov	 BYTE PTR [eax+70], 0

; 823  : 	if(mb_isDownWebSub)

  0344d	8b 4d c8	 mov	 ecx, DWORD PTR _this$[ebp]
  03450	0f b6 51 47	 movzx	 edx, BYTE PTR [ecx+71]
  03454	85 d2		 test	 edx, edx
  03456	0f 84 8c 00 00
	00		 je	 $L203104

; 824  : 	{
; 825  : 		string strName = m_strDownSubName;

  0345c	8b 4d c8	 mov	 ecx, DWORD PTR _this$[ebp]
  0345f	83 c1 5c	 add	 ecx, 92			; 0000005cH
  03462	ff 15 00 00 00
	00		 call	 DWORD PTR __imp_??B?$CSimpleStringT@D$00@ATL@@QBEPBDXZ
  03468	50		 push	 eax
  03469	8d 4d d4	 lea	 ecx, DWORD PTR _strName$203105[ebp]
  0346c	ff 15 00 00 00
	00		 call	 DWORD PTR __imp_??0?$basic_string@DU?$char_traits@D@std@@V?$allocator@D@2@@std@@QAE@PBD@Z
  03472	c7 45 fc 00 00
	00 00		 mov	 DWORD PTR __$EHRec$[ebp+8], 0

; 826  : 		InsertSubject(strName);

  03479	83 ec 1c	 sub	 esp, 28			; 0000001cH
  0347c	8b cc		 mov	 ecx, esp
  0347e	89 65 d0	 mov	 DWORD PTR $T205514[ebp], esp
  03481	8d 45 d4	 lea	 eax, DWORD PTR _strName$203105[ebp]
  03484	50		 push	 eax
  03485	ff 15 00 00 00
	00		 call	 DWORD PTR __imp_??0?$basic_string@DU?$char_traits@D@std@@V?$allocator@D@2@@std@@QAE@ABV01@@Z
  0348b	89 45 c4	 mov	 DWORD PTR tv158[ebp], eax
  0348e	8b 4d c8	 mov	 ecx, DWORD PTR _this$[ebp]
  03491	83 e9 04	 sub	 ecx, 4
  03494	e8 00 00 00 00	 call	 ?InsertSubject@CSkinMgrV1@@QAEXV?$basic_string@DU?$char_traits@D@std@@V?$allocator@D@2@@std@@@Z ; CSkinMgrV1::InsertSubject

; 827  : 		InstallWebSubject(strName);

  03499	83 ec 1c	 sub	 esp, 28			; 0000001cH
  0349c	8b cc		 mov	 ecx, esp
  0349e	89 65 cc	 mov	 DWORD PTR $T205515[ebp], esp
  034a1	8d 55 d4	 lea	 edx, DWORD PTR _strName$203105[ebp]
  034a4	52		 push	 edx
  034a5	ff 15 00 00 00
	00		 call	 DWORD PTR __imp_??0?$basic_string@DU?$char_traits@D@std@@V?$allocator@D@2@@std@@QAE@ABV01@@Z
  034ab	89 45 c0	 mov	 DWORD PTR tv160[ebp], eax
  034ae	8b 4d c8	 mov	 ecx, DWORD PTR _this$[ebp]
  034b1	83 e9 04	 sub	 ecx, 4
  034b4	e8 00 00 00 00	 call	 ?InstallWebSubject@CSkinMgrV1@@QAEXV?$basic_string@DU?$char_traits@D@std@@V?$allocator@D@2@@std@@@Z ; CSkinMgrV1::InstallWebSubject

; 828  : 		DownloadWebSubFinish( m_strDownSubName,bSuc );

  034b9	8b 45 08	 mov	 eax, DWORD PTR _bSuc$[ebp]
  034bc	50		 push	 eax
  034bd	8b 4d c8	 mov	 ecx, DWORD PTR _this$[ebp]
  034c0	83 c1 5c	 add	 ecx, 92			; 0000005cH
  034c3	51		 push	 ecx
  034c4	8b 4d c8	 mov	 ecx, DWORD PTR _this$[ebp]
  034c7	83 e9 04	 sub	 ecx, 4
  034ca	e8 00 00 00 00	 call	 ?DownloadWebSubFinish@CSkinMgrV1@@QAEXABV?$CStringT@DV?$StrTraitMFC_DLL@DV?$ChTraitsCRT@D@ATL@@@@@ATL@@H@Z ; CSkinMgrV1::DownloadWebSubFinish

; 829  : 		mb_isDownWebSub	 = false;

  034cf	8b 55 c8	 mov	 edx, DWORD PTR _this$[ebp]
  034d2	c6 42 47 00	 mov	 BYTE PTR [edx+71], 0

; 830  : 	}

  034d6	c7 45 fc ff ff
	ff ff		 mov	 DWORD PTR __$EHRec$[ebp+8], -1
  034dd	8d 4d d4	 lea	 ecx, DWORD PTR _strName$203105[ebp]
  034e0	ff 15 00 00 00
	00		 call	 DWORD PTR __imp_??1?$basic_string@DU?$char_traits@D@std@@V?$allocator@D@2@@std@@QAE@XZ

; 831  : 	else

  034e6	eb 16		 jmp	 SHORT $L203103
$L203104:

; 832  : 		DownloadSubFinish( m_strDownSubName,bSuc );

  034e8	8b 45 08	 mov	 eax, DWORD PTR _bSuc$[ebp]
  034eb	50		 push	 eax
  034ec	8b 4d c8	 mov	 ecx, DWORD PTR _this$[ebp]
  034ef	83 c1 5c	 add	 ecx, 92			; 0000005cH
  034f2	51		 push	 ecx
  034f3	8b 4d c8	 mov	 ecx, DWORD PTR _this$[ebp]
  034f6	83 e9 04	 sub	 ecx, 4
  034f9	e8 00 00 00 00	 call	 ?DownloadSubFinish@CSkinMgrV1@@QAEXABV?$CStringT@DV?$StrTraitMFC_DLL@DV?$ChTraitsCRT@D@ATL@@@@@ATL@@H@Z ; CSkinMgrV1::DownloadSubFinish
$L203103:

; 833  : }

  034fe	8b 4d f4	 mov	 ecx, DWORD PTR __$EHRec$[ebp]
  03501	64 89 0d 00 00
	00 00		 mov	 DWORD PTR fs:__except_list, ecx
  03508	8b 4d f0	 mov	 ecx, DWORD PTR __$ArrayPad$[ebp]
  0350b	e8 00 00 00 00	 call	 @__security_check_cookie@4
  03510	8b e5		 mov	 esp, ebp
  03512	5d		 pop	 ebp
  03513	c2 04 00	 ret	 4
_TEXT	ENDS
text$x	SEGMENT
$L205516:
  0055a	8d 4d d4	 lea	 ecx, DWORD PTR _strName$203105[ebp]
  0055d	ff 25 00 00 00
	00		 jmp	 DWORD PTR __imp_??1?$basic_string@DU?$char_traits@D@std@@V?$allocator@D@2@@std@@QAE@XZ
__ehhandler$?OnFinishDownSubject@CSkinMgrV1@@UAEXH@Z:
  00563	b8 00 00 00 00	 mov	 eax, OFFSET FLAT:$T205520
  00568	e9 00 00 00 00	 jmp	 ___CxxFrameHandler
text$x	ENDS
?OnFinishDownSubject@CSkinMgrV1@@UAEXH@Z ENDP		; CSkinMgrV1::OnFinishDownSubject
; Function compile flags: /Odt
_TEXT	SEGMENT
_this$ = -4						; size = 4
_strSubName$ = 8					; size = 28
?InsertSubject@CSkinMgrV1@@QAEXV?$basic_string@DU?$char_traits@D@std@@V?$allocator@D@2@@std@@@Z PROC NEAR ; CSkinMgrV1::InsertSubject
; _this$ = ecx

; 836  : {

  03520	55		 push	 ebp
  03521	8b ec		 mov	 ebp, esp
  03523	51		 push	 ecx
  03524	89 4d fc	 mov	 DWORD PTR _this$[ebp], ecx

; 837  : }

  03527	8d 4d 08	 lea	 ecx, DWORD PTR _strSubName$[ebp]
  0352a	ff 15 00 00 00
	00		 call	 DWORD PTR __imp_??1?$basic_string@DU?$char_traits@D@std@@V?$allocator@D@2@@std@@QAE@XZ
  03530	8b e5		 mov	 esp, ebp
  03532	5d		 pop	 ebp
  03533	c2 1c 00	 ret	 28			; 0000001cH
?InsertSubject@CSkinMgrV1@@QAEXV?$basic_string@DU?$char_traits@D@std@@V?$allocator@D@2@@std@@@Z ENDP ; CSkinMgrV1::InsertSubject
; Function compile flags: /Odt
_this$ = -4						; size = 4
_strSubName$ = 8					; size = 28
?InstallWebSubject@CSkinMgrV1@@QAEXV?$basic_string@DU?$char_traits@D@std@@V?$allocator@D@2@@std@@@Z PROC NEAR ; CSkinMgrV1::InstallWebSubject
; _this$ = ecx

; 840  : {

  03540	55		 push	 ebp
  03541	8b ec		 mov	 ebp, esp
  03543	51		 push	 ecx
  03544	89 4d fc	 mov	 DWORD PTR _this$[ebp], ecx

; 841  : }

  03547	8d 4d 08	 lea	 ecx, DWORD PTR _strSubName$[ebp]
  0354a	ff 15 00 00 00
	00		 call	 DWORD PTR __imp_??1?$basic_string@DU?$char_traits@D@std@@V?$allocator@D@2@@std@@QAE@XZ
  03550	8b e5		 mov	 esp, ebp
  03552	5d		 pop	 ebp
  03553	c2 1c 00	 ret	 28			; 0000001cH
?InstallWebSubject@CSkinMgrV1@@QAEXV?$basic_string@DU?$char_traits@D@std@@V?$allocator@D@2@@std@@@Z ENDP ; CSkinMgrV1::InstallWebSubject
_TEXT	ENDS
EXTRN	?ReqDownWebSub@CDownSub@@SAXABV?$CStringT@DV?$StrTraitMFC_DLL@DV?$ChTraitsCRT@D@ATL@@@@@ATL@@0PAUHWND__@@@Z:NEAR ; CDownSub::ReqDownWebSub
EXTRN	?IsDownWebSub@CDownSub@@SA_NXZ:NEAR		; CDownSub::IsDownWebSub
EXTRN	?ShowToolTip@CMainSkinWnd@@QAEXH@Z:NEAR		; CMainSkinWnd::ShowToolTip
EXTRN	?SetToolTip@CMainSkinWnd@@QAEXV?$CStringT@DV?$StrTraitMFC_DLL@DV?$ChTraitsCRT@D@ATL@@@@@ATL@@@Z:NEAR ; CMainSkinWnd::SetToolTip
EXTRN	?ClickSubBtn@CSubjectChildWnd@@QAEXABV?$CStringT@DV?$StrTraitMFC_DLL@DV?$ChTraitsCRT@D@ATL@@@@@ATL@@0@Z:NEAR ; CSubjectChildWnd::ClickSubBtn
xdata$x	SEGMENT
$T205536 DD	0ffffffffH
	DD	FLAT:$L205532
$T205534 DD	019930520H
	DD	01H
	DD	FLAT:$T205536
	DD	2 DUP(00H)
	DD	2 DUP(00H)
; Function compile flags: /Odt
xdata$x	ENDS
_TEXT	SEGMENT
tv134 = -40						; size = 4
tv129 = -36						; size = 4
tv173 = -32						; size = 4
_this$ = -28						; size = 4
$T205530 = -24						; size = 4
$T205529 = -20						; size = 4
_onesub$ = -16						; size = 4
__$EHRec$ = -12						; size = 12
_strUrl$ = 8						; size = 4
_strid$ = 12						; size = 4
?DownloadWebSub@CSkinMgrV1@@UAEXABV?$CStringT@DV?$StrTraitMFC_DLL@DV?$ChTraitsCRT@D@ATL@@@@@ATL@@0@Z PROC NEAR ; CSkinMgrV1::DownloadWebSub
; _this$ = ecx

; 843  : {

  03560	55		 push	 ebp
  03561	8b ec		 mov	 ebp, esp
  03563	6a ff		 push	 -1
  03565	68 00 00 00 00	 push	 __ehhandler$?DownloadWebSub@CSkinMgrV1@@UAEXABV?$CStringT@DV?$StrTraitMFC_DLL@DV?$ChTraitsCRT@D@ATL@@@@@ATL@@0@Z
  0356a	64 a1 00 00 00
	00		 mov	 eax, DWORD PTR fs:__except_list
  03570	50		 push	 eax
  03571	64 89 25 00 00
	00 00		 mov	 DWORD PTR fs:__except_list, esp
  03578	83 ec 1c	 sub	 esp, 28			; 0000001cH
  0357b	89 4d e4	 mov	 DWORD PTR _this$[ebp], ecx

; 844  : //	EnterCriticalSection( &m_csDownInfo );
; 845  : 	if( !mp_skinWnd || !mp_mainSkinWnd) return;

  0357e	8b 45 e4	 mov	 eax, DWORD PTR _this$[ebp]
  03581	83 78 14 00	 cmp	 DWORD PTR [eax+20], 0
  03585	74 09		 je	 SHORT $L203123
  03587	8b 4d e4	 mov	 ecx, DWORD PTR _this$[ebp]
  0358a	83 79 10 00	 cmp	 DWORD PTR [ecx+16], 0
  0358e	75 05		 jne	 SHORT $L203122
$L203123:
  03590	e9 1e 01 00 00	 jmp	 $L203121
$L203122:

; 846  : 	if(mb_isDownWebSub&&CDownSub::IsDownWebSub())

  03595	8b 55 e4	 mov	 edx, DWORD PTR _this$[ebp]
  03598	0f b6 42 4b	 movzx	 eax, BYTE PTR [edx+75]
  0359c	85 c0		 test	 eax, eax
  0359e	74 3d		 je	 SHORT $L203124
  035a0	e8 00 00 00 00	 call	 ?IsDownWebSub@CDownSub@@SA_NXZ ; CDownSub::IsDownWebSub
  035a5	0f b6 c8	 movzx	 ecx, al
  035a8	85 c9		 test	 ecx, ecx
  035aa	74 31		 je	 SHORT $L203124

; 847  : 	{
; 848  : 		mp_mainSkinWnd->SetToolTip("...");

  035ac	51		 push	 ecx
  035ad	8b cc		 mov	 ecx, esp
  035af	89 65 ec	 mov	 DWORD PTR $T205529[ebp], esp
  035b2	68 00 00 00 00	 push	 OFFSET FLAT:$SG203126
  035b7	ff 15 00 00 00
	00		 call	 DWORD PTR __imp_??0?$CStringT@DV?$StrTraitMFC_DLL@DV?$ChTraitsCRT@D@ATL@@@@@ATL@@QAE@PBD@Z
  035bd	89 45 e0	 mov	 DWORD PTR tv173[ebp], eax
  035c0	8b 55 e4	 mov	 edx, DWORD PTR _this$[ebp]
  035c3	8b 4a 10	 mov	 ecx, DWORD PTR [edx+16]
  035c6	e8 00 00 00 00	 call	 ?SetToolTip@CMainSkinWnd@@QAEXV?$CStringT@DV?$StrTraitMFC_DLL@DV?$ChTraitsCRT@D@ATL@@@@@ATL@@@Z ; CMainSkinWnd::SetToolTip

; 849  : 		mp_mainSkinWnd->ShowToolTip(1);

  035cb	6a 01		 push	 1
  035cd	8b 45 e4	 mov	 eax, DWORD PTR _this$[ebp]
  035d0	8b 48 10	 mov	 ecx, DWORD PTR [eax+16]
  035d3	e8 00 00 00 00	 call	 ?ShowToolTip@CMainSkinWnd@@QAEXH@Z ; CMainSkinWnd::ShowToolTip

; 850  : 		return;

  035d8	e9 d6 00 00 00	 jmp	 $L203121
$L203124:

; 851  : 	}
; 852  : 	OneSubject * onesub = AfxGetUIManager()->UIGetSkinMgr()->GetOneSubject(strid);

  035dd	e8 00 00 00 00	 call	 ?AfxGetUIManager@@YAPAVIUIManager@@XZ ; AfxGetUIManager
  035e2	89 45 dc	 mov	 DWORD PTR tv129[ebp], eax
  035e5	8b 4d dc	 mov	 ecx, DWORD PTR tv129[ebp]
  035e8	8b 11		 mov	 edx, DWORD PTR [ecx]
  035ea	8b 4d dc	 mov	 ecx, DWORD PTR tv129[ebp]
  035ed	ff 52 28	 call	 DWORD PTR [edx+40]
  035f0	89 45 d8	 mov	 DWORD PTR tv134[ebp], eax
  035f3	8b 45 0c	 mov	 eax, DWORD PTR _strid$[ebp]
  035f6	50		 push	 eax
  035f7	8b 4d d8	 mov	 ecx, DWORD PTR tv134[ebp]
  035fa	8b 11		 mov	 edx, DWORD PTR [ecx]
  035fc	8b 4d d8	 mov	 ecx, DWORD PTR tv134[ebp]
  035ff	ff 52 2c	 call	 DWORD PTR [edx+44]
  03602	89 45 f0	 mov	 DWORD PTR _onesub$[ebp], eax

; 853  : 	if(onesub!=NULL)

  03605	83 7d f0 00	 cmp	 DWORD PTR _onesub$[ebp], 0
  03609	74 5e		 je	 SHORT $L203128

; 854  : 	{
; 855  : 		mb_isDownWebSub = false;

  0360b	8b 45 e4	 mov	 eax, DWORD PTR _this$[ebp]
  0360e	c6 40 4b 00	 mov	 BYTE PTR [eax+75], 0

; 856  : 		if(mp_SubjectWnd&&IsWindow(mp_SubjectWnd->m_hWnd))

  03612	8b 4d e4	 mov	 ecx, DWORD PTR _this$[ebp]
  03615	83 79 18 00	 cmp	 DWORD PTR [ecx+24], 0
  03619	74 4c		 je	 SHORT $L203129
  0361b	8b 55 e4	 mov	 edx, DWORD PTR _this$[ebp]
  0361e	8b 42 18	 mov	 eax, DWORD PTR [edx+24]
  03621	8b 48 20	 mov	 ecx, DWORD PTR [eax+32]
  03624	51		 push	 ecx
  03625	ff 15 00 00 00
	00		 call	 DWORD PTR __imp__IsWindow@4
  0362b	85 c0		 test	 eax, eax
  0362d	74 38		 je	 SHORT $L203129

; 857  : 			mp_SubjectWnd->ClickSubBtn("",strid);

  0362f	68 00 00 00 00	 push	 OFFSET FLAT:$SG203131
  03634	8d 4d e8	 lea	 ecx, DWORD PTR $T205530[ebp]
  03637	ff 15 00 00 00
	00		 call	 DWORD PTR __imp_??0?$CStringT@DV?$StrTraitMFC_DLL@DV?$ChTraitsCRT@D@ATL@@@@@ATL@@QAE@PBD@Z
  0363d	c7 45 fc 00 00
	00 00		 mov	 DWORD PTR __$EHRec$[ebp+8], 0
  03644	8b 55 0c	 mov	 edx, DWORD PTR _strid$[ebp]
  03647	52		 push	 edx
  03648	8d 45 e8	 lea	 eax, DWORD PTR $T205530[ebp]
  0364b	50		 push	 eax
  0364c	8b 4d e4	 mov	 ecx, DWORD PTR _this$[ebp]
  0364f	8b 49 18	 mov	 ecx, DWORD PTR [ecx+24]
  03652	e8 00 00 00 00	 call	 ?ClickSubBtn@CSubjectChildWnd@@QAEXABV?$CStringT@DV?$StrTraitMFC_DLL@DV?$ChTraitsCRT@D@ATL@@@@@ATL@@0@Z ; CSubjectChildWnd::ClickSubBtn
  03657	c7 45 fc ff ff
	ff ff		 mov	 DWORD PTR __$EHRec$[ebp+8], -1
  0365e	8d 4d e8	 lea	 ecx, DWORD PTR $T205530[ebp]
  03661	ff 15 00 00 00
	00		 call	 DWORD PTR __imp_??1?$CStringT@DV?$StrTraitMFC_DLL@DV?$ChTraitsCRT@D@ATL@@@@@ATL@@QAE@XZ
$L203129:

; 858  : 		return;

  03667	eb 4a		 jmp	 SHORT $L203121
$L203128:

; 859  : 	}
; 860  : 
; 861  : 	mp_mainSkinWnd->ShowToolTip(0);

  03669	6a 00		 push	 0
  0366b	8b 55 e4	 mov	 edx, DWORD PTR _this$[ebp]
  0366e	8b 4a 10	 mov	 ecx, DWORD PTR [edx+16]
  03671	e8 00 00 00 00	 call	 ?ShowToolTip@CMainSkinWnd@@QAEXH@Z ; CMainSkinWnd::ShowToolTip

; 862  : 	DownloadSubStart(strid);

  03676	8b 45 0c	 mov	 eax, DWORD PTR _strid$[ebp]
  03679	50		 push	 eax
  0367a	8b 4d e4	 mov	 ecx, DWORD PTR _this$[ebp]
  0367d	e8 00 00 00 00	 call	 ?DownloadSubStart@CSkinMgrV1@@QAEXABV?$CStringT@DV?$StrTraitMFC_DLL@DV?$ChTraitsCRT@D@ATL@@@@@ATL@@@Z ; CSkinMgrV1::DownloadSubStart

; 863  : 	mb_isDownWebSub = true;

  03682	8b 4d e4	 mov	 ecx, DWORD PTR _this$[ebp]
  03685	c6 41 4b 01	 mov	 BYTE PTR [ecx+75], 1

; 864  : 	CDownSub::ReqDownWebSub( strUrl,strid,mp_downloadSubject->m_hWnd );

  03689	8b 55 e4	 mov	 edx, DWORD PTR _this$[ebp]
  0368c	8b 42 24	 mov	 eax, DWORD PTR [edx+36]
  0368f	8b 48 20	 mov	 ecx, DWORD PTR [eax+32]
  03692	51		 push	 ecx
  03693	8b 55 0c	 mov	 edx, DWORD PTR _strid$[ebp]
  03696	52		 push	 edx
  03697	8b 45 08	 mov	 eax, DWORD PTR _strUrl$[ebp]
  0369a	50		 push	 eax
  0369b	e8 00 00 00 00	 call	 ?ReqDownWebSub@CDownSub@@SAXABV?$CStringT@DV?$StrTraitMFC_DLL@DV?$ChTraitsCRT@D@ATL@@@@@ATL@@0PAUHWND__@@@Z ; CDownSub::ReqDownWebSub
  036a0	83 c4 0c	 add	 esp, 12			; 0000000cH

; 865  : 	m_strDownSubName = strid;

  036a3	8b 4d 0c	 mov	 ecx, DWORD PTR _strid$[ebp]
  036a6	51		 push	 ecx
  036a7	8b 4d e4	 mov	 ecx, DWORD PTR _this$[ebp]
  036aa	83 c1 60	 add	 ecx, 96			; 00000060H
  036ad	ff 15 00 00 00
	00		 call	 DWORD PTR __imp_??4?$CStringT@DV?$StrTraitMFC_DLL@DV?$ChTraitsCRT@D@ATL@@@@@ATL@@QAEAAV01@ABV01@@Z
$L203121:

; 866  : //	LeaveCriticalSection(&m_csDownInfo);
; 867  : }

  036b3	8b 4d f4	 mov	 ecx, DWORD PTR __$EHRec$[ebp]
  036b6	64 89 0d 00 00
	00 00		 mov	 DWORD PTR fs:__except_list, ecx
  036bd	8b e5		 mov	 esp, ebp
  036bf	5d		 pop	 ebp
  036c0	c2 08 00	 ret	 8
_TEXT	ENDS
text$x	SEGMENT
$L205532:
  0056d	8d 4d e8	 lea	 ecx, DWORD PTR $T205530[ebp]
  00570	ff 25 00 00 00
	00		 jmp	 DWORD PTR __imp_??1?$CStringT@DV?$StrTraitMFC_DLL@DV?$ChTraitsCRT@D@ATL@@@@@ATL@@QAE@XZ
__ehhandler$?DownloadWebSub@CSkinMgrV1@@UAEXABV?$CStringT@DV?$StrTraitMFC_DLL@DV?$ChTraitsCRT@D@ATL@@@@@ATL@@0@Z:
  00576	b8 00 00 00 00	 mov	 eax, OFFSET FLAT:$T205534
  0057b	e9 00 00 00 00	 jmp	 ___CxxFrameHandler
text$x	ENDS
?DownloadWebSub@CSkinMgrV1@@UAEXABV?$CStringT@DV?$StrTraitMFC_DLL@DV?$ChTraitsCRT@D@ATL@@@@@ATL@@0@Z ENDP ; CSkinMgrV1::DownloadWebSub
PUBLIC	?SetEventListener@CDownloadPercentWnd@@QAEXPAVIEventListener@@@Z ; CDownloadPercentWnd::SetEventListener
EXTRN	?EnableSkinBtn@CSubjectChildWnd@@QAEXH@Z:NEAR	; CSubjectChildWnd::EnableSkinBtn
xdata$x	SEGMENT
$T205546 DD	0ffffffffH
	DD	FLAT:$L205541
$T205544 DD	019930520H
	DD	01H
	DD	FLAT:$T205546
	DD	2 DUP(00H)
	DD	2 DUP(00H)
; Function compile flags: /Odt
xdata$x	ENDS
_TEXT	SEGMENT
tv190 = -60						; size = 4
tv144 = -56						; size = 4
tv139 = -52						; size = 4
tv135 = -48						; size = 4
_this$ = -44						; size = 4
$T205540 = -40						; size = 4
_strHit$203142 = -36					; size = 4
_pOneSub$203141 = -32					; size = 4
_lClient$ = -28						; size = 16
__$EHRec$ = -12						; size = 12
_strSub$ = 8						; size = 4
?DownloadSubStart@CSkinMgrV1@@QAEXABV?$CStringT@DV?$StrTraitMFC_DLL@DV?$ChTraitsCRT@D@ATL@@@@@ATL@@@Z PROC NEAR ; CSkinMgrV1::DownloadSubStart
; _this$ = ecx

; 870  : {

  036d0	55		 push	 ebp
  036d1	8b ec		 mov	 ebp, esp
  036d3	6a ff		 push	 -1
  036d5	68 00 00 00 00	 push	 __ehhandler$?DownloadSubStart@CSkinMgrV1@@QAEXABV?$CStringT@DV?$StrTraitMFC_DLL@DV?$ChTraitsCRT@D@ATL@@@@@ATL@@@Z
  036da	64 a1 00 00 00
	00		 mov	 eax, DWORD PTR fs:__except_list
  036e0	50		 push	 eax
  036e1	64 89 25 00 00
	00 00		 mov	 DWORD PTR fs:__except_list, esp
  036e8	83 ec 30	 sub	 esp, 48			; 00000030H
  036eb	89 4d d4	 mov	 DWORD PTR _this$[ebp], ecx

; 871  : 	if( !mp_skinWnd ) return;

  036ee	8b 45 d4	 mov	 eax, DWORD PTR _this$[ebp]
  036f1	83 78 14 00	 cmp	 DWORD PTR [eax+20], 0
  036f5	75 05		 jne	 SHORT $L203136
  036f7	e9 6b 01 00 00	 jmp	 $L203135
$L203136:

; 872  : 	CRect lClient;

  036fc	8d 4d e4	 lea	 ecx, DWORD PTR _lClient$[ebp]
  036ff	e8 00 00 00 00	 call	 ??0CRect@@QAE@XZ	; CRect::CRect

; 873  : 
; 874  : 	lClient.SetRect(3,235,297,285);

  03704	68 1d 01 00 00	 push	 285			; 0000011dH
  03709	68 29 01 00 00	 push	 297			; 00000129H
  0370e	68 eb 00 00 00	 push	 235			; 000000ebH
  03713	6a 03		 push	 3
  03715	8d 4d e4	 lea	 ecx, DWORD PTR _lClient$[ebp]
  03718	e8 00 00 00 00	 call	 ?SetRect@CRect@@QAEXHHHH@Z ; CRect::SetRect

; 875  : 
; 876  : 	if(mp_SubjectWnd != NULL)

  0371d	8b 4d d4	 mov	 ecx, DWORD PTR _this$[ebp]
  03720	83 79 18 00	 cmp	 DWORD PTR [ecx+24], 0
  03724	74 0d		 je	 SHORT $L203138

; 877  : 	{
; 878  : 		mp_SubjectWnd->EnableSkinBtn( FALSE );

  03726	6a 00		 push	 0
  03728	8b 55 d4	 mov	 edx, DWORD PTR _this$[ebp]
  0372b	8b 4a 18	 mov	 ecx, DWORD PTR [edx+24]
  0372e	e8 00 00 00 00	 call	 ?EnableSkinBtn@CSubjectChildWnd@@QAEXH@Z ; CSubjectChildWnd::EnableSkinBtn
$L203138:

; 879  : 	}
; 880  : 	if(mp_skinWnd != NULL )

  03733	8b 45 d4	 mov	 eax, DWORD PTR _this$[ebp]
  03736	83 78 14 00	 cmp	 DWORD PTR [eax+20], 0
  0373a	74 0d		 je	 SHORT $L203139

; 881  : 	{
; 882  : 		mp_skinWnd->EnableSkinBtn( FALSE );

  0373c	6a 00		 push	 0
  0373e	8b 4d d4	 mov	 ecx, DWORD PTR _this$[ebp]
  03741	8b 49 14	 mov	 ecx, DWORD PTR [ecx+20]
  03744	e8 00 00 00 00	 call	 ?EnableSkinBtn@CSkinWnd@@QAEXH@Z ; CSkinWnd::EnableSkinBtn
$L203139:

; 883  : 	}
; 884  : 
; 885  : 	if( !m_bShowSkinWnd )

  03749	8b 55 d4	 mov	 edx, DWORD PTR _this$[ebp]
  0374c	0f b6 42 64	 movzx	 eax, BYTE PTR [edx+100]
  03750	85 c0		 test	 eax, eax
  03752	0f 85 0f 01 00
	00		 jne	 $L203135

; 886  : 	{
; 887  : 		mp_downloadSubject->MoveWindow( lClient );

  03758	6a 01		 push	 1
  0375a	8d 4d e4	 lea	 ecx, DWORD PTR _lClient$[ebp]
  0375d	e8 00 00 00 00	 call	 ??BCRect@@QAEPAUtagRECT@@XZ ; CRect::operator tagRECT *
  03762	50		 push	 eax
  03763	8b 4d d4	 mov	 ecx, DWORD PTR _this$[ebp]
  03766	8b 49 24	 mov	 ecx, DWORD PTR [ecx+36]
  03769	e8 00 00 00 00	 call	 ?MoveWindow@CWnd@@QAEXPBUtagRECT@@H@Z ; CWnd::MoveWindow

; 888  : 		mp_downloadSubject->ShowWindow( SW_SHOW );	

  0376e	6a 05		 push	 5
  03770	8b 55 d4	 mov	 edx, DWORD PTR _this$[ebp]
  03773	8b 4a 24	 mov	 ecx, DWORD PTR [edx+36]
  03776	e8 00 00 00 00	 call	 ?ShowWindow@CWnd@@QAEHH@Z ; CWnd::ShowWindow

; 889  : 
; 890  : 		mp_downloadSubject->SetEventListener( this );

  0377b	83 7d d4 00	 cmp	 DWORD PTR _this$[ebp], 0
  0377f	74 0b		 je	 SHORT $L205538
  03781	8b 45 d4	 mov	 eax, DWORD PTR _this$[ebp]
  03784	83 c0 04	 add	 eax, 4
  03787	89 45 d0	 mov	 DWORD PTR tv135[ebp], eax
  0378a	eb 07		 jmp	 SHORT $L205539
$L205538:
  0378c	c7 45 d0 00 00
	00 00		 mov	 DWORD PTR tv135[ebp], 0
$L205539:
  03793	8b 4d d0	 mov	 ecx, DWORD PTR tv135[ebp]
  03796	51		 push	 ecx
  03797	8b 55 d4	 mov	 edx, DWORD PTR _this$[ebp]
  0379a	8b 4a 24	 mov	 ecx, DWORD PTR [edx+36]
  0379d	e8 00 00 00 00	 call	 ?SetEventListener@CDownloadPercentWnd@@QAEXPAVIEventListener@@@Z ; CDownloadPercentWnd::SetEventListener

; 891  : 
; 892  : 		OneSubject* pOneSub = AfxGetUIManager()->UIGetSkinMgr()->GetOneSubject( strSub );

  037a2	e8 00 00 00 00	 call	 ?AfxGetUIManager@@YAPAVIUIManager@@XZ ; AfxGetUIManager
  037a7	89 45 cc	 mov	 DWORD PTR tv139[ebp], eax
  037aa	8b 45 cc	 mov	 eax, DWORD PTR tv139[ebp]
  037ad	8b 10		 mov	 edx, DWORD PTR [eax]
  037af	8b 4d cc	 mov	 ecx, DWORD PTR tv139[ebp]
  037b2	ff 52 28	 call	 DWORD PTR [edx+40]
  037b5	89 45 c8	 mov	 DWORD PTR tv144[ebp], eax
  037b8	8b 45 08	 mov	 eax, DWORD PTR _strSub$[ebp]
  037bb	50		 push	 eax
  037bc	8b 4d c8	 mov	 ecx, DWORD PTR tv144[ebp]
  037bf	8b 11		 mov	 edx, DWORD PTR [ecx]
  037c1	8b 4d c8	 mov	 ecx, DWORD PTR tv144[ebp]
  037c4	ff 52 2c	 call	 DWORD PTR [edx+44]
  037c7	89 45 e0	 mov	 DWORD PTR _pOneSub$203141[ebp], eax

; 893  : 		
; 894  : 
; 895  : 		CString strHit = "";

  037ca	68 00 00 00 00	 push	 OFFSET FLAT:$SG203143
  037cf	8d 4d dc	 lea	 ecx, DWORD PTR _strHit$203142[ebp]
  037d2	ff 15 00 00 00
	00		 call	 DWORD PTR __imp_??0?$CStringT@DV?$StrTraitMFC_DLL@DV?$ChTraitsCRT@D@ATL@@@@@ATL@@QAE@PBD@Z
  037d8	c7 45 fc 00 00
	00 00		 mov	 DWORD PTR __$EHRec$[ebp+8], 0

; 896  : 		if( pOneSub != NULL )

  037df	83 7d e0 00	 cmp	 DWORD PTR _pOneSub$203141[ebp], 0
  037e3	74 21		 je	 SHORT $L203144

; 897  : 		{
; 898  : 			strHit.Format( " \"%s\" ",pOneSub->strShowName.c_str()  );

  037e5	8b 4d e0	 mov	 ecx, DWORD PTR _pOneSub$203141[ebp]
  037e8	83 c1 38	 add	 ecx, 56			; 00000038H
  037eb	ff 15 00 00 00
	00		 call	 DWORD PTR __imp_?c_str@?$basic_string@DU?$char_traits@D@std@@V?$allocator@D@2@@std@@QBEPBDXZ
  037f1	50		 push	 eax
  037f2	68 00 00 00 00	 push	 OFFSET FLAT:$SG203145
  037f7	8d 45 dc	 lea	 eax, DWORD PTR _strHit$203142[ebp]
  037fa	50		 push	 eax
  037fb	ff 15 00 00 00
	00		 call	 DWORD PTR __imp_?Format@?$CStringT@DV?$StrTraitMFC_DLL@DV?$ChTraitsCRT@D@ATL@@@@@ATL@@QAAXPBDZZ
  03801	83 c4 0c	 add	 esp, 12			; 0000000cH

; 899  : 		}
; 900  : 		else

  03804	eb 12		 jmp	 SHORT $L203146
$L203144:

; 901  : 		{
; 902  : 			strHit.Format( "");

  03806	68 00 00 00 00	 push	 OFFSET FLAT:$SG203147
  0380b	8d 4d dc	 lea	 ecx, DWORD PTR _strHit$203142[ebp]
  0380e	51		 push	 ecx
  0380f	ff 15 00 00 00
	00		 call	 DWORD PTR __imp_?Format@?$CStringT@DV?$StrTraitMFC_DLL@DV?$ChTraitsCRT@D@ATL@@@@@ATL@@QAAXPBDZZ
  03815	83 c4 08	 add	 esp, 8
$L203146:

; 903  : 		}
; 904  : 
; 905  : 		mp_downloadSubject->SetDownloadHit( strHit );		

  03818	51		 push	 ecx
  03819	8b cc		 mov	 ecx, esp
  0381b	89 65 d8	 mov	 DWORD PTR $T205540[ebp], esp
  0381e	8d 55 dc	 lea	 edx, DWORD PTR _strHit$203142[ebp]
  03821	52		 push	 edx
  03822	ff 15 00 00 00
	00		 call	 DWORD PTR __imp_??0?$CStringT@DV?$StrTraitMFC_DLL@DV?$ChTraitsCRT@D@ATL@@@@@ATL@@QAE@ABV01@@Z
  03828	89 45 c4	 mov	 DWORD PTR tv190[ebp], eax
  0382b	8b 45 d4	 mov	 eax, DWORD PTR _this$[ebp]
  0382e	8b 48 24	 mov	 ecx, DWORD PTR [eax+36]
  03831	e8 00 00 00 00	 call	 ?SetDownloadHit@CDownloadPercentWnd@@QAEXV?$CStringT@DV?$StrTraitMFC_DLL@DV?$ChTraitsCRT@D@ATL@@@@@ATL@@@Z ; CDownloadPercentWnd::SetDownloadHit

; 906  : 		mp_downloadSubject->SetDownloadPercent(0);

  03836	6a 00		 push	 0
  03838	8b 4d d4	 mov	 ecx, DWORD PTR _this$[ebp]
  0383b	8b 49 24	 mov	 ecx, DWORD PTR [ecx+36]
  0383e	e8 00 00 00 00	 call	 ?SetDownloadPercent@CDownloadPercentWnd@@QAEXH@Z ; CDownloadPercentWnd::SetDownloadPercent

; 907  : 
; 908  : 		mb_isDownSubject = true;

  03843	8b 55 d4	 mov	 edx, DWORD PTR _this$[ebp]
  03846	c6 42 4a 01	 mov	 BYTE PTR [edx+74], 1

; 909  : 
; 910  : 		mp_mainSkinWnd->ShowColorBtn( FALSE );

  0384a	6a 00		 push	 0
  0384c	8b 45 d4	 mov	 eax, DWORD PTR _this$[ebp]
  0384f	8b 48 10	 mov	 ecx, DWORD PTR [eax+16]
  03852	e8 00 00 00 00	 call	 ?ShowColorBtn@CMainSkinWnd@@QAEXH@Z ; CMainSkinWnd::ShowColorBtn

; 911  : 	}

  03857	c7 45 fc ff ff
	ff ff		 mov	 DWORD PTR __$EHRec$[ebp+8], -1
  0385e	8d 4d dc	 lea	 ecx, DWORD PTR _strHit$203142[ebp]
  03861	ff 15 00 00 00
	00		 call	 DWORD PTR __imp_??1?$CStringT@DV?$StrTraitMFC_DLL@DV?$ChTraitsCRT@D@ATL@@@@@ATL@@QAE@XZ
$L203135:

; 912  : }

  03867	8b 4d f4	 mov	 ecx, DWORD PTR __$EHRec$[ebp]
  0386a	64 89 0d 00 00
	00 00		 mov	 DWORD PTR fs:__except_list, ecx
  03871	8b e5		 mov	 esp, ebp
  03873	5d		 pop	 ebp
  03874	c2 04 00	 ret	 4
_TEXT	ENDS
text$x	SEGMENT
$L205541:
  00580	8d 4d dc	 lea	 ecx, DWORD PTR _strHit$203142[ebp]
  00583	ff 25 00 00 00
	00		 jmp	 DWORD PTR __imp_??1?$CStringT@DV?$StrTraitMFC_DLL@DV?$ChTraitsCRT@D@ATL@@@@@ATL@@QAE@XZ
__ehhandler$?DownloadSubStart@CSkinMgrV1@@QAEXABV?$CStringT@DV?$StrTraitMFC_DLL@DV?$ChTraitsCRT@D@ATL@@@@@ATL@@@Z:
  00589	b8 00 00 00 00	 mov	 eax, OFFSET FLAT:$T205544
  0058e	e9 00 00 00 00	 jmp	 ___CxxFrameHandler
text$x	ENDS
?DownloadSubStart@CSkinMgrV1@@QAEXABV?$CStringT@DV?$StrTraitMFC_DLL@DV?$ChTraitsCRT@D@ATL@@@@@ATL@@@Z ENDP ; CSkinMgrV1::DownloadSubStart
; Function compile flags: /Odt
; File d:\boxgit\playbox\playbox\dev\prj\playbox\src\layoutmgr\changecolor\downloadpercentwnd.h
;	COMDAT ?SetEventListener@CDownloadPercentWnd@@QAEXPAVIEventListener@@@Z
_TEXT	SEGMENT
_this$ = -4						; size = 4
_pEventListener$ = 8					; size = 4
?SetEventListener@CDownloadPercentWnd@@QAEXPAVIEventListener@@@Z PROC NEAR ; CDownloadPercentWnd::SetEventListener, COMDAT
; _this$ = ecx

; 34   : 	void SetEventListener(IEventListener* pEventListener){ m_pEvnet = pEventListener;}

  00000	55		 push	 ebp
  00001	8b ec		 mov	 ebp, esp
  00003	51		 push	 ecx
  00004	89 4d fc	 mov	 DWORD PTR _this$[ebp], ecx
  00007	8b 45 fc	 mov	 eax, DWORD PTR _this$[ebp]
  0000a	8b 4d 08	 mov	 ecx, DWORD PTR _pEventListener$[ebp]
  0000d	89 88 20 02 00
	00		 mov	 DWORD PTR [eax+544], ecx
  00013	8b e5		 mov	 esp, ebp
  00015	5d		 pop	 ebp
  00016	c2 04 00	 ret	 4
?SetEventListener@CDownloadPercentWnd@@QAEXPAVIEventListener@@@Z ENDP ; CDownloadPercentWnd::SetEventListener
_TEXT	ENDS
PUBLIC	?SetMsg@CDialogMsg@@QAEXABV?$CStringT@DV?$StrTraitMFC_DLL@DV?$ChTraitsCRT@D@ATL@@@@@ATL@@@Z ; CDialogMsg::SetMsg
EXTRN	?DoModal@CDialog@@UAEHXZ:NEAR			; CDialog::DoModal
EXTRN	??0CDialogMsg@@QAE@PAVCWnd@@@Z:NEAR		; CDialogMsg::CDialogMsg
EXTRN	??1CDialogMsg@@UAE@XZ:NEAR			; CDialogMsg::~CDialogMsg
EXTRN	?SetBtnCount@CDialogMsg@@QAEXH@Z:NEAR		; CDialogMsg::SetBtnCount
EXTRN	?SetBtnText@CDialogMsg@@QAEXHABV?$CStringT@DV?$StrTraitMFC_DLL@DV?$ChTraitsCRT@D@ATL@@@@@ATL@@@Z:NEAR ; CDialogMsg::SetBtnText
xdata$x	SEGMENT
$T205579 DD	0ffffffffH
	DD	FLAT:$L205562
	DD	00H
	DD	FLAT:$L205563
	DD	0ffffffffH
	DD	FLAT:$L205564
	DD	02H
	DD	FLAT:$L205565
	DD	03H
	DD	FLAT:$L205566
	DD	02H
	DD	FLAT:$L205568
	DD	05H
	DD	FLAT:$L205569
	DD	02H
	DD	FLAT:$L205570
	DD	02H
	DD	FLAT:$L205571
	DD	08H
	DD	FLAT:$L205572
	DD	0ffffffffH
	DD	FLAT:$L205573
	DD	0aH
	DD	FLAT:$L205574
	DD	0aH
	DD	FLAT:$L205575
$T205577 DD	019930520H
	DD	0dH
	DD	FLAT:$T205579
	DD	2 DUP(00H)
	DD	2 DUP(00H)
; Function compile flags: /Odt
; File d:\boxgit\playbox\playbox\dev\prj\playbox\src\layoutmgr\changecolor\ichangecolormgr.cpp
xdata$x	ENDS
_TEXT	SEGMENT
tv290 = -1932						; size = 4
tv287 = -1928						; size = 4
tv72 = -1924						; size = 4
tv284 = -1920						; size = 4
tv163 = -1916						; size = 4
tv157 = -1912						; size = 4
tv152 = -1908						; size = 4
tv143 = -1904						; size = 4
tv138 = -1900						; size = 4
_this$ = -1896						; size = 4
$T205561 = -1892					; size = 4
$T205560 = -1888					; size = 4
$T205559 = -1884					; size = 28
$T205558 = -1856					; size = 28
$T205557 = -1828					; size = 4
$T205556 = -1824					; size = 28
$T205555 = -1796					; size = 28
$T205554 = -1768					; size = 4
$T205553 = -1764					; size = 4
$T205552 = -1760					; size = 4
$T205551 = -1756					; size = 28
$T205550 = -1728					; size = 28
_dlgmsg$203188 = -1700					; size = 1676
_pOneSub$203163 = -20					; size = 4
_tips$203164 = -16					; size = 4
__$EHRec$ = -12						; size = 12
_strSub$ = 8						; size = 4
_bSuc$ = 12						; size = 4
?DownloadSubFinish@CSkinMgrV1@@QAEXABV?$CStringT@DV?$StrTraitMFC_DLL@DV?$ChTraitsCRT@D@ATL@@@@@ATL@@H@Z PROC NEAR ; CSkinMgrV1::DownloadSubFinish
; _this$ = ecx

; 915  : {

  03880	55		 push	 ebp
  03881	8b ec		 mov	 ebp, esp
  03883	6a ff		 push	 -1
  03885	68 00 00 00 00	 push	 __ehhandler$?DownloadSubFinish@CSkinMgrV1@@QAEXABV?$CStringT@DV?$StrTraitMFC_DLL@DV?$ChTraitsCRT@D@ATL@@@@@ATL@@H@Z
  0388a	64 a1 00 00 00
	00		 mov	 eax, DWORD PTR fs:__except_list
  03890	50		 push	 eax
  03891	64 89 25 00 00
	00 00		 mov	 DWORD PTR fs:__except_list, esp
  03898	81 ec 80 07 00
	00		 sub	 esp, 1920		; 00000780H
  0389e	89 8d 98 f8 ff
	ff		 mov	 DWORD PTR _this$[ebp], ecx

; 916  : 	YL_Log("SkinB.txt",LOG_DEBUG,"Click-In","9");

  038a4	68 00 00 00 00	 push	 OFFSET FLAT:$SG203157
  038a9	8d 8d 40 f9 ff
	ff		 lea	 ecx, DWORD PTR $T205550[ebp]
  038af	ff 15 00 00 00
	00		 call	 DWORD PTR __imp_??0?$basic_string@DU?$char_traits@D@std@@V?$allocator@D@2@@std@@QAE@PBD@Z
  038b5	c7 45 fc 00 00
	00 00		 mov	 DWORD PTR __$EHRec$[ebp+8], 0
  038bc	68 00 00 00 00	 push	 OFFSET FLAT:$SG203158
  038c1	8d 8d 24 f9 ff
	ff		 lea	 ecx, DWORD PTR $T205551[ebp]
  038c7	ff 15 00 00 00
	00		 call	 DWORD PTR __imp_??0?$basic_string@DU?$char_traits@D@std@@V?$allocator@D@2@@std@@QAE@PBD@Z
  038cd	c6 45 fc 01	 mov	 BYTE PTR __$EHRec$[ebp+8], 1
  038d1	68 00 00 00 00	 push	 OFFSET FLAT:$SG203156
  038d6	8d 85 40 f9 ff
	ff		 lea	 eax, DWORD PTR $T205550[ebp]
  038dc	50		 push	 eax
  038dd	6a 00		 push	 0
  038df	8d 8d 24 f9 ff
	ff		 lea	 ecx, DWORD PTR $T205551[ebp]
  038e5	51		 push	 ecx
  038e6	ff 15 00 00 00
	00		 call	 DWORD PTR __imp_?YL_Log@@YAXABV?$basic_string@DU?$char_traits@D@std@@V?$allocator@D@2@@std@@H0PBDZZ
  038ec	83 c4 10	 add	 esp, 16			; 00000010H
  038ef	c6 45 fc 00	 mov	 BYTE PTR __$EHRec$[ebp+8], 0
  038f3	8d 8d 24 f9 ff
	ff		 lea	 ecx, DWORD PTR $T205551[ebp]
  038f9	ff 15 00 00 00
	00		 call	 DWORD PTR __imp_??1?$basic_string@DU?$char_traits@D@std@@V?$allocator@D@2@@std@@QAE@XZ
  038ff	c7 45 fc ff ff
	ff ff		 mov	 DWORD PTR __$EHRec$[ebp+8], -1
  03906	8d 8d 40 f9 ff
	ff		 lea	 ecx, DWORD PTR $T205550[ebp]
  0390c	ff 15 00 00 00
	00		 call	 DWORD PTR __imp_??1?$basic_string@DU?$char_traits@D@std@@V?$allocator@D@2@@std@@QAE@XZ

; 917  : 	if( mp_SubjectWnd != NULL )

  03912	8b 95 98 f8 ff
	ff		 mov	 edx, DWORD PTR _this$[ebp]
  03918	83 7a 18 00	 cmp	 DWORD PTR [edx+24], 0
  0391c	74 10		 je	 SHORT $L203159

; 918  : 	{
; 919  : 		mp_SubjectWnd->EnableSkinBtn( TRUE );

  0391e	6a 01		 push	 1
  03920	8b 85 98 f8 ff
	ff		 mov	 eax, DWORD PTR _this$[ebp]
  03926	8b 48 18	 mov	 ecx, DWORD PTR [eax+24]
  03929	e8 00 00 00 00	 call	 ?EnableSkinBtn@CSubjectChildWnd@@QAEXH@Z ; CSubjectChildWnd::EnableSkinBtn
$L203159:

; 920  : 	}
; 921  : 
; 922  : 	if(mp_skinWnd != NULL )

  0392e	8b 8d 98 f8 ff
	ff		 mov	 ecx, DWORD PTR _this$[ebp]
  03934	83 79 14 00	 cmp	 DWORD PTR [ecx+20], 0
  03938	74 10		 je	 SHORT $L203160

; 923  : 	{
; 924  : 		mp_skinWnd->EnableSkinBtn( TRUE );

  0393a	6a 01		 push	 1
  0393c	8b 95 98 f8 ff
	ff		 mov	 edx, DWORD PTR _this$[ebp]
  03942	8b 4a 14	 mov	 ecx, DWORD PTR [edx+20]
  03945	e8 00 00 00 00	 call	 ?EnableSkinBtn@CSkinWnd@@QAEXH@Z ; CSkinWnd::EnableSkinBtn
$L203160:

; 925  : 	}
; 926  : 
; 927  : 	mp_downloadSubject->ShowWindow( SW_HIDE );

  0394a	6a 00		 push	 0
  0394c	8b 85 98 f8 ff
	ff		 mov	 eax, DWORD PTR _this$[ebp]
  03952	8b 48 24	 mov	 ecx, DWORD PTR [eax+36]
  03955	e8 00 00 00 00	 call	 ?ShowWindow@CWnd@@QAEHH@Z ; CWnd::ShowWindow

; 928  : 	
; 929  : 	mp_mainSkinWnd->ShowColorBtn( TRUE );

  0395a	6a 01		 push	 1
  0395c	8b 8d 98 f8 ff
	ff		 mov	 ecx, DWORD PTR _this$[ebp]
  03962	8b 49 10	 mov	 ecx, DWORD PTR [ecx+16]
  03965	e8 00 00 00 00	 call	 ?ShowColorBtn@CMainSkinWnd@@QAEXH@Z ; CMainSkinWnd::ShowColorBtn

; 930  : 	mp_mainSkinWnd->Invalidate();

  0396a	6a 01		 push	 1
  0396c	8b 95 98 f8 ff
	ff		 mov	 edx, DWORD PTR _this$[ebp]
  03972	8b 4a 10	 mov	 ecx, DWORD PTR [edx+16]
  03975	e8 00 00 00 00	 call	 ?Invalidate@CWnd@@QAEXH@Z ; CWnd::Invalidate

; 931  : 	mp_mainSkinWnd->UpdateWindow();

  0397a	8b 85 98 f8 ff
	ff		 mov	 eax, DWORD PTR _this$[ebp]
  03980	8b 48 10	 mov	 ecx, DWORD PTR [eax+16]
  03983	e8 00 00 00 00	 call	 ?UpdateWindow@CWnd@@QAEXXZ ; CWnd::UpdateWindow

; 932  : 
; 933  : 	if( bSuc )

  03988	83 7d 0c 00	 cmp	 DWORD PTR _bSuc$[ebp], 0
  0398c	0f 84 94 02 00
	00		 je	 $L203161

; 934  : 	{	
; 935  : 		AfxGetUIManager()->UIGetSkinMgr()->SubDownloaded( strSub );

  03992	e8 00 00 00 00	 call	 ?AfxGetUIManager@@YAPAVIUIManager@@XZ ; AfxGetUIManager
  03997	89 85 94 f8 ff
	ff		 mov	 DWORD PTR tv138[ebp], eax
  0399d	8b 8d 94 f8 ff
	ff		 mov	 ecx, DWORD PTR tv138[ebp]
  039a3	8b 11		 mov	 edx, DWORD PTR [ecx]
  039a5	8b 8d 94 f8 ff
	ff		 mov	 ecx, DWORD PTR tv138[ebp]
  039ab	ff 52 28	 call	 DWORD PTR [edx+40]
  039ae	89 85 90 f8 ff
	ff		 mov	 DWORD PTR tv143[ebp], eax
  039b4	8b 45 08	 mov	 eax, DWORD PTR _strSub$[ebp]
  039b7	50		 push	 eax
  039b8	8b 8d 90 f8 ff
	ff		 mov	 ecx, DWORD PTR tv143[ebp]
  039be	8b 11		 mov	 edx, DWORD PTR [ecx]
  039c0	8b 8d 90 f8 ff
	ff		 mov	 ecx, DWORD PTR tv143[ebp]
  039c6	ff 52 48	 call	 DWORD PTR [edx+72]

; 936  : 
; 937  : 		if( mb_HasPopWnd )

  039c9	8b 85 98 f8 ff
	ff		 mov	 eax, DWORD PTR _this$[ebp]
  039cf	0f b6 48 48	 movzx	 ecx, BYTE PTR [eax+72]
  039d3	85 c9		 test	 ecx, ecx
  039d5	0f 84 46 02 00
	00		 je	 $L203162

; 938  : 		{
; 939  : 			OneSubject* pOneSub = AfxGetUIManager()->UIGetSkinMgr()->GetOneSubject( strSub );

  039db	e8 00 00 00 00	 call	 ?AfxGetUIManager@@YAPAVIUIManager@@XZ ; AfxGetUIManager
  039e0	89 85 8c f8 ff
	ff		 mov	 DWORD PTR tv152[ebp], eax
  039e6	8b 95 8c f8 ff
	ff		 mov	 edx, DWORD PTR tv152[ebp]
  039ec	8b 02		 mov	 eax, DWORD PTR [edx]
  039ee	8b 8d 8c f8 ff
	ff		 mov	 ecx, DWORD PTR tv152[ebp]
  039f4	ff 50 28	 call	 DWORD PTR [eax+40]
  039f7	89 85 88 f8 ff
	ff		 mov	 DWORD PTR tv157[ebp], eax
  039fd	8b 4d 08	 mov	 ecx, DWORD PTR _strSub$[ebp]
  03a00	51		 push	 ecx
  03a01	8b 95 88 f8 ff
	ff		 mov	 edx, DWORD PTR tv157[ebp]
  03a07	8b 02		 mov	 eax, DWORD PTR [edx]
  03a09	8b 8d 88 f8 ff
	ff		 mov	 ecx, DWORD PTR tv157[ebp]
  03a0f	ff 50 2c	 call	 DWORD PTR [eax+44]
  03a12	89 45 ec	 mov	 DWORD PTR _pOneSub$203163[ebp], eax

; 940  : 
; 941  : 			CString tips = "";

  03a15	68 00 00 00 00	 push	 OFFSET FLAT:$SG203165
  03a1a	8d 4d f0	 lea	 ecx, DWORD PTR _tips$203164[ebp]
  03a1d	ff 15 00 00 00
	00		 call	 DWORD PTR __imp_??0?$CStringT@DV?$StrTraitMFC_DLL@DV?$ChTraitsCRT@D@ATL@@@@@ATL@@QAE@PBD@Z
  03a23	c7 45 fc 02 00
	00 00		 mov	 DWORD PTR __$EHRec$[ebp+8], 2

; 942  : 			if( pOneSub != NULL )

  03a2a	83 7d ec 00	 cmp	 DWORD PTR _pOneSub$203163[ebp], 0
  03a2e	74 21		 je	 SHORT $L203166

; 943  : 			{
; 944  : 				tips.Format( ":  %s\r\n: ",pOneSub->strShowName.c_str()  );

  03a30	8b 4d ec	 mov	 ecx, DWORD PTR _pOneSub$203163[ebp]
  03a33	83 c1 38	 add	 ecx, 56			; 00000038H
  03a36	ff 15 00 00 00
	00		 call	 DWORD PTR __imp_?c_str@?$basic_string@DU?$char_traits@D@std@@V?$allocator@D@2@@std@@QBEPBDXZ
  03a3c	50		 push	 eax
  03a3d	68 00 00 00 00	 push	 OFFSET FLAT:$SG203167
  03a42	8d 4d f0	 lea	 ecx, DWORD PTR _tips$203164[ebp]
  03a45	51		 push	 ecx
  03a46	ff 15 00 00 00
	00		 call	 DWORD PTR __imp_?Format@?$CStringT@DV?$StrTraitMFC_DLL@DV?$ChTraitsCRT@D@ATL@@@@@ATL@@QAAXPBDZZ
  03a4c	83 c4 0c	 add	 esp, 12			; 0000000cH

; 945  : 			}
; 946  : 			else

  03a4f	eb 12		 jmp	 SHORT $L203168
$L203166:

; 947  : 			{
; 948  : 				tips.Format( ": ");

  03a51	68 00 00 00 00	 push	 OFFSET FLAT:$SG203169
  03a56	8d 55 f0	 lea	 edx, DWORD PTR _tips$203164[ebp]
  03a59	52		 push	 edx
  03a5a	ff 15 00 00 00
	00		 call	 DWORD PTR __imp_?Format@?$CStringT@DV?$StrTraitMFC_DLL@DV?$ChTraitsCRT@D@ATL@@@@@ATL@@QAAXPBDZZ
  03a60	83 c4 08	 add	 esp, 8
$L203168:

; 949  : 			}
; 950  : 			if( mp_SubjectWnd && pOneSub )

  03a63	8b 85 98 f8 ff
	ff		 mov	 eax, DWORD PTR _this$[ebp]
  03a69	83 78 18 00	 cmp	 DWORD PTR [eax+24], 0
  03a6d	0f 84 90 00 00
	00		 je	 $L203170
  03a73	83 7d ec 00	 cmp	 DWORD PTR _pOneSub$203163[ebp], 0
  03a77	0f 84 86 00 00
	00		 je	 $L203170

; 951  : 			{
; 952  : 				mp_SubjectWnd->SetTipText( strSub,tips ,pOneSub->strShowName.c_str());

  03a7d	8b 4d ec	 mov	 ecx, DWORD PTR _pOneSub$203163[ebp]
  03a80	83 c1 38	 add	 ecx, 56			; 00000038H
  03a83	ff 15 00 00 00
	00		 call	 DWORD PTR __imp_?c_str@?$basic_string@DU?$char_traits@D@std@@V?$allocator@D@2@@std@@QBEPBDXZ
  03a89	51		 push	 ecx
  03a8a	8b cc		 mov	 ecx, esp
  03a8c	89 a5 20 f9 ff
	ff		 mov	 DWORD PTR $T205552[ebp], esp
  03a92	50		 push	 eax
  03a93	ff 15 00 00 00
	00		 call	 DWORD PTR __imp_??0?$CStringT@DV?$StrTraitMFC_DLL@DV?$ChTraitsCRT@D@ATL@@@@@ATL@@QAE@PBD@Z
  03a99	89 85 84 f8 ff
	ff		 mov	 DWORD PTR tv163[ebp], eax
  03a9f	8b 8d 84 f8 ff
	ff		 mov	 ecx, DWORD PTR tv163[ebp]
  03aa5	89 8d 80 f8 ff
	ff		 mov	 DWORD PTR tv284[ebp], ecx
  03aab	c6 45 fc 03	 mov	 BYTE PTR __$EHRec$[ebp+8], 3
  03aaf	51		 push	 ecx
  03ab0	8b cc		 mov	 ecx, esp
  03ab2	89 a5 1c f9 ff
	ff		 mov	 DWORD PTR $T205553[ebp], esp
  03ab8	8d 55 f0	 lea	 edx, DWORD PTR _tips$203164[ebp]
  03abb	52		 push	 edx
  03abc	ff 15 00 00 00
	00		 call	 DWORD PTR __imp_??0?$CStringT@DV?$StrTraitMFC_DLL@DV?$ChTraitsCRT@D@ATL@@@@@ATL@@QAE@ABV01@@Z
  03ac2	89 85 7c f8 ff
	ff		 mov	 DWORD PTR tv72[ebp], eax
  03ac8	8b 85 7c f8 ff
	ff		 mov	 eax, DWORD PTR tv72[ebp]
  03ace	89 85 78 f8 ff
	ff		 mov	 DWORD PTR tv287[ebp], eax
  03ad4	c6 45 fc 04	 mov	 BYTE PTR __$EHRec$[ebp+8], 4
  03ad8	51		 push	 ecx
  03ad9	8b cc		 mov	 ecx, esp
  03adb	89 a5 18 f9 ff
	ff		 mov	 DWORD PTR $T205554[ebp], esp
  03ae1	8b 55 08	 mov	 edx, DWORD PTR _strSub$[ebp]
  03ae4	52		 push	 edx
  03ae5	ff 15 00 00 00
	00		 call	 DWORD PTR __imp_??0?$CStringT@DV?$StrTraitMFC_DLL@DV?$ChTraitsCRT@D@ATL@@@@@ATL@@QAE@ABV01@@Z
  03aeb	89 85 74 f8 ff
	ff		 mov	 DWORD PTR tv290[ebp], eax
  03af1	8b 85 98 f8 ff
	ff		 mov	 eax, DWORD PTR _this$[ebp]
  03af7	8b 48 18	 mov	 ecx, DWORD PTR [eax+24]
  03afa	c6 45 fc 02	 mov	 BYTE PTR __$EHRec$[ebp+8], 2
  03afe	e8 00 00 00 00	 call	 ?SetTipText@CSubjectChildWnd@@QAEXV?$CStringT@DV?$StrTraitMFC_DLL@DV?$ChTraitsCRT@D@ATL@@@@@ATL@@00@Z ; CSubjectChildWnd::SetTipText
$L203170:

; 953  : 			}
; 954  : 
; 955  : 			YL_Log("SkinB.txt",LOG_DEBUG,"Click-In","10");

  03b03	68 00 00 00 00	 push	 OFFSET FLAT:$SG203177
  03b08	8d 8d fc f8 ff
	ff		 lea	 ecx, DWORD PTR $T205555[ebp]
  03b0e	ff 15 00 00 00
	00		 call	 DWORD PTR __imp_??0?$basic_string@DU?$char_traits@D@std@@V?$allocator@D@2@@std@@QAE@PBD@Z
  03b14	c6 45 fc 05	 mov	 BYTE PTR __$EHRec$[ebp+8], 5
  03b18	68 00 00 00 00	 push	 OFFSET FLAT:$SG203178
  03b1d	8d 8d e0 f8 ff
	ff		 lea	 ecx, DWORD PTR $T205556[ebp]
  03b23	ff 15 00 00 00
	00		 call	 DWORD PTR __imp_??0?$basic_string@DU?$char_traits@D@std@@V?$allocator@D@2@@std@@QAE@PBD@Z
  03b29	c6 45 fc 06	 mov	 BYTE PTR __$EHRec$[ebp+8], 6
  03b2d	68 00 00 00 00	 push	 OFFSET FLAT:$SG203176
  03b32	8d 8d fc f8 ff
	ff		 lea	 ecx, DWORD PTR $T205555[ebp]
  03b38	51		 push	 ecx
  03b39	6a 00		 push	 0
  03b3b	8d 95 e0 f8 ff
	ff		 lea	 edx, DWORD PTR $T205556[ebp]
  03b41	52		 push	 edx
  03b42	ff 15 00 00 00
	00		 call	 DWORD PTR __imp_?YL_Log@@YAXABV?$basic_string@DU?$char_traits@D@std@@V?$allocator@D@2@@std@@H0PBDZZ
  03b48	83 c4 10	 add	 esp, 16			; 00000010H
  03b4b	c6 45 fc 05	 mov	 BYTE PTR __$EHRec$[ebp+8], 5
  03b4f	8d 8d e0 f8 ff
	ff		 lea	 ecx, DWORD PTR $T205556[ebp]
  03b55	ff 15 00 00 00
	00		 call	 DWORD PTR __imp_??1?$basic_string@DU?$char_traits@D@std@@V?$allocator@D@2@@std@@QAE@XZ
  03b5b	c6 45 fc 02	 mov	 BYTE PTR __$EHRec$[ebp+8], 2
  03b5f	8d 8d fc f8 ff
	ff		 lea	 ecx, DWORD PTR $T205555[ebp]
  03b65	ff 15 00 00 00
	00		 call	 DWORD PTR __imp_??1?$basic_string@DU?$char_traits@D@std@@V?$allocator@D@2@@std@@QAE@XZ

; 956  : 			mp_SubjectWnd->ClickSubBtn("",strSub );

  03b6b	68 00 00 00 00	 push	 OFFSET FLAT:$SG203180
  03b70	8d 8d dc f8 ff
	ff		 lea	 ecx, DWORD PTR $T205557[ebp]
  03b76	ff 15 00 00 00
	00		 call	 DWORD PTR __imp_??0?$CStringT@DV?$StrTraitMFC_DLL@DV?$ChTraitsCRT@D@ATL@@@@@ATL@@QAE@PBD@Z
  03b7c	c6 45 fc 07	 mov	 BYTE PTR __$EHRec$[ebp+8], 7
  03b80	8b 45 08	 mov	 eax, DWORD PTR _strSub$[ebp]
  03b83	50		 push	 eax
  03b84	8d 8d dc f8 ff
	ff		 lea	 ecx, DWORD PTR $T205557[ebp]
  03b8a	51		 push	 ecx
  03b8b	8b 95 98 f8 ff
	ff		 mov	 edx, DWORD PTR _this$[ebp]
  03b91	8b 4a 18	 mov	 ecx, DWORD PTR [edx+24]
  03b94	e8 00 00 00 00	 call	 ?ClickSubBtn@CSubjectChildWnd@@QAEXABV?$CStringT@DV?$StrTraitMFC_DLL@DV?$ChTraitsCRT@D@ATL@@@@@ATL@@0@Z ; CSubjectChildWnd::ClickSubBtn
  03b99	c6 45 fc 02	 mov	 BYTE PTR __$EHRec$[ebp+8], 2
  03b9d	8d 8d dc f8 ff
	ff		 lea	 ecx, DWORD PTR $T205557[ebp]
  03ba3	ff 15 00 00 00
	00		 call	 DWORD PTR __imp_??1?$CStringT@DV?$StrTraitMFC_DLL@DV?$ChTraitsCRT@D@ATL@@@@@ATL@@QAE@XZ

; 957  : 			YL_Log("SkinB.txt",LOG_DEBUG,"Click-In","11");

  03ba9	68 00 00 00 00	 push	 OFFSET FLAT:$SG203184
  03bae	8d 8d c0 f8 ff
	ff		 lea	 ecx, DWORD PTR $T205558[ebp]
  03bb4	ff 15 00 00 00
	00		 call	 DWORD PTR __imp_??0?$basic_string@DU?$char_traits@D@std@@V?$allocator@D@2@@std@@QAE@PBD@Z
  03bba	c6 45 fc 08	 mov	 BYTE PTR __$EHRec$[ebp+8], 8
  03bbe	68 00 00 00 00	 push	 OFFSET FLAT:$SG203185
  03bc3	8d 8d a4 f8 ff
	ff		 lea	 ecx, DWORD PTR $T205559[ebp]
  03bc9	ff 15 00 00 00
	00		 call	 DWORD PTR __imp_??0?$basic_string@DU?$char_traits@D@std@@V?$allocator@D@2@@std@@QAE@PBD@Z
  03bcf	c6 45 fc 09	 mov	 BYTE PTR __$EHRec$[ebp+8], 9
  03bd3	68 00 00 00 00	 push	 OFFSET FLAT:$SG203183
  03bd8	8d 85 c0 f8 ff
	ff		 lea	 eax, DWORD PTR $T205558[ebp]
  03bde	50		 push	 eax
  03bdf	6a 00		 push	 0
  03be1	8d 8d a4 f8 ff
	ff		 lea	 ecx, DWORD PTR $T205559[ebp]
  03be7	51		 push	 ecx
  03be8	ff 15 00 00 00
	00		 call	 DWORD PTR __imp_?YL_Log@@YAXABV?$basic_string@DU?$char_traits@D@std@@V?$allocator@D@2@@std@@H0PBDZZ
  03bee	83 c4 10	 add	 esp, 16			; 00000010H
  03bf1	c6 45 fc 08	 mov	 BYTE PTR __$EHRec$[ebp+8], 8
  03bf5	8d 8d a4 f8 ff
	ff		 lea	 ecx, DWORD PTR $T205559[ebp]
  03bfb	ff 15 00 00 00
	00		 call	 DWORD PTR __imp_??1?$basic_string@DU?$char_traits@D@std@@V?$allocator@D@2@@std@@QAE@XZ
  03c01	c6 45 fc 02	 mov	 BYTE PTR __$EHRec$[ebp+8], 2
  03c05	8d 8d c0 f8 ff
	ff		 lea	 ecx, DWORD PTR $T205558[ebp]
  03c0b	ff 15 00 00 00
	00		 call	 DWORD PTR __imp_??1?$basic_string@DU?$char_traits@D@std@@V?$allocator@D@2@@std@@QAE@XZ

; 958  : 		}

  03c11	c7 45 fc ff ff
	ff ff		 mov	 DWORD PTR __$EHRec$[ebp+8], -1
  03c18	8d 4d f0	 lea	 ecx, DWORD PTR _tips$203164[ebp]
  03c1b	ff 15 00 00 00
	00		 call	 DWORD PTR __imp_??1?$CStringT@DV?$StrTraitMFC_DLL@DV?$ChTraitsCRT@D@ATL@@@@@ATL@@QAE@XZ
$L203162:

; 959  : 		
; 960  : 	}
; 961  : 	else

  03c21	e9 c0 00 00 00	 jmp	 $L203153
$L203161:

; 962  : 	{
; 963  : 		if( mb_HasPopWnd )

  03c26	8b 95 98 f8 ff
	ff		 mov	 edx, DWORD PTR _this$[ebp]
  03c2c	0f b6 42 48	 movzx	 eax, BYTE PTR [edx+72]
  03c30	85 c0		 test	 eax, eax
  03c32	0f 84 ae 00 00
	00		 je	 $L203153

; 964  : 		{
; 965  : 			CDialogMsg dlgmsg;

  03c38	6a 00		 push	 0
  03c3a	8d 8d 5c f9 ff
	ff		 lea	 ecx, DWORD PTR _dlgmsg$203188[ebp]
  03c40	e8 00 00 00 00	 call	 ??0CDialogMsg@@QAE@PAVCWnd@@@Z ; CDialogMsg::CDialogMsg
  03c45	c7 45 fc 0a 00
	00 00		 mov	 DWORD PTR __$EHRec$[ebp+8], 10 ; 0000000aH

; 966  : 			dlgmsg.SetBtnCount(1);

  03c4c	6a 01		 push	 1
  03c4e	8d 8d 5c f9 ff
	ff		 lea	 ecx, DWORD PTR _dlgmsg$203188[ebp]
  03c54	e8 00 00 00 00	 call	 ?SetBtnCount@CDialogMsg@@QAEXH@Z ; CDialogMsg::SetBtnCount

; 967  : 			dlgmsg.SetMsg("");

  03c59	68 00 00 00 00	 push	 OFFSET FLAT:$SG203190
  03c5e	8d 8d a0 f8 ff
	ff		 lea	 ecx, DWORD PTR $T205560[ebp]
  03c64	ff 15 00 00 00
	00		 call	 DWORD PTR __imp_??0?$CStringT@DV?$StrTraitMFC_DLL@DV?$ChTraitsCRT@D@ATL@@@@@ATL@@QAE@PBD@Z
  03c6a	c6 45 fc 0b	 mov	 BYTE PTR __$EHRec$[ebp+8], 11 ; 0000000bH
  03c6e	8d 8d a0 f8 ff
	ff		 lea	 ecx, DWORD PTR $T205560[ebp]
  03c74	51		 push	 ecx
  03c75	8d 8d 5c f9 ff
	ff		 lea	 ecx, DWORD PTR _dlgmsg$203188[ebp]
  03c7b	e8 00 00 00 00	 call	 ?SetMsg@CDialogMsg@@QAEXABV?$CStringT@DV?$StrTraitMFC_DLL@DV?$ChTraitsCRT@D@ATL@@@@@ATL@@@Z ; CDialogMsg::SetMsg
  03c80	c6 45 fc 0a	 mov	 BYTE PTR __$EHRec$[ebp+8], 10 ; 0000000aH
  03c84	8d 8d a0 f8 ff
	ff		 lea	 ecx, DWORD PTR $T205560[ebp]
  03c8a	ff 15 00 00 00
	00		 call	 DWORD PTR __imp_??1?$CStringT@DV?$StrTraitMFC_DLL@DV?$ChTraitsCRT@D@ATL@@@@@ATL@@QAE@XZ

; 968  : 			dlgmsg.SetBtnText(1,"");

  03c90	68 00 00 00 00	 push	 OFFSET FLAT:$SG203192
  03c95	8d 8d 9c f8 ff
	ff		 lea	 ecx, DWORD PTR $T205561[ebp]
  03c9b	ff 15 00 00 00
	00		 call	 DWORD PTR __imp_??0?$CStringT@DV?$StrTraitMFC_DLL@DV?$ChTraitsCRT@D@ATL@@@@@ATL@@QAE@PBD@Z
  03ca1	c6 45 fc 0c	 mov	 BYTE PTR __$EHRec$[ebp+8], 12 ; 0000000cH
  03ca5	8d 95 9c f8 ff
	ff		 lea	 edx, DWORD PTR $T205561[ebp]
  03cab	52		 push	 edx
  03cac	6a 01		 push	 1
  03cae	8d 8d 5c f9 ff
	ff		 lea	 ecx, DWORD PTR _dlgmsg$203188[ebp]
  03cb4	e8 00 00 00 00	 call	 ?SetBtnText@CDialogMsg@@QAEXHABV?$CStringT@DV?$StrTraitMFC_DLL@DV?$ChTraitsCRT@D@ATL@@@@@ATL@@@Z ; CDialogMsg::SetBtnText
  03cb9	c6 45 fc 0a	 mov	 BYTE PTR __$EHRec$[ebp+8], 10 ; 0000000aH
  03cbd	8d 8d 9c f8 ff
	ff		 lea	 ecx, DWORD PTR $T205561[ebp]
  03cc3	ff 15 00 00 00
	00		 call	 DWORD PTR __imp_??1?$CStringT@DV?$StrTraitMFC_DLL@DV?$ChTraitsCRT@D@ATL@@@@@ATL@@QAE@XZ

; 969  : 			dlgmsg.DoModal();

  03cc9	8d 8d 5c f9 ff
	ff		 lea	 ecx, DWORD PTR _dlgmsg$203188[ebp]
  03ccf	e8 00 00 00 00	 call	 ?DoModal@CDialog@@UAEHXZ ; CDialog::DoModal

; 970  : 		}

  03cd4	c7 45 fc ff ff
	ff ff		 mov	 DWORD PTR __$EHRec$[ebp+8], -1
  03cdb	8d 8d 5c f9 ff
	ff		 lea	 ecx, DWORD PTR _dlgmsg$203188[ebp]
  03ce1	e8 00 00 00 00	 call	 ??1CDialogMsg@@UAE@XZ	; CDialogMsg::~CDialogMsg
$L203153:

; 971  : 		//	AfxMessageBox("!");
; 972  : 	}
; 973  : }

  03ce6	8b 4d f4	 mov	 ecx, DWORD PTR __$EHRec$[ebp]
  03ce9	64 89 0d 00 00
	00 00		 mov	 DWORD PTR fs:__except_list, ecx
  03cf0	8b e5		 mov	 esp, ebp
  03cf2	5d		 pop	 ebp
  03cf3	c2 08 00	 ret	 8
_TEXT	ENDS
text$x	SEGMENT
$L205562:
  00593	8d 8d 40 f9 ff
	ff		 lea	 ecx, DWORD PTR $T205550[ebp]
  00599	ff 25 00 00 00
	00		 jmp	 DWORD PTR __imp_??1?$basic_string@DU?$char_traits@D@std@@V?$allocator@D@2@@std@@QAE@XZ
$L205563:
  0059f	8d 8d 24 f9 ff
	ff		 lea	 ecx, DWORD PTR $T205551[ebp]
  005a5	ff 25 00 00 00
	00		 jmp	 DWORD PTR __imp_??1?$basic_string@DU?$char_traits@D@std@@V?$allocator@D@2@@std@@QAE@XZ
$L205564:
  005ab	8d 4d f0	 lea	 ecx, DWORD PTR _tips$203164[ebp]
  005ae	ff 25 00 00 00
	00		 jmp	 DWORD PTR __imp_??1?$CStringT@DV?$StrTraitMFC_DLL@DV?$ChTraitsCRT@D@ATL@@@@@ATL@@QAE@XZ
$L205565:
  005b4	8b 8d 20 f9 ff
	ff		 mov	 ecx, DWORD PTR $T205552[ebp]
  005ba	ff 25 00 00 00
	00		 jmp	 DWORD PTR __imp_??1?$CStringT@DV?$StrTraitMFC_DLL@DV?$ChTraitsCRT@D@ATL@@@@@ATL@@QAE@XZ
$L205566:
  005c0	8b 8d 1c f9 ff
	ff		 mov	 ecx, DWORD PTR $T205553[ebp]
  005c6	ff 25 00 00 00
	00		 jmp	 DWORD PTR __imp_??1?$CStringT@DV?$StrTraitMFC_DLL@DV?$ChTraitsCRT@D@ATL@@@@@ATL@@QAE@XZ
$L205568:
  005cc	8d 8d fc f8 ff
	ff		 lea	 ecx, DWORD PTR $T205555[ebp]
  005d2	ff 25 00 00 00
	00		 jmp	 DWORD PTR __imp_??1?$basic_string@DU?$char_traits@D@std@@V?$allocator@D@2@@std@@QAE@XZ
$L205569:
  005d8	8d 8d e0 f8 ff
	ff		 lea	 ecx, DWORD PTR $T205556[ebp]
  005de	ff 25 00 00 00
	00		 jmp	 DWORD PTR __imp_??1?$basic_string@DU?$char_traits@D@std@@V?$allocator@D@2@@std@@QAE@XZ
$L205570:
  005e4	8d 8d dc f8 ff
	ff		 lea	 ecx, DWORD PTR $T205557[ebp]
  005ea	ff 25 00 00 00
	00		 jmp	 DWORD PTR __imp_??1?$CStringT@DV?$StrTraitMFC_DLL@DV?$ChTraitsCRT@D@ATL@@@@@ATL@@QAE@XZ
$L205571:
  005f0	8d 8d c0 f8 ff
	ff		 lea	 ecx, DWORD PTR $T205558[ebp]
  005f6	ff 25 00 00 00
	00		 jmp	 DWORD PTR __imp_??1?$basic_string@DU?$char_traits@D@std@@V?$allocator@D@2@@std@@QAE@XZ
$L205572:
  005fc	8d 8d a4 f8 ff
	ff		 lea	 ecx, DWORD PTR $T205559[ebp]
  00602	ff 25 00 00 00
	00		 jmp	 DWORD PTR __imp_??1?$basic_string@DU?$char_traits@D@std@@V?$allocator@D@2@@std@@QAE@XZ
$L205573:
  00608	8d 8d 5c f9 ff
	ff		 lea	 ecx, DWORD PTR _dlgmsg$203188[ebp]
  0060e	e9 00 00 00 00	 jmp	 ??1CDialogMsg@@UAE@XZ	; CDialogMsg::~CDialogMsg
$L205574:
  00613	8d 8d a0 f8 ff
	ff		 lea	 ecx, DWORD PTR $T205560[ebp]
  00619	ff 25 00 00 00
	00		 jmp	 DWORD PTR __imp_??1?$CStringT@DV?$StrTraitMFC_DLL@DV?$ChTraitsCRT@D@ATL@@@@@ATL@@QAE@XZ
$L205575:
  0061f	8d 8d 9c f8 ff
	ff		 lea	 ecx, DWORD PTR $T205561[ebp]
  00625	ff 25 00 00 00
	00		 jmp	 DWORD PTR __imp_??1?$CStringT@DV?$StrTraitMFC_DLL@DV?$ChTraitsCRT@D@ATL@@@@@ATL@@QAE@XZ
__ehhandler$?DownloadSubFinish@CSkinMgrV1@@QAEXABV?$CStringT@DV?$StrTraitMFC_DLL@DV?$ChTraitsCRT@D@ATL@@@@@ATL@@H@Z:
  0062b	b8 00 00 00 00	 mov	 eax, OFFSET FLAT:$T205577
  00630	e9 00 00 00 00	 jmp	 ___CxxFrameHandler
text$x	ENDS
?DownloadSubFinish@CSkinMgrV1@@QAEXABV?$CStringT@DV?$StrTraitMFC_DLL@DV?$ChTraitsCRT@D@ATL@@@@@ATL@@H@Z ENDP ; CSkinMgrV1::DownloadSubFinish
; Function compile flags: /Odt
; File d:\boxgit\playbox\playbox\dev\prj\playbox\src\gui\commoncontrol\dialogmsg.h
;	COMDAT ?SetMsg@CDialogMsg@@QAEXABV?$CStringT@DV?$StrTraitMFC_DLL@DV?$ChTraitsCRT@D@ATL@@@@@ATL@@@Z
_TEXT	SEGMENT
_this$ = -4						; size = 4
_strMsg$ = 8						; size = 4
?SetMsg@CDialogMsg@@QAEXABV?$CStringT@DV?$StrTraitMFC_DLL@DV?$ChTraitsCRT@D@ATL@@@@@ATL@@@Z PROC NEAR ; CDialogMsg::SetMsg, COMDAT
; _this$ = ecx

; 36   : 	void	SetMsg(const CString& strMsg){m_strMsg = strMsg;}

  00000	55		 push	 ebp
  00001	8b ec		 mov	 ebp, esp
  00003	51		 push	 ecx
  00004	89 4d fc	 mov	 DWORD PTR _this$[ebp], ecx
  00007	8b 45 08	 mov	 eax, DWORD PTR _strMsg$[ebp]
  0000a	50		 push	 eax
  0000b	8b 4d fc	 mov	 ecx, DWORD PTR _this$[ebp]
  0000e	81 c1 8c 00 00
	00		 add	 ecx, 140		; 0000008cH
  00014	ff 15 00 00 00
	00		 call	 DWORD PTR __imp_??4?$CStringT@DV?$StrTraitMFC_DLL@DV?$ChTraitsCRT@D@ATL@@@@@ATL@@QAEAAV01@ABV01@@Z
  0001a	8b e5		 mov	 esp, ebp
  0001c	5d		 pop	 ebp
  0001d	c2 04 00	 ret	 4
?SetMsg@CDialogMsg@@QAEXABV?$CStringT@DV?$StrTraitMFC_DLL@DV?$ChTraitsCRT@D@ATL@@@@@ATL@@@Z ENDP ; CDialogMsg::SetMsg
_TEXT	ENDS
PUBLIC	?GetWindowRect@CWnd@@QBEXPAUtagRECT@@@Z		; CWnd::GetWindowRect
PUBLIC	?InvalidateRect@CWnd@@QAEXPBUtagRECT@@H@Z	; CWnd::InvalidateRect
EXTRN	?ScreenToClient@CWnd@@QBEXPAUtagRECT@@@Z:NEAR	; CWnd::ScreenToClient
EXTRN	?GetConfigBoolValue@AfxUserConfig@@QAEXABV?$basic_string@DU?$char_traits@D@std@@V?$allocator@D@2@@std@@0AA_N@Z:NEAR ; AfxUserConfig::GetConfigBoolValue
EXTRN	?SetConfigBoolValue@AfxUserConfig@@QAEXABV?$basic_string@DU?$char_traits@D@std@@V?$allocator@D@2@@std@@0_N1@Z:NEAR ; AfxUserConfig::SetConfigBoolValue
EXTRN	?OnBtnSub@CMainSkinWnd@@QAEXXZ:NEAR		; CMainSkinWnd::OnBtnSub
xdata$x	SEGMENT
$T205622 DD	0ffffffffH
	DD	FLAT:$L205600
	DD	00H
	DD	FLAT:$L205601
	DD	0ffffffffH
	DD	FLAT:$L205602
	DD	02H
	DD	FLAT:$L205603
	DD	0ffffffffH
	DD	FLAT:$L205604
	DD	04H
	DD	FLAT:$L205605
	DD	0ffffffffH
	DD	FLAT:$L205607
	DD	06H
	DD	FLAT:$L205608
	DD	07H
	DD	FLAT:$L205609
	DD	06H
	DD	FLAT:$L205611
	DD	09H
	DD	FLAT:$L205612
	DD	06H
	DD	FLAT:$L205613
	DD	06H
	DD	FLAT:$L205614
	DD	0cH
	DD	FLAT:$L205615
	DD	0ffffffffH
	DD	FLAT:$L205616
	DD	0eH
	DD	FLAT:$L205617
	DD	0eH
	DD	FLAT:$L205618
$T205620 DD	019930520H
	DD	011H
	DD	FLAT:$T205622
	DD	2 DUP(00H)
	DD	2 DUP(00H)
; Function compile flags: /Odt
; File d:\boxgit\playbox\playbox\dev\prj\playbox\src\layoutmgr\changecolor\ichangecolormgr.cpp
xdata$x	ENDS
_TEXT	SEGMENT
tv367 = -2076						; size = 4
tv364 = -2072						; size = 4
tv208 = -2068						; size = 4
tv361 = -2064						; size = 4
tv234 = -2060						; size = 4
tv358 = -2056						; size = 4
tv175 = -2052						; size = 4
tv170 = -2048						; size = 4
tv161 = -2044						; size = 4
tv156 = -2040						; size = 4
_this$ = -2036						; size = 4
$T205599 = -2032					; size = 4
$T205598 = -2028					; size = 4
$T205597 = -2024					; size = 28
$T205596 = -1996					; size = 28
$T205595 = -1968					; size = 4
$T205594 = -1964					; size = 28
$T205593 = -1936					; size = 28
$T205592 = -1908					; size = 4
$T205591 = -1904					; size = 4
$T205590 = -1900					; size = 4
$T205589 = -1896					; size = 4
$T205588 = -1892					; size = 28
$T205587 = -1864					; size = 28
$T205586 = -1836					; size = 28
$T205585 = -1808					; size = 28
$T205584 = -1780					; size = 28
$T205583 = -1752					; size = 28
_dlgmsg$203242 = -1724					; size = 1676
_pOneSub$203208 = -40					; size = 4
_nFirstRun$203209 = -33					; size = 1
_tips$203218 = -32					; size = 4
_rc$ = -28						; size = 16
__$EHRec$ = -12						; size = 12
_strSub$ = 8						; size = 4
_bSuc$ = 12						; size = 4
?DownloadWebSubFinish@CSkinMgrV1@@QAEXABV?$CStringT@DV?$StrTraitMFC_DLL@DV?$ChTraitsCRT@D@ATL@@@@@ATL@@H@Z PROC NEAR ; CSkinMgrV1::DownloadWebSubFinish
; _this$ = ecx

; 975  : {

  03d00	55		 push	 ebp
  03d01	8b ec		 mov	 ebp, esp
  03d03	6a ff		 push	 -1
  03d05	68 00 00 00 00	 push	 __ehhandler$?DownloadWebSubFinish@CSkinMgrV1@@QAEXABV?$CStringT@DV?$StrTraitMFC_DLL@DV?$ChTraitsCRT@D@ATL@@@@@ATL@@H@Z
  03d0a	64 a1 00 00 00
	00		 mov	 eax, DWORD PTR fs:__except_list
  03d10	50		 push	 eax
  03d11	64 89 25 00 00
	00 00		 mov	 DWORD PTR fs:__except_list, esp
  03d18	81 ec 10 08 00
	00		 sub	 esp, 2064		; 00000810H
  03d1e	89 8d 0c f8 ff
	ff		 mov	 DWORD PTR _this$[ebp], ecx

; 976  : 	YL_Log("SkinB.txt",LOG_DEBUG,"Click-In","9");

  03d24	68 00 00 00 00	 push	 OFFSET FLAT:$SG203201
  03d29	8d 8d 28 f9 ff
	ff		 lea	 ecx, DWORD PTR $T205583[ebp]
  03d2f	ff 15 00 00 00
	00		 call	 DWORD PTR __imp_??0?$basic_string@DU?$char_traits@D@std@@V?$allocator@D@2@@std@@QAE@PBD@Z
  03d35	c7 45 fc 00 00
	00 00		 mov	 DWORD PTR __$EHRec$[ebp+8], 0
  03d3c	68 00 00 00 00	 push	 OFFSET FLAT:$SG203202
  03d41	8d 8d 0c f9 ff
	ff		 lea	 ecx, DWORD PTR $T205584[ebp]
  03d47	ff 15 00 00 00
	00		 call	 DWORD PTR __imp_??0?$basic_string@DU?$char_traits@D@std@@V?$allocator@D@2@@std@@QAE@PBD@Z
  03d4d	c6 45 fc 01	 mov	 BYTE PTR __$EHRec$[ebp+8], 1
  03d51	68 00 00 00 00	 push	 OFFSET FLAT:$SG203200
  03d56	8d 85 28 f9 ff
	ff		 lea	 eax, DWORD PTR $T205583[ebp]
  03d5c	50		 push	 eax
  03d5d	6a 00		 push	 0
  03d5f	8d 8d 0c f9 ff
	ff		 lea	 ecx, DWORD PTR $T205584[ebp]
  03d65	51		 push	 ecx
  03d66	ff 15 00 00 00
	00		 call	 DWORD PTR __imp_?YL_Log@@YAXABV?$basic_string@DU?$char_traits@D@std@@V?$allocator@D@2@@std@@H0PBDZZ
  03d6c	83 c4 10	 add	 esp, 16			; 00000010H
  03d6f	c6 45 fc 00	 mov	 BYTE PTR __$EHRec$[ebp+8], 0
  03d73	8d 8d 0c f9 ff
	ff		 lea	 ecx, DWORD PTR $T205584[ebp]
  03d79	ff 15 00 00 00
	00		 call	 DWORD PTR __imp_??1?$basic_string@DU?$char_traits@D@std@@V?$allocator@D@2@@std@@QAE@XZ
  03d7f	c7 45 fc ff ff
	ff ff		 mov	 DWORD PTR __$EHRec$[ebp+8], -1
  03d86	8d 8d 28 f9 ff
	ff		 lea	 ecx, DWORD PTR $T205583[ebp]
  03d8c	ff 15 00 00 00
	00		 call	 DWORD PTR __imp_??1?$basic_string@DU?$char_traits@D@std@@V?$allocator@D@2@@std@@QAE@XZ

; 977  : 	if( mp_SubjectWnd != NULL )

  03d92	8b 95 0c f8 ff
	ff		 mov	 edx, DWORD PTR _this$[ebp]
  03d98	83 7a 18 00	 cmp	 DWORD PTR [edx+24], 0
  03d9c	74 10		 je	 SHORT $L203203

; 978  : 	{
; 979  : 		mp_SubjectWnd->EnableSkinBtn( TRUE );

  03d9e	6a 01		 push	 1
  03da0	8b 85 0c f8 ff
	ff		 mov	 eax, DWORD PTR _this$[ebp]
  03da6	8b 48 18	 mov	 ecx, DWORD PTR [eax+24]
  03da9	e8 00 00 00 00	 call	 ?EnableSkinBtn@CSubjectChildWnd@@QAEXH@Z ; CSubjectChildWnd::EnableSkinBtn
$L203203:

; 980  : 	}
; 981  : 
; 982  : 	if(mp_skinWnd != NULL )

  03dae	8b 8d 0c f8 ff
	ff		 mov	 ecx, DWORD PTR _this$[ebp]
  03db4	83 79 14 00	 cmp	 DWORD PTR [ecx+20], 0
  03db8	74 10		 je	 SHORT $L203204

; 983  : 	{
; 984  : 		mp_skinWnd->EnableSkinBtn( TRUE );

  03dba	6a 01		 push	 1
  03dbc	8b 95 0c f8 ff
	ff		 mov	 edx, DWORD PTR _this$[ebp]
  03dc2	8b 4a 14	 mov	 ecx, DWORD PTR [edx+20]
  03dc5	e8 00 00 00 00	 call	 ?EnableSkinBtn@CSkinWnd@@QAEXH@Z ; CSkinWnd::EnableSkinBtn
$L203204:

; 985  : 	}
; 986  : 
; 987  : 	mp_downloadSubject->ShowWindow( SW_HIDE );

  03dca	6a 00		 push	 0
  03dcc	8b 85 0c f8 ff
	ff		 mov	 eax, DWORD PTR _this$[ebp]
  03dd2	8b 48 24	 mov	 ecx, DWORD PTR [eax+36]
  03dd5	e8 00 00 00 00	 call	 ?ShowWindow@CWnd@@QAEHH@Z ; CWnd::ShowWindow

; 988  : 	mp_mainSkinWnd->ShowToolTip(0);

  03dda	6a 00		 push	 0
  03ddc	8b 8d 0c f8 ff
	ff		 mov	 ecx, DWORD PTR _this$[ebp]
  03de2	8b 49 10	 mov	 ecx, DWORD PTR [ecx+16]
  03de5	e8 00 00 00 00	 call	 ?ShowToolTip@CMainSkinWnd@@QAEXH@Z ; CMainSkinWnd::ShowToolTip

; 989  : 
; 990  : 	mp_mainSkinWnd->ShowColorBtn( TRUE );

  03dea	6a 01		 push	 1
  03dec	8b 95 0c f8 ff
	ff		 mov	 edx, DWORD PTR _this$[ebp]
  03df2	8b 4a 10	 mov	 ecx, DWORD PTR [edx+16]
  03df5	e8 00 00 00 00	 call	 ?ShowColorBtn@CMainSkinWnd@@QAEXH@Z ; CMainSkinWnd::ShowColorBtn

; 991  : 
; 992  : 	CRect rc;

  03dfa	8d 4d e4	 lea	 ecx, DWORD PTR _rc$[ebp]
  03dfd	e8 00 00 00 00	 call	 ??0CRect@@QAE@XZ	; CRect::CRect

; 993  : 	mp_downloadSubject->GetWindowRect(rc);

  03e02	8d 4d e4	 lea	 ecx, DWORD PTR _rc$[ebp]
  03e05	e8 00 00 00 00	 call	 ??BCRect@@QAEPAUtagRECT@@XZ ; CRect::operator tagRECT *
  03e0a	50		 push	 eax
  03e0b	8b 85 0c f8 ff
	ff		 mov	 eax, DWORD PTR _this$[ebp]
  03e11	8b 48 24	 mov	 ecx, DWORD PTR [eax+36]
  03e14	e8 00 00 00 00	 call	 ?GetWindowRect@CWnd@@QBEXPAUtagRECT@@@Z ; CWnd::GetWindowRect

; 994  : 	mp_mainSkinWnd->ScreenToClient(rc);

  03e19	8d 4d e4	 lea	 ecx, DWORD PTR _rc$[ebp]
  03e1c	e8 00 00 00 00	 call	 ??BCRect@@QAEPAUtagRECT@@XZ ; CRect::operator tagRECT *
  03e21	50		 push	 eax
  03e22	8b 8d 0c f8 ff
	ff		 mov	 ecx, DWORD PTR _this$[ebp]
  03e28	8b 49 10	 mov	 ecx, DWORD PTR [ecx+16]
  03e2b	e8 00 00 00 00	 call	 ?ScreenToClient@CWnd@@QBEXPAUtagRECT@@@Z ; CWnd::ScreenToClient

; 995  :  	mp_mainSkinWnd->InvalidateRect(&rc,true);

  03e30	6a 01		 push	 1
  03e32	8d 55 e4	 lea	 edx, DWORD PTR _rc$[ebp]
  03e35	52		 push	 edx
  03e36	8b 85 0c f8 ff
	ff		 mov	 eax, DWORD PTR _this$[ebp]
  03e3c	8b 48 10	 mov	 ecx, DWORD PTR [eax+16]
  03e3f	e8 00 00 00 00	 call	 ?InvalidateRect@CWnd@@QAEXPBUtagRECT@@H@Z ; CWnd::InvalidateRect

; 996  :  	mp_mainSkinWnd->UpdateWindow();

  03e44	8b 8d 0c f8 ff
	ff		 mov	 ecx, DWORD PTR _this$[ebp]
  03e4a	8b 49 10	 mov	 ecx, DWORD PTR [ecx+16]
  03e4d	e8 00 00 00 00	 call	 ?UpdateWindow@CWnd@@QAEXXZ ; CWnd::UpdateWindow

; 997  : 
; 998  : 	if( bSuc )

  03e52	83 7d 0c 00	 cmp	 DWORD PTR _bSuc$[ebp], 0
  03e56	0f 84 d1 03 00
	00		 je	 $L203206

; 999  : 	{	
; 1000 : 		AfxGetUIManager()->UIGetSkinMgr()->SubDownloaded( strSub );

  03e5c	e8 00 00 00 00	 call	 ?AfxGetUIManager@@YAPAVIUIManager@@XZ ; AfxGetUIManager
  03e61	89 85 08 f8 ff
	ff		 mov	 DWORD PTR tv156[ebp], eax
  03e67	8b 95 08 f8 ff
	ff		 mov	 edx, DWORD PTR tv156[ebp]
  03e6d	8b 02		 mov	 eax, DWORD PTR [edx]
  03e6f	8b 8d 08 f8 ff
	ff		 mov	 ecx, DWORD PTR tv156[ebp]
  03e75	ff 50 28	 call	 DWORD PTR [eax+40]
  03e78	89 85 04 f8 ff
	ff		 mov	 DWORD PTR tv161[ebp], eax
  03e7e	8b 4d 08	 mov	 ecx, DWORD PTR _strSub$[ebp]
  03e81	51		 push	 ecx
  03e82	8b 95 04 f8 ff
	ff		 mov	 edx, DWORD PTR tv161[ebp]
  03e88	8b 02		 mov	 eax, DWORD PTR [edx]
  03e8a	8b 8d 04 f8 ff
	ff		 mov	 ecx, DWORD PTR tv161[ebp]
  03e90	ff 50 48	 call	 DWORD PTR [eax+72]

; 1001 : 
; 1002 : 		if( mb_HasPopWnd )

  03e93	8b 8d 0c f8 ff
	ff		 mov	 ecx, DWORD PTR _this$[ebp]
  03e99	0f b6 51 48	 movzx	 edx, BYTE PTR [ecx+72]
  03e9d	85 d2		 test	 edx, edx
  03e9f	0f 84 83 03 00
	00		 je	 $L203207

; 1003 : 		{
; 1004 : 			OneSubject* pOneSub = AfxGetUIManager()->UIGetSkinMgr()->GetOneSubject( strSub );

  03ea5	e8 00 00 00 00	 call	 ?AfxGetUIManager@@YAPAVIUIManager@@XZ ; AfxGetUIManager
  03eaa	89 85 00 f8 ff
	ff		 mov	 DWORD PTR tv170[ebp], eax
  03eb0	8b 85 00 f8 ff
	ff		 mov	 eax, DWORD PTR tv170[ebp]
  03eb6	8b 10		 mov	 edx, DWORD PTR [eax]
  03eb8	8b 8d 00 f8 ff
	ff		 mov	 ecx, DWORD PTR tv170[ebp]
  03ebe	ff 52 28	 call	 DWORD PTR [edx+40]
  03ec1	89 85 fc f7 ff
	ff		 mov	 DWORD PTR tv175[ebp], eax
  03ec7	8b 45 08	 mov	 eax, DWORD PTR _strSub$[ebp]
  03eca	50		 push	 eax
  03ecb	8b 8d fc f7 ff
	ff		 mov	 ecx, DWORD PTR tv175[ebp]
  03ed1	8b 11		 mov	 edx, DWORD PTR [ecx]
  03ed3	8b 8d fc f7 ff
	ff		 mov	 ecx, DWORD PTR tv175[ebp]
  03ed9	ff 52 2c	 call	 DWORD PTR [edx+44]
  03edc	89 45 d8	 mov	 DWORD PTR _pOneSub$203208[ebp], eax

; 1005 : 
; 1006 : 			bool nFirstRun;
; 1007 : 			AfxGetUserConfig()->GetConfigBoolValue( CONF_SETTING_MODULE_NAME,CONF_SETTING_FIRST_TIME_CHANGESKIN,nFirstRun);

  03edf	a1 00 00 00 00	 mov	 eax, DWORD PTR _CONF_SETTING_FIRST_TIME_CHANGESKIN
  03ee4	50		 push	 eax
  03ee5	8d 8d f0 f8 ff
	ff		 lea	 ecx, DWORD PTR $T205585[ebp]
  03eeb	ff 15 00 00 00
	00		 call	 DWORD PTR __imp_??0?$basic_string@DU?$char_traits@D@std@@V?$allocator@D@2@@std@@QAE@PBD@Z
  03ef1	c7 45 fc 02 00
	00 00		 mov	 DWORD PTR __$EHRec$[ebp+8], 2
  03ef8	8b 0d 00 00 00
	00		 mov	 ecx, DWORD PTR _CONF_SETTING_MODULE_NAME
  03efe	51		 push	 ecx
  03eff	8d 8d d4 f8 ff
	ff		 lea	 ecx, DWORD PTR $T205586[ebp]
  03f05	ff 15 00 00 00
	00		 call	 DWORD PTR __imp_??0?$basic_string@DU?$char_traits@D@std@@V?$allocator@D@2@@std@@QAE@PBD@Z
  03f0b	c6 45 fc 03	 mov	 BYTE PTR __$EHRec$[ebp+8], 3
  03f0f	8d 55 df	 lea	 edx, DWORD PTR _nFirstRun$203209[ebp]
  03f12	52		 push	 edx
  03f13	8d 85 f0 f8 ff
	ff		 lea	 eax, DWORD PTR $T205585[ebp]
  03f19	50		 push	 eax
  03f1a	8d 8d d4 f8 ff
	ff		 lea	 ecx, DWORD PTR $T205586[ebp]
  03f20	51		 push	 ecx
  03f21	e8 00 00 00 00	 call	 ?AfxGetUserConfig@@YAPAVAfxUserConfig@@XZ ; AfxGetUserConfig
  03f26	8b c8		 mov	 ecx, eax
  03f28	e8 00 00 00 00	 call	 ?GetConfigBoolValue@AfxUserConfig@@QAEXABV?$basic_string@DU?$char_traits@D@std@@V?$allocator@D@2@@std@@0AA_N@Z ; AfxUserConfig::GetConfigBoolValue
  03f2d	c6 45 fc 02	 mov	 BYTE PTR __$EHRec$[ebp+8], 2
  03f31	8d 8d d4 f8 ff
	ff		 lea	 ecx, DWORD PTR $T205586[ebp]
  03f37	ff 15 00 00 00
	00		 call	 DWORD PTR __imp_??1?$basic_string@DU?$char_traits@D@std@@V?$allocator@D@2@@std@@QAE@XZ
  03f3d	c7 45 fc ff ff
	ff ff		 mov	 DWORD PTR __$EHRec$[ebp+8], -1
  03f44	8d 8d f0 f8 ff
	ff		 lea	 ecx, DWORD PTR $T205585[ebp]
  03f4a	ff 15 00 00 00
	00		 call	 DWORD PTR __imp_??1?$basic_string@DU?$char_traits@D@std@@V?$allocator@D@2@@std@@QAE@XZ

; 1008 : 
; 1009 : 			if(nFirstRun)

  03f50	0f b6 55 df	 movzx	 edx, BYTE PTR _nFirstRun$203209[ebp]
  03f54	85 d2		 test	 edx, edx
  03f56	0f 84 88 00 00
	00		 je	 $L203212

; 1010 : 			{
; 1011 : 				mp_mainSkinWnd->OnBtnSub();

  03f5c	8b 85 0c f8 ff
	ff		 mov	 eax, DWORD PTR _this$[ebp]
  03f62	8b 48 10	 mov	 ecx, DWORD PTR [eax+16]
  03f65	e8 00 00 00 00	 call	 ?OnBtnSub@CMainSkinWnd@@QAEXXZ ; CMainSkinWnd::OnBtnSub

; 1012 : 				nFirstRun = 0;

  03f6a	c6 45 df 00	 mov	 BYTE PTR _nFirstRun$203209[ebp], 0

; 1013 : 				AfxGetUserConfig()->SetConfigBoolValue( CONF_SETTING_MODULE_NAME,CONF_SETTING_FIRST_TIME_CHANGESKIN,nFirstRun);

  03f6e	8b 0d 00 00 00
	00		 mov	 ecx, DWORD PTR _CONF_SETTING_FIRST_TIME_CHANGESKIN
  03f74	51		 push	 ecx
  03f75	8d 8d b8 f8 ff
	ff		 lea	 ecx, DWORD PTR $T205587[ebp]
  03f7b	ff 15 00 00 00
	00		 call	 DWORD PTR __imp_??0?$basic_string@DU?$char_traits@D@std@@V?$allocator@D@2@@std@@QAE@PBD@Z
  03f81	c7 45 fc 04 00
	00 00		 mov	 DWORD PTR __$EHRec$[ebp+8], 4
  03f88	8b 15 00 00 00
	00		 mov	 edx, DWORD PTR _CONF_SETTING_MODULE_NAME
  03f8e	52		 push	 edx
  03f8f	8d 8d 9c f8 ff
	ff		 lea	 ecx, DWORD PTR $T205588[ebp]
  03f95	ff 15 00 00 00
	00		 call	 DWORD PTR __imp_??0?$basic_string@DU?$char_traits@D@std@@V?$allocator@D@2@@std@@QAE@PBD@Z
  03f9b	c6 45 fc 05	 mov	 BYTE PTR __$EHRec$[ebp+8], 5
  03f9f	6a 00		 push	 0
  03fa1	8a 45 df	 mov	 al, BYTE PTR _nFirstRun$203209[ebp]
  03fa4	50		 push	 eax
  03fa5	8d 8d b8 f8 ff
	ff		 lea	 ecx, DWORD PTR $T205587[ebp]
  03fab	51		 push	 ecx
  03fac	8d 95 9c f8 ff
	ff		 lea	 edx, DWORD PTR $T205588[ebp]
  03fb2	52		 push	 edx
  03fb3	e8 00 00 00 00	 call	 ?AfxGetUserConfig@@YAPAVAfxUserConfig@@XZ ; AfxGetUserConfig
  03fb8	8b c8		 mov	 ecx, eax
  03fba	e8 00 00 00 00	 call	 ?SetConfigBoolValue@AfxUserConfig@@QAEXABV?$basic_string@DU?$char_traits@D@std@@V?$allocator@D@2@@std@@0_N1@Z ; AfxUserConfig::SetConfigBoolValue
  03fbf	c6 45 fc 04	 mov	 BYTE PTR __$EHRec$[ebp+8], 4
  03fc3	8d 8d 9c f8 ff
	ff		 lea	 ecx, DWORD PTR $T205588[ebp]
  03fc9	ff 15 00 00 00
	00		 call	 DWORD PTR __imp_??1?$basic_string@DU?$char_traits@D@std@@V?$allocator@D@2@@std@@QAE@XZ
  03fcf	c7 45 fc ff ff
	ff ff		 mov	 DWORD PTR __$EHRec$[ebp+8], -1
  03fd6	8d 8d b8 f8 ff
	ff		 lea	 ecx, DWORD PTR $T205587[ebp]
  03fdc	ff 15 00 00 00
	00		 call	 DWORD PTR __imp_??1?$basic_string@DU?$char_traits@D@std@@V?$allocator@D@2@@std@@QAE@XZ

; 1014 : 			}
; 1015 : 			else

  03fe2	eb 38		 jmp	 SHORT $L203215
$L203212:

; 1016 : 			{
; 1017 : 				mp_mainSkinWnd->SetToolTip("");

  03fe4	51		 push	 ecx
  03fe5	8b cc		 mov	 ecx, esp
  03fe7	89 a5 98 f8 ff
	ff		 mov	 DWORD PTR $T205589[ebp], esp
  03fed	68 00 00 00 00	 push	 OFFSET FLAT:$SG203217
  03ff2	ff 15 00 00 00
	00		 call	 DWORD PTR __imp_??0?$CStringT@DV?$StrTraitMFC_DLL@DV?$ChTraitsCRT@D@ATL@@@@@ATL@@QAE@PBD@Z
  03ff8	89 85 f8 f7 ff
	ff		 mov	 DWORD PTR tv358[ebp], eax
  03ffe	8b 85 0c f8 ff
	ff		 mov	 eax, DWORD PTR _this$[ebp]
  04004	8b 48 10	 mov	 ecx, DWORD PTR [eax+16]
  04007	e8 00 00 00 00	 call	 ?SetToolTip@CMainSkinWnd@@QAEXV?$CStringT@DV?$StrTraitMFC_DLL@DV?$ChTraitsCRT@D@ATL@@@@@ATL@@@Z ; CMainSkinWnd::SetToolTip

; 1018 : 				mp_mainSkinWnd->ShowToolTip(1);

  0400c	6a 01		 push	 1
  0400e	8b 8d 0c f8 ff
	ff		 mov	 ecx, DWORD PTR _this$[ebp]
  04014	8b 49 10	 mov	 ecx, DWORD PTR [ecx+16]
  04017	e8 00 00 00 00	 call	 ?ShowToolTip@CMainSkinWnd@@QAEXH@Z ; CMainSkinWnd::ShowToolTip
$L203215:

; 1019 : 			}
; 1020 : 
; 1021 : 			CString tips = "";

  0401c	68 00 00 00 00	 push	 OFFSET FLAT:$SG203219
  04021	8d 4d e0	 lea	 ecx, DWORD PTR _tips$203218[ebp]
  04024	ff 15 00 00 00
	00		 call	 DWORD PTR __imp_??0?$CStringT@DV?$StrTraitMFC_DLL@DV?$ChTraitsCRT@D@ATL@@@@@ATL@@QAE@PBD@Z
  0402a	c7 45 fc 06 00
	00 00		 mov	 DWORD PTR __$EHRec$[ebp+8], 6

; 1022 : 			if( pOneSub != NULL )

  04031	83 7d d8 00	 cmp	 DWORD PTR _pOneSub$203208[ebp], 0
  04035	74 21		 je	 SHORT $L203220

; 1023 : 			{
; 1024 : 				tips.Format( ":  %s\r\n: ",pOneSub->strShowName.c_str()  );

  04037	8b 4d d8	 mov	 ecx, DWORD PTR _pOneSub$203208[ebp]
  0403a	83 c1 38	 add	 ecx, 56			; 00000038H
  0403d	ff 15 00 00 00
	00		 call	 DWORD PTR __imp_?c_str@?$basic_string@DU?$char_traits@D@std@@V?$allocator@D@2@@std@@QBEPBDXZ
  04043	50		 push	 eax
  04044	68 00 00 00 00	 push	 OFFSET FLAT:$SG203221
  04049	8d 55 e0	 lea	 edx, DWORD PTR _tips$203218[ebp]
  0404c	52		 push	 edx
  0404d	ff 15 00 00 00
	00		 call	 DWORD PTR __imp_?Format@?$CStringT@DV?$StrTraitMFC_DLL@DV?$ChTraitsCRT@D@ATL@@@@@ATL@@QAAXPBDZZ
  04053	83 c4 0c	 add	 esp, 12			; 0000000cH

; 1025 : 			}
; 1026 : 			else

  04056	eb 12		 jmp	 SHORT $L203222
$L203220:

; 1027 : 			{
; 1028 : 				tips.Format( ": ");

  04058	68 00 00 00 00	 push	 OFFSET FLAT:$SG203223
  0405d	8d 45 e0	 lea	 eax, DWORD PTR _tips$203218[ebp]
  04060	50		 push	 eax
  04061	ff 15 00 00 00
	00		 call	 DWORD PTR __imp_?Format@?$CStringT@DV?$StrTraitMFC_DLL@DV?$ChTraitsCRT@D@ATL@@@@@ATL@@QAAXPBDZZ
  04067	83 c4 08	 add	 esp, 8
$L203222:

; 1029 : 			}
; 1030 : 
; 1031 : 			if(  pOneSub != NULL&&mp_SubjectWnd )

  0406a	83 7d d8 00	 cmp	 DWORD PTR _pOneSub$203208[ebp], 0
  0406e	0f 84 96 00 00
	00		 je	 $L203224
  04074	8b 8d 0c f8 ff
	ff		 mov	 ecx, DWORD PTR _this$[ebp]
  0407a	83 79 18 00	 cmp	 DWORD PTR [ecx+24], 0
  0407e	0f 84 86 00 00
	00		 je	 $L203224

; 1032 : 			{
; 1033 : 				mp_SubjectWnd->SetTipText( strSub,tips ,pOneSub->strShowName.c_str());

  04084	8b 4d d8	 mov	 ecx, DWORD PTR _pOneSub$203208[ebp]
  04087	83 c1 38	 add	 ecx, 56			; 00000038H
  0408a	ff 15 00 00 00
	00		 call	 DWORD PTR __imp_?c_str@?$basic_string@DU?$char_traits@D@std@@V?$allocator@D@2@@std@@QBEPBDXZ
  04090	51		 push	 ecx
  04091	8b cc		 mov	 ecx, esp
  04093	89 a5 94 f8 ff
	ff		 mov	 DWORD PTR $T205590[ebp], esp
  04099	50		 push	 eax
  0409a	ff 15 00 00 00
	00		 call	 DWORD PTR __imp_??0?$CStringT@DV?$StrTraitMFC_DLL@DV?$ChTraitsCRT@D@ATL@@@@@ATL@@QAE@PBD@Z
  040a0	89 85 f4 f7 ff
	ff		 mov	 DWORD PTR tv234[ebp], eax
  040a6	8b 95 f4 f7 ff
	ff		 mov	 edx, DWORD PTR tv234[ebp]
  040ac	89 95 f0 f7 ff
	ff		 mov	 DWORD PTR tv361[ebp], edx
  040b2	c6 45 fc 07	 mov	 BYTE PTR __$EHRec$[ebp+8], 7
  040b6	51		 push	 ecx
  040b7	8b cc		 mov	 ecx, esp
  040b9	89 a5 90 f8 ff
	ff		 mov	 DWORD PTR $T205591[ebp], esp
  040bf	8d 45 e0	 lea	 eax, DWORD PTR _tips$203218[ebp]
  040c2	50		 push	 eax
  040c3	ff 15 00 00 00
	00		 call	 DWORD PTR __imp_??0?$CStringT@DV?$StrTraitMFC_DLL@DV?$ChTraitsCRT@D@ATL@@@@@ATL@@QAE@ABV01@@Z
  040c9	89 85 ec f7 ff
	ff		 mov	 DWORD PTR tv208[ebp], eax
  040cf	8b 8d ec f7 ff
	ff		 mov	 ecx, DWORD PTR tv208[ebp]
  040d5	89 8d e8 f7 ff
	ff		 mov	 DWORD PTR tv364[ebp], ecx
  040db	c6 45 fc 08	 mov	 BYTE PTR __$EHRec$[ebp+8], 8
  040df	51		 push	 ecx
  040e0	8b cc		 mov	 ecx, esp
  040e2	89 a5 8c f8 ff
	ff		 mov	 DWORD PTR $T205592[ebp], esp
  040e8	8b 55 08	 mov	 edx, DWORD PTR _strSub$[ebp]
  040eb	52		 push	 edx
  040ec	ff 15 00 00 00
	00		 call	 DWORD PTR __imp_??0?$CStringT@DV?$StrTraitMFC_DLL@DV?$ChTraitsCRT@D@ATL@@@@@ATL@@QAE@ABV01@@Z
  040f2	89 85 e4 f7 ff
	ff		 mov	 DWORD PTR tv367[ebp], eax
  040f8	8b 85 0c f8 ff
	ff		 mov	 eax, DWORD PTR _this$[ebp]
  040fe	8b 48 18	 mov	 ecx, DWORD PTR [eax+24]
  04101	c6 45 fc 06	 mov	 BYTE PTR __$EHRec$[ebp+8], 6
  04105	e8 00 00 00 00	 call	 ?SetTipText@CSubjectChildWnd@@QAEXV?$CStringT@DV?$StrTraitMFC_DLL@DV?$ChTraitsCRT@D@ATL@@@@@ATL@@00@Z ; CSubjectChildWnd::SetTipText
$L203224:

; 1034 : 			}
; 1035 : 
; 1036 : 			YL_Log("SkinB.txt",LOG_DEBUG,"Click-In","10");

  0410a	68 00 00 00 00	 push	 OFFSET FLAT:$SG203231
  0410f	8d 8d 70 f8 ff
	ff		 lea	 ecx, DWORD PTR $T205593[ebp]
  04115	ff 15 00 00 00
	00		 call	 DWORD PTR __imp_??0?$basic_string@DU?$char_traits@D@std@@V?$allocator@D@2@@std@@QAE@PBD@Z
  0411b	c6 45 fc 09	 mov	 BYTE PTR __$EHRec$[ebp+8], 9
  0411f	68 00 00 00 00	 push	 OFFSET FLAT:$SG203232
  04124	8d 8d 54 f8 ff
	ff		 lea	 ecx, DWORD PTR $T205594[ebp]
  0412a	ff 15 00 00 00
	00		 call	 DWORD PTR __imp_??0?$basic_string@DU?$char_traits@D@std@@V?$allocator@D@2@@std@@QAE@PBD@Z
  04130	c6 45 fc 0a	 mov	 BYTE PTR __$EHRec$[ebp+8], 10 ; 0000000aH
  04134	68 00 00 00 00	 push	 OFFSET FLAT:$SG203230
  04139	8d 8d 70 f8 ff
	ff		 lea	 ecx, DWORD PTR $T205593[ebp]
  0413f	51		 push	 ecx
  04140	6a 00		 push	 0
  04142	8d 95 54 f8 ff
	ff		 lea	 edx, DWORD PTR $T205594[ebp]
  04148	52		 push	 edx
  04149	ff 15 00 00 00
	00		 call	 DWORD PTR __imp_?YL_Log@@YAXABV?$basic_string@DU?$char_traits@D@std@@V?$allocator@D@2@@std@@H0PBDZZ
  0414f	83 c4 10	 add	 esp, 16			; 00000010H
  04152	c6 45 fc 09	 mov	 BYTE PTR __$EHRec$[ebp+8], 9
  04156	8d 8d 54 f8 ff
	ff		 lea	 ecx, DWORD PTR $T205594[ebp]
  0415c	ff 15 00 00 00
	00		 call	 DWORD PTR __imp_??1?$basic_string@DU?$char_traits@D@std@@V?$allocator@D@2@@std@@QAE@XZ
  04162	c6 45 fc 06	 mov	 BYTE PTR __$EHRec$[ebp+8], 6
  04166	8d 8d 70 f8 ff
	ff		 lea	 ecx, DWORD PTR $T205593[ebp]
  0416c	ff 15 00 00 00
	00		 call	 DWORD PTR __imp_??1?$basic_string@DU?$char_traits@D@std@@V?$allocator@D@2@@std@@QAE@XZ

; 1037 : 			mp_SubjectWnd->ClickSubBtn("",strSub );

  04172	68 00 00 00 00	 push	 OFFSET FLAT:$SG203234
  04177	8d 8d 50 f8 ff
	ff		 lea	 ecx, DWORD PTR $T205595[ebp]
  0417d	ff 15 00 00 00
	00		 call	 DWORD PTR __imp_??0?$CStringT@DV?$StrTraitMFC_DLL@DV?$ChTraitsCRT@D@ATL@@@@@ATL@@QAE@PBD@Z
  04183	c6 45 fc 0b	 mov	 BYTE PTR __$EHRec$[ebp+8], 11 ; 0000000bH
  04187	8b 45 08	 mov	 eax, DWORD PTR _strSub$[ebp]
  0418a	50		 push	 eax
  0418b	8d 8d 50 f8 ff
	ff		 lea	 ecx, DWORD PTR $T205595[ebp]
  04191	51		 push	 ecx
  04192	8b 95 0c f8 ff
	ff		 mov	 edx, DWORD PTR _this$[ebp]
  04198	8b 4a 18	 mov	 ecx, DWORD PTR [edx+24]
  0419b	e8 00 00 00 00	 call	 ?ClickSubBtn@CSubjectChildWnd@@QAEXABV?$CStringT@DV?$StrTraitMFC_DLL@DV?$ChTraitsCRT@D@ATL@@@@@ATL@@0@Z ; CSubjectChildWnd::ClickSubBtn
  041a0	c6 45 fc 06	 mov	 BYTE PTR __$EHRec$[ebp+8], 6
  041a4	8d 8d 50 f8 ff
	ff		 lea	 ecx, DWORD PTR $T205595[ebp]
  041aa	ff 15 00 00 00
	00		 call	 DWORD PTR __imp_??1?$CStringT@DV?$StrTraitMFC_DLL@DV?$ChTraitsCRT@D@ATL@@@@@ATL@@QAE@XZ

; 1038 : 			YL_Log("SkinB.txt",LOG_DEBUG,"Click-In","11");

  041b0	68 00 00 00 00	 push	 OFFSET FLAT:$SG203238
  041b5	8d 8d 34 f8 ff
	ff		 lea	 ecx, DWORD PTR $T205596[ebp]
  041bb	ff 15 00 00 00
	00		 call	 DWORD PTR __imp_??0?$basic_string@DU?$char_traits@D@std@@V?$allocator@D@2@@std@@QAE@PBD@Z
  041c1	c6 45 fc 0c	 mov	 BYTE PTR __$EHRec$[ebp+8], 12 ; 0000000cH
  041c5	68 00 00 00 00	 push	 OFFSET FLAT:$SG203239
  041ca	8d 8d 18 f8 ff
	ff		 lea	 ecx, DWORD PTR $T205597[ebp]
  041d0	ff 15 00 00 00
	00		 call	 DWORD PTR __imp_??0?$basic_string@DU?$char_traits@D@std@@V?$allocator@D@2@@std@@QAE@PBD@Z
  041d6	c6 45 fc 0d	 mov	 BYTE PTR __$EHRec$[ebp+8], 13 ; 0000000dH
  041da	68 00 00 00 00	 push	 OFFSET FLAT:$SG203237
  041df	8d 85 34 f8 ff
	ff		 lea	 eax, DWORD PTR $T205596[ebp]
  041e5	50		 push	 eax
  041e6	6a 00		 push	 0
  041e8	8d 8d 18 f8 ff
	ff		 lea	 ecx, DWORD PTR $T205597[ebp]
  041ee	51		 push	 ecx
  041ef	ff 15 00 00 00
	00		 call	 DWORD PTR __imp_?YL_Log@@YAXABV?$basic_string@DU?$char_traits@D@std@@V?$allocator@D@2@@std@@H0PBDZZ
  041f5	83 c4 10	 add	 esp, 16			; 00000010H
  041f8	c6 45 fc 0c	 mov	 BYTE PTR __$EHRec$[ebp+8], 12 ; 0000000cH
  041fc	8d 8d 18 f8 ff
	ff		 lea	 ecx, DWORD PTR $T205597[ebp]
  04202	ff 15 00 00 00
	00		 call	 DWORD PTR __imp_??1?$basic_string@DU?$char_traits@D@std@@V?$allocator@D@2@@std@@QAE@XZ
  04208	c6 45 fc 06	 mov	 BYTE PTR __$EHRec$[ebp+8], 6
  0420c	8d 8d 34 f8 ff
	ff		 lea	 ecx, DWORD PTR $T205596[ebp]
  04212	ff 15 00 00 00
	00		 call	 DWORD PTR __imp_??1?$basic_string@DU?$char_traits@D@std@@V?$allocator@D@2@@std@@QAE@XZ

; 1039 : 		}

  04218	c7 45 fc ff ff
	ff ff		 mov	 DWORD PTR __$EHRec$[ebp+8], -1
  0421f	8d 4d e0	 lea	 ecx, DWORD PTR _tips$203218[ebp]
  04222	ff 15 00 00 00
	00		 call	 DWORD PTR __imp_??1?$CStringT@DV?$StrTraitMFC_DLL@DV?$ChTraitsCRT@D@ATL@@@@@ATL@@QAE@XZ
$L203207:

; 1040 : 	}
; 1041 : 	else

  04228	e9 c0 00 00 00	 jmp	 $L203197
$L203206:

; 1042 : 	{
; 1043 : 		if( mb_HasPopWnd )

  0422d	8b 95 0c f8 ff
	ff		 mov	 edx, DWORD PTR _this$[ebp]
  04233	0f b6 42 48	 movzx	 eax, BYTE PTR [edx+72]
  04237	85 c0		 test	 eax, eax
  04239	0f 84 ae 00 00
	00		 je	 $L203197

; 1044 : 		{
; 1045 : 			CDialogMsg dlgmsg;

  0423f	6a 00		 push	 0
  04241	8d 8d 44 f9 ff
	ff		 lea	 ecx, DWORD PTR _dlgmsg$203242[ebp]
  04247	e8 00 00 00 00	 call	 ??0CDialogMsg@@QAE@PAVCWnd@@@Z ; CDialogMsg::CDialogMsg
  0424c	c7 45 fc 0e 00
	00 00		 mov	 DWORD PTR __$EHRec$[ebp+8], 14 ; 0000000eH

; 1046 : 			dlgmsg.SetBtnCount(1);

  04253	6a 01		 push	 1
  04255	8d 8d 44 f9 ff
	ff		 lea	 ecx, DWORD PTR _dlgmsg$203242[ebp]
  0425b	e8 00 00 00 00	 call	 ?SetBtnCount@CDialogMsg@@QAEXH@Z ; CDialogMsg::SetBtnCount

; 1047 : 			dlgmsg.SetMsg("");

  04260	68 00 00 00 00	 push	 OFFSET FLAT:$SG203244
  04265	8d 8d 14 f8 ff
	ff		 lea	 ecx, DWORD PTR $T205598[ebp]
  0426b	ff 15 00 00 00
	00		 call	 DWORD PTR __imp_??0?$CStringT@DV?$StrTraitMFC_DLL@DV?$ChTraitsCRT@D@ATL@@@@@ATL@@QAE@PBD@Z
  04271	c6 45 fc 0f	 mov	 BYTE PTR __$EHRec$[ebp+8], 15 ; 0000000fH
  04275	8d 8d 14 f8 ff
	ff		 lea	 ecx, DWORD PTR $T205598[ebp]
  0427b	51		 push	 ecx
  0427c	8d 8d 44 f9 ff
	ff		 lea	 ecx, DWORD PTR _dlgmsg$203242[ebp]
  04282	e8 00 00 00 00	 call	 ?SetMsg@CDialogMsg@@QAEXABV?$CStringT@DV?$StrTraitMFC_DLL@DV?$ChTraitsCRT@D@ATL@@@@@ATL@@@Z ; CDialogMsg::SetMsg
  04287	c6 45 fc 0e	 mov	 BYTE PTR __$EHRec$[ebp+8], 14 ; 0000000eH
  0428b	8d 8d 14 f8 ff
	ff		 lea	 ecx, DWORD PTR $T205598[ebp]
  04291	ff 15 00 00 00
	00		 call	 DWORD PTR __imp_??1?$CStringT@DV?$StrTraitMFC_DLL@DV?$ChTraitsCRT@D@ATL@@@@@ATL@@QAE@XZ

; 1048 : 			dlgmsg.SetBtnText(1,"");

  04297	68 00 00 00 00	 push	 OFFSET FLAT:$SG203246
  0429c	8d 8d 10 f8 ff
	ff		 lea	 ecx, DWORD PTR $T205599[ebp]
  042a2	ff 15 00 00 00
	00		 call	 DWORD PTR __imp_??0?$CStringT@DV?$StrTraitMFC_DLL@DV?$ChTraitsCRT@D@ATL@@@@@ATL@@QAE@PBD@Z
  042a8	c6 45 fc 10	 mov	 BYTE PTR __$EHRec$[ebp+8], 16 ; 00000010H
  042ac	8d 95 10 f8 ff
	ff		 lea	 edx, DWORD PTR $T205599[ebp]
  042b2	52		 push	 edx
  042b3	6a 01		 push	 1
  042b5	8d 8d 44 f9 ff
	ff		 lea	 ecx, DWORD PTR _dlgmsg$203242[ebp]
  042bb	e8 00 00 00 00	 call	 ?SetBtnText@CDialogMsg@@QAEXHABV?$CStringT@DV?$StrTraitMFC_DLL@DV?$ChTraitsCRT@D@ATL@@@@@ATL@@@Z ; CDialogMsg::SetBtnText
  042c0	c6 45 fc 0e	 mov	 BYTE PTR __$EHRec$[ebp+8], 14 ; 0000000eH
  042c4	8d 8d 10 f8 ff
	ff		 lea	 ecx, DWORD PTR $T205599[ebp]
  042ca	ff 15 00 00 00
	00		 call	 DWORD PTR __imp_??1?$CStringT@DV?$StrTraitMFC_DLL@DV?$ChTraitsCRT@D@ATL@@@@@ATL@@QAE@XZ

; 1049 : 			dlgmsg.DoModal();

  042d0	8d 8d 44 f9 ff
	ff		 lea	 ecx, DWORD PTR _dlgmsg$203242[ebp]
  042d6	e8 00 00 00 00	 call	 ?DoModal@CDialog@@UAEHXZ ; CDialog::DoModal

; 1050 : 		}

  042db	c7 45 fc ff ff
	ff ff		 mov	 DWORD PTR __$EHRec$[ebp+8], -1
  042e2	8d 8d 44 f9 ff
	ff		 lea	 ecx, DWORD PTR _dlgmsg$203242[ebp]
  042e8	e8 00 00 00 00	 call	 ??1CDialogMsg@@UAE@XZ	; CDialogMsg::~CDialogMsg
$L203197:

; 1051 : 		//	AfxMessageBox("!");
; 1052 : 	}
; 1053 : }

  042ed	8b 4d f4	 mov	 ecx, DWORD PTR __$EHRec$[ebp]
  042f0	64 89 0d 00 00
	00 00		 mov	 DWORD PTR fs:__except_list, ecx
  042f7	8b e5		 mov	 esp, ebp
  042f9	5d		 pop	 ebp
  042fa	c2 08 00	 ret	 8
_TEXT	ENDS
text$x	SEGMENT
$L205600:
  00635	8d 8d 28 f9 ff
	ff		 lea	 ecx, DWORD PTR $T205583[ebp]
  0063b	ff 25 00 00 00
	00		 jmp	 DWORD PTR __imp_??1?$basic_string@DU?$char_traits@D@std@@V?$allocator@D@2@@std@@QAE@XZ
$L205601:
  00641	8d 8d 0c f9 ff
	ff		 lea	 ecx, DWORD PTR $T205584[ebp]
  00647	ff 25 00 00 00
	00		 jmp	 DWORD PTR __imp_??1?$basic_string@DU?$char_traits@D@std@@V?$allocator@D@2@@std@@QAE@XZ
$L205602:
  0064d	8d 8d f0 f8 ff
	ff		 lea	 ecx, DWORD PTR $T205585[ebp]
  00653	ff 25 00 00 00
	00		 jmp	 DWORD PTR __imp_??1?$basic_string@DU?$char_traits@D@std@@V?$allocator@D@2@@std@@QAE@XZ
$L205603:
  00659	8d 8d d4 f8 ff
	ff		 lea	 ecx, DWORD PTR $T205586[ebp]
  0065f	ff 25 00 00 00
	00		 jmp	 DWORD PTR __imp_??1?$basic_string@DU?$char_traits@D@std@@V?$allocator@D@2@@std@@QAE@XZ
$L205604:
  00665	8d 8d b8 f8 ff
	ff		 lea	 ecx, DWORD PTR $T205587[ebp]
  0066b	ff 25 00 00 00
	00		 jmp	 DWORD PTR __imp_??1?$basic_string@DU?$char_traits@D@std@@V?$allocator@D@2@@std@@QAE@XZ
$L205605:
  00671	8d 8d 9c f8 ff
	ff		 lea	 ecx, DWORD PTR $T205588[ebp]
  00677	ff 25 00 00 00
	00		 jmp	 DWORD PTR __imp_??1?$basic_string@DU?$char_traits@D@std@@V?$allocator@D@2@@std@@QAE@XZ
$L205607:
  0067d	8d 4d e0	 lea	 ecx, DWORD PTR _tips$203218[ebp]
  00680	ff 25 00 00 00
	00		 jmp	 DWORD PTR __imp_??1?$CStringT@DV?$StrTraitMFC_DLL@DV?$ChTraitsCRT@D@ATL@@@@@ATL@@QAE@XZ
$L205608:
  00686	8b 8d 94 f8 ff
	ff		 mov	 ecx, DWORD PTR $T205590[ebp]
  0068c	ff 25 00 00 00
	00		 jmp	 DWORD PTR __imp_??1?$CStringT@DV?$StrTraitMFC_DLL@DV?$ChTraitsCRT@D@ATL@@@@@ATL@@QAE@XZ
$L205609:
  00692	8b 8d 90 f8 ff
	ff		 mov	 ecx, DWORD PTR $T205591[ebp]
  00698	ff 25 00 00 00
	00		 jmp	 DWORD PTR __imp_??1?$CStringT@DV?$StrTraitMFC_DLL@DV?$ChTraitsCRT@D@ATL@@@@@ATL@@QAE@XZ
$L205611:
  0069e	8d 8d 70 f8 ff
	ff		 lea	 ecx, DWORD PTR $T205593[ebp]
  006a4	ff 25 00 00 00
	00		 jmp	 DWORD PTR __imp_??1?$basic_string@DU?$char_traits@D@std@@V?$allocator@D@2@@std@@QAE@XZ
$L205612:
  006aa	8d 8d 54 f8 ff
	ff		 lea	 ecx, DWORD PTR $T205594[ebp]
  006b0	ff 25 00 00 00
	00		 jmp	 DWORD PTR __imp_??1?$basic_string@DU?$char_traits@D@std@@V?$allocator@D@2@@std@@QAE@XZ
$L205613:
  006b6	8d 8d 50 f8 ff
	ff		 lea	 ecx, DWORD PTR $T205595[ebp]
  006bc	ff 25 00 00 00
	00		 jmp	 DWORD PTR __imp_??1?$CStringT@DV?$StrTraitMFC_DLL@DV?$ChTraitsCRT@D@ATL@@@@@ATL@@QAE@XZ
$L205614:
  006c2	8d 8d 34 f8 ff
	ff		 lea	 ecx, DWORD PTR $T205596[ebp]
  006c8	ff 25 00 00 00
	00		 jmp	 DWORD PTR __imp_??1?$basic_string@DU?$char_traits@D@std@@V?$allocator@D@2@@std@@QAE@XZ
$L205615:
  006ce	8d 8d 18 f8 ff
	ff		 lea	 ecx, DWORD PTR $T205597[ebp]
  006d4	ff 25 00 00 00
	00		 jmp	 DWORD PTR __imp_??1?$basic_string@DU?$char_traits@D@std@@V?$allocator@D@2@@std@@QAE@XZ
$L205616:
  006da	8d 8d 44 f9 ff
	ff		 lea	 ecx, DWORD PTR _dlgmsg$203242[ebp]
  006e0	e9 00 00 00 00	 jmp	 ??1CDialogMsg@@UAE@XZ	; CDialogMsg::~CDialogMsg
$L205617:
  006e5	8d 8d 14 f8 ff
	ff		 lea	 ecx, DWORD PTR $T205598[ebp]
  006eb	ff 25 00 00 00
	00		 jmp	 DWORD PTR __imp_??1?$CStringT@DV?$StrTraitMFC_DLL@DV?$ChTraitsCRT@D@ATL@@@@@ATL@@QAE@XZ
$L205618:
  006f1	8d 8d 10 f8 ff
	ff		 lea	 ecx, DWORD PTR $T205599[ebp]
  006f7	ff 25 00 00 00
	00		 jmp	 DWORD PTR __imp_??1?$CStringT@DV?$StrTraitMFC_DLL@DV?$ChTraitsCRT@D@ATL@@@@@ATL@@QAE@XZ
__ehhandler$?DownloadWebSubFinish@CSkinMgrV1@@QAEXABV?$CStringT@DV?$StrTraitMFC_DLL@DV?$ChTraitsCRT@D@ATL@@@@@ATL@@H@Z:
  006fd	b8 00 00 00 00	 mov	 eax, OFFSET FLAT:$T205620
  00702	e9 00 00 00 00	 jmp	 ___CxxFrameHandler
text$x	ENDS
?DownloadWebSubFinish@CSkinMgrV1@@QAEXABV?$CStringT@DV?$StrTraitMFC_DLL@DV?$ChTraitsCRT@D@ATL@@@@@ATL@@H@Z ENDP ; CSkinMgrV1::DownloadWebSubFinish
EXTRN	__imp_?GetManager@?$CSimpleStringT@D$00@ATL@@QBEPAUIAtlStringMgr@2@XZ:NEAR
EXTRN	__imp_?StringLength@?$CSimpleStringT@D$00@ATL@@SAHPBD@Z:NEAR
EXTRN	__imp_?Concatenate@?$CSimpleStringT@D$00@ATL@@KAXAAV12@PBDH1H@Z:NEAR
EXTRN	__imp_??0?$CStringT@DV?$StrTraitMFC_DLL@DV?$ChTraitsCRT@D@ATL@@@@@ATL@@QAE@PAUIAtlStringMgr@1@@Z:NEAR
;	COMDAT xdata$x
; File d:\program files (x86)\microsoft visual studio .net 2003\vc7\atlmfc\include\cstringt.h
xdata$x	SEGMENT
$T205631 DD	0ffffffffH
	DD	FLAT:$L205624
$T205629 DD	019930520H
	DD	01H
	DD	FLAT:$T205631
	DD	2 DUP(00H)
	DD	2 DUP(00H)
; Function compile flags: /Odt
xdata$x	ENDS
;	COMDAT ??HATL@@YA?AV?$CStringT@DV?$StrTraitMFC_DLL@DV?$ChTraitsCRT@D@ATL@@@@@0@ABV10@PBD@Z
_TEXT	SEGMENT
$T205626 = -20						; size = 4
_strResult$ = -16					; size = 4
__$EHRec$ = -12						; size = 12
___$ReturnUdt$ = 8					; size = 4
_str1$ = 12						; size = 4
_psz2$ = 16						; size = 4
??HATL@@YA?AV?$CStringT@DV?$StrTraitMFC_DLL@DV?$ChTraitsCRT@D@ATL@@@@@0@ABV10@PBD@Z PROC NEAR ; ATL::operator+, COMDAT

; 2023 : 	{

  00000	55		 push	 ebp
  00001	8b ec		 mov	 ebp, esp
  00003	6a ff		 push	 -1
  00005	68 00 00 00 00	 push	 __ehhandler$??HATL@@YA?AV?$CStringT@DV?$StrTraitMFC_DLL@DV?$ChTraitsCRT@D@ATL@@@@@0@ABV10@PBD@Z
  0000a	64 a1 00 00 00
	00		 mov	 eax, DWORD PTR fs:__except_list
  00010	50		 push	 eax
  00011	64 89 25 00 00
	00 00		 mov	 DWORD PTR fs:__except_list, esp
  00018	83 ec 08	 sub	 esp, 8
  0001b	c7 45 ec 00 00
	00 00		 mov	 DWORD PTR $T205626[ebp], 0

; 2024 : 		CStringT strResult( str1.GetManager() );

  00022	8b 4d 0c	 mov	 ecx, DWORD PTR _str1$[ebp]
  00025	ff 15 00 00 00
	00		 call	 DWORD PTR __imp_?GetManager@?$CSimpleStringT@D$00@ATL@@QBEPAUIAtlStringMgr@2@XZ
  0002b	50		 push	 eax
  0002c	8d 4d f0	 lea	 ecx, DWORD PTR _strResult$[ebp]
  0002f	ff 15 00 00 00
	00		 call	 DWORD PTR __imp_??0?$CStringT@DV?$StrTraitMFC_DLL@DV?$ChTraitsCRT@D@ATL@@@@@ATL@@QAE@PAUIAtlStringMgr@1@@Z
  00035	c7 45 fc 00 00
	00 00		 mov	 DWORD PTR __$EHRec$[ebp+8], 0

; 2025 : 
; 2026 : 		Concatenate( strResult, str1, str1.GetLength(), psz2, StringLength( psz2 ) );

  0003c	8b 45 10	 mov	 eax, DWORD PTR _psz2$[ebp]
  0003f	50		 push	 eax
  00040	ff 15 00 00 00
	00		 call	 DWORD PTR __imp_?StringLength@?$CSimpleStringT@D$00@ATL@@SAHPBD@Z
  00046	83 c4 04	 add	 esp, 4
  00049	50		 push	 eax
  0004a	8b 4d 10	 mov	 ecx, DWORD PTR _psz2$[ebp]
  0004d	51		 push	 ecx
  0004e	8b 4d 0c	 mov	 ecx, DWORD PTR _str1$[ebp]
  00051	ff 15 00 00 00
	00		 call	 DWORD PTR __imp_?GetLength@?$CSimpleStringT@D$00@ATL@@QBEHXZ
  00057	50		 push	 eax
  00058	8b 4d 0c	 mov	 ecx, DWORD PTR _str1$[ebp]
  0005b	ff 15 00 00 00
	00		 call	 DWORD PTR __imp_??B?$CSimpleStringT@D$00@ATL@@QBEPBDXZ
  00061	50		 push	 eax
  00062	8d 55 f0	 lea	 edx, DWORD PTR _strResult$[ebp]
  00065	52		 push	 edx
  00066	ff 15 00 00 00
	00		 call	 DWORD PTR __imp_?Concatenate@?$CSimpleStringT@D$00@ATL@@KAXAAV12@PBDH1H@Z
  0006c	83 c4 14	 add	 esp, 20			; 00000014H

; 2027 : 
; 2028 : 		return( strResult );

  0006f	8d 45 f0	 lea	 eax, DWORD PTR _strResult$[ebp]
  00072	50		 push	 eax
  00073	8b 4d 08	 mov	 ecx, DWORD PTR ___$ReturnUdt$[ebp]
  00076	ff 15 00 00 00
	00		 call	 DWORD PTR __imp_??0?$CStringT@DV?$StrTraitMFC_DLL@DV?$ChTraitsCRT@D@ATL@@@@@ATL@@QAE@ABV01@@Z
  0007c	8b 4d ec	 mov	 ecx, DWORD PTR $T205626[ebp]
  0007f	83 c9 01	 or	 ecx, 1
  00082	89 4d ec	 mov	 DWORD PTR $T205626[ebp], ecx
  00085	c7 45 fc ff ff
	ff ff		 mov	 DWORD PTR __$EHRec$[ebp+8], -1
  0008c	8d 4d f0	 lea	 ecx, DWORD PTR _strResult$[ebp]
  0008f	ff 15 00 00 00
	00		 call	 DWORD PTR __imp_??1?$CStringT@DV?$StrTraitMFC_DLL@DV?$ChTraitsCRT@D@ATL@@@@@ATL@@QAE@XZ
  00095	8b 45 08	 mov	 eax, DWORD PTR ___$ReturnUdt$[ebp]

; 2029 : 	}

  00098	8b 4d f4	 mov	 ecx, DWORD PTR __$EHRec$[ebp]
  0009b	64 89 0d 00 00
	00 00		 mov	 DWORD PTR fs:__except_list, ecx
  000a2	8b e5		 mov	 esp, ebp
  000a4	5d		 pop	 ebp
  000a5	c3		 ret	 0
_TEXT	ENDS
;	COMDAT text$x
text$x	SEGMENT
$L205624:
  00000	8d 4d f0	 lea	 ecx, DWORD PTR _strResult$[ebp]
  00003	ff 25 00 00 00
	00		 jmp	 DWORD PTR __imp_??1?$CStringT@DV?$StrTraitMFC_DLL@DV?$ChTraitsCRT@D@ATL@@@@@ATL@@QAE@XZ
__ehhandler$??HATL@@YA?AV?$CStringT@DV?$StrTraitMFC_DLL@DV?$ChTraitsCRT@D@ATL@@@@@0@ABV10@PBD@Z:
  00009	b8 00 00 00 00	 mov	 eax, OFFSET FLAT:$T205629
  0000e	e9 00 00 00 00	 jmp	 ___CxxFrameHandler
text$x	ENDS
??HATL@@YA?AV?$CStringT@DV?$StrTraitMFC_DLL@DV?$ChTraitsCRT@D@ATL@@@@@0@ABV10@PBD@Z ENDP ; ATL::operator+
;	COMDAT xdata$x
xdata$x	SEGMENT
$T205643 DD	0ffffffffH
	DD	FLAT:$L205636
$T205641 DD	019930520H
	DD	01H
	DD	FLAT:$T205643
	DD	2 DUP(00H)
	DD	2 DUP(00H)
; Function compile flags: /Odt
xdata$x	ENDS
;	COMDAT ??HATL@@YA?AV?$CStringT@DV?$StrTraitMFC_DLL@DV?$ChTraitsCRT@D@ATL@@@@@0@PBDABV10@@Z
_TEXT	SEGMENT
$T205638 = -20						; size = 4
_strResult$ = -16					; size = 4
__$EHRec$ = -12						; size = 12
___$ReturnUdt$ = 8					; size = 4
_psz1$ = 12						; size = 4
_str2$ = 16						; size = 4
??HATL@@YA?AV?$CStringT@DV?$StrTraitMFC_DLL@DV?$ChTraitsCRT@D@ATL@@@@@0@PBDABV10@@Z PROC NEAR ; ATL::operator+, COMDAT

; 2032 : 	{

  00000	55		 push	 ebp
  00001	8b ec		 mov	 ebp, esp
  00003	6a ff		 push	 -1
  00005	68 00 00 00 00	 push	 __ehhandler$??HATL@@YA?AV?$CStringT@DV?$StrTraitMFC_DLL@DV?$ChTraitsCRT@D@ATL@@@@@0@PBDABV10@@Z
  0000a	64 a1 00 00 00
	00		 mov	 eax, DWORD PTR fs:__except_list
  00010	50		 push	 eax
  00011	64 89 25 00 00
	00 00		 mov	 DWORD PTR fs:__except_list, esp
  00018	83 ec 08	 sub	 esp, 8
  0001b	c7 45 ec 00 00
	00 00		 mov	 DWORD PTR $T205638[ebp], 0

; 2033 : 		CStringT strResult( str2.GetManager() );

  00022	8b 4d 10	 mov	 ecx, DWORD PTR _str2$[ebp]
  00025	ff 15 00 00 00
	00		 call	 DWORD PTR __imp_?GetManager@?$CSimpleStringT@D$00@ATL@@QBEPAUIAtlStringMgr@2@XZ
  0002b	50		 push	 eax
  0002c	8d 4d f0	 lea	 ecx, DWORD PTR _strResult$[ebp]
  0002f	ff 15 00 00 00
	00		 call	 DWORD PTR __imp_??0?$CStringT@DV?$StrTraitMFC_DLL@DV?$ChTraitsCRT@D@ATL@@@@@ATL@@QAE@PAUIAtlStringMgr@1@@Z
  00035	c7 45 fc 00 00
	00 00		 mov	 DWORD PTR __$EHRec$[ebp+8], 0

; 2034 : 
; 2035 : 		Concatenate( strResult, psz1, StringLength( psz1 ), str2, str2.GetLength() );

  0003c	8b 4d 10	 mov	 ecx, DWORD PTR _str2$[ebp]
  0003f	ff 15 00 00 00
	00		 call	 DWORD PTR __imp_?GetLength@?$CSimpleStringT@D$00@ATL@@QBEHXZ
  00045	50		 push	 eax
  00046	8b 4d 10	 mov	 ecx, DWORD PTR _str2$[ebp]
  00049	ff 15 00 00 00
	00		 call	 DWORD PTR __imp_??B?$CSimpleStringT@D$00@ATL@@QBEPBDXZ
  0004f	50		 push	 eax
  00050	8b 45 0c	 mov	 eax, DWORD PTR _psz1$[ebp]
  00053	50		 push	 eax
  00054	ff 15 00 00 00
	00		 call	 DWORD PTR __imp_?StringLength@?$CSimpleStringT@D$00@ATL@@SAHPBD@Z
  0005a	83 c4 04	 add	 esp, 4
  0005d	50		 push	 eax
  0005e	8b 4d 0c	 mov	 ecx, DWORD PTR _psz1$[ebp]
  00061	51		 push	 ecx
  00062	8d 55 f0	 lea	 edx, DWORD PTR _strResult$[ebp]
  00065	52		 push	 edx
  00066	ff 15 00 00 00
	00		 call	 DWORD PTR __imp_?Concatenate@?$CSimpleStringT@D$00@ATL@@KAXAAV12@PBDH1H@Z
  0006c	83 c4 14	 add	 esp, 20			; 00000014H

; 2036 : 
; 2037 : 		return( strResult );

  0006f	8d 45 f0	 lea	 eax, DWORD PTR _strResult$[ebp]
  00072	50		 push	 eax
  00073	8b 4d 08	 mov	 ecx, DWORD PTR ___$ReturnUdt$[ebp]
  00076	ff 15 00 00 00
	00		 call	 DWORD PTR __imp_??0?$CStringT@DV?$StrTraitMFC_DLL@DV?$ChTraitsCRT@D@ATL@@@@@ATL@@QAE@ABV01@@Z
  0007c	8b 4d ec	 mov	 ecx, DWORD PTR $T205638[ebp]
  0007f	83 c9 01	 or	 ecx, 1
  00082	89 4d ec	 mov	 DWORD PTR $T205638[ebp], ecx
  00085	c7 45 fc ff ff
	ff ff		 mov	 DWORD PTR __$EHRec$[ebp+8], -1
  0008c	8d 4d f0	 lea	 ecx, DWORD PTR _strResult$[ebp]
  0008f	ff 15 00 00 00
	00		 call	 DWORD PTR __imp_??1?$CStringT@DV?$StrTraitMFC_DLL@DV?$ChTraitsCRT@D@ATL@@@@@ATL@@QAE@XZ
  00095	8b 45 08	 mov	 eax, DWORD PTR ___$ReturnUdt$[ebp]

; 2038 : 	}

  00098	8b 4d f4	 mov	 ecx, DWORD PTR __$EHRec$[ebp]
  0009b	64 89 0d 00 00
	00 00		 mov	 DWORD PTR fs:__except_list, ecx
  000a2	8b e5		 mov	 esp, ebp
  000a4	5d		 pop	 ebp
  000a5	c3		 ret	 0
_TEXT	ENDS
;	COMDAT text$x
text$x	SEGMENT
$L205636:
  00000	8d 4d f0	 lea	 ecx, DWORD PTR _strResult$[ebp]
  00003	ff 25 00 00 00
	00		 jmp	 DWORD PTR __imp_??1?$CStringT@DV?$StrTraitMFC_DLL@DV?$ChTraitsCRT@D@ATL@@@@@ATL@@QAE@XZ
__ehhandler$??HATL@@YA?AV?$CStringT@DV?$StrTraitMFC_DLL@DV?$ChTraitsCRT@D@ATL@@@@@0@PBDABV10@@Z:
  00009	b8 00 00 00 00	 mov	 eax, OFFSET FLAT:$T205641
  0000e	e9 00 00 00 00	 jmp	 ___CxxFrameHandler
text$x	ENDS
??HATL@@YA?AV?$CStringT@DV?$StrTraitMFC_DLL@DV?$ChTraitsCRT@D@ATL@@@@@0@PBDABV10@@Z ENDP ; ATL::operator+
EXTRN	__imp_?Compare@?$CStringT@DV?$StrTraitMFC_DLL@DV?$ChTraitsCRT@D@ATL@@@@@ATL@@QBEHPBD@Z:NEAR
; Function compile flags: /Odt
;	COMDAT ??9ATL@@YA_NABV?$CStringT@DV?$StrTraitMFC_DLL@DV?$ChTraitsCRT@D@ATL@@@@@0@PBD@Z
_TEXT	SEGMENT
_str1$ = 8						; size = 4
_psz2$ = 12						; size = 4
??9ATL@@YA_NABV?$CStringT@DV?$StrTraitMFC_DLL@DV?$ChTraitsCRT@D@ATL@@@@@0@PBD@Z PROC NEAR ; ATL::operator!=, COMDAT

; 2121 : 	{

  00000	55		 push	 ebp
  00001	8b ec		 mov	 ebp, esp

; 2122 : 		return( str1.Compare( psz2 ) != 0 );

  00003	8b 45 0c	 mov	 eax, DWORD PTR _psz2$[ebp]
  00006	50		 push	 eax
  00007	8b 4d 08	 mov	 ecx, DWORD PTR _str1$[ebp]
  0000a	ff 15 00 00 00
	00		 call	 DWORD PTR __imp_?Compare@?$CStringT@DV?$StrTraitMFC_DLL@DV?$ChTraitsCRT@D@ATL@@@@@ATL@@QBEHPBD@Z
  00010	f7 d8		 neg	 eax
  00012	1b c0		 sbb	 eax, eax
  00014	f7 d8		 neg	 eax

; 2123 : 	}

  00016	5d		 pop	 ebp
  00017	c3		 ret	 0
??9ATL@@YA_NABV?$CStringT@DV?$StrTraitMFC_DLL@DV?$ChTraitsCRT@D@ATL@@@@@0@PBD@Z ENDP ; ATL::operator!=
; Function compile flags: /Odt
; File d:\program files (x86)\microsoft visual studio .net 2003\vc7\include\vector
_TEXT	ENDS
;	COMDAT ?size@?$vector@UOneSubject@@V?$allocator@UOneSubject@@@std@@@std@@QBEIXZ
_TEXT	SEGMENT
tv70 = -8						; size = 4
_this$ = -4						; size = 4
?size@?$vector@UOneSubject@@V?$allocator@UOneSubject@@@std@@@std@@QBEIXZ PROC NEAR ; std::vector<OneSubject,std::allocator<OneSubject> >::size, COMDAT
; _this$ = ecx

; 515  : 		{	// return length of sequence

  00000	55		 push	 ebp
  00001	8b ec		 mov	 ebp, esp
  00003	83 ec 08	 sub	 esp, 8
  00006	89 4d fc	 mov	 DWORD PTR _this$[ebp], ecx

; 516  : 		return (_Myfirst == 0 ? 0 : _Mylast - _Myfirst);

  00009	8b 45 fc	 mov	 eax, DWORD PTR _this$[ebp]
  0000c	83 78 04 00	 cmp	 DWORD PTR [eax+4], 0
  00010	75 09		 jne	 SHORT $L205650
  00012	c7 45 f8 00 00
	00 00		 mov	 DWORD PTR tv70[ebp], 0
  00019	eb 17		 jmp	 SHORT $L205651
$L205650:
  0001b	8b 4d fc	 mov	 ecx, DWORD PTR _this$[ebp]
  0001e	8b 55 fc	 mov	 edx, DWORD PTR _this$[ebp]
  00021	8b 41 08	 mov	 eax, DWORD PTR [ecx+8]
  00024	2b 42 04	 sub	 eax, DWORD PTR [edx+4]
  00027	99		 cdq
  00028	b9 98 00 00 00	 mov	 ecx, 152		; 00000098H
  0002d	f7 f9		 idiv	 ecx
  0002f	89 45 f8	 mov	 DWORD PTR tv70[ebp], eax
$L205651:
  00032	8b 45 f8	 mov	 eax, DWORD PTR tv70[ebp]

; 517  : 		}

  00035	8b e5		 mov	 esp, ebp
  00037	5d		 pop	 ebp
  00038	c3		 ret	 0
?size@?$vector@UOneSubject@@V?$allocator@UOneSubject@@@std@@@std@@QBEIXZ ENDP ; std::vector<OneSubject,std::allocator<OneSubject> >::size
_TEXT	ENDS
PUBLIC	?begin@?$vector@UOneSubject@@V?$allocator@UOneSubject@@@std@@@std@@QAE?AViterator@12@XZ ; std::vector<OneSubject,std::allocator<OneSubject> >::begin
PUBLIC	??Diterator@?$vector@UOneSubject@@V?$allocator@UOneSubject@@@std@@@std@@QBEAAUOneSubject@@XZ ; std::vector<OneSubject,std::allocator<OneSubject> >::iterator::operator*
PUBLIC	??Hiterator@?$vector@UOneSubject@@V?$allocator@UOneSubject@@@std@@@std@@QBE?AV012@H@Z ; std::vector<OneSubject,std::allocator<OneSubject> >::iterator::operator+
; Function compile flags: /Odt
;	COMDAT ??A?$vector@UOneSubject@@V?$allocator@UOneSubject@@@std@@@std@@QAEAAUOneSubject@@I@Z
_TEXT	SEGMENT
_this$ = -12						; size = 4
$T205655 = -8						; size = 4
$T205654 = -4						; size = 4
__Pos$ = 8						; size = 4
??A?$vector@UOneSubject@@V?$allocator@UOneSubject@@@std@@@std@@QAEAAUOneSubject@@I@Z PROC NEAR ; std::vector<OneSubject,std::allocator<OneSubject> >::operator[], COMDAT
; _this$ = ecx

; 554  : 		{	// subscript mutable sequence

  00000	55		 push	 ebp
  00001	8b ec		 mov	 ebp, esp
  00003	83 ec 0c	 sub	 esp, 12			; 0000000cH
  00006	89 4d f4	 mov	 DWORD PTR _this$[ebp], ecx

; 555  : 		return (*(begin() + _Pos));

  00009	8b 45 08	 mov	 eax, DWORD PTR __Pos$[ebp]
  0000c	50		 push	 eax
  0000d	8d 4d f8	 lea	 ecx, DWORD PTR $T205655[ebp]
  00010	51		 push	 ecx
  00011	8d 55 fc	 lea	 edx, DWORD PTR $T205654[ebp]
  00014	52		 push	 edx
  00015	8b 4d f4	 mov	 ecx, DWORD PTR _this$[ebp]
  00018	e8 00 00 00 00	 call	 ?begin@?$vector@UOneSubject@@V?$allocator@UOneSubject@@@std@@@std@@QAE?AViterator@12@XZ ; std::vector<OneSubject,std::allocator<OneSubject> >::begin
  0001d	8b c8		 mov	 ecx, eax
  0001f	e8 00 00 00 00	 call	 ??Hiterator@?$vector@UOneSubject@@V?$allocator@UOneSubject@@@std@@@std@@QBE?AV012@H@Z ; std::vector<OneSubject,std::allocator<OneSubject> >::iterator::operator+
  00024	8b c8		 mov	 ecx, eax
  00026	e8 00 00 00 00	 call	 ??Diterator@?$vector@UOneSubject@@V?$allocator@UOneSubject@@@std@@@std@@QBEAAUOneSubject@@XZ ; std::vector<OneSubject,std::allocator<OneSubject> >::iterator::operator*

; 556  : 		}

  0002b	8b e5		 mov	 esp, ebp
  0002d	5d		 pop	 ebp
  0002e	c2 04 00	 ret	 4
??A?$vector@UOneSubject@@V?$allocator@UOneSubject@@@std@@@std@@QAEAAUOneSubject@@I@Z ENDP ; std::vector<OneSubject,std::allocator<OneSubject> >::operator[]
_TEXT	ENDS
PUBLIC	??0?$_Vector_val@PAVIChangeSkinEventListener@@V?$allocator@PAVIChangeSkinEventListener@@@std@@@std@@IAE@V?$allocator@PAVIChangeSkinEventListener@@@1@@Z ; std::_Vector_val<IChangeSkinEventListener *,std::allocator<IChangeSkinEventListener *> >::_Vector_val<IChangeSkinEventListener *,std::allocator<IChangeSkinEventListener *> >
PUBLIC	??0?$allocator@PAVIChangeSkinEventListener@@@std@@QAE@XZ ; std::allocator<IChangeSkinEventListener *>::allocator<IChangeSkinEventListener *>
PUBLIC	?_Buy@?$vector@PAVIChangeSkinEventListener@@V?$allocator@PAVIChangeSkinEventListener@@@std@@@std@@IAE_NI@Z ; std::vector<IChangeSkinEventListener *,std::allocator<IChangeSkinEventListener *> >::_Buy
; Function compile flags: /Odt
;	COMDAT ??0?$vector@PAVIChangeSkinEventListener@@V?$allocator@PAVIChangeSkinEventListener@@@std@@@std@@QAE@XZ
_TEXT	SEGMENT
_this$ = -8						; size = 4
??0?$vector@PAVIChangeSkinEventListener@@V?$allocator@PAVIChangeSkinEventListener@@@std@@@std@@QAE@XZ PROC NEAR ; std::vector<IChangeSkinEventListener *,std::allocator<IChangeSkinEventListener *> >::vector<IChangeSkinEventListener *,std::allocator<IChangeSkinEventListener *> >, COMDAT
; _this$ = ecx

; 299  : 		{	// construct empty vector

  00000	55		 push	 ebp
  00001	8b ec		 mov	 ebp, esp
  00003	83 ec 08	 sub	 esp, 8
  00006	89 4d f8	 mov	 DWORD PTR _this$[ebp], ecx
  00009	51		 push	 ecx
  0000a	8b cc		 mov	 ecx, esp
  0000c	e8 00 00 00 00	 call	 ??0?$allocator@PAVIChangeSkinEventListener@@@std@@QAE@XZ ; std::allocator<IChangeSkinEventListener *>::allocator<IChangeSkinEventListener *>
  00011	8b 4d f8	 mov	 ecx, DWORD PTR _this$[ebp]
  00014	e8 00 00 00 00	 call	 ??0?$_Vector_val@PAVIChangeSkinEventListener@@V?$allocator@PAVIChangeSkinEventListener@@@std@@@std@@IAE@V?$allocator@PAVIChangeSkinEventListener@@@1@@Z ; std::_Vector_val<IChangeSkinEventListener *,std::allocator<IChangeSkinEventListener *> >::_Vector_val<IChangeSkinEventListener *,std::allocator<IChangeSkinEventListener *> >

; 300  : 		_Buy(0);

  00019	6a 00		 push	 0
  0001b	8b 4d f8	 mov	 ecx, DWORD PTR _this$[ebp]
  0001e	e8 00 00 00 00	 call	 ?_Buy@?$vector@PAVIChangeSkinEventListener@@V?$allocator@PAVIChangeSkinEventListener@@@std@@@std@@IAE_NI@Z ; std::vector<IChangeSkinEventListener *,std::allocator<IChangeSkinEventListener *> >::_Buy

; 301  : 		}

  00023	8b 45 f8	 mov	 eax, DWORD PTR _this$[ebp]
  00026	8b e5		 mov	 esp, ebp
  00028	5d		 pop	 ebp
  00029	c3		 ret	 0
??0?$vector@PAVIChangeSkinEventListener@@V?$allocator@PAVIChangeSkinEventListener@@@std@@@std@@QAE@XZ ENDP ; std::vector<IChangeSkinEventListener *,std::allocator<IChangeSkinEventListener *> >::vector<IChangeSkinEventListener *,std::allocator<IChangeSkinEventListener *> >
_TEXT	ENDS
PUBLIC	?_Tidy@?$vector@PAVIChangeSkinEventListener@@V?$allocator@PAVIChangeSkinEventListener@@@std@@@std@@IAEXXZ ; std::vector<IChangeSkinEventListener *,std::allocator<IChangeSkinEventListener *> >::_Tidy
; Function compile flags: /Odt
;	COMDAT ??1?$vector@PAVIChangeSkinEventListener@@V?$allocator@PAVIChangeSkinEventListener@@@std@@@std@@QAE@XZ
_TEXT	SEGMENT
_this$ = -4						; size = 4
??1?$vector@PAVIChangeSkinEventListener@@V?$allocator@PAVIChangeSkinEventListener@@@std@@@std@@QAE@XZ PROC NEAR ; std::vector<IChangeSkinEventListener *,std::allocator<IChangeSkinEventListener *> >::~vector<IChangeSkinEventListener *,std::allocator<IChangeSkinEventListener *> >, COMDAT
; _this$ = ecx

; 387  : 		{	// destroy the object

  00000	55		 push	 ebp
  00001	8b ec		 mov	 ebp, esp
  00003	51		 push	 ecx
  00004	89 4d fc	 mov	 DWORD PTR _this$[ebp], ecx

; 388  : 		_Tidy();

  00007	8b 4d fc	 mov	 ecx, DWORD PTR _this$[ebp]
  0000a	e8 00 00 00 00	 call	 ?_Tidy@?$vector@PAVIChangeSkinEventListener@@V?$allocator@PAVIChangeSkinEventListener@@@std@@@std@@IAEXXZ ; std::vector<IChangeSkinEventListener *,std::allocator<IChangeSkinEventListener *> >::_Tidy

; 389  : 		}

  0000f	8b e5		 mov	 esp, ebp
  00011	5d		 pop	 ebp
  00012	c3		 ret	 0
??1?$vector@PAVIChangeSkinEventListener@@V?$allocator@PAVIChangeSkinEventListener@@@std@@@std@@QAE@XZ ENDP ; std::vector<IChangeSkinEventListener *,std::allocator<IChangeSkinEventListener *> >::~vector<IChangeSkinEventListener *,std::allocator<IChangeSkinEventListener *> >
_TEXT	ENDS
PUBLIC	??0iterator@?$vector@PAVIChangeSkinEventListener@@V?$allocator@PAVIChangeSkinEventListener@@@std@@@std@@QAE@PAPAVIChangeSkinEventListener@@@Z ; std::vector<IChangeSkinEventListener *,std::allocator<IChangeSkinEventListener *> >::iterator::iterator
; Function compile flags: /Odt
;	COMDAT ?begin@?$vector@PAVIChangeSkinEventListener@@V?$allocator@PAVIChangeSkinEventListener@@@std@@@std@@QAE?AViterator@12@XZ
_TEXT	SEGMENT
_this$ = -4						; size = 4
___$ReturnUdt$ = 8					; size = 4
?begin@?$vector@PAVIChangeSkinEventListener@@V?$allocator@PAVIChangeSkinEventListener@@@std@@@std@@QAE?AViterator@12@XZ PROC NEAR ; std::vector<IChangeSkinEventListener *,std::allocator<IChangeSkinEventListener *> >::begin, COMDAT
; _this$ = ecx

; 462  : 		{	// return iterator for beginning of mutable sequence

  00000	55		 push	 ebp
  00001	8b ec		 mov	 ebp, esp
  00003	51		 push	 ecx
  00004	89 4d fc	 mov	 DWORD PTR _this$[ebp], ecx

; 463  : 		return (iterator(_Myfirst));

  00007	8b 45 fc	 mov	 eax, DWORD PTR _this$[ebp]
  0000a	8b 48 04	 mov	 ecx, DWORD PTR [eax+4]
  0000d	51		 push	 ecx
  0000e	8b 4d 08	 mov	 ecx, DWORD PTR ___$ReturnUdt$[ebp]
  00011	e8 00 00 00 00	 call	 ??0iterator@?$vector@PAVIChangeSkinEventListener@@V?$allocator@PAVIChangeSkinEventListener@@@std@@@std@@QAE@PAPAVIChangeSkinEventListener@@@Z ; std::vector<IChangeSkinEventListener *,std::allocator<IChangeSkinEventListener *> >::iterator::iterator
  00016	8b 45 08	 mov	 eax, DWORD PTR ___$ReturnUdt$[ebp]

; 464  : 		}

  00019	8b e5		 mov	 esp, ebp
  0001b	5d		 pop	 ebp
  0001c	c2 04 00	 ret	 4
?begin@?$vector@PAVIChangeSkinEventListener@@V?$allocator@PAVIChangeSkinEventListener@@@std@@@std@@QAE?AViterator@12@XZ ENDP ; std::vector<IChangeSkinEventListener *,std::allocator<IChangeSkinEventListener *> >::begin
; Function compile flags: /Odt
_TEXT	ENDS
;	COMDAT ?end@?$vector@PAVIChangeSkinEventListener@@V?$allocator@PAVIChangeSkinEventListener@@@std@@@std@@QAE?AViterator@12@XZ
_TEXT	SEGMENT
_this$ = -4						; size = 4
___$ReturnUdt$ = 8					; size = 4
?end@?$vector@PAVIChangeSkinEventListener@@V?$allocator@PAVIChangeSkinEventListener@@@std@@@std@@QAE?AViterator@12@XZ PROC NEAR ; std::vector<IChangeSkinEventListener *,std::allocator<IChangeSkinEventListener *> >::end, COMDAT
; _this$ = ecx

; 472  : 		{	// return iterator for end of mutable sequence

  00000	55		 push	 ebp
  00001	8b ec		 mov	 ebp, esp
  00003	51		 push	 ecx
  00004	89 4d fc	 mov	 DWORD PTR _this$[ebp], ecx

; 473  : 		return (iterator(_Mylast));

  00007	8b 45 fc	 mov	 eax, DWORD PTR _this$[ebp]
  0000a	8b 48 08	 mov	 ecx, DWORD PTR [eax+8]
  0000d	51		 push	 ecx
  0000e	8b 4d 08	 mov	 ecx, DWORD PTR ___$ReturnUdt$[ebp]
  00011	e8 00 00 00 00	 call	 ??0iterator@?$vector@PAVIChangeSkinEventListener@@V?$allocator@PAVIChangeSkinEventListener@@@std@@@std@@QAE@PAPAVIChangeSkinEventListener@@@Z ; std::vector<IChangeSkinEventListener *,std::allocator<IChangeSkinEventListener *> >::iterator::iterator
  00016	8b 45 08	 mov	 eax, DWORD PTR ___$ReturnUdt$[ebp]

; 474  : 		}

  00019	8b e5		 mov	 esp, ebp
  0001b	5d		 pop	 ebp
  0001c	c2 04 00	 ret	 4
?end@?$vector@PAVIChangeSkinEventListener@@V?$allocator@PAVIChangeSkinEventListener@@@std@@@std@@QAE?AViterator@12@XZ ENDP ; std::vector<IChangeSkinEventListener *,std::allocator<IChangeSkinEventListener *> >::end
; Function compile flags: /Odt
_TEXT	ENDS
;	COMDAT ?size@?$vector@PAVIChangeSkinEventListener@@V?$allocator@PAVIChangeSkinEventListener@@@std@@@std@@QBEIXZ
_TEXT	SEGMENT
tv70 = -8						; size = 4
_this$ = -4						; size = 4
?size@?$vector@PAVIChangeSkinEventListener@@V?$allocator@PAVIChangeSkinEventListener@@@std@@@std@@QBEIXZ PROC NEAR ; std::vector<IChangeSkinEventListener *,std::allocator<IChangeSkinEventListener *> >::size, COMDAT
; _this$ = ecx

; 515  : 		{	// return length of sequence

  00000	55		 push	 ebp
  00001	8b ec		 mov	 ebp, esp
  00003	83 ec 08	 sub	 esp, 8
  00006	89 4d fc	 mov	 DWORD PTR _this$[ebp], ecx

; 516  : 		return (_Myfirst == 0 ? 0 : _Mylast - _Myfirst);

  00009	8b 45 fc	 mov	 eax, DWORD PTR _this$[ebp]
  0000c	83 78 04 00	 cmp	 DWORD PTR [eax+4], 0
  00010	75 09		 jne	 SHORT $L205667
  00012	c7 45 f8 00 00
	00 00		 mov	 DWORD PTR tv70[ebp], 0
  00019	eb 12		 jmp	 SHORT $L205668
$L205667:
  0001b	8b 4d fc	 mov	 ecx, DWORD PTR _this$[ebp]
  0001e	8b 55 fc	 mov	 edx, DWORD PTR _this$[ebp]
  00021	8b 41 08	 mov	 eax, DWORD PTR [ecx+8]
  00024	2b 42 04	 sub	 eax, DWORD PTR [edx+4]
  00027	c1 f8 02	 sar	 eax, 2
  0002a	89 45 f8	 mov	 DWORD PTR tv70[ebp], eax
$L205668:
  0002d	8b 45 f8	 mov	 eax, DWORD PTR tv70[ebp]

; 517  : 		}

  00030	8b e5		 mov	 esp, ebp
  00032	5d		 pop	 ebp
  00033	c3		 ret	 0
?size@?$vector@PAVIChangeSkinEventListener@@V?$allocator@PAVIChangeSkinEventListener@@@std@@@std@@QBEIXZ ENDP ; std::vector<IChangeSkinEventListener *,std::allocator<IChangeSkinEventListener *> >::size
_TEXT	ENDS
PUBLIC	??Hiterator@?$vector@PAVIChangeSkinEventListener@@V?$allocator@PAVIChangeSkinEventListener@@@std@@@std@@QBE?AV012@H@Z ; std::vector<IChangeSkinEventListener *,std::allocator<IChangeSkinEventListener *> >::iterator::operator+
; Function compile flags: /Odt
;	COMDAT ??A?$vector@PAVIChangeSkinEventListener@@V?$allocator@PAVIChangeSkinEventListener@@@std@@@std@@QAEAAPAVIChangeSkinEventListener@@I@Z
_TEXT	SEGMENT
_this$ = -12						; size = 4
$T205672 = -8						; size = 4
$T205671 = -4						; size = 4
__Pos$ = 8						; size = 4
??A?$vector@PAVIChangeSkinEventListener@@V?$allocator@PAVIChangeSkinEventListener@@@std@@@std@@QAEAAPAVIChangeSkinEventListener@@I@Z PROC NEAR ; std::vector<IChangeSkinEventListener *,std::allocator<IChangeSkinEventListener *> >::operator[], COMDAT
; _this$ = ecx

; 554  : 		{	// subscript mutable sequence

  00000	55		 push	 ebp
  00001	8b ec		 mov	 ebp, esp
  00003	83 ec 0c	 sub	 esp, 12			; 0000000cH
  00006	89 4d f4	 mov	 DWORD PTR _this$[ebp], ecx

; 555  : 		return (*(begin() + _Pos));

  00009	8b 45 08	 mov	 eax, DWORD PTR __Pos$[ebp]
  0000c	50		 push	 eax
  0000d	8d 4d f8	 lea	 ecx, DWORD PTR $T205672[ebp]
  00010	51		 push	 ecx
  00011	8d 55 fc	 lea	 edx, DWORD PTR $T205671[ebp]
  00014	52		 push	 edx
  00015	8b 4d f4	 mov	 ecx, DWORD PTR _this$[ebp]
  00018	e8 00 00 00 00	 call	 ?begin@?$vector@PAVIChangeSkinEventListener@@V?$allocator@PAVIChangeSkinEventListener@@@std@@@std@@QAE?AViterator@12@XZ ; std::vector<IChangeSkinEventListener *,std::allocator<IChangeSkinEventListener *> >::begin
  0001d	8b c8		 mov	 ecx, eax
  0001f	e8 00 00 00 00	 call	 ??Hiterator@?$vector@PAVIChangeSkinEventListener@@V?$allocator@PAVIChangeSkinEventListener@@@std@@@std@@QBE?AV012@H@Z ; std::vector<IChangeSkinEventListener *,std::allocator<IChangeSkinEventListener *> >::iterator::operator+
  00024	8b c8		 mov	 ecx, eax
  00026	e8 00 00 00 00	 call	 ??Diterator@?$vector@PAVIChangeSkinEventListener@@V?$allocator@PAVIChangeSkinEventListener@@@std@@@std@@QBEAAPAVIChangeSkinEventListener@@XZ ; std::vector<IChangeSkinEventListener *,std::allocator<IChangeSkinEventListener *> >::iterator::operator*

; 556  : 		}

  0002b	8b e5		 mov	 esp, ebp
  0002d	5d		 pop	 ebp
  0002e	c2 04 00	 ret	 4
??A?$vector@PAVIChangeSkinEventListener@@V?$allocator@PAVIChangeSkinEventListener@@@std@@@std@@QAEAAPAVIChangeSkinEventListener@@I@Z ENDP ; std::vector<IChangeSkinEventListener *,std::allocator<IChangeSkinEventListener *> >::operator[]
_TEXT	ENDS
PUBLIC	?_Ufill@?$vector@PAVIChangeSkinEventListener@@V?$allocator@PAVIChangeSkinEventListener@@@std@@@std@@IAEPAPAVIChangeSkinEventListener@@PAPAV3@IABQAV3@@Z ; std::vector<IChangeSkinEventListener *,std::allocator<IChangeSkinEventListener *> >::_Ufill
PUBLIC	?capacity@?$vector@PAVIChangeSkinEventListener@@V?$allocator@PAVIChangeSkinEventListener@@@std@@@std@@QBEIXZ ; std::vector<IChangeSkinEventListener *,std::allocator<IChangeSkinEventListener *> >::capacity
PUBLIC	?insert@?$vector@PAVIChangeSkinEventListener@@V?$allocator@PAVIChangeSkinEventListener@@@std@@@std@@QAE?AViterator@12@V312@ABQAVIChangeSkinEventListener@@@Z ; std::vector<IChangeSkinEventListener *,std::allocator<IChangeSkinEventListener *> >::insert
; Function compile flags: /Odt
;	COMDAT ?push_back@?$vector@PAVIChangeSkinEventListener@@V?$allocator@PAVIChangeSkinEventListener@@@std@@@std@@QAEXABQAVIChangeSkinEventListener@@@Z
_TEXT	SEGMENT
_this$ = -12						; size = 4
$T205676 = -8						; size = 4
$T205675 = -4						; size = 4
__Val$ = 8						; size = 4
?push_back@?$vector@PAVIChangeSkinEventListener@@V?$allocator@PAVIChangeSkinEventListener@@@std@@@std@@QAEXABQAVIChangeSkinEventListener@@@Z PROC NEAR ; std::vector<IChangeSkinEventListener *,std::allocator<IChangeSkinEventListener *> >::push_back, COMDAT
; _this$ = ecx

; 579  : 		{	// insert element at end

  00000	55		 push	 ebp
  00001	8b ec		 mov	 ebp, esp
  00003	83 ec 0c	 sub	 esp, 12			; 0000000cH
  00006	56		 push	 esi
  00007	89 4d f4	 mov	 DWORD PTR _this$[ebp], ecx

; 580  : 		if (size() < capacity())

  0000a	8b 4d f4	 mov	 ecx, DWORD PTR _this$[ebp]
  0000d	e8 00 00 00 00	 call	 ?size@?$vector@PAVIChangeSkinEventListener@@V?$allocator@PAVIChangeSkinEventListener@@@std@@@std@@QBEIXZ ; std::vector<IChangeSkinEventListener *,std::allocator<IChangeSkinEventListener *> >::size
  00012	8b f0		 mov	 esi, eax
  00014	8b 4d f4	 mov	 ecx, DWORD PTR _this$[ebp]
  00017	e8 00 00 00 00	 call	 ?capacity@?$vector@PAVIChangeSkinEventListener@@V?$allocator@PAVIChangeSkinEventListener@@@std@@@std@@QBEIXZ ; std::vector<IChangeSkinEventListener *,std::allocator<IChangeSkinEventListener *> >::capacity
  0001c	3b f0		 cmp	 esi, eax
  0001e	73 1d		 jae	 SHORT $L203535

; 581  : 			_Mylast = _Ufill(_Mylast, 1, _Val);

  00020	8b 45 08	 mov	 eax, DWORD PTR __Val$[ebp]
  00023	50		 push	 eax
  00024	6a 01		 push	 1
  00026	8b 4d f4	 mov	 ecx, DWORD PTR _this$[ebp]
  00029	8b 51 08	 mov	 edx, DWORD PTR [ecx+8]
  0002c	52		 push	 edx
  0002d	8b 4d f4	 mov	 ecx, DWORD PTR _this$[ebp]
  00030	e8 00 00 00 00	 call	 ?_Ufill@?$vector@PAVIChangeSkinEventListener@@V?$allocator@PAVIChangeSkinEventListener@@@std@@@std@@IAEPAPAVIChangeSkinEventListener@@PAPAV3@IABQAV3@@Z ; std::vector<IChangeSkinEventListener *,std::allocator<IChangeSkinEventListener *> >::_Ufill
  00035	8b 4d f4	 mov	 ecx, DWORD PTR _this$[ebp]
  00038	89 41 08	 mov	 DWORD PTR [ecx+8], eax

; 582  : 		else

  0003b	eb 1f		 jmp	 SHORT $L203534
$L203535:

; 583  : 			insert(end(), _Val);

  0003d	8b 55 08	 mov	 edx, DWORD PTR __Val$[ebp]
  00040	52		 push	 edx
  00041	8d 45 fc	 lea	 eax, DWORD PTR $T205675[ebp]
  00044	50		 push	 eax
  00045	8b 4d f4	 mov	 ecx, DWORD PTR _this$[ebp]
  00048	e8 00 00 00 00	 call	 ?end@?$vector@PAVIChangeSkinEventListener@@V?$allocator@PAVIChangeSkinEventListener@@@std@@@std@@QAE?AViterator@12@XZ ; std::vector<IChangeSkinEventListener *,std::allocator<IChangeSkinEventListener *> >::end
  0004d	8b 08		 mov	 ecx, DWORD PTR [eax]
  0004f	51		 push	 ecx
  00050	8d 55 f8	 lea	 edx, DWORD PTR $T205676[ebp]
  00053	52		 push	 edx
  00054	8b 4d f4	 mov	 ecx, DWORD PTR _this$[ebp]
  00057	e8 00 00 00 00	 call	 ?insert@?$vector@PAVIChangeSkinEventListener@@V?$allocator@PAVIChangeSkinEventListener@@@std@@@std@@QAE?AViterator@12@V312@ABQAVIChangeSkinEventListener@@@Z ; std::vector<IChangeSkinEventListener *,std::allocator<IChangeSkinEventListener *> >::insert
$L203534:

; 584  : 		}

  0005c	5e		 pop	 esi
  0005d	8b e5		 mov	 esp, ebp
  0005f	5d		 pop	 ebp
  00060	c2 04 00	 ret	 4
?push_back@?$vector@PAVIChangeSkinEventListener@@V?$allocator@PAVIChangeSkinEventListener@@@std@@@std@@QAEXABQAVIChangeSkinEventListener@@@Z ENDP ; std::vector<IChangeSkinEventListener *,std::allocator<IChangeSkinEventListener *> >::push_back
_TEXT	ENDS
PUBLIC	??$copy@PAPAVIChangeSkinEventListener@@PAPAV1@@std@@YAPAPAVIChangeSkinEventListener@@PAPAV1@00@Z ; std::copy<IChangeSkinEventListener * *,IChangeSkinEventListener * *>
PUBLIC	?_Destroy@?$vector@PAVIChangeSkinEventListener@@V?$allocator@PAVIChangeSkinEventListener@@@std@@@std@@IAEXPAPAVIChangeSkinEventListener@@0@Z ; std::vector<IChangeSkinEventListener *,std::allocator<IChangeSkinEventListener *> >::_Destroy
; Function compile flags: /Odt
;	COMDAT ?erase@?$vector@PAVIChangeSkinEventListener@@V?$allocator@PAVIChangeSkinEventListener@@@std@@@std@@QAE?AViterator@12@V312@@Z
_TEXT	SEGMENT
_this$ = -4						; size = 4
___$ReturnUdt$ = 8					; size = 4
__Where$ = 12						; size = 4
?erase@?$vector@PAVIChangeSkinEventListener@@V?$allocator@PAVIChangeSkinEventListener@@@std@@@std@@QAE?AViterator@12@V312@@Z PROC NEAR ; std::vector<IChangeSkinEventListener *,std::allocator<IChangeSkinEventListener *> >::erase, COMDAT
; _this$ = ecx

; 723  : 		{	// erase element at where

  00000	55		 push	 ebp
  00001	8b ec		 mov	 ebp, esp
  00003	51		 push	 ecx
  00004	89 4d fc	 mov	 DWORD PTR _this$[ebp], ecx

; 724  : 		copy(_ITER_BASE(_Where) + 1, _Mylast, _ITER_BASE(_Where));

  00007	8b 45 0c	 mov	 eax, DWORD PTR __Where$[ebp]
  0000a	50		 push	 eax
  0000b	8b 4d fc	 mov	 ecx, DWORD PTR _this$[ebp]
  0000e	8b 51 08	 mov	 edx, DWORD PTR [ecx+8]
  00011	52		 push	 edx
  00012	8b 45 0c	 mov	 eax, DWORD PTR __Where$[ebp]
  00015	83 c0 04	 add	 eax, 4
  00018	50		 push	 eax
  00019	e8 00 00 00 00	 call	 ??$copy@PAPAVIChangeSkinEventListener@@PAPAV1@@std@@YAPAPAVIChangeSkinEventListener@@PAPAV1@00@Z ; std::copy<IChangeSkinEventListener * *,IChangeSkinEventListener * *>
  0001e	83 c4 0c	 add	 esp, 12			; 0000000cH

; 725  : 		_Destroy(_Mylast - 1, _Mylast);

  00021	8b 4d fc	 mov	 ecx, DWORD PTR _this$[ebp]
  00024	8b 51 08	 mov	 edx, DWORD PTR [ecx+8]
  00027	52		 push	 edx
  00028	8b 45 fc	 mov	 eax, DWORD PTR _this$[ebp]
  0002b	8b 48 08	 mov	 ecx, DWORD PTR [eax+8]
  0002e	83 e9 04	 sub	 ecx, 4
  00031	51		 push	 ecx
  00032	8b 4d fc	 mov	 ecx, DWORD PTR _this$[ebp]
  00035	e8 00 00 00 00	 call	 ?_Destroy@?$vector@PAVIChangeSkinEventListener@@V?$allocator@PAVIChangeSkinEventListener@@@std@@@std@@IAEXPAPAVIChangeSkinEventListener@@0@Z ; std::vector<IChangeSkinEventListener *,std::allocator<IChangeSkinEventListener *> >::_Destroy

; 726  : 		--_Mylast;

  0003a	8b 55 fc	 mov	 edx, DWORD PTR _this$[ebp]
  0003d	8b 42 08	 mov	 eax, DWORD PTR [edx+8]
  00040	83 e8 04	 sub	 eax, 4
  00043	8b 4d fc	 mov	 ecx, DWORD PTR _this$[ebp]
  00046	89 41 08	 mov	 DWORD PTR [ecx+8], eax

; 727  : 		return (_Where);

  00049	8b 55 08	 mov	 edx, DWORD PTR ___$ReturnUdt$[ebp]
  0004c	8b 45 0c	 mov	 eax, DWORD PTR __Where$[ebp]
  0004f	89 02		 mov	 DWORD PTR [edx], eax
  00051	8b 45 08	 mov	 eax, DWORD PTR ___$ReturnUdt$[ebp]

; 728  : 		}

  00054	8b e5		 mov	 esp, ebp
  00056	5d		 pop	 ebp
  00057	c2 08 00	 ret	 8
?erase@?$vector@PAVIChangeSkinEventListener@@V?$allocator@PAVIChangeSkinEventListener@@@std@@@std@@QAE?AViterator@12@V312@@Z ENDP ; std::vector<IChangeSkinEventListener *,std::allocator<IChangeSkinEventListener *> >::erase
_TEXT	ENDS
PUBLIC	??Dconst_iterator@?$vector@PAVIChangeSkinEventListener@@V?$allocator@PAVIChangeSkinEventListener@@@std@@@std@@QBEABQAVIChangeSkinEventListener@@XZ ; std::vector<IChangeSkinEventListener *,std::allocator<IChangeSkinEventListener *> >::const_iterator::operator*
; Function compile flags: /Odt
;	COMDAT ??Diterator@?$vector@PAVIChangeSkinEventListener@@V?$allocator@PAVIChangeSkinEventListener@@@std@@@std@@QBEAAPAVIChangeSkinEventListener@@XZ
_TEXT	SEGMENT
_this$ = -4						; size = 4
??Diterator@?$vector@PAVIChangeSkinEventListener@@V?$allocator@PAVIChangeSkinEventListener@@@std@@@std@@QBEAAPAVIChangeSkinEventListener@@XZ PROC NEAR ; std::vector<IChangeSkinEventListener *,std::allocator<IChangeSkinEventListener *> >::iterator::operator*, COMDAT
; _this$ = ecx

; 219  : 			{	// return designated object

  00000	55		 push	 ebp
  00001	8b ec		 mov	 ebp, esp
  00003	51		 push	 ecx
  00004	89 4d fc	 mov	 DWORD PTR _this$[ebp], ecx

; 220  : 			return ((reference)**(const_iterator *)this);

  00007	8b 4d fc	 mov	 ecx, DWORD PTR _this$[ebp]
  0000a	e8 00 00 00 00	 call	 ??Dconst_iterator@?$vector@PAVIChangeSkinEventListener@@V?$allocator@PAVIChangeSkinEventListener@@@std@@@std@@QBEABQAVIChangeSkinEventListener@@XZ ; std::vector<IChangeSkinEventListener *,std::allocator<IChangeSkinEventListener *> >::const_iterator::operator*

; 221  : 			}

  0000f	8b e5		 mov	 esp, ebp
  00011	5d		 pop	 ebp
  00012	c3		 ret	 0
??Diterator@?$vector@PAVIChangeSkinEventListener@@V?$allocator@PAVIChangeSkinEventListener@@@std@@@std@@QBEAAPAVIChangeSkinEventListener@@XZ ENDP ; std::vector<IChangeSkinEventListener *,std::allocator<IChangeSkinEventListener *> >::iterator::operator*
_TEXT	ENDS
PUBLIC	??Eiterator@?$vector@PAVIChangeSkinEventListener@@V?$allocator@PAVIChangeSkinEventListener@@@std@@@std@@QAEAAV012@XZ ; std::vector<IChangeSkinEventListener *,std::allocator<IChangeSkinEventListener *> >::iterator::operator++
; Function compile flags: /Odt
;	COMDAT ??Eiterator@?$vector@PAVIChangeSkinEventListener@@V?$allocator@PAVIChangeSkinEventListener@@@std@@@std@@QAE?AV012@H@Z
_TEXT	SEGMENT
_this$ = -8						; size = 4
__Tmp$ = -4						; size = 4
___$ReturnUdt$ = 8					; size = 4
___formal$ = 12						; size = 4
??Eiterator@?$vector@PAVIChangeSkinEventListener@@V?$allocator@PAVIChangeSkinEventListener@@@std@@@std@@QAE?AV012@H@Z PROC NEAR ; std::vector<IChangeSkinEventListener *,std::allocator<IChangeSkinEventListener *> >::iterator::operator++, COMDAT
; _this$ = ecx

; 235  : 			{	// postincrement

  00000	55		 push	 ebp
  00001	8b ec		 mov	 ebp, esp
  00003	83 ec 08	 sub	 esp, 8
  00006	89 4d f8	 mov	 DWORD PTR _this$[ebp], ecx

; 236  : 			iterator _Tmp = *this;

  00009	8b 45 f8	 mov	 eax, DWORD PTR _this$[ebp]
  0000c	8b 08		 mov	 ecx, DWORD PTR [eax]
  0000e	89 4d fc	 mov	 DWORD PTR __Tmp$[ebp], ecx

; 237  : 			++*this;

  00011	8b 4d f8	 mov	 ecx, DWORD PTR _this$[ebp]
  00014	e8 00 00 00 00	 call	 ??Eiterator@?$vector@PAVIChangeSkinEventListener@@V?$allocator@PAVIChangeSkinEventListener@@@std@@@std@@QAEAAV012@XZ ; std::vector<IChangeSkinEventListener *,std::allocator<IChangeSkinEventListener *> >::iterator::operator++

; 238  : 			return (_Tmp);

  00019	8b 55 08	 mov	 edx, DWORD PTR ___$ReturnUdt$[ebp]
  0001c	8b 45 fc	 mov	 eax, DWORD PTR __Tmp$[ebp]
  0001f	89 02		 mov	 DWORD PTR [edx], eax
  00021	8b 45 08	 mov	 eax, DWORD PTR ___$ReturnUdt$[ebp]

; 239  : 			}

  00024	8b e5		 mov	 esp, ebp
  00026	5d		 pop	 ebp
  00027	c2 08 00	 ret	 8
??Eiterator@?$vector@PAVIChangeSkinEventListener@@V?$allocator@PAVIChangeSkinEventListener@@@std@@@std@@QAE?AV012@H@Z ENDP ; std::vector<IChangeSkinEventListener *,std::allocator<IChangeSkinEventListener *> >::iterator::operator++
_TEXT	ENDS
PUBLIC	??8const_iterator@?$vector@PAVIChangeSkinEventListener@@V?$allocator@PAVIChangeSkinEventListener@@@std@@@std@@QBE_NABV012@@Z ; std::vector<IChangeSkinEventListener *,std::allocator<IChangeSkinEventListener *> >::const_iterator::operator==
; Function compile flags: /Odt
;	COMDAT ??9const_iterator@?$vector@PAVIChangeSkinEventListener@@V?$allocator@PAVIChangeSkinEventListener@@@std@@@std@@QBE_NABV012@@Z
_TEXT	SEGMENT
_this$ = -4						; size = 4
__Right$ = 8						; size = 4
??9const_iterator@?$vector@PAVIChangeSkinEventListener@@V?$allocator@PAVIChangeSkinEventListener@@@std@@@std@@QBE_NABV012@@Z PROC NEAR ; std::vector<IChangeSkinEventListener *,std::allocator<IChangeSkinEventListener *> >::const_iterator::operator!=, COMDAT
; _this$ = ecx

; 159  : 			{	// test for iterator inequality

  00000	55		 push	 ebp
  00001	8b ec		 mov	 ebp, esp
  00003	51		 push	 ecx
  00004	89 4d fc	 mov	 DWORD PTR _this$[ebp], ecx

; 160  : 			return (!(*this == _Right));

  00007	8b 45 08	 mov	 eax, DWORD PTR __Right$[ebp]
  0000a	50		 push	 eax
  0000b	8b 4d fc	 mov	 ecx, DWORD PTR _this$[ebp]
  0000e	e8 00 00 00 00	 call	 ??8const_iterator@?$vector@PAVIChangeSkinEventListener@@V?$allocator@PAVIChangeSkinEventListener@@@std@@@std@@QBE_NABV012@@Z ; std::vector<IChangeSkinEventListener *,std::allocator<IChangeSkinEventListener *> >::const_iterator::operator==
  00013	0f b6 c0	 movzx	 eax, al
  00016	f7 d8		 neg	 eax
  00018	1b c0		 sbb	 eax, eax
  0001a	40		 inc	 eax

; 161  : 			}

  0001b	8b e5		 mov	 esp, ebp
  0001d	5d		 pop	 ebp
  0001e	c2 04 00	 ret	 4
??9const_iterator@?$vector@PAVIChangeSkinEventListener@@V?$allocator@PAVIChangeSkinEventListener@@@std@@@std@@QBE_NABV012@@Z ENDP ; std::vector<IChangeSkinEventListener *,std::allocator<IChangeSkinEventListener *> >::const_iterator::operator!=
_TEXT	ENDS
PUBLIC	??0?$_Vector_val@V?$basic_string@DU?$char_traits@D@std@@V?$allocator@D@2@@std@@V?$allocator@V?$basic_string@DU?$char_traits@D@std@@V?$allocator@D@2@@std@@@2@@std@@IAE@V?$allocator@V?$basic_string@DU?$char_traits@D@std@@V?$allocator@D@2@@std@@@1@@Z ; std::_Vector_val<std::basic_string<char,std::char_traits<char>,std::allocator<char> >,std::allocator<std::basic_string<char,std::char_traits<char>,std::allocator<char> > > >::_Vector_val<std::basic_string<char,std::char_traits<char>,std::allocator<char> >,std::allocator<std::basic_string<char,std::char_traits<char>,std::allocator<char> > > >
PUBLIC	??0?$allocator@V?$basic_string@DU?$char_traits@D@std@@V?$allocator@D@2@@std@@@std@@QAE@XZ ; std::allocator<std::basic_string<char,std::char_traits<char>,std::allocator<char> > >::allocator<std::basic_string<char,std::char_traits<char>,std::allocator<char> > >
PUBLIC	?_Buy@?$vector@V?$basic_string@DU?$char_traits@D@std@@V?$allocator@D@2@@std@@V?$allocator@V?$basic_string@DU?$char_traits@D@std@@V?$allocator@D@2@@std@@@2@@std@@IAE_NI@Z ; std::vector<std::basic_string<char,std::char_traits<char>,std::allocator<char> >,std::allocator<std::basic_string<char,std::char_traits<char>,std::allocator<char> > > >::_Buy
; Function compile flags: /Odt
;	COMDAT ??0?$vector@V?$basic_string@DU?$char_traits@D@std@@V?$allocator@D@2@@std@@V?$allocator@V?$basic_string@DU?$char_traits@D@std@@V?$allocator@D@2@@std@@@2@@std@@QAE@XZ
_TEXT	SEGMENT
_this$ = -8						; size = 4
??0?$vector@V?$basic_string@DU?$char_traits@D@std@@V?$allocator@D@2@@std@@V?$allocator@V?$basic_string@DU?$char_traits@D@std@@V?$allocator@D@2@@std@@@2@@std@@QAE@XZ PROC NEAR ; std::vector<std::basic_string<char,std::char_traits<char>,std::allocator<char> >,std::allocator<std::basic_string<char,std::char_traits<char>,std::allocator<char> > > >::vector<std::basic_string<char,std::char_traits<char>,std::allocator<char> >,std::allocator<std::basic_string<char,std::char_traits<char>,std::allocator<char> > > >, COMDAT
; _this$ = ecx

; 299  : 		{	// construct empty vector

  00000	55		 push	 ebp
  00001	8b ec		 mov	 ebp, esp
  00003	83 ec 08	 sub	 esp, 8
  00006	89 4d f8	 mov	 DWORD PTR _this$[ebp], ecx
  00009	51		 push	 ecx
  0000a	8b cc		 mov	 ecx, esp
  0000c	e8 00 00 00 00	 call	 ??0?$allocator@V?$basic_string@DU?$char_traits@D@std@@V?$allocator@D@2@@std@@@std@@QAE@XZ ; std::allocator<std::basic_string<char,std::char_traits<char>,std::allocator<char> > >::allocator<std::basic_string<char,std::char_traits<char>,std::allocator<char> > >
  00011	8b 4d f8	 mov	 ecx, DWORD PTR _this$[ebp]
  00014	e8 00 00 00 00	 call	 ??0?$_Vector_val@V?$basic_string@DU?$char_traits@D@std@@V?$allocator@D@2@@std@@V?$allocator@V?$basic_string@DU?$char_traits@D@std@@V?$allocator@D@2@@std@@@2@@std@@IAE@V?$allocator@V?$basic_string@DU?$char_traits@D@std@@V?$allocator@D@2@@std@@@1@@Z ; std::_Vector_val<std::basic_string<char,std::char_traits<char>,std::allocator<char> >,std::allocator<std::basic_string<char,std::char_traits<char>,std::allocator<char> > > >::_Vector_val<std::basic_string<char,std::char_traits<char>,std::allocator<char> >,std::allocator<std::basic_string<char,std::char_traits<char>,std::allocator<char> > > >

; 300  : 		_Buy(0);

  00019	6a 00		 push	 0
  0001b	8b 4d f8	 mov	 ecx, DWORD PTR _this$[ebp]
  0001e	e8 00 00 00 00	 call	 ?_Buy@?$vector@V?$basic_string@DU?$char_traits@D@std@@V?$allocator@D@2@@std@@V?$allocator@V?$basic_string@DU?$char_traits@D@std@@V?$allocator@D@2@@std@@@2@@std@@IAE_NI@Z ; std::vector<std::basic_string<char,std::char_traits<char>,std::allocator<char> >,std::allocator<std::basic_string<char,std::char_traits<char>,std::allocator<char> > > >::_Buy

; 301  : 		}

  00023	8b 45 f8	 mov	 eax, DWORD PTR _this$[ebp]
  00026	8b e5		 mov	 esp, ebp
  00028	5d		 pop	 ebp
  00029	c3		 ret	 0
??0?$vector@V?$basic_string@DU?$char_traits@D@std@@V?$allocator@D@2@@std@@V?$allocator@V?$basic_string@DU?$char_traits@D@std@@V?$allocator@D@2@@std@@@2@@std@@QAE@XZ ENDP ; std::vector<std::basic_string<char,std::char_traits<char>,std::allocator<char> >,std::allocator<std::basic_string<char,std::char_traits<char>,std::allocator<char> > > >::vector<std::basic_string<char,std::char_traits<char>,std::allocator<char> >,std::allocator<std::basic_string<char,std::char_traits<char>,std::allocator<char> > > >
_TEXT	ENDS
PUBLIC	?_Tidy@?$vector@V?$basic_string@DU?$char_traits@D@std@@V?$allocator@D@2@@std@@V?$allocator@V?$basic_string@DU?$char_traits@D@std@@V?$allocator@D@2@@std@@@2@@std@@IAEXXZ ; std::vector<std::basic_string<char,std::char_traits<char>,std::allocator<char> >,std::allocator<std::basic_string<char,std::char_traits<char>,std::allocator<char> > > >::_Tidy
; Function compile flags: /Odt
;	COMDAT ??1?$vector@V?$basic_string@DU?$char_traits@D@std@@V?$allocator@D@2@@std@@V?$allocator@V?$basic_string@DU?$char_traits@D@std@@V?$allocator@D@2@@std@@@2@@std@@QAE@XZ
_TEXT	SEGMENT
_this$ = -4						; size = 4
??1?$vector@V?$basic_string@DU?$char_traits@D@std@@V?$allocator@D@2@@std@@V?$allocator@V?$basic_string@DU?$char_traits@D@std@@V?$allocator@D@2@@std@@@2@@std@@QAE@XZ PROC NEAR ; std::vector<std::basic_string<char,std::char_traits<char>,std::allocator<char> >,std::allocator<std::basic_string<char,std::char_traits<char>,std::allocator<char> > > >::~vector<std::basic_string<char,std::char_traits<char>,std::allocator<char> >,std::allocator<std::basic_string<char,std::char_traits<char>,std::allocator<char> > > >, COMDAT
; _this$ = ecx

; 387  : 		{	// destroy the object

  00000	55		 push	 ebp
  00001	8b ec		 mov	 ebp, esp
  00003	51		 push	 ecx
  00004	89 4d fc	 mov	 DWORD PTR _this$[ebp], ecx

; 388  : 		_Tidy();

  00007	8b 4d fc	 mov	 ecx, DWORD PTR _this$[ebp]
  0000a	e8 00 00 00 00	 call	 ?_Tidy@?$vector@V?$basic_string@DU?$char_traits@D@std@@V?$allocator@D@2@@std@@V?$allocator@V?$basic_string@DU?$char_traits@D@std@@V?$allocator@D@2@@std@@@2@@std@@IAEXXZ ; std::vector<std::basic_string<char,std::char_traits<char>,std::allocator<char> >,std::allocator<std::basic_string<char,std::char_traits<char>,std::allocator<char> > > >::_Tidy

; 389  : 		}

  0000f	8b e5		 mov	 esp, ebp
  00011	5d		 pop	 ebp
  00012	c3		 ret	 0
??1?$vector@V?$basic_string@DU?$char_traits@D@std@@V?$allocator@D@2@@std@@V?$allocator@V?$basic_string@DU?$char_traits@D@std@@V?$allocator@D@2@@std@@@2@@std@@QAE@XZ ENDP ; std::vector<std::basic_string<char,std::char_traits<char>,std::allocator<char> >,std::allocator<std::basic_string<char,std::char_traits<char>,std::allocator<char> > > >::~vector<std::basic_string<char,std::char_traits<char>,std::allocator<char> >,std::allocator<std::basic_string<char,std::char_traits<char>,std::allocator<char> > > >
; Function compile flags: /Odt
; File d:\program files (x86)\microsoft visual studio .net 2003\vc7\atlmfc\include\atltypes.inl
_TEXT	ENDS
;	COMDAT ??0CRect@@QAE@XZ
_TEXT	SEGMENT
_this$ = -4						; size = 4
??0CRect@@QAE@XZ PROC NEAR				; CRect::CRect, COMDAT
; _this$ = ecx

; 110  : 	{ /* random filled */ }

  00000	55		 push	 ebp
  00001	8b ec		 mov	 ebp, esp
  00003	51		 push	 ecx
  00004	89 4d fc	 mov	 DWORD PTR _this$[ebp], ecx
  00007	8b 45 fc	 mov	 eax, DWORD PTR _this$[ebp]
  0000a	8b e5		 mov	 esp, ebp
  0000c	5d		 pop	 ebp
  0000d	c3		 ret	 0
??0CRect@@QAE@XZ ENDP					; CRect::CRect
; Function compile flags: /Odt
_TEXT	ENDS
;	COMDAT ??0CRect@@QAE@HHHH@Z
_TEXT	SEGMENT
_this$ = -4						; size = 4
_l$ = 8							; size = 4
_t$ = 12						; size = 4
_r$ = 16						; size = 4
_b$ = 20						; size = 4
??0CRect@@QAE@HHHH@Z PROC NEAR				; CRect::CRect, COMDAT
; _this$ = ecx

; 112  : 	{ left = l; top = t; right = r; bottom = b; }

  00000	55		 push	 ebp
  00001	8b ec		 mov	 ebp, esp
  00003	51		 push	 ecx
  00004	89 4d fc	 mov	 DWORD PTR _this$[ebp], ecx
  00007	8b 45 fc	 mov	 eax, DWORD PTR _this$[ebp]
  0000a	8b 4d 08	 mov	 ecx, DWORD PTR _l$[ebp]
  0000d	89 08		 mov	 DWORD PTR [eax], ecx
  0000f	8b 55 fc	 mov	 edx, DWORD PTR _this$[ebp]
  00012	8b 45 0c	 mov	 eax, DWORD PTR _t$[ebp]
  00015	89 42 04	 mov	 DWORD PTR [edx+4], eax
  00018	8b 4d fc	 mov	 ecx, DWORD PTR _this$[ebp]
  0001b	8b 55 10	 mov	 edx, DWORD PTR _r$[ebp]
  0001e	89 51 08	 mov	 DWORD PTR [ecx+8], edx
  00021	8b 45 fc	 mov	 eax, DWORD PTR _this$[ebp]
  00024	8b 4d 14	 mov	 ecx, DWORD PTR _b$[ebp]
  00027	89 48 0c	 mov	 DWORD PTR [eax+12], ecx
  0002a	8b 45 fc	 mov	 eax, DWORD PTR _this$[ebp]
  0002d	8b e5		 mov	 esp, ebp
  0002f	5d		 pop	 ebp
  00030	c2 10 00	 ret	 16			; 00000010H
??0CRect@@QAE@HHHH@Z ENDP				; CRect::CRect
; Function compile flags: /Odt
_TEXT	ENDS
;	COMDAT ??BCRect@@QAEPAUtagRECT@@XZ
_TEXT	SEGMENT
_this$ = -4						; size = 4
??BCRect@@QAEPAUtagRECT@@XZ PROC NEAR			; CRect::operator tagRECT *, COMDAT
; _this$ = ecx

; 143  : 	{ return this; }

  00000	55		 push	 ebp
  00001	8b ec		 mov	 ebp, esp
  00003	51		 push	 ecx
  00004	89 4d fc	 mov	 DWORD PTR _this$[ebp], ecx
  00007	8b 45 fc	 mov	 eax, DWORD PTR _this$[ebp]
  0000a	8b e5		 mov	 esp, ebp
  0000c	5d		 pop	 ebp
  0000d	c3		 ret	 0
??BCRect@@QAEPAUtagRECT@@XZ ENDP			; CRect::operator tagRECT *
_TEXT	ENDS
EXTRN	__imp__SetRect@20:NEAR
; Function compile flags: /Odt
;	COMDAT ?SetRect@CRect@@QAEXHHHH@Z
_TEXT	SEGMENT
_this$ = -4						; size = 4
_x1$ = 8						; size = 4
_y1$ = 12						; size = 4
_x2$ = 16						; size = 4
_y2$ = 20						; size = 4
?SetRect@CRect@@QAEXHHHH@Z PROC NEAR			; CRect::SetRect, COMDAT
; _this$ = ecx

; 153  : 	{ ::SetRect(this, x1, y1, x2, y2); }

  00000	55		 push	 ebp
  00001	8b ec		 mov	 ebp, esp
  00003	51		 push	 ecx
  00004	89 4d fc	 mov	 DWORD PTR _this$[ebp], ecx
  00007	8b 45 14	 mov	 eax, DWORD PTR _y2$[ebp]
  0000a	50		 push	 eax
  0000b	8b 4d 10	 mov	 ecx, DWORD PTR _x2$[ebp]
  0000e	51		 push	 ecx
  0000f	8b 55 0c	 mov	 edx, DWORD PTR _y1$[ebp]
  00012	52		 push	 edx
  00013	8b 45 08	 mov	 eax, DWORD PTR _x1$[ebp]
  00016	50		 push	 eax
  00017	8b 4d fc	 mov	 ecx, DWORD PTR _this$[ebp]
  0001a	51		 push	 ecx
  0001b	ff 15 00 00 00
	00		 call	 DWORD PTR __imp__SetRect@20
  00021	8b e5		 mov	 esp, ebp
  00023	5d		 pop	 ebp
  00024	c2 10 00	 ret	 16			; 00000010H
?SetRect@CRect@@QAEXHHHH@Z ENDP				; CRect::SetRect
_TEXT	ENDS
PUBLIC	??0iterator@?$vector@UOneSubject@@V?$allocator@UOneSubject@@@std@@@std@@QAE@PAUOneSubject@@@Z ; std::vector<OneSubject,std::allocator<OneSubject> >::iterator::iterator
; Function compile flags: /Odt
; File d:\program files (x86)\microsoft visual studio .net 2003\vc7\include\vector
;	COMDAT ?begin@?$vector@UOneSubject@@V?$allocator@UOneSubject@@@std@@@std@@QAE?AViterator@12@XZ
_TEXT	SEGMENT
_this$ = -4						; size = 4
___$ReturnUdt$ = 8					; size = 4
?begin@?$vector@UOneSubject@@V?$allocator@UOneSubject@@@std@@@std@@QAE?AViterator@12@XZ PROC NEAR ; std::vector<OneSubject,std::allocator<OneSubject> >::begin, COMDAT
; _this$ = ecx

; 462  : 		{	// return iterator for beginning of mutable sequence

  00000	55		 push	 ebp
  00001	8b ec		 mov	 ebp, esp
  00003	51		 push	 ecx
  00004	89 4d fc	 mov	 DWORD PTR _this$[ebp], ecx

; 463  : 		return (iterator(_Myfirst));

  00007	8b 45 fc	 mov	 eax, DWORD PTR _this$[ebp]
  0000a	8b 48 04	 mov	 ecx, DWORD PTR [eax+4]
  0000d	51		 push	 ecx
  0000e	8b 4d 08	 mov	 ecx, DWORD PTR ___$ReturnUdt$[ebp]
  00011	e8 00 00 00 00	 call	 ??0iterator@?$vector@UOneSubject@@V?$allocator@UOneSubject@@@std@@@std@@QAE@PAUOneSubject@@@Z ; std::vector<OneSubject,std::allocator<OneSubject> >::iterator::iterator
  00016	8b 45 08	 mov	 eax, DWORD PTR ___$ReturnUdt$[ebp]

; 464  : 		}

  00019	8b e5		 mov	 esp, ebp
  0001b	5d		 pop	 ebp
  0001c	c2 04 00	 ret	 4
?begin@?$vector@UOneSubject@@V?$allocator@UOneSubject@@@std@@@std@@QAE?AViterator@12@XZ ENDP ; std::vector<OneSubject,std::allocator<OneSubject> >::begin
; Function compile flags: /Odt
; File d:\program files (x86)\microsoft visual studio .net 2003\vc7\include\xmemory
_TEXT	ENDS
;	COMDAT ??0?$allocator@V?$basic_string@DU?$char_traits@D@std@@V?$allocator@D@2@@std@@@std@@QAE@XZ
_TEXT	SEGMENT
_this$ = -4						; size = 4
??0?$allocator@V?$basic_string@DU?$char_traits@D@std@@V?$allocator@D@2@@std@@@std@@QAE@XZ PROC NEAR ; std::allocator<std::basic_string<char,std::char_traits<char>,std::allocator<char> > >::allocator<std::basic_string<char,std::char_traits<char>,std::allocator<char> > >, COMDAT
; _this$ = ecx

; 111  : 	allocator()

  00000	55		 push	 ebp
  00001	8b ec		 mov	 ebp, esp
  00003	51		 push	 ecx
  00004	89 4d fc	 mov	 DWORD PTR _this$[ebp], ecx

; 112  : 		{	// construct default allocator (do nothing)
; 113  : 		}

  00007	8b 45 fc	 mov	 eax, DWORD PTR _this$[ebp]
  0000a	8b e5		 mov	 esp, ebp
  0000c	5d		 pop	 ebp
  0000d	c3		 ret	 0
??0?$allocator@V?$basic_string@DU?$char_traits@D@std@@V?$allocator@D@2@@std@@@std@@QAE@XZ ENDP ; std::allocator<std::basic_string<char,std::char_traits<char>,std::allocator<char> > >::allocator<std::basic_string<char,std::char_traits<char>,std::allocator<char> > >
; Function compile flags: /Odt
; File d:\program files (x86)\microsoft visual studio .net 2003\vc7\include\vector
_TEXT	ENDS
;	COMDAT ?capacity@?$vector@PAVIChangeSkinEventListener@@V?$allocator@PAVIChangeSkinEventListener@@@std@@@std@@QBEIXZ
_TEXT	SEGMENT
tv70 = -8						; size = 4
_this$ = -4						; size = 4
?capacity@?$vector@PAVIChangeSkinEventListener@@V?$allocator@PAVIChangeSkinEventListener@@@std@@@std@@QBEIXZ PROC NEAR ; std::vector<IChangeSkinEventListener *,std::allocator<IChangeSkinEventListener *> >::capacity, COMDAT
; _this$ = ecx

; 457  : 		{	// return current length of allocated storage

  00000	55		 push	 ebp
  00001	8b ec		 mov	 ebp, esp
  00003	83 ec 08	 sub	 esp, 8
  00006	89 4d fc	 mov	 DWORD PTR _this$[ebp], ecx

; 458  : 		return (_Myfirst == 0 ? 0 : _Myend - _Myfirst);

  00009	8b 45 fc	 mov	 eax, DWORD PTR _this$[ebp]
  0000c	83 78 04 00	 cmp	 DWORD PTR [eax+4], 0
  00010	75 09		 jne	 SHORT $L205704
  00012	c7 45 f8 00 00
	00 00		 mov	 DWORD PTR tv70[ebp], 0
  00019	eb 12		 jmp	 SHORT $L205705
$L205704:
  0001b	8b 4d fc	 mov	 ecx, DWORD PTR _this$[ebp]
  0001e	8b 55 fc	 mov	 edx, DWORD PTR _this$[ebp]
  00021	8b 41 0c	 mov	 eax, DWORD PTR [ecx+12]
  00024	2b 42 04	 sub	 eax, DWORD PTR [edx+4]
  00027	c1 f8 02	 sar	 eax, 2
  0002a	89 45 f8	 mov	 DWORD PTR tv70[ebp], eax
$L205705:
  0002d	8b 45 f8	 mov	 eax, DWORD PTR tv70[ebp]

; 459  : 		}

  00030	8b e5		 mov	 esp, ebp
  00032	5d		 pop	 ebp
  00033	c3		 ret	 0
?capacity@?$vector@PAVIChangeSkinEventListener@@V?$allocator@PAVIChangeSkinEventListener@@@std@@@std@@QBEIXZ ENDP ; std::vector<IChangeSkinEventListener *,std::allocator<IChangeSkinEventListener *> >::capacity
_TEXT	ENDS
PUBLIC	?_Insert_n@?$vector@PAVIChangeSkinEventListener@@V?$allocator@PAVIChangeSkinEventListener@@@std@@@std@@IAEXViterator@12@IABQAVIChangeSkinEventListener@@@Z ; std::vector<IChangeSkinEventListener *,std::allocator<IChangeSkinEventListener *> >::_Insert_n
PUBLIC	??Giterator@?$vector@PAVIChangeSkinEventListener@@V?$allocator@PAVIChangeSkinEventListener@@@std@@@std@@QBEHABVconst_iterator@12@@Z ; std::vector<IChangeSkinEventListener *,std::allocator<IChangeSkinEventListener *> >::iterator::operator-
; Function compile flags: /Odt
;	COMDAT ?insert@?$vector@PAVIChangeSkinEventListener@@V?$allocator@PAVIChangeSkinEventListener@@@std@@@std@@QAE?AViterator@12@V312@ABQAVIChangeSkinEventListener@@@Z
_TEXT	SEGMENT
tv73 = -20						; size = 4
_this$ = -16						; size = 4
$T205711 = -12						; size = 4
$T205708 = -8						; size = 4
__Off$ = -4						; size = 4
___$ReturnUdt$ = 8					; size = 4
__Where$ = 12						; size = 4
__Val$ = 16						; size = 4
?insert@?$vector@PAVIChangeSkinEventListener@@V?$allocator@PAVIChangeSkinEventListener@@@std@@@std@@QAE?AViterator@12@V312@ABQAVIChangeSkinEventListener@@@Z PROC NEAR ; std::vector<IChangeSkinEventListener *,std::allocator<IChangeSkinEventListener *> >::insert, COMDAT
; _this$ = ecx

; 620  : 		{	// insert _Val at _Where

  00000	55		 push	 ebp
  00001	8b ec		 mov	 ebp, esp
  00003	83 ec 14	 sub	 esp, 20			; 00000014H
  00006	89 4d f0	 mov	 DWORD PTR _this$[ebp], ecx

; 621  : 		size_type _Off = size() == 0 ? 0 : _Where - begin();

  00009	8b 4d f0	 mov	 ecx, DWORD PTR _this$[ebp]
  0000c	e8 00 00 00 00	 call	 ?size@?$vector@PAVIChangeSkinEventListener@@V?$allocator@PAVIChangeSkinEventListener@@@std@@@std@@QBEIXZ ; std::vector<IChangeSkinEventListener *,std::allocator<IChangeSkinEventListener *> >::size
  00011	85 c0		 test	 eax, eax
  00013	75 09		 jne	 SHORT $L205709
  00015	c7 45 ec 00 00
	00 00		 mov	 DWORD PTR tv73[ebp], 0
  0001c	eb 18		 jmp	 SHORT $L205710
$L205709:
  0001e	8d 45 f8	 lea	 eax, DWORD PTR $T205708[ebp]
  00021	50		 push	 eax
  00022	8b 4d f0	 mov	 ecx, DWORD PTR _this$[ebp]
  00025	e8 00 00 00 00	 call	 ?begin@?$vector@PAVIChangeSkinEventListener@@V?$allocator@PAVIChangeSkinEventListener@@@std@@@std@@QAE?AViterator@12@XZ ; std::vector<IChangeSkinEventListener *,std::allocator<IChangeSkinEventListener *> >::begin
  0002a	50		 push	 eax
  0002b	8d 4d 0c	 lea	 ecx, DWORD PTR __Where$[ebp]
  0002e	e8 00 00 00 00	 call	 ??Giterator@?$vector@PAVIChangeSkinEventListener@@V?$allocator@PAVIChangeSkinEventListener@@@std@@@std@@QBEHABVconst_iterator@12@@Z ; std::vector<IChangeSkinEventListener *,std::allocator<IChangeSkinEventListener *> >::iterator::operator-
  00033	89 45 ec	 mov	 DWORD PTR tv73[ebp], eax
$L205710:
  00036	8b 4d ec	 mov	 ecx, DWORD PTR tv73[ebp]
  00039	89 4d fc	 mov	 DWORD PTR __Off$[ebp], ecx

; 622  : 		_Insert_n(_Where, (size_type)1, _Val);

  0003c	8b 55 10	 mov	 edx, DWORD PTR __Val$[ebp]
  0003f	52		 push	 edx
  00040	6a 01		 push	 1
  00042	8b 45 0c	 mov	 eax, DWORD PTR __Where$[ebp]
  00045	50		 push	 eax
  00046	8b 4d f0	 mov	 ecx, DWORD PTR _this$[ebp]
  00049	e8 00 00 00 00	 call	 ?_Insert_n@?$vector@PAVIChangeSkinEventListener@@V?$allocator@PAVIChangeSkinEventListener@@@std@@@std@@IAEXViterator@12@IABQAVIChangeSkinEventListener@@@Z ; std::vector<IChangeSkinEventListener *,std::allocator<IChangeSkinEventListener *> >::_Insert_n

; 623  : 		return (begin() + _Off);

  0004e	8b 4d fc	 mov	 ecx, DWORD PTR __Off$[ebp]
  00051	51		 push	 ecx
  00052	8b 55 08	 mov	 edx, DWORD PTR ___$ReturnUdt$[ebp]
  00055	52		 push	 edx
  00056	8d 45 f4	 lea	 eax, DWORD PTR $T205711[ebp]
  00059	50		 push	 eax
  0005a	8b 4d f0	 mov	 ecx, DWORD PTR _this$[ebp]
  0005d	e8 00 00 00 00	 call	 ?begin@?$vector@PAVIChangeSkinEventListener@@V?$allocator@PAVIChangeSkinEventListener@@@std@@@std@@QAE?AViterator@12@XZ ; std::vector<IChangeSkinEventListener *,std::allocator<IChangeSkinEventListener *> >::begin
  00062	8b c8		 mov	 ecx, eax
  00064	e8 00 00 00 00	 call	 ??Hiterator@?$vector@PAVIChangeSkinEventListener@@V?$allocator@PAVIChangeSkinEventListener@@@std@@@std@@QBE?AV012@H@Z ; std::vector<IChangeSkinEventListener *,std::allocator<IChangeSkinEventListener *> >::iterator::operator+
  00069	8b 45 08	 mov	 eax, DWORD PTR ___$ReturnUdt$[ebp]

; 624  : 		}

  0006c	8b e5		 mov	 esp, ebp
  0006e	5d		 pop	 ebp
  0006f	c2 0c 00	 ret	 12			; 0000000cH
?insert@?$vector@PAVIChangeSkinEventListener@@V?$allocator@PAVIChangeSkinEventListener@@@std@@@std@@QAE?AViterator@12@V312@ABQAVIChangeSkinEventListener@@@Z ENDP ; std::vector<IChangeSkinEventListener *,std::allocator<IChangeSkinEventListener *> >::insert
_TEXT	ENDS
PUBLIC	?_Xlen@?$vector@PAVIChangeSkinEventListener@@V?$allocator@PAVIChangeSkinEventListener@@@std@@@std@@IBEXXZ ; std::vector<IChangeSkinEventListener *,std::allocator<IChangeSkinEventListener *> >::_Xlen
PUBLIC	?allocate@?$allocator@PAVIChangeSkinEventListener@@@std@@QAEPAPAVIChangeSkinEventListener@@I@Z ; std::allocator<IChangeSkinEventListener *>::allocate
PUBLIC	?max_size@?$vector@PAVIChangeSkinEventListener@@V?$allocator@PAVIChangeSkinEventListener@@@std@@@std@@QBEIXZ ; std::vector<IChangeSkinEventListener *,std::allocator<IChangeSkinEventListener *> >::max_size
; Function compile flags: /Odt
;	COMDAT ?_Buy@?$vector@PAVIChangeSkinEventListener@@V?$allocator@PAVIChangeSkinEventListener@@@std@@@std@@IAE_NI@Z
_TEXT	SEGMENT
_this$ = -4						; size = 4
__Capacity$ = 8						; size = 4
?_Buy@?$vector@PAVIChangeSkinEventListener@@V?$allocator@PAVIChangeSkinEventListener@@@std@@@std@@IAE_NI@Z PROC NEAR ; std::vector<IChangeSkinEventListener *,std::allocator<IChangeSkinEventListener *> >::_Buy, COMDAT
; _this$ = ecx

; 770  : 		{	// allocate array with _Capacity elements

  00000	55		 push	 ebp
  00001	8b ec		 mov	 ebp, esp
  00003	51		 push	 ecx
  00004	89 4d fc	 mov	 DWORD PTR _this$[ebp], ecx

; 771  : 		_Myfirst = 0, _Mylast = 0, _Myend = 0;

  00007	8b 45 fc	 mov	 eax, DWORD PTR _this$[ebp]
  0000a	c7 40 04 00 00
	00 00		 mov	 DWORD PTR [eax+4], 0
  00011	8b 4d fc	 mov	 ecx, DWORD PTR _this$[ebp]
  00014	c7 41 08 00 00
	00 00		 mov	 DWORD PTR [ecx+8], 0
  0001b	8b 55 fc	 mov	 edx, DWORD PTR _this$[ebp]
  0001e	c7 42 0c 00 00
	00 00		 mov	 DWORD PTR [edx+12], 0

; 772  : 		if (_Capacity == 0)

  00025	83 7d 08 00	 cmp	 DWORD PTR __Capacity$[ebp], 0
  00029	75 04		 jne	 SHORT $L203656

; 773  : 			return (false);

  0002b	32 c0		 xor	 al, al
  0002d	eb 49		 jmp	 SHORT $L203655
$L203656:

; 774  : 		else if (max_size() < _Capacity)

  0002f	8b 4d fc	 mov	 ecx, DWORD PTR _this$[ebp]
  00032	e8 00 00 00 00	 call	 ?max_size@?$vector@PAVIChangeSkinEventListener@@V?$allocator@PAVIChangeSkinEventListener@@@std@@@std@@QBEIXZ ; std::vector<IChangeSkinEventListener *,std::allocator<IChangeSkinEventListener *> >::max_size
  00037	3b 45 08	 cmp	 eax, DWORD PTR __Capacity$[ebp]
  0003a	73 0a		 jae	 SHORT $L203658

; 775  : 			_Xlen();	// result too long

  0003c	8b 4d fc	 mov	 ecx, DWORD PTR _this$[ebp]
  0003f	e8 00 00 00 00	 call	 ?_Xlen@?$vector@PAVIChangeSkinEventListener@@V?$allocator@PAVIChangeSkinEventListener@@@std@@@std@@IBEXXZ ; std::vector<IChangeSkinEventListener *,std::allocator<IChangeSkinEventListener *> >::_Xlen

; 776  : 		else

  00044	eb 30		 jmp	 SHORT $L203657
$L203658:

; 777  : 			{	// nonempty array, allocate storage
; 778  : 			_Myfirst = this->_Alval.allocate(_Capacity);

  00046	8b 45 08	 mov	 eax, DWORD PTR __Capacity$[ebp]
  00049	50		 push	 eax
  0004a	8b 4d fc	 mov	 ecx, DWORD PTR _this$[ebp]
  0004d	e8 00 00 00 00	 call	 ?allocate@?$allocator@PAVIChangeSkinEventListener@@@std@@QAEPAPAVIChangeSkinEventListener@@I@Z ; std::allocator<IChangeSkinEventListener *>::allocate
  00052	8b 4d fc	 mov	 ecx, DWORD PTR _this$[ebp]
  00055	89 41 04	 mov	 DWORD PTR [ecx+4], eax

; 779  : 			_Mylast = _Myfirst;

  00058	8b 55 fc	 mov	 edx, DWORD PTR _this$[ebp]
  0005b	8b 45 fc	 mov	 eax, DWORD PTR _this$[ebp]
  0005e	8b 48 04	 mov	 ecx, DWORD PTR [eax+4]
  00061	89 4a 08	 mov	 DWORD PTR [edx+8], ecx

; 780  : 			_Myend = _Myfirst + _Capacity;

  00064	8b 55 fc	 mov	 edx, DWORD PTR _this$[ebp]
  00067	8b 42 04	 mov	 eax, DWORD PTR [edx+4]
  0006a	8b 4d 08	 mov	 ecx, DWORD PTR __Capacity$[ebp]
  0006d	8d 14 88	 lea	 edx, DWORD PTR [eax+ecx*4]
  00070	8b 45 fc	 mov	 eax, DWORD PTR _this$[ebp]
  00073	89 50 0c	 mov	 DWORD PTR [eax+12], edx
$L203657:

; 781  : 			}
; 782  : 		return (true);

  00076	b0 01		 mov	 al, 1
$L203655:

; 783  : 		}

  00078	8b e5		 mov	 esp, ebp
  0007a	5d		 pop	 ebp
  0007b	c2 04 00	 ret	 4
?_Buy@?$vector@PAVIChangeSkinEventListener@@V?$allocator@PAVIChangeSkinEventListener@@@std@@@std@@IAE_NI@Z ENDP ; std::vector<IChangeSkinEventListener *,std::allocator<IChangeSkinEventListener *> >::_Buy
_TEXT	ENDS
PUBLIC	??$_Destroy_range@PAVIChangeSkinEventListener@@V?$allocator@PAVIChangeSkinEventListener@@@std@@@std@@YAXPAPAVIChangeSkinEventListener@@0AAV?$allocator@PAVIChangeSkinEventListener@@@0@@Z ; std::_Destroy_range<IChangeSkinEventListener *,std::allocator<IChangeSkinEventListener *> >
; Function compile flags: /Odt
;	COMDAT ?_Destroy@?$vector@PAVIChangeSkinEventListener@@V?$allocator@PAVIChangeSkinEventListener@@@std@@@std@@IAEXPAPAVIChangeSkinEventListener@@0@Z
_TEXT	SEGMENT
_this$ = -4						; size = 4
__First$ = 8						; size = 4
__Last$ = 12						; size = 4
?_Destroy@?$vector@PAVIChangeSkinEventListener@@V?$allocator@PAVIChangeSkinEventListener@@@std@@@std@@IAEXPAPAVIChangeSkinEventListener@@0@Z PROC NEAR ; std::vector<IChangeSkinEventListener *,std::allocator<IChangeSkinEventListener *> >::_Destroy, COMDAT
; _this$ = ecx

; 786  : 		{	// destroy [_First, _Last) using allocator

  00000	55		 push	 ebp
  00001	8b ec		 mov	 ebp, esp
  00003	51		 push	 ecx
  00004	89 4d fc	 mov	 DWORD PTR _this$[ebp], ecx

; 787  : 		_Destroy_range(_First, _Last, this->_Alval);

  00007	8b 45 fc	 mov	 eax, DWORD PTR _this$[ebp]
  0000a	50		 push	 eax
  0000b	8b 4d 0c	 mov	 ecx, DWORD PTR __Last$[ebp]
  0000e	51		 push	 ecx
  0000f	8b 55 08	 mov	 edx, DWORD PTR __First$[ebp]
  00012	52		 push	 edx
  00013	e8 00 00 00 00	 call	 ??$_Destroy_range@PAVIChangeSkinEventListener@@V?$allocator@PAVIChangeSkinEventListener@@@std@@@std@@YAXPAPAVIChangeSkinEventListener@@0AAV?$allocator@PAVIChangeSkinEventListener@@@0@@Z ; std::_Destroy_range<IChangeSkinEventListener *,std::allocator<IChangeSkinEventListener *> >
  00018	83 c4 0c	 add	 esp, 12			; 0000000cH

; 788  : 		}

  0001b	8b e5		 mov	 esp, ebp
  0001d	5d		 pop	 ebp
  0001e	c2 08 00	 ret	 8
?_Destroy@?$vector@PAVIChangeSkinEventListener@@V?$allocator@PAVIChangeSkinEventListener@@@std@@@std@@IAEXPAPAVIChangeSkinEventListener@@0@Z ENDP ; std::vector<IChangeSkinEventListener *,std::allocator<IChangeSkinEventListener *> >::_Destroy
_TEXT	ENDS
PUBLIC	?deallocate@?$allocator@PAVIChangeSkinEventListener@@@std@@QAEXPAPAVIChangeSkinEventListener@@I@Z ; std::allocator<IChangeSkinEventListener *>::deallocate
; Function compile flags: /Odt
;	COMDAT ?_Tidy@?$vector@PAVIChangeSkinEventListener@@V?$allocator@PAVIChangeSkinEventListener@@@std@@@std@@IAEXXZ
_TEXT	SEGMENT
_this$ = -4						; size = 4
?_Tidy@?$vector@PAVIChangeSkinEventListener@@V?$allocator@PAVIChangeSkinEventListener@@@std@@@std@@IAEXXZ PROC NEAR ; std::vector<IChangeSkinEventListener *,std::allocator<IChangeSkinEventListener *> >::_Tidy, COMDAT
; _this$ = ecx

; 791  : 		{	// free all storage

  00000	55		 push	 ebp
  00001	8b ec		 mov	 ebp, esp
  00003	51		 push	 ecx
  00004	89 4d fc	 mov	 DWORD PTR _this$[ebp], ecx

; 792  : 		if (_Myfirst != 0)

  00007	8b 45 fc	 mov	 eax, DWORD PTR _this$[ebp]
  0000a	83 78 04 00	 cmp	 DWORD PTR [eax+4], 0
  0000e	74 35		 je	 SHORT $L203671

; 793  : 			{	// something to free, destroy and deallocate it
; 794  : 			_Destroy(_Myfirst, _Mylast);

  00010	8b 4d fc	 mov	 ecx, DWORD PTR _this$[ebp]
  00013	8b 51 08	 mov	 edx, DWORD PTR [ecx+8]
  00016	52		 push	 edx
  00017	8b 45 fc	 mov	 eax, DWORD PTR _this$[ebp]
  0001a	8b 48 04	 mov	 ecx, DWORD PTR [eax+4]
  0001d	51		 push	 ecx
  0001e	8b 4d fc	 mov	 ecx, DWORD PTR _this$[ebp]
  00021	e8 00 00 00 00	 call	 ?_Destroy@?$vector@PAVIChangeSkinEventListener@@V?$allocator@PAVIChangeSkinEventListener@@@std@@@std@@IAEXPAPAVIChangeSkinEventListener@@0@Z ; std::vector<IChangeSkinEventListener *,std::allocator<IChangeSkinEventListener *> >::_Destroy

; 795  : 			this->_Alval.deallocate(_Myfirst, _Myend - _Myfirst);

  00026	8b 55 fc	 mov	 edx, DWORD PTR _this$[ebp]
  00029	8b 45 fc	 mov	 eax, DWORD PTR _this$[ebp]
  0002c	8b 4a 0c	 mov	 ecx, DWORD PTR [edx+12]
  0002f	2b 48 04	 sub	 ecx, DWORD PTR [eax+4]
  00032	c1 f9 02	 sar	 ecx, 2
  00035	51		 push	 ecx
  00036	8b 55 fc	 mov	 edx, DWORD PTR _this$[ebp]
  00039	8b 42 04	 mov	 eax, DWORD PTR [edx+4]
  0003c	50		 push	 eax
  0003d	8b 4d fc	 mov	 ecx, DWORD PTR _this$[ebp]
  00040	e8 00 00 00 00	 call	 ?deallocate@?$allocator@PAVIChangeSkinEventListener@@@std@@QAEXPAPAVIChangeSkinEventListener@@I@Z ; std::allocator<IChangeSkinEventListener *>::deallocate
$L203671:

; 796  : 			}
; 797  : 		_Myfirst = 0, _Mylast = 0, _Myend = 0;

  00045	8b 4d fc	 mov	 ecx, DWORD PTR _this$[ebp]
  00048	c7 41 04 00 00
	00 00		 mov	 DWORD PTR [ecx+4], 0
  0004f	8b 55 fc	 mov	 edx, DWORD PTR _this$[ebp]
  00052	c7 42 08 00 00
	00 00		 mov	 DWORD PTR [edx+8], 0
  00059	8b 45 fc	 mov	 eax, DWORD PTR _this$[ebp]
  0005c	c7 40 0c 00 00
	00 00		 mov	 DWORD PTR [eax+12], 0

; 798  : 		}

  00063	8b e5		 mov	 esp, ebp
  00065	5d		 pop	 ebp
  00066	c3		 ret	 0
?_Tidy@?$vector@PAVIChangeSkinEventListener@@V?$allocator@PAVIChangeSkinEventListener@@@std@@@std@@IAEXXZ ENDP ; std::vector<IChangeSkinEventListener *,std::allocator<IChangeSkinEventListener *> >::_Tidy
_TEXT	ENDS
PUBLIC	??$_Uninitialized_fill_n@PAPAVIChangeSkinEventListener@@IPAV1@V?$allocator@PAVIChangeSkinEventListener@@@std@@@std@@YAXPAPAVIChangeSkinEventListener@@IABQAV1@AAV?$allocator@PAVIChangeSkinEventListener@@@0@@Z ; std::_Uninitialized_fill_n<IChangeSkinEventListener * *,unsigned int,IChangeSkinEventListener *,std::allocator<IChangeSkinEventListener *> >
; Function compile flags: /Odt
;	COMDAT ?_Ufill@?$vector@PAVIChangeSkinEventListener@@V?$allocator@PAVIChangeSkinEventListener@@@std@@@std@@IAEPAPAVIChangeSkinEventListener@@PAPAV3@IABQAV3@@Z
_TEXT	SEGMENT
_this$ = -4						; size = 4
__Ptr$ = 8						; size = 4
__Count$ = 12						; size = 4
__Val$ = 16						; size = 4
?_Ufill@?$vector@PAVIChangeSkinEventListener@@V?$allocator@PAVIChangeSkinEventListener@@@std@@@std@@IAEPAPAVIChangeSkinEventListener@@PAPAV3@IABQAV3@@Z PROC NEAR ; std::vector<IChangeSkinEventListener *,std::allocator<IChangeSkinEventListener *> >::_Ufill, COMDAT
; _this$ = ecx

; 877  : 		{	// copy initializing _Count * _Val, using allocator

  00000	55		 push	 ebp
  00001	8b ec		 mov	 ebp, esp
  00003	51		 push	 ecx
  00004	89 4d fc	 mov	 DWORD PTR _this$[ebp], ecx

; 878  : 		_Uninitialized_fill_n(_Ptr, _Count, _Val, this->_Alval);

  00007	8b 45 fc	 mov	 eax, DWORD PTR _this$[ebp]
  0000a	50		 push	 eax
  0000b	8b 4d 10	 mov	 ecx, DWORD PTR __Val$[ebp]
  0000e	51		 push	 ecx
  0000f	8b 55 0c	 mov	 edx, DWORD PTR __Count$[ebp]
  00012	52		 push	 edx
  00013	8b 45 08	 mov	 eax, DWORD PTR __Ptr$[ebp]
  00016	50		 push	 eax
  00017	e8 00 00 00 00	 call	 ??$_Uninitialized_fill_n@PAPAVIChangeSkinEventListener@@IPAV1@V?$allocator@PAVIChangeSkinEventListener@@@std@@@std@@YAXPAPAVIChangeSkinEventListener@@IABQAV1@AAV?$allocator@PAVIChangeSkinEventListener@@@0@@Z ; std::_Uninitialized_fill_n<IChangeSkinEventListener * *,unsigned int,IChangeSkinEventListener *,std::allocator<IChangeSkinEventListener *> >
  0001c	83 c4 10	 add	 esp, 16			; 00000010H

; 879  : 		return (_Ptr + _Count);

  0001f	8b 4d 0c	 mov	 ecx, DWORD PTR __Count$[ebp]
  00022	8b 55 08	 mov	 edx, DWORD PTR __Ptr$[ebp]
  00025	8d 04 8a	 lea	 eax, DWORD PTR [edx+ecx*4]

; 880  : 		}

  00028	8b e5		 mov	 esp, ebp
  0002a	5d		 pop	 ebp
  0002b	c2 0c 00	 ret	 12			; 0000000cH
?_Ufill@?$vector@PAVIChangeSkinEventListener@@V?$allocator@PAVIChangeSkinEventListener@@@std@@@std@@IAEPAPAVIChangeSkinEventListener@@PAPAV3@IABQAV3@@Z ENDP ; std::vector<IChangeSkinEventListener *,std::allocator<IChangeSkinEventListener *> >::_Ufill
_TEXT	ENDS
PUBLIC	??0?$allocator@PAVIChangeSkinEventListener@@@std@@QAE@ABV01@@Z ; std::allocator<IChangeSkinEventListener *>::allocator<IChangeSkinEventListener *>
; Function compile flags: /Odt
;	COMDAT ??0?$_Vector_val@PAVIChangeSkinEventListener@@V?$allocator@PAVIChangeSkinEventListener@@@std@@@std@@IAE@V?$allocator@PAVIChangeSkinEventListener@@@1@@Z
_TEXT	SEGMENT
_this$ = -4						; size = 4
__Al$ = 8						; size = 1
??0?$_Vector_val@PAVIChangeSkinEventListener@@V?$allocator@PAVIChangeSkinEventListener@@@std@@@std@@IAE@V?$allocator@PAVIChangeSkinEventListener@@@1@@Z PROC NEAR ; std::_Vector_val<IChangeSkinEventListener *,std::allocator<IChangeSkinEventListener *> >::_Vector_val<IChangeSkinEventListener *,std::allocator<IChangeSkinEventListener *> >, COMDAT
; _this$ = ecx

; 21   : 		{	// construct allocator from _Al

  00000	55		 push	 ebp
  00001	8b ec		 mov	 ebp, esp
  00003	51		 push	 ecx
  00004	89 4d fc	 mov	 DWORD PTR _this$[ebp], ecx
  00007	8d 45 08	 lea	 eax, DWORD PTR __Al$[ebp]
  0000a	50		 push	 eax
  0000b	8b 4d fc	 mov	 ecx, DWORD PTR _this$[ebp]
  0000e	e8 00 00 00 00	 call	 ??0?$allocator@PAVIChangeSkinEventListener@@@std@@QAE@ABV01@@Z ; std::allocator<IChangeSkinEventListener *>::allocator<IChangeSkinEventListener *>

; 22   : 		}

  00013	8b 45 fc	 mov	 eax, DWORD PTR _this$[ebp]
  00016	8b e5		 mov	 esp, ebp
  00018	5d		 pop	 ebp
  00019	c2 04 00	 ret	 4
??0?$_Vector_val@PAVIChangeSkinEventListener@@V?$allocator@PAVIChangeSkinEventListener@@@std@@@std@@IAE@V?$allocator@PAVIChangeSkinEventListener@@@1@@Z ENDP ; std::_Vector_val<IChangeSkinEventListener *,std::allocator<IChangeSkinEventListener *> >::_Vector_val<IChangeSkinEventListener *,std::allocator<IChangeSkinEventListener *> >
; Function compile flags: /Odt
; File d:\program files (x86)\microsoft visual studio .net 2003\vc7\include\xmemory
_TEXT	ENDS
;	COMDAT ??0?$allocator@PAVIChangeSkinEventListener@@@std@@QAE@XZ
_TEXT	SEGMENT
_this$ = -4						; size = 4
??0?$allocator@PAVIChangeSkinEventListener@@@std@@QAE@XZ PROC NEAR ; std::allocator<IChangeSkinEventListener *>::allocator<IChangeSkinEventListener *>, COMDAT
; _this$ = ecx

; 111  : 	allocator()

  00000	55		 push	 ebp
  00001	8b ec		 mov	 ebp, esp
  00003	51		 push	 ecx
  00004	89 4d fc	 mov	 DWORD PTR _this$[ebp], ecx

; 112  : 		{	// construct default allocator (do nothing)
; 113  : 		}

  00007	8b 45 fc	 mov	 eax, DWORD PTR _this$[ebp]
  0000a	8b e5		 mov	 esp, ebp
  0000c	5d		 pop	 ebp
  0000d	c3		 ret	 0
??0?$allocator@PAVIChangeSkinEventListener@@@std@@QAE@XZ ENDP ; std::allocator<IChangeSkinEventListener *>::allocator<IChangeSkinEventListener *>
_TEXT	ENDS
PUBLIC	??0const_iterator@?$vector@PAVIChangeSkinEventListener@@V?$allocator@PAVIChangeSkinEventListener@@@std@@@std@@QAE@PAPAVIChangeSkinEventListener@@@Z ; std::vector<IChangeSkinEventListener *,std::allocator<IChangeSkinEventListener *> >::const_iterator::const_iterator
; Function compile flags: /Odt
; File d:\program files (x86)\microsoft visual studio .net 2003\vc7\include\vector
;	COMDAT ??0iterator@?$vector@PAVIChangeSkinEventListener@@V?$allocator@PAVIChangeSkinEventListener@@@std@@@std@@QAE@PAPAVIChangeSkinEventListener@@@Z
_TEXT	SEGMENT
_this$ = -4						; size = 4
__Ptr$ = 8						; size = 4
??0iterator@?$vector@PAVIChangeSkinEventListener@@V?$allocator@PAVIChangeSkinEventListener@@@std@@@std@@QAE@PAPAVIChangeSkinEventListener@@@Z PROC NEAR ; std::vector<IChangeSkinEventListener *,std::allocator<IChangeSkinEventListener *> >::iterator::iterator, COMDAT
; _this$ = ecx

; 215  : 			{	// construct with pointer _Ptr

  00000	55		 push	 ebp
  00001	8b ec		 mov	 ebp, esp
  00003	51		 push	 ecx
  00004	89 4d fc	 mov	 DWORD PTR _this$[ebp], ecx
  00007	8b 45 08	 mov	 eax, DWORD PTR __Ptr$[ebp]
  0000a	50		 push	 eax
  0000b	8b 4d fc	 mov	 ecx, DWORD PTR _this$[ebp]
  0000e	e8 00 00 00 00	 call	 ??0const_iterator@?$vector@PAVIChangeSkinEventListener@@V?$allocator@PAVIChangeSkinEventListener@@@std@@@std@@QAE@PAPAVIChangeSkinEventListener@@@Z ; std::vector<IChangeSkinEventListener *,std::allocator<IChangeSkinEventListener *> >::const_iterator::const_iterator

; 216  : 			}

  00013	8b 45 fc	 mov	 eax, DWORD PTR _this$[ebp]
  00016	8b e5		 mov	 esp, ebp
  00018	5d		 pop	 ebp
  00019	c2 04 00	 ret	 4
??0iterator@?$vector@PAVIChangeSkinEventListener@@V?$allocator@PAVIChangeSkinEventListener@@@std@@@std@@QAE@PAPAVIChangeSkinEventListener@@@Z ENDP ; std::vector<IChangeSkinEventListener *,std::allocator<IChangeSkinEventListener *> >::iterator::iterator
; Function compile flags: /Odt
_TEXT	ENDS
;	COMDAT ??Eiterator@?$vector@PAVIChangeSkinEventListener@@V?$allocator@PAVIChangeSkinEventListener@@@std@@@std@@QAEAAV012@XZ
_TEXT	SEGMENT
_this$ = -4						; size = 4
??Eiterator@?$vector@PAVIChangeSkinEventListener@@V?$allocator@PAVIChangeSkinEventListener@@@std@@@std@@QAEAAV012@XZ PROC NEAR ; std::vector<IChangeSkinEventListener *,std::allocator<IChangeSkinEventListener *> >::iterator::operator++, COMDAT
; _this$ = ecx

; 229  : 			{	// preincrement

  00000	55		 push	 ebp
  00001	8b ec		 mov	 ebp, esp
  00003	51		 push	 ecx
  00004	89 4d fc	 mov	 DWORD PTR _this$[ebp], ecx

; 230  : 			++this->_Myptr;

  00007	8b 45 fc	 mov	 eax, DWORD PTR _this$[ebp]
  0000a	8b 08		 mov	 ecx, DWORD PTR [eax]
  0000c	83 c1 04	 add	 ecx, 4
  0000f	8b 55 fc	 mov	 edx, DWORD PTR _this$[ebp]
  00012	89 0a		 mov	 DWORD PTR [edx], ecx

; 231  : 			return (*this);

  00014	8b 45 fc	 mov	 eax, DWORD PTR _this$[ebp]

; 232  : 			}

  00017	8b e5		 mov	 esp, ebp
  00019	5d		 pop	 ebp
  0001a	c3		 ret	 0
??Eiterator@?$vector@PAVIChangeSkinEventListener@@V?$allocator@PAVIChangeSkinEventListener@@@std@@@std@@QAEAAV012@XZ ENDP ; std::vector<IChangeSkinEventListener *,std::allocator<IChangeSkinEventListener *> >::iterator::operator++
_TEXT	ENDS
PUBLIC	??Yiterator@?$vector@PAVIChangeSkinEventListener@@V?$allocator@PAVIChangeSkinEventListener@@@std@@@std@@QAEAAV012@H@Z ; std::vector<IChangeSkinEventListener *,std::allocator<IChangeSkinEventListener *> >::iterator::operator+=
; Function compile flags: /Odt
;	COMDAT ??Hiterator@?$vector@PAVIChangeSkinEventListener@@V?$allocator@PAVIChangeSkinEventListener@@@std@@@std@@QBE?AV012@H@Z
_TEXT	SEGMENT
_this$ = -8						; size = 4
__Tmp$ = -4						; size = 4
___$ReturnUdt$ = 8					; size = 4
__Off$ = 12						; size = 4
??Hiterator@?$vector@PAVIChangeSkinEventListener@@V?$allocator@PAVIChangeSkinEventListener@@@std@@@std@@QBE?AV012@H@Z PROC NEAR ; std::vector<IChangeSkinEventListener *,std::allocator<IChangeSkinEventListener *> >::iterator::operator+, COMDAT
; _this$ = ecx

; 261  : 			{	// return this + integer

  00000	55		 push	 ebp
  00001	8b ec		 mov	 ebp, esp
  00003	83 ec 08	 sub	 esp, 8
  00006	89 4d f8	 mov	 DWORD PTR _this$[ebp], ecx

; 262  : 			iterator _Tmp = *this;

  00009	8b 45 f8	 mov	 eax, DWORD PTR _this$[ebp]
  0000c	8b 08		 mov	 ecx, DWORD PTR [eax]
  0000e	89 4d fc	 mov	 DWORD PTR __Tmp$[ebp], ecx

; 263  : 			return (_Tmp += _Off);

  00011	8b 55 0c	 mov	 edx, DWORD PTR __Off$[ebp]
  00014	52		 push	 edx
  00015	8d 4d fc	 lea	 ecx, DWORD PTR __Tmp$[ebp]
  00018	e8 00 00 00 00	 call	 ??Yiterator@?$vector@PAVIChangeSkinEventListener@@V?$allocator@PAVIChangeSkinEventListener@@@std@@@std@@QAEAAV012@H@Z ; std::vector<IChangeSkinEventListener *,std::allocator<IChangeSkinEventListener *> >::iterator::operator+=
  0001d	8b 00		 mov	 eax, DWORD PTR [eax]
  0001f	8b 4d 08	 mov	 ecx, DWORD PTR ___$ReturnUdt$[ebp]
  00022	89 01		 mov	 DWORD PTR [ecx], eax
  00024	8b 45 08	 mov	 eax, DWORD PTR ___$ReturnUdt$[ebp]

; 264  : 			}

  00027	8b e5		 mov	 esp, ebp
  00029	5d		 pop	 ebp
  0002a	c2 08 00	 ret	 8
??Hiterator@?$vector@PAVIChangeSkinEventListener@@V?$allocator@PAVIChangeSkinEventListener@@@std@@@std@@QBE?AV012@H@Z ENDP ; std::vector<IChangeSkinEventListener *,std::allocator<IChangeSkinEventListener *> >::iterator::operator+
; Function compile flags: /Odt
_TEXT	ENDS
;	COMDAT ??Dconst_iterator@?$vector@PAVIChangeSkinEventListener@@V?$allocator@PAVIChangeSkinEventListener@@@std@@@std@@QBEABQAVIChangeSkinEventListener@@XZ
_TEXT	SEGMENT
_this$ = -4						; size = 4
??Dconst_iterator@?$vector@PAVIChangeSkinEventListener@@V?$allocator@PAVIChangeSkinEventListener@@@std@@@std@@QBEABQAVIChangeSkinEventListener@@XZ PROC NEAR ; std::vector<IChangeSkinEventListener *,std::allocator<IChangeSkinEventListener *> >::const_iterator::operator*, COMDAT
; _this$ = ecx

; 79   : 			{	// return designated object

  00000	55		 push	 ebp
  00001	8b ec		 mov	 ebp, esp
  00003	51		 push	 ecx
  00004	89 4d fc	 mov	 DWORD PTR _this$[ebp], ecx

; 80   : 
; 81   : 
; 82   : 			return (*_Myptr);

  00007	8b 45 fc	 mov	 eax, DWORD PTR _this$[ebp]
  0000a	8b 00		 mov	 eax, DWORD PTR [eax]

; 83   : 			}

  0000c	8b e5		 mov	 esp, ebp
  0000e	5d		 pop	 ebp
  0000f	c3		 ret	 0
??Dconst_iterator@?$vector@PAVIChangeSkinEventListener@@V?$allocator@PAVIChangeSkinEventListener@@@std@@@std@@QBEABQAVIChangeSkinEventListener@@XZ ENDP ; std::vector<IChangeSkinEventListener *,std::allocator<IChangeSkinEventListener *> >::const_iterator::operator*
; Function compile flags: /Odt
_TEXT	ENDS
;	COMDAT ??8const_iterator@?$vector@PAVIChangeSkinEventListener@@V?$allocator@PAVIChangeSkinEventListener@@@std@@@std@@QBE_NABV012@@Z
_TEXT	SEGMENT
_this$ = -4						; size = 4
__Right$ = 8						; size = 4
??8const_iterator@?$vector@PAVIChangeSkinEventListener@@V?$allocator@PAVIChangeSkinEventListener@@@std@@@std@@QBE_NABV012@@Z PROC NEAR ; std::vector<IChangeSkinEventListener *,std::allocator<IChangeSkinEventListener *> >::const_iterator::operator==, COMDAT
; _this$ = ecx

; 152  : 			{	// test for iterator equality

  00000	55		 push	 ebp
  00001	8b ec		 mov	 ebp, esp
  00003	51		 push	 ecx
  00004	89 4d fc	 mov	 DWORD PTR _this$[ebp], ecx

; 153  : 
; 154  : 
; 155  : 			return (_Myptr == _Right._Myptr);

  00007	8b 45 fc	 mov	 eax, DWORD PTR _this$[ebp]
  0000a	8b 4d 08	 mov	 ecx, DWORD PTR __Right$[ebp]
  0000d	8b 00		 mov	 eax, DWORD PTR [eax]
  0000f	2b 01		 sub	 eax, DWORD PTR [ecx]
  00011	f7 d8		 neg	 eax
  00013	1b c0		 sbb	 eax, eax
  00015	40		 inc	 eax

; 156  : 			}

  00016	8b e5		 mov	 esp, ebp
  00018	5d		 pop	 ebp
  00019	c2 04 00	 ret	 4
??8const_iterator@?$vector@PAVIChangeSkinEventListener@@V?$allocator@PAVIChangeSkinEventListener@@@std@@@std@@QBE_NABV012@@Z ENDP ; std::vector<IChangeSkinEventListener *,std::allocator<IChangeSkinEventListener *> >::const_iterator::operator==
_TEXT	ENDS
PUBLIC	?allocate@?$allocator@V?$basic_string@DU?$char_traits@D@std@@V?$allocator@D@2@@std@@@std@@QAEPAV?$basic_string@DU?$char_traits@D@std@@V?$allocator@D@2@@2@I@Z ; std::allocator<std::basic_string<char,std::char_traits<char>,std::allocator<char> > >::allocate
PUBLIC	?max_size@?$vector@V?$basic_string@DU?$char_traits@D@std@@V?$allocator@D@2@@std@@V?$allocator@V?$basic_string@DU?$char_traits@D@std@@V?$allocator@D@2@@std@@@2@@std@@QBEIXZ ; std::vector<std::basic_string<char,std::char_traits<char>,std::allocator<char> >,std::allocator<std::basic_string<char,std::char_traits<char>,std::allocator<char> > > >::max_size
PUBLIC	?_Xlen@?$vector@V?$basic_string@DU?$char_traits@D@std@@V?$allocator@D@2@@std@@V?$allocator@V?$basic_string@DU?$char_traits@D@std@@V?$allocator@D@2@@std@@@2@@std@@IBEXXZ ; std::vector<std::basic_string<char,std::char_traits<char>,std::allocator<char> >,std::allocator<std::basic_string<char,std::char_traits<char>,std::allocator<char> > > >::_Xlen
; Function compile flags: /Odt
;	COMDAT ?_Buy@?$vector@V?$basic_string@DU?$char_traits@D@std@@V?$allocator@D@2@@std@@V?$allocator@V?$basic_string@DU?$char_traits@D@std@@V?$allocator@D@2@@std@@@2@@std@@IAE_NI@Z
_TEXT	SEGMENT
_this$ = -4						; size = 4
__Capacity$ = 8						; size = 4
?_Buy@?$vector@V?$basic_string@DU?$char_traits@D@std@@V?$allocator@D@2@@std@@V?$allocator@V?$basic_string@DU?$char_traits@D@std@@V?$allocator@D@2@@std@@@2@@std@@IAE_NI@Z PROC NEAR ; std::vector<std::basic_string<char,std::char_traits<char>,std::allocator<char> >,std::allocator<std::basic_string<char,std::char_traits<char>,std::allocator<char> > > >::_Buy, COMDAT
; _this$ = ecx

; 770  : 		{	// allocate array with _Capacity elements

  00000	55		 push	 ebp
  00001	8b ec		 mov	 ebp, esp
  00003	51		 push	 ecx
  00004	89 4d fc	 mov	 DWORD PTR _this$[ebp], ecx

; 771  : 		_Myfirst = 0, _Mylast = 0, _Myend = 0;

  00007	8b 45 fc	 mov	 eax, DWORD PTR _this$[ebp]
  0000a	c7 40 04 00 00
	00 00		 mov	 DWORD PTR [eax+4], 0
  00011	8b 4d fc	 mov	 ecx, DWORD PTR _this$[ebp]
  00014	c7 41 08 00 00
	00 00		 mov	 DWORD PTR [ecx+8], 0
  0001b	8b 55 fc	 mov	 edx, DWORD PTR _this$[ebp]
  0001e	c7 42 0c 00 00
	00 00		 mov	 DWORD PTR [edx+12], 0

; 772  : 		if (_Capacity == 0)

  00025	83 7d 08 00	 cmp	 DWORD PTR __Capacity$[ebp], 0
  00029	75 04		 jne	 SHORT $L203702

; 773  : 			return (false);

  0002b	32 c0		 xor	 al, al
  0002d	eb 49		 jmp	 SHORT $L203701
$L203702:

; 774  : 		else if (max_size() < _Capacity)

  0002f	8b 4d fc	 mov	 ecx, DWORD PTR _this$[ebp]
  00032	e8 00 00 00 00	 call	 ?max_size@?$vector@V?$basic_string@DU?$char_traits@D@std@@V?$allocator@D@2@@std@@V?$allocator@V?$basic_string@DU?$char_traits@D@std@@V?$allocator@D@2@@std@@@2@@std@@QBEIXZ ; std::vector<std::basic_string<char,std::char_traits<char>,std::allocator<char> >,std::allocator<std::basic_string<char,std::char_traits<char>,std::allocator<char> > > >::max_size
  00037	3b 45 08	 cmp	 eax, DWORD PTR __Capacity$[ebp]
  0003a	73 0a		 jae	 SHORT $L203704

; 775  : 			_Xlen();	// result too long

  0003c	8b 4d fc	 mov	 ecx, DWORD PTR _this$[ebp]
  0003f	e8 00 00 00 00	 call	 ?_Xlen@?$vector@V?$basic_string@DU?$char_traits@D@std@@V?$allocator@D@2@@std@@V?$allocator@V?$basic_string@DU?$char_traits@D@std@@V?$allocator@D@2@@std@@@2@@std@@IBEXXZ ; std::vector<std::basic_string<char,std::char_traits<char>,std::allocator<char> >,std::allocator<std::basic_string<char,std::char_traits<char>,std::allocator<char> > > >::_Xlen

; 776  : 		else

  00044	eb 30		 jmp	 SHORT $L203703
$L203704:

; 777  : 			{	// nonempty array, allocate storage
; 778  : 			_Myfirst = this->_Alval.allocate(_Capacity);

  00046	8b 45 08	 mov	 eax, DWORD PTR __Capacity$[ebp]
  00049	50		 push	 eax
  0004a	8b 4d fc	 mov	 ecx, DWORD PTR _this$[ebp]
  0004d	e8 00 00 00 00	 call	 ?allocate@?$allocator@V?$basic_string@DU?$char_traits@D@std@@V?$allocator@D@2@@std@@@std@@QAEPAV?$basic_string@DU?$char_traits@D@std@@V?$allocator@D@2@@2@I@Z ; std::allocator<std::basic_string<char,std::char_traits<char>,std::allocator<char> > >::allocate
  00052	8b 4d fc	 mov	 ecx, DWORD PTR _this$[ebp]
  00055	89 41 04	 mov	 DWORD PTR [ecx+4], eax

; 779  : 			_Mylast = _Myfirst;

  00058	8b 55 fc	 mov	 edx, DWORD PTR _this$[ebp]
  0005b	8b 45 fc	 mov	 eax, DWORD PTR _this$[ebp]
  0005e	8b 48 04	 mov	 ecx, DWORD PTR [eax+4]
  00061	89 4a 08	 mov	 DWORD PTR [edx+8], ecx

; 780  : 			_Myend = _Myfirst + _Capacity;

  00064	8b 55 08	 mov	 edx, DWORD PTR __Capacity$[ebp]
  00067	6b d2 1c	 imul	 edx, 28			; 0000001cH
  0006a	8b 45 fc	 mov	 eax, DWORD PTR _this$[ebp]
  0006d	03 50 04	 add	 edx, DWORD PTR [eax+4]
  00070	8b 4d fc	 mov	 ecx, DWORD PTR _this$[ebp]
  00073	89 51 0c	 mov	 DWORD PTR [ecx+12], edx
$L203703:

; 781  : 			}
; 782  : 		return (true);

  00076	b0 01		 mov	 al, 1
$L203701:

; 783  : 		}

  00078	8b e5		 mov	 esp, ebp
  0007a	5d		 pop	 ebp
  0007b	c2 04 00	 ret	 4
?_Buy@?$vector@V?$basic_string@DU?$char_traits@D@std@@V?$allocator@D@2@@std@@V?$allocator@V?$basic_string@DU?$char_traits@D@std@@V?$allocator@D@2@@std@@@2@@std@@IAE_NI@Z ENDP ; std::vector<std::basic_string<char,std::char_traits<char>,std::allocator<char> >,std::allocator<std::basic_string<char,std::char_traits<char>,std::allocator<char> > > >::_Buy
_TEXT	ENDS
PUBLIC	?deallocate@?$allocator@V?$basic_string@DU?$char_traits@D@std@@V?$allocator@D@2@@std@@@std@@QAEXPAV?$basic_string@DU?$char_traits@D@std@@V?$allocator@D@2@@2@I@Z ; std::allocator<std::basic_string<char,std::char_traits<char>,std::allocator<char> > >::deallocate
PUBLIC	?_Destroy@?$vector@V?$basic_string@DU?$char_traits@D@std@@V?$allocator@D@2@@std@@V?$allocator@V?$basic_string@DU?$char_traits@D@std@@V?$allocator@D@2@@std@@@2@@std@@IAEXPAV?$basic_string@DU?$char_traits@D@std@@V?$allocator@D@2@@2@0@Z ; std::vector<std::basic_string<char,std::char_traits<char>,std::allocator<char> >,std::allocator<std::basic_string<char,std::char_traits<char>,std::allocator<char> > > >::_Destroy
; Function compile flags: /Odt
;	COMDAT ?_Tidy@?$vector@V?$basic_string@DU?$char_traits@D@std@@V?$allocator@D@2@@std@@V?$allocator@V?$basic_string@DU?$char_traits@D@std@@V?$allocator@D@2@@std@@@2@@std@@IAEXXZ
_TEXT	SEGMENT
_this$ = -4						; size = 4
?_Tidy@?$vector@V?$basic_string@DU?$char_traits@D@std@@V?$allocator@D@2@@std@@V?$allocator@V?$basic_string@DU?$char_traits@D@std@@V?$allocator@D@2@@std@@@2@@std@@IAEXXZ PROC NEAR ; std::vector<std::basic_string<char,std::char_traits<char>,std::allocator<char> >,std::allocator<std::basic_string<char,std::char_traits<char>,std::allocator<char> > > >::_Tidy, COMDAT
; _this$ = ecx

; 791  : 		{	// free all storage

  00000	55		 push	 ebp
  00001	8b ec		 mov	 ebp, esp
  00003	51		 push	 ecx
  00004	89 4d fc	 mov	 DWORD PTR _this$[ebp], ecx

; 792  : 		if (_Myfirst != 0)

  00007	8b 45 fc	 mov	 eax, DWORD PTR _this$[ebp]
  0000a	83 78 04 00	 cmp	 DWORD PTR [eax+4], 0
  0000e	74 3c		 je	 SHORT $L203708

; 793  : 			{	// something to free, destroy and deallocate it
; 794  : 			_Destroy(_Myfirst, _Mylast);

  00010	8b 4d fc	 mov	 ecx, DWORD PTR _this$[ebp]
  00013	8b 51 08	 mov	 edx, DWORD PTR [ecx+8]
  00016	52		 push	 edx
  00017	8b 45 fc	 mov	 eax, DWORD PTR _this$[ebp]
  0001a	8b 48 04	 mov	 ecx, DWORD PTR [eax+4]
  0001d	51		 push	 ecx
  0001e	8b 4d fc	 mov	 ecx, DWORD PTR _this$[ebp]
  00021	e8 00 00 00 00	 call	 ?_Destroy@?$vector@V?$basic_string@DU?$char_traits@D@std@@V?$allocator@D@2@@std@@V?$allocator@V?$basic_string@DU?$char_traits@D@std@@V?$allocator@D@2@@std@@@2@@std@@IAEXPAV?$basic_string@DU?$char_traits@D@std@@V?$allocator@D@2@@2@0@Z ; std::vector<std::basic_string<char,std::char_traits<char>,std::allocator<char> >,std::allocator<std::basic_string<char,std::char_traits<char>,std::allocator<char> > > >::_Destroy

; 795  : 			this->_Alval.deallocate(_Myfirst, _Myend - _Myfirst);

  00026	8b 55 fc	 mov	 edx, DWORD PTR _this$[ebp]
  00029	8b 45 fc	 mov	 eax, DWORD PTR _this$[ebp]
  0002c	8b 4a 0c	 mov	 ecx, DWORD PTR [edx+12]
  0002f	2b 48 04	 sub	 ecx, DWORD PTR [eax+4]
  00032	8b c1		 mov	 eax, ecx
  00034	99		 cdq
  00035	b9 1c 00 00 00	 mov	 ecx, 28			; 0000001cH
  0003a	f7 f9		 idiv	 ecx
  0003c	50		 push	 eax
  0003d	8b 55 fc	 mov	 edx, DWORD PTR _this$[ebp]
  00040	8b 42 04	 mov	 eax, DWORD PTR [edx+4]
  00043	50		 push	 eax
  00044	8b 4d fc	 mov	 ecx, DWORD PTR _this$[ebp]
  00047	e8 00 00 00 00	 call	 ?deallocate@?$allocator@V?$basic_string@DU?$char_traits@D@std@@V?$allocator@D@2@@std@@@std@@QAEXPAV?$basic_string@DU?$char_traits@D@std@@V?$allocator@D@2@@2@I@Z ; std::allocator<std::basic_string<char,std::char_traits<char>,std::allocator<char> > >::deallocate
$L203708:

; 796  : 			}
; 797  : 		_Myfirst = 0, _Mylast = 0, _Myend = 0;

  0004c	8b 4d fc	 mov	 ecx, DWORD PTR _this$[ebp]
  0004f	c7 41 04 00 00
	00 00		 mov	 DWORD PTR [ecx+4], 0
  00056	8b 55 fc	 mov	 edx, DWORD PTR _this$[ebp]
  00059	c7 42 08 00 00
	00 00		 mov	 DWORD PTR [edx+8], 0
  00060	8b 45 fc	 mov	 eax, DWORD PTR _this$[ebp]
  00063	c7 40 0c 00 00
	00 00		 mov	 DWORD PTR [eax+12], 0

; 798  : 		}

  0006a	8b e5		 mov	 esp, ebp
  0006c	5d		 pop	 ebp
  0006d	c3		 ret	 0
?_Tidy@?$vector@V?$basic_string@DU?$char_traits@D@std@@V?$allocator@D@2@@std@@V?$allocator@V?$basic_string@DU?$char_traits@D@std@@V?$allocator@D@2@@std@@@2@@std@@IAEXXZ ENDP ; std::vector<std::basic_string<char,std::char_traits<char>,std::allocator<char> >,std::allocator<std::basic_string<char,std::char_traits<char>,std::allocator<char> > > >::_Tidy
_TEXT	ENDS
PUBLIC	??0?$allocator@V?$basic_string@DU?$char_traits@D@std@@V?$allocator@D@2@@std@@@std@@QAE@ABV01@@Z ; std::allocator<std::basic_string<char,std::char_traits<char>,std::allocator<char> > >::allocator<std::basic_string<char,std::char_traits<char>,std::allocator<char> > >
; Function compile flags: /Odt
;	COMDAT ??0?$_Vector_val@V?$basic_string@DU?$char_traits@D@std@@V?$allocator@D@2@@std@@V?$allocator@V?$basic_string@DU?$char_traits@D@std@@V?$allocator@D@2@@std@@@2@@std@@IAE@V?$allocator@V?$basic_string@DU?$char_traits@D@std@@V?$allocator@D@2@@std@@@1@@Z
_TEXT	SEGMENT
_this$ = -4						; size = 4
__Al$ = 8						; size = 1
??0?$_Vector_val@V?$basic_string@DU?$char_traits@D@std@@V?$allocator@D@2@@std@@V?$allocator@V?$basic_string@DU?$char_traits@D@std@@V?$allocator@D@2@@std@@@2@@std@@IAE@V?$allocator@V?$basic_string@DU?$char_traits@D@std@@V?$allocator@D@2@@std@@@1@@Z PROC NEAR ; std::_Vector_val<std::basic_string<char,std::char_traits<char>,std::allocator<char> >,std::allocator<std::basic_string<char,std::char_traits<char>,std::allocator<char> > > >::_Vector_val<std::basic_string<char,std::char_traits<char>,std::allocator<char> >,std::allocator<std::basic_string<char,std::char_traits<char>,std::allocator<char> > > >, COMDAT
; _this$ = ecx

; 21   : 		{	// construct allocator from _Al

  00000	55		 push	 ebp
  00001	8b ec		 mov	 ebp, esp
  00003	51		 push	 ecx
  00004	89 4d fc	 mov	 DWORD PTR _this$[ebp], ecx
  00007	8d 45 08	 lea	 eax, DWORD PTR __Al$[ebp]
  0000a	50		 push	 eax
  0000b	8b 4d fc	 mov	 ecx, DWORD PTR _this$[ebp]
  0000e	e8 00 00 00 00	 call	 ??0?$allocator@V?$basic_string@DU?$char_traits@D@std@@V?$allocator@D@2@@std@@@std@@QAE@ABV01@@Z ; std::allocator<std::basic_string<char,std::char_traits<char>,std::allocator<char> > >::allocator<std::basic_string<char,std::char_traits<char>,std::allocator<char> > >

; 22   : 		}

  00013	8b 45 fc	 mov	 eax, DWORD PTR _this$[ebp]
  00016	8b e5		 mov	 esp, ebp
  00018	5d		 pop	 ebp
  00019	c2 04 00	 ret	 4
??0?$_Vector_val@V?$basic_string@DU?$char_traits@D@std@@V?$allocator@D@2@@std@@V?$allocator@V?$basic_string@DU?$char_traits@D@std@@V?$allocator@D@2@@std@@@2@@std@@IAE@V?$allocator@V?$basic_string@DU?$char_traits@D@std@@V?$allocator@D@2@@std@@@1@@Z ENDP ; std::_Vector_val<std::basic_string<char,std::char_traits<char>,std::allocator<char> >,std::allocator<std::basic_string<char,std::char_traits<char>,std::allocator<char> > > >::_Vector_val<std::basic_string<char,std::char_traits<char>,std::allocator<char> >,std::allocator<std::basic_string<char,std::char_traits<char>,std::allocator<char> > > >
_TEXT	ENDS
PUBLIC	??Dconst_iterator@?$vector@UOneSubject@@V?$allocator@UOneSubject@@@std@@@std@@QBEABUOneSubject@@XZ ; std::vector<OneSubject,std::allocator<OneSubject> >::const_iterator::operator*
; Function compile flags: /Odt
;	COMDAT ??Diterator@?$vector@UOneSubject@@V?$allocator@UOneSubject@@@std@@@std@@QBEAAUOneSubject@@XZ
_TEXT	SEGMENT
_this$ = -4						; size = 4
??Diterator@?$vector@UOneSubject@@V?$allocator@UOneSubject@@@std@@@std@@QBEAAUOneSubject@@XZ PROC NEAR ; std::vector<OneSubject,std::allocator<OneSubject> >::iterator::operator*, COMDAT
; _this$ = ecx

; 219  : 			{	// return designated object

  00000	55		 push	 ebp
  00001	8b ec		 mov	 ebp, esp
  00003	51		 push	 ecx
  00004	89 4d fc	 mov	 DWORD PTR _this$[ebp], ecx

; 220  : 			return ((reference)**(const_iterator *)this);

  00007	8b 4d fc	 mov	 ecx, DWORD PTR _this$[ebp]
  0000a	e8 00 00 00 00	 call	 ??Dconst_iterator@?$vector@UOneSubject@@V?$allocator@UOneSubject@@@std@@@std@@QBEABUOneSubject@@XZ ; std::vector<OneSubject,std::allocator<OneSubject> >::const_iterator::operator*

; 221  : 			}

  0000f	8b e5		 mov	 esp, ebp
  00011	5d		 pop	 ebp
  00012	c3		 ret	 0
??Diterator@?$vector@UOneSubject@@V?$allocator@UOneSubject@@@std@@@std@@QBEAAUOneSubject@@XZ ENDP ; std::vector<OneSubject,std::allocator<OneSubject> >::iterator::operator*
_TEXT	ENDS
PUBLIC	??Yiterator@?$vector@UOneSubject@@V?$allocator@UOneSubject@@@std@@@std@@QAEAAV012@H@Z ; std::vector<OneSubject,std::allocator<OneSubject> >::iterator::operator+=
; Function compile flags: /Odt
;	COMDAT ??Hiterator@?$vector@UOneSubject@@V?$allocator@UOneSubject@@@std@@@std@@QBE?AV012@H@Z
_TEXT	SEGMENT
_this$ = -8						; size = 4
__Tmp$ = -4						; size = 4
___$ReturnUdt$ = 8					; size = 4
__Off$ = 12						; size = 4
??Hiterator@?$vector@UOneSubject@@V?$allocator@UOneSubject@@@std@@@std@@QBE?AV012@H@Z PROC NEAR ; std::vector<OneSubject,std::allocator<OneSubject> >::iterator::operator+, COMDAT
; _this$ = ecx

; 261  : 			{	// return this + integer

  00000	55		 push	 ebp
  00001	8b ec		 mov	 ebp, esp
  00003	83 ec 08	 sub	 esp, 8
  00006	89 4d f8	 mov	 DWORD PTR _this$[ebp], ecx

; 262  : 			iterator _Tmp = *this;

  00009	8b 45 f8	 mov	 eax, DWORD PTR _this$[ebp]
  0000c	8b 08		 mov	 ecx, DWORD PTR [eax]
  0000e	89 4d fc	 mov	 DWORD PTR __Tmp$[ebp], ecx

; 263  : 			return (_Tmp += _Off);

  00011	8b 55 0c	 mov	 edx, DWORD PTR __Off$[ebp]
  00014	52		 push	 edx
  00015	8d 4d fc	 lea	 ecx, DWORD PTR __Tmp$[ebp]
  00018	e8 00 00 00 00	 call	 ??Yiterator@?$vector@UOneSubject@@V?$allocator@UOneSubject@@@std@@@std@@QAEAAV012@H@Z ; std::vector<OneSubject,std::allocator<OneSubject> >::iterator::operator+=
  0001d	8b 00		 mov	 eax, DWORD PTR [eax]
  0001f	8b 4d 08	 mov	 ecx, DWORD PTR ___$ReturnUdt$[ebp]
  00022	89 01		 mov	 DWORD PTR [ecx], eax
  00024	8b 45 08	 mov	 eax, DWORD PTR ___$ReturnUdt$[ebp]

; 264  : 			}

  00027	8b e5		 mov	 esp, ebp
  00029	5d		 pop	 ebp
  0002a	c2 08 00	 ret	 8
??Hiterator@?$vector@UOneSubject@@V?$allocator@UOneSubject@@@std@@@std@@QBE?AV012@H@Z ENDP ; std::vector<OneSubject,std::allocator<OneSubject> >::iterator::operator+
; Function compile flags: /Odt
; File d:\program files (x86)\microsoft visual studio .net 2003\vc7\include\xmemory
_TEXT	ENDS
;	COMDAT ??0?$allocator@V?$basic_string@DU?$char_traits@D@std@@V?$allocator@D@2@@std@@@std@@QAE@ABV01@@Z
_TEXT	SEGMENT
_this$ = -4						; size = 4
___formal$ = 8						; size = 4
??0?$allocator@V?$basic_string@DU?$char_traits@D@std@@V?$allocator@D@2@@std@@@std@@QAE@ABV01@@Z PROC NEAR ; std::allocator<std::basic_string<char,std::char_traits<char>,std::allocator<char> > >::allocator<std::basic_string<char,std::char_traits<char>,std::allocator<char> > >, COMDAT
; _this$ = ecx

; 115  : 	allocator(const allocator<_Ty>&)

  00000	55		 push	 ebp
  00001	8b ec		 mov	 ebp, esp
  00003	51		 push	 ecx
  00004	89 4d fc	 mov	 DWORD PTR _this$[ebp], ecx

; 116  : 		{	// construct by copying (do nothing)
; 117  : 		}

  00007	8b 45 fc	 mov	 eax, DWORD PTR _this$[ebp]
  0000a	8b e5		 mov	 esp, ebp
  0000c	5d		 pop	 ebp
  0000d	c2 04 00	 ret	 4
??0?$allocator@V?$basic_string@DU?$char_traits@D@std@@V?$allocator@D@2@@std@@@std@@QAE@ABV01@@Z ENDP ; std::allocator<std::basic_string<char,std::char_traits<char>,std::allocator<char> > >::allocator<std::basic_string<char,std::char_traits<char>,std::allocator<char> > >
; Function compile flags: /Odt
_TEXT	ENDS
;	COMDAT ?deallocate@?$allocator@V?$basic_string@DU?$char_traits@D@std@@V?$allocator@D@2@@std@@@std@@QAEXPAV?$basic_string@DU?$char_traits@D@std@@V?$allocator@D@2@@2@I@Z
_TEXT	SEGMENT
_this$ = -4						; size = 4
__Ptr$ = 8						; size = 4
___formal$ = 12						; size = 4
?deallocate@?$allocator@V?$basic_string@DU?$char_traits@D@std@@V?$allocator@D@2@@std@@@std@@QAEXPAV?$basic_string@DU?$char_traits@D@std@@V?$allocator@D@2@@2@I@Z PROC NEAR ; std::allocator<std::basic_string<char,std::char_traits<char>,std::allocator<char> > >::deallocate, COMDAT
; _this$ = ecx

; 131  : 		{	// deallocate object at _Ptr, ignore size

  00000	55		 push	 ebp
  00001	8b ec		 mov	 ebp, esp
  00003	51		 push	 ecx
  00004	89 4d fc	 mov	 DWORD PTR _this$[ebp], ecx

; 132  : 		operator delete(_Ptr);

  00007	8b 45 08	 mov	 eax, DWORD PTR __Ptr$[ebp]
  0000a	50		 push	 eax
  0000b	e8 00 00 00 00	 call	 ??3@YAXPAX@Z		; operator delete
  00010	83 c4 04	 add	 esp, 4

; 133  : 		}

  00013	8b e5		 mov	 esp, ebp
  00015	5d		 pop	 ebp
  00016	c2 08 00	 ret	 8
?deallocate@?$allocator@V?$basic_string@DU?$char_traits@D@std@@V?$allocator@D@2@@std@@@std@@QAEXPAV?$basic_string@DU?$char_traits@D@std@@V?$allocator@D@2@@2@I@Z ENDP ; std::allocator<std::basic_string<char,std::char_traits<char>,std::allocator<char> > >::deallocate
_TEXT	ENDS
PUBLIC	??$_Allocate@V?$basic_string@DU?$char_traits@D@std@@V?$allocator@D@2@@std@@@std@@YAPAV?$basic_string@DU?$char_traits@D@std@@V?$allocator@D@2@@0@IPAV10@@Z ; std::_Allocate<std::basic_string<char,std::char_traits<char>,std::allocator<char> > >
; Function compile flags: /Odt
;	COMDAT ?allocate@?$allocator@V?$basic_string@DU?$char_traits@D@std@@V?$allocator@D@2@@std@@@std@@QAEPAV?$basic_string@DU?$char_traits@D@std@@V?$allocator@D@2@@2@I@Z
_TEXT	SEGMENT
_this$ = -4						; size = 4
__Count$ = 8						; size = 4
?allocate@?$allocator@V?$basic_string@DU?$char_traits@D@std@@V?$allocator@D@2@@std@@@std@@QAEPAV?$basic_string@DU?$char_traits@D@std@@V?$allocator@D@2@@2@I@Z PROC NEAR ; std::allocator<std::basic_string<char,std::char_traits<char>,std::allocator<char> > >::allocate, COMDAT
; _this$ = ecx

; 136  : 		{	// allocate array of _Count elements

  00000	55		 push	 ebp
  00001	8b ec		 mov	 ebp, esp
  00003	51		 push	 ecx
  00004	89 4d fc	 mov	 DWORD PTR _this$[ebp], ecx

; 137  : 		return (_Allocate(_Count, (pointer)0));

  00007	6a 00		 push	 0
  00009	8b 45 08	 mov	 eax, DWORD PTR __Count$[ebp]
  0000c	50		 push	 eax
  0000d	e8 00 00 00 00	 call	 ??$_Allocate@V?$basic_string@DU?$char_traits@D@std@@V?$allocator@D@2@@std@@@std@@YAPAV?$basic_string@DU?$char_traits@D@std@@V?$allocator@D@2@@0@IPAV10@@Z ; std::_Allocate<std::basic_string<char,std::char_traits<char>,std::allocator<char> > >
  00012	83 c4 08	 add	 esp, 8

; 138  : 		}

  00015	8b e5		 mov	 esp, ebp
  00017	5d		 pop	 ebp
  00018	c2 04 00	 ret	 4
?allocate@?$allocator@V?$basic_string@DU?$char_traits@D@std@@V?$allocator@D@2@@std@@@std@@QAEPAV?$basic_string@DU?$char_traits@D@std@@V?$allocator@D@2@@2@I@Z ENDP ; std::allocator<std::basic_string<char,std::char_traits<char>,std::allocator<char> > >::allocate
_TEXT	ENDS
PUBLIC	?max_size@?$allocator@PAVIChangeSkinEventListener@@@std@@QBEIXZ ; std::allocator<IChangeSkinEventListener *>::max_size
; Function compile flags: /Odt
; File d:\program files (x86)\microsoft visual studio .net 2003\vc7\include\vector
;	COMDAT ?max_size@?$vector@PAVIChangeSkinEventListener@@V?$allocator@PAVIChangeSkinEventListener@@@std@@@std@@QBEIXZ
_TEXT	SEGMENT
_this$ = -4						; size = 4
?max_size@?$vector@PAVIChangeSkinEventListener@@V?$allocator@PAVIChangeSkinEventListener@@@std@@@std@@QBEIXZ PROC NEAR ; std::vector<IChangeSkinEventListener *,std::allocator<IChangeSkinEventListener *> >::max_size, COMDAT
; _this$ = ecx

; 520  : 		{	// return maximum possible length of sequence

  00000	55		 push	 ebp
  00001	8b ec		 mov	 ebp, esp
  00003	51		 push	 ecx
  00004	89 4d fc	 mov	 DWORD PTR _this$[ebp], ecx

; 521  : 		return (this->_Alval.max_size());

  00007	8b 4d fc	 mov	 ecx, DWORD PTR _this$[ebp]
  0000a	e8 00 00 00 00	 call	 ?max_size@?$allocator@PAVIChangeSkinEventListener@@@std@@QBEIXZ ; std::allocator<IChangeSkinEventListener *>::max_size

; 522  : 		}

  0000f	8b e5		 mov	 esp, ebp
  00011	5d		 pop	 ebp
  00012	c3		 ret	 0
?max_size@?$vector@PAVIChangeSkinEventListener@@V?$allocator@PAVIChangeSkinEventListener@@@std@@@std@@QBEIXZ ENDP ; std::vector<IChangeSkinEventListener *,std::allocator<IChangeSkinEventListener *> >::max_size
_TEXT	ENDS
PUBLIC	??$_Ucopy@PAPAVIChangeSkinEventListener@@@?$vector@PAVIChangeSkinEventListener@@V?$allocator@PAVIChangeSkinEventListener@@@std@@@std@@IAEPAPAVIChangeSkinEventListener@@PAPAV2@00@Z ; std::vector<IChangeSkinEventListener *,std::allocator<IChangeSkinEventListener *> >::_Ucopy<IChangeSkinEventListener * *>
PUBLIC	??$fill@PAPAVIChangeSkinEventListener@@PAV1@@std@@YAXPAPAVIChangeSkinEventListener@@0ABQAV1@@Z ; std::fill<IChangeSkinEventListener * *,IChangeSkinEventListener *>
PUBLIC	??$copy_backward@PAPAVIChangeSkinEventListener@@PAPAV1@@std@@YAPAPAVIChangeSkinEventListener@@PAPAV1@00@Z ; std::copy_backward<IChangeSkinEventListener * *,IChangeSkinEventListener * *>
EXTRN	__CxxThrowException@8:NEAR
;	COMDAT xdata$x
xdata$x	SEGMENT
$T205764 DD	0ffffffffH
	DD	00H
	DD	0ffffffffH
	DD	00H
	DD	0ffffffffH
	DD	00H
	DD	0ffffffffH
	DD	00H
$T205766 DD	00H
	DD	00H
	DD	00H
	DD	FLAT:$L205758
$T205767 DD	00H
	DD	00H
	DD	00H
	DD	FLAT:$L205760
$T205765 DD	00H
	DD	00H
	DD	01H
	DD	01H
	DD	FLAT:$T205766
	DD	02H
	DD	02H
	DD	03H
	DD	01H
	DD	FLAT:$T205767
$T205762 DD	019930520H
	DD	04H
	DD	FLAT:$T205764
	DD	02H
	DD	FLAT:$T205765
	DD	2 DUP(00H)
; Function compile flags: /Odt
xdata$x	ENDS
;	COMDAT ?_Insert_n@?$vector@PAVIChangeSkinEventListener@@V?$allocator@PAVIChangeSkinEventListener@@@std@@@std@@IAEXViterator@12@IABQAVIChangeSkinEventListener@@@Z
_TEXT	SEGMENT
tv240 = -52						; size = 4
tv239 = -48						; size = 4
tv85 = -44						; size = 4
_this$ = -40						; size = 4
__Oldend$203815 = -36					; size = 4
__Newvec$203794 = -32					; size = 4
__Ptr$203795 = -28					; size = 4
__Capacity$ = -24					; size = 4
__Tmp$ = -20						; size = 4
__$EHRec$ = -16						; size = 16
__Where$ = 8						; size = 4
__Count$ = 12						; size = 4
__Val$ = 16						; size = 4
?_Insert_n@?$vector@PAVIChangeSkinEventListener@@V?$allocator@PAVIChangeSkinEventListener@@@std@@@std@@IAEXViterator@12@IABQAVIChangeSkinEventListener@@@Z PROC NEAR ; std::vector<IChangeSkinEventListener *,std::allocator<IChangeSkinEventListener *> >::_Insert_n, COMDAT
; _this$ = ecx

; 809  : 		{	// insert _Count * _Val at _Where

  00000	55		 push	 ebp
  00001	8b ec		 mov	 ebp, esp
  00003	6a ff		 push	 -1
  00005	68 00 00 00 00	 push	 __ehhandler$?_Insert_n@?$vector@PAVIChangeSkinEventListener@@V?$allocator@PAVIChangeSkinEventListener@@@std@@@std@@IAEXViterator@12@IABQAVIChangeSkinEventListener@@@Z
  0000a	64 a1 00 00 00
	00		 mov	 eax, DWORD PTR fs:__except_list
  00010	50		 push	 eax
  00011	64 89 25 00 00
	00 00		 mov	 DWORD PTR fs:__except_list, esp
  00018	51		 push	 ecx
  00019	83 ec 24	 sub	 esp, 36			; 00000024H
  0001c	53		 push	 ebx
  0001d	56		 push	 esi
  0001e	57		 push	 edi
  0001f	89 65 f0	 mov	 DWORD PTR __$EHRec$[ebp], esp
  00022	89 4d d8	 mov	 DWORD PTR _this$[ebp], ecx

; 810  : 		_Ty _Tmp = _Val;	// in case _Val is in sequence

  00025	8b 45 10	 mov	 eax, DWORD PTR __Val$[ebp]
  00028	8b 08		 mov	 ecx, DWORD PTR [eax]
  0002a	89 4d ec	 mov	 DWORD PTR __Tmp$[ebp], ecx

; 811  : 		size_type _Capacity = capacity();

  0002d	8b 4d d8	 mov	 ecx, DWORD PTR _this$[ebp]
  00030	e8 00 00 00 00	 call	 ?capacity@?$vector@PAVIChangeSkinEventListener@@V?$allocator@PAVIChangeSkinEventListener@@@std@@@std@@QBEIXZ ; std::vector<IChangeSkinEventListener *,std::allocator<IChangeSkinEventListener *> >::capacity
  00035	89 45 e8	 mov	 DWORD PTR __Capacity$[ebp], eax

; 812  : 
; 813  : 		if (_Count == 0)

  00038	83 7d 0c 00	 cmp	 DWORD PTR __Count$[ebp], 0
  0003c	75 05		 jne	 SHORT $L203788

; 814  : 			;
; 815  : 		else if (max_size() - size() < _Count)

  0003e	e9 c6 02 00 00	 jmp	 $L205753
$L203788:
  00043	8b 4d d8	 mov	 ecx, DWORD PTR _this$[ebp]
  00046	e8 00 00 00 00	 call	 ?size@?$vector@PAVIChangeSkinEventListener@@V?$allocator@PAVIChangeSkinEventListener@@@std@@@std@@QBEIXZ ; std::vector<IChangeSkinEventListener *,std::allocator<IChangeSkinEventListener *> >::size
  0004b	8b f0		 mov	 esi, eax
  0004d	8b 4d d8	 mov	 ecx, DWORD PTR _this$[ebp]
  00050	e8 00 00 00 00	 call	 ?max_size@?$vector@PAVIChangeSkinEventListener@@V?$allocator@PAVIChangeSkinEventListener@@@std@@@std@@QBEIXZ ; std::vector<IChangeSkinEventListener *,std::allocator<IChangeSkinEventListener *> >::max_size
  00055	2b c6		 sub	 eax, esi
  00057	3b 45 0c	 cmp	 eax, DWORD PTR __Count$[ebp]
  0005a	73 0d		 jae	 SHORT $L203790

; 816  : 			_Xlen();	// result too long

  0005c	8b 4d d8	 mov	 ecx, DWORD PTR _this$[ebp]
  0005f	e8 00 00 00 00	 call	 ?_Xlen@?$vector@PAVIChangeSkinEventListener@@V?$allocator@PAVIChangeSkinEventListener@@@std@@@std@@IBEXXZ ; std::vector<IChangeSkinEventListener *,std::allocator<IChangeSkinEventListener *> >::_Xlen

; 817  : 		else if (_Capacity < size() + _Count)

  00064	e9 a0 02 00 00	 jmp	 $L205753
$L203790:
  00069	8b 4d d8	 mov	 ecx, DWORD PTR _this$[ebp]
  0006c	e8 00 00 00 00	 call	 ?size@?$vector@PAVIChangeSkinEventListener@@V?$allocator@PAVIChangeSkinEventListener@@@std@@@std@@QBEIXZ ; std::vector<IChangeSkinEventListener *,std::allocator<IChangeSkinEventListener *> >::size
  00071	03 45 0c	 add	 eax, DWORD PTR __Count$[ebp]
  00074	39 45 e8	 cmp	 DWORD PTR __Capacity$[ebp], eax
  00077	0f 83 66 01 00
	00		 jae	 $L203792

; 818  : 			{	// not enough room, reallocate
; 819  : 			_Capacity = max_size() - _Capacity / 2 < _Capacity
; 820  : 				? 0 : _Capacity + _Capacity / 2;	// try to grow by 50%

  0007d	8b 75 e8	 mov	 esi, DWORD PTR __Capacity$[ebp]
  00080	d1 ee		 shr	 esi, 1
  00082	8b 4d d8	 mov	 ecx, DWORD PTR _this$[ebp]
  00085	e8 00 00 00 00	 call	 ?max_size@?$vector@PAVIChangeSkinEventListener@@V?$allocator@PAVIChangeSkinEventListener@@@std@@@std@@QBEIXZ ; std::vector<IChangeSkinEventListener *,std::allocator<IChangeSkinEventListener *> >::max_size
  0008a	2b c6		 sub	 eax, esi
  0008c	3b 45 e8	 cmp	 eax, DWORD PTR __Capacity$[ebp]
  0008f	73 09		 jae	 SHORT $L205754
  00091	c7 45 d4 00 00
	00 00		 mov	 DWORD PTR tv85[ebp], 0
  00098	eb 0b		 jmp	 SHORT $L205755
$L205754:
  0009a	8b 55 e8	 mov	 edx, DWORD PTR __Capacity$[ebp]
  0009d	d1 ea		 shr	 edx, 1
  0009f	03 55 e8	 add	 edx, DWORD PTR __Capacity$[ebp]
  000a2	89 55 d4	 mov	 DWORD PTR tv85[ebp], edx
$L205755:
  000a5	8b 45 d4	 mov	 eax, DWORD PTR tv85[ebp]
  000a8	89 45 e8	 mov	 DWORD PTR __Capacity$[ebp], eax

; 821  : 			if (_Capacity < size() + _Count)

  000ab	8b 4d d8	 mov	 ecx, DWORD PTR _this$[ebp]
  000ae	e8 00 00 00 00	 call	 ?size@?$vector@PAVIChangeSkinEventListener@@V?$allocator@PAVIChangeSkinEventListener@@@std@@@std@@QBEIXZ ; std::vector<IChangeSkinEventListener *,std::allocator<IChangeSkinEventListener *> >::size
  000b3	03 45 0c	 add	 eax, DWORD PTR __Count$[ebp]
  000b6	39 45 e8	 cmp	 DWORD PTR __Capacity$[ebp], eax
  000b9	73 0e		 jae	 SHORT $L203793

; 822  : 				_Capacity = size() + _Count;

  000bb	8b 4d d8	 mov	 ecx, DWORD PTR _this$[ebp]
  000be	e8 00 00 00 00	 call	 ?size@?$vector@PAVIChangeSkinEventListener@@V?$allocator@PAVIChangeSkinEventListener@@@std@@@std@@QBEIXZ ; std::vector<IChangeSkinEventListener *,std::allocator<IChangeSkinEventListener *> >::size
  000c3	03 45 0c	 add	 eax, DWORD PTR __Count$[ebp]
  000c6	89 45 e8	 mov	 DWORD PTR __Capacity$[ebp], eax
$L203793:

; 823  : 			pointer _Newvec = this->_Alval.allocate(_Capacity);

  000c9	8b 4d e8	 mov	 ecx, DWORD PTR __Capacity$[ebp]
  000cc	51		 push	 ecx
  000cd	8b 4d d8	 mov	 ecx, DWORD PTR _this$[ebp]
  000d0	e8 00 00 00 00	 call	 ?allocate@?$allocator@PAVIChangeSkinEventListener@@@std@@QAEPAPAVIChangeSkinEventListener@@I@Z ; std::allocator<IChangeSkinEventListener *>::allocate
  000d5	89 45 e0	 mov	 DWORD PTR __Newvec$203794[ebp], eax

; 824  : 			pointer _Ptr = _Newvec;

  000d8	8b 55 e0	 mov	 edx, DWORD PTR __Newvec$203794[ebp]
  000db	89 55 e4	 mov	 DWORD PTR __Ptr$203795[ebp], edx

; 825  : 
; 826  : 			_TRY_BEGIN

  000de	c7 45 fc 00 00
	00 00		 mov	 DWORD PTR __$EHRec$[ebp+12], 0

; 827  : 			_Ptr = _Ucopy(_Myfirst, _ITER_BASE(_Where),
; 828  : 				_Newvec);	// copy prefix

  000e5	8b 45 e0	 mov	 eax, DWORD PTR __Newvec$203794[ebp]
  000e8	50		 push	 eax
  000e9	8b 4d 08	 mov	 ecx, DWORD PTR __Where$[ebp]
  000ec	51		 push	 ecx
  000ed	8b 55 d8	 mov	 edx, DWORD PTR _this$[ebp]
  000f0	8b 42 04	 mov	 eax, DWORD PTR [edx+4]
  000f3	50		 push	 eax
  000f4	8b 4d d8	 mov	 ecx, DWORD PTR _this$[ebp]
  000f7	e8 00 00 00 00	 call	 ??$_Ucopy@PAPAVIChangeSkinEventListener@@@?$vector@PAVIChangeSkinEventListener@@V?$allocator@PAVIChangeSkinEventListener@@@std@@@std@@IAEPAPAVIChangeSkinEventListener@@PAPAV2@00@Z ; std::vector<IChangeSkinEventListener *,std::allocator<IChangeSkinEventListener *> >::_Ucopy<IChangeSkinEventListener * *>
  000fc	89 45 d0	 mov	 DWORD PTR tv239[ebp], eax
  000ff	8b 4d d0	 mov	 ecx, DWORD PTR tv239[ebp]
  00102	89 4d e4	 mov	 DWORD PTR __Ptr$203795[ebp], ecx

; 829  : 			_Ptr = _Ufill(_Ptr, _Count, _Tmp);	// add new stuff

  00105	8d 55 ec	 lea	 edx, DWORD PTR __Tmp$[ebp]
  00108	52		 push	 edx
  00109	8b 45 0c	 mov	 eax, DWORD PTR __Count$[ebp]
  0010c	50		 push	 eax
  0010d	8b 4d e4	 mov	 ecx, DWORD PTR __Ptr$203795[ebp]
  00110	51		 push	 ecx
  00111	8b 4d d8	 mov	 ecx, DWORD PTR _this$[ebp]
  00114	e8 00 00 00 00	 call	 ?_Ufill@?$vector@PAVIChangeSkinEventListener@@V?$allocator@PAVIChangeSkinEventListener@@@std@@@std@@IAEPAPAVIChangeSkinEventListener@@PAPAV3@IABQAV3@@Z ; std::vector<IChangeSkinEventListener *,std::allocator<IChangeSkinEventListener *> >::_Ufill
  00119	89 45 cc	 mov	 DWORD PTR tv240[ebp], eax
  0011c	8b 55 cc	 mov	 edx, DWORD PTR tv240[ebp]
  0011f	89 55 e4	 mov	 DWORD PTR __Ptr$203795[ebp], edx

; 830  : 			_Ucopy(_ITER_BASE(_Where), _Mylast, _Ptr);	// copy suffix

  00122	8b 45 e4	 mov	 eax, DWORD PTR __Ptr$203795[ebp]
  00125	50		 push	 eax
  00126	8b 4d d8	 mov	 ecx, DWORD PTR _this$[ebp]
  00129	8b 51 08	 mov	 edx, DWORD PTR [ecx+8]
  0012c	52		 push	 edx
  0012d	8b 45 08	 mov	 eax, DWORD PTR __Where$[ebp]
  00130	50		 push	 eax
  00131	8b 4d d8	 mov	 ecx, DWORD PTR _this$[ebp]
  00134	e8 00 00 00 00	 call	 ??$_Ucopy@PAPAVIChangeSkinEventListener@@@?$vector@PAVIChangeSkinEventListener@@V?$allocator@PAVIChangeSkinEventListener@@@std@@@std@@IAEPAPAVIChangeSkinEventListener@@PAPAV2@00@Z ; std::vector<IChangeSkinEventListener *,std::allocator<IChangeSkinEventListener *> >::_Ucopy<IChangeSkinEventListener * *>
  00139	eb 29		 jmp	 SHORT $L205757
$L205758:

; 831  : 			_CATCH_ALL
; 832  : 			_Destroy(_Newvec, _Ptr);

  0013b	8b 4d e4	 mov	 ecx, DWORD PTR __Ptr$203795[ebp]
  0013e	51		 push	 ecx
  0013f	8b 55 e0	 mov	 edx, DWORD PTR __Newvec$203794[ebp]
  00142	52		 push	 edx
  00143	8b 4d d8	 mov	 ecx, DWORD PTR _this$[ebp]
  00146	e8 00 00 00 00	 call	 ?_Destroy@?$vector@PAVIChangeSkinEventListener@@V?$allocator@PAVIChangeSkinEventListener@@@std@@@std@@IAEXPAPAVIChangeSkinEventListener@@0@Z ; std::vector<IChangeSkinEventListener *,std::allocator<IChangeSkinEventListener *> >::_Destroy

; 833  : 			this->_Alval.deallocate(_Newvec, _Capacity);

  0014b	8b 45 e8	 mov	 eax, DWORD PTR __Capacity$[ebp]
  0014e	50		 push	 eax
  0014f	8b 4d e0	 mov	 ecx, DWORD PTR __Newvec$203794[ebp]
  00152	51		 push	 ecx
  00153	8b 4d d8	 mov	 ecx, DWORD PTR _this$[ebp]
  00156	e8 00 00 00 00	 call	 ?deallocate@?$allocator@PAVIChangeSkinEventListener@@@std@@QAEXPAPAVIChangeSkinEventListener@@I@Z ; std::allocator<IChangeSkinEventListener *>::deallocate

; 834  : 			_RERAISE;

  0015b	6a 00		 push	 0
  0015d	6a 00		 push	 0
  0015f	e8 00 00 00 00	 call	 __CxxThrowException@8
$L205757:

; 835  : 			_CATCH_END

  00164	c7 45 fc ff ff
	ff ff		 mov	 DWORD PTR __$EHRec$[ebp+12], -1

; 836  : 
; 837  : 			_Count += size();

  0016b	8b 4d d8	 mov	 ecx, DWORD PTR _this$[ebp]
  0016e	e8 00 00 00 00	 call	 ?size@?$vector@PAVIChangeSkinEventListener@@V?$allocator@PAVIChangeSkinEventListener@@@std@@@std@@QBEIXZ ; std::vector<IChangeSkinEventListener *,std::allocator<IChangeSkinEventListener *> >::size
  00173	03 45 0c	 add	 eax, DWORD PTR __Count$[ebp]
  00176	89 45 0c	 mov	 DWORD PTR __Count$[ebp], eax

; 838  : 			if (_Myfirst != 0)

  00179	8b 55 d8	 mov	 edx, DWORD PTR _this$[ebp]
  0017c	83 7a 04 00	 cmp	 DWORD PTR [edx+4], 0
  00180	74 35		 je	 SHORT $L203802

; 839  : 				{	// destroy and deallocate old array
; 840  : 				_Destroy(_Myfirst, _Mylast);

  00182	8b 45 d8	 mov	 eax, DWORD PTR _this$[ebp]
  00185	8b 48 08	 mov	 ecx, DWORD PTR [eax+8]
  00188	51		 push	 ecx
  00189	8b 55 d8	 mov	 edx, DWORD PTR _this$[ebp]
  0018c	8b 42 04	 mov	 eax, DWORD PTR [edx+4]
  0018f	50		 push	 eax
  00190	8b 4d d8	 mov	 ecx, DWORD PTR _this$[ebp]
  00193	e8 00 00 00 00	 call	 ?_Destroy@?$vector@PAVIChangeSkinEventListener@@V?$allocator@PAVIChangeSkinEventListener@@@std@@@std@@IAEXPAPAVIChangeSkinEventListener@@0@Z ; std::vector<IChangeSkinEventListener *,std::allocator<IChangeSkinEventListener *> >::_Destroy

; 841  : 				this->_Alval.deallocate(_Myfirst, _Myend - _Myfirst);

  00198	8b 4d d8	 mov	 ecx, DWORD PTR _this$[ebp]
  0019b	8b 55 d8	 mov	 edx, DWORD PTR _this$[ebp]
  0019e	8b 41 0c	 mov	 eax, DWORD PTR [ecx+12]
  001a1	2b 42 04	 sub	 eax, DWORD PTR [edx+4]
  001a4	c1 f8 02	 sar	 eax, 2
  001a7	50		 push	 eax
  001a8	8b 4d d8	 mov	 ecx, DWORD PTR _this$[ebp]
  001ab	8b 51 04	 mov	 edx, DWORD PTR [ecx+4]
  001ae	52		 push	 edx
  001af	8b 4d d8	 mov	 ecx, DWORD PTR _this$[ebp]
  001b2	e8 00 00 00 00	 call	 ?deallocate@?$allocator@PAVIChangeSkinEventListener@@@std@@QAEXPAPAVIChangeSkinEventListener@@I@Z ; std::allocator<IChangeSkinEventListener *>::deallocate
$L203802:

; 842  : 				}
; 843  : 			_Myend = _Newvec + _Capacity;

  001b7	8b 45 e8	 mov	 eax, DWORD PTR __Capacity$[ebp]
  001ba	8b 4d e0	 mov	 ecx, DWORD PTR __Newvec$203794[ebp]
  001bd	8d 14 81	 lea	 edx, DWORD PTR [ecx+eax*4]
  001c0	8b 45 d8	 mov	 eax, DWORD PTR _this$[ebp]
  001c3	89 50 0c	 mov	 DWORD PTR [eax+12], edx

; 844  : 			_Mylast = _Newvec + _Count;

  001c6	8b 4d 0c	 mov	 ecx, DWORD PTR __Count$[ebp]
  001c9	8b 55 e0	 mov	 edx, DWORD PTR __Newvec$203794[ebp]
  001cc	8d 04 8a	 lea	 eax, DWORD PTR [edx+ecx*4]
  001cf	8b 4d d8	 mov	 ecx, DWORD PTR _this$[ebp]
  001d2	89 41 08	 mov	 DWORD PTR [ecx+8], eax

; 845  : 			_Myfirst = _Newvec;

  001d5	8b 55 d8	 mov	 edx, DWORD PTR _this$[ebp]
  001d8	8b 45 e0	 mov	 eax, DWORD PTR __Newvec$203794[ebp]
  001db	89 42 04	 mov	 DWORD PTR [edx+4], eax

; 846  : 			}
; 847  : 		else if ((size_type)(_Mylast - _ITER_BASE(_Where)) < _Count)

  001de	e9 26 01 00 00	 jmp	 $L205753
$L203792:
  001e3	8b 4d d8	 mov	 ecx, DWORD PTR _this$[ebp]
  001e6	8b 51 08	 mov	 edx, DWORD PTR [ecx+8]
  001e9	2b 55 08	 sub	 edx, DWORD PTR __Where$[ebp]
  001ec	c1 fa 02	 sar	 edx, 2
  001ef	3b 55 0c	 cmp	 edx, DWORD PTR __Count$[ebp]
  001f2	0f 83 ad 00 00
	00		 jae	 $L203805

; 848  : 			{	// new stuff spills off end
; 849  : 			_Ucopy(_ITER_BASE(_Where), _Mylast,
; 850  : 				_ITER_BASE(_Where) + _Count);	// copy suffix

  001f8	8b 45 0c	 mov	 eax, DWORD PTR __Count$[ebp]
  001fb	8b 4d 08	 mov	 ecx, DWORD PTR __Where$[ebp]
  001fe	8d 14 81	 lea	 edx, DWORD PTR [ecx+eax*4]
  00201	52		 push	 edx
  00202	8b 45 d8	 mov	 eax, DWORD PTR _this$[ebp]
  00205	8b 48 08	 mov	 ecx, DWORD PTR [eax+8]
  00208	51		 push	 ecx
  00209	8b 55 08	 mov	 edx, DWORD PTR __Where$[ebp]
  0020c	52		 push	 edx
  0020d	8b 4d d8	 mov	 ecx, DWORD PTR _this$[ebp]
  00210	e8 00 00 00 00	 call	 ??$_Ucopy@PAPAVIChangeSkinEventListener@@@?$vector@PAVIChangeSkinEventListener@@V?$allocator@PAVIChangeSkinEventListener@@@std@@@std@@IAEPAPAVIChangeSkinEventListener@@PAPAV2@00@Z ; std::vector<IChangeSkinEventListener *,std::allocator<IChangeSkinEventListener *> >::_Ucopy<IChangeSkinEventListener * *>

; 851  : 
; 852  : 			_TRY_BEGIN

  00215	c7 45 fc 02 00
	00 00		 mov	 DWORD PTR __$EHRec$[ebp+12], 2

; 853  : 			_Ufill(_Mylast, _Count - (_Mylast - _ITER_BASE(_Where)),
; 854  : 				_Tmp);	// insert new stuff off end

  0021c	8d 45 ec	 lea	 eax, DWORD PTR __Tmp$[ebp]
  0021f	50		 push	 eax
  00220	8b 4d d8	 mov	 ecx, DWORD PTR _this$[ebp]
  00223	8b 51 08	 mov	 edx, DWORD PTR [ecx+8]
  00226	2b 55 08	 sub	 edx, DWORD PTR __Where$[ebp]
  00229	c1 fa 02	 sar	 edx, 2
  0022c	8b 45 0c	 mov	 eax, DWORD PTR __Count$[ebp]
  0022f	2b c2		 sub	 eax, edx
  00231	50		 push	 eax
  00232	8b 4d d8	 mov	 ecx, DWORD PTR _this$[ebp]
  00235	8b 51 08	 mov	 edx, DWORD PTR [ecx+8]
  00238	52		 push	 edx
  00239	8b 4d d8	 mov	 ecx, DWORD PTR _this$[ebp]
  0023c	e8 00 00 00 00	 call	 ?_Ufill@?$vector@PAVIChangeSkinEventListener@@V?$allocator@PAVIChangeSkinEventListener@@@std@@@std@@IAEPAPAVIChangeSkinEventListener@@PAPAV3@IABQAV3@@Z ; std::vector<IChangeSkinEventListener *,std::allocator<IChangeSkinEventListener *> >::_Ufill
  00241	eb 28		 jmp	 SHORT $L205759
$L205760:

; 855  : 			_CATCH_ALL
; 856  : 			_Destroy(_ITER_BASE(_Where) + _Count, _Mylast + _Count);

  00243	8b 45 d8	 mov	 eax, DWORD PTR _this$[ebp]
  00246	8b 48 08	 mov	 ecx, DWORD PTR [eax+8]
  00249	8b 55 0c	 mov	 edx, DWORD PTR __Count$[ebp]
  0024c	8d 04 91	 lea	 eax, DWORD PTR [ecx+edx*4]
  0024f	50		 push	 eax
  00250	8b 4d 0c	 mov	 ecx, DWORD PTR __Count$[ebp]
  00253	8b 55 08	 mov	 edx, DWORD PTR __Where$[ebp]
  00256	8d 04 8a	 lea	 eax, DWORD PTR [edx+ecx*4]
  00259	50		 push	 eax
  0025a	8b 4d d8	 mov	 ecx, DWORD PTR _this$[ebp]
  0025d	e8 00 00 00 00	 call	 ?_Destroy@?$vector@PAVIChangeSkinEventListener@@V?$allocator@PAVIChangeSkinEventListener@@@std@@@std@@IAEXPAPAVIChangeSkinEventListener@@0@Z ; std::vector<IChangeSkinEventListener *,std::allocator<IChangeSkinEventListener *> >::_Destroy

; 857  : 			_RERAISE;

  00262	6a 00		 push	 0
  00264	6a 00		 push	 0
  00266	e8 00 00 00 00	 call	 __CxxThrowException@8
$L205759:

; 858  : 			_CATCH_END

  0026b	c7 45 fc ff ff
	ff ff		 mov	 DWORD PTR __$EHRec$[ebp+12], -1

; 859  : 
; 860  : 			_Mylast += _Count;

  00272	8b 4d d8	 mov	 ecx, DWORD PTR _this$[ebp]
  00275	8b 51 08	 mov	 edx, DWORD PTR [ecx+8]
  00278	8b 45 0c	 mov	 eax, DWORD PTR __Count$[ebp]
  0027b	8d 0c 82	 lea	 ecx, DWORD PTR [edx+eax*4]
  0027e	8b 55 d8	 mov	 edx, DWORD PTR _this$[ebp]
  00281	89 4a 08	 mov	 DWORD PTR [edx+8], ecx

; 861  : 			fill(_ITER_BASE(_Where), _Mylast - _Count,
; 862  : 				_Tmp);	// insert up to old end

  00284	8d 45 ec	 lea	 eax, DWORD PTR __Tmp$[ebp]
  00287	50		 push	 eax
  00288	8b 4d 0c	 mov	 ecx, DWORD PTR __Count$[ebp]
  0028b	c1 e1 02	 shl	 ecx, 2
  0028e	8b 55 d8	 mov	 edx, DWORD PTR _this$[ebp]
  00291	8b 42 08	 mov	 eax, DWORD PTR [edx+8]
  00294	2b c1		 sub	 eax, ecx
  00296	50		 push	 eax
  00297	8b 4d 08	 mov	 ecx, DWORD PTR __Where$[ebp]
  0029a	51		 push	 ecx
  0029b	e8 00 00 00 00	 call	 ??$fill@PAPAVIChangeSkinEventListener@@PAV1@@std@@YAXPAPAVIChangeSkinEventListener@@0ABQAV1@@Z ; std::fill<IChangeSkinEventListener * *,IChangeSkinEventListener *>
  002a0	83 c4 0c	 add	 esp, 12			; 0000000cH

; 863  : 			}
; 864  : 		else

  002a3	eb 64		 jmp	 SHORT $L205753
$L203805:

; 865  : 			{	// new stuff can all be assigned
; 866  : 			pointer _Oldend = _Mylast;

  002a5	8b 55 d8	 mov	 edx, DWORD PTR _this$[ebp]
  002a8	8b 42 08	 mov	 eax, DWORD PTR [edx+8]
  002ab	89 45 dc	 mov	 DWORD PTR __Oldend$203815[ebp], eax

; 867  : 			_Mylast = _Ucopy(_Oldend - _Count, _Oldend,
; 868  : 				_Mylast);	// copy suffix

  002ae	8b 4d d8	 mov	 ecx, DWORD PTR _this$[ebp]
  002b1	8b 51 08	 mov	 edx, DWORD PTR [ecx+8]
  002b4	52		 push	 edx
  002b5	8b 45 dc	 mov	 eax, DWORD PTR __Oldend$203815[ebp]
  002b8	50		 push	 eax
  002b9	8b 4d 0c	 mov	 ecx, DWORD PTR __Count$[ebp]
  002bc	c1 e1 02	 shl	 ecx, 2
  002bf	8b 55 dc	 mov	 edx, DWORD PTR __Oldend$203815[ebp]
  002c2	2b d1		 sub	 edx, ecx
  002c4	52		 push	 edx
  002c5	8b 4d d8	 mov	 ecx, DWORD PTR _this$[ebp]
  002c8	e8 00 00 00 00	 call	 ??$_Ucopy@PAPAVIChangeSkinEventListener@@@?$vector@PAVIChangeSkinEventListener@@V?$allocator@PAVIChangeSkinEventListener@@@std@@@std@@IAEPAPAVIChangeSkinEventListener@@PAPAV2@00@Z ; std::vector<IChangeSkinEventListener *,std::allocator<IChangeSkinEventListener *> >::_Ucopy<IChangeSkinEventListener * *>
  002cd	8b 4d d8	 mov	 ecx, DWORD PTR _this$[ebp]
  002d0	89 41 08	 mov	 DWORD PTR [ecx+8], eax

; 869  : 			copy_backward(_ITER_BASE(_Where), _Oldend - _Count,
; 870  : 				_Oldend);	// copy hole

  002d3	8b 55 dc	 mov	 edx, DWORD PTR __Oldend$203815[ebp]
  002d6	52		 push	 edx
  002d7	8b 45 0c	 mov	 eax, DWORD PTR __Count$[ebp]
  002da	c1 e0 02	 shl	 eax, 2
  002dd	8b 4d dc	 mov	 ecx, DWORD PTR __Oldend$203815[ebp]
  002e0	2b c8		 sub	 ecx, eax
  002e2	51		 push	 ecx
  002e3	8b 55 08	 mov	 edx, DWORD PTR __Where$[ebp]
  002e6	52		 push	 edx
  002e7	e8 00 00 00 00	 call	 ??$copy_backward@PAPAVIChangeSkinEventListener@@PAPAV1@@std@@YAPAPAVIChangeSkinEventListener@@PAPAV1@00@Z ; std::copy_backward<IChangeSkinEventListener * *,IChangeSkinEventListener * *>
  002ec	83 c4 0c	 add	 esp, 12			; 0000000cH

; 871  : 			fill(_ITER_BASE(_Where), _ITER_BASE(_Where) + _Count,
; 872  : 				_Tmp);	// insert into hole

  002ef	8d 45 ec	 lea	 eax, DWORD PTR __Tmp$[ebp]
  002f2	50		 push	 eax
  002f3	8b 4d 0c	 mov	 ecx, DWORD PTR __Count$[ebp]
  002f6	8b 55 08	 mov	 edx, DWORD PTR __Where$[ebp]
  002f9	8d 04 8a	 lea	 eax, DWORD PTR [edx+ecx*4]
  002fc	50		 push	 eax
  002fd	8b 4d 08	 mov	 ecx, DWORD PTR __Where$[ebp]
  00300	51		 push	 ecx
  00301	e8 00 00 00 00	 call	 ??$fill@PAPAVIChangeSkinEventListener@@PAV1@@std@@YAXPAPAVIChangeSkinEventListener@@0ABQAV1@@Z ; std::fill<IChangeSkinEventListener * *,IChangeSkinEventListener *>
  00306	83 c4 0c	 add	 esp, 12			; 0000000cH
$L205753:

; 873  : 			}
; 874  : 		}

  00309	8b 4d f4	 mov	 ecx, DWORD PTR __$EHRec$[ebp+4]
  0030c	64 89 0d 00 00
	00 00		 mov	 DWORD PTR fs:__except_list, ecx
  00313	5f		 pop	 edi
  00314	5e		 pop	 esi
  00315	5b		 pop	 ebx
  00316	8b e5		 mov	 esp, ebp
  00318	5d		 pop	 ebp
  00319	c2 0c 00	 ret	 12			; 0000000cH
_TEXT	ENDS
;	COMDAT text$x
text$x	SEGMENT
__ehhandler$?_Insert_n@?$vector@PAVIChangeSkinEventListener@@V?$allocator@PAVIChangeSkinEventListener@@@std@@@std@@IAEXViterator@12@IABQAVIChangeSkinEventListener@@@Z:
  00000	b8 00 00 00 00	 mov	 eax, OFFSET FLAT:$T205762
  00005	e9 00 00 00 00	 jmp	 ___CxxFrameHandler
text$x	ENDS
?_Insert_n@?$vector@PAVIChangeSkinEventListener@@V?$allocator@PAVIChangeSkinEventListener@@@std@@@std@@IAEXViterator@12@IABQAVIChangeSkinEventListener@@@Z ENDP ; std::vector<IChangeSkinEventListener *,std::allocator<IChangeSkinEventListener *> >::_Insert_n
PUBLIC	__TI3?AVlength_error@std@@
PUBLIC	__CTA3?AVlength_error@std@@
PUBLIC	__CT??_R0?AVlength_error@std@@@8??0length_error@std@@QAE@ABV01@@Z40
PUBLIC	??_C@_0BD@OLBABOEK@vector?$DMT?$DO?5too?5long?$AA@ ; `string'
PUBLIC	??_R0?AVlogic_error@std@@@8			; std::logic_error `RTTI Type Descriptor'
PUBLIC	__CT??_R0?AVlogic_error@std@@@8??0logic_error@std@@QAE@ABV01@@Z40
PUBLIC	??_R0?AVexception@@@8				; exception `RTTI Type Descriptor'
PUBLIC	__CT??_R0?AVexception@@@8??0exception@@QAE@ABV0@@Z12
PUBLIC	??_R0?AVlength_error@std@@@8			; std::length_error `RTTI Type Descriptor'
PUBLIC	??0logic_error@std@@QAE@ABV01@@Z		; std::logic_error::logic_error
PUBLIC	??0length_error@std@@QAE@ABV?$basic_string@DU?$char_traits@D@std@@V?$allocator@D@2@@1@@Z ; std::length_error::length_error
PUBLIC	??1length_error@std@@UAE@XZ			; std::length_error::~length_error
PUBLIC	??0length_error@std@@QAE@ABV01@@Z		; std::length_error::length_error
EXTRN	??0exception@@QAE@ABV0@@Z:NEAR			; exception::exception
;	COMDAT xdata$x
xdata$x	SEGMENT
$T205778 DD	0ffffffffH
	DD	FLAT:$L205774
$T205776 DD	019930520H
	DD	01H
	DD	FLAT:$T205778
	DD	2 DUP(00H)
	DD	2 DUP(00H)
xdata$x	ENDS
;	COMDAT ??_C@_0BD@OLBABOEK@vector?$DMT?$DO?5too?5long?$AA@
CONST	SEGMENT
??_C@_0BD@OLBABOEK@vector?$DMT?$DO?5too?5long?$AA@ DB 'vector<T> too long'
	DB	00H						; `string'
CONST	ENDS
;	COMDAT __TI3?AVlength_error@std@@
xdata$x	SEGMENT
__TI3?AVlength_error@std@@ DD 00H
	DD	FLAT:??1length_error@std@@UAE@XZ
	DD	00H
	DD	FLAT:__CTA3?AVlength_error@std@@
xdata$x	ENDS
;	COMDAT __CTA3?AVlength_error@std@@
xdata$x	SEGMENT
__CTA3?AVlength_error@std@@ DD 03H
	DD	FLAT:__CT??_R0?AVlength_error@std@@@8??0length_error@std@@QAE@ABV01@@Z40
	DD	FLAT:__CT??_R0?AVlogic_error@std@@@8??0logic_error@std@@QAE@ABV01@@Z40
	DD	FLAT:__CT??_R0?AVexception@@@8??0exception@@QAE@ABV0@@Z12
xdata$x	ENDS
;	COMDAT __CT??_R0?AVlength_error@std@@@8??0length_error@std@@QAE@ABV01@@Z40
xdata$x	SEGMENT
__CT??_R0?AVlength_error@std@@@8??0length_error@std@@QAE@ABV01@@Z40 DD 00H
	DD	FLAT:??_R0?AVlength_error@std@@@8
	DD	00H
	DD	0ffffffffH
	ORG $+4
	DD	028H
	DD	FLAT:??0length_error@std@@QAE@ABV01@@Z
xdata$x	ENDS
;	COMDAT ??_R0?AVlength_error@std@@@8
_DATA	SEGMENT
??_R0?AVlength_error@std@@@8 DD FLAT:??_7type_info@@6B@	; std::length_error `RTTI Type Descriptor'
	DD	00H
	DB	'.?AVlength_error@std@@', 00H
	ORG $-31
	DD	FLAT:??_7type_info@@6B@
	DD	00H
	DB	'.?AVlength_error@std@@', 00H
_DATA	ENDS
;	COMDAT __CT??_R0?AVlogic_error@std@@@8??0logic_error@std@@QAE@ABV01@@Z40
xdata$x	SEGMENT
__CT??_R0?AVlogic_error@std@@@8??0logic_error@std@@QAE@ABV01@@Z40 DD 00H
	DD	FLAT:??_R0?AVlogic_error@std@@@8
	DD	00H
	DD	0ffffffffH
	ORG $+4
	DD	028H
	DD	FLAT:??0logic_error@std@@QAE@ABV01@@Z
xdata$x	ENDS
;	COMDAT ??_R0?AVlogic_error@std@@@8
_DATA	SEGMENT
??_R0?AVlogic_error@std@@@8 DD FLAT:??_7type_info@@6B@	; std::logic_error `RTTI Type Descriptor'
	DD	00H
	DB	'.?AVlogic_error@std@@', 00H
	ORG $-30
	DD	FLAT:??_7type_info@@6B@
	DD	00H
	DB	'.?AVlogic_error@std@@', 00H
_DATA	ENDS
;	COMDAT __CT??_R0?AVexception@@@8??0exception@@QAE@ABV0@@Z12
xdata$x	SEGMENT
__CT??_R0?AVexception@@@8??0exception@@QAE@ABV0@@Z12 DD 00H
	DD	FLAT:??_R0?AVexception@@@8
	DD	00H
	DD	0ffffffffH
	ORG $+4
	DD	0cH
	DD	FLAT:??0exception@@QAE@ABV0@@Z
xdata$x	ENDS
;	COMDAT ??_R0?AVexception@@@8
_DATA	SEGMENT
??_R0?AVexception@@@8 DD FLAT:??_7type_info@@6B@	; exception `RTTI Type Descriptor'
	DD	00H
	DB	'.?AVexception@@', 00H
	ORG $-24
	DD	FLAT:??_7type_info@@6B@
	DD	00H
	DB	'.?AVexception@@', 00H
; Function compile flags: /Odt
_DATA	ENDS
;	COMDAT ?_Xlen@?$vector@PAVIChangeSkinEventListener@@V?$allocator@PAVIChangeSkinEventListener@@@std@@@std@@IBEXXZ
_TEXT	SEGMENT
_this$ = -84						; size = 4
$T205773 = -80						; size = 28
$T205772 = -52						; size = 40
__$EHRec$ = -12						; size = 12
?_Xlen@?$vector@PAVIChangeSkinEventListener@@V?$allocator@PAVIChangeSkinEventListener@@@std@@@std@@IBEXXZ PROC NEAR ; std::vector<IChangeSkinEventListener *,std::allocator<IChangeSkinEventListener *> >::_Xlen, COMDAT
; _this$ = ecx

; 883  : 		{	// report a length_error

  00000	55		 push	 ebp
  00001	8b ec		 mov	 ebp, esp
  00003	6a ff		 push	 -1
  00005	68 00 00 00 00	 push	 __ehhandler$?_Xlen@?$vector@PAVIChangeSkinEventListener@@V?$allocator@PAVIChangeSkinEventListener@@@std@@@std@@IBEXXZ
  0000a	64 a1 00 00 00
	00		 mov	 eax, DWORD PTR fs:__except_list
  00010	50		 push	 eax
  00011	64 89 25 00 00
	00 00		 mov	 DWORD PTR fs:__except_list, esp
  00018	83 ec 48	 sub	 esp, 72			; 00000048H
  0001b	89 4d ac	 mov	 DWORD PTR _this$[ebp], ecx

; 884  : 		_THROW(length_error, "vector<T> too long");

  0001e	68 00 00 00 00	 push	 OFFSET FLAT:??_C@_0BD@OLBABOEK@vector?$DMT?$DO?5too?5long?$AA@
  00023	8d 4d b0	 lea	 ecx, DWORD PTR $T205773[ebp]
  00026	ff 15 00 00 00
	00		 call	 DWORD PTR __imp_??0?$basic_string@DU?$char_traits@D@std@@V?$allocator@D@2@@std@@QAE@PBD@Z
  0002c	c7 45 fc 00 00
	00 00		 mov	 DWORD PTR __$EHRec$[ebp+8], 0
  00033	8d 45 b0	 lea	 eax, DWORD PTR $T205773[ebp]
  00036	50		 push	 eax
  00037	8d 4d cc	 lea	 ecx, DWORD PTR $T205772[ebp]
  0003a	e8 00 00 00 00	 call	 ??0length_error@std@@QAE@ABV?$basic_string@DU?$char_traits@D@std@@V?$allocator@D@2@@1@@Z ; std::length_error::length_error
  0003f	68 00 00 00 00	 push	 OFFSET FLAT:__TI3?AVlength_error@std@@
  00044	8d 4d cc	 lea	 ecx, DWORD PTR $T205772[ebp]
  00047	51		 push	 ecx
  00048	e8 00 00 00 00	 call	 __CxxThrowException@8
$L205771:

; 885  : 		}

  0004d	8b 4d f4	 mov	 ecx, DWORD PTR __$EHRec$[ebp]
  00050	64 89 0d 00 00
	00 00		 mov	 DWORD PTR fs:__except_list, ecx
  00057	8b e5		 mov	 esp, ebp
  00059	5d		 pop	 ebp
  0005a	c3		 ret	 0
_TEXT	ENDS
;	COMDAT text$x
text$x	SEGMENT
$L205774:
  00000	8d 4d b0	 lea	 ecx, DWORD PTR $T205773[ebp]
  00003	ff 25 00 00 00
	00		 jmp	 DWORD PTR __imp_??1?$basic_string@DU?$char_traits@D@std@@V?$allocator@D@2@@std@@QAE@XZ
__ehhandler$?_Xlen@?$vector@PAVIChangeSkinEventListener@@V?$allocator@PAVIChangeSkinEventListener@@@std@@@std@@IBEXXZ:
  00009	b8 00 00 00 00	 mov	 eax, OFFSET FLAT:$T205776
  0000e	e9 00 00 00 00	 jmp	 ___CxxFrameHandler
text$x	ENDS
?_Xlen@?$vector@PAVIChangeSkinEventListener@@V?$allocator@PAVIChangeSkinEventListener@@@std@@@std@@IBEXXZ ENDP ; std::vector<IChangeSkinEventListener *,std::allocator<IChangeSkinEventListener *> >::_Xlen
; Function compile flags: /Odt
; File d:\program files (x86)\microsoft visual studio .net 2003\vc7\include\xmemory
;	COMDAT ??0?$allocator@PAVIChangeSkinEventListener@@@std@@QAE@ABV01@@Z
_TEXT	SEGMENT
_this$ = -4						; size = 4
___formal$ = 8						; size = 4
??0?$allocator@PAVIChangeSkinEventListener@@@std@@QAE@ABV01@@Z PROC NEAR ; std::allocator<IChangeSkinEventListener *>::allocator<IChangeSkinEventListener *>, COMDAT
; _this$ = ecx

; 115  : 	allocator(const allocator<_Ty>&)

  00000	55		 push	 ebp
  00001	8b ec		 mov	 ebp, esp
  00003	51		 push	 ecx
  00004	89 4d fc	 mov	 DWORD PTR _this$[ebp], ecx

; 116  : 		{	// construct by copying (do nothing)
; 117  : 		}

  00007	8b 45 fc	 mov	 eax, DWORD PTR _this$[ebp]
  0000a	8b e5		 mov	 esp, ebp
  0000c	5d		 pop	 ebp
  0000d	c2 04 00	 ret	 4
??0?$allocator@PAVIChangeSkinEventListener@@@std@@QAE@ABV01@@Z ENDP ; std::allocator<IChangeSkinEventListener *>::allocator<IChangeSkinEventListener *>
; Function compile flags: /Odt
_TEXT	ENDS
;	COMDAT ?deallocate@?$allocator@PAVIChangeSkinEventListener@@@std@@QAEXPAPAVIChangeSkinEventListener@@I@Z
_TEXT	SEGMENT
_this$ = -4						; size = 4
__Ptr$ = 8						; size = 4
___formal$ = 12						; size = 4
?deallocate@?$allocator@PAVIChangeSkinEventListener@@@std@@QAEXPAPAVIChangeSkinEventListener@@I@Z PROC NEAR ; std::allocator<IChangeSkinEventListener *>::deallocate, COMDAT
; _this$ = ecx

; 131  : 		{	// deallocate object at _Ptr, ignore size

  00000	55		 push	 ebp
  00001	8b ec		 mov	 ebp, esp
  00003	51		 push	 ecx
  00004	89 4d fc	 mov	 DWORD PTR _this$[ebp], ecx

; 132  : 		operator delete(_Ptr);

  00007	8b 45 08	 mov	 eax, DWORD PTR __Ptr$[ebp]
  0000a	50		 push	 eax
  0000b	e8 00 00 00 00	 call	 ??3@YAXPAX@Z		; operator delete
  00010	83 c4 04	 add	 esp, 4

; 133  : 		}

  00013	8b e5		 mov	 esp, ebp
  00015	5d		 pop	 ebp
  00016	c2 08 00	 ret	 8
?deallocate@?$allocator@PAVIChangeSkinEventListener@@@std@@QAEXPAPAVIChangeSkinEventListener@@I@Z ENDP ; std::allocator<IChangeSkinEventListener *>::deallocate
_TEXT	ENDS
PUBLIC	??$_Allocate@PAVIChangeSkinEventListener@@@std@@YAPAPAVIChangeSkinEventListener@@IPAPAV1@@Z ; std::_Allocate<IChangeSkinEventListener *>
; Function compile flags: /Odt
;	COMDAT ?allocate@?$allocator@PAVIChangeSkinEventListener@@@std@@QAEPAPAVIChangeSkinEventListener@@I@Z
_TEXT	SEGMENT
_this$ = -4						; size = 4
__Count$ = 8						; size = 4
?allocate@?$allocator@PAVIChangeSkinEventListener@@@std@@QAEPAPAVIChangeSkinEventListener@@I@Z PROC NEAR ; std::allocator<IChangeSkinEventListener *>::allocate, COMDAT
; _this$ = ecx

; 136  : 		{	// allocate array of _Count elements

  00000	55		 push	 ebp
  00001	8b ec		 mov	 ebp, esp
  00003	51		 push	 ecx
  00004	89 4d fc	 mov	 DWORD PTR _this$[ebp], ecx

; 137  : 		return (_Allocate(_Count, (pointer)0));

  00007	6a 00		 push	 0
  00009	8b 45 08	 mov	 eax, DWORD PTR __Count$[ebp]
  0000c	50		 push	 eax
  0000d	e8 00 00 00 00	 call	 ??$_Allocate@PAVIChangeSkinEventListener@@@std@@YAPAPAVIChangeSkinEventListener@@IPAPAV1@@Z ; std::_Allocate<IChangeSkinEventListener *>
  00012	83 c4 08	 add	 esp, 8

; 138  : 		}

  00015	8b e5		 mov	 esp, ebp
  00017	5d		 pop	 ebp
  00018	c2 04 00	 ret	 4
?allocate@?$allocator@PAVIChangeSkinEventListener@@@std@@QAEPAPAVIChangeSkinEventListener@@I@Z ENDP ; std::allocator<IChangeSkinEventListener *>::allocate
; Function compile flags: /Odt
; File d:\program files (x86)\microsoft visual studio .net 2003\vc7\include\vector
_TEXT	ENDS
;	COMDAT ??Yiterator@?$vector@PAVIChangeSkinEventListener@@V?$allocator@PAVIChangeSkinEventListener@@@std@@@std@@QAEAAV012@H@Z
_TEXT	SEGMENT
_this$ = -4						; size = 4
__Off$ = 8						; size = 4
??Yiterator@?$vector@PAVIChangeSkinEventListener@@V?$allocator@PAVIChangeSkinEventListener@@@std@@@std@@QAEAAV012@H@Z PROC NEAR ; std::vector<IChangeSkinEventListener *,std::allocator<IChangeSkinEventListener *> >::iterator::operator+=, COMDAT
; _this$ = ecx

; 255  : 			{	// increment by integer

  00000	55		 push	 ebp
  00001	8b ec		 mov	 ebp, esp
  00003	51		 push	 ecx
  00004	89 4d fc	 mov	 DWORD PTR _this$[ebp], ecx

; 256  : 			this->_Myptr += _Off;

  00007	8b 45 fc	 mov	 eax, DWORD PTR _this$[ebp]
  0000a	8b 08		 mov	 ecx, DWORD PTR [eax]
  0000c	8b 55 08	 mov	 edx, DWORD PTR __Off$[ebp]
  0000f	8d 04 91	 lea	 eax, DWORD PTR [ecx+edx*4]
  00012	8b 4d fc	 mov	 ecx, DWORD PTR _this$[ebp]
  00015	89 01		 mov	 DWORD PTR [ecx], eax

; 257  : 			return (*this);

  00017	8b 45 fc	 mov	 eax, DWORD PTR _this$[ebp]

; 258  : 			}

  0001a	8b e5		 mov	 esp, ebp
  0001c	5d		 pop	 ebp
  0001d	c2 04 00	 ret	 4
??Yiterator@?$vector@PAVIChangeSkinEventListener@@V?$allocator@PAVIChangeSkinEventListener@@@std@@@std@@QAEAAV012@H@Z ENDP ; std::vector<IChangeSkinEventListener *,std::allocator<IChangeSkinEventListener *> >::iterator::operator+=
_TEXT	ENDS
PUBLIC	??Gconst_iterator@?$vector@PAVIChangeSkinEventListener@@V?$allocator@PAVIChangeSkinEventListener@@@std@@@std@@QBEHABV012@@Z ; std::vector<IChangeSkinEventListener *,std::allocator<IChangeSkinEventListener *> >::const_iterator::operator-
; Function compile flags: /Odt
;	COMDAT ??Giterator@?$vector@PAVIChangeSkinEventListener@@V?$allocator@PAVIChangeSkinEventListener@@@std@@@std@@QBEHABVconst_iterator@12@@Z
_TEXT	SEGMENT
_this$ = -8						; size = 4
$T205791 = -4						; size = 4
__Right$ = 8						; size = 4
??Giterator@?$vector@PAVIChangeSkinEventListener@@V?$allocator@PAVIChangeSkinEventListener@@@std@@@std@@QBEHABVconst_iterator@12@@Z PROC NEAR ; std::vector<IChangeSkinEventListener *,std::allocator<IChangeSkinEventListener *> >::iterator::operator-, COMDAT
; _this$ = ecx

; 278  : 			{	// return difference of iterators

  00000	55		 push	 ebp
  00001	8b ec		 mov	 ebp, esp
  00003	83 ec 08	 sub	 esp, 8
  00006	89 4d f8	 mov	 DWORD PTR _this$[ebp], ecx

; 279  : 			return ((const_iterator)*this - _Right);

  00009	8b 45 f8	 mov	 eax, DWORD PTR _this$[ebp]
  0000c	8b 08		 mov	 ecx, DWORD PTR [eax]
  0000e	89 4d fc	 mov	 DWORD PTR $T205791[ebp], ecx
  00011	8b 55 08	 mov	 edx, DWORD PTR __Right$[ebp]
  00014	52		 push	 edx
  00015	8d 4d fc	 lea	 ecx, DWORD PTR $T205791[ebp]
  00018	e8 00 00 00 00	 call	 ??Gconst_iterator@?$vector@PAVIChangeSkinEventListener@@V?$allocator@PAVIChangeSkinEventListener@@@std@@@std@@QBEHABV012@@Z ; std::vector<IChangeSkinEventListener *,std::allocator<IChangeSkinEventListener *> >::const_iterator::operator-

; 280  : 			}

  0001d	8b e5		 mov	 esp, ebp
  0001f	5d		 pop	 ebp
  00020	c2 04 00	 ret	 4
??Giterator@?$vector@PAVIChangeSkinEventListener@@V?$allocator@PAVIChangeSkinEventListener@@@std@@@std@@QBEHABVconst_iterator@12@@Z ENDP ; std::vector<IChangeSkinEventListener *,std::allocator<IChangeSkinEventListener *> >::iterator::operator-
; Function compile flags: /Odt
_TEXT	ENDS
;	COMDAT ??0const_iterator@?$vector@PAVIChangeSkinEventListener@@V?$allocator@PAVIChangeSkinEventListener@@@std@@@std@@QAE@PAPAVIChangeSkinEventListener@@@Z
_TEXT	SEGMENT
_this$ = -4						; size = 4
__Ptr$ = 8						; size = 4
??0const_iterator@?$vector@PAVIChangeSkinEventListener@@V?$allocator@PAVIChangeSkinEventListener@@@std@@@std@@QAE@PAPAVIChangeSkinEventListener@@@Z PROC NEAR ; std::vector<IChangeSkinEventListener *,std::allocator<IChangeSkinEventListener *> >::const_iterator::const_iterator, COMDAT
; _this$ = ecx

; 73   : 		const_iterator(_Tptr _Ptr)

  00000	55		 push	 ebp
  00001	8b ec		 mov	 ebp, esp
  00003	51		 push	 ecx
  00004	89 4d fc	 mov	 DWORD PTR _this$[ebp], ecx

; 74   : 			{	// construct with pointer _Ptr
; 75   : 			_Myptr = _Ptr;

  00007	8b 45 fc	 mov	 eax, DWORD PTR _this$[ebp]
  0000a	8b 4d 08	 mov	 ecx, DWORD PTR __Ptr$[ebp]
  0000d	89 08		 mov	 DWORD PTR [eax], ecx

; 76   : 			}

  0000f	8b 45 fc	 mov	 eax, DWORD PTR _this$[ebp]
  00012	8b e5		 mov	 esp, ebp
  00014	5d		 pop	 ebp
  00015	c2 04 00	 ret	 4
??0const_iterator@?$vector@PAVIChangeSkinEventListener@@V?$allocator@PAVIChangeSkinEventListener@@@std@@@std@@QAE@PAPAVIChangeSkinEventListener@@@Z ENDP ; std::vector<IChangeSkinEventListener *,std::allocator<IChangeSkinEventListener *> >::const_iterator::const_iterator
_TEXT	ENDS
PUBLIC	?max_size@?$allocator@V?$basic_string@DU?$char_traits@D@std@@V?$allocator@D@2@@std@@@std@@QBEIXZ ; std::allocator<std::basic_string<char,std::char_traits<char>,std::allocator<char> > >::max_size
; Function compile flags: /Odt
;	COMDAT ?max_size@?$vector@V?$basic_string@DU?$char_traits@D@std@@V?$allocator@D@2@@std@@V?$allocator@V?$basic_string@DU?$char_traits@D@std@@V?$allocator@D@2@@std@@@2@@std@@QBEIXZ
_TEXT	SEGMENT
_this$ = -4						; size = 4
?max_size@?$vector@V?$basic_string@DU?$char_traits@D@std@@V?$allocator@D@2@@std@@V?$allocator@V?$basic_string@DU?$char_traits@D@std@@V?$allocator@D@2@@std@@@2@@std@@QBEIXZ PROC NEAR ; std::vector<std::basic_string<char,std::char_traits<char>,std::allocator<char> >,std::allocator<std::basic_string<char,std::char_traits<char>,std::allocator<char> > > >::max_size, COMDAT
; _this$ = ecx

; 520  : 		{	// return maximum possible length of sequence

  00000	55		 push	 ebp
  00001	8b ec		 mov	 ebp, esp
  00003	51		 push	 ecx
  00004	89 4d fc	 mov	 DWORD PTR _this$[ebp], ecx

; 521  : 		return (this->_Alval.max_size());

  00007	8b 4d fc	 mov	 ecx, DWORD PTR _this$[ebp]
  0000a	e8 00 00 00 00	 call	 ?max_size@?$allocator@V?$basic_string@DU?$char_traits@D@std@@V?$allocator@D@2@@std@@@std@@QBEIXZ ; std::allocator<std::basic_string<char,std::char_traits<char>,std::allocator<char> > >::max_size

; 522  : 		}

  0000f	8b e5		 mov	 esp, ebp
  00011	5d		 pop	 ebp
  00012	c3		 ret	 0
?max_size@?$vector@V?$basic_string@DU?$char_traits@D@std@@V?$allocator@D@2@@std@@V?$allocator@V?$basic_string@DU?$char_traits@D@std@@V?$allocator@D@2@@std@@@2@@std@@QBEIXZ ENDP ; std::vector<std::basic_string<char,std::char_traits<char>,std::allocator<char> >,std::allocator<std::basic_string<char,std::char_traits<char>,std::allocator<char> > > >::max_size
_TEXT	ENDS
PUBLIC	??$_Destroy_range@V?$basic_string@DU?$char_traits@D@std@@V?$allocator@D@2@@std@@V?$allocator@V?$basic_string@DU?$char_traits@D@std@@V?$allocator@D@2@@std@@@2@@std@@YAXPAV?$basic_string@DU?$char_traits@D@std@@V?$allocator@D@2@@0@0AAV?$allocator@V?$basic_string@DU?$char_traits@D@std@@V?$allocator@D@2@@std@@@0@@Z ; std::_Destroy_range<std::basic_string<char,std::char_traits<char>,std::allocator<char> >,std::allocator<std::basic_string<char,std::char_traits<char>,std::allocator<char> > > >
; Function compile flags: /Odt
;	COMDAT ?_Destroy@?$vector@V?$basic_string@DU?$char_traits@D@std@@V?$allocator@D@2@@std@@V?$allocator@V?$basic_string@DU?$char_traits@D@std@@V?$allocator@D@2@@std@@@2@@std@@IAEXPAV?$basic_string@DU?$char_traits@D@std@@V?$allocator@D@2@@2@0@Z
_TEXT	SEGMENT
_this$ = -4						; size = 4
__First$ = 8						; size = 4
__Last$ = 12						; size = 4
?_Destroy@?$vector@V?$basic_string@DU?$char_traits@D@std@@V?$allocator@D@2@@std@@V?$allocator@V?$basic_string@DU?$char_traits@D@std@@V?$allocator@D@2@@std@@@2@@std@@IAEXPAV?$basic_string@DU?$char_traits@D@std@@V?$allocator@D@2@@2@0@Z PROC NEAR ; std::vector<std::basic_string<char,std::char_traits<char>,std::allocator<char> >,std::allocator<std::basic_string<char,std::char_traits<char>,std::allocator<char> > > >::_Destroy, COMDAT
; _this$ = ecx

; 786  : 		{	// destroy [_First, _Last) using allocator

  00000	55		 push	 ebp
  00001	8b ec		 mov	 ebp, esp
  00003	51		 push	 ecx
  00004	89 4d fc	 mov	 DWORD PTR _this$[ebp], ecx

; 787  : 		_Destroy_range(_First, _Last, this->_Alval);

  00007	8b 45 fc	 mov	 eax, DWORD PTR _this$[ebp]
  0000a	50		 push	 eax
  0000b	8b 4d 0c	 mov	 ecx, DWORD PTR __Last$[ebp]
  0000e	51		 push	 ecx
  0000f	8b 55 08	 mov	 edx, DWORD PTR __First$[ebp]
  00012	52		 push	 edx
  00013	e8 00 00 00 00	 call	 ??$_Destroy_range@V?$basic_string@DU?$char_traits@D@std@@V?$allocator@D@2@@std@@V?$allocator@V?$basic_string@DU?$char_traits@D@std@@V?$allocator@D@2@@std@@@2@@std@@YAXPAV?$basic_string@DU?$char_traits@D@std@@V?$allocator@D@2@@0@0AAV?$allocator@V?$basic_string@DU?$char_traits@D@std@@V?$allocator@D@2@@std@@@0@@Z ; std::_Destroy_range<std::basic_string<char,std::char_traits<char>,std::allocator<char> >,std::allocator<std::basic_string<char,std::char_traits<char>,std::allocator<char> > > >
  00018	83 c4 0c	 add	 esp, 12			; 0000000cH

; 788  : 		}

  0001b	8b e5		 mov	 esp, ebp
  0001d	5d		 pop	 ebp
  0001e	c2 08 00	 ret	 8
?_Destroy@?$vector@V?$basic_string@DU?$char_traits@D@std@@V?$allocator@D@2@@std@@V?$allocator@V?$basic_string@DU?$char_traits@D@std@@V?$allocator@D@2@@std@@@2@@std@@IAEXPAV?$basic_string@DU?$char_traits@D@std@@V?$allocator@D@2@@2@0@Z ENDP ; std::vector<std::basic_string<char,std::char_traits<char>,std::allocator<char> >,std::allocator<std::basic_string<char,std::char_traits<char>,std::allocator<char> > > >::_Destroy
_TEXT	ENDS
;	COMDAT xdata$x
xdata$x	SEGMENT
$T205806 DD	0ffffffffH
	DD	FLAT:$L205802
$T205804 DD	019930520H
	DD	01H
	DD	FLAT:$T205806
	DD	2 DUP(00H)
	DD	2 DUP(00H)
; Function compile flags: /Odt
xdata$x	ENDS
;	COMDAT ?_Xlen@?$vector@V?$basic_string@DU?$char_traits@D@std@@V?$allocator@D@2@@std@@V?$allocator@V?$basic_string@DU?$char_traits@D@std@@V?$allocator@D@2@@std@@@2@@std@@IBEXXZ
_TEXT	SEGMENT
_this$ = -84						; size = 4
$T205801 = -80						; size = 28
$T205800 = -52						; size = 40
__$EHRec$ = -12						; size = 12
?_Xlen@?$vector@V?$basic_string@DU?$char_traits@D@std@@V?$allocator@D@2@@std@@V?$allocator@V?$basic_string@DU?$char_traits@D@std@@V?$allocator@D@2@@std@@@2@@std@@IBEXXZ PROC NEAR ; std::vector<std::basic_string<char,std::char_traits<char>,std::allocator<char> >,std::allocator<std::basic_string<char,std::char_traits<char>,std::allocator<char> > > >::_Xlen, COMDAT
; _this$ = ecx

; 883  : 		{	// report a length_error

  00000	55		 push	 ebp
  00001	8b ec		 mov	 ebp, esp
  00003	6a ff		 push	 -1
  00005	68 00 00 00 00	 push	 __ehhandler$?_Xlen@?$vector@V?$basic_string@DU?$char_traits@D@std@@V?$allocator@D@2@@std@@V?$allocator@V?$basic_string@DU?$char_traits@D@std@@V?$allocator@D@2@@std@@@2@@std@@IBEXXZ
  0000a	64 a1 00 00 00
	00		 mov	 eax, DWORD PTR fs:__except_list
  00010	50		 push	 eax
  00011	64 89 25 00 00
	00 00		 mov	 DWORD PTR fs:__except_list, esp
  00018	83 ec 48	 sub	 esp, 72			; 00000048H
  0001b	89 4d ac	 mov	 DWORD PTR _this$[ebp], ecx

; 884  : 		_THROW(length_error, "vector<T> too long");

  0001e	68 00 00 00 00	 push	 OFFSET FLAT:??_C@_0BD@OLBABOEK@vector?$DMT?$DO?5too?5long?$AA@
  00023	8d 4d b0	 lea	 ecx, DWORD PTR $T205801[ebp]
  00026	ff 15 00 00 00
	00		 call	 DWORD PTR __imp_??0?$basic_string@DU?$char_traits@D@std@@V?$allocator@D@2@@std@@QAE@PBD@Z
  0002c	c7 45 fc 00 00
	00 00		 mov	 DWORD PTR __$EHRec$[ebp+8], 0
  00033	8d 45 b0	 lea	 eax, DWORD PTR $T205801[ebp]
  00036	50		 push	 eax
  00037	8d 4d cc	 lea	 ecx, DWORD PTR $T205800[ebp]
  0003a	e8 00 00 00 00	 call	 ??0length_error@std@@QAE@ABV?$basic_string@DU?$char_traits@D@std@@V?$allocator@D@2@@1@@Z ; std::length_error::length_error
  0003f	68 00 00 00 00	 push	 OFFSET FLAT:__TI3?AVlength_error@std@@
  00044	8d 4d cc	 lea	 ecx, DWORD PTR $T205800[ebp]
  00047	51		 push	 ecx
  00048	e8 00 00 00 00	 call	 __CxxThrowException@8
$L205799:

; 885  : 		}

  0004d	8b 4d f4	 mov	 ecx, DWORD PTR __$EHRec$[ebp]
  00050	64 89 0d 00 00
	00 00		 mov	 DWORD PTR fs:__except_list, ecx
  00057	8b e5		 mov	 esp, ebp
  00059	5d		 pop	 ebp
  0005a	c3		 ret	 0
_TEXT	ENDS
;	COMDAT text$x
text$x	SEGMENT
$L205802:
  00000	8d 4d b0	 lea	 ecx, DWORD PTR $T205801[ebp]
  00003	ff 25 00 00 00
	00		 jmp	 DWORD PTR __imp_??1?$basic_string@DU?$char_traits@D@std@@V?$allocator@D@2@@std@@QAE@XZ
__ehhandler$?_Xlen@?$vector@V?$basic_string@DU?$char_traits@D@std@@V?$allocator@D@2@@std@@V?$allocator@V?$basic_string@DU?$char_traits@D@std@@V?$allocator@D@2@@std@@@2@@std@@IBEXXZ:
  00009	b8 00 00 00 00	 mov	 eax, OFFSET FLAT:$T205804
  0000e	e9 00 00 00 00	 jmp	 ___CxxFrameHandler
text$x	ENDS
?_Xlen@?$vector@V?$basic_string@DU?$char_traits@D@std@@V?$allocator@D@2@@std@@V?$allocator@V?$basic_string@DU?$char_traits@D@std@@V?$allocator@D@2@@std@@@2@@std@@IBEXXZ ENDP ; std::vector<std::basic_string<char,std::char_traits<char>,std::allocator<char> >,std::allocator<std::basic_string<char,std::char_traits<char>,std::allocator<char> > > >::_Xlen
PUBLIC	??0const_iterator@?$vector@UOneSubject@@V?$allocator@UOneSubject@@@std@@@std@@QAE@PAUOneSubject@@@Z ; std::vector<OneSubject,std::allocator<OneSubject> >::const_iterator::const_iterator
; Function compile flags: /Odt
;	COMDAT ??0iterator@?$vector@UOneSubject@@V?$allocator@UOneSubject@@@std@@@std@@QAE@PAUOneSubject@@@Z
_TEXT	SEGMENT
_this$ = -4						; size = 4
__Ptr$ = 8						; size = 4
??0iterator@?$vector@UOneSubject@@V?$allocator@UOneSubject@@@std@@@std@@QAE@PAUOneSubject@@@Z PROC NEAR ; std::vector<OneSubject,std::allocator<OneSubject> >::iterator::iterator, COMDAT
; _this$ = ecx

; 215  : 			{	// construct with pointer _Ptr

  00000	55		 push	 ebp
  00001	8b ec		 mov	 ebp, esp
  00003	51		 push	 ecx
  00004	89 4d fc	 mov	 DWORD PTR _this$[ebp], ecx
  00007	8b 45 08	 mov	 eax, DWORD PTR __Ptr$[ebp]
  0000a	50		 push	 eax
  0000b	8b 4d fc	 mov	 ecx, DWORD PTR _this$[ebp]
  0000e	e8 00 00 00 00	 call	 ??0const_iterator@?$vector@UOneSubject@@V?$allocator@UOneSubject@@@std@@@std@@QAE@PAUOneSubject@@@Z ; std::vector<OneSubject,std::allocator<OneSubject> >::const_iterator::const_iterator

; 216  : 			}

  00013	8b 45 fc	 mov	 eax, DWORD PTR _this$[ebp]
  00016	8b e5		 mov	 esp, ebp
  00018	5d		 pop	 ebp
  00019	c2 04 00	 ret	 4
??0iterator@?$vector@UOneSubject@@V?$allocator@UOneSubject@@@std@@@std@@QAE@PAUOneSubject@@@Z ENDP ; std::vector<OneSubject,std::allocator<OneSubject> >::iterator::iterator
; Function compile flags: /Odt
_TEXT	ENDS
;	COMDAT ??Yiterator@?$vector@UOneSubject@@V?$allocator@UOneSubject@@@std@@@std@@QAEAAV012@H@Z
_TEXT	SEGMENT
_this$ = -4						; size = 4
__Off$ = 8						; size = 4
??Yiterator@?$vector@UOneSubject@@V?$allocator@UOneSubject@@@std@@@std@@QAEAAV012@H@Z PROC NEAR ; std::vector<OneSubject,std::allocator<OneSubject> >::iterator::operator+=, COMDAT
; _this$ = ecx

; 255  : 			{	// increment by integer

  00000	55		 push	 ebp
  00001	8b ec		 mov	 ebp, esp
  00003	51		 push	 ecx
  00004	89 4d fc	 mov	 DWORD PTR _this$[ebp], ecx

; 256  : 			this->_Myptr += _Off;

  00007	8b 45 08	 mov	 eax, DWORD PTR __Off$[ebp]
  0000a	69 c0 98 00 00
	00		 imul	 eax, 152		; 00000098H
  00010	8b 4d fc	 mov	 ecx, DWORD PTR _this$[ebp]
  00013	03 01		 add	 eax, DWORD PTR [ecx]
  00015	8b 55 fc	 mov	 edx, DWORD PTR _this$[ebp]
  00018	89 02		 mov	 DWORD PTR [edx], eax

; 257  : 			return (*this);

  0001a	8b 45 fc	 mov	 eax, DWORD PTR _this$[ebp]

; 258  : 			}

  0001d	8b e5		 mov	 esp, ebp
  0001f	5d		 pop	 ebp
  00020	c2 04 00	 ret	 4
??Yiterator@?$vector@UOneSubject@@V?$allocator@UOneSubject@@@std@@@std@@QAEAAV012@H@Z ENDP ; std::vector<OneSubject,std::allocator<OneSubject> >::iterator::operator+=
; Function compile flags: /Odt
_TEXT	ENDS
;	COMDAT ??Dconst_iterator@?$vector@UOneSubject@@V?$allocator@UOneSubject@@@std@@@std@@QBEABUOneSubject@@XZ
_TEXT	SEGMENT
_this$ = -4						; size = 4
??Dconst_iterator@?$vector@UOneSubject@@V?$allocator@UOneSubject@@@std@@@std@@QBEABUOneSubject@@XZ PROC NEAR ; std::vector<OneSubject,std::allocator<OneSubject> >::const_iterator::operator*, COMDAT
; _this$ = ecx

; 79   : 			{	// return designated object

  00000	55		 push	 ebp
  00001	8b ec		 mov	 ebp, esp
  00003	51		 push	 ecx
  00004	89 4d fc	 mov	 DWORD PTR _this$[ebp], ecx

; 80   : 
; 81   : 
; 82   : 			return (*_Myptr);

  00007	8b 45 fc	 mov	 eax, DWORD PTR _this$[ebp]
  0000a	8b 00		 mov	 eax, DWORD PTR [eax]

; 83   : 			}

  0000c	8b e5		 mov	 esp, ebp
  0000e	5d		 pop	 ebp
  0000f	c3		 ret	 0
??Dconst_iterator@?$vector@UOneSubject@@V?$allocator@UOneSubject@@@std@@@std@@QBEABUOneSubject@@XZ ENDP ; std::vector<OneSubject,std::allocator<OneSubject> >::const_iterator::operator*
_TEXT	ENDS
PUBLIC	??_R1A@?0A@A@logic_error@std@@8			; std::logic_error::`RTTI Base Class Descriptor at (0,-1,0,0)'
PUBLIC	??_R1A@?0A@A@exception@@8			; exception::`RTTI Base Class Descriptor at (0,-1,0,0)'
PUBLIC	??_R4length_error@std@@6B@			; std::length_error::`RTTI Complete Object Locator'
PUBLIC	??_R3length_error@std@@8			; std::length_error::`RTTI Class Hierarchy Descriptor'
PUBLIC	??_R2length_error@std@@8			; std::length_error::`RTTI Base Class Array'
PUBLIC	??_R1A@?0A@A@length_error@std@@8		; std::length_error::`RTTI Base Class Descriptor at (0,-1,0,0)'
PUBLIC	?what@logic_error@std@@UBEPBDXZ			; std::logic_error::what
PUBLIC	??_7length_error@std@@6B@			; std::length_error::`vftable'
PUBLIC	??_Glength_error@std@@UAEPAXI@Z			; std::length_error::`scalar deleting destructor'
EXTRN	??_Elength_error@std@@UAEPAXI@Z:NEAR		; std::length_error::`vector deleting destructor'
;	COMDAT ??_7length_error@std@@6B@
CONST	SEGMENT
??_7length_error@std@@6B@ DD FLAT:??_R4length_error@std@@6B@ ; std::length_error::`vftable'
	DD	FLAT:??_Elength_error@std@@UAEPAXI@Z
	DD	FLAT:?what@logic_error@std@@UBEPBDXZ
CONST	ENDS
;	COMDAT ??_R4length_error@std@@6B@
rdata$r	SEGMENT
??_R4length_error@std@@6B@ DD 00H			; std::length_error::`RTTI Complete Object Locator'
	DD	00H
	DD	00H
	DD	FLAT:??_R0?AVlength_error@std@@@8
	DD	FLAT:??_R3length_error@std@@8
rdata$r	ENDS
;	COMDAT ??_R3length_error@std@@8
rdata$r	SEGMENT
??_R3length_error@std@@8 DD 00H				; std::length_error::`RTTI Class Hierarchy Descriptor'
	DD	00H
	DD	03H
	DD	FLAT:??_R2length_error@std@@8
rdata$r	ENDS
;	COMDAT ??_R2length_error@std@@8
rdata$r	SEGMENT
??_R2length_error@std@@8 DD FLAT:??_R1A@?0A@A@length_error@std@@8 ; std::length_error::`RTTI Base Class Array'
	DD	FLAT:??_R1A@?0A@A@logic_error@std@@8
	DD	FLAT:??_R1A@?0A@A@exception@@8
rdata$r	ENDS
;	COMDAT ??_R1A@?0A@A@length_error@std@@8
rdata$r	SEGMENT
??_R1A@?0A@A@length_error@std@@8 DD FLAT:??_R0?AVlength_error@std@@@8 ; std::length_error::`RTTI Base Class Descriptor at (0,-1,0,0)'
	DD	02H
	DD	00H
	DD	0ffffffffH
	DD	00H
	DD	00H
rdata$r	ENDS
;	COMDAT ??_R1A@?0A@A@logic_error@std@@8
rdata$r	SEGMENT
??_R1A@?0A@A@logic_error@std@@8 DD FLAT:??_R0?AVlogic_error@std@@@8 ; std::logic_error::`RTTI Base Class Descriptor at (0,-1,0,0)'
	DD	01H
	DD	00H
	DD	0ffffffffH
	DD	00H
	DD	00H
rdata$r	ENDS
;	COMDAT ??_R1A@?0A@A@exception@@8
rdata$r	SEGMENT
??_R1A@?0A@A@exception@@8 DD FLAT:??_R0?AVexception@@@8	; exception::`RTTI Base Class Descriptor at (0,-1,0,0)'
	DD	00H
	DD	00H
	DD	0ffffffffH
	DD	00H
	DD	00H
; Function compile flags: /Odt
rdata$r	ENDS
;	COMDAT ??0length_error@std@@QAE@ABV01@@Z
_TEXT	SEGMENT
_this$ = -4						; size = 4
___that$ = 8						; size = 4
??0length_error@std@@QAE@ABV01@@Z PROC NEAR		; std::length_error::length_error, COMDAT
; _this$ = ecx
  00000	55		 push	 ebp
  00001	8b ec		 mov	 ebp, esp
  00003	51		 push	 ecx
  00004	89 4d fc	 mov	 DWORD PTR _this$[ebp], ecx
  00007	8b 45 08	 mov	 eax, DWORD PTR ___that$[ebp]
  0000a	50		 push	 eax
  0000b	8b 4d fc	 mov	 ecx, DWORD PTR _this$[ebp]
  0000e	e8 00 00 00 00	 call	 ??0logic_error@std@@QAE@ABV01@@Z
  00013	8b 4d fc	 mov	 ecx, DWORD PTR _this$[ebp]
  00016	c7 01 00 00 00
	00		 mov	 DWORD PTR [ecx], OFFSET FLAT:??_7length_error@std@@6B@
  0001c	8b 45 fc	 mov	 eax, DWORD PTR _this$[ebp]
  0001f	8b e5		 mov	 esp, ebp
  00021	5d		 pop	 ebp
  00022	c2 04 00	 ret	 4
??0length_error@std@@QAE@ABV01@@Z ENDP			; std::length_error::length_error
; Function compile flags: /Odt
; File d:\program files (x86)\microsoft visual studio .net 2003\vc7\include\xmemory
_TEXT	ENDS
;	COMDAT ?max_size@?$allocator@V?$basic_string@DU?$char_traits@D@std@@V?$allocator@D@2@@std@@@std@@QBEIXZ
_TEXT	SEGMENT
tv65 = -12						; size = 4
_this$ = -8						; size = 4
__Count$ = -4						; size = 4
?max_size@?$allocator@V?$basic_string@DU?$char_traits@D@std@@V?$allocator@D@2@@std@@@std@@QBEIXZ PROC NEAR ; std::allocator<std::basic_string<char,std::char_traits<char>,std::allocator<char> > >::max_size, COMDAT
; _this$ = ecx

; 156  : 		{	// estimate maximum array size

  00000	55		 push	 ebp
  00001	8b ec		 mov	 ebp, esp
  00003	83 ec 0c	 sub	 esp, 12			; 0000000cH
  00006	89 4d f8	 mov	 DWORD PTR _this$[ebp], ecx

; 157  : 		_SIZT _Count = (_SIZT)(-1) / sizeof (_Ty);

  00009	c7 45 fc 49 92
	24 09		 mov	 DWORD PTR __Count$[ebp], 153391689 ; 09249249H

; 158  : 		return (0 < _Count ? _Count : 1);

  00010	83 7d fc 00	 cmp	 DWORD PTR __Count$[ebp], 0
  00014	76 08		 jbe	 SHORT $L205820
  00016	8b 45 fc	 mov	 eax, DWORD PTR __Count$[ebp]
  00019	89 45 f4	 mov	 DWORD PTR tv65[ebp], eax
  0001c	eb 07		 jmp	 SHORT $L205821
$L205820:
  0001e	c7 45 f4 01 00
	00 00		 mov	 DWORD PTR tv65[ebp], 1
$L205821:
  00025	8b 45 f4	 mov	 eax, DWORD PTR tv65[ebp]

; 159  : 		}

  00028	8b e5		 mov	 esp, ebp
  0002a	5d		 pop	 ebp
  0002b	c3		 ret	 0
?max_size@?$allocator@V?$basic_string@DU?$char_traits@D@std@@V?$allocator@D@2@@std@@@std@@QBEIXZ ENDP ; std::allocator<std::basic_string<char,std::char_traits<char>,std::allocator<char> > >::max_size
; Function compile flags: /Odt
_TEXT	ENDS
;	COMDAT ?max_size@?$allocator@PAVIChangeSkinEventListener@@@std@@QBEIXZ
_TEXT	SEGMENT
tv65 = -12						; size = 4
_this$ = -8						; size = 4
__Count$ = -4						; size = 4
?max_size@?$allocator@PAVIChangeSkinEventListener@@@std@@QBEIXZ PROC NEAR ; std::allocator<IChangeSkinEventListener *>::max_size, COMDAT
; _this$ = ecx

; 156  : 		{	// estimate maximum array size

  00000	55		 push	 ebp
  00001	8b ec		 mov	 ebp, esp
  00003	83 ec 0c	 sub	 esp, 12			; 0000000cH
  00006	89 4d f8	 mov	 DWORD PTR _this$[ebp], ecx

; 157  : 		_SIZT _Count = (_SIZT)(-1) / sizeof (_Ty);

  00009	c7 45 fc ff ff
	ff 3f		 mov	 DWORD PTR __Count$[ebp], 1073741823 ; 3fffffffH

; 158  : 		return (0 < _Count ? _Count : 1);

  00010	83 7d fc 00	 cmp	 DWORD PTR __Count$[ebp], 0
  00014	76 08		 jbe	 SHORT $L205824
  00016	8b 45 fc	 mov	 eax, DWORD PTR __Count$[ebp]
  00019	89 45 f4	 mov	 DWORD PTR tv65[ebp], eax
  0001c	eb 07		 jmp	 SHORT $L205825
$L205824:
  0001e	c7 45 f4 01 00
	00 00		 mov	 DWORD PTR tv65[ebp], 1
$L205825:
  00025	8b 45 f4	 mov	 eax, DWORD PTR tv65[ebp]

; 159  : 		}

  00028	8b e5		 mov	 esp, ebp
  0002a	5d		 pop	 ebp
  0002b	c3		 ret	 0
?max_size@?$allocator@PAVIChangeSkinEventListener@@@std@@QBEIXZ ENDP ; std::allocator<IChangeSkinEventListener *>::max_size
; Function compile flags: /Odt
; File d:\program files (x86)\microsoft visual studio .net 2003\vc7\include\vector
_TEXT	ENDS
;	COMDAT ??Gconst_iterator@?$vector@PAVIChangeSkinEventListener@@V?$allocator@PAVIChangeSkinEventListener@@@std@@@std@@QBEHABV012@@Z
_TEXT	SEGMENT
_this$ = -4						; size = 4
__Right$ = 8						; size = 4
??Gconst_iterator@?$vector@PAVIChangeSkinEventListener@@V?$allocator@PAVIChangeSkinEventListener@@@std@@@std@@QBEHABV012@@Z PROC NEAR ; std::vector<IChangeSkinEventListener *,std::allocator<IChangeSkinEventListener *> >::const_iterator::operator-, COMDAT
; _this$ = ecx

; 140  : 			{	// return difference of iterators

  00000	55		 push	 ebp
  00001	8b ec		 mov	 ebp, esp
  00003	51		 push	 ecx
  00004	89 4d fc	 mov	 DWORD PTR _this$[ebp], ecx

; 141  : 
; 142  : 
; 143  : 			return (_Myptr - _Right._Myptr);

  00007	8b 45 fc	 mov	 eax, DWORD PTR _this$[ebp]
  0000a	8b 4d 08	 mov	 ecx, DWORD PTR __Right$[ebp]
  0000d	8b 00		 mov	 eax, DWORD PTR [eax]
  0000f	2b 01		 sub	 eax, DWORD PTR [ecx]
  00011	c1 f8 02	 sar	 eax, 2

; 144  : 			}

  00014	8b e5		 mov	 esp, ebp
  00016	5d		 pop	 ebp
  00017	c2 04 00	 ret	 4
??Gconst_iterator@?$vector@PAVIChangeSkinEventListener@@V?$allocator@PAVIChangeSkinEventListener@@@std@@@std@@QBEHABV012@@Z ENDP ; std::vector<IChangeSkinEventListener *,std::allocator<IChangeSkinEventListener *> >::const_iterator::operator-
; Function compile flags: /Odt
_TEXT	ENDS
;	COMDAT ??0const_iterator@?$vector@UOneSubject@@V?$allocator@UOneSubject@@@std@@@std@@QAE@PAUOneSubject@@@Z
_TEXT	SEGMENT
_this$ = -4						; size = 4
__Ptr$ = 8						; size = 4
??0const_iterator@?$vector@UOneSubject@@V?$allocator@UOneSubject@@@std@@@std@@QAE@PAUOneSubject@@@Z PROC NEAR ; std::vector<OneSubject,std::allocator<OneSubject> >::const_iterator::const_iterator, COMDAT
; _this$ = ecx

; 73   : 		const_iterator(_Tptr _Ptr)

  00000	55		 push	 ebp
  00001	8b ec		 mov	 ebp, esp
  00003	51		 push	 ecx
  00004	89 4d fc	 mov	 DWORD PTR _this$[ebp], ecx

; 74   : 			{	// construct with pointer _Ptr
; 75   : 			_Myptr = _Ptr;

  00007	8b 45 fc	 mov	 eax, DWORD PTR _this$[ebp]
  0000a	8b 4d 08	 mov	 ecx, DWORD PTR __Ptr$[ebp]
  0000d	89 08		 mov	 DWORD PTR [eax], ecx

; 76   : 			}

  0000f	8b 45 fc	 mov	 eax, DWORD PTR _this$[ebp]
  00012	8b e5		 mov	 esp, ebp
  00014	5d		 pop	 ebp
  00015	c2 04 00	 ret	 4
??0const_iterator@?$vector@UOneSubject@@V?$allocator@UOneSubject@@@std@@@std@@QAE@PAUOneSubject@@@Z ENDP ; std::vector<OneSubject,std::allocator<OneSubject> >::const_iterator::const_iterator
_TEXT	ENDS
PUBLIC	??$_Ptr_cat@VIChangeSkinEventListener@@@std@@YA?AU_Scalar_ptr_iterator_tag@0@PAPAVIChangeSkinEventListener@@0@Z ; std::_Ptr_cat<IChangeSkinEventListener>
PUBLIC	??$_Copy_opt@PAPAVIChangeSkinEventListener@@PAPAV1@@std@@YAPAPAVIChangeSkinEventListener@@PAPAV1@00U_Scalar_ptr_iterator_tag@0@@Z ; std::_Copy_opt<IChangeSkinEventListener * *,IChangeSkinEventListener * *>
; Function compile flags: /Odt
; File d:\program files (x86)\microsoft visual studio .net 2003\vc7\include\xutility
;	COMDAT ??$copy@PAPAVIChangeSkinEventListener@@PAPAV1@@std@@YAPAPAVIChangeSkinEventListener@@PAPAV1@00@Z
_TEXT	SEGMENT
$T205832 = -1						; size = 1
__First$ = 8						; size = 4
__Last$ = 12						; size = 4
__Dest$ = 16						; size = 4
??$copy@PAPAVIChangeSkinEventListener@@PAPAV1@@std@@YAPAPAVIChangeSkinEventListener@@PAPAV1@00@Z PROC NEAR ; std::copy<IChangeSkinEventListener * *,IChangeSkinEventListener * *>, COMDAT

; 1039 : 	{	// copy [_First, _Last) to [_Dest, ...)

  00000	55		 push	 ebp
  00001	8b ec		 mov	 ebp, esp
  00003	51		 push	 ecx

; 1040 : 	return (_Copy_opt(_First, _Last, _Dest, _Ptr_cat(_First, _Dest)));

  00004	8b 45 10	 mov	 eax, DWORD PTR __Dest$[ebp]
  00007	50		 push	 eax
  00008	8b 4d 08	 mov	 ecx, DWORD PTR __First$[ebp]
  0000b	51		 push	 ecx
  0000c	e8 00 00 00 00	 call	 ??$_Ptr_cat@VIChangeSkinEventListener@@@std@@YA?AU_Scalar_ptr_iterator_tag@0@PAPAVIChangeSkinEventListener@@0@Z ; std::_Ptr_cat<IChangeSkinEventListener>
  00011	83 c4 08	 add	 esp, 8
  00014	88 45 ff	 mov	 BYTE PTR $T205832[ebp], al
  00017	8a 55 ff	 mov	 dl, BYTE PTR $T205832[ebp]
  0001a	52		 push	 edx
  0001b	8b 45 10	 mov	 eax, DWORD PTR __Dest$[ebp]
  0001e	50		 push	 eax
  0001f	8b 4d 0c	 mov	 ecx, DWORD PTR __Last$[ebp]
  00022	51		 push	 ecx
  00023	8b 55 08	 mov	 edx, DWORD PTR __First$[ebp]
  00026	52		 push	 edx
  00027	e8 00 00 00 00	 call	 ??$_Copy_opt@PAPAVIChangeSkinEventListener@@PAPAV1@@std@@YAPAPAVIChangeSkinEventListener@@PAPAV1@00U_Scalar_ptr_iterator_tag@0@@Z ; std::_Copy_opt<IChangeSkinEventListener * *,IChangeSkinEventListener * *>
  0002c	83 c4 10	 add	 esp, 16			; 00000010H

; 1041 : 	}

  0002f	8b e5		 mov	 esp, ebp
  00031	5d		 pop	 ebp
  00032	c3		 ret	 0
??$copy@PAPAVIChangeSkinEventListener@@PAPAV1@@std@@YAPAPAVIChangeSkinEventListener@@PAPAV1@00@Z ENDP ; std::copy<IChangeSkinEventListener * *,IChangeSkinEventListener * *>
_TEXT	ENDS
PUBLIC	??$_Destroy_range@PAVIChangeSkinEventListener@@V?$allocator@PAVIChangeSkinEventListener@@@std@@@std@@YAXPAPAVIChangeSkinEventListener@@0AAV?$allocator@PAVIChangeSkinEventListener@@@0@U_Scalar_ptr_iterator_tag@0@@Z ; std::_Destroy_range<IChangeSkinEventListener *,std::allocator<IChangeSkinEventListener *> >
; Function compile flags: /Odt
; File d:\program files (x86)\microsoft visual studio .net 2003\vc7\include\xmemory
;	COMDAT ??$_Destroy_range@PAVIChangeSkinEventListener@@V?$allocator@PAVIChangeSkinEventListener@@@std@@@std@@YAXPAPAVIChangeSkinEventListener@@0AAV?$allocator@PAVIChangeSkinEventListener@@@0@@Z
_TEXT	SEGMENT
$T205835 = -1						; size = 1
__First$ = 8						; size = 4
__Last$ = 12						; size = 4
__Al$ = 16						; size = 4
??$_Destroy_range@PAVIChangeSkinEventListener@@V?$allocator@PAVIChangeSkinEventListener@@@std@@@std@@YAXPAPAVIChangeSkinEventListener@@0AAV?$allocator@PAVIChangeSkinEventListener@@@0@@Z PROC NEAR ; std::_Destroy_range<IChangeSkinEventListener *,std::allocator<IChangeSkinEventListener *> >, COMDAT

; 216  : 	{	// destroy [_First, _Last)

  00000	55		 push	 ebp
  00001	8b ec		 mov	 ebp, esp
  00003	51		 push	 ecx

; 217  : 	_Destroy_range(_First, _Last, _Al, _Ptr_cat(_First, _Last));

  00004	8b 45 0c	 mov	 eax, DWORD PTR __Last$[ebp]
  00007	50		 push	 eax
  00008	8b 4d 08	 mov	 ecx, DWORD PTR __First$[ebp]
  0000b	51		 push	 ecx
  0000c	e8 00 00 00 00	 call	 ??$_Ptr_cat@VIChangeSkinEventListener@@@std@@YA?AU_Scalar_ptr_iterator_tag@0@PAPAVIChangeSkinEventListener@@0@Z ; std::_Ptr_cat<IChangeSkinEventListener>
  00011	83 c4 08	 add	 esp, 8
  00014	88 45 ff	 mov	 BYTE PTR $T205835[ebp], al
  00017	8a 55 ff	 mov	 dl, BYTE PTR $T205835[ebp]
  0001a	52		 push	 edx
  0001b	8b 45 10	 mov	 eax, DWORD PTR __Al$[ebp]
  0001e	50		 push	 eax
  0001f	8b 4d 0c	 mov	 ecx, DWORD PTR __Last$[ebp]
  00022	51		 push	 ecx
  00023	8b 55 08	 mov	 edx, DWORD PTR __First$[ebp]
  00026	52		 push	 edx
  00027	e8 00 00 00 00	 call	 ??$_Destroy_range@PAVIChangeSkinEventListener@@V?$allocator@PAVIChangeSkinEventListener@@@std@@@std@@YAXPAPAVIChangeSkinEventListener@@0AAV?$allocator@PAVIChangeSkinEventListener@@@0@U_Scalar_ptr_iterator_tag@0@@Z ; std::_Destroy_range<IChangeSkinEventListener *,std::allocator<IChangeSkinEventListener *> >
  0002c	83 c4 10	 add	 esp, 16			; 00000010H

; 218  : 	}

  0002f	8b e5		 mov	 esp, ebp
  00031	5d		 pop	 ebp
  00032	c3		 ret	 0
??$_Destroy_range@PAVIChangeSkinEventListener@@V?$allocator@PAVIChangeSkinEventListener@@@std@@@std@@YAXPAPAVIChangeSkinEventListener@@0AAV?$allocator@PAVIChangeSkinEventListener@@@0@@Z ENDP ; std::_Destroy_range<IChangeSkinEventListener *,std::allocator<IChangeSkinEventListener *> >
_TEXT	ENDS
PUBLIC	??$_Uninit_fill_n@PAVIChangeSkinEventListener@@IPAV1@@std@@YAXPAPAVIChangeSkinEventListener@@IABQAV1@AAV?$allocator@PAVIChangeSkinEventListener@@@0@U_Scalar_ptr_iterator_tag@0@@Z ; std::_Uninit_fill_n<IChangeSkinEventListener *,unsigned int,IChangeSkinEventListener *>
; Function compile flags: /Odt
; File d:\program files (x86)\microsoft visual studio .net 2003\vc7\include\memory
;	COMDAT ??$_Uninitialized_fill_n@PAPAVIChangeSkinEventListener@@IPAV1@V?$allocator@PAVIChangeSkinEventListener@@@std@@@std@@YAXPAPAVIChangeSkinEventListener@@IABQAV1@AAV?$allocator@PAVIChangeSkinEventListener@@@0@@Z
_TEXT	SEGMENT
$T205838 = -1						; size = 1
__First$ = 8						; size = 4
__Count$ = 12						; size = 4
__Val$ = 16						; size = 4
__Al$ = 20						; size = 4
??$_Uninitialized_fill_n@PAPAVIChangeSkinEventListener@@IPAV1@V?$allocator@PAVIChangeSkinEventListener@@@std@@@std@@YAXPAPAVIChangeSkinEventListener@@IABQAV1@AAV?$allocator@PAVIChangeSkinEventListener@@@0@@Z PROC NEAR ; std::_Uninitialized_fill_n<IChangeSkinEventListener * *,unsigned int,IChangeSkinEventListener *,std::allocator<IChangeSkinEventListener *> >, COMDAT

; 255  : 	{	// copy _Count *_Val to raw _First, using _Al

  00000	55		 push	 ebp
  00001	8b ec		 mov	 ebp, esp
  00003	51		 push	 ecx

; 256  : 	_Uninit_fill_n(_First, _Count, _Val, _Al,
; 257  : 		_Ptr_cat(_First, _First));

  00004	8b 45 08	 mov	 eax, DWORD PTR __First$[ebp]
  00007	50		 push	 eax
  00008	8b 4d 08	 mov	 ecx, DWORD PTR __First$[ebp]
  0000b	51		 push	 ecx
  0000c	e8 00 00 00 00	 call	 ??$_Ptr_cat@VIChangeSkinEventListener@@@std@@YA?AU_Scalar_ptr_iterator_tag@0@PAPAVIChangeSkinEventListener@@0@Z ; std::_Ptr_cat<IChangeSkinEventListener>
  00011	83 c4 08	 add	 esp, 8
  00014	88 45 ff	 mov	 BYTE PTR $T205838[ebp], al
  00017	8a 55 ff	 mov	 dl, BYTE PTR $T205838[ebp]
  0001a	52		 push	 edx
  0001b	8b 45 14	 mov	 eax, DWORD PTR __Al$[ebp]
  0001e	50		 push	 eax
  0001f	8b 4d 10	 mov	 ecx, DWORD PTR __Val$[ebp]
  00022	51		 push	 ecx
  00023	8b 55 0c	 mov	 edx, DWORD PTR __Count$[ebp]
  00026	52		 push	 edx
  00027	8b 45 08	 mov	 eax, DWORD PTR __First$[ebp]
  0002a	50		 push	 eax
  0002b	e8 00 00 00 00	 call	 ??$_Uninit_fill_n@PAVIChangeSkinEventListener@@IPAV1@@std@@YAXPAPAVIChangeSkinEventListener@@IABQAV1@AAV?$allocator@PAVIChangeSkinEventListener@@@0@U_Scalar_ptr_iterator_tag@0@@Z ; std::_Uninit_fill_n<IChangeSkinEventListener *,unsigned int,IChangeSkinEventListener *>
  00030	83 c4 14	 add	 esp, 20			; 00000014H

; 258  : 	}

  00033	8b e5		 mov	 esp, ebp
  00035	5d		 pop	 ebp
  00036	c3		 ret	 0
??$_Uninitialized_fill_n@PAPAVIChangeSkinEventListener@@IPAV1@V?$allocator@PAVIChangeSkinEventListener@@@std@@@std@@YAXPAPAVIChangeSkinEventListener@@IABQAV1@AAV?$allocator@PAVIChangeSkinEventListener@@@0@@Z ENDP ; std::_Uninitialized_fill_n<IChangeSkinEventListener * *,unsigned int,IChangeSkinEventListener *,std::allocator<IChangeSkinEventListener *> >
; Function compile flags: /Odt
; File d:\program files (x86)\microsoft visual studio .net 2003\vc7\include\xmemory
_TEXT	ENDS
;	COMDAT ??$_Allocate@V?$basic_string@DU?$char_traits@D@std@@V?$allocator@D@2@@std@@@std@@YAPAV?$basic_string@DU?$char_traits@D@std@@V?$allocator@D@2@@0@IPAV10@@Z
_TEXT	SEGMENT
__Count$ = 8						; size = 4
___formal$ = 12						; size = 4
??$_Allocate@V?$basic_string@DU?$char_traits@D@std@@V?$allocator@D@2@@std@@@std@@YAPAV?$basic_string@DU?$char_traits@D@std@@V?$allocator@D@2@@0@IPAV10@@Z PROC NEAR ; std::_Allocate<std::basic_string<char,std::char_traits<char>,std::allocator<char> > >, COMDAT

; 33   : 	{	// allocate storage for _Count elements of type _Ty

  00000	55		 push	 ebp
  00001	8b ec		 mov	 ebp, esp

; 34   : 	return ((_Ty _FARQ *)operator new(_Count * sizeof (_Ty)));

  00003	8b 45 08	 mov	 eax, DWORD PTR __Count$[ebp]
  00006	6b c0 1c	 imul	 eax, 28			; 0000001cH
  00009	50		 push	 eax
  0000a	e8 00 00 00 00	 call	 ??2@YAPAXI@Z		; operator new
  0000f	83 c4 04	 add	 esp, 4

; 35   : 	}

  00012	5d		 pop	 ebp
  00013	c3		 ret	 0
??$_Allocate@V?$basic_string@DU?$char_traits@D@std@@V?$allocator@D@2@@std@@@std@@YAPAV?$basic_string@DU?$char_traits@D@std@@V?$allocator@D@2@@0@IPAV10@@Z ENDP ; std::_Allocate<std::basic_string<char,std::char_traits<char>,std::allocator<char> > >
_TEXT	ENDS
PUBLIC	??$_Uninitialized_copy@PAPAVIChangeSkinEventListener@@PAPAV1@V?$allocator@PAVIChangeSkinEventListener@@@std@@@std@@YAPAPAVIChangeSkinEventListener@@PAPAV1@00AAV?$allocator@PAVIChangeSkinEventListener@@@0@@Z ; std::_Uninitialized_copy<IChangeSkinEventListener * *,IChangeSkinEventListener * *,std::allocator<IChangeSkinEventListener *> >
; Function compile flags: /Odt
; File d:\program files (x86)\microsoft visual studio .net 2003\vc7\include\vector
;	COMDAT ??$_Ucopy@PAPAVIChangeSkinEventListener@@@?$vector@PAVIChangeSkinEventListener@@V?$allocator@PAVIChangeSkinEventListener@@@std@@@std@@IAEPAPAVIChangeSkinEventListener@@PAPAV2@00@Z
_TEXT	SEGMENT
_this$ = -4						; size = 4
__First$ = 8						; size = 4
__Last$ = 12						; size = 4
__Ptr$ = 16						; size = 4
??$_Ucopy@PAPAVIChangeSkinEventListener@@@?$vector@PAVIChangeSkinEventListener@@V?$allocator@PAVIChangeSkinEventListener@@@std@@@std@@IAEPAPAVIChangeSkinEventListener@@PAPAV2@00@Z PROC NEAR ; std::vector<IChangeSkinEventListener *,std::allocator<IChangeSkinEventListener *> >::_Ucopy<IChangeSkinEventListener * *>, COMDAT
; _this$ = ecx

; 801  : 		pointer _Ucopy(_Iter _First, _Iter _Last, pointer _Ptr)

  00000	55		 push	 ebp
  00001	8b ec		 mov	 ebp, esp
  00003	51		 push	 ecx
  00004	89 4d fc	 mov	 DWORD PTR _this$[ebp], ecx

; 802  : 		{	// copy initializing [_First, _Last), using allocator
; 803  : 		return (_Uninitialized_copy(_First, _Last,
; 804  : 			_Ptr, this->_Alval));

  00007	8b 45 fc	 mov	 eax, DWORD PTR _this$[ebp]
  0000a	50		 push	 eax
  0000b	8b 4d 10	 mov	 ecx, DWORD PTR __Ptr$[ebp]
  0000e	51		 push	 ecx
  0000f	8b 55 0c	 mov	 edx, DWORD PTR __Last$[ebp]
  00012	52		 push	 edx
  00013	8b 45 08	 mov	 eax, DWORD PTR __First$[ebp]
  00016	50		 push	 eax
  00017	e8 00 00 00 00	 call	 ??$_Uninitialized_copy@PAPAVIChangeSkinEventListener@@PAPAV1@V?$allocator@PAVIChangeSkinEventListener@@@std@@@std@@YAPAPAVIChangeSkinEventListener@@PAPAV1@00AAV?$allocator@PAVIChangeSkinEventListener@@@0@@Z ; std::_Uninitialized_copy<IChangeSkinEventListener * *,IChangeSkinEventListener * *,std::allocator<IChangeSkinEventListener *> >
  0001c	83 c4 10	 add	 esp, 16			; 00000010H

; 805  : 		}

  0001f	8b e5		 mov	 esp, ebp
  00021	5d		 pop	 ebp
  00022	c2 0c 00	 ret	 12			; 0000000cH
??$_Ucopy@PAPAVIChangeSkinEventListener@@@?$vector@PAVIChangeSkinEventListener@@V?$allocator@PAVIChangeSkinEventListener@@@std@@@std@@IAEPAPAVIChangeSkinEventListener@@PAPAV2@00@Z ENDP ; std::vector<IChangeSkinEventListener *,std::allocator<IChangeSkinEventListener *> >::_Ucopy<IChangeSkinEventListener * *>
; Function compile flags: /Odt
; File d:\program files (x86)\microsoft visual studio .net 2003\vc7\include\xutility
_TEXT	ENDS
;	COMDAT ??$fill@PAPAVIChangeSkinEventListener@@PAV1@@std@@YAXPAPAVIChangeSkinEventListener@@0ABQAV1@@Z
_TEXT	SEGMENT
__First$ = 8						; size = 4
__Last$ = 12						; size = 4
__Val$ = 16						; size = 4
??$fill@PAPAVIChangeSkinEventListener@@PAV1@@std@@YAXPAPAVIChangeSkinEventListener@@0ABQAV1@@Z PROC NEAR ; std::fill<IChangeSkinEventListener * *,IChangeSkinEventListener *>, COMDAT

; 1134 : 	{	// copy _Val through [_First, _Last)

  00000	55		 push	 ebp
  00001	8b ec		 mov	 ebp, esp

; 1135 : 	for (; _First != _Last; ++_First)

  00003	eb 09		 jmp	 SHORT $L204082
$L204083:
  00005	8b 45 08	 mov	 eax, DWORD PTR __First$[ebp]
  00008	83 c0 04	 add	 eax, 4
  0000b	89 45 08	 mov	 DWORD PTR __First$[ebp], eax
$L204082:
  0000e	8b 4d 08	 mov	 ecx, DWORD PTR __First$[ebp]
  00011	3b 4d 0c	 cmp	 ecx, DWORD PTR __Last$[ebp]
  00014	74 0c		 je	 SHORT $L204081

; 1136 : 		*_First = _Val;

  00016	8b 55 08	 mov	 edx, DWORD PTR __First$[ebp]
  00019	8b 45 10	 mov	 eax, DWORD PTR __Val$[ebp]
  0001c	8b 08		 mov	 ecx, DWORD PTR [eax]
  0001e	89 0a		 mov	 DWORD PTR [edx], ecx
  00020	eb e3		 jmp	 SHORT $L204083
$L204081:

; 1137 : 	}

  00022	5d		 pop	 ebp
  00023	c3		 ret	 0
??$fill@PAPAVIChangeSkinEventListener@@PAV1@@std@@YAXPAPAVIChangeSkinEventListener@@0ABQAV1@@Z ENDP ; std::fill<IChangeSkinEventListener * *,IChangeSkinEventListener *>
_TEXT	ENDS
PUBLIC	??$_Copy_backward_opt@PAPAVIChangeSkinEventListener@@PAPAV1@@std@@YAPAPAVIChangeSkinEventListener@@PAPAV1@00U_Scalar_ptr_iterator_tag@0@@Z ; std::_Copy_backward_opt<IChangeSkinEventListener * *,IChangeSkinEventListener * *>
; Function compile flags: /Odt
;	COMDAT ??$copy_backward@PAPAVIChangeSkinEventListener@@PAPAV1@@std@@YAPAPAVIChangeSkinEventListener@@PAPAV1@00@Z
_TEXT	SEGMENT
$T205847 = -1						; size = 1
__First$ = 8						; size = 4
__Last$ = 12						; size = 4
__Dest$ = 16						; size = 4
??$copy_backward@PAPAVIChangeSkinEventListener@@PAPAV1@@std@@YAPAPAVIChangeSkinEventListener@@PAPAV1@00@Z PROC NEAR ; std::copy_backward<IChangeSkinEventListener * *,IChangeSkinEventListener * *>, COMDAT

; 1067 : 	{	// copy [_First, _Last) backwards to [..., _Dest)

  00000	55		 push	 ebp
  00001	8b ec		 mov	 ebp, esp
  00003	51		 push	 ecx

; 1068 : 	return (_Copy_backward_opt(_First, _Last, _Dest,
; 1069 : 		_Ptr_cat(_First, _Dest)));

  00004	8b 45 10	 mov	 eax, DWORD PTR __Dest$[ebp]
  00007	50		 push	 eax
  00008	8b 4d 08	 mov	 ecx, DWORD PTR __First$[ebp]
  0000b	51		 push	 ecx
  0000c	e8 00 00 00 00	 call	 ??$_Ptr_cat@VIChangeSkinEventListener@@@std@@YA?AU_Scalar_ptr_iterator_tag@0@PAPAVIChangeSkinEventListener@@0@Z ; std::_Ptr_cat<IChangeSkinEventListener>
  00011	83 c4 08	 add	 esp, 8
  00014	88 45 ff	 mov	 BYTE PTR $T205847[ebp], al
  00017	8a 55 ff	 mov	 dl, BYTE PTR $T205847[ebp]
  0001a	52		 push	 edx
  0001b	8b 45 10	 mov	 eax, DWORD PTR __Dest$[ebp]
  0001e	50		 push	 eax
  0001f	8b 4d 0c	 mov	 ecx, DWORD PTR __Last$[ebp]
  00022	51		 push	 ecx
  00023	8b 55 08	 mov	 edx, DWORD PTR __First$[ebp]
  00026	52		 push	 edx
  00027	e8 00 00 00 00	 call	 ??$_Copy_backward_opt@PAPAVIChangeSkinEventListener@@PAPAV1@@std@@YAPAPAVIChangeSkinEventListener@@PAPAV1@00U_Scalar_ptr_iterator_tag@0@@Z ; std::_Copy_backward_opt<IChangeSkinEventListener * *,IChangeSkinEventListener * *>
  0002c	83 c4 10	 add	 esp, 16			; 00000010H

; 1070 : 	}

  0002f	8b e5		 mov	 esp, ebp
  00031	5d		 pop	 ebp
  00032	c3		 ret	 0
??$copy_backward@PAPAVIChangeSkinEventListener@@PAPAV1@@std@@YAPAPAVIChangeSkinEventListener@@PAPAV1@00@Z ENDP ; std::copy_backward<IChangeSkinEventListener * *,IChangeSkinEventListener * *>
; Function compile flags: /Odt
; File d:\program files (x86)\microsoft visual studio .net 2003\vc7\include\xmemory
_TEXT	ENDS
;	COMDAT ??$_Allocate@PAVIChangeSkinEventListener@@@std@@YAPAPAVIChangeSkinEventListener@@IPAPAV1@@Z
_TEXT	SEGMENT
__Count$ = 8						; size = 4
___formal$ = 12						; size = 4
??$_Allocate@PAVIChangeSkinEventListener@@@std@@YAPAPAVIChangeSkinEventListener@@IPAPAV1@@Z PROC NEAR ; std::_Allocate<IChangeSkinEventListener *>, COMDAT

; 33   : 	{	// allocate storage for _Count elements of type _Ty

  00000	55		 push	 ebp
  00001	8b ec		 mov	 ebp, esp

; 34   : 	return ((_Ty _FARQ *)operator new(_Count * sizeof (_Ty)));

  00003	8b 45 08	 mov	 eax, DWORD PTR __Count$[ebp]
  00006	c1 e0 02	 shl	 eax, 2
  00009	50		 push	 eax
  0000a	e8 00 00 00 00	 call	 ??2@YAPAXI@Z		; operator new
  0000f	83 c4 04	 add	 esp, 4

; 35   : 	}

  00012	5d		 pop	 ebp
  00013	c3		 ret	 0
??$_Allocate@PAVIChangeSkinEventListener@@@std@@YAPAPAVIChangeSkinEventListener@@IPAPAV1@@Z ENDP ; std::_Allocate<IChangeSkinEventListener *>
_TEXT	ENDS
PUBLIC	??$_Ptr_cat@PAV?$basic_string@DU?$char_traits@D@std@@V?$allocator@D@2@@std@@PAV12@@std@@YA?AU_Nonscalar_ptr_iterator_tag@0@AAPAV?$basic_string@DU?$char_traits@D@std@@V?$allocator@D@2@@0@0@Z ; std::_Ptr_cat<std::basic_string<char,std::char_traits<char>,std::allocator<char> > *,std::basic_string<char,std::char_traits<char>,std::allocator<char> > *>
PUBLIC	??$_Destroy_range@V?$basic_string@DU?$char_traits@D@std@@V?$allocator@D@2@@std@@V?$allocator@V?$basic_string@DU?$char_traits@D@std@@V?$allocator@D@2@@std@@@2@@std@@YAXPAV?$basic_string@DU?$char_traits@D@std@@V?$allocator@D@2@@0@0AAV?$allocator@V?$basic_string@DU?$char_traits@D@std@@V?$allocator@D@2@@std@@@0@U_Nonscalar_ptr_iterator_tag@0@@Z ; std::_Destroy_range<std::basic_string<char,std::char_traits<char>,std::allocator<char> >,std::allocator<std::basic_string<char,std::char_traits<char>,std::allocator<char> > > >
; Function compile flags: /Odt
;	COMDAT ??$_Destroy_range@V?$basic_string@DU?$char_traits@D@std@@V?$allocator@D@2@@std@@V?$allocator@V?$basic_string@DU?$char_traits@D@std@@V?$allocator@D@2@@std@@@2@@std@@YAXPAV?$basic_string@DU?$char_traits@D@std@@V?$allocator@D@2@@0@0AAV?$allocator@V?$basic_string@DU?$char_traits@D@std@@V?$allocator@D@2@@std@@@0@@Z
_TEXT	SEGMENT
$T205852 = -1						; size = 1
__First$ = 8						; size = 4
__Last$ = 12						; size = 4
__Al$ = 16						; size = 4
??$_Destroy_range@V?$basic_string@DU?$char_traits@D@std@@V?$allocator@D@2@@std@@V?$allocator@V?$basic_string@DU?$char_traits@D@std@@V?$allocator@D@2@@std@@@2@@std@@YAXPAV?$basic_string@DU?$char_traits@D@std@@V?$allocator@D@2@@0@0AAV?$allocator@V?$basic_string@DU?$char_traits@D@std@@V?$allocator@D@2@@std@@@0@@Z PROC NEAR ; std::_Destroy_range<std::basic_string<char,std::char_traits<char>,std::allocator<char> >,std::allocator<std::basic_string<char,std::char_traits<char>,std::allocator<char> > > >, COMDAT

; 216  : 	{	// destroy [_First, _Last)

  00000	55		 push	 ebp
  00001	8b ec		 mov	 ebp, esp
  00003	51		 push	 ecx

; 217  : 	_Destroy_range(_First, _Last, _Al, _Ptr_cat(_First, _Last));

  00004	8d 45 0c	 lea	 eax, DWORD PTR __Last$[ebp]
  00007	50		 push	 eax
  00008	8d 4d 08	 lea	 ecx, DWORD PTR __First$[ebp]
  0000b	51		 push	 ecx
  0000c	e8 00 00 00 00	 call	 ??$_Ptr_cat@PAV?$basic_string@DU?$char_traits@D@std@@V?$allocator@D@2@@std@@PAV12@@std@@YA?AU_Nonscalar_ptr_iterator_tag@0@AAPAV?$basic_string@DU?$char_traits@D@std@@V?$allocator@D@2@@0@0@Z ; std::_Ptr_cat<std::basic_string<char,std::char_traits<char>,std::allocator<char> > *,std::basic_string<char,std::char_traits<char>,std::allocator<char> > *>
  00011	83 c4 08	 add	 esp, 8
  00014	88 45 ff	 mov	 BYTE PTR $T205852[ebp], al
  00017	8a 55 ff	 mov	 dl, BYTE PTR $T205852[ebp]
  0001a	52		 push	 edx
  0001b	8b 45 10	 mov	 eax, DWORD PTR __Al$[ebp]
  0001e	50		 push	 eax
  0001f	8b 4d 0c	 mov	 ecx, DWORD PTR __Last$[ebp]
  00022	51		 push	 ecx
  00023	8b 55 08	 mov	 edx, DWORD PTR __First$[ebp]
  00026	52		 push	 edx
  00027	e8 00 00 00 00	 call	 ??$_Destroy_range@V?$basic_string@DU?$char_traits@D@std@@V?$allocator@D@2@@std@@V?$allocator@V?$basic_string@DU?$char_traits@D@std@@V?$allocator@D@2@@std@@@2@@std@@YAXPAV?$basic_string@DU?$char_traits@D@std@@V?$allocator@D@2@@0@0AAV?$allocator@V?$basic_string@DU?$char_traits@D@std@@V?$allocator@D@2@@std@@@0@U_Nonscalar_ptr_iterator_tag@0@@Z ; std::_Destroy_range<std::basic_string<char,std::char_traits<char>,std::allocator<char> >,std::allocator<std::basic_string<char,std::char_traits<char>,std::allocator<char> > > >
  0002c	83 c4 10	 add	 esp, 16			; 00000010H

; 218  : 	}

  0002f	8b e5		 mov	 esp, ebp
  00031	5d		 pop	 ebp
  00032	c3		 ret	 0
??$_Destroy_range@V?$basic_string@DU?$char_traits@D@std@@V?$allocator@D@2@@std@@V?$allocator@V?$basic_string@DU?$char_traits@D@std@@V?$allocator@D@2@@std@@@2@@std@@YAXPAV?$basic_string@DU?$char_traits@D@std@@V?$allocator@D@2@@0@0AAV?$allocator@V?$basic_string@DU?$char_traits@D@std@@V?$allocator@D@2@@std@@@0@@Z ENDP ; std::_Destroy_range<std::basic_string<char,std::char_traits<char>,std::allocator<char> >,std::allocator<std::basic_string<char,std::char_traits<char>,std::allocator<char> > > >
; Function compile flags: /Odt
; File d:\program files (x86)\microsoft visual studio .net 2003\vc7\include\xutility
_TEXT	ENDS
;	COMDAT ??$_Ptr_cat@VIChangeSkinEventListener@@@std@@YA?AU_Scalar_ptr_iterator_tag@0@PAPAVIChangeSkinEventListener@@0@Z
_TEXT	SEGMENT
__Cat$ = -1						; size = 1
___formal$ = 8						; size = 4
___formal$ = 12						; size = 4
??$_Ptr_cat@VIChangeSkinEventListener@@@std@@YA?AU_Scalar_ptr_iterator_tag@0@PAPAVIChangeSkinEventListener@@0@Z PROC NEAR ; std::_Ptr_cat<IChangeSkinEventListener>, COMDAT

; 218  : 	{	// return pointer category from pointer to pointer arguments

  00000	55		 push	 ebp
  00001	8b ec		 mov	 ebp, esp
  00003	51		 push	 ecx

; 219  : 	_Scalar_ptr_iterator_tag _Cat;
; 220  : 	return (_Cat);

  00004	8a 45 ff	 mov	 al, BYTE PTR __Cat$[ebp]

; 221  : 	}

  00007	8b e5		 mov	 esp, ebp
  00009	5d		 pop	 ebp
  0000a	c3		 ret	 0
??$_Ptr_cat@VIChangeSkinEventListener@@@std@@YA?AU_Scalar_ptr_iterator_tag@0@PAPAVIChangeSkinEventListener@@0@Z ENDP ; std::_Ptr_cat<IChangeSkinEventListener>
_TEXT	ENDS
EXTRN	__imp__memmove:NEAR
; Function compile flags: /Odt
;	COMDAT ??$_Copy_opt@PAPAVIChangeSkinEventListener@@PAPAV1@@std@@YAPAPAVIChangeSkinEventListener@@PAPAV1@00U_Scalar_ptr_iterator_tag@0@@Z
_TEXT	SEGMENT
__Off$ = -4						; size = 4
__First$ = 8						; size = 4
__Last$ = 12						; size = 4
__Dest$ = 16						; size = 4
___formal$ = 20						; size = 1
??$_Copy_opt@PAPAVIChangeSkinEventListener@@PAPAV1@@std@@YAPAPAVIChangeSkinEventListener@@PAPAV1@00U_Scalar_ptr_iterator_tag@0@@Z PROC NEAR ; std::_Copy_opt<IChangeSkinEventListener * *,IChangeSkinEventListener * *>, COMDAT

; 1030 : 	{	// copy [_First, _Last) to [_Dest, ...), pointers to scalars

  00000	55		 push	 ebp
  00001	8b ec		 mov	 ebp, esp
  00003	51		 push	 ecx

; 1031 : 	ptrdiff_t _Off = _Last - _First;	// NB: non-overlapping move

  00004	8b 45 0c	 mov	 eax, DWORD PTR __Last$[ebp]
  00007	2b 45 08	 sub	 eax, DWORD PTR __First$[ebp]
  0000a	c1 f8 02	 sar	 eax, 2
  0000d	89 45 fc	 mov	 DWORD PTR __Off$[ebp], eax

; 1032 : 	return ((_OutIt)::memmove(&*_Dest, &*_First,
; 1033 : 		_Off * sizeof (*_First)) + _Off);

  00010	8b 4d fc	 mov	 ecx, DWORD PTR __Off$[ebp]
  00013	c1 e1 02	 shl	 ecx, 2
  00016	51		 push	 ecx
  00017	8b 55 08	 mov	 edx, DWORD PTR __First$[ebp]
  0001a	52		 push	 edx
  0001b	8b 45 10	 mov	 eax, DWORD PTR __Dest$[ebp]
  0001e	50		 push	 eax
  0001f	ff 15 00 00 00
	00		 call	 DWORD PTR __imp__memmove
  00025	83 c4 0c	 add	 esp, 12			; 0000000cH
  00028	8b 4d fc	 mov	 ecx, DWORD PTR __Off$[ebp]
  0002b	8d 04 88	 lea	 eax, DWORD PTR [eax+ecx*4]

; 1034 : 	}

  0002e	8b e5		 mov	 esp, ebp
  00030	5d		 pop	 ebp
  00031	c3		 ret	 0
??$_Copy_opt@PAPAVIChangeSkinEventListener@@PAPAV1@@std@@YAPAPAVIChangeSkinEventListener@@PAPAV1@00U_Scalar_ptr_iterator_tag@0@@Z ENDP ; std::_Copy_opt<IChangeSkinEventListener * *,IChangeSkinEventListener * *>
; Function compile flags: /Odt
; File d:\program files (x86)\microsoft visual studio .net 2003\vc7\include\xmemory
_TEXT	ENDS
;	COMDAT ??$_Destroy_range@PAVIChangeSkinEventListener@@V?$allocator@PAVIChangeSkinEventListener@@@std@@@std@@YAXPAPAVIChangeSkinEventListener@@0AAV?$allocator@PAVIChangeSkinEventListener@@@0@U_Scalar_ptr_iterator_tag@0@@Z
_TEXT	SEGMENT
__First$ = 8						; size = 4
__Last$ = 12						; size = 4
__Al$ = 16						; size = 4
___formal$ = 20						; size = 1
??$_Destroy_range@PAVIChangeSkinEventListener@@V?$allocator@PAVIChangeSkinEventListener@@@std@@@std@@YAXPAPAVIChangeSkinEventListener@@0AAV?$allocator@PAVIChangeSkinEventListener@@@0@U_Scalar_ptr_iterator_tag@0@@Z PROC NEAR ; std::_Destroy_range<IChangeSkinEventListener *,std::allocator<IChangeSkinEventListener *> >, COMDAT

; 233  : 	{	// destroy [_First, _Last), scalar type (do nothing)

  00000	55		 push	 ebp
  00001	8b ec		 mov	 ebp, esp

; 234  : 	}

  00003	5d		 pop	 ebp
  00004	c3		 ret	 0
??$_Destroy_range@PAVIChangeSkinEventListener@@V?$allocator@PAVIChangeSkinEventListener@@@std@@@std@@YAXPAPAVIChangeSkinEventListener@@0AAV?$allocator@PAVIChangeSkinEventListener@@@0@U_Scalar_ptr_iterator_tag@0@@Z ENDP ; std::_Destroy_range<IChangeSkinEventListener *,std::allocator<IChangeSkinEventListener *> >
_TEXT	ENDS
PUBLIC	??$fill_n@PAPAVIChangeSkinEventListener@@IPAV1@@std@@YAXPAPAVIChangeSkinEventListener@@IABQAV1@@Z ; std::fill_n<IChangeSkinEventListener * *,unsigned int,IChangeSkinEventListener *>
; Function compile flags: /Odt
; File d:\program files (x86)\microsoft visual studio .net 2003\vc7\include\memory
;	COMDAT ??$_Uninit_fill_n@PAVIChangeSkinEventListener@@IPAV1@@std@@YAXPAPAVIChangeSkinEventListener@@IABQAV1@AAV?$allocator@PAVIChangeSkinEventListener@@@0@U_Scalar_ptr_iterator_tag@0@@Z
_TEXT	SEGMENT
__First$ = 8						; size = 4
__Count$ = 12						; size = 4
__Val$ = 16						; size = 4
___formal$ = 20						; size = 4
___formal$ = 24						; size = 1
??$_Uninit_fill_n@PAVIChangeSkinEventListener@@IPAV1@@std@@YAXPAPAVIChangeSkinEventListener@@IABQAV1@AAV?$allocator@PAVIChangeSkinEventListener@@@0@U_Scalar_ptr_iterator_tag@0@@Z PROC NEAR ; std::_Uninit_fill_n<IChangeSkinEventListener *,unsigned int,IChangeSkinEventListener *>, COMDAT

; 236  : 	{	// copy _Count *_Val to raw _First, using _Al, scalar type

  00000	55		 push	 ebp
  00001	8b ec		 mov	 ebp, esp

; 237  : 	fill_n(_First, _Count, _Val);

  00003	8b 45 10	 mov	 eax, DWORD PTR __Val$[ebp]
  00006	50		 push	 eax
  00007	8b 4d 0c	 mov	 ecx, DWORD PTR __Count$[ebp]
  0000a	51		 push	 ecx
  0000b	8b 55 08	 mov	 edx, DWORD PTR __First$[ebp]
  0000e	52		 push	 edx
  0000f	e8 00 00 00 00	 call	 ??$fill_n@PAPAVIChangeSkinEventListener@@IPAV1@@std@@YAXPAPAVIChangeSkinEventListener@@IABQAV1@@Z ; std::fill_n<IChangeSkinEventListener * *,unsigned int,IChangeSkinEventListener *>
  00014	83 c4 0c	 add	 esp, 12			; 0000000cH

; 238  : 	}

  00017	5d		 pop	 ebp
  00018	c3		 ret	 0
??$_Uninit_fill_n@PAVIChangeSkinEventListener@@IPAV1@@std@@YAXPAPAVIChangeSkinEventListener@@IABQAV1@AAV?$allocator@PAVIChangeSkinEventListener@@@0@U_Scalar_ptr_iterator_tag@0@@Z ENDP ; std::_Uninit_fill_n<IChangeSkinEventListener *,unsigned int,IChangeSkinEventListener *>
_TEXT	ENDS
PUBLIC	??$_Uninit_copy@PAVIChangeSkinEventListener@@PAV1@@std@@YAPAPAVIChangeSkinEventListener@@PAPAV1@00AAV?$allocator@PAVIChangeSkinEventListener@@@0@U_Scalar_ptr_iterator_tag@0@@Z ; std::_Uninit_copy<IChangeSkinEventListener *,IChangeSkinEventListener *>
; Function compile flags: /Odt
;	COMDAT ??$_Uninitialized_copy@PAPAVIChangeSkinEventListener@@PAPAV1@V?$allocator@PAVIChangeSkinEventListener@@@std@@@std@@YAPAPAVIChangeSkinEventListener@@PAPAV1@00AAV?$allocator@PAVIChangeSkinEventListener@@@0@@Z
_TEXT	SEGMENT
$T205863 = -1						; size = 1
__First$ = 8						; size = 4
__Last$ = 12						; size = 4
__Dest$ = 16						; size = 4
__Al$ = 20						; size = 4
??$_Uninitialized_copy@PAPAVIChangeSkinEventListener@@PAPAV1@V?$allocator@PAVIChangeSkinEventListener@@@std@@@std@@YAPAPAVIChangeSkinEventListener@@PAPAV1@00AAV?$allocator@PAVIChangeSkinEventListener@@@0@@Z PROC NEAR ; std::_Uninitialized_copy<IChangeSkinEventListener * *,IChangeSkinEventListener * *,std::allocator<IChangeSkinEventListener *> >, COMDAT

; 126  : 	{	// copy [_First, _Last) to raw _Dest, using _Al

  00000	55		 push	 ebp
  00001	8b ec		 mov	 ebp, esp
  00003	51		 push	 ecx

; 127  : 	return (_Uninit_copy(_First, _Last, _Dest, _Al,
; 128  : 		_Ptr_cat(_First, _Dest)));

  00004	8b 45 10	 mov	 eax, DWORD PTR __Dest$[ebp]
  00007	50		 push	 eax
  00008	8b 4d 08	 mov	 ecx, DWORD PTR __First$[ebp]
  0000b	51		 push	 ecx
  0000c	e8 00 00 00 00	 call	 ??$_Ptr_cat@VIChangeSkinEventListener@@@std@@YA?AU_Scalar_ptr_iterator_tag@0@PAPAVIChangeSkinEventListener@@0@Z ; std::_Ptr_cat<IChangeSkinEventListener>
  00011	83 c4 08	 add	 esp, 8
  00014	88 45 ff	 mov	 BYTE PTR $T205863[ebp], al
  00017	8a 55 ff	 mov	 dl, BYTE PTR $T205863[ebp]
  0001a	52		 push	 edx
  0001b	8b 45 14	 mov	 eax, DWORD PTR __Al$[ebp]
  0001e	50		 push	 eax
  0001f	8b 4d 10	 mov	 ecx, DWORD PTR __Dest$[ebp]
  00022	51		 push	 ecx
  00023	8b 55 0c	 mov	 edx, DWORD PTR __Last$[ebp]
  00026	52		 push	 edx
  00027	8b 45 08	 mov	 eax, DWORD PTR __First$[ebp]
  0002a	50		 push	 eax
  0002b	e8 00 00 00 00	 call	 ??$_Uninit_copy@PAVIChangeSkinEventListener@@PAV1@@std@@YAPAPAVIChangeSkinEventListener@@PAPAV1@00AAV?$allocator@PAVIChangeSkinEventListener@@@0@U_Scalar_ptr_iterator_tag@0@@Z ; std::_Uninit_copy<IChangeSkinEventListener *,IChangeSkinEventListener *>
  00030	83 c4 14	 add	 esp, 20			; 00000014H

; 129  : 	}

  00033	8b e5		 mov	 esp, ebp
  00035	5d		 pop	 ebp
  00036	c3		 ret	 0
??$_Uninitialized_copy@PAPAVIChangeSkinEventListener@@PAPAV1@V?$allocator@PAVIChangeSkinEventListener@@@std@@@std@@YAPAPAVIChangeSkinEventListener@@PAPAV1@00AAV?$allocator@PAVIChangeSkinEventListener@@@0@@Z ENDP ; std::_Uninitialized_copy<IChangeSkinEventListener * *,IChangeSkinEventListener * *,std::allocator<IChangeSkinEventListener *> >
; Function compile flags: /Odt
; File d:\program files (x86)\microsoft visual studio .net 2003\vc7\include\xutility
_TEXT	ENDS
;	COMDAT ??$_Copy_backward_opt@PAPAVIChangeSkinEventListener@@PAPAV1@@std@@YAPAPAVIChangeSkinEventListener@@PAPAV1@00U_Scalar_ptr_iterator_tag@0@@Z
_TEXT	SEGMENT
__Off$ = -4						; size = 4
__First$ = 8						; size = 4
__Last$ = 12						; size = 4
__Dest$ = 16						; size = 4
___formal$ = 20						; size = 1
??$_Copy_backward_opt@PAPAVIChangeSkinEventListener@@PAPAV1@@std@@YAPAPAVIChangeSkinEventListener@@PAPAV1@00U_Scalar_ptr_iterator_tag@0@@Z PROC NEAR ; std::_Copy_backward_opt<IChangeSkinEventListener * *,IChangeSkinEventListener * *>, COMDAT

; 1058 : 	{	// copy [_First, _Last) backwards to [..., _Dest), pointers to scalars

  00000	55		 push	 ebp
  00001	8b ec		 mov	 ebp, esp
  00003	51		 push	 ecx

; 1059 : 	ptrdiff_t _Off = _Last - _First;	// NB: non-overlapping move

  00004	8b 45 0c	 mov	 eax, DWORD PTR __Last$[ebp]
  00007	2b 45 08	 sub	 eax, DWORD PTR __First$[ebp]
  0000a	c1 f8 02	 sar	 eax, 2
  0000d	89 45 fc	 mov	 DWORD PTR __Off$[ebp], eax

; 1060 : 	return ((_OutIt)memmove(&*_Dest - _Off, &*_First,
; 1061 : 		_Off * sizeof (*_First)));

  00010	8b 4d fc	 mov	 ecx, DWORD PTR __Off$[ebp]
  00013	c1 e1 02	 shl	 ecx, 2
  00016	51		 push	 ecx
  00017	8b 55 08	 mov	 edx, DWORD PTR __First$[ebp]
  0001a	52		 push	 edx
  0001b	8b 45 fc	 mov	 eax, DWORD PTR __Off$[ebp]
  0001e	c1 e0 02	 shl	 eax, 2
  00021	8b 4d 10	 mov	 ecx, DWORD PTR __Dest$[ebp]
  00024	2b c8		 sub	 ecx, eax
  00026	51		 push	 ecx
  00027	ff 15 00 00 00
	00		 call	 DWORD PTR __imp__memmove
  0002d	83 c4 0c	 add	 esp, 12			; 0000000cH

; 1062 : 	}

  00030	8b e5		 mov	 esp, ebp
  00032	5d		 pop	 ebp
  00033	c3		 ret	 0
??$_Copy_backward_opt@PAPAVIChangeSkinEventListener@@PAPAV1@@std@@YAPAPAVIChangeSkinEventListener@@PAPAV1@00U_Scalar_ptr_iterator_tag@0@@Z ENDP ; std::_Copy_backward_opt<IChangeSkinEventListener * *,IChangeSkinEventListener * *>
; Function compile flags: /Odt
_TEXT	ENDS
;	COMDAT ??$_Ptr_cat@PAV?$basic_string@DU?$char_traits@D@std@@V?$allocator@D@2@@std@@PAV12@@std@@YA?AU_Nonscalar_ptr_iterator_tag@0@AAPAV?$basic_string@DU?$char_traits@D@std@@V?$allocator@D@2@@0@0@Z
_TEXT	SEGMENT
__Cat$ = -1						; size = 1
___formal$ = 8						; size = 4
___formal$ = 12						; size = 4
??$_Ptr_cat@PAV?$basic_string@DU?$char_traits@D@std@@V?$allocator@D@2@@std@@PAV12@@std@@YA?AU_Nonscalar_ptr_iterator_tag@0@AAPAV?$basic_string@DU?$char_traits@D@std@@V?$allocator@D@2@@0@0@Z PROC NEAR ; std::_Ptr_cat<std::basic_string<char,std::char_traits<char>,std::allocator<char> > *,std::basic_string<char,std::char_traits<char>,std::allocator<char> > *>, COMDAT

; 211  : 	{	// return pointer category from arbitrary arguments

  00000	55		 push	 ebp
  00001	8b ec		 mov	 ebp, esp
  00003	51		 push	 ecx

; 212  : 	_Nonscalar_ptr_iterator_tag _Cat;
; 213  : 	return (_Cat);

  00004	8a 45 ff	 mov	 al, BYTE PTR __Cat$[ebp]

; 214  : 	}

  00007	8b e5		 mov	 esp, ebp
  00009	5d		 pop	 ebp
  0000a	c3		 ret	 0
??$_Ptr_cat@PAV?$basic_string@DU?$char_traits@D@std@@V?$allocator@D@2@@std@@PAV12@@std@@YA?AU_Nonscalar_ptr_iterator_tag@0@AAPAV?$basic_string@DU?$char_traits@D@std@@V?$allocator@D@2@@0@0@Z ENDP ; std::_Ptr_cat<std::basic_string<char,std::char_traits<char>,std::allocator<char> > *,std::basic_string<char,std::char_traits<char>,std::allocator<char> > *>
_TEXT	ENDS
PUBLIC	?destroy@?$allocator@V?$basic_string@DU?$char_traits@D@std@@V?$allocator@D@2@@std@@@std@@QAEXPAV?$basic_string@DU?$char_traits@D@std@@V?$allocator@D@2@@2@@Z ; std::allocator<std::basic_string<char,std::char_traits<char>,std::allocator<char> > >::destroy
; Function compile flags: /Odt
; File d:\program files (x86)\microsoft visual studio .net 2003\vc7\include\xmemory
;	COMDAT ??$_Destroy_range@V?$basic_string@DU?$char_traits@D@std@@V?$allocator@D@2@@std@@V?$allocator@V?$basic_string@DU?$char_traits@D@std@@V?$allocator@D@2@@std@@@2@@std@@YAXPAV?$basic_string@DU?$char_traits@D@std@@V?$allocator@D@2@@0@0AAV?$allocator@V?$basic_string@DU?$char_traits@D@std@@V?$allocator@D@2@@std@@@0@U_Nonscalar_ptr_iterator_tag@0@@Z
_TEXT	SEGMENT
__First$ = 8						; size = 4
__Last$ = 12						; size = 4
__Al$ = 16						; size = 4
___formal$ = 20						; size = 1
??$_Destroy_range@V?$basic_string@DU?$char_traits@D@std@@V?$allocator@D@2@@std@@V?$allocator@V?$basic_string@DU?$char_traits@D@std@@V?$allocator@D@2@@std@@@2@@std@@YAXPAV?$basic_string@DU?$char_traits@D@std@@V?$allocator@D@2@@0@0AAV?$allocator@V?$basic_string@DU?$char_traits@D@std@@V?$allocator@D@2@@std@@@0@U_Nonscalar_ptr_iterator_tag@0@@Z PROC NEAR ; std::_Destroy_range<std::basic_string<char,std::char_traits<char>,std::allocator<char> >,std::allocator<std::basic_string<char,std::char_traits<char>,std::allocator<char> > > >, COMDAT

; 224  : 	{	// destroy [_First, _Last), arbitrary type

  00000	55		 push	 ebp
  00001	8b ec		 mov	 ebp, esp

; 225  : 	for (; _First != _Last; ++_First)

  00003	eb 09		 jmp	 SHORT $L204192
$L204193:
  00005	8b 45 08	 mov	 eax, DWORD PTR __First$[ebp]
  00008	83 c0 1c	 add	 eax, 28			; 0000001cH
  0000b	89 45 08	 mov	 DWORD PTR __First$[ebp], eax
$L204192:
  0000e	8b 4d 08	 mov	 ecx, DWORD PTR __First$[ebp]
  00011	3b 4d 0c	 cmp	 ecx, DWORD PTR __Last$[ebp]
  00014	74 0e		 je	 SHORT $L204191

; 226  : 		_Al.destroy(_First);

  00016	8b 55 08	 mov	 edx, DWORD PTR __First$[ebp]
  00019	52		 push	 edx
  0001a	8b 4d 10	 mov	 ecx, DWORD PTR __Al$[ebp]
  0001d	e8 00 00 00 00	 call	 ?destroy@?$allocator@V?$basic_string@DU?$char_traits@D@std@@V?$allocator@D@2@@std@@@std@@QAEXPAV?$basic_string@DU?$char_traits@D@std@@V?$allocator@D@2@@2@@Z ; std::allocator<std::basic_string<char,std::char_traits<char>,std::allocator<char> > >::destroy
  00022	eb e1		 jmp	 SHORT $L204193
$L204191:

; 227  : 	}

  00024	5d		 pop	 ebp
  00025	c3		 ret	 0
??$_Destroy_range@V?$basic_string@DU?$char_traits@D@std@@V?$allocator@D@2@@std@@V?$allocator@V?$basic_string@DU?$char_traits@D@std@@V?$allocator@D@2@@std@@@2@@std@@YAXPAV?$basic_string@DU?$char_traits@D@std@@V?$allocator@D@2@@0@0AAV?$allocator@V?$basic_string@DU?$char_traits@D@std@@V?$allocator@D@2@@std@@@0@U_Nonscalar_ptr_iterator_tag@0@@Z ENDP ; std::_Destroy_range<std::basic_string<char,std::char_traits<char>,std::allocator<char> >,std::allocator<std::basic_string<char,std::char_traits<char>,std::allocator<char> > > >
_TEXT	ENDS
PUBLIC	??$_Destroy@V?$basic_string@DU?$char_traits@D@std@@V?$allocator@D@2@@std@@@std@@YAXPAV?$basic_string@DU?$char_traits@D@std@@V?$allocator@D@2@@0@@Z ; std::_Destroy<std::basic_string<char,std::char_traits<char>,std::allocator<char> > >
; Function compile flags: /Odt
;	COMDAT ?destroy@?$allocator@V?$basic_string@DU?$char_traits@D@std@@V?$allocator@D@2@@std@@@std@@QAEXPAV?$basic_string@DU?$char_traits@D@std@@V?$allocator@D@2@@2@@Z
_TEXT	SEGMENT
_this$ = -4						; size = 4
__Ptr$ = 8						; size = 4
?destroy@?$allocator@V?$basic_string@DU?$char_traits@D@std@@V?$allocator@D@2@@std@@@std@@QAEXPAV?$basic_string@DU?$char_traits@D@std@@V?$allocator@D@2@@2@@Z PROC NEAR ; std::allocator<std::basic_string<char,std::char_traits<char>,std::allocator<char> > >::destroy, COMDAT
; _this$ = ecx

; 151  : 		{	// destroy object at _Ptr

  00000	55		 push	 ebp
  00001	8b ec		 mov	 ebp, esp
  00003	51		 push	 ecx
  00004	89 4d fc	 mov	 DWORD PTR _this$[ebp], ecx

; 152  : 		_Destroy(_Ptr);

  00007	8b 45 08	 mov	 eax, DWORD PTR __Ptr$[ebp]
  0000a	50		 push	 eax
  0000b	e8 00 00 00 00	 call	 ??$_Destroy@V?$basic_string@DU?$char_traits@D@std@@V?$allocator@D@2@@std@@@std@@YAXPAV?$basic_string@DU?$char_traits@D@std@@V?$allocator@D@2@@0@@Z ; std::_Destroy<std::basic_string<char,std::char_traits<char>,std::allocator<char> > >
  00010	83 c4 04	 add	 esp, 4

; 153  : 		}

  00013	8b e5		 mov	 esp, ebp
  00015	5d		 pop	 ebp
  00016	c2 04 00	 ret	 4
?destroy@?$allocator@V?$basic_string@DU?$char_traits@D@std@@V?$allocator@D@2@@std@@@std@@QAEXPAV?$basic_string@DU?$char_traits@D@std@@V?$allocator@D@2@@2@@Z ENDP ; std::allocator<std::basic_string<char,std::char_traits<char>,std::allocator<char> > >::destroy
; Function compile flags: /Odt
; File d:\program files (x86)\microsoft visual studio .net 2003\vc7\include\xutility
_TEXT	ENDS
;	COMDAT ??$fill_n@PAPAVIChangeSkinEventListener@@IPAV1@@std@@YAXPAPAVIChangeSkinEventListener@@IABQAV1@@Z
_TEXT	SEGMENT
__First$ = 8						; size = 4
__Count$ = 12						; size = 4
__Val$ = 16						; size = 4
??$fill_n@PAPAVIChangeSkinEventListener@@IPAV1@@std@@YAXPAPAVIChangeSkinEventListener@@IABQAV1@@Z PROC NEAR ; std::fill_n<IChangeSkinEventListener * *,unsigned int,IChangeSkinEventListener *>, COMDAT

; 1159 : 	{	// copy _Val _Count times through [_First, ...)

  00000	55		 push	 ebp
  00001	8b ec		 mov	 ebp, esp

; 1160 : 	for (; 0 < _Count; --_Count, ++_First)

  00003	eb 12		 jmp	 SHORT $L204202
$L204203:
  00005	8b 45 0c	 mov	 eax, DWORD PTR __Count$[ebp]
  00008	83 e8 01	 sub	 eax, 1
  0000b	89 45 0c	 mov	 DWORD PTR __Count$[ebp], eax
  0000e	8b 4d 08	 mov	 ecx, DWORD PTR __First$[ebp]
  00011	83 c1 04	 add	 ecx, 4
  00014	89 4d 08	 mov	 DWORD PTR __First$[ebp], ecx
$L204202:
  00017	83 7d 0c 00	 cmp	 DWORD PTR __Count$[ebp], 0
  0001b	76 0c		 jbe	 SHORT $L204201

; 1161 : 		*_First = _Val;

  0001d	8b 55 08	 mov	 edx, DWORD PTR __First$[ebp]
  00020	8b 45 10	 mov	 eax, DWORD PTR __Val$[ebp]
  00023	8b 08		 mov	 ecx, DWORD PTR [eax]
  00025	89 0a		 mov	 DWORD PTR [edx], ecx
  00027	eb dc		 jmp	 SHORT $L204203
$L204201:

; 1162 : 	}

  00029	5d		 pop	 ebp
  0002a	c3		 ret	 0
??$fill_n@PAPAVIChangeSkinEventListener@@IPAV1@@std@@YAXPAPAVIChangeSkinEventListener@@IABQAV1@@Z ENDP ; std::fill_n<IChangeSkinEventListener * *,unsigned int,IChangeSkinEventListener *>
; Function compile flags: /Odt
; File d:\program files (x86)\microsoft visual studio .net 2003\vc7\include\memory
_TEXT	ENDS
;	COMDAT ??$_Uninit_copy@PAVIChangeSkinEventListener@@PAV1@@std@@YAPAPAVIChangeSkinEventListener@@PAPAV1@00AAV?$allocator@PAVIChangeSkinEventListener@@@0@U_Scalar_ptr_iterator_tag@0@@Z
_TEXT	SEGMENT
__Count$ = -4						; size = 4
__First$ = 8						; size = 4
__Last$ = 12						; size = 4
__Dest$ = 16						; size = 4
___formal$ = 20						; size = 4
___formal$ = 24						; size = 1
??$_Uninit_copy@PAVIChangeSkinEventListener@@PAV1@@std@@YAPAPAVIChangeSkinEventListener@@PAPAV1@00AAV?$allocator@PAVIChangeSkinEventListener@@@0@U_Scalar_ptr_iterator_tag@0@@Z PROC NEAR ; std::_Uninit_copy<IChangeSkinEventListener *,IChangeSkinEventListener *>, COMDAT

; 105  : 	{	// copy [_First, _Last) to raw _Dest, (const) scalar type

  00000	55		 push	 ebp
  00001	8b ec		 mov	 ebp, esp
  00003	51		 push	 ecx

; 106  : 	size_t _Count = (size_t)(_Last - _First);

  00004	8b 45 0c	 mov	 eax, DWORD PTR __Last$[ebp]
  00007	2b 45 08	 sub	 eax, DWORD PTR __First$[ebp]
  0000a	c1 f8 02	 sar	 eax, 2
  0000d	89 45 fc	 mov	 DWORD PTR __Count$[ebp], eax

; 107  : 	return ((_Ty2 *)memmove(&*_Dest, &*_First,
; 108  : 		_Count * sizeof (*_First)) + _Count);	// NB: non-overlapping move

  00010	8b 4d fc	 mov	 ecx, DWORD PTR __Count$[ebp]
  00013	c1 e1 02	 shl	 ecx, 2
  00016	51		 push	 ecx
  00017	8b 55 08	 mov	 edx, DWORD PTR __First$[ebp]
  0001a	52		 push	 edx
  0001b	8b 45 10	 mov	 eax, DWORD PTR __Dest$[ebp]
  0001e	50		 push	 eax
  0001f	ff 15 00 00 00
	00		 call	 DWORD PTR __imp__memmove
  00025	83 c4 0c	 add	 esp, 12			; 0000000cH
  00028	8b 4d fc	 mov	 ecx, DWORD PTR __Count$[ebp]
  0002b	8d 04 88	 lea	 eax, DWORD PTR [eax+ecx*4]

; 109  : 	}

  0002e	8b e5		 mov	 esp, ebp
  00030	5d		 pop	 ebp
  00031	c3		 ret	 0
??$_Uninit_copy@PAVIChangeSkinEventListener@@PAV1@@std@@YAPAPAVIChangeSkinEventListener@@PAPAV1@00AAV?$allocator@PAVIChangeSkinEventListener@@@0@U_Scalar_ptr_iterator_tag@0@@Z ENDP ; std::_Uninit_copy<IChangeSkinEventListener *,IChangeSkinEventListener *>
_TEXT	ENDS
PUBLIC	??_G?$basic_string@DU?$char_traits@D@std@@V?$allocator@D@2@@std@@QAEPAXI@Z ; std::basic_string<char,std::char_traits<char>,std::allocator<char> >::`scalar deleting destructor'
; Function compile flags: /Odt
; File d:\program files (x86)\microsoft visual studio .net 2003\vc7\include\xmemory
;	COMDAT ??$_Destroy@V?$basic_string@DU?$char_traits@D@std@@V?$allocator@D@2@@std@@@std@@YAXPAV?$basic_string@DU?$char_traits@D@std@@V?$allocator@D@2@@0@@Z
_TEXT	SEGMENT
__Ptr$ = 8						; size = 4
??$_Destroy@V?$basic_string@DU?$char_traits@D@std@@V?$allocator@D@2@@std@@@std@@YAXPAV?$basic_string@DU?$char_traits@D@std@@V?$allocator@D@2@@0@@Z PROC NEAR ; std::_Destroy<std::basic_string<char,std::char_traits<char>,std::allocator<char> > >, COMDAT

; 48   : 	{	// destroy object at _Ptr

  00000	55		 push	 ebp
  00001	8b ec		 mov	 ebp, esp

; 49   : 	_DESTRUCTOR(_Ty, _Ptr);

  00003	6a 00		 push	 0
  00005	8b 4d 08	 mov	 ecx, DWORD PTR __Ptr$[ebp]
  00008	e8 00 00 00 00	 call	 ??_G?$basic_string@DU?$char_traits@D@std@@V?$allocator@D@2@@std@@QAEPAXI@Z

; 50   : 	}

  0000d	5d		 pop	 ebp
  0000e	c3		 ret	 0
??$_Destroy@V?$basic_string@DU?$char_traits@D@std@@V?$allocator@D@2@@std@@@std@@YAXPAV?$basic_string@DU?$char_traits@D@std@@V?$allocator@D@2@@0@@Z ENDP ; std::_Destroy<std::basic_string<char,std::char_traits<char>,std::allocator<char> > >
; Function compile flags: /Odt
_TEXT	ENDS
;	COMDAT ??_G?$basic_string@DU?$char_traits@D@std@@V?$allocator@D@2@@std@@QAEPAXI@Z
_TEXT	SEGMENT
_this$ = -4						; size = 4
___flags$ = 8						; size = 4
??_G?$basic_string@DU?$char_traits@D@std@@V?$allocator@D@2@@std@@QAEPAXI@Z PROC NEAR ; std::basic_string<char,std::char_traits<char>,std::allocator<char> >::`scalar deleting destructor', COMDAT
; _this$ = ecx
  00000	55		 push	 ebp
  00001	8b ec		 mov	 ebp, esp
  00003	51		 push	 ecx
  00004	89 4d fc	 mov	 DWORD PTR _this$[ebp], ecx
  00007	8b 4d fc	 mov	 ecx, DWORD PTR _this$[ebp]
  0000a	ff 15 00 00 00
	00		 call	 DWORD PTR __imp_??1?$basic_string@DU?$char_traits@D@std@@V?$allocator@D@2@@std@@QAE@XZ
  00010	8b 45 08	 mov	 eax, DWORD PTR ___flags$[ebp]
  00013	83 e0 01	 and	 eax, 1
  00016	74 0c		 je	 SHORT $L204213
  00018	8b 4d fc	 mov	 ecx, DWORD PTR _this$[ebp]
  0001b	51		 push	 ecx
  0001c	e8 00 00 00 00	 call	 ??3@YAXPAX@Z		; operator delete
  00021	83 c4 04	 add	 esp, 4
$L204213:
  00024	8b 45 fc	 mov	 eax, DWORD PTR _this$[ebp]
  00027	8b e5		 mov	 esp, ebp
  00029	5d		 pop	 ebp
  0002a	c2 04 00	 ret	 4
??_G?$basic_string@DU?$char_traits@D@std@@V?$allocator@D@2@@std@@QAEPAXI@Z ENDP ; std::basic_string<char,std::char_traits<char>,std::allocator<char> >::`scalar deleting destructor'
_TEXT	ENDS
PUBLIC	??_GCSkinMgrV1@@UAEPAXI@Z			; CSkinMgrV1::`scalar deleting destructor'
EXTRN	??_ECSkinMgrV1@@UAEPAXI@Z:NEAR			; CSkinMgrV1::`vector deleting destructor'
; Function compile flags: /Odt
;	COMDAT ??_ECSkinMgrV1@@W7AEPAXI@Z
_TEXT	SEGMENT
??_ECSkinMgrV1@@W7AEPAXI@Z PROC NEAR			; [thunk]:CSkinMgrV1::`vector deleting destructor', COMDAT
  00000	83 e9 08	 sub	 ecx, 8
  00003	e9 00 00 00 00	 jmp	 ??_ECSkinMgrV1@@UAEPAXI@Z
??_ECSkinMgrV1@@W7AEPAXI@Z ENDP				; [thunk]:CSkinMgrV1::`vector deleting destructor'
; Function compile flags: /Odt
_TEXT	ENDS
;	COMDAT ??_GCSkinMgrV1@@UAEPAXI@Z
_TEXT	SEGMENT
_this$ = -4						; size = 4
___flags$ = 8						; size = 4
??_GCSkinMgrV1@@UAEPAXI@Z PROC NEAR			; CSkinMgrV1::`scalar deleting destructor', COMDAT
; _this$ = ecx
  00000	55		 push	 ebp
  00001	8b ec		 mov	 ebp, esp
  00003	51		 push	 ecx
  00004	89 4d fc	 mov	 DWORD PTR _this$[ebp], ecx
  00007	8b 4d fc	 mov	 ecx, DWORD PTR _this$[ebp]
  0000a	e8 00 00 00 00	 call	 ??1CSkinMgrV1@@UAE@XZ	; CSkinMgrV1::~CSkinMgrV1
  0000f	8b 45 08	 mov	 eax, DWORD PTR ___flags$[ebp]
  00012	83 e0 01	 and	 eax, 1
  00015	74 0c		 je	 SHORT $L202241
  00017	8b 4d fc	 mov	 ecx, DWORD PTR _this$[ebp]
  0001a	51		 push	 ecx
  0001b	e8 00 00 00 00	 call	 ??3@YAXPAX@Z		; operator delete
  00020	83 c4 04	 add	 esp, 4
$L202241:
  00023	8b 45 fc	 mov	 eax, DWORD PTR _this$[ebp]
  00026	8b e5		 mov	 esp, ebp
  00028	5d		 pop	 ebp
  00029	c2 04 00	 ret	 4
??_GCSkinMgrV1@@UAEPAXI@Z ENDP				; CSkinMgrV1::`scalar deleting destructor'
; Function compile flags: /Odt
_TEXT	ENDS
;	COMDAT ??_ECSkinMgrV1@@WM@AEPAXI@Z
_TEXT	SEGMENT
??_ECSkinMgrV1@@WM@AEPAXI@Z PROC NEAR			; [thunk]:CSkinMgrV1::`vector deleting destructor', COMDAT
  00000	83 e9 0c	 sub	 ecx, 12			; 0000000cH
  00003	e9 00 00 00 00	 jmp	 ??_ECSkinMgrV1@@UAEPAXI@Z
??_ECSkinMgrV1@@WM@AEPAXI@Z ENDP			; [thunk]:CSkinMgrV1::`vector deleting destructor'
; Function compile flags: /Odt
; File d:\program files (x86)\microsoft visual studio .net 2003\vc7\atlmfc\include\afx.inl
_TEXT	ENDS
;	COMDAT ??3CObject@@SGXPAX@Z
_TEXT	SEGMENT
_p$ = 8							; size = 4
??3CObject@@SGXPAX@Z PROC NEAR				; CObject::operator delete, COMDAT

; 31   : 	{ ::operator delete(p); }

  00000	55		 push	 ebp
  00001	8b ec		 mov	 ebp, esp
  00003	8b 45 08	 mov	 eax, DWORD PTR _p$[ebp]
  00006	50		 push	 eax
  00007	e8 00 00 00 00	 call	 ??3@YAXPAX@Z		; operator delete
  0000c	83 c4 04	 add	 esp, 4
  0000f	5d		 pop	 ebp
  00010	c2 04 00	 ret	 4
??3CObject@@SGXPAX@Z ENDP				; CObject::operator delete
; Function compile flags: /Odt
_TEXT	ENDS
;	COMDAT ??2CObject@@SGPAXI@Z
_TEXT	SEGMENT
_nSize$ = 8						; size = 4
??2CObject@@SGPAXI@Z PROC NEAR				; CObject::operator new, COMDAT

; 37   : 	{ return ::operator new(nSize); }

  00000	55		 push	 ebp
  00001	8b ec		 mov	 ebp, esp
  00003	8b 45 08	 mov	 eax, DWORD PTR _nSize$[ebp]
  00006	50		 push	 eax
  00007	e8 00 00 00 00	 call	 ??2@YAPAXI@Z		; operator new
  0000c	83 c4 04	 add	 esp, 4
  0000f	5d		 pop	 ebp
  00010	c2 04 00	 ret	 4
??2CObject@@SGPAXI@Z ENDP				; CObject::operator new
_TEXT	ENDS
EXTRN	?AfxGetModuleState@@YGPAVAFX_MODULE_STATE@@XZ:NEAR ; AfxGetModuleState
; Function compile flags: /Odt
; File d:\program files (x86)\microsoft visual studio .net 2003\vc7\atlmfc\include\afxwin1.inl
;	COMDAT ?AfxGetApp@@YGPAVCWinApp@@XZ
_TEXT	SEGMENT
?AfxGetApp@@YGPAVCWinApp@@XZ PROC NEAR			; AfxGetApp, COMDAT

; 21   : 	{ return afxCurrentWinApp; }

  00000	55		 push	 ebp
  00001	8b ec		 mov	 ebp, esp
  00003	e8 00 00 00 00	 call	 ?AfxGetModuleState@@YGPAVAFX_MODULE_STATE@@XZ ; AfxGetModuleState
  00008	8b 40 04	 mov	 eax, DWORD PTR [eax+4]
  0000b	5d		 pop	 ebp
  0000c	c3		 ret	 0
?AfxGetApp@@YGPAVCWinApp@@XZ ENDP			; AfxGetApp
; Function compile flags: /Odt
; File d:\program files (x86)\microsoft visual studio .net 2003\vc7\atlmfc\include\afxwin2.inl
_TEXT	ENDS
;	COMDAT ?GetSafeHwnd@CWnd@@QBEPAUHWND__@@XZ
_TEXT	SEGMENT
tv66 = -8						; size = 4
_this$ = -4						; size = 4
?GetSafeHwnd@CWnd@@QBEPAUHWND__@@XZ PROC NEAR		; CWnd::GetSafeHwnd, COMDAT
; _this$ = ecx

; 27   : 	{ return this == NULL ? NULL : m_hWnd; }

  00000	55		 push	 ebp
  00001	8b ec		 mov	 ebp, esp
  00003	83 ec 08	 sub	 esp, 8
  00006	89 4d fc	 mov	 DWORD PTR _this$[ebp], ecx
  00009	83 7d fc 00	 cmp	 DWORD PTR _this$[ebp], 0
  0000d	75 09		 jne	 SHORT $L205894
  0000f	c7 45 f8 00 00
	00 00		 mov	 DWORD PTR tv66[ebp], 0
  00016	eb 09		 jmp	 SHORT $L205895
$L205894:
  00018	8b 45 fc	 mov	 eax, DWORD PTR _this$[ebp]
  0001b	8b 48 20	 mov	 ecx, DWORD PTR [eax+32]
  0001e	89 4d f8	 mov	 DWORD PTR tv66[ebp], ecx
$L205895:
  00021	8b 45 f8	 mov	 eax, DWORD PTR tv66[ebp]
  00024	8b e5		 mov	 esp, ebp
  00026	5d		 pop	 ebp
  00027	c3		 ret	 0
?GetSafeHwnd@CWnd@@QBEPAUHWND__@@XZ ENDP		; CWnd::GetSafeHwnd
_TEXT	ENDS
EXTRN	?MoveWindow@CWnd@@QAEXHHHHH@Z:NEAR		; CWnd::MoveWindow
; Function compile flags: /Odt
;	COMDAT ?MoveWindow@CWnd@@QAEXPBUtagRECT@@H@Z
_TEXT	SEGMENT
_this$ = -4						; size = 4
_lpRect$ = 8						; size = 4
_bRepaint$ = 12						; size = 4
?MoveWindow@CWnd@@QAEXPBUtagRECT@@H@Z PROC NEAR		; CWnd::MoveWindow, COMDAT
; _this$ = ecx

; 89   : 	{ MoveWindow(lpRect->left, lpRect->top, lpRect->right - lpRect->left,

  00000	55		 push	 ebp
  00001	8b ec		 mov	 ebp, esp
  00003	51		 push	 ecx
  00004	89 4d fc	 mov	 DWORD PTR _this$[ebp], ecx

; 90   : 		lpRect->bottom - lpRect->top, bRepaint); }

  00007	8b 45 0c	 mov	 eax, DWORD PTR _bRepaint$[ebp]
  0000a	50		 push	 eax
  0000b	8b 4d 08	 mov	 ecx, DWORD PTR _lpRect$[ebp]
  0000e	8b 55 08	 mov	 edx, DWORD PTR _lpRect$[ebp]
  00011	8b 41 0c	 mov	 eax, DWORD PTR [ecx+12]
  00014	2b 42 04	 sub	 eax, DWORD PTR [edx+4]
  00017	50		 push	 eax
  00018	8b 4d 08	 mov	 ecx, DWORD PTR _lpRect$[ebp]
  0001b	8b 55 08	 mov	 edx, DWORD PTR _lpRect$[ebp]
  0001e	8b 41 08	 mov	 eax, DWORD PTR [ecx+8]
  00021	2b 02		 sub	 eax, DWORD PTR [edx]
  00023	50		 push	 eax
  00024	8b 4d 08	 mov	 ecx, DWORD PTR _lpRect$[ebp]
  00027	8b 51 04	 mov	 edx, DWORD PTR [ecx+4]
  0002a	52		 push	 edx
  0002b	8b 45 08	 mov	 eax, DWORD PTR _lpRect$[ebp]
  0002e	8b 08		 mov	 ecx, DWORD PTR [eax]
  00030	51		 push	 ecx
  00031	8b 4d fc	 mov	 ecx, DWORD PTR _this$[ebp]
  00034	e8 00 00 00 00	 call	 ?MoveWindow@CWnd@@QAEXHHHHH@Z ; CWnd::MoveWindow
  00039	8b e5		 mov	 esp, ebp
  0003b	5d		 pop	 ebp
  0003c	c2 08 00	 ret	 8
?MoveWindow@CWnd@@QAEXPBUtagRECT@@H@Z ENDP		; CWnd::MoveWindow
_TEXT	ENDS
EXTRN	__imp__GetWindowRect@8:NEAR
; Function compile flags: /Odt
;	COMDAT ?GetWindowRect@CWnd@@QBEXPAUtagRECT@@@Z
_TEXT	SEGMENT
_this$ = -4						; size = 4
_lpRect$ = 8						; size = 4
?GetWindowRect@CWnd@@QBEXPAUtagRECT@@@Z PROC NEAR	; CWnd::GetWindowRect, COMDAT
; _this$ = ecx

; 105  : 	{ ASSERT(::IsWindow(m_hWnd)); ::GetWindowRect(m_hWnd, lpRect); }

  00000	55		 push	 ebp
  00001	8b ec		 mov	 ebp, esp
  00003	51		 push	 ecx
  00004	89 4d fc	 mov	 DWORD PTR _this$[ebp], ecx
  00007	8b 45 08	 mov	 eax, DWORD PTR _lpRect$[ebp]
  0000a	50		 push	 eax
  0000b	8b 4d fc	 mov	 ecx, DWORD PTR _this$[ebp]
  0000e	8b 51 20	 mov	 edx, DWORD PTR [ecx+32]
  00011	52		 push	 edx
  00012	ff 15 00 00 00
	00		 call	 DWORD PTR __imp__GetWindowRect@8
  00018	8b e5		 mov	 esp, ebp
  0001a	5d		 pop	 ebp
  0001b	c2 04 00	 ret	 4
?GetWindowRect@CWnd@@QBEXPAUtagRECT@@@Z ENDP		; CWnd::GetWindowRect
_TEXT	ENDS
EXTRN	__imp__UpdateWindow@4:NEAR
; Function compile flags: /Odt
;	COMDAT ?UpdateWindow@CWnd@@QAEXXZ
_TEXT	SEGMENT
_this$ = -4						; size = 4
?UpdateWindow@CWnd@@QAEXXZ PROC NEAR			; CWnd::UpdateWindow, COMDAT
; _this$ = ecx

; 127  : 	{ ASSERT(::IsWindow(m_hWnd)); ::UpdateWindow(m_hWnd); }

  00000	55		 push	 ebp
  00001	8b ec		 mov	 ebp, esp
  00003	51		 push	 ecx
  00004	89 4d fc	 mov	 DWORD PTR _this$[ebp], ecx
  00007	8b 45 fc	 mov	 eax, DWORD PTR _this$[ebp]
  0000a	8b 48 20	 mov	 ecx, DWORD PTR [eax+32]
  0000d	51		 push	 ecx
  0000e	ff 15 00 00 00
	00		 call	 DWORD PTR __imp__UpdateWindow@4
  00014	8b e5		 mov	 esp, ebp
  00016	5d		 pop	 ebp
  00017	c3		 ret	 0
?UpdateWindow@CWnd@@QAEXXZ ENDP				; CWnd::UpdateWindow
_TEXT	ENDS
EXTRN	__imp__InvalidateRect@12:NEAR
; Function compile flags: /Odt
;	COMDAT ?Invalidate@CWnd@@QAEXH@Z
_TEXT	SEGMENT
_this$ = -4						; size = 4
_bErase$ = 8						; size = 4
?Invalidate@CWnd@@QAEXH@Z PROC NEAR			; CWnd::Invalidate, COMDAT
; _this$ = ecx

; 135  : 	{ ASSERT(::IsWindow(m_hWnd)); ::InvalidateRect(m_hWnd, NULL, bErase); }

  00000	55		 push	 ebp
  00001	8b ec		 mov	 ebp, esp
  00003	51		 push	 ecx
  00004	89 4d fc	 mov	 DWORD PTR _this$[ebp], ecx
  00007	8b 45 08	 mov	 eax, DWORD PTR _bErase$[ebp]
  0000a	50		 push	 eax
  0000b	6a 00		 push	 0
  0000d	8b 4d fc	 mov	 ecx, DWORD PTR _this$[ebp]
  00010	8b 51 20	 mov	 edx, DWORD PTR [ecx+32]
  00013	52		 push	 edx
  00014	ff 15 00 00 00
	00		 call	 DWORD PTR __imp__InvalidateRect@12
  0001a	8b e5		 mov	 esp, ebp
  0001c	5d		 pop	 ebp
  0001d	c2 04 00	 ret	 4
?Invalidate@CWnd@@QAEXH@Z ENDP				; CWnd::Invalidate
; Function compile flags: /Odt
_TEXT	ENDS
;	COMDAT ?InvalidateRect@CWnd@@QAEXPBUtagRECT@@H@Z
_TEXT	SEGMENT
_this$ = -4						; size = 4
_lpRect$ = 8						; size = 4
_bErase$ = 12						; size = 4
?InvalidateRect@CWnd@@QAEXPBUtagRECT@@H@Z PROC NEAR	; CWnd::InvalidateRect, COMDAT
; _this$ = ecx

; 137  : 	{ ASSERT(::IsWindow(m_hWnd)); ::InvalidateRect(m_hWnd, lpRect, bErase); }

  00000	55		 push	 ebp
  00001	8b ec		 mov	 ebp, esp
  00003	51		 push	 ecx
  00004	89 4d fc	 mov	 DWORD PTR _this$[ebp], ecx
  00007	8b 45 0c	 mov	 eax, DWORD PTR _bErase$[ebp]
  0000a	50		 push	 eax
  0000b	8b 4d 08	 mov	 ecx, DWORD PTR _lpRect$[ebp]
  0000e	51		 push	 ecx
  0000f	8b 55 fc	 mov	 edx, DWORD PTR _this$[ebp]
  00012	8b 42 20	 mov	 eax, DWORD PTR [edx+32]
  00015	50		 push	 eax
  00016	ff 15 00 00 00
	00		 call	 DWORD PTR __imp__InvalidateRect@12
  0001c	8b e5		 mov	 esp, ebp
  0001e	5d		 pop	 ebp
  0001f	c2 08 00	 ret	 8
?InvalidateRect@CWnd@@QAEXPBUtagRECT@@H@Z ENDP		; CWnd::InvalidateRect
; Function compile flags: /Odt
_TEXT	ENDS
;	COMDAT ?IsWindowVisible@CWnd@@QBEHXZ
_TEXT	SEGMENT
_this$ = -4						; size = 4
?IsWindowVisible@CWnd@@QBEHXZ PROC NEAR			; CWnd::IsWindowVisible, COMDAT
; _this$ = ecx

; 149  : 	{ ASSERT(::IsWindow(m_hWnd)); return ::IsWindowVisible(m_hWnd); }

  00000	55		 push	 ebp
  00001	8b ec		 mov	 ebp, esp
  00003	51		 push	 ecx
  00004	89 4d fc	 mov	 DWORD PTR _this$[ebp], ecx
  00007	8b 45 fc	 mov	 eax, DWORD PTR _this$[ebp]
  0000a	8b 48 20	 mov	 ecx, DWORD PTR [eax+32]
  0000d	51		 push	 ecx
  0000e	ff 15 00 00 00
	00		 call	 DWORD PTR __imp__IsWindowVisible@4
  00014	8b e5		 mov	 esp, ebp
  00016	5d		 pop	 ebp
  00017	c3		 ret	 0
?IsWindowVisible@CWnd@@QBEHXZ ENDP			; CWnd::IsWindowVisible
_TEXT	ENDS
PUBLIC	?GetSafeHandle@CGdiObject@@QBEPAXXZ		; CGdiObject::GetSafeHandle
EXTRN	__imp__RedrawWindow@16:NEAR
; Function compile flags: /Odt
;	COMDAT ?RedrawWindow@CWnd@@QAEHPBUtagRECT@@PAVCRgn@@I@Z
_TEXT	SEGMENT
_this$ = -4						; size = 4
_lpRectUpdate$ = 8					; size = 4
_prgnUpdate$ = 12					; size = 4
_flags$ = 16						; size = 4
?RedrawWindow@CWnd@@QAEHPBUtagRECT@@PAVCRgn@@I@Z PROC NEAR ; CWnd::RedrawWindow, COMDAT
; _this$ = ecx

; 172  : 	{ ASSERT(::IsWindow(m_hWnd)); return ::RedrawWindow(m_hWnd, lpRectUpdate, (HRGN)prgnUpdate->GetSafeHandle(), flags); }

  00000	55		 push	 ebp
  00001	8b ec		 mov	 ebp, esp
  00003	51		 push	 ecx
  00004	89 4d fc	 mov	 DWORD PTR _this$[ebp], ecx
  00007	8b 45 10	 mov	 eax, DWORD PTR _flags$[ebp]
  0000a	50		 push	 eax
  0000b	8b 4d 0c	 mov	 ecx, DWORD PTR _prgnUpdate$[ebp]
  0000e	e8 00 00 00 00	 call	 ?GetSafeHandle@CGdiObject@@QBEPAXXZ ; CGdiObject::GetSafeHandle
  00013	50		 push	 eax
  00014	8b 4d 08	 mov	 ecx, DWORD PTR _lpRectUpdate$[ebp]
  00017	51		 push	 ecx
  00018	8b 55 fc	 mov	 edx, DWORD PTR _this$[ebp]
  0001b	8b 42 20	 mov	 eax, DWORD PTR [edx+32]
  0001e	50		 push	 eax
  0001f	ff 15 00 00 00
	00		 call	 DWORD PTR __imp__RedrawWindow@16
  00025	8b e5		 mov	 esp, ebp
  00027	5d		 pop	 ebp
  00028	c2 0c 00	 ret	 12			; 0000000cH
?RedrawWindow@CWnd@@QAEHPBUtagRECT@@PAVCRgn@@I@Z ENDP	; CWnd::RedrawWindow
; Function compile flags: /Odt
; File d:\program files (x86)\microsoft visual studio .net 2003\vc7\atlmfc\include\afxwin1.inl
_TEXT	ENDS
;	COMDAT ?GetSafeHandle@CGdiObject@@QBEPAXXZ
_TEXT	SEGMENT
tv66 = -8						; size = 4
_this$ = -4						; size = 4
?GetSafeHandle@CGdiObject@@QBEPAXXZ PROC NEAR		; CGdiObject::GetSafeHandle, COMDAT
; _this$ = ecx

; 80   : 	{ return this == NULL ? NULL : m_hObject; }

  00000	55		 push	 ebp
  00001	8b ec		 mov	 ebp, esp
  00003	83 ec 08	 sub	 esp, 8
  00006	89 4d fc	 mov	 DWORD PTR _this$[ebp], ecx
  00009	83 7d fc 00	 cmp	 DWORD PTR _this$[ebp], 0
  0000d	75 09		 jne	 SHORT $L205912
  0000f	c7 45 f8 00 00
	00 00		 mov	 DWORD PTR tv66[ebp], 0
  00016	eb 09		 jmp	 SHORT $L205913
$L205912:
  00018	8b 45 fc	 mov	 eax, DWORD PTR _this$[ebp]
  0001b	8b 48 04	 mov	 ecx, DWORD PTR [eax+4]
  0001e	89 4d f8	 mov	 DWORD PTR tv66[ebp], ecx
$L205913:
  00021	8b 45 f8	 mov	 eax, DWORD PTR tv66[ebp]
  00024	8b e5		 mov	 esp, ebp
  00026	5d		 pop	 ebp
  00027	c3		 ret	 0
?GetSafeHandle@CGdiObject@@QBEPAXXZ ENDP		; CGdiObject::GetSafeHandle
; Function compile flags: /Odt
; File d:\program files (x86)\microsoft visual studio .net 2003\vc7\include\stdexcept
_TEXT	ENDS
;	COMDAT ?what@logic_error@std@@UBEPBDXZ
_TEXT	SEGMENT
_this$ = -4						; size = 4
?what@logic_error@std@@UBEPBDXZ PROC NEAR		; std::logic_error::what, COMDAT
; _this$ = ecx

; 26   : 		{	// return pointer to message string

  00000	55		 push	 ebp
  00001	8b ec		 mov	 ebp, esp
  00003	51		 push	 ecx
  00004	89 4d fc	 mov	 DWORD PTR _this$[ebp], ecx

; 27   : 		return (_Str.c_str());

  00007	8b 4d fc	 mov	 ecx, DWORD PTR _this$[ebp]
  0000a	83 c1 0c	 add	 ecx, 12			; 0000000cH
  0000d	ff 15 00 00 00
	00		 call	 DWORD PTR __imp_?c_str@?$basic_string@DU?$char_traits@D@std@@V?$allocator@D@2@@std@@QBEPBDXZ

; 28   : 		}

  00013	8b e5		 mov	 esp, ebp
  00015	5d		 pop	 ebp
  00016	c3		 ret	 0
?what@logic_error@std@@UBEPBDXZ ENDP			; std::logic_error::what
_TEXT	ENDS
PUBLIC	??0logic_error@std@@QAE@ABV?$basic_string@DU?$char_traits@D@std@@V?$allocator@D@2@@1@@Z ; std::logic_error::logic_error
; Function compile flags: /Odt
;	COMDAT ??0length_error@std@@QAE@ABV?$basic_string@DU?$char_traits@D@std@@V?$allocator@D@2@@1@@Z
_TEXT	SEGMENT
_this$ = -4						; size = 4
__Message$ = 8						; size = 4
??0length_error@std@@QAE@ABV?$basic_string@DU?$char_traits@D@std@@V?$allocator@D@2@@1@@Z PROC NEAR ; std::length_error::length_error, COMDAT
; _this$ = ecx

; 95   : 		{	// construct from message string

  00000	55		 push	 ebp
  00001	8b ec		 mov	 ebp, esp
  00003	51		 push	 ecx
  00004	89 4d fc	 mov	 DWORD PTR _this$[ebp], ecx
  00007	8b 45 08	 mov	 eax, DWORD PTR __Message$[ebp]
  0000a	50		 push	 eax
  0000b	8b 4d fc	 mov	 ecx, DWORD PTR _this$[ebp]
  0000e	e8 00 00 00 00	 call	 ??0logic_error@std@@QAE@ABV?$basic_string@DU?$char_traits@D@std@@V?$allocator@D@2@@1@@Z ; std::logic_error::logic_error
  00013	8b 4d fc	 mov	 ecx, DWORD PTR _this$[ebp]
  00016	c7 01 00 00 00
	00		 mov	 DWORD PTR [ecx], OFFSET FLAT:??_7length_error@std@@6B@

; 96   : 		}

  0001c	8b 45 fc	 mov	 eax, DWORD PTR _this$[ebp]
  0001f	8b e5		 mov	 esp, ebp
  00021	5d		 pop	 ebp
  00022	c2 04 00	 ret	 4
??0length_error@std@@QAE@ABV?$basic_string@DU?$char_traits@D@std@@V?$allocator@D@2@@1@@Z ENDP ; std::length_error::length_error
_TEXT	ENDS
PUBLIC	??_R4logic_error@std@@6B@			; std::logic_error::`RTTI Complete Object Locator'
PUBLIC	??_R3logic_error@std@@8				; std::logic_error::`RTTI Class Hierarchy Descriptor'
PUBLIC	??_R2logic_error@std@@8				; std::logic_error::`RTTI Base Class Array'
PUBLIC	??_7logic_error@std@@6B@			; std::logic_error::`vftable'
PUBLIC	??_Glogic_error@std@@UAEPAXI@Z			; std::logic_error::`scalar deleting destructor'
EXTRN	__imp_??0exception@@QAE@XZ:NEAR
EXTRN	__imp_??1exception@@UAE@XZ:NEAR
EXTRN	??_Elogic_error@std@@UAEPAXI@Z:NEAR		; std::logic_error::`vector deleting destructor'
;	COMDAT xdata$x
xdata$x	SEGMENT
$T205926 DD	0ffffffffH
	DD	FLAT:$L205921
$T205924 DD	019930520H
	DD	01H
	DD	FLAT:$T205926
	DD	2 DUP(00H)
	DD	2 DUP(00H)
xdata$x	ENDS
;	COMDAT ??_7logic_error@std@@6B@
CONST	SEGMENT
??_7logic_error@std@@6B@ DD FLAT:??_R4logic_error@std@@6B@ ; std::logic_error::`vftable'
	DD	FLAT:??_Elogic_error@std@@UAEPAXI@Z
	DD	FLAT:?what@logic_error@std@@UBEPBDXZ
CONST	ENDS
;	COMDAT ??_R4logic_error@std@@6B@
rdata$r	SEGMENT
??_R4logic_error@std@@6B@ DD 00H			; std::logic_error::`RTTI Complete Object Locator'
	DD	00H
	DD	00H
	DD	FLAT:??_R0?AVlogic_error@std@@@8
	DD	FLAT:??_R3logic_error@std@@8
rdata$r	ENDS
;	COMDAT ??_R3logic_error@std@@8
rdata$r	SEGMENT
??_R3logic_error@std@@8 DD 00H				; std::logic_error::`RTTI Class Hierarchy Descriptor'
	DD	00H
	DD	02H
	DD	FLAT:??_R2logic_error@std@@8
rdata$r	ENDS
;	COMDAT ??_R2logic_error@std@@8
rdata$r	SEGMENT
??_R2logic_error@std@@8 DD FLAT:??_R1A@?0A@A@logic_error@std@@8 ; std::logic_error::`RTTI Base Class Array'
	DD	FLAT:??_R1A@?0A@A@exception@@8
; Function compile flags: /Odt
rdata$r	ENDS
;	COMDAT ??0logic_error@std@@QAE@ABV?$basic_string@DU?$char_traits@D@std@@V?$allocator@D@2@@1@@Z
_TEXT	SEGMENT
_this$ = -16						; size = 4
__$EHRec$ = -12						; size = 12
__Message$ = 8						; size = 4
??0logic_error@std@@QAE@ABV?$basic_string@DU?$char_traits@D@std@@V?$allocator@D@2@@1@@Z PROC NEAR ; std::logic_error::logic_error, COMDAT
; _this$ = ecx

; 19   : 		{	// construct from message string

  00000	55		 push	 ebp
  00001	8b ec		 mov	 ebp, esp
  00003	6a ff		 push	 -1
  00005	68 00 00 00 00	 push	 __ehhandler$??0logic_error@std@@QAE@ABV?$basic_string@DU?$char_traits@D@std@@V?$allocator@D@2@@1@@Z
  0000a	64 a1 00 00 00
	00		 mov	 eax, DWORD PTR fs:__except_list
  00010	50		 push	 eax
  00011	64 89 25 00 00
	00 00		 mov	 DWORD PTR fs:__except_list, esp
  00018	51		 push	 ecx
  00019	89 4d f0	 mov	 DWORD PTR _this$[ebp], ecx
  0001c	8b 4d f0	 mov	 ecx, DWORD PTR _this$[ebp]
  0001f	ff 15 00 00 00
	00		 call	 DWORD PTR __imp_??0exception@@QAE@XZ
  00025	c7 45 fc 00 00
	00 00		 mov	 DWORD PTR __$EHRec$[ebp+8], 0
  0002c	8b 45 f0	 mov	 eax, DWORD PTR _this$[ebp]
  0002f	c7 00 00 00 00
	00		 mov	 DWORD PTR [eax], OFFSET FLAT:??_7logic_error@std@@6B@
  00035	8b 4d 08	 mov	 ecx, DWORD PTR __Message$[ebp]
  00038	51		 push	 ecx
  00039	8b 4d f0	 mov	 ecx, DWORD PTR _this$[ebp]
  0003c	83 c1 0c	 add	 ecx, 12			; 0000000cH
  0003f	ff 15 00 00 00
	00		 call	 DWORD PTR __imp_??0?$basic_string@DU?$char_traits@D@std@@V?$allocator@D@2@@std@@QAE@ABV01@@Z

; 20   : 		}

  00045	c7 45 fc ff ff
	ff ff		 mov	 DWORD PTR __$EHRec$[ebp+8], -1
  0004c	8b 45 f0	 mov	 eax, DWORD PTR _this$[ebp]
  0004f	8b 4d f4	 mov	 ecx, DWORD PTR __$EHRec$[ebp]
  00052	64 89 0d 00 00
	00 00		 mov	 DWORD PTR fs:__except_list, ecx
  00059	8b e5		 mov	 esp, ebp
  0005b	5d		 pop	 ebp
  0005c	c2 04 00	 ret	 4
_TEXT	ENDS
;	COMDAT text$x
text$x	SEGMENT
$L205921:
  00000	8b 4d f0	 mov	 ecx, DWORD PTR _this$[ebp]
  00003	ff 25 00 00 00
	00		 jmp	 DWORD PTR __imp_??1exception@@UAE@XZ
__ehhandler$??0logic_error@std@@QAE@ABV?$basic_string@DU?$char_traits@D@std@@V?$allocator@D@2@@1@@Z:
  00009	b8 00 00 00 00	 mov	 eax, OFFSET FLAT:$T205924
  0000e	e9 00 00 00 00	 jmp	 ___CxxFrameHandler
text$x	ENDS
??0logic_error@std@@QAE@ABV?$basic_string@DU?$char_traits@D@std@@V?$allocator@D@2@@1@@Z ENDP ; std::logic_error::logic_error
PUBLIC	??1logic_error@std@@UAE@XZ			; std::logic_error::~logic_error
; Function compile flags: /Odt
;	COMDAT ??_Glogic_error@std@@UAEPAXI@Z
_TEXT	SEGMENT
_this$ = -4						; size = 4
___flags$ = 8						; size = 4
??_Glogic_error@std@@UAEPAXI@Z PROC NEAR		; std::logic_error::`scalar deleting destructor', COMDAT
; _this$ = ecx
  00000	55		 push	 ebp
  00001	8b ec		 mov	 ebp, esp
  00003	51		 push	 ecx
  00004	89 4d fc	 mov	 DWORD PTR _this$[ebp], ecx
  00007	8b 4d fc	 mov	 ecx, DWORD PTR _this$[ebp]
  0000a	e8 00 00 00 00	 call	 ??1logic_error@std@@UAE@XZ ; std::logic_error::~logic_error
  0000f	8b 45 08	 mov	 eax, DWORD PTR ___flags$[ebp]
  00012	83 e0 01	 and	 eax, 1
  00015	74 0c		 je	 SHORT $L102266
  00017	8b 4d fc	 mov	 ecx, DWORD PTR _this$[ebp]
  0001a	51		 push	 ecx
  0001b	e8 00 00 00 00	 call	 ??3@YAXPAX@Z		; operator delete
  00020	83 c4 04	 add	 esp, 4
$L102266:
  00023	8b 45 fc	 mov	 eax, DWORD PTR _this$[ebp]
  00026	8b e5		 mov	 esp, ebp
  00028	5d		 pop	 ebp
  00029	c2 04 00	 ret	 4
??_Glogic_error@std@@UAEPAXI@Z ENDP			; std::logic_error::`scalar deleting destructor'
_TEXT	ENDS
;	COMDAT xdata$x
xdata$x	SEGMENT
$T205938 DD	0ffffffffH
	DD	FLAT:$L205933
$T205936 DD	019930520H
	DD	01H
	DD	FLAT:$T205938
	DD	2 DUP(00H)
	DD	2 DUP(00H)
; Function compile flags: /Odt
xdata$x	ENDS
;	COMDAT ??1logic_error@std@@UAE@XZ
_TEXT	SEGMENT
_this$ = -16						; size = 4
__$EHRec$ = -12						; size = 12
??1logic_error@std@@UAE@XZ PROC NEAR			; std::logic_error::~logic_error, COMDAT
; _this$ = ecx

; 23   : 		{}	// destroy the object

  00000	55		 push	 ebp
  00001	8b ec		 mov	 ebp, esp
  00003	6a ff		 push	 -1
  00005	68 00 00 00 00	 push	 __ehhandler$??1logic_error@std@@UAE@XZ
  0000a	64 a1 00 00 00
	00		 mov	 eax, DWORD PTR fs:__except_list
  00010	50		 push	 eax
  00011	64 89 25 00 00
	00 00		 mov	 DWORD PTR fs:__except_list, esp
  00018	51		 push	 ecx
  00019	89 4d f0	 mov	 DWORD PTR _this$[ebp], ecx
  0001c	8b 45 f0	 mov	 eax, DWORD PTR _this$[ebp]
  0001f	c7 00 00 00 00
	00		 mov	 DWORD PTR [eax], OFFSET FLAT:??_7logic_error@std@@6B@
  00025	c7 45 fc 00 00
	00 00		 mov	 DWORD PTR __$EHRec$[ebp+8], 0
  0002c	8b 4d f0	 mov	 ecx, DWORD PTR _this$[ebp]
  0002f	83 c1 0c	 add	 ecx, 12			; 0000000cH
  00032	ff 15 00 00 00
	00		 call	 DWORD PTR __imp_??1?$basic_string@DU?$char_traits@D@std@@V?$allocator@D@2@@std@@QAE@XZ
  00038	c7 45 fc ff ff
	ff ff		 mov	 DWORD PTR __$EHRec$[ebp+8], -1
  0003f	8b 4d f0	 mov	 ecx, DWORD PTR _this$[ebp]
  00042	ff 15 00 00 00
	00		 call	 DWORD PTR __imp_??1exception@@UAE@XZ
  00048	8b 4d f4	 mov	 ecx, DWORD PTR __$EHRec$[ebp]
  0004b	64 89 0d 00 00
	00 00		 mov	 DWORD PTR fs:__except_list, ecx
  00052	8b e5		 mov	 esp, ebp
  00054	5d		 pop	 ebp
  00055	c3		 ret	 0
_TEXT	ENDS
;	COMDAT text$x
text$x	SEGMENT
$L205933:
  00000	8b 4d f0	 mov	 ecx, DWORD PTR _this$[ebp]
  00003	ff 25 00 00 00
	00		 jmp	 DWORD PTR __imp_??1exception@@UAE@XZ
__ehhandler$??1logic_error@std@@UAE@XZ:
  00009	b8 00 00 00 00	 mov	 eax, OFFSET FLAT:$T205936
  0000e	e9 00 00 00 00	 jmp	 ___CxxFrameHandler
text$x	ENDS
??1logic_error@std@@UAE@XZ ENDP				; std::logic_error::~logic_error
; Function compile flags: /Odt
;	COMDAT ??1length_error@std@@UAE@XZ
_TEXT	SEGMENT
_this$ = -4						; size = 4
??1length_error@std@@UAE@XZ PROC NEAR			; std::length_error::~length_error, COMDAT
; _this$ = ecx

; 99   : 		{}	// destroy the object

  00000	55		 push	 ebp
  00001	8b ec		 mov	 ebp, esp
  00003	51		 push	 ecx
  00004	89 4d fc	 mov	 DWORD PTR _this$[ebp], ecx
  00007	8b 45 fc	 mov	 eax, DWORD PTR _this$[ebp]
  0000a	c7 00 00 00 00
	00		 mov	 DWORD PTR [eax], OFFSET FLAT:??_7length_error@std@@6B@
  00010	8b 4d fc	 mov	 ecx, DWORD PTR _this$[ebp]
  00013	e8 00 00 00 00	 call	 ??1logic_error@std@@UAE@XZ ; std::logic_error::~logic_error
  00018	8b e5		 mov	 esp, ebp
  0001a	5d		 pop	 ebp
  0001b	c3		 ret	 0
??1length_error@std@@UAE@XZ ENDP			; std::length_error::~length_error
; Function compile flags: /Odt
_TEXT	ENDS
;	COMDAT ??_Glength_error@std@@UAEPAXI@Z
_TEXT	SEGMENT
_this$ = -4						; size = 4
___flags$ = 8						; size = 4
??_Glength_error@std@@UAEPAXI@Z PROC NEAR		; std::length_error::`scalar deleting destructor', COMDAT
; _this$ = ecx
  00000	55		 push	 ebp
  00001	8b ec		 mov	 ebp, esp
  00003	51		 push	 ecx
  00004	89 4d fc	 mov	 DWORD PTR _this$[ebp], ecx
  00007	8b 4d fc	 mov	 ecx, DWORD PTR _this$[ebp]
  0000a	e8 00 00 00 00	 call	 ??1length_error@std@@UAE@XZ ; std::length_error::~length_error
  0000f	8b 45 08	 mov	 eax, DWORD PTR ___flags$[ebp]
  00012	83 e0 01	 and	 eax, 1
  00015	74 0c		 je	 SHORT $L102332
  00017	8b 4d fc	 mov	 ecx, DWORD PTR _this$[ebp]
  0001a	51		 push	 ecx
  0001b	e8 00 00 00 00	 call	 ??3@YAXPAX@Z		; operator delete
  00020	83 c4 04	 add	 esp, 4
$L102332:
  00023	8b 45 fc	 mov	 eax, DWORD PTR _this$[ebp]
  00026	8b e5		 mov	 esp, ebp
  00028	5d		 pop	 ebp
  00029	c2 04 00	 ret	 4
??_Glength_error@std@@UAEPAXI@Z ENDP			; std::length_error::`scalar deleting destructor'
; Function compile flags: /Odt
; File d:\boxgit\playbox\playbox\dev\prj\playbox\src\core\imessageobserver.h
_TEXT	ENDS
;	COMDAT ??1IMessageObserver@@UAE@XZ
_TEXT	SEGMENT
_this$ = -4						; size = 4
??1IMessageObserver@@UAE@XZ PROC NEAR			; IMessageObserver::~IMessageObserver, COMDAT
; _this$ = ecx

; 16   : 	virtual ~IMessageObserver(){};

  00000	55		 push	 ebp
  00001	8b ec		 mov	 ebp, esp
  00003	51		 push	 ecx
  00004	89 4d fc	 mov	 DWORD PTR _this$[ebp], ecx
  00007	8b 45 fc	 mov	 eax, DWORD PTR _this$[ebp]
  0000a	c7 00 00 00 00
	00		 mov	 DWORD PTR [eax], OFFSET FLAT:??_7IMessageObserver@@6B@
  00010	8b e5		 mov	 esp, ebp
  00012	5d		 pop	 ebp
  00013	c3		 ret	 0
??1IMessageObserver@@UAE@XZ ENDP			; IMessageObserver::~IMessageObserver
; Function compile flags: /Odt
_TEXT	ENDS
;	COMDAT ??_GIMessageObserver@@UAEPAXI@Z
_TEXT	SEGMENT
_this$ = -4						; size = 4
___flags$ = 8						; size = 4
??_GIMessageObserver@@UAEPAXI@Z PROC NEAR		; IMessageObserver::`scalar deleting destructor', COMDAT
; _this$ = ecx
  00000	55		 push	 ebp
  00001	8b ec		 mov	 ebp, esp
  00003	51		 push	 ecx
  00004	89 4d fc	 mov	 DWORD PTR _this$[ebp], ecx
  00007	8b 4d fc	 mov	 ecx, DWORD PTR _this$[ebp]
  0000a	e8 00 00 00 00	 call	 ??1IMessageObserver@@UAE@XZ ; IMessageObserver::~IMessageObserver
  0000f	8b 45 08	 mov	 eax, DWORD PTR ___flags$[ebp]
  00012	83 e0 01	 and	 eax, 1
  00015	74 0c		 je	 SHORT $L109524
  00017	8b 4d fc	 mov	 ecx, DWORD PTR _this$[ebp]
  0001a	51		 push	 ecx
  0001b	e8 00 00 00 00	 call	 ??3@YAXPAX@Z		; operator delete
  00020	83 c4 04	 add	 esp, 4
$L109524:
  00023	8b 45 fc	 mov	 eax, DWORD PTR _this$[ebp]
  00026	8b e5		 mov	 esp, ebp
  00028	5d		 pop	 ebp
  00029	c2 04 00	 ret	 4
??_GIMessageObserver@@UAEPAXI@Z ENDP			; IMessageObserver::`scalar deleting destructor'
_TEXT	ENDS
EXTRN	__imp_??0exception@@QAE@ABV0@@Z:NEAR
;	COMDAT xdata$x
xdata$x	SEGMENT
$T205957 DD	0ffffffffH
	DD	FLAT:$L205952
$T205955 DD	019930520H
	DD	01H
	DD	FLAT:$T205957
	DD	2 DUP(00H)
	DD	2 DUP(00H)
; Function compile flags: /Odt
xdata$x	ENDS
;	COMDAT ??0logic_error@std@@QAE@ABV01@@Z
_TEXT	SEGMENT
_this$ = -16						; size = 4
__$EHRec$ = -12						; size = 12
___that$ = 8						; size = 4
??0logic_error@std@@QAE@ABV01@@Z PROC NEAR		; std::logic_error::logic_error, COMDAT
; _this$ = ecx
  00000	55		 push	 ebp
  00001	8b ec		 mov	 ebp, esp
  00003	6a ff		 push	 -1
  00005	68 00 00 00 00	 push	 __ehhandler$??0logic_error@std@@QAE@ABV01@@Z
  0000a	64 a1 00 00 00
	00		 mov	 eax, DWORD PTR fs:__except_list
  00010	50		 push	 eax
  00011	64 89 25 00 00
	00 00		 mov	 DWORD PTR fs:__except_list, esp
  00018	51		 push	 ecx
  00019	89 4d f0	 mov	 DWORD PTR _this$[ebp], ecx
  0001c	8b 45 08	 mov	 eax, DWORD PTR ___that$[ebp]
  0001f	50		 push	 eax
  00020	8b 4d f0	 mov	 ecx, DWORD PTR _this$[ebp]
  00023	ff 15 00 00 00
	00		 call	 DWORD PTR __imp_??0exception@@QAE@ABV0@@Z
  00029	c7 45 fc 00 00
	00 00		 mov	 DWORD PTR __$EHRec$[ebp+8], 0
  00030	8b 4d f0	 mov	 ecx, DWORD PTR _this$[ebp]
  00033	c7 01 00 00 00
	00		 mov	 DWORD PTR [ecx], OFFSET FLAT:??_7logic_error@std@@6B@
  00039	8b 55 08	 mov	 edx, DWORD PTR ___that$[ebp]
  0003c	83 c2 0c	 add	 edx, 12			; 0000000cH
  0003f	52		 push	 edx
  00040	8b 4d f0	 mov	 ecx, DWORD PTR _this$[ebp]
  00043	83 c1 0c	 add	 ecx, 12			; 0000000cH
  00046	ff 15 00 00 00
	00		 call	 DWORD PTR __imp_??0?$basic_string@DU?$char_traits@D@std@@V?$allocator@D@2@@std@@QAE@ABV01@@Z
  0004c	c7 45 fc ff ff
	ff ff		 mov	 DWORD PTR __$EHRec$[ebp+8], -1
  00053	8b 45 f0	 mov	 eax, DWORD PTR _this$[ebp]
  00056	8b 4d f4	 mov	 ecx, DWORD PTR __$EHRec$[ebp]
  00059	64 89 0d 00 00
	00 00		 mov	 DWORD PTR fs:__except_list, ecx
  00060	8b e5		 mov	 esp, ebp
  00062	5d		 pop	 ebp
  00063	c2 04 00	 ret	 4
_TEXT	ENDS
;	COMDAT text$x
text$x	SEGMENT
$L205952:
  00000	8b 4d f0	 mov	 ecx, DWORD PTR _this$[ebp]
  00003	ff 25 00 00 00
	00		 jmp	 DWORD PTR __imp_??1exception@@UAE@XZ
__ehhandler$??0logic_error@std@@QAE@ABV01@@Z:
  00009	b8 00 00 00 00	 mov	 eax, OFFSET FLAT:$T205955
  0000e	e9 00 00 00 00	 jmp	 ___CxxFrameHandler
text$x	ENDS
??0logic_error@std@@QAE@ABV01@@Z ENDP			; std::logic_error::logic_error
CRT$XCU	SEGMENT
_$S6	DD	FLAT:_$E5
; Function compile flags: /Odt
; File d:\boxgit\playbox\playbox\dev\prj\playbox\src\appconfig\config\configsettingdef.h
CRT$XCU	ENDS
;	COMDAT _$E5
text$yc	SEGMENT
_$E5	PROC NEAR					; COMDAT

; 25   : 	CONF_SETTING_SKIN_IDX,				TYPE_CONFIG_STR,

  00000	55		 push	 ebp
  00001	8b ec		 mov	 ebp, esp
  00003	a1 00 00 00 00	 mov	 eax, DWORD PTR _CONF_SETTING_SKIN_IDX
  00008	a3 00 00 00 00	 mov	 DWORD PTR _CONF_SETTING, eax
  0000d	8b 0d 00 00 00
	00		 mov	 ecx, DWORD PTR _TYPE_CONFIG_STR
  00013	89 0d 04 00 00
	00		 mov	 DWORD PTR _CONF_SETTING+4, ecx

; 26   : 	CONF_SETTING_CONFIG_MAIN_PAGE,		TYPE_CONFIG_STR,

  00019	8b 15 00 00 00
	00		 mov	 edx, DWORD PTR _CONF_SETTING_CONFIG_MAIN_PAGE
  0001f	89 15 08 00 00
	00		 mov	 DWORD PTR _CONF_SETTING+8, edx
  00025	a1 00 00 00 00	 mov	 eax, DWORD PTR _TYPE_CONFIG_STR
  0002a	a3 0c 00 00 00	 mov	 DWORD PTR _CONF_SETTING+12, eax

; 27   : 	CONF_SETTING_CONFIG_PROBLEM_REPORT,	TYPE_CONFIG_STR,

  0002f	8b 0d 00 00 00
	00		 mov	 ecx, DWORD PTR _CONF_SETTING_CONFIG_PROBLEM_REPORT
  00035	89 0d 10 00 00
	00		 mov	 DWORD PTR _CONF_SETTING+16, ecx
  0003b	8b 15 00 00 00
	00		 mov	 edx, DWORD PTR _TYPE_CONFIG_STR
  00041	89 15 14 00 00
	00		 mov	 DWORD PTR _CONF_SETTING+20, edx

; 28   : 	CONF_SETTING_CONFIG_HOME_PAGE,		TYPE_CONFIG_STR,

  00047	a1 00 00 00 00	 mov	 eax, DWORD PTR _CONF_SETTING_CONFIG_HOME_PAGE
  0004c	a3 18 00 00 00	 mov	 DWORD PTR _CONF_SETTING+24, eax
  00051	8b 0d 00 00 00
	00		 mov	 ecx, DWORD PTR _TYPE_CONFIG_STR
  00057	89 0d 1c 00 00
	00		 mov	 DWORD PTR _CONF_SETTING+28, ecx

; 29   : 	CONF_SETTING_CONFIG_IFASKEXIT,		TYPE_CONFIG_BOOL,

  0005d	8b 15 00 00 00
	00		 mov	 edx, DWORD PTR _CONF_SETTING_CONFIG_IFASKEXIT
  00063	89 15 20 00 00
	00		 mov	 DWORD PTR _CONF_SETTING+32, edx
  00069	a1 00 00 00 00	 mov	 eax, DWORD PTR _TYPE_CONFIG_BOOL
  0006e	a3 24 00 00 00	 mov	 DWORD PTR _CONF_SETTING+36, eax

; 30   : 	CONF_SETTING_CONFIG_EXITCHOICE,		TYPE_CONFIG_BOOL,

  00073	8b 0d 00 00 00
	00		 mov	 ecx, DWORD PTR _CONF_SETTING_CONFIG_EXITCHOICE
  00079	89 0d 28 00 00
	00		 mov	 DWORD PTR _CONF_SETTING+40, ecx
  0007f	8b 15 00 00 00
	00		 mov	 edx, DWORD PTR _TYPE_CONFIG_BOOL
  00085	89 15 2c 00 00
	00		 mov	 DWORD PTR _CONF_SETTING+44, edx

; 31   : 	CONF_SETTING_LOGIN_USER_NAME,		TYPE_CONFIG_STR,

  0008b	a1 00 00 00 00	 mov	 eax, DWORD PTR _CONF_SETTING_LOGIN_USER_NAME
  00090	a3 30 00 00 00	 mov	 DWORD PTR _CONF_SETTING+48, eax
  00095	8b 0d 00 00 00
	00		 mov	 ecx, DWORD PTR _TYPE_CONFIG_STR
  0009b	89 0d 34 00 00
	00		 mov	 DWORD PTR _CONF_SETTING+52, ecx

; 32   : 	CONF_SETTING_LOGIN_PASSWORD,		TYPE_CONFIG_STR,

  000a1	8b 15 00 00 00
	00		 mov	 edx, DWORD PTR _CONF_SETTING_LOGIN_PASSWORD
  000a7	89 15 38 00 00
	00		 mov	 DWORD PTR _CONF_SETTING+56, edx
  000ad	a1 00 00 00 00	 mov	 eax, DWORD PTR _TYPE_CONFIG_STR
  000b2	a3 3c 00 00 00	 mov	 DWORD PTR _CONF_SETTING+60, eax

; 33   : 	CONF_SETTING_NETID,					TYPE_CONFIG_STR,

  000b7	8b 0d 00 00 00
	00		 mov	 ecx, DWORD PTR _CONF_SETTING_NETID
  000bd	89 0d 40 00 00
	00		 mov	 DWORD PTR _CONF_SETTING+64, ecx
  000c3	8b 15 00 00 00
	00		 mov	 edx, DWORD PTR _TYPE_CONFIG_STR
  000c9	89 15 44 00 00
	00		 mov	 DWORD PTR _CONF_SETTING+68, edx

; 34   : 	CONF_SETTING_COLOR,					TYPE_CONFIG_INT,

  000cf	a1 00 00 00 00	 mov	 eax, DWORD PTR _CONF_SETTING_COLOR
  000d4	a3 48 00 00 00	 mov	 DWORD PTR _CONF_SETTING+72, eax
  000d9	8b 0d 00 00 00
	00		 mov	 ecx, DWORD PTR _TYPE_CONFIG_INT
  000df	89 0d 4c 00 00
	00		 mov	 DWORD PTR _CONF_SETTING+76, ecx

; 35   : 	CONF_SETTING_LIGHT,					TYPE_CONFIG_INT,

  000e5	8b 15 00 00 00
	00		 mov	 edx, DWORD PTR _CONF_SETTING_LIGHT
  000eb	89 15 50 00 00
	00		 mov	 DWORD PTR _CONF_SETTING+80, edx
  000f1	a1 00 00 00 00	 mov	 eax, DWORD PTR _TYPE_CONFIG_INT
  000f6	a3 54 00 00 00	 mov	 DWORD PTR _CONF_SETTING+84, eax

; 36   : 	CONF_SETTING_COLOR_BTN_INDEX,		TYPE_CONFIG_INT,

  000fb	8b 0d 00 00 00
	00		 mov	 ecx, DWORD PTR _CONF_SETTING_COLOR_BTN_INDEX
  00101	89 0d 58 00 00
	00		 mov	 DWORD PTR _CONF_SETTING+88, ecx
  00107	8b 15 00 00 00
	00		 mov	 edx, DWORD PTR _TYPE_CONFIG_INT
  0010d	89 15 5c 00 00
	00		 mov	 DWORD PTR _CONF_SETTING+92, edx

; 37   : 	CONF_SETTING_COLOR_USER,			TYPE_CONFIG_INT,

  00113	a1 00 00 00 00	 mov	 eax, DWORD PTR _CONF_SETTING_COLOR_USER
  00118	a3 60 00 00 00	 mov	 DWORD PTR _CONF_SETTING+96, eax
  0011d	8b 0d 00 00 00
	00		 mov	 ecx, DWORD PTR _TYPE_CONFIG_INT
  00123	89 0d 64 00 00
	00		 mov	 DWORD PTR _CONF_SETTING+100, ecx

; 38   : 	CONF_SETTING_FIRST_TIME_CHANGESKIN, TYPE_CONFIG_BOOL

  00129	8b 15 00 00 00
	00		 mov	 edx, DWORD PTR _CONF_SETTING_FIRST_TIME_CHANGESKIN
  0012f	89 15 68 00 00
	00		 mov	 DWORD PTR _CONF_SETTING+104, edx

; 39   : };

  00135	a1 00 00 00 00	 mov	 eax, DWORD PTR _TYPE_CONFIG_BOOL
  0013a	a3 6c 00 00 00	 mov	 DWORD PTR _CONF_SETTING+108, eax
  0013f	5d		 pop	 ebp
  00140	c3		 ret	 0
_$E5	ENDP
text$yc	ENDS
_BSS	SEGMENT
_CONF_SETTING DD 01cH DUP (?)
_BSS	ENDS
END
