; Listing generated by Microsoft (R) Optimizing Compiler Version 13.10.3077 

	TITLE	.\src\Gui\CommonControl\ie_explorer.cpp
	.386P
include listing.inc
if @Version gt 510
.model FLAT
else
_TEXT	SEGMENT PARA USE32 PUBLIC 'CODE'
_TEXT	ENDS
_DATA	SEGMENT DWORD USE32 PUBLIC 'DATA'
_DATA	ENDS
CONST	SEGMENT DWORD USE32 PUBLIC 'CONST'
CONST	ENDS
_BSS	SEGMENT DWORD USE32 PUBLIC 'BSS'
_BSS	ENDS
$$SYMBOLS	SEGMENT BYTE USE32 'DEBSYM'
$$SYMBOLS	ENDS
$$TYPES	SEGMENT BYTE USE32 'DEBTYP'
$$TYPES	ENDS
_TLS	SEGMENT DWORD USE32 PUBLIC 'TLS'
_TLS	ENDS
;	COMDAT ??_C@_0BE@NNIJINN@IDispatch?5error?5?$CD?$CFd?$AA@
CONST	SEGMENT DWORD USE32 PUBLIC 'CONST'
CONST	ENDS
;	COMDAT ??_C@_0BF@IPPGFENJ@Unknown?5error?50x?$CF0lX?$AA@
CONST	SEGMENT DWORD USE32 PUBLIC 'CONST'
CONST	ENDS
rdata$r	SEGMENT DWORD USE32 PUBLIC 'CONST'
rdata$r	ENDS
xdata$x	SEGMENT DWORD USE32 PUBLIC 'CONST'
xdata$x	ENDS
text$AFX_COL1	SEGMENT PARA USE32 PUBLIC ''
text$AFX_COL1	ENDS
text$yc	SEGMENT PARA USE32 PUBLIC 'CODE'
text$yc	ENDS
CRT$XCA	SEGMENT DWORD USE32 PUBLIC 'DATA'
CRT$XCA	ENDS
CRT$XCU	SEGMENT DWORD USE32 PUBLIC 'DATA'
CRT$XCU	ENDS
CRT$XCL	SEGMENT DWORD USE32 PUBLIC 'DATA'
CRT$XCL	ENDS
CRT$XCC	SEGMENT DWORD USE32 PUBLIC 'DATA'
CRT$XCC	ENDS
CRT$XCZ	SEGMENT DWORD USE32 PUBLIC 'DATA'
CRT$XCZ	ENDS
text$yd	SEGMENT PARA USE32 PUBLIC 'CODE'
text$yd	ENDS
ATL$__m	SEGMENT DWORD USE32 PUBLIC ''
ATL$__m	ENDS
ATL$__z	SEGMENT DWORD USE32 PUBLIC ''
ATL$__z	ENDS
ATL$__a	SEGMENT DWORD USE32 PUBLIC ''
ATL$__a	ENDS
;	COMDAT ?GetClsid@CWebBrowser@@QAEABU_GUID@@XZ
_TEXT	SEGMENT PARA USE32 PUBLIC 'CODE'
_TEXT	ENDS
;	COMDAT ?Create@CWebBrowser@@UAEHPBD0KABUtagRECT@@PAVCWnd@@IPAUCCreateContext@@@Z
_TEXT	SEGMENT PARA USE32 PUBLIC 'CODE'
_TEXT	ENDS
;	COMDAT ?get_Document@CWebBrowser@@QAEPAUIDispatch@@XZ
_TEXT	SEGMENT PARA USE32 PUBLIC 'CODE'
_TEXT	ENDS
;	COMDAT ?CheckError@_com_util@@YAXJ@Z
_TEXT	SEGMENT PARA USE32 PUBLIC 'CODE'
_TEXT	ENDS
;	COMDAT ??0_bstr_t@@QAE@ABV0@@Z
_TEXT	SEGMENT PARA USE32 PUBLIC 'CODE'
_TEXT	ENDS
;	COMDAT ??0_bstr_t@@QAE@PBD@Z
_TEXT	SEGMENT PARA USE32 PUBLIC 'CODE'
_TEXT	ENDS
;	COMDAT ??0_bstr_t@@QAE@PB_W@Z
_TEXT	SEGMENT PARA USE32 PUBLIC 'CODE'
_TEXT	ENDS
;	COMDAT ??0_bstr_t@@QAE@PA_W_N@Z
_TEXT	SEGMENT PARA USE32 PUBLIC 'CODE'
_TEXT	ENDS
;	COMDAT ??1_bstr_t@@QAE@XZ
_TEXT	SEGMENT PARA USE32 PUBLIC 'CODE'
_TEXT	ENDS
;	COMDAT ??4_bstr_t@@QAEAAV0@PB_W@Z
_TEXT	SEGMENT PARA USE32 PUBLIC 'CODE'
_TEXT	ENDS
;	COMDAT ??Y_bstr_t@@QAEAAV0@ABV0@@Z
_TEXT	SEGMENT PARA USE32 PUBLIC 'CODE'
_TEXT	ENDS
;	COMDAT ??B_bstr_t@@QBEPB_WXZ
_TEXT	SEGMENT PARA USE32 PUBLIC 'CODE'
_TEXT	ENDS
;	COMDAT ??B_bstr_t@@QBEPA_WXZ
_TEXT	SEGMENT PARA USE32 PUBLIC 'CODE'
_TEXT	ENDS
;	COMDAT ??7_bstr_t@@QBE_NXZ
_TEXT	SEGMENT PARA USE32 PUBLIC 'CODE'
_TEXT	ENDS
;	COMDAT ?length@_bstr_t@@QBEIXZ
_TEXT	SEGMENT PARA USE32 PUBLIC 'CODE'
_TEXT	ENDS
;	COMDAT ?Attach@_bstr_t@@QAEXPA_W@Z
_TEXT	SEGMENT PARA USE32 PUBLIC 'CODE'
_TEXT	ENDS
;	COMDAT ?_AddRef@_bstr_t@@AAEXXZ
_TEXT	SEGMENT PARA USE32 PUBLIC 'CODE'
_TEXT	ENDS
;	COMDAT ?_Free@_bstr_t@@AAEXXZ
_TEXT	SEGMENT PARA USE32 PUBLIC 'CODE'
_TEXT	ENDS
;	COMDAT ?_Compare@_bstr_t@@ABEHABV1@@Z
_TEXT	SEGMENT PARA USE32 PUBLIC 'CODE'
_TEXT	ENDS
;	COMDAT ??0Data_t@_bstr_t@@QAE@PBD@Z
_TEXT	SEGMENT PARA USE32 PUBLIC 'CODE'
_TEXT	ENDS
;	COMDAT ??0Data_t@_bstr_t@@QAE@PB_W@Z
_TEXT	SEGMENT PARA USE32 PUBLIC 'CODE'
_TEXT	ENDS
;	COMDAT ??0Data_t@_bstr_t@@QAE@PA_W_N@Z
_TEXT	SEGMENT PARA USE32 PUBLIC 'CODE'
_TEXT	ENDS
;	COMDAT ??0Data_t@_bstr_t@@QAE@ABV1@0@Z
_TEXT	SEGMENT PARA USE32 PUBLIC 'CODE'
_TEXT	ENDS
;	COMDAT ?AddRef@Data_t@_bstr_t@@QAEKXZ
_TEXT	SEGMENT PARA USE32 PUBLIC 'CODE'
_TEXT	ENDS
;	COMDAT ?Release@Data_t@_bstr_t@@QAEKXZ
_TEXT	SEGMENT PARA USE32 PUBLIC 'CODE'
_TEXT	ENDS
;	COMDAT ??_GData_t@_bstr_t@@AAEPAXI@Z
_TEXT	SEGMENT PARA USE32 PUBLIC 'CODE'
_TEXT	ENDS
;	COMDAT ?GetWString@Data_t@_bstr_t@@QAEAAPA_WXZ
_TEXT	SEGMENT PARA USE32 PUBLIC 'CODE'
_TEXT	ENDS
;	COMDAT ?GetString@Data_t@_bstr_t@@QBEPBDXZ
_TEXT	SEGMENT PARA USE32 PUBLIC 'CODE'
_TEXT	ENDS
;	COMDAT ?Copy@Data_t@_bstr_t@@QBEPA_WXZ
_TEXT	SEGMENT PARA USE32 PUBLIC 'CODE'
_TEXT	ENDS
;	COMDAT ?Length@Data_t@_bstr_t@@QBEIXZ
_TEXT	SEGMENT PARA USE32 PUBLIC 'CODE'
_TEXT	ENDS
;	COMDAT ?Compare@Data_t@_bstr_t@@QBEHABV12@@Z
_TEXT	SEGMENT PARA USE32 PUBLIC 'CODE'
_TEXT	ENDS
;	COMDAT ??2Data_t@_bstr_t@@SAPAXI@Z
_TEXT	SEGMENT PARA USE32 PUBLIC 'CODE'
_TEXT	ENDS
;	COMDAT ??1Data_t@_bstr_t@@AAE@XZ
_TEXT	SEGMENT PARA USE32 PUBLIC 'CODE'
_TEXT	ENDS
;	COMDAT ?_Free@Data_t@_bstr_t@@AAEXXZ
_TEXT	SEGMENT PARA USE32 PUBLIC 'CODE'
_TEXT	ENDS
;	COMDAT ??0_variant_t@@QAE@XZ
_TEXT	SEGMENT PARA USE32 PUBLIC 'CODE'
_TEXT	ENDS
;	COMDAT ??4_variant_t@@QAEAAV0@PBD@Z
_TEXT	SEGMENT PARA USE32 PUBLIC 'CODE'
_TEXT	ENDS
;	COMDAT ??8_variant_t@@QBE_NPBUtagVARIANT@@@Z
_TEXT	SEGMENT PARA USE32 PUBLIC 'CODE'
_TEXT	ENDS
;	COMDAT ?Clear@_variant_t@@QAEXXZ
_TEXT	SEGMENT PARA USE32 PUBLIC 'CODE'
_TEXT	ENDS
;	COMDAT ?ChangeType@_variant_t@@QAEXGPBV1@@Z
_TEXT	SEGMENT PARA USE32 PUBLIC 'CODE'
_TEXT	ENDS
;	COMDAT ??1_variant_t@@QAE@XZ
_TEXT	SEGMENT PARA USE32 PUBLIC 'CODE'
_TEXT	ENDS
;	COMDAT ??_G_com_error@@UAEPAXI@Z
_TEXT	SEGMENT PARA USE32 PUBLIC 'CODE'
_TEXT	ENDS
;	COMDAT ??0_com_error@@QAE@ABV0@@Z
_TEXT	SEGMENT PARA USE32 PUBLIC 'CODE'
_TEXT	ENDS
;	COMDAT ??1_com_error@@UAE@XZ
_TEXT	SEGMENT PARA USE32 PUBLIC 'CODE'
_TEXT	ENDS
;	COMDAT ?WCode@_com_error@@QBEGXZ
_TEXT	SEGMENT PARA USE32 PUBLIC 'CODE'
_TEXT	ENDS
;	COMDAT ?HRESULTToWCode@_com_error@@SAGJ@Z
_TEXT	SEGMENT PARA USE32 PUBLIC 'CODE'
_TEXT	ENDS
;	COMDAT ??0CWebBrowser@@QAE@XZ
_TEXT	SEGMENT PARA USE32 PUBLIC 'CODE'
_TEXT	ENDS
;	COMDAT ??_GCWebBrowser@@UAEPAXI@Z
_TEXT	SEGMENT PARA USE32 PUBLIC 'CODE'
_TEXT	ENDS
;	COMDAT ??1CWebBrowser@@UAE@XZ
_TEXT	SEGMENT PARA USE32 PUBLIC 'CODE'
_TEXT	ENDS
;	COMDAT ??1?$CComQIPtr@UIHTMLDocument2@@$1?IID_IHTMLDocument2@@3U_GUID@@B@ATL@@QAE@XZ
_TEXT	SEGMENT PARA USE32 PUBLIC 'CODE'
_TEXT	ENDS
;	COMDAT ??1?$CComPtr@UIHTMLElement@@@ATL@@QAE@XZ
_TEXT	SEGMENT PARA USE32 PUBLIC 'CODE'
_TEXT	ENDS
;	COMDAT ??1?$CComPtr@UIHTMLStyle@@@ATL@@QAE@XZ
_TEXT	SEGMENT PARA USE32 PUBLIC 'CODE'
_TEXT	ENDS
;	COMDAT ??1?$CComPtr@UIHTMLDocument2@@@ATL@@QAE@XZ
_TEXT	SEGMENT PARA USE32 PUBLIC 'CODE'
_TEXT	ENDS
;	COMDAT ??B?$CComPtrBase@UIDispatch@@@ATL@@QBEPAUIDispatch@@XZ
_TEXT	SEGMENT PARA USE32 PUBLIC 'CODE'
_TEXT	ENDS
;	COMDAT ??B?$CComPtrBase@UITypeInfo2@@@ATL@@QBEPAUITypeInfo2@@XZ
_TEXT	SEGMENT PARA USE32 PUBLIC 'CODE'
_TEXT	ENDS
;	COMDAT ??1?$CComPtrBase@UIHTMLDocument2@@@ATL@@QAE@XZ
_TEXT	SEGMENT PARA USE32 PUBLIC 'CODE'
_TEXT	ENDS
;	COMDAT ??C?$CComPtrBase@UIHTMLDocument2@@@ATL@@QBEPAV?$_NoAddRefReleaseOnCComPtr@UIHTMLDocument2@@@1@XZ
_TEXT	SEGMENT PARA USE32 PUBLIC 'CODE'
_TEXT	ENDS
;	COMDAT ?equal@?$istreambuf_iterator@DU?$char_traits@D@std@@@std@@QBE_NABV12@@Z
_TEXT	SEGMENT PARA USE32 PUBLIC 'CODE'
_TEXT	ENDS
;	COMDAT ?equal@?$istreambuf_iterator@_WU?$char_traits@_W@std@@@std@@QBE_NABV12@@Z
_TEXT	SEGMENT PARA USE32 PUBLIC 'CODE'
_TEXT	ENDS
;	COMDAT ??0?$CComQIPtr@UIHTMLDocument2@@$1?IID_IHTMLDocument2@@3U_GUID@@B@ATL@@QAE@XZ
_TEXT	SEGMENT PARA USE32 PUBLIC 'CODE'
_TEXT	ENDS
;	COMDAT ??4?$CComQIPtr@UIHTMLDocument2@@$1?IID_IHTMLDocument2@@3U_GUID@@B@ATL@@QAEPAUIHTMLDocument2@@PAUIUnknown@@@Z
_TEXT	SEGMENT PARA USE32 PUBLIC 'CODE'
_TEXT	ENDS
;	COMDAT ??0?$CComPtr@UIHTMLElement@@@ATL@@QAE@XZ
_TEXT	SEGMENT PARA USE32 PUBLIC 'CODE'
_TEXT	ENDS
;	COMDAT ??1?$CComPtrBase@UIHTMLElement@@@ATL@@QAE@XZ
_TEXT	SEGMENT PARA USE32 PUBLIC 'CODE'
_TEXT	ENDS
;	COMDAT ??I?$CComPtrBase@UIHTMLElement@@@ATL@@QAEPAPAUIHTMLElement@@XZ
_TEXT	SEGMENT PARA USE32 PUBLIC 'CODE'
_TEXT	ENDS
;	COMDAT ??C?$CComPtrBase@UIHTMLElement@@@ATL@@QBEPAV?$_NoAddRefReleaseOnCComPtr@UIHTMLElement@@@1@XZ
_TEXT	SEGMENT PARA USE32 PUBLIC 'CODE'
_TEXT	ENDS
;	COMDAT ??0?$CComPtr@UIHTMLStyle@@@ATL@@QAE@XZ
_TEXT	SEGMENT PARA USE32 PUBLIC 'CODE'
_TEXT	ENDS
;	COMDAT ??1?$CComPtrBase@UIHTMLStyle@@@ATL@@QAE@XZ
_TEXT	SEGMENT PARA USE32 PUBLIC 'CODE'
_TEXT	ENDS
;	COMDAT ??I?$CComPtrBase@UIHTMLStyle@@@ATL@@QAEPAPAUIHTMLStyle@@XZ
_TEXT	SEGMENT PARA USE32 PUBLIC 'CODE'
_TEXT	ENDS
;	COMDAT ??C?$CComPtrBase@UIHTMLStyle@@@ATL@@QBEPAV?$_NoAddRefReleaseOnCComPtr@UIHTMLStyle@@@1@XZ
_TEXT	SEGMENT PARA USE32 PUBLIC 'CODE'
_TEXT	ENDS
;	COMDAT ?AllocSysString@?$ChTraitsCRT@D@ATL@@SAPA_WPBDH@Z
_TEXT	SEGMENT PARA USE32 PUBLIC 'CODE'
_TEXT	ENDS
;	COMDAT ??0?$CComPtr@UIHTMLDocument2@@@ATL@@QAE@XZ
_TEXT	SEGMENT PARA USE32 PUBLIC 'CODE'
_TEXT	ENDS
;	COMDAT ??0?$CComPtrBase@UIHTMLElement@@@ATL@@IAE@XZ
_TEXT	SEGMENT PARA USE32 PUBLIC 'CODE'
_TEXT	ENDS
;	COMDAT ??0?$CComPtrBase@UIHTMLStyle@@@ATL@@IAE@XZ
_TEXT	SEGMENT PARA USE32 PUBLIC 'CODE'
_TEXT	ENDS
;	COMDAT ??0?$CComPtrBase@UIHTMLDocument2@@@ATL@@IAE@XZ
_TEXT	SEGMENT PARA USE32 PUBLIC 'CODE'
_TEXT	ENDS
;	COMDAT ?Unlock@?$CComCritSecLock@VCComCriticalSection@ATL@@@ATL@@QAEXXZ
_TEXT	SEGMENT PARA USE32 PUBLIC 'CODE'
_TEXT	ENDS
;	COMDAT ??$_Maklocstr@D@std@@YAPADPBDPADABU_Cvtvec@@@Z
_TEXT	SEGMENT PARA USE32 PUBLIC 'CODE'
_TEXT	ENDS
;	COMDAT ??_R3_com_error@@8
rdata$r	SEGMENT DWORD USE32 PUBLIC 'CONST'
rdata$r	ENDS
;	COMDAT ??_R3CWebBrowser@@8
rdata$r	SEGMENT DWORD USE32 PUBLIC 'CONST'
rdata$r	ENDS
;	COMDAT ??_R3?$numpunct@_W@std@@8
rdata$r	SEGMENT DWORD USE32 PUBLIC 'CONST'
rdata$r	ENDS
;	COMDAT ??_R3?$numpunct@D@std@@8
rdata$r	SEGMENT DWORD USE32 PUBLIC 'CONST'
rdata$r	ENDS
;	COMDAT ??_R2_com_error@@8
rdata$r	SEGMENT DWORD USE32 PUBLIC 'CONST'
rdata$r	ENDS
;	COMDAT ??_R2CWebBrowser@@8
rdata$r	SEGMENT DWORD USE32 PUBLIC 'CONST'
rdata$r	ENDS
;	COMDAT ??_R2?$numpunct@_W@std@@8
rdata$r	SEGMENT DWORD USE32 PUBLIC 'CONST'
rdata$r	ENDS
;	COMDAT ??_R2?$numpunct@D@std@@8
rdata$r	SEGMENT DWORD USE32 PUBLIC 'CONST'
rdata$r	ENDS
;	COMDAT ??_R1A@?0A@A@_com_error@@8
rdata$r	SEGMENT DWORD USE32 PUBLIC 'CONST'
rdata$r	ENDS
;	COMDAT ??_R1A@?0A@A@CObject@@8
rdata$r	SEGMENT DWORD USE32 PUBLIC 'CONST'
rdata$r	ENDS
;	COMDAT ??_R0?AVCObject@@@8
_DATA	SEGMENT DWORD USE32 PUBLIC 'DATA'
_DATA	ENDS
;	COMDAT ??_R1A@?0A@A@CCmdTarget@@8
rdata$r	SEGMENT DWORD USE32 PUBLIC 'CONST'
rdata$r	ENDS
;	COMDAT ??_R0?AVCCmdTarget@@@8
_DATA	SEGMENT DWORD USE32 PUBLIC 'DATA'
_DATA	ENDS
;	COMDAT ??_R1A@?0A@A@CWnd@@8
rdata$r	SEGMENT DWORD USE32 PUBLIC 'CONST'
rdata$r	ENDS
;	COMDAT ??_R0?AVCWnd@@@8
_DATA	SEGMENT DWORD USE32 PUBLIC 'DATA'
_DATA	ENDS
;	COMDAT ??_R1A@?0A@A@CWebBrowser@@8
rdata$r	SEGMENT DWORD USE32 PUBLIC 'CONST'
rdata$r	ENDS
;	COMDAT ??_R1A@?0A@A@?$numpunct@_W@std@@8
rdata$r	SEGMENT DWORD USE32 PUBLIC 'CONST'
rdata$r	ENDS
;	COMDAT ??_R1A@?0A@A@facet@locale@std@@8
rdata$r	SEGMENT DWORD USE32 PUBLIC 'CONST'
rdata$r	ENDS
;	COMDAT ??_R0?AVfacet@locale@std@@@8
_DATA	SEGMENT DWORD USE32 PUBLIC 'DATA'
_DATA	ENDS
;	COMDAT ??_R1A@?0A@A@?$numpunct@D@std@@8
rdata$r	SEGMENT DWORD USE32 PUBLIC 'CONST'
rdata$r	ENDS
;	COMDAT ??_R0?AV_com_error@@@8
_DATA	SEGMENT DWORD USE32 PUBLIC 'DATA'
_DATA	ENDS
;	COMDAT ??_R0?AVCWebBrowser@@@8
_DATA	SEGMENT DWORD USE32 PUBLIC 'DATA'
_DATA	ENDS
;	COMDAT ??_R0?AV?$numpunct@_W@std@@@8
_DATA	SEGMENT DWORD USE32 PUBLIC 'DATA'
_DATA	ENDS
;	COMDAT ??_R0?AV?$numpunct@D@std@@@8
_DATA	SEGMENT DWORD USE32 PUBLIC 'DATA'
_DATA	ENDS
;	COMDAT ??_R4_com_error@@6B@
rdata$r	SEGMENT DWORD USE32 PUBLIC 'CONST'
rdata$r	ENDS
;	COMDAT ?EndModalState@CWnd@@UAEXXZ
_TEXT	SEGMENT PARA USE32 PUBLIC 'CODE'
_TEXT	ENDS
;	COMDAT ?BeginModalState@CWnd@@UAEXXZ
_TEXT	SEGMENT PARA USE32 PUBLIC 'CODE'
_TEXT	ENDS
;	COMDAT ?DoDataExchange@CWnd@@MAEXPAVCDataExchange@@@Z
_TEXT	SEGMENT PARA USE32 PUBLIC 'CODE'
_TEXT	ENDS
;	COMDAT ?Dump@CObject@@UBEXAAVCDumpContext@@@Z
_TEXT	SEGMENT PARA USE32 PUBLIC 'CODE'
_TEXT	ENDS
;	COMDAT ?AssertValid@CObject@@UBEXXZ
_TEXT	SEGMENT PARA USE32 PUBLIC 'CODE'
_TEXT	ENDS
;	COMDAT ?Serialize@CObject@@UAEXAAVCArchive@@@Z
_TEXT	SEGMENT PARA USE32 PUBLIC 'CODE'
_TEXT	ENDS
;	COMDAT ??_R4CWebBrowser@@6B@
rdata$r	SEGMENT DWORD USE32 PUBLIC 'CONST'
rdata$r	ENDS
;	COMDAT ??0?$allocator@_W@std@@QAE@XZ
_TEXT	SEGMENT PARA USE32 PUBLIC 'CODE'
_TEXT	ENDS
;	COMDAT ??0?$allocator@D@std@@QAE@ABV01@@Z
_TEXT	SEGMENT PARA USE32 PUBLIC 'CODE'
_TEXT	ENDS
;	COMDAT ??0?$allocator@D@std@@QAE@XZ
_TEXT	SEGMENT PARA USE32 PUBLIC 'CODE'
_TEXT	ENDS
;	COMDAT ?deallocate@?$allocator@D@std@@QAEXPADI@Z
_TEXT	SEGMENT PARA USE32 PUBLIC 'CODE'
_TEXT	ENDS
;	COMDAT ?max_size@?$allocator@D@std@@QBEIXZ
_TEXT	SEGMENT PARA USE32 PUBLIC 'CODE'
_TEXT	ENDS
;	COMDAT ?allocate@?$allocator@D@std@@QAEPADI@Z
_TEXT	SEGMENT PARA USE32 PUBLIC 'CODE'
_TEXT	ENDS
;	COMDAT ??$_Allocate@D@std@@YAPADIPAD@Z
_TEXT	SEGMENT PARA USE32 PUBLIC 'CODE'
_TEXT	ENDS
;	COMDAT ??_G?$numpunct@_W@std@@MAEPAXI@Z
_TEXT	SEGMENT PARA USE32 PUBLIC 'CODE'
_TEXT	ENDS
;	COMDAT ??_R4?$numpunct@_W@std@@6B@
rdata$r	SEGMENT DWORD USE32 PUBLIC 'CONST'
rdata$r	ENDS
;	COMDAT ??_G?$numpunct@D@std@@MAEPAXI@Z
_TEXT	SEGMENT PARA USE32 PUBLIC 'CODE'
_TEXT	ENDS
;	COMDAT ??_R4?$numpunct@D@std@@6B@
rdata$r	SEGMENT DWORD USE32 PUBLIC 'CONST'
rdata$r	ENDS
;	COMDAT ?_Psave@?$_Facetptr@V?$numpunct@_W@std@@@std@@2PBVfacet@locale@2@B
_DATA	SEGMENT DWORD USE32 PUBLIC 'DATA'
_DATA	ENDS
;	COMDAT ?_Psave@?$_Facetptr@V?$numpunct@D@std@@@std@@2PBVfacet@locale@2@B
_DATA	SEGMENT DWORD USE32 PUBLIC 'DATA'
_DATA	ENDS
;	COMDAT ?Unlock@CComCriticalSection@ATL@@QAEJXZ
_TEXT	SEGMENT PARA USE32 PUBLIC 'CODE'
_TEXT	ENDS
;	COMDAT ?_Psave@?$_Facetptr@V?$ctype@_W@std@@@std@@2PBVfacet@locale@2@B
_DATA	SEGMENT DWORD USE32 PUBLIC 'DATA'
_DATA	ENDS
;	COMDAT ?_Psave@?$_Facetptr@V?$ctype@D@std@@@std@@2PBVfacet@locale@2@B
_DATA	SEGMENT DWORD USE32 PUBLIC 'DATA'
_DATA	ENDS
;	COMDAT ??$_Maklocchr@_W@std@@YA_WDPA_WABU_Cvtvec@@@Z
_TEXT	SEGMENT PARA USE32 PUBLIC 'CODE'
_TEXT	ENDS
;	COMDAT ??$_Maklocstr@_W@std@@YAPA_WPBDPA_WABU_Cvtvec@@@Z
_TEXT	SEGMENT PARA USE32 PUBLIC 'CODE'
_TEXT	ENDS
;	COMDAT ??$_Maklocchr@D@std@@YADDPADABU_Cvtvec@@@Z
_TEXT	SEGMENT PARA USE32 PUBLIC 'CODE'
_TEXT	ENDS
;	COMDAT ??_C@_04LOAJBDKD@true?$AA@
CONST	SEGMENT DWORD USE32 PUBLIC 'CONST'
CONST	ENDS
;	COMDAT ??_C@_05LAPONLG@false?$AA@
CONST	SEGMENT DWORD USE32 PUBLIC 'CONST'
CONST	ENDS
;	COMDAT _wmemcpy
_TEXT	SEGMENT PARA USE32 PUBLIC 'CODE'
_TEXT	ENDS
;	COMDAT ?max_size@?$allocator@_W@std@@QBEIXZ
_TEXT	SEGMENT PARA USE32 PUBLIC 'CODE'
_TEXT	ENDS
;	COMDAT ?allocate@?$allocator@_W@std@@QAEPA_WI@Z
_TEXT	SEGMENT PARA USE32 PUBLIC 'CODE'
_TEXT	ENDS
;	COMDAT ??$_Allocate@_W@std@@YAPA_WIPA_W@Z
_TEXT	SEGMENT PARA USE32 PUBLIC 'CODE'
_TEXT	ENDS
;	COMDAT ??_C@_01GFHCPBMG@C?$AA@
CONST	SEGMENT DWORD USE32 PUBLIC 'CONST'
CONST	ENDS
;	COMDAT ?_AtlGetConversionACP@ATL@@YGIXZ
_TEXT	SEGMENT PARA USE32 PUBLIC 'CODE'
_TEXT	ENDS
;	COMDAT ?g_pfnGetThreadACP@ATL@@3P6GIXZA
_DATA	SEGMENT DWORD USE32 PUBLIC 'DATA'
_DATA	ENDS
;	COMDAT ?_AtlGetThreadACPThunk@ATL@@YGIXZ
_TEXT	SEGMENT PARA USE32 PUBLIC 'CODE'
_TEXT	ENDS
;	COMDAT ?_AtlGetThreadACPReal@ATL@@YGIXZ
_TEXT	SEGMENT PARA USE32 PUBLIC 'CODE'
_TEXT	ENDS
;	COMDAT ?_AtlGetThreadACPFake@ATL@@YGIXZ
_TEXT	SEGMENT PARA USE32 PUBLIC 'CODE'
_TEXT	ENDS
;	COMDAT ?InterlockedExchangePointer@@YGPAXPAPAXPAX@Z
_TEXT	SEGMENT PARA USE32 PUBLIC 'CODE'
_TEXT	ENDS
;	COMDAT ?AtlComQIPtrAssign@ATL@@YGPAUIUnknown@@PAPAU2@PAU2@ABU_GUID@@@Z
_TEXT	SEGMENT PARA USE32 PUBLIC 'CODE'
_TEXT	ENDS
;	COMDAT ?_Peek@?$istreambuf_iterator@_WU?$char_traits@_W@std@@@std@@AAE_WXZ
_TEXT	SEGMENT PARA USE32 PUBLIC 'CODE'
_TEXT	ENDS
;	COMDAT ?_Peek@?$istreambuf_iterator@DU?$char_traits@D@std@@@std@@AAEDXZ
_TEXT	SEGMENT PARA USE32 PUBLIC 'CODE'
_TEXT	ENDS
;	COMDAT ??$use_facet@V?$ctype@_W@std@@@std@@YAABV?$ctype@_W@0@ABVlocale@0@@Z
_TEXT	SEGMENT PARA USE32 PUBLIC 'CODE'
_TEXT	ENDS
;	COMDAT ??_S?$ctype@_W@std@@6B@
CONST	SEGMENT DWORD USE32 PUBLIC 'CONST'
CONST	ENDS
;	COMDAT ??_R4?$ctype@_W@std@@6B@
rdata$r	SEGMENT DWORD USE32 PUBLIC 'CONST'
rdata$r	ENDS
;	COMDAT ??_R0?AV?$ctype@_W@std@@@8
_DATA	SEGMENT DWORD USE32 PUBLIC 'DATA'
_DATA	ENDS
;	COMDAT ??_R3?$ctype@_W@std@@8
rdata$r	SEGMENT DWORD USE32 PUBLIC 'CONST'
rdata$r	ENDS
;	COMDAT ??_R2?$ctype@_W@std@@8
rdata$r	SEGMENT DWORD USE32 PUBLIC 'CONST'
rdata$r	ENDS
;	COMDAT ??_R1A@?0A@A@?$ctype@_W@std@@8
rdata$r	SEGMENT DWORD USE32 PUBLIC 'CONST'
rdata$r	ENDS
;	COMDAT ??_R1A@?0A@A@ctype_base@std@@8
rdata$r	SEGMENT DWORD USE32 PUBLIC 'CONST'
rdata$r	ENDS
;	COMDAT ??_R0?AUctype_base@std@@@8
_DATA	SEGMENT DWORD USE32 PUBLIC 'DATA'
_DATA	ENDS
;	COMDAT ??_G?$ctype@_W@std@@MAEPAXI@Z
_TEXT	SEGMENT PARA USE32 PUBLIC 'CODE'
_TEXT	ENDS
;	COMDAT ??_C@_08EPJLHIJG@bad?5cast?$AA@
CONST	SEGMENT DWORD USE32 PUBLIC 'CONST'
CONST	ENDS
;	COMDAT __TI2?AVbad_cast@@
xdata$x	SEGMENT DWORD USE32 PUBLIC 'CONST'
xdata$x	ENDS
;	COMDAT __CTA2?AVbad_cast@@
xdata$x	SEGMENT DWORD USE32 PUBLIC 'CONST'
xdata$x	ENDS
;	COMDAT __CT??_R0?AVbad_cast@@@8??0bad_cast@@QAE@ABV0@@Z12
xdata$x	SEGMENT DWORD USE32 PUBLIC 'CONST'
xdata$x	ENDS
;	COMDAT ??_R0?AVbad_cast@@@8
_DATA	SEGMENT DWORD USE32 PUBLIC 'DATA'
_DATA	ENDS
;	COMDAT __CT??_R0?AVexception@@@8??0exception@@QAE@ABV0@@Z12
xdata$x	SEGMENT DWORD USE32 PUBLIC 'CONST'
xdata$x	ENDS
;	COMDAT ??_R0?AVexception@@@8
_DATA	SEGMENT DWORD USE32 PUBLIC 'DATA'
_DATA	ENDS
;	COMDAT ??$use_facet@V?$ctype@D@std@@@std@@YAABV?$ctype@D@0@ABVlocale@0@@Z
_TEXT	SEGMENT PARA USE32 PUBLIC 'CODE'
_TEXT	ENDS
;	COMDAT ??_S?$ctype@D@std@@6B@
CONST	SEGMENT DWORD USE32 PUBLIC 'CONST'
CONST	ENDS
;	COMDAT ??_R4?$ctype@D@std@@6B@
rdata$r	SEGMENT DWORD USE32 PUBLIC 'CONST'
rdata$r	ENDS
;	COMDAT ??_R0?AV?$ctype@D@std@@@8
_DATA	SEGMENT DWORD USE32 PUBLIC 'DATA'
_DATA	ENDS
;	COMDAT ??_R3?$ctype@D@std@@8
rdata$r	SEGMENT DWORD USE32 PUBLIC 'CONST'
rdata$r	ENDS
;	COMDAT ??_R2?$ctype@D@std@@8
rdata$r	SEGMENT DWORD USE32 PUBLIC 'CONST'
rdata$r	ENDS
;	COMDAT ??_R1A@?0A@A@?$ctype@D@std@@8
rdata$r	SEGMENT DWORD USE32 PUBLIC 'CONST'
rdata$r	ENDS
;	COMDAT ??_G?$ctype@D@std@@MAEPAXI@Z
_TEXT	SEGMENT PARA USE32 PUBLIC 'CODE'
_TEXT	ENDS
;	COMDAT ??_S?$numpunct@_W@std@@6B@
CONST	SEGMENT DWORD USE32 PUBLIC 'CONST'
CONST	ENDS
;	COMDAT ??_S?$numpunct@D@std@@6B@
CONST	SEGMENT DWORD USE32 PUBLIC 'CONST'
CONST	ENDS
;	COMDAT _wmemmove
_TEXT	SEGMENT PARA USE32 PUBLIC 'CODE'
_TEXT	ENDS
;	COMDAT ?deallocate@?$allocator@_W@std@@QAEXPA_WI@Z
_TEXT	SEGMENT PARA USE32 PUBLIC 'CODE'
_TEXT	ENDS
;	COMDAT ??0?$allocator@_W@std@@QAE@ABV01@@Z
_TEXT	SEGMENT PARA USE32 PUBLIC 'CODE'
_TEXT	ENDS
;	COMDAT ?AtlThrow@ATL@@YGXJ@Z
_TEXT	SEGMENT PARA USE32 PUBLIC 'CODE'
_TEXT	ENDS
;	COMDAT ?GetParent@CWnd@@QBEPAV1@XZ
_TEXT	SEGMENT PARA USE32 PUBLIC 'CODE'
_TEXT	ENDS
;	COMDAT ?A2BSTR@@YAPA_WPBD@Z
_TEXT	SEGMENT PARA USE32 PUBLIC 'CODE'
_TEXT	ENDS
;	COMDAT ?A2WBSTR@@YAPA_WPBDH@Z
_TEXT	SEGMENT PARA USE32 PUBLIC 'CODE'
_TEXT	ENDS
;	COMDAT ??0?$CAtlSafeAllocBufferManager@VCCRTAllocator@ATL@@@_ATL_SAFE_ALLOCA_IMPL@ATL@@QAE@XZ
_TEXT	SEGMENT PARA USE32 PUBLIC 'CODE'
_TEXT	ENDS
;	COMDAT ??1?$CAtlSafeAllocBufferManager@VCCRTAllocator@ATL@@@_ATL_SAFE_ALLOCA_IMPL@ATL@@QAE@XZ
_TEXT	SEGMENT PARA USE32 PUBLIC 'CODE'
_TEXT	ENDS
;	COMDAT ?Free@CCRTAllocator@ATL@@SAXPAX@Z
_TEXT	SEGMENT PARA USE32 PUBLIC 'CODE'
_TEXT	ENDS
;	COMDAT ??4?$CComPtr@UIDispatch@@@ATL@@QAEPAUIDispatch@@PAU2@@Z
_TEXT	SEGMENT PARA USE32 PUBLIC 'CODE'
_TEXT	ENDS
;	COMDAT ?AtlComPtrAssign@ATL@@YGPAUIUnknown@@PAPAU2@PAU2@@Z
_TEXT	SEGMENT PARA USE32 PUBLIC 'CODE'
_TEXT	ENDS
;	COMDAT ??1?$CComPtr@UIDispatch@@@ATL@@QAE@XZ
_TEXT	SEGMENT PARA USE32 PUBLIC 'CODE'
_TEXT	ENDS
;	COMDAT ??1?$CComPtrBase@UIDispatch@@@ATL@@QAE@XZ
_TEXT	SEGMENT PARA USE32 PUBLIC 'CODE'
_TEXT	ENDS
;	COMDAT ??0?$CComPtr@UIDispatch@@@ATL@@QAE@XZ
_TEXT	SEGMENT PARA USE32 PUBLIC 'CODE'
_TEXT	ENDS
;	COMDAT ??0?$CComPtrBase@UIDispatch@@@ATL@@IAE@XZ
_TEXT	SEGMENT PARA USE32 PUBLIC 'CODE'
_TEXT	ENDS
;	COMDAT ?_eventsinkEntryCount@CWebBrowser@@0IA
_DATA	SEGMENT DWORD USE32 PUBLIC 'DATA'
_DATA	ENDS
;	COMDAT ?_eventsinkEntries@CWebBrowser@@0QBUAFX_EVENTSINKMAP_ENTRY@@B
CONST	SEGMENT DWORD USE32 PUBLIC 'CONST'
CONST	ENDS
;	COMDAT ?eventsinkMap@CWebBrowser@@1UAFX_EVENTSINKMAP@@B
CONST	SEGMENT DWORD USE32 PUBLIC 'CONST'
CONST	ENDS
;	COMDAT ?classCWebBrowser@CWebBrowser@@2UCRuntimeClass@@B
CONST	SEGMENT DWORD USE32 PUBLIC 'CONST'
CONST	ENDS
;	COMDAT ??_7CWebBrowser@@6B@
CONST	SEGMENT DWORD USE32 PUBLIC 'CONST'
CONST	ENDS
;	COMDAT ??3CObject@@SGXPAX@Z
_TEXT	SEGMENT PARA USE32 PUBLIC 'CODE'
_TEXT	ENDS
;	COMDAT ??2CObject@@SGPAXI@Z
_TEXT	SEGMENT PARA USE32 PUBLIC 'CODE'
_TEXT	ENDS
;	COMDAT __GUID_00000000_0000_0000_0000_000000000000
CONST	SEGMENT DWORD USE32 PUBLIC 'CONST'
CONST	ENDS
;	COMDAT ??_7_com_error@@6B@
CONST	SEGMENT DWORD USE32 PUBLIC 'CONST'
CONST	ENDS
;	COMDAT ?parms@?1??put_Resizable@CWebBrowser@@QAEXH@Z@4PAEA
_DATA	SEGMENT DWORD USE32 PUBLIC 'DATA'
_DATA	ENDS
;	COMDAT ?parms@?1??put_AddressBar@CWebBrowser@@QAEXH@Z@4PAEA
_DATA	SEGMENT DWORD USE32 PUBLIC 'DATA'
_DATA	ENDS
;	COMDAT ?parms@?1??put_TheaterMode@CWebBrowser@@QAEXH@Z@4PAEA
_DATA	SEGMENT DWORD USE32 PUBLIC 'DATA'
_DATA	ENDS
;	COMDAT ?parms@?1??put_RegisterAsDropTarget@CWebBrowser@@QAEXH@Z@4PAEA
_DATA	SEGMENT DWORD USE32 PUBLIC 'DATA'
_DATA	ENDS
;	COMDAT ?parms@?1??put_RegisterAsBrowser@CWebBrowser@@QAEXH@Z@4PAEA
_DATA	SEGMENT DWORD USE32 PUBLIC 'DATA'
_DATA	ENDS
;	COMDAT ?parms@?1??put_Silent@CWebBrowser@@QAEXH@Z@4PAEA
_DATA	SEGMENT DWORD USE32 PUBLIC 'DATA'
_DATA	ENDS
;	COMDAT ?parms@?1??put_Offline@CWebBrowser@@QAEXH@Z@4PAEA
_DATA	SEGMENT DWORD USE32 PUBLIC 'DATA'
_DATA	ENDS
;	COMDAT ?parms@?1??ShowBrowserBar@CWebBrowser@@QAEXPAUtagVARIANT@@00@Z@4PAEA
_DATA	SEGMENT DWORD USE32 PUBLIC 'DATA'
_DATA	ENDS
;	COMDAT ?parms@?1??ExecWB@CWebBrowser@@QAEXJJPAUtagVARIANT@@0@Z@4PAEA
_DATA	SEGMENT DWORD USE32 PUBLIC 'DATA'
_DATA	ENDS
;	COMDAT ?parms@?1??QueryStatusWB@CWebBrowser@@QAEJJ@Z@4PAEA
_DATA	SEGMENT DWORD USE32 PUBLIC 'DATA'
_DATA	ENDS
;	COMDAT ?parms@?1??Navigate2@CWebBrowser@@QAEXPAUtagVARIANT@@0000@Z@4PAEA
_DATA	SEGMENT DWORD USE32 PUBLIC 'DATA'
_DATA	ENDS
;	COMDAT ?parms@?1??put_FullScreen@CWebBrowser@@QAEXH@Z@4PAEA
_DATA	SEGMENT DWORD USE32 PUBLIC 'DATA'
_DATA	ENDS
;	COMDAT ?parms@?1??put_MenuBar@CWebBrowser@@QAEXH@Z@4PAEA
_DATA	SEGMENT DWORD USE32 PUBLIC 'DATA'
_DATA	ENDS
;	COMDAT ?parms@?1??put_ToolBar@CWebBrowser@@QAEXJ@Z@4PAEA
_DATA	SEGMENT DWORD USE32 PUBLIC 'DATA'
_DATA	ENDS
;	COMDAT ?parms@?1??put_StatusText@CWebBrowser@@QAEXPBD@Z@4PAEA
_DATA	SEGMENT DWORD USE32 PUBLIC 'DATA'
_DATA	ENDS
;	COMDAT ?parms@?1??put_StatusBar@CWebBrowser@@QAEXH@Z@4PAEA
_DATA	SEGMENT DWORD USE32 PUBLIC 'DATA'
_DATA	ENDS
;	COMDAT ?parms@?1??put_Visible@CWebBrowser@@QAEXH@Z@4PAEA
_DATA	SEGMENT DWORD USE32 PUBLIC 'DATA'
_DATA	ENDS
;	COMDAT ?parms@?1??GetProperty@CWebBrowser@@QAE?AUtagVARIANT@@PBD@Z@4PAEA
_DATA	SEGMENT DWORD USE32 PUBLIC 'DATA'
_DATA	ENDS
;	COMDAT ?parms@?1??PutProperty@CWebBrowser@@QAEXPBDUtagVARIANT@@@Z@4PAEA
_DATA	SEGMENT DWORD USE32 PUBLIC 'DATA'
_DATA	ENDS
;	COMDAT ?parms@?1??ClientToWindow@CWebBrowser@@QAEXPAJ0@Z@4PAEA
_DATA	SEGMENT DWORD USE32 PUBLIC 'DATA'
_DATA	ENDS
;	COMDAT ?parms@?1??put_Height@CWebBrowser@@QAEXJ@Z@4PAEA
_DATA	SEGMENT DWORD USE32 PUBLIC 'DATA'
_DATA	ENDS
;	COMDAT ?parms@?1??put_Width@CWebBrowser@@QAEXJ@Z@4PAEA
_DATA	SEGMENT DWORD USE32 PUBLIC 'DATA'
_DATA	ENDS
;	COMDAT ?parms@?1??put_Top@CWebBrowser@@QAEXJ@Z@4PAEA
_DATA	SEGMENT DWORD USE32 PUBLIC 'DATA'
_DATA	ENDS
;	COMDAT ?parms@?1??put_Left@CWebBrowser@@QAEXJ@Z@4PAEA
_DATA	SEGMENT DWORD USE32 PUBLIC 'DATA'
_DATA	ENDS
;	COMDAT ?IsLocked@CStringData@ATL@@QBE_NXZ
_TEXT	SEGMENT PARA USE32 PUBLIC 'CODE'
_TEXT	ENDS
;	COMDAT ?AddRef@CStringData@ATL@@QAEXXZ
_TEXT	SEGMENT PARA USE32 PUBLIC 'CODE'
_TEXT	ENDS
;	COMDAT ?data@CStringData@ATL@@QAEPAXXZ
_TEXT	SEGMENT PARA USE32 PUBLIC 'CODE'
_TEXT	ENDS
;	COMDAT ?Release@CStringData@ATL@@QAEXXZ
_TEXT	SEGMENT PARA USE32 PUBLIC 'CODE'
_TEXT	ENDS
;	COMDAT ?GetDefaultManager@?$StrTraitMFC_DLL@DV?$ChTraitsCRT@D@ATL@@@@SAPAUIAtlStringMgr@ATL@@XZ
_TEXT	SEGMENT PARA USE32 PUBLIC 'CODE'
_TEXT	ENDS
;	COMDAT ?parms@?1??Refresh2@CWebBrowser@@QAEXPAUtagVARIANT@@@Z@4PAEA
_DATA	SEGMENT DWORD USE32 PUBLIC 'DATA'
_DATA	ENDS
;	COMDAT ?parms@?1??Navigate@CWebBrowser@@QAEXPBDPAUtagVARIANT@@111@Z@4PAEA
_DATA	SEGMENT DWORD USE32 PUBLIC 'DATA'
_DATA	ENDS
;	COMDAT ?clsid@?1??GetClsid@CWebBrowser@@QAEABU_GUID@@XZ@4U3@B
CONST	SEGMENT DWORD USE32 PUBLIC 'CONST'
CONST	ENDS
sxdata	SEGMENT DWORD USE32 'SXDATA'
sxdata	ENDS
FLAT	GROUP _DATA, CONST, _BSS
	ASSUME	CS: FLAT, DS: FLAT, SS: FLAT
endif

INCLUDELIB MSVCRT
INCLUDELIB OLDNAMES

PUBLIC	?g_pfnGetThreadACP@ATL@@3P6GIXZA		; ATL::g_pfnGetThreadACP
PUBLIC	?_AtlGetThreadACPThunk@ATL@@YGIXZ		; ATL::_AtlGetThreadACPThunk
PUBLIC	?classCWebBrowser@CWebBrowser@@2UCRuntimeClass@@B ; CWebBrowser::classCWebBrowser
PUBLIC	?CreateObject@CWebBrowser@@SGPAVCObject@@XZ	; CWebBrowser::CreateObject
PUBLIC	?_eventsinkEntries@CWebBrowser@@0QBUAFX_EVENTSINKMAP_ENTRY@@B ; CWebBrowser::_eventsinkEntries
PUBLIC	?_eventsinkEntryCount@CWebBrowser@@0IA		; CWebBrowser::_eventsinkEntryCount
PUBLIC	?eventsinkMap@CWebBrowser@@1UAFX_EVENTSINKMAP@@B ; CWebBrowser::eventsinkMap
PUBLIC	?OnDocumentComplete@CWebBrowser@@QAEXPAUIDispatch@@PAUtagVARIANT@@@Z ; CWebBrowser::OnDocumentComplete
EXTRN	?GetThisEventSinkMap@CCmdTarget@@KGPBUAFX_EVENTSINKMAP@@XZ:NEAR ; CCmdTarget::GetThisEventSinkMap
EXTRN	?GetThisClass@CWnd@@SGPAUCRuntimeClass@@XZ:NEAR	; CWnd::GetThisClass
CONST	SEGMENT
$SG200930 DB	'CWebBrowser', 00H
CONST	ENDS
;	COMDAT ?classCWebBrowser@CWebBrowser@@2UCRuntimeClass@@B
CONST	SEGMENT
?classCWebBrowser@CWebBrowser@@2UCRuntimeClass@@B DD FLAT:$SG200930 ; CWebBrowser::classCWebBrowser
	DD	074H
	DD	0ffffH
	DD	FLAT:?CreateObject@CWebBrowser@@SGPAVCObject@@XZ
	DD	FLAT:?GetThisClass@CWnd@@SGPAUCRuntimeClass@@XZ
	DD	00H
	DD	00H
CONST	ENDS
CONST	SEGMENT
$SG200945 DB	00H
	ORG $+3
$SG200946 DB	09H, 'L', 00H
CONST	ENDS
;	COMDAT ?_eventsinkEntries@CWebBrowser@@0QBUAFX_EVENTSINKMAP_ENTRY@@B
CONST	SEGMENT
?_eventsinkEntries@CWebBrowser@@0QBUAFX_EVENTSINKMAP_ENTRY@@B DD FLAT:$SG200945 ; CWebBrowser::_eventsinkEntries
	DD	0103H
	DD	FLAT:$SG200946
	DW	0bH
	ORG $+2
	DD	FLAT:?OnDocumentComplete@CWebBrowser@@QAEXPAUIDispatch@@PAUtagVARIANT@@@Z
	DD	00H
	DD	00H
	DD	00H
	DD	02713H
	DD	0ffffffffH
	DD	00H
	DD	0ffffffffH
	DD	00H
	DW	018H
	ORG $+2
	DD	00H
	DD	00H
	DD	0ffffffffH
	DD	00H
	DD	0ffffffffH
	DD	00H
CONST	ENDS
;	COMDAT ?_eventsinkEntryCount@CWebBrowser@@0IA
_DATA	SEGMENT
?_eventsinkEntryCount@CWebBrowser@@0IA DD 0ffffffffH	; CWebBrowser::_eventsinkEntryCount
_DATA	ENDS
;	COMDAT ?eventsinkMap@CWebBrowser@@1UAFX_EVENTSINKMAP@@B
CONST	SEGMENT
?eventsinkMap@CWebBrowser@@1UAFX_EVENTSINKMAP@@B DD FLAT:?GetThisEventSinkMap@CCmdTarget@@KGPBUAFX_EVENTSINKMAP@@XZ ; CWebBrowser::eventsinkMap
	DD	FLAT:?_eventsinkEntries@CWebBrowser@@0QBUAFX_EVENTSINKMAP_ENTRY@@B
	DD	FLAT:?_eventsinkEntryCount@CWebBrowser@@0IA
CONST	ENDS
CONST	SEGMENT
	ORG $+1
$SG201180 DB	'none', 00H
CONST	ENDS
;	COMDAT ?g_pfnGetThreadACP@ATL@@3P6GIXZA
_DATA	SEGMENT
?g_pfnGetThreadACP@ATL@@3P6GIXZA DD FLAT:?_AtlGetThreadACPThunk@ATL@@YGIXZ ; ATL::g_pfnGetThreadACP
_DATA	ENDS
PUBLIC	?InterlockedExchangePointer@@YGPAXPAPAXPAX@Z	; InterlockedExchangePointer
PUBLIC	?_AtlGetThreadACPFake@ATL@@YGIXZ		; ATL::_AtlGetThreadACPFake
PUBLIC	?_AtlGetThreadACPReal@ATL@@YGIXZ		; ATL::_AtlGetThreadACPReal
EXTRN	___security_cookie:DWORD
EXTRN	@__security_check_cookie@4:NEAR
EXTRN	__imp__GetVersionExA@4:NEAR
; Function compile flags: /Odt
; File d:\program files (x86)\microsoft visual studio .net 2003\vc7\atlmfc\include\atlconv.h
;	COMDAT ?_AtlGetThreadACPThunk@ATL@@YGIXZ
_TEXT	SEGMENT
_pfnGetThreadACP$ = -164				; size = 4
_ver$ = -160						; size = 148
__$ArrayPad$ = -4					; size = 4
__$ReturnAddr$ = 4					; size = 4
?_AtlGetThreadACPThunk@ATL@@YGIXZ PROC NEAR		; ATL::_AtlGetThreadACPThunk, COMDAT

; 134  : {

  00000	55		 push	 ebp
  00001	8b ec		 mov	 ebp, esp
  00003	81 ec a4 00 00
	00		 sub	 esp, 164		; 000000a4H
  00009	a1 00 00 00 00	 mov	 eax, DWORD PTR ___security_cookie
  0000e	89 45 fc	 mov	 DWORD PTR __$ArrayPad$[ebp], eax

; 135  : 	OSVERSIONINFO ver;
; 136  : 	ATLGETTHREADACP pfnGetThreadACP;
; 137  : 
; 138  : 	ver.dwOSVersionInfoSize = sizeof( ver );

  00011	c7 85 60 ff ff
	ff 94 00 00 00	 mov	 DWORD PTR _ver$[ebp], 148 ; 00000094H

; 139  : 	::GetVersionEx( &ver );

  0001b	8d 85 60 ff ff
	ff		 lea	 eax, DWORD PTR _ver$[ebp]
  00021	50		 push	 eax
  00022	ff 15 00 00 00
	00		 call	 DWORD PTR __imp__GetVersionExA@4

; 140  : 	if( (ver.dwPlatformId == VER_PLATFORM_WIN32_NT) && (ver.dwMajorVersion >= 5) )

  00028	83 bd 70 ff ff
	ff 02		 cmp	 DWORD PTR _ver$[ebp+16], 2
  0002f	75 15		 jne	 SHORT $L24173
  00031	83 bd 64 ff ff
	ff 05		 cmp	 DWORD PTR _ver$[ebp+4], 5
  00038	72 0c		 jb	 SHORT $L24173

; 141  : 	{
; 142  : 		// On Win2K, CP_THREAD_ACP is supported
; 143  : 		pfnGetThreadACP = _AtlGetThreadACPReal;

  0003a	c7 85 5c ff ff
	ff 00 00 00 00	 mov	 DWORD PTR _pfnGetThreadACP$[ebp], OFFSET FLAT:?_AtlGetThreadACPReal@ATL@@YGIXZ ; ATL::_AtlGetThreadACPReal

; 144  : 	}
; 145  : 	else

  00044	eb 0a		 jmp	 SHORT $L24174
$L24173:

; 146  : 	{
; 147  : 		pfnGetThreadACP = _AtlGetThreadACPFake;

  00046	c7 85 5c ff ff
	ff 00 00 00 00	 mov	 DWORD PTR _pfnGetThreadACP$[ebp], OFFSET FLAT:?_AtlGetThreadACPFake@ATL@@YGIXZ ; ATL::_AtlGetThreadACPFake
$L24174:

; 148  : 	}
; 149  : 	InterlockedExchangePointer( reinterpret_cast< void** >(&g_pfnGetThreadACP), pfnGetThreadACP );

  00050	8b 8d 5c ff ff
	ff		 mov	 ecx, DWORD PTR _pfnGetThreadACP$[ebp]
  00056	51		 push	 ecx
  00057	68 00 00 00 00	 push	 OFFSET FLAT:?g_pfnGetThreadACP@ATL@@3P6GIXZA ; ATL::g_pfnGetThreadACP
  0005c	e8 00 00 00 00	 call	 ?InterlockedExchangePointer@@YGPAXPAPAXPAX@Z ; InterlockedExchangePointer

; 150  : 
; 151  : 	return( g_pfnGetThreadACP() );

  00061	ff 15 00 00 00
	00		 call	 DWORD PTR ?g_pfnGetThreadACP@ATL@@3P6GIXZA ; ATL::g_pfnGetThreadACP

; 152  : }

  00067	8b 4d fc	 mov	 ecx, DWORD PTR __$ArrayPad$[ebp]
  0006a	e8 00 00 00 00	 call	 @__security_check_cookie@4
  0006f	8b e5		 mov	 esp, ebp
  00071	5d		 pop	 ebp
  00072	c3		 ret	 0
?_AtlGetThreadACPThunk@ATL@@YGIXZ ENDP			; ATL::_AtlGetThreadACPThunk
_TEXT	ENDS
EXTRN	__imp__InterlockedExchange@8:NEAR
; Function compile flags: /Odt
;	COMDAT ?InterlockedExchangePointer@@YGPAXPAPAXPAX@Z
_TEXT	SEGMENT
_pp$ = 8						; size = 4
_pNew$ = 12						; size = 4
?InterlockedExchangePointer@@YGPAXPAPAXPAX@Z PROC NEAR	; InterlockedExchangePointer, COMDAT

; 91   : {

  00000	55		 push	 ebp
  00001	8b ec		 mov	 ebp, esp

; 92   : 	return( reinterpret_cast<void*>(static_cast<LONG_PTR>(::InterlockedExchange(reinterpret_cast<LONG*>(pp), static_cast<LONG>(reinterpret_cast<LONG_PTR>(pNew))))) );

  00003	8b 45 0c	 mov	 eax, DWORD PTR _pNew$[ebp]
  00006	50		 push	 eax
  00007	8b 4d 08	 mov	 ecx, DWORD PTR _pp$[ebp]
  0000a	51		 push	 ecx
  0000b	ff 15 00 00 00
	00		 call	 DWORD PTR __imp__InterlockedExchange@8

; 93   : }

  00011	5d		 pop	 ebp
  00012	c2 08 00	 ret	 8
?InterlockedExchangePointer@@YGPAXPAPAXPAX@Z ENDP	; InterlockedExchangePointer
_TEXT	ENDS
EXTRN	__imp__GetACP@0:NEAR
EXTRN	__imp__GetLocaleInfoA@16:NEAR
EXTRN	__imp__GetThreadLocale@0:NEAR
; Function compile flags: /Odt
;	COMDAT ?_AtlGetThreadACPFake@ATL@@YGIXZ
_TEXT	SEGMENT
_pch$24161 = -24					; size = 4
_lcidThread$ = -20					; size = 4
_szACP$ = -16						; size = 7
__$ArrayPad$ = -8					; size = 4
_nACP$ = -4						; size = 4
__$ReturnAddr$ = 4					; size = 4
?_AtlGetThreadACPFake@ATL@@YGIXZ PROC NEAR		; ATL::_AtlGetThreadACPFake, COMDAT

; 101  : {

  00000	55		 push	 ebp
  00001	8b ec		 mov	 ebp, esp
  00003	83 ec 18	 sub	 esp, 24			; 00000018H
  00006	a1 00 00 00 00	 mov	 eax, DWORD PTR ___security_cookie
  0000b	89 45 f8	 mov	 DWORD PTR __$ArrayPad$[ebp], eax

; 102  : 	UINT nACP = 0;

  0000e	c7 45 fc 00 00
	00 00		 mov	 DWORD PTR _nACP$[ebp], 0

; 103  : 
; 104  : 	LCID lcidThread = ::GetThreadLocale();

  00015	ff 15 00 00 00
	00		 call	 DWORD PTR __imp__GetThreadLocale@0
  0001b	89 45 ec	 mov	 DWORD PTR _lcidThread$[ebp], eax

; 105  : 
; 106  : 	char szACP[7];
; 107  : 	// GetLocaleInfoA will fail for a Unicode-only LCID, but those are only supported on 
; 108  : 	// Windows 2000.  Since Windows 2000 supports CP_THREAD_ACP, this code path is never
; 109  : 	// executed on Windows 2000.
; 110  : 	if (::GetLocaleInfoA(lcidThread, LOCALE_IDEFAULTANSICODEPAGE, szACP, 7) != 0)

  0001e	6a 07		 push	 7
  00020	8d 45 f0	 lea	 eax, DWORD PTR _szACP$[ebp]
  00023	50		 push	 eax
  00024	68 04 10 00 00	 push	 4100			; 00001004H
  00029	8b 4d ec	 mov	 ecx, DWORD PTR _lcidThread$[ebp]
  0002c	51		 push	 ecx
  0002d	ff 15 00 00 00
	00		 call	 DWORD PTR __imp__GetLocaleInfoA@16
  00033	85 c0		 test	 eax, eax
  00035	74 34		 je	 SHORT $L24160

; 111  : 	{
; 112  : 		char* pch = szACP;

  00037	8d 55 f0	 lea	 edx, DWORD PTR _szACP$[ebp]
  0003a	89 55 e8	 mov	 DWORD PTR _pch$24161[ebp], edx
$L24163:

; 113  : 		while (*pch != '\0')

  0003d	8b 45 e8	 mov	 eax, DWORD PTR _pch$24161[ebp]
  00040	0f be 08	 movsx	 ecx, BYTE PTR [eax]
  00043	85 c9		 test	 ecx, ecx
  00045	74 24		 je	 SHORT $L24160

; 114  : 		{
; 115  : 			nACP *= 10;

  00047	8b 55 fc	 mov	 edx, DWORD PTR _nACP$[ebp]
  0004a	6b d2 0a	 imul	 edx, 10			; 0000000aH
  0004d	89 55 fc	 mov	 DWORD PTR _nACP$[ebp], edx

; 116  : 			nACP += *pch++ - '0';

  00050	8b 45 e8	 mov	 eax, DWORD PTR _pch$24161[ebp]
  00053	0f be 08	 movsx	 ecx, BYTE PTR [eax]
  00056	8b 55 fc	 mov	 edx, DWORD PTR _nACP$[ebp]
  00059	8d 44 0a d0	 lea	 eax, DWORD PTR [edx+ecx-48]
  0005d	89 45 fc	 mov	 DWORD PTR _nACP$[ebp], eax
  00060	8b 4d e8	 mov	 ecx, DWORD PTR _pch$24161[ebp]
  00063	83 c1 01	 add	 ecx, 1
  00066	89 4d e8	 mov	 DWORD PTR _pch$24161[ebp], ecx

; 117  : 		}

  00069	eb d2		 jmp	 SHORT $L24163
$L24160:

; 118  : 	}
; 119  : 	// Use the Default ANSI Code Page if we were unable to get the thread ACP or if one does not exist.
; 120  : 	if (nACP == 0)

  0006b	83 7d fc 00	 cmp	 DWORD PTR _nACP$[ebp], 0
  0006f	75 09		 jne	 SHORT $L24165

; 121  : 		nACP = ::GetACP();

  00071	ff 15 00 00 00
	00		 call	 DWORD PTR __imp__GetACP@0
  00077	89 45 fc	 mov	 DWORD PTR _nACP$[ebp], eax
$L24165:

; 122  : 
; 123  : 	return nACP;

  0007a	8b 45 fc	 mov	 eax, DWORD PTR _nACP$[ebp]

; 124  : }

  0007d	8b 4d f8	 mov	 ecx, DWORD PTR __$ArrayPad$[ebp]
  00080	e8 00 00 00 00	 call	 @__security_check_cookie@4
  00085	8b e5		 mov	 esp, ebp
  00087	5d		 pop	 ebp
  00088	c3		 ret	 0
?_AtlGetThreadACPFake@ATL@@YGIXZ ENDP			; ATL::_AtlGetThreadACPFake
; Function compile flags: /Odt
_TEXT	ENDS
;	COMDAT ?_AtlGetThreadACPReal@ATL@@YGIXZ
_TEXT	SEGMENT
?_AtlGetThreadACPReal@ATL@@YGIXZ PROC NEAR		; ATL::_AtlGetThreadACPReal, COMDAT

; 127  : {

  00000	55		 push	 ebp
  00001	8b ec		 mov	 ebp, esp

; 128  : 	return( CP_THREAD_ACP );

  00003	b8 03 00 00 00	 mov	 eax, 3

; 129  : }

  00008	5d		 pop	 ebp
  00009	c3		 ret	 0
?_AtlGetThreadACPReal@ATL@@YGIXZ ENDP			; ATL::_AtlGetThreadACPReal
_TEXT	ENDS
PUBLIC	??2CObject@@SGPAXI@Z				; CObject::operator new
PUBLIC	??3CObject@@SGXPAX@Z				; CObject::operator delete
PUBLIC	??0CWebBrowser@@QAE@XZ				; CWebBrowser::CWebBrowser
EXTRN	__except_list:DWORD
EXTRN	___CxxFrameHandler:NEAR
xdata$x	SEGMENT
$T201879 DD	0ffffffffH
	DD	FLAT:$L201872
$T201876 DD	019930520H
	DD	01H
	DD	FLAT:$T201879
	DD	2 DUP(00H)
	DD	2 DUP(00H)
; Function compile flags: /Odt
; File d:\boxgit\playbox\playbox\dev\prj\playbox\src\gui\commoncontrol\ie_explorer.cpp
xdata$x	ENDS
_TEXT	SEGMENT
tv71 = -24						; size = 4
$T201869 = -20						; size = 4
$T201868 = -16						; size = 4
__$EHRec$ = -12						; size = 12
?CreateObject@CWebBrowser@@SGPAVCObject@@XZ PROC NEAR	; CWebBrowser::CreateObject

; 15   : IMPLEMENT_DYNCREATE(CWebBrowser, CWnd)

  00000	55		 push	 ebp
  00001	8b ec		 mov	 ebp, esp
  00003	6a ff		 push	 -1
  00005	68 00 00 00 00	 push	 __ehhandler$?CreateObject@CWebBrowser@@SGPAVCObject@@XZ
  0000a	64 a1 00 00 00
	00		 mov	 eax, DWORD PTR fs:__except_list
  00010	50		 push	 eax
  00011	64 89 25 00 00
	00 00		 mov	 DWORD PTR fs:__except_list, esp
  00018	83 ec 0c	 sub	 esp, 12			; 0000000cH
  0001b	6a 74		 push	 116			; 00000074H
  0001d	e8 00 00 00 00	 call	 ??2CObject@@SGPAXI@Z	; CObject::operator new
  00022	89 45 ec	 mov	 DWORD PTR $T201869[ebp], eax
  00025	c7 45 fc 00 00
	00 00		 mov	 DWORD PTR __$EHRec$[ebp+8], 0
  0002c	83 7d ec 00	 cmp	 DWORD PTR $T201869[ebp], 0
  00030	74 0d		 je	 SHORT $L201870
  00032	8b 4d ec	 mov	 ecx, DWORD PTR $T201869[ebp]
  00035	e8 00 00 00 00	 call	 ??0CWebBrowser@@QAE@XZ
  0003a	89 45 e8	 mov	 DWORD PTR tv71[ebp], eax
  0003d	eb 07		 jmp	 SHORT $L201871
$L201870:
  0003f	c7 45 e8 00 00
	00 00		 mov	 DWORD PTR tv71[ebp], 0
$L201871:
  00046	8b 45 e8	 mov	 eax, DWORD PTR tv71[ebp]
  00049	89 45 f0	 mov	 DWORD PTR $T201868[ebp], eax
  0004c	c7 45 fc ff ff
	ff ff		 mov	 DWORD PTR __$EHRec$[ebp+8], -1
  00053	8b 45 f0	 mov	 eax, DWORD PTR $T201868[ebp]
  00056	8b 4d f4	 mov	 ecx, DWORD PTR __$EHRec$[ebp]
  00059	64 89 0d 00 00
	00 00		 mov	 DWORD PTR fs:__except_list, ecx
  00060	8b e5		 mov	 esp, ebp
  00062	5d		 pop	 ebp
  00063	c3		 ret	 0
_TEXT	ENDS
text$x	SEGMENT
$L201872:
  00000	8b 45 ec	 mov	 eax, DWORD PTR $T201869[ebp]
  00003	50		 push	 eax
  00004	e8 00 00 00 00	 call	 ??3CObject@@SGXPAX@Z	; CObject::operator delete
  00009	c3		 ret	 0
__ehhandler$?CreateObject@CWebBrowser@@SGPAVCObject@@XZ:
  0000a	b8 00 00 00 00	 mov	 eax, OFFSET FLAT:$T201876
  0000f	e9 00 00 00 00	 jmp	 ___CxxFrameHandler
text$x	ENDS
?CreateObject@CWebBrowser@@SGPAVCObject@@XZ ENDP	; CWebBrowser::CreateObject
PUBLIC	??_R1A@?0A@A@CObject@@8				; CObject::`RTTI Base Class Descriptor at (0,-1,0,0)'
PUBLIC	??_R0?AVCObject@@@8				; CObject `RTTI Type Descriptor'
PUBLIC	??_R1A@?0A@A@CWnd@@8				; CWnd::`RTTI Base Class Descriptor at (0,-1,0,0)'
PUBLIC	??_R0?AVCWnd@@@8				; CWnd `RTTI Type Descriptor'
PUBLIC	??_R1A@?0A@A@CCmdTarget@@8			; CCmdTarget::`RTTI Base Class Descriptor at (0,-1,0,0)'
PUBLIC	??_R0?AVCCmdTarget@@@8				; CCmdTarget `RTTI Type Descriptor'
PUBLIC	?Serialize@CObject@@UAEXAAVCArchive@@@Z		; CObject::Serialize
PUBLIC	?AssertValid@CObject@@UBEXXZ			; CObject::AssertValid
PUBLIC	?Dump@CObject@@UBEXAAVCDumpContext@@@Z		; CObject::Dump
PUBLIC	??_R4CWebBrowser@@6B@				; CWebBrowser::`RTTI Complete Object Locator'
PUBLIC	??_R0?AVCWebBrowser@@@8				; CWebBrowser `RTTI Type Descriptor'
PUBLIC	??_R3CWebBrowser@@8				; CWebBrowser::`RTTI Class Hierarchy Descriptor'
PUBLIC	??_R2CWebBrowser@@8				; CWebBrowser::`RTTI Base Class Array'
PUBLIC	??_R1A@?0A@A@CWebBrowser@@8			; CWebBrowser::`RTTI Base Class Descriptor at (0,-1,0,0)'
PUBLIC	?GetRuntimeClass@CWebBrowser@@UBEPAUCRuntimeClass@@XZ ; CWebBrowser::GetRuntimeClass
PUBLIC	?GetEventSinkMap@CWebBrowser@@MBEPBUAFX_EVENTSINKMAP@@XZ ; CWebBrowser::GetEventSinkMap
PUBLIC	?Create@CWebBrowser@@UAEHPBD0KABUtagRECT@@PAVCWnd@@IPAUCCreateContext@@@Z ; CWebBrowser::Create
PUBLIC	?DoDataExchange@CWnd@@MAEXPAVCDataExchange@@@Z	; CWnd::DoDataExchange
PUBLIC	?BeginModalState@CWnd@@UAEXXZ			; CWnd::BeginModalState
PUBLIC	?EndModalState@CWnd@@UAEXXZ			; CWnd::EndModalState
PUBLIC	??_7CWebBrowser@@6B@				; CWebBrowser::`vftable'
PUBLIC	??_GCWebBrowser@@UAEPAXI@Z			; CWebBrowser::`scalar deleting destructor'
EXTRN	?CreateControlContainer@CWnd@@MAEHPAPAVCOleControlContainer@@@Z:NEAR ; CWnd::CreateControlContainer
EXTRN	?CreateControlSite@CWnd@@MAEHPAVCOleControlContainer@@PAPAVCOleControlSite@@IABU_GUID@@@Z:NEAR ; CWnd::CreateControlSite
EXTRN	?SetOccDialogInfo@CWnd@@MAEHPAU_AFX_OCC_DIALOG_INFO@@@Z:NEAR ; CWnd::SetOccDialogInfo
EXTRN	?GetMessageMap@CWnd@@MBEPBUAFX_MSGMAP@@XZ:NEAR	; CWnd::GetMessageMap
EXTRN	?OnToolHitTest@CWnd@@UBEHVCPoint@@PAUtagTOOLINFOA@@@Z:NEAR ; CWnd::OnToolHitTest
EXTRN	?GetScrollBarCtrl@CWnd@@UBEPAVCScrollBar@@H@Z:NEAR ; CWnd::GetScrollBarCtrl
EXTRN	?WinHelpA@CWnd@@UAEXKI@Z:NEAR			; CWnd::WinHelpA
EXTRN	?HtmlHelpA@CWnd@@UAEXKI@Z:NEAR			; CWnd::HtmlHelpA
EXTRN	?WinHelpInternal@CWnd@@UAEXKI@Z:NEAR		; CWnd::WinHelpInternal
EXTRN	?ContinueModal@CWnd@@UAEHXZ:NEAR		; CWnd::ContinueModal
EXTRN	?EndModalLoop@CWnd@@UAEXH@Z:NEAR		; CWnd::EndModalLoop
EXTRN	?GetInterfaceMap@CWnd@@MBEPBUAFX_INTERFACEMAP@@XZ:NEAR ; CWnd::GetInterfaceMap
EXTRN	?EnsureStdObj@CWnd@@UAEJXZ:NEAR			; CWnd::EnsureStdObj
EXTRN	?get_accParent@CWnd@@UAEJPAPAUIDispatch@@@Z:NEAR ; CWnd::get_accParent
EXTRN	?get_accChildCount@CWnd@@UAEJPAJ@Z:NEAR		; CWnd::get_accChildCount
EXTRN	?OnCmdMsg@CCmdTarget@@UAEHIHPAXPAUAFX_CMDHANDLERINFO@@@Z:NEAR ; CCmdTarget::OnCmdMsg
EXTRN	?get_accChild@CWnd@@UAEJUtagVARIANT@@PAPAUIDispatch@@@Z:NEAR ; CWnd::get_accChild
EXTRN	?IsInvokeAllowed@CCmdTarget@@UAEHJ@Z:NEAR	; CCmdTarget::IsInvokeAllowed
EXTRN	?get_accName@CWnd@@UAEJUtagVARIANT@@PAPA_W@Z:NEAR ; CWnd::get_accName
EXTRN	?get_accValue@CWnd@@UAEJUtagVARIANT@@PAPA_W@Z:NEAR ; CWnd::get_accValue
EXTRN	?get_accDescription@CWnd@@UAEJUtagVARIANT@@PAPA_W@Z:NEAR ; CWnd::get_accDescription
EXTRN	?GetDispatchIID@CCmdTarget@@UAEHPAU_GUID@@@Z:NEAR ; CCmdTarget::GetDispatchIID
EXTRN	?GetTypeInfoCount@CCmdTarget@@UAEIXZ:NEAR	; CCmdTarget::GetTypeInfoCount
EXTRN	?GetTypeLibCache@CCmdTarget@@UAEPAVCTypeLibCache@@XZ:NEAR ; CCmdTarget::GetTypeLibCache
EXTRN	?get_accRole@CWnd@@UAEJUtagVARIANT@@PAU2@@Z:NEAR ; CWnd::get_accRole
EXTRN	?GetTypeLib@CCmdTarget@@UAEJKPAPAUITypeLib@@@Z:NEAR ; CCmdTarget::GetTypeLib
EXTRN	?get_accState@CWnd@@UAEJUtagVARIANT@@PAU2@@Z:NEAR ; CWnd::get_accState
EXTRN	?get_accHelp@CWnd@@UAEJUtagVARIANT@@PAPA_W@Z:NEAR ; CWnd::get_accHelp
EXTRN	?get_accHelpTopic@CWnd@@UAEJPAPA_WUtagVARIANT@@PAJ@Z:NEAR ; CWnd::get_accHelpTopic
EXTRN	?get_accKeyboardShortcut@CWnd@@UAEJUtagVARIANT@@PAPA_W@Z:NEAR ; CWnd::get_accKeyboardShortcut
EXTRN	?get_accFocus@CWnd@@UAEJPAUtagVARIANT@@@Z:NEAR	; CWnd::get_accFocus
EXTRN	?get_accSelection@CWnd@@UAEJPAUtagVARIANT@@@Z:NEAR ; CWnd::get_accSelection
EXTRN	?get_accDefaultAction@CWnd@@UAEJUtagVARIANT@@PAPA_W@Z:NEAR ; CWnd::get_accDefaultAction
EXTRN	?GetCommandMap@CCmdTarget@@MBEPBUAFX_OLECMDMAP@@XZ:NEAR ; CCmdTarget::GetCommandMap
EXTRN	?accSelect@CWnd@@UAEJJUtagVARIANT@@@Z:NEAR	; CWnd::accSelect
EXTRN	?accLocation@CWnd@@UAEJPAJ000UtagVARIANT@@@Z:NEAR ; CWnd::accLocation
EXTRN	?GetDispatchMap@CCmdTarget@@MBEPBUAFX_DISPMAP@@XZ:NEAR ; CCmdTarget::GetDispatchMap
EXTRN	?accNavigate@CWnd@@UAEJJUtagVARIANT@@PAU2@@Z:NEAR ; CWnd::accNavigate
EXTRN	?accHitTest@CWnd@@UAEJJJPAUtagVARIANT@@@Z:NEAR	; CWnd::accHitTest
EXTRN	?GetConnectionMap@CCmdTarget@@MBEPBUAFX_CONNECTIONMAP@@XZ:NEAR ; CCmdTarget::GetConnectionMap
EXTRN	?accDoDefaultAction@CWnd@@UAEJUtagVARIANT@@@Z:NEAR ; CWnd::accDoDefaultAction
EXTRN	?put_accName@CWnd@@UAEJUtagVARIANT@@PA_W@Z:NEAR	; CWnd::put_accName
EXTRN	?put_accValue@CWnd@@UAEJUtagVARIANT@@PA_W@Z:NEAR ; CWnd::put_accValue
EXTRN	?SetProxy@CWnd@@UAEJPAUIAccessibleProxy@@@Z:NEAR ; CWnd::SetProxy
EXTRN	?CreateAccessibleProxy@CWnd@@UAEJIJPAJ@Z:NEAR	; CWnd::CreateAccessibleProxy
EXTRN	?OnCreateAggregates@CCmdTarget@@UAEHXZ:NEAR	; CCmdTarget::OnCreateAggregates
EXTRN	?OnCommand@CWnd@@MAEHIJ@Z:NEAR			; CWnd::OnCommand
EXTRN	?GetInterfaceHook@CCmdTarget@@UAEPAUIUnknown@@PBX@Z:NEAR ; CCmdTarget::GetInterfaceHook
EXTRN	?OnNotify@CWnd@@MAEHIJPAJ@Z:NEAR		; CWnd::OnNotify
EXTRN	?GetExtraConnectionPoints@CCmdTarget@@MAEHPAVCPtrArray@@@Z:NEAR ; CCmdTarget::GetExtraConnectionPoints
EXTRN	?GetConnectionHook@CCmdTarget@@MAEPAUIConnectionPoint@@ABU_GUID@@@Z:NEAR ; CCmdTarget::GetConnectionHook
EXTRN	??0CWnd@@QAE@XZ:NEAR				; CWnd::CWnd
EXTRN	?PreSubclassWindow@CWnd@@UAEXXZ:NEAR		; CWnd::PreSubclassWindow
EXTRN	?CreateEx@CWnd@@UAEHKPBD0KHHHHPAUHWND__@@PAUHMENU__@@PAX@Z:NEAR ; CWnd::CreateEx
EXTRN	?CreateEx@CWnd@@UAEHKPBD0KABUtagRECT@@PAV1@IPAX@Z:NEAR ; CWnd::CreateEx
EXTRN	?DestroyWindow@CWnd@@UAEHXZ:NEAR		; CWnd::DestroyWindow
EXTRN	?PreCreateWindow@CWnd@@UAEHAAUtagCREATESTRUCTA@@@Z:NEAR ; CWnd::PreCreateWindow
EXTRN	?CalcWindowRect@CWnd@@UAEXPAUtagRECT@@I@Z:NEAR	; CWnd::CalcWindowRect
EXTRN	?GetSuperWndProcAddr@CWnd@@MAEPAP6GJPAUHWND__@@IIJ@ZXZ:NEAR ; CWnd::GetSuperWndProcAddr
EXTRN	??_7type_info@@6B@:QWORD			; type_info::`vftable'
EXTRN	?PreTranslateMessage@CWnd@@UAEHPAUtagMSG@@@Z:NEAR ; CWnd::PreTranslateMessage
EXTRN	?OnAmbientProperty@CWnd@@UAEHPAVCOleControlSite@@JPAUtagVARIANT@@@Z:NEAR ; CWnd::OnAmbientProperty
EXTRN	?WindowProc@CWnd@@MAEJIIJ@Z:NEAR		; CWnd::WindowProc
EXTRN	?OnWndMsg@CWnd@@MAEHIIJPAJ@Z:NEAR		; CWnd::OnWndMsg
EXTRN	?DefWindowProcA@CWnd@@MAEJIIJ@Z:NEAR		; CWnd::DefWindowProcA
EXTRN	?PostNcDestroy@CWnd@@MAEXXZ:NEAR		; CWnd::PostNcDestroy
EXTRN	?OnChildNotify@CWnd@@MAEHIIJPAJ@Z:NEAR		; CWnd::OnChildNotify
EXTRN	?CheckAutoCenter@CWnd@@UAEHXZ:NEAR		; CWnd::CheckAutoCenter
EXTRN	?IsFrameWnd@CWnd@@UBEHXZ:NEAR			; CWnd::IsFrameWnd
EXTRN	?OnFinalRelease@CWnd@@UAEXXZ:NEAR		; CWnd::OnFinalRelease
EXTRN	??_ECWebBrowser@@UAEPAXI@Z:NEAR			; CWebBrowser::`vector deleting destructor'
;	COMDAT ??_7CWebBrowser@@6B@
CONST	SEGMENT
??_7CWebBrowser@@6B@ DD FLAT:??_R4CWebBrowser@@6B@	; CWebBrowser::`vftable'
	DD	FLAT:?GetRuntimeClass@CWebBrowser@@UBEPAUCRuntimeClass@@XZ
	DD	FLAT:??_ECWebBrowser@@UAEPAXI@Z
	DD	FLAT:?Serialize@CObject@@UAEXAAVCArchive@@@Z
	DD	FLAT:?AssertValid@CObject@@UBEXXZ
	DD	FLAT:?Dump@CObject@@UBEXAAVCDumpContext@@@Z
	DD	FLAT:?OnCmdMsg@CCmdTarget@@UAEHIHPAXPAUAFX_CMDHANDLERINFO@@@Z
	DD	FLAT:?OnFinalRelease@CWnd@@UAEXXZ
	DD	FLAT:?IsInvokeAllowed@CCmdTarget@@UAEHJ@Z
	DD	FLAT:?GetDispatchIID@CCmdTarget@@UAEHPAU_GUID@@@Z
	DD	FLAT:?GetTypeInfoCount@CCmdTarget@@UAEIXZ
	DD	FLAT:?GetTypeLibCache@CCmdTarget@@UAEPAVCTypeLibCache@@XZ
	DD	FLAT:?GetTypeLib@CCmdTarget@@UAEJKPAPAUITypeLib@@@Z
	DD	FLAT:?GetMessageMap@CWnd@@MBEPBUAFX_MSGMAP@@XZ
	DD	FLAT:?GetCommandMap@CCmdTarget@@MBEPBUAFX_OLECMDMAP@@XZ
	DD	FLAT:?GetDispatchMap@CCmdTarget@@MBEPBUAFX_DISPMAP@@XZ
	DD	FLAT:?GetConnectionMap@CCmdTarget@@MBEPBUAFX_CONNECTIONMAP@@XZ
	DD	FLAT:?GetInterfaceMap@CWnd@@MBEPBUAFX_INTERFACEMAP@@XZ
	DD	FLAT:?GetEventSinkMap@CWebBrowser@@MBEPBUAFX_EVENTSINKMAP@@XZ
	DD	FLAT:?OnCreateAggregates@CCmdTarget@@UAEHXZ
	DD	FLAT:?GetInterfaceHook@CCmdTarget@@UAEPAUIUnknown@@PBX@Z
	DD	FLAT:?GetExtraConnectionPoints@CCmdTarget@@MAEHPAVCPtrArray@@@Z
	DD	FLAT:?GetConnectionHook@CCmdTarget@@MAEPAUIConnectionPoint@@ABU_GUID@@@Z
	DD	FLAT:?PreSubclassWindow@CWnd@@UAEXXZ
	DD	FLAT:?Create@CWebBrowser@@UAEHPBD0KABUtagRECT@@PAVCWnd@@IPAUCCreateContext@@@Z
	DD	FLAT:?CreateEx@CWnd@@UAEHKPBD0KABUtagRECT@@PAV1@IPAX@Z
	DD	FLAT:?CreateEx@CWnd@@UAEHKPBD0KHHHHPAUHWND__@@PAUHMENU__@@PAX@Z
	DD	FLAT:?DestroyWindow@CWnd@@UAEHXZ
	DD	FLAT:?PreCreateWindow@CWnd@@UAEHAAUtagCREATESTRUCTA@@@Z
	DD	FLAT:?CalcWindowRect@CWnd@@UAEXPAUtagRECT@@I@Z
	DD	FLAT:?OnToolHitTest@CWnd@@UBEHVCPoint@@PAUtagTOOLINFOA@@@Z
	DD	FLAT:?GetScrollBarCtrl@CWnd@@UBEPAVCScrollBar@@H@Z
	DD	FLAT:?WinHelpA@CWnd@@UAEXKI@Z
	DD	FLAT:?HtmlHelpA@CWnd@@UAEXKI@Z
	DD	FLAT:?WinHelpInternal@CWnd@@UAEXKI@Z
	DD	FLAT:?ContinueModal@CWnd@@UAEHXZ
	DD	FLAT:?EndModalLoop@CWnd@@UAEXH@Z
	DD	FLAT:?EnsureStdObj@CWnd@@UAEJXZ
	DD	FLAT:?get_accParent@CWnd@@UAEJPAPAUIDispatch@@@Z
	DD	FLAT:?get_accChildCount@CWnd@@UAEJPAJ@Z
	DD	FLAT:?get_accChild@CWnd@@UAEJUtagVARIANT@@PAPAUIDispatch@@@Z
	DD	FLAT:?get_accName@CWnd@@UAEJUtagVARIANT@@PAPA_W@Z
	DD	FLAT:?get_accValue@CWnd@@UAEJUtagVARIANT@@PAPA_W@Z
	DD	FLAT:?get_accDescription@CWnd@@UAEJUtagVARIANT@@PAPA_W@Z
	DD	FLAT:?get_accRole@CWnd@@UAEJUtagVARIANT@@PAU2@@Z
	DD	FLAT:?get_accState@CWnd@@UAEJUtagVARIANT@@PAU2@@Z
	DD	FLAT:?get_accHelp@CWnd@@UAEJUtagVARIANT@@PAPA_W@Z
	DD	FLAT:?get_accHelpTopic@CWnd@@UAEJPAPA_WUtagVARIANT@@PAJ@Z
	DD	FLAT:?get_accKeyboardShortcut@CWnd@@UAEJUtagVARIANT@@PAPA_W@Z
	DD	FLAT:?get_accFocus@CWnd@@UAEJPAUtagVARIANT@@@Z
	DD	FLAT:?get_accSelection@CWnd@@UAEJPAUtagVARIANT@@@Z
	DD	FLAT:?get_accDefaultAction@CWnd@@UAEJUtagVARIANT@@PAPA_W@Z
	DD	FLAT:?accSelect@CWnd@@UAEJJUtagVARIANT@@@Z
	DD	FLAT:?accLocation@CWnd@@UAEJPAJ000UtagVARIANT@@@Z
	DD	FLAT:?accNavigate@CWnd@@UAEJJUtagVARIANT@@PAU2@@Z
	DD	FLAT:?accHitTest@CWnd@@UAEJJJPAUtagVARIANT@@@Z
	DD	FLAT:?accDoDefaultAction@CWnd@@UAEJUtagVARIANT@@@Z
	DD	FLAT:?put_accName@CWnd@@UAEJUtagVARIANT@@PA_W@Z
	DD	FLAT:?put_accValue@CWnd@@UAEJUtagVARIANT@@PA_W@Z
	DD	FLAT:?SetProxy@CWnd@@UAEJPAUIAccessibleProxy@@@Z
	DD	FLAT:?CreateAccessibleProxy@CWnd@@UAEJIJPAJ@Z
	DD	FLAT:?OnCommand@CWnd@@MAEHIJ@Z
	DD	FLAT:?OnNotify@CWnd@@MAEHIJPAJ@Z
	DD	FLAT:?GetSuperWndProcAddr@CWnd@@MAEPAP6GJPAUHWND__@@IIJ@ZXZ
	DD	FLAT:?DoDataExchange@CWnd@@MAEXPAVCDataExchange@@@Z
	DD	FLAT:?BeginModalState@CWnd@@UAEXXZ
	DD	FLAT:?EndModalState@CWnd@@UAEXXZ
	DD	FLAT:?PreTranslateMessage@CWnd@@UAEHPAUtagMSG@@@Z
	DD	FLAT:?OnAmbientProperty@CWnd@@UAEHPAVCOleControlSite@@JPAUtagVARIANT@@@Z
	DD	FLAT:?WindowProc@CWnd@@MAEJIIJ@Z
	DD	FLAT:?OnWndMsg@CWnd@@MAEHIIJPAJ@Z
	DD	FLAT:?DefWindowProcA@CWnd@@MAEJIIJ@Z
	DD	FLAT:?PostNcDestroy@CWnd@@MAEXXZ
	DD	FLAT:?OnChildNotify@CWnd@@MAEHIIJPAJ@Z
	DD	FLAT:?CheckAutoCenter@CWnd@@UAEHXZ
	DD	FLAT:?IsFrameWnd@CWnd@@UBEHXZ
	DD	FLAT:?CreateControlContainer@CWnd@@MAEHPAPAVCOleControlContainer@@@Z
	DD	FLAT:?CreateControlSite@CWnd@@MAEHPAVCOleControlContainer@@PAPAVCOleControlSite@@IABU_GUID@@@Z
	DD	FLAT:?SetOccDialogInfo@CWnd@@MAEHPAU_AFX_OCC_DIALOG_INFO@@@Z
CONST	ENDS
;	COMDAT ??_R4CWebBrowser@@6B@
rdata$r	SEGMENT
??_R4CWebBrowser@@6B@ DD 00H				; CWebBrowser::`RTTI Complete Object Locator'
	DD	00H
	DD	00H
	DD	FLAT:??_R0?AVCWebBrowser@@@8
	DD	FLAT:??_R3CWebBrowser@@8
rdata$r	ENDS
;	COMDAT ??_R0?AVCWebBrowser@@@8
_DATA	SEGMENT
??_R0?AVCWebBrowser@@@8 DD FLAT:??_7type_info@@6B@	; CWebBrowser `RTTI Type Descriptor'
	DD	00H
	DB	'.?AVCWebBrowser@@', 00H
_DATA	ENDS
;	COMDAT ??_R3CWebBrowser@@8
rdata$r	SEGMENT
??_R3CWebBrowser@@8 DD 00H				; CWebBrowser::`RTTI Class Hierarchy Descriptor'
	DD	00H
	DD	04H
	DD	FLAT:??_R2CWebBrowser@@8
rdata$r	ENDS
;	COMDAT ??_R2CWebBrowser@@8
rdata$r	SEGMENT
??_R2CWebBrowser@@8 DD FLAT:??_R1A@?0A@A@CWebBrowser@@8	; CWebBrowser::`RTTI Base Class Array'
	DD	FLAT:??_R1A@?0A@A@CWnd@@8
	DD	FLAT:??_R1A@?0A@A@CCmdTarget@@8
	DD	FLAT:??_R1A@?0A@A@CObject@@8
rdata$r	ENDS
;	COMDAT ??_R1A@?0A@A@CWebBrowser@@8
rdata$r	SEGMENT
??_R1A@?0A@A@CWebBrowser@@8 DD FLAT:??_R0?AVCWebBrowser@@@8 ; CWebBrowser::`RTTI Base Class Descriptor at (0,-1,0,0)'
	DD	03H
	DD	00H
	DD	0ffffffffH
	DD	00H
	DD	00H
rdata$r	ENDS
;	COMDAT ??_R1A@?0A@A@CWnd@@8
rdata$r	SEGMENT
??_R1A@?0A@A@CWnd@@8 DD FLAT:??_R0?AVCWnd@@@8		; CWnd::`RTTI Base Class Descriptor at (0,-1,0,0)'
	DD	02H
	DD	00H
	DD	0ffffffffH
	DD	00H
	DD	00H
rdata$r	ENDS
;	COMDAT ??_R0?AVCWnd@@@8
_DATA	SEGMENT
??_R0?AVCWnd@@@8 DD FLAT:??_7type_info@@6B@		; CWnd `RTTI Type Descriptor'
	DD	00H
	DB	'.?AVCWnd@@', 00H
_DATA	ENDS
;	COMDAT ??_R1A@?0A@A@CCmdTarget@@8
rdata$r	SEGMENT
??_R1A@?0A@A@CCmdTarget@@8 DD FLAT:??_R0?AVCCmdTarget@@@8 ; CCmdTarget::`RTTI Base Class Descriptor at (0,-1,0,0)'
	DD	01H
	DD	00H
	DD	0ffffffffH
	DD	00H
	DD	00H
rdata$r	ENDS
;	COMDAT ??_R0?AVCCmdTarget@@@8
_DATA	SEGMENT
??_R0?AVCCmdTarget@@@8 DD FLAT:??_7type_info@@6B@	; CCmdTarget `RTTI Type Descriptor'
	DD	00H
	DB	'.?AVCCmdTarget@@', 00H
_DATA	ENDS
;	COMDAT ??_R1A@?0A@A@CObject@@8
rdata$r	SEGMENT
??_R1A@?0A@A@CObject@@8 DD FLAT:??_R0?AVCObject@@@8	; CObject::`RTTI Base Class Descriptor at (0,-1,0,0)'
	DD	00H
	DD	00H
	DD	0ffffffffH
	DD	00H
	DD	00H
rdata$r	ENDS
;	COMDAT ??_R0?AVCObject@@@8
_DATA	SEGMENT
??_R0?AVCObject@@@8 DD FLAT:??_7type_info@@6B@		; CObject `RTTI Type Descriptor'
	DD	00H
	DB	'.?AVCObject@@', 00H
; Function compile flags: /Odt
_DATA	ENDS
;	COMDAT ??0CWebBrowser@@QAE@XZ
_TEXT	SEGMENT
_this$ = -4						; size = 4
??0CWebBrowser@@QAE@XZ PROC NEAR			; CWebBrowser::CWebBrowser, COMDAT
; _this$ = ecx
  00000	55		 push	 ebp
  00001	8b ec		 mov	 ebp, esp
  00003	51		 push	 ecx
  00004	89 4d fc	 mov	 DWORD PTR _this$[ebp], ecx
  00007	8b 4d fc	 mov	 ecx, DWORD PTR _this$[ebp]
  0000a	e8 00 00 00 00	 call	 ??0CWnd@@QAE@XZ		; CWnd::CWnd
  0000f	8b 45 fc	 mov	 eax, DWORD PTR _this$[ebp]
  00012	c7 00 00 00 00
	00		 mov	 DWORD PTR [eax], OFFSET FLAT:??_7CWebBrowser@@6B@
  00018	8b 45 fc	 mov	 eax, DWORD PTR _this$[ebp]
  0001b	8b e5		 mov	 esp, ebp
  0001d	5d		 pop	 ebp
  0001e	c3		 ret	 0
??0CWebBrowser@@QAE@XZ ENDP				; CWebBrowser::CWebBrowser
_TEXT	ENDS
PUBLIC	?GetClsid@CWebBrowser@@QAEABU_GUID@@XZ		; CWebBrowser::GetClsid
EXTRN	?CreateControl@CWnd@@QAEHABU_GUID@@PBDKABUtagRECT@@PAV1@IPAVCFile@@HPA_W@Z:NEAR ; CWnd::CreateControl
; Function compile flags: /Odt
; File d:\boxgit\playbox\playbox\dev\prj\playbox\src\gui\commoncontrol\ie_explorer.h
;	COMDAT ?Create@CWebBrowser@@UAEHPBD0KABUtagRECT@@PAVCWnd@@IPAUCCreateContext@@@Z
_TEXT	SEGMENT
_this$ = -4						; size = 4
_lpszClassName$ = 8					; size = 4
_lpszWindowName$ = 12					; size = 4
_dwStyle$ = 16						; size = 4
_rect$ = 20						; size = 4
_pParentWnd$ = 24					; size = 4
_nID$ = 28						; size = 4
_pContext$ = 32						; size = 4
?Create@CWebBrowser@@UAEHPBD0KABUtagRECT@@PAVCWnd@@IPAUCCreateContext@@@Z PROC NEAR ; CWebBrowser::Create, COMDAT
; _this$ = ecx

; 29   : 	{ 

  00000	55		 push	 ebp
  00001	8b ec		 mov	 ebp, esp
  00003	51		 push	 ecx
  00004	89 4d fc	 mov	 DWORD PTR _this$[ebp], ecx

; 30   : 		return CreateControl(GetClsid(), lpszWindowName, dwStyle, rect, pParentWnd, nID); 

  00007	6a 00		 push	 0
  00009	6a 00		 push	 0
  0000b	6a 00		 push	 0
  0000d	8b 45 1c	 mov	 eax, DWORD PTR _nID$[ebp]
  00010	50		 push	 eax
  00011	8b 4d 18	 mov	 ecx, DWORD PTR _pParentWnd$[ebp]
  00014	51		 push	 ecx
  00015	8b 55 14	 mov	 edx, DWORD PTR _rect$[ebp]
  00018	52		 push	 edx
  00019	8b 45 10	 mov	 eax, DWORD PTR _dwStyle$[ebp]
  0001c	50		 push	 eax
  0001d	8b 4d 0c	 mov	 ecx, DWORD PTR _lpszWindowName$[ebp]
  00020	51		 push	 ecx
  00021	8b 4d fc	 mov	 ecx, DWORD PTR _this$[ebp]
  00024	e8 00 00 00 00	 call	 ?GetClsid@CWebBrowser@@QAEABU_GUID@@XZ ; CWebBrowser::GetClsid
  00029	50		 push	 eax
  0002a	8b 4d fc	 mov	 ecx, DWORD PTR _this$[ebp]
  0002d	e8 00 00 00 00	 call	 ?CreateControl@CWnd@@QAEHABU_GUID@@PBDKABUtagRECT@@PAV1@IPAVCFile@@HPA_W@Z ; CWnd::CreateControl

; 31   : 	}

  00032	8b e5		 mov	 esp, ebp
  00034	5d		 pop	 ebp
  00035	c2 1c 00	 ret	 28			; 0000001cH
?Create@CWebBrowser@@UAEHPBD0KABUtagRECT@@PAVCWnd@@IPAUCCreateContext@@@Z ENDP ; CWebBrowser::Create
_TEXT	ENDS
PUBLIC	?clsid@?1??GetClsid@CWebBrowser@@QAEABU_GUID@@XZ@4U3@B ; `CWebBrowser::GetClsid'::`2'::clsid
;	COMDAT ?clsid@?1??GetClsid@CWebBrowser@@QAEABU_GUID@@XZ@4U3@B
CONST	SEGMENT
?clsid@?1??GetClsid@CWebBrowser@@QAEABU_GUID@@XZ@4U3@B DD 08856f961H ; `CWebBrowser::GetClsid'::`2'::clsid
	DW	0340aH
	DW	011d0H
	DB	0a9H
	DB	06bH
	DB	00H
	DB	0c0H
	DB	04fH
	DB	0d7H
	DB	05H
	DB	0a2H
; Function compile flags: /Odt
CONST	ENDS
;	COMDAT ?GetClsid@CWebBrowser@@QAEABU_GUID@@XZ
_TEXT	SEGMENT
_this$ = -4						; size = 4
?GetClsid@CWebBrowser@@QAEABU_GUID@@XZ PROC NEAR	; CWebBrowser::GetClsid, COMDAT
; _this$ = ecx

; 21   : 	{

  00000	55		 push	 ebp
  00001	8b ec		 mov	 ebp, esp
  00003	51		 push	 ecx
  00004	89 4d fc	 mov	 DWORD PTR _this$[ebp], ecx

; 22   : 		static CLSID const clsid
; 23   : 			= { 0x8856F961, 0x340A, 0x11D0, { 0xA9, 0x6B, 0x0, 0xC0, 0x4F, 0xD7, 0x5, 0xA2 } };
; 24   : 		return clsid;

  00007	b8 00 00 00 00	 mov	 eax, OFFSET FLAT:?clsid@?1??GetClsid@CWebBrowser@@QAEABU_GUID@@XZ@4U3@B ; `CWebBrowser::GetClsid'::`2'::clsid

; 25   : 	}

  0000c	8b e5		 mov	 esp, ebp
  0000e	5d		 pop	 ebp
  0000f	c3		 ret	 0
?GetClsid@CWebBrowser@@QAEABU_GUID@@XZ ENDP		; CWebBrowser::GetClsid
_TEXT	ENDS
PUBLIC	??1CWebBrowser@@UAE@XZ				; CWebBrowser::~CWebBrowser
; Function compile flags: /Odt
;	COMDAT ??_GCWebBrowser@@UAEPAXI@Z
_TEXT	SEGMENT
_this$ = -4						; size = 4
___flags$ = 8						; size = 4
??_GCWebBrowser@@UAEPAXI@Z PROC NEAR			; CWebBrowser::`scalar deleting destructor', COMDAT
; _this$ = ecx
  00000	55		 push	 ebp
  00001	8b ec		 mov	 ebp, esp
  00003	51		 push	 ecx
  00004	89 4d fc	 mov	 DWORD PTR _this$[ebp], ecx
  00007	8b 4d fc	 mov	 ecx, DWORD PTR _this$[ebp]
  0000a	e8 00 00 00 00	 call	 ??1CWebBrowser@@UAE@XZ
  0000f	8b 45 08	 mov	 eax, DWORD PTR ___flags$[ebp]
  00012	83 e0 01	 and	 eax, 1
  00015	74 09		 je	 SHORT $L200927
  00017	8b 4d fc	 mov	 ecx, DWORD PTR _this$[ebp]
  0001a	51		 push	 ecx
  0001b	e8 00 00 00 00	 call	 ??3CObject@@SGXPAX@Z	; CObject::operator delete
$L200927:
  00020	8b 45 fc	 mov	 eax, DWORD PTR _this$[ebp]
  00023	8b e5		 mov	 esp, ebp
  00025	5d		 pop	 ebp
  00026	c2 04 00	 ret	 4
??_GCWebBrowser@@UAEPAXI@Z ENDP				; CWebBrowser::`scalar deleting destructor'
_TEXT	ENDS
EXTRN	??1CWnd@@UAE@XZ:NEAR				; CWnd::~CWnd
; Function compile flags: /Odt
;	COMDAT ??1CWebBrowser@@UAE@XZ
_TEXT	SEGMENT
_this$ = -4						; size = 4
??1CWebBrowser@@UAE@XZ PROC NEAR			; CWebBrowser::~CWebBrowser, COMDAT
; _this$ = ecx
  00000	55		 push	 ebp
  00001	8b ec		 mov	 ebp, esp
  00003	51		 push	 ecx
  00004	89 4d fc	 mov	 DWORD PTR _this$[ebp], ecx
  00007	8b 4d fc	 mov	 ecx, DWORD PTR _this$[ebp]
  0000a	e8 00 00 00 00	 call	 ??1CWnd@@UAE@XZ		; CWnd::~CWnd
  0000f	8b e5		 mov	 esp, ebp
  00011	5d		 pop	 ebp
  00012	c3		 ret	 0
??1CWebBrowser@@UAE@XZ ENDP				; CWebBrowser::~CWebBrowser
_TEXT	ENDS
PUBLIC	?GetThisClass@CWebBrowser@@SGPAUCRuntimeClass@@XZ ; CWebBrowser::GetThisClass
; Function compile flags: /Odt
; File d:\boxgit\playbox\playbox\dev\prj\playbox\src\gui\commoncontrol\ie_explorer.cpp
_TEXT	SEGMENT
?GetThisClass@CWebBrowser@@SGPAUCRuntimeClass@@XZ PROC NEAR ; CWebBrowser::GetThisClass

; 15   : IMPLEMENT_DYNCREATE(CWebBrowser, CWnd)

  00070	55		 push	 ebp
  00071	8b ec		 mov	 ebp, esp
  00073	b8 00 00 00 00	 mov	 eax, OFFSET FLAT:?classCWebBrowser@CWebBrowser@@2UCRuntimeClass@@B ; CWebBrowser::classCWebBrowser
  00078	5d		 pop	 ebp
  00079	c3		 ret	 0
?GetThisClass@CWebBrowser@@SGPAUCRuntimeClass@@XZ ENDP	; CWebBrowser::GetThisClass
; Function compile flags: /Odt
_this$ = -4						; size = 4
?GetRuntimeClass@CWebBrowser@@UBEPAUCRuntimeClass@@XZ PROC NEAR ; CWebBrowser::GetRuntimeClass
; _this$ = ecx

; 15   : IMPLEMENT_DYNCREATE(CWebBrowser, CWnd)

  00080	55		 push	 ebp
  00081	8b ec		 mov	 ebp, esp
  00083	51		 push	 ecx
  00084	89 4d fc	 mov	 DWORD PTR _this$[ebp], ecx
  00087	b8 00 00 00 00	 mov	 eax, OFFSET FLAT:?classCWebBrowser@CWebBrowser@@2UCRuntimeClass@@B ; CWebBrowser::classCWebBrowser
  0008c	8b e5		 mov	 esp, ebp
  0008e	5d		 pop	 ebp
  0008f	c3		 ret	 0
?GetRuntimeClass@CWebBrowser@@UBEPAUCRuntimeClass@@XZ ENDP ; CWebBrowser::GetRuntimeClass
_TEXT	ENDS
PUBLIC	?GetThisEventSinkMap@CWebBrowser@@KGPBUAFX_EVENTSINKMAP@@XZ ; CWebBrowser::GetThisEventSinkMap
; Function compile flags: /Odt
_TEXT	SEGMENT
?GetThisEventSinkMap@CWebBrowser@@KGPBUAFX_EVENTSINKMAP@@XZ PROC NEAR ; CWebBrowser::GetThisEventSinkMap

; 17   : BEGIN_EVENTSINK_MAP(CWebBrowser, CWnd)

  00090	55		 push	 ebp
  00091	8b ec		 mov	 ebp, esp
  00093	b8 00 00 00 00	 mov	 eax, OFFSET FLAT:?eventsinkMap@CWebBrowser@@1UAFX_EVENTSINKMAP@@B ; CWebBrowser::eventsinkMap
  00098	5d		 pop	 ebp
  00099	c3		 ret	 0
?GetThisEventSinkMap@CWebBrowser@@KGPBUAFX_EVENTSINKMAP@@XZ ENDP ; CWebBrowser::GetThisEventSinkMap
; Function compile flags: /Odt
_this$ = -4						; size = 4
?GetEventSinkMap@CWebBrowser@@MBEPBUAFX_EVENTSINKMAP@@XZ PROC NEAR ; CWebBrowser::GetEventSinkMap
; _this$ = ecx

; 17   : BEGIN_EVENTSINK_MAP(CWebBrowser, CWnd)

  000a0	55		 push	 ebp
  000a1	8b ec		 mov	 ebp, esp
  000a3	51		 push	 ecx
  000a4	89 4d fc	 mov	 DWORD PTR _this$[ebp], ecx
  000a7	b8 00 00 00 00	 mov	 eax, OFFSET FLAT:?eventsinkMap@CWebBrowser@@1UAFX_EVENTSINKMAP@@B ; CWebBrowser::eventsinkMap
  000ac	8b e5		 mov	 esp, ebp
  000ae	5d		 pop	 ebp
  000af	c3		 ret	 0
?GetEventSinkMap@CWebBrowser@@MBEPBUAFX_EVENTSINKMAP@@XZ ENDP ; CWebBrowser::GetEventSinkMap
_TEXT	ENDS
PUBLIC	?NavigateImage@CWebBrowser@@QAEXV?$CStringT@DV?$StrTraitMFC_DLL@DV?$ChTraitsCRT@D@ATL@@@@@ATL@@JJ@Z ; CWebBrowser::NavigateImage
EXTRN	__imp_??1?$CStringT@DV?$StrTraitMFC_DLL@DV?$ChTraitsCRT@D@ATL@@@@@ATL@@QAE@XZ:NEAR
; Function compile flags: /Odt
_TEXT	SEGMENT
_this$ = -4						; size = 4
_strImagePath$ = 8					; size = 4
_ImageWidth$ = 12					; size = 4
_ImageHeight$ = 16					; size = 4
?NavigateImage@CWebBrowser@@QAEXV?$CStringT@DV?$StrTraitMFC_DLL@DV?$ChTraitsCRT@D@ATL@@@@@ATL@@JJ@Z PROC NEAR ; CWebBrowser::NavigateImage
; _this$ = ecx

; 28   : {

  000b0	55		 push	 ebp
  000b1	8b ec		 mov	 ebp, esp
  000b3	51		 push	 ecx
  000b4	89 4d fc	 mov	 DWORD PTR _this$[ebp], ecx

; 29   : 	//  IE 
; 30   : 	//
; 31   : 	//// 
; 32   : 	//put_Width(ImageWidth);
; 33   : 	//put_Height(ImageHeight);
; 34   : 	//// 
; 35   : 	//Navigate("about:blank", NULL, NULL, NULL, NULL);
; 36   : 	//
; 37   : 	//Sleep(5*1000);
; 38   : 	//CComPtr<IDispatch> spDispatch;
; 39   : 	//CComQIPtr<IHTMLDocument2, &IID_IHTMLDocument2> pDoc2;
; 40   : 
; 41   : 	//// 
; 42   : 	//if((spDispatch = get_Document()) != NULL)
; 43   : 	//{
; 44   : 	//	pDoc2 = spDispatch;
; 45   : 	//	if(pDoc2.p != NULL)
; 46   : 	//	{
; 47   : 	//		Writeln(pDoc2, "<HTML>");
; 48   : 	//		Writeln(pDoc2, "<BODY scroll = \"no\"\
; 49   : 	//					   bottomMargin=\"0\" leftMargin=\"0\" topMargin=\"0\" rightMargin=\"0\">");/*oncontextmenu=self.event.returnValue=false*/
; 50   : 	//		CString img;
; 51   : 	//		img = "<div ><img src = \"" + strImagePath + "\">";
; 52   : 	//		Writeln(pDoc2, img);
; 53   : 	//		Writeln(pDoc2, "</BODY>");
; 54   : 	//		Writeln(pDoc2, "</HTML>");
; 55   : 	//	}
; 56   : 	//}
; 57   : 	//SetFlatStyle();
; 58   : }

  000b7	8d 4d 08	 lea	 ecx, DWORD PTR _strImagePath$[ebp]
  000ba	ff 15 00 00 00
	00		 call	 DWORD PTR __imp_??1?$CStringT@DV?$StrTraitMFC_DLL@DV?$ChTraitsCRT@D@ATL@@@@@ATL@@QAE@XZ
  000c0	8b e5		 mov	 esp, ebp
  000c2	5d		 pop	 ebp
  000c3	c2 0c 00	 ret	 12			; 0000000cH
?NavigateImage@CWebBrowser@@QAEXV?$CStringT@DV?$StrTraitMFC_DLL@DV?$ChTraitsCRT@D@ATL@@@@@ATL@@JJ@Z ENDP ; CWebBrowser::NavigateImage
_TEXT	ENDS
PUBLIC	?Writeln@CWebBrowser@@AAEJPAUIHTMLDocument2@@V?$CStringT@DV?$StrTraitMFC_DLL@DV?$ChTraitsCRT@D@ATL@@@@@ATL@@@Z ; CWebBrowser::Writeln
EXTRN	__imp__SafeArrayDestroy@4:NEAR
EXTRN	__imp__SafeArrayAccessData@8:NEAR
EXTRN	__imp__SafeArrayUnaccessData@4:NEAR
EXTRN	__imp__SafeArrayCreateVector@12:NEAR
EXTRN	__imp_?AllocSysString@?$CStringT@DV?$StrTraitMFC_DLL@DV?$ChTraitsCRT@D@ATL@@@@@ATL@@QBEPA_WXZ:NEAR
EXTRN	__imp__SysFreeString@4:NEAR
xdata$x	SEGMENT
$T201907 DD	0ffffffffH
	DD	FLAT:$L201903
$T201905 DD	019930520H
	DD	01H
	DD	FLAT:$T201907
	DD	2 DUP(00H)
	DD	2 DUP(00H)
; Function compile flags: /Odt
xdata$x	ENDS
_TEXT	SEGMENT
_this$ = -44						; size = 4
$T201902 = -40						; size = 4
$T201901 = -36						; size = 4
$T201900 = -32						; size = 4
_param$ = -28						; size = 4
_hr$ = -24						; size = 4
_bstr$ = -20						; size = 4
_sfArray$ = -16						; size = 4
__$EHRec$ = -12						; size = 12
_pDoc$ = 8						; size = 4
_html$ = 12						; size = 4
?Writeln@CWebBrowser@@AAEJPAUIHTMLDocument2@@V?$CStringT@DV?$StrTraitMFC_DLL@DV?$ChTraitsCRT@D@ATL@@@@@ATL@@@Z PROC NEAR ; CWebBrowser::Writeln
; _this$ = ecx

; 61   : {

  000d0	55		 push	 ebp
  000d1	8b ec		 mov	 ebp, esp
  000d3	6a ff		 push	 -1
  000d5	68 00 00 00 00	 push	 __ehhandler$?Writeln@CWebBrowser@@AAEJPAUIHTMLDocument2@@V?$CStringT@DV?$StrTraitMFC_DLL@DV?$ChTraitsCRT@D@ATL@@@@@ATL@@@Z
  000da	64 a1 00 00 00
	00		 mov	 eax, DWORD PTR fs:__except_list
  000e0	50		 push	 eax
  000e1	64 89 25 00 00
	00 00		 mov	 DWORD PTR fs:__except_list, esp
  000e8	83 ec 20	 sub	 esp, 32			; 00000020H
  000eb	89 4d d4	 mov	 DWORD PTR _this$[ebp], ecx
  000ee	c7 45 fc 00 00
	00 00		 mov	 DWORD PTR __$EHRec$[ebp+8], 0

; 62   : 	HRESULT hr = S_OK;

  000f5	c7 45 e8 00 00
	00 00		 mov	 DWORD PTR _hr$[ebp], 0

; 63   : 	VARIANT *param;
; 64   : 	SAFEARRAY *sfArray;
; 65   : 
; 66   : 	if(pDoc == NULL)

  000fc	83 7d 08 00	 cmp	 DWORD PTR _pDoc$[ebp], 0
  00100	75 1f		 jne	 SHORT $L200971

; 67   : 		return E_FAIL;

  00102	c7 45 e0 05 40
	00 80		 mov	 DWORD PTR $T201900[ebp], -2147467259 ; 80004005H
  00109	c7 45 fc ff ff
	ff ff		 mov	 DWORD PTR __$EHRec$[ebp+8], -1
  00110	8d 4d 0c	 lea	 ecx, DWORD PTR _html$[ebp]
  00113	ff 15 00 00 00
	00		 call	 DWORD PTR __imp_??1?$CStringT@DV?$StrTraitMFC_DLL@DV?$ChTraitsCRT@D@ATL@@@@@ATL@@QAE@XZ
  00119	8b 45 e0	 mov	 eax, DWORD PTR $T201900[ebp]
  0011c	e9 b8 00 00 00	 jmp	 $L200966
$L200971:

; 68   : 	
; 69   : 	// Creates a new one-dimensional array
; 70   : 	sfArray = SafeArrayCreateVector(VT_VARIANT, 0, 1);

  00121	6a 01		 push	 1
  00123	6a 00		 push	 0
  00125	6a 0c		 push	 12			; 0000000cH
  00127	ff 15 00 00 00
	00		 call	 DWORD PTR __imp__SafeArrayCreateVector@12
  0012d	89 45 f0	 mov	 DWORD PTR _sfArray$[ebp], eax

; 71   : 	if (sfArray == NULL ) 

  00130	83 7d f0 00	 cmp	 DWORD PTR _sfArray$[ebp], 0
  00134	75 1f		 jne	 SHORT $L200974

; 72   : 		return E_FAIL;

  00136	c7 45 dc 05 40
	00 80		 mov	 DWORD PTR $T201901[ebp], -2147467259 ; 80004005H
  0013d	c7 45 fc ff ff
	ff ff		 mov	 DWORD PTR __$EHRec$[ebp+8], -1
  00144	8d 4d 0c	 lea	 ecx, DWORD PTR _html$[ebp]
  00147	ff 15 00 00 00
	00		 call	 DWORD PTR __imp_??1?$CStringT@DV?$StrTraitMFC_DLL@DV?$ChTraitsCRT@D@ATL@@@@@ATL@@QAE@XZ
  0014d	8b 45 dc	 mov	 eax, DWORD PTR $T201901[ebp]
  00150	e9 84 00 00 00	 jmp	 $L200966
$L200974:

; 73   : 	
; 74   : 	BSTR bstr = html.AllocSysString();

  00155	8d 4d 0c	 lea	 ecx, DWORD PTR _html$[ebp]
  00158	ff 15 00 00 00
	00		 call	 DWORD PTR __imp_?AllocSysString@?$CStringT@DV?$StrTraitMFC_DLL@DV?$ChTraitsCRT@D@ATL@@@@@ATL@@QBEPA_WXZ
  0015e	89 45 ec	 mov	 DWORD PTR _bstr$[ebp], eax

; 75   : 	hr = SafeArrayAccessData(sfArray,(LPVOID*) & param);

  00161	8d 45 e4	 lea	 eax, DWORD PTR _param$[ebp]
  00164	50		 push	 eax
  00165	8b 4d f0	 mov	 ecx, DWORD PTR _sfArray$[ebp]
  00168	51		 push	 ecx
  00169	ff 15 00 00 00
	00		 call	 DWORD PTR __imp__SafeArrayAccessData@8
  0016f	89 45 e8	 mov	 DWORD PTR _hr$[ebp], eax

; 76   : 	param->vt = VT_BSTR;

  00172	8b 55 e4	 mov	 edx, DWORD PTR _param$[ebp]
  00175	66 c7 02 08 00	 mov	 WORD PTR [edx], 8

; 77   : 	param->bstrVal = bstr;

  0017a	8b 45 e4	 mov	 eax, DWORD PTR _param$[ebp]
  0017d	8b 4d ec	 mov	 ecx, DWORD PTR _bstr$[ebp]
  00180	89 48 08	 mov	 DWORD PTR [eax+8], ecx

; 78   : 	hr = SafeArrayUnaccessData(sfArray);

  00183	8b 55 f0	 mov	 edx, DWORD PTR _sfArray$[ebp]
  00186	52		 push	 edx
  00187	ff 15 00 00 00
	00		 call	 DWORD PTR __imp__SafeArrayUnaccessData@4
  0018d	89 45 e8	 mov	 DWORD PTR _hr$[ebp], eax

; 79   : 	hr = pDoc->writeln(sfArray);

  00190	8b 45 f0	 mov	 eax, DWORD PTR _sfArray$[ebp]
  00193	50		 push	 eax
  00194	8b 4d 08	 mov	 ecx, DWORD PTR _pDoc$[ebp]
  00197	8b 11		 mov	 edx, DWORD PTR [ecx]
  00199	8b 45 08	 mov	 eax, DWORD PTR _pDoc$[ebp]
  0019c	50		 push	 eax
  0019d	ff 92 f0 00 00
	00		 call	 DWORD PTR [edx+240]
  001a3	89 45 e8	 mov	 DWORD PTR _hr$[ebp], eax

; 80   : 
; 81   : 	SysFreeString(bstr);

  001a6	8b 4d ec	 mov	 ecx, DWORD PTR _bstr$[ebp]
  001a9	51		 push	 ecx
  001aa	ff 15 00 00 00
	00		 call	 DWORD PTR __imp__SysFreeString@4

; 82   : 	if (sfArray != NULL) 

  001b0	83 7d f0 00	 cmp	 DWORD PTR _sfArray$[ebp], 0
  001b4	74 0a		 je	 SHORT $L200979

; 83   : 	{
; 84   : 		SafeArrayDestroy(sfArray);

  001b6	8b 55 f0	 mov	 edx, DWORD PTR _sfArray$[ebp]
  001b9	52		 push	 edx
  001ba	ff 15 00 00 00
	00		 call	 DWORD PTR __imp__SafeArrayDestroy@4
$L200979:

; 85   : 	}
; 86   : 	return hr;

  001c0	8b 45 e8	 mov	 eax, DWORD PTR _hr$[ebp]
  001c3	89 45 d8	 mov	 DWORD PTR $T201902[ebp], eax
  001c6	c7 45 fc ff ff
	ff ff		 mov	 DWORD PTR __$EHRec$[ebp+8], -1
  001cd	8d 4d 0c	 lea	 ecx, DWORD PTR _html$[ebp]
  001d0	ff 15 00 00 00
	00		 call	 DWORD PTR __imp_??1?$CStringT@DV?$StrTraitMFC_DLL@DV?$ChTraitsCRT@D@ATL@@@@@ATL@@QAE@XZ
  001d6	8b 45 d8	 mov	 eax, DWORD PTR $T201902[ebp]
$L200966:

; 87   : }

  001d9	8b 4d f4	 mov	 ecx, DWORD PTR __$EHRec$[ebp]
  001dc	64 89 0d 00 00
	00 00		 mov	 DWORD PTR fs:__except_list, ecx
  001e3	8b e5		 mov	 esp, ebp
  001e5	5d		 pop	 ebp
  001e6	c2 08 00	 ret	 8
_TEXT	ENDS
text$x	SEGMENT
$L201903:
  00014	8d 4d 0c	 lea	 ecx, DWORD PTR _html$[ebp]
  00017	ff 25 00 00 00
	00		 jmp	 DWORD PTR __imp_??1?$CStringT@DV?$StrTraitMFC_DLL@DV?$ChTraitsCRT@D@ATL@@@@@ATL@@QAE@XZ
__ehhandler$?Writeln@CWebBrowser@@AAEJPAUIHTMLDocument2@@V?$CStringT@DV?$StrTraitMFC_DLL@DV?$ChTraitsCRT@D@ATL@@@@@ATL@@@Z:
  0001d	b8 00 00 00 00	 mov	 eax, OFFSET FLAT:$T201905
  00022	e9 00 00 00 00	 jmp	 ___CxxFrameHandler
text$x	ENDS
?Writeln@CWebBrowser@@AAEJPAUIHTMLDocument2@@V?$CStringT@DV?$StrTraitMFC_DLL@DV?$ChTraitsCRT@D@ATL@@@@@ATL@@@Z ENDP ; CWebBrowser::Writeln
PUBLIC	??B?$CComPtrBase@UIDispatch@@@ATL@@QBEPAUIDispatch@@XZ ; ATL::CComPtrBase<IDispatch>::operator IDispatch *
PUBLIC	??0?$CComPtr@UIDispatch@@@ATL@@QAE@XZ		; ATL::CComPtr<IDispatch>::CComPtr<IDispatch>
PUBLIC	??0?$CComQIPtr@UIHTMLDocument2@@$1?IID_IHTMLDocument2@@3U_GUID@@B@ATL@@QAE@XZ ; ATL::CComQIPtr<IHTMLDocument2,&IID_IHTMLDocument2>::CComQIPtr<IHTMLDocument2,&IID_IHTMLDocument2>
PUBLIC	??4?$CComPtr@UIDispatch@@@ATL@@QAEPAUIDispatch@@PAU2@@Z ; ATL::CComPtr<IDispatch>::operator=
PUBLIC	??4?$CComQIPtr@UIHTMLDocument2@@$1?IID_IHTMLDocument2@@3U_GUID@@B@ATL@@QAEPAUIHTMLDocument2@@PAUIUnknown@@@Z ; ATL::CComQIPtr<IHTMLDocument2,&IID_IHTMLDocument2>::operator=
PUBLIC	??1?$CComQIPtr@UIHTMLDocument2@@$1?IID_IHTMLDocument2@@3U_GUID@@B@ATL@@QAE@XZ ; ATL::CComQIPtr<IHTMLDocument2,&IID_IHTMLDocument2>::~CComQIPtr<IHTMLDocument2,&IID_IHTMLDocument2>
PUBLIC	??I?$CComPtrBase@UIHTMLElement@@@ATL@@QAEPAPAUIHTMLElement@@XZ ; ATL::CComPtrBase<IHTMLElement>::operator&
PUBLIC	??C?$CComPtrBase@UIHTMLElement@@@ATL@@QBEPAV?$_NoAddRefReleaseOnCComPtr@UIHTMLElement@@@1@XZ ; ATL::CComPtrBase<IHTMLElement>::operator->
PUBLIC	??1?$CComPtr@UIDispatch@@@ATL@@QAE@XZ		; ATL::CComPtr<IDispatch>::~CComPtr<IDispatch>
PUBLIC	??0?$CComPtr@UIHTMLElement@@@ATL@@QAE@XZ	; ATL::CComPtr<IHTMLElement>::CComPtr<IHTMLElement>
PUBLIC	??1?$CComPtr@UIHTMLElement@@@ATL@@QAE@XZ	; ATL::CComPtr<IHTMLElement>::~CComPtr<IHTMLElement>
PUBLIC	??I?$CComPtrBase@UIHTMLStyle@@@ATL@@QAEPAPAUIHTMLStyle@@XZ ; ATL::CComPtrBase<IHTMLStyle>::operator&
PUBLIC	??C?$CComPtrBase@UIHTMLStyle@@@ATL@@QBEPAV?$_NoAddRefReleaseOnCComPtr@UIHTMLStyle@@@1@XZ ; ATL::CComPtrBase<IHTMLStyle>::operator->
PUBLIC	??0?$CComPtr@UIHTMLStyle@@@ATL@@QAE@XZ		; ATL::CComPtr<IHTMLStyle>::CComPtr<IHTMLStyle>
PUBLIC	??1?$CComPtr@UIHTMLStyle@@@ATL@@QAE@XZ		; ATL::CComPtr<IHTMLStyle>::~CComPtr<IHTMLStyle>
PUBLIC	??C?$CComPtrBase@UIHTMLDocument2@@@ATL@@QBEPAV?$_NoAddRefReleaseOnCComPtr@UIHTMLDocument2@@@1@XZ ; ATL::CComPtrBase<IHTMLDocument2>::operator->
PUBLIC	?SetFlatStyle@CWebBrowser@@QAEXXZ		; CWebBrowser::SetFlatStyle
PUBLIC	?A2BSTR@@YAPA_WPBD@Z				; A2BSTR
PUBLIC	?get_Document@CWebBrowser@@QAEPAUIDispatch@@XZ	; CWebBrowser::get_Document
xdata$x	SEGMENT
$T201916 DD	0ffffffffH
	DD	FLAT:$L201909
	DD	00H
	DD	FLAT:$L201910
	DD	01H
	DD	FLAT:$L201911
	DD	02H
	DD	FLAT:$L201912
$T201914 DD	019930520H
	DD	04H
	DD	FLAT:$T201916
	DD	2 DUP(00H)
	DD	2 DUP(00H)
; Function compile flags: /Odt
xdata$x	ENDS
_TEXT	SEGMENT
tv144 = -48						; size = 4
tv132 = -44						; size = 4
tv87 = -40						; size = 4
_this$ = -36						; size = 4
_lbstrValve$201179 = -32				; size = 4
_pStyle$201166 = -28					; size = 4
_pElement$201081 = -24					; size = 4
_pDoc2$ = -20						; size = 4
_spDispatch$ = -16					; size = 4
__$EHRec$ = -12						; size = 12
?SetFlatStyle@CWebBrowser@@QAEXXZ PROC NEAR		; CWebBrowser::SetFlatStyle
; _this$ = ecx

; 89   : {

  001f0	55		 push	 ebp
  001f1	8b ec		 mov	 ebp, esp
  001f3	6a ff		 push	 -1
  001f5	68 00 00 00 00	 push	 __ehhandler$?SetFlatStyle@CWebBrowser@@QAEXXZ
  001fa	64 a1 00 00 00
	00		 mov	 eax, DWORD PTR fs:__except_list
  00200	50		 push	 eax
  00201	64 89 25 00 00
	00 00		 mov	 DWORD PTR fs:__except_list, esp
  00208	83 ec 24	 sub	 esp, 36			; 00000024H
  0020b	89 4d dc	 mov	 DWORD PTR _this$[ebp], ecx

; 90   : 	CComPtr<IDispatch> spDispatch;

  0020e	8d 4d f0	 lea	 ecx, DWORD PTR _spDispatch$[ebp]
  00211	e8 00 00 00 00	 call	 ??0?$CComPtr@UIDispatch@@@ATL@@QAE@XZ ; ATL::CComPtr<IDispatch>::CComPtr<IDispatch>
  00216	c7 45 fc 00 00
	00 00		 mov	 DWORD PTR __$EHRec$[ebp+8], 0

; 91   : 	CComQIPtr<IHTMLDocument2, &IID_IHTMLDocument2> pDoc2;

  0021d	8d 4d ec	 lea	 ecx, DWORD PTR _pDoc2$[ebp]
  00220	e8 00 00 00 00	 call	 ??0?$CComQIPtr@UIHTMLDocument2@@$1?IID_IHTMLDocument2@@3U_GUID@@B@ATL@@QAE@XZ ; ATL::CComQIPtr<IHTMLDocument2,&IID_IHTMLDocument2>::CComQIPtr<IHTMLDocument2,&IID_IHTMLDocument2>
  00225	c6 45 fc 01	 mov	 BYTE PTR __$EHRec$[ebp+8], 1

; 92   : 
; 93   : 	// 
; 94   : 	if((spDispatch = get_Document()) != NULL)

  00229	8b 4d dc	 mov	 ecx, DWORD PTR _this$[ebp]
  0022c	e8 00 00 00 00	 call	 ?get_Document@CWebBrowser@@QAEPAUIDispatch@@XZ ; CWebBrowser::get_Document
  00231	50		 push	 eax
  00232	8d 4d f0	 lea	 ecx, DWORD PTR _spDispatch$[ebp]
  00235	e8 00 00 00 00	 call	 ??4?$CComPtr@UIDispatch@@@ATL@@QAEPAUIDispatch@@PAU2@@Z ; ATL::CComPtr<IDispatch>::operator=
  0023a	85 c0		 test	 eax, eax
  0023c	0f 84 c5 00 00
	00		 je	 $L201007

; 95   : 	{
; 96   : 		pDoc2 = spDispatch;

  00242	8d 4d f0	 lea	 ecx, DWORD PTR _spDispatch$[ebp]
  00245	e8 00 00 00 00	 call	 ??B?$CComPtrBase@UIDispatch@@@ATL@@QBEPAUIDispatch@@XZ ; ATL::CComPtrBase<IDispatch>::operator IDispatch *
  0024a	50		 push	 eax
  0024b	8d 4d ec	 lea	 ecx, DWORD PTR _pDoc2$[ebp]
  0024e	e8 00 00 00 00	 call	 ??4?$CComQIPtr@UIHTMLDocument2@@$1?IID_IHTMLDocument2@@3U_GUID@@B@ATL@@QAEPAUIHTMLDocument2@@PAUIUnknown@@@Z ; ATL::CComQIPtr<IHTMLDocument2,&IID_IHTMLDocument2>::operator=

; 97   : 		if(pDoc2.p != NULL)

  00253	83 7d ec 00	 cmp	 DWORD PTR _pDoc2$[ebp], 0
  00257	0f 84 aa 00 00
	00		 je	 $L201007

; 98   : 		{
; 99   : 			CComPtr<IHTMLElement> pElement;

  0025d	8d 4d e8	 lea	 ecx, DWORD PTR _pElement$201081[ebp]
  00260	e8 00 00 00 00	 call	 ??0?$CComPtr@UIHTMLElement@@@ATL@@QAE@XZ ; ATL::CComPtr<IHTMLElement>::CComPtr<IHTMLElement>
  00265	c6 45 fc 02	 mov	 BYTE PTR __$EHRec$[ebp+8], 2

; 100  : 			pDoc2->get_body(&pElement);

  00269	8d 4d ec	 lea	 ecx, DWORD PTR _pDoc2$[ebp]
  0026c	e8 00 00 00 00	 call	 ??C?$CComPtrBase@UIHTMLDocument2@@@ATL@@QBEPAV?$_NoAddRefReleaseOnCComPtr@UIHTMLDocument2@@@1@XZ ; ATL::CComPtrBase<IHTMLDocument2>::operator->
  00271	89 45 d8	 mov	 DWORD PTR tv87[ebp], eax
  00274	8d 4d e8	 lea	 ecx, DWORD PTR _pElement$201081[ebp]
  00277	e8 00 00 00 00	 call	 ??I?$CComPtrBase@UIHTMLElement@@@ATL@@QAEPAPAUIHTMLElement@@XZ ; ATL::CComPtrBase<IHTMLElement>::operator&
  0027c	50		 push	 eax
  0027d	8b 45 d8	 mov	 eax, DWORD PTR tv87[ebp]
  00280	50		 push	 eax
  00281	8b 4d d8	 mov	 ecx, DWORD PTR tv87[ebp]
  00284	8b 11		 mov	 edx, DWORD PTR [ecx]
  00286	ff 52 24	 call	 DWORD PTR [edx+36]

; 101  : 			if(pElement.p != NULL)

  00289	83 7d e8 00	 cmp	 DWORD PTR _pElement$201081[ebp], 0
  0028d	74 6c		 je	 SHORT $L201093

; 102  : 			{
; 103  : 				CComPtr<IHTMLStyle> pStyle;

  0028f	8d 4d e4	 lea	 ecx, DWORD PTR _pStyle$201166[ebp]
  00292	e8 00 00 00 00	 call	 ??0?$CComPtr@UIHTMLStyle@@@ATL@@QAE@XZ ; ATL::CComPtr<IHTMLStyle>::CComPtr<IHTMLStyle>
  00297	c6 45 fc 03	 mov	 BYTE PTR __$EHRec$[ebp+8], 3

; 104  : 				pElement->get_style(&pStyle);

  0029b	8d 4d e8	 lea	 ecx, DWORD PTR _pElement$201081[ebp]
  0029e	e8 00 00 00 00	 call	 ??C?$CComPtrBase@UIHTMLElement@@@ATL@@QBEPAV?$_NoAddRefReleaseOnCComPtr@UIHTMLElement@@@1@XZ ; ATL::CComPtrBase<IHTMLElement>::operator->
  002a3	89 45 d4	 mov	 DWORD PTR tv132[ebp], eax
  002a6	8d 4d e4	 lea	 ecx, DWORD PTR _pStyle$201166[ebp]
  002a9	e8 00 00 00 00	 call	 ??I?$CComPtrBase@UIHTMLStyle@@@ATL@@QAEPAPAUIHTMLStyle@@XZ ; ATL::CComPtrBase<IHTMLStyle>::operator&
  002ae	50		 push	 eax
  002af	8b 45 d4	 mov	 eax, DWORD PTR tv132[ebp]
  002b2	50		 push	 eax
  002b3	8b 4d d4	 mov	 ecx, DWORD PTR tv132[ebp]
  002b6	8b 11		 mov	 edx, DWORD PTR [ecx]
  002b8	ff 52 40	 call	 DWORD PTR [edx+64]

; 105  : 				if(pStyle.p)

  002bb	83 7d e4 00	 cmp	 DWORD PTR _pStyle$201166[ebp], 0
  002bf	74 2e		 je	 SHORT $L201178

; 106  : 				{
; 107  : 					BSTR lbstrValve = A2BSTR( "none" );

  002c1	68 00 00 00 00	 push	 OFFSET FLAT:$SG201180
  002c6	e8 00 00 00 00	 call	 ?A2BSTR@@YAPA_WPBD@Z	; A2BSTR
  002cb	83 c4 04	 add	 esp, 4
  002ce	89 45 e0	 mov	 DWORD PTR _lbstrValve$201179[ebp], eax

; 108  : 					pStyle->put_borderStyle(lbstrValve);

  002d1	8d 4d e4	 lea	 ecx, DWORD PTR _pStyle$201166[ebp]
  002d4	e8 00 00 00 00	 call	 ??C?$CComPtrBase@UIHTMLStyle@@@ATL@@QBEPAV?$_NoAddRefReleaseOnCComPtr@UIHTMLStyle@@@1@XZ ; ATL::CComPtrBase<IHTMLStyle>::operator->
  002d9	89 45 d0	 mov	 DWORD PTR tv144[ebp], eax
  002dc	8b 45 e0	 mov	 eax, DWORD PTR _lbstrValve$201179[ebp]
  002df	50		 push	 eax
  002e0	8b 4d d0	 mov	 ecx, DWORD PTR tv144[ebp]
  002e3	51		 push	 ecx
  002e4	8b 55 d0	 mov	 edx, DWORD PTR tv144[ebp]
  002e7	8b 02		 mov	 eax, DWORD PTR [edx]
  002e9	ff 90 c4 01 00
	00		 call	 DWORD PTR [eax+452]
$L201178:

; 109  : 				}
; 110  : 			}

  002ef	c6 45 fc 02	 mov	 BYTE PTR __$EHRec$[ebp+8], 2
  002f3	8d 4d e4	 lea	 ecx, DWORD PTR _pStyle$201166[ebp]
  002f6	e8 00 00 00 00	 call	 ??1?$CComPtr@UIHTMLStyle@@@ATL@@QAE@XZ
$L201093:

; 111  : 		}

  002fb	c6 45 fc 01	 mov	 BYTE PTR __$EHRec$[ebp+8], 1
  002ff	8d 4d e8	 lea	 ecx, DWORD PTR _pElement$201081[ebp]
  00302	e8 00 00 00 00	 call	 ??1?$CComPtr@UIHTMLElement@@@ATL@@QAE@XZ
$L201007:

; 112  : 	}
; 113  : }

  00307	c6 45 fc 00	 mov	 BYTE PTR __$EHRec$[ebp+8], 0
  0030b	8d 4d ec	 lea	 ecx, DWORD PTR _pDoc2$[ebp]
  0030e	e8 00 00 00 00	 call	 ??1?$CComQIPtr@UIHTMLDocument2@@$1?IID_IHTMLDocument2@@3U_GUID@@B@ATL@@QAE@XZ
  00313	c7 45 fc ff ff
	ff ff		 mov	 DWORD PTR __$EHRec$[ebp+8], -1
  0031a	8d 4d f0	 lea	 ecx, DWORD PTR _spDispatch$[ebp]
  0031d	e8 00 00 00 00	 call	 ??1?$CComPtr@UIDispatch@@@ATL@@QAE@XZ
  00322	8b 4d f4	 mov	 ecx, DWORD PTR __$EHRec$[ebp]
  00325	64 89 0d 00 00
	00 00		 mov	 DWORD PTR fs:__except_list, ecx
  0032c	8b e5		 mov	 esp, ebp
  0032e	5d		 pop	 ebp
  0032f	c3		 ret	 0
_TEXT	ENDS
text$x	SEGMENT
$L201909:
  00027	8d 4d f0	 lea	 ecx, DWORD PTR _spDispatch$[ebp]
  0002a	e9 00 00 00 00	 jmp	 ??1?$CComPtr@UIDispatch@@@ATL@@QAE@XZ
$L201910:
  0002f	8d 4d ec	 lea	 ecx, DWORD PTR _pDoc2$[ebp]
  00032	e9 00 00 00 00	 jmp	 ??1?$CComQIPtr@UIHTMLDocument2@@$1?IID_IHTMLDocument2@@3U_GUID@@B@ATL@@QAE@XZ
$L201911:
  00037	8d 4d e8	 lea	 ecx, DWORD PTR _pElement$201081[ebp]
  0003a	e9 00 00 00 00	 jmp	 ??1?$CComPtr@UIHTMLElement@@@ATL@@QAE@XZ
$L201912:
  0003f	8d 4d e4	 lea	 ecx, DWORD PTR _pStyle$201166[ebp]
  00042	e9 00 00 00 00	 jmp	 ??1?$CComPtr@UIHTMLStyle@@@ATL@@QAE@XZ
__ehhandler$?SetFlatStyle@CWebBrowser@@QAEXXZ:
  00047	b8 00 00 00 00	 mov	 eax, OFFSET FLAT:$T201914
  0004c	e9 00 00 00 00	 jmp	 ___CxxFrameHandler
text$x	ENDS
?SetFlatStyle@CWebBrowser@@QAEXXZ ENDP			; CWebBrowser::SetFlatStyle
EXTRN	?InvokeHelper@CWnd@@QAAXJGGPAXPBEZZ:NEAR	; CWnd::InvokeHelper
; Function compile flags: /Odt
; File d:\boxgit\playbox\playbox\dev\prj\playbox\src\gui\commoncontrol\ie_explorer.h
;	COMDAT ?get_Document@CWebBrowser@@QAEPAUIDispatch@@XZ
_TEXT	SEGMENT
_this$ = -8						; size = 4
_result$ = -4						; size = 4
?get_Document@CWebBrowser@@QAEPAUIDispatch@@XZ PROC NEAR ; CWebBrowser::get_Document, COMDAT
; _this$ = ecx

; 222  : 	{

  00000	55		 push	 ebp
  00001	8b ec		 mov	 ebp, esp
  00003	83 ec 08	 sub	 esp, 8
  00006	89 4d f8	 mov	 DWORD PTR _this$[ebp], ecx

; 223  : 		LPDISPATCH result;
; 224  : 		InvokeHelper(0xcb, DISPATCH_PROPERTYGET, VT_DISPATCH, (void*)&result, NULL);

  00009	6a 00		 push	 0
  0000b	8d 45 fc	 lea	 eax, DWORD PTR _result$[ebp]
  0000e	50		 push	 eax
  0000f	6a 09		 push	 9
  00011	6a 02		 push	 2
  00013	68 cb 00 00 00	 push	 203			; 000000cbH
  00018	8b 4d f8	 mov	 ecx, DWORD PTR _this$[ebp]
  0001b	51		 push	 ecx
  0001c	e8 00 00 00 00	 call	 ?InvokeHelper@CWnd@@QAAXJGGPAXPBEZZ ; CWnd::InvokeHelper
  00021	83 c4 18	 add	 esp, 24			; 00000018H

; 225  : 		return result;

  00024	8b 45 fc	 mov	 eax, DWORD PTR _result$[ebp]

; 226  : 	}

  00027	8b e5		 mov	 esp, ebp
  00029	5d		 pop	 ebp
  0002a	c3		 ret	 0
?get_Document@CWebBrowser@@QAEPAUIDispatch@@XZ ENDP	; CWebBrowser::get_Document
_TEXT	ENDS
PUBLIC	?_AtlGetConversionACP@ATL@@YGIXZ		; ATL::_AtlGetConversionACP
PUBLIC	?A2WBSTR@@YAPA_WPBDH@Z				; A2WBSTR
; Function compile flags: /Odt
; File d:\program files (x86)\microsoft visual studio .net 2003\vc7\atlmfc\include\atlconv.h
;	COMDAT ?A2BSTR@@YAPA_WPBD@Z
_TEXT	SEGMENT
__acp$ = -12						; size = 4
_lp$ = 8						; size = 4
?A2BSTR@@YAPA_WPBD@Z PROC NEAR				; A2BSTR, COMDAT

; 825  : 	inline BSTR A2BSTR(LPCSTR lp) {USES_CONVERSION; return A2WBSTR(lp);}

  00000	55		 push	 ebp
  00001	8b ec		 mov	 ebp, esp
  00003	83 ec 10	 sub	 esp, 16			; 00000010H
  00006	e8 00 00 00 00	 call	 ?_AtlGetConversionACP@ATL@@YGIXZ ; ATL::_AtlGetConversionACP
  0000b	89 45 f4	 mov	 DWORD PTR __acp$[ebp], eax
  0000e	6a ff		 push	 -1
  00010	8b 45 08	 mov	 eax, DWORD PTR _lp$[ebp]
  00013	50		 push	 eax
  00014	e8 00 00 00 00	 call	 ?A2WBSTR@@YAPA_WPBDH@Z	; A2WBSTR
  00019	83 c4 08	 add	 esp, 8
  0001c	8b e5		 mov	 esp, ebp
  0001e	5d		 pop	 ebp
  0001f	c3		 ret	 0
?A2BSTR@@YAPA_WPBD@Z ENDP				; A2BSTR
; Function compile flags: /Odt
_TEXT	ENDS
;	COMDAT ?_AtlGetConversionACP@ATL@@YGIXZ
_TEXT	SEGMENT
?_AtlGetConversionACP@ATL@@YGIXZ PROC NEAR		; ATL::_AtlGetConversionACP, COMDAT

; 157  : {

  00000	55		 push	 ebp
  00001	8b ec		 mov	 ebp, esp

; 158  : 	return( g_pfnGetThreadACP() );

  00003	ff 15 00 00 00
	00		 call	 DWORD PTR ?g_pfnGetThreadACP@ATL@@3P6GIXZA ; ATL::g_pfnGetThreadACP

; 159  : }

  00009	5d		 pop	 ebp
  0000a	c3		 ret	 0
?_AtlGetConversionACP@ATL@@YGIXZ ENDP			; ATL::_AtlGetConversionACP
_TEXT	ENDS
PUBLIC	??0?$CAtlSafeAllocBufferManager@VCCRTAllocator@ATL@@@_ATL_SAFE_ALLOCA_IMPL@ATL@@QAE@XZ ; ATL::_ATL_SAFE_ALLOCA_IMPL::CAtlSafeAllocBufferManager<ATL::CCRTAllocator>::CAtlSafeAllocBufferManager<ATL::CCRTAllocator>
PUBLIC	??1?$CAtlSafeAllocBufferManager@VCCRTAllocator@ATL@@@_ATL_SAFE_ALLOCA_IMPL@ATL@@QAE@XZ ; ATL::_ATL_SAFE_ALLOCA_IMPL::CAtlSafeAllocBufferManager<ATL::CCRTAllocator>::~CAtlSafeAllocBufferManager<ATL::CCRTAllocator>
EXTRN	__imp__MultiByteToWideChar@24:NEAR
EXTRN	__imp__SysAllocStringLen@8:NEAR
;	COMDAT xdata$x
xdata$x	SEGMENT
$T201930 DD	0ffffffffH
	DD	FLAT:$L201926
$T201928 DD	019930520H
	DD	01H
	DD	FLAT:$T201930
	DD	2 DUP(00H)
	DD	2 DUP(00H)
; Function compile flags: /Odt
xdata$x	ENDS
;	COMDAT ?A2WBSTR@@YAPA_WPBDH@Z
_TEXT	SEGMENT
$T201925 = -56						; size = 4
$T201924 = -52						; size = 4
_nResult$24440 = -48					; size = 4
_str$ = -44						; size = 4
_nConvertedLen$ = -40					; size = 4
__AtlSafeAllocaManager$ = -36				; size = 4
__acp_ex$ = -28						; size = 4
_nAllocLen$ = -24					; size = 4
__$EHRec$ = -12						; size = 12
_lp$ = 8						; size = 4
_nLen$ = 12						; size = 4
?A2WBSTR@@YAPA_WPBDH@Z PROC NEAR			; A2WBSTR, COMDAT

; 775  : {

  00000	55		 push	 ebp
  00001	8b ec		 mov	 ebp, esp
  00003	6a ff		 push	 -1
  00005	68 00 00 00 00	 push	 __ehhandler$?A2WBSTR@@YAPA_WPBDH@Z
  0000a	64 a1 00 00 00
	00		 mov	 eax, DWORD PTR fs:__except_list
  00010	50		 push	 eax
  00011	64 89 25 00 00
	00 00		 mov	 DWORD PTR fs:__except_list, esp
  00018	83 ec 2c	 sub	 esp, 44			; 0000002cH

; 776  : 	if (lp == NULL || nLen == 0)

  0001b	83 7d 08 00	 cmp	 DWORD PTR _lp$[ebp], 0
  0001f	74 06		 je	 SHORT $L24413
  00021	83 7d 0c 00	 cmp	 DWORD PTR _nLen$[ebp], 0
  00025	75 07		 jne	 SHORT $L24412
$L24413:

; 777  : 		return NULL;

  00027	33 c0		 xor	 eax, eax
  00029	e9 c7 00 00 00	 jmp	 $L24411
$L24412:

; 778  : 	USES_CONVERSION_EX;

  0002e	e8 00 00 00 00	 call	 ?_AtlGetConversionACP@ATL@@YGIXZ ; ATL::_AtlGetConversionACP
  00033	89 45 e4	 mov	 DWORD PTR __acp_ex$[ebp], eax
  00036	8d 4d dc	 lea	 ecx, DWORD PTR __AtlSafeAllocaManager$[ebp]
  00039	e8 00 00 00 00	 call	 ??0?$CAtlSafeAllocBufferManager@VCCRTAllocator@ATL@@@_ATL_SAFE_ALLOCA_IMPL@ATL@@QAE@XZ ; ATL::_ATL_SAFE_ALLOCA_IMPL::CAtlSafeAllocBufferManager<ATL::CCRTAllocator>::CAtlSafeAllocBufferManager<ATL::CCRTAllocator>
  0003e	c7 45 fc 00 00
	00 00		 mov	 DWORD PTR __$EHRec$[ebp+8], 0

; 779  : 	BSTR str = NULL;

  00045	c7 45 d4 00 00
	00 00		 mov	 DWORD PTR _str$[ebp], 0

; 780  : 	int nConvertedLen = MultiByteToWideChar(_acp_ex, 0, lp,
; 781  : 		nLen, NULL, NULL);

  0004c	6a 00		 push	 0
  0004e	6a 00		 push	 0
  00050	8b 45 0c	 mov	 eax, DWORD PTR _nLen$[ebp]
  00053	50		 push	 eax
  00054	8b 4d 08	 mov	 ecx, DWORD PTR _lp$[ebp]
  00057	51		 push	 ecx
  00058	6a 00		 push	 0
  0005a	8b 55 e4	 mov	 edx, DWORD PTR __acp_ex$[ebp]
  0005d	52		 push	 edx
  0005e	ff 15 00 00 00
	00		 call	 DWORD PTR __imp__MultiByteToWideChar@24
  00064	89 45 d8	 mov	 DWORD PTR _nConvertedLen$[ebp], eax

; 782  : 	int nAllocLen = nConvertedLen;

  00067	8b 45 d8	 mov	 eax, DWORD PTR _nConvertedLen$[ebp]
  0006a	89 45 e8	 mov	 DWORD PTR _nAllocLen$[ebp], eax

; 783  : 	if (nLen == -1)

  0006d	83 7d 0c ff	 cmp	 DWORD PTR _nLen$[ebp], -1
  00071	75 09		 jne	 SHORT $L24438

; 784  : 		nAllocLen -= 1;  // Don't allocate terminating '\0'

  00073	8b 4d e8	 mov	 ecx, DWORD PTR _nAllocLen$[ebp]
  00076	83 e9 01	 sub	 ecx, 1
  00079	89 4d e8	 mov	 DWORD PTR _nAllocLen$[ebp], ecx
$L24438:

; 785  : 	str = ::SysAllocStringLen(NULL, nAllocLen);

  0007c	8b 55 e8	 mov	 edx, DWORD PTR _nAllocLen$[ebp]
  0007f	52		 push	 edx
  00080	6a 00		 push	 0
  00082	ff 15 00 00 00
	00		 call	 DWORD PTR __imp__SysAllocStringLen@8
  00088	89 45 d4	 mov	 DWORD PTR _str$[ebp], eax

; 786  : 
; 787  : 	if (str != NULL)

  0008b	83 7d d4 00	 cmp	 DWORD PTR _str$[ebp], 0
  0008f	74 4c		 je	 SHORT $L24439

; 788  : 	{
; 789  : 		int nResult;
; 790  : 		nResult = MultiByteToWideChar(_acp_ex, 0, lp, nLen, str, nConvertedLen);

  00091	8b 45 d8	 mov	 eax, DWORD PTR _nConvertedLen$[ebp]
  00094	50		 push	 eax
  00095	8b 4d d4	 mov	 ecx, DWORD PTR _str$[ebp]
  00098	51		 push	 ecx
  00099	8b 55 0c	 mov	 edx, DWORD PTR _nLen$[ebp]
  0009c	52		 push	 edx
  0009d	8b 45 08	 mov	 eax, DWORD PTR _lp$[ebp]
  000a0	50		 push	 eax
  000a1	6a 00		 push	 0
  000a3	8b 4d e4	 mov	 ecx, DWORD PTR __acp_ex$[ebp]
  000a6	51		 push	 ecx
  000a7	ff 15 00 00 00
	00		 call	 DWORD PTR __imp__MultiByteToWideChar@24
  000ad	89 45 d0	 mov	 DWORD PTR _nResult$24440[ebp], eax

; 791  : 		ATLASSERT(nResult == nConvertedLen);
; 792  : 		if(nResult != nConvertedLen)

  000b0	8b 55 d0	 mov	 edx, DWORD PTR _nResult$24440[ebp]
  000b3	3b 55 d8	 cmp	 edx, DWORD PTR _nConvertedLen$[ebp]
  000b6	74 25		 je	 SHORT $L24439

; 793  : 		{
; 794  : 			SysFreeString(str);

  000b8	8b 45 d4	 mov	 eax, DWORD PTR _str$[ebp]
  000bb	50		 push	 eax
  000bc	ff 15 00 00 00
	00		 call	 DWORD PTR __imp__SysFreeString@4

; 795  : 			return NULL;

  000c2	c7 45 cc 00 00
	00 00		 mov	 DWORD PTR $T201924[ebp], 0
  000c9	c7 45 fc ff ff
	ff ff		 mov	 DWORD PTR __$EHRec$[ebp+8], -1
  000d0	8d 4d dc	 lea	 ecx, DWORD PTR __AtlSafeAllocaManager$[ebp]
  000d3	e8 00 00 00 00	 call	 ??1?$CAtlSafeAllocBufferManager@VCCRTAllocator@ATL@@@_ATL_SAFE_ALLOCA_IMPL@ATL@@QAE@XZ ; ATL::_ATL_SAFE_ALLOCA_IMPL::CAtlSafeAllocBufferManager<ATL::CCRTAllocator>::~CAtlSafeAllocBufferManager<ATL::CCRTAllocator>
  000d8	8b 45 cc	 mov	 eax, DWORD PTR $T201924[ebp]
  000db	eb 18		 jmp	 SHORT $L24411
$L24439:

; 796  : 		}
; 797  : 
; 798  : 	}
; 799  : 	return str;

  000dd	8b 4d d4	 mov	 ecx, DWORD PTR _str$[ebp]
  000e0	89 4d c8	 mov	 DWORD PTR $T201925[ebp], ecx
  000e3	c7 45 fc ff ff
	ff ff		 mov	 DWORD PTR __$EHRec$[ebp+8], -1
  000ea	8d 4d dc	 lea	 ecx, DWORD PTR __AtlSafeAllocaManager$[ebp]
  000ed	e8 00 00 00 00	 call	 ??1?$CAtlSafeAllocBufferManager@VCCRTAllocator@ATL@@@_ATL_SAFE_ALLOCA_IMPL@ATL@@QAE@XZ ; ATL::_ATL_SAFE_ALLOCA_IMPL::CAtlSafeAllocBufferManager<ATL::CCRTAllocator>::~CAtlSafeAllocBufferManager<ATL::CCRTAllocator>
  000f2	8b 45 c8	 mov	 eax, DWORD PTR $T201925[ebp]
$L24411:

; 800  : }

  000f5	8b 4d f4	 mov	 ecx, DWORD PTR __$EHRec$[ebp]
  000f8	64 89 0d 00 00
	00 00		 mov	 DWORD PTR fs:__except_list, ecx
  000ff	8b e5		 mov	 esp, ebp
  00101	5d		 pop	 ebp
  00102	c3		 ret	 0
_TEXT	ENDS
;	COMDAT text$x
text$x	SEGMENT
$L201926:
  00000	8d 4d dc	 lea	 ecx, DWORD PTR __AtlSafeAllocaManager$[ebp]
  00003	e9 00 00 00 00	 jmp	 ??1?$CAtlSafeAllocBufferManager@VCCRTAllocator@ATL@@@_ATL_SAFE_ALLOCA_IMPL@ATL@@QAE@XZ ; ATL::_ATL_SAFE_ALLOCA_IMPL::CAtlSafeAllocBufferManager<ATL::CCRTAllocator>::~CAtlSafeAllocBufferManager<ATL::CCRTAllocator>
__ehhandler$?A2WBSTR@@YAPA_WPBDH@Z:
  00008	b8 00 00 00 00	 mov	 eax, OFFSET FLAT:$T201928
  0000d	e9 00 00 00 00	 jmp	 ___CxxFrameHandler
text$x	ENDS
?A2WBSTR@@YAPA_WPBDH@Z ENDP				; A2WBSTR
PUBLIC	??1?$CComPtr@UIHTMLDocument2@@@ATL@@QAE@XZ	; ATL::CComPtr<IHTMLDocument2>::~CComPtr<IHTMLDocument2>
; Function compile flags: /Odt
;	COMDAT ??1?$CComQIPtr@UIHTMLDocument2@@$1?IID_IHTMLDocument2@@3U_GUID@@B@ATL@@QAE@XZ
_TEXT	SEGMENT
_this$ = -4						; size = 4
??1?$CComQIPtr@UIHTMLDocument2@@$1?IID_IHTMLDocument2@@3U_GUID@@B@ATL@@QAE@XZ PROC NEAR ; ATL::CComQIPtr<IHTMLDocument2,&IID_IHTMLDocument2>::~CComQIPtr<IHTMLDocument2,&IID_IHTMLDocument2>, COMDAT
; _this$ = ecx
  00000	55		 push	 ebp
  00001	8b ec		 mov	 ebp, esp
  00003	51		 push	 ecx
  00004	89 4d fc	 mov	 DWORD PTR _this$[ebp], ecx
  00007	8b 4d fc	 mov	 ecx, DWORD PTR _this$[ebp]
  0000a	e8 00 00 00 00	 call	 ??1?$CComPtr@UIHTMLDocument2@@@ATL@@QAE@XZ
  0000f	8b e5		 mov	 esp, ebp
  00011	5d		 pop	 ebp
  00012	c3		 ret	 0
??1?$CComQIPtr@UIHTMLDocument2@@$1?IID_IHTMLDocument2@@3U_GUID@@B@ATL@@QAE@XZ ENDP ; ATL::CComQIPtr<IHTMLDocument2,&IID_IHTMLDocument2>::~CComQIPtr<IHTMLDocument2,&IID_IHTMLDocument2>
_TEXT	ENDS
PUBLIC	??1?$CComPtrBase@UIHTMLElement@@@ATL@@QAE@XZ	; ATL::CComPtrBase<IHTMLElement>::~CComPtrBase<IHTMLElement>
; Function compile flags: /Odt
;	COMDAT ??1?$CComPtr@UIHTMLElement@@@ATL@@QAE@XZ
_TEXT	SEGMENT
_this$ = -4						; size = 4
??1?$CComPtr@UIHTMLElement@@@ATL@@QAE@XZ PROC NEAR	; ATL::CComPtr<IHTMLElement>::~CComPtr<IHTMLElement>, COMDAT
; _this$ = ecx
  00000	55		 push	 ebp
  00001	8b ec		 mov	 ebp, esp
  00003	51		 push	 ecx
  00004	89 4d fc	 mov	 DWORD PTR _this$[ebp], ecx
  00007	8b 4d fc	 mov	 ecx, DWORD PTR _this$[ebp]
  0000a	e8 00 00 00 00	 call	 ??1?$CComPtrBase@UIHTMLElement@@@ATL@@QAE@XZ ; ATL::CComPtrBase<IHTMLElement>::~CComPtrBase<IHTMLElement>
  0000f	8b e5		 mov	 esp, ebp
  00011	5d		 pop	 ebp
  00012	c3		 ret	 0
??1?$CComPtr@UIHTMLElement@@@ATL@@QAE@XZ ENDP		; ATL::CComPtr<IHTMLElement>::~CComPtr<IHTMLElement>
_TEXT	ENDS
PUBLIC	??1?$CComPtrBase@UIHTMLStyle@@@ATL@@QAE@XZ	; ATL::CComPtrBase<IHTMLStyle>::~CComPtrBase<IHTMLStyle>
; Function compile flags: /Odt
;	COMDAT ??1?$CComPtr@UIHTMLStyle@@@ATL@@QAE@XZ
_TEXT	SEGMENT
_this$ = -4						; size = 4
??1?$CComPtr@UIHTMLStyle@@@ATL@@QAE@XZ PROC NEAR	; ATL::CComPtr<IHTMLStyle>::~CComPtr<IHTMLStyle>, COMDAT
; _this$ = ecx
  00000	55		 push	 ebp
  00001	8b ec		 mov	 ebp, esp
  00003	51		 push	 ecx
  00004	89 4d fc	 mov	 DWORD PTR _this$[ebp], ecx
  00007	8b 4d fc	 mov	 ecx, DWORD PTR _this$[ebp]
  0000a	e8 00 00 00 00	 call	 ??1?$CComPtrBase@UIHTMLStyle@@@ATL@@QAE@XZ ; ATL::CComPtrBase<IHTMLStyle>::~CComPtrBase<IHTMLStyle>
  0000f	8b e5		 mov	 esp, ebp
  00011	5d		 pop	 ebp
  00012	c3		 ret	 0
??1?$CComPtr@UIHTMLStyle@@@ATL@@QAE@XZ ENDP		; ATL::CComPtr<IHTMLStyle>::~CComPtr<IHTMLStyle>
_TEXT	ENDS
PUBLIC	??1?$CComPtrBase@UIHTMLDocument2@@@ATL@@QAE@XZ	; ATL::CComPtrBase<IHTMLDocument2>::~CComPtrBase<IHTMLDocument2>
; Function compile flags: /Odt
;	COMDAT ??1?$CComPtr@UIHTMLDocument2@@@ATL@@QAE@XZ
_TEXT	SEGMENT
_this$ = -4						; size = 4
??1?$CComPtr@UIHTMLDocument2@@@ATL@@QAE@XZ PROC NEAR	; ATL::CComPtr<IHTMLDocument2>::~CComPtr<IHTMLDocument2>, COMDAT
; _this$ = ecx
  00000	55		 push	 ebp
  00001	8b ec		 mov	 ebp, esp
  00003	51		 push	 ecx
  00004	89 4d fc	 mov	 DWORD PTR _this$[ebp], ecx
  00007	8b 4d fc	 mov	 ecx, DWORD PTR _this$[ebp]
  0000a	e8 00 00 00 00	 call	 ??1?$CComPtrBase@UIHTMLDocument2@@@ATL@@QAE@XZ ; ATL::CComPtrBase<IHTMLDocument2>::~CComPtrBase<IHTMLDocument2>
  0000f	8b e5		 mov	 esp, ebp
  00011	5d		 pop	 ebp
  00012	c3		 ret	 0
??1?$CComPtr@UIHTMLDocument2@@@ATL@@QAE@XZ ENDP		; ATL::CComPtr<IHTMLDocument2>::~CComPtr<IHTMLDocument2>
_TEXT	ENDS
PUBLIC	?GetParent@CWnd@@QBEPAV1@XZ			; CWnd::GetParent
EXTRN	?ShowWindow@CWnd@@QAEHH@Z:NEAR			; CWnd::ShowWindow
; Function compile flags: /Odt
; File d:\boxgit\playbox\playbox\dev\prj\playbox\src\gui\commoncontrol\ie_explorer.cpp
_TEXT	SEGMENT
_this$ = -8						; size = 4
_pWnd$ = -4						; size = 4
_lpDisp$ = 8						; size = 4
_URL$ = 12						; size = 4
?OnDocumentComplete@CWebBrowser@@QAEXPAUIDispatch@@PAUtagVARIANT@@@Z PROC NEAR ; CWebBrowser::OnDocumentComplete
; _this$ = ecx

; 116  : {

  00330	55		 push	 ebp
  00331	8b ec		 mov	 ebp, esp
  00333	83 ec 08	 sub	 esp, 8
  00336	89 4d f8	 mov	 DWORD PTR _this$[ebp], ecx

; 117  : 	CWnd *pWnd = GetParent();

  00339	8b 4d f8	 mov	 ecx, DWORD PTR _this$[ebp]
  0033c	e8 00 00 00 00	 call	 ?GetParent@CWnd@@QBEPAV1@XZ ; CWnd::GetParent
  00341	89 45 fc	 mov	 DWORD PTR _pWnd$[ebp], eax

; 118  : 	if(pWnd != NULL && URL != NULL)

  00344	83 7d fc 00	 cmp	 DWORD PTR _pWnd$[ebp], 0
  00348	74 10		 je	 SHORT $L201204
  0034a	83 7d 0c 00	 cmp	 DWORD PTR _URL$[ebp], 0
  0034e	74 0a		 je	 SHORT $L201204

; 119  : 	{
; 120  : 		pWnd->ShowWindow(SW_SHOWNOACTIVATE);

  00350	6a 04		 push	 4
  00352	8b 4d fc	 mov	 ecx, DWORD PTR _pWnd$[ebp]
  00355	e8 00 00 00 00	 call	 ?ShowWindow@CWnd@@QAEHH@Z ; CWnd::ShowWindow
$L201204:

; 121  : 	}
; 122  : }

  0035a	8b e5		 mov	 esp, ebp
  0035c	5d		 pop	 ebp
  0035d	c2 08 00	 ret	 8
?OnDocumentComplete@CWebBrowser@@QAEXPAUIDispatch@@PAUtagVARIANT@@@Z ENDP ; CWebBrowser::OnDocumentComplete
; Function compile flags: /Odt
; File d:\program files (x86)\microsoft visual studio .net 2003\vc7\atlmfc\include\atlcomcli.h
_TEXT	ENDS
;	COMDAT ??B?$CComPtrBase@UIDispatch@@@ATL@@QBEPAUIDispatch@@XZ
_TEXT	SEGMENT
_this$ = -4						; size = 4
??B?$CComPtrBase@UIDispatch@@@ATL@@QBEPAUIDispatch@@XZ PROC NEAR ; ATL::CComPtrBase<IDispatch>::operator IDispatch *, COMDAT
; _this$ = ecx

; 131  : 	{

  00000	55		 push	 ebp
  00001	8b ec		 mov	 ebp, esp
  00003	51		 push	 ecx
  00004	89 4d fc	 mov	 DWORD PTR _this$[ebp], ecx

; 132  : 		return p;

  00007	8b 45 fc	 mov	 eax, DWORD PTR _this$[ebp]
  0000a	8b 00		 mov	 eax, DWORD PTR [eax]

; 133  : 	}

  0000c	8b e5		 mov	 esp, ebp
  0000e	5d		 pop	 ebp
  0000f	c3		 ret	 0
??B?$CComPtrBase@UIDispatch@@@ATL@@QBEPAUIDispatch@@XZ ENDP ; ATL::CComPtrBase<IDispatch>::operator IDispatch *
; Function compile flags: /Odt
_TEXT	ENDS
;	COMDAT ??1?$CComPtrBase@UIHTMLDocument2@@@ATL@@QAE@XZ
_TEXT	SEGMENT
_this$ = -4						; size = 4
??1?$CComPtrBase@UIHTMLDocument2@@@ATL@@QAE@XZ PROC NEAR ; ATL::CComPtrBase<IHTMLDocument2>::~CComPtrBase<IHTMLDocument2>, COMDAT
; _this$ = ecx

; 126  : 	{

  00000	55		 push	 ebp
  00001	8b ec		 mov	 ebp, esp
  00003	51		 push	 ecx
  00004	89 4d fc	 mov	 DWORD PTR _this$[ebp], ecx

; 127  : 		if (p)

  00007	8b 45 fc	 mov	 eax, DWORD PTR _this$[ebp]
  0000a	83 38 00	 cmp	 DWORD PTR [eax], 0
  0000d	74 10		 je	 SHORT $L201251

; 128  : 			p->Release();

  0000f	8b 4d fc	 mov	 ecx, DWORD PTR _this$[ebp]
  00012	8b 11		 mov	 edx, DWORD PTR [ecx]
  00014	8b 45 fc	 mov	 eax, DWORD PTR _this$[ebp]
  00017	8b 08		 mov	 ecx, DWORD PTR [eax]
  00019	8b 12		 mov	 edx, DWORD PTR [edx]
  0001b	51		 push	 ecx
  0001c	ff 52 08	 call	 DWORD PTR [edx+8]
$L201251:

; 129  : 	}

  0001f	8b e5		 mov	 esp, ebp
  00021	5d		 pop	 ebp
  00022	c3		 ret	 0
??1?$CComPtrBase@UIHTMLDocument2@@@ATL@@QAE@XZ ENDP	; ATL::CComPtrBase<IHTMLDocument2>::~CComPtrBase<IHTMLDocument2>
; Function compile flags: /Odt
_TEXT	ENDS
;	COMDAT ??C?$CComPtrBase@UIHTMLDocument2@@@ATL@@QBEPAV?$_NoAddRefReleaseOnCComPtr@UIHTMLDocument2@@@1@XZ
_TEXT	SEGMENT
_this$ = -4						; size = 4
??C?$CComPtrBase@UIHTMLDocument2@@@ATL@@QBEPAV?$_NoAddRefReleaseOnCComPtr@UIHTMLDocument2@@@1@XZ PROC NEAR ; ATL::CComPtrBase<IHTMLDocument2>::operator->, COMDAT
; _this$ = ecx

; 147  : 	{

  00000	55		 push	 ebp
  00001	8b ec		 mov	 ebp, esp
  00003	51		 push	 ecx
  00004	89 4d fc	 mov	 DWORD PTR _this$[ebp], ecx

; 148  : 		ATLASSERT(p!=NULL);
; 149  : 		return (_NoAddRefReleaseOnCComPtr<T>*)p;

  00007	8b 45 fc	 mov	 eax, DWORD PTR _this$[ebp]
  0000a	8b 00		 mov	 eax, DWORD PTR [eax]

; 150  : 	}

  0000c	8b e5		 mov	 esp, ebp
  0000e	5d		 pop	 ebp
  0000f	c3		 ret	 0
??C?$CComPtrBase@UIHTMLDocument2@@@ATL@@QBEPAV?$_NoAddRefReleaseOnCComPtr@UIHTMLDocument2@@@1@XZ ENDP ; ATL::CComPtrBase<IHTMLDocument2>::operator->
_TEXT	ENDS
PUBLIC	??0?$CComPtr@UIHTMLDocument2@@@ATL@@QAE@XZ	; ATL::CComPtr<IHTMLDocument2>::CComPtr<IHTMLDocument2>
; Function compile flags: /Odt
;	COMDAT ??0?$CComQIPtr@UIHTMLDocument2@@$1?IID_IHTMLDocument2@@3U_GUID@@B@ATL@@QAE@XZ
_TEXT	SEGMENT
_this$ = -4						; size = 4
??0?$CComQIPtr@UIHTMLDocument2@@$1?IID_IHTMLDocument2@@3U_GUID@@B@ATL@@QAE@XZ PROC NEAR ; ATL::CComQIPtr<IHTMLDocument2,&IID_IHTMLDocument2>::CComQIPtr<IHTMLDocument2,&IID_IHTMLDocument2>, COMDAT
; _this$ = ecx

; 475  : 	CComQIPtr() throw()

  00000	55		 push	 ebp
  00001	8b ec		 mov	 ebp, esp
  00003	51		 push	 ecx
  00004	89 4d fc	 mov	 DWORD PTR _this$[ebp], ecx
  00007	8b 4d fc	 mov	 ecx, DWORD PTR _this$[ebp]
  0000a	e8 00 00 00 00	 call	 ??0?$CComPtr@UIHTMLDocument2@@@ATL@@QAE@XZ ; ATL::CComPtr<IHTMLDocument2>::CComPtr<IHTMLDocument2>

; 476  : 	{
; 477  : 	}

  0000f	8b 45 fc	 mov	 eax, DWORD PTR _this$[ebp]
  00012	8b e5		 mov	 esp, ebp
  00014	5d		 pop	 ebp
  00015	c3		 ret	 0
??0?$CComQIPtr@UIHTMLDocument2@@$1?IID_IHTMLDocument2@@3U_GUID@@B@ATL@@QAE@XZ ENDP ; ATL::CComQIPtr<IHTMLDocument2,&IID_IHTMLDocument2>::CComQIPtr<IHTMLDocument2,&IID_IHTMLDocument2>
_TEXT	ENDS
PUBLIC	?AtlComQIPtrAssign@ATL@@YGPAUIUnknown@@PAPAU2@PAU2@ABU_GUID@@@Z ; ATL::AtlComQIPtrAssign
EXTRN	_IID_IHTMLDocument2:BYTE
; Function compile flags: /Odt
;	COMDAT ??4?$CComQIPtr@UIHTMLDocument2@@$1?IID_IHTMLDocument2@@3U_GUID@@B@ATL@@QAEPAUIHTMLDocument2@@PAUIUnknown@@@Z
_TEXT	SEGMENT
_this$ = -4						; size = 4
_lp$ = 8						; size = 4
??4?$CComQIPtr@UIHTMLDocument2@@$1?IID_IHTMLDocument2@@3U_GUID@@B@ATL@@QAEPAUIHTMLDocument2@@PAUIUnknown@@@Z PROC NEAR ; ATL::CComQIPtr<IHTMLDocument2,&IID_IHTMLDocument2>::operator=, COMDAT
; _this$ = ecx

; 500  : 	{

  00000	55		 push	 ebp
  00001	8b ec		 mov	 ebp, esp
  00003	51		 push	 ecx
  00004	89 4d fc	 mov	 DWORD PTR _this$[ebp], ecx

; 501  : 		return static_cast<T*>(AtlComQIPtrAssign((IUnknown**)&p, lp, *piid));

  00007	68 00 00 00 00	 push	 OFFSET FLAT:_IID_IHTMLDocument2
  0000c	8b 45 08	 mov	 eax, DWORD PTR _lp$[ebp]
  0000f	50		 push	 eax
  00010	8b 4d fc	 mov	 ecx, DWORD PTR _this$[ebp]
  00013	51		 push	 ecx
  00014	e8 00 00 00 00	 call	 ?AtlComQIPtrAssign@ATL@@YGPAUIUnknown@@PAPAU2@PAU2@ABU_GUID@@@Z ; ATL::AtlComQIPtrAssign

; 502  : 	}

  00019	8b e5		 mov	 esp, ebp
  0001b	5d		 pop	 ebp
  0001c	c2 04 00	 ret	 4
??4?$CComQIPtr@UIHTMLDocument2@@$1?IID_IHTMLDocument2@@3U_GUID@@B@ATL@@QAEPAUIHTMLDocument2@@PAUIUnknown@@@Z ENDP ; ATL::CComQIPtr<IHTMLDocument2,&IID_IHTMLDocument2>::operator=
_TEXT	ENDS
PUBLIC	??0?$CComPtrBase@UIHTMLElement@@@ATL@@IAE@XZ	; ATL::CComPtrBase<IHTMLElement>::CComPtrBase<IHTMLElement>
; Function compile flags: /Odt
;	COMDAT ??0?$CComPtr@UIHTMLElement@@@ATL@@QAE@XZ
_TEXT	SEGMENT
_this$ = -4						; size = 4
??0?$CComPtr@UIHTMLElement@@@ATL@@QAE@XZ PROC NEAR	; ATL::CComPtr<IHTMLElement>::CComPtr<IHTMLElement>, COMDAT
; _this$ = ecx

; 248  : 	CComPtr() throw()

  00000	55		 push	 ebp
  00001	8b ec		 mov	 ebp, esp
  00003	51		 push	 ecx
  00004	89 4d fc	 mov	 DWORD PTR _this$[ebp], ecx
  00007	8b 4d fc	 mov	 ecx, DWORD PTR _this$[ebp]
  0000a	e8 00 00 00 00	 call	 ??0?$CComPtrBase@UIHTMLElement@@@ATL@@IAE@XZ ; ATL::CComPtrBase<IHTMLElement>::CComPtrBase<IHTMLElement>

; 249  : 	{
; 250  : 	}

  0000f	8b 45 fc	 mov	 eax, DWORD PTR _this$[ebp]
  00012	8b e5		 mov	 esp, ebp
  00014	5d		 pop	 ebp
  00015	c3		 ret	 0
??0?$CComPtr@UIHTMLElement@@@ATL@@QAE@XZ ENDP		; ATL::CComPtr<IHTMLElement>::CComPtr<IHTMLElement>
; Function compile flags: /Odt
_TEXT	ENDS
;	COMDAT ??1?$CComPtrBase@UIHTMLElement@@@ATL@@QAE@XZ
_TEXT	SEGMENT
_this$ = -4						; size = 4
??1?$CComPtrBase@UIHTMLElement@@@ATL@@QAE@XZ PROC NEAR	; ATL::CComPtrBase<IHTMLElement>::~CComPtrBase<IHTMLElement>, COMDAT
; _this$ = ecx

; 126  : 	{

  00000	55		 push	 ebp
  00001	8b ec		 mov	 ebp, esp
  00003	51		 push	 ecx
  00004	89 4d fc	 mov	 DWORD PTR _this$[ebp], ecx

; 127  : 		if (p)

  00007	8b 45 fc	 mov	 eax, DWORD PTR _this$[ebp]
  0000a	83 38 00	 cmp	 DWORD PTR [eax], 0
  0000d	74 10		 je	 SHORT $L201278

; 128  : 			p->Release();

  0000f	8b 4d fc	 mov	 ecx, DWORD PTR _this$[ebp]
  00012	8b 11		 mov	 edx, DWORD PTR [ecx]
  00014	8b 45 fc	 mov	 eax, DWORD PTR _this$[ebp]
  00017	8b 08		 mov	 ecx, DWORD PTR [eax]
  00019	8b 12		 mov	 edx, DWORD PTR [edx]
  0001b	51		 push	 ecx
  0001c	ff 52 08	 call	 DWORD PTR [edx+8]
$L201278:

; 129  : 	}

  0001f	8b e5		 mov	 esp, ebp
  00021	5d		 pop	 ebp
  00022	c3		 ret	 0
??1?$CComPtrBase@UIHTMLElement@@@ATL@@QAE@XZ ENDP	; ATL::CComPtrBase<IHTMLElement>::~CComPtrBase<IHTMLElement>
; Function compile flags: /Odt
_TEXT	ENDS
;	COMDAT ??I?$CComPtrBase@UIHTMLElement@@@ATL@@QAEPAPAUIHTMLElement@@XZ
_TEXT	SEGMENT
_this$ = -4						; size = 4
??I?$CComPtrBase@UIHTMLElement@@@ATL@@QAEPAPAUIHTMLElement@@XZ PROC NEAR ; ATL::CComPtrBase<IHTMLElement>::operator&, COMDAT
; _this$ = ecx

; 142  : 	{

  00000	55		 push	 ebp
  00001	8b ec		 mov	 ebp, esp
  00003	51		 push	 ecx
  00004	89 4d fc	 mov	 DWORD PTR _this$[ebp], ecx

; 143  : 		ATLASSERT(p==NULL);
; 144  : 		return &p;

  00007	8b 45 fc	 mov	 eax, DWORD PTR _this$[ebp]

; 145  : 	}

  0000a	8b e5		 mov	 esp, ebp
  0000c	5d		 pop	 ebp
  0000d	c3		 ret	 0
??I?$CComPtrBase@UIHTMLElement@@@ATL@@QAEPAPAUIHTMLElement@@XZ ENDP ; ATL::CComPtrBase<IHTMLElement>::operator&
; Function compile flags: /Odt
_TEXT	ENDS
;	COMDAT ??C?$CComPtrBase@UIHTMLElement@@@ATL@@QBEPAV?$_NoAddRefReleaseOnCComPtr@UIHTMLElement@@@1@XZ
_TEXT	SEGMENT
_this$ = -4						; size = 4
??C?$CComPtrBase@UIHTMLElement@@@ATL@@QBEPAV?$_NoAddRefReleaseOnCComPtr@UIHTMLElement@@@1@XZ PROC NEAR ; ATL::CComPtrBase<IHTMLElement>::operator->, COMDAT
; _this$ = ecx

; 147  : 	{

  00000	55		 push	 ebp
  00001	8b ec		 mov	 ebp, esp
  00003	51		 push	 ecx
  00004	89 4d fc	 mov	 DWORD PTR _this$[ebp], ecx

; 148  : 		ATLASSERT(p!=NULL);
; 149  : 		return (_NoAddRefReleaseOnCComPtr<T>*)p;

  00007	8b 45 fc	 mov	 eax, DWORD PTR _this$[ebp]
  0000a	8b 00		 mov	 eax, DWORD PTR [eax]

; 150  : 	}

  0000c	8b e5		 mov	 esp, ebp
  0000e	5d		 pop	 ebp
  0000f	c3		 ret	 0
??C?$CComPtrBase@UIHTMLElement@@@ATL@@QBEPAV?$_NoAddRefReleaseOnCComPtr@UIHTMLElement@@@1@XZ ENDP ; ATL::CComPtrBase<IHTMLElement>::operator->
_TEXT	ENDS
PUBLIC	??0?$CComPtrBase@UIHTMLStyle@@@ATL@@IAE@XZ	; ATL::CComPtrBase<IHTMLStyle>::CComPtrBase<IHTMLStyle>
; Function compile flags: /Odt
;	COMDAT ??0?$CComPtr@UIHTMLStyle@@@ATL@@QAE@XZ
_TEXT	SEGMENT
_this$ = -4						; size = 4
??0?$CComPtr@UIHTMLStyle@@@ATL@@QAE@XZ PROC NEAR	; ATL::CComPtr<IHTMLStyle>::CComPtr<IHTMLStyle>, COMDAT
; _this$ = ecx

; 248  : 	CComPtr() throw()

  00000	55		 push	 ebp
  00001	8b ec		 mov	 ebp, esp
  00003	51		 push	 ecx
  00004	89 4d fc	 mov	 DWORD PTR _this$[ebp], ecx
  00007	8b 4d fc	 mov	 ecx, DWORD PTR _this$[ebp]
  0000a	e8 00 00 00 00	 call	 ??0?$CComPtrBase@UIHTMLStyle@@@ATL@@IAE@XZ ; ATL::CComPtrBase<IHTMLStyle>::CComPtrBase<IHTMLStyle>

; 249  : 	{
; 250  : 	}

  0000f	8b 45 fc	 mov	 eax, DWORD PTR _this$[ebp]
  00012	8b e5		 mov	 esp, ebp
  00014	5d		 pop	 ebp
  00015	c3		 ret	 0
??0?$CComPtr@UIHTMLStyle@@@ATL@@QAE@XZ ENDP		; ATL::CComPtr<IHTMLStyle>::CComPtr<IHTMLStyle>
; Function compile flags: /Odt
_TEXT	ENDS
;	COMDAT ??1?$CComPtrBase@UIHTMLStyle@@@ATL@@QAE@XZ
_TEXT	SEGMENT
_this$ = -4						; size = 4
??1?$CComPtrBase@UIHTMLStyle@@@ATL@@QAE@XZ PROC NEAR	; ATL::CComPtrBase<IHTMLStyle>::~CComPtrBase<IHTMLStyle>, COMDAT
; _this$ = ecx

; 126  : 	{

  00000	55		 push	 ebp
  00001	8b ec		 mov	 ebp, esp
  00003	51		 push	 ecx
  00004	89 4d fc	 mov	 DWORD PTR _this$[ebp], ecx

; 127  : 		if (p)

  00007	8b 45 fc	 mov	 eax, DWORD PTR _this$[ebp]
  0000a	83 38 00	 cmp	 DWORD PTR [eax], 0
  0000d	74 10		 je	 SHORT $L201290

; 128  : 			p->Release();

  0000f	8b 4d fc	 mov	 ecx, DWORD PTR _this$[ebp]
  00012	8b 11		 mov	 edx, DWORD PTR [ecx]
  00014	8b 45 fc	 mov	 eax, DWORD PTR _this$[ebp]
  00017	8b 08		 mov	 ecx, DWORD PTR [eax]
  00019	8b 12		 mov	 edx, DWORD PTR [edx]
  0001b	51		 push	 ecx
  0001c	ff 52 08	 call	 DWORD PTR [edx+8]
$L201290:

; 129  : 	}

  0001f	8b e5		 mov	 esp, ebp
  00021	5d		 pop	 ebp
  00022	c3		 ret	 0
??1?$CComPtrBase@UIHTMLStyle@@@ATL@@QAE@XZ ENDP		; ATL::CComPtrBase<IHTMLStyle>::~CComPtrBase<IHTMLStyle>
; Function compile flags: /Odt
_TEXT	ENDS
;	COMDAT ??I?$CComPtrBase@UIHTMLStyle@@@ATL@@QAEPAPAUIHTMLStyle@@XZ
_TEXT	SEGMENT
_this$ = -4						; size = 4
??I?$CComPtrBase@UIHTMLStyle@@@ATL@@QAEPAPAUIHTMLStyle@@XZ PROC NEAR ; ATL::CComPtrBase<IHTMLStyle>::operator&, COMDAT
; _this$ = ecx

; 142  : 	{

  00000	55		 push	 ebp
  00001	8b ec		 mov	 ebp, esp
  00003	51		 push	 ecx
  00004	89 4d fc	 mov	 DWORD PTR _this$[ebp], ecx

; 143  : 		ATLASSERT(p==NULL);
; 144  : 		return &p;

  00007	8b 45 fc	 mov	 eax, DWORD PTR _this$[ebp]

; 145  : 	}

  0000a	8b e5		 mov	 esp, ebp
  0000c	5d		 pop	 ebp
  0000d	c3		 ret	 0
??I?$CComPtrBase@UIHTMLStyle@@@ATL@@QAEPAPAUIHTMLStyle@@XZ ENDP ; ATL::CComPtrBase<IHTMLStyle>::operator&
; Function compile flags: /Odt
_TEXT	ENDS
;	COMDAT ??C?$CComPtrBase@UIHTMLStyle@@@ATL@@QBEPAV?$_NoAddRefReleaseOnCComPtr@UIHTMLStyle@@@1@XZ
_TEXT	SEGMENT
_this$ = -4						; size = 4
??C?$CComPtrBase@UIHTMLStyle@@@ATL@@QBEPAV?$_NoAddRefReleaseOnCComPtr@UIHTMLStyle@@@1@XZ PROC NEAR ; ATL::CComPtrBase<IHTMLStyle>::operator->, COMDAT
; _this$ = ecx

; 147  : 	{

  00000	55		 push	 ebp
  00001	8b ec		 mov	 ebp, esp
  00003	51		 push	 ecx
  00004	89 4d fc	 mov	 DWORD PTR _this$[ebp], ecx

; 148  : 		ATLASSERT(p!=NULL);
; 149  : 		return (_NoAddRefReleaseOnCComPtr<T>*)p;

  00007	8b 45 fc	 mov	 eax, DWORD PTR _this$[ebp]
  0000a	8b 00		 mov	 eax, DWORD PTR [eax]

; 150  : 	}

  0000c	8b e5		 mov	 esp, ebp
  0000e	5d		 pop	 ebp
  0000f	c3		 ret	 0
??C?$CComPtrBase@UIHTMLStyle@@@ATL@@QBEPAV?$_NoAddRefReleaseOnCComPtr@UIHTMLStyle@@@1@XZ ENDP ; ATL::CComPtrBase<IHTMLStyle>::operator->
_TEXT	ENDS
PUBLIC	??0?$CComPtrBase@UIHTMLDocument2@@@ATL@@IAE@XZ	; ATL::CComPtrBase<IHTMLDocument2>::CComPtrBase<IHTMLDocument2>
; Function compile flags: /Odt
;	COMDAT ??0?$CComPtr@UIHTMLDocument2@@@ATL@@QAE@XZ
_TEXT	SEGMENT
_this$ = -4						; size = 4
??0?$CComPtr@UIHTMLDocument2@@@ATL@@QAE@XZ PROC NEAR	; ATL::CComPtr<IHTMLDocument2>::CComPtr<IHTMLDocument2>, COMDAT
; _this$ = ecx

; 248  : 	CComPtr() throw()

  00000	55		 push	 ebp
  00001	8b ec		 mov	 ebp, esp
  00003	51		 push	 ecx
  00004	89 4d fc	 mov	 DWORD PTR _this$[ebp], ecx
  00007	8b 4d fc	 mov	 ecx, DWORD PTR _this$[ebp]
  0000a	e8 00 00 00 00	 call	 ??0?$CComPtrBase@UIHTMLDocument2@@@ATL@@IAE@XZ ; ATL::CComPtrBase<IHTMLDocument2>::CComPtrBase<IHTMLDocument2>

; 249  : 	{
; 250  : 	}

  0000f	8b 45 fc	 mov	 eax, DWORD PTR _this$[ebp]
  00012	8b e5		 mov	 esp, ebp
  00014	5d		 pop	 ebp
  00015	c3		 ret	 0
??0?$CComPtr@UIHTMLDocument2@@@ATL@@QAE@XZ ENDP		; ATL::CComPtr<IHTMLDocument2>::CComPtr<IHTMLDocument2>
; Function compile flags: /Odt
_TEXT	ENDS
;	COMDAT ??0?$CComPtrBase@UIHTMLElement@@@ATL@@IAE@XZ
_TEXT	SEGMENT
_this$ = -4						; size = 4
??0?$CComPtrBase@UIHTMLElement@@@ATL@@IAE@XZ PROC NEAR	; ATL::CComPtrBase<IHTMLElement>::CComPtrBase<IHTMLElement>, COMDAT
; _this$ = ecx

; 107  : 	CComPtrBase() throw()

  00000	55		 push	 ebp
  00001	8b ec		 mov	 ebp, esp
  00003	51		 push	 ecx
  00004	89 4d fc	 mov	 DWORD PTR _this$[ebp], ecx

; 108  : 	{
; 109  : 		p = NULL;

  00007	8b 45 fc	 mov	 eax, DWORD PTR _this$[ebp]
  0000a	c7 00 00 00 00
	00		 mov	 DWORD PTR [eax], 0

; 110  : 	}

  00010	8b 45 fc	 mov	 eax, DWORD PTR _this$[ebp]
  00013	8b e5		 mov	 esp, ebp
  00015	5d		 pop	 ebp
  00016	c3		 ret	 0
??0?$CComPtrBase@UIHTMLElement@@@ATL@@IAE@XZ ENDP	; ATL::CComPtrBase<IHTMLElement>::CComPtrBase<IHTMLElement>
; Function compile flags: /Odt
_TEXT	ENDS
;	COMDAT ??0?$CComPtrBase@UIHTMLStyle@@@ATL@@IAE@XZ
_TEXT	SEGMENT
_this$ = -4						; size = 4
??0?$CComPtrBase@UIHTMLStyle@@@ATL@@IAE@XZ PROC NEAR	; ATL::CComPtrBase<IHTMLStyle>::CComPtrBase<IHTMLStyle>, COMDAT
; _this$ = ecx

; 107  : 	CComPtrBase() throw()

  00000	55		 push	 ebp
  00001	8b ec		 mov	 ebp, esp
  00003	51		 push	 ecx
  00004	89 4d fc	 mov	 DWORD PTR _this$[ebp], ecx

; 108  : 	{
; 109  : 		p = NULL;

  00007	8b 45 fc	 mov	 eax, DWORD PTR _this$[ebp]
  0000a	c7 00 00 00 00
	00		 mov	 DWORD PTR [eax], 0

; 110  : 	}

  00010	8b 45 fc	 mov	 eax, DWORD PTR _this$[ebp]
  00013	8b e5		 mov	 esp, ebp
  00015	5d		 pop	 ebp
  00016	c3		 ret	 0
??0?$CComPtrBase@UIHTMLStyle@@@ATL@@IAE@XZ ENDP		; ATL::CComPtrBase<IHTMLStyle>::CComPtrBase<IHTMLStyle>
; Function compile flags: /Odt
_TEXT	ENDS
;	COMDAT ??0?$CComPtrBase@UIHTMLDocument2@@@ATL@@IAE@XZ
_TEXT	SEGMENT
_this$ = -4						; size = 4
??0?$CComPtrBase@UIHTMLDocument2@@@ATL@@IAE@XZ PROC NEAR ; ATL::CComPtrBase<IHTMLDocument2>::CComPtrBase<IHTMLDocument2>, COMDAT
; _this$ = ecx

; 107  : 	CComPtrBase() throw()

  00000	55		 push	 ebp
  00001	8b ec		 mov	 ebp, esp
  00003	51		 push	 ecx
  00004	89 4d fc	 mov	 DWORD PTR _this$[ebp], ecx

; 108  : 	{
; 109  : 		p = NULL;

  00007	8b 45 fc	 mov	 eax, DWORD PTR _this$[ebp]
  0000a	c7 00 00 00 00
	00		 mov	 DWORD PTR [eax], 0

; 110  : 	}

  00010	8b 45 fc	 mov	 eax, DWORD PTR _this$[ebp]
  00013	8b e5		 mov	 esp, ebp
  00015	5d		 pop	 ebp
  00016	c3		 ret	 0
??0?$CComPtrBase@UIHTMLDocument2@@@ATL@@IAE@XZ ENDP	; ATL::CComPtrBase<IHTMLDocument2>::CComPtrBase<IHTMLDocument2>
; Function compile flags: /Odt
; File d:\program files (x86)\microsoft visual studio .net 2003\vc7\atlmfc\include\afx.inl
_TEXT	ENDS
;	COMDAT ?Serialize@CObject@@UAEXAAVCArchive@@@Z
_TEXT	SEGMENT
_this$ = -4						; size = 4
___formal$ = 8						; size = 4
?Serialize@CObject@@UAEXAAVCArchive@@@Z PROC NEAR	; CObject::Serialize, COMDAT
; _this$ = ecx

; 25   : 	{ /* CObject does not serialize anything by default */ }

  00000	55		 push	 ebp
  00001	8b ec		 mov	 ebp, esp
  00003	51		 push	 ecx
  00004	89 4d fc	 mov	 DWORD PTR _this$[ebp], ecx
  00007	8b e5		 mov	 esp, ebp
  00009	5d		 pop	 ebp
  0000a	c2 04 00	 ret	 4
?Serialize@CObject@@UAEXAAVCArchive@@@Z ENDP		; CObject::Serialize
_TEXT	ENDS
EXTRN	??3@YAXPAX@Z:NEAR				; operator delete
; Function compile flags: /Odt
;	COMDAT ??3CObject@@SGXPAX@Z
_TEXT	SEGMENT
_p$ = 8							; size = 4
??3CObject@@SGXPAX@Z PROC NEAR				; CObject::operator delete, COMDAT

; 31   : 	{ ::operator delete(p); }

  00000	55		 push	 ebp
  00001	8b ec		 mov	 ebp, esp
  00003	8b 45 08	 mov	 eax, DWORD PTR _p$[ebp]
  00006	50		 push	 eax
  00007	e8 00 00 00 00	 call	 ??3@YAXPAX@Z		; operator delete
  0000c	83 c4 04	 add	 esp, 4
  0000f	5d		 pop	 ebp
  00010	c2 04 00	 ret	 4
??3CObject@@SGXPAX@Z ENDP				; CObject::operator delete
_TEXT	ENDS
EXTRN	??2@YAPAXI@Z:NEAR				; operator new
; Function compile flags: /Odt
;	COMDAT ??2CObject@@SGPAXI@Z
_TEXT	SEGMENT
_nSize$ = 8						; size = 4
??2CObject@@SGPAXI@Z PROC NEAR				; CObject::operator new, COMDAT

; 37   : 	{ return ::operator new(nSize); }

  00000	55		 push	 ebp
  00001	8b ec		 mov	 ebp, esp
  00003	8b 45 08	 mov	 eax, DWORD PTR _nSize$[ebp]
  00006	50		 push	 eax
  00007	e8 00 00 00 00	 call	 ??2@YAPAXI@Z		; operator new
  0000c	83 c4 04	 add	 esp, 4
  0000f	5d		 pop	 ebp
  00010	c2 04 00	 ret	 4
??2CObject@@SGPAXI@Z ENDP				; CObject::operator new
; Function compile flags: /Odt
_TEXT	ENDS
;	COMDAT ?AssertValid@CObject@@UBEXXZ
_TEXT	SEGMENT
_this$ = -4						; size = 4
?AssertValid@CObject@@UBEXXZ PROC NEAR			; CObject::AssertValid, COMDAT
; _this$ = ecx

; 41   : 	{ /* no asserts in release builds */ }

  00000	55		 push	 ebp
  00001	8b ec		 mov	 ebp, esp
  00003	51		 push	 ecx
  00004	89 4d fc	 mov	 DWORD PTR _this$[ebp], ecx
  00007	8b e5		 mov	 esp, ebp
  00009	5d		 pop	 ebp
  0000a	c3		 ret	 0
?AssertValid@CObject@@UBEXXZ ENDP			; CObject::AssertValid
; Function compile flags: /Odt
_TEXT	ENDS
;	COMDAT ?Dump@CObject@@UBEXAAVCDumpContext@@@Z
_TEXT	SEGMENT
_this$ = -4						; size = 4
___formal$ = 8						; size = 4
?Dump@CObject@@UBEXAAVCDumpContext@@@Z PROC NEAR	; CObject::Dump, COMDAT
; _this$ = ecx

; 43   : 	{ /* no dumping in release builds */ }

  00000	55		 push	 ebp
  00001	8b ec		 mov	 ebp, esp
  00003	51		 push	 ecx
  00004	89 4d fc	 mov	 DWORD PTR _this$[ebp], ecx
  00007	8b e5		 mov	 esp, ebp
  00009	5d		 pop	 ebp
  0000a	c2 04 00	 ret	 4
?Dump@CObject@@UBEXAAVCDumpContext@@@Z ENDP		; CObject::Dump
_TEXT	ENDS
EXTRN	__imp__GetParent@4:NEAR
EXTRN	?FromHandle@CWnd@@SGPAV1@PAUHWND__@@@Z:NEAR	; CWnd::FromHandle
; Function compile flags: /Odt
; File d:\program files (x86)\microsoft visual studio .net 2003\vc7\atlmfc\include\afxwin2.inl
;	COMDAT ?GetParent@CWnd@@QBEPAV1@XZ
_TEXT	SEGMENT
_this$ = -4						; size = 4
?GetParent@CWnd@@QBEPAV1@XZ PROC NEAR			; CWnd::GetParent, COMDAT
; _this$ = ecx

; 282  : 	{ ASSERT(::IsWindow(m_hWnd)); return CWnd::FromHandle(::GetParent(m_hWnd)); }

  00000	55		 push	 ebp
  00001	8b ec		 mov	 ebp, esp
  00003	51		 push	 ecx
  00004	89 4d fc	 mov	 DWORD PTR _this$[ebp], ecx
  00007	8b 45 fc	 mov	 eax, DWORD PTR _this$[ebp]
  0000a	8b 48 20	 mov	 ecx, DWORD PTR [eax+32]
  0000d	51		 push	 ecx
  0000e	ff 15 00 00 00
	00		 call	 DWORD PTR __imp__GetParent@4
  00014	50		 push	 eax
  00015	e8 00 00 00 00	 call	 ?FromHandle@CWnd@@SGPAV1@PAUHWND__@@@Z ; CWnd::FromHandle
  0001a	8b e5		 mov	 esp, ebp
  0001c	5d		 pop	 ebp
  0001d	c3		 ret	 0
?GetParent@CWnd@@QBEPAV1@XZ ENDP			; CWnd::GetParent
; Function compile flags: /Odt
_TEXT	ENDS
;	COMDAT ?DoDataExchange@CWnd@@MAEXPAVCDataExchange@@@Z
_TEXT	SEGMENT
_this$ = -4						; size = 4
___formal$ = 8						; size = 4
?DoDataExchange@CWnd@@MAEXPAVCDataExchange@@@Z PROC NEAR ; CWnd::DoDataExchange, COMDAT
; _this$ = ecx

; 545  : 	{ } // default does nothing

  00000	55		 push	 ebp
  00001	8b ec		 mov	 ebp, esp
  00003	51		 push	 ecx
  00004	89 4d fc	 mov	 DWORD PTR _this$[ebp], ecx
  00007	8b e5		 mov	 esp, ebp
  00009	5d		 pop	 ebp
  0000a	c2 04 00	 ret	 4
?DoDataExchange@CWnd@@MAEXPAVCDataExchange@@@Z ENDP	; CWnd::DoDataExchange
_TEXT	ENDS
EXTRN	__imp__EnableWindow@8:NEAR
; Function compile flags: /Odt
;	COMDAT ?BeginModalState@CWnd@@UAEXXZ
_TEXT	SEGMENT
_this$ = -4						; size = 4
?BeginModalState@CWnd@@UAEXXZ PROC NEAR			; CWnd::BeginModalState, COMDAT
; _this$ = ecx

; 549  : 	{ ::EnableWindow(m_hWnd, FALSE); }

  00000	55		 push	 ebp
  00001	8b ec		 mov	 ebp, esp
  00003	51		 push	 ecx
  00004	89 4d fc	 mov	 DWORD PTR _this$[ebp], ecx
  00007	6a 00		 push	 0
  00009	8b 45 fc	 mov	 eax, DWORD PTR _this$[ebp]
  0000c	8b 48 20	 mov	 ecx, DWORD PTR [eax+32]
  0000f	51		 push	 ecx
  00010	ff 15 00 00 00
	00		 call	 DWORD PTR __imp__EnableWindow@8
  00016	8b e5		 mov	 esp, ebp
  00018	5d		 pop	 ebp
  00019	c3		 ret	 0
?BeginModalState@CWnd@@UAEXXZ ENDP			; CWnd::BeginModalState
; Function compile flags: /Odt
_TEXT	ENDS
;	COMDAT ?EndModalState@CWnd@@UAEXXZ
_TEXT	SEGMENT
_this$ = -4						; size = 4
?EndModalState@CWnd@@UAEXXZ PROC NEAR			; CWnd::EndModalState, COMDAT
; _this$ = ecx

; 551  : 	{ ::EnableWindow(m_hWnd, TRUE); }

  00000	55		 push	 ebp
  00001	8b ec		 mov	 ebp, esp
  00003	51		 push	 ecx
  00004	89 4d fc	 mov	 DWORD PTR _this$[ebp], ecx
  00007	6a 01		 push	 1
  00009	8b 45 fc	 mov	 eax, DWORD PTR _this$[ebp]
  0000c	8b 48 20	 mov	 ecx, DWORD PTR [eax+32]
  0000f	51		 push	 ecx
  00010	ff 15 00 00 00
	00		 call	 DWORD PTR __imp__EnableWindow@8
  00016	8b e5		 mov	 esp, ebp
  00018	5d		 pop	 ebp
  00019	c3		 ret	 0
?EndModalState@CWnd@@UAEXXZ ENDP			; CWnd::EndModalState
; Function compile flags: /Odt
; File d:\program files (x86)\microsoft visual studio .net 2003\vc7\atlmfc\include\atlcomcli.h
_TEXT	ENDS
;	COMDAT ?AtlComQIPtrAssign@ATL@@YGPAUIUnknown@@PAPAU2@PAU2@ABU_GUID@@@Z
_TEXT	SEGMENT
_pTemp$ = -4						; size = 4
_pp$ = 8						; size = 4
_lp$ = 12						; size = 4
_riid$ = 16						; size = 4
?AtlComQIPtrAssign@ATL@@YGPAUIUnknown@@PAPAU2@PAU2@ABU_GUID@@@Z PROC NEAR ; ATL::AtlComQIPtrAssign, COMDAT

; 58   : {

  00000	55		 push	 ebp
  00001	8b ec		 mov	 ebp, esp
  00003	51		 push	 ecx

; 59   : 	if (pp == NULL)

  00004	83 7d 08 00	 cmp	 DWORD PTR _pp$[ebp], 0
  00008	75 04		 jne	 SHORT $L88215

; 60   : 		return NULL;

  0000a	33 c0		 xor	 eax, eax
  0000c	eb 41		 jmp	 SHORT $L88214
$L88215:

; 61   : 
; 62   : 	IUnknown* pTemp = *pp;

  0000e	8b 45 08	 mov	 eax, DWORD PTR _pp$[ebp]
  00011	8b 08		 mov	 ecx, DWORD PTR [eax]
  00013	89 4d fc	 mov	 DWORD PTR _pTemp$[ebp], ecx

; 63   : 	*pp = NULL;

  00016	8b 55 08	 mov	 edx, DWORD PTR _pp$[ebp]
  00019	c7 02 00 00 00
	00		 mov	 DWORD PTR [edx], 0

; 64   : 	if (lp != NULL)

  0001f	83 7d 0c 00	 cmp	 DWORD PTR _lp$[ebp], 0
  00023	74 13		 je	 SHORT $L88217

; 65   : 		lp->QueryInterface(riid, (void**)pp);

  00025	8b 45 08	 mov	 eax, DWORD PTR _pp$[ebp]
  00028	50		 push	 eax
  00029	8b 4d 10	 mov	 ecx, DWORD PTR _riid$[ebp]
  0002c	51		 push	 ecx
  0002d	8b 55 0c	 mov	 edx, DWORD PTR _lp$[ebp]
  00030	8b 02		 mov	 eax, DWORD PTR [edx]
  00032	8b 4d 0c	 mov	 ecx, DWORD PTR _lp$[ebp]
  00035	51		 push	 ecx
  00036	ff 10		 call	 DWORD PTR [eax]
$L88217:

; 66   : 	if (pTemp)

  00038	83 7d fc 00	 cmp	 DWORD PTR _pTemp$[ebp], 0
  0003c	74 0c		 je	 SHORT $L88219

; 67   : 		pTemp->Release();

  0003e	8b 55 fc	 mov	 edx, DWORD PTR _pTemp$[ebp]
  00041	8b 02		 mov	 eax, DWORD PTR [edx]
  00043	8b 4d fc	 mov	 ecx, DWORD PTR _pTemp$[ebp]
  00046	51		 push	 ecx
  00047	ff 50 08	 call	 DWORD PTR [eax+8]
$L88219:

; 68   : 	return *pp;

  0004a	8b 55 08	 mov	 edx, DWORD PTR _pp$[ebp]
  0004d	8b 02		 mov	 eax, DWORD PTR [edx]
$L88214:

; 69   : }

  0004f	8b e5		 mov	 esp, ebp
  00051	5d		 pop	 ebp
  00052	c2 0c 00	 ret	 12			; 0000000cH
?AtlComQIPtrAssign@ATL@@YGPAUIUnknown@@PAPAU2@PAU2@ABU_GUID@@@Z ENDP ; ATL::AtlComQIPtrAssign
_TEXT	ENDS
PUBLIC	??0?$CComPtrBase@UIDispatch@@@ATL@@IAE@XZ	; ATL::CComPtrBase<IDispatch>::CComPtrBase<IDispatch>
; Function compile flags: /Odt
;	COMDAT ??0?$CComPtr@UIDispatch@@@ATL@@QAE@XZ
_TEXT	SEGMENT
_this$ = -4						; size = 4
??0?$CComPtr@UIDispatch@@@ATL@@QAE@XZ PROC NEAR		; ATL::CComPtr<IDispatch>::CComPtr<IDispatch>, COMDAT
; _this$ = ecx

; 311  : 	CComPtr() throw()

  00000	55		 push	 ebp
  00001	8b ec		 mov	 ebp, esp
  00003	51		 push	 ecx
  00004	89 4d fc	 mov	 DWORD PTR _this$[ebp], ecx
  00007	8b 4d fc	 mov	 ecx, DWORD PTR _this$[ebp]
  0000a	e8 00 00 00 00	 call	 ??0?$CComPtrBase@UIDispatch@@@ATL@@IAE@XZ ; ATL::CComPtrBase<IDispatch>::CComPtrBase<IDispatch>

; 312  : 	{
; 313  : 	}

  0000f	8b 45 fc	 mov	 eax, DWORD PTR _this$[ebp]
  00012	8b e5		 mov	 esp, ebp
  00014	5d		 pop	 ebp
  00015	c3		 ret	 0
??0?$CComPtr@UIDispatch@@@ATL@@QAE@XZ ENDP		; ATL::CComPtr<IDispatch>::CComPtr<IDispatch>
_TEXT	ENDS
PUBLIC	?AtlComPtrAssign@ATL@@YGPAUIUnknown@@PAPAU2@PAU2@@Z ; ATL::AtlComPtrAssign
; Function compile flags: /Odt
;	COMDAT ??4?$CComPtr@UIDispatch@@@ATL@@QAEPAUIDispatch@@PAU2@@Z
_TEXT	SEGMENT
_this$ = -4						; size = 4
_lp$ = 8						; size = 4
??4?$CComPtr@UIDispatch@@@ATL@@QAEPAUIDispatch@@PAU2@@Z PROC NEAR ; ATL::CComPtr<IDispatch>::operator=, COMDAT
; _this$ = ecx

; 323  : 	{

  00000	55		 push	 ebp
  00001	8b ec		 mov	 ebp, esp
  00003	51		 push	 ecx
  00004	89 4d fc	 mov	 DWORD PTR _this$[ebp], ecx

; 324  : 		return static_cast<IDispatch*>(AtlComPtrAssign((IUnknown**)&p, lp));

  00007	8b 45 08	 mov	 eax, DWORD PTR _lp$[ebp]
  0000a	50		 push	 eax
  0000b	8b 4d fc	 mov	 ecx, DWORD PTR _this$[ebp]
  0000e	51		 push	 ecx
  0000f	e8 00 00 00 00	 call	 ?AtlComPtrAssign@ATL@@YGPAUIUnknown@@PAPAU2@PAU2@@Z ; ATL::AtlComPtrAssign

; 325  : 	}

  00014	8b e5		 mov	 esp, ebp
  00016	5d		 pop	 ebp
  00017	c2 04 00	 ret	 4
??4?$CComPtr@UIDispatch@@@ATL@@QAEPAUIDispatch@@PAU2@@Z ENDP ; ATL::CComPtr<IDispatch>::operator=
; Function compile flags: /Odt
_TEXT	ENDS
;	COMDAT ?AtlComPtrAssign@ATL@@YGPAUIUnknown@@PAPAU2@PAU2@@Z
_TEXT	SEGMENT
_pp$ = 8						; size = 4
_lp$ = 12						; size = 4
?AtlComPtrAssign@ATL@@YGPAUIUnknown@@PAPAU2@PAU2@@Z PROC NEAR ; ATL::AtlComPtrAssign, COMDAT

; 45   : {

  00000	55		 push	 ebp
  00001	8b ec		 mov	 ebp, esp

; 46   : 	if (pp == NULL)

  00003	83 7d 08 00	 cmp	 DWORD PTR _pp$[ebp], 0
  00007	75 04		 jne	 SHORT $L88207

; 47   : 		return NULL;

  00009	33 c0		 xor	 eax, eax
  0000b	eb 35		 jmp	 SHORT $L88206
$L88207:

; 48   : 		
; 49   : 	if (lp != NULL)

  0000d	83 7d 0c 00	 cmp	 DWORD PTR _lp$[ebp], 0
  00011	74 0c		 je	 SHORT $L88208

; 50   : 		lp->AddRef();

  00013	8b 45 0c	 mov	 eax, DWORD PTR _lp$[ebp]
  00016	8b 08		 mov	 ecx, DWORD PTR [eax]
  00018	8b 55 0c	 mov	 edx, DWORD PTR _lp$[ebp]
  0001b	52		 push	 edx
  0001c	ff 51 04	 call	 DWORD PTR [ecx+4]
$L88208:

; 51   : 	if (*pp)

  0001f	8b 45 08	 mov	 eax, DWORD PTR _pp$[ebp]
  00022	83 38 00	 cmp	 DWORD PTR [eax], 0
  00025	74 10		 je	 SHORT $L88209

; 52   : 		(*pp)->Release();

  00027	8b 4d 08	 mov	 ecx, DWORD PTR _pp$[ebp]
  0002a	8b 11		 mov	 edx, DWORD PTR [ecx]
  0002c	8b 45 08	 mov	 eax, DWORD PTR _pp$[ebp]
  0002f	8b 08		 mov	 ecx, DWORD PTR [eax]
  00031	8b 12		 mov	 edx, DWORD PTR [edx]
  00033	51		 push	 ecx
  00034	ff 52 08	 call	 DWORD PTR [edx+8]
$L88209:

; 53   : 	*pp = lp;

  00037	8b 45 08	 mov	 eax, DWORD PTR _pp$[ebp]
  0003a	8b 4d 0c	 mov	 ecx, DWORD PTR _lp$[ebp]
  0003d	89 08		 mov	 DWORD PTR [eax], ecx

; 54   : 	return lp;

  0003f	8b 45 0c	 mov	 eax, DWORD PTR _lp$[ebp]
$L88206:

; 55   : }

  00042	5d		 pop	 ebp
  00043	c2 08 00	 ret	 8
?AtlComPtrAssign@ATL@@YGPAUIUnknown@@PAPAU2@PAU2@@Z ENDP ; ATL::AtlComPtrAssign
_TEXT	ENDS
PUBLIC	??1?$CComPtrBase@UIDispatch@@@ATL@@QAE@XZ	; ATL::CComPtrBase<IDispatch>::~CComPtrBase<IDispatch>
; Function compile flags: /Odt
;	COMDAT ??1?$CComPtr@UIDispatch@@@ATL@@QAE@XZ
_TEXT	SEGMENT
_this$ = -4						; size = 4
??1?$CComPtr@UIDispatch@@@ATL@@QAE@XZ PROC NEAR		; ATL::CComPtr<IDispatch>::~CComPtr<IDispatch>, COMDAT
; _this$ = ecx
  00000	55		 push	 ebp
  00001	8b ec		 mov	 ebp, esp
  00003	51		 push	 ecx
  00004	89 4d fc	 mov	 DWORD PTR _this$[ebp], ecx
  00007	8b 4d fc	 mov	 ecx, DWORD PTR _this$[ebp]
  0000a	e8 00 00 00 00	 call	 ??1?$CComPtrBase@UIDispatch@@@ATL@@QAE@XZ ; ATL::CComPtrBase<IDispatch>::~CComPtrBase<IDispatch>
  0000f	8b e5		 mov	 esp, ebp
  00011	5d		 pop	 ebp
  00012	c3		 ret	 0
??1?$CComPtr@UIDispatch@@@ATL@@QAE@XZ ENDP		; ATL::CComPtr<IDispatch>::~CComPtr<IDispatch>
; Function compile flags: /Odt
; File d:\program files (x86)\microsoft visual studio .net 2003\vc7\atlmfc\include\atlalloc.h
_TEXT	ENDS
;	COMDAT ??0?$CAtlSafeAllocBufferManager@VCCRTAllocator@ATL@@@_ATL_SAFE_ALLOCA_IMPL@ATL@@QAE@XZ
_TEXT	SEGMENT
_this$ = -4						; size = 4
??0?$CAtlSafeAllocBufferManager@VCCRTAllocator@ATL@@@_ATL_SAFE_ALLOCA_IMPL@ATL@@QAE@XZ PROC NEAR ; ATL::_ATL_SAFE_ALLOCA_IMPL::CAtlSafeAllocBufferManager<ATL::CCRTAllocator>::CAtlSafeAllocBufferManager<ATL::CCRTAllocator>, COMDAT
; _this$ = ecx

; 373  : 	CAtlSafeAllocBufferManager() : m_pHead(NULL) {};

  00000	55		 push	 ebp
  00001	8b ec		 mov	 ebp, esp
  00003	51		 push	 ecx
  00004	89 4d fc	 mov	 DWORD PTR _this$[ebp], ecx
  00007	8b 45 fc	 mov	 eax, DWORD PTR _this$[ebp]
  0000a	c7 00 00 00 00
	00		 mov	 DWORD PTR [eax], 0
  00010	8b 45 fc	 mov	 eax, DWORD PTR _this$[ebp]
  00013	8b e5		 mov	 esp, ebp
  00015	5d		 pop	 ebp
  00016	c3		 ret	 0
??0?$CAtlSafeAllocBufferManager@VCCRTAllocator@ATL@@@_ATL_SAFE_ALLOCA_IMPL@ATL@@QAE@XZ ENDP ; ATL::_ATL_SAFE_ALLOCA_IMPL::CAtlSafeAllocBufferManager<ATL::CCRTAllocator>::CAtlSafeAllocBufferManager<ATL::CCRTAllocator>
_TEXT	ENDS
PUBLIC	?Free@CCRTAllocator@ATL@@SAXPAX@Z		; ATL::CCRTAllocator::Free
; Function compile flags: /Odt
;	COMDAT ??1?$CAtlSafeAllocBufferManager@VCCRTAllocator@ATL@@@_ATL_SAFE_ALLOCA_IMPL@ATL@@QAE@XZ
_TEXT	SEGMENT
_this$ = -8						; size = 4
_p$191839 = -4						; size = 4
??1?$CAtlSafeAllocBufferManager@VCCRTAllocator@ATL@@@_ATL_SAFE_ALLOCA_IMPL@ATL@@QAE@XZ PROC NEAR ; ATL::_ATL_SAFE_ALLOCA_IMPL::CAtlSafeAllocBufferManager<ATL::CCRTAllocator>::~CAtlSafeAllocBufferManager<ATL::CCRTAllocator>, COMDAT
; _this$ = ecx

; 387  : 	{

  00000	55		 push	 ebp
  00001	8b ec		 mov	 ebp, esp
  00003	83 ec 08	 sub	 esp, 8
  00006	89 4d f8	 mov	 DWORD PTR _this$[ebp], ecx
$L191837:

; 388  : 		// Walk the list and free the buffers
; 389  : 		while (m_pHead != NULL)

  00009	8b 45 f8	 mov	 eax, DWORD PTR _this$[ebp]
  0000c	83 38 00	 cmp	 DWORD PTR [eax], 0
  0000f	74 22		 je	 SHORT $L191835

; 390  : 		{
; 391  : 			CAtlSafeAllocBufferNode* p = m_pHead;

  00011	8b 4d f8	 mov	 ecx, DWORD PTR _this$[ebp]
  00014	8b 11		 mov	 edx, DWORD PTR [ecx]
  00016	89 55 fc	 mov	 DWORD PTR _p$191839[ebp], edx

; 392  : 			m_pHead = m_pHead->m_pNext;

  00019	8b 45 f8	 mov	 eax, DWORD PTR _this$[ebp]
  0001c	8b 08		 mov	 ecx, DWORD PTR [eax]
  0001e	8b 55 f8	 mov	 edx, DWORD PTR _this$[ebp]
  00021	8b 01		 mov	 eax, DWORD PTR [ecx]
  00023	89 02		 mov	 DWORD PTR [edx], eax

; 393  : 			Allocator::Free(p);

  00025	8b 4d fc	 mov	 ecx, DWORD PTR _p$191839[ebp]
  00028	51		 push	 ecx
  00029	e8 00 00 00 00	 call	 ?Free@CCRTAllocator@ATL@@SAXPAX@Z ; ATL::CCRTAllocator::Free
  0002e	83 c4 04	 add	 esp, 4

; 394  : 		}

  00031	eb d6		 jmp	 SHORT $L191837
$L191835:

; 395  : 	}

  00033	8b e5		 mov	 esp, ebp
  00035	5d		 pop	 ebp
  00036	c3		 ret	 0
??1?$CAtlSafeAllocBufferManager@VCCRTAllocator@ATL@@@_ATL_SAFE_ALLOCA_IMPL@ATL@@QAE@XZ ENDP ; ATL::_ATL_SAFE_ALLOCA_IMPL::CAtlSafeAllocBufferManager<ATL::CCRTAllocator>::~CAtlSafeAllocBufferManager<ATL::CCRTAllocator>
_TEXT	ENDS
EXTRN	__imp__free:NEAR
; Function compile flags: /Odt
;	COMDAT ?Free@CCRTAllocator@ATL@@SAXPAX@Z
_TEXT	SEGMENT
_p$ = 8							; size = 4
?Free@CCRTAllocator@ATL@@SAXPAX@Z PROC NEAR		; ATL::CCRTAllocator::Free, COMDAT

; 35   : 	{

  00000	55		 push	 ebp
  00001	8b ec		 mov	 ebp, esp

; 36   : 		free(p);

  00003	8b 45 08	 mov	 eax, DWORD PTR _p$[ebp]
  00006	50		 push	 eax
  00007	ff 15 00 00 00
	00		 call	 DWORD PTR __imp__free
  0000d	83 c4 04	 add	 esp, 4

; 37   : 	}

  00010	5d		 pop	 ebp
  00011	c3		 ret	 0
?Free@CCRTAllocator@ATL@@SAXPAX@Z ENDP			; ATL::CCRTAllocator::Free
; Function compile flags: /Odt
; File d:\program files (x86)\microsoft visual studio .net 2003\vc7\atlmfc\include\atlcomcli.h
_TEXT	ENDS
;	COMDAT ??0?$CComPtrBase@UIDispatch@@@ATL@@IAE@XZ
_TEXT	SEGMENT
_this$ = -4						; size = 4
??0?$CComPtrBase@UIDispatch@@@ATL@@IAE@XZ PROC NEAR	; ATL::CComPtrBase<IDispatch>::CComPtrBase<IDispatch>, COMDAT
; _this$ = ecx

; 107  : 	CComPtrBase() throw()

  00000	55		 push	 ebp
  00001	8b ec		 mov	 ebp, esp
  00003	51		 push	 ecx
  00004	89 4d fc	 mov	 DWORD PTR _this$[ebp], ecx

; 108  : 	{
; 109  : 		p = NULL;

  00007	8b 45 fc	 mov	 eax, DWORD PTR _this$[ebp]
  0000a	c7 00 00 00 00
	00		 mov	 DWORD PTR [eax], 0

; 110  : 	}

  00010	8b 45 fc	 mov	 eax, DWORD PTR _this$[ebp]
  00013	8b e5		 mov	 esp, ebp
  00015	5d		 pop	 ebp
  00016	c3		 ret	 0
??0?$CComPtrBase@UIDispatch@@@ATL@@IAE@XZ ENDP		; ATL::CComPtrBase<IDispatch>::CComPtrBase<IDispatch>
; Function compile flags: /Odt
_TEXT	ENDS
;	COMDAT ??1?$CComPtrBase@UIDispatch@@@ATL@@QAE@XZ
_TEXT	SEGMENT
_this$ = -4						; size = 4
??1?$CComPtrBase@UIDispatch@@@ATL@@QAE@XZ PROC NEAR	; ATL::CComPtrBase<IDispatch>::~CComPtrBase<IDispatch>, COMDAT
; _this$ = ecx

; 126  : 	{

  00000	55		 push	 ebp
  00001	8b ec		 mov	 ebp, esp
  00003	51		 push	 ecx
  00004	89 4d fc	 mov	 DWORD PTR _this$[ebp], ecx

; 127  : 		if (p)

  00007	8b 45 fc	 mov	 eax, DWORD PTR _this$[ebp]
  0000a	83 38 00	 cmp	 DWORD PTR [eax], 0
  0000d	74 10		 je	 SHORT $L191945

; 128  : 			p->Release();

  0000f	8b 4d fc	 mov	 ecx, DWORD PTR _this$[ebp]
  00012	8b 11		 mov	 edx, DWORD PTR [ecx]
  00014	8b 45 fc	 mov	 eax, DWORD PTR _this$[ebp]
  00017	8b 08		 mov	 ecx, DWORD PTR [eax]
  00019	8b 12		 mov	 edx, DWORD PTR [edx]
  0001b	51		 push	 ecx
  0001c	ff 52 08	 call	 DWORD PTR [edx+8]
$L191945:

; 129  : 	}

  0001f	8b e5		 mov	 esp, ebp
  00021	5d		 pop	 ebp
  00022	c3		 ret	 0
??1?$CComPtrBase@UIDispatch@@@ATL@@QAE@XZ ENDP		; ATL::CComPtrBase<IDispatch>::~CComPtrBase<IDispatch>
_TEXT	ENDS
END
