; Listing generated by Microsoft (R) Optimizing Compiler Version 13.10.3077 

	TITLE	.\src\module\PlayedGamePanel\LMCDataMgr.cpp
	.386P
include listing.inc
if @Version gt 510
.model FLAT
else
_TEXT	SEGMENT PARA USE32 PUBLIC 'CODE'
_TEXT	ENDS
_DATA	SEGMENT DWORD USE32 PUBLIC 'DATA'
_DATA	ENDS
CONST	SEGMENT DWORD USE32 PUBLIC 'CONST'
CONST	ENDS
_BSS	SEGMENT DWORD USE32 PUBLIC 'BSS'
_BSS	ENDS
$$SYMBOLS	SEGMENT BYTE USE32 'DEBSYM'
$$SYMBOLS	ENDS
$$TYPES	SEGMENT BYTE USE32 'DEBTYP'
$$TYPES	ENDS
_TLS	SEGMENT DWORD USE32 PUBLIC 'TLS'
_TLS	ENDS
;	COMDAT ??_C@_0BD@OLBABOEK@vector?$DMT?$DO?5too?5long?$AA@
CONST	SEGMENT DWORD USE32 PUBLIC 'CONST'
CONST	ENDS
rdata$r	SEGMENT DWORD USE32 PUBLIC 'CONST'
rdata$r	ENDS
xdata$x	SEGMENT DWORD USE32 PUBLIC 'CONST'
xdata$x	ENDS
text$AFX_COL1	SEGMENT PARA USE32 PUBLIC ''
text$AFX_COL1	ENDS
text$yc	SEGMENT PARA USE32 PUBLIC 'CODE'
text$yc	ENDS
CRT$XCA	SEGMENT DWORD USE32 PUBLIC 'DATA'
CRT$XCA	ENDS
CRT$XCU	SEGMENT DWORD USE32 PUBLIC 'DATA'
CRT$XCU	ENDS
CRT$XCL	SEGMENT DWORD USE32 PUBLIC 'DATA'
CRT$XCL	ENDS
CRT$XCC	SEGMENT DWORD USE32 PUBLIC 'DATA'
CRT$XCC	ENDS
CRT$XCZ	SEGMENT DWORD USE32 PUBLIC 'DATA'
CRT$XCZ	ENDS
text$yd	SEGMENT PARA USE32 PUBLIC 'CODE'
text$yd	ENDS
ATL$__m	SEGMENT DWORD USE32 PUBLIC ''
ATL$__m	ENDS
ATL$__z	SEGMENT DWORD USE32 PUBLIC ''
ATL$__z	ENDS
ATL$__a	SEGMENT DWORD USE32 PUBLIC ''
ATL$__a	ENDS
;	COMDAT ??0CLMCDataOper@@QAE@H@Z
_TEXT	SEGMENT PARA USE32 PUBLIC 'CODE'
_TEXT	ENDS
;	COMDAT ??1CLMCDataOper@@QAE@XZ
_TEXT	SEGMENT PARA USE32 PUBLIC 'CODE'
_TEXT	ENDS
;	COMDAT ??RCLMCDataOper@@QAEHU_tagLMCItemInfo@@@Z
_TEXT	SEGMENT PARA USE32 PUBLIC 'CODE'
_TEXT	ENDS
;	COMDAT ??1_tagLMCItemInfo@@QAE@XZ
_TEXT	SEGMENT PARA USE32 PUBLIC 'CODE'
_TEXT	ENDS
;	COMDAT ??0_tagLMCItemInfo@@QAE@XZ
_TEXT	SEGMENT PARA USE32 PUBLIC 'CODE'
_TEXT	ENDS
;	COMDAT ??B?$CComPtrBase@UITypeInfo2@@@ATL@@QBEPAUITypeInfo2@@XZ
_TEXT	SEGMENT PARA USE32 PUBLIC 'CODE'
_TEXT	ENDS
;	COMDAT ?equal@?$istreambuf_iterator@DU?$char_traits@D@std@@@std@@QBE_NABV12@@Z
_TEXT	SEGMENT PARA USE32 PUBLIC 'CODE'
_TEXT	ENDS
;	COMDAT ?equal@?$istreambuf_iterator@_WU?$char_traits@_W@std@@@std@@QBE_NABV12@@Z
_TEXT	SEGMENT PARA USE32 PUBLIC 'CODE'
_TEXT	ENDS
;	COMDAT ??0?$vector@U_tagLMCItemInfo@@V?$allocator@U_tagLMCItemInfo@@@std@@@std@@QAE@XZ
_TEXT	SEGMENT PARA USE32 PUBLIC 'CODE'
_TEXT	ENDS
;	COMDAT ??1?$vector@U_tagLMCItemInfo@@V?$allocator@U_tagLMCItemInfo@@@std@@@std@@QAE@XZ
_TEXT	SEGMENT PARA USE32 PUBLIC 'CODE'
_TEXT	ENDS
;	COMDAT ?begin@?$vector@U_tagLMCItemInfo@@V?$allocator@U_tagLMCItemInfo@@@std@@@std@@QAE?AViterator@12@XZ
_TEXT	SEGMENT PARA USE32 PUBLIC 'CODE'
_TEXT	ENDS
;	COMDAT ?end@?$vector@U_tagLMCItemInfo@@V?$allocator@U_tagLMCItemInfo@@@std@@@std@@QAE?AViterator@12@XZ
_TEXT	SEGMENT PARA USE32 PUBLIC 'CODE'
_TEXT	ENDS
;	COMDAT ?size@?$vector@U_tagLMCItemInfo@@V?$allocator@U_tagLMCItemInfo@@@std@@@std@@QBEIXZ
_TEXT	SEGMENT PARA USE32 PUBLIC 'CODE'
_TEXT	ENDS
;	COMDAT ??A?$vector@U_tagLMCItemInfo@@V?$allocator@U_tagLMCItemInfo@@@std@@@std@@QAEAAU_tagLMCItemInfo@@I@Z
_TEXT	SEGMENT PARA USE32 PUBLIC 'CODE'
_TEXT	ENDS
;	COMDAT ?push_back@?$vector@U_tagLMCItemInfo@@V?$allocator@U_tagLMCItemInfo@@@std@@@std@@QAEXABU_tagLMCItemInfo@@@Z
_TEXT	SEGMENT PARA USE32 PUBLIC 'CODE'
_TEXT	ENDS
;	COMDAT ?erase@?$vector@U_tagLMCItemInfo@@V?$allocator@U_tagLMCItemInfo@@@std@@@std@@QAE?AViterator@12@V312@0@Z
_TEXT	SEGMENT PARA USE32 PUBLIC 'CODE'
_TEXT	ENDS
;	COMDAT ?clear@?$vector@U_tagLMCItemInfo@@V?$allocator@U_tagLMCItemInfo@@@std@@@std@@QAEXXZ
_TEXT	SEGMENT PARA USE32 PUBLIC 'CODE'
_TEXT	ENDS
;	COMDAT ?capacity@?$vector@U_tagLMCItemInfo@@V?$allocator@U_tagLMCItemInfo@@@std@@@std@@QBEIXZ
_TEXT	SEGMENT PARA USE32 PUBLIC 'CODE'
_TEXT	ENDS
;	COMDAT ?insert@?$vector@U_tagLMCItemInfo@@V?$allocator@U_tagLMCItemInfo@@@std@@@std@@QAE?AViterator@12@V312@ABU_tagLMCItemInfo@@@Z
_TEXT	SEGMENT PARA USE32 PUBLIC 'CODE'
_TEXT	ENDS
;	COMDAT ?_Buy@?$vector@U_tagLMCItemInfo@@V?$allocator@U_tagLMCItemInfo@@@std@@@std@@IAE_NI@Z
_TEXT	SEGMENT PARA USE32 PUBLIC 'CODE'
_TEXT	ENDS
;	COMDAT ?_Destroy@?$vector@U_tagLMCItemInfo@@V?$allocator@U_tagLMCItemInfo@@@std@@@std@@IAEXPAU_tagLMCItemInfo@@0@Z
_TEXT	SEGMENT PARA USE32 PUBLIC 'CODE'
_TEXT	ENDS
;	COMDAT ?_Tidy@?$vector@U_tagLMCItemInfo@@V?$allocator@U_tagLMCItemInfo@@@std@@@std@@IAEXXZ
_TEXT	SEGMENT PARA USE32 PUBLIC 'CODE'
_TEXT	ENDS
;	COMDAT ?_Ufill@?$vector@U_tagLMCItemInfo@@V?$allocator@U_tagLMCItemInfo@@@std@@@std@@IAEPAU_tagLMCItemInfo@@PAU3@IABU3@@Z
_TEXT	SEGMENT PARA USE32 PUBLIC 'CODE'
_TEXT	ENDS
;	COMDAT ??0?$_Vector_val@U_tagLMCItemInfo@@V?$allocator@U_tagLMCItemInfo@@@std@@@std@@IAE@V?$allocator@U_tagLMCItemInfo@@@1@@Z
_TEXT	SEGMENT PARA USE32 PUBLIC 'CODE'
_TEXT	ENDS
;	COMDAT ??0?$allocator@U_tagLMCItemInfo@@@std@@QAE@XZ
_TEXT	SEGMENT PARA USE32 PUBLIC 'CODE'
_TEXT	ENDS
;	COMDAT ??0iterator@?$vector@U_tagLMCItemInfo@@V?$allocator@U_tagLMCItemInfo@@@std@@@std@@QAE@PAU_tagLMCItemInfo@@@Z
_TEXT	SEGMENT PARA USE32 PUBLIC 'CODE'
_TEXT	ENDS
;	COMDAT ??Diterator@?$vector@U_tagLMCItemInfo@@V?$allocator@U_tagLMCItemInfo@@@std@@@std@@QBEAAU_tagLMCItemInfo@@XZ
_TEXT	SEGMENT PARA USE32 PUBLIC 'CODE'
_TEXT	ENDS
;	COMDAT ??Hiterator@?$vector@U_tagLMCItemInfo@@V?$allocator@U_tagLMCItemInfo@@@std@@@std@@QBE?AV012@H@Z
_TEXT	SEGMENT PARA USE32 PUBLIC 'CODE'
_TEXT	ENDS
;	COMDAT ??9const_iterator@?$vector@U_tagLMCItemInfo@@V?$allocator@U_tagLMCItemInfo@@@std@@@std@@QBE_NABV012@@Z
_TEXT	SEGMENT PARA USE32 PUBLIC 'CODE'
_TEXT	ENDS
;	COMDAT ?max_size@?$vector@U_tagLMCItemInfo@@V?$allocator@U_tagLMCItemInfo@@@std@@@std@@QBEIXZ
_TEXT	SEGMENT PARA USE32 PUBLIC 'CODE'
_TEXT	ENDS
;	COMDAT ?_Insert_n@?$vector@U_tagLMCItemInfo@@V?$allocator@U_tagLMCItemInfo@@@std@@@std@@IAEXViterator@12@IABU_tagLMCItemInfo@@@Z
_TEXT	SEGMENT PARA USE32 PUBLIC 'CODE'
_TEXT	ENDS
;	COMDAT ?_Xlen@?$vector@U_tagLMCItemInfo@@V?$allocator@U_tagLMCItemInfo@@@std@@@std@@IBEXXZ
_TEXT	SEGMENT PARA USE32 PUBLIC 'CODE'
_TEXT	ENDS
;	COMDAT ??0?$allocator@U_tagLMCItemInfo@@@std@@QAE@ABV01@@Z
_TEXT	SEGMENT PARA USE32 PUBLIC 'CODE'
_TEXT	ENDS
;	COMDAT ?deallocate@?$allocator@U_tagLMCItemInfo@@@std@@QAEXPAU_tagLMCItemInfo@@I@Z
_TEXT	SEGMENT PARA USE32 PUBLIC 'CODE'
_TEXT	ENDS
;	COMDAT ?allocate@?$allocator@U_tagLMCItemInfo@@@std@@QAEPAU_tagLMCItemInfo@@I@Z
_TEXT	SEGMENT PARA USE32 PUBLIC 'CODE'
_TEXT	ENDS
;	COMDAT ??Yiterator@?$vector@U_tagLMCItemInfo@@V?$allocator@U_tagLMCItemInfo@@@std@@@std@@QAEAAV012@H@Z
_TEXT	SEGMENT PARA USE32 PUBLIC 'CODE'
_TEXT	ENDS
;	COMDAT ??Giterator@?$vector@U_tagLMCItemInfo@@V?$allocator@U_tagLMCItemInfo@@@std@@@std@@QBEHABVconst_iterator@12@@Z
_TEXT	SEGMENT PARA USE32 PUBLIC 'CODE'
_TEXT	ENDS
;	COMDAT ??0const_iterator@?$vector@U_tagLMCItemInfo@@V?$allocator@U_tagLMCItemInfo@@@std@@@std@@QAE@PAU_tagLMCItemInfo@@@Z
_TEXT	SEGMENT PARA USE32 PUBLIC 'CODE'
_TEXT	ENDS
;	COMDAT ??Dconst_iterator@?$vector@U_tagLMCItemInfo@@V?$allocator@U_tagLMCItemInfo@@@std@@@std@@QBEABU_tagLMCItemInfo@@XZ
_TEXT	SEGMENT PARA USE32 PUBLIC 'CODE'
_TEXT	ENDS
;	COMDAT ??8const_iterator@?$vector@U_tagLMCItemInfo@@V?$allocator@U_tagLMCItemInfo@@@std@@@std@@QBE_NABV012@@Z
_TEXT	SEGMENT PARA USE32 PUBLIC 'CODE'
_TEXT	ENDS
;	COMDAT ??0_tagLMCItemInfo@@QAE@ABU0@@Z
_TEXT	SEGMENT PARA USE32 PUBLIC 'CODE'
_TEXT	ENDS
;	COMDAT ??0length_error@std@@QAE@ABV01@@Z
_TEXT	SEGMENT PARA USE32 PUBLIC 'CODE'
_TEXT	ENDS
;	COMDAT ?max_size@?$allocator@U_tagLMCItemInfo@@@std@@QBEIXZ
_TEXT	SEGMENT PARA USE32 PUBLIC 'CODE'
_TEXT	ENDS
;	COMDAT ??Gconst_iterator@?$vector@U_tagLMCItemInfo@@V?$allocator@U_tagLMCItemInfo@@@std@@@std@@QBEHABV012@@Z
_TEXT	SEGMENT PARA USE32 PUBLIC 'CODE'
_TEXT	ENDS
;	COMDAT ?Unlock@?$CComCritSecLock@VCComCriticalSection@ATL@@@ATL@@QAEXXZ
_TEXT	SEGMENT PARA USE32 PUBLIC 'CODE'
_TEXT	ENDS
;	COMDAT ??$remove_if@Viterator@?$vector@U_tagLMCItemInfo@@V?$allocator@U_tagLMCItemInfo@@@std@@@std@@VCLMCDataOper@@@std@@YA?AViterator@?$vector@U_tagLMCItemInfo@@V?$allocator@U_tagLMCItemInfo@@@std@@@0@V120@0VCLMCDataOper@@@Z
_TEXT	SEGMENT PARA USE32 PUBLIC 'CODE'
_TEXT	ENDS
;	COMDAT ??$copy@PAU_tagLMCItemInfo@@PAU1@@std@@YAPAU_tagLMCItemInfo@@PAU1@00@Z
_TEXT	SEGMENT PARA USE32 PUBLIC 'CODE'
_TEXT	ENDS
;	COMDAT ??$_Destroy_range@U_tagLMCItemInfo@@V?$allocator@U_tagLMCItemInfo@@@std@@@std@@YAXPAU_tagLMCItemInfo@@0AAV?$allocator@U_tagLMCItemInfo@@@0@@Z
_TEXT	SEGMENT PARA USE32 PUBLIC 'CODE'
_TEXT	ENDS
;	COMDAT ??$_Uninitialized_fill_n@PAU_tagLMCItemInfo@@IU1@V?$allocator@U_tagLMCItemInfo@@@std@@@std@@YAXPAU_tagLMCItemInfo@@IABU1@AAV?$allocator@U_tagLMCItemInfo@@@0@@Z
_TEXT	SEGMENT PARA USE32 PUBLIC 'CODE'
_TEXT	ENDS
;	COMDAT ??$_Maklocstr@D@std@@YAPADPBDPADABU_Cvtvec@@@Z
_TEXT	SEGMENT PARA USE32 PUBLIC 'CODE'
_TEXT	ENDS
;	COMDAT ??$_Ucopy@PAU_tagLMCItemInfo@@@?$vector@U_tagLMCItemInfo@@V?$allocator@U_tagLMCItemInfo@@@std@@@std@@IAEPAU_tagLMCItemInfo@@PAU2@00@Z
_TEXT	SEGMENT PARA USE32 PUBLIC 'CODE'
_TEXT	ENDS
;	COMDAT ??$fill@PAU_tagLMCItemInfo@@U1@@std@@YAXPAU_tagLMCItemInfo@@0ABU1@@Z
_TEXT	SEGMENT PARA USE32 PUBLIC 'CODE'
_TEXT	ENDS
;	COMDAT ??$copy_backward@PAU_tagLMCItemInfo@@PAU1@@std@@YAPAU_tagLMCItemInfo@@PAU1@00@Z
_TEXT	SEGMENT PARA USE32 PUBLIC 'CODE'
_TEXT	ENDS
;	COMDAT ??$_Allocate@U_tagLMCItemInfo@@@std@@YAPAU_tagLMCItemInfo@@IPAU1@@Z
_TEXT	SEGMENT PARA USE32 PUBLIC 'CODE'
_TEXT	ENDS
;	COMDAT ??4_tagLMCItemInfo@@QAEAAU0@ABU0@@Z
_TEXT	SEGMENT PARA USE32 PUBLIC 'CODE'
_TEXT	ENDS
;	COMDAT ??Eiterator@?$vector@U_tagLMCItemInfo@@V?$allocator@U_tagLMCItemInfo@@@std@@@std@@QAEAAV012@XZ
_TEXT	SEGMENT PARA USE32 PUBLIC 'CODE'
_TEXT	ENDS
;	COMDAT ??$find_if@Viterator@?$vector@U_tagLMCItemInfo@@V?$allocator@U_tagLMCItemInfo@@@std@@@std@@VCLMCDataOper@@@std@@YA?AViterator@?$vector@U_tagLMCItemInfo@@V?$allocator@U_tagLMCItemInfo@@@std@@@0@V120@0VCLMCDataOper@@@Z
_TEXT	SEGMENT PARA USE32 PUBLIC 'CODE'
_TEXT	ENDS
;	COMDAT ??$remove_copy_if@Viterator@?$vector@U_tagLMCItemInfo@@V?$allocator@U_tagLMCItemInfo@@@std@@@std@@V123@VCLMCDataOper@@@std@@YA?AViterator@?$vector@U_tagLMCItemInfo@@V?$allocator@U_tagLMCItemInfo@@@std@@@0@V120@00VCLMCDataOper@@@Z
_TEXT	SEGMENT PARA USE32 PUBLIC 'CODE'
_TEXT	ENDS
;	COMDAT ??$_Ptr_cat@PAU_tagLMCItemInfo@@PAU1@@std@@YA?AU_Nonscalar_ptr_iterator_tag@0@AAPAU_tagLMCItemInfo@@0@Z
_TEXT	SEGMENT PARA USE32 PUBLIC 'CODE'
_TEXT	ENDS
;	COMDAT ??$_Copy_opt@PAU_tagLMCItemInfo@@PAU1@@std@@YAPAU_tagLMCItemInfo@@PAU1@00U_Nonscalar_ptr_iterator_tag@0@@Z
_TEXT	SEGMENT PARA USE32 PUBLIC 'CODE'
_TEXT	ENDS
;	COMDAT ??$_Destroy_range@U_tagLMCItemInfo@@V?$allocator@U_tagLMCItemInfo@@@std@@@std@@YAXPAU_tagLMCItemInfo@@0AAV?$allocator@U_tagLMCItemInfo@@@0@U_Nonscalar_ptr_iterator_tag@0@@Z
_TEXT	SEGMENT PARA USE32 PUBLIC 'CODE'
_TEXT	ENDS
;	COMDAT ??$_Uninit_fill_n@PAU_tagLMCItemInfo@@IU1@V?$allocator@U_tagLMCItemInfo@@@std@@@std@@YAXPAU_tagLMCItemInfo@@IABU1@AAV?$allocator@U_tagLMCItemInfo@@@0@U_Nonscalar_ptr_iterator_tag@0@@Z
_TEXT	SEGMENT PARA USE32 PUBLIC 'CODE'
_TEXT	ENDS
;	COMDAT ??$_Uninitialized_copy@PAU_tagLMCItemInfo@@PAU1@V?$allocator@U_tagLMCItemInfo@@@std@@@std@@YAPAU_tagLMCItemInfo@@PAU1@00AAV?$allocator@U_tagLMCItemInfo@@@0@@Z
_TEXT	SEGMENT PARA USE32 PUBLIC 'CODE'
_TEXT	ENDS
;	COMDAT ??$_Copy_backward_opt@PAU_tagLMCItemInfo@@PAU1@@std@@YAPAU_tagLMCItemInfo@@PAU1@00U_Nonscalar_ptr_iterator_tag@0@@Z
_TEXT	SEGMENT PARA USE32 PUBLIC 'CODE'
_TEXT	ENDS
;	COMDAT ?construct@?$allocator@U_tagLMCItemInfo@@@std@@QAEXPAU_tagLMCItemInfo@@ABU3@@Z
_TEXT	SEGMENT PARA USE32 PUBLIC 'CODE'
_TEXT	ENDS
;	COMDAT ?destroy@?$allocator@U_tagLMCItemInfo@@@std@@QAEXPAU_tagLMCItemInfo@@@Z
_TEXT	SEGMENT PARA USE32 PUBLIC 'CODE'
_TEXT	ENDS
;	COMDAT ??Eiterator@?$vector@U_tagLMCItemInfo@@V?$allocator@U_tagLMCItemInfo@@@std@@@std@@QAE?AV012@H@Z
_TEXT	SEGMENT PARA USE32 PUBLIC 'CODE'
_TEXT	ENDS
;	COMDAT ??$_Uninit_copy@PAU_tagLMCItemInfo@@PAU1@V?$allocator@U_tagLMCItemInfo@@@std@@@std@@YAPAU_tagLMCItemInfo@@PAU1@00AAV?$allocator@U_tagLMCItemInfo@@@0@U_Nonscalar_ptr_iterator_tag@0@@Z
_TEXT	SEGMENT PARA USE32 PUBLIC 'CODE'
_TEXT	ENDS
;	COMDAT ??$_Construct@U_tagLMCItemInfo@@U1@@std@@YAXPAU_tagLMCItemInfo@@ABU1@@Z
_TEXT	SEGMENT PARA USE32 PUBLIC 'CODE'
_TEXT	ENDS
;	COMDAT ??$_Destroy@U_tagLMCItemInfo@@@std@@YAXPAU_tagLMCItemInfo@@@Z
_TEXT	SEGMENT PARA USE32 PUBLIC 'CODE'
_TEXT	ENDS
;	COMDAT ??_G_tagLMCItemInfo@@QAEPAXI@Z
_TEXT	SEGMENT PARA USE32 PUBLIC 'CODE'
_TEXT	ENDS
;	COMDAT ??_R3?$numpunct@_W@std@@8
rdata$r	SEGMENT DWORD USE32 PUBLIC 'CONST'
rdata$r	ENDS
;	COMDAT ??_R3?$numpunct@D@std@@8
rdata$r	SEGMENT DWORD USE32 PUBLIC 'CONST'
rdata$r	ENDS
;	COMDAT ??_R2?$numpunct@_W@std@@8
rdata$r	SEGMENT DWORD USE32 PUBLIC 'CONST'
rdata$r	ENDS
;	COMDAT ??_R2?$numpunct@D@std@@8
rdata$r	SEGMENT DWORD USE32 PUBLIC 'CONST'
rdata$r	ENDS
;	COMDAT ??_R1A@?0A@A@?$numpunct@_W@std@@8
rdata$r	SEGMENT DWORD USE32 PUBLIC 'CONST'
rdata$r	ENDS
;	COMDAT ??_R1A@?0A@A@facet@locale@std@@8
rdata$r	SEGMENT DWORD USE32 PUBLIC 'CONST'
rdata$r	ENDS
;	COMDAT ??_R0?AVfacet@locale@std@@@8
_DATA	SEGMENT DWORD USE32 PUBLIC 'DATA'
_DATA	ENDS
;	COMDAT ??_R1A@?0A@A@?$numpunct@D@std@@8
rdata$r	SEGMENT DWORD USE32 PUBLIC 'CONST'
rdata$r	ENDS
;	COMDAT ??_R0?AV?$numpunct@_W@std@@@8
_DATA	SEGMENT DWORD USE32 PUBLIC 'DATA'
_DATA	ENDS
;	COMDAT ??_R0?AV?$numpunct@D@std@@@8
_DATA	SEGMENT DWORD USE32 PUBLIC 'DATA'
_DATA	ENDS
;	COMDAT ??0?$allocator@_W@std@@QAE@XZ
_TEXT	SEGMENT PARA USE32 PUBLIC 'CODE'
_TEXT	ENDS
;	COMDAT ??_G?$numpunct@_W@std@@MAEPAXI@Z
_TEXT	SEGMENT PARA USE32 PUBLIC 'CODE'
_TEXT	ENDS
;	COMDAT ??_R4?$numpunct@_W@std@@6B@
rdata$r	SEGMENT DWORD USE32 PUBLIC 'CONST'
rdata$r	ENDS
;	COMDAT ??_G?$numpunct@D@std@@MAEPAXI@Z
_TEXT	SEGMENT PARA USE32 PUBLIC 'CODE'
_TEXT	ENDS
;	COMDAT ??_R4?$numpunct@D@std@@6B@
rdata$r	SEGMENT DWORD USE32 PUBLIC 'CONST'
rdata$r	ENDS
;	COMDAT ??3@YAXPAX0@Z
_TEXT	SEGMENT PARA USE32 PUBLIC 'CODE'
_TEXT	ENDS
;	COMDAT ??2@YAPAXIPAX@Z
_TEXT	SEGMENT PARA USE32 PUBLIC 'CODE'
_TEXT	ENDS
;	COMDAT ?_Psave@?$_Facetptr@V?$numpunct@_W@std@@@std@@2PBVfacet@locale@2@B
_DATA	SEGMENT DWORD USE32 PUBLIC 'DATA'
_DATA	ENDS
;	COMDAT ?_Psave@?$_Facetptr@V?$numpunct@D@std@@@std@@2PBVfacet@locale@2@B
_DATA	SEGMENT DWORD USE32 PUBLIC 'DATA'
_DATA	ENDS
;	COMDAT ?Unlock@CComCriticalSection@ATL@@QAEJXZ
_TEXT	SEGMENT PARA USE32 PUBLIC 'CODE'
_TEXT	ENDS
;	COMDAT ?_Psave@?$_Facetptr@V?$ctype@_W@std@@@std@@2PBVfacet@locale@2@B
_DATA	SEGMENT DWORD USE32 PUBLIC 'DATA'
_DATA	ENDS
;	COMDAT ?_Psave@?$_Facetptr@V?$ctype@D@std@@@std@@2PBVfacet@locale@2@B
_DATA	SEGMENT DWORD USE32 PUBLIC 'DATA'
_DATA	ENDS
;	COMDAT ??_7length_error@std@@6B@
CONST	SEGMENT DWORD USE32 PUBLIC 'CONST'
CONST	ENDS
;	COMDAT ??_R4length_error@std@@6B@
rdata$r	SEGMENT DWORD USE32 PUBLIC 'CONST'
rdata$r	ENDS
;	COMDAT ??_R3length_error@std@@8
rdata$r	SEGMENT DWORD USE32 PUBLIC 'CONST'
rdata$r	ENDS
;	COMDAT ??_R2length_error@std@@8
rdata$r	SEGMENT DWORD USE32 PUBLIC 'CONST'
rdata$r	ENDS
;	COMDAT ??_R1A@?0A@A@length_error@std@@8
rdata$r	SEGMENT DWORD USE32 PUBLIC 'CONST'
rdata$r	ENDS
;	COMDAT ??_R1A@?0A@A@logic_error@std@@8
rdata$r	SEGMENT DWORD USE32 PUBLIC 'CONST'
rdata$r	ENDS
;	COMDAT ??_R0?AVlogic_error@std@@@8
_DATA	SEGMENT DWORD USE32 PUBLIC 'DATA'
_DATA	ENDS
;	COMDAT ??_R1A@?0A@A@exception@@8
rdata$r	SEGMENT DWORD USE32 PUBLIC 'CONST'
rdata$r	ENDS
;	COMDAT ??_R0?AVexception@@@8
_DATA	SEGMENT DWORD USE32 PUBLIC 'DATA'
_DATA	ENDS
;	COMDAT ??_Glength_error@std@@UAEPAXI@Z
_TEXT	SEGMENT PARA USE32 PUBLIC 'CODE'
_TEXT	ENDS
;	COMDAT ?what@logic_error@std@@UBEPBDXZ
_TEXT	SEGMENT PARA USE32 PUBLIC 'CODE'
_TEXT	ENDS
;	COMDAT ??1logic_error@std@@UAE@XZ
_TEXT	SEGMENT PARA USE32 PUBLIC 'CODE'
_TEXT	ENDS
;	COMDAT ??_7logic_error@std@@6B@
CONST	SEGMENT DWORD USE32 PUBLIC 'CONST'
CONST	ENDS
;	COMDAT ??_R4logic_error@std@@6B@
rdata$r	SEGMENT DWORD USE32 PUBLIC 'CONST'
rdata$r	ENDS
;	COMDAT ??_R3logic_error@std@@8
rdata$r	SEGMENT DWORD USE32 PUBLIC 'CONST'
rdata$r	ENDS
;	COMDAT ??_R2logic_error@std@@8
rdata$r	SEGMENT DWORD USE32 PUBLIC 'CONST'
rdata$r	ENDS
;	COMDAT ??_Glogic_error@std@@UAEPAXI@Z
_TEXT	SEGMENT PARA USE32 PUBLIC 'CODE'
_TEXT	ENDS
;	COMDAT ??0logic_error@std@@QAE@ABV01@@Z
_TEXT	SEGMENT PARA USE32 PUBLIC 'CODE'
_TEXT	ENDS
;	COMDAT ?IsLocked@CStringData@ATL@@QBE_NXZ
_TEXT	SEGMENT PARA USE32 PUBLIC 'CODE'
_TEXT	ENDS
;	COMDAT ?AddRef@CStringData@ATL@@QAEXXZ
_TEXT	SEGMENT PARA USE32 PUBLIC 'CODE'
_TEXT	ENDS
;	COMDAT ?AtlThrow@ATL@@YGXJ@Z
_TEXT	SEGMENT PARA USE32 PUBLIC 'CODE'
_TEXT	ENDS
;	COMDAT ?data@CStringData@ATL@@QAEPAXXZ
_TEXT	SEGMENT PARA USE32 PUBLIC 'CODE'
_TEXT	ENDS
;	COMDAT ?Release@CStringData@ATL@@QAEXXZ
_TEXT	SEGMENT PARA USE32 PUBLIC 'CODE'
_TEXT	ENDS
;	COMDAT ??0?$allocator@D@std@@QAE@ABV01@@Z
_TEXT	SEGMENT PARA USE32 PUBLIC 'CODE'
_TEXT	ENDS
;	COMDAT ?deallocate@?$allocator@D@std@@QAEXPADI@Z
_TEXT	SEGMENT PARA USE32 PUBLIC 'CODE'
_TEXT	ENDS
;	COMDAT ?max_size@?$allocator@D@std@@QBEIXZ
_TEXT	SEGMENT PARA USE32 PUBLIC 'CODE'
_TEXT	ENDS
;	COMDAT ?allocate@?$allocator@D@std@@QAEPADI@Z
_TEXT	SEGMENT PARA USE32 PUBLIC 'CODE'
_TEXT	ENDS
;	COMDAT ??$_Allocate@D@std@@YAPADIPAD@Z
_TEXT	SEGMENT PARA USE32 PUBLIC 'CODE'
_TEXT	ENDS
;	COMDAT __CTA3?AVlength_error@std@@
xdata$x	SEGMENT DWORD USE32 PUBLIC 'CONST'
xdata$x	ENDS
;	COMDAT ??1length_error@std@@UAE@XZ
_TEXT	SEGMENT PARA USE32 PUBLIC 'CODE'
_TEXT	ENDS
;	COMDAT __CT??_R0?AVexception@@@8??0exception@@QAE@ABV0@@Z12
xdata$x	SEGMENT DWORD USE32 PUBLIC 'CONST'
xdata$x	ENDS
;	COMDAT __CT??_R0?AVlogic_error@std@@@8??0logic_error@std@@QAE@ABV01@@Z40
xdata$x	SEGMENT DWORD USE32 PUBLIC 'CONST'
xdata$x	ENDS
;	COMDAT __CT??_R0?AVlength_error@std@@@8??0length_error@std@@QAE@ABV01@@Z40
xdata$x	SEGMENT DWORD USE32 PUBLIC 'CONST'
xdata$x	ENDS
;	COMDAT ??_R0?AVlength_error@std@@@8
_DATA	SEGMENT DWORD USE32 PUBLIC 'DATA'
_DATA	ENDS
;	COMDAT __TI3?AVlength_error@std@@
xdata$x	SEGMENT DWORD USE32 PUBLIC 'CONST'
xdata$x	ENDS
;	COMDAT ??0?$allocator@D@std@@QAE@XZ
_TEXT	SEGMENT PARA USE32 PUBLIC 'CODE'
_TEXT	ENDS
;	COMDAT ??0length_error@std@@QAE@ABV?$basic_string@DU?$char_traits@D@std@@V?$allocator@D@2@@1@@Z
_TEXT	SEGMENT PARA USE32 PUBLIC 'CODE'
_TEXT	ENDS
;	COMDAT ??0logic_error@std@@QAE@ABV?$basic_string@DU?$char_traits@D@std@@V?$allocator@D@2@@1@@Z
_TEXT	SEGMENT PARA USE32 PUBLIC 'CODE'
_TEXT	ENDS
;	COMDAT ??$_Maklocchr@_W@std@@YA_WDPA_WABU_Cvtvec@@@Z
_TEXT	SEGMENT PARA USE32 PUBLIC 'CODE'
_TEXT	ENDS
;	COMDAT ??$_Maklocstr@_W@std@@YAPA_WPBDPA_WABU_Cvtvec@@@Z
_TEXT	SEGMENT PARA USE32 PUBLIC 'CODE'
_TEXT	ENDS
;	COMDAT ??$_Maklocchr@D@std@@YADDPADABU_Cvtvec@@@Z
_TEXT	SEGMENT PARA USE32 PUBLIC 'CODE'
_TEXT	ENDS
;	COMDAT ??_C@_04LOAJBDKD@true?$AA@
CONST	SEGMENT DWORD USE32 PUBLIC 'CONST'
CONST	ENDS
;	COMDAT ??_C@_05LAPONLG@false?$AA@
CONST	SEGMENT DWORD USE32 PUBLIC 'CONST'
CONST	ENDS
;	COMDAT _wmemcpy
_TEXT	SEGMENT PARA USE32 PUBLIC 'CODE'
_TEXT	ENDS
;	COMDAT ?max_size@?$allocator@_W@std@@QBEIXZ
_TEXT	SEGMENT PARA USE32 PUBLIC 'CODE'
_TEXT	ENDS
;	COMDAT ?allocate@?$allocator@_W@std@@QAEPA_WI@Z
_TEXT	SEGMENT PARA USE32 PUBLIC 'CODE'
_TEXT	ENDS
;	COMDAT ??$_Allocate@_W@std@@YAPA_WIPA_W@Z
_TEXT	SEGMENT PARA USE32 PUBLIC 'CODE'
_TEXT	ENDS
;	COMDAT ??_C@_01GFHCPBMG@C?$AA@
CONST	SEGMENT DWORD USE32 PUBLIC 'CONST'
CONST	ENDS
;	COMDAT ?_Peek@?$istreambuf_iterator@_WU?$char_traits@_W@std@@@std@@AAE_WXZ
_TEXT	SEGMENT PARA USE32 PUBLIC 'CODE'
_TEXT	ENDS
;	COMDAT ?_Peek@?$istreambuf_iterator@DU?$char_traits@D@std@@@std@@AAEDXZ
_TEXT	SEGMENT PARA USE32 PUBLIC 'CODE'
_TEXT	ENDS
;	COMDAT ??$use_facet@V?$ctype@_W@std@@@std@@YAABV?$ctype@_W@0@ABVlocale@0@@Z
_TEXT	SEGMENT PARA USE32 PUBLIC 'CODE'
_TEXT	ENDS
;	COMDAT ??_S?$ctype@_W@std@@6B@
CONST	SEGMENT DWORD USE32 PUBLIC 'CONST'
CONST	ENDS
;	COMDAT ??_R4?$ctype@_W@std@@6B@
rdata$r	SEGMENT DWORD USE32 PUBLIC 'CONST'
rdata$r	ENDS
;	COMDAT ??_R0?AV?$ctype@_W@std@@@8
_DATA	SEGMENT DWORD USE32 PUBLIC 'DATA'
_DATA	ENDS
;	COMDAT ??_R3?$ctype@_W@std@@8
rdata$r	SEGMENT DWORD USE32 PUBLIC 'CONST'
rdata$r	ENDS
;	COMDAT ??_R2?$ctype@_W@std@@8
rdata$r	SEGMENT DWORD USE32 PUBLIC 'CONST'
rdata$r	ENDS
;	COMDAT ??_R1A@?0A@A@?$ctype@_W@std@@8
rdata$r	SEGMENT DWORD USE32 PUBLIC 'CONST'
rdata$r	ENDS
;	COMDAT ??_R1A@?0A@A@ctype_base@std@@8
rdata$r	SEGMENT DWORD USE32 PUBLIC 'CONST'
rdata$r	ENDS
;	COMDAT ??_R0?AUctype_base@std@@@8
_DATA	SEGMENT DWORD USE32 PUBLIC 'DATA'
_DATA	ENDS
;	COMDAT ??_G?$ctype@_W@std@@MAEPAXI@Z
_TEXT	SEGMENT PARA USE32 PUBLIC 'CODE'
_TEXT	ENDS
;	COMDAT ??_C@_08EPJLHIJG@bad?5cast?$AA@
CONST	SEGMENT DWORD USE32 PUBLIC 'CONST'
CONST	ENDS
;	COMDAT __TI2?AVbad_cast@@
xdata$x	SEGMENT DWORD USE32 PUBLIC 'CONST'
xdata$x	ENDS
;	COMDAT __CTA2?AVbad_cast@@
xdata$x	SEGMENT DWORD USE32 PUBLIC 'CONST'
xdata$x	ENDS
;	COMDAT __CT??_R0?AVbad_cast@@@8??0bad_cast@@QAE@ABV0@@Z12
xdata$x	SEGMENT DWORD USE32 PUBLIC 'CONST'
xdata$x	ENDS
;	COMDAT ??_R0?AVbad_cast@@@8
_DATA	SEGMENT DWORD USE32 PUBLIC 'DATA'
_DATA	ENDS
;	COMDAT ??$use_facet@V?$ctype@D@std@@@std@@YAABV?$ctype@D@0@ABVlocale@0@@Z
_TEXT	SEGMENT PARA USE32 PUBLIC 'CODE'
_TEXT	ENDS
;	COMDAT ??_S?$ctype@D@std@@6B@
CONST	SEGMENT DWORD USE32 PUBLIC 'CONST'
CONST	ENDS
;	COMDAT ??_R4?$ctype@D@std@@6B@
rdata$r	SEGMENT DWORD USE32 PUBLIC 'CONST'
rdata$r	ENDS
;	COMDAT ??_R0?AV?$ctype@D@std@@@8
_DATA	SEGMENT DWORD USE32 PUBLIC 'DATA'
_DATA	ENDS
;	COMDAT ??_R3?$ctype@D@std@@8
rdata$r	SEGMENT DWORD USE32 PUBLIC 'CONST'
rdata$r	ENDS
;	COMDAT ??_R2?$ctype@D@std@@8
rdata$r	SEGMENT DWORD USE32 PUBLIC 'CONST'
rdata$r	ENDS
;	COMDAT ??_R1A@?0A@A@?$ctype@D@std@@8
rdata$r	SEGMENT DWORD USE32 PUBLIC 'CONST'
rdata$r	ENDS
;	COMDAT ??_G?$ctype@D@std@@MAEPAXI@Z
_TEXT	SEGMENT PARA USE32 PUBLIC 'CODE'
_TEXT	ENDS
;	COMDAT ??_S?$numpunct@_W@std@@6B@
CONST	SEGMENT DWORD USE32 PUBLIC 'CONST'
CONST	ENDS
;	COMDAT ??_S?$numpunct@D@std@@6B@
CONST	SEGMENT DWORD USE32 PUBLIC 'CONST'
CONST	ENDS
;	COMDAT _wmemmove
_TEXT	SEGMENT PARA USE32 PUBLIC 'CODE'
_TEXT	ENDS
;	COMDAT ?deallocate@?$allocator@_W@std@@QAEXPA_WI@Z
_TEXT	SEGMENT PARA USE32 PUBLIC 'CODE'
_TEXT	ENDS
;	COMDAT ??0?$allocator@_W@std@@QAE@ABV01@@Z
_TEXT	SEGMENT PARA USE32 PUBLIC 'CODE'
_TEXT	ENDS
;	COMDAT ?IsShared@CStringData@ATL@@QBE_NXZ
_TEXT	SEGMENT PARA USE32 PUBLIC 'CODE'
_TEXT	ENDS
;	COMDAT ??0CRect@@QAE@XZ
_TEXT	SEGMENT PARA USE32 PUBLIC 'CODE'
_TEXT	ENDS
;	COMDAT ?GetDefaultManager@?$StrTraitMFC_DLL@DV?$ChTraitsCRT@D@ATL@@@@SAPAUIAtlStringMgr@ATL@@XZ
_TEXT	SEGMENT PARA USE32 PUBLIC 'CODE'
_TEXT	ENDS
sxdata	SEGMENT DWORD USE32 'SXDATA'
sxdata	ENDS
FLAT	GROUP _DATA, CONST, _BSS
	ASSUME	CS: FLAT, DS: FLAT, SS: FLAT
endif

INCLUDELIB MSVCRT
INCLUDELIB OLDNAMES

PUBLIC	??0CLMCDataMgr@@QAE@XZ				; CLMCDataMgr::CLMCDataMgr
PUBLIC	??0?$vector@U_tagLMCItemInfo@@V?$allocator@U_tagLMCItemInfo@@@std@@@std@@QAE@XZ ; std::vector<_tagLMCItemInfo,std::allocator<_tagLMCItemInfo> >::vector<_tagLMCItemInfo,std::allocator<_tagLMCItemInfo> >
; Function compile flags: /Odt
; File d:\boxgit\playbox\playbox\dev\prj\playbox\src\module\playedgamepanel\lmcdatamgr.cpp
_TEXT	SEGMENT
_this$ = -4						; size = 4
??0CLMCDataMgr@@QAE@XZ PROC NEAR			; CLMCDataMgr::CLMCDataMgr
; _this$ = ecx

; 6    : {

  00000	55		 push	 ebp
  00001	8b ec		 mov	 ebp, esp
  00003	51		 push	 ecx
  00004	89 4d fc	 mov	 DWORD PTR _this$[ebp], ecx
  00007	8b 4d fc	 mov	 ecx, DWORD PTR _this$[ebp]
  0000a	e8 00 00 00 00	 call	 ??0?$vector@U_tagLMCItemInfo@@V?$allocator@U_tagLMCItemInfo@@@std@@@std@@QAE@XZ ; std::vector<_tagLMCItemInfo,std::allocator<_tagLMCItemInfo> >::vector<_tagLMCItemInfo,std::allocator<_tagLMCItemInfo> >

; 7    : 
; 8    : }

  0000f	8b 45 fc	 mov	 eax, DWORD PTR _this$[ebp]
  00012	8b e5		 mov	 esp, ebp
  00014	5d		 pop	 ebp
  00015	c3		 ret	 0
??0CLMCDataMgr@@QAE@XZ ENDP				; CLMCDataMgr::CLMCDataMgr
_TEXT	ENDS
PUBLIC	??1CLMCDataMgr@@QAE@XZ				; CLMCDataMgr::~CLMCDataMgr
PUBLIC	??1?$vector@U_tagLMCItemInfo@@V?$allocator@U_tagLMCItemInfo@@@std@@@std@@QAE@XZ ; std::vector<_tagLMCItemInfo,std::allocator<_tagLMCItemInfo> >::~vector<_tagLMCItemInfo,std::allocator<_tagLMCItemInfo> >
; Function compile flags: /Odt
_TEXT	SEGMENT
_this$ = -4						; size = 4
??1CLMCDataMgr@@QAE@XZ PROC NEAR			; CLMCDataMgr::~CLMCDataMgr
; _this$ = ecx

; 11   : {

  00020	55		 push	 ebp
  00021	8b ec		 mov	 ebp, esp
  00023	51		 push	 ecx
  00024	89 4d fc	 mov	 DWORD PTR _this$[ebp], ecx

; 12   : 
; 13   : }

  00027	8b 4d fc	 mov	 ecx, DWORD PTR _this$[ebp]
  0002a	e8 00 00 00 00	 call	 ??1?$vector@U_tagLMCItemInfo@@V?$allocator@U_tagLMCItemInfo@@@std@@@std@@QAE@XZ ; std::vector<_tagLMCItemInfo,std::allocator<_tagLMCItemInfo> >::~vector<_tagLMCItemInfo,std::allocator<_tagLMCItemInfo> >
  0002f	8b e5		 mov	 esp, ebp
  00031	5d		 pop	 ebp
  00032	c3		 ret	 0
??1CLMCDataMgr@@QAE@XZ ENDP				; CLMCDataMgr::~CLMCDataMgr
_TEXT	ENDS
PUBLIC	?InsertItem@CLMCDataMgr@@QAEHPAVCDibBitmap@@V?$CStringT@DV?$StrTraitMFC_DLL@DV?$ChTraitsCRT@D@ATL@@@@@ATL@@1V?$basic_string@DU?$char_traits@D@std@@V?$allocator@D@2@@std@@H@Z ; CLMCDataMgr::InsertItem
PUBLIC	??0_tagLMCItemInfo@@QAE@XZ			; _tagLMCItemInfo::_tagLMCItemInfo
PUBLIC	??1_tagLMCItemInfo@@QAE@XZ			; _tagLMCItemInfo::~_tagLMCItemInfo
PUBLIC	?size@?$vector@U_tagLMCItemInfo@@V?$allocator@U_tagLMCItemInfo@@@std@@@std@@QBEIXZ ; std::vector<_tagLMCItemInfo,std::allocator<_tagLMCItemInfo> >::size
PUBLIC	?push_back@?$vector@U_tagLMCItemInfo@@V?$allocator@U_tagLMCItemInfo@@@std@@@std@@QAEXABU_tagLMCItemInfo@@@Z ; std::vector<_tagLMCItemInfo,std::allocator<_tagLMCItemInfo> >::push_back
EXTRN	__except_list:DWORD
EXTRN	___security_cookie:DWORD
EXTRN	@__security_check_cookie@4:NEAR
EXTRN	___CxxFrameHandler:NEAR
EXTRN	__imp_??1?$CStringT@DV?$StrTraitMFC_DLL@DV?$ChTraitsCRT@D@ATL@@@@@ATL@@QAE@XZ:NEAR
EXTRN	__imp_??4?$CStringT@DV?$StrTraitMFC_DLL@DV?$ChTraitsCRT@D@ATL@@@@@ATL@@QAEAAV01@ABV01@@Z:NEAR
EXTRN	__imp_??1?$basic_string@DU?$char_traits@D@std@@V?$allocator@D@2@@std@@QAE@XZ:NEAR
EXTRN	__imp_??4?$basic_string@DU?$char_traits@D@std@@V?$allocator@D@2@@std@@QAEAAV01@ABV01@@Z:NEAR
xdata$x	SEGMENT
$T199854 DD	0ffffffffH
	DD	FLAT:$L199841
	DD	00H
	DD	FLAT:$L199842
	DD	01H
	DD	FLAT:$L199843
	DD	02H
	DD	FLAT:$L199844
$T199848 DD	019930520H
	DD	04H
	DD	FLAT:$T199854
	DD	2 DUP(00H)
	DD	2 DUP(00H)
; Function compile flags: /Odt
xdata$x	ENDS
_TEXT	SEGMENT
_this$ = -100						; size = 4
$T199840 = -96						; size = 4
_lmci$ = -92						; size = 68
__$ArrayPad$ = -16					; size = 4
__$EHRec$ = -12						; size = 12
__$ReturnAddr$ = 4					; size = 4
_pImg$ = 8						; size = 4
_strItemName$ = 12					; size = 4
_strdetail$ = 16					; size = 4
_strGID$ = 20						; size = 28
_blSel$ = 48						; size = 4
?InsertItem@CLMCDataMgr@@QAEHPAVCDibBitmap@@V?$CStringT@DV?$StrTraitMFC_DLL@DV?$ChTraitsCRT@D@ATL@@@@@ATL@@1V?$basic_string@DU?$char_traits@D@std@@V?$allocator@D@2@@std@@H@Z PROC NEAR ; CLMCDataMgr::InsertItem
; _this$ = ecx

; 16   : {

  00040	55		 push	 ebp
  00041	8b ec		 mov	 ebp, esp
  00043	6a ff		 push	 -1
  00045	68 00 00 00 00	 push	 __ehhandler$?InsertItem@CLMCDataMgr@@QAEHPAVCDibBitmap@@V?$CStringT@DV?$StrTraitMFC_DLL@DV?$ChTraitsCRT@D@ATL@@@@@ATL@@1V?$basic_string@DU?$char_traits@D@std@@V?$allocator@D@2@@std@@H@Z
  0004a	64 a1 00 00 00
	00		 mov	 eax, DWORD PTR fs:__except_list
  00050	50		 push	 eax
  00051	64 89 25 00 00
	00 00		 mov	 DWORD PTR fs:__except_list, esp
  00058	83 ec 58	 sub	 esp, 88			; 00000058H
  0005b	a1 00 00 00 00	 mov	 eax, DWORD PTR ___security_cookie
  00060	89 45 f0	 mov	 DWORD PTR __$ArrayPad$[ebp], eax
  00063	89 4d 9c	 mov	 DWORD PTR _this$[ebp], ecx
  00066	c7 45 fc 02 00
	00 00		 mov	 DWORD PTR __$EHRec$[ebp+8], 2

; 17   : 	LMC_ItemInfo lmci;

  0006d	8d 4d a4	 lea	 ecx, DWORD PTR _lmci$[ebp]
  00070	e8 00 00 00 00	 call	 ??0_tagLMCItemInfo@@QAE@XZ
  00075	c6 45 fc 03	 mov	 BYTE PTR __$EHRec$[ebp+8], 3

; 18   : 	lmci.strGID = strGID;

  00079	8d 45 14	 lea	 eax, DWORD PTR _strGID$[ebp]
  0007c	50		 push	 eax
  0007d	8d 4d a4	 lea	 ecx, DWORD PTR _lmci$[ebp]
  00080	ff 15 00 00 00
	00		 call	 DWORD PTR __imp_??4?$basic_string@DU?$char_traits@D@std@@V?$allocator@D@2@@std@@QAEAAV01@ABV01@@Z

; 19   : 	lmci.iIndex = m_vItem.size();

  00086	8b 4d 9c	 mov	 ecx, DWORD PTR _this$[ebp]
  00089	e8 00 00 00 00	 call	 ?size@?$vector@U_tagLMCItemInfo@@V?$allocator@U_tagLMCItemInfo@@@std@@@std@@QBEIXZ ; std::vector<_tagLMCItemInfo,std::allocator<_tagLMCItemInfo> >::size
  0008e	89 45 c0	 mov	 DWORD PTR _lmci$[ebp+28], eax

; 20   : 	lmci.blSel = blSel;

  00091	8b 4d 30	 mov	 ecx, DWORD PTR _blSel$[ebp]
  00094	89 4d c4	 mov	 DWORD PTR _lmci$[ebp+32], ecx

; 21   : 	lmci.pImg = pImg;

  00097	8b 55 08	 mov	 edx, DWORD PTR _pImg$[ebp]
  0009a	89 55 c8	 mov	 DWORD PTR _lmci$[ebp+36], edx

; 22   : 	lmci.strItemName = strItemName;

  0009d	8d 45 0c	 lea	 eax, DWORD PTR _strItemName$[ebp]
  000a0	50		 push	 eax
  000a1	8d 4d cc	 lea	 ecx, DWORD PTR _lmci$[ebp+40]
  000a4	ff 15 00 00 00
	00		 call	 DWORD PTR __imp_??4?$CStringT@DV?$StrTraitMFC_DLL@DV?$ChTraitsCRT@D@ATL@@@@@ATL@@QAEAAV01@ABV01@@Z

; 23   : 	lmci.strItemdDetailinfo = strdetail;

  000aa	8d 4d 10	 lea	 ecx, DWORD PTR _strdetail$[ebp]
  000ad	51		 push	 ecx
  000ae	8d 4d d0	 lea	 ecx, DWORD PTR _lmci$[ebp+44]
  000b1	ff 15 00 00 00
	00		 call	 DWORD PTR __imp_??4?$CStringT@DV?$StrTraitMFC_DLL@DV?$ChTraitsCRT@D@ATL@@@@@ATL@@QAEAAV01@ABV01@@Z

; 24   : 	m_vItem.push_back(lmci);

  000b7	8d 55 a4	 lea	 edx, DWORD PTR _lmci$[ebp]
  000ba	52		 push	 edx
  000bb	8b 4d 9c	 mov	 ecx, DWORD PTR _this$[ebp]
  000be	e8 00 00 00 00	 call	 ?push_back@?$vector@U_tagLMCItemInfo@@V?$allocator@U_tagLMCItemInfo@@@std@@@std@@QAEXABU_tagLMCItemInfo@@@Z ; std::vector<_tagLMCItemInfo,std::allocator<_tagLMCItemInfo> >::push_back

; 25   : 	return lmci.iIndex;

  000c3	8b 45 c0	 mov	 eax, DWORD PTR _lmci$[ebp+28]
  000c6	89 45 a0	 mov	 DWORD PTR $T199840[ebp], eax
  000c9	c6 45 fc 02	 mov	 BYTE PTR __$EHRec$[ebp+8], 2
  000cd	8d 4d a4	 lea	 ecx, DWORD PTR _lmci$[ebp]
  000d0	e8 00 00 00 00	 call	 ??1_tagLMCItemInfo@@QAE@XZ
  000d5	c6 45 fc 01	 mov	 BYTE PTR __$EHRec$[ebp+8], 1
  000d9	8d 4d 0c	 lea	 ecx, DWORD PTR _strItemName$[ebp]
  000dc	ff 15 00 00 00
	00		 call	 DWORD PTR __imp_??1?$CStringT@DV?$StrTraitMFC_DLL@DV?$ChTraitsCRT@D@ATL@@@@@ATL@@QAE@XZ
  000e2	c6 45 fc 00	 mov	 BYTE PTR __$EHRec$[ebp+8], 0
  000e6	8d 4d 10	 lea	 ecx, DWORD PTR _strdetail$[ebp]
  000e9	ff 15 00 00 00
	00		 call	 DWORD PTR __imp_??1?$CStringT@DV?$StrTraitMFC_DLL@DV?$ChTraitsCRT@D@ATL@@@@@ATL@@QAE@XZ
  000ef	c7 45 fc ff ff
	ff ff		 mov	 DWORD PTR __$EHRec$[ebp+8], -1
  000f6	8d 4d 14	 lea	 ecx, DWORD PTR _strGID$[ebp]
  000f9	ff 15 00 00 00
	00		 call	 DWORD PTR __imp_??1?$basic_string@DU?$char_traits@D@std@@V?$allocator@D@2@@std@@QAE@XZ
  000ff	8b 45 a0	 mov	 eax, DWORD PTR $T199840[ebp]

; 26   : }

  00102	8b 4d f4	 mov	 ecx, DWORD PTR __$EHRec$[ebp]
  00105	64 89 0d 00 00
	00 00		 mov	 DWORD PTR fs:__except_list, ecx
  0010c	8b 4d f0	 mov	 ecx, DWORD PTR __$ArrayPad$[ebp]
  0010f	e8 00 00 00 00	 call	 @__security_check_cookie@4
  00114	8b e5		 mov	 esp, ebp
  00116	5d		 pop	 ebp
  00117	c2 2c 00	 ret	 44			; 0000002cH
_TEXT	ENDS
text$x	SEGMENT
$L199841:
  00000	8d 4d 14	 lea	 ecx, DWORD PTR _strGID$[ebp]
  00003	ff 25 00 00 00
	00		 jmp	 DWORD PTR __imp_??1?$basic_string@DU?$char_traits@D@std@@V?$allocator@D@2@@std@@QAE@XZ
$L199842:
  00009	8d 4d 10	 lea	 ecx, DWORD PTR _strdetail$[ebp]
  0000c	ff 25 00 00 00
	00		 jmp	 DWORD PTR __imp_??1?$CStringT@DV?$StrTraitMFC_DLL@DV?$ChTraitsCRT@D@ATL@@@@@ATL@@QAE@XZ
$L199843:
  00012	8d 4d 0c	 lea	 ecx, DWORD PTR _strItemName$[ebp]
  00015	ff 25 00 00 00
	00		 jmp	 DWORD PTR __imp_??1?$CStringT@DV?$StrTraitMFC_DLL@DV?$ChTraitsCRT@D@ATL@@@@@ATL@@QAE@XZ
$L199844:
  0001b	8d 4d a4	 lea	 ecx, DWORD PTR _lmci$[ebp]
  0001e	e9 00 00 00 00	 jmp	 ??1_tagLMCItemInfo@@QAE@XZ
__ehhandler$?InsertItem@CLMCDataMgr@@QAEHPAVCDibBitmap@@V?$CStringT@DV?$StrTraitMFC_DLL@DV?$ChTraitsCRT@D@ATL@@@@@ATL@@1V?$basic_string@DU?$char_traits@D@std@@V?$allocator@D@2@@std@@H@Z:
  00023	b8 00 00 00 00	 mov	 eax, OFFSET FLAT:$T199848
  00028	e9 00 00 00 00	 jmp	 ___CxxFrameHandler
text$x	ENDS
?InsertItem@CLMCDataMgr@@QAEHPAVCDibBitmap@@V?$CStringT@DV?$StrTraitMFC_DLL@DV?$ChTraitsCRT@D@ATL@@@@@ATL@@1V?$basic_string@DU?$char_traits@D@std@@V?$allocator@D@2@@std@@H@Z ENDP ; CLMCDataMgr::InsertItem
; Function compile flags: /Odt
;	COMDAT ??1_tagLMCItemInfo@@QAE@XZ
_TEXT	SEGMENT
_this$ = -4						; size = 4
??1_tagLMCItemInfo@@QAE@XZ PROC NEAR			; _tagLMCItemInfo::~_tagLMCItemInfo, COMDAT
; _this$ = ecx
  00000	55		 push	 ebp
  00001	8b ec		 mov	 ebp, esp
  00003	51		 push	 ecx
  00004	89 4d fc	 mov	 DWORD PTR _this$[ebp], ecx
  00007	8b 4d fc	 mov	 ecx, DWORD PTR _this$[ebp]
  0000a	83 c1 30	 add	 ecx, 48			; 00000030H
  0000d	ff 15 00 00 00
	00		 call	 DWORD PTR __imp_??1?$CStringT@DV?$StrTraitMFC_DLL@DV?$ChTraitsCRT@D@ATL@@@@@ATL@@QAE@XZ
  00013	8b 4d fc	 mov	 ecx, DWORD PTR _this$[ebp]
  00016	83 c1 2c	 add	 ecx, 44			; 0000002cH
  00019	ff 15 00 00 00
	00		 call	 DWORD PTR __imp_??1?$CStringT@DV?$StrTraitMFC_DLL@DV?$ChTraitsCRT@D@ATL@@@@@ATL@@QAE@XZ
  0001f	8b 4d fc	 mov	 ecx, DWORD PTR _this$[ebp]
  00022	83 c1 28	 add	 ecx, 40			; 00000028H
  00025	ff 15 00 00 00
	00		 call	 DWORD PTR __imp_??1?$CStringT@DV?$StrTraitMFC_DLL@DV?$ChTraitsCRT@D@ATL@@@@@ATL@@QAE@XZ
  0002b	8b 4d fc	 mov	 ecx, DWORD PTR _this$[ebp]
  0002e	ff 15 00 00 00
	00		 call	 DWORD PTR __imp_??1?$basic_string@DU?$char_traits@D@std@@V?$allocator@D@2@@std@@QAE@XZ
  00034	8b e5		 mov	 esp, ebp
  00036	5d		 pop	 ebp
  00037	c3		 ret	 0
??1_tagLMCItemInfo@@QAE@XZ ENDP				; _tagLMCItemInfo::~_tagLMCItemInfo
_TEXT	ENDS
PUBLIC	??0CRect@@QAE@XZ				; CRect::CRect
EXTRN	__imp_??0?$CStringT@DV?$StrTraitMFC_DLL@DV?$ChTraitsCRT@D@ATL@@@@@ATL@@QAE@XZ:NEAR
EXTRN	__imp_??0?$basic_string@DU?$char_traits@D@std@@V?$allocator@D@2@@std@@QAE@XZ:NEAR
; Function compile flags: /Odt
;	COMDAT ??0_tagLMCItemInfo@@QAE@XZ
_TEXT	SEGMENT
_this$ = -4						; size = 4
??0_tagLMCItemInfo@@QAE@XZ PROC NEAR			; _tagLMCItemInfo::_tagLMCItemInfo, COMDAT
; _this$ = ecx
  00000	55		 push	 ebp
  00001	8b ec		 mov	 ebp, esp
  00003	51		 push	 ecx
  00004	89 4d fc	 mov	 DWORD PTR _this$[ebp], ecx
  00007	8b 4d fc	 mov	 ecx, DWORD PTR _this$[ebp]
  0000a	ff 15 00 00 00
	00		 call	 DWORD PTR __imp_??0?$basic_string@DU?$char_traits@D@std@@V?$allocator@D@2@@std@@QAE@XZ
  00010	8b 4d fc	 mov	 ecx, DWORD PTR _this$[ebp]
  00013	83 c1 28	 add	 ecx, 40			; 00000028H
  00016	ff 15 00 00 00
	00		 call	 DWORD PTR __imp_??0?$CStringT@DV?$StrTraitMFC_DLL@DV?$ChTraitsCRT@D@ATL@@@@@ATL@@QAE@XZ
  0001c	8b 4d fc	 mov	 ecx, DWORD PTR _this$[ebp]
  0001f	83 c1 2c	 add	 ecx, 44			; 0000002cH
  00022	ff 15 00 00 00
	00		 call	 DWORD PTR __imp_??0?$CStringT@DV?$StrTraitMFC_DLL@DV?$ChTraitsCRT@D@ATL@@@@@ATL@@QAE@XZ
  00028	8b 4d fc	 mov	 ecx, DWORD PTR _this$[ebp]
  0002b	83 c1 30	 add	 ecx, 48			; 00000030H
  0002e	ff 15 00 00 00
	00		 call	 DWORD PTR __imp_??0?$CStringT@DV?$StrTraitMFC_DLL@DV?$ChTraitsCRT@D@ATL@@@@@ATL@@QAE@XZ
  00034	8b 4d fc	 mov	 ecx, DWORD PTR _this$[ebp]
  00037	83 c1 34	 add	 ecx, 52			; 00000034H
  0003a	e8 00 00 00 00	 call	 ??0CRect@@QAE@XZ	; CRect::CRect
  0003f	8b 45 fc	 mov	 eax, DWORD PTR _this$[ebp]
  00042	8b e5		 mov	 esp, ebp
  00044	5d		 pop	 ebp
  00045	c3		 ret	 0
??0_tagLMCItemInfo@@QAE@XZ ENDP				; _tagLMCItemInfo::_tagLMCItemInfo
_TEXT	ENDS
PUBLIC	?InsertItem@CLMCDataMgr@@QAEHV?$CStringT@DV?$StrTraitMFC_DLL@DV?$ChTraitsCRT@D@ATL@@@@@ATL@@00V?$basic_string@DU?$char_traits@D@std@@V?$allocator@D@2@@std@@H@Z ; CLMCDataMgr::InsertItem
EXTRN	__imp_?GetBuffer@?$CSimpleStringT@D$00@ATL@@QAEPADXZ:NEAR
EXTRN	__imp_??4?$CStringT@DV?$StrTraitMFC_DLL@DV?$ChTraitsCRT@D@ATL@@@@@ATL@@QAEAAV01@PBD@Z:NEAR
xdata$x	SEGMENT
$T199880 DD	0ffffffffH
	DD	FLAT:$L199871
	DD	00H
	DD	FLAT:$L199872
	DD	01H
	DD	FLAT:$L199873
	DD	02H
	DD	FLAT:$L199874
	DD	03H
	DD	FLAT:$L199875
$T199877 DD	019930520H
	DD	05H
	DD	FLAT:$T199880
	DD	2 DUP(00H)
	DD	2 DUP(00H)
; Function compile flags: /Odt
xdata$x	ENDS
_TEXT	SEGMENT
_this$ = -100						; size = 4
$T199870 = -96						; size = 4
_lmci$ = -92						; size = 68
__$ArrayPad$ = -16					; size = 4
__$EHRec$ = -12						; size = 12
__$ReturnAddr$ = 4					; size = 4
_strImgPath$ = 8					; size = 4
_strItemName$ = 12					; size = 4
_strdetail$ = 16					; size = 4
_strGID$ = 20						; size = 28
_blSel$ = 48						; size = 4
?InsertItem@CLMCDataMgr@@QAEHV?$CStringT@DV?$StrTraitMFC_DLL@DV?$ChTraitsCRT@D@ATL@@@@@ATL@@00V?$basic_string@DU?$char_traits@D@std@@V?$allocator@D@2@@std@@H@Z PROC NEAR ; CLMCDataMgr::InsertItem
; _this$ = ecx

; 29   : {

  00120	55		 push	 ebp
  00121	8b ec		 mov	 ebp, esp
  00123	6a ff		 push	 -1
  00125	68 00 00 00 00	 push	 __ehhandler$?InsertItem@CLMCDataMgr@@QAEHV?$CStringT@DV?$StrTraitMFC_DLL@DV?$ChTraitsCRT@D@ATL@@@@@ATL@@00V?$basic_string@DU?$char_traits@D@std@@V?$allocator@D@2@@std@@H@Z
  0012a	64 a1 00 00 00
	00		 mov	 eax, DWORD PTR fs:__except_list
  00130	50		 push	 eax
  00131	64 89 25 00 00
	00 00		 mov	 DWORD PTR fs:__except_list, esp
  00138	83 ec 58	 sub	 esp, 88			; 00000058H
  0013b	a1 00 00 00 00	 mov	 eax, DWORD PTR ___security_cookie
  00140	89 45 f0	 mov	 DWORD PTR __$ArrayPad$[ebp], eax
  00143	89 4d 9c	 mov	 DWORD PTR _this$[ebp], ecx
  00146	c7 45 fc 03 00
	00 00		 mov	 DWORD PTR __$EHRec$[ebp+8], 3

; 30   : 	LMC_ItemInfo lmci;

  0014d	8d 4d a4	 lea	 ecx, DWORD PTR _lmci$[ebp]
  00150	e8 00 00 00 00	 call	 ??0_tagLMCItemInfo@@QAE@XZ
  00155	c6 45 fc 04	 mov	 BYTE PTR __$EHRec$[ebp+8], 4

; 31   : 	lmci.strGID = strGID;

  00159	8d 45 14	 lea	 eax, DWORD PTR _strGID$[ebp]
  0015c	50		 push	 eax
  0015d	8d 4d a4	 lea	 ecx, DWORD PTR _lmci$[ebp]
  00160	ff 15 00 00 00
	00		 call	 DWORD PTR __imp_??4?$basic_string@DU?$char_traits@D@std@@V?$allocator@D@2@@std@@QAEAAV01@ABV01@@Z

; 32   : 	lmci.iIndex = m_vItem.size();

  00166	8b 4d 9c	 mov	 ecx, DWORD PTR _this$[ebp]
  00169	e8 00 00 00 00	 call	 ?size@?$vector@U_tagLMCItemInfo@@V?$allocator@U_tagLMCItemInfo@@@std@@@std@@QBEIXZ ; std::vector<_tagLMCItemInfo,std::allocator<_tagLMCItemInfo> >::size
  0016e	89 45 c0	 mov	 DWORD PTR _lmci$[ebp+28], eax

; 33   : 	lmci.strImgPath = strImgPath.GetBuffer();

  00171	8d 4d 08	 lea	 ecx, DWORD PTR _strImgPath$[ebp]
  00174	ff 15 00 00 00
	00		 call	 DWORD PTR __imp_?GetBuffer@?$CSimpleStringT@D$00@ATL@@QAEPADXZ
  0017a	50		 push	 eax
  0017b	8d 4d d4	 lea	 ecx, DWORD PTR _lmci$[ebp+48]
  0017e	ff 15 00 00 00
	00		 call	 DWORD PTR __imp_??4?$CStringT@DV?$StrTraitMFC_DLL@DV?$ChTraitsCRT@D@ATL@@@@@ATL@@QAEAAV01@PBD@Z

; 34   : 	lmci.strItemName = strItemName;

  00184	8d 4d 0c	 lea	 ecx, DWORD PTR _strItemName$[ebp]
  00187	51		 push	 ecx
  00188	8d 4d cc	 lea	 ecx, DWORD PTR _lmci$[ebp+40]
  0018b	ff 15 00 00 00
	00		 call	 DWORD PTR __imp_??4?$CStringT@DV?$StrTraitMFC_DLL@DV?$ChTraitsCRT@D@ATL@@@@@ATL@@QAEAAV01@ABV01@@Z

; 35   : 	lmci.strItemdDetailinfo = strdetail;

  00191	8d 55 10	 lea	 edx, DWORD PTR _strdetail$[ebp]
  00194	52		 push	 edx
  00195	8d 4d d0	 lea	 ecx, DWORD PTR _lmci$[ebp+44]
  00198	ff 15 00 00 00
	00		 call	 DWORD PTR __imp_??4?$CStringT@DV?$StrTraitMFC_DLL@DV?$ChTraitsCRT@D@ATL@@@@@ATL@@QAEAAV01@ABV01@@Z

; 36   : 	lmci.blSel = blSel;

  0019e	8b 45 30	 mov	 eax, DWORD PTR _blSel$[ebp]
  001a1	89 45 c4	 mov	 DWORD PTR _lmci$[ebp+32], eax

; 37   : 	m_vItem.push_back(lmci);

  001a4	8d 4d a4	 lea	 ecx, DWORD PTR _lmci$[ebp]
  001a7	51		 push	 ecx
  001a8	8b 4d 9c	 mov	 ecx, DWORD PTR _this$[ebp]
  001ab	e8 00 00 00 00	 call	 ?push_back@?$vector@U_tagLMCItemInfo@@V?$allocator@U_tagLMCItemInfo@@@std@@@std@@QAEXABU_tagLMCItemInfo@@@Z ; std::vector<_tagLMCItemInfo,std::allocator<_tagLMCItemInfo> >::push_back

; 38   : 	return lmci.iIndex;

  001b0	8b 55 c0	 mov	 edx, DWORD PTR _lmci$[ebp+28]
  001b3	89 55 a0	 mov	 DWORD PTR $T199870[ebp], edx
  001b6	c6 45 fc 03	 mov	 BYTE PTR __$EHRec$[ebp+8], 3
  001ba	8d 4d a4	 lea	 ecx, DWORD PTR _lmci$[ebp]
  001bd	e8 00 00 00 00	 call	 ??1_tagLMCItemInfo@@QAE@XZ
  001c2	c6 45 fc 02	 mov	 BYTE PTR __$EHRec$[ebp+8], 2
  001c6	8d 4d 08	 lea	 ecx, DWORD PTR _strImgPath$[ebp]
  001c9	ff 15 00 00 00
	00		 call	 DWORD PTR __imp_??1?$CStringT@DV?$StrTraitMFC_DLL@DV?$ChTraitsCRT@D@ATL@@@@@ATL@@QAE@XZ
  001cf	c6 45 fc 01	 mov	 BYTE PTR __$EHRec$[ebp+8], 1
  001d3	8d 4d 0c	 lea	 ecx, DWORD PTR _strItemName$[ebp]
  001d6	ff 15 00 00 00
	00		 call	 DWORD PTR __imp_??1?$CStringT@DV?$StrTraitMFC_DLL@DV?$ChTraitsCRT@D@ATL@@@@@ATL@@QAE@XZ
  001dc	c6 45 fc 00	 mov	 BYTE PTR __$EHRec$[ebp+8], 0
  001e0	8d 4d 10	 lea	 ecx, DWORD PTR _strdetail$[ebp]
  001e3	ff 15 00 00 00
	00		 call	 DWORD PTR __imp_??1?$CStringT@DV?$StrTraitMFC_DLL@DV?$ChTraitsCRT@D@ATL@@@@@ATL@@QAE@XZ
  001e9	c7 45 fc ff ff
	ff ff		 mov	 DWORD PTR __$EHRec$[ebp+8], -1
  001f0	8d 4d 14	 lea	 ecx, DWORD PTR _strGID$[ebp]
  001f3	ff 15 00 00 00
	00		 call	 DWORD PTR __imp_??1?$basic_string@DU?$char_traits@D@std@@V?$allocator@D@2@@std@@QAE@XZ
  001f9	8b 45 a0	 mov	 eax, DWORD PTR $T199870[ebp]

; 39   : }

  001fc	8b 4d f4	 mov	 ecx, DWORD PTR __$EHRec$[ebp]
  001ff	64 89 0d 00 00
	00 00		 mov	 DWORD PTR fs:__except_list, ecx
  00206	8b 4d f0	 mov	 ecx, DWORD PTR __$ArrayPad$[ebp]
  00209	e8 00 00 00 00	 call	 @__security_check_cookie@4
  0020e	8b e5		 mov	 esp, ebp
  00210	5d		 pop	 ebp
  00211	c2 2c 00	 ret	 44			; 0000002cH
_TEXT	ENDS
text$x	SEGMENT
$L199871:
  0002d	8d 4d 14	 lea	 ecx, DWORD PTR _strGID$[ebp]
  00030	ff 25 00 00 00
	00		 jmp	 DWORD PTR __imp_??1?$basic_string@DU?$char_traits@D@std@@V?$allocator@D@2@@std@@QAE@XZ
$L199872:
  00036	8d 4d 10	 lea	 ecx, DWORD PTR _strdetail$[ebp]
  00039	ff 25 00 00 00
	00		 jmp	 DWORD PTR __imp_??1?$CStringT@DV?$StrTraitMFC_DLL@DV?$ChTraitsCRT@D@ATL@@@@@ATL@@QAE@XZ
$L199873:
  0003f	8d 4d 0c	 lea	 ecx, DWORD PTR _strItemName$[ebp]
  00042	ff 25 00 00 00
	00		 jmp	 DWORD PTR __imp_??1?$CStringT@DV?$StrTraitMFC_DLL@DV?$ChTraitsCRT@D@ATL@@@@@ATL@@QAE@XZ
$L199874:
  00048	8d 4d 08	 lea	 ecx, DWORD PTR _strImgPath$[ebp]
  0004b	ff 25 00 00 00
	00		 jmp	 DWORD PTR __imp_??1?$CStringT@DV?$StrTraitMFC_DLL@DV?$ChTraitsCRT@D@ATL@@@@@ATL@@QAE@XZ
$L199875:
  00051	8d 4d a4	 lea	 ecx, DWORD PTR _lmci$[ebp]
  00054	e9 00 00 00 00	 jmp	 ??1_tagLMCItemInfo@@QAE@XZ
__ehhandler$?InsertItem@CLMCDataMgr@@QAEHV?$CStringT@DV?$StrTraitMFC_DLL@DV?$ChTraitsCRT@D@ATL@@@@@ATL@@00V?$basic_string@DU?$char_traits@D@std@@V?$allocator@D@2@@std@@H@Z:
  00059	b8 00 00 00 00	 mov	 eax, OFFSET FLAT:$T199877
  0005e	e9 00 00 00 00	 jmp	 ___CxxFrameHandler
text$x	ENDS
?InsertItem@CLMCDataMgr@@QAEHV?$CStringT@DV?$StrTraitMFC_DLL@DV?$ChTraitsCRT@D@ATL@@@@@ATL@@00V?$basic_string@DU?$char_traits@D@std@@V?$allocator@D@2@@std@@H@Z ENDP ; CLMCDataMgr::InsertItem
PUBLIC	?clear@?$vector@U_tagLMCItemInfo@@V?$allocator@U_tagLMCItemInfo@@@std@@@std@@QAEXXZ ; std::vector<_tagLMCItemInfo,std::allocator<_tagLMCItemInfo> >::clear
PUBLIC	?ClearData@CLMCDataMgr@@QAEXXZ			; CLMCDataMgr::ClearData
; Function compile flags: /Odt
_TEXT	SEGMENT
_this$ = -4						; size = 4
?ClearData@CLMCDataMgr@@QAEXXZ PROC NEAR		; CLMCDataMgr::ClearData
; _this$ = ecx

; 42   : {

  00220	55		 push	 ebp
  00221	8b ec		 mov	 ebp, esp
  00223	51		 push	 ecx
  00224	89 4d fc	 mov	 DWORD PTR _this$[ebp], ecx

; 43   : 	m_vItem.clear();

  00227	8b 4d fc	 mov	 ecx, DWORD PTR _this$[ebp]
  0022a	e8 00 00 00 00	 call	 ?clear@?$vector@U_tagLMCItemInfo@@V?$allocator@U_tagLMCItemInfo@@@std@@@std@@QAEXXZ ; std::vector<_tagLMCItemInfo,std::allocator<_tagLMCItemInfo> >::clear

; 44   : }

  0022f	8b e5		 mov	 esp, ebp
  00231	5d		 pop	 ebp
  00232	c3		 ret	 0
?ClearData@CLMCDataMgr@@QAEXXZ ENDP			; CLMCDataMgr::ClearData
_TEXT	ENDS
PUBLIC	?erase@?$vector@U_tagLMCItemInfo@@V?$allocator@U_tagLMCItemInfo@@@std@@@std@@QAE?AViterator@12@V312@0@Z ; std::vector<_tagLMCItemInfo,std::allocator<_tagLMCItemInfo> >::erase
PUBLIC	?RemoveItem@CLMCDataMgr@@QAEHH@Z		; CLMCDataMgr::RemoveItem
PUBLIC	??0CLMCDataOper@@QAE@H@Z			; CLMCDataOper::CLMCDataOper
PUBLIC	??1CLMCDataOper@@QAE@XZ				; CLMCDataOper::~CLMCDataOper
PUBLIC	??$remove_if@Viterator@?$vector@U_tagLMCItemInfo@@V?$allocator@U_tagLMCItemInfo@@@std@@@std@@VCLMCDataOper@@@std@@YA?AViterator@?$vector@U_tagLMCItemInfo@@V?$allocator@U_tagLMCItemInfo@@@std@@@0@V120@0VCLMCDataOper@@@Z ; std::remove_if<std::vector<_tagLMCItemInfo,std::allocator<_tagLMCItemInfo> >::iterator,CLMCDataOper>
PUBLIC	?begin@?$vector@U_tagLMCItemInfo@@V?$allocator@U_tagLMCItemInfo@@@std@@@std@@QAE?AViterator@12@XZ ; std::vector<_tagLMCItemInfo,std::allocator<_tagLMCItemInfo> >::begin
PUBLIC	?end@?$vector@U_tagLMCItemInfo@@V?$allocator@U_tagLMCItemInfo@@@std@@@std@@QAE?AViterator@12@XZ ; std::vector<_tagLMCItemInfo,std::allocator<_tagLMCItemInfo> >::end
xdata$x	SEGMENT
$T199893 DD	0ffffffffH
	DD	FLAT:$L199889
$T199891 DD	019930520H
	DD	01H
	DD	FLAT:$T199893
	DD	2 DUP(00H)
	DD	2 DUP(00H)
; Function compile flags: /Odt
xdata$x	ENDS
_TEXT	SEGMENT
tv91 = -48						; size = 4
tv92 = -44						; size = 4
_this$ = -40						; size = 4
$T199888 = -36						; size = 4
$T199887 = -32						; size = 4
$T199886 = -28						; size = 4
$T199885 = -24						; size = 4
$T199884 = -20						; size = 4
$T199883 = -16						; size = 4
__$EHRec$ = -12						; size = 12
_iItem$ = 8						; size = 4
?RemoveItem@CLMCDataMgr@@QAEHH@Z PROC NEAR		; CLMCDataMgr::RemoveItem
; _this$ = ecx

; 47   : {

  00240	55		 push	 ebp
  00241	8b ec		 mov	 ebp, esp
  00243	6a ff		 push	 -1
  00245	68 00 00 00 00	 push	 __ehhandler$?RemoveItem@CLMCDataMgr@@QAEHH@Z
  0024a	64 a1 00 00 00
	00		 mov	 eax, DWORD PTR fs:__except_list
  00250	50		 push	 eax
  00251	64 89 25 00 00
	00 00		 mov	 DWORD PTR fs:__except_list, esp
  00258	83 ec 24	 sub	 esp, 36			; 00000024H
  0025b	89 4d d8	 mov	 DWORD PTR _this$[ebp], ecx

; 48   : 	if (iItem>m_vItem.size()) return FALSE;

  0025e	8b 4d d8	 mov	 ecx, DWORD PTR _this$[ebp]
  00261	e8 00 00 00 00	 call	 ?size@?$vector@U_tagLMCItemInfo@@V?$allocator@U_tagLMCItemInfo@@@std@@@std@@QBEIXZ ; std::vector<_tagLMCItemInfo,std::allocator<_tagLMCItemInfo> >::size
  00266	39 45 08	 cmp	 DWORD PTR _iItem$[ebp], eax
  00269	76 04		 jbe	 SHORT $L198669
  0026b	33 c0		 xor	 eax, eax
  0026d	eb 79		 jmp	 SHORT $L198668
$L198669:

; 49   : 	m_vItem.erase(remove_if(m_vItem.begin(),m_vItem.end(),CLMCDataOper(iItem)),m_vItem.end());	

  0026f	8b 45 08	 mov	 eax, DWORD PTR _iItem$[ebp]
  00272	50		 push	 eax
  00273	8d 4d ec	 lea	 ecx, DWORD PTR $T199884[ebp]
  00276	e8 00 00 00 00	 call	 ??0CLMCDataOper@@QAE@H@Z ; CLMCDataOper::CLMCDataOper
  0027b	89 45 d4	 mov	 DWORD PTR tv92[ebp], eax
  0027e	8b 4d d4	 mov	 ecx, DWORD PTR tv92[ebp]
  00281	89 4d d0	 mov	 DWORD PTR tv91[ebp], ecx
  00284	c7 45 fc 00 00
	00 00		 mov	 DWORD PTR __$EHRec$[ebp+8], 0
  0028b	8d 55 f0	 lea	 edx, DWORD PTR $T199883[ebp]
  0028e	52		 push	 edx
  0028f	8b 4d d8	 mov	 ecx, DWORD PTR _this$[ebp]
  00292	e8 00 00 00 00	 call	 ?end@?$vector@U_tagLMCItemInfo@@V?$allocator@U_tagLMCItemInfo@@@std@@@std@@QAE?AViterator@12@XZ ; std::vector<_tagLMCItemInfo,std::allocator<_tagLMCItemInfo> >::end
  00297	8b 00		 mov	 eax, DWORD PTR [eax]
  00299	50		 push	 eax
  0029a	8b 4d d0	 mov	 ecx, DWORD PTR tv91[ebp]
  0029d	8b 11		 mov	 edx, DWORD PTR [ecx]
  0029f	52		 push	 edx
  002a0	8d 45 e8	 lea	 eax, DWORD PTR $T199885[ebp]
  002a3	50		 push	 eax
  002a4	8b 4d d8	 mov	 ecx, DWORD PTR _this$[ebp]
  002a7	e8 00 00 00 00	 call	 ?end@?$vector@U_tagLMCItemInfo@@V?$allocator@U_tagLMCItemInfo@@@std@@@std@@QAE?AViterator@12@XZ ; std::vector<_tagLMCItemInfo,std::allocator<_tagLMCItemInfo> >::end
  002ac	8b 08		 mov	 ecx, DWORD PTR [eax]
  002ae	51		 push	 ecx
  002af	8d 55 e4	 lea	 edx, DWORD PTR $T199886[ebp]
  002b2	52		 push	 edx
  002b3	8b 4d d8	 mov	 ecx, DWORD PTR _this$[ebp]
  002b6	e8 00 00 00 00	 call	 ?begin@?$vector@U_tagLMCItemInfo@@V?$allocator@U_tagLMCItemInfo@@@std@@@std@@QAE?AViterator@12@XZ ; std::vector<_tagLMCItemInfo,std::allocator<_tagLMCItemInfo> >::begin
  002bb	8b 00		 mov	 eax, DWORD PTR [eax]
  002bd	50		 push	 eax
  002be	8d 4d e0	 lea	 ecx, DWORD PTR $T199887[ebp]
  002c1	51		 push	 ecx
  002c2	e8 00 00 00 00	 call	 ??$remove_if@Viterator@?$vector@U_tagLMCItemInfo@@V?$allocator@U_tagLMCItemInfo@@@std@@@std@@VCLMCDataOper@@@std@@YA?AViterator@?$vector@U_tagLMCItemInfo@@V?$allocator@U_tagLMCItemInfo@@@std@@@0@V120@0VCLMCDataOper@@@Z ; std::remove_if<std::vector<_tagLMCItemInfo,std::allocator<_tagLMCItemInfo> >::iterator,CLMCDataOper>
  002c7	83 c4 10	 add	 esp, 16			; 00000010H
  002ca	8b 10		 mov	 edx, DWORD PTR [eax]
  002cc	52		 push	 edx
  002cd	8d 45 dc	 lea	 eax, DWORD PTR $T199888[ebp]
  002d0	50		 push	 eax
  002d1	8b 4d d8	 mov	 ecx, DWORD PTR _this$[ebp]
  002d4	e8 00 00 00 00	 call	 ?erase@?$vector@U_tagLMCItemInfo@@V?$allocator@U_tagLMCItemInfo@@@std@@@std@@QAE?AViterator@12@V312@0@Z ; std::vector<_tagLMCItemInfo,std::allocator<_tagLMCItemInfo> >::erase
  002d9	c7 45 fc ff ff
	ff ff		 mov	 DWORD PTR __$EHRec$[ebp+8], -1
  002e0	8d 4d ec	 lea	 ecx, DWORD PTR $T199884[ebp]
  002e3	e8 00 00 00 00	 call	 ??1CLMCDataOper@@QAE@XZ	; CLMCDataOper::~CLMCDataOper
$L198668:

; 50   : }

  002e8	8b 4d f4	 mov	 ecx, DWORD PTR __$EHRec$[ebp]
  002eb	64 89 0d 00 00
	00 00		 mov	 DWORD PTR fs:__except_list, ecx
  002f2	8b e5		 mov	 esp, ebp
  002f4	5d		 pop	 ebp
  002f5	c2 04 00	 ret	 4
_TEXT	ENDS
text$x	SEGMENT
$L199889:
  00063	8d 4d ec	 lea	 ecx, DWORD PTR $T199884[ebp]
  00066	e9 00 00 00 00	 jmp	 ??1CLMCDataOper@@QAE@XZ	; CLMCDataOper::~CLMCDataOper
__ehhandler$?RemoveItem@CLMCDataMgr@@QAEHH@Z:
  0006b	b8 00 00 00 00	 mov	 eax, OFFSET FLAT:$T199891
  00070	e9 00 00 00 00	 jmp	 ___CxxFrameHandler
text$x	ENDS
?RemoveItem@CLMCDataMgr@@QAEHH@Z ENDP			; CLMCDataMgr::RemoveItem
; Function compile flags: /Odt
; File d:\boxgit\playbox\playbox\dev\prj\playbox\src\module\playedgamepanel\lmcdatamgr.h
;	COMDAT ??0CLMCDataOper@@QAE@H@Z
_TEXT	SEGMENT
_this$ = -4						; size = 4
_delItem$ = 8						; size = 4
??0CLMCDataOper@@QAE@H@Z PROC NEAR			; CLMCDataOper::CLMCDataOper, COMDAT
; _this$ = ecx

; 27   : 	CLMCDataOper(int delItem):m_delItem(delItem){}

  00000	55		 push	 ebp
  00001	8b ec		 mov	 ebp, esp
  00003	51		 push	 ecx
  00004	89 4d fc	 mov	 DWORD PTR _this$[ebp], ecx
  00007	8b 45 fc	 mov	 eax, DWORD PTR _this$[ebp]
  0000a	8b 4d 08	 mov	 ecx, DWORD PTR _delItem$[ebp]
  0000d	89 08		 mov	 DWORD PTR [eax], ecx
  0000f	8b 45 fc	 mov	 eax, DWORD PTR _this$[ebp]
  00012	8b e5		 mov	 esp, ebp
  00014	5d		 pop	 ebp
  00015	c2 04 00	 ret	 4
??0CLMCDataOper@@QAE@H@Z ENDP				; CLMCDataOper::CLMCDataOper
; Function compile flags: /Odt
_TEXT	ENDS
;	COMDAT ??1CLMCDataOper@@QAE@XZ
_TEXT	SEGMENT
_this$ = -4						; size = 4
??1CLMCDataOper@@QAE@XZ PROC NEAR			; CLMCDataOper::~CLMCDataOper, COMDAT
; _this$ = ecx

; 29   : 	~CLMCDataOper(){}

  00000	55		 push	 ebp
  00001	8b ec		 mov	 ebp, esp
  00003	51		 push	 ecx
  00004	89 4d fc	 mov	 DWORD PTR _this$[ebp], ecx
  00007	8b e5		 mov	 esp, ebp
  00009	5d		 pop	 ebp
  0000a	c3		 ret	 0
??1CLMCDataOper@@QAE@XZ ENDP				; CLMCDataOper::~CLMCDataOper
_TEXT	ENDS
PUBLIC	?UpDataItem@CLMCDataMgr@@QAEXXZ			; CLMCDataMgr::UpDataItem
PUBLIC	??A?$vector@U_tagLMCItemInfo@@V?$allocator@U_tagLMCItemInfo@@@std@@@std@@QAEAAU_tagLMCItemInfo@@I@Z ; std::vector<_tagLMCItemInfo,std::allocator<_tagLMCItemInfo> >::operator[]
; Function compile flags: /Odt
; File d:\boxgit\playbox\playbox\dev\prj\playbox\src\module\playedgamepanel\lmcdatamgr.cpp
_TEXT	SEGMENT
_this$ = -8						; size = 4
_i$198802 = -4						; size = 4
?UpDataItem@CLMCDataMgr@@QAEXXZ PROC NEAR		; CLMCDataMgr::UpDataItem
; _this$ = ecx

; 53   : {

  00300	55		 push	 ebp
  00301	8b ec		 mov	 ebp, esp
  00303	83 ec 08	 sub	 esp, 8
  00306	89 4d f8	 mov	 DWORD PTR _this$[ebp], ecx

; 54   : 	for (int i=0;i<m_vItem.size();i++)

  00309	c7 45 fc 00 00
	00 00		 mov	 DWORD PTR _i$198802[ebp], 0
  00310	eb 09		 jmp	 SHORT $L198803
$L198804:
  00312	8b 45 fc	 mov	 eax, DWORD PTR _i$198802[ebp]
  00315	83 c0 01	 add	 eax, 1
  00318	89 45 fc	 mov	 DWORD PTR _i$198802[ebp], eax
$L198803:
  0031b	8b 4d f8	 mov	 ecx, DWORD PTR _this$[ebp]
  0031e	e8 00 00 00 00	 call	 ?size@?$vector@U_tagLMCItemInfo@@V?$allocator@U_tagLMCItemInfo@@@std@@@std@@QBEIXZ ; std::vector<_tagLMCItemInfo,std::allocator<_tagLMCItemInfo> >::size
  00323	39 45 fc	 cmp	 DWORD PTR _i$198802[ebp], eax
  00326	73 14		 jae	 SHORT $L198801

; 55   : 		m_vItem[i].iIndex = i;

  00328	8b 4d fc	 mov	 ecx, DWORD PTR _i$198802[ebp]
  0032b	51		 push	 ecx
  0032c	8b 4d f8	 mov	 ecx, DWORD PTR _this$[ebp]
  0032f	e8 00 00 00 00	 call	 ??A?$vector@U_tagLMCItemInfo@@V?$allocator@U_tagLMCItemInfo@@@std@@@std@@QAEAAU_tagLMCItemInfo@@I@Z ; std::vector<_tagLMCItemInfo,std::allocator<_tagLMCItemInfo> >::operator[]
  00334	8b 55 fc	 mov	 edx, DWORD PTR _i$198802[ebp]
  00337	89 50 1c	 mov	 DWORD PTR [eax+28], edx
  0033a	eb d6		 jmp	 SHORT $L198804
$L198801:

; 56   : }

  0033c	8b e5		 mov	 esp, ebp
  0033e	5d		 pop	 ebp
  0033f	c3		 ret	 0
?UpDataItem@CLMCDataMgr@@QAEXXZ ENDP			; CLMCDataMgr::UpDataItem
_TEXT	ENDS
PUBLIC	?_Buy@?$vector@U_tagLMCItemInfo@@V?$allocator@U_tagLMCItemInfo@@@std@@@std@@IAE_NI@Z ; std::vector<_tagLMCItemInfo,std::allocator<_tagLMCItemInfo> >::_Buy
PUBLIC	??0?$_Vector_val@U_tagLMCItemInfo@@V?$allocator@U_tagLMCItemInfo@@@std@@@std@@IAE@V?$allocator@U_tagLMCItemInfo@@@1@@Z ; std::_Vector_val<_tagLMCItemInfo,std::allocator<_tagLMCItemInfo> >::_Vector_val<_tagLMCItemInfo,std::allocator<_tagLMCItemInfo> >
PUBLIC	??0?$allocator@U_tagLMCItemInfo@@@std@@QAE@XZ	; std::allocator<_tagLMCItemInfo>::allocator<_tagLMCItemInfo>
; Function compile flags: /Odt
; File d:\program files (x86)\microsoft visual studio .net 2003\vc7\include\vector
;	COMDAT ??0?$vector@U_tagLMCItemInfo@@V?$allocator@U_tagLMCItemInfo@@@std@@@std@@QAE@XZ
_TEXT	SEGMENT
_this$ = -8						; size = 4
??0?$vector@U_tagLMCItemInfo@@V?$allocator@U_tagLMCItemInfo@@@std@@@std@@QAE@XZ PROC NEAR ; std::vector<_tagLMCItemInfo,std::allocator<_tagLMCItemInfo> >::vector<_tagLMCItemInfo,std::allocator<_tagLMCItemInfo> >, COMDAT
; _this$ = ecx

; 299  : 		{	// construct empty vector

  00000	55		 push	 ebp
  00001	8b ec		 mov	 ebp, esp
  00003	83 ec 08	 sub	 esp, 8
  00006	89 4d f8	 mov	 DWORD PTR _this$[ebp], ecx
  00009	51		 push	 ecx
  0000a	8b cc		 mov	 ecx, esp
  0000c	e8 00 00 00 00	 call	 ??0?$allocator@U_tagLMCItemInfo@@@std@@QAE@XZ ; std::allocator<_tagLMCItemInfo>::allocator<_tagLMCItemInfo>
  00011	8b 4d f8	 mov	 ecx, DWORD PTR _this$[ebp]
  00014	e8 00 00 00 00	 call	 ??0?$_Vector_val@U_tagLMCItemInfo@@V?$allocator@U_tagLMCItemInfo@@@std@@@std@@IAE@V?$allocator@U_tagLMCItemInfo@@@1@@Z ; std::_Vector_val<_tagLMCItemInfo,std::allocator<_tagLMCItemInfo> >::_Vector_val<_tagLMCItemInfo,std::allocator<_tagLMCItemInfo> >

; 300  : 		_Buy(0);

  00019	6a 00		 push	 0
  0001b	8b 4d f8	 mov	 ecx, DWORD PTR _this$[ebp]
  0001e	e8 00 00 00 00	 call	 ?_Buy@?$vector@U_tagLMCItemInfo@@V?$allocator@U_tagLMCItemInfo@@@std@@@std@@IAE_NI@Z ; std::vector<_tagLMCItemInfo,std::allocator<_tagLMCItemInfo> >::_Buy

; 301  : 		}

  00023	8b 45 f8	 mov	 eax, DWORD PTR _this$[ebp]
  00026	8b e5		 mov	 esp, ebp
  00028	5d		 pop	 ebp
  00029	c3		 ret	 0
??0?$vector@U_tagLMCItemInfo@@V?$allocator@U_tagLMCItemInfo@@@std@@@std@@QAE@XZ ENDP ; std::vector<_tagLMCItemInfo,std::allocator<_tagLMCItemInfo> >::vector<_tagLMCItemInfo,std::allocator<_tagLMCItemInfo> >
_TEXT	ENDS
PUBLIC	?_Tidy@?$vector@U_tagLMCItemInfo@@V?$allocator@U_tagLMCItemInfo@@@std@@@std@@IAEXXZ ; std::vector<_tagLMCItemInfo,std::allocator<_tagLMCItemInfo> >::_Tidy
; Function compile flags: /Odt
;	COMDAT ??1?$vector@U_tagLMCItemInfo@@V?$allocator@U_tagLMCItemInfo@@@std@@@std@@QAE@XZ
_TEXT	SEGMENT
_this$ = -4						; size = 4
??1?$vector@U_tagLMCItemInfo@@V?$allocator@U_tagLMCItemInfo@@@std@@@std@@QAE@XZ PROC NEAR ; std::vector<_tagLMCItemInfo,std::allocator<_tagLMCItemInfo> >::~vector<_tagLMCItemInfo,std::allocator<_tagLMCItemInfo> >, COMDAT
; _this$ = ecx

; 387  : 		{	// destroy the object

  00000	55		 push	 ebp
  00001	8b ec		 mov	 ebp, esp
  00003	51		 push	 ecx
  00004	89 4d fc	 mov	 DWORD PTR _this$[ebp], ecx

; 388  : 		_Tidy();

  00007	8b 4d fc	 mov	 ecx, DWORD PTR _this$[ebp]
  0000a	e8 00 00 00 00	 call	 ?_Tidy@?$vector@U_tagLMCItemInfo@@V?$allocator@U_tagLMCItemInfo@@@std@@@std@@IAEXXZ ; std::vector<_tagLMCItemInfo,std::allocator<_tagLMCItemInfo> >::_Tidy

; 389  : 		}

  0000f	8b e5		 mov	 esp, ebp
  00011	5d		 pop	 ebp
  00012	c3		 ret	 0
??1?$vector@U_tagLMCItemInfo@@V?$allocator@U_tagLMCItemInfo@@@std@@@std@@QAE@XZ ENDP ; std::vector<_tagLMCItemInfo,std::allocator<_tagLMCItemInfo> >::~vector<_tagLMCItemInfo,std::allocator<_tagLMCItemInfo> >
_TEXT	ENDS
PUBLIC	??0iterator@?$vector@U_tagLMCItemInfo@@V?$allocator@U_tagLMCItemInfo@@@std@@@std@@QAE@PAU_tagLMCItemInfo@@@Z ; std::vector<_tagLMCItemInfo,std::allocator<_tagLMCItemInfo> >::iterator::iterator
; Function compile flags: /Odt
;	COMDAT ?begin@?$vector@U_tagLMCItemInfo@@V?$allocator@U_tagLMCItemInfo@@@std@@@std@@QAE?AViterator@12@XZ
_TEXT	SEGMENT
_this$ = -4						; size = 4
___$ReturnUdt$ = 8					; size = 4
?begin@?$vector@U_tagLMCItemInfo@@V?$allocator@U_tagLMCItemInfo@@@std@@@std@@QAE?AViterator@12@XZ PROC NEAR ; std::vector<_tagLMCItemInfo,std::allocator<_tagLMCItemInfo> >::begin, COMDAT
; _this$ = ecx

; 462  : 		{	// return iterator for beginning of mutable sequence

  00000	55		 push	 ebp
  00001	8b ec		 mov	 ebp, esp
  00003	51		 push	 ecx
  00004	89 4d fc	 mov	 DWORD PTR _this$[ebp], ecx

; 463  : 		return (iterator(_Myfirst));

  00007	8b 45 fc	 mov	 eax, DWORD PTR _this$[ebp]
  0000a	8b 48 04	 mov	 ecx, DWORD PTR [eax+4]
  0000d	51		 push	 ecx
  0000e	8b 4d 08	 mov	 ecx, DWORD PTR ___$ReturnUdt$[ebp]
  00011	e8 00 00 00 00	 call	 ??0iterator@?$vector@U_tagLMCItemInfo@@V?$allocator@U_tagLMCItemInfo@@@std@@@std@@QAE@PAU_tagLMCItemInfo@@@Z ; std::vector<_tagLMCItemInfo,std::allocator<_tagLMCItemInfo> >::iterator::iterator
  00016	8b 45 08	 mov	 eax, DWORD PTR ___$ReturnUdt$[ebp]

; 464  : 		}

  00019	8b e5		 mov	 esp, ebp
  0001b	5d		 pop	 ebp
  0001c	c2 04 00	 ret	 4
?begin@?$vector@U_tagLMCItemInfo@@V?$allocator@U_tagLMCItemInfo@@@std@@@std@@QAE?AViterator@12@XZ ENDP ; std::vector<_tagLMCItemInfo,std::allocator<_tagLMCItemInfo> >::begin
; Function compile flags: /Odt
_TEXT	ENDS
;	COMDAT ?end@?$vector@U_tagLMCItemInfo@@V?$allocator@U_tagLMCItemInfo@@@std@@@std@@QAE?AViterator@12@XZ
_TEXT	SEGMENT
_this$ = -4						; size = 4
___$ReturnUdt$ = 8					; size = 4
?end@?$vector@U_tagLMCItemInfo@@V?$allocator@U_tagLMCItemInfo@@@std@@@std@@QAE?AViterator@12@XZ PROC NEAR ; std::vector<_tagLMCItemInfo,std::allocator<_tagLMCItemInfo> >::end, COMDAT
; _this$ = ecx

; 472  : 		{	// return iterator for end of mutable sequence

  00000	55		 push	 ebp
  00001	8b ec		 mov	 ebp, esp
  00003	51		 push	 ecx
  00004	89 4d fc	 mov	 DWORD PTR _this$[ebp], ecx

; 473  : 		return (iterator(_Mylast));

  00007	8b 45 fc	 mov	 eax, DWORD PTR _this$[ebp]
  0000a	8b 48 08	 mov	 ecx, DWORD PTR [eax+8]
  0000d	51		 push	 ecx
  0000e	8b 4d 08	 mov	 ecx, DWORD PTR ___$ReturnUdt$[ebp]
  00011	e8 00 00 00 00	 call	 ??0iterator@?$vector@U_tagLMCItemInfo@@V?$allocator@U_tagLMCItemInfo@@@std@@@std@@QAE@PAU_tagLMCItemInfo@@@Z ; std::vector<_tagLMCItemInfo,std::allocator<_tagLMCItemInfo> >::iterator::iterator
  00016	8b 45 08	 mov	 eax, DWORD PTR ___$ReturnUdt$[ebp]

; 474  : 		}

  00019	8b e5		 mov	 esp, ebp
  0001b	5d		 pop	 ebp
  0001c	c2 04 00	 ret	 4
?end@?$vector@U_tagLMCItemInfo@@V?$allocator@U_tagLMCItemInfo@@@std@@@std@@QAE?AViterator@12@XZ ENDP ; std::vector<_tagLMCItemInfo,std::allocator<_tagLMCItemInfo> >::end
; Function compile flags: /Odt
_TEXT	ENDS
;	COMDAT ?size@?$vector@U_tagLMCItemInfo@@V?$allocator@U_tagLMCItemInfo@@@std@@@std@@QBEIXZ
_TEXT	SEGMENT
tv70 = -8						; size = 4
_this$ = -4						; size = 4
?size@?$vector@U_tagLMCItemInfo@@V?$allocator@U_tagLMCItemInfo@@@std@@@std@@QBEIXZ PROC NEAR ; std::vector<_tagLMCItemInfo,std::allocator<_tagLMCItemInfo> >::size, COMDAT
; _this$ = ecx

; 515  : 		{	// return length of sequence

  00000	55		 push	 ebp
  00001	8b ec		 mov	 ebp, esp
  00003	83 ec 08	 sub	 esp, 8
  00006	89 4d fc	 mov	 DWORD PTR _this$[ebp], ecx

; 516  : 		return (_Myfirst == 0 ? 0 : _Mylast - _Myfirst);

  00009	8b 45 fc	 mov	 eax, DWORD PTR _this$[ebp]
  0000c	83 78 04 00	 cmp	 DWORD PTR [eax+4], 0
  00010	75 09		 jne	 SHORT $L199909
  00012	c7 45 f8 00 00
	00 00		 mov	 DWORD PTR tv70[ebp], 0
  00019	eb 17		 jmp	 SHORT $L199910
$L199909:
  0001b	8b 4d fc	 mov	 ecx, DWORD PTR _this$[ebp]
  0001e	8b 55 fc	 mov	 edx, DWORD PTR _this$[ebp]
  00021	8b 41 08	 mov	 eax, DWORD PTR [ecx+8]
  00024	2b 42 04	 sub	 eax, DWORD PTR [edx+4]
  00027	99		 cdq
  00028	b9 44 00 00 00	 mov	 ecx, 68			; 00000044H
  0002d	f7 f9		 idiv	 ecx
  0002f	89 45 f8	 mov	 DWORD PTR tv70[ebp], eax
$L199910:
  00032	8b 45 f8	 mov	 eax, DWORD PTR tv70[ebp]

; 517  : 		}

  00035	8b e5		 mov	 esp, ebp
  00037	5d		 pop	 ebp
  00038	c3		 ret	 0
?size@?$vector@U_tagLMCItemInfo@@V?$allocator@U_tagLMCItemInfo@@@std@@@std@@QBEIXZ ENDP ; std::vector<_tagLMCItemInfo,std::allocator<_tagLMCItemInfo> >::size
_TEXT	ENDS
PUBLIC	??Diterator@?$vector@U_tagLMCItemInfo@@V?$allocator@U_tagLMCItemInfo@@@std@@@std@@QBEAAU_tagLMCItemInfo@@XZ ; std::vector<_tagLMCItemInfo,std::allocator<_tagLMCItemInfo> >::iterator::operator*
PUBLIC	??Hiterator@?$vector@U_tagLMCItemInfo@@V?$allocator@U_tagLMCItemInfo@@@std@@@std@@QBE?AV012@H@Z ; std::vector<_tagLMCItemInfo,std::allocator<_tagLMCItemInfo> >::iterator::operator+
; Function compile flags: /Odt
;	COMDAT ??A?$vector@U_tagLMCItemInfo@@V?$allocator@U_tagLMCItemInfo@@@std@@@std@@QAEAAU_tagLMCItemInfo@@I@Z
_TEXT	SEGMENT
_this$ = -12						; size = 4
$T199914 = -8						; size = 4
$T199913 = -4						; size = 4
__Pos$ = 8						; size = 4
??A?$vector@U_tagLMCItemInfo@@V?$allocator@U_tagLMCItemInfo@@@std@@@std@@QAEAAU_tagLMCItemInfo@@I@Z PROC NEAR ; std::vector<_tagLMCItemInfo,std::allocator<_tagLMCItemInfo> >::operator[], COMDAT
; _this$ = ecx

; 554  : 		{	// subscript mutable sequence

  00000	55		 push	 ebp
  00001	8b ec		 mov	 ebp, esp
  00003	83 ec 0c	 sub	 esp, 12			; 0000000cH
  00006	89 4d f4	 mov	 DWORD PTR _this$[ebp], ecx

; 555  : 		return (*(begin() + _Pos));

  00009	8b 45 08	 mov	 eax, DWORD PTR __Pos$[ebp]
  0000c	50		 push	 eax
  0000d	8d 4d f8	 lea	 ecx, DWORD PTR $T199914[ebp]
  00010	51		 push	 ecx
  00011	8d 55 fc	 lea	 edx, DWORD PTR $T199913[ebp]
  00014	52		 push	 edx
  00015	8b 4d f4	 mov	 ecx, DWORD PTR _this$[ebp]
  00018	e8 00 00 00 00	 call	 ?begin@?$vector@U_tagLMCItemInfo@@V?$allocator@U_tagLMCItemInfo@@@std@@@std@@QAE?AViterator@12@XZ ; std::vector<_tagLMCItemInfo,std::allocator<_tagLMCItemInfo> >::begin
  0001d	8b c8		 mov	 ecx, eax
  0001f	e8 00 00 00 00	 call	 ??Hiterator@?$vector@U_tagLMCItemInfo@@V?$allocator@U_tagLMCItemInfo@@@std@@@std@@QBE?AV012@H@Z ; std::vector<_tagLMCItemInfo,std::allocator<_tagLMCItemInfo> >::iterator::operator+
  00024	8b c8		 mov	 ecx, eax
  00026	e8 00 00 00 00	 call	 ??Diterator@?$vector@U_tagLMCItemInfo@@V?$allocator@U_tagLMCItemInfo@@@std@@@std@@QBEAAU_tagLMCItemInfo@@XZ ; std::vector<_tagLMCItemInfo,std::allocator<_tagLMCItemInfo> >::iterator::operator*

; 556  : 		}

  0002b	8b e5		 mov	 esp, ebp
  0002d	5d		 pop	 ebp
  0002e	c2 04 00	 ret	 4
??A?$vector@U_tagLMCItemInfo@@V?$allocator@U_tagLMCItemInfo@@@std@@@std@@QAEAAU_tagLMCItemInfo@@I@Z ENDP ; std::vector<_tagLMCItemInfo,std::allocator<_tagLMCItemInfo> >::operator[]
_TEXT	ENDS
PUBLIC	?_Ufill@?$vector@U_tagLMCItemInfo@@V?$allocator@U_tagLMCItemInfo@@@std@@@std@@IAEPAU_tagLMCItemInfo@@PAU3@IABU3@@Z ; std::vector<_tagLMCItemInfo,std::allocator<_tagLMCItemInfo> >::_Ufill
PUBLIC	?capacity@?$vector@U_tagLMCItemInfo@@V?$allocator@U_tagLMCItemInfo@@@std@@@std@@QBEIXZ ; std::vector<_tagLMCItemInfo,std::allocator<_tagLMCItemInfo> >::capacity
PUBLIC	?insert@?$vector@U_tagLMCItemInfo@@V?$allocator@U_tagLMCItemInfo@@@std@@@std@@QAE?AViterator@12@V312@ABU_tagLMCItemInfo@@@Z ; std::vector<_tagLMCItemInfo,std::allocator<_tagLMCItemInfo> >::insert
; Function compile flags: /Odt
;	COMDAT ?push_back@?$vector@U_tagLMCItemInfo@@V?$allocator@U_tagLMCItemInfo@@@std@@@std@@QAEXABU_tagLMCItemInfo@@@Z
_TEXT	SEGMENT
_this$ = -12						; size = 4
$T199918 = -8						; size = 4
$T199917 = -4						; size = 4
__Val$ = 8						; size = 4
?push_back@?$vector@U_tagLMCItemInfo@@V?$allocator@U_tagLMCItemInfo@@@std@@@std@@QAEXABU_tagLMCItemInfo@@@Z PROC NEAR ; std::vector<_tagLMCItemInfo,std::allocator<_tagLMCItemInfo> >::push_back, COMDAT
; _this$ = ecx

; 579  : 		{	// insert element at end

  00000	55		 push	 ebp
  00001	8b ec		 mov	 ebp, esp
  00003	83 ec 0c	 sub	 esp, 12			; 0000000cH
  00006	56		 push	 esi
  00007	89 4d f4	 mov	 DWORD PTR _this$[ebp], ecx

; 580  : 		if (size() < capacity())

  0000a	8b 4d f4	 mov	 ecx, DWORD PTR _this$[ebp]
  0000d	e8 00 00 00 00	 call	 ?size@?$vector@U_tagLMCItemInfo@@V?$allocator@U_tagLMCItemInfo@@@std@@@std@@QBEIXZ ; std::vector<_tagLMCItemInfo,std::allocator<_tagLMCItemInfo> >::size
  00012	8b f0		 mov	 esi, eax
  00014	8b 4d f4	 mov	 ecx, DWORD PTR _this$[ebp]
  00017	e8 00 00 00 00	 call	 ?capacity@?$vector@U_tagLMCItemInfo@@V?$allocator@U_tagLMCItemInfo@@@std@@@std@@QBEIXZ ; std::vector<_tagLMCItemInfo,std::allocator<_tagLMCItemInfo> >::capacity
  0001c	3b f0		 cmp	 esi, eax
  0001e	73 1d		 jae	 SHORT $L198883

; 581  : 			_Mylast = _Ufill(_Mylast, 1, _Val);

  00020	8b 45 08	 mov	 eax, DWORD PTR __Val$[ebp]
  00023	50		 push	 eax
  00024	6a 01		 push	 1
  00026	8b 4d f4	 mov	 ecx, DWORD PTR _this$[ebp]
  00029	8b 51 08	 mov	 edx, DWORD PTR [ecx+8]
  0002c	52		 push	 edx
  0002d	8b 4d f4	 mov	 ecx, DWORD PTR _this$[ebp]
  00030	e8 00 00 00 00	 call	 ?_Ufill@?$vector@U_tagLMCItemInfo@@V?$allocator@U_tagLMCItemInfo@@@std@@@std@@IAEPAU_tagLMCItemInfo@@PAU3@IABU3@@Z ; std::vector<_tagLMCItemInfo,std::allocator<_tagLMCItemInfo> >::_Ufill
  00035	8b 4d f4	 mov	 ecx, DWORD PTR _this$[ebp]
  00038	89 41 08	 mov	 DWORD PTR [ecx+8], eax

; 582  : 		else

  0003b	eb 1f		 jmp	 SHORT $L198882
$L198883:

; 583  : 			insert(end(), _Val);

  0003d	8b 55 08	 mov	 edx, DWORD PTR __Val$[ebp]
  00040	52		 push	 edx
  00041	8d 45 fc	 lea	 eax, DWORD PTR $T199917[ebp]
  00044	50		 push	 eax
  00045	8b 4d f4	 mov	 ecx, DWORD PTR _this$[ebp]
  00048	e8 00 00 00 00	 call	 ?end@?$vector@U_tagLMCItemInfo@@V?$allocator@U_tagLMCItemInfo@@@std@@@std@@QAE?AViterator@12@XZ ; std::vector<_tagLMCItemInfo,std::allocator<_tagLMCItemInfo> >::end
  0004d	8b 08		 mov	 ecx, DWORD PTR [eax]
  0004f	51		 push	 ecx
  00050	8d 55 f8	 lea	 edx, DWORD PTR $T199918[ebp]
  00053	52		 push	 edx
  00054	8b 4d f4	 mov	 ecx, DWORD PTR _this$[ebp]
  00057	e8 00 00 00 00	 call	 ?insert@?$vector@U_tagLMCItemInfo@@V?$allocator@U_tagLMCItemInfo@@@std@@@std@@QAE?AViterator@12@V312@ABU_tagLMCItemInfo@@@Z ; std::vector<_tagLMCItemInfo,std::allocator<_tagLMCItemInfo> >::insert
$L198882:

; 584  : 		}

  0005c	5e		 pop	 esi
  0005d	8b e5		 mov	 esp, ebp
  0005f	5d		 pop	 ebp
  00060	c2 04 00	 ret	 4
?push_back@?$vector@U_tagLMCItemInfo@@V?$allocator@U_tagLMCItemInfo@@@std@@@std@@QAEXABU_tagLMCItemInfo@@@Z ENDP ; std::vector<_tagLMCItemInfo,std::allocator<_tagLMCItemInfo> >::push_back
_TEXT	ENDS
PUBLIC	?_Destroy@?$vector@U_tagLMCItemInfo@@V?$allocator@U_tagLMCItemInfo@@@std@@@std@@IAEXPAU_tagLMCItemInfo@@0@Z ; std::vector<_tagLMCItemInfo,std::allocator<_tagLMCItemInfo> >::_Destroy
PUBLIC	??9const_iterator@?$vector@U_tagLMCItemInfo@@V?$allocator@U_tagLMCItemInfo@@@std@@@std@@QBE_NABV012@@Z ; std::vector<_tagLMCItemInfo,std::allocator<_tagLMCItemInfo> >::const_iterator::operator!=
PUBLIC	??$copy@PAU_tagLMCItemInfo@@PAU1@@std@@YAPAU_tagLMCItemInfo@@PAU1@00@Z ; std::copy<_tagLMCItemInfo *,_tagLMCItemInfo *>
; Function compile flags: /Odt
;	COMDAT ?erase@?$vector@U_tagLMCItemInfo@@V?$allocator@U_tagLMCItemInfo@@@std@@@std@@QAE?AViterator@12@V312@0@Z
_TEXT	SEGMENT
_this$ = -8						; size = 4
__Ptr$198891 = -4					; size = 4
___$ReturnUdt$ = 8					; size = 4
__First$ = 12						; size = 4
__Last$ = 16						; size = 4
?erase@?$vector@U_tagLMCItemInfo@@V?$allocator@U_tagLMCItemInfo@@@std@@@std@@QAE?AViterator@12@V312@0@Z PROC NEAR ; std::vector<_tagLMCItemInfo,std::allocator<_tagLMCItemInfo> >::erase, COMDAT
; _this$ = ecx

; 731  : 		{	// erase [_First, _Last)

  00000	55		 push	 ebp
  00001	8b ec		 mov	 ebp, esp
  00003	83 ec 08	 sub	 esp, 8
  00006	89 4d f8	 mov	 DWORD PTR _this$[ebp], ecx

; 732  : 		if (_First != _Last)

  00009	8d 45 10	 lea	 eax, DWORD PTR __Last$[ebp]
  0000c	50		 push	 eax
  0000d	8d 4d 0c	 lea	 ecx, DWORD PTR __First$[ebp]
  00010	e8 00 00 00 00	 call	 ??9const_iterator@?$vector@U_tagLMCItemInfo@@V?$allocator@U_tagLMCItemInfo@@@std@@@std@@QBE_NABV012@@Z ; std::vector<_tagLMCItemInfo,std::allocator<_tagLMCItemInfo> >::const_iterator::operator!=
  00015	0f b6 c8	 movzx	 ecx, al
  00018	85 c9		 test	 ecx, ecx
  0001a	74 36		 je	 SHORT $L198890

; 733  : 			{	// worth doing, copy down over hole
; 734  : 			pointer _Ptr = copy(_ITER_BASE(_Last), _Mylast,
; 735  : 				_ITER_BASE(_First));

  0001c	8b 55 0c	 mov	 edx, DWORD PTR __First$[ebp]
  0001f	52		 push	 edx
  00020	8b 45 f8	 mov	 eax, DWORD PTR _this$[ebp]
  00023	8b 48 08	 mov	 ecx, DWORD PTR [eax+8]
  00026	51		 push	 ecx
  00027	8b 55 10	 mov	 edx, DWORD PTR __Last$[ebp]
  0002a	52		 push	 edx
  0002b	e8 00 00 00 00	 call	 ??$copy@PAU_tagLMCItemInfo@@PAU1@@std@@YAPAU_tagLMCItemInfo@@PAU1@00@Z ; std::copy<_tagLMCItemInfo *,_tagLMCItemInfo *>
  00030	83 c4 0c	 add	 esp, 12			; 0000000cH
  00033	89 45 fc	 mov	 DWORD PTR __Ptr$198891[ebp], eax

; 736  : 			_Destroy(_Ptr, _Mylast);

  00036	8b 45 f8	 mov	 eax, DWORD PTR _this$[ebp]
  00039	8b 48 08	 mov	 ecx, DWORD PTR [eax+8]
  0003c	51		 push	 ecx
  0003d	8b 55 fc	 mov	 edx, DWORD PTR __Ptr$198891[ebp]
  00040	52		 push	 edx
  00041	8b 4d f8	 mov	 ecx, DWORD PTR _this$[ebp]
  00044	e8 00 00 00 00	 call	 ?_Destroy@?$vector@U_tagLMCItemInfo@@V?$allocator@U_tagLMCItemInfo@@@std@@@std@@IAEXPAU_tagLMCItemInfo@@0@Z ; std::vector<_tagLMCItemInfo,std::allocator<_tagLMCItemInfo> >::_Destroy

; 737  : 			_Mylast = _Ptr;

  00049	8b 45 f8	 mov	 eax, DWORD PTR _this$[ebp]
  0004c	8b 4d fc	 mov	 ecx, DWORD PTR __Ptr$198891[ebp]
  0004f	89 48 08	 mov	 DWORD PTR [eax+8], ecx
$L198890:

; 738  : 			}
; 739  : 		return (_First);

  00052	8b 55 08	 mov	 edx, DWORD PTR ___$ReturnUdt$[ebp]
  00055	8b 45 0c	 mov	 eax, DWORD PTR __First$[ebp]
  00058	89 02		 mov	 DWORD PTR [edx], eax
  0005a	8b 45 08	 mov	 eax, DWORD PTR ___$ReturnUdt$[ebp]

; 740  : 		}

  0005d	8b e5		 mov	 esp, ebp
  0005f	5d		 pop	 ebp
  00060	c2 0c 00	 ret	 12			; 0000000cH
?erase@?$vector@U_tagLMCItemInfo@@V?$allocator@U_tagLMCItemInfo@@@std@@@std@@QAE?AViterator@12@V312@0@Z ENDP ; std::vector<_tagLMCItemInfo,std::allocator<_tagLMCItemInfo> >::erase
; Function compile flags: /Odt
_TEXT	ENDS
;	COMDAT ?clear@?$vector@U_tagLMCItemInfo@@V?$allocator@U_tagLMCItemInfo@@@std@@@std@@QAEXXZ
_TEXT	SEGMENT
_this$ = -4						; size = 4
?clear@?$vector@U_tagLMCItemInfo@@V?$allocator@U_tagLMCItemInfo@@@std@@@std@@QAEXXZ PROC NEAR ; std::vector<_tagLMCItemInfo,std::allocator<_tagLMCItemInfo> >::clear, COMDAT
; _this$ = ecx

; 743  : 		{	// erase all

  00000	55		 push	 ebp
  00001	8b ec		 mov	 ebp, esp
  00003	51		 push	 ecx
  00004	89 4d fc	 mov	 DWORD PTR _this$[ebp], ecx

; 744  : 		_Tidy();

  00007	8b 4d fc	 mov	 ecx, DWORD PTR _this$[ebp]
  0000a	e8 00 00 00 00	 call	 ?_Tidy@?$vector@U_tagLMCItemInfo@@V?$allocator@U_tagLMCItemInfo@@@std@@@std@@IAEXXZ ; std::vector<_tagLMCItemInfo,std::allocator<_tagLMCItemInfo> >::_Tidy

; 745  : 		}

  0000f	8b e5		 mov	 esp, ebp
  00011	5d		 pop	 ebp
  00012	c3		 ret	 0
?clear@?$vector@U_tagLMCItemInfo@@V?$allocator@U_tagLMCItemInfo@@@std@@@std@@QAEXXZ ENDP ; std::vector<_tagLMCItemInfo,std::allocator<_tagLMCItemInfo> >::clear
; Function compile flags: /Odt
_TEXT	ENDS
;	COMDAT ?capacity@?$vector@U_tagLMCItemInfo@@V?$allocator@U_tagLMCItemInfo@@@std@@@std@@QBEIXZ
_TEXT	SEGMENT
tv70 = -8						; size = 4
_this$ = -4						; size = 4
?capacity@?$vector@U_tagLMCItemInfo@@V?$allocator@U_tagLMCItemInfo@@@std@@@std@@QBEIXZ PROC NEAR ; std::vector<_tagLMCItemInfo,std::allocator<_tagLMCItemInfo> >::capacity, COMDAT
; _this$ = ecx

; 457  : 		{	// return current length of allocated storage

  00000	55		 push	 ebp
  00001	8b ec		 mov	 ebp, esp
  00003	83 ec 08	 sub	 esp, 8
  00006	89 4d fc	 mov	 DWORD PTR _this$[ebp], ecx

; 458  : 		return (_Myfirst == 0 ? 0 : _Myend - _Myfirst);

  00009	8b 45 fc	 mov	 eax, DWORD PTR _this$[ebp]
  0000c	83 78 04 00	 cmp	 DWORD PTR [eax+4], 0
  00010	75 09		 jne	 SHORT $L199925
  00012	c7 45 f8 00 00
	00 00		 mov	 DWORD PTR tv70[ebp], 0
  00019	eb 17		 jmp	 SHORT $L199926
$L199925:
  0001b	8b 4d fc	 mov	 ecx, DWORD PTR _this$[ebp]
  0001e	8b 55 fc	 mov	 edx, DWORD PTR _this$[ebp]
  00021	8b 41 0c	 mov	 eax, DWORD PTR [ecx+12]
  00024	2b 42 04	 sub	 eax, DWORD PTR [edx+4]
  00027	99		 cdq
  00028	b9 44 00 00 00	 mov	 ecx, 68			; 00000044H
  0002d	f7 f9		 idiv	 ecx
  0002f	89 45 f8	 mov	 DWORD PTR tv70[ebp], eax
$L199926:
  00032	8b 45 f8	 mov	 eax, DWORD PTR tv70[ebp]

; 459  : 		}

  00035	8b e5		 mov	 esp, ebp
  00037	5d		 pop	 ebp
  00038	c3		 ret	 0
?capacity@?$vector@U_tagLMCItemInfo@@V?$allocator@U_tagLMCItemInfo@@@std@@@std@@QBEIXZ ENDP ; std::vector<_tagLMCItemInfo,std::allocator<_tagLMCItemInfo> >::capacity
_TEXT	ENDS
PUBLIC	?_Insert_n@?$vector@U_tagLMCItemInfo@@V?$allocator@U_tagLMCItemInfo@@@std@@@std@@IAEXViterator@12@IABU_tagLMCItemInfo@@@Z ; std::vector<_tagLMCItemInfo,std::allocator<_tagLMCItemInfo> >::_Insert_n
PUBLIC	??Giterator@?$vector@U_tagLMCItemInfo@@V?$allocator@U_tagLMCItemInfo@@@std@@@std@@QBEHABVconst_iterator@12@@Z ; std::vector<_tagLMCItemInfo,std::allocator<_tagLMCItemInfo> >::iterator::operator-
; Function compile flags: /Odt
;	COMDAT ?insert@?$vector@U_tagLMCItemInfo@@V?$allocator@U_tagLMCItemInfo@@@std@@@std@@QAE?AViterator@12@V312@ABU_tagLMCItemInfo@@@Z
_TEXT	SEGMENT
tv73 = -20						; size = 4
_this$ = -16						; size = 4
$T199932 = -12						; size = 4
$T199929 = -8						; size = 4
__Off$ = -4						; size = 4
___$ReturnUdt$ = 8					; size = 4
__Where$ = 12						; size = 4
__Val$ = 16						; size = 4
?insert@?$vector@U_tagLMCItemInfo@@V?$allocator@U_tagLMCItemInfo@@@std@@@std@@QAE?AViterator@12@V312@ABU_tagLMCItemInfo@@@Z PROC NEAR ; std::vector<_tagLMCItemInfo,std::allocator<_tagLMCItemInfo> >::insert, COMDAT
; _this$ = ecx

; 620  : 		{	// insert _Val at _Where

  00000	55		 push	 ebp
  00001	8b ec		 mov	 ebp, esp
  00003	83 ec 14	 sub	 esp, 20			; 00000014H
  00006	89 4d f0	 mov	 DWORD PTR _this$[ebp], ecx

; 621  : 		size_type _Off = size() == 0 ? 0 : _Where - begin();

  00009	8b 4d f0	 mov	 ecx, DWORD PTR _this$[ebp]
  0000c	e8 00 00 00 00	 call	 ?size@?$vector@U_tagLMCItemInfo@@V?$allocator@U_tagLMCItemInfo@@@std@@@std@@QBEIXZ ; std::vector<_tagLMCItemInfo,std::allocator<_tagLMCItemInfo> >::size
  00011	85 c0		 test	 eax, eax
  00013	75 09		 jne	 SHORT $L199930
  00015	c7 45 ec 00 00
	00 00		 mov	 DWORD PTR tv73[ebp], 0
  0001c	eb 18		 jmp	 SHORT $L199931
$L199930:
  0001e	8d 45 f8	 lea	 eax, DWORD PTR $T199929[ebp]
  00021	50		 push	 eax
  00022	8b 4d f0	 mov	 ecx, DWORD PTR _this$[ebp]
  00025	e8 00 00 00 00	 call	 ?begin@?$vector@U_tagLMCItemInfo@@V?$allocator@U_tagLMCItemInfo@@@std@@@std@@QAE?AViterator@12@XZ ; std::vector<_tagLMCItemInfo,std::allocator<_tagLMCItemInfo> >::begin
  0002a	50		 push	 eax
  0002b	8d 4d 0c	 lea	 ecx, DWORD PTR __Where$[ebp]
  0002e	e8 00 00 00 00	 call	 ??Giterator@?$vector@U_tagLMCItemInfo@@V?$allocator@U_tagLMCItemInfo@@@std@@@std@@QBEHABVconst_iterator@12@@Z ; std::vector<_tagLMCItemInfo,std::allocator<_tagLMCItemInfo> >::iterator::operator-
  00033	89 45 ec	 mov	 DWORD PTR tv73[ebp], eax
$L199931:
  00036	8b 4d ec	 mov	 ecx, DWORD PTR tv73[ebp]
  00039	89 4d fc	 mov	 DWORD PTR __Off$[ebp], ecx

; 622  : 		_Insert_n(_Where, (size_type)1, _Val);

  0003c	8b 55 10	 mov	 edx, DWORD PTR __Val$[ebp]
  0003f	52		 push	 edx
  00040	6a 01		 push	 1
  00042	8b 45 0c	 mov	 eax, DWORD PTR __Where$[ebp]
  00045	50		 push	 eax
  00046	8b 4d f0	 mov	 ecx, DWORD PTR _this$[ebp]
  00049	e8 00 00 00 00	 call	 ?_Insert_n@?$vector@U_tagLMCItemInfo@@V?$allocator@U_tagLMCItemInfo@@@std@@@std@@IAEXViterator@12@IABU_tagLMCItemInfo@@@Z ; std::vector<_tagLMCItemInfo,std::allocator<_tagLMCItemInfo> >::_Insert_n

; 623  : 		return (begin() + _Off);

  0004e	8b 4d fc	 mov	 ecx, DWORD PTR __Off$[ebp]
  00051	51		 push	 ecx
  00052	8b 55 08	 mov	 edx, DWORD PTR ___$ReturnUdt$[ebp]
  00055	52		 push	 edx
  00056	8d 45 f4	 lea	 eax, DWORD PTR $T199932[ebp]
  00059	50		 push	 eax
  0005a	8b 4d f0	 mov	 ecx, DWORD PTR _this$[ebp]
  0005d	e8 00 00 00 00	 call	 ?begin@?$vector@U_tagLMCItemInfo@@V?$allocator@U_tagLMCItemInfo@@@std@@@std@@QAE?AViterator@12@XZ ; std::vector<_tagLMCItemInfo,std::allocator<_tagLMCItemInfo> >::begin
  00062	8b c8		 mov	 ecx, eax
  00064	e8 00 00 00 00	 call	 ??Hiterator@?$vector@U_tagLMCItemInfo@@V?$allocator@U_tagLMCItemInfo@@@std@@@std@@QBE?AV012@H@Z ; std::vector<_tagLMCItemInfo,std::allocator<_tagLMCItemInfo> >::iterator::operator+
  00069	8b 45 08	 mov	 eax, DWORD PTR ___$ReturnUdt$[ebp]

; 624  : 		}

  0006c	8b e5		 mov	 esp, ebp
  0006e	5d		 pop	 ebp
  0006f	c2 0c 00	 ret	 12			; 0000000cH
?insert@?$vector@U_tagLMCItemInfo@@V?$allocator@U_tagLMCItemInfo@@@std@@@std@@QAE?AViterator@12@V312@ABU_tagLMCItemInfo@@@Z ENDP ; std::vector<_tagLMCItemInfo,std::allocator<_tagLMCItemInfo> >::insert
_TEXT	ENDS
PUBLIC	?_Xlen@?$vector@U_tagLMCItemInfo@@V?$allocator@U_tagLMCItemInfo@@@std@@@std@@IBEXXZ ; std::vector<_tagLMCItemInfo,std::allocator<_tagLMCItemInfo> >::_Xlen
PUBLIC	?allocate@?$allocator@U_tagLMCItemInfo@@@std@@QAEPAU_tagLMCItemInfo@@I@Z ; std::allocator<_tagLMCItemInfo>::allocate
PUBLIC	?max_size@?$vector@U_tagLMCItemInfo@@V?$allocator@U_tagLMCItemInfo@@@std@@@std@@QBEIXZ ; std::vector<_tagLMCItemInfo,std::allocator<_tagLMCItemInfo> >::max_size
; Function compile flags: /Odt
;	COMDAT ?_Buy@?$vector@U_tagLMCItemInfo@@V?$allocator@U_tagLMCItemInfo@@@std@@@std@@IAE_NI@Z
_TEXT	SEGMENT
_this$ = -4						; size = 4
__Capacity$ = 8						; size = 4
?_Buy@?$vector@U_tagLMCItemInfo@@V?$allocator@U_tagLMCItemInfo@@@std@@@std@@IAE_NI@Z PROC NEAR ; std::vector<_tagLMCItemInfo,std::allocator<_tagLMCItemInfo> >::_Buy, COMDAT
; _this$ = ecx

; 770  : 		{	// allocate array with _Capacity elements

  00000	55		 push	 ebp
  00001	8b ec		 mov	 ebp, esp
  00003	51		 push	 ecx
  00004	89 4d fc	 mov	 DWORD PTR _this$[ebp], ecx

; 771  : 		_Myfirst = 0, _Mylast = 0, _Myend = 0;

  00007	8b 45 fc	 mov	 eax, DWORD PTR _this$[ebp]
  0000a	c7 40 04 00 00
	00 00		 mov	 DWORD PTR [eax+4], 0
  00011	8b 4d fc	 mov	 ecx, DWORD PTR _this$[ebp]
  00014	c7 41 08 00 00
	00 00		 mov	 DWORD PTR [ecx+8], 0
  0001b	8b 55 fc	 mov	 edx, DWORD PTR _this$[ebp]
  0001e	c7 42 0c 00 00
	00 00		 mov	 DWORD PTR [edx+12], 0

; 772  : 		if (_Capacity == 0)

  00025	83 7d 08 00	 cmp	 DWORD PTR __Capacity$[ebp], 0
  00029	75 04		 jne	 SHORT $L198923

; 773  : 			return (false);

  0002b	32 c0		 xor	 al, al
  0002d	eb 49		 jmp	 SHORT $L198922
$L198923:

; 774  : 		else if (max_size() < _Capacity)

  0002f	8b 4d fc	 mov	 ecx, DWORD PTR _this$[ebp]
  00032	e8 00 00 00 00	 call	 ?max_size@?$vector@U_tagLMCItemInfo@@V?$allocator@U_tagLMCItemInfo@@@std@@@std@@QBEIXZ ; std::vector<_tagLMCItemInfo,std::allocator<_tagLMCItemInfo> >::max_size
  00037	3b 45 08	 cmp	 eax, DWORD PTR __Capacity$[ebp]
  0003a	73 0a		 jae	 SHORT $L198925

; 775  : 			_Xlen();	// result too long

  0003c	8b 4d fc	 mov	 ecx, DWORD PTR _this$[ebp]
  0003f	e8 00 00 00 00	 call	 ?_Xlen@?$vector@U_tagLMCItemInfo@@V?$allocator@U_tagLMCItemInfo@@@std@@@std@@IBEXXZ ; std::vector<_tagLMCItemInfo,std::allocator<_tagLMCItemInfo> >::_Xlen

; 776  : 		else

  00044	eb 30		 jmp	 SHORT $L198924
$L198925:

; 777  : 			{	// nonempty array, allocate storage
; 778  : 			_Myfirst = this->_Alval.allocate(_Capacity);

  00046	8b 45 08	 mov	 eax, DWORD PTR __Capacity$[ebp]
  00049	50		 push	 eax
  0004a	8b 4d fc	 mov	 ecx, DWORD PTR _this$[ebp]
  0004d	e8 00 00 00 00	 call	 ?allocate@?$allocator@U_tagLMCItemInfo@@@std@@QAEPAU_tagLMCItemInfo@@I@Z ; std::allocator<_tagLMCItemInfo>::allocate
  00052	8b 4d fc	 mov	 ecx, DWORD PTR _this$[ebp]
  00055	89 41 04	 mov	 DWORD PTR [ecx+4], eax

; 779  : 			_Mylast = _Myfirst;

  00058	8b 55 fc	 mov	 edx, DWORD PTR _this$[ebp]
  0005b	8b 45 fc	 mov	 eax, DWORD PTR _this$[ebp]
  0005e	8b 48 04	 mov	 ecx, DWORD PTR [eax+4]
  00061	89 4a 08	 mov	 DWORD PTR [edx+8], ecx

; 780  : 			_Myend = _Myfirst + _Capacity;

  00064	8b 55 08	 mov	 edx, DWORD PTR __Capacity$[ebp]
  00067	6b d2 44	 imul	 edx, 68			; 00000044H
  0006a	8b 45 fc	 mov	 eax, DWORD PTR _this$[ebp]
  0006d	03 50 04	 add	 edx, DWORD PTR [eax+4]
  00070	8b 4d fc	 mov	 ecx, DWORD PTR _this$[ebp]
  00073	89 51 0c	 mov	 DWORD PTR [ecx+12], edx
$L198924:

; 781  : 			}
; 782  : 		return (true);

  00076	b0 01		 mov	 al, 1
$L198922:

; 783  : 		}

  00078	8b e5		 mov	 esp, ebp
  0007a	5d		 pop	 ebp
  0007b	c2 04 00	 ret	 4
?_Buy@?$vector@U_tagLMCItemInfo@@V?$allocator@U_tagLMCItemInfo@@@std@@@std@@IAE_NI@Z ENDP ; std::vector<_tagLMCItemInfo,std::allocator<_tagLMCItemInfo> >::_Buy
_TEXT	ENDS
PUBLIC	??$_Destroy_range@U_tagLMCItemInfo@@V?$allocator@U_tagLMCItemInfo@@@std@@@std@@YAXPAU_tagLMCItemInfo@@0AAV?$allocator@U_tagLMCItemInfo@@@0@@Z ; std::_Destroy_range<_tagLMCItemInfo,std::allocator<_tagLMCItemInfo> >
; Function compile flags: /Odt
;	COMDAT ?_Destroy@?$vector@U_tagLMCItemInfo@@V?$allocator@U_tagLMCItemInfo@@@std@@@std@@IAEXPAU_tagLMCItemInfo@@0@Z
_TEXT	SEGMENT
_this$ = -4						; size = 4
__First$ = 8						; size = 4
__Last$ = 12						; size = 4
?_Destroy@?$vector@U_tagLMCItemInfo@@V?$allocator@U_tagLMCItemInfo@@@std@@@std@@IAEXPAU_tagLMCItemInfo@@0@Z PROC NEAR ; std::vector<_tagLMCItemInfo,std::allocator<_tagLMCItemInfo> >::_Destroy, COMDAT
; _this$ = ecx

; 786  : 		{	// destroy [_First, _Last) using allocator

  00000	55		 push	 ebp
  00001	8b ec		 mov	 ebp, esp
  00003	51		 push	 ecx
  00004	89 4d fc	 mov	 DWORD PTR _this$[ebp], ecx

; 787  : 		_Destroy_range(_First, _Last, this->_Alval);

  00007	8b 45 fc	 mov	 eax, DWORD PTR _this$[ebp]
  0000a	50		 push	 eax
  0000b	8b 4d 0c	 mov	 ecx, DWORD PTR __Last$[ebp]
  0000e	51		 push	 ecx
  0000f	8b 55 08	 mov	 edx, DWORD PTR __First$[ebp]
  00012	52		 push	 edx
  00013	e8 00 00 00 00	 call	 ??$_Destroy_range@U_tagLMCItemInfo@@V?$allocator@U_tagLMCItemInfo@@@std@@@std@@YAXPAU_tagLMCItemInfo@@0AAV?$allocator@U_tagLMCItemInfo@@@0@@Z ; std::_Destroy_range<_tagLMCItemInfo,std::allocator<_tagLMCItemInfo> >
  00018	83 c4 0c	 add	 esp, 12			; 0000000cH

; 788  : 		}

  0001b	8b e5		 mov	 esp, ebp
  0001d	5d		 pop	 ebp
  0001e	c2 08 00	 ret	 8
?_Destroy@?$vector@U_tagLMCItemInfo@@V?$allocator@U_tagLMCItemInfo@@@std@@@std@@IAEXPAU_tagLMCItemInfo@@0@Z ENDP ; std::vector<_tagLMCItemInfo,std::allocator<_tagLMCItemInfo> >::_Destroy
_TEXT	ENDS
PUBLIC	?deallocate@?$allocator@U_tagLMCItemInfo@@@std@@QAEXPAU_tagLMCItemInfo@@I@Z ; std::allocator<_tagLMCItemInfo>::deallocate
; Function compile flags: /Odt
;	COMDAT ?_Tidy@?$vector@U_tagLMCItemInfo@@V?$allocator@U_tagLMCItemInfo@@@std@@@std@@IAEXXZ
_TEXT	SEGMENT
_this$ = -4						; size = 4
?_Tidy@?$vector@U_tagLMCItemInfo@@V?$allocator@U_tagLMCItemInfo@@@std@@@std@@IAEXXZ PROC NEAR ; std::vector<_tagLMCItemInfo,std::allocator<_tagLMCItemInfo> >::_Tidy, COMDAT
; _this$ = ecx

; 791  : 		{	// free all storage

  00000	55		 push	 ebp
  00001	8b ec		 mov	 ebp, esp
  00003	51		 push	 ecx
  00004	89 4d fc	 mov	 DWORD PTR _this$[ebp], ecx

; 792  : 		if (_Myfirst != 0)

  00007	8b 45 fc	 mov	 eax, DWORD PTR _this$[ebp]
  0000a	83 78 04 00	 cmp	 DWORD PTR [eax+4], 0
  0000e	74 3c		 je	 SHORT $L198938

; 793  : 			{	// something to free, destroy and deallocate it
; 794  : 			_Destroy(_Myfirst, _Mylast);

  00010	8b 4d fc	 mov	 ecx, DWORD PTR _this$[ebp]
  00013	8b 51 08	 mov	 edx, DWORD PTR [ecx+8]
  00016	52		 push	 edx
  00017	8b 45 fc	 mov	 eax, DWORD PTR _this$[ebp]
  0001a	8b 48 04	 mov	 ecx, DWORD PTR [eax+4]
  0001d	51		 push	 ecx
  0001e	8b 4d fc	 mov	 ecx, DWORD PTR _this$[ebp]
  00021	e8 00 00 00 00	 call	 ?_Destroy@?$vector@U_tagLMCItemInfo@@V?$allocator@U_tagLMCItemInfo@@@std@@@std@@IAEXPAU_tagLMCItemInfo@@0@Z ; std::vector<_tagLMCItemInfo,std::allocator<_tagLMCItemInfo> >::_Destroy

; 795  : 			this->_Alval.deallocate(_Myfirst, _Myend - _Myfirst);

  00026	8b 55 fc	 mov	 edx, DWORD PTR _this$[ebp]
  00029	8b 45 fc	 mov	 eax, DWORD PTR _this$[ebp]
  0002c	8b 4a 0c	 mov	 ecx, DWORD PTR [edx+12]
  0002f	2b 48 04	 sub	 ecx, DWORD PTR [eax+4]
  00032	8b c1		 mov	 eax, ecx
  00034	99		 cdq
  00035	b9 44 00 00 00	 mov	 ecx, 68			; 00000044H
  0003a	f7 f9		 idiv	 ecx
  0003c	50		 push	 eax
  0003d	8b 55 fc	 mov	 edx, DWORD PTR _this$[ebp]
  00040	8b 42 04	 mov	 eax, DWORD PTR [edx+4]
  00043	50		 push	 eax
  00044	8b 4d fc	 mov	 ecx, DWORD PTR _this$[ebp]
  00047	e8 00 00 00 00	 call	 ?deallocate@?$allocator@U_tagLMCItemInfo@@@std@@QAEXPAU_tagLMCItemInfo@@I@Z ; std::allocator<_tagLMCItemInfo>::deallocate
$L198938:

; 796  : 			}
; 797  : 		_Myfirst = 0, _Mylast = 0, _Myend = 0;

  0004c	8b 4d fc	 mov	 ecx, DWORD PTR _this$[ebp]
  0004f	c7 41 04 00 00
	00 00		 mov	 DWORD PTR [ecx+4], 0
  00056	8b 55 fc	 mov	 edx, DWORD PTR _this$[ebp]
  00059	c7 42 08 00 00
	00 00		 mov	 DWORD PTR [edx+8], 0
  00060	8b 45 fc	 mov	 eax, DWORD PTR _this$[ebp]
  00063	c7 40 0c 00 00
	00 00		 mov	 DWORD PTR [eax+12], 0

; 798  : 		}

  0006a	8b e5		 mov	 esp, ebp
  0006c	5d		 pop	 ebp
  0006d	c3		 ret	 0
?_Tidy@?$vector@U_tagLMCItemInfo@@V?$allocator@U_tagLMCItemInfo@@@std@@@std@@IAEXXZ ENDP ; std::vector<_tagLMCItemInfo,std::allocator<_tagLMCItemInfo> >::_Tidy
_TEXT	ENDS
PUBLIC	??$_Uninitialized_fill_n@PAU_tagLMCItemInfo@@IU1@V?$allocator@U_tagLMCItemInfo@@@std@@@std@@YAXPAU_tagLMCItemInfo@@IABU1@AAV?$allocator@U_tagLMCItemInfo@@@0@@Z ; std::_Uninitialized_fill_n<_tagLMCItemInfo *,unsigned int,_tagLMCItemInfo,std::allocator<_tagLMCItemInfo> >
; Function compile flags: /Odt
;	COMDAT ?_Ufill@?$vector@U_tagLMCItemInfo@@V?$allocator@U_tagLMCItemInfo@@@std@@@std@@IAEPAU_tagLMCItemInfo@@PAU3@IABU3@@Z
_TEXT	SEGMENT
_this$ = -4						; size = 4
__Ptr$ = 8						; size = 4
__Count$ = 12						; size = 4
__Val$ = 16						; size = 4
?_Ufill@?$vector@U_tagLMCItemInfo@@V?$allocator@U_tagLMCItemInfo@@@std@@@std@@IAEPAU_tagLMCItemInfo@@PAU3@IABU3@@Z PROC NEAR ; std::vector<_tagLMCItemInfo,std::allocator<_tagLMCItemInfo> >::_Ufill, COMDAT
; _this$ = ecx

; 877  : 		{	// copy initializing _Count * _Val, using allocator

  00000	55		 push	 ebp
  00001	8b ec		 mov	 ebp, esp
  00003	51		 push	 ecx
  00004	89 4d fc	 mov	 DWORD PTR _this$[ebp], ecx

; 878  : 		_Uninitialized_fill_n(_Ptr, _Count, _Val, this->_Alval);

  00007	8b 45 fc	 mov	 eax, DWORD PTR _this$[ebp]
  0000a	50		 push	 eax
  0000b	8b 4d 10	 mov	 ecx, DWORD PTR __Val$[ebp]
  0000e	51		 push	 ecx
  0000f	8b 55 0c	 mov	 edx, DWORD PTR __Count$[ebp]
  00012	52		 push	 edx
  00013	8b 45 08	 mov	 eax, DWORD PTR __Ptr$[ebp]
  00016	50		 push	 eax
  00017	e8 00 00 00 00	 call	 ??$_Uninitialized_fill_n@PAU_tagLMCItemInfo@@IU1@V?$allocator@U_tagLMCItemInfo@@@std@@@std@@YAXPAU_tagLMCItemInfo@@IABU1@AAV?$allocator@U_tagLMCItemInfo@@@0@@Z ; std::_Uninitialized_fill_n<_tagLMCItemInfo *,unsigned int,_tagLMCItemInfo,std::allocator<_tagLMCItemInfo> >
  0001c	83 c4 10	 add	 esp, 16			; 00000010H

; 879  : 		return (_Ptr + _Count);

  0001f	8b 45 0c	 mov	 eax, DWORD PTR __Count$[ebp]
  00022	6b c0 44	 imul	 eax, 68			; 00000044H
  00025	03 45 08	 add	 eax, DWORD PTR __Ptr$[ebp]

; 880  : 		}

  00028	8b e5		 mov	 esp, ebp
  0002a	5d		 pop	 ebp
  0002b	c2 0c 00	 ret	 12			; 0000000cH
?_Ufill@?$vector@U_tagLMCItemInfo@@V?$allocator@U_tagLMCItemInfo@@@std@@@std@@IAEPAU_tagLMCItemInfo@@PAU3@IABU3@@Z ENDP ; std::vector<_tagLMCItemInfo,std::allocator<_tagLMCItemInfo> >::_Ufill
_TEXT	ENDS
PUBLIC	??0?$allocator@U_tagLMCItemInfo@@@std@@QAE@ABV01@@Z ; std::allocator<_tagLMCItemInfo>::allocator<_tagLMCItemInfo>
; Function compile flags: /Odt
;	COMDAT ??0?$_Vector_val@U_tagLMCItemInfo@@V?$allocator@U_tagLMCItemInfo@@@std@@@std@@IAE@V?$allocator@U_tagLMCItemInfo@@@1@@Z
_TEXT	SEGMENT
_this$ = -4						; size = 4
__Al$ = 8						; size = 1
??0?$_Vector_val@U_tagLMCItemInfo@@V?$allocator@U_tagLMCItemInfo@@@std@@@std@@IAE@V?$allocator@U_tagLMCItemInfo@@@1@@Z PROC NEAR ; std::_Vector_val<_tagLMCItemInfo,std::allocator<_tagLMCItemInfo> >::_Vector_val<_tagLMCItemInfo,std::allocator<_tagLMCItemInfo> >, COMDAT
; _this$ = ecx

; 21   : 		{	// construct allocator from _Al

  00000	55		 push	 ebp
  00001	8b ec		 mov	 ebp, esp
  00003	51		 push	 ecx
  00004	89 4d fc	 mov	 DWORD PTR _this$[ebp], ecx
  00007	8d 45 08	 lea	 eax, DWORD PTR __Al$[ebp]
  0000a	50		 push	 eax
  0000b	8b 4d fc	 mov	 ecx, DWORD PTR _this$[ebp]
  0000e	e8 00 00 00 00	 call	 ??0?$allocator@U_tagLMCItemInfo@@@std@@QAE@ABV01@@Z ; std::allocator<_tagLMCItemInfo>::allocator<_tagLMCItemInfo>

; 22   : 		}

  00013	8b 45 fc	 mov	 eax, DWORD PTR _this$[ebp]
  00016	8b e5		 mov	 esp, ebp
  00018	5d		 pop	 ebp
  00019	c2 04 00	 ret	 4
??0?$_Vector_val@U_tagLMCItemInfo@@V?$allocator@U_tagLMCItemInfo@@@std@@@std@@IAE@V?$allocator@U_tagLMCItemInfo@@@1@@Z ENDP ; std::_Vector_val<_tagLMCItemInfo,std::allocator<_tagLMCItemInfo> >::_Vector_val<_tagLMCItemInfo,std::allocator<_tagLMCItemInfo> >
; Function compile flags: /Odt
; File d:\program files (x86)\microsoft visual studio .net 2003\vc7\include\xmemory
_TEXT	ENDS
;	COMDAT ??0?$allocator@U_tagLMCItemInfo@@@std@@QAE@XZ
_TEXT	SEGMENT
_this$ = -4						; size = 4
??0?$allocator@U_tagLMCItemInfo@@@std@@QAE@XZ PROC NEAR	; std::allocator<_tagLMCItemInfo>::allocator<_tagLMCItemInfo>, COMDAT
; _this$ = ecx

; 111  : 	allocator()

  00000	55		 push	 ebp
  00001	8b ec		 mov	 ebp, esp
  00003	51		 push	 ecx
  00004	89 4d fc	 mov	 DWORD PTR _this$[ebp], ecx

; 112  : 		{	// construct default allocator (do nothing)
; 113  : 		}

  00007	8b 45 fc	 mov	 eax, DWORD PTR _this$[ebp]
  0000a	8b e5		 mov	 esp, ebp
  0000c	5d		 pop	 ebp
  0000d	c3		 ret	 0
??0?$allocator@U_tagLMCItemInfo@@@std@@QAE@XZ ENDP	; std::allocator<_tagLMCItemInfo>::allocator<_tagLMCItemInfo>
_TEXT	ENDS
PUBLIC	??0const_iterator@?$vector@U_tagLMCItemInfo@@V?$allocator@U_tagLMCItemInfo@@@std@@@std@@QAE@PAU_tagLMCItemInfo@@@Z ; std::vector<_tagLMCItemInfo,std::allocator<_tagLMCItemInfo> >::const_iterator::const_iterator
; Function compile flags: /Odt
; File d:\program files (x86)\microsoft visual studio .net 2003\vc7\include\vector
;	COMDAT ??0iterator@?$vector@U_tagLMCItemInfo@@V?$allocator@U_tagLMCItemInfo@@@std@@@std@@QAE@PAU_tagLMCItemInfo@@@Z
_TEXT	SEGMENT
_this$ = -4						; size = 4
__Ptr$ = 8						; size = 4
??0iterator@?$vector@U_tagLMCItemInfo@@V?$allocator@U_tagLMCItemInfo@@@std@@@std@@QAE@PAU_tagLMCItemInfo@@@Z PROC NEAR ; std::vector<_tagLMCItemInfo,std::allocator<_tagLMCItemInfo> >::iterator::iterator, COMDAT
; _this$ = ecx

; 215  : 			{	// construct with pointer _Ptr

  00000	55		 push	 ebp
  00001	8b ec		 mov	 ebp, esp
  00003	51		 push	 ecx
  00004	89 4d fc	 mov	 DWORD PTR _this$[ebp], ecx
  00007	8b 45 08	 mov	 eax, DWORD PTR __Ptr$[ebp]
  0000a	50		 push	 eax
  0000b	8b 4d fc	 mov	 ecx, DWORD PTR _this$[ebp]
  0000e	e8 00 00 00 00	 call	 ??0const_iterator@?$vector@U_tagLMCItemInfo@@V?$allocator@U_tagLMCItemInfo@@@std@@@std@@QAE@PAU_tagLMCItemInfo@@@Z ; std::vector<_tagLMCItemInfo,std::allocator<_tagLMCItemInfo> >::const_iterator::const_iterator

; 216  : 			}

  00013	8b 45 fc	 mov	 eax, DWORD PTR _this$[ebp]
  00016	8b e5		 mov	 esp, ebp
  00018	5d		 pop	 ebp
  00019	c2 04 00	 ret	 4
??0iterator@?$vector@U_tagLMCItemInfo@@V?$allocator@U_tagLMCItemInfo@@@std@@@std@@QAE@PAU_tagLMCItemInfo@@@Z ENDP ; std::vector<_tagLMCItemInfo,std::allocator<_tagLMCItemInfo> >::iterator::iterator
_TEXT	ENDS
PUBLIC	??Dconst_iterator@?$vector@U_tagLMCItemInfo@@V?$allocator@U_tagLMCItemInfo@@@std@@@std@@QBEABU_tagLMCItemInfo@@XZ ; std::vector<_tagLMCItemInfo,std::allocator<_tagLMCItemInfo> >::const_iterator::operator*
; Function compile flags: /Odt
;	COMDAT ??Diterator@?$vector@U_tagLMCItemInfo@@V?$allocator@U_tagLMCItemInfo@@@std@@@std@@QBEAAU_tagLMCItemInfo@@XZ
_TEXT	SEGMENT
_this$ = -4						; size = 4
??Diterator@?$vector@U_tagLMCItemInfo@@V?$allocator@U_tagLMCItemInfo@@@std@@@std@@QBEAAU_tagLMCItemInfo@@XZ PROC NEAR ; std::vector<_tagLMCItemInfo,std::allocator<_tagLMCItemInfo> >::iterator::operator*, COMDAT
; _this$ = ecx

; 219  : 			{	// return designated object

  00000	55		 push	 ebp
  00001	8b ec		 mov	 ebp, esp
  00003	51		 push	 ecx
  00004	89 4d fc	 mov	 DWORD PTR _this$[ebp], ecx

; 220  : 			return ((reference)**(const_iterator *)this);

  00007	8b 4d fc	 mov	 ecx, DWORD PTR _this$[ebp]
  0000a	e8 00 00 00 00	 call	 ??Dconst_iterator@?$vector@U_tagLMCItemInfo@@V?$allocator@U_tagLMCItemInfo@@@std@@@std@@QBEABU_tagLMCItemInfo@@XZ ; std::vector<_tagLMCItemInfo,std::allocator<_tagLMCItemInfo> >::const_iterator::operator*

; 221  : 			}

  0000f	8b e5		 mov	 esp, ebp
  00011	5d		 pop	 ebp
  00012	c3		 ret	 0
??Diterator@?$vector@U_tagLMCItemInfo@@V?$allocator@U_tagLMCItemInfo@@@std@@@std@@QBEAAU_tagLMCItemInfo@@XZ ENDP ; std::vector<_tagLMCItemInfo,std::allocator<_tagLMCItemInfo> >::iterator::operator*
_TEXT	ENDS
PUBLIC	??Yiterator@?$vector@U_tagLMCItemInfo@@V?$allocator@U_tagLMCItemInfo@@@std@@@std@@QAEAAV012@H@Z ; std::vector<_tagLMCItemInfo,std::allocator<_tagLMCItemInfo> >::iterator::operator+=
; Function compile flags: /Odt
;	COMDAT ??Hiterator@?$vector@U_tagLMCItemInfo@@V?$allocator@U_tagLMCItemInfo@@@std@@@std@@QBE?AV012@H@Z
_TEXT	SEGMENT
_this$ = -8						; size = 4
__Tmp$ = -4						; size = 4
___$ReturnUdt$ = 8					; size = 4
__Off$ = 12						; size = 4
??Hiterator@?$vector@U_tagLMCItemInfo@@V?$allocator@U_tagLMCItemInfo@@@std@@@std@@QBE?AV012@H@Z PROC NEAR ; std::vector<_tagLMCItemInfo,std::allocator<_tagLMCItemInfo> >::iterator::operator+, COMDAT
; _this$ = ecx

; 261  : 			{	// return this + integer

  00000	55		 push	 ebp
  00001	8b ec		 mov	 ebp, esp
  00003	83 ec 08	 sub	 esp, 8
  00006	89 4d f8	 mov	 DWORD PTR _this$[ebp], ecx

; 262  : 			iterator _Tmp = *this;

  00009	8b 45 f8	 mov	 eax, DWORD PTR _this$[ebp]
  0000c	8b 08		 mov	 ecx, DWORD PTR [eax]
  0000e	89 4d fc	 mov	 DWORD PTR __Tmp$[ebp], ecx

; 263  : 			return (_Tmp += _Off);

  00011	8b 55 0c	 mov	 edx, DWORD PTR __Off$[ebp]
  00014	52		 push	 edx
  00015	8d 4d fc	 lea	 ecx, DWORD PTR __Tmp$[ebp]
  00018	e8 00 00 00 00	 call	 ??Yiterator@?$vector@U_tagLMCItemInfo@@V?$allocator@U_tagLMCItemInfo@@@std@@@std@@QAEAAV012@H@Z ; std::vector<_tagLMCItemInfo,std::allocator<_tagLMCItemInfo> >::iterator::operator+=
  0001d	8b 00		 mov	 eax, DWORD PTR [eax]
  0001f	8b 4d 08	 mov	 ecx, DWORD PTR ___$ReturnUdt$[ebp]
  00022	89 01		 mov	 DWORD PTR [ecx], eax
  00024	8b 45 08	 mov	 eax, DWORD PTR ___$ReturnUdt$[ebp]

; 264  : 			}

  00027	8b e5		 mov	 esp, ebp
  00029	5d		 pop	 ebp
  0002a	c2 08 00	 ret	 8
??Hiterator@?$vector@U_tagLMCItemInfo@@V?$allocator@U_tagLMCItemInfo@@@std@@@std@@QBE?AV012@H@Z ENDP ; std::vector<_tagLMCItemInfo,std::allocator<_tagLMCItemInfo> >::iterator::operator+
_TEXT	ENDS
PUBLIC	??8const_iterator@?$vector@U_tagLMCItemInfo@@V?$allocator@U_tagLMCItemInfo@@@std@@@std@@QBE_NABV012@@Z ; std::vector<_tagLMCItemInfo,std::allocator<_tagLMCItemInfo> >::const_iterator::operator==
; Function compile flags: /Odt
;	COMDAT ??9const_iterator@?$vector@U_tagLMCItemInfo@@V?$allocator@U_tagLMCItemInfo@@@std@@@std@@QBE_NABV012@@Z
_TEXT	SEGMENT
_this$ = -4						; size = 4
__Right$ = 8						; size = 4
??9const_iterator@?$vector@U_tagLMCItemInfo@@V?$allocator@U_tagLMCItemInfo@@@std@@@std@@QBE_NABV012@@Z PROC NEAR ; std::vector<_tagLMCItemInfo,std::allocator<_tagLMCItemInfo> >::const_iterator::operator!=, COMDAT
; _this$ = ecx

; 159  : 			{	// test for iterator inequality

  00000	55		 push	 ebp
  00001	8b ec		 mov	 ebp, esp
  00003	51		 push	 ecx
  00004	89 4d fc	 mov	 DWORD PTR _this$[ebp], ecx

; 160  : 			return (!(*this == _Right));

  00007	8b 45 08	 mov	 eax, DWORD PTR __Right$[ebp]
  0000a	50		 push	 eax
  0000b	8b 4d fc	 mov	 ecx, DWORD PTR _this$[ebp]
  0000e	e8 00 00 00 00	 call	 ??8const_iterator@?$vector@U_tagLMCItemInfo@@V?$allocator@U_tagLMCItemInfo@@@std@@@std@@QBE_NABV012@@Z ; std::vector<_tagLMCItemInfo,std::allocator<_tagLMCItemInfo> >::const_iterator::operator==
  00013	0f b6 c0	 movzx	 eax, al
  00016	f7 d8		 neg	 eax
  00018	1b c0		 sbb	 eax, eax
  0001a	40		 inc	 eax

; 161  : 			}

  0001b	8b e5		 mov	 esp, ebp
  0001d	5d		 pop	 ebp
  0001e	c2 04 00	 ret	 4
??9const_iterator@?$vector@U_tagLMCItemInfo@@V?$allocator@U_tagLMCItemInfo@@@std@@@std@@QBE_NABV012@@Z ENDP ; std::vector<_tagLMCItemInfo,std::allocator<_tagLMCItemInfo> >::const_iterator::operator!=
_TEXT	ENDS
PUBLIC	?max_size@?$allocator@U_tagLMCItemInfo@@@std@@QBEIXZ ; std::allocator<_tagLMCItemInfo>::max_size
; Function compile flags: /Odt
;	COMDAT ?max_size@?$vector@U_tagLMCItemInfo@@V?$allocator@U_tagLMCItemInfo@@@std@@@std@@QBEIXZ
_TEXT	SEGMENT
_this$ = -4						; size = 4
?max_size@?$vector@U_tagLMCItemInfo@@V?$allocator@U_tagLMCItemInfo@@@std@@@std@@QBEIXZ PROC NEAR ; std::vector<_tagLMCItemInfo,std::allocator<_tagLMCItemInfo> >::max_size, COMDAT
; _this$ = ecx

; 520  : 		{	// return maximum possible length of sequence

  00000	55		 push	 ebp
  00001	8b ec		 mov	 ebp, esp
  00003	51		 push	 ecx
  00004	89 4d fc	 mov	 DWORD PTR _this$[ebp], ecx

; 521  : 		return (this->_Alval.max_size());

  00007	8b 4d fc	 mov	 ecx, DWORD PTR _this$[ebp]
  0000a	e8 00 00 00 00	 call	 ?max_size@?$allocator@U_tagLMCItemInfo@@@std@@QBEIXZ ; std::allocator<_tagLMCItemInfo>::max_size

; 522  : 		}

  0000f	8b e5		 mov	 esp, ebp
  00011	5d		 pop	 ebp
  00012	c3		 ret	 0
?max_size@?$vector@U_tagLMCItemInfo@@V?$allocator@U_tagLMCItemInfo@@@std@@@std@@QBEIXZ ENDP ; std::vector<_tagLMCItemInfo,std::allocator<_tagLMCItemInfo> >::max_size
_TEXT	ENDS
PUBLIC	??$_Ucopy@PAU_tagLMCItemInfo@@@?$vector@U_tagLMCItemInfo@@V?$allocator@U_tagLMCItemInfo@@@std@@@std@@IAEPAU_tagLMCItemInfo@@PAU2@00@Z ; std::vector<_tagLMCItemInfo,std::allocator<_tagLMCItemInfo> >::_Ucopy<_tagLMCItemInfo *>
PUBLIC	??$fill@PAU_tagLMCItemInfo@@U1@@std@@YAXPAU_tagLMCItemInfo@@0ABU1@@Z ; std::fill<_tagLMCItemInfo *,_tagLMCItemInfo>
PUBLIC	??$copy_backward@PAU_tagLMCItemInfo@@PAU1@@std@@YAPAU_tagLMCItemInfo@@PAU1@00@Z ; std::copy_backward<_tagLMCItemInfo *,_tagLMCItemInfo *>
PUBLIC	??0_tagLMCItemInfo@@QAE@ABU0@@Z			; _tagLMCItemInfo::_tagLMCItemInfo
EXTRN	__CxxThrowException@8:NEAR
;	COMDAT xdata$x
xdata$x	SEGMENT
$T199970 DD	0ffffffffH
	DD	FLAT:$L199965
	DD	00H
	DD	00H
	DD	00H
	DD	00H
	DD	00H
	DD	00H
	DD	00H
	DD	00H
$T199972 DD	00H
	DD	00H
	DD	00H
	DD	FLAT:$L199962
$T199973 DD	00H
	DD	00H
	DD	00H
	DD	FLAT:$L199964
$T199971 DD	01H
	DD	01H
	DD	02H
	DD	01H
	DD	FLAT:$T199972
	DD	03H
	DD	03H
	DD	04H
	DD	01H
	DD	FLAT:$T199973
$T199967 DD	019930520H
	DD	05H
	DD	FLAT:$T199970
	DD	02H
	DD	FLAT:$T199971
	DD	2 DUP(00H)
; Function compile flags: /Odt
xdata$x	ENDS
;	COMDAT ?_Insert_n@?$vector@U_tagLMCItemInfo@@V?$allocator@U_tagLMCItemInfo@@@std@@@std@@IAEXViterator@12@IABU_tagLMCItemInfo@@@Z
_TEXT	SEGMENT
tv244 = -128						; size = 4
tv65 = -124						; size = 4
tv89 = -120						; size = 4
_this$ = -116						; size = 4
__Oldend$199040 = -112					; size = 4
__Newvec$199019 = -108					; size = 4
__Ptr$199020 = -104					; size = 4
__Capacity$ = -100					; size = 4
__Tmp$ = -96						; size = 68
__$ArrayPad$ = -20					; size = 4
__$EHRec$ = -16						; size = 16
__$ReturnAddr$ = 4					; size = 4
__Where$ = 8						; size = 4
__Count$ = 12						; size = 4
__Val$ = 16						; size = 4
?_Insert_n@?$vector@U_tagLMCItemInfo@@V?$allocator@U_tagLMCItemInfo@@@std@@@std@@IAEXViterator@12@IABU_tagLMCItemInfo@@@Z PROC NEAR ; std::vector<_tagLMCItemInfo,std::allocator<_tagLMCItemInfo> >::_Insert_n, COMDAT
; _this$ = ecx

; 809  : 		{	// insert _Count * _Val at _Where

  00000	55		 push	 ebp
  00001	8b ec		 mov	 ebp, esp
  00003	6a ff		 push	 -1
  00005	68 00 00 00 00	 push	 __ehhandler$?_Insert_n@?$vector@U_tagLMCItemInfo@@V?$allocator@U_tagLMCItemInfo@@@std@@@std@@IAEXViterator@12@IABU_tagLMCItemInfo@@@Z
  0000a	64 a1 00 00 00
	00		 mov	 eax, DWORD PTR fs:__except_list
  00010	50		 push	 eax
  00011	64 89 25 00 00
	00 00		 mov	 DWORD PTR fs:__except_list, esp
  00018	51		 push	 ecx
  00019	83 ec 70	 sub	 esp, 112		; 00000070H
  0001c	a1 00 00 00 00	 mov	 eax, DWORD PTR ___security_cookie
  00021	89 45 ec	 mov	 DWORD PTR __$ArrayPad$[ebp], eax
  00024	53		 push	 ebx
  00025	56		 push	 esi
  00026	57		 push	 edi
  00027	89 65 f0	 mov	 DWORD PTR __$EHRec$[ebp], esp
  0002a	89 4d 8c	 mov	 DWORD PTR _this$[ebp], ecx

; 810  : 		_Ty _Tmp = _Val;	// in case _Val is in sequence

  0002d	8b 45 10	 mov	 eax, DWORD PTR __Val$[ebp]
  00030	50		 push	 eax
  00031	8d 4d a0	 lea	 ecx, DWORD PTR __Tmp$[ebp]
  00034	e8 00 00 00 00	 call	 ??0_tagLMCItemInfo@@QAE@ABU0@@Z
  00039	c7 45 fc 00 00
	00 00		 mov	 DWORD PTR __$EHRec$[ebp+12], 0

; 811  : 		size_type _Capacity = capacity();

  00040	8b 4d 8c	 mov	 ecx, DWORD PTR _this$[ebp]
  00043	e8 00 00 00 00	 call	 ?capacity@?$vector@U_tagLMCItemInfo@@V?$allocator@U_tagLMCItemInfo@@@std@@@std@@QBEIXZ ; std::vector<_tagLMCItemInfo,std::allocator<_tagLMCItemInfo> >::capacity
  00048	89 45 9c	 mov	 DWORD PTR __Capacity$[ebp], eax

; 812  : 
; 813  : 		if (_Count == 0)

  0004b	83 7d 0c 00	 cmp	 DWORD PTR __Count$[ebp], 0
  0004f	75 05		 jne	 SHORT $L199013

; 814  : 			;
; 815  : 		else if (max_size() - size() < _Count)

  00051	e9 cf 02 00 00	 jmp	 $L199014
$L199013:
  00056	8b 4d 8c	 mov	 ecx, DWORD PTR _this$[ebp]
  00059	e8 00 00 00 00	 call	 ?size@?$vector@U_tagLMCItemInfo@@V?$allocator@U_tagLMCItemInfo@@@std@@@std@@QBEIXZ ; std::vector<_tagLMCItemInfo,std::allocator<_tagLMCItemInfo> >::size
  0005e	8b f0		 mov	 esi, eax
  00060	8b 4d 8c	 mov	 ecx, DWORD PTR _this$[ebp]
  00063	e8 00 00 00 00	 call	 ?max_size@?$vector@U_tagLMCItemInfo@@V?$allocator@U_tagLMCItemInfo@@@std@@@std@@QBEIXZ ; std::vector<_tagLMCItemInfo,std::allocator<_tagLMCItemInfo> >::max_size
  00068	2b c6		 sub	 eax, esi
  0006a	3b 45 0c	 cmp	 eax, DWORD PTR __Count$[ebp]
  0006d	73 0d		 jae	 SHORT $L199015

; 816  : 			_Xlen();	// result too long

  0006f	8b 4d 8c	 mov	 ecx, DWORD PTR _this$[ebp]
  00072	e8 00 00 00 00	 call	 ?_Xlen@?$vector@U_tagLMCItemInfo@@V?$allocator@U_tagLMCItemInfo@@@std@@@std@@IBEXXZ ; std::vector<_tagLMCItemInfo,std::allocator<_tagLMCItemInfo> >::_Xlen

; 817  : 		else if (_Capacity < size() + _Count)

  00077	e9 a9 02 00 00	 jmp	 $L199014
$L199015:
  0007c	8b 4d 8c	 mov	 ecx, DWORD PTR _this$[ebp]
  0007f	e8 00 00 00 00	 call	 ?size@?$vector@U_tagLMCItemInfo@@V?$allocator@U_tagLMCItemInfo@@@std@@@std@@QBEIXZ ; std::vector<_tagLMCItemInfo,std::allocator<_tagLMCItemInfo> >::size
  00084	03 45 0c	 add	 eax, DWORD PTR __Count$[ebp]
  00087	39 45 9c	 cmp	 DWORD PTR __Capacity$[ebp], eax
  0008a	0f 83 68 01 00
	00		 jae	 $L199017

; 818  : 			{	// not enough room, reallocate
; 819  : 			_Capacity = max_size() - _Capacity / 2 < _Capacity
; 820  : 				? 0 : _Capacity + _Capacity / 2;	// try to grow by 50%

  00090	8b 75 9c	 mov	 esi, DWORD PTR __Capacity$[ebp]
  00093	d1 ee		 shr	 esi, 1
  00095	8b 4d 8c	 mov	 ecx, DWORD PTR _this$[ebp]
  00098	e8 00 00 00 00	 call	 ?max_size@?$vector@U_tagLMCItemInfo@@V?$allocator@U_tagLMCItemInfo@@@std@@@std@@QBEIXZ ; std::vector<_tagLMCItemInfo,std::allocator<_tagLMCItemInfo> >::max_size
  0009d	2b c6		 sub	 eax, esi
  0009f	3b 45 9c	 cmp	 eax, DWORD PTR __Capacity$[ebp]
  000a2	73 09		 jae	 SHORT $L199958
  000a4	c7 45 88 00 00
	00 00		 mov	 DWORD PTR tv89[ebp], 0
  000ab	eb 0b		 jmp	 SHORT $L199959
$L199958:
  000ad	8b 4d 9c	 mov	 ecx, DWORD PTR __Capacity$[ebp]
  000b0	d1 e9		 shr	 ecx, 1
  000b2	03 4d 9c	 add	 ecx, DWORD PTR __Capacity$[ebp]
  000b5	89 4d 88	 mov	 DWORD PTR tv89[ebp], ecx
$L199959:
  000b8	8b 55 88	 mov	 edx, DWORD PTR tv89[ebp]
  000bb	89 55 9c	 mov	 DWORD PTR __Capacity$[ebp], edx

; 821  : 			if (_Capacity < size() + _Count)

  000be	8b 4d 8c	 mov	 ecx, DWORD PTR _this$[ebp]
  000c1	e8 00 00 00 00	 call	 ?size@?$vector@U_tagLMCItemInfo@@V?$allocator@U_tagLMCItemInfo@@@std@@@std@@QBEIXZ ; std::vector<_tagLMCItemInfo,std::allocator<_tagLMCItemInfo> >::size
  000c6	03 45 0c	 add	 eax, DWORD PTR __Count$[ebp]
  000c9	39 45 9c	 cmp	 DWORD PTR __Capacity$[ebp], eax
  000cc	73 0e		 jae	 SHORT $L199018

; 822  : 				_Capacity = size() + _Count;

  000ce	8b 4d 8c	 mov	 ecx, DWORD PTR _this$[ebp]
  000d1	e8 00 00 00 00	 call	 ?size@?$vector@U_tagLMCItemInfo@@V?$allocator@U_tagLMCItemInfo@@@std@@@std@@QBEIXZ ; std::vector<_tagLMCItemInfo,std::allocator<_tagLMCItemInfo> >::size
  000d6	03 45 0c	 add	 eax, DWORD PTR __Count$[ebp]
  000d9	89 45 9c	 mov	 DWORD PTR __Capacity$[ebp], eax
$L199018:

; 823  : 			pointer _Newvec = this->_Alval.allocate(_Capacity);

  000dc	8b 45 9c	 mov	 eax, DWORD PTR __Capacity$[ebp]
  000df	50		 push	 eax
  000e0	8b 4d 8c	 mov	 ecx, DWORD PTR _this$[ebp]
  000e3	e8 00 00 00 00	 call	 ?allocate@?$allocator@U_tagLMCItemInfo@@@std@@QAEPAU_tagLMCItemInfo@@I@Z ; std::allocator<_tagLMCItemInfo>::allocate
  000e8	89 45 94	 mov	 DWORD PTR __Newvec$199019[ebp], eax

; 824  : 			pointer _Ptr = _Newvec;

  000eb	8b 4d 94	 mov	 ecx, DWORD PTR __Newvec$199019[ebp]
  000ee	89 4d 98	 mov	 DWORD PTR __Ptr$199020[ebp], ecx

; 825  : 
; 826  : 			_TRY_BEGIN

  000f1	c6 45 fc 01	 mov	 BYTE PTR __$EHRec$[ebp+12], 1

; 827  : 			_Ptr = _Ucopy(_Myfirst, _ITER_BASE(_Where),
; 828  : 				_Newvec);	// copy prefix

  000f5	8b 55 94	 mov	 edx, DWORD PTR __Newvec$199019[ebp]
  000f8	52		 push	 edx
  000f9	8b 45 08	 mov	 eax, DWORD PTR __Where$[ebp]
  000fc	50		 push	 eax
  000fd	8b 4d 8c	 mov	 ecx, DWORD PTR _this$[ebp]
  00100	8b 51 04	 mov	 edx, DWORD PTR [ecx+4]
  00103	52		 push	 edx
  00104	8b 4d 8c	 mov	 ecx, DWORD PTR _this$[ebp]
  00107	e8 00 00 00 00	 call	 ??$_Ucopy@PAU_tagLMCItemInfo@@@?$vector@U_tagLMCItemInfo@@V?$allocator@U_tagLMCItemInfo@@@std@@@std@@IAEPAU_tagLMCItemInfo@@PAU2@00@Z ; std::vector<_tagLMCItemInfo,std::allocator<_tagLMCItemInfo> >::_Ucopy<_tagLMCItemInfo *>
  0010c	89 45 84	 mov	 DWORD PTR tv65[ebp], eax
  0010f	8b 45 84	 mov	 eax, DWORD PTR tv65[ebp]
  00112	89 45 98	 mov	 DWORD PTR __Ptr$199020[ebp], eax

; 829  : 			_Ptr = _Ufill(_Ptr, _Count, _Tmp);	// add new stuff

  00115	8d 4d a0	 lea	 ecx, DWORD PTR __Tmp$[ebp]
  00118	51		 push	 ecx
  00119	8b 55 0c	 mov	 edx, DWORD PTR __Count$[ebp]
  0011c	52		 push	 edx
  0011d	8b 45 98	 mov	 eax, DWORD PTR __Ptr$199020[ebp]
  00120	50		 push	 eax
  00121	8b 4d 8c	 mov	 ecx, DWORD PTR _this$[ebp]
  00124	e8 00 00 00 00	 call	 ?_Ufill@?$vector@U_tagLMCItemInfo@@V?$allocator@U_tagLMCItemInfo@@@std@@@std@@IAEPAU_tagLMCItemInfo@@PAU3@IABU3@@Z ; std::vector<_tagLMCItemInfo,std::allocator<_tagLMCItemInfo> >::_Ufill
  00129	89 45 80	 mov	 DWORD PTR tv244[ebp], eax
  0012c	8b 4d 80	 mov	 ecx, DWORD PTR tv244[ebp]
  0012f	89 4d 98	 mov	 DWORD PTR __Ptr$199020[ebp], ecx

; 830  : 			_Ucopy(_ITER_BASE(_Where), _Mylast, _Ptr);	// copy suffix

  00132	8b 55 98	 mov	 edx, DWORD PTR __Ptr$199020[ebp]
  00135	52		 push	 edx
  00136	8b 45 8c	 mov	 eax, DWORD PTR _this$[ebp]
  00139	8b 48 08	 mov	 ecx, DWORD PTR [eax+8]
  0013c	51		 push	 ecx
  0013d	8b 55 08	 mov	 edx, DWORD PTR __Where$[ebp]
  00140	52		 push	 edx
  00141	8b 4d 8c	 mov	 ecx, DWORD PTR _this$[ebp]
  00144	e8 00 00 00 00	 call	 ??$_Ucopy@PAU_tagLMCItemInfo@@@?$vector@U_tagLMCItemInfo@@V?$allocator@U_tagLMCItemInfo@@@std@@@std@@IAEPAU_tagLMCItemInfo@@PAU2@00@Z ; std::vector<_tagLMCItemInfo,std::allocator<_tagLMCItemInfo> >::_Ucopy<_tagLMCItemInfo *>
  00149	eb 29		 jmp	 SHORT $L199961
$L199962:

; 831  : 			_CATCH_ALL
; 832  : 			_Destroy(_Newvec, _Ptr);

  0014b	8b 45 98	 mov	 eax, DWORD PTR __Ptr$199020[ebp]
  0014e	50		 push	 eax
  0014f	8b 4d 94	 mov	 ecx, DWORD PTR __Newvec$199019[ebp]
  00152	51		 push	 ecx
  00153	8b 4d 8c	 mov	 ecx, DWORD PTR _this$[ebp]
  00156	e8 00 00 00 00	 call	 ?_Destroy@?$vector@U_tagLMCItemInfo@@V?$allocator@U_tagLMCItemInfo@@@std@@@std@@IAEXPAU_tagLMCItemInfo@@0@Z ; std::vector<_tagLMCItemInfo,std::allocator<_tagLMCItemInfo> >::_Destroy

; 833  : 			this->_Alval.deallocate(_Newvec, _Capacity);

  0015b	8b 55 9c	 mov	 edx, DWORD PTR __Capacity$[ebp]
  0015e	52		 push	 edx
  0015f	8b 45 94	 mov	 eax, DWORD PTR __Newvec$199019[ebp]
  00162	50		 push	 eax
  00163	8b 4d 8c	 mov	 ecx, DWORD PTR _this$[ebp]
  00166	e8 00 00 00 00	 call	 ?deallocate@?$allocator@U_tagLMCItemInfo@@@std@@QAEXPAU_tagLMCItemInfo@@I@Z ; std::allocator<_tagLMCItemInfo>::deallocate

; 834  : 			_RERAISE;

  0016b	6a 00		 push	 0
  0016d	6a 00		 push	 0
  0016f	e8 00 00 00 00	 call	 __CxxThrowException@8
$L199961:

; 835  : 			_CATCH_END

  00174	c7 45 fc 00 00
	00 00		 mov	 DWORD PTR __$EHRec$[ebp+12], 0

; 836  : 
; 837  : 			_Count += size();

  0017b	8b 4d 8c	 mov	 ecx, DWORD PTR _this$[ebp]
  0017e	e8 00 00 00 00	 call	 ?size@?$vector@U_tagLMCItemInfo@@V?$allocator@U_tagLMCItemInfo@@@std@@@std@@QBEIXZ ; std::vector<_tagLMCItemInfo,std::allocator<_tagLMCItemInfo> >::size
  00183	03 45 0c	 add	 eax, DWORD PTR __Count$[ebp]
  00186	89 45 0c	 mov	 DWORD PTR __Count$[ebp], eax

; 838  : 			if (_Myfirst != 0)

  00189	8b 4d 8c	 mov	 ecx, DWORD PTR _this$[ebp]
  0018c	83 79 04 00	 cmp	 DWORD PTR [ecx+4], 0
  00190	74 3a		 je	 SHORT $L199027

; 839  : 				{	// destroy and deallocate old array
; 840  : 				_Destroy(_Myfirst, _Mylast);

  00192	8b 55 8c	 mov	 edx, DWORD PTR _this$[ebp]
  00195	8b 42 08	 mov	 eax, DWORD PTR [edx+8]
  00198	50		 push	 eax
  00199	8b 4d 8c	 mov	 ecx, DWORD PTR _this$[ebp]
  0019c	8b 51 04	 mov	 edx, DWORD PTR [ecx+4]
  0019f	52		 push	 edx
  001a0	8b 4d 8c	 mov	 ecx, DWORD PTR _this$[ebp]
  001a3	e8 00 00 00 00	 call	 ?_Destroy@?$vector@U_tagLMCItemInfo@@V?$allocator@U_tagLMCItemInfo@@@std@@@std@@IAEXPAU_tagLMCItemInfo@@0@Z ; std::vector<_tagLMCItemInfo,std::allocator<_tagLMCItemInfo> >::_Destroy

; 841  : 				this->_Alval.deallocate(_Myfirst, _Myend - _Myfirst);

  001a8	8b 45 8c	 mov	 eax, DWORD PTR _this$[ebp]
  001ab	8b 4d 8c	 mov	 ecx, DWORD PTR _this$[ebp]
  001ae	8b 40 0c	 mov	 eax, DWORD PTR [eax+12]
  001b1	2b 41 04	 sub	 eax, DWORD PTR [ecx+4]
  001b4	99		 cdq
  001b5	b9 44 00 00 00	 mov	 ecx, 68			; 00000044H
  001ba	f7 f9		 idiv	 ecx
  001bc	50		 push	 eax
  001bd	8b 55 8c	 mov	 edx, DWORD PTR _this$[ebp]
  001c0	8b 42 04	 mov	 eax, DWORD PTR [edx+4]
  001c3	50		 push	 eax
  001c4	8b 4d 8c	 mov	 ecx, DWORD PTR _this$[ebp]
  001c7	e8 00 00 00 00	 call	 ?deallocate@?$allocator@U_tagLMCItemInfo@@@std@@QAEXPAU_tagLMCItemInfo@@I@Z ; std::allocator<_tagLMCItemInfo>::deallocate
$L199027:

; 842  : 				}
; 843  : 			_Myend = _Newvec + _Capacity;

  001cc	8b 4d 9c	 mov	 ecx, DWORD PTR __Capacity$[ebp]
  001cf	6b c9 44	 imul	 ecx, 68			; 00000044H
  001d2	03 4d 94	 add	 ecx, DWORD PTR __Newvec$199019[ebp]
  001d5	8b 55 8c	 mov	 edx, DWORD PTR _this$[ebp]
  001d8	89 4a 0c	 mov	 DWORD PTR [edx+12], ecx

; 844  : 			_Mylast = _Newvec + _Count;

  001db	8b 45 0c	 mov	 eax, DWORD PTR __Count$[ebp]
  001de	6b c0 44	 imul	 eax, 68			; 00000044H
  001e1	03 45 94	 add	 eax, DWORD PTR __Newvec$199019[ebp]
  001e4	8b 4d 8c	 mov	 ecx, DWORD PTR _this$[ebp]
  001e7	89 41 08	 mov	 DWORD PTR [ecx+8], eax

; 845  : 			_Myfirst = _Newvec;

  001ea	8b 55 8c	 mov	 edx, DWORD PTR _this$[ebp]
  001ed	8b 45 94	 mov	 eax, DWORD PTR __Newvec$199019[ebp]
  001f0	89 42 04	 mov	 DWORD PTR [edx+4], eax

; 846  : 			}
; 847  : 		else if ((size_type)(_Mylast - _ITER_BASE(_Where)) < _Count)

  001f3	e9 2d 01 00 00	 jmp	 $L199014
$L199017:
  001f8	8b 4d 8c	 mov	 ecx, DWORD PTR _this$[ebp]
  001fb	8b 41 08	 mov	 eax, DWORD PTR [ecx+8]
  001fe	2b 45 08	 sub	 eax, DWORD PTR __Where$[ebp]
  00201	99		 cdq
  00202	b9 44 00 00 00	 mov	 ecx, 68			; 00000044H
  00207	f7 f9		 idiv	 ecx
  00209	3b 45 0c	 cmp	 eax, DWORD PTR __Count$[ebp]
  0020c	0f 83 af 00 00
	00		 jae	 $L199030

; 848  : 			{	// new stuff spills off end
; 849  : 			_Ucopy(_ITER_BASE(_Where), _Mylast,
; 850  : 				_ITER_BASE(_Where) + _Count);	// copy suffix

  00212	8b 55 0c	 mov	 edx, DWORD PTR __Count$[ebp]
  00215	6b d2 44	 imul	 edx, 68			; 00000044H
  00218	03 55 08	 add	 edx, DWORD PTR __Where$[ebp]
  0021b	52		 push	 edx
  0021c	8b 45 8c	 mov	 eax, DWORD PTR _this$[ebp]
  0021f	8b 48 08	 mov	 ecx, DWORD PTR [eax+8]
  00222	51		 push	 ecx
  00223	8b 55 08	 mov	 edx, DWORD PTR __Where$[ebp]
  00226	52		 push	 edx
  00227	8b 4d 8c	 mov	 ecx, DWORD PTR _this$[ebp]
  0022a	e8 00 00 00 00	 call	 ??$_Ucopy@PAU_tagLMCItemInfo@@@?$vector@U_tagLMCItemInfo@@V?$allocator@U_tagLMCItemInfo@@@std@@@std@@IAEPAU_tagLMCItemInfo@@PAU2@00@Z ; std::vector<_tagLMCItemInfo,std::allocator<_tagLMCItemInfo> >::_Ucopy<_tagLMCItemInfo *>

; 851  : 
; 852  : 			_TRY_BEGIN

  0022f	c6 45 fc 03	 mov	 BYTE PTR __$EHRec$[ebp+12], 3

; 853  : 			_Ufill(_Mylast, _Count - (_Mylast - _ITER_BASE(_Where)),
; 854  : 				_Tmp);	// insert new stuff off end

  00233	8d 45 a0	 lea	 eax, DWORD PTR __Tmp$[ebp]
  00236	50		 push	 eax
  00237	8b 4d 8c	 mov	 ecx, DWORD PTR _this$[ebp]
  0023a	8b 41 08	 mov	 eax, DWORD PTR [ecx+8]
  0023d	2b 45 08	 sub	 eax, DWORD PTR __Where$[ebp]
  00240	99		 cdq
  00241	b9 44 00 00 00	 mov	 ecx, 68			; 00000044H
  00246	f7 f9		 idiv	 ecx
  00248	8b 55 0c	 mov	 edx, DWORD PTR __Count$[ebp]
  0024b	2b d0		 sub	 edx, eax
  0024d	52		 push	 edx
  0024e	8b 45 8c	 mov	 eax, DWORD PTR _this$[ebp]
  00251	8b 48 08	 mov	 ecx, DWORD PTR [eax+8]
  00254	51		 push	 ecx
  00255	8b 4d 8c	 mov	 ecx, DWORD PTR _this$[ebp]
  00258	e8 00 00 00 00	 call	 ?_Ufill@?$vector@U_tagLMCItemInfo@@V?$allocator@U_tagLMCItemInfo@@@std@@@std@@IAEPAU_tagLMCItemInfo@@PAU3@IABU3@@Z ; std::vector<_tagLMCItemInfo,std::allocator<_tagLMCItemInfo> >::_Ufill
  0025d	eb 28		 jmp	 SHORT $L199963
$L199964:

; 855  : 			_CATCH_ALL
; 856  : 			_Destroy(_ITER_BASE(_Where) + _Count, _Mylast + _Count);

  0025f	8b 55 0c	 mov	 edx, DWORD PTR __Count$[ebp]
  00262	6b d2 44	 imul	 edx, 68			; 00000044H
  00265	8b 45 8c	 mov	 eax, DWORD PTR _this$[ebp]
  00268	03 50 08	 add	 edx, DWORD PTR [eax+8]
  0026b	52		 push	 edx
  0026c	8b 4d 0c	 mov	 ecx, DWORD PTR __Count$[ebp]
  0026f	6b c9 44	 imul	 ecx, 68			; 00000044H
  00272	03 4d 08	 add	 ecx, DWORD PTR __Where$[ebp]
  00275	51		 push	 ecx
  00276	8b 4d 8c	 mov	 ecx, DWORD PTR _this$[ebp]
  00279	e8 00 00 00 00	 call	 ?_Destroy@?$vector@U_tagLMCItemInfo@@V?$allocator@U_tagLMCItemInfo@@@std@@@std@@IAEXPAU_tagLMCItemInfo@@0@Z ; std::vector<_tagLMCItemInfo,std::allocator<_tagLMCItemInfo> >::_Destroy

; 857  : 			_RERAISE;

  0027e	6a 00		 push	 0
  00280	6a 00		 push	 0
  00282	e8 00 00 00 00	 call	 __CxxThrowException@8
$L199963:

; 858  : 			_CATCH_END

  00287	c7 45 fc 00 00
	00 00		 mov	 DWORD PTR __$EHRec$[ebp+12], 0

; 859  : 
; 860  : 			_Mylast += _Count;

  0028e	8b 55 0c	 mov	 edx, DWORD PTR __Count$[ebp]
  00291	6b d2 44	 imul	 edx, 68			; 00000044H
  00294	8b 45 8c	 mov	 eax, DWORD PTR _this$[ebp]
  00297	03 50 08	 add	 edx, DWORD PTR [eax+8]
  0029a	8b 4d 8c	 mov	 ecx, DWORD PTR _this$[ebp]
  0029d	89 51 08	 mov	 DWORD PTR [ecx+8], edx

; 861  : 			fill(_ITER_BASE(_Where), _Mylast - _Count,
; 862  : 				_Tmp);	// insert up to old end

  002a0	8d 55 a0	 lea	 edx, DWORD PTR __Tmp$[ebp]
  002a3	52		 push	 edx
  002a4	8b 45 0c	 mov	 eax, DWORD PTR __Count$[ebp]
  002a7	6b c0 44	 imul	 eax, 68			; 00000044H
  002aa	8b 4d 8c	 mov	 ecx, DWORD PTR _this$[ebp]
  002ad	8b 51 08	 mov	 edx, DWORD PTR [ecx+8]
  002b0	2b d0		 sub	 edx, eax
  002b2	52		 push	 edx
  002b3	8b 45 08	 mov	 eax, DWORD PTR __Where$[ebp]
  002b6	50		 push	 eax
  002b7	e8 00 00 00 00	 call	 ??$fill@PAU_tagLMCItemInfo@@U1@@std@@YAXPAU_tagLMCItemInfo@@0ABU1@@Z ; std::fill<_tagLMCItemInfo *,_tagLMCItemInfo>
  002bc	83 c4 0c	 add	 esp, 12			; 0000000cH

; 863  : 			}
; 864  : 		else

  002bf	eb 64		 jmp	 SHORT $L199014
$L199030:

; 865  : 			{	// new stuff can all be assigned
; 866  : 			pointer _Oldend = _Mylast;

  002c1	8b 4d 8c	 mov	 ecx, DWORD PTR _this$[ebp]
  002c4	8b 51 08	 mov	 edx, DWORD PTR [ecx+8]
  002c7	89 55 90	 mov	 DWORD PTR __Oldend$199040[ebp], edx

; 867  : 			_Mylast = _Ucopy(_Oldend - _Count, _Oldend,
; 868  : 				_Mylast);	// copy suffix

  002ca	8b 45 8c	 mov	 eax, DWORD PTR _this$[ebp]
  002cd	8b 48 08	 mov	 ecx, DWORD PTR [eax+8]
  002d0	51		 push	 ecx
  002d1	8b 55 90	 mov	 edx, DWORD PTR __Oldend$199040[ebp]
  002d4	52		 push	 edx
  002d5	8b 45 0c	 mov	 eax, DWORD PTR __Count$[ebp]
  002d8	6b c0 44	 imul	 eax, 68			; 00000044H
  002db	8b 4d 90	 mov	 ecx, DWORD PTR __Oldend$199040[ebp]
  002de	2b c8		 sub	 ecx, eax
  002e0	51		 push	 ecx
  002e1	8b 4d 8c	 mov	 ecx, DWORD PTR _this$[ebp]
  002e4	e8 00 00 00 00	 call	 ??$_Ucopy@PAU_tagLMCItemInfo@@@?$vector@U_tagLMCItemInfo@@V?$allocator@U_tagLMCItemInfo@@@std@@@std@@IAEPAU_tagLMCItemInfo@@PAU2@00@Z ; std::vector<_tagLMCItemInfo,std::allocator<_tagLMCItemInfo> >::_Ucopy<_tagLMCItemInfo *>
  002e9	8b 55 8c	 mov	 edx, DWORD PTR _this$[ebp]
  002ec	89 42 08	 mov	 DWORD PTR [edx+8], eax

; 869  : 			copy_backward(_ITER_BASE(_Where), _Oldend - _Count,
; 870  : 				_Oldend);	// copy hole

  002ef	8b 45 90	 mov	 eax, DWORD PTR __Oldend$199040[ebp]
  002f2	50		 push	 eax
  002f3	8b 4d 0c	 mov	 ecx, DWORD PTR __Count$[ebp]
  002f6	6b c9 44	 imul	 ecx, 68			; 00000044H
  002f9	8b 55 90	 mov	 edx, DWORD PTR __Oldend$199040[ebp]
  002fc	2b d1		 sub	 edx, ecx
  002fe	52		 push	 edx
  002ff	8b 45 08	 mov	 eax, DWORD PTR __Where$[ebp]
  00302	50		 push	 eax
  00303	e8 00 00 00 00	 call	 ??$copy_backward@PAU_tagLMCItemInfo@@PAU1@@std@@YAPAU_tagLMCItemInfo@@PAU1@00@Z ; std::copy_backward<_tagLMCItemInfo *,_tagLMCItemInfo *>
  00308	83 c4 0c	 add	 esp, 12			; 0000000cH

; 871  : 			fill(_ITER_BASE(_Where), _ITER_BASE(_Where) + _Count,
; 872  : 				_Tmp);	// insert into hole

  0030b	8d 4d a0	 lea	 ecx, DWORD PTR __Tmp$[ebp]
  0030e	51		 push	 ecx
  0030f	8b 55 0c	 mov	 edx, DWORD PTR __Count$[ebp]
  00312	6b d2 44	 imul	 edx, 68			; 00000044H
  00315	03 55 08	 add	 edx, DWORD PTR __Where$[ebp]
  00318	52		 push	 edx
  00319	8b 45 08	 mov	 eax, DWORD PTR __Where$[ebp]
  0031c	50		 push	 eax
  0031d	e8 00 00 00 00	 call	 ??$fill@PAU_tagLMCItemInfo@@U1@@std@@YAXPAU_tagLMCItemInfo@@0ABU1@@Z ; std::fill<_tagLMCItemInfo *,_tagLMCItemInfo>
  00322	83 c4 0c	 add	 esp, 12			; 0000000cH
$L199014:

; 873  : 			}
; 874  : 		}

  00325	c7 45 fc ff ff
	ff ff		 mov	 DWORD PTR __$EHRec$[ebp+12], -1
  0032c	8d 4d a0	 lea	 ecx, DWORD PTR __Tmp$[ebp]
  0032f	e8 00 00 00 00	 call	 ??1_tagLMCItemInfo@@QAE@XZ
$L199957:
  00334	8b 4d f4	 mov	 ecx, DWORD PTR __$EHRec$[ebp+4]
  00337	64 89 0d 00 00
	00 00		 mov	 DWORD PTR fs:__except_list, ecx
  0033e	8b 4d ec	 mov	 ecx, DWORD PTR __$ArrayPad$[ebp]
  00341	e8 00 00 00 00	 call	 @__security_check_cookie@4
  00346	5f		 pop	 edi
  00347	5e		 pop	 esi
  00348	5b		 pop	 ebx
  00349	8b e5		 mov	 esp, ebp
  0034b	5d		 pop	 ebp
  0034c	c2 0c 00	 ret	 12			; 0000000cH
_TEXT	ENDS
;	COMDAT text$x
text$x	SEGMENT
$L199965:
  00000	8d 4d a0	 lea	 ecx, DWORD PTR __Tmp$[ebp]
  00003	e9 00 00 00 00	 jmp	 ??1_tagLMCItemInfo@@QAE@XZ
__ehhandler$?_Insert_n@?$vector@U_tagLMCItemInfo@@V?$allocator@U_tagLMCItemInfo@@@std@@@std@@IAEXViterator@12@IABU_tagLMCItemInfo@@@Z:
  00008	b8 00 00 00 00	 mov	 eax, OFFSET FLAT:$T199967
  0000d	e9 00 00 00 00	 jmp	 ___CxxFrameHandler
text$x	ENDS
?_Insert_n@?$vector@U_tagLMCItemInfo@@V?$allocator@U_tagLMCItemInfo@@@std@@@std@@IAEXViterator@12@IABU_tagLMCItemInfo@@@Z ENDP ; std::vector<_tagLMCItemInfo,std::allocator<_tagLMCItemInfo> >::_Insert_n
PUBLIC	??_R0?AVlogic_error@std@@@8			; std::logic_error `RTTI Type Descriptor'
PUBLIC	__CT??_R0?AVlogic_error@std@@@8??0logic_error@std@@QAE@ABV01@@Z40
PUBLIC	??_R0?AVexception@@@8				; exception `RTTI Type Descriptor'
PUBLIC	__CT??_R0?AVexception@@@8??0exception@@QAE@ABV0@@Z12
PUBLIC	__TI3?AVlength_error@std@@
PUBLIC	__CTA3?AVlength_error@std@@
PUBLIC	__CT??_R0?AVlength_error@std@@@8??0length_error@std@@QAE@ABV01@@Z40
PUBLIC	??_C@_0BD@OLBABOEK@vector?$DMT?$DO?5too?5long?$AA@ ; `string'
PUBLIC	??_R0?AVlength_error@std@@@8			; std::length_error `RTTI Type Descriptor'
PUBLIC	??0logic_error@std@@QAE@ABV01@@Z		; std::logic_error::logic_error
PUBLIC	??0length_error@std@@QAE@ABV?$basic_string@DU?$char_traits@D@std@@V?$allocator@D@2@@1@@Z ; std::length_error::length_error
PUBLIC	??1length_error@std@@UAE@XZ			; std::length_error::~length_error
PUBLIC	??0length_error@std@@QAE@ABV01@@Z		; std::length_error::length_error
EXTRN	__imp_??0?$basic_string@DU?$char_traits@D@std@@V?$allocator@D@2@@std@@QAE@PBD@Z:NEAR
EXTRN	??0exception@@QAE@ABV0@@Z:NEAR			; exception::exception
EXTRN	??_7type_info@@6B@:QWORD			; type_info::`vftable'
;	COMDAT xdata$x
xdata$x	SEGMENT
$T199984 DD	0ffffffffH
	DD	FLAT:$L199980
$T199982 DD	019930520H
	DD	01H
	DD	FLAT:$T199984
	DD	2 DUP(00H)
	DD	2 DUP(00H)
xdata$x	ENDS
;	COMDAT ??_C@_0BD@OLBABOEK@vector?$DMT?$DO?5too?5long?$AA@
CONST	SEGMENT
??_C@_0BD@OLBABOEK@vector?$DMT?$DO?5too?5long?$AA@ DB 'vector<T> too long'
	DB	00H						; `string'
CONST	ENDS
;	COMDAT __TI3?AVlength_error@std@@
xdata$x	SEGMENT
__TI3?AVlength_error@std@@ DD 00H
	DD	FLAT:??1length_error@std@@UAE@XZ
	DD	00H
	DD	FLAT:__CTA3?AVlength_error@std@@
xdata$x	ENDS
;	COMDAT __CTA3?AVlength_error@std@@
xdata$x	SEGMENT
__CTA3?AVlength_error@std@@ DD 03H
	DD	FLAT:__CT??_R0?AVlength_error@std@@@8??0length_error@std@@QAE@ABV01@@Z40
	DD	FLAT:__CT??_R0?AVlogic_error@std@@@8??0logic_error@std@@QAE@ABV01@@Z40
	DD	FLAT:__CT??_R0?AVexception@@@8??0exception@@QAE@ABV0@@Z12
xdata$x	ENDS
;	COMDAT __CT??_R0?AVlength_error@std@@@8??0length_error@std@@QAE@ABV01@@Z40
xdata$x	SEGMENT
__CT??_R0?AVlength_error@std@@@8??0length_error@std@@QAE@ABV01@@Z40 DD 00H
	DD	FLAT:??_R0?AVlength_error@std@@@8
	DD	00H
	DD	0ffffffffH
	ORG $+4
	DD	028H
	DD	FLAT:??0length_error@std@@QAE@ABV01@@Z
xdata$x	ENDS
;	COMDAT ??_R0?AVlength_error@std@@@8
_DATA	SEGMENT
??_R0?AVlength_error@std@@@8 DD FLAT:??_7type_info@@6B@	; std::length_error `RTTI Type Descriptor'
	DD	00H
	DB	'.?AVlength_error@std@@', 00H
	ORG $-31
	DD	FLAT:??_7type_info@@6B@
	DD	00H
	DB	'.?AVlength_error@std@@', 00H
_DATA	ENDS
;	COMDAT __CT??_R0?AVlogic_error@std@@@8??0logic_error@std@@QAE@ABV01@@Z40
xdata$x	SEGMENT
__CT??_R0?AVlogic_error@std@@@8??0logic_error@std@@QAE@ABV01@@Z40 DD 00H
	DD	FLAT:??_R0?AVlogic_error@std@@@8
	DD	00H
	DD	0ffffffffH
	ORG $+4
	DD	028H
	DD	FLAT:??0logic_error@std@@QAE@ABV01@@Z
xdata$x	ENDS
;	COMDAT ??_R0?AVlogic_error@std@@@8
_DATA	SEGMENT
??_R0?AVlogic_error@std@@@8 DD FLAT:??_7type_info@@6B@	; std::logic_error `RTTI Type Descriptor'
	DD	00H
	DB	'.?AVlogic_error@std@@', 00H
	ORG $-30
	DD	FLAT:??_7type_info@@6B@
	DD	00H
	DB	'.?AVlogic_error@std@@', 00H
_DATA	ENDS
;	COMDAT __CT??_R0?AVexception@@@8??0exception@@QAE@ABV0@@Z12
xdata$x	SEGMENT
__CT??_R0?AVexception@@@8??0exception@@QAE@ABV0@@Z12 DD 00H
	DD	FLAT:??_R0?AVexception@@@8
	DD	00H
	DD	0ffffffffH
	ORG $+4
	DD	0cH
	DD	FLAT:??0exception@@QAE@ABV0@@Z
xdata$x	ENDS
;	COMDAT ??_R0?AVexception@@@8
_DATA	SEGMENT
??_R0?AVexception@@@8 DD FLAT:??_7type_info@@6B@	; exception `RTTI Type Descriptor'
	DD	00H
	DB	'.?AVexception@@', 00H
	ORG $-24
	DD	FLAT:??_7type_info@@6B@
	DD	00H
	DB	'.?AVexception@@', 00H
; Function compile flags: /Odt
_DATA	ENDS
;	COMDAT ?_Xlen@?$vector@U_tagLMCItemInfo@@V?$allocator@U_tagLMCItemInfo@@@std@@@std@@IBEXXZ
_TEXT	SEGMENT
_this$ = -84						; size = 4
$T199979 = -80						; size = 28
$T199978 = -52						; size = 40
__$EHRec$ = -12						; size = 12
?_Xlen@?$vector@U_tagLMCItemInfo@@V?$allocator@U_tagLMCItemInfo@@@std@@@std@@IBEXXZ PROC NEAR ; std::vector<_tagLMCItemInfo,std::allocator<_tagLMCItemInfo> >::_Xlen, COMDAT
; _this$ = ecx

; 883  : 		{	// report a length_error

  00000	55		 push	 ebp
  00001	8b ec		 mov	 ebp, esp
  00003	6a ff		 push	 -1
  00005	68 00 00 00 00	 push	 __ehhandler$?_Xlen@?$vector@U_tagLMCItemInfo@@V?$allocator@U_tagLMCItemInfo@@@std@@@std@@IBEXXZ
  0000a	64 a1 00 00 00
	00		 mov	 eax, DWORD PTR fs:__except_list
  00010	50		 push	 eax
  00011	64 89 25 00 00
	00 00		 mov	 DWORD PTR fs:__except_list, esp
  00018	83 ec 48	 sub	 esp, 72			; 00000048H
  0001b	89 4d ac	 mov	 DWORD PTR _this$[ebp], ecx

; 884  : 		_THROW(length_error, "vector<T> too long");

  0001e	68 00 00 00 00	 push	 OFFSET FLAT:??_C@_0BD@OLBABOEK@vector?$DMT?$DO?5too?5long?$AA@
  00023	8d 4d b0	 lea	 ecx, DWORD PTR $T199979[ebp]
  00026	ff 15 00 00 00
	00		 call	 DWORD PTR __imp_??0?$basic_string@DU?$char_traits@D@std@@V?$allocator@D@2@@std@@QAE@PBD@Z
  0002c	c7 45 fc 00 00
	00 00		 mov	 DWORD PTR __$EHRec$[ebp+8], 0
  00033	8d 45 b0	 lea	 eax, DWORD PTR $T199979[ebp]
  00036	50		 push	 eax
  00037	8d 4d cc	 lea	 ecx, DWORD PTR $T199978[ebp]
  0003a	e8 00 00 00 00	 call	 ??0length_error@std@@QAE@ABV?$basic_string@DU?$char_traits@D@std@@V?$allocator@D@2@@1@@Z ; std::length_error::length_error
  0003f	68 00 00 00 00	 push	 OFFSET FLAT:__TI3?AVlength_error@std@@
  00044	8d 4d cc	 lea	 ecx, DWORD PTR $T199978[ebp]
  00047	51		 push	 ecx
  00048	e8 00 00 00 00	 call	 __CxxThrowException@8
$L199977:

; 885  : 		}

  0004d	8b 4d f4	 mov	 ecx, DWORD PTR __$EHRec$[ebp]
  00050	64 89 0d 00 00
	00 00		 mov	 DWORD PTR fs:__except_list, ecx
  00057	8b e5		 mov	 esp, ebp
  00059	5d		 pop	 ebp
  0005a	c3		 ret	 0
_TEXT	ENDS
;	COMDAT text$x
text$x	SEGMENT
$L199980:
  00000	8d 4d b0	 lea	 ecx, DWORD PTR $T199979[ebp]
  00003	ff 25 00 00 00
	00		 jmp	 DWORD PTR __imp_??1?$basic_string@DU?$char_traits@D@std@@V?$allocator@D@2@@std@@QAE@XZ
__ehhandler$?_Xlen@?$vector@U_tagLMCItemInfo@@V?$allocator@U_tagLMCItemInfo@@@std@@@std@@IBEXXZ:
  00009	b8 00 00 00 00	 mov	 eax, OFFSET FLAT:$T199982
  0000e	e9 00 00 00 00	 jmp	 ___CxxFrameHandler
text$x	ENDS
?_Xlen@?$vector@U_tagLMCItemInfo@@V?$allocator@U_tagLMCItemInfo@@@std@@@std@@IBEXXZ ENDP ; std::vector<_tagLMCItemInfo,std::allocator<_tagLMCItemInfo> >::_Xlen
; Function compile flags: /Odt
; File d:\program files (x86)\microsoft visual studio .net 2003\vc7\include\xmemory
;	COMDAT ??0?$allocator@U_tagLMCItemInfo@@@std@@QAE@ABV01@@Z
_TEXT	SEGMENT
_this$ = -4						; size = 4
___formal$ = 8						; size = 4
??0?$allocator@U_tagLMCItemInfo@@@std@@QAE@ABV01@@Z PROC NEAR ; std::allocator<_tagLMCItemInfo>::allocator<_tagLMCItemInfo>, COMDAT
; _this$ = ecx

; 115  : 	allocator(const allocator<_Ty>&)

  00000	55		 push	 ebp
  00001	8b ec		 mov	 ebp, esp
  00003	51		 push	 ecx
  00004	89 4d fc	 mov	 DWORD PTR _this$[ebp], ecx

; 116  : 		{	// construct by copying (do nothing)
; 117  : 		}

  00007	8b 45 fc	 mov	 eax, DWORD PTR _this$[ebp]
  0000a	8b e5		 mov	 esp, ebp
  0000c	5d		 pop	 ebp
  0000d	c2 04 00	 ret	 4
??0?$allocator@U_tagLMCItemInfo@@@std@@QAE@ABV01@@Z ENDP ; std::allocator<_tagLMCItemInfo>::allocator<_tagLMCItemInfo>
_TEXT	ENDS
EXTRN	??3@YAXPAX@Z:NEAR				; operator delete
; Function compile flags: /Odt
;	COMDAT ?deallocate@?$allocator@U_tagLMCItemInfo@@@std@@QAEXPAU_tagLMCItemInfo@@I@Z
_TEXT	SEGMENT
_this$ = -4						; size = 4
__Ptr$ = 8						; size = 4
___formal$ = 12						; size = 4
?deallocate@?$allocator@U_tagLMCItemInfo@@@std@@QAEXPAU_tagLMCItemInfo@@I@Z PROC NEAR ; std::allocator<_tagLMCItemInfo>::deallocate, COMDAT
; _this$ = ecx

; 131  : 		{	// deallocate object at _Ptr, ignore size

  00000	55		 push	 ebp
  00001	8b ec		 mov	 ebp, esp
  00003	51		 push	 ecx
  00004	89 4d fc	 mov	 DWORD PTR _this$[ebp], ecx

; 132  : 		operator delete(_Ptr);

  00007	8b 45 08	 mov	 eax, DWORD PTR __Ptr$[ebp]
  0000a	50		 push	 eax
  0000b	e8 00 00 00 00	 call	 ??3@YAXPAX@Z		; operator delete
  00010	83 c4 04	 add	 esp, 4

; 133  : 		}

  00013	8b e5		 mov	 esp, ebp
  00015	5d		 pop	 ebp
  00016	c2 08 00	 ret	 8
?deallocate@?$allocator@U_tagLMCItemInfo@@@std@@QAEXPAU_tagLMCItemInfo@@I@Z ENDP ; std::allocator<_tagLMCItemInfo>::deallocate
_TEXT	ENDS
PUBLIC	??$_Allocate@U_tagLMCItemInfo@@@std@@YAPAU_tagLMCItemInfo@@IPAU1@@Z ; std::_Allocate<_tagLMCItemInfo>
; Function compile flags: /Odt
;	COMDAT ?allocate@?$allocator@U_tagLMCItemInfo@@@std@@QAEPAU_tagLMCItemInfo@@I@Z
_TEXT	SEGMENT
_this$ = -4						; size = 4
__Count$ = 8						; size = 4
?allocate@?$allocator@U_tagLMCItemInfo@@@std@@QAEPAU_tagLMCItemInfo@@I@Z PROC NEAR ; std::allocator<_tagLMCItemInfo>::allocate, COMDAT
; _this$ = ecx

; 136  : 		{	// allocate array of _Count elements

  00000	55		 push	 ebp
  00001	8b ec		 mov	 ebp, esp
  00003	51		 push	 ecx
  00004	89 4d fc	 mov	 DWORD PTR _this$[ebp], ecx

; 137  : 		return (_Allocate(_Count, (pointer)0));

  00007	6a 00		 push	 0
  00009	8b 45 08	 mov	 eax, DWORD PTR __Count$[ebp]
  0000c	50		 push	 eax
  0000d	e8 00 00 00 00	 call	 ??$_Allocate@U_tagLMCItemInfo@@@std@@YAPAU_tagLMCItemInfo@@IPAU1@@Z ; std::_Allocate<_tagLMCItemInfo>
  00012	83 c4 08	 add	 esp, 8

; 138  : 		}

  00015	8b e5		 mov	 esp, ebp
  00017	5d		 pop	 ebp
  00018	c2 04 00	 ret	 4
?allocate@?$allocator@U_tagLMCItemInfo@@@std@@QAEPAU_tagLMCItemInfo@@I@Z ENDP ; std::allocator<_tagLMCItemInfo>::allocate
; Function compile flags: /Odt
; File d:\program files (x86)\microsoft visual studio .net 2003\vc7\include\vector
_TEXT	ENDS
;	COMDAT ??Yiterator@?$vector@U_tagLMCItemInfo@@V?$allocator@U_tagLMCItemInfo@@@std@@@std@@QAEAAV012@H@Z
_TEXT	SEGMENT
_this$ = -4						; size = 4
__Off$ = 8						; size = 4
??Yiterator@?$vector@U_tagLMCItemInfo@@V?$allocator@U_tagLMCItemInfo@@@std@@@std@@QAEAAV012@H@Z PROC NEAR ; std::vector<_tagLMCItemInfo,std::allocator<_tagLMCItemInfo> >::iterator::operator+=, COMDAT
; _this$ = ecx

; 255  : 			{	// increment by integer

  00000	55		 push	 ebp
  00001	8b ec		 mov	 ebp, esp
  00003	51		 push	 ecx
  00004	89 4d fc	 mov	 DWORD PTR _this$[ebp], ecx

; 256  : 			this->_Myptr += _Off;

  00007	8b 45 08	 mov	 eax, DWORD PTR __Off$[ebp]
  0000a	6b c0 44	 imul	 eax, 68			; 00000044H
  0000d	8b 4d fc	 mov	 ecx, DWORD PTR _this$[ebp]
  00010	03 01		 add	 eax, DWORD PTR [ecx]
  00012	8b 55 fc	 mov	 edx, DWORD PTR _this$[ebp]
  00015	89 02		 mov	 DWORD PTR [edx], eax

; 257  : 			return (*this);

  00017	8b 45 fc	 mov	 eax, DWORD PTR _this$[ebp]

; 258  : 			}

  0001a	8b e5		 mov	 esp, ebp
  0001c	5d		 pop	 ebp
  0001d	c2 04 00	 ret	 4
??Yiterator@?$vector@U_tagLMCItemInfo@@V?$allocator@U_tagLMCItemInfo@@@std@@@std@@QAEAAV012@H@Z ENDP ; std::vector<_tagLMCItemInfo,std::allocator<_tagLMCItemInfo> >::iterator::operator+=
_TEXT	ENDS
PUBLIC	??Gconst_iterator@?$vector@U_tagLMCItemInfo@@V?$allocator@U_tagLMCItemInfo@@@std@@@std@@QBEHABV012@@Z ; std::vector<_tagLMCItemInfo,std::allocator<_tagLMCItemInfo> >::const_iterator::operator-
; Function compile flags: /Odt
;	COMDAT ??Giterator@?$vector@U_tagLMCItemInfo@@V?$allocator@U_tagLMCItemInfo@@@std@@@std@@QBEHABVconst_iterator@12@@Z
_TEXT	SEGMENT
_this$ = -8						; size = 4
$T199997 = -4						; size = 4
__Right$ = 8						; size = 4
??Giterator@?$vector@U_tagLMCItemInfo@@V?$allocator@U_tagLMCItemInfo@@@std@@@std@@QBEHABVconst_iterator@12@@Z PROC NEAR ; std::vector<_tagLMCItemInfo,std::allocator<_tagLMCItemInfo> >::iterator::operator-, COMDAT
; _this$ = ecx

; 278  : 			{	// return difference of iterators

  00000	55		 push	 ebp
  00001	8b ec		 mov	 ebp, esp
  00003	83 ec 08	 sub	 esp, 8
  00006	89 4d f8	 mov	 DWORD PTR _this$[ebp], ecx

; 279  : 			return ((const_iterator)*this - _Right);

  00009	8b 45 f8	 mov	 eax, DWORD PTR _this$[ebp]
  0000c	8b 08		 mov	 ecx, DWORD PTR [eax]
  0000e	89 4d fc	 mov	 DWORD PTR $T199997[ebp], ecx
  00011	8b 55 08	 mov	 edx, DWORD PTR __Right$[ebp]
  00014	52		 push	 edx
  00015	8d 4d fc	 lea	 ecx, DWORD PTR $T199997[ebp]
  00018	e8 00 00 00 00	 call	 ??Gconst_iterator@?$vector@U_tagLMCItemInfo@@V?$allocator@U_tagLMCItemInfo@@@std@@@std@@QBEHABV012@@Z ; std::vector<_tagLMCItemInfo,std::allocator<_tagLMCItemInfo> >::const_iterator::operator-

; 280  : 			}

  0001d	8b e5		 mov	 esp, ebp
  0001f	5d		 pop	 ebp
  00020	c2 04 00	 ret	 4
??Giterator@?$vector@U_tagLMCItemInfo@@V?$allocator@U_tagLMCItemInfo@@@std@@@std@@QBEHABVconst_iterator@12@@Z ENDP ; std::vector<_tagLMCItemInfo,std::allocator<_tagLMCItemInfo> >::iterator::operator-
; Function compile flags: /Odt
_TEXT	ENDS
;	COMDAT ??0const_iterator@?$vector@U_tagLMCItemInfo@@V?$allocator@U_tagLMCItemInfo@@@std@@@std@@QAE@PAU_tagLMCItemInfo@@@Z
_TEXT	SEGMENT
_this$ = -4						; size = 4
__Ptr$ = 8						; size = 4
??0const_iterator@?$vector@U_tagLMCItemInfo@@V?$allocator@U_tagLMCItemInfo@@@std@@@std@@QAE@PAU_tagLMCItemInfo@@@Z PROC NEAR ; std::vector<_tagLMCItemInfo,std::allocator<_tagLMCItemInfo> >::const_iterator::const_iterator, COMDAT
; _this$ = ecx

; 73   : 		const_iterator(_Tptr _Ptr)

  00000	55		 push	 ebp
  00001	8b ec		 mov	 ebp, esp
  00003	51		 push	 ecx
  00004	89 4d fc	 mov	 DWORD PTR _this$[ebp], ecx

; 74   : 			{	// construct with pointer _Ptr
; 75   : 			_Myptr = _Ptr;

  00007	8b 45 fc	 mov	 eax, DWORD PTR _this$[ebp]
  0000a	8b 4d 08	 mov	 ecx, DWORD PTR __Ptr$[ebp]
  0000d	89 08		 mov	 DWORD PTR [eax], ecx

; 76   : 			}

  0000f	8b 45 fc	 mov	 eax, DWORD PTR _this$[ebp]
  00012	8b e5		 mov	 esp, ebp
  00014	5d		 pop	 ebp
  00015	c2 04 00	 ret	 4
??0const_iterator@?$vector@U_tagLMCItemInfo@@V?$allocator@U_tagLMCItemInfo@@@std@@@std@@QAE@PAU_tagLMCItemInfo@@@Z ENDP ; std::vector<_tagLMCItemInfo,std::allocator<_tagLMCItemInfo> >::const_iterator::const_iterator
; Function compile flags: /Odt
_TEXT	ENDS
;	COMDAT ??Dconst_iterator@?$vector@U_tagLMCItemInfo@@V?$allocator@U_tagLMCItemInfo@@@std@@@std@@QBEABU_tagLMCItemInfo@@XZ
_TEXT	SEGMENT
_this$ = -4						; size = 4
??Dconst_iterator@?$vector@U_tagLMCItemInfo@@V?$allocator@U_tagLMCItemInfo@@@std@@@std@@QBEABU_tagLMCItemInfo@@XZ PROC NEAR ; std::vector<_tagLMCItemInfo,std::allocator<_tagLMCItemInfo> >::const_iterator::operator*, COMDAT
; _this$ = ecx

; 79   : 			{	// return designated object

  00000	55		 push	 ebp
  00001	8b ec		 mov	 ebp, esp
  00003	51		 push	 ecx
  00004	89 4d fc	 mov	 DWORD PTR _this$[ebp], ecx

; 80   : 
; 81   : 
; 82   : 			return (*_Myptr);

  00007	8b 45 fc	 mov	 eax, DWORD PTR _this$[ebp]
  0000a	8b 00		 mov	 eax, DWORD PTR [eax]

; 83   : 			}

  0000c	8b e5		 mov	 esp, ebp
  0000e	5d		 pop	 ebp
  0000f	c3		 ret	 0
??Dconst_iterator@?$vector@U_tagLMCItemInfo@@V?$allocator@U_tagLMCItemInfo@@@std@@@std@@QBEABU_tagLMCItemInfo@@XZ ENDP ; std::vector<_tagLMCItemInfo,std::allocator<_tagLMCItemInfo> >::const_iterator::operator*
; Function compile flags: /Odt
_TEXT	ENDS
;	COMDAT ??8const_iterator@?$vector@U_tagLMCItemInfo@@V?$allocator@U_tagLMCItemInfo@@@std@@@std@@QBE_NABV012@@Z
_TEXT	SEGMENT
_this$ = -4						; size = 4
__Right$ = 8						; size = 4
??8const_iterator@?$vector@U_tagLMCItemInfo@@V?$allocator@U_tagLMCItemInfo@@@std@@@std@@QBE_NABV012@@Z PROC NEAR ; std::vector<_tagLMCItemInfo,std::allocator<_tagLMCItemInfo> >::const_iterator::operator==, COMDAT
; _this$ = ecx

; 152  : 			{	// test for iterator equality

  00000	55		 push	 ebp
  00001	8b ec		 mov	 ebp, esp
  00003	51		 push	 ecx
  00004	89 4d fc	 mov	 DWORD PTR _this$[ebp], ecx

; 153  : 
; 154  : 
; 155  : 			return (_Myptr == _Right._Myptr);

  00007	8b 45 fc	 mov	 eax, DWORD PTR _this$[ebp]
  0000a	8b 4d 08	 mov	 ecx, DWORD PTR __Right$[ebp]
  0000d	8b 00		 mov	 eax, DWORD PTR [eax]
  0000f	2b 01		 sub	 eax, DWORD PTR [ecx]
  00011	f7 d8		 neg	 eax
  00013	1b c0		 sbb	 eax, eax
  00015	40		 inc	 eax

; 156  : 			}

  00016	8b e5		 mov	 esp, ebp
  00018	5d		 pop	 ebp
  00019	c2 04 00	 ret	 4
??8const_iterator@?$vector@U_tagLMCItemInfo@@V?$allocator@U_tagLMCItemInfo@@@std@@@std@@QBE_NABV012@@Z ENDP ; std::vector<_tagLMCItemInfo,std::allocator<_tagLMCItemInfo> >::const_iterator::operator==
_TEXT	ENDS
EXTRN	__imp_??0?$CStringT@DV?$StrTraitMFC_DLL@DV?$ChTraitsCRT@D@ATL@@@@@ATL@@QAE@ABV01@@Z:NEAR
EXTRN	__imp_??0?$basic_string@DU?$char_traits@D@std@@V?$allocator@D@2@@std@@QAE@ABV01@@Z:NEAR
;	COMDAT xdata$x
xdata$x	SEGMENT
$T200013 DD	0ffffffffH
	DD	FLAT:$L200006
	DD	00H
	DD	FLAT:$L200007
	DD	01H
	DD	FLAT:$L200008
$T200011 DD	019930520H
	DD	03H
	DD	FLAT:$T200013
	DD	2 DUP(00H)
	DD	2 DUP(00H)
; Function compile flags: /Odt
xdata$x	ENDS
;	COMDAT ??0_tagLMCItemInfo@@QAE@ABU0@@Z
_TEXT	SEGMENT
_this$ = -16						; size = 4
__$EHRec$ = -12						; size = 12
___that$ = 8						; size = 4
??0_tagLMCItemInfo@@QAE@ABU0@@Z PROC NEAR		; _tagLMCItemInfo::_tagLMCItemInfo, COMDAT
; _this$ = ecx
  00000	55		 push	 ebp
  00001	8b ec		 mov	 ebp, esp
  00003	6a ff		 push	 -1
  00005	68 00 00 00 00	 push	 __ehhandler$??0_tagLMCItemInfo@@QAE@ABU0@@Z
  0000a	64 a1 00 00 00
	00		 mov	 eax, DWORD PTR fs:__except_list
  00010	50		 push	 eax
  00011	64 89 25 00 00
	00 00		 mov	 DWORD PTR fs:__except_list, esp
  00018	51		 push	 ecx
  00019	89 4d f0	 mov	 DWORD PTR _this$[ebp], ecx
  0001c	8b 45 08	 mov	 eax, DWORD PTR ___that$[ebp]
  0001f	50		 push	 eax
  00020	8b 4d f0	 mov	 ecx, DWORD PTR _this$[ebp]
  00023	ff 15 00 00 00
	00		 call	 DWORD PTR __imp_??0?$basic_string@DU?$char_traits@D@std@@V?$allocator@D@2@@std@@QAE@ABV01@@Z
  00029	c7 45 fc 00 00
	00 00		 mov	 DWORD PTR __$EHRec$[ebp+8], 0
  00030	8b 4d f0	 mov	 ecx, DWORD PTR _this$[ebp]
  00033	8b 55 08	 mov	 edx, DWORD PTR ___that$[ebp]
  00036	8b 42 1c	 mov	 eax, DWORD PTR [edx+28]
  00039	89 41 1c	 mov	 DWORD PTR [ecx+28], eax
  0003c	8b 4d f0	 mov	 ecx, DWORD PTR _this$[ebp]
  0003f	8b 55 08	 mov	 edx, DWORD PTR ___that$[ebp]
  00042	8b 42 20	 mov	 eax, DWORD PTR [edx+32]
  00045	89 41 20	 mov	 DWORD PTR [ecx+32], eax
  00048	8b 4d f0	 mov	 ecx, DWORD PTR _this$[ebp]
  0004b	8b 55 08	 mov	 edx, DWORD PTR ___that$[ebp]
  0004e	8b 42 24	 mov	 eax, DWORD PTR [edx+36]
  00051	89 41 24	 mov	 DWORD PTR [ecx+36], eax
  00054	8b 4d 08	 mov	 ecx, DWORD PTR ___that$[ebp]
  00057	83 c1 28	 add	 ecx, 40			; 00000028H
  0005a	51		 push	 ecx
  0005b	8b 4d f0	 mov	 ecx, DWORD PTR _this$[ebp]
  0005e	83 c1 28	 add	 ecx, 40			; 00000028H
  00061	ff 15 00 00 00
	00		 call	 DWORD PTR __imp_??0?$CStringT@DV?$StrTraitMFC_DLL@DV?$ChTraitsCRT@D@ATL@@@@@ATL@@QAE@ABV01@@Z
  00067	c6 45 fc 01	 mov	 BYTE PTR __$EHRec$[ebp+8], 1
  0006b	8b 55 08	 mov	 edx, DWORD PTR ___that$[ebp]
  0006e	83 c2 2c	 add	 edx, 44			; 0000002cH
  00071	52		 push	 edx
  00072	8b 4d f0	 mov	 ecx, DWORD PTR _this$[ebp]
  00075	83 c1 2c	 add	 ecx, 44			; 0000002cH
  00078	ff 15 00 00 00
	00		 call	 DWORD PTR __imp_??0?$CStringT@DV?$StrTraitMFC_DLL@DV?$ChTraitsCRT@D@ATL@@@@@ATL@@QAE@ABV01@@Z
  0007e	c6 45 fc 02	 mov	 BYTE PTR __$EHRec$[ebp+8], 2
  00082	8b 45 08	 mov	 eax, DWORD PTR ___that$[ebp]
  00085	83 c0 30	 add	 eax, 48			; 00000030H
  00088	50		 push	 eax
  00089	8b 4d f0	 mov	 ecx, DWORD PTR _this$[ebp]
  0008c	83 c1 30	 add	 ecx, 48			; 00000030H
  0008f	ff 15 00 00 00
	00		 call	 DWORD PTR __imp_??0?$CStringT@DV?$StrTraitMFC_DLL@DV?$ChTraitsCRT@D@ATL@@@@@ATL@@QAE@ABV01@@Z
  00095	8b 4d 08	 mov	 ecx, DWORD PTR ___that$[ebp]
  00098	83 c1 34	 add	 ecx, 52			; 00000034H
  0009b	8b 55 f0	 mov	 edx, DWORD PTR _this$[ebp]
  0009e	83 c2 34	 add	 edx, 52			; 00000034H
  000a1	8b 01		 mov	 eax, DWORD PTR [ecx]
  000a3	89 02		 mov	 DWORD PTR [edx], eax
  000a5	8b 41 04	 mov	 eax, DWORD PTR [ecx+4]
  000a8	89 42 04	 mov	 DWORD PTR [edx+4], eax
  000ab	8b 41 08	 mov	 eax, DWORD PTR [ecx+8]
  000ae	89 42 08	 mov	 DWORD PTR [edx+8], eax
  000b1	8b 49 0c	 mov	 ecx, DWORD PTR [ecx+12]
  000b4	89 4a 0c	 mov	 DWORD PTR [edx+12], ecx
  000b7	c7 45 fc ff ff
	ff ff		 mov	 DWORD PTR __$EHRec$[ebp+8], -1
  000be	8b 45 f0	 mov	 eax, DWORD PTR _this$[ebp]
  000c1	8b 4d f4	 mov	 ecx, DWORD PTR __$EHRec$[ebp]
  000c4	64 89 0d 00 00
	00 00		 mov	 DWORD PTR fs:__except_list, ecx
  000cb	8b e5		 mov	 esp, ebp
  000cd	5d		 pop	 ebp
  000ce	c2 04 00	 ret	 4
_TEXT	ENDS
;	COMDAT text$x
text$x	SEGMENT
$L200006:
  00000	8b 4d f0	 mov	 ecx, DWORD PTR _this$[ebp]
  00003	ff 25 00 00 00
	00		 jmp	 DWORD PTR __imp_??1?$basic_string@DU?$char_traits@D@std@@V?$allocator@D@2@@std@@QAE@XZ
$L200007:
  00009	8b 4d f0	 mov	 ecx, DWORD PTR _this$[ebp]
  0000c	83 c1 28	 add	 ecx, 40			; 00000028H
  0000f	ff 25 00 00 00
	00		 jmp	 DWORD PTR __imp_??1?$CStringT@DV?$StrTraitMFC_DLL@DV?$ChTraitsCRT@D@ATL@@@@@ATL@@QAE@XZ
$L200008:
  00015	8b 4d f0	 mov	 ecx, DWORD PTR _this$[ebp]
  00018	83 c1 2c	 add	 ecx, 44			; 0000002cH
  0001b	ff 25 00 00 00
	00		 jmp	 DWORD PTR __imp_??1?$CStringT@DV?$StrTraitMFC_DLL@DV?$ChTraitsCRT@D@ATL@@@@@ATL@@QAE@XZ
__ehhandler$??0_tagLMCItemInfo@@QAE@ABU0@@Z:
  00021	b8 00 00 00 00	 mov	 eax, OFFSET FLAT:$T200011
  00026	e9 00 00 00 00	 jmp	 ___CxxFrameHandler
text$x	ENDS
??0_tagLMCItemInfo@@QAE@ABU0@@Z ENDP			; _tagLMCItemInfo::_tagLMCItemInfo
PUBLIC	??_R1A@?0A@A@logic_error@std@@8			; std::logic_error::`RTTI Base Class Descriptor at (0,-1,0,0)'
PUBLIC	??_R1A@?0A@A@exception@@8			; exception::`RTTI Base Class Descriptor at (0,-1,0,0)'
PUBLIC	??_R4length_error@std@@6B@			; std::length_error::`RTTI Complete Object Locator'
PUBLIC	??_R3length_error@std@@8			; std::length_error::`RTTI Class Hierarchy Descriptor'
PUBLIC	??_R2length_error@std@@8			; std::length_error::`RTTI Base Class Array'
PUBLIC	??_R1A@?0A@A@length_error@std@@8		; std::length_error::`RTTI Base Class Descriptor at (0,-1,0,0)'
PUBLIC	?what@logic_error@std@@UBEPBDXZ			; std::logic_error::what
PUBLIC	??_7length_error@std@@6B@			; std::length_error::`vftable'
PUBLIC	??_Glength_error@std@@UAEPAXI@Z			; std::length_error::`scalar deleting destructor'
EXTRN	??_Elength_error@std@@UAEPAXI@Z:NEAR		; std::length_error::`vector deleting destructor'
;	COMDAT ??_7length_error@std@@6B@
CONST	SEGMENT
??_7length_error@std@@6B@ DD FLAT:??_R4length_error@std@@6B@ ; std::length_error::`vftable'
	DD	FLAT:??_Elength_error@std@@UAEPAXI@Z
	DD	FLAT:?what@logic_error@std@@UBEPBDXZ
CONST	ENDS
;	COMDAT ??_R4length_error@std@@6B@
rdata$r	SEGMENT
??_R4length_error@std@@6B@ DD 00H			; std::length_error::`RTTI Complete Object Locator'
	DD	00H
	DD	00H
	DD	FLAT:??_R0?AVlength_error@std@@@8
	DD	FLAT:??_R3length_error@std@@8
rdata$r	ENDS
;	COMDAT ??_R3length_error@std@@8
rdata$r	SEGMENT
??_R3length_error@std@@8 DD 00H				; std::length_error::`RTTI Class Hierarchy Descriptor'
	DD	00H
	DD	03H
	DD	FLAT:??_R2length_error@std@@8
rdata$r	ENDS
;	COMDAT ??_R2length_error@std@@8
rdata$r	SEGMENT
??_R2length_error@std@@8 DD FLAT:??_R1A@?0A@A@length_error@std@@8 ; std::length_error::`RTTI Base Class Array'
	DD	FLAT:??_R1A@?0A@A@logic_error@std@@8
	DD	FLAT:??_R1A@?0A@A@exception@@8
rdata$r	ENDS
;	COMDAT ??_R1A@?0A@A@length_error@std@@8
rdata$r	SEGMENT
??_R1A@?0A@A@length_error@std@@8 DD FLAT:??_R0?AVlength_error@std@@@8 ; std::length_error::`RTTI Base Class Descriptor at (0,-1,0,0)'
	DD	02H
	DD	00H
	DD	0ffffffffH
	DD	00H
	DD	00H
rdata$r	ENDS
;	COMDAT ??_R1A@?0A@A@logic_error@std@@8
rdata$r	SEGMENT
??_R1A@?0A@A@logic_error@std@@8 DD FLAT:??_R0?AVlogic_error@std@@@8 ; std::logic_error::`RTTI Base Class Descriptor at (0,-1,0,0)'
	DD	01H
	DD	00H
	DD	0ffffffffH
	DD	00H
	DD	00H
rdata$r	ENDS
;	COMDAT ??_R1A@?0A@A@exception@@8
rdata$r	SEGMENT
??_R1A@?0A@A@exception@@8 DD FLAT:??_R0?AVexception@@@8	; exception::`RTTI Base Class Descriptor at (0,-1,0,0)'
	DD	00H
	DD	00H
	DD	0ffffffffH
	DD	00H
	DD	00H
; Function compile flags: /Odt
rdata$r	ENDS
;	COMDAT ??0length_error@std@@QAE@ABV01@@Z
_TEXT	SEGMENT
_this$ = -4						; size = 4
___that$ = 8						; size = 4
??0length_error@std@@QAE@ABV01@@Z PROC NEAR		; std::length_error::length_error, COMDAT
; _this$ = ecx
  00000	55		 push	 ebp
  00001	8b ec		 mov	 ebp, esp
  00003	51		 push	 ecx
  00004	89 4d fc	 mov	 DWORD PTR _this$[ebp], ecx
  00007	8b 45 08	 mov	 eax, DWORD PTR ___that$[ebp]
  0000a	50		 push	 eax
  0000b	8b 4d fc	 mov	 ecx, DWORD PTR _this$[ebp]
  0000e	e8 00 00 00 00	 call	 ??0logic_error@std@@QAE@ABV01@@Z
  00013	8b 4d fc	 mov	 ecx, DWORD PTR _this$[ebp]
  00016	c7 01 00 00 00
	00		 mov	 DWORD PTR [ecx], OFFSET FLAT:??_7length_error@std@@6B@
  0001c	8b 45 fc	 mov	 eax, DWORD PTR _this$[ebp]
  0001f	8b e5		 mov	 esp, ebp
  00021	5d		 pop	 ebp
  00022	c2 04 00	 ret	 4
??0length_error@std@@QAE@ABV01@@Z ENDP			; std::length_error::length_error
; Function compile flags: /Odt
; File d:\program files (x86)\microsoft visual studio .net 2003\vc7\include\xmemory
_TEXT	ENDS
;	COMDAT ?max_size@?$allocator@U_tagLMCItemInfo@@@std@@QBEIXZ
_TEXT	SEGMENT
tv65 = -12						; size = 4
_this$ = -8						; size = 4
__Count$ = -4						; size = 4
?max_size@?$allocator@U_tagLMCItemInfo@@@std@@QBEIXZ PROC NEAR ; std::allocator<_tagLMCItemInfo>::max_size, COMDAT
; _this$ = ecx

; 156  : 		{	// estimate maximum array size

  00000	55		 push	 ebp
  00001	8b ec		 mov	 ebp, esp
  00003	83 ec 0c	 sub	 esp, 12			; 0000000cH
  00006	89 4d f8	 mov	 DWORD PTR _this$[ebp], ecx

; 157  : 		_SIZT _Count = (_SIZT)(-1) / sizeof (_Ty);

  00009	c7 45 fc c3 c3
	c3 03		 mov	 DWORD PTR __Count$[ebp], 63161283 ; 03c3c3c3H

; 158  : 		return (0 < _Count ? _Count : 1);

  00010	83 7d fc 00	 cmp	 DWORD PTR __Count$[ebp], 0
  00014	76 08		 jbe	 SHORT $L200021
  00016	8b 45 fc	 mov	 eax, DWORD PTR __Count$[ebp]
  00019	89 45 f4	 mov	 DWORD PTR tv65[ebp], eax
  0001c	eb 07		 jmp	 SHORT $L200022
$L200021:
  0001e	c7 45 f4 01 00
	00 00		 mov	 DWORD PTR tv65[ebp], 1
$L200022:
  00025	8b 45 f4	 mov	 eax, DWORD PTR tv65[ebp]

; 159  : 		}

  00028	8b e5		 mov	 esp, ebp
  0002a	5d		 pop	 ebp
  0002b	c3		 ret	 0
?max_size@?$allocator@U_tagLMCItemInfo@@@std@@QBEIXZ ENDP ; std::allocator<_tagLMCItemInfo>::max_size
; Function compile flags: /Odt
; File d:\program files (x86)\microsoft visual studio .net 2003\vc7\include\vector
_TEXT	ENDS
;	COMDAT ??Gconst_iterator@?$vector@U_tagLMCItemInfo@@V?$allocator@U_tagLMCItemInfo@@@std@@@std@@QBEHABV012@@Z
_TEXT	SEGMENT
_this$ = -4						; size = 4
__Right$ = 8						; size = 4
??Gconst_iterator@?$vector@U_tagLMCItemInfo@@V?$allocator@U_tagLMCItemInfo@@@std@@@std@@QBEHABV012@@Z PROC NEAR ; std::vector<_tagLMCItemInfo,std::allocator<_tagLMCItemInfo> >::const_iterator::operator-, COMDAT
; _this$ = ecx

; 140  : 			{	// return difference of iterators

  00000	55		 push	 ebp
  00001	8b ec		 mov	 ebp, esp
  00003	51		 push	 ecx
  00004	89 4d fc	 mov	 DWORD PTR _this$[ebp], ecx

; 141  : 
; 142  : 
; 143  : 			return (_Myptr - _Right._Myptr);

  00007	8b 45 fc	 mov	 eax, DWORD PTR _this$[ebp]
  0000a	8b 4d 08	 mov	 ecx, DWORD PTR __Right$[ebp]
  0000d	8b 00		 mov	 eax, DWORD PTR [eax]
  0000f	2b 01		 sub	 eax, DWORD PTR [ecx]
  00011	99		 cdq
  00012	b9 44 00 00 00	 mov	 ecx, 68			; 00000044H
  00017	f7 f9		 idiv	 ecx

; 144  : 			}

  00019	8b e5		 mov	 esp, ebp
  0001b	5d		 pop	 ebp
  0001c	c2 04 00	 ret	 4
??Gconst_iterator@?$vector@U_tagLMCItemInfo@@V?$allocator@U_tagLMCItemInfo@@@std@@@std@@QBEHABV012@@Z ENDP ; std::vector<_tagLMCItemInfo,std::allocator<_tagLMCItemInfo> >::const_iterator::operator-
_TEXT	ENDS
PUBLIC	??Eiterator@?$vector@U_tagLMCItemInfo@@V?$allocator@U_tagLMCItemInfo@@@std@@@std@@QAEAAV012@XZ ; std::vector<_tagLMCItemInfo,std::allocator<_tagLMCItemInfo> >::iterator::operator++
PUBLIC	??$find_if@Viterator@?$vector@U_tagLMCItemInfo@@V?$allocator@U_tagLMCItemInfo@@@std@@@std@@VCLMCDataOper@@@std@@YA?AViterator@?$vector@U_tagLMCItemInfo@@V?$allocator@U_tagLMCItemInfo@@@std@@@0@V120@0VCLMCDataOper@@@Z ; std::find_if<std::vector<_tagLMCItemInfo,std::allocator<_tagLMCItemInfo> >::iterator,CLMCDataOper>
PUBLIC	??$remove_copy_if@Viterator@?$vector@U_tagLMCItemInfo@@V?$allocator@U_tagLMCItemInfo@@@std@@@std@@V123@VCLMCDataOper@@@std@@YA?AViterator@?$vector@U_tagLMCItemInfo@@V?$allocator@U_tagLMCItemInfo@@@std@@@0@V120@00VCLMCDataOper@@@Z ; std::remove_copy_if<std::vector<_tagLMCItemInfo,std::allocator<_tagLMCItemInfo> >::iterator,std::vector<_tagLMCItemInfo,std::allocator<_tagLMCItemInfo> >::iterator,CLMCDataOper>
;	COMDAT xdata$x
; File d:\program files (x86)\microsoft visual studio .net 2003\vc7\include\algorithm
xdata$x	SEGMENT
$T200032 DD	0ffffffffH
	DD	FLAT:$L200028
$T200030 DD	019930520H
	DD	01H
	DD	FLAT:$T200032
	DD	2 DUP(00H)
	DD	2 DUP(00H)
; Function compile flags: /Odt
xdata$x	ENDS
;	COMDAT ??$remove_if@Viterator@?$vector@U_tagLMCItemInfo@@V?$allocator@U_tagLMCItemInfo@@@std@@@std@@VCLMCDataOper@@@std@@YA?AViterator@?$vector@U_tagLMCItemInfo@@V?$allocator@U_tagLMCItemInfo@@@std@@@0@V120@0VCLMCDataOper@@@Z
_TEXT	SEGMENT
$T200027 = -20						; size = 4
__First1$199115 = -16					; size = 4
__$EHRec$ = -12						; size = 12
___$ReturnUdt$ = 8					; size = 4
__First$ = 12						; size = 4
__Last$ = 16						; size = 4
__Pred$ = 20						; size = 4
??$remove_if@Viterator@?$vector@U_tagLMCItemInfo@@V?$allocator@U_tagLMCItemInfo@@@std@@@std@@VCLMCDataOper@@@std@@YA?AViterator@?$vector@U_tagLMCItemInfo@@V?$allocator@U_tagLMCItemInfo@@@std@@@0@V120@0VCLMCDataOper@@@Z PROC NEAR ; std::remove_if<std::vector<_tagLMCItemInfo,std::allocator<_tagLMCItemInfo> >::iterator,CLMCDataOper>, COMDAT

; 515  : 	{	// remove each satisfying _Pred

  00000	55		 push	 ebp
  00001	8b ec		 mov	 ebp, esp
  00003	6a ff		 push	 -1
  00005	68 00 00 00 00	 push	 __ehhandler$??$remove_if@Viterator@?$vector@U_tagLMCItemInfo@@V?$allocator@U_tagLMCItemInfo@@@std@@@std@@VCLMCDataOper@@@std@@YA?AViterator@?$vector@U_tagLMCItemInfo@@V?$allocator@U_tagLMCItemInfo@@@std@@@0@V120@0VCLMCDataOper@@@Z
  0000a	64 a1 00 00 00
	00		 mov	 eax, DWORD PTR fs:__except_list
  00010	50		 push	 eax
  00011	64 89 25 00 00
	00 00		 mov	 DWORD PTR fs:__except_list, esp
  00018	83 ec 08	 sub	 esp, 8
  0001b	c7 45 fc 00 00
	00 00		 mov	 DWORD PTR __$EHRec$[ebp+8], 0

; 516  : 	_First = std::find_if(_First, _Last, _Pred);

  00022	8b 45 14	 mov	 eax, DWORD PTR __Pred$[ebp]
  00025	50		 push	 eax
  00026	8b 4d 10	 mov	 ecx, DWORD PTR __Last$[ebp]
  00029	51		 push	 ecx
  0002a	8b 55 0c	 mov	 edx, DWORD PTR __First$[ebp]
  0002d	52		 push	 edx
  0002e	8d 45 ec	 lea	 eax, DWORD PTR $T200027[ebp]
  00031	50		 push	 eax
  00032	e8 00 00 00 00	 call	 ??$find_if@Viterator@?$vector@U_tagLMCItemInfo@@V?$allocator@U_tagLMCItemInfo@@@std@@@std@@VCLMCDataOper@@@std@@YA?AViterator@?$vector@U_tagLMCItemInfo@@V?$allocator@U_tagLMCItemInfo@@@std@@@0@V120@0VCLMCDataOper@@@Z ; std::find_if<std::vector<_tagLMCItemInfo,std::allocator<_tagLMCItemInfo> >::iterator,CLMCDataOper>
  00037	83 c4 10	 add	 esp, 16			; 00000010H
  0003a	8b 08		 mov	 ecx, DWORD PTR [eax]
  0003c	89 4d 0c	 mov	 DWORD PTR __First$[ebp], ecx

; 517  : 	if (_First == _Last)

  0003f	8d 55 10	 lea	 edx, DWORD PTR __Last$[ebp]
  00042	52		 push	 edx
  00043	8d 4d 0c	 lea	 ecx, DWORD PTR __First$[ebp]
  00046	e8 00 00 00 00	 call	 ??8const_iterator@?$vector@U_tagLMCItemInfo@@V?$allocator@U_tagLMCItemInfo@@@std@@@std@@QBE_NABV012@@Z ; std::vector<_tagLMCItemInfo,std::allocator<_tagLMCItemInfo> >::const_iterator::operator==
  0004b	0f b6 c0	 movzx	 eax, al
  0004e	85 c0		 test	 eax, eax
  00050	74 1c		 je	 SHORT $L199113

; 518  : 		return (_First);	// empty sequence, all done

  00052	8b 4d 08	 mov	 ecx, DWORD PTR ___$ReturnUdt$[ebp]
  00055	8b 55 0c	 mov	 edx, DWORD PTR __First$[ebp]
  00058	89 11		 mov	 DWORD PTR [ecx], edx
  0005a	c7 45 fc ff ff
	ff ff		 mov	 DWORD PTR __$EHRec$[ebp+8], -1
  00061	8d 4d 14	 lea	 ecx, DWORD PTR __Pred$[ebp]
  00064	e8 00 00 00 00	 call	 ??1CLMCDataOper@@QAE@XZ	; CLMCDataOper::~CLMCDataOper
  00069	8b 45 08	 mov	 eax, DWORD PTR ___$ReturnUdt$[ebp]
  0006c	eb 3b		 jmp	 SHORT $L199104
$L199113:

; 519  : 	else
; 520  : 		{	// nonempty sequence, worth doing
; 521  : 		_FwdIt _First1 = _First;

  0006e	8b 45 0c	 mov	 eax, DWORD PTR __First$[ebp]
  00071	89 45 f0	 mov	 DWORD PTR __First1$199115[ebp], eax

; 522  : 		return (std::remove_copy_if(++_First1, _Last, _First, _Pred));

  00074	8b 4d 14	 mov	 ecx, DWORD PTR __Pred$[ebp]
  00077	51		 push	 ecx
  00078	8b 55 0c	 mov	 edx, DWORD PTR __First$[ebp]
  0007b	52		 push	 edx
  0007c	8b 45 10	 mov	 eax, DWORD PTR __Last$[ebp]
  0007f	50		 push	 eax
  00080	8d 4d f0	 lea	 ecx, DWORD PTR __First1$199115[ebp]
  00083	e8 00 00 00 00	 call	 ??Eiterator@?$vector@U_tagLMCItemInfo@@V?$allocator@U_tagLMCItemInfo@@@std@@@std@@QAEAAV012@XZ ; std::vector<_tagLMCItemInfo,std::allocator<_tagLMCItemInfo> >::iterator::operator++
  00088	8b 08		 mov	 ecx, DWORD PTR [eax]
  0008a	51		 push	 ecx
  0008b	8b 55 08	 mov	 edx, DWORD PTR ___$ReturnUdt$[ebp]
  0008e	52		 push	 edx
  0008f	e8 00 00 00 00	 call	 ??$remove_copy_if@Viterator@?$vector@U_tagLMCItemInfo@@V?$allocator@U_tagLMCItemInfo@@@std@@@std@@V123@VCLMCDataOper@@@std@@YA?AViterator@?$vector@U_tagLMCItemInfo@@V?$allocator@U_tagLMCItemInfo@@@std@@@0@V120@00VCLMCDataOper@@@Z ; std::remove_copy_if<std::vector<_tagLMCItemInfo,std::allocator<_tagLMCItemInfo> >::iterator,std::vector<_tagLMCItemInfo,std::allocator<_tagLMCItemInfo> >::iterator,CLMCDataOper>
  00094	83 c4 14	 add	 esp, 20			; 00000014H
  00097	c7 45 fc ff ff
	ff ff		 mov	 DWORD PTR __$EHRec$[ebp+8], -1
  0009e	8d 4d 14	 lea	 ecx, DWORD PTR __Pred$[ebp]
  000a1	e8 00 00 00 00	 call	 ??1CLMCDataOper@@QAE@XZ	; CLMCDataOper::~CLMCDataOper
  000a6	8b 45 08	 mov	 eax, DWORD PTR ___$ReturnUdt$[ebp]
$L199104:

; 523  : 		}
; 524  : 	}

  000a9	8b 4d f4	 mov	 ecx, DWORD PTR __$EHRec$[ebp]
  000ac	64 89 0d 00 00
	00 00		 mov	 DWORD PTR fs:__except_list, ecx
  000b3	8b e5		 mov	 esp, ebp
  000b5	5d		 pop	 ebp
  000b6	c3		 ret	 0
_TEXT	ENDS
;	COMDAT text$x
text$x	SEGMENT
$L200028:
  00000	8d 4d 14	 lea	 ecx, DWORD PTR __Pred$[ebp]
  00003	e9 00 00 00 00	 jmp	 ??1CLMCDataOper@@QAE@XZ	; CLMCDataOper::~CLMCDataOper
__ehhandler$??$remove_if@Viterator@?$vector@U_tagLMCItemInfo@@V?$allocator@U_tagLMCItemInfo@@@std@@@std@@VCLMCDataOper@@@std@@YA?AViterator@?$vector@U_tagLMCItemInfo@@V?$allocator@U_tagLMCItemInfo@@@std@@@0@V120@0VCLMCDataOper@@@Z:
  00008	b8 00 00 00 00	 mov	 eax, OFFSET FLAT:$T200030
  0000d	e9 00 00 00 00	 jmp	 ___CxxFrameHandler
text$x	ENDS
??$remove_if@Viterator@?$vector@U_tagLMCItemInfo@@V?$allocator@U_tagLMCItemInfo@@@std@@@std@@VCLMCDataOper@@@std@@YA?AViterator@?$vector@U_tagLMCItemInfo@@V?$allocator@U_tagLMCItemInfo@@@std@@@0@V120@0VCLMCDataOper@@@Z ENDP ; std::remove_if<std::vector<_tagLMCItemInfo,std::allocator<_tagLMCItemInfo> >::iterator,CLMCDataOper>
PUBLIC	??$_Ptr_cat@PAU_tagLMCItemInfo@@PAU1@@std@@YA?AU_Nonscalar_ptr_iterator_tag@0@AAPAU_tagLMCItemInfo@@0@Z ; std::_Ptr_cat<_tagLMCItemInfo *,_tagLMCItemInfo *>
PUBLIC	??$_Copy_opt@PAU_tagLMCItemInfo@@PAU1@@std@@YAPAU_tagLMCItemInfo@@PAU1@00U_Nonscalar_ptr_iterator_tag@0@@Z ; std::_Copy_opt<_tagLMCItemInfo *,_tagLMCItemInfo *>
; Function compile flags: /Odt
; File d:\program files (x86)\microsoft visual studio .net 2003\vc7\include\xutility
;	COMDAT ??$copy@PAU_tagLMCItemInfo@@PAU1@@std@@YAPAU_tagLMCItemInfo@@PAU1@00@Z
_TEXT	SEGMENT
$T200037 = -1						; size = 1
__First$ = 8						; size = 4
__Last$ = 12						; size = 4
__Dest$ = 16						; size = 4
??$copy@PAU_tagLMCItemInfo@@PAU1@@std@@YAPAU_tagLMCItemInfo@@PAU1@00@Z PROC NEAR ; std::copy<_tagLMCItemInfo *,_tagLMCItemInfo *>, COMDAT

; 1039 : 	{	// copy [_First, _Last) to [_Dest, ...)

  00000	55		 push	 ebp
  00001	8b ec		 mov	 ebp, esp
  00003	51		 push	 ecx

; 1040 : 	return (_Copy_opt(_First, _Last, _Dest, _Ptr_cat(_First, _Dest)));

  00004	8d 45 10	 lea	 eax, DWORD PTR __Dest$[ebp]
  00007	50		 push	 eax
  00008	8d 4d 08	 lea	 ecx, DWORD PTR __First$[ebp]
  0000b	51		 push	 ecx
  0000c	e8 00 00 00 00	 call	 ??$_Ptr_cat@PAU_tagLMCItemInfo@@PAU1@@std@@YA?AU_Nonscalar_ptr_iterator_tag@0@AAPAU_tagLMCItemInfo@@0@Z ; std::_Ptr_cat<_tagLMCItemInfo *,_tagLMCItemInfo *>
  00011	83 c4 08	 add	 esp, 8
  00014	88 45 ff	 mov	 BYTE PTR $T200037[ebp], al
  00017	8a 55 ff	 mov	 dl, BYTE PTR $T200037[ebp]
  0001a	52		 push	 edx
  0001b	8b 45 10	 mov	 eax, DWORD PTR __Dest$[ebp]
  0001e	50		 push	 eax
  0001f	8b 4d 0c	 mov	 ecx, DWORD PTR __Last$[ebp]
  00022	51		 push	 ecx
  00023	8b 55 08	 mov	 edx, DWORD PTR __First$[ebp]
  00026	52		 push	 edx
  00027	e8 00 00 00 00	 call	 ??$_Copy_opt@PAU_tagLMCItemInfo@@PAU1@@std@@YAPAU_tagLMCItemInfo@@PAU1@00U_Nonscalar_ptr_iterator_tag@0@@Z ; std::_Copy_opt<_tagLMCItemInfo *,_tagLMCItemInfo *>
  0002c	83 c4 10	 add	 esp, 16			; 00000010H

; 1041 : 	}

  0002f	8b e5		 mov	 esp, ebp
  00031	5d		 pop	 ebp
  00032	c3		 ret	 0
??$copy@PAU_tagLMCItemInfo@@PAU1@@std@@YAPAU_tagLMCItemInfo@@PAU1@00@Z ENDP ; std::copy<_tagLMCItemInfo *,_tagLMCItemInfo *>
_TEXT	ENDS
PUBLIC	??$_Destroy_range@U_tagLMCItemInfo@@V?$allocator@U_tagLMCItemInfo@@@std@@@std@@YAXPAU_tagLMCItemInfo@@0AAV?$allocator@U_tagLMCItemInfo@@@0@U_Nonscalar_ptr_iterator_tag@0@@Z ; std::_Destroy_range<_tagLMCItemInfo,std::allocator<_tagLMCItemInfo> >
; Function compile flags: /Odt
; File d:\program files (x86)\microsoft visual studio .net 2003\vc7\include\xmemory
;	COMDAT ??$_Destroy_range@U_tagLMCItemInfo@@V?$allocator@U_tagLMCItemInfo@@@std@@@std@@YAXPAU_tagLMCItemInfo@@0AAV?$allocator@U_tagLMCItemInfo@@@0@@Z
_TEXT	SEGMENT
$T200040 = -1						; size = 1
__First$ = 8						; size = 4
__Last$ = 12						; size = 4
__Al$ = 16						; size = 4
??$_Destroy_range@U_tagLMCItemInfo@@V?$allocator@U_tagLMCItemInfo@@@std@@@std@@YAXPAU_tagLMCItemInfo@@0AAV?$allocator@U_tagLMCItemInfo@@@0@@Z PROC NEAR ; std::_Destroy_range<_tagLMCItemInfo,std::allocator<_tagLMCItemInfo> >, COMDAT

; 216  : 	{	// destroy [_First, _Last)

  00000	55		 push	 ebp
  00001	8b ec		 mov	 ebp, esp
  00003	51		 push	 ecx

; 217  : 	_Destroy_range(_First, _Last, _Al, _Ptr_cat(_First, _Last));

  00004	8d 45 0c	 lea	 eax, DWORD PTR __Last$[ebp]
  00007	50		 push	 eax
  00008	8d 4d 08	 lea	 ecx, DWORD PTR __First$[ebp]
  0000b	51		 push	 ecx
  0000c	e8 00 00 00 00	 call	 ??$_Ptr_cat@PAU_tagLMCItemInfo@@PAU1@@std@@YA?AU_Nonscalar_ptr_iterator_tag@0@AAPAU_tagLMCItemInfo@@0@Z ; std::_Ptr_cat<_tagLMCItemInfo *,_tagLMCItemInfo *>
  00011	83 c4 08	 add	 esp, 8
  00014	88 45 ff	 mov	 BYTE PTR $T200040[ebp], al
  00017	8a 55 ff	 mov	 dl, BYTE PTR $T200040[ebp]
  0001a	52		 push	 edx
  0001b	8b 45 10	 mov	 eax, DWORD PTR __Al$[ebp]
  0001e	50		 push	 eax
  0001f	8b 4d 0c	 mov	 ecx, DWORD PTR __Last$[ebp]
  00022	51		 push	 ecx
  00023	8b 55 08	 mov	 edx, DWORD PTR __First$[ebp]
  00026	52		 push	 edx
  00027	e8 00 00 00 00	 call	 ??$_Destroy_range@U_tagLMCItemInfo@@V?$allocator@U_tagLMCItemInfo@@@std@@@std@@YAXPAU_tagLMCItemInfo@@0AAV?$allocator@U_tagLMCItemInfo@@@0@U_Nonscalar_ptr_iterator_tag@0@@Z ; std::_Destroy_range<_tagLMCItemInfo,std::allocator<_tagLMCItemInfo> >
  0002c	83 c4 10	 add	 esp, 16			; 00000010H

; 218  : 	}

  0002f	8b e5		 mov	 esp, ebp
  00031	5d		 pop	 ebp
  00032	c3		 ret	 0
??$_Destroy_range@U_tagLMCItemInfo@@V?$allocator@U_tagLMCItemInfo@@@std@@@std@@YAXPAU_tagLMCItemInfo@@0AAV?$allocator@U_tagLMCItemInfo@@@0@@Z ENDP ; std::_Destroy_range<_tagLMCItemInfo,std::allocator<_tagLMCItemInfo> >
_TEXT	ENDS
PUBLIC	??$_Uninit_fill_n@PAU_tagLMCItemInfo@@IU1@V?$allocator@U_tagLMCItemInfo@@@std@@@std@@YAXPAU_tagLMCItemInfo@@IABU1@AAV?$allocator@U_tagLMCItemInfo@@@0@U_Nonscalar_ptr_iterator_tag@0@@Z ; std::_Uninit_fill_n<_tagLMCItemInfo *,unsigned int,_tagLMCItemInfo,std::allocator<_tagLMCItemInfo> >
; Function compile flags: /Odt
; File d:\program files (x86)\microsoft visual studio .net 2003\vc7\include\memory
;	COMDAT ??$_Uninitialized_fill_n@PAU_tagLMCItemInfo@@IU1@V?$allocator@U_tagLMCItemInfo@@@std@@@std@@YAXPAU_tagLMCItemInfo@@IABU1@AAV?$allocator@U_tagLMCItemInfo@@@0@@Z
_TEXT	SEGMENT
$T200043 = -1						; size = 1
__First$ = 8						; size = 4
__Count$ = 12						; size = 4
__Val$ = 16						; size = 4
__Al$ = 20						; size = 4
??$_Uninitialized_fill_n@PAU_tagLMCItemInfo@@IU1@V?$allocator@U_tagLMCItemInfo@@@std@@@std@@YAXPAU_tagLMCItemInfo@@IABU1@AAV?$allocator@U_tagLMCItemInfo@@@0@@Z PROC NEAR ; std::_Uninitialized_fill_n<_tagLMCItemInfo *,unsigned int,_tagLMCItemInfo,std::allocator<_tagLMCItemInfo> >, COMDAT

; 255  : 	{	// copy _Count *_Val to raw _First, using _Al

  00000	55		 push	 ebp
  00001	8b ec		 mov	 ebp, esp
  00003	51		 push	 ecx

; 256  : 	_Uninit_fill_n(_First, _Count, _Val, _Al,
; 257  : 		_Ptr_cat(_First, _First));

  00004	8d 45 08	 lea	 eax, DWORD PTR __First$[ebp]
  00007	50		 push	 eax
  00008	8d 4d 08	 lea	 ecx, DWORD PTR __First$[ebp]
  0000b	51		 push	 ecx
  0000c	e8 00 00 00 00	 call	 ??$_Ptr_cat@PAU_tagLMCItemInfo@@PAU1@@std@@YA?AU_Nonscalar_ptr_iterator_tag@0@AAPAU_tagLMCItemInfo@@0@Z ; std::_Ptr_cat<_tagLMCItemInfo *,_tagLMCItemInfo *>
  00011	83 c4 08	 add	 esp, 8
  00014	88 45 ff	 mov	 BYTE PTR $T200043[ebp], al
  00017	8a 55 ff	 mov	 dl, BYTE PTR $T200043[ebp]
  0001a	52		 push	 edx
  0001b	8b 45 14	 mov	 eax, DWORD PTR __Al$[ebp]
  0001e	50		 push	 eax
  0001f	8b 4d 10	 mov	 ecx, DWORD PTR __Val$[ebp]
  00022	51		 push	 ecx
  00023	8b 55 0c	 mov	 edx, DWORD PTR __Count$[ebp]
  00026	52		 push	 edx
  00027	8b 45 08	 mov	 eax, DWORD PTR __First$[ebp]
  0002a	50		 push	 eax
  0002b	e8 00 00 00 00	 call	 ??$_Uninit_fill_n@PAU_tagLMCItemInfo@@IU1@V?$allocator@U_tagLMCItemInfo@@@std@@@std@@YAXPAU_tagLMCItemInfo@@IABU1@AAV?$allocator@U_tagLMCItemInfo@@@0@U_Nonscalar_ptr_iterator_tag@0@@Z ; std::_Uninit_fill_n<_tagLMCItemInfo *,unsigned int,_tagLMCItemInfo,std::allocator<_tagLMCItemInfo> >
  00030	83 c4 14	 add	 esp, 20			; 00000014H

; 258  : 	}

  00033	8b e5		 mov	 esp, ebp
  00035	5d		 pop	 ebp
  00036	c3		 ret	 0
??$_Uninitialized_fill_n@PAU_tagLMCItemInfo@@IU1@V?$allocator@U_tagLMCItemInfo@@@std@@@std@@YAXPAU_tagLMCItemInfo@@IABU1@AAV?$allocator@U_tagLMCItemInfo@@@0@@Z ENDP ; std::_Uninitialized_fill_n<_tagLMCItemInfo *,unsigned int,_tagLMCItemInfo,std::allocator<_tagLMCItemInfo> >
_TEXT	ENDS
PUBLIC	??$_Uninitialized_copy@PAU_tagLMCItemInfo@@PAU1@V?$allocator@U_tagLMCItemInfo@@@std@@@std@@YAPAU_tagLMCItemInfo@@PAU1@00AAV?$allocator@U_tagLMCItemInfo@@@0@@Z ; std::_Uninitialized_copy<_tagLMCItemInfo *,_tagLMCItemInfo *,std::allocator<_tagLMCItemInfo> >
; Function compile flags: /Odt
; File d:\program files (x86)\microsoft visual studio .net 2003\vc7\include\vector
;	COMDAT ??$_Ucopy@PAU_tagLMCItemInfo@@@?$vector@U_tagLMCItemInfo@@V?$allocator@U_tagLMCItemInfo@@@std@@@std@@IAEPAU_tagLMCItemInfo@@PAU2@00@Z
_TEXT	SEGMENT
_this$ = -4						; size = 4
__First$ = 8						; size = 4
__Last$ = 12						; size = 4
__Ptr$ = 16						; size = 4
??$_Ucopy@PAU_tagLMCItemInfo@@@?$vector@U_tagLMCItemInfo@@V?$allocator@U_tagLMCItemInfo@@@std@@@std@@IAEPAU_tagLMCItemInfo@@PAU2@00@Z PROC NEAR ; std::vector<_tagLMCItemInfo,std::allocator<_tagLMCItemInfo> >::_Ucopy<_tagLMCItemInfo *>, COMDAT
; _this$ = ecx

; 801  : 		pointer _Ucopy(_Iter _First, _Iter _Last, pointer _Ptr)

  00000	55		 push	 ebp
  00001	8b ec		 mov	 ebp, esp
  00003	51		 push	 ecx
  00004	89 4d fc	 mov	 DWORD PTR _this$[ebp], ecx

; 802  : 		{	// copy initializing [_First, _Last), using allocator
; 803  : 		return (_Uninitialized_copy(_First, _Last,
; 804  : 			_Ptr, this->_Alval));

  00007	8b 45 fc	 mov	 eax, DWORD PTR _this$[ebp]
  0000a	50		 push	 eax
  0000b	8b 4d 10	 mov	 ecx, DWORD PTR __Ptr$[ebp]
  0000e	51		 push	 ecx
  0000f	8b 55 0c	 mov	 edx, DWORD PTR __Last$[ebp]
  00012	52		 push	 edx
  00013	8b 45 08	 mov	 eax, DWORD PTR __First$[ebp]
  00016	50		 push	 eax
  00017	e8 00 00 00 00	 call	 ??$_Uninitialized_copy@PAU_tagLMCItemInfo@@PAU1@V?$allocator@U_tagLMCItemInfo@@@std@@@std@@YAPAU_tagLMCItemInfo@@PAU1@00AAV?$allocator@U_tagLMCItemInfo@@@0@@Z ; std::_Uninitialized_copy<_tagLMCItemInfo *,_tagLMCItemInfo *,std::allocator<_tagLMCItemInfo> >
  0001c	83 c4 10	 add	 esp, 16			; 00000010H

; 805  : 		}

  0001f	8b e5		 mov	 esp, ebp
  00021	5d		 pop	 ebp
  00022	c2 0c 00	 ret	 12			; 0000000cH
??$_Ucopy@PAU_tagLMCItemInfo@@@?$vector@U_tagLMCItemInfo@@V?$allocator@U_tagLMCItemInfo@@@std@@@std@@IAEPAU_tagLMCItemInfo@@PAU2@00@Z ENDP ; std::vector<_tagLMCItemInfo,std::allocator<_tagLMCItemInfo> >::_Ucopy<_tagLMCItemInfo *>
_TEXT	ENDS
PUBLIC	??4_tagLMCItemInfo@@QAEAAU0@ABU0@@Z		; _tagLMCItemInfo::operator=
; Function compile flags: /Odt
; File d:\program files (x86)\microsoft visual studio .net 2003\vc7\include\xutility
;	COMDAT ??$fill@PAU_tagLMCItemInfo@@U1@@std@@YAXPAU_tagLMCItemInfo@@0ABU1@@Z
_TEXT	SEGMENT
__First$ = 8						; size = 4
__Last$ = 12						; size = 4
__Val$ = 16						; size = 4
??$fill@PAU_tagLMCItemInfo@@U1@@std@@YAXPAU_tagLMCItemInfo@@0ABU1@@Z PROC NEAR ; std::fill<_tagLMCItemInfo *,_tagLMCItemInfo>, COMDAT

; 1134 : 	{	// copy _Val through [_First, _Last)

  00000	55		 push	 ebp
  00001	8b ec		 mov	 ebp, esp

; 1135 : 	for (; _First != _Last; ++_First)

  00003	eb 09		 jmp	 SHORT $L199284
$L199285:
  00005	8b 45 08	 mov	 eax, DWORD PTR __First$[ebp]
  00008	83 c0 44	 add	 eax, 68			; 00000044H
  0000b	89 45 08	 mov	 DWORD PTR __First$[ebp], eax
$L199284:
  0000e	8b 4d 08	 mov	 ecx, DWORD PTR __First$[ebp]
  00011	3b 4d 0c	 cmp	 ecx, DWORD PTR __Last$[ebp]
  00014	74 0e		 je	 SHORT $L199283

; 1136 : 		*_First = _Val;

  00016	8b 55 10	 mov	 edx, DWORD PTR __Val$[ebp]
  00019	52		 push	 edx
  0001a	8b 4d 08	 mov	 ecx, DWORD PTR __First$[ebp]
  0001d	e8 00 00 00 00	 call	 ??4_tagLMCItemInfo@@QAEAAU0@ABU0@@Z
  00022	eb e1		 jmp	 SHORT $L199285
$L199283:

; 1137 : 	}

  00024	5d		 pop	 ebp
  00025	c3		 ret	 0
??$fill@PAU_tagLMCItemInfo@@U1@@std@@YAXPAU_tagLMCItemInfo@@0ABU1@@Z ENDP ; std::fill<_tagLMCItemInfo *,_tagLMCItemInfo>
_TEXT	ENDS
PUBLIC	??$_Copy_backward_opt@PAU_tagLMCItemInfo@@PAU1@@std@@YAPAU_tagLMCItemInfo@@PAU1@00U_Nonscalar_ptr_iterator_tag@0@@Z ; std::_Copy_backward_opt<_tagLMCItemInfo *,_tagLMCItemInfo *>
; Function compile flags: /Odt
;	COMDAT ??$copy_backward@PAU_tagLMCItemInfo@@PAU1@@std@@YAPAU_tagLMCItemInfo@@PAU1@00@Z
_TEXT	SEGMENT
$T200050 = -1						; size = 1
__First$ = 8						; size = 4
__Last$ = 12						; size = 4
__Dest$ = 16						; size = 4
??$copy_backward@PAU_tagLMCItemInfo@@PAU1@@std@@YAPAU_tagLMCItemInfo@@PAU1@00@Z PROC NEAR ; std::copy_backward<_tagLMCItemInfo *,_tagLMCItemInfo *>, COMDAT

; 1067 : 	{	// copy [_First, _Last) backwards to [..., _Dest)

  00000	55		 push	 ebp
  00001	8b ec		 mov	 ebp, esp
  00003	51		 push	 ecx

; 1068 : 	return (_Copy_backward_opt(_First, _Last, _Dest,
; 1069 : 		_Ptr_cat(_First, _Dest)));

  00004	8d 45 10	 lea	 eax, DWORD PTR __Dest$[ebp]
  00007	50		 push	 eax
  00008	8d 4d 08	 lea	 ecx, DWORD PTR __First$[ebp]
  0000b	51		 push	 ecx
  0000c	e8 00 00 00 00	 call	 ??$_Ptr_cat@PAU_tagLMCItemInfo@@PAU1@@std@@YA?AU_Nonscalar_ptr_iterator_tag@0@AAPAU_tagLMCItemInfo@@0@Z ; std::_Ptr_cat<_tagLMCItemInfo *,_tagLMCItemInfo *>
  00011	83 c4 08	 add	 esp, 8
  00014	88 45 ff	 mov	 BYTE PTR $T200050[ebp], al
  00017	8a 55 ff	 mov	 dl, BYTE PTR $T200050[ebp]
  0001a	52		 push	 edx
  0001b	8b 45 10	 mov	 eax, DWORD PTR __Dest$[ebp]
  0001e	50		 push	 eax
  0001f	8b 4d 0c	 mov	 ecx, DWORD PTR __Last$[ebp]
  00022	51		 push	 ecx
  00023	8b 55 08	 mov	 edx, DWORD PTR __First$[ebp]
  00026	52		 push	 edx
  00027	e8 00 00 00 00	 call	 ??$_Copy_backward_opt@PAU_tagLMCItemInfo@@PAU1@@std@@YAPAU_tagLMCItemInfo@@PAU1@00U_Nonscalar_ptr_iterator_tag@0@@Z ; std::_Copy_backward_opt<_tagLMCItemInfo *,_tagLMCItemInfo *>
  0002c	83 c4 10	 add	 esp, 16			; 00000010H

; 1070 : 	}

  0002f	8b e5		 mov	 esp, ebp
  00031	5d		 pop	 ebp
  00032	c3		 ret	 0
??$copy_backward@PAU_tagLMCItemInfo@@PAU1@@std@@YAPAU_tagLMCItemInfo@@PAU1@00@Z ENDP ; std::copy_backward<_tagLMCItemInfo *,_tagLMCItemInfo *>
_TEXT	ENDS
EXTRN	??2@YAPAXI@Z:NEAR				; operator new
; Function compile flags: /Odt
; File d:\program files (x86)\microsoft visual studio .net 2003\vc7\include\xmemory
;	COMDAT ??$_Allocate@U_tagLMCItemInfo@@@std@@YAPAU_tagLMCItemInfo@@IPAU1@@Z
_TEXT	SEGMENT
__Count$ = 8						; size = 4
___formal$ = 12						; size = 4
??$_Allocate@U_tagLMCItemInfo@@@std@@YAPAU_tagLMCItemInfo@@IPAU1@@Z PROC NEAR ; std::_Allocate<_tagLMCItemInfo>, COMDAT

; 33   : 	{	// allocate storage for _Count elements of type _Ty

  00000	55		 push	 ebp
  00001	8b ec		 mov	 ebp, esp

; 34   : 	return ((_Ty _FARQ *)operator new(_Count * sizeof (_Ty)));

  00003	8b 45 08	 mov	 eax, DWORD PTR __Count$[ebp]
  00006	6b c0 44	 imul	 eax, 68			; 00000044H
  00009	50		 push	 eax
  0000a	e8 00 00 00 00	 call	 ??2@YAPAXI@Z		; operator new
  0000f	83 c4 04	 add	 esp, 4

; 35   : 	}

  00012	5d		 pop	 ebp
  00013	c3		 ret	 0
??$_Allocate@U_tagLMCItemInfo@@@std@@YAPAU_tagLMCItemInfo@@IPAU1@@Z ENDP ; std::_Allocate<_tagLMCItemInfo>
; Function compile flags: /Odt
_TEXT	ENDS
;	COMDAT ??4_tagLMCItemInfo@@QAEAAU0@ABU0@@Z
_TEXT	SEGMENT
_this$ = -4						; size = 4
___that$ = 8						; size = 4
??4_tagLMCItemInfo@@QAEAAU0@ABU0@@Z PROC NEAR		; _tagLMCItemInfo::operator=, COMDAT
; _this$ = ecx
  00000	55		 push	 ebp
  00001	8b ec		 mov	 ebp, esp
  00003	51		 push	 ecx
  00004	89 4d fc	 mov	 DWORD PTR _this$[ebp], ecx
  00007	8b 45 08	 mov	 eax, DWORD PTR ___that$[ebp]
  0000a	50		 push	 eax
  0000b	8b 4d fc	 mov	 ecx, DWORD PTR _this$[ebp]
  0000e	ff 15 00 00 00
	00		 call	 DWORD PTR __imp_??4?$basic_string@DU?$char_traits@D@std@@V?$allocator@D@2@@std@@QAEAAV01@ABV01@@Z
  00014	8b 4d fc	 mov	 ecx, DWORD PTR _this$[ebp]
  00017	8b 55 08	 mov	 edx, DWORD PTR ___that$[ebp]
  0001a	8b 42 1c	 mov	 eax, DWORD PTR [edx+28]
  0001d	89 41 1c	 mov	 DWORD PTR [ecx+28], eax
  00020	8b 4d fc	 mov	 ecx, DWORD PTR _this$[ebp]
  00023	8b 55 08	 mov	 edx, DWORD PTR ___that$[ebp]
  00026	8b 42 20	 mov	 eax, DWORD PTR [edx+32]
  00029	89 41 20	 mov	 DWORD PTR [ecx+32], eax
  0002c	8b 4d fc	 mov	 ecx, DWORD PTR _this$[ebp]
  0002f	8b 55 08	 mov	 edx, DWORD PTR ___that$[ebp]
  00032	8b 42 24	 mov	 eax, DWORD PTR [edx+36]
  00035	89 41 24	 mov	 DWORD PTR [ecx+36], eax
  00038	8b 4d 08	 mov	 ecx, DWORD PTR ___that$[ebp]
  0003b	83 c1 28	 add	 ecx, 40			; 00000028H
  0003e	51		 push	 ecx
  0003f	8b 4d fc	 mov	 ecx, DWORD PTR _this$[ebp]
  00042	83 c1 28	 add	 ecx, 40			; 00000028H
  00045	ff 15 00 00 00
	00		 call	 DWORD PTR __imp_??4?$CStringT@DV?$StrTraitMFC_DLL@DV?$ChTraitsCRT@D@ATL@@@@@ATL@@QAEAAV01@ABV01@@Z
  0004b	8b 55 08	 mov	 edx, DWORD PTR ___that$[ebp]
  0004e	83 c2 2c	 add	 edx, 44			; 0000002cH
  00051	52		 push	 edx
  00052	8b 4d fc	 mov	 ecx, DWORD PTR _this$[ebp]
  00055	83 c1 2c	 add	 ecx, 44			; 0000002cH
  00058	ff 15 00 00 00
	00		 call	 DWORD PTR __imp_??4?$CStringT@DV?$StrTraitMFC_DLL@DV?$ChTraitsCRT@D@ATL@@@@@ATL@@QAEAAV01@ABV01@@Z
  0005e	8b 45 08	 mov	 eax, DWORD PTR ___that$[ebp]
  00061	83 c0 30	 add	 eax, 48			; 00000030H
  00064	50		 push	 eax
  00065	8b 4d fc	 mov	 ecx, DWORD PTR _this$[ebp]
  00068	83 c1 30	 add	 ecx, 48			; 00000030H
  0006b	ff 15 00 00 00
	00		 call	 DWORD PTR __imp_??4?$CStringT@DV?$StrTraitMFC_DLL@DV?$ChTraitsCRT@D@ATL@@@@@ATL@@QAEAAV01@ABV01@@Z
  00071	8b 4d 08	 mov	 ecx, DWORD PTR ___that$[ebp]
  00074	83 c1 34	 add	 ecx, 52			; 00000034H
  00077	8b 55 fc	 mov	 edx, DWORD PTR _this$[ebp]
  0007a	83 c2 34	 add	 edx, 52			; 00000034H
  0007d	8b 01		 mov	 eax, DWORD PTR [ecx]
  0007f	89 02		 mov	 DWORD PTR [edx], eax
  00081	8b 41 04	 mov	 eax, DWORD PTR [ecx+4]
  00084	89 42 04	 mov	 DWORD PTR [edx+4], eax
  00087	8b 41 08	 mov	 eax, DWORD PTR [ecx+8]
  0008a	89 42 08	 mov	 DWORD PTR [edx+8], eax
  0008d	8b 49 0c	 mov	 ecx, DWORD PTR [ecx+12]
  00090	89 4a 0c	 mov	 DWORD PTR [edx+12], ecx
  00093	8b 45 fc	 mov	 eax, DWORD PTR _this$[ebp]
  00096	8b e5		 mov	 esp, ebp
  00098	5d		 pop	 ebp
  00099	c2 04 00	 ret	 4
??4_tagLMCItemInfo@@QAEAAU0@ABU0@@Z ENDP		; _tagLMCItemInfo::operator=
; Function compile flags: /Odt
; File d:\program files (x86)\microsoft visual studio .net 2003\vc7\include\vector
_TEXT	ENDS
;	COMDAT ??Eiterator@?$vector@U_tagLMCItemInfo@@V?$allocator@U_tagLMCItemInfo@@@std@@@std@@QAEAAV012@XZ
_TEXT	SEGMENT
_this$ = -4						; size = 4
??Eiterator@?$vector@U_tagLMCItemInfo@@V?$allocator@U_tagLMCItemInfo@@@std@@@std@@QAEAAV012@XZ PROC NEAR ; std::vector<_tagLMCItemInfo,std::allocator<_tagLMCItemInfo> >::iterator::operator++, COMDAT
; _this$ = ecx

; 229  : 			{	// preincrement

  00000	55		 push	 ebp
  00001	8b ec		 mov	 ebp, esp
  00003	51		 push	 ecx
  00004	89 4d fc	 mov	 DWORD PTR _this$[ebp], ecx

; 230  : 			++this->_Myptr;

  00007	8b 45 fc	 mov	 eax, DWORD PTR _this$[ebp]
  0000a	8b 08		 mov	 ecx, DWORD PTR [eax]
  0000c	83 c1 44	 add	 ecx, 68			; 00000044H
  0000f	8b 55 fc	 mov	 edx, DWORD PTR _this$[ebp]
  00012	89 0a		 mov	 DWORD PTR [edx], ecx

; 231  : 			return (*this);

  00014	8b 45 fc	 mov	 eax, DWORD PTR _this$[ebp]

; 232  : 			}

  00017	8b e5		 mov	 esp, ebp
  00019	5d		 pop	 ebp
  0001a	c3		 ret	 0
??Eiterator@?$vector@U_tagLMCItemInfo@@V?$allocator@U_tagLMCItemInfo@@@std@@@std@@QAEAAV012@XZ ENDP ; std::vector<_tagLMCItemInfo,std::allocator<_tagLMCItemInfo> >::iterator::operator++
_TEXT	ENDS
PUBLIC	??RCLMCDataOper@@QAEHU_tagLMCItemInfo@@@Z	; CLMCDataOper::operator()
;	COMDAT xdata$x
; File d:\program files (x86)\microsoft visual studio .net 2003\vc7\include\algorithm
xdata$x	SEGMENT
$T200065 DD	0ffffffffH
	DD	FLAT:$L200060
$T200063 DD	019930520H
	DD	01H
	DD	FLAT:$T200065
	DD	2 DUP(00H)
	DD	2 DUP(00H)
; Function compile flags: /Odt
xdata$x	ENDS
;	COMDAT ??$find_if@Viterator@?$vector@U_tagLMCItemInfo@@V?$allocator@U_tagLMCItemInfo@@@std@@@std@@VCLMCDataOper@@@std@@YA?AViterator@?$vector@U_tagLMCItemInfo@@V?$allocator@U_tagLMCItemInfo@@@std@@@0@V120@0VCLMCDataOper@@@Z
_TEXT	SEGMENT
tv93 = -24						; size = 4
tv92 = -20						; size = 4
$T200059 = -16						; size = 4
__$EHRec$ = -12						; size = 12
___$ReturnUdt$ = 8					; size = 4
__First$ = 12						; size = 4
__Last$ = 16						; size = 4
__Pred$ = 20						; size = 4
??$find_if@Viterator@?$vector@U_tagLMCItemInfo@@V?$allocator@U_tagLMCItemInfo@@@std@@@std@@VCLMCDataOper@@@std@@YA?AViterator@?$vector@U_tagLMCItemInfo@@V?$allocator@U_tagLMCItemInfo@@@std@@@0@V120@0VCLMCDataOper@@@Z PROC NEAR ; std::find_if<std::vector<_tagLMCItemInfo,std::allocator<_tagLMCItemInfo> >::iterator,CLMCDataOper>, COMDAT

; 62   : 	{	// find first satisfying _Pred

  00000	55		 push	 ebp
  00001	8b ec		 mov	 ebp, esp
  00003	6a ff		 push	 -1
  00005	68 00 00 00 00	 push	 __ehhandler$??$find_if@Viterator@?$vector@U_tagLMCItemInfo@@V?$allocator@U_tagLMCItemInfo@@@std@@@std@@VCLMCDataOper@@@std@@YA?AViterator@?$vector@U_tagLMCItemInfo@@V?$allocator@U_tagLMCItemInfo@@@std@@@0@V120@0VCLMCDataOper@@@Z
  0000a	64 a1 00 00 00
	00		 mov	 eax, DWORD PTR fs:__except_list
  00010	50		 push	 eax
  00011	64 89 25 00 00
	00 00		 mov	 DWORD PTR fs:__except_list, esp
  00018	83 ec 0c	 sub	 esp, 12			; 0000000cH
  0001b	c7 45 fc 00 00
	00 00		 mov	 DWORD PTR __$EHRec$[ebp+8], 0

; 63   : 	for (; _First != _Last; ++_First)

  00022	eb 08		 jmp	 SHORT $L199315
$L199316:
  00024	8d 4d 0c	 lea	 ecx, DWORD PTR __First$[ebp]
  00027	e8 00 00 00 00	 call	 ??Eiterator@?$vector@U_tagLMCItemInfo@@V?$allocator@U_tagLMCItemInfo@@@std@@@std@@QAEAAV012@XZ ; std::vector<_tagLMCItemInfo,std::allocator<_tagLMCItemInfo> >::iterator::operator++
$L199315:
  0002c	8d 45 10	 lea	 eax, DWORD PTR __Last$[ebp]
  0002f	50		 push	 eax
  00030	8d 4d 0c	 lea	 ecx, DWORD PTR __First$[ebp]
  00033	e8 00 00 00 00	 call	 ??9const_iterator@?$vector@U_tagLMCItemInfo@@V?$allocator@U_tagLMCItemInfo@@@std@@@std@@QBE_NABV012@@Z ; std::vector<_tagLMCItemInfo,std::allocator<_tagLMCItemInfo> >::const_iterator::operator!=
  00038	0f b6 c8	 movzx	 ecx, al
  0003b	85 c9		 test	 ecx, ecx
  0003d	74 2e		 je	 SHORT $L199317

; 64   : 		if (_Pred(*_First))

  0003f	8d 4d 0c	 lea	 ecx, DWORD PTR __First$[ebp]
  00042	e8 00 00 00 00	 call	 ??Diterator@?$vector@U_tagLMCItemInfo@@V?$allocator@U_tagLMCItemInfo@@@std@@@std@@QBEAAU_tagLMCItemInfo@@XZ ; std::vector<_tagLMCItemInfo,std::allocator<_tagLMCItemInfo> >::iterator::operator*
  00047	83 ec 44	 sub	 esp, 68			; 00000044H
  0004a	8b cc		 mov	 ecx, esp
  0004c	89 65 f0	 mov	 DWORD PTR $T200059[ebp], esp
  0004f	50		 push	 eax
  00050	e8 00 00 00 00	 call	 ??0_tagLMCItemInfo@@QAE@ABU0@@Z
  00055	89 45 ec	 mov	 DWORD PTR tv92[ebp], eax
  00058	8d 4d 14	 lea	 ecx, DWORD PTR __Pred$[ebp]
  0005b	e8 00 00 00 00	 call	 ??RCLMCDataOper@@QAEHU_tagLMCItemInfo@@@Z ; CLMCDataOper::operator()
  00060	89 45 e8	 mov	 DWORD PTR tv93[ebp], eax
  00063	83 7d e8 00	 cmp	 DWORD PTR tv93[ebp], 0
  00067	74 02		 je	 SHORT $L199319

; 65   : 			break;

  00069	eb 02		 jmp	 SHORT $L199317
$L199319:

; 66   : 	return (_First);

  0006b	eb b7		 jmp	 SHORT $L199316
$L199317:
  0006d	8b 55 08	 mov	 edx, DWORD PTR ___$ReturnUdt$[ebp]
  00070	8b 45 0c	 mov	 eax, DWORD PTR __First$[ebp]
  00073	89 02		 mov	 DWORD PTR [edx], eax
  00075	c7 45 fc ff ff
	ff ff		 mov	 DWORD PTR __$EHRec$[ebp+8], -1
  0007c	8d 4d 14	 lea	 ecx, DWORD PTR __Pred$[ebp]
  0007f	e8 00 00 00 00	 call	 ??1CLMCDataOper@@QAE@XZ	; CLMCDataOper::~CLMCDataOper
  00084	8b 45 08	 mov	 eax, DWORD PTR ___$ReturnUdt$[ebp]

; 67   : 	}

  00087	8b 4d f4	 mov	 ecx, DWORD PTR __$EHRec$[ebp]
  0008a	64 89 0d 00 00
	00 00		 mov	 DWORD PTR fs:__except_list, ecx
  00091	8b e5		 mov	 esp, ebp
  00093	5d		 pop	 ebp
  00094	c3		 ret	 0
_TEXT	ENDS
;	COMDAT text$x
text$x	SEGMENT
$L200060:
  00000	8d 4d 14	 lea	 ecx, DWORD PTR __Pred$[ebp]
  00003	e9 00 00 00 00	 jmp	 ??1CLMCDataOper@@QAE@XZ	; CLMCDataOper::~CLMCDataOper
__ehhandler$??$find_if@Viterator@?$vector@U_tagLMCItemInfo@@V?$allocator@U_tagLMCItemInfo@@@std@@@std@@VCLMCDataOper@@@std@@YA?AViterator@?$vector@U_tagLMCItemInfo@@V?$allocator@U_tagLMCItemInfo@@@std@@@0@V120@0VCLMCDataOper@@@Z:
  00008	b8 00 00 00 00	 mov	 eax, OFFSET FLAT:$T200063
  0000d	e9 00 00 00 00	 jmp	 ___CxxFrameHandler
text$x	ENDS
??$find_if@Viterator@?$vector@U_tagLMCItemInfo@@V?$allocator@U_tagLMCItemInfo@@@std@@@std@@VCLMCDataOper@@@std@@YA?AViterator@?$vector@U_tagLMCItemInfo@@V?$allocator@U_tagLMCItemInfo@@@std@@@0@V120@0VCLMCDataOper@@@Z ENDP ; std::find_if<std::vector<_tagLMCItemInfo,std::allocator<_tagLMCItemInfo> >::iterator,CLMCDataOper>
; Function compile flags: /Odt
; File d:\boxgit\playbox\playbox\dev\prj\playbox\src\module\playedgamepanel\lmcdatamgr.h
;	COMDAT ??RCLMCDataOper@@QAEHU_tagLMCItemInfo@@@Z
_TEXT	SEGMENT
_this$ = -8						; size = 4
$T200070 = -4						; size = 4
_LMItem$ = 8						; size = 68
??RCLMCDataOper@@QAEHU_tagLMCItemInfo@@@Z PROC NEAR	; CLMCDataOper::operator(), COMDAT
; _this$ = ecx

; 32   : 	{

  00000	55		 push	 ebp
  00001	8b ec		 mov	 ebp, esp
  00003	83 ec 08	 sub	 esp, 8
  00006	89 4d f8	 mov	 DWORD PTR _this$[ebp], ecx

; 33   : 		return m_delItem==LMItem.iIndex;

  00009	8b 45 f8	 mov	 eax, DWORD PTR _this$[ebp]
  0000c	8b 08		 mov	 ecx, DWORD PTR [eax]
  0000e	2b 4d 24	 sub	 ecx, DWORD PTR _LMItem$[ebp+28]
  00011	f7 d9		 neg	 ecx
  00013	1b c9		 sbb	 ecx, ecx
  00015	41		 inc	 ecx
  00016	89 4d fc	 mov	 DWORD PTR $T200070[ebp], ecx
  00019	8d 4d 08	 lea	 ecx, DWORD PTR _LMItem$[ebp]
  0001c	e8 00 00 00 00	 call	 ??1_tagLMCItemInfo@@QAE@XZ
  00021	8b 45 fc	 mov	 eax, DWORD PTR $T200070[ebp]

; 34   : 	}

  00024	8b e5		 mov	 esp, ebp
  00026	5d		 pop	 ebp
  00027	c2 44 00	 ret	 68			; 00000044H
??RCLMCDataOper@@QAEHU_tagLMCItemInfo@@@Z ENDP		; CLMCDataOper::operator()
_TEXT	ENDS
PUBLIC	??Eiterator@?$vector@U_tagLMCItemInfo@@V?$allocator@U_tagLMCItemInfo@@@std@@@std@@QAE?AV012@H@Z ; std::vector<_tagLMCItemInfo,std::allocator<_tagLMCItemInfo> >::iterator::operator++
;	COMDAT xdata$x
; File d:\program files (x86)\microsoft visual studio .net 2003\vc7\include\algorithm
xdata$x	SEGMENT
$T200081 DD	0ffffffffH
	DD	FLAT:$L200076
$T200079 DD	019930520H
	DD	01H
	DD	FLAT:$T200081
	DD	2 DUP(00H)
	DD	2 DUP(00H)
; Function compile flags: /Odt
xdata$x	ENDS
;	COMDAT ??$remove_copy_if@Viterator@?$vector@U_tagLMCItemInfo@@V?$allocator@U_tagLMCItemInfo@@@std@@@std@@V123@VCLMCDataOper@@@std@@YA?AViterator@?$vector@U_tagLMCItemInfo@@V?$allocator@U_tagLMCItemInfo@@@std@@@0@V120@00VCLMCDataOper@@@Z
_TEXT	SEGMENT
tv135 = -28						; size = 4
tv134 = -24						; size = 4
$T200075 = -20						; size = 4
$T200074 = -16						; size = 4
__$EHRec$ = -12						; size = 12
___$ReturnUdt$ = 8					; size = 4
__First$ = 12						; size = 4
__Last$ = 16						; size = 4
__Dest$ = 20						; size = 4
__Pred$ = 24						; size = 4
??$remove_copy_if@Viterator@?$vector@U_tagLMCItemInfo@@V?$allocator@U_tagLMCItemInfo@@@std@@@std@@V123@VCLMCDataOper@@@std@@YA?AViterator@?$vector@U_tagLMCItemInfo@@V?$allocator@U_tagLMCItemInfo@@@std@@@0@V120@00VCLMCDataOper@@@Z PROC NEAR ; std::remove_copy_if<std::vector<_tagLMCItemInfo,std::allocator<_tagLMCItemInfo> >::iterator,std::vector<_tagLMCItemInfo,std::allocator<_tagLMCItemInfo> >::iterator,CLMCDataOper>, COMDAT

; 489  : 	{	// copy omitting each element satisfying _Pred

  00000	55		 push	 ebp
  00001	8b ec		 mov	 ebp, esp
  00003	6a ff		 push	 -1
  00005	68 00 00 00 00	 push	 __ehhandler$??$remove_copy_if@Viterator@?$vector@U_tagLMCItemInfo@@V?$allocator@U_tagLMCItemInfo@@@std@@@std@@V123@VCLMCDataOper@@@std@@YA?AViterator@?$vector@U_tagLMCItemInfo@@V?$allocator@U_tagLMCItemInfo@@@std@@@0@V120@00VCLMCDataOper@@@Z
  0000a	64 a1 00 00 00
	00		 mov	 eax, DWORD PTR fs:__except_list
  00010	50		 push	 eax
  00011	64 89 25 00 00
	00 00		 mov	 DWORD PTR fs:__except_list, esp
  00018	83 ec 10	 sub	 esp, 16			; 00000010H
  0001b	c7 45 fc 00 00
	00 00		 mov	 DWORD PTR __$EHRec$[ebp+8], 0

; 490  : 	for (; _First != _Last; ++_First)

  00022	eb 08		 jmp	 SHORT $L199322
$L199323:
  00024	8d 4d 0c	 lea	 ecx, DWORD PTR __First$[ebp]
  00027	e8 00 00 00 00	 call	 ??Eiterator@?$vector@U_tagLMCItemInfo@@V?$allocator@U_tagLMCItemInfo@@@std@@@std@@QAEAAV012@XZ ; std::vector<_tagLMCItemInfo,std::allocator<_tagLMCItemInfo> >::iterator::operator++
$L199322:
  0002c	8d 45 10	 lea	 eax, DWORD PTR __Last$[ebp]
  0002f	50		 push	 eax
  00030	8d 4d 0c	 lea	 ecx, DWORD PTR __First$[ebp]
  00033	e8 00 00 00 00	 call	 ??9const_iterator@?$vector@U_tagLMCItemInfo@@V?$allocator@U_tagLMCItemInfo@@@std@@@std@@QBE_NABV012@@Z ; std::vector<_tagLMCItemInfo,std::allocator<_tagLMCItemInfo> >::const_iterator::operator!=
  00038	0f b6 c8	 movzx	 ecx, al
  0003b	85 c9		 test	 ecx, ecx
  0003d	74 51		 je	 SHORT $L199324

; 491  : 		if (!_Pred(*_First))

  0003f	8d 4d 0c	 lea	 ecx, DWORD PTR __First$[ebp]
  00042	e8 00 00 00 00	 call	 ??Diterator@?$vector@U_tagLMCItemInfo@@V?$allocator@U_tagLMCItemInfo@@@std@@@std@@QBEAAU_tagLMCItemInfo@@XZ ; std::vector<_tagLMCItemInfo,std::allocator<_tagLMCItemInfo> >::iterator::operator*
  00047	83 ec 44	 sub	 esp, 68			; 00000044H
  0004a	8b cc		 mov	 ecx, esp
  0004c	89 65 f0	 mov	 DWORD PTR $T200074[ebp], esp
  0004f	50		 push	 eax
  00050	e8 00 00 00 00	 call	 ??0_tagLMCItemInfo@@QAE@ABU0@@Z
  00055	89 45 e8	 mov	 DWORD PTR tv134[ebp], eax
  00058	8d 4d 18	 lea	 ecx, DWORD PTR __Pred$[ebp]
  0005b	e8 00 00 00 00	 call	 ??RCLMCDataOper@@QAEHU_tagLMCItemInfo@@@Z ; CLMCDataOper::operator()
  00060	89 45 e4	 mov	 DWORD PTR tv135[ebp], eax
  00063	83 7d e4 00	 cmp	 DWORD PTR tv135[ebp], 0
  00067	75 25		 jne	 SHORT $L199326

; 492  : 			*_Dest++ = *_First;

  00069	8d 4d 0c	 lea	 ecx, DWORD PTR __First$[ebp]
  0006c	e8 00 00 00 00	 call	 ??Diterator@?$vector@U_tagLMCItemInfo@@V?$allocator@U_tagLMCItemInfo@@@std@@@std@@QBEAAU_tagLMCItemInfo@@XZ ; std::vector<_tagLMCItemInfo,std::allocator<_tagLMCItemInfo> >::iterator::operator*
  00071	50		 push	 eax
  00072	6a 00		 push	 0
  00074	8d 55 ec	 lea	 edx, DWORD PTR $T200075[ebp]
  00077	52		 push	 edx
  00078	8d 4d 14	 lea	 ecx, DWORD PTR __Dest$[ebp]
  0007b	e8 00 00 00 00	 call	 ??Eiterator@?$vector@U_tagLMCItemInfo@@V?$allocator@U_tagLMCItemInfo@@@std@@@std@@QAE?AV012@H@Z ; std::vector<_tagLMCItemInfo,std::allocator<_tagLMCItemInfo> >::iterator::operator++
  00080	8b c8		 mov	 ecx, eax
  00082	e8 00 00 00 00	 call	 ??Diterator@?$vector@U_tagLMCItemInfo@@V?$allocator@U_tagLMCItemInfo@@@std@@@std@@QBEAAU_tagLMCItemInfo@@XZ ; std::vector<_tagLMCItemInfo,std::allocator<_tagLMCItemInfo> >::iterator::operator*
  00087	8b c8		 mov	 ecx, eax
  00089	e8 00 00 00 00	 call	 ??4_tagLMCItemInfo@@QAEAAU0@ABU0@@Z
$L199326:

; 493  : 	return (_Dest);

  0008e	eb 94		 jmp	 SHORT $L199323
$L199324:
  00090	8b 45 08	 mov	 eax, DWORD PTR ___$ReturnUdt$[ebp]
  00093	8b 4d 14	 mov	 ecx, DWORD PTR __Dest$[ebp]
  00096	89 08		 mov	 DWORD PTR [eax], ecx
  00098	c7 45 fc ff ff
	ff ff		 mov	 DWORD PTR __$EHRec$[ebp+8], -1
  0009f	8d 4d 18	 lea	 ecx, DWORD PTR __Pred$[ebp]
  000a2	e8 00 00 00 00	 call	 ??1CLMCDataOper@@QAE@XZ	; CLMCDataOper::~CLMCDataOper
  000a7	8b 45 08	 mov	 eax, DWORD PTR ___$ReturnUdt$[ebp]

; 494  : 	}

  000aa	8b 4d f4	 mov	 ecx, DWORD PTR __$EHRec$[ebp]
  000ad	64 89 0d 00 00
	00 00		 mov	 DWORD PTR fs:__except_list, ecx
  000b4	8b e5		 mov	 esp, ebp
  000b6	5d		 pop	 ebp
  000b7	c3		 ret	 0
_TEXT	ENDS
;	COMDAT text$x
text$x	SEGMENT
$L200076:
  00000	8d 4d 18	 lea	 ecx, DWORD PTR __Pred$[ebp]
  00003	e9 00 00 00 00	 jmp	 ??1CLMCDataOper@@QAE@XZ	; CLMCDataOper::~CLMCDataOper
__ehhandler$??$remove_copy_if@Viterator@?$vector@U_tagLMCItemInfo@@V?$allocator@U_tagLMCItemInfo@@@std@@@std@@V123@VCLMCDataOper@@@std@@YA?AViterator@?$vector@U_tagLMCItemInfo@@V?$allocator@U_tagLMCItemInfo@@@std@@@0@V120@00VCLMCDataOper@@@Z:
  00008	b8 00 00 00 00	 mov	 eax, OFFSET FLAT:$T200079
  0000d	e9 00 00 00 00	 jmp	 ___CxxFrameHandler
text$x	ENDS
??$remove_copy_if@Viterator@?$vector@U_tagLMCItemInfo@@V?$allocator@U_tagLMCItemInfo@@@std@@@std@@V123@VCLMCDataOper@@@std@@YA?AViterator@?$vector@U_tagLMCItemInfo@@V?$allocator@U_tagLMCItemInfo@@@std@@@0@V120@00VCLMCDataOper@@@Z ENDP ; std::remove_copy_if<std::vector<_tagLMCItemInfo,std::allocator<_tagLMCItemInfo> >::iterator,std::vector<_tagLMCItemInfo,std::allocator<_tagLMCItemInfo> >::iterator,CLMCDataOper>
; Function compile flags: /Odt
; File d:\program files (x86)\microsoft visual studio .net 2003\vc7\include\xutility
;	COMDAT ??$_Ptr_cat@PAU_tagLMCItemInfo@@PAU1@@std@@YA?AU_Nonscalar_ptr_iterator_tag@0@AAPAU_tagLMCItemInfo@@0@Z
_TEXT	SEGMENT
__Cat$ = -1						; size = 1
___formal$ = 8						; size = 4
___formal$ = 12						; size = 4
??$_Ptr_cat@PAU_tagLMCItemInfo@@PAU1@@std@@YA?AU_Nonscalar_ptr_iterator_tag@0@AAPAU_tagLMCItemInfo@@0@Z PROC NEAR ; std::_Ptr_cat<_tagLMCItemInfo *,_tagLMCItemInfo *>, COMDAT

; 211  : 	{	// return pointer category from arbitrary arguments

  00000	55		 push	 ebp
  00001	8b ec		 mov	 ebp, esp
  00003	51		 push	 ecx

; 212  : 	_Nonscalar_ptr_iterator_tag _Cat;
; 213  : 	return (_Cat);

  00004	8a 45 ff	 mov	 al, BYTE PTR __Cat$[ebp]

; 214  : 	}

  00007	8b e5		 mov	 esp, ebp
  00009	5d		 pop	 ebp
  0000a	c3		 ret	 0
??$_Ptr_cat@PAU_tagLMCItemInfo@@PAU1@@std@@YA?AU_Nonscalar_ptr_iterator_tag@0@AAPAU_tagLMCItemInfo@@0@Z ENDP ; std::_Ptr_cat<_tagLMCItemInfo *,_tagLMCItemInfo *>
; Function compile flags: /Odt
_TEXT	ENDS
;	COMDAT ??$_Copy_opt@PAU_tagLMCItemInfo@@PAU1@@std@@YAPAU_tagLMCItemInfo@@PAU1@00U_Nonscalar_ptr_iterator_tag@0@@Z
_TEXT	SEGMENT
__First$ = 8						; size = 4
__Last$ = 12						; size = 4
__Dest$ = 16						; size = 4
___formal$ = 20						; size = 1
??$_Copy_opt@PAU_tagLMCItemInfo@@PAU1@@std@@YAPAU_tagLMCItemInfo@@PAU1@00U_Nonscalar_ptr_iterator_tag@0@@Z PROC NEAR ; std::_Copy_opt<_tagLMCItemInfo *,_tagLMCItemInfo *>, COMDAT

; 1020 : 	{	// copy [_First, _Last) to [_Dest, ...), arbitrary iterators

  00000	55		 push	 ebp
  00001	8b ec		 mov	 ebp, esp

; 1021 : 	for (; _First != _Last; ++_Dest, ++_First)

  00003	eb 12		 jmp	 SHORT $L199331
$L199332:
  00005	8b 45 10	 mov	 eax, DWORD PTR __Dest$[ebp]
  00008	83 c0 44	 add	 eax, 68			; 00000044H
  0000b	89 45 10	 mov	 DWORD PTR __Dest$[ebp], eax
  0000e	8b 4d 08	 mov	 ecx, DWORD PTR __First$[ebp]
  00011	83 c1 44	 add	 ecx, 68			; 00000044H
  00014	89 4d 08	 mov	 DWORD PTR __First$[ebp], ecx
$L199331:
  00017	8b 55 08	 mov	 edx, DWORD PTR __First$[ebp]
  0001a	3b 55 0c	 cmp	 edx, DWORD PTR __Last$[ebp]
  0001d	74 0e		 je	 SHORT $L199333

; 1022 : 		*_Dest = *_First;

  0001f	8b 45 08	 mov	 eax, DWORD PTR __First$[ebp]
  00022	50		 push	 eax
  00023	8b 4d 10	 mov	 ecx, DWORD PTR __Dest$[ebp]
  00026	e8 00 00 00 00	 call	 ??4_tagLMCItemInfo@@QAEAAU0@ABU0@@Z
  0002b	eb d8		 jmp	 SHORT $L199332
$L199333:

; 1023 : 	return (_Dest);

  0002d	8b 45 10	 mov	 eax, DWORD PTR __Dest$[ebp]

; 1024 : 	}

  00030	5d		 pop	 ebp
  00031	c3		 ret	 0
??$_Copy_opt@PAU_tagLMCItemInfo@@PAU1@@std@@YAPAU_tagLMCItemInfo@@PAU1@00U_Nonscalar_ptr_iterator_tag@0@@Z ENDP ; std::_Copy_opt<_tagLMCItemInfo *,_tagLMCItemInfo *>
_TEXT	ENDS
PUBLIC	?destroy@?$allocator@U_tagLMCItemInfo@@@std@@QAEXPAU_tagLMCItemInfo@@@Z ; std::allocator<_tagLMCItemInfo>::destroy
; Function compile flags: /Odt
; File d:\program files (x86)\microsoft visual studio .net 2003\vc7\include\xmemory
;	COMDAT ??$_Destroy_range@U_tagLMCItemInfo@@V?$allocator@U_tagLMCItemInfo@@@std@@@std@@YAXPAU_tagLMCItemInfo@@0AAV?$allocator@U_tagLMCItemInfo@@@0@U_Nonscalar_ptr_iterator_tag@0@@Z
_TEXT	SEGMENT
__First$ = 8						; size = 4
__Last$ = 12						; size = 4
__Al$ = 16						; size = 4
___formal$ = 20						; size = 1
??$_Destroy_range@U_tagLMCItemInfo@@V?$allocator@U_tagLMCItemInfo@@@std@@@std@@YAXPAU_tagLMCItemInfo@@0AAV?$allocator@U_tagLMCItemInfo@@@0@U_Nonscalar_ptr_iterator_tag@0@@Z PROC NEAR ; std::_Destroy_range<_tagLMCItemInfo,std::allocator<_tagLMCItemInfo> >, COMDAT

; 224  : 	{	// destroy [_First, _Last), arbitrary type

  00000	55		 push	 ebp
  00001	8b ec		 mov	 ebp, esp

; 225  : 	for (; _First != _Last; ++_First)

  00003	eb 09		 jmp	 SHORT $L199335
$L199336:
  00005	8b 45 08	 mov	 eax, DWORD PTR __First$[ebp]
  00008	83 c0 44	 add	 eax, 68			; 00000044H
  0000b	89 45 08	 mov	 DWORD PTR __First$[ebp], eax
$L199335:
  0000e	8b 4d 08	 mov	 ecx, DWORD PTR __First$[ebp]
  00011	3b 4d 0c	 cmp	 ecx, DWORD PTR __Last$[ebp]
  00014	74 0e		 je	 SHORT $L199334

; 226  : 		_Al.destroy(_First);

  00016	8b 55 08	 mov	 edx, DWORD PTR __First$[ebp]
  00019	52		 push	 edx
  0001a	8b 4d 10	 mov	 ecx, DWORD PTR __Al$[ebp]
  0001d	e8 00 00 00 00	 call	 ?destroy@?$allocator@U_tagLMCItemInfo@@@std@@QAEXPAU_tagLMCItemInfo@@@Z ; std::allocator<_tagLMCItemInfo>::destroy
  00022	eb e1		 jmp	 SHORT $L199336
$L199334:

; 227  : 	}

  00024	5d		 pop	 ebp
  00025	c3		 ret	 0
??$_Destroy_range@U_tagLMCItemInfo@@V?$allocator@U_tagLMCItemInfo@@@std@@@std@@YAXPAU_tagLMCItemInfo@@0AAV?$allocator@U_tagLMCItemInfo@@@0@U_Nonscalar_ptr_iterator_tag@0@@Z ENDP ; std::_Destroy_range<_tagLMCItemInfo,std::allocator<_tagLMCItemInfo> >
_TEXT	ENDS
PUBLIC	?construct@?$allocator@U_tagLMCItemInfo@@@std@@QAEXPAU_tagLMCItemInfo@@ABU3@@Z ; std::allocator<_tagLMCItemInfo>::construct
;	COMDAT xdata$x
; File d:\program files (x86)\microsoft visual studio .net 2003\vc7\include\memory
xdata$x	SEGMENT
$T200097 DD	0ffffffffH
	DD	00H
	DD	0ffffffffH
	DD	00H
$T200099 DD	00H
	DD	00H
	DD	00H
	DD	FLAT:$L200093
$T200098 DD	00H
	DD	00H
	DD	01H
	DD	01H
	DD	FLAT:$T200099
$T200095 DD	019930520H
	DD	02H
	DD	FLAT:$T200097
	DD	01H
	DD	FLAT:$T200098
	DD	2 DUP(00H)
; Function compile flags: /Odt
xdata$x	ENDS
;	COMDAT ??$_Uninit_fill_n@PAU_tagLMCItemInfo@@IU1@V?$allocator@U_tagLMCItemInfo@@@std@@@std@@YAXPAU_tagLMCItemInfo@@IABU1@AAV?$allocator@U_tagLMCItemInfo@@@0@U_Nonscalar_ptr_iterator_tag@0@@Z
_TEXT	SEGMENT
__Next$ = -20						; size = 4
__$EHRec$ = -16						; size = 16
__First$ = 8						; size = 4
__Count$ = 12						; size = 4
__Val$ = 16						; size = 4
__Al$ = 20						; size = 4
___formal$ = 24						; size = 1
??$_Uninit_fill_n@PAU_tagLMCItemInfo@@IU1@V?$allocator@U_tagLMCItemInfo@@@std@@@std@@YAXPAU_tagLMCItemInfo@@IABU1@AAV?$allocator@U_tagLMCItemInfo@@@0@U_Nonscalar_ptr_iterator_tag@0@@Z PROC NEAR ; std::_Uninit_fill_n<_tagLMCItemInfo *,unsigned int,_tagLMCItemInfo,std::allocator<_tagLMCItemInfo> >, COMDAT

; 207  : 	{	// copy _Count *_Val to raw _First, using _Al, arbitrary type

  00000	55		 push	 ebp
  00001	8b ec		 mov	 ebp, esp
  00003	6a ff		 push	 -1
  00005	68 00 00 00 00	 push	 __ehhandler$??$_Uninit_fill_n@PAU_tagLMCItemInfo@@IU1@V?$allocator@U_tagLMCItemInfo@@@std@@@std@@YAXPAU_tagLMCItemInfo@@IABU1@AAV?$allocator@U_tagLMCItemInfo@@@0@U_Nonscalar_ptr_iterator_tag@0@@Z
  0000a	64 a1 00 00 00
	00		 mov	 eax, DWORD PTR fs:__except_list
  00010	50		 push	 eax
  00011	64 89 25 00 00
	00 00		 mov	 DWORD PTR fs:__except_list, esp
  00018	51		 push	 ecx
  00019	51		 push	 ecx
  0001a	53		 push	 ebx
  0001b	56		 push	 esi
  0001c	57		 push	 edi
  0001d	89 65 f0	 mov	 DWORD PTR __$EHRec$[ebp], esp

; 208  : 	_FwdIt _Next = _First;

  00020	8b 45 08	 mov	 eax, DWORD PTR __First$[ebp]
  00023	89 45 ec	 mov	 DWORD PTR __Next$[ebp], eax

; 209  : 
; 210  : 	_TRY_BEGIN

  00026	c7 45 fc 00 00
	00 00		 mov	 DWORD PTR __$EHRec$[ebp+12], 0

; 211  : 	for (; 0 < _Count; --_Count, ++_First)

  0002d	eb 12		 jmp	 SHORT $L199341
$L199342:
  0002f	8b 4d 0c	 mov	 ecx, DWORD PTR __Count$[ebp]
  00032	83 e9 01	 sub	 ecx, 1
  00035	89 4d 0c	 mov	 DWORD PTR __Count$[ebp], ecx
  00038	8b 55 08	 mov	 edx, DWORD PTR __First$[ebp]
  0003b	83 c2 44	 add	 edx, 68			; 00000044H
  0003e	89 55 08	 mov	 DWORD PTR __First$[ebp], edx
$L199341:
  00041	83 7d 0c 00	 cmp	 DWORD PTR __Count$[ebp], 0
  00045	76 12		 jbe	 SHORT $L199343

; 212  : 		_Al.construct(_First, _Val);

  00047	8b 45 10	 mov	 eax, DWORD PTR __Val$[ebp]
  0004a	50		 push	 eax
  0004b	8b 4d 08	 mov	 ecx, DWORD PTR __First$[ebp]
  0004e	51		 push	 ecx
  0004f	8b 4d 14	 mov	 ecx, DWORD PTR __Al$[ebp]
  00052	e8 00 00 00 00	 call	 ?construct@?$allocator@U_tagLMCItemInfo@@@std@@QAEXPAU_tagLMCItemInfo@@ABU3@@Z ; std::allocator<_tagLMCItemInfo>::construct
  00057	eb d6		 jmp	 SHORT $L199342
$L199343:
  00059	eb 2a		 jmp	 SHORT $L200092
$L200093:

; 213  : 	_CATCH_ALL
; 214  : 	for (; _Next != _First; ++_Next)

  0005b	eb 09		 jmp	 SHORT $L199344
$L199345:
  0005d	8b 55 ec	 mov	 edx, DWORD PTR __Next$[ebp]
  00060	83 c2 44	 add	 edx, 68			; 00000044H
  00063	89 55 ec	 mov	 DWORD PTR __Next$[ebp], edx
$L199344:
  00066	8b 45 ec	 mov	 eax, DWORD PTR __Next$[ebp]
  00069	3b 45 08	 cmp	 eax, DWORD PTR __First$[ebp]
  0006c	74 0e		 je	 SHORT $L199346

; 215  : 		_Al.destroy(_Next);

  0006e	8b 4d ec	 mov	 ecx, DWORD PTR __Next$[ebp]
  00071	51		 push	 ecx
  00072	8b 4d 14	 mov	 ecx, DWORD PTR __Al$[ebp]
  00075	e8 00 00 00 00	 call	 ?destroy@?$allocator@U_tagLMCItemInfo@@@std@@QAEXPAU_tagLMCItemInfo@@@Z ; std::allocator<_tagLMCItemInfo>::destroy
  0007a	eb e1		 jmp	 SHORT $L199345
$L199346:

; 216  : 	_RERAISE;

  0007c	6a 00		 push	 0
  0007e	6a 00		 push	 0
  00080	e8 00 00 00 00	 call	 __CxxThrowException@8
$L200092:

; 217  : 	_CATCH_END

  00085	c7 45 fc ff ff
	ff ff		 mov	 DWORD PTR __$EHRec$[ebp+12], -1
$L200091:

; 218  : 	}

  0008c	8b 4d f4	 mov	 ecx, DWORD PTR __$EHRec$[ebp+4]
  0008f	64 89 0d 00 00
	00 00		 mov	 DWORD PTR fs:__except_list, ecx
  00096	5f		 pop	 edi
  00097	5e		 pop	 esi
  00098	5b		 pop	 ebx
  00099	8b e5		 mov	 esp, ebp
  0009b	5d		 pop	 ebp
  0009c	c3		 ret	 0
_TEXT	ENDS
;	COMDAT text$x
text$x	SEGMENT
__ehhandler$??$_Uninit_fill_n@PAU_tagLMCItemInfo@@IU1@V?$allocator@U_tagLMCItemInfo@@@std@@@std@@YAXPAU_tagLMCItemInfo@@IABU1@AAV?$allocator@U_tagLMCItemInfo@@@0@U_Nonscalar_ptr_iterator_tag@0@@Z:
  00000	b8 00 00 00 00	 mov	 eax, OFFSET FLAT:$T200095
  00005	e9 00 00 00 00	 jmp	 ___CxxFrameHandler
text$x	ENDS
??$_Uninit_fill_n@PAU_tagLMCItemInfo@@IU1@V?$allocator@U_tagLMCItemInfo@@@std@@@std@@YAXPAU_tagLMCItemInfo@@IABU1@AAV?$allocator@U_tagLMCItemInfo@@@0@U_Nonscalar_ptr_iterator_tag@0@@Z ENDP ; std::_Uninit_fill_n<_tagLMCItemInfo *,unsigned int,_tagLMCItemInfo,std::allocator<_tagLMCItemInfo> >
PUBLIC	??$_Uninit_copy@PAU_tagLMCItemInfo@@PAU1@V?$allocator@U_tagLMCItemInfo@@@std@@@std@@YAPAU_tagLMCItemInfo@@PAU1@00AAV?$allocator@U_tagLMCItemInfo@@@0@U_Nonscalar_ptr_iterator_tag@0@@Z ; std::_Uninit_copy<_tagLMCItemInfo *,_tagLMCItemInfo *,std::allocator<_tagLMCItemInfo> >
; Function compile flags: /Odt
;	COMDAT ??$_Uninitialized_copy@PAU_tagLMCItemInfo@@PAU1@V?$allocator@U_tagLMCItemInfo@@@std@@@std@@YAPAU_tagLMCItemInfo@@PAU1@00AAV?$allocator@U_tagLMCItemInfo@@@0@@Z
_TEXT	SEGMENT
$T200104 = -1						; size = 1
__First$ = 8						; size = 4
__Last$ = 12						; size = 4
__Dest$ = 16						; size = 4
__Al$ = 20						; size = 4
??$_Uninitialized_copy@PAU_tagLMCItemInfo@@PAU1@V?$allocator@U_tagLMCItemInfo@@@std@@@std@@YAPAU_tagLMCItemInfo@@PAU1@00AAV?$allocator@U_tagLMCItemInfo@@@0@@Z PROC NEAR ; std::_Uninitialized_copy<_tagLMCItemInfo *,_tagLMCItemInfo *,std::allocator<_tagLMCItemInfo> >, COMDAT

; 126  : 	{	// copy [_First, _Last) to raw _Dest, using _Al

  00000	55		 push	 ebp
  00001	8b ec		 mov	 ebp, esp
  00003	51		 push	 ecx

; 127  : 	return (_Uninit_copy(_First, _Last, _Dest, _Al,
; 128  : 		_Ptr_cat(_First, _Dest)));

  00004	8d 45 10	 lea	 eax, DWORD PTR __Dest$[ebp]
  00007	50		 push	 eax
  00008	8d 4d 08	 lea	 ecx, DWORD PTR __First$[ebp]
  0000b	51		 push	 ecx
  0000c	e8 00 00 00 00	 call	 ??$_Ptr_cat@PAU_tagLMCItemInfo@@PAU1@@std@@YA?AU_Nonscalar_ptr_iterator_tag@0@AAPAU_tagLMCItemInfo@@0@Z ; std::_Ptr_cat<_tagLMCItemInfo *,_tagLMCItemInfo *>
  00011	83 c4 08	 add	 esp, 8
  00014	88 45 ff	 mov	 BYTE PTR $T200104[ebp], al
  00017	8a 55 ff	 mov	 dl, BYTE PTR $T200104[ebp]
  0001a	52		 push	 edx
  0001b	8b 45 14	 mov	 eax, DWORD PTR __Al$[ebp]
  0001e	50		 push	 eax
  0001f	8b 4d 10	 mov	 ecx, DWORD PTR __Dest$[ebp]
  00022	51		 push	 ecx
  00023	8b 55 0c	 mov	 edx, DWORD PTR __Last$[ebp]
  00026	52		 push	 edx
  00027	8b 45 08	 mov	 eax, DWORD PTR __First$[ebp]
  0002a	50		 push	 eax
  0002b	e8 00 00 00 00	 call	 ??$_Uninit_copy@PAU_tagLMCItemInfo@@PAU1@V?$allocator@U_tagLMCItemInfo@@@std@@@std@@YAPAU_tagLMCItemInfo@@PAU1@00AAV?$allocator@U_tagLMCItemInfo@@@0@U_Nonscalar_ptr_iterator_tag@0@@Z ; std::_Uninit_copy<_tagLMCItemInfo *,_tagLMCItemInfo *,std::allocator<_tagLMCItemInfo> >
  00030	83 c4 14	 add	 esp, 20			; 00000014H

; 129  : 	}

  00033	8b e5		 mov	 esp, ebp
  00035	5d		 pop	 ebp
  00036	c3		 ret	 0
??$_Uninitialized_copy@PAU_tagLMCItemInfo@@PAU1@V?$allocator@U_tagLMCItemInfo@@@std@@@std@@YAPAU_tagLMCItemInfo@@PAU1@00AAV?$allocator@U_tagLMCItemInfo@@@0@@Z ENDP ; std::_Uninitialized_copy<_tagLMCItemInfo *,_tagLMCItemInfo *,std::allocator<_tagLMCItemInfo> >
; Function compile flags: /Odt
; File d:\program files (x86)\microsoft visual studio .net 2003\vc7\include\xutility
_TEXT	ENDS
;	COMDAT ??$_Copy_backward_opt@PAU_tagLMCItemInfo@@PAU1@@std@@YAPAU_tagLMCItemInfo@@PAU1@00U_Nonscalar_ptr_iterator_tag@0@@Z
_TEXT	SEGMENT
__First$ = 8						; size = 4
__Last$ = 12						; size = 4
__Dest$ = 16						; size = 4
___formal$ = 20						; size = 1
??$_Copy_backward_opt@PAU_tagLMCItemInfo@@PAU1@@std@@YAPAU_tagLMCItemInfo@@PAU1@00U_Nonscalar_ptr_iterator_tag@0@@Z PROC NEAR ; std::_Copy_backward_opt<_tagLMCItemInfo *,_tagLMCItemInfo *>, COMDAT

; 1048 : 	{	// copy [_First, _Last) backwards to [..., _Dest), arbitrary iterators

  00000	55		 push	 ebp
  00001	8b ec		 mov	 ebp, esp
$L199389:

; 1049 : 	while (_First != _Last)

  00003	8b 45 08	 mov	 eax, DWORD PTR __First$[ebp]
  00006	3b 45 0c	 cmp	 eax, DWORD PTR __Last$[ebp]
  00009	74 20		 je	 SHORT $L199390

; 1050 : 		*--_Dest = *--_Last;

  0000b	8b 4d 0c	 mov	 ecx, DWORD PTR __Last$[ebp]
  0000e	83 e9 44	 sub	 ecx, 68			; 00000044H
  00011	89 4d 0c	 mov	 DWORD PTR __Last$[ebp], ecx
  00014	8b 55 10	 mov	 edx, DWORD PTR __Dest$[ebp]
  00017	83 ea 44	 sub	 edx, 68			; 00000044H
  0001a	89 55 10	 mov	 DWORD PTR __Dest$[ebp], edx
  0001d	8b 45 0c	 mov	 eax, DWORD PTR __Last$[ebp]
  00020	50		 push	 eax
  00021	8b 4d 10	 mov	 ecx, DWORD PTR __Dest$[ebp]
  00024	e8 00 00 00 00	 call	 ??4_tagLMCItemInfo@@QAEAAU0@ABU0@@Z
  00029	eb d8		 jmp	 SHORT $L199389
$L199390:

; 1051 : 	return (_Dest);

  0002b	8b 45 10	 mov	 eax, DWORD PTR __Dest$[ebp]

; 1052 : 	}

  0002e	5d		 pop	 ebp
  0002f	c3		 ret	 0
??$_Copy_backward_opt@PAU_tagLMCItemInfo@@PAU1@@std@@YAPAU_tagLMCItemInfo@@PAU1@00U_Nonscalar_ptr_iterator_tag@0@@Z ENDP ; std::_Copy_backward_opt<_tagLMCItemInfo *,_tagLMCItemInfo *>
_TEXT	ENDS
PUBLIC	??$_Construct@U_tagLMCItemInfo@@U1@@std@@YAXPAU_tagLMCItemInfo@@ABU1@@Z ; std::_Construct<_tagLMCItemInfo,_tagLMCItemInfo>
; Function compile flags: /Odt
; File d:\program files (x86)\microsoft visual studio .net 2003\vc7\include\xmemory
;	COMDAT ?construct@?$allocator@U_tagLMCItemInfo@@@std@@QAEXPAU_tagLMCItemInfo@@ABU3@@Z
_TEXT	SEGMENT
_this$ = -4						; size = 4
__Ptr$ = 8						; size = 4
__Val$ = 12						; size = 4
?construct@?$allocator@U_tagLMCItemInfo@@@std@@QAEXPAU_tagLMCItemInfo@@ABU3@@Z PROC NEAR ; std::allocator<_tagLMCItemInfo>::construct, COMDAT
; _this$ = ecx

; 146  : 		{	// construct object at _Ptr with value _Val

  00000	55		 push	 ebp
  00001	8b ec		 mov	 ebp, esp
  00003	51		 push	 ecx
  00004	89 4d fc	 mov	 DWORD PTR _this$[ebp], ecx

; 147  : 		_Construct(_Ptr, _Val);

  00007	8b 45 0c	 mov	 eax, DWORD PTR __Val$[ebp]
  0000a	50		 push	 eax
  0000b	8b 4d 08	 mov	 ecx, DWORD PTR __Ptr$[ebp]
  0000e	51		 push	 ecx
  0000f	e8 00 00 00 00	 call	 ??$_Construct@U_tagLMCItemInfo@@U1@@std@@YAXPAU_tagLMCItemInfo@@ABU1@@Z ; std::_Construct<_tagLMCItemInfo,_tagLMCItemInfo>
  00014	83 c4 08	 add	 esp, 8

; 148  : 		}

  00017	8b e5		 mov	 esp, ebp
  00019	5d		 pop	 ebp
  0001a	c2 08 00	 ret	 8
?construct@?$allocator@U_tagLMCItemInfo@@@std@@QAEXPAU_tagLMCItemInfo@@ABU3@@Z ENDP ; std::allocator<_tagLMCItemInfo>::construct
_TEXT	ENDS
PUBLIC	??$_Destroy@U_tagLMCItemInfo@@@std@@YAXPAU_tagLMCItemInfo@@@Z ; std::_Destroy<_tagLMCItemInfo>
; Function compile flags: /Odt
;	COMDAT ?destroy@?$allocator@U_tagLMCItemInfo@@@std@@QAEXPAU_tagLMCItemInfo@@@Z
_TEXT	SEGMENT
_this$ = -4						; size = 4
__Ptr$ = 8						; size = 4
?destroy@?$allocator@U_tagLMCItemInfo@@@std@@QAEXPAU_tagLMCItemInfo@@@Z PROC NEAR ; std::allocator<_tagLMCItemInfo>::destroy, COMDAT
; _this$ = ecx

; 151  : 		{	// destroy object at _Ptr

  00000	55		 push	 ebp
  00001	8b ec		 mov	 ebp, esp
  00003	51		 push	 ecx
  00004	89 4d fc	 mov	 DWORD PTR _this$[ebp], ecx

; 152  : 		_Destroy(_Ptr);

  00007	8b 45 08	 mov	 eax, DWORD PTR __Ptr$[ebp]
  0000a	50		 push	 eax
  0000b	e8 00 00 00 00	 call	 ??$_Destroy@U_tagLMCItemInfo@@@std@@YAXPAU_tagLMCItemInfo@@@Z ; std::_Destroy<_tagLMCItemInfo>
  00010	83 c4 04	 add	 esp, 4

; 153  : 		}

  00013	8b e5		 mov	 esp, ebp
  00015	5d		 pop	 ebp
  00016	c2 04 00	 ret	 4
?destroy@?$allocator@U_tagLMCItemInfo@@@std@@QAEXPAU_tagLMCItemInfo@@@Z ENDP ; std::allocator<_tagLMCItemInfo>::destroy
; Function compile flags: /Odt
; File d:\program files (x86)\microsoft visual studio .net 2003\vc7\include\vector
_TEXT	ENDS
;	COMDAT ??Eiterator@?$vector@U_tagLMCItemInfo@@V?$allocator@U_tagLMCItemInfo@@@std@@@std@@QAE?AV012@H@Z
_TEXT	SEGMENT
_this$ = -8						; size = 4
__Tmp$ = -4						; size = 4
___$ReturnUdt$ = 8					; size = 4
___formal$ = 12						; size = 4
??Eiterator@?$vector@U_tagLMCItemInfo@@V?$allocator@U_tagLMCItemInfo@@@std@@@std@@QAE?AV012@H@Z PROC NEAR ; std::vector<_tagLMCItemInfo,std::allocator<_tagLMCItemInfo> >::iterator::operator++, COMDAT
; _this$ = ecx

; 235  : 			{	// postincrement

  00000	55		 push	 ebp
  00001	8b ec		 mov	 ebp, esp
  00003	83 ec 08	 sub	 esp, 8
  00006	89 4d f8	 mov	 DWORD PTR _this$[ebp], ecx

; 236  : 			iterator _Tmp = *this;

  00009	8b 45 f8	 mov	 eax, DWORD PTR _this$[ebp]
  0000c	8b 08		 mov	 ecx, DWORD PTR [eax]
  0000e	89 4d fc	 mov	 DWORD PTR __Tmp$[ebp], ecx

; 237  : 			++*this;

  00011	8b 4d f8	 mov	 ecx, DWORD PTR _this$[ebp]
  00014	e8 00 00 00 00	 call	 ??Eiterator@?$vector@U_tagLMCItemInfo@@V?$allocator@U_tagLMCItemInfo@@@std@@@std@@QAEAAV012@XZ ; std::vector<_tagLMCItemInfo,std::allocator<_tagLMCItemInfo> >::iterator::operator++

; 238  : 			return (_Tmp);

  00019	8b 55 08	 mov	 edx, DWORD PTR ___$ReturnUdt$[ebp]
  0001c	8b 45 fc	 mov	 eax, DWORD PTR __Tmp$[ebp]
  0001f	89 02		 mov	 DWORD PTR [edx], eax
  00021	8b 45 08	 mov	 eax, DWORD PTR ___$ReturnUdt$[ebp]

; 239  : 			}

  00024	8b e5		 mov	 esp, ebp
  00026	5d		 pop	 ebp
  00027	c2 08 00	 ret	 8
??Eiterator@?$vector@U_tagLMCItemInfo@@V?$allocator@U_tagLMCItemInfo@@@std@@@std@@QAE?AV012@H@Z ENDP ; std::vector<_tagLMCItemInfo,std::allocator<_tagLMCItemInfo> >::iterator::operator++
_TEXT	ENDS
;	COMDAT xdata$x
; File d:\program files (x86)\microsoft visual studio .net 2003\vc7\include\memory
xdata$x	SEGMENT
$T200120 DD	0ffffffffH
	DD	00H
	DD	0ffffffffH
	DD	00H
$T200122 DD	00H
	DD	00H
	DD	00H
	DD	FLAT:$L200116
$T200121 DD	00H
	DD	00H
	DD	01H
	DD	01H
	DD	FLAT:$T200122
$T200118 DD	019930520H
	DD	02H
	DD	FLAT:$T200120
	DD	01H
	DD	FLAT:$T200121
	DD	2 DUP(00H)
; Function compile flags: /Odt
xdata$x	ENDS
;	COMDAT ??$_Uninit_copy@PAU_tagLMCItemInfo@@PAU1@V?$allocator@U_tagLMCItemInfo@@@std@@@std@@YAPAU_tagLMCItemInfo@@PAU1@00AAV?$allocator@U_tagLMCItemInfo@@@0@U_Nonscalar_ptr_iterator_tag@0@@Z
_TEXT	SEGMENT
__Next$ = -20						; size = 4
__$EHRec$ = -16						; size = 16
__First$ = 8						; size = 4
__Last$ = 12						; size = 4
__Dest$ = 16						; size = 4
__Al$ = 20						; size = 4
___formal$ = 24						; size = 1
??$_Uninit_copy@PAU_tagLMCItemInfo@@PAU1@V?$allocator@U_tagLMCItemInfo@@@std@@@std@@YAPAU_tagLMCItemInfo@@PAU1@00AAV?$allocator@U_tagLMCItemInfo@@@0@U_Nonscalar_ptr_iterator_tag@0@@Z PROC NEAR ; std::_Uninit_copy<_tagLMCItemInfo *,_tagLMCItemInfo *,std::allocator<_tagLMCItemInfo> >, COMDAT

; 77   : 	{	// copy [_First, _Last) to raw _Dest, using _Al, arbitrary type

  00000	55		 push	 ebp
  00001	8b ec		 mov	 ebp, esp
  00003	6a ff		 push	 -1
  00005	68 00 00 00 00	 push	 __ehhandler$??$_Uninit_copy@PAU_tagLMCItemInfo@@PAU1@V?$allocator@U_tagLMCItemInfo@@@std@@@std@@YAPAU_tagLMCItemInfo@@PAU1@00AAV?$allocator@U_tagLMCItemInfo@@@0@U_Nonscalar_ptr_iterator_tag@0@@Z
  0000a	64 a1 00 00 00
	00		 mov	 eax, DWORD PTR fs:__except_list
  00010	50		 push	 eax
  00011	64 89 25 00 00
	00 00		 mov	 DWORD PTR fs:__except_list, esp
  00018	51		 push	 ecx
  00019	51		 push	 ecx
  0001a	53		 push	 ebx
  0001b	56		 push	 esi
  0001c	57		 push	 edi
  0001d	89 65 f0	 mov	 DWORD PTR __$EHRec$[ebp], esp

; 78   : 	_FwdIt _Next = _Dest;

  00020	8b 45 10	 mov	 eax, DWORD PTR __Dest$[ebp]
  00023	89 45 ec	 mov	 DWORD PTR __Next$[ebp], eax

; 79   : 
; 80   : 	_TRY_BEGIN

  00026	c7 45 fc 00 00
	00 00		 mov	 DWORD PTR __$EHRec$[ebp+12], 0

; 81   : 	for (; _First != _Last; ++_Dest, ++_First)

  0002d	eb 12		 jmp	 SHORT $L199412
$L199413:
  0002f	8b 4d 10	 mov	 ecx, DWORD PTR __Dest$[ebp]
  00032	83 c1 44	 add	 ecx, 68			; 00000044H
  00035	89 4d 10	 mov	 DWORD PTR __Dest$[ebp], ecx
  00038	8b 55 08	 mov	 edx, DWORD PTR __First$[ebp]
  0003b	83 c2 44	 add	 edx, 68			; 00000044H
  0003e	89 55 08	 mov	 DWORD PTR __First$[ebp], edx
$L199412:
  00041	8b 45 08	 mov	 eax, DWORD PTR __First$[ebp]
  00044	3b 45 0c	 cmp	 eax, DWORD PTR __Last$[ebp]
  00047	74 12		 je	 SHORT $L199414

; 82   : 		_Al.construct(_Dest, *_First);

  00049	8b 4d 08	 mov	 ecx, DWORD PTR __First$[ebp]
  0004c	51		 push	 ecx
  0004d	8b 55 10	 mov	 edx, DWORD PTR __Dest$[ebp]
  00050	52		 push	 edx
  00051	8b 4d 14	 mov	 ecx, DWORD PTR __Al$[ebp]
  00054	e8 00 00 00 00	 call	 ?construct@?$allocator@U_tagLMCItemInfo@@@std@@QAEXPAU_tagLMCItemInfo@@ABU3@@Z ; std::allocator<_tagLMCItemInfo>::construct
  00059	eb d4		 jmp	 SHORT $L199413
$L199414:
  0005b	eb 2a		 jmp	 SHORT $L200115
$L200116:

; 83   : 	_CATCH_ALL
; 84   : 	for (; _Next != _Dest; ++_Next)

  0005d	eb 09		 jmp	 SHORT $L199415
$L199416:
  0005f	8b 45 ec	 mov	 eax, DWORD PTR __Next$[ebp]
  00062	83 c0 44	 add	 eax, 68			; 00000044H
  00065	89 45 ec	 mov	 DWORD PTR __Next$[ebp], eax
$L199415:
  00068	8b 4d ec	 mov	 ecx, DWORD PTR __Next$[ebp]
  0006b	3b 4d 10	 cmp	 ecx, DWORD PTR __Dest$[ebp]
  0006e	74 0e		 je	 SHORT $L199417

; 85   : 		_Al.destroy(_Next);

  00070	8b 55 ec	 mov	 edx, DWORD PTR __Next$[ebp]
  00073	52		 push	 edx
  00074	8b 4d 14	 mov	 ecx, DWORD PTR __Al$[ebp]
  00077	e8 00 00 00 00	 call	 ?destroy@?$allocator@U_tagLMCItemInfo@@@std@@QAEXPAU_tagLMCItemInfo@@@Z ; std::allocator<_tagLMCItemInfo>::destroy
  0007c	eb e1		 jmp	 SHORT $L199416
$L199417:

; 86   : 	_RERAISE;

  0007e	6a 00		 push	 0
  00080	6a 00		 push	 0
  00082	e8 00 00 00 00	 call	 __CxxThrowException@8
$L200115:

; 87   : 	_CATCH_END

  00087	c7 45 fc ff ff
	ff ff		 mov	 DWORD PTR __$EHRec$[ebp+12], -1

; 88   : 	return (_Dest);

  0008e	8b 45 10	 mov	 eax, DWORD PTR __Dest$[ebp]
$L200114:

; 89   : 	}

  00091	8b 4d f4	 mov	 ecx, DWORD PTR __$EHRec$[ebp+4]
  00094	64 89 0d 00 00
	00 00		 mov	 DWORD PTR fs:__except_list, ecx
  0009b	5f		 pop	 edi
  0009c	5e		 pop	 esi
  0009d	5b		 pop	 ebx
  0009e	8b e5		 mov	 esp, ebp
  000a0	5d		 pop	 ebp
  000a1	c3		 ret	 0
_TEXT	ENDS
;	COMDAT text$x
text$x	SEGMENT
__ehhandler$??$_Uninit_copy@PAU_tagLMCItemInfo@@PAU1@V?$allocator@U_tagLMCItemInfo@@@std@@@std@@YAPAU_tagLMCItemInfo@@PAU1@00AAV?$allocator@U_tagLMCItemInfo@@@0@U_Nonscalar_ptr_iterator_tag@0@@Z:
  00000	b8 00 00 00 00	 mov	 eax, OFFSET FLAT:$T200118
  00005	e9 00 00 00 00	 jmp	 ___CxxFrameHandler
text$x	ENDS
??$_Uninit_copy@PAU_tagLMCItemInfo@@PAU1@V?$allocator@U_tagLMCItemInfo@@@std@@@std@@YAPAU_tagLMCItemInfo@@PAU1@00AAV?$allocator@U_tagLMCItemInfo@@@0@U_Nonscalar_ptr_iterator_tag@0@@Z ENDP ; std::_Uninit_copy<_tagLMCItemInfo *,_tagLMCItemInfo *,std::allocator<_tagLMCItemInfo> >
PUBLIC	??2@YAPAXIPAX@Z					; operator new
PUBLIC	??3@YAXPAX0@Z					; operator delete
;	COMDAT xdata$x
; File d:\program files (x86)\microsoft visual studio .net 2003\vc7\include\xmemory
xdata$x	SEGMENT
$T200135 DD	0ffffffffH
	DD	FLAT:$L200131
$T200133 DD	019930520H
	DD	01H
	DD	FLAT:$T200135
	DD	2 DUP(00H)
	DD	2 DUP(00H)
; Function compile flags: /Odt
xdata$x	ENDS
;	COMDAT ??$_Construct@U_tagLMCItemInfo@@U1@@std@@YAXPAU_tagLMCItemInfo@@ABU1@@Z
_TEXT	SEGMENT
tv74 = -24						; size = 4
$T200128 = -20						; size = 4
$T200127 = -16						; size = 4
__$EHRec$ = -12						; size = 12
__Ptr$ = 8						; size = 4
__Val$ = 12						; size = 4
??$_Construct@U_tagLMCItemInfo@@U1@@std@@YAXPAU_tagLMCItemInfo@@ABU1@@Z PROC NEAR ; std::_Construct<_tagLMCItemInfo,_tagLMCItemInfo>, COMDAT

; 41   : 	{	// construct object at _Ptr with value _Val

  00000	55		 push	 ebp
  00001	8b ec		 mov	 ebp, esp
  00003	6a ff		 push	 -1
  00005	68 00 00 00 00	 push	 __ehhandler$??$_Construct@U_tagLMCItemInfo@@U1@@std@@YAXPAU_tagLMCItemInfo@@ABU1@@Z
  0000a	64 a1 00 00 00
	00		 mov	 eax, DWORD PTR fs:__except_list
  00010	50		 push	 eax
  00011	64 89 25 00 00
	00 00		 mov	 DWORD PTR fs:__except_list, esp
  00018	83 ec 0c	 sub	 esp, 12			; 0000000cH

; 42   : 	new ((void _FARQ *)_Ptr) _T1(_Val);

  0001b	8b 45 08	 mov	 eax, DWORD PTR __Ptr$[ebp]
  0001e	50		 push	 eax
  0001f	6a 44		 push	 68			; 00000044H
  00021	e8 00 00 00 00	 call	 ??2@YAPAXIPAX@Z		; operator new
  00026	83 c4 08	 add	 esp, 8
  00029	89 45 ec	 mov	 DWORD PTR $T200128[ebp], eax
  0002c	c7 45 fc 00 00
	00 00		 mov	 DWORD PTR __$EHRec$[ebp+8], 0
  00033	83 7d ec 00	 cmp	 DWORD PTR $T200128[ebp], 0
  00037	74 11		 je	 SHORT $L200129
  00039	8b 4d 0c	 mov	 ecx, DWORD PTR __Val$[ebp]
  0003c	51		 push	 ecx
  0003d	8b 4d ec	 mov	 ecx, DWORD PTR $T200128[ebp]
  00040	e8 00 00 00 00	 call	 ??0_tagLMCItemInfo@@QAE@ABU0@@Z
  00045	89 45 e8	 mov	 DWORD PTR tv74[ebp], eax
  00048	eb 07		 jmp	 SHORT $L200130
$L200129:
  0004a	c7 45 e8 00 00
	00 00		 mov	 DWORD PTR tv74[ebp], 0
$L200130:
  00051	8b 55 e8	 mov	 edx, DWORD PTR tv74[ebp]
  00054	89 55 f0	 mov	 DWORD PTR $T200127[ebp], edx
  00057	c7 45 fc ff ff
	ff ff		 mov	 DWORD PTR __$EHRec$[ebp+8], -1

; 43   : 	}

  0005e	8b 4d f4	 mov	 ecx, DWORD PTR __$EHRec$[ebp]
  00061	64 89 0d 00 00
	00 00		 mov	 DWORD PTR fs:__except_list, ecx
  00068	8b e5		 mov	 esp, ebp
  0006a	5d		 pop	 ebp
  0006b	c3		 ret	 0
_TEXT	ENDS
;	COMDAT text$x
text$x	SEGMENT
$L200131:
  00000	8b 45 08	 mov	 eax, DWORD PTR __Ptr$[ebp]
  00003	50		 push	 eax
  00004	8b 4d ec	 mov	 ecx, DWORD PTR $T200128[ebp]
  00007	51		 push	 ecx
  00008	e8 00 00 00 00	 call	 ??3@YAXPAX0@Z		; operator delete
  0000d	83 c4 08	 add	 esp, 8
  00010	c3		 ret	 0
__ehhandler$??$_Construct@U_tagLMCItemInfo@@U1@@std@@YAXPAU_tagLMCItemInfo@@ABU1@@Z:
  00011	b8 00 00 00 00	 mov	 eax, OFFSET FLAT:$T200133
  00016	e9 00 00 00 00	 jmp	 ___CxxFrameHandler
text$x	ENDS
??$_Construct@U_tagLMCItemInfo@@U1@@std@@YAXPAU_tagLMCItemInfo@@ABU1@@Z ENDP ; std::_Construct<_tagLMCItemInfo,_tagLMCItemInfo>
; Function compile flags: /Odt
; File d:\program files (x86)\microsoft visual studio .net 2003\vc7\include\new.h
;	COMDAT ??2@YAPAXIPAX@Z
_TEXT	SEGMENT
___formal$ = 8						; size = 4
__P$ = 12						; size = 4
??2@YAPAXIPAX@Z PROC NEAR				; operator new, COMDAT

; 109  :         {return (_P); }

  00000	55		 push	 ebp
  00001	8b ec		 mov	 ebp, esp
  00003	8b 45 0c	 mov	 eax, DWORD PTR __P$[ebp]
  00006	5d		 pop	 ebp
  00007	c3		 ret	 0
??2@YAPAXIPAX@Z ENDP					; operator new
; Function compile flags: /Odt
_TEXT	ENDS
;	COMDAT ??3@YAXPAX0@Z
_TEXT	SEGMENT
___formal$ = 8						; size = 4
___formal$ = 12						; size = 4
??3@YAXPAX0@Z PROC NEAR					; operator delete, COMDAT

; 112  :         {return; }

  00000	55		 push	 ebp
  00001	8b ec		 mov	 ebp, esp
  00003	5d		 pop	 ebp
  00004	c3		 ret	 0
??3@YAXPAX0@Z ENDP					; operator delete
_TEXT	ENDS
PUBLIC	??_G_tagLMCItemInfo@@QAEPAXI@Z			; _tagLMCItemInfo::`scalar deleting destructor'
; Function compile flags: /Odt
; File d:\program files (x86)\microsoft visual studio .net 2003\vc7\include\xmemory
;	COMDAT ??$_Destroy@U_tagLMCItemInfo@@@std@@YAXPAU_tagLMCItemInfo@@@Z
_TEXT	SEGMENT
__Ptr$ = 8						; size = 4
??$_Destroy@U_tagLMCItemInfo@@@std@@YAXPAU_tagLMCItemInfo@@@Z PROC NEAR ; std::_Destroy<_tagLMCItemInfo>, COMDAT

; 48   : 	{	// destroy object at _Ptr

  00000	55		 push	 ebp
  00001	8b ec		 mov	 ebp, esp

; 49   : 	_DESTRUCTOR(_Ty, _Ptr);

  00003	6a 00		 push	 0
  00005	8b 4d 08	 mov	 ecx, DWORD PTR __Ptr$[ebp]
  00008	e8 00 00 00 00	 call	 ??_G_tagLMCItemInfo@@QAEPAXI@Z

; 50   : 	}

  0000d	5d		 pop	 ebp
  0000e	c3		 ret	 0
??$_Destroy@U_tagLMCItemInfo@@@std@@YAXPAU_tagLMCItemInfo@@@Z ENDP ; std::_Destroy<_tagLMCItemInfo>
; Function compile flags: /Odt
_TEXT	ENDS
;	COMDAT ??_G_tagLMCItemInfo@@QAEPAXI@Z
_TEXT	SEGMENT
_this$ = -4						; size = 4
___flags$ = 8						; size = 4
??_G_tagLMCItemInfo@@QAEPAXI@Z PROC NEAR		; _tagLMCItemInfo::`scalar deleting destructor', COMDAT
; _this$ = ecx
  00000	55		 push	 ebp
  00001	8b ec		 mov	 ebp, esp
  00003	51		 push	 ecx
  00004	89 4d fc	 mov	 DWORD PTR _this$[ebp], ecx
  00007	8b 4d fc	 mov	 ecx, DWORD PTR _this$[ebp]
  0000a	e8 00 00 00 00	 call	 ??1_tagLMCItemInfo@@QAE@XZ
  0000f	8b 45 08	 mov	 eax, DWORD PTR ___flags$[ebp]
  00012	83 e0 01	 and	 eax, 1
  00015	74 0c		 je	 SHORT $L199429
  00017	8b 4d fc	 mov	 ecx, DWORD PTR _this$[ebp]
  0001a	51		 push	 ecx
  0001b	e8 00 00 00 00	 call	 ??3@YAXPAX@Z		; operator delete
  00020	83 c4 04	 add	 esp, 4
$L199429:
  00023	8b 45 fc	 mov	 eax, DWORD PTR _this$[ebp]
  00026	8b e5		 mov	 esp, ebp
  00028	5d		 pop	 ebp
  00029	c2 04 00	 ret	 4
??_G_tagLMCItemInfo@@QAEPAXI@Z ENDP			; _tagLMCItemInfo::`scalar deleting destructor'
; Function compile flags: /Odt
; File d:\program files (x86)\microsoft visual studio .net 2003\vc7\atlmfc\include\atltypes.inl
_TEXT	ENDS
;	COMDAT ??0CRect@@QAE@XZ
_TEXT	SEGMENT
_this$ = -4						; size = 4
??0CRect@@QAE@XZ PROC NEAR				; CRect::CRect, COMDAT
; _this$ = ecx

; 110  : 	{ /* random filled */ }

  00000	55		 push	 ebp
  00001	8b ec		 mov	 ebp, esp
  00003	51		 push	 ecx
  00004	89 4d fc	 mov	 DWORD PTR _this$[ebp], ecx
  00007	8b 45 fc	 mov	 eax, DWORD PTR _this$[ebp]
  0000a	8b e5		 mov	 esp, ebp
  0000c	5d		 pop	 ebp
  0000d	c3		 ret	 0
??0CRect@@QAE@XZ ENDP					; CRect::CRect
_TEXT	ENDS
EXTRN	__imp_?c_str@?$basic_string@DU?$char_traits@D@std@@V?$allocator@D@2@@std@@QBEPBDXZ:NEAR
; Function compile flags: /Odt
; File d:\program files (x86)\microsoft visual studio .net 2003\vc7\include\stdexcept
;	COMDAT ?what@logic_error@std@@UBEPBDXZ
_TEXT	SEGMENT
_this$ = -4						; size = 4
?what@logic_error@std@@UBEPBDXZ PROC NEAR		; std::logic_error::what, COMDAT
; _this$ = ecx

; 26   : 		{	// return pointer to message string

  00000	55		 push	 ebp
  00001	8b ec		 mov	 ebp, esp
  00003	51		 push	 ecx
  00004	89 4d fc	 mov	 DWORD PTR _this$[ebp], ecx

; 27   : 		return (_Str.c_str());

  00007	8b 4d fc	 mov	 ecx, DWORD PTR _this$[ebp]
  0000a	83 c1 0c	 add	 ecx, 12			; 0000000cH
  0000d	ff 15 00 00 00
	00		 call	 DWORD PTR __imp_?c_str@?$basic_string@DU?$char_traits@D@std@@V?$allocator@D@2@@std@@QBEPBDXZ

; 28   : 		}

  00013	8b e5		 mov	 esp, ebp
  00015	5d		 pop	 ebp
  00016	c3		 ret	 0
?what@logic_error@std@@UBEPBDXZ ENDP			; std::logic_error::what
_TEXT	ENDS
PUBLIC	??0logic_error@std@@QAE@ABV?$basic_string@DU?$char_traits@D@std@@V?$allocator@D@2@@1@@Z ; std::logic_error::logic_error
; Function compile flags: /Odt
;	COMDAT ??0length_error@std@@QAE@ABV?$basic_string@DU?$char_traits@D@std@@V?$allocator@D@2@@1@@Z
_TEXT	SEGMENT
_this$ = -4						; size = 4
__Message$ = 8						; size = 4
??0length_error@std@@QAE@ABV?$basic_string@DU?$char_traits@D@std@@V?$allocator@D@2@@1@@Z PROC NEAR ; std::length_error::length_error, COMDAT
; _this$ = ecx

; 95   : 		{	// construct from message string

  00000	55		 push	 ebp
  00001	8b ec		 mov	 ebp, esp
  00003	51		 push	 ecx
  00004	89 4d fc	 mov	 DWORD PTR _this$[ebp], ecx
  00007	8b 45 08	 mov	 eax, DWORD PTR __Message$[ebp]
  0000a	50		 push	 eax
  0000b	8b 4d fc	 mov	 ecx, DWORD PTR _this$[ebp]
  0000e	e8 00 00 00 00	 call	 ??0logic_error@std@@QAE@ABV?$basic_string@DU?$char_traits@D@std@@V?$allocator@D@2@@1@@Z ; std::logic_error::logic_error
  00013	8b 4d fc	 mov	 ecx, DWORD PTR _this$[ebp]
  00016	c7 01 00 00 00
	00		 mov	 DWORD PTR [ecx], OFFSET FLAT:??_7length_error@std@@6B@

; 96   : 		}

  0001c	8b 45 fc	 mov	 eax, DWORD PTR _this$[ebp]
  0001f	8b e5		 mov	 esp, ebp
  00021	5d		 pop	 ebp
  00022	c2 04 00	 ret	 4
??0length_error@std@@QAE@ABV?$basic_string@DU?$char_traits@D@std@@V?$allocator@D@2@@1@@Z ENDP ; std::length_error::length_error
_TEXT	ENDS
PUBLIC	??_R4logic_error@std@@6B@			; std::logic_error::`RTTI Complete Object Locator'
PUBLIC	??_R3logic_error@std@@8				; std::logic_error::`RTTI Class Hierarchy Descriptor'
PUBLIC	??_R2logic_error@std@@8				; std::logic_error::`RTTI Base Class Array'
PUBLIC	??_7logic_error@std@@6B@			; std::logic_error::`vftable'
PUBLIC	??_Glogic_error@std@@UAEPAXI@Z			; std::logic_error::`scalar deleting destructor'
EXTRN	__imp_??0exception@@QAE@XZ:NEAR
EXTRN	__imp_??1exception@@UAE@XZ:NEAR
EXTRN	??_Elogic_error@std@@UAEPAXI@Z:NEAR		; std::logic_error::`vector deleting destructor'
;	COMDAT xdata$x
xdata$x	SEGMENT
$T200160 DD	0ffffffffH
	DD	FLAT:$L200155
$T200158 DD	019930520H
	DD	01H
	DD	FLAT:$T200160
	DD	2 DUP(00H)
	DD	2 DUP(00H)
xdata$x	ENDS
;	COMDAT ??_7logic_error@std@@6B@
CONST	SEGMENT
??_7logic_error@std@@6B@ DD FLAT:??_R4logic_error@std@@6B@ ; std::logic_error::`vftable'
	DD	FLAT:??_Elogic_error@std@@UAEPAXI@Z
	DD	FLAT:?what@logic_error@std@@UBEPBDXZ
CONST	ENDS
;	COMDAT ??_R4logic_error@std@@6B@
rdata$r	SEGMENT
??_R4logic_error@std@@6B@ DD 00H			; std::logic_error::`RTTI Complete Object Locator'
	DD	00H
	DD	00H
	DD	FLAT:??_R0?AVlogic_error@std@@@8
	DD	FLAT:??_R3logic_error@std@@8
rdata$r	ENDS
;	COMDAT ??_R3logic_error@std@@8
rdata$r	SEGMENT
??_R3logic_error@std@@8 DD 00H				; std::logic_error::`RTTI Class Hierarchy Descriptor'
	DD	00H
	DD	02H
	DD	FLAT:??_R2logic_error@std@@8
rdata$r	ENDS
;	COMDAT ??_R2logic_error@std@@8
rdata$r	SEGMENT
??_R2logic_error@std@@8 DD FLAT:??_R1A@?0A@A@logic_error@std@@8 ; std::logic_error::`RTTI Base Class Array'
	DD	FLAT:??_R1A@?0A@A@exception@@8
; Function compile flags: /Odt
rdata$r	ENDS
;	COMDAT ??0logic_error@std@@QAE@ABV?$basic_string@DU?$char_traits@D@std@@V?$allocator@D@2@@1@@Z
_TEXT	SEGMENT
_this$ = -16						; size = 4
__$EHRec$ = -12						; size = 12
__Message$ = 8						; size = 4
??0logic_error@std@@QAE@ABV?$basic_string@DU?$char_traits@D@std@@V?$allocator@D@2@@1@@Z PROC NEAR ; std::logic_error::logic_error, COMDAT
; _this$ = ecx

; 19   : 		{	// construct from message string

  00000	55		 push	 ebp
  00001	8b ec		 mov	 ebp, esp
  00003	6a ff		 push	 -1
  00005	68 00 00 00 00	 push	 __ehhandler$??0logic_error@std@@QAE@ABV?$basic_string@DU?$char_traits@D@std@@V?$allocator@D@2@@1@@Z
  0000a	64 a1 00 00 00
	00		 mov	 eax, DWORD PTR fs:__except_list
  00010	50		 push	 eax
  00011	64 89 25 00 00
	00 00		 mov	 DWORD PTR fs:__except_list, esp
  00018	51		 push	 ecx
  00019	89 4d f0	 mov	 DWORD PTR _this$[ebp], ecx
  0001c	8b 4d f0	 mov	 ecx, DWORD PTR _this$[ebp]
  0001f	ff 15 00 00 00
	00		 call	 DWORD PTR __imp_??0exception@@QAE@XZ
  00025	c7 45 fc 00 00
	00 00		 mov	 DWORD PTR __$EHRec$[ebp+8], 0
  0002c	8b 45 f0	 mov	 eax, DWORD PTR _this$[ebp]
  0002f	c7 00 00 00 00
	00		 mov	 DWORD PTR [eax], OFFSET FLAT:??_7logic_error@std@@6B@
  00035	8b 4d 08	 mov	 ecx, DWORD PTR __Message$[ebp]
  00038	51		 push	 ecx
  00039	8b 4d f0	 mov	 ecx, DWORD PTR _this$[ebp]
  0003c	83 c1 0c	 add	 ecx, 12			; 0000000cH
  0003f	ff 15 00 00 00
	00		 call	 DWORD PTR __imp_??0?$basic_string@DU?$char_traits@D@std@@V?$allocator@D@2@@std@@QAE@ABV01@@Z

; 20   : 		}

  00045	c7 45 fc ff ff
	ff ff		 mov	 DWORD PTR __$EHRec$[ebp+8], -1
  0004c	8b 45 f0	 mov	 eax, DWORD PTR _this$[ebp]
  0004f	8b 4d f4	 mov	 ecx, DWORD PTR __$EHRec$[ebp]
  00052	64 89 0d 00 00
	00 00		 mov	 DWORD PTR fs:__except_list, ecx
  00059	8b e5		 mov	 esp, ebp
  0005b	5d		 pop	 ebp
  0005c	c2 04 00	 ret	 4
_TEXT	ENDS
;	COMDAT text$x
text$x	SEGMENT
$L200155:
  00000	8b 4d f0	 mov	 ecx, DWORD PTR _this$[ebp]
  00003	ff 25 00 00 00
	00		 jmp	 DWORD PTR __imp_??1exception@@UAE@XZ
__ehhandler$??0logic_error@std@@QAE@ABV?$basic_string@DU?$char_traits@D@std@@V?$allocator@D@2@@1@@Z:
  00009	b8 00 00 00 00	 mov	 eax, OFFSET FLAT:$T200158
  0000e	e9 00 00 00 00	 jmp	 ___CxxFrameHandler
text$x	ENDS
??0logic_error@std@@QAE@ABV?$basic_string@DU?$char_traits@D@std@@V?$allocator@D@2@@1@@Z ENDP ; std::logic_error::logic_error
PUBLIC	??1logic_error@std@@UAE@XZ			; std::logic_error::~logic_error
; Function compile flags: /Odt
;	COMDAT ??_Glogic_error@std@@UAEPAXI@Z
_TEXT	SEGMENT
_this$ = -4						; size = 4
___flags$ = 8						; size = 4
??_Glogic_error@std@@UAEPAXI@Z PROC NEAR		; std::logic_error::`scalar deleting destructor', COMDAT
; _this$ = ecx
  00000	55		 push	 ebp
  00001	8b ec		 mov	 ebp, esp
  00003	51		 push	 ecx
  00004	89 4d fc	 mov	 DWORD PTR _this$[ebp], ecx
  00007	8b 4d fc	 mov	 ecx, DWORD PTR _this$[ebp]
  0000a	e8 00 00 00 00	 call	 ??1logic_error@std@@UAE@XZ ; std::logic_error::~logic_error
  0000f	8b 45 08	 mov	 eax, DWORD PTR ___flags$[ebp]
  00012	83 e0 01	 and	 eax, 1
  00015	74 0c		 je	 SHORT $L102266
  00017	8b 4d fc	 mov	 ecx, DWORD PTR _this$[ebp]
  0001a	51		 push	 ecx
  0001b	e8 00 00 00 00	 call	 ??3@YAXPAX@Z		; operator delete
  00020	83 c4 04	 add	 esp, 4
$L102266:
  00023	8b 45 fc	 mov	 eax, DWORD PTR _this$[ebp]
  00026	8b e5		 mov	 esp, ebp
  00028	5d		 pop	 ebp
  00029	c2 04 00	 ret	 4
??_Glogic_error@std@@UAEPAXI@Z ENDP			; std::logic_error::`scalar deleting destructor'
_TEXT	ENDS
;	COMDAT xdata$x
xdata$x	SEGMENT
$T200172 DD	0ffffffffH
	DD	FLAT:$L200167
$T200170 DD	019930520H
	DD	01H
	DD	FLAT:$T200172
	DD	2 DUP(00H)
	DD	2 DUP(00H)
; Function compile flags: /Odt
xdata$x	ENDS
;	COMDAT ??1logic_error@std@@UAE@XZ
_TEXT	SEGMENT
_this$ = -16						; size = 4
__$EHRec$ = -12						; size = 12
??1logic_error@std@@UAE@XZ PROC NEAR			; std::logic_error::~logic_error, COMDAT
; _this$ = ecx

; 23   : 		{}	// destroy the object

  00000	55		 push	 ebp
  00001	8b ec		 mov	 ebp, esp
  00003	6a ff		 push	 -1
  00005	68 00 00 00 00	 push	 __ehhandler$??1logic_error@std@@UAE@XZ
  0000a	64 a1 00 00 00
	00		 mov	 eax, DWORD PTR fs:__except_list
  00010	50		 push	 eax
  00011	64 89 25 00 00
	00 00		 mov	 DWORD PTR fs:__except_list, esp
  00018	51		 push	 ecx
  00019	89 4d f0	 mov	 DWORD PTR _this$[ebp], ecx
  0001c	8b 45 f0	 mov	 eax, DWORD PTR _this$[ebp]
  0001f	c7 00 00 00 00
	00		 mov	 DWORD PTR [eax], OFFSET FLAT:??_7logic_error@std@@6B@
  00025	c7 45 fc 00 00
	00 00		 mov	 DWORD PTR __$EHRec$[ebp+8], 0
  0002c	8b 4d f0	 mov	 ecx, DWORD PTR _this$[ebp]
  0002f	83 c1 0c	 add	 ecx, 12			; 0000000cH
  00032	ff 15 00 00 00
	00		 call	 DWORD PTR __imp_??1?$basic_string@DU?$char_traits@D@std@@V?$allocator@D@2@@std@@QAE@XZ
  00038	c7 45 fc ff ff
	ff ff		 mov	 DWORD PTR __$EHRec$[ebp+8], -1
  0003f	8b 4d f0	 mov	 ecx, DWORD PTR _this$[ebp]
  00042	ff 15 00 00 00
	00		 call	 DWORD PTR __imp_??1exception@@UAE@XZ
  00048	8b 4d f4	 mov	 ecx, DWORD PTR __$EHRec$[ebp]
  0004b	64 89 0d 00 00
	00 00		 mov	 DWORD PTR fs:__except_list, ecx
  00052	8b e5		 mov	 esp, ebp
  00054	5d		 pop	 ebp
  00055	c3		 ret	 0
_TEXT	ENDS
;	COMDAT text$x
text$x	SEGMENT
$L200167:
  00000	8b 4d f0	 mov	 ecx, DWORD PTR _this$[ebp]
  00003	ff 25 00 00 00
	00		 jmp	 DWORD PTR __imp_??1exception@@UAE@XZ
__ehhandler$??1logic_error@std@@UAE@XZ:
  00009	b8 00 00 00 00	 mov	 eax, OFFSET FLAT:$T200170
  0000e	e9 00 00 00 00	 jmp	 ___CxxFrameHandler
text$x	ENDS
??1logic_error@std@@UAE@XZ ENDP				; std::logic_error::~logic_error
; Function compile flags: /Odt
;	COMDAT ??1length_error@std@@UAE@XZ
_TEXT	SEGMENT
_this$ = -4						; size = 4
??1length_error@std@@UAE@XZ PROC NEAR			; std::length_error::~length_error, COMDAT
; _this$ = ecx

; 99   : 		{}	// destroy the object

  00000	55		 push	 ebp
  00001	8b ec		 mov	 ebp, esp
  00003	51		 push	 ecx
  00004	89 4d fc	 mov	 DWORD PTR _this$[ebp], ecx
  00007	8b 45 fc	 mov	 eax, DWORD PTR _this$[ebp]
  0000a	c7 00 00 00 00
	00		 mov	 DWORD PTR [eax], OFFSET FLAT:??_7length_error@std@@6B@
  00010	8b 4d fc	 mov	 ecx, DWORD PTR _this$[ebp]
  00013	e8 00 00 00 00	 call	 ??1logic_error@std@@UAE@XZ ; std::logic_error::~logic_error
  00018	8b e5		 mov	 esp, ebp
  0001a	5d		 pop	 ebp
  0001b	c3		 ret	 0
??1length_error@std@@UAE@XZ ENDP			; std::length_error::~length_error
; Function compile flags: /Odt
_TEXT	ENDS
;	COMDAT ??_Glength_error@std@@UAEPAXI@Z
_TEXT	SEGMENT
_this$ = -4						; size = 4
___flags$ = 8						; size = 4
??_Glength_error@std@@UAEPAXI@Z PROC NEAR		; std::length_error::`scalar deleting destructor', COMDAT
; _this$ = ecx
  00000	55		 push	 ebp
  00001	8b ec		 mov	 ebp, esp
  00003	51		 push	 ecx
  00004	89 4d fc	 mov	 DWORD PTR _this$[ebp], ecx
  00007	8b 4d fc	 mov	 ecx, DWORD PTR _this$[ebp]
  0000a	e8 00 00 00 00	 call	 ??1length_error@std@@UAE@XZ ; std::length_error::~length_error
  0000f	8b 45 08	 mov	 eax, DWORD PTR ___flags$[ebp]
  00012	83 e0 01	 and	 eax, 1
  00015	74 0c		 je	 SHORT $L102332
  00017	8b 4d fc	 mov	 ecx, DWORD PTR _this$[ebp]
  0001a	51		 push	 ecx
  0001b	e8 00 00 00 00	 call	 ??3@YAXPAX@Z		; operator delete
  00020	83 c4 04	 add	 esp, 4
$L102332:
  00023	8b 45 fc	 mov	 eax, DWORD PTR _this$[ebp]
  00026	8b e5		 mov	 esp, ebp
  00028	5d		 pop	 ebp
  00029	c2 04 00	 ret	 4
??_Glength_error@std@@UAEPAXI@Z ENDP			; std::length_error::`scalar deleting destructor'
_TEXT	ENDS
EXTRN	__imp_??0exception@@QAE@ABV0@@Z:NEAR
;	COMDAT xdata$x
xdata$x	SEGMENT
$T200187 DD	0ffffffffH
	DD	FLAT:$L200182
$T200185 DD	019930520H
	DD	01H
	DD	FLAT:$T200187
	DD	2 DUP(00H)
	DD	2 DUP(00H)
; Function compile flags: /Odt
xdata$x	ENDS
;	COMDAT ??0logic_error@std@@QAE@ABV01@@Z
_TEXT	SEGMENT
_this$ = -16						; size = 4
__$EHRec$ = -12						; size = 12
___that$ = 8						; size = 4
??0logic_error@std@@QAE@ABV01@@Z PROC NEAR		; std::logic_error::logic_error, COMDAT
; _this$ = ecx
  00000	55		 push	 ebp
  00001	8b ec		 mov	 ebp, esp
  00003	6a ff		 push	 -1
  00005	68 00 00 00 00	 push	 __ehhandler$??0logic_error@std@@QAE@ABV01@@Z
  0000a	64 a1 00 00 00
	00		 mov	 eax, DWORD PTR fs:__except_list
  00010	50		 push	 eax
  00011	64 89 25 00 00
	00 00		 mov	 DWORD PTR fs:__except_list, esp
  00018	51		 push	 ecx
  00019	89 4d f0	 mov	 DWORD PTR _this$[ebp], ecx
  0001c	8b 45 08	 mov	 eax, DWORD PTR ___that$[ebp]
  0001f	50		 push	 eax
  00020	8b 4d f0	 mov	 ecx, DWORD PTR _this$[ebp]
  00023	ff 15 00 00 00
	00		 call	 DWORD PTR __imp_??0exception@@QAE@ABV0@@Z
  00029	c7 45 fc 00 00
	00 00		 mov	 DWORD PTR __$EHRec$[ebp+8], 0
  00030	8b 4d f0	 mov	 ecx, DWORD PTR _this$[ebp]
  00033	c7 01 00 00 00
	00		 mov	 DWORD PTR [ecx], OFFSET FLAT:??_7logic_error@std@@6B@
  00039	8b 55 08	 mov	 edx, DWORD PTR ___that$[ebp]
  0003c	83 c2 0c	 add	 edx, 12			; 0000000cH
  0003f	52		 push	 edx
  00040	8b 4d f0	 mov	 ecx, DWORD PTR _this$[ebp]
  00043	83 c1 0c	 add	 ecx, 12			; 0000000cH
  00046	ff 15 00 00 00
	00		 call	 DWORD PTR __imp_??0?$basic_string@DU?$char_traits@D@std@@V?$allocator@D@2@@std@@QAE@ABV01@@Z
  0004c	c7 45 fc ff ff
	ff ff		 mov	 DWORD PTR __$EHRec$[ebp+8], -1
  00053	8b 45 f0	 mov	 eax, DWORD PTR _this$[ebp]
  00056	8b 4d f4	 mov	 ecx, DWORD PTR __$EHRec$[ebp]
  00059	64 89 0d 00 00
	00 00		 mov	 DWORD PTR fs:__except_list, ecx
  00060	8b e5		 mov	 esp, ebp
  00062	5d		 pop	 ebp
  00063	c2 04 00	 ret	 4
_TEXT	ENDS
;	COMDAT text$x
text$x	SEGMENT
$L200182:
  00000	8b 4d f0	 mov	 ecx, DWORD PTR _this$[ebp]
  00003	ff 25 00 00 00
	00		 jmp	 DWORD PTR __imp_??1exception@@UAE@XZ
__ehhandler$??0logic_error@std@@QAE@ABV01@@Z:
  00009	b8 00 00 00 00	 mov	 eax, OFFSET FLAT:$T200185
  0000e	e9 00 00 00 00	 jmp	 ___CxxFrameHandler
text$x	ENDS
??0logic_error@std@@QAE@ABV01@@Z ENDP			; std::logic_error::logic_error
END
