; Listing generated by Microsoft (R) Optimizing Compiler Version 13.10.3077 

	TITLE	.\src\module\PlayedGamePanel\LocalMusicCoverList.cpp
	.386P
include listing.inc
if @Version gt 510
.model FLAT
else
_TEXT	SEGMENT PARA USE32 PUBLIC 'CODE'
_TEXT	ENDS
_DATA	SEGMENT DWORD USE32 PUBLIC 'DATA'
_DATA	ENDS
CONST	SEGMENT DWORD USE32 PUBLIC 'CONST'
CONST	ENDS
_BSS	SEGMENT DWORD USE32 PUBLIC 'BSS'
_BSS	ENDS
$$SYMBOLS	SEGMENT BYTE USE32 'DEBSYM'
$$SYMBOLS	ENDS
$$TYPES	SEGMENT BYTE USE32 'DEBTYP'
$$TYPES	ENDS
_TLS	SEGMENT DWORD USE32 PUBLIC 'TLS'
_TLS	ENDS
;	COMDAT ??_C@_0BC@KBDMBKEH@deque?$DMT?$DO?5too?5long?$AA@
CONST	SEGMENT DWORD USE32 PUBLIC 'CONST'
CONST	ENDS
;	COMDAT ??_C@_0BD@OLBABOEK@vector?$DMT?$DO?5too?5long?$AA@
CONST	SEGMENT DWORD USE32 PUBLIC 'CONST'
CONST	ENDS
rdata$r	SEGMENT DWORD USE32 PUBLIC 'CONST'
rdata$r	ENDS
xdata$x	SEGMENT DWORD USE32 PUBLIC 'CONST'
xdata$x	ENDS
text$AFX_COL1	SEGMENT PARA USE32 PUBLIC ''
text$AFX_COL1	ENDS
text$yc	SEGMENT PARA USE32 PUBLIC 'CODE'
text$yc	ENDS
CRT$XCA	SEGMENT DWORD USE32 PUBLIC 'DATA'
CRT$XCA	ENDS
CRT$XCU	SEGMENT DWORD USE32 PUBLIC 'DATA'
CRT$XCU	ENDS
CRT$XCL	SEGMENT DWORD USE32 PUBLIC 'DATA'
CRT$XCL	ENDS
CRT$XCC	SEGMENT DWORD USE32 PUBLIC 'DATA'
CRT$XCC	ENDS
CRT$XCZ	SEGMENT DWORD USE32 PUBLIC 'DATA'
CRT$XCZ	ENDS
text$yd	SEGMENT PARA USE32 PUBLIC 'CODE'
text$yd	ENDS
ATL$__m	SEGMENT DWORD USE32 PUBLIC ''
ATL$__m	ENDS
ATL$__z	SEGMENT DWORD USE32 PUBLIC ''
ATL$__z	ENDS
ATL$__a	SEGMENT DWORD USE32 PUBLIC ''
ATL$__a	ENDS
;	COMDAT ?Unlock@CSyncObject@@UAEHJPAJ@Z
_TEXT	SEGMENT PARA USE32 PUBLIC 'CODE'
_TEXT	ENDS
;	COMDAT ?Init@CCriticalSection@@AAEHXZ
_TEXT	SEGMENT PARA USE32 PUBLIC 'CODE'
_TEXT	ENDS
;	COMDAT ??0CCriticalSection@@QAE@XZ
_TEXT	SEGMENT PARA USE32 PUBLIC 'CODE'
_TEXT	ENDS
;	COMDAT ??_GCCriticalSection@@UAEPAXI@Z
_TEXT	SEGMENT PARA USE32 PUBLIC 'CODE'
_TEXT	ENDS
;	COMDAT ??1CCriticalSection@@UAE@XZ
_TEXT	SEGMENT PARA USE32 PUBLIC 'CODE'
_TEXT	ENDS
;	COMDAT ?Lock@CCriticalSection@@QAEHXZ
_TEXT	SEGMENT PARA USE32 PUBLIC 'CODE'
_TEXT	ENDS
;	COMDAT ?Lock@CCriticalSection@@UAEHK@Z
_TEXT	SEGMENT PARA USE32 PUBLIC 'CODE'
_TEXT	ENDS
;	COMDAT ?Unlock@CCriticalSection@@UAEHXZ
_TEXT	SEGMENT PARA USE32 PUBLIC 'CODE'
_TEXT	ENDS
;	COMDAT ??0GdiRes@@QAE@XZ
_TEXT	SEGMENT PARA USE32 PUBLIC 'CODE'
_TEXT	ENDS
;	COMDAT ??1_tagLMCItemInfo@@QAE@XZ
_TEXT	SEGMENT PARA USE32 PUBLIC 'CODE'
_TEXT	ENDS
;	COMDAT _$E5
text$yc	SEGMENT PARA USE32 PUBLIC 'CODE'
text$yc	ENDS
;	COMDAT ??_GCLocalMusicCoverList@@UAEPAXI@Z
_TEXT	SEGMENT PARA USE32 PUBLIC 'CODE'
_TEXT	ENDS
;	COMDAT ??0_tagLMCItemInfo@@QAE@ABU0@@Z
_TEXT	SEGMENT PARA USE32 PUBLIC 'CODE'
_TEXT	ENDS
;	COMDAT ??B?$CComPtrBase@UITypeInfo2@@@ATL@@QBEPAUITypeInfo2@@XZ
_TEXT	SEGMENT PARA USE32 PUBLIC 'CODE'
_TEXT	ENDS
;	COMDAT ?equal@?$istreambuf_iterator@DU?$char_traits@D@std@@@std@@QBE_NABV12@@Z
_TEXT	SEGMENT PARA USE32 PUBLIC 'CODE'
_TEXT	ENDS
;	COMDAT ?equal@?$istreambuf_iterator@_WU?$char_traits@_W@std@@@std@@QBE_NABV12@@Z
_TEXT	SEGMENT PARA USE32 PUBLIC 'CODE'
_TEXT	ENDS
;	COMDAT ?begin@?$vector@U_tagLMCItemInfo@@V?$allocator@U_tagLMCItemInfo@@@std@@@std@@QAE?AViterator@12@XZ
_TEXT	SEGMENT PARA USE32 PUBLIC 'CODE'
_TEXT	ENDS
;	COMDAT ?end@?$vector@U_tagLMCItemInfo@@V?$allocator@U_tagLMCItemInfo@@@std@@@std@@QAE?AViterator@12@XZ
_TEXT	SEGMENT PARA USE32 PUBLIC 'CODE'
_TEXT	ENDS
;	COMDAT ?size@?$vector@U_tagLMCItemInfo@@V?$allocator@U_tagLMCItemInfo@@@std@@@std@@QBEIXZ
_TEXT	SEGMENT PARA USE32 PUBLIC 'CODE'
_TEXT	ENDS
;	COMDAT ??A?$vector@U_tagLMCItemInfo@@V?$allocator@U_tagLMCItemInfo@@@std@@@std@@QAEAAU_tagLMCItemInfo@@I@Z
_TEXT	SEGMENT PARA USE32 PUBLIC 'CODE'
_TEXT	ENDS
;	COMDAT ??0?$deque@VCPoint@@V?$allocator@VCPoint@@@std@@@std@@QAE@XZ
_TEXT	SEGMENT PARA USE32 PUBLIC 'CODE'
_TEXT	ENDS
;	COMDAT ??1?$deque@VCPoint@@V?$allocator@VCPoint@@@std@@@std@@QAE@XZ
_TEXT	SEGMENT PARA USE32 PUBLIC 'CODE'
_TEXT	ENDS
;	COMDAT ?size@?$deque@VCPoint@@V?$allocator@VCPoint@@@std@@@std@@QBEIXZ
_TEXT	SEGMENT PARA USE32 PUBLIC 'CODE'
_TEXT	ENDS
;	COMDAT ?front@?$deque@VCPoint@@V?$allocator@VCPoint@@@std@@@std@@QAEAAVCPoint@@XZ
_TEXT	SEGMENT PARA USE32 PUBLIC 'CODE'
_TEXT	ENDS
;	COMDAT ?pop_front@?$deque@VCPoint@@V?$allocator@VCPoint@@@std@@@std@@QAEXXZ
_TEXT	SEGMENT PARA USE32 PUBLIC 'CODE'
_TEXT	ENDS
;	COMDAT ?push_back@?$deque@VCPoint@@V?$allocator@VCPoint@@@std@@@std@@QAEXABVCPoint@@@Z
_TEXT	SEGMENT PARA USE32 PUBLIC 'CODE'
_TEXT	ENDS
;	COMDAT ??0?$vector@HV?$allocator@H@std@@@std@@QAE@XZ
_TEXT	SEGMENT PARA USE32 PUBLIC 'CODE'
_TEXT	ENDS
;	COMDAT ??0?$vector@HV?$allocator@H@std@@@std@@QAE@ABV01@@Z
_TEXT	SEGMENT PARA USE32 PUBLIC 'CODE'
_TEXT	ENDS
;	COMDAT ??1?$vector@HV?$allocator@H@std@@@std@@QAE@XZ
_TEXT	SEGMENT PARA USE32 PUBLIC 'CODE'
_TEXT	ENDS
;	COMDAT ?begin@?$vector@HV?$allocator@H@std@@@std@@QAE?AViterator@12@XZ
_TEXT	SEGMENT PARA USE32 PUBLIC 'CODE'
_TEXT	ENDS
;	COMDAT ?end@?$vector@HV?$allocator@H@std@@@std@@QAE?AViterator@12@XZ
_TEXT	SEGMENT PARA USE32 PUBLIC 'CODE'
_TEXT	ENDS
;	COMDAT ?size@?$vector@HV?$allocator@H@std@@@std@@QBEIXZ
_TEXT	SEGMENT PARA USE32 PUBLIC 'CODE'
_TEXT	ENDS
;	COMDAT ??A?$vector@HV?$allocator@H@std@@@std@@QAEAAHI@Z
_TEXT	SEGMENT PARA USE32 PUBLIC 'CODE'
_TEXT	ENDS
;	COMDAT ?push_back@?$vector@HV?$allocator@H@std@@@std@@QAEXABH@Z
_TEXT	SEGMENT PARA USE32 PUBLIC 'CODE'
_TEXT	ENDS
;	COMDAT ??Citerator@?$vector@U_tagLMCItemInfo@@V?$allocator@U_tagLMCItemInfo@@@std@@@std@@QBEPAU_tagLMCItemInfo@@XZ
_TEXT	SEGMENT PARA USE32 PUBLIC 'CODE'
_TEXT	ENDS
;	COMDAT ??Eiterator@?$vector@U_tagLMCItemInfo@@V?$allocator@U_tagLMCItemInfo@@@std@@@std@@QAE?AV012@H@Z
_TEXT	SEGMENT PARA USE32 PUBLIC 'CODE'
_TEXT	ENDS
;	COMDAT ??9const_iterator@?$vector@U_tagLMCItemInfo@@V?$allocator@U_tagLMCItemInfo@@@std@@@std@@QBE_NABV012@@Z
_TEXT	SEGMENT PARA USE32 PUBLIC 'CODE'
_TEXT	ENDS
;	COMDAT ??Diterator@?$vector@HV?$allocator@H@std@@@std@@QBEAAHXZ
_TEXT	SEGMENT PARA USE32 PUBLIC 'CODE'
_TEXT	ENDS
;	COMDAT ??Fiterator@?$vector@HV?$allocator@H@std@@@std@@QAEAAV012@XZ
_TEXT	SEGMENT PARA USE32 PUBLIC 'CODE'
_TEXT	ENDS
;	COMDAT ??9const_iterator@?$vector@HV?$allocator@H@std@@@std@@QBE_NABV012@@Z
_TEXT	SEGMENT PARA USE32 PUBLIC 'CODE'
_TEXT	ENDS
;	COMDAT ?StringFindCharRev@?$ChTraitsCRT@D@ATL@@SAPBDPBDD@Z
_TEXT	SEGMENT PARA USE32 PUBLIC 'CODE'
_TEXT	ENDS
;	COMDAT ?begin@?$deque@VCPoint@@V?$allocator@VCPoint@@@std@@@std@@QAE?AViterator@12@XZ
_TEXT	SEGMENT PARA USE32 PUBLIC 'CODE'
_TEXT	ENDS
;	COMDAT ?empty@?$deque@VCPoint@@V?$allocator@VCPoint@@@std@@@std@@QBE_NXZ
_TEXT	SEGMENT PARA USE32 PUBLIC 'CODE'
_TEXT	ENDS
;	COMDAT ?_Growmap@?$deque@VCPoint@@V?$allocator@VCPoint@@@std@@@std@@IAEXI@Z
_TEXT	SEGMENT PARA USE32 PUBLIC 'CODE'
_TEXT	ENDS
;	COMDAT ?_Tidy@?$deque@VCPoint@@V?$allocator@VCPoint@@@std@@@std@@IAEXXZ
_TEXT	SEGMENT PARA USE32 PUBLIC 'CODE'
_TEXT	ENDS
;	COMDAT ??0?$_Deque_val@VCPoint@@V?$allocator@VCPoint@@@std@@@std@@IAE@V?$allocator@VCPoint@@@1@@Z
_TEXT	SEGMENT PARA USE32 PUBLIC 'CODE'
_TEXT	ENDS
;	COMDAT ??0?$allocator@VCPoint@@@std@@QAE@XZ
_TEXT	SEGMENT PARA USE32 PUBLIC 'CODE'
_TEXT	ENDS
;	COMDAT ?allocate@?$allocator@VCPoint@@@std@@QAEPAVCPoint@@I@Z
_TEXT	SEGMENT PARA USE32 PUBLIC 'CODE'
_TEXT	ENDS
;	COMDAT ?construct@?$allocator@VCPoint@@@std@@QAEXPAVCPoint@@ABV3@@Z
_TEXT	SEGMENT PARA USE32 PUBLIC 'CODE'
_TEXT	ENDS
;	COMDAT ?destroy@?$allocator@VCPoint@@@std@@QAEXPAVCPoint@@@Z
_TEXT	SEGMENT PARA USE32 PUBLIC 'CODE'
_TEXT	ENDS
;	COMDAT ?capacity@?$vector@HV?$allocator@H@std@@@std@@QBEIXZ
_TEXT	SEGMENT PARA USE32 PUBLIC 'CODE'
_TEXT	ENDS
;	COMDAT ?begin@?$vector@HV?$allocator@H@std@@@std@@QBE?AVconst_iterator@12@XZ
_TEXT	SEGMENT PARA USE32 PUBLIC 'CODE'
_TEXT	ENDS
;	COMDAT ?end@?$vector@HV?$allocator@H@std@@@std@@QBE?AVconst_iterator@12@XZ
_TEXT	SEGMENT PARA USE32 PUBLIC 'CODE'
_TEXT	ENDS
;	COMDAT ?insert@?$vector@HV?$allocator@H@std@@@std@@QAE?AViterator@12@V312@ABH@Z
_TEXT	SEGMENT PARA USE32 PUBLIC 'CODE'
_TEXT	ENDS
;	COMDAT ?_Buy@?$vector@HV?$allocator@H@std@@@std@@IAE_NI@Z
_TEXT	SEGMENT PARA USE32 PUBLIC 'CODE'
_TEXT	ENDS
;	COMDAT ?_Tidy@?$vector@HV?$allocator@H@std@@@std@@IAEXXZ
_TEXT	SEGMENT PARA USE32 PUBLIC 'CODE'
_TEXT	ENDS
;	COMDAT ?_Ufill@?$vector@HV?$allocator@H@std@@@std@@IAEPAHPAHIABH@Z
_TEXT	SEGMENT PARA USE32 PUBLIC 'CODE'
_TEXT	ENDS
;	COMDAT ??0?$_Vector_val@HV?$allocator@H@std@@@std@@IAE@V?$allocator@H@1@@Z
_TEXT	SEGMENT PARA USE32 PUBLIC 'CODE'
_TEXT	ENDS
;	COMDAT ??0?$allocator@H@std@@QAE@XZ
_TEXT	SEGMENT PARA USE32 PUBLIC 'CODE'
_TEXT	ENDS
;	COMDAT ??0?$allocator@H@std@@QAE@ABV01@@Z
_TEXT	SEGMENT PARA USE32 PUBLIC 'CODE'
_TEXT	ENDS
;	COMDAT ??0iterator@?$vector@U_tagLMCItemInfo@@V?$allocator@U_tagLMCItemInfo@@@std@@@std@@QAE@PAU_tagLMCItemInfo@@@Z
_TEXT	SEGMENT PARA USE32 PUBLIC 'CODE'
_TEXT	ENDS
;	COMDAT ??Diterator@?$vector@U_tagLMCItemInfo@@V?$allocator@U_tagLMCItemInfo@@@std@@@std@@QBEAAU_tagLMCItemInfo@@XZ
_TEXT	SEGMENT PARA USE32 PUBLIC 'CODE'
_TEXT	ENDS
;	COMDAT ??Eiterator@?$vector@U_tagLMCItemInfo@@V?$allocator@U_tagLMCItemInfo@@@std@@@std@@QAEAAV012@XZ
_TEXT	SEGMENT PARA USE32 PUBLIC 'CODE'
_TEXT	ENDS
;	COMDAT ??Hiterator@?$vector@U_tagLMCItemInfo@@V?$allocator@U_tagLMCItemInfo@@@std@@@std@@QBE?AV012@H@Z
_TEXT	SEGMENT PARA USE32 PUBLIC 'CODE'
_TEXT	ENDS
;	COMDAT ??8const_iterator@?$vector@U_tagLMCItemInfo@@V?$allocator@U_tagLMCItemInfo@@@std@@@std@@QBE_NABV012@@Z
_TEXT	SEGMENT PARA USE32 PUBLIC 'CODE'
_TEXT	ENDS
;	COMDAT ??0iterator@?$vector@HV?$allocator@H@std@@@std@@QAE@PAH@Z
_TEXT	SEGMENT PARA USE32 PUBLIC 'CODE'
_TEXT	ENDS
;	COMDAT ??Hiterator@?$vector@HV?$allocator@H@std@@@std@@QBE?AV012@H@Z
_TEXT	SEGMENT PARA USE32 PUBLIC 'CODE'
_TEXT	ENDS
;	COMDAT ??Dconst_iterator@?$vector@HV?$allocator@H@std@@@std@@QBEABHXZ
_TEXT	SEGMENT PARA USE32 PUBLIC 'CODE'
_TEXT	ENDS
;	COMDAT ??8const_iterator@?$vector@HV?$allocator@H@std@@@std@@QBE_NABV012@@Z
_TEXT	SEGMENT PARA USE32 PUBLIC 'CODE'
_TEXT	ENDS
;	COMDAT ??Diterator@?$deque@VCPoint@@V?$allocator@VCPoint@@@std@@@std@@QBEAAVCPoint@@XZ
_TEXT	SEGMENT PARA USE32 PUBLIC 'CODE'
_TEXT	ENDS
;	COMDAT ?max_size@?$deque@VCPoint@@V?$allocator@VCPoint@@@std@@@std@@QBEIXZ
_TEXT	SEGMENT PARA USE32 PUBLIC 'CODE'
_TEXT	ENDS
;	COMDAT ?pop_back@?$deque@VCPoint@@V?$allocator@VCPoint@@@std@@@std@@QAEXXZ
_TEXT	SEGMENT PARA USE32 PUBLIC 'CODE'
_TEXT	ENDS
;	COMDAT ?_Xlen@?$deque@VCPoint@@V?$allocator@VCPoint@@@std@@@std@@IBEXXZ
_TEXT	SEGMENT PARA USE32 PUBLIC 'CODE'
_TEXT	ENDS
;	COMDAT ??0?$_Deque_map@VCPoint@@V?$allocator@VCPoint@@@std@@@std@@IAE@V?$allocator@VCPoint@@@1@@Z
_TEXT	SEGMENT PARA USE32 PUBLIC 'CODE'
_TEXT	ENDS
;	COMDAT ??0?$allocator@VCPoint@@@std@@QAE@ABV01@@Z
_TEXT	SEGMENT PARA USE32 PUBLIC 'CODE'
_TEXT	ENDS
;	COMDAT ?deallocate@?$allocator@VCPoint@@@std@@QAEXPAVCPoint@@I@Z
_TEXT	SEGMENT PARA USE32 PUBLIC 'CODE'
_TEXT	ENDS
;	COMDAT ?deallocate@?$allocator@PAVCPoint@@@std@@QAEXPAPAVCPoint@@I@Z
_TEXT	SEGMENT PARA USE32 PUBLIC 'CODE'
_TEXT	ENDS
;	COMDAT ?allocate@?$allocator@PAVCPoint@@@std@@QAEPAPAVCPoint@@I@Z
_TEXT	SEGMENT PARA USE32 PUBLIC 'CODE'
_TEXT	ENDS
;	COMDAT ?destroy@?$allocator@PAVCPoint@@@std@@QAEXPAPAVCPoint@@@Z
_TEXT	SEGMENT PARA USE32 PUBLIC 'CODE'
_TEXT	ENDS
;	COMDAT ?max_size@?$vector@HV?$allocator@H@std@@@std@@QBEIXZ
_TEXT	SEGMENT PARA USE32 PUBLIC 'CODE'
_TEXT	ENDS
;	COMDAT ?_Destroy@?$vector@HV?$allocator@H@std@@@std@@IAEXPAH0@Z
_TEXT	SEGMENT PARA USE32 PUBLIC 'CODE'
_TEXT	ENDS
;	COMDAT ?_Insert_n@?$vector@HV?$allocator@H@std@@@std@@IAEXViterator@12@IABH@Z
_TEXT	SEGMENT PARA USE32 PUBLIC 'CODE'
_TEXT	ENDS
;	COMDAT ?_Xlen@?$vector@HV?$allocator@H@std@@@std@@IBEXXZ
_TEXT	SEGMENT PARA USE32 PUBLIC 'CODE'
_TEXT	ENDS
;	COMDAT ?deallocate@?$allocator@H@std@@QAEXPAHI@Z
_TEXT	SEGMENT PARA USE32 PUBLIC 'CODE'
_TEXT	ENDS
;	COMDAT ?allocate@?$allocator@H@std@@QAEPAHI@Z
_TEXT	SEGMENT PARA USE32 PUBLIC 'CODE'
_TEXT	ENDS
;	COMDAT ??Yiterator@?$vector@U_tagLMCItemInfo@@V?$allocator@U_tagLMCItemInfo@@@std@@@std@@QAEAAV012@H@Z
_TEXT	SEGMENT PARA USE32 PUBLIC 'CODE'
_TEXT	ENDS
;	COMDAT ??0const_iterator@?$vector@U_tagLMCItemInfo@@V?$allocator@U_tagLMCItemInfo@@@std@@@std@@QAE@PAU_tagLMCItemInfo@@@Z
_TEXT	SEGMENT PARA USE32 PUBLIC 'CODE'
_TEXT	ENDS
;	COMDAT ??Dconst_iterator@?$vector@U_tagLMCItemInfo@@V?$allocator@U_tagLMCItemInfo@@@std@@@std@@QBEABU_tagLMCItemInfo@@XZ
_TEXT	SEGMENT PARA USE32 PUBLIC 'CODE'
_TEXT	ENDS
;	COMDAT ??Yiterator@?$vector@HV?$allocator@H@std@@@std@@QAEAAV012@H@Z
_TEXT	SEGMENT PARA USE32 PUBLIC 'CODE'
_TEXT	ENDS
;	COMDAT ??Giterator@?$vector@HV?$allocator@H@std@@@std@@QBEHABVconst_iterator@12@@Z
_TEXT	SEGMENT PARA USE32 PUBLIC 'CODE'
_TEXT	ENDS
;	COMDAT ??0const_iterator@?$vector@HV?$allocator@H@std@@@std@@QAE@PAH@Z
_TEXT	SEGMENT PARA USE32 PUBLIC 'CODE'
_TEXT	ENDS
;	COMDAT ??0iterator@?$deque@VCPoint@@V?$allocator@VCPoint@@@std@@@std@@QAE@IPBV12@@Z
_TEXT	SEGMENT PARA USE32 PUBLIC 'CODE'
_TEXT	ENDS
;	COMDAT ??Dconst_iterator@?$deque@VCPoint@@V?$allocator@VCPoint@@@std@@@std@@QBEABVCPoint@@XZ
_TEXT	SEGMENT PARA USE32 PUBLIC 'CODE'
_TEXT	ENDS
;	COMDAT ??0length_error@std@@QAE@ABV01@@Z
_TEXT	SEGMENT PARA USE32 PUBLIC 'CODE'
_TEXT	ENDS
;	COMDAT ?max_size@?$allocator@VCPoint@@@std@@QBEIXZ
_TEXT	SEGMENT PARA USE32 PUBLIC 'CODE'
_TEXT	ENDS
;	COMDAT ?max_size@?$allocator@H@std@@QBEIXZ
_TEXT	SEGMENT PARA USE32 PUBLIC 'CODE'
_TEXT	ENDS
;	COMDAT ??Gconst_iterator@?$vector@HV?$allocator@H@std@@@std@@QBEHABV012@@Z
_TEXT	SEGMENT PARA USE32 PUBLIC 'CODE'
_TEXT	ENDS
;	COMDAT ??0const_iterator@?$deque@VCPoint@@V?$allocator@VCPoint@@@std@@@std@@QAE@IPBV12@@Z
_TEXT	SEGMENT PARA USE32 PUBLIC 'CODE'
_TEXT	ENDS
;	COMDAT ?Unlock@?$CComCritSecLock@VCComCriticalSection@ATL@@@ATL@@QAEXXZ
_TEXT	SEGMENT PARA USE32 PUBLIC 'CODE'
_TEXT	ENDS
;	COMDAT ??$find@Viterator@?$vector@HV?$allocator@H@std@@@std@@H@std@@YA?AViterator@?$vector@HV?$allocator@H@std@@@0@V120@0ABH@Z
_TEXT	SEGMENT PARA USE32 PUBLIC 'CODE'
_TEXT	ENDS
;	COMDAT ??$_Ucopy@Vconst_iterator@?$vector@HV?$allocator@H@std@@@std@@@?$vector@HV?$allocator@H@std@@@std@@IAEPAHVconst_iterator@01@0PAH@Z
_TEXT	SEGMENT PARA USE32 PUBLIC 'CODE'
_TEXT	ENDS
;	COMDAT ??$_Uninitialized_copy@PAPAVCPoint@@PAPAV1@V?$allocator@PAVCPoint@@@std@@@std@@YAPAPAVCPoint@@PAPAV1@00AAV?$allocator@PAVCPoint@@@0@@Z
_TEXT	SEGMENT PARA USE32 PUBLIC 'CODE'
_TEXT	ENDS
;	COMDAT ??$_Uninitialized_fill_n@PAPAVCPoint@@IPAV1@V?$allocator@PAVCPoint@@@std@@@std@@YAXPAPAVCPoint@@IABQAV1@AAV?$allocator@PAVCPoint@@@0@@Z
_TEXT	SEGMENT PARA USE32 PUBLIC 'CODE'
_TEXT	ENDS
;	COMDAT ??$_Destroy_range@PAVCPoint@@V?$allocator@PAVCPoint@@@std@@@std@@YAXPAPAVCPoint@@0AAV?$allocator@PAVCPoint@@@0@@Z
_TEXT	SEGMENT PARA USE32 PUBLIC 'CODE'
_TEXT	ENDS
;	COMDAT ??$_Allocate@VCPoint@@@std@@YAPAVCPoint@@IPAV1@@Z
_TEXT	SEGMENT PARA USE32 PUBLIC 'CODE'
_TEXT	ENDS
;	COMDAT ??$_Construct@VCPoint@@V1@@std@@YAXPAVCPoint@@ABV1@@Z
_TEXT	SEGMENT PARA USE32 PUBLIC 'CODE'
_TEXT	ENDS
;	COMDAT ??$_Destroy@VCPoint@@@std@@YAXPAVCPoint@@@Z
_TEXT	SEGMENT PARA USE32 PUBLIC 'CODE'
_TEXT	ENDS
;	COMDAT ??$_Uninitialized_fill_n@PAHIHV?$allocator@H@std@@@std@@YAXPAHIABHAAV?$allocator@H@0@@Z
_TEXT	SEGMENT PARA USE32 PUBLIC 'CODE'
_TEXT	ENDS
;	COMDAT ??$_Maklocstr@D@std@@YAPADPBDPADABU_Cvtvec@@@Z
_TEXT	SEGMENT PARA USE32 PUBLIC 'CODE'
_TEXT	ENDS
;	COMDAT ??$?0VCPoint@@@?$allocator@PAVCPoint@@@std@@QAE@ABV?$allocator@VCPoint@@@1@@Z
_TEXT	SEGMENT PARA USE32 PUBLIC 'CODE'
_TEXT	ENDS
;	COMDAT ??$_Allocate@PAVCPoint@@@std@@YAPAPAVCPoint@@IPAPAV1@@Z
_TEXT	SEGMENT PARA USE32 PUBLIC 'CODE'
_TEXT	ENDS
;	COMDAT ??$_Destroy@PAVCPoint@@@std@@YAXPAPAVCPoint@@@Z
_TEXT	SEGMENT PARA USE32 PUBLIC 'CODE'
_TEXT	ENDS
;	COMDAT ??$_Destroy_range@HV?$allocator@H@std@@@std@@YAXPAH0AAV?$allocator@H@0@@Z
_TEXT	SEGMENT PARA USE32 PUBLIC 'CODE'
_TEXT	ENDS
;	COMDAT ??$_Ucopy@PAH@?$vector@HV?$allocator@H@std@@@std@@IAEPAHPAH00@Z
_TEXT	SEGMENT PARA USE32 PUBLIC 'CODE'
_TEXT	ENDS
;	COMDAT ??$fill@PAHH@std@@YAXPAH0ABH@Z
_TEXT	SEGMENT PARA USE32 PUBLIC 'CODE'
_TEXT	ENDS
;	COMDAT ??$copy_backward@PAHPAH@std@@YAPAHPAH00@Z
_TEXT	SEGMENT PARA USE32 PUBLIC 'CODE'
_TEXT	ENDS
;	COMDAT ??$_Allocate@H@std@@YAPAHIPAH@Z
_TEXT	SEGMENT PARA USE32 PUBLIC 'CODE'
_TEXT	ENDS
;	COMDAT ??Eiterator@?$vector@HV?$allocator@H@std@@@std@@QAEAAV012@XZ
_TEXT	SEGMENT PARA USE32 PUBLIC 'CODE'
_TEXT	ENDS
;	COMDAT ??$_Uninitialized_copy@Vconst_iterator@?$vector@HV?$allocator@H@std@@@std@@PAHV?$allocator@H@3@@std@@YAPAHVconst_iterator@?$vector@HV?$allocator@H@std@@@0@0PAHAAV?$allocator@H@0@@Z
_TEXT	SEGMENT PARA USE32 PUBLIC 'CODE'
_TEXT	ENDS
;	COMDAT ??$_Ptr_cat@VCPoint@@@std@@YA?AU_Scalar_ptr_iterator_tag@0@PAPAVCPoint@@0@Z
_TEXT	SEGMENT PARA USE32 PUBLIC 'CODE'
_TEXT	ENDS
;	COMDAT ??$_Uninit_copy@PAVCPoint@@PAV1@@std@@YAPAPAVCPoint@@PAPAV1@00AAV?$allocator@PAVCPoint@@@0@U_Scalar_ptr_iterator_tag@0@@Z
_TEXT	SEGMENT PARA USE32 PUBLIC 'CODE'
_TEXT	ENDS
;	COMDAT ??$_Uninit_fill_n@PAVCPoint@@IPAV1@@std@@YAXPAPAVCPoint@@IABQAV1@AAV?$allocator@PAVCPoint@@@0@U_Scalar_ptr_iterator_tag@0@@Z
_TEXT	SEGMENT PARA USE32 PUBLIC 'CODE'
_TEXT	ENDS
;	COMDAT ??$_Destroy_range@PAVCPoint@@V?$allocator@PAVCPoint@@@std@@@std@@YAXPAPAVCPoint@@0AAV?$allocator@PAVCPoint@@@0@U_Scalar_ptr_iterator_tag@0@@Z
_TEXT	SEGMENT PARA USE32 PUBLIC 'CODE'
_TEXT	ENDS
;	COMDAT ??$_Uninit_fill_n@HIH@std@@YAXPAHIABHAAV?$allocator@H@0@U_Scalar_ptr_iterator_tag@0@@Z
_TEXT	SEGMENT PARA USE32 PUBLIC 'CODE'
_TEXT	ENDS
;	COMDAT ??$_Destroy_range@HV?$allocator@H@std@@@std@@YAXPAH0AAV?$allocator@H@0@U_Scalar_ptr_iterator_tag@0@@Z
_TEXT	SEGMENT PARA USE32 PUBLIC 'CODE'
_TEXT	ENDS
;	COMDAT ??$_Uninitialized_copy@PAHPAHV?$allocator@H@std@@@std@@YAPAHPAH00AAV?$allocator@H@0@@Z
_TEXT	SEGMENT PARA USE32 PUBLIC 'CODE'
_TEXT	ENDS
;	COMDAT ??$_Copy_backward_opt@PAHPAH@std@@YAPAHPAH00U_Scalar_ptr_iterator_tag@0@@Z
_TEXT	SEGMENT PARA USE32 PUBLIC 'CODE'
_TEXT	ENDS
;	COMDAT ??$_Ptr_cat@Vconst_iterator@?$vector@HV?$allocator@H@std@@@std@@PAH@std@@YA?AU_Nonscalar_ptr_iterator_tag@0@AAVconst_iterator@?$vector@HV?$allocator@H@std@@@0@AAPAH@Z
_TEXT	SEGMENT PARA USE32 PUBLIC 'CODE'
_TEXT	ENDS
;	COMDAT ??$_Uninit_copy@Vconst_iterator@?$vector@HV?$allocator@H@std@@@std@@PAHV?$allocator@H@3@@std@@YAPAHVconst_iterator@?$vector@HV?$allocator@H@std@@@0@0PAHAAV?$allocator@H@0@U_Nonscalar_ptr_iterator_tag@0@@Z
_TEXT	SEGMENT PARA USE32 PUBLIC 'CODE'
_TEXT	ENDS
;	COMDAT ??$fill_n@PAPAVCPoint@@IPAV1@@std@@YAXPAPAVCPoint@@IABQAV1@@Z
_TEXT	SEGMENT PARA USE32 PUBLIC 'CODE'
_TEXT	ENDS
;	COMDAT ??$fill_n@PAHIH@std@@YAXPAHIABH@Z
_TEXT	SEGMENT PARA USE32 PUBLIC 'CODE'
_TEXT	ENDS
;	COMDAT ??$_Uninit_copy@HH@std@@YAPAHPAH00AAV?$allocator@H@0@U_Scalar_ptr_iterator_tag@0@@Z
_TEXT	SEGMENT PARA USE32 PUBLIC 'CODE'
_TEXT	ENDS
;	COMDAT ?construct@?$allocator@H@std@@QAEXPAHABH@Z
_TEXT	SEGMENT PARA USE32 PUBLIC 'CODE'
_TEXT	ENDS
;	COMDAT ?destroy@?$allocator@H@std@@QAEXPAH@Z
_TEXT	SEGMENT PARA USE32 PUBLIC 'CODE'
_TEXT	ENDS
;	COMDAT ??Econst_iterator@?$vector@HV?$allocator@H@std@@@std@@QAEAAV012@XZ
_TEXT	SEGMENT PARA USE32 PUBLIC 'CODE'
_TEXT	ENDS
;	COMDAT ??$_Construct@HH@std@@YAXPAHABH@Z
_TEXT	SEGMENT PARA USE32 PUBLIC 'CODE'
_TEXT	ENDS
;	COMDAT ??$_Destroy@H@std@@YAXPAH@Z
_TEXT	SEGMENT PARA USE32 PUBLIC 'CODE'
_TEXT	ENDS
;	COMDAT ??_R3CCriticalSection@@8
rdata$r	SEGMENT DWORD USE32 PUBLIC 'CONST'
rdata$r	ENDS
;	COMDAT ??_R3?$numpunct@_W@std@@8
rdata$r	SEGMENT DWORD USE32 PUBLIC 'CONST'
rdata$r	ENDS
;	COMDAT ??_R3CLocalMusicCoverList@@8
rdata$r	SEGMENT DWORD USE32 PUBLIC 'CONST'
rdata$r	ENDS
;	COMDAT ??_R3?$numpunct@D@std@@8
rdata$r	SEGMENT DWORD USE32 PUBLIC 'CONST'
rdata$r	ENDS
;	COMDAT ??_R2CCriticalSection@@8
rdata$r	SEGMENT DWORD USE32 PUBLIC 'CONST'
rdata$r	ENDS
;	COMDAT ??_R2?$numpunct@_W@std@@8
rdata$r	SEGMENT DWORD USE32 PUBLIC 'CONST'
rdata$r	ENDS
;	COMDAT ??_R2CLocalMusicCoverList@@8
rdata$r	SEGMENT DWORD USE32 PUBLIC 'CONST'
rdata$r	ENDS
;	COMDAT ??_R2?$numpunct@D@std@@8
rdata$r	SEGMENT DWORD USE32 PUBLIC 'CONST'
rdata$r	ENDS
;	COMDAT ??_R1A@?0A@A@CSyncObject@@8
rdata$r	SEGMENT DWORD USE32 PUBLIC 'CONST'
rdata$r	ENDS
;	COMDAT ??_R1A@?0A@A@CCriticalSection@@8
rdata$r	SEGMENT DWORD USE32 PUBLIC 'CONST'
rdata$r	ENDS
;	COMDAT ??_R1A@?0A@A@?$numpunct@_W@std@@8
rdata$r	SEGMENT DWORD USE32 PUBLIC 'CONST'
rdata$r	ENDS
;	COMDAT ??_R1A@?0A@A@CObject@@8
rdata$r	SEGMENT DWORD USE32 PUBLIC 'CONST'
rdata$r	ENDS
;	COMDAT ??_R0?AVCObject@@@8
_DATA	SEGMENT DWORD USE32 PUBLIC 'DATA'
_DATA	ENDS
;	COMDAT ??_R1A@?0A@A@CCmdTarget@@8
rdata$r	SEGMENT DWORD USE32 PUBLIC 'CONST'
rdata$r	ENDS
;	COMDAT ??_R0?AVCCmdTarget@@@8
_DATA	SEGMENT DWORD USE32 PUBLIC 'DATA'
_DATA	ENDS
;	COMDAT ??_R1A@?0A@A@CWnd@@8
rdata$r	SEGMENT DWORD USE32 PUBLIC 'CONST'
rdata$r	ENDS
;	COMDAT ??_R0?AVCWnd@@@8
_DATA	SEGMENT DWORD USE32 PUBLIC 'DATA'
_DATA	ENDS
;	COMDAT ??_R1A@?0A@A@CLocalMusicCoverList@@8
rdata$r	SEGMENT DWORD USE32 PUBLIC 'CONST'
rdata$r	ENDS
;	COMDAT ??_R1A@?0A@A@facet@locale@std@@8
rdata$r	SEGMENT DWORD USE32 PUBLIC 'CONST'
rdata$r	ENDS
;	COMDAT ??_R0?AVfacet@locale@std@@@8
_DATA	SEGMENT DWORD USE32 PUBLIC 'DATA'
_DATA	ENDS
;	COMDAT ??_R1A@?0A@A@?$numpunct@D@std@@8
rdata$r	SEGMENT DWORD USE32 PUBLIC 'CONST'
rdata$r	ENDS
;	COMDAT ??_R0?AVCSyncObject@@@8
_DATA	SEGMENT DWORD USE32 PUBLIC 'DATA'
_DATA	ENDS
;	COMDAT ??_R0?AVCCriticalSection@@@8
_DATA	SEGMENT DWORD USE32 PUBLIC 'DATA'
_DATA	ENDS
;	COMDAT ??_R0?AV?$numpunct@_W@std@@@8
_DATA	SEGMENT DWORD USE32 PUBLIC 'DATA'
_DATA	ENDS
;	COMDAT ??_R0?AVCLocalMusicCoverList@@@8
_DATA	SEGMENT DWORD USE32 PUBLIC 'DATA'
_DATA	ENDS
;	COMDAT ??_R0?AV?$numpunct@D@std@@@8
_DATA	SEGMENT DWORD USE32 PUBLIC 'DATA'
_DATA	ENDS
;	COMDAT ??_R4CCriticalSection@@6B@
rdata$r	SEGMENT DWORD USE32 PUBLIC 'CONST'
rdata$r	ENDS
;	COMDAT ??0?$allocator@_W@std@@QAE@XZ
_TEXT	SEGMENT PARA USE32 PUBLIC 'CODE'
_TEXT	ENDS
;	COMDAT ??_G?$numpunct@_W@std@@MAEPAXI@Z
_TEXT	SEGMENT PARA USE32 PUBLIC 'CODE'
_TEXT	ENDS
;	COMDAT ??_R4?$numpunct@_W@std@@6B@
rdata$r	SEGMENT DWORD USE32 PUBLIC 'CONST'
rdata$r	ENDS
;	COMDAT ?EndModalState@CWnd@@UAEXXZ
_TEXT	SEGMENT PARA USE32 PUBLIC 'CODE'
_TEXT	ENDS
;	COMDAT ?BeginModalState@CWnd@@UAEXXZ
_TEXT	SEGMENT PARA USE32 PUBLIC 'CODE'
_TEXT	ENDS
;	COMDAT ?DoDataExchange@CWnd@@MAEXPAVCDataExchange@@@Z
_TEXT	SEGMENT PARA USE32 PUBLIC 'CODE'
_TEXT	ENDS
;	COMDAT ?Dump@CObject@@UBEXAAVCDumpContext@@@Z
_TEXT	SEGMENT PARA USE32 PUBLIC 'CODE'
_TEXT	ENDS
;	COMDAT ?AssertValid@CObject@@UBEXXZ
_TEXT	SEGMENT PARA USE32 PUBLIC 'CODE'
_TEXT	ENDS
;	COMDAT ?Serialize@CObject@@UAEXAAVCArchive@@@Z
_TEXT	SEGMENT PARA USE32 PUBLIC 'CODE'
_TEXT	ENDS
;	COMDAT ??_R4CLocalMusicCoverList@@6B@
rdata$r	SEGMENT DWORD USE32 PUBLIC 'CONST'
rdata$r	ENDS
;	COMDAT ??_G?$numpunct@D@std@@MAEPAXI@Z
_TEXT	SEGMENT PARA USE32 PUBLIC 'CODE'
_TEXT	ENDS
;	COMDAT ??_R4?$numpunct@D@std@@6B@
rdata$r	SEGMENT DWORD USE32 PUBLIC 'CONST'
rdata$r	ENDS
;	COMDAT ?_Ptr_cat@std@@YA?AU_Scalar_ptr_iterator_tag@1@PAH0@Z
_TEXT	SEGMENT PARA USE32 PUBLIC 'CODE'
_TEXT	ENDS
;	COMDAT ??2@YAPAXIPAX@Z
_TEXT	SEGMENT PARA USE32 PUBLIC 'CODE'
_TEXT	ENDS
;	COMDAT ?_Psave@?$_Facetptr@V?$numpunct@_W@std@@@std@@2PBVfacet@locale@2@B
_DATA	SEGMENT DWORD USE32 PUBLIC 'DATA'
_DATA	ENDS
;	COMDAT ?_Psave@?$_Facetptr@V?$numpunct@D@std@@@std@@2PBVfacet@locale@2@B
_DATA	SEGMENT DWORD USE32 PUBLIC 'DATA'
_DATA	ENDS
;	COMDAT ?Unlock@CComCriticalSection@ATL@@QAEJXZ
_TEXT	SEGMENT PARA USE32 PUBLIC 'CODE'
_TEXT	ENDS
;	COMDAT ?_Psave@?$_Facetptr@V?$ctype@_W@std@@@std@@2PBVfacet@locale@2@B
_DATA	SEGMENT DWORD USE32 PUBLIC 'DATA'
_DATA	ENDS
;	COMDAT ?_Psave@?$_Facetptr@V?$ctype@D@std@@@std@@2PBVfacet@locale@2@B
_DATA	SEGMENT DWORD USE32 PUBLIC 'DATA'
_DATA	ENDS
;	COMDAT ??_7length_error@std@@6B@
CONST	SEGMENT DWORD USE32 PUBLIC 'CONST'
CONST	ENDS
;	COMDAT ??_R4length_error@std@@6B@
rdata$r	SEGMENT DWORD USE32 PUBLIC 'CONST'
rdata$r	ENDS
;	COMDAT ??_R3length_error@std@@8
rdata$r	SEGMENT DWORD USE32 PUBLIC 'CONST'
rdata$r	ENDS
;	COMDAT ??_R2length_error@std@@8
rdata$r	SEGMENT DWORD USE32 PUBLIC 'CONST'
rdata$r	ENDS
;	COMDAT ??_R1A@?0A@A@length_error@std@@8
rdata$r	SEGMENT DWORD USE32 PUBLIC 'CONST'
rdata$r	ENDS
;	COMDAT ??_R1A@?0A@A@logic_error@std@@8
rdata$r	SEGMENT DWORD USE32 PUBLIC 'CONST'
rdata$r	ENDS
;	COMDAT ??_R0?AVlogic_error@std@@@8
_DATA	SEGMENT DWORD USE32 PUBLIC 'DATA'
_DATA	ENDS
;	COMDAT ??_R1A@?0A@A@exception@@8
rdata$r	SEGMENT DWORD USE32 PUBLIC 'CONST'
rdata$r	ENDS
;	COMDAT ??_R0?AVexception@@@8
_DATA	SEGMENT DWORD USE32 PUBLIC 'DATA'
_DATA	ENDS
;	COMDAT ??_Glength_error@std@@UAEPAXI@Z
_TEXT	SEGMENT PARA USE32 PUBLIC 'CODE'
_TEXT	ENDS
;	COMDAT ?what@logic_error@std@@UBEPBDXZ
_TEXT	SEGMENT PARA USE32 PUBLIC 'CODE'
_TEXT	ENDS
;	COMDAT ??1logic_error@std@@UAE@XZ
_TEXT	SEGMENT PARA USE32 PUBLIC 'CODE'
_TEXT	ENDS
;	COMDAT ??_7logic_error@std@@6B@
CONST	SEGMENT DWORD USE32 PUBLIC 'CONST'
CONST	ENDS
;	COMDAT ??_R4logic_error@std@@6B@
rdata$r	SEGMENT DWORD USE32 PUBLIC 'CONST'
rdata$r	ENDS
;	COMDAT ??_R3logic_error@std@@8
rdata$r	SEGMENT DWORD USE32 PUBLIC 'CONST'
rdata$r	ENDS
;	COMDAT ??_R2logic_error@std@@8
rdata$r	SEGMENT DWORD USE32 PUBLIC 'CONST'
rdata$r	ENDS
;	COMDAT ??_Glogic_error@std@@UAEPAXI@Z
_TEXT	SEGMENT PARA USE32 PUBLIC 'CODE'
_TEXT	ENDS
;	COMDAT ??0logic_error@std@@QAE@ABV01@@Z
_TEXT	SEGMENT PARA USE32 PUBLIC 'CODE'
_TEXT	ENDS
;	COMDAT __CTA3?AVlength_error@std@@
xdata$x	SEGMENT DWORD USE32 PUBLIC 'CONST'
xdata$x	ENDS
;	COMDAT ??1length_error@std@@UAE@XZ
_TEXT	SEGMENT PARA USE32 PUBLIC 'CODE'
_TEXT	ENDS
;	COMDAT __CT??_R0?AVexception@@@8??0exception@@QAE@ABV0@@Z12
xdata$x	SEGMENT DWORD USE32 PUBLIC 'CONST'
xdata$x	ENDS
;	COMDAT __CT??_R0?AVlogic_error@std@@@8??0logic_error@std@@QAE@ABV01@@Z40
xdata$x	SEGMENT DWORD USE32 PUBLIC 'CONST'
xdata$x	ENDS
;	COMDAT __CT??_R0?AVlength_error@std@@@8??0length_error@std@@QAE@ABV01@@Z40
xdata$x	SEGMENT DWORD USE32 PUBLIC 'CONST'
xdata$x	ENDS
;	COMDAT ??_R0?AVlength_error@std@@@8
_DATA	SEGMENT DWORD USE32 PUBLIC 'DATA'
_DATA	ENDS
;	COMDAT __TI3?AVlength_error@std@@
xdata$x	SEGMENT DWORD USE32 PUBLIC 'CONST'
xdata$x	ENDS
;	COMDAT ??0length_error@std@@QAE@ABV?$basic_string@DU?$char_traits@D@std@@V?$allocator@D@2@@1@@Z
_TEXT	SEGMENT PARA USE32 PUBLIC 'CODE'
_TEXT	ENDS
;	COMDAT ??0logic_error@std@@QAE@ABV?$basic_string@DU?$char_traits@D@std@@V?$allocator@D@2@@1@@Z
_TEXT	SEGMENT PARA USE32 PUBLIC 'CODE'
_TEXT	ENDS
;	COMDAT ??$_Maklocchr@_W@std@@YA_WDPA_WABU_Cvtvec@@@Z
_TEXT	SEGMENT PARA USE32 PUBLIC 'CODE'
_TEXT	ENDS
;	COMDAT ??$_Maklocstr@_W@std@@YAPA_WPBDPA_WABU_Cvtvec@@@Z
_TEXT	SEGMENT PARA USE32 PUBLIC 'CODE'
_TEXT	ENDS
;	COMDAT ??$_Maklocchr@D@std@@YADDPADABU_Cvtvec@@@Z
_TEXT	SEGMENT PARA USE32 PUBLIC 'CODE'
_TEXT	ENDS
;	COMDAT ??_C@_04LOAJBDKD@true?$AA@
CONST	SEGMENT DWORD USE32 PUBLIC 'CONST'
CONST	ENDS
;	COMDAT ??_C@_05LAPONLG@false?$AA@
CONST	SEGMENT DWORD USE32 PUBLIC 'CONST'
CONST	ENDS
;	COMDAT _wmemcpy
_TEXT	SEGMENT PARA USE32 PUBLIC 'CODE'
_TEXT	ENDS
;	COMDAT ?max_size@?$allocator@_W@std@@QBEIXZ
_TEXT	SEGMENT PARA USE32 PUBLIC 'CODE'
_TEXT	ENDS
;	COMDAT ?allocate@?$allocator@_W@std@@QAEPA_WI@Z
_TEXT	SEGMENT PARA USE32 PUBLIC 'CODE'
_TEXT	ENDS
;	COMDAT ??$_Allocate@_W@std@@YAPA_WIPA_W@Z
_TEXT	SEGMENT PARA USE32 PUBLIC 'CODE'
_TEXT	ENDS
;	COMDAT ?IsShared@CStringData@ATL@@QBE_NXZ
_TEXT	SEGMENT PARA USE32 PUBLIC 'CODE'
_TEXT	ENDS
;	COMDAT ?data@CStringData@ATL@@QAEPAXXZ
_TEXT	SEGMENT PARA USE32 PUBLIC 'CODE'
_TEXT	ENDS
;	COMDAT ?Release@CStringData@ATL@@QAEXXZ
_TEXT	SEGMENT PARA USE32 PUBLIC 'CODE'
_TEXT	ENDS
;	COMDAT ?AtlThrow@ATL@@YGXJ@Z
_TEXT	SEGMENT PARA USE32 PUBLIC 'CODE'
_TEXT	ENDS
;	COMDAT ??_C@_01GFHCPBMG@C?$AA@
CONST	SEGMENT DWORD USE32 PUBLIC 'CONST'
CONST	ENDS
;	COMDAT ?max_size@?$allocator@D@std@@QBEIXZ
_TEXT	SEGMENT PARA USE32 PUBLIC 'CODE'
_TEXT	ENDS
;	COMDAT ?allocate@?$allocator@D@std@@QAEPADI@Z
_TEXT	SEGMENT PARA USE32 PUBLIC 'CODE'
_TEXT	ENDS
;	COMDAT ??$_Allocate@D@std@@YAPADIPAD@Z
_TEXT	SEGMENT PARA USE32 PUBLIC 'CODE'
_TEXT	ENDS
;	COMDAT ?deallocate@?$allocator@D@std@@QAEXPADI@Z
_TEXT	SEGMENT PARA USE32 PUBLIC 'CODE'
_TEXT	ENDS
;	COMDAT ?_Peek@?$istreambuf_iterator@_WU?$char_traits@_W@std@@@std@@AAE_WXZ
_TEXT	SEGMENT PARA USE32 PUBLIC 'CODE'
_TEXT	ENDS
;	COMDAT ?_Peek@?$istreambuf_iterator@DU?$char_traits@D@std@@@std@@AAEDXZ
_TEXT	SEGMENT PARA USE32 PUBLIC 'CODE'
_TEXT	ENDS
;	COMDAT ??$use_facet@V?$ctype@_W@std@@@std@@YAABV?$ctype@_W@0@ABVlocale@0@@Z
_TEXT	SEGMENT PARA USE32 PUBLIC 'CODE'
_TEXT	ENDS
;	COMDAT ??_S?$ctype@_W@std@@6B@
CONST	SEGMENT DWORD USE32 PUBLIC 'CONST'
CONST	ENDS
;	COMDAT ??_R4?$ctype@_W@std@@6B@
rdata$r	SEGMENT DWORD USE32 PUBLIC 'CONST'
rdata$r	ENDS
;	COMDAT ??_R0?AV?$ctype@_W@std@@@8
_DATA	SEGMENT DWORD USE32 PUBLIC 'DATA'
_DATA	ENDS
;	COMDAT ??_R3?$ctype@_W@std@@8
rdata$r	SEGMENT DWORD USE32 PUBLIC 'CONST'
rdata$r	ENDS
;	COMDAT ??_R2?$ctype@_W@std@@8
rdata$r	SEGMENT DWORD USE32 PUBLIC 'CONST'
rdata$r	ENDS
;	COMDAT ??_R1A@?0A@A@?$ctype@_W@std@@8
rdata$r	SEGMENT DWORD USE32 PUBLIC 'CONST'
rdata$r	ENDS
;	COMDAT ??_R1A@?0A@A@ctype_base@std@@8
rdata$r	SEGMENT DWORD USE32 PUBLIC 'CONST'
rdata$r	ENDS
;	COMDAT ??_R0?AUctype_base@std@@@8
_DATA	SEGMENT DWORD USE32 PUBLIC 'DATA'
_DATA	ENDS
;	COMDAT ??_G?$ctype@_W@std@@MAEPAXI@Z
_TEXT	SEGMENT PARA USE32 PUBLIC 'CODE'
_TEXT	ENDS
;	COMDAT ??_C@_08EPJLHIJG@bad?5cast?$AA@
CONST	SEGMENT DWORD USE32 PUBLIC 'CONST'
CONST	ENDS
;	COMDAT __TI2?AVbad_cast@@
xdata$x	SEGMENT DWORD USE32 PUBLIC 'CONST'
xdata$x	ENDS
;	COMDAT __CTA2?AVbad_cast@@
xdata$x	SEGMENT DWORD USE32 PUBLIC 'CONST'
xdata$x	ENDS
;	COMDAT __CT??_R0?AVbad_cast@@@8??0bad_cast@@QAE@ABV0@@Z12
xdata$x	SEGMENT DWORD USE32 PUBLIC 'CONST'
xdata$x	ENDS
;	COMDAT ??_R0?AVbad_cast@@@8
_DATA	SEGMENT DWORD USE32 PUBLIC 'DATA'
_DATA	ENDS
;	COMDAT ??$use_facet@V?$ctype@D@std@@@std@@YAABV?$ctype@D@0@ABVlocale@0@@Z
_TEXT	SEGMENT PARA USE32 PUBLIC 'CODE'
_TEXT	ENDS
;	COMDAT ??_S?$ctype@D@std@@6B@
CONST	SEGMENT DWORD USE32 PUBLIC 'CONST'
CONST	ENDS
;	COMDAT ??_R4?$ctype@D@std@@6B@
rdata$r	SEGMENT DWORD USE32 PUBLIC 'CONST'
rdata$r	ENDS
;	COMDAT ??_R0?AV?$ctype@D@std@@@8
_DATA	SEGMENT DWORD USE32 PUBLIC 'DATA'
_DATA	ENDS
;	COMDAT ??_R3?$ctype@D@std@@8
rdata$r	SEGMENT DWORD USE32 PUBLIC 'CONST'
rdata$r	ENDS
;	COMDAT ??_R2?$ctype@D@std@@8
rdata$r	SEGMENT DWORD USE32 PUBLIC 'CONST'
rdata$r	ENDS
;	COMDAT ??_R1A@?0A@A@?$ctype@D@std@@8
rdata$r	SEGMENT DWORD USE32 PUBLIC 'CONST'
rdata$r	ENDS
;	COMDAT ??_G?$ctype@D@std@@MAEPAXI@Z
_TEXT	SEGMENT PARA USE32 PUBLIC 'CODE'
_TEXT	ENDS
;	COMDAT ??_S?$numpunct@_W@std@@6B@
CONST	SEGMENT DWORD USE32 PUBLIC 'CONST'
CONST	ENDS
;	COMDAT ??_S?$numpunct@D@std@@6B@
CONST	SEGMENT DWORD USE32 PUBLIC 'CONST'
CONST	ENDS
;	COMDAT _wmemmove
_TEXT	SEGMENT PARA USE32 PUBLIC 'CODE'
_TEXT	ENDS
;	COMDAT ?deallocate@?$allocator@_W@std@@QAEXPA_WI@Z
_TEXT	SEGMENT PARA USE32 PUBLIC 'CODE'
_TEXT	ENDS
;	COMDAT ??0?$allocator@_W@std@@QAE@ABV01@@Z
_TEXT	SEGMENT PARA USE32 PUBLIC 'CODE'
_TEXT	ENDS
;	COMDAT ?OnRButtonDown@CWnd@@IAEXIVCPoint@@@Z
_TEXT	SEGMENT PARA USE32 PUBLIC 'CODE'
_TEXT	ENDS
;	COMDAT ?OnKillFocus@CWnd@@IAEXPAV1@@Z
_TEXT	SEGMENT PARA USE32 PUBLIC 'CODE'
_TEXT	ENDS
;	COMDAT ?OnShowWindow@CWnd@@IAEXHI@Z
_TEXT	SEGMENT PARA USE32 PUBLIC 'CODE'
_TEXT	ENDS
;	COMDAT ?OnRButtonUp@CWnd@@IAEXIVCPoint@@@Z
_TEXT	SEGMENT PARA USE32 PUBLIC 'CODE'
_TEXT	ENDS
;	COMDAT ?OnLButtonUp@CWnd@@IAEXIVCPoint@@@Z
_TEXT	SEGMENT PARA USE32 PUBLIC 'CODE'
_TEXT	ENDS
;	COMDAT ?EndDrag@CImageList@@SGXXZ
_TEXT	SEGMENT PARA USE32 PUBLIC 'CODE'
_TEXT	ENDS
;	COMDAT ?DragLeave@CImageList@@SGHPAVCWnd@@@Z
_TEXT	SEGMENT PARA USE32 PUBLIC 'CODE'
_TEXT	ENDS
;	COMDAT ?GetSafeHwnd@CWnd@@QBEPAUHWND__@@XZ
_TEXT	SEGMENT PARA USE32 PUBLIC 'CODE'
_TEXT	ENDS
;	COMDAT ?SetRect@CRect@@QAEXHHHH@Z
_TEXT	SEGMENT PARA USE32 PUBLIC 'CODE'
_TEXT	ENDS
;	COMDAT ?OnLButtonDown@CWnd@@IAEXIVCPoint@@@Z
_TEXT	SEGMENT PARA USE32 PUBLIC 'CODE'
_TEXT	ENDS
;	COMDAT ?SetCapture@CWnd@@QAEPAV1@XZ
_TEXT	SEGMENT PARA USE32 PUBLIC 'CODE'
_TEXT	ENDS
;	COMDAT ?OnMouseMove@CWnd@@IAEXIVCPoint@@@Z
_TEXT	SEGMENT PARA USE32 PUBLIC 'CODE'
_TEXT	ENDS
;	COMDAT ?g_idrag@?P@??OnMouseMove@CLocalMusicCoverList@@QAEXIVCPoint@@@Z@4JA
_DATA	SEGMENT DWORD USE32 PUBLIC 'DATA'
_DATA	ENDS
;	COMDAT ?KillTimer@CWnd@@QAEHI@Z
_TEXT	SEGMENT PARA USE32 PUBLIC 'CODE'
_TEXT	ENDS
;	COMDAT ?OnMouseWheel@CWnd@@IAEHIFVCPoint@@@Z
_TEXT	SEGMENT PARA USE32 PUBLIC 'CODE'
_TEXT	ENDS
;	COMDAT ?OnTimer@CWnd@@IAEXI@Z
_TEXT	SEGMENT PARA USE32 PUBLIC 'CODE'
_TEXT	ENDS
;	COMDAT ?PtInRect@CRect@@QBEHUtagPOINT@@@Z
_TEXT	SEGMENT PARA USE32 PUBLIC 'CODE'
_TEXT	ENDS
;	COMDAT ?DrawTextA@CDC@@QAEHABV?$CStringT@DV?$StrTraitMFC_DLL@DV?$ChTraitsCRT@D@ATL@@@@@ATL@@PAUtagRECT@@I@Z
_TEXT	SEGMENT PARA USE32 PUBLIC 'CODE'
_TEXT	ENDS
;	COMDAT ??BCGdiObject@@QBEPAXXZ
_TEXT	SEGMENT PARA USE32 PUBLIC 'CODE'
_TEXT	ENDS
;	COMDAT ?SelectObject@CDC@@QAEPAXPAX@Z
_TEXT	SEGMENT PARA USE32 PUBLIC 'CODE'
_TEXT	ENDS
;	COMDAT ?GetBkMode@CDC@@QBEHXZ
_TEXT	SEGMENT PARA USE32 PUBLIC 'CODE'
_TEXT	ENDS
;	COMDAT ?GetTextColor@CDC@@QBEKXZ
_TEXT	SEGMENT PARA USE32 PUBLIC 'CODE'
_TEXT	ENDS
;	COMDAT ?GetCurrentFont@CDC@@QBEPAVCFont@@XZ
_TEXT	SEGMENT PARA USE32 PUBLIC 'CODE'
_TEXT	ENDS
;	COMDAT ?FromHandle@CFont@@SGPAV1@PAUHFONT__@@@Z
_TEXT	SEGMENT PARA USE32 PUBLIC 'CODE'
_TEXT	ENDS
;	COMDAT ?DrawPath@Graphics@Gdiplus@@QAE?AW4Status@2@PBVPen@2@PBVGraphicsPath@2@@Z
_TEXT	SEGMENT PARA USE32 PUBLIC 'CODE'
_TEXT	ENDS
;	COMDAT ?SetStatus@Graphics@Gdiplus@@IBE?AW4Status@2@W432@@Z
_TEXT	SEGMENT PARA USE32 PUBLIC 'CODE'
_TEXT	ENDS
;	COMDAT ??0Point@Gdiplus@@QAE@HH@Z
_TEXT	SEGMENT PARA USE32 PUBLIC 'CODE'
_TEXT	ENDS
;	COMDAT ??1Pen@Gdiplus@@QAE@XZ
_TEXT	SEGMENT PARA USE32 PUBLIC 'CODE'
_TEXT	ENDS
;	COMDAT ??0Pen@Gdiplus@@QAE@ABVColor@1@M@Z
_TEXT	SEGMENT PARA USE32 PUBLIC 'CODE'
_TEXT	ENDS
;	COMDAT ?GetValue@Color@Gdiplus@@QBEKXZ
_TEXT	SEGMENT PARA USE32 PUBLIC 'CODE'
_TEXT	ENDS
;	COMDAT ?SetFromCOLORREF@Color@Gdiplus@@QAEXK@Z
_TEXT	SEGMENT PARA USE32 PUBLIC 'CODE'
_TEXT	ENDS
;	COMDAT ?MakeARGB@Color@Gdiplus@@SAKEEEE@Z
_TEXT	SEGMENT PARA USE32 PUBLIC 'CODE'
_TEXT	ENDS
;	COMDAT ??0Color@Gdiplus@@QAE@XZ
_TEXT	SEGMENT PARA USE32 PUBLIC 'CODE'
_TEXT	ENDS
;	COMDAT ?SetSmoothingMode@Graphics@Gdiplus@@QAE?AW4Status@2@W4SmoothingMode@2@@Z
_TEXT	SEGMENT PARA USE32 PUBLIC 'CODE'
_TEXT	ENDS
;	COMDAT ?DrawImage@Graphics@Gdiplus@@QAE?AW4Status@2@PAVImage@2@ABVRect@2@@Z
_TEXT	SEGMENT PARA USE32 PUBLIC 'CODE'
_TEXT	ENDS
;	COMDAT ?DrawImage@Graphics@Gdiplus@@QAE?AW4Status@2@PAVImage@2@HHHH@Z
_TEXT	SEGMENT PARA USE32 PUBLIC 'CODE'
_TEXT	ENDS
;	COMDAT ??0Rect@Gdiplus@@QAE@HHHH@Z
_TEXT	SEGMENT PARA USE32 PUBLIC 'CODE'
_TEXT	ENDS
;	COMDAT ??1Graphics@Gdiplus@@QAE@XZ
_TEXT	SEGMENT PARA USE32 PUBLIC 'CODE'
_TEXT	ENDS
;	COMDAT ??0Graphics@Gdiplus@@QAE@PAUHDC__@@@Z
_TEXT	SEGMENT PARA USE32 PUBLIC 'CODE'
_TEXT	ENDS
;	COMDAT ?SetNativeGraphics@Graphics@Gdiplus@@IAEXPAVGpGraphics@2@@Z
_TEXT	SEGMENT PARA USE32 PUBLIC 'CODE'
_TEXT	ENDS
;	COMDAT ?AddLine@GraphicsPath@Gdiplus@@QAE?AW4Status@2@HHHH@Z
_TEXT	SEGMENT PARA USE32 PUBLIC 'CODE'
_TEXT	ENDS
;	COMDAT ?SetStatus@GraphicsPath@Gdiplus@@IBE?AW4Status@2@W432@@Z
_TEXT	SEGMENT PARA USE32 PUBLIC 'CODE'
_TEXT	ENDS
;	COMDAT ?AddArc@GraphicsPath@Gdiplus@@QAE?AW4Status@2@HHHHMM@Z
_TEXT	SEGMENT PARA USE32 PUBLIC 'CODE'
_TEXT	ENDS
;	COMDAT ?Clone@GraphicsPath@Gdiplus@@QBEPAV12@XZ
_TEXT	SEGMENT PARA USE32 PUBLIC 'CODE'
_TEXT	ENDS
;	COMDAT ??2GdiplusBase@Gdiplus@@SAPAXI@Z
_TEXT	SEGMENT PARA USE32 PUBLIC 'CODE'
_TEXT	ENDS
;	COMDAT ??3GdiplusBase@Gdiplus@@SAXPAX@Z
_TEXT	SEGMENT PARA USE32 PUBLIC 'CODE'
_TEXT	ENDS
;	COMDAT ??0GraphicsPath@Gdiplus@@IAE@PAVGpPath@1@@Z
_TEXT	SEGMENT PARA USE32 PUBLIC 'CODE'
_TEXT	ENDS
;	COMDAT ?SetNativePath@GraphicsPath@Gdiplus@@IAEXPAVGpPath@2@@Z
_TEXT	SEGMENT PARA USE32 PUBLIC 'CODE'
_TEXT	ENDS
;	COMDAT ??1GraphicsPath@Gdiplus@@QAE@XZ
_TEXT	SEGMENT PARA USE32 PUBLIC 'CODE'
_TEXT	ENDS
;	COMDAT ??0GraphicsPath@Gdiplus@@QAE@W4FillMode@1@@Z
_TEXT	SEGMENT PARA USE32 PUBLIC 'CODE'
_TEXT	ENDS
;	COMDAT ?CreateCompatibleBitmap@CBitmap@@QAEHPAVCDC@@HH@Z
_TEXT	SEGMENT PARA USE32 PUBLIC 'CODE'
_TEXT	ENDS
;	COMDAT ?GetSafeHandle@CGdiObject@@QBEPAXXZ
_TEXT	SEGMENT PARA USE32 PUBLIC 'CODE'
_TEXT	ENDS
;	COMDAT ?SelectObject@CDC@@QAEPAVCBitmap@@PAV2@@Z
_TEXT	SEGMENT PARA USE32 PUBLIC 'CODE'
_TEXT	ENDS
;	COMDAT ?GetSafeHdc@CDC@@QBEPAUHDC__@@XZ
_TEXT	SEGMENT PARA USE32 PUBLIC 'CODE'
_TEXT	ENDS
;	COMDAT ??8CRect@@QBEHABUtagRECT@@@Z
_TEXT	SEGMENT PARA USE32 PUBLIC 'CODE'
_TEXT	ENDS
;	COMDAT ?IsRectEmpty@CRect@@QBEHXZ
_TEXT	SEGMENT PARA USE32 PUBLIC 'CODE'
_TEXT	ENDS
;	COMDAT ?IsRectNull@CRect@@QBEHXZ
_TEXT	SEGMENT PARA USE32 PUBLIC 'CODE'
_TEXT	ENDS
;	COMDAT ?RedrawWindow@CWnd@@QAEHPBUtagRECT@@PAVCRgn@@I@Z
_TEXT	SEGMENT PARA USE32 PUBLIC 'CODE'
_TEXT	ENDS
;	COMDAT ?AlphaBlend@CDC@@QAEHHHHHPAV1@HHHHU_BLENDFUNCTION@@@Z
_TEXT	SEGMENT PARA USE32 PUBLIC 'CODE'
_TEXT	ENDS
;	COMDAT ?IntersectRect@CRect@@QAEHPBUtagRECT@@0@Z
_TEXT	SEGMENT PARA USE32 PUBLIC 'CODE'
_TEXT	ENDS
;	COMDAT ?Rectangle@CDC@@QAEHPBUtagRECT@@@Z
_TEXT	SEGMENT PARA USE32 PUBLIC 'CODE'
_TEXT	ENDS
;	COMDAT ??1CPen@@UAE@XZ
_TEXT	SEGMENT PARA USE32 PUBLIC 'CODE'
_TEXT	ENDS
;	COMDAT ??_7CPen@@6B@
CONST	SEGMENT DWORD USE32 PUBLIC 'CONST'
CONST	ENDS
;	COMDAT ??_R4CPen@@6B@
rdata$r	SEGMENT DWORD USE32 PUBLIC 'CONST'
rdata$r	ENDS
;	COMDAT ??_R0?AVCPen@@@8
_DATA	SEGMENT DWORD USE32 PUBLIC 'DATA'
_DATA	ENDS
;	COMDAT ??_R3CPen@@8
rdata$r	SEGMENT DWORD USE32 PUBLIC 'CONST'
rdata$r	ENDS
;	COMDAT ??_R2CPen@@8
rdata$r	SEGMENT DWORD USE32 PUBLIC 'CONST'
rdata$r	ENDS
;	COMDAT ??_R1A@?0A@A@CPen@@8
rdata$r	SEGMENT DWORD USE32 PUBLIC 'CONST'
rdata$r	ENDS
;	COMDAT ??_R1A@?0A@A@CGdiObject@@8
rdata$r	SEGMENT DWORD USE32 PUBLIC 'CONST'
rdata$r	ENDS
;	COMDAT ??_R0?AVCGdiObject@@@8
_DATA	SEGMENT DWORD USE32 PUBLIC 'DATA'
_DATA	ENDS
;	COMDAT ??_GCPen@@UAEPAXI@Z
_TEXT	SEGMENT PARA USE32 PUBLIC 'CODE'
_TEXT	ENDS
;	COMDAT ??1CGdiObject@@UAE@XZ
_TEXT	SEGMENT PARA USE32 PUBLIC 'CODE'
_TEXT	ENDS
;	COMDAT ??_7CGdiObject@@6B@
CONST	SEGMENT DWORD USE32 PUBLIC 'CONST'
CONST	ENDS
;	COMDAT ??_R4CGdiObject@@6B@
rdata$r	SEGMENT DWORD USE32 PUBLIC 'CONST'
rdata$r	ENDS
;	COMDAT ??_R3CGdiObject@@8
rdata$r	SEGMENT DWORD USE32 PUBLIC 'CONST'
rdata$r	ENDS
;	COMDAT ??_R2CGdiObject@@8
rdata$r	SEGMENT DWORD USE32 PUBLIC 'CONST'
rdata$r	ENDS
;	COMDAT ??_GCGdiObject@@UAEPAXI@Z
_TEXT	SEGMENT PARA USE32 PUBLIC 'CODE'
_TEXT	ENDS
;	COMDAT ??1CObject@@UAE@XZ
_TEXT	SEGMENT PARA USE32 PUBLIC 'CODE'
_TEXT	ENDS
;	COMDAT ?CreateStockObject@CGdiObject@@QAEHH@Z
_TEXT	SEGMENT PARA USE32 PUBLIC 'CODE'
_TEXT	ENDS
;	COMDAT ??1CBrush@@UAE@XZ
_TEXT	SEGMENT PARA USE32 PUBLIC 'CODE'
_TEXT	ENDS
;	COMDAT ??_7CBrush@@6B@
CONST	SEGMENT DWORD USE32 PUBLIC 'CONST'
CONST	ENDS
;	COMDAT ??_R4CBrush@@6B@
rdata$r	SEGMENT DWORD USE32 PUBLIC 'CONST'
rdata$r	ENDS
;	COMDAT ??_R0?AVCBrush@@@8
_DATA	SEGMENT DWORD USE32 PUBLIC 'DATA'
_DATA	ENDS
;	COMDAT ??_R3CBrush@@8
rdata$r	SEGMENT DWORD USE32 PUBLIC 'CONST'
rdata$r	ENDS
;	COMDAT ??_R2CBrush@@8
rdata$r	SEGMENT DWORD USE32 PUBLIC 'CONST'
rdata$r	ENDS
;	COMDAT ??_R1A@?0A@A@CBrush@@8
rdata$r	SEGMENT DWORD USE32 PUBLIC 'CONST'
rdata$r	ENDS
;	COMDAT ??_GCBrush@@UAEPAXI@Z
_TEXT	SEGMENT PARA USE32 PUBLIC 'CODE'
_TEXT	ENDS
;	COMDAT ??0CBrush@@QAE@XZ
_TEXT	SEGMENT PARA USE32 PUBLIC 'CODE'
_TEXT	ENDS
;	COMDAT ??0CGdiObject@@QAE@XZ
_TEXT	SEGMENT PARA USE32 PUBLIC 'CODE'
_TEXT	ENDS
;	COMDAT ??0CObject@@IAE@XZ
_TEXT	SEGMENT PARA USE32 PUBLIC 'CODE'
_TEXT	ENDS
;	COMDAT ?ScreenToClient@CWnd@@QBEXPAUtagPOINT@@@Z
_TEXT	SEGMENT PARA USE32 PUBLIC 'CODE'
_TEXT	ENDS
;	COMDAT ??0CPoint@@QAE@XZ
_TEXT	SEGMENT PARA USE32 PUBLIC 'CODE'
_TEXT	ENDS
;	COMDAT ?IsLocked@CStringData@ATL@@QBE_NXZ
_TEXT	SEGMENT PARA USE32 PUBLIC 'CODE'
_TEXT	ENDS
;	COMDAT ?AddRef@CStringData@ATL@@QAEXXZ
_TEXT	SEGMENT PARA USE32 PUBLIC 'CODE'
_TEXT	ENDS
;	COMDAT ??0?$allocator@D@std@@QAE@ABV01@@Z
_TEXT	SEGMENT PARA USE32 PUBLIC 'CODE'
_TEXT	ENDS
;	COMDAT ?SetPoint@CPoint@@QAEXHH@Z
_TEXT	SEGMENT PARA USE32 PUBLIC 'CODE'
_TEXT	ENDS
;	COMDAT ?AfxGetApp@@YGPAVCWinApp@@XZ
_TEXT	SEGMENT PARA USE32 PUBLIC 'CODE'
_TEXT	ENDS
;	COMDAT ?LoadStandardCursor@CWinApp@@QBEPAUHICON__@@PBD@Z
_TEXT	SEGMENT PARA USE32 PUBLIC 'CODE'
_TEXT	ENDS
;	COMDAT ?OnSize@CWnd@@IAEXIHH@Z
_TEXT	SEGMENT PARA USE32 PUBLIC 'CODE'
_TEXT	ENDS
;	COMDAT ?BitBlt@CDC@@QAEHHHHHPAV1@HHK@Z
_TEXT	SEGMENT PARA USE32 PUBLIC 'CODE'
_TEXT	ENDS
;	COMDAT ?Width@CRect@@QBEHXZ
_TEXT	SEGMENT PARA USE32 PUBLIC 'CODE'
_TEXT	ENDS
;	COMDAT ??0CSize@@QAE@HH@Z
_TEXT	SEGMENT PARA USE32 PUBLIC 'CODE'
_TEXT	ENDS
;	COMDAT ?GetClientRect@CWnd@@QBEXPAUtagRECT@@@Z
_TEXT	SEGMENT PARA USE32 PUBLIC 'CODE'
_TEXT	ENDS
;	COMDAT ??0CRect@@QAE@XZ
_TEXT	SEGMENT PARA USE32 PUBLIC 'CODE'
_TEXT	ENDS
;	COMDAT ?Height@CRect@@QBEHXZ
_TEXT	SEGMENT PARA USE32 PUBLIC 'CODE'
_TEXT	ENDS
;	COMDAT ?OnEraseBkgnd@CWnd@@IAEHPAVCDC@@@Z
_TEXT	SEGMENT PARA USE32 PUBLIC 'CODE'
_TEXT	ENDS
;	COMDAT ?Clone@Image@Gdiplus@@UAEPAV12@XZ
_TEXT	SEGMENT PARA USE32 PUBLIC 'CODE'
_TEXT	ENDS
;	COMDAT ?SetStatus@Image@Gdiplus@@IBE?AW4Status@2@W432@@Z
_TEXT	SEGMENT PARA USE32 PUBLIC 'CODE'
_TEXT	ENDS
;	COMDAT ??0Image@Gdiplus@@IAE@PAVGpImage@1@W4Status@1@@Z
_TEXT	SEGMENT PARA USE32 PUBLIC 'CODE'
_TEXT	ENDS
;	COMDAT ??_7Image@Gdiplus@@6B@
CONST	SEGMENT DWORD USE32 PUBLIC 'CONST'
CONST	ENDS
;	COMDAT ??_R4Image@Gdiplus@@6B@
rdata$r	SEGMENT DWORD USE32 PUBLIC 'CONST'
rdata$r	ENDS
;	COMDAT ??_R0?AVImage@Gdiplus@@@8
_DATA	SEGMENT DWORD USE32 PUBLIC 'DATA'
_DATA	ENDS
;	COMDAT ??_R3Image@Gdiplus@@8
rdata$r	SEGMENT DWORD USE32 PUBLIC 'CONST'
rdata$r	ENDS
;	COMDAT ??_R2Image@Gdiplus@@8
rdata$r	SEGMENT DWORD USE32 PUBLIC 'CONST'
rdata$r	ENDS
;	COMDAT ??_R1A@?0A@A@Image@Gdiplus@@8
rdata$r	SEGMENT DWORD USE32 PUBLIC 'CONST'
rdata$r	ENDS
;	COMDAT ??_R13?0A@A@GdiplusBase@Gdiplus@@8
rdata$r	SEGMENT DWORD USE32 PUBLIC 'CONST'
rdata$r	ENDS
;	COMDAT ??_R0?AVGdiplusBase@Gdiplus@@@8
_DATA	SEGMENT DWORD USE32 PUBLIC 'DATA'
_DATA	ENDS
;	COMDAT ??_GImage@Gdiplus@@UAEPAXI@Z
_TEXT	SEGMENT PARA USE32 PUBLIC 'CODE'
_TEXT	ENDS
;	COMDAT ?SetNativeImage@Image@Gdiplus@@IAEXPAVGpImage@2@@Z
_TEXT	SEGMENT PARA USE32 PUBLIC 'CODE'
_TEXT	ENDS
;	COMDAT ??1Image@Gdiplus@@UAE@XZ
_TEXT	SEGMENT PARA USE32 PUBLIC 'CODE'
_TEXT	ENDS
;	COMDAT ?AtlA2WHelper@@YGPA_WPA_WPBDHI@Z
_TEXT	SEGMENT PARA USE32 PUBLIC 'CODE'
_TEXT	ENDS
;	COMDAT ??0Image@Gdiplus@@QAE@PB_WH@Z
_TEXT	SEGMENT PARA USE32 PUBLIC 'CODE'
_TEXT	ENDS
;	COMDAT ?_AtlGetConversionACP@ATL@@YGIXZ
_TEXT	SEGMENT PARA USE32 PUBLIC 'CODE'
_TEXT	ENDS
;	COMDAT ?g_pfnGetThreadACP@ATL@@3P6GIXZA
_DATA	SEGMENT DWORD USE32 PUBLIC 'DATA'
_DATA	ENDS
;	COMDAT ?_AtlGetThreadACPThunk@ATL@@YGIXZ
_TEXT	SEGMENT PARA USE32 PUBLIC 'CODE'
_TEXT	ENDS
;	COMDAT ?_AtlGetThreadACPReal@ATL@@YGIXZ
_TEXT	SEGMENT PARA USE32 PUBLIC 'CODE'
_TEXT	ENDS
;	COMDAT ?_AtlGetThreadACPFake@ATL@@YGIXZ
_TEXT	SEGMENT PARA USE32 PUBLIC 'CODE'
_TEXT	ENDS
;	COMDAT ?InterlockedExchangePointer@@YGPAXPAPAXPAX@Z
_TEXT	SEGMENT PARA USE32 PUBLIC 'CODE'
_TEXT	ENDS
;	COMDAT ?GetDefaultManager@?$StrTraitMFC_DLL@DV?$ChTraitsCRT@D@ATL@@@@SAPAUIAtlStringMgr@ATL@@XZ
_TEXT	SEGMENT PARA USE32 PUBLIC 'CODE'
_TEXT	ENDS
;	COMDAT ?FindStringResourceInstance@?$StrTraitMFC_DLL@DV?$ChTraitsCRT@D@ATL@@@@SAPAUHINSTANCE__@@I@Z
_TEXT	SEGMENT PARA USE32 PUBLIC 'CODE'
_TEXT	ENDS
;	COMDAT ?AtlGetStringResourceImage@ATL@@YAPBUATLSTRINGRESOURCEIMAGE@1@PAUHINSTANCE__@@I@Z
_TEXT	SEGMENT PARA USE32 PUBLIC 'CODE'
_TEXT	ENDS
;	COMDAT ?_AtlGetStringResourceImage@ATL@@YAPBUATLSTRINGRESOURCEIMAGE@1@PAUHINSTANCE__@@PAUHRSRC__@@I@Z
_TEXT	SEGMENT PARA USE32 PUBLIC 'CODE'
_TEXT	ENDS
;	COMDAT ?GetBaseTypeLength@?$ChTraitsCRT@D@ATL@@SAHPB_WH@Z
_TEXT	SEGMENT PARA USE32 PUBLIC 'CODE'
_TEXT	ENDS
;	COMDAT ?ConvertToBaseType@?$ChTraitsCRT@D@ATL@@SAXPADHPB_WH@Z
_TEXT	SEGMENT PARA USE32 PUBLIC 'CODE'
_TEXT	ENDS
;	COMDAT ?SetTimer@CWnd@@QAEIIIP6GXPAUHWND__@@IIK@Z@Z
_TEXT	SEGMENT PARA USE32 PUBLIC 'CODE'
_TEXT	ENDS
;	COMDAT ?CreateFontA@CFont@@QAEHHHHHHEEEEEEEEPBD@Z
_TEXT	SEGMENT PARA USE32 PUBLIC 'CODE'
_TEXT	ENDS
;	COMDAT ?CreateCompatibleDC@CDC@@QAEHPAV1@@Z
_TEXT	SEGMENT PARA USE32 PUBLIC 'CODE'
_TEXT	ENDS
;	COMDAT ?OnCreate@CWnd@@IAEHPAUtagCREATESTRUCTA@@@Z
_TEXT	SEGMENT PARA USE32 PUBLIC 'CODE'
_TEXT	ENDS
;	COMDAT ?_messageEntries@CLocalMusicCoverList@@0QBUAFX_MSGMAP_ENTRY@@B
CONST	SEGMENT DWORD USE32 PUBLIC 'CONST'
CONST	ENDS
;	COMDAT ?messageMap@CLocalMusicCoverList@@1UAFX_MSGMAP@@B
CONST	SEGMENT DWORD USE32 PUBLIC 'CONST'
CONST	ENDS
;	COMDAT ??0?$allocator@D@std@@QAE@XZ
_TEXT	SEGMENT PARA USE32 PUBLIC 'CODE'
_TEXT	ENDS
;	COMDAT ??2CObject@@SGPAXI@Z
_TEXT	SEGMENT PARA USE32 PUBLIC 'CODE'
_TEXT	ENDS
;	COMDAT ??0CPoint@@QAE@HH@Z
_TEXT	SEGMENT PARA USE32 PUBLIC 'CODE'
_TEXT	ENDS
;	COMDAT ??0CRect@@QAE@HHHH@Z
_TEXT	SEGMENT PARA USE32 PUBLIC 'CODE'
_TEXT	ENDS
;	COMDAT ??1CFont@@UAE@XZ
_TEXT	SEGMENT PARA USE32 PUBLIC 'CODE'
_TEXT	ENDS
;	COMDAT ??_7CFont@@6B@
CONST	SEGMENT DWORD USE32 PUBLIC 'CONST'
CONST	ENDS
;	COMDAT ??_R4CFont@@6B@
rdata$r	SEGMENT DWORD USE32 PUBLIC 'CONST'
rdata$r	ENDS
;	COMDAT ??_R0?AVCFont@@@8
_DATA	SEGMENT DWORD USE32 PUBLIC 'DATA'
_DATA	ENDS
;	COMDAT ??_R3CFont@@8
rdata$r	SEGMENT DWORD USE32 PUBLIC 'CONST'
rdata$r	ENDS
;	COMDAT ??_R2CFont@@8
rdata$r	SEGMENT DWORD USE32 PUBLIC 'CONST'
rdata$r	ENDS
;	COMDAT ??_R1A@?0A@A@CFont@@8
rdata$r	SEGMENT DWORD USE32 PUBLIC 'CONST'
rdata$r	ENDS
;	COMDAT ??_GCFont@@UAEPAXI@Z
_TEXT	SEGMENT PARA USE32 PUBLIC 'CODE'
_TEXT	ENDS
;	COMDAT ??0CFont@@QAE@XZ
_TEXT	SEGMENT PARA USE32 PUBLIC 'CODE'
_TEXT	ENDS
;	COMDAT ??1CBitmap@@UAE@XZ
_TEXT	SEGMENT PARA USE32 PUBLIC 'CODE'
_TEXT	ENDS
;	COMDAT ??_7CBitmap@@6B@
CONST	SEGMENT DWORD USE32 PUBLIC 'CONST'
CONST	ENDS
;	COMDAT ??_R4CBitmap@@6B@
rdata$r	SEGMENT DWORD USE32 PUBLIC 'CONST'
rdata$r	ENDS
;	COMDAT ??_R0?AVCBitmap@@@8
_DATA	SEGMENT DWORD USE32 PUBLIC 'DATA'
_DATA	ENDS
;	COMDAT ??_R3CBitmap@@8
rdata$r	SEGMENT DWORD USE32 PUBLIC 'CONST'
rdata$r	ENDS
;	COMDAT ??_R2CBitmap@@8
rdata$r	SEGMENT DWORD USE32 PUBLIC 'CONST'
rdata$r	ENDS
;	COMDAT ??_R1A@?0A@A@CBitmap@@8
rdata$r	SEGMENT DWORD USE32 PUBLIC 'CONST'
rdata$r	ENDS
;	COMDAT ??_GCBitmap@@UAEPAXI@Z
_TEXT	SEGMENT PARA USE32 PUBLIC 'CODE'
_TEXT	ENDS
;	COMDAT ??0CBitmap@@QAE@XZ
_TEXT	SEGMENT PARA USE32 PUBLIC 'CODE'
_TEXT	ENDS
;	COMDAT ??_7CLocalMusicCoverList@@6B@
CONST	SEGMENT DWORD USE32 PUBLIC 'CONST'
CONST	ENDS
;	COMDAT ?classCLocalMusicCoverList@CLocalMusicCoverList@@2UCRuntimeClass@@B
CONST	SEGMENT DWORD USE32 PUBLIC 'CONST'
CONST	ENDS
;	COMDAT ??3CObject@@SGXPAX@Z
_TEXT	SEGMENT PARA USE32 PUBLIC 'CODE'
_TEXT	ENDS
;	COMDAT ??_7CCriticalSection@@6B@
CONST	SEGMENT DWORD USE32 PUBLIC 'CONST'
CONST	ENDS
sxdata	SEGMENT DWORD USE32 'SXDATA'
sxdata	ENDS
FLAT	GROUP _DATA, CONST, _BSS
	ASSUME	CS: FLAT, DS: FLAT, SS: FLAT
endif

INCLUDELIB MSVCRT
INCLUDELIB OLDNAMES

PUBLIC	?OnTimer@CLocalMusicCoverList@@QAEXI@Z		; CLocalMusicCoverList::OnTimer
PUBLIC	?OnMouseWheel@CLocalMusicCoverList@@QAEHIFVCPoint@@@Z ; CLocalMusicCoverList::OnMouseWheel
PUBLIC	?OnMouseMove@CLocalMusicCoverList@@QAEXIVCPoint@@@Z ; CLocalMusicCoverList::OnMouseMove
PUBLIC	?OnLButtonDown@CLocalMusicCoverList@@QAEXIVCPoint@@@Z ; CLocalMusicCoverList::OnLButtonDown
PUBLIC	?OnTrackerChange@CLocalMusicCoverList@@QAEJIJ@Z	; CLocalMusicCoverList::OnTrackerChange
PUBLIC	?OnLButtonUp@CLocalMusicCoverList@@QAEXIVCPoint@@@Z ; CLocalMusicCoverList::OnLButtonUp
PUBLIC	?OnRButtonUp@CLocalMusicCoverList@@QAEXIVCPoint@@@Z ; CLocalMusicCoverList::OnRButtonUp
PUBLIC	?OnCoolSBCustomdraw@CLocalMusicCoverList@@QAEXPAUtagNMHDR@@PAJ@Z ; CLocalMusicCoverList::OnCoolSBCustomdraw
PUBLIC	?OnDestroy@CLocalMusicCoverList@@QAEXXZ		; CLocalMusicCoverList::OnDestroy
PUBLIC	?OnVScroll@CLocalMusicCoverList@@QAEXIIPAVCScrollBar@@@Z ; CLocalMusicCoverList::OnVScroll
PUBLIC	?OnShowWindow@CLocalMusicCoverList@@QAEXHI@Z	; CLocalMusicCoverList::OnShowWindow
PUBLIC	?OnKeyDown@CLocalMusicCoverList@@QAEXIII@Z	; CLocalMusicCoverList::OnKeyDown
PUBLIC	?OnSetFocus@CLocalMusicCoverList@@QAEXPAVCWnd@@@Z ; CLocalMusicCoverList::OnSetFocus
PUBLIC	?OnKillFocus@CLocalMusicCoverList@@QAEXPAVCWnd@@@Z ; CLocalMusicCoverList::OnKillFocus
PUBLIC	?OnRButtonDown@CLocalMusicCoverList@@QAEXIVCPoint@@@Z ; CLocalMusicCoverList::OnRButtonDown
PUBLIC	?g_pfnGetThreadACP@ATL@@3P6GIXZA		; ATL::g_pfnGetThreadACP
PUBLIC	?_AtlGetThreadACPThunk@ATL@@YGIXZ		; ATL::_AtlGetThreadACPThunk
PUBLIC	?classCLocalMusicCoverList@CLocalMusicCoverList@@2UCRuntimeClass@@B ; CLocalMusicCoverList::classCLocalMusicCoverList
PUBLIC	?_messageEntries@CLocalMusicCoverList@@0QBUAFX_MSGMAP_ENTRY@@B ; CLocalMusicCoverList::_messageEntries
PUBLIC	?messageMap@CLocalMusicCoverList@@1UAFX_MSGMAP@@B ; CLocalMusicCoverList::messageMap
PUBLIC	?OnCreate@CLocalMusicCoverList@@IAEHPAUtagCREATESTRUCTA@@@Z ; CLocalMusicCoverList::OnCreate
PUBLIC	?OnEraseBkgnd@CLocalMusicCoverList@@IAEHPAVCDC@@@Z ; CLocalMusicCoverList::OnEraseBkgnd
PUBLIC	?OnPaint@CLocalMusicCoverList@@IAEXXZ		; CLocalMusicCoverList::OnPaint
PUBLIC	?OnSize@CLocalMusicCoverList@@IAEXIHH@Z		; CLocalMusicCoverList::OnSize
EXTRN	?GetThisMessageMap@CWnd@@KGPBUAFX_MSGMAP@@XZ:NEAR ; CWnd::GetThisMessageMap
EXTRN	?GetThisClass@CWnd@@SGPAUCRuntimeClass@@XZ:NEAR	; CWnd::GetThisClass
CONST	SEGMENT
$SG198880 DB	'int', 00H
CONST	ENDS
_DATA	SEGMENT
_TYPE_CONFIG_INT DD FLAT:$SG198880
_DATA	ENDS
CONST	SEGMENT
$SG198882 DB	'str', 00H
CONST	ENDS
_DATA	SEGMENT
_TYPE_CONFIG_STR DD FLAT:$SG198882
_DATA	ENDS
CONST	SEGMENT
$SG198884 DB	'double', 00H
CONST	ENDS
_DATA	SEGMENT
_TYPE_CONFIG_DOUBLE DD FLAT:$SG198884
_DATA	ENDS
CONST	SEGMENT
	ORG $+1
$SG198886 DB	'bool', 00H
CONST	ENDS
_DATA	SEGMENT
_TYPE_CONFIG_BOOL DD FLAT:$SG198886
_DATA	ENDS
CONST	SEGMENT
	ORG $+3
$SG198888 DB	'sepint', 00H
CONST	ENDS
_DATA	SEGMENT
_TYPE_CONFIG_INT_HASSEP DD FLAT:$SG198888
_DATA	ENDS
CONST	SEGMENT
	ORG $+1
$SG198890 DB	'sepstr', 00H
CONST	ENDS
_DATA	SEGMENT
_TYPE_CONFIG_STR_HASSEP DD FLAT:$SG198890
_DATA	ENDS
CONST	SEGMENT
	ORG $+1
$SG198892 DB	'sepdouble', 00H
CONST	ENDS
_DATA	SEGMENT
_TYPE_CONFIG_DOUBLE_HASSEP DD FLAT:$SG198892
_DATA	ENDS
CONST	SEGMENT
	ORG $+2
$SG198894 DB	'sepbool', 00H
CONST	ENDS
_DATA	SEGMENT
_TYPE_CONFIG_BOOL_HASSEP DD FLAT:$SG198894
_DATA	ENDS
CONST	SEGMENT
$SG198896 DB	'App', 00H
CONST	ENDS
_DATA	SEGMENT
_CONF_APP_MODULE_NAME DD FLAT:$SG198896
_DATA	ENDS
CONST	SEGMENT
$SG198898 DB	'SwfPath', 00H
CONST	ENDS
_DATA	SEGMENT
_CONF_APP_SWF_PATH DD FLAT:$SG198898
_DATA	ENDS
CONST	SEGMENT
$SG198900 DB	'MainWndHold', 00H
CONST	ENDS
_DATA	SEGMENT
_CONF_APP_MAINWND_HOLD DD FLAT:$SG198900
_DATA	ENDS
CONST	SEGMENT
$SG198902 DB	'RunCount', 00H
CONST	ENDS
_DATA	SEGMENT
_CONF_APP_RUN_COUNT DD FLAT:$SG198902
_DATA	ENDS
CONST	SEGMENT
	ORG $+3
$SG198904 DB	'PlayedGame', 00H
CONST	ENDS
_DATA	SEGMENT
_CONF_APP_PLAYED_GAME DD FLAT:$SG198904
_DATA	ENDS
CONST	SEGMENT
	ORG $+1
$SG198906 DB	'playedPcGame', 00H
CONST	ENDS
_DATA	SEGMENT
_CONF_APP_PLAYED_PC_GAME DD FLAT:$SG198906
_DATA	ENDS
CONST	SEGMENT
	ORG $+3
$SG198908 DB	'PlayedIconSize', 00H
CONST	ENDS
_DATA	SEGMENT
_CONF_APP_PLAYED_ICON_SIZE DD FLAT:$SG198908
_DATA	ENDS
CONST	SEGMENT
	ORG $+1
$SG198910 DB	'PictureSavePath', 00H
CONST	ENDS
_DATA	SEGMENT
_CONF_APP_PIC_SAVE_PATH DD FLAT:$SG198910
_DATA	ENDS
CONST	SEGMENT
$SG199838 DB	'CLocalMusicCoverList', 00H
CONST	ENDS
;	COMDAT ?classCLocalMusicCoverList@CLocalMusicCoverList@@2UCRuntimeClass@@B
CONST	SEGMENT
?classCLocalMusicCoverList@CLocalMusicCoverList@@2UCRuntimeClass@@B DD FLAT:$SG199838 ; CLocalMusicCoverList::classCLocalMusicCoverList
	DD	017cH
	DD	0ffffH
	DD	00H
	DD	FLAT:?GetThisClass@CWnd@@SGPAUCRuntimeClass@@XZ
	DD	00H
	DD	00H
CONST	ENDS
CONST	SEGMENT
	ORG $+3
$SG199859 DB	'ScrollHorz', 00H
	ORG $+1
$SG199860 DB	'ScrollVert', 00H
	ORG $+1
$SG199861 DB	'PlayedGameDetailTextColor', 00H
	ORG $+2
$SG199862 DB	'PlayedGameBkColor', 00H
	ORG $+2
$SG199863 DB	'PlayedGameNameColor', 00H
CONST	ENDS
;	COMDAT ?_messageEntries@CLocalMusicCoverList@@0QBUAFX_MSGMAP_ENTRY@@B
CONST	SEGMENT
?_messageEntries@CLocalMusicCoverList@@0QBUAFX_MSGMAP_ENTRY@@B DD 01H ; CLocalMusicCoverList::_messageEntries
	DD	00H
	DD	00H
	DD	00H
	DD	0dH
	DD	FLAT:?OnCreate@CLocalMusicCoverList@@IAEHPAUtagCREATESTRUCTA@@@Z
	DD	014H
	DD	00H
	DD	00H
	DD	00H
	DD	01H
	DD	FLAT:?OnEraseBkgnd@CLocalMusicCoverList@@IAEHPAVCDC@@@Z
	DD	0fH
	DD	00H
	DD	00H
	DD	00H
	DD	010H
	DD	FLAT:?OnPaint@CLocalMusicCoverList@@IAEXXZ
	DD	05H
	DD	00H
	DD	00H
	DD	00H
	DD	016H
	DD	FLAT:?OnSize@CLocalMusicCoverList@@IAEXIHH@Z
	DD	0113H
	DD	00H
	DD	00H
	DD	00H
	DD	011H
	DD	FLAT:?OnTimer@CLocalMusicCoverList@@QAEXI@Z
	DD	020aH
	DD	00H
	DD	00H
	DD	00H
	DD	034H
	DD	FLAT:?OnMouseWheel@CLocalMusicCoverList@@QAEHIFVCPoint@@@Z
	DD	0200H
	DD	00H
	DD	00H
	DD	00H
	DD	032H
	DD	FLAT:?OnMouseMove@CLocalMusicCoverList@@QAEXIVCPoint@@@Z
	DD	0201H
	DD	00H
	DD	00H
	DD	00H
	DD	032H
	DD	FLAT:?OnLButtonDown@CLocalMusicCoverList@@QAEXIVCPoint@@@Z
	DD	04c8H
	DD	00H
	DD	00H
	DD	00H
	DD	0eH
	DD	FLAT:?OnTrackerChange@CLocalMusicCoverList@@QAEJIJ@Z
	DD	0bc4eH
	DD	0f001H
	DD	00H
	DD	00H
	DD	039H
	DD	FLAT:?OnCoolSBCustomdraw@CLocalMusicCoverList@@QAEXPAUtagNMHDR@@PAJ@Z
	DD	0202H
	DD	00H
	DD	00H
	DD	00H
	DD	032H
	DD	FLAT:?OnLButtonUp@CLocalMusicCoverList@@QAEXIVCPoint@@@Z
	DD	0205H
	DD	00H
	DD	00H
	DD	00H
	DD	032H
	DD	FLAT:?OnRButtonUp@CLocalMusicCoverList@@QAEXIVCPoint@@@Z
	DD	02H
	DD	00H
	DD	00H
	DD	00H
	DD	010H
	DD	FLAT:?OnDestroy@CLocalMusicCoverList@@QAEXXZ
	DD	0115H
	DD	00H
	DD	00H
	DD	00H
	DD	027H
	DD	FLAT:?OnVScroll@CLocalMusicCoverList@@QAEXIIPAVCScrollBar@@@Z
	DD	018H
	DD	00H
	DD	00H
	DD	00H
	DD	012H
	DD	FLAT:?OnShowWindow@CLocalMusicCoverList@@QAEXHI@Z
	DD	0100H
	DD	00H
	DD	00H
	DD	00H
	DD	015H
	DD	FLAT:?OnKeyDown@CLocalMusicCoverList@@QAEXIII@Z
	DD	07H
	DD	00H
	DD	00H
	DD	00H
	DD	020H
	DD	FLAT:?OnSetFocus@CLocalMusicCoverList@@QAEXPAVCWnd@@@Z
	DD	08H
	DD	00H
	DD	00H
	DD	00H
	DD	020H
	DD	FLAT:?OnKillFocus@CLocalMusicCoverList@@QAEXPAVCWnd@@@Z
	DD	0204H
	DD	00H
	DD	00H
	DD	00H
	DD	032H
	DD	FLAT:?OnRButtonDown@CLocalMusicCoverList@@QAEXIVCPoint@@@Z
	DD	00H
	DD	00H
	DD	00H
	DD	00H
	DD	00H
	DD	00H
CONST	ENDS
;	COMDAT ?messageMap@CLocalMusicCoverList@@1UAFX_MSGMAP@@B
CONST	SEGMENT
?messageMap@CLocalMusicCoverList@@1UAFX_MSGMAP@@B DD FLAT:?GetThisMessageMap@CWnd@@KGPBUAFX_MSGMAP@@XZ ; CLocalMusicCoverList::messageMap
	DD	FLAT:?_messageEntries@CLocalMusicCoverList@@0QBUAFX_MSGMAP_ENTRY@@B
CONST	ENDS
CONST	SEGMENT
$SG199990 DB	0cbH, 0ceH, 0ccH, 0e5H, 00H
	ORG $+3
$SG199991 DB	0cbH, 0ceH, 0ccH, 0e5H, 00H
	ORG $+3
$SG199995 DB	'\Resources\StandardUI\IconBorder.png', 00H
$SG200047 DB	00H
	ORG $+2
$SG200641 DB	'PlayedGameFrameBorder', 00H
CONST	ENDS
;	COMDAT ?g_pfnGetThreadACP@ATL@@3P6GIXZA
_DATA	SEGMENT
?g_pfnGetThreadACP@ATL@@3P6GIXZA DD FLAT:?_AtlGetThreadACPThunk@ATL@@YGIXZ ; ATL::g_pfnGetThreadACP
_DATA	ENDS
PUBLIC	?GetThisClass@CLocalMusicCoverList@@SGPAUCRuntimeClass@@XZ ; CLocalMusicCoverList::GetThisClass
; Function compile flags: /Odt
; File d:\boxgit\playbox\playbox\dev\prj\playbox\src\module\playedgamepanel\localmusiccoverlist.cpp
_TEXT	SEGMENT
?GetThisClass@CLocalMusicCoverList@@SGPAUCRuntimeClass@@XZ PROC NEAR ; CLocalMusicCoverList::GetThisClass

; 12   : IMPLEMENT_DYNAMIC(CLocalMusicCoverList, CWnd)

  00000	55		 push	 ebp
  00001	8b ec		 mov	 ebp, esp
  00003	b8 00 00 00 00	 mov	 eax, OFFSET FLAT:?classCLocalMusicCoverList@CLocalMusicCoverList@@2UCRuntimeClass@@B ; CLocalMusicCoverList::classCLocalMusicCoverList
  00008	5d		 pop	 ebp
  00009	c3		 ret	 0
?GetThisClass@CLocalMusicCoverList@@SGPAUCRuntimeClass@@XZ ENDP ; CLocalMusicCoverList::GetThisClass
_TEXT	ENDS
PUBLIC	?GetRuntimeClass@CLocalMusicCoverList@@UBEPAUCRuntimeClass@@XZ ; CLocalMusicCoverList::GetRuntimeClass
; Function compile flags: /Odt
_TEXT	SEGMENT
_this$ = -4						; size = 4
?GetRuntimeClass@CLocalMusicCoverList@@UBEPAUCRuntimeClass@@XZ PROC NEAR ; CLocalMusicCoverList::GetRuntimeClass
; _this$ = ecx

; 12   : IMPLEMENT_DYNAMIC(CLocalMusicCoverList, CWnd)

  00010	55		 push	 ebp
  00011	8b ec		 mov	 ebp, esp
  00013	51		 push	 ecx
  00014	89 4d fc	 mov	 DWORD PTR _this$[ebp], ecx
  00017	b8 00 00 00 00	 mov	 eax, OFFSET FLAT:?classCLocalMusicCoverList@CLocalMusicCoverList@@2UCRuntimeClass@@B ; CLocalMusicCoverList::classCLocalMusicCoverList
  0001c	8b e5		 mov	 esp, ebp
  0001e	5d		 pop	 ebp
  0001f	c3		 ret	 0
?GetRuntimeClass@CLocalMusicCoverList@@UBEPAUCRuntimeClass@@XZ ENDP ; CLocalMusicCoverList::GetRuntimeClass
_TEXT	ENDS
PUBLIC	??0CPoint@@QAE@HH@Z				; CPoint::CPoint
PUBLIC	?PreTranslateMessage@CLocalMusicCoverList@@UAEHPAUtagMSG@@@Z ; CLocalMusicCoverList::PreTranslateMessage
PUBLIC	??_7CLocalMusicCoverList@@6B@			; CLocalMusicCoverList::`vftable'
PUBLIC	??_GCLocalMusicCoverList@@UAEPAXI@Z		; CLocalMusicCoverList::`scalar deleting destructor'
PUBLIC	??0CRect@@QAE@HHHH@Z				; CRect::CRect
PUBLIC	??_R1A@?0A@A@CObject@@8				; CObject::`RTTI Base Class Descriptor at (0,-1,0,0)'
PUBLIC	??_R0?AVCObject@@@8				; CObject `RTTI Type Descriptor'
PUBLIC	??_R1A@?0A@A@CWnd@@8				; CWnd::`RTTI Base Class Descriptor at (0,-1,0,0)'
PUBLIC	??_R0?AVCWnd@@@8				; CWnd `RTTI Type Descriptor'
PUBLIC	??_R1A@?0A@A@CCmdTarget@@8			; CCmdTarget::`RTTI Base Class Descriptor at (0,-1,0,0)'
PUBLIC	??_R0?AVCCmdTarget@@@8				; CCmdTarget `RTTI Type Descriptor'
PUBLIC	??0GdiRes@@QAE@XZ				; GdiRes::GdiRes
PUBLIC	??2CObject@@SGPAXI@Z				; CObject::operator new
PUBLIC	??3CObject@@SGXPAX@Z				; CObject::operator delete
PUBLIC	?Serialize@CObject@@UAEXAAVCArchive@@@Z		; CObject::Serialize
PUBLIC	?AssertValid@CObject@@UBEXXZ			; CObject::AssertValid
PUBLIC	?Dump@CObject@@UBEXAAVCDumpContext@@@Z		; CObject::Dump
PUBLIC	??_R4CLocalMusicCoverList@@6B@			; CLocalMusicCoverList::`RTTI Complete Object Locator'
PUBLIC	??_R0?AVCLocalMusicCoverList@@@8		; CLocalMusicCoverList `RTTI Type Descriptor'
PUBLIC	??_R3CLocalMusicCoverList@@8			; CLocalMusicCoverList::`RTTI Class Hierarchy Descriptor'
PUBLIC	??_R2CLocalMusicCoverList@@8			; CLocalMusicCoverList::`RTTI Base Class Array'
PUBLIC	??_R1A@?0A@A@CLocalMusicCoverList@@8		; CLocalMusicCoverList::`RTTI Base Class Descriptor at (0,-1,0,0)'
PUBLIC	??0CLocalMusicCoverList@@QAE@XZ			; CLocalMusicCoverList::CLocalMusicCoverList
PUBLIC	?GetMessageMap@CLocalMusicCoverList@@MBEPBUAFX_MSGMAP@@XZ ; CLocalMusicCoverList::GetMessageMap
PUBLIC	?Create@CLocalMusicCoverList@@UAEHPBD0KABUtagRECT@@PAVCWnd@@IPAUCCreateContext@@@Z ; CLocalMusicCoverList::Create
PUBLIC	?SetItemWH@CLocalMusicCoverList@@QAEXHH@Z	; CLocalMusicCoverList::SetItemWH
PUBLIC	?SetScrollBitmap@CLocalMusicCoverList@@QAEXPAVCDibBitmap@@0@Z ; CLocalMusicCoverList::SetScrollBitmap
PUBLIC	?OnMoveDraging@CLocalMusicCoverList@@UAEXXZ	; CLocalMusicCoverList::OnMoveDraging
PUBLIC	?OnEndDrag@CLocalMusicCoverList@@UAEXXZ		; CLocalMusicCoverList::OnEndDrag
PUBLIC	??0CFont@@QAE@XZ				; CFont::CFont
PUBLIC	??1CFont@@UAE@XZ				; CFont::~CFont
PUBLIC	??0CBitmap@@QAE@XZ				; CBitmap::CBitmap
PUBLIC	??0CCriticalSection@@QAE@XZ			; CCriticalSection::CCriticalSection
PUBLIC	??1CCriticalSection@@UAE@XZ			; CCriticalSection::~CCriticalSection
PUBLIC	??0?$deque@VCPoint@@V?$allocator@VCPoint@@@std@@@std@@QAE@XZ ; std::deque<CPoint,std::allocator<CPoint> >::deque<CPoint,std::allocator<CPoint> >
PUBLIC	??1CBitmap@@UAE@XZ				; CBitmap::~CBitmap
PUBLIC	??1?$deque@VCPoint@@V?$allocator@VCPoint@@@std@@@std@@QAE@XZ ; std::deque<CPoint,std::allocator<CPoint> >::~deque<CPoint,std::allocator<CPoint> >
PUBLIC	?DoDataExchange@CWnd@@MAEXPAVCDataExchange@@@Z	; CWnd::DoDataExchange
PUBLIC	?BeginModalState@CWnd@@UAEXXZ			; CWnd::BeginModalState
PUBLIC	?EndModalState@CWnd@@UAEXXZ			; CWnd::EndModalState
EXTRN	??0CDC@@QAE@XZ:NEAR				; CDC::CDC
EXTRN	?CreateControlContainer@CWnd@@MAEHPAPAVCOleControlContainer@@@Z:NEAR ; CWnd::CreateControlContainer
EXTRN	?CreateControlSite@CWnd@@MAEHPAVCOleControlContainer@@PAPAVCOleControlSite@@IABU_GUID@@@Z:NEAR ; CWnd::CreateControlSite
EXTRN	?SetOccDialogInfo@CWnd@@MAEHPAU_AFX_OCC_DIALOG_INFO@@@Z:NEAR ; CWnd::SetOccDialogInfo
EXTRN	??_ECLocalMusicCoverList@@UAEPAXI@Z:NEAR	; CLocalMusicCoverList::`vector deleting destructor'
EXTRN	?OnToolHitTest@CWnd@@UBEHVCPoint@@PAUtagTOOLINFOA@@@Z:NEAR ; CWnd::OnToolHitTest
EXTRN	?GetScrollBarCtrl@CWnd@@UBEPAVCScrollBar@@H@Z:NEAR ; CWnd::GetScrollBarCtrl
EXTRN	__except_list:DWORD
EXTRN	___CxxFrameHandler:NEAR
EXTRN	?GetConfigIntValue@AfxUserConfig@@QAEXABV?$basic_string@DU?$char_traits@D@std@@V?$allocator@D@2@@std@@0AAH@Z:NEAR ; AfxUserConfig::GetConfigIntValue
EXTRN	?WinHelpA@CWnd@@UAEXKI@Z:NEAR			; CWnd::WinHelpA
EXTRN	?HtmlHelpA@CWnd@@UAEXKI@Z:NEAR			; CWnd::HtmlHelpA
EXTRN	?WinHelpInternal@CWnd@@UAEXKI@Z:NEAR		; CWnd::WinHelpInternal
EXTRN	?ContinueModal@CWnd@@UAEHXZ:NEAR		; CWnd::ContinueModal
EXTRN	?EndModalLoop@CWnd@@UAEXH@Z:NEAR		; CWnd::EndModalLoop
EXTRN	?GetInterfaceMap@CWnd@@MBEPBUAFX_INTERFACEMAP@@XZ:NEAR ; CWnd::GetInterfaceMap
EXTRN	?EnsureStdObj@CWnd@@UAEJXZ:NEAR			; CWnd::EnsureStdObj
EXTRN	?get_accParent@CWnd@@UAEJPAPAUIDispatch@@@Z:NEAR ; CWnd::get_accParent
EXTRN	?get_accChildCount@CWnd@@UAEJPAJ@Z:NEAR		; CWnd::get_accChildCount
EXTRN	?OnCmdMsg@CCmdTarget@@UAEHIHPAXPAUAFX_CMDHANDLERINFO@@@Z:NEAR ; CCmdTarget::OnCmdMsg
EXTRN	?get_accChild@CWnd@@UAEJUtagVARIANT@@PAPAUIDispatch@@@Z:NEAR ; CWnd::get_accChild
EXTRN	?IsInvokeAllowed@CCmdTarget@@UAEHJ@Z:NEAR	; CCmdTarget::IsInvokeAllowed
EXTRN	?get_accName@CWnd@@UAEJUtagVARIANT@@PAPA_W@Z:NEAR ; CWnd::get_accName
EXTRN	?get_accValue@CWnd@@UAEJUtagVARIANT@@PAPA_W@Z:NEAR ; CWnd::get_accValue
EXTRN	?get_accDescription@CWnd@@UAEJUtagVARIANT@@PAPA_W@Z:NEAR ; CWnd::get_accDescription
EXTRN	?GetDispatchIID@CCmdTarget@@UAEHPAU_GUID@@@Z:NEAR ; CCmdTarget::GetDispatchIID
EXTRN	?GetTypeInfoCount@CCmdTarget@@UAEIXZ:NEAR	; CCmdTarget::GetTypeInfoCount
EXTRN	?GetTypeLibCache@CCmdTarget@@UAEPAVCTypeLibCache@@XZ:NEAR ; CCmdTarget::GetTypeLibCache
EXTRN	?get_accRole@CWnd@@UAEJUtagVARIANT@@PAU2@@Z:NEAR ; CWnd::get_accRole
EXTRN	?GetTypeLib@CCmdTarget@@UAEJKPAPAUITypeLib@@@Z:NEAR ; CCmdTarget::GetTypeLib
EXTRN	?get_accState@CWnd@@UAEJUtagVARIANT@@PAU2@@Z:NEAR ; CWnd::get_accState
EXTRN	?get_accHelp@CWnd@@UAEJUtagVARIANT@@PAPA_W@Z:NEAR ; CWnd::get_accHelp
EXTRN	?get_accHelpTopic@CWnd@@UAEJPAPA_WUtagVARIANT@@PAJ@Z:NEAR ; CWnd::get_accHelpTopic
EXTRN	??0CLMCDataMgr@@QAE@XZ:NEAR			; CLMCDataMgr::CLMCDataMgr
EXTRN	?get_accKeyboardShortcut@CWnd@@UAEJUtagVARIANT@@PAPA_W@Z:NEAR ; CWnd::get_accKeyboardShortcut
EXTRN	??1CLMCDataMgr@@QAE@XZ:NEAR			; CLMCDataMgr::~CLMCDataMgr
EXTRN	?get_accFocus@CWnd@@UAEJPAUtagVARIANT@@@Z:NEAR	; CWnd::get_accFocus
EXTRN	?get_accSelection@CWnd@@UAEJPAUtagVARIANT@@@Z:NEAR ; CWnd::get_accSelection
EXTRN	?get_accDefaultAction@CWnd@@UAEJUtagVARIANT@@PAPA_W@Z:NEAR ; CWnd::get_accDefaultAction
EXTRN	?GetCommandMap@CCmdTarget@@MBEPBUAFX_OLECMDMAP@@XZ:NEAR ; CCmdTarget::GetCommandMap
EXTRN	?accSelect@CWnd@@UAEJJUtagVARIANT@@@Z:NEAR	; CWnd::accSelect
EXTRN	?accLocation@CWnd@@UAEJPAJ000UtagVARIANT@@@Z:NEAR ; CWnd::accLocation
EXTRN	?GetDispatchMap@CCmdTarget@@MBEPBUAFX_DISPMAP@@XZ:NEAR ; CCmdTarget::GetDispatchMap
EXTRN	?accNavigate@CWnd@@UAEJJUtagVARIANT@@PAU2@@Z:NEAR ; CWnd::accNavigate
EXTRN	?accHitTest@CWnd@@UAEJJJPAUtagVARIANT@@@Z:NEAR	; CWnd::accHitTest
EXTRN	?GetConnectionMap@CCmdTarget@@MBEPBUAFX_CONNECTIONMAP@@XZ:NEAR ; CCmdTarget::GetConnectionMap
EXTRN	?accDoDefaultAction@CWnd@@UAEJUtagVARIANT@@@Z:NEAR ; CWnd::accDoDefaultAction
EXTRN	?put_accName@CWnd@@UAEJUtagVARIANT@@PA_W@Z:NEAR	; CWnd::put_accName
EXTRN	?put_accValue@CWnd@@UAEJUtagVARIANT@@PA_W@Z:NEAR ; CWnd::put_accValue
EXTRN	?SetProxy@CWnd@@UAEJPAUIAccessibleProxy@@@Z:NEAR ; CWnd::SetProxy
EXTRN	?CreateAccessibleProxy@CWnd@@UAEJIJPAJ@Z:NEAR	; CWnd::CreateAccessibleProxy
EXTRN	?GetEventSinkMap@CCmdTarget@@MBEPBUAFX_EVENTSINKMAP@@XZ:NEAR ; CCmdTarget::GetEventSinkMap
EXTRN	?OnCreateAggregates@CCmdTarget@@UAEHXZ:NEAR	; CCmdTarget::OnCreateAggregates
EXTRN	?OnCommand@CWnd@@MAEHIJ@Z:NEAR			; CWnd::OnCommand
EXTRN	?GetInterfaceHook@CCmdTarget@@UAEPAUIUnknown@@PBX@Z:NEAR ; CCmdTarget::GetInterfaceHook
EXTRN	?OnNotify@CWnd@@MAEHIJPAJ@Z:NEAR		; CWnd::OnNotify
EXTRN	?GetExtraConnectionPoints@CCmdTarget@@MAEHPAVCPtrArray@@@Z:NEAR ; CCmdTarget::GetExtraConnectionPoints
EXTRN	?GetConnectionHook@CCmdTarget@@MAEPAUIConnectionPoint@@ABU_GUID@@@Z:NEAR ; CCmdTarget::GetConnectionHook
EXTRN	??1CDC@@UAE@XZ:NEAR				; CDC::~CDC
EXTRN	??0CWnd@@QAE@XZ:NEAR				; CWnd::CWnd
EXTRN	?PreSubclassWindow@CWnd@@UAEXXZ:NEAR		; CWnd::PreSubclassWindow
EXTRN	?CreateEx@CWnd@@UAEHKPBD0KHHHHPAUHWND__@@PAUHMENU__@@PAX@Z:NEAR ; CWnd::CreateEx
EXTRN	?CreateEx@CWnd@@UAEHKPBD0KABUtagRECT@@PAV1@IPAX@Z:NEAR ; CWnd::CreateEx
EXTRN	__imp_??0?$basic_string@DU?$char_traits@D@std@@V?$allocator@D@2@@std@@QAE@PBD@Z:NEAR
EXTRN	?DestroyWindow@CWnd@@UAEHXZ:NEAR		; CWnd::DestroyWindow
EXTRN	?PreCreateWindow@CWnd@@UAEHAAUtagCREATESTRUCTA@@@Z:NEAR ; CWnd::PreCreateWindow
EXTRN	?CalcWindowRect@CWnd@@UAEXPAUtagRECT@@I@Z:NEAR	; CWnd::CalcWindowRect
EXTRN	__imp_??1?$basic_string@DU?$char_traits@D@std@@V?$allocator@D@2@@std@@QAE@XZ:NEAR
EXTRN	?GetSuperWndProcAddr@CWnd@@MAEPAP6GJPAUHWND__@@IIJ@ZXZ:NEAR ; CWnd::GetSuperWndProcAddr
EXTRN	??_7type_info@@6B@:QWORD			; type_info::`vftable'
EXTRN	?OnAmbientProperty@CWnd@@UAEHPAVCOleControlSite@@JPAUtagVARIANT@@@Z:NEAR ; CWnd::OnAmbientProperty
EXTRN	?WindowProc@CWnd@@MAEJIIJ@Z:NEAR		; CWnd::WindowProc
EXTRN	?OnWndMsg@CWnd@@MAEHIIJPAJ@Z:NEAR		; CWnd::OnWndMsg
EXTRN	?DefWindowProcA@CWnd@@MAEJIIJ@Z:NEAR		; CWnd::DefWindowProcA
EXTRN	?PostNcDestroy@CWnd@@MAEXXZ:NEAR		; CWnd::PostNcDestroy
EXTRN	?OnChildNotify@CWnd@@MAEHIIJPAJ@Z:NEAR		; CWnd::OnChildNotify
EXTRN	?AfxGetUIManager@@YAPAVIUIManager@@XZ:NEAR	; AfxGetUIManager
EXTRN	??1CWnd@@UAE@XZ:NEAR				; CWnd::~CWnd
EXTRN	?AfxGetUserConfig@@YAPAVAfxUserConfig@@XZ:NEAR	; AfxGetUserConfig
EXTRN	?CheckAutoCenter@CWnd@@UAEHXZ:NEAR		; CWnd::CheckAutoCenter
EXTRN	?IsFrameWnd@CWnd@@UBEHXZ:NEAR			; CWnd::IsFrameWnd
EXTRN	?OnFinalRelease@CWnd@@UAEXXZ:NEAR		; CWnd::OnFinalRelease
xdata$x	SEGMENT
$T203011 DD	0ffffffffH
	DD	FLAT:$L202991
	DD	00H
	DD	FLAT:$L202992
	DD	01H
	DD	FLAT:$L202993
	DD	02H
	DD	FLAT:$L202994
	DD	03H
	DD	FLAT:$L202995
	DD	04H
	DD	FLAT:$L202996
	DD	05H
	DD	FLAT:$L202997
	DD	06H
	DD	FLAT:$L202998
	DD	07H
	DD	FLAT:$L202999
	DD	08H
	DD	FLAT:$L203000
	DD	09H
	DD	FLAT:$L203001
	DD	09H
	DD	FLAT:$L203002
	DD	09H
	DD	FLAT:$L203003
	DD	0cH
	DD	FLAT:$L203004
$T203008 DD	019930520H
	DD	0eH
	DD	FLAT:$T203011
	DD	2 DUP(00H)
	DD	2 DUP(00H)
xdata$x	ENDS
;	COMDAT ??_7CLocalMusicCoverList@@6B@
CONST	SEGMENT
??_7CLocalMusicCoverList@@6B@ DD FLAT:??_R4CLocalMusicCoverList@@6B@ ; CLocalMusicCoverList::`vftable'
	DD	FLAT:?GetRuntimeClass@CLocalMusicCoverList@@UBEPAUCRuntimeClass@@XZ
	DD	FLAT:??_ECLocalMusicCoverList@@UAEPAXI@Z
	DD	FLAT:?Serialize@CObject@@UAEXAAVCArchive@@@Z
	DD	FLAT:?AssertValid@CObject@@UBEXXZ
	DD	FLAT:?Dump@CObject@@UBEXAAVCDumpContext@@@Z
	DD	FLAT:?OnCmdMsg@CCmdTarget@@UAEHIHPAXPAUAFX_CMDHANDLERINFO@@@Z
	DD	FLAT:?OnFinalRelease@CWnd@@UAEXXZ
	DD	FLAT:?IsInvokeAllowed@CCmdTarget@@UAEHJ@Z
	DD	FLAT:?GetDispatchIID@CCmdTarget@@UAEHPAU_GUID@@@Z
	DD	FLAT:?GetTypeInfoCount@CCmdTarget@@UAEIXZ
	DD	FLAT:?GetTypeLibCache@CCmdTarget@@UAEPAVCTypeLibCache@@XZ
	DD	FLAT:?GetTypeLib@CCmdTarget@@UAEJKPAPAUITypeLib@@@Z
	DD	FLAT:?GetMessageMap@CLocalMusicCoverList@@MBEPBUAFX_MSGMAP@@XZ
	DD	FLAT:?GetCommandMap@CCmdTarget@@MBEPBUAFX_OLECMDMAP@@XZ
	DD	FLAT:?GetDispatchMap@CCmdTarget@@MBEPBUAFX_DISPMAP@@XZ
	DD	FLAT:?GetConnectionMap@CCmdTarget@@MBEPBUAFX_CONNECTIONMAP@@XZ
	DD	FLAT:?GetInterfaceMap@CWnd@@MBEPBUAFX_INTERFACEMAP@@XZ
	DD	FLAT:?GetEventSinkMap@CCmdTarget@@MBEPBUAFX_EVENTSINKMAP@@XZ
	DD	FLAT:?OnCreateAggregates@CCmdTarget@@UAEHXZ
	DD	FLAT:?GetInterfaceHook@CCmdTarget@@UAEPAUIUnknown@@PBX@Z
	DD	FLAT:?GetExtraConnectionPoints@CCmdTarget@@MAEHPAVCPtrArray@@@Z
	DD	FLAT:?GetConnectionHook@CCmdTarget@@MAEPAUIConnectionPoint@@ABU_GUID@@@Z
	DD	FLAT:?PreSubclassWindow@CWnd@@UAEXXZ
	DD	FLAT:?Create@CLocalMusicCoverList@@UAEHPBD0KABUtagRECT@@PAVCWnd@@IPAUCCreateContext@@@Z
	DD	FLAT:?CreateEx@CWnd@@UAEHKPBD0KABUtagRECT@@PAV1@IPAX@Z
	DD	FLAT:?CreateEx@CWnd@@UAEHKPBD0KHHHHPAUHWND__@@PAUHMENU__@@PAX@Z
	DD	FLAT:?DestroyWindow@CWnd@@UAEHXZ
	DD	FLAT:?PreCreateWindow@CWnd@@UAEHAAUtagCREATESTRUCTA@@@Z
	DD	FLAT:?CalcWindowRect@CWnd@@UAEXPAUtagRECT@@I@Z
	DD	FLAT:?OnToolHitTest@CWnd@@UBEHVCPoint@@PAUtagTOOLINFOA@@@Z
	DD	FLAT:?GetScrollBarCtrl@CWnd@@UBEPAVCScrollBar@@H@Z
	DD	FLAT:?WinHelpA@CWnd@@UAEXKI@Z
	DD	FLAT:?HtmlHelpA@CWnd@@UAEXKI@Z
	DD	FLAT:?WinHelpInternal@CWnd@@UAEXKI@Z
	DD	FLAT:?ContinueModal@CWnd@@UAEHXZ
	DD	FLAT:?EndModalLoop@CWnd@@UAEXH@Z
	DD	FLAT:?EnsureStdObj@CWnd@@UAEJXZ
	DD	FLAT:?get_accParent@CWnd@@UAEJPAPAUIDispatch@@@Z
	DD	FLAT:?get_accChildCount@CWnd@@UAEJPAJ@Z
	DD	FLAT:?get_accChild@CWnd@@UAEJUtagVARIANT@@PAPAUIDispatch@@@Z
	DD	FLAT:?get_accName@CWnd@@UAEJUtagVARIANT@@PAPA_W@Z
	DD	FLAT:?get_accValue@CWnd@@UAEJUtagVARIANT@@PAPA_W@Z
	DD	FLAT:?get_accDescription@CWnd@@UAEJUtagVARIANT@@PAPA_W@Z
	DD	FLAT:?get_accRole@CWnd@@UAEJUtagVARIANT@@PAU2@@Z
	DD	FLAT:?get_accState@CWnd@@UAEJUtagVARIANT@@PAU2@@Z
	DD	FLAT:?get_accHelp@CWnd@@UAEJUtagVARIANT@@PAPA_W@Z
	DD	FLAT:?get_accHelpTopic@CWnd@@UAEJPAPA_WUtagVARIANT@@PAJ@Z
	DD	FLAT:?get_accKeyboardShortcut@CWnd@@UAEJUtagVARIANT@@PAPA_W@Z
	DD	FLAT:?get_accFocus@CWnd@@UAEJPAUtagVARIANT@@@Z
	DD	FLAT:?get_accSelection@CWnd@@UAEJPAUtagVARIANT@@@Z
	DD	FLAT:?get_accDefaultAction@CWnd@@UAEJUtagVARIANT@@PAPA_W@Z
	DD	FLAT:?accSelect@CWnd@@UAEJJUtagVARIANT@@@Z
	DD	FLAT:?accLocation@CWnd@@UAEJPAJ000UtagVARIANT@@@Z
	DD	FLAT:?accNavigate@CWnd@@UAEJJUtagVARIANT@@PAU2@@Z
	DD	FLAT:?accHitTest@CWnd@@UAEJJJPAUtagVARIANT@@@Z
	DD	FLAT:?accDoDefaultAction@CWnd@@UAEJUtagVARIANT@@@Z
	DD	FLAT:?put_accName@CWnd@@UAEJUtagVARIANT@@PA_W@Z
	DD	FLAT:?put_accValue@CWnd@@UAEJUtagVARIANT@@PA_W@Z
	DD	FLAT:?SetProxy@CWnd@@UAEJPAUIAccessibleProxy@@@Z
	DD	FLAT:?CreateAccessibleProxy@CWnd@@UAEJIJPAJ@Z
	DD	FLAT:?OnCommand@CWnd@@MAEHIJ@Z
	DD	FLAT:?OnNotify@CWnd@@MAEHIJPAJ@Z
	DD	FLAT:?GetSuperWndProcAddr@CWnd@@MAEPAP6GJPAUHWND__@@IIJ@ZXZ
	DD	FLAT:?DoDataExchange@CWnd@@MAEXPAVCDataExchange@@@Z
	DD	FLAT:?BeginModalState@CWnd@@UAEXXZ
	DD	FLAT:?EndModalState@CWnd@@UAEXXZ
	DD	FLAT:?PreTranslateMessage@CLocalMusicCoverList@@UAEHPAUtagMSG@@@Z
	DD	FLAT:?OnAmbientProperty@CWnd@@UAEHPAVCOleControlSite@@JPAUtagVARIANT@@@Z
	DD	FLAT:?WindowProc@CWnd@@MAEJIIJ@Z
	DD	FLAT:?OnWndMsg@CWnd@@MAEHIIJPAJ@Z
	DD	FLAT:?DefWindowProcA@CWnd@@MAEJIIJ@Z
	DD	FLAT:?PostNcDestroy@CWnd@@MAEXXZ
	DD	FLAT:?OnChildNotify@CWnd@@MAEHIIJPAJ@Z
	DD	FLAT:?CheckAutoCenter@CWnd@@UAEHXZ
	DD	FLAT:?IsFrameWnd@CWnd@@UBEHXZ
	DD	FLAT:?CreateControlContainer@CWnd@@MAEHPAPAVCOleControlContainer@@@Z
	DD	FLAT:?CreateControlSite@CWnd@@MAEHPAVCOleControlContainer@@PAPAVCOleControlSite@@IABU_GUID@@@Z
	DD	FLAT:?SetOccDialogInfo@CWnd@@MAEHPAU_AFX_OCC_DIALOG_INFO@@@Z
	DD	FLAT:?OnMoveDraging@CLocalMusicCoverList@@UAEXXZ
	DD	FLAT:?OnEndDrag@CLocalMusicCoverList@@UAEXXZ
CONST	ENDS
;	COMDAT ??_R4CLocalMusicCoverList@@6B@
rdata$r	SEGMENT
??_R4CLocalMusicCoverList@@6B@ DD 00H			; CLocalMusicCoverList::`RTTI Complete Object Locator'
	DD	00H
	DD	00H
	DD	FLAT:??_R0?AVCLocalMusicCoverList@@@8
	DD	FLAT:??_R3CLocalMusicCoverList@@8
rdata$r	ENDS
;	COMDAT ??_R0?AVCLocalMusicCoverList@@@8
_DATA	SEGMENT
??_R0?AVCLocalMusicCoverList@@@8 DD FLAT:??_7type_info@@6B@ ; CLocalMusicCoverList `RTTI Type Descriptor'
	DD	00H
	DB	'.?AVCLocalMusicCoverList@@', 00H
_DATA	ENDS
;	COMDAT ??_R3CLocalMusicCoverList@@8
rdata$r	SEGMENT
??_R3CLocalMusicCoverList@@8 DD 00H			; CLocalMusicCoverList::`RTTI Class Hierarchy Descriptor'
	DD	00H
	DD	04H
	DD	FLAT:??_R2CLocalMusicCoverList@@8
rdata$r	ENDS
;	COMDAT ??_R2CLocalMusicCoverList@@8
rdata$r	SEGMENT
??_R2CLocalMusicCoverList@@8 DD FLAT:??_R1A@?0A@A@CLocalMusicCoverList@@8 ; CLocalMusicCoverList::`RTTI Base Class Array'
	DD	FLAT:??_R1A@?0A@A@CWnd@@8
	DD	FLAT:??_R1A@?0A@A@CCmdTarget@@8
	DD	FLAT:??_R1A@?0A@A@CObject@@8
rdata$r	ENDS
;	COMDAT ??_R1A@?0A@A@CLocalMusicCoverList@@8
rdata$r	SEGMENT
??_R1A@?0A@A@CLocalMusicCoverList@@8 DD FLAT:??_R0?AVCLocalMusicCoverList@@@8 ; CLocalMusicCoverList::`RTTI Base Class Descriptor at (0,-1,0,0)'
	DD	03H
	DD	00H
	DD	0ffffffffH
	DD	00H
	DD	00H
rdata$r	ENDS
;	COMDAT ??_R1A@?0A@A@CWnd@@8
rdata$r	SEGMENT
??_R1A@?0A@A@CWnd@@8 DD FLAT:??_R0?AVCWnd@@@8		; CWnd::`RTTI Base Class Descriptor at (0,-1,0,0)'
	DD	02H
	DD	00H
	DD	0ffffffffH
	DD	00H
	DD	00H
rdata$r	ENDS
;	COMDAT ??_R0?AVCWnd@@@8
_DATA	SEGMENT
??_R0?AVCWnd@@@8 DD FLAT:??_7type_info@@6B@		; CWnd `RTTI Type Descriptor'
	DD	00H
	DB	'.?AVCWnd@@', 00H
_DATA	ENDS
;	COMDAT ??_R1A@?0A@A@CCmdTarget@@8
rdata$r	SEGMENT
??_R1A@?0A@A@CCmdTarget@@8 DD FLAT:??_R0?AVCCmdTarget@@@8 ; CCmdTarget::`RTTI Base Class Descriptor at (0,-1,0,0)'
	DD	01H
	DD	00H
	DD	0ffffffffH
	DD	00H
	DD	00H
rdata$r	ENDS
;	COMDAT ??_R0?AVCCmdTarget@@@8
_DATA	SEGMENT
??_R0?AVCCmdTarget@@@8 DD FLAT:??_7type_info@@6B@	; CCmdTarget `RTTI Type Descriptor'
	DD	00H
	DB	'.?AVCCmdTarget@@', 00H
_DATA	ENDS
;	COMDAT ??_R1A@?0A@A@CObject@@8
rdata$r	SEGMENT
??_R1A@?0A@A@CObject@@8 DD FLAT:??_R0?AVCObject@@@8	; CObject::`RTTI Base Class Descriptor at (0,-1,0,0)'
	DD	00H
	DD	00H
	DD	0ffffffffH
	DD	00H
	DD	00H
rdata$r	ENDS
;	COMDAT ??_R0?AVCObject@@@8
_DATA	SEGMENT
??_R0?AVCObject@@@8 DD FLAT:??_7type_info@@6B@		; CObject `RTTI Type Descriptor'
	DD	00H
	DB	'.?AVCObject@@', 00H
; Function compile flags: /Odt
_DATA	ENDS
_TEXT	SEGMENT
tv274 = -112						; size = 4
tv223 = -108						; size = 4
tv221 = -104						; size = 4
tv213 = -100						; size = 4
_this$ = -96						; size = 4
$T202990 = -92						; size = 28
$T202989 = -64						; size = 28
$T202986 = -36						; size = 4
$T202985 = -32						; size = 4
$T202982 = -28						; size = 4
$T202981 = -24						; size = 4
_pSkinMgr$ = -20					; size = 4
_iValue$ = -16						; size = 4
__$EHRec$ = -12						; size = 12
??0CLocalMusicCoverList@@QAE@XZ PROC NEAR		; CLocalMusicCoverList::CLocalMusicCoverList
; _this$ = ecx

; 35   : {

  00020	55		 push	 ebp
  00021	8b ec		 mov	 ebp, esp
  00023	6a ff		 push	 -1
  00025	68 00 00 00 00	 push	 __ehhandler$??0CLocalMusicCoverList@@QAE@XZ
  0002a	64 a1 00 00 00
	00		 mov	 eax, DWORD PTR fs:__except_list
  00030	50		 push	 eax
  00031	64 89 25 00 00
	00 00		 mov	 DWORD PTR fs:__except_list, esp
  00038	83 ec 64	 sub	 esp, 100		; 00000064H
  0003b	89 4d a0	 mov	 DWORD PTR _this$[ebp], ecx
  0003e	8b 4d a0	 mov	 ecx, DWORD PTR _this$[ebp]
  00041	e8 00 00 00 00	 call	 ??0CWnd@@QAE@XZ		; CWnd::CWnd
  00046	c7 45 fc 00 00
	00 00		 mov	 DWORD PTR __$EHRec$[ebp+8], 0
  0004d	8b 45 a0	 mov	 eax, DWORD PTR _this$[ebp]
  00050	c7 00 00 00 00
	00		 mov	 DWORD PTR [eax], OFFSET FLAT:??_7CLocalMusicCoverList@@6B@
  00056	8b 4d a0	 mov	 ecx, DWORD PTR _this$[ebp]
  00059	c7 41 54 00 00
	00 00		 mov	 DWORD PTR [ecx+84], 0
  00060	8b 55 a0	 mov	 edx, DWORD PTR _this$[ebp]
  00063	c7 42 58 00 00
	00 00		 mov	 DWORD PTR [edx+88], 0
  0006a	8b 45 a0	 mov	 eax, DWORD PTR _this$[ebp]
  0006d	c7 40 5c 01 00
	00 00		 mov	 DWORD PTR [eax+92], 1
  00074	8b 4d a0	 mov	 ecx, DWORD PTR _this$[ebp]
  00077	83 c1 60	 add	 ecx, 96			; 00000060H
  0007a	e8 00 00 00 00	 call	 ??0CDC@@QAE@XZ		; CDC::CDC
  0007f	c6 45 fc 01	 mov	 BYTE PTR __$EHRec$[ebp+8], 1
  00083	8b 4d a0	 mov	 ecx, DWORD PTR _this$[ebp]
  00086	83 c1 70	 add	 ecx, 112		; 00000070H
  00089	e8 00 00 00 00	 call	 ??0CBitmap@@QAE@XZ	; CBitmap::CBitmap
  0008e	c6 45 fc 02	 mov	 BYTE PTR __$EHRec$[ebp+8], 2
  00092	8b 4d a0	 mov	 ecx, DWORD PTR _this$[ebp]
  00095	c7 41 78 00 00
	00 00		 mov	 DWORD PTR [ecx+120], 0
  0009c	8b 4d a0	 mov	 ecx, DWORD PTR _this$[ebp]
  0009f	83 c1 7c	 add	 ecx, 124		; 0000007cH
  000a2	e8 00 00 00 00	 call	 ??0CFont@@QAE@XZ	; CFont::CFont
  000a7	c6 45 fc 03	 mov	 BYTE PTR __$EHRec$[ebp+8], 3
  000ab	8b 4d a0	 mov	 ecx, DWORD PTR _this$[ebp]
  000ae	81 c1 84 00 00
	00		 add	 ecx, 132		; 00000084H
  000b4	e8 00 00 00 00	 call	 ??0CFont@@QAE@XZ	; CFont::CFont
  000b9	c6 45 fc 04	 mov	 BYTE PTR __$EHRec$[ebp+8], 4
  000bd	6a 00		 push	 0
  000bf	6a 00		 push	 0
  000c1	6a 00		 push	 0
  000c3	6a 00		 push	 0
  000c5	8b 4d a0	 mov	 ecx, DWORD PTR _this$[ebp]
  000c8	81 c1 8c 00 00
	00		 add	 ecx, 140		; 0000008cH
  000ce	e8 00 00 00 00	 call	 ??0CRect@@QAE@HHHH@Z	; CRect::CRect
  000d3	6a 00		 push	 0
  000d5	6a 00		 push	 0
  000d7	6a 00		 push	 0
  000d9	6a 00		 push	 0
  000db	8b 4d a0	 mov	 ecx, DWORD PTR _this$[ebp]
  000de	81 c1 9c 00 00
	00		 add	 ecx, 156		; 0000009cH
  000e4	e8 00 00 00 00	 call	 ??0CRect@@QAE@HHHH@Z	; CRect::CRect
  000e9	6a 00		 push	 0
  000eb	6a 00		 push	 0
  000ed	8b 4d a0	 mov	 ecx, DWORD PTR _this$[ebp]
  000f0	81 c1 ac 00 00
	00		 add	 ecx, 172		; 000000acH
  000f6	e8 00 00 00 00	 call	 ??0CPoint@@QAE@HH@Z	; CPoint::CPoint
  000fb	8b 4d a0	 mov	 ecx, DWORD PTR _this$[ebp]
  000fe	81 c1 b4 00 00
	00		 add	 ecx, 180		; 000000b4H
  00104	e8 00 00 00 00	 call	 ??0CCriticalSection@@QAE@XZ ; CCriticalSection::CCriticalSection
  00109	c6 45 fc 05	 mov	 BYTE PTR __$EHRec$[ebp+8], 5
  0010d	8b 4d a0	 mov	 ecx, DWORD PTR _this$[ebp]
  00110	81 c1 d4 00 00
	00		 add	 ecx, 212		; 000000d4H
  00116	e8 00 00 00 00	 call	 ??0?$deque@VCPoint@@V?$allocator@VCPoint@@@std@@@std@@QAE@XZ ; std::deque<CPoint,std::allocator<CPoint> >::deque<CPoint,std::allocator<CPoint> >
  0011b	c6 45 fc 06	 mov	 BYTE PTR __$EHRec$[ebp+8], 6
  0011f	8b 4d a0	 mov	 ecx, DWORD PTR _this$[ebp]
  00122	81 c1 ec 00 00
	00		 add	 ecx, 236		; 000000ecH
  00128	e8 00 00 00 00	 call	 ??0GdiRes@@QAE@XZ	; GdiRes::GdiRes
  0012d	8b 55 a0	 mov	 edx, DWORD PTR _this$[ebp]
  00130	c7 82 f8 00 00
	00 00 00 00 00	 mov	 DWORD PTR [edx+248], 0
  0013a	8b 45 a0	 mov	 eax, DWORD PTR _this$[ebp]
  0013d	c7 80 fc 00 00
	00 ff ff ff ff	 mov	 DWORD PTR [eax+252], -1
  00147	8b 4d a0	 mov	 ecx, DWORD PTR _this$[ebp]
  0014a	81 c1 00 01 00
	00		 add	 ecx, 256		; 00000100H
  00150	e8 00 00 00 00	 call	 ??0CDC@@QAE@XZ		; CDC::CDC
  00155	c6 45 fc 07	 mov	 BYTE PTR __$EHRec$[ebp+8], 7
  00159	8b 4d a0	 mov	 ecx, DWORD PTR _this$[ebp]
  0015c	81 c1 10 01 00
	00		 add	 ecx, 272		; 00000110H
  00162	e8 00 00 00 00	 call	 ??0CBitmap@@QAE@XZ	; CBitmap::CBitmap
  00167	c6 45 fc 08	 mov	 BYTE PTR __$EHRec$[ebp+8], 8
  0016b	8b 4d a0	 mov	 ecx, DWORD PTR _this$[ebp]
  0016e	c7 81 18 01 00
	00 00 00 00 00	 mov	 DWORD PTR [ecx+280], 0
  00178	6a ff		 push	 -1
  0017a	6a ff		 push	 -1
  0017c	8b 4d a0	 mov	 ecx, DWORD PTR _this$[ebp]
  0017f	81 c1 1c 01 00
	00		 add	 ecx, 284		; 0000011cH
  00185	e8 00 00 00 00	 call	 ??0CPoint@@QAE@HH@Z	; CPoint::CPoint
  0018a	6a 00		 push	 0
  0018c	6a 00		 push	 0
  0018e	6a 00		 push	 0
  00190	6a 00		 push	 0
  00192	8b 4d a0	 mov	 ecx, DWORD PTR _this$[ebp]
  00195	81 c1 28 01 00
	00		 add	 ecx, 296		; 00000128H
  0019b	e8 00 00 00 00	 call	 ??0CRect@@QAE@HHHH@Z	; CRect::CRect
  001a0	8b 55 a0	 mov	 edx, DWORD PTR _this$[ebp]
  001a3	c7 82 38 01 00
	00 00 00 00 00	 mov	 DWORD PTR [edx+312], 0
  001ad	8b 45 a0	 mov	 eax, DWORD PTR _this$[ebp]
  001b0	c7 80 44 01 00
	00 00 00 00 00	 mov	 DWORD PTR [eax+324], 0
  001ba	8b 4d a0	 mov	 ecx, DWORD PTR _this$[ebp]
  001bd	c7 81 50 01 00
	00 00 00 00 00	 mov	 DWORD PTR [ecx+336], 0
  001c7	8b 55 a0	 mov	 edx, DWORD PTR _this$[ebp]
  001ca	c7 82 54 01 00
	00 00 00 00 00	 mov	 DWORD PTR [edx+340], 0
  001d4	8b 45 a0	 mov	 eax, DWORD PTR _this$[ebp]
  001d7	c6 80 58 01 00
	00 00		 mov	 BYTE PTR [eax+344], 0
  001de	8b 4d a0	 mov	 ecx, DWORD PTR _this$[ebp]
  001e1	c7 81 5c 01 00
	00 00 00 00 00	 mov	 DWORD PTR [ecx+348], 0
  001eb	8b 55 a0	 mov	 edx, DWORD PTR _this$[ebp]
  001ee	c7 82 64 01 00
	00 00 00 00 00	 mov	 DWORD PTR [edx+356], 0
  001f8	8b 4d a0	 mov	 ecx, DWORD PTR _this$[ebp]
  001fb	81 c1 68 01 00
	00		 add	 ecx, 360		; 00000168H
  00201	e8 00 00 00 00	 call	 ??0CLMCDataMgr@@QAE@XZ	; CLMCDataMgr::CLMCDataMgr
  00206	c6 45 fc 09	 mov	 BYTE PTR __$EHRec$[ebp+8], 9
  0020a	8b 45 a0	 mov	 eax, DWORD PTR _this$[ebp]
  0020d	c7 80 78 01 00
	00 00 00 00 00	 mov	 DWORD PTR [eax+376], 0

; 36   : 	m_pBitmapYes=new CBitmap();

  00217	6a 08		 push	 8
  00219	e8 00 00 00 00	 call	 ??2CObject@@SGPAXI@Z	; CObject::operator new
  0021e	89 45 e4	 mov	 DWORD PTR $T202982[ebp], eax
  00221	c6 45 fc 0a	 mov	 BYTE PTR __$EHRec$[ebp+8], 10 ; 0000000aH
  00225	83 7d e4 00	 cmp	 DWORD PTR $T202982[ebp], 0
  00229	74 0d		 je	 SHORT $L202983
  0022b	8b 4d e4	 mov	 ecx, DWORD PTR $T202982[ebp]
  0022e	e8 00 00 00 00	 call	 ??0CBitmap@@QAE@XZ	; CBitmap::CBitmap
  00233	89 45 9c	 mov	 DWORD PTR tv213[ebp], eax
  00236	eb 07		 jmp	 SHORT $L202984
$L202983:
  00238	c7 45 9c 00 00
	00 00		 mov	 DWORD PTR tv213[ebp], 0
$L202984:
  0023f	8b 4d 9c	 mov	 ecx, DWORD PTR tv213[ebp]
  00242	89 4d e8	 mov	 DWORD PTR $T202981[ebp], ecx
  00245	c6 45 fc 09	 mov	 BYTE PTR __$EHRec$[ebp+8], 9
  00249	8b 55 a0	 mov	 edx, DWORD PTR _this$[ebp]
  0024c	8b 45 e8	 mov	 eax, DWORD PTR $T202981[ebp]
  0024f	89 82 48 01 00
	00		 mov	 DWORD PTR [edx+328], eax

; 37   : 	m_pBitmapNo=new CBitmap();

  00255	6a 08		 push	 8
  00257	e8 00 00 00 00	 call	 ??2CObject@@SGPAXI@Z	; CObject::operator new
  0025c	89 45 dc	 mov	 DWORD PTR $T202986[ebp], eax
  0025f	c6 45 fc 0b	 mov	 BYTE PTR __$EHRec$[ebp+8], 11 ; 0000000bH
  00263	83 7d dc 00	 cmp	 DWORD PTR $T202986[ebp], 0
  00267	74 0d		 je	 SHORT $L202987
  00269	8b 4d dc	 mov	 ecx, DWORD PTR $T202986[ebp]
  0026c	e8 00 00 00 00	 call	 ??0CBitmap@@QAE@XZ	; CBitmap::CBitmap
  00271	89 45 98	 mov	 DWORD PTR tv221[ebp], eax
  00274	eb 07		 jmp	 SHORT $L202988
$L202987:
  00276	c7 45 98 00 00
	00 00		 mov	 DWORD PTR tv221[ebp], 0
$L202988:
  0027d	8b 4d 98	 mov	 ecx, DWORD PTR tv221[ebp]
  00280	89 4d e0	 mov	 DWORD PTR $T202985[ebp], ecx
  00283	c6 45 fc 09	 mov	 BYTE PTR __$EHRec$[ebp+8], 9
  00287	8b 55 a0	 mov	 edx, DWORD PTR _this$[ebp]
  0028a	8b 45 e0	 mov	 eax, DWORD PTR $T202985[ebp]
  0028d	89 82 4c 01 00
	00		 mov	 DWORD PTR [edx+332], eax

; 38   : 	ISkinMgr*	pSkinMgr = AfxGetUIManager()->UIGetSkinMgr();

  00293	e8 00 00 00 00	 call	 ?AfxGetUIManager@@YAPAVIUIManager@@XZ ; AfxGetUIManager
  00298	89 45 94	 mov	 DWORD PTR tv223[ebp], eax
  0029b	8b 4d 94	 mov	 ecx, DWORD PTR tv223[ebp]
  0029e	8b 11		 mov	 edx, DWORD PTR [ecx]
  002a0	8b 4d 94	 mov	 ecx, DWORD PTR tv223[ebp]
  002a3	ff 52 28	 call	 DWORD PTR [edx+40]
  002a6	89 45 ec	 mov	 DWORD PTR _pSkinMgr$[ebp], eax

; 39   : 	SetScrollBitmap(pSkinMgr->GetDibBmp("ScrollVert"), pSkinMgr->GetDibBmp("ScrollHorz"));

  002a9	68 00 00 00 00	 push	 OFFSET FLAT:$SG199859
  002ae	8b 45 ec	 mov	 eax, DWORD PTR _pSkinMgr$[ebp]
  002b1	8b 10		 mov	 edx, DWORD PTR [eax]
  002b3	8b 4d ec	 mov	 ecx, DWORD PTR _pSkinMgr$[ebp]
  002b6	ff 52 04	 call	 DWORD PTR [edx+4]
  002b9	50		 push	 eax
  002ba	68 00 00 00 00	 push	 OFFSET FLAT:$SG199860
  002bf	8b 45 ec	 mov	 eax, DWORD PTR _pSkinMgr$[ebp]
  002c2	8b 10		 mov	 edx, DWORD PTR [eax]
  002c4	8b 4d ec	 mov	 ecx, DWORD PTR _pSkinMgr$[ebp]
  002c7	ff 52 04	 call	 DWORD PTR [edx+4]
  002ca	50		 push	 eax
  002cb	8b 4d a0	 mov	 ecx, DWORD PTR _this$[ebp]
  002ce	e8 00 00 00 00	 call	 ?SetScrollBitmap@CLocalMusicCoverList@@QAEXPAVCDibBitmap@@0@Z ; CLocalMusicCoverList::SetScrollBitmap

; 40   : 	m_gdires.colDetail = pSkinMgr->GetColor( "PlayedGameDetailTextColor" );

  002d3	68 00 00 00 00	 push	 OFFSET FLAT:$SG199861
  002d8	8b 45 ec	 mov	 eax, DWORD PTR _pSkinMgr$[ebp]
  002db	8b 10		 mov	 edx, DWORD PTR [eax]
  002dd	8b 4d ec	 mov	 ecx, DWORD PTR _pSkinMgr$[ebp]
  002e0	ff 52 08	 call	 DWORD PTR [edx+8]
  002e3	8b 4d a0	 mov	 ecx, DWORD PTR _this$[ebp]
  002e6	89 81 f4 00 00
	00		 mov	 DWORD PTR [ecx+244], eax

; 41   : 	m_gdires.colListBK = pSkinMgr->GetColor( "PlayedGameBkColor" );

  002ec	68 00 00 00 00	 push	 OFFSET FLAT:$SG199862
  002f1	8b 55 ec	 mov	 edx, DWORD PTR _pSkinMgr$[ebp]
  002f4	8b 02		 mov	 eax, DWORD PTR [edx]
  002f6	8b 4d ec	 mov	 ecx, DWORD PTR _pSkinMgr$[ebp]
  002f9	ff 50 08	 call	 DWORD PTR [eax+8]
  002fc	8b 4d a0	 mov	 ecx, DWORD PTR _this$[ebp]
  002ff	89 81 ec 00 00
	00		 mov	 DWORD PTR [ecx+236], eax

; 42   : 	m_gdires.colName = pSkinMgr->GetColor( "PlayedGameNameColor" );

  00305	68 00 00 00 00	 push	 OFFSET FLAT:$SG199863
  0030a	8b 55 ec	 mov	 edx, DWORD PTR _pSkinMgr$[ebp]
  0030d	8b 02		 mov	 eax, DWORD PTR [edx]
  0030f	8b 4d ec	 mov	 ecx, DWORD PTR _pSkinMgr$[ebp]
  00312	ff 50 08	 call	 DWORD PTR [eax+8]
  00315	8b 4d a0	 mov	 ecx, DWORD PTR _this$[ebp]
  00318	89 81 f0 00 00
	00		 mov	 DWORD PTR [ecx+240], eax

; 43   : 	
; 44   : 	int iValue = 0;

  0031e	c7 45 f0 00 00
	00 00		 mov	 DWORD PTR _iValue$[ebp], 0

; 45   : 	AfxGetUserConfig()->GetConfigIntValue( CONF_APP_MODULE_NAME,CONF_APP_PLAYED_ICON_SIZE, iValue);

  00325	8b 15 00 00 00
	00		 mov	 edx, DWORD PTR _CONF_APP_PLAYED_ICON_SIZE
  0032b	52		 push	 edx
  0032c	8d 4d c0	 lea	 ecx, DWORD PTR $T202989[ebp]
  0032f	ff 15 00 00 00
	00		 call	 DWORD PTR __imp_??0?$basic_string@DU?$char_traits@D@std@@V?$allocator@D@2@@std@@QAE@PBD@Z
  00335	c6 45 fc 0c	 mov	 BYTE PTR __$EHRec$[ebp+8], 12 ; 0000000cH
  00339	a1 00 00 00 00	 mov	 eax, DWORD PTR _CONF_APP_MODULE_NAME
  0033e	50		 push	 eax
  0033f	8d 4d a4	 lea	 ecx, DWORD PTR $T202990[ebp]
  00342	ff 15 00 00 00
	00		 call	 DWORD PTR __imp_??0?$basic_string@DU?$char_traits@D@std@@V?$allocator@D@2@@std@@QAE@PBD@Z
  00348	c6 45 fc 0d	 mov	 BYTE PTR __$EHRec$[ebp+8], 13 ; 0000000dH
  0034c	8d 4d f0	 lea	 ecx, DWORD PTR _iValue$[ebp]
  0034f	51		 push	 ecx
  00350	8d 55 c0	 lea	 edx, DWORD PTR $T202989[ebp]
  00353	52		 push	 edx
  00354	8d 45 a4	 lea	 eax, DWORD PTR $T202990[ebp]
  00357	50		 push	 eax
  00358	e8 00 00 00 00	 call	 ?AfxGetUserConfig@@YAPAVAfxUserConfig@@XZ ; AfxGetUserConfig
  0035d	8b c8		 mov	 ecx, eax
  0035f	e8 00 00 00 00	 call	 ?GetConfigIntValue@AfxUserConfig@@QAEXABV?$basic_string@DU?$char_traits@D@std@@V?$allocator@D@2@@std@@0AAH@Z ; AfxUserConfig::GetConfigIntValue
  00364	c6 45 fc 0c	 mov	 BYTE PTR __$EHRec$[ebp+8], 12 ; 0000000cH
  00368	8d 4d a4	 lea	 ecx, DWORD PTR $T202990[ebp]
  0036b	ff 15 00 00 00
	00		 call	 DWORD PTR __imp_??1?$basic_string@DU?$char_traits@D@std@@V?$allocator@D@2@@std@@QAE@XZ
  00371	c6 45 fc 09	 mov	 BYTE PTR __$EHRec$[ebp+8], 9
  00375	8d 4d c0	 lea	 ecx, DWORD PTR $T202989[ebp]
  00378	ff 15 00 00 00
	00		 call	 DWORD PTR __imp_??1?$basic_string@DU?$char_traits@D@std@@V?$allocator@D@2@@std@@QAE@XZ

; 46   : 	switch( iValue )

  0037e	8b 4d f0	 mov	 ecx, DWORD PTR _iValue$[ebp]
  00381	89 4d 90	 mov	 DWORD PTR tv274[ebp], ecx
  00384	83 7d 90 00	 cmp	 DWORD PTR tv274[ebp], 0
  00388	74 08		 je	 SHORT $L199871
  0038a	83 7d 90 01	 cmp	 DWORD PTR tv274[ebp], 1
  0038e	74 10		 je	 SHORT $L199872
  00390	eb 1c		 jmp	 SHORT $L199873
$L199871:

; 47   : 	{
; 48   : 	case 0: //
; 49   : 		SetItemWH(80,80);

  00392	6a 50		 push	 80			; 00000050H
  00394	6a 50		 push	 80			; 00000050H
  00396	8b 4d a0	 mov	 ecx, DWORD PTR _this$[ebp]
  00399	e8 00 00 00 00	 call	 ?SetItemWH@CLocalMusicCoverList@@QAEXHH@Z ; CLocalMusicCoverList::SetItemWH

; 50   : 		break;

  0039e	eb 20		 jmp	 SHORT $L199849
$L199872:

; 51   : 	case 1:
; 52   : 		SetItemWH(100,100);

  003a0	6a 64		 push	 100			; 00000064H
  003a2	6a 64		 push	 100			; 00000064H
  003a4	8b 4d a0	 mov	 ecx, DWORD PTR _this$[ebp]
  003a7	e8 00 00 00 00	 call	 ?SetItemWH@CLocalMusicCoverList@@QAEXHH@Z ; CLocalMusicCoverList::SetItemWH

; 53   : 		break;

  003ac	eb 12		 jmp	 SHORT $L199849
$L199873:

; 54   : 	default:
; 55   : 		SetItemWH(130,130);

  003ae	68 82 00 00 00	 push	 130			; 00000082H
  003b3	68 82 00 00 00	 push	 130			; 00000082H
  003b8	8b 4d a0	 mov	 ecx, DWORD PTR _this$[ebp]
  003bb	e8 00 00 00 00	 call	 ?SetItemWH@CLocalMusicCoverList@@QAEXHH@Z ; CLocalMusicCoverList::SetItemWH
$L199849:

; 56   : 		break;
; 57   : 	}
; 58   : }

  003c0	c7 45 fc ff ff
	ff ff		 mov	 DWORD PTR __$EHRec$[ebp+8], -1
  003c7	8b 45 a0	 mov	 eax, DWORD PTR _this$[ebp]
  003ca	8b 4d f4	 mov	 ecx, DWORD PTR __$EHRec$[ebp]
  003cd	64 89 0d 00 00
	00 00		 mov	 DWORD PTR fs:__except_list, ecx
  003d4	8b e5		 mov	 esp, ebp
  003d6	5d		 pop	 ebp
  003d7	c3		 ret	 0
_TEXT	ENDS
text$x	SEGMENT
$L202991:
  00000	8b 4d a0	 mov	 ecx, DWORD PTR _this$[ebp]
  00003	e9 00 00 00 00	 jmp	 ??1CWnd@@UAE@XZ		; CWnd::~CWnd
$L202992:
  00008	8b 4d a0	 mov	 ecx, DWORD PTR _this$[ebp]
  0000b	83 c1 60	 add	 ecx, 96			; 00000060H
  0000e	e9 00 00 00 00	 jmp	 ??1CDC@@UAE@XZ		; CDC::~CDC
$L202993:
  00013	8b 4d a0	 mov	 ecx, DWORD PTR _this$[ebp]
  00016	83 c1 70	 add	 ecx, 112		; 00000070H
  00019	e9 00 00 00 00	 jmp	 ??1CBitmap@@UAE@XZ	; CBitmap::~CBitmap
$L202994:
  0001e	8b 4d a0	 mov	 ecx, DWORD PTR _this$[ebp]
  00021	83 c1 7c	 add	 ecx, 124		; 0000007cH
  00024	e9 00 00 00 00	 jmp	 ??1CFont@@UAE@XZ	; CFont::~CFont
$L202995:
  00029	8b 4d a0	 mov	 ecx, DWORD PTR _this$[ebp]
  0002c	81 c1 84 00 00
	00		 add	 ecx, 132		; 00000084H
  00032	e9 00 00 00 00	 jmp	 ??1CFont@@UAE@XZ	; CFont::~CFont
$L202996:
  00037	8b 4d a0	 mov	 ecx, DWORD PTR _this$[ebp]
  0003a	81 c1 b4 00 00
	00		 add	 ecx, 180		; 000000b4H
  00040	e9 00 00 00 00	 jmp	 ??1CCriticalSection@@UAE@XZ ; CCriticalSection::~CCriticalSection
$L202997:
  00045	8b 4d a0	 mov	 ecx, DWORD PTR _this$[ebp]
  00048	81 c1 d4 00 00
	00		 add	 ecx, 212		; 000000d4H
  0004e	e9 00 00 00 00	 jmp	 ??1?$deque@VCPoint@@V?$allocator@VCPoint@@@std@@@std@@QAE@XZ ; std::deque<CPoint,std::allocator<CPoint> >::~deque<CPoint,std::allocator<CPoint> >
$L202998:
  00053	8b 4d a0	 mov	 ecx, DWORD PTR _this$[ebp]
  00056	81 c1 00 01 00
	00		 add	 ecx, 256		; 00000100H
  0005c	e9 00 00 00 00	 jmp	 ??1CDC@@UAE@XZ		; CDC::~CDC
$L202999:
  00061	8b 4d a0	 mov	 ecx, DWORD PTR _this$[ebp]
  00064	81 c1 10 01 00
	00		 add	 ecx, 272		; 00000110H
  0006a	e9 00 00 00 00	 jmp	 ??1CBitmap@@UAE@XZ	; CBitmap::~CBitmap
$L203000:
  0006f	8b 4d a0	 mov	 ecx, DWORD PTR _this$[ebp]
  00072	81 c1 68 01 00
	00		 add	 ecx, 360		; 00000168H
  00078	e9 00 00 00 00	 jmp	 ??1CLMCDataMgr@@QAE@XZ	; CLMCDataMgr::~CLMCDataMgr
$L203001:
  0007d	8b 45 e4	 mov	 eax, DWORD PTR $T202982[ebp]
  00080	50		 push	 eax
  00081	e8 00 00 00 00	 call	 ??3CObject@@SGXPAX@Z	; CObject::operator delete
  00086	c3		 ret	 0
$L203002:
  00087	8b 45 dc	 mov	 eax, DWORD PTR $T202986[ebp]
  0008a	50		 push	 eax
  0008b	e8 00 00 00 00	 call	 ??3CObject@@SGXPAX@Z	; CObject::operator delete
  00090	c3		 ret	 0
$L203003:
  00091	8d 4d c0	 lea	 ecx, DWORD PTR $T202989[ebp]
  00094	ff 25 00 00 00
	00		 jmp	 DWORD PTR __imp_??1?$basic_string@DU?$char_traits@D@std@@V?$allocator@D@2@@std@@QAE@XZ
$L203004:
  0009a	8d 4d a4	 lea	 ecx, DWORD PTR $T202990[ebp]
  0009d	ff 25 00 00 00
	00		 jmp	 DWORD PTR __imp_??1?$basic_string@DU?$char_traits@D@std@@V?$allocator@D@2@@std@@QAE@XZ
__ehhandler$??0CLocalMusicCoverList@@QAE@XZ:
  000a3	b8 00 00 00 00	 mov	 eax, OFFSET FLAT:$T203008
  000a8	e9 00 00 00 00	 jmp	 ___CxxFrameHandler
text$x	ENDS
??0CLocalMusicCoverList@@QAE@XZ ENDP			; CLocalMusicCoverList::CLocalMusicCoverList
PUBLIC	??_R4CCriticalSection@@6B@			; CCriticalSection::`RTTI Complete Object Locator'
PUBLIC	??_R0?AVCCriticalSection@@@8			; CCriticalSection `RTTI Type Descriptor'
PUBLIC	??_R3CCriticalSection@@8			; CCriticalSection::`RTTI Class Hierarchy Descriptor'
PUBLIC	??_R2CCriticalSection@@8			; CCriticalSection::`RTTI Base Class Array'
PUBLIC	??_R1A@?0A@A@CCriticalSection@@8		; CCriticalSection::`RTTI Base Class Descriptor at (0,-1,0,0)'
PUBLIC	??_R1A@?0A@A@CSyncObject@@8			; CSyncObject::`RTTI Base Class Descriptor at (0,-1,0,0)'
PUBLIC	??_R0?AVCSyncObject@@@8				; CSyncObject `RTTI Type Descriptor'
PUBLIC	?Unlock@CSyncObject@@UAEHJPAJ@Z			; CSyncObject::Unlock
PUBLIC	?Unlock@CCriticalSection@@UAEHXZ		; CCriticalSection::Unlock
PUBLIC	?Lock@CCriticalSection@@UAEHK@Z			; CCriticalSection::Lock
PUBLIC	?Init@CCriticalSection@@AAEHXZ			; CCriticalSection::Init
PUBLIC	??_7CCriticalSection@@6B@			; CCriticalSection::`vftable'
PUBLIC	??_GCCriticalSection@@UAEPAXI@Z			; CCriticalSection::`scalar deleting destructor'
EXTRN	?AfxThrowMemoryException@@YGXXZ:NEAR		; AfxThrowMemoryException
EXTRN	??0CSyncObject@@QAE@PBD@Z:NEAR			; CSyncObject::CSyncObject
EXTRN	??1CSyncObject@@UAE@XZ:NEAR			; CSyncObject::~CSyncObject
EXTRN	?GetRuntimeClass@CCriticalSection@@UBEPAUCRuntimeClass@@XZ:NEAR ; CCriticalSection::GetRuntimeClass
EXTRN	??_ECCriticalSection@@UAEPAXI@Z:NEAR		; CCriticalSection::`vector deleting destructor'
;	COMDAT xdata$x
; File d:\program files (x86)\microsoft visual studio .net 2003\vc7\atlmfc\include\afxmt.inl
xdata$x	SEGMENT
$T203018 DD	0ffffffffH
	DD	FLAT:$L203014
$T203016 DD	019930520H
	DD	01H
	DD	FLAT:$T203018
	DD	2 DUP(00H)
	DD	2 DUP(00H)
xdata$x	ENDS
;	COMDAT ??_7CCriticalSection@@6B@
CONST	SEGMENT
??_7CCriticalSection@@6B@ DD FLAT:??_R4CCriticalSection@@6B@ ; CCriticalSection::`vftable'
	DD	FLAT:?GetRuntimeClass@CCriticalSection@@UBEPAUCRuntimeClass@@XZ
	DD	FLAT:??_ECCriticalSection@@UAEPAXI@Z
	DD	FLAT:?Serialize@CObject@@UAEXAAVCArchive@@@Z
	DD	FLAT:?AssertValid@CObject@@UBEXXZ
	DD	FLAT:?Dump@CObject@@UBEXAAVCDumpContext@@@Z
	DD	FLAT:?Lock@CCriticalSection@@UAEHK@Z
	DD	FLAT:?Unlock@CSyncObject@@UAEHJPAJ@Z
	DD	FLAT:?Unlock@CCriticalSection@@UAEHXZ
CONST	ENDS
;	COMDAT ??_R4CCriticalSection@@6B@
rdata$r	SEGMENT
??_R4CCriticalSection@@6B@ DD 00H			; CCriticalSection::`RTTI Complete Object Locator'
	DD	00H
	DD	00H
	DD	FLAT:??_R0?AVCCriticalSection@@@8
	DD	FLAT:??_R3CCriticalSection@@8
rdata$r	ENDS
;	COMDAT ??_R0?AVCCriticalSection@@@8
_DATA	SEGMENT
??_R0?AVCCriticalSection@@@8 DD FLAT:??_7type_info@@6B@	; CCriticalSection `RTTI Type Descriptor'
	DD	00H
	DB	'.?AVCCriticalSection@@', 00H
_DATA	ENDS
;	COMDAT ??_R3CCriticalSection@@8
rdata$r	SEGMENT
??_R3CCriticalSection@@8 DD 00H				; CCriticalSection::`RTTI Class Hierarchy Descriptor'
	DD	00H
	DD	03H
	DD	FLAT:??_R2CCriticalSection@@8
rdata$r	ENDS
;	COMDAT ??_R2CCriticalSection@@8
rdata$r	SEGMENT
??_R2CCriticalSection@@8 DD FLAT:??_R1A@?0A@A@CCriticalSection@@8 ; CCriticalSection::`RTTI Base Class Array'
	DD	FLAT:??_R1A@?0A@A@CSyncObject@@8
	DD	FLAT:??_R1A@?0A@A@CObject@@8
rdata$r	ENDS
;	COMDAT ??_R1A@?0A@A@CCriticalSection@@8
rdata$r	SEGMENT
??_R1A@?0A@A@CCriticalSection@@8 DD FLAT:??_R0?AVCCriticalSection@@@8 ; CCriticalSection::`RTTI Base Class Descriptor at (0,-1,0,0)'
	DD	02H
	DD	00H
	DD	0ffffffffH
	DD	00H
	DD	00H
rdata$r	ENDS
;	COMDAT ??_R1A@?0A@A@CSyncObject@@8
rdata$r	SEGMENT
??_R1A@?0A@A@CSyncObject@@8 DD FLAT:??_R0?AVCSyncObject@@@8 ; CSyncObject::`RTTI Base Class Descriptor at (0,-1,0,0)'
	DD	01H
	DD	00H
	DD	0ffffffffH
	DD	00H
	DD	00H
rdata$r	ENDS
;	COMDAT ??_R0?AVCSyncObject@@@8
_DATA	SEGMENT
??_R0?AVCSyncObject@@@8 DD FLAT:??_7type_info@@6B@	; CSyncObject `RTTI Type Descriptor'
	DD	00H
	DB	'.?AVCSyncObject@@', 00H
; Function compile flags: /Odt
_DATA	ENDS
;	COMDAT ??0CCriticalSection@@QAE@XZ
_TEXT	SEGMENT
_this$ = -20						; size = 4
_bSuccess$ = -16					; size = 4
__$EHRec$ = -12						; size = 12
??0CCriticalSection@@QAE@XZ PROC NEAR			; CCriticalSection::CCriticalSection, COMDAT
; _this$ = ecx

; 56   : 	{ 	

  00000	55		 push	 ebp
  00001	8b ec		 mov	 ebp, esp
  00003	6a ff		 push	 -1
  00005	68 00 00 00 00	 push	 __ehhandler$??0CCriticalSection@@QAE@XZ
  0000a	64 a1 00 00 00
	00		 mov	 eax, DWORD PTR fs:__except_list
  00010	50		 push	 eax
  00011	64 89 25 00 00
	00 00		 mov	 DWORD PTR fs:__except_list, esp
  00018	83 ec 08	 sub	 esp, 8
  0001b	89 4d ec	 mov	 DWORD PTR _this$[ebp], ecx
  0001e	6a 00		 push	 0
  00020	8b 4d ec	 mov	 ecx, DWORD PTR _this$[ebp]
  00023	e8 00 00 00 00	 call	 ??0CSyncObject@@QAE@PBD@Z ; CSyncObject::CSyncObject
  00028	c7 45 fc 00 00
	00 00		 mov	 DWORD PTR __$EHRec$[ebp+8], 0
  0002f	8b 45 ec	 mov	 eax, DWORD PTR _this$[ebp]
  00032	c7 00 00 00 00
	00		 mov	 DWORD PTR [eax], OFFSET FLAT:??_7CCriticalSection@@6B@

; 57   : 		BOOL bSuccess;
; 58   : 
; 59   : 		bSuccess = Init();

  00038	8b 4d ec	 mov	 ecx, DWORD PTR _this$[ebp]
  0003b	e8 00 00 00 00	 call	 ?Init@CCriticalSection@@AAEHXZ ; CCriticalSection::Init
  00040	89 45 f0	 mov	 DWORD PTR _bSuccess$[ebp], eax

; 60   : 		if (!bSuccess)

  00043	83 7d f0 00	 cmp	 DWORD PTR _bSuccess$[ebp], 0
  00047	75 05		 jne	 SHORT $L197587

; 61   : 			AfxThrowMemoryException();

  00049	e8 00 00 00 00	 call	 ?AfxThrowMemoryException@@YGXXZ ; AfxThrowMemoryException
$L197587:

; 62   : 	}

  0004e	c7 45 fc ff ff
	ff ff		 mov	 DWORD PTR __$EHRec$[ebp+8], -1
  00055	8b 45 ec	 mov	 eax, DWORD PTR _this$[ebp]
$L203013:
  00058	8b 4d f4	 mov	 ecx, DWORD PTR __$EHRec$[ebp]
  0005b	64 89 0d 00 00
	00 00		 mov	 DWORD PTR fs:__except_list, ecx
  00062	8b e5		 mov	 esp, ebp
  00064	5d		 pop	 ebp
  00065	c3		 ret	 0
_TEXT	ENDS
;	COMDAT text$x
text$x	SEGMENT
$L203014:
  00000	8b 4d ec	 mov	 ecx, DWORD PTR _this$[ebp]
  00003	e9 00 00 00 00	 jmp	 ??1CSyncObject@@UAE@XZ	; CSyncObject::~CSyncObject
__ehhandler$??0CCriticalSection@@QAE@XZ:
  00008	b8 00 00 00 00	 mov	 eax, OFFSET FLAT:$T203016
  0000d	e9 00 00 00 00	 jmp	 ___CxxFrameHandler
text$x	ENDS
??0CCriticalSection@@QAE@XZ ENDP			; CCriticalSection::CCriticalSection
; Function compile flags: /Odt
; File d:\program files (x86)\microsoft visual studio .net 2003\vc7\atlmfc\include\afxmt.h
;	COMDAT ?Unlock@CSyncObject@@UAEHJPAJ@Z
_TEXT	SEGMENT
_this$ = -4						; size = 4
___formal$ = 8						; size = 4
___formal$ = 12						; size = 4
?Unlock@CSyncObject@@UAEHJPAJ@Z PROC NEAR		; CSyncObject::Unlock, COMDAT
; _this$ = ecx

; 71   : 		{ return TRUE; }

  00000	55		 push	 ebp
  00001	8b ec		 mov	 ebp, esp
  00003	51		 push	 ecx
  00004	89 4d fc	 mov	 DWORD PTR _this$[ebp], ecx
  00007	b8 01 00 00 00	 mov	 eax, 1
  0000c	8b e5		 mov	 esp, ebp
  0000e	5d		 pop	 ebp
  0000f	c2 08 00	 ret	 8
?Unlock@CSyncObject@@UAEHJPAJ@Z ENDP			; CSyncObject::Unlock
_TEXT	ENDS
EXTRN	__except_handler3:NEAR
EXTRN	__imp__InitializeCriticalSection@4:NEAR
;	COMDAT CONST
; File d:\program files (x86)\microsoft visual studio .net 2003\vc7\atlmfc\include\afxmt.inl
CONST	SEGMENT
$T203030 DD	0ffffffffH
	DD	FLAT:$L203026
	DD	FLAT:$L203027
; Function compile flags: /Odt
CONST	ENDS
;	COMDAT ?Init@CCriticalSection@@AAEHXZ
_TEXT	SEGMENT
tv68 = -32						; size = 4
_this$ = -28						; size = 4
__$SEHRec$ = -24					; size = 24
?Init@CCriticalSection@@AAEHXZ PROC NEAR		; CCriticalSection::Init, COMDAT
; _this$ = ecx

; 42   : {

  00000	55		 push	 ebp
  00001	8b ec		 mov	 ebp, esp
  00003	6a ff		 push	 -1
  00005	68 00 00 00 00	 push	 OFFSET FLAT:$T203030
  0000a	68 00 00 00 00	 push	 OFFSET FLAT:__except_handler3
  0000f	64 a1 00 00 00
	00		 mov	 eax, DWORD PTR fs:__except_list
  00015	50		 push	 eax
  00016	64 89 25 00 00
	00 00		 mov	 DWORD PTR fs:__except_list, esp
  0001d	83 c4 f0	 add	 esp, -16		; fffffff0H
  00020	53		 push	 ebx
  00021	56		 push	 esi
  00022	57		 push	 edi
  00023	89 65 e8	 mov	 DWORD PTR __$SEHRec$[ebp], esp
  00026	89 4d e4	 mov	 DWORD PTR _this$[ebp], ecx

; 43   : 	__try

  00029	c7 45 fc 00 00
	00 00		 mov	 DWORD PTR __$SEHRec$[ebp+20], 0

; 44   : 	{
; 45   : 		::InitializeCriticalSection(&m_sect);

  00030	8b 45 e4	 mov	 eax, DWORD PTR _this$[ebp]
  00033	83 c0 08	 add	 eax, 8
  00036	50		 push	 eax
  00037	ff 15 00 00 00
	00		 call	 DWORD PTR __imp__InitializeCriticalSection@4
  0003d	c7 45 fc ff ff
	ff ff		 mov	 DWORD PTR __$SEHRec$[ebp+20], -1
  00044	eb 1c		 jmp	 SHORT $L203029
$L203026:
$L203034:

; 46   : 	}
; 47   : 	__except( EXCEPTION_EXECUTE_HANDLER )

  00046	b8 01 00 00 00	 mov	 eax, 1
$L203028:
$L203033:
  0004b	c3		 ret	 0
$L203027:
  0004c	8b 65 e8	 mov	 esp, DWORD PTR __$SEHRec$[ebp]
  0004f	c7 45 e0 00 00
	00 00		 mov	 DWORD PTR tv68[ebp], 0
  00056	c7 45 fc ff ff
	ff ff		 mov	 DWORD PTR __$SEHRec$[ebp+20], -1

; 48   : 	{
; 49   : 		return FALSE;

  0005d	8b 45 e0	 mov	 eax, DWORD PTR tv68[ebp]
  00060	eb 05		 jmp	 SHORT $L203025
$L203029:

; 50   : 	}
; 51   : 
; 52   : 	return TRUE;

  00062	b8 01 00 00 00	 mov	 eax, 1
$L203025:

; 53   : }

  00067	8b 4d f0	 mov	 ecx, DWORD PTR __$SEHRec$[ebp+8]
  0006a	64 89 0d 00 00
	00 00		 mov	 DWORD PTR fs:__except_list, ecx
  00071	5f		 pop	 edi
  00072	5e		 pop	 esi
  00073	5b		 pop	 ebx
  00074	8b e5		 mov	 esp, ebp
  00076	5d		 pop	 ebp
  00077	c3		 ret	 0
?Init@CCriticalSection@@AAEHXZ ENDP			; CCriticalSection::Init
; Function compile flags: /Odt
_TEXT	ENDS
;	COMDAT ??_GCCriticalSection@@UAEPAXI@Z
_TEXT	SEGMENT
_this$ = -4						; size = 4
___flags$ = 8						; size = 4
??_GCCriticalSection@@UAEPAXI@Z PROC NEAR		; CCriticalSection::`scalar deleting destructor', COMDAT
; _this$ = ecx
  00000	55		 push	 ebp
  00001	8b ec		 mov	 ebp, esp
  00003	51		 push	 ecx
  00004	89 4d fc	 mov	 DWORD PTR _this$[ebp], ecx
  00007	8b 4d fc	 mov	 ecx, DWORD PTR _this$[ebp]
  0000a	e8 00 00 00 00	 call	 ??1CCriticalSection@@UAE@XZ ; CCriticalSection::~CCriticalSection
  0000f	8b 45 08	 mov	 eax, DWORD PTR ___flags$[ebp]
  00012	83 e0 01	 and	 eax, 1
  00015	74 09		 je	 SHORT $L197593
  00017	8b 4d fc	 mov	 ecx, DWORD PTR _this$[ebp]
  0001a	51		 push	 ecx
  0001b	e8 00 00 00 00	 call	 ??3CObject@@SGXPAX@Z	; CObject::operator delete
$L197593:
  00020	8b 45 fc	 mov	 eax, DWORD PTR _this$[ebp]
  00023	8b e5		 mov	 esp, ebp
  00025	5d		 pop	 ebp
  00026	c2 04 00	 ret	 4
??_GCCriticalSection@@UAEPAXI@Z ENDP			; CCriticalSection::`scalar deleting destructor'
_TEXT	ENDS
EXTRN	__imp__DeleteCriticalSection@4:NEAR
; Function compile flags: /Odt
;	COMDAT ??1CCriticalSection@@UAE@XZ
_TEXT	SEGMENT
_this$ = -4						; size = 4
??1CCriticalSection@@UAE@XZ PROC NEAR			; CCriticalSection::~CCriticalSection, COMDAT
; _this$ = ecx

; 67   : 	{ ::DeleteCriticalSection(&m_sect); }

  00000	55		 push	 ebp
  00001	8b ec		 mov	 ebp, esp
  00003	51		 push	 ecx
  00004	89 4d fc	 mov	 DWORD PTR _this$[ebp], ecx
  00007	8b 45 fc	 mov	 eax, DWORD PTR _this$[ebp]
  0000a	c7 00 00 00 00
	00		 mov	 DWORD PTR [eax], OFFSET FLAT:??_7CCriticalSection@@6B@
  00010	8b 4d fc	 mov	 ecx, DWORD PTR _this$[ebp]
  00013	83 c1 08	 add	 ecx, 8
  00016	51		 push	 ecx
  00017	ff 15 00 00 00
	00		 call	 DWORD PTR __imp__DeleteCriticalSection@4
  0001d	8b 4d fc	 mov	 ecx, DWORD PTR _this$[ebp]
  00020	e8 00 00 00 00	 call	 ??1CSyncObject@@UAE@XZ	; CSyncObject::~CSyncObject
  00025	8b e5		 mov	 esp, ebp
  00027	5d		 pop	 ebp
  00028	c3		 ret	 0
??1CCriticalSection@@UAE@XZ ENDP			; CCriticalSection::~CCriticalSection
_TEXT	ENDS
PUBLIC	?Lock@CCriticalSection@@QAEHXZ			; CCriticalSection::Lock
; Function compile flags: /Odt
;	COMDAT ?Lock@CCriticalSection@@UAEHK@Z
_TEXT	SEGMENT
_this$ = -4						; size = 4
_dwTimeout$ = 8						; size = 4
?Lock@CCriticalSection@@UAEHK@Z PROC NEAR		; CCriticalSection::Lock, COMDAT
; _this$ = ecx

; 81   : 	{ ASSERT(dwTimeout == INFINITE); (void)dwTimeout; return Lock(); }

  00000	55		 push	 ebp
  00001	8b ec		 mov	 ebp, esp
  00003	51		 push	 ecx
  00004	89 4d fc	 mov	 DWORD PTR _this$[ebp], ecx
  00007	8b 4d fc	 mov	 ecx, DWORD PTR _this$[ebp]
  0000a	e8 00 00 00 00	 call	 ?Lock@CCriticalSection@@QAEHXZ ; CCriticalSection::Lock
  0000f	8b e5		 mov	 esp, ebp
  00011	5d		 pop	 ebp
  00012	c2 04 00	 ret	 4
?Lock@CCriticalSection@@UAEHK@Z ENDP			; CCriticalSection::Lock
_TEXT	ENDS
EXTRN	__imp__EnterCriticalSection@4:NEAR
;	COMDAT CONST
CONST	SEGMENT
$T203051 DD	0ffffffffH
	DD	FLAT:$L203047
	DD	FLAT:$L203048
; Function compile flags: /Odt
CONST	ENDS
;	COMDAT ?Lock@CCriticalSection@@QAEHXZ
_TEXT	SEGMENT
_this$ = -28						; size = 4
__$SEHRec$ = -24					; size = 24
?Lock@CCriticalSection@@QAEHXZ PROC NEAR		; CCriticalSection::Lock, COMDAT
; _this$ = ecx

; 69   : 	{	

  00000	55		 push	 ebp
  00001	8b ec		 mov	 ebp, esp
  00003	6a ff		 push	 -1
  00005	68 00 00 00 00	 push	 OFFSET FLAT:$T203051
  0000a	68 00 00 00 00	 push	 OFFSET FLAT:__except_handler3
  0000f	64 a1 00 00 00
	00		 mov	 eax, DWORD PTR fs:__except_list
  00015	50		 push	 eax
  00016	64 89 25 00 00
	00 00		 mov	 DWORD PTR fs:__except_list, esp
  0001d	83 c4 f4	 add	 esp, -12		; fffffff4H
  00020	53		 push	 ebx
  00021	56		 push	 esi
  00022	57		 push	 edi
  00023	89 65 e8	 mov	 DWORD PTR __$SEHRec$[ebp], esp
  00026	89 4d e4	 mov	 DWORD PTR _this$[ebp], ecx

; 70   : 		__try

  00029	c7 45 fc 00 00
	00 00		 mov	 DWORD PTR __$SEHRec$[ebp+20], 0

; 71   : 		{
; 72   : 			::EnterCriticalSection(&m_sect); 

  00030	8b 45 e4	 mov	 eax, DWORD PTR _this$[ebp]
  00033	83 c0 08	 add	 eax, 8
  00036	50		 push	 eax
  00037	ff 15 00 00 00
	00		 call	 DWORD PTR __imp__EnterCriticalSection@4
  0003d	c7 45 fc ff ff
	ff ff		 mov	 DWORD PTR __$SEHRec$[ebp+20], -1
  00044	eb 0e		 jmp	 SHORT $L203050
$L203047:
$L203054:

; 73   : 		}
; 74   : 		__except( EXCEPTION_EXECUTE_HANDLER )

  00046	b8 01 00 00 00	 mov	 eax, 1
$L203049:
$L203053:
  0004b	c3		 ret	 0
$L203048:
  0004c	8b 65 e8	 mov	 esp, DWORD PTR __$SEHRec$[ebp]

; 75   : 		{
; 76   : 			AfxThrowMemoryException();

  0004f	e8 00 00 00 00	 call	 ?AfxThrowMemoryException@@YGXXZ ; AfxThrowMemoryException
$L203050:

; 77   : 		}
; 78   : 		return TRUE; 

  00054	b8 01 00 00 00	 mov	 eax, 1
$L203046:

; 79   : 	}

  00059	8b 4d f0	 mov	 ecx, DWORD PTR __$SEHRec$[ebp+8]
  0005c	64 89 0d 00 00
	00 00		 mov	 DWORD PTR fs:__except_list, ecx
  00063	5f		 pop	 edi
  00064	5e		 pop	 esi
  00065	5b		 pop	 ebx
  00066	8b e5		 mov	 esp, ebp
  00068	5d		 pop	 ebp
  00069	c3		 ret	 0
?Lock@CCriticalSection@@QAEHXZ ENDP			; CCriticalSection::Lock
_TEXT	ENDS
EXTRN	__imp__LeaveCriticalSection@4:NEAR
; Function compile flags: /Odt
;	COMDAT ?Unlock@CCriticalSection@@UAEHXZ
_TEXT	SEGMENT
_this$ = -4						; size = 4
?Unlock@CCriticalSection@@UAEHXZ PROC NEAR		; CCriticalSection::Unlock, COMDAT
; _this$ = ecx

; 83   : 	{ ::LeaveCriticalSection(&m_sect); return TRUE; }

  00000	55		 push	 ebp
  00001	8b ec		 mov	 ebp, esp
  00003	51		 push	 ecx
  00004	89 4d fc	 mov	 DWORD PTR _this$[ebp], ecx
  00007	8b 45 fc	 mov	 eax, DWORD PTR _this$[ebp]
  0000a	83 c0 08	 add	 eax, 8
  0000d	50		 push	 eax
  0000e	ff 15 00 00 00
	00		 call	 DWORD PTR __imp__LeaveCriticalSection@4
  00014	b8 01 00 00 00	 mov	 eax, 1
  00019	8b e5		 mov	 esp, ebp
  0001b	5d		 pop	 ebp
  0001c	c3		 ret	 0
?Unlock@CCriticalSection@@UAEHXZ ENDP			; CCriticalSection::Unlock
; Function compile flags: /Odt
; File d:\boxgit\playbox\playbox\dev\prj\playbox\src\module\playedgamepanel\lmcstructs.h
_TEXT	ENDS
;	COMDAT ??0GdiRes@@QAE@XZ
_TEXT	SEGMENT
_this$ = -4						; size = 4
??0GdiRes@@QAE@XZ PROC NEAR				; GdiRes::GdiRes, COMDAT
; _this$ = ecx

; 13   : 	GdiRes()

  00000	55		 push	 ebp
  00001	8b ec		 mov	 ebp, esp
  00003	51		 push	 ecx
  00004	89 4d fc	 mov	 DWORD PTR _this$[ebp], ecx

; 14   : 	{
; 15   : 		colListBK = RGB(240,247,252);

  00007	8b 45 fc	 mov	 eax, DWORD PTR _this$[ebp]
  0000a	c7 00 f0 f7 fc
	00		 mov	 DWORD PTR [eax], 16578544 ; 00fcf7f0H

; 16   : 		colName   = RGB(77,77,77);

  00010	8b 4d fc	 mov	 ecx, DWORD PTR _this$[ebp]
  00013	c7 41 04 4d 4d
	4d 00		 mov	 DWORD PTR [ecx+4], 5066061 ; 004d4d4dH

; 17   : 		colDetail = RGB(125,125,125);

  0001a	8b 55 fc	 mov	 edx, DWORD PTR _this$[ebp]
  0001d	c7 42 08 7d 7d
	7d 00		 mov	 DWORD PTR [edx+8], 8224125 ; 007d7d7dH

; 18   : 	}

  00024	8b 45 fc	 mov	 eax, DWORD PTR _this$[ebp]
  00027	8b e5		 mov	 esp, ebp
  00029	5d		 pop	 ebp
  0002a	c3		 ret	 0
??0GdiRes@@QAE@XZ ENDP					; GdiRes::GdiRes
_TEXT	ENDS
PUBLIC	??1CLocalMusicCoverList@@UAE@XZ			; CLocalMusicCoverList::~CLocalMusicCoverList
; Function compile flags: /Odt
;	COMDAT ??_GCLocalMusicCoverList@@UAEPAXI@Z
_TEXT	SEGMENT
_this$ = -4						; size = 4
___flags$ = 8						; size = 4
??_GCLocalMusicCoverList@@UAEPAXI@Z PROC NEAR		; CLocalMusicCoverList::`scalar deleting destructor', COMDAT
; _this$ = ecx
  00000	55		 push	 ebp
  00001	8b ec		 mov	 ebp, esp
  00003	51		 push	 ecx
  00004	89 4d fc	 mov	 DWORD PTR _this$[ebp], ecx
  00007	8b 4d fc	 mov	 ecx, DWORD PTR _this$[ebp]
  0000a	e8 00 00 00 00	 call	 ??1CLocalMusicCoverList@@UAE@XZ ; CLocalMusicCoverList::~CLocalMusicCoverList
  0000f	8b 45 08	 mov	 eax, DWORD PTR ___flags$[ebp]
  00012	83 e0 01	 and	 eax, 1
  00015	74 09		 je	 SHORT $L199877
  00017	8b 4d fc	 mov	 ecx, DWORD PTR _this$[ebp]
  0001a	51		 push	 ecx
  0001b	e8 00 00 00 00	 call	 ??3CObject@@SGXPAX@Z	; CObject::operator delete
$L199877:
  00020	8b 45 fc	 mov	 eax, DWORD PTR _this$[ebp]
  00023	8b e5		 mov	 esp, ebp
  00025	5d		 pop	 ebp
  00026	c2 04 00	 ret	 4
??_GCLocalMusicCoverList@@UAEPAXI@Z ENDP		; CLocalMusicCoverList::`scalar deleting destructor'
_TEXT	ENDS
xdata$x	SEGMENT
$T203086 DD	0ffffffffH
	DD	FLAT:$L203073
	DD	00H
	DD	FLAT:$L203074
	DD	01H
	DD	FLAT:$L203075
	DD	02H
	DD	FLAT:$L203076
	DD	03H
	DD	FLAT:$L203077
	DD	04H
	DD	FLAT:$L203078
	DD	05H
	DD	FLAT:$L203079
	DD	06H
	DD	FLAT:$L203080
	DD	07H
	DD	FLAT:$L203081
	DD	08H
	DD	FLAT:$L203082
$T203084 DD	019930520H
	DD	0aH
	DD	FLAT:$T203086
	DD	2 DUP(00H)
	DD	2 DUP(00H)
; Function compile flags: /Odt
; File d:\boxgit\playbox\playbox\dev\prj\playbox\src\module\playedgamepanel\localmusiccoverlist.cpp
xdata$x	ENDS
_TEXT	SEGMENT
tv148 = -40						; size = 4
tv140 = -36						; size = 4
_this$ = -32						; size = 4
$T203070 = -28						; size = 4
$T203069 = -24						; size = 4
$T203066 = -20						; size = 4
$T203065 = -16						; size = 4
__$EHRec$ = -12						; size = 12
??1CLocalMusicCoverList@@UAE@XZ PROC NEAR		; CLocalMusicCoverList::~CLocalMusicCoverList
; _this$ = ecx

; 61   : {

  003e0	55		 push	 ebp
  003e1	8b ec		 mov	 ebp, esp
  003e3	6a ff		 push	 -1
  003e5	68 00 00 00 00	 push	 __ehhandler$??1CLocalMusicCoverList@@UAE@XZ
  003ea	64 a1 00 00 00
	00		 mov	 eax, DWORD PTR fs:__except_list
  003f0	50		 push	 eax
  003f1	64 89 25 00 00
	00 00		 mov	 DWORD PTR fs:__except_list, esp
  003f8	83 ec 1c	 sub	 esp, 28			; 0000001cH
  003fb	89 4d e0	 mov	 DWORD PTR _this$[ebp], ecx
  003fe	8b 45 e0	 mov	 eax, DWORD PTR _this$[ebp]
  00401	c7 00 00 00 00
	00		 mov	 DWORD PTR [eax], OFFSET FLAT:??_7CLocalMusicCoverList@@6B@
  00407	c7 45 fc 09 00
	00 00		 mov	 DWORD PTR __$EHRec$[ebp+8], 9

; 62   : 	delete m_pBitmapYes;

  0040e	8b 4d e0	 mov	 ecx, DWORD PTR _this$[ebp]
  00411	8b 91 48 01 00
	00		 mov	 edx, DWORD PTR [ecx+328]
  00417	89 55 ec	 mov	 DWORD PTR $T203066[ebp], edx
  0041a	8b 45 ec	 mov	 eax, DWORD PTR $T203066[ebp]
  0041d	89 45 f0	 mov	 DWORD PTR $T203065[ebp], eax
  00420	83 7d f0 00	 cmp	 DWORD PTR $T203065[ebp], 0
  00424	74 12		 je	 SHORT $L203067
  00426	6a 01		 push	 1
  00428	8b 4d f0	 mov	 ecx, DWORD PTR $T203065[ebp]
  0042b	8b 11		 mov	 edx, DWORD PTR [ecx]
  0042d	8b 4d f0	 mov	 ecx, DWORD PTR $T203065[ebp]
  00430	ff 52 04	 call	 DWORD PTR [edx+4]
  00433	89 45 dc	 mov	 DWORD PTR tv140[ebp], eax
  00436	eb 07		 jmp	 SHORT $L203068
$L203067:
  00438	c7 45 dc 00 00
	00 00		 mov	 DWORD PTR tv140[ebp], 0
$L203068:

; 63   : 	delete m_pBitmapNo;

  0043f	8b 45 e0	 mov	 eax, DWORD PTR _this$[ebp]
  00442	8b 88 4c 01 00
	00		 mov	 ecx, DWORD PTR [eax+332]
  00448	89 4d e4	 mov	 DWORD PTR $T203070[ebp], ecx
  0044b	8b 55 e4	 mov	 edx, DWORD PTR $T203070[ebp]
  0044e	89 55 e8	 mov	 DWORD PTR $T203069[ebp], edx
  00451	83 7d e8 00	 cmp	 DWORD PTR $T203069[ebp], 0
  00455	74 12		 je	 SHORT $L203071
  00457	6a 01		 push	 1
  00459	8b 45 e8	 mov	 eax, DWORD PTR $T203069[ebp]
  0045c	8b 10		 mov	 edx, DWORD PTR [eax]
  0045e	8b 4d e8	 mov	 ecx, DWORD PTR $T203069[ebp]
  00461	ff 52 04	 call	 DWORD PTR [edx+4]
  00464	89 45 d8	 mov	 DWORD PTR tv148[ebp], eax
  00467	eb 07		 jmp	 SHORT $L199880
$L203071:
  00469	c7 45 d8 00 00
	00 00		 mov	 DWORD PTR tv148[ebp], 0
$L199880:

; 64   : }

  00470	c6 45 fc 08	 mov	 BYTE PTR __$EHRec$[ebp+8], 8
  00474	8b 4d e0	 mov	 ecx, DWORD PTR _this$[ebp]
  00477	81 c1 68 01 00
	00		 add	 ecx, 360		; 00000168H
  0047d	e8 00 00 00 00	 call	 ??1CLMCDataMgr@@QAE@XZ	; CLMCDataMgr::~CLMCDataMgr
  00482	c6 45 fc 07	 mov	 BYTE PTR __$EHRec$[ebp+8], 7
  00486	8b 4d e0	 mov	 ecx, DWORD PTR _this$[ebp]
  00489	81 c1 10 01 00
	00		 add	 ecx, 272		; 00000110H
  0048f	e8 00 00 00 00	 call	 ??1CBitmap@@UAE@XZ	; CBitmap::~CBitmap
  00494	c6 45 fc 06	 mov	 BYTE PTR __$EHRec$[ebp+8], 6
  00498	8b 4d e0	 mov	 ecx, DWORD PTR _this$[ebp]
  0049b	81 c1 00 01 00
	00		 add	 ecx, 256		; 00000100H
  004a1	e8 00 00 00 00	 call	 ??1CDC@@UAE@XZ		; CDC::~CDC
  004a6	c6 45 fc 05	 mov	 BYTE PTR __$EHRec$[ebp+8], 5
  004aa	8b 4d e0	 mov	 ecx, DWORD PTR _this$[ebp]
  004ad	81 c1 d4 00 00
	00		 add	 ecx, 212		; 000000d4H
  004b3	e8 00 00 00 00	 call	 ??1?$deque@VCPoint@@V?$allocator@VCPoint@@@std@@@std@@QAE@XZ ; std::deque<CPoint,std::allocator<CPoint> >::~deque<CPoint,std::allocator<CPoint> >
  004b8	c6 45 fc 04	 mov	 BYTE PTR __$EHRec$[ebp+8], 4
  004bc	8b 4d e0	 mov	 ecx, DWORD PTR _this$[ebp]
  004bf	81 c1 b4 00 00
	00		 add	 ecx, 180		; 000000b4H
  004c5	e8 00 00 00 00	 call	 ??1CCriticalSection@@UAE@XZ ; CCriticalSection::~CCriticalSection
  004ca	c6 45 fc 03	 mov	 BYTE PTR __$EHRec$[ebp+8], 3
  004ce	8b 4d e0	 mov	 ecx, DWORD PTR _this$[ebp]
  004d1	81 c1 84 00 00
	00		 add	 ecx, 132		; 00000084H
  004d7	e8 00 00 00 00	 call	 ??1CFont@@UAE@XZ	; CFont::~CFont
  004dc	c6 45 fc 02	 mov	 BYTE PTR __$EHRec$[ebp+8], 2
  004e0	8b 4d e0	 mov	 ecx, DWORD PTR _this$[ebp]
  004e3	83 c1 7c	 add	 ecx, 124		; 0000007cH
  004e6	e8 00 00 00 00	 call	 ??1CFont@@UAE@XZ	; CFont::~CFont
  004eb	c6 45 fc 01	 mov	 BYTE PTR __$EHRec$[ebp+8], 1
  004ef	8b 4d e0	 mov	 ecx, DWORD PTR _this$[ebp]
  004f2	83 c1 70	 add	 ecx, 112		; 00000070H
  004f5	e8 00 00 00 00	 call	 ??1CBitmap@@UAE@XZ	; CBitmap::~CBitmap
  004fa	c6 45 fc 00	 mov	 BYTE PTR __$EHRec$[ebp+8], 0
  004fe	8b 4d e0	 mov	 ecx, DWORD PTR _this$[ebp]
  00501	83 c1 60	 add	 ecx, 96			; 00000060H
  00504	e8 00 00 00 00	 call	 ??1CDC@@UAE@XZ		; CDC::~CDC
  00509	c7 45 fc ff ff
	ff ff		 mov	 DWORD PTR __$EHRec$[ebp+8], -1
  00510	8b 4d e0	 mov	 ecx, DWORD PTR _this$[ebp]
  00513	e8 00 00 00 00	 call	 ??1CWnd@@UAE@XZ		; CWnd::~CWnd
  00518	8b 4d f4	 mov	 ecx, DWORD PTR __$EHRec$[ebp]
  0051b	64 89 0d 00 00
	00 00		 mov	 DWORD PTR fs:__except_list, ecx
  00522	8b e5		 mov	 esp, ebp
  00524	5d		 pop	 ebp
  00525	c3		 ret	 0
_TEXT	ENDS
text$x	SEGMENT
$L203073:
  000ad	8b 4d e0	 mov	 ecx, DWORD PTR _this$[ebp]
  000b0	e9 00 00 00 00	 jmp	 ??1CWnd@@UAE@XZ		; CWnd::~CWnd
$L203074:
  000b5	8b 4d e0	 mov	 ecx, DWORD PTR _this$[ebp]
  000b8	83 c1 60	 add	 ecx, 96			; 00000060H
  000bb	e9 00 00 00 00	 jmp	 ??1CDC@@UAE@XZ		; CDC::~CDC
$L203075:
  000c0	8b 4d e0	 mov	 ecx, DWORD PTR _this$[ebp]
  000c3	83 c1 70	 add	 ecx, 112		; 00000070H
  000c6	e9 00 00 00 00	 jmp	 ??1CBitmap@@UAE@XZ	; CBitmap::~CBitmap
$L203076:
  000cb	8b 4d e0	 mov	 ecx, DWORD PTR _this$[ebp]
  000ce	83 c1 7c	 add	 ecx, 124		; 0000007cH
  000d1	e9 00 00 00 00	 jmp	 ??1CFont@@UAE@XZ	; CFont::~CFont
$L203077:
  000d6	8b 4d e0	 mov	 ecx, DWORD PTR _this$[ebp]
  000d9	81 c1 84 00 00
	00		 add	 ecx, 132		; 00000084H
  000df	e9 00 00 00 00	 jmp	 ??1CFont@@UAE@XZ	; CFont::~CFont
$L203078:
  000e4	8b 4d e0	 mov	 ecx, DWORD PTR _this$[ebp]
  000e7	81 c1 b4 00 00
	00		 add	 ecx, 180		; 000000b4H
  000ed	e9 00 00 00 00	 jmp	 ??1CCriticalSection@@UAE@XZ ; CCriticalSection::~CCriticalSection
$L203079:
  000f2	8b 4d e0	 mov	 ecx, DWORD PTR _this$[ebp]
  000f5	81 c1 d4 00 00
	00		 add	 ecx, 212		; 000000d4H
  000fb	e9 00 00 00 00	 jmp	 ??1?$deque@VCPoint@@V?$allocator@VCPoint@@@std@@@std@@QAE@XZ ; std::deque<CPoint,std::allocator<CPoint> >::~deque<CPoint,std::allocator<CPoint> >
$L203080:
  00100	8b 4d e0	 mov	 ecx, DWORD PTR _this$[ebp]
  00103	81 c1 00 01 00
	00		 add	 ecx, 256		; 00000100H
  00109	e9 00 00 00 00	 jmp	 ??1CDC@@UAE@XZ		; CDC::~CDC
$L203081:
  0010e	8b 4d e0	 mov	 ecx, DWORD PTR _this$[ebp]
  00111	81 c1 10 01 00
	00		 add	 ecx, 272		; 00000110H
  00117	e9 00 00 00 00	 jmp	 ??1CBitmap@@UAE@XZ	; CBitmap::~CBitmap
$L203082:
  0011c	8b 4d e0	 mov	 ecx, DWORD PTR _this$[ebp]
  0011f	81 c1 68 01 00
	00		 add	 ecx, 360		; 00000168H
  00125	e9 00 00 00 00	 jmp	 ??1CLMCDataMgr@@QAE@XZ	; CLMCDataMgr::~CLMCDataMgr
__ehhandler$??1CLocalMusicCoverList@@UAE@XZ:
  0012a	b8 00 00 00 00	 mov	 eax, OFFSET FLAT:$T203084
  0012f	e9 00 00 00 00	 jmp	 ___CxxFrameHandler
text$x	ENDS
??1CLocalMusicCoverList@@UAE@XZ ENDP			; CLocalMusicCoverList::~CLocalMusicCoverList
PUBLIC	?GetThisMessageMap@CLocalMusicCoverList@@KGPBUAFX_MSGMAP@@XZ ; CLocalMusicCoverList::GetThisMessageMap
; Function compile flags: /Odt
_TEXT	SEGMENT
?GetThisMessageMap@CLocalMusicCoverList@@KGPBUAFX_MSGMAP@@XZ PROC NEAR ; CLocalMusicCoverList::GetThisMessageMap

; 66   : BEGIN_MESSAGE_MAP(CLocalMusicCoverList, CWnd)

  00530	55		 push	 ebp
  00531	8b ec		 mov	 ebp, esp
  00533	b8 00 00 00 00	 mov	 eax, OFFSET FLAT:?messageMap@CLocalMusicCoverList@@1UAFX_MSGMAP@@B ; CLocalMusicCoverList::messageMap
  00538	5d		 pop	 ebp
  00539	c3		 ret	 0
?GetThisMessageMap@CLocalMusicCoverList@@KGPBUAFX_MSGMAP@@XZ ENDP ; CLocalMusicCoverList::GetThisMessageMap
; Function compile flags: /Odt
_this$ = -4						; size = 4
?GetMessageMap@CLocalMusicCoverList@@MBEPBUAFX_MSGMAP@@XZ PROC NEAR ; CLocalMusicCoverList::GetMessageMap
; _this$ = ecx

; 66   : BEGIN_MESSAGE_MAP(CLocalMusicCoverList, CWnd)

  00540	55		 push	 ebp
  00541	8b ec		 mov	 ebp, esp
  00543	51		 push	 ecx
  00544	89 4d fc	 mov	 DWORD PTR _this$[ebp], ecx
  00547	b8 00 00 00 00	 mov	 eax, OFFSET FLAT:?messageMap@CLocalMusicCoverList@@1UAFX_MSGMAP@@B ; CLocalMusicCoverList::messageMap
  0054c	8b e5		 mov	 esp, ebp
  0054e	5d		 pop	 ebp
  0054f	c3		 ret	 0
?GetMessageMap@CLocalMusicCoverList@@MBEPBUAFX_MSGMAP@@XZ ENDP ; CLocalMusicCoverList::GetMessageMap
_TEXT	ENDS
PUBLIC	?CreateCompatibleDC@CDC@@QAEHPAV1@@Z		; CDC::CreateCompatibleDC
PUBLIC	?SetTimer@CWnd@@QAEIIIP6GXPAUHWND__@@IIK@Z@Z	; CWnd::SetTimer
PUBLIC	?_AtlGetConversionACP@ATL@@YGIXZ		; ATL::_AtlGetConversionACP
PUBLIC	??0Image@Gdiplus@@QAE@PB_WH@Z			; Gdiplus::Image::Image
PUBLIC	??1Image@Gdiplus@@UAE@XZ			; Gdiplus::Image::~Image
PUBLIC	?Clone@Image@Gdiplus@@UAEPAV12@XZ		; Gdiplus::Image::Clone
PUBLIC	?OnCreate@CWnd@@IAEHPAUtagCREATESTRUCTA@@@Z	; CWnd::OnCreate
PUBLIC	?AtlA2WHelper@@YGPA_WPA_WPBDHI@Z		; AtlA2WHelper
PUBLIC	?CreateFontA@CFont@@QAEHHHHHHEEEEEEEEPBD@Z	; CFont::CreateFontA
EXTRN	__imp_??B?$CSimpleStringT@D$00@ATL@@QBEPBDXZ:NEAR
EXTRN	__imp__lstrlenA@4:NEAR
EXTRN	__imp_??0?$CStringT@DV?$StrTraitMFC_DLL@DV?$ChTraitsCRT@D@ATL@@@@@ATL@@QAE@PBD@Z:NEAR
EXTRN	__imp_??1?$CStringT@DV?$StrTraitMFC_DLL@DV?$ChTraitsCRT@D@ATL@@@@@ATL@@QAE@XZ:NEAR
EXTRN	__imp_??4?$CStringT@DV?$StrTraitMFC_DLL@DV?$ChTraitsCRT@D@ATL@@@@@ATL@@QAEAAV01@ABV01@@Z:NEAR
EXTRN	__imp_??Y?$CStringT@DV?$StrTraitMFC_DLL@DV?$ChTraitsCRT@D@ATL@@@@@ATL@@QAEAAV01@PBD@Z:NEAR
EXTRN	__imp_?ReverseFind@?$CStringT@DV?$StrTraitMFC_DLL@DV?$ChTraitsCRT@D@ATL@@@@@ATL@@QBEHD@Z:NEAR
EXTRN	__alloca_probe:NEAR
EXTRN	___security_cookie:DWORD
EXTRN	@__security_check_cookie@4:NEAR
EXTRN	__imp_?Mid@?$CStringT@DV?$StrTraitMFC_DLL@DV?$ChTraitsCRT@D@ATL@@@@@ATL@@QBE?AV12@HH@Z:NEAR
EXTRN	__imp__GetModuleFileNameA@12:NEAR
EXTRN	??0CClientDC@@QAE@PAVCWnd@@@Z:NEAR		; CClientDC::CClientDC
EXTRN	??1CClientDC@@UAE@XZ:NEAR			; CClientDC::~CClientDC
xdata$x	SEGMENT
$T203106 DD	0ffffffffH
	DD	FLAT:$L203095
	DD	00H
	DD	FLAT:$L203096
	DD	01H
	DD	FLAT:$L203097
	DD	01H
	DD	FLAT:$L203098
$T203100 DD	019930520H
	DD	04H
	DD	FLAT:$T203106
	DD	2 DUP(00H)
	DD	2 DUP(00H)
; Function compile flags: /Odt
xdata$x	ENDS
_TEXT	SEGMENT
tv195 = -368						; size = 4
tv199 = -364						; size = 4
tv208 = -360						; size = 4
tv163 = -356						; size = 4
_this$ = -352						; size = 4
$T203094 = -348						; size = 4
$T203091 = -344						; size = 4
__lpa$ = -340						; size = 4
__acp$ = -336						; size = 4
_path_tmp$ = -332					; size = 260
__$ArrayPad$ = -64					; size = 4
_strFrameImg$ = -60					; size = 4
_imgFrame$ = -52					; size = 16
_dc$ = -36						; size = 20
__convert$ = -16					; size = 4
__$EHRec$ = -12						; size = 12
__$ReturnAddr$ = 4					; size = 4
_lpCreateStruct$ = 8					; size = 4
?OnCreate@CLocalMusicCoverList@@IAEHPAUtagCREATESTRUCTA@@@Z PROC NEAR ; CLocalMusicCoverList::OnCreate
; _this$ = ecx

; 89   : {

  00550	55		 push	 ebp
  00551	8b ec		 mov	 ebp, esp
  00553	6a ff		 push	 -1
  00555	68 00 00 00 00	 push	 __ehhandler$?OnCreate@CLocalMusicCoverList@@IAEHPAUtagCREATESTRUCTA@@@Z
  0055a	64 a1 00 00 00
	00		 mov	 eax, DWORD PTR fs:__except_list
  00560	50		 push	 eax
  00561	64 89 25 00 00
	00 00		 mov	 DWORD PTR fs:__except_list, esp
  00568	81 ec 64 01 00
	00		 sub	 esp, 356		; 00000164H
  0056e	a1 00 00 00 00	 mov	 eax, DWORD PTR ___security_cookie
  00573	89 45 c0	 mov	 DWORD PTR __$ArrayPad$[ebp], eax
  00576	57		 push	 edi
  00577	89 8d a0 fe ff
	ff		 mov	 DWORD PTR _this$[ebp], ecx

; 90   : 	if (CWnd::OnCreate(lpCreateStruct) == -1)

  0057d	8b 45 08	 mov	 eax, DWORD PTR _lpCreateStruct$[ebp]
  00580	50		 push	 eax
  00581	8b 8d a0 fe ff
	ff		 mov	 ecx, DWORD PTR _this$[ebp]
  00587	e8 00 00 00 00	 call	 ?OnCreate@CWnd@@IAEHPAUtagCREATESTRUCTA@@@Z ; CWnd::OnCreate
  0058c	83 f8 ff	 cmp	 eax, -1
  0058f	75 08		 jne	 SHORT $L199988

; 91   : 		return -1;

  00591	83 c8 ff	 or	 eax, -1
  00594	e9 71 02 00 00	 jmp	 $L199987
$L199988:

; 92   : 	// 
; 93   : 	CClientDC dc(this);

  00599	8b 8d a0 fe ff
	ff		 mov	 ecx, DWORD PTR _this$[ebp]
  0059f	51		 push	 ecx
  005a0	8d 4d dc	 lea	 ecx, DWORD PTR _dc$[ebp]
  005a3	e8 00 00 00 00	 call	 ??0CClientDC@@QAE@PAVCWnd@@@Z ; CClientDC::CClientDC
  005a8	c7 45 fc 00 00
	00 00		 mov	 DWORD PTR __$EHRec$[ebp+8], 0

; 94   : 	m_dcMem.CreateCompatibleDC(&dc);

  005af	8d 55 dc	 lea	 edx, DWORD PTR _dc$[ebp]
  005b2	52		 push	 edx
  005b3	8b 8d a0 fe ff
	ff		 mov	 ecx, DWORD PTR _this$[ebp]
  005b9	83 c1 60	 add	 ecx, 96			; 00000060H
  005bc	e8 00 00 00 00	 call	 ?CreateCompatibleDC@CDC@@QAEHPAV1@@Z ; CDC::CreateCompatibleDC

; 95   : 	m_dcTracker.CreateCompatibleDC(&dc);

  005c1	8d 45 dc	 lea	 eax, DWORD PTR _dc$[ebp]
  005c4	50		 push	 eax
  005c5	8b 8d a0 fe ff
	ff		 mov	 ecx, DWORD PTR _this$[ebp]
  005cb	81 c1 00 01 00
	00		 add	 ecx, 256		; 00000100H
  005d1	e8 00 00 00 00	 call	 ?CreateCompatibleDC@CDC@@QAEHPAV1@@Z ; CDC::CreateCompatibleDC

; 96   : 	m_fName.CreateFont(12, 0, 0, 0, FW_BOLD , FALSE, FALSE, 0, ANSI_CHARSET, OUT_DEFAULT_PRECIS, CLIP_DEFAULT_PRECIS, DEFAULT_QUALITY, DEFAULT_PITCH | FF_SWISS, _T(""));

  005d6	68 00 00 00 00	 push	 OFFSET FLAT:$SG199990
  005db	6a 20		 push	 32			; 00000020H
  005dd	6a 00		 push	 0
  005df	6a 00		 push	 0
  005e1	6a 00		 push	 0
  005e3	6a 00		 push	 0
  005e5	6a 00		 push	 0
  005e7	6a 00		 push	 0
  005e9	6a 00		 push	 0
  005eb	68 bc 02 00 00	 push	 700			; 000002bcH
  005f0	6a 00		 push	 0
  005f2	6a 00		 push	 0
  005f4	6a 00		 push	 0
  005f6	6a 0c		 push	 12			; 0000000cH
  005f8	8b 8d a0 fe ff
	ff		 mov	 ecx, DWORD PTR _this$[ebp]
  005fe	83 c1 7c	 add	 ecx, 124		; 0000007cH
  00601	e8 00 00 00 00	 call	 ?CreateFontA@CFont@@QAEHHHHHHEEEEEEEEPBD@Z ; CFont::CreateFontA

; 97   : 	m_fDeInfo.CreateFont(12, 0, 0, 0, FW_NORMAL , FALSE, FALSE, 0, ANSI_CHARSET, OUT_DEFAULT_PRECIS, CLIP_DEFAULT_PRECIS, DEFAULT_QUALITY, DEFAULT_PITCH | FF_SWISS, _T(""));

  00606	68 00 00 00 00	 push	 OFFSET FLAT:$SG199991
  0060b	6a 20		 push	 32			; 00000020H
  0060d	6a 00		 push	 0
  0060f	6a 00		 push	 0
  00611	6a 00		 push	 0
  00613	6a 00		 push	 0
  00615	6a 00		 push	 0
  00617	6a 00		 push	 0
  00619	6a 00		 push	 0
  0061b	68 90 01 00 00	 push	 400			; 00000190H
  00620	6a 00		 push	 0
  00622	6a 00		 push	 0
  00624	6a 00		 push	 0
  00626	6a 0c		 push	 12			; 0000000cH
  00628	8b 8d a0 fe ff
	ff		 mov	 ecx, DWORD PTR _this$[ebp]
  0062e	81 c1 84 00 00
	00		 add	 ecx, 132		; 00000084H
  00634	e8 00 00 00 00	 call	 ?CreateFontA@CFont@@QAEHHHHHHEEEEEEEEPBD@Z ; CFont::CreateFontA

; 98   : 	// 
; 99   : 	m_vScrollTimer = SetTimer(100,1,NULL);

  00639	6a 00		 push	 0
  0063b	6a 01		 push	 1
  0063d	6a 64		 push	 100			; 00000064H
  0063f	8b 8d a0 fe ff
	ff		 mov	 ecx, DWORD PTR _this$[ebp]
  00645	e8 00 00 00 00	 call	 ?SetTimer@CWnd@@QAEIIIP6GXPAUHWND__@@IIK@Z@Z ; CWnd::SetTimer
  0064a	8b 8d a0 fe ff
	ff		 mov	 ecx, DWORD PTR _this$[ebp]
  00650	89 81 e8 00 00
	00		 mov	 DWORD PTR [ecx+232], eax

; 100  : 	// 
; 101  : 	m_bf.BlendOp = AC_SRC_OVER; 

  00656	8b 95 a0 fe ff
	ff		 mov	 edx, DWORD PTR _this$[ebp]
  0065c	c6 82 24 01 00
	00 00		 mov	 BYTE PTR [edx+292], 0

; 102  : 	m_bf.BlendFlags = 0; 

  00663	8b 85 a0 fe ff
	ff		 mov	 eax, DWORD PTR _this$[ebp]
  00669	c6 80 25 01 00
	00 00		 mov	 BYTE PTR [eax+293], 0

; 103  : 	m_bf.AlphaFormat = 0; 

  00670	8b 8d a0 fe ff
	ff		 mov	 ecx, DWORD PTR _this$[ebp]
  00676	c6 81 27 01 00
	00 00		 mov	 BYTE PTR [ecx+295], 0

; 104  : 	m_bf.SourceConstantAlpha = 50; 

  0067d	8b 95 a0 fe ff
	ff		 mov	 edx, DWORD PTR _this$[ebp]
  00683	c6 82 26 01 00
	00 32		 mov	 BYTE PTR [edx+294], 50	; 00000032H

; 105  : 
; 106  : 	TCHAR path_tmp[MAX_PATH]={0};

  0068a	c6 85 b4 fe ff
	ff 00		 mov	 BYTE PTR _path_tmp$[ebp], 0
  00691	b9 40 00 00 00	 mov	 ecx, 64			; 00000040H
  00696	33 c0		 xor	 eax, eax
  00698	8d bd b5 fe ff
	ff		 lea	 edi, DWORD PTR _path_tmp$[ebp+1]
  0069e	f3 ab		 rep stosd
  006a0	66 ab		 stosw
  006a2	aa		 stosb

; 107  : 	::GetModuleFileName(NULL,path_tmp,MAX_PATH);

  006a3	68 04 01 00 00	 push	 260			; 00000104H
  006a8	8d 85 b4 fe ff
	ff		 lea	 eax, DWORD PTR _path_tmp$[ebp]
  006ae	50		 push	 eax
  006af	6a 00		 push	 0
  006b1	ff 15 00 00 00
	00		 call	 DWORD PTR __imp__GetModuleFileNameA@12

; 108  : 	CString strFrameImg(path_tmp);

  006b7	8d 8d b4 fe ff
	ff		 lea	 ecx, DWORD PTR _path_tmp$[ebp]
  006bd	51		 push	 ecx
  006be	8d 4d c4	 lea	 ecx, DWORD PTR _strFrameImg$[ebp]
  006c1	ff 15 00 00 00
	00		 call	 DWORD PTR __imp_??0?$CStringT@DV?$StrTraitMFC_DLL@DV?$ChTraitsCRT@D@ATL@@@@@ATL@@QAE@PBD@Z
  006c7	c6 45 fc 01	 mov	 BYTE PTR __$EHRec$[ebp+8], 1

; 109  : 	strFrameImg=strFrameImg.Mid(0,strFrameImg.ReverseFind('\\'));

  006cb	6a 5c		 push	 92			; 0000005cH
  006cd	8d 4d c4	 lea	 ecx, DWORD PTR _strFrameImg$[ebp]
  006d0	ff 15 00 00 00
	00		 call	 DWORD PTR __imp_?ReverseFind@?$CStringT@DV?$StrTraitMFC_DLL@DV?$ChTraitsCRT@D@ATL@@@@@ATL@@QBEHD@Z
  006d6	50		 push	 eax
  006d7	6a 00		 push	 0
  006d9	8d 95 a8 fe ff
	ff		 lea	 edx, DWORD PTR $T203091[ebp]
  006df	52		 push	 edx
  006e0	8d 4d c4	 lea	 ecx, DWORD PTR _strFrameImg$[ebp]
  006e3	ff 15 00 00 00
	00		 call	 DWORD PTR __imp_?Mid@?$CStringT@DV?$StrTraitMFC_DLL@DV?$ChTraitsCRT@D@ATL@@@@@ATL@@QBE?AV12@HH@Z
  006e9	89 85 9c fe ff
	ff		 mov	 DWORD PTR tv163[ebp], eax
  006ef	8b 85 9c fe ff
	ff		 mov	 eax, DWORD PTR tv163[ebp]
  006f5	89 85 98 fe ff
	ff		 mov	 DWORD PTR tv208[ebp], eax
  006fb	c6 45 fc 02	 mov	 BYTE PTR __$EHRec$[ebp+8], 2
  006ff	8b 8d 98 fe ff
	ff		 mov	 ecx, DWORD PTR tv208[ebp]
  00705	51		 push	 ecx
  00706	8d 4d c4	 lea	 ecx, DWORD PTR _strFrameImg$[ebp]
  00709	ff 15 00 00 00
	00		 call	 DWORD PTR __imp_??4?$CStringT@DV?$StrTraitMFC_DLL@DV?$ChTraitsCRT@D@ATL@@@@@ATL@@QAEAAV01@ABV01@@Z
  0070f	c6 45 fc 01	 mov	 BYTE PTR __$EHRec$[ebp+8], 1
  00713	8d 8d a8 fe ff
	ff		 lea	 ecx, DWORD PTR $T203091[ebp]
  00719	ff 15 00 00 00
	00		 call	 DWORD PTR __imp_??1?$CStringT@DV?$StrTraitMFC_DLL@DV?$ChTraitsCRT@D@ATL@@@@@ATL@@QAE@XZ

; 110  : 	strFrameImg+="\\Resources\\StandardUI\\IconBorder.png";

  0071f	68 00 00 00 00	 push	 OFFSET FLAT:$SG199995
  00724	8d 4d c4	 lea	 ecx, DWORD PTR _strFrameImg$[ebp]
  00727	ff 15 00 00 00
	00		 call	 DWORD PTR __imp_??Y?$CStringT@DV?$StrTraitMFC_DLL@DV?$ChTraitsCRT@D@ATL@@@@@ATL@@QAEAAV01@PBD@Z

; 111  : 	USES_CONVERSION;

  0072d	e8 00 00 00 00	 call	 ?_AtlGetConversionACP@ATL@@YGIXZ ; ATL::_AtlGetConversionACP
  00732	89 85 b0 fe ff
	ff		 mov	 DWORD PTR __acp$[ebp], eax

; 112  : 	Image imgFrame(A2W(strFrameImg));

  00738	8d 4d c4	 lea	 ecx, DWORD PTR _strFrameImg$[ebp]
  0073b	ff 15 00 00 00
	00		 call	 DWORD PTR __imp_??B?$CSimpleStringT@D$00@ATL@@QBEPBDXZ
  00741	89 85 ac fe ff
	ff		 mov	 DWORD PTR __lpa$[ebp], eax
  00747	83 bd ac fe ff
	ff 00		 cmp	 DWORD PTR __lpa$[ebp], 0
  0074e	75 0c		 jne	 SHORT $L203092
  00750	c7 85 94 fe ff
	ff 00 00 00 00	 mov	 DWORD PTR tv199[ebp], 0
  0075a	eb 4d		 jmp	 SHORT $L203093
$L203092:
  0075c	8b 95 ac fe ff
	ff		 mov	 edx, DWORD PTR __lpa$[ebp]
  00762	52		 push	 edx
  00763	ff 15 00 00 00
	00		 call	 DWORD PTR __imp__lstrlenA@4
  00769	83 c0 01	 add	 eax, 1
  0076c	89 45 f0	 mov	 DWORD PTR __convert$[ebp], eax
  0076f	8b 45 f0	 mov	 eax, DWORD PTR __convert$[ebp]
  00772	d1 e0		 shl	 eax, 1
  00774	83 c0 03	 add	 eax, 3
  00777	83 e0 fc	 and	 eax, -4			; fffffffcH
  0077a	e8 00 00 00 00	 call	 __alloca_probe
  0077f	89 a5 90 fe ff
	ff		 mov	 DWORD PTR tv195[ebp], esp
  00785	8b 85 b0 fe ff
	ff		 mov	 eax, DWORD PTR __acp$[ebp]
  0078b	50		 push	 eax
  0078c	8b 4d f0	 mov	 ecx, DWORD PTR __convert$[ebp]
  0078f	51		 push	 ecx
  00790	8b 95 ac fe ff
	ff		 mov	 edx, DWORD PTR __lpa$[ebp]
  00796	52		 push	 edx
  00797	8b 85 90 fe ff
	ff		 mov	 eax, DWORD PTR tv195[ebp]
  0079d	50		 push	 eax
  0079e	e8 00 00 00 00	 call	 ?AtlA2WHelper@@YGPA_WPA_WPBDHI@Z ; AtlA2WHelper
  007a3	89 85 94 fe ff
	ff		 mov	 DWORD PTR tv199[ebp], eax
$L203093:
  007a9	6a 00		 push	 0
  007ab	8b 8d 94 fe ff
	ff		 mov	 ecx, DWORD PTR tv199[ebp]
  007b1	51		 push	 ecx
  007b2	8d 4d cc	 lea	 ecx, DWORD PTR _imgFrame$[ebp]
  007b5	e8 00 00 00 00	 call	 ??0Image@Gdiplus@@QAE@PB_WH@Z ; Gdiplus::Image::Image
  007ba	c6 45 fc 03	 mov	 BYTE PTR __$EHRec$[ebp+8], 3

; 113  : 	pImageFrame=imgFrame.Clone();

  007be	8d 4d cc	 lea	 ecx, DWORD PTR _imgFrame$[ebp]
  007c1	e8 00 00 00 00	 call	 ?Clone@Image@Gdiplus@@UAEPAV12@XZ ; Gdiplus::Image::Clone
  007c6	8b 95 a0 fe ff
	ff		 mov	 edx, DWORD PTR _this$[ebp]
  007cc	89 82 60 01 00
	00		 mov	 DWORD PTR [edx+352], eax

; 114  : 	return 0;

  007d2	c7 85 a4 fe ff
	ff 00 00 00 00	 mov	 DWORD PTR $T203094[ebp], 0
  007dc	c6 45 fc 01	 mov	 BYTE PTR __$EHRec$[ebp+8], 1
  007e0	8d 4d cc	 lea	 ecx, DWORD PTR _imgFrame$[ebp]
  007e3	e8 00 00 00 00	 call	 ??1Image@Gdiplus@@UAE@XZ ; Gdiplus::Image::~Image
  007e8	c6 45 fc 00	 mov	 BYTE PTR __$EHRec$[ebp+8], 0
  007ec	8d 4d c4	 lea	 ecx, DWORD PTR _strFrameImg$[ebp]
  007ef	ff 15 00 00 00
	00		 call	 DWORD PTR __imp_??1?$CStringT@DV?$StrTraitMFC_DLL@DV?$ChTraitsCRT@D@ATL@@@@@ATL@@QAE@XZ
  007f5	c7 45 fc ff ff
	ff ff		 mov	 DWORD PTR __$EHRec$[ebp+8], -1
  007fc	8d 4d dc	 lea	 ecx, DWORD PTR _dc$[ebp]
  007ff	e8 00 00 00 00	 call	 ??1CClientDC@@UAE@XZ	; CClientDC::~CClientDC
  00804	8b 85 a4 fe ff
	ff		 mov	 eax, DWORD PTR $T203094[ebp]
$L199987:

; 115  : }

  0080a	8d a5 8c fe ff
	ff		 lea	 esp, DWORD PTR [ebp-372]
  00810	8b 4d f4	 mov	 ecx, DWORD PTR __$EHRec$[ebp]
  00813	64 89 0d 00 00
	00 00		 mov	 DWORD PTR fs:__except_list, ecx
  0081a	8b 4d c0	 mov	 ecx, DWORD PTR __$ArrayPad$[ebp]
  0081d	e8 00 00 00 00	 call	 @__security_check_cookie@4
  00822	5f		 pop	 edi
  00823	8b e5		 mov	 esp, ebp
  00825	5d		 pop	 ebp
  00826	c2 04 00	 ret	 4
_TEXT	ENDS
text$x	SEGMENT
$L203095:
  00134	8d 4d dc	 lea	 ecx, DWORD PTR _dc$[ebp]
  00137	e9 00 00 00 00	 jmp	 ??1CClientDC@@UAE@XZ	; CClientDC::~CClientDC
$L203096:
  0013c	8d 4d c4	 lea	 ecx, DWORD PTR _strFrameImg$[ebp]
  0013f	ff 25 00 00 00
	00		 jmp	 DWORD PTR __imp_??1?$CStringT@DV?$StrTraitMFC_DLL@DV?$ChTraitsCRT@D@ATL@@@@@ATL@@QAE@XZ
$L203097:
  00145	8d 8d a8 fe ff
	ff		 lea	 ecx, DWORD PTR $T203091[ebp]
  0014b	ff 25 00 00 00
	00		 jmp	 DWORD PTR __imp_??1?$CStringT@DV?$StrTraitMFC_DLL@DV?$ChTraitsCRT@D@ATL@@@@@ATL@@QAE@XZ
$L203098:
  00151	8d 4d cc	 lea	 ecx, DWORD PTR _imgFrame$[ebp]
  00154	e9 00 00 00 00	 jmp	 ??1Image@Gdiplus@@UAE@XZ ; Gdiplus::Image::~Image
__ehhandler$?OnCreate@CLocalMusicCoverList@@IAEHPAUtagCREATESTRUCTA@@@Z:
  00159	b8 00 00 00 00	 mov	 eax, OFFSET FLAT:$T203100
  0015e	e9 00 00 00 00	 jmp	 ___CxxFrameHandler
text$x	ENDS
?OnCreate@CLocalMusicCoverList@@IAEHPAUtagCREATESTRUCTA@@@Z ENDP ; CLocalMusicCoverList::OnCreate
PUBLIC	?OnEraseBkgnd@CWnd@@IAEHPAVCDC@@@Z		; CWnd::OnEraseBkgnd
; Function compile flags: /Odt
_TEXT	SEGMENT
_this$ = -4						; size = 4
_pDC$ = 8						; size = 4
?OnEraseBkgnd@CLocalMusicCoverList@@IAEHPAVCDC@@@Z PROC NEAR ; CLocalMusicCoverList::OnEraseBkgnd
; _this$ = ecx

; 118  : {

  00830	55		 push	 ebp
  00831	8b ec		 mov	 ebp, esp
  00833	51		 push	 ecx
  00834	89 4d fc	 mov	 DWORD PTR _this$[ebp], ecx

; 119  : 	return CWnd::OnEraseBkgnd(pDC);

  00837	8b 45 08	 mov	 eax, DWORD PTR _pDC$[ebp]
  0083a	50		 push	 eax
  0083b	8b 4d fc	 mov	 ecx, DWORD PTR _this$[ebp]
  0083e	e8 00 00 00 00	 call	 ?OnEraseBkgnd@CWnd@@IAEHPAVCDC@@@Z ; CWnd::OnEraseBkgnd

; 120  : }

  00843	8b e5		 mov	 esp, ebp
  00845	5d		 pop	 ebp
  00846	c2 04 00	 ret	 4
?OnEraseBkgnd@CLocalMusicCoverList@@IAEHPAVCDC@@@Z ENDP	; CLocalMusicCoverList::OnEraseBkgnd
_TEXT	ENDS
PUBLIC	?GetClientRect@CWnd@@QBEXPAUtagRECT@@@Z		; CWnd::GetClientRect
PUBLIC	??0CSize@@QAE@HH@Z				; CSize::CSize
PUBLIC	??0CRect@@QAE@XZ				; CRect::CRect
PUBLIC	?Width@CRect@@QBEHXZ				; CRect::Width
PUBLIC	?Height@CRect@@QBEHXZ				; CRect::Height
PUBLIC	?BitBlt@CDC@@QAEHHHHHPAV1@HHK@Z			; CDC::BitBlt
EXTRN	_InitializeCoolSB@4:NEAR
EXTRN	_CoolSB_SetMinThumbSize@12:NEAR
EXTRN	_CoolSB_SetScrollPos@16:NEAR
EXTRN	_CoolSB_SetSize@16:NEAR
EXTRN	_CoolSB_SetStyle@12:NEAR
EXTRN	?GetWidth@CDibBitmap@@QAEHXZ:NEAR		; CDibBitmap::GetWidth
EXTRN	?GetHeight@CDibBitmap@@QAEHXZ:NEAR		; CDibBitmap::GetHeight
EXTRN	__ftol2:NEAR
EXTRN	__fltused:NEAR
EXTRN	??0CPaintDC@@QAE@PAVCWnd@@@Z:NEAR		; CPaintDC::CPaintDC
EXTRN	??1CPaintDC@@UAE@XZ:NEAR			; CPaintDC::~CPaintDC
xdata$x	SEGMENT
$T203117 DD	0ffffffffH
	DD	FLAT:$L203110
$T203112 DD	019930520H
	DD	01H
	DD	FLAT:$T203117
	DD	2 DUP(00H)
	DD	2 DUP(00H)
; Function compile flags: /Odt
xdata$x	ENDS
_TEXT	SEGMENT
tv274 = -212						; size = 4
tv271 = -208						; size = 4
tv268 = -204						; size = 4
tv263 = -200						; size = 4
tv262 = -196						; size = 4
tv259 = -192						; size = 4
tv258 = -188						; size = 4
tv255 = -184						; size = 4
tv250 = -180						; size = 4
tv249 = -176						; size = 4
tv246 = -172						; size = 4
tv245 = -168						; size = 4
tv242 = -164						; size = 4
_this$ = -160						; size = 4
_lenVbar$200015 = -156					; size = 4
_nPos$200021 = -152					; size = 4
_realhight$200017 = -148				; size = 4
_fper$200019 = -144					; size = 4
_h$200012 = -140					; size = 4
_w$200011 = -136					; size = 4
_sz$ = -132						; size = 8
_rcClient$ = -124					; size = 16
_dc$ = -108						; size = 84
__$ArrayPad$ = -16					; size = 4
__$EHRec$ = -12						; size = 12
__$ReturnAddr$ = 4					; size = 4
?OnPaint@CLocalMusicCoverList@@IAEXXZ PROC NEAR		; CLocalMusicCoverList::OnPaint
; _this$ = ecx

; 123  : {

  00850	55		 push	 ebp
  00851	8b ec		 mov	 ebp, esp
  00853	6a ff		 push	 -1
  00855	68 00 00 00 00	 push	 __ehhandler$?OnPaint@CLocalMusicCoverList@@IAEXXZ
  0085a	64 a1 00 00 00
	00		 mov	 eax, DWORD PTR fs:__except_list
  00860	50		 push	 eax
  00861	64 89 25 00 00
	00 00		 mov	 DWORD PTR fs:__except_list, esp
  00868	81 ec c8 00 00
	00		 sub	 esp, 200		; 000000c8H
  0086e	a1 00 00 00 00	 mov	 eax, DWORD PTR ___security_cookie
  00873	89 45 f0	 mov	 DWORD PTR __$ArrayPad$[ebp], eax
  00876	56		 push	 esi
  00877	89 8d 60 ff ff
	ff		 mov	 DWORD PTR _this$[ebp], ecx

; 124  : 	if(!m_bInit )

  0087d	8b 85 60 ff ff
	ff		 mov	 eax, DWORD PTR _this$[ebp]
  00883	0f b6 88 58 01
	00 00		 movzx	 ecx, BYTE PTR [eax+344]
  0088a	85 c9		 test	 ecx, ecx
  0088c	0f 85 d3 00 00
	00		 jne	 $L200010

; 125  : 	{
; 126  : 		m_bInit = true;

  00892	8b 95 60 ff ff
	ff		 mov	 edx, DWORD PTR _this$[ebp]
  00898	c6 82 58 01 00
	00 01		 mov	 BYTE PTR [edx+344], 1

; 127  : 		int w,h;
; 128  : 		w = h = 15;

  0089f	c7 85 74 ff ff
	ff 0f 00 00 00	 mov	 DWORD PTR _h$200012[ebp], 15 ; 0000000fH
  008a9	8b 85 74 ff ff
	ff		 mov	 eax, DWORD PTR _h$200012[ebp]
  008af	89 85 78 ff ff
	ff		 mov	 DWORD PTR _w$200011[ebp], eax

; 129  : 
; 130  : 		if( m_pBitmapScrollHorz && m_pBitmapScrollVert )

  008b5	8b 8d 60 ff ff
	ff		 mov	 ecx, DWORD PTR _this$[ebp]
  008bb	83 b9 54 01 00
	00 00		 cmp	 DWORD PTR [ecx+340], 0
  008c2	74 4d		 je	 SHORT $L200013
  008c4	8b 95 60 ff ff
	ff		 mov	 edx, DWORD PTR _this$[ebp]
  008ca	83 ba 50 01 00
	00 00		 cmp	 DWORD PTR [edx+336], 0
  008d1	74 3e		 je	 SHORT $L200013

; 131  : 		{
; 132  : 			h = m_pBitmapScrollVert->GetHeight() / 3;

  008d3	8b 85 60 ff ff
	ff		 mov	 eax, DWORD PTR _this$[ebp]
  008d9	8b 88 50 01 00
	00		 mov	 ecx, DWORD PTR [eax+336]
  008df	e8 00 00 00 00	 call	 ?GetHeight@CDibBitmap@@QAEHXZ ; CDibBitmap::GetHeight
  008e4	99		 cdq
  008e5	b9 03 00 00 00	 mov	 ecx, 3
  008ea	f7 f9		 idiv	 ecx
  008ec	89 85 74 ff ff
	ff		 mov	 DWORD PTR _h$200012[ebp], eax

; 133  : 			w = m_pBitmapScrollVert->GetWidth() / 6;

  008f2	8b 95 60 ff ff
	ff		 mov	 edx, DWORD PTR _this$[ebp]
  008f8	8b 8a 50 01 00
	00		 mov	 ecx, DWORD PTR [edx+336]
  008fe	e8 00 00 00 00	 call	 ?GetWidth@CDibBitmap@@QAEHXZ ; CDibBitmap::GetWidth
  00903	99		 cdq
  00904	b9 06 00 00 00	 mov	 ecx, 6
  00909	f7 f9		 idiv	 ecx
  0090b	89 85 78 ff ff
	ff		 mov	 DWORD PTR _w$200011[ebp], eax
$L200013:

; 134  : 		}
; 135  : 
; 136  : 		InitializeCoolSB(m_hWnd);

  00911	8b 95 60 ff ff
	ff		 mov	 edx, DWORD PTR _this$[ebp]
  00917	8b 42 20	 mov	 eax, DWORD PTR [edx+32]
  0091a	50		 push	 eax
  0091b	e8 00 00 00 00	 call	 _InitializeCoolSB@4

; 137  : 		CoolSB_SetStyle(m_hWnd, SB_BOTH, CSBS_HOTTRACKED);

  00920	6a 02		 push	 2
  00922	6a 03		 push	 3
  00924	8b 8d 60 ff ff
	ff		 mov	 ecx, DWORD PTR _this$[ebp]
  0092a	8b 51 20	 mov	 edx, DWORD PTR [ecx+32]
  0092d	52		 push	 edx
  0092e	e8 00 00 00 00	 call	 _CoolSB_SetStyle@12

; 138  : 		CoolSB_SetSize(m_hWnd, SB_BOTH, h, w);

  00933	8b 85 78 ff ff
	ff		 mov	 eax, DWORD PTR _w$200011[ebp]
  00939	50		 push	 eax
  0093a	8b 8d 74 ff ff
	ff		 mov	 ecx, DWORD PTR _h$200012[ebp]
  00940	51		 push	 ecx
  00941	6a 03		 push	 3
  00943	8b 95 60 ff ff
	ff		 mov	 edx, DWORD PTR _this$[ebp]
  00949	8b 42 20	 mov	 eax, DWORD PTR [edx+32]
  0094c	50		 push	 eax
  0094d	e8 00 00 00 00	 call	 _CoolSB_SetSize@16

; 139  : 		::CoolSB_SetMinThumbSize(m_hWnd, SB_BOTH, 8);

  00952	6a 08		 push	 8
  00954	6a 03		 push	 3
  00956	8b 8d 60 ff ff
	ff		 mov	 ecx, DWORD PTR _this$[ebp]
  0095c	8b 51 20	 mov	 edx, DWORD PTR [ecx+32]
  0095f	52		 push	 edx
  00960	e8 00 00 00 00	 call	 _CoolSB_SetMinThumbSize@12
$L200010:

; 140  : 		
; 141  : 	}
; 142  : 	if (m_PaintScrollBar)

  00965	8b 85 60 ff ff
	ff		 mov	 eax, DWORD PTR _this$[ebp]
  0096b	83 b8 5c 01 00
	00 00		 cmp	 DWORD PTR [eax+348], 0
  00972	0f 84 99 01 00
	00		 je	 $L200014

; 143  : 	{
; 144  : 		int lenVbar = (float)m_rect.Height()/m_rcRealRect.Height()*m_rect.Height();

  00978	8b 8d 60 ff ff
	ff		 mov	 ecx, DWORD PTR _this$[ebp]
  0097e	81 c1 8c 00 00
	00		 add	 ecx, 140		; 0000008cH
  00984	e8 00 00 00 00	 call	 ?Height@CRect@@QBEHXZ	; CRect::Height
  00989	89 85 5c ff ff
	ff		 mov	 DWORD PTR tv242[ebp], eax
  0098f	db 85 5c ff ff
	ff		 fild	 DWORD PTR tv242[ebp]
  00995	d9 9d 58 ff ff
	ff		 fstp	 DWORD PTR tv245[ebp]
  0099b	8b 8d 60 ff ff
	ff		 mov	 ecx, DWORD PTR _this$[ebp]
  009a1	81 c1 9c 00 00
	00		 add	 ecx, 156		; 0000009cH
  009a7	e8 00 00 00 00	 call	 ?Height@CRect@@QBEHXZ	; CRect::Height
  009ac	89 85 54 ff ff
	ff		 mov	 DWORD PTR tv246[ebp], eax
  009b2	db 85 54 ff ff
	ff		 fild	 DWORD PTR tv246[ebp]
  009b8	d8 bd 58 ff ff
	ff		 fdivr	 DWORD PTR tv245[ebp]
  009be	d9 9d 50 ff ff
	ff		 fstp	 DWORD PTR tv249[ebp]
  009c4	8b 8d 60 ff ff
	ff		 mov	 ecx, DWORD PTR _this$[ebp]
  009ca	81 c1 8c 00 00
	00		 add	 ecx, 140		; 0000008cH
  009d0	e8 00 00 00 00	 call	 ?Height@CRect@@QBEHXZ	; CRect::Height
  009d5	89 85 4c ff ff
	ff		 mov	 DWORD PTR tv250[ebp], eax
  009db	db 85 4c ff ff
	ff		 fild	 DWORD PTR tv250[ebp]
  009e1	d8 8d 50 ff ff
	ff		 fmul	 DWORD PTR tv249[ebp]
  009e7	e8 00 00 00 00	 call	 __ftol2
  009ec	89 85 64 ff ff
	ff		 mov	 DWORD PTR _lenVbar$200015[ebp], eax

; 145  : 		int realhight = (float)(m_rect.Height()-lenVbar)/m_rect.Height()*m_rcRealRect.Height();

  009f2	8b 8d 60 ff ff
	ff		 mov	 ecx, DWORD PTR _this$[ebp]
  009f8	81 c1 8c 00 00
	00		 add	 ecx, 140		; 0000008cH
  009fe	e8 00 00 00 00	 call	 ?Height@CRect@@QBEHXZ	; CRect::Height
  00a03	2b 85 64 ff ff
	ff		 sub	 eax, DWORD PTR _lenVbar$200015[ebp]
  00a09	89 85 48 ff ff
	ff		 mov	 DWORD PTR tv255[ebp], eax
  00a0f	db 85 48 ff ff
	ff		 fild	 DWORD PTR tv255[ebp]
  00a15	d9 9d 44 ff ff
	ff		 fstp	 DWORD PTR tv258[ebp]
  00a1b	8b 8d 60 ff ff
	ff		 mov	 ecx, DWORD PTR _this$[ebp]
  00a21	81 c1 8c 00 00
	00		 add	 ecx, 140		; 0000008cH
  00a27	e8 00 00 00 00	 call	 ?Height@CRect@@QBEHXZ	; CRect::Height
  00a2c	89 85 40 ff ff
	ff		 mov	 DWORD PTR tv259[ebp], eax
  00a32	db 85 40 ff ff
	ff		 fild	 DWORD PTR tv259[ebp]
  00a38	d8 bd 44 ff ff
	ff		 fdivr	 DWORD PTR tv258[ebp]
  00a3e	d9 9d 3c ff ff
	ff		 fstp	 DWORD PTR tv262[ebp]
  00a44	8b 8d 60 ff ff
	ff		 mov	 ecx, DWORD PTR _this$[ebp]
  00a4a	81 c1 9c 00 00
	00		 add	 ecx, 156		; 0000009cH
  00a50	e8 00 00 00 00	 call	 ?Height@CRect@@QBEHXZ	; CRect::Height
  00a55	89 85 38 ff ff
	ff		 mov	 DWORD PTR tv263[ebp], eax
  00a5b	db 85 38 ff ff
	ff		 fild	 DWORD PTR tv263[ebp]
  00a61	d8 8d 3c ff ff
	ff		 fmul	 DWORD PTR tv262[ebp]
  00a67	e8 00 00 00 00	 call	 __ftol2
  00a6c	89 85 6c ff ff
	ff		 mov	 DWORD PTR _realhight$200017[ebp], eax

; 146  : 		float fper = (float)(0-m_ptClientStart.y)/(m_rcRealRect.Height()-m_rect.Height());

  00a72	8b 8d 60 ff ff
	ff		 mov	 ecx, DWORD PTR _this$[ebp]
  00a78	33 d2		 xor	 edx, edx
  00a7a	2b 91 b0 00 00
	00		 sub	 edx, DWORD PTR [ecx+176]
  00a80	89 95 34 ff ff
	ff		 mov	 DWORD PTR tv268[ebp], edx
  00a86	db 85 34 ff ff
	ff		 fild	 DWORD PTR tv268[ebp]
  00a8c	d9 9d 30 ff ff
	ff		 fstp	 DWORD PTR tv271[ebp]
  00a92	8b 8d 60 ff ff
	ff		 mov	 ecx, DWORD PTR _this$[ebp]
  00a98	81 c1 9c 00 00
	00		 add	 ecx, 156		; 0000009cH
  00a9e	e8 00 00 00 00	 call	 ?Height@CRect@@QBEHXZ	; CRect::Height
  00aa3	8b f0		 mov	 esi, eax
  00aa5	8b 8d 60 ff ff
	ff		 mov	 ecx, DWORD PTR _this$[ebp]
  00aab	81 c1 8c 00 00
	00		 add	 ecx, 140		; 0000008cH
  00ab1	e8 00 00 00 00	 call	 ?Height@CRect@@QBEHXZ	; CRect::Height
  00ab6	2b f0		 sub	 esi, eax
  00ab8	89 b5 2c ff ff
	ff		 mov	 DWORD PTR tv274[ebp], esi
  00abe	db 85 2c ff ff
	ff		 fild	 DWORD PTR tv274[ebp]
  00ac4	d8 bd 30 ff ff
	ff		 fdivr	 DWORD PTR tv271[ebp]
  00aca	d9 9d 70 ff ff
	ff		 fstp	 DWORD PTR _fper$200019[ebp]

; 147  : 		int nPos = fper*realhight;

  00ad0	db 85 6c ff ff
	ff		 fild	 DWORD PTR _realhight$200017[ebp]
  00ad6	d8 8d 70 ff ff
	ff		 fmul	 DWORD PTR _fper$200019[ebp]
  00adc	e8 00 00 00 00	 call	 __ftol2
  00ae1	89 85 68 ff ff
	ff		 mov	 DWORD PTR _nPos$200021[ebp], eax

; 148  : 		CoolSB_SetScrollPos(m_hWnd,SB_VERT,nPos,TRUE);

  00ae7	6a 01		 push	 1
  00ae9	8b 85 68 ff ff
	ff		 mov	 eax, DWORD PTR _nPos$200021[ebp]
  00aef	50		 push	 eax
  00af0	6a 01		 push	 1
  00af2	8b 8d 60 ff ff
	ff		 mov	 ecx, DWORD PTR _this$[ebp]
  00af8	8b 51 20	 mov	 edx, DWORD PTR [ecx+32]
  00afb	52		 push	 edx
  00afc	e8 00 00 00 00	 call	 _CoolSB_SetScrollPos@16

; 149  : 		m_PaintScrollBar = FALSE;

  00b01	8b 85 60 ff ff
	ff		 mov	 eax, DWORD PTR _this$[ebp]
  00b07	c7 80 5c 01 00
	00 00 00 00 00	 mov	 DWORD PTR [eax+348], 0
$L200014:

; 150  : 	}
; 151  : 	CPaintDC dc(this); 

  00b11	8b 8d 60 ff ff
	ff		 mov	 ecx, DWORD PTR _this$[ebp]
  00b17	51		 push	 ecx
  00b18	8d 4d 94	 lea	 ecx, DWORD PTR _dc$[ebp]
  00b1b	e8 00 00 00 00	 call	 ??0CPaintDC@@QAE@PAVCWnd@@@Z ; CPaintDC::CPaintDC
  00b20	c7 45 fc 00 00
	00 00		 mov	 DWORD PTR __$EHRec$[ebp+8], 0

; 152  : 	CRect rcClient;

  00b27	8d 4d 84	 lea	 ecx, DWORD PTR _rcClient$[ebp]
  00b2a	e8 00 00 00 00	 call	 ??0CRect@@QAE@XZ	; CRect::CRect

; 153  : 	GetClientRect(&rcClient);

  00b2f	8d 55 84	 lea	 edx, DWORD PTR _rcClient$[ebp]
  00b32	52		 push	 edx
  00b33	8b 8d 60 ff ff
	ff		 mov	 ecx, DWORD PTR _this$[ebp]
  00b39	e8 00 00 00 00	 call	 ?GetClientRect@CWnd@@QBEXPAUtagRECT@@@Z ; CWnd::GetClientRect

; 154  : 	CSize sz = CSize(m_rect.Width(),m_rect.Height());

  00b3e	8b 8d 60 ff ff
	ff		 mov	 ecx, DWORD PTR _this$[ebp]
  00b44	81 c1 8c 00 00
	00		 add	 ecx, 140		; 0000008cH
  00b4a	e8 00 00 00 00	 call	 ?Height@CRect@@QBEHXZ	; CRect::Height
  00b4f	50		 push	 eax
  00b50	8b 8d 60 ff ff
	ff		 mov	 ecx, DWORD PTR _this$[ebp]
  00b56	81 c1 8c 00 00
	00		 add	 ecx, 140		; 0000008cH
  00b5c	e8 00 00 00 00	 call	 ?Width@CRect@@QBEHXZ	; CRect::Width
  00b61	50		 push	 eax
  00b62	8d 8d 7c ff ff
	ff		 lea	 ecx, DWORD PTR _sz$[ebp]
  00b68	e8 00 00 00 00	 call	 ??0CSize@@QAE@HH@Z	; CSize::CSize

; 155  : 	
; 156  : 	dc.BitBlt(0,0,sz.cx,sz.cy,&m_dcMem,0,0,SRCCOPY);

  00b6d	68 20 00 cc 00	 push	 13369376		; 00cc0020H
  00b72	6a 00		 push	 0
  00b74	6a 00		 push	 0
  00b76	8b 85 60 ff ff
	ff		 mov	 eax, DWORD PTR _this$[ebp]
  00b7c	83 c0 60	 add	 eax, 96			; 00000060H
  00b7f	50		 push	 eax
  00b80	8b 4d 80	 mov	 ecx, DWORD PTR _sz$[ebp+4]
  00b83	51		 push	 ecx
  00b84	8b 95 7c ff ff
	ff		 mov	 edx, DWORD PTR _sz$[ebp]
  00b8a	52		 push	 edx
  00b8b	6a 00		 push	 0
  00b8d	6a 00		 push	 0
  00b8f	8d 4d 94	 lea	 ecx, DWORD PTR _dc$[ebp]
  00b92	e8 00 00 00 00	 call	 ?BitBlt@CDC@@QAEHHHHHPAV1@HHK@Z ; CDC::BitBlt

; 157  : }

  00b97	c7 45 fc ff ff
	ff ff		 mov	 DWORD PTR __$EHRec$[ebp+8], -1
  00b9e	8d 4d 94	 lea	 ecx, DWORD PTR _dc$[ebp]
  00ba1	e8 00 00 00 00	 call	 ??1CPaintDC@@UAE@XZ	; CPaintDC::~CPaintDC
  00ba6	8b 4d f4	 mov	 ecx, DWORD PTR __$EHRec$[ebp]
  00ba9	64 89 0d 00 00
	00 00		 mov	 DWORD PTR fs:__except_list, ecx
  00bb0	8b 4d f0	 mov	 ecx, DWORD PTR __$ArrayPad$[ebp]
  00bb3	e8 00 00 00 00	 call	 @__security_check_cookie@4
  00bb8	5e		 pop	 esi
  00bb9	8b e5		 mov	 esp, ebp
  00bbb	5d		 pop	 ebp
  00bbc	c3		 ret	 0
_TEXT	ENDS
text$x	SEGMENT
$L203110:
  00163	8d 4d 94	 lea	 ecx, DWORD PTR _dc$[ebp]
  00166	e9 00 00 00 00	 jmp	 ??1CPaintDC@@UAE@XZ	; CPaintDC::~CPaintDC
__ehhandler$?OnPaint@CLocalMusicCoverList@@IAEXXZ:
  0016b	b8 00 00 00 00	 mov	 eax, OFFSET FLAT:$T203112
  00170	e9 00 00 00 00	 jmp	 ___CxxFrameHandler
text$x	ENDS
?OnPaint@CLocalMusicCoverList@@IAEXXZ ENDP		; CLocalMusicCoverList::OnPaint
PUBLIC	?SizeChanged@CLocalMusicCoverList@@IAEXH@Z	; CLocalMusicCoverList::SizeChanged
PUBLIC	?OnSize@CWnd@@IAEXIHH@Z				; CWnd::OnSize
; Function compile flags: /Odt
_TEXT	SEGMENT
_this$ = -4						; size = 4
_nType$ = 8						; size = 4
_cx$ = 12						; size = 4
_cy$ = 16						; size = 4
?OnSize@CLocalMusicCoverList@@IAEXIHH@Z PROC NEAR	; CLocalMusicCoverList::OnSize
; _this$ = ecx

; 160  : {

  00bc0	55		 push	 ebp
  00bc1	8b ec		 mov	 ebp, esp
  00bc3	51		 push	 ecx
  00bc4	89 4d fc	 mov	 DWORD PTR _this$[ebp], ecx

; 161  : 	CWnd::OnSize(nType, cx, cy);

  00bc7	8b 45 10	 mov	 eax, DWORD PTR _cy$[ebp]
  00bca	50		 push	 eax
  00bcb	8b 4d 0c	 mov	 ecx, DWORD PTR _cx$[ebp]
  00bce	51		 push	 ecx
  00bcf	8b 55 08	 mov	 edx, DWORD PTR _nType$[ebp]
  00bd2	52		 push	 edx
  00bd3	8b 4d fc	 mov	 ecx, DWORD PTR _this$[ebp]
  00bd6	e8 00 00 00 00	 call	 ?OnSize@CWnd@@IAEXIHH@Z	; CWnd::OnSize

; 162  : 	SizeChanged();

  00bdb	6a 00		 push	 0
  00bdd	8b 4d fc	 mov	 ecx, DWORD PTR _this$[ebp]
  00be0	e8 00 00 00 00	 call	 ?SizeChanged@CLocalMusicCoverList@@IAEXH@Z ; CLocalMusicCoverList::SizeChanged

; 163  : 	
; 164  : }

  00be5	8b e5		 mov	 esp, ebp
  00be7	5d		 pop	 ebp
  00be8	c2 0c 00	 ret	 12			; 0000000cH
?OnSize@CLocalMusicCoverList@@IAEXIHH@Z ENDP		; CLocalMusicCoverList::OnSize
_TEXT	ENDS
PUBLIC	?AfxGetApp@@YGPAVCWinApp@@XZ			; AfxGetApp
PUBLIC	?LoadStandardCursor@CWinApp@@QBEPAUHICON__@@PBD@Z ; CWinApp::LoadStandardCursor
EXTRN	?AfxRegisterWndClass@@YGPBDIPAUHICON__@@PAUHBRUSH__@@0@Z:NEAR ; AfxRegisterWndClass
EXTRN	?Create@CWnd@@UAEHPBD0KABUtagRECT@@PAV1@IPAUCCreateContext@@@Z:NEAR ; CWnd::Create
; Function compile flags: /Odt
_TEXT	SEGMENT
_this$ = -8						; size = 4
_ret$ = -4						; size = 4
_lpszClassName$ = 8					; size = 4
_lpszWindowName$ = 12					; size = 4
_dwStyle$ = 16						; size = 4
_rect$ = 20						; size = 4
_pParentWnd$ = 24					; size = 4
_nID$ = 28						; size = 4
_pContext$ = 32						; size = 4
?Create@CLocalMusicCoverList@@UAEHPBD0KABUtagRECT@@PAVCWnd@@IPAUCCreateContext@@@Z PROC NEAR ; CLocalMusicCoverList::Create
; _this$ = ecx

; 167  : {

  00bf0	55		 push	 ebp
  00bf1	8b ec		 mov	 ebp, esp
  00bf3	83 ec 08	 sub	 esp, 8
  00bf6	89 4d f8	 mov	 DWORD PTR _this$[ebp], ecx

; 168  : 	BOOL ret = CWnd::Create(AfxRegisterWndClass(CS_DBLCLKS| CS_CLASSDC | CS_SAVEBITS,AfxGetApp()->LoadStandardCursor(IDC_ARROW),0,0),
; 169  : 		_T(""), dwStyle, rect, pParentWnd, nID, pContext);

  00bf9	8b 45 20	 mov	 eax, DWORD PTR _pContext$[ebp]
  00bfc	50		 push	 eax
  00bfd	8b 4d 1c	 mov	 ecx, DWORD PTR _nID$[ebp]
  00c00	51		 push	 ecx
  00c01	8b 55 18	 mov	 edx, DWORD PTR _pParentWnd$[ebp]
  00c04	52		 push	 edx
  00c05	8b 45 14	 mov	 eax, DWORD PTR _rect$[ebp]
  00c08	50		 push	 eax
  00c09	8b 4d 10	 mov	 ecx, DWORD PTR _dwStyle$[ebp]
  00c0c	51		 push	 ecx
  00c0d	68 00 00 00 00	 push	 OFFSET FLAT:$SG200047
  00c12	6a 00		 push	 0
  00c14	6a 00		 push	 0
  00c16	68 00 7f 00 00	 push	 32512			; 00007f00H
  00c1b	e8 00 00 00 00	 call	 ?AfxGetApp@@YGPAVCWinApp@@XZ ; AfxGetApp
  00c20	8b c8		 mov	 ecx, eax
  00c22	e8 00 00 00 00	 call	 ?LoadStandardCursor@CWinApp@@QBEPAUHICON__@@PBD@Z ; CWinApp::LoadStandardCursor
  00c27	50		 push	 eax
  00c28	68 48 08 00 00	 push	 2120			; 00000848H
  00c2d	e8 00 00 00 00	 call	 ?AfxRegisterWndClass@@YGPBDIPAUHICON__@@PAUHBRUSH__@@0@Z ; AfxRegisterWndClass
  00c32	50		 push	 eax
  00c33	8b 4d f8	 mov	 ecx, DWORD PTR _this$[ebp]
  00c36	e8 00 00 00 00	 call	 ?Create@CWnd@@UAEHPBD0KABUtagRECT@@PAV1@IPAUCCreateContext@@@Z ; CWnd::Create
  00c3b	89 45 fc	 mov	 DWORD PTR _ret$[ebp], eax

; 170  : 
; 171  : 	return ret;	

  00c3e	8b 45 fc	 mov	 eax, DWORD PTR _ret$[ebp]

; 172  : }

  00c41	8b e5		 mov	 esp, ebp
  00c43	5d		 pop	 ebp
  00c44	c2 1c 00	 ret	 28			; 0000001cH
?Create@CLocalMusicCoverList@@UAEHPBD0KABUtagRECT@@PAVCWnd@@IPAUCCreateContext@@@Z ENDP ; CLocalMusicCoverList::Create
; Function compile flags: /Odt
_this$ = -4						; size = 4
_iItemWidth$ = 8					; size = 4
_iItemHeight$ = 12					; size = 4
?SetItemWH@CLocalMusicCoverList@@QAEXHH@Z PROC NEAR	; CLocalMusicCoverList::SetItemWH
; _this$ = ecx

; 175  : {

  00c50	55		 push	 ebp
  00c51	8b ec		 mov	 ebp, esp
  00c53	51		 push	 ecx
  00c54	89 4d fc	 mov	 DWORD PTR _this$[ebp], ecx

; 176  : 	m_iItemWidth = iItemWidth;

  00c57	8b 45 fc	 mov	 eax, DWORD PTR _this$[ebp]
  00c5a	8b 4d 08	 mov	 ecx, DWORD PTR _iItemWidth$[ebp]
  00c5d	89 48 54	 mov	 DWORD PTR [eax+84], ecx

; 177  : 	m_iItemHeight = iItemHeight;

  00c60	8b 55 fc	 mov	 edx, DWORD PTR _this$[ebp]
  00c63	8b 45 0c	 mov	 eax, DWORD PTR _iItemHeight$[ebp]
  00c66	89 42 58	 mov	 DWORD PTR [edx+88], eax

; 178  : }

  00c69	8b e5		 mov	 esp, ebp
  00c6b	5d		 pop	 ebp
  00c6c	c2 08 00	 ret	 8
?SetItemWH@CLocalMusicCoverList@@QAEXHH@Z ENDP		; CLocalMusicCoverList::SetItemWH
_TEXT	ENDS
PUBLIC	?SetPoint@CPoint@@QAEXHH@Z			; CPoint::SetPoint
PUBLIC	?SetImgState@CLocalMusicCoverList@@QAEXW4LMCImgState@@@Z ; CLocalMusicCoverList::SetImgState
PUBLIC	?OnMemoryDraw@CLocalMusicCoverList@@IAEXH@Z	; CLocalMusicCoverList::OnMemoryDraw
PUBLIC	?UpdateList@CLocalMusicCoverList@@IAEXXZ	; CLocalMusicCoverList::UpdateList
EXTRN	?SetConfigIntValue@AfxUserConfig@@QAEXABV?$basic_string@DU?$char_traits@D@std@@V?$allocator@D@2@@std@@0H_N@Z:NEAR ; AfxUserConfig::SetConfigIntValue
xdata$x	SEGMENT
$T203129 DD	0ffffffffH
	DD	FLAT:$L203124
	DD	00H
	DD	FLAT:$L203125
$T203127 DD	019930520H
	DD	02H
	DD	FLAT:$T203129
	DD	2 DUP(00H)
	DD	2 DUP(00H)
; Function compile flags: /Odt
xdata$x	ENDS
_TEXT	SEGMENT
tv66 = -80						; size = 4
_this$ = -76						; size = 4
$T203123 = -72						; size = 28
$T203122 = -44						; size = 28
_iValue$ = -16						; size = 4
__$EHRec$ = -12						; size = 12
_is$ = 8						; size = 4
?SetImgState@CLocalMusicCoverList@@QAEXW4LMCImgState@@@Z PROC NEAR ; CLocalMusicCoverList::SetImgState
; _this$ = ecx

; 181  : {

  00c70	55		 push	 ebp
  00c71	8b ec		 mov	 ebp, esp
  00c73	6a ff		 push	 -1
  00c75	68 00 00 00 00	 push	 __ehhandler$?SetImgState@CLocalMusicCoverList@@QAEXW4LMCImgState@@@Z
  00c7a	64 a1 00 00 00
	00		 mov	 eax, DWORD PTR fs:__except_list
  00c80	50		 push	 eax
  00c81	64 89 25 00 00
	00 00		 mov	 DWORD PTR fs:__except_list, esp
  00c88	83 ec 44	 sub	 esp, 68			; 00000044H
  00c8b	89 4d b4	 mov	 DWORD PTR _this$[ebp], ecx

; 182  : 	m_ImgState=is;

  00c8e	8b 45 b4	 mov	 eax, DWORD PTR _this$[ebp]
  00c91	8b 4d 08	 mov	 ecx, DWORD PTR _is$[ebp]
  00c94	89 48 5c	 mov	 DWORD PTR [eax+92], ecx

; 183  : 	int iValue = 0;

  00c97	c7 45 f0 00 00
	00 00		 mov	 DWORD PTR _iValue$[ebp], 0

; 184  : 	switch(m_ImgState)

  00c9e	8b 55 b4	 mov	 edx, DWORD PTR _this$[ebp]
  00ca1	8b 42 5c	 mov	 eax, DWORD PTR [edx+92]
  00ca4	89 45 b0	 mov	 DWORD PTR tv66[ebp], eax
  00ca7	83 7d b0 00	 cmp	 DWORD PTR tv66[ebp], 0
  00cab	74 0e		 je	 SHORT $L200062
  00cad	83 7d b0 01	 cmp	 DWORD PTR tv66[ebp], 1
  00cb1	74 1d		 je	 SHORT $L200063
  00cb3	83 7d b0 02	 cmp	 DWORD PTR tv66[ebp], 2
  00cb7	74 2c		 je	 SHORT $L200064
  00cb9	eb 43		 jmp	 SHORT $L200059
$L200062:

; 185  : 	{
; 186  : 	case LMCI_Small:
; 187  : 		SetItemWH(80,80);

  00cbb	6a 50		 push	 80			; 00000050H
  00cbd	6a 50		 push	 80			; 00000050H
  00cbf	8b 4d b4	 mov	 ecx, DWORD PTR _this$[ebp]
  00cc2	e8 00 00 00 00	 call	 ?SetItemWH@CLocalMusicCoverList@@QAEXHH@Z ; CLocalMusicCoverList::SetItemWH

; 188  : 		iValue = 0;

  00cc7	c7 45 f0 00 00
	00 00		 mov	 DWORD PTR _iValue$[ebp], 0

; 189  : 		break;

  00cce	eb 2e		 jmp	 SHORT $L200059
$L200063:

; 190  : 	case LMCI_Middle:
; 191  : 		SetItemWH(100,100);

  00cd0	6a 64		 push	 100			; 00000064H
  00cd2	6a 64		 push	 100			; 00000064H
  00cd4	8b 4d b4	 mov	 ecx, DWORD PTR _this$[ebp]
  00cd7	e8 00 00 00 00	 call	 ?SetItemWH@CLocalMusicCoverList@@QAEXHH@Z ; CLocalMusicCoverList::SetItemWH

; 192  : 		iValue = 1;

  00cdc	c7 45 f0 01 00
	00 00		 mov	 DWORD PTR _iValue$[ebp], 1

; 193  : 		break;

  00ce3	eb 19		 jmp	 SHORT $L200059
$L200064:

; 194  : 	case LMCI_Big:
; 195  : 		SetItemWH(130,130);

  00ce5	68 82 00 00 00	 push	 130			; 00000082H
  00cea	68 82 00 00 00	 push	 130			; 00000082H
  00cef	8b 4d b4	 mov	 ecx, DWORD PTR _this$[ebp]
  00cf2	e8 00 00 00 00	 call	 ?SetItemWH@CLocalMusicCoverList@@QAEXHH@Z ; CLocalMusicCoverList::SetItemWH

; 196  : 		iValue = 2;

  00cf7	c7 45 f0 02 00
	00 00		 mov	 DWORD PTR _iValue$[ebp], 2
$L200059:

; 197  : 		break;
; 198  : 	}
; 199  : 	AfxGetUserConfig()->SetConfigIntValue( CONF_APP_MODULE_NAME,CONF_APP_PLAYED_ICON_SIZE, iValue);

  00cfe	8b 0d 00 00 00
	00		 mov	 ecx, DWORD PTR _CONF_APP_PLAYED_ICON_SIZE
  00d04	51		 push	 ecx
  00d05	8d 4d d4	 lea	 ecx, DWORD PTR $T203122[ebp]
  00d08	ff 15 00 00 00
	00		 call	 DWORD PTR __imp_??0?$basic_string@DU?$char_traits@D@std@@V?$allocator@D@2@@std@@QAE@PBD@Z
  00d0e	c7 45 fc 00 00
	00 00		 mov	 DWORD PTR __$EHRec$[ebp+8], 0
  00d15	8b 15 00 00 00
	00		 mov	 edx, DWORD PTR _CONF_APP_MODULE_NAME
  00d1b	52		 push	 edx
  00d1c	8d 4d b8	 lea	 ecx, DWORD PTR $T203123[ebp]
  00d1f	ff 15 00 00 00
	00		 call	 DWORD PTR __imp_??0?$basic_string@DU?$char_traits@D@std@@V?$allocator@D@2@@std@@QAE@PBD@Z
  00d25	c6 45 fc 01	 mov	 BYTE PTR __$EHRec$[ebp+8], 1
  00d29	6a 00		 push	 0
  00d2b	8b 45 f0	 mov	 eax, DWORD PTR _iValue$[ebp]
  00d2e	50		 push	 eax
  00d2f	8d 4d d4	 lea	 ecx, DWORD PTR $T203122[ebp]
  00d32	51		 push	 ecx
  00d33	8d 55 b8	 lea	 edx, DWORD PTR $T203123[ebp]
  00d36	52		 push	 edx
  00d37	e8 00 00 00 00	 call	 ?AfxGetUserConfig@@YAPAVAfxUserConfig@@XZ ; AfxGetUserConfig
  00d3c	8b c8		 mov	 ecx, eax
  00d3e	e8 00 00 00 00	 call	 ?SetConfigIntValue@AfxUserConfig@@QAEXABV?$basic_string@DU?$char_traits@D@std@@V?$allocator@D@2@@std@@0H_N@Z ; AfxUserConfig::SetConfigIntValue
  00d43	c6 45 fc 00	 mov	 BYTE PTR __$EHRec$[ebp+8], 0
  00d47	8d 4d b8	 lea	 ecx, DWORD PTR $T203123[ebp]
  00d4a	ff 15 00 00 00
	00		 call	 DWORD PTR __imp_??1?$basic_string@DU?$char_traits@D@std@@V?$allocator@D@2@@std@@QAE@XZ
  00d50	c7 45 fc ff ff
	ff ff		 mov	 DWORD PTR __$EHRec$[ebp+8], -1
  00d57	8d 4d d4	 lea	 ecx, DWORD PTR $T203122[ebp]
  00d5a	ff 15 00 00 00
	00		 call	 DWORD PTR __imp_??1?$basic_string@DU?$char_traits@D@std@@V?$allocator@D@2@@std@@QAE@XZ

; 200  : 	m_ptClientStart.SetPoint(0,0);

  00d60	6a 00		 push	 0
  00d62	6a 00		 push	 0
  00d64	8b 4d b4	 mov	 ecx, DWORD PTR _this$[ebp]
  00d67	81 c1 ac 00 00
	00		 add	 ecx, 172		; 000000acH
  00d6d	e8 00 00 00 00	 call	 ?SetPoint@CPoint@@QAEXHH@Z ; CPoint::SetPoint

; 201  : 	UpdateList();

  00d72	8b 4d b4	 mov	 ecx, DWORD PTR _this$[ebp]
  00d75	e8 00 00 00 00	 call	 ?UpdateList@CLocalMusicCoverList@@IAEXXZ ; CLocalMusicCoverList::UpdateList

; 202  : 	OnMemoryDraw();

  00d7a	6a 01		 push	 1
  00d7c	8b 4d b4	 mov	 ecx, DWORD PTR _this$[ebp]
  00d7f	e8 00 00 00 00	 call	 ?OnMemoryDraw@CLocalMusicCoverList@@IAEXH@Z ; CLocalMusicCoverList::OnMemoryDraw

; 203  : }

  00d84	8b 4d f4	 mov	 ecx, DWORD PTR __$EHRec$[ebp]
  00d87	64 89 0d 00 00
	00 00		 mov	 DWORD PTR fs:__except_list, ecx
  00d8e	8b e5		 mov	 esp, ebp
  00d90	5d		 pop	 ebp
  00d91	c2 04 00	 ret	 4
_TEXT	ENDS
text$x	SEGMENT
$L203124:
  00175	8d 4d d4	 lea	 ecx, DWORD PTR $T203122[ebp]
  00178	ff 25 00 00 00
	00		 jmp	 DWORD PTR __imp_??1?$basic_string@DU?$char_traits@D@std@@V?$allocator@D@2@@std@@QAE@XZ
$L203125:
  0017e	8d 4d b8	 lea	 ecx, DWORD PTR $T203123[ebp]
  00181	ff 25 00 00 00
	00		 jmp	 DWORD PTR __imp_??1?$basic_string@DU?$char_traits@D@std@@V?$allocator@D@2@@std@@QAE@XZ
__ehhandler$?SetImgState@CLocalMusicCoverList@@QAEXW4LMCImgState@@@Z:
  00187	b8 00 00 00 00	 mov	 eax, OFFSET FLAT:$T203127
  0018c	e9 00 00 00 00	 jmp	 ___CxxFrameHandler
text$x	ENDS
?SetImgState@CLocalMusicCoverList@@QAEXW4LMCImgState@@@Z ENDP ; CLocalMusicCoverList::SetImgState
PUBLIC	?InsertItem@CLocalMusicCoverList@@QAEHPAVCDibBitmap@@V?$CStringT@DV?$StrTraitMFC_DLL@DV?$ChTraitsCRT@D@ATL@@@@@ATL@@1V?$basic_string@DU?$char_traits@D@std@@V?$allocator@D@2@@std@@H@Z ; CLocalMusicCoverList::InsertItem
EXTRN	__imp_??0?$CStringT@DV?$StrTraitMFC_DLL@DV?$ChTraitsCRT@D@ATL@@@@@ATL@@QAE@ABV01@@Z:NEAR
EXTRN	?InsertItem@CLMCDataMgr@@QAEHPAVCDibBitmap@@V?$CStringT@DV?$StrTraitMFC_DLL@DV?$ChTraitsCRT@D@ATL@@@@@ATL@@1V?$basic_string@DU?$char_traits@D@std@@V?$allocator@D@2@@std@@H@Z:NEAR ; CLMCDataMgr::InsertItem
EXTRN	__imp_??0?$basic_string@DU?$char_traits@D@std@@V?$allocator@D@2@@std@@QAE@ABV01@@Z:NEAR
xdata$x	SEGMENT
$T203144 DD	0ffffffffH
	DD	FLAT:$L203135
	DD	00H
	DD	FLAT:$L203136
	DD	01H
	DD	FLAT:$L203137
	DD	02H
	DD	FLAT:$L203138
	DD	03H
	DD	FLAT:$L203139
$T203142 DD	019930520H
	DD	05H
	DD	FLAT:$T203144
	DD	2 DUP(00H)
	DD	2 DUP(00H)
; Function compile flags: /Odt
xdata$x	ENDS
_TEXT	SEGMENT
tv166 = -64						; size = 4
tv172 = -60						; size = 4
tv169 = -56						; size = 4
tv177 = -52						; size = 4
tv165 = -48						; size = 4
tv176 = -44						; size = 4
_this$ = -40						; size = 4
$T203134 = -36						; size = 4
$T203133 = -32						; size = 4
$T203132 = -28						; size = 4
$T203131 = -24						; size = 4
_iHeightSpaceMB$ = -20					; size = 4
_iHeightSpaceS$ = -16					; size = 4
__$EHRec$ = -12						; size = 12
_pImg$ = 8						; size = 4
_strItemName$ = 12					; size = 4
_strdetail$ = 16					; size = 4
_strGID$ = 20						; size = 28
_blSel$ = 48						; size = 4
?InsertItem@CLocalMusicCoverList@@QAEHPAVCDibBitmap@@V?$CStringT@DV?$StrTraitMFC_DLL@DV?$ChTraitsCRT@D@ATL@@@@@ATL@@1V?$basic_string@DU?$char_traits@D@std@@V?$allocator@D@2@@std@@H@Z PROC NEAR ; CLocalMusicCoverList::InsertItem
; _this$ = ecx

; 206  : {

  00da0	55		 push	 ebp
  00da1	8b ec		 mov	 ebp, esp
  00da3	6a ff		 push	 -1
  00da5	68 00 00 00 00	 push	 __ehhandler$?InsertItem@CLocalMusicCoverList@@QAEHPAVCDibBitmap@@V?$CStringT@DV?$StrTraitMFC_DLL@DV?$ChTraitsCRT@D@ATL@@@@@ATL@@1V?$basic_string@DU?$char_traits@D@std@@V?$allocator@D@2@@std@@H@Z
  00daa	64 a1 00 00 00
	00		 mov	 eax, DWORD PTR fs:__except_list
  00db0	50		 push	 eax
  00db1	64 89 25 00 00
	00 00		 mov	 DWORD PTR fs:__except_list, esp
  00db8	83 ec 34	 sub	 esp, 52			; 00000034H
  00dbb	89 4d d8	 mov	 DWORD PTR _this$[ebp], ecx
  00dbe	c7 45 fc 02 00
	00 00		 mov	 DWORD PTR __$EHRec$[ebp+8], 2

; 207  : 	int iHeightSpaceS = m_iItemHeight+SPACEH + ITEMTXTH + SPACEH;

  00dc5	8b 45 d8	 mov	 eax, DWORD PTR _this$[ebp]
  00dc8	8b 48 58	 mov	 ecx, DWORD PTR [eax+88]
  00dcb	83 c1 17	 add	 ecx, 23			; 00000017H
  00dce	89 4d f0	 mov	 DWORD PTR _iHeightSpaceS$[ebp], ecx

; 208  : 	int iHeightSpaceMB = m_iItemHeight+SPACEH + ITEMTXTH + SPACEH + ITEMTXTH + SPACEH  ;	

  00dd1	8b 55 d8	 mov	 edx, DWORD PTR _this$[ebp]
  00dd4	8b 42 58	 mov	 eax, DWORD PTR [edx+88]
  00dd7	83 c0 2a	 add	 eax, 42			; 0000002aH
  00dda	89 45 ec	 mov	 DWORD PTR _iHeightSpaceMB$[ebp], eax

; 209  : 	if (m_ImgState==LMCI_Small)
; 210  : 	{
; 211  : 	}
; 212  : 	else if (m_ImgState==LMCI_Middle||m_ImgState==LMCI_Big)
; 213  : 	{
; 214  : 
; 215  : 	}
; 216  : 	return m_DataMgr.InsertItem(pImg,strItemName,strdetail, strGID, blSel);

  00ddd	8b 4d 30	 mov	 ecx, DWORD PTR _blSel$[ebp]
  00de0	51		 push	 ecx
  00de1	83 ec 1c	 sub	 esp, 28			; 0000001cH
  00de4	8b cc		 mov	 ecx, esp
  00de6	89 65 e4	 mov	 DWORD PTR $T203132[ebp], esp
  00de9	8d 55 14	 lea	 edx, DWORD PTR _strGID$[ebp]
  00dec	52		 push	 edx
  00ded	ff 15 00 00 00
	00		 call	 DWORD PTR __imp_??0?$basic_string@DU?$char_traits@D@std@@V?$allocator@D@2@@std@@QAE@ABV01@@Z
  00df3	89 45 d4	 mov	 DWORD PTR tv176[ebp], eax
  00df6	8b 45 d4	 mov	 eax, DWORD PTR tv176[ebp]
  00df9	89 45 d0	 mov	 DWORD PTR tv165[ebp], eax
  00dfc	c6 45 fc 03	 mov	 BYTE PTR __$EHRec$[ebp+8], 3
  00e00	51		 push	 ecx
  00e01	8b cc		 mov	 ecx, esp
  00e03	89 65 e0	 mov	 DWORD PTR $T203133[ebp], esp
  00e06	8d 55 10	 lea	 edx, DWORD PTR _strdetail$[ebp]
  00e09	52		 push	 edx
  00e0a	ff 15 00 00 00
	00		 call	 DWORD PTR __imp_??0?$CStringT@DV?$StrTraitMFC_DLL@DV?$ChTraitsCRT@D@ATL@@@@@ATL@@QAE@ABV01@@Z
  00e10	89 45 cc	 mov	 DWORD PTR tv177[ebp], eax
  00e13	8b 45 cc	 mov	 eax, DWORD PTR tv177[ebp]
  00e16	89 45 c8	 mov	 DWORD PTR tv169[ebp], eax
  00e19	c6 45 fc 04	 mov	 BYTE PTR __$EHRec$[ebp+8], 4
  00e1d	51		 push	 ecx
  00e1e	8b cc		 mov	 ecx, esp
  00e20	89 65 dc	 mov	 DWORD PTR $T203134[ebp], esp
  00e23	8d 55 0c	 lea	 edx, DWORD PTR _strItemName$[ebp]
  00e26	52		 push	 edx
  00e27	ff 15 00 00 00
	00		 call	 DWORD PTR __imp_??0?$CStringT@DV?$StrTraitMFC_DLL@DV?$ChTraitsCRT@D@ATL@@@@@ATL@@QAE@ABV01@@Z
  00e2d	89 45 c4	 mov	 DWORD PTR tv172[ebp], eax
  00e30	8b 45 08	 mov	 eax, DWORD PTR _pImg$[ebp]
  00e33	50		 push	 eax
  00e34	8b 4d d8	 mov	 ecx, DWORD PTR _this$[ebp]
  00e37	81 c1 68 01 00
	00		 add	 ecx, 360		; 00000168H
  00e3d	c6 45 fc 02	 mov	 BYTE PTR __$EHRec$[ebp+8], 2
  00e41	e8 00 00 00 00	 call	 ?InsertItem@CLMCDataMgr@@QAEHPAVCDibBitmap@@V?$CStringT@DV?$StrTraitMFC_DLL@DV?$ChTraitsCRT@D@ATL@@@@@ATL@@1V?$basic_string@DU?$char_traits@D@std@@V?$allocator@D@2@@std@@H@Z ; CLMCDataMgr::InsertItem
  00e46	89 45 c0	 mov	 DWORD PTR tv166[ebp], eax
  00e49	8b 4d c0	 mov	 ecx, DWORD PTR tv166[ebp]
  00e4c	89 4d e8	 mov	 DWORD PTR $T203131[ebp], ecx
  00e4f	c6 45 fc 01	 mov	 BYTE PTR __$EHRec$[ebp+8], 1
  00e53	8d 4d 0c	 lea	 ecx, DWORD PTR _strItemName$[ebp]
  00e56	ff 15 00 00 00
	00		 call	 DWORD PTR __imp_??1?$CStringT@DV?$StrTraitMFC_DLL@DV?$ChTraitsCRT@D@ATL@@@@@ATL@@QAE@XZ
  00e5c	c6 45 fc 00	 mov	 BYTE PTR __$EHRec$[ebp+8], 0
  00e60	8d 4d 10	 lea	 ecx, DWORD PTR _strdetail$[ebp]
  00e63	ff 15 00 00 00
	00		 call	 DWORD PTR __imp_??1?$CStringT@DV?$StrTraitMFC_DLL@DV?$ChTraitsCRT@D@ATL@@@@@ATL@@QAE@XZ
  00e69	c7 45 fc ff ff
	ff ff		 mov	 DWORD PTR __$EHRec$[ebp+8], -1
  00e70	8d 4d 14	 lea	 ecx, DWORD PTR _strGID$[ebp]
  00e73	ff 15 00 00 00
	00		 call	 DWORD PTR __imp_??1?$basic_string@DU?$char_traits@D@std@@V?$allocator@D@2@@std@@QAE@XZ
  00e79	8b 45 e8	 mov	 eax, DWORD PTR $T203131[ebp]

; 217  : }

  00e7c	8b 4d f4	 mov	 ecx, DWORD PTR __$EHRec$[ebp]
  00e7f	64 89 0d 00 00
	00 00		 mov	 DWORD PTR fs:__except_list, ecx
  00e86	8b e5		 mov	 esp, ebp
  00e88	5d		 pop	 ebp
  00e89	c2 2c 00	 ret	 44			; 0000002cH
_TEXT	ENDS
text$x	SEGMENT
$L203135:
  00191	8d 4d 14	 lea	 ecx, DWORD PTR _strGID$[ebp]
  00194	ff 25 00 00 00
	00		 jmp	 DWORD PTR __imp_??1?$basic_string@DU?$char_traits@D@std@@V?$allocator@D@2@@std@@QAE@XZ
$L203136:
  0019a	8d 4d 10	 lea	 ecx, DWORD PTR _strdetail$[ebp]
  0019d	ff 25 00 00 00
	00		 jmp	 DWORD PTR __imp_??1?$CStringT@DV?$StrTraitMFC_DLL@DV?$ChTraitsCRT@D@ATL@@@@@ATL@@QAE@XZ
$L203137:
  001a3	8d 4d 0c	 lea	 ecx, DWORD PTR _strItemName$[ebp]
  001a6	ff 25 00 00 00
	00		 jmp	 DWORD PTR __imp_??1?$CStringT@DV?$StrTraitMFC_DLL@DV?$ChTraitsCRT@D@ATL@@@@@ATL@@QAE@XZ
$L203138:
  001ac	8b 4d e4	 mov	 ecx, DWORD PTR $T203132[ebp]
  001af	ff 25 00 00 00
	00		 jmp	 DWORD PTR __imp_??1?$basic_string@DU?$char_traits@D@std@@V?$allocator@D@2@@std@@QAE@XZ
$L203139:
  001b5	8b 4d e0	 mov	 ecx, DWORD PTR $T203133[ebp]
  001b8	ff 25 00 00 00
	00		 jmp	 DWORD PTR __imp_??1?$CStringT@DV?$StrTraitMFC_DLL@DV?$ChTraitsCRT@D@ATL@@@@@ATL@@QAE@XZ
__ehhandler$?InsertItem@CLocalMusicCoverList@@QAEHPAVCDibBitmap@@V?$CStringT@DV?$StrTraitMFC_DLL@DV?$ChTraitsCRT@D@ATL@@@@@ATL@@1V?$basic_string@DU?$char_traits@D@std@@V?$allocator@D@2@@std@@H@Z:
  001be	b8 00 00 00 00	 mov	 eax, OFFSET FLAT:$T203142
  001c3	e9 00 00 00 00	 jmp	 ___CxxFrameHandler
text$x	ENDS
?InsertItem@CLocalMusicCoverList@@QAEHPAVCDibBitmap@@V?$CStringT@DV?$StrTraitMFC_DLL@DV?$ChTraitsCRT@D@ATL@@@@@ATL@@1V?$basic_string@DU?$char_traits@D@std@@V?$allocator@D@2@@std@@H@Z ENDP ; CLocalMusicCoverList::InsertItem
PUBLIC	?InterlockedExchangePointer@@YGPAXPAPAXPAX@Z	; InterlockedExchangePointer
PUBLIC	?_AtlGetThreadACPFake@ATL@@YGIXZ		; ATL::_AtlGetThreadACPFake
PUBLIC	?_AtlGetThreadACPReal@ATL@@YGIXZ		; ATL::_AtlGetThreadACPReal
EXTRN	__imp__GetVersionExA@4:NEAR
; Function compile flags: /Odt
; File d:\program files (x86)\microsoft visual studio .net 2003\vc7\atlmfc\include\atlconv.h
;	COMDAT ?_AtlGetThreadACPThunk@ATL@@YGIXZ
_TEXT	SEGMENT
_pfnGetThreadACP$ = -164				; size = 4
_ver$ = -160						; size = 148
__$ArrayPad$ = -4					; size = 4
__$ReturnAddr$ = 4					; size = 4
?_AtlGetThreadACPThunk@ATL@@YGIXZ PROC NEAR		; ATL::_AtlGetThreadACPThunk, COMDAT

; 134  : {

  00000	55		 push	 ebp
  00001	8b ec		 mov	 ebp, esp
  00003	81 ec a4 00 00
	00		 sub	 esp, 164		; 000000a4H
  00009	a1 00 00 00 00	 mov	 eax, DWORD PTR ___security_cookie
  0000e	89 45 fc	 mov	 DWORD PTR __$ArrayPad$[ebp], eax

; 135  : 	OSVERSIONINFO ver;
; 136  : 	ATLGETTHREADACP pfnGetThreadACP;
; 137  : 
; 138  : 	ver.dwOSVersionInfoSize = sizeof( ver );

  00011	c7 85 60 ff ff
	ff 94 00 00 00	 mov	 DWORD PTR _ver$[ebp], 148 ; 00000094H

; 139  : 	::GetVersionEx( &ver );

  0001b	8d 85 60 ff ff
	ff		 lea	 eax, DWORD PTR _ver$[ebp]
  00021	50		 push	 eax
  00022	ff 15 00 00 00
	00		 call	 DWORD PTR __imp__GetVersionExA@4

; 140  : 	if( (ver.dwPlatformId == VER_PLATFORM_WIN32_NT) && (ver.dwMajorVersion >= 5) )

  00028	83 bd 70 ff ff
	ff 02		 cmp	 DWORD PTR _ver$[ebp+16], 2
  0002f	75 15		 jne	 SHORT $L24173
  00031	83 bd 64 ff ff
	ff 05		 cmp	 DWORD PTR _ver$[ebp+4], 5
  00038	72 0c		 jb	 SHORT $L24173

; 141  : 	{
; 142  : 		// On Win2K, CP_THREAD_ACP is supported
; 143  : 		pfnGetThreadACP = _AtlGetThreadACPReal;

  0003a	c7 85 5c ff ff
	ff 00 00 00 00	 mov	 DWORD PTR _pfnGetThreadACP$[ebp], OFFSET FLAT:?_AtlGetThreadACPReal@ATL@@YGIXZ ; ATL::_AtlGetThreadACPReal

; 144  : 	}
; 145  : 	else

  00044	eb 0a		 jmp	 SHORT $L24174
$L24173:

; 146  : 	{
; 147  : 		pfnGetThreadACP = _AtlGetThreadACPFake;

  00046	c7 85 5c ff ff
	ff 00 00 00 00	 mov	 DWORD PTR _pfnGetThreadACP$[ebp], OFFSET FLAT:?_AtlGetThreadACPFake@ATL@@YGIXZ ; ATL::_AtlGetThreadACPFake
$L24174:

; 148  : 	}
; 149  : 	InterlockedExchangePointer( reinterpret_cast< void** >(&g_pfnGetThreadACP), pfnGetThreadACP );

  00050	8b 8d 5c ff ff
	ff		 mov	 ecx, DWORD PTR _pfnGetThreadACP$[ebp]
  00056	51		 push	 ecx
  00057	68 00 00 00 00	 push	 OFFSET FLAT:?g_pfnGetThreadACP@ATL@@3P6GIXZA ; ATL::g_pfnGetThreadACP
  0005c	e8 00 00 00 00	 call	 ?InterlockedExchangePointer@@YGPAXPAPAXPAX@Z ; InterlockedExchangePointer

; 150  : 
; 151  : 	return( g_pfnGetThreadACP() );

  00061	ff 15 00 00 00
	00		 call	 DWORD PTR ?g_pfnGetThreadACP@ATL@@3P6GIXZA ; ATL::g_pfnGetThreadACP

; 152  : }

  00067	8b 4d fc	 mov	 ecx, DWORD PTR __$ArrayPad$[ebp]
  0006a	e8 00 00 00 00	 call	 @__security_check_cookie@4
  0006f	8b e5		 mov	 esp, ebp
  00071	5d		 pop	 ebp
  00072	c3		 ret	 0
?_AtlGetThreadACPThunk@ATL@@YGIXZ ENDP			; ATL::_AtlGetThreadACPThunk
_TEXT	ENDS
EXTRN	__imp__InterlockedExchange@8:NEAR
; Function compile flags: /Odt
;	COMDAT ?InterlockedExchangePointer@@YGPAXPAPAXPAX@Z
_TEXT	SEGMENT
_pp$ = 8						; size = 4
_pNew$ = 12						; size = 4
?InterlockedExchangePointer@@YGPAXPAPAXPAX@Z PROC NEAR	; InterlockedExchangePointer, COMDAT

; 91   : {

  00000	55		 push	 ebp
  00001	8b ec		 mov	 ebp, esp

; 92   : 	return( reinterpret_cast<void*>(static_cast<LONG_PTR>(::InterlockedExchange(reinterpret_cast<LONG*>(pp), static_cast<LONG>(reinterpret_cast<LONG_PTR>(pNew))))) );

  00003	8b 45 0c	 mov	 eax, DWORD PTR _pNew$[ebp]
  00006	50		 push	 eax
  00007	8b 4d 08	 mov	 ecx, DWORD PTR _pp$[ebp]
  0000a	51		 push	 ecx
  0000b	ff 15 00 00 00
	00		 call	 DWORD PTR __imp__InterlockedExchange@8

; 93   : }

  00011	5d		 pop	 ebp
  00012	c2 08 00	 ret	 8
?InterlockedExchangePointer@@YGPAXPAPAXPAX@Z ENDP	; InterlockedExchangePointer
_TEXT	ENDS
EXTRN	__imp__GetACP@0:NEAR
EXTRN	__imp__GetLocaleInfoA@16:NEAR
EXTRN	__imp__GetThreadLocale@0:NEAR
; Function compile flags: /Odt
;	COMDAT ?_AtlGetThreadACPFake@ATL@@YGIXZ
_TEXT	SEGMENT
_pch$24161 = -24					; size = 4
_lcidThread$ = -20					; size = 4
_szACP$ = -16						; size = 7
__$ArrayPad$ = -8					; size = 4
_nACP$ = -4						; size = 4
__$ReturnAddr$ = 4					; size = 4
?_AtlGetThreadACPFake@ATL@@YGIXZ PROC NEAR		; ATL::_AtlGetThreadACPFake, COMDAT

; 101  : {

  00000	55		 push	 ebp
  00001	8b ec		 mov	 ebp, esp
  00003	83 ec 18	 sub	 esp, 24			; 00000018H
  00006	a1 00 00 00 00	 mov	 eax, DWORD PTR ___security_cookie
  0000b	89 45 f8	 mov	 DWORD PTR __$ArrayPad$[ebp], eax

; 102  : 	UINT nACP = 0;

  0000e	c7 45 fc 00 00
	00 00		 mov	 DWORD PTR _nACP$[ebp], 0

; 103  : 
; 104  : 	LCID lcidThread = ::GetThreadLocale();

  00015	ff 15 00 00 00
	00		 call	 DWORD PTR __imp__GetThreadLocale@0
  0001b	89 45 ec	 mov	 DWORD PTR _lcidThread$[ebp], eax

; 105  : 
; 106  : 	char szACP[7];
; 107  : 	// GetLocaleInfoA will fail for a Unicode-only LCID, but those are only supported on 
; 108  : 	// Windows 2000.  Since Windows 2000 supports CP_THREAD_ACP, this code path is never
; 109  : 	// executed on Windows 2000.
; 110  : 	if (::GetLocaleInfoA(lcidThread, LOCALE_IDEFAULTANSICODEPAGE, szACP, 7) != 0)

  0001e	6a 07		 push	 7
  00020	8d 45 f0	 lea	 eax, DWORD PTR _szACP$[ebp]
  00023	50		 push	 eax
  00024	68 04 10 00 00	 push	 4100			; 00001004H
  00029	8b 4d ec	 mov	 ecx, DWORD PTR _lcidThread$[ebp]
  0002c	51		 push	 ecx
  0002d	ff 15 00 00 00
	00		 call	 DWORD PTR __imp__GetLocaleInfoA@16
  00033	85 c0		 test	 eax, eax
  00035	74 34		 je	 SHORT $L24160

; 111  : 	{
; 112  : 		char* pch = szACP;

  00037	8d 55 f0	 lea	 edx, DWORD PTR _szACP$[ebp]
  0003a	89 55 e8	 mov	 DWORD PTR _pch$24161[ebp], edx
$L24163:

; 113  : 		while (*pch != '\0')

  0003d	8b 45 e8	 mov	 eax, DWORD PTR _pch$24161[ebp]
  00040	0f be 08	 movsx	 ecx, BYTE PTR [eax]
  00043	85 c9		 test	 ecx, ecx
  00045	74 24		 je	 SHORT $L24160

; 114  : 		{
; 115  : 			nACP *= 10;

  00047	8b 55 fc	 mov	 edx, DWORD PTR _nACP$[ebp]
  0004a	6b d2 0a	 imul	 edx, 10			; 0000000aH
  0004d	89 55 fc	 mov	 DWORD PTR _nACP$[ebp], edx

; 116  : 			nACP += *pch++ - '0';

  00050	8b 45 e8	 mov	 eax, DWORD PTR _pch$24161[ebp]
  00053	0f be 08	 movsx	 ecx, BYTE PTR [eax]
  00056	8b 55 fc	 mov	 edx, DWORD PTR _nACP$[ebp]
  00059	8d 44 0a d0	 lea	 eax, DWORD PTR [edx+ecx-48]
  0005d	89 45 fc	 mov	 DWORD PTR _nACP$[ebp], eax
  00060	8b 4d e8	 mov	 ecx, DWORD PTR _pch$24161[ebp]
  00063	83 c1 01	 add	 ecx, 1
  00066	89 4d e8	 mov	 DWORD PTR _pch$24161[ebp], ecx

; 117  : 		}

  00069	eb d2		 jmp	 SHORT $L24163
$L24160:

; 118  : 	}
; 119  : 	// Use the Default ANSI Code Page if we were unable to get the thread ACP or if one does not exist.
; 120  : 	if (nACP == 0)

  0006b	83 7d fc 00	 cmp	 DWORD PTR _nACP$[ebp], 0
  0006f	75 09		 jne	 SHORT $L24165

; 121  : 		nACP = ::GetACP();

  00071	ff 15 00 00 00
	00		 call	 DWORD PTR __imp__GetACP@0
  00077	89 45 fc	 mov	 DWORD PTR _nACP$[ebp], eax
$L24165:

; 122  : 
; 123  : 	return nACP;

  0007a	8b 45 fc	 mov	 eax, DWORD PTR _nACP$[ebp]

; 124  : }

  0007d	8b 4d f8	 mov	 ecx, DWORD PTR __$ArrayPad$[ebp]
  00080	e8 00 00 00 00	 call	 @__security_check_cookie@4
  00085	8b e5		 mov	 esp, ebp
  00087	5d		 pop	 ebp
  00088	c3		 ret	 0
?_AtlGetThreadACPFake@ATL@@YGIXZ ENDP			; ATL::_AtlGetThreadACPFake
; Function compile flags: /Odt
_TEXT	ENDS
;	COMDAT ?_AtlGetThreadACPReal@ATL@@YGIXZ
_TEXT	SEGMENT
?_AtlGetThreadACPReal@ATL@@YGIXZ PROC NEAR		; ATL::_AtlGetThreadACPReal, COMDAT

; 127  : {

  00000	55		 push	 ebp
  00001	8b ec		 mov	 ebp, esp

; 128  : 	return( CP_THREAD_ACP );

  00003	b8 03 00 00 00	 mov	 eax, 3

; 129  : }

  00008	5d		 pop	 ebp
  00009	c3		 ret	 0
?_AtlGetThreadACPReal@ATL@@YGIXZ ENDP			; ATL::_AtlGetThreadACPReal
; Function compile flags: /Odt
_TEXT	ENDS
;	COMDAT ?_AtlGetConversionACP@ATL@@YGIXZ
_TEXT	SEGMENT
?_AtlGetConversionACP@ATL@@YGIXZ PROC NEAR		; ATL::_AtlGetConversionACP, COMDAT

; 157  : {

  00000	55		 push	 ebp
  00001	8b ec		 mov	 ebp, esp

; 158  : 	return( g_pfnGetThreadACP() );

  00003	ff 15 00 00 00
	00		 call	 DWORD PTR ?g_pfnGetThreadACP@ATL@@3P6GIXZA ; ATL::g_pfnGetThreadACP

; 159  : }

  00009	5d		 pop	 ebp
  0000a	c3		 ret	 0
?_AtlGetConversionACP@ATL@@YGIXZ ENDP			; ATL::_AtlGetConversionACP
_TEXT	ENDS
PUBLIC	?InsertItem@CLocalMusicCoverList@@QAEHPBDV?$CStringT@DV?$StrTraitMFC_DLL@DV?$ChTraitsCRT@D@ATL@@@@@ATL@@1V?$basic_string@DU?$char_traits@D@std@@V?$allocator@D@2@@std@@H@Z ; CLocalMusicCoverList::InsertItem
EXTRN	?InsertItem@CLMCDataMgr@@QAEHV?$CStringT@DV?$StrTraitMFC_DLL@DV?$ChTraitsCRT@D@ATL@@@@@ATL@@00V?$basic_string@DU?$char_traits@D@std@@V?$allocator@D@2@@std@@H@Z:NEAR ; CLMCDataMgr::InsertItem
xdata$x	SEGMENT
$T203175 DD	0ffffffffH
	DD	FLAT:$L203165
	DD	00H
	DD	FLAT:$L203166
	DD	01H
	DD	FLAT:$L203167
	DD	02H
	DD	FLAT:$L203168
	DD	03H
	DD	FLAT:$L203169
	DD	04H
	DD	FLAT:$L203170
$T203173 DD	019930520H
	DD	06H
	DD	FLAT:$T203175
	DD	2 DUP(00H)
	DD	2 DUP(00H)
; Function compile flags: /Odt
; File d:\boxgit\playbox\playbox\dev\prj\playbox\src\module\playedgamepanel\localmusiccoverlist.cpp
xdata$x	ENDS
_TEXT	SEGMENT
tv162 = -68						; size = 4
tv171 = -64						; size = 4
tv168 = -60						; size = 4
tv177 = -56						; size = 4
tv165 = -52						; size = 4
tv176 = -48						; size = 4
tv161 = -44						; size = 4
tv175 = -40						; size = 4
_this$ = -36						; size = 4
$T203164 = -32						; size = 4
$T203163 = -28						; size = 4
$T203162 = -24						; size = 4
$T203161 = -20						; size = 4
$T203160 = -16						; size = 4
__$EHRec$ = -12						; size = 12
_szImgPath$ = 8						; size = 4
_strItemName$ = 12					; size = 4
_strdetail$ = 16					; size = 4
_strGID$ = 20						; size = 28
_blSel$ = 48						; size = 4
?InsertItem@CLocalMusicCoverList@@QAEHPBDV?$CStringT@DV?$StrTraitMFC_DLL@DV?$ChTraitsCRT@D@ATL@@@@@ATL@@1V?$basic_string@DU?$char_traits@D@std@@V?$allocator@D@2@@std@@H@Z PROC NEAR ; CLocalMusicCoverList::InsertItem
; _this$ = ecx

; 220  : {

  00e90	55		 push	 ebp
  00e91	8b ec		 mov	 ebp, esp
  00e93	6a ff		 push	 -1
  00e95	68 00 00 00 00	 push	 __ehhandler$?InsertItem@CLocalMusicCoverList@@QAEHPBDV?$CStringT@DV?$StrTraitMFC_DLL@DV?$ChTraitsCRT@D@ATL@@@@@ATL@@1V?$basic_string@DU?$char_traits@D@std@@V?$allocator@D@2@@std@@H@Z
  00e9a	64 a1 00 00 00
	00		 mov	 eax, DWORD PTR fs:__except_list
  00ea0	50		 push	 eax
  00ea1	64 89 25 00 00
	00 00		 mov	 DWORD PTR fs:__except_list, esp
  00ea8	83 ec 38	 sub	 esp, 56			; 00000038H
  00eab	89 4d dc	 mov	 DWORD PTR _this$[ebp], ecx
  00eae	c7 45 fc 02 00
	00 00		 mov	 DWORD PTR __$EHRec$[ebp+8], 2

; 221  : 	return m_DataMgr.InsertItem(szImgPath,strItemName,strdetail,strGID,blSel);

  00eb5	8b 45 30	 mov	 eax, DWORD PTR _blSel$[ebp]
  00eb8	50		 push	 eax
  00eb9	83 ec 1c	 sub	 esp, 28			; 0000001cH
  00ebc	8b cc		 mov	 ecx, esp
  00ebe	89 65 ec	 mov	 DWORD PTR $T203161[ebp], esp
  00ec1	8d 55 14	 lea	 edx, DWORD PTR _strGID$[ebp]
  00ec4	52		 push	 edx
  00ec5	ff 15 00 00 00
	00		 call	 DWORD PTR __imp_??0?$basic_string@DU?$char_traits@D@std@@V?$allocator@D@2@@std@@QAE@ABV01@@Z
  00ecb	89 45 d8	 mov	 DWORD PTR tv175[ebp], eax
  00ece	8b 45 d8	 mov	 eax, DWORD PTR tv175[ebp]
  00ed1	89 45 d4	 mov	 DWORD PTR tv161[ebp], eax
  00ed4	c6 45 fc 03	 mov	 BYTE PTR __$EHRec$[ebp+8], 3
  00ed8	51		 push	 ecx
  00ed9	8b cc		 mov	 ecx, esp
  00edb	89 65 e8	 mov	 DWORD PTR $T203162[ebp], esp
  00ede	8d 55 10	 lea	 edx, DWORD PTR _strdetail$[ebp]
  00ee1	52		 push	 edx
  00ee2	ff 15 00 00 00
	00		 call	 DWORD PTR __imp_??0?$CStringT@DV?$StrTraitMFC_DLL@DV?$ChTraitsCRT@D@ATL@@@@@ATL@@QAE@ABV01@@Z
  00ee8	89 45 d0	 mov	 DWORD PTR tv176[ebp], eax
  00eeb	8b 45 d0	 mov	 eax, DWORD PTR tv176[ebp]
  00eee	89 45 cc	 mov	 DWORD PTR tv165[ebp], eax
  00ef1	c6 45 fc 04	 mov	 BYTE PTR __$EHRec$[ebp+8], 4
  00ef5	51		 push	 ecx
  00ef6	8b cc		 mov	 ecx, esp
  00ef8	89 65 e4	 mov	 DWORD PTR $T203163[ebp], esp
  00efb	8d 55 0c	 lea	 edx, DWORD PTR _strItemName$[ebp]
  00efe	52		 push	 edx
  00eff	ff 15 00 00 00
	00		 call	 DWORD PTR __imp_??0?$CStringT@DV?$StrTraitMFC_DLL@DV?$ChTraitsCRT@D@ATL@@@@@ATL@@QAE@ABV01@@Z
  00f05	89 45 c8	 mov	 DWORD PTR tv177[ebp], eax
  00f08	8b 45 c8	 mov	 eax, DWORD PTR tv177[ebp]
  00f0b	89 45 c4	 mov	 DWORD PTR tv168[ebp], eax
  00f0e	c6 45 fc 05	 mov	 BYTE PTR __$EHRec$[ebp+8], 5
  00f12	51		 push	 ecx
  00f13	8b cc		 mov	 ecx, esp
  00f15	89 65 e0	 mov	 DWORD PTR $T203164[ebp], esp
  00f18	8b 55 08	 mov	 edx, DWORD PTR _szImgPath$[ebp]
  00f1b	52		 push	 edx
  00f1c	ff 15 00 00 00
	00		 call	 DWORD PTR __imp_??0?$CStringT@DV?$StrTraitMFC_DLL@DV?$ChTraitsCRT@D@ATL@@@@@ATL@@QAE@PBD@Z
  00f22	89 45 c0	 mov	 DWORD PTR tv171[ebp], eax
  00f25	8b 4d dc	 mov	 ecx, DWORD PTR _this$[ebp]
  00f28	81 c1 68 01 00
	00		 add	 ecx, 360		; 00000168H
  00f2e	c6 45 fc 02	 mov	 BYTE PTR __$EHRec$[ebp+8], 2
  00f32	e8 00 00 00 00	 call	 ?InsertItem@CLMCDataMgr@@QAEHV?$CStringT@DV?$StrTraitMFC_DLL@DV?$ChTraitsCRT@D@ATL@@@@@ATL@@00V?$basic_string@DU?$char_traits@D@std@@V?$allocator@D@2@@std@@H@Z ; CLMCDataMgr::InsertItem
  00f37	89 45 bc	 mov	 DWORD PTR tv162[ebp], eax
  00f3a	8b 45 bc	 mov	 eax, DWORD PTR tv162[ebp]
  00f3d	89 45 f0	 mov	 DWORD PTR $T203160[ebp], eax
  00f40	c6 45 fc 01	 mov	 BYTE PTR __$EHRec$[ebp+8], 1
  00f44	8d 4d 0c	 lea	 ecx, DWORD PTR _strItemName$[ebp]
  00f47	ff 15 00 00 00
	00		 call	 DWORD PTR __imp_??1?$CStringT@DV?$StrTraitMFC_DLL@DV?$ChTraitsCRT@D@ATL@@@@@ATL@@QAE@XZ
  00f4d	c6 45 fc 00	 mov	 BYTE PTR __$EHRec$[ebp+8], 0
  00f51	8d 4d 10	 lea	 ecx, DWORD PTR _strdetail$[ebp]
  00f54	ff 15 00 00 00
	00		 call	 DWORD PTR __imp_??1?$CStringT@DV?$StrTraitMFC_DLL@DV?$ChTraitsCRT@D@ATL@@@@@ATL@@QAE@XZ
  00f5a	c7 45 fc ff ff
	ff ff		 mov	 DWORD PTR __$EHRec$[ebp+8], -1
  00f61	8d 4d 14	 lea	 ecx, DWORD PTR _strGID$[ebp]
  00f64	ff 15 00 00 00
	00		 call	 DWORD PTR __imp_??1?$basic_string@DU?$char_traits@D@std@@V?$allocator@D@2@@std@@QAE@XZ
  00f6a	8b 45 f0	 mov	 eax, DWORD PTR $T203160[ebp]

; 222  : }

  00f6d	8b 4d f4	 mov	 ecx, DWORD PTR __$EHRec$[ebp]
  00f70	64 89 0d 00 00
	00 00		 mov	 DWORD PTR fs:__except_list, ecx
  00f77	8b e5		 mov	 esp, ebp
  00f79	5d		 pop	 ebp
  00f7a	c2 2c 00	 ret	 44			; 0000002cH
_TEXT	ENDS
text$x	SEGMENT
$L203165:
  001c8	8d 4d 14	 lea	 ecx, DWORD PTR _strGID$[ebp]
  001cb	ff 25 00 00 00
	00		 jmp	 DWORD PTR __imp_??1?$basic_string@DU?$char_traits@D@std@@V?$allocator@D@2@@std@@QAE@XZ
$L203166:
  001d1	8d 4d 10	 lea	 ecx, DWORD PTR _strdetail$[ebp]
  001d4	ff 25 00 00 00
	00		 jmp	 DWORD PTR __imp_??1?$CStringT@DV?$StrTraitMFC_DLL@DV?$ChTraitsCRT@D@ATL@@@@@ATL@@QAE@XZ
$L203167:
  001da	8d 4d 0c	 lea	 ecx, DWORD PTR _strItemName$[ebp]
  001dd	ff 25 00 00 00
	00		 jmp	 DWORD PTR __imp_??1?$CStringT@DV?$StrTraitMFC_DLL@DV?$ChTraitsCRT@D@ATL@@@@@ATL@@QAE@XZ
$L203168:
  001e3	8b 4d ec	 mov	 ecx, DWORD PTR $T203161[ebp]
  001e6	ff 25 00 00 00
	00		 jmp	 DWORD PTR __imp_??1?$basic_string@DU?$char_traits@D@std@@V?$allocator@D@2@@std@@QAE@XZ
$L203169:
  001ec	8b 4d e8	 mov	 ecx, DWORD PTR $T203162[ebp]
  001ef	ff 25 00 00 00
	00		 jmp	 DWORD PTR __imp_??1?$CStringT@DV?$StrTraitMFC_DLL@DV?$ChTraitsCRT@D@ATL@@@@@ATL@@QAE@XZ
$L203170:
  001f5	8b 4d e4	 mov	 ecx, DWORD PTR $T203163[ebp]
  001f8	ff 25 00 00 00
	00		 jmp	 DWORD PTR __imp_??1?$CStringT@DV?$StrTraitMFC_DLL@DV?$ChTraitsCRT@D@ATL@@@@@ATL@@QAE@XZ
__ehhandler$?InsertItem@CLocalMusicCoverList@@QAEHPBDV?$CStringT@DV?$StrTraitMFC_DLL@DV?$ChTraitsCRT@D@ATL@@@@@ATL@@1V?$basic_string@DU?$char_traits@D@std@@V?$allocator@D@2@@std@@H@Z:
  001fe	b8 00 00 00 00	 mov	 eax, OFFSET FLAT:$T203173
  00203	e9 00 00 00 00	 jmp	 ___CxxFrameHandler
text$x	ENDS
?InsertItem@CLocalMusicCoverList@@QAEHPBDV?$CStringT@DV?$StrTraitMFC_DLL@DV?$ChTraitsCRT@D@ATL@@@@@ATL@@1V?$basic_string@DU?$char_traits@D@std@@V?$allocator@D@2@@std@@H@Z ENDP ; CLocalMusicCoverList::InsertItem
EXTRN	__imp__MultiByteToWideChar@24:NEAR
; Function compile flags: /Odt
; File d:\program files (x86)\microsoft visual studio .net 2003\vc7\atlmfc\include\atlconv.h
;	COMDAT ?AtlA2WHelper@@YGPA_WPA_WPBDHI@Z
_TEXT	SEGMENT
_ret$ = -4						; size = 4
_lpw$ = 8						; size = 4
_lpa$ = 12						; size = 4
_nChars$ = 16						; size = 4
_acp$ = 20						; size = 4
?AtlA2WHelper@@YGPA_WPA_WPBDHI@Z PROC NEAR		; AtlA2WHelper, COMDAT

; 554  : {

  00000	55		 push	 ebp
  00001	8b ec		 mov	 ebp, esp
  00003	51		 push	 ecx

; 555  : 	ATLASSERT(lpa != NULL);
; 556  : 	ATLASSERT(lpw != NULL);
; 557  : 	if (lpw == NULL || lpa == NULL)

  00004	83 7d 08 00	 cmp	 DWORD PTR _lpw$[ebp], 0
  00008	74 06		 je	 SHORT $L24306
  0000a	83 7d 0c 00	 cmp	 DWORD PTR _lpa$[ebp], 0
  0000e	75 04		 jne	 SHORT $L24305
$L24306:

; 558  : 		return NULL;

  00010	33 c0		 xor	 eax, eax
  00012	eb 32		 jmp	 SHORT $L24302
$L24305:

; 559  : 	// verify that no illegal character present
; 560  : 	// since lpw was allocated based on the size of lpa
; 561  : 	// don't worry about the number of chars
; 562  : 	lpw[0] = '\0';

  00014	8b 45 08	 mov	 eax, DWORD PTR _lpw$[ebp]
  00017	66 c7 00 00 00	 mov	 WORD PTR [eax], 0

; 563  : 	int ret = MultiByteToWideChar(acp, 0, lpa, -1, lpw, nChars);

  0001c	8b 4d 10	 mov	 ecx, DWORD PTR _nChars$[ebp]
  0001f	51		 push	 ecx
  00020	8b 55 08	 mov	 edx, DWORD PTR _lpw$[ebp]
  00023	52		 push	 edx
  00024	6a ff		 push	 -1
  00026	8b 45 0c	 mov	 eax, DWORD PTR _lpa$[ebp]
  00029	50		 push	 eax
  0002a	6a 00		 push	 0
  0002c	8b 4d 14	 mov	 ecx, DWORD PTR _acp$[ebp]
  0002f	51		 push	 ecx
  00030	ff 15 00 00 00
	00		 call	 DWORD PTR __imp__MultiByteToWideChar@24
  00036	89 45 fc	 mov	 DWORD PTR _ret$[ebp], eax

; 564  : 	if(ret == 0)

  00039	83 7d fc 00	 cmp	 DWORD PTR _ret$[ebp], 0
  0003d	75 04		 jne	 SHORT $L24308

; 565  : 	{
; 566  : 		ATLASSERT(FALSE);
; 567  : 		return NULL;

  0003f	33 c0		 xor	 eax, eax
  00041	eb 03		 jmp	 SHORT $L24302
$L24308:

; 568  : 	}		
; 569  : 	return lpw;

  00043	8b 45 08	 mov	 eax, DWORD PTR _lpw$[ebp]
$L24302:

; 570  : }

  00046	8b e5		 mov	 esp, ebp
  00048	5d		 pop	 ebp
  00049	c2 10 00	 ret	 16			; 00000010H
?AtlA2WHelper@@YGPA_WPA_WPBDHI@Z ENDP			; AtlA2WHelper
_TEXT	ENDS
PUBLIC	?begin@?$vector@U_tagLMCItemInfo@@V?$allocator@U_tagLMCItemInfo@@@std@@@std@@QAE?AViterator@12@XZ ; std::vector<_tagLMCItemInfo,std::allocator<_tagLMCItemInfo> >::begin
PUBLIC	?end@?$vector@U_tagLMCItemInfo@@V?$allocator@U_tagLMCItemInfo@@@std@@@std@@QAE?AViterator@12@XZ ; std::vector<_tagLMCItemInfo,std::allocator<_tagLMCItemInfo> >::end
PUBLIC	??0?$vector@HV?$allocator@H@std@@@std@@QAE@XZ	; std::vector<int,std::allocator<int> >::vector<int,std::allocator<int> >
PUBLIC	??0?$vector@HV?$allocator@H@std@@@std@@QAE@ABV01@@Z ; std::vector<int,std::allocator<int> >::vector<int,std::allocator<int> >
PUBLIC	??1?$vector@HV?$allocator@H@std@@@std@@QAE@XZ	; std::vector<int,std::allocator<int> >::~vector<int,std::allocator<int> >
PUBLIC	?push_back@?$vector@HV?$allocator@H@std@@@std@@QAEXABH@Z ; std::vector<int,std::allocator<int> >::push_back
PUBLIC	?GetSelectItem@CLocalMusicCoverList@@QAE?AV?$vector@HV?$allocator@H@std@@@std@@XZ ; CLocalMusicCoverList::GetSelectItem
PUBLIC	??9const_iterator@?$vector@U_tagLMCItemInfo@@V?$allocator@U_tagLMCItemInfo@@@std@@@std@@QBE_NABV012@@Z ; std::vector<_tagLMCItemInfo,std::allocator<_tagLMCItemInfo> >::const_iterator::operator!=
PUBLIC	??Citerator@?$vector@U_tagLMCItemInfo@@V?$allocator@U_tagLMCItemInfo@@@std@@@std@@QBEPAU_tagLMCItemInfo@@XZ ; std::vector<_tagLMCItemInfo,std::allocator<_tagLMCItemInfo> >::iterator::operator->
PUBLIC	??Eiterator@?$vector@U_tagLMCItemInfo@@V?$allocator@U_tagLMCItemInfo@@@std@@@std@@QAE?AV012@H@Z ; std::vector<_tagLMCItemInfo,std::allocator<_tagLMCItemInfo> >::iterator::operator++
xdata$x	SEGMENT
$T203187 DD	0ffffffffH
	DD	FLAT:$L203181
	DD	00H
	DD	FLAT:$L203180
$T203185 DD	019930520H
	DD	02H
	DD	FLAT:$T203187
	DD	2 DUP(00H)
	DD	2 DUP(00H)
; Function compile flags: /Odt
; File d:\boxgit\playbox\playbox\dev\prj\playbox\src\module\playedgamepanel\localmusiccoverlist.cpp
xdata$x	ENDS
_TEXT	SEGMENT
_this$ = -48						; size = 4
$T203182 = -44						; size = 4
$T203179 = -40						; size = 4
_vIndex$ = -36						; size = 16
_itend$ = -20						; size = 4
_it$ = -16						; size = 4
__$EHRec$ = -12						; size = 12
___$ReturnUdt$ = 8					; size = 4
?GetSelectItem@CLocalMusicCoverList@@QAE?AV?$vector@HV?$allocator@H@std@@@std@@XZ PROC NEAR ; CLocalMusicCoverList::GetSelectItem
; _this$ = ecx

; 225  : {

  00f80	55		 push	 ebp
  00f81	8b ec		 mov	 ebp, esp
  00f83	6a ff		 push	 -1
  00f85	68 00 00 00 00	 push	 __ehhandler$?GetSelectItem@CLocalMusicCoverList@@QAE?AV?$vector@HV?$allocator@H@std@@@std@@XZ
  00f8a	64 a1 00 00 00
	00		 mov	 eax, DWORD PTR fs:__except_list
  00f90	50		 push	 eax
  00f91	64 89 25 00 00
	00 00		 mov	 DWORD PTR fs:__except_list, esp
  00f98	83 ec 24	 sub	 esp, 36			; 00000024H
  00f9b	89 4d d0	 mov	 DWORD PTR _this$[ebp], ecx
  00f9e	c7 45 d4 00 00
	00 00		 mov	 DWORD PTR $T203182[ebp], 0

; 226  : 	vector<int> vIndex;

  00fa5	8d 4d dc	 lea	 ecx, DWORD PTR _vIndex$[ebp]
  00fa8	e8 00 00 00 00	 call	 ??0?$vector@HV?$allocator@H@std@@@std@@QAE@XZ ; std::vector<int,std::allocator<int> >::vector<int,std::allocator<int> >
  00fad	c7 45 fc 01 00
	00 00		 mov	 DWORD PTR __$EHRec$[ebp+8], 1

; 227  : 	CLMCDataMgr::iterLMCItem it = m_DataMgr.m_vItem.begin();

  00fb4	8d 45 f0	 lea	 eax, DWORD PTR _it$[ebp]
  00fb7	50		 push	 eax
  00fb8	8b 4d d0	 mov	 ecx, DWORD PTR _this$[ebp]
  00fbb	81 c1 68 01 00
	00		 add	 ecx, 360		; 00000168H
  00fc1	e8 00 00 00 00	 call	 ?begin@?$vector@U_tagLMCItemInfo@@V?$allocator@U_tagLMCItemInfo@@@std@@@std@@QAE?AViterator@12@XZ ; std::vector<_tagLMCItemInfo,std::allocator<_tagLMCItemInfo> >::begin

; 228  : 	CLMCDataMgr::iterLMCItem itend = m_DataMgr.m_vItem.end();

  00fc6	8d 4d ec	 lea	 ecx, DWORD PTR _itend$[ebp]
  00fc9	51		 push	 ecx
  00fca	8b 4d d0	 mov	 ecx, DWORD PTR _this$[ebp]
  00fcd	81 c1 68 01 00
	00		 add	 ecx, 360		; 00000168H
  00fd3	e8 00 00 00 00	 call	 ?end@?$vector@U_tagLMCItemInfo@@V?$allocator@U_tagLMCItemInfo@@@std@@@std@@QAE?AViterator@12@XZ ; std::vector<_tagLMCItemInfo,std::allocator<_tagLMCItemInfo> >::end

; 229  : 	for (;it!=itend;it++)

  00fd8	eb 0e		 jmp	 SHORT $L200467
$L200468:
  00fda	6a 00		 push	 0
  00fdc	8d 55 d8	 lea	 edx, DWORD PTR $T203179[ebp]
  00fdf	52		 push	 edx
  00fe0	8d 4d f0	 lea	 ecx, DWORD PTR _it$[ebp]
  00fe3	e8 00 00 00 00	 call	 ??Eiterator@?$vector@U_tagLMCItemInfo@@V?$allocator@U_tagLMCItemInfo@@@std@@@std@@QAE?AV012@H@Z ; std::vector<_tagLMCItemInfo,std::allocator<_tagLMCItemInfo> >::iterator::operator++
$L200467:
  00fe8	8d 45 ec	 lea	 eax, DWORD PTR _itend$[ebp]
  00feb	50		 push	 eax
  00fec	8d 4d f0	 lea	 ecx, DWORD PTR _it$[ebp]
  00fef	e8 00 00 00 00	 call	 ??9const_iterator@?$vector@U_tagLMCItemInfo@@V?$allocator@U_tagLMCItemInfo@@@std@@@std@@QBE_NABV012@@Z ; std::vector<_tagLMCItemInfo,std::allocator<_tagLMCItemInfo> >::const_iterator::operator!=
  00ff4	0f b6 c8	 movzx	 ecx, al
  00ff7	85 c9		 test	 ecx, ecx
  00ff9	74 24		 je	 SHORT $L200469

; 230  : 	{
; 231  : 		if (it->blSel)

  00ffb	8d 4d f0	 lea	 ecx, DWORD PTR _it$[ebp]
  00ffe	e8 00 00 00 00	 call	 ??Citerator@?$vector@U_tagLMCItemInfo@@V?$allocator@U_tagLMCItemInfo@@@std@@@std@@QBEPAU_tagLMCItemInfo@@XZ ; std::vector<_tagLMCItemInfo,std::allocator<_tagLMCItemInfo> >::iterator::operator->
  01003	83 78 20 00	 cmp	 DWORD PTR [eax+32], 0
  01007	74 14		 je	 SHORT $L200470

; 232  : 		{
; 233  : 			vIndex.push_back(it->iIndex);

  01009	8d 4d f0	 lea	 ecx, DWORD PTR _it$[ebp]
  0100c	e8 00 00 00 00	 call	 ??Citerator@?$vector@U_tagLMCItemInfo@@V?$allocator@U_tagLMCItemInfo@@@std@@@std@@QBEPAU_tagLMCItemInfo@@XZ ; std::vector<_tagLMCItemInfo,std::allocator<_tagLMCItemInfo> >::iterator::operator->
  01011	83 c0 1c	 add	 eax, 28			; 0000001cH
  01014	50		 push	 eax
  01015	8d 4d dc	 lea	 ecx, DWORD PTR _vIndex$[ebp]
  01018	e8 00 00 00 00	 call	 ?push_back@?$vector@HV?$allocator@H@std@@@std@@QAEXABH@Z ; std::vector<int,std::allocator<int> >::push_back
$L200470:

; 234  : 		}
; 235  : 	}

  0101d	eb bb		 jmp	 SHORT $L200468
$L200469:

; 236  : 	return vIndex;

  0101f	8d 55 dc	 lea	 edx, DWORD PTR _vIndex$[ebp]
  01022	52		 push	 edx
  01023	8b 4d 08	 mov	 ecx, DWORD PTR ___$ReturnUdt$[ebp]
  01026	e8 00 00 00 00	 call	 ??0?$vector@HV?$allocator@H@std@@@std@@QAE@ABV01@@Z ; std::vector<int,std::allocator<int> >::vector<int,std::allocator<int> >
  0102b	8b 45 d4	 mov	 eax, DWORD PTR $T203182[ebp]
  0102e	83 c8 01	 or	 eax, 1
  01031	89 45 d4	 mov	 DWORD PTR $T203182[ebp], eax
  01034	c6 45 fc 00	 mov	 BYTE PTR __$EHRec$[ebp+8], 0
  01038	8d 4d dc	 lea	 ecx, DWORD PTR _vIndex$[ebp]
  0103b	e8 00 00 00 00	 call	 ??1?$vector@HV?$allocator@H@std@@@std@@QAE@XZ ; std::vector<int,std::allocator<int> >::~vector<int,std::allocator<int> >
  01040	8b 45 08	 mov	 eax, DWORD PTR ___$ReturnUdt$[ebp]

; 237  : }

  01043	8b 4d f4	 mov	 ecx, DWORD PTR __$EHRec$[ebp]
  01046	64 89 0d 00 00
	00 00		 mov	 DWORD PTR fs:__except_list, ecx
  0104d	8b e5		 mov	 esp, ebp
  0104f	5d		 pop	 ebp
  01050	c2 04 00	 ret	 4
_TEXT	ENDS
text$x	SEGMENT
$L203180:
  00208	8d 4d dc	 lea	 ecx, DWORD PTR _vIndex$[ebp]
  0020b	e9 00 00 00 00	 jmp	 ??1?$vector@HV?$allocator@H@std@@@std@@QAE@XZ ; std::vector<int,std::allocator<int> >::~vector<int,std::allocator<int> >
$L203181:
  00210	8b 45 d4	 mov	 eax, DWORD PTR $T203182[ebp]
  00213	83 e0 01	 and	 eax, 1
  00216	0f 84 0c 00 00
	00		 je	 $L203183
  0021c	83 65 d4 fe	 and	 DWORD PTR $T203182[ebp], -2 ; fffffffeH
  00220	8b 4d 08	 mov	 ecx, DWORD PTR ___$ReturnUdt$[ebp]
  00223	e9 00 00 00 00	 jmp	 ??1?$vector@HV?$allocator@H@std@@@std@@QAE@XZ ; std::vector<int,std::allocator<int> >::~vector<int,std::allocator<int> >
$L203183:
  00228	c3		 ret	 0
__ehhandler$?GetSelectItem@CLocalMusicCoverList@@QAE?AV?$vector@HV?$allocator@H@std@@@std@@XZ:
  00229	b8 00 00 00 00	 mov	 eax, OFFSET FLAT:$T203185
  0022e	e9 00 00 00 00	 jmp	 ___CxxFrameHandler
text$x	ENDS
?GetSelectItem@CLocalMusicCoverList@@QAE?AV?$vector@HV?$allocator@H@std@@@std@@XZ ENDP ; CLocalMusicCoverList::GetSelectItem
PUBLIC	??0_tagLMCItemInfo@@QAE@ABU0@@Z			; _tagLMCItemInfo::_tagLMCItemInfo
PUBLIC	??A?$vector@U_tagLMCItemInfo@@V?$allocator@U_tagLMCItemInfo@@@std@@@std@@QAEAAU_tagLMCItemInfo@@I@Z ; std::vector<_tagLMCItemInfo,std::allocator<_tagLMCItemInfo> >::operator[]
PUBLIC	?GetItemInfoByIndex@CLocalMusicCoverList@@QAE?AU_tagLMCItemInfo@@H@Z ; CLocalMusicCoverList::GetItemInfoByIndex
; Function compile flags: /Odt
_TEXT	SEGMENT
_this$ = -8						; size = 4
$T203190 = -4						; size = 4
___$ReturnUdt$ = 8					; size = 4
_iItem$ = 12						; size = 4
?GetItemInfoByIndex@CLocalMusicCoverList@@QAE?AU_tagLMCItemInfo@@H@Z PROC NEAR ; CLocalMusicCoverList::GetItemInfoByIndex
; _this$ = ecx

; 240  : {

  01060	55		 push	 ebp
  01061	8b ec		 mov	 ebp, esp
  01063	83 ec 08	 sub	 esp, 8
  01066	89 4d f8	 mov	 DWORD PTR _this$[ebp], ecx
  01069	c7 45 fc 00 00
	00 00		 mov	 DWORD PTR $T203190[ebp], 0

; 241  : 	return m_DataMgr.m_vItem[iItem];

  01070	8b 45 0c	 mov	 eax, DWORD PTR _iItem$[ebp]
  01073	50		 push	 eax
  01074	8b 4d f8	 mov	 ecx, DWORD PTR _this$[ebp]
  01077	81 c1 68 01 00
	00		 add	 ecx, 360		; 00000168H
  0107d	e8 00 00 00 00	 call	 ??A?$vector@U_tagLMCItemInfo@@V?$allocator@U_tagLMCItemInfo@@@std@@@std@@QAEAAU_tagLMCItemInfo@@I@Z ; std::vector<_tagLMCItemInfo,std::allocator<_tagLMCItemInfo> >::operator[]
  01082	50		 push	 eax
  01083	8b 4d 08	 mov	 ecx, DWORD PTR ___$ReturnUdt$[ebp]
  01086	e8 00 00 00 00	 call	 ??0_tagLMCItemInfo@@QAE@ABU0@@Z
  0108b	8b 4d fc	 mov	 ecx, DWORD PTR $T203190[ebp]
  0108e	83 c9 01	 or	 ecx, 1
  01091	89 4d fc	 mov	 DWORD PTR $T203190[ebp], ecx
  01094	8b 45 08	 mov	 eax, DWORD PTR ___$ReturnUdt$[ebp]

; 242  : }

  01097	8b e5		 mov	 esp, ebp
  01099	5d		 pop	 ebp
  0109a	c2 08 00	 ret	 8
?GetItemInfoByIndex@CLocalMusicCoverList@@QAE?AU_tagLMCItemInfo@@H@Z ENDP ; CLocalMusicCoverList::GetItemInfoByIndex
_TEXT	ENDS
;	COMDAT xdata$x
xdata$x	SEGMENT
$T203200 DD	0ffffffffH
	DD	FLAT:$L203193
	DD	00H
	DD	FLAT:$L203194
	DD	01H
	DD	FLAT:$L203195
$T203198 DD	019930520H
	DD	03H
	DD	FLAT:$T203200
	DD	2 DUP(00H)
	DD	2 DUP(00H)
; Function compile flags: /Odt
xdata$x	ENDS
;	COMDAT ??0_tagLMCItemInfo@@QAE@ABU0@@Z
_TEXT	SEGMENT
_this$ = -16						; size = 4
__$EHRec$ = -12						; size = 12
___that$ = 8						; size = 4
??0_tagLMCItemInfo@@QAE@ABU0@@Z PROC NEAR		; _tagLMCItemInfo::_tagLMCItemInfo, COMDAT
; _this$ = ecx
  00000	55		 push	 ebp
  00001	8b ec		 mov	 ebp, esp
  00003	6a ff		 push	 -1
  00005	68 00 00 00 00	 push	 __ehhandler$??0_tagLMCItemInfo@@QAE@ABU0@@Z
  0000a	64 a1 00 00 00
	00		 mov	 eax, DWORD PTR fs:__except_list
  00010	50		 push	 eax
  00011	64 89 25 00 00
	00 00		 mov	 DWORD PTR fs:__except_list, esp
  00018	51		 push	 ecx
  00019	89 4d f0	 mov	 DWORD PTR _this$[ebp], ecx
  0001c	8b 45 08	 mov	 eax, DWORD PTR ___that$[ebp]
  0001f	50		 push	 eax
  00020	8b 4d f0	 mov	 ecx, DWORD PTR _this$[ebp]
  00023	ff 15 00 00 00
	00		 call	 DWORD PTR __imp_??0?$basic_string@DU?$char_traits@D@std@@V?$allocator@D@2@@std@@QAE@ABV01@@Z
  00029	c7 45 fc 00 00
	00 00		 mov	 DWORD PTR __$EHRec$[ebp+8], 0
  00030	8b 4d f0	 mov	 ecx, DWORD PTR _this$[ebp]
  00033	8b 55 08	 mov	 edx, DWORD PTR ___that$[ebp]
  00036	8b 42 1c	 mov	 eax, DWORD PTR [edx+28]
  00039	89 41 1c	 mov	 DWORD PTR [ecx+28], eax
  0003c	8b 4d f0	 mov	 ecx, DWORD PTR _this$[ebp]
  0003f	8b 55 08	 mov	 edx, DWORD PTR ___that$[ebp]
  00042	8b 42 20	 mov	 eax, DWORD PTR [edx+32]
  00045	89 41 20	 mov	 DWORD PTR [ecx+32], eax
  00048	8b 4d f0	 mov	 ecx, DWORD PTR _this$[ebp]
  0004b	8b 55 08	 mov	 edx, DWORD PTR ___that$[ebp]
  0004e	8b 42 24	 mov	 eax, DWORD PTR [edx+36]
  00051	89 41 24	 mov	 DWORD PTR [ecx+36], eax
  00054	8b 4d 08	 mov	 ecx, DWORD PTR ___that$[ebp]
  00057	83 c1 28	 add	 ecx, 40			; 00000028H
  0005a	51		 push	 ecx
  0005b	8b 4d f0	 mov	 ecx, DWORD PTR _this$[ebp]
  0005e	83 c1 28	 add	 ecx, 40			; 00000028H
  00061	ff 15 00 00 00
	00		 call	 DWORD PTR __imp_??0?$CStringT@DV?$StrTraitMFC_DLL@DV?$ChTraitsCRT@D@ATL@@@@@ATL@@QAE@ABV01@@Z
  00067	c6 45 fc 01	 mov	 BYTE PTR __$EHRec$[ebp+8], 1
  0006b	8b 55 08	 mov	 edx, DWORD PTR ___that$[ebp]
  0006e	83 c2 2c	 add	 edx, 44			; 0000002cH
  00071	52		 push	 edx
  00072	8b 4d f0	 mov	 ecx, DWORD PTR _this$[ebp]
  00075	83 c1 2c	 add	 ecx, 44			; 0000002cH
  00078	ff 15 00 00 00
	00		 call	 DWORD PTR __imp_??0?$CStringT@DV?$StrTraitMFC_DLL@DV?$ChTraitsCRT@D@ATL@@@@@ATL@@QAE@ABV01@@Z
  0007e	c6 45 fc 02	 mov	 BYTE PTR __$EHRec$[ebp+8], 2
  00082	8b 45 08	 mov	 eax, DWORD PTR ___that$[ebp]
  00085	83 c0 30	 add	 eax, 48			; 00000030H
  00088	50		 push	 eax
  00089	8b 4d f0	 mov	 ecx, DWORD PTR _this$[ebp]
  0008c	83 c1 30	 add	 ecx, 48			; 00000030H
  0008f	ff 15 00 00 00
	00		 call	 DWORD PTR __imp_??0?$CStringT@DV?$StrTraitMFC_DLL@DV?$ChTraitsCRT@D@ATL@@@@@ATL@@QAE@ABV01@@Z
  00095	8b 4d 08	 mov	 ecx, DWORD PTR ___that$[ebp]
  00098	83 c1 34	 add	 ecx, 52			; 00000034H
  0009b	8b 55 f0	 mov	 edx, DWORD PTR _this$[ebp]
  0009e	83 c2 34	 add	 edx, 52			; 00000034H
  000a1	8b 01		 mov	 eax, DWORD PTR [ecx]
  000a3	89 02		 mov	 DWORD PTR [edx], eax
  000a5	8b 41 04	 mov	 eax, DWORD PTR [ecx+4]
  000a8	89 42 04	 mov	 DWORD PTR [edx+4], eax
  000ab	8b 41 08	 mov	 eax, DWORD PTR [ecx+8]
  000ae	89 42 08	 mov	 DWORD PTR [edx+8], eax
  000b1	8b 49 0c	 mov	 ecx, DWORD PTR [ecx+12]
  000b4	89 4a 0c	 mov	 DWORD PTR [edx+12], ecx
  000b7	c7 45 fc ff ff
	ff ff		 mov	 DWORD PTR __$EHRec$[ebp+8], -1
  000be	8b 45 f0	 mov	 eax, DWORD PTR _this$[ebp]
  000c1	8b 4d f4	 mov	 ecx, DWORD PTR __$EHRec$[ebp]
  000c4	64 89 0d 00 00
	00 00		 mov	 DWORD PTR fs:__except_list, ecx
  000cb	8b e5		 mov	 esp, ebp
  000cd	5d		 pop	 ebp
  000ce	c2 04 00	 ret	 4
_TEXT	ENDS
;	COMDAT text$x
text$x	SEGMENT
$L203193:
  00000	8b 4d f0	 mov	 ecx, DWORD PTR _this$[ebp]
  00003	ff 25 00 00 00
	00		 jmp	 DWORD PTR __imp_??1?$basic_string@DU?$char_traits@D@std@@V?$allocator@D@2@@std@@QAE@XZ
$L203194:
  00009	8b 4d f0	 mov	 ecx, DWORD PTR _this$[ebp]
  0000c	83 c1 28	 add	 ecx, 40			; 00000028H
  0000f	ff 25 00 00 00
	00		 jmp	 DWORD PTR __imp_??1?$CStringT@DV?$StrTraitMFC_DLL@DV?$ChTraitsCRT@D@ATL@@@@@ATL@@QAE@XZ
$L203195:
  00015	8b 4d f0	 mov	 ecx, DWORD PTR _this$[ebp]
  00018	83 c1 2c	 add	 ecx, 44			; 0000002cH
  0001b	ff 25 00 00 00
	00		 jmp	 DWORD PTR __imp_??1?$CStringT@DV?$StrTraitMFC_DLL@DV?$ChTraitsCRT@D@ATL@@@@@ATL@@QAE@XZ
__ehhandler$??0_tagLMCItemInfo@@QAE@ABU0@@Z:
  00021	b8 00 00 00 00	 mov	 eax, OFFSET FLAT:$T203198
  00026	e9 00 00 00 00	 jmp	 ___CxxFrameHandler
text$x	ENDS
??0_tagLMCItemInfo@@QAE@ABU0@@Z ENDP			; _tagLMCItemInfo::_tagLMCItemInfo
PUBLIC	?ScreenToClient@CWnd@@QBEXPAUtagPOINT@@@Z	; CWnd::ScreenToClient
PUBLIC	??0CPoint@@QAE@XZ				; CPoint::CPoint
PUBLIC	?OnCalcTracker@CLocalMusicCoverList@@IAEXXZ	; CLocalMusicCoverList::OnCalcTracker
EXTRN	__imp__GetCursorPos@4:NEAR
; Function compile flags: /Odt
_TEXT	SEGMENT
_this$ = -12						; size = 4
_point$200483 = -8					; size = 8
?OnCalcTracker@CLocalMusicCoverList@@IAEXXZ PROC NEAR	; CLocalMusicCoverList::OnCalcTracker
; _this$ = ecx

; 245  : {

  010a0	55		 push	 ebp
  010a1	8b ec		 mov	 ebp, esp
  010a3	83 ec 0c	 sub	 esp, 12			; 0000000cH
  010a6	89 4d f4	 mov	 DWORD PTR _this$[ebp], ecx

; 246  : 	if (m_blTracker)

  010a9	8b 45 f4	 mov	 eax, DWORD PTR _this$[ebp]
  010ac	83 b8 64 01 00
	00 00		 cmp	 DWORD PTR [eax+356], 0
  010b3	0f 84 1d 01 00
	00		 je	 $L200481

; 247  : 	{
; 248  : 		CPoint point;

  010b9	8d 4d f8	 lea	 ecx, DWORD PTR _point$200483[ebp]
  010bc	e8 00 00 00 00	 call	 ??0CPoint@@QAE@XZ	; CPoint::CPoint

; 249  : 		GetCursorPos(&point);

  010c1	8d 4d f8	 lea	 ecx, DWORD PTR _point$200483[ebp]
  010c4	51		 push	 ecx
  010c5	ff 15 00 00 00
	00		 call	 DWORD PTR __imp__GetCursorPos@4

; 250  : 		ScreenToClient(&point);

  010cb	8d 55 f8	 lea	 edx, DWORD PTR _point$200483[ebp]
  010ce	52		 push	 edx
  010cf	8b 4d f4	 mov	 ecx, DWORD PTR _this$[ebp]
  010d2	e8 00 00 00 00	 call	 ?ScreenToClient@CWnd@@QBEXPAUtagPOINT@@@Z ; CWnd::ScreenToClient

; 251  : 		m_ptDown.y = m_ptClientStart.y+m_iDistance;

  010d7	8b 45 f4	 mov	 eax, DWORD PTR _this$[ebp]
  010da	8b 88 b0 00 00
	00		 mov	 ecx, DWORD PTR [eax+176]
  010e0	8b 55 f4	 mov	 edx, DWORD PTR _this$[ebp]
  010e3	03 8a 38 01 00
	00		 add	 ecx, DWORD PTR [edx+312]
  010e9	8b 45 f4	 mov	 eax, DWORD PTR _this$[ebp]
  010ec	89 88 20 01 00
	00		 mov	 DWORD PTR [eax+288], ecx

; 252  : 		if (point.x>m_ptDown.x)

  010f2	8b 4d f4	 mov	 ecx, DWORD PTR _this$[ebp]
  010f5	8b 55 f8	 mov	 edx, DWORD PTR _point$200483[ebp]
  010f8	3b 91 1c 01 00
	00		 cmp	 edx, DWORD PTR [ecx+284]
  010fe	7e 20		 jle	 SHORT $L200484

; 253  : 		{
; 254  : 			m_rcTracker.left = m_ptDown.x;

  01100	8b 45 f4	 mov	 eax, DWORD PTR _this$[ebp]
  01103	8b 4d f4	 mov	 ecx, DWORD PTR _this$[ebp]
  01106	8b 91 1c 01 00
	00		 mov	 edx, DWORD PTR [ecx+284]
  0110c	89 90 28 01 00
	00		 mov	 DWORD PTR [eax+296], edx

; 255  : 			m_rcTracker.right = point.x;

  01112	8b 45 f4	 mov	 eax, DWORD PTR _this$[ebp]
  01115	8b 4d f8	 mov	 ecx, DWORD PTR _point$200483[ebp]
  01118	89 88 30 01 00
	00		 mov	 DWORD PTR [eax+304], ecx

; 256  : 		}
; 257  : 		else

  0111e	eb 1e		 jmp	 SHORT $L200485
$L200484:

; 258  : 		{
; 259  : 			m_rcTracker.left = point.x;

  01120	8b 55 f4	 mov	 edx, DWORD PTR _this$[ebp]
  01123	8b 45 f8	 mov	 eax, DWORD PTR _point$200483[ebp]
  01126	89 82 28 01 00
	00		 mov	 DWORD PTR [edx+296], eax

; 260  : 			m_rcTracker.right = m_ptDown.x;

  0112c	8b 4d f4	 mov	 ecx, DWORD PTR _this$[ebp]
  0112f	8b 55 f4	 mov	 edx, DWORD PTR _this$[ebp]
  01132	8b 82 1c 01 00
	00		 mov	 eax, DWORD PTR [edx+284]
  01138	89 81 30 01 00
	00		 mov	 DWORD PTR [ecx+304], eax
$L200485:

; 261  : 		}
; 262  : 		if (point.y>m_ptDown.y)

  0113e	8b 4d f4	 mov	 ecx, DWORD PTR _this$[ebp]
  01141	8b 55 fc	 mov	 edx, DWORD PTR _point$200483[ebp+4]
  01144	3b 91 20 01 00
	00		 cmp	 edx, DWORD PTR [ecx+288]
  0114a	7e 20		 jle	 SHORT $L200486

; 263  : 		{
; 264  : 			m_rcTracker.top = m_ptDown.y;

  0114c	8b 45 f4	 mov	 eax, DWORD PTR _this$[ebp]
  0114f	8b 4d f4	 mov	 ecx, DWORD PTR _this$[ebp]
  01152	8b 91 20 01 00
	00		 mov	 edx, DWORD PTR [ecx+288]
  01158	89 90 2c 01 00
	00		 mov	 DWORD PTR [eax+300], edx

; 265  : 			m_rcTracker.bottom = point.y;

  0115e	8b 45 f4	 mov	 eax, DWORD PTR _this$[ebp]
  01161	8b 4d fc	 mov	 ecx, DWORD PTR _point$200483[ebp+4]
  01164	89 88 34 01 00
	00		 mov	 DWORD PTR [eax+308], ecx

; 266  : 		}
; 267  : 		else

  0116a	eb 1e		 jmp	 SHORT $L200487
$L200486:

; 268  : 		{
; 269  : 			m_rcTracker.top = point.y;

  0116c	8b 55 f4	 mov	 edx, DWORD PTR _this$[ebp]
  0116f	8b 45 fc	 mov	 eax, DWORD PTR _point$200483[ebp+4]
  01172	89 82 2c 01 00
	00		 mov	 DWORD PTR [edx+300], eax

; 270  : 			m_rcTracker.bottom = m_ptDown.y;

  01178	8b 4d f4	 mov	 ecx, DWORD PTR _this$[ebp]
  0117b	8b 55 f4	 mov	 edx, DWORD PTR _this$[ebp]
  0117e	8b 82 20 01 00
	00		 mov	 eax, DWORD PTR [edx+288]
  01184	89 81 34 01 00
	00		 mov	 DWORD PTR [ecx+308], eax
$L200487:

; 271  : 		}
; 272  : 
; 273  : 		// 
; 274  : 		if (m_rcTracker.left<m_rect.left)

  0118a	8b 4d f4	 mov	 ecx, DWORD PTR _this$[ebp]
  0118d	8b 55 f4	 mov	 edx, DWORD PTR _this$[ebp]
  01190	8b 81 28 01 00
	00		 mov	 eax, DWORD PTR [ecx+296]
  01196	3b 82 8c 00 00
	00		 cmp	 eax, DWORD PTR [edx+140]
  0119c	7d 12		 jge	 SHORT $L200488

; 275  : 			m_rcTracker.left = m_rect.left;

  0119e	8b 4d f4	 mov	 ecx, DWORD PTR _this$[ebp]
  011a1	8b 55 f4	 mov	 edx, DWORD PTR _this$[ebp]
  011a4	8b 82 8c 00 00
	00		 mov	 eax, DWORD PTR [edx+140]
  011aa	89 81 28 01 00
	00		 mov	 DWORD PTR [ecx+296], eax
$L200488:

; 276  : 		if (m_rcTracker.right>m_rect.right)

  011b0	8b 4d f4	 mov	 ecx, DWORD PTR _this$[ebp]
  011b3	8b 55 f4	 mov	 edx, DWORD PTR _this$[ebp]
  011b6	8b 81 30 01 00
	00		 mov	 eax, DWORD PTR [ecx+304]
  011bc	3b 82 94 00 00
	00		 cmp	 eax, DWORD PTR [edx+148]
  011c2	7e 12		 jle	 SHORT $L200481

; 277  : 			m_rcTracker.right = m_rect.right;

  011c4	8b 4d f4	 mov	 ecx, DWORD PTR _this$[ebp]
  011c7	8b 55 f4	 mov	 edx, DWORD PTR _this$[ebp]
  011ca	8b 82 94 00 00
	00		 mov	 eax, DWORD PTR [edx+148]
  011d0	89 81 30 01 00
	00		 mov	 DWORD PTR [ecx+304], eax
$L200481:

; 278  : 
; 279  : 	}
; 280  : }

  011d6	8b e5		 mov	 esp, ebp
  011d8	5d		 pop	 ebp
  011d9	c3		 ret	 0
?OnCalcTracker@CLocalMusicCoverList@@IAEXXZ ENDP	; CLocalMusicCoverList::OnCalcTracker
_TEXT	ENDS
PUBLIC	?IntersectRect@CRect@@QAEHPBUtagRECT@@0@Z	; CRect::IntersectRect
PUBLIC	?Rectangle@CDC@@QAEHPBUtagRECT@@@Z		; CDC::Rectangle
PUBLIC	?AlphaBlend@CDC@@QAEHHHHHPAV1@HHHHU_BLENDFUNCTION@@@Z ; CDC::AlphaBlend
PUBLIC	?OnCalcSelectItem@CLocalMusicCoverList@@IAEXXZ	; CLocalMusicCoverList::OnCalcSelectItem
PUBLIC	?OnDrawTracker@CLocalMusicCoverList@@IAEXXZ	; CLocalMusicCoverList::OnDrawTracker
PUBLIC	?CreateStockObject@CGdiObject@@QAEHH@Z		; CGdiObject::CreateStockObject
PUBLIC	??1CPen@@UAE@XZ					; CPen::~CPen
PUBLIC	??0CBrush@@QAE@XZ				; CBrush::CBrush
PUBLIC	??1CBrush@@UAE@XZ				; CBrush::~CBrush
EXTRN	?SelectObject@CDC@@QAEPAVCPen@@PAV2@@Z:NEAR	; CDC::SelectObject
EXTRN	?SelectObject@CDC@@QAEPAVCBrush@@PAV2@@Z:NEAR	; CDC::SelectObject
EXTRN	??0CPen@@QAE@HHK@Z:NEAR				; CPen::CPen
xdata$x	SEGMENT
$T203211 DD	0ffffffffH
	DD	FLAT:$L203206
	DD	00H
	DD	FLAT:$L203207
$T203209 DD	019930520H
	DD	02H
	DD	FLAT:$T203211
	DD	2 DUP(00H)
	DD	2 DUP(00H)
; Function compile flags: /Odt
xdata$x	ENDS
_TEXT	SEGMENT
_this$ = -56						; size = 4
_pen$200502 = -52					; size = 8
_brOld$200495 = -44					; size = 4
_brNull$200494 = -40					; size = 8
_rcDraw$200504 = -32					; size = 16
_penold$200503 = -16					; size = 4
__$EHRec$ = -12						; size = 12
?OnDrawTracker@CLocalMusicCoverList@@IAEXXZ PROC NEAR	; CLocalMusicCoverList::OnDrawTracker
; _this$ = ecx

; 283  : {

  011e0	55		 push	 ebp
  011e1	8b ec		 mov	 ebp, esp
  011e3	6a ff		 push	 -1
  011e5	68 00 00 00 00	 push	 __ehhandler$?OnDrawTracker@CLocalMusicCoverList@@IAEXXZ
  011ea	64 a1 00 00 00
	00		 mov	 eax, DWORD PTR fs:__except_list
  011f0	50		 push	 eax
  011f1	64 89 25 00 00
	00 00		 mov	 DWORD PTR fs:__except_list, esp
  011f8	83 ec 2c	 sub	 esp, 44			; 0000002cH
  011fb	89 4d c8	 mov	 DWORD PTR _this$[ebp], ecx

; 284  : 	if (m_blTracker)

  011fe	8b 45 c8	 mov	 eax, DWORD PTR _this$[ebp]
  01201	83 b8 64 01 00
	00 00		 cmp	 DWORD PTR [eax+356], 0
  01208	0f 84 1e 01 00
	00		 je	 $L200492

; 285  : 	{
; 286  : 		CBrush brNull;

  0120e	8d 4d d8	 lea	 ecx, DWORD PTR _brNull$200494[ebp]
  01211	e8 00 00 00 00	 call	 ??0CBrush@@QAE@XZ	; CBrush::CBrush
  01216	c7 45 fc 00 00
	00 00		 mov	 DWORD PTR __$EHRec$[ebp+8], 0

; 287  : 		brNull.CreateStockObject(NULL_BRUSH);

  0121d	6a 05		 push	 5
  0121f	8d 4d d8	 lea	 ecx, DWORD PTR _brNull$200494[ebp]
  01222	e8 00 00 00 00	 call	 ?CreateStockObject@CGdiObject@@QAEHH@Z ; CGdiObject::CreateStockObject

; 288  : 		CBrush* brOld = m_dcMem.SelectObject(&brNull);

  01227	8d 4d d8	 lea	 ecx, DWORD PTR _brNull$200494[ebp]
  0122a	51		 push	 ecx
  0122b	8b 4d c8	 mov	 ecx, DWORD PTR _this$[ebp]
  0122e	83 c1 60	 add	 ecx, 96			; 00000060H
  01231	e8 00 00 00 00	 call	 ?SelectObject@CDC@@QAEPAVCBrush@@PAV2@@Z ; CDC::SelectObject
  01236	89 45 d4	 mov	 DWORD PTR _brOld$200495[ebp], eax

; 289  : 		CPen pen(PS_SOLID,1,RGB(125,125,125));

  01239	68 7d 7d 7d 00	 push	 8224125			; 007d7d7dH
  0123e	6a 01		 push	 1
  01240	6a 00		 push	 0
  01242	8d 4d cc	 lea	 ecx, DWORD PTR _pen$200502[ebp]
  01245	e8 00 00 00 00	 call	 ??0CPen@@QAE@HHK@Z	; CPen::CPen
  0124a	c6 45 fc 01	 mov	 BYTE PTR __$EHRec$[ebp+8], 1

; 290  : 		CPen *penold = m_dcMem.SelectObject(&pen);

  0124e	8d 55 cc	 lea	 edx, DWORD PTR _pen$200502[ebp]
  01251	52		 push	 edx
  01252	8b 4d c8	 mov	 ecx, DWORD PTR _this$[ebp]
  01255	83 c1 60	 add	 ecx, 96			; 00000060H
  01258	e8 00 00 00 00	 call	 ?SelectObject@CDC@@QAEPAVCPen@@PAV2@@Z ; CDC::SelectObject
  0125d	89 45 f0	 mov	 DWORD PTR _penold$200503[ebp], eax

; 291  : 		m_dcMem.Rectangle(&m_rcTracker);

  01260	8b 45 c8	 mov	 eax, DWORD PTR _this$[ebp]
  01263	05 28 01 00 00	 add	 eax, 296		; 00000128H
  01268	50		 push	 eax
  01269	8b 4d c8	 mov	 ecx, DWORD PTR _this$[ebp]
  0126c	83 c1 60	 add	 ecx, 96			; 00000060H
  0126f	e8 00 00 00 00	 call	 ?Rectangle@CDC@@QAEHPBUtagRECT@@@Z ; CDC::Rectangle

; 292  : 		CRect rcDraw;

  01274	8d 4d e0	 lea	 ecx, DWORD PTR _rcDraw$200504[ebp]
  01277	e8 00 00 00 00	 call	 ??0CRect@@QAE@XZ	; CRect::CRect

; 293  : 		if (rcDraw.IntersectRect(&m_rcTracker,&m_rect))

  0127c	8b 4d c8	 mov	 ecx, DWORD PTR _this$[ebp]
  0127f	81 c1 8c 00 00
	00		 add	 ecx, 140		; 0000008cH
  01285	51		 push	 ecx
  01286	8b 55 c8	 mov	 edx, DWORD PTR _this$[ebp]
  01289	81 c2 28 01 00
	00		 add	 edx, 296		; 00000128H
  0128f	52		 push	 edx
  01290	8d 4d e0	 lea	 ecx, DWORD PTR _rcDraw$200504[ebp]
  01293	e8 00 00 00 00	 call	 ?IntersectRect@CRect@@QAEHPBUtagRECT@@0@Z ; CRect::IntersectRect
  01298	85 c0		 test	 eax, eax
  0129a	74 4f		 je	 SHORT $L200505

; 294  : 			m_dcMem.AlphaBlend(rcDraw.left,rcDraw.top,rcDraw.Width(),rcDraw.Height(),&m_dcTracker,0,0,rcDraw.Width(),rcDraw.Height(),m_bf);

  0129c	8b 45 c8	 mov	 eax, DWORD PTR _this$[ebp]
  0129f	8b 88 24 01 00
	00		 mov	 ecx, DWORD PTR [eax+292]
  012a5	51		 push	 ecx
  012a6	8d 4d e0	 lea	 ecx, DWORD PTR _rcDraw$200504[ebp]
  012a9	e8 00 00 00 00	 call	 ?Height@CRect@@QBEHXZ	; CRect::Height
  012ae	50		 push	 eax
  012af	8d 4d e0	 lea	 ecx, DWORD PTR _rcDraw$200504[ebp]
  012b2	e8 00 00 00 00	 call	 ?Width@CRect@@QBEHXZ	; CRect::Width
  012b7	50		 push	 eax
  012b8	6a 00		 push	 0
  012ba	6a 00		 push	 0
  012bc	8b 55 c8	 mov	 edx, DWORD PTR _this$[ebp]
  012bf	81 c2 00 01 00
	00		 add	 edx, 256		; 00000100H
  012c5	52		 push	 edx
  012c6	8d 4d e0	 lea	 ecx, DWORD PTR _rcDraw$200504[ebp]
  012c9	e8 00 00 00 00	 call	 ?Height@CRect@@QBEHXZ	; CRect::Height
  012ce	50		 push	 eax
  012cf	8d 4d e0	 lea	 ecx, DWORD PTR _rcDraw$200504[ebp]
  012d2	e8 00 00 00 00	 call	 ?Width@CRect@@QBEHXZ	; CRect::Width
  012d7	50		 push	 eax
  012d8	8b 45 e4	 mov	 eax, DWORD PTR _rcDraw$200504[ebp+4]
  012db	50		 push	 eax
  012dc	8b 4d e0	 mov	 ecx, DWORD PTR _rcDraw$200504[ebp]
  012df	51		 push	 ecx
  012e0	8b 4d c8	 mov	 ecx, DWORD PTR _this$[ebp]
  012e3	83 c1 60	 add	 ecx, 96			; 00000060H
  012e6	e8 00 00 00 00	 call	 ?AlphaBlend@CDC@@QAEHHHHHPAV1@HHHHU_BLENDFUNCTION@@@Z ; CDC::AlphaBlend
$L200505:

; 295  : 		m_dcMem.SelectObject(brOld);

  012eb	8b 55 d4	 mov	 edx, DWORD PTR _brOld$200495[ebp]
  012ee	52		 push	 edx
  012ef	8b 4d c8	 mov	 ecx, DWORD PTR _this$[ebp]
  012f2	83 c1 60	 add	 ecx, 96			; 00000060H
  012f5	e8 00 00 00 00	 call	 ?SelectObject@CDC@@QAEPAVCBrush@@PAV2@@Z ; CDC::SelectObject

; 296  : 		m_dcMem.SelectObject(penold);

  012fa	8b 45 f0	 mov	 eax, DWORD PTR _penold$200503[ebp]
  012fd	50		 push	 eax
  012fe	8b 4d c8	 mov	 ecx, DWORD PTR _this$[ebp]
  01301	83 c1 60	 add	 ecx, 96			; 00000060H
  01304	e8 00 00 00 00	 call	 ?SelectObject@CDC@@QAEPAVCPen@@PAV2@@Z ; CDC::SelectObject

; 297  : 		OnCalcSelectItem();

  01309	8b 4d c8	 mov	 ecx, DWORD PTR _this$[ebp]
  0130c	e8 00 00 00 00	 call	 ?OnCalcSelectItem@CLocalMusicCoverList@@IAEXXZ ; CLocalMusicCoverList::OnCalcSelectItem

; 298  : 	}

  01311	c6 45 fc 00	 mov	 BYTE PTR __$EHRec$[ebp+8], 0
  01315	8d 4d cc	 lea	 ecx, DWORD PTR _pen$200502[ebp]
  01318	e8 00 00 00 00	 call	 ??1CPen@@UAE@XZ		; CPen::~CPen
  0131d	c7 45 fc ff ff
	ff ff		 mov	 DWORD PTR __$EHRec$[ebp+8], -1
  01324	8d 4d d8	 lea	 ecx, DWORD PTR _brNull$200494[ebp]
  01327	e8 00 00 00 00	 call	 ??1CBrush@@UAE@XZ	; CBrush::~CBrush
$L200492:

; 299  : }

  0132c	8b 4d f4	 mov	 ecx, DWORD PTR __$EHRec$[ebp]
  0132f	64 89 0d 00 00
	00 00		 mov	 DWORD PTR fs:__except_list, ecx
  01336	8b e5		 mov	 esp, ebp
  01338	5d		 pop	 ebp
  01339	c3		 ret	 0
_TEXT	ENDS
text$x	SEGMENT
$L203206:
  00233	8d 4d d8	 lea	 ecx, DWORD PTR _brNull$200494[ebp]
  00236	e9 00 00 00 00	 jmp	 ??1CBrush@@UAE@XZ	; CBrush::~CBrush
$L203207:
  0023b	8d 4d cc	 lea	 ecx, DWORD PTR _pen$200502[ebp]
  0023e	e9 00 00 00 00	 jmp	 ??1CPen@@UAE@XZ		; CPen::~CPen
__ehhandler$?OnDrawTracker@CLocalMusicCoverList@@IAEXXZ:
  00243	b8 00 00 00 00	 mov	 eax, OFFSET FLAT:$T203209
  00248	e9 00 00 00 00	 jmp	 ___CxxFrameHandler
text$x	ENDS
?OnDrawTracker@CLocalMusicCoverList@@IAEXXZ ENDP	; CLocalMusicCoverList::OnDrawTracker
PUBLIC	?RedrawWindow@CWnd@@QAEHPBUtagRECT@@PAVCRgn@@I@Z ; CWnd::RedrawWindow
PUBLIC	?size@?$vector@U_tagLMCItemInfo@@V?$allocator@U_tagLMCItemInfo@@@std@@@std@@QBEIXZ ; std::vector<_tagLMCItemInfo,std::allocator<_tagLMCItemInfo> >::size
PUBLIC	?DrawItem@CLocalMusicCoverList@@IAEXVCPoint@@AAU_tagLMCItemInfo@@@Z ; CLocalMusicCoverList::DrawItem
PUBLIC	?CalcHideItemRect@CLocalMusicCoverList@@IAEXVCPoint@@AAU_tagLMCItemInfo@@@Z ; CLocalMusicCoverList::CalcHideItemRect
EXTRN	?FillSolidRect@CDC@@QAEXPBUtagRECT@@K@Z:NEAR	; CDC::FillSolidRect
; Function compile flags: /Odt
_TEXT	SEGMENT
tv375 = -108						; size = 4
tv372 = -104						; size = 4
tv369 = -100						; size = 4
tv364 = -96						; size = 4
tv363 = -92						; size = 4
tv360 = -88						; size = 4
tv359 = -84						; size = 4
tv356 = -80						; size = 4
tv351 = -76						; size = 4
tv350 = -72						; size = 4
tv347 = -68						; size = 4
tv346 = -64						; size = 4
tv343 = -60						; size = 4
_this$ = -56						; size = 4
_i$200526 = -52						; size = 4
_rcRightLine$200512 = -48				; size = 16
_iWidthSpace$ = -32					; size = 4
_lenVbar$ = -28						; size = 4
_nPos$ = -24						; size = 4
_ptS$ = -20						; size = 8
_realhight$ = -12					; size = 4
_iHeightSpace$ = -8					; size = 4
_fper$ = -4						; size = 4
_blRePaint$ = 8						; size = 4
?OnMemoryDraw@CLocalMusicCoverList@@IAEXH@Z PROC NEAR	; CLocalMusicCoverList::OnMemoryDraw
; _this$ = ecx

; 302  : {

  01340	55		 push	 ebp
  01341	8b ec		 mov	 ebp, esp
  01343	83 ec 6c	 sub	 esp, 108		; 0000006cH
  01346	56		 push	 esi
  01347	89 4d c8	 mov	 DWORD PTR _this$[ebp], ecx

; 303  : 	if (m_rect.Width()==0) return;

  0134a	8b 4d c8	 mov	 ecx, DWORD PTR _this$[ebp]
  0134d	81 c1 8c 00 00
	00		 add	 ecx, 140		; 0000008cH
  01353	e8 00 00 00 00	 call	 ?Width@CRect@@QBEHXZ	; CRect::Width
  01358	85 c0		 test	 eax, eax
  0135a	75 05		 jne	 SHORT $L200510
  0135c	e9 47 03 00 00	 jmp	 $L200509
$L200510:

; 304  : 	m_dcMem.FillSolidRect(&m_rect,m_gdires.colListBK);

  01361	8b 45 c8	 mov	 eax, DWORD PTR _this$[ebp]
  01364	8b 88 ec 00 00
	00		 mov	 ecx, DWORD PTR [eax+236]
  0136a	51		 push	 ecx
  0136b	8b 55 c8	 mov	 edx, DWORD PTR _this$[ebp]
  0136e	81 c2 8c 00 00
	00		 add	 edx, 140		; 0000008cH
  01374	52		 push	 edx
  01375	8b 4d c8	 mov	 ecx, DWORD PTR _this$[ebp]
  01378	83 c1 60	 add	 ecx, 96			; 00000060H
  0137b	e8 00 00 00 00	 call	 ?FillSolidRect@CDC@@QAEXPBUtagRECT@@K@Z ; CDC::FillSolidRect

; 305  : 	
; 306  : 	if (m_rect.Width()<550&&m_rect.Height()>m_rcRealRect.Height())

  01380	8b 4d c8	 mov	 ecx, DWORD PTR _this$[ebp]
  01383	81 c1 8c 00 00
	00		 add	 ecx, 140		; 0000008cH
  01389	e8 00 00 00 00	 call	 ?Width@CRect@@QBEHXZ	; CRect::Width
  0138e	3d 26 02 00 00	 cmp	 eax, 550		; 00000226H
  01393	7d 5e		 jge	 SHORT $L200511
  01395	8b 4d c8	 mov	 ecx, DWORD PTR _this$[ebp]
  01398	81 c1 8c 00 00
	00		 add	 ecx, 140		; 0000008cH
  0139e	e8 00 00 00 00	 call	 ?Height@CRect@@QBEHXZ	; CRect::Height
  013a3	8b f0		 mov	 esi, eax
  013a5	8b 4d c8	 mov	 ecx, DWORD PTR _this$[ebp]
  013a8	81 c1 9c 00 00
	00		 add	 ecx, 156		; 0000009cH
  013ae	e8 00 00 00 00	 call	 ?Height@CRect@@QBEHXZ	; CRect::Height
  013b3	3b f0		 cmp	 esi, eax
  013b5	7e 3c		 jle	 SHORT $L200511

; 307  : 	{// RmPanel
; 308  : 		CRect rcRightLine=m_rect;

  013b7	8b 45 c8	 mov	 eax, DWORD PTR _this$[ebp]
  013ba	05 8c 00 00 00	 add	 eax, 140		; 0000008cH
  013bf	8b 08		 mov	 ecx, DWORD PTR [eax]
  013c1	89 4d d0	 mov	 DWORD PTR _rcRightLine$200512[ebp], ecx
  013c4	8b 50 04	 mov	 edx, DWORD PTR [eax+4]
  013c7	89 55 d4	 mov	 DWORD PTR _rcRightLine$200512[ebp+4], edx
  013ca	8b 48 08	 mov	 ecx, DWORD PTR [eax+8]
  013cd	89 4d d8	 mov	 DWORD PTR _rcRightLine$200512[ebp+8], ecx
  013d0	8b 50 0c	 mov	 edx, DWORD PTR [eax+12]
  013d3	89 55 dc	 mov	 DWORD PTR _rcRightLine$200512[ebp+12], edx

; 309  : 		rcRightLine.left=rcRightLine.right-1;

  013d6	8b 45 d8	 mov	 eax, DWORD PTR _rcRightLine$200512[ebp+8]
  013d9	83 e8 01	 sub	 eax, 1
  013dc	89 45 d0	 mov	 DWORD PTR _rcRightLine$200512[ebp], eax

; 310  : 		m_dcMem.FillSolidRect(&rcRightLine,RGB(165,186,214));

  013df	68 a5 ba d6 00	 push	 14072485		; 00d6baa5H
  013e4	8d 4d d0	 lea	 ecx, DWORD PTR _rcRightLine$200512[ebp]
  013e7	51		 push	 ecx
  013e8	8b 4d c8	 mov	 ecx, DWORD PTR _this$[ebp]
  013eb	83 c1 60	 add	 ecx, 96			; 00000060H
  013ee	e8 00 00 00 00	 call	 ?FillSolidRect@CDC@@QAEXPBUtagRECT@@K@Z ; CDC::FillSolidRect
$L200511:

; 311  : 	}
; 312  : 	// 
; 313  : 	OnCalcTracker();

  013f3	8b 4d c8	 mov	 ecx, DWORD PTR _this$[ebp]
  013f6	e8 00 00 00 00	 call	 ?OnCalcTracker@CLocalMusicCoverList@@IAEXXZ ; CLocalMusicCoverList::OnCalcTracker

; 314  : 	int iHeightSpace=0;

  013fb	c7 45 f8 00 00
	00 00		 mov	 DWORD PTR _iHeightSpace$[ebp], 0

; 315  : 	int iWidthSpace=0;

  01402	c7 45 e0 00 00
	00 00		 mov	 DWORD PTR _iWidthSpace$[ebp], 0

; 316  : 	if (m_ImgState==LMCI_Small)

  01409	8b 55 c8	 mov	 edx, DWORD PTR _this$[ebp]
  0140c	83 7a 5c 00	 cmp	 DWORD PTR [edx+92], 0
  01410	75 0e		 jne	 SHORT $L200521

; 317  : 		iHeightSpace = m_iItemHeight+SPACEH + ITEMTXTH + SPACEH*2;

  01412	8b 45 c8	 mov	 eax, DWORD PTR _this$[ebp]
  01415	8b 48 58	 mov	 ecx, DWORD PTR [eax+88]
  01418	83 c1 1b	 add	 ecx, 27			; 0000001bH
  0141b	89 4d f8	 mov	 DWORD PTR _iHeightSpace$[ebp], ecx

; 318  : 	else

  0141e	eb 0c		 jmp	 SHORT $L200522
$L200521:

; 319  : 		iHeightSpace = m_iItemHeight+SPACEH + ITEMTXTH + SPACEH + ITEMTXTH + SPACEH*3;

  01420	8b 55 c8	 mov	 edx, DWORD PTR _this$[ebp]
  01423	8b 42 58	 mov	 eax, DWORD PTR [edx+88]
  01426	83 c0 32	 add	 eax, 50			; 00000032H
  01429	89 45 f8	 mov	 DWORD PTR _iHeightSpace$[ebp], eax
$L200522:

; 320  : 	if (m_ImgState==LMCI_Small)

  0142c	8b 4d c8	 mov	 ecx, DWORD PTR _this$[ebp]
  0142f	83 79 5c 00	 cmp	 DWORD PTR [ecx+92], 0
  01433	75 09		 jne	 SHORT $L200523

; 321  : 		iWidthSpace = SPACEWS;

  01435	c7 45 e0 0a 00
	00 00		 mov	 DWORD PTR _iWidthSpace$[ebp], 10 ; 0000000aH

; 322  : 	else

  0143c	eb 07		 jmp	 SHORT $L200524
$L200523:

; 323  : 		iWidthSpace = SPACEW;

  0143e	c7 45 e0 10 00
	00 00		 mov	 DWORD PTR _iWidthSpace$[ebp], 16 ; 00000010H
$L200524:

; 324  : 	CPoint ptS = m_ptClientStart;

  01445	8b 55 c8	 mov	 edx, DWORD PTR _this$[ebp]
  01448	8b 82 ac 00 00
	00		 mov	 eax, DWORD PTR [edx+172]
  0144e	8b 8a b0 00 00
	00		 mov	 ecx, DWORD PTR [edx+176]
  01454	89 45 ec	 mov	 DWORD PTR _ptS$[ebp], eax
  01457	89 4d f0	 mov	 DWORD PTR _ptS$[ebp+4], ecx

; 325  : 	ptS.x = iWidthSpace+m_ptClientStart.x;

  0145a	8b 55 c8	 mov	 edx, DWORD PTR _this$[ebp]
  0145d	8b 45 e0	 mov	 eax, DWORD PTR _iWidthSpace$[ebp]
  01460	03 82 ac 00 00
	00		 add	 eax, DWORD PTR [edx+172]
  01466	89 45 ec	 mov	 DWORD PTR _ptS$[ebp], eax

; 326  : 	ptS.y = SPACEH+m_ptClientStart.y;

  01469	8b 4d c8	 mov	 ecx, DWORD PTR _this$[ebp]
  0146c	8b 91 b0 00 00
	00		 mov	 edx, DWORD PTR [ecx+176]
  01472	83 c2 04	 add	 edx, 4
  01475	89 55 f0	 mov	 DWORD PTR _ptS$[ebp+4], edx

; 327  : 	
; 328  : 	for(int i=0;i<m_DataMgr.m_vItem.size();i++)

  01478	c7 45 cc 00 00
	00 00		 mov	 DWORD PTR _i$200526[ebp], 0
  0147f	eb 09		 jmp	 SHORT $L200527
$L200528:
  01481	8b 45 cc	 mov	 eax, DWORD PTR _i$200526[ebp]
  01484	83 c0 01	 add	 eax, 1
  01487	89 45 cc	 mov	 DWORD PTR _i$200526[ebp], eax
$L200527:
  0148a	8b 4d c8	 mov	 ecx, DWORD PTR _this$[ebp]
  0148d	81 c1 68 01 00
	00		 add	 ecx, 360		; 00000168H
  01493	e8 00 00 00 00	 call	 ?size@?$vector@U_tagLMCItemInfo@@V?$allocator@U_tagLMCItemInfo@@@std@@@std@@QBEIXZ ; std::vector<_tagLMCItemInfo,std::allocator<_tagLMCItemInfo> >::size
  01498	39 45 cc	 cmp	 DWORD PTR _i$200526[ebp], eax
  0149b	0f 83 e9 00 00
	00		 jae	 $L200529

; 329  : 	{
; 330  : 		if (ptS.x+m_iItemWidth>m_rect.right)

  014a1	8b 4d c8	 mov	 ecx, DWORD PTR _this$[ebp]
  014a4	8b 55 ec	 mov	 edx, DWORD PTR _ptS$[ebp]
  014a7	03 51 54	 add	 edx, DWORD PTR [ecx+84]
  014aa	8b 45 c8	 mov	 eax, DWORD PTR _this$[ebp]
  014ad	3b 90 94 00 00
	00		 cmp	 edx, DWORD PTR [eax+148]
  014b3	7e 26		 jle	 SHORT $L200530

; 331  : 		{
; 332  : 			ptS.y = ptS.y + iHeightSpace;

  014b5	8b 4d f0	 mov	 ecx, DWORD PTR _ptS$[ebp+4]
  014b8	03 4d f8	 add	 ecx, DWORD PTR _iHeightSpace$[ebp]
  014bb	89 4d f0	 mov	 DWORD PTR _ptS$[ebp+4], ecx

; 333  : 			//ptS.x = m_ptClientStart.x+SPACEW;
; 334  : 			ptS.x = m_ptClientStart.x+iWidthSpace;

  014be	8b 55 c8	 mov	 edx, DWORD PTR _this$[ebp]
  014c1	8b 82 ac 00 00
	00		 mov	 eax, DWORD PTR [edx+172]
  014c7	03 45 e0	 add	 eax, DWORD PTR _iWidthSpace$[ebp]
  014ca	89 45 ec	 mov	 DWORD PTR _ptS$[ebp], eax

; 335  : 			i--;// 1

  014cd	8b 4d cc	 mov	 ecx, DWORD PTR _i$200526[ebp]
  014d0	83 e9 01	 sub	 ecx, 1
  014d3	89 4d cc	 mov	 DWORD PTR _i$200526[ebp], ecx

; 336  : 		}
; 337  : 		else

  014d6	e9 aa 00 00 00	 jmp	 $L200531
$L200530:

; 338  : 		{
; 339  : 			if (ptS.y>m_rect.bottom)

  014db	8b 55 c8	 mov	 edx, DWORD PTR _this$[ebp]
  014de	8b 45 f0	 mov	 eax, DWORD PTR _ptS$[ebp+4]
  014e1	3b 82 98 00 00
	00		 cmp	 eax, DWORD PTR [edx+152]
  014e7	7e 34		 jle	 SHORT $L200532

; 340  : 			{
; 341  : 				// Item
; 342  : 				CalcHideItemRect(ptS,m_DataMgr.m_vItem[i]);

  014e9	8b 4d cc	 mov	 ecx, DWORD PTR _i$200526[ebp]
  014ec	51		 push	 ecx
  014ed	8b 4d c8	 mov	 ecx, DWORD PTR _this$[ebp]
  014f0	81 c1 68 01 00
	00		 add	 ecx, 360		; 00000168H
  014f6	e8 00 00 00 00	 call	 ??A?$vector@U_tagLMCItemInfo@@V?$allocator@U_tagLMCItemInfo@@@std@@@std@@QAEAAU_tagLMCItemInfo@@I@Z ; std::vector<_tagLMCItemInfo,std::allocator<_tagLMCItemInfo> >::operator[]
  014fb	50		 push	 eax
  014fc	8b 55 f0	 mov	 edx, DWORD PTR _ptS$[ebp+4]
  014ff	52		 push	 edx
  01500	8b 45 ec	 mov	 eax, DWORD PTR _ptS$[ebp]
  01503	50		 push	 eax
  01504	8b 4d c8	 mov	 ecx, DWORD PTR _this$[ebp]
  01507	e8 00 00 00 00	 call	 ?CalcHideItemRect@CLocalMusicCoverList@@IAEXVCPoint@@AAU_tagLMCItemInfo@@@Z ; CLocalMusicCoverList::CalcHideItemRect

; 343  : 				//ptS.x = ptS.x+m_iItemWidth+SPACEW;
; 344  : 				ptS.x = ptS.x+m_iItemWidth+iWidthSpace;

  0150c	8b 4d c8	 mov	 ecx, DWORD PTR _this$[ebp]
  0150f	8b 55 ec	 mov	 edx, DWORD PTR _ptS$[ebp]
  01512	03 51 54	 add	 edx, DWORD PTR [ecx+84]
  01515	03 55 e0	 add	 edx, DWORD PTR _iWidthSpace$[ebp]
  01518	89 55 ec	 mov	 DWORD PTR _ptS$[ebp], edx

; 345  : 			}
; 346  : 			else

  0151b	eb 68		 jmp	 SHORT $L200531
$L200532:

; 347  : 			{
; 348  : 				if (ptS.y+iHeightSpace>=m_rect.top)

  0151d	8b 45 f0	 mov	 eax, DWORD PTR _ptS$[ebp+4]
  01520	03 45 f8	 add	 eax, DWORD PTR _iHeightSpace$[ebp]
  01523	8b 4d c8	 mov	 ecx, DWORD PTR _this$[ebp]
  01526	3b 81 90 00 00
	00		 cmp	 eax, DWORD PTR [ecx+144]
  0152c	7c 25		 jl	 SHORT $L200534

; 349  : 				{
; 350  : 					DrawItem(ptS,m_DataMgr.m_vItem[i]);

  0152e	8b 55 cc	 mov	 edx, DWORD PTR _i$200526[ebp]
  01531	52		 push	 edx
  01532	8b 4d c8	 mov	 ecx, DWORD PTR _this$[ebp]
  01535	81 c1 68 01 00
	00		 add	 ecx, 360		; 00000168H
  0153b	e8 00 00 00 00	 call	 ??A?$vector@U_tagLMCItemInfo@@V?$allocator@U_tagLMCItemInfo@@@std@@@std@@QAEAAU_tagLMCItemInfo@@I@Z ; std::vector<_tagLMCItemInfo,std::allocator<_tagLMCItemInfo> >::operator[]
  01540	50		 push	 eax
  01541	8b 45 f0	 mov	 eax, DWORD PTR _ptS$[ebp+4]
  01544	50		 push	 eax
  01545	8b 4d ec	 mov	 ecx, DWORD PTR _ptS$[ebp]
  01548	51		 push	 ecx
  01549	8b 4d c8	 mov	 ecx, DWORD PTR _this$[ebp]
  0154c	e8 00 00 00 00	 call	 ?DrawItem@CLocalMusicCoverList@@IAEXVCPoint@@AAU_tagLMCItemInfo@@@Z ; CLocalMusicCoverList::DrawItem

; 351  : 				}
; 352  : 				else

  01551	eb 23		 jmp	 SHORT $L200535
$L200534:

; 353  : 				{
; 354  : 					// Item
; 355  : 					CalcHideItemRect(ptS,m_DataMgr.m_vItem[i]);

  01553	8b 55 cc	 mov	 edx, DWORD PTR _i$200526[ebp]
  01556	52		 push	 edx
  01557	8b 4d c8	 mov	 ecx, DWORD PTR _this$[ebp]
  0155a	81 c1 68 01 00
	00		 add	 ecx, 360		; 00000168H
  01560	e8 00 00 00 00	 call	 ??A?$vector@U_tagLMCItemInfo@@V?$allocator@U_tagLMCItemInfo@@@std@@@std@@QAEAAU_tagLMCItemInfo@@I@Z ; std::vector<_tagLMCItemInfo,std::allocator<_tagLMCItemInfo> >::operator[]
  01565	50		 push	 eax
  01566	8b 45 f0	 mov	 eax, DWORD PTR _ptS$[ebp+4]
  01569	50		 push	 eax
  0156a	8b 4d ec	 mov	 ecx, DWORD PTR _ptS$[ebp]
  0156d	51		 push	 ecx
  0156e	8b 4d c8	 mov	 ecx, DWORD PTR _this$[ebp]
  01571	e8 00 00 00 00	 call	 ?CalcHideItemRect@CLocalMusicCoverList@@IAEXVCPoint@@AAU_tagLMCItemInfo@@@Z ; CLocalMusicCoverList::CalcHideItemRect
$L200535:

; 356  : 				}
; 357  : 				//ptS.x = ptS.x+m_iItemWidth+SPACEW;
; 358  : 				ptS.x = ptS.x+m_iItemWidth+iWidthSpace;

  01576	8b 55 c8	 mov	 edx, DWORD PTR _this$[ebp]
  01579	8b 45 ec	 mov	 eax, DWORD PTR _ptS$[ebp]
  0157c	03 42 54	 add	 eax, DWORD PTR [edx+84]
  0157f	03 45 e0	 add	 eax, DWORD PTR _iWidthSpace$[ebp]
  01582	89 45 ec	 mov	 DWORD PTR _ptS$[ebp], eax
$L200531:

; 359  : 			}
; 360  : 		}
; 361  : 	}

  01585	e9 f7 fe ff ff	 jmp	 $L200528
$L200529:

; 362  : 	// 
; 363  : 	OnDrawTracker();

  0158a	8b 4d c8	 mov	 ecx, DWORD PTR _this$[ebp]
  0158d	e8 00 00 00 00	 call	 ?OnDrawTracker@CLocalMusicCoverList@@IAEXXZ ; CLocalMusicCoverList::OnDrawTracker

; 364  : 	//Invalidate();
; 365  : 	RedrawWindow();

  01592	68 05 01 00 00	 push	 261			; 00000105H
  01597	6a 00		 push	 0
  01599	6a 00		 push	 0
  0159b	8b 4d c8	 mov	 ecx, DWORD PTR _this$[ebp]
  0159e	e8 00 00 00 00	 call	 ?RedrawWindow@CWnd@@QAEHPBUtagRECT@@PAVCRgn@@I@Z ; CWnd::RedrawWindow

; 366  : 
; 367  : 	int lenVbar = (float)m_rect.Height()/m_rcRealRect.Height()*m_rect.Height();

  015a3	8b 4d c8	 mov	 ecx, DWORD PTR _this$[ebp]
  015a6	81 c1 8c 00 00
	00		 add	 ecx, 140		; 0000008cH
  015ac	e8 00 00 00 00	 call	 ?Height@CRect@@QBEHXZ	; CRect::Height
  015b1	89 45 c4	 mov	 DWORD PTR tv343[ebp], eax
  015b4	db 45 c4	 fild	 DWORD PTR tv343[ebp]
  015b7	d9 5d c0	 fstp	 DWORD PTR tv346[ebp]
  015ba	8b 4d c8	 mov	 ecx, DWORD PTR _this$[ebp]
  015bd	81 c1 9c 00 00
	00		 add	 ecx, 156		; 0000009cH
  015c3	e8 00 00 00 00	 call	 ?Height@CRect@@QBEHXZ	; CRect::Height
  015c8	89 45 bc	 mov	 DWORD PTR tv347[ebp], eax
  015cb	db 45 bc	 fild	 DWORD PTR tv347[ebp]
  015ce	d8 7d c0	 fdivr	 DWORD PTR tv346[ebp]
  015d1	d9 5d b8	 fstp	 DWORD PTR tv350[ebp]
  015d4	8b 4d c8	 mov	 ecx, DWORD PTR _this$[ebp]
  015d7	81 c1 8c 00 00
	00		 add	 ecx, 140		; 0000008cH
  015dd	e8 00 00 00 00	 call	 ?Height@CRect@@QBEHXZ	; CRect::Height
  015e2	89 45 b4	 mov	 DWORD PTR tv351[ebp], eax
  015e5	db 45 b4	 fild	 DWORD PTR tv351[ebp]
  015e8	d8 4d b8	 fmul	 DWORD PTR tv350[ebp]
  015eb	e8 00 00 00 00	 call	 __ftol2
  015f0	89 45 e4	 mov	 DWORD PTR _lenVbar$[ebp], eax

; 368  : 	int realhight = (float)(m_rect.Height()-lenVbar)/m_rect.Height()*m_rcRealRect.Height();

  015f3	8b 4d c8	 mov	 ecx, DWORD PTR _this$[ebp]
  015f6	81 c1 8c 00 00
	00		 add	 ecx, 140		; 0000008cH
  015fc	e8 00 00 00 00	 call	 ?Height@CRect@@QBEHXZ	; CRect::Height
  01601	2b 45 e4	 sub	 eax, DWORD PTR _lenVbar$[ebp]
  01604	89 45 b0	 mov	 DWORD PTR tv356[ebp], eax
  01607	db 45 b0	 fild	 DWORD PTR tv356[ebp]
  0160a	d9 5d ac	 fstp	 DWORD PTR tv359[ebp]
  0160d	8b 4d c8	 mov	 ecx, DWORD PTR _this$[ebp]
  01610	81 c1 8c 00 00
	00		 add	 ecx, 140		; 0000008cH
  01616	e8 00 00 00 00	 call	 ?Height@CRect@@QBEHXZ	; CRect::Height
  0161b	89 45 a8	 mov	 DWORD PTR tv360[ebp], eax
  0161e	db 45 a8	 fild	 DWORD PTR tv360[ebp]
  01621	d8 7d ac	 fdivr	 DWORD PTR tv359[ebp]
  01624	d9 5d a4	 fstp	 DWORD PTR tv363[ebp]
  01627	8b 4d c8	 mov	 ecx, DWORD PTR _this$[ebp]
  0162a	81 c1 9c 00 00
	00		 add	 ecx, 156		; 0000009cH
  01630	e8 00 00 00 00	 call	 ?Height@CRect@@QBEHXZ	; CRect::Height
  01635	89 45 a0	 mov	 DWORD PTR tv364[ebp], eax
  01638	db 45 a0	 fild	 DWORD PTR tv364[ebp]
  0163b	d8 4d a4	 fmul	 DWORD PTR tv363[ebp]
  0163e	e8 00 00 00 00	 call	 __ftol2
  01643	89 45 f4	 mov	 DWORD PTR _realhight$[ebp], eax

; 369  : 	float fper = (float)(0-m_ptClientStart.y)/(m_rcRealRect.Height()-m_rect.Height());

  01646	8b 4d c8	 mov	 ecx, DWORD PTR _this$[ebp]
  01649	33 d2		 xor	 edx, edx
  0164b	2b 91 b0 00 00
	00		 sub	 edx, DWORD PTR [ecx+176]
  01651	89 55 9c	 mov	 DWORD PTR tv369[ebp], edx
  01654	db 45 9c	 fild	 DWORD PTR tv369[ebp]
  01657	d9 5d 98	 fstp	 DWORD PTR tv372[ebp]
  0165a	8b 4d c8	 mov	 ecx, DWORD PTR _this$[ebp]
  0165d	81 c1 9c 00 00
	00		 add	 ecx, 156		; 0000009cH
  01663	e8 00 00 00 00	 call	 ?Height@CRect@@QBEHXZ	; CRect::Height
  01668	8b f0		 mov	 esi, eax
  0166a	8b 4d c8	 mov	 ecx, DWORD PTR _this$[ebp]
  0166d	81 c1 8c 00 00
	00		 add	 ecx, 140		; 0000008cH
  01673	e8 00 00 00 00	 call	 ?Height@CRect@@QBEHXZ	; CRect::Height
  01678	2b f0		 sub	 esi, eax
  0167a	89 75 94	 mov	 DWORD PTR tv375[ebp], esi
  0167d	db 45 94	 fild	 DWORD PTR tv375[ebp]
  01680	d8 7d 98	 fdivr	 DWORD PTR tv372[ebp]
  01683	d9 5d fc	 fstp	 DWORD PTR _fper$[ebp]

; 370  : 	int nPos = fper*realhight;

  01686	db 45 f4	 fild	 DWORD PTR _realhight$[ebp]
  01689	d8 4d fc	 fmul	 DWORD PTR _fper$[ebp]
  0168c	e8 00 00 00 00	 call	 __ftol2
  01691	89 45 e8	 mov	 DWORD PTR _nPos$[ebp], eax

; 371  : 	CoolSB_SetScrollPos(m_hWnd,SB_VERT,nPos,TRUE);

  01694	6a 01		 push	 1
  01696	8b 45 e8	 mov	 eax, DWORD PTR _nPos$[ebp]
  01699	50		 push	 eax
  0169a	6a 01		 push	 1
  0169c	8b 4d c8	 mov	 ecx, DWORD PTR _this$[ebp]
  0169f	8b 51 20	 mov	 edx, DWORD PTR [ecx+32]
  016a2	52		 push	 edx
  016a3	e8 00 00 00 00	 call	 _CoolSB_SetScrollPos@16
$L200509:

; 372  : }

  016a8	5e		 pop	 esi
  016a9	8b e5		 mov	 esp, ebp
  016ab	5d		 pop	 ebp
  016ac	c2 04 00	 ret	 4
?OnMemoryDraw@CLocalMusicCoverList@@IAEXH@Z ENDP	; CLocalMusicCoverList::OnMemoryDraw
_TEXT	ENDS
PUBLIC	?GetSafeHdc@CDC@@QBEPAUHDC__@@XZ		; CDC::GetSafeHdc
PUBLIC	?SelectObject@CDC@@QAEPAVCBitmap@@PAV2@@Z	; CDC::SelectObject
PUBLIC	?IsRectEmpty@CRect@@QBEHXZ			; CRect::IsRectEmpty
PUBLIC	?IsRectNull@CRect@@QBEHXZ			; CRect::IsRectNull
PUBLIC	??8CRect@@QBEHABUtagRECT@@@Z			; CRect::operator==
PUBLIC	?GetSafeHandle@CGdiObject@@QBEPAXXZ		; CGdiObject::GetSafeHandle
PUBLIC	?CreateCompatibleBitmap@CBitmap@@QAEHPAVCDC@@HH@Z ; CBitmap::CreateCompatibleBitmap
EXTRN	?DeleteObject@CGdiObject@@QAEHXZ:NEAR		; CGdiObject::DeleteObject
xdata$x	SEGMENT
$T203218 DD	0ffffffffH
	DD	FLAT:$L203214
$T203216 DD	019930520H
	DD	01H
	DD	FLAT:$T203218
	DD	2 DUP(00H)
	DD	2 DUP(00H)
; Function compile flags: /Odt
xdata$x	ENDS
_TEXT	SEGMENT
_this$ = -60						; size = 4
_sz$ = -56						; size = 8
_rs$ = -48						; size = 16
_dc$ = -32						; size = 20
__$EHRec$ = -12						; size = 12
_blFouce$ = 8						; size = 4
?SizeChanged@CLocalMusicCoverList@@IAEXH@Z PROC NEAR	; CLocalMusicCoverList::SizeChanged
; _this$ = ecx

; 375  : {

  016b0	55		 push	 ebp
  016b1	8b ec		 mov	 ebp, esp
  016b3	6a ff		 push	 -1
  016b5	68 00 00 00 00	 push	 __ehhandler$?SizeChanged@CLocalMusicCoverList@@IAEXH@Z
  016ba	64 a1 00 00 00
	00		 mov	 eax, DWORD PTR fs:__except_list
  016c0	50		 push	 eax
  016c1	64 89 25 00 00
	00 00		 mov	 DWORD PTR fs:__except_list, esp
  016c8	83 ec 30	 sub	 esp, 48			; 00000030H
  016cb	89 4d c4	 mov	 DWORD PTR _this$[ebp], ecx

; 376  : 	CRect rs;

  016ce	8d 4d d0	 lea	 ecx, DWORD PTR _rs$[ebp]
  016d1	e8 00 00 00 00	 call	 ??0CRect@@QAE@XZ	; CRect::CRect

; 377  : 	GetClientRect(&rs);

  016d6	8d 45 d0	 lea	 eax, DWORD PTR _rs$[ebp]
  016d9	50		 push	 eax
  016da	8b 4d c4	 mov	 ecx, DWORD PTR _this$[ebp]
  016dd	e8 00 00 00 00	 call	 ?GetClientRect@CWnd@@QBEXPAUtagRECT@@@Z ; CWnd::GetClientRect

; 378  : 	if (!blFouce)

  016e2	83 7d 08 00	 cmp	 DWORD PTR _blFouce$[ebp], 0
  016e6	75 33		 jne	 SHORT $L200548

; 379  : 	{
; 380  : 		if(rs.IsRectNull() || rs.IsRectEmpty() || rs == m_rect)

  016e8	8d 4d d0	 lea	 ecx, DWORD PTR _rs$[ebp]
  016eb	e8 00 00 00 00	 call	 ?IsRectNull@CRect@@QBEHXZ ; CRect::IsRectNull
  016f0	85 c0		 test	 eax, eax
  016f2	75 22		 jne	 SHORT $L200550
  016f4	8d 4d d0	 lea	 ecx, DWORD PTR _rs$[ebp]
  016f7	e8 00 00 00 00	 call	 ?IsRectEmpty@CRect@@QBEHXZ ; CRect::IsRectEmpty
  016fc	85 c0		 test	 eax, eax
  016fe	75 16		 jne	 SHORT $L200550
  01700	8b 4d c4	 mov	 ecx, DWORD PTR _this$[ebp]
  01703	81 c1 8c 00 00
	00		 add	 ecx, 140		; 0000008cH
  01709	51		 push	 ecx
  0170a	8d 4d d0	 lea	 ecx, DWORD PTR _rs$[ebp]
  0170d	e8 00 00 00 00	 call	 ??8CRect@@QBEHABUtagRECT@@@Z ; CRect::operator==
  01712	85 c0		 test	 eax, eax
  01714	74 05		 je	 SHORT $L200548
$L200550:

; 381  : 			return;

  01716	e9 55 01 00 00	 jmp	 $L200546
$L200548:

; 382  : 	}
; 383  : 
; 384  : 	m_rect = rs;

  0171b	8b 55 c4	 mov	 edx, DWORD PTR _this$[ebp]
  0171e	81 c2 8c 00 00
	00		 add	 edx, 140		; 0000008cH
  01724	8b 45 d0	 mov	 eax, DWORD PTR _rs$[ebp]
  01727	89 02		 mov	 DWORD PTR [edx], eax
  01729	8b 4d d4	 mov	 ecx, DWORD PTR _rs$[ebp+4]
  0172c	89 4a 04	 mov	 DWORD PTR [edx+4], ecx
  0172f	8b 45 d8	 mov	 eax, DWORD PTR _rs$[ebp+8]
  01732	89 42 08	 mov	 DWORD PTR [edx+8], eax
  01735	8b 4d dc	 mov	 ecx, DWORD PTR _rs$[ebp+12]
  01738	89 4a 0c	 mov	 DWORD PTR [edx+12], ecx

; 385  : 	CClientDC dc(this);

  0173b	8b 55 c4	 mov	 edx, DWORD PTR _this$[ebp]
  0173e	52		 push	 edx
  0173f	8d 4d e0	 lea	 ecx, DWORD PTR _dc$[ebp]
  01742	e8 00 00 00 00	 call	 ??0CClientDC@@QAE@PAVCWnd@@@Z ; CClientDC::CClientDC
  01747	c7 45 fc 00 00
	00 00		 mov	 DWORD PTR __$EHRec$[ebp+8], 0

; 386  : 	CSize sz = CSize(m_rect.Width(),m_rect.Height());

  0174e	8b 4d c4	 mov	 ecx, DWORD PTR _this$[ebp]
  01751	81 c1 8c 00 00
	00		 add	 ecx, 140		; 0000008cH
  01757	e8 00 00 00 00	 call	 ?Height@CRect@@QBEHXZ	; CRect::Height
  0175c	50		 push	 eax
  0175d	8b 4d c4	 mov	 ecx, DWORD PTR _this$[ebp]
  01760	81 c1 8c 00 00
	00		 add	 ecx, 140		; 0000008cH
  01766	e8 00 00 00 00	 call	 ?Width@CRect@@QBEHXZ	; CRect::Width
  0176b	50		 push	 eax
  0176c	8d 4d c8	 lea	 ecx, DWORD PTR _sz$[ebp]
  0176f	e8 00 00 00 00	 call	 ??0CSize@@QAE@HH@Z	; CSize::CSize

; 387  : 	if(m_pOldBitmap)

  01774	8b 45 c4	 mov	 eax, DWORD PTR _this$[ebp]
  01777	83 78 78 00	 cmp	 DWORD PTR [eax+120], 0
  0177b	74 2b		 je	 SHORT $L200554

; 388  : 	{
; 389  : 		if(m_dcMem.GetSafeHdc())

  0177d	8b 4d c4	 mov	 ecx, DWORD PTR _this$[ebp]
  01780	83 c1 60	 add	 ecx, 96			; 00000060H
  01783	e8 00 00 00 00	 call	 ?GetSafeHdc@CDC@@QBEPAUHDC__@@XZ ; CDC::GetSafeHdc
  01788	85 c0		 test	 eax, eax
  0178a	74 12		 je	 SHORT $L200555

; 390  : 			m_dcMem.SelectObject(m_pOldBitmap);

  0178c	8b 4d c4	 mov	 ecx, DWORD PTR _this$[ebp]
  0178f	8b 51 78	 mov	 edx, DWORD PTR [ecx+120]
  01792	52		 push	 edx
  01793	8b 4d c4	 mov	 ecx, DWORD PTR _this$[ebp]
  01796	83 c1 60	 add	 ecx, 96			; 00000060H
  01799	e8 00 00 00 00	 call	 ?SelectObject@CDC@@QAEPAVCBitmap@@PAV2@@Z ; CDC::SelectObject
$L200555:

; 391  : 		m_pOldBitmap = NULL;

  0179e	8b 45 c4	 mov	 eax, DWORD PTR _this$[ebp]
  017a1	c7 40 78 00 00
	00 00		 mov	 DWORD PTR [eax+120], 0
$L200554:

; 392  : 	}
; 393  : 	if (m_bmpoldTracker)

  017a8	8b 4d c4	 mov	 ecx, DWORD PTR _this$[ebp]
  017ab	83 b9 18 01 00
	00 00		 cmp	 DWORD PTR [ecx+280], 0
  017b2	74 34		 je	 SHORT $L200556

; 394  : 	{
; 395  : 		if (m_dcTracker.GetSafeHdc())

  017b4	8b 4d c4	 mov	 ecx, DWORD PTR _this$[ebp]
  017b7	81 c1 00 01 00
	00		 add	 ecx, 256		; 00000100H
  017bd	e8 00 00 00 00	 call	 ?GetSafeHdc@CDC@@QBEPAUHDC__@@XZ ; CDC::GetSafeHdc
  017c2	85 c0		 test	 eax, eax
  017c4	74 15		 je	 SHORT $L200557

; 396  : 			m_dcTracker.SelectObject(m_pOldBitmap);

  017c6	8b 55 c4	 mov	 edx, DWORD PTR _this$[ebp]
  017c9	8b 42 78	 mov	 eax, DWORD PTR [edx+120]
  017cc	50		 push	 eax
  017cd	8b 4d c4	 mov	 ecx, DWORD PTR _this$[ebp]
  017d0	81 c1 00 01 00
	00		 add	 ecx, 256		; 00000100H
  017d6	e8 00 00 00 00	 call	 ?SelectObject@CDC@@QAEPAVCBitmap@@PAV2@@Z ; CDC::SelectObject
$L200557:

; 397  : 		m_bmpoldTracker = NULL;

  017db	8b 4d c4	 mov	 ecx, DWORD PTR _this$[ebp]
  017de	c7 81 18 01 00
	00 00 00 00 00	 mov	 DWORD PTR [ecx+280], 0
$L200556:

; 398  : 	}
; 399  : 	if(m_memBitmap.GetSafeHandle())

  017e8	8b 4d c4	 mov	 ecx, DWORD PTR _this$[ebp]
  017eb	83 c1 70	 add	 ecx, 112		; 00000070H
  017ee	e8 00 00 00 00	 call	 ?GetSafeHandle@CGdiObject@@QBEPAXXZ ; CGdiObject::GetSafeHandle
  017f3	85 c0		 test	 eax, eax
  017f5	74 0b		 je	 SHORT $L200558

; 400  : 		m_memBitmap.DeleteObject();

  017f7	8b 4d c4	 mov	 ecx, DWORD PTR _this$[ebp]
  017fa	83 c1 70	 add	 ecx, 112		; 00000070H
  017fd	e8 00 00 00 00	 call	 ?DeleteObject@CGdiObject@@QAEHXZ ; CGdiObject::DeleteObject
$L200558:

; 401  : 	if(m_memBitmap.CreateCompatibleBitmap(&dc,sz.cx,sz.cy))

  01802	8b 55 cc	 mov	 edx, DWORD PTR _sz$[ebp+4]
  01805	52		 push	 edx
  01806	8b 45 c8	 mov	 eax, DWORD PTR _sz$[ebp]
  01809	50		 push	 eax
  0180a	8d 4d e0	 lea	 ecx, DWORD PTR _dc$[ebp]
  0180d	51		 push	 ecx
  0180e	8b 4d c4	 mov	 ecx, DWORD PTR _this$[ebp]
  01811	83 c1 70	 add	 ecx, 112		; 00000070H
  01814	e8 00 00 00 00	 call	 ?CreateCompatibleBitmap@CBitmap@@QAEHPAVCDC@@HH@Z ; CBitmap::CreateCompatibleBitmap
  01819	85 c0		 test	 eax, eax
  0181b	74 18		 je	 SHORT $L200559

; 402  : 		m_pOldBitmap = m_dcMem.SelectObject(&m_memBitmap);

  0181d	8b 55 c4	 mov	 edx, DWORD PTR _this$[ebp]
  01820	83 c2 70	 add	 edx, 112		; 00000070H
  01823	52		 push	 edx
  01824	8b 4d c4	 mov	 ecx, DWORD PTR _this$[ebp]
  01827	83 c1 60	 add	 ecx, 96			; 00000060H
  0182a	e8 00 00 00 00	 call	 ?SelectObject@CDC@@QAEPAVCBitmap@@PAV2@@Z ; CDC::SelectObject
  0182f	8b 4d c4	 mov	 ecx, DWORD PTR _this$[ebp]
  01832	89 41 78	 mov	 DWORD PTR [ecx+120], eax
$L200559:

; 403  : 	
; 404  : 	UpdateList();

  01835	8b 4d c4	 mov	 ecx, DWORD PTR _this$[ebp]
  01838	e8 00 00 00 00	 call	 ?UpdateList@CLocalMusicCoverList@@IAEXXZ ; CLocalMusicCoverList::UpdateList

; 405  : 	m_ptClientStart.x = 0;

  0183d	8b 55 c4	 mov	 edx, DWORD PTR _this$[ebp]
  01840	c7 82 ac 00 00
	00 00 00 00 00	 mov	 DWORD PTR [edx+172], 0

; 406  : 	m_ptClientStart.y = 0;

  0184a	8b 45 c4	 mov	 eax, DWORD PTR _this$[ebp]
  0184d	c7 80 b0 00 00
	00 00 00 00 00	 mov	 DWORD PTR [eax+176], 0

; 407  : 	OnMemoryDraw();

  01857	6a 01		 push	 1
  01859	8b 4d c4	 mov	 ecx, DWORD PTR _this$[ebp]
  0185c	e8 00 00 00 00	 call	 ?OnMemoryDraw@CLocalMusicCoverList@@IAEXH@Z ; CLocalMusicCoverList::OnMemoryDraw

; 408  : }

  01861	c7 45 fc ff ff
	ff ff		 mov	 DWORD PTR __$EHRec$[ebp+8], -1
  01868	8d 4d e0	 lea	 ecx, DWORD PTR _dc$[ebp]
  0186b	e8 00 00 00 00	 call	 ??1CClientDC@@UAE@XZ	; CClientDC::~CClientDC
$L200546:
  01870	8b 4d f4	 mov	 ecx, DWORD PTR __$EHRec$[ebp]
  01873	64 89 0d 00 00
	00 00		 mov	 DWORD PTR fs:__except_list, ecx
  0187a	8b e5		 mov	 esp, ebp
  0187c	5d		 pop	 ebp
  0187d	c2 04 00	 ret	 4
_TEXT	ENDS
text$x	SEGMENT
$L203214:
  0024d	8d 4d e0	 lea	 ecx, DWORD PTR _dc$[ebp]
  00250	e9 00 00 00 00	 jmp	 ??1CClientDC@@UAE@XZ	; CClientDC::~CClientDC
__ehhandler$?SizeChanged@CLocalMusicCoverList@@IAEXH@Z:
  00255	b8 00 00 00 00	 mov	 eax, OFFSET FLAT:$T203216
  0025a	e9 00 00 00 00	 jmp	 ___CxxFrameHandler
text$x	ENDS
?SizeChanged@CLocalMusicCoverList@@IAEXH@Z ENDP		; CLocalMusicCoverList::SizeChanged
EXTRN	_CoolSB_GetScrollPos@8:NEAR
EXTRN	_CoolSB_SetScrollInfo@16:NEAR
EXTRN	_CoolSB_ShowScrollBar@12:NEAR
EXTRN	?FillSolidRect@CDC@@QAEXHHHHK@Z:NEAR		; CDC::FillSolidRect
xdata$x	SEGMENT
$T203228 DD	0ffffffffH
	DD	FLAT:$L203224
$T203226 DD	019930520H
	DD	01H
	DD	FLAT:$T203228
	DD	2 DUP(00H)
	DD	2 DUP(00H)
; Function compile flags: /Odt
xdata$x	ENDS
_TEXT	SEGMENT
tv215 = -108						; size = 4
tv139 = -104						; size = 4
_this$ = -100						; size = 4
_iCount$ = -96						; size = 4
_iLine$ = -92						; size = 4
_si$ = -88						; size = 28
_rs$ = -60						; size = 16
_iHeightSpace$ = -44					; size = 4
_iPos$ = -40						; size = 4
_iW$ = -36						; size = 4
_dc$ = -32						; size = 20
__$EHRec$ = -12						; size = 12
?UpdateList@CLocalMusicCoverList@@IAEXXZ PROC NEAR	; CLocalMusicCoverList::UpdateList
; _this$ = ecx

; 411  : {

  01880	55		 push	 ebp
  01881	8b ec		 mov	 ebp, esp
  01883	6a ff		 push	 -1
  01885	68 00 00 00 00	 push	 __ehhandler$?UpdateList@CLocalMusicCoverList@@IAEXXZ
  0188a	64 a1 00 00 00
	00		 mov	 eax, DWORD PTR fs:__except_list
  01890	50		 push	 eax
  01891	64 89 25 00 00
	00 00		 mov	 DWORD PTR fs:__except_list, esp
  01898	83 ec 60	 sub	 esp, 96			; 00000060H
  0189b	89 4d 9c	 mov	 DWORD PTR _this$[ebp], ecx

; 412  : 	m_ptClientStart.SetPoint(0,0);

  0189e	6a 00		 push	 0
  018a0	6a 00		 push	 0
  018a2	8b 4d 9c	 mov	 ecx, DWORD PTR _this$[ebp]
  018a5	81 c1 ac 00 00
	00		 add	 ecx, 172		; 000000acH
  018ab	e8 00 00 00 00	 call	 ?SetPoint@CPoint@@QAEXHH@Z ; CPoint::SetPoint

; 413  : 	CRect rs;

  018b0	8d 4d c4	 lea	 ecx, DWORD PTR _rs$[ebp]
  018b3	e8 00 00 00 00	 call	 ??0CRect@@QAE@XZ	; CRect::CRect

; 414  : 	GetClientRect(&rs);

  018b8	8d 45 c4	 lea	 eax, DWORD PTR _rs$[ebp]
  018bb	50		 push	 eax
  018bc	8b 4d 9c	 mov	 ecx, DWORD PTR _this$[ebp]
  018bf	e8 00 00 00 00	 call	 ?GetClientRect@CWnd@@QBEXPAUtagRECT@@@Z ; CWnd::GetClientRect

; 415  : 	if (rs.IsRectNull() || rs.IsRectEmpty()) return;

  018c4	8d 4d c4	 lea	 ecx, DWORD PTR _rs$[ebp]
  018c7	e8 00 00 00 00	 call	 ?IsRectNull@CRect@@QBEHXZ ; CRect::IsRectNull
  018cc	85 c0		 test	 eax, eax
  018ce	75 0c		 jne	 SHORT $L200565
  018d0	8d 4d c4	 lea	 ecx, DWORD PTR _rs$[ebp]
  018d3	e8 00 00 00 00	 call	 ?IsRectEmpty@CRect@@QBEHXZ ; CRect::IsRectEmpty
  018d8	85 c0		 test	 eax, eax
  018da	74 05		 je	 SHORT $L200564
$L200565:
  018dc	e9 34 02 00 00	 jmp	 $L200562
$L200564:

; 416  : 	CClientDC dc(this);

  018e1	8b 4d 9c	 mov	 ecx, DWORD PTR _this$[ebp]
  018e4	51		 push	 ecx
  018e5	8d 4d e0	 lea	 ecx, DWORD PTR _dc$[ebp]
  018e8	e8 00 00 00 00	 call	 ??0CClientDC@@QAE@PAVCWnd@@@Z ; CClientDC::CClientDC
  018ed	c7 45 fc 00 00
	00 00		 mov	 DWORD PTR __$EHRec$[ebp+8], 0

; 417  : 	if (m_bmpTracker.GetSafeHandle())

  018f4	8b 4d 9c	 mov	 ecx, DWORD PTR _this$[ebp]
  018f7	81 c1 10 01 00
	00		 add	 ecx, 272		; 00000110H
  018fd	e8 00 00 00 00	 call	 ?GetSafeHandle@CGdiObject@@QBEPAXXZ ; CGdiObject::GetSafeHandle
  01902	85 c0		 test	 eax, eax
  01904	74 0e		 je	 SHORT $L200567

; 418  : 		m_bmpTracker.DeleteObject();

  01906	8b 4d 9c	 mov	 ecx, DWORD PTR _this$[ebp]
  01909	81 c1 10 01 00
	00		 add	 ecx, 272		; 00000110H
  0190f	e8 00 00 00 00	 call	 ?DeleteObject@CGdiObject@@QAEHXZ ; CGdiObject::DeleteObject
$L200567:

; 419  : 	int iHeightSpace=0;

  01914	c7 45 d4 00 00
	00 00		 mov	 DWORD PTR _iHeightSpace$[ebp], 0

; 420  : 	if (m_ImgState==LMCI_Small)

  0191b	8b 55 9c	 mov	 edx, DWORD PTR _this$[ebp]
  0191e	83 7a 5c 00	 cmp	 DWORD PTR [edx+92], 0
  01922	75 0e		 jne	 SHORT $L200569

; 421  : 		iHeightSpace = m_iItemHeight+SPACEH + ITEMTXTH + SPACEH;

  01924	8b 45 9c	 mov	 eax, DWORD PTR _this$[ebp]
  01927	8b 48 58	 mov	 ecx, DWORD PTR [eax+88]
  0192a	83 c1 17	 add	 ecx, 23			; 00000017H
  0192d	89 4d d4	 mov	 DWORD PTR _iHeightSpace$[ebp], ecx

; 422  : 	else

  01930	eb 0c		 jmp	 SHORT $L200570
$L200569:

; 423  : 		iHeightSpace = m_iItemHeight+SPACEH + ITEMTXTH + SPACEH + ITEMTXTH + SPACEH*3;

  01932	8b 55 9c	 mov	 edx, DWORD PTR _this$[ebp]
  01935	8b 42 58	 mov	 eax, DWORD PTR [edx+88]
  01938	83 c0 32	 add	 eax, 50			; 00000032H
  0193b	89 45 d4	 mov	 DWORD PTR _iHeightSpace$[ebp], eax
$L200570:

; 424  : 	int iW=0;

  0193e	c7 45 dc 00 00
	00 00		 mov	 DWORD PTR _iW$[ebp], 0

; 425  : 	m_ImgState==LMCI_Small?iW = m_iItemWidth+SPACEWS:iW = m_iItemWidth+SPACEW;

  01945	8b 4d 9c	 mov	 ecx, DWORD PTR _this$[ebp]
  01948	83 79 5c 00	 cmp	 DWORD PTR [ecx+92], 0
  0194c	75 14		 jne	 SHORT $L203220
  0194e	8b 55 9c	 mov	 edx, DWORD PTR _this$[ebp]
  01951	8b 42 54	 mov	 eax, DWORD PTR [edx+84]
  01954	83 c0 0a	 add	 eax, 10			; 0000000aH
  01957	89 45 dc	 mov	 DWORD PTR _iW$[ebp], eax
  0195a	8b 4d dc	 mov	 ecx, DWORD PTR _iW$[ebp]
  0195d	89 4d 98	 mov	 DWORD PTR tv139[ebp], ecx
  01960	eb 12		 jmp	 SHORT $L203221
$L203220:
  01962	8b 55 9c	 mov	 edx, DWORD PTR _this$[ebp]
  01965	8b 42 54	 mov	 eax, DWORD PTR [edx+84]
  01968	83 c0 10	 add	 eax, 16			; 00000010H
  0196b	89 45 dc	 mov	 DWORD PTR _iW$[ebp], eax
  0196e	8b 4d dc	 mov	 ecx, DWORD PTR _iW$[ebp]
  01971	89 4d 98	 mov	 DWORD PTR tv139[ebp], ecx
$L203221:

; 426  : 	
; 427  : 	int iCount = m_rect.Width()/iW;

  01974	8b 4d 9c	 mov	 ecx, DWORD PTR _this$[ebp]
  01977	81 c1 8c 00 00
	00		 add	 ecx, 140		; 0000008cH
  0197d	e8 00 00 00 00	 call	 ?Width@CRect@@QBEHXZ	; CRect::Width
  01982	99		 cdq
  01983	f7 7d dc	 idiv	 DWORD PTR _iW$[ebp]
  01986	89 45 a0	 mov	 DWORD PTR _iCount$[ebp], eax

; 428  : 	int iLine = m_DataMgr.m_vItem.size()/iCount;

  01989	8b 4d 9c	 mov	 ecx, DWORD PTR _this$[ebp]
  0198c	81 c1 68 01 00
	00		 add	 ecx, 360		; 00000168H
  01992	e8 00 00 00 00	 call	 ?size@?$vector@U_tagLMCItemInfo@@V?$allocator@U_tagLMCItemInfo@@@std@@@std@@QBEIXZ ; std::vector<_tagLMCItemInfo,std::allocator<_tagLMCItemInfo> >::size
  01997	33 d2		 xor	 edx, edx
  01999	f7 75 a0	 div	 DWORD PTR _iCount$[ebp]
  0199c	89 45 a4	 mov	 DWORD PTR _iLine$[ebp], eax

; 429  : 	if (m_DataMgr.m_vItem.size()%iCount)

  0199f	8b 4d 9c	 mov	 ecx, DWORD PTR _this$[ebp]
  019a2	81 c1 68 01 00
	00		 add	 ecx, 360		; 00000168H
  019a8	e8 00 00 00 00	 call	 ?size@?$vector@U_tagLMCItemInfo@@V?$allocator@U_tagLMCItemInfo@@@std@@@std@@QBEIXZ ; std::vector<_tagLMCItemInfo,std::allocator<_tagLMCItemInfo> >::size
  019ad	33 d2		 xor	 edx, edx
  019af	f7 75 a0	 div	 DWORD PTR _iCount$[ebp]
  019b2	85 d2		 test	 edx, edx
  019b4	74 09		 je	 SHORT $L200574

; 430  : 		iLine++;

  019b6	8b 55 a4	 mov	 edx, DWORD PTR _iLine$[ebp]
  019b9	83 c2 01	 add	 edx, 1
  019bc	89 55 a4	 mov	 DWORD PTR _iLine$[ebp], edx
$L200574:

; 431  : 	m_rcRealRect.bottom = iLine* iHeightSpace;

  019bf	8b 45 a4	 mov	 eax, DWORD PTR _iLine$[ebp]
  019c2	0f af 45 d4	 imul	 eax, DWORD PTR _iHeightSpace$[ebp]
  019c6	8b 4d 9c	 mov	 ecx, DWORD PTR _this$[ebp]
  019c9	89 81 a8 00 00
	00		 mov	 DWORD PTR [ecx+168], eax

; 432  : 	m_rcRealRect.right = m_rect.right;

  019cf	8b 55 9c	 mov	 edx, DWORD PTR _this$[ebp]
  019d2	8b 45 9c	 mov	 eax, DWORD PTR _this$[ebp]
  019d5	8b 88 94 00 00
	00		 mov	 ecx, DWORD PTR [eax+148]
  019db	89 8a a4 00 00
	00		 mov	 DWORD PTR [edx+164], ecx

; 433  : 
; 434  : 	if (m_bmpTracker.CreateCompatibleBitmap(&dc,m_rect.Width(),m_rect.Height()))

  019e1	8b 4d 9c	 mov	 ecx, DWORD PTR _this$[ebp]
  019e4	81 c1 8c 00 00
	00		 add	 ecx, 140		; 0000008cH
  019ea	e8 00 00 00 00	 call	 ?Height@CRect@@QBEHXZ	; CRect::Height
  019ef	50		 push	 eax
  019f0	8b 4d 9c	 mov	 ecx, DWORD PTR _this$[ebp]
  019f3	81 c1 8c 00 00
	00		 add	 ecx, 140		; 0000008cH
  019f9	e8 00 00 00 00	 call	 ?Width@CRect@@QBEHXZ	; CRect::Width
  019fe	50		 push	 eax
  019ff	8d 55 e0	 lea	 edx, DWORD PTR _dc$[ebp]
  01a02	52		 push	 edx
  01a03	8b 4d 9c	 mov	 ecx, DWORD PTR _this$[ebp]
  01a06	81 c1 10 01 00
	00		 add	 ecx, 272		; 00000110H
  01a0c	e8 00 00 00 00	 call	 ?CreateCompatibleBitmap@CBitmap@@QAEHPAVCDC@@HH@Z ; CBitmap::CreateCompatibleBitmap
  01a11	85 c0		 test	 eax, eax
  01a13	74 55		 je	 SHORT $L200575

; 435  :  	{
; 436  :  		m_bmpoldTracker = m_dcTracker.SelectObject(&m_bmpTracker);

  01a15	8b 45 9c	 mov	 eax, DWORD PTR _this$[ebp]
  01a18	05 10 01 00 00	 add	 eax, 272		; 00000110H
  01a1d	50		 push	 eax
  01a1e	8b 4d 9c	 mov	 ecx, DWORD PTR _this$[ebp]
  01a21	81 c1 00 01 00
	00		 add	 ecx, 256		; 00000100H
  01a27	e8 00 00 00 00	 call	 ?SelectObject@CDC@@QAEPAVCBitmap@@PAV2@@Z ; CDC::SelectObject
  01a2c	8b 4d 9c	 mov	 ecx, DWORD PTR _this$[ebp]
  01a2f	89 81 18 01 00
	00		 mov	 DWORD PTR [ecx+280], eax

; 437  :  		//m_dcTracker.FillSolidRect(0,0,m_rcRealRect.Width(),m_rcRealRect.Height(),RGB(180,180,180));
; 438  : 		m_dcTracker.FillSolidRect(0,0,m_rect.Width(),m_rect.Height(),RGB(180,180,180));

  01a35	68 b4 b4 b4 00	 push	 11842740		; 00b4b4b4H
  01a3a	8b 4d 9c	 mov	 ecx, DWORD PTR _this$[ebp]
  01a3d	81 c1 8c 00 00
	00		 add	 ecx, 140		; 0000008cH
  01a43	e8 00 00 00 00	 call	 ?Height@CRect@@QBEHXZ	; CRect::Height
  01a48	50		 push	 eax
  01a49	8b 4d 9c	 mov	 ecx, DWORD PTR _this$[ebp]
  01a4c	81 c1 8c 00 00
	00		 add	 ecx, 140		; 0000008cH
  01a52	e8 00 00 00 00	 call	 ?Width@CRect@@QBEHXZ	; CRect::Width
  01a57	50		 push	 eax
  01a58	6a 00		 push	 0
  01a5a	6a 00		 push	 0
  01a5c	8b 4d 9c	 mov	 ecx, DWORD PTR _this$[ebp]
  01a5f	81 c1 00 01 00
	00		 add	 ecx, 256		; 00000100H
  01a65	e8 00 00 00 00	 call	 ?FillSolidRect@CDC@@QAEXHHHHK@Z ; CDC::FillSolidRect
$L200575:

; 439  :  	}
; 440  : 
; 441  : 	SCROLLINFO si;
; 442  : 	si.cbSize	= sizeof(si);

  01a6a	c7 45 a8 1c 00
	00 00		 mov	 DWORD PTR _si$[ebp], 28	; 0000001cH

; 443  : 	si.fMask	= SIF_PAGE | SIF_POS | SIF_RANGE | SIF_DISABLENOSCROLL;

  01a71	c7 45 ac 0f 00
	00 00		 mov	 DWORD PTR _si$[ebp+4], 15 ; 0000000fH

; 444  : 	si.nMin		= 0;

  01a78	c7 45 b0 00 00
	00 00		 mov	 DWORD PTR _si$[ebp+8], 0

; 445  : 	si.nMax		= m_rcRealRect.Height();

  01a7f	8b 4d 9c	 mov	 ecx, DWORD PTR _this$[ebp]
  01a82	81 c1 9c 00 00
	00		 add	 ecx, 156		; 0000009cH
  01a88	e8 00 00 00 00	 call	 ?Height@CRect@@QBEHXZ	; CRect::Height
  01a8d	89 45 b4	 mov	 DWORD PTR _si$[ebp+12], eax

; 446  : 	si.nPos		= 0;

  01a90	c7 45 bc 00 00
	00 00		 mov	 DWORD PTR _si$[ebp+20], 0

; 447  : 	si.nPage	= rs.Height();

  01a97	8d 4d c4	 lea	 ecx, DWORD PTR _rs$[ebp]
  01a9a	e8 00 00 00 00	 call	 ?Height@CRect@@QBEHXZ	; CRect::Height
  01a9f	89 45 b8	 mov	 DWORD PTR _si$[ebp+16], eax

; 448  : 	si.nMax<m_rect.Height()?CoolSB_ShowScrollBar(m_hWnd,SB_VERT,FALSE):CoolSB_SetScrollInfo (m_hWnd, SB_VERT, &si, TRUE);

  01aa2	8b 4d 9c	 mov	 ecx, DWORD PTR _this$[ebp]
  01aa5	81 c1 8c 00 00
	00		 add	 ecx, 140		; 0000008cH
  01aab	e8 00 00 00 00	 call	 ?Height@CRect@@QBEHXZ	; CRect::Height
  01ab0	39 45 b4	 cmp	 DWORD PTR _si$[ebp+12], eax
  01ab3	7d 15		 jge	 SHORT $L203222
  01ab5	6a 00		 push	 0
  01ab7	6a 01		 push	 1
  01ab9	8b 55 9c	 mov	 edx, DWORD PTR _this$[ebp]
  01abc	8b 42 20	 mov	 eax, DWORD PTR [edx+32]
  01abf	50		 push	 eax
  01ac0	e8 00 00 00 00	 call	 _CoolSB_ShowScrollBar@12
  01ac5	89 45 94	 mov	 DWORD PTR tv215[ebp], eax
  01ac8	eb 17		 jmp	 SHORT $L203223
$L203222:
  01aca	6a 01		 push	 1
  01acc	8d 4d a8	 lea	 ecx, DWORD PTR _si$[ebp]
  01acf	51		 push	 ecx
  01ad0	6a 01		 push	 1
  01ad2	8b 55 9c	 mov	 edx, DWORD PTR _this$[ebp]
  01ad5	8b 42 20	 mov	 eax, DWORD PTR [edx+32]
  01ad8	50		 push	 eax
  01ad9	e8 00 00 00 00	 call	 _CoolSB_SetScrollInfo@16
  01ade	89 45 94	 mov	 DWORD PTR tv215[ebp], eax
$L203223:

; 449  : 	//CoolSB_SetScrollRange(m_hWnd,SB_VERT,0,m_rcRealRect.Height(),TRUE);
; 450  : 	// 
; 451  : 	int iPos = CoolSB_GetScrollPos(m_hWnd,SB_VERT);

  01ae1	6a 01		 push	 1
  01ae3	8b 4d 9c	 mov	 ecx, DWORD PTR _this$[ebp]
  01ae6	8b 51 20	 mov	 edx, DWORD PTR [ecx+32]
  01ae9	52		 push	 edx
  01aea	e8 00 00 00 00	 call	 _CoolSB_GetScrollPos@8
  01aef	89 45 d8	 mov	 DWORD PTR _iPos$[ebp], eax

; 452  : 	CoolSB_SetScrollPos(m_hWnd,SB_VERT,iPos,TRUE);

  01af2	6a 01		 push	 1
  01af4	8b 45 d8	 mov	 eax, DWORD PTR _iPos$[ebp]
  01af7	50		 push	 eax
  01af8	6a 01		 push	 1
  01afa	8b 4d 9c	 mov	 ecx, DWORD PTR _this$[ebp]
  01afd	8b 51 20	 mov	 edx, DWORD PTR [ecx+32]
  01b00	52		 push	 edx
  01b01	e8 00 00 00 00	 call	 _CoolSB_SetScrollPos@16

; 453  : }

  01b06	c7 45 fc ff ff
	ff ff		 mov	 DWORD PTR __$EHRec$[ebp+8], -1
  01b0d	8d 4d e0	 lea	 ecx, DWORD PTR _dc$[ebp]
  01b10	e8 00 00 00 00	 call	 ??1CClientDC@@UAE@XZ	; CClientDC::~CClientDC
$L200562:
  01b15	8b 4d f4	 mov	 ecx, DWORD PTR __$EHRec$[ebp]
