; Listing generated by Microsoft (R) Optimizing Compiler Version 13.10.3077 

	TITLE	.\src\LayoutMgr\ChangeColor\MainSkinWnd.cpp
	.386P
include listing.inc
if @Version gt 510
.model FLAT
else
_TEXT	SEGMENT PARA USE32 PUBLIC 'CODE'
_TEXT	ENDS
_DATA	SEGMENT DWORD USE32 PUBLIC 'DATA'
_DATA	ENDS
CONST	SEGMENT DWORD USE32 PUBLIC 'CONST'
CONST	ENDS
_BSS	SEGMENT DWORD USE32 PUBLIC 'BSS'
_BSS	ENDS
$$SYMBOLS	SEGMENT BYTE USE32 'DEBSYM'
$$SYMBOLS	ENDS
$$TYPES	SEGMENT BYTE USE32 'DEBTYP'
$$TYPES	ENDS
_TLS	SEGMENT DWORD USE32 PUBLIC 'TLS'
_TLS	ENDS
;	COMDAT ??_C@_0BD@OLBABOEK@vector?$DMT?$DO?5too?5long?$AA@
CONST	SEGMENT DWORD USE32 PUBLIC 'CONST'
CONST	ENDS
rdata$r	SEGMENT DWORD USE32 PUBLIC 'CONST'
rdata$r	ENDS
xdata$x	SEGMENT DWORD USE32 PUBLIC 'CONST'
xdata$x	ENDS
text$AFX_COL1	SEGMENT PARA USE32 PUBLIC ''
text$AFX_COL1	ENDS
text$yc	SEGMENT PARA USE32 PUBLIC 'CODE'
text$yc	ENDS
CRT$XCA	SEGMENT DWORD USE32 PUBLIC 'DATA'
CRT$XCA	ENDS
CRT$XCU	SEGMENT DWORD USE32 PUBLIC 'DATA'
CRT$XCU	ENDS
CRT$XCL	SEGMENT DWORD USE32 PUBLIC 'DATA'
CRT$XCL	ENDS
CRT$XCC	SEGMENT DWORD USE32 PUBLIC 'DATA'
CRT$XCC	ENDS
CRT$XCZ	SEGMENT DWORD USE32 PUBLIC 'DATA'
CRT$XCZ	ENDS
text$yd	SEGMENT PARA USE32 PUBLIC 'CODE'
text$yd	ENDS
ATL$__m	SEGMENT DWORD USE32 PUBLIC ''
ATL$__m	ENDS
ATL$__z	SEGMENT DWORD USE32 PUBLIC ''
ATL$__z	ENDS
ATL$__a	SEGMENT DWORD USE32 PUBLIC ''
ATL$__a	ENDS
;	COMDAT ??1CGdiPlusBitmap@@UAE@XZ
_TEXT	SEGMENT PARA USE32 PUBLIC 'CODE'
_TEXT	ENDS
;	COMDAT ?Empty@CGdiPlusBitmap@@QAEXXZ
_TEXT	SEGMENT PARA USE32 PUBLIC 'CODE'
_TEXT	ENDS
;	COMDAT ?Load@CGdiPlusBitmap@@QAE_NPB_W@Z
_TEXT	SEGMENT PARA USE32 PUBLIC 'CODE'
_TEXT	ENDS
;	COMDAT ??_GCGdiPlusBitmap@@UAEPAXI@Z
_TEXT	SEGMENT PARA USE32 PUBLIC 'CODE'
_TEXT	ENDS
;	COMDAT ??1IData@@MAE@XZ
_TEXT	SEGMENT PARA USE32 PUBLIC 'CODE'
_TEXT	ENDS
;	COMDAT ?DataAppStart@IData@@UAEXXZ
_TEXT	SEGMENT PARA USE32 PUBLIC 'CODE'
_TEXT	ENDS
;	COMDAT ?DataAppExit@IData@@UAEXXZ
_TEXT	SEGMENT PARA USE32 PUBLIC 'CODE'
_TEXT	ENDS
;	COMDAT ??_GIData@@MAEPAXI@Z
_TEXT	SEGMENT PARA USE32 PUBLIC 'CODE'
_TEXT	ENDS
;	COMDAT ??1DIBINFO@@UAE@XZ
_TEXT	SEGMENT PARA USE32 PUBLIC 'CODE'
_TEXT	ENDS
;	COMDAT ??_GDIBINFO@@UAEPAXI@Z
_TEXT	SEGMENT PARA USE32 PUBLIC 'CODE'
_TEXT	ENDS
;	COMDAT ??0BaseColor@@QAE@XZ
_TEXT	SEGMENT PARA USE32 PUBLIC 'CODE'
_TEXT	ENDS
;	COMDAT ??1BaseColor@@QAE@XZ
_TEXT	SEGMENT PARA USE32 PUBLIC 'CODE'
_TEXT	ENDS
;	COMDAT ??_GBaseColor@@QAEPAXI@Z
_TEXT	SEGMENT PARA USE32 PUBLIC 'CODE'
_TEXT	ENDS
;	COMDAT ??1CGdiPlusBitmap@CSkinButton@@UAE@XZ
_TEXT	SEGMENT PARA USE32 PUBLIC 'CODE'
_TEXT	ENDS
;	COMDAT ?Empty@CGdiPlusBitmap@CSkinButton@@QAEXXZ
_TEXT	SEGMENT PARA USE32 PUBLIC 'CODE'
_TEXT	ENDS
;	COMDAT ?Load@CGdiPlusBitmap@CSkinButton@@QAE_NPB_W@Z
_TEXT	SEGMENT PARA USE32 PUBLIC 'CODE'
_TEXT	ENDS
;	COMDAT ??_GCGdiPlusBitmap@CSkinButton@@UAEPAXI@Z
_TEXT	SEGMENT PARA USE32 PUBLIC 'CODE'
_TEXT	ENDS
;	COMDAT ??1HTTPObserver@@UAE@XZ
_TEXT	SEGMENT PARA USE32 PUBLIC 'CODE'
_TEXT	ENDS
;	COMDAT ?HTTPOb_DownStart@HTTPObserver@@UAEXPBD0I@Z
_TEXT	SEGMENT PARA USE32 PUBLIC 'CODE'
_TEXT	ENDS
;	COMDAT ?HTTPOb_DownFinish@HTTPObserver@@UAEXPBD@Z
_TEXT	SEGMENT PARA USE32 PUBLIC 'CODE'
_TEXT	ENDS
;	COMDAT ?HTTPOb_DownFailed@HTTPObserver@@UAEXPBDW4HTTP_DOWN_FAILED_REASON@@@Z
_TEXT	SEGMENT PARA USE32 PUBLIC 'CODE'
_TEXT	ENDS
;	COMDAT ?HTTPOb_DownProgress@HTTPObserver@@UAEXPBDII@Z
_TEXT	SEGMENT PARA USE32 PUBLIC 'CODE'
_TEXT	ENDS
;	COMDAT ?HTTPOb_DownloadPause@HTTPObserver@@UAEXPBD@Z
_TEXT	SEGMENT PARA USE32 PUBLIC 'CODE'
_TEXT	ENDS
;	COMDAT ??_GHTTPObserver@@UAEPAXI@Z
_TEXT	SEGMENT PARA USE32 PUBLIC 'CODE'
_TEXT	ENDS
;	COMDAT ??1P2PObserver@@UAE@XZ
_TEXT	SEGMENT PARA USE32 PUBLIC 'CODE'
_TEXT	ENDS
;	COMDAT ?P2POb_DownStart@P2PObserver@@UAEXABV?$basic_string@DU?$char_traits@D@std@@V?$allocator@D@2@@std@@PBDI@Z
_TEXT	SEGMENT PARA USE32 PUBLIC 'CODE'
_TEXT	ENDS
;	COMDAT ?P2POb_DownFinish@P2PObserver@@UAEXABV?$basic_string@DU?$char_traits@D@std@@V?$allocator@D@2@@std@@@Z
_TEXT	SEGMENT PARA USE32 PUBLIC 'CODE'
_TEXT	ENDS
;	COMDAT ?P2POb_DownFailed@P2PObserver@@UAEXABV?$basic_string@DU?$char_traits@D@std@@V?$allocator@D@2@@std@@W4P2P_DOWN_FAILED_REASON@@@Z
_TEXT	SEGMENT PARA USE32 PUBLIC 'CODE'
_TEXT	ENDS
;	COMDAT ?P2POb_DownProgress@P2PObserver@@UAEXABV?$basic_string@DU?$char_traits@D@std@@V?$allocator@D@2@@std@@III@Z
_TEXT	SEGMENT PARA USE32 PUBLIC 'CODE'
_TEXT	ENDS
;	COMDAT ?P2POb_DownPause@P2PObserver@@UAEXABV?$basic_string@DU?$char_traits@D@std@@V?$allocator@D@2@@std@@@Z
_TEXT	SEGMENT PARA USE32 PUBLIC 'CODE'
_TEXT	ENDS
;	COMDAT ?P2POb_SigChange@P2PObserver@@UAEXABV?$basic_string@DU?$char_traits@D@std@@V?$allocator@D@2@@std@@0PBD@Z
_TEXT	SEGMENT PARA USE32 PUBLIC 'CODE'
_TEXT	ENDS
;	COMDAT ??_GP2PObserver@@UAEPAXI@Z
_TEXT	SEGMENT PARA USE32 PUBLIC 'CODE'
_TEXT	ENDS
;	COMDAT ?GetClsid@CShockwaveFlash@@QAEABU_GUID@@XZ
_TEXT	SEGMENT PARA USE32 PUBLIC 'CODE'
_TEXT	ENDS
;	COMDAT _$E5
text$yc	SEGMENT PARA USE32 PUBLIC 'CODE'
text$yc	ENDS
;	COMDAT ??_GCMainSkinWnd@@UAEPAXI@Z
_TEXT	SEGMENT PARA USE32 PUBLIC 'CODE'
_TEXT	ENDS
;	COMDAT ??1CColorDialog@@UAE@XZ
_TEXT	SEGMENT PARA USE32 PUBLIC 'CODE'
_TEXT	ENDS
;	COMDAT ??HATL@@YA?AV?$CStringT@DV?$StrTraitMFC_DLL@DV?$ChTraitsCRT@D@ATL@@@@@0@ABV10@0@Z
_TEXT	SEGMENT PARA USE32 PUBLIC 'CODE'
_TEXT	ENDS
;	COMDAT ??HATL@@YA?AV?$CStringT@DV?$StrTraitMFC_DLL@DV?$ChTraitsCRT@D@ATL@@@@@0@ABV10@PBD@Z
_TEXT	SEGMENT PARA USE32 PUBLIC 'CODE'
_TEXT	ENDS
;	COMDAT ??B?$CComPtrBase@UITypeInfo2@@@ATL@@QBEPAUITypeInfo2@@XZ
_TEXT	SEGMENT PARA USE32 PUBLIC 'CODE'
_TEXT	ENDS
;	COMDAT ?equal@?$istreambuf_iterator@DU?$char_traits@D@std@@@std@@QBE_NABV12@@Z
_TEXT	SEGMENT PARA USE32 PUBLIC 'CODE'
_TEXT	ENDS
;	COMDAT ?equal@?$istreambuf_iterator@_WU?$char_traits@_W@std@@@std@@QBE_NABV12@@Z
_TEXT	SEGMENT PARA USE32 PUBLIC 'CODE'
_TEXT	ENDS
;	COMDAT ??0?$vector@PAVCSkinButton2@@V?$allocator@PAVCSkinButton2@@@std@@@std@@QAE@XZ
_TEXT	SEGMENT PARA USE32 PUBLIC 'CODE'
_TEXT	ENDS
;	COMDAT ??1?$vector@PAVCSkinButton2@@V?$allocator@PAVCSkinButton2@@@std@@@std@@QAE@XZ
_TEXT	SEGMENT PARA USE32 PUBLIC 'CODE'
_TEXT	ENDS
;	COMDAT ?begin@?$vector@PAVCSkinButton2@@V?$allocator@PAVCSkinButton2@@@std@@@std@@QAE?AViterator@12@XZ
_TEXT	SEGMENT PARA USE32 PUBLIC 'CODE'
_TEXT	ENDS
;	COMDAT ?end@?$vector@PAVCSkinButton2@@V?$allocator@PAVCSkinButton2@@@std@@@std@@QAE?AViterator@12@XZ
_TEXT	SEGMENT PARA USE32 PUBLIC 'CODE'
_TEXT	ENDS
;	COMDAT ?size@?$vector@PAVCSkinButton2@@V?$allocator@PAVCSkinButton2@@@std@@@std@@QBEIXZ
_TEXT	SEGMENT PARA USE32 PUBLIC 'CODE'
_TEXT	ENDS
;	COMDAT ??A?$vector@PAVCSkinButton2@@V?$allocator@PAVCSkinButton2@@@std@@@std@@QAEAAPAVCSkinButton2@@I@Z
_TEXT	SEGMENT PARA USE32 PUBLIC 'CODE'
_TEXT	ENDS
;	COMDAT ?push_back@?$vector@PAVCSkinButton2@@V?$allocator@PAVCSkinButton2@@@std@@@std@@QAEXABQAVCSkinButton2@@@Z
_TEXT	SEGMENT PARA USE32 PUBLIC 'CODE'
_TEXT	ENDS
;	COMDAT ?clear@?$vector@PAVCSkinButton2@@V?$allocator@PAVCSkinButton2@@@std@@@std@@QAEXXZ
_TEXT	SEGMENT PARA USE32 PUBLIC 'CODE'
_TEXT	ENDS
;	COMDAT ??Diterator@?$vector@PAVCSkinButton2@@V?$allocator@PAVCSkinButton2@@@std@@@std@@QBEAAPAVCSkinButton2@@XZ
_TEXT	SEGMENT PARA USE32 PUBLIC 'CODE'
_TEXT	ENDS
;	COMDAT ??Eiterator@?$vector@PAVCSkinButton2@@V?$allocator@PAVCSkinButton2@@@std@@@std@@QAE?AV012@H@Z
_TEXT	SEGMENT PARA USE32 PUBLIC 'CODE'
_TEXT	ENDS
;	COMDAT ??9const_iterator@?$vector@PAVCSkinButton2@@V?$allocator@PAVCSkinButton2@@@std@@@std@@QBE_NABV012@@Z
_TEXT	SEGMENT PARA USE32 PUBLIC 'CODE'
_TEXT	ENDS
;	COMDAT ??0?$vector@KV?$allocator@K@std@@@std@@QAE@XZ
_TEXT	SEGMENT PARA USE32 PUBLIC 'CODE'
_TEXT	ENDS
;	COMDAT ??1?$vector@KV?$allocator@K@std@@@std@@QAE@XZ
_TEXT	SEGMENT PARA USE32 PUBLIC 'CODE'
_TEXT	ENDS
;	COMDAT ??A?$vector@KV?$allocator@K@std@@@std@@QAEAAKI@Z
_TEXT	SEGMENT PARA USE32 PUBLIC 'CODE'
_TEXT	ENDS
;	COMDAT ?push_back@?$vector@KV?$allocator@K@std@@@std@@QAEXABK@Z
_TEXT	SEGMENT PARA USE32 PUBLIC 'CODE'
_TEXT	ENDS
;	COMDAT ?capacity@?$vector@PAVCSkinButton2@@V?$allocator@PAVCSkinButton2@@@std@@@std@@QBEIXZ
_TEXT	SEGMENT PARA USE32 PUBLIC 'CODE'
_TEXT	ENDS
;	COMDAT ?insert@?$vector@PAVCSkinButton2@@V?$allocator@PAVCSkinButton2@@@std@@@std@@QAE?AViterator@12@V312@ABQAVCSkinButton2@@@Z
_TEXT	SEGMENT PARA USE32 PUBLIC 'CODE'
_TEXT	ENDS
;	COMDAT ?_Buy@?$vector@PAVCSkinButton2@@V?$allocator@PAVCSkinButton2@@@std@@@std@@IAE_NI@Z
_TEXT	SEGMENT PARA USE32 PUBLIC 'CODE'
_TEXT	ENDS
;	COMDAT ?_Tidy@?$vector@PAVCSkinButton2@@V?$allocator@PAVCSkinButton2@@@std@@@std@@IAEXXZ
_TEXT	SEGMENT PARA USE32 PUBLIC 'CODE'
_TEXT	ENDS
;	COMDAT ?_Ufill@?$vector@PAVCSkinButton2@@V?$allocator@PAVCSkinButton2@@@std@@@std@@IAEPAPAVCSkinButton2@@PAPAV3@IABQAV3@@Z
_TEXT	SEGMENT PARA USE32 PUBLIC 'CODE'
_TEXT	ENDS
;	COMDAT ??0?$_Vector_val@PAVCSkinButton2@@V?$allocator@PAVCSkinButton2@@@std@@@std@@IAE@V?$allocator@PAVCSkinButton2@@@1@@Z
_TEXT	SEGMENT PARA USE32 PUBLIC 'CODE'
_TEXT	ENDS
;	COMDAT ??0?$allocator@PAVCSkinButton2@@@std@@QAE@XZ
_TEXT	SEGMENT PARA USE32 PUBLIC 'CODE'
_TEXT	ENDS
;	COMDAT ??0iterator@?$vector@PAVCSkinButton2@@V?$allocator@PAVCSkinButton2@@@std@@@std@@QAE@PAPAVCSkinButton2@@@Z
_TEXT	SEGMENT PARA USE32 PUBLIC 'CODE'
_TEXT	ENDS
;	COMDAT ??Eiterator@?$vector@PAVCSkinButton2@@V?$allocator@PAVCSkinButton2@@@std@@@std@@QAEAAV012@XZ
_TEXT	SEGMENT PARA USE32 PUBLIC 'CODE'
_TEXT	ENDS
;	COMDAT ??Hiterator@?$vector@PAVCSkinButton2@@V?$allocator@PAVCSkinButton2@@@std@@@std@@QBE?AV012@H@Z
_TEXT	SEGMENT PARA USE32 PUBLIC 'CODE'
_TEXT	ENDS
;	COMDAT ??Dconst_iterator@?$vector@PAVCSkinButton2@@V?$allocator@PAVCSkinButton2@@@std@@@std@@QBEABQAVCSkinButton2@@XZ
_TEXT	SEGMENT PARA USE32 PUBLIC 'CODE'
_TEXT	ENDS
;	COMDAT ??8const_iterator@?$vector@PAVCSkinButton2@@V?$allocator@PAVCSkinButton2@@@std@@@std@@QBE_NABV012@@Z
_TEXT	SEGMENT PARA USE32 PUBLIC 'CODE'
_TEXT	ENDS
;	COMDAT ?capacity@?$vector@KV?$allocator@K@std@@@std@@QBEIXZ
_TEXT	SEGMENT PARA USE32 PUBLIC 'CODE'
_TEXT	ENDS
;	COMDAT ?begin@?$vector@KV?$allocator@K@std@@@std@@QAE?AViterator@12@XZ
_TEXT	SEGMENT PARA USE32 PUBLIC 'CODE'
_TEXT	ENDS
;	COMDAT ?end@?$vector@KV?$allocator@K@std@@@std@@QAE?AViterator@12@XZ
_TEXT	SEGMENT PARA USE32 PUBLIC 'CODE'
_TEXT	ENDS
;	COMDAT ?size@?$vector@KV?$allocator@K@std@@@std@@QBEIXZ
_TEXT	SEGMENT PARA USE32 PUBLIC 'CODE'
_TEXT	ENDS
;	COMDAT ?insert@?$vector@KV?$allocator@K@std@@@std@@QAE?AViterator@12@V312@ABK@Z
_TEXT	SEGMENT PARA USE32 PUBLIC 'CODE'
_TEXT	ENDS
;	COMDAT ?_Buy@?$vector@KV?$allocator@K@std@@@std@@IAE_NI@Z
_TEXT	SEGMENT PARA USE32 PUBLIC 'CODE'
_TEXT	ENDS
;	COMDAT ?_Tidy@?$vector@KV?$allocator@K@std@@@std@@IAEXXZ
_TEXT	SEGMENT PARA USE32 PUBLIC 'CODE'
_TEXT	ENDS
;	COMDAT ?_Ufill@?$vector@KV?$allocator@K@std@@@std@@IAEPAKPAKIABK@Z
_TEXT	SEGMENT PARA USE32 PUBLIC 'CODE'
_TEXT	ENDS
;	COMDAT ??0?$_Vector_val@KV?$allocator@K@std@@@std@@IAE@V?$allocator@K@1@@Z
_TEXT	SEGMENT PARA USE32 PUBLIC 'CODE'
_TEXT	ENDS
;	COMDAT ??0?$allocator@K@std@@QAE@XZ
_TEXT	SEGMENT PARA USE32 PUBLIC 'CODE'
_TEXT	ENDS
;	COMDAT ??Diterator@?$vector@KV?$allocator@K@std@@@std@@QBEAAKXZ
_TEXT	SEGMENT PARA USE32 PUBLIC 'CODE'
_TEXT	ENDS
;	COMDAT ??Hiterator@?$vector@KV?$allocator@K@std@@@std@@QBE?AV012@H@Z
_TEXT	SEGMENT PARA USE32 PUBLIC 'CODE'
_TEXT	ENDS
;	COMDAT ?max_size@?$vector@PAVCSkinButton2@@V?$allocator@PAVCSkinButton2@@@std@@@std@@QBEIXZ
_TEXT	SEGMENT PARA USE32 PUBLIC 'CODE'
_TEXT	ENDS
;	COMDAT ?_Destroy@?$vector@PAVCSkinButton2@@V?$allocator@PAVCSkinButton2@@@std@@@std@@IAEXPAPAVCSkinButton2@@0@Z
_TEXT	SEGMENT PARA USE32 PUBLIC 'CODE'
_TEXT	ENDS
;	COMDAT ?_Insert_n@?$vector@PAVCSkinButton2@@V?$allocator@PAVCSkinButton2@@@std@@@std@@IAEXViterator@12@IABQAVCSkinButton2@@@Z
_TEXT	SEGMENT PARA USE32 PUBLIC 'CODE'
_TEXT	ENDS
;	COMDAT ?_Xlen@?$vector@PAVCSkinButton2@@V?$allocator@PAVCSkinButton2@@@std@@@std@@IBEXXZ
_TEXT	SEGMENT PARA USE32 PUBLIC 'CODE'
_TEXT	ENDS
;	COMDAT ??0?$allocator@PAVCSkinButton2@@@std@@QAE@ABV01@@Z
_TEXT	SEGMENT PARA USE32 PUBLIC 'CODE'
_TEXT	ENDS
;	COMDAT ?deallocate@?$allocator@PAVCSkinButton2@@@std@@QAEXPAPAVCSkinButton2@@I@Z
_TEXT	SEGMENT PARA USE32 PUBLIC 'CODE'
_TEXT	ENDS
;	COMDAT ?allocate@?$allocator@PAVCSkinButton2@@@std@@QAEPAPAVCSkinButton2@@I@Z
_TEXT	SEGMENT PARA USE32 PUBLIC 'CODE'
_TEXT	ENDS
;	COMDAT ??Yiterator@?$vector@PAVCSkinButton2@@V?$allocator@PAVCSkinButton2@@@std@@@std@@QAEAAV012@H@Z
_TEXT	SEGMENT PARA USE32 PUBLIC 'CODE'
_TEXT	ENDS
;	COMDAT ??Giterator@?$vector@PAVCSkinButton2@@V?$allocator@PAVCSkinButton2@@@std@@@std@@QBEHABVconst_iterator@12@@Z
_TEXT	SEGMENT PARA USE32 PUBLIC 'CODE'
_TEXT	ENDS
;	COMDAT ??0const_iterator@?$vector@PAVCSkinButton2@@V?$allocator@PAVCSkinButton2@@@std@@@std@@QAE@PAPAVCSkinButton2@@@Z
_TEXT	SEGMENT PARA USE32 PUBLIC 'CODE'
_TEXT	ENDS
;	COMDAT ?max_size@?$vector@KV?$allocator@K@std@@@std@@QBEIXZ
_TEXT	SEGMENT PARA USE32 PUBLIC 'CODE'
_TEXT	ENDS
;	COMDAT ?_Destroy@?$vector@KV?$allocator@K@std@@@std@@IAEXPAK0@Z
_TEXT	SEGMENT PARA USE32 PUBLIC 'CODE'
_TEXT	ENDS
;	COMDAT ?_Insert_n@?$vector@KV?$allocator@K@std@@@std@@IAEXViterator@12@IABK@Z
_TEXT	SEGMENT PARA USE32 PUBLIC 'CODE'
_TEXT	ENDS
;	COMDAT ?_Xlen@?$vector@KV?$allocator@K@std@@@std@@IBEXXZ
_TEXT	SEGMENT PARA USE32 PUBLIC 'CODE'
_TEXT	ENDS
;	COMDAT ??0?$allocator@K@std@@QAE@ABV01@@Z
_TEXT	SEGMENT PARA USE32 PUBLIC 'CODE'
_TEXT	ENDS
;	COMDAT ?deallocate@?$allocator@K@std@@QAEXPAKI@Z
_TEXT	SEGMENT PARA USE32 PUBLIC 'CODE'
_TEXT	ENDS
;	COMDAT ?allocate@?$allocator@K@std@@QAEPAKI@Z
_TEXT	SEGMENT PARA USE32 PUBLIC 'CODE'
_TEXT	ENDS
;	COMDAT ??0iterator@?$vector@KV?$allocator@K@std@@@std@@QAE@PAK@Z
_TEXT	SEGMENT PARA USE32 PUBLIC 'CODE'
_TEXT	ENDS
;	COMDAT ??Yiterator@?$vector@KV?$allocator@K@std@@@std@@QAEAAV012@H@Z
_TEXT	SEGMENT PARA USE32 PUBLIC 'CODE'
_TEXT	ENDS
;	COMDAT ??Giterator@?$vector@KV?$allocator@K@std@@@std@@QBEHABVconst_iterator@12@@Z
_TEXT	SEGMENT PARA USE32 PUBLIC 'CODE'
_TEXT	ENDS
;	COMDAT ??Dconst_iterator@?$vector@KV?$allocator@K@std@@@std@@QBEABKXZ
_TEXT	SEGMENT PARA USE32 PUBLIC 'CODE'
_TEXT	ENDS
;	COMDAT ??0length_error@std@@QAE@ABV01@@Z
_TEXT	SEGMENT PARA USE32 PUBLIC 'CODE'
_TEXT	ENDS
;	COMDAT ?max_size@?$allocator@PAVCSkinButton2@@@std@@QBEIXZ
_TEXT	SEGMENT PARA USE32 PUBLIC 'CODE'
_TEXT	ENDS
;	COMDAT ??Gconst_iterator@?$vector@PAVCSkinButton2@@V?$allocator@PAVCSkinButton2@@@std@@@std@@QBEHABV012@@Z
_TEXT	SEGMENT PARA USE32 PUBLIC 'CODE'
_TEXT	ENDS
;	COMDAT ?max_size@?$allocator@K@std@@QBEIXZ
_TEXT	SEGMENT PARA USE32 PUBLIC 'CODE'
_TEXT	ENDS
;	COMDAT ??0const_iterator@?$vector@KV?$allocator@K@std@@@std@@QAE@PAK@Z
_TEXT	SEGMENT PARA USE32 PUBLIC 'CODE'
_TEXT	ENDS
;	COMDAT ??Gconst_iterator@?$vector@KV?$allocator@K@std@@@std@@QBEHABV012@@Z
_TEXT	SEGMENT PARA USE32 PUBLIC 'CODE'
_TEXT	ENDS
;	COMDAT ?Unlock@?$CComCritSecLock@VCComCriticalSection@ATL@@@ATL@@QAEXXZ
_TEXT	SEGMENT PARA USE32 PUBLIC 'CODE'
_TEXT	ENDS
;	COMDAT ??$_Uninitialized_fill_n@PAPAVCSkinButton2@@IPAV1@V?$allocator@PAVCSkinButton2@@@std@@@std@@YAXPAPAVCSkinButton2@@IABQAV1@AAV?$allocator@PAVCSkinButton2@@@0@@Z
_TEXT	SEGMENT PARA USE32 PUBLIC 'CODE'
_TEXT	ENDS
;	COMDAT ??$_Uninitialized_fill_n@PAKIKV?$allocator@K@std@@@std@@YAXPAKIABKAAV?$allocator@K@0@@Z
_TEXT	SEGMENT PARA USE32 PUBLIC 'CODE'
_TEXT	ENDS
;	COMDAT ??$_Maklocstr@D@std@@YAPADPBDPADABU_Cvtvec@@@Z
_TEXT	SEGMENT PARA USE32 PUBLIC 'CODE'
_TEXT	ENDS
;	COMDAT ??$_Destroy_range@PAVCSkinButton2@@V?$allocator@PAVCSkinButton2@@@std@@@std@@YAXPAPAVCSkinButton2@@0AAV?$allocator@PAVCSkinButton2@@@0@@Z
_TEXT	SEGMENT PARA USE32 PUBLIC 'CODE'
_TEXT	ENDS
;	COMDAT ??$_Ucopy@PAPAVCSkinButton2@@@?$vector@PAVCSkinButton2@@V?$allocator@PAVCSkinButton2@@@std@@@std@@IAEPAPAVCSkinButton2@@PAPAV2@00@Z
_TEXT	SEGMENT PARA USE32 PUBLIC 'CODE'
_TEXT	ENDS
;	COMDAT ??$fill@PAPAVCSkinButton2@@PAV1@@std@@YAXPAPAVCSkinButton2@@0ABQAV1@@Z
_TEXT	SEGMENT PARA USE32 PUBLIC 'CODE'
_TEXT	ENDS
;	COMDAT ??$copy_backward@PAPAVCSkinButton2@@PAPAV1@@std@@YAPAPAVCSkinButton2@@PAPAV1@00@Z
_TEXT	SEGMENT PARA USE32 PUBLIC 'CODE'
_TEXT	ENDS
;	COMDAT ??$_Allocate@PAVCSkinButton2@@@std@@YAPAPAVCSkinButton2@@IPAPAV1@@Z
_TEXT	SEGMENT PARA USE32 PUBLIC 'CODE'
_TEXT	ENDS
;	COMDAT ??$_Destroy_range@KV?$allocator@K@std@@@std@@YAXPAK0AAV?$allocator@K@0@@Z
_TEXT	SEGMENT PARA USE32 PUBLIC 'CODE'
_TEXT	ENDS
;	COMDAT ??$_Ucopy@PAK@?$vector@KV?$allocator@K@std@@@std@@IAEPAKPAK00@Z
_TEXT	SEGMENT PARA USE32 PUBLIC 'CODE'
_TEXT	ENDS
;	COMDAT ??$fill@PAKK@std@@YAXPAK0ABK@Z
_TEXT	SEGMENT PARA USE32 PUBLIC 'CODE'
_TEXT	ENDS
;	COMDAT ??$copy_backward@PAKPAK@std@@YAPAKPAK00@Z
_TEXT	SEGMENT PARA USE32 PUBLIC 'CODE'
_TEXT	ENDS
;	COMDAT ??$_Allocate@K@std@@YAPAKIPAK@Z
_TEXT	SEGMENT PARA USE32 PUBLIC 'CODE'
_TEXT	ENDS
;	COMDAT ??$_Ptr_cat@VCSkinButton2@@@std@@YA?AU_Scalar_ptr_iterator_tag@0@PAPAVCSkinButton2@@0@Z
_TEXT	SEGMENT PARA USE32 PUBLIC 'CODE'
_TEXT	ENDS
;	COMDAT ??$_Uninit_fill_n@PAVCSkinButton2@@IPAV1@@std@@YAXPAPAVCSkinButton2@@IABQAV1@AAV?$allocator@PAVCSkinButton2@@@0@U_Scalar_ptr_iterator_tag@0@@Z
_TEXT	SEGMENT PARA USE32 PUBLIC 'CODE'
_TEXT	ENDS
;	COMDAT ??$_Uninit_fill_n@KIK@std@@YAXPAKIABKAAV?$allocator@K@0@U_Scalar_ptr_iterator_tag@0@@Z
_TEXT	SEGMENT PARA USE32 PUBLIC 'CODE'
_TEXT	ENDS
;	COMDAT ??$_Destroy_range@PAVCSkinButton2@@V?$allocator@PAVCSkinButton2@@@std@@@std@@YAXPAPAVCSkinButton2@@0AAV?$allocator@PAVCSkinButton2@@@0@U_Scalar_ptr_iterator_tag@0@@Z
_TEXT	SEGMENT PARA USE32 PUBLIC 'CODE'
_TEXT	ENDS
;	COMDAT ??$_Uninitialized_copy@PAPAVCSkinButton2@@PAPAV1@V?$allocator@PAVCSkinButton2@@@std@@@std@@YAPAPAVCSkinButton2@@PAPAV1@00AAV?$allocator@PAVCSkinButton2@@@0@@Z
_TEXT	SEGMENT PARA USE32 PUBLIC 'CODE'
_TEXT	ENDS
;	COMDAT ??$_Copy_backward_opt@PAPAVCSkinButton2@@PAPAV1@@std@@YAPAPAVCSkinButton2@@PAPAV1@00U_Scalar_ptr_iterator_tag@0@@Z
_TEXT	SEGMENT PARA USE32 PUBLIC 'CODE'
_TEXT	ENDS
;	COMDAT ??$_Destroy_range@KV?$allocator@K@std@@@std@@YAXPAK0AAV?$allocator@K@0@U_Scalar_ptr_iterator_tag@0@@Z
_TEXT	SEGMENT PARA USE32 PUBLIC 'CODE'
_TEXT	ENDS
;	COMDAT ??$_Uninitialized_copy@PAKPAKV?$allocator@K@std@@@std@@YAPAKPAK00AAV?$allocator@K@0@@Z
_TEXT	SEGMENT PARA USE32 PUBLIC 'CODE'
_TEXT	ENDS
;	COMDAT ??$_Copy_backward_opt@PAKPAK@std@@YAPAKPAK00U_Scalar_ptr_iterator_tag@0@@Z
_TEXT	SEGMENT PARA USE32 PUBLIC 'CODE'
_TEXT	ENDS
;	COMDAT ??$fill_n@PAPAVCSkinButton2@@IPAV1@@std@@YAXPAPAVCSkinButton2@@IABQAV1@@Z
_TEXT	SEGMENT PARA USE32 PUBLIC 'CODE'
_TEXT	ENDS
;	COMDAT ??$fill_n@PAKIK@std@@YAXPAKIABK@Z
_TEXT	SEGMENT PARA USE32 PUBLIC 'CODE'
_TEXT	ENDS
;	COMDAT ??$_Uninit_copy@PAVCSkinButton2@@PAV1@@std@@YAPAPAVCSkinButton2@@PAPAV1@00AAV?$allocator@PAVCSkinButton2@@@0@U_Scalar_ptr_iterator_tag@0@@Z
_TEXT	SEGMENT PARA USE32 PUBLIC 'CODE'
_TEXT	ENDS
;	COMDAT ??$_Uninit_copy@KK@std@@YAPAKPAK00AAV?$allocator@K@0@U_Scalar_ptr_iterator_tag@0@@Z
_TEXT	SEGMENT PARA USE32 PUBLIC 'CODE'
_TEXT	ENDS
;	COMDAT ??_R3DIBINFO@@8
rdata$r	SEGMENT DWORD USE32 PUBLIC 'CONST'
rdata$r	ENDS
;	COMDAT ??_R3IData@@8
rdata$r	SEGMENT DWORD USE32 PUBLIC 'CONST'
rdata$r	ENDS
;	COMDAT ??_R3CGdiPlusBitmap@@8
rdata$r	SEGMENT DWORD USE32 PUBLIC 'CONST'
rdata$r	ENDS
;	COMDAT ??_R3CGdiPlusBitmap@CSkinButton@@8
rdata$r	SEGMENT DWORD USE32 PUBLIC 'CONST'
rdata$r	ENDS
;	COMDAT ??_R3P2PObserver@@8
rdata$r	SEGMENT DWORD USE32 PUBLIC 'CONST'
rdata$r	ENDS
;	COMDAT ??_R3HTTPObserver@@8
rdata$r	SEGMENT DWORD USE32 PUBLIC 'CONST'
rdata$r	ENDS
;	COMDAT ??_R3CMainSkinWnd@@8
rdata$r	SEGMENT DWORD USE32 PUBLIC 'CONST'
rdata$r	ENDS
;	COMDAT ??_R3?$numpunct@_W@std@@8
rdata$r	SEGMENT DWORD USE32 PUBLIC 'CONST'
rdata$r	ENDS
;	COMDAT ??_R3?$numpunct@D@std@@8
rdata$r	SEGMENT DWORD USE32 PUBLIC 'CONST'
rdata$r	ENDS
;	COMDAT ??_R2DIBINFO@@8
rdata$r	SEGMENT DWORD USE32 PUBLIC 'CONST'
rdata$r	ENDS
;	COMDAT ??_R2IData@@8
rdata$r	SEGMENT DWORD USE32 PUBLIC 'CONST'
rdata$r	ENDS
;	COMDAT ??_R2CGdiPlusBitmap@@8
rdata$r	SEGMENT DWORD USE32 PUBLIC 'CONST'
rdata$r	ENDS
;	COMDAT ??_R2CGdiPlusBitmap@CSkinButton@@8
rdata$r	SEGMENT DWORD USE32 PUBLIC 'CONST'
rdata$r	ENDS
;	COMDAT ??_R2P2PObserver@@8
rdata$r	SEGMENT DWORD USE32 PUBLIC 'CONST'
rdata$r	ENDS
;	COMDAT ??_R2HTTPObserver@@8
rdata$r	SEGMENT DWORD USE32 PUBLIC 'CONST'
rdata$r	ENDS
;	COMDAT ??_R2CMainSkinWnd@@8
rdata$r	SEGMENT DWORD USE32 PUBLIC 'CONST'
rdata$r	ENDS
;	COMDAT ??_R2?$numpunct@_W@std@@8
rdata$r	SEGMENT DWORD USE32 PUBLIC 'CONST'
rdata$r	ENDS
;	COMDAT ??_R2?$numpunct@D@std@@8
rdata$r	SEGMENT DWORD USE32 PUBLIC 'CONST'
rdata$r	ENDS
;	COMDAT ??_R1A@?0A@A@DIBINFO@@8
rdata$r	SEGMENT DWORD USE32 PUBLIC 'CONST'
rdata$r	ENDS
;	COMDAT ??_R1A@?0A@A@IData@@8
rdata$r	SEGMENT DWORD USE32 PUBLIC 'CONST'
rdata$r	ENDS
;	COMDAT ??_R1A@?0A@A@CGdiPlusBitmap@@8
rdata$r	SEGMENT DWORD USE32 PUBLIC 'CONST'
rdata$r	ENDS
;	COMDAT ??_R1A@?0A@A@CGdiPlusBitmap@CSkinButton@@8
rdata$r	SEGMENT DWORD USE32 PUBLIC 'CONST'
rdata$r	ENDS
;	COMDAT ??_R1A@?0A@A@P2PObserver@@8
rdata$r	SEGMENT DWORD USE32 PUBLIC 'CONST'
rdata$r	ENDS
;	COMDAT ??_R1A@?0A@A@HTTPObserver@@8
rdata$r	SEGMENT DWORD USE32 PUBLIC 'CONST'
rdata$r	ENDS
;	COMDAT ??_R1A@?0A@A@CObject@@8
rdata$r	SEGMENT DWORD USE32 PUBLIC 'CONST'
rdata$r	ENDS
;	COMDAT ??_R0?AVCObject@@@8
_DATA	SEGMENT DWORD USE32 PUBLIC 'DATA'
_DATA	ENDS
;	COMDAT ??_R1A@?0A@A@CCmdTarget@@8
rdata$r	SEGMENT DWORD USE32 PUBLIC 'CONST'
rdata$r	ENDS
;	COMDAT ??_R0?AVCCmdTarget@@@8
_DATA	SEGMENT DWORD USE32 PUBLIC 'DATA'
_DATA	ENDS
;	COMDAT ??_R1A@?0A@A@CWnd@@8
rdata$r	SEGMENT DWORD USE32 PUBLIC 'CONST'
rdata$r	ENDS
;	COMDAT ??_R0?AVCWnd@@@8
_DATA	SEGMENT DWORD USE32 PUBLIC 'DATA'
_DATA	ENDS
;	COMDAT ??_R1A@?0A@A@CFrameWnd@@8
rdata$r	SEGMENT DWORD USE32 PUBLIC 'CONST'
rdata$r	ENDS
;	COMDAT ??_R1A@?0A@A@CMainSkinWnd@@8
rdata$r	SEGMENT DWORD USE32 PUBLIC 'CONST'
rdata$r	ENDS
;	COMDAT ??_R1A@?0A@A@?$numpunct@_W@std@@8
rdata$r	SEGMENT DWORD USE32 PUBLIC 'CONST'
rdata$r	ENDS
;	COMDAT ??_R1A@?0A@A@facet@locale@std@@8
rdata$r	SEGMENT DWORD USE32 PUBLIC 'CONST'
rdata$r	ENDS
;	COMDAT ??_R0?AVfacet@locale@std@@@8
_DATA	SEGMENT DWORD USE32 PUBLIC 'DATA'
_DATA	ENDS
;	COMDAT ??_R1A@?0A@A@?$numpunct@D@std@@8
rdata$r	SEGMENT DWORD USE32 PUBLIC 'CONST'
rdata$r	ENDS
;	COMDAT ??_R0?AVDIBINFO@@@8
_DATA	SEGMENT DWORD USE32 PUBLIC 'DATA'
_DATA	ENDS
;	COMDAT ??_R0?AVIData@@@8
_DATA	SEGMENT DWORD USE32 PUBLIC 'DATA'
_DATA	ENDS
;	COMDAT ??_R0?AVCGdiPlusBitmap@@@8
_DATA	SEGMENT DWORD USE32 PUBLIC 'DATA'
_DATA	ENDS
;	COMDAT ??_R0?AVCGdiPlusBitmap@CSkinButton@@@8
_DATA	SEGMENT DWORD USE32 PUBLIC 'DATA'
_DATA	ENDS
;	COMDAT ??_R0?AVP2PObserver@@@8
_DATA	SEGMENT DWORD USE32 PUBLIC 'DATA'
_DATA	ENDS
;	COMDAT ??_R0?AVHTTPObserver@@@8
_DATA	SEGMENT DWORD USE32 PUBLIC 'DATA'
_DATA	ENDS
;	COMDAT ??_R0?AVCFrameWnd@@@8
_DATA	SEGMENT DWORD USE32 PUBLIC 'DATA'
_DATA	ENDS
;	COMDAT ??_R0?AVCMainSkinWnd@@@8
_DATA	SEGMENT DWORD USE32 PUBLIC 'DATA'
_DATA	ENDS
;	COMDAT ??_R0?AV?$numpunct@_W@std@@@8
_DATA	SEGMENT DWORD USE32 PUBLIC 'DATA'
_DATA	ENDS
;	COMDAT ??_R0?AV?$numpunct@D@std@@@8
_DATA	SEGMENT DWORD USE32 PUBLIC 'DATA'
_DATA	ENDS
;	COMDAT ??_R4DIBINFO@@6B@
rdata$r	SEGMENT DWORD USE32 PUBLIC 'CONST'
rdata$r	ENDS
;	COMDAT ??_R4IData@@6B@
rdata$r	SEGMENT DWORD USE32 PUBLIC 'CONST'
rdata$r	ENDS
;	COMDAT ??_R4CGdiPlusBitmap@@6B@
rdata$r	SEGMENT DWORD USE32 PUBLIC 'CONST'
rdata$r	ENDS
;	COMDAT ??_R4CGdiPlusBitmap@CSkinButton@@6B@
rdata$r	SEGMENT DWORD USE32 PUBLIC 'CONST'
rdata$r	ENDS
;	COMDAT ??_R4P2PObserver@@6B@
rdata$r	SEGMENT DWORD USE32 PUBLIC 'CONST'
rdata$r	ENDS
;	COMDAT ??_R4HTTPObserver@@6B@
rdata$r	SEGMENT DWORD USE32 PUBLIC 'CONST'
rdata$r	ENDS
;	COMDAT ?DoDataExchange@CWnd@@MAEXPAVCDataExchange@@@Z
_TEXT	SEGMENT PARA USE32 PUBLIC 'CODE'
_TEXT	ENDS
;	COMDAT ?Dump@CObject@@UBEXAAVCDumpContext@@@Z
_TEXT	SEGMENT PARA USE32 PUBLIC 'CODE'
_TEXT	ENDS
;	COMDAT ?AssertValid@CObject@@UBEXXZ
_TEXT	SEGMENT PARA USE32 PUBLIC 'CODE'
_TEXT	ENDS
;	COMDAT ?Serialize@CObject@@UAEXAAVCArchive@@@Z
_TEXT	SEGMENT PARA USE32 PUBLIC 'CODE'
_TEXT	ENDS
;	COMDAT ??_R4CMainSkinWnd@@6B@
rdata$r	SEGMENT DWORD USE32 PUBLIC 'CONST'
rdata$r	ENDS
;	COMDAT ??0?$allocator@_W@std@@QAE@XZ
_TEXT	SEGMENT PARA USE32 PUBLIC 'CODE'
_TEXT	ENDS
;	COMDAT ??_G?$numpunct@_W@std@@MAEPAXI@Z
_TEXT	SEGMENT PARA USE32 PUBLIC 'CODE'
_TEXT	ENDS
;	COMDAT ??_R4?$numpunct@_W@std@@6B@
rdata$r	SEGMENT DWORD USE32 PUBLIC 'CONST'
rdata$r	ENDS
;	COMDAT ??_G?$numpunct@D@std@@MAEPAXI@Z
_TEXT	SEGMENT PARA USE32 PUBLIC 'CODE'
_TEXT	ENDS
;	COMDAT ??_R4?$numpunct@D@std@@6B@
rdata$r	SEGMENT DWORD USE32 PUBLIC 'CONST'
rdata$r	ENDS
;	COMDAT ?_Ptr_cat@std@@YA?AU_Scalar_ptr_iterator_tag@1@PAK0@Z
_TEXT	SEGMENT PARA USE32 PUBLIC 'CODE'
_TEXT	ENDS
;	COMDAT ?_Psave@?$_Facetptr@V?$numpunct@_W@std@@@std@@2PBVfacet@locale@2@B
_DATA	SEGMENT DWORD USE32 PUBLIC 'DATA'
_DATA	ENDS
;	COMDAT ?_Psave@?$_Facetptr@V?$numpunct@D@std@@@std@@2PBVfacet@locale@2@B
_DATA	SEGMENT DWORD USE32 PUBLIC 'DATA'
_DATA	ENDS
;	COMDAT ?Unlock@CComCriticalSection@ATL@@QAEJXZ
_TEXT	SEGMENT PARA USE32 PUBLIC 'CODE'
_TEXT	ENDS
;	COMDAT ?_Psave@?$_Facetptr@V?$ctype@_W@std@@@std@@2PBVfacet@locale@2@B
_DATA	SEGMENT DWORD USE32 PUBLIC 'DATA'
_DATA	ENDS
;	COMDAT ?_Psave@?$_Facetptr@V?$ctype@D@std@@@std@@2PBVfacet@locale@2@B
_DATA	SEGMENT DWORD USE32 PUBLIC 'DATA'
_DATA	ENDS
;	COMDAT ??_7length_error@std@@6B@
CONST	SEGMENT DWORD USE32 PUBLIC 'CONST'
CONST	ENDS
;	COMDAT ??_R4length_error@std@@6B@
rdata$r	SEGMENT DWORD USE32 PUBLIC 'CONST'
rdata$r	ENDS
;	COMDAT ??_R3length_error@std@@8
rdata$r	SEGMENT DWORD USE32 PUBLIC 'CONST'
rdata$r	ENDS
;	COMDAT ??_R2length_error@std@@8
rdata$r	SEGMENT DWORD USE32 PUBLIC 'CONST'
rdata$r	ENDS
;	COMDAT ??_R1A@?0A@A@length_error@std@@8
rdata$r	SEGMENT DWORD USE32 PUBLIC 'CONST'
rdata$r	ENDS
;	COMDAT ??_R1A@?0A@A@logic_error@std@@8
rdata$r	SEGMENT DWORD USE32 PUBLIC 'CONST'
rdata$r	ENDS
;	COMDAT ??_R0?AVlogic_error@std@@@8
_DATA	SEGMENT DWORD USE32 PUBLIC 'DATA'
_DATA	ENDS
;	COMDAT ??_R1A@?0A@A@exception@@8
rdata$r	SEGMENT DWORD USE32 PUBLIC 'CONST'
rdata$r	ENDS
;	COMDAT ??_R0?AVexception@@@8
_DATA	SEGMENT DWORD USE32 PUBLIC 'DATA'
_DATA	ENDS
;	COMDAT ??_Glength_error@std@@UAEPAXI@Z
_TEXT	SEGMENT PARA USE32 PUBLIC 'CODE'
_TEXT	ENDS
;	COMDAT ?what@logic_error@std@@UBEPBDXZ
_TEXT	SEGMENT PARA USE32 PUBLIC 'CODE'
_TEXT	ENDS
;	COMDAT ??1logic_error@std@@UAE@XZ
_TEXT	SEGMENT PARA USE32 PUBLIC 'CODE'
_TEXT	ENDS
;	COMDAT ??_7logic_error@std@@6B@
CONST	SEGMENT DWORD USE32 PUBLIC 'CONST'
CONST	ENDS
;	COMDAT ??_R4logic_error@std@@6B@
rdata$r	SEGMENT DWORD USE32 PUBLIC 'CONST'
rdata$r	ENDS
;	COMDAT ??_R3logic_error@std@@8
rdata$r	SEGMENT DWORD USE32 PUBLIC 'CONST'
rdata$r	ENDS
;	COMDAT ??_R2logic_error@std@@8
rdata$r	SEGMENT DWORD USE32 PUBLIC 'CONST'
rdata$r	ENDS
;	COMDAT ??_Glogic_error@std@@UAEPAXI@Z
_TEXT	SEGMENT PARA USE32 PUBLIC 'CODE'
_TEXT	ENDS
;	COMDAT ??0logic_error@std@@QAE@ABV01@@Z
_TEXT	SEGMENT PARA USE32 PUBLIC 'CODE'
_TEXT	ENDS
;	COMDAT __CTA3?AVlength_error@std@@
xdata$x	SEGMENT DWORD USE32 PUBLIC 'CONST'
xdata$x	ENDS
;	COMDAT ??1length_error@std@@UAE@XZ
_TEXT	SEGMENT PARA USE32 PUBLIC 'CODE'
_TEXT	ENDS
;	COMDAT __CT??_R0?AVexception@@@8??0exception@@QAE@ABV0@@Z12
xdata$x	SEGMENT DWORD USE32 PUBLIC 'CONST'
xdata$x	ENDS
;	COMDAT __CT??_R0?AVlogic_error@std@@@8??0logic_error@std@@QAE@ABV01@@Z40
xdata$x	SEGMENT DWORD USE32 PUBLIC 'CONST'
xdata$x	ENDS
;	COMDAT __CT??_R0?AVlength_error@std@@@8??0length_error@std@@QAE@ABV01@@Z40
xdata$x	SEGMENT DWORD USE32 PUBLIC 'CONST'
xdata$x	ENDS
;	COMDAT ??_R0?AVlength_error@std@@@8
_DATA	SEGMENT DWORD USE32 PUBLIC 'DATA'
_DATA	ENDS
;	COMDAT __TI3?AVlength_error@std@@
xdata$x	SEGMENT DWORD USE32 PUBLIC 'CONST'
xdata$x	ENDS
;	COMDAT ??0length_error@std@@QAE@ABV?$basic_string@DU?$char_traits@D@std@@V?$allocator@D@2@@1@@Z
_TEXT	SEGMENT PARA USE32 PUBLIC 'CODE'
_TEXT	ENDS
;	COMDAT ??0logic_error@std@@QAE@ABV?$basic_string@DU?$char_traits@D@std@@V?$allocator@D@2@@1@@Z
_TEXT	SEGMENT PARA USE32 PUBLIC 'CODE'
_TEXT	ENDS
;	COMDAT ??$_Maklocchr@_W@std@@YA_WDPA_WABU_Cvtvec@@@Z
_TEXT	SEGMENT PARA USE32 PUBLIC 'CODE'
_TEXT	ENDS
;	COMDAT ??$_Maklocstr@_W@std@@YAPA_WPBDPA_WABU_Cvtvec@@@Z
_TEXT	SEGMENT PARA USE32 PUBLIC 'CODE'
_TEXT	ENDS
;	COMDAT ??$_Maklocchr@D@std@@YADDPADABU_Cvtvec@@@Z
_TEXT	SEGMENT PARA USE32 PUBLIC 'CODE'
_TEXT	ENDS
;	COMDAT ??_C@_04LOAJBDKD@true?$AA@
CONST	SEGMENT DWORD USE32 PUBLIC 'CONST'
CONST	ENDS
;	COMDAT ??_C@_05LAPONLG@false?$AA@
CONST	SEGMENT DWORD USE32 PUBLIC 'CONST'
CONST	ENDS
;	COMDAT _wmemcpy
_TEXT	SEGMENT PARA USE32 PUBLIC 'CODE'
_TEXT	ENDS
;	COMDAT ?max_size@?$allocator@_W@std@@QBEIXZ
_TEXT	SEGMENT PARA USE32 PUBLIC 'CODE'
_TEXT	ENDS
;	COMDAT ?allocate@?$allocator@_W@std@@QAEPA_WI@Z
_TEXT	SEGMENT PARA USE32 PUBLIC 'CODE'
_TEXT	ENDS
;	COMDAT ??$_Allocate@_W@std@@YAPA_WIPA_W@Z
_TEXT	SEGMENT PARA USE32 PUBLIC 'CODE'
_TEXT	ENDS
;	COMDAT ??_C@_01GFHCPBMG@C?$AA@
CONST	SEGMENT DWORD USE32 PUBLIC 'CONST'
CONST	ENDS
;	COMDAT ?max_size@?$allocator@D@std@@QBEIXZ
_TEXT	SEGMENT PARA USE32 PUBLIC 'CODE'
_TEXT	ENDS
;	COMDAT ?allocate@?$allocator@D@std@@QAEPADI@Z
_TEXT	SEGMENT PARA USE32 PUBLIC 'CODE'
_TEXT	ENDS
;	COMDAT ??$_Allocate@D@std@@YAPADIPAD@Z
_TEXT	SEGMENT PARA USE32 PUBLIC 'CODE'
_TEXT	ENDS
;	COMDAT ?deallocate@?$allocator@D@std@@QAEXPADI@Z
_TEXT	SEGMENT PARA USE32 PUBLIC 'CODE'
_TEXT	ENDS
;	COMDAT ??0?$allocator@D@std@@QAE@XZ
_TEXT	SEGMENT PARA USE32 PUBLIC 'CODE'
_TEXT	ENDS
;	COMDAT ??0?$allocator@D@std@@QAE@ABV01@@Z
_TEXT	SEGMENT PARA USE32 PUBLIC 'CODE'
_TEXT	ENDS
;	COMDAT ?Release@CStringData@ATL@@QAEXXZ
_TEXT	SEGMENT PARA USE32 PUBLIC 'CODE'
_TEXT	ENDS
;	COMDAT ?data@CStringData@ATL@@QAEPAXXZ
_TEXT	SEGMENT PARA USE32 PUBLIC 'CODE'
_TEXT	ENDS
;	COMDAT ?AtlThrow@ATL@@YGXJ@Z
_TEXT	SEGMENT PARA USE32 PUBLIC 'CODE'
_TEXT	ENDS
;	COMDAT ?IsShared@CStringData@ATL@@QBE_NXZ
_TEXT	SEGMENT PARA USE32 PUBLIC 'CODE'
_TEXT	ENDS
;	COMDAT ?_Peek@?$istreambuf_iterator@_WU?$char_traits@_W@std@@@std@@AAE_WXZ
_TEXT	SEGMENT PARA USE32 PUBLIC 'CODE'
_TEXT	ENDS
;	COMDAT ?_Peek@?$istreambuf_iterator@DU?$char_traits@D@std@@@std@@AAEDXZ
_TEXT	SEGMENT PARA USE32 PUBLIC 'CODE'
_TEXT	ENDS
;	COMDAT ??$use_facet@V?$ctype@_W@std@@@std@@YAABV?$ctype@_W@0@ABVlocale@0@@Z
_TEXT	SEGMENT PARA USE32 PUBLIC 'CODE'
_TEXT	ENDS
;	COMDAT ??_S?$ctype@_W@std@@6B@
CONST	SEGMENT DWORD USE32 PUBLIC 'CONST'
CONST	ENDS
;	COMDAT ??_R4?$ctype@_W@std@@6B@
rdata$r	SEGMENT DWORD USE32 PUBLIC 'CONST'
rdata$r	ENDS
;	COMDAT ??_R0?AV?$ctype@_W@std@@@8
_DATA	SEGMENT DWORD USE32 PUBLIC 'DATA'
_DATA	ENDS
;	COMDAT ??_R3?$ctype@_W@std@@8
rdata$r	SEGMENT DWORD USE32 PUBLIC 'CONST'
rdata$r	ENDS
;	COMDAT ??_R2?$ctype@_W@std@@8
rdata$r	SEGMENT DWORD USE32 PUBLIC 'CONST'
rdata$r	ENDS
;	COMDAT ??_R1A@?0A@A@?$ctype@_W@std@@8
rdata$r	SEGMENT DWORD USE32 PUBLIC 'CONST'
rdata$r	ENDS
;	COMDAT ??_R1A@?0A@A@ctype_base@std@@8
rdata$r	SEGMENT DWORD USE32 PUBLIC 'CONST'
rdata$r	ENDS
;	COMDAT ??_R0?AUctype_base@std@@@8
_DATA	SEGMENT DWORD USE32 PUBLIC 'DATA'
_DATA	ENDS
;	COMDAT ??_G?$ctype@_W@std@@MAEPAXI@Z
_TEXT	SEGMENT PARA USE32 PUBLIC 'CODE'
_TEXT	ENDS
;	COMDAT ??_C@_08EPJLHIJG@bad?5cast?$AA@
CONST	SEGMENT DWORD USE32 PUBLIC 'CONST'
CONST	ENDS
;	COMDAT __TI2?AVbad_cast@@
xdata$x	SEGMENT DWORD USE32 PUBLIC 'CONST'
xdata$x	ENDS
;	COMDAT __CTA2?AVbad_cast@@
xdata$x	SEGMENT DWORD USE32 PUBLIC 'CONST'
xdata$x	ENDS
;	COMDAT __CT??_R0?AVbad_cast@@@8??0bad_cast@@QAE@ABV0@@Z12
xdata$x	SEGMENT DWORD USE32 PUBLIC 'CONST'
xdata$x	ENDS
;	COMDAT ??_R0?AVbad_cast@@@8
_DATA	SEGMENT DWORD USE32 PUBLIC 'DATA'
_DATA	ENDS
;	COMDAT ??$use_facet@V?$ctype@D@std@@@std@@YAABV?$ctype@D@0@ABVlocale@0@@Z
_TEXT	SEGMENT PARA USE32 PUBLIC 'CODE'
_TEXT	ENDS
;	COMDAT ??_S?$ctype@D@std@@6B@
CONST	SEGMENT DWORD USE32 PUBLIC 'CONST'
CONST	ENDS
;	COMDAT ??_R4?$ctype@D@std@@6B@
rdata$r	SEGMENT DWORD USE32 PUBLIC 'CONST'
rdata$r	ENDS
;	COMDAT ??_R0?AV?$ctype@D@std@@@8
_DATA	SEGMENT DWORD USE32 PUBLIC 'DATA'
_DATA	ENDS
;	COMDAT ??_R3?$ctype@D@std@@8
rdata$r	SEGMENT DWORD USE32 PUBLIC 'CONST'
rdata$r	ENDS
;	COMDAT ??_R2?$ctype@D@std@@8
rdata$r	SEGMENT DWORD USE32 PUBLIC 'CONST'
rdata$r	ENDS
;	COMDAT ??_R1A@?0A@A@?$ctype@D@std@@8
rdata$r	SEGMENT DWORD USE32 PUBLIC 'CONST'
rdata$r	ENDS
;	COMDAT ??_G?$ctype@D@std@@MAEPAXI@Z
_TEXT	SEGMENT PARA USE32 PUBLIC 'CODE'
_TEXT	ENDS
;	COMDAT ??_S?$numpunct@_W@std@@6B@
CONST	SEGMENT DWORD USE32 PUBLIC 'CONST'
CONST	ENDS
;	COMDAT ??_S?$numpunct@D@std@@6B@
CONST	SEGMENT DWORD USE32 PUBLIC 'CONST'
CONST	ENDS
;	COMDAT _wmemmove
_TEXT	SEGMENT PARA USE32 PUBLIC 'CODE'
_TEXT	ENDS
;	COMDAT ?deallocate@?$allocator@_W@std@@QAEXPA_WI@Z
_TEXT	SEGMENT PARA USE32 PUBLIC 'CODE'
_TEXT	ENDS
;	COMDAT ??0?$allocator@_W@std@@QAE@ABV01@@Z
_TEXT	SEGMENT PARA USE32 PUBLIC 'CODE'
_TEXT	ENDS
;	COMDAT ?OnLButtonDown@CWnd@@IAEXIVCPoint@@@Z
_TEXT	SEGMENT PARA USE32 PUBLIC 'CODE'
_TEXT	ENDS
;	COMDAT ?PostMessageA@CWnd@@QAEHIIJ@Z
_TEXT	SEGMENT PARA USE32 PUBLIC 'CODE'
_TEXT	ENDS
;	COMDAT ??1CCommonDialog@@UAE@XZ
_TEXT	SEGMENT PARA USE32 PUBLIC 'CODE'
_TEXT	ENDS
;	COMDAT ?SetTimer@CWnd@@QAEIIIP6GXPAUHWND__@@IIK@Z@Z
_TEXT	SEGMENT PARA USE32 PUBLIC 'CODE'
_TEXT	ENDS
;	COMDAT ?SetCheck@CButton@@QAEXH@Z
_TEXT	SEGMENT PARA USE32 PUBLIC 'CODE'
_TEXT	ENDS
;	COMDAT ?GetClientRect@CWnd@@QBEXPAUtagRECT@@@Z
_TEXT	SEGMENT PARA USE32 PUBLIC 'CODE'
_TEXT	ENDS
;	COMDAT ?SetLayeredWindowAttributes@CWnd@@QAEHKEK@Z
_TEXT	SEGMENT PARA USE32 PUBLIC 'CODE'
_TEXT	ENDS
;	COMDAT ?MoveWindow@CWnd@@QAEXPBUtagRECT@@H@Z
_TEXT	SEGMENT PARA USE32 PUBLIC 'CODE'
_TEXT	ENDS
;	COMDAT ?SetRect@CRect@@QAEXHHHH@Z
_TEXT	SEGMENT PARA USE32 PUBLIC 'CODE'
_TEXT	ENDS
;	COMDAT ?GetWindowRect@CWnd@@QBEXPAUtagRECT@@@Z
_TEXT	SEGMENT PARA USE32 PUBLIC 'CODE'
_TEXT	ENDS
;	COMDAT ??0CRect@@QAE@XZ
_TEXT	SEGMENT PARA USE32 PUBLIC 'CODE'
_TEXT	ENDS
;	COMDAT ?_messageEntries@CMainSkinWnd@@0QBUAFX_MSGMAP_ENTRY@@B
CONST	SEGMENT DWORD USE32 PUBLIC 'CONST'
CONST	ENDS
;	COMDAT ?messageMap@CMainSkinWnd@@1UAFX_MSGMAP@@B
CONST	SEGMENT DWORD USE32 PUBLIC 'CONST'
CONST	ENDS
;	COMDAT ??0CRect@@QAE@HHHH@Z
_TEXT	SEGMENT PARA USE32 PUBLIC 'CODE'
_TEXT	ENDS
;	COMDAT ?GetDefaultManager@?$StrTraitMFC_DLL@DV?$ChTraitsCRT@D@ATL@@@@SAPAUIAtlStringMgr@ATL@@XZ
_TEXT	SEGMENT PARA USE32 PUBLIC 'CODE'
_TEXT	ENDS
;	COMDAT ??_7CMainSkinWnd@@6B@
CONST	SEGMENT DWORD USE32 PUBLIC 'CONST'
CONST	ENDS
;	COMDAT ?classCMainSkinWnd@CMainSkinWnd@@2UCRuntimeClass@@B
CONST	SEGMENT DWORD USE32 PUBLIC 'CONST'
CONST	ENDS
;	COMDAT ??3CObject@@SGXPAX@Z
_TEXT	SEGMENT PARA USE32 PUBLIC 'CODE'
_TEXT	ENDS
;	COMDAT ??2CObject@@SGPAXI@Z
_TEXT	SEGMENT PARA USE32 PUBLIC 'CODE'
_TEXT	ENDS
;	COMDAT ?clsid@?1??GetClsid@CShockwaveFlash@@QAEABU_GUID@@XZ@4U3@B
CONST	SEGMENT DWORD USE32 PUBLIC 'CONST'
CONST	ENDS
;	COMDAT ??_7P2PObserver@@6B@
CONST	SEGMENT DWORD USE32 PUBLIC 'CONST'
CONST	ENDS
;	COMDAT ??_7HTTPObserver@@6B@
CONST	SEGMENT DWORD USE32 PUBLIC 'CONST'
CONST	ENDS
;	COMDAT ?FindStringResourceInstance@?$StrTraitMFC_DLL@DV?$ChTraitsCRT@D@ATL@@@@SAPAUHINSTANCE__@@I@Z
_TEXT	SEGMENT PARA USE32 PUBLIC 'CODE'
_TEXT	ENDS
;	COMDAT ?AtlGetStringResourceImage@ATL@@YAPBUATLSTRINGRESOURCEIMAGE@1@PAUHINSTANCE__@@I@Z
_TEXT	SEGMENT PARA USE32 PUBLIC 'CODE'
_TEXT	ENDS
;	COMDAT ?_AtlGetStringResourceImage@ATL@@YAPBUATLSTRINGRESOURCEIMAGE@1@PAUHINSTANCE__@@PAUHRSRC__@@I@Z
_TEXT	SEGMENT PARA USE32 PUBLIC 'CODE'
_TEXT	ENDS
;	COMDAT ?GetBaseTypeLength@?$ChTraitsCRT@D@ATL@@SAHPB_WH@Z
_TEXT	SEGMENT PARA USE32 PUBLIC 'CODE'
_TEXT	ENDS
;	COMDAT ?_AtlGetConversionACP@ATL@@YGIXZ
_TEXT	SEGMENT PARA USE32 PUBLIC 'CODE'
_TEXT	ENDS
;	COMDAT ?g_pfnGetThreadACP@ATL@@3P6GIXZA
_DATA	SEGMENT DWORD USE32 PUBLIC 'DATA'
_DATA	ENDS
;	COMDAT ?_AtlGetThreadACPThunk@ATL@@YGIXZ
_TEXT	SEGMENT PARA USE32 PUBLIC 'CODE'
_TEXT	ENDS
;	COMDAT ?_AtlGetThreadACPReal@ATL@@YGIXZ
_TEXT	SEGMENT PARA USE32 PUBLIC 'CODE'
_TEXT	ENDS
;	COMDAT ?_AtlGetThreadACPFake@ATL@@YGIXZ
_TEXT	SEGMENT PARA USE32 PUBLIC 'CODE'
_TEXT	ENDS
;	COMDAT ?InterlockedExchangePointer@@YGPAXPAPAXPAX@Z
_TEXT	SEGMENT PARA USE32 PUBLIC 'CODE'
_TEXT	ENDS
;	COMDAT ?ConvertToBaseType@?$ChTraitsCRT@D@ATL@@SAXPADHPB_WH@Z
_TEXT	SEGMENT PARA USE32 PUBLIC 'CODE'
_TEXT	ENDS
;	COMDAT ?IsLocked@CStringData@ATL@@QBE_NXZ
_TEXT	SEGMENT PARA USE32 PUBLIC 'CODE'
_TEXT	ENDS
;	COMDAT ?AddRef@CStringData@ATL@@QAEXXZ
_TEXT	SEGMENT PARA USE32 PUBLIC 'CODE'
_TEXT	ENDS
;	COMDAT ??_7CGdiPlusBitmap@CSkinButton@@6B@
CONST	SEGMENT DWORD USE32 PUBLIC 'CONST'
CONST	ENDS
;	COMDAT ??_7DIBINFO@@6B@
CONST	SEGMENT DWORD USE32 PUBLIC 'CONST'
CONST	ENDS
;	COMDAT ??_7IData@@6B@
CONST	SEGMENT DWORD USE32 PUBLIC 'CONST'
CONST	ENDS
;	COMDAT ?GetLastStatus@Image@Gdiplus@@QBE?AW4Status@2@XZ
_TEXT	SEGMENT PARA USE32 PUBLIC 'CODE'
_TEXT	ENDS
;	COMDAT ?FromFile@Bitmap@Gdiplus@@SAPAV12@PB_WH@Z
_TEXT	SEGMENT PARA USE32 PUBLIC 'CODE'
_TEXT	ENDS
;	COMDAT ??2GdiplusBase@Gdiplus@@SAPAXI@Z
_TEXT	SEGMENT PARA USE32 PUBLIC 'CODE'
_TEXT	ENDS
;	COMDAT ??3GdiplusBase@Gdiplus@@SAXPAX@Z
_TEXT	SEGMENT PARA USE32 PUBLIC 'CODE'
_TEXT	ENDS
;	COMDAT ??0Bitmap@Gdiplus@@QAE@PB_WH@Z
_TEXT	SEGMENT PARA USE32 PUBLIC 'CODE'
_TEXT	ENDS
;	COMDAT ??0Image@Gdiplus@@IAE@XZ
_TEXT	SEGMENT PARA USE32 PUBLIC 'CODE'
_TEXT	ENDS
;	COMDAT ??_7Image@Gdiplus@@6B@
CONST	SEGMENT DWORD USE32 PUBLIC 'CONST'
CONST	ENDS
;	COMDAT ??_R4Image@Gdiplus@@6B@
rdata$r	SEGMENT DWORD USE32 PUBLIC 'CONST'
rdata$r	ENDS
;	COMDAT ??_R0?AVImage@Gdiplus@@@8
_DATA	SEGMENT DWORD USE32 PUBLIC 'DATA'
_DATA	ENDS
;	COMDAT ??_R3Image@Gdiplus@@8
rdata$r	SEGMENT DWORD USE32 PUBLIC 'CONST'
rdata$r	ENDS
;	COMDAT ??_R2Image@Gdiplus@@8
rdata$r	SEGMENT DWORD USE32 PUBLIC 'CONST'
rdata$r	ENDS
;	COMDAT ??_R1A@?0A@A@Image@Gdiplus@@8
rdata$r	SEGMENT DWORD USE32 PUBLIC 'CONST'
rdata$r	ENDS
;	COMDAT ??_R13?0A@A@GdiplusBase@Gdiplus@@8
rdata$r	SEGMENT DWORD USE32 PUBLIC 'CONST'
rdata$r	ENDS
;	COMDAT ??_R0?AVGdiplusBase@Gdiplus@@@8
_DATA	SEGMENT DWORD USE32 PUBLIC 'DATA'
_DATA	ENDS
;	COMDAT ??_GImage@Gdiplus@@UAEPAXI@Z
_TEXT	SEGMENT PARA USE32 PUBLIC 'CODE'
_TEXT	ENDS
;	COMDAT ?Clone@Image@Gdiplus@@UAEPAV12@XZ
_TEXT	SEGMENT PARA USE32 PUBLIC 'CODE'
_TEXT	ENDS
;	COMDAT ?SetStatus@Image@Gdiplus@@IBE?AW4Status@2@W432@@Z
_TEXT	SEGMENT PARA USE32 PUBLIC 'CODE'
_TEXT	ENDS
;	COMDAT ??0Image@Gdiplus@@IAE@PAVGpImage@1@W4Status@1@@Z
_TEXT	SEGMENT PARA USE32 PUBLIC 'CODE'
_TEXT	ENDS
;	COMDAT ??1Image@Gdiplus@@UAE@XZ
_TEXT	SEGMENT PARA USE32 PUBLIC 'CODE'
_TEXT	ENDS
;	COMDAT ??_7Bitmap@Gdiplus@@6B@
CONST	SEGMENT DWORD USE32 PUBLIC 'CONST'
CONST	ENDS
;	COMDAT ??_R4Bitmap@Gdiplus@@6B@
rdata$r	SEGMENT DWORD USE32 PUBLIC 'CONST'
rdata$r	ENDS
;	COMDAT ??_R0?AVBitmap@Gdiplus@@@8
_DATA	SEGMENT DWORD USE32 PUBLIC 'DATA'
_DATA	ENDS
;	COMDAT ??_R3Bitmap@Gdiplus@@8
rdata$r	SEGMENT DWORD USE32 PUBLIC 'CONST'
rdata$r	ENDS
;	COMDAT ??_R2Bitmap@Gdiplus@@8
rdata$r	SEGMENT DWORD USE32 PUBLIC 'CONST'
rdata$r	ENDS
;	COMDAT ??_R1A@?0A@A@Bitmap@Gdiplus@@8
rdata$r	SEGMENT DWORD USE32 PUBLIC 'CONST'
rdata$r	ENDS
;	COMDAT ??_GBitmap@Gdiplus@@UAEPAXI@Z
_TEXT	SEGMENT PARA USE32 PUBLIC 'CODE'
_TEXT	ENDS
;	COMDAT ??1Bitmap@Gdiplus@@UAE@XZ
_TEXT	SEGMENT PARA USE32 PUBLIC 'CODE'
_TEXT	ENDS
;	COMDAT ?SetNativeImage@Image@Gdiplus@@IAEXPAVGpImage@2@@Z
_TEXT	SEGMENT PARA USE32 PUBLIC 'CODE'
_TEXT	ENDS
;	COMDAT ??_7CGdiPlusBitmap@@6B@
CONST	SEGMENT DWORD USE32 PUBLIC 'CONST'
CONST	ENDS
sxdata	SEGMENT DWORD USE32 'SXDATA'
sxdata	ENDS
FLAT	GROUP _DATA, CONST, _BSS
	ASSUME	CS: FLAT, DS: FLAT, SS: FLAT
endif

INCLUDELIB MSVCRT
INCLUDELIB OLDNAMES

PUBLIC	?classCMainSkinWnd@CMainSkinWnd@@2UCRuntimeClass@@B ; CMainSkinWnd::classCMainSkinWnd
PUBLIC	?CreateObject@CMainSkinWnd@@SGPAVCObject@@XZ	; CMainSkinWnd::CreateObject
PUBLIC	?_messageEntries@CMainSkinWnd@@0QBUAFX_MSGMAP_ENTRY@@B ; CMainSkinWnd::_messageEntries
PUBLIC	?messageMap@CMainSkinWnd@@1UAFX_MSGMAP@@B	; CMainSkinWnd::messageMap
PUBLIC	?g_pfnGetThreadACP@ATL@@3P6GIXZA		; ATL::g_pfnGetThreadACP
PUBLIC	?_AtlGetThreadACPThunk@ATL@@YGIXZ		; ATL::_AtlGetThreadACPThunk
PUBLIC	?OnEraseBkgnd@CMainSkinWnd@@QAEHPAVCDC@@@Z	; CMainSkinWnd::OnEraseBkgnd
PUBLIC	?OnCreate@CMainSkinWnd@@QAEHPAUtagCREATESTRUCTA@@@Z ; CMainSkinWnd::OnCreate
PUBLIC	?OnPaint@CMainSkinWnd@@QAEXXZ			; CMainSkinWnd::OnPaint
PUBLIC	?OnCloseDlg@CMainSkinWnd@@QAEXXZ		; CMainSkinWnd::OnCloseDlg
PUBLIC	?OnBtnSub@CMainSkinWnd@@QAEXXZ			; CMainSkinWnd::OnBtnSub
PUBLIC	?OnBtnSkin@CMainSkinWnd@@QAEXXZ			; CMainSkinWnd::OnBtnSkin
PUBLIC	?OnColor@CMainSkinWnd@@QAEXI@Z			; CMainSkinWnd::OnColor
PUBLIC	?OnClickMoreCol@CMainSkinWnd@@QAEXXZ		; CMainSkinWnd::OnClickMoreCol
PUBLIC	?OnClickDownMore@CMainSkinWnd@@QAEXXZ		; CMainSkinWnd::OnClickDownMore
PUBLIC	?OnChangeBtnColor@CMainSkinWnd@@QAEJIJ@Z	; CMainSkinWnd::OnChangeBtnColor
PUBLIC	?OnBtnWebSub@CMainSkinWnd@@QAEXXZ		; CMainSkinWnd::OnBtnWebSub
PUBLIC	?OnLButtonDown@CMainSkinWnd@@QAEXIVCPoint@@@Z	; CMainSkinWnd::OnLButtonDown
PUBLIC	?OnMove@CMainSkinWnd@@QAEXHH@Z			; CMainSkinWnd::OnMove
EXTRN	?GetThisMessageMap@CFrameWnd@@KGPBUAFX_MSGMAP@@XZ:NEAR ; CFrameWnd::GetThisMessageMap
EXTRN	?GetThisClass@CFrameWnd@@SGPAUCRuntimeClass@@XZ:NEAR ; CFrameWnd::GetThisClass
CONST	SEGMENT
$SG202047 DB	'int', 00H
CONST	ENDS
_DATA	SEGMENT
_TYPE_CONFIG_INT DD FLAT:$SG202047
_DATA	ENDS
CONST	SEGMENT
$SG202049 DB	'str', 00H
CONST	ENDS
_DATA	SEGMENT
_TYPE_CONFIG_STR DD FLAT:$SG202049
_DATA	ENDS
CONST	SEGMENT
$SG202051 DB	'double', 00H
CONST	ENDS
_DATA	SEGMENT
_TYPE_CONFIG_DOUBLE DD FLAT:$SG202051
_DATA	ENDS
CONST	SEGMENT
	ORG $+1
$SG202053 DB	'bool', 00H
CONST	ENDS
_DATA	SEGMENT
_TYPE_CONFIG_BOOL DD FLAT:$SG202053
_DATA	ENDS
CONST	SEGMENT
	ORG $+3
$SG202055 DB	'sepint', 00H
CONST	ENDS
_DATA	SEGMENT
_TYPE_CONFIG_INT_HASSEP DD FLAT:$SG202055
_DATA	ENDS
CONST	SEGMENT
	ORG $+1
$SG202057 DB	'sepstr', 00H
CONST	ENDS
_DATA	SEGMENT
_TYPE_CONFIG_STR_HASSEP DD FLAT:$SG202057
_DATA	ENDS
CONST	SEGMENT
	ORG $+1
$SG202059 DB	'sepdouble', 00H
CONST	ENDS
_DATA	SEGMENT
_TYPE_CONFIG_DOUBLE_HASSEP DD FLAT:$SG202059
_DATA	ENDS
CONST	SEGMENT
	ORG $+2
$SG202061 DB	'sepbool', 00H
CONST	ENDS
_DATA	SEGMENT
_TYPE_CONFIG_BOOL_HASSEP DD FLAT:$SG202061
_DATA	ENDS
CONST	SEGMENT
$SG202063 DB	'Setting', 00H
CONST	ENDS
_DATA	SEGMENT
_CONF_SETTING_MODULE_NAME DD FLAT:$SG202063
_DATA	ENDS
CONST	SEGMENT
$SG202065 DB	'skin', 00H
CONST	ENDS
_DATA	SEGMENT
_CONF_SETTING_SKIN_IDX DD FLAT:$SG202065
_DATA	ENDS
CONST	SEGMENT
	ORG $+3
$SG202067 DB	'MainPage', 00H
CONST	ENDS
_DATA	SEGMENT
_CONF_SETTING_CONFIG_MAIN_PAGE DD FLAT:$SG202067
_DATA	ENDS
CONST	SEGMENT
	ORG $+3
$SG202069 DB	'ProblemReport', 00H
CONST	ENDS
_DATA	SEGMENT
_CONF_SETTING_CONFIG_PROBLEM_REPORT DD FLAT:$SG202069
_DATA	ENDS
CONST	SEGMENT
	ORG $+2
$SG202071 DB	'HomePage', 00H
CONST	ENDS
_DATA	SEGMENT
_CONF_SETTING_CONFIG_HOME_PAGE DD FLAT:$SG202071
_DATA	ENDS
CONST	SEGMENT
	ORG $+3
$SG202073 DB	'askexit', 00H
CONST	ENDS
_DATA	SEGMENT
_CONF_SETTING_CONFIG_IFASKEXIT DD FLAT:$SG202073
_DATA	ENDS
CONST	SEGMENT
$SG202075 DB	'exitchoice', 00H
CONST	ENDS
_DATA	SEGMENT
_CONF_SETTING_CONFIG_EXITCHOICE DD FLAT:$SG202075
_DATA	ENDS
CONST	SEGMENT
	ORG $+1
$SG202077 DB	'UN', 00H
CONST	ENDS
_DATA	SEGMENT
_CONF_SETTING_LOGIN_USER_NAME DD FLAT:$SG202077
_DATA	ENDS
CONST	SEGMENT
	ORG $+1
$SG202079 DB	'PW', 00H
CONST	ENDS
_DATA	SEGMENT
_CONF_SETTING_LOGIN_PASSWORD DD FLAT:$SG202079
_DATA	ENDS
CONST	SEGMENT
	ORG $+1
$SG202081 DB	'NetID', 00H
CONST	ENDS
_DATA	SEGMENT
_CONF_SETTING_NETID DD FLAT:$SG202081
_DATA	ENDS
CONST	SEGMENT
	ORG $+2
$SG202083 DB	'ChangeColorValue', 00H
CONST	ENDS
_DATA	SEGMENT
_CONF_SETTING_COLOR DD FLAT:$SG202083
_DATA	ENDS
CONST	SEGMENT
	ORG $+3
$SG202085 DB	'changeColorLight', 00H
CONST	ENDS
_DATA	SEGMENT
_CONF_SETTING_LIGHT DD FLAT:$SG202085
_DATA	ENDS
CONST	SEGMENT
	ORG $+3
$SG202087 DB	'ColorIndex', 00H
CONST	ENDS
_DATA	SEGMENT
_CONF_SETTING_COLOR_BTN_INDEX DD FLAT:$SG202087
_DATA	ENDS
CONST	SEGMENT
	ORG $+1
$SG202089 DB	'ColorUser', 00H
CONST	ENDS
_DATA	SEGMENT
_CONF_SETTING_COLOR_USER DD FLAT:$SG202089
_DATA	ENDS
CONST	SEGMENT
	ORG $+2
$SG202091 DB	'FirstTimeChangeSkin', 00H
CONST	ENDS
_DATA	SEGMENT
_CONF_SETTING_FIRST_TIME_CHANGESKIN DD FLAT:$SG202091
_DATA	ENDS
CONST	SEGMENT
$SG202104 DB	'CMainSkinWnd', 00H
CONST	ENDS
;	COMDAT ?classCMainSkinWnd@CMainSkinWnd@@2UCRuntimeClass@@B
CONST	SEGMENT
?classCMainSkinWnd@CMainSkinWnd@@2UCRuntimeClass@@B DD FLAT:$SG202104 ; CMainSkinWnd::classCMainSkinWnd
	DD	0960H
	DD	0ffffH
	DD	FLAT:?CreateObject@CMainSkinWnd@@SGPAVCObject@@XZ
	DD	FLAT:?GetThisClass@CFrameWnd@@SGPAUCRuntimeClass@@XZ
	DD	00H
	DD	00H
CONST	ENDS
CONST	SEGMENT
$SG202121 DB	00H
	ORG $+2
$SG202122 DB	'tooltips_class32', 00H
CONST	ENDS
;	COMDAT ?_messageEntries@CMainSkinWnd@@0QBUAFX_MSGMAP_ENTRY@@B
CONST	SEGMENT
?_messageEntries@CMainSkinWnd@@0QBUAFX_MSGMAP_ENTRY@@B DD 014H ; CMainSkinWnd::_messageEntries
	DD	00H
	DD	00H
	DD	00H
	DD	01H
	DD	FLAT:?OnEraseBkgnd@CMainSkinWnd@@QAEHPAVCDC@@@Z
	DD	01H
	DD	00H
	DD	00H
	DD	00H
	DD	0dH
	DD	FLAT:?OnCreate@CMainSkinWnd@@QAEHPAUtagCREATESTRUCTA@@@Z
	DD	0fH
	DD	00H
	DD	00H
	DD	00H
	DD	010H
	DD	FLAT:?OnPaint@CMainSkinWnd@@QAEXXZ
	DD	03H
	DD	00H
	DD	00H
	DD	00H
	DD	014H
	DD	FLAT:?OnMove@CMainSkinWnd@@QAEXHH@Z
	DD	0111H
	DD	00H
	DD	02711H
	DD	02711H
	DD	035H
	DD	FLAT:?OnCloseDlg@CMainSkinWnd@@QAEXXZ
	DD	0111H
	DD	00H
	DD	02712H
	DD	02712H
	DD	035H
	DD	FLAT:?OnBtnSub@CMainSkinWnd@@QAEXXZ
	DD	0111H
	DD	00H
	DD	02713H
	DD	02713H
	DD	035H
	DD	FLAT:?OnBtnSkin@CMainSkinWnd@@QAEXXZ
	DD	0111H
	DD	00H
	DD	02716H
	DD	02716H
	DD	035H
	DD	FLAT:?OnBtnWebSub@CMainSkinWnd@@QAEXXZ
	DD	0111H
	DD	00H
	DD	02715H
	DD	02715H
	DD	035H
	DD	FLAT:?OnClickDownMore@CMainSkinWnd@@QAEXXZ
	DD	0111H
	DD	00H
	DD	07530H
	DD	0753dH
	DD	037H
	DD	FLAT:?OnColor@CMainSkinWnd@@QAEXI@Z
	DD	0111H
	DD	00H
	DD	02714H
	DD	02714H
	DD	035H
	DD	FLAT:?OnClickMoreCol@CMainSkinWnd@@QAEXXZ
	DD	0464H
	DD	00H
	DD	00H
	DD	00H
	DD	0eH
	DD	FLAT:?OnChangeBtnColor@CMainSkinWnd@@QAEJIJ@Z
	DD	0201H
	DD	00H
	DD	00H
	DD	00H
	DD	032H
	DD	FLAT:?OnLButtonDown@CMainSkinWnd@@QAEXIVCPoint@@@Z
	DD	00H
	DD	00H
	DD	00H
	DD	00H
	DD	00H
	DD	00H
CONST	ENDS
;	COMDAT ?messageMap@CMainSkinWnd@@1UAFX_MSGMAP@@B
CONST	SEGMENT
?messageMap@CMainSkinWnd@@1UAFX_MSGMAP@@B DD FLAT:?GetThisMessageMap@CFrameWnd@@KGPBUAFX_MSGMAP@@XZ ; CMainSkinWnd::messageMap
	DD	FLAT:?_messageEntries@CMainSkinWnd@@0QBUAFX_MSGMAP_ENTRY@@B
CONST	ENDS
CONST	SEGMENT
	ORG $+3
$SG202716 DB	'normal', 00H
	ORG $+1
$SG202717 DB	'ChangeSkin', 00H
	ORG $+1
$SG202727 DB	'ChangeSkin_Close', 00H
	ORG $+3
$SG202729 DB	'Sub', 00H
$SG202731 DB	'Skin', 00H
	ORG $+3
$SG202733 DB	'WebSub', 00H
	ORG $+1
$SG202735 DB	'MoreColor', 00H
	ORG $+2
$SG202737 DB	'DownMore', 00H
	ORG $+3
$SG202740 DB	'normal', 00H
	ORG $+1
$SG202741 DB	'ChangeSkin', 00H
	ORG $+1
$SG202750 DB	'\', 00H
	ORG $+2
$SG202751 DB	'default', 00H
$SG202767 DB	'right.png', 00H
	ORG $+2
$SG202768 DB	'\png\', 00H
	ORG $+2
$SG202786 DB	'right.png', 00H
	ORG $+2
$SG202787 DB	'\png\', 00H
	ORG $+2
$SG202828 DB	'BTN:DOWN_MORE', 00H
	ORG $+2
$SG202829 DB	'USRCLK', 00H
	ORG $+1
$SG202830 DB	'http://www.kuwo.cn/skin/', 00H
	ORG $+3
$SG202831 DB	'iexplore', 00H
	ORG $+3
$SG202832 DB	'open', 00H
CONST	ENDS
;	COMDAT ?g_pfnGetThreadACP@ATL@@3P6GIXZA
_DATA	SEGMENT
?g_pfnGetThreadACP@ATL@@3P6GIXZA DD FLAT:?_AtlGetThreadACPThunk@ATL@@YGIXZ ; ATL::g_pfnGetThreadACP
_DATA	ENDS
PUBLIC	?InterlockedExchangePointer@@YGPAXPAPAXPAX@Z	; InterlockedExchangePointer
PUBLIC	?_AtlGetThreadACPFake@ATL@@YGIXZ		; ATL::_AtlGetThreadACPFake
PUBLIC	?_AtlGetThreadACPReal@ATL@@YGIXZ		; ATL::_AtlGetThreadACPReal
EXTRN	__imp__GetVersionExA@4:NEAR
EXTRN	___security_cookie:DWORD
EXTRN	@__security_check_cookie@4:NEAR
; Function compile flags: /Odt
; File d:\program files (x86)\microsoft visual studio .net 2003\vc7\atlmfc\include\atlconv.h
;	COMDAT ?_AtlGetThreadACPThunk@ATL@@YGIXZ
_TEXT	SEGMENT
_pfnGetThreadACP$ = -164				; size = 4
_ver$ = -160						; size = 148
__$ArrayPad$ = -4					; size = 4
__$ReturnAddr$ = 4					; size = 4
?_AtlGetThreadACPThunk@ATL@@YGIXZ PROC NEAR		; ATL::_AtlGetThreadACPThunk, COMDAT

; 134  : {

  00000	55		 push	 ebp
  00001	8b ec		 mov	 ebp, esp
  00003	81 ec a4 00 00
	00		 sub	 esp, 164		; 000000a4H
  00009	a1 00 00 00 00	 mov	 eax, DWORD PTR ___security_cookie
  0000e	89 45 fc	 mov	 DWORD PTR __$ArrayPad$[ebp], eax

; 135  : 	OSVERSIONINFO ver;
; 136  : 	ATLGETTHREADACP pfnGetThreadACP;
; 137  : 
; 138  : 	ver.dwOSVersionInfoSize = sizeof( ver );

  00011	c7 85 60 ff ff
	ff 94 00 00 00	 mov	 DWORD PTR _ver$[ebp], 148 ; 00000094H

; 139  : 	::GetVersionEx( &ver );

  0001b	8d 85 60 ff ff
	ff		 lea	 eax, DWORD PTR _ver$[ebp]
  00021	50		 push	 eax
  00022	ff 15 00 00 00
	00		 call	 DWORD PTR __imp__GetVersionExA@4

; 140  : 	if( (ver.dwPlatformId == VER_PLATFORM_WIN32_NT) && (ver.dwMajorVersion >= 5) )

  00028	83 bd 70 ff ff
	ff 02		 cmp	 DWORD PTR _ver$[ebp+16], 2
  0002f	75 15		 jne	 SHORT $L24173
  00031	83 bd 64 ff ff
	ff 05		 cmp	 DWORD PTR _ver$[ebp+4], 5
  00038	72 0c		 jb	 SHORT $L24173

; 141  : 	{
; 142  : 		// On Win2K, CP_THREAD_ACP is supported
; 143  : 		pfnGetThreadACP = _AtlGetThreadACPReal;

  0003a	c7 85 5c ff ff
	ff 00 00 00 00	 mov	 DWORD PTR _pfnGetThreadACP$[ebp], OFFSET FLAT:?_AtlGetThreadACPReal@ATL@@YGIXZ ; ATL::_AtlGetThreadACPReal

; 144  : 	}
; 145  : 	else

  00044	eb 0a		 jmp	 SHORT $L24174
$L24173:

; 146  : 	{
; 147  : 		pfnGetThreadACP = _AtlGetThreadACPFake;

  00046	c7 85 5c ff ff
	ff 00 00 00 00	 mov	 DWORD PTR _pfnGetThreadACP$[ebp], OFFSET FLAT:?_AtlGetThreadACPFake@ATL@@YGIXZ ; ATL::_AtlGetThreadACPFake
$L24174:

; 148  : 	}
; 149  : 	InterlockedExchangePointer( reinterpret_cast< void** >(&g_pfnGetThreadACP), pfnGetThreadACP );

  00050	8b 8d 5c ff ff
	ff		 mov	 ecx, DWORD PTR _pfnGetThreadACP$[ebp]
  00056	51		 push	 ecx
  00057	68 00 00 00 00	 push	 OFFSET FLAT:?g_pfnGetThreadACP@ATL@@3P6GIXZA ; ATL::g_pfnGetThreadACP
  0005c	e8 00 00 00 00	 call	 ?InterlockedExchangePointer@@YGPAXPAPAXPAX@Z ; InterlockedExchangePointer

; 150  : 
; 151  : 	return( g_pfnGetThreadACP() );

  00061	ff 15 00 00 00
	00		 call	 DWORD PTR ?g_pfnGetThreadACP@ATL@@3P6GIXZA ; ATL::g_pfnGetThreadACP

; 152  : }

  00067	8b 4d fc	 mov	 ecx, DWORD PTR __$ArrayPad$[ebp]
  0006a	e8 00 00 00 00	 call	 @__security_check_cookie@4
  0006f	8b e5		 mov	 esp, ebp
  00071	5d		 pop	 ebp
  00072	c3		 ret	 0
?_AtlGetThreadACPThunk@ATL@@YGIXZ ENDP			; ATL::_AtlGetThreadACPThunk
_TEXT	ENDS
EXTRN	__imp__InterlockedExchange@8:NEAR
; Function compile flags: /Odt
;	COMDAT ?InterlockedExchangePointer@@YGPAXPAPAXPAX@Z
_TEXT	SEGMENT
_pp$ = 8						; size = 4
_pNew$ = 12						; size = 4
?InterlockedExchangePointer@@YGPAXPAPAXPAX@Z PROC NEAR	; InterlockedExchangePointer, COMDAT

; 91   : {

  00000	55		 push	 ebp
  00001	8b ec		 mov	 ebp, esp

; 92   : 	return( reinterpret_cast<void*>(static_cast<LONG_PTR>(::InterlockedExchange(reinterpret_cast<LONG*>(pp), static_cast<LONG>(reinterpret_cast<LONG_PTR>(pNew))))) );

  00003	8b 45 0c	 mov	 eax, DWORD PTR _pNew$[ebp]
  00006	50		 push	 eax
  00007	8b 4d 08	 mov	 ecx, DWORD PTR _pp$[ebp]
  0000a	51		 push	 ecx
  0000b	ff 15 00 00 00
	00		 call	 DWORD PTR __imp__InterlockedExchange@8

; 93   : }

  00011	5d		 pop	 ebp
  00012	c2 08 00	 ret	 8
?InterlockedExchangePointer@@YGPAXPAPAXPAX@Z ENDP	; InterlockedExchangePointer
_TEXT	ENDS
EXTRN	__imp__GetACP@0:NEAR
EXTRN	__imp__GetLocaleInfoA@16:NEAR
EXTRN	__imp__GetThreadLocale@0:NEAR
; Function compile flags: /Odt
;	COMDAT ?_AtlGetThreadACPFake@ATL@@YGIXZ
_TEXT	SEGMENT
_pch$24161 = -24					; size = 4
_lcidThread$ = -20					; size = 4
_szACP$ = -16						; size = 7
__$ArrayPad$ = -8					; size = 4
_nACP$ = -4						; size = 4
__$ReturnAddr$ = 4					; size = 4
?_AtlGetThreadACPFake@ATL@@YGIXZ PROC NEAR		; ATL::_AtlGetThreadACPFake, COMDAT

; 101  : {

  00000	55		 push	 ebp
  00001	8b ec		 mov	 ebp, esp
  00003	83 ec 18	 sub	 esp, 24			; 00000018H
  00006	a1 00 00 00 00	 mov	 eax, DWORD PTR ___security_cookie
  0000b	89 45 f8	 mov	 DWORD PTR __$ArrayPad$[ebp], eax

; 102  : 	UINT nACP = 0;

  0000e	c7 45 fc 00 00
	00 00		 mov	 DWORD PTR _nACP$[ebp], 0

; 103  : 
; 104  : 	LCID lcidThread = ::GetThreadLocale();

  00015	ff 15 00 00 00
	00		 call	 DWORD PTR __imp__GetThreadLocale@0
  0001b	89 45 ec	 mov	 DWORD PTR _lcidThread$[ebp], eax

; 105  : 
; 106  : 	char szACP[7];
; 107  : 	// GetLocaleInfoA will fail for a Unicode-only LCID, but those are only supported on 
; 108  : 	// Windows 2000.  Since Windows 2000 supports CP_THREAD_ACP, this code path is never
; 109  : 	// executed on Windows 2000.
; 110  : 	if (::GetLocaleInfoA(lcidThread, LOCALE_IDEFAULTANSICODEPAGE, szACP, 7) != 0)

  0001e	6a 07		 push	 7
  00020	8d 45 f0	 lea	 eax, DWORD PTR _szACP$[ebp]
  00023	50		 push	 eax
  00024	68 04 10 00 00	 push	 4100			; 00001004H
  00029	8b 4d ec	 mov	 ecx, DWORD PTR _lcidThread$[ebp]
  0002c	51		 push	 ecx
  0002d	ff 15 00 00 00
	00		 call	 DWORD PTR __imp__GetLocaleInfoA@16
  00033	85 c0		 test	 eax, eax
  00035	74 34		 je	 SHORT $L24160

; 111  : 	{
; 112  : 		char* pch = szACP;

  00037	8d 55 f0	 lea	 edx, DWORD PTR _szACP$[ebp]
  0003a	89 55 e8	 mov	 DWORD PTR _pch$24161[ebp], edx
$L24163:

; 113  : 		while (*pch != '\0')

  0003d	8b 45 e8	 mov	 eax, DWORD PTR _pch$24161[ebp]
  00040	0f be 08	 movsx	 ecx, BYTE PTR [eax]
  00043	85 c9		 test	 ecx, ecx
  00045	74 24		 je	 SHORT $L24160

; 114  : 		{
; 115  : 			nACP *= 10;

  00047	8b 55 fc	 mov	 edx, DWORD PTR _nACP$[ebp]
  0004a	6b d2 0a	 imul	 edx, 10			; 0000000aH
  0004d	89 55 fc	 mov	 DWORD PTR _nACP$[ebp], edx

; 116  : 			nACP += *pch++ - '0';

  00050	8b 45 e8	 mov	 eax, DWORD PTR _pch$24161[ebp]
  00053	0f be 08	 movsx	 ecx, BYTE PTR [eax]
  00056	8b 55 fc	 mov	 edx, DWORD PTR _nACP$[ebp]
  00059	8d 44 0a d0	 lea	 eax, DWORD PTR [edx+ecx-48]
  0005d	89 45 fc	 mov	 DWORD PTR _nACP$[ebp], eax
  00060	8b 4d e8	 mov	 ecx, DWORD PTR _pch$24161[ebp]
  00063	83 c1 01	 add	 ecx, 1
  00066	89 4d e8	 mov	 DWORD PTR _pch$24161[ebp], ecx

; 117  : 		}

  00069	eb d2		 jmp	 SHORT $L24163
$L24160:

; 118  : 	}
; 119  : 	// Use the Default ANSI Code Page if we were unable to get the thread ACP or if one does not exist.
; 120  : 	if (nACP == 0)

  0006b	83 7d fc 00	 cmp	 DWORD PTR _nACP$[ebp], 0
  0006f	75 09		 jne	 SHORT $L24165

; 121  : 		nACP = ::GetACP();

  00071	ff 15 00 00 00
	00		 call	 DWORD PTR __imp__GetACP@0
  00077	89 45 fc	 mov	 DWORD PTR _nACP$[ebp], eax
$L24165:

; 122  : 
; 123  : 	return nACP;

  0007a	8b 45 fc	 mov	 eax, DWORD PTR _nACP$[ebp]

; 124  : }

  0007d	8b 4d f8	 mov	 ecx, DWORD PTR __$ArrayPad$[ebp]
  00080	e8 00 00 00 00	 call	 @__security_check_cookie@4
  00085	8b e5		 mov	 esp, ebp
  00087	5d		 pop	 ebp
  00088	c3		 ret	 0
?_AtlGetThreadACPFake@ATL@@YGIXZ ENDP			; ATL::_AtlGetThreadACPFake
; Function compile flags: /Odt
_TEXT	ENDS
;	COMDAT ?_AtlGetThreadACPReal@ATL@@YGIXZ
_TEXT	SEGMENT
?_AtlGetThreadACPReal@ATL@@YGIXZ PROC NEAR		; ATL::_AtlGetThreadACPReal, COMDAT

; 127  : {

  00000	55		 push	 ebp
  00001	8b ec		 mov	 ebp, esp

; 128  : 	return( CP_THREAD_ACP );

  00003	b8 03 00 00 00	 mov	 eax, 3

; 129  : }

  00008	5d		 pop	 ebp
  00009	c3		 ret	 0
?_AtlGetThreadACPReal@ATL@@YGIXZ ENDP			; ATL::_AtlGetThreadACPReal
_TEXT	ENDS
PUBLIC	??0CMainSkinWnd@@QAE@XZ				; CMainSkinWnd::CMainSkinWnd
PUBLIC	??2CObject@@SGPAXI@Z				; CObject::operator new
PUBLIC	??3CObject@@SGXPAX@Z				; CObject::operator delete
EXTRN	__except_list:DWORD
EXTRN	___CxxFrameHandler:NEAR
xdata$x	SEGMENT
$T204624 DD	0ffffffffH
	DD	FLAT:$L204617
$T204621 DD	019930520H
	DD	01H
	DD	FLAT:$T204624
	DD	2 DUP(00H)
	DD	2 DUP(00H)
; Function compile flags: /Odt
; File d:\boxgit\playbox\playbox\dev\prj\playbox\src\layoutmgr\changecolor\mainskinwnd.cpp
xdata$x	ENDS
_TEXT	SEGMENT
tv71 = -24						; size = 4
$T204614 = -20						; size = 4
$T204613 = -16						; size = 4
__$EHRec$ = -12						; size = 12
?CreateObject@CMainSkinWnd@@SGPAVCObject@@XZ PROC NEAR	; CMainSkinWnd::CreateObject

; 25   : IMPLEMENT_DYNCREATE(CMainSkinWnd, CFrameWnd)

  00000	55		 push	 ebp
  00001	8b ec		 mov	 ebp, esp
  00003	6a ff		 push	 -1
  00005	68 00 00 00 00	 push	 __ehhandler$?CreateObject@CMainSkinWnd@@SGPAVCObject@@XZ
  0000a	64 a1 00 00 00
	00		 mov	 eax, DWORD PTR fs:__except_list
  00010	50		 push	 eax
  00011	64 89 25 00 00
	00 00		 mov	 DWORD PTR fs:__except_list, esp
  00018	83 ec 0c	 sub	 esp, 12			; 0000000cH
  0001b	68 60 09 00 00	 push	 2400			; 00000960H
  00020	e8 00 00 00 00	 call	 ??2CObject@@SGPAXI@Z	; CObject::operator new
  00025	89 45 ec	 mov	 DWORD PTR $T204614[ebp], eax
  00028	c7 45 fc 00 00
	00 00		 mov	 DWORD PTR __$EHRec$[ebp+8], 0
  0002f	83 7d ec 00	 cmp	 DWORD PTR $T204614[ebp], 0
  00033	74 0d		 je	 SHORT $L204615
  00035	8b 4d ec	 mov	 ecx, DWORD PTR $T204614[ebp]
  00038	e8 00 00 00 00	 call	 ??0CMainSkinWnd@@QAE@XZ	; CMainSkinWnd::CMainSkinWnd
  0003d	89 45 e8	 mov	 DWORD PTR tv71[ebp], eax
  00040	eb 07		 jmp	 SHORT $L204616
$L204615:
  00042	c7 45 e8 00 00
	00 00		 mov	 DWORD PTR tv71[ebp], 0
$L204616:
  00049	8b 45 e8	 mov	 eax, DWORD PTR tv71[ebp]
  0004c	89 45 f0	 mov	 DWORD PTR $T204613[ebp], eax
  0004f	c7 45 fc ff ff
	ff ff		 mov	 DWORD PTR __$EHRec$[ebp+8], -1
  00056	8b 45 f0	 mov	 eax, DWORD PTR $T204613[ebp]
  00059	8b 4d f4	 mov	 ecx, DWORD PTR __$EHRec$[ebp]
  0005c	64 89 0d 00 00
	00 00		 mov	 DWORD PTR fs:__except_list, ecx
  00063	8b e5		 mov	 esp, ebp
  00065	5d		 pop	 ebp
  00066	c3		 ret	 0
_TEXT	ENDS
text$x	SEGMENT
$L204617:
  00000	8b 45 ec	 mov	 eax, DWORD PTR $T204614[ebp]
  00003	50		 push	 eax
  00004	e8 00 00 00 00	 call	 ??3CObject@@SGXPAX@Z	; CObject::operator delete
  00009	c3		 ret	 0
__ehhandler$?CreateObject@CMainSkinWnd@@SGPAVCObject@@XZ:
  0000a	b8 00 00 00 00	 mov	 eax, OFFSET FLAT:$T204621
  0000f	e9 00 00 00 00	 jmp	 ___CxxFrameHandler
text$x	ENDS
?CreateObject@CMainSkinWnd@@SGPAVCObject@@XZ ENDP	; CMainSkinWnd::CreateObject
PUBLIC	?GetThisClass@CMainSkinWnd@@SGPAUCRuntimeClass@@XZ ; CMainSkinWnd::GetThisClass
; Function compile flags: /Odt
_TEXT	SEGMENT
?GetThisClass@CMainSkinWnd@@SGPAUCRuntimeClass@@XZ PROC NEAR ; CMainSkinWnd::GetThisClass

; 25   : IMPLEMENT_DYNCREATE(CMainSkinWnd, CFrameWnd)

  00070	55		 push	 ebp
  00071	8b ec		 mov	 ebp, esp
  00073	b8 00 00 00 00	 mov	 eax, OFFSET FLAT:?classCMainSkinWnd@CMainSkinWnd@@2UCRuntimeClass@@B ; CMainSkinWnd::classCMainSkinWnd
  00078	5d		 pop	 ebp
  00079	c3		 ret	 0
?GetThisClass@CMainSkinWnd@@SGPAUCRuntimeClass@@XZ ENDP	; CMainSkinWnd::GetThisClass
_TEXT	ENDS
PUBLIC	?GetRuntimeClass@CMainSkinWnd@@UBEPAUCRuntimeClass@@XZ ; CMainSkinWnd::GetRuntimeClass
; Function compile flags: /Odt
_TEXT	SEGMENT
_this$ = -4						; size = 4
?GetRuntimeClass@CMainSkinWnd@@UBEPAUCRuntimeClass@@XZ PROC NEAR ; CMainSkinWnd::GetRuntimeClass
; _this$ = ecx

; 25   : IMPLEMENT_DYNCREATE(CMainSkinWnd, CFrameWnd)

  00080	55		 push	 ebp
  00081	8b ec		 mov	 ebp, esp
  00083	51		 push	 ecx
  00084	89 4d fc	 mov	 DWORD PTR _this$[ebp], ecx
  00087	b8 00 00 00 00	 mov	 eax, OFFSET FLAT:?classCMainSkinWnd@CMainSkinWnd@@2UCRuntimeClass@@B ; CMainSkinWnd::classCMainSkinWnd
  0008c	8b e5		 mov	 esp, ebp
  0008e	5d		 pop	 ebp
  0008f	c3		 ret	 0
?GetRuntimeClass@CMainSkinWnd@@UBEPAUCRuntimeClass@@XZ ENDP ; CMainSkinWnd::GetRuntimeClass
_TEXT	ENDS
PUBLIC	??0CRect@@QAE@HHHH@Z				; CRect::CRect
PUBLIC	??_R4CMainSkinWnd@@6B@				; CMainSkinWnd::`RTTI Complete Object Locator'
PUBLIC	??_R0?AVCMainSkinWnd@@@8			; CMainSkinWnd `RTTI Type Descriptor'
PUBLIC	??_R3CMainSkinWnd@@8				; CMainSkinWnd::`RTTI Class Hierarchy Descriptor'
PUBLIC	??_R2CMainSkinWnd@@8				; CMainSkinWnd::`RTTI Base Class Array'
PUBLIC	??_R1A@?0A@A@CMainSkinWnd@@8			; CMainSkinWnd::`RTTI Base Class Descriptor at (0,-1,0,0)'
PUBLIC	??_R1A@?0A@A@CFrameWnd@@8			; CFrameWnd::`RTTI Base Class Descriptor at (0,-1,0,0)'
PUBLIC	??_R0?AVCFrameWnd@@@8				; CFrameWnd `RTTI Type Descriptor'
PUBLIC	??_R1A@?0A@A@CObject@@8				; CObject::`RTTI Base Class Descriptor at (0,-1,0,0)'
PUBLIC	??_R0?AVCObject@@@8				; CObject `RTTI Type Descriptor'
PUBLIC	??_R1A@?0A@A@CWnd@@8				; CWnd::`RTTI Base Class Descriptor at (0,-1,0,0)'
PUBLIC	??_R0?AVCWnd@@@8				; CWnd `RTTI Type Descriptor'
PUBLIC	??_R1A@?0A@A@CCmdTarget@@8			; CCmdTarget::`RTTI Base Class Descriptor at (0,-1,0,0)'
PUBLIC	??_R0?AVCCmdTarget@@@8				; CCmdTarget `RTTI Type Descriptor'
PUBLIC	?GetMessageMap@CMainSkinWnd@@MBEPBUAFX_MSGMAP@@XZ ; CMainSkinWnd::GetMessageMap
PUBLIC	?PreCreateWindow@CMainSkinWnd@@MAEHAAUtagCREATESTRUCTA@@@Z ; CMainSkinWnd::PreCreateWindow
PUBLIC	?Serialize@CObject@@UAEXAAVCArchive@@@Z		; CObject::Serialize
PUBLIC	?AssertValid@CObject@@UBEXXZ			; CObject::AssertValid
PUBLIC	?Dump@CObject@@UBEXAAVCDumpContext@@@Z		; CObject::Dump
PUBLIC	??0?$vector@PAVCSkinButton2@@V?$allocator@PAVCSkinButton2@@@std@@@std@@QAE@XZ ; std::vector<CSkinButton2 *,std::allocator<CSkinButton2 *> >::vector<CSkinButton2 *,std::allocator<CSkinButton2 *> >
PUBLIC	??1?$vector@PAVCSkinButton2@@V?$allocator@PAVCSkinButton2@@@std@@@std@@QAE@XZ ; std::vector<CSkinButton2 *,std::allocator<CSkinButton2 *> >::~vector<CSkinButton2 *,std::allocator<CSkinButton2 *> >
PUBLIC	??_7CMainSkinWnd@@6B@				; CMainSkinWnd::`vftable'
PUBLIC	??_GCMainSkinWnd@@UAEPAXI@Z			; CMainSkinWnd::`scalar deleting destructor'
PUBLIC	?DoDataExchange@CWnd@@MAEXPAVCDataExchange@@@Z	; CWnd::DoDataExchange
EXTRN	?SetChangeColor@CCWToolTips@@QAEXH@Z:NEAR	; CCWToolTips::SetChangeColor
EXTRN	??0CxSkinButton@@QAE@XZ:NEAR			; CxSkinButton::CxSkinButton
EXTRN	?CreateControlContainer@CWnd@@MAEHPAPAVCOleControlContainer@@@Z:NEAR ; CWnd::CreateControlContainer
EXTRN	?CreateControlSite@CWnd@@MAEHPAVCOleControlContainer@@PAPAVCOleControlSite@@IABU_GUID@@@Z:NEAR ; CWnd::CreateControlSite
EXTRN	?SetOccDialogInfo@CWnd@@MAEHPAU_AFX_OCC_DIALOG_INFO@@@Z:NEAR ; CWnd::SetOccDialogInfo
EXTRN	??1CxSkinButton@@UAE@XZ:NEAR			; CxSkinButton::~CxSkinButton
EXTRN	?OnToolHitTest@CWnd@@UBEHVCPoint@@PAUtagTOOLINFOA@@@Z:NEAR ; CWnd::OnToolHitTest
EXTRN	__imp_??0?$CStringT@DV?$StrTraitMFC_DLL@DV?$ChTraitsCRT@D@ATL@@@@@ATL@@QAE@XZ:NEAR
EXTRN	?GetScrollBarCtrl@CWnd@@UBEPAVCScrollBar@@H@Z:NEAR ; CWnd::GetScrollBarCtrl
EXTRN	__imp_??1?$CStringT@DV?$StrTraitMFC_DLL@DV?$ChTraitsCRT@D@ATL@@@@@ATL@@QAE@XZ:NEAR
EXTRN	?WinHelpA@CWnd@@UAEXKI@Z:NEAR			; CWnd::WinHelpA
EXTRN	?HtmlHelpA@CWnd@@UAEXKI@Z:NEAR			; CWnd::HtmlHelpA
EXTRN	?WinHelpInternal@CWnd@@UAEXKI@Z:NEAR		; CWnd::WinHelpInternal
EXTRN	?ContinueModal@CWnd@@UAEHXZ:NEAR		; CWnd::ContinueModal
EXTRN	?EndModalLoop@CWnd@@UAEXH@Z:NEAR		; CWnd::EndModalLoop
EXTRN	?GetInterfaceMap@CWnd@@MBEPBUAFX_INTERFACEMAP@@XZ:NEAR ; CWnd::GetInterfaceMap
EXTRN	?EnsureStdObj@CWnd@@UAEJXZ:NEAR			; CWnd::EnsureStdObj
EXTRN	?get_accParent@CWnd@@UAEJPAPAUIDispatch@@@Z:NEAR ; CWnd::get_accParent
EXTRN	?get_accChildCount@CWnd@@UAEJPAJ@Z:NEAR		; CWnd::get_accChildCount
EXTRN	?get_accChild@CWnd@@UAEJUtagVARIANT@@PAPAUIDispatch@@@Z:NEAR ; CWnd::get_accChild
EXTRN	?IsInvokeAllowed@CCmdTarget@@UAEHJ@Z:NEAR	; CCmdTarget::IsInvokeAllowed
EXTRN	?get_accName@CWnd@@UAEJUtagVARIANT@@PAPA_W@Z:NEAR ; CWnd::get_accName
EXTRN	?get_accValue@CWnd@@UAEJUtagVARIANT@@PAPA_W@Z:NEAR ; CWnd::get_accValue
EXTRN	?get_accDescription@CWnd@@UAEJUtagVARIANT@@PAPA_W@Z:NEAR ; CWnd::get_accDescription
EXTRN	?GetDispatchIID@CCmdTarget@@UAEHPAU_GUID@@@Z:NEAR ; CCmdTarget::GetDispatchIID
EXTRN	?GetTypeInfoCount@CCmdTarget@@UAEIXZ:NEAR	; CCmdTarget::GetTypeInfoCount
EXTRN	?GetTypeLibCache@CCmdTarget@@UAEPAVCTypeLibCache@@XZ:NEAR ; CCmdTarget::GetTypeLibCache
EXTRN	?get_accRole@CWnd@@UAEJUtagVARIANT@@PAU2@@Z:NEAR ; CWnd::get_accRole
EXTRN	?GetTypeLib@CCmdTarget@@UAEJKPAPAUITypeLib@@@Z:NEAR ; CCmdTarget::GetTypeLib
EXTRN	?get_accState@CWnd@@UAEJUtagVARIANT@@PAU2@@Z:NEAR ; CWnd::get_accState
EXTRN	?get_accHelp@CWnd@@UAEJUtagVARIANT@@PAPA_W@Z:NEAR ; CWnd::get_accHelp
EXTRN	?get_accHelpTopic@CWnd@@UAEJPAPA_WUtagVARIANT@@PAJ@Z:NEAR ; CWnd::get_accHelpTopic
EXTRN	?get_accKeyboardShortcut@CWnd@@UAEJUtagVARIANT@@PAPA_W@Z:NEAR ; CWnd::get_accKeyboardShortcut
EXTRN	?get_accFocus@CWnd@@UAEJPAUtagVARIANT@@@Z:NEAR	; CWnd::get_accFocus
EXTRN	?get_accSelection@CWnd@@UAEJPAUtagVARIANT@@@Z:NEAR ; CWnd::get_accSelection
EXTRN	?get_accDefaultAction@CWnd@@UAEJUtagVARIANT@@PAPA_W@Z:NEAR ; CWnd::get_accDefaultAction
EXTRN	?GetCommandMap@CCmdTarget@@MBEPBUAFX_OLECMDMAP@@XZ:NEAR ; CCmdTarget::GetCommandMap
EXTRN	?accSelect@CWnd@@UAEJJUtagVARIANT@@@Z:NEAR	; CWnd::accSelect
EXTRN	?accLocation@CWnd@@UAEJPAJ000UtagVARIANT@@@Z:NEAR ; CWnd::accLocation
EXTRN	?GetDispatchMap@CCmdTarget@@MBEPBUAFX_DISPMAP@@XZ:NEAR ; CCmdTarget::GetDispatchMap
EXTRN	?accNavigate@CWnd@@UAEJJUtagVARIANT@@PAU2@@Z:NEAR ; CWnd::accNavigate
EXTRN	?accHitTest@CWnd@@UAEJJJPAUtagVARIANT@@@Z:NEAR	; CWnd::accHitTest
EXTRN	?GetConnectionMap@CCmdTarget@@MBEPBUAFX_CONNECTIONMAP@@XZ:NEAR ; CCmdTarget::GetConnectionMap
EXTRN	?accDoDefaultAction@CWnd@@UAEJUtagVARIANT@@@Z:NEAR ; CWnd::accDoDefaultAction
EXTRN	?put_accName@CWnd@@UAEJUtagVARIANT@@PA_W@Z:NEAR	; CWnd::put_accName
EXTRN	?put_accValue@CWnd@@UAEJUtagVARIANT@@PA_W@Z:NEAR ; CWnd::put_accValue
EXTRN	?SetProxy@CWnd@@UAEJPAUIAccessibleProxy@@@Z:NEAR ; CWnd::SetProxy
EXTRN	?CreateAccessibleProxy@CWnd@@UAEJIJPAJ@Z:NEAR	; CWnd::CreateAccessibleProxy
EXTRN	?GetEventSinkMap@CCmdTarget@@MBEPBUAFX_EVENTSINKMAP@@XZ:NEAR ; CCmdTarget::GetEventSinkMap
EXTRN	?OnCreateAggregates@CCmdTarget@@UAEHXZ:NEAR	; CCmdTarget::OnCreateAggregates
EXTRN	?GetInterfaceHook@CCmdTarget@@UAEPAUIUnknown@@PBX@Z:NEAR ; CCmdTarget::GetInterfaceHook
EXTRN	?OnNotify@CWnd@@MAEHIJPAJ@Z:NEAR		; CWnd::OnNotify
EXTRN	??_ECMainSkinWnd@@UAEPAXI@Z:NEAR		; CMainSkinWnd::`vector deleting destructor'
EXTRN	?GetExtraConnectionPoints@CCmdTarget@@MAEHPAVCPtrArray@@@Z:NEAR ; CCmdTarget::GetExtraConnectionPoints
EXTRN	?GetConnectionHook@CCmdTarget@@MAEPAUIConnectionPoint@@ABU_GUID@@@Z:NEAR ; CCmdTarget::GetConnectionHook
EXTRN	??0CSkinButton2@@QAE@XZ:NEAR			; CSkinButton2::CSkinButton2
EXTRN	??1CSkinButton2@@UAE@XZ:NEAR			; CSkinButton2::~CSkinButton2
EXTRN	?PreSubclassWindow@CWnd@@UAEXXZ:NEAR		; CWnd::PreSubclassWindow
EXTRN	??0CFrameWnd@@QAE@XZ:NEAR			; CFrameWnd::CFrameWnd
EXTRN	?Create@CFrameWnd@@UAEHPBD0KABUtagRECT@@PAVCWnd@@0KPAUCCreateContext@@@Z:NEAR ; CFrameWnd::Create
EXTRN	?LoadFrame@CFrameWnd@@UAEHIKPAVCWnd@@PAUCCreateContext@@@Z:NEAR ; CFrameWnd::LoadFrame
EXTRN	?Create@CWnd@@UAEHPBD0KABUtagRECT@@PAV1@IPAUCCreateContext@@@Z:NEAR ; CWnd::Create
EXTRN	?GetActiveDocument@CFrameWnd@@UAEPAVCDocument@@XZ:NEAR ; CFrameWnd::GetActiveDocument
EXTRN	?GetActiveFrame@CFrameWnd@@UAEPAV1@XZ:NEAR	; CFrameWnd::GetActiveFrame
EXTRN	?GetMessageString@CFrameWnd@@UBEXIAAV?$CStringT@DV?$StrTraitMFC_DLL@DV?$ChTraitsCRT@D@ATL@@@@@ATL@@@Z:NEAR ; CFrameWnd::GetMessageString
EXTRN	?CreateEx@CWnd@@UAEHKPBD0KHHHHPAUHWND__@@PAUHMENU__@@PAX@Z:NEAR ; CWnd::CreateEx
EXTRN	?RecalcLayout@CFrameWnd@@UAEXH@Z:NEAR		; CFrameWnd::RecalcLayout
EXTRN	?ActivateFrame@CFrameWnd@@UAEXH@Z:NEAR		; CFrameWnd::ActivateFrame
EXTRN	?CreateEx@CWnd@@UAEHKPBD0KABUtagRECT@@PAV1@IPAX@Z:NEAR ; CWnd::CreateEx
EXTRN	?BeginModalState@CFrameWnd@@UAEXXZ:NEAR		; CFrameWnd::BeginModalState
EXTRN	?EndModalState@CFrameWnd@@UAEXXZ:NEAR		; CFrameWnd::EndModalState
EXTRN	?DestroyWindow@CWnd@@UAEHXZ:NEAR		; CWnd::DestroyWindow
EXTRN	?OnSetPreviewMode@CFrameWnd@@UAEXHPAUCPrintPreviewState@@@Z:NEAR ; CFrameWnd::OnSetPreviewMode
EXTRN	?GetMessageBar@CFrameWnd@@UAEPAVCWnd@@XZ:NEAR	; CFrameWnd::GetMessageBar
EXTRN	?CalcWindowRect@CWnd@@UAEXPAUtagRECT@@I@Z:NEAR	; CWnd::CalcWindowRect
EXTRN	?NegotiateBorderSpace@CFrameWnd@@UAEHIPAUtagRECT@@@Z:NEAR ; CFrameWnd::NegotiateBorderSpace
EXTRN	?OnCreateClient@CFrameWnd@@MAEHPAUtagCREATESTRUCTA@@PAUCCreateContext@@@Z:NEAR ; CFrameWnd::OnCreateClient
EXTRN	??1CFrameWnd@@UAE@XZ:NEAR			; CFrameWnd::~CFrameWnd
EXTRN	?GetSuperWndProcAddr@CWnd@@MAEPAP6GJPAUHWND__@@IIJ@ZXZ:NEAR ; CWnd::GetSuperWndProcAddr
EXTRN	??_7type_info@@6B@:QWORD			; type_info::`vftable'
EXTRN	?OnAmbientProperty@CWnd@@UAEHPAVCOleControlSite@@JPAUtagVARIANT@@@Z:NEAR ; CWnd::OnAmbientProperty
EXTRN	?WindowProc@CWnd@@MAEJIIJ@Z:NEAR		; CWnd::WindowProc
EXTRN	?OnWndMsg@CWnd@@MAEHIIJPAJ@Z:NEAR		; CWnd::OnWndMsg
EXTRN	?DefWindowProcA@CWnd@@MAEJIIJ@Z:NEAR		; CWnd::DefWindowProcA
EXTRN	?OnChildNotify@CWnd@@MAEHIIJPAJ@Z:NEAR		; CWnd::OnChildNotify
EXTRN	?IsFrameWnd@CFrameWnd@@UBEHXZ:NEAR		; CFrameWnd::IsFrameWnd
EXTRN	?OnCmdMsg@CFrameWnd@@UAEHIHPAXPAUAFX_CMDHANDLERINFO@@@Z:NEAR ; CFrameWnd::OnCmdMsg
EXTRN	?OnUpdateFrameTitle@CFrameWnd@@UAEXH@Z:NEAR	; CFrameWnd::OnUpdateFrameTitle
EXTRN	?OnUpdateFrameMenu@CFrameWnd@@UAEXPAUHMENU__@@@Z:NEAR ; CFrameWnd::OnUpdateFrameMenu
EXTRN	?CheckAutoCenter@CWnd@@UAEHXZ:NEAR		; CWnd::CheckAutoCenter
EXTRN	?GetDefaultAccelerator@CFrameWnd@@UAEPAUHACCEL__@@XZ:NEAR ; CFrameWnd::GetDefaultAccelerator
EXTRN	?PreTranslateMessage@CFrameWnd@@UAEHPAUtagMSG@@@Z:NEAR ; CFrameWnd::PreTranslateMessage
EXTRN	??0CCWToolTips@@QAE@XZ:NEAR			; CCWToolTips::CCWToolTips
EXTRN	?DelayUpdateFrameMenu@CFrameWnd@@UAEXPAUHMENU__@@@Z:NEAR ; CFrameWnd::DelayUpdateFrameMenu
EXTRN	?ExitHelpMode@CFrameWnd@@UAEXXZ:NEAR		; CFrameWnd::ExitHelpMode
EXTRN	?OnCommand@CFrameWnd@@MAEHIJ@Z:NEAR		; CFrameWnd::OnCommand
EXTRN	?PostNcDestroy@CFrameWnd@@MAEXXZ:NEAR		; CFrameWnd::PostNcDestroy
EXTRN	?OnFinalRelease@CWnd@@UAEXXZ:NEAR		; CWnd::OnFinalRelease
xdata$x	SEGMENT
$T204648 DD	0ffffffffH
	DD	FLAT:$L204634
	DD	00H
	DD	FLAT:$L204635
	DD	01H
	DD	FLAT:$L204636
	DD	02H
	DD	FLAT:$L204637
	DD	03H
	DD	FLAT:$L204638
	DD	04H
	DD	FLAT:$L204639
	DD	05H
	DD	FLAT:$L204640
	DD	06H
	DD	FLAT:$L204641
	DD	07H
	DD	FLAT:$L204642
	DD	08H
	DD	FLAT:$L204643
	DD	09H
	DD	FLAT:$L204644
$T204646 DD	019930520H
	DD	0bH
	DD	FLAT:$T204648
	DD	2 DUP(00H)
	DD	2 DUP(00H)
xdata$x	ENDS
;	COMDAT ??_7CMainSkinWnd@@6B@
CONST	SEGMENT
??_7CMainSkinWnd@@6B@ DD FLAT:??_R4CMainSkinWnd@@6B@	; CMainSkinWnd::`vftable'
	DD	FLAT:?GetRuntimeClass@CMainSkinWnd@@UBEPAUCRuntimeClass@@XZ
	DD	FLAT:??_ECMainSkinWnd@@UAEPAXI@Z
	DD	FLAT:?Serialize@CObject@@UAEXAAVCArchive@@@Z
	DD	FLAT:?AssertValid@CObject@@UBEXXZ
	DD	FLAT:?Dump@CObject@@UBEXAAVCDumpContext@@@Z
	DD	FLAT:?OnCmdMsg@CFrameWnd@@UAEHIHPAXPAUAFX_CMDHANDLERINFO@@@Z
	DD	FLAT:?OnFinalRelease@CWnd@@UAEXXZ
	DD	FLAT:?IsInvokeAllowed@CCmdTarget@@UAEHJ@Z
	DD	FLAT:?GetDispatchIID@CCmdTarget@@UAEHPAU_GUID@@@Z
	DD	FLAT:?GetTypeInfoCount@CCmdTarget@@UAEIXZ
	DD	FLAT:?GetTypeLibCache@CCmdTarget@@UAEPAVCTypeLibCache@@XZ
	DD	FLAT:?GetTypeLib@CCmdTarget@@UAEJKPAPAUITypeLib@@@Z
	DD	FLAT:?GetMessageMap@CMainSkinWnd@@MBEPBUAFX_MSGMAP@@XZ
	DD	FLAT:?GetCommandMap@CCmdTarget@@MBEPBUAFX_OLECMDMAP@@XZ
	DD	FLAT:?GetDispatchMap@CCmdTarget@@MBEPBUAFX_DISPMAP@@XZ
	DD	FLAT:?GetConnectionMap@CCmdTarget@@MBEPBUAFX_CONNECTIONMAP@@XZ
	DD	FLAT:?GetInterfaceMap@CWnd@@MBEPBUAFX_INTERFACEMAP@@XZ
	DD	FLAT:?GetEventSinkMap@CCmdTarget@@MBEPBUAFX_EVENTSINKMAP@@XZ
	DD	FLAT:?OnCreateAggregates@CCmdTarget@@UAEHXZ
	DD	FLAT:?GetInterfaceHook@CCmdTarget@@UAEPAUIUnknown@@PBX@Z
	DD	FLAT:?GetExtraConnectionPoints@CCmdTarget@@MAEHPAVCPtrArray@@@Z
	DD	FLAT:?GetConnectionHook@CCmdTarget@@MAEPAUIConnectionPoint@@ABU_GUID@@@Z
	DD	FLAT:?PreSubclassWindow@CWnd@@UAEXXZ
	DD	FLAT:?Create@CWnd@@UAEHPBD0KABUtagRECT@@PAV1@IPAUCCreateContext@@@Z
	DD	FLAT:?CreateEx@CWnd@@UAEHKPBD0KABUtagRECT@@PAV1@IPAX@Z
	DD	FLAT:?CreateEx@CWnd@@UAEHKPBD0KHHHHPAUHWND__@@PAUHMENU__@@PAX@Z
	DD	FLAT:?DestroyWindow@CWnd@@UAEHXZ
	DD	FLAT:?PreCreateWindow@CMainSkinWnd@@MAEHAAUtagCREATESTRUCTA@@@Z
	DD	FLAT:?CalcWindowRect@CWnd@@UAEXPAUtagRECT@@I@Z
	DD	FLAT:?OnToolHitTest@CWnd@@UBEHVCPoint@@PAUtagTOOLINFOA@@@Z
	DD	FLAT:?GetScrollBarCtrl@CWnd@@UBEPAVCScrollBar@@H@Z
	DD	FLAT:?WinHelpA@CWnd@@UAEXKI@Z
	DD	FLAT:?HtmlHelpA@CWnd@@UAEXKI@Z
	DD	FLAT:?WinHelpInternal@CWnd@@UAEXKI@Z
	DD	FLAT:?ContinueModal@CWnd@@UAEHXZ
	DD	FLAT:?EndModalLoop@CWnd@@UAEXH@Z
	DD	FLAT:?EnsureStdObj@CWnd@@UAEJXZ
	DD	FLAT:?get_accParent@CWnd@@UAEJPAPAUIDispatch@@@Z
	DD	FLAT:?get_accChildCount@CWnd@@UAEJPAJ@Z
	DD	FLAT:?get_accChild@CWnd@@UAEJUtagVARIANT@@PAPAUIDispatch@@@Z
	DD	FLAT:?get_accName@CWnd@@UAEJUtagVARIANT@@PAPA_W@Z
	DD	FLAT:?get_accValue@CWnd@@UAEJUtagVARIANT@@PAPA_W@Z
	DD	FLAT:?get_accDescription@CWnd@@UAEJUtagVARIANT@@PAPA_W@Z
	DD	FLAT:?get_accRole@CWnd@@UAEJUtagVARIANT@@PAU2@@Z
	DD	FLAT:?get_accState@CWnd@@UAEJUtagVARIANT@@PAU2@@Z
	DD	FLAT:?get_accHelp@CWnd@@UAEJUtagVARIANT@@PAPA_W@Z
	DD	FLAT:?get_accHelpTopic@CWnd@@UAEJPAPA_WUtagVARIANT@@PAJ@Z
	DD	FLAT:?get_accKeyboardShortcut@CWnd@@UAEJUtagVARIANT@@PAPA_W@Z
	DD	FLAT:?get_accFocus@CWnd@@UAEJPAUtagVARIANT@@@Z
	DD	FLAT:?get_accSelection@CWnd@@UAEJPAUtagVARIANT@@@Z
	DD	FLAT:?get_accDefaultAction@CWnd@@UAEJUtagVARIANT@@PAPA_W@Z
	DD	FLAT:?accSelect@CWnd@@UAEJJUtagVARIANT@@@Z
	DD	FLAT:?accLocation@CWnd@@UAEJPAJ000UtagVARIANT@@@Z
	DD	FLAT:?accNavigate@CWnd@@UAEJJUtagVARIANT@@PAU2@@Z
	DD	FLAT:?accHitTest@CWnd@@UAEJJJPAUtagVARIANT@@@Z
	DD	FLAT:?accDoDefaultAction@CWnd@@UAEJUtagVARIANT@@@Z
	DD	FLAT:?put_accName@CWnd@@UAEJUtagVARIANT@@PA_W@Z
	DD	FLAT:?put_accValue@CWnd@@UAEJUtagVARIANT@@PA_W@Z
	DD	FLAT:?SetProxy@CWnd@@UAEJPAUIAccessibleProxy@@@Z
	DD	FLAT:?CreateAccessibleProxy@CWnd@@UAEJIJPAJ@Z
	DD	FLAT:?OnCommand@CFrameWnd@@MAEHIJ@Z
	DD	FLAT:?OnNotify@CWnd@@MAEHIJPAJ@Z
	DD	FLAT:?GetSuperWndProcAddr@CWnd@@MAEPAP6GJPAUHWND__@@IIJ@ZXZ
	DD	FLAT:?DoDataExchange@CWnd@@MAEXPAVCDataExchange@@@Z
	DD	FLAT:?BeginModalState@CFrameWnd@@UAEXXZ
	DD	FLAT:?EndModalState@CFrameWnd@@UAEXXZ
	DD	FLAT:?PreTranslateMessage@CFrameWnd@@UAEHPAUtagMSG@@@Z
	DD	FLAT:?OnAmbientProperty@CWnd@@UAEHPAVCOleControlSite@@JPAUtagVARIANT@@@Z
	DD	FLAT:?WindowProc@CWnd@@MAEJIIJ@Z
	DD	FLAT:?OnWndMsg@CWnd@@MAEHIIJPAJ@Z
	DD	FLAT:?DefWindowProcA@CWnd@@MAEJIIJ@Z
	DD	FLAT:?PostNcDestroy@CFrameWnd@@MAEXXZ
	DD	FLAT:?OnChildNotify@CWnd@@MAEHIIJPAJ@Z
	DD	FLAT:?CheckAutoCenter@CWnd@@UAEHXZ
	DD	FLAT:?IsFrameWnd@CFrameWnd@@UBEHXZ
	DD	FLAT:?CreateControlContainer@CWnd@@MAEHPAPAVCOleControlContainer@@@Z
	DD	FLAT:?CreateControlSite@CWnd@@MAEHPAVCOleControlContainer@@PAPAVCOleControlSite@@IABU_GUID@@@Z
	DD	FLAT:?SetOccDialogInfo@CWnd@@MAEHPAU_AFX_OCC_DIALOG_INFO@@@Z
	DD	FLAT:?Create@CFrameWnd@@UAEHPBD0KABUtagRECT@@PAVCWnd@@0KPAUCCreateContext@@@Z
	DD	FLAT:?LoadFrame@CFrameWnd@@UAEHIKPAVCWnd@@PAUCCreateContext@@@Z
	DD	FLAT:?GetActiveDocument@CFrameWnd@@UAEPAVCDocument@@XZ
	DD	FLAT:?GetActiveFrame@CFrameWnd@@UAEPAV1@XZ
	DD	FLAT:?GetMessageString@CFrameWnd@@UBEXIAAV?$CStringT@DV?$StrTraitMFC_DLL@DV?$ChTraitsCRT@D@ATL@@@@@ATL@@@Z
	DD	FLAT:?RecalcLayout@CFrameWnd@@UAEXH@Z
	DD	FLAT:?ActivateFrame@CFrameWnd@@UAEXH@Z
	DD	FLAT:?OnSetPreviewMode@CFrameWnd@@UAEXHPAUCPrintPreviewState@@@Z
	DD	FLAT:?GetMessageBar@CFrameWnd@@UAEPAVCWnd@@XZ
	DD	FLAT:?NegotiateBorderSpace@CFrameWnd@@UAEHIPAUtagRECT@@@Z
	DD	FLAT:?OnCreateClient@CFrameWnd@@MAEHPAUtagCREATESTRUCTA@@PAUCCreateContext@@@Z
	DD	FLAT:?OnUpdateFrameTitle@CFrameWnd@@UAEXH@Z
	DD	FLAT:?OnUpdateFrameMenu@CFrameWnd@@UAEXPAUHMENU__@@@Z
	DD	FLAT:?GetDefaultAccelerator@CFrameWnd@@UAEPAUHACCEL__@@XZ
	DD	FLAT:?DelayUpdateFrameMenu@CFrameWnd@@UAEXPAUHMENU__@@@Z
	DD	FLAT:?ExitHelpMode@CFrameWnd@@UAEXXZ
CONST	ENDS
;	COMDAT ??_R4CMainSkinWnd@@6B@
rdata$r	SEGMENT
??_R4CMainSkinWnd@@6B@ DD 00H				; CMainSkinWnd::`RTTI Complete Object Locator'
	DD	00H
	DD	00H
	DD	FLAT:??_R0?AVCMainSkinWnd@@@8
	DD	FLAT:??_R3CMainSkinWnd@@8
rdata$r	ENDS
;	COMDAT ??_R0?AVCMainSkinWnd@@@8
_DATA	SEGMENT
??_R0?AVCMainSkinWnd@@@8 DD FLAT:??_7type_info@@6B@	; CMainSkinWnd `RTTI Type Descriptor'
	DD	00H
	DB	'.?AVCMainSkinWnd@@', 00H
_DATA	ENDS
;	COMDAT ??_R3CMainSkinWnd@@8
rdata$r	SEGMENT
??_R3CMainSkinWnd@@8 DD 00H				; CMainSkinWnd::`RTTI Class Hierarchy Descriptor'
	DD	00H
	DD	05H
	DD	FLAT:??_R2CMainSkinWnd@@8
rdata$r	ENDS
;	COMDAT ??_R2CMainSkinWnd@@8
rdata$r	SEGMENT
??_R2CMainSkinWnd@@8 DD FLAT:??_R1A@?0A@A@CMainSkinWnd@@8 ; CMainSkinWnd::`RTTI Base Class Array'
	DD	FLAT:??_R1A@?0A@A@CFrameWnd@@8
	DD	FLAT:??_R1A@?0A@A@CWnd@@8
	DD	FLAT:??_R1A@?0A@A@CCmdTarget@@8
	DD	FLAT:??_R1A@?0A@A@CObject@@8
rdata$r	ENDS
;	COMDAT ??_R1A@?0A@A@CMainSkinWnd@@8
rdata$r	SEGMENT
??_R1A@?0A@A@CMainSkinWnd@@8 DD FLAT:??_R0?AVCMainSkinWnd@@@8 ; CMainSkinWnd::`RTTI Base Class Descriptor at (0,-1,0,0)'
	DD	04H
	DD	00H
	DD	0ffffffffH
	DD	00H
	DD	00H
rdata$r	ENDS
;	COMDAT ??_R1A@?0A@A@CFrameWnd@@8
rdata$r	SEGMENT
??_R1A@?0A@A@CFrameWnd@@8 DD FLAT:??_R0?AVCFrameWnd@@@8	; CFrameWnd::`RTTI Base Class Descriptor at (0,-1,0,0)'
	DD	03H
	DD	00H
	DD	0ffffffffH
	DD	00H
	DD	00H
rdata$r	ENDS
;	COMDAT ??_R0?AVCFrameWnd@@@8
_DATA	SEGMENT
??_R0?AVCFrameWnd@@@8 DD FLAT:??_7type_info@@6B@	; CFrameWnd `RTTI Type Descriptor'
	DD	00H
	DB	'.?AVCFrameWnd@@', 00H
_DATA	ENDS
;	COMDAT ??_R1A@?0A@A@CWnd@@8
rdata$r	SEGMENT
??_R1A@?0A@A@CWnd@@8 DD FLAT:??_R0?AVCWnd@@@8		; CWnd::`RTTI Base Class Descriptor at (0,-1,0,0)'
	DD	02H
	DD	00H
	DD	0ffffffffH
	DD	00H
	DD	00H
rdata$r	ENDS
;	COMDAT ??_R0?AVCWnd@@@8
_DATA	SEGMENT
??_R0?AVCWnd@@@8 DD FLAT:??_7type_info@@6B@		; CWnd `RTTI Type Descriptor'
	DD	00H
	DB	'.?AVCWnd@@', 00H
_DATA	ENDS
;	COMDAT ??_R1A@?0A@A@CCmdTarget@@8
rdata$r	SEGMENT
??_R1A@?0A@A@CCmdTarget@@8 DD FLAT:??_R0?AVCCmdTarget@@@8 ; CCmdTarget::`RTTI Base Class Descriptor at (0,-1,0,0)'
	DD	01H
	DD	00H
	DD	0ffffffffH
	DD	00H
	DD	00H
rdata$r	ENDS
;	COMDAT ??_R0?AVCCmdTarget@@@8
_DATA	SEGMENT
??_R0?AVCCmdTarget@@@8 DD FLAT:??_7type_info@@6B@	; CCmdTarget `RTTI Type Descriptor'
	DD	00H
	DB	'.?AVCCmdTarget@@', 00H
_DATA	ENDS
;	COMDAT ??_R1A@?0A@A@CObject@@8
rdata$r	SEGMENT
??_R1A@?0A@A@CObject@@8 DD FLAT:??_R0?AVCObject@@@8	; CObject::`RTTI Base Class Descriptor at (0,-1,0,0)'
	DD	00H
	DD	00H
	DD	0ffffffffH
	DD	00H
	DD	00H
rdata$r	ENDS
;	COMDAT ??_R0?AVCObject@@@8
_DATA	SEGMENT
??_R0?AVCObject@@@8 DD FLAT:??_7type_info@@6B@		; CObject `RTTI Type Descriptor'
	DD	00H
	DB	'.?AVCObject@@', 00H
; Function compile flags: /Odt
_DATA	ENDS
_TEXT	SEGMENT
tv172 = -44						; size = 4
_this$ = -40						; size = 4
$T204633 = -36						; size = 16
$T204630 = -20						; size = 4
$T204629 = -16						; size = 4
__$EHRec$ = -12						; size = 12
??0CMainSkinWnd@@QAE@XZ PROC NEAR			; CMainSkinWnd::CMainSkinWnd
; _this$ = ecx

; 28   : {

  00090	55		 push	 ebp
  00091	8b ec		 mov	 ebp, esp
  00093	6a ff		 push	 -1
  00095	68 00 00 00 00	 push	 __ehhandler$??0CMainSkinWnd@@QAE@XZ
  0009a	64 a1 00 00 00
	00		 mov	 eax, DWORD PTR fs:__except_list
  000a0	50		 push	 eax
  000a1	64 89 25 00 00
	00 00		 mov	 DWORD PTR fs:__except_list, esp
  000a8	83 ec 20	 sub	 esp, 32			; 00000020H
  000ab	89 4d d8	 mov	 DWORD PTR _this$[ebp], ecx
  000ae	8b 4d d8	 mov	 ecx, DWORD PTR _this$[ebp]
  000b1	e8 00 00 00 00	 call	 ??0CFrameWnd@@QAE@XZ	; CFrameWnd::CFrameWnd
  000b6	c7 45 fc 00 00
	00 00		 mov	 DWORD PTR __$EHRec$[ebp+8], 0
  000bd	8b 45 d8	 mov	 eax, DWORD PTR _this$[ebp]
  000c0	c7 00 00 00 00
	00		 mov	 DWORD PTR [eax], OFFSET FLAT:??_7CMainSkinWnd@@6B@
  000c6	8b 4d d8	 mov	 ecx, DWORD PTR _this$[ebp]
  000c9	81 c1 e4 00 00
	00		 add	 ecx, 228		; 000000e4H
  000cf	e8 00 00 00 00	 call	 ??0?$vector@PAVCSkinButton2@@V?$allocator@PAVCSkinButton2@@@std@@@std@@QAE@XZ ; std::vector<CSkinButton2 *,std::allocator<CSkinButton2 *> >::vector<CSkinButton2 *,std::allocator<CSkinButton2 *> >
  000d4	c6 45 fc 01	 mov	 BYTE PTR __$EHRec$[ebp+8], 1
  000d8	8b 4d d8	 mov	 ecx, DWORD PTR _this$[ebp]
  000db	81 c1 f4 00 00
	00		 add	 ecx, 244		; 000000f4H
  000e1	e8 00 00 00 00	 call	 ??0CxSkinButton@@QAE@XZ	; CxSkinButton::CxSkinButton
  000e6	c6 45 fc 02	 mov	 BYTE PTR __$EHRec$[ebp+8], 2
  000ea	8b 4d d8	 mov	 ecx, DWORD PTR _this$[ebp]
  000ed	81 c1 18 02 00
	00		 add	 ecx, 536		; 00000218H
  000f3	e8 00 00 00 00	 call	 ??0CxSkinButton@@QAE@XZ	; CxSkinButton::CxSkinButton
  000f8	c6 45 fc 03	 mov	 BYTE PTR __$EHRec$[ebp+8], 3
  000fc	8b 4d d8	 mov	 ecx, DWORD PTR _this$[ebp]
  000ff	81 c1 3c 03 00
	00		 add	 ecx, 828		; 0000033cH
  00105	e8 00 00 00 00	 call	 ??0CxSkinButton@@QAE@XZ	; CxSkinButton::CxSkinButton
  0010a	c6 45 fc 04	 mov	 BYTE PTR __$EHRec$[ebp+8], 4
  0010e	8b 4d d8	 mov	 ecx, DWORD PTR _this$[ebp]
  00111	81 c1 60 04 00
	00		 add	 ecx, 1120		; 00000460H
  00117	e8 00 00 00 00	 call	 ??0CxSkinButton@@QAE@XZ	; CxSkinButton::CxSkinButton
  0011c	c6 45 fc 05	 mov	 BYTE PTR __$EHRec$[ebp+8], 5
  00120	8b 4d d8	 mov	 ecx, DWORD PTR _this$[ebp]
  00123	81 c1 84 05 00
	00		 add	 ecx, 1412		; 00000584H
  00129	e8 00 00 00 00	 call	 ??0CxSkinButton@@QAE@XZ	; CxSkinButton::CxSkinButton
  0012e	c6 45 fc 06	 mov	 BYTE PTR __$EHRec$[ebp+8], 6
  00132	8b 4d d8	 mov	 ecx, DWORD PTR _this$[ebp]
  00135	81 c1 a8 06 00
	00		 add	 ecx, 1704		; 000006a8H
  0013b	e8 00 00 00 00	 call	 ??0CxSkinButton@@QAE@XZ	; CxSkinButton::CxSkinButton
  00140	c6 45 fc 07	 mov	 BYTE PTR __$EHRec$[ebp+8], 7
  00144	8b 4d d8	 mov	 ecx, DWORD PTR _this$[ebp]
  00147	81 c1 cc 07 00
	00		 add	 ecx, 1996		; 000007ccH
  0014d	e8 00 00 00 00	 call	 ??0CSkinButton2@@QAE@XZ	; CSkinButton2::CSkinButton2
  00152	c6 45 fc 08	 mov	 BYTE PTR __$EHRec$[ebp+8], 8
  00156	8b 4d d8	 mov	 ecx, DWORD PTR _this$[ebp]
  00159	81 c1 5c 09 00
	00		 add	 ecx, 2396		; 0000095cH
  0015f	ff 15 00 00 00
	00		 call	 DWORD PTR __imp_??0?$CStringT@DV?$StrTraitMFC_DLL@DV?$ChTraitsCRT@D@ATL@@@@@ATL@@QAE@XZ
  00165	c6 45 fc 09	 mov	 BYTE PTR __$EHRec$[ebp+8], 9

; 29   : 	m_hight = MAINSKINWND_HEIGHT;

  00169	8b 4d d8	 mov	 ecx, DWORD PTR _this$[ebp]
  0016c	c7 81 d4 00 00
	00 22 01 00 00	 mov	 DWORD PTR [ecx+212], 290 ; 00000122H

; 30   : 	m_width = MAINSKINWND_WIDTH;

  00176	8b 55 d8	 mov	 edx, DWORD PTR _this$[ebp]
  00179	c7 82 d8 00 00
	00 2c 01 00 00	 mov	 DWORD PTR [edx+216], 300 ; 0000012cH

; 31   : 	m_pToolTip = new CCWToolTips();

  00183	68 90 00 00 00	 push	 144			; 00000090H
  00188	e8 00 00 00 00	 call	 ??2CObject@@SGPAXI@Z	; CObject::operator new
  0018d	89 45 ec	 mov	 DWORD PTR $T204630[ebp], eax
  00190	c6 45 fc 0a	 mov	 BYTE PTR __$EHRec$[ebp+8], 10 ; 0000000aH
  00194	83 7d ec 00	 cmp	 DWORD PTR $T204630[ebp], 0
  00198	74 0d		 je	 SHORT $L204631
  0019a	8b 4d ec	 mov	 ecx, DWORD PTR $T204630[ebp]
  0019d	e8 00 00 00 00	 call	 ??0CCWToolTips@@QAE@XZ	; CCWToolTips::CCWToolTips
  001a2	89 45 d4	 mov	 DWORD PTR tv172[ebp], eax
  001a5	eb 07		 jmp	 SHORT $L204632
$L204631:
  001a7	c7 45 d4 00 00
	00 00		 mov	 DWORD PTR tv172[ebp], 0
$L204632:
  001ae	8b 45 d4	 mov	 eax, DWORD PTR tv172[ebp]
  001b1	89 45 f0	 mov	 DWORD PTR $T204629[ebp], eax
  001b4	c6 45 fc 09	 mov	 BYTE PTR __$EHRec$[ebp+8], 9
  001b8	8b 4d d8	 mov	 ecx, DWORD PTR _this$[ebp]
  001bb	8b 55 f0	 mov	 edx, DWORD PTR $T204629[ebp]
  001be	89 91 54 09 00
	00		 mov	 DWORD PTR [ecx+2388], edx

; 32   : 	m_pToolTip->m_hParent	 = m_hWnd;

  001c4	8b 45 d8	 mov	 eax, DWORD PTR _this$[ebp]
  001c7	8b 88 54 09 00
	00		 mov	 ecx, DWORD PTR [eax+2388]
  001cd	8b 55 d8	 mov	 edx, DWORD PTR _this$[ebp]
  001d0	8b 42 20	 mov	 eax, DWORD PTR [edx+32]
  001d3	89 81 88 00 00
	00		 mov	 DWORD PTR [ecx+136], eax

; 33   : 	m_pToolTip->CreateEx(WS_EX_TOOLWINDOW|WS_EX_TOPMOST,TOOLTIPS_CLASS,"",0,CRect(0,0,0,0),NULL,0);	

  001d9	6a 00		 push	 0
  001db	6a 00		 push	 0
  001dd	6a 00		 push	 0
  001df	6a 00		 push	 0
  001e1	6a 00		 push	 0
  001e3	6a 00		 push	 0
  001e5	6a 00		 push	 0
  001e7	8d 4d dc	 lea	 ecx, DWORD PTR $T204633[ebp]
  001ea	e8 00 00 00 00	 call	 ??0CRect@@QAE@HHHH@Z	; CRect::CRect
  001ef	50		 push	 eax
  001f0	6a 00		 push	 0
  001f2	68 00 00 00 00	 push	 OFFSET FLAT:$SG202121
  001f7	68 00 00 00 00	 push	 OFFSET FLAT:$SG202122
  001fc	68 88 00 00 00	 push	 136			; 00000088H
  00201	8b 4d d8	 mov	 ecx, DWORD PTR _this$[ebp]
  00204	8b 91 54 09 00
	00		 mov	 edx, DWORD PTR [ecx+2388]
  0020a	8b 45 d8	 mov	 eax, DWORD PTR _this$[ebp]
  0020d	8b 88 54 09 00
	00		 mov	 ecx, DWORD PTR [eax+2388]
  00213	8b 12		 mov	 edx, DWORD PTR [edx]
  00215	ff 52 60	 call	 DWORD PTR [edx+96]

; 34   : 	m_pToolTip->m_clrBK = RGB(0xFF, 0xFF, 0xE1);

  00218	8b 45 d8	 mov	 eax, DWORD PTR _this$[ebp]
  0021b	8b 88 54 09 00
	00		 mov	 ecx, DWORD PTR [eax+2388]
  00221	c7 41 5c ff ff
	e1 00		 mov	 DWORD PTR [ecx+92], 14811135 ; 00e1ffffH

; 35   : 	m_pToolTip->SetChangeColor(0);

  00228	6a 00		 push	 0
  0022a	8b 55 d8	 mov	 edx, DWORD PTR _this$[ebp]
  0022d	8b 8a 54 09 00
	00		 mov	 ecx, DWORD PTR [edx+2388]
  00233	e8 00 00 00 00	 call	 ?SetChangeColor@CCWToolTips@@QAEXH@Z ; CCWToolTips::SetChangeColor

; 36   : }

  00238	c7 45 fc ff ff
	ff ff		 mov	 DWORD PTR __$EHRec$[ebp+8], -1
  0023f	8b 45 d8	 mov	 eax, DWORD PTR _this$[ebp]
  00242	8b 4d f4	 mov	 ecx, DWORD PTR __$EHRec$[ebp]
  00245	64 89 0d 00 00
	00 00		 mov	 DWORD PTR fs:__except_list, ecx
  0024c	8b e5		 mov	 esp, ebp
  0024e	5d		 pop	 ebp
  0024f	c3		 ret	 0
_TEXT	ENDS
text$x	SEGMENT
$L204634:
  00014	8b 4d d8	 mov	 ecx, DWORD PTR _this$[ebp]
  00017	e9 00 00 00 00	 jmp	 ??1CFrameWnd@@UAE@XZ	; CFrameWnd::~CFrameWnd
$L204635:
  0001c	8b 4d d8	 mov	 ecx, DWORD PTR _this$[ebp]
  0001f	81 c1 e4 00 00
	00		 add	 ecx, 228		; 000000e4H
  00025	e9 00 00 00 00	 jmp	 ??1?$vector@PAVCSkinButton2@@V?$allocator@PAVCSkinButton2@@@std@@@std@@QAE@XZ ; std::vector<CSkinButton2 *,std::allocator<CSkinButton2 *> >::~vector<CSkinButton2 *,std::allocator<CSkinButton2 *> >
$L204636:
  0002a	8b 4d d8	 mov	 ecx, DWORD PTR _this$[ebp]
  0002d	81 c1 f4 00 00
	00		 add	 ecx, 244		; 000000f4H
  00033	e9 00 00 00 00	 jmp	 ??1CxSkinButton@@UAE@XZ	; CxSkinButton::~CxSkinButton
$L204637:
  00038	8b 4d d8	 mov	 ecx, DWORD PTR _this$[ebp]
  0003b	81 c1 18 02 00
	00		 add	 ecx, 536		; 00000218H
  00041	e9 00 00 00 00	 jmp	 ??1CxSkinButton@@UAE@XZ	; CxSkinButton::~CxSkinButton
$L204638:
  00046	8b 4d d8	 mov	 ecx, DWORD PTR _this$[ebp]
  00049	81 c1 3c 03 00
	00		 add	 ecx, 828		; 0000033cH
  0004f	e9 00 00 00 00	 jmp	 ??1CxSkinButton@@UAE@XZ	; CxSkinButton::~CxSkinButton
$L204639:
  00054	8b 4d d8	 mov	 ecx, DWORD PTR _this$[ebp]
  00057	81 c1 60 04 00
	00		 add	 ecx, 1120		; 00000460H
  0005d	e9 00 00 00 00	 jmp	 ??1CxSkinButton@@UAE@XZ	; CxSkinButton::~CxSkinButton
$L204640:
  00062	8b 4d d8	 mov	 ecx, DWORD PTR _this$[ebp]
  00065	81 c1 84 05 00
	00		 add	 ecx, 1412		; 00000584H
  0006b	e9 00 00 00 00	 jmp	 ??1CxSkinButton@@UAE@XZ	; CxSkinButton::~CxSkinButton
$L204641:
  00070	8b 4d d8	 mov	 ecx, DWORD PTR _this$[ebp]
  00073	81 c1 a8 06 00
	00		 add	 ecx, 1704		; 000006a8H
  00079	e9 00 00 00 00	 jmp	 ??1CxSkinButton@@UAE@XZ	; CxSkinButton::~CxSkinButton
$L204642:
  0007e	8b 4d d8	 mov	 ecx, DWORD PTR _this$[ebp]
  00081	81 c1 cc 07 00
	00		 add	 ecx, 1996		; 000007ccH
  00087	e9 00 00 00 00	 jmp	 ??1CSkinButton2@@UAE@XZ	; CSkinButton2::~CSkinButton2
$L204643:
  0008c	8b 4d d8	 mov	 ecx, DWORD PTR _this$[ebp]
  0008f	81 c1 5c 09 00
	00		 add	 ecx, 2396		; 0000095cH
  00095	ff 25 00 00 00
	00		 jmp	 DWORD PTR __imp_??1?$CStringT@DV?$StrTraitMFC_DLL@DV?$ChTraitsCRT@D@ATL@@@@@ATL@@QAE@XZ
$L204644:
  0009b	8b 45 ec	 mov	 eax, DWORD PTR $T204630[ebp]
  0009e	50		 push	 eax
  0009f	e8 00 00 00 00	 call	 ??3CObject@@SGXPAX@Z	; CObject::operator delete
  000a4	c3		 ret	 0
__ehhandler$??0CMainSkinWnd@@QAE@XZ:
  000a5	b8 00 00 00 00	 mov	 eax, OFFSET FLAT:$T204646
  000aa	e9 00 00 00 00	 jmp	 ___CxxFrameHandler
text$x	ENDS
??0CMainSkinWnd@@QAE@XZ ENDP				; CMainSkinWnd::CMainSkinWnd
PUBLIC	??1CMainSkinWnd@@UAE@XZ				; CMainSkinWnd::~CMainSkinWnd
; Function compile flags: /Odt
;	COMDAT ??_GCMainSkinWnd@@UAEPAXI@Z
_TEXT	SEGMENT
_this$ = -4						; size = 4
___flags$ = 8						; size = 4
??_GCMainSkinWnd@@UAEPAXI@Z PROC NEAR			; CMainSkinWnd::`scalar deleting destructor', COMDAT
; _this$ = ecx
  00000	55		 push	 ebp
  00001	8b ec		 mov	 ebp, esp
  00003	51		 push	 ecx
  00004	89 4d fc	 mov	 DWORD PTR _this$[ebp], ecx
  00007	8b 4d fc	 mov	 ecx, DWORD PTR _this$[ebp]
  0000a	e8 00 00 00 00	 call	 ??1CMainSkinWnd@@UAE@XZ	; CMainSkinWnd::~CMainSkinWnd
  0000f	8b 45 08	 mov	 eax, DWORD PTR ___flags$[ebp]
  00012	83 e0 01	 and	 eax, 1
  00015	74 09		 je	 SHORT $L202132
  00017	8b 4d fc	 mov	 ecx, DWORD PTR _this$[ebp]
  0001a	51		 push	 ecx
  0001b	e8 00 00 00 00	 call	 ??3CObject@@SGXPAX@Z	; CObject::operator delete
$L202132:
  00020	8b 45 fc	 mov	 eax, DWORD PTR _this$[ebp]
  00023	8b e5		 mov	 esp, ebp
  00025	5d		 pop	 ebp
  00026	c2 04 00	 ret	 4
??_GCMainSkinWnd@@UAEPAXI@Z ENDP			; CMainSkinWnd::`scalar deleting destructor'
_TEXT	ENDS
PUBLIC	??9const_iterator@?$vector@PAVCSkinButton2@@V?$allocator@PAVCSkinButton2@@@std@@@std@@QBE_NABV012@@Z ; std::vector<CSkinButton2 *,std::allocator<CSkinButton2 *> >::const_iterator::operator!=
PUBLIC	??Diterator@?$vector@PAVCSkinButton2@@V?$allocator@PAVCSkinButton2@@@std@@@std@@QBEAAPAVCSkinButton2@@XZ ; std::vector<CSkinButton2 *,std::allocator<CSkinButton2 *> >::iterator::operator*
PUBLIC	??Eiterator@?$vector@PAVCSkinButton2@@V?$allocator@PAVCSkinButton2@@@std@@@std@@QAE?AV012@H@Z ; std::vector<CSkinButton2 *,std::allocator<CSkinButton2 *> >::iterator::operator++
PUBLIC	?begin@?$vector@PAVCSkinButton2@@V?$allocator@PAVCSkinButton2@@@std@@@std@@QAE?AViterator@12@XZ ; std::vector<CSkinButton2 *,std::allocator<CSkinButton2 *> >::begin
PUBLIC	?end@?$vector@PAVCSkinButton2@@V?$allocator@PAVCSkinButton2@@@std@@@std@@QAE?AViterator@12@XZ ; std::vector<CSkinButton2 *,std::allocator<CSkinButton2 *> >::end
PUBLIC	?clear@?$vector@PAVCSkinButton2@@V?$allocator@PAVCSkinButton2@@@std@@@std@@QAEXXZ ; std::vector<CSkinButton2 *,std::allocator<CSkinButton2 *> >::clear
EXTRN	__imp__SetForegroundWindow@4:NEAR
EXTRN	?AfxGetMainWindow@@YAPAVCWnd@@XZ:NEAR		; AfxGetMainWindow
xdata$x	SEGMENT
$T204675 DD	0ffffffffH
	DD	FLAT:$L204662
	DD	00H
	DD	FLAT:$L204663
	DD	01H
	DD	FLAT:$L204664
	DD	02H
	DD	FLAT:$L204665
	DD	03H
	DD	FLAT:$L204666
	DD	04H
	DD	FLAT:$L204667
	DD	05H
	DD	FLAT:$L204668
	DD	06H
	DD	FLAT:$L204669
	DD	07H
	DD	FLAT:$L204670
	DD	08H
	DD	FLAT:$L204671
$T204673 DD	019930520H
	DD	0aH
	DD	FLAT:$T204675
	DD	2 DUP(00H)
	DD	2 DUP(00H)
; Function compile flags: /Odt
xdata$x	ENDS
_TEXT	SEGMENT
tv167 = -52						; size = 4
tv145 = -48						; size = 4
_this$ = -44						; size = 4
$T204661 = -40						; size = 4
$T204658 = -36						; size = 4
$T204657 = -32						; size = 4
$T204656 = -28						; size = 4
$T204653 = -24						; size = 4
$T204652 = -20						; size = 4
_itor$ = -16						; size = 4
__$EHRec$ = -12						; size = 12
??1CMainSkinWnd@@UAE@XZ PROC NEAR			; CMainSkinWnd::~CMainSkinWnd
; _this$ = ecx

; 39   : {

  00250	55		 push	 ebp
  00251	8b ec		 mov	 ebp, esp
  00253	6a ff		 push	 -1
  00255	68 00 00 00 00	 push	 __ehhandler$??1CMainSkinWnd@@UAE@XZ
  0025a	64 a1 00 00 00
	00		 mov	 eax, DWORD PTR fs:__except_list
  00260	50		 push	 eax
  00261	64 89 25 00 00
	00 00		 mov	 DWORD PTR fs:__except_list, esp
  00268	83 ec 28	 sub	 esp, 40			; 00000028H
  0026b	89 4d d4	 mov	 DWORD PTR _this$[ebp], ecx
  0026e	8b 45 d4	 mov	 eax, DWORD PTR _this$[ebp]
  00271	c7 00 00 00 00
	00		 mov	 DWORD PTR [eax], OFFSET FLAT:??_7CMainSkinWnd@@6B@
  00277	c7 45 fc 09 00
	00 00		 mov	 DWORD PTR __$EHRec$[ebp+8], 9

; 40   : 	//
; 41   : 	::SetForegroundWindow(AfxGetMainWindow()->m_hWnd);

  0027e	e8 00 00 00 00	 call	 ?AfxGetMainWindow@@YAPAVCWnd@@XZ ; AfxGetMainWindow
  00283	8b 48 20	 mov	 ecx, DWORD PTR [eax+32]
  00286	51		 push	 ecx
  00287	ff 15 00 00 00
	00		 call	 DWORD PTR __imp__SetForegroundWindow@4

; 42   : 	if( m_pToolTip)

  0028d	8b 55 d4	 mov	 edx, DWORD PTR _this$[ebp]
  00290	83 ba 54 09 00
	00 00		 cmp	 DWORD PTR [edx+2388], 0
  00297	74 3e		 je	 SHORT $L202136

; 43   : 	{
; 44   : 		delete m_pToolTip;

  00299	8b 45 d4	 mov	 eax, DWORD PTR _this$[ebp]
  0029c	8b 88 54 09 00
	00		 mov	 ecx, DWORD PTR [eax+2388]
  002a2	89 4d e8	 mov	 DWORD PTR $T204653[ebp], ecx
  002a5	8b 55 e8	 mov	 edx, DWORD PTR $T204653[ebp]
  002a8	89 55 ec	 mov	 DWORD PTR $T204652[ebp], edx
  002ab	83 7d ec 00	 cmp	 DWORD PTR $T204652[ebp], 0
  002af	74 12		 je	 SHORT $L204654
  002b1	6a 01		 push	 1
  002b3	8b 45 ec	 mov	 eax, DWORD PTR $T204652[ebp]
  002b6	8b 10		 mov	 edx, DWORD PTR [eax]
  002b8	8b 4d ec	 mov	 ecx, DWORD PTR $T204652[ebp]
  002bb	ff 52 04	 call	 DWORD PTR [edx+4]
  002be	89 45 d0	 mov	 DWORD PTR tv145[ebp], eax
  002c1	eb 07		 jmp	 SHORT $L204655
$L204654:
  002c3	c7 45 d0 00 00
	00 00		 mov	 DWORD PTR tv145[ebp], 0
$L204655:

; 45   : 		m_pToolTip = NULL;

  002ca	8b 45 d4	 mov	 eax, DWORD PTR _this$[ebp]
  002cd	c7 80 54 09 00
	00 00 00 00 00	 mov	 DWORD PTR [eax+2388], 0
$L202136:

; 46   : 	}
; 47   : 	vector<CSkinButton2*>::iterator itor = m_colbtnVec.begin();

  002d7	8d 4d f0	 lea	 ecx, DWORD PTR _itor$[ebp]
  002da	51		 push	 ecx
  002db	8b 4d d4	 mov	 ecx, DWORD PTR _this$[ebp]
  002de	81 c1 e4 00 00
	00		 add	 ecx, 228		; 000000e4H
  002e4	e8 00 00 00 00	 call	 ?begin@?$vector@PAVCSkinButton2@@V?$allocator@PAVCSkinButton2@@@std@@@std@@QAE?AViterator@12@XZ ; std::vector<CSkinButton2 *,std::allocator<CSkinButton2 *> >::begin
$L202259:

; 48   : 	while(itor != m_colbtnVec.end())

  002e9	8d 55 e4	 lea	 edx, DWORD PTR $T204656[ebp]
  002ec	52		 push	 edx
  002ed	8b 4d d4	 mov	 ecx, DWORD PTR _this$[ebp]
  002f0	81 c1 e4 00 00
	00		 add	 ecx, 228		; 000000e4H
  002f6	e8 00 00 00 00	 call	 ?end@?$vector@PAVCSkinButton2@@V?$allocator@PAVCSkinButton2@@@std@@@std@@QAE?AViterator@12@XZ ; std::vector<CSkinButton2 *,std::allocator<CSkinButton2 *> >::end
  002fb	50		 push	 eax
  002fc	8d 4d f0	 lea	 ecx, DWORD PTR _itor$[ebp]
  002ff	e8 00 00 00 00	 call	 ??9const_iterator@?$vector@PAVCSkinButton2@@V?$allocator@PAVCSkinButton2@@@std@@@std@@QBE_NABV012@@Z ; std::vector<CSkinButton2 *,std::allocator<CSkinButton2 *> >::const_iterator::operator!=
  00304	0f b6 c0	 movzx	 eax, al
  00307	85 c0		 test	 eax, eax
  00309	74 42		 je	 SHORT $L202260

; 49   : 	{
; 50   : 		delete (*itor);

  0030b	8d 4d f0	 lea	 ecx, DWORD PTR _itor$[ebp]
  0030e	e8 00 00 00 00	 call	 ??Diterator@?$vector@PAVCSkinButton2@@V?$allocator@PAVCSkinButton2@@@std@@@std@@QBEAAPAVCSkinButton2@@XZ ; std::vector<CSkinButton2 *,std::allocator<CSkinButton2 *> >::iterator::operator*
  00313	8b 08		 mov	 ecx, DWORD PTR [eax]
  00315	89 4d dc	 mov	 DWORD PTR $T204658[ebp], ecx
  00318	8b 55 dc	 mov	 edx, DWORD PTR $T204658[ebp]
  0031b	89 55 e0	 mov	 DWORD PTR $T204657[ebp], edx
  0031e	83 7d e0 00	 cmp	 DWORD PTR $T204657[ebp], 0
  00322	74 12		 je	 SHORT $L204659
  00324	6a 01		 push	 1
  00326	8b 45 e0	 mov	 eax, DWORD PTR $T204657[ebp]
  00329	8b 10		 mov	 edx, DWORD PTR [eax]
  0032b	8b 4d e0	 mov	 ecx, DWORD PTR $T204657[ebp]
  0032e	ff 52 04	 call	 DWORD PTR [edx+4]
  00331	89 45 cc	 mov	 DWORD PTR tv167[ebp], eax
  00334	eb 07		 jmp	 SHORT $L204660
$L204659:
  00336	c7 45 cc 00 00
	00 00		 mov	 DWORD PTR tv167[ebp], 0
$L204660:

; 51   : 		itor++;

  0033d	6a 00		 push	 0
  0033f	8d 45 d8	 lea	 eax, DWORD PTR $T204661[ebp]
  00342	50		 push	 eax
  00343	8d 4d f0	 lea	 ecx, DWORD PTR _itor$[ebp]
  00346	e8 00 00 00 00	 call	 ??Eiterator@?$vector@PAVCSkinButton2@@V?$allocator@PAVCSkinButton2@@@std@@@std@@QAE?AV012@H@Z ; std::vector<CSkinButton2 *,std::allocator<CSkinButton2 *> >::iterator::operator++

; 52   : 	}

  0034b	eb 9c		 jmp	 SHORT $L202259
$L202260:

; 53   : 	m_colbtnVec.clear();

  0034d	8b 4d d4	 mov	 ecx, DWORD PTR _this$[ebp]
  00350	81 c1 e4 00 00
	00		 add	 ecx, 228		; 000000e4H
  00356	e8 00 00 00 00	 call	 ?clear@?$vector@PAVCSkinButton2@@V?$allocator@PAVCSkinButton2@@@std@@@std@@QAEXXZ ; std::vector<CSkinButton2 *,std::allocator<CSkinButton2 *> >::clear

; 54   : }

  0035b	c6 45 fc 08	 mov	 BYTE PTR __$EHRec$[ebp+8], 8
  0035f	8b 4d d4	 mov	 ecx, DWORD PTR _this$[ebp]
  00362	81 c1 5c 09 00
	00		 add	 ecx, 2396		; 0000095cH
  00368	ff 15 00 00 00
	00		 call	 DWORD PTR __imp_??1?$CStringT@DV?$StrTraitMFC_DLL@DV?$ChTraitsCRT@D@ATL@@@@@ATL@@QAE@XZ
  0036e	c6 45 fc 07	 mov	 BYTE PTR __$EHRec$[ebp+8], 7
  00372	8b 4d d4	 mov	 ecx, DWORD PTR _this$[ebp]
  00375	81 c1 cc 07 00
	00		 add	 ecx, 1996		; 000007ccH
  0037b	e8 00 00 00 00	 call	 ??1CSkinButton2@@UAE@XZ	; CSkinButton2::~CSkinButton2
  00380	c6 45 fc 06	 mov	 BYTE PTR __$EHRec$[ebp+8], 6
  00384	8b 4d d4	 mov	 ecx, DWORD PTR _this$[ebp]
  00387	81 c1 a8 06 00
	00		 add	 ecx, 1704		; 000006a8H
  0038d	e8 00 00 00 00	 call	 ??1CxSkinButton@@UAE@XZ	; CxSkinButton::~CxSkinButton
  00392	c6 45 fc 05	 mov	 BYTE PTR __$EHRec$[ebp+8], 5
  00396	8b 4d d4	 mov	 ecx, DWORD PTR _this$[ebp]
  00399	81 c1 84 05 00
	00		 add	 ecx, 1412		; 00000584H
  0039f	e8 00 00 00 00	 call	 ??1CxSkinButton@@UAE@XZ	; CxSkinButton::~CxSkinButton
  003a4	c6 45 fc 04	 mov	 BYTE PTR __$EHRec$[ebp+8], 4
  003a8	8b 4d d4	 mov	 ecx, DWORD PTR _this$[ebp]
  003ab	81 c1 60 04 00
	00		 add	 ecx, 1120		; 00000460H
  003b1	e8 00 00 00 00	 call	 ??1CxSkinButton@@UAE@XZ	; CxSkinButton::~CxSkinButton
  003b6	c6 45 fc 03	 mov	 BYTE PTR __$EHRec$[ebp+8], 3
  003ba	8b 4d d4	 mov	 ecx, DWORD PTR _this$[ebp]
  003bd	81 c1 3c 03 00
	00		 add	 ecx, 828		; 0000033cH
  003c3	e8 00 00 00 00	 call	 ??1CxSkinButton@@UAE@XZ	; CxSkinButton::~CxSkinButton
  003c8	c6 45 fc 02	 mov	 BYTE PTR __$EHRec$[ebp+8], 2
  003cc	8b 4d d4	 mov	 ecx, DWORD PTR _this$[ebp]
  003cf	81 c1 18 02 00
	00		 add	 ecx, 536		; 00000218H
  003d5	e8 00 00 00 00	 call	 ??1CxSkinButton@@UAE@XZ	; CxSkinButton::~CxSkinButton
  003da	c6 45 fc 01	 mov	 BYTE PTR __$EHRec$[ebp+8], 1
  003de	8b 4d d4	 mov	 ecx, DWORD PTR _this$[ebp]
  003e1	81 c1 f4 00 00
	00		 add	 ecx, 244		; 000000f4H
  003e7	e8 00 00 00 00	 call	 ??1CxSkinButton@@UAE@XZ	; CxSkinButton::~CxSkinButton
  003ec	c6 45 fc 00	 mov	 BYTE PTR __$EHRec$[ebp+8], 0
  003f0	8b 4d d4	 mov	 ecx, DWORD PTR _this$[ebp]
  003f3	81 c1 e4 00 00
	00		 add	 ecx, 228		; 000000e4H
  003f9	e8 00 00 00 00	 call	 ??1?$vector@PAVCSkinButton2@@V?$allocator@PAVCSkinButton2@@@std@@@std@@QAE@XZ ; std::vector<CSkinButton2 *,std::allocator<CSkinButton2 *> >::~vector<CSkinButton2 *,std::allocator<CSkinButton2 *> >
  003fe	c7 45 fc ff ff
	ff ff		 mov	 DWORD PTR __$EHRec$[ebp+8], -1
  00405	8b 4d d4	 mov	 ecx, DWORD PTR _this$[ebp]
  00408	e8 00 00 00 00	 call	 ??1CFrameWnd@@UAE@XZ	; CFrameWnd::~CFrameWnd
  0040d	8b 4d f4	 mov	 ecx, DWORD PTR __$EHRec$[ebp]
  00410	64 89 0d 00 00
	00 00		 mov	 DWORD PTR fs:__except_list, ecx
  00417	8b e5		 mov	 esp, ebp
  00419	5d		 pop	 ebp
  0041a	c3		 ret	 0
_TEXT	ENDS
text$x	SEGMENT
$L204662:
  000af	8b 4d d4	 mov	 ecx, DWORD PTR _this$[ebp]
  000b2	e9 00 00 00 00	 jmp	 ??1CFrameWnd@@UAE@XZ	; CFrameWnd::~CFrameWnd
$L204663:
  000b7	8b 4d d4	 mov	 ecx, DWORD PTR _this$[ebp]
  000ba	81 c1 e4 00 00
	00		 add	 ecx, 228		; 000000e4H
  000c0	e9 00 00 00 00	 jmp	 ??1?$vector@PAVCSkinButton2@@V?$allocator@PAVCSkinButton2@@@std@@@std@@QAE@XZ ; std::vector<CSkinButton2 *,std::allocator<CSkinButton2 *> >::~vector<CSkinButton2 *,std::allocator<CSkinButton2 *> >
$L204664:
  000c5	8b 4d d4	 mov	 ecx, DWORD PTR _this$[ebp]
  000c8	81 c1 f4 00 00
	00		 add	 ecx, 244		; 000000f4H
  000ce	e9 00 00 00 00	 jmp	 ??1CxSkinButton@@UAE@XZ	; CxSkinButton::~CxSkinButton
$L204665:
  000d3	8b 4d d4	 mov	 ecx, DWORD PTR _this$[ebp]
  000d6	81 c1 18 02 00
	00		 add	 ecx, 536		; 00000218H
  000dc	e9 00 00 00 00	 jmp	 ??1CxSkinButton@@UAE@XZ	; CxSkinButton::~CxSkinButton
$L204666:
  000e1	8b 4d d4	 mov	 ecx, DWORD PTR _this$[ebp]
  000e4	81 c1 3c 03 00
	00		 add	 ecx, 828		; 0000033cH
  000ea	e9 00 00 00 00	 jmp	 ??1CxSkinButton@@UAE@XZ	; CxSkinButton::~CxSkinButton
$L204667:
  000ef	8b 4d d4	 mov	 ecx, DWORD PTR _this$[ebp]
  000f2	81 c1 60 04 00
	00		 add	 ecx, 1120		; 00000460H
  000f8	e9 00 00 00 00	 jmp	 ??1CxSkinButton@@UAE@XZ	; CxSkinButton::~CxSkinButton
$L204668:
  000fd	8b 4d d4	 mov	 ecx, DWORD PTR _this$[ebp]
  00100	81 c1 84 05 00
	00		 add	 ecx, 1412		; 00000584H
  00106	e9 00 00 00 00	 jmp	 ??1CxSkinButton@@UAE@XZ	; CxSkinButton::~CxSkinButton
$L204669:
  0010b	8b 4d d4	 mov	 ecx, DWORD PTR _this$[ebp]
  0010e	81 c1 a8 06 00
	00		 add	 ecx, 1704		; 000006a8H
  00114	e9 00 00 00 00	 jmp	 ??1CxSkinButton@@UAE@XZ	; CxSkinButton::~CxSkinButton
$L204670:
  00119	8b 4d d4	 mov	 ecx, DWORD PTR _this$[ebp]
  0011c	81 c1 cc 07 00
	00		 add	 ecx, 1996		; 000007ccH
  00122	e9 00 00 00 00	 jmp	 ??1CSkinButton2@@UAE@XZ	; CSkinButton2::~CSkinButton2
$L204671:
  00127	8b 4d d4	 mov	 ecx, DWORD PTR _this$[ebp]
  0012a	81 c1 5c 09 00
	00		 add	 ecx, 2396		; 0000095cH
  00130	ff 25 00 00 00
	00		 jmp	 DWORD PTR __imp_??1?$CStringT@DV?$StrTraitMFC_DLL@DV?$ChTraitsCRT@D@ATL@@@@@ATL@@QAE@XZ
__ehhandler$??1CMainSkinWnd@@UAE@XZ:
  00136	b8 00 00 00 00	 mov	 eax, OFFSET FLAT:$T204673
  0013b	e9 00 00 00 00	 jmp	 ___CxxFrameHandler
text$x	ENDS
??1CMainSkinWnd@@UAE@XZ ENDP				; CMainSkinWnd::~CMainSkinWnd
PUBLIC	?GetThisMessageMap@CMainSkinWnd@@KGPBUAFX_MSGMAP@@XZ ; CMainSkinWnd::GetThisMessageMap
; Function compile flags: /Odt
_TEXT	SEGMENT
?GetThisMessageMap@CMainSkinWnd@@KGPBUAFX_MSGMAP@@XZ PROC NEAR ; CMainSkinWnd::GetThisMessageMap

; 56   : BEGIN_MESSAGE_MAP(CMainSkinWnd, CFrameWnd)

  00420	55		 push	 ebp
  00421	8b ec		 mov	 ebp, esp
  00423	b8 00 00 00 00	 mov	 eax, OFFSET FLAT:?messageMap@CMainSkinWnd@@1UAFX_MSGMAP@@B ; CMainSkinWnd::messageMap
  00428	5d		 pop	 ebp
  00429	c3		 ret	 0
?GetThisMessageMap@CMainSkinWnd@@KGPBUAFX_MSGMAP@@XZ ENDP ; CMainSkinWnd::GetThisMessageMap
; Function compile flags: /Odt
_this$ = -4						; size = 4
?GetMessageMap@CMainSkinWnd@@MBEPBUAFX_MSGMAP@@XZ PROC NEAR ; CMainSkinWnd::GetMessageMap
; _this$ = ecx

; 56   : BEGIN_MESSAGE_MAP(CMainSkinWnd, CFrameWnd)

  00430	55		 push	 ebp
  00431	8b ec		 mov	 ebp, esp
  00433	51		 push	 ecx
  00434	89 4d fc	 mov	 DWORD PTR _this$[ebp], ecx
  00437	b8 00 00 00 00	 mov	 eax, OFFSET FLAT:?messageMap@CMainSkinWnd@@1UAFX_MSGMAP@@B ; CMainSkinWnd::messageMap
  0043c	8b e5		 mov	 esp, ebp
  0043e	5d		 pop	 ebp
  0043f	c3		 ret	 0
?GetMessageMap@CMainSkinWnd@@MBEPBUAFX_MSGMAP@@XZ ENDP	; CMainSkinWnd::GetMessageMap
_TEXT	ENDS
PUBLIC	?GetWindowRect@CWnd@@QBEXPAUtagRECT@@@Z		; CWnd::GetWindowRect
PUBLIC	??0CRect@@QAE@XZ				; CRect::CRect
PUBLIC	?ShowToolTip@CMainSkinWnd@@QAEXH@Z		; CMainSkinWnd::ShowToolTip
EXTRN	__imp_??0?$CStringT@DV?$StrTraitMFC_DLL@DV?$ChTraitsCRT@D@ATL@@@@@ATL@@QAE@ABV01@@Z:NEAR
EXTRN	?ShowToolTips@CCWToolTips@@QAEXV?$CStringT@DV?$StrTraitMFC_DLL@DV?$ChTraitsCRT@D@ATL@@@@@ATL@@VCRect@@H@Z:NEAR ; CCWToolTips::ShowToolTips
EXTRN	?HideTooTips@CCWToolTips@@QAEXXZ:NEAR		; CCWToolTips::HideTooTips
; Function compile flags: /Odt
_TEXT	SEGMENT
tv135 = -44						; size = 4
_this$ = -40						; size = 4
$T204680 = -36						; size = 4
$T204679 = -32						; size = 16
_rc$202326 = -16					; size = 16
_bShow$ = 8						; size = 4
?ShowToolTip@CMainSkinWnd@@QAEXH@Z PROC NEAR		; CMainSkinWnd::ShowToolTip
; _this$ = ecx

; 75   : {

  00440	55		 push	 ebp
  00441	8b ec		 mov	 ebp, esp
  00443	83 ec 2c	 sub	 esp, 44			; 0000002cH
  00446	89 4d d8	 mov	 DWORD PTR _this$[ebp], ecx

; 76   : 	if(bShow)

  00449	83 7d 08 00	 cmp	 DWORD PTR _bShow$[ebp], 0
  0044d	0f 84 88 00 00
	00		 je	 $L202325

; 77   : 	{
; 78   : 		CRect rc;

  00453	8d 4d f0	 lea	 ecx, DWORD PTR _rc$202326[ebp]
  00456	e8 00 00 00 00	 call	 ??0CRect@@QAE@XZ	; CRect::CRect

; 79   : 		GetWindowRect(&rc);

  0045b	8d 45 f0	 lea	 eax, DWORD PTR _rc$202326[ebp]
  0045e	50		 push	 eax
  0045f	8b 4d d8	 mov	 ecx, DWORD PTR _this$[ebp]
  00462	e8 00 00 00 00	 call	 ?GetWindowRect@CWnd@@QBEXPAUtagRECT@@@Z ; CWnd::GetWindowRect

; 80   : 		m_pToolTip->ShowToolTips(m_ToolTipText, CRect(rc.left,rc.top +238,rc.left +300 ,rc.top + 260), 2000);

  00467	68 d0 07 00 00	 push	 2000			; 000007d0H
  0046c	8b 4d f4	 mov	 ecx, DWORD PTR _rc$202326[ebp+4]
  0046f	81 c1 04 01 00
	00		 add	 ecx, 260		; 00000104H
  00475	51		 push	 ecx
  00476	8b 55 f0	 mov	 edx, DWORD PTR _rc$202326[ebp]
  00479	81 c2 2c 01 00
	00		 add	 edx, 300		; 0000012cH
  0047f	52		 push	 edx
  00480	8b 45 f4	 mov	 eax, DWORD PTR _rc$202326[ebp+4]
  00483	05 ee 00 00 00	 add	 eax, 238		; 000000eeH
  00488	50		 push	 eax
  00489	8b 4d f0	 mov	 ecx, DWORD PTR _rc$202326[ebp]
  0048c	51		 push	 ecx
  0048d	8d 4d e0	 lea	 ecx, DWORD PTR $T204679[ebp]
  00490	e8 00 00 00 00	 call	 ??0CRect@@QAE@HHHH@Z	; CRect::CRect
  00495	83 ec 10	 sub	 esp, 16			; 00000010H
  00498	8b d4		 mov	 edx, esp
  0049a	8b 08		 mov	 ecx, DWORD PTR [eax]
  0049c	89 0a		 mov	 DWORD PTR [edx], ecx
  0049e	8b 48 04	 mov	 ecx, DWORD PTR [eax+4]
  004a1	89 4a 04	 mov	 DWORD PTR [edx+4], ecx
  004a4	8b 48 08	 mov	 ecx, DWORD PTR [eax+8]
  004a7	89 4a 08	 mov	 DWORD PTR [edx+8], ecx
  004aa	8b 40 0c	 mov	 eax, DWORD PTR [eax+12]
  004ad	89 42 0c	 mov	 DWORD PTR [edx+12], eax
  004b0	8b 4d d8	 mov	 ecx, DWORD PTR _this$[ebp]
  004b3	81 c1 5c 09 00
	00		 add	 ecx, 2396		; 0000095cH
  004b9	51		 push	 ecx
  004ba	8b d4		 mov	 edx, esp
  004bc	89 65 dc	 mov	 DWORD PTR $T204680[ebp], esp
  004bf	51		 push	 ecx
  004c0	8b ca		 mov	 ecx, edx
  004c2	ff 15 00 00 00
	00		 call	 DWORD PTR __imp_??0?$CStringT@DV?$StrTraitMFC_DLL@DV?$ChTraitsCRT@D@ATL@@@@@ATL@@QAE@ABV01@@Z
  004c8	89 45 d4	 mov	 DWORD PTR tv135[ebp], eax
  004cb	8b 45 d8	 mov	 eax, DWORD PTR _this$[ebp]
  004ce	8b 88 54 09 00
	00		 mov	 ecx, DWORD PTR [eax+2388]
  004d4	e8 00 00 00 00	 call	 ?ShowToolTips@CCWToolTips@@QAEXV?$CStringT@DV?$StrTraitMFC_DLL@DV?$ChTraitsCRT@D@ATL@@@@@ATL@@VCRect@@H@Z ; CCWToolTips::ShowToolTips

; 81   : 	}
; 82   : 	else 

  004d9	eb 0e		 jmp	 SHORT $L202324
$L202325:

; 83   : 		m_pToolTip->HideTooTips();

  004db	8b 4d d8	 mov	 ecx, DWORD PTR _this$[ebp]
  004de	8b 89 54 09 00
	00		 mov	 ecx, DWORD PTR [ecx+2388]
  004e4	e8 00 00 00 00	 call	 ?HideTooTips@CCWToolTips@@QAEXXZ ; CCWToolTips::HideTooTips
$L202324:

; 84   : }

  004e9	8b e5		 mov	 esp, ebp
  004eb	5d		 pop	 ebp
  004ec	c2 04 00	 ret	 4
?ShowToolTip@CMainSkinWnd@@QAEXH@Z ENDP			; CMainSkinWnd::ShowToolTip
_TEXT	ENDS
PUBLIC	?SetToolTip@CMainSkinWnd@@QAEXV?$CStringT@DV?$StrTraitMFC_DLL@DV?$ChTraitsCRT@D@ATL@@@@@ATL@@@Z ; CMainSkinWnd::SetToolTip
EXTRN	__imp_??4?$CStringT@DV?$StrTraitMFC_DLL@DV?$ChTraitsCRT@D@ATL@@@@@ATL@@QAEAAV01@ABV01@@Z:NEAR
xdata$x	SEGMENT
$T204687 DD	0ffffffffH
	DD	FLAT:$L204683
$T204685 DD	019930520H
	DD	01H
	DD	FLAT:$T204687
	DD	2 DUP(00H)
	DD	2 DUP(00H)
; Function compile flags: /Odt
xdata$x	ENDS
_TEXT	SEGMENT
_this$ = -16						; size = 4
__$EHRec$ = -12						; size = 12
_str$ = 8						; size = 4
?SetToolTip@CMainSkinWnd@@QAEXV?$CStringT@DV?$StrTraitMFC_DLL@DV?$ChTraitsCRT@D@ATL@@@@@ATL@@@Z PROC NEAR ; CMainSkinWnd::SetToolTip
; _this$ = ecx

; 87   : {

  004f0	55		 push	 ebp
  004f1	8b ec		 mov	 ebp, esp
  004f3	6a ff		 push	 -1
  004f5	68 00 00 00 00	 push	 __ehhandler$?SetToolTip@CMainSkinWnd@@QAEXV?$CStringT@DV?$StrTraitMFC_DLL@DV?$ChTraitsCRT@D@ATL@@@@@ATL@@@Z
  004fa	64 a1 00 00 00
	00		 mov	 eax, DWORD PTR fs:__except_list
  00500	50		 push	 eax
  00501	64 89 25 00 00
	00 00		 mov	 DWORD PTR fs:__except_list, esp
  00508	51		 push	 ecx
  00509	89 4d f0	 mov	 DWORD PTR _this$[ebp], ecx
  0050c	c7 45 fc 00 00
	00 00		 mov	 DWORD PTR __$EHRec$[ebp+8], 0

; 88   : 	m_ToolTipText = str;

  00513	8d 45 08	 lea	 eax, DWORD PTR _str$[ebp]
  00516	50		 push	 eax
  00517	8b 4d f0	 mov	 ecx, DWORD PTR _this$[ebp]
  0051a	81 c1 5c 09 00
	00		 add	 ecx, 2396		; 0000095cH
  00520	ff 15 00 00 00
	00		 call	 DWORD PTR __imp_??4?$CStringT@DV?$StrTraitMFC_DLL@DV?$ChTraitsCRT@D@ATL@@@@@ATL@@QAEAAV01@ABV01@@Z

; 89   : }

  00526	c7 45 fc ff ff
	ff ff		 mov	 DWORD PTR __$EHRec$[ebp+8], -1
  0052d	8d 4d 08	 lea	 ecx, DWORD PTR _str$[ebp]
  00530	ff 15 00 00 00
	00		 call	 DWORD PTR __imp_??1?$CStringT@DV?$StrTraitMFC_DLL@DV?$ChTraitsCRT@D@ATL@@@@@ATL@@QAE@XZ
  00536	8b 4d f4	 mov	 ecx, DWORD PTR __$EHRec$[ebp]
  00539	64 89 0d 00 00
	00 00		 mov	 DWORD PTR fs:__except_list, ecx
  00540	8b e5		 mov	 esp, ebp
  00542	5d		 pop	 ebp
  00543	c2 04 00	 ret	 4
_TEXT	ENDS
text$x	SEGMENT
$L204683:
  00140	8d 4d 08	 lea	 ecx, DWORD PTR _str$[ebp]
  00143	ff 25 00 00 00
	00		 jmp	 DWORD PTR __imp_??1?$CStringT@DV?$StrTraitMFC_DLL@DV?$ChTraitsCRT@D@ATL@@@@@ATL@@QAE@XZ
__ehhandler$?SetToolTip@CMainSkinWnd@@QAEXV?$CStringT@DV?$StrTraitMFC_DLL@DV?$ChTraitsCRT@D@ATL@@@@@ATL@@@Z:
  00149	b8 00 00 00 00	 mov	 eax, OFFSET FLAT:$T204685
  0014e	e9 00 00 00 00	 jmp	 ___CxxFrameHandler
text$x	ENDS
?SetToolTip@CMainSkinWnd@@QAEXV?$CStringT@DV?$StrTraitMFC_DLL@DV?$ChTraitsCRT@D@ATL@@@@@ATL@@@Z ENDP ; CMainSkinWnd::SetToolTip
EXTRN	?GetObjectA@CSkinMgrV1@@SAPAVIChangeColorMgr@@XZ:NEAR ; CSkinMgrV1::GetObjectA
; Function compile flags: /Odt
_TEXT	SEGMENT
tv69 = -8						; size = 4
_this$ = -4						; size = 4
?OnCloseDlg@CMainSkinWnd@@QAEXXZ PROC NEAR		; CMainSkinWnd::OnCloseDlg
; _this$ = ecx

; 91   : {

  00550	55		 push	 ebp
  00551	8b ec		 mov	 ebp, esp
  00553	83 ec 08	 sub	 esp, 8
  00556	89 4d fc	 mov	 DWORD PTR _this$[ebp], ecx

; 92   : 	this->DestroyWindow();

  00559	8b 45 fc	 mov	 eax, DWORD PTR _this$[ebp]
  0055c	8b 10		 mov	 edx, DWORD PTR [eax]
  0055e	8b 4d fc	 mov	 ecx, DWORD PTR _this$[ebp]
  00561	ff 52 68	 call	 DWORD PTR [edx+104]

; 93   : 	CSkinMgrV1::GetObject()->CloseSkinWnd();

  00564	e8 00 00 00 00	 call	 ?GetObjectA@CSkinMgrV1@@SAPAVIChangeColorMgr@@XZ ; CSkinMgrV1::GetObjectA
  00569	89 45 f8	 mov	 DWORD PTR tv69[ebp], eax
  0056c	8b 45 f8	 mov	 eax, DWORD PTR tv69[ebp]
  0056f	8b 10		 mov	 edx, DWORD PTR [eax]
  00571	8b 4d f8	 mov	 ecx, DWORD PTR tv69[ebp]
  00574	ff 52 0c	 call	 DWORD PTR [edx+12]

; 94   : }

  00577	8b e5		 mov	 esp, ebp
  00579	5d		 pop	 ebp
  0057a	c3		 ret	 0
?OnCloseDlg@CMainSkinWnd@@QAEXXZ ENDP			; CMainSkinWnd::OnCloseDlg
_TEXT	ENDS
PUBLIC	?SetRect@CRect@@QAEXHHHH@Z			; CRect::SetRect
PUBLIC	?MoveWindow@CWnd@@QAEXPBUtagRECT@@H@Z		; CWnd::MoveWindow
; Function compile flags: /Odt
_TEXT	SEGMENT
_this$ = -20						; size = 4
_rctip$ = -16						; size = 16
_x$ = 8							; size = 4
_y$ = 12						; size = 4
?OnMove@CMainSkinWnd@@QAEXHH@Z PROC NEAR		; CMainSkinWnd::OnMove
; _this$ = ecx

; 97   : {

  00580	55		 push	 ebp
  00581	8b ec		 mov	 ebp, esp
  00583	83 ec 14	 sub	 esp, 20			; 00000014H
  00586	89 4d ec	 mov	 DWORD PTR _this$[ebp], ecx

; 98   : 	CRect rctip;

  00589	8d 4d f0	 lea	 ecx, DWORD PTR _rctip$[ebp]
  0058c	e8 00 00 00 00	 call	 ??0CRect@@QAE@XZ	; CRect::CRect

; 99   : 	rctip.SetRect(x,y+240,x+300,y+260);

  00591	8b 45 0c	 mov	 eax, DWORD PTR _y$[ebp]
  00594	05 04 01 00 00	 add	 eax, 260		; 00000104H
  00599	50		 push	 eax
  0059a	8b 4d 08	 mov	 ecx, DWORD PTR _x$[ebp]
  0059d	81 c1 2c 01 00
	00		 add	 ecx, 300		; 0000012cH
  005a3	51		 push	 ecx
  005a4	8b 55 0c	 mov	 edx, DWORD PTR _y$[ebp]
  005a7	81 c2 f0 00 00
	00		 add	 edx, 240		; 000000f0H
  005ad	52		 push	 edx
  005ae	8b 45 08	 mov	 eax, DWORD PTR _x$[ebp]
  005b1	50		 push	 eax
  005b2	8d 4d f0	 lea	 ecx, DWORD PTR _rctip$[ebp]
  005b5	e8 00 00 00 00	 call	 ?SetRect@CRect@@QAEXHHHH@Z ; CRect::SetRect

; 100  : 	m_pToolTip->MoveWindow(&rctip);

  005ba	6a 01		 push	 1
  005bc	8d 4d f0	 lea	 ecx, DWORD PTR _rctip$[ebp]
  005bf	51		 push	 ecx
  005c0	8b 55 ec	 mov	 edx, DWORD PTR _this$[ebp]
  005c3	8b 8a 54 09 00
	00		 mov	 ecx, DWORD PTR [edx+2388]
  005c9	e8 00 00 00 00	 call	 ?MoveWindow@CWnd@@QAEXPBUtagRECT@@H@Z ; CWnd::MoveWindow

; 101  : }

  005ce	8b e5		 mov	 esp, ebp
  005d0	5d		 pop	 ebp
  005d1	c2 08 00	 ret	 8
?OnMove@CMainSkinWnd@@QAEXHH@Z ENDP			; CMainSkinWnd::OnMove
_TEXT	ENDS
PUBLIC	?size@?$vector@PAVCSkinButton2@@V?$allocator@PAVCSkinButton2@@@std@@@std@@QBEIXZ ; std::vector<CSkinButton2 *,std::allocator<CSkinButton2 *> >::size
PUBLIC	??A?$vector@PAVCSkinButton2@@V?$allocator@PAVCSkinButton2@@@std@@@std@@QAEAAPAVCSkinButton2@@I@Z ; std::vector<CSkinButton2 *,std::allocator<CSkinButton2 *> >::operator[]
EXTRN	__imp_?c_str@?$basic_string@DU?$char_traits@D@std@@V?$allocator@D@2@@std@@QBEPBDXZ:NEAR
EXTRN	__imp_??0?$CStringT@DV?$StrTraitMFC_DLL@DV?$ChTraitsCRT@D@ATL@@@@@ATL@@QAE@PBD@Z:NEAR
EXTRN	?SetConfigIntValue@AfxUserConfig@@QAEXABV?$basic_string@DU?$char_traits@D@std@@V?$allocator@D@2@@std@@0H_N@Z:NEAR ; AfxUserConfig::SetConfigIntValue
EXTRN	?SetCheck@CSkinButton2@@QAEXH@Z:NEAR		; CSkinButton2::SetCheck
EXTRN	?GetCheck@CSkinButton2@@QBEHXZ:NEAR		; CSkinButton2::GetCheck
EXTRN	?GetBKColor@CSkinButton2@@QBEKXZ:NEAR		; CSkinButton2::GetBKColor
EXTRN	__imp_??0?$basic_string@DU?$char_traits@D@std@@V?$allocator@D@2@@std@@QAE@PBD@Z:NEAR
EXTRN	__imp_??1?$basic_string@DU?$char_traits@D@std@@V?$allocator@D@2@@std@@QAE@XZ:NEAR
EXTRN	?AfxGetUIManager@@YAPAVIUIManager@@XZ:NEAR	; AfxGetUIManager
EXTRN	?AfxGetUserConfig@@YAPAVAfxUserConfig@@XZ:NEAR	; AfxGetUserConfig
xdata$x	SEGMENT
$T204704 DD	0ffffffffH
	DD	FLAT:$L204697
	DD	0ffffffffH
	DD	FLAT:$L204699
	DD	01H
	DD	FLAT:$L204700
$T204702 DD	019930520H
	DD	03H
	DD	FLAT:$T204704
	DD	2 DUP(00H)
	DD	2 DUP(00H)
; Function compile flags: /Odt
xdata$x	ENDS
_TEXT	SEGMENT
tv254 = -152						; size = 4
tv248 = -148						; size = 4
tv303 = -144						; size = 4
tv236 = -140						; size = 4
tv231 = -136						; size = 4
tv300 = -132						; size = 4
tv306 = -128						; size = 4
tv298 = -124						; size = 4
tv187 = -120						; size = 4
tv182 = -116						; size = 4
tv162 = -112						; size = 4
tv157 = -108						; size = 4
tv151 = -104						; size = 4
tv146 = -100						; size = 4
_this$ = -96						; size = 4
$T204695 = -92						; size = 28
$T204694 = -64						; size = 28
$T204693 = -36						; size = 4
$T204692 = -32						; size = 4
$T204691 = -28						; size = 4
_s$202356 = -24						; size = 4
_i$202348 = -20						; size = 4
_col$202354 = -16					; size = 4
__$EHRec$ = -12						; size = 12
_nID$ = 8						; size = 4
?OnColor@CMainSkinWnd@@QAEXI@Z PROC NEAR		; CMainSkinWnd::OnColor
; _this$ = ecx

; 104  : {

  005e0	55		 push	 ebp
  005e1	8b ec		 mov	 ebp, esp
  005e3	6a ff		 push	 -1
  005e5	68 00 00 00 00	 push	 __ehhandler$?OnColor@CMainSkinWnd@@QAEXI@Z
  005ea	64 a1 00 00 00
	00		 mov	 eax, DWORD PTR fs:__except_list
  005f0	50		 push	 eax
  005f1	64 89 25 00 00
	00 00		 mov	 DWORD PTR fs:__except_list, esp
  005f8	81 ec 8c 00 00
	00		 sub	 esp, 140		; 0000008cH
  005fe	89 4d a0	 mov	 DWORD PTR _this$[ebp], ecx

; 105  : 	//if( nID-ID_CLO_BTN_BEGAIN == 0 ) return;
; 106  : 	if( m_colbtnVec.size() > 0 )

  00601	8b 4d a0	 mov	 ecx, DWORD PTR _this$[ebp]
  00604	81 c1 e4 00 00
	00		 add	 ecx, 228		; 000000e4H
  0060a	e8 00 00 00 00	 call	 ?size@?$vector@PAVCSkinButton2@@V?$allocator@PAVCSkinButton2@@@std@@@std@@QBEIXZ ; std::vector<CSkinButton2 *,std::allocator<CSkinButton2 *> >::size
  0060f	85 c0		 test	 eax, eax
  00611	0f 86 f3 02 00
	00		 jbe	 $L202346

; 107  : 	{
; 108  : 		for( int i=0; i<m_colbtnVec.size(); i++ )

  00617	c7 45 ec 00 00
	00 00		 mov	 DWORD PTR _i$202348[ebp], 0
  0061e	eb 09		 jmp	 SHORT $L202349
$L202350:
  00620	8b 45 ec	 mov	 eax, DWORD PTR _i$202348[ebp]
  00623	83 c0 01	 add	 eax, 1
  00626	89 45 ec	 mov	 DWORD PTR _i$202348[ebp], eax
$L202349:
  00629	8b 4d a0	 mov	 ecx, DWORD PTR _this$[ebp]
  0062c	81 c1 e4 00 00
	00		 add	 ecx, 228		; 000000e4H
  00632	e8 00 00 00 00	 call	 ?size@?$vector@PAVCSkinButton2@@V?$allocator@PAVCSkinButton2@@@std@@@std@@QBEIXZ ; std::vector<CSkinButton2 *,std::allocator<CSkinButton2 *> >::size
  00637	39 45 ec	 cmp	 DWORD PTR _i$202348[ebp], eax
  0063a	73 3b		 jae	 SHORT $L202351

; 109  : 		{
; 110  : 			if( m_colbtnVec[i]->GetCheck() == 1 )

  0063c	8b 4d ec	 mov	 ecx, DWORD PTR _i$202348[ebp]
  0063f	51		 push	 ecx
  00640	8b 4d a0	 mov	 ecx, DWORD PTR _this$[ebp]
  00643	81 c1 e4 00 00
	00		 add	 ecx, 228		; 000000e4H
  00649	e8 00 00 00 00	 call	 ??A?$vector@PAVCSkinButton2@@V?$allocator@PAVCSkinButton2@@@std@@@std@@QAEAAPAVCSkinButton2@@I@Z ; std::vector<CSkinButton2 *,std::allocator<CSkinButton2 *> >::operator[]
  0064e	8b 08		 mov	 ecx, DWORD PTR [eax]
  00650	e8 00 00 00 00	 call	 ?GetCheck@CSkinButton2@@QBEHXZ ; CSkinButton2::GetCheck
  00655	83 f8 01	 cmp	 eax, 1
  00658	75 1b		 jne	 SHORT $L202352

; 111  : 				m_colbtnVec[i]->SetCheck(0);

  0065a	6a 00		 push	 0
  0065c	8b 55 ec	 mov	 edx, DWORD PTR _i$202348[ebp]
  0065f	52		 push	 edx
  00660	8b 4d a0	 mov	 ecx, DWORD PTR _this$[ebp]
  00663	81 c1 e4 00 00
	00		 add	 ecx, 228		; 000000e4H
  00669	e8 00 00 00 00	 call	 ??A?$vector@PAVCSkinButton2@@V?$allocator@PAVCSkinButton2@@@std@@@std@@QAEAAPAVCSkinButton2@@I@Z ; std::vector<CSkinButton2 *,std::allocator<CSkinButton2 *> >::operator[]
  0066e	8b 08		 mov	 ecx, DWORD PTR [eax]
  00670	e8 00 00 00 00	 call	 ?SetCheck@CSkinButton2@@QAEXH@Z ; CSkinButton2::SetCheck
$L202352:

; 112  : 		}

  00675	eb a9		 jmp	 SHORT $L202350
$L202351:

; 113  : 		if( m_colBtnMore.GetCheck() ) m_colBtnMore.SetCheck(0);

  00677	8b 4d a0	 mov	 ecx, DWORD PTR _this$[ebp]
  0067a	81 c1 cc 07 00
	00		 add	 ecx, 1996		; 000007ccH
  00680	e8 00 00 00 00	 call	 ?GetCheck@CSkinButton2@@QBEHXZ ; CSkinButton2::GetCheck
  00685	85 c0		 test	 eax, eax
  00687	74 10		 je	 SHORT $L202353
  00689	6a 00		 push	 0
  0068b	8b 4d a0	 mov	 ecx, DWORD PTR _this$[ebp]
  0068e	81 c1 cc 07 00
	00		 add	 ecx, 1996		; 000007ccH
  00694	e8 00 00 00 00	 call	 ?SetCheck@CSkinButton2@@QAEXH@Z ; CSkinButton2::SetCheck
$L202353:

; 114  : 
; 115  : 		m_colbtnVec[nID-ID_CLO_BTN_BEGAIN]->SetCheck(1);

  00699	6a 01		 push	 1
  0069b	8b 45 08	 mov	 eax, DWORD PTR _nID$[ebp]
  0069e	2d 30 75 00 00	 sub	 eax, 30000		; 00007530H
  006a3	50		 push	 eax
  006a4	8b 4d a0	 mov	 ecx, DWORD PTR _this$[ebp]
  006a7	81 c1 e4 00 00
	00		 add	 ecx, 228		; 000000e4H
  006ad	e8 00 00 00 00	 call	 ??A?$vector@PAVCSkinButton2@@V?$allocator@PAVCSkinButton2@@@std@@@std@@QAEAAPAVCSkinButton2@@I@Z ; std::vector<CSkinButton2 *,std::allocator<CSkinButton2 *> >::operator[]
  006b2	8b 08		 mov	 ecx, DWORD PTR [eax]
  006b4	e8 00 00 00 00	 call	 ?SetCheck@CSkinButton2@@QAEXH@Z ; CSkinButton2::SetCheck

; 116  : 		COLORREF col = m_colbtnVec[nID-ID_CLO_BTN_BEGAIN]->GetBKColor();

  006b9	8b 4d 08	 mov	 ecx, DWORD PTR _nID$[ebp]
  006bc	81 e9 30 75 00
	00		 sub	 ecx, 30000		; 00007530H
  006c2	51		 push	 ecx
  006c3	8b 4d a0	 mov	 ecx, DWORD PTR _this$[ebp]
  006c6	81 c1 e4 00 00
	00		 add	 ecx, 228		; 000000e4H
  006cc	e8 00 00 00 00	 call	 ??A?$vector@PAVCSkinButton2@@V?$allocator@PAVCSkinButton2@@@std@@@std@@QAEAAPAVCSkinButton2@@I@Z ; std::vector<CSkinButton2 *,std::allocator<CSkinButton2 *> >::operator[]
  006d1	8b 08		 mov	 ecx, DWORD PTR [eax]
  006d3	e8 00 00 00 00	 call	 ?GetBKColor@CSkinButton2@@QBEKXZ ; CSkinButton2::GetBKColor
  006d8	89 45 f0	 mov	 DWORD PTR _col$202354[ebp], eax

; 117  : 
; 118  : 		if( nID == ID_CLO_BTN_BEGAIN )

  006db	81 7d 08 30 75
	00 00		 cmp	 DWORD PTR _nID$[ebp], 30000 ; 00007530H
  006e2	0f 85 9c 01 00
	00		 jne	 $L202355

; 119  : 		{
; 120  : 			OneSubject* s = AfxGetUIManager()->UIGetSkinMgr()->GetCurSubject();

  006e8	e8 00 00 00 00	 call	 ?AfxGetUIManager@@YAPAVIUIManager@@XZ ; AfxGetUIManager
  006ed	89 45 9c	 mov	 DWORD PTR tv146[ebp], eax
  006f0	8b 55 9c	 mov	 edx, DWORD PTR tv146[ebp]
  006f3	8b 02		 mov	 eax, DWORD PTR [edx]
  006f5	8b 4d 9c	 mov	 ecx, DWORD PTR tv146[ebp]
  006f8	ff 50 28	 call	 DWORD PTR [eax+40]
  006fb	89 45 98	 mov	 DWORD PTR tv151[ebp], eax
  006fe	8b 4d 98	 mov	 ecx, DWORD PTR tv151[ebp]
  00701	8b 11		 mov	 edx, DWORD PTR [ecx]
  00703	8b 4d 98	 mov	 ecx, DWORD PTR tv151[ebp]
  00706	ff 52 28	 call	 DWORD PTR [edx+40]
  00709	89 45 e8	 mov	 DWORD PTR _s$202356[ebp], eax

; 121  : 
; 122  : 			if( AfxGetUIManager()->UIGetSkinMgr()->GetCurSubject() == NULL )

  0070c	e8 00 00 00 00	 call	 ?AfxGetUIManager@@YAPAVIUIManager@@XZ ; AfxGetUIManager
  00711	89 45 94	 mov	 DWORD PTR tv157[ebp], eax
  00714	8b 45 94	 mov	 eax, DWORD PTR tv157[ebp]
  00717	8b 10		 mov	 edx, DWORD PTR [eax]
  00719	8b 4d 94	 mov	 ecx, DWORD PTR tv157[ebp]
  0071c	ff 52 28	 call	 DWORD PTR [edx+40]
  0071f	89 45 90	 mov	 DWORD PTR tv162[ebp], eax
  00722	8b 45 90	 mov	 eax, DWORD PTR tv162[ebp]
  00725	8b 10		 mov	 edx, DWORD PTR [eax]
  00727	8b 4d 90	 mov	 ecx, DWORD PTR tv162[ebp]
  0072a	ff 52 28	 call	 DWORD PTR [edx+40]
  0072d	85 c0		 test	 eax, eax
  0072f	75 49		 jne	 SHORT $L202357

; 123  : 			{					 
; 124  : 				mp_EventListener->OnSendChangeSkin(AfxGetUIManager()->UIGetSkinMgr()->GetSkinPath());

  00731	e8 00 00 00 00	 call	 ?AfxGetUIManager@@YAPAVIUIManager@@XZ ; AfxGetUIManager
  00736	89 45 8c	 mov	 DWORD PTR tv182[ebp], eax
  00739	8b 45 8c	 mov	 eax, DWORD PTR tv182[ebp]
  0073c	8b 10		 mov	 edx, DWORD PTR [eax]
  0073e	8b 4d 8c	 mov	 ecx, DWORD PTR tv182[ebp]
  00741	ff 52 28	 call	 DWORD PTR [edx+40]
  00744	89 45 88	 mov	 DWORD PTR tv187[ebp], eax
  00747	51		 push	 ecx
  00748	8b c4		 mov	 eax, esp
  0074a	89 65 e4	 mov	 DWORD PTR $T204691[ebp], esp
  0074d	50		 push	 eax
  0074e	8b 4d 88	 mov	 ecx, DWORD PTR tv187[ebp]
  00751	8b 11		 mov	 edx, DWORD PTR [ecx]
  00753	8b 4d 88	 mov	 ecx, DWORD PTR tv187[ebp]
  00756	ff 52 40	 call	 DWORD PTR [edx+64]
  00759	89 45 84	 mov	 DWORD PTR tv298[ebp], eax
  0075c	8b 45 a0	 mov	 eax, DWORD PTR _this$[ebp]
  0075f	8b 88 dc 00 00
	00		 mov	 ecx, DWORD PTR [eax+220]
  00765	8b 55 a0	 mov	 edx, DWORD PTR _this$[ebp]
  00768	8b 82 dc 00 00
	00		 mov	 eax, DWORD PTR [edx+220]
  0076e	8b 11		 mov	 edx, DWORD PTR [ecx]
  00770	8b c8		 mov	 ecx, eax
  00772	ff 52 0c	 call	 DWORD PTR [edx+12]

; 125  : 			}
; 126  : 			else if( s != NULL && s->subColor == 0 )

  00775	e9 08 01 00 00	 jmp	 $L202360
$L202357:
  0077a	83 7d e8 00	 cmp	 DWORD PTR _s$202356[ebp], 0
  0077e	0f 84 df 00 00
	00		 je	 $L202361
  00784	8b 45 e8	 mov	 eax, DWORD PTR _s$202356[ebp]
  00787	83 78 58 00	 cmp	 DWORD PTR [eax+88], 0
  0078b	0f 85 d2 00 00
	00		 jne	 $L202361

; 127  : 			{
; 128  : 				mp_EventListener->OnSendChangeSubject(AfxGetUIManager()->UIGetSkinMgr()->GetSkinPath(),s->strSubName.c_str());

  00791	8b 4d e8	 mov	 ecx, DWORD PTR _s$202356[ebp]
  00794	83 c1 1c	 add	 ecx, 28			; 0000001cH
  00797	ff 15 00 00 00
	00		 call	 DWORD PTR __imp_?c_str@?$basic_string@DU?$char_traits@D@std@@V?$allocator@D@2@@std@@QBEPBDXZ
  0079d	51		 push	 ecx
  0079e	8b cc		 mov	 ecx, esp
  007a0	89 65 e0	 mov	 DWORD PTR $T204692[ebp], esp
  007a3	50		 push	 eax
  007a4	ff 15 00 00 00
	00		 call	 DWORD PTR __imp_??0?$CStringT@DV?$StrTraitMFC_DLL@DV?$ChTraitsCRT@D@ATL@@@@@ATL@@QAE@PBD@Z
  007aa	89 45 80	 mov	 DWORD PTR tv306[ebp], eax
  007ad	8b 4d 80	 mov	 ecx, DWORD PTR tv306[ebp]
  007b0	89 8d 7c ff ff
	ff		 mov	 DWORD PTR tv300[ebp], ecx
  007b6	c7 45 fc 00 00
	00 00		 mov	 DWORD PTR __$EHRec$[ebp+8], 0
  007bd	e8 00 00 00 00	 call	 ?AfxGetUIManager@@YAPAVIUIManager@@XZ ; AfxGetUIManager
  007c2	89 85 78 ff ff
	ff		 mov	 DWORD PTR tv231[ebp], eax
  007c8	8b 95 78 ff ff
	ff		 mov	 edx, DWORD PTR tv231[ebp]
  007ce	8b 02		 mov	 eax, DWORD PTR [edx]
  007d0	8b 8d 78 ff ff
	ff		 mov	 ecx, DWORD PTR tv231[ebp]
  007d6	ff 50 28	 call	 DWORD PTR [eax+40]
  007d9	89 85 74 ff ff
	ff		 mov	 DWORD PTR tv236[ebp], eax
  007df	51		 push	 ecx
  007e0	8b cc		 mov	 ecx, esp
  007e2	89 65 dc	 mov	 DWORD PTR $T204693[ebp], esp
  007e5	51		 push	 ecx
  007e6	8b 95 74 ff ff
	ff		 mov	 edx, DWORD PTR tv236[ebp]
  007ec	8b 02		 mov	 eax, DWORD PTR [edx]
  007ee	8b 8d 74 ff ff
	ff		 mov	 ecx, DWORD PTR tv236[ebp]
  007f4	ff 50 40	 call	 DWORD PTR [eax+64]
  007f7	89 85 70 ff ff
	ff		 mov	 DWORD PTR tv303[ebp], eax
  007fd	8b 4d a0	 mov	 ecx, DWORD PTR _this$[ebp]
  00800	8b 89 dc 00 00
	00		 mov	 ecx, DWORD PTR [ecx+220]
  00806	8b 55 a0	 mov	 edx, DWORD PTR _this$[ebp]
  00809	8b 82 dc 00 00
	00		 mov	 eax, DWORD PTR [edx+220]
  0080f	8b 10		 mov	 edx, DWORD PTR [eax]
  00811	c7 45 fc ff ff
	ff ff		 mov	 DWORD PTR __$EHRec$[ebp+8], -1
  00818	ff 52 10	 call	 DWORD PTR [edx+16]

; 129  : 				AfxGetUIManager()->UIGetChangeColorMgr()->OnSendChangeColor( s->subColor,s->iLight ,false );

  0081b	e8 00 00 00 00	 call	 ?AfxGetUIManager@@YAPAVIUIManager@@XZ ; AfxGetUIManager
  00820	89 85 6c ff ff
	ff		 mov	 DWORD PTR tv248[ebp], eax
  00826	8b 85 6c ff ff
	ff		 mov	 eax, DWORD PTR tv248[ebp]
  0082c	8b 10		 mov	 edx, DWORD PTR [eax]
  0082e	8b 8d 6c ff ff
	ff		 mov	 ecx, DWORD PTR tv248[ebp]
  00834	ff 52 2c	 call	 DWORD PTR [edx+44]
  00837	83 c0 04	 add	 eax, 4
  0083a	89 85 68 ff ff
	ff		 mov	 DWORD PTR tv254[ebp], eax
  00840	6a 00		 push	 0
  00842	8b 45 e8	 mov	 eax, DWORD PTR _s$202356[ebp]
  00845	8b 48 5c	 mov	 ecx, DWORD PTR [eax+92]
  00848	51		 push	 ecx
  00849	8b 55 e8	 mov	 edx, DWORD PTR _s$202356[ebp]
  0084c	8b 42 58	 mov	 eax, DWORD PTR [edx+88]
  0084f	50		 push	 eax
  00850	8b 8d 68 ff ff
	ff		 mov	 ecx, DWORD PTR tv254[ebp]
  00856	8b 11		 mov	 edx, DWORD PTR [ecx]
  00858	8b 8d 68 ff ff
	ff		 mov	 ecx, DWORD PTR tv254[ebp]
  0085e	ff 52 08	 call	 DWORD PTR [edx+8]

; 130  : 			}
; 131  : 			else

  00861	eb 1f		 jmp	 SHORT $L202360
$L202361:

; 132  : 			{
; 133  : 				mp_EventListener->OnSendChangeColor(col,120,false );

  00863	6a 00		 push	 0
  00865	6a 78		 push	 120			; 00000078H
  00867	8b 45 f0	 mov	 eax, DWORD PTR _col$202354[ebp]
  0086a	50		 push	 eax
  0086b	8b 4d a0	 mov	 ecx, DWORD PTR _this$[ebp]
  0086e	8b 91 dc 00 00
	00		 mov	 edx, DWORD PTR [ecx+220]
  00874	8b 45 a0	 mov	 eax, DWORD PTR _this$[ebp]
  00877	8b 88 dc 00 00
	00		 mov	 ecx, DWORD PTR [eax+220]
  0087d	8b 12		 mov	 edx, DWORD PTR [edx]
  0087f	ff 52 08	 call	 DWORD PTR [edx+8]
$L202360:

; 134  : 			}
; 135  : 		}
; 136  : 		else

  00882	eb 1f		 jmp	 SHORT $L202366
$L202355:

; 137  : 		{
; 138  : 			mp_EventListener->OnSendChangeColor(col,120,true );

  00884	6a 01		 push	 1
  00886	6a 78		 push	 120			; 00000078H
  00888	8b 45 f0	 mov	 eax, DWORD PTR _col$202354[ebp]
  0088b	50		 push	 eax
  0088c	8b 4d a0	 mov	 ecx, DWORD PTR _this$[ebp]
  0088f	8b 91 dc 00 00
	00		 mov	 edx, DWORD PTR [ecx+220]
  00895	8b 45 a0	 mov	 eax, DWORD PTR _this$[ebp]
  00898	8b 88 dc 00 00
	00		 mov	 ecx, DWORD PTR [eax+220]
  0089e	8b 12		 mov	 edx, DWORD PTR [edx]
  008a0	ff 52 08	 call	 DWORD PTR [edx+8]
$L202366:

; 139  : 		}
; 140  : 
; 141  : 		::AfxGetUserConfig()->SetConfigIntValue(CONF_SETTING_MODULE_NAME, CONF_SETTING_COLOR_BTN_INDEX,nID-ID_CLO_BTN_BEGAIN,true);

  008a3	a1 00 00 00 00	 mov	 eax, DWORD PTR _CONF_SETTING_COLOR_BTN_INDEX
  008a8	50		 push	 eax
  008a9	8d 4d c0	 lea	 ecx, DWORD PTR $T204694[ebp]
  008ac	ff 15 00 00 00
	00		 call	 DWORD PTR __imp_??0?$basic_string@DU?$char_traits@D@std@@V?$allocator@D@2@@std@@QAE@PBD@Z
  008b2	c7 45 fc 01 00
	00 00		 mov	 DWORD PTR __$EHRec$[ebp+8], 1
  008b9	8b 0d 00 00 00
	00		 mov	 ecx, DWORD PTR _CONF_SETTING_MODULE_NAME
  008bf	51		 push	 ecx
  008c0	8d 4d a4	 lea	 ecx, DWORD PTR $T204695[ebp]
  008c3	ff 15 00 00 00
	00		 call	 DWORD PTR __imp_??0?$basic_string@DU?$char_traits@D@std@@V?$allocator@D@2@@std@@QAE@PBD@Z
  008c9	c6 45 fc 02	 mov	 BYTE PTR __$EHRec$[ebp+8], 2
  008cd	6a 01		 push	 1
  008cf	8b 55 08	 mov	 edx, DWORD PTR _nID$[ebp]
  008d2	81 ea 30 75 00
	00		 sub	 edx, 30000		; 00007530H
  008d8	52		 push	 edx
  008d9	8d 45 c0	 lea	 eax, DWORD PTR $T204694[ebp]
  008dc	50		 push	 eax
  008dd	8d 4d a4	 lea	 ecx, DWORD PTR $T204695[ebp]
  008e0	51		 push	 ecx
  008e1	e8 00 00 00 00	 call	 ?AfxGetUserConfig@@YAPAVAfxUserConfig@@XZ ; AfxGetUserConfig
  008e6	8b c8		 mov	 ecx, eax
  008e8	e8 00 00 00 00	 call	 ?SetConfigIntValue@AfxUserConfig@@QAEXABV?$basic_string@DU?$char_traits@D@std@@V?$allocator@D@2@@std@@0H_N@Z ; AfxUserConfig::SetConfigIntValue
  008ed	c6 45 fc 01	 mov	 BYTE PTR __$EHRec$[ebp+8], 1
  008f1	8d 4d a4	 lea	 ecx, DWORD PTR $T204695[ebp]
  008f4	ff 15 00 00 00
	00		 call	 DWORD PTR __imp_??1?$basic_string@DU?$char_traits@D@std@@V?$allocator@D@2@@std@@QAE@XZ
  008fa	c7 45 fc ff ff
	ff ff		 mov	 DWORD PTR __$EHRec$[ebp+8], -1
  00901	8d 4d c0	 lea	 ecx, DWORD PTR $T204694[ebp]
  00904	ff 15 00 00 00
	00		 call	 DWORD PTR __imp_??1?$basic_string@DU?$char_traits@D@std@@V?$allocator@D@2@@std@@QAE@XZ
$L202346:

; 142  : 	}
; 143  : }

  0090a	8b 4d f4	 mov	 ecx, DWORD PTR __$EHRec$[ebp]
  0090d	64 89 0d 00 00
	00 00		 mov	 DWORD PTR fs:__except_list, ecx
  00914	8b e5		 mov	 esp, ebp
  00916	5d		 pop	 ebp
  00917	c2 04 00	 ret	 4
_TEXT	ENDS
text$x	SEGMENT
$L204697:
  00153	8b 4d e0	 mov	 ecx, DWORD PTR $T204692[ebp]
  00156	ff 25 00 00 00
	00		 jmp	 DWORD PTR __imp_??1?$CStringT@DV?$StrTraitMFC_DLL@DV?$ChTraitsCRT@D@ATL@@@@@ATL@@QAE@XZ
$L204699:
  0015c	8d 4d c0	 lea	 ecx, DWORD PTR $T204694[ebp]
  0015f	ff 25 00 00 00
	00		 jmp	 DWORD PTR __imp_??1?$basic_string@DU?$char_traits@D@std@@V?$allocator@D@2@@std@@QAE@XZ
$L204700:
  00165	8d 4d a4	 lea	 ecx, DWORD PTR $T204695[ebp]
  00168	ff 25 00 00 00
	00		 jmp	 DWORD PTR __imp_??1?$basic_string@DU?$char_traits@D@std@@V?$allocator@D@2@@std@@QAE@XZ
__ehhandler$?OnColor@CMainSkinWnd@@QAEXI@Z:
  0016e	b8 00 00 00 00	 mov	 eax, OFFSET FLAT:$T204702
  00173	e9 00 00 00 00	 jmp	 ___CxxFrameHandler
text$x	ENDS
?OnColor@CMainSkinWnd@@QAEXI@Z ENDP			; CMainSkinWnd::OnColor
PUBLIC	?push_back@?$vector@PAVCSkinButton2@@V?$allocator@PAVCSkinButton2@@@std@@@std@@QAEXABQAVCSkinButton2@@@Z ; std::vector<CSkinButton2 *,std::allocator<CSkinButton2 *> >::push_back
PUBLIC	??0?$vector@KV?$allocator@K@std@@@std@@QAE@XZ	; std::vector<unsigned long,std::allocator<unsigned long> >::vector<unsigned long,std::allocator<unsigned long> >
PUBLIC	??1?$vector@KV?$allocator@K@std@@@std@@QAE@XZ	; std::vector<unsigned long,std::allocator<unsigned long> >::~vector<unsigned long,std::allocator<unsigned long> >
PUBLIC	??A?$vector@KV?$allocator@K@std@@@std@@QAEAAKI@Z ; std::vector<unsigned long,std::allocator<unsigned long> >::operator[]
PUBLIC	?push_back@?$vector@KV?$allocator@K@std@@@std@@QAEXABK@Z ; std::vector<unsigned long,std::allocator<unsigned long> >::push_back
PUBLIC	__real@3fdccccccccccccd
PUBLIC	__real@3fe0000000000000
PUBLIC	__real@3fe3555555555555
PUBLIC	__real@3fdc28f5c28f5c29
PUBLIC	__real@3fe3333333333333
PUBLIC	__real@3feacccccccccccd
PUBLIC	__real@3fee000000000000
PUBLIC	__real@3fd3333333333333
PUBLIC	__real@3fd7bbbbbbbbbbbc
PUBLIC	__real@3f9999999999999a
PUBLIC	__real@3fc0000000000000
PUBLIC	__real@3fd6666666666666
PUBLIC	__real@3fdd555555555555
PUBLIC	__real@3fb3333333333333
EXTRN	?gBitMapOperate@@3VCBitMapOperate@@A:BYTE	; gBitMapOperate
EXTRN	?HLStoRGB@CBitMapOperate@@QAEKABN00@Z:NEAR	; CBitMapOperate::HLStoRGB
EXTRN	?SetBKColor@CSkinButton2@@QAEXEEEE@Z:NEAR	; CSkinButton2::SetBKColor
EXTRN	__fltused:NEAR
EXTRN	?PreCreateWindow@CFrameWnd@@MAEHAAUtagCREATESTRUCTA@@@Z:NEAR ; CFrameWnd::PreCreateWindow
xdata$x	SEGMENT
$T204772 DD	0ffffffffH
	DD	FLAT:$L204738
	DD	00H
	DD	FLAT:$L204739
$T204741 DD	019930520H
	DD	02H
	DD	FLAT:$T204772
	DD	2 DUP(00H)
	DD	2 DUP(00H)
xdata$x	ENDS
;	COMDAT __real@3fdccccccccccccd
CONST	SEGMENT
__real@3fdccccccccccccd DQ 03fdccccccccccccdr	; 0.45
CONST	ENDS
;	COMDAT __real@3fe0000000000000
CONST	SEGMENT
__real@3fe0000000000000 DQ 03fe0000000000000r	; 0.5
CONST	ENDS
;	COMDAT __real@3fe3555555555555
CONST	SEGMENT
__real@3fe3555555555555 DQ 03fe3555555555555r	; 0.604167
CONST	ENDS
;	COMDAT __real@3fdc28f5c28f5c29
CONST	SEGMENT
__real@3fdc28f5c28f5c29 DQ 03fdc28f5c28f5c29r	; 0.44
CONST	ENDS
;	COMDAT __real@3fe3333333333333
CONST	SEGMENT
__real@3fe3333333333333 DQ 03fe3333333333333r	; 0.6
CONST	ENDS
;	COMDAT __real@3feacccccccccccd
CONST	SEGMENT
__real@3feacccccccccccd DQ 03feacccccccccccdr	; 0.8375
CONST	ENDS
;	COMDAT __real@3fee000000000000
CONST	SEGMENT
__real@3fee000000000000 DQ 03fee000000000000r	; 0.9375
CONST	ENDS
;	COMDAT __real@3fd3333333333333
CONST	SEGMENT
__real@3fd3333333333333 DQ 03fd3333333333333r	; 0.3
CONST	ENDS
;	COMDAT __real@3fd7bbbbbbbbbbbc
CONST	SEGMENT
__real@3fd7bbbbbbbbbbbc DQ 03fd7bbbbbbbbbbbcr	; 0.370833
CONST	ENDS
;	COMDAT __real@3f9999999999999a
CONST	SEGMENT
__real@3f9999999999999a DQ 03f9999999999999ar	; 0.025
CONST	ENDS
;	COMDAT __real@3fc0000000000000
CONST	SEGMENT
__real@3fc0000000000000 DQ 03fc0000000000000r	; 0.125
CONST	ENDS
;	COMDAT __real@3fd6666666666666
CONST	SEGMENT
__real@3fd6666666666666 DQ 03fd6666666666666r	; 0.35
CONST	ENDS
;	COMDAT __real@3fdd555555555555
CONST	SEGMENT
__real@3fdd555555555555 DQ 03fdd555555555555r	; 0.458333
CONST	ENDS
;	COMDAT __real@3fb3333333333333
CONST	SEGMENT
__real@3fb3333333333333 DQ 03fb3333333333333r	; 0.075
; Function compile flags: /Odt
CONST	ENDS
_TEXT	SEGMENT
tv232 = -328						; size = 4
tv88 = -324						; size = 4
tv83 = -320						; size = 4
tv75 = -316						; size = 4
tv70 = -312						; size = 4
_this$ = -308						; size = 4
$T204737 = -304						; size = 4
$T204734 = -300						; size = 4
$T204733 = -296						; size = 4
$T204732 = -292						; size = 8
$T204731 = -284						; size = 8
$T204730 = -276						; size = 8
$T204729 = -268						; size = 8
$T204728 = -260						; size = 8
$T204727 = -252						; size = 8
$T204726 = -244						; size = 8
$T204725 = -236						; size = 8
$T204724 = -228						; size = 8
$T204723 = -220						; size = 8
$T204722 = -212						; size = 8
$T204721 = -204						; size = 8
$T204720 = -196						; size = 8
$T204719 = -188						; size = 8
$T204718 = -180						; size = 8
$T204717 = -172						; size = 8
$T204716 = -164						; size = 8
$T204715 = -156						; size = 8
$T204714 = -148						; size = 8
$T204713 = -140						; size = 8
$T204712 = -132						; size = 8
$T204711 = -124						; size = 8
$T204710 = -116						; size = 8
$T204709 = -108						; size = 8
$T204708 = -100						; size = 8
$T204707 = -92						; size = 8
$T204706 = -84						; size = 8
_pBtn$202689 = -76					; size = 4
_i$202685 = -72						; size = 4
_col4$ = -68						; size = 4
_col8$ = -64						; size = 4
_col1$ = -60						; size = 4
_col5$ = -56						; size = 4
_col9$ = -52						; size = 4
_pCurSub$ = -48						; size = 4
_col2$ = -44						; size = 4
_col6$ = -40						; size = 4
_colV$ = -36						; size = 16
_col3$ = -20						; size = 4
_col7$ = -16						; size = 4
__$EHRec$ = -12						; size = 12
_cs$ = 8						; size = 4
?PreCreateWindow@CMainSkinWnd@@MAEHAAUtagCREATESTRUCTA@@@Z PROC NEAR ; CMainSkinWnd::PreCreateWindow
; _this$ = ecx

; 148  : {

  00920	55		 push	 ebp
  00921	8b ec		 mov	 ebp, esp
  00923	6a ff		 push	 -1
  00925	68 00 00 00 00	 push	 __ehhandler$?PreCreateWindow@CMainSkinWnd@@MAEHAAUtagCREATESTRUCTA@@@Z
  0092a	64 a1 00 00 00
	00		 mov	 eax, DWORD PTR fs:__except_list
  00930	50		 push	 eax
  00931	64 89 25 00 00
	00 00		 mov	 DWORD PTR fs:__except_list, esp
  00938	81 ec 3c 01 00
	00		 sub	 esp, 316		; 0000013cH
  0093e	89 8d cc fe ff
	ff		 mov	 DWORD PTR _this$[ebp], ecx

; 149  : 	cs.style=WS_POPUP;     

  00944	8b 45 08	 mov	 eax, DWORD PTR _cs$[ebp]
  00947	c7 40 20 00 00
	00 80		 mov	 DWORD PTR [eax+32], -2147483648 ; 80000000H

; 150  : 	cs.dwExStyle|=WS_EX_TOOLWINDOW; 	

  0094e	8b 4d 08	 mov	 ecx, DWORD PTR _cs$[ebp]
  00951	8b 51 2c	 mov	 edx, DWORD PTR [ecx+44]
  00954	81 ca 80 00 00
	00		 or	 edx, 128		; 00000080H
  0095a	8b 45 08	 mov	 eax, DWORD PTR _cs$[ebp]
  0095d	89 50 2c	 mov	 DWORD PTR [eax+44], edx

; 151  : 
; 152  : 	COLORREF col1;
; 153  : 	OneSubject* pCurSub = AfxGetUIManager()->UIGetSkinMgr()->GetCurSubject();

  00960	e8 00 00 00 00	 call	 ?AfxGetUIManager@@YAPAVIUIManager@@XZ ; AfxGetUIManager
  00965	89 85 c8 fe ff
	ff		 mov	 DWORD PTR tv70[ebp], eax
  0096b	8b 8d c8 fe ff
	ff		 mov	 ecx, DWORD PTR tv70[ebp]
  00971	8b 11		 mov	 edx, DWORD PTR [ecx]
  00973	8b 8d c8 fe ff
	ff		 mov	 ecx, DWORD PTR tv70[ebp]
  00979	ff 52 28	 call	 DWORD PTR [edx+40]
  0097c	89 85 c4 fe ff
	ff		 mov	 DWORD PTR tv75[ebp], eax
  00982	8b 85 c4 fe ff
	ff		 mov	 eax, DWORD PTR tv75[ebp]
  00988	8b 10		 mov	 edx, DWORD PTR [eax]
  0098a	8b 8d c4 fe ff
	ff		 mov	 ecx, DWORD PTR tv75[ebp]
  00990	ff 52 28	 call	 DWORD PTR [edx+40]
  00993	89 45 d0	 mov	 DWORD PTR _pCurSub$[ebp], eax

; 154  : 	if( pCurSub != NULL )

  00996	83 7d d0 00	 cmp	 DWORD PTR _pCurSub$[ebp], 0
  0099a	74 0b		 je	 SHORT $L202375

; 155  : 	{
; 156  : 		col1 = pCurSub->subColor;

  0099c	8b 45 d0	 mov	 eax, DWORD PTR _pCurSub$[ebp]
  0099f	8b 48 58	 mov	 ecx, DWORD PTR [eax+88]
  009a2	89 4d c4	 mov	 DWORD PTR _col1$[ebp], ecx

; 157  : 	}
; 158  : 	else

  009a5	eb 39		 jmp	 SHORT $L202376
$L202375:

; 159  : 	{
; 160  : 		col1 = AfxGetUIManager()->UIGetLayoutMgr()->GetSkinColor();

  009a7	e8 00 00 00 00	 call	 ?AfxGetUIManager@@YAPAVIUIManager@@XZ ; AfxGetUIManager
  009ac	89 85 c0 fe ff
	ff		 mov	 DWORD PTR tv83[ebp], eax
  009b2	8b 95 c0 fe ff
	ff		 mov	 edx, DWORD PTR tv83[ebp]
  009b8	8b 02		 mov	 eax, DWORD PTR [edx]
  009ba	8b 8d c0 fe ff
	ff		 mov	 ecx, DWORD PTR tv83[ebp]
  009c0	ff 50 24	 call	 DWORD PTR [eax+36]
  009c3	89 85 bc fe ff
	ff		 mov	 DWORD PTR tv88[ebp], eax
  009c9	8b 8d bc fe ff
	ff		 mov	 ecx, DWORD PTR tv88[ebp]
  009cf	8b 11		 mov	 edx, DWORD PTR [ecx]
  009d1	8b 8d bc fe ff
	ff		 mov	 ecx, DWORD PTR tv88[ebp]
  009d7	ff 92 8c 00 00
	00		 call	 DWORD PTR [edx+140]
  009dd	89 45 c4	 mov	 DWORD PTR _col1$[ebp], eax
$L202376:

; 161  : 	}
; 162  : 
; 163  : 
; 164  : 	if( col1 == 0 )

  009e0	83 7d c4 00	 cmp	 DWORD PTR _col1$[ebp], 0
  009e4	75 34		 jne	 SHORT $L202377

; 165  : 	{
; 166  : 		col1 = gBitMapOperate.HLStoRGB( ((double)145)/240  ,((double)50)/100,((double)45)/100 );

  009e6	dd 05 00 00 00
	00		 fld	 QWORD PTR __real@3fdccccccccccccd
  009ec	dd 5d ac	 fstp	 QWORD PTR $T204706[ebp]
  009ef	dd 05 00 00 00
	00		 fld	 QWORD PTR __real@3fe0000000000000
  009f5	dd 5d a4	 fstp	 QWORD PTR $T204707[ebp]
  009f8	dd 05 00 00 00
	00		 fld	 QWORD PTR __real@3fe3555555555555
  009fe	dd 5d 9c	 fstp	 QWORD PTR $T204708[ebp]
  00a01	8d 45 ac	 lea	 eax, DWORD PTR $T204706[ebp]
  00a04	50		 push	 eax
  00a05	8d 4d a4	 lea	 ecx, DWORD PTR $T204707[ebp]
  00a08	51		 push	 ecx
  00a09	8d 55 9c	 lea	 edx, DWORD PTR $T204708[ebp]
  00a0c	52		 push	 edx
  00a0d	b9 00 00 00 00	 mov	 ecx, OFFSET FLAT:?gBitMapOperate@@3VCBitMapOperate@@A
  00a12	e8 00 00 00 00	 call	 ?HLStoRGB@CBitMapOperate@@QAEKABN00@Z ; CBitMapOperate::HLStoRGB
  00a17	89 45 c4	 mov	 DWORD PTR _col1$[ebp], eax
$L202377:

; 167  : 	}
; 168  : 
; 169  : 	COLORREF col2 = gBitMapOperate.HLStoRGB( ((double)201)/240 ,((double)60)/100,((double)44)/100 );

  00a1a	dd 05 00 00 00
	00		 fld	 QWORD PTR __real@3fdc28f5c28f5c29
  00a20	dd 5d 94	 fstp	 QWORD PTR $T204709[ebp]
  00a23	dd 05 00 00 00
	00		 fld	 QWORD PTR __real@3fe3333333333333
  00a29	dd 5d 8c	 fstp	 QWORD PTR $T204710[ebp]
  00a2c	dd 05 00 00 00
	00		 fld	 QWORD PTR __real@3feacccccccccccd
  00a32	dd 5d 84	 fstp	 QWORD PTR $T204711[ebp]
  00a35	8d 45 94	 lea	 eax, DWORD PTR $T204709[ebp]
  00a38	50		 push	 eax
  00a39	8d 4d 8c	 lea	 ecx, DWORD PTR $T204710[ebp]
  00a3c	51		 push	 ecx
  00a3d	8d 55 84	 lea	 edx, DWORD PTR $T204711[ebp]
  00a40	52		 push	 edx
  00a41	b9 00 00 00 00	 mov	 ecx, OFFSET FLAT:?gBitMapOperate@@3VCBitMapOperate@@A
  00a46	e8 00 00 00 00	 call	 ?HLStoRGB@CBitMapOperate@@QAEKABN00@Z ; CBitMapOperate::HLStoRGB
  00a4b	89 45 d4	 mov	 DWORD PTR _col2$[ebp], eax

; 170  : 	COLORREF col3 = gBitMapOperate.HLStoRGB( ((double)225)/240   ,((double)50)/100,((double)50)/100 );

  00a4e	dd 05 00 00 00
	00		 fld	 QWORD PTR __real@3fe0000000000000
  00a54	dd 9d 7c ff ff
	ff		 fstp	 QWORD PTR $T204712[ebp]
  00a5a	dd 05 00 00 00
	00		 fld	 QWORD PTR __real@3fe0000000000000
  00a60	dd 9d 74 ff ff
	ff		 fstp	 QWORD PTR $T204713[ebp]
  00a66	dd 05 00 00 00
	00		 fld	 QWORD PTR __real@3fee000000000000
  00a6c	dd 9d 6c ff ff
	ff		 fstp	 QWORD PTR $T204714[ebp]
  00a72	8d 85 7c ff ff
	ff		 lea	 eax, DWORD PTR $T204712[ebp]
  00a78	50		 push	 eax
  00a79	8d 8d 74 ff ff
	ff		 lea	 ecx, DWORD PTR $T204713[ebp]
  00a7f	51		 push	 ecx
  00a80	8d 95 6c ff ff
	ff		 lea	 edx, DWORD PTR $T204714[ebp]
  00a86	52		 push	 edx
  00a87	b9 00 00 00 00	 mov	 ecx, OFFSET FLAT:?gBitMapOperate@@3VCBitMapOperate@@A
  00a8c	e8 00 00 00 00	 call	 ?HLStoRGB@CBitMapOperate@@QAEKABN00@Z ; CBitMapOperate::HLStoRGB
  00a91	89 45 ec	 mov	 DWORD PTR _col3$[ebp], eax

; 171  : 	COLORREF col4 = gBitMapOperate.HLStoRGB( ((double)89)/240  ,((double)60)/100,((double)30)/100 );

  00a94	dd 05 00 00 00
	00		 fld	 QWORD PTR __real@3fd3333333333333
  00a9a	dd 9d 64 ff ff
	ff		 fstp	 QWORD PTR $T204715[ebp]
  00aa0	dd 05 00 00 00
	00		 fld	 QWORD PTR __real@3fe3333333333333
  00aa6	dd 9d 5c ff ff
	ff		 fstp	 QWORD PTR $T204716[ebp]
  00aac	dd 05 00 00 00
	00		 fld	 QWORD PTR __real@3fd7bbbbbbbbbbbc
  00ab2	dd 9d 54 ff ff
	ff		 fstp	 QWORD PTR $T204717[ebp]
  00ab8	8d 85 64 ff ff
	ff		 lea	 eax, DWORD PTR $T204715[ebp]
  00abe	50		 push	 eax
  00abf	8d 8d 5c ff ff
	ff		 lea	 ecx, DWORD PTR $T204716[ebp]
  00ac5	51		 push	 ecx
  00ac6	8d 95 54 ff ff
	ff		 lea	 edx, DWORD PTR $T204717[ebp]
  00acc	52		 push	 edx
  00acd	b9 00 00 00 00	 mov	 ecx, OFFSET FLAT:?gBitMapOperate@@3VCBitMapOperate@@A
  00ad2	e8 00 00 00 00	 call	 ?HLStoRGB@CBitMapOperate@@QAEKABN00@Z ; CBitMapOperate::HLStoRGB
  00ad7	89 45 bc	 mov	 DWORD PTR _col4$[ebp], eax

; 172  : 	COLORREF col5 = gBitMapOperate.HLStoRGB( ((double)6)/240   ,((double)60)/100,((double)45)/100 );

  00ada	dd 05 00 00 00
	00		 fld	 QWORD PTR __real@3fdccccccccccccd
  00ae0	dd 9d 4c ff ff
	ff		 fstp	 QWORD PTR $T204718[ebp]
  00ae6	dd 05 00 00 00
	00		 fld	 QWORD PTR __real@3fe3333333333333
  00aec	dd 9d 44 ff ff
	ff		 fstp	 QWORD PTR $T204719[ebp]
  00af2	dd 05 00 00 00
	00		 fld	 QWORD PTR __real@3f9999999999999a
  00af8	dd 9d 3c ff ff
	ff		 fstp	 QWORD PTR $T204720[ebp]
  00afe	8d 85 4c ff ff
	ff		 lea	 eax, DWORD PTR $T204718[ebp]
  00b04	50		 push	 eax
  00b05	8d 8d 44 ff ff
	ff		 lea	 ecx, DWORD PTR $T204719[ebp]
  00b0b	51		 push	 ecx
  00b0c	8d 95 3c ff ff
	ff		 lea	 edx, DWORD PTR $T204720[ebp]
  00b12	52		 push	 edx
  00b13	b9 00 00 00 00	 mov	 ecx, OFFSET FLAT:?gBitMapOperate@@3VCBitMapOperate@@A
  00b18	e8 00 00 00 00	 call	 ?HLStoRGB@CBitMapOperate@@QAEKABN00@Z ; CBitMapOperate::HLStoRGB
  00b1d	89 45 c8	 mov	 DWORD PTR _col5$[ebp], eax

; 173  : 	COLORREF col6 = gBitMapOperate.HLStoRGB( ((double)30)/240   ,((double)50)/100,((double)50)/100 );

  00b20	dd 05 00 00 00
	00		 fld	 QWORD PTR __real@3fe0000000000000
  00b26	dd 9d 34 ff ff
	ff		 fstp	 QWORD PTR $T204721[ebp]
  00b2c	dd 05 00 00 00
	00		 fld	 QWORD PTR __real@3fe0000000000000
  00b32	dd 9d 2c ff ff
	ff		 fstp	 QWORD PTR $T204722[ebp]
  00b38	dd 05 00 00 00
	00		 fld	 QWORD PTR __real@3fc0000000000000
  00b3e	dd 9d 24 ff ff
	ff		 fstp	 QWORD PTR $T204723[ebp]
  00b44	8d 85 34 ff ff
	ff		 lea	 eax, DWORD PTR $T204721[ebp]
  00b4a	50		 push	 eax
  00b4b	8d 8d 2c ff ff
	ff		 lea	 ecx, DWORD PTR $T204722[ebp]
  00b51	51		 push	 ecx
  00b52	8d 95 24 ff ff
	ff		 lea	 edx, DWORD PTR $T204723[ebp]
  00b58	52		 push	 edx
  00b59	b9 00 00 00 00	 mov	 ecx, OFFSET FLAT:?gBitMapOperate@@3VCBitMapOperate@@A
  00b5e	e8 00 00 00 00	 call	 ?HLStoRGB@CBitMapOperate@@QAEKABN00@Z ; CBitMapOperate::HLStoRGB
  00b63	89 45 d8	 mov	 DWORD PTR _col6$[ebp], eax

; 174  : 	COLORREF col7 = gBitMapOperate.HLStoRGB( ((double)110)/240  ,((double)60)/100,((double)35)/100 );

  00b66	dd 05 00 00 00
	00		 fld	 QWORD PTR __real@3fd6666666666666
  00b6c	dd 9d 1c ff ff
	ff		 fstp	 QWORD PTR $T204724[ebp]
  00b72	dd 05 00 00 00
	00		 fld	 QWORD PTR __real@3fe3333333333333
  00b78	dd 9d 14 ff ff
	ff		 fstp	 QWORD PTR $T204725[ebp]
  00b7e	dd 05 00 00 00
	00		 fld	 QWORD PTR __real@3fdd555555555555
  00b84	dd 9d 0c ff ff
	ff		 fstp	 QWORD PTR $T204726[ebp]
  00b8a	8d 85 1c ff ff
	ff		 lea	 eax, DWORD PTR $T204724[ebp]
  00b90	50		 push	 eax
  00b91	8d 8d 14 ff ff
	ff		 lea	 ecx, DWORD PTR $T204725[ebp]
  00b97	51		 push	 ecx
  00b98	8d 95 0c ff ff
	ff		 lea	 edx, DWORD PTR $T204726[ebp]
  00b9e	52		 push	 edx
  00b9f	b9 00 00 00 00	 mov	 ecx, OFFSET FLAT:?gBitMapOperate@@3VCBitMapOperate@@A
  00ba4	e8 00 00 00 00	 call	 ?HLStoRGB@CBitMapOperate@@QAEKABN00@Z ; CBitMapOperate::HLStoRGB
  00ba9	89 45 f0	 mov	 DWORD PTR _col7$[ebp], eax

; 175  : 	COLORREF col8 = gBitMapOperate.HLStoRGB( ((double)145)/240  ,((double)50)/100,((double)45)/100 );

  00bac	dd 05 00 00 00
	00		 fld	 QWORD PTR __real@3fdccccccccccccd
  00bb2	dd 9d 04 ff ff
	ff		 fstp	 QWORD PTR $T204727[ebp]
  00bb8	dd 05 00 00 00
	00		 fld	 QWORD PTR __real@3fe0000000000000
  00bbe	dd 9d fc fe ff
	ff		 fstp	 QWORD PTR $T204728[ebp]
  00bc4	dd 05 00 00 00
	00		 fld	 QWORD PTR __real@3fe3555555555555
  00bca	dd 9d f4 fe ff
	ff		 fstp	 QWORD PTR $T204729[ebp]
  00bd0	8d 85 04 ff ff
	ff		 lea	 eax, DWORD PTR $T204727[ebp]
  00bd6	50		 push	 eax
  00bd7	8d 8d fc fe ff
	ff		 lea	 ecx, DWORD PTR $T204728[ebp]
  00bdd	51		 push	 ecx
  00bde	8d 95 f4 fe ff
	ff		 lea	 edx, DWORD PTR $T204729[ebp]
  00be4	52		 push	 edx
  00be5	b9 00 00 00 00	 mov	 ecx, OFFSET FLAT:?gBitMapOperate@@3VCBitMapOperate@@A
  00bea	e8 00 00 00 00	 call	 ?HLStoRGB@CBitMapOperate@@QAEKABN00@Z ; CBitMapOperate::HLStoRGB
  00bef	89 45 c0	 mov	 DWORD PTR _col8$[ebp], eax

; 176  : 	COLORREF col9  = gBitMapOperate.HLStoRGB(((double)18)/240   ,((double)50)/100,((double)50)/100 );

  00bf2	dd 05 00 00 00
	00		 fld	 QWORD PTR __real@3fe0000000000000
  00bf8	dd 9d ec fe ff
	ff		 fstp	 QWORD PTR $T204730[ebp]
  00bfe	dd 05 00 00 00
	00		 fld	 QWORD PTR __real@3fe0000000000000
  00c04	dd 9d e4 fe ff
	ff		 fstp	 QWORD PTR $T204731[ebp]
  00c0a	dd 05 00 00 00
	00		 fld	 QWORD PTR __real@3fb3333333333333
  00c10	dd 9d dc fe ff
	ff		 fstp	 QWORD PTR $T204732[ebp]
  00c16	8d 85 ec fe ff
	ff		 lea	 eax, DWORD PTR $T204730[ebp]
  00c1c	50		 push	 eax
  00c1d	8d 8d e4 fe ff
	ff		 lea	 ecx, DWORD PTR $T204731[ebp]
  00c23	51		 push	 ecx
  00c24	8d 95 dc fe ff
	ff		 lea	 edx, DWORD PTR $T204732[ebp]
  00c2a	52		 push	 edx
  00c2b	b9 00 00 00 00	 mov	 ecx, OFFSET FLAT:?gBitMapOperate@@3VCBitMapOperate@@A
  00c30	e8 00 00 00 00	 call	 ?HLStoRGB@CBitMapOperate@@QAEKABN00@Z ; CBitMapOperate::HLStoRGB
  00c35	89 45 cc	 mov	 DWORD PTR _col9$[ebp], eax

; 177  : //	COLORREF col10 = gBitMapOperate.HLStoRGB(((double)225)/240   ,((double)50)/100,((double)50)/100 );
; 178  : //	COLORREF col11 = gBitMapOperate.HLStoRGB(((double)98)/240    ,((double)68)/100,((double)44)/100 );
; 179  : 
; 180  : 
; 181  : 	vector<COLORREF> colV;

  00c38	8d 4d dc	 lea	 ecx, DWORD PTR _colV$[ebp]
  00c3b	e8 00 00 00 00	 call	 ??0?$vector@KV?$allocator@K@std@@@std@@QAE@XZ ; std::vector<unsigned long,std::allocator<unsigned long> >::vector<unsigned long,std::allocator<unsigned long> >
  00c40	c7 45 fc 00 00
	00 00		 mov	 DWORD PTR __$EHRec$[ebp+8], 0

; 182  : 	colV.push_back(col1);

  00c47	8d 45 c4	 lea	 eax, DWORD PTR _col1$[ebp]
  00c4a	50		 push	 eax
  00c4b	8d 4d dc	 lea	 ecx, DWORD PTR _colV$[ebp]
  00c4e	e8 00 00 00 00	 call	 ?push_back@?$vector@KV?$allocator@K@std@@@std@@QAEXABK@Z ; std::vector<unsigned long,std::allocator<unsigned long> >::push_back

; 183  : 	colV.push_back(col2);

  00c53	8d 4d d4	 lea	 ecx, DWORD PTR _col2$[ebp]
  00c56	51		 push	 ecx
  00c57	8d 4d dc	 lea	 ecx, DWORD PTR _colV$[ebp]
  00c5a	e8 00 00 00 00	 call	 ?push_back@?$vector@KV?$allocator@K@std@@@std@@QAEXABK@Z ; std::vector<unsigned long,std::allocator<unsigned long> >::push_back

; 184  : 	colV.push_back(col3);

  00c5f	8d 55 ec	 lea	 edx, DWORD PTR _col3$[ebp]
  00c62	52		 push	 edx
  00c63	8d 4d dc	 lea	 ecx, DWORD PTR _colV$[ebp]
  00c66	e8 00 00 00 00	 call	 ?push_back@?$vector@KV?$allocator@K@std@@@std@@QAEXABK@Z ; std::vector<unsigned long,std::allocator<unsigned long> >::push_back

; 185  : 	colV.push_back(col4);

  00c6b	8d 45 bc	 lea	 eax, DWORD PTR _col4$[ebp]
  00c6e	50		 push	 eax
  00c6f	8d 4d dc	 lea	 ecx, DWORD PTR _colV$[ebp]
  00c72	e8 00 00 00 00	 call	 ?push_back@?$vector@KV?$allocator@K@std@@@std@@QAEXABK@Z ; std::vector<unsigned long,std::allocator<unsigned long> >::push_back

; 186  : 	colV.push_back(col5);

  00c77	8d 4d c8	 lea	 ecx, DWORD PTR _col5$[ebp]
  00c7a	51		 push	 ecx
  00c7b	8d 4d dc	 lea	 ecx, DWORD PTR _colV$[ebp]
  00c7e	e8 00 00 00 00	 call	 ?push_back@?$vector@KV?$allocator@K@std@@@std@@QAEXABK@Z ; std::vector<unsigned long,std::allocator<unsigned long> >::push_back

; 187  : 	colV.push_back(col6);

  00c83	8d 55 d8	 lea	 edx, DWORD PTR _col6$[ebp]
  00c86	52		 push	 edx
  00c87	8d 4d dc	 lea	 ecx, DWORD PTR _colV$[ebp]
  00c8a	e8 00 00 00 00	 call	 ?push_back@?$vector@KV?$allocator@K@std@@@std@@QAEXABK@Z ; std::vector<unsigned long,std::allocator<unsigned long> >::push_back

; 188  : 	colV.push_back(col7);

  00c8f	8d 45 f0	 lea	 eax, DWORD PTR _col7$[ebp]
  00c92	50		 push	 eax
  00c93	8d 4d dc	 lea	 ecx, DWORD PTR _colV$[ebp]
  00c96	e8 00 00 00 00	 call	 ?push_back@?$vector@KV?$allocator@K@std@@@std@@QAEXABK@Z ; std::vector<unsigned long,std::allocator<unsigned long> >::push_back

; 189  : 	colV.push_back(col8);

  00c9b	8d 4d c0	 lea	 ecx, DWORD PTR _col8$[ebp]
  00c9e	51		 push	 ecx
  00c9f	8d 4d dc	 lea	 ecx, DWORD PTR _colV$[ebp]
  00ca2	e8 00 00 00 00	 call	 ?push_back@?$vector@KV?$allocator@K@std@@@std@@QAEXABK@Z ; std::vector<unsigned long,std::allocator<unsigned long> >::push_back

; 190  : 	colV.push_back(col9);

  00ca7	8d 55 cc	 lea	 edx, DWORD PTR _col9$[ebp]
  00caa	52		 push	 edx
  00cab	8d 4d dc	 lea	 ecx, DWORD PTR _colV$[ebp]
  00cae	e8 00 00 00 00	 call	 ?push_back@?$vector@KV?$allocator@K@std@@@std@@QAEXABK@Z ; std::vector<unsigned long,std::allocator<unsigned long> >::push_back

; 191  : //	colV.push_back(col10);
; 192  : //	colV.push_back(col11);	
; 193  : 
; 194  : 
; 195  : 	for( int i=0; i<9; i++ )

  00cb3	c7 45 b8 00 00
	00 00		 mov	 DWORD PTR _i$202685[ebp], 0
  00cba	eb 09		 jmp	 SHORT $L202686
$L202687:
  00cbc	8b 45 b8	 mov	 eax, DWORD PTR _i$202685[ebp]
  00cbf	83 c0 01	 add	 eax, 1
  00cc2	89 45 b8	 mov	 DWORD PTR _i$202685[ebp], eax
$L202686:
  00cc5	83 7d b8 09	 cmp	 DWORD PTR _i$202685[ebp], 9
  00cc9	0f 8d b8 00 00
	00		 jge	 $L202688

; 196  : 	{
; 197  : 		CSkinButton2* pBtn = new CSkinButton2;

  00ccf	68 88 01 00 00	 push	 392			; 00000188H
  00cd4	e8 00 00 00 00	 call	 ??2CObject@@SGPAXI@Z	; CObject::operator new
  00cd9	89 85 d4 fe ff
	ff		 mov	 DWORD PTR $T204734[ebp], eax
  00cdf	c6 45 fc 01	 mov	 BYTE PTR __$EHRec$[ebp+8], 1
  00ce3	83 bd d4 fe ff
	ff 00		 cmp	 DWORD PTR $T204734[ebp], 0
  00cea	74 13		 je	 SHORT $L204735
  00cec	8b 8d d4 fe ff
	ff		 mov	 ecx, DWORD PTR $T204734[ebp]
  00cf2	e8 00 00 00 00	 call	 ??0CSkinButton2@@QAE@XZ	; CSkinButton2::CSkinButton2
  00cf7	89 85 b8 fe ff
	ff		 mov	 DWORD PTR tv232[ebp], eax
  00cfd	eb 0a		 jmp	 SHORT $L204736
$L204735:
  00cff	c7 85 b8 fe ff
	ff 00 00 00 00	 mov	 DWORD PTR tv232[ebp], 0
$L204736:
  00d09	8b 8d b8 fe ff
	ff		 mov	 ecx, DWORD PTR tv232[ebp]
  00d0f	89 8d d8 fe ff
	ff		 mov	 DWORD PTR $T204733[ebp], ecx
  00d15	c6 45 fc 00	 mov	 BYTE PTR __$EHRec$[ebp+8], 0
  00d19	8b 95 d8 fe ff
	ff		 mov	 edx, DWORD PTR $T204733[ebp]
  00d1f	89 55 b4	 mov	 DWORD PTR _pBtn$202689[ebp], edx

; 198  : 		pBtn->SetBKColor(255,GetRValue( colV[i] ),GetGValue( colV[i] ),GetBValue( colV[i] ) );

  00d22	8b 45 b8	 mov	 eax, DWORD PTR _i$202685[ebp]
  00d25	50		 push	 eax
  00d26	8d 4d dc	 lea	 ecx, DWORD PTR _colV$[ebp]
  00d29	e8 00 00 00 00	 call	 ??A?$vector@KV?$allocator@K@std@@@std@@QAEAAKI@Z ; std::vector<unsigned long,std::allocator<unsigned long> >::operator[]
  00d2e	8b 08		 mov	 ecx, DWORD PTR [eax]
  00d30	c1 e9 10	 shr	 ecx, 16			; 00000010H
  00d33	51		 push	 ecx
  00d34	8b 55 b8	 mov	 edx, DWORD PTR _i$202685[ebp]
  00d37	52		 push	 edx
  00d38	8d 4d dc	 lea	 ecx, DWORD PTR _colV$[ebp]
  00d3b	e8 00 00 00 00	 call	 ??A?$vector@KV?$allocator@K@std@@@std@@QAEAAKI@Z ; std::vector<unsigned long,std::allocator<unsigned long> >::operator[]
  00d40	0f b7 00	 movzx	 eax, WORD PTR [eax]
  00d43	c1 f8 08	 sar	 eax, 8
  00d46	50		 push	 eax
  00d47	8b 4d b8	 mov	 ecx, DWORD PTR _i$202685[ebp]
  00d4a	51		 push	 ecx
  00d4b	8d 4d dc	 lea	 ecx, DWORD PTR _colV$[ebp]
  00d4e	e8 00 00 00 00	 call	 ??A?$vector@KV?$allocator@K@std@@@std@@QAEAAKI@Z ; std::vector<unsigned long,std::allocator<unsigned long> >::operator[]
  00d53	8a 10		 mov	 dl, BYTE PTR [eax]
  00d55	52		 push	 edx
  00d56	68 ff 00 00 00	 push	 255			; 000000ffH
  00d5b	8b 4d b4	 mov	 ecx, DWORD PTR _pBtn$202689[ebp]
  00d5e	e8 00 00 00 00	 call	 ?SetBKColor@CSkinButton2@@QAEXEEEE@Z ; CSkinButton2::SetBKColor

; 199  : 		pBtn->m_enmuDrawType = CSkinButton2::NO_FRAME_SELECT;

  00d63	8b 45 b4	 mov	 eax, DWORD PTR _pBtn$202689[ebp]
  00d66	c7 40 54 10 00
	00 00		 mov	 DWORD PTR [eax+84], 16	; 00000010H

; 200  : 
; 201  : 		m_colbtnVec.push_back( pBtn );		

  00d6d	8d 4d b4	 lea	 ecx, DWORD PTR _pBtn$202689[ebp]
  00d70	51		 push	 ecx
  00d71	8b 8d cc fe ff
	ff		 mov	 ecx, DWORD PTR _this$[ebp]
  00d77	81 c1 e4 00 00
	00		 add	 ecx, 228		; 000000e4H
  00d7d	e8 00 00 00 00	 call	 ?push_back@?$vector@PAVCSkinButton2@@V?$allocator@PAVCSkinButton2@@@std@@@std@@QAEXABQAVCSkinButton2@@@Z ; std::vector<CSkinButton2 *,std::allocator<CSkinButton2 *> >::push_back

; 202  : 	}

  00d82	e9 35 ff ff ff	 jmp	 $L202687
$L202688:

; 203  : 
; 204  : 	return CFrameWnd::PreCreateWindow(cs);

  00d87	8b 55 08	 mov	 edx, DWORD PTR _cs$[ebp]
  00d8a	52		 push	 edx
  00d8b	8b 8d cc fe ff
	ff		 mov	 ecx, DWORD PTR _this$[ebp]
  00d91	e8 00 00 00 00	 call	 ?PreCreateWindow@CFrameWnd@@MAEHAAUtagCREATESTRUCTA@@@Z ; CFrameWnd::PreCreateWindow
  00d96	89 85 d0 fe ff
	ff		 mov	 DWORD PTR $T204737[ebp], eax
  00d9c	c7 45 fc ff ff
	ff ff		 mov	 DWORD PTR __$EHRec$[ebp+8], -1
  00da3	8d 4d dc	 lea	 ecx, DWORD PTR _colV$[ebp]
  00da6	e8 00 00 00 00	 call	 ??1?$vector@KV?$allocator@K@std@@@std@@QAE@XZ ; std::vector<unsigned long,std::allocator<unsigned long> >::~vector<unsigned long,std::allocator<unsigned long> >
  00dab	8b 85 d0 fe ff
	ff		 mov	 eax, DWORD PTR $T204737[ebp]

; 205  : }

  00db1	8b 4d f4	 mov	 ecx, DWORD PTR __$EHRec$[ebp]
  00db4	64 89 0d 00 00
	00 00		 mov	 DWORD PTR fs:__except_list, ecx
  00dbb	8b e5		 mov	 esp, ebp
  00dbd	5d		 pop	 ebp
  00dbe	c2 04 00	 ret	 4
_TEXT	ENDS
text$x	SEGMENT
$L204738:
  00178	8d 4d dc	 lea	 ecx, DWORD PTR _colV$[ebp]
  0017b	e9 00 00 00 00	 jmp	 ??1?$vector@KV?$allocator@K@std@@@std@@QAE@XZ ; std::vector<unsigned long,std::allocator<unsigned long> >::~vector<unsigned long,std::allocator<unsigned long> >
$L204739:
  00180	8b 85 d4 fe ff
	ff		 mov	 eax, DWORD PTR $T204734[ebp]
  00186	50		 push	 eax
  00187	e8 00 00 00 00	 call	 ??3CObject@@SGXPAX@Z	; CObject::operator delete
  0018c	c3		 ret	 0
__ehhandler$?PreCreateWindow@CMainSkinWnd@@MAEHAAUtagCREATESTRUCTA@@@Z:
  0018d	b8 00 00 00 00	 mov	 eax, OFFSET FLAT:$T204741
  00192	e9 00 00 00 00	 jmp	 ___CxxFrameHandler
text$x	ENDS
?PreCreateWindow@CMainSkinWnd@@MAEHAAUtagCREATESTRUCTA@@@Z ENDP ; CMainSkinWnd::PreCreateWindow
; Function compile flags: /Odt
_TEXT	SEGMENT
_this$ = -4						; size = 4
_pDC$ = 8						; size = 4
?OnEraseBkgnd@CMainSkinWnd@@QAEHPAVCDC@@@Z PROC NEAR	; CMainSkinWnd::OnEraseBkgnd
; _this$ = ecx

; 208  : {

  00dd0	55		 push	 ebp
  00dd1	8b ec		 mov	 ebp, esp
  00dd3	51		 push	 ecx
  00dd4	89 4d fc	 mov	 DWORD PTR _this$[ebp], ecx

; 209  : 	// TODO: Add your message handler code here and/or call default
; 210  : 	return false;

  00dd7	33 c0		 xor	 eax, eax

; 211  : //	return CFrameWnd::OnEraseBkgnd(pDC);
; 212  : 	//return true;
; 213  : }

  00dd9	8b e5		 mov	 esp, ebp
  00ddb	5d		 pop	 ebp
  00ddc	c2 04 00	 ret	 4
?OnEraseBkgnd@CMainSkinWnd@@QAEHPAVCDC@@@Z ENDP		; CMainSkinWnd::OnEraseBkgnd
_TEXT	ENDS
PUBLIC	?GetClientRect@CWnd@@QBEXPAUtagRECT@@@Z		; CWnd::GetClientRect
PUBLIC	?SetLayeredWindowAttributes@CWnd@@QAEHKEK@Z	; CWnd::SetLayeredWindowAttributes
PUBLIC	?SetTimer@CWnd@@QAEIIIP6GXPAUHWND__@@IIK@Z@Z	; CWnd::SetTimer
PUBLIC	?SetCheck@CButton@@QAEXH@Z			; CButton::SetCheck
PUBLIC	??HATL@@YA?AV?$CStringT@DV?$StrTraitMFC_DLL@DV?$ChTraitsCRT@D@ATL@@@@@0@ABV10@0@Z ; ATL::operator+
PUBLIC	??HATL@@YA?AV?$CStringT@DV?$StrTraitMFC_DLL@DV?$ChTraitsCRT@D@ATL@@@@@0@ABV10@PBD@Z ; ATL::operator+
EXTRN	?OnCreate@CFrameWnd@@IAEHPAUtagCREATESTRUCTA@@@Z:NEAR ; CFrameWnd::OnCreate
EXTRN	?ShowWindow@CWnd@@QAEHH@Z:NEAR			; CWnd::ShowWindow
EXTRN	__imp_??B?$CSimpleStringT@D$00@ATL@@QBEPBDXZ:NEAR
EXTRN	__imp_?find_last_of@?$basic_string@DU?$char_traits@D@std@@V?$allocator@D@2@@std@@QBEIDI@Z:NEAR
EXTRN	__imp_?substr@?$basic_string@DU?$char_traits@D@std@@V?$allocator@D@2@@std@@QBE?AV12@II@Z:NEAR
EXTRN	?GetConfigIntValue@AfxUserConfig@@QAEXABV?$basic_string@DU?$char_traits@D@std@@V?$allocator@D@2@@std@@0AAH@Z:NEAR ; AfxUserConfig::GetConfigIntValue
EXTRN	__imp__GetWindowLongA@8:NEAR
EXTRN	__imp__SetWindowLongA@12:NEAR
EXTRN	?ModifyStyleEx@CWnd@@QAEHKKI@Z:NEAR		; CWnd::ModifyStyleEx
EXTRN	?SetSkin@CSkinButton2@@QAEHV?$CStringT@DV?$StrTraitMFC_DLL@DV?$ChTraitsCRT@D@ATL@@@@@ATL@@H@Z:NEAR ; CSkinButton2::SetSkin
EXTRN	__imp_?npos@?$basic_string@DU?$char_traits@D@std@@V?$allocator@D@2@@std@@2IB:DWORD
EXTRN	__imp_??4?$basic_string@DU?$char_traits@D@std@@V?$allocator@D@2@@std@@QAEAAV01@ABV01@@Z:NEAR
EXTRN	__imp_??Y?$basic_string@DU?$char_traits@D@std@@V?$allocator@D@2@@std@@QAEAAV01@PBD@Z:NEAR
xdata$x	SEGMENT
$T204840 DD	0ffffffffH
	DD	FLAT:$L204811
	DD	00H
	DD	FLAT:$L204812
	DD	0ffffffffH
	DD	FLAT:$L204819
	DD	0ffffffffH
	DD	FLAT:$L204821
	DD	03H
	DD	FLAT:$L204822
	DD	0ffffffffH
	DD	FLAT:$L204822
	DD	05H
	DD	FLAT:$L204823
	DD	05H
	DD	FLAT:$L204824
	DD	07H
	DD	FLAT:$L204825
	DD	05H
	DD	FLAT:$L204826
	DD	09H
	DD	FLAT:$L204827
	DD	0aH
	DD	FLAT:$L204828
	DD	0bH
	DD	FLAT:$L204829
	DD	05H
	DD	FLAT:$L204830
	DD	0dH
	DD	FLAT:$L204831
	DD	05H
	DD	FLAT:$L204832
	DD	0fH
	DD	FLAT:$L204833
	DD	010H
	DD	FLAT:$L204834
$T204837 DD	019930520H
	DD	012H
	DD	FLAT:$T204840
	DD	2 DUP(00H)
	DD	2 DUP(00H)
; Function compile flags: /Odt
xdata$x	ENDS
_TEXT	SEGMENT
tv766 = -600						; size = 4
tv763 = -596						; size = 4
tv774 = -592						; size = 4
tv761 = -588						; size = 4
tv641 = -584						; size = 4
tv759 = -580						; size = 4
tv646 = -576						; size = 4
tv755 = -572						; size = 4
tv773 = -568						; size = 4
tv752 = -564						; size = 4
tv772 = -560						; size = 4
tv750 = -556						; size = 4
tv474 = -552						; size = 4
tv748 = -548						; size = 4
tv479 = -544						; size = 4
tv496 = -540						; size = 4
tv744 = -536						; size = 4
tv433 = -532						; size = 4
tv741 = -528						; size = 4
tv771 = -524						; size = 4
tv441 = -520						; size = 4
tv436 = -516						; size = 4
tv739 = -512						; size = 4
tv736 = -508						; size = 4
tv770 = -504						; size = 4
tv734 = -500						; size = 4
tv731 = -496						; size = 4
tv728 = -492						; size = 4
tv725 = -488						; size = 4
tv722 = -484						; size = 4
tv719 = -480						; size = 4
tv262 = -476						; size = 4
tv92 = -472						; size = 4
tv87 = -468						; size = 4
tv716 = -464						; size = 4
tv769 = -460						; size = 4
tv713 = -456						; size = 4
tv768 = -452						; size = 4
_this$ = -448						; size = 4
$T204810 = -444						; size = 4
$T204809 = -440						; size = 4
$T204808 = -436						; size = 4
$T204807 = -432						; size = 4
$T204806 = -428						; size = 4
$T204805 = -424						; size = 28
$T204804 = -396						; size = 28
$T204803 = -368						; size = 16
$T204802 = -352						; size = 4
$T204801 = -348						; size = 4
$T204800 = -344						; size = 4
$T204799 = -340						; size = 4
$T204798 = -336						; size = 4
$T204797 = -332						; size = 16
$T204796 = -316						; size = 4
$T204795 = -312						; size = 28
$T204794 = -284						; size = 28
$T204793 = -256						; size = 28
$T204792 = -228						; size = 4
$T204791 = -224						; size = 4
$T204790 = -220						; size = 4
$T204789 = -216						; size = 4
$T204788 = -212						; size = 4
$T204787 = -208						; size = 4
$T204786 = -204						; size = 4
$T204785 = -200						; size = 4
$T204784 = -196						; size = 4
$T204783 = -192						; size = 16
$T204782 = -176						; size = 16
$T204781 = -160						; size = 16
$T204780 = -144						; size = 16
$T204779 = -128						; size = 16
$T204778 = -112						; size = 16
$T204777 = -96						; size = 4
$T204776 = -92						; size = 4
_iColorSelect$ = -88					; size = 4
_nIndex$ = -84						; size = 4
_lrectClient$ = -80					; size = 16
_itor$ = -64						; size = 4
_idx$ = -60						; size = 4
_pLayoutMgr$ = -56					; size = 4
_skinPath$ = -52					; size = 28
__$ArrayPad$ = -24					; size = 4
_iUserColor$ = -20					; size = 4
_col_btn_t$ = -16					; size = 4
__$EHRec$ = -12						; size = 12
__$ReturnAddr$ = 4					; size = 4
_lpCreateStruct$ = 8					; size = 4
?OnCreate@CMainSkinWnd@@QAEHPAUtagCREATESTRUCTA@@@Z PROC NEAR ; CMainSkinWnd::OnCreate
; _this$ = ecx

; 216  : {

  00de0	55		 push	 ebp
  00de1	8b ec		 mov	 ebp, esp
  00de3	6a ff		 push	 -1
  00de5	68 00 00 00 00	 push	 __ehhandler$?OnCreate@CMainSkinWnd@@QAEHPAUtagCREATESTRUCTA@@@Z
  00dea	64 a1 00 00 00
	00		 mov	 eax, DWORD PTR fs:__except_list
  00df0	50		 push	 eax
  00df1	64 89 25 00 00
	00 00		 mov	 DWORD PTR fs:__except_list, esp
  00df8	81 ec 4c 02 00
	00		 sub	 esp, 588		; 0000024cH
  00dfe	a1 00 00 00 00	 mov	 eax, DWORD PTR ___security_cookie
  00e03	89 45 e8	 mov	 DWORD PTR __$ArrayPad$[ebp], eax
  00e06	89 8d 40 fe ff
	ff		 mov	 DWORD PTR _this$[ebp], ecx

; 217  : 	if (CFrameWnd::OnCreate(lpCreateStruct) == -1)

  00e0c	8b 45 08	 mov	 eax, DWORD PTR _lpCreateStruct$[ebp]
  00e0f	50		 push	 eax
  00e10	8b 8d 40 fe ff
	ff		 mov	 ecx, DWORD PTR _this$[ebp]
  00e16	e8 00 00 00 00	 call	 ?OnCreate@CFrameWnd@@IAEHPAUtagCREATESTRUCTA@@@Z ; CFrameWnd::OnCreate
  00e1b	83 f8 ff	 cmp	 eax, -1
  00e1e	75 08		 jne	 SHORT $L202707

; 218  : 		return -1;

  00e20	83 c8 ff	 or	 eax, -1
  00e23	e9 ab 0a 00 00	 jmp	 $L202706
$L202707:

; 219  : 	
; 220  : 	ModifyStyleEx(WS_EX_CLIENTEDGE, 0, SWP_FRAMECHANGED);

  00e28	6a 20		 push	 32			; 00000020H
  00e2a	6a 00		 push	 0
  00e2c	68 00 02 00 00	 push	 512			; 00000200H
  00e31	8b 8d 40 fe ff
	ff		 mov	 ecx, DWORD PTR _this$[ebp]
  00e37	e8 00 00 00 00	 call	 ?ModifyStyleEx@CWnd@@QAEHKKI@Z ; CWnd::ModifyStyleEx

; 221  : 	SetWindowLong(m_hWnd,GWL_EXSTYLE,GetWindowLong(m_hWnd,GWL_EXSTYLE)^WS_EX_LAYERED);

  00e3c	6a ec		 push	 -20			; ffffffecH
  00e3e	8b 8d 40 fe ff
	ff		 mov	 ecx, DWORD PTR _this$[ebp]
  00e44	8b 51 20	 mov	 edx, DWORD PTR [ecx+32]
  00e47	52		 push	 edx
  00e48	ff 15 00 00 00
	00		 call	 DWORD PTR __imp__GetWindowLongA@8
  00e4e	35 00 00 08 00	 xor	 eax, 524288		; 00080000H
  00e53	50		 push	 eax
  00e54	6a ec		 push	 -20			; ffffffecH
  00e56	8b 85 40 fe ff
	ff		 mov	 eax, DWORD PTR _this$[ebp]
  00e5c	8b 48 20	 mov	 ecx, DWORD PTR [eax+32]
  00e5f	51		 push	 ecx
  00e60	ff 15 00 00 00
	00		 call	 DWORD PTR __imp__SetWindowLongA@12

; 222  : 	SetLayeredWindowAttributes(RGB(255,0,0),0,LWA_COLORKEY);

  00e66	6a 01		 push	 1
  00e68	6a 00		 push	 0
  00e6a	68 ff 00 00 00	 push	 255			; 000000ffH
  00e6f	8b 8d 40 fe ff
	ff		 mov	 ecx, DWORD PTR _this$[ebp]
  00e75	e8 00 00 00 00	 call	 ?SetLayeredWindowAttributes@CWnd@@QAEHKEK@Z ; CWnd::SetLayeredWindowAttributes

; 223  : 
; 224  : 	AfxGetUIManager()->UIGetLayoutMgr()->CreateBmpPane( this,"ChangeSkin","normal" );

  00e7a	51		 push	 ecx
  00e7b	8b cc		 mov	 ecx, esp
  00e7d	89 65 a4	 mov	 DWORD PTR $T204776[ebp], esp
  00e80	68 00 00 00 00	 push	 OFFSET FLAT:$SG202716
  00e85	ff 15 00 00 00
	00		 call	 DWORD PTR __imp_??0?$CStringT@DV?$StrTraitMFC_DLL@DV?$ChTraitsCRT@D@ATL@@@@@ATL@@QAE@PBD@Z
  00e8b	89 85 3c fe ff
	ff		 mov	 DWORD PTR tv768[ebp], eax
  00e91	8b 95 3c fe ff
	ff		 mov	 edx, DWORD PTR tv768[ebp]
  00e97	89 95 38 fe ff
	ff		 mov	 DWORD PTR tv713[ebp], edx
  00e9d	c7 45 fc 00 00
	00 00		 mov	 DWORD PTR __$EHRec$[ebp+8], 0
  00ea4	51		 push	 ecx
  00ea5	8b cc		 mov	 ecx, esp
  00ea7	89 65 a0	 mov	 DWORD PTR $T204777[ebp], esp
  00eaa	68 00 00 00 00	 push	 OFFSET FLAT:$SG202717
  00eaf	ff 15 00 00 00
	00		 call	 DWORD PTR __imp_??0?$CStringT@DV?$StrTraitMFC_DLL@DV?$ChTraitsCRT@D@ATL@@@@@ATL@@QAE@PBD@Z
  00eb5	89 85 34 fe ff
	ff		 mov	 DWORD PTR tv769[ebp], eax
  00ebb	8b 85 34 fe ff
	ff		 mov	 eax, DWORD PTR tv769[ebp]
  00ec1	89 85 30 fe ff
	ff		 mov	 DWORD PTR tv716[ebp], eax
  00ec7	c6 45 fc 01	 mov	 BYTE PTR __$EHRec$[ebp+8], 1
  00ecb	e8 00 00 00 00	 call	 ?AfxGetUIManager@@YAPAVIUIManager@@XZ ; AfxGetUIManager
  00ed0	89 85 2c fe ff
	ff		 mov	 DWORD PTR tv87[ebp], eax
  00ed6	8b 8d 2c fe ff
	ff		 mov	 ecx, DWORD PTR tv87[ebp]
  00edc	8b 11		 mov	 edx, DWORD PTR [ecx]
  00ede	8b 8d 2c fe ff
	ff		 mov	 ecx, DWORD PTR tv87[ebp]
  00ee4	ff 52 24	 call	 DWORD PTR [edx+36]
  00ee7	89 85 28 fe ff
	ff		 mov	 DWORD PTR tv92[ebp], eax
  00eed	8b 85 40 fe ff
	ff		 mov	 eax, DWORD PTR _this$[ebp]
  00ef3	50		 push	 eax
  00ef4	8b 8d 28 fe ff
	ff		 mov	 ecx, DWORD PTR tv92[ebp]
  00efa	8b 11		 mov	 edx, DWORD PTR [ecx]
  00efc	c7 45 fc ff ff
	ff ff		 mov	 DWORD PTR __$EHRec$[ebp+8], -1
  00f03	8b 8d 28 fe ff
	ff		 mov	 ecx, DWORD PTR tv92[ebp]
  00f09	ff 52 58	 call	 DWORD PTR [edx+88]

; 225  : 
; 226  : 
; 227  : 	CRect lrectClient;

  00f0c	8d 4d b0	 lea	 ecx, DWORD PTR _lrectClient$[ebp]
  00f0f	e8 00 00 00 00	 call	 ??0CRect@@QAE@XZ	; CRect::CRect

; 228  : 	GetClientRect(&lrectClient);

  00f14	8d 45 b0	 lea	 eax, DWORD PTR _lrectClient$[ebp]
  00f17	50		 push	 eax
  00f18	8b 8d 40 fe ff
	ff		 mov	 ecx, DWORD PTR _this$[ebp]
  00f1e	e8 00 00 00 00	 call	 ?GetClientRect@CWnd@@QBEXPAUtagRECT@@@Z ; CWnd::GetClientRect

; 229  : 	m_BtnClose.Create(NULL,WS_VISIBLE ,CRect(0,0,0,0), this,ID_CLOSE_CHANGESKIN_BTN);

  00f23	68 11 27 00 00	 push	 10001			; 00002711H
  00f28	8b 8d 40 fe ff
	ff		 mov	 ecx, DWORD PTR _this$[ebp]
  00f2e	51		 push	 ecx
  00f2f	6a 00		 push	 0
  00f31	6a 00		 push	 0
  00f33	6a 00		 push	 0
  00f35	6a 00		 push	 0
  00f37	8d 4d 90	 lea	 ecx, DWORD PTR $T204778[ebp]
  00f3a	e8 00 00 00 00	 call	 ??0CRect@@QAE@HHHH@Z	; CRect::CRect
  00f3f	50		 push	 eax
  00f40	68 00 00 00 10	 push	 268435456		; 10000000H
  00f45	6a 00		 push	 0
  00f47	8b 8d 40 fe ff
	ff		 mov	 ecx, DWORD PTR _this$[ebp]
  00f4d	81 c1 f4 00 00
	00		 add	 ecx, 244		; 000000f4H
  00f53	8b 95 40 fe ff
	ff		 mov	 edx, DWORD PTR _this$[ebp]
  00f59	8b 82 f4 00 00
	00		 mov	 eax, DWORD PTR [edx+244]
  00f5f	ff 90 38 01 00
	00		 call	 DWORD PTR [eax+312]

; 230  : 	m_btnSub.Create(NULL,WS_VISIBLE|BS_AUTOCHECKBOX ,CRect(0,0,0,0), this,ID_SUB_CHANGESKIN_BTN);

  00f65	68 12 27 00 00	 push	 10002			; 00002712H
  00f6a	8b 8d 40 fe ff
	ff		 mov	 ecx, DWORD PTR _this$[ebp]
  00f70	51		 push	 ecx
  00f71	6a 00		 push	 0
  00f73	6a 00		 push	 0
  00f75	6a 00		 push	 0
  00f77	6a 00		 push	 0
  00f79	8d 4d 80	 lea	 ecx, DWORD PTR $T204779[ebp]
  00f7c	e8 00 00 00 00	 call	 ??0CRect@@QAE@HHHH@Z	; CRect::CRect
  00f81	50		 push	 eax
  00f82	68 03 00 00 10	 push	 268435459		; 10000003H
  00f87	6a 00		 push	 0
  00f89	8b 8d 40 fe ff
	ff		 mov	 ecx, DWORD PTR _this$[ebp]
  00f8f	81 c1 3c 03 00
	00		 add	 ecx, 828		; 0000033cH
  00f95	8b 95 40 fe ff
	ff		 mov	 edx, DWORD PTR _this$[ebp]
  00f9b	8b 82 3c 03 00
	00		 mov	 eax, DWORD PTR [edx+828]
  00fa1	ff 90 38 01 00
	00		 call	 DWORD PTR [eax+312]

; 231  : 	m_btnSkin.Create(NULL,WS_VISIBLE|BS_AUTOCHECKBOX,CRect(0,0,0,0), this,ID_SKIN_CHANGESKIN_BTN);

  00fa7	68 13 27 00 00	 push	 10003			; 00002713H
  00fac	8b 8d 40 fe ff
	ff		 mov	 ecx, DWORD PTR _this$[ebp]
  00fb2	51		 push	 ecx
  00fb3	6a 00		 push	 0
  00fb5	6a 00		 push	 0
  00fb7	6a 00		 push	 0
  00fb9	6a 00		 push	 0
  00fbb	8d 8d 70 ff ff
	ff		 lea	 ecx, DWORD PTR $T204780[ebp]
  00fc1	e8 00 00 00 00	 call	 ??0CRect@@QAE@HHHH@Z	; CRect::CRect
  00fc6	50		 push	 eax
  00fc7	68 03 00 00 10	 push	 268435459		; 10000003H
  00fcc	6a 00		 push	 0
  00fce	8b 8d 40 fe ff
	ff		 mov	 ecx, DWORD PTR _this$[ebp]
  00fd4	81 c1 18 02 00
	00		 add	 ecx, 536		; 00000218H
  00fda	8b 95 40 fe ff
	ff		 mov	 edx, DWORD PTR _this$[ebp]
  00fe0	8b 82 18 02 00
	00		 mov	 eax, DWORD PTR [edx+536]
  00fe6	ff 90 38 01 00
	00		 call	 DWORD PTR [eax+312]

; 232  : 
; 233  : 	m_btnWebSub.Create(NULL,WS_VISIBLE|BS_AUTOCHECKBOX,CRect(0,0,0,0), this,ID_WEBSUB_CHANGESKIN_BTN);

  00fec	68 16 27 00 00	 push	 10006			; 00002716H
  00ff1	8b 8d 40 fe ff
	ff		 mov	 ecx, DWORD PTR _this$[ebp]
  00ff7	51		 push	 ecx
  00ff8	6a 00		 push	 0
  00ffa	6a 00		 push	 0
  00ffc	6a 00		 push	 0
  00ffe	6a 00		 push	 0
  01000	8d 8d 60 ff ff
	ff		 lea	 ecx, DWORD PTR $T204781[ebp]
  01006	e8 00 00 00 00	 call	 ??0CRect@@QAE@HHHH@Z	; CRect::CRect
  0100b	50		 push	 eax
  0100c	68 03 00 00 10	 push	 268435459		; 10000003H
  01011	6a 00		 push	 0
  01013	8b 8d 40 fe ff
	ff		 mov	 ecx, DWORD PTR _this$[ebp]
  01019	81 c1 60 04 00
	00		 add	 ecx, 1120		; 00000460H
  0101f	8b 95 40 fe ff
	ff		 mov	 edx, DWORD PTR _this$[ebp]
  01025	8b 82 60 04 00
	00		 mov	 eax, DWORD PTR [edx+1120]
  0102b	ff 90 38 01 00
	00		 call	 DWORD PTR [eax+312]

; 234  : 
; 235  : 	m_btnMoreColr.Create(NULL,WS_VISIBLE,CRect(0,0,0,0), this,ID_MORECOLOR_CHANGESKIN_BTN);

  01031	68 14 27 00 00	 push	 10004			; 00002714H
  01036	8b 8d 40 fe ff
	ff		 mov	 ecx, DWORD PTR _this$[ebp]
  0103c	51		 push	 ecx
  0103d	6a 00		 push	 0
  0103f	6a 00		 push	 0
  01041	6a 00		 push	 0
  01043	6a 00		 push	 0
  01045	8d 8d 50 ff ff
	ff		 lea	 ecx, DWORD PTR $T204782[ebp]
  0104b	e8 00 00 00 00	 call	 ??0CRect@@QAE@HHHH@Z	; CRect::CRect
  01050	50		 push	 eax
  01051	68 00 00 00 10	 push	 268435456		; 10000000H
  01056	6a 00		 push	 0
  01058	8b 8d 40 fe ff
	ff		 mov	 ecx, DWORD PTR _this$[ebp]
  0105e	81 c1 84 05 00
	00		 add	 ecx, 1412		; 00000584H
  01064	8b 95 40 fe ff
	ff		 mov	 edx, DWORD PTR _this$[ebp]
  0106a	8b 82 84 05 00
	00		 mov	 eax, DWORD PTR [edx+1412]
  01070	ff 90 38 01 00
	00		 call	 DWORD PTR [eax+312]

; 236  : 	m_btnDownMore.Create(NULL,WS_VISIBLE,CRect(0,0,0,0), this,ID_DOWNMORE_CHANGESKIN_BTN);

  01076	68 15 27 00 00	 push	 10005			; 00002715H
  0107b	8b 8d 40 fe ff
	ff		 mov	 ecx, DWORD PTR _this$[ebp]
  01081	51		 push	 ecx
  01082	6a 00		 push	 0
  01084	6a 00		 push	 0
  01086	6a 00		 push	 0
  01088	6a 00		 push	 0
  0108a	8d 8d 40 ff ff
	ff		 lea	 ecx, DWORD PTR $T204783[ebp]
  01090	e8 00 00 00 00	 call	 ??0CRect@@QAE@HHHH@Z	; CRect::CRect
  01095	50		 push	 eax
  01096	68 00 00 00 10	 push	 268435456		; 10000000H
  0109b	6a 00		 push	 0
  0109d	8b 8d 40 fe ff
	ff		 mov	 ecx, DWORD PTR _this$[ebp]
  010a3	81 c1 a8 06 00
	00		 add	 ecx, 1704		; 000006a8H
  010a9	8b 95 40 fe ff
	ff		 mov	 edx, DWORD PTR _this$[ebp]
  010af	8b 82 a8 06 00
	00		 mov	 eax, DWORD PTR [edx+1704]
  010b5	ff 90 38 01 00
	00		 call	 DWORD PTR [eax+312]

; 237  : 
; 238  : 	ILayoutMgr*	pLayoutMgr = AfxGetUIManager()->UIGetLayoutMgr();

  010bb	e8 00 00 00 00	 call	 ?AfxGetUIManager@@YAPAVIUIManager@@XZ ; AfxGetUIManager
  010c0	89 85 24 fe ff
	ff		 mov	 DWORD PTR tv262[ebp], eax
  010c6	8b 8d 24 fe ff
	ff		 mov	 ecx, DWORD PTR tv262[ebp]
  010cc	8b 11		 mov	 edx, DWORD PTR [ecx]
  010ce	8b 8d 24 fe ff
	ff		 mov	 ecx, DWORD PTR tv262[ebp]
  010d4	ff 52 24	 call	 DWORD PTR [edx+36]
  010d7	89 45 c8	 mov	 DWORD PTR _pLayoutMgr$[ebp], eax

; 239  : 	pLayoutMgr->RegisterCtrl( this,"ChangeSkin_Close",&m_BtnClose );

  010da	8b 85 40 fe ff
	ff		 mov	 eax, DWORD PTR _this$[ebp]
  010e0	05 f4 00 00 00	 add	 eax, 244		; 000000f4H
  010e5	50		 push	 eax
  010e6	51		 push	 ecx
  010e7	8b cc		 mov	 ecx, esp
  010e9	89 a5 3c ff ff
	ff		 mov	 DWORD PTR $T204784[ebp], esp
  010ef	68 00 00 00 00	 push	 OFFSET FLAT:$SG202727
  010f4	ff 15 00 00 00
	00		 call	 DWORD PTR __imp_??0?$CStringT@DV?$StrTraitMFC_DLL@DV?$ChTraitsCRT@D@ATL@@@@@ATL@@QAE@PBD@Z
  010fa	89 85 20 fe ff
	ff		 mov	 DWORD PTR tv719[ebp], eax
  01100	8b 8d 40 fe ff
	ff		 mov	 ecx, DWORD PTR _this$[ebp]
  01106	51		 push	 ecx
  01107	8b 55 c8	 mov	 edx, DWORD PTR _pLayoutMgr$[ebp]
  0110a	8b 02		 mov	 eax, DWORD PTR [edx]
  0110c	8b 4d c8	 mov	 ecx, DWORD PTR _pLayoutMgr$[ebp]
  0110f	ff 50 34	 call	 DWORD PTR [eax+52]

; 240  : 	pLayoutMgr->RegisterCtrl( this,"Sub",&m_btnSub);

  01112	8b 8d 40 fe ff
	ff		 mov	 ecx, DWORD PTR _this$[ebp]
  01118	81 c1 3c 03 00
	00		 add	 ecx, 828		; 0000033cH
  0111e	51		 push	 ecx
  0111f	51		 push	 ecx
  01120	8b cc		 mov	 ecx, esp
  01122	89 a5 38 ff ff
	ff		 mov	 DWORD PTR $T204785[ebp], esp
  01128	68 00 00 00 00	 push	 OFFSET FLAT:$SG202729
  0112d	ff 15 00 00 00
	00		 call	 DWORD PTR __imp_??0?$CStringT@DV?$StrTraitMFC_DLL@DV?$ChTraitsCRT@D@ATL@@@@@ATL@@QAE@PBD@Z
  01133	89 85 1c fe ff
	ff		 mov	 DWORD PTR tv722[ebp], eax
  01139	8b 95 40 fe ff
	ff		 mov	 edx, DWORD PTR _this$[ebp]
  0113f	52		 push	 edx
  01140	8b 45 c8	 mov	 eax, DWORD PTR _pLayoutMgr$[ebp]
  01143	8b 10		 mov	 edx, DWORD PTR [eax]
  01145	8b 4d c8	 mov	 ecx, DWORD PTR _pLayoutMgr$[ebp]
  01148	ff 52 34	 call	 DWORD PTR [edx+52]

; 241  : 	pLayoutMgr->RegisterCtrl( this,"Skin",&m_btnSkin);

  0114b	8b 85 40 fe ff
	ff		 mov	 eax, DWORD PTR _this$[ebp]
  01151	05 18 02 00 00	 add	 eax, 536		; 00000218H
  01156	50		 push	 eax
  01157	51		 push	 ecx
  01158	8b cc		 mov	 ecx, esp
  0115a	89 a5 34 ff ff
	ff		 mov	 DWORD PTR $T204786[ebp], esp
  01160	68 00 00 00 00	 push	 OFFSET FLAT:$SG202731
  01165	ff 15 00 00 00
	00		 call	 DWORD PTR __imp_??0?$CStringT@DV?$StrTraitMFC_DLL@DV?$ChTraitsCRT@D@ATL@@@@@ATL@@QAE@PBD@Z
  0116b	89 85 18 fe ff
	ff		 mov	 DWORD PTR tv725[ebp], eax
  01171	8b 8d 40 fe ff
	ff		 mov	 ecx, DWORD PTR _this$[ebp]
  01177	51		 push	 ecx
  01178	8b 55 c8	 mov	 edx, DWORD PTR _pLayoutMgr$[ebp]
  0117b	8b 02		 mov	 eax, DWORD PTR [edx]
  0117d	8b 4d c8	 mov	 ecx, DWORD PTR _pLayoutMgr$[ebp]
  01180	ff 50 34	 call	 DWORD PTR [eax+52]

; 242  : 	pLayoutMgr->RegisterCtrl( this,"WebSub",&m_btnWebSub);

  01183	8b 8d 40 fe ff
	ff		 mov	 ecx, DWORD PTR _this$[ebp]
  01189	81 c1 60 04 00
	00		 add	 ecx, 1120		; 00000460H
  0118f	51		 push	 ecx
  01190	51		 push	 ecx
  01191	8b cc		 mov	 ecx, esp
  01193	89 a5 30 ff ff
	ff		 mov	 DWORD PTR $T204787[ebp], esp
  01199	68 00 00 00 00	 push	 OFFSET FLAT:$SG202733
  0119e	ff 15 00 00 00
	00		 call	 DWORD PTR __imp_??0?$CStringT@DV?$StrTraitMFC_DLL@DV?$ChTraitsCRT@D@ATL@@@@@ATL@@QAE@PBD@Z
  011a4	89 85 14 fe ff
	ff		 mov	 DWORD PTR tv728[ebp], eax
  011aa	8b 95 40 fe ff
	ff		 mov	 edx, DWORD PTR _this$[ebp]
  011b0	52		 push	 edx
  011b1	8b 45 c8	 mov	 eax, DWORD PTR _pLayoutMgr$[ebp]
  011b4	8b 10		 mov	 edx, DWORD PTR [eax]
  011b6	8b 4d c8	 mov	 ecx, DWORD PTR _pLayoutMgr$[ebp]
  011b9	ff 52 34	 call	 DWORD PTR [edx+52]

; 243  : 	pLayoutMgr->RegisterCtrl( this,"MoreColor",&m_btnMoreColr);

  011bc	8b 85 40 fe ff
	ff		 mov	 eax, DWORD PTR _this$[ebp]
  011c2	05 84 05 00 00	 add	 eax, 1412		; 00000584H
  011c7	50		 push	 eax
  011c8	51		 push	 ecx
  011c9	8b cc		 mov	 ecx, esp
  011cb	89 a5 2c ff ff
	ff		 mov	 DWORD PTR $T204788[ebp], esp
  011d1	68 00 00 00 00	 push	 OFFSET FLAT:$SG202735
  011d6	ff 15 00 00 00
	00		 call	 DWORD PTR __imp_??0?$CStringT@DV?$StrTraitMFC_DLL@DV?$ChTraitsCRT@D@ATL@@@@@ATL@@QAE@PBD@Z
  011dc	89 85 10 fe ff
	ff		 mov	 DWORD PTR tv731[ebp], eax
  011e2	8b 8d 40 fe ff
	ff		 mov	 ecx, DWORD PTR _this$[ebp]
  011e8	51		 push	 ecx
  011e9	8b 55 c8	 mov	 edx, DWORD PTR _pLayoutMgr$[ebp]
  011ec	8b 02		 mov	 eax, DWORD PTR [edx]
  011ee	8b 4d c8	 mov	 ecx, DWORD PTR _pLayoutMgr$[ebp]
  011f1	ff 50 34	 call	 DWORD PTR [eax+52]

; 244  : 	pLayoutMgr->RegisterCtrl( this,"DownMore",&m_btnDownMore);

  011f4	8b 8d 40 fe ff
	ff		 mov	 ecx, DWORD PTR _this$[ebp]
  011fa	81 c1 a8 06 00
	00		 add	 ecx, 1704		; 000006a8H
  01200	51		 push	 ecx
  01201	51		 push	 ecx
  01202	8b cc		 mov	 ecx, esp
  01204	89 a5 28 ff ff
	ff		 mov	 DWORD PTR $T204789[ebp], esp
  0120a	68 00 00 00 00	 push	 OFFSET FLAT:$SG202737
  0120f	ff 15 00 00 00
	00		 call	 DWORD PTR __imp_??0?$CStringT@DV?$StrTraitMFC_DLL@DV?$ChTraitsCRT@D@ATL@@@@@ATL@@QAE@PBD@Z
  01215	89 85 0c fe ff
	ff		 mov	 DWORD PTR tv734[ebp], eax
  0121b	8b 95 40 fe ff
	ff		 mov	 edx, DWORD PTR _this$[ebp]
  01221	52		 push	 edx
  01222	8b 45 c8	 mov	 eax, DWORD PTR _pLayoutMgr$[ebp]
  01225	8b 10		 mov	 edx, DWORD PTR [eax]
  01227	8b 4d c8	 mov	 ecx, DWORD PTR _pLayoutMgr$[ebp]
  0122a	ff 52 34	 call	 DWORD PTR [edx+52]

; 245  : 	pLayoutMgr->CreateControlPane( this,"ChangeSkin","normal");	

  0122d	51		 push	 ecx
  0122e	8b cc		 mov	 ecx, esp
  01230	89 a5 24 ff ff
	ff		 mov	 DWORD PTR $T204790[ebp], esp
  01236	68 00 00 00 00	 push	 OFFSET FLAT:$SG202740
  0123b	ff 15 00 00 00
	00		 call	 DWORD PTR __imp_??0?$CStringT@DV?$StrTraitMFC_DLL@DV?$ChTraitsCRT@D@ATL@@@@@ATL@@QAE@PBD@Z
  01241	89 85 08 fe ff
	ff		 mov	 DWORD PTR tv770[ebp], eax
  01247	8b 85 08 fe ff
	ff		 mov	 eax, DWORD PTR tv770[ebp]
  0124d	89 85 04 fe ff
	ff		 mov	 DWORD PTR tv736[ebp], eax
  01253	c7 45 fc 02 00
	00 00		 mov	 DWORD PTR __$EHRec$[ebp+8], 2
  0125a	51		 push	 ecx
  0125b	8b cc		 mov	 ecx, esp
  0125d	89 a5 20 ff ff
	ff		 mov	 DWORD PTR $T204791[ebp], esp
  01263	68 00 00 00 00	 push	 OFFSET FLAT:$SG202741
  01268	ff 15 00 00 00
	00		 call	 DWORD PTR __imp_??0?$CStringT@DV?$StrTraitMFC_DLL@DV?$ChTraitsCRT@D@ATL@@@@@ATL@@QAE@PBD@Z
  0126e	89 85 00 fe ff
	ff		 mov	 DWORD PTR tv739[ebp], eax
  01274	8b 8d 40 fe ff
	ff		 mov	 ecx, DWORD PTR _this$[ebp]
  0127a	51		 push	 ecx
  0127b	8b 55 c8	 mov	 edx, DWORD PTR _pLayoutMgr$[ebp]
  0127e	8b 02		 mov	 eax, DWORD PTR [edx]
  01280	c7 45 fc ff ff
	ff ff		 mov	 DWORD PTR __$EHRec$[ebp+8], -1
  01287	8b 4d c8	 mov	 ecx, DWORD PTR _pLayoutMgr$[ebp]
  0128a	ff 50 38	 call	 DWORD PTR [eax+56]

; 246  : 
; 247  : 	//m_btnWebSub.SetCheck(1);
; 248  : 	//m_btnSkin.SetCheck(0);
; 249  : 	//m_btnSub.SetCheck(0);
; 250  : 	//web
; 251  : 	m_btnWebSub.SetCheck(0);

  0128d	6a 00		 push	 0
  0128f	8b 8d 40 fe ff
	ff		 mov	 ecx, DWORD PTR _this$[ebp]
  01295	81 c1 60 04 00
	00		 add	 ecx, 1120		; 00000460H
  0129b	e8 00 00 00 00	 call	 ?SetCheck@CButton@@QAEXH@Z ; CButton::SetCheck

; 252  : 	m_btnSkin.SetCheck(0);

  012a0	6a 00		 push	 0
  012a2	8b 8d 40 fe ff
	ff		 mov	 ecx, DWORD PTR _this$[ebp]
  012a8	81 c1 18 02 00
	00		 add	 ecx, 536		; 00000218H
  012ae	e8 00 00 00 00	 call	 ?SetCheck@CButton@@QAEXH@Z ; CButton::SetCheck

; 253  : 	m_btnSub.SetCheck(1);

  012b3	6a 01		 push	 1
  012b5	8b 8d 40 fe ff
	ff		 mov	 ecx, DWORD PTR _this$[ebp]
  012bb	81 c1 3c 03 00
	00		 add	 ecx, 828		; 0000033cH
  012c1	e8 00 00 00 00	 call	 ?SetCheck@CButton@@QAEXH@Z ; CButton::SetCheck

; 254  : 
; 255  : 	vector<CSkinButton2*>::iterator itor = m_colbtnVec.begin();

  012c6	8d 4d c0	 lea	 ecx, DWORD PTR _itor$[ebp]
  012c9	51		 push	 ecx
  012ca	8b 8d 40 fe ff
	ff		 mov	 ecx, DWORD PTR _this$[ebp]
  012d0	81 c1 e4 00 00
	00		 add	 ecx, 228		; 000000e4H
  012d6	e8 00 00 00 00	 call	 ?begin@?$vector@PAVCSkinButton2@@V?$allocator@PAVCSkinButton2@@@std@@@std@@QAE?AViterator@12@XZ ; std::vector<CSkinButton2 *,std::allocator<CSkinButton2 *> >::begin

; 256  : 
; 257  : 	string  skinPath =AfxGetUIManager()->UIGetSkinMgr()->GetSkinPath();

  012db	e8 00 00 00 00	 call	 ?AfxGetUIManager@@YAPAVIUIManager@@XZ ; AfxGetUIManager
  012e0	89 85 fc fd ff
	ff		 mov	 DWORD PTR tv436[ebp], eax
  012e6	8b 95 fc fd ff
	ff		 mov	 edx, DWORD PTR tv436[ebp]
  012ec	8b 02		 mov	 eax, DWORD PTR [edx]
  012ee	8b 8d fc fd ff
	ff		 mov	 ecx, DWORD PTR tv436[ebp]
  012f4	ff 50 28	 call	 DWORD PTR [eax+40]
  012f7	89 85 f8 fd ff
	ff		 mov	 DWORD PTR tv441[ebp], eax
  012fd	8d 8d 1c ff ff
	ff		 lea	 ecx, DWORD PTR $T204792[ebp]
  01303	51		 push	 ecx
  01304	8b 95 f8 fd ff
	ff		 mov	 edx, DWORD PTR tv441[ebp]
  0130a	8b 02		 mov	 eax, DWORD PTR [edx]
  0130c	8b 8d f8 fd ff
	ff		 mov	 ecx, DWORD PTR tv441[ebp]
  01312	ff 50 40	 call	 DWORD PTR [eax+64]
  01315	89 85 f4 fd ff
	ff		 mov	 DWORD PTR tv771[ebp], eax
  0131b	8b 8d f4 fd ff
	ff		 mov	 ecx, DWORD PTR tv771[ebp]
  01321	89 8d f0 fd ff
	ff		 mov	 DWORD PTR tv741[ebp], ecx
  01327	c7 45 fc 03 00
	00 00		 mov	 DWORD PTR __$EHRec$[ebp+8], 3
  0132e	8b 8d f0 fd ff
	ff		 mov	 ecx, DWORD PTR tv741[ebp]
  01334	ff 15 00 00 00
	00		 call	 DWORD PTR __imp_??B?$CSimpleStringT@D$00@ATL@@QBEPBDXZ
  0133a	50		 push	 eax
  0133b	8d 4d cc	 lea	 ecx, DWORD PTR _skinPath$[ebp]
  0133e	ff 15 00 00 00
	00		 call	 DWORD PTR __imp_??0?$basic_string@DU?$char_traits@D@std@@V?$allocator@D@2@@std@@QAE@PBD@Z
  01344	c6 45 fc 05	 mov	 BYTE PTR __$EHRec$[ebp+8], 5
  01348	8d 8d 1c ff ff
	ff		 lea	 ecx, DWORD PTR $T204792[ebp]
  0134e	ff 15 00 00 00
	00		 call	 DWORD PTR __imp_??1?$CStringT@DV?$StrTraitMFC_DLL@DV?$ChTraitsCRT@D@ATL@@@@@ATL@@QAE@XZ

; 258  : 	size_t idx = skinPath.find_last_of('\\');

  01354	8b 15 00 00 00
	00		 mov	 edx, DWORD PTR __imp_?npos@?$basic_string@DU?$char_traits@D@std@@V?$allocator@D@2@@std@@2IB
  0135a	8b 02		 mov	 eax, DWORD PTR [edx]
  0135c	50		 push	 eax
  0135d	6a 5c		 push	 92			; 0000005cH
  0135f	8d 4d cc	 lea	 ecx, DWORD PTR _skinPath$[ebp]
  01362	ff 15 00 00 00
	00		 call	 DWORD PTR __imp_?find_last_of@?$basic_string@DU?$char_traits@D@std@@V?$allocator@D@2@@std@@QBEIDI@Z
  01368	89 45 c4	 mov	 DWORD PTR _idx$[ebp], eax

; 259  : 	if( idx != string::npos )

  0136b	8b 0d 00 00 00
	00		 mov	 ecx, DWORD PTR __imp_?npos@?$basic_string@DU?$char_traits@D@std@@V?$allocator@D@2@@std@@2IB
  01371	8b 55 c4	 mov	 edx, DWORD PTR _idx$[ebp]
  01374	3b 11		 cmp	 edx, DWORD PTR [ecx]
  01376	74 68		 je	 SHORT $L202748

; 260  : 	{
; 261  : 		skinPath = skinPath.substr(0,idx);

  01378	8b 45 c4	 mov	 eax, DWORD PTR _idx$[ebp]
  0137b	50		 push	 eax
  0137c	6a 00		 push	 0
  0137e	8d 8d 00 ff ff
	ff		 lea	 ecx, DWORD PTR $T204793[ebp]
  01384	51		 push	 ecx
  01385	8d 4d cc	 lea	 ecx, DWORD PTR _skinPath$[ebp]
  01388	ff 15 00 00 00
	00		 call	 DWORD PTR __imp_?substr@?$basic_string@DU?$char_traits@D@std@@V?$allocator@D@2@@std@@QBE?AV12@II@Z
  0138e	89 85 ec fd ff
	ff		 mov	 DWORD PTR tv433[ebp], eax
  01394	8b 95 ec fd ff
	ff		 mov	 edx, DWORD PTR tv433[ebp]
  0139a	89 95 e8 fd ff
	ff		 mov	 DWORD PTR tv744[ebp], edx
  013a0	c6 45 fc 06	 mov	 BYTE PTR __$EHRec$[ebp+8], 6
  013a4	8b 85 e8 fd ff
	ff		 mov	 eax, DWORD PTR tv744[ebp]
  013aa	50		 push	 eax
  013ab	8d 4d cc	 lea	 ecx, DWORD PTR _skinPath$[ebp]
  013ae	ff 15 00 00 00
	00		 call	 DWORD PTR __imp_??4?$basic_string@DU?$char_traits@D@std@@V?$allocator@D@2@@std@@QAEAAV01@ABV01@@Z
  013b4	c6 45 fc 05	 mov	 BYTE PTR __$EHRec$[ebp+8], 5
  013b8	8d 8d 00 ff ff
	ff		 lea	 ecx, DWORD PTR $T204793[ebp]
  013be	ff 15 00 00 00
	00		 call	 DWORD PTR __imp_??1?$basic_string@DU?$char_traits@D@std@@V?$allocator@D@2@@std@@QAE@XZ

; 262  : 		skinPath += "\\";

  013c4	68 00 00 00 00	 push	 OFFSET FLAT:$SG202750
  013c9	8d 4d cc	 lea	 ecx, DWORD PTR _skinPath$[ebp]
  013cc	ff 15 00 00 00
	00		 call	 DWORD PTR __imp_??Y?$basic_string@DU?$char_traits@D@std@@V?$allocator@D@2@@std@@QAEAAV01@PBD@Z

; 263  : 		skinPath += STR_DEFAULT_SKIN;

  013d2	68 00 00 00 00	 push	 OFFSET FLAT:$SG202751
  013d7	8d 4d cc	 lea	 ecx, DWORD PTR _skinPath$[ebp]
  013da	ff 15 00 00 00
	00		 call	 DWORD PTR __imp_??Y?$basic_string@DU?$char_traits@D@std@@V?$allocator@D@2@@std@@QAEAAV01@PBD@Z
$L202748:

; 264  : 	}	
; 265  : 
; 266  : 	int iColorSelect = 0;

  013e0	c7 45 a8 00 00
	00 00		 mov	 DWORD PTR _iColorSelect$[ebp], 0

; 267  : 	::AfxGetUserConfig()->GetConfigIntValue(CONF_SETTING_MODULE_NAME, CONF_SETTING_COLOR_BTN_INDEX,iColorSelect);

  013e7	8b 0d 00 00 00
	00		 mov	 ecx, DWORD PTR _CONF_SETTING_COLOR_BTN_INDEX
  013ed	51		 push	 ecx
  013ee	8d 8d e4 fe ff
	ff		 lea	 ecx, DWORD PTR $T204794[ebp]
  013f4	ff 15 00 00 00
	00		 call	 DWORD PTR __imp_??0?$basic_string@DU?$char_traits@D@std@@V?$allocator@D@2@@std@@QAE@PBD@Z
  013fa	c6 45 fc 07	 mov	 BYTE PTR __$EHRec$[ebp+8], 7
  013fe	8b 15 00 00 00
	00		 mov	 edx, DWORD PTR _CONF_SETTING_MODULE_NAME
  01404	52		 push	 edx
  01405	8d 8d c8 fe ff
	ff		 lea	 ecx, DWORD PTR $T204795[ebp]
  0140b	ff 15 00 00 00
	00		 call	 DWORD PTR __imp_??0?$basic_string@DU?$char_traits@D@std@@V?$allocator@D@2@@std@@QAE@PBD@Z
  01411	c6 45 fc 08	 mov	 BYTE PTR __$EHRec$[ebp+8], 8
  01415	8d 45 a8	 lea	 eax, DWORD PTR _iColorSelect$[ebp]
  01418	50		 push	 eax
  01419	8d 8d e4 fe ff
	ff		 lea	 ecx, DWORD PTR $T204794[ebp]
  0141f	51		 push	 ecx
  01420	8d 95 c8 fe ff
	ff		 lea	 edx, DWORD PTR $T204795[ebp]
  01426	52		 push	 edx
  01427	e8 00 00 00 00	 call	 ?AfxGetUserConfig@@YAPAVAfxUserConfig@@XZ ; AfxGetUserConfig
  0142c	8b c8		 mov	 ecx, eax
  0142e	e8 00 00 00 00	 call	 ?GetConfigIntValue@AfxUserConfig@@QAEXABV?$basic_string@DU?$char_traits@D@std@@V?$allocator@D@2@@std@@0AAH@Z ; AfxUserConfig::GetConfigIntValue
  01433	c6 45 fc 07	 mov	 BYTE PTR __$EHRec$[ebp+8], 7
  01437	8d 8d c8 fe ff
	ff		 lea	 ecx, DWORD PTR $T204795[ebp]
  0143d	ff 15 00 00 00
	00		 call	 DWORD PTR __imp_??1?$basic_string@DU?$char_traits@D@std@@V?$allocator@D@2@@std@@QAE@XZ
  01443	c6 45 fc 05	 mov	 BYTE PTR __$EHRec$[ebp+8], 5
  01447	8d 8d e4 fe ff
	ff		 lea	 ecx, DWORD PTR $T204794[ebp]
  0144d	ff 15 00 00 00
	00		 call	 DWORD PTR __imp_??1?$basic_string@DU?$char_traits@D@std@@V?$allocator@D@2@@std@@QAE@XZ

; 268  : 	int nIndex=0;

  01453	c7 45 ac 00 00
	00 00		 mov	 DWORD PTR _nIndex$[ebp], 0

; 269  : 	int col_btn_t;
; 270  : 
; 271  : 	col_btn_t = COL_BTN_TOP;

  0145a	c7 45 f0 09 01
	00 00		 mov	 DWORD PTR _col_btn_t$[ebp], 265 ; 00000109H
$L202758:

; 272  : 
; 273  : 	while( itor != m_colbtnVec.end() )

  01461	8d 85 c4 fe ff
	ff		 lea	 eax, DWORD PTR $T204796[ebp]
  01467	50		 push	 eax
  01468	8b 8d 40 fe ff
	ff		 mov	 ecx, DWORD PTR _this$[ebp]
  0146e	81 c1 e4 00 00
	00		 add	 ecx, 228		; 000000e4H
  01474	e8 00 00 00 00	 call	 ?end@?$vector@PAVCSkinButton2@@V?$allocator@PAVCSkinButton2@@@std@@@std@@QAE?AViterator@12@XZ ; std::vector<CSkinButton2 *,std::allocator<CSkinButton2 *> >::end
  01479	50		 push	 eax
  0147a	8d 4d c0	 lea	 ecx, DWORD PTR _itor$[ebp]
  0147d	e8 00 00 00 00	 call	 ??9const_iterator@?$vector@PAVCSkinButton2@@V?$allocator@PAVCSkinButton2@@@std@@@std@@QBE_NABV012@@Z ; std::vector<CSkinButton2 *,std::allocator<CSkinButton2 *> >::const_iterator::operator!=
  01482	0f b6 c8	 movzx	 ecx, al
  01485	85 c9		 test	 ecx, ecx
  01487	0f 84 b6 01 00
	00		 je	 $L202759

; 274  : 	{
; 275  : 		(*itor)->Create( NULL, WS_CHILD | WS_VISIBLE|BS_OWNERDRAW,
; 276  : 			CRect( lrectClient.left+ COL_BTN_LEFT + nIndex*(18+COL_BTN_INTER),
; 277  : 			col_btn_t,
; 278  : 			lrectClient.left+ COL_BTN_LEFT + nIndex*(18+COL_BTN_INTER)+ 18,
; 279  : 			col_btn_t+18
; 280  : 			),
; 281  : 			this,
; 282  : 			ID_CLO_BTN_BEGAIN + nIndex
; 283  : 			);

  0148d	8d 4d c0	 lea	 ecx, DWORD PTR _itor$[ebp]
  01490	e8 00 00 00 00	 call	 ??Diterator@?$vector@PAVCSkinButton2@@V?$allocator@PAVCSkinButton2@@@std@@@std@@QBEAAPAVCSkinButton2@@XZ ; std::vector<CSkinButton2 *,std::allocator<CSkinButton2 *> >::iterator::operator*
  01495	8b 10		 mov	 edx, DWORD PTR [eax]
  01497	89 95 e4 fd ff
	ff		 mov	 DWORD PTR tv496[ebp], edx
  0149d	8b 45 ac	 mov	 eax, DWORD PTR _nIndex$[ebp]
  014a0	05 30 75 00 00	 add	 eax, 30000		; 00007530H
  014a5	50		 push	 eax
  014a6	8b 8d 40 fe ff
	ff		 mov	 ecx, DWORD PTR _this$[ebp]
  014ac	51		 push	 ecx
  014ad	8b 55 f0	 mov	 edx, DWORD PTR _col_btn_t$[ebp]
  014b0	83 c2 12	 add	 edx, 18			; 00000012H
  014b3	52		 push	 edx
  014b4	8b 45 ac	 mov	 eax, DWORD PTR _nIndex$[ebp]
  014b7	6b c0 18	 imul	 eax, 24			; 00000018H
  014ba	8b 4d b0	 mov	 ecx, DWORD PTR _lrectClient$[ebp]
  014bd	8d 54 01 1b	 lea	 edx, DWORD PTR [ecx+eax+27]
  014c1	52		 push	 edx
  014c2	8b 45 f0	 mov	 eax, DWORD PTR _col_btn_t$[ebp]
  014c5	50		 push	 eax
  014c6	8b 4d ac	 mov	 ecx, DWORD PTR _nIndex$[ebp]
  014c9	6b c9 18	 imul	 ecx, 24			; 00000018H
  014cc	8b 55 b0	 mov	 edx, DWORD PTR _lrectClient$[ebp]
  014cf	8d 44 0a 09	 lea	 eax, DWORD PTR [edx+ecx+9]
  014d3	50		 push	 eax
  014d4	8d 8d b4 fe ff
	ff		 lea	 ecx, DWORD PTR $T204797[ebp]
  014da	e8 00 00 00 00	 call	 ??0CRect@@QAE@HHHH@Z	; CRect::CRect
  014df	50		 push	 eax
  014e0	68 0b 00 00 50	 push	 1342177291		; 5000000bH
  014e5	6a 00		 push	 0
  014e7	8b 8d e4 fd ff
	ff		 mov	 ecx, DWORD PTR tv496[ebp]
  014ed	8b 11		 mov	 edx, DWORD PTR [ecx]
  014ef	8b 8d e4 fd ff
	ff		 mov	 ecx, DWORD PTR tv496[ebp]
  014f5	ff 92 38 01 00
	00		 call	 DWORD PTR [edx+312]

; 284  : 		
; 285  : 		(*itor)->SetSkin(CString(skinPath.c_str()) + CString("\\png\\") + "right.png");

  014fb	6a 00		 push	 0
  014fd	68 00 00 00 00	 push	 OFFSET FLAT:$SG202768
  01502	8d 8d ac fe ff
	ff		 lea	 ecx, DWORD PTR $T204799[ebp]
  01508	ff 15 00 00 00
	00		 call	 DWORD PTR __imp_??0?$CStringT@DV?$StrTraitMFC_DLL@DV?$ChTraitsCRT@D@ATL@@@@@ATL@@QAE@PBD@Z
  0150e	89 85 e0 fd ff
	ff		 mov	 DWORD PTR tv479[ebp], eax
  01514	8b 85 e0 fd ff
	ff		 mov	 eax, DWORD PTR tv479[ebp]
  0151a	89 85 dc fd ff
	ff		 mov	 DWORD PTR tv748[ebp], eax
  01520	c6 45 fc 09	 mov	 BYTE PTR __$EHRec$[ebp+8], 9
  01524	8d 4d cc	 lea	 ecx, DWORD PTR _skinPath$[ebp]
  01527	ff 15 00 00 00
	00		 call	 DWORD PTR __imp_?c_str@?$basic_string@DU?$char_traits@D@std@@V?$allocator@D@2@@std@@QBEPBDXZ
  0152d	50		 push	 eax
  0152e	8d 8d a8 fe ff
	ff		 lea	 ecx, DWORD PTR $T204800[ebp]
  01534	ff 15 00 00 00
	00		 call	 DWORD PTR __imp_??0?$CStringT@DV?$StrTraitMFC_DLL@DV?$ChTraitsCRT@D@ATL@@@@@ATL@@QAE@PBD@Z
  0153a	89 85 d8 fd ff
	ff		 mov	 DWORD PTR tv474[ebp], eax
  01540	8b 8d d8 fd ff
	ff		 mov	 ecx, DWORD PTR tv474[ebp]
  01546	89 8d d4 fd ff
	ff		 mov	 DWORD PTR tv750[ebp], ecx
  0154c	c6 45 fc 0a	 mov	 BYTE PTR __$EHRec$[ebp+8], 10 ; 0000000aH
  01550	8b 95 dc fd ff
	ff		 mov	 edx, DWORD PTR tv748[ebp]
  01556	52		 push	 edx
  01557	8b 85 d4 fd ff
	ff		 mov	 eax, DWORD PTR tv750[ebp]
  0155d	50		 push	 eax
  0155e	8d 8d a4 fe ff
	ff		 lea	 ecx, DWORD PTR $T204801[ebp]
  01564	51		 push	 ecx
  01565	e8 00 00 00 00	 call	 ??HATL@@YA?AV?$CStringT@DV?$StrTraitMFC_DLL@DV?$ChTraitsCRT@D@ATL@@@@@0@ABV10@0@Z ; ATL::operator+
  0156a	83 c4 0c	 add	 esp, 12			; 0000000cH
  0156d	89 85 d0 fd ff
	ff		 mov	 DWORD PTR tv772[ebp], eax
  01573	8b 95 d0 fd ff
	ff		 mov	 edx, DWORD PTR tv772[ebp]
  01579	89 95 cc fd ff
	ff		 mov	 DWORD PTR tv752[ebp], edx
  0157f	c6 45 fc 0b	 mov	 BYTE PTR __$EHRec$[ebp+8], 11 ; 0000000bH
  01583	51		 push	 ecx
  01584	8b c4		 mov	 eax, esp
  01586	89 a5 b0 fe ff
	ff		 mov	 DWORD PTR $T204798[ebp], esp
  0158c	68 00 00 00 00	 push	 OFFSET FLAT:$SG202767
  01591	8b 8d cc fd ff
	ff		 mov	 ecx, DWORD PTR tv752[ebp]
  01597	51		 push	 ecx
  01598	50		 push	 eax
  01599	e8 00 00 00 00	 call	 ??HATL@@YA?AV?$CStringT@DV?$StrTraitMFC_DLL@DV?$ChTraitsCRT@D@ATL@@@@@0@ABV10@PBD@Z ; ATL::operator+
  0159e	83 c4 0c	 add	 esp, 12			; 0000000cH
  015a1	89 85 c8 fd ff
	ff		 mov	 DWORD PTR tv773[ebp], eax
  015a7	8b 95 c8 fd ff
	ff		 mov	 edx, DWORD PTR tv773[ebp]
  015ad	89 95 c4 fd ff
	ff		 mov	 DWORD PTR tv755[ebp], edx
  015b3	c6 45 fc 0c	 mov	 BYTE PTR __$EHRec$[ebp+8], 12 ; 0000000cH
  015b7	8d 4d c0	 lea	 ecx, DWORD PTR _itor$[ebp]
  015ba	e8 00 00 00 00	 call	 ??Diterator@?$vector@PAVCSkinButton2@@V?$allocator@PAVCSkinButton2@@@std@@@std@@QBEAAPAVCSkinButton2@@XZ ; std::vector<CSkinButton2 *,std::allocator<CSkinButton2 *> >::iterator::operator*
  015bf	8b 08		 mov	 ecx, DWORD PTR [eax]
  015c1	c6 45 fc 0b	 mov	 BYTE PTR __$EHRec$[ebp+8], 11 ; 0000000bH
  015c5	e8 00 00 00 00	 call	 ?SetSkin@CSkinButton2@@QAEHV?$CStringT@DV?$StrTraitMFC_DLL@DV?$ChTraitsCRT@D@ATL@@@@@ATL@@H@Z ; CSkinButton2::SetSkin
  015ca	c6 45 fc 0a	 mov	 BYTE PTR __$EHRec$[ebp+8], 10 ; 0000000aH
  015ce	8d 8d a4 fe ff
	ff		 lea	 ecx, DWORD PTR $T204801[ebp]
  015d4	ff 15 00 00 00
	00		 call	 DWORD PTR __imp_??1?$CStringT@DV?$StrTraitMFC_DLL@DV?$ChTraitsCRT@D@ATL@@@@@ATL@@QAE@XZ
  015da	c6 45 fc 09	 mov	 BYTE PTR __$EHRec$[ebp+8], 9
  015de	8d 8d a8 fe ff
	ff		 lea	 ecx, DWORD PTR $T204800[ebp]
  015e4	ff 15 00 00 00
	00		 call	 DWORD PTR __imp_??1?$CStringT@DV?$StrTraitMFC_DLL@DV?$ChTraitsCRT@D@ATL@@@@@ATL@@QAE@XZ
  015ea	c6 45 fc 05	 mov	 BYTE PTR __$EHRec$[ebp+8], 5
  015ee	8d 8d ac fe ff
	ff		 lea	 ecx, DWORD PTR $T204799[ebp]
  015f4	ff 15 00 00 00
	00		 call	 DWORD PTR __imp_??1?$CStringT@DV?$StrTraitMFC_DLL@DV?$ChTraitsCRT@D@ATL@@@@@ATL@@QAE@XZ

; 286  : 		if( nIndex == iColorSelect )

  015fa	8b 45 ac	 mov	 eax, DWORD PTR _nIndex$[ebp]
  015fd	3b 45 a8	 cmp	 eax, DWORD PTR _iColorSelect$[ebp]
  01600	75 11		 jne	 SHORT $L202769

; 287  : 			(*itor)->SetCheck(1);

  01602	6a 01		 push	 1
  01604	8d 4d c0	 lea	 ecx, DWORD PTR _itor$[ebp]
  01607	e8 00 00 00 00	 call	 ??Diterator@?$vector@PAVCSkinButton2@@V?$allocator@PAVCSkinButton2@@@std@@@std@@QBEAAPAVCSkinButton2@@XZ ; std::vector<CSkinButton2 *,std::allocator<CSkinButton2 *> >::iterator::operator*
  0160c	8b 08		 mov	 ecx, DWORD PTR [eax]
  0160e	e8 00 00 00 00	 call	 ?SetCheck@CSkinButton2@@QAEXH@Z ; CSkinButton2::SetCheck
$L202769:

; 288  : 		(*itor)->ShowWindow(SW_SHOW);			

  01613	6a 05		 push	 5
  01615	8d 4d c0	 lea	 ecx, DWORD PTR _itor$[ebp]
  01618	e8 00 00 00 00	 call	 ??Diterator@?$vector@PAVCSkinButton2@@V?$allocator@PAVCSkinButton2@@@std@@@std@@QBEAAPAVCSkinButton2@@XZ ; std::vector<CSkinButton2 *,std::allocator<CSkinButton2 *> >::iterator::operator*
  0161d	8b 08		 mov	 ecx, DWORD PTR [eax]
  0161f	e8 00 00 00 00	 call	 ?ShowWindow@CWnd@@QAEHH@Z ; CWnd::ShowWindow

; 289  : 		itor++;

  01624	6a 00		 push	 0
  01626	8d 8d a0 fe ff
	ff		 lea	 ecx, DWORD PTR $T204802[ebp]
  0162c	51		 push	 ecx
  0162d	8d 4d c0	 lea	 ecx, DWORD PTR _itor$[ebp]
  01630	e8 00 00 00 00	 call	 ??Eiterator@?$vector@PAVCSkinButton2@@V?$allocator@PAVCSkinButton2@@@std@@@std@@QAE?AV012@H@Z ; std::vector<CSkinButton2 *,std::allocator<CSkinButton2 *> >::iterator::operator++

; 290  : 		nIndex++;

  01635	8b 55 ac	 mov	 edx, DWORD PTR _nIndex$[ebp]
  01638	83 c2 01	 add	 edx, 1
  0163b	89 55 ac	 mov	 DWORD PTR _nIndex$[ebp], edx

; 291  : 	}

  0163e	e9 1e fe ff ff	 jmp	 $L202758
$L202759:

; 292  : 
; 293  : 	m_colBtnMore.Create(  NULL, WS_CHILD | WS_VISIBLE|BS_OWNERDRAW,
; 294  : 		CRect(lrectClient.left+ COL_BTN_LEFT + nIndex*(18+COL_BTN_INTER),// lrectClient.left+ COL_BTN_LEFT ,
; 295  : 		col_btn_t,
; 296  : 		lrectClient.left+ COL_BTN_LEFT + nIndex*(18+COL_BTN_INTER)+ 18,//lrectClient.left+ COL_BTN_LEFT + 18,
; 297  : 		col_btn_t+18
; 298  : 		),
; 299  : 		this,
; 300  : 		ID_MORE_COLOR
; 301  : 		);

  01643	68 20 4e 00 00	 push	 20000			; 00004e20H
  01648	8b 85 40 fe ff
	ff		 mov	 eax, DWORD PTR _this$[ebp]
  0164e	50		 push	 eax
  0164f	8b 4d f0	 mov	 ecx, DWORD PTR _col_btn_t$[ebp]
  01652	83 c1 12	 add	 ecx, 18			; 00000012H
  01655	51		 push	 ecx
  01656	8b 55 ac	 mov	 edx, DWORD PTR _nIndex$[ebp]
  01659	6b d2 18	 imul	 edx, 24			; 00000018H
  0165c	8b 45 b0	 mov	 eax, DWORD PTR _lrectClient$[ebp]
  0165f	8d 4c 10 1b	 lea	 ecx, DWORD PTR [eax+edx+27]
  01663	51		 push	 ecx
  01664	8b 55 f0	 mov	 edx, DWORD PTR _col_btn_t$[ebp]
  01667	52		 push	 edx
  01668	8b 45 ac	 mov	 eax, DWORD PTR _nIndex$[ebp]
  0166b	6b c0 18	 imul	 eax, 24			; 00000018H
  0166e	8b 4d b0	 mov	 ecx, DWORD PTR _lrectClient$[ebp]
  01671	8d 54 01 09	 lea	 edx, DWORD PTR [ecx+eax+9]
  01675	52		 push	 edx
  01676	8d 8d 90 fe ff
	ff		 lea	 ecx, DWORD PTR $T204803[ebp]
  0167c	e8 00 00 00 00	 call	 ??0CRect@@QAE@HHHH@Z	; CRect::CRect
  01681	50		 push	 eax
  01682	68 0b 00 00 50	 push	 1342177291		; 5000000bH
  01687	6a 00		 push	 0
  01689	8b 8d 40 fe ff
	ff		 mov	 ecx, DWORD PTR _this$[ebp]
  0168f	81 c1 cc 07 00
	00		 add	 ecx, 1996		; 000007ccH
  01695	8b 85 40 fe ff
	ff		 mov	 eax, DWORD PTR _this$[ebp]
  0169b	8b 90 cc 07 00
	00		 mov	 edx, DWORD PTR [eax+1996]
  016a1	ff 92 38 01 00
	00		 call	 DWORD PTR [edx+312]

; 302  : 	m_colBtnMore.ShowWindow(SW_HIDE);

  016a7	6a 00		 push	 0
  016a9	8b 8d 40 fe ff
	ff		 mov	 ecx, DWORD PTR _this$[ebp]
  016af	81 c1 cc 07 00
	00		 add	 ecx, 1996		; 000007ccH
  016b5	e8 00 00 00 00	 call	 ?ShowWindow@CWnd@@QAEHH@Z ; CWnd::ShowWindow

; 303  : 
; 304  : 
; 305  : 	m_colBtnMore.m_enmuDrawType = CSkinButton2::NO_FRAME_SELECT;

  016ba	8b 85 40 fe ff
	ff		 mov	 eax, DWORD PTR _this$[ebp]
  016c0	c7 80 20 08 00
	00 10 00 00 00	 mov	 DWORD PTR [eax+2080], 16 ; 00000010H

; 306  : 	m_colBtnMore.m_bHandMouse = FALSE;

  016ca	8b 8d 40 fe ff
	ff		 mov	 ecx, DWORD PTR _this$[ebp]
  016d0	c7 81 28 08 00
	00 00 00 00 00	 mov	 DWORD PTR [ecx+2088], 0

; 307  : 	int iUserColor = 0;

  016da	c7 45 ec 00 00
	00 00		 mov	 DWORD PTR _iUserColor$[ebp], 0

; 308  : 	::AfxGetUserConfig()->GetConfigIntValue(CONF_SETTING_MODULE_NAME, CONF_SETTING_COLOR_USER,iUserColor);

  016e1	8b 15 00 00 00
	00		 mov	 edx, DWORD PTR _CONF_SETTING_COLOR_USER
  016e7	52		 push	 edx
  016e8	8d 8d 74 fe ff
	ff		 lea	 ecx, DWORD PTR $T204804[ebp]
  016ee	ff 15 00 00 00
	00		 call	 DWORD PTR __imp_??0?$basic_string@DU?$char_traits@D@std@@V?$allocator@D@2@@std@@QAE@PBD@Z
  016f4	c6 45 fc 0d	 mov	 BYTE PTR __$EHRec$[ebp+8], 13 ; 0000000dH
  016f8	a1 00 00 00 00	 mov	 eax, DWORD PTR _CONF_SETTING_MODULE_NAME
  016fd	50		 push	 eax
  016fe	8d 8d 58 fe ff
	ff		 lea	 ecx, DWORD PTR $T204805[ebp]
  01704	ff 15 00 00 00
	00		 call	 DWORD PTR __imp_??0?$basic_string@DU?$char_traits@D@std@@V?$allocator@D@2@@std@@QAE@PBD@Z
  0170a	c6 45 fc 0e	 mov	 BYTE PTR __$EHRec$[ebp+8], 14 ; 0000000eH
  0170e	8d 4d ec	 lea	 ecx, DWORD PTR _iUserColor$[ebp]
  01711	51		 push	 ecx
  01712	8d 95 74 fe ff
	ff		 lea	 edx, DWORD PTR $T204804[ebp]
  01718	52		 push	 edx
  01719	8d 85 58 fe ff
	ff		 lea	 eax, DWORD PTR $T204805[ebp]
  0171f	50		 push	 eax
  01720	e8 00 00 00 00	 call	 ?AfxGetUserConfig@@YAPAVAfxUserConfig@@XZ ; AfxGetUserConfig
  01725	8b c8		 mov	 ecx, eax
  01727	e8 00 00 00 00	 call	 ?GetConfigIntValue@AfxUserConfig@@QAEXABV?$basic_string@DU?$char_traits@D@std@@V?$allocator@D@2@@std@@0AAH@Z ; AfxUserConfig::GetConfigIntValue
  0172c	c6 45 fc 0d	 mov	 BYTE PTR __$EHRec$[ebp+8], 13 ; 0000000dH
  01730	8d 8d 58 fe ff
	ff		 lea	 ecx, DWORD PTR $T204805[ebp]
  01736	ff 15 00 00 00
	00		 call	 DWORD PTR __imp_??1?$basic_string@DU?$char_traits@D@std@@V?$allocator@D@2@@std@@QAE@XZ
  0173c	c6 45 fc 05	 mov	 BYTE PTR __$EHRec$[ebp+8], 5
  01740	8d 8d 74 fe ff
	ff		 lea	 ecx, DWORD PTR $T204804[ebp]
  01746	ff 15 00 00 00
	00		 call	 DWORD PTR __imp_??1?$basic_string@DU?$char_traits@D@std@@V?$allocator@D@2@@std@@QAE@XZ

; 309  : 	if( iUserColor == 0 )

  0174c	83 7d ec 00	 cmp	 DWORD PTR _iUserColor$[ebp], 0
  01750	75 21		 jne	 SHORT $L202775

; 310  : 	{
; 311  : 		m_colBtnMore.SetBKColor(200,200,0,0 );

  01752	6a 00		 push	 0
  01754	6a 00		 push	 0
  01756	68 c8 00 00 00	 push	 200			; 000000c8H
  0175b	68 c8 00 00 00	 push	 200			; 000000c8H
  01760	8b 8d 40 fe ff
	ff		 mov	 ecx, DWORD PTR _this$[ebp]
  01766	81 c1 cc 07 00
	00		 add	 ecx, 1996		; 000007ccH
  0176c	e8 00 00 00 00	 call	 ?SetBKColor@CSkinButton2@@QAEXEEEE@Z ; CSkinButton2::SetBKColor

; 312  : 	}
; 313  : 	else

  01771	eb 29		 jmp	 SHORT $L202776
$L202775:

; 314  : 	{
; 315  : 		m_colBtnMore.SetBKColor(255,GetRValue(iUserColor),GetGValue(iUserColor),GetBValue(iUserColor) );

  01773	8b 4d ec	 mov	 ecx, DWORD PTR _iUserColor$[ebp]
  01776	c1 f9 10	 sar	 ecx, 16			; 00000010H
  01779	51		 push	 ecx
  0177a	0f b7 55 ec	 movzx	 edx, WORD PTR _iUserColor$[ebp]
  0177e	c1 fa 08	 sar	 edx, 8
  01781	52		 push	 edx
  01782	8a 45 ec	 mov	 al, BYTE PTR _iUserColor$[ebp]
  01785	50		 push	 eax
  01786	68 ff 00 00 00	 push	 255			; 000000ffH
  0178b	8b 8d 40 fe ff
	ff		 mov	 ecx, DWORD PTR _this$[ebp]
  01791	81 c1 cc 07 00
	00		 add	 ecx, 1996		; 000007ccH
  01797	e8 00 00 00 00	 call	 ?SetBKColor@CSkinButton2@@QAEXEEEE@Z ; CSkinButton2::SetBKColor
$L202776:

; 316  : 	}
; 317  : 
; 318  : 	m_colBtnMore.SetSkin(CString(skinPath.c_str()) + CString("\\png\\") + "right.png");

  0179c	6a 00		 push	 0
  0179e	68 00 00 00 00	 push	 OFFSET FLAT:$SG202787
  017a3	8d 8d 50 fe ff
	ff		 lea	 ecx, DWORD PTR $T204807[ebp]
  017a9	ff 15 00 00 00
	00		 call	 DWORD PTR __imp_??0?$CStringT@DV?$StrTraitMFC_DLL@DV?$ChTraitsCRT@D@ATL@@@@@ATL@@QAE@PBD@Z
  017af	89 85 c0 fd ff
	ff		 mov	 DWORD PTR tv646[ebp], eax
  017b5	8b 8d c0 fd ff
	ff		 mov	 ecx, DWORD PTR tv646[ebp]
  017bb	89 8d bc fd ff
	ff		 mov	 DWORD PTR tv759[ebp], ecx
  017c1	c6 45 fc 0f	 mov	 BYTE PTR __$EHRec$[ebp+8], 15 ; 0000000fH
  017c5	8d 4d cc	 lea	 ecx, DWORD PTR _skinPath$[ebp]
  017c8	ff 15 00 00 00
	00		 call	 DWORD PTR __imp_?c_str@?$basic_string@DU?$char_traits@D@std@@V?$allocator@D@2@@std@@QBEPBDXZ
  017ce	50		 push	 eax
  017cf	8d 8d 4c fe ff
	ff		 lea	 ecx, DWORD PTR $T204808[ebp]
  017d5	ff 15 00 00 00
	00		 call	 DWORD PTR __imp_??0?$CStringT@DV?$StrTraitMFC_DLL@DV?$ChTraitsCRT@D@ATL@@@@@ATL@@QAE@PBD@Z
  017db	89 85 b8 fd ff
	ff		 mov	 DWORD PTR tv641[ebp], eax
  017e1	8b 95 b8 fd ff
	ff		 mov	 edx, DWORD PTR tv641[ebp]
  017e7	89 95 b4 fd ff
	ff		 mov	 DWORD PTR tv761[ebp], edx
  017ed	c6 45 fc 10	 mov	 BYTE PTR __$EHRec$[ebp+8], 16 ; 00000010H
  017f1	8b 85 bc fd ff
	ff		 mov	 eax, DWORD PTR tv759[ebp]
  017f7	50		 push	 eax
  017f8	8b 8d b4 fd ff
	ff		 mov	 ecx, DWORD PTR tv761[ebp]
  017fe	51		 push	 ecx
  017ff	8d 95 48 fe ff
	ff		 lea	 edx, DWORD PTR $T204809[ebp]
  01805	52		 push	 edx
  01806	e8 00 00 00 00	 call	 ??HATL@@YA?AV?$CStringT@DV?$StrTraitMFC_DLL@DV?$ChTraitsCRT@D@ATL@@@@@0@ABV10@0@Z ; ATL::operator+
  0180b	83 c4 0c	 add	 esp, 12			; 0000000cH
  0180e	89 85 b0 fd ff
	ff		 mov	 DWORD PTR tv774[ebp], eax
  01814	8b 85 b0 fd ff
	ff		 mov	 eax, DWORD PTR tv774[ebp]
  0181a	89 85 ac fd ff
	ff		 mov	 DWORD PTR tv763[ebp], eax
  01820	c6 45 fc 11	 mov	 BYTE PTR __$EHRec$[ebp+8], 17 ; 00000011H
  01824	51		 push	 ecx
  01825	8b cc		 mov	 ecx, esp
  01827	89 a5 54 fe ff
	ff		 mov	 DWORD PTR $T204806[ebp], esp
  0182d	68 00 00 00 00	 push	 OFFSET FLAT:$SG202786
  01832	8b 95 ac fd ff
	ff		 mov	 edx, DWORD PTR tv763[ebp]
  01838	52		 push	 edx
  01839	51		 push	 ecx
  0183a	e8 00 00 00 00	 call	 ??HATL@@YA?AV?$CStringT@DV?$StrTraitMFC_DLL@DV?$ChTraitsCRT@D@ATL@@@@@0@ABV10@PBD@Z ; ATL::operator+
  0183f	83 c4 0c	 add	 esp, 12			; 0000000cH
  01842	89 85 a8 fd ff
	ff		 mov	 DWORD PTR tv766[ebp], eax
  01848	8b 8d 40 fe ff
	ff		 mov	 ecx, DWORD PTR _this$[ebp]
  0184e	81 c1 cc 07 00
	00		 add	 ecx, 1996		; 000007ccH
  01854	e8 00 00 00 00	 call	 ?SetSkin@CSkinButton2@@QAEHV?$CStringT@DV?$StrTraitMFC_DLL@DV?$ChTraitsCRT@D@ATL@@@@@ATL@@H@Z ; CSkinButton2::SetSkin
  01859	c6 45 fc 10	 mov	 BYTE PTR __$EHRec$[ebp+8], 16 ; 00000010H
  0185d	8d 8d 48 fe ff
	ff		 lea	 ecx, DWORD PTR $T204809[ebp]
  01863	ff 15 00 00 00
	00		 call	 DWORD PTR __imp_??1?$CStringT@DV?$StrTraitMFC_DLL@DV?$ChTraitsCRT@D@ATL@@@@@ATL@@QAE@XZ
  01869	c6 45 fc 0f	 mov	 BYTE PTR __$EHRec$[ebp+8], 15 ; 0000000fH
  0186d	8d 8d 4c fe ff
	ff		 lea	 ecx, DWORD PTR $T204808[ebp]
  01873	ff 15 00 00 00
	00		 call	 DWORD PTR __imp_??1?$CStringT@DV?$StrTraitMFC_DLL@DV?$ChTraitsCRT@D@ATL@@@@@ATL@@QAE@XZ
  01879	c6 45 fc 05	 mov	 BYTE PTR __$EHRec$[ebp+8], 5
  0187d	8d 8d 50 fe ff
	ff		 lea	 ecx, DWORD PTR $T204807[ebp]
  01883	ff 15 00 00 00
	00		 call	 DWORD PTR __imp_??1?$CStringT@DV?$StrTraitMFC_DLL@DV?$ChTraitsCRT@D@ATL@@@@@ATL@@QAE@XZ

; 319  : 
; 320  : 	if( iColorSelect == -1 )

  01889	83 7d a8 ff	 cmp	 DWORD PTR _iColorSelect$[ebp], -1
  0188d	75 13		 jne	 SHORT $L202788

; 321  : 	{
; 322  : 		m_colBtnMore.SetCheck(1);

  0188f	6a 01		 push	 1
  01891	8b 8d 40 fe ff
	ff		 mov	 ecx, DWORD PTR _this$[ebp]
  01897	81 c1 cc 07 00
	00		 add	 ecx, 1996		; 000007ccH
  0189d	e8 00 00 00 00	 call	 ?SetCheck@CSkinButton2@@QAEXH@Z ; CSkinButton2::SetCheck
$L202788:

; 323  : 	}
; 324  : 	SetTimer(111, 50, NULL);

  018a2	6a 00		 push	 0
  018a4	6a 32		 push	 50			; 00000032H
  018a6	6a 6f		 push	 111			; 0000006fH
  018a8	8b 8d 40 fe ff
	ff		 mov	 ecx, DWORD PTR _this$[ebp]
  018ae	e8 00 00 00 00	 call	 ?SetTimer@CWnd@@QAEIIIP6GXPAUHWND__@@IIK@Z@Z ; CWnd::SetTimer

; 325  : 	return 0;

  018b3	c7 85 44 fe ff
	ff 00 00 00 00	 mov	 DWORD PTR $T204810[ebp], 0
  018bd	c7 45 fc ff ff
	ff ff		 mov	 DWORD PTR __$EHRec$[ebp+8], -1
  018c4	8d 4d cc	 lea	 ecx, DWORD PTR _skinPath$[ebp]
  018c7	ff 15 00 00 00
	00		 call	 DWORD PTR __imp_??1?$basic_string@DU?$char_traits@D@std@@V?$allocator@D@2@@std@@QAE@XZ
  018cd	8b 85 44 fe ff
	ff		 mov	 eax, DWORD PTR $T204810[ebp]
$L202706:

; 326  : }

  018d3	8b 4d f4	 mov	 ecx, DWORD PTR __$EHRec$[ebp]
  018d6	64 89 0d 00 00
	00 00		 mov	 DWORD PTR fs:__except_list, ecx
  018dd	8b 4d e8	 mov	 ecx, DWORD PTR __$ArrayPad$[ebp]
  018e0	e8 00 00 00 00	 call	 @__security_check_cookie@4
  018e5	8b e5		 mov	 esp, ebp
  018e7	5d		 pop	 ebp
  018e8	c2 04 00	 ret	 4
_TEXT	ENDS
text$x	SEGMENT
$L204811:
  00197	8b 4d a4	 mov	 ecx, DWORD PTR $T204776[ebp]
  0019a	ff 25 00 00 00
	00		 jmp	 DWORD PTR __imp_??1?$CStringT@DV?$StrTraitMFC_DLL@DV?$ChTraitsCRT@D@ATL@@@@@ATL@@QAE@XZ
$L204812:
  001a0	8b 4d a0	 mov	 ecx, DWORD PTR $T204777[ebp]
  001a3	ff 25 00 00 00
	00		 jmp	 DWORD PTR __imp_??1?$CStringT@DV?$StrTraitMFC_DLL@DV?$ChTraitsCRT@D@ATL@@@@@ATL@@QAE@XZ
$L204819:
  001a9	8b 8d 24 ff ff
	ff		 mov	 ecx, DWORD PTR $T204790[ebp]
  001af	ff 25 00 00 00
	00		 jmp	 DWORD PTR __imp_??1?$CStringT@DV?$StrTraitMFC_DLL@DV?$ChTraitsCRT@D@ATL@@@@@ATL@@QAE@XZ
$L204821:
  001b5	8d 8d 1c ff ff
	ff		 lea	 ecx, DWORD PTR $T204792[ebp]
  001bb	ff 25 00 00 00
	00		 jmp	 DWORD PTR __imp_??1?$CStringT@DV?$StrTraitMFC_DLL@DV?$ChTraitsCRT@D@ATL@@@@@ATL@@QAE@XZ
$L204822:
  001c1	8d 4d cc	 lea	 ecx, DWORD PTR _skinPath$[ebp]
  001c4	ff 25 00 00 00
	00		 jmp	 DWORD PTR __imp_??1?$basic_string@DU?$char_traits@D@std@@V?$allocator@D@2@@std@@QAE@XZ
$L204823:
  001ca	8d 8d 00 ff ff
	ff		 lea	 ecx, DWORD PTR $T204793[ebp]
  001d0	ff 25 00 00 00
	00		 jmp	 DWORD PTR __imp_??1?$basic_string@DU?$char_traits@D@std@@V?$allocator@D@2@@std@@QAE@XZ
$L204824:
  001d6	8d 8d e4 fe ff
	ff		 lea	 ecx, DWORD PTR $T204794[ebp]
  001dc	ff 25 00 00 00
	00		 jmp	 DWORD PTR __imp_??1?$basic_string@DU?$char_traits@D@std@@V?$allocator@D@2@@std@@QAE@XZ
$L204825:
  001e2	8d 8d c8 fe ff
	ff		 lea	 ecx, DWORD PTR $T204795[ebp]
  001e8	ff 25 00 00 00
	00		 jmp	 DWORD PTR __imp_??1?$basic_string@DU?$char_traits@D@std@@V?$allocator@D@2@@std@@QAE@XZ
$L204826:
  001ee	8d 8d ac fe ff
	ff		 lea	 ecx, DWORD PTR $T204799[ebp]
  001f4	ff 25 00 00 00
	00		 jmp	 DWORD PTR __imp_??1?$CStringT@DV?$StrTraitMFC_DLL@DV?$ChTraitsCRT@D@ATL@@@@@ATL@@QAE@XZ
$L204827:
  001fa	8d 8d a8 fe ff
	ff		 lea	 ecx, DWORD PTR $T204800[ebp]
  00200	ff 25 00 00 00
	00		 jmp	 DWORD PTR __imp_??1?$CStringT@DV?$StrTraitMFC_DLL@DV?$ChTraitsCRT@D@ATL@@@@@ATL@@QAE@XZ
$L204828:
  00206	8d 8d a4 fe ff
	ff		 lea	 ecx, DWORD PTR $T204801[ebp]
  0020c	ff 25 00 00 00
	00		 jmp	 DWORD PTR __imp_??1?$CStringT@DV?$StrTraitMFC_DLL@DV?$ChTraitsCRT@D@ATL@@@@@ATL@@QAE@XZ
$L204829:
  00212	8b 8d b0 fe ff
	ff		 mov	 ecx, DWORD PTR $T204798[ebp]
  00218	ff 25 00 00 00
	00		 jmp	 DWORD PTR __imp_??1?$CStringT@DV?$StrTraitMFC_DLL@DV?$ChTraitsCRT@D@ATL@@@@@ATL@@QAE@XZ
$L204830:
  0021e	8d 8d 74 fe ff
	ff		 lea	 ecx, DWORD PTR $T204804[ebp]
  00224	ff 25 00 00 00
	00		 jmp	 DWORD PTR __imp_??1?$basic_string@DU?$char_traits@D@std@@V?$allocator@D@2@@std@@QAE@XZ
$L204831:
  0022a	8d 8d 58 fe ff
	ff		 lea	 ecx, DWORD PTR $T204805[ebp]
  00230	ff 25 00 00 00
	00		 jmp	 DWORD PTR __imp_??1?$basic_string@DU?$char_traits@D@std@@V?$allocator@D@2@@std@@QAE@XZ
$L204832:
  00236	8d 8d 50 fe ff
	ff		 lea	 ecx, DWORD PTR $T204807[ebp]
  0023c	ff 25 00 00 00
	00		 jmp	 DWORD PTR __imp_??1?$CStringT@DV?$StrTraitMFC_DLL@DV?$ChTraitsCRT@D@ATL@@@@@ATL@@QAE@XZ
$L204833:
  00242	8d 8d 4c fe ff
	ff		 lea	 ecx, DWORD PTR $T204808[ebp]
  00248	ff 25 00 00 00
	00		 jmp	 DWORD PTR __imp_??1?$CStringT@DV?$StrTraitMFC_DLL@DV?$ChTraitsCRT@D@ATL@@@@@ATL@@QAE@XZ
$L204834:
  0024e	8d 8d 48 fe ff
	ff		 lea	 ecx, DWORD PTR $T204809[ebp]
  00254	ff 25 00 00 00
	00		 jmp	 DWORD PTR __imp_??1?$CStringT@DV?$StrTraitMFC_DLL@DV?$ChTraitsCRT@D@ATL@@@@@ATL@@QAE@XZ
__ehhandler$?OnCreate@CMainSkinWnd@@QAEHPAUtagCREATESTRUCTA@@@Z:
  0025a	b8 00 00 00 00	 mov	 eax, OFFSET FLAT:$T204837
  0025f	e9 00 00 00 00	 jmp	 ___CxxFrameHandler
text$x	ENDS
?OnCreate@CMainSkinWnd@@QAEHPAUtagCREATESTRUCTA@@@Z ENDP ; CMainSkinWnd::OnCreate
EXTRN	??0CPaintDC@@QAE@PAVCWnd@@@Z:NEAR		; CPaintDC::CPaintDC
EXTRN	??1CPaintDC@@UAE@XZ:NEAR			; CPaintDC::~CPaintDC
xdata$x	SEGMENT
$T204848 DD	0ffffffffH
	DD	FLAT:$L204843
$T204845 DD	019930520H
	DD	01H
	DD	FLAT:$T204848
	DD	2 DUP(00H)
	DD	2 DUP(00H)
; Function compile flags: /Odt
xdata$x	ENDS
_TEXT	SEGMENT
tv75 = -120						; size = 4
tv70 = -116						; size = 4
_this$ = -112						; size = 4
_dc$ = -108						; size = 84
__$ArrayPad$ = -16					; size = 4
__$EHRec$ = -12						; size = 12
__$ReturnAddr$ = 4					; size = 4
?OnPaint@CMainSkinWnd@@QAEXXZ PROC NEAR			; CMainSkinWnd::OnPaint
; _this$ = ecx

; 328  : {

  018f0	55		 push	 ebp
  018f1	8b ec		 mov	 ebp, esp
  018f3	6a ff		 push	 -1
  018f5	68 00 00 00 00	 push	 __ehhandler$?OnPaint@CMainSkinWnd@@QAEXXZ
  018fa	64 a1 00 00 00
	00		 mov	 eax, DWORD PTR fs:__except_list
  01900	50		 push	 eax
  01901	64 89 25 00 00
	00 00		 mov	 DWORD PTR fs:__except_list, esp
  01908	83 ec 6c	 sub	 esp, 108		; 0000006cH
  0190b	a1 00 00 00 00	 mov	 eax, DWORD PTR ___security_cookie
  01910	89 45 f0	 mov	 DWORD PTR __$ArrayPad$[ebp], eax
  01913	89 4d 90	 mov	 DWORD PTR _this$[ebp], ecx

; 329  : 	CPaintDC dc(this); // device context for painting

  01916	8b 45 90	 mov	 eax, DWORD PTR _this$[ebp]
  01919	50		 push	 eax
  0191a	8d 4d 94	 lea	 ecx, DWORD PTR _dc$[ebp]
  0191d	e8 00 00 00 00	 call	 ??0CPaintDC@@QAE@PAVCWnd@@@Z ; CPaintDC::CPaintDC
  01922	c7 45 fc 00 00
	00 00		 mov	 DWORD PTR __$EHRec$[ebp+8], 0

; 330  : 	AfxGetUIManager()->UIGetLayoutMgr()->PaintBkGround( m_hWnd,&dc,true );

  01929	e8 00 00 00 00	 call	 ?AfxGetUIManager@@YAPAVIUIManager@@XZ ; AfxGetUIManager
  0192e	89 45 8c	 mov	 DWORD PTR tv70[ebp], eax
  01931	8b 4d 8c	 mov	 ecx, DWORD PTR tv70[ebp]
  01934	8b 11		 mov	 edx, DWORD PTR [ecx]
  01936	8b 4d 8c	 mov	 ecx, DWORD PTR tv70[ebp]
  01939	ff 52 24	 call	 DWORD PTR [edx+36]
  0193c	89 45 88	 mov	 DWORD PTR tv75[ebp], eax
  0193f	6a 01		 push	 1
  01941	8d 45 94	 lea	 eax, DWORD PTR _dc$[ebp]
  01944	50		 push	 eax
  01945	8b 4d 90	 mov	 ecx, DWORD PTR _this$[ebp]
  01948	8b 51 20	 mov	 edx, DWORD PTR [ecx+32]
  0194b	52		 push	 edx
  0194c	8b 45 88	 mov	 eax, DWORD PTR tv75[ebp]
  0194f	8b 10		 mov	 edx, DWORD PTR [eax]
  01951	8b 4d 88	 mov	 ecx, DWORD PTR tv75[ebp]
  01954	ff 52 5c	 call	 DWORD PTR [edx+92]

; 331  : }

  01957	c7 45 fc ff ff
	ff ff		 mov	 DWORD PTR __$EHRec$[ebp+8], -1
  0195e	8d 4d 94	 lea	 ecx, DWORD PTR _dc$[ebp]
  01961	e8 00 00 00 00	 call	 ??1CPaintDC@@UAE@XZ	; CPaintDC::~CPaintDC
  01966	8b 4d f4	 mov	 ecx, DWORD PTR __$EHRec$[ebp]
  01969	64 89 0d 00 00
	00 00		 mov	 DWORD PTR fs:__except_list, ecx
  01970	8b 4d f0	 mov	 ecx, DWORD PTR __$ArrayPad$[ebp]
  01973	e8 00 00 00 00	 call	 @__security_check_cookie@4
  01978	8b e5		 mov	 esp, ebp
  0197a	5d		 pop	 ebp
  0197b	c3		 ret	 0
_TEXT	ENDS
text$x	SEGMENT
$L204843:
  00264	8d 4d 94	 lea	 ecx, DWORD PTR _dc$[ebp]
  00267	e9 00 00 00 00	 jmp	 ??1CPaintDC@@UAE@XZ	; CPaintDC::~CPaintDC
__ehhandler$?OnPaint@CMainSkinWnd@@QAEXXZ:
  0026c	b8 00 00 00 00	 mov	 eax, OFFSET FLAT:$T204845
  00271	e9 00 00 00 00	 jmp	 ___CxxFrameHandler
text$x	ENDS
?OnPaint@CMainSkinWnd@@QAEXXZ ENDP			; CMainSkinWnd::OnPaint
PUBLIC	?CloseWindows@CMainSkinWnd@@QAEXXZ		; CMainSkinWnd::CloseWindows
EXTRN	?OnClose@CFrameWnd@@IAEXXZ:NEAR			; CFrameWnd::OnClose
; Function compile flags: /Odt
_TEXT	SEGMENT
_this$ = -4						; size = 4
?CloseWindows@CMainSkinWnd@@QAEXXZ PROC NEAR		; CMainSkinWnd::CloseWindows
; _this$ = ecx

; 333  : {

  01980	55		 push	 ebp
  01981	8b ec		 mov	 ebp, esp
  01983	51		 push	 ecx
  01984	89 4d fc	 mov	 DWORD PTR _this$[ebp], ecx

; 334  : 	OnClose();

  01987	8b 4d fc	 mov	 ecx, DWORD PTR _this$[ebp]
  0198a	e8 00 00 00 00	 call	 ?OnClose@CFrameWnd@@IAEXXZ ; CFrameWnd::OnClose

; 335  : }

  0198f	8b e5		 mov	 esp, ebp
  01991	5d		 pop	 ebp
  01992	c3		 ret	 0
?CloseWindows@CMainSkinWnd@@QAEXXZ ENDP			; CMainSkinWnd::CloseWindows
_TEXT	ENDS
PUBLIC	?LoadSkin@CMainSkinWnd@@QAEXXZ			; CMainSkinWnd::LoadSkin
; Function compile flags: /Odt
_TEXT	SEGMENT
_this$ = -4						; size = 4
?LoadSkin@CMainSkinWnd@@QAEXXZ PROC NEAR		; CMainSkinWnd::LoadSkin
; _this$ = ecx

; 338  : {

  019a0	55		 push	 ebp
  019a1	8b ec		 mov	 ebp, esp
  019a3	51		 push	 ecx
  019a4	89 4d fc	 mov	 DWORD PTR _this$[ebp], ecx

; 339  : }

  019a7	8b e5		 mov	 esp, ebp
  019a9	5d		 pop	 ebp
  019aa	c3		 ret	 0
?LoadSkin@CMainSkinWnd@@QAEXXZ ENDP			; CMainSkinWnd::LoadSkin
_TEXT	ENDS
PUBLIC	??1CColorDialog@@UAE@XZ				; CColorDialog::~CColorDialog
EXTRN	??0CColorDialog@@QAE@KKPAVCWnd@@@Z:NEAR		; CColorDialog::CColorDialog
EXTRN	?DoModal@CColorDialog@@UAEHXZ:NEAR		; CColorDialog::DoModal
xdata$x	SEGMENT
$T204868 DD	0ffffffffH
	DD	FLAT:$L204858
	DD	00H
	DD	FLAT:$L204859
	DD	0ffffffffH
	DD	FLAT:$L204860
	DD	02H
	DD	FLAT:$L204861
	DD	03H
	DD	FLAT:$L204862
	DD	02H
	DD	FLAT:$L204863
	DD	05H
	DD	FLAT:$L204864
$T204866 DD	019930520H
	DD	07H
	DD	FLAT:$T204868
	DD	2 DUP(00H)
	DD	2 DUP(00H)
; Function compile flags: /Odt
xdata$x	ENDS
_TEXT	SEGMENT
_this$ = -344						; size = 4
$T204857 = -340						; size = 28
$T204856 = -312						; size = 28
$T204855 = -284						; size = 28
$T204854 = -256						; size = 28
$T204853 = -228						; size = 28
$T204852 = -200						; size = 28
_i$202812 = -172					; size = 4
_iColor$ = -168						; size = 4
_dlg$ = -164						; size = 152
__$EHRec$ = -12						; size = 12
?OnClickMoreCol@CMainSkinWnd@@QAEXXZ PROC NEAR		; CMainSkinWnd::OnClickMoreCol
; _this$ = ecx

; 341  : {

  019b0	55		 push	 ebp
  019b1	8b ec		 mov	 ebp, esp
  019b3	6a ff		 push	 -1
  019b5	68 00 00 00 00	 push	 __ehhandler$?OnClickMoreCol@CMainSkinWnd@@QAEXXZ
  019ba	64 a1 00 00 00
	00		 mov	 eax, DWORD PTR fs:__except_list
  019c0	50		 push	 eax
  019c1	64 89 25 00 00
	00 00		 mov	 DWORD PTR fs:__except_list, esp
  019c8	81 ec 4c 01 00
	00		 sub	 esp, 332		; 0000014cH
  019ce	89 8d a8 fe ff
	ff		 mov	 DWORD PTR _this$[ebp], ecx

; 342  : 	int iColor;
; 343  : 	::AfxGetUserConfig()->GetConfigIntValue(CONF_SETTING_MODULE_NAME, CONF_SETTING_COLOR_USER,iColor);

  019d4	a1 00 00 00 00	 mov	 eax, DWORD PTR _CONF_SETTING_COLOR_USER
  019d9	50		 push	 eax
  019da	8d 8d 38 ff ff
	ff		 lea	 ecx, DWORD PTR $T204852[ebp]
  019e0	ff 15 00 00 00
	00		 call	 DWORD PTR __imp_??0?$basic_string@DU?$char_traits@D@std@@V?$allocator@D@2@@std@@QAE@PBD@Z
  019e6	c7 45 fc 00 00
	00 00		 mov	 DWORD PTR __$EHRec$[ebp+8], 0
  019ed	8b 0d 00 00 00
	00		 mov	 ecx, DWORD PTR _CONF_SETTING_MODULE_NAME
  019f3	51		 push	 ecx
  019f4	8d 8d 1c ff ff
	ff		 lea	 ecx, DWORD PTR $T204853[ebp]
  019fa	ff 15 00 00 00
	00		 call	 DWORD PTR __imp_??0?$basic_string@DU?$char_traits@D@std@@V?$allocator@D@2@@std@@QAE@PBD@Z
  01a00	c6 45 fc 01	 mov	 BYTE PTR __$EHRec$[ebp+8], 1
  01a04	8d 95 58 ff ff
	ff		 lea	 edx, DWORD PTR _iColor$[ebp]
  01a0a	52		 push	 edx
  01a0b	8d 85 38 ff ff
	ff		 lea	 eax, DWORD PTR $T204852[ebp]
  01a11	50		 push	 eax
  01a12	8d 8d 1c ff ff
	ff		 lea	 ecx, DWORD PTR $T204853[ebp]
  01a18	51		 push	 ecx
  01a19	e8 00 00 00 00	 call	 ?AfxGetUserConfig@@YAPAVAfxUserConfig@@XZ ; AfxGetUserConfig
  01a1e	8b c8		 mov	 ecx, eax
  01a20	e8 00 00 00 00	 call	 ?GetConfigIntValue@AfxUserConfig@@QAEXABV?$basic_string@DU?$char_traits@D@std@@V?$allocator@D@2@@std@@0AAH@Z ; AfxUserConfig::GetConfigIntValue
  01a25	c6 45 fc 00	 mov	 BYTE PTR __$EHRec$[ebp+8], 0
  01a29	8d 8d 1c ff ff
	ff		 lea	 ecx, DWORD PTR $T204853[ebp]
  01a2f	ff 15 00 00 00
	00		 call	 DWORD PTR __imp_??1?$basic_string@DU?$char_traits@D@std@@V?$allocator@D@2@@std@@QAE@XZ
  01a35	c7 45 fc ff ff
	ff ff		 mov	 DWORD PTR __$EHRec$[ebp+8], -1
  01a3c	8d 8d 38 ff ff
	ff		 lea	 ecx, DWORD PTR $T204852[ebp]
  01a42	ff 15 00 00 00
	00		 call	 DWORD PTR __imp_??1?$basic_string@DU?$char_traits@D@std@@V?$allocator@D@2@@std@@QAE@XZ

; 344  : 	m_colDefault = iColor;

  01a48	8b 95 a8 fe ff
	ff		 mov	 edx, DWORD PTR _this$[ebp]
  01a4e	8b 85 58 ff ff
	ff		 mov	 eax, DWORD PTR _iColor$[ebp]
  01a54	89 82 58 09 00
	00		 mov	 DWORD PTR [edx+2392], eax

; 345  : 
; 346  : 	CColorDialog dlg(m_colDefault,0, this);

  01a5a	8b 8d a8 fe ff
	ff		 mov	 ecx, DWORD PTR _this$[ebp]
  01a60	51		 push	 ecx
  01a61	6a 00		 push	 0
  01a63	8b 95 a8 fe ff
	ff		 mov	 edx, DWORD PTR _this$[ebp]
  01a69	8b 82 58 09 00
	00		 mov	 eax, DWORD PTR [edx+2392]
  01a6f	50		 push	 eax
  01a70	8d 8d 5c ff ff
	ff		 lea	 ecx, DWORD PTR _dlg$[ebp]
  01a76	e8 00 00 00 00	 call	 ??0CColorDialog@@QAE@KKPAVCWnd@@@Z ; CColorDialog::CColorDialog
  01a7b	c7 45 fc 02 00
	00 00		 mov	 DWORD PTR __$EHRec$[ebp+8], 2

; 347  : 	if(dlg.DoModal() == IDOK)

  01a82	8d 8d 5c ff ff
	ff		 lea	 ecx, DWORD PTR _dlg$[ebp]
  01a88	e8 00 00 00 00	 call	 ?DoModal@CColorDialog@@UAEHXZ ; CColorDialog::DoModal
  01a8d	83 f8 01	 cmp	 eax, 1
  01a90	0f 85 f1 01 00
	00		 jne	 $L202807

; 348  : 	{
; 349  : 		m_colDefault = dlg.m_cc.rgbResult;

  01a96	8b 8d a8 fe ff
	ff		 mov	 ecx, DWORD PTR _this$[ebp]
  01a9c	8b 55 dc	 mov	 edx, DWORD PTR _dlg$[ebp+128]
  01a9f	89 91 58 09 00
	00		 mov	 DWORD PTR [ecx+2392], edx

; 350  : 		m_colBtnMore.SetBKColor(255,GetRValue( m_colDefault),GetGValue( m_colDefault ),GetBValue( m_colDefault ) );

  01aa5	8b 85 a8 fe ff
	ff		 mov	 eax, DWORD PTR _this$[ebp]
  01aab	8b 88 58 09 00
	00		 mov	 ecx, DWORD PTR [eax+2392]
  01ab1	c1 e9 10	 shr	 ecx, 16			; 00000010H
  01ab4	51		 push	 ecx
  01ab5	8b 95 a8 fe ff
	ff		 mov	 edx, DWORD PTR _this$[ebp]
  01abb	0f b7 82 58 09
	00 00		 movzx	 eax, WORD PTR [edx+2392]
  01ac2	c1 f8 08	 sar	 eax, 8
  01ac5	50		 push	 eax
  01ac6	8b 8d a8 fe ff
	ff		 mov	 ecx, DWORD PTR _this$[ebp]
  01acc	8a 91 58 09 00
	00		 mov	 dl, BYTE PTR [ecx+2392]
  01ad2	52		 push	 edx
  01ad3	68 ff 00 00 00	 push	 255			; 000000ffH
  01ad8	8b 8d a8 fe ff
	ff		 mov	 ecx, DWORD PTR _this$[ebp]
  01ade	81 c1 cc 07 00
	00		 add	 ecx, 1996		; 000007ccH
  01ae4	e8 00 00 00 00	 call	 ?SetBKColor@CSkinButton2@@QAEXEEEE@Z ; CSkinButton2::SetBKColor

; 351  : 		m_colBtnMore.SetCheck(1);

  01ae9	6a 01		 push	 1
  01aeb	8b 8d a8 fe ff
	ff		 mov	 ecx, DWORD PTR _this$[ebp]
  01af1	81 c1 cc 07 00
	00		 add	 ecx, 1996		; 000007ccH
  01af7	e8 00 00 00 00	 call	 ?SetCheck@CSkinButton2@@QAEXH@Z ; CSkinButton2::SetCheck

; 352  : 		for( int i=0; i<m_colbtnVec.size(); i++ )

  01afc	c7 85 54 ff ff
	ff 00 00 00 00	 mov	 DWORD PTR _i$202812[ebp], 0
  01b06	eb 0f		 jmp	 SHORT $L202813
$L202814:
  01b08	8b 85 54 ff ff
	ff		 mov	 eax, DWORD PTR _i$202812[ebp]
  01b0e	83 c0 01	 add	 eax, 1
  01b11	89 85 54 ff ff
	ff		 mov	 DWORD PTR _i$202812[ebp], eax
$L202813:
  01b17	8b 8d a8 fe ff
	ff		 mov	 ecx, DWORD PTR _this$[ebp]
  01b1d	81 c1 e4 00 00
	00		 add	 ecx, 228		; 000000e4H
  01b23	e8 00 00 00 00	 call	 ?size@?$vector@PAVCSkinButton2@@V?$allocator@PAVCSkinButton2@@@std@@@std@@QBEIXZ ; std::vector<CSkinButton2 *,std::allocator<CSkinButton2 *> >::size
  01b28	39 85 54 ff ff
	ff		 cmp	 DWORD PTR _i$202812[ebp], eax
  01b2e	73 47		 jae	 SHORT $L202815

; 353  : 		{
; 354  : 			if( m_colbtnVec[i]->GetCheck() == 1 )

  01b30	8b 8d 54 ff ff
	ff		 mov	 ecx, DWORD PTR _i$202812[ebp]
  01b36	51		 push	 ecx
  01b37	8b 8d a8 fe ff
	ff		 mov	 ecx, DWORD PTR _this$[ebp]
  01b3d	81 c1 e4 00 00
	00		 add	 ecx, 228		; 000000e4H
  01b43	e8 00 00 00 00	 call	 ??A?$vector@PAVCSkinButton2@@V?$allocator@PAVCSkinButton2@@@std@@@std@@QAEAAPAVCSkinButton2@@I@Z ; std::vector<CSkinButton2 *,std::allocator<CSkinButton2 *> >::operator[]
  01b48	8b 08		 mov	 ecx, DWORD PTR [eax]
  01b4a	e8 00 00 00 00	 call	 ?GetCheck@CSkinButton2@@QBEHXZ ; CSkinButton2::GetCheck
  01b4f	83 f8 01	 cmp	 eax, 1
  01b52	75 21		 jne	 SHORT $L202816

; 355  : 				m_colbtnVec[i]->SetCheck(0);

  01b54	6a 00		 push	 0
  01b56	8b 95 54 ff ff
	ff		 mov	 edx, DWORD PTR _i$202812[ebp]
  01b5c	52		 push	 edx
  01b5d	8b 8d a8 fe ff
	ff		 mov	 ecx, DWORD PTR _this$[ebp]
  01b63	81 c1 e4 00 00
	00		 add	 ecx, 228		; 000000e4H
  01b69	e8 00 00 00 00	 call	 ??A?$vector@PAVCSkinButton2@@V?$allocator@PAVCSkinButton2@@@std@@@std@@QAEAAPAVCSkinButton2@@I@Z ; std::vector<CSkinButton2 *,std::allocator<CSkinButton2 *> >::operator[]
  01b6e	8b 08		 mov	 ecx, DWORD PTR [eax]
  01b70	e8 00 00 00 00	 call	 ?SetCheck@CSkinButton2@@QAEXH@Z ; CSkinButton2::SetCheck
$L202816:

; 356  : 		}

  01b75	eb 91		 jmp	 SHORT $L202814
$L202815:

; 357  : 		mp_EventListener->OnSendChangeColor(m_colDefault,120);

  01b77	6a 01		 push	 1
  01b79	6a 78		 push	 120			; 00000078H
  01b7b	8b 85 a8 fe ff
	ff		 mov	 eax, DWORD PTR _this$[ebp]
  01b81	8b 88 58 09 00
	00		 mov	 ecx, DWORD PTR [eax+2392]
  01b87	51		 push	 ecx
  01b88	8b 95 a8 fe ff
	ff		 mov	 edx, DWORD PTR _this$[ebp]
  01b8e	8b 82 dc 00 00
	00		 mov	 eax, DWORD PTR [edx+220]
  01b94	8b 8d a8 fe ff
	ff		 mov	 ecx, DWORD PTR _this$[ebp]
  01b9a	8b 89 dc 00 00
	00		 mov	 ecx, DWORD PTR [ecx+220]
  01ba0	8b 10		 mov	 edx, DWORD PTR [eax]
  01ba2	ff 52 08	 call	 DWORD PTR [edx+8]

; 358  : 		::AfxGetUserConfig()->SetConfigIntValue(CONF_SETTING_MODULE_NAME, CONF_SETTING_COLOR_BTN_INDEX,-1,true);

  01ba5	a1 00 00 00 00	 mov	 eax, DWORD PTR _CONF_SETTING_COLOR_BTN_INDEX
  01baa	50		 push	 eax
  01bab	8d 8d 00 ff ff
	ff		 lea	 ecx, DWORD PTR $T204854[ebp]
  01bb1	ff 15 00 00 00
	00		 call	 DWORD PTR __imp_??0?$basic_string@DU?$char_traits@D@std@@V?$allocator@D@2@@std@@QAE@PBD@Z
  01bb7	c6 45 fc 03	 mov	 BYTE PTR __$EHRec$[ebp+8], 3
  01bbb	8b 0d 00 00 00
	00		 mov	 ecx, DWORD PTR _CONF_SETTING_MODULE_NAME
  01bc1	51		 push	 ecx
  01bc2	8d 8d e4 fe ff
	ff		 lea	 ecx, DWORD PTR $T204855[ebp]
  01bc8	ff 15 00 00 00
	00		 call	 DWORD PTR __imp_??0?$basic_string@DU?$char_traits@D@std@@V?$allocator@D@2@@std@@QAE@PBD@Z
  01bce	c6 45 fc 04	 mov	 BYTE PTR __$EHRec$[ebp+8], 4
  01bd2	6a 01		 push	 1
  01bd4	6a ff		 push	 -1
  01bd6	8d 95 00 ff ff
	ff		 lea	 edx, DWORD PTR $T204854[ebp]
  01bdc	52		 push	 edx
  01bdd	8d 85 e4 fe ff
	ff		 lea	 eax, DWORD PTR $T204855[ebp]
  01be3	50		 push	 eax
  01be4	e8 00 00 00 00	 call	 ?AfxGetUserConfig@@YAPAVAfxUserConfig@@XZ ; AfxGetUserConfig
  01be9	8b c8		 mov	 ecx, eax
  01beb	e8 00 00 00 00	 call	 ?SetConfigIntValue@AfxUserConfig@@QAEXABV?$basic_string@DU?$char_traits@D@std@@V?$allocator@D@2@@std@@0H_N@Z ; AfxUserConfig::SetConfigIntValue
  01bf0	c6 45 fc 03	 mov	 BYTE PTR __$EHRec$[ebp+8], 3
  01bf4	8d 8d e4 fe ff
	ff		 lea	 ecx, DWORD PTR $T204855[ebp]
  01bfa	ff 15 00 00 00
	00		 call	 DWORD PTR __imp_??1?$basic_string@DU?$char_traits@D@std@@V?$allocator@D@2@@std@@QAE@XZ
  01c00	c6 45 fc 02	 mov	 BYTE PTR __$EHRec$[ebp+8], 2
  01c04	8d 8d 00 ff ff
	ff		 lea	 ecx, DWORD PTR $T204854[ebp]
  01c0a	ff 15 00 00 00
	00		 call	 DWORD PTR __imp_??1?$basic_string@DU?$char_traits@D@std@@V?$allocator@D@2@@std@@QAE@XZ

; 359  : 		::AfxGetUserConfig()->SetConfigIntValue(CONF_SETTING_MODULE_NAME, CONF_SETTING_COLOR_USER,m_colDefault,true);

  01c10	8b 0d 00 00 00
	00		 mov	 ecx, DWORD PTR _CONF_SETTING_COLOR_USER
  01c16	51		 push	 ecx
  01c17	8d 8d c8 fe ff
	ff		 lea	 ecx, DWORD PTR $T204856[ebp]
  01c1d	ff 15 00 00 00
	00		 call	 DWORD PTR __imp_??0?$basic_string@DU?$char_traits@D@std@@V?$allocator@D@2@@std@@QAE@PBD@Z
  01c23	c6 45 fc 05	 mov	 BYTE PTR __$EHRec$[ebp+8], 5
  01c27	8b 15 00 00 00
	00		 mov	 edx, DWORD PTR _CONF_SETTING_MODULE_NAME
  01c2d	52		 push	 edx
  01c2e	8d 8d ac fe ff
	ff		 lea	 ecx, DWORD PTR $T204857[ebp]
  01c34	ff 15 00 00 00
	00		 call	 DWORD PTR __imp_??0?$basic_string@DU?$char_traits@D@std@@V?$allocator@D@2@@std@@QAE@PBD@Z
  01c3a	c6 45 fc 06	 mov	 BYTE PTR __$EHRec$[ebp+8], 6
  01c3e	6a 01		 push	 1
  01c40	8b 85 a8 fe ff
	ff		 mov	 eax, DWORD PTR _this$[ebp]
  01c46	8b 88 58 09 00
	00		 mov	 ecx, DWORD PTR [eax+2392]
  01c4c	51		 push	 ecx
  01c4d	8d 95 c8 fe ff
	ff		 lea	 edx, DWORD PTR $T204856[ebp]
  01c53	52		 push	 edx
  01c54	8d 85 ac fe ff
	ff		 lea	 eax, DWORD PTR $T204857[ebp]
  01c5a	50		 push	 eax
  01c5b	e8 00 00 00 00	 call	 ?AfxGetUserConfig@@YAPAVAfxUserConfig@@XZ ; AfxGetUserConfig
  01c60	8b c8		 mov	 ecx, eax
  01c62	e8 00 00 00 00	 call	 ?SetConfigIntValue@AfxUserConfig@@QAEXABV?$basic_string@DU?$char_traits@D@std@@V?$allocator@D@2@@std@@0H_N@Z ; AfxUserConfig::SetConfigIntValue
  01c67	c6 45 fc 05	 mov	 BYTE PTR __$EHRec$[ebp+8], 5
  01c6b	8d 8d ac fe ff
	ff		 lea	 ecx, DWORD PTR $T204857[ebp]
  01c71	ff 15 00 00 00
	00		 call	 DWORD PTR __imp_??1?$basic_string@DU?$char_traits@D@std@@V?$allocator@D@2@@std@@QAE@XZ
  01c77	c6 45 fc 02	 mov	 BYTE PTR __$EHRec$[ebp+8], 2
  01c7b	8d 8d c8 fe ff
	ff		 lea	 ecx, DWORD PTR $T204856[ebp]
  01c81	ff 15 00 00 00
	00		 call	 DWORD PTR __imp_??1?$basic_string@DU?$char_traits@D@std@@V?$allocator@D@2@@std@@QAE@XZ
$L202807:

; 360  : 	}
; 361  : }

  01c87	c7 45 fc ff ff
	ff ff		 mov	 DWORD PTR __$EHRec$[ebp+8], -1
  01c8e	8d 8d 5c ff ff
	ff		 lea	 ecx, DWORD PTR _dlg$[ebp]
  01c94	e8 00 00 00 00	 call	 ??1CColorDialog@@UAE@XZ
  01c99	8b 4d f4	 mov	 ecx, DWORD PTR __$EHRec$[ebp]
  01c9c	64 89 0d 00 00
	00 00		 mov	 DWORD PTR fs:__except_list, ecx
  01ca3	8b e5		 mov	 esp, ebp
  01ca5	5d		 pop	 ebp
  01ca6	c3		 ret	 0
_TEXT	ENDS
text$x	SEGMENT
$L204858:
  00276	8d 8d 38 ff ff
	ff		 lea	 ecx, DWORD PTR $T204852[ebp]
  0027c	ff 25 00 00 00
	00		 jmp	 DWORD PTR __imp_??1?$basic_string@DU?$char_traits@D@std@@V?$allocator@D@2@@std@@QAE@XZ
$L204859:
  00282	8d 8d 1c ff ff
	ff		 lea	 ecx, DWORD PTR $T204853[ebp]
  00288	ff 25 00 00 00
	00		 jmp	 DWORD PTR __imp_??1?$basic_string@DU?$char_traits@D@std@@V?$allocator@D@2@@std@@QAE@XZ
$L204860:
  0028e	8d 8d 5c ff ff
	ff		 lea	 ecx, DWORD PTR _dlg$[ebp]
  00294	e9 00 00 00 00	 jmp	 ??1CColorDialog@@UAE@XZ
$L204861:
  00299	8d 8d 00 ff ff
	ff		 lea	 ecx, DWORD PTR $T204854[ebp]
  0029f	ff 25 00 00 00
	00		 jmp	 DWORD PTR __imp_??1?$basic_string@DU?$char_traits@D@std@@V?$allocator@D@2@@std@@QAE@XZ
$L204862:
  002a5	8d 8d e4 fe ff
	ff		 lea	 ecx, DWORD PTR $T204855[ebp]
  002ab	ff 25 00 00 00
	00		 jmp	 DWORD PTR __imp_??1?$basic_string@DU?$char_traits@D@std@@V?$allocator@D@2@@std@@QAE@XZ
$L204863:
  002b1	8d 8d c8 fe ff
	ff		 lea	 ecx, DWORD PTR $T204856[ebp]
  002b7	ff 25 00 00 00
	00		 jmp	 DWORD PTR __imp_??1?$basic_string@DU?$char_traits@D@std@@V?$allocator@D@2@@std@@QAE@XZ
$L204864:
  002bd	8d 8d ac fe ff
	ff		 lea	 ecx, DWORD PTR $T204857[ebp]
  002c3	ff 25 00 00 00
	00		 jmp	 DWORD PTR __imp_??1?$basic_string@DU?$char_traits@D@std@@V?$allocator@D@2@@std@@QAE@XZ
__ehhandler$?OnClickMoreCol@CMainSkinWnd@@QAEXXZ:
  002c9	b8 00 00 00 00	 mov	 eax, OFFSET FLAT:$T204866
  002ce	e9 00 00 00 00	 jmp	 ___CxxFrameHandler
text$x	ENDS
?OnClickMoreCol@CMainSkinWnd@@QAEXXZ ENDP		; CMainSkinWnd::OnClickMoreCol
PUBLIC	??1CCommonDialog@@UAE@XZ			; CCommonDialog::~CCommonDialog
; Function compile flags: /Odt
;	COMDAT ??1CColorDialog@@UAE@XZ
_TEXT	SEGMENT
_this$ = -4						; size = 4
??1CColorDialog@@UAE@XZ PROC NEAR			; CColorDialog::~CColorDialog, COMDAT
; _this$ = ecx
  00000	55		 push	 ebp
  00001	8b ec		 mov	 ebp, esp
  00003	51		 push	 ecx
  00004	89 4d fc	 mov	 DWORD PTR _this$[ebp], ecx
  00007	8b 4d fc	 mov	 ecx, DWORD PTR _this$[ebp]
  0000a	e8 00 00 00 00	 call	 ??1CCommonDialog@@UAE@XZ ; CCommonDialog::~CCommonDialog
  0000f	8b e5		 mov	 esp, ebp
  00011	5d		 pop	 ebp
  00012	c3		 ret	 0
??1CColorDialog@@UAE@XZ ENDP				; CColorDialog::~CColorDialog
_TEXT	ENDS
EXTRN	__imp_?LogUserActMsg@@YAXABV?$basic_string@DU?$char_traits@D@std@@V?$allocator@D@2@@std@@0@Z:NEAR
EXTRN	__imp__ShellExecuteA@24:NEAR
xdata$x	SEGMENT
$T204880 DD	0ffffffffH
	DD	FLAT:$L204875
	DD	00H
	DD	FLAT:$L204876
$T204878 DD	019930520H
	DD	02H
	DD	FLAT:$T204880
	DD	2 DUP(00H)
	DD	2 DUP(00H)
; Function compile flags: /Odt
xdata$x	ENDS
_TEXT	SEGMENT
_this$ = -72						; size = 4
$T204874 = -68						; size = 28
$T204873 = -40						; size = 28
__$EHRec$ = -12						; size = 12
?OnClickDownMore@CMainSkinWnd@@QAEXXZ PROC NEAR		; CMainSkinWnd::OnClickDownMore
; _this$ = ecx

; 364  : {

  01cb0	55		 push	 ebp
  01cb1	8b ec		 mov	 ebp, esp
  01cb3	6a ff		 push	 -1
  01cb5	68 00 00 00 00	 push	 __ehhandler$?OnClickDownMore@CMainSkinWnd@@QAEXXZ
  01cba	64 a1 00 00 00
	00		 mov	 eax, DWORD PTR fs:__except_list
  01cc0	50		 push	 eax
  01cc1	64 89 25 00 00
	00 00		 mov	 DWORD PTR fs:__except_list, esp
  01cc8	83 ec 3c	 sub	 esp, 60			; 0000003cH
  01ccb	89 4d b8	 mov	 DWORD PTR _this$[ebp], ecx

; 365  : 	LogUserActMsg(STR_USER_CLICK, "BTN:DOWN_MORE");

  01cce	68 00 00 00 00	 push	 OFFSET FLAT:$SG202828
  01cd3	8d 4d d8	 lea	 ecx, DWORD PTR $T204873[ebp]
  01cd6	ff 15 00 00 00
	00		 call	 DWORD PTR __imp_??0?$basic_string@DU?$char_traits@D@std@@V?$allocator@D@2@@std@@QAE@PBD@Z
  01cdc	c7 45 fc 00 00
	00 00		 mov	 DWORD PTR __$EHRec$[ebp+8], 0
  01ce3	68 00 00 00 00	 push	 OFFSET FLAT:$SG202829
  01ce8	8d 4d bc	 lea	 ecx, DWORD PTR $T204874[ebp]
  01ceb	ff 15 00 00 00
	00		 call	 DWORD PTR __imp_??0?$basic_string@DU?$char_traits@D@std@@V?$allocator@D@2@@std@@QAE@PBD@Z
  01cf1	c6 45 fc 01	 mov	 BYTE PTR __$EHRec$[ebp+8], 1
  01cf5	8d 45 d8	 lea	 eax, DWORD PTR $T204873[ebp]
  01cf8	50		 push	 eax
  01cf9	8d 4d bc	 lea	 ecx, DWORD PTR $T204874[ebp]
  01cfc	51		 push	 ecx
  01cfd	ff 15 00 00 00
	00		 call	 DWORD PTR __imp_?LogUserActMsg@@YAXABV?$basic_string@DU?$char_traits@D@std@@V?$allocator@D@2@@std@@0@Z
  01d03	83 c4 08	 add	 esp, 8
  01d06	c6 45 fc 00	 mov	 BYTE PTR __$EHRec$[ebp+8], 0
  01d0a	8d 4d bc	 lea	 ecx, DWORD PTR $T204874[ebp]
  01d0d	ff 15 00 00 00
	00		 call	 DWORD PTR __imp_??1?$basic_string@DU?$char_traits@D@std@@V?$allocator@D@2@@std@@QAE@XZ
  01d13	c7 45 fc ff ff
	ff ff		 mov	 DWORD PTR __$EHRec$[ebp+8], -1
  01d1a	8d 4d d8	 lea	 ecx, DWORD PTR $T204873[ebp]
  01d1d	ff 15 00 00 00
	00		 call	 DWORD PTR __imp_??1?$basic_string@DU?$char_traits@D@std@@V?$allocator@D@2@@std@@QAE@XZ

; 366  : 	ShellExecute(NULL, "open", _T("iexplore"), "http://www.kuwo.cn/skin/", NULL, SW_SHOWNORMAL);

  01d23	6a 01		 push	 1
  01d25	6a 00		 push	 0
  01d27	68 00 00 00 00	 push	 OFFSET FLAT:$SG202830
  01d2c	68 00 00 00 00	 push	 OFFSET FLAT:$SG202831
  01d31	68 00 00 00 00	 push	 OFFSET FLAT:$SG202832
  01d36	6a 00		 push	 0
  01d38	ff 15 00 00 00
	00		 call	 DWORD PTR __imp__ShellExecuteA@24

; 367  : }

  01d3e	8b 4d f4	 mov	 ecx, DWORD PTR __$EHRec$[ebp]
  01d41	64 89 0d 00 00
	00 00		 mov	 DWORD PTR fs:__except_list, ecx
  01d48	8b e5		 mov	 esp, ebp
  01d4a	5d		 pop	 ebp
  01d4b	c3		 ret	 0
_TEXT	ENDS
text$x	SEGMENT
$L204875:
  002d3	8d 4d d8	 lea	 ecx, DWORD PTR $T204873[ebp]
  002d6	ff 25 00 00 00
	00		 jmp	 DWORD PTR __imp_??1?$basic_string@DU?$char_traits@D@std@@V?$allocator@D@2@@std@@QAE@XZ
$L204876:
  002dc	8d 4d bc	 lea	 ecx, DWORD PTR $T204874[ebp]
  002df	ff 25 00 00 00
	00		 jmp	 DWORD PTR __imp_??1?$basic_string@DU?$char_traits@D@std@@V?$allocator@D@2@@std@@QAE@XZ
__ehhandler$?OnClickDownMore@CMainSkinWnd@@QAEXXZ:
  002e5	b8 00 00 00 00	 mov	 eax, OFFSET FLAT:$T204878
  002ea	e9 00 00 00 00	 jmp	 ___CxxFrameHandler
text$x	ENDS
?OnClickDownMore@CMainSkinWnd@@QAEXXZ ENDP		; CMainSkinWnd::OnClickDownMore
; Function compile flags: /Odt
_TEXT	SEGMENT
_this$ = -36						; size = 4
$T204884 = -32						; size = 8
$T204883 = -24						; size = 8
$T204882 = -16						; size = 8
_i$202847 = -8						; size = 4
_colorref$ = -4						; size = 4
_wParam$ = 8						; size = 4
_lParam$ = 12						; size = 4
?OnChangeBtnColor@CMainSkinWnd@@QAEJIJ@Z PROC NEAR	; CMainSkinWnd::OnChangeBtnColor
; _this$ = ecx

; 370  : {	

  01d50	55		 push	 ebp
  01d51	8b ec		 mov	 ebp, esp
  01d53	83 ec 24	 sub	 esp, 36			; 00000024H
  01d56	89 4d dc	 mov	 DWORD PTR _this$[ebp], ecx

; 371  : 	COLORREF colorref = (COLORREF)wParam;

  01d59	8b 45 08	 mov	 eax, DWORD PTR _wParam$[ebp]
  01d5c	89 45 fc	 mov	 DWORD PTR _colorref$[ebp], eax

; 372  : 
; 373  : 	if( colorref == 0 )

  01d5f	83 7d fc 00	 cmp	 DWORD PTR _colorref$[ebp], 0
  01d63	75 34		 jne	 SHORT $L202840

; 374  : 	{
; 375  : 		colorref = gBitMapOperate.HLStoRGB( ((double)145)/240  ,((double)50)/100,((double)45)/100 );

  01d65	dd 05 00 00 00
	00		 fld	 QWORD PTR __real@3fdccccccccccccd
  01d6b	dd 5d f0	 fstp	 QWORD PTR $T204882[ebp]
  01d6e	dd 05 00 00 00
	00		 fld	 QWORD PTR __real@3fe0000000000000
  01d74	dd 5d e8	 fstp	 QWORD PTR $T204883[ebp]
  01d77	dd 05 00 00 00
	00		 fld	 QWORD PTR __real@3fe3555555555555
  01d7d	dd 5d e0	 fstp	 QWORD PTR $T204884[ebp]
  01d80	8d 4d f0	 lea	 ecx, DWORD PTR $T204882[ebp]
  01d83	51		 push	 ecx
  01d84	8d 55 e8	 lea	 edx, DWORD PTR $T204883[ebp]
  01d87	52		 push	 edx
  01d88	8d 45 e0	 lea	 eax, DWORD PTR $T204884[ebp]
  01d8b	50		 push	 eax
  01d8c	b9 00 00 00 00	 mov	 ecx, OFFSET FLAT:?gBitMapOperate@@3VCBitMapOperate@@A
  01d91	e8 00 00 00 00	 call	 ?HLStoRGB@CBitMapOperate@@QAEKABN00@Z ; CBitMapOperate::HLStoRGB
  01d96	89 45 fc	 mov	 DWORD PTR _colorref$[ebp], eax
$L202840:

; 376  : 	}
; 377  : 	m_colBtnMore.SetCheck(0);

  01d99	6a 00		 push	 0
  01d9b	8b 4d dc	 mov	 ecx, DWORD PTR _this$[ebp]
  01d9e	81 c1 cc 07 00
	00		 add	 ecx, 1996		; 000007ccH
  01da4	e8 00 00 00 00	 call	 ?SetCheck@CSkinButton2@@QAEXH@Z ; CSkinButton2::SetCheck

; 378  : 	for( int i=0; i<m_colbtnVec.size(); i++ )

  01da9	c7 45 f8 00 00
	00 00		 mov	 DWORD PTR _i$202847[ebp], 0
  01db0	eb 09		 jmp	 SHORT $L202848
$L202849:
  01db2	8b 4d f8	 mov	 ecx, DWORD PTR _i$202847[ebp]
  01db5	83 c1 01	 add	 ecx, 1
  01db8	89 4d f8	 mov	 DWORD PTR _i$202847[ebp], ecx
$L202848:
  01dbb	8b 4d dc	 mov	 ecx, DWORD PTR _this$[ebp]
  01dbe	81 c1 e4 00 00
	00		 add	 ecx, 228		; 000000e4H
  01dc4	e8 00 00 00 00	 call	 ?size@?$vector@PAVCSkinButton2@@V?$allocator@PAVCSkinButton2@@@std@@@std@@QBEIXZ ; std::vector<CSkinButton2 *,std::allocator<CSkinButton2 *> >::size
  01dc9	39 45 f8	 cmp	 DWORD PTR _i$202847[ebp], eax
  01dcc	73 1d		 jae	 SHORT $L202850

; 379  : 	{		
; 380  : 		m_colbtnVec[i]->SetCheck(0);

  01dce	6a 00		 push	 0
  01dd0	8b 55 f8	 mov	 edx, DWORD PTR _i$202847[ebp]
  01dd3	52		 push	 edx
  01dd4	8b 4d dc	 mov	 ecx, DWORD PTR _this$[ebp]
  01dd7	81 c1 e4 00 00
	00		 add	 ecx, 228		; 000000e4H
  01ddd	e8 00 00 00 00	 call	 ??A?$vector@PAVCSkinButton2@@V?$allocator@PAVCSkinButton2@@@std@@@std@@QAEAAPAVCSkinButton2@@I@Z ; std::vector<CSkinButton2 *,std::allocator<CSkinButton2 *> >::operator[]
  01de2	8b 08		 mov	 ecx, DWORD PTR [eax]
  01de4	e8 00 00 00 00	 call	 ?SetCheck@CSkinButton2@@QAEXH@Z ; CSkinButton2::SetCheck

; 381  : 	}

  01de9	eb c7		 jmp	 SHORT $L202849
$L202850:

; 382  : 	m_colbtnVec[0]->SetCheck(1);

  01deb	6a 01		 push	 1
  01ded	6a 00		 push	 0
  01def	8b 4d dc	 mov	 ecx, DWORD PTR _this$[ebp]
  01df2	81 c1 e4 00 00
	00		 add	 ecx, 228		; 000000e4H
  01df8	e8 00 00 00 00	 call	 ??A?$vector@PAVCSkinButton2@@V?$allocator@PAVCSkinButton2@@@std@@@std@@QAEAAPAVCSkinButton2@@I@Z ; std::vector<CSkinButton2 *,std::allocator<CSkinButton2 *> >::operator[]
  01dfd	8b 08		 mov	 ecx, DWORD PTR [eax]
  01dff	e8 00 00 00 00	 call	 ?SetCheck@CSkinButton2@@QAEXH@Z ; CSkinButton2::SetCheck

; 383  : 	m_colbtnVec[0]->SetBKColor(255,GetRValue( colorref ),GetGValue( colorref ),GetBValue( colorref ) );

  01e04	8b 45 fc	 mov	 eax, DWORD PTR _colorref$[ebp]
  01e07	c1 e8 10	 shr	 eax, 16			; 00000010H
  01e0a	50		 push	 eax
  01e0b	0f b7 4d fc	 movzx	 ecx, WORD PTR _colorref$[ebp]
  01e0f	c1 f9 08	 sar	 ecx, 8
  01e12	51		 push	 ecx
  01e13	8a 55 fc	 mov	 dl, BYTE PTR _colorref$[ebp]
  01e16	52		 push	 edx
  01e17	68 ff 00 00 00	 push	 255			; 000000ffH
  01e1c	6a 00		 push	 0
  01e1e	8b 4d dc	 mov	 ecx, DWORD PTR _this$[ebp]
  01e21	81 c1 e4 00 00
	00		 add	 ecx, 228		; 000000e4H
  01e27	e8 00 00 00 00	 call	 ??A?$vector@PAVCSkinButton2@@V?$allocator@PAVCSkinButton2@@@std@@@std@@QAEAAPAVCSkinButton2@@I@Z ; std::vector<CSkinButton2 *,std::allocator<CSkinButton2 *> >::operator[]
  01e2c	8b 08		 mov	 ecx, DWORD PTR [eax]
  01e2e	e8 00 00 00 00	 call	 ?SetBKColor@CSkinButton2@@QAEXEEEE@Z ; CSkinButton2::SetBKColor

; 384  : 
; 385  : 	return 1;

  01e33	b8 01 00 00 00	 mov	 eax, 1

; 386  : }

  01e38	8b e5		 mov	 esp, ebp
  01e3a	5d		 pop	 ebp
  01e3b	c2 08 00	 ret	 8
?OnChangeBtnColor@CMainSkinWnd@@QAEJIJ@Z ENDP		; CMainSkinWnd::OnChangeBtnColor
; Function compile flags: /Odt
_this$ = -4						; size = 4
?OnBtnSub@CMainSkinWnd@@QAEXXZ PROC NEAR		; CMainSkinWnd::OnBtnSub
; _this$ = ecx

; 389  : {

  01e40	55		 push	 ebp
  01e41	8b ec		 mov	 ebp, esp
  01e43	51		 push	 ecx
  01e44	89 4d fc	 mov	 DWORD PTR _this$[ebp], ecx

; 390  : 	m_btnSub.SetCheck(1);

  01e47	6a 01		 push	 1
  01e49	8b 4d fc	 mov	 ecx, DWORD PTR _this$[ebp]
  01e4c	81 c1 3c 03 00
	00		 add	 ecx, 828		; 0000033cH
  01e52	e8 00 00 00 00	 call	 ?SetCheck@CButton@@QAEXH@Z ; CButton::SetCheck

; 391  : 	m_btnSkin.SetCheck(0);

  01e57	6a 00		 push	 0
  01e59	8b 4d fc	 mov	 ecx, DWORD PTR _this$[ebp]
  01e5c	81 c1 18 02 00
	00		 add	 ecx, 536		; 00000218H
  01e62	e8 00 00 00 00	 call	 ?SetCheck@CButton@@QAEXH@Z ; CButton::SetCheck

; 392  : 	m_btnWebSub.SetCheck(0);

  01e67	6a 00		 push	 0
  01e69	8b 4d fc	 mov	 ecx, DWORD PTR _this$[ebp]
  01e6c	81 c1 60 04 00
	00		 add	 ecx, 1120		; 00000460H
  01e72	e8 00 00 00 00	 call	 ?SetCheck@CButton@@QAEXH@Z ; CButton::SetCheck

; 393  : 
; 394  : 	if( mp_WndListener )

  01e77	8b 45 fc	 mov	 eax, DWORD PTR _this$[ebp]
  01e7a	83 b8 e0 00 00
	00 00		 cmp	 DWORD PTR [eax+224], 0
  01e81	74 19		 je	 SHORT $L202857

; 395  : 	{
; 396  : 		mp_WndListener->OnTabSelChange(0);

  01e83	6a 00		 push	 0
  01e85	8b 4d fc	 mov	 ecx, DWORD PTR _this$[ebp]
  01e88	8b 91 e0 00 00
	00		 mov	 edx, DWORD PTR [ecx+224]
  01e8e	8b 45 fc	 mov	 eax, DWORD PTR _this$[ebp]
  01e91	8b 88 e0 00 00
	00		 mov	 ecx, DWORD PTR [eax+224]
  01e97	8b 12		 mov	 edx, DWORD PTR [edx]
  01e99	ff 52 08	 call	 DWORD PTR [edx+8]
$L202857:

; 397  : 	}
; 398  : }

  01e9c	8b e5		 mov	 esp, ebp
  01e9e	5d		 pop	 ebp
  01e9f	c3		 ret	 0
?OnBtnSub@CMainSkinWnd@@QAEXXZ ENDP			; CMainSkinWnd::OnBtnSub
; Function compile flags: /Odt
_this$ = -4						; size = 4
?OnBtnSkin@CMainSkinWnd@@QAEXXZ PROC NEAR		; CMainSkinWnd::OnBtnSkin
; _this$ = ecx

; 401  : {

  01ea0	55		 push	 ebp
  01ea1	8b ec		 mov	 ebp, esp
  01ea3	51		 push	 ecx
  01ea4	89 4d fc	 mov	 DWORD PTR _this$[ebp], ecx

; 402  : 	m_btnSub.SetCheck(0);

  01ea7	6a 00		 push	 0
  01ea9	8b 4d fc	 mov	 ecx, DWORD PTR _this$[ebp]
  01eac	81 c1 3c 03 00
	00		 add	 ecx, 828		; 0000033cH
  01eb2	e8 00 00 00 00	 call	 ?SetCheck@CButton@@QAEXH@Z ; CButton::SetCheck

; 403  : 	m_btnSkin.SetCheck(1);

  01eb7	6a 01		 push	 1
  01eb9	8b 4d fc	 mov	 ecx, DWORD PTR _this$[ebp]
  01ebc	81 c1 18 02 00
	00		 add	 ecx, 536		; 00000218H
  01ec2	e8 00 00 00 00	 call	 ?SetCheck@CButton@@QAEXH@Z ; CButton::SetCheck

; 404  : 	m_btnWebSub.SetCheck(0);

  01ec7	6a 00		 push	 0
  01ec9	8b 4d fc	 mov	 ecx, DWORD PTR _this$[ebp]
  01ecc	81 c1 60 04 00
	00		 add	 ecx, 1120		; 00000460H
  01ed2	e8 00 00 00 00	 call	 ?SetCheck@CButton@@QAEXH@Z ; CButton::SetCheck

; 405  : 
; 406  : 	if( mp_WndListener )

  01ed7	8b 45 fc	 mov	 eax, DWORD PTR _this$[ebp]
  01eda	83 b8 e0 00 00
	00 00		 cmp	 DWORD PTR [eax+224], 0
  01ee1	74 19		 je	 SHORT $L202861

; 407  : 	{
; 408  : 		mp_WndListener->OnTabSelChange(1);

  01ee3	6a 01		 push	 1
  01ee5	8b 4d fc	 mov	 ecx, DWORD PTR _this$[ebp]
  01ee8	8b 91 e0 00 00
	00		 mov	 edx, DWORD PTR [ecx+224]
  01eee	8b 45 fc	 mov	 eax, DWORD PTR _this$[ebp]
  01ef1	8b 88 e0 00 00
	00		 mov	 ecx, DWORD PTR [eax+224]
  01ef7	8b 12		 mov	 edx, DWORD PTR [edx]
  01ef9	ff 52 08	 call	 DWORD PTR [edx+8]
$L202861:

; 409  : 	}
; 410  : }

  01efc	8b e5		 mov	 esp, ebp
  01efe	5d		 pop	 ebp
  01eff	c3		 ret	 0
?OnBtnSkin@CMainSkinWnd@@QAEXXZ ENDP			; CMainSkinWnd::OnBtnSkin
; Function compile flags: /Odt
_this$ = -4						; size = 4
?OnBtnWebSub@CMainSkinWnd@@QAEXXZ PROC NEAR		; CMainSkinWnd::OnBtnWebSub
; _this$ = ecx

; 412  : {

  01f00	55		 push	 ebp
  01f01	8b ec		 mov	 ebp, esp
  01f03	51		 push	 ecx
  01f04	89 4d fc	 mov	 DWORD PTR _this$[ebp], ecx

; 413  : 	m_btnSub.SetCheck(0);

  01f07	6a 00		 push	 0
  01f09	8b 4d fc	 mov	 ecx, DWORD PTR _this$[ebp]
  01f0c	81 c1 3c 03 00
	00		 add	 ecx, 828		; 0000033cH
  01f12	e8 00 00 00 00	 call	 ?SetCheck@CButton@@QAEXH@Z ; CButton::SetCheck

; 414  : 	m_btnSkin.SetCheck(0);

  01f17	6a 00		 push	 0
  01f19	8b 4d fc	 mov	 ecx, DWORD PTR _this$[ebp]
  01f1c	81 c1 18 02 00
	00		 add	 ecx, 536		; 00000218H
  01f22	e8 00 00 00 00	 call	 ?SetCheck@CButton@@QAEXH@Z ; CButton::SetCheck

; 415  : 	m_btnWebSub.SetCheck(1);

  01f27	6a 01		 push	 1
  01f29	8b 4d fc	 mov	 ecx, DWORD PTR _this$[ebp]
  01f2c	81 c1 60 04 00
	00		 add	 ecx, 1120		; 00000460H
  01f32	e8 00 00 00 00	 call	 ?SetCheck@CButton@@QAEXH@Z ; CButton::SetCheck

; 416  : 
; 417  : 	if( mp_WndListener )

  01f37	8b 45 fc	 mov	 eax, DWORD PTR _this$[ebp]
  01f3a	83 b8 e0 00 00
	00 00		 cmp	 DWORD PTR [eax+224], 0
  01f41	74 19		 je	 SHORT $L202865

; 418  : 	{
; 419  : 		mp_WndListener->OnTabSelChange(2);

  01f43	6a 02		 push	 2
  01f45	8b 4d fc	 mov	 ecx, DWORD PTR _this$[ebp]
  01f48	8b 91 e0 00 00
	00		 mov	 edx, DWORD PTR [ecx+224]
  01f4e	8b 45 fc	 mov	 eax, DWORD PTR _this$[ebp]
  01f51	8b 88 e0 00 00
	00		 mov	 ecx, DWORD PTR [eax+224]
  01f57	8b 12		 mov	 edx, DWORD PTR [edx]
  01f59	ff 52 08	 call	 DWORD PTR [edx+8]
$L202865:

; 420  : 	}
; 421  : }

  01f5c	8b e5		 mov	 esp, ebp
  01f5e	5d		 pop	 ebp
  01f5f	c3		 ret	 0
?OnBtnWebSub@CMainSkinWnd@@QAEXXZ ENDP			; CMainSkinWnd::OnBtnWebSub
_TEXT	ENDS
PUBLIC	?SetCheckBtn@CMainSkinWnd@@QAEXH@Z		; CMainSkinWnd::SetCheckBtn
; Function compile flags: /Odt
_TEXT	SEGMENT
tv64 = -8						; size = 4
_this$ = -4						; size = 4
_ibtn$ = 8						; size = 4
?SetCheckBtn@CMainSkinWnd@@QAEXH@Z PROC NEAR		; CMainSkinWnd::SetCheckBtn
; _this$ = ecx

; 424  : {

  01f60	55		 push	 ebp
  01f61	8b ec		 mov	 ebp, esp
  01f63	83 ec 08	 sub	 esp, 8
  01f66	89 4d fc	 mov	 DWORD PTR _this$[ebp], ecx

; 425  : 	switch (ibtn)

  01f69	8b 45 08	 mov	 eax, DWORD PTR _ibtn$[ebp]
  01f6c	89 45 f8	 mov	 DWORD PTR tv64[ebp], eax
  01f6f	83 7d f8 00	 cmp	 DWORD PTR tv64[ebp], 0
  01f73	74 11		 je	 SHORT $L202875
  01f75	83 7d f8 01	 cmp	 DWORD PTR tv64[ebp], 1
  01f79	74 3d		 je	 SHORT $L202876
  01f7b	83 7d f8 02	 cmp	 DWORD PTR tv64[ebp], 2
  01f7f	74 69		 je	 SHORT $L202877
  01f81	e9 94 00 00 00	 jmp	 $L202870
$L202875:

; 426  : 	{
; 427  : 		case 0:
; 428  : 			m_btnSkin.SetCheck(0);

  01f86	6a 00		 push	 0
  01f88	8b 4d fc	 mov	 ecx, DWORD PTR _this$[ebp]
  01f8b	81 c1 18 02 00
	00		 add	 ecx, 536		; 00000218H
  01f91	e8 00 00 00 00	 call	 ?SetCheck@CButton@@QAEXH@Z ; CButton::SetCheck

; 429  : 			m_btnSub.SetCheck(1);

  01f96	6a 01		 push	 1
  01f98	8b 4d fc	 mov	 ecx, DWORD PTR _this$[ebp]
  01f9b	81 c1 3c 03 00
	00		 add	 ecx, 828		; 0000033cH
  01fa1	e8 00 00 00 00	 call	 ?SetCheck@CButton@@QAEXH@Z ; CButton::SetCheck

; 430  : 			m_btnWebSub.SetCheck(0);

  01fa6	6a 00		 push	 0
  01fa8	8b 4d fc	 mov	 ecx, DWORD PTR _this$[ebp]
  01fab	81 c1 60 04 00
	00		 add	 ecx, 1120		; 00000460H
  01fb1	e8 00 00 00 00	 call	 ?SetCheck@CButton@@QAEXH@Z ; CButton::SetCheck

; 431  : 			break;

  01fb6	eb 62		 jmp	 SHORT $L202870
$L202876:

; 432  : 		case 1:
; 433  : 			m_btnSkin.SetCheck(1);

  01fb8	6a 01		 push	 1
  01fba	8b 4d fc	 mov	 ecx, DWORD PTR _this$[ebp]
  01fbd	81 c1 18 02 00
	00		 add	 ecx, 536		; 00000218H
  01fc3	e8 00 00 00 00	 call	 ?SetCheck@CButton@@QAEXH@Z ; CButton::SetCheck

; 434  : 			m_btnSub.SetCheck(0);

  01fc8	6a 00		 push	 0
  01fca	8b 4d fc	 mov	 ecx, DWORD PTR _this$[ebp]
  01fcd	81 c1 3c 03 00
	00		 add	 ecx, 828		; 0000033cH
  01fd3	e8 00 00 00 00	 call	 ?SetCheck@CButton@@QAEXH@Z ; CButton::SetCheck

; 435  : 			m_btnWebSub.SetCheck(0);

  01fd8	6a 00		 push	 0
  01fda	8b 4d fc	 mov	 ecx, DWORD PTR _this$[ebp]
  01fdd	81 c1 60 04 00
	00		 add	 ecx, 1120		; 00000460H
  01fe3	e8 00 00 00 00	 call	 ?SetCheck@CButton@@QAEXH@Z ; CButton::SetCheck

; 436  : 			break;

  01fe8	eb 30		 jmp	 SHORT $L202870
$L202877:

; 437  : 		case 2:
; 438  : 			m_btnSkin.SetCheck(0);

  01fea	6a 00		 push	 0
  01fec	8b 4d fc	 mov	 ecx, DWORD PTR _this$[ebp]
  01fef	81 c1 18 02 00
	00		 add	 ecx, 536		; 00000218H
  01ff5	e8 00 00 00 00	 call	 ?SetCheck@CButton@@QAEXH@Z ; CButton::SetCheck

; 439  : 			m_btnSub.SetCheck(0);

  01ffa	6a 00		 push	 0
  01ffc	8b 4d fc	 mov	 ecx, DWORD PTR _this$[ebp]
  01fff	81 c1 3c 03 00
	00		 add	 ecx, 828		; 0000033cH
  02005	e8 00 00 00 00	 call	 ?SetCheck@CButton@@QAEXH@Z ; CButton::SetCheck

; 440  : 			m_btnWebSub.SetCheck(1);

  0200a	6a 01		 push	 1
  0200c	8b 4d fc	 mov	 ecx, DWORD PTR _this$[ebp]
  0200f	81 c1 60 04 00
	00		 add	 ecx, 1120		; 00000460H
  02015	e8 00 00 00 00	 call	 ?SetCheck@CButton@@QAEXH@Z ; CButton::SetCheck
$L202870:

; 441  : 			break;
; 442  : 	}
; 443  : }

  0201a	8b e5		 mov	 esp, ebp
  0201c	5d		 pop	 ebp
  0201d	c2 04 00	 ret	 4
?SetCheckBtn@CMainSkinWnd@@QAEXH@Z ENDP			; CMainSkinWnd::SetCheckBtn
_TEXT	ENDS
PUBLIC	?OnLButtonDown@CWnd@@IAEXIVCPoint@@@Z		; CWnd::OnLButtonDown
PUBLIC	?PostMessageA@CWnd@@QAEHIIJ@Z			; CWnd::PostMessageA
; Function compile flags: /Odt
_TEXT	SEGMENT
_this$ = -4						; size = 4
_nFlags$ = 8						; size = 4
_point$ = 12						; size = 8
?OnLButtonDown@CMainSkinWnd@@QAEXIVCPoint@@@Z PROC NEAR	; CMainSkinWnd::OnLButtonDown
; _this$ = ecx

; 445  : {

  02020	55		 push	 ebp
  02021	8b ec		 mov	 ebp, esp
  02023	51		 push	 ecx
  02024	89 4d fc	 mov	 DWORD PTR _this$[ebp], ecx

; 446  : 	PostMessage( WM_NCLBUTTONDOWN, HTCAPTION, (LPARAM)&point );	

  02027	8d 45 0c	 lea	 eax, DWORD PTR _point$[ebp]
  0202a	50		 push	 eax
  0202b	6a 02		 push	 2
  0202d	68 a1 00 00 00	 push	 161			; 000000a1H
  02032	8b 4d fc	 mov	 ecx, DWORD PTR _this$[ebp]
  02035	e8 00 00 00 00	 call	 ?PostMessageA@CWnd@@QAEHIIJ@Z ; CWnd::PostMessageA

; 447  : 	CFrameWnd::OnLButtonDown(nFlags, point);

  0203a	8b 4d 10	 mov	 ecx, DWORD PTR _point$[ebp+4]
  0203d	51		 push	 ecx
  0203e	8b 55 0c	 mov	 edx, DWORD PTR _point$[ebp]
  02041	52		 push	 edx
  02042	8b 45 08	 mov	 eax, DWORD PTR _nFlags$[ebp]
  02045	50		 push	 eax
  02046	8b 4d fc	 mov	 ecx, DWORD PTR _this$[ebp]
  02049	e8 00 00 00 00	 call	 ?OnLButtonDown@CWnd@@IAEXIVCPoint@@@Z ; CWnd::OnLButtonDown

; 448  : }

  0204e	8b e5		 mov	 esp, ebp
  02050	5d		 pop	 ebp
  02051	c2 0c 00	 ret	 12			; 0000000cH
?OnLButtonDown@CMainSkinWnd@@QAEXIVCPoint@@@Z ENDP	; CMainSkinWnd::OnLButtonDown
_TEXT	ENDS
PUBLIC	?ShowColorBtn@CMainSkinWnd@@QAEXH@Z		; CMainSkinWnd::ShowColorBtn
; Function compile flags: /Odt
_TEXT	SEGMENT
_this$ = -8						; size = 4
_i$202888 = -4						; size = 4
_bShow$ = 8						; size = 4
?ShowColorBtn@CMainSkinWnd@@QAEXH@Z PROC NEAR		; CMainSkinWnd::ShowColorBtn
; _this$ = ecx

; 452  : {

  02060	55		 push	 ebp
  02061	8b ec		 mov	 ebp, esp
  02063	83 ec 08	 sub	 esp, 8
  02066	89 4d f8	 mov	 DWORD PTR _this$[ebp], ecx

; 453  : 	for( int i=0; i<m_colbtnVec.size(); i++ )

  02069	c7 45 fc 00 00
	00 00		 mov	 DWORD PTR _i$202888[ebp], 0
  02070	eb 09		 jmp	 SHORT $L202889
$L202890:
  02072	8b 45 fc	 mov	 eax, DWORD PTR _i$202888[ebp]
  02075	83 c0 01	 add	 eax, 1
  02078	89 45 fc	 mov	 DWORD PTR _i$202888[ebp], eax
$L202889:
  0207b	8b 4d f8	 mov	 ecx, DWORD PTR _this$[ebp]
  0207e	81 c1 e4 00 00
	00		 add	 ecx, 228		; 000000e4H
  02084	e8 00 00 00 00	 call	 ?size@?$vector@PAVCSkinButton2@@V?$allocator@PAVCSkinButton2@@@std@@@std@@QBEIXZ ; std::vector<CSkinButton2 *,std::allocator<CSkinButton2 *> >::size
  02089	39 45 fc	 cmp	 DWORD PTR _i$202888[ebp], eax
  0208c	73 26		 jae	 SHORT $L202891

; 454  : 	{		
; 455  : 		m_colbtnVec[i]->ShowWindow( bShow ? SW_SHOW:SW_HIDE );

  0208e	8b 4d 08	 mov	 ecx, DWORD PTR _bShow$[ebp]
  02091	f7 d9		 neg	 ecx
  02093	1b c9		 sbb	 ecx, ecx
  02095	83 e1 05	 and	 ecx, 5
  02098	51		 push	 ecx
  02099	8b 55 fc	 mov	 edx, DWORD PTR _i$202888[ebp]
  0209c	52		 push	 edx
  0209d	8b 4d f8	 mov	 ecx, DWORD PTR _this$[ebp]
  020a0	81 c1 e4 00 00
	00		 add	 ecx, 228		; 000000e4H
  020a6	e8 00 00 00 00	 call	 ??A?$vector@PAVCSkinButton2@@V?$allocator@PAVCSkinButton2@@@std@@@std@@QAEAAPAVCSkinButton2@@I@Z ; std::vector<CSkinButton2 *,std::allocator<CSkinButton2 *> >::operator[]
  020ab	8b 08		 mov	 ecx, DWORD PTR [eax]
  020ad	e8 00 00 00 00	 call	 ?ShowWindow@CWnd@@QAEHH@Z ; CWnd::ShowWindow

; 456  : 	}

  020b2	eb be		 jmp	 SHORT $L202890
$L202891:

; 457  : 
; 458  : //	m_colBtnMore.ShowWindow( bShow ? SW_SHOW : SW_HIDE );
; 459  : 	m_btnMoreColr.ShowWindow( bShow ? SW_SHOW : SW_HIDE );

  020b4	8b 45 08	 mov	 eax, DWORD PTR _bShow$[ebp]
  020b7	f7 d8		 neg	 eax
  020b9	1b c0		 sbb	 eax, eax
  020bb	83 e0 05	 and	 eax, 5
  020be	50		 push	 eax
  020bf	8b 4d f8	 mov	 ecx, DWORD PTR _this$[ebp]
  020c2	81 c1 84 05 00
	00		 add	 ecx, 1412		; 00000584H
  020c8	e8 00 00 00 00	 call	 ?ShowWindow@CWnd@@QAEHH@Z ; CWnd::ShowWindow

; 460  : 	m_btnDownMore.ShowWindow( bShow ? SW_SHOW : SW_HIDE );

  020cd	8b 4d 08	 mov	 ecx, DWORD PTR _bShow$[ebp]
  020d0	f7 d9		 neg	 ecx
  020d2	1b c9		 sbb	 ecx, ecx
  020d4	83 e1 05	 and	 ecx, 5
  020d7	51		 push	 ecx
  020d8	8b 4d f8	 mov	 ecx, DWORD PTR _this$[ebp]
  020db	81 c1 a8 06 00
	00		 add	 ecx, 1704		; 000006a8H
  020e1	e8 00 00 00 00	 call	 ?ShowWindow@CWnd@@QAEHH@Z ; CWnd::ShowWindow

; 461  : }

  020e6	8b e5		 mov	 esp, ebp
  020e8	5d		 pop	 ebp
  020e9	c2 04 00	 ret	 4
?ShowColorBtn@CMainSkinWnd@@QAEXH@Z ENDP		; CMainSkinWnd::ShowColorBtn
_TEXT	ENDS
EXTRN	__imp_?GetLength@?$CSimpleStringT@D$00@ATL@@QBEHXZ:NEAR
EXTRN	__imp_?GetManager@?$CSimpleStringT@D$00@ATL@@QBEPAUIAtlStringMgr@2@XZ:NEAR
EXTRN	__imp_?Concatenate@?$CSimpleStringT@D$00@ATL@@KAXAAV12@PBDH1H@Z:NEAR
EXTRN	__imp_??0?$CStringT@DV?$StrTraitMFC_DLL@DV?$ChTraitsCRT@D@ATL@@@@@ATL@@QAE@PAUIAtlStringMgr@1@@Z:NEAR
;	COMDAT xdata$x
; File d:\program files (x86)\microsoft visual studio .net 2003\vc7\atlmfc\include\cstringt.h
xdata$x	SEGMENT
$T204899 DD	0ffffffffH
	DD	FLAT:$L204892
$T204897 DD	019930520H
	DD	01H
	DD	FLAT:$T204899
	DD	2 DUP(00H)
	DD	2 DUP(00H)
; Function compile flags: /Odt
xdata$x	ENDS
;	COMDAT ??HATL@@YA?AV?$CStringT@DV?$StrTraitMFC_DLL@DV?$ChTraitsCRT@D@ATL@@@@@0@ABV10@0@Z
_TEXT	SEGMENT
$T204894 = -20						; size = 4
_strResult$ = -16					; size = 4
__$EHRec$ = -12						; size = 12
___$ReturnUdt$ = 8					; size = 4
_str1$ = 12						; size = 4
_str2$ = 16						; size = 4
??HATL@@YA?AV?$CStringT@DV?$StrTraitMFC_DLL@DV?$ChTraitsCRT@D@ATL@@@@@0@ABV10@0@Z PROC NEAR ; ATL::operator+, COMDAT

; 2014 : 	{

  00000	55		 push	 ebp
  00001	8b ec		 mov	 ebp, esp
  00003	6a ff		 push	 -1
  00005	68 00 00 00 00	 push	 __ehhandler$??HATL@@YA?AV?$CStringT@DV?$StrTraitMFC_DLL@DV?$ChTraitsCRT@D@ATL@@@@@0@ABV10@0@Z
  0000a	64 a1 00 00 00
	00		 mov	 eax, DWORD PTR fs:__except_list
  00010	50		 push	 eax
  00011	64 89 25 00 00
	00 00		 mov	 DWORD PTR fs:__except_list, esp
  00018	83 ec 08	 sub	 esp, 8
  0001b	c7 45 ec 00 00
	00 00		 mov	 DWORD PTR $T204894[ebp], 0

; 2015 : 		CStringT strResult( str1.GetManager() );

  00022	8b 4d 0c	 mov	 ecx, DWORD PTR _str1$[ebp]
  00025	ff 15 00 00 00
	00		 call	 DWORD PTR __imp_?GetManager@?$CSimpleStringT@D$00@ATL@@QBEPAUIAtlStringMgr@2@XZ
  0002b	50		 push	 eax
  0002c	8d 4d f0	 lea	 ecx, DWORD PTR _strResult$[ebp]
  0002f	ff 15 00 00 00
	00		 call	 DWORD PTR __imp_??0?$CStringT@DV?$StrTraitMFC_DLL@DV?$ChTraitsCRT@D@ATL@@@@@ATL@@QAE@PAUIAtlStringMgr@1@@Z
  00035	c7 45 fc 00 00
	00 00		 mov	 DWORD PTR __$EHRec$[ebp+8], 0

; 2016 : 
; 2017 : 		Concatenate( strResult, str1, str1.GetLength(), str2, str2.GetLength() );

  0003c	8b 4d 10	 mov	 ecx, DWORD PTR _str2$[ebp]
  0003f	ff 15 00 00 00
	00		 call	 DWORD PTR __imp_?GetLength@?$CSimpleStringT@D$00@ATL@@QBEHXZ
  00045	50		 push	 eax
  00046	8b 4d 10	 mov	 ecx, DWORD PTR _str2$[ebp]
  00049	ff 15 00 00 00
	00		 call	 DWORD PTR __imp_??B?$CSimpleStringT@D$00@ATL@@QBEPBDXZ
  0004f	50		 push	 eax
  00050	8b 4d 0c	 mov	 ecx, DWORD PTR _str1$[ebp]
  00053	ff 15 00 00 00
	00		 call	 DWORD PTR __imp_?GetLength@?$CSimpleStringT@D$00@ATL@@QBEHXZ
  00059	50		 push	 eax
  0005a	8b 4d 0c	 mov	 ecx, DWORD PTR _str1$[ebp]
  0005d	ff 15 00 00 00
	00		 call	 DWORD PTR __imp_??B?$CSimpleStringT@D$00@ATL@@QBEPBDXZ
  00063	50		 push	 eax
  00064	8d 45 f0	 lea	 eax, DWORD PTR _strResult$[ebp]
  00067	50		 push	 eax
  00068	ff 15 00 00 00
	00		 call	 DWORD PTR __imp_?Concatenate@?$CSimpleStringT@D$00@ATL@@KAXAAV12@PBDH1H@Z
  0006e	83 c4 14	 add	 esp, 20			; 00000014H

; 2018 : 
; 2019 : 		return( strResult );

  00071	8d 4d f0	 lea	 ecx, DWORD PTR _strResult$[ebp]
  00074	51		 push	 ecx
  00075	8b 4d 08	 mov	 ecx, DWORD PTR ___$ReturnUdt$[ebp]
  00078	ff 15 00 00 00
	00		 call	 DWORD PTR __imp_??0?$CStringT@DV?$StrTraitMFC_DLL@DV?$ChTraitsCRT@D@ATL@@@@@ATL@@QAE@ABV01@@Z
  0007e	8b 55 ec	 mov	 edx, DWORD PTR $T204894[ebp]
  00081	83 ca 01	 or	 edx, 1
  00084	89 55 ec	 mov	 DWORD PTR $T204894[ebp], edx
  00087	c7 45 fc ff ff
	ff ff		 mov	 DWORD PTR __$EHRec$[ebp+8], -1
  0008e	8d 4d f0	 lea	 ecx, DWORD PTR _strResult$[ebp]
  00091	ff 15 00 00 00
	00		 call	 DWORD PTR __imp_??1?$CStringT@DV?$StrTraitMFC_DLL@DV?$ChTraitsCRT@D@ATL@@@@@ATL@@QAE@XZ
  00097	8b 45 08	 mov	 eax, DWORD PTR ___$ReturnUdt$[ebp]

; 2020 : 	}

  0009a	8b 4d f4	 mov	 ecx, DWORD PTR __$EHRec$[ebp]
  0009d	64 89 0d 00 00
	00 00		 mov	 DWORD PTR fs:__except_list, ecx
  000a4	8b e5		 mov	 esp, ebp
  000a6	5d		 pop	 ebp
  000a7	c3		 ret	 0
_TEXT	ENDS
;	COMDAT text$x
text$x	SEGMENT
$L204892:
  00000	8d 4d f0	 lea	 ecx, DWORD PTR _strResult$[ebp]
  00003	ff 25 00 00 00
	00		 jmp	 DWORD PTR __imp_??1?$CStringT@DV?$StrTraitMFC_DLL@DV?$ChTraitsCRT@D@ATL@@@@@ATL@@QAE@XZ
__ehhandler$??HATL@@YA?AV?$CStringT@DV?$StrTraitMFC_DLL@DV?$ChTraitsCRT@D@ATL@@@@@0@ABV10@0@Z:
  00009	b8 00 00 00 00	 mov	 eax, OFFSET FLAT:$T204897
  0000e	e9 00 00 00 00	 jmp	 ___CxxFrameHandler
text$x	ENDS
??HATL@@YA?AV?$CStringT@DV?$StrTraitMFC_DLL@DV?$ChTraitsCRT@D@ATL@@@@@0@ABV10@0@Z ENDP ; ATL::operator+
EXTRN	__imp_?StringLength@?$CSimpleStringT@D$00@ATL@@SAHPBD@Z:NEAR
;	COMDAT xdata$x
xdata$x	SEGMENT
$T204911 DD	0ffffffffH
	DD	FLAT:$L204904
$T204909 DD	019930520H
	DD	01H
	DD	FLAT:$T204911
	DD	2 DUP(00H)
	DD	2 DUP(00H)
; Function compile flags: /Odt
xdata$x	ENDS
;	COMDAT ??HATL@@YA?AV?$CStringT@DV?$StrTraitMFC_DLL@DV?$ChTraitsCRT@D@ATL@@@@@0@ABV10@PBD@Z
_TEXT	SEGMENT
$T204906 = -20						; size = 4
_strResult$ = -16					; size = 4
__$EHRec$ = -12						; size = 12
___$ReturnUdt$ = 8					; size = 4
_str1$ = 12						; size = 4
_psz2$ = 16						; size = 4
??HATL@@YA?AV?$CStringT@DV?$StrTraitMFC_DLL@DV?$ChTraitsCRT@D@ATL@@@@@0@ABV10@PBD@Z PROC NEAR ; ATL::operator+, COMDAT

; 2023 : 	{

  00000	55		 push	 ebp
  00001	8b ec		 mov	 ebp, esp
  00003	6a ff		 push	 -1
  00005	68 00 00 00 00	 push	 __ehhandler$??HATL@@YA?AV?$CStringT@DV?$StrTraitMFC_DLL@DV?$ChTraitsCRT@D@ATL@@@@@0@ABV10@PBD@Z
  0000a	64 a1 00 00 00
	00		 mov	 eax, DWORD PTR fs:__except_list
  00010	50		 push	 eax
  00011	64 89 25 00 00
	00 00		 mov	 DWORD PTR fs:__except_list, esp
  00018	83 ec 08	 sub	 esp, 8
  0001b	c7 45 ec 00 00
	00 00		 mov	 DWORD PTR $T204906[ebp], 0

; 2024 : 		CStringT strResult( str1.GetManager() );

  00022	8b 4d 0c	 mov	 ecx, DWORD PTR _str1$[ebp]
  00025	ff 15 00 00 00
	00		 call	 DWORD PTR __imp_?GetManager@?$CSimpleStringT@D$00@ATL@@QBEPAUIAtlStringMgr@2@XZ
  0002b	50		 push	 eax
  0002c	8d 4d f0	 lea	 ecx, DWORD PTR _strResult$[ebp]
  0002f	ff 15 00 00 00
	00		 call	 DWORD PTR __imp_??0?$CStringT@DV?$StrTraitMFC_DLL@DV?$ChTraitsCRT@D@ATL@@@@@ATL@@QAE@PAUIAtlStringMgr@1@@Z
  00035	c7 45 fc 00 00
	00 00		 mov	 DWORD PTR __$EHRec$[ebp+8], 0

; 2025 : 
; 2026 : 		Concatenate( strResult, str1, str1.GetLength(), psz2, StringLength( psz2 ) );

  0003c	8b 45 10	 mov	 eax, DWORD PTR _psz2$[ebp]
  0003f	50		 push	 eax
  00040	ff 15 00 00 00
	00		 call	 DWORD PTR __imp_?StringLength@?$CSimpleStringT@D$00@ATL@@SAHPBD@Z
  00046	83 c4 04	 add	 esp, 4
  00049	50		 push	 eax
  0004a	8b 4d 10	 mov	 ecx, DWORD PTR _psz2$[ebp]
  0004d	51		 push	 ecx
  0004e	8b 4d 0c	 mov	 ecx, DWORD PTR _str1$[ebp]
  00051	ff 15 00 00 00
	00		 call	 DWORD PTR __imp_?GetLength@?$CSimpleStringT@D$00@ATL@@QBEHXZ
  00057	50		 push	 eax
  00058	8b 4d 0c	 mov	 ecx, DWORD PTR _str1$[ebp]
  0005b	ff 15 00 00 00
	00		 call	 DWORD PTR __imp_??B?$CSimpleStringT@D$00@ATL@@QBEPBDXZ
  00061	50		 push	 eax
  00062	8d 55 f0	 lea	 edx, DWORD PTR _strResult$[ebp]
  00065	52		 push	 edx
  00066	ff 15 00 00 00
	00		 call	 DWORD PTR __imp_?Concatenate@?$CSimpleStringT@D$00@ATL@@KAXAAV12@PBDH1H@Z
  0006c	83 c4 14	 add	 esp, 20			; 00000014H

; 2027 : 
; 2028 : 		return( strResult );

  0006f	8d 45 f0	 lea	 eax, DWORD PTR _strResult$[ebp]
  00072	50		 push	 eax
  00073	8b 4d 08	 mov	 ecx, DWORD PTR ___$ReturnUdt$[ebp]
  00076	ff 15 00 00 00
	00		 call	 DWORD PTR __imp_??0?$CStringT@DV?$StrTraitMFC_DLL@DV?$ChTraitsCRT@D@ATL@@@@@ATL@@QAE@ABV01@@Z
  0007c	8b 4d ec	 mov	 ecx, DWORD PTR $T204906[ebp]
  0007f	83 c9 01	 or	 ecx, 1
  00082	89 4d ec	 mov	 DWORD PTR $T204906[ebp], ecx
  00085	c7 45 fc ff ff
	ff ff		 mov	 DWORD PTR __$EHRec$[ebp+8], -1
  0008c	8d 4d f0	 lea	 ecx, DWORD PTR _strResult$[ebp]
  0008f	ff 15 00 00 00
	00		 call	 DWORD PTR __imp_??1?$CStringT@DV?$StrTraitMFC_DLL@DV?$ChTraitsCRT@D@ATL@@@@@ATL@@QAE@XZ
  00095	8b 45 08	 mov	 eax, DWORD PTR ___$ReturnUdt$[ebp]

; 2029 : 	}

  00098	8b 4d f4	 mov	 ecx, DWORD PTR __$EHRec$[ebp]
  0009b	64 89 0d 00 00
	00 00		 mov	 DWORD PTR fs:__except_list, ecx
  000a2	8b e5		 mov	 esp, ebp
  000a4	5d		 pop	 ebp
  000a5	c3		 ret	 0
_TEXT	ENDS
;	COMDAT text$x
text$x	SEGMENT
$L204904:
  00000	8d 4d f0	 lea	 ecx, DWORD PTR _strResult$[ebp]
  00003	ff 25 00 00 00
	00		 jmp	 DWORD PTR __imp_??1?$CStringT@DV?$StrTraitMFC_DLL@DV?$ChTraitsCRT@D@ATL@@@@@ATL@@QAE@XZ
__ehhandler$??HATL@@YA?AV?$CStringT@DV?$StrTraitMFC_DLL@DV?$ChTraitsCRT@D@ATL@@@@@0@ABV10@PBD@Z:
  00009	b8 00 00 00 00	 mov	 eax, OFFSET FLAT:$T204909
  0000e	e9 00 00 00 00	 jmp	 ___CxxFrameHandler
text$x	ENDS
??HATL@@YA?AV?$CStringT@DV?$StrTraitMFC_DLL@DV?$ChTraitsCRT@D@ATL@@@@@0@ABV10@PBD@Z ENDP ; ATL::operator+
PUBLIC	??0?$_Vector_val@PAVCSkinButton2@@V?$allocator@PAVCSkinButton2@@@std@@@std@@IAE@V?$allocator@PAVCSkinButton2@@@1@@Z ; std::_Vector_val<CSkinButton2 *,std::allocator<CSkinButton2 *> >::_Vector_val<CSkinButton2 *,std::allocator<CSkinButton2 *> >
PUBLIC	??0?$allocator@PAVCSkinButton2@@@std@@QAE@XZ	; std::allocator<CSkinButton2 *>::allocator<CSkinButton2 *>
PUBLIC	?_Buy@?$vector@PAVCSkinButton2@@V?$allocator@PAVCSkinButton2@@@std@@@std@@IAE_NI@Z ; std::vector<CSkinButton2 *,std::allocator<CSkinButton2 *> >::_Buy
; Function compile flags: /Odt
; File d:\program files (x86)\microsoft visual studio .net 2003\vc7\include\vector
;	COMDAT ??0?$vector@PAVCSkinButton2@@V?$allocator@PAVCSkinButton2@@@std@@@std@@QAE@XZ
_TEXT	SEGMENT
_this$ = -8						; size = 4
??0?$vector@PAVCSkinButton2@@V?$allocator@PAVCSkinButton2@@@std@@@std@@QAE@XZ PROC NEAR ; std::vector<CSkinButton2 *,std::allocator<CSkinButton2 *> >::vector<CSkinButton2 *,std::allocator<CSkinButton2 *> >, COMDAT
; _this$ = ecx

; 299  : 		{	// construct empty vector

  00000	55		 push	 ebp
  00001	8b ec		 mov	 ebp, esp
  00003	83 ec 08	 sub	 esp, 8
  00006	89 4d f8	 mov	 DWORD PTR _this$[ebp], ecx
  00009	51		 push	 ecx
  0000a	8b cc		 mov	 ecx, esp
  0000c	e8 00 00 00 00	 call	 ??0?$allocator@PAVCSkinButton2@@@std@@QAE@XZ ; std::allocator<CSkinButton2 *>::allocator<CSkinButton2 *>
  00011	8b 4d f8	 mov	 ecx, DWORD PTR _this$[ebp]
  00014	e8 00 00 00 00	 call	 ??0?$_Vector_val@PAVCSkinButton2@@V?$allocator@PAVCSkinButton2@@@std@@@std@@IAE@V?$allocator@PAVCSkinButton2@@@1@@Z ; std::_Vector_val<CSkinButton2 *,std::allocator<CSkinButton2 *> >::_Vector_val<CSkinButton2 *,std::allocator<CSkinButton2 *> >

; 300  : 		_Buy(0);

  00019	6a 00		 push	 0
  0001b	8b 4d f8	 mov	 ecx, DWORD PTR _this$[ebp]
  0001e	e8 00 00 00 00	 call	 ?_Buy@?$vector@PAVCSkinButton2@@V?$allocator@PAVCSkinButton2@@@std@@@std@@IAE_NI@Z ; std::vector<CSkinButton2 *,std::allocator<CSkinButton2 *> >::_Buy

; 301  : 		}

  00023	8b 45 f8	 mov	 eax, DWORD PTR _this$[ebp]
  00026	8b e5		 mov	 esp, ebp
  00028	5d		 pop	 ebp
  00029	c3		 ret	 0
??0?$vector@PAVCSkinButton2@@V?$allocator@PAVCSkinButton2@@@std@@@std@@QAE@XZ ENDP ; std::vector<CSkinButton2 *,std::allocator<CSkinButton2 *> >::vector<CSkinButton2 *,std::allocator<CSkinButton2 *> >
_TEXT	ENDS
PUBLIC	?_Tidy@?$vector@PAVCSkinButton2@@V?$allocator@PAVCSkinButton2@@@std@@@std@@IAEXXZ ; std::vector<CSkinButton2 *,std::allocator<CSkinButton2 *> >::_Tidy
; Function compile flags: /Odt
;	COMDAT ??1?$vector@PAVCSkinButton2@@V?$allocator@PAVCSkinButton2@@@std@@@std@@QAE@XZ
_TEXT	SEGMENT
_this$ = -4						; size = 4
??1?$vector@PAVCSkinButton2@@V?$allocator@PAVCSkinButton2@@@std@@@std@@QAE@XZ PROC NEAR ; std::vector<CSkinButton2 *,std::allocator<CSkinButton2 *> >::~vector<CSkinButton2 *,std::allocator<CSkinButton2 *> >, COMDAT
; _this$ = ecx

; 387  : 		{	// destroy the object

  00000	55		 push	 ebp
  00001	8b ec		 mov	 ebp, esp
  00003	51		 push	 ecx
  00004	89 4d fc	 mov	 DWORD PTR _this$[ebp], ecx

; 388  : 		_Tidy();

  00007	8b 4d fc	 mov	 ecx, DWORD PTR _this$[ebp]
  0000a	e8 00 00 00 00	 call	 ?_Tidy@?$vector@PAVCSkinButton2@@V?$allocator@PAVCSkinButton2@@@std@@@std@@IAEXXZ ; std::vector<CSkinButton2 *,std::allocator<CSkinButton2 *> >::_Tidy

; 389  : 		}

  0000f	8b e5		 mov	 esp, ebp
  00011	5d		 pop	 ebp
  00012	c3		 ret	 0
??1?$vector@PAVCSkinButton2@@V?$allocator@PAVCSkinButton2@@@std@@@std@@QAE@XZ ENDP ; std::vector<CSkinButton2 *,std::allocator<CSkinButton2 *> >::~vector<CSkinButton2 *,std::allocator<CSkinButton2 *> >
_TEXT	ENDS
PUBLIC	??0iterator@?$vector@PAVCSkinButton2@@V?$allocator@PAVCSkinButton2@@@std@@@std@@QAE@PAPAVCSkinButton2@@@Z ; std::vector<CSkinButton2 *,std::allocator<CSkinButton2 *> >::iterator::iterator
; Function compile flags: /Odt
;	COMDAT ?begin@?$vector@PAVCSkinButton2@@V?$allocator@PAVCSkinButton2@@@std@@@std@@QAE?AViterator@12@XZ
_TEXT	SEGMENT
_this$ = -4						; size = 4
___$ReturnUdt$ = 8					; size = 4
?begin@?$vector@PAVCSkinButton2@@V?$allocator@PAVCSkinButton2@@@std@@@std@@QAE?AViterator@12@XZ PROC NEAR ; std::vector<CSkinButton2 *,std::allocator<CSkinButton2 *> >::begin, COMDAT
; _this$ = ecx

; 462  : 		{	// return iterator for beginning of mutable sequence

  00000	55		 push	 ebp
  00001	8b ec		 mov	 ebp, esp
  00003	51		 push	 ecx
  00004	89 4d fc	 mov	 DWORD PTR _this$[ebp], ecx

; 463  : 		return (iterator(_Myfirst));

  00007	8b 45 fc	 mov	 eax, DWORD PTR _this$[ebp]
  0000a	8b 48 04	 mov	 ecx, DWORD PTR [eax+4]
  0000d	51		 push	 ecx
  0000e	8b 4d 08	 mov	 ecx, DWORD PTR ___$ReturnUdt$[ebp]
  00011	e8 00 00 00 00	 call	 ??0iterator@?$vector@PAVCSkinButton2@@V?$allocator@PAVCSkinButton2@@@std@@@std@@QAE@PAPAVCSkinButton2@@@Z ; std::vector<CSkinButton2 *,std::allocator<CSkinButton2 *> >::iterator::iterator
  00016	8b 45 08	 mov	 eax, DWORD PTR ___$ReturnUdt$[ebp]

; 464  : 		}

  00019	8b e5		 mov	 esp, ebp
  0001b	5d		 pop	 ebp
  0001c	c2 04 00	 ret	 4
?begin@?$vector@PAVCSkinButton2@@V?$allocator@PAVCSkinButton2@@@std@@@std@@QAE?AViterator@12@XZ ENDP ; std::vector<CSkinButton2 *,std::allocator<CSkinButton2 *> >::begin
; Function compile flags: /Odt
_TEXT	ENDS
;	COMDAT ?end@?$vector@PAVCSkinButton2@@V?$allocator@PAVCSkinButton2@@@std@@@std@@QAE?AViterator@12@XZ
_TEXT	SEGMENT
_this$ = -4						; size = 4
___$ReturnUdt$ = 8					; size = 4
?end@?$vector@PAVCSkinButton2@@V?$allocator@PAVCSkinButton2@@@std@@@std@@QAE?AViterator@12@XZ PROC NEAR ; std::vector<CSkinButton2 *,std::allocator<CSkinButton2 *> >::end, COMDAT
; _this$ = ecx

; 472  : 		{	// return iterator for end of mutable sequence

  00000	55		 push	 ebp
  00001	8b ec		 mov	 ebp, esp
  00003	51		 push	 ecx
  00004	89 4d fc	 mov	 DWORD PTR _this$[ebp], ecx

; 473  : 		return (iterator(_Mylast));

  00007	8b 45 fc	 mov	 eax, DWORD PTR _this$[ebp]
  0000a	8b 48 08	 mov	 ecx, DWORD PTR [eax+8]
  0000d	51		 push	 ecx
  0000e	8b 4d 08	 mov	 ecx, DWORD PTR ___$ReturnUdt$[ebp]
  00011	e8 00 00 00 00	 call	 ??0iterator@?$vector@PAVCSkinButton2@@V?$allocator@PAVCSkinButton2@@@std@@@std@@QAE@PAPAVCSkinButton2@@@Z ; std::vector<CSkinButton2 *,std::allocator<CSkinButton2 *> >::iterator::iterator
  00016	8b 45 08	 mov	 eax, DWORD PTR ___$ReturnUdt$[ebp]

; 474  : 		}

  00019	8b e5		 mov	 esp, ebp
  0001b	5d		 pop	 ebp
  0001c	c2 04 00	 ret	 4
?end@?$vector@PAVCSkinButton2@@V?$allocator@PAVCSkinButton2@@@std@@@std@@QAE?AViterator@12@XZ ENDP ; std::vector<CSkinButton2 *,std::allocator<CSkinButton2 *> >::end
; Function compile flags: /Odt
_TEXT	ENDS
;	COMDAT ?size@?$vector@PAVCSkinButton2@@V?$allocator@PAVCSkinButton2@@@std@@@std@@QBEIXZ
_TEXT	SEGMENT
tv70 = -8						; size = 4
_this$ = -4						; size = 4
?size@?$vector@PAVCSkinButton2@@V?$allocator@PAVCSkinButton2@@@std@@@std@@QBEIXZ PROC NEAR ; std::vector<CSkinButton2 *,std::allocator<CSkinButton2 *> >::size, COMDAT
; _this$ = ecx

; 515  : 		{	// return length of sequence

  00000	55		 push	 ebp
  00001	8b ec		 mov	 ebp, esp
  00003	83 ec 08	 sub	 esp, 8
  00006	89 4d fc	 mov	 DWORD PTR _this$[ebp], ecx

; 516  : 		return (_Myfirst == 0 ? 0 : _Mylast - _Myfirst);

  00009	8b 45 fc	 mov	 eax, DWORD PTR _this$[ebp]
  0000c	83 78 04 00	 cmp	 DWORD PTR [eax+4], 0
  00010	75 09		 jne	 SHORT $L204925
  00012	c7 45 f8 00 00
	00 00		 mov	 DWORD PTR tv70[ebp], 0
  00019	eb 12		 jmp	 SHORT $L204926
$L204925:
  0001b	8b 4d fc	 mov	 ecx, DWORD PTR _this$[ebp]
  0001e	8b 55 fc	 mov	 edx, DWORD PTR _this$[ebp]
  00021	8b 41 08	 mov	 eax, DWORD PTR [ecx+8]
  00024	2b 42 04	 sub	 eax, DWORD PTR [edx+4]
  00027	c1 f8 02	 sar	 eax, 2
  0002a	89 45 f8	 mov	 DWORD PTR tv70[ebp], eax
$L204926:
  0002d	8b 45 f8	 mov	 eax, DWORD PTR tv70[ebp]

; 517  : 		}

  00030	8b e5		 mov	 esp, ebp
  00032	5d		 pop	 ebp
  00033	c3		 ret	 0
?size@?$vector@PAVCSkinButton2@@V?$allocator@PAVCSkinButton2@@@std@@@std@@QBEIXZ ENDP ; std::vector<CSkinButton2 *,std::allocator<CSkinButton2 *> >::size
_TEXT	ENDS
PUBLIC	??Hiterator@?$vector@PAVCSkinButton2@@V?$allocator@PAVCSkinButton2@@@std@@@std@@QBE?AV012@H@Z ; std::vector<CSkinButton2 *,std::allocator<CSkinButton2 *> >::iterator::operator+
; Function compile flags: /Odt
;	COMDAT ??A?$vector@PAVCSkinButton2@@V?$allocator@PAVCSkinButton2@@@std@@@std@@QAEAAPAVCSkinButton2@@I@Z
_TEXT	SEGMENT
_this$ = -12						; size = 4
$T204930 = -8						; size = 4
$T204929 = -4						; size = 4
__Pos$ = 8						; size = 4
??A?$vector@PAVCSkinButton2@@V?$allocator@PAVCSkinButton2@@@std@@@std@@QAEAAPAVCSkinButton2@@I@Z PROC NEAR ; std::vector<CSkinButton2 *,std::allocator<CSkinButton2 *> >::operator[], COMDAT
; _this$ = ecx

; 554  : 		{	// subscript mutable sequence

  00000	55		 push	 ebp
  00001	8b ec		 mov	 ebp, esp
  00003	83 ec 0c	 sub	 esp, 12			; 0000000cH
  00006	89 4d f4	 mov	 DWORD PTR _this$[ebp], ecx

; 555  : 		return (*(begin() + _Pos));

  00009	8b 45 08	 mov	 eax, DWORD PTR __Pos$[ebp]
  0000c	50		 push	 eax
  0000d	8d 4d f8	 lea	 ecx, DWORD PTR $T204930[ebp]
  00010	51		 push	 ecx
  00011	8d 55 fc	 lea	 edx, DWORD PTR $T204929[ebp]
  00014	52		 push	 edx
  00015	8b 4d f4	 mov	 ecx, DWORD PTR _this$[ebp]
  00018	e8 00 00 00 00	 call	 ?begin@?$vector@PAVCSkinButton2@@V?$allocator@PAVCSkinButton2@@@std@@@std@@QAE?AViterator@12@XZ ; std::vector<CSkinButton2 *,std::allocator<CSkinButton2 *> >::begin
  0001d	8b c8		 mov	 ecx, eax
  0001f	e8 00 00 00 00	 call	 ??Hiterator@?$vector@PAVCSkinButton2@@V?$allocator@PAVCSkinButton2@@@std@@@std@@QBE?AV012@H@Z ; std::vector<CSkinButton2 *,std::allocator<CSkinButton2 *> >::iterator::operator+
  00024	8b c8		 mov	 ecx, eax
  00026	e8 00 00 00 00	 call	 ??Diterator@?$vector@PAVCSkinButton2@@V?$allocator@PAVCSkinButton2@@@std@@@std@@QBEAAPAVCSkinButton2@@XZ ; std::vector<CSkinButton2 *,std::allocator<CSkinButton2 *> >::iterator::operator*

; 556  : 		}

  0002b	8b e5		 mov	 esp, ebp
  0002d	5d		 pop	 ebp
  0002e	c2 04 00	 ret	 4
??A?$vector@PAVCSkinButton2@@V?$allocator@PAVCSkinButton2@@@std@@@std@@QAEAAPAVCSkinButton2@@I@Z ENDP ; std::vector<CSkinButton2 *,std::allocator<CSkinButton2 *> >::operator[]
_TEXT	ENDS
PUBLIC	?capacity@?$vector@PAVCSkinButton2@@V?$allocator@PAVCSkinButton2@@@std@@@std@@QBEIXZ ; std::vector<CSkinButton2 *,std::allocator<CSkinButton2 *> >::capacity
PUBLIC	?insert@?$vector@PAVCSkinButton2@@V?$allocator@PAVCSkinButton2@@@std@@@std@@QAE?AViterator@12@V312@ABQAVCSkinButton2@@@Z ; std::vector<CSkinButton2 *,std::allocator<CSkinButton2 *> >::insert
PUBLIC	?_Ufill@?$vector@PAVCSkinButton2@@V?$allocator@PAVCSkinButton2@@@std@@@std@@IAEPAPAVCSkinButton2@@PAPAV3@IABQAV3@@Z ; std::vector<CSkinButton2 *,std::allocator<CSkinButton2 *> >::_Ufill
; Function compile flags: /Odt
;	COMDAT ?push_back@?$vector@PAVCSkinButton2@@V?$allocator@PAVCSkinButton2@@@std@@@std@@QAEXABQAVCSkinButton2@@@Z
_TEXT	SEGMENT
_this$ = -12						; size = 4
$T204934 = -8						; size = 4
$T204933 = -4						; size = 4
__Val$ = 8						; size = 4
?push_back@?$vector@PAVCSkinButton2@@V?$allocator@PAVCSkinButton2@@@std@@@std@@QAEXABQAVCSkinButton2@@@Z PROC NEAR ; std::vector<CSkinButton2 *,std::allocator<CSkinButton2 *> >::push_back, COMDAT
; _this$ = ecx

; 579  : 		{	// insert element at end

  00000	55		 push	 ebp
  00001	8b ec		 mov	 ebp, esp
  00003	83 ec 0c	 sub	 esp, 12			; 0000000cH
  00006	56		 push	 esi
  00007	89 4d f4	 mov	 DWORD PTR _this$[ebp], ecx

; 580  : 		if (size() < capacity())

  0000a	8b 4d f4	 mov	 ecx, DWORD PTR _this$[ebp]
  0000d	e8 00 00 00 00	 call	 ?size@?$vector@PAVCSkinButton2@@V?$allocator@PAVCSkinButton2@@@std@@@std@@QBEIXZ ; std::vector<CSkinButton2 *,std::allocator<CSkinButton2 *> >::size
  00012	8b f0		 mov	 esi, eax
  00014	8b 4d f4	 mov	 ecx, DWORD PTR _this$[ebp]
  00017	e8 00 00 00 00	 call	 ?capacity@?$vector@PAVCSkinButton2@@V?$allocator@PAVCSkinButton2@@@std@@@std@@QBEIXZ ; std::vector<CSkinButton2 *,std::allocator<CSkinButton2 *> >::capacity
  0001c	3b f0		 cmp	 esi, eax
  0001e	73 1d		 jae	 SHORT $L202982

; 581  : 			_Mylast = _Ufill(_Mylast, 1, _Val);

  00020	8b 45 08	 mov	 eax, DWORD PTR __Val$[ebp]
  00023	50		 push	 eax
  00024	6a 01		 push	 1
  00026	8b 4d f4	 mov	 ecx, DWORD PTR _this$[ebp]
  00029	8b 51 08	 mov	 edx, DWORD PTR [ecx+8]
  0002c	52		 push	 edx
  0002d	8b 4d f4	 mov	 ecx, DWORD PTR _this$[ebp]
  00030	e8 00 00 00 00	 call	 ?_Ufill@?$vector@PAVCSkinButton2@@V?$allocator@PAVCSkinButton2@@@std@@@std@@IAEPAPAVCSkinButton2@@PAPAV3@IABQAV3@@Z ; std::vector<CSkinButton2 *,std::allocator<CSkinButton2 *> >::_Ufill
  00035	8b 4d f4	 mov	 ecx, DWORD PTR _this$[ebp]
  00038	89 41 08	 mov	 DWORD PTR [ecx+8], eax

; 582  : 		else

  0003b	eb 1f		 jmp	 SHORT $L202981
$L202982:

; 583  : 			insert(end(), _Val);

  0003d	8b 55 08	 mov	 edx, DWORD PTR __Val$[ebp]
  00040	52		 push	 edx
  00041	8d 45 fc	 lea	 eax, DWORD PTR $T204933[ebp]
  00044	50		 push	 eax
  00045	8b 4d f4	 mov	 ecx, DWORD PTR _this$[ebp]
  00048	e8 00 00 00 00	 call	 ?end@?$vector@PAVCSkinButton2@@V?$allocator@PAVCSkinButton2@@@std@@@std@@QAE?AViterator@12@XZ ; std::vector<CSkinButton2 *,std::allocator<CSkinButton2 *> >::end
  0004d	8b 08		 mov	 ecx, DWORD PTR [eax]
  0004f	51		 push	 ecx
  00050	8d 55 f8	 lea	 edx, DWORD PTR $T204934[ebp]
  00053	52		 push	 edx
  00054	8b 4d f4	 mov	 ecx, DWORD PTR _this$[ebp]
  00057	e8 00 00 00 00	 call	 ?insert@?$vector@PAVCSkinButton2@@V?$allocator@PAVCSkinButton2@@@std@@@std@@QAE?AViterator@12@V312@ABQAVCSkinButton2@@@Z ; std::vector<CSkinButton2 *,std::allocator<CSkinButton2 *> >::insert
$L202981:

; 584  : 		}

  0005c	5e		 pop	 esi
  0005d	8b e5		 mov	 esp, ebp
  0005f	5d		 pop	 ebp
  00060	c2 04 00	 ret	 4
?push_back@?$vector@PAVCSkinButton2@@V?$allocator@PAVCSkinButton2@@@std@@@std@@QAEXABQAVCSkinButton2@@@Z ENDP ; std::vector<CSkinButton2 *,std::allocator<CSkinButton2 *> >::push_back
; Function compile flags: /Odt
_TEXT	ENDS
;	COMDAT ?clear@?$vector@PAVCSkinButton2@@V?$allocator@PAVCSkinButton2@@@std@@@std@@QAEXXZ
_TEXT	SEGMENT
_this$ = -4						; size = 4
?clear@?$vector@PAVCSkinButton2@@V?$allocator@PAVCSkinButton2@@@std@@@std@@QAEXXZ PROC NEAR ; std::vector<CSkinButton2 *,std::allocator<CSkinButton2 *> >::clear, COMDAT
; _this$ = ecx

; 743  : 		{	// erase all

  00000	55		 push	 ebp
  00001	8b ec		 mov	 ebp, esp
  00003	51		 push	 ecx
  00004	89 4d fc	 mov	 DWORD PTR _this$[ebp], ecx

; 744  : 		_Tidy();

  00007	8b 4d fc	 mov	 ecx, DWORD PTR _this$[ebp]
  0000a	e8 00 00 00 00	 call	 ?_Tidy@?$vector@PAVCSkinButton2@@V?$allocator@PAVCSkinButton2@@@std@@@std@@IAEXXZ ; std::vector<CSkinButton2 *,std::allocator<CSkinButton2 *> >::_Tidy

; 745  : 		}

  0000f	8b e5		 mov	 esp, ebp
  00011	5d		 pop	 ebp
  00012	c3		 ret	 0
?clear@?$vector@PAVCSkinButton2@@V?$allocator@PAVCSkinButton2@@@std@@@std@@QAEXXZ ENDP ; std::vector<CSkinButton2 *,std::allocator<CSkinButton2 *> >::clear
_TEXT	ENDS
PUBLIC	??Dconst_iterator@?$vector@PAVCSkinButton2@@V?$allocator@PAVCSkinButton2@@@std@@@std@@QBEABQAVCSkinButton2@@XZ ; std::vector<CSkinButton2 *,std::allocator<CSkinButton2 *> >::const_iterator::operator*
; Function compile flags: /Odt
;	COMDAT ??Diterator@?$vector@PAVCSkinButton2@@V?$allocator@PAVCSkinButton2@@@std@@@std@@QBEAAPAVCSkinButton2@@XZ
_TEXT	SEGMENT
_this$ = -4						; size = 4
??Diterator@?$vector@PAVCSkinButton2@@V?$allocator@PAVCSkinButton2@@@std@@@std@@QBEAAPAVCSkinButton2@@XZ PROC NEAR ; std::vector<CSkinButton2 *,std::allocator<CSkinButton2 *> >::iterator::operator*, COMDAT
; _this$ = ecx

; 219  : 			{	// return designated object

  00000	55		 push	 ebp
  00001	8b ec		 mov	 ebp, esp
  00003	51		 push	 ecx
  00004	89 4d fc	 mov	 DWORD PTR _this$[ebp], ecx

; 220  : 			return ((reference)**(const_iterator *)this);

  00007	8b 4d fc	 mov	 ecx, DWORD PTR _this$[ebp]
  0000a	e8 00 00 00 00	 call	 ??Dconst_iterator@?$vector@PAVCSkinButton2@@V?$allocator@PAVCSkinButton2@@@std@@@std@@QBEABQAVCSkinButton2@@XZ ; std::vector<CSkinButton2 *,std::allocator<CSkinButton2 *> >::const_iterator::operator*

; 221  : 			}

  0000f	8b e5		 mov	 esp, ebp
  00011	5d		 pop	 ebp
  00012	c3		 ret	 0
??Diterator@?$vector@PAVCSkinButton2@@V?$allocator@PAVCSkinButton2@@@std@@@std@@QBEAAPAVCSkinButton2@@XZ ENDP ; std::vector<CSkinButton2 *,std::allocator<CSkinButton2 *> >::iterator::operator*
_TEXT	ENDS
PUBLIC	??Eiterator@?$vector@PAVCSkinButton2@@V?$allocator@PAVCSkinButton2@@@std@@@std@@QAEAAV012@XZ ; std::vector<CSkinButton2 *,std::allocator<CSkinButton2 *> >::iterator::operator++
; Function compile flags: /Odt
;	COMDAT ??Eiterator@?$vector@PAVCSkinButton2@@V?$allocator@PAVCSkinButton2@@@std@@@std@@QAE?AV012@H@Z
_TEXT	SEGMENT
_this$ = -8						; size = 4
__Tmp$ = -4						; size = 4
___$ReturnUdt$ = 8					; size = 4
___formal$ = 12						; size = 4
??Eiterator@?$vector@PAVCSkinButton2@@V?$allocator@PAVCSkinButton2@@@std@@@std@@QAE?AV012@H@Z PROC NEAR ; std::vector<CSkinButton2 *,std::allocator<CSkinButton2 *> >::iterator::operator++, COMDAT
; _this$ = ecx

; 235  : 			{	// postincrement

  00000	55		 push	 ebp
  00001	8b ec		 mov	 ebp, esp
  00003	83 ec 08	 sub	 esp, 8
  00006	89 4d f8	 mov	 DWORD PTR _this$[ebp], ecx

; 236  : 			iterator _Tmp = *this;

  00009	8b 45 f8	 mov	 eax, DWORD PTR _this$[ebp]
  0000c	8b 08		 mov	 ecx, DWORD PTR [eax]
  0000e	89 4d fc	 mov	 DWORD PTR __Tmp$[ebp], ecx

; 237  : 			++*this;

  00011	8b 4d f8	 mov	 ecx, DWORD PTR _this$[ebp]
  00014	e8 00 00 00 00	 call	 ??Eiterator@?$vector@PAVCSkinButton2@@V?$allocator@PAVCSkinButton2@@@std@@@std@@QAEAAV012@XZ ; std::vector<CSkinButton2 *,std::allocator<CSkinButton2 *> >::iterator::operator++

; 238  : 			return (_Tmp);

  00019	8b 55 08	 mov	 edx, DWORD PTR ___$ReturnUdt$[ebp]
  0001c	8b 45 fc	 mov	 eax, DWORD PTR __Tmp$[ebp]
  0001f	89 02		 mov	 DWORD PTR [edx], eax
  00021	8b 45 08	 mov	 eax, DWORD PTR ___$ReturnUdt$[ebp]

; 239  : 			}

  00024	8b e5		 mov	 esp, ebp
  00026	5d		 pop	 ebp
  00027	c2 08 00	 ret	 8
??Eiterator@?$vector@PAVCSkinButton2@@V?$allocator@PAVCSkinButton2@@@std@@@std@@QAE?AV012@H@Z ENDP ; std::vector<CSkinButton2 *,std::allocator<CSkinButton2 *> >::iterator::operator++
_TEXT	ENDS
PUBLIC	??8const_iterator@?$vector@PAVCSkinButton2@@V?$allocator@PAVCSkinButton2@@@std@@@std@@QBE_NABV012@@Z ; std::vector<CSkinButton2 *,std::allocator<CSkinButton2 *> >::const_iterator::operator==
; Function compile flags: /Odt
;	COMDAT ??9const_iterator@?$vector@PAVCSkinButton2@@V?$allocator@PAVCSkinButton2@@@std@@@std@@QBE_NABV012@@Z
_TEXT	SEGMENT
_this$ = -4						; size = 4
__Right$ = 8						; size = 4
??9const_iterator@?$vector@PAVCSkinButton2@@V?$allocator@PAVCSkinButton2@@@std@@@std@@QBE_NABV012@@Z PROC NEAR ; std::vector<CSkinButton2 *,std::allocator<CSkinButton2 *> >::const_iterator::operator!=, COMDAT
; _this$ = ecx

; 159  : 			{	// test for iterator inequality

  00000	55		 push	 ebp
  00001	8b ec		 mov	 ebp, esp
  00003	51		 push	 ecx
  00004	89 4d fc	 mov	 DWORD PTR _this$[ebp], ecx

; 160  : 			return (!(*this == _Right));

  00007	8b 45 08	 mov	 eax, DWORD PTR __Right$[ebp]
  0000a	50		 push	 eax
  0000b	8b 4d fc	 mov	 ecx, DWORD PTR _this$[ebp]
  0000e	e8 00 00 00 00	 call	 ??8const_iterator@?$vector@PAVCSkinButton2@@V?$allocator@PAVCSkinButton2@@@std@@@std@@QBE_NABV012@@Z ; std::vector<CSkinButton2 *,std::allocator<CSkinButton2 *> >::const_iterator::operator==
  00013	0f b6 c0	 movzx	 eax, al
  00016	f7 d8		 neg	 eax
  00018	1b c0		 sbb	 eax, eax
  0001a	40		 inc	 eax

; 161  : 			}

  0001b	8b e5		 mov	 esp, ebp
  0001d	5d		 pop	 ebp
  0001e	c2 04 00	 ret	 4
??9const_iterator@?$vector@PAVCSkinButton2@@V?$allocator@PAVCSkinButton2@@@std@@@std@@QBE_NABV012@@Z ENDP ; std::vector<CSkinButton2 *,std::allocator<CSkinButton2 *> >::const_iterator::operator!=
_TEXT	ENDS
PUBLIC	??0?$_Vector_val@KV?$allocator@K@std@@@std@@IAE@V?$allocator@K@1@@Z ; std::_Vector_val<unsigned long,std::allocator<unsigned long> >::_Vector_val<unsigned long,std::allocator<unsigned long> >
PUBLIC	??0?$allocator@K@std@@QAE@XZ			; std::allocator<unsigned long>::allocator<unsigned long>
PUBLIC	?_Buy@?$vector@KV?$allocator@K@std@@@std@@IAE_NI@Z ; std::vector<unsigned long,std::allocator<unsigned long> >::_Buy
; Function compile flags: /Odt
;	COMDAT ??0?$vector@KV?$allocator@K@std@@@std@@QAE@XZ
_TEXT	SEGMENT
_this$ = -8						; size = 4
??0?$vector@KV?$allocator@K@std@@@std@@QAE@XZ PROC NEAR	; std::vector<unsigned long,std::allocator<unsigned long> >::vector<unsigned long,std::allocator<unsigned long> >, COMDAT
; _this$ = ecx

; 299  : 		{	// construct empty vector

  00000	55		 push	 ebp
  00001	8b ec		 mov	 ebp, esp
  00003	83 ec 08	 sub	 esp, 8
  00006	89 4d f8	 mov	 DWORD PTR _this$[ebp], ecx
  00009	51		 push	 ecx
  0000a	8b cc		 mov	 ecx, esp
  0000c	e8 00 00 00 00	 call	 ??0?$allocator@K@std@@QAE@XZ ; std::allocator<unsigned long>::allocator<unsigned long>
  00011	8b 4d f8	 mov	 ecx, DWORD PTR _this$[ebp]
  00014	e8 00 00 00 00	 call	 ??0?$_Vector_val@KV?$allocator@K@std@@@std@@IAE@V?$allocator@K@1@@Z ; std::_Vector_val<unsigned long,std::allocator<unsigned long> >::_Vector_val<unsigned long,std::allocator<unsigned long> >

; 300  : 		_Buy(0);

  00019	6a 00		 push	 0
  0001b	8b 4d f8	 mov	 ecx, DWORD PTR _this$[ebp]
  0001e	e8 00 00 00 00	 call	 ?_Buy@?$vector@KV?$allocator@K@std@@@std@@IAE_NI@Z ; std::vector<unsigned long,std::allocator<unsigned long> >::_Buy

; 301  : 		}

  00023	8b 45 f8	 mov	 eax, DWORD PTR _this$[ebp]
  00026	8b e5		 mov	 esp, ebp
  00028	5d		 pop	 ebp
  00029	c3		 ret	 0
??0?$vector@KV?$allocator@K@std@@@std@@QAE@XZ ENDP	; std::vector<unsigned long,std::allocator<unsigned long> >::vector<unsigned long,std::allocator<unsigned long> >
_TEXT	ENDS
PUBLIC	?_Tidy@?$vector@KV?$allocator@K@std@@@std@@IAEXXZ ; std::vector<unsigned long,std::allocator<unsigned long> >::_Tidy
; Function compile flags: /Odt
;	COMDAT ??1?$vector@KV?$allocator@K@std@@@std@@QAE@XZ
_TEXT	SEGMENT
_this$ = -4						; size = 4
??1?$vector@KV?$allocator@K@std@@@std@@QAE@XZ PROC NEAR	; std::vector<unsigned long,std::allocator<unsigned long> >::~vector<unsigned long,std::allocator<unsigned long> >, COMDAT
; _this$ = ecx

; 387  : 		{	// destroy the object

  00000	55		 push	 ebp
  00001	8b ec		 mov	 ebp, esp
  00003	51		 push	 ecx
  00004	89 4d fc	 mov	 DWORD PTR _this$[ebp], ecx

; 388  : 		_Tidy();

  00007	8b 4d fc	 mov	 ecx, DWORD PTR _this$[ebp]
  0000a	e8 00 00 00 00	 call	 ?_Tidy@?$vector@KV?$allocator@K@std@@@std@@IAEXXZ ; std::vector<unsigned long,std::allocator<unsigned long> >::_Tidy

; 389  : 		}

  0000f	8b e5		 mov	 esp, ebp
  00011	5d		 pop	 ebp
  00012	c3		 ret	 0
??1?$vector@KV?$allocator@K@std@@@std@@QAE@XZ ENDP	; std::vector<unsigned long,std::allocator<unsigned long> >::~vector<unsigned long,std::allocator<unsigned long> >
_TEXT	ENDS
PUBLIC	??Diterator@?$vector@KV?$allocator@K@std@@@std@@QBEAAKXZ ; std::vector<unsigned long,std::allocator<unsigned long> >::iterator::operator*
PUBLIC	??Hiterator@?$vector@KV?$allocator@K@std@@@std@@QBE?AV012@H@Z ; std::vector<unsigned long,std::allocator<unsigned long> >::iterator::operator+
PUBLIC	?begin@?$vector@KV?$allocator@K@std@@@std@@QAE?AViterator@12@XZ ; std::vector<unsigned long,std::allocator<unsigned long> >::begin
; Function compile flags: /Odt
;	COMDAT ??A?$vector@KV?$allocator@K@std@@@std@@QAEAAKI@Z
_TEXT	SEGMENT
_this$ = -12						; size = 4
$T204951 = -8						; size = 4
$T204950 = -4						; size = 4
__Pos$ = 8						; size = 4
??A?$vector@KV?$allocator@K@std@@@std@@QAEAAKI@Z PROC NEAR ; std::vector<unsigned long,std::allocator<unsigned long> >::operator[], COMDAT
; _this$ = ecx

; 554  : 		{	// subscript mutable sequence

  00000	55		 push	 ebp
  00001	8b ec		 mov	 ebp, esp
  00003	83 ec 0c	 sub	 esp, 12			; 0000000cH
  00006	89 4d f4	 mov	 DWORD PTR _this$[ebp], ecx

; 555  : 		return (*(begin() + _Pos));

  00009	8b 45 08	 mov	 eax, DWORD PTR __Pos$[ebp]
  0000c	50		 push	 eax
  0000d	8d 4d f8	 lea	 ecx, DWORD PTR $T204951[ebp]
  00010	51		 push	 ecx
  00011	8d 55 fc	 lea	 edx, DWORD PTR $T204950[ebp]
  00014	52		 push	 edx
  00015	8b 4d f4	 mov	 ecx, DWORD PTR _this$[ebp]
  00018	e8 00 00 00 00	 call	 ?begin@?$vector@KV?$allocator@K@std@@@std@@QAE?AViterator@12@XZ ; std::vector<unsigned long,std::allocator<unsigned long> >::begin
  0001d	8b c8		 mov	 ecx, eax
  0001f	e8 00 00 00 00	 call	 ??Hiterator@?$vector@KV?$allocator@K@std@@@std@@QBE?AV012@H@Z ; std::vector<unsigned long,std::allocator<unsigned long> >::iterator::operator+
  00024	8b c8		 mov	 ecx, eax
  00026	e8 00 00 00 00	 call	 ??Diterator@?$vector@KV?$allocator@K@std@@@std@@QBEAAKXZ ; std::vector<unsigned long,std::allocator<unsigned long> >::iterator::operator*

; 556  : 		}

  0002b	8b e5		 mov	 esp, ebp
  0002d	5d		 pop	 ebp
  0002e	c2 04 00	 ret	 4
??A?$vector@KV?$allocator@K@std@@@std@@QAEAAKI@Z ENDP	; std::vector<unsigned long,std::allocator<unsigned long> >::operator[]
_TEXT	ENDS
PUBLIC	?capacity@?$vector@KV?$allocator@K@std@@@std@@QBEIXZ ; std::vector<unsigned long,std::allocator<unsigned long> >::capacity
PUBLIC	?end@?$vector@KV?$allocator@K@std@@@std@@QAE?AViterator@12@XZ ; std::vector<unsigned long,std::allocator<unsigned long> >::end
PUBLIC	?size@?$vector@KV?$allocator@K@std@@@std@@QBEIXZ ; std::vector<unsigned long,std::allocator<unsigned long> >::size
PUBLIC	?insert@?$vector@KV?$allocator@K@std@@@std@@QAE?AViterator@12@V312@ABK@Z ; std::vector<unsigned long,std::allocator<unsigned long> >::insert
PUBLIC	?_Ufill@?$vector@KV?$allocator@K@std@@@std@@IAEPAKPAKIABK@Z ; std::vector<unsigned long,std::allocator<unsigned long> >::_Ufill
; Function compile flags: /Odt
;	COMDAT ?push_back@?$vector@KV?$allocator@K@std@@@std@@QAEXABK@Z
_TEXT	SEGMENT
_this$ = -12						; size = 4
$T204955 = -8						; size = 4
$T204954 = -4						; size = 4
__Val$ = 8						; size = 4
?push_back@?$vector@KV?$allocator@K@std@@@std@@QAEXABK@Z PROC NEAR ; std::vector<unsigned long,std::allocator<unsigned long> >::push_back, COMDAT
; _this$ = ecx

; 579  : 		{	// insert element at end

  00000	55		 push	 ebp
  00001	8b ec		 mov	 ebp, esp
  00003	83 ec 0c	 sub	 esp, 12			; 0000000cH
  00006	56		 push	 esi
  00007	89 4d f4	 mov	 DWORD PTR _this$[ebp], ecx

; 580  : 		if (size() < capacity())

  0000a	8b 4d f4	 mov	 ecx, DWORD PTR _this$[ebp]
  0000d	e8 00 00 00 00	 call	 ?size@?$vector@KV?$allocator@K@std@@@std@@QBEIXZ ; std::vector<unsigned long,std::allocator<unsigned long> >::size
  00012	8b f0		 mov	 esi, eax
  00014	8b 4d f4	 mov	 ecx, DWORD PTR _this$[ebp]
  00017	e8 00 00 00 00	 call	 ?capacity@?$vector@KV?$allocator@K@std@@@std@@QBEIXZ ; std::vector<unsigned long,std::allocator<unsigned long> >::capacity
  0001c	3b f0		 cmp	 esi, eax
  0001e	73 1d		 jae	 SHORT $L203130

; 581  : 			_Mylast = _Ufill(_Mylast, 1, _Val);

  00020	8b 45 08	 mov	 eax, DWORD PTR __Val$[ebp]
  00023	50		 push	 eax
  00024	6a 01		 push	 1
  00026	8b 4d f4	 mov	 ecx, DWORD PTR _this$[ebp]
  00029	8b 51 08	 mov	 edx, DWORD PTR [ecx+8]
  0002c	52		 push	 edx
  0002d	8b 4d f4	 mov	 ecx, DWORD PTR _this$[ebp]
  00030	e8 00 00 00 00	 call	 ?_Ufill@?$vector@KV?$allocator@K@std@@@std@@IAEPAKPAKIABK@Z ; std::vector<unsigned long,std::allocator<unsigned long> >::_Ufill
  00035	8b 4d f4	 mov	 ecx, DWORD PTR _this$[ebp]
  00038	89 41 08	 mov	 DWORD PTR [ecx+8], eax

; 582  : 		else

  0003b	eb 1f		 jmp	 SHORT $L203129
$L203130:

; 583  : 			insert(end(), _Val);

  0003d	8b 55 08	 mov	 edx, DWORD PTR __Val$[ebp]
  00040	52		 push	 edx
  00041	8d 45 fc	 lea	 eax, DWORD PTR $T204954[ebp]
  00044	50		 push	 eax
  00045	8b 4d f4	 mov	 ecx, DWORD PTR _this$[ebp]
  00048	e8 00 00 00 00	 call	 ?end@?$vector@KV?$allocator@K@std@@@std@@QAE?AViterator@12@XZ ; std::vector<unsigned long,std::allocator<unsigned long> >::end
  0004d	8b 08		 mov	 ecx, DWORD PTR [eax]
  0004f	51		 push	 ecx
  00050	8d 55 f8	 lea	 edx, DWORD PTR $T204955[ebp]
  00053	52		 push	 edx
  00054	8b 4d f4	 mov	 ecx, DWORD PTR _this$[ebp]
  00057	e8 00 00 00 00	 call	 ?insert@?$vector@KV?$allocator@K@std@@@std@@QAE?AViterator@12@V312@ABK@Z ; std::vector<unsigned long,std::allocator<unsigned long> >::insert
$L203129:

; 584  : 		}

  0005c	5e		 pop	 esi
  0005d	8b e5		 mov	 esp, ebp
  0005f	5d		 pop	 ebp
  00060	c2 04 00	 ret	 4
?push_back@?$vector@KV?$allocator@K@std@@@std@@QAEXABK@Z ENDP ; std::vector<unsigned long,std::allocator<unsigned long> >::push_back
; Function compile flags: /Odt
_TEXT	ENDS
;	COMDAT ?capacity@?$vector@PAVCSkinButton2@@V?$allocator@PAVCSkinButton2@@@std@@@std@@QBEIXZ
_TEXT	SEGMENT
tv70 = -8						; size = 4
_this$ = -4						; size = 4
?capacity@?$vector@PAVCSkinButton2@@V?$allocator@PAVCSkinButton2@@@std@@@std@@QBEIXZ PROC NEAR ; std::vector<CSkinButton2 *,std::allocator<CSkinButton2 *> >::capacity, COMDAT
; _this$ = ecx

; 457  : 		{	// return current length of allocated storage

  00000	55		 push	 ebp
  00001	8b ec		 mov	 ebp, esp
  00003	83 ec 08	 sub	 esp, 8
  00006	89 4d fc	 mov	 DWORD PTR _this$[ebp], ecx

; 458  : 		return (_Myfirst == 0 ? 0 : _Myend - _Myfirst);

  00009	8b 45 fc	 mov	 eax, DWORD PTR _this$[ebp]
  0000c	83 78 04 00	 cmp	 DWORD PTR [eax+4], 0
  00010	75 09		 jne	 SHORT $L204958
  00012	c7 45 f8 00 00
	00 00		 mov	 DWORD PTR tv70[ebp], 0
  00019	eb 12		 jmp	 SHORT $L204959
$L204958:
  0001b	8b 4d fc	 mov	 ecx, DWORD PTR _this$[ebp]
  0001e	8b 55 fc	 mov	 edx, DWORD PTR _this$[ebp]
  00021	8b 41 0c	 mov	 eax, DWORD PTR [ecx+12]
  00024	2b 42 04	 sub	 eax, DWORD PTR [edx+4]
  00027	c1 f8 02	 sar	 eax, 2
  0002a	89 45 f8	 mov	 DWORD PTR tv70[ebp], eax
$L204959:
  0002d	8b 45 f8	 mov	 eax, DWORD PTR tv70[ebp]

; 459  : 		}

  00030	8b e5		 mov	 esp, ebp
  00032	5d		 pop	 ebp
  00033	c3		 ret	 0
?capacity@?$vector@PAVCSkinButton2@@V?$allocator@PAVCSkinButton2@@@std@@@std@@QBEIXZ ENDP ; std::vector<CSkinButton2 *,std::allocator<CSkinButton2 *> >::capacity
_TEXT	ENDS
PUBLIC	??Giterator@?$vector@PAVCSkinButton2@@V?$allocator@PAVCSkinButton2@@@std@@@std@@QBEHABVconst_iterator@12@@Z ; std::vector<CSkinButton2 *,std::allocator<CSkinButton2 *> >::iterator::operator-
PUBLIC	?_Insert_n@?$vector@PAVCSkinButton2@@V?$allocator@PAVCSkinButton2@@@std@@@std@@IAEXViterator@12@IABQAVCSkinButton2@@@Z ; std::vector<CSkinButton2 *,std::allocator<CSkinButton2 *> >::_Insert_n
; Function compile flags: /Odt
;	COMDAT ?insert@?$vector@PAVCSkinButton2@@V?$allocator@PAVCSkinButton2@@@std@@@std@@QAE?AViterator@12@V312@ABQAVCSkinButton2@@@Z
_TEXT	SEGMENT
tv73 = -20						; size = 4
_this$ = -16						; size = 4
$T204965 = -12						; size = 4
$T204962 = -8						; size = 4
__Off$ = -4						; size = 4
___$ReturnUdt$ = 8					; size = 4
__Where$ = 12						; size = 4
__Val$ = 16						; size = 4
?insert@?$vector@PAVCSkinButton2@@V?$allocator@PAVCSkinButton2@@@std@@@std@@QAE?AViterator@12@V312@ABQAVCSkinButton2@@@Z PROC NEAR ; std::vector<CSkinButton2 *,std::allocator<CSkinButton2 *> >::insert, COMDAT
; _this$ = ecx

; 620  : 		{	// insert _Val at _Where

  00000	55		 push	 ebp
  00001	8b ec		 mov	 ebp, esp
  00003	83 ec 14	 sub	 esp, 20			; 00000014H
  00006	89 4d f0	 mov	 DWORD PTR _this$[ebp], ecx

; 621  : 		size_type _Off = size() == 0 ? 0 : _Where - begin();

  00009	8b 4d f0	 mov	 ecx, DWORD PTR _this$[ebp]
  0000c	e8 00 00 00 00	 call	 ?size@?$vector@PAVCSkinButton2@@V?$allocator@PAVCSkinButton2@@@std@@@std@@QBEIXZ ; std::vector<CSkinButton2 *,std::allocator<CSkinButton2 *> >::size
  00011	85 c0		 test	 eax, eax
  00013	75 09		 jne	 SHORT $L204963
  00015	c7 45 ec 00 00
	00 00		 mov	 DWORD PTR tv73[ebp], 0
  0001c	eb 18		 jmp	 SHORT $L204964
$L204963:
  0001e	8d 45 f8	 lea	 eax, DWORD PTR $T204962[ebp]
  00021	50		 push	 eax
  00022	8b 4d f0	 mov	 ecx, DWORD PTR _this$[ebp]
  00025	e8 00 00 00 00	 call	 ?begin@?$vector@PAVCSkinButton2@@V?$allocator@PAVCSkinButton2@@@std@@@std@@QAE?AViterator@12@XZ ; std::vector<CSkinButton2 *,std::allocator<CSkinButton2 *> >::begin
  0002a	50		 push	 eax
  0002b	8d 4d 0c	 lea	 ecx, DWORD PTR __Where$[ebp]
  0002e	e8 00 00 00 00	 call	 ??Giterator@?$vector@PAVCSkinButton2@@V?$allocator@PAVCSkinButton2@@@std@@@std@@QBEHABVconst_iterator@12@@Z ; std::vector<CSkinButton2 *,std::allocator<CSkinButton2 *> >::iterator::operator-
  00033	89 45 ec	 mov	 DWORD PTR tv73[ebp], eax
$L204964:
  00036	8b 4d ec	 mov	 ecx, DWORD PTR tv73[ebp]
  00039	89 4d fc	 mov	 DWORD PTR __Off$[ebp], ecx

; 622  : 		_Insert_n(_Where, (size_type)1, _Val);

  0003c	8b 55 10	 mov	 edx, DWORD PTR __Val$[ebp]
  0003f	52		 push	 edx
  00040	6a 01		 push	 1
  00042	8b 45 0c	 mov	 eax, DWORD PTR __Where$[ebp]
  00045	50		 push	 eax
  00046	8b 4d f0	 mov	 ecx, DWORD PTR _this$[ebp]
  00049	e8 00 00 00 00	 call	 ?_Insert_n@?$vector@PAVCSkinButton2@@V?$allocator@PAVCSkinButton2@@@std@@@std@@IAEXViterator@12@IABQAVCSkinButton2@@@Z ; std::vector<CSkinButton2 *,std::allocator<CSkinButton2 *> >::_Insert_n

; 623  : 		return (begin() + _Off);

  0004e	8b 4d fc	 mov	 ecx, DWORD PTR __Off$[ebp]
  00051	51		 push	 ecx
  00052	8b 55 08	 mov	 edx, DWORD PTR ___$ReturnUdt$[ebp]
  00055	52		 push	 edx
  00056	8d 45 f4	 lea	 eax, DWORD PTR $T204965[ebp]
  00059	50		 push	 eax
  0005a	8b 4d f0	 mov	 ecx, DWORD PTR _this$[ebp]
  0005d	e8 00 00 00 00	 call	 ?begin@?$vector@PAVCSkinButton2@@V?$allocator@PAVCSkinButton2@@@std@@@std@@QAE?AViterator@12@XZ ; std::vector<CSkinButton2 *,std::allocator<CSkinButton2 *> >::begin
  00062	8b c8		 mov	 ecx, eax
  00064	e8 00 00 00 00	 call	 ??Hiterator@?$vector@PAVCSkinButton2@@V?$allocator@PAVCSkinButton2@@@std@@@std@@QBE?AV012@H@Z ; std::vector<CSkinButton2 *,std::allocator<CSkinButton2 *> >::iterator::operator+
  00069	8b 45 08	 mov	 eax, DWORD PTR ___$ReturnUdt$[ebp]

; 624  : 		}

  0006c	8b e5		 mov	 esp, ebp
  0006e	5d		 pop	 ebp
  0006f	c2 0c 00	 ret	 12			; 0000000cH
?insert@?$vector@PAVCSkinButton2@@V?$allocator@PAVCSkinButton2@@@std@@@std@@QAE?AViterator@12@V312@ABQAVCSkinButton2@@@Z ENDP ; std::vector<CSkinButton2 *,std::allocator<CSkinButton2 *> >::insert
_TEXT	ENDS
PUBLIC	?allocate@?$allocator@PAVCSkinButton2@@@std@@QAEPAPAVCSkinButton2@@I@Z ; std::allocator<CSkinButton2 *>::allocate
PUBLIC	?max_size@?$vector@PAVCSkinButton2@@V?$allocator@PAVCSkinButton2@@@std@@@std@@QBEIXZ ; std::vector<CSkinButton2 *,std::allocator<CSkinButton2 *> >::max_size
PUBLIC	?_Xlen@?$vector@PAVCSkinButton2@@V?$allocator@PAVCSkinButton2@@@std@@@std@@IBEXXZ ; std::vector<CSkinButton2 *,std::allocator<CSkinButton2 *> >::_Xlen
; Function compile flags: /Odt
;	COMDAT ?_Buy@?$vector@PAVCSkinButton2@@V?$allocator@PAVCSkinButton2@@@std@@@std@@IAE_NI@Z
_TEXT	SEGMENT
_this$ = -4						; size = 4
__Capacity$ = 8						; size = 4
?_Buy@?$vector@PAVCSkinButton2@@V?$allocator@PAVCSkinButton2@@@std@@@std@@IAE_NI@Z PROC NEAR ; std::vector<CSkinButton2 *,std::allocator<CSkinButton2 *> >::_Buy, COMDAT
; _this$ = ecx

; 770  : 		{	// allocate array with _Capacity elements

  00000	55		 push	 ebp
  00001	8b ec		 mov	 ebp, esp
  00003	51		 push	 ecx
  00004	89 4d fc	 mov	 DWORD PTR _this$[ebp], ecx

; 771  : 		_Myfirst = 0, _Mylast = 0, _Myend = 0;

  00007	8b 45 fc	 mov	 eax, DWORD PTR _this$[ebp]
  0000a	c7 40 04 00 00
	00 00		 mov	 DWORD PTR [eax+4], 0
  00011	8b 4d fc	 mov	 ecx, DWORD PTR _this$[ebp]
  00014	c7 41 08 00 00
	00 00		 mov	 DWORD PTR [ecx+8], 0
  0001b	8b 55 fc	 mov	 edx, DWORD PTR _this$[ebp]
  0001e	c7 42 0c 00 00
	00 00		 mov	 DWORD PTR [edx+12], 0

; 772  : 		if (_Capacity == 0)

  00025	83 7d 08 00	 cmp	 DWORD PTR __Capacity$[ebp], 0
  00029	75 04		 jne	 SHORT $L203177

; 773  : 			return (false);

  0002b	32 c0		 xor	 al, al
  0002d	eb 49		 jmp	 SHORT $L203176
$L203177:

; 774  : 		else if (max_size() < _Capacity)

  0002f	8b 4d fc	 mov	 ecx, DWORD PTR _this$[ebp]
  00032	e8 00 00 00 00	 call	 ?max_size@?$vector@PAVCSkinButton2@@V?$allocator@PAVCSkinButton2@@@std@@@std@@QBEIXZ ; std::vector<CSkinButton2 *,std::allocator<CSkinButton2 *> >::max_size
  00037	3b 45 08	 cmp	 eax, DWORD PTR __Capacity$[ebp]
  0003a	73 0a		 jae	 SHORT $L203179

; 775  : 			_Xlen();	// result too long

  0003c	8b 4d fc	 mov	 ecx, DWORD PTR _this$[ebp]
  0003f	e8 00 00 00 00	 call	 ?_Xlen@?$vector@PAVCSkinButton2@@V?$allocator@PAVCSkinButton2@@@std@@@std@@IBEXXZ ; std::vector<CSkinButton2 *,std::allocator<CSkinButton2 *> >::_Xlen

; 776  : 		else

  00044	eb 30		 jmp	 SHORT $L203178
$L203179:

; 777  : 			{	// nonempty array, allocate storage
; 778  : 			_Myfirst = this->_Alval.allocate(_Capacity);

  00046	8b 45 08	 mov	 eax, DWORD PTR __Capacity$[ebp]
  00049	50		 push	 eax
  0004a	8b 4d fc	 mov	 ecx, DWORD PTR _this$[ebp]
  0004d	e8 00 00 00 00	 call	 ?allocate@?$allocator@PAVCSkinButton2@@@std@@QAEPAPAVCSkinButton2@@I@Z ; std::allocator<CSkinButton2 *>::allocate
  00052	8b 4d fc	 mov	 ecx, DWORD PTR _this$[ebp]
  00055	89 41 04	 mov	 DWORD PTR [ecx+4], eax

; 779  : 			_Mylast = _Myfirst;

  00058	8b 55 fc	 mov	 edx, DWORD PTR _this$[ebp]
  0005b	8b 45 fc	 mov	 eax, DWORD PTR _this$[ebp]
  0005e	8b 48 04	 mov	 ecx, DWORD PTR [eax+4]
  00061	89 4a 08	 mov	 DWORD PTR [edx+8], ecx

; 780  : 			_Myend = _Myfirst + _Capacity;

  00064	8b 55 fc	 mov	 edx, DWORD PTR _this$[ebp]
  00067	8b 42 04	 mov	 eax, DWORD PTR [edx+4]
  0006a	8b 4d 08	 mov	 ecx, DWORD PTR __Capacity$[ebp]
  0006d	8d 14 88	 lea	 edx, DWORD PTR [eax+ecx*4]
  00070	8b 45 fc	 mov	 eax, DWORD PTR _this$[ebp]
  00073	89 50 0c	 mov	 DWORD PTR [eax+12], edx
$L203178:

; 781  : 			}
; 782  : 		return (true);

  00076	b0 01		 mov	 al, 1
$L203176:

; 783  : 		}

  00078	8b e5		 mov	 esp, ebp
  0007a	5d		 pop	 ebp
  0007b	c2 04 00	 ret	 4
?_Buy@?$vector@PAVCSkinButton2@@V?$allocator@PAVCSkinButton2@@@std@@@std@@IAE_NI@Z ENDP ; std::vector<CSkinButton2 *,std::allocator<CSkinButton2 *> >::_Buy
_TEXT	ENDS
PUBLIC	?deallocate@?$allocator@PAVCSkinButton2@@@std@@QAEXPAPAVCSkinButton2@@I@Z ; std::allocator<CSkinButton2 *>::deallocate
PUBLIC	?_Destroy@?$vector@PAVCSkinButton2@@V?$allocator@PAVCSkinButton2@@@std@@@std@@IAEXPAPAVCSkinButton2@@0@Z ; std::vector<CSkinButton2 *,std::allocator<CSkinButton2 *> >::_Destroy
; Function compile flags: /Odt
;	COMDAT ?_Tidy@?$vector@PAVCSkinButton2@@V?$allocator@PAVCSkinButton2@@@std@@@std@@IAEXXZ
_TEXT	SEGMENT
_this$ = -4						; size = 4
?_Tidy@?$vector@PAVCSkinButton2@@V?$allocator@PAVCSkinButton2@@@std@@@std@@IAEXXZ PROC NEAR ; std::vector<CSkinButton2 *,std::allocator<CSkinButton2 *> >::_Tidy, COMDAT
; _this$ = ecx

; 791  : 		{	// free all storage

  00000	55		 push	 ebp
  00001	8b ec		 mov	 ebp, esp
  00003	51		 push	 ecx
  00004	89 4d fc	 mov	 DWORD PTR _this$[ebp], ecx

; 792  : 		if (_Myfirst != 0)

  00007	8b 45 fc	 mov	 eax, DWORD PTR _this$[ebp]
  0000a	83 78 04 00	 cmp	 DWORD PTR [eax+4], 0
  0000e	74 35		 je	 SHORT $L203183

; 793  : 			{	// something to free, destroy and deallocate it
; 794  : 			_Destroy(_Myfirst, _Mylast);

  00010	8b 4d fc	 mov	 ecx, DWORD PTR _this$[ebp]
  00013	8b 51 08	 mov	 edx, DWORD PTR [ecx+8]
  00016	52		 push	 edx
  00017	8b 45 fc	 mov	 eax, DWORD PTR _this$[ebp]
  0001a	8b 48 04	 mov	 ecx, DWORD PTR [eax+4]
  0001d	51		 push	 ecx
  0001e	8b 4d fc	 mov	 ecx, DWORD PTR _this$[ebp]
  00021	e8 00 00 00 00	 call	 ?_Destroy@?$vector@PAVCSkinButton2@@V?$allocator@PAVCSkinButton2@@@std@@@std@@IAEXPAPAVCSkinButton2@@0@Z ; std::vector<CSkinButton2 *,std::allocator<CSkinButton2 *> >::_Destroy

; 795  : 			this->_Alval.deallocate(_Myfirst, _Myend - _Myfirst);

  00026	8b 55 fc	 mov	 edx, DWORD PTR _this$[ebp]
  00029	8b 45 fc	 mov	 eax, DWORD PTR _this$[ebp]
  0002c	8b 4a 0c	 mov	 ecx, DWORD PTR [edx+12]
  0002f	2b 48 04	 sub	 ecx, DWORD PTR [eax+4]
  00032	c1 f9 02	 sar	 ecx, 2
  00035	51		 push	 ecx
  00036	8b 55 fc	 mov	 edx, DWORD PTR _this$[ebp]
  00039	8b 42 04	 mov	 eax, DWORD PTR [edx+4]
  0003c	50		 push	 eax
  0003d	8b 4d fc	 mov	 ecx, DWORD PTR _this$[ebp]
  00040	e8 00 00 00 00	 call	 ?deallocate@?$allocator@PAVCSkinButton2@@@std@@QAEXPAPAVCSkinButton2@@I@Z ; std::allocator<CSkinButton2 *>::deallocate
$L203183:

; 796  : 			}
; 797  : 		_Myfirst = 0, _Mylast = 0, _Myend = 0;

  00045	8b 4d fc	 mov	 ecx, DWORD PTR _this$[ebp]
  00048	c7 41 04 00 00
	00 00		 mov	 DWORD PTR [ecx+4], 0
  0004f	8b 55 fc	 mov	 edx, DWORD PTR _this$[ebp]
  00052	c7 42 08 00 00
	00 00		 mov	 DWORD PTR [edx+8], 0
  00059	8b 45 fc	 mov	 eax, DWORD PTR _this$[ebp]
  0005c	c7 40 0c 00 00
	00 00		 mov	 DWORD PTR [eax+12], 0

; 798  : 		}

  00063	8b e5		 mov	 esp, ebp
  00065	5d		 pop	 ebp
  00066	c3		 ret	 0
?_Tidy@?$vector@PAVCSkinButton2@@V?$allocator@PAVCSkinButton2@@@std@@@std@@IAEXXZ ENDP ; std::vector<CSkinButton2 *,std::allocator<CSkinButton2 *> >::_Tidy
_TEXT	ENDS
PUBLIC	??$_Uninitialized_fill_n@PAPAVCSkinButton2@@IPAV1@V?$allocator@PAVCSkinButton2@@@std@@@std@@YAXPAPAVCSkinButton2@@IABQAV1@AAV?$allocator@PAVCSkinButton2@@@0@@Z ; std::_Uninitialized_fill_n<CSkinButton2 * *,unsigned int,CSkinButton2 *,std::allocator<CSkinButton2 *> >
; Function compile flags: /Odt
;	COMDAT ?_Ufill@?$vector@PAVCSkinButton2@@V?$allocator@PAVCSkinButton2@@@std@@@std@@IAEPAPAVCSkinButton2@@PAPAV3@IABQAV3@@Z
_TEXT	SEGMENT
_this$ = -4						; size = 4
__Ptr$ = 8						; size = 4
__Count$ = 12						; size = 4
__Val$ = 16						; size = 4
?_Ufill@?$vector@PAVCSkinButton2@@V?$allocator@PAVCSkinButton2@@@std@@@std@@IAEPAPAVCSkinButton2@@PAPAV3@IABQAV3@@Z PROC NEAR ; std::vector<CSkinButton2 *,std::allocator<CSkinButton2 *> >::_Ufill, COMDAT
; _this$ = ecx

; 877  : 		{	// copy initializing _Count * _Val, using allocator

  00000	55		 push	 ebp
  00001	8b ec		 mov	 ebp, esp
  00003	51		 push	 ecx
  00004	89 4d fc	 mov	 DWORD PTR _this$[ebp], ecx

; 878  : 		_Uninitialized_fill_n(_Ptr, _Count, _Val, this->_Alval);

  00007	8b 45 fc	 mov	 eax, DWORD PTR _this$[ebp]
  0000a	50		 push	 eax
  0000b	8b 4d 10	 mov	 ecx, DWORD PTR __Val$[ebp]
  0000e	51		 push	 ecx
  0000f	8b 55 0c	 mov	 edx, DWORD PTR __Count$[ebp]
  00012	52		 push	 edx
  00013	8b 45 08	 mov	 eax, DWORD PTR __Ptr$[ebp]
  00016	50		 push	 eax
  00017	e8 00 00 00 00	 call	 ??$_Uninitialized_fill_n@PAPAVCSkinButton2@@IPAV1@V?$allocator@PAVCSkinButton2@@@std@@@std@@YAXPAPAVCSkinButton2@@IABQAV1@AAV?$allocator@PAVCSkinButton2@@@0@@Z ; std::_Uninitialized_fill_n<CSkinButton2 * *,unsigned int,CSkinButton2 *,std::allocator<CSkinButton2 *> >
  0001c	83 c4 10	 add	 esp, 16			; 00000010H

; 879  : 		return (_Ptr + _Count);

  0001f	8b 4d 0c	 mov	 ecx, DWORD PTR __Count$[ebp]
  00022	8b 55 08	 mov	 edx, DWORD PTR __Ptr$[ebp]
  00025	8d 04 8a	 lea	 eax, DWORD PTR [edx+ecx*4]

; 880  : 		}

  00028	8b e5		 mov	 esp, ebp
  0002a	5d		 pop	 ebp
  0002b	c2 0c 00	 ret	 12			; 0000000cH
?_Ufill@?$vector@PAVCSkinButton2@@V?$allocator@PAVCSkinButton2@@@std@@@std@@IAEPAPAVCSkinButton2@@PAPAV3@IABQAV3@@Z ENDP ; std::vector<CSkinButton2 *,std::allocator<CSkinButton2 *> >::_Ufill
_TEXT	ENDS
PUBLIC	??0?$allocator@PAVCSkinButton2@@@std@@QAE@ABV01@@Z ; std::allocator<CSkinButton2 *>::allocator<CSkinButton2 *>
; Function compile flags: /Odt
;	COMDAT ??0?$_Vector_val@PAVCSkinButton2@@V?$allocator@PAVCSkinButton2@@@std@@@std@@IAE@V?$allocator@PAVCSkinButton2@@@1@@Z
_TEXT	SEGMENT
_this$ = -4						; size = 4
__Al$ = 8						; size = 1
??0?$_Vector_val@PAVCSkinButton2@@V?$allocator@PAVCSkinButton2@@@std@@@std@@IAE@V?$allocator@PAVCSkinButton2@@@1@@Z PROC NEAR ; std::_Vector_val<CSkinButton2 *,std::allocator<CSkinButton2 *> >::_Vector_val<CSkinButton2 *,std::allocator<CSkinButton2 *> >, COMDAT
; _this$ = ecx

; 21   : 		{	// construct allocator from _Al

  00000	55		 push	 ebp
  00001	8b ec		 mov	 ebp, esp
  00003	51		 push	 ecx
  00004	89 4d fc	 mov	 DWORD PTR _this$[ebp], ecx
  00007	8d 45 08	 lea	 eax, DWORD PTR __Al$[ebp]
  0000a	50		 push	 eax
  0000b	8b 4d fc	 mov	 ecx, DWORD PTR _this$[ebp]
  0000e	e8 00 00 00 00	 call	 ??0?$allocator@PAVCSkinButton2@@@std@@QAE@ABV01@@Z ; std::allocator<CSkinButton2 *>::allocator<CSkinButton2 *>

; 22   : 		}

  00013	8b 45 fc	 mov	 eax, DWORD PTR _this$[ebp]
  00016	8b e5		 mov	 esp, ebp
  00018	5d		 pop	 ebp
  00019	c2 04 00	 ret	 4
??0?$_Vector_val@PAVCSkinButton2@@V?$allocator@PAVCSkinButton2@@@std@@@std@@IAE@V?$allocator@PAVCSkinButton2@@@1@@Z ENDP ; std::_Vector_val<CSkinButton2 *,std::allocator<CSkinButton2 *> >::_Vector_val<CSkinButton2 *,std::allocator<CSkinButton2 *> >
; Function compile flags: /Odt
; File d:\program files (x86)\microsoft visual studio .net 2003\vc7\include\xmemory
_TEXT	ENDS
;	COMDAT ??0?$allocator@PAVCSkinButton2@@@std@@QAE@XZ
_TEXT	SEGMENT
_this$ = -4						; size = 4
??0?$allocator@PAVCSkinButton2@@@std@@QAE@XZ PROC NEAR	; std::allocator<CSkinButton2 *>::allocator<CSkinButton2 *>, COMDAT
; _this$ = ecx

; 111  : 	allocator()

  00000	55		 push	 ebp
  00001	8b ec		 mov	 ebp, esp
  00003	51		 push	 ecx
  00004	89 4d fc	 mov	 DWORD PTR _this$[ebp], ecx

; 112  : 		{	// construct default allocator (do nothing)
; 113  : 		}

  00007	8b 45 fc	 mov	 eax, DWORD PTR _this$[ebp]
  0000a	8b e5		 mov	 esp, ebp
  0000c	5d		 pop	 ebp
  0000d	c3		 ret	 0
??0?$allocator@PAVCSkinButton2@@@std@@QAE@XZ ENDP	; std::allocator<CSkinButton2 *>::allocator<CSkinButton2 *>
_TEXT	ENDS
PUBLIC	??0const_iterator@?$vector@PAVCSkinButton2@@V?$allocator@PAVCSkinButton2@@@std@@@std@@QAE@PAPAVCSkinButton2@@@Z ; std::vector<CSkinButton2 *,std::allocator<CSkinButton2 *> >::const_iterator::const_iterator
; Function compile flags: /Odt
; File d:\program files (x86)\microsoft visual studio .net 2003\vc7\include\vector
;	COMDAT ??0iterator@?$vector@PAVCSkinButton2@@V?$allocator@PAVCSkinButton2@@@std@@@std@@QAE@PAPAVCSkinButton2@@@Z
_TEXT	SEGMENT
_this$ = -4						; size = 4
__Ptr$ = 8						; size = 4
??0iterator@?$vector@PAVCSkinButton2@@V?$allocator@PAVCSkinButton2@@@std@@@std@@QAE@PAPAVCSkinButton2@@@Z PROC NEAR ; std::vector<CSkinButton2 *,std::allocator<CSkinButton2 *> >::iterator::iterator, COMDAT
; _this$ = ecx

; 215  : 			{	// construct with pointer _Ptr

  00000	55		 push	 ebp
  00001	8b ec		 mov	 ebp, esp
  00003	51		 push	 ecx
  00004	89 4d fc	 mov	 DWORD PTR _this$[ebp], ecx
  00007	8b 45 08	 mov	 eax, DWORD PTR __Ptr$[ebp]
  0000a	50		 push	 eax
  0000b	8b 4d fc	 mov	 ecx, DWORD PTR _this$[ebp]
  0000e	e8 00 00 00 00	 call	 ??0const_iterator@?$vector@PAVCSkinButton2@@V?$allocator@PAVCSkinButton2@@@std@@@std@@QAE@PAPAVCSkinButton2@@@Z ; std::vector<CSkinButton2 *,std::allocator<CSkinButton2 *> >::const_iterator::const_iterator

; 216  : 			}

  00013	8b 45 fc	 mov	 eax, DWORD PTR _this$[ebp]
  00016	8b e5		 mov	 esp, ebp
  00018	5d		 pop	 ebp
  00019	c2 04 00	 ret	 4
??0iterator@?$vector@PAVCSkinButton2@@V?$allocator@PAVCSkinButton2@@@std@@@std@@QAE@PAPAVCSkinButton2@@@Z ENDP ; std::vector<CSkinButton2 *,std::allocator<CSkinButton2 *> >::iterator::iterator
; Function compile flags: /Odt
_TEXT	ENDS
;	COMDAT ??Eiterator@?$vector@PAVCSkinButton2@@V?$allocator@PAVCSkinButton2@@@std@@@std@@QAEAAV012@XZ
_TEXT	SEGMENT
_this$ = -4						; size = 4
??Eiterator@?$vector@PAVCSkinButton2@@V?$allocator@PAVCSkinButton2@@@std@@@std@@QAEAAV012@XZ PROC NEAR ; std::vector<CSkinButton2 *,std::allocator<CSkinButton2 *> >::iterator::operator++, COMDAT
; _this$ = ecx

; 229  : 			{	// preincrement

  00000	55		 push	 ebp
  00001	8b ec		 mov	 ebp, esp
  00003	51		 push	 ecx
  00004	89 4d fc	 mov	 DWORD PTR _this$[ebp], ecx

; 230  : 			++this->_Myptr;

  00007	8b 45 fc	 mov	 eax, DWORD PTR _this$[ebp]
  0000a	8b 08		 mov	 ecx, DWORD PTR [eax]
  0000c	83 c1 04	 add	 ecx, 4
  0000f	8b 55 fc	 mov	 edx, DWORD PTR _this$[ebp]
  00012	89 0a		 mov	 DWORD PTR [edx], ecx

; 231  : 			return (*this);

  00014	8b 45 fc	 mov	 eax, DWORD PTR _this$[ebp]

; 232  : 			}

  00017	8b e5		 mov	 esp, ebp
  00019	5d		 pop	 ebp
  0001a	c3		 ret	 0
??Eiterator@?$vector@PAVCSkinButton2@@V?$allocator@PAVCSkinButton2@@@std@@@std@@QAEAAV012@XZ ENDP ; std::vector<CSkinButton2 *,std::allocator<CSkinButton2 *> >::iterator::operator++
_TEXT	ENDS
PUBLIC	??Yiterator@?$vector@PAVCSkinButton2@@V?$allocator@PAVCSkinButton2@@@std@@@std@@QAEAAV012@H@Z ; std::vector<CSkinButton2 *,std::allocator<CSkinButton2 *> >::iterator::operator+=
; Function compile flags: /Odt
;	COMDAT ??Hiterator@?$vector@PAVCSkinButton2@@V?$allocator@PAVCSkinButton2@@@std@@@std@@QBE?AV012@H@Z
_TEXT	SEGMENT
_this$ = -8						; size = 4
__Tmp$ = -4						; size = 4
___$ReturnUdt$ = 8					; size = 4
__Off$ = 12						; size = 4
??Hiterator@?$vector@PAVCSkinButton2@@V?$allocator@PAVCSkinButton2@@@std@@@std@@QBE?AV012@H@Z PROC NEAR ; std::vector<CSkinButton2 *,std::allocator<CSkinButton2 *> >::iterator::operator+, COMDAT
; _this$ = ecx

; 261  : 			{	// return this + integer

  00000	55		 push	 ebp
  00001	8b ec		 mov	 ebp, esp
  00003	83 ec 08	 sub	 esp, 8
  00006	89 4d f8	 mov	 DWORD PTR _this$[ebp], ecx

; 262  : 			iterator _Tmp = *this;

  00009	8b 45 f8	 mov	 eax, DWORD PTR _this$[ebp]
  0000c	8b 08		 mov	 ecx, DWORD PTR [eax]
  0000e	89 4d fc	 mov	 DWORD PTR __Tmp$[ebp], ecx

; 263  : 			return (_Tmp += _Off);

  00011	8b 55 0c	 mov	 edx, DWORD PTR __Off$[ebp]
  00014	52		 push	 edx
  00015	8d 4d fc	 lea	 ecx, DWORD PTR __Tmp$[ebp]
  00018	e8 00 00 00 00	 call	 ??Yiterator@?$vector@PAVCSkinButton2@@V?$allocator@PAVCSkinButton2@@@std@@@std@@QAEAAV012@H@Z ; std::vector<CSkinButton2 *,std::allocator<CSkinButton2 *> >::iterator::operator+=
  0001d	8b 00		 mov	 eax, DWORD PTR [eax]
  0001f	8b 4d 08	 mov	 ecx, DWORD PTR ___$ReturnUdt$[ebp]
  00022	89 01		 mov	 DWORD PTR [ecx], eax
  00024	8b 45 08	 mov	 eax, DWORD PTR ___$ReturnUdt$[ebp]

; 264  : 			}

  00027	8b e5		 mov	 esp, ebp
  00029	5d		 pop	 ebp
  0002a	c2 08 00	 ret	 8
??Hiterator@?$vector@PAVCSkinButton2@@V?$allocator@PAVCSkinButton2@@@std@@@std@@QBE?AV012@H@Z ENDP ; std::vector<CSkinButton2 *,std::allocator<CSkinButton2 *> >::iterator::operator+
; Function compile flags: /Odt
_TEXT	ENDS
;	COMDAT ??Dconst_iterator@?$vector@PAVCSkinButton2@@V?$allocator@PAVCSkinButton2@@@std@@@std@@QBEABQAVCSkinButton2@@XZ
_TEXT	SEGMENT
_this$ = -4						; size = 4
??Dconst_iterator@?$vector@PAVCSkinButton2@@V?$allocator@PAVCSkinButton2@@@std@@@std@@QBEABQAVCSkinButton2@@XZ PROC NEAR ; std::vector<CSkinButton2 *,std::allocator<CSkinButton2 *> >::const_iterator::operator*, COMDAT
; _this$ = ecx

; 79   : 			{	// return designated object

  00000	55		 push	 ebp
  00001	8b ec		 mov	 ebp, esp
  00003	51		 push	 ecx
  00004	89 4d fc	 mov	 DWORD PTR _this$[ebp], ecx

; 80   : 
; 81   : 
; 82   : 			return (*_Myptr);

  00007	8b 45 fc	 mov	 eax, DWORD PTR _this$[ebp]
  0000a	8b 00		 mov	 eax, DWORD PTR [eax]

; 83   : 			}

  0000c	8b e5		 mov	 esp, ebp
  0000e	5d		 pop	 ebp
  0000f	c3		 ret	 0
??Dconst_iterator@?$vector@PAVCSkinButton2@@V?$allocator@PAVCSkinButton2@@@std@@@std@@QBEABQAVCSkinButton2@@XZ ENDP ; std::vector<CSkinButton2 *,std::allocator<CSkinButton2 *> >::const_iterator::operator*
; Function compile flags: /Odt
_TEXT	ENDS
;	COMDAT ??8const_iterator@?$vector@PAVCSkinButton2@@V?$allocator@PAVCSkinButton2@@@std@@@std@@QBE_NABV012@@Z
_TEXT	SEGMENT
_this$ = -4						; size = 4
__Right$ = 8						; size = 4
??8const_iterator@?$vector@PAVCSkinButton2@@V?$allocator@PAVCSkinButton2@@@std@@@std@@QBE_NABV012@@Z PROC NEAR ; std::vector<CSkinButton2 *,std::allocator<CSkinButton2 *> >::const_iterator::operator==, COMDAT
; _this$ = ecx

; 152  : 			{	// test for iterator equality

  00000	55		 push	 ebp
  00001	8b ec		 mov	 ebp, esp
  00003	51		 push	 ecx
  00004	89 4d fc	 mov	 DWORD PTR _this$[ebp], ecx

; 153  : 
; 154  : 
; 155  : 			return (_Myptr == _Right._Myptr);

  00007	8b 45 fc	 mov	 eax, DWORD PTR _this$[ebp]
  0000a	8b 4d 08	 mov	 ecx, DWORD PTR __Right$[ebp]
  0000d	8b 00		 mov	 eax, DWORD PTR [eax]
  0000f	2b 01		 sub	 eax, DWORD PTR [ecx]
  00011	f7 d8		 neg	 eax
  00013	1b c0		 sbb	 eax, eax
  00015	40		 inc	 eax

; 156  : 			}

  00016	8b e5		 mov	 esp, ebp
  00018	5d		 pop	 ebp
  00019	c2 04 00	 ret	 4
??8const_iterator@?$vector@PAVCSkinButton2@@V?$allocator@PAVCSkinButton2@@@std@@@std@@QBE_NABV012@@Z ENDP ; std::vector<CSkinButton2 *,std::allocator<CSkinButton2 *> >::const_iterator::operator==
; Function compile flags: /Odt
_TEXT	ENDS
;	COMDAT ?capacity@?$vector@KV?$allocator@K@std@@@std@@QBEIXZ
_TEXT	SEGMENT
tv70 = -8						; size = 4
_this$ = -4						; size = 4
?capacity@?$vector@KV?$allocator@K@std@@@std@@QBEIXZ PROC NEAR ; std::vector<unsigned long,std::allocator<unsigned long> >::capacity, COMDAT
; _this$ = ecx

; 457  : 		{	// return current length of allocated storage

  00000	55		 push	 ebp
  00001	8b ec		 mov	 ebp, esp
  00003	83 ec 08	 sub	 esp, 8
  00006	89 4d fc	 mov	 DWORD PTR _this$[ebp], ecx

; 458  : 		return (_Myfirst == 0 ? 0 : _Myend - _Myfirst);

  00009	8b 45 fc	 mov	 eax, DWORD PTR _this$[ebp]
  0000c	83 78 04 00	 cmp	 DWORD PTR [eax+4], 0
  00010	75 09		 jne	 SHORT $L204988
  00012	c7 45 f8 00 00
	00 00		 mov	 DWORD PTR tv70[ebp], 0
  00019	eb 12		 jmp	 SHORT $L204989
$L204988:
  0001b	8b 4d fc	 mov	 ecx, DWORD PTR _this$[ebp]
  0001e	8b 55 fc	 mov	 edx, DWORD PTR _this$[ebp]
  00021	8b 41 0c	 mov	 eax, DWORD PTR [ecx+12]
  00024	2b 42 04	 sub	 eax, DWORD PTR [edx+4]
  00027	c1 f8 02	 sar	 eax, 2
  0002a	89 45 f8	 mov	 DWORD PTR tv70[ebp], eax
$L204989:
  0002d	8b 45 f8	 mov	 eax, DWORD PTR tv70[ebp]

; 459  : 		}

  00030	8b e5		 mov	 esp, ebp
  00032	5d		 pop	 ebp
  00033	c3		 ret	 0
?capacity@?$vector@KV?$allocator@K@std@@@std@@QBEIXZ ENDP ; std::vector<unsigned long,std::allocator<unsigned long> >::capacity
_TEXT	ENDS
PUBLIC	??0iterator@?$vector@KV?$allocator@K@std@@@std@@QAE@PAK@Z ; std::vector<unsigned long,std::allocator<unsigned long> >::iterator::iterator
; Function compile flags: /Odt
;	COMDAT ?begin@?$vector@KV?$allocator@K@std@@@std@@QAE?AViterator@12@XZ
_TEXT	SEGMENT
_this$ = -4						; size = 4
___$ReturnUdt$ = 8					; size = 4
?begin@?$vector@KV?$allocator@K@std@@@std@@QAE?AViterator@12@XZ PROC NEAR ; std::vector<unsigned long,std::allocator<unsigned long> >::begin, COMDAT
; _this$ = ecx

; 462  : 		{	// return iterator for beginning of mutable sequence

  00000	55		 push	 ebp
  00001	8b ec		 mov	 ebp, esp
  00003	51		 push	 ecx
  00004	89 4d fc	 mov	 DWORD PTR _this$[ebp], ecx

; 463  : 		return (iterator(_Myfirst));

  00007	8b 45 fc	 mov	 eax, DWORD PTR _this$[ebp]
  0000a	8b 48 04	 mov	 ecx, DWORD PTR [eax+4]
  0000d	51		 push	 ecx
  0000e	8b 4d 08	 mov	 ecx, DWORD PTR ___$ReturnUdt$[ebp]
  00011	e8 00 00 00 00	 call	 ??0iterator@?$vector@KV?$allocator@K@std@@@std@@QAE@PAK@Z ; std::vector<unsigned long,std::allocator<unsigned long> >::iterator::iterator
  00016	8b 45 08	 mov	 eax, DWORD PTR ___$ReturnUdt$[ebp]

; 464  : 		}

  00019	8b e5		 mov	 esp, ebp
  0001b	5d		 pop	 ebp
  0001c	c2 04 00	 ret	 4
?begin@?$vector@KV?$allocator@K@std@@@std@@QAE?AViterator@12@XZ ENDP ; std::vector<unsigned long,std::allocator<unsigned long> >::begin
; Function compile flags: /Odt
_TEXT	ENDS
;	COMDAT ?end@?$vector@KV?$allocator@K@std@@@std@@QAE?AViterator@12@XZ
_TEXT	SEGMENT
_this$ = -4						; size = 4
___$ReturnUdt$ = 8					; size = 4
?end@?$vector@KV?$allocator@K@std@@@std@@QAE?AViterator@12@XZ PROC NEAR ; std::vector<unsigned long,std::allocator<unsigned long> >::end, COMDAT
; _this$ = ecx

; 472  : 		{	// return iterator for end of mutable sequence

  00000	55		 push	 ebp
  00001	8b ec		 mov	 ebp, esp
  00003	51		 push	 ecx
  00004	89 4d fc	 mov	 DWORD PTR _this$[ebp], ecx

; 473  : 		return (iterator(_Mylast));

  00007	8b 45 fc	 mov	 eax, DWORD PTR _this$[ebp]
  0000a	8b 48 08	 mov	 ecx, DWORD PTR [eax+8]
  0000d	51		 push	 ecx
  0000e	8b 4d 08	 mov	 ecx, DWORD PTR ___$ReturnUdt$[ebp]
  00011	e8 00 00 00 00	 call	 ??0iterator@?$vector@KV?$allocator@K@std@@@std@@QAE@PAK@Z ; std::vector<unsigned long,std::allocator<unsigned long> >::iterator::iterator
  00016	8b 45 08	 mov	 eax, DWORD PTR ___$ReturnUdt$[ebp]

; 474  : 		}

  00019	8b e5		 mov	 esp, ebp
  0001b	5d		 pop	 ebp
  0001c	c2 04 00	 ret	 4
?end@?$vector@KV?$allocator@K@std@@@std@@QAE?AViterator@12@XZ ENDP ; std::vector<unsigned long,std::allocator<unsigned long> >::end
; Function compile flags: /Odt
_TEXT	ENDS
;	COMDAT ?size@?$vector@KV?$allocator@K@std@@@std@@QBEIXZ
_TEXT	SEGMENT
tv70 = -8						; size = 4
_this$ = -4						; size = 4
?size@?$vector@KV?$allocator@K@std@@@std@@QBEIXZ PROC NEAR ; std::vector<unsigned long,std::allocator<unsigned long> >::size, COMDAT
; _this$ = ecx

; 515  : 		{	// return length of sequence

  00000	55		 push	 ebp
  00001	8b ec		 mov	 ebp, esp
  00003	83 ec 08	 sub	 esp, 8
  00006	89 4d fc	 mov	 DWORD PTR _this$[ebp], ecx

; 516  : 		return (_Myfirst == 0 ? 0 : _Mylast - _Myfirst);

  00009	8b 45 fc	 mov	 eax, DWORD PTR _this$[ebp]
  0000c	83 78 04 00	 cmp	 DWORD PTR [eax+4], 0
  00010	75 09		 jne	 SHORT $L204996
  00012	c7 45 f8 00 00
	00 00		 mov	 DWORD PTR tv70[ebp], 0
  00019	eb 12		 jmp	 SHORT $L204997
$L204996:
  0001b	8b 4d fc	 mov	 ecx, DWORD PTR _this$[ebp]
  0001e	8b 55 fc	 mov	 edx, DWORD PTR _this$[ebp]
  00021	8b 41 08	 mov	 eax, DWORD PTR [ecx+8]
  00024	2b 42 04	 sub	 eax, DWORD PTR [edx+4]
  00027	c1 f8 02	 sar	 eax, 2
  0002a	89 45 f8	 mov	 DWORD PTR tv70[ebp], eax
$L204997:
  0002d	8b 45 f8	 mov	 eax, DWORD PTR tv70[ebp]

; 517  : 		}

  00030	8b e5		 mov	 esp, ebp
  00032	5d		 pop	 ebp
  00033	c3		 ret	 0
?size@?$vector@KV?$allocator@K@std@@@std@@QBEIXZ ENDP	; std::vector<unsigned long,std::allocator<unsigned long> >::size
_TEXT	ENDS
PUBLIC	??Giterator@?$vector@KV?$allocator@K@std@@@std@@QBEHABVconst_iterator@12@@Z ; std::vector<unsigned long,std::allocator<unsigned long> >::iterator::operator-
PUBLIC	?_Insert_n@?$vector@KV?$allocator@K@std@@@std@@IAEXViterator@12@IABK@Z ; std::vector<unsigned long,std::allocator<unsigned long> >::_Insert_n
; Function compile flags: /Odt
;	COMDAT ?insert@?$vector@KV?$allocator@K@std@@@std@@QAE?AViterator@12@V312@ABK@Z
_TEXT	SEGMENT
tv73 = -20						; size = 4
_this$ = -16						; size = 4
$T205003 = -12						; size = 4
$T205000 = -8						; size = 4
__Off$ = -4						; size = 4
___$ReturnUdt$ = 8					; size = 4
__Where$ = 12						; size = 4
__Val$ = 16						; size = 4
?insert@?$vector@KV?$allocator@K@std@@@std@@QAE?AViterator@12@V312@ABK@Z PROC NEAR ; std::vector<unsigned long,std::allocator<unsigned long> >::insert, COMDAT
; _this$ = ecx

; 620  : 		{	// insert _Val at _Where

  00000	55		 push	 ebp
  00001	8b ec		 mov	 ebp, esp
  00003	83 ec 14	 sub	 esp, 20			; 00000014H
  00006	89 4d f0	 mov	 DWORD PTR _this$[ebp], ecx

; 621  : 		size_type _Off = size() == 0 ? 0 : _Where - begin();

  00009	8b 4d f0	 mov	 ecx, DWORD PTR _this$[ebp]
  0000c	e8 00 00 00 00	 call	 ?size@?$vector@KV?$allocator@K@std@@@std@@QBEIXZ ; std::vector<unsigned long,std::allocator<unsigned long> >::size
  00011	85 c0		 test	 eax, eax
  00013	75 09		 jne	 SHORT $L205001
  00015	c7 45 ec 00 00
	00 00		 mov	 DWORD PTR tv73[ebp], 0
  0001c	eb 18		 jmp	 SHORT $L205002
$L205001:
  0001e	8d 45 f8	 lea	 eax, DWORD PTR $T205000[ebp]
  00021	50		 push	 eax
  00022	8b 4d f0	 mov	 ecx, DWORD PTR _this$[ebp]
  00025	e8 00 00 00 00	 call	 ?begin@?$vector@KV?$allocator@K@std@@@std@@QAE?AViterator@12@XZ ; std::vector<unsigned long,std::allocator<unsigned long> >::begin
  0002a	50		 push	 eax
  0002b	8d 4d 0c	 lea	 ecx, DWORD PTR __Where$[ebp]
  0002e	e8 00 00 00 00	 call	 ??Giterator@?$vector@KV?$allocator@K@std@@@std@@QBEHABVconst_iterator@12@@Z ; std::vector<unsigned long,std::allocator<unsigned long> >::iterator::operator-
  00033	89 45 ec	 mov	 DWORD PTR tv73[ebp], eax
$L205002:
  00036	8b 4d ec	 mov	 ecx, DWORD PTR tv73[ebp]
  00039	89 4d fc	 mov	 DWORD PTR __Off$[ebp], ecx

; 622  : 		_Insert_n(_Where, (size_type)1, _Val);

  0003c	8b 55 10	 mov	 edx, DWORD PTR __Val$[ebp]
  0003f	52		 push	 edx
  00040	6a 01		 push	 1
  00042	8b 45 0c	 mov	 eax, DWORD PTR __Where$[ebp]
  00045	50		 push	 eax
  00046	8b 4d f0	 mov	 ecx, DWORD PTR _this$[ebp]
  00049	e8 00 00 00 00	 call	 ?_Insert_n@?$vector@KV?$allocator@K@std@@@std@@IAEXViterator@12@IABK@Z ; std::vector<unsigned long,std::allocator<unsigned long> >::_Insert_n

; 623  : 		return (begin() + _Off);

  0004e	8b 4d fc	 mov	 ecx, DWORD PTR __Off$[ebp]
  00051	51		 push	 ecx
  00052	8b 55 08	 mov	 edx, DWORD PTR ___$ReturnUdt$[ebp]
  00055	52		 push	 edx
  00056	8d 45 f4	 lea	 eax, DWORD PTR $T205003[ebp]
  00059	50		 push	 eax
  0005a	8b 4d f0	 mov	 ecx, DWORD PTR _this$[ebp]
  0005d	e8 00 00 00 00	 call	 ?begin@?$vector@KV?$allocator@K@std@@@std@@QAE?AViterator@12@XZ ; std::vector<unsigned long,std::allocator<unsigned long> >::begin
  00062	8b c8		 mov	 ecx, eax
  00064	e8 00 00 00 00	 call	 ??Hiterator@?$vector@KV?$allocator@K@std@@@std@@QBE?AV012@H@Z ; std::vector<unsigned long,std::allocator<unsigned long> >::iterator::operator+
  00069	8b 45 08	 mov	 eax, DWORD PTR ___$ReturnUdt$[ebp]

; 624  : 		}

  0006c	8b e5		 mov	 esp, ebp
  0006e	5d		 pop	 ebp
  0006f	c2 0c 00	 ret	 12			; 0000000cH
?insert@?$vector@KV?$allocator@K@std@@@std@@QAE?AViterator@12@V312@ABK@Z ENDP ; std::vector<unsigned long,std::allocator<unsigned long> >::insert
_TEXT	ENDS
PUBLIC	?allocate@?$allocator@K@std@@QAEPAKI@Z		; std::allocator<unsigned long>::allocate
PUBLIC	?max_size@?$vector@KV?$allocator@K@std@@@std@@QBEIXZ ; std::vector<unsigned long,std::allocator<unsigned long> >::max_size
PUBLIC	?_Xlen@?$vector@KV?$allocator@K@std@@@std@@IBEXXZ ; std::vector<unsigned long,std::allocator<unsigned long> >::_Xlen
; Function compile flags: /Odt
;	COMDAT ?_Buy@?$vector@KV?$allocator@K@std@@@std@@IAE_NI@Z
_TEXT	SEGMENT
_this$ = -4						; size = 4
__Capacity$ = 8						; size = 4
?_Buy@?$vector@KV?$allocator@K@std@@@std@@IAE_NI@Z PROC NEAR ; std::vector<unsigned long,std::allocator<unsigned long> >::_Buy, COMDAT
; _this$ = ecx

; 770  : 		{	// allocate array with _Capacity elements

  00000	55		 push	 ebp
  00001	8b ec		 mov	 ebp, esp
  00003	51		 push	 ecx
  00004	89 4d fc	 mov	 DWORD PTR _this$[ebp], ecx

; 771  : 		_Myfirst = 0, _Mylast = 0, _Myend = 0;

  00007	8b 45 fc	 mov	 eax, DWORD PTR _this$[ebp]
  0000a	c7 40 04 00 00
	00 00		 mov	 DWORD PTR [eax+4], 0
  00011	8b 4d fc	 mov	 ecx, DWORD PTR _this$[ebp]
  00014	c7 41 08 00 00
	00 00		 mov	 DWORD PTR [ecx+8], 0
  0001b	8b 55 fc	 mov	 edx, DWORD PTR _this$[ebp]
  0001e	c7 42 0c 00 00
	00 00		 mov	 DWORD PTR [edx+12], 0

; 772  : 		if (_Capacity == 0)

  00025	83 7d 08 00	 cmp	 DWORD PTR __Capacity$[ebp], 0
  00029	75 04		 jne	 SHORT $L203234

; 773  : 			return (false);

  0002b	32 c0		 xor	 al, al
  0002d	eb 49		 jmp	 SHORT $L203233
$L203234:

; 774  : 		else if (max_size() < _Capacity)

  0002f	8b 4d fc	 mov	 ecx, DWORD PTR _this$[ebp]
  00032	e8 00 00 00 00	 call	 ?max_size@?$vector@KV?$allocator@K@std@@@std@@QBEIXZ ; std::vector<unsigned long,std::allocator<unsigned long> >::max_size
  00037	3b 45 08	 cmp	 eax, DWORD PTR __Capacity$[ebp]
  0003a	73 0a		 jae	 SHORT $L203236

; 775  : 			_Xlen();	// result too long

  0003c	8b 4d fc	 mov	 ecx, DWORD PTR _this$[ebp]
  0003f	e8 00 00 00 00	 call	 ?_Xlen@?$vector@KV?$allocator@K@std@@@std@@IBEXXZ ; std::vector<unsigned long,std::allocator<unsigned long> >::_Xlen

; 776  : 		else

  00044	eb 30		 jmp	 SHORT $L203235
$L203236:

; 777  : 			{	// nonempty array, allocate storage
; 778  : 			_Myfirst = this->_Alval.allocate(_Capacity);

  00046	8b 45 08	 mov	 eax, DWORD PTR __Capacity$[ebp]
  00049	50		 push	 eax
  0004a	8b 4d fc	 mov	 ecx, DWORD PTR _this$[ebp]
  0004d	e8 00 00 00 00	 call	 ?allocate@?$allocator@K@std@@QAEPAKI@Z ; std::allocator<unsigned long>::allocate
  00052	8b 4d fc	 mov	 ecx, DWORD PTR _this$[ebp]
  00055	89 41 04	 mov	 DWORD PTR [ecx+4], eax

; 779  : 			_Mylast = _Myfirst;

  00058	8b 55 fc	 mov	 edx, DWORD PTR _this$[ebp]
  0005b	8b 45 fc	 mov	 eax, DWORD PTR _this$[ebp]
  0005e	8b 48 04	 mov	 ecx, DWORD PTR [eax+4]
  00061	89 4a 08	 mov	 DWORD PTR [edx+8], ecx

; 780  : 			_Myend = _Myfirst + _Capacity;

  00064	8b 55 fc	 mov	 edx, DWORD PTR _this$[ebp]
  00067	8b 42 04	 mov	 eax, DWORD PTR [edx+4]
  0006a	8b 4d 08	 mov	 ecx, DWORD PTR __Capacity$[ebp]
  0006d	8d 14 88	 lea	 edx, DWORD PTR [eax+ecx*4]
  00070	8b 45 fc	 mov	 eax, DWORD PTR _this$[ebp]
  00073	89 50 0c	 mov	 DWORD PTR [eax+12], edx
$L203235:

; 781  : 			}
; 782  : 		return (true);

  00076	b0 01		 mov	 al, 1
$L203233:

; 783  : 		}

  00078	8b e5		 mov	 esp, ebp
  0007a	5d		 pop	 ebp
  0007b	c2 04 00	 ret	 4
?_Buy@?$vector@KV?$allocator@K@std@@@std@@IAE_NI@Z ENDP	; std::vector<unsigned long,std::allocator<unsigned long> >::_Buy
_TEXT	ENDS
PUBLIC	?deallocate@?$allocator@K@std@@QAEXPAKI@Z	; std::allocator<unsigned long>::deallocate
PUBLIC	?_Destroy@?$vector@KV?$allocator@K@std@@@std@@IAEXPAK0@Z ; std::vector<unsigned long,std::allocator<unsigned long> >::_Destroy
; Function compile flags: /Odt
;	COMDAT ?_Tidy@?$vector@KV?$allocator@K@std@@@std@@IAEXXZ
_TEXT	SEGMENT
_this$ = -4						; size = 4
?_Tidy@?$vector@KV?$allocator@K@std@@@std@@IAEXXZ PROC NEAR ; std::vector<unsigned long,std::allocator<unsigned long> >::_Tidy, COMDAT
; _this$ = ecx

; 791  : 		{	// free all storage

  00000	55		 push	 ebp
  00001	8b ec		 mov	 ebp, esp
  00003	51		 push	 ecx
  00004	89 4d fc	 mov	 DWORD PTR _this$[ebp], ecx

; 792  : 		if (_Myfirst != 0)

  00007	8b 45 fc	 mov	 eax, DWORD PTR _this$[ebp]
  0000a	83 78 04 00	 cmp	 DWORD PTR [eax+4], 0
  0000e	74 35		 je	 SHORT $L203240

; 793  : 			{	// something to free, destroy and deallocate it
; 794  : 			_Destroy(_Myfirst, _Mylast);

  00010	8b 4d fc	 mov	 ecx, DWORD PTR _this$[ebp]
  00013	8b 51 08	 mov	 edx, DWORD PTR [ecx+8]
  00016	52		 push	 edx
  00017	8b 45 fc	 mov	 eax, DWORD PTR _this$[ebp]
  0001a	8b 48 04	 mov	 ecx, DWORD PTR [eax+4]
  0001d	51		 push	 ecx
  0001e	8b 4d fc	 mov	 ecx, DWORD PTR _this$[ebp]
  00021	e8 00 00 00 00	 call	 ?_Destroy@?$vector@KV?$allocator@K@std@@@std@@IAEXPAK0@Z ; std::vector<unsigned long,std::allocator<unsigned long> >::_Destroy

; 795  : 			this->_Alval.deallocate(_Myfirst, _Myend - _Myfirst);

  00026	8b 55 fc	 mov	 edx, DWORD PTR _this$[ebp]
  00029	8b 45 fc	 mov	 eax, DWORD PTR _this$[ebp]
  0002c	8b 4a 0c	 mov	 ecx, DWORD PTR [edx+12]
  0002f	2b 48 04	 sub	 ecx, DWORD PTR [eax+4]
  00032	c1 f9 02	 sar	 ecx, 2
  00035	51		 push	 ecx
  00036	8b 55 fc	 mov	 edx, DWORD PTR _this$[ebp]
  00039	8b 42 04	 mov	 eax, DWORD PTR [edx+4]
  0003c	50		 push	 eax
  0003d	8b 4d fc	 mov	 ecx, DWORD PTR _this$[ebp]
  00040	e8 00 00 00 00	 call	 ?deallocate@?$allocator@K@std@@QAEXPAKI@Z ; std::allocator<unsigned long>::deallocate
$L203240:

; 796  : 			}
; 797  : 		_Myfirst = 0, _Mylast = 0, _Myend = 0;

  00045	8b 4d fc	 mov	 ecx, DWORD PTR _this$[ebp]
  00048	c7 41 04 00 00
	00 00		 mov	 DWORD PTR [ecx+4], 0
  0004f	8b 55 fc	 mov	 edx, DWORD PTR _this$[ebp]
  00052	c7 42 08 00 00
	00 00		 mov	 DWORD PTR [edx+8], 0
  00059	8b 45 fc	 mov	 eax, DWORD PTR _this$[ebp]
  0005c	c7 40 0c 00 00
	00 00		 mov	 DWORD PTR [eax+12], 0

; 798  : 		}

  00063	8b e5		 mov	 esp, ebp
  00065	5d		 pop	 ebp
  00066	c3		 ret	 0
?_Tidy@?$vector@KV?$allocator@K@std@@@std@@IAEXXZ ENDP	; std::vector<unsigned long,std::allocator<unsigned long> >::_Tidy
_TEXT	ENDS
PUBLIC	??$_Uninitialized_fill_n@PAKIKV?$allocator@K@std@@@std@@YAXPAKIABKAAV?$allocator@K@0@@Z ; std::_Uninitialized_fill_n<unsigned long *,unsigned int,unsigned long,std::allocator<unsigned long> >
; Function compile flags: /Odt
;	COMDAT ?_Ufill@?$vector@KV?$allocator@K@std@@@std@@IAEPAKPAKIABK@Z
_TEXT	SEGMENT
_this$ = -4						; size = 4
__Ptr$ = 8						; size = 4
__Count$ = 12						; size = 4
__Val$ = 16						; size = 4
?_Ufill@?$vector@KV?$allocator@K@std@@@std@@IAEPAKPAKIABK@Z PROC NEAR ; std::vector<unsigned long,std::allocator<unsigned long> >::_Ufill, COMDAT
; _this$ = ecx

; 877  : 		{	// copy initializing _Count * _Val, using allocator

  00000	55		 push	 ebp
  00001	8b ec		 mov	 ebp, esp
  00003	51		 push	 ecx
  00004	89 4d fc	 mov	 DWORD PTR _this$[ebp], ecx

; 878  : 		_Uninitialized_fill_n(_Ptr, _Count, _Val, this->_Alval);

  00007	8b 45 fc	 mov	 eax, DWORD PTR _this$[ebp]
  0000a	50		 push	 eax
  0000b	8b 4d 10	 mov	 ecx, DWORD PTR __Val$[ebp]
  0000e	51		 push	 ecx
  0000f	8b 55 0c	 mov	 edx, DWORD PTR __Count$[ebp]
  00012	52		 push	 edx
  00013	8b 45 08	 mov	 eax, DWORD PTR __Ptr$[ebp]
  00016	50		 push	 eax
  00017	e8 00 00 00 00	 call	 ??$_Uninitialized_fill_n@PAKIKV?$allocator@K@std@@@std@@YAXPAKIABKAAV?$allocator@K@0@@Z ; std::_Uninitialized_fill_n<unsigned long *,unsigned int,unsigned long,std::allocator<unsigned long> >
  0001c	83 c4 10	 add	 esp, 16			; 00000010H

; 879  : 		return (_Ptr + _Count);

  0001f	8b 4d 0c	 mov	 ecx, DWORD PTR __Count$[ebp]
  00022	8b 55 08	 mov	 edx, DWORD PTR __Ptr$[ebp]
  00025	8d 04 8a	 lea	 eax, DWORD PTR [edx+ecx*4]

; 880  : 		}

  00028	8b e5		 mov	 esp, ebp
  0002a	5d		 pop	 ebp
  0002b	c2 0c 00	 ret	 12			; 0000000cH
?_Ufill@?$vector@KV?$allocator@K@std@@@std@@IAEPAKPAKIABK@Z ENDP ; std::vector<unsigned long,std::allocator<unsigned long> >::_Ufill
_TEXT	ENDS
PUBLIC	??0?$allocator@K@std@@QAE@ABV01@@Z		; std::allocator<unsigned long>::allocator<unsigned long>
; Function compile flags: /Odt
;	COMDAT ??0?$_Vector_val@KV?$allocator@K@std@@@std@@IAE@V?$allocator@K@1@@Z
_TEXT	SEGMENT
_this$ = -4						; size = 4
__Al$ = 8						; size = 1
??0?$_Vector_val@KV?$allocator@K@std@@@std@@IAE@V?$allocator@K@1@@Z PROC NEAR ; std::_Vector_val<unsigned long,std::allocator<unsigned long> >::_Vector_val<unsigned long,std::allocator<unsigned long> >, COMDAT
; _this$ = ecx

; 21   : 		{	// construct allocator from _Al

  00000	55		 push	 ebp
  00001	8b ec		 mov	 ebp, esp
  00003	51		 push	 ecx
  00004	89 4d fc	 mov	 DWORD PTR _this$[ebp], ecx
  00007	8d 45 08	 lea	 eax, DWORD PTR __Al$[ebp]
  0000a	50		 push	 eax
  0000b	8b 4d fc	 mov	 ecx, DWORD PTR _this$[ebp]
  0000e	e8 00 00 00 00	 call	 ??0?$allocator@K@std@@QAE@ABV01@@Z ; std::allocator<unsigned long>::allocator<unsigned long>

; 22   : 		}

  00013	8b 45 fc	 mov	 eax, DWORD PTR _this$[ebp]
  00016	8b e5		 mov	 esp, ebp
  00018	5d		 pop	 ebp
  00019	c2 04 00	 ret	 4
??0?$_Vector_val@KV?$allocator@K@std@@@std@@IAE@V?$allocator@K@1@@Z ENDP ; std::_Vector_val<unsigned long,std::allocator<unsigned long> >::_Vector_val<unsigned long,std::allocator<unsigned long> >
; Function compile flags: /Odt
; File d:\program files (x86)\microsoft visual studio .net 2003\vc7\include\xmemory
_TEXT	ENDS
;	COMDAT ??0?$allocator@K@std@@QAE@XZ
_TEXT	SEGMENT
_this$ = -4						; size = 4
??0?$allocator@K@std@@QAE@XZ PROC NEAR			; std::allocator<unsigned long>::allocator<unsigned long>, COMDAT
; _this$ = ecx

; 111  : 	allocator()

  00000	55		 push	 ebp
  00001	8b ec		 mov	 ebp, esp
  00003	51		 push	 ecx
  00004	89 4d fc	 mov	 DWORD PTR _this$[ebp], ecx

; 112  : 		{	// construct default allocator (do nothing)
; 113  : 		}

  00007	8b 45 fc	 mov	 eax, DWORD PTR _this$[ebp]
  0000a	8b e5		 mov	 esp, ebp
  0000c	5d		 pop	 ebp
  0000d	c3		 ret	 0
??0?$allocator@K@std@@QAE@XZ ENDP			; std::allocator<unsigned long>::allocator<unsigned long>
_TEXT	ENDS
PUBLIC	??Dconst_iterator@?$vector@KV?$allocator@K@std@@@std@@QBEABKXZ ; std::vector<unsigned long,std::allocator<unsigned long> >::const_iterator::operator*
; Function compile flags: /Odt
; File d:\program files (x86)\microsoft visual studio .net 2003\vc7\include\vector
;	COMDAT ??Diterator@?$vector@KV?$allocator@K@std@@@std@@QBEAAKXZ
_TEXT	SEGMENT
_this$ = -4						; size = 4
??Diterator@?$vector@KV?$allocator@K@std@@@std@@QBEAAKXZ PROC NEAR ; std::vector<unsigned long,std::allocator<unsigned long> >::iterator::operator*, COMDAT
; _this$ = ecx

; 219  : 			{	// return designated object

  00000	55		 push	 ebp
  00001	8b ec		 mov	 ebp, esp
  00003	51		 push	 ecx
  00004	89 4d fc	 mov	 DWORD PTR _this$[ebp], ecx

; 220  : 			return ((reference)**(const_iterator *)this);

  00007	8b 4d fc	 mov	 ecx, DWORD PTR _this$[ebp]
  0000a	e8 00 00 00 00	 call	 ??Dconst_iterator@?$vector@KV?$allocator@K@std@@@std@@QBEABKXZ ; std::vector<unsigned long,std::allocator<unsigned long> >::const_iterator::operator*

; 221  : 			}

  0000f	8b e5		 mov	 esp, ebp
  00011	5d		 pop	 ebp
  00012	c3		 ret	 0
??Diterator@?$vector@KV?$allocator@K@std@@@std@@QBEAAKXZ ENDP ; std::vector<unsigned long,std::allocator<unsigned long> >::iterator::operator*
_TEXT	ENDS
PUBLIC	??Yiterator@?$vector@KV?$allocator@K@std@@@std@@QAEAAV012@H@Z ; std::vector<unsigned long,std::allocator<unsigned long> >::iterator::operator+=
; Function compile flags: /Odt
;	COMDAT ??Hiterator@?$vector@KV?$allocator@K@std@@@std@@QBE?AV012@H@Z
_TEXT	SEGMENT
_this$ = -8						; size = 4
__Tmp$ = -4						; size = 4
___$ReturnUdt$ = 8					; size = 4
__Off$ = 12						; size = 4
??Hiterator@?$vector@KV?$allocator@K@std@@@std@@QBE?AV012@H@Z PROC NEAR ; std::vector<unsigned long,std::allocator<unsigned long> >::iterator::operator+, COMDAT
; _this$ = ecx

; 261  : 			{	// return this + integer

  00000	55		 push	 ebp
  00001	8b ec		 mov	 ebp, esp
  00003	83 ec 08	 sub	 esp, 8
  00006	89 4d f8	 mov	 DWORD PTR _this$[ebp], ecx

; 262  : 			iterator _Tmp = *this;

  00009	8b 45 f8	 mov	 eax, DWORD PTR _this$[ebp]
  0000c	8b 08		 mov	 ecx, DWORD PTR [eax]
  0000e	89 4d fc	 mov	 DWORD PTR __Tmp$[ebp], ecx

; 263  : 			return (_Tmp += _Off);

  00011	8b 55 0c	 mov	 edx, DWORD PTR __Off$[ebp]
  00014	52		 push	 edx
  00015	8d 4d fc	 lea	 ecx, DWORD PTR __Tmp$[ebp]
  00018	e8 00 00 00 00	 call	 ??Yiterator@?$vector@KV?$allocator@K@std@@@std@@QAEAAV012@H@Z ; std::vector<unsigned long,std::allocator<unsigned long> >::iterator::operator+=
  0001d	8b 00		 mov	 eax, DWORD PTR [eax]
  0001f	8b 4d 08	 mov	 ecx, DWORD PTR ___$ReturnUdt$[ebp]
  00022	89 01		 mov	 DWORD PTR [ecx], eax
  00024	8b 45 08	 mov	 eax, DWORD PTR ___$ReturnUdt$[ebp]

; 264  : 			}

  00027	8b e5		 mov	 esp, ebp
  00029	5d		 pop	 ebp
  0002a	c2 08 00	 ret	 8
??Hiterator@?$vector@KV?$allocator@K@std@@@std@@QBE?AV012@H@Z ENDP ; std::vector<unsigned long,std::allocator<unsigned long> >::iterator::operator+
_TEXT	ENDS
PUBLIC	?max_size@?$allocator@PAVCSkinButton2@@@std@@QBEIXZ ; std::allocator<CSkinButton2 *>::max_size
; Function compile flags: /Odt
;	COMDAT ?max_size@?$vector@PAVCSkinButton2@@V?$allocator@PAVCSkinButton2@@@std@@@std@@QBEIXZ
_TEXT	SEGMENT
_this$ = -4						; size = 4
?max_size@?$vector@PAVCSkinButton2@@V?$allocator@PAVCSkinButton2@@@std@@@std@@QBEIXZ PROC NEAR ; std::vector<CSkinButton2 *,std::allocator<CSkinButton2 *> >::max_size, COMDAT
; _this$ = ecx

; 520  : 		{	// return maximum possible length of sequence

  00000	55		 push	 ebp
  00001	8b ec		 mov	 ebp, esp
  00003	51		 push	 ecx
  00004	89 4d fc	 mov	 DWORD PTR _this$[ebp], ecx

; 521  : 		return (this->_Alval.max_size());

  00007	8b 4d fc	 mov	 ecx, DWORD PTR _this$[ebp]
  0000a	e8 00 00 00 00	 call	 ?max_size@?$allocator@PAVCSkinButton2@@@std@@QBEIXZ ; std::allocator<CSkinButton2 *>::max_size

; 522  : 		}

  0000f	8b e5		 mov	 esp, ebp
  00011	5d		 pop	 ebp
  00012	c3		 ret	 0
?max_size@?$vector@PAVCSkinButton2@@V?$allocator@PAVCSkinButton2@@@std@@@std@@QBEIXZ ENDP ; std::vector<CSkinButton2 *,std::allocator<CSkinButton2 *> >::max_size
_TEXT	ENDS
PUBLIC	??$_Destroy_range@PAVCSkinButton2@@V?$allocator@PAVCSkinButton2@@@std@@@std@@YAXPAPAVCSkinButton2@@0AAV?$allocator@PAVCSkinButton2@@@0@@Z ; std::_Destroy_range<CSkinButton2 *,std::allocator<CSkinButton2 *> >
; Function compile flags: /Odt
;	COMDAT ?_Destroy@?$vector@PAVCSkinButton2@@V?$allocator@PAVCSkinButton2@@@std@@@std@@IAEXPAPAVCSkinButton2@@0@Z
_TEXT	SEGMENT
_this$ = -4						; size = 4
__First$ = 8						; size = 4
__Last$ = 12						; size = 4
?_Destroy@?$vector@PAVCSkinButton2@@V?$allocator@PAVCSkinButton2@@@std@@@std@@IAEXPAPAVCSkinButton2@@0@Z PROC NEAR ; std::vector<CSkinButton2 *,std::allocator<CSkinButton2 *> >::_Destroy, COMDAT
; _this$ = ecx

; 786  : 		{	// destroy [_First, _Last) using allocator

  00000	55		 push	 ebp
  00001	8b ec		 mov	 ebp, esp
  00003	51		 push	 ecx
  00004	89 4d fc	 mov	 DWORD PTR _this$[ebp], ecx

; 787  : 		_Destroy_range(_First, _Last, this->_Alval);

  00007	8b 45 fc	 mov	 eax, DWORD PTR _this$[ebp]
  0000a	50		 push	 eax
  0000b	8b 4d 0c	 mov	 ecx, DWORD PTR __Last$[ebp]
  0000e	51		 push	 ecx
  0000f	8b 55 08	 mov	 edx, DWORD PTR __First$[ebp]
  00012	52		 push	 edx
  00013	e8 00 00 00 00	 call	 ??$_Destroy_range@PAVCSkinButton2@@V?$allocator@PAVCSkinButton2@@@std@@@std@@YAXPAPAVCSkinButton2@@0AAV?$allocator@PAVCSkinButton2@@@0@@Z ; std::_Destroy_range<CSkinButton2 *,std::allocator<CSkinButton2 *> >
  00018	83 c4 0c	 add	 esp, 12			; 0000000cH

; 788  : 		}

  0001b	8b e5		 mov	 esp, ebp
  0001d	5d		 pop	 ebp
  0001e	c2 08 00	 ret	 8
?_Destroy@?$vector@PAVCSkinButton2@@V?$allocator@PAVCSkinButton2@@@std@@@std@@IAEXPAPAVCSkinButton2@@0@Z ENDP ; std::vector<CSkinButton2 *,std::allocator<CSkinButton2 *> >::_Destroy
_TEXT	ENDS
PUBLIC	??$_Ucopy@PAPAVCSkinButton2@@@?$vector@PAVCSkinButton2@@V?$allocator@PAVCSkinButton2@@@std@@@std@@IAEPAPAVCSkinButton2@@PAPAV2@00@Z ; std::vector<CSkinButton2 *,std::allocator<CSkinButton2 *> >::_Ucopy<CSkinButton2 * *>
PUBLIC	??$fill@PAPAVCSkinButton2@@PAV1@@std@@YAXPAPAVCSkinButton2@@0ABQAV1@@Z ; std::fill<CSkinButton2 * *,CSkinButton2 *>
PUBLIC	??$copy_backward@PAPAVCSkinButton2@@PAPAV1@@std@@YAPAPAVCSkinButton2@@PAPAV1@00@Z ; std::copy_backward<CSkinButton2 * *,CSkinButton2 * *>
EXTRN	__CxxThrowException@8:NEAR
;	COMDAT xdata$x
xdata$x	SEGMENT
$T205034 DD	0ffffffffH
	DD	00H
	DD	0ffffffffH
	DD	00H
	DD	0ffffffffH
	DD	00H
	DD	0ffffffffH
	DD	00H
$T205036 DD	00H
	DD	00H
	DD	00H
	DD	FLAT:$L205028
$T205037 DD	00H
	DD	00H
	DD	00H
	DD	FLAT:$L205030
$T205035 DD	00H
	DD	00H
	DD	01H
	DD	01H
	DD	FLAT:$T205036
	DD	02H
	DD	02H
	DD	03H
	DD	01H
	DD	FLAT:$T205037
$T205032 DD	019930520H
	DD	04H
	DD	FLAT:$T205034
	DD	02H
	DD	FLAT:$T205035
	DD	2 DUP(00H)
; Function compile flags: /Odt
xdata$x	ENDS
;	COMDAT ?_Insert_n@?$vector@PAVCSkinButton2@@V?$allocator@PAVCSkinButton2@@@std@@@std@@IAEXViterator@12@IABQAVCSkinButton2@@@Z
_TEXT	SEGMENT
tv240 = -52						; size = 4
tv239 = -48						; size = 4
tv85 = -44						; size = 4
_this$ = -40						; size = 4
__Oldend$203347 = -36					; size = 4
__Newvec$203326 = -32					; size = 4
__Ptr$203327 = -28					; size = 4
__Capacity$ = -24					; size = 4
__Tmp$ = -20						; size = 4
__$EHRec$ = -16						; size = 16
__Where$ = 8						; size = 4
__Count$ = 12						; size = 4
__Val$ = 16						; size = 4
?_Insert_n@?$vector@PAVCSkinButton2@@V?$allocator@PAVCSkinButton2@@@std@@@std@@IAEXViterator@12@IABQAVCSkinButton2@@@Z PROC NEAR ; std::vector<CSkinButton2 *,std::allocator<CSkinButton2 *> >::_Insert_n, COMDAT
; _this$ = ecx

; 809  : 		{	// insert _Count * _Val at _Where

  00000	55		 push	 ebp
  00001	8b ec		 mov	 ebp, esp
  00003	6a ff		 push	 -1
  00005	68 00 00 00 00	 push	 __ehhandler$?_Insert_n@?$vector@PAVCSkinButton2@@V?$allocator@PAVCSkinButton2@@@std@@@std@@IAEXViterator@12@IABQAVCSkinButton2@@@Z
  0000a	64 a1 00 00 00
	00		 mov	 eax, DWORD PTR fs:__except_list
  00010	50		 push	 eax
  00011	64 89 25 00 00
	00 00		 mov	 DWORD PTR fs:__except_list, esp
  00018	51		 push	 ecx
  00019	83 ec 24	 sub	 esp, 36			; 00000024H
  0001c	53		 push	 ebx
  0001d	56		 push	 esi
  0001e	57		 push	 edi
  0001f	89 65 f0	 mov	 DWORD PTR __$EHRec$[ebp], esp
  00022	89 4d d8	 mov	 DWORD PTR _this$[ebp], ecx

; 810  : 		_Ty _Tmp = _Val;	// in case _Val is in sequence

  00025	8b 45 10	 mov	 eax, DWORD PTR __Val$[ebp]
  00028	8b 08		 mov	 ecx, DWORD PTR [eax]
  0002a	89 4d ec	 mov	 DWORD PTR __Tmp$[ebp], ecx

; 811  : 		size_type _Capacity = capacity();

  0002d	8b 4d d8	 mov	 ecx, DWORD PTR _this$[ebp]
  00030	e8 00 00 00 00	 call	 ?capacity@?$vector@PAVCSkinButton2@@V?$allocator@PAVCSkinButton2@@@std@@@std@@QBEIXZ ; std::vector<CSkinButton2 *,std::allocator<CSkinButton2 *> >::capacity
  00035	89 45 e8	 mov	 DWORD PTR __Capacity$[ebp], eax

; 812  : 
; 813  : 		if (_Count == 0)

  00038	83 7d 0c 00	 cmp	 DWORD PTR __Count$[ebp], 0
  0003c	75 05		 jne	 SHORT $L203320

; 814  : 			;
; 815  : 		else if (max_size() - size() < _Count)

  0003e	e9 c6 02 00 00	 jmp	 $L205023
$L203320:
  00043	8b 4d d8	 mov	 ecx, DWORD PTR _this$[ebp]
  00046	e8 00 00 00 00	 call	 ?size@?$vector@PAVCSkinButton2@@V?$allocator@PAVCSkinButton2@@@std@@@std@@QBEIXZ ; std::vector<CSkinButton2 *,std::allocator<CSkinButton2 *> >::size
  0004b	8b f0		 mov	 esi, eax
  0004d	8b 4d d8	 mov	 ecx, DWORD PTR _this$[ebp]
  00050	e8 00 00 00 00	 call	 ?max_size@?$vector@PAVCSkinButton2@@V?$allocator@PAVCSkinButton2@@@std@@@std@@QBEIXZ ; std::vector<CSkinButton2 *,std::allocator<CSkinButton2 *> >::max_size
  00055	2b c6		 sub	 eax, esi
  00057	3b 45 0c	 cmp	 eax, DWORD PTR __Count$[ebp]
  0005a	73 0d		 jae	 SHORT $L203322

; 816  : 			_Xlen();	// result too long

  0005c	8b 4d d8	 mov	 ecx, DWORD PTR _this$[ebp]
  0005f	e8 00 00 00 00	 call	 ?_Xlen@?$vector@PAVCSkinButton2@@V?$allocator@PAVCSkinButton2@@@std@@@std@@IBEXXZ ; std::vector<CSkinButton2 *,std::allocator<CSkinButton2 *> >::_Xlen

; 817  : 		else if (_Capacity < size() + _Count)

  00064	e9 a0 02 00 00	 jmp	 $L205023
$L203322:
  00069	8b 4d d8	 mov	 ecx, DWORD PTR _this$[ebp]
  0006c	e8 00 00 00 00	 call	 ?size@?$vector@PAVCSkinButton2@@V?$allocator@PAVCSkinButton2@@@std@@@std@@QBEIXZ ; std::vector<CSkinButton2 *,std::allocator<CSkinButton2 *> >::size
  00071	03 45 0c	 add	 eax, DWORD PTR __Count$[ebp]
  00074	39 45 e8	 cmp	 DWORD PTR __Capacity$[ebp], eax
  00077	0f 83 66 01 00
	00		 jae	 $L203324

; 818  : 			{	// not enough room, reallocate
; 819  : 			_Capacity = max_size() - _Capacity / 2 < _Capacity
; 820  : 				? 0 : _Capacity + _Capacity / 2;	// try to grow by 50%

  0007d	8b 75 e8	 mov	 esi, DWORD PTR __Capacity$[ebp]
  00080	d1 ee		 shr	 esi, 1
  00082	8b 4d d8	 mov	 ecx, DWORD PTR _this$[ebp]
  00085	e8 00 00 00 00	 call	 ?max_size@?$vector@PAVCSkinButton2@@V?$allocator@PAVCSkinButton2@@@std@@@std@@QBEIXZ ; std::vector<CSkinButton2 *,std::allocator<CSkinButton2 *> >::max_size
  0008a	2b c6		 sub	 eax, esi
  0008c	3b 45 e8	 cmp	 eax, DWORD PTR __Capacity$[ebp]
  0008f	73 09		 jae	 SHORT $L205024
  00091	c7 45 d4 00 00
	00 00		 mov	 DWORD PTR tv85[ebp], 0
  00098	eb 0b		 jmp	 SHORT $L205025
$L205024:
  0009a	8b 55 e8	 mov	 edx, DWORD PTR __Capacity$[ebp]
  0009d	d1 ea		 shr	 edx, 1
  0009f	03 55 e8	 add	 edx, DWORD PTR __Capacity$[ebp]
  000a2	89 55 d4	 mov	 DWORD PTR tv85[ebp], edx
$L205025:
  000a5	8b 45 d4	 mov	 eax, DWORD PTR tv85[ebp]
  000a8	89 45 e8	 mov	 DWORD PTR __Capacity$[ebp], eax

; 821  : 			if (_Capacity < size() + _Count)

  000ab	8b 4d d8	 mov	 ecx, DWORD PTR _this$[ebp]
  000ae	e8 00 00 00 00	 call	 ?size@?$vector@PAVCSkinButton2@@V?$allocator@PAVCSkinButton2@@@std@@@std@@QBEIXZ ; std::vector<CSkinButton2 *,std::allocator<CSkinButton2 *> >::size
  000b3	03 45 0c	 add	 eax, DWORD PTR __Count$[ebp]
  000b6	39 45 e8	 cmp	 DWORD PTR __Capacity$[ebp], eax
  000b9	73 0e		 jae	 SHORT $L203325

; 822  : 				_Capacity = size() + _Count;

  000bb	8b 4d d8	 mov	 ecx, DWORD PTR _this$[ebp]
  000be	e8 00 00 00 00	 call	 ?size@?$vector@PAVCSkinButton2@@V?$allocator@PAVCSkinButton2@@@std@@@std@@QBEIXZ ; std::vector<CSkinButton2 *,std::allocator<CSkinButton2 *> >::size
  000c3	03 45 0c	 add	 eax, DWORD PTR __Count$[ebp]
  000c6	89 45 e8	 mov	 DWORD PTR __Capacity$[ebp], eax
$L203325:

; 823  : 			pointer _Newvec = this->_Alval.allocate(_Capacity);

  000c9	8b 4d e8	 mov	 ecx, DWORD PTR __Capacity$[ebp]
  000cc	51		 push	 ecx
  000cd	8b 4d d8	 mov	 ecx, DWORD PTR _this$[ebp]
  000d0	e8 00 00 00 00	 call	 ?allocate@?$allocator@PAVCSkinButton2@@@std@@QAEPAPAVCSkinButton2@@I@Z ; std::allocator<CSkinButton2 *>::allocate
  000d5	89 45 e0	 mov	 DWORD PTR __Newvec$203326[ebp], eax

; 824  : 			pointer _Ptr = _Newvec;

  000d8	8b 55 e0	 mov	 edx, DWORD PTR __Newvec$203326[ebp]
  000db	89 55 e4	 mov	 DWORD PTR __Ptr$203327[ebp], edx

; 825  : 
; 826  : 			_TRY_BEGIN

  000de	c7 45 fc 00 00
	00 00		 mov	 DWORD PTR __$EHRec$[ebp+12], 0

; 827  : 			_Ptr = _Ucopy(_Myfirst, _ITER_BASE(_Where),
; 828  : 				_Newvec);	// copy prefix

  000e5	8b 45 e0	 mov	 eax, DWORD PTR __Newvec$203326[ebp]
  000e8	50		 push	 eax
  000e9	8b 4d 08	 mov	 ecx, DWORD PTR __Where$[ebp]
  000ec	51		 push	 ecx
  000ed	8b 55 d8	 mov	 edx, DWORD PTR _this$[ebp]
  000f0	8b 42 04	 mov	 eax, DWORD PTR [edx+4]
  000f3	50		 push	 eax
  000f4	8b 4d d8	 mov	 ecx, DWORD PTR _this$[ebp]
  000f7	e8 00 00 00 00	 call	 ??$_Ucopy@PAPAVCSkinButton2@@@?$vector@PAVCSkinButton2@@V?$allocator@PAVCSkinButton2@@@std@@@std@@IAEPAPAVCSkinButton2@@PAPAV2@00@Z ; std::vector<CSkinButton2 *,std::allocator<CSkinButton2 *> >::_Ucopy<CSkinButton2 * *>
  000fc	89 45 d0	 mov	 DWORD PTR tv239[ebp], eax
  000ff	8b 4d d0	 mov	 ecx, DWORD PTR tv239[ebp]
  00102	89 4d e4	 mov	 DWORD PTR __Ptr$203327[ebp], ecx

; 829  : 			_Ptr = _Ufill(_Ptr, _Count, _Tmp);	// add new stuff

  00105	8d 55 ec	 lea	 edx, DWORD PTR __Tmp$[ebp]
  00108	52		 push	 edx
  00109	8b 45 0c	 mov	 eax, DWORD PTR __Count$[ebp]
  0010c	50		 push	 eax
  0010d	8b 4d e4	 mov	 ecx, DWORD PTR __Ptr$203327[ebp]
  00110	51		 push	 ecx
  00111	8b 4d d8	 mov	 ecx, DWORD PTR _this$[ebp]
  00114	e8 00 00 00 00	 call	 ?_Ufill@?$vector@PAVCSkinButton2@@V?$allocator@PAVCSkinButton2@@@std@@@std@@IAEPAPAVCSkinButton2@@PAPAV3@IABQAV3@@Z ; std::vector<CSkinButton2 *,std::allocator<CSkinButton2 *> >::_Ufill
  00119	89 45 cc	 mov	 DWORD PTR tv240[ebp], eax
  0011c	8b 55 cc	 mov	 edx, DWORD PTR tv240[ebp]
  0011f	89 55 e4	 mov	 DWORD PTR __Ptr$203327[ebp], edx

; 830  : 			_Ucopy(_ITER_BASE(_Where), _Mylast, _Ptr);	// copy suffix

  00122	8b 45 e4	 mov	 eax, DWORD PTR __Ptr$203327[ebp]
  00125	50		 push	 eax
  00126	8b 4d d8	 mov	 ecx, DWORD PTR _this$[ebp]
  00129	8b 51 08	 mov	 edx, DWORD PTR [ecx+8]
  0012c	52		 push	 edx
  0012d	8b 45 08	 mov	 eax, DWORD PTR __Where$[ebp]
  00130	50		 push	 eax
  00131	8b 4d d8	 mov	 ecx, DWORD PTR _this$[ebp]
  00134	e8 00 00 00 00	 call	 ??$_Ucopy@PAPAVCSkinButton2@@@?$vector@PAVCSkinButton2@@V?$allocator@PAVCSkinButton2@@@std@@@std@@IAEPAPAVCSkinButton2@@PAPAV2@00@Z ; std::vector<CSkinButton2 *,std::allocator<CSkinButton2 *> >::_Ucopy<CSkinButton2 * *>
  00139	eb 29		 jmp	 SHORT $L205027
$L205028:

; 831  : 			_CATCH_ALL
; 832  : 			_Destroy(_Newvec, _Ptr);

  0013b	8b 4d e4	 mov	 ecx, DWORD PTR __Ptr$203327[ebp]
  0013e	51		 push	 ecx
  0013f	8b 55 e0	 mov	 edx, DWORD PTR __Newvec$203326[ebp]
  00142	52		 push	 edx
  00143	8b 4d d8	 mov	 ecx, DWORD PTR _this$[ebp]
  00146	e8 00 00 00 00	 call	 ?_Destroy@?$vector@PAVCSkinButton2@@V?$allocator@PAVCSkinButton2@@@std@@@std@@IAEXPAPAVCSkinButton2@@0@Z ; std::vector<CSkinButton2 *,std::allocator<CSkinButton2 *> >::_Destroy

; 833  : 			this->_Alval.deallocate(_Newvec, _Capacity);

  0014b	8b 45 e8	 mov	 eax, DWORD PTR __Capacity$[ebp]
  0014e	50		 push	 eax
  0014f	8b 4d e0	 mov	 ecx, DWORD PTR __Newvec$203326[ebp]
  00152	51		 push	 ecx
  00153	8b 4d d8	 mov	 ecx, DWORD PTR _this$[ebp]
  00156	e8 00 00 00 00	 call	 ?deallocate@?$allocator@PAVCSkinButton2@@@std@@QAEXPAPAVCSkinButton2@@I@Z ; std::allocator<CSkinButton2 *>::deallocate

; 834  : 			_RERAISE;

  0015b	6a 00		 push	 0
  0015d	6a 00		 push	 0
  0015f	e8 00 00 00 00	 call	 __CxxThrowException@8
$L205027:

; 835  : 			_CATCH_END

  00164	c7 45 fc ff ff
	ff ff		 mov	 DWORD PTR __$EHRec$[ebp+12], -1

; 836  : 
; 837  : 			_Count += size();

  0016b	8b 4d d8	 mov	 ecx, DWORD PTR _this$[ebp]
  0016e	e8 00 00 00 00	 call	 ?size@?$vector@PAVCSkinButton2@@V?$allocator@PAVCSkinButton2@@@std@@@std@@QBEIXZ ; std::vector<CSkinButton2 *,std::allocator<CSkinButton2 *> >::size
  00173	03 45 0c	 add	 eax, DWORD PTR __Count$[ebp]
  00176	89 45 0c	 mov	 DWORD PTR __Count$[ebp], eax

; 838  : 			if (_Myfirst != 0)

  00179	8b 55 d8	 mov	 edx, DWORD PTR _this$[ebp]
  0017c	83 7a 04 00	 cmp	 DWORD PTR [edx+4], 0
  00180	74 35		 je	 SHORT $L203334

; 839  : 				{	// destroy and deallocate old array
; 840  : 				_Destroy(_Myfirst, _Mylast);

  00182	8b 45 d8	 mov	 eax, DWORD PTR _this$[ebp]
  00185	8b 48 08	 mov	 ecx, DWORD PTR [eax+8]
  00188	51		 push	 ecx
  00189	8b 55 d8	 mov	 edx, DWORD PTR _this$[ebp]
  0018c	8b 42 04	 mov	 eax, DWORD PTR [edx+4]
  0018f	50		 push	 eax
  00190	8b 4d d8	 mov	 ecx, DWORD PTR _this$[ebp]
  00193	e8 00 00 00 00	 call	 ?_Destroy@?$vector@PAVCSkinButton2@@V?$allocator@PAVCSkinButton2@@@std@@@std@@IAEXPAPAVCSkinButton2@@0@Z ; std::vector<CSkinButton2 *,std::allocator<CSkinButton2 *> >::_Destroy

; 841  : 				this->_Alval.deallocate(_Myfirst, _Myend - _Myfirst);

  00198	8b 4d d8	 mov	 ecx, DWORD PTR _this$[ebp]
  0019b	8b 55 d8	 mov	 edx, DWORD PTR _this$[ebp]
  0019e	8b 41 0c	 mov	 eax, DWORD PTR [ecx+12]
  001a1	2b 42 04	 sub	 eax, DWORD PTR [edx+4]
  001a4	c1 f8 02	 sar	 eax, 2
  001a7	50		 push	 eax
  001a8	8b 4d d8	 mov	 ecx, DWORD PTR _this$[ebp]
  001ab	8b 51 04	 mov	 edx, DWORD PTR [ecx+4]
  001ae	52		 push	 edx
  001af	8b 4d d8	 mov	 ecx, DWORD PTR _this$[ebp]
  001b2	e8 00 00 00 00	 call	 ?deallocate@?$allocator@PAVCSkinButton2@@@std@@QAEXPAPAVCSkinButton2@@I@Z ; std::allocator<CSkinButton2 *>::deallocate
$L203334:

; 842  : 				}
; 843  : 			_Myend = _Newvec + _Capacity;

  001b7	8b 45 e8	 mov	 eax, DWORD PTR __Capacity$[ebp]
  001ba	8b 4d e0	 mov	 ecx, DWORD PTR __Newvec$203326[ebp]
  001bd	8d 14 81	 lea	 edx, DWORD PTR [ecx+eax*4]
  001c0	8b 45 d8	 mov	 eax, DWORD PTR _this$[ebp]
  001c3	89 50 0c	 mov	 DWORD PTR [eax+12], edx

; 844  : 			_Mylast = _Newvec + _Count;

  001c6	8b 4d 0c	 mov	 ecx, DWORD PTR __Count$[ebp]
  001c9	8b 55 e0	 mov	 edx, DWORD PTR __Newvec$203326[ebp]
  001cc	8d 04 8a	 lea	 eax, DWORD PTR [edx+ecx*4]
  001cf	8b 4d d8	 mov	 ecx, DWORD PTR _this$[ebp]
  001d2	89 41 08	 mov	 DWORD PTR [ecx+8], eax

; 845  : 			_Myfirst = _Newvec;

  001d5	8b 55 d8	 mov	 edx, DWORD PTR _this$[ebp]
  001d8	8b 45 e0	 mov	 eax, DWORD PTR __Newvec$203326[ebp]
  001db	89 42 04	 mov	 DWORD PTR [edx+4], eax

; 846  : 			}
; 847  : 		else if ((size_type)(_Mylast - _ITER_BASE(_Where)) < _Count)

  001de	e9 26 01 00 00	 jmp	 $L205023
$L203324:
  001e3	8b 4d d8	 mov	 ecx, DWORD PTR _this$[ebp]
  001e6	8b 51 08	 mov	 edx, DWORD PTR [ecx+8]
  001e9	2b 55 08	 sub	 edx, DWORD PTR __Where$[ebp]
  001ec	c1 fa 02	 sar	 edx, 2
  001ef	3b 55 0c	 cmp	 edx, DWORD PTR __Count$[ebp]
  001f2	0f 83 ad 00 00
	00		 jae	 $L203337

; 848  : 			{	// new stuff spills off end
; 849  : 			_Ucopy(_ITER_BASE(_Where), _Mylast,
; 850  : 				_ITER_BASE(_Where) + _Count);	// copy suffix

  001f8	8b 45 0c	 mov	 eax, DWORD PTR __Count$[ebp]
  001fb	8b 4d 08	 mov	 ecx, DWORD PTR __Where$[ebp]
  001fe	8d 14 81	 lea	 edx, DWORD PTR [ecx+eax*4]
  00201	52		 push	 edx
  00202	8b 45 d8	 mov	 eax, DWORD PTR _this$[ebp]
  00205	8b 48 08	 mov	 ecx, DWORD PTR [eax+8]
  00208	51		 push	 ecx
  00209	8b 55 08	 mov	 edx, DWORD PTR __Where$[ebp]
  0020c	52		 push	 edx
  0020d	8b 4d d8	 mov	 ecx, DWORD PTR _this$[ebp]
  00210	e8 00 00 00 00	 call	 ??$_Ucopy@PAPAVCSkinButton2@@@?$vector@PAVCSkinButton2@@V?$allocator@PAVCSkinButton2@@@std@@@std@@IAEPAPAVCSkinButton2@@PAPAV2@00@Z ; std::vector<CSkinButton2 *,std::allocator<CSkinButton2 *> >::_Ucopy<CSkinButton2 * *>

; 851  : 
; 852  : 			_TRY_BEGIN

  00215	c7 45 fc 02 00
	00 00		 mov	 DWORD PTR __$EHRec$[ebp+12], 2

; 853  : 			_Ufill(_Mylast, _Count - (_Mylast - _ITER_BASE(_Where)),
; 854  : 				_Tmp);	// insert new stuff off end

  0021c	8d 45 ec	 lea	 eax, DWORD PTR __Tmp$[ebp]
  0021f	50		 push	 eax
  00220	8b 4d d8	 mov	 ecx, DWORD PTR _this$[ebp]
  00223	8b 51 08	 mov	 edx, DWORD PTR [ecx+8]
  00226	2b 55 08	 sub	 edx, DWORD PTR __Where$[ebp]
  00229	c1 fa 02	 sar	 edx, 2
  0022c	8b 45 0c	 mov	 eax, DWORD PTR __Count$[ebp]
  0022f	2b c2		 sub	 eax, edx
  00231	50		 push	 eax
  00232	8b 4d d8	 mov	 ecx, DWORD PTR _this$[ebp]
  00235	8b 51 08	 mov	 edx, DWORD PTR [ecx+8]
  00238	52		 push	 edx
  00239	8b 4d d8	 mov	 ecx, DWORD PTR _this$[ebp]
  0023c	e8 00 00 00 00	 call	 ?_Ufill@?$vector@PAVCSkinButton2@@V?$allocator@PAVCSkinButton2@@@std@@@std@@IAEPAPAVCSkinButton2@@PAPAV3@IABQAV3@@Z ; std::vector<CSkinButton2 *,std::allocator<CSkinButton2 *> >::_Ufill
  00241	eb 28		 jmp	 SHORT $L205029
$L205030:

; 855  : 			_CATCH_ALL
; 856  : 			_Destroy(_ITER_BASE(_Where) + _Count, _Mylast + _Count);

  00243	8b 45 d8	 mov	 eax, DWORD PTR _this$[ebp]
  00246	8b 48 08	 mov	 ecx, DWORD PTR [eax+8]
  00249	8b 55 0c	 mov	 edx, DWORD PTR __Count$[ebp]
  0024c	8d 04 91	 lea	 eax, DWORD PTR [ecx+edx*4]
  0024f	50		 push	 eax
  00250	8b 4d 0c	 mov	 ecx, DWORD PTR __Count$[ebp]
  00253	8b 55 08	 mov	 edx, DWORD PTR __Where$[ebp]
  00256	8d 04 8a	 lea	 eax, DWORD PTR [edx+ecx*4]
  00259	50		 push	 eax
  0025a	8b 4d d8	 mov	 ecx, DWORD PTR _this$[ebp]
  0025d	e8 00 00 00 00	 call	 ?_Destroy@?$vector@PAVCSkinButton2@@V?$allocator@PAVCSkinButton2@@@std@@@std@@IAEXPAPAVCSkinButton2@@0@Z ; std::vector<CSkinButton2 *,std::allocator<CSkinButton2 *> >::_Destroy

; 857  : 			_RERAISE;

  00262	6a 00		 push	 0
  00264	6a 00		 push	 0
  00266	e8 00 00 00 00	 call	 __CxxThrowException@8
$L205029:

; 858  : 			_CATCH_END

  0026b	c7 45 fc ff ff
	ff ff		 mov	 DWORD PTR __$EHRec$[ebp+12], -1

; 859  : 
; 860  : 			_Mylast += _Count;

  00272	8b 4d d8	 mov	 ecx, DWORD PTR _this$[ebp]
  00275	8b 51 08	 mov	 edx, DWORD PTR [ecx+8]
  00278	8b 45 0c	 mov	 eax, DWORD PTR __Count$[ebp]
  0027b	8d 0c 82	 lea	 ecx, DWORD PTR [edx+eax*4]
  0027e	8b 55 d8	 mov	 edx, DWORD PTR _this$[ebp]
  00281	89 4a 08	 mov	 DWORD PTR [edx+8], ecx

; 861  : 			fill(_ITER_BASE(_Where), _Mylast - _Count,
; 862  : 				_Tmp);	// insert up to old end

  00284	8d 45 ec	 lea	 eax, DWORD PTR __Tmp$[ebp]
  00287	50		 push	 eax
  00288	8b 4d 0c	 mov	 ecx, DWORD PTR __Count$[ebp]
  0028b	c1 e1 02	 shl	 ecx, 2
  0028e	8b 55 d8	 mov	 edx, DWORD PTR _this$[ebp]
  00291	8b 42 08	 mov	 eax, DWORD PTR [edx+8]
  00294	2b c1		 sub	 eax, ecx
  00296	50		 push	 eax
  00297	8b 4d 08	 mov	 ecx, DWORD PTR __Where$[ebp]
  0029a	51		 push	 ecx
  0029b	e8 00 00 00 00	 call	 ??$fill@PAPAVCSkinButton2@@PAV1@@std@@YAXPAPAVCSkinButton2@@0ABQAV1@@Z ; std::fill<CSkinButton2 * *,CSkinButton2 *>
  002a0	83 c4 0c	 add	 esp, 12			; 0000000cH

; 863  : 			}
; 864  : 		else

  002a3	eb 64		 jmp	 SHORT $L205023
$L203337:

; 865  : 			{	// new stuff can all be assigned
; 866  : 			pointer _Oldend = _Mylast;

  002a5	8b 55 d8	 mov	 edx, DWORD PTR _this$[ebp]
  002a8	8b 42 08	 mov	 eax, DWORD PTR [edx+8]
  002ab	89 45 dc	 mov	 DWORD PTR __Oldend$203347[ebp], eax

; 867  : 			_Mylast = _Ucopy(_Oldend - _Count, _Oldend,
; 868  : 				_Mylast);	// copy suffix

  002ae	8b 4d d8	 mov	 ecx, DWORD PTR _this$[ebp]
  002b1	8b 51 08	 mov	 edx, DWORD PTR [ecx+8]
  002b4	52		 push	 edx
  002b5	8b 45 dc	 mov	 eax, DWORD PTR __Oldend$203347[ebp]
  002b8	50		 push	 eax
  002b9	8b 4d 0c	 mov	 ecx, DWORD PTR __Count$[ebp]
  002bc	c1 e1 02	 shl	 ecx, 2
  002bf	8b 55 dc	 mov	 edx, DWORD PTR __Oldend$203347[ebp]
  002c2	2b d1		 sub	 edx, ecx
  002c4	52		 push	 edx
  002c5	8b 4d d8	 mov	 ecx, DWORD PTR _this$[ebp]
  002c8	e8 00 00 00 00	 call	 ??$_Ucopy@PAPAVCSkinButton2@@@?$vector@PAVCSkinButton2@@V?$allocator@PAVCSkinButton2@@@std@@@std@@IAEPAPAVCSkinButton2@@PAPAV2@00@Z ; std::vector<CSkinButton2 *,std::allocator<CSkinButton2 *> >::_Ucopy<CSkinButton2 * *>
  002cd	8b 4d d8	 mov	 ecx, DWORD PTR _this$[ebp]
  002d0	89 41 08	 mov	 DWORD PTR [ecx+8], eax

; 869  : 			copy_backward(_ITER_BASE(_Where), _Oldend - _Count,
; 870  : 				_Oldend);	// copy hole

  002d3	8b 55 dc	 mov	 edx, DWORD PTR __Oldend$203347[ebp]
  002d6	52		 push	 edx
  002d7	8b 45 0c	 mov	 eax, DWORD PTR __Count$[ebp]
  002da	c1 e0 02	 shl	 eax, 2
  002dd	8b 4d dc	 mov	 ecx, DWORD PTR __Oldend$203347[ebp]
  002e0	2b c8		 sub	 ecx, eax
  002e2	51		 push	 ecx
  002e3	8b 55 08	 mov	 edx, DWORD PTR __Where$[ebp]
  002e6	52		 push	 edx
  002e7	e8 00 00 00 00	 call	 ??$copy_backward@PAPAVCSkinButton2@@PAPAV1@@std@@YAPAPAVCSkinButton2@@PAPAV1@00@Z ; std::copy_backward<CSkinButton2 * *,CSkinButton2 * *>
  002ec	83 c4 0c	 add	 esp, 12			; 0000000cH

; 871  : 			fill(_ITER_BASE(_Where), _ITER_BASE(_Where) + _Count,
; 872  : 				_Tmp);	// insert into hole

  002ef	8d 45 ec	 lea	 eax, DWORD PTR __Tmp$[ebp]
  002f2	50		 push	 eax
  002f3	8b 4d 0c	 mov	 ecx, DWORD PTR __Count$[ebp]
  002f6	8b 55 08	 mov	 edx, DWORD PTR __Where$[ebp]
  002f9	8d 04 8a	 lea	 eax, DWORD PTR [edx+ecx*4]
  002fc	50		 push	 eax
  002fd	8b 4d 08	 mov	 ecx, DWORD PTR __Where$[ebp]
  00300	51		 push	 ecx
  00301	e8 00 00 00 00	 call	 ??$fill@PAPAVCSkinButton2@@PAV1@@std@@YAXPAPAVCSkinButton2@@0ABQAV1@@Z ; std::fill<CSkinButton2 * *,CSkinButton2 *>
  00306	83 c4 0c	 add	 esp, 12			; 0000000cH
$L205023:

; 873  : 			}
; 874  : 		}

  00309	8b 4d f4	 mov	 ecx, DWORD PTR __$EHRec$[ebp+4]
  0030c	64 89 0d 00 00
	00 00		 mov	 DWORD PTR fs:__except_list, ecx
  00313	5f		 pop	 edi
  00314	5e		 pop	 esi
  00315	5b		 pop	 ebx
  00316	8b e5		 mov	 esp, ebp
  00318	5d		 pop	 ebp
  00319	c2 0c 00	 ret	 12			; 0000000cH
_TEXT	ENDS
;	COMDAT text$x
text$x	SEGMENT
__ehhandler$?_Insert_n@?$vector@PAVCSkinButton2@@V?$allocator@PAVCSkinButton2@@@std@@@std@@IAEXViterator@12@IABQAVCSkinButton2@@@Z:
  00000	b8 00 00 00 00	 mov	 eax, OFFSET FLAT:$T205032
  00005	e9 00 00 00 00	 jmp	 ___CxxFrameHandler
text$x	ENDS
?_Insert_n@?$vector@PAVCSkinButton2@@V?$allocator@PAVCSkinButton2@@@std@@@std@@IAEXViterator@12@IABQAVCSkinButton2@@@Z ENDP ; std::vector<CSkinButton2 *,std::allocator<CSkinButton2 *> >::_Insert_n
PUBLIC	??_R0?AVlogic_error@std@@@8			; std::logic_error `RTTI Type Descriptor'
PUBLIC	__CT??_R0?AVlogic_error@std@@@8??0logic_error@std@@QAE@ABV01@@Z40
PUBLIC	??_R0?AVexception@@@8				; exception `RTTI Type Descriptor'
PUBLIC	__CT??_R0?AVexception@@@8??0exception@@QAE@ABV0@@Z12
PUBLIC	??_R0?AVlength_error@std@@@8			; std::length_error `RTTI Type Descriptor'
PUBLIC	__TI3?AVlength_error@std@@
PUBLIC	__CTA3?AVlength_error@std@@
PUBLIC	__CT??_R0?AVlength_error@std@@@8??0length_error@std@@QAE@ABV01@@Z40
PUBLIC	??_C@_0BD@OLBABOEK@vector?$DMT?$DO?5too?5long?$AA@ ; `string'
PUBLIC	??0logic_error@std@@QAE@ABV01@@Z		; std::logic_error::logic_error
PUBLIC	??0length_error@std@@QAE@ABV?$basic_string@DU?$char_traits@D@std@@V?$allocator@D@2@@1@@Z ; std::length_error::length_error
PUBLIC	??1length_error@std@@UAE@XZ			; std::length_error::~length_error
PUBLIC	??0length_error@std@@QAE@ABV01@@Z		; std::length_error::length_error
EXTRN	??0exception@@QAE@ABV0@@Z:NEAR			; exception::exception
;	COMDAT xdata$x
xdata$x	SEGMENT
$T205048 DD	0ffffffffH
	DD	FLAT:$L205044
$T205046 DD	019930520H
	DD	01H
	DD	FLAT:$T205048
	DD	2 DUP(00H)
	DD	2 DUP(00H)
xdata$x	ENDS
;	COMDAT ??_C@_0BD@OLBABOEK@vector?$DMT?$DO?5too?5long?$AA@
CONST	SEGMENT
??_C@_0BD@OLBABOEK@vector?$DMT?$DO?5too?5long?$AA@ DB 'vector<T> too long'
	DB	00H						; `string'
CONST	ENDS
;	COMDAT __TI3?AVlength_error@std@@
xdata$x	SEGMENT
__TI3?AVlength_error@std@@ DD 00H
	DD	FLAT:??1length_error@std@@UAE@XZ
	DD	00H
	DD	FLAT:__CTA3?AVlength_error@std@@
xdata$x	ENDS
;	COMDAT __CTA3?AVlength_error@std@@
xdata$x	SEGMENT
__CTA3?AVlength_error@std@@ DD 03H
	DD	FLAT:__CT??_R0?AVlength_error@std@@@8??0length_error@std@@QAE@ABV01@@Z40
	DD	FLAT:__CT??_R0?AVlogic_error@std@@@8??0logic_error@std@@QAE@ABV01@@Z40
	DD	FLAT:__CT??_R0?AVexception@@@8??0exception@@QAE@ABV0@@Z12
xdata$x	ENDS
;	COMDAT __CT??_R0?AVlength_error@std@@@8??0length_error@std@@QAE@ABV01@@Z40
xdata$x	SEGMENT
__CT??_R0?AVlength_error@std@@@8??0length_error@std@@QAE@ABV01@@Z40 DD 00H
	DD	FLAT:??_R0?AVlength_error@std@@@8
	DD	00H
	DD	0ffffffffH
	ORG $+4
	DD	028H
	DD	FLAT:??0length_error@std@@QAE@ABV01@@Z
xdata$x	ENDS
;	COMDAT ??_R0?AVlength_error@std@@@8
_DATA	SEGMENT
??_R0?AVlength_error@std@@@8 DD FLAT:??_7type_info@@6B@	; std::length_error `RTTI Type Descriptor'
	DD	00H
	DB	'.?AVlength_error@std@@', 00H
	ORG $-31
	DD	FLAT:??_7type_info@@6B@
	DD	00H
	DB	'.?AVlength_error@std@@', 00H
_DATA	ENDS
;	COMDAT __CT??_R0?AVlogic_error@std@@@8??0logic_error@std@@QAE@ABV01@@Z40
xdata$x	SEGMENT
__CT??_R0?AVlogic_error@std@@@8??0logic_error@std@@QAE@ABV01@@Z40 DD 00H
	DD	FLAT:??_R0?AVlogic_error@std@@@8
	DD	00H
	DD	0ffffffffH
	ORG $+4
	DD	028H
	DD	FLAT:??0logic_error@std@@QAE@ABV01@@Z
xdata$x	ENDS
;	COMDAT ??_R0?AVlogic_error@std@@@8
_DATA	SEGMENT
??_R0?AVlogic_error@std@@@8 DD FLAT:??_7type_info@@6B@	; std::logic_error `RTTI Type Descriptor'
	DD	00H
	DB	'.?AVlogic_error@std@@', 00H
	ORG $-30
	DD	FLAT:??_7type_info@@6B@
	DD	00H
	DB	'.?AVlogic_error@std@@', 00H
_DATA	ENDS
;	COMDAT __CT??_R0?AVexception@@@8??0exception@@QAE@ABV0@@Z12
xdata$x	SEGMENT
__CT??_R0?AVexception@@@8??0exception@@QAE@ABV0@@Z12 DD 00H
	DD	FLAT:??_R0?AVexception@@@8
	DD	00H
	DD	0ffffffffH
	ORG $+4
	DD	0cH
	DD	FLAT:??0exception@@QAE@ABV0@@Z
xdata$x	ENDS
;	COMDAT ??_R0?AVexception@@@8
_DATA	SEGMENT
??_R0?AVexception@@@8 DD FLAT:??_7type_info@@6B@	; exception `RTTI Type Descriptor'
	DD	00H
	DB	'.?AVexception@@', 00H
	ORG $-24
	DD	FLAT:??_7type_info@@6B@
	DD	00H
	DB	'.?AVexception@@', 00H
; Function compile flags: /Odt
_DATA	ENDS
;	COMDAT ?_Xlen@?$vector@PAVCSkinButton2@@V?$allocator@PAVCSkinButton2@@@std@@@std@@IBEXXZ
_TEXT	SEGMENT
_this$ = -84						; size = 4
$T205043 = -80						; size = 28
$T205042 = -52						; size = 40
__$EHRec$ = -12						; size = 12
?_Xlen@?$vector@PAVCSkinButton2@@V?$allocator@PAVCSkinButton2@@@std@@@std@@IBEXXZ PROC NEAR ; std::vector<CSkinButton2 *,std::allocator<CSkinButton2 *> >::_Xlen, COMDAT
; _this$ = ecx

; 883  : 		{	// report a length_error

  00000	55		 push	 ebp
  00001	8b ec		 mov	 ebp, esp
  00003	6a ff		 push	 -1
  00005	68 00 00 00 00	 push	 __ehhandler$?_Xlen@?$vector@PAVCSkinButton2@@V?$allocator@PAVCSkinButton2@@@std@@@std@@IBEXXZ
  0000a	64 a1 00 00 00
	00		 mov	 eax, DWORD PTR fs:__except_list
  00010	50		 push	 eax
  00011	64 89 25 00 00
	00 00		 mov	 DWORD PTR fs:__except_list, esp
  00018	83 ec 48	 sub	 esp, 72			; 00000048H
  0001b	89 4d ac	 mov	 DWORD PTR _this$[ebp], ecx

; 884  : 		_THROW(length_error, "vector<T> too long");

  0001e	68 00 00 00 00	 push	 OFFSET FLAT:??_C@_0BD@OLBABOEK@vector?$DMT?$DO?5too?5long?$AA@
  00023	8d 4d b0	 lea	 ecx, DWORD PTR $T205043[ebp]
  00026	ff 15 00 00 00
	00		 call	 DWORD PTR __imp_??0?$basic_string@DU?$char_traits@D@std@@V?$allocator@D@2@@std@@QAE@PBD@Z
  0002c	c7 45 fc 00 00
	00 00		 mov	 DWORD PTR __$EHRec$[ebp+8], 0
  00033	8d 45 b0	 lea	 eax, DWORD PTR $T205043[ebp]
  00036	50		 push	 eax
  00037	8d 4d cc	 lea	 ecx, DWORD PTR $T205042[ebp]
  0003a	e8 00 00 00 00	 call	 ??0length_error@std@@QAE@ABV?$basic_string@DU?$char_traits@D@std@@V?$allocator@D@2@@1@@Z ; std::length_error::length_error
  0003f	68 00 00 00 00	 push	 OFFSET FLAT:__TI3?AVlength_error@std@@
  00044	8d 4d cc	 lea	 ecx, DWORD PTR $T205042[ebp]
  00047	51		 push	 ecx
  00048	e8 00 00 00 00	 call	 __CxxThrowException@8
$L205041:

; 885  : 		}

  0004d	8b 4d f4	 mov	 ecx, DWORD PTR __$EHRec$[ebp]
  00050	64 89 0d 00 00
	00 00		 mov	 DWORD PTR fs:__except_list, ecx
  00057	8b e5		 mov	 esp, ebp
  00059	5d		 pop	 ebp
  0005a	c3		 ret	 0
_TEXT	ENDS
;	COMDAT text$x
text$x	SEGMENT
$L205044:
  00000	8d 4d b0	 lea	 ecx, DWORD PTR $T205043[ebp]
  00003	ff 25 00 00 00
	00		 jmp	 DWORD PTR __imp_??1?$basic_string@DU?$char_traits@D@std@@V?$allocator@D@2@@std@@QAE@XZ
__ehhandler$?_Xlen@?$vector@PAVCSkinButton2@@V?$allocator@PAVCSkinButton2@@@std@@@std@@IBEXXZ:
  00009	b8 00 00 00 00	 mov	 eax, OFFSET FLAT:$T205046
  0000e	e9 00 00 00 00	 jmp	 ___CxxFrameHandler
text$x	ENDS
?_Xlen@?$vector@PAVCSkinButton2@@V?$allocator@PAVCSkinButton2@@@std@@@std@@IBEXXZ ENDP ; std::vector<CSkinButton2 *,std::allocator<CSkinButton2 *> >::_Xlen
; Function compile flags: /Odt
; File d:\program files (x86)\microsoft visual studio .net 2003\vc7\include\xmemory
;	COMDAT ??0?$allocator@PAVCSkinButton2@@@std@@QAE@ABV01@@Z
_TEXT	SEGMENT
_this$ = -4						; size = 4
___formal$ = 8						; size = 4
??0?$allocator@PAVCSkinButton2@@@std@@QAE@ABV01@@Z PROC NEAR ; std::allocator<CSkinButton2 *>::allocator<CSkinButton2 *>, COMDAT
; _this$ = ecx

; 115  : 	allocator(const allocator<_Ty>&)

  00000	55		 push	 ebp
  00001	8b ec		 mov	 ebp, esp
  00003	51		 push	 ecx
  00004	89 4d fc	 mov	 DWORD PTR _this$[ebp], ecx

; 116  : 		{	// construct by copying (do nothing)
; 117  : 		}

  00007	8b 45 fc	 mov	 eax, DWORD PTR _this$[ebp]
  0000a	8b e5		 mov	 esp, ebp
  0000c	5d		 pop	 ebp
  0000d	c2 04 00	 ret	 4
??0?$allocator@PAVCSkinButton2@@@std@@QAE@ABV01@@Z ENDP	; std::allocator<CSkinButton2 *>::allocator<CSkinButton2 *>
_TEXT	ENDS
EXTRN	??3@YAXPAX@Z:NEAR				; operator delete
; Function compile flags: /Odt
;	COMDAT ?deallocate@?$allocator@PAVCSkinButton2@@@std@@QAEXPAPAVCSkinButton2@@I@Z
_TEXT	SEGMENT
_this$ = -4						; size = 4
__Ptr$ = 8						; size = 4
___formal$ = 12						; size = 4
?deallocate@?$allocator@PAVCSkinButton2@@@std@@QAEXPAPAVCSkinButton2@@I@Z PROC NEAR ; std::allocator<CSkinButton2 *>::deallocate, COMDAT
; _this$ = ecx

; 131  : 		{	// deallocate object at _Ptr, ignore size

  00000	55		 push	 ebp
  00001	8b ec		 mov	 ebp, esp
  00003	51		 push	 ecx
  00004	89 4d fc	 mov	 DWORD PTR _this$[ebp], ecx

; 132  : 		operator delete(_Ptr);

  00007	8b 45 08	 mov	 eax, DWORD PTR __Ptr$[ebp]
  0000a	50		 push	 eax
  0000b	e8 00 00 00 00	 call	 ??3@YAXPAX@Z		; operator delete
  00010	83 c4 04	 add	 esp, 4

; 133  : 		}

  00013	8b e5		 mov	 esp, ebp
  00015	5d		 pop	 ebp
  00016	c2 08 00	 ret	 8
?deallocate@?$allocator@PAVCSkinButton2@@@std@@QAEXPAPAVCSkinButton2@@I@Z ENDP ; std::allocator<CSkinButton2 *>::deallocate
_TEXT	ENDS
PUBLIC	??$_Allocate@PAVCSkinButton2@@@std@@YAPAPAVCSkinButton2@@IPAPAV1@@Z ; std::_Allocate<CSkinButton2 *>
; Function compile flags: /Odt
;	COMDAT ?allocate@?$allocator@PAVCSkinButton2@@@std@@QAEPAPAVCSkinButton2@@I@Z
_TEXT	SEGMENT
_this$ = -4						; size = 4
__Count$ = 8						; size = 4
?allocate@?$allocator@PAVCSkinButton2@@@std@@QAEPAPAVCSkinButton2@@I@Z PROC NEAR ; std::allocator<CSkinButton2 *>::allocate, COMDAT
; _this$ = ecx

; 136  : 		{	// allocate array of _Count elements

  00000	55		 push	 ebp
  00001	8b ec		 mov	 ebp, esp
  00003	51		 push	 ecx
  00004	89 4d fc	 mov	 DWORD PTR _this$[ebp], ecx

; 137  : 		return (_Allocate(_Count, (pointer)0));

  00007	6a 00		 push	 0
  00009	8b 45 08	 mov	 eax, DWORD PTR __Count$[ebp]
  0000c	50		 push	 eax
  0000d	e8 00 00 00 00	 call	 ??$_Allocate@PAVCSkinButton2@@@std@@YAPAPAVCSkinButton2@@IPAPAV1@@Z ; std::_Allocate<CSkinButton2 *>
  00012	83 c4 08	 add	 esp, 8

; 138  : 		}

  00015	8b e5		 mov	 esp, ebp
  00017	5d		 pop	 ebp
  00018	c2 04 00	 ret	 4
?allocate@?$allocator@PAVCSkinButton2@@@std@@QAEPAPAVCSkinButton2@@I@Z ENDP ; std::allocator<CSkinButton2 *>::allocate
; Function compile flags: /Odt
; File d:\program files (x86)\microsoft visual studio .net 2003\vc7\include\vector
_TEXT	ENDS
;	COMDAT ??Yiterator@?$vector@PAVCSkinButton2@@V?$allocator@PAVCSkinButton2@@@std@@@std@@QAEAAV012@H@Z
_TEXT	SEGMENT
_this$ = -4						; size = 4
__Off$ = 8						; size = 4
??Yiterator@?$vector@PAVCSkinButton2@@V?$allocator@PAVCSkinButton2@@@std@@@std@@QAEAAV012@H@Z PROC NEAR ; std::vector<CSkinButton2 *,std::allocator<CSkinButton2 *> >::iterator::operator+=, COMDAT
; _this$ = ecx

; 255  : 			{	// increment by integer

  00000	55		 push	 ebp
  00001	8b ec		 mov	 ebp, esp
  00003	51		 push	 ecx
  00004	89 4d fc	 mov	 DWORD PTR _this$[ebp], ecx

; 256  : 			this->_Myptr += _Off;

  00007	8b 45 fc	 mov	 eax, DWORD PTR _this$[ebp]
  0000a	8b 08		 mov	 ecx, DWORD PTR [eax]
  0000c	8b 55 08	 mov	 edx, DWORD PTR __Off$[ebp]
  0000f	8d 04 91	 lea	 eax, DWORD PTR [ecx+edx*4]
  00012	8b 4d fc	 mov	 ecx, DWORD PTR _this$[ebp]
  00015	89 01		 mov	 DWORD PTR [ecx], eax

; 257  : 			return (*this);

  00017	8b 45 fc	 mov	 eax, DWORD PTR _this$[ebp]

; 258  : 			}

  0001a	8b e5		 mov	 esp, ebp
  0001c	5d		 pop	 ebp
  0001d	c2 04 00	 ret	 4
??Yiterator@?$vector@PAVCSkinButton2@@V?$allocator@PAVCSkinButton2@@@std@@@std@@QAEAAV012@H@Z ENDP ; std::vector<CSkinButton2 *,std::allocator<CSkinButton2 *> >::iterator::operator+=
_TEXT	ENDS
PUBLIC	??Gconst_iterator@?$vector@PAVCSkinButton2@@V?$allocator@PAVCSkinButton2@@@std@@@std@@QBEHABV012@@Z ; std::vector<CSkinButton2 *,std::allocator<CSkinButton2 *> >::const_iterator::operator-
; Function compile flags: /Odt
;	COMDAT ??Giterator@?$vector@PAVCSkinButton2@@V?$allocator@PAVCSkinButton2@@@std@@@std@@QBEHABVconst_iterator@12@@Z
_TEXT	SEGMENT
_this$ = -8						; size = 4
$T205061 = -4						; size = 4
__Right$ = 8						; size = 4
??Giterator@?$vector@PAVCSkinButton2@@V?$allocator@PAVCSkinButton2@@@std@@@std@@QBEHABVconst_iterator@12@@Z PROC NEAR ; std::vector<CSkinButton2 *,std::allocator<CSkinButton2 *> >::iterator::operator-, COMDAT
; _this$ = ecx

; 278  : 			{	// return difference of iterators

  00000	55		 push	 ebp
  00001	8b ec		 mov	 ebp, esp
  00003	83 ec 08	 sub	 esp, 8
  00006	89 4d f8	 mov	 DWORD PTR _this$[ebp], ecx

; 279  : 			return ((const_iterator)*this - _Right);

  00009	8b 45 f8	 mov	 eax, DWORD PTR _this$[ebp]
  0000c	8b 08		 mov	 ecx, DWORD PTR [eax]
  0000e	89 4d fc	 mov	 DWORD PTR $T205061[ebp], ecx
  00011	8b 55 08	 mov	 edx, DWORD PTR __Right$[ebp]
  00014	52		 push	 edx
  00015	8d 4d fc	 lea	 ecx, DWORD PTR $T205061[ebp]
  00018	e8 00 00 00 00	 call	 ??Gconst_iterator@?$vector@PAVCSkinButton2@@V?$allocator@PAVCSkinButton2@@@std@@@std@@QBEHABV012@@Z ; std::vector<CSkinButton2 *,std::allocator<CSkinButton2 *> >::const_iterator::operator-

; 280  : 			}

  0001d	8b e5		 mov	 esp, ebp
  0001f	5d		 pop	 ebp
  00020	c2 04 00	 ret	 4
??Giterator@?$vector@PAVCSkinButton2@@V?$allocator@PAVCSkinButton2@@@std@@@std@@QBEHABVconst_iterator@12@@Z ENDP ; std::vector<CSkinButton2 *,std::allocator<CSkinButton2 *> >::iterator::operator-
; Function compile flags: /Odt
_TEXT	ENDS
;	COMDAT ??0const_iterator@?$vector@PAVCSkinButton2@@V?$allocator@PAVCSkinButton2@@@std@@@std@@QAE@PAPAVCSkinButton2@@@Z
_TEXT	SEGMENT
_this$ = -4						; size = 4
__Ptr$ = 8						; size = 4
??0const_iterator@?$vector@PAVCSkinButton2@@V?$allocator@PAVCSkinButton2@@@std@@@std@@QAE@PAPAVCSkinButton2@@@Z PROC NEAR ; std::vector<CSkinButton2 *,std::allocator<CSkinButton2 *> >::const_iterator::const_iterator, COMDAT
; _this$ = ecx

; 73   : 		const_iterator(_Tptr _Ptr)

  00000	55		 push	 ebp
  00001	8b ec		 mov	 ebp, esp
  00003	51		 push	 ecx
  00004	89 4d fc	 mov	 DWORD PTR _this$[ebp], ecx

; 74   : 			{	// construct with pointer _Ptr
; 75   : 			_Myptr = _Ptr;

  00007	8b 45 fc	 mov	 eax, DWORD PTR _this$[ebp]
  0000a	8b 4d 08	 mov	 ecx, DWORD PTR __Ptr$[ebp]
  0000d	89 08		 mov	 DWORD PTR [eax], ecx

; 76   : 			}

  0000f	8b 45 fc	 mov	 eax, DWORD PTR _this$[ebp]
  00012	8b e5		 mov	 esp, ebp
  00014	5d		 pop	 ebp
  00015	c2 04 00	 ret	 4
??0const_iterator@?$vector@PAVCSkinButton2@@V?$allocator@PAVCSkinButton2@@@std@@@std@@QAE@PAPAVCSkinButton2@@@Z ENDP ; std::vector<CSkinButton2 *,std::allocator<CSkinButton2 *> >::const_iterator::const_iterator
_TEXT	ENDS
PUBLIC	?max_size@?$allocator@K@std@@QBEIXZ		; std::allocator<unsigned long>::max_size
; Function compile flags: /Odt
;	COMDAT ?max_size@?$vector@KV?$allocator@K@std@@@std@@QBEIXZ
_TEXT	SEGMENT
_this$ = -4						; size = 4
?max_size@?$vector@KV?$allocator@K@std@@@std@@QBEIXZ PROC NEAR ; std::vector<unsigned long,std::allocator<unsigned long> >::max_size, COMDAT
; _this$ = ecx

; 520  : 		{	// return maximum possible length of sequence

  00000	55		 push	 ebp
  00001	8b ec		 mov	 ebp, esp
  00003	51		 push	 ecx
  00004	89 4d fc	 mov	 DWORD PTR _this$[ebp], ecx

; 521  : 		return (this->_Alval.max_size());

  00007	8b 4d fc	 mov	 ecx, DWORD PTR _this$[ebp]
  0000a	e8 00 00 00 00	 call	 ?max_size@?$allocator@K@std@@QBEIXZ ; std::allocator<unsigned long>::max_size

; 522  : 		}

  0000f	8b e5		 mov	 esp, ebp
  00011	5d		 pop	 ebp
  00012	c3		 ret	 0
?max_size@?$vector@KV?$allocator@K@std@@@std@@QBEIXZ ENDP ; std::vector<unsigned long,std::allocator<unsigned long> >::max_size
_TEXT	ENDS
PUBLIC	??$_Destroy_range@KV?$allocator@K@std@@@std@@YAXPAK0AAV?$allocator@K@0@@Z ; std::_Destroy_range<unsigned long,std::allocator<unsigned long> >
; Function compile flags: /Odt
;	COMDAT ?_Destroy@?$vector@KV?$allocator@K@std@@@std@@IAEXPAK0@Z
_TEXT	SEGMENT
_this$ = -4						; size = 4
__First$ = 8						; size = 4
__Last$ = 12						; size = 4
?_Destroy@?$vector@KV?$allocator@K@std@@@std@@IAEXPAK0@Z PROC NEAR ; std::vector<unsigned long,std::allocator<unsigned long> >::_Destroy, COMDAT
; _this$ = ecx

; 786  : 		{	// destroy [_First, _Last) using allocator

  00000	55		 push	 ebp
  00001	8b ec		 mov	 ebp, esp
  00003	51		 push	 ecx
  00004	89 4d fc	 mov	 DWORD PTR _this$[ebp], ecx

; 787  : 		_Destroy_range(_First, _Last, this->_Alval);

  00007	8b 45 fc	 mov	 eax, DWORD PTR _this$[ebp]
  0000a	50		 push	 eax
  0000b	8b 4d 0c	 mov	 ecx, DWORD PTR __Last$[ebp]
  0000e	51		 push	 ecx
  0000f	8b 55 08	 mov	 edx, DWORD PTR __First$[ebp]
  00012	52		 push	 edx
  00013	e8 00 00 00 00	 call	 ??$_Destroy_range@KV?$allocator@K@std@@@std@@YAXPAK0AAV?$allocator@K@0@@Z ; std::_Destroy_range<unsigned long,std::allocator<unsigned long> >
  00018	83 c4 0c	 add	 esp, 12			; 0000000cH

; 788  : 		}

  0001b	8b e5		 mov	 esp, ebp
  0001d	5d		 pop	 ebp
  0001e	c2 08 00	 ret	 8
?_Destroy@?$vector@KV?$allocator@K@std@@@std@@IAEXPAK0@Z ENDP ; std::vector<unsigned long,std::allocator<unsigned long> >::_Destroy
_TEXT	ENDS
PUBLIC	??$_Ucopy@PAK@?$vector@KV?$allocator@K@std@@@std@@IAEPAKPAK00@Z ; std::vector<unsigned long,std::allocator<unsigned long> >::_Ucopy<unsigned long *>
PUBLIC	??$fill@PAKK@std@@YAXPAK0ABK@Z			; std::fill<unsigned long *,unsigned long>
PUBLIC	??$copy_backward@PAKPAK@std@@YAPAKPAK00@Z	; std::copy_backward<unsigned long *,unsigned long *>
;	COMDAT xdata$x
xdata$x	SEGMENT
$T205079 DD	0ffffffffH
	DD	00H
	DD	0ffffffffH
	DD	00H
	DD	0ffffffffH
	DD	00H
	DD	0ffffffffH
	DD	00H
$T205081 DD	00H
	DD	00H
	DD	00H
	DD	FLAT:$L205073
$T205082 DD	00H
	DD	00H
	DD	00H
	DD	FLAT:$L205075
$T205080 DD	00H
	DD	00H
	DD	01H
	DD	01H
	DD	FLAT:$T205081
	DD	02H
	DD	02H
	DD	03H
	DD	01H
	DD	FLAT:$T205082
$T205077 DD	019930520H
	DD	04H
	DD	FLAT:$T205079
	DD	02H
	DD	FLAT:$T205080
	DD	2 DUP(00H)
; Function compile flags: /Odt
xdata$x	ENDS
;	COMDAT ?_Insert_n@?$vector@KV?$allocator@K@std@@@std@@IAEXViterator@12@IABK@Z
_TEXT	SEGMENT
tv240 = -52						; size = 4
tv239 = -48						; size = 4
tv85 = -44						; size = 4
_this$ = -40						; size = 4
__Oldend$203426 = -36					; size = 4
__Newvec$203405 = -32					; size = 4
__Ptr$203406 = -28					; size = 4
__Capacity$ = -24					; size = 4
__Tmp$ = -20						; size = 4
__$EHRec$ = -16						; size = 16
__Where$ = 8						; size = 4
__Count$ = 12						; size = 4
__Val$ = 16						; size = 4
?_Insert_n@?$vector@KV?$allocator@K@std@@@std@@IAEXViterator@12@IABK@Z PROC NEAR ; std::vector<unsigned long,std::allocator<unsigned long> >::_Insert_n, COMDAT
; _this$ = ecx

; 809  : 		{	// insert _Count * _Val at _Where

  00000	55		 push	 ebp
  00001	8b ec		 mov	 ebp, esp
  00003	6a ff		 push	 -1
  00005	68 00 00 00 00	 push	 __ehhandler$?_Insert_n@?$vector@KV?$allocator@K@std@@@std@@IAEXViterator@12@IABK@Z
  0000a	64 a1 00 00 00
	00		 mov	 eax, DWORD PTR fs:__except_list
  00010	50		 push	 eax
  00011	64 89 25 00 00
	00 00		 mov	 DWORD PTR fs:__except_list, esp
  00018	51		 push	 ecx
  00019	83 ec 24	 sub	 esp, 36			; 00000024H
  0001c	53		 push	 ebx
  0001d	56		 push	 esi
  0001e	57		 push	 edi
  0001f	89 65 f0	 mov	 DWORD PTR __$EHRec$[ebp], esp
  00022	89 4d d8	 mov	 DWORD PTR _this$[ebp], ecx

; 810  : 		_Ty _Tmp = _Val;	// in case _Val is in sequence

  00025	8b 45 10	 mov	 eax, DWORD PTR __Val$[ebp]
  00028	8b 08		 mov	 ecx, DWORD PTR [eax]
  0002a	89 4d ec	 mov	 DWORD PTR __Tmp$[ebp], ecx

; 811  : 		size_type _Capacity = capacity();

  0002d	8b 4d d8	 mov	 ecx, DWORD PTR _this$[ebp]
  00030	e8 00 00 00 00	 call	 ?capacity@?$vector@KV?$allocator@K@std@@@std@@QBEIXZ ; std::vector<unsigned long,std::allocator<unsigned long> >::capacity
  00035	89 45 e8	 mov	 DWORD PTR __Capacity$[ebp], eax

; 812  : 
; 813  : 		if (_Count == 0)

  00038	83 7d 0c 00	 cmp	 DWORD PTR __Count$[ebp], 0
  0003c	75 05		 jne	 SHORT $L203399

; 814  : 			;
; 815  : 		else if (max_size() - size() < _Count)

  0003e	e9 c6 02 00 00	 jmp	 $L205069
$L203399:
  00043	8b 4d d8	 mov	 ecx, DWORD PTR _this$[ebp]
  00046	e8 00 00 00 00	 call	 ?size@?$vector@KV?$allocator@K@std@@@std@@QBEIXZ ; std::vector<unsigned long,std::allocator<unsigned long> >::size
  0004b	8b f0		 mov	 esi, eax
  0004d	8b 4d d8	 mov	 ecx, DWORD PTR _this$[ebp]
  00050	e8 00 00 00 00	 call	 ?max_size@?$vector@KV?$allocator@K@std@@@std@@QBEIXZ ; std::vector<unsigned long,std::allocator<unsigned long> >::max_size
  00055	2b c6		 sub	 eax, esi
  00057	3b 45 0c	 cmp	 eax, DWORD PTR __Count$[ebp]
  0005a	73 0d		 jae	 SHORT $L203401

; 816  : 			_Xlen();	// result too long

  0005c	8b 4d d8	 mov	 ecx, DWORD PTR _this$[ebp]
  0005f	e8 00 00 00 00	 call	 ?_Xlen@?$vector@KV?$allocator@K@std@@@std@@IBEXXZ ; std::vector<unsigned long,std::allocator<unsigned long> >::_Xlen

; 817  : 		else if (_Capacity < size() + _Count)

  00064	e9 a0 02 00 00	 jmp	 $L205069
$L203401:
  00069	8b 4d d8	 mov	 ecx, DWORD PTR _this$[ebp]
  0006c	e8 00 00 00 00	 call	 ?size@?$vector@KV?$allocator@K@std@@@std@@QBEIXZ ; std::vector<unsigned long,std::allocator<unsigned long> >::size
  00071	03 45 0c	 add	 eax, DWORD PTR __Count$[ebp]
  00074	39 45 e8	 cmp	 DWORD PTR __Capacity$[ebp], eax
  00077	0f 83 66 01 00
	00		 jae	 $L203403

; 818  : 			{	// not enough room, reallocate
; 819  : 			_Capacity = max_size() - _Capacity / 2 < _Capacity
; 820  : 				? 0 : _Capacity + _Capacity / 2;	// try to grow by 50%

  0007d	8b 75 e8	 mov	 esi, DWORD PTR __Capacity$[ebp]
  00080	d1 ee		 shr	 esi, 1
  00082	8b 4d d8	 mov	 ecx, DWORD PTR _this$[ebp]
  00085	e8 00 00 00 00	 call	 ?max_size@?$vector@KV?$allocator@K@std@@@std@@QBEIXZ ; std::vector<unsigned long,std::allocator<unsigned long> >::max_size
  0008a	2b c6		 sub	 eax, esi
  0008c	3b 45 e8	 cmp	 eax, DWORD PTR __Capacity$[ebp]
  0008f	73 09		 jae	 SHORT $L205070
  00091	c7 45 d4 00 00
	00 00		 mov	 DWORD PTR tv85[ebp], 0
  00098	eb 0b		 jmp	 SHORT $L205071
$L205070:
  0009a	8b 55 e8	 mov	 edx, DWORD PTR __Capacity$[ebp]
  0009d	d1 ea		 shr	 edx, 1
  0009f	03 55 e8	 add	 edx, DWORD PTR __Capacity$[ebp]
  000a2	89 55 d4	 mov	 DWORD PTR tv85[ebp], edx
$L205071:
  000a5	8b 45 d4	 mov	 eax, DWORD PTR tv85[ebp]
  000a8	89 45 e8	 mov	 DWORD PTR __Capacity$[ebp], eax

; 821  : 			if (_Capacity < size() + _Count)

  000ab	8b 4d d8	 mov	 ecx, DWORD PTR _this$[ebp]
  000ae	e8 00 00 00 00	 call	 ?size@?$vector@KV?$allocator@K@std@@@std@@QBEIXZ ; std::vector<unsigned long,std::allocator<unsigned long> >::size
  000b3	03 45 0c	 add	 eax, DWORD PTR __Count$[ebp]
  000b6	39 45 e8	 cmp	 DWORD PTR __Capacity$[ebp], eax
  000b9	73 0e		 jae	 SHORT $L203404

; 822  : 				_Capacity = size() + _Count;

  000bb	8b 4d d8	 mov	 ecx, DWORD PTR _this$[ebp]
  000be	e8 00 00 00 00	 call	 ?size@?$vector@KV?$allocator@K@std@@@std@@QBEIXZ ; std::vector<unsigned long,std::allocator<unsigned long> >::size
  000c3	03 45 0c	 add	 eax, DWORD PTR __Count$[ebp]
  000c6	89 45 e8	 mov	 DWORD PTR __Capacity$[ebp], eax
$L203404:

; 823  : 			pointer _Newvec = this->_Alval.allocate(_Capacity);

  000c9	8b 4d e8	 mov	 ecx, DWORD PTR __Capacity$[ebp]
  000cc	51		 push	 ecx
  000cd	8b 4d d8	 mov	 ecx, DWORD PTR _this$[ebp]
  000d0	e8 00 00 00 00	 call	 ?allocate@?$allocator@K@std@@QAEPAKI@Z ; std::allocator<unsigned long>::allocate
  000d5	89 45 e0	 mov	 DWORD PTR __Newvec$203405[ebp], eax

; 824  : 			pointer _Ptr = _Newvec;

  000d8	8b 55 e0	 mov	 edx, DWORD PTR __Newvec$203405[ebp]
  000db	89 55 e4	 mov	 DWORD PTR __Ptr$203406[ebp], edx

; 825  : 
; 826  : 			_TRY_BEGIN

  000de	c7 45 fc 00 00
	00 00		 mov	 DWORD PTR __$EHRec$[ebp+12], 0

; 827  : 			_Ptr = _Ucopy(_Myfirst, _ITER_BASE(_Where),
; 828  : 				_Newvec);	// copy prefix

  000e5	8b 45 e0	 mov	 eax, DWORD PTR __Newvec$203405[ebp]
  000e8	50		 push	 eax
  000e9	8b 4d 08	 mov	 ecx, DWORD PTR __Where$[ebp]
  000ec	51		 push	 ecx
  000ed	8b 55 d8	 mov	 edx, DWORD PTR _this$[ebp]
  000f0	8b 42 04	 mov	 eax, DWORD PTR [edx+4]
  000f3	50		 push	 eax
  000f4	8b 4d d8	 mov	 ecx, DWORD PTR _this$[ebp]
  000f7	e8 00 00 00 00	 call	 ??$_Ucopy@PAK@?$vector@KV?$allocator@K@std@@@std@@IAEPAKPAK00@Z ; std::vector<unsigned long,std::allocator<unsigned long> >::_Ucopy<unsigned long *>
  000fc	89 45 d0	 mov	 DWORD PTR tv239[ebp], eax
  000ff	8b 4d d0	 mov	 ecx, DWORD PTR tv239[ebp]
  00102	89 4d e4	 mov	 DWORD PTR __Ptr$203406[ebp], ecx

; 829  : 			_Ptr = _Ufill(_Ptr, _Count, _Tmp);	// add new stuff

  00105	8d 55 ec	 lea	 edx, DWORD PTR __Tmp$[ebp]
  00108	52		 push	 edx
  00109	8b 45 0c	 mov	 eax, DWORD PTR __Count$[ebp]
  0010c	50		 push	 eax
  0010d	8b 4d e4	 mov	 ecx, DWORD PTR __Ptr$203406[ebp]
  00110	51		 push	 ecx
  00111	8b 4d d8	 mov	 ecx, DWORD PTR _this$[ebp]
  00114	e8 00 00 00 00	 call	 ?_Ufill@?$vector@KV?$allocator@K@std@@@std@@IAEPAKPAKIABK@Z ; std::vector<unsigned long,std::allocator<unsigned long> >::_Ufill
  00119	89 45 cc	 mov	 DWORD PTR tv240[ebp], eax
  0011c	8b 55 cc	 mov	 edx, DWORD PTR tv240[ebp]
  0011f	89 55 e4	 mov	 DWORD PTR __Ptr$203406[ebp], edx

; 830  : 			_Ucopy(_ITER_BASE(_Where), _Mylast, _Ptr);	// copy suffix

  00122	8b 45 e4	 mov	 eax, DWORD PTR __Ptr$203406[ebp]
  00125	50		 push	 eax
  00126	8b 4d d8	 mov	 ecx, DWORD PTR _this$[ebp]
  00129	8b 51 08	 mov	 edx, DWORD PTR [ecx+8]
  0012c	52		 push	 edx
  0012d	8b 45 08	 mov	 eax, DWORD PTR __Where$[ebp]
  00130	50		 push	 eax
  00131	8b 4d d8	 mov	 ecx, DWORD PTR _this$[ebp]
  00134	e8 00 00 00 00	 call	 ??$_Ucopy@PAK@?$vector@KV?$allocator@K@std@@@std@@IAEPAKPAK00@Z ; std::vector<unsigned long,std::allocator<unsigned long> >::_Ucopy<unsigned long *>
  00139	eb 29		 jmp	 SHORT $L205072
$L205073:

; 831  : 			_CATCH_ALL
; 832  : 			_Destroy(_Newvec, _Ptr);

  0013b	8b 4d e4	 mov	 ecx, DWORD PTR __Ptr$203406[ebp]
  0013e	51		 push	 ecx
  0013f	8b 55 e0	 mov	 edx, DWORD PTR __Newvec$203405[ebp]
  00142	52		 push	 edx
  00143	8b 4d d8	 mov	 ecx, DWORD PTR _this$[ebp]
  00146	e8 00 00 00 00	 call	 ?_Destroy@?$vector@KV?$allocator@K@std@@@std@@IAEXPAK0@Z ; std::vector<unsigned long,std::allocator<unsigned long> >::_Destroy

; 833  : 			this->_Alval.deallocate(_Newvec, _Capacity);

  0014b	8b 45 e8	 mov	 eax, DWORD PTR __Capacity$[ebp]
  0014e	50		 push	 eax
  0014f	8b 4d e0	 mov	 ecx, DWORD PTR __Newvec$203405[ebp]
  00152	51		 push	 ecx
  00153	8b 4d d8	 mov	 ecx, DWORD PTR _this$[ebp]
  00156	e8 00 00 00 00	 call	 ?deallocate@?$allocator@K@std@@QAEXPAKI@Z ; std::allocator<unsigned long>::deallocate

; 834  : 			_RERAISE;

  0015b	6a 00		 push	 0
  0015d	6a 00		 push	 0
  0015f	e8 00 00 00 00	 call	 __CxxThrowException@8
$L205072:

; 835  : 			_CATCH_END

  00164	c7 45 fc ff ff
	ff ff		 mov	 DWORD PTR __$EHRec$[ebp+12], -1

; 836  : 
; 837  : 			_Count += size();

  0016b	8b 4d d8	 mov	 ecx, DWORD PTR _this$[ebp]
  0016e	e8 00 00 00 00	 call	 ?size@?$vector@KV?$allocator@K@std@@@std@@QBEIXZ ; std::vector<unsigned long,std::allocator<unsigned long> >::size
  00173	03 45 0c	 add	 eax, DWORD PTR __Count$[ebp]
  00176	89 45 0c	 mov	 DWORD PTR __Count$[ebp], eax

; 838  : 			if (_Myfirst != 0)

  00179	8b 55 d8	 mov	 edx, DWORD PTR _this$[ebp]
  0017c	83 7a 04 00	 cmp	 DWORD PTR [edx+4], 0
  00180	74 35		 je	 SHORT $L203413

; 839  : 				{	// destroy and deallocate old array
; 840  : 				_Destroy(_Myfirst, _Mylast);

  00182	8b 45 d8	 mov	 eax, DWORD PTR _this$[ebp]
  00185	8b 48 08	 mov	 ecx, DWORD PTR [eax+8]
  00188	51		 push	 ecx
  00189	8b 55 d8	 mov	 edx, DWORD PTR _this$[ebp]
  0018c	8b 42 04	 mov	 eax, DWORD PTR [edx+4]
  0018f	50		 push	 eax
  00190	8b 4d d8	 mov	 ecx, DWORD PTR _this$[ebp]
  00193	e8 00 00 00 00	 call	 ?_Destroy@?$vector@KV?$allocator@K@std@@@std@@IAEXPAK0@Z ; std::vector<unsigned long,std::allocator<unsigned long> >::_Destroy

; 841  : 				this->_Alval.deallocate(_Myfirst, _Myend - _Myfirst);

  00198	8b 4d d8	 mov	 ecx, DWORD PTR _this$[ebp]
  0019b	8b 55 d8	 mov	 edx, DWORD PTR _this$[ebp]
  0019e	8b 41 0c	 mov	 eax, DWORD PTR [ecx+12]
  001a1	2b 42 04	 sub	 eax, DWORD PTR [edx+4]
  001a4	c1 f8 02	 sar	 eax, 2
  001a7	50		 push	 eax
  001a8	8b 4d d8	 mov	 ecx, DWORD PTR _this$[ebp]
  001ab	8b 51 04	 mov	 edx, DWORD PTR [ecx+4]
  001ae	52		 push	 edx
  001af	8b 4d d8	 mov	 ecx, DWORD PTR _this$[ebp]
  001b2	e8 00 00 00 00	 call	 ?deallocate@?$allocator@K@std@@QAEXPAKI@Z ; std::allocator<unsigned long>::deallocate
$L203413:

; 842  : 				}
; 843  : 			_Myend = _Newvec + _Capacity;

  001b7	8b 45 e8	 mov	 eax, DWORD PTR __Capacity$[ebp]
  001ba	8b 4d e0	 mov	 ecx, DWORD PTR __Newvec$203405[ebp]
  001bd	8d 14 81	 lea	 edx, DWORD PTR [ecx+eax*4]
  001c0	8b 45 d8	 mov	 eax, DWORD PTR _this$[ebp]
  001c3	89 50 0c	 mov	 DWORD PTR [eax+12], edx

; 844  : 			_Mylast = _Newvec + _Count;

  001c6	8b 4d 0c	 mov	 ecx, DWORD PTR __Count$[ebp]
  001c9	8b 55 e0	 mov	 edx, DWORD PTR __Newvec$203405[ebp]
  001cc	8d 04 8a	 lea	 eax, DWORD PTR [edx+ecx*4]
  001cf	8b 4d d8	 mov	 ecx, DWORD PTR _this$[ebp]
  001d2	89 41 08	 mov	 DWORD PTR [ecx+8], eax

; 845  : 			_Myfirst = _Newvec;

  001d5	8b 55 d8	 mov	 edx, DWORD PTR _this$[ebp]
  001d8	8b 45 e0	 mov	 eax, DWORD PTR __Newvec$203405[ebp]
  001db	89 42 04	 mov	 DWORD PTR [edx+4], eax

; 846  : 			}
; 847  : 		else if ((size_type)(_Mylast - _ITER_BASE(_Where)) < _Count)

  001de	e9 26 01 00 00	 jmp	 $L205069
$L203403:
  001e3	8b 4d d8	 mov	 ecx, DWORD PTR _this$[ebp]
  001e6	8b 51 08	 mov	 edx, DWORD PTR [ecx+8]
  001e9	2b 55 08	 sub	 edx, DWORD PTR __Where$[ebp]
  001ec	c1 fa 02	 sar	 edx, 2
  001ef	3b 55 0c	 cmp	 edx, DWORD PTR __Count$[ebp]
  001f2	0f 83 ad 00 00
	00		 jae	 $L203416

; 848  : 			{	// new stuff spills off end
; 849  : 			_Ucopy(_ITER_BASE(_Where), _Mylast,
; 850  : 				_ITER_BASE(_Where) + _Count);	// copy suffix

  001f8	8b 45 0c	 mov	 eax, DWORD PTR __Count$[ebp]
  001fb	8b 4d 08	 mov	 ecx, DWORD PTR __Where$[ebp]
  001fe	8d 14 81	 lea	 edx, DWORD PTR [ecx+eax*4]
  00201	52		 push	 edx
  00202	8b 45 d8	 mov	 eax, DWORD PTR _this$[ebp]
  00205	8b 48 08	 mov	 ecx, DWORD PTR [eax+8]
  00208	51		 push	 ecx
  00209	8b 55 08	 mov	 edx, DWORD PTR __Where$[ebp]
  0020c	52		 push	 edx
  0020d	8b 4d d8	 mov	 ecx, DWORD PTR _this$[ebp]
  00210	e8 00 00 00 00	 call	 ??$_Ucopy@PAK@?$vector@KV?$allocator@K@std@@@std@@IAEPAKPAK00@Z ; std::vector<unsigned long,std::allocator<unsigned long> >::_Ucopy<unsigned long *>

; 851  : 
; 852  : 			_TRY_BEGIN

  00215	c7 45 fc 02 00
	00 00		 mov	 DWORD PTR __$EHRec$[ebp+12], 2

; 853  : 			_Ufill(_Mylast, _Count - (_Mylast - _ITER_BASE(_Where)),
; 854  : 				_Tmp);	// insert new stuff off end

  0021c	8d 45 ec	 lea	 eax, DWORD PTR __Tmp$[ebp]
  0021f	50		 push	 eax
  00220	8b 4d d8	 mov	 ecx, DWORD PTR _this$[ebp]
  00223	8b 51 08	 mov	 edx, DWORD PTR [ecx+8]
  00226	2b 55 08	 sub	 edx, DWORD PTR __Where$[ebp]
  00229	c1 fa 02	 sar	 edx, 2
  0022c	8b 45 0c	 mov	 eax, DWORD PTR __Count$[ebp]
  0022f	2b c2		 sub	 eax, edx
  00231	50		 push	 eax
  00232	8b 4d d8	 mov	 ecx, DWORD PTR _this$[ebp]
  00235	8b 51 08	 mov	 edx, DWORD PTR [ecx+8]
  00238	52		 push	 edx
  00239	8b 4d d8	 mov	 ecx, DWORD PTR _this$[ebp]
  0023c	e8 00 00 00 00	 call	 ?_Ufill@?$vector@KV?$allocator@K@std@@@std@@IAEPAKPAKIABK@Z ; std::vector<unsigned long,std::allocator<unsigned long> >::_Ufill
  00241	eb 28		 jmp	 SHORT $L205074
$L205075:

; 855  : 			_CATCH_ALL
; 856  : 			_Destroy(_ITER_BASE(_Where) + _Count, _Mylast + _Count);

  00243	8b 45 d8	 mov	 eax, DWORD PTR _this$[ebp]
  00246	8b 48 08	 mov	 ecx, DWORD PTR [eax+8]
  00249	8b 55 0c	 mov	 edx, DWORD PTR __Count$[ebp]
  0024c	8d 04 91	 lea	 eax, DWORD PTR [ecx+edx*4]
  0024f	50		 push	 eax
  00250	8b 4d 0c	 mov	 ecx, DWORD PTR __Count$[ebp]
  00253	8b 55 08	 mov	 edx, DWORD PTR __Where$[ebp]
  00256	8d 04 8a	 lea	 eax, DWORD PTR [edx+ecx*4]
  00259	50		 push	 eax
  0025a	8b 4d d8	 mov	 ecx, DWORD PTR _this$[ebp]
  0025d	e8 00 00 00 00	 call	 ?_Destroy@?$vector@KV?$allocator@K@std@@@std@@IAEXPAK0@Z ; std::vector<unsigned long,std::allocator<unsigned long> >::_Destroy

; 857  : 			_RERAISE;

  00262	6a 00		 push	 0
  00264	6a 00		 push	 0
  00266	e8 00 00 00 00	 call	 __CxxThrowException@8
$L205074:

; 858  : 			_CATCH_END

  0026b	c7 45 fc ff ff
	ff ff		 mov	 DWORD PTR __$EHRec$[ebp+12], -1

; 859  : 
; 860  : 			_Mylast += _Count;

  00272	8b 4d d8	 mov	 ecx, DWORD PTR _this$[ebp]
  00275	8b 51 08	 mov	 edx, DWORD PTR [ecx+8]
  00278	8b 45 0c	 mov	 eax, DWORD PTR __Count$[ebp]
  0027b	8d 0c 82	 lea	 ecx, DWORD PTR [edx+eax*4]
  0027e	8b 55 d8	 mov	 edx, DWORD PTR _this$[ebp]
  00281	89 4a 08	 mov	 DWORD PTR [edx+8], ecx

; 861  : 			fill(_ITER_BASE(_Where), _Mylast - _Count,
; 862  : 				_Tmp);	// insert up to old end

  00284	8d 45 ec	 lea	 eax, DWORD PTR __Tmp$[ebp]
  00287	50		 push	 eax
  00288	8b 4d 0c	 mov	 ecx, DWORD PTR __Count$[ebp]
  0028b	c1 e1 02	 shl	 ecx, 2
  0028e	8b 55 d8	 mov	 edx, DWORD PTR _this$[ebp]
  00291	8b 42 08	 mov	 eax, DWORD PTR [edx+8]
  00294	2b c1		 sub	 eax, ecx
  00296	50		 push	 eax
  00297	8b 4d 08	 mov	 ecx, DWORD PTR __Where$[ebp]
  0029a	51		 push	 ecx
  0029b	e8 00 00 00 00	 call	 ??$fill@PAKK@std@@YAXPAK0ABK@Z ; std::fill<unsigned long *,unsigned long>
  002a0	83 c4 0c	 add	 esp, 12			; 0000000cH

; 863  : 			}
; 864  : 		else

  002a3	eb 64		 jmp	 SHORT $L205069
$L203416:

; 865  : 			{	// new stuff can all be assigned
; 866  : 			pointer _Oldend = _Mylast;

  002a5	8b 55 d8	 mov	 edx, DWORD PTR _this$[ebp]
  002a8	8b 42 08	 mov	 eax, DWORD PTR [edx+8]
  002ab	89 45 dc	 mov	 DWORD PTR __Oldend$203426[ebp], eax

; 867  : 			_Mylast = _Ucopy(_Oldend - _Count, _Oldend,
; 868  : 				_Mylast);	// copy suffix

  002ae	8b 4d d8	 mov	 ecx, DWORD PTR _this$[ebp]
  002b1	8b 51 08	 mov	 edx, DWORD PTR [ecx+8]
  002b4	52		 push	 edx
  002b5	8b 45 dc	 mov	 eax, DWORD PTR __Oldend$203426[ebp]
  002b8	50		 push	 eax
  002b9	8b 4d 0c	 mov	 ecx, DWORD PTR __Count$[ebp]
  002bc	c1 e1 02	 shl	 ecx, 2
  002bf	8b 55 dc	 mov	 edx, DWORD PTR __Oldend$203426[ebp]
  002c2	2b d1		 sub	 edx, ecx
  002c4	52		 push	 edx
  002c5	8b 4d d8	 mov	 ecx, DWORD PTR _this$[ebp]
  002c8	e8 00 00 00 00	 call	 ??$_Ucopy@PAK@?$vector@KV?$allocator@K@std@@@std@@IAEPAKPAK00@Z ; std::vector<unsigned long,std::allocator<unsigned long> >::_Ucopy<unsigned long *>
  002cd	8b 4d d8	 mov	 ecx, DWORD PTR _this$[ebp]
  002d0	89 41 08	 mov	 DWORD PTR [ecx+8], eax

; 869  : 			copy_backward(_ITER_BASE(_Where), _Oldend - _Count,
; 870  : 				_Oldend);	// copy hole

  002d3	8b 55 dc	 mov	 edx, DWORD PTR __Oldend$203426[ebp]
  002d6	52		 push	 edx
  002d7	8b 45 0c	 mov	 eax, DWORD PTR __Count$[ebp]
  002da	c1 e0 02	 shl	 eax, 2
  002dd	8b 4d dc	 mov	 ecx, DWORD PTR __Oldend$203426[ebp]
  002e0	2b c8		 sub	 ecx, eax
  002e2	51		 push	 ecx
  002e3	8b 55 08	 mov	 edx, DWORD PTR __Where$[ebp]
  002e6	52		 push	 edx
  002e7	e8 00 00 00 00	 call	 ??$copy_backward@PAKPAK@std@@YAPAKPAK00@Z ; std::copy_backward<unsigned long *,unsigned long *>
  002ec	83 c4 0c	 add	 esp, 12			; 0000000cH

; 871  : 			fill(_ITER_BASE(_Where), _ITER_BASE(_Where) + _Count,
; 872  : 				_Tmp);	// insert into hole

  002ef	8d 45 ec	 lea	 eax, DWORD PTR __Tmp$[ebp]
  002f2	50		 push	 eax
  002f3	8b 4d 0c	 mov	 ecx, DWORD PTR __Count$[ebp]
  002f6	8b 55 08	 mov	 edx, DWORD PTR __Where$[ebp]
  002f9	8d 04 8a	 lea	 eax, DWORD PTR [edx+ecx*4]
  002fc	50		 push	 eax
  002fd	8b 4d 08	 mov	 ecx, DWORD PTR __Where$[ebp]
  00300	51		 push	 ecx
  00301	e8 00 00 00 00	 call	 ??$fill@PAKK@std@@YAXPAK0ABK@Z ; std::fill<unsigned long *,unsigned long>
  00306	83 c4 0c	 add	 esp, 12			; 0000000cH
$L205069:

; 873  : 			}
; 874  : 		}

  00309	8b 4d f4	 mov	 ecx, DWORD PTR __$EHRec$[ebp+4]
  0030c	64 89 0d 00 00
	00 00		 mov	 DWORD PTR fs:__except_list, ecx
  00313	5f		 pop	 edi
  00314	5e		 pop	 esi
  00315	5b		 pop	 ebx
  00316	8b e5		 mov	 esp, ebp
  00318	5d		 pop	 ebp
  00319	c2 0c 00	 ret	 12			; 0000000cH
_TEXT	ENDS
;	COMDAT text$x
text$x	SEGMENT
__ehhandler$?_Insert_n@?$vector@KV?$allocator@K@std@@@std@@IAEXViterator@12@IABK@Z:
  00000	b8 00 00 00 00	 mov	 eax, OFFSET FLAT:$T205077
  00005	e9 00 00 00 00	 jmp	 ___CxxFrameHandler
text$x	ENDS
?_Insert_n@?$vector@KV?$allocator@K@std@@@std@@IAEXViterator@12@IABK@Z ENDP ; std::vector<unsigned long,std::allocator<unsigned long> >::_Insert_n
;	COMDAT xdata$x
xdata$x	SEGMENT
$T205093 DD	0ffffffffH
	DD	FLAT:$L205089
$T205091 DD	019930520H
	DD	01H
	DD	FLAT:$T205093
	DD	2 DUP(00H)
	DD	2 DUP(00H)
; Function compile flags: /Odt
xdata$x	ENDS
;	COMDAT ?_Xlen@?$vector@KV?$allocator@K@std@@@std@@IBEXXZ
_TEXT	SEGMENT
_this$ = -84						; size = 4
$T205088 = -80						; size = 28
$T205087 = -52						; size = 40
__$EHRec$ = -12						; size = 12
?_Xlen@?$vector@KV?$allocator@K@std@@@std@@IBEXXZ PROC NEAR ; std::vector<unsigned long,std::allocator<unsigned long> >::_Xlen, COMDAT
; _this$ = ecx

; 883  : 		{	// report a length_error

  00000	55		 push	 ebp
  00001	8b ec		 mov	 ebp, esp
  00003	6a ff		 push	 -1
  00005	68 00 00 00 00	 push	 __ehhandler$?_Xlen@?$vector@KV?$allocator@K@std@@@std@@IBEXXZ
  0000a	64 a1 00 00 00
	00		 mov	 eax, DWORD PTR fs:__except_list
  00010	50		 push	 eax
  00011	64 89 25 00 00
	00 00		 mov	 DWORD PTR fs:__except_list, esp
  00018	83 ec 48	 sub	 esp, 72			; 00000048H
  0001b	89 4d ac	 mov	 DWORD PTR _this$[ebp], ecx

; 884  : 		_THROW(length_error, "vector<T> too long");

  0001e	68 00 00 00 00	 push	 OFFSET FLAT:??_C@_0BD@OLBABOEK@vector?$DMT?$DO?5too?5long?$AA@
  00023	8d 4d b0	 lea	 ecx, DWORD PTR $T205088[ebp]
  00026	ff 15 00 00 00
	00		 call	 DWORD PTR __imp_??0?$basic_string@DU?$char_traits@D@std@@V?$allocator@D@2@@std@@QAE@PBD@Z
  0002c	c7 45 fc 00 00
	00 00		 mov	 DWORD PTR __$EHRec$[ebp+8], 0
  00033	8d 45 b0	 lea	 eax, DWORD PTR $T205088[ebp]
  00036	50		 push	 eax
  00037	8d 4d cc	 lea	 ecx, DWORD PTR $T205087[ebp]
  0003a	e8 00 00 00 00	 call	 ??0length_error@std@@QAE@ABV?$basic_string@DU?$char_traits@D@std@@V?$allocator@D@2@@1@@Z ; std::length_error::length_error
  0003f	68 00 00 00 00	 push	 OFFSET FLAT:__TI3?AVlength_error@std@@
  00044	8d 4d cc	 lea	 ecx, DWORD PTR $T205087[ebp]
  00047	51		 push	 ecx
  00048	e8 00 00 00 00	 call	 __CxxThrowException@8
$L205086:

; 885  : 		}

  0004d	8b 4d f4	 mov	 ecx, DWORD PTR __$EHRec$[ebp]
  00050	64 89 0d 00 00
	00 00		 mov	 DWORD PTR fs:__except_list, ecx
  00057	8b e5		 mov	 esp, ebp
  00059	5d		 pop	 ebp
  0005a	c3		 ret	 0
_TEXT	ENDS
;	COMDAT text$x
text$x	SEGMENT
$L205089:
  00000	8d 4d b0	 lea	 ecx, DWORD PTR $T205088[ebp]
  00003	ff 25 00 00 00
	00		 jmp	 DWORD PTR __imp_??1?$basic_string@DU?$char_traits@D@std@@V?$allocator@D@2@@std@@QAE@XZ
__ehhandler$?_Xlen@?$vector@KV?$allocator@K@std@@@std@@IBEXXZ:
  00009	b8 00 00 00 00	 mov	 eax, OFFSET FLAT:$T205091
  0000e	e9 00 00 00 00	 jmp	 ___CxxFrameHandler
text$x	ENDS
?_Xlen@?$vector@KV?$allocator@K@std@@@std@@IBEXXZ ENDP	; std::vector<unsigned long,std::allocator<unsigned long> >::_Xlen
; Function compile flags: /Odt
; File d:\program files (x86)\microsoft visual studio .net 2003\vc7\include\xmemory
;	COMDAT ??0?$allocator@K@std@@QAE@ABV01@@Z
_TEXT	SEGMENT
_this$ = -4						; size = 4
___formal$ = 8						; size = 4
??0?$allocator@K@std@@QAE@ABV01@@Z PROC NEAR		; std::allocator<unsigned long>::allocator<unsigned long>, COMDAT
; _this$ = ecx

; 115  : 	allocator(const allocator<_Ty>&)

  00000	55		 push	 ebp
  00001	8b ec		 mov	 ebp, esp
  00003	51		 push	 ecx
  00004	89 4d fc	 mov	 DWORD PTR _this$[ebp], ecx

; 116  : 		{	// construct by copying (do nothing)
; 117  : 		}

  00007	8b 45 fc	 mov	 eax, DWORD PTR _this$[ebp]
  0000a	8b e5		 mov	 esp, ebp
  0000c	5d		 pop	 ebp
  0000d	c2 04 00	 ret	 4
??0?$allocator@K@std@@QAE@ABV01@@Z ENDP			; std::allocator<unsigned long>::allocator<unsigned long>
; Function compile flags: /Odt
_TEXT	ENDS
;	COMDAT ?deallocate@?$allocator@K@std@@QAEXPAKI@Z
_TEXT	SEGMENT
_this$ = -4						; size = 4
__Ptr$ = 8						; size = 4
___formal$ = 12						; size = 4
?deallocate@?$allocator@K@std@@QAEXPAKI@Z PROC NEAR	; std::allocator<unsigned long>::deallocate, COMDAT
; _this$ = ecx

; 131  : 		{	// deallocate object at _Ptr, ignore size

  00000	55		 push	 ebp
  00001	8b ec		 mov	 ebp, esp
  00003	51		 push	 ecx
  00004	89 4d fc	 mov	 DWORD PTR _this$[ebp], ecx

; 132  : 		operator delete(_Ptr);

  00007	8b 45 08	 mov	 eax, DWORD PTR __Ptr$[ebp]
  0000a	50		 push	 eax
  0000b	e8 00 00 00 00	 call	 ??3@YAXPAX@Z		; operator delete
  00010	83 c4 04	 add	 esp, 4

; 133  : 		}

  00013	8b e5		 mov	 esp, ebp
  00015	5d		 pop	 ebp
  00016	c2 08 00	 ret	 8
?deallocate@?$allocator@K@std@@QAEXPAKI@Z ENDP		; std::allocator<unsigned long>::deallocate
_TEXT	ENDS
PUBLIC	??$_Allocate@K@std@@YAPAKIPAK@Z			; std::_Allocate<unsigned long>
; Function compile flags: /Odt
;	COMDAT ?allocate@?$allocator@K@std@@QAEPAKI@Z
_TEXT	SEGMENT
_this$ = -4						; size = 4
__Count$ = 8						; size = 4
?allocate@?$allocator@K@std@@QAEPAKI@Z PROC NEAR	; std::allocator<unsigned long>::allocate, COMDAT
; _this$ = ecx

; 136  : 		{	// allocate array of _Count elements

  00000	55		 push	 ebp
  00001	8b ec		 mov	 ebp, esp
  00003	51		 push	 ecx
  00004	89 4d fc	 mov	 DWORD PTR _this$[ebp], ecx

; 137  : 		return (_Allocate(_Count, (pointer)0));

  00007	6a 00		 push	 0
  00009	8b 45 08	 mov	 eax, DWORD PTR __Count$[ebp]
  0000c	50		 push	 eax
  0000d	e8 00 00 00 00	 call	 ??$_Allocate@K@std@@YAPAKIPAK@Z ; std::_Allocate<unsigned long>
  00012	83 c4 08	 add	 esp, 8

; 138  : 		}

  00015	8b e5		 mov	 esp, ebp
  00017	5d		 pop	 ebp
  00018	c2 04 00	 ret	 4
?allocate@?$allocator@K@std@@QAEPAKI@Z ENDP		; std::allocator<unsigned long>::allocate
_TEXT	ENDS
PUBLIC	??0const_iterator@?$vector@KV?$allocator@K@std@@@std@@QAE@PAK@Z ; std::vector<unsigned long,std::allocator<unsigned long> >::const_iterator::const_iterator
; Function compile flags: /Odt
; File d:\program files (x86)\microsoft visual studio .net 2003\vc7\include\vector
;	COMDAT ??0iterator@?$vector@KV?$allocator@K@std@@@std@@QAE@PAK@Z
_TEXT	SEGMENT
_this$ = -4						; size = 4
__Ptr$ = 8						; size = 4
??0iterator@?$vector@KV?$allocator@K@std@@@std@@QAE@PAK@Z PROC NEAR ; std::vector<unsigned long,std::allocator<unsigned long> >::iterator::iterator, COMDAT
; _this$ = ecx

; 215  : 			{	// construct with pointer _Ptr

  00000	55		 push	 ebp
  00001	8b ec		 mov	 ebp, esp
  00003	51		 push	 ecx
  00004	89 4d fc	 mov	 DWORD PTR _this$[ebp], ecx
  00007	8b 45 08	 mov	 eax, DWORD PTR __Ptr$[ebp]
  0000a	50		 push	 eax
  0000b	8b 4d fc	 mov	 ecx, DWORD PTR _this$[ebp]
  0000e	e8 00 00 00 00	 call	 ??0const_iterator@?$vector@KV?$allocator@K@std@@@std@@QAE@PAK@Z ; std::vector<unsigned long,std::allocator<unsigned long> >::const_iterator::const_iterator

; 216  : 			}

  00013	8b 45 fc	 mov	 eax, DWORD PTR _this$[ebp]
  00016	8b e5		 mov	 esp, ebp
  00018	5d		 pop	 ebp
  00019	c2 04 00	 ret	 4
??0iterator@?$vector@KV?$allocator@K@std@@@std@@QAE@PAK@Z ENDP ; std::vector<unsigned long,std::allocator<unsigned long> >::iterator::iterator
; Function compile flags: /Odt
_TEXT	ENDS
;	COMDAT ??Yiterator@?$vector@KV?$allocator@K@std@@@std@@QAEAAV012@H@Z
_TEXT	SEGMENT
_this$ = -4						; size = 4
__Off$ = 8						; size = 4
??Yiterator@?$vector@KV?$allocator@K@std@@@std@@QAEAAV012@H@Z PROC NEAR ; std::vector<unsigned long,std::allocator<unsigned long> >::iterator::operator+=, COMDAT
; _this$ = ecx

; 255  : 			{	// increment by integer

  00000	55		 push	 ebp
  00001	8b ec		 mov	 ebp, esp
  00003	51		 push	 ecx
  00004	89 4d fc	 mov	 DWORD PTR _this$[ebp], ecx

; 256  : 			this->_Myptr += _Off;

  00007	8b 45 fc	 mov	 eax, DWORD PTR _this$[ebp]
  0000a	8b 08		 mov	 ecx, DWORD PTR [eax]
  0000c	8b 55 08	 mov	 edx, DWORD PTR __Off$[ebp]
  0000f	8d 04 91	 lea	 eax, DWORD PTR [ecx+edx*4]
  00012	8b 4d fc	 mov	 ecx, DWORD PTR _this$[ebp]
  00015	89 01		 mov	 DWORD PTR [ecx], eax

; 257  : 			return (*this);

  00017	8b 45 fc	 mov	 eax, DWORD PTR _this$[ebp]

; 258  : 			}

  0001a	8b e5		 mov	 esp, ebp
  0001c	5d		 pop	 ebp
  0001d	c2 04 00	 ret	 4
??Yiterator@?$vector@KV?$allocator@K@std@@@std@@QAEAAV012@H@Z ENDP ; std::vector<unsigned long,std::allocator<unsigned long> >::iterator::operator+=
_TEXT	ENDS
PUBLIC	??Gconst_iterator@?$vector@KV?$allocator@K@std@@@std@@QBEHABV012@@Z ; std::vector<unsigned long,std::allocator<unsigned long> >::const_iterator::operator-
; Function compile flags: /Odt
;	COMDAT ??Giterator@?$vector@KV?$allocator@K@std@@@std@@QBEHABVconst_iterator@12@@Z
_TEXT	SEGMENT
_this$ = -8						; size = 4
$T205108 = -4						; size = 4
__Right$ = 8						; size = 4
??Giterator@?$vector@KV?$allocator@K@std@@@std@@QBEHABVconst_iterator@12@@Z PROC NEAR ; std::vector<unsigned long,std::allocator<unsigned long> >::iterator::operator-, COMDAT
; _this$ = ecx

; 278  : 			{	// return difference of iterators

  00000	55		 push	 ebp
  00001	8b ec		 mov	 ebp, esp
  00003	83 ec 08	 sub	 esp, 8
  00006	89 4d f8	 mov	 DWORD PTR _this$[ebp], ecx

; 279  : 			return ((const_iterator)*this - _Right);

  00009	8b 45 f8	 mov	 eax, DWORD PTR _this$[ebp]
  0000c	8b 08		 mov	 ecx, DWORD PTR [eax]
  0000e	89 4d fc	 mov	 DWORD PTR $T205108[ebp], ecx
  00011	8b 55 08	 mov	 edx, DWORD PTR __Right$[ebp]
  00014	52		 push	 edx
  00015	8d 4d fc	 lea	 ecx, DWORD PTR $T205108[ebp]
  00018	e8 00 00 00 00	 call	 ??Gconst_iterator@?$vector@KV?$allocator@K@std@@@std@@QBEHABV012@@Z ; std::vector<unsigned long,std::allocator<unsigned long> >::const_iterator::operator-

; 280  : 			}

  0001d	8b e5		 mov	 esp, ebp
  0001f	5d		 pop	 ebp
  00020	c2 04 00	 ret	 4
??Giterator@?$vector@KV?$allocator@K@std@@@std@@QBEHABVconst_iterator@12@@Z ENDP ; std::vector<unsigned long,std::allocator<unsigned long> >::iterator::operator-
; Function compile flags: /Odt
_TEXT	ENDS
;	COMDAT ??Dconst_iterator@?$vector@KV?$allocator@K@std@@@std@@QBEABKXZ
_TEXT	SEGMENT
_this$ = -4						; size = 4
??Dconst_iterator@?$vector@KV?$allocator@K@std@@@std@@QBEABKXZ PROC NEAR ; std::vector<unsigned long,std::allocator<unsigned long> >::const_iterator::operator*, COMDAT
; _this$ = ecx

; 79   : 			{	// return designated object

  00000	55		 push	 ebp
  00001	8b ec		 mov	 ebp, esp
  00003	51		 push	 ecx
  00004	89 4d fc	 mov	 DWORD PTR _this$[ebp], ecx

; 80   : 
; 81   : 
; 82   : 			return (*_Myptr);

  00007	8b 45 fc	 mov	 eax, DWORD PTR _this$[ebp]
  0000a	8b 00		 mov	 eax, DWORD PTR [eax]

; 83   : 			}

  0000c	8b e5		 mov	 esp, ebp
  0000e	5d		 pop	 ebp
  0000f	c3		 ret	 0
??Dconst_iterator@?$vector@KV?$allocator@K@std@@@std@@QBEABKXZ ENDP ; std::vector<unsigned long,std::allocator<unsigned long> >::const_iterator::operator*
_TEXT	ENDS
PUBLIC	??_R1A@?0A@A@logic_error@std@@8			; std::logic_error::`RTTI Base Class Descriptor at (0,-1,0,0)'
PUBLIC	??_R1A@?0A@A@exception@@8			; exception::`RTTI Base Class Descriptor at (0,-1,0,0)'
PUBLIC	??_R4length_error@std@@6B@			; std::length_error::`RTTI Complete Object Locator'
PUBLIC	??_R3length_error@std@@8			; std::length_error::`RTTI Class Hierarchy Descriptor'
PUBLIC	??_R2length_error@std@@8			; std::length_error::`RTTI Base Class Array'
PUBLIC	??_R1A@?0A@A@length_error@std@@8		; std::length_error::`RTTI Base Class Descriptor at (0,-1,0,0)'
PUBLIC	?what@logic_error@std@@UBEPBDXZ			; std::logic_error::what
PUBLIC	??_7length_error@std@@6B@			; std::length_error::`vftable'
PUBLIC	??_Glength_error@std@@UAEPAXI@Z			; std::length_error::`scalar deleting destructor'
EXTRN	??_Elength_error@std@@UAEPAXI@Z:NEAR		; std::length_error::`vector deleting destructor'
;	COMDAT ??_7length_error@std@@6B@
CONST	SEGMENT
??_7length_error@std@@6B@ DD FLAT:??_R4length_error@std@@6B@ ; std::length_error::`vftable'
	DD	FLAT:??_Elength_error@std@@UAEPAXI@Z
	DD	FLAT:?what@logic_error@std@@UBEPBDXZ
CONST	ENDS
;	COMDAT ??_R4length_error@std@@6B@
rdata$r	SEGMENT
??_R4length_error@std@@6B@ DD 00H			; std::length_error::`RTTI Complete Object Locator'
	DD	00H
	DD	00H
	DD	FLAT:??_R0?AVlength_error@std@@@8
	DD	FLAT:??_R3length_error@std@@8
rdata$r	ENDS
;	COMDAT ??_R3length_error@std@@8
rdata$r	SEGMENT
??_R3length_error@std@@8 DD 00H				; std::length_error::`RTTI Class Hierarchy Descriptor'
	DD	00H
	DD	03H
	DD	FLAT:??_R2length_error@std@@8
rdata$r	ENDS
;	COMDAT ??_R2length_error@std@@8
rdata$r	SEGMENT
??_R2length_error@std@@8 DD FLAT:??_R1A@?0A@A@length_error@std@@8 ; std::length_error::`RTTI Base Class Array'
	DD	FLAT:??_R1A@?0A@A@logic_error@std@@8
	DD	FLAT:??_R1A@?0A@A@exception@@8
rdata$r	ENDS
;	COMDAT ??_R1A@?0A@A@length_error@std@@8
rdata$r	SEGMENT
??_R1A@?0A@A@length_error@std@@8 DD FLAT:??_R0?AVlength_error@std@@@8 ; std::length_error::`RTTI Base Class Descriptor at (0,-1,0,0)'
	DD	02H
	DD	00H
	DD	0ffffffffH
	DD	00H
	DD	00H
rdata$r	ENDS
;	COMDAT ??_R1A@?0A@A@logic_error@std@@8
rdata$r	SEGMENT
??_R1A@?0A@A@logic_error@std@@8 DD FLAT:??_R0?AVlogic_error@std@@@8 ; std::logic_error::`RTTI Base Class Descriptor at (0,-1,0,0)'
	DD	01H
	DD	00H
	DD	0ffffffffH
	DD	00H
	DD	00H
rdata$r	ENDS
;	COMDAT ??_R1A@?0A@A@exception@@8
rdata$r	SEGMENT
??_R1A@?0A@A@exception@@8 DD FLAT:??_R0?AVexception@@@8	; exception::`RTTI Base Class Descriptor at (0,-1,0,0)'
	DD	00H
	DD	00H
	DD	0ffffffffH
	DD	00H
	DD	00H
; Function compile flags: /Odt
rdata$r	ENDS
;	COMDAT ??0length_error@std@@QAE@ABV01@@Z
_TEXT	SEGMENT
_this$ = -4						; size = 4
___that$ = 8						; size = 4
??0length_error@std@@QAE@ABV01@@Z PROC NEAR		; std::length_error::length_error, COMDAT
; _this$ = ecx
  00000	55		 push	 ebp
  00001	8b ec		 mov	 ebp, esp
  00003	51		 push	 ecx
  00004	89 4d fc	 mov	 DWORD PTR _this$[ebp], ecx
  00007	8b 45 08	 mov	 eax, DWORD PTR ___that$[ebp]
  0000a	50		 push	 eax
  0000b	8b 4d fc	 mov	 ecx, DWORD PTR _this$[ebp]
  0000e	e8 00 00 00 00	 call	 ??0logic_error@std@@QAE@ABV01@@Z
  00013	8b 4d fc	 mov	 ecx, DWORD PTR _this$[ebp]
  00016	c7 01 00 00 00
	00		 mov	 DWORD PTR [ecx], OFFSET FLAT:??_7length_error@std@@6B@
  0001c	8b 45 fc	 mov	 eax, DWORD PTR _this$[ebp]
  0001f	8b e5		 mov	 esp, ebp
  00021	5d		 pop	 ebp
  00022	c2 04 00	 ret	 4
??0length_error@std@@QAE@ABV01@@Z ENDP			; std::length_error::length_error
; Function compile flags: /Odt
; File d:\program files (x86)\microsoft visual studio .net 2003\vc7\include\xmemory
_TEXT	ENDS
;	COMDAT ?max_size@?$allocator@PAVCSkinButton2@@@std@@QBEIXZ
_TEXT	SEGMENT
tv65 = -12						; size = 4
_this$ = -8						; size = 4
__Count$ = -4						; size = 4
?max_size@?$allocator@PAVCSkinButton2@@@std@@QBEIXZ PROC NEAR ; std::allocator<CSkinButton2 *>::max_size, COMDAT
; _this$ = ecx

; 156  : 		{	// estimate maximum array size

  00000	55		 push	 ebp
  00001	8b ec		 mov	 ebp, esp
  00003	83 ec 0c	 sub	 esp, 12			; 0000000cH
  00006	89 4d f8	 mov	 DWORD PTR _this$[ebp], ecx

; 157  : 		_SIZT _Count = (_SIZT)(-1) / sizeof (_Ty);

  00009	c7 45 fc ff ff
	ff 3f		 mov	 DWORD PTR __Count$[ebp], 1073741823 ; 3fffffffH

; 158  : 		return (0 < _Count ? _Count : 1);

  00010	83 7d fc 00	 cmp	 DWORD PTR __Count$[ebp], 0
  00014	76 08		 jbe	 SHORT $L205116
  00016	8b 45 fc	 mov	 eax, DWORD PTR __Count$[ebp]
  00019	89 45 f4	 mov	 DWORD PTR tv65[ebp], eax
  0001c	eb 07		 jmp	 SHORT $L205117
$L205116:
  0001e	c7 45 f4 01 00
	00 00		 mov	 DWORD PTR tv65[ebp], 1
$L205117:
  00025	8b 45 f4	 mov	 eax, DWORD PTR tv65[ebp]

; 159  : 		}

  00028	8b e5		 mov	 esp, ebp
  0002a	5d		 pop	 ebp
  0002b	c3		 ret	 0
?max_size@?$allocator@PAVCSkinButton2@@@std@@QBEIXZ ENDP ; std::allocator<CSkinButton2 *>::max_size
; Function compile flags: /Odt
; File d:\program files (x86)\microsoft visual studio .net 2003\vc7\include\vector
_TEXT	ENDS
;	COMDAT ??Gconst_iterator@?$vector@PAVCSkinButton2@@V?$allocator@PAVCSkinButton2@@@std@@@std@@QBEHABV012@@Z
_TEXT	SEGMENT
_this$ = -4						; size = 4
__Right$ = 8						; size = 4
??Gconst_iterator@?$vector@PAVCSkinButton2@@V?$allocator@PAVCSkinButton2@@@std@@@std@@QBEHABV012@@Z PROC NEAR ; std::vector<CSkinButton2 *,std::allocator<CSkinButton2 *> >::const_iterator::operator-, COMDAT
; _this$ = ecx

; 140  : 			{	// return difference of iterators

  00000	55		 push	 ebp
  00001	8b ec		 mov	 ebp, esp
  00003	51		 push	 ecx
  00004	89 4d fc	 mov	 DWORD PTR _this$[ebp], ecx

; 141  : 
; 142  : 
; 143  : 			return (_Myptr - _Right._Myptr);

  00007	8b 45 fc	 mov	 eax, DWORD PTR _this$[ebp]
  0000a	8b 4d 08	 mov	 ecx, DWORD PTR __Right$[ebp]
  0000d	8b 00		 mov	 eax, DWORD PTR [eax]
  0000f	2b 01		 sub	 eax, DWORD PTR [ecx]
  00011	c1 f8 02	 sar	 eax, 2

; 144  : 			}

  00014	8b e5		 mov	 esp, ebp
  00016	5d		 pop	 ebp
  00017	c2 04 00	 ret	 4
??Gconst_iterator@?$vector@PAVCSkinButton2@@V?$allocator@PAVCSkinButton2@@@std@@@std@@QBEHABV012@@Z ENDP ; std::vector<CSkinButton2 *,std::allocator<CSkinButton2 *> >::const_iterator::operator-
; Function compile flags: /Odt
; File d:\program files (x86)\microsoft visual studio .net 2003\vc7\include\xmemory
_TEXT	ENDS
;	COMDAT ?max_size@?$allocator@K@std@@QBEIXZ
_TEXT	SEGMENT
tv65 = -12						; size = 4
_this$ = -8						; size = 4
__Count$ = -4						; size = 4
?max_size@?$allocator@K@std@@QBEIXZ PROC NEAR		; std::allocator<unsigned long>::max_size, COMDAT
; _this$ = ecx

; 156  : 		{	// estimate maximum array size

  00000	55		 push	 ebp
  00001	8b ec		 mov	 ebp, esp
  00003	83 ec 0c	 sub	 esp, 12			; 0000000cH
  00006	89 4d f8	 mov	 DWORD PTR _this$[ebp], ecx

; 157  : 		_SIZT _Count = (_SIZT)(-1) / sizeof (_Ty);

  00009	c7 45 fc ff ff
	ff 3f		 mov	 DWORD PTR __Count$[ebp], 1073741823 ; 3fffffffH

; 158  : 		return (0 < _Count ? _Count : 1);

  00010	83 7d fc 00	 cmp	 DWORD PTR __Count$[ebp], 0
  00014	76 08		 jbe	 SHORT $L205122
  00016	8b 45 fc	 mov	 eax, DWORD PTR __Count$[ebp]
  00019	89 45 f4	 mov	 DWORD PTR tv65[ebp], eax
  0001c	eb 07		 jmp	 SHORT $L205123
$L205122:
  0001e	c7 45 f4 01 00
	00 00		 mov	 DWORD PTR tv65[ebp], 1
$L205123:
  00025	8b 45 f4	 mov	 eax, DWORD PTR tv65[ebp]

; 159  : 		}

  00028	8b e5		 mov	 esp, ebp
  0002a	5d		 pop	 ebp
  0002b	c3		 ret	 0
?max_size@?$allocator@K@std@@QBEIXZ ENDP		; std::allocator<unsigned long>::max_size
; Function compile flags: /Odt
; File d:\program files (x86)\microsoft visual studio .net 2003\vc7\include\vector
_TEXT	ENDS
;	COMDAT ??0const_iterator@?$vector@KV?$allocator@K@std@@@std@@QAE@PAK@Z
_TEXT	SEGMENT
_this$ = -4						; size = 4
__Ptr$ = 8						; size = 4
??0const_iterator@?$vector@KV?$allocator@K@std@@@std@@QAE@PAK@Z PROC NEAR ; std::vector<unsigned long,std::allocator<unsigned long> >::const_iterator::const_iterator, COMDAT
; _this$ = ecx

; 73   : 		const_iterator(_Tptr _Ptr)

  00000	55		 push	 ebp
  00001	8b ec		 mov	 ebp, esp
  00003	51		 push	 ecx
  00004	89 4d fc	 mov	 DWORD PTR _this$[ebp], ecx

; 74   : 			{	// construct with pointer _Ptr
; 75   : 			_Myptr = _Ptr;

  00007	8b 45 fc	 mov	 eax, DWORD PTR _this$[ebp]
  0000a	8b 4d 08	 mov	 ecx, DWORD PTR __Ptr$[ebp]
  0000d	89 08		 mov	 DWORD PTR [eax], ecx

; 76   : 			}

  0000f	8b 45 fc	 mov	 eax, DWORD PTR _this$[ebp]
  00012	8b e5		 mov	 esp, ebp
  00014	5d		 pop	 ebp
  00015	c2 04 00	 ret	 4
??0const_iterator@?$vector@KV?$allocator@K@std@@@std@@QAE@PAK@Z ENDP ; std::vector<unsigned long,std::allocator<unsigned long> >::const_iterator::const_iterator
; Function compile flags: /Odt
_TEXT	ENDS
;	COMDAT ??Gconst_iterator@?$vector@KV?$allocator@K@std@@@std@@QBEHABV012@@Z
_TEXT	SEGMENT
_this$ = -4						; size = 4
__Right$ = 8						; size = 4
??Gconst_iterator@?$vector@KV?$allocator@K@std@@@std@@QBEHABV012@@Z PROC NEAR ; std::vector<unsigned long,std::allocator<unsigned long> >::const_iterator::operator-, COMDAT
; _this$ = ecx

; 140  : 			{	// return difference of iterators

  00000	55		 push	 ebp
  00001	8b ec		 mov	 ebp, esp
  00003	51		 push	 ecx
  00004	89 4d fc	 mov	 DWORD PTR _this$[ebp], ecx

; 141  : 
; 142  : 
; 143  : 			return (_Myptr - _Right._Myptr);

  00007	8b 45 fc	 mov	 eax, DWORD PTR _this$[ebp]
  0000a	8b 4d 08	 mov	 ecx, DWORD PTR __Right$[ebp]
  0000d	8b 00		 mov	 eax, DWORD PTR [eax]
  0000f	2b 01		 sub	 eax, DWORD PTR [ecx]
  00011	c1 f8 02	 sar	 eax, 2

; 144  : 			}

  00014	8b e5		 mov	 esp, ebp
  00016	5d		 pop	 ebp
  00017	c2 04 00	 ret	 4
??Gconst_iterator@?$vector@KV?$allocator@K@std@@@std@@QBEHABV012@@Z ENDP ; std::vector<unsigned long,std::allocator<unsigned long> >::const_iterator::operator-
_TEXT	ENDS
PUBLIC	??$_Ptr_cat@VCSkinButton2@@@std@@YA?AU_Scalar_ptr_iterator_tag@0@PAPAVCSkinButton2@@0@Z ; std::_Ptr_cat<CSkinButton2>
PUBLIC	??$_Uninit_fill_n@PAVCSkinButton2@@IPAV1@@std@@YAXPAPAVCSkinButton2@@IABQAV1@AAV?$allocator@PAVCSkinButton2@@@0@U_Scalar_ptr_iterator_tag@0@@Z ; std::_Uninit_fill_n<CSkinButton2 *,unsigned int,CSkinButton2 *>
; Function compile flags: /Odt
; File d:\program files (x86)\microsoft visual studio .net 2003\vc7\include\memory
;	COMDAT ??$_Uninitialized_fill_n@PAPAVCSkinButton2@@IPAV1@V?$allocator@PAVCSkinButton2@@@std@@@std@@YAXPAPAVCSkinButton2@@IABQAV1@AAV?$allocator@PAVCSkinButton2@@@0@@Z
_TEXT	SEGMENT
$T205130 = -1						; size = 1
__First$ = 8						; size = 4
__Count$ = 12						; size = 4
__Val$ = 16						; size = 4
__Al$ = 20						; size = 4
??$_Uninitialized_fill_n@PAPAVCSkinButton2@@IPAV1@V?$allocator@PAVCSkinButton2@@@std@@@std@@YAXPAPAVCSkinButton2@@IABQAV1@AAV?$allocator@PAVCSkinButton2@@@0@@Z PROC NEAR ; std::_Uninitialized_fill_n<CSkinButton2 * *,unsigned int,CSkinButton2 *,std::allocator<CSkinButton2 *> >, COMDAT

; 255  : 	{	// copy _Count *_Val to raw _First, using _Al

  00000	55		 push	 ebp
  00001	8b ec		 mov	 ebp, esp
  00003	51		 push	 ecx

; 256  : 	_Uninit_fill_n(_First, _Count, _Val, _Al,
; 257  : 		_Ptr_cat(_First, _First));

  00004	8b 45 08	 mov	 eax, DWORD PTR __First$[ebp]
  00007	50		 push	 eax
  00008	8b 4d 08	 mov	 ecx, DWORD PTR __First$[ebp]
  0000b	51		 push	 ecx
  0000c	e8 00 00 00 00	 call	 ??$_Ptr_cat@VCSkinButton2@@@std@@YA?AU_Scalar_ptr_iterator_tag@0@PAPAVCSkinButton2@@0@Z ; std::_Ptr_cat<CSkinButton2>
  00011	83 c4 08	 add	 esp, 8
  00014	88 45 ff	 mov	 BYTE PTR $T205130[ebp], al
  00017	8a 55 ff	 mov	 dl, BYTE PTR $T205130[ebp]
  0001a	52		 push	 edx
  0001b	8b 45 14	 mov	 eax, DWORD PTR __Al$[ebp]
  0001e	50		 push	 eax
  0001f	8b 4d 10	 mov	 ecx, DWORD PTR __Val$[ebp]
  00022	51		 push	 ecx
  00023	8b 55 0c	 mov	 edx, DWORD PTR __Count$[ebp]
  00026	52		 push	 edx
  00027	8b 45 08	 mov	 eax, DWORD PTR __First$[ebp]
  0002a	50		 push	 eax
  0002b	e8 00 00 00 00	 call	 ??$_Uninit_fill_n@PAVCSkinButton2@@IPAV1@@std@@YAXPAPAVCSkinButton2@@IABQAV1@AAV?$allocator@PAVCSkinButton2@@@0@U_Scalar_ptr_iterator_tag@0@@Z ; std::_Uninit_fill_n<CSkinButton2 *,unsigned int,CSkinButton2 *>
  00030	83 c4 14	 add	 esp, 20			; 00000014H

; 258  : 	}

  00033	8b e5		 mov	 esp, ebp
  00035	5d		 pop	 ebp
  00036	c3		 ret	 0
??$_Uninitialized_fill_n@PAPAVCSkinButton2@@IPAV1@V?$allocator@PAVCSkinButton2@@@std@@@std@@YAXPAPAVCSkinButton2@@IABQAV1@AAV?$allocator@PAVCSkinButton2@@@0@@Z ENDP ; std::_Uninitialized_fill_n<CSkinButton2 * *,unsigned int,CSkinButton2 *,std::allocator<CSkinButton2 *> >
_TEXT	ENDS
PUBLIC	?_Ptr_cat@std@@YA?AU_Scalar_ptr_iterator_tag@1@PAK0@Z ; std::_Ptr_cat
PUBLIC	??$_Uninit_fill_n@KIK@std@@YAXPAKIABKAAV?$allocator@K@0@U_Scalar_ptr_iterator_tag@0@@Z ; std::_Uninit_fill_n<unsigned long,unsigned int,unsigned long>
; Function compile flags: /Odt
;	COMDAT ??$_Uninitialized_fill_n@PAKIKV?$allocator@K@std@@@std@@YAXPAKIABKAAV?$allocator@K@0@@Z
_TEXT	SEGMENT
$T205133 = -1						; size = 1
__First$ = 8						; size = 4
__Count$ = 12						; size = 4
__Val$ = 16						; size = 4
__Al$ = 20						; size = 4
??$_Uninitialized_fill_n@PAKIKV?$allocator@K@std@@@std@@YAXPAKIABKAAV?$allocator@K@0@@Z PROC NEAR ; std::_Uninitialized_fill_n<unsigned long *,unsigned int,unsigned long,std::allocator<unsigned long> >, COMDAT

; 255  : 	{	// copy _Count *_Val to raw _First, using _Al

  00000	55		 push	 ebp
  00001	8b ec		 mov	 ebp, esp
  00003	51		 push	 ecx

; 256  : 	_Uninit_fill_n(_First, _Count, _Val, _Al,
; 257  : 		_Ptr_cat(_First, _First));

  00004	8b 45 08	 mov	 eax, DWORD PTR __First$[ebp]
  00007	50		 push	 eax
  00008	8b 4d 08	 mov	 ecx, DWORD PTR __First$[ebp]
  0000b	51		 push	 ecx
  0000c	e8 00 00 00 00	 call	 ?_Ptr_cat@std@@YA?AU_Scalar_ptr_iterator_tag@1@PAK0@Z ; std::_Ptr_cat
  00011	83 c4 08	 add	 esp, 8
  00014	88 45 ff	 mov	 BYTE PTR $T205133[ebp], al
  00017	8a 55 ff	 mov	 dl, BYTE PTR $T205133[ebp]
  0001a	52		 push	 edx
  0001b	8b 45 14	 mov	 eax, DWORD PTR __Al$[ebp]
  0001e	50		 push	 eax
  0001f	8b 4d 10	 mov	 ecx, DWORD PTR __Val$[ebp]
  00022	51		 push	 ecx
  00023	8b 55 0c	 mov	 edx, DWORD PTR __Count$[ebp]
  00026	52		 push	 edx
  00027	8b 45 08	 mov	 eax, DWORD PTR __First$[ebp]
  0002a	50		 push	 eax
  0002b	e8 00 00 00 00	 call	 ??$_Uninit_fill_n@KIK@std@@YAXPAKIABKAAV?$allocator@K@0@U_Scalar_ptr_iterator_tag@0@@Z ; std::_Uninit_fill_n<unsigned long,unsigned int,unsigned long>
  00030	83 c4 14	 add	 esp, 20			; 00000014H

; 258  : 	}

  00033	8b e5		 mov	 esp, ebp
  00035	5d		 pop	 ebp
  00036	c3		 ret	 0
??$_Uninitialized_fill_n@PAKIKV?$allocator@K@std@@@std@@YAXPAKIABKAAV?$allocator@K@0@@Z ENDP ; std::_Uninitialized_fill_n<unsigned long *,unsigned int,unsigned long,std::allocator<unsigned long> >
_TEXT	ENDS
PUBLIC	??$_Destroy_range@PAVCSkinButton2@@V?$allocator@PAVCSkinButton2@@@std@@@std@@YAXPAPAVCSkinButton2@@0AAV?$allocator@PAVCSkinButton2@@@0@U_Scalar_ptr_iterator_tag@0@@Z ; std::_Destroy_range<CSkinButton2 *,std::allocator<CSkinButton2 *> >
; Function compile flags: /Odt
; File d:\program files (x86)\microsoft visual studio .net 2003\vc7\include\xmemory
;	COMDAT ??$_Destroy_range@PAVCSkinButton2@@V?$allocator@PAVCSkinButton2@@@std@@@std@@YAXPAPAVCSkinButton2@@0AAV?$allocator@PAVCSkinButton2@@@0@@Z
_TEXT	SEGMENT
$T205136 = -1						; size = 1
__First$ = 8						; size = 4
__Last$ = 12						; size = 4
__Al$ = 16						; size = 4
??$_Destroy_range@PAVCSkinButton2@@V?$allocator@PAVCSkinButton2@@@std@@@std@@YAXPAPAVCSkinButton2@@0AAV?$allocator@PAVCSkinButton2@@@0@@Z PROC NEAR ; std::_Destroy_range<CSkinButton2 *,std::allocator<CSkinButton2 *> >, COMDAT

; 216  : 	{	// destroy [_First, _Last)

  00000	55		 push	 ebp
  00001	8b ec		 mov	 ebp, esp
  00003	51		 push	 ecx

; 217  : 	_Destroy_range(_First, _Last, _Al, _Ptr_cat(_First, _Last));

  00004	8b 45 0c	 mov	 eax, DWORD PTR __Last$[ebp]
  00007	50		 push	 eax
  00008	8b 4d 08	 mov	 ecx, DWORD PTR __First$[ebp]
  0000b	51		 push	 ecx
  0000c	e8 00 00 00 00	 call	 ??$_Ptr_cat@VCSkinButton2@@@std@@YA?AU_Scalar_ptr_iterator_tag@0@PAPAVCSkinButton2@@0@Z ; std::_Ptr_cat<CSkinButton2>
  00011	83 c4 08	 add	 esp, 8
  00014	88 45 ff	 mov	 BYTE PTR $T205136[ebp], al
  00017	8a 55 ff	 mov	 dl, BYTE PTR $T205136[ebp]
  0001a	52		 push	 edx
  0001b	8b 45 10	 mov	 eax, DWORD PTR __Al$[ebp]
  0001e	50		 push	 eax
  0001f	8b 4d 0c	 mov	 ecx, DWORD PTR __Last$[ebp]
  00022	51		 push	 ecx
  00023	8b 55 08	 mov	 edx, DWORD PTR __First$[ebp]
  00026	52		 push	 edx
  00027	e8 00 00 00 00	 call	 ??$_Destroy_range@PAVCSkinButton2@@V?$allocator@PAVCSkinButton2@@@std@@@std@@YAXPAPAVCSkinButton2@@0AAV?$allocator@PAVCSkinButton2@@@0@U_Scalar_ptr_iterator_tag@0@@Z ; std::_Destroy_range<CSkinButton2 *,std::allocator<CSkinButton2 *> >
  0002c	83 c4 10	 add	 esp, 16			; 00000010H

; 218  : 	}

  0002f	8b e5		 mov	 esp, ebp
  00031	5d		 pop	 ebp
  00032	c3		 ret	 0
??$_Destroy_range@PAVCSkinButton2@@V?$allocator@PAVCSkinButton2@@@std@@@std@@YAXPAPAVCSkinButton2@@0AAV?$allocator@PAVCSkinButton2@@@0@@Z ENDP ; std::_Destroy_range<CSkinButton2 *,std::allocator<CSkinButton2 *> >
_TEXT	ENDS
PUBLIC	??$_Uninitialized_copy@PAPAVCSkinButton2@@PAPAV1@V?$allocator@PAVCSkinButton2@@@std@@@std@@YAPAPAVCSkinButton2@@PAPAV1@00AAV?$allocator@PAVCSkinButton2@@@0@@Z ; std::_Uninitialized_copy<CSkinButton2 * *,CSkinButton2 * *,std::allocator<CSkinButton2 *> >
; Function compile flags: /Odt
; File d:\program files (x86)\microsoft visual studio .net 2003\vc7\include\vector
;	COMDAT ??$_Ucopy@PAPAVCSkinButton2@@@?$vector@PAVCSkinButton2@@V?$allocator@PAVCSkinButton2@@@std@@@std@@IAEPAPAVCSkinButton2@@PAPAV2@00@Z
_TEXT	SEGMENT
_this$ = -4						; size = 4
__First$ = 8						; size = 4
__Last$ = 12						; size = 4
__Ptr$ = 16						; size = 4
??$_Ucopy@PAPAVCSkinButton2@@@?$vector@PAVCSkinButton2@@V?$allocator@PAVCSkinButton2@@@std@@@std@@IAEPAPAVCSkinButton2@@PAPAV2@00@Z PROC NEAR ; std::vector<CSkinButton2 *,std::allocator<CSkinButton2 *> >::_Ucopy<CSkinButton2 * *>, COMDAT
; _this$ = ecx

; 801  : 		pointer _Ucopy(_Iter _First, _Iter _Last, pointer _Ptr)

  00000	55		 push	 ebp
  00001	8b ec		 mov	 ebp, esp
  00003	51		 push	 ecx
  00004	89 4d fc	 mov	 DWORD PTR _this$[ebp], ecx

; 802  : 		{	// copy initializing [_First, _Last), using allocator
; 803  : 		return (_Uninitialized_copy(_First, _Last,
; 804  : 			_Ptr, this->_Alval));

  00007	8b 45 fc	 mov	 eax, DWORD PTR _this$[ebp]
  0000a	50		 push	 eax
  0000b	8b 4d 10	 mov	 ecx, DWORD PTR __Ptr$[ebp]
  0000e	51		 push	 ecx
  0000f	8b 55 0c	 mov	 edx, DWORD PTR __Last$[ebp]
  00012	52		 push	 edx
  00013	8b 45 08	 mov	 eax, DWORD PTR __First$[ebp]
  00016	50		 push	 eax
  00017	e8 00 00 00 00	 call	 ??$_Uninitialized_copy@PAPAVCSkinButton2@@PAPAV1@V?$allocator@PAVCSkinButton2@@@std@@@std@@YAPAPAVCSkinButton2@@PAPAV1@00AAV?$allocator@PAVCSkinButton2@@@0@@Z ; std::_Uninitialized_copy<CSkinButton2 * *,CSkinButton2 * *,std::allocator<CSkinButton2 *> >
  0001c	83 c4 10	 add	 esp, 16			; 00000010H

; 805  : 		}

  0001f	8b e5		 mov	 esp, ebp
  00021	5d		 pop	 ebp
  00022	c2 0c 00	 ret	 12			; 0000000cH
??$_Ucopy@PAPAVCSkinButton2@@@?$vector@PAVCSkinButton2@@V?$allocator@PAVCSkinButton2@@@std@@@std@@IAEPAPAVCSkinButton2@@PAPAV2@00@Z ENDP ; std::vector<CSkinButton2 *,std::allocator<CSkinButton2 *> >::_Ucopy<CSkinButton2 * *>
; Function compile flags: /Odt
; File d:\program files (x86)\microsoft visual studio .net 2003\vc7\include\xutility
_TEXT	ENDS
;	COMDAT ??$fill@PAPAVCSkinButton2@@PAV1@@std@@YAXPAPAVCSkinButton2@@0ABQAV1@@Z
_TEXT	SEGMENT
__First$ = 8						; size = 4
__Last$ = 12						; size = 4
__Val$ = 16						; size = 4
??$fill@PAPAVCSkinButton2@@PAV1@@std@@YAXPAPAVCSkinButton2@@0ABQAV1@@Z PROC NEAR ; std::fill<CSkinButton2 * *,CSkinButton2 *>, COMDAT

; 1134 : 	{	// copy _Val through [_First, _Last)

  00000	55		 push	 ebp
  00001	8b ec		 mov	 ebp, esp

; 1135 : 	for (; _First != _Last; ++_First)

  00003	eb 09		 jmp	 SHORT $L203749
$L203750:
  00005	8b 45 08	 mov	 eax, DWORD PTR __First$[ebp]
  00008	83 c0 04	 add	 eax, 4
  0000b	89 45 08	 mov	 DWORD PTR __First$[ebp], eax
$L203749:
  0000e	8b 4d 08	 mov	 ecx, DWORD PTR __First$[ebp]
  00011	3b 4d 0c	 cmp	 ecx, DWORD PTR __Last$[ebp]
  00014	74 0c		 je	 SHORT $L203748

; 1136 : 		*_First = _Val;

  00016	8b 55 08	 mov	 edx, DWORD PTR __First$[ebp]
  00019	8b 45 10	 mov	 eax, DWORD PTR __Val$[ebp]
  0001c	8b 08		 mov	 ecx, DWORD PTR [eax]
  0001e	89 0a		 mov	 DWORD PTR [edx], ecx
  00020	eb e3		 jmp	 SHORT $L203750
$L203748:

; 1137 : 	}

  00022	5d		 pop	 ebp
  00023	c3		 ret	 0
??$fill@PAPAVCSkinButton2@@PAV1@@std@@YAXPAPAVCSkinButton2@@0ABQAV1@@Z ENDP ; std::fill<CSkinButton2 * *,CSkinButton2 *>
_TEXT	ENDS
PUBLIC	??$_Copy_backward_opt@PAPAVCSkinButton2@@PAPAV1@@std@@YAPAPAVCSkinButton2@@PAPAV1@00U_Scalar_ptr_iterator_tag@0@@Z ; std::_Copy_backward_opt<CSkinButton2 * *,CSkinButton2 * *>
; Function compile flags: /Odt
;	COMDAT ??$copy_backward@PAPAVCSkinButton2@@PAPAV1@@std@@YAPAPAVCSkinButton2@@PAPAV1@00@Z
_TEXT	SEGMENT
$T205143 = -1						; size = 1
__First$ = 8						; size = 4
__Last$ = 12						; size = 4
__Dest$ = 16						; size = 4
??$copy_backward@PAPAVCSkinButton2@@PAPAV1@@std@@YAPAPAVCSkinButton2@@PAPAV1@00@Z PROC NEAR ; std::copy_backward<CSkinButton2 * *,CSkinButton2 * *>, COMDAT

; 1067 : 	{	// copy [_First, _Last) backwards to [..., _Dest)

  00000	55		 push	 ebp
  00001	8b ec		 mov	 ebp, esp
  00003	51		 push	 ecx

; 1068 : 	return (_Copy_backward_opt(_First, _Last, _Dest,
; 1069 : 		_Ptr_cat(_First, _Dest)));

  00004	8b 45 10	 mov	 eax, DWORD PTR __Dest$[ebp]
  00007	50		 push	 eax
  00008	8b 4d 08	 mov	 ecx, DWORD PTR __First$[ebp]
  0000b	51		 push	 ecx
  0000c	e8 00 00 00 00	 call	 ??$_Ptr_cat@VCSkinButton2@@@std@@YA?AU_Scalar_ptr_iterator_tag@0@PAPAVCSkinButton2@@0@Z ; std::_Ptr_cat<CSkinButton2>
  00011	83 c4 08	 add	 esp, 8
  00014	88 45 ff	 mov	 BYTE PTR $T205143[ebp], al
  00017	8a 55 ff	 mov	 dl, BYTE PTR $T205143[ebp]
  0001a	52		 push	 edx
  0001b	8b 45 10	 mov	 eax, DWORD PTR __Dest$[ebp]
  0001e	50		 push	 eax
  0001f	8b 4d 0c	 mov	 ecx, DWORD PTR __Last$[ebp]
  00022	51		 push	 ecx
  00023	8b 55 08	 mov	 edx, DWORD PTR __First$[ebp]
  00026	52		 push	 edx
  00027	e8 00 00 00 00	 call	 ??$_Copy_backward_opt@PAPAVCSkinButton2@@PAPAV1@@std@@YAPAPAVCSkinButton2@@PAPAV1@00U_Scalar_ptr_iterator_tag@0@@Z ; std::_Copy_backward_opt<CSkinButton2 * *,CSkinButton2 * *>
  0002c	83 c4 10	 add	 esp, 16			; 00000010H

; 1070 : 	}

  0002f	8b e5		 mov	 esp, ebp
  00031	5d		 pop	 ebp
  00032	c3		 ret	 0
??$copy_backward@PAPAVCSkinButton2@@PAPAV1@@std@@YAPAPAVCSkinButton2@@PAPAV1@00@Z ENDP ; std::copy_backward<CSkinButton2 * *,CSkinButton2 * *>
_TEXT	ENDS
EXTRN	??2@YAPAXI@Z:NEAR				; operator new
; Function compile flags: /Odt
; File d:\program files (x86)\microsoft visual studio .net 2003\vc7\include\xmemory
;	COMDAT ??$_Allocate@PAVCSkinButton2@@@std@@YAPAPAVCSkinButton2@@IPAPAV1@@Z
_TEXT	SEGMENT
__Count$ = 8						; size = 4
___formal$ = 12						; size = 4
??$_Allocate@PAVCSkinButton2@@@std@@YAPAPAVCSkinButton2@@IPAPAV1@@Z PROC NEAR ; std::_Allocate<CSkinButton2 *>, COMDAT

; 33   : 	{	// allocate storage for _Count elements of type _Ty

  00000	55		 push	 ebp
  00001	8b ec		 mov	 ebp, esp

; 34   : 	return ((_Ty _FARQ *)operator new(_Count * sizeof (_Ty)));

  00003	8b 45 08	 mov	 eax, DWORD PTR __Count$[ebp]
  00006	c1 e0 02	 shl	 eax, 2
  00009	50		 push	 eax
  0000a	e8 00 00 00 00	 call	 ??2@YAPAXI@Z		; operator new
  0000f	83 c4 04	 add	 esp, 4

; 35   : 	}

  00012	5d		 pop	 ebp
  00013	c3		 ret	 0
??$_Allocate@PAVCSkinButton2@@@std@@YAPAPAVCSkinButton2@@IPAPAV1@@Z ENDP ; std::_Allocate<CSkinButton2 *>
_TEXT	ENDS
PUBLIC	??$_Destroy_range@KV?$allocator@K@std@@@std@@YAXPAK0AAV?$allocator@K@0@U_Scalar_ptr_iterator_tag@0@@Z ; std::_Destroy_range<unsigned long,std::allocator<unsigned long> >
; Function compile flags: /Odt
;	COMDAT ??$_Destroy_range@KV?$allocator@K@std@@@std@@YAXPAK0AAV?$allocator@K@0@@Z
_TEXT	SEGMENT
$T205148 = -1						; size = 1
__First$ = 8						; size = 4
__Last$ = 12						; size = 4
__Al$ = 16						; size = 4
??$_Destroy_range@KV?$allocator@K@std@@@std@@YAXPAK0AAV?$allocator@K@0@@Z PROC NEAR ; std::_Destroy_range<unsigned long,std::allocator<unsigned long> >, COMDAT

; 216  : 	{	// destroy [_First, _Last)

  00000	55		 push	 ebp
  00001	8b ec		 mov	 ebp, esp
  00003	51		 push	 ecx

; 217  : 	_Destroy_range(_First, _Last, _Al, _Ptr_cat(_First, _Last));

  00004	8b 45 0c	 mov	 eax, DWORD PTR __Last$[ebp]
  00007	50		 push	 eax
  00008	8b 4d 08	 mov	 ecx, DWORD PTR __First$[ebp]
  0000b	51		 push	 ecx
  0000c	e8 00 00 00 00	 call	 ?_Ptr_cat@std@@YA?AU_Scalar_ptr_iterator_tag@1@PAK0@Z ; std::_Ptr_cat
  00011	83 c4 08	 add	 esp, 8
  00014	88 45 ff	 mov	 BYTE PTR $T205148[ebp], al
  00017	8a 55 ff	 mov	 dl, BYTE PTR $T205148[ebp]
  0001a	52		 push	 edx
  0001b	8b 45 10	 mov	 eax, DWORD PTR __Al$[ebp]
  0001e	50		 push	 eax
  0001f	8b 4d 0c	 mov	 ecx, DWORD PTR __Last$[ebp]
  00022	51		 push	 ecx
  00023	8b 55 08	 mov	 edx, DWORD PTR __First$[ebp]
  00026	52		 push	 edx
  00027	e8 00 00 00 00	 call	 ??$_Destroy_range@KV?$allocator@K@std@@@std@@YAXPAK0AAV?$allocator@K@0@U_Scalar_ptr_iterator_tag@0@@Z ; std::_Destroy_range<unsigned long,std::allocator<unsigned long> >
  0002c	83 c4 10	 add	 esp, 16			; 00000010H

; 218  : 	}

  0002f	8b e5		 mov	 esp, ebp
  00031	5d		 pop	 ebp
  00032	c3		 ret	 0
??$_Destroy_range@KV?$allocator@K@std@@@std@@YAXPAK0AAV?$allocator@K@0@@Z ENDP ; std::_Destroy_range<unsigned long,std::allocator<unsigned long> >
_TEXT	ENDS
PUBLIC	??$_Uninitialized_copy@PAKPAKV?$allocator@K@std@@@std@@YAPAKPAK00AAV?$allocator@K@0@@Z ; std::_Uninitialized_copy<unsigned long *,unsigned long *,std::allocator<unsigned long> >
; Function compile flags: /Odt
; File d:\program files (x86)\microsoft visual studio .net 2003\vc7\include\vector
;	COMDAT ??$_Ucopy@PAK@?$vector@KV?$allocator@K@std@@@std@@IAEPAKPAK00@Z
_TEXT	SEGMENT
_this$ = -4						; size = 4
__First$ = 8						; size = 4
__Last$ = 12						; size = 4
__Ptr$ = 16						; size = 4
??$_Ucopy@PAK@?$vector@KV?$allocator@K@std@@@std@@IAEPAKPAK00@Z PROC NEAR ; std::vector<unsigned long,std::allocator<unsigned long> >::_Ucopy<unsigned long *>, COMDAT
; _this$ = ecx

; 801  : 		pointer _Ucopy(_Iter _First, _Iter _Last, pointer _Ptr)

  00000	55		 push	 ebp
  00001	8b ec		 mov	 ebp, esp
  00003	51		 push	 ecx
  00004	89 4d fc	 mov	 DWORD PTR _this$[ebp], ecx

; 802  : 		{	// copy initializing [_First, _Last), using allocator
; 803  : 		return (_Uninitialized_copy(_First, _Last,
; 804  : 			_Ptr, this->_Alval));

  00007	8b 45 fc	 mov	 eax, DWORD PTR _this$[ebp]
  0000a	50		 push	 eax
  0000b	8b 4d 10	 mov	 ecx, DWORD PTR __Ptr$[ebp]
  0000e	51		 push	 ecx
  0000f	8b 55 0c	 mov	 edx, DWORD PTR __Last$[ebp]
  00012	52		 push	 edx
  00013	8b 45 08	 mov	 eax, DWORD PTR __First$[ebp]
  00016	50		 push	 eax
  00017	e8 00 00 00 00	 call	 ??$_Uninitialized_copy@PAKPAKV?$allocator@K@std@@@std@@YAPAKPAK00AAV?$allocator@K@0@@Z ; std::_Uninitialized_copy<unsigned long *,unsigned long *,std::allocator<unsigned long> >
  0001c	83 c4 10	 add	 esp, 16			; 00000010H

; 805  : 		}

  0001f	8b e5		 mov	 esp, ebp
  00021	5d		 pop	 ebp
  00022	c2 0c 00	 ret	 12			; 0000000cH
??$_Ucopy@PAK@?$vector@KV?$allocator@K@std@@@std@@IAEPAKPAK00@Z ENDP ; std::vector<unsigned long,std::allocator<unsigned long> >::_Ucopy<unsigned long *>
; Function compile flags: /Odt
; File d:\program files (x86)\microsoft visual studio .net 2003\vc7\include\xutility
_TEXT	ENDS
;	COMDAT ??$fill@PAKK@std@@YAXPAK0ABK@Z
_TEXT	SEGMENT
__First$ = 8						; size = 4
__Last$ = 12						; size = 4
__Val$ = 16						; size = 4
??$fill@PAKK@std@@YAXPAK0ABK@Z PROC NEAR		; std::fill<unsigned long *,unsigned long>, COMDAT

; 1134 : 	{	// copy _Val through [_First, _Last)

  00000	55		 push	 ebp
  00001	8b ec		 mov	 ebp, esp

; 1135 : 	for (; _First != _Last; ++_First)

  00003	eb 09		 jmp	 SHORT $L203803
$L203804:
  00005	8b 45 08	 mov	 eax, DWORD PTR __First$[ebp]
  00008	83 c0 04	 add	 eax, 4
  0000b	89 45 08	 mov	 DWORD PTR __First$[ebp], eax
$L203803:
  0000e	8b 4d 08	 mov	 ecx, DWORD PTR __First$[ebp]
  00011	3b 4d 0c	 cmp	 ecx, DWORD PTR __Last$[ebp]
  00014	74 0c		 je	 SHORT $L203802

; 1136 : 		*_First = _Val;

  00016	8b 55 08	 mov	 edx, DWORD PTR __First$[ebp]
  00019	8b 45 10	 mov	 eax, DWORD PTR __Val$[ebp]
  0001c	8b 08		 mov	 ecx, DWORD PTR [eax]
  0001e	89 0a		 mov	 DWORD PTR [edx], ecx
  00020	eb e3		 jmp	 SHORT $L203804
$L203802:

; 1137 : 	}

  00022	5d		 pop	 ebp
  00023	c3		 ret	 0
??$fill@PAKK@std@@YAXPAK0ABK@Z ENDP			; std::fill<unsigned long *,unsigned long>
_TEXT	ENDS
PUBLIC	??$_Copy_backward_opt@PAKPAK@std@@YAPAKPAK00U_Scalar_ptr_iterator_tag@0@@Z ; std::_Copy_backward_opt<unsigned long *,unsigned long *>
; Function compile flags: /Odt
;	COMDAT ??$copy_backward@PAKPAK@std@@YAPAKPAK00@Z
_TEXT	SEGMENT
$T205155 = -1						; size = 1
__First$ = 8						; size = 4
__Last$ = 12						; size = 4
__Dest$ = 16						; size = 4
??$copy_backward@PAKPAK@std@@YAPAKPAK00@Z PROC NEAR	; std::copy_backward<unsigned long *,unsigned long *>, COMDAT

; 1067 : 	{	// copy [_First, _Last) backwards to [..., _Dest)

  00000	55		 push	 ebp
  00001	8b ec		 mov	 ebp, esp
  00003	51		 push	 ecx

; 1068 : 	return (_Copy_backward_opt(_First, _Last, _Dest,
; 1069 : 		_Ptr_cat(_First, _Dest)));

  00004	8b 45 10	 mov	 eax, DWORD PTR __Dest$[ebp]
  00007	50		 push	 eax
  00008	8b 4d 08	 mov	 ecx, DWORD PTR __First$[ebp]
  0000b	51		 push	 ecx
  0000c	e8 00 00 00 00	 call	 ?_Ptr_cat@std@@YA?AU_Scalar_ptr_iterator_tag@1@PAK0@Z ; std::_Ptr_cat
  00011	83 c4 08	 add	 esp, 8
  00014	88 45 ff	 mov	 BYTE PTR $T205155[ebp], al
  00017	8a 55 ff	 mov	 dl, BYTE PTR $T205155[ebp]
  0001a	52		 push	 edx
  0001b	8b 45 10	 mov	 eax, DWORD PTR __Dest$[ebp]
  0001e	50		 push	 eax
  0001f	8b 4d 0c	 mov	 ecx, DWORD PTR __Last$[ebp]
  00022	51		 push	 ecx
  00023	8b 55 08	 mov	 edx, DWORD PTR __First$[ebp]
  00026	52		 push	 edx
  00027	e8 00 00 00 00	 call	 ??$_Copy_backward_opt@PAKPAK@std@@YAPAKPAK00U_Scalar_ptr_iterator_tag@0@@Z ; std::_Copy_backward_opt<unsigned long *,unsigned long *>
  0002c	83 c4 10	 add	 esp, 16			; 00000010H

; 1070 : 	}

  0002f	8b e5		 mov	 esp, ebp
  00031	5d		 pop	 ebp
  00032	c3		 ret	 0
??$copy_backward@PAKPAK@std@@YAPAKPAK00@Z ENDP		; std::copy_backward<unsigned long *,unsigned long *>
; Function compile flags: /Odt
; File d:\program files (x86)\microsoft visual studio .net 2003\vc7\include\xmemory
_TEXT	ENDS
;	COMDAT ??$_Allocate@K@std@@YAPAKIPAK@Z
_TEXT	SEGMENT
__Count$ = 8						; size = 4
___formal$ = 12						; size = 4
??$_Allocate@K@std@@YAPAKIPAK@Z PROC NEAR		; std::_Allocate<unsigned long>, COMDAT

; 33   : 	{	// allocate storage for _Count elements of type _Ty

  00000	55		 push	 ebp
  00001	8b ec		 mov	 ebp, esp

; 34   : 	return ((_Ty _FARQ *)operator new(_Count * sizeof (_Ty)));

  00003	8b 45 08	 mov	 eax, DWORD PTR __Count$[ebp]
  00006	c1 e0 02	 shl	 eax, 2
  00009	50		 push	 eax
  0000a	e8 00 00 00 00	 call	 ??2@YAPAXI@Z		; operator new
  0000f	83 c4 04	 add	 esp, 4

; 35   : 	}

  00012	5d		 pop	 ebp
  00013	c3		 ret	 0
??$_Allocate@K@std@@YAPAKIPAK@Z ENDP			; std::_Allocate<unsigned long>
; Function compile flags: /Odt
; File d:\program files (x86)\microsoft visual studio .net 2003\vc7\include\xutility
_TEXT	ENDS
;	COMDAT ??$_Ptr_cat@VCSkinButton2@@@std@@YA?AU_Scalar_ptr_iterator_tag@0@PAPAVCSkinButton2@@0@Z
_TEXT	SEGMENT
__Cat$ = -1						; size = 1
___formal$ = 8						; size = 4
___formal$ = 12						; size = 4
??$_Ptr_cat@VCSkinButton2@@@std@@YA?AU_Scalar_ptr_iterator_tag@0@PAPAVCSkinButton2@@0@Z PROC NEAR ; std::_Ptr_cat<CSkinButton2>, COMDAT

; 218  : 	{	// return pointer category from pointer to pointer arguments

  00000	55		 push	 ebp
  00001	8b ec		 mov	 ebp, esp
  00003	51		 push	 ecx

; 219  : 	_Scalar_ptr_iterator_tag _Cat;
; 220  : 	return (_Cat);

  00004	8a 45 ff	 mov	 al, BYTE PTR __Cat$[ebp]

; 221  : 	}

  00007	8b e5		 mov	 esp, ebp
  00009	5d		 pop	 ebp
  0000a	c3		 ret	 0
??$_Ptr_cat@VCSkinButton2@@@std@@YA?AU_Scalar_ptr_iterator_tag@0@PAPAVCSkinButton2@@0@Z ENDP ; std::_Ptr_cat<CSkinButton2>
_TEXT	ENDS
PUBLIC	??$fill_n@PAPAVCSkinButton2@@IPAV1@@std@@YAXPAPAVCSkinButton2@@IABQAV1@@Z ; std::fill_n<CSkinButton2 * *,unsigned int,CSkinButton2 *>
; Function compile flags: /Odt
; File d:\program files (x86)\microsoft visual studio .net 2003\vc7\include\memory
;	COMDAT ??$_Uninit_fill_n@PAVCSkinButton2@@IPAV1@@std@@YAXPAPAVCSkinButton2@@IABQAV1@AAV?$allocator@PAVCSkinButton2@@@0@U_Scalar_ptr_iterator_tag@0@@Z
_TEXT	SEGMENT
__First$ = 8						; size = 4
__Count$ = 12						; size = 4
__Val$ = 16						; size = 4
___formal$ = 20						; size = 4
___formal$ = 24						; size = 1
??$_Uninit_fill_n@PAVCSkinButton2@@IPAV1@@std@@YAXPAPAVCSkinButton2@@IABQAV1@AAV?$allocator@PAVCSkinButton2@@@0@U_Scalar_ptr_iterator_tag@0@@Z PROC NEAR ; std::_Uninit_fill_n<CSkinButton2 *,unsigned int,CSkinButton2 *>, COMDAT

; 236  : 	{	// copy _Count *_Val to raw _First, using _Al, scalar type

  00000	55		 push	 ebp
  00001	8b ec		 mov	 ebp, esp

; 237  : 	fill_n(_First, _Count, _Val);

  00003	8b 45 10	 mov	 eax, DWORD PTR __Val$[ebp]
  00006	50		 push	 eax
  00007	8b 4d 0c	 mov	 ecx, DWORD PTR __Count$[ebp]
  0000a	51		 push	 ecx
  0000b	8b 55 08	 mov	 edx, DWORD PTR __First$[ebp]
  0000e	52		 push	 edx
  0000f	e8 00 00 00 00	 call	 ??$fill_n@PAPAVCSkinButton2@@IPAV1@@std@@YAXPAPAVCSkinButton2@@IABQAV1@@Z ; std::fill_n<CSkinButton2 * *,unsigned int,CSkinButton2 *>
  00014	83 c4 0c	 add	 esp, 12			; 0000000cH

; 238  : 	}

  00017	5d		 pop	 ebp
  00018	c3		 ret	 0
??$_Uninit_fill_n@PAVCSkinButton2@@IPAV1@@std@@YAXPAPAVCSkinButton2@@IABQAV1@AAV?$allocator@PAVCSkinButton2@@@0@U_Scalar_ptr_iterator_tag@0@@Z ENDP ; std::_Uninit_fill_n<CSkinButton2 *,unsigned int,CSkinButton2 *>
_TEXT	ENDS
PUBLIC	??$fill_n@PAKIK@std@@YAXPAKIABK@Z		; std::fill_n<unsigned long *,unsigned int,unsigned long>
; Function compile flags: /Odt
;	COMDAT ??$_Uninit_fill_n@KIK@std@@YAXPAKIABKAAV?$allocator@K@0@U_Scalar_ptr_iterator_tag@0@@Z
_TEXT	SEGMENT
__First$ = 8						; size = 4
__Count$ = 12						; size = 4
__Val$ = 16						; size = 4
___formal$ = 20						; size = 4
___formal$ = 24						; size = 1
??$_Uninit_fill_n@KIK@std@@YAXPAKIABKAAV?$allocator@K@0@U_Scalar_ptr_iterator_tag@0@@Z PROC NEAR ; std::_Uninit_fill_n<unsigned long,unsigned int,unsigned long>, COMDAT

; 236  : 	{	// copy _Count *_Val to raw _First, using _Al, scalar type

  00000	55		 push	 ebp
  00001	8b ec		 mov	 ebp, esp

; 237  : 	fill_n(_First, _Count, _Val);

  00003	8b 45 10	 mov	 eax, DWORD PTR __Val$[ebp]
  00006	50		 push	 eax
  00007	8b 4d 0c	 mov	 ecx, DWORD PTR __Count$[ebp]
  0000a	51		 push	 ecx
  0000b	8b 55 08	 mov	 edx, DWORD PTR __First$[ebp]
  0000e	52		 push	 edx
  0000f	e8 00 00 00 00	 call	 ??$fill_n@PAKIK@std@@YAXPAKIABK@Z ; std::fill_n<unsigned long *,unsigned int,unsigned long>
  00014	83 c4 0c	 add	 esp, 12			; 0000000cH

; 238  : 	}

  00017	5d		 pop	 ebp
  00018	c3		 ret	 0
??$_Uninit_fill_n@KIK@std@@YAXPAKIABKAAV?$allocator@K@0@U_Scalar_ptr_iterator_tag@0@@Z ENDP ; std::_Uninit_fill_n<unsigned long,unsigned int,unsigned long>
; Function compile flags: /Odt
; File d:\program files (x86)\microsoft visual studio .net 2003\vc7\include\xmemory
_TEXT	ENDS
;	COMDAT ??$_Destroy_range@PAVCSkinButton2@@V?$allocator@PAVCSkinButton2@@@std@@@std@@YAXPAPAVCSkinButton2@@0AAV?$allocator@PAVCSkinButton2@@@0@U_Scalar_ptr_iterator_tag@0@@Z
_TEXT	SEGMENT
__First$ = 8						; size = 4
__Last$ = 12						; size = 4
__Al$ = 16						; size = 4
___formal$ = 20						; size = 1
??$_Destroy_range@PAVCSkinButton2@@V?$allocator@PAVCSkinButton2@@@std@@@std@@YAXPAPAVCSkinButton2@@0AAV?$allocator@PAVCSkinButton2@@@0@U_Scalar_ptr_iterator_tag@0@@Z PROC NEAR ; std::_Destroy_range<CSkinButton2 *,std::allocator<CSkinButton2 *> >, COMDAT

; 233  : 	{	// destroy [_First, _Last), scalar type (do nothing)

  00000	55		 push	 ebp
  00001	8b ec		 mov	 ebp, esp

; 234  : 	}

  00003	5d		 pop	 ebp
  00004	c3		 ret	 0
??$_Destroy_range@PAVCSkinButton2@@V?$allocator@PAVCSkinButton2@@@std@@@std@@YAXPAPAVCSkinButton2@@0AAV?$allocator@PAVCSkinButton2@@@0@U_Scalar_ptr_iterator_tag@0@@Z ENDP ; std::_Destroy_range<CSkinButton2 *,std::allocator<CSkinButton2 *> >
_TEXT	ENDS
PUBLIC	??$_Uninit_copy@PAVCSkinButton2@@PAV1@@std@@YAPAPAVCSkinButton2@@PAPAV1@00AAV?$allocator@PAVCSkinButton2@@@0@U_Scalar_ptr_iterator_tag@0@@Z ; std::_Uninit_copy<CSkinButton2 *,CSkinButton2 *>
; Function compile flags: /Odt
; File d:\program files (x86)\microsoft visual studio .net 2003\vc7\include\memory
;	COMDAT ??$_Uninitialized_copy@PAPAVCSkinButton2@@PAPAV1@V?$allocator@PAVCSkinButton2@@@std@@@std@@YAPAPAVCSkinButton2@@PAPAV1@00AAV?$allocator@PAVCSkinButton2@@@0@@Z
_TEXT	SEGMENT
$T205168 = -1						; size = 1
__First$ = 8						; size = 4
__Last$ = 12						; size = 4
__Dest$ = 16						; size = 4
__Al$ = 20						; size = 4
??$_Uninitialized_copy@PAPAVCSkinButton2@@PAPAV1@V?$allocator@PAVCSkinButton2@@@std@@@std@@YAPAPAVCSkinButton2@@PAPAV1@00AAV?$allocator@PAVCSkinButton2@@@0@@Z PROC NEAR ; std::_Uninitialized_copy<CSkinButton2 * *,CSkinButton2 * *,std::allocator<CSkinButton2 *> >, COMDAT

; 126  : 	{	// copy [_First, _Last) to raw _Dest, using _Al

  00000	55		 push	 ebp
  00001	8b ec		 mov	 ebp, esp
  00003	51		 push	 ecx

; 127  : 	return (_Uninit_copy(_First, _Last, _Dest, _Al,
; 128  : 		_Ptr_cat(_First, _Dest)));

  00004	8b 45 10	 mov	 eax, DWORD PTR __Dest$[ebp]
  00007	50		 push	 eax
  00008	8b 4d 08	 mov	 ecx, DWORD PTR __First$[ebp]
  0000b	51		 push	 ecx
  0000c	e8 00 00 00 00	 call	 ??$_Ptr_cat@VCSkinButton2@@@std@@YA?AU_Scalar_ptr_iterator_tag@0@PAPAVCSkinButton2@@0@Z ; std::_Ptr_cat<CSkinButton2>
  00011	83 c4 08	 add	 esp, 8
  00014	88 45 ff	 mov	 BYTE PTR $T205168[ebp], al
  00017	8a 55 ff	 mov	 dl, BYTE PTR $T205168[ebp]
  0001a	52		 push	 edx
  0001b	8b 45 14	 mov	 eax, DWORD PTR __Al$[ebp]
  0001e	50		 push	 eax
  0001f	8b 4d 10	 mov	 ecx, DWORD PTR __Dest$[ebp]
  00022	51		 push	 ecx
  00023	8b 55 0c	 mov	 edx, DWORD PTR __Last$[ebp]
  00026	52		 push	 edx
  00027	8b 45 08	 mov	 eax, DWORD PTR __First$[ebp]
  0002a	50		 push	 eax
  0002b	e8 00 00 00 00	 call	 ??$_Uninit_copy@PAVCSkinButton2@@PAV1@@std@@YAPAPAVCSkinButton2@@PAPAV1@00AAV?$allocator@PAVCSkinButton2@@@0@U_Scalar_ptr_iterator_tag@0@@Z ; std::_Uninit_copy<CSkinButton2 *,CSkinButton2 *>
  00030	83 c4 14	 add	 esp, 20			; 00000014H

; 129  : 	}

  00033	8b e5		 mov	 esp, ebp
  00035	5d		 pop	 ebp
  00036	c3		 ret	 0
??$_Uninitialized_copy@PAPAVCSkinButton2@@PAPAV1@V?$allocator@PAVCSkinButton2@@@std@@@std@@YAPAPAVCSkinButton2@@PAPAV1@00AAV?$allocator@PAVCSkinButton2@@@0@@Z ENDP ; std::_Uninitialized_copy<CSkinButton2 * *,CSkinButton2 * *,std::allocator<CSkinButton2 *> >
_TEXT	ENDS
EXTRN	__imp__memmove:NEAR
; Function compile flags: /Odt
; File d:\program files (x86)\microsoft visual studio .net 2003\vc7\include\xutility
;	COMDAT ??$_Copy_backward_opt@PAPAVCSkinButton2@@PAPAV1@@std@@YAPAPAVCSkinButton2@@PAPAV1@00U_Scalar_ptr_iterator_tag@0@@Z
_TEXT	SEGMENT
__Off$ = -4						; size = 4
__First$ = 8						; size = 4
__Last$ = 12						; size = 4
__Dest$ = 16						; size = 4
___formal$ = 20						; size = 1
??$_Copy_backward_opt@PAPAVCSkinButton2@@PAPAV1@@std@@YAPAPAVCSkinButton2@@PAPAV1@00U_Scalar_ptr_iterator_tag@0@@Z PROC NEAR ; std::_Copy_backward_opt<CSkinButton2 * *,CSkinButton2 * *>, COMDAT

; 1058 : 	{	// copy [_First, _Last) backwards to [..., _Dest), pointers to scalars

  00000	55		 push	 ebp
  00001	8b ec		 mov	 ebp, esp
  00003	51		 push	 ecx

; 1059 : 	ptrdiff_t _Off = _Last - _First;	// NB: non-overlapping move

  00004	8b 45 0c	 mov	 eax, DWORD PTR __Last$[ebp]
  00007	2b 45 08	 sub	 eax, DWORD PTR __First$[ebp]
  0000a	c1 f8 02	 sar	 eax, 2
  0000d	89 45 fc	 mov	 DWORD PTR __Off$[ebp], eax

; 1060 : 	return ((_OutIt)memmove(&*_Dest - _Off, &*_First,
; 1061 : 		_Off * sizeof (*_First)));

  00010	8b 4d fc	 mov	 ecx, DWORD PTR __Off$[ebp]
  00013	c1 e1 02	 shl	 ecx, 2
  00016	51		 push	 ecx
  00017	8b 55 08	 mov	 edx, DWORD PTR __First$[ebp]
  0001a	52		 push	 edx
  0001b	8b 45 fc	 mov	 eax, DWORD PTR __Off$[ebp]
  0001e	c1 e0 02	 shl	 eax, 2
  00021	8b 4d 10	 mov	 ecx, DWORD PTR __Dest$[ebp]
  00024	2b c8		 sub	 ecx, eax
  00026	51		 push	 ecx
  00027	ff 15 00 00 00
	00		 call	 DWORD PTR __imp__memmove
  0002d	83 c4 0c	 add	 esp, 12			; 0000000cH

; 1062 : 	}

  00030	8b e5		 mov	 esp, ebp
  00032	5d		 pop	 ebp
  00033	c3		 ret	 0
??$_Copy_backward_opt@PAPAVCSkinButton2@@PAPAV1@@std@@YAPAPAVCSkinButton2@@PAPAV1@00U_Scalar_ptr_iterator_tag@0@@Z ENDP ; std::_Copy_backward_opt<CSkinButton2 * *,CSkinButton2 * *>
; Function compile flags: /Odt
; File d:\program files (x86)\microsoft visual studio .net 2003\vc7\include\xmemory
_TEXT	ENDS
;	COMDAT ??$_Destroy_range@KV?$allocator@K@std@@@std@@YAXPAK0AAV?$allocator@K@0@U_Scalar_ptr_iterator_tag@0@@Z
_TEXT	SEGMENT
__First$ = 8						; size = 4
__Last$ = 12						; size = 4
__Al$ = 16						; size = 4
___formal$ = 20						; size = 1
??$_Destroy_range@KV?$allocator@K@std@@@std@@YAXPAK0AAV?$allocator@K@0@U_Scalar_ptr_iterator_tag@0@@Z PROC NEAR ; std::_Destroy_range<unsigned long,std::allocator<unsigned long> >, COMDAT

; 233  : 	{	// destroy [_First, _Last), scalar type (do nothing)

  00000	55		 push	 ebp
  00001	8b ec		 mov	 ebp, esp

; 234  : 	}

  00003	5d		 pop	 ebp
  00004	c3		 ret	 0
??$_Destroy_range@KV?$allocator@K@std@@@std@@YAXPAK0AAV?$allocator@K@0@U_Scalar_ptr_iterator_tag@0@@Z ENDP ; std::_Destroy_range<unsigned long,std::allocator<unsigned long> >
_TEXT	ENDS
PUBLIC	??$_Uninit_copy@KK@std@@YAPAKPAK00AAV?$allocator@K@0@U_Scalar_ptr_iterator_tag@0@@Z ; std::_Uninit_copy<unsigned long,unsigned long>
; Function compile flags: /Odt
; File d:\program files (x86)\microsoft visual studio .net 2003\vc7\include\memory
;	COMDAT ??$_Uninitialized_copy@PAKPAKV?$allocator@K@std@@@std@@YAPAKPAK00AAV?$allocator@K@0@@Z
_TEXT	SEGMENT
$T205175 = -1						; size = 1
__First$ = 8						; size = 4
__Last$ = 12						; size = 4
__Dest$ = 16						; size = 4
__Al$ = 20						; size = 4
??$_Uninitialized_copy@PAKPAKV?$allocator@K@std@@@std@@YAPAKPAK00AAV?$allocator@K@0@@Z PROC NEAR ; std::_Uninitialized_copy<unsigned long *,unsigned long *,std::allocator<unsigned long> >, COMDAT

; 126  : 	{	// copy [_First, _Last) to raw _Dest, using _Al

  00000	55		 push	 ebp
  00001	8b ec		 mov	 ebp, esp
  00003	51		 push	 ecx

; 127  : 	return (_Uninit_copy(_First, _Last, _Dest, _Al,
; 128  : 		_Ptr_cat(_First, _Dest)));

  00004	8b 45 10	 mov	 eax, DWORD PTR __Dest$[ebp]
  00007	50		 push	 eax
  00008	8b 4d 08	 mov	 ecx, DWORD PTR __First$[ebp]
  0000b	51		 push	 ecx
  0000c	e8 00 00 00 00	 call	 ?_Ptr_cat@std@@YA?AU_Scalar_ptr_iterator_tag@1@PAK0@Z ; std::_Ptr_cat
  00011	83 c4 08	 add	 esp, 8
  00014	88 45 ff	 mov	 BYTE PTR $T205175[ebp], al
  00017	8a 55 ff	 mov	 dl, BYTE PTR $T205175[ebp]
  0001a	52		 push	 edx
  0001b	8b 45 14	 mov	 eax, DWORD PTR __Al$[ebp]
  0001e	50		 push	 eax
  0001f	8b 4d 10	 mov	 ecx, DWORD PTR __Dest$[ebp]
  00022	51		 push	 ecx
  00023	8b 55 0c	 mov	 edx, DWORD PTR __Last$[ebp]
  00026	52		 push	 edx
  00027	8b 45 08	 mov	 eax, DWORD PTR __First$[ebp]
  0002a	50		 push	 eax
  0002b	e8 00 00 00 00	 call	 ??$_Uninit_copy@KK@std@@YAPAKPAK00AAV?$allocator@K@0@U_Scalar_ptr_iterator_tag@0@@Z ; std::_Uninit_copy<unsigned long,unsigned long>
  00030	83 c4 14	 add	 esp, 20			; 00000014H

; 129  : 	}

  00033	8b e5		 mov	 esp, ebp
  00035	5d		 pop	 ebp
  00036	c3		 ret	 0
??$_Uninitialized_copy@PAKPAKV?$allocator@K@std@@@std@@YAPAKPAK00AAV?$allocator@K@0@@Z ENDP ; std::_Uninitialized_copy<unsigned long *,unsigned long *,std::allocator<unsigned long> >
; Function compile flags: /Odt
; File d:\program files (x86)\microsoft visual studio .net 2003\vc7\include\xutility
_TEXT	ENDS
;	COMDAT ??$_Copy_backward_opt@PAKPAK@std@@YAPAKPAK00U_Scalar_ptr_iterator_tag@0@@Z
_TEXT	SEGMENT
__Off$ = -4						; size = 4
__First$ = 8						; size = 4
__Last$ = 12						; size = 4
__Dest$ = 16						; size = 4
___formal$ = 20						; size = 1
??$_Copy_backward_opt@PAKPAK@std@@YAPAKPAK00U_Scalar_ptr_iterator_tag@0@@Z PROC NEAR ; std::_Copy_backward_opt<unsigned long *,unsigned long *>, COMDAT

; 1058 : 	{	// copy [_First, _Last) backwards to [..., _Dest), pointers to scalars

  00000	55		 push	 ebp
  00001	8b ec		 mov	 ebp, esp
  00003	51		 push	 ecx

; 1059 : 	ptrdiff_t _Off = _Last - _First;	// NB: non-overlapping move

  00004	8b 45 0c	 mov	 eax, DWORD PTR __Last$[ebp]
  00007	2b 45 08	 sub	 eax, DWORD PTR __First$[ebp]
  0000a	c1 f8 02	 sar	 eax, 2
  0000d	89 45 fc	 mov	 DWORD PTR __Off$[ebp], eax

; 1060 : 	return ((_OutIt)memmove(&*_Dest - _Off, &*_First,
; 1061 : 		_Off * sizeof (*_First)));

  00010	8b 4d fc	 mov	 ecx, DWORD PTR __Off$[ebp]
  00013	c1 e1 02	 shl	 ecx, 2
  00016	51		 push	 ecx
  00017	8b 55 08	 mov	 edx, DWORD PTR __First$[ebp]
  0001a	52		 push	 edx
  0001b	8b 45 fc	 mov	 eax, DWORD PTR __Off$[ebp]
  0001e	c1 e0 02	 shl	 eax, 2
  00021	8b 4d 10	 mov	 ecx, DWORD PTR __Dest$[ebp]
  00024	2b c8		 sub	 ecx, eax
  00026	51		 push	 ecx
  00027	ff 15 00 00 00
	00		 call	 DWORD PTR __imp__memmove
  0002d	83 c4 0c	 add	 esp, 12			; 0000000cH

; 1062 : 	}

  00030	8b e5		 mov	 esp, ebp
  00032	5d		 pop	 ebp
  00033	c3		 ret	 0
??$_Copy_backward_opt@PAKPAK@std@@YAPAKPAK00U_Scalar_ptr_iterator_tag@0@@Z ENDP ; std::_Copy_backward_opt<unsigned long *,unsigned long *>
; Function compile flags: /Odt
_TEXT	ENDS
;	COMDAT ??$fill_n@PAPAVCSkinButton2@@IPAV1@@std@@YAXPAPAVCSkinButton2@@IABQAV1@@Z
_TEXT	SEGMENT
__First$ = 8						; size = 4
__Count$ = 12						; size = 4
__Val$ = 16						; size = 4
??$fill_n@PAPAVCSkinButton2@@IPAV1@@std@@YAXPAPAVCSkinButton2@@IABQAV1@@Z PROC NEAR ; std::fill_n<CSkinButton2 * *,unsigned int,CSkinButton2 *>, COMDAT

; 1159 : 	{	// copy _Val _Count times through [_First, ...)

  00000	55		 push	 ebp
  00001	8b ec		 mov	 ebp, esp

; 1160 : 	for (; 0 < _Count; --_Count, ++_First)

  00003	eb 12		 jmp	 SHORT $L203937
$L203938:
  00005	8b 45 0c	 mov	 eax, DWORD PTR __Count$[ebp]
  00008	83 e8 01	 sub	 eax, 1
  0000b	89 45 0c	 mov	 DWORD PTR __Count$[ebp], eax
  0000e	8b 4d 08	 mov	 ecx, DWORD PTR __First$[ebp]
  00011	83 c1 04	 add	 ecx, 4
  00014	89 4d 08	 mov	 DWORD PTR __First$[ebp], ecx
$L203937:
  00017	83 7d 0c 00	 cmp	 DWORD PTR __Count$[ebp], 0
  0001b	76 0c		 jbe	 SHORT $L203936

; 1161 : 		*_First = _Val;

  0001d	8b 55 08	 mov	 edx, DWORD PTR __First$[ebp]
  00020	8b 45 10	 mov	 eax, DWORD PTR __Val$[ebp]
  00023	8b 08		 mov	 ecx, DWORD PTR [eax]
  00025	89 0a		 mov	 DWORD PTR [edx], ecx
  00027	eb dc		 jmp	 SHORT $L203938
$L203936:

; 1162 : 	}

  00029	5d		 pop	 ebp
  0002a	c3		 ret	 0
??$fill_n@PAPAVCSkinButton2@@IPAV1@@std@@YAXPAPAVCSkinButton2@@IABQAV1@@Z ENDP ; std::fill_n<CSkinButton2 * *,unsigned int,CSkinButton2 *>
; Function compile flags: /Odt
_TEXT	ENDS
;	COMDAT ??$fill_n@PAKIK@std@@YAXPAKIABK@Z
_TEXT	SEGMENT
__First$ = 8						; size = 4
__Count$ = 12						; size = 4
__Val$ = 16						; size = 4
??$fill_n@PAKIK@std@@YAXPAKIABK@Z PROC NEAR		; std::fill_n<unsigned long *,unsigned int,unsigned long>, COMDAT

; 1159 : 	{	// copy _Val _Count times through [_First, ...)

  00000	55		 push	 ebp
  00001	8b ec		 mov	 ebp, esp

; 1160 : 	for (; 0 < _Count; --_Count, ++_First)

  00003	eb 12		 jmp	 SHORT $L203941
$L203942:
  00005	8b 45 0c	 mov	 eax, DWORD PTR __Count$[ebp]
  00008	83 e8 01	 sub	 eax, 1
  0000b	89 45 0c	 mov	 DWORD PTR __Count$[ebp], eax
  0000e	8b 4d 08	 mov	 ecx, DWORD PTR __First$[ebp]
  00011	83 c1 04	 add	 ecx, 4
  00014	89 4d 08	 mov	 DWORD PTR __First$[ebp], ecx
$L203941:
  00017	83 7d 0c 00	 cmp	 DWORD PTR __Count$[ebp], 0
  0001b	76 0c		 jbe	 SHORT $L203940

; 1161 : 		*_First = _Val;

  0001d	8b 55 08	 mov	 edx, DWORD PTR __First$[ebp]
  00020	8b 45 10	 mov	 eax, DWORD PTR __Val$[ebp]
  00023	8b 08		 mov	 ecx, DWORD PTR [eax]
  00025	89 0a		 mov	 DWORD PTR [edx], ecx
  00027	eb dc		 jmp	 SHORT $L203942
$L203940:

; 1162 : 	}

  00029	5d		 pop	 ebp
  0002a	c3		 ret	 0
??$fill_n@PAKIK@std@@YAXPAKIABK@Z ENDP			; std::fill_n<unsigned long *,unsigned int,unsigned long>
; Function compile flags: /Odt
; File d:\program files (x86)\microsoft visual studio .net 2003\vc7\include\memory
_TEXT	ENDS
;	COMDAT ??$_Uninit_copy@PAVCSkinButton2@@PAV1@@std@@YAPAPAVCSkinButton2@@PAPAV1@00AAV?$allocator@PAVCSkinButton2@@@0@U_Scalar_ptr_iterator_tag@0@@Z
_TEXT	SEGMENT
__Count$ = -4						; size = 4
__First$ = 8						; size = 4
__Last$ = 12						; size = 4
__Dest$ = 16						; size = 4
___formal$ = 20						; size = 4
___formal$ = 24						; size = 1
??$_Uninit_copy@PAVCSkinButton2@@PAV1@@std@@YAPAPAVCSkinButton2@@PAPAV1@00AAV?$allocator@PAVCSkinButton2@@@0@U_Scalar_ptr_iterator_tag@0@@Z PROC NEAR ; std::_Uninit_copy<CSkinButton2 *,CSkinButton2 *>, COMDAT

; 105  : 	{	// copy [_First, _Last) to raw _Dest, (const) scalar type

  00000	55		 push	 ebp
  00001	8b ec		 mov	 ebp, esp
  00003	51		 push	 ecx

; 106  : 	size_t _Count = (size_t)(_Last - _First);

  00004	8b 45 0c	 mov	 eax, DWORD PTR __Last$[ebp]
  00007	2b 45 08	 sub	 eax, DWORD PTR __First$[ebp]
  0000a	c1 f8 02	 sar	 eax, 2
  0000d	89 45 fc	 mov	 DWORD PTR __Count$[ebp], eax

; 107  : 	return ((_Ty2 *)memmove(&*_Dest, &*_First,
; 108  : 		_Count * sizeof (*_First)) + _Count);	// NB: non-overlapping move

  00010	8b 4d fc	 mov	 ecx, DWORD PTR __Count$[ebp]
  00013	c1 e1 02	 shl	 ecx, 2
  00016	51		 push	 ecx
  00017	8b 55 08	 mov	 edx, DWORD PTR __First$[ebp]
  0001a	52		 push	 edx
  0001b	8b 45 10	 mov	 eax, DWORD PTR __Dest$[ebp]
  0001e	50		 push	 eax
  0001f	ff 15 00 00 00
	00		 call	 DWORD PTR __imp__memmove
  00025	83 c4 0c	 add	 esp, 12			; 0000000cH
  00028	8b 4d fc	 mov	 ecx, DWORD PTR __Count$[ebp]
  0002b	8d 04 88	 lea	 eax, DWORD PTR [eax+ecx*4]

; 109  : 	}

  0002e	8b e5		 mov	 esp, ebp
  00030	5d		 pop	 ebp
  00031	c3		 ret	 0
??$_Uninit_copy@PAVCSkinButton2@@PAV1@@std@@YAPAPAVCSkinButton2@@PAPAV1@00AAV?$allocator@PAVCSkinButton2@@@0@U_Scalar_ptr_iterator_tag@0@@Z ENDP ; std::_Uninit_copy<CSkinButton2 *,CSkinButton2 *>
; Function compile flags: /Odt
_TEXT	ENDS
;	COMDAT ??$_Uninit_copy@KK@std@@YAPAKPAK00AAV?$allocator@K@0@U_Scalar_ptr_iterator_tag@0@@Z
_TEXT	SEGMENT
__Count$ = -4						; size = 4
__First$ = 8						; size = 4
__Last$ = 12						; size = 4
__Dest$ = 16						; size = 4
___formal$ = 20						; size = 4
___formal$ = 24						; size = 1
??$_Uninit_copy@KK@std@@YAPAKPAK00AAV?$allocator@K@0@U_Scalar_ptr_iterator_tag@0@@Z PROC NEAR ; std::_Uninit_copy<unsigned long,unsigned long>, COMDAT

; 105  : 	{	// copy [_First, _Last) to raw _Dest, (const) scalar type

  00000	55		 push	 ebp
  00001	8b ec		 mov	 ebp, esp
  00003	51		 push	 ecx

; 106  : 	size_t _Count = (size_t)(_Last - _First);

  00004	8b 45 0c	 mov	 eax, DWORD PTR __Last$[ebp]
  00007	2b 45 08	 sub	 eax, DWORD PTR __First$[ebp]
  0000a	c1 f8 02	 sar	 eax, 2
  0000d	89 45 fc	 mov	 DWORD PTR __Count$[ebp], eax

; 107  : 	return ((_Ty2 *)memmove(&*_Dest, &*_First,
; 108  : 		_Count * sizeof (*_First)) + _Count);	// NB: non-overlapping move

  00010	8b 4d fc	 mov	 ecx, DWORD PTR __Count$[ebp]
  00013	c1 e1 02	 shl	 ecx, 2
  00016	51		 push	 ecx
  00017	8b 55 08	 mov	 edx, DWORD PTR __First$[ebp]
  0001a	52		 push	 edx
  0001b	8b 45 10	 mov	 eax, DWORD PTR __Dest$[ebp]
  0001e	50		 push	 eax
  0001f	ff 15 00 00 00
	00		 call	 DWORD PTR __imp__memmove
  00025	83 c4 0c	 add	 esp, 12			; 0000000cH
  00028	8b 4d fc	 mov	 ecx, DWORD PTR __Count$[ebp]
  0002b	8d 04 88	 lea	 eax, DWORD PTR [eax+ecx*4]

; 109  : 	}

  0002e	8b e5		 mov	 esp, ebp
  00030	5d		 pop	 ebp
  00031	c3		 ret	 0
??$_Uninit_copy@KK@std@@YAPAKPAK00AAV?$allocator@K@0@U_Scalar_ptr_iterator_tag@0@@Z ENDP ; std::_Uninit_copy<unsigned long,unsigned long>
; Function compile flags: /Odt
; File d:\program files (x86)\microsoft visual studio .net 2003\vc7\atlmfc\include\atltypes.inl
_TEXT	ENDS
;	COMDAT ??0CRect@@QAE@XZ
_TEXT	SEGMENT
_this$ = -4						; size = 4
??0CRect@@QAE@XZ PROC NEAR				; CRect::CRect, COMDAT
; _this$ = ecx

; 110  : 	{ /* random filled */ }

  00000	55		 push	 ebp
  00001	8b ec		 mov	 ebp, esp
  00003	51		 push	 ecx
  00004	89 4d fc	 mov	 DWORD PTR _this$[ebp], ecx
  00007	8b 45 fc	 mov	 eax, DWORD PTR _this$[ebp]
  0000a	8b e5		 mov	 esp, ebp
  0000c	5d		 pop	 ebp
  0000d	c3		 ret	 0
??0CRect@@QAE@XZ ENDP					; CRect::CRect
; Function compile flags: /Odt
_TEXT	ENDS
;	COMDAT ??0CRect@@QAE@HHHH@Z
_TEXT	SEGMENT
_this$ = -4						; size = 4
_l$ = 8							; size = 4
_t$ = 12						; size = 4
_r$ = 16						; size = 4
_b$ = 20						; size = 4
??0CRect@@QAE@HHHH@Z PROC NEAR				; CRect::CRect, COMDAT
; _this$ = ecx

; 112  : 	{ left = l; top = t; right = r; bottom = b; }

  00000	55		 push	 ebp
  00001	8b ec		 mov	 ebp, esp
  00003	51		 push	 ecx
  00004	89 4d fc	 mov	 DWORD PTR _this$[ebp], ecx
  00007	8b 45 fc	 mov	 eax, DWORD PTR _this$[ebp]
  0000a	8b 4d 08	 mov	 ecx, DWORD PTR _l$[ebp]
  0000d	89 08		 mov	 DWORD PTR [eax], ecx
  0000f	8b 55 fc	 mov	 edx, DWORD PTR _this$[ebp]
  00012	8b 45 0c	 mov	 eax, DWORD PTR _t$[ebp]
  00015	89 42 04	 mov	 DWORD PTR [edx+4], eax
  00018	8b 4d fc	 mov	 ecx, DWORD PTR _this$[ebp]
  0001b	8b 55 10	 mov	 edx, DWORD PTR _r$[ebp]
  0001e	89 51 08	 mov	 DWORD PTR [ecx+8], edx
  00021	8b 45 fc	 mov	 eax, DWORD PTR _this$[ebp]
  00024	8b 4d 14	 mov	 ecx, DWORD PTR _b$[ebp]
  00027	89 48 0c	 mov	 DWORD PTR [eax+12], ecx
  0002a	8b 45 fc	 mov	 eax, DWORD PTR _this$[ebp]
  0002d	8b e5		 mov	 esp, ebp
  0002f	5d		 pop	 ebp
  00030	c2 10 00	 ret	 16			; 00000010H
??0CRect@@QAE@HHHH@Z ENDP				; CRect::CRect
_TEXT	ENDS
EXTRN	__imp__SetRect@20:NEAR
; Function compile flags: /Odt
;	COMDAT ?SetRect@CRect@@QAEXHHHH@Z
_TEXT	SEGMENT
_this$ = -4						; size = 4
_x1$ = 8						; size = 4
_y1$ = 12						; size = 4
_x2$ = 16						; size = 4
_y2$ = 20						; size = 4
?SetRect@CRect@@QAEXHHHH@Z PROC NEAR			; CRect::SetRect, COMDAT
; _this$ = ecx

; 153  : 	{ ::SetRect(this, x1, y1, x2, y2); }

  00000	55		 push	 ebp
  00001	8b ec		 mov	 ebp, esp
  00003	51		 push	 ecx
  00004	89 4d fc	 mov	 DWORD PTR _this$[ebp], ecx
  00007	8b 45 14	 mov	 eax, DWORD PTR _y2$[ebp]
  0000a	50		 push	 eax
  0000b	8b 4d 10	 mov	 ecx, DWORD PTR _x2$[ebp]
  0000e	51		 push	 ecx
  0000f	8b 55 0c	 mov	 edx, DWORD PTR _y1$[ebp]
  00012	52		 push	 edx
  00013	8b 45 08	 mov	 eax, DWORD PTR _x1$[ebp]
  00016	50		 push	 eax
  00017	8b 4d fc	 mov	 ecx, DWORD PTR _this$[ebp]
  0001a	51		 push	 ecx
  0001b	ff 15 00 00 00
	00		 call	 DWORD PTR __imp__SetRect@20
  00021	8b e5		 mov	 esp, ebp
  00023	5d		 pop	 ebp
  00024	c2 10 00	 ret	 16			; 00000010H
?SetRect@CRect@@QAEXHHHH@Z ENDP				; CRect::SetRect
; Function compile flags: /Odt
; File d:\program files (x86)\microsoft visual studio .net 2003\vc7\atlmfc\include\afx.inl
_TEXT	ENDS
;	COMDAT ?Serialize@CObject@@UAEXAAVCArchive@@@Z
_TEXT	SEGMENT
_this$ = -4						; size = 4
___formal$ = 8						; size = 4
?Serialize@CObject@@UAEXAAVCArchive@@@Z PROC NEAR	; CObject::Serialize, COMDAT
; _this$ = ecx

; 25   : 	{ /* CObject does not serialize anything by default */ }

  00000	55		 push	 ebp
  00001	8b ec		 mov	 ebp, esp
  00003	51		 push	 ecx
  00004	89 4d fc	 mov	 DWORD PTR _this$[ebp], ecx
  00007	8b e5		 mov	 esp, ebp
  00009	5d		 pop	 ebp
  0000a	c2 04 00	 ret	 4
?Serialize@CObject@@UAEXAAVCArchive@@@Z ENDP		; CObject::Serialize
; Function compile flags: /Odt
_TEXT	ENDS
;	COMDAT ??3CObject@@SGXPAX@Z
_TEXT	SEGMENT
_p$ = 8							; size = 4
??3CObject@@SGXPAX@Z PROC NEAR				; CObject::operator delete, COMDAT

; 31   : 	{ ::operator delete(p); }

  00000	55		 push	 ebp
  00001	8b ec		 mov	 ebp, esp
  00003	8b 45 08	 mov	 eax, DWORD PTR _p$[ebp]
  00006	50		 push	 eax
  00007	e8 00 00 00 00	 call	 ??3@YAXPAX@Z		; operator delete
  0000c	83 c4 04	 add	 esp, 4
  0000f	5d		 pop	 ebp
  00010	c2 04 00	 ret	 4
??3CObject@@SGXPAX@Z ENDP				; CObject::operator delete
; Function compile flags: /Odt
_TEXT	ENDS
;	COMDAT ??2CObject@@SGPAXI@Z
_TEXT	SEGMENT
_nSize$ = 8						; size = 4
??2CObject@@SGPAXI@Z PROC NEAR				; CObject::operator new, COMDAT

; 37   : 	{ return ::operator new(nSize); }

  00000	55		 push	 ebp
  00001	8b ec		 mov	 ebp, esp
  00003	8b 45 08	 mov	 eax, DWORD PTR _nSize$[ebp]
  00006	50		 push	 eax
  00007	e8 00 00 00 00	 call	 ??2@YAPAXI@Z		; operator new
  0000c	83 c4 04	 add	 esp, 4
  0000f	5d		 pop	 ebp
  00010	c2 04 00	 ret	 4
??2CObject@@SGPAXI@Z ENDP				; CObject::operator new
; Function compile flags: /Odt
_TEXT	ENDS
;	COMDAT ?AssertValid@CObject@@UBEXXZ
_TEXT	SEGMENT
_this$ = -4						; size = 4
?AssertValid@CObject@@UBEXXZ PROC NEAR			; CObject::AssertValid, COMDAT
; _this$ = ecx

; 41   : 	{ /* no asserts in release builds */ }

  00000	55		 push	 ebp
  00001	8b ec		 mov	 ebp, esp
  00003	51		 push	 ecx
  00004	89 4d fc	 mov	 DWORD PTR _this$[ebp], ecx
  00007	8b e5		 mov	 esp, ebp
  00009	5d		 pop	 ebp
  0000a	c3		 ret	 0
?AssertValid@CObject@@UBEXXZ ENDP			; CObject::AssertValid
; Function compile flags: /Odt
_TEXT	ENDS
;	COMDAT ?Dump@CObject@@UBEXAAVCDumpContext@@@Z
_TEXT	SEGMENT
_this$ = -4						; size = 4
___formal$ = 8						; size = 4
?Dump@CObject@@UBEXAAVCDumpContext@@@Z PROC NEAR	; CObject::Dump, COMDAT
; _this$ = ecx

; 43   : 	{ /* no dumping in release builds */ }

  00000	55		 push	 ebp
  00001	8b ec		 mov	 ebp, esp
  00003	51		 push	 ecx
  00004	89 4d fc	 mov	 DWORD PTR _this$[ebp], ecx
  00007	8b e5		 mov	 esp, ebp
  00009	5d		 pop	 ebp
  0000a	c2 04 00	 ret	 4
?Dump@CObject@@UBEXAAVCDumpContext@@@Z ENDP		; CObject::Dump
_TEXT	ENDS
EXTRN	__imp__PostMessageA@16:NEAR
; Function compile flags: /Odt
; File d:\program files (x86)\microsoft visual studio .net 2003\vc7\atlmfc\include\afxwin2.inl
;	COMDAT ?PostMessageA@CWnd@@QAEHIIJ@Z
_TEXT	SEGMENT
_this$ = -4						; size = 4
_message$ = 8						; size = 4
_wParam$ = 12						; size = 4
_lParam$ = 16						; size = 4
?PostMessageA@CWnd@@QAEHIIJ@Z PROC NEAR			; CWnd::PostMessageA, COMDAT
; _this$ = ecx

; 46   : 	{ ASSERT(::IsWindow(m_hWnd)); return ::PostMessage(m_hWnd, message, wParam, lParam); }

  00000	55		 push	 ebp
  00001	8b ec		 mov	 ebp, esp
  00003	51		 push	 ecx
  00004	89 4d fc	 mov	 DWORD PTR _this$[ebp], ecx
  00007	8b 45 10	 mov	 eax, DWORD PTR _lParam$[ebp]
  0000a	50		 push	 eax
  0000b	8b 4d 0c	 mov	 ecx, DWORD PTR _wParam$[ebp]
  0000e	51		 push	 ecx
  0000f	8b 55 08	 mov	 edx, DWORD PTR _message$[ebp]
  00012	52		 push	 edx
  00013	8b 45 fc	 mov	 eax, DWORD PTR _this$[ebp]
  00016	8b 48 20	 mov	 ecx, DWORD PTR [eax+32]
  00019	51		 push	 ecx
  0001a	ff 15 00 00 00
	00		 call	 DWORD PTR __imp__PostMessageA@16
  00020	8b e5		 mov	 esp, ebp
  00022	5d		 pop	 ebp
  00023	c2 0c 00	 ret	 12			; 0000000cH
?PostMessageA@CWnd@@QAEHIIJ@Z ENDP			; CWnd::PostMessageA
_TEXT	ENDS
EXTRN	?MoveWindow@CWnd@@QAEXHHHHH@Z:NEAR		; CWnd::MoveWindow
; Function compile flags: /Odt
;	COMDAT ?MoveWindow@CWnd@@QAEXPBUtagRECT@@H@Z
_TEXT	SEGMENT
_this$ = -4						; size = 4
_lpRect$ = 8						; size = 4
_bRepaint$ = 12						; size = 4
?MoveWindow@CWnd@@QAEXPBUtagRECT@@H@Z PROC NEAR		; CWnd::MoveWindow, COMDAT
; _this$ = ecx

; 89   : 	{ MoveWindow(lpRect->left, lpRect->top, lpRect->right - lpRect->left,

  00000	55		 push	 ebp
  00001	8b ec		 mov	 ebp, esp
  00003	51		 push	 ecx
  00004	89 4d fc	 mov	 DWORD PTR _this$[ebp], ecx

; 90   : 		lpRect->bottom - lpRect->top, bRepaint); }

  00007	8b 45 0c	 mov	 eax, DWORD PTR _bRepaint$[ebp]
  0000a	50		 push	 eax
  0000b	8b 4d 08	 mov	 ecx, DWORD PTR _lpRect$[ebp]
  0000e	8b 55 08	 mov	 edx, DWORD PTR _lpRect$[ebp]
  00011	8b 41 0c	 mov	 eax, DWORD PTR [ecx+12]
  00014	2b 42 04	 sub	 eax, DWORD PTR [edx+4]
  00017	50		 push	 eax
  00018	8b 4d 08	 mov	 ecx, DWORD PTR _lpRect$[ebp]
  0001b	8b 55 08	 mov	 edx, DWORD PTR _lpRect$[ebp]
  0001e	8b 41 08	 mov	 eax, DWORD PTR [ecx+8]
  00021	2b 02		 sub	 eax, DWORD PTR [edx]
  00023	50		 push	 eax
  00024	8b 4d 08	 mov	 ecx, DWORD PTR _lpRect$[ebp]
  00027	8b 51 04	 mov	 edx, DWORD PTR [ecx+4]
  0002a	52		 push	 edx
  0002b	8b 45 08	 mov	 eax, DWORD PTR _lpRect$[ebp]
  0002e	8b 08		 mov	 ecx, DWORD PTR [eax]
  00030	51		 push	 ecx
  00031	8b 4d fc	 mov	 ecx, DWORD PTR _this$[ebp]
  00034	e8 00 00 00 00	 call	 ?MoveWindow@CWnd@@QAEXHHHHH@Z ; CWnd::MoveWindow
  00039	8b e5		 mov	 esp, ebp
  0003b	5d		 pop	 ebp
  0003c	c2 08 00	 ret	 8
?MoveWindow@CWnd@@QAEXPBUtagRECT@@H@Z ENDP		; CWnd::MoveWindow
_TEXT	ENDS
EXTRN	__imp__GetWindowRect@8:NEAR
; Function compile flags: /Odt
;	COMDAT ?GetWindowRect@CWnd@@QBEXPAUtagRECT@@@Z
_TEXT	SEGMENT
_this$ = -4						; size = 4
_lpRect$ = 8						; size = 4
?GetWindowRect@CWnd@@QBEXPAUtagRECT@@@Z PROC NEAR	; CWnd::GetWindowRect, COMDAT
; _this$ = ecx

; 105  : 	{ ASSERT(::IsWindow(m_hWnd)); ::GetWindowRect(m_hWnd, lpRect); }

  00000	55		 push	 ebp
  00001	8b ec		 mov	 ebp, esp
  00003	51		 push	 ecx
  00004	89 4d fc	 mov	 DWORD PTR _this$[ebp], ecx
  00007	8b 45 08	 mov	 eax, DWORD PTR _lpRect$[ebp]
  0000a	50		 push	 eax
  0000b	8b 4d fc	 mov	 ecx, DWORD PTR _this$[ebp]
  0000e	8b 51 20	 mov	 edx, DWORD PTR [ecx+32]
  00011	52		 push	 edx
  00012	ff 15 00 00 00
	00		 call	 DWORD PTR __imp__GetWindowRect@8
  00018	8b e5		 mov	 esp, ebp
  0001a	5d		 pop	 ebp
  0001b	c2 04 00	 ret	 4
?GetWindowRect@CWnd@@QBEXPAUtagRECT@@@Z ENDP		; CWnd::GetWindowRect
_TEXT	ENDS
EXTRN	__imp__GetClientRect@8:NEAR
; Function compile flags: /Odt
;	COMDAT ?GetClientRect@CWnd@@QBEXPAUtagRECT@@@Z
_TEXT	SEGMENT
_this$ = -4						; size = 4
_lpRect$ = 8						; size = 4
?GetClientRect@CWnd@@QBEXPAUtagRECT@@@Z PROC NEAR	; CWnd::GetClientRect, COMDAT
; _this$ = ecx

; 107  : 	{ ASSERT(::IsWindow(m_hWnd)); ::GetClientRect(m_hWnd, lpRect); }

  00000	55		 push	 ebp
  00001	8b ec		 mov	 ebp, esp
  00003	51		 push	 ecx
  00004	89 4d fc	 mov	 DWORD PTR _this$[ebp], ecx
  00007	8b 45 08	 mov	 eax, DWORD PTR _lpRect$[ebp]
  0000a	50		 push	 eax
  0000b	8b 4d fc	 mov	 ecx, DWORD PTR _this$[ebp]
  0000e	8b 51 20	 mov	 edx, DWORD PTR [ecx+32]
  00011	52		 push	 edx
  00012	ff 15 00 00 00
	00		 call	 DWORD PTR __imp__GetClientRect@8
  00018	8b e5		 mov	 esp, ebp
  0001a	5d		 pop	 ebp
  0001b	c2 04 00	 ret	 4
?GetClientRect@CWnd@@QBEXPAUtagRECT@@@Z ENDP		; CWnd::GetClientRect
_TEXT	ENDS
EXTRN	__imp__SetTimer@16:NEAR
; Function compile flags: /Odt
;	COMDAT ?SetTimer@CWnd@@QAEIIIP6GXPAUHWND__@@IIK@Z@Z
_TEXT	SEGMENT
_this$ = -4						; size = 4
_nIDEvent$ = 8						; size = 4
_nElapse$ = 12						; size = 4
_lpfnTimer$ = 16					; size = 4
?SetTimer@CWnd@@QAEIIIP6GXPAUHWND__@@IIK@Z@Z PROC NEAR	; CWnd::SetTimer, COMDAT
; _this$ = ecx

; 182  : 	{ ASSERT(::IsWindow(m_hWnd)); return ::SetTimer(m_hWnd, nIDEvent, nElapse,

  00000	55		 push	 ebp
  00001	8b ec		 mov	 ebp, esp
  00003	51		 push	 ecx
  00004	89 4d fc	 mov	 DWORD PTR _this$[ebp], ecx

; 183  : 		lpfnTimer); }

  00007	8b 45 10	 mov	 eax, DWORD PTR _lpfnTimer$[ebp]
  0000a	50		 push	 eax
  0000b	8b 4d 0c	 mov	 ecx, DWORD PTR _nElapse$[ebp]
  0000e	51		 push	 ecx
  0000f	8b 55 08	 mov	 edx, DWORD PTR _nIDEvent$[ebp]
  00012	52		 push	 edx
  00013	8b 45 fc	 mov	 eax, DWORD PTR _this$[ebp]
  00016	8b 48 20	 mov	 ecx, DWORD PTR [eax+32]
  00019	51		 push	 ecx
  0001a	ff 15 00 00 00
	00		 call	 DWORD PTR __imp__SetTimer@16
  00020	8b e5		 mov	 esp, ebp
  00022	5d		 pop	 ebp
  00023	c2 0c 00	 ret	 12			; 0000000cH
?SetTimer@CWnd@@QAEIIIP6GXPAUHWND__@@IIK@Z@Z ENDP	; CWnd::SetTimer
_TEXT	ENDS
EXTRN	?Default@CWnd@@IAEJXZ:NEAR			; CWnd::Default
; Function compile flags: /Odt
;	COMDAT ?OnLButtonDown@CWnd@@IAEXIVCPoint@@@Z
_TEXT	SEGMENT
_this$ = -4						; size = 4
___formal$ = 8						; size = 4
___formal$ = 12						; size = 8
?OnLButtonDown@CWnd@@IAEXIVCPoint@@@Z PROC NEAR		; CWnd::OnLButtonDown, COMDAT
; _this$ = ecx

; 464  : 	{ Default(); }

  00000	55		 push	 ebp
  00001	8b ec		 mov	 ebp, esp
  00003	51		 push	 ecx
  00004	89 4d fc	 mov	 DWORD PTR _this$[ebp], ecx
  00007	8b 4d fc	 mov	 ecx, DWORD PTR _this$[ebp]
  0000a	e8 00 00 00 00	 call	 ?Default@CWnd@@IAEJXZ	; CWnd::Default
  0000f	8b e5		 mov	 esp, ebp
  00011	5d		 pop	 ebp
  00012	c2 0c 00	 ret	 12			; 0000000cH
?OnLButtonDown@CWnd@@IAEXIVCPoint@@@Z ENDP		; CWnd::OnLButtonDown
; Function compile flags: /Odt
_TEXT	ENDS
;	COMDAT ?DoDataExchange@CWnd@@MAEXPAVCDataExchange@@@Z
_TEXT	SEGMENT
_this$ = -4						; size = 4
___formal$ = 8						; size = 4
?DoDataExchange@CWnd@@MAEXPAVCDataExchange@@@Z PROC NEAR ; CWnd::DoDataExchange, COMDAT
; _this$ = ecx

; 545  : 	{ } // default does nothing

  00000	55		 push	 ebp
  00001	8b ec		 mov	 ebp, esp
  00003	51		 push	 ecx
  00004	89 4d fc	 mov	 DWORD PTR _this$[ebp], ecx
  00007	8b e5		 mov	 esp, ebp
  00009	5d		 pop	 ebp
  0000a	c2 04 00	 ret	 4
?DoDataExchange@CWnd@@MAEXPAVCDataExchange@@@Z ENDP	; CWnd::DoDataExchange
_TEXT	ENDS
EXTRN	__imp__SendMessageA@16:NEAR
; Function compile flags: /Odt
;	COMDAT ?SetCheck@CButton@@QAEXH@Z
_TEXT	SEGMENT
_this$ = -4						; size = 4
_nCheck$ = 8						; size = 4
?SetCheck@CButton@@QAEXH@Z PROC NEAR			; CButton::SetCheck, COMDAT
; _this$ = ecx

; 615  : 	{ ASSERT(::IsWindow(m_hWnd)); ::SendMessage(m_hWnd, BM_SETCHECK, nCheck, 0); }

  00000	55		 push	 ebp
  00001	8b ec		 mov	 ebp, esp
  00003	51		 push	 ecx
  00004	89 4d fc	 mov	 DWORD PTR _this$[ebp], ecx
  00007	6a 00		 push	 0
  00009	8b 45 08	 mov	 eax, DWORD PTR _nCheck$[ebp]
  0000c	50		 push	 eax
  0000d	68 f1 00 00 00	 push	 241			; 000000f1H
  00012	8b 4d fc	 mov	 ecx, DWORD PTR _this$[ebp]
  00015	8b 51 20	 mov	 edx, DWORD PTR [ecx+32]
  00018	52		 push	 edx
  00019	ff 15 00 00 00
	00		 call	 DWORD PTR __imp__SendMessageA@16
  0001f	8b e5		 mov	 esp, ebp
  00021	5d		 pop	 ebp
  00022	c2 04 00	 ret	 4
?SetCheck@CButton@@QAEXH@Z ENDP				; CButton::SetCheck
_TEXT	ENDS
EXTRN	__imp__SetLayeredWindowAttributes@16:NEAR
; Function compile flags: /Odt
; File d:\program files (x86)\microsoft visual studio .net 2003\vc7\atlmfc\include\afxwin4.inl
;	COMDAT ?SetLayeredWindowAttributes@CWnd@@QAEHKEK@Z
_TEXT	SEGMENT
_this$ = -4						; size = 4
_crKey$ = 8						; size = 4
_bAlpha$ = 12						; size = 1
_dwFlags$ = 16						; size = 4
?SetLayeredWindowAttributes@CWnd@@QAEHKEK@Z PROC NEAR	; CWnd::SetLayeredWindowAttributes, COMDAT
; _this$ = ecx

; 119  : {

  00000	55		 push	 ebp
  00001	8b ec		 mov	 ebp, esp
  00003	51		 push	 ecx
  00004	89 4d fc	 mov	 DWORD PTR _this$[ebp], ecx

; 120  : 	ASSERT(::IsWindow(m_hWnd)); 
; 121  : 	return ::SetLayeredWindowAttributes(m_hWnd, crKey, bAlpha, dwFlags);

  00007	8b 45 10	 mov	 eax, DWORD PTR _dwFlags$[ebp]
  0000a	50		 push	 eax
  0000b	8a 4d 0c	 mov	 cl, BYTE PTR _bAlpha$[ebp]
  0000e	51		 push	 ecx
  0000f	8b 55 08	 mov	 edx, DWORD PTR _crKey$[ebp]
  00012	52		 push	 edx
  00013	8b 45 fc	 mov	 eax, DWORD PTR _this$[ebp]
  00016	8b 48 20	 mov	 ecx, DWORD PTR [eax+32]
  00019	51		 push	 ecx
  0001a	ff 15 00 00 00
	00		 call	 DWORD PTR __imp__SetLayeredWindowAttributes@16

; 122  : }

  00020	8b e5		 mov	 esp, ebp
  00022	5d		 pop	 ebp
  00023	c2 0c 00	 ret	 12			; 0000000cH
?SetLayeredWindowAttributes@CWnd@@QAEHKEK@Z ENDP	; CWnd::SetLayeredWindowAttributes
_TEXT	ENDS
EXTRN	??1CDialog@@UAE@XZ:NEAR				; CDialog::~CDialog
; Function compile flags: /Odt
; File d:\program files (x86)\microsoft visual studio .net 2003\vc7\atlmfc\include\afxdlgs.h
;	COMDAT ??1CCommonDialog@@UAE@XZ
_TEXT	SEGMENT
_this$ = -4						; size = 4
??1CCommonDialog@@UAE@XZ PROC NEAR			; CCommonDialog::~CCommonDialog, COMDAT
; _this$ = ecx

; 107  : 	virtual ~CCommonDialog() = 0 { }

  00000	55		 push	 ebp
  00001	8b ec		 mov	 ebp, esp
  00003	51		 push	 ecx
  00004	89 4d fc	 mov	 DWORD PTR _this$[ebp], ecx
  00007	8b 4d fc	 mov	 ecx, DWORD PTR _this$[ebp]
  0000a	e8 00 00 00 00	 call	 ??1CDialog@@UAE@XZ	; CDialog::~CDialog
  0000f	8b e5		 mov	 esp, ebp
  00011	5d		 pop	 ebp
  00012	c3		 ret	 0
??1CCommonDialog@@UAE@XZ ENDP				; CCommonDialog::~CCommonDialog
; Function compile flags: /Odt
; File d:\program files (x86)\microsoft visual studio .net 2003\vc7\include\xutility
_TEXT	ENDS
;	COMDAT ?_Ptr_cat@std@@YA?AU_Scalar_ptr_iterator_tag@1@PAK0@Z
_TEXT	SEGMENT
__Cat$ = -1						; size = 1
___formal$ = 8						; size = 4
___formal$ = 12						; size = 4
?_Ptr_cat@std@@YA?AU_Scalar_ptr_iterator_tag@1@PAK0@Z PROC NEAR ; std::_Ptr_cat, COMDAT

; 371  : 	{	// return pointer category from pointer to unsigned long arguments

  00000	55		 push	 ebp
  00001	8b ec		 mov	 ebp, esp
  00003	51		 push	 ecx

; 372  : 	_Scalar_ptr_iterator_tag _Cat;
; 373  : 	return (_Cat);

  00004	8a 45 ff	 mov	 al, BYTE PTR __Cat$[ebp]

; 374  : 	}

  00007	8b e5		 mov	 esp, ebp
  00009	5d		 pop	 ebp
  0000a	c3		 ret	 0
?_Ptr_cat@std@@YA?AU_Scalar_ptr_iterator_tag@1@PAK0@Z ENDP ; std::_Ptr_cat
; Function compile flags: /Odt
; File d:\program files (x86)\microsoft visual studio .net 2003\vc7\include\stdexcept
_TEXT	ENDS
;	COMDAT ?what@logic_error@std@@UBEPBDXZ
_TEXT	SEGMENT
_this$ = -4						; size = 4
?what@logic_error@std@@UBEPBDXZ PROC NEAR		; std::logic_error::what, COMDAT
; _this$ = ecx

; 26   : 		{	// return pointer to message string

  00000	55		 push	 ebp
  00001	8b ec		 mov	 ebp, esp
  00003	51		 push	 ecx
  00004	89 4d fc	 mov	 DWORD PTR _this$[ebp], ecx

; 27   : 		return (_Str.c_str());

  00007	8b 4d fc	 mov	 ecx, DWORD PTR _this$[ebp]
  0000a	83 c1 0c	 add	 ecx, 12			; 0000000cH
  0000d	ff 15 00 00 00
	00		 call	 DWORD PTR __imp_?c_str@?$basic_string@DU?$char_traits@D@std@@V?$allocator@D@2@@std@@QBEPBDXZ

; 28   : 		}

  00013	8b e5		 mov	 esp, ebp
  00015	5d		 pop	 ebp
  00016	c3		 ret	 0
?what@logic_error@std@@UBEPBDXZ ENDP			; std::logic_error::what
_TEXT	ENDS
PUBLIC	??0logic_error@std@@QAE@ABV?$basic_string@DU?$char_traits@D@std@@V?$allocator@D@2@@1@@Z ; std::logic_error::logic_error
; Function compile flags: /Odt
;	COMDAT ??0length_error@std@@QAE@ABV?$basic_string@DU?$char_traits@D@std@@V?$allocator@D@2@@1@@Z
_TEXT	SEGMENT
_this$ = -4						; size = 4
__Message$ = 8						; size = 4
??0length_error@std@@QAE@ABV?$basic_string@DU?$char_traits@D@std@@V?$allocator@D@2@@1@@Z PROC NEAR ; std::length_error::length_error, COMDAT
; _this$ = ecx

; 95   : 		{	// construct from message string

  00000	55		 push	 ebp
  00001	8b ec		 mov	 ebp, esp
  00003	51		 push	 ecx
  00004	89 4d fc	 mov	 DWORD PTR _this$[ebp], ecx
  00007	8b 45 08	 mov	 eax, DWORD PTR __Message$[ebp]
  0000a	50		 push	 eax
  0000b	8b 4d fc	 mov	 ecx, DWORD PTR _this$[ebp]
  0000e	e8 00 00 00 00	 call	 ??0logic_error@std@@QAE@ABV?$basic_string@DU?$char_traits@D@std@@V?$allocator@D@2@@1@@Z ; std::logic_error::logic_error
  00013	8b 4d fc	 mov	 ecx, DWORD PTR _this$[ebp]
  00016	c7 01 00 00 00
	00		 mov	 DWORD PTR [ecx], OFFSET FLAT:??_7length_error@std@@6B@

; 96   : 		}

  0001c	8b 45 fc	 mov	 eax, DWORD PTR _this$[ebp]
  0001f	8b e5		 mov	 esp, ebp
  00021	5d		 pop	 ebp
  00022	c2 04 00	 ret	 4
??0length_error@std@@QAE@ABV?$basic_string@DU?$char_traits@D@std@@V?$allocator@D@2@@1@@Z ENDP ; std::length_error::length_error
_TEXT	ENDS
PUBLIC	??_R4logic_error@std@@6B@			; std::logic_error::`RTTI Complete Object Locator'
PUBLIC	??_R3logic_error@std@@8				; std::logic_error::`RTTI Class Hierarchy Descriptor'
PUBLIC	??_R2logic_error@std@@8				; std::logic_error::`RTTI Base Class Array'
PUBLIC	??_7logic_error@std@@6B@			; std::logic_error::`vftable'
PUBLIC	??_Glogic_error@std@@UAEPAXI@Z			; std::logic_error::`scalar deleting destructor'
EXTRN	__imp_??0exception@@QAE@XZ:NEAR
EXTRN	__imp_??1exception@@UAE@XZ:NEAR
EXTRN	__imp_??0?$basic_string@DU?$char_traits@D@std@@V?$allocator@D@2@@std@@QAE@ABV01@@Z:NEAR
EXTRN	??_Elogic_error@std@@UAEPAXI@Z:NEAR		; std::logic_error::`vector deleting destructor'
;	COMDAT xdata$x
xdata$x	SEGMENT
$T205237 DD	0ffffffffH
	DD	FLAT:$L205232
$T205235 DD	019930520H
	DD	01H
	DD	FLAT:$T205237
	DD	2 DUP(00H)
	DD	2 DUP(00H)
xdata$x	ENDS
;	COMDAT ??_7logic_error@std@@6B@
CONST	SEGMENT
??_7logic_error@std@@6B@ DD FLAT:??_R4logic_error@std@@6B@ ; std::logic_error::`vftable'
	DD	FLAT:??_Elogic_error@std@@UAEPAXI@Z
	DD	FLAT:?what@logic_error@std@@UBEPBDXZ
CONST	ENDS
;	COMDAT ??_R4logic_error@std@@6B@
rdata$r	SEGMENT
??_R4logic_error@std@@6B@ DD 00H			; std::logic_error::`RTTI Complete Object Locator'
	DD	00H
	DD	00H
	DD	FLAT:??_R0?AVlogic_error@std@@@8
	DD	FLAT:??_R3logic_error@std@@8
rdata$r	ENDS
;	COMDAT ??_R3logic_error@std@@8
rdata$r	SEGMENT
??_R3logic_error@std@@8 DD 00H				; std::logic_error::`RTTI Class Hierarchy Descriptor'
	DD	00H
	DD	02H
	DD	FLAT:??_R2logic_error@std@@8
rdata$r	ENDS
;	COMDAT ??_R2logic_error@std@@8
rdata$r	SEGMENT
??_R2logic_error@std@@8 DD FLAT:??_R1A@?0A@A@logic_error@std@@8 ; std::logic_error::`RTTI Base Class Array'
	DD	FLAT:??_R1A@?0A@A@exception@@8
; Function compile flags: /Odt
rdata$r	ENDS
;	COMDAT ??0logic_error@std@@QAE@ABV?$basic_string@DU?$char_traits@D@std@@V?$allocator@D@2@@1@@Z
_TEXT	SEGMENT
_this$ = -16						; size = 4
__$EHRec$ = -12						; size = 12
__Message$ = 8						; size = 4
??0logic_error@std@@QAE@ABV?$basic_string@DU?$char_traits@D@std@@V?$allocator@D@2@@1@@Z PROC NEAR ; std::logic_error::logic_error, COMDAT
; _this$ = ecx

; 19   : 		{	// construct from message string

  00000	55		 push	 ebp
  00001	8b ec		 mov	 ebp, esp
  00003	6a ff		 push	 -1
  00005	68 00 00 00 00	 push	 __ehhandler$??0logic_error@std@@QAE@ABV?$basic_string@DU?$char_traits@D@std@@V?$allocator@D@2@@1@@Z
  0000a	64 a1 00 00 00
	00		 mov	 eax, DWORD PTR fs:__except_list
  00010	50		 push	 eax
  00011	64 89 25 00 00
	00 00		 mov	 DWORD PTR fs:__except_list, esp
  00018	51		 push	 ecx
  00019	89 4d f0	 mov	 DWORD PTR _this$[ebp], ecx
  0001c	8b 4d f0	 mov	 ecx, DWORD PTR _this$[ebp]
  0001f	ff 15 00 00 00
	00		 call	 DWORD PTR __imp_??0exception@@QAE@XZ
  00025	c7 45 fc 00 00
	00 00		 mov	 DWORD PTR __$EHRec$[ebp+8], 0
  0002c	8b 45 f0	 mov	 eax, DWORD PTR _this$[ebp]
  0002f	c7 00 00 00 00
	00		 mov	 DWORD PTR [eax], OFFSET FLAT:??_7logic_error@std@@6B@
  00035	8b 4d 08	 mov	 ecx, DWORD PTR __Message$[ebp]
  00038	51		 push	 ecx
  00039	8b 4d f0	 mov	 ecx, DWORD PTR _this$[ebp]
  0003c	83 c1 0c	 add	 ecx, 12			; 0000000cH
  0003f	ff 15 00 00 00
	00		 call	 DWORD PTR __imp_??0?$basic_string@DU?$char_traits@D@std@@V?$allocator@D@2@@std@@QAE@ABV01@@Z

; 20   : 		}

  00045	c7 45 fc ff ff
	ff ff		 mov	 DWORD PTR __$EHRec$[ebp+8], -1
  0004c	8b 45 f0	 mov	 eax, DWORD PTR _this$[ebp]
  0004f	8b 4d f4	 mov	 ecx, DWORD PTR __$EHRec$[ebp]
  00052	64 89 0d 00 00
	00 00		 mov	 DWORD PTR fs:__except_list, ecx
  00059	8b e5		 mov	 esp, ebp
  0005b	5d		 pop	 ebp
  0005c	c2 04 00	 ret	 4
_TEXT	ENDS
;	COMDAT text$x
text$x	SEGMENT
$L205232:
  00000	8b 4d f0	 mov	 ecx, DWORD PTR _this$[ebp]
  00003	ff 25 00 00 00
	00		 jmp	 DWORD PTR __imp_??1exception@@UAE@XZ
__ehhandler$??0logic_error@std@@QAE@ABV?$basic_string@DU?$char_traits@D@std@@V?$allocator@D@2@@1@@Z:
  00009	b8 00 00 00 00	 mov	 eax, OFFSET FLAT:$T205235
  0000e	e9 00 00 00 00	 jmp	 ___CxxFrameHandler
text$x	ENDS
??0logic_error@std@@QAE@ABV?$basic_string@DU?$char_traits@D@std@@V?$allocator@D@2@@1@@Z ENDP ; std::logic_error::logic_error
PUBLIC	??1logic_error@std@@UAE@XZ			; std::logic_error::~logic_error
; Function compile flags: /Odt
;	COMDAT ??_Glogic_error@std@@UAEPAXI@Z
_TEXT	SEGMENT
_this$ = -4						; size = 4
___flags$ = 8						; size = 4
??_Glogic_error@std@@UAEPAXI@Z PROC NEAR		; std::logic_error::`scalar deleting destructor', COMDAT
; _this$ = ecx
  00000	55		 push	 ebp
  00001	8b ec		 mov	 ebp, esp
  00003	51		 push	 ecx
  00004	89 4d fc	 mov	 DWORD PTR _this$[ebp], ecx
  00007	8b 4d fc	 mov	 ecx, DWORD PTR _this$[ebp]
  0000a	e8 00 00 00 00	 call	 ??1logic_error@std@@UAE@XZ ; std::logic_error::~logic_error
  0000f	8b 45 08	 mov	 eax, DWORD PTR ___flags$[ebp]
  00012	83 e0 01	 and	 eax, 1
  00015	74 0c		 je	 SHORT $L102266
  00017	8b 4d fc	 mov	 ecx, DWORD PTR _this$[ebp]
  0001a	51		 push	 ecx
  0001b	e8 00 00 00 00	 call	 ??3@YAXPAX@Z		; operator delete
  00020	83 c4 04	 add	 esp, 4
$L102266:
  00023	8b 45 fc	 mov	 eax, DWORD PTR _this$[ebp]
  00026	8b e5		 mov	 esp, ebp
  00028	5d		 pop	 ebp
  00029	c2 04 00	 ret	 4
??_Glogic_error@std@@UAEPAXI@Z ENDP			; std::logic_error::`scalar deleting destructor'
_TEXT	ENDS
;	COMDAT xdata$x
xdata$x	SEGMENT
$T205249 DD	0ffffffffH
	DD	FLAT:$L205244
$T205247 DD	019930520H
	DD	01H
	DD	FLAT:$T205249
	DD	2 DUP(00H)
	DD	2 DUP(00H)
; Function compile flags: /Odt
xdata$x	ENDS
;	COMDAT ??1logic_error@std@@UAE@XZ
_TEXT	SEGMENT
_this$ = -16						; size = 4
__$EHRec$ = -12						; size = 12
??1logic_error@std@@UAE@XZ PROC NEAR			; std::logic_error::~logic_error, COMDAT
; _this$ = ecx

; 23   : 		{}	// destroy the object

  00000	55		 push	 ebp
  00001	8b ec		 mov	 ebp, esp
  00003	6a ff		 push	 -1
  00005	68 00 00 00 00	 push	 __ehhandler$??1logic_error@std@@UAE@XZ
  0000a	64 a1 00 00 00
	00		 mov	 eax, DWORD PTR fs:__except_list
  00010	50		 push	 eax
  00011	64 89 25 00 00
	00 00		 mov	 DWORD PTR fs:__except_list, esp
  00018	51		 push	 ecx
  00019	89 4d f0	 mov	 DWORD PTR _this$[ebp], ecx
  0001c	8b 45 f0	 mov	 eax, DWORD PTR _this$[ebp]
  0001f	c7 00 00 00 00
	00		 mov	 DWORD PTR [eax], OFFSET FLAT:??_7logic_error@std@@6B@
  00025	c7 45 fc 00 00
	00 00		 mov	 DWORD PTR __$EHRec$[ebp+8], 0
  0002c	8b 4d f0	 mov	 ecx, DWORD PTR _this$[ebp]
  0002f	83 c1 0c	 add	 ecx, 12			; 0000000cH
  00032	ff 15 00 00 00
	00		 call	 DWORD PTR __imp_??1?$basic_string@DU?$char_traits@D@std@@V?$allocator@D@2@@std@@QAE@XZ
  00038	c7 45 fc ff ff
	ff ff		 mov	 DWORD PTR __$EHRec$[ebp+8], -1
  0003f	8b 4d f0	 mov	 ecx, DWORD PTR _this$[ebp]
  00042	ff 15 00 00 00
	00		 call	 DWORD PTR __imp_??1exception@@UAE@XZ
  00048	8b 4d f4	 mov	 ecx, DWORD PTR __$EHRec$[ebp]
  0004b	64 89 0d 00 00
	00 00		 mov	 DWORD PTR fs:__except_list, ecx
  00052	8b e5		 mov	 esp, ebp
  00054	5d		 pop	 ebp
  00055	c3		 ret	 0
_TEXT	ENDS
;	COMDAT text$x
text$x	SEGMENT
$L205244:
  00000	8b 4d f0	 mov	 ecx, DWORD PTR _this$[ebp]
  00003	ff 25 00 00 00
	00		 jmp	 DWORD PTR __imp_??1exception@@UAE@XZ
__ehhandler$??1logic_error@std@@UAE@XZ:
  00009	b8 00 00 00 00	 mov	 eax, OFFSET FLAT:$T205247
  0000e	e9 00 00 00 00	 jmp	 ___CxxFrameHandler
text$x	ENDS
??1logic_error@std@@UAE@XZ ENDP				; std::logic_error::~logic_error
; Function compile flags: /Odt
;	COMDAT ??1length_error@std@@UAE@XZ
_TEXT	SEGMENT
_this$ = -4						; size = 4
??1length_error@std@@UAE@XZ PROC NEAR			; std::length_error::~length_error, COMDAT
; _this$ = ecx

; 99   : 		{}	// destroy the object

  00000	55		 push	 ebp
  00001	8b ec		 mov	 ebp, esp
  00003	51		 push	 ecx
  00004	89 4d fc	 mov	 DWORD PTR _this$[ebp], ecx
  00007	8b 45 fc	 mov	 eax, DWORD PTR _this$[ebp]
  0000a	c7 00 00 00 00
	00		 mov	 DWORD PTR [eax], OFFSET FLAT:??_7length_error@std@@6B@
  00010	8b 4d fc	 mov	 ecx, DWORD PTR _this$[ebp]
  00013	e8 00 00 00 00	 call	 ??1logic_error@std@@UAE@XZ ; std::logic_error::~logic_error
  00018	8b e5		 mov	 esp, ebp
  0001a	5d		 pop	 ebp
  0001b	c3		 ret	 0
??1length_error@std@@UAE@XZ ENDP			; std::length_error::~length_error
; Function compile flags: /Odt
_TEXT	ENDS
;	COMDAT ??_Glength_error@std@@UAEPAXI@Z
_TEXT	SEGMENT
_this$ = -4						; size = 4
___flags$ = 8						; size = 4
??_Glength_error@std@@UAEPAXI@Z PROC NEAR		; std::length_error::`scalar deleting destructor', COMDAT
; _this$ = ecx
  00000	55		 push	 ebp
  00001	8b ec		 mov	 ebp, esp
  00003	51		 push	 ecx
  00004	89 4d fc	 mov	 DWORD PTR _this$[ebp], ecx
  00007	8b 4d fc	 mov	 ecx, DWORD PTR _this$[ebp]
  0000a	e8 00 00 00 00	 call	 ??1length_error@std@@UAE@XZ ; std::length_error::~length_error
  0000f	8b 45 08	 mov	 eax, DWORD PTR ___flags$[ebp]
  00012	83 e0 01	 and	 eax, 1
  00015	74 0c		 je	 SHORT $L102332
  00017	8b 4d fc	 mov	 ecx, DWORD PTR _this$[ebp]
  0001a	51		 push	 ecx
  0001b	e8 00 00 00 00	 call	 ??3@YAXPAX@Z		; operator delete
  00020	83 c4 04	 add	 esp, 4
$L102332:
  00023	8b 45 fc	 mov	 eax, DWORD PTR _this$[ebp]
  00026	8b e5		 mov	 esp, ebp
  00028	5d		 pop	 ebp
  00029	c2 04 00	 ret	 4
??_Glength_error@std@@UAEPAXI@Z ENDP			; std::length_error::`scalar deleting destructor'
_TEXT	ENDS
EXTRN	__imp_??0exception@@QAE@ABV0@@Z:NEAR
;	COMDAT xdata$x
xdata$x	SEGMENT
$T205264 DD	0ffffffffH
	DD	FLAT:$L205259
$T205262 DD	019930520H
	DD	01H
	DD	FLAT:$T205264
	DD	2 DUP(00H)
	DD	2 DUP(00H)
; Function compile flags: /Odt
xdata$x	ENDS
;	COMDAT ??0logic_error@std@@QAE@ABV01@@Z
_TEXT	SEGMENT
_this$ = -16						; size = 4
__$EHRec$ = -12						; size = 12
___that$ = 8						; size = 4
??0logic_error@std@@QAE@ABV01@@Z PROC NEAR		; std::logic_error::logic_error, COMDAT
; _this$ = ecx
  00000	55		 push	 ebp
  00001	8b ec		 mov	 ebp, esp
  00003	6a ff		 push	 -1
  00005	68 00 00 00 00	 push	 __ehhandler$??0logic_error@std@@QAE@ABV01@@Z
  0000a	64 a1 00 00 00
	00		 mov	 eax, DWORD PTR fs:__except_list
  00010	50		 push	 eax
  00011	64 89 25 00 00
	00 00		 mov	 DWORD PTR fs:__except_list, esp
  00018	51		 push	 ecx
  00019	89 4d f0	 mov	 DWORD PTR _this$[ebp], ecx
  0001c	8b 45 08	 mov	 eax, DWORD PTR ___that$[ebp]
  0001f	50		 push	 eax
  00020	8b 4d f0	 mov	 ecx, DWORD PTR _this$[ebp]
  00023	ff 15 00 00 00
	00		 call	 DWORD PTR __imp_??0exception@@QAE@ABV0@@Z
  00029	c7 45 fc 00 00
	00 00		 mov	 DWORD PTR __$EHRec$[ebp+8], 0
  00030	8b 4d f0	 mov	 ecx, DWORD PTR _this$[ebp]
  00033	c7 01 00 00 00
	00		 mov	 DWORD PTR [ecx], OFFSET FLAT:??_7logic_error@std@@6B@
  00039	8b 55 08	 mov	 edx, DWORD PTR ___that$[ebp]
  0003c	83 c2 0c	 add	 edx, 12			; 0000000cH
  0003f	52		 push	 edx
  00040	8b 4d f0	 mov	 ecx, DWORD PTR _this$[ebp]
  00043	83 c1 0c	 add	 ecx, 12			; 0000000cH
  00046	ff 15 00 00 00
	00		 call	 DWORD PTR __imp_??0?$basic_string@DU?$char_traits@D@std@@V?$allocator@D@2@@std@@QAE@ABV01@@Z
  0004c	c7 45 fc ff ff
	ff ff		 mov	 DWORD PTR __$EHRec$[ebp+8], -1
  00053	8b 45 f0	 mov	 eax, DWORD PTR _this$[ebp]
  00056	8b 4d f4	 mov	 ecx, DWORD PTR __$EHRec$[ebp]
  00059	64 89 0d 00 00
	00 00		 mov	 DWORD PTR fs:__except_list, ecx
  00060	8b e5		 mov	 esp, ebp
  00062	5d		 pop	 ebp
  00063	c2 04 00	 ret	 4
_TEXT	ENDS
;	COMDAT text$x
text$x	SEGMENT
$L205259:
  00000	8b 4d f0	 mov	 ecx, DWORD PTR _this$[ebp]
  00003	ff 25 00 00 00
	00		 jmp	 DWORD PTR __imp_??1exception@@UAE@XZ
__ehhandler$??0logic_error@std@@QAE@ABV01@@Z:
  00009	b8 00 00 00 00	 mov	 eax, OFFSET FLAT:$T205262
  0000e	e9 00 00 00 00	 jmp	 ___CxxFrameHandler
text$x	ENDS
??0logic_error@std@@QAE@ABV01@@Z ENDP			; std::logic_error::logic_error
CRT$XCU	SEGMENT
_$S6	DD	FLAT:_$E5
; Function compile flags: /Odt
; File d:\boxgit\playbox\playbox\dev\prj\playbox\src\appconfig\config\configsettingdef.h
CRT$XCU	ENDS
;	COMDAT _$E5
text$yc	SEGMENT
_$E5	PROC NEAR					; COMDAT

; 25   : 	CONF_SETTING_SKIN_IDX,				TYPE_CONFIG_STR,

  00000	55		 push	 ebp
  00001	8b ec		 mov	 ebp, esp
  00003	a1 00 00 00 00	 mov	 eax, DWORD PTR _CONF_SETTING_SKIN_IDX
  00008	a3 00 00 00 00	 mov	 DWORD PTR _CONF_SETTING, eax
  0000d	8b 0d 00 00 00
	00		 mov	 ecx, DWORD PTR _TYPE_CONFIG_STR
  00013	89 0d 04 00 00
	00		 mov	 DWORD PTR _CONF_SETTING+4, ecx

; 26   : 	CONF_SETTING_CONFIG_MAIN_PAGE,		TYPE_CONFIG_STR,

  00019	8b 15 00 00 00
	00		 mov	 edx, DWORD PTR _CONF_SETTING_CONFIG_MAIN_PAGE
  0001f	89 15 08 00 00
	00		 mov	 DWORD PTR _CONF_SETTING+8, edx
  00025	a1 00 00 00 00	 mov	 eax, DWORD PTR _TYPE_CONFIG_STR
  0002a	a3 0c 00 00 00	 mov	 DWORD PTR _CONF_SETTING+12, eax

; 27   : 	CONF_SETTING_CONFIG_PROBLEM_REPORT,	TYPE_CONFIG_STR,

  0002f	8b 0d 00 00 00
	00		 mov	 ecx, DWORD PTR _CONF_SETTING_CONFIG_PROBLEM_REPORT
  00035	89 0d 10 00 00
	00		 mov	 DWORD PTR _CONF_SETTING+16, ecx
  0003b	8b 15 00 00 00
	00		 mov	 edx, DWORD PTR _TYPE_CONFIG_STR
  00041	89 15 14 00 00
	00		 mov	 DWORD PTR _CONF_SETTING+20, edx

; 28   : 	CONF_SETTING_CONFIG_HOME_PAGE,		TYPE_CONFIG_STR,

  00047	a1 00 00 00 00	 mov	 eax, DWORD PTR _CONF_SETTING_CONFIG_HOME_PAGE
  0004c	a3 18 00 00 00	 mov	 DWORD PTR _CONF_SETTING+24, eax
  00051	8b 0d 00 00 00
	00		 mov	 ecx, DWORD PTR _TYPE_CONFIG_STR
  00057	89 0d 1c 00 00
	00		 mov	 DWORD PTR _CONF_SETTING+28, ecx

; 29   : 	CONF_SETTING_CONFIG_IFASKEXIT,		TYPE_CONFIG_BOOL,

  0005d	8b 15 00 00 00
	00		 mov	 edx, DWORD PTR _CONF_SETTING_CONFIG_IFASKEXIT
  00063	89 15 20 00 00
	00		 mov	 DWORD PTR _CONF_SETTING+32, edx
  00069	a1 00 00 00 00	 mov	 eax, DWORD PTR _TYPE_CONFIG_BOOL
  0006e	a3 24 00 00 00	 mov	 DWORD PTR _CONF_SETTING+36, eax

; 30   : 	CONF_SETTING_CONFIG_EXITCHOICE,		TYPE_CONFIG_BOOL,

  00073	8b 0d 00 00 00
	00		 mov	 ecx, DWORD PTR _CONF_SETTING_CONFIG_EXITCHOICE
  00079	89 0d 28 00 00
	00		 mov	 DWORD PTR _CONF_SETTING+40, ecx
  0007f	8b 15 00 00 00
	00		 mov	 edx, DWORD PTR _TYPE_CONFIG_BOOL
  00085	89 15 2c 00 00
	00		 mov	 DWORD PTR _CONF_SETTING+44, edx

; 31   : 	CONF_SETTING_LOGIN_USER_NAME,		TYPE_CONFIG_STR,

  0008b	a1 00 00 00 00	 mov	 eax, DWORD PTR _CONF_SETTING_LOGIN_USER_NAME
  00090	a3 30 00 00 00	 mov	 DWORD PTR _CONF_SETTING+48, eax
  00095	8b 0d 00 00 00
	00		 mov	 ecx, DWORD PTR _TYPE_CONFIG_STR
  0009b	89 0d 34 00 00
	00		 mov	 DWORD PTR _CONF_SETTING+52, ecx

; 32   : 	CONF_SETTING_LOGIN_PASSWORD,		TYPE_CONFIG_STR,

  000a1	8b 15 00 00 00
	00		 mov	 edx, DWORD PTR _CONF_SETTING_LOGIN_PASSWORD
  000a7	89 15 38 00 00
	00		 mov	 DWORD PTR _CONF_SETTING+56, edx
  000ad	a1 00 00 00 00	 mov	 eax, DWORD PTR _TYPE_CONFIG_STR
  000b2	a3 3c 00 00 00	 mov	 DWORD PTR _CONF_SETTING+60, eax

; 33   : 	CONF_SETTING_NETID,					TYPE_CONFIG_STR,

  000b7	8b 0d 00 00 00
	00		 mov	 ecx, DWORD PTR _CONF_SETTING_NETID
  000bd	89 0d 40 00 00
	00		 mov	 DWORD PTR _CONF_SETTING+64, ecx
  000c3	8b 15 00 00 00
	00		 mov	 edx, DWORD PTR _TYPE_CONFIG_STR
  000c9	89 15 44 00 00
	00		 mov	 DWORD PTR _CONF_SETTING+68, edx

; 34   : 	CONF_SETTING_COLOR,					TYPE_CONFIG_INT,

  000cf	a1 00 00 00 00	 mov	 eax, DWORD PTR _CONF_SETTING_COLOR
  000d4	a3 48 00 00 00	 mov	 DWORD PTR _CONF_SETTING+72, eax
  000d9	8b 0d 00 00 00
	00		 mov	 ecx, DWORD PTR _TYPE_CONFIG_INT
  000df	89 0d 4c 00 00
	00		 mov	 DWORD PTR _CONF_SETTING+76, ecx

; 35   : 	CONF_SETTING_LIGHT,					TYPE_CONFIG_INT,

  000e5	8b 15 00 00 00
	00		 mov	 edx, DWORD PTR _CONF_SETTING_LIGHT
  000eb	89 15 50 00 00
	00		 mov	 DWORD PTR _CONF_SETTING+80, edx
  000f1	a1 00 00 00 00	 mov	 eax, DWORD PTR _TYPE_CONFIG_INT
  000f6	a3 54 00 00 00	 mov	 DWORD PTR _CONF_SETTING+84, eax

; 36   : 	CONF_SETTING_COLOR_BTN_INDEX,		TYPE_CONFIG_INT,

  000fb	8b 0d 00 00 00
	00		 mov	 ecx, DWORD PTR _CONF_SETTING_COLOR_BTN_INDEX
  00101	89 0d 58 00 00
	00		 mov	 DWORD PTR _CONF_SETTING+88, ecx
  00107	8b 15 00 00 00
	00		 mov	 edx, DWORD PTR _TYPE_CONFIG_INT
  0010d	89 15 5c 00 00
	00		 mov	 DWORD PTR _CONF_SETTING+92, edx

; 37   : 	CONF_SETTING_COLOR_USER,			TYPE_CONFIG_INT,

  00113	a1 00 00 00 00	 mov	 eax, DWORD PTR _CONF_SETTING_COLOR_USER
  00118	a3 60 00 00 00	 mov	 DWORD PTR _CONF_SETTING+96, eax
  0011d	8b 0d 00 00 00
	00		 mov	 ecx, DWORD PTR _TYPE_CONFIG_INT
  00123	89 0d 64 00 00
	00		 mov	 DWORD PTR _CONF_SETTING+100, ecx

; 38   : 	CONF_SETTING_FIRST_TIME_CHANGESKIN, TYPE_CONFIG_BOOL

  00129	8b 15 00 00 00
	00		 mov	 edx, DWORD PTR _CONF_SETTING_FIRST_TIME_CHANGESKIN
  0012f	89 15 68 00 00
	00		 mov	 DWORD PTR _CONF_SETTING+104, edx

; 39   : };

  00135	a1 00 00 00 00	 mov	 eax, DWORD PTR _TYPE_CONFIG_BOOL
  0013a	a3 6c 00 00 00	 mov	 DWORD PTR _CONF_SETTING+108, eax
  0013f	5d		 pop	 ebp
  00140	c3		 ret	 0
_$E5	ENDP
text$yc	ENDS
_BSS	SEGMENT
_CONF_SETTING DD 01cH DUP (?)
_BSS	ENDS
END
