; Listing generated by Microsoft (R) Optimizing Compiler Version 13.10.3077 

	TITLE	.\src\LayoutMgr\SeperateMode\MainHostWnd.cpp
	.386P
include listing.inc
if @Version gt 510
.model FLAT
else
_TEXT	SEGMENT PARA USE32 PUBLIC 'CODE'
_TEXT	ENDS
_DATA	SEGMENT DWORD USE32 PUBLIC 'DATA'
_DATA	ENDS
CONST	SEGMENT DWORD USE32 PUBLIC 'CONST'
CONST	ENDS
_BSS	SEGMENT DWORD USE32 PUBLIC 'BSS'
_BSS	ENDS
$$SYMBOLS	SEGMENT BYTE USE32 'DEBSYM'
$$SYMBOLS	ENDS
$$TYPES	SEGMENT BYTE USE32 'DEBTYP'
$$TYPES	ENDS
_TLS	SEGMENT DWORD USE32 PUBLIC 'TLS'
_TLS	ENDS
;	COMDAT ??_C@_0BD@OLBABOEK@vector?$DMT?$DO?5too?5long?$AA@
CONST	SEGMENT DWORD USE32 PUBLIC 'CONST'
CONST	ENDS
rdata$r	SEGMENT DWORD USE32 PUBLIC 'CONST'
rdata$r	ENDS
xdata$x	SEGMENT DWORD USE32 PUBLIC 'CONST'
xdata$x	ENDS
text$AFX_COL1	SEGMENT PARA USE32 PUBLIC ''
text$AFX_COL1	ENDS
text$yc	SEGMENT PARA USE32 PUBLIC 'CODE'
text$yc	ENDS
CRT$XCA	SEGMENT DWORD USE32 PUBLIC 'DATA'
CRT$XCA	ENDS
CRT$XCU	SEGMENT DWORD USE32 PUBLIC 'DATA'
CRT$XCU	ENDS
CRT$XCL	SEGMENT DWORD USE32 PUBLIC 'DATA'
CRT$XCL	ENDS
CRT$XCC	SEGMENT DWORD USE32 PUBLIC 'DATA'
CRT$XCC	ENDS
CRT$XCZ	SEGMENT DWORD USE32 PUBLIC 'DATA'
CRT$XCZ	ENDS
text$yd	SEGMENT PARA USE32 PUBLIC 'CODE'
text$yd	ENDS
ATL$__m	SEGMENT DWORD USE32 PUBLIC ''
ATL$__m	ENDS
ATL$__z	SEGMENT DWORD USE32 PUBLIC ''
ATL$__z	ENDS
ATL$__a	SEGMENT DWORD USE32 PUBLIC ''
ATL$__a	ENDS
;	COMDAT ??1IData@@MAE@XZ
_TEXT	SEGMENT PARA USE32 PUBLIC 'CODE'
_TEXT	ENDS
;	COMDAT ?DataAppStart@IData@@UAEXXZ
_TEXT	SEGMENT PARA USE32 PUBLIC 'CODE'
_TEXT	ENDS
;	COMDAT ?DataAppExit@IData@@UAEXXZ
_TEXT	SEGMENT PARA USE32 PUBLIC 'CODE'
_TEXT	ENDS
;	COMDAT ??_GIData@@MAEPAXI@Z
_TEXT	SEGMENT PARA USE32 PUBLIC 'CODE'
_TEXT	ENDS
;	COMDAT _$E5
text$yc	SEGMENT PARA USE32 PUBLIC 'CODE'
text$yc	ENDS
;	COMDAT ??_GCMainHostWnd@@UAEPAXI@Z
_TEXT	SEGMENT PARA USE32 PUBLIC 'CODE'
_TEXT	ENDS
;	COMDAT ??8ATL@@YA_NABV?$CStringT@DV?$StrTraitMFC_DLL@DV?$ChTraitsCRT@D@ATL@@@@@0@PBD@Z
_TEXT	SEGMENT PARA USE32 PUBLIC 'CODE'
_TEXT	ENDS
;	COMDAT ??B?$CComPtrBase@UITypeInfo2@@@ATL@@QBEPAUITypeInfo2@@XZ
_TEXT	SEGMENT PARA USE32 PUBLIC 'CODE'
_TEXT	ENDS
;	COMDAT ?equal@?$istreambuf_iterator@DU?$char_traits@D@std@@@std@@QBE_NABV12@@Z
_TEXT	SEGMENT PARA USE32 PUBLIC 'CODE'
_TEXT	ENDS
;	COMDAT ?equal@?$istreambuf_iterator@_WU?$char_traits@_W@std@@@std@@QBE_NABV12@@Z
_TEXT	SEGMENT PARA USE32 PUBLIC 'CODE'
_TEXT	ENDS
;	COMDAT ?push_back@?$vector@PAVILyricPopupWndShowObserver@@V?$allocator@PAVILyricPopupWndShowObserver@@@std@@@std@@QAEXABQAVILyricPopupWndShowObserver@@@Z
_TEXT	SEGMENT PARA USE32 PUBLIC 'CODE'
_TEXT	ENDS
;	COMDAT ?capacity@?$vector@PAVILyricPopupWndShowObserver@@V?$allocator@PAVILyricPopupWndShowObserver@@@std@@@std@@QBEIXZ
_TEXT	SEGMENT PARA USE32 PUBLIC 'CODE'
_TEXT	ENDS
;	COMDAT ?end@?$vector@PAVILyricPopupWndShowObserver@@V?$allocator@PAVILyricPopupWndShowObserver@@@std@@@std@@QAE?AViterator@12@XZ
_TEXT	SEGMENT PARA USE32 PUBLIC 'CODE'
_TEXT	ENDS
;	COMDAT ?size@?$vector@PAVILyricPopupWndShowObserver@@V?$allocator@PAVILyricPopupWndShowObserver@@@std@@@std@@QBEIXZ
_TEXT	SEGMENT PARA USE32 PUBLIC 'CODE'
_TEXT	ENDS
;	COMDAT ?insert@?$vector@PAVILyricPopupWndShowObserver@@V?$allocator@PAVILyricPopupWndShowObserver@@@std@@@std@@QAE?AViterator@12@V312@ABQAVILyricPopupWndShowObserver@@@Z
_TEXT	SEGMENT PARA USE32 PUBLIC 'CODE'
_TEXT	ENDS
;	COMDAT ?_Ufill@?$vector@PAVILyricPopupWndShowObserver@@V?$allocator@PAVILyricPopupWndShowObserver@@@std@@@std@@IAEPAPAVILyricPopupWndShowObserver@@PAPAV3@IABQAV3@@Z
_TEXT	SEGMENT PARA USE32 PUBLIC 'CODE'
_TEXT	ENDS
;	COMDAT ?StringCompare@?$ChTraitsCRT@D@ATL@@SAHPBD0@Z
_TEXT	SEGMENT PARA USE32 PUBLIC 'CODE'
_TEXT	ENDS
;	COMDAT ?begin@?$vector@PAVILyricPopupWndShowObserver@@V?$allocator@PAVILyricPopupWndShowObserver@@@std@@@std@@QAE?AViterator@12@XZ
_TEXT	SEGMENT PARA USE32 PUBLIC 'CODE'
_TEXT	ENDS
;	COMDAT ?_Insert_n@?$vector@PAVILyricPopupWndShowObserver@@V?$allocator@PAVILyricPopupWndShowObserver@@@std@@@std@@IAEXViterator@12@IABQAVILyricPopupWndShowObserver@@@Z
_TEXT	SEGMENT PARA USE32 PUBLIC 'CODE'
_TEXT	ENDS
;	COMDAT ??0iterator@?$vector@PAVILyricPopupWndShowObserver@@V?$allocator@PAVILyricPopupWndShowObserver@@@std@@@std@@QAE@PAPAVILyricPopupWndShowObserver@@@Z
_TEXT	SEGMENT PARA USE32 PUBLIC 'CODE'
_TEXT	ENDS
;	COMDAT ??Hiterator@?$vector@PAVILyricPopupWndShowObserver@@V?$allocator@PAVILyricPopupWndShowObserver@@@std@@@std@@QBE?AV012@H@Z
_TEXT	SEGMENT PARA USE32 PUBLIC 'CODE'
_TEXT	ENDS
;	COMDAT ??Giterator@?$vector@PAVILyricPopupWndShowObserver@@V?$allocator@PAVILyricPopupWndShowObserver@@@std@@@std@@QBEHABVconst_iterator@12@@Z
_TEXT	SEGMENT PARA USE32 PUBLIC 'CODE'
_TEXT	ENDS
;	COMDAT ?max_size@?$vector@PAVILyricPopupWndShowObserver@@V?$allocator@PAVILyricPopupWndShowObserver@@@std@@@std@@QBEIXZ
_TEXT	SEGMENT PARA USE32 PUBLIC 'CODE'
_TEXT	ENDS
;	COMDAT ?_Destroy@?$vector@PAVILyricPopupWndShowObserver@@V?$allocator@PAVILyricPopupWndShowObserver@@@std@@@std@@IAEXPAPAVILyricPopupWndShowObserver@@0@Z
_TEXT	SEGMENT PARA USE32 PUBLIC 'CODE'
_TEXT	ENDS
;	COMDAT ?_Xlen@?$vector@PAVILyricPopupWndShowObserver@@V?$allocator@PAVILyricPopupWndShowObserver@@@std@@@std@@IBEXXZ
_TEXT	SEGMENT PARA USE32 PUBLIC 'CODE'
_TEXT	ENDS
;	COMDAT ?deallocate@?$allocator@PAVILyricPopupWndShowObserver@@@std@@QAEXPAPAVILyricPopupWndShowObserver@@I@Z
_TEXT	SEGMENT PARA USE32 PUBLIC 'CODE'
_TEXT	ENDS
;	COMDAT ?allocate@?$allocator@PAVILyricPopupWndShowObserver@@@std@@QAEPAPAVILyricPopupWndShowObserver@@I@Z
_TEXT	SEGMENT PARA USE32 PUBLIC 'CODE'
_TEXT	ENDS
;	COMDAT ??Yiterator@?$vector@PAVILyricPopupWndShowObserver@@V?$allocator@PAVILyricPopupWndShowObserver@@@std@@@std@@QAEAAV012@H@Z
_TEXT	SEGMENT PARA USE32 PUBLIC 'CODE'
_TEXT	ENDS
;	COMDAT ??0const_iterator@?$vector@PAVILyricPopupWndShowObserver@@V?$allocator@PAVILyricPopupWndShowObserver@@@std@@@std@@QAE@PAPAVILyricPopupWndShowObserver@@@Z
_TEXT	SEGMENT PARA USE32 PUBLIC 'CODE'
_TEXT	ENDS
;	COMDAT ??Gconst_iterator@?$vector@PAVILyricPopupWndShowObserver@@V?$allocator@PAVILyricPopupWndShowObserver@@@std@@@std@@QBEHABV012@@Z
_TEXT	SEGMENT PARA USE32 PUBLIC 'CODE'
_TEXT	ENDS
;	COMDAT ??0length_error@std@@QAE@ABV01@@Z
_TEXT	SEGMENT PARA USE32 PUBLIC 'CODE'
_TEXT	ENDS
;	COMDAT ?max_size@?$allocator@PAVILyricPopupWndShowObserver@@@std@@QBEIXZ
_TEXT	SEGMENT PARA USE32 PUBLIC 'CODE'
_TEXT	ENDS
;	COMDAT ?Unlock@?$CComCritSecLock@VCComCriticalSection@ATL@@@ATL@@QAEXXZ
_TEXT	SEGMENT PARA USE32 PUBLIC 'CODE'
_TEXT	ENDS
;	COMDAT ??$_Uninitialized_fill_n@PAPAVILyricPopupWndShowObserver@@IPAV1@V?$allocator@PAVILyricPopupWndShowObserver@@@std@@@std@@YAXPAPAVILyricPopupWndShowObserver@@IABQAV1@AAV?$allocator@PAVILyricPopupWndShowObserver@@@0@@Z
_TEXT	SEGMENT PARA USE32 PUBLIC 'CODE'
_TEXT	ENDS
;	COMDAT ??$_Maklocstr@D@std@@YAPADPBDPADABU_Cvtvec@@@Z
_TEXT	SEGMENT PARA USE32 PUBLIC 'CODE'
_TEXT	ENDS
;	COMDAT ??$_Ucopy@PAPAVILyricPopupWndShowObserver@@@?$vector@PAVILyricPopupWndShowObserver@@V?$allocator@PAVILyricPopupWndShowObserver@@@std@@@std@@IAEPAPAVILyricPopupWndShowObserver@@PAPAV2@00@Z
_TEXT	SEGMENT PARA USE32 PUBLIC 'CODE'
_TEXT	ENDS
;	COMDAT ??$fill@PAPAVILyricPopupWndShowObserver@@PAV1@@std@@YAXPAPAVILyricPopupWndShowObserver@@0ABQAV1@@Z
_TEXT	SEGMENT PARA USE32 PUBLIC 'CODE'
_TEXT	ENDS
;	COMDAT ??$copy_backward@PAPAVILyricPopupWndShowObserver@@PAPAV1@@std@@YAPAPAVILyricPopupWndShowObserver@@PAPAV1@00@Z
_TEXT	SEGMENT PARA USE32 PUBLIC 'CODE'
_TEXT	ENDS
;	COMDAT ??$_Destroy_range@PAVILyricPopupWndShowObserver@@V?$allocator@PAVILyricPopupWndShowObserver@@@std@@@std@@YAXPAPAVILyricPopupWndShowObserver@@0AAV?$allocator@PAVILyricPopupWndShowObserver@@@0@@Z
_TEXT	SEGMENT PARA USE32 PUBLIC 'CODE'
_TEXT	ENDS
;	COMDAT ??$_Allocate@PAVILyricPopupWndShowObserver@@@std@@YAPAPAVILyricPopupWndShowObserver@@IPAPAV1@@Z
_TEXT	SEGMENT PARA USE32 PUBLIC 'CODE'
_TEXT	ENDS
;	COMDAT ??$_Ptr_cat@VILyricPopupWndShowObserver@@@std@@YA?AU_Scalar_ptr_iterator_tag@0@PAPAVILyricPopupWndShowObserver@@0@Z
_TEXT	SEGMENT PARA USE32 PUBLIC 'CODE'
_TEXT	ENDS
;	COMDAT ??$_Uninit_fill_n@PAVILyricPopupWndShowObserver@@IPAV1@@std@@YAXPAPAVILyricPopupWndShowObserver@@IABQAV1@AAV?$allocator@PAVILyricPopupWndShowObserver@@@0@U_Scalar_ptr_iterator_tag@0@@Z
_TEXT	SEGMENT PARA USE32 PUBLIC 'CODE'
_TEXT	ENDS
;	COMDAT ??$_Uninitialized_copy@PAPAVILyricPopupWndShowObserver@@PAPAV1@V?$allocator@PAVILyricPopupWndShowObserver@@@std@@@std@@YAPAPAVILyricPopupWndShowObserver@@PAPAV1@00AAV?$allocator@PAVILyricPopupWndShowObserver@@@0@@Z
_TEXT	SEGMENT PARA USE32 PUBLIC 'CODE'
_TEXT	ENDS
;	COMDAT ??$_Copy_backward_opt@PAPAVILyricPopupWndShowObserver@@PAPAV1@@std@@YAPAPAVILyricPopupWndShowObserver@@PAPAV1@00U_Scalar_ptr_iterator_tag@0@@Z
_TEXT	SEGMENT PARA USE32 PUBLIC 'CODE'
_TEXT	ENDS
;	COMDAT ??$_Destroy_range@PAVILyricPopupWndShowObserver@@V?$allocator@PAVILyricPopupWndShowObserver@@@std@@@std@@YAXPAPAVILyricPopupWndShowObserver@@0AAV?$allocator@PAVILyricPopupWndShowObserver@@@0@U_Scalar_ptr_iterator_tag@0@@Z
_TEXT	SEGMENT PARA USE32 PUBLIC 'CODE'
_TEXT	ENDS
;	COMDAT ??$fill_n@PAPAVILyricPopupWndShowObserver@@IPAV1@@std@@YAXPAPAVILyricPopupWndShowObserver@@IABQAV1@@Z
_TEXT	SEGMENT PARA USE32 PUBLIC 'CODE'
_TEXT	ENDS
;	COMDAT ??$_Uninit_copy@PAVILyricPopupWndShowObserver@@PAV1@@std@@YAPAPAVILyricPopupWndShowObserver@@PAPAV1@00AAV?$allocator@PAVILyricPopupWndShowObserver@@@0@U_Scalar_ptr_iterator_tag@0@@Z
_TEXT	SEGMENT PARA USE32 PUBLIC 'CODE'
_TEXT	ENDS
;	COMDAT ??_R3IData@@8
rdata$r	SEGMENT DWORD USE32 PUBLIC 'CONST'
rdata$r	ENDS
;	COMDAT ??_R3CMainHostWnd@@8
rdata$r	SEGMENT DWORD USE32 PUBLIC 'CONST'
rdata$r	ENDS
;	COMDAT ??_R3?$numpunct@_W@std@@8
rdata$r	SEGMENT DWORD USE32 PUBLIC 'CONST'
rdata$r	ENDS
;	COMDAT ??_R3?$numpunct@D@std@@8
rdata$r	SEGMENT DWORD USE32 PUBLIC 'CONST'
rdata$r	ENDS
;	COMDAT ??_R2IData@@8
rdata$r	SEGMENT DWORD USE32 PUBLIC 'CONST'
rdata$r	ENDS
;	COMDAT ??_R2CMainHostWnd@@8
rdata$r	SEGMENT DWORD USE32 PUBLIC 'CONST'
rdata$r	ENDS
;	COMDAT ??_R2?$numpunct@_W@std@@8
rdata$r	SEGMENT DWORD USE32 PUBLIC 'CONST'
rdata$r	ENDS
;	COMDAT ??_R2?$numpunct@D@std@@8
rdata$r	SEGMENT DWORD USE32 PUBLIC 'CONST'
rdata$r	ENDS
;	COMDAT ??_R1A@?0A@A@IData@@8
rdata$r	SEGMENT DWORD USE32 PUBLIC 'CONST'
rdata$r	ENDS
;	COMDAT ??_R1A@?0A@A@CObject@@8
rdata$r	SEGMENT DWORD USE32 PUBLIC 'CONST'
rdata$r	ENDS
;	COMDAT ??_R0?AVCObject@@@8
_DATA	SEGMENT DWORD USE32 PUBLIC 'DATA'
_DATA	ENDS
;	COMDAT ??_R1A@?0A@A@CCmdTarget@@8
rdata$r	SEGMENT DWORD USE32 PUBLIC 'CONST'
rdata$r	ENDS
;	COMDAT ??_R0?AVCCmdTarget@@@8
_DATA	SEGMENT DWORD USE32 PUBLIC 'DATA'
_DATA	ENDS
;	COMDAT ??_R1A@?0A@A@CWnd@@8
rdata$r	SEGMENT DWORD USE32 PUBLIC 'CONST'
rdata$r	ENDS
;	COMDAT ??_R0?AVCWnd@@@8
_DATA	SEGMENT DWORD USE32 PUBLIC 'DATA'
_DATA	ENDS
;	COMDAT ??_R1A@?0A@A@CDialog@@8
rdata$r	SEGMENT DWORD USE32 PUBLIC 'CONST'
rdata$r	ENDS
;	COMDAT ??_R0?AVCDialog@@@8
_DATA	SEGMENT DWORD USE32 PUBLIC 'DATA'
_DATA	ENDS
;	COMDAT ??_R1A@?0A@A@CHostWnd@@8
rdata$r	SEGMENT DWORD USE32 PUBLIC 'CONST'
rdata$r	ENDS
;	COMDAT ??_R1A@?0A@A@CMainHostWnd@@8
rdata$r	SEGMENT DWORD USE32 PUBLIC 'CONST'
rdata$r	ENDS
;	COMDAT ??_R1A@?0A@A@?$numpunct@_W@std@@8
rdata$r	SEGMENT DWORD USE32 PUBLIC 'CONST'
rdata$r	ENDS
;	COMDAT ??_R1A@?0A@A@facet@locale@std@@8
rdata$r	SEGMENT DWORD USE32 PUBLIC 'CONST'
rdata$r	ENDS
;	COMDAT ??_R0?AVfacet@locale@std@@@8
_DATA	SEGMENT DWORD USE32 PUBLIC 'DATA'
_DATA	ENDS
;	COMDAT ??_R1A@?0A@A@?$numpunct@D@std@@8
rdata$r	SEGMENT DWORD USE32 PUBLIC 'CONST'
rdata$r	ENDS
;	COMDAT ??_R0?AVIData@@@8
_DATA	SEGMENT DWORD USE32 PUBLIC 'DATA'
_DATA	ENDS
;	COMDAT ??_R0?AVCHostWnd@@@8
_DATA	SEGMENT DWORD USE32 PUBLIC 'DATA'
_DATA	ENDS
;	COMDAT ??_R0?AVCMainHostWnd@@@8
_DATA	SEGMENT DWORD USE32 PUBLIC 'DATA'
_DATA	ENDS
;	COMDAT ??_R0?AV?$numpunct@_W@std@@@8
_DATA	SEGMENT DWORD USE32 PUBLIC 'DATA'
_DATA	ENDS
;	COMDAT ??_R0?AV?$numpunct@D@std@@@8
_DATA	SEGMENT DWORD USE32 PUBLIC 'DATA'
_DATA	ENDS
;	COMDAT ??_R4IData@@6B@
rdata$r	SEGMENT DWORD USE32 PUBLIC 'CONST'
rdata$r	ENDS
;	COMDAT ?Create@CDialog@@UAEHIPAVCWnd@@@Z
_TEXT	SEGMENT PARA USE32 PUBLIC 'CODE'
_TEXT	ENDS
;	COMDAT ?EndModalState@CWnd@@UAEXXZ
_TEXT	SEGMENT PARA USE32 PUBLIC 'CODE'
_TEXT	ENDS
;	COMDAT ?BeginModalState@CWnd@@UAEXXZ
_TEXT	SEGMENT PARA USE32 PUBLIC 'CODE'
_TEXT	ENDS
;	COMDAT ?DoDataExchange@CWnd@@MAEXPAVCDataExchange@@@Z
_TEXT	SEGMENT PARA USE32 PUBLIC 'CODE'
_TEXT	ENDS
;	COMDAT ?Dump@CObject@@UBEXAAVCDumpContext@@@Z
_TEXT	SEGMENT PARA USE32 PUBLIC 'CODE'
_TEXT	ENDS
;	COMDAT ?AssertValid@CObject@@UBEXXZ
_TEXT	SEGMENT PARA USE32 PUBLIC 'CODE'
_TEXT	ENDS
;	COMDAT ?Serialize@CObject@@UAEXAAVCArchive@@@Z
_TEXT	SEGMENT PARA USE32 PUBLIC 'CODE'
_TEXT	ENDS
;	COMDAT ??_R4CMainHostWnd@@6B@
rdata$r	SEGMENT DWORD USE32 PUBLIC 'CONST'
rdata$r	ENDS
;	COMDAT ??0?$allocator@_W@std@@QAE@XZ
_TEXT	SEGMENT PARA USE32 PUBLIC 'CODE'
_TEXT	ENDS
;	COMDAT ??_G?$numpunct@_W@std@@MAEPAXI@Z
_TEXT	SEGMENT PARA USE32 PUBLIC 'CODE'
_TEXT	ENDS
;	COMDAT ??_R4?$numpunct@_W@std@@6B@
rdata$r	SEGMENT DWORD USE32 PUBLIC 'CONST'
rdata$r	ENDS
;	COMDAT ??_G?$numpunct@D@std@@MAEPAXI@Z
_TEXT	SEGMENT PARA USE32 PUBLIC 'CODE'
_TEXT	ENDS
;	COMDAT ??_R4?$numpunct@D@std@@6B@
rdata$r	SEGMENT DWORD USE32 PUBLIC 'CONST'
rdata$r	ENDS
;	COMDAT ?_Psave@?$_Facetptr@V?$numpunct@_W@std@@@std@@2PBVfacet@locale@2@B
_DATA	SEGMENT DWORD USE32 PUBLIC 'DATA'
_DATA	ENDS
;	COMDAT ?_Psave@?$_Facetptr@V?$numpunct@D@std@@@std@@2PBVfacet@locale@2@B
_DATA	SEGMENT DWORD USE32 PUBLIC 'DATA'
_DATA	ENDS
;	COMDAT ?Unlock@CComCriticalSection@ATL@@QAEJXZ
_TEXT	SEGMENT PARA USE32 PUBLIC 'CODE'
_TEXT	ENDS
;	COMDAT ?_Psave@?$_Facetptr@V?$ctype@_W@std@@@std@@2PBVfacet@locale@2@B
_DATA	SEGMENT DWORD USE32 PUBLIC 'DATA'
_DATA	ENDS
;	COMDAT ?_Psave@?$_Facetptr@V?$ctype@D@std@@@std@@2PBVfacet@locale@2@B
_DATA	SEGMENT DWORD USE32 PUBLIC 'DATA'
_DATA	ENDS
;	COMDAT ??_7length_error@std@@6B@
CONST	SEGMENT DWORD USE32 PUBLIC 'CONST'
CONST	ENDS
;	COMDAT ??_R4length_error@std@@6B@
rdata$r	SEGMENT DWORD USE32 PUBLIC 'CONST'
rdata$r	ENDS
;	COMDAT ??_R3length_error@std@@8
rdata$r	SEGMENT DWORD USE32 PUBLIC 'CONST'
rdata$r	ENDS
;	COMDAT ??_R2length_error@std@@8
rdata$r	SEGMENT DWORD USE32 PUBLIC 'CONST'
rdata$r	ENDS
;	COMDAT ??_R1A@?0A@A@length_error@std@@8
rdata$r	SEGMENT DWORD USE32 PUBLIC 'CONST'
rdata$r	ENDS
;	COMDAT ??_R1A@?0A@A@logic_error@std@@8
rdata$r	SEGMENT DWORD USE32 PUBLIC 'CONST'
rdata$r	ENDS
;	COMDAT ??_R0?AVlogic_error@std@@@8
_DATA	SEGMENT DWORD USE32 PUBLIC 'DATA'
_DATA	ENDS
;	COMDAT ??_R1A@?0A@A@exception@@8
rdata$r	SEGMENT DWORD USE32 PUBLIC 'CONST'
rdata$r	ENDS
;	COMDAT ??_R0?AVexception@@@8
_DATA	SEGMENT DWORD USE32 PUBLIC 'DATA'
_DATA	ENDS
;	COMDAT ??_Glength_error@std@@UAEPAXI@Z
_TEXT	SEGMENT PARA USE32 PUBLIC 'CODE'
_TEXT	ENDS
;	COMDAT ?what@logic_error@std@@UBEPBDXZ
_TEXT	SEGMENT PARA USE32 PUBLIC 'CODE'
_TEXT	ENDS
;	COMDAT ??1logic_error@std@@UAE@XZ
_TEXT	SEGMENT PARA USE32 PUBLIC 'CODE'
_TEXT	ENDS
;	COMDAT ??_7logic_error@std@@6B@
CONST	SEGMENT DWORD USE32 PUBLIC 'CONST'
CONST	ENDS
;	COMDAT ??_R4logic_error@std@@6B@
rdata$r	SEGMENT DWORD USE32 PUBLIC 'CONST'
rdata$r	ENDS
;	COMDAT ??_R3logic_error@std@@8
rdata$r	SEGMENT DWORD USE32 PUBLIC 'CONST'
rdata$r	ENDS
;	COMDAT ??_R2logic_error@std@@8
rdata$r	SEGMENT DWORD USE32 PUBLIC 'CONST'
rdata$r	ENDS
;	COMDAT ??_Glogic_error@std@@UAEPAXI@Z
_TEXT	SEGMENT PARA USE32 PUBLIC 'CODE'
_TEXT	ENDS
;	COMDAT ??0logic_error@std@@QAE@ABV01@@Z
_TEXT	SEGMENT PARA USE32 PUBLIC 'CODE'
_TEXT	ENDS
;	COMDAT __CTA3?AVlength_error@std@@
xdata$x	SEGMENT DWORD USE32 PUBLIC 'CONST'
xdata$x	ENDS
;	COMDAT ??1length_error@std@@UAE@XZ
_TEXT	SEGMENT PARA USE32 PUBLIC 'CODE'
_TEXT	ENDS
;	COMDAT __CT??_R0?AVexception@@@8??0exception@@QAE@ABV0@@Z12
xdata$x	SEGMENT DWORD USE32 PUBLIC 'CONST'
xdata$x	ENDS
;	COMDAT __CT??_R0?AVlogic_error@std@@@8??0logic_error@std@@QAE@ABV01@@Z40
xdata$x	SEGMENT DWORD USE32 PUBLIC 'CONST'
xdata$x	ENDS
;	COMDAT __CT??_R0?AVlength_error@std@@@8??0length_error@std@@QAE@ABV01@@Z40
xdata$x	SEGMENT DWORD USE32 PUBLIC 'CONST'
xdata$x	ENDS
;	COMDAT ??_R0?AVlength_error@std@@@8
_DATA	SEGMENT DWORD USE32 PUBLIC 'DATA'
_DATA	ENDS
;	COMDAT __TI3?AVlength_error@std@@
xdata$x	SEGMENT DWORD USE32 PUBLIC 'CONST'
xdata$x	ENDS
;	COMDAT ??0length_error@std@@QAE@ABV?$basic_string@DU?$char_traits@D@std@@V?$allocator@D@2@@1@@Z
_TEXT	SEGMENT PARA USE32 PUBLIC 'CODE'
_TEXT	ENDS
;	COMDAT ??0logic_error@std@@QAE@ABV?$basic_string@DU?$char_traits@D@std@@V?$allocator@D@2@@1@@Z
_TEXT	SEGMENT PARA USE32 PUBLIC 'CODE'
_TEXT	ENDS
;	COMDAT ??$_Maklocchr@_W@std@@YA_WDPA_WABU_Cvtvec@@@Z
_TEXT	SEGMENT PARA USE32 PUBLIC 'CODE'
_TEXT	ENDS
;	COMDAT ??$_Maklocstr@_W@std@@YAPA_WPBDPA_WABU_Cvtvec@@@Z
_TEXT	SEGMENT PARA USE32 PUBLIC 'CODE'
_TEXT	ENDS
;	COMDAT ??$_Maklocchr@D@std@@YADDPADABU_Cvtvec@@@Z
_TEXT	SEGMENT PARA USE32 PUBLIC 'CODE'
_TEXT	ENDS
;	COMDAT ??_C@_04LOAJBDKD@true?$AA@
CONST	SEGMENT DWORD USE32 PUBLIC 'CONST'
CONST	ENDS
;	COMDAT ??_C@_05LAPONLG@false?$AA@
CONST	SEGMENT DWORD USE32 PUBLIC 'CONST'
CONST	ENDS
;	COMDAT _wmemcpy
_TEXT	SEGMENT PARA USE32 PUBLIC 'CODE'
_TEXT	ENDS
;	COMDAT ?max_size@?$allocator@_W@std@@QBEIXZ
_TEXT	SEGMENT PARA USE32 PUBLIC 'CODE'
_TEXT	ENDS
;	COMDAT ?allocate@?$allocator@_W@std@@QAEPA_WI@Z
_TEXT	SEGMENT PARA USE32 PUBLIC 'CODE'
_TEXT	ENDS
;	COMDAT ??$_Allocate@_W@std@@YAPA_WIPA_W@Z
_TEXT	SEGMENT PARA USE32 PUBLIC 'CODE'
_TEXT	ENDS
;	COMDAT ??_C@_01GFHCPBMG@C?$AA@
CONST	SEGMENT DWORD USE32 PUBLIC 'CONST'
CONST	ENDS
;	COMDAT ?max_size@?$allocator@D@std@@QBEIXZ
_TEXT	SEGMENT PARA USE32 PUBLIC 'CODE'
_TEXT	ENDS
;	COMDAT ?allocate@?$allocator@D@std@@QAEPADI@Z
_TEXT	SEGMENT PARA USE32 PUBLIC 'CODE'
_TEXT	ENDS
;	COMDAT ??$_Allocate@D@std@@YAPADIPAD@Z
_TEXT	SEGMENT PARA USE32 PUBLIC 'CODE'
_TEXT	ENDS
;	COMDAT ?deallocate@?$allocator@D@std@@QAEXPADI@Z
_TEXT	SEGMENT PARA USE32 PUBLIC 'CODE'
_TEXT	ENDS
;	COMDAT ?_Peek@?$istreambuf_iterator@_WU?$char_traits@_W@std@@@std@@AAE_WXZ
_TEXT	SEGMENT PARA USE32 PUBLIC 'CODE'
_TEXT	ENDS
;	COMDAT ?_Peek@?$istreambuf_iterator@DU?$char_traits@D@std@@@std@@AAEDXZ
_TEXT	SEGMENT PARA USE32 PUBLIC 'CODE'
_TEXT	ENDS
;	COMDAT ??$use_facet@V?$ctype@_W@std@@@std@@YAABV?$ctype@_W@0@ABVlocale@0@@Z
_TEXT	SEGMENT PARA USE32 PUBLIC 'CODE'
_TEXT	ENDS
;	COMDAT ??_S?$ctype@_W@std@@6B@
CONST	SEGMENT DWORD USE32 PUBLIC 'CONST'
CONST	ENDS
;	COMDAT ??_R4?$ctype@_W@std@@6B@
rdata$r	SEGMENT DWORD USE32 PUBLIC 'CONST'
rdata$r	ENDS
;	COMDAT ??_R0?AV?$ctype@_W@std@@@8
_DATA	SEGMENT DWORD USE32 PUBLIC 'DATA'
_DATA	ENDS
;	COMDAT ??_R3?$ctype@_W@std@@8
rdata$r	SEGMENT DWORD USE32 PUBLIC 'CONST'
rdata$r	ENDS
;	COMDAT ??_R2?$ctype@_W@std@@8
rdata$r	SEGMENT DWORD USE32 PUBLIC 'CONST'
rdata$r	ENDS
;	COMDAT ??_R1A@?0A@A@?$ctype@_W@std@@8
rdata$r	SEGMENT DWORD USE32 PUBLIC 'CONST'
rdata$r	ENDS
;	COMDAT ??_R1A@?0A@A@ctype_base@std@@8
rdata$r	SEGMENT DWORD USE32 PUBLIC 'CONST'
rdata$r	ENDS
;	COMDAT ??_R0?AUctype_base@std@@@8
_DATA	SEGMENT DWORD USE32 PUBLIC 'DATA'
_DATA	ENDS
;	COMDAT ??_G?$ctype@_W@std@@MAEPAXI@Z
_TEXT	SEGMENT PARA USE32 PUBLIC 'CODE'
_TEXT	ENDS
;	COMDAT ??_C@_08EPJLHIJG@bad?5cast?$AA@
CONST	SEGMENT DWORD USE32 PUBLIC 'CONST'
CONST	ENDS
;	COMDAT __TI2?AVbad_cast@@
xdata$x	SEGMENT DWORD USE32 PUBLIC 'CONST'
xdata$x	ENDS
;	COMDAT __CTA2?AVbad_cast@@
xdata$x	SEGMENT DWORD USE32 PUBLIC 'CONST'
xdata$x	ENDS
;	COMDAT __CT??_R0?AVbad_cast@@@8??0bad_cast@@QAE@ABV0@@Z12
xdata$x	SEGMENT DWORD USE32 PUBLIC 'CONST'
xdata$x	ENDS
;	COMDAT ??_R0?AVbad_cast@@@8
_DATA	SEGMENT DWORD USE32 PUBLIC 'DATA'
_DATA	ENDS
;	COMDAT ??$use_facet@V?$ctype@D@std@@@std@@YAABV?$ctype@D@0@ABVlocale@0@@Z
_TEXT	SEGMENT PARA USE32 PUBLIC 'CODE'
_TEXT	ENDS
;	COMDAT ??_S?$ctype@D@std@@6B@
CONST	SEGMENT DWORD USE32 PUBLIC 'CONST'
CONST	ENDS
;	COMDAT ??_R4?$ctype@D@std@@6B@
rdata$r	SEGMENT DWORD USE32 PUBLIC 'CONST'
rdata$r	ENDS
;	COMDAT ??_R0?AV?$ctype@D@std@@@8
_DATA	SEGMENT DWORD USE32 PUBLIC 'DATA'
_DATA	ENDS
;	COMDAT ??_R3?$ctype@D@std@@8
rdata$r	SEGMENT DWORD USE32 PUBLIC 'CONST'
rdata$r	ENDS
;	COMDAT ??_R2?$ctype@D@std@@8
rdata$r	SEGMENT DWORD USE32 PUBLIC 'CONST'
rdata$r	ENDS
;	COMDAT ??_R1A@?0A@A@?$ctype@D@std@@8
rdata$r	SEGMENT DWORD USE32 PUBLIC 'CONST'
rdata$r	ENDS
;	COMDAT ??_G?$ctype@D@std@@MAEPAXI@Z
_TEXT	SEGMENT PARA USE32 PUBLIC 'CODE'
_TEXT	ENDS
;	COMDAT ??_S?$numpunct@_W@std@@6B@
CONST	SEGMENT DWORD USE32 PUBLIC 'CONST'
CONST	ENDS
;	COMDAT ??_S?$numpunct@D@std@@6B@
CONST	SEGMENT DWORD USE32 PUBLIC 'CONST'
CONST	ENDS
;	COMDAT _wmemmove
_TEXT	SEGMENT PARA USE32 PUBLIC 'CODE'
_TEXT	ENDS
;	COMDAT ?deallocate@?$allocator@_W@std@@QAEXPA_WI@Z
_TEXT	SEGMENT PARA USE32 PUBLIC 'CODE'
_TEXT	ENDS
;	COMDAT ??0?$allocator@_W@std@@QAE@ABV01@@Z
_TEXT	SEGMENT PARA USE32 PUBLIC 'CODE'
_TEXT	ENDS
;	COMDAT ??0?$allocator@D@std@@QAE@ABV01@@Z
_TEXT	SEGMENT PARA USE32 PUBLIC 'CODE'
_TEXT	ENDS
;	COMDAT ??0?$allocator@D@std@@QAE@XZ
_TEXT	SEGMENT PARA USE32 PUBLIC 'CODE'
_TEXT	ENDS
;	COMDAT ?IsLocked@CStringData@ATL@@QBE_NXZ
_TEXT	SEGMENT PARA USE32 PUBLIC 'CODE'
_TEXT	ENDS
;	COMDAT ?AddRef@CStringData@ATL@@QAEXXZ
_TEXT	SEGMENT PARA USE32 PUBLIC 'CODE'
_TEXT	ENDS
;	COMDAT ?AtlThrow@ATL@@YGXJ@Z
_TEXT	SEGMENT PARA USE32 PUBLIC 'CODE'
_TEXT	ENDS
;	COMDAT ?data@CStringData@ATL@@QAEPAXXZ
_TEXT	SEGMENT PARA USE32 PUBLIC 'CODE'
_TEXT	ENDS
;	COMDAT ?Release@CStringData@ATL@@QAEXXZ
_TEXT	SEGMENT PARA USE32 PUBLIC 'CODE'
_TEXT	ENDS
;	COMDAT ??BCRect@@QAEPAUtagRECT@@XZ
_TEXT	SEGMENT PARA USE32 PUBLIC 'CODE'
_TEXT	ENDS
;	COMDAT ?GetWindowRect@CWnd@@QBEXPAUtagRECT@@@Z
_TEXT	SEGMENT PARA USE32 PUBLIC 'CODE'
_TEXT	ENDS
;	COMDAT ?Height@CRect@@QBEHXZ
_TEXT	SEGMENT PARA USE32 PUBLIC 'CODE'
_TEXT	ENDS
;	COMDAT ?Width@CRect@@QBEHXZ
_TEXT	SEGMENT PARA USE32 PUBLIC 'CODE'
_TEXT	ENDS
;	COMDAT ?DeflateRect@CRect@@QAEXHHHH@Z
_TEXT	SEGMENT PARA USE32 PUBLIC 'CODE'
_TEXT	ENDS
;	COMDAT ?RedrawWindow@CWnd@@QAEHPBUtagRECT@@PAVCRgn@@I@Z
_TEXT	SEGMENT PARA USE32 PUBLIC 'CODE'
_TEXT	ENDS
;	COMDAT ?GetSafeHandle@CGdiObject@@QBEPAXXZ
_TEXT	SEGMENT PARA USE32 PUBLIC 'CODE'
_TEXT	ENDS
;	COMDAT ?MoveWindow@CWnd@@QAEXPBUtagRECT@@H@Z
_TEXT	SEGMENT PARA USE32 PUBLIC 'CODE'
_TEXT	ENDS
;	COMDAT ?GetClientRect@CWnd@@QBEXPAUtagRECT@@@Z
_TEXT	SEGMENT PARA USE32 PUBLIC 'CODE'
_TEXT	ENDS
;	COMDAT ??0CRect@@QAE@XZ
_TEXT	SEGMENT PARA USE32 PUBLIC 'CODE'
_TEXT	ENDS
;	COMDAT ?ReleaseDC@CWnd@@QAEHPAVCDC@@@Z
_TEXT	SEGMENT PARA USE32 PUBLIC 'CODE'
_TEXT	ENDS
;	COMDAT ?GetDC@CWnd@@QAEPAVCDC@@XZ
_TEXT	SEGMENT PARA USE32 PUBLIC 'CODE'
_TEXT	ENDS
;	COMDAT ?OnSize@CWnd@@IAEXIHH@Z
_TEXT	SEGMENT PARA USE32 PUBLIC 'CODE'
_TEXT	ENDS
;	COMDAT ?SetParent@CWnd@@QAEPAV1@PAV1@@Z
_TEXT	SEGMENT PARA USE32 PUBLIC 'CODE'
_TEXT	ENDS
;	COMDAT ?GetSafeHwnd@CWnd@@QBEPAUHWND__@@XZ
_TEXT	SEGMENT PARA USE32 PUBLIC 'CODE'
_TEXT	ENDS
;	COMDAT ?_messageEntries@CMainHostWnd@@0QBUAFX_MSGMAP_ENTRY@@B
CONST	SEGMENT DWORD USE32 PUBLIC 'CONST'
CONST	ENDS
;	COMDAT ?messageMap@CMainHostWnd@@1UAFX_MSGMAP@@B
CONST	SEGMENT DWORD USE32 PUBLIC 'CONST'
CONST	ENDS
;	COMDAT ??3CObject@@SGXPAX@Z
_TEXT	SEGMENT PARA USE32 PUBLIC 'CODE'
_TEXT	ENDS
;	COMDAT ?GetDefaultManager@?$StrTraitMFC_DLL@DV?$ChTraitsCRT@D@ATL@@@@SAPAUIAtlStringMgr@ATL@@XZ
_TEXT	SEGMENT PARA USE32 PUBLIC 'CODE'
_TEXT	ENDS
;	COMDAT ?FindStringResourceInstance@?$StrTraitMFC_DLL@DV?$ChTraitsCRT@D@ATL@@@@SAPAUHINSTANCE__@@I@Z
_TEXT	SEGMENT PARA USE32 PUBLIC 'CODE'
_TEXT	ENDS
;	COMDAT ?AtlGetStringResourceImage@ATL@@YAPBUATLSTRINGRESOURCEIMAGE@1@PAUHINSTANCE__@@I@Z
_TEXT	SEGMENT PARA USE32 PUBLIC 'CODE'
_TEXT	ENDS
;	COMDAT ?_AtlGetStringResourceImage@ATL@@YAPBUATLSTRINGRESOURCEIMAGE@1@PAUHINSTANCE__@@PAUHRSRC__@@I@Z
_TEXT	SEGMENT PARA USE32 PUBLIC 'CODE'
_TEXT	ENDS
;	COMDAT ?GetBaseTypeLength@?$ChTraitsCRT@D@ATL@@SAHPB_WH@Z
_TEXT	SEGMENT PARA USE32 PUBLIC 'CODE'
_TEXT	ENDS
;	COMDAT ?_AtlGetConversionACP@ATL@@YGIXZ
_TEXT	SEGMENT PARA USE32 PUBLIC 'CODE'
_TEXT	ENDS
;	COMDAT ?g_pfnGetThreadACP@ATL@@3P6GIXZA
_DATA	SEGMENT DWORD USE32 PUBLIC 'DATA'
_DATA	ENDS
;	COMDAT ?_AtlGetThreadACPThunk@ATL@@YGIXZ
_TEXT	SEGMENT PARA USE32 PUBLIC 'CODE'
_TEXT	ENDS
;	COMDAT ?_AtlGetThreadACPReal@ATL@@YGIXZ
_TEXT	SEGMENT PARA USE32 PUBLIC 'CODE'
_TEXT	ENDS
;	COMDAT ?_AtlGetThreadACPFake@ATL@@YGIXZ
_TEXT	SEGMENT PARA USE32 PUBLIC 'CODE'
_TEXT	ENDS
;	COMDAT ?InterlockedExchangePointer@@YGPAXPAPAXPAX@Z
_TEXT	SEGMENT PARA USE32 PUBLIC 'CODE'
_TEXT	ENDS
;	COMDAT ?IsShared@CStringData@ATL@@QBE_NXZ
_TEXT	SEGMENT PARA USE32 PUBLIC 'CODE'
_TEXT	ENDS
;	COMDAT ?ConvertToBaseType@?$ChTraitsCRT@D@ATL@@SAXPADHPB_WH@Z
_TEXT	SEGMENT PARA USE32 PUBLIC 'CODE'
_TEXT	ENDS
;	COMDAT ??_7CMainHostWnd@@6B@
CONST	SEGMENT DWORD USE32 PUBLIC 'CONST'
CONST	ENDS
;	COMDAT ??_7IData@@6B@
CONST	SEGMENT DWORD USE32 PUBLIC 'CONST'
CONST	ENDS
sxdata	SEGMENT DWORD USE32 'SXDATA'
sxdata	ENDS
FLAT	GROUP _DATA, CONST, _BSS
	ASSUME	CS: FLAT, DS: FLAT, SS: FLAT
endif

INCLUDELIB MSVCRT
INCLUDELIB OLDNAMES

PUBLIC	?_messageEntries@CMainHostWnd@@0QBUAFX_MSGMAP_ENTRY@@B ; CMainHostWnd::_messageEntries
PUBLIC	?messageMap@CMainHostWnd@@1UAFX_MSGMAP@@B	; CMainHostWnd::messageMap
PUBLIC	?OnLButtonDown@CMainHostWnd@@IAEXIVCPoint@@@Z	; CMainHostWnd::OnLButtonDown
PUBLIC	?OnLButtonUp@CMainHostWnd@@IAEXIVCPoint@@@Z	; CMainHostWnd::OnLButtonUp
PUBLIC	?OnMouseMove@CMainHostWnd@@IAEXIVCPoint@@@Z	; CMainHostWnd::OnMouseMove
PUBLIC	?OnSize@CMainHostWnd@@IAEXIHH@Z			; CMainHostWnd::OnSize
PUBLIC	?g_pfnGetThreadACP@ATL@@3P6GIXZA		; ATL::g_pfnGetThreadACP
PUBLIC	?_AtlGetThreadACPThunk@ATL@@YGIXZ		; ATL::_AtlGetThreadACPThunk
EXTRN	?GetThisMessageMap@CHostWnd@@KGPBUAFX_MSGMAP@@XZ:NEAR ; CHostWnd::GetThisMessageMap
CONST	SEGMENT
$SG198456 DB	'int', 00H
CONST	ENDS
_DATA	SEGMENT
_TYPE_CONFIG_INT DD FLAT:$SG198456
_DATA	ENDS
CONST	SEGMENT
$SG198458 DB	'str', 00H
CONST	ENDS
_DATA	SEGMENT
_TYPE_CONFIG_STR DD FLAT:$SG198458
_DATA	ENDS
CONST	SEGMENT
$SG198460 DB	'double', 00H
CONST	ENDS
_DATA	SEGMENT
_TYPE_CONFIG_DOUBLE DD FLAT:$SG198460
_DATA	ENDS
CONST	SEGMENT
	ORG $+1
$SG198462 DB	'bool', 00H
CONST	ENDS
_DATA	SEGMENT
_TYPE_CONFIG_BOOL DD FLAT:$SG198462
_DATA	ENDS
CONST	SEGMENT
	ORG $+3
$SG198464 DB	'sepint', 00H
CONST	ENDS
_DATA	SEGMENT
_TYPE_CONFIG_INT_HASSEP DD FLAT:$SG198464
_DATA	ENDS
CONST	SEGMENT
	ORG $+1
$SG198466 DB	'sepstr', 00H
CONST	ENDS
_DATA	SEGMENT
_TYPE_CONFIG_STR_HASSEP DD FLAT:$SG198466
_DATA	ENDS
CONST	SEGMENT
	ORG $+1
$SG198468 DB	'sepdouble', 00H
CONST	ENDS
_DATA	SEGMENT
_TYPE_CONFIG_DOUBLE_HASSEP DD FLAT:$SG198468
_DATA	ENDS
CONST	SEGMENT
	ORG $+2
$SG198470 DB	'sepbool', 00H
CONST	ENDS
_DATA	SEGMENT
_TYPE_CONFIG_BOOL_HASSEP DD FLAT:$SG198470
_DATA	ENDS
CONST	SEGMENT
$SG198472 DB	'App', 00H
CONST	ENDS
_DATA	SEGMENT
_CONF_APP_MODULE_NAME DD FLAT:$SG198472
_DATA	ENDS
CONST	SEGMENT
$SG198474 DB	'SwfPath', 00H
CONST	ENDS
_DATA	SEGMENT
_CONF_APP_SWF_PATH DD FLAT:$SG198474
_DATA	ENDS
CONST	SEGMENT
$SG198476 DB	'MainWndHold', 00H
CONST	ENDS
_DATA	SEGMENT
_CONF_APP_MAINWND_HOLD DD FLAT:$SG198476
_DATA	ENDS
CONST	SEGMENT
$SG198478 DB	'RunCount', 00H
CONST	ENDS
_DATA	SEGMENT
_CONF_APP_RUN_COUNT DD FLAT:$SG198478
_DATA	ENDS
CONST	SEGMENT
	ORG $+3
$SG198480 DB	'PlayedGame', 00H
CONST	ENDS
_DATA	SEGMENT
_CONF_APP_PLAYED_GAME DD FLAT:$SG198480
_DATA	ENDS
CONST	SEGMENT
	ORG $+1
$SG198482 DB	'playedPcGame', 00H
CONST	ENDS
_DATA	SEGMENT
_CONF_APP_PLAYED_PC_GAME DD FLAT:$SG198482
_DATA	ENDS
CONST	SEGMENT
	ORG $+3
$SG198484 DB	'PlayedIconSize', 00H
CONST	ENDS
_DATA	SEGMENT
_CONF_APP_PLAYED_ICON_SIZE DD FLAT:$SG198484
_DATA	ENDS
CONST	SEGMENT
	ORG $+1
$SG198486 DB	'PictureSavePath', 00H
CONST	ENDS
_DATA	SEGMENT
_CONF_APP_PIC_SAVE_PATH DD FLAT:$SG198486
_DATA	ENDS
CONST	SEGMENT
$SG199559 DB	'ControlPanel', 00H
	ORG $+3
$SG199561 DB	'SepPlayList', 00H
$SG199568 DB	'normal', 00H
CONST	ENDS
;	COMDAT ?_messageEntries@CMainHostWnd@@0QBUAFX_MSGMAP_ENTRY@@B
CONST	SEGMENT
?_messageEntries@CMainHostWnd@@0QBUAFX_MSGMAP_ENTRY@@B DD 0202H ; CMainHostWnd::_messageEntries
	DD	00H
	DD	00H
	DD	00H
	DD	032H
	DD	FLAT:?OnLButtonUp@CMainHostWnd@@IAEXIVCPoint@@@Z
	DD	0201H
	DD	00H
	DD	00H
	DD	00H
	DD	032H
	DD	FLAT:?OnLButtonDown@CMainHostWnd@@IAEXIVCPoint@@@Z
	DD	0200H
	DD	00H
	DD	00H
	DD	00H
	DD	032H
	DD	FLAT:?OnMouseMove@CMainHostWnd@@IAEXIVCPoint@@@Z
	DD	05H
	DD	00H
	DD	00H
	DD	00H
	DD	016H
	DD	FLAT:?OnSize@CMainHostWnd@@IAEXIHH@Z
	DD	00H
	DD	00H
	DD	00H
	DD	00H
	DD	00H
	DD	00H
CONST	ENDS
;	COMDAT ?messageMap@CMainHostWnd@@1UAFX_MSGMAP@@B
CONST	SEGMENT
?messageMap@CMainHostWnd@@1UAFX_MSGMAP@@B DD FLAT:?GetThisMessageMap@CHostWnd@@KGPBUAFX_MSGMAP@@XZ ; CMainHostWnd::messageMap
	DD	FLAT:?_messageEntries@CMainHostWnd@@0QBUAFX_MSGMAP_ENTRY@@B
CONST	ENDS
CONST	SEGMENT
	ORG $+1
$SG199685 DB	'ControlPanel', 00H
	ORG $+3
$SG199690 DB	'MultiNowPlaying', 00H
$SG199694 DB	'watchmode', 00H
	ORG $+2
$SG199695 DB	'ControlPanel', 00H
	ORG $+3
$SG199698 DB	'normal', 00H
	ORG $+1
$SG199699 DB	'ControlPanel', 00H
	ORG $+3
$SG199702 DB	'normal', 00H
	ORG $+1
$SG199703 DB	'ControlPanel', 00H
	ORG $+3
$SG199707 DB	'watchmode', 00H
	ORG $+2
$SG199708 DB	'ControlPanel', 00H
	ORG $+3
$SG199711 DB	'watchmode', 00H
	ORG $+2
$SG199712 DB	'ControlPanel', 00H
	ORG $+3
$SG199716 DB	'MultiNowPlaying', 00H
$SG199721 DB	'BTN:SHOW_MV', 00H
$SG199722 DB	'USRCLK', 00H
	ORG $+1
$SG199726 DB	'BTN:HIDE_MV', 00H
$SG199727 DB	'USRCLK', 00H
CONST	ENDS
;	COMDAT ?g_pfnGetThreadACP@ATL@@3P6GIXZA
_DATA	SEGMENT
?g_pfnGetThreadACP@ATL@@3P6GIXZA DD FLAT:?_AtlGetThreadACPThunk@ATL@@YGIXZ ; ATL::g_pfnGetThreadACP
_DATA	ENDS
PUBLIC	?Create@CDialog@@UAEHIPAVCWnd@@@Z		; CDialog::Create
PUBLIC	??0CMainHostWnd@@QAE@PAVCWnd@@@Z		; CMainHostWnd::CMainHostWnd
PUBLIC	?_needChangeCursor@CMainHostWnd@@UAE_NABVCPoint@@@Z ; CMainHostWnd::_needChangeCursor
PUBLIC	?GetMessageMap@CMainHostWnd@@MBEPBUAFX_MSGMAP@@XZ ; CMainHostWnd::GetMessageMap
PUBLIC	?OnInitDialog@CMainHostWnd@@MAEHXZ		; CMainHostWnd::OnInitDialog
PUBLIC	??_7CMainHostWnd@@6B@				; CMainHostWnd::`vftable'
PUBLIC	??_GCMainHostWnd@@UAEPAXI@Z			; CMainHostWnd::`scalar deleting destructor'
PUBLIC	??_R1A@?0A@A@CObject@@8				; CObject::`RTTI Base Class Descriptor at (0,-1,0,0)'
PUBLIC	??_R0?AVCObject@@@8				; CObject `RTTI Type Descriptor'
PUBLIC	??_R1A@?0A@A@CWnd@@8				; CWnd::`RTTI Base Class Descriptor at (0,-1,0,0)'
PUBLIC	??_R0?AVCWnd@@@8				; CWnd `RTTI Type Descriptor'
PUBLIC	??_R1A@?0A@A@CCmdTarget@@8			; CCmdTarget::`RTTI Base Class Descriptor at (0,-1,0,0)'
PUBLIC	??_R0?AVCCmdTarget@@@8				; CCmdTarget `RTTI Type Descriptor'
PUBLIC	??_R1A@?0A@A@CDialog@@8				; CDialog::`RTTI Base Class Descriptor at (0,-1,0,0)'
PUBLIC	??_R0?AVCDialog@@@8				; CDialog `RTTI Type Descriptor'
PUBLIC	?Serialize@CObject@@UAEXAAVCArchive@@@Z		; CObject::Serialize
PUBLIC	?AssertValid@CObject@@UBEXXZ			; CObject::AssertValid
PUBLIC	?Dump@CObject@@UBEXAAVCDumpContext@@@Z		; CObject::Dump
PUBLIC	??8ATL@@YA_NABV?$CStringT@DV?$StrTraitMFC_DLL@DV?$ChTraitsCRT@D@ATL@@@@@0@PBD@Z ; ATL::operator==
PUBLIC	??_R4CMainHostWnd@@6B@				; CMainHostWnd::`RTTI Complete Object Locator'
PUBLIC	??_R0?AVCMainHostWnd@@@8			; CMainHostWnd `RTTI Type Descriptor'
PUBLIC	??_R3CMainHostWnd@@8				; CMainHostWnd::`RTTI Class Hierarchy Descriptor'
PUBLIC	??_R2CMainHostWnd@@8				; CMainHostWnd::`RTTI Base Class Array'
PUBLIC	??_R1A@?0A@A@CMainHostWnd@@8			; CMainHostWnd::`RTTI Base Class Descriptor at (0,-1,0,0)'
PUBLIC	??_R1A@?0A@A@CHostWnd@@8			; CHostWnd::`RTTI Base Class Descriptor at (0,-1,0,0)'
PUBLIC	??_R0?AVCHostWnd@@@8				; CHostWnd `RTTI Type Descriptor'
PUBLIC	?DoDataExchange@CWnd@@MAEXPAVCDataExchange@@@Z	; CWnd::DoDataExchange
PUBLIC	?BeginModalState@CWnd@@UAEXXZ			; CWnd::BeginModalState
PUBLIC	?EndModalState@CWnd@@UAEXXZ			; CWnd::EndModalState
EXTRN	??0CHostWnd@@QAE@PAVCWnd@@@Z:NEAR		; CHostWnd::CHostWnd
EXTRN	??1CHostWnd@@UAE@XZ:NEAR			; CHostWnd::~CHostWnd
EXTRN	?CreateControlContainer@CWnd@@MAEHPAPAVCOleControlContainer@@@Z:NEAR ; CWnd::CreateControlContainer
EXTRN	?CreateControlSite@CWnd@@MAEHPAVCOleControlContainer@@PAPAVCOleControlSite@@IABU_GUID@@@Z:NEAR ; CWnd::CreateControlSite
EXTRN	?OnOK@CHostWnd@@MAEXXZ:NEAR			; CHostWnd::OnOK
EXTRN	?OnCancel@CHostWnd@@MAEXXZ:NEAR			; CHostWnd::OnCancel
EXTRN	?PreTranslateMessage@CHostWnd@@UAEHPAUtagMSG@@@Z:NEAR ; CHostWnd::PreTranslateMessage
EXTRN	?GetRuntimeClass@CDialog@@UBEPAUCRuntimeClass@@XZ:NEAR ; CDialog::GetRuntimeClass
EXTRN	?Create@CDialog@@UAEHPBDPAVCWnd@@@Z:NEAR	; CDialog::Create
EXTRN	?CreateIndirect@CDialog@@UAEHPBUDLGTEMPLATE@@PAVCWnd@@PAX@Z:NEAR ; CDialog::CreateIndirect
EXTRN	?CreateIndirect@CDialog@@UAEHPAXPAVCWnd@@@Z:NEAR ; CDialog::CreateIndirect
EXTRN	?OnToolHitTest@CWnd@@UBEHVCPoint@@PAUtagTOOLINFOA@@@Z:NEAR ; CWnd::OnToolHitTest
EXTRN	?DoModal@CDialog@@UAEHXZ:NEAR			; CDialog::DoModal
EXTRN	?OnSetFont@CDialog@@UAEXPAVCFont@@@Z:NEAR	; CDialog::OnSetFont
EXTRN	??_ECMainHostWnd@@UAEPAXI@Z:NEAR		; CMainHostWnd::`vector deleting destructor'
EXTRN	?OnCmdMsg@CDialog@@UAEHIHPAXPAUAFX_CMDHANDLERINFO@@@Z:NEAR ; CDialog::OnCmdMsg
EXTRN	?CheckAutoCenter@CDialog@@UAEHXZ:NEAR		; CDialog::CheckAutoCenter
EXTRN	?SetOccDialogInfo@CDialog@@MAEHPAU_AFX_OCC_DIALOG_INFO@@@Z:NEAR ; CDialog::SetOccDialogInfo
EXTRN	?PreInitDialog@CDialog@@MAEXXZ:NEAR		; CDialog::PreInitDialog
EXTRN	__except_list:DWORD
EXTRN	___CxxFrameHandler:NEAR
EXTRN	__imp_??0?$CStringT@DV?$StrTraitMFC_DLL@DV?$ChTraitsCRT@D@ATL@@@@@ATL@@QAE@PBD@Z:NEAR
EXTRN	?GetScrollBarCtrl@CWnd@@UBEPAVCScrollBar@@H@Z:NEAR ; CWnd::GetScrollBarCtrl
EXTRN	__imp_??1?$CStringT@DV?$StrTraitMFC_DLL@DV?$ChTraitsCRT@D@ATL@@@@@ATL@@QAE@XZ:NEAR
EXTRN	?WinHelpA@CWnd@@UAEXKI@Z:NEAR			; CWnd::WinHelpA
EXTRN	?HtmlHelpA@CWnd@@UAEXKI@Z:NEAR			; CWnd::HtmlHelpA
EXTRN	?WinHelpInternal@CWnd@@UAEXKI@Z:NEAR		; CWnd::WinHelpInternal
EXTRN	?ContinueModal@CWnd@@UAEHXZ:NEAR		; CWnd::ContinueModal
EXTRN	?EndModalLoop@CWnd@@UAEXH@Z:NEAR		; CWnd::EndModalLoop
EXTRN	?GetInterfaceMap@CWnd@@MBEPBUAFX_INTERFACEMAP@@XZ:NEAR ; CWnd::GetInterfaceMap
EXTRN	?EnsureStdObj@CWnd@@UAEJXZ:NEAR			; CWnd::EnsureStdObj
EXTRN	?get_accParent@CWnd@@UAEJPAPAUIDispatch@@@Z:NEAR ; CWnd::get_accParent
EXTRN	?get_accChildCount@CWnd@@UAEJPAJ@Z:NEAR		; CWnd::get_accChildCount
EXTRN	?get_accChild@CWnd@@UAEJUtagVARIANT@@PAPAUIDispatch@@@Z:NEAR ; CWnd::get_accChild
EXTRN	?IsInvokeAllowed@CCmdTarget@@UAEHJ@Z:NEAR	; CCmdTarget::IsInvokeAllowed
EXTRN	?get_accName@CWnd@@UAEJUtagVARIANT@@PAPA_W@Z:NEAR ; CWnd::get_accName
EXTRN	?get_accValue@CWnd@@UAEJUtagVARIANT@@PAPA_W@Z:NEAR ; CWnd::get_accValue
EXTRN	?get_accDescription@CWnd@@UAEJUtagVARIANT@@PAPA_W@Z:NEAR ; CWnd::get_accDescription
EXTRN	?GetDispatchIID@CCmdTarget@@UAEHPAU_GUID@@@Z:NEAR ; CCmdTarget::GetDispatchIID
EXTRN	?GetTypeInfoCount@CCmdTarget@@UAEIXZ:NEAR	; CCmdTarget::GetTypeInfoCount
EXTRN	?GetTypeLibCache@CCmdTarget@@UAEPAVCTypeLibCache@@XZ:NEAR ; CCmdTarget::GetTypeLibCache
EXTRN	?get_accRole@CWnd@@UAEJUtagVARIANT@@PAU2@@Z:NEAR ; CWnd::get_accRole
EXTRN	?GetTypeLib@CCmdTarget@@UAEJKPAPAUITypeLib@@@Z:NEAR ; CCmdTarget::GetTypeLib
EXTRN	?get_accState@CWnd@@UAEJUtagVARIANT@@PAU2@@Z:NEAR ; CWnd::get_accState
EXTRN	?get_accHelp@CWnd@@UAEJUtagVARIANT@@PAPA_W@Z:NEAR ; CWnd::get_accHelp
EXTRN	?get_accHelpTopic@CWnd@@UAEJPAPA_WUtagVARIANT@@PAJ@Z:NEAR ; CWnd::get_accHelpTopic
EXTRN	?get_accKeyboardShortcut@CWnd@@UAEJUtagVARIANT@@PAPA_W@Z:NEAR ; CWnd::get_accKeyboardShortcut
EXTRN	?get_accFocus@CWnd@@UAEJPAUtagVARIANT@@@Z:NEAR	; CWnd::get_accFocus
EXTRN	?get_accSelection@CWnd@@UAEJPAUtagVARIANT@@@Z:NEAR ; CWnd::get_accSelection
EXTRN	?get_accDefaultAction@CWnd@@UAEJUtagVARIANT@@PAPA_W@Z:NEAR ; CWnd::get_accDefaultAction
EXTRN	?GetCommandMap@CCmdTarget@@MBEPBUAFX_OLECMDMAP@@XZ:NEAR ; CCmdTarget::GetCommandMap
EXTRN	?accSelect@CWnd@@UAEJJUtagVARIANT@@@Z:NEAR	; CWnd::accSelect
EXTRN	?accLocation@CWnd@@UAEJPAJ000UtagVARIANT@@@Z:NEAR ; CWnd::accLocation
EXTRN	?GetDispatchMap@CCmdTarget@@MBEPBUAFX_DISPMAP@@XZ:NEAR ; CCmdTarget::GetDispatchMap
EXTRN	?accNavigate@CWnd@@UAEJJUtagVARIANT@@PAU2@@Z:NEAR ; CWnd::accNavigate
EXTRN	?accHitTest@CWnd@@UAEJJJPAUtagVARIANT@@@Z:NEAR	; CWnd::accHitTest
EXTRN	?GetConnectionMap@CCmdTarget@@MBEPBUAFX_CONNECTIONMAP@@XZ:NEAR ; CCmdTarget::GetConnectionMap
EXTRN	?accDoDefaultAction@CWnd@@UAEJUtagVARIANT@@@Z:NEAR ; CWnd::accDoDefaultAction
EXTRN	?put_accName@CWnd@@UAEJUtagVARIANT@@PA_W@Z:NEAR	; CWnd::put_accName
EXTRN	?put_accValue@CWnd@@UAEJUtagVARIANT@@PA_W@Z:NEAR ; CWnd::put_accValue
EXTRN	?SetProxy@CWnd@@UAEJPAUIAccessibleProxy@@@Z:NEAR ; CWnd::SetProxy
EXTRN	?CreateAccessibleProxy@CWnd@@UAEJIJPAJ@Z:NEAR	; CWnd::CreateAccessibleProxy
EXTRN	?GetEventSinkMap@CCmdTarget@@MBEPBUAFX_EVENTSINKMAP@@XZ:NEAR ; CCmdTarget::GetEventSinkMap
EXTRN	?OnCreateAggregates@CCmdTarget@@UAEHXZ:NEAR	; CCmdTarget::OnCreateAggregates
EXTRN	?OnCommand@CWnd@@MAEHIJ@Z:NEAR			; CWnd::OnCommand
EXTRN	?GetInterfaceHook@CCmdTarget@@UAEPAUIUnknown@@PBX@Z:NEAR ; CCmdTarget::GetInterfaceHook
EXTRN	?OnNotify@CWnd@@MAEHIJPAJ@Z:NEAR		; CWnd::OnNotify
EXTRN	?GetExtraConnectionPoints@CCmdTarget@@MAEHPAVCPtrArray@@@Z:NEAR ; CCmdTarget::GetExtraConnectionPoints
EXTRN	?GetConnectionHook@CCmdTarget@@MAEPAUIConnectionPoint@@ABU_GUID@@@Z:NEAR ; CCmdTarget::GetConnectionHook
EXTRN	?PreSubclassWindow@CWnd@@UAEXXZ:NEAR		; CWnd::PreSubclassWindow
EXTRN	?Create@CWnd@@UAEHPBD0KABUtagRECT@@PAV1@IPAUCCreateContext@@@Z:NEAR ; CWnd::Create
EXTRN	?CreateEx@CWnd@@UAEHKPBD0KHHHHPAUHWND__@@PAUHMENU__@@PAX@Z:NEAR ; CWnd::CreateEx
EXTRN	?CreateEx@CWnd@@UAEHKPBD0KABUtagRECT@@PAV1@IPAX@Z:NEAR ; CWnd::CreateEx
EXTRN	?DestroyWindow@CWnd@@UAEHXZ:NEAR		; CWnd::DestroyWindow
EXTRN	?PreCreateWindow@CWnd@@UAEHAAUtagCREATESTRUCTA@@@Z:NEAR ; CWnd::PreCreateWindow
EXTRN	?CalcWindowRect@CWnd@@UAEXPAUtagRECT@@I@Z:NEAR	; CWnd::CalcWindowRect
EXTRN	?GetSuperWndProcAddr@CWnd@@MAEPAP6GJPAUHWND__@@IIJ@ZXZ:NEAR ; CWnd::GetSuperWndProcAddr
EXTRN	??_7type_info@@6B@:QWORD			; type_info::`vftable'
EXTRN	?OnAmbientProperty@CWnd@@UAEHPAVCOleControlSite@@JPAUtagVARIANT@@@Z:NEAR ; CWnd::OnAmbientProperty
EXTRN	?WindowProc@CWnd@@MAEJIIJ@Z:NEAR		; CWnd::WindowProc
EXTRN	?OnWndMsg@CWnd@@MAEHIIJPAJ@Z:NEAR		; CWnd::OnWndMsg
EXTRN	?DefWindowProcA@CWnd@@MAEJIIJ@Z:NEAR		; CWnd::DefWindowProcA
EXTRN	?PostNcDestroy@CWnd@@MAEXXZ:NEAR		; CWnd::PostNcDestroy
EXTRN	?OnChildNotify@CWnd@@MAEHIIJPAJ@Z:NEAR		; CWnd::OnChildNotify
EXTRN	?AfxGetUIManager@@YAPAVIUIManager@@XZ:NEAR	; AfxGetUIManager
EXTRN	?IsFrameWnd@CWnd@@UBEHXZ:NEAR			; CWnd::IsFrameWnd
EXTRN	?OnFinalRelease@CWnd@@UAEXXZ:NEAR		; CWnd::OnFinalRelease
xdata$x	SEGMENT
$T200880 DD	0ffffffffH
	DD	FLAT:$L200870
	DD	00H
	DD	FLAT:$L200871
	DD	00H
	DD	FLAT:$L200872
$T200877 DD	019930520H
	DD	03H
	DD	FLAT:$T200880
	DD	2 DUP(00H)
	DD	2 DUP(00H)
xdata$x	ENDS
;	COMDAT ??_7CMainHostWnd@@6B@
; File d:\boxgit\playbox\playbox\dev\prj\playbox\src\layoutmgr\seperatemode\mainhostwnd.cpp
CONST	SEGMENT
??_7CMainHostWnd@@6B@ DD FLAT:??_R4CMainHostWnd@@6B@	; CMainHostWnd::`vftable'
	DD	FLAT:?GetRuntimeClass@CDialog@@UBEPAUCRuntimeClass@@XZ
	DD	FLAT:??_ECMainHostWnd@@UAEPAXI@Z
	DD	FLAT:?Serialize@CObject@@UAEXAAVCArchive@@@Z
	DD	FLAT:?AssertValid@CObject@@UBEXXZ
	DD	FLAT:?Dump@CObject@@UBEXAAVCDumpContext@@@Z
	DD	FLAT:?OnCmdMsg@CDialog@@UAEHIHPAXPAUAFX_CMDHANDLERINFO@@@Z
	DD	FLAT:?OnFinalRelease@CWnd@@UAEXXZ
	DD	FLAT:?IsInvokeAllowed@CCmdTarget@@UAEHJ@Z
	DD	FLAT:?GetDispatchIID@CCmdTarget@@UAEHPAU_GUID@@@Z
	DD	FLAT:?GetTypeInfoCount@CCmdTarget@@UAEIXZ
	DD	FLAT:?GetTypeLibCache@CCmdTarget@@UAEPAVCTypeLibCache@@XZ
	DD	FLAT:?GetTypeLib@CCmdTarget@@UAEJKPAPAUITypeLib@@@Z
	DD	FLAT:?GetMessageMap@CMainHostWnd@@MBEPBUAFX_MSGMAP@@XZ
	DD	FLAT:?GetCommandMap@CCmdTarget@@MBEPBUAFX_OLECMDMAP@@XZ
	DD	FLAT:?GetDispatchMap@CCmdTarget@@MBEPBUAFX_DISPMAP@@XZ
	DD	FLAT:?GetConnectionMap@CCmdTarget@@MBEPBUAFX_CONNECTIONMAP@@XZ
	DD	FLAT:?GetInterfaceMap@CWnd@@MBEPBUAFX_INTERFACEMAP@@XZ
	DD	FLAT:?GetEventSinkMap@CCmdTarget@@MBEPBUAFX_EVENTSINKMAP@@XZ
	DD	FLAT:?OnCreateAggregates@CCmdTarget@@UAEHXZ
	DD	FLAT:?GetInterfaceHook@CCmdTarget@@UAEPAUIUnknown@@PBX@Z
	DD	FLAT:?GetExtraConnectionPoints@CCmdTarget@@MAEHPAVCPtrArray@@@Z
	DD	FLAT:?GetConnectionHook@CCmdTarget@@MAEPAUIConnectionPoint@@ABU_GUID@@@Z
	DD	FLAT:?PreSubclassWindow@CWnd@@UAEXXZ
	DD	FLAT:?Create@CWnd@@UAEHPBD0KABUtagRECT@@PAV1@IPAUCCreateContext@@@Z
	DD	FLAT:?CreateEx@CWnd@@UAEHKPBD0KABUtagRECT@@PAV1@IPAX@Z
	DD	FLAT:?CreateEx@CWnd@@UAEHKPBD0KHHHHPAUHWND__@@PAUHMENU__@@PAX@Z
	DD	FLAT:?DestroyWindow@CWnd@@UAEHXZ
	DD	FLAT:?PreCreateWindow@CWnd@@UAEHAAUtagCREATESTRUCTA@@@Z
	DD	FLAT:?CalcWindowRect@CWnd@@UAEXPAUtagRECT@@I@Z
	DD	FLAT:?OnToolHitTest@CWnd@@UBEHVCPoint@@PAUtagTOOLINFOA@@@Z
	DD	FLAT:?GetScrollBarCtrl@CWnd@@UBEPAVCScrollBar@@H@Z
	DD	FLAT:?WinHelpA@CWnd@@UAEXKI@Z
	DD	FLAT:?HtmlHelpA@CWnd@@UAEXKI@Z
	DD	FLAT:?WinHelpInternal@CWnd@@UAEXKI@Z
	DD	FLAT:?ContinueModal@CWnd@@UAEHXZ
	DD	FLAT:?EndModalLoop@CWnd@@UAEXH@Z
	DD	FLAT:?EnsureStdObj@CWnd@@UAEJXZ
	DD	FLAT:?get_accParent@CWnd@@UAEJPAPAUIDispatch@@@Z
	DD	FLAT:?get_accChildCount@CWnd@@UAEJPAJ@Z
	DD	FLAT:?get_accChild@CWnd@@UAEJUtagVARIANT@@PAPAUIDispatch@@@Z
	DD	FLAT:?get_accName@CWnd@@UAEJUtagVARIANT@@PAPA_W@Z
	DD	FLAT:?get_accValue@CWnd@@UAEJUtagVARIANT@@PAPA_W@Z
	DD	FLAT:?get_accDescription@CWnd@@UAEJUtagVARIANT@@PAPA_W@Z
	DD	FLAT:?get_accRole@CWnd@@UAEJUtagVARIANT@@PAU2@@Z
	DD	FLAT:?get_accState@CWnd@@UAEJUtagVARIANT@@PAU2@@Z
	DD	FLAT:?get_accHelp@CWnd@@UAEJUtagVARIANT@@PAPA_W@Z
	DD	FLAT:?get_accHelpTopic@CWnd@@UAEJPAPA_WUtagVARIANT@@PAJ@Z
	DD	FLAT:?get_accKeyboardShortcut@CWnd@@UAEJUtagVARIANT@@PAPA_W@Z
	DD	FLAT:?get_accFocus@CWnd@@UAEJPAUtagVARIANT@@@Z
	DD	FLAT:?get_accSelection@CWnd@@UAEJPAUtagVARIANT@@@Z
	DD	FLAT:?get_accDefaultAction@CWnd@@UAEJUtagVARIANT@@PAPA_W@Z
	DD	FLAT:?accSelect@CWnd@@UAEJJUtagVARIANT@@@Z
	DD	FLAT:?accLocation@CWnd@@UAEJPAJ000UtagVARIANT@@@Z
	DD	FLAT:?accNavigate@CWnd@@UAEJJUtagVARIANT@@PAU2@@Z
	DD	FLAT:?accHitTest@CWnd@@UAEJJJPAUtagVARIANT@@@Z
	DD	FLAT:?accDoDefaultAction@CWnd@@UAEJUtagVARIANT@@@Z
	DD	FLAT:?put_accName@CWnd@@UAEJUtagVARIANT@@PA_W@Z
	DD	FLAT:?put_accValue@CWnd@@UAEJUtagVARIANT@@PA_W@Z
	DD	FLAT:?SetProxy@CWnd@@UAEJPAUIAccessibleProxy@@@Z
	DD	FLAT:?CreateAccessibleProxy@CWnd@@UAEJIJPAJ@Z
	DD	FLAT:?OnCommand@CWnd@@MAEHIJ@Z
	DD	FLAT:?OnNotify@CWnd@@MAEHIJPAJ@Z
	DD	FLAT:?GetSuperWndProcAddr@CWnd@@MAEPAP6GJPAUHWND__@@IIJ@ZXZ
	DD	FLAT:?DoDataExchange@CWnd@@MAEXPAVCDataExchange@@@Z
	DD	FLAT:?BeginModalState@CWnd@@UAEXXZ
	DD	FLAT:?EndModalState@CWnd@@UAEXXZ
	DD	FLAT:?PreTranslateMessage@CHostWnd@@UAEHPAUtagMSG@@@Z
	DD	FLAT:?OnAmbientProperty@CWnd@@UAEHPAVCOleControlSite@@JPAUtagVARIANT@@@Z
	DD	FLAT:?WindowProc@CWnd@@MAEJIIJ@Z
	DD	FLAT:?OnWndMsg@CWnd@@MAEHIIJPAJ@Z
	DD	FLAT:?DefWindowProcA@CWnd@@MAEJIIJ@Z
	DD	FLAT:?PostNcDestroy@CWnd@@MAEXXZ
	DD	FLAT:?OnChildNotify@CWnd@@MAEHIIJPAJ@Z
	DD	FLAT:?CheckAutoCenter@CDialog@@UAEHXZ
	DD	FLAT:?IsFrameWnd@CWnd@@UBEHXZ
	DD	FLAT:?CreateControlContainer@CWnd@@MAEHPAPAVCOleControlContainer@@@Z
	DD	FLAT:?CreateControlSite@CWnd@@MAEHPAVCOleControlContainer@@PAPAVCOleControlSite@@IABU_GUID@@@Z
	DD	FLAT:?SetOccDialogInfo@CDialog@@MAEHPAU_AFX_OCC_DIALOG_INFO@@@Z
	DD	FLAT:?Create@CDialog@@UAEHIPAVCWnd@@@Z
	DD	FLAT:?Create@CDialog@@UAEHPBDPAVCWnd@@@Z
	DD	FLAT:?CreateIndirect@CDialog@@UAEHPAXPAVCWnd@@@Z
	DD	FLAT:?CreateIndirect@CDialog@@UAEHPBUDLGTEMPLATE@@PAVCWnd@@PAX@Z
	DD	FLAT:?DoModal@CDialog@@UAEHXZ
	DD	FLAT:?OnInitDialog@CMainHostWnd@@MAEHXZ
	DD	FLAT:?OnSetFont@CDialog@@UAEXPAVCFont@@@Z
	DD	FLAT:?OnOK@CHostWnd@@MAEXXZ
	DD	FLAT:?OnCancel@CHostWnd@@MAEXXZ
	DD	FLAT:?PreInitDialog@CDialog@@MAEXXZ
	DD	FLAT:?_needChangeCursor@CMainHostWnd@@UAE_NABVCPoint@@@Z
CONST	ENDS
;	COMDAT ??_R4CMainHostWnd@@6B@
rdata$r	SEGMENT
??_R4CMainHostWnd@@6B@ DD 00H				; CMainHostWnd::`RTTI Complete Object Locator'
	DD	00H
	DD	00H
	DD	FLAT:??_R0?AVCMainHostWnd@@@8
	DD	FLAT:??_R3CMainHostWnd@@8
rdata$r	ENDS
;	COMDAT ??_R0?AVCMainHostWnd@@@8
_DATA	SEGMENT
??_R0?AVCMainHostWnd@@@8 DD FLAT:??_7type_info@@6B@	; CMainHostWnd `RTTI Type Descriptor'
	DD	00H
	DB	'.?AVCMainHostWnd@@', 00H
_DATA	ENDS
;	COMDAT ??_R3CMainHostWnd@@8
rdata$r	SEGMENT
??_R3CMainHostWnd@@8 DD 00H				; CMainHostWnd::`RTTI Class Hierarchy Descriptor'
	DD	00H
	DD	06H
	DD	FLAT:??_R2CMainHostWnd@@8
rdata$r	ENDS
;	COMDAT ??_R2CMainHostWnd@@8
rdata$r	SEGMENT
??_R2CMainHostWnd@@8 DD FLAT:??_R1A@?0A@A@CMainHostWnd@@8 ; CMainHostWnd::`RTTI Base Class Array'
	DD	FLAT:??_R1A@?0A@A@CHostWnd@@8
	DD	FLAT:??_R1A@?0A@A@CDialog@@8
	DD	FLAT:??_R1A@?0A@A@CWnd@@8
	DD	FLAT:??_R1A@?0A@A@CCmdTarget@@8
	DD	FLAT:??_R1A@?0A@A@CObject@@8
rdata$r	ENDS
;	COMDAT ??_R1A@?0A@A@CMainHostWnd@@8
rdata$r	SEGMENT
??_R1A@?0A@A@CMainHostWnd@@8 DD FLAT:??_R0?AVCMainHostWnd@@@8 ; CMainHostWnd::`RTTI Base Class Descriptor at (0,-1,0,0)'
	DD	05H
	DD	00H
	DD	0ffffffffH
	DD	00H
	DD	00H
rdata$r	ENDS
;	COMDAT ??_R1A@?0A@A@CHostWnd@@8
rdata$r	SEGMENT
??_R1A@?0A@A@CHostWnd@@8 DD FLAT:??_R0?AVCHostWnd@@@8	; CHostWnd::`RTTI Base Class Descriptor at (0,-1,0,0)'
	DD	04H
	DD	00H
	DD	0ffffffffH
	DD	00H
	DD	00H
rdata$r	ENDS
;	COMDAT ??_R0?AVCHostWnd@@@8
_DATA	SEGMENT
??_R0?AVCHostWnd@@@8 DD FLAT:??_7type_info@@6B@		; CHostWnd `RTTI Type Descriptor'
	DD	00H
	DB	'.?AVCHostWnd@@', 00H
_DATA	ENDS
;	COMDAT ??_R1A@?0A@A@CDialog@@8
rdata$r	SEGMENT
??_R1A@?0A@A@CDialog@@8 DD FLAT:??_R0?AVCDialog@@@8	; CDialog::`RTTI Base Class Descriptor at (0,-1,0,0)'
	DD	03H
	DD	00H
	DD	0ffffffffH
	DD	00H
	DD	00H
rdata$r	ENDS
;	COMDAT ??_R0?AVCDialog@@@8
_DATA	SEGMENT
??_R0?AVCDialog@@@8 DD FLAT:??_7type_info@@6B@		; CDialog `RTTI Type Descriptor'
	DD	00H
	DB	'.?AVCDialog@@', 00H
_DATA	ENDS
;	COMDAT ??_R1A@?0A@A@CWnd@@8
rdata$r	SEGMENT
??_R1A@?0A@A@CWnd@@8 DD FLAT:??_R0?AVCWnd@@@8		; CWnd::`RTTI Base Class Descriptor at (0,-1,0,0)'
	DD	02H
	DD	00H
	DD	0ffffffffH
	DD	00H
	DD	00H
rdata$r	ENDS
;	COMDAT ??_R0?AVCWnd@@@8
_DATA	SEGMENT
??_R0?AVCWnd@@@8 DD FLAT:??_7type_info@@6B@		; CWnd `RTTI Type Descriptor'
	DD	00H
	DB	'.?AVCWnd@@', 00H
_DATA	ENDS
;	COMDAT ??_R1A@?0A@A@CCmdTarget@@8
rdata$r	SEGMENT
??_R1A@?0A@A@CCmdTarget@@8 DD FLAT:??_R0?AVCCmdTarget@@@8 ; CCmdTarget::`RTTI Base Class Descriptor at (0,-1,0,0)'
	DD	01H
	DD	00H
	DD	0ffffffffH
	DD	00H
	DD	00H
rdata$r	ENDS
;	COMDAT ??_R0?AVCCmdTarget@@@8
_DATA	SEGMENT
??_R0?AVCCmdTarget@@@8 DD FLAT:??_7type_info@@6B@	; CCmdTarget `RTTI Type Descriptor'
	DD	00H
	DB	'.?AVCCmdTarget@@', 00H
_DATA	ENDS
;	COMDAT ??_R1A@?0A@A@CObject@@8
rdata$r	SEGMENT
??_R1A@?0A@A@CObject@@8 DD FLAT:??_R0?AVCObject@@@8	; CObject::`RTTI Base Class Descriptor at (0,-1,0,0)'
	DD	00H
	DD	00H
	DD	0ffffffffH
	DD	00H
	DD	00H
rdata$r	ENDS
;	COMDAT ??_R0?AVCObject@@@8
_DATA	SEGMENT
??_R0?AVCObject@@@8 DD FLAT:??_7type_info@@6B@		; CObject `RTTI Type Descriptor'
	DD	00H
	DB	'.?AVCObject@@', 00H
; Function compile flags: /Odt
_DATA	ENDS
_TEXT	SEGMENT
tv160 = -80						; size = 4
tv155 = -76						; size = 4
tv185 = -72						; size = 4
tv135 = -68						; size = 4
tv130 = -64						; size = 4
tv184 = -60						; size = 4
tv163 = -56						; size = 4
tv182 = -52						; size = 4
tv77 = -48						; size = 4
tv72 = -44						; size = 4
tv181 = -40						; size = 4
tv65 = -36						; size = 4
_this$ = -32						; size = 4
$T200869 = -28						; size = 4
$T200868 = -24						; size = 4
_strControlMode$ = -20					; size = 4
_mode$ = -16						; size = 4
__$EHRec$ = -12						; size = 12
_pParent$ = 8						; size = 4
??0CMainHostWnd@@QAE@PAVCWnd@@@Z PROC NEAR		; CMainHostWnd::CMainHostWnd
; _this$ = ecx

; 16   : {

  00000	55		 push	 ebp
  00001	8b ec		 mov	 ebp, esp
  00003	6a ff		 push	 -1
  00005	68 00 00 00 00	 push	 __ehhandler$??0CMainHostWnd@@QAE@PAVCWnd@@@Z
  0000a	64 a1 00 00 00
	00		 mov	 eax, DWORD PTR fs:__except_list
  00010	50		 push	 eax
  00011	64 89 25 00 00
	00 00		 mov	 DWORD PTR fs:__except_list, esp
  00018	83 ec 44	 sub	 esp, 68			; 00000044H
  0001b	89 4d e0	 mov	 DWORD PTR _this$[ebp], ecx
  0001e	8b 45 08	 mov	 eax, DWORD PTR _pParent$[ebp]
  00021	50		 push	 eax
  00022	8b 4d e0	 mov	 ecx, DWORD PTR _this$[ebp]
  00025	e8 00 00 00 00	 call	 ??0CHostWnd@@QAE@PAVCWnd@@@Z ; CHostWnd::CHostWnd
  0002a	c7 45 fc 00 00
	00 00		 mov	 DWORD PTR __$EHRec$[ebp+8], 0
  00031	8b 4d e0	 mov	 ecx, DWORD PTR _this$[ebp]
  00034	c7 01 00 00 00
	00		 mov	 DWORD PTR [ecx], OFFSET FLAT:??_7CMainHostWnd@@6B@

; 17   : 	m_nControlWndHeight = 0;

  0003a	8b 55 e0	 mov	 edx, DWORD PTR _this$[ebp]
  0003d	c7 82 38 02 00
	00 00 00 00 00	 mov	 DWORD PTR [edx+568], 0

; 18   : 	m_pControlWnd = ::AfxGetUIManager()->UIGetLayoutMgr()->GetWnd("ControlPanel");

  00047	51		 push	 ecx
  00048	8b cc		 mov	 ecx, esp
  0004a	89 65 e8	 mov	 DWORD PTR $T200868[ebp], esp
  0004d	68 00 00 00 00	 push	 OFFSET FLAT:$SG199559
  00052	ff 15 00 00 00
	00		 call	 DWORD PTR __imp_??0?$CStringT@DV?$StrTraitMFC_DLL@DV?$ChTraitsCRT@D@ATL@@@@@ATL@@QAE@PBD@Z
  00058	89 45 dc	 mov	 DWORD PTR tv65[ebp], eax
  0005b	8b 45 dc	 mov	 eax, DWORD PTR tv65[ebp]
  0005e	89 45 d8	 mov	 DWORD PTR tv181[ebp], eax
  00061	c6 45 fc 01	 mov	 BYTE PTR __$EHRec$[ebp+8], 1
  00065	e8 00 00 00 00	 call	 ?AfxGetUIManager@@YAPAVIUIManager@@XZ ; AfxGetUIManager
  0006a	89 45 d4	 mov	 DWORD PTR tv72[ebp], eax
  0006d	8b 4d d4	 mov	 ecx, DWORD PTR tv72[ebp]
  00070	8b 11		 mov	 edx, DWORD PTR [ecx]
  00072	8b 4d d4	 mov	 ecx, DWORD PTR tv72[ebp]
  00075	ff 52 24	 call	 DWORD PTR [edx+36]
  00078	89 45 d0	 mov	 DWORD PTR tv77[ebp], eax
  0007b	8b 45 d0	 mov	 eax, DWORD PTR tv77[ebp]
  0007e	8b 10		 mov	 edx, DWORD PTR [eax]
  00080	c6 45 fc 00	 mov	 BYTE PTR __$EHRec$[ebp+8], 0
  00084	8b 4d d0	 mov	 ecx, DWORD PTR tv77[ebp]
  00087	ff 52 2c	 call	 DWORD PTR [edx+44]
  0008a	89 45 cc	 mov	 DWORD PTR tv182[ebp], eax
  0008d	8b 45 e0	 mov	 eax, DWORD PTR _this$[ebp]
  00090	8b 4d cc	 mov	 ecx, DWORD PTR tv182[ebp]
  00093	89 88 48 02 00
	00		 mov	 DWORD PTR [eax+584], ecx

; 19   : 	m_pPlistWnd = ::AfxGetUIManager()->UIGetLayoutMgr()->GetWnd("SepPlayList");

  00099	51		 push	 ecx
  0009a	8b cc		 mov	 ecx, esp
  0009c	89 65 e4	 mov	 DWORD PTR $T200869[ebp], esp
  0009f	68 00 00 00 00	 push	 OFFSET FLAT:$SG199561
  000a4	ff 15 00 00 00
	00		 call	 DWORD PTR __imp_??0?$CStringT@DV?$StrTraitMFC_DLL@DV?$ChTraitsCRT@D@ATL@@@@@ATL@@QAE@PBD@Z
  000aa	89 45 c8	 mov	 DWORD PTR tv163[ebp], eax
  000ad	8b 55 c8	 mov	 edx, DWORD PTR tv163[ebp]
  000b0	89 55 c4	 mov	 DWORD PTR tv184[ebp], edx
  000b3	c6 45 fc 02	 mov	 BYTE PTR __$EHRec$[ebp+8], 2
  000b7	e8 00 00 00 00	 call	 ?AfxGetUIManager@@YAPAVIUIManager@@XZ ; AfxGetUIManager
  000bc	89 45 c0	 mov	 DWORD PTR tv130[ebp], eax
  000bf	8b 45 c0	 mov	 eax, DWORD PTR tv130[ebp]
  000c2	8b 10		 mov	 edx, DWORD PTR [eax]
  000c4	8b 4d c0	 mov	 ecx, DWORD PTR tv130[ebp]
  000c7	ff 52 24	 call	 DWORD PTR [edx+36]
  000ca	89 45 bc	 mov	 DWORD PTR tv135[ebp], eax
  000cd	8b 45 bc	 mov	 eax, DWORD PTR tv135[ebp]
  000d0	8b 10		 mov	 edx, DWORD PTR [eax]
  000d2	c6 45 fc 00	 mov	 BYTE PTR __$EHRec$[ebp+8], 0
  000d6	8b 4d bc	 mov	 ecx, DWORD PTR tv135[ebp]
  000d9	ff 52 2c	 call	 DWORD PTR [edx+44]
  000dc	89 45 b8	 mov	 DWORD PTR tv185[ebp], eax
  000df	8b 45 e0	 mov	 eax, DWORD PTR _this$[ebp]
  000e2	8b 4d b8	 mov	 ecx, DWORD PTR tv185[ebp]
  000e5	89 88 4c 02 00
	00		 mov	 DWORD PTR [eax+588], ecx

; 20   : 	
; 21   : 	CString strControlMode = ::AfxGetUIManager()->UIGetLayoutMgr()->GetWndPanelMode(m_pControlWnd);

  000eb	e8 00 00 00 00	 call	 ?AfxGetUIManager@@YAPAVIUIManager@@XZ ; AfxGetUIManager
  000f0	89 45 b4	 mov	 DWORD PTR tv155[ebp], eax
  000f3	8b 55 b4	 mov	 edx, DWORD PTR tv155[ebp]
  000f6	8b 02		 mov	 eax, DWORD PTR [edx]
  000f8	8b 4d b4	 mov	 ecx, DWORD PTR tv155[ebp]
  000fb	ff 50 24	 call	 DWORD PTR [eax+36]
  000fe	89 45 b0	 mov	 DWORD PTR tv160[ebp], eax
  00101	8b 4d e0	 mov	 ecx, DWORD PTR _this$[ebp]
  00104	8b 91 48 02 00
	00		 mov	 edx, DWORD PTR [ecx+584]
  0010a	52		 push	 edx
  0010b	8d 45 ec	 lea	 eax, DWORD PTR _strControlMode$[ebp]
  0010e	50		 push	 eax
  0010f	8b 4d b0	 mov	 ecx, DWORD PTR tv160[ebp]
  00112	8b 11		 mov	 edx, DWORD PTR [ecx]
  00114	8b 4d b0	 mov	 ecx, DWORD PTR tv160[ebp]
  00117	ff 92 80 00 00
	00		 call	 DWORD PTR [edx+128]

; 22   : 	int mode = 1;

  0011d	c7 45 f0 01 00
	00 00		 mov	 DWORD PTR _mode$[ebp], 1

; 23   : 	//chaohua edit
; 24   : 	//AfxGetUserConfig()->GetConfigIntValue( CONF_APP_MODULE_NAME,CONF_APP_SEPMODE_START_MODE,mode );
; 25   : 	
; 26   : 	if(mode & SHOWLIST)

  00124	8b 45 f0	 mov	 eax, DWORD PTR _mode$[ebp]
  00127	83 e0 01	 and	 eax, 1
  0012a	74 0c		 je	 SHORT $L199565

; 27   : 		m_bShowPlaylist = true;

  0012c	8b 4d e0	 mov	 ecx, DWORD PTR _this$[ebp]
  0012f	c6 81 35 02 00
	00 01		 mov	 BYTE PTR [ecx+565], 1

; 28   : 	else

  00136	eb 0a		 jmp	 SHORT $L199566
$L199565:

; 29   : 		m_bShowPlaylist = false;

  00138	8b 55 e0	 mov	 edx, DWORD PTR _this$[ebp]
  0013b	c6 82 35 02 00
	00 00		 mov	 BYTE PTR [edx+565], 0
$L199566:

; 30   : 
; 31   : 	if(strControlMode == "normal")

  00142	68 00 00 00 00	 push	 OFFSET FLAT:$SG199568
  00147	8d 45 ec	 lea	 eax, DWORD PTR _strControlMode$[ebp]
  0014a	50		 push	 eax
  0014b	e8 00 00 00 00	 call	 ??8ATL@@YA_NABV?$CStringT@DV?$StrTraitMFC_DLL@DV?$ChTraitsCRT@D@ATL@@@@@0@PBD@Z ; ATL::operator==
  00150	83 c4 08	 add	 esp, 8
  00153	0f b6 c8	 movzx	 ecx, al
  00156	85 c9		 test	 ecx, ecx
  00158	74 0c		 je	 SHORT $L199567

; 32   : 		m_bShowMV = false;

  0015a	8b 55 e0	 mov	 edx, DWORD PTR _this$[ebp]
  0015d	c6 82 34 02 00
	00 00		 mov	 BYTE PTR [edx+564], 0

; 33   : 	else

  00164	eb 0a		 jmp	 SHORT $L199569
$L199567:

; 34   : 		m_bShowMV = true;

  00166	8b 45 e0	 mov	 eax, DWORD PTR _this$[ebp]
  00169	c6 80 34 02 00
	00 01		 mov	 BYTE PTR [eax+564], 1
$L199569:

; 35   : 
; 36   : }

  00170	8d 4d ec	 lea	 ecx, DWORD PTR _strControlMode$[ebp]
  00173	ff 15 00 00 00
	00		 call	 DWORD PTR __imp_??1?$CStringT@DV?$StrTraitMFC_DLL@DV?$ChTraitsCRT@D@ATL@@@@@ATL@@QAE@XZ
  00179	c7 45 fc ff ff
	ff ff		 mov	 DWORD PTR __$EHRec$[ebp+8], -1
  00180	8b 45 e0	 mov	 eax, DWORD PTR _this$[ebp]
  00183	8b 4d f4	 mov	 ecx, DWORD PTR __$EHRec$[ebp]
  00186	64 89 0d 00 00
	00 00		 mov	 DWORD PTR fs:__except_list, ecx
  0018d	8b e5		 mov	 esp, ebp
  0018f	5d		 pop	 ebp
  00190	c2 04 00	 ret	 4
_TEXT	ENDS
text$x	SEGMENT
$L200870:
  00000	8b 4d e0	 mov	 ecx, DWORD PTR _this$[ebp]
  00003	e9 00 00 00 00	 jmp	 ??1CHostWnd@@UAE@XZ	; CHostWnd::~CHostWnd
$L200871:
  00008	8b 4d e8	 mov	 ecx, DWORD PTR $T200868[ebp]
  0000b	ff 25 00 00 00
	00		 jmp	 DWORD PTR __imp_??1?$CStringT@DV?$StrTraitMFC_DLL@DV?$ChTraitsCRT@D@ATL@@@@@ATL@@QAE@XZ
$L200872:
  00011	8b 4d e4	 mov	 ecx, DWORD PTR $T200869[ebp]
  00014	ff 25 00 00 00
	00		 jmp	 DWORD PTR __imp_??1?$CStringT@DV?$StrTraitMFC_DLL@DV?$ChTraitsCRT@D@ATL@@@@@ATL@@QAE@XZ
__ehhandler$??0CMainHostWnd@@QAE@PAVCWnd@@@Z:
  0001a	b8 00 00 00 00	 mov	 eax, OFFSET FLAT:$T200877
  0001f	e9 00 00 00 00	 jmp	 ___CxxFrameHandler
text$x	ENDS
??0CMainHostWnd@@QAE@PAVCWnd@@@Z ENDP			; CMainHostWnd::CMainHostWnd
PUBLIC	??1CMainHostWnd@@UAE@XZ				; CMainHostWnd::~CMainHostWnd
PUBLIC	??3CObject@@SGXPAX@Z				; CObject::operator delete
; Function compile flags: /Odt
;	COMDAT ??_GCMainHostWnd@@UAEPAXI@Z
_TEXT	SEGMENT
_this$ = -4						; size = 4
___flags$ = 8						; size = 4
??_GCMainHostWnd@@UAEPAXI@Z PROC NEAR			; CMainHostWnd::`scalar deleting destructor', COMDAT
; _this$ = ecx
  00000	55		 push	 ebp
  00001	8b ec		 mov	 ebp, esp
  00003	51		 push	 ecx
  00004	89 4d fc	 mov	 DWORD PTR _this$[ebp], ecx
  00007	8b 4d fc	 mov	 ecx, DWORD PTR _this$[ebp]
  0000a	e8 00 00 00 00	 call	 ??1CMainHostWnd@@UAE@XZ	; CMainHostWnd::~CMainHostWnd
  0000f	8b 45 08	 mov	 eax, DWORD PTR ___flags$[ebp]
  00012	83 e0 01	 and	 eax, 1
  00015	74 09		 je	 SHORT $L199573
  00017	8b 4d fc	 mov	 ecx, DWORD PTR _this$[ebp]
  0001a	51		 push	 ecx
  0001b	e8 00 00 00 00	 call	 ??3CObject@@SGXPAX@Z	; CObject::operator delete
$L199573:
  00020	8b 45 fc	 mov	 eax, DWORD PTR _this$[ebp]
  00023	8b e5		 mov	 esp, ebp
  00025	5d		 pop	 ebp
  00026	c2 04 00	 ret	 4
??_GCMainHostWnd@@UAEPAXI@Z ENDP			; CMainHostWnd::`scalar deleting destructor'
_TEXT	ENDS
EXTRN	__imp__SetParent@8:NEAR
; Function compile flags: /Odt
_TEXT	SEGMENT
_this$ = -4						; size = 4
??1CMainHostWnd@@UAE@XZ PROC NEAR			; CMainHostWnd::~CMainHostWnd
; _this$ = ecx

; 39   : {

  001a0	55		 push	 ebp
  001a1	8b ec		 mov	 ebp, esp
  001a3	51		 push	 ecx
  001a4	89 4d fc	 mov	 DWORD PTR _this$[ebp], ecx
  001a7	8b 45 fc	 mov	 eax, DWORD PTR _this$[ebp]
  001aa	c7 00 00 00 00
	00		 mov	 DWORD PTR [eax], OFFSET FLAT:??_7CMainHostWnd@@6B@

; 40   : 	//CWnd* pWnd = CHostWndMgr::GetInstance()->GetHostWnd("sepSongLibrary");
; 41   : 	//CRect rc = this->GetWindowRect(&rc);
; 42   : 
; 43   : 	//if(CWindowsMover::GetInstance()->IsTwoWindowsAttached(pWnd, this))
; 44   : 	//	m_bSepWndsAttached = true;
; 45   : 	//else
; 46   : 	//	m_bSepWndsAttached = false;
; 47   : 
; 48   : 	//m_nSepMainWndPos = rc.left + (rc.top << 16);
; 49   : 	//AfxGetUserConfig()->SetConfigBoolValue( CONF_APP_MODULE_NAME,CONF_APP_SEPWINDOWS_ATTACHED,m_bSepWndsAttached , true);
; 50   : 	//AfxGetUserConfig()->SetConfigIntValue( CONF_APP_MODULE_NAME,CONF_APP_SEPWINDOW_DELTAPOS,m_nSepMainWndPos, true );
; 51   : 
; 52   : 	if(m_pWnd != NULL)

  001b0	8b 4d fc	 mov	 ecx, DWORD PTR _this$[ebp]
  001b3	83 b9 88 00 00
	00 00		 cmp	 DWORD PTR [ecx+136], 0
  001ba	74 1d		 je	 SHORT $L199576

; 53   : 		::SetParent(m_pWnd->m_hWnd,m_hParentWnd);

  001bc	8b 55 fc	 mov	 edx, DWORD PTR _this$[ebp]
  001bf	8b 82 84 00 00
	00		 mov	 eax, DWORD PTR [edx+132]
  001c5	50		 push	 eax
  001c6	8b 4d fc	 mov	 ecx, DWORD PTR _this$[ebp]
  001c9	8b 91 88 00 00
	00		 mov	 edx, DWORD PTR [ecx+136]
  001cf	8b 42 20	 mov	 eax, DWORD PTR [edx+32]
  001d2	50		 push	 eax
  001d3	ff 15 00 00 00
	00		 call	 DWORD PTR __imp__SetParent@8
$L199576:

; 54   : }

  001d9	8b 4d fc	 mov	 ecx, DWORD PTR _this$[ebp]
  001dc	e8 00 00 00 00	 call	 ??1CHostWnd@@UAE@XZ	; CHostWnd::~CHostWnd
  001e1	8b e5		 mov	 esp, ebp
  001e3	5d		 pop	 ebp
  001e4	c3		 ret	 0
??1CMainHostWnd@@UAE@XZ ENDP				; CMainHostWnd::~CMainHostWnd
_TEXT	ENDS
PUBLIC	?GetThisMessageMap@CMainHostWnd@@KGPBUAFX_MSGMAP@@XZ ; CMainHostWnd::GetThisMessageMap
; Function compile flags: /Odt
_TEXT	SEGMENT
?GetThisMessageMap@CMainHostWnd@@KGPBUAFX_MSGMAP@@XZ PROC NEAR ; CMainHostWnd::GetThisMessageMap

; 57   : BEGIN_MESSAGE_MAP(CMainHostWnd, CHostWnd)

  001f0	55		 push	 ebp
  001f1	8b ec		 mov	 ebp, esp
  001f3	b8 00 00 00 00	 mov	 eax, OFFSET FLAT:?messageMap@CMainHostWnd@@1UAFX_MSGMAP@@B ; CMainHostWnd::messageMap
  001f8	5d		 pop	 ebp
  001f9	c3		 ret	 0
?GetThisMessageMap@CMainHostWnd@@KGPBUAFX_MSGMAP@@XZ ENDP ; CMainHostWnd::GetThisMessageMap
; Function compile flags: /Odt
_this$ = -4						; size = 4
?GetMessageMap@CMainHostWnd@@MBEPBUAFX_MSGMAP@@XZ PROC NEAR ; CMainHostWnd::GetMessageMap
; _this$ = ecx

; 57   : BEGIN_MESSAGE_MAP(CMainHostWnd, CHostWnd)

  00200	55		 push	 ebp
  00201	8b ec		 mov	 ebp, esp
  00203	51		 push	 ecx
  00204	89 4d fc	 mov	 DWORD PTR _this$[ebp], ecx
  00207	b8 00 00 00 00	 mov	 eax, OFFSET FLAT:?messageMap@CMainHostWnd@@1UAFX_MSGMAP@@B ; CMainHostWnd::messageMap
  0020c	8b e5		 mov	 esp, ebp
  0020e	5d		 pop	 ebp
  0020f	c3		 ret	 0
?GetMessageMap@CMainHostWnd@@MBEPBUAFX_MSGMAP@@XZ ENDP	; CMainHostWnd::GetMessageMap
_TEXT	ENDS
PUBLIC	?SetMinSize@CMainHostWnd@@QAEXXZ		; CMainHostWnd::SetMinSize
PUBLIC	?SetParent@CWnd@@QAEPAV1@PAV1@@Z		; CWnd::SetParent
EXTRN	?OnInitDialog@CDialog@@UAEHXZ:NEAR		; CDialog::OnInitDialog
EXTRN	?GetInstance@CWindowsMover@@SAPAV1@XZ:NEAR	; CWindowsMover::GetInstance
EXTRN	?AddWndindow@CWindowsMover@@QAEXPAVCWnd@@_N@Z:NEAR ; CWindowsMover::AddWndindow
; Function compile flags: /Odt
_TEXT	SEGMENT
_this$ = -4						; size = 4
?OnInitDialog@CMainHostWnd@@MAEHXZ PROC NEAR		; CMainHostWnd::OnInitDialog
; _this$ = ecx

; 66   : {

  00210	55		 push	 ebp
  00211	8b ec		 mov	 ebp, esp
  00213	51		 push	 ecx
  00214	89 4d fc	 mov	 DWORD PTR _this$[ebp], ecx

; 67   : 	CDialog::OnInitDialog();

  00217	8b 4d fc	 mov	 ecx, DWORD PTR _this$[ebp]
  0021a	e8 00 00 00 00	 call	 ?OnInitDialog@CDialog@@UAEHXZ ; CDialog::OnInitDialog

; 68   : 
; 69   : 	//m_bShowMV = true;
; 70   : 	CWindowsMover::GetInstance()->AddWndindow(this, m_isMainWnd);

  0021f	8b 45 fc	 mov	 eax, DWORD PTR _this$[ebp]
  00222	83 b8 80 00 00
	00 00		 cmp	 DWORD PTR [eax+128], 0
  00229	0f 95 c1	 setne	 cl
  0022c	51		 push	 ecx
  0022d	8b 55 fc	 mov	 edx, DWORD PTR _this$[ebp]
  00230	52		 push	 edx
  00231	e8 00 00 00 00	 call	 ?GetInstance@CWindowsMover@@SAPAV1@XZ ; CWindowsMover::GetInstance
  00236	8b c8		 mov	 ecx, eax
  00238	e8 00 00 00 00	 call	 ?AddWndindow@CWindowsMover@@QAEXPAVCWnd@@_N@Z ; CWindowsMover::AddWndindow

; 71   : 
; 72   : 	//m_bShowPlaylist = true;
; 73   : 	m_pControlWnd->SetParent(this);

  0023d	8b 45 fc	 mov	 eax, DWORD PTR _this$[ebp]
  00240	50		 push	 eax
  00241	8b 4d fc	 mov	 ecx, DWORD PTR _this$[ebp]
  00244	8b 89 48 02 00
	00		 mov	 ecx, DWORD PTR [ecx+584]
  0024a	e8 00 00 00 00	 call	 ?SetParent@CWnd@@QAEPAV1@PAV1@@Z ; CWnd::SetParent

; 74   : 	m_pPlistWnd->SetParent(this);

  0024f	8b 55 fc	 mov	 edx, DWORD PTR _this$[ebp]
  00252	52		 push	 edx
  00253	8b 45 fc	 mov	 eax, DWORD PTR _this$[ebp]
  00256	8b 88 4c 02 00
	00		 mov	 ecx, DWORD PTR [eax+588]
  0025c	e8 00 00 00 00	 call	 ?SetParent@CWnd@@QAEPAV1@PAV1@@Z ; CWnd::SetParent

; 75   : 
; 76   : 	SetMinSize();

  00261	8b 4d fc	 mov	 ecx, DWORD PTR _this$[ebp]
  00264	e8 00 00 00 00	 call	 ?SetMinSize@CMainHostWnd@@QAEXXZ ; CMainHostWnd::SetMinSize

; 77   : 	return TRUE;

  00269	b8 01 00 00 00	 mov	 eax, 1

; 78   : }

  0026e	8b e5		 mov	 esp, ebp
  00270	5d		 pop	 ebp
  00271	c3		 ret	 0
?OnInitDialog@CMainHostWnd@@MAEHXZ ENDP			; CMainHostWnd::OnInitDialog
_TEXT	ENDS
EXTRN	?OnLButtonDown@CHostWnd@@IAEXIVCPoint@@@Z:NEAR	; CHostWnd::OnLButtonDown
; Function compile flags: /Odt
_TEXT	SEGMENT
_this$ = -4						; size = 4
_nFlags$ = 8						; size = 4
_point$ = 12						; size = 8
?OnLButtonDown@CMainHostWnd@@IAEXIVCPoint@@@Z PROC NEAR	; CMainHostWnd::OnLButtonDown
; _this$ = ecx

; 81   : {	

  00280	55		 push	 ebp
  00281	8b ec		 mov	 ebp, esp
  00283	51		 push	 ecx
  00284	89 4d fc	 mov	 DWORD PTR _this$[ebp], ecx

; 82   : 	__super::OnLButtonDown(nFlags, point);

  00287	8b 45 10	 mov	 eax, DWORD PTR _point$[ebp+4]
  0028a	50		 push	 eax
  0028b	8b 4d 0c	 mov	 ecx, DWORD PTR _point$[ebp]
  0028e	51		 push	 ecx
  0028f	8b 55 08	 mov	 edx, DWORD PTR _nFlags$[ebp]
  00292	52		 push	 edx
  00293	8b 4d fc	 mov	 ecx, DWORD PTR _this$[ebp]
  00296	e8 00 00 00 00	 call	 ?OnLButtonDown@CHostWnd@@IAEXIVCPoint@@@Z ; CHostWnd::OnLButtonDown

; 83   : 
; 84   : }

  0029b	8b e5		 mov	 esp, ebp
  0029d	5d		 pop	 ebp
  0029e	c2 0c 00	 ret	 12			; 0000000cH
?OnLButtonDown@CMainHostWnd@@IAEXIVCPoint@@@Z ENDP	; CMainHostWnd::OnLButtonDown
_TEXT	ENDS
EXTRN	?OnLButtonUp@CHostWnd@@IAEXIVCPoint@@@Z:NEAR	; CHostWnd::OnLButtonUp
; Function compile flags: /Odt
_TEXT	SEGMENT
_this$ = -4						; size = 4
_nFlags$ = 8						; size = 4
_point$ = 12						; size = 8
?OnLButtonUp@CMainHostWnd@@IAEXIVCPoint@@@Z PROC NEAR	; CMainHostWnd::OnLButtonUp
; _this$ = ecx

; 87   : {

  002b0	55		 push	 ebp
  002b1	8b ec		 mov	 ebp, esp
  002b3	51		 push	 ecx
  002b4	89 4d fc	 mov	 DWORD PTR _this$[ebp], ecx

; 88   : 	__super::OnLButtonUp(nFlags, point);

  002b7	8b 45 10	 mov	 eax, DWORD PTR _point$[ebp+4]
  002ba	50		 push	 eax
  002bb	8b 4d 0c	 mov	 ecx, DWORD PTR _point$[ebp]
  002be	51		 push	 ecx
  002bf	8b 55 08	 mov	 edx, DWORD PTR _nFlags$[ebp]
  002c2	52		 push	 edx
  002c3	8b 4d fc	 mov	 ecx, DWORD PTR _this$[ebp]
  002c6	e8 00 00 00 00	 call	 ?OnLButtonUp@CHostWnd@@IAEXIVCPoint@@@Z ; CHostWnd::OnLButtonUp

; 89   : }

  002cb	8b e5		 mov	 esp, ebp
  002cd	5d		 pop	 ebp
  002ce	c2 0c 00	 ret	 12			; 0000000cH
?OnLButtonUp@CMainHostWnd@@IAEXIVCPoint@@@Z ENDP	; CMainHostWnd::OnLButtonUp
_TEXT	ENDS
EXTRN	?OnMouseMove@CHostWnd@@IAEXIVCPoint@@@Z:NEAR	; CHostWnd::OnMouseMove
; Function compile flags: /Odt
_TEXT	SEGMENT
_this$ = -4						; size = 4
_nFlags$ = 8						; size = 4
_point$ = 12						; size = 8
?OnMouseMove@CMainHostWnd@@IAEXIVCPoint@@@Z PROC NEAR	; CMainHostWnd::OnMouseMove
; _this$ = ecx

; 92   : {

  002e0	55		 push	 ebp
  002e1	8b ec		 mov	 ebp, esp
  002e3	51		 push	 ecx
  002e4	89 4d fc	 mov	 DWORD PTR _this$[ebp], ecx

; 93   : 	__super::OnMouseMove( nFlags,point );

  002e7	8b 45 10	 mov	 eax, DWORD PTR _point$[ebp+4]
  002ea	50		 push	 eax
  002eb	8b 4d 0c	 mov	 ecx, DWORD PTR _point$[ebp]
  002ee	51		 push	 ecx
  002ef	8b 55 08	 mov	 edx, DWORD PTR _nFlags$[ebp]
  002f2	52		 push	 edx
  002f3	8b 4d fc	 mov	 ecx, DWORD PTR _this$[ebp]
  002f6	e8 00 00 00 00	 call	 ?OnMouseMove@CHostWnd@@IAEXIVCPoint@@@Z ; CHostWnd::OnMouseMove

; 94   : 
; 95   : }

  002fb	8b e5		 mov	 esp, ebp
  002fd	5d		 pop	 ebp
  002fe	c2 0c 00	 ret	 12			; 0000000cH
?OnMouseMove@CMainHostWnd@@IAEXIVCPoint@@@Z ENDP	; CMainHostWnd::OnMouseMove
_TEXT	ENDS
PUBLIC	?GetClientRect@CWnd@@QBEXPAUtagRECT@@@Z		; CWnd::GetClientRect
PUBLIC	?GetDC@CWnd@@QAEPAVCDC@@XZ			; CWnd::GetDC
PUBLIC	?ReleaseDC@CWnd@@QAEHPAVCDC@@@Z			; CWnd::ReleaseDC
PUBLIC	?RedrawWindow@CWnd@@QAEHPBUtagRECT@@PAVCRgn@@I@Z ; CWnd::RedrawWindow
PUBLIC	??0CRect@@QAE@XZ				; CRect::CRect
PUBLIC	?MoveContent@CMainHostWnd@@AAEXXZ		; CMainHostWnd::MoveContent
PUBLIC	?OnSize@CWnd@@IAEXIHH@Z				; CWnd::OnSize
PUBLIC	?MoveWindow@CWnd@@QAEXPBUtagRECT@@H@Z		; CWnd::MoveWindow
EXTRN	__imp__SetWindowRgn@12:NEAR
EXTRN	__imp__GetTickCount@0:NEAR
; Function compile flags: /Odt
_TEXT	SEGMENT
tv137 = -52						; size = 4
tv132 = -48						; size = 4
tv85 = -44						; size = 4
tv80 = -40						; size = 4
tv70 = -36						; size = 4
_this$ = -32						; size = 4
_rc$199634 = -28					; size = 16
_hrgn$199632 = -12					; size = 4
_dc$199631 = -8						; size = 4
_count$199630 = -4					; size = 4
_nType$ = 8						; size = 4
_cx$ = 12						; size = 4
_cy$ = 16						; size = 4
?OnSize@CMainHostWnd@@IAEXIHH@Z PROC NEAR		; CMainHostWnd::OnSize
; _this$ = ecx

; 98   : {

  00310	55		 push	 ebp
  00311	8b ec		 mov	 ebp, esp
  00313	83 ec 34	 sub	 esp, 52			; 00000034H
  00316	89 4d e0	 mov	 DWORD PTR _this$[ebp], ecx

; 99   : 	CDialog::OnSize(nType, cx,cy);

  00319	8b 45 10	 mov	 eax, DWORD PTR _cy$[ebp]
  0031c	50		 push	 eax
  0031d	8b 4d 0c	 mov	 ecx, DWORD PTR _cx$[ebp]
  00320	51		 push	 ecx
  00321	8b 55 08	 mov	 edx, DWORD PTR _nType$[ebp]
  00324	52		 push	 edx
  00325	8b 4d e0	 mov	 ecx, DWORD PTR _this$[ebp]
  00328	e8 00 00 00 00	 call	 ?OnSize@CWnd@@IAEXIHH@Z	; CWnd::OnSize

; 100  : 
; 101  : 	if( AfxGetUIManager()->UIGetLayoutMgr() != NULL )

  0032d	e8 00 00 00 00	 call	 ?AfxGetUIManager@@YAPAVIUIManager@@XZ ; AfxGetUIManager
  00332	89 45 dc	 mov	 DWORD PTR tv70[ebp], eax
  00335	8b 45 dc	 mov	 eax, DWORD PTR tv70[ebp]
  00338	8b 10		 mov	 edx, DWORD PTR [eax]
  0033a	8b 4d dc	 mov	 ecx, DWORD PTR tv70[ebp]
  0033d	ff 52 24	 call	 DWORD PTR [edx+36]
  00340	85 c0		 test	 eax, eax
  00342	0f 84 8b 00 00
	00		 je	 $L199629

; 102  : 	{
; 103  : 		DWORD count = ::GetTickCount();

  00348	ff 15 00 00 00
	00		 call	 DWORD PTR __imp__GetTickCount@0
  0034e	89 45 fc	 mov	 DWORD PTR _count$199630[ebp], eax

; 104  : 		CDC* dc = GetDC();

  00351	8b 4d e0	 mov	 ecx, DWORD PTR _this$[ebp]
  00354	e8 00 00 00 00	 call	 ?GetDC@CWnd@@QAEPAVCDC@@XZ ; CWnd::GetDC
  00359	89 45 f8	 mov	 DWORD PTR _dc$199631[ebp], eax

; 105  : 		HRGN hrgn = AfxGetUIManager()->UIGetSkinMgr()->GetFrameRGN(cx, cy , dc);

  0035c	e8 00 00 00 00	 call	 ?AfxGetUIManager@@YAPAVIUIManager@@XZ ; AfxGetUIManager
  00361	89 45 d8	 mov	 DWORD PTR tv80[ebp], eax
  00364	8b 45 d8	 mov	 eax, DWORD PTR tv80[ebp]
  00367	8b 10		 mov	 edx, DWORD PTR [eax]
  00369	8b 4d d8	 mov	 ecx, DWORD PTR tv80[ebp]
  0036c	ff 52 28	 call	 DWORD PTR [edx+40]
  0036f	89 45 d4	 mov	 DWORD PTR tv85[ebp], eax
  00372	8b 45 f8	 mov	 eax, DWORD PTR _dc$199631[ebp]
  00375	50		 push	 eax
  00376	8b 4d 10	 mov	 ecx, DWORD PTR _cy$[ebp]
  00379	51		 push	 ecx
  0037a	8b 55 0c	 mov	 edx, DWORD PTR _cx$[ebp]
  0037d	52		 push	 edx
  0037e	8b 45 d4	 mov	 eax, DWORD PTR tv85[ebp]
  00381	8b 10		 mov	 edx, DWORD PTR [eax]
  00383	8b 4d d4	 mov	 ecx, DWORD PTR tv85[ebp]
  00386	ff 52 1c	 call	 DWORD PTR [edx+28]
  00389	89 45 f4	 mov	 DWORD PTR _hrgn$199632[ebp], eax

; 106  : 		ReleaseDC(dc);

  0038c	8b 45 f8	 mov	 eax, DWORD PTR _dc$199631[ebp]
  0038f	50		 push	 eax
  00390	8b 4d e0	 mov	 ecx, DWORD PTR _this$[ebp]
  00393	e8 00 00 00 00	 call	 ?ReleaseDC@CWnd@@QAEHPAVCDC@@@Z ; CWnd::ReleaseDC

; 107  : 		::SetWindowRgn(m_hWnd, hrgn, true);

  00398	6a 01		 push	 1
  0039a	8b 4d f4	 mov	 ecx, DWORD PTR _hrgn$199632[ebp]
  0039d	51		 push	 ecx
  0039e	8b 55 e0	 mov	 edx, DWORD PTR _this$[ebp]
  003a1	8b 42 20	 mov	 eax, DWORD PTR [edx+32]
  003a4	50		 push	 eax
  003a5	ff 15 00 00 00
	00		 call	 DWORD PTR __imp__SetWindowRgn@12

; 108  : 		AfxGetUIManager()->UIGetLayoutMgr()->UpdateLayout(this->m_hWnd);

  003ab	e8 00 00 00 00	 call	 ?AfxGetUIManager@@YAPAVIUIManager@@XZ ; AfxGetUIManager
  003b0	89 45 d0	 mov	 DWORD PTR tv132[ebp], eax
  003b3	8b 4d d0	 mov	 ecx, DWORD PTR tv132[ebp]
  003b6	8b 11		 mov	 edx, DWORD PTR [ecx]
  003b8	8b 4d d0	 mov	 ecx, DWORD PTR tv132[ebp]
  003bb	ff 52 24	 call	 DWORD PTR [edx+36]
  003be	89 45 cc	 mov	 DWORD PTR tv137[ebp], eax
  003c1	8b 45 e0	 mov	 eax, DWORD PTR _this$[ebp]
  003c4	8b 48 20	 mov	 ecx, DWORD PTR [eax+32]
  003c7	51		 push	 ecx
  003c8	8b 55 cc	 mov	 edx, DWORD PTR tv137[ebp]
  003cb	8b 02		 mov	 eax, DWORD PTR [edx]
  003cd	8b 4d cc	 mov	 ecx, DWORD PTR tv137[ebp]
  003d0	ff 50 14	 call	 DWORD PTR [eax+20]
$L199629:

; 109  : 	}
; 110  : 
; 111  : 	if(!m_bShowPlaylist)

  003d3	8b 4d e0	 mov	 ecx, DWORD PTR _this$[ebp]
  003d6	0f b6 91 35 02
	00 00		 movzx	 edx, BYTE PTR [ecx+565]
  003dd	85 d2		 test	 edx, edx
  003df	75 2a		 jne	 SHORT $L199633

; 112  : 	{
; 113  : 		CRect rc;

  003e1	8d 4d e4	 lea	 ecx, DWORD PTR _rc$199634[ebp]
  003e4	e8 00 00 00 00	 call	 ??0CRect@@QAE@XZ	; CRect::CRect

; 114  : 		GetClientRect(&rc);

  003e9	8d 45 e4	 lea	 eax, DWORD PTR _rc$199634[ebp]
  003ec	50		 push	 eax
  003ed	8b 4d e0	 mov	 ecx, DWORD PTR _this$[ebp]
  003f0	e8 00 00 00 00	 call	 ?GetClientRect@CWnd@@QBEXPAUtagRECT@@@Z ; CWnd::GetClientRect

; 115  : 		m_pControlWnd->MoveWindow(&rc);

  003f5	6a 01		 push	 1
  003f7	8d 4d e4	 lea	 ecx, DWORD PTR _rc$199634[ebp]
  003fa	51		 push	 ecx
  003fb	8b 55 e0	 mov	 edx, DWORD PTR _this$[ebp]
  003fe	8b 8a 48 02 00
	00		 mov	 ecx, DWORD PTR [edx+584]
  00404	e8 00 00 00 00	 call	 ?MoveWindow@CWnd@@QAEXPBUtagRECT@@H@Z ; CWnd::MoveWindow

; 116  : 	}
; 117  : 	else

  00409	eb 08		 jmp	 SHORT $L199635
$L199633:

; 118  : 		MoveContent();

  0040b	8b 4d e0	 mov	 ecx, DWORD PTR _this$[ebp]
  0040e	e8 00 00 00 00	 call	 ?MoveContent@CMainHostWnd@@AAEXXZ ; CMainHostWnd::MoveContent
$L199635:

; 119  : 
; 120  : 	RedrawWindow(NULL, NULL, RDW_INVALIDATE | RDW_UPDATENOW | RDW_ERASE | RDW_ALLCHILDREN);

  00413	68 85 01 00 00	 push	 389			; 00000185H
  00418	6a 00		 push	 0
  0041a	6a 00		 push	 0
  0041c	8b 4d e0	 mov	 ecx, DWORD PTR _this$[ebp]
  0041f	e8 00 00 00 00	 call	 ?RedrawWindow@CWnd@@QAEHPBUtagRECT@@PAVCRgn@@I@Z ; CWnd::RedrawWindow

; 121  : }

  00424	8b e5		 mov	 esp, ebp
  00426	5d		 pop	 ebp
  00427	c2 0c 00	 ret	 12			; 0000000cH
?OnSize@CMainHostWnd@@IAEXIHH@Z ENDP			; CMainHostWnd::OnSize
_TEXT	ENDS
PUBLIC	?Width@CRect@@QBEHXZ				; CRect::Width
PUBLIC	?Height@CRect@@QBEHXZ				; CRect::Height
PUBLIC	?CalResizingByMVRatio@CMainHostWnd@@QAEXAAVCRect@@0@Z ; CMainHostWnd::CalResizingByMVRatio
PUBLIC	?DeflateRect@CRect@@QAEXHHHH@Z			; CRect::DeflateRect
PUBLIC	__real@40400000
PUBLIC	__real@40800000
PUBLIC	__real@42fc0000
PUBLIC	__real@43ab0000
EXTRN	__ftol2:NEAR
EXTRN	__fltused:NEAR
;	COMDAT __real@40400000
CONST	SEGMENT
__real@40400000 DD 040400000r			; 3
CONST	ENDS
;	COMDAT __real@40800000
CONST	SEGMENT
__real@40800000 DD 040800000r			; 4
CONST	ENDS
;	COMDAT __real@42fc0000
CONST	SEGMENT
__real@42fc0000 DD 042fc0000r			; 126
CONST	ENDS
;	COMDAT __real@43ab0000
CONST	SEGMENT
__real@43ab0000 DD 043ab0000r			; 342
; Function compile flags: /Odt
CONST	ENDS
_TEXT	SEGMENT
tv179 = -56						; size = 4
tv176 = -52						; size = 4
tv173 = -48						; size = 4
tv171 = -44						; size = 4
_this$ = -40						; size = 4
_w1$ = -36						; size = 4
_h1$ = -32						; size = 4
_rc$ = -28						; size = 16
_h$ = -12						; size = 4
_calheight$ = -8					; size = 4
_w$ = -4						; size = 4
_rcControlWnd$ = 8					; size = 4
_rcPlaylist$ = 12					; size = 4
?CalResizingByMVRatio@CMainHostWnd@@QAEXAAVCRect@@0@Z PROC NEAR ; CMainHostWnd::CalResizingByMVRatio
; _this$ = ecx

; 124  : {

  00430	55		 push	 ebp
  00431	8b ec		 mov	 ebp, esp
  00433	83 ec 38	 sub	 esp, 56			; 00000038H
  00436	89 4d d8	 mov	 DWORD PTR _this$[ebp], ecx

; 125  : 	CRect rc = rcControlWnd;

  00439	8b 45 08	 mov	 eax, DWORD PTR _rcControlWnd$[ebp]
  0043c	8b 08		 mov	 ecx, DWORD PTR [eax]
  0043e	89 4d e4	 mov	 DWORD PTR _rc$[ebp], ecx
  00441	8b 50 04	 mov	 edx, DWORD PTR [eax+4]
  00444	89 55 e8	 mov	 DWORD PTR _rc$[ebp+4], edx
  00447	8b 48 08	 mov	 ecx, DWORD PTR [eax+8]
  0044a	89 4d ec	 mov	 DWORD PTR _rc$[ebp+8], ecx
  0044d	8b 50 0c	 mov	 edx, DWORD PTR [eax+12]
  00450	89 55 f0	 mov	 DWORD PTR _rc$[ebp+12], edx

; 126  : 	rc.DeflateRect(6, 42,6, 84);

  00453	6a 54		 push	 84			; 00000054H
  00455	6a 06		 push	 6
  00457	6a 2a		 push	 42			; 0000002aH
  00459	6a 06		 push	 6
  0045b	8d 4d e4	 lea	 ecx, DWORD PTR _rc$[ebp]
  0045e	e8 00 00 00 00	 call	 ?DeflateRect@CRect@@QAEXHHHH@Z ; CRect::DeflateRect

; 127  : 
; 128  : 	float w1 = rc.Width();

  00463	8d 4d e4	 lea	 ecx, DWORD PTR _rc$[ebp]
  00466	e8 00 00 00 00	 call	 ?Width@CRect@@QBEHXZ	; CRect::Width
  0046b	89 45 d4	 mov	 DWORD PTR tv171[ebp], eax
  0046e	db 45 d4	 fild	 DWORD PTR tv171[ebp]
  00471	d9 5d dc	 fstp	 DWORD PTR _w1$[ebp]

; 129  : 	float h1 = rc.Height();

  00474	8d 4d e4	 lea	 ecx, DWORD PTR _rc$[ebp]
  00477	e8 00 00 00 00	 call	 ?Height@CRect@@QBEHXZ	; CRect::Height
  0047c	89 45 d0	 mov	 DWORD PTR tv173[ebp], eax
  0047f	db 45 d0	 fild	 DWORD PTR tv173[ebp]
  00482	d9 5d e0	 fstp	 DWORD PTR _h1$[ebp]

; 130  : 	float w = rc.Width() - m_nDeltaWidth;

  00485	8d 4d e4	 lea	 ecx, DWORD PTR _rc$[ebp]
  00488	e8 00 00 00 00	 call	 ?Width@CRect@@QBEHXZ	; CRect::Width
  0048d	8b 4d d8	 mov	 ecx, DWORD PTR _this$[ebp]
  00490	2b 41 78	 sub	 eax, DWORD PTR [ecx+120]
  00493	89 45 cc	 mov	 DWORD PTR tv176[ebp], eax
  00496	db 45 cc	 fild	 DWORD PTR tv176[ebp]
  00499	d9 5d fc	 fstp	 DWORD PTR _w$[ebp]

; 131  : 	float h = rc.Height() - m_nDeltaHeight;

  0049c	8d 4d e4	 lea	 ecx, DWORD PTR _rc$[ebp]
  0049f	e8 00 00 00 00	 call	 ?Height@CRect@@QBEHXZ	; CRect::Height
  004a4	8b 55 d8	 mov	 edx, DWORD PTR _this$[ebp]
  004a7	2b 42 74	 sub	 eax, DWORD PTR [edx+116]
  004aa	89 45 c8	 mov	 DWORD PTR tv179[ebp], eax
  004ad	db 45 c8	 fild	 DWORD PTR tv179[ebp]
  004b0	d9 5d f4	 fstp	 DWORD PTR _h$[ebp]

; 132  : 	float calheight;
; 133  : 
; 134  : 	calheight = w1 * 3/4;

  004b3	d9 45 dc	 fld	 DWORD PTR _w1$[ebp]
  004b6	d8 0d 00 00 00
	00		 fmul	 DWORD PTR __real@40400000
  004bc	d8 35 00 00 00
	00		 fdiv	 DWORD PTR __real@40800000
  004c2	d9 5d f8	 fstp	 DWORD PTR _calheight$[ebp]

; 135  : 
; 136  : 	if(calheight + 126 < DEFAULT_HEIGHT)

  004c5	d9 45 f8	 fld	 DWORD PTR _calheight$[ebp]
  004c8	d8 05 00 00 00
	00		 fadd	 DWORD PTR __real@42fc0000
  004ce	d8 1d 00 00 00
	00		 fcomp	 DWORD PTR __real@43ab0000
  004d4	df e0		 fnstsw	 ax
  004d6	f6 c4 05	 test	 ah, 5
  004d9	7a 07		 jp	 SHORT $L199647

; 137  : 		calheight = DEFAULT_HEIGHT - 126;

  004db	c7 45 f8 00 00
	58 43		 mov	 DWORD PTR _calheight$[ebp], 1129840640 ; 43580000H
$L199647:

; 138  : 
; 139  : 	if (
; 140  : 		(h > h1 && calheight < h && calheight > h1) ||
; 141  : 		(h < h1 && calheight < h1 && calheight > h)
; 142  : 		)

  004e2	d9 45 f4	 fld	 DWORD PTR _h$[ebp]
  004e5	d8 5d e0	 fcomp	 DWORD PTR _h1$[ebp]
  004e8	df e0		 fnstsw	 ax
  004ea	f6 c4 41	 test	 ah, 65			; 00000041H
  004ed	75 1a		 jne	 SHORT $L199650
  004ef	d9 45 f8	 fld	 DWORD PTR _calheight$[ebp]
  004f2	d8 5d f4	 fcomp	 DWORD PTR _h$[ebp]
  004f5	df e0		 fnstsw	 ax
  004f7	f6 c4 05	 test	 ah, 5
  004fa	7a 0d		 jp	 SHORT $L199650
  004fc	d9 45 f8	 fld	 DWORD PTR _calheight$[ebp]
  004ff	d8 5d e0	 fcomp	 DWORD PTR _h1$[ebp]
  00502	df e0		 fnstsw	 ax
  00504	f6 c4 41	 test	 ah, 65			; 00000041H
  00507	74 27		 je	 SHORT $L199649
$L199650:
  00509	d9 45 f4	 fld	 DWORD PTR _h$[ebp]
  0050c	d8 5d e0	 fcomp	 DWORD PTR _h1$[ebp]
  0050f	df e0		 fnstsw	 ax
  00511	f6 c4 05	 test	 ah, 5
  00514	7a 45		 jp	 SHORT $L199648
  00516	d9 45 f8	 fld	 DWORD PTR _calheight$[ebp]
  00519	d8 5d e0	 fcomp	 DWORD PTR _h1$[ebp]
  0051c	df e0		 fnstsw	 ax
  0051e	f6 c4 05	 test	 ah, 5
  00521	7a 38		 jp	 SHORT $L199648
  00523	d9 45 f8	 fld	 DWORD PTR _calheight$[ebp]
  00526	d8 5d f4	 fcomp	 DWORD PTR _h$[ebp]
  00529	df e0		 fnstsw	 ax
  0052b	f6 c4 41	 test	 ah, 65			; 00000041H
  0052e	75 2b		 jne	 SHORT $L199648
$L199649:

; 143  : 	{
; 144  : 		rcControlWnd.bottom = rcControlWnd.top + calheight + 126;

  00530	8b 45 08	 mov	 eax, DWORD PTR _rcControlWnd$[ebp]
  00533	db 40 04	 fild	 DWORD PTR [eax+4]
  00536	d8 45 f8	 fadd	 DWORD PTR _calheight$[ebp]
  00539	d8 05 00 00 00
	00		 fadd	 DWORD PTR __real@42fc0000
  0053f	e8 00 00 00 00	 call	 __ftol2
  00544	8b 4d 08	 mov	 ecx, DWORD PTR _rcControlWnd$[ebp]
  00547	89 41 0c	 mov	 DWORD PTR [ecx+12], eax

; 145  : 		rcPlaylist.top = rcControlWnd.bottom;

  0054a	8b 55 0c	 mov	 edx, DWORD PTR _rcPlaylist$[ebp]
  0054d	8b 45 08	 mov	 eax, DWORD PTR _rcControlWnd$[ebp]
  00550	8b 48 0c	 mov	 ecx, DWORD PTR [eax+12]
  00553	89 4a 04	 mov	 DWORD PTR [edx+4], ecx

; 146  : 	}
; 147  : 	//mvplaylist
; 148  : 	else if(h1 < h && calheight >= h && rcPlaylist.Height() > PLAYLIST_MIN_HEIGHT)

  00556	e9 8d 00 00 00	 jmp	 $L199640
$L199648:
  0055b	d9 45 e0	 fld	 DWORD PTR _h1$[ebp]
  0055e	d8 5d f4	 fcomp	 DWORD PTR _h$[ebp]
  00561	df e0		 fnstsw	 ax
  00563	f6 c4 05	 test	 ah, 5
  00566	7a 42		 jp	 SHORT $L199652
  00568	d9 45 f8	 fld	 DWORD PTR _calheight$[ebp]
  0056b	d8 5d f4	 fcomp	 DWORD PTR _h$[ebp]
  0056e	df e0		 fnstsw	 ax
  00570	f6 c4 01	 test	 ah, 1
  00573	75 35		 jne	 SHORT $L199652
  00575	8b 4d 0c	 mov	 ecx, DWORD PTR _rcPlaylist$[ebp]
  00578	e8 00 00 00 00	 call	 ?Height@CRect@@QBEHXZ	; CRect::Height
  0057d	3d d2 00 00 00	 cmp	 eax, 210		; 000000d2H
  00582	7e 26		 jle	 SHORT $L199652

; 149  : 	{
; 150  : 		rcControlWnd.bottom = rcControlWnd.bottom - m_nDeltaHeight;

  00584	8b 55 08	 mov	 edx, DWORD PTR _rcControlWnd$[ebp]
  00587	8b 45 d8	 mov	 eax, DWORD PTR _this$[ebp]
  0058a	8b 4a 0c	 mov	 ecx, DWORD PTR [edx+12]
  0058d	2b 48 74	 sub	 ecx, DWORD PTR [eax+116]
  00590	8b 55 08	 mov	 edx, DWORD PTR _rcControlWnd$[ebp]
  00593	89 4a 0c	 mov	 DWORD PTR [edx+12], ecx

; 151  : 		rcPlaylist.top = rcPlaylist.top - m_nDeltaHeight;

  00596	8b 45 0c	 mov	 eax, DWORD PTR _rcPlaylist$[ebp]
  00599	8b 4d d8	 mov	 ecx, DWORD PTR _this$[ebp]
  0059c	8b 50 04	 mov	 edx, DWORD PTR [eax+4]
  0059f	2b 51 74	 sub	 edx, DWORD PTR [ecx+116]
  005a2	8b 45 0c	 mov	 eax, DWORD PTR _rcPlaylist$[ebp]
  005a5	89 50 04	 mov	 DWORD PTR [eax+4], edx

; 152  : 	}
; 153  : 	//mvplaylist
; 154  : 	else if(h1 > h && calheight <= h)

  005a8	eb 3e		 jmp	 SHORT $L199640
$L199652:
  005aa	d9 45 e0	 fld	 DWORD PTR _h1$[ebp]
  005ad	d8 5d f4	 fcomp	 DWORD PTR _h$[ebp]
  005b0	df e0		 fnstsw	 ax
  005b2	f6 c4 41	 test	 ah, 65			; 00000041H
  005b5	75 31		 jne	 SHORT $L199640
  005b7	d9 45 f8	 fld	 DWORD PTR _calheight$[ebp]
  005ba	d8 5d f4	 fcomp	 DWORD PTR _h$[ebp]
  005bd	df e0		 fnstsw	 ax
  005bf	f6 c4 41	 test	 ah, 65			; 00000041H
  005c2	7a 24		 jp	 SHORT $L199640

; 155  : 	{
; 156  : 		rcControlWnd.bottom = rcControlWnd.bottom - m_nDeltaHeight;

  005c4	8b 4d 08	 mov	 ecx, DWORD PTR _rcControlWnd$[ebp]
  005c7	8b 55 d8	 mov	 edx, DWORD PTR _this$[ebp]
  005ca	8b 41 0c	 mov	 eax, DWORD PTR [ecx+12]
  005cd	2b 42 74	 sub	 eax, DWORD PTR [edx+116]
  005d0	8b 4d 08	 mov	 ecx, DWORD PTR _rcControlWnd$[ebp]
  005d3	89 41 0c	 mov	 DWORD PTR [ecx+12], eax

; 157  : 		rcPlaylist.top = rcPlaylist.top - m_nDeltaHeight;

  005d6	8b 55 0c	 mov	 edx, DWORD PTR _rcPlaylist$[ebp]
  005d9	8b 45 d8	 mov	 eax, DWORD PTR _this$[ebp]
  005dc	8b 4a 04	 mov	 ecx, DWORD PTR [edx+4]
  005df	2b 48 74	 sub	 ecx, DWORD PTR [eax+116]
  005e2	8b 55 0c	 mov	 edx, DWORD PTR _rcPlaylist$[ebp]
  005e5	89 4a 04	 mov	 DWORD PTR [edx+4], ecx
$L199640:

; 158  : 	}
; 159  : }

  005e8	8b e5		 mov	 esp, ebp
  005ea	5d		 pop	 ebp
  005eb	c2 08 00	 ret	 8
?CalResizingByMVRatio@CMainHostWnd@@QAEXAAVCRect@@0@Z ENDP ; CMainHostWnd::CalResizingByMVRatio
_TEXT	ENDS
PUBLIC	?GetWindowRect@CWnd@@QBEXPAUtagRECT@@@Z		; CWnd::GetWindowRect
PUBLIC	??BCRect@@QAEPAUtagRECT@@XZ			; CRect::operator tagRECT *
; Function compile flags: /Odt
_TEXT	SEGMENT
tv152 = -116						; size = 4
_this$ = -112						; size = 4
_nPlaylistHeight$199676 = -108				; size = 4
_rcControl$199674 = -104				; size = 16
_rect$199670 = -88					; size = 16
_bottom$199671 = -72					; size = 4
_rcList$199663 = -68					; size = 16
_rcControl$199667 = -52					; size = 16
_rcPlaylist$199668 = -36				; size = 16
_nControlWndHeight$199664 = -20				; size = 4
_rc$ = -16						; size = 16
?MoveContent@CMainHostWnd@@AAEXXZ PROC NEAR		; CMainHostWnd::MoveContent
; _this$ = ecx

; 162  : {

  005f0	55		 push	 ebp
  005f1	8b ec		 mov	 ebp, esp
  005f3	83 ec 74	 sub	 esp, 116		; 00000074H
  005f6	56		 push	 esi
  005f7	89 4d 90	 mov	 DWORD PTR _this$[ebp], ecx

; 163  : 	CRect rc;

  005fa	8d 4d f0	 lea	 ecx, DWORD PTR _rc$[ebp]
  005fd	e8 00 00 00 00	 call	 ??0CRect@@QAE@XZ	; CRect::CRect

; 164  : 	GetClientRect(&rc);

  00602	8d 45 f0	 lea	 eax, DWORD PTR _rc$[ebp]
  00605	50		 push	 eax
  00606	8b 4d 90	 mov	 ecx, DWORD PTR _this$[ebp]
  00609	e8 00 00 00 00	 call	 ?GetClientRect@CWnd@@QBEXPAUtagRECT@@@Z ; CWnd::GetClientRect

; 165  : 
; 166  : 	if( !m_bShowPlaylist)

  0060e	8b 4d 90	 mov	 ecx, DWORD PTR _this$[ebp]
  00611	0f b6 91 35 02
	00 00		 movzx	 edx, BYTE PTR [ecx+565]
  00618	85 d2		 test	 edx, edx
  0061a	75 25		 jne	 SHORT $L199659

; 167  : 	{
; 168  : 		m_pControlWnd->GetWindowRect(&rc);

  0061c	8d 45 f0	 lea	 eax, DWORD PTR _rc$[ebp]
  0061f	50		 push	 eax
  00620	8b 4d 90	 mov	 ecx, DWORD PTR _this$[ebp]
  00623	8b 89 48 02 00
	00		 mov	 ecx, DWORD PTR [ecx+584]
  00629	e8 00 00 00 00	 call	 ?GetWindowRect@CWnd@@QBEXPAUtagRECT@@@Z ; CWnd::GetWindowRect

; 169  : 		MoveWindow(&rc);

  0062e	6a 01		 push	 1
  00630	8d 55 f0	 lea	 edx, DWORD PTR _rc$[ebp]
  00633	52		 push	 edx
  00634	8b 4d 90	 mov	 ecx, DWORD PTR _this$[ebp]
  00637	e8 00 00 00 00	 call	 ?MoveWindow@CWnd@@QAEXPBUtagRECT@@H@Z ; CWnd::MoveWindow

; 170  : 	}
; 171  : 	else

  0063c	e9 6b 02 00 00	 jmp	 $L199657
$L199659:

; 172  : 	{
; 173  : 		//if(m_bShowMV)
; 174  : 		//{
; 175  : 		//	CRect rc1, rc2;
; 176  : 		//	m_pControlWnd->GetWindowRect(&rc1);
; 177  : 		//	m_pPlistWnd->GetWindowRect(&rc2);
; 178  : 		//	CalResizingByMVRatio(rc1, rc2);
; 179  : 		//	this->ScreenToClient(&rc1);
; 180  : 		//	this->ScreenToClient(&rc2);
; 181  : 		//	m_pControlWnd->MoveWindow(&rc1);
; 182  : 		//	m_pPlistWnd->MoveWindow(&rc2);
; 183  : 		//}
; 184  : 		if(
; 185  : 			(( m_iDirection & DIRECTION_TOP) || ( m_iDirection & DIRECTION_BOTTOM) )
; 186  : 			&&  m_bShowMV )

  00641	8b 45 90	 mov	 eax, DWORD PTR _this$[ebp]
  00644	8b 88 9c 00 00
	00		 mov	 ecx, DWORD PTR [eax+156]
  0064a	83 e1 04	 and	 ecx, 4
  0064d	75 12		 jne	 SHORT $L199662
  0064f	8b 55 90	 mov	 edx, DWORD PTR _this$[ebp]
  00652	8b 82 9c 00 00
	00		 mov	 eax, DWORD PTR [edx+156]
  00658	83 e0 08	 and	 eax, 8
  0065b	0f 84 7c 01 00
	00		 je	 $L199661
$L199662:
  00661	8b 4d 90	 mov	 ecx, DWORD PTR _this$[ebp]
  00664	0f b6 91 34 02
	00 00		 movzx	 edx, BYTE PTR [ecx+564]
  0066b	85 d2		 test	 edx, edx
  0066d	0f 84 6a 01 00
	00		 je	 $L199661

; 187  : 		{
; 188  : 			CRect rcList;

  00673	8d 4d bc	 lea	 ecx, DWORD PTR _rcList$199663[ebp]
  00676	e8 00 00 00 00	 call	 ??0CRect@@QAE@XZ	; CRect::CRect

; 189  : 			m_pPlistWnd->GetWindowRect(&rcList);

  0067b	8d 45 bc	 lea	 eax, DWORD PTR _rcList$199663[ebp]
  0067e	50		 push	 eax
  0067f	8b 4d 90	 mov	 ecx, DWORD PTR _this$[ebp]
  00682	8b 89 4c 02 00
	00		 mov	 ecx, DWORD PTR [ecx+588]
  00688	e8 00 00 00 00	 call	 ?GetWindowRect@CWnd@@QBEXPAUtagRECT@@@Z ; CWnd::GetWindowRect

; 190  : 			int nControlWndHeight = rc.Height() - rcList.Height();

  0068d	8d 4d f0	 lea	 ecx, DWORD PTR _rc$[ebp]
  00690	e8 00 00 00 00	 call	 ?Height@CRect@@QBEHXZ	; CRect::Height
  00695	8b f0		 mov	 esi, eax
  00697	8d 4d bc	 lea	 ecx, DWORD PTR _rcList$199663[ebp]
  0069a	e8 00 00 00 00	 call	 ?Height@CRect@@QBEHXZ	; CRect::Height
  0069f	2b f0		 sub	 esi, eax
  006a1	89 75 ec	 mov	 DWORD PTR _nControlWndHeight$199664[ebp], esi

; 191  : 
; 192  : 			if(nControlWndHeight < DEFAULT_HEIGHT)

  006a4	81 7d ec 56 01
	00 00		 cmp	 DWORD PTR _nControlWndHeight$199664[ebp], 342 ; 00000156H
  006ab	7d 23		 jge	 SHORT $L199665

; 193  : 			{
; 194  : 				//playlist
; 195  : 				rcList.bottom = rcList.top + (rc.Height() - DEFAULT_HEIGHT);

  006ad	8d 4d f0	 lea	 ecx, DWORD PTR _rc$[ebp]
  006b0	e8 00 00 00 00	 call	 ?Height@CRect@@QBEHXZ	; CRect::Height
  006b5	8b 55 c0	 mov	 edx, DWORD PTR _rcList$199663[ebp+4]
  006b8	8d 84 02 aa fe
	ff ff		 lea	 eax, DWORD PTR [edx+eax-342]
  006bf	89 45 c8	 mov	 DWORD PTR _rcList$199663[ebp+12], eax

; 196  : 				rc.bottom = rc.top + DEFAULT_HEIGHT;

  006c2	8b 4d f4	 mov	 ecx, DWORD PTR _rc$[ebp+4]
  006c5	81 c1 56 01 00
	00		 add	 ecx, 342		; 00000156H
  006cb	89 4d fc	 mov	 DWORD PTR _rc$[ebp+12], ecx

; 197  : 			}
; 198  : 			else

  006ce	eb 09		 jmp	 SHORT $L199666
$L199665:

; 199  : 				rc.bottom = rc.top + nControlWndHeight;

  006d0	8b 55 f4	 mov	 edx, DWORD PTR _rc$[ebp+4]
  006d3	03 55 ec	 add	 edx, DWORD PTR _nControlWndHeight$199664[ebp]
  006d6	89 55 fc	 mov	 DWORD PTR _rc$[ebp+12], edx
$L199666:

; 200  : 
; 201  : 			CRect rcControl, rcPlaylist;

  006d9	8d 4d cc	 lea	 ecx, DWORD PTR _rcControl$199667[ebp]
  006dc	e8 00 00 00 00	 call	 ??0CRect@@QAE@XZ	; CRect::CRect
  006e1	8d 4d dc	 lea	 ecx, DWORD PTR _rcPlaylist$199668[ebp]
  006e4	e8 00 00 00 00	 call	 ??0CRect@@QAE@XZ	; CRect::CRect

; 202  : 			rcControl = rc;

  006e9	8b 45 f0	 mov	 eax, DWORD PTR _rc$[ebp]
  006ec	89 45 cc	 mov	 DWORD PTR _rcControl$199667[ebp], eax
  006ef	8b 4d f4	 mov	 ecx, DWORD PTR _rc$[ebp+4]
  006f2	89 4d d0	 mov	 DWORD PTR _rcControl$199667[ebp+4], ecx
  006f5	8b 55 f8	 mov	 edx, DWORD PTR _rc$[ebp+8]
  006f8	89 55 d4	 mov	 DWORD PTR _rcControl$199667[ebp+8], edx
  006fb	8b 45 fc	 mov	 eax, DWORD PTR _rc$[ebp+12]
  006fe	89 45 d8	 mov	 DWORD PTR _rcControl$199667[ebp+12], eax

; 203  : 			//
; 204  : 			rc.top = rc.Height();

  00701	8d 4d f0	 lea	 ecx, DWORD PTR _rc$[ebp]
  00704	e8 00 00 00 00	 call	 ?Height@CRect@@QBEHXZ	; CRect::Height
  00709	89 45 f4	 mov	 DWORD PTR _rc$[ebp+4], eax

; 205  : 			rc.bottom = rc.top + rcList.Height();

  0070c	8d 4d bc	 lea	 ecx, DWORD PTR _rcList$199663[ebp]
  0070f	e8 00 00 00 00	 call	 ?Height@CRect@@QBEHXZ	; CRect::Height
  00714	03 45 f4	 add	 eax, DWORD PTR _rc$[ebp+4]
  00717	89 45 fc	 mov	 DWORD PTR _rc$[ebp+12], eax

; 206  : 			rcPlaylist = rc;

  0071a	8b 4d f0	 mov	 ecx, DWORD PTR _rc$[ebp]
  0071d	89 4d dc	 mov	 DWORD PTR _rcPlaylist$199668[ebp], ecx
  00720	8b 55 f4	 mov	 edx, DWORD PTR _rc$[ebp+4]
  00723	89 55 e0	 mov	 DWORD PTR _rcPlaylist$199668[ebp+4], edx
  00726	8b 45 f8	 mov	 eax, DWORD PTR _rc$[ebp+8]
  00729	89 45 e4	 mov	 DWORD PTR _rcPlaylist$199668[ebp+8], eax
  0072c	8b 4d fc	 mov	 ecx, DWORD PTR _rc$[ebp+12]
  0072f	89 4d e8	 mov	 DWORD PTR _rcPlaylist$199668[ebp+12], ecx

; 207  : 			CalResizingByMVRatio(rcControl,rcPlaylist);

  00732	8d 55 dc	 lea	 edx, DWORD PTR _rcPlaylist$199668[ebp]
  00735	52		 push	 edx
  00736	8d 45 cc	 lea	 eax, DWORD PTR _rcControl$199667[ebp]
  00739	50		 push	 eax
  0073a	8b 4d 90	 mov	 ecx, DWORD PTR _this$[ebp]
  0073d	e8 00 00 00 00	 call	 ?CalResizingByMVRatio@CMainHostWnd@@QAEXAAVCRect@@0@Z ; CMainHostWnd::CalResizingByMVRatio

; 208  : 			//play
; 209  : 			if(rcPlaylist.Height() < PLAYLIST_MIN_HEIGHT)

  00742	8d 4d dc	 lea	 ecx, DWORD PTR _rcPlaylist$199668[ebp]
  00745	e8 00 00 00 00	 call	 ?Height@CRect@@QBEHXZ	; CRect::Height
  0074a	3d d2 00 00 00	 cmp	 eax, 210		; 000000d2H
  0074f	7d 5f		 jge	 SHORT $L199669

; 210  : 			{
; 211  : 				CRect rect;

  00751	8d 4d a8	 lea	 ecx, DWORD PTR _rect$199670[ebp]
  00754	e8 00 00 00 00	 call	 ??0CRect@@QAE@XZ	; CRect::CRect

; 212  : 				this->GetWindowRect(&rect);

  00759	8d 4d a8	 lea	 ecx, DWORD PTR _rect$199670[ebp]
  0075c	51		 push	 ecx
  0075d	8b 4d 90	 mov	 ecx, DWORD PTR _this$[ebp]
  00760	e8 00 00 00 00	 call	 ?GetWindowRect@CWnd@@QBEXPAUtagRECT@@@Z ; CWnd::GetWindowRect

; 213  : 
; 214  : 				int bottom = (rcControl.bottom < rcPlaylist.bottom) ? rcPlaylist.bottom: rcControl.bottom;

  00765	8b 55 d8	 mov	 edx, DWORD PTR _rcControl$199667[ebp+12]
  00768	3b 55 e8	 cmp	 edx, DWORD PTR _rcPlaylist$199668[ebp+12]
  0076b	7d 08		 jge	 SHORT $L200905
  0076d	8b 45 e8	 mov	 eax, DWORD PTR _rcPlaylist$199668[ebp+12]
  00770	89 45 8c	 mov	 DWORD PTR tv152[ebp], eax
  00773	eb 06		 jmp	 SHORT $L200906
$L200905:
  00775	8b 4d d8	 mov	 ecx, DWORD PTR _rcControl$199667[ebp+12]
  00778	89 4d 8c	 mov	 DWORD PTR tv152[ebp], ecx
$L200906:
  0077b	8b 55 8c	 mov	 edx, DWORD PTR tv152[ebp]
  0077e	89 55 b8	 mov	 DWORD PTR _bottom$199671[ebp], edx

; 215  : 				if(bottom > rect.Height())

  00781	8d 4d a8	 lea	 ecx, DWORD PTR _rect$199670[ebp]
  00784	e8 00 00 00 00	 call	 ?Height@CRect@@QBEHXZ	; CRect::Height
  00789	39 45 b8	 cmp	 DWORD PTR _bottom$199671[ebp], eax
  0078c	7e 0b		 jle	 SHORT $L199672

; 216  : 					bottom = rect.Height();

  0078e	8d 4d a8	 lea	 ecx, DWORD PTR _rect$199670[ebp]
  00791	e8 00 00 00 00	 call	 ?Height@CRect@@QBEHXZ	; CRect::Height
  00796	89 45 b8	 mov	 DWORD PTR _bottom$199671[ebp], eax
$L199672:

; 217  : 				rcControl.bottom = bottom - PLAYLIST_MIN_HEIGHT;

  00799	8b 45 b8	 mov	 eax, DWORD PTR _bottom$199671[ebp]
  0079c	2d d2 00 00 00	 sub	 eax, 210		; 000000d2H
  007a1	89 45 d8	 mov	 DWORD PTR _rcControl$199667[ebp+12], eax

; 218  : 				rcPlaylist.top = rcControl.bottom;

  007a4	8b 4d d8	 mov	 ecx, DWORD PTR _rcControl$199667[ebp+12]
  007a7	89 4d e0	 mov	 DWORD PTR _rcPlaylist$199668[ebp+4], ecx

; 219  : 				rcPlaylist.bottom = bottom;

  007aa	8b 55 b8	 mov	 edx, DWORD PTR _bottom$199671[ebp]
  007ad	89 55 e8	 mov	 DWORD PTR _rcPlaylist$199668[ebp+12], edx
$L199669:

; 220  : 			}
; 221  : 			m_pControlWnd->MoveWindow(&rcControl);

  007b0	6a 01		 push	 1
  007b2	8d 45 cc	 lea	 eax, DWORD PTR _rcControl$199667[ebp]
  007b5	50		 push	 eax
  007b6	8b 4d 90	 mov	 ecx, DWORD PTR _this$[ebp]
  007b9	8b 89 48 02 00
	00		 mov	 ecx, DWORD PTR [ecx+584]
  007bf	e8 00 00 00 00	 call	 ?MoveWindow@CWnd@@QAEXPBUtagRECT@@H@Z ; CWnd::MoveWindow

; 222  : 			m_pPlistWnd->MoveWindow(&rcPlaylist);

  007c4	6a 01		 push	 1
  007c6	8d 55 dc	 lea	 edx, DWORD PTR _rcPlaylist$199668[ebp]
  007c9	52		 push	 edx
  007ca	8b 45 90	 mov	 eax, DWORD PTR _this$[ebp]
  007cd	8b 88 4c 02 00
	00		 mov	 ecx, DWORD PTR [eax+588]
  007d3	e8 00 00 00 00	 call	 ?MoveWindow@CWnd@@QAEXPBUtagRECT@@H@Z ; CWnd::MoveWindow

; 223  : 		}
; 224  : 		else

  007d8	e9 cf 00 00 00	 jmp	 $L199657
$L199661:

; 225  : 		{
; 226  : 			CRect rcControl;

  007dd	8d 4d 98	 lea	 ecx, DWORD PTR _rcControl$199674[ebp]
  007e0	e8 00 00 00 00	 call	 ??0CRect@@QAE@XZ	; CRect::CRect

; 227  : 			m_pControlWnd->GetClientRect(&rcControl);

  007e5	8d 4d 98	 lea	 ecx, DWORD PTR _rcControl$199674[ebp]
  007e8	51		 push	 ecx
  007e9	8b 55 90	 mov	 edx, DWORD PTR _this$[ebp]
  007ec	8b 8a 48 02 00
	00		 mov	 ecx, DWORD PTR [edx+584]
  007f2	e8 00 00 00 00	 call	 ?GetClientRect@CWnd@@QBEXPAUtagRECT@@@Z ; CWnd::GetClientRect

; 228  : 
; 229  : 			if(!m_bShowMV && rcControl.Height() < 127)

  007f7	8b 45 90	 mov	 eax, DWORD PTR _this$[ebp]
  007fa	0f b6 88 34 02
	00 00		 movzx	 ecx, BYTE PTR [eax+564]
  00801	85 c9		 test	 ecx, ecx
  00803	75 16		 jne	 SHORT $L199675
  00805	8d 4d 98	 lea	 ecx, DWORD PTR _rcControl$199674[ebp]
  00808	e8 00 00 00 00	 call	 ?Height@CRect@@QBEHXZ	; CRect::Height
  0080d	83 f8 7f	 cmp	 eax, 127		; 0000007fH
  00810	7d 09		 jge	 SHORT $L199675

; 230  : 				rcControl.bottom += 127;

  00812	8b 55 a4	 mov	 edx, DWORD PTR _rcControl$199674[ebp+12]
  00815	83 c2 7f	 add	 edx, 127		; 0000007fH
  00818	89 55 a4	 mov	 DWORD PTR _rcControl$199674[ebp+12], edx
$L199675:

; 231  : 
; 232  : 			int nPlaylistHeight = rc.Height() - rcControl.Height();

  0081b	8d 4d f0	 lea	 ecx, DWORD PTR _rc$[ebp]
  0081e	e8 00 00 00 00	 call	 ?Height@CRect@@QBEHXZ	; CRect::Height
  00823	8b f0		 mov	 esi, eax
  00825	8d 4d 98	 lea	 ecx, DWORD PTR _rcControl$199674[ebp]
  00828	e8 00 00 00 00	 call	 ?Height@CRect@@QBEHXZ	; CRect::Height
  0082d	2b f0		 sub	 esi, eax
  0082f	89 75 94	 mov	 DWORD PTR _nPlaylistHeight$199676[ebp], esi

; 233  : 
; 234  : 			if(nPlaylistHeight < PLAYLIST_MIN_HEIGHT)

  00832	81 7d 94 d2 00
	00 00		 cmp	 DWORD PTR _nPlaylistHeight$199676[ebp], 210 ; 000000d2H
  00839	7d 0b		 jge	 SHORT $L199677

; 235  : 			{
; 236  : 				rcControl.bottom = rc.bottom - PLAYLIST_MIN_HEIGHT;

  0083b	8b 45 fc	 mov	 eax, DWORD PTR _rc$[ebp+12]
  0083e	2d d2 00 00 00	 sub	 eax, 210		; 000000d2H
  00843	89 45 a4	 mov	 DWORD PTR _rcControl$199674[ebp+12], eax
$L199677:

; 237  : 			}
; 238  : 			
; 239  : 
; 240  : 			//if(nPlaylistHeight < 0)
; 241  : 			//	return;
; 242  : 			if(m_bShowMV && rcControl.Height() < DEFAULT_HEIGHT)

  00846	8b 4d 90	 mov	 ecx, DWORD PTR _this$[ebp]
  00849	0f b6 91 34 02
	00 00		 movzx	 edx, BYTE PTR [ecx+564]
  00850	85 d2		 test	 edx, edx
  00852	74 1a		 je	 SHORT $L199678
  00854	8d 4d 98	 lea	 ecx, DWORD PTR _rcControl$199674[ebp]
  00857	e8 00 00 00 00	 call	 ?Height@CRect@@QBEHXZ	; CRect::Height
  0085c	3d 56 01 00 00	 cmp	 eax, 342		; 00000156H
  00861	7d 0b		 jge	 SHORT $L199678

; 243  : 			{
; 244  : 				rcControl.bottom = rcControl.top + DEFAULT_HEIGHT;

  00863	8b 45 9c	 mov	 eax, DWORD PTR _rcControl$199674[ebp+4]
  00866	05 56 01 00 00	 add	 eax, 342		; 00000156H
  0086b	89 45 a4	 mov	 DWORD PTR _rcControl$199674[ebp+12], eax
$L199678:

; 245  : 			}
; 246  : 			rc.top = rcControl.Height();

  0086e	8d 4d 98	 lea	 ecx, DWORD PTR _rcControl$199674[ebp]
  00871	e8 00 00 00 00	 call	 ?Height@CRect@@QBEHXZ	; CRect::Height
  00876	89 45 f4	 mov	 DWORD PTR _rc$[ebp+4], eax

; 247  : 			m_pPlistWnd->MoveWindow(rc);

  00879	6a 01		 push	 1
  0087b	8d 4d f0	 lea	 ecx, DWORD PTR _rc$[ebp]
  0087e	e8 00 00 00 00	 call	 ??BCRect@@QAEPAUtagRECT@@XZ ; CRect::operator tagRECT *
  00883	50		 push	 eax
  00884	8b 4d 90	 mov	 ecx, DWORD PTR _this$[ebp]
  00887	8b 89 4c 02 00
	00		 mov	 ecx, DWORD PTR [ecx+588]
  0088d	e8 00 00 00 00	 call	 ?MoveWindow@CWnd@@QAEXPBUtagRECT@@H@Z ; CWnd::MoveWindow

; 248  : 
; 249  : 			rcControl.right = rc.right;

  00892	8b 55 f8	 mov	 edx, DWORD PTR _rc$[ebp+8]
  00895	89 55 a0	 mov	 DWORD PTR _rcControl$199674[ebp+8], edx

; 250  : 			m_pControlWnd->MoveWindow(&rcControl);

  00898	6a 01		 push	 1
  0089a	8d 45 98	 lea	 eax, DWORD PTR _rcControl$199674[ebp]
  0089d	50		 push	 eax
  0089e	8b 4d 90	 mov	 ecx, DWORD PTR _this$[ebp]
  008a1	8b 89 48 02 00
	00		 mov	 ecx, DWORD PTR [ecx+584]
  008a7	e8 00 00 00 00	 call	 ?MoveWindow@CWnd@@QAEXPBUtagRECT@@H@Z ; CWnd::MoveWindow
$L199657:

; 251  : 		}
; 252  : 	}
; 253  : }

  008ac	5e		 pop	 esi
  008ad	8b e5		 mov	 esp, ebp
  008af	5d		 pop	 ebp
  008b0	c3		 ret	 0
?MoveContent@CMainHostWnd@@AAEXXZ ENDP			; CMainHostWnd::MoveContent
_TEXT	ENDS
PUBLIC	?ChangeWatchMode@CMainHostWnd@@QAEXXZ		; CMainHostWnd::ChangeWatchMode
PUBLIC	?MoveMvSize@CMainHostWnd@@QAEXHH@Z		; CMainHostWnd::MoveMvSize
EXTRN	__imp_??0?$CStringT@DV?$StrTraitMFC_DLL@DV?$ChTraitsCRT@D@ATL@@@@@ATL@@QAE@ABV01@@Z:NEAR
EXTRN	__imp_?LogUserActMsg@@YAXABV?$basic_string@DU?$char_traits@D@std@@V?$allocator@D@2@@std@@0@Z:NEAR
EXTRN	?GetInstance@CHostWndMgr@@SAPAV1@XZ:NEAR	; CHostWndMgr::GetInstance
EXTRN	?ShowPopupWndsBeforeMainChange@CHostWndMgr@@QAEXH@Z:NEAR ; CHostWndMgr::ShowPopupWndsBeforeMainChange
EXTRN	?ShowPopupWndsAfterMainChange@CHostWndMgr@@QAEXH@Z:NEAR ; CHostWndMgr::ShowPopupWndsAfterMainChange
EXTRN	__imp_??0?$basic_string@DU?$char_traits@D@std@@V?$allocator@D@2@@std@@QAE@PBD@Z:NEAR
EXTRN	__imp_??1?$basic_string@DU?$char_traits@D@std@@V?$allocator@D@2@@std@@QAE@XZ:NEAR
xdata$x	SEGMENT
$T200948 DD	0ffffffffH
	DD	FLAT:$L200926
	DD	0ffffffffH
	DD	FLAT:$L200927
	DD	0ffffffffH
	DD	FLAT:$L200928
	DD	02H
	DD	FLAT:$L200929
	DD	03H
	DD	FLAT:$L200930
	DD	02H
	DD	FLAT:$L200931
	DD	05H
	DD	FLAT:$L200932
	DD	02H
	DD	FLAT:$L200933
	DD	07H
	DD	FLAT:$L200934
	DD	02H
	DD	FLAT:$L200935
	DD	09H
	DD	FLAT:$L200936
	DD	02H
	DD	FLAT:$L200937
	DD	0bH
	DD	FLAT:$L200938
	DD	02H
	DD	FLAT:$L200939
	DD	0dH
	DD	FLAT:$L200940
	DD	02H
	DD	FLAT:$L200941
	DD	0fH
	DD	FLAT:$L200942
	DD	02H
	DD	FLAT:$L200943
	DD	011H
	DD	FLAT:$L200944
$T200946 DD	019930520H
	DD	013H
	DD	FLAT:$T200948
	DD	2 DUP(00H)
	DD	2 DUP(00H)
; Function compile flags: /Odt
xdata$x	ENDS
_TEXT	SEGMENT
tv371 = -396						; size = 4
tv366 = -392						; size = 4
tv479 = -388						; size = 4
tv497 = -384						; size = 4
tv476 = -380						; size = 4
tv496 = -376						; size = 4
tv325 = -372						; size = 4
tv320 = -368						; size = 4
tv474 = -364						; size = 4
tv495 = -360						; size = 4
tv471 = -356						; size = 4
tv494 = -352						; size = 4
tv287 = -348						; size = 4
tv282 = -344						; size = 4
tv469 = -340						; size = 4
tv493 = -336						; size = 4
tv466 = -332						; size = 4
tv492 = -328						; size = 4
tv243 = -324						; size = 4
tv238 = -320						; size = 4
tv464 = -316						; size = 4
tv491 = -312						; size = 4
tv461 = -308						; size = 4
tv490 = -304						; size = 4
tv205 = -300						; size = 4
tv200 = -296						; size = 4
tv459 = -292						; size = 4
tv489 = -288						; size = 4
tv456 = -284						; size = 4
tv488 = -280						; size = 4
tv165 = -276						; size = 4
tv160 = -272						; size = 4
tv454 = -268						; size = 4
tv487 = -264						; size = 4
tv451 = -260						; size = 4
tv486 = -256						; size = 4
tv448 = -252						; size = 4
tv131 = -248						; size = 4
tv94 = -244						; size = 4
tv447 = -240						; size = 4
tv485 = -236						; size = 4
tv445 = -232						; size = 4
tv74 = -228						; size = 4
tv69 = -224						; size = 4
tv444 = -220						; size = 4
tv484 = -216						; size = 4
_this$ = -212						; size = 4
$T200925 = -208						; size = 28
$T200924 = -180						; size = 28
$T200923 = -152						; size = 28
$T200922 = -124						; size = 28
$T200921 = -96						; size = 4
$T200920 = -92						; size = 4
$T200919 = -88						; size = 4
$T200918 = -84						; size = 4
$T200917 = -80						; size = 4
$T200916 = -76						; size = 4
$T200915 = -72						; size = 4
$T200914 = -68						; size = 4
$T200913 = -64						; size = 4
$T200912 = -60						; size = 4
$T200911 = -56						; size = 4
$T200910 = -52						; size = 4
$T200909 = -48						; size = 4
$T200908 = -44						; size = 4
_bKeepMVSize$ = -37					; size = 1
_pWnd$ = -36						; size = 4
_strCur$ = -32						; size = 4
_rc$ = -28						; size = 16
__$EHRec$ = -12						; size = 12
?ChangeWatchMode@CMainHostWnd@@QAEXXZ PROC NEAR		; CMainHostWnd::ChangeWatchMode
; _this$ = ecx

; 256  : {

  008c0	55		 push	 ebp
  008c1	8b ec		 mov	 ebp, esp
  008c3	6a ff		 push	 -1
  008c5	68 00 00 00 00	 push	 __ehhandler$?ChangeWatchMode@CMainHostWnd@@QAEXXZ
  008ca	64 a1 00 00 00
	00		 mov	 eax, DWORD PTR fs:__except_list
  008d0	50		 push	 eax
  008d1	64 89 25 00 00
	00 00		 mov	 DWORD PTR fs:__except_list, esp
  008d8	81 ec 80 01 00
	00		 sub	 esp, 384		; 00000180H
  008de	89 8d 2c ff ff
	ff		 mov	 DWORD PTR _this$[ebp], ecx

; 257  : 	CRect rc;

  008e4	8d 4d e4	 lea	 ecx, DWORD PTR _rc$[ebp]
  008e7	e8 00 00 00 00	 call	 ??0CRect@@QAE@XZ	; CRect::CRect

; 258  : 	this->GetWindowRect(&rc);

  008ec	8d 45 e4	 lea	 eax, DWORD PTR _rc$[ebp]
  008ef	50		 push	 eax
  008f0	8b 8d 2c ff ff
	ff		 mov	 ecx, DWORD PTR _this$[ebp]
  008f6	e8 00 00 00 00	 call	 ?GetWindowRect@CWnd@@QBEXPAUtagRECT@@@Z ; CWnd::GetWindowRect

; 259  : 	CWnd *pWnd = ::AfxGetUIManager()->UIGetLayoutMgr()->GetWnd("ControlPanel");

  008fb	51		 push	 ecx
  008fc	8b cc		 mov	 ecx, esp
  008fe	89 65 d4	 mov	 DWORD PTR $T200908[ebp], esp
  00901	68 00 00 00 00	 push	 OFFSET FLAT:$SG199685
  00906	ff 15 00 00 00
	00		 call	 DWORD PTR __imp_??0?$CStringT@DV?$StrTraitMFC_DLL@DV?$ChTraitsCRT@D@ATL@@@@@ATL@@QAE@PBD@Z
  0090c	89 85 28 ff ff
	ff		 mov	 DWORD PTR tv484[ebp], eax
  00912	8b 8d 28 ff ff
	ff		 mov	 ecx, DWORD PTR tv484[ebp]
  00918	89 8d 24 ff ff
	ff		 mov	 DWORD PTR tv444[ebp], ecx
  0091e	c7 45 fc 00 00
	00 00		 mov	 DWORD PTR __$EHRec$[ebp+8], 0
  00925	e8 00 00 00 00	 call	 ?AfxGetUIManager@@YAPAVIUIManager@@XZ ; AfxGetUIManager
  0092a	89 85 20 ff ff
	ff		 mov	 DWORD PTR tv69[ebp], eax
  00930	8b 95 20 ff ff
	ff		 mov	 edx, DWORD PTR tv69[ebp]
  00936	8b 02		 mov	 eax, DWORD PTR [edx]
  00938	8b 8d 20 ff ff
	ff		 mov	 ecx, DWORD PTR tv69[ebp]
  0093e	ff 50 24	 call	 DWORD PTR [eax+36]
  00941	89 85 1c ff ff
	ff		 mov	 DWORD PTR tv74[ebp], eax
  00947	8b 8d 1c ff ff
	ff		 mov	 ecx, DWORD PTR tv74[ebp]
  0094d	8b 11		 mov	 edx, DWORD PTR [ecx]
  0094f	c7 45 fc ff ff
	ff ff		 mov	 DWORD PTR __$EHRec$[ebp+8], -1
  00956	8b 8d 1c ff ff
	ff		 mov	 ecx, DWORD PTR tv74[ebp]
  0095c	ff 52 2c	 call	 DWORD PTR [edx+44]
  0095f	89 85 18 ff ff
	ff		 mov	 DWORD PTR tv445[ebp], eax
  00965	8b 85 18 ff ff
	ff		 mov	 eax, DWORD PTR tv445[ebp]
  0096b	89 45 dc	 mov	 DWORD PTR _pWnd$[ebp], eax

; 260  : 	bool bKeepMVSize = false;

  0096e	c6 45 db 00	 mov	 BYTE PTR _bKeepMVSize$[ebp], 0

; 261  : 	CString strCur = ::AfxGetUIManager()->UIGetLayoutMgr()->GetCurrentLayer("MultiNowPlaying");

  00972	51		 push	 ecx
  00973	8b cc		 mov	 ecx, esp
  00975	89 65 d0	 mov	 DWORD PTR $T200909[ebp], esp
  00978	68 00 00 00 00	 push	 OFFSET FLAT:$SG199690
  0097d	ff 15 00 00 00
	00		 call	 DWORD PTR __imp_??0?$CStringT@DV?$StrTraitMFC_DLL@DV?$ChTraitsCRT@D@ATL@@@@@ATL@@QAE@PBD@Z
  00983	89 85 14 ff ff
	ff		 mov	 DWORD PTR tv485[ebp], eax
  00989	8b 8d 14 ff ff
	ff		 mov	 ecx, DWORD PTR tv485[ebp]
  0098f	89 8d 10 ff ff
	ff		 mov	 DWORD PTR tv447[ebp], ecx
  00995	c7 45 fc 01 00
	00 00		 mov	 DWORD PTR __$EHRec$[ebp+8], 1
  0099c	e8 00 00 00 00	 call	 ?AfxGetUIManager@@YAPAVIUIManager@@XZ ; AfxGetUIManager
  009a1	89 85 0c ff ff
	ff		 mov	 DWORD PTR tv94[ebp], eax
  009a7	8b 95 0c ff ff
	ff		 mov	 edx, DWORD PTR tv94[ebp]
  009ad	8b 02		 mov	 eax, DWORD PTR [edx]
  009af	8b 8d 0c ff ff
	ff		 mov	 ecx, DWORD PTR tv94[ebp]
  009b5	ff 50 24	 call	 DWORD PTR [eax+36]
  009b8	89 85 08 ff ff
	ff		 mov	 DWORD PTR tv131[ebp], eax
  009be	8d 4d e0	 lea	 ecx, DWORD PTR _strCur$[ebp]
  009c1	51		 push	 ecx
  009c2	8b 95 08 ff ff
	ff		 mov	 edx, DWORD PTR tv131[ebp]
  009c8	8b 02		 mov	 eax, DWORD PTR [edx]
  009ca	c7 45 fc ff ff
	ff ff		 mov	 DWORD PTR __$EHRec$[ebp+8], -1
  009d1	8b 8d 08 ff ff
	ff		 mov	 ecx, DWORD PTR tv131[ebp]
  009d7	ff 50 28	 call	 DWORD PTR [eax+40]
  009da	89 85 04 ff ff
	ff		 mov	 DWORD PTR tv448[ebp], eax
  009e0	c7 45 fc 02 00
	00 00		 mov	 DWORD PTR __$EHRec$[ebp+8], 2

; 262  : 	if(m_bShowMV)

  009e7	8b 8d 2c ff ff
	ff		 mov	 ecx, DWORD PTR _this$[ebp]
  009ed	0f b6 91 34 02
	00 00		 movzx	 edx, BYTE PTR [ecx+564]
  009f4	85 d2		 test	 edx, edx
  009f6	0f 84 d3 01 00
	00		 je	 $L199691

; 263  : 	{
; 264  : 		m_pControlWnd->GetWindowRect(&rc);

  009fc	8d 45 e4	 lea	 eax, DWORD PTR _rc$[ebp]
  009ff	50		 push	 eax
  00a00	8b 8d 2c ff ff
	ff		 mov	 ecx, DWORD PTR _this$[ebp]
  00a06	8b 89 48 02 00
	00		 mov	 ecx, DWORD PTR [ecx+584]
  00a0c	e8 00 00 00 00	 call	 ?GetWindowRect@CWnd@@QBEXPAUtagRECT@@@Z ; CWnd::GetWindowRect

; 265  : 		::AfxGetUIManager()->UIGetLayoutMgr()->SaveWndPanel("ControlPanel", "watchmode");

  00a11	51		 push	 ecx
  00a12	8b cc		 mov	 ecx, esp
  00a14	89 65 cc	 mov	 DWORD PTR $T200910[ebp], esp
  00a17	68 00 00 00 00	 push	 OFFSET FLAT:$SG199694
  00a1c	ff 15 00 00 00
	00		 call	 DWORD PTR __imp_??0?$CStringT@DV?$StrTraitMFC_DLL@DV?$ChTraitsCRT@D@ATL@@@@@ATL@@QAE@PBD@Z
  00a22	89 85 00 ff ff
	ff		 mov	 DWORD PTR tv486[ebp], eax
  00a28	8b 95 00 ff ff
	ff		 mov	 edx, DWORD PTR tv486[ebp]
  00a2e	89 95 fc fe ff
	ff		 mov	 DWORD PTR tv451[ebp], edx
  00a34	c6 45 fc 03	 mov	 BYTE PTR __$EHRec$[ebp+8], 3
  00a38	51		 push	 ecx
  00a39	8b cc		 mov	 ecx, esp
  00a3b	89 65 c8	 mov	 DWORD PTR $T200911[ebp], esp
  00a3e	68 00 00 00 00	 push	 OFFSET FLAT:$SG199695
  00a43	ff 15 00 00 00
	00		 call	 DWORD PTR __imp_??0?$CStringT@DV?$StrTraitMFC_DLL@DV?$ChTraitsCRT@D@ATL@@@@@ATL@@QAE@PBD@Z
  00a49	89 85 f8 fe ff
	ff		 mov	 DWORD PTR tv487[ebp], eax
  00a4f	8b 85 f8 fe ff
	ff		 mov	 eax, DWORD PTR tv487[ebp]
  00a55	89 85 f4 fe ff
	ff		 mov	 DWORD PTR tv454[ebp], eax
  00a5b	c6 45 fc 04	 mov	 BYTE PTR __$EHRec$[ebp+8], 4
  00a5f	e8 00 00 00 00	 call	 ?AfxGetUIManager@@YAPAVIUIManager@@XZ ; AfxGetUIManager
  00a64	89 85 f0 fe ff
	ff		 mov	 DWORD PTR tv160[ebp], eax
  00a6a	8b 8d f0 fe ff
	ff		 mov	 ecx, DWORD PTR tv160[ebp]
  00a70	8b 11		 mov	 edx, DWORD PTR [ecx]
  00a72	8b 8d f0 fe ff
	ff		 mov	 ecx, DWORD PTR tv160[ebp]
  00a78	ff 52 24	 call	 DWORD PTR [edx+36]
  00a7b	89 85 ec fe ff
	ff		 mov	 DWORD PTR tv165[ebp], eax
  00a81	8b 85 ec fe ff
	ff		 mov	 eax, DWORD PTR tv165[ebp]
  00a87	8b 10		 mov	 edx, DWORD PTR [eax]
  00a89	c6 45 fc 02	 mov	 BYTE PTR __$EHRec$[ebp+8], 2
  00a8d	8b 8d ec fe ff
	ff		 mov	 ecx, DWORD PTR tv165[ebp]
  00a93	ff 52 30	 call	 DWORD PTR [edx+48]

; 266  : 		CHostWndMgr::GetInstance()->ShowPopupWndsBeforeMainChange(false);

  00a96	6a 00		 push	 0
  00a98	e8 00 00 00 00	 call	 ?GetInstance@CHostWndMgr@@SAPAV1@XZ ; CHostWndMgr::GetInstance
  00a9d	8b c8		 mov	 ecx, eax
  00a9f	e8 00 00 00 00	 call	 ?ShowPopupWndsBeforeMainChange@CHostWndMgr@@QAEXH@Z ; CHostWndMgr::ShowPopupWndsBeforeMainChange

; 267  : 		::AfxGetUIManager()->UIGetLayoutMgr()->CreateControlPane( pWnd,"ControlPanel", "normal");

  00aa4	51		 push	 ecx
  00aa5	8b cc		 mov	 ecx, esp
  00aa7	89 65 c4	 mov	 DWORD PTR $T200912[ebp], esp
  00aaa	68 00 00 00 00	 push	 OFFSET FLAT:$SG199698
  00aaf	ff 15 00 00 00
	00		 call	 DWORD PTR __imp_??0?$CStringT@DV?$StrTraitMFC_DLL@DV?$ChTraitsCRT@D@ATL@@@@@ATL@@QAE@PBD@Z
  00ab5	89 85 e8 fe ff
	ff		 mov	 DWORD PTR tv488[ebp], eax
  00abb	8b 85 e8 fe ff
	ff		 mov	 eax, DWORD PTR tv488[ebp]
  00ac1	89 85 e4 fe ff
	ff		 mov	 DWORD PTR tv456[ebp], eax
  00ac7	c6 45 fc 05	 mov	 BYTE PTR __$EHRec$[ebp+8], 5
  00acb	51		 push	 ecx
  00acc	8b cc		 mov	 ecx, esp
  00ace	89 65 c0	 mov	 DWORD PTR $T200913[ebp], esp
  00ad1	68 00 00 00 00	 push	 OFFSET FLAT:$SG199699
  00ad6	ff 15 00 00 00
	00		 call	 DWORD PTR __imp_??0?$CStringT@DV?$StrTraitMFC_DLL@DV?$ChTraitsCRT@D@ATL@@@@@ATL@@QAE@PBD@Z
  00adc	89 85 e0 fe ff
	ff		 mov	 DWORD PTR tv489[ebp], eax
  00ae2	8b 8d e0 fe ff
	ff		 mov	 ecx, DWORD PTR tv489[ebp]
  00ae8	89 8d dc fe ff
	ff		 mov	 DWORD PTR tv459[ebp], ecx
  00aee	c6 45 fc 06	 mov	 BYTE PTR __$EHRec$[ebp+8], 6
  00af2	e8 00 00 00 00	 call	 ?AfxGetUIManager@@YAPAVIUIManager@@XZ ; AfxGetUIManager
  00af7	89 85 d8 fe ff
	ff		 mov	 DWORD PTR tv200[ebp], eax
  00afd	8b 95 d8 fe ff
	ff		 mov	 edx, DWORD PTR tv200[ebp]
  00b03	8b 02		 mov	 eax, DWORD PTR [edx]
  00b05	8b 8d d8 fe ff
	ff		 mov	 ecx, DWORD PTR tv200[ebp]
  00b0b	ff 50 24	 call	 DWORD PTR [eax+36]
  00b0e	89 85 d4 fe ff
	ff		 mov	 DWORD PTR tv205[ebp], eax
  00b14	8b 4d dc	 mov	 ecx, DWORD PTR _pWnd$[ebp]
  00b17	51		 push	 ecx
  00b18	8b 95 d4 fe ff
	ff		 mov	 edx, DWORD PTR tv205[ebp]
  00b1e	8b 02		 mov	 eax, DWORD PTR [edx]
  00b20	c6 45 fc 02	 mov	 BYTE PTR __$EHRec$[ebp+8], 2
  00b24	8b 8d d4 fe ff
	ff		 mov	 ecx, DWORD PTR tv205[ebp]
  00b2a	ff 50 38	 call	 DWORD PTR [eax+56]

; 268  : 		::AfxGetUIManager()->UIGetLayoutMgr()->CreateBmpPane( pWnd,"ControlPanel","normal");

  00b2d	51		 push	 ecx
  00b2e	8b cc		 mov	 ecx, esp
  00b30	89 65 bc	 mov	 DWORD PTR $T200914[ebp], esp
  00b33	68 00 00 00 00	 push	 OFFSET FLAT:$SG199702
  00b38	ff 15 00 00 00
	00		 call	 DWORD PTR __imp_??0?$CStringT@DV?$StrTraitMFC_DLL@DV?$ChTraitsCRT@D@ATL@@@@@ATL@@QAE@PBD@Z
  00b3e	89 85 d0 fe ff
	ff		 mov	 DWORD PTR tv490[ebp], eax
  00b44	8b 8d d0 fe ff
	ff		 mov	 ecx, DWORD PTR tv490[ebp]
  00b4a	89 8d cc fe ff
	ff		 mov	 DWORD PTR tv461[ebp], ecx
  00b50	c6 45 fc 07	 mov	 BYTE PTR __$EHRec$[ebp+8], 7
  00b54	51		 push	 ecx
  00b55	8b cc		 mov	 ecx, esp
  00b57	89 65 b8	 mov	 DWORD PTR $T200915[ebp], esp
  00b5a	68 00 00 00 00	 push	 OFFSET FLAT:$SG199703
  00b5f	ff 15 00 00 00
	00		 call	 DWORD PTR __imp_??0?$CStringT@DV?$StrTraitMFC_DLL@DV?$ChTraitsCRT@D@ATL@@@@@ATL@@QAE@PBD@Z
  00b65	89 85 c8 fe ff
	ff		 mov	 DWORD PTR tv491[ebp], eax
  00b6b	8b 95 c8 fe ff
	ff		 mov	 edx, DWORD PTR tv491[ebp]
  00b71	89 95 c4 fe ff
	ff		 mov	 DWORD PTR tv464[ebp], edx
  00b77	c6 45 fc 08	 mov	 BYTE PTR __$EHRec$[ebp+8], 8
  00b7b	e8 00 00 00 00	 call	 ?AfxGetUIManager@@YAPAVIUIManager@@XZ ; AfxGetUIManager
  00b80	89 85 c0 fe ff
	ff		 mov	 DWORD PTR tv238[ebp], eax
  00b86	8b 85 c0 fe ff
	ff		 mov	 eax, DWORD PTR tv238[ebp]
  00b8c	8b 10		 mov	 edx, DWORD PTR [eax]
  00b8e	8b 8d c0 fe ff
	ff		 mov	 ecx, DWORD PTR tv238[ebp]
  00b94	ff 52 24	 call	 DWORD PTR [edx+36]
  00b97	89 85 bc fe ff
	ff		 mov	 DWORD PTR tv243[ebp], eax
  00b9d	8b 45 dc	 mov	 eax, DWORD PTR _pWnd$[ebp]
  00ba0	50		 push	 eax
  00ba1	8b 8d bc fe ff
	ff		 mov	 ecx, DWORD PTR tv243[ebp]
  00ba7	8b 11		 mov	 edx, DWORD PTR [ecx]
  00ba9	c6 45 fc 02	 mov	 BYTE PTR __$EHRec$[ebp+8], 2
  00bad	8b 8d bc fe ff
	ff		 mov	 ecx, DWORD PTR tv243[ebp]
  00bb3	ff 52 58	 call	 DWORD PTR [edx+88]

; 269  : 		//mvmv
; 270  : 		m_nControlWndHeight = rc.Height();

  00bb6	8d 4d e4	 lea	 ecx, DWORD PTR _rc$[ebp]
  00bb9	e8 00 00 00 00	 call	 ?Height@CRect@@QBEHXZ	; CRect::Height
  00bbe	8b 8d 2c ff ff
	ff		 mov	 ecx, DWORD PTR _this$[ebp]
  00bc4	89 81 38 02 00
	00		 mov	 DWORD PTR [ecx+568], eax

; 271  : 	}
; 272  : 	else

  00bca	e9 54 01 00 00	 jmp	 $L199704
$L199691:

; 273  : 	{
; 274  : 		CHostWndMgr::GetInstance()->ShowPopupWndsBeforeMainChange(true);

  00bcf	6a 01		 push	 1
  00bd1	e8 00 00 00 00	 call	 ?GetInstance@CHostWndMgr@@SAPAV1@XZ ; CHostWndMgr::GetInstance
  00bd6	8b c8		 mov	 ecx, eax
  00bd8	e8 00 00 00 00	 call	 ?ShowPopupWndsBeforeMainChange@CHostWndMgr@@QAEXH@Z ; CHostWndMgr::ShowPopupWndsBeforeMainChange

; 275  : 		::AfxGetUIManager()->UIGetLayoutMgr()->CreateControlPane( pWnd,"ControlPanel", "watchmode");

  00bdd	51		 push	 ecx
  00bde	8b cc		 mov	 ecx, esp
  00be0	89 65 b4	 mov	 DWORD PTR $T200916[ebp], esp
  00be3	68 00 00 00 00	 push	 OFFSET FLAT:$SG199707
  00be8	ff 15 00 00 00
	00		 call	 DWORD PTR __imp_??0?$CStringT@DV?$StrTraitMFC_DLL@DV?$ChTraitsCRT@D@ATL@@@@@ATL@@QAE@PBD@Z
  00bee	89 85 b8 fe ff
	ff		 mov	 DWORD PTR tv492[ebp], eax
  00bf4	8b 95 b8 fe ff
	ff		 mov	 edx, DWORD PTR tv492[ebp]
  00bfa	89 95 b4 fe ff
	ff		 mov	 DWORD PTR tv466[ebp], edx
  00c00	c6 45 fc 09	 mov	 BYTE PTR __$EHRec$[ebp+8], 9
  00c04	51		 push	 ecx
  00c05	8b cc		 mov	 ecx, esp
  00c07	89 65 b0	 mov	 DWORD PTR $T200917[ebp], esp
  00c0a	68 00 00 00 00	 push	 OFFSET FLAT:$SG199708
  00c0f	ff 15 00 00 00
	00		 call	 DWORD PTR __imp_??0?$CStringT@DV?$StrTraitMFC_DLL@DV?$ChTraitsCRT@D@ATL@@@@@ATL@@QAE@PBD@Z
  00c15	89 85 b0 fe ff
	ff		 mov	 DWORD PTR tv493[ebp], eax
  00c1b	8b 85 b0 fe ff
	ff		 mov	 eax, DWORD PTR tv493[ebp]
  00c21	89 85 ac fe ff
	ff		 mov	 DWORD PTR tv469[ebp], eax
  00c27	c6 45 fc 0a	 mov	 BYTE PTR __$EHRec$[ebp+8], 10 ; 0000000aH
  00c2b	e8 00 00 00 00	 call	 ?AfxGetUIManager@@YAPAVIUIManager@@XZ ; AfxGetUIManager
  00c30	89 85 a8 fe ff
	ff		 mov	 DWORD PTR tv282[ebp], eax
  00c36	8b 8d a8 fe ff
	ff		 mov	 ecx, DWORD PTR tv282[ebp]
  00c3c	8b 11		 mov	 edx, DWORD PTR [ecx]
  00c3e	8b 8d a8 fe ff
	ff		 mov	 ecx, DWORD PTR tv282[ebp]
  00c44	ff 52 24	 call	 DWORD PTR [edx+36]
  00c47	89 85 a4 fe ff
	ff		 mov	 DWORD PTR tv287[ebp], eax
  00c4d	8b 45 dc	 mov	 eax, DWORD PTR _pWnd$[ebp]
  00c50	50		 push	 eax
  00c51	8b 8d a4 fe ff
	ff		 mov	 ecx, DWORD PTR tv287[ebp]
  00c57	8b 11		 mov	 edx, DWORD PTR [ecx]
  00c59	c6 45 fc 02	 mov	 BYTE PTR __$EHRec$[ebp+8], 2
  00c5d	8b 8d a4 fe ff
	ff		 mov	 ecx, DWORD PTR tv287[ebp]
  00c63	ff 52 38	 call	 DWORD PTR [edx+56]

; 276  : 		::AfxGetUIManager()->UIGetLayoutMgr()->CreateBmpPane( pWnd,"ControlPanel","watchmode");

  00c66	51		 push	 ecx
  00c67	8b cc		 mov	 ecx, esp
  00c69	89 65 ac	 mov	 DWORD PTR $T200918[ebp], esp
  00c6c	68 00 00 00 00	 push	 OFFSET FLAT:$SG199711
  00c71	ff 15 00 00 00
	00		 call	 DWORD PTR __imp_??0?$CStringT@DV?$StrTraitMFC_DLL@DV?$ChTraitsCRT@D@ATL@@@@@ATL@@QAE@PBD@Z
  00c77	89 85 a0 fe ff
	ff		 mov	 DWORD PTR tv494[ebp], eax
  00c7d	8b 85 a0 fe ff
	ff		 mov	 eax, DWORD PTR tv494[ebp]
  00c83	89 85 9c fe ff
	ff		 mov	 DWORD PTR tv471[ebp], eax
  00c89	c6 45 fc 0b	 mov	 BYTE PTR __$EHRec$[ebp+8], 11 ; 0000000bH
  00c8d	51		 push	 ecx
  00c8e	8b cc		 mov	 ecx, esp
  00c90	89 65 a8	 mov	 DWORD PTR $T200919[ebp], esp
  00c93	68 00 00 00 00	 push	 OFFSET FLAT:$SG199712
  00c98	ff 15 00 00 00
	00		 call	 DWORD PTR __imp_??0?$CStringT@DV?$StrTraitMFC_DLL@DV?$ChTraitsCRT@D@ATL@@@@@ATL@@QAE@PBD@Z
  00c9e	89 85 98 fe ff
	ff		 mov	 DWORD PTR tv495[ebp], eax
  00ca4	8b 8d 98 fe ff
	ff		 mov	 ecx, DWORD PTR tv495[ebp]
  00caa	89 8d 94 fe ff
	ff		 mov	 DWORD PTR tv474[ebp], ecx
  00cb0	c6 45 fc 0c	 mov	 BYTE PTR __$EHRec$[ebp+8], 12 ; 0000000cH
  00cb4	e8 00 00 00 00	 call	 ?AfxGetUIManager@@YAPAVIUIManager@@XZ ; AfxGetUIManager
  00cb9	89 85 90 fe ff
	ff		 mov	 DWORD PTR tv320[ebp], eax
  00cbf	8b 95 90 fe ff
	ff		 mov	 edx, DWORD PTR tv320[ebp]
  00cc5	8b 02		 mov	 eax, DWORD PTR [edx]
  00cc7	8b 8d 90 fe ff
	ff		 mov	 ecx, DWORD PTR tv320[ebp]
  00ccd	ff 50 24	 call	 DWORD PTR [eax+36]
  00cd0	89 85 8c fe ff
	ff		 mov	 DWORD PTR tv325[ebp], eax
  00cd6	8b 4d dc	 mov	 ecx, DWORD PTR _pWnd$[ebp]
  00cd9	51		 push	 ecx
  00cda	8b 95 8c fe ff
	ff		 mov	 edx, DWORD PTR tv325[ebp]
  00ce0	8b 02		 mov	 eax, DWORD PTR [edx]
  00ce2	c6 45 fc 02	 mov	 BYTE PTR __$EHRec$[ebp+8], 2
  00ce6	8b 8d 8c fe ff
	ff		 mov	 ecx, DWORD PTR tv325[ebp]
  00cec	ff 50 58	 call	 DWORD PTR [eax+88]

; 277  : 
; 278  : 		//mvmv
; 279  : 		if(m_nControlWndHeight != 0)

  00cef	8b 8d 2c ff ff
	ff		 mov	 ecx, DWORD PTR _this$[ebp]
  00cf5	83 b9 38 02 00
	00 00		 cmp	 DWORD PTR [ecx+568], 0
  00cfc	74 25		 je	 SHORT $L199704

; 280  : 		{
; 281  : 			MoveMvSize(m_nControlWndHeight, rc.Width());

  00cfe	8d 4d e4	 lea	 ecx, DWORD PTR _rc$[ebp]
  00d01	e8 00 00 00 00	 call	 ?Width@CRect@@QBEHXZ	; CRect::Width
  00d06	50		 push	 eax
  00d07	8b 95 2c ff ff
	ff		 mov	 edx, DWORD PTR _this$[ebp]
  00d0d	8b 82 38 02 00
	00		 mov	 eax, DWORD PTR [edx+568]
  00d13	50		 push	 eax
  00d14	8b 8d 2c ff ff
	ff		 mov	 ecx, DWORD PTR _this$[ebp]
  00d1a	e8 00 00 00 00	 call	 ?MoveMvSize@CMainHostWnd@@QAEXHH@Z ; CMainHostWnd::MoveMvSize

; 282  : 			bKeepMVSize = true;

  00d1f	c6 45 db 01	 mov	 BYTE PTR _bKeepMVSize$[ebp], 1
$L199704:

; 283  : 		}
; 284  : 	}
; 285  : 	//
; 286  : 	::AfxGetUIManager()->UIGetLayoutMgr()->ShowLayer("MultiNowPlaying", strCur);

  00d23	51		 push	 ecx
  00d24	8b cc		 mov	 ecx, esp
  00d26	89 65 a4	 mov	 DWORD PTR $T200920[ebp], esp
  00d29	8d 55 e0	 lea	 edx, DWORD PTR _strCur$[ebp]
  00d2c	52		 push	 edx
  00d2d	ff 15 00 00 00
	00		 call	 DWORD PTR __imp_??0?$CStringT@DV?$StrTraitMFC_DLL@DV?$ChTraitsCRT@D@ATL@@@@@ATL@@QAE@ABV01@@Z
  00d33	89 85 88 fe ff
	ff		 mov	 DWORD PTR tv496[ebp], eax
  00d39	8b 85 88 fe ff
	ff		 mov	 eax, DWORD PTR tv496[ebp]
  00d3f	89 85 84 fe ff
	ff		 mov	 DWORD PTR tv476[ebp], eax
  00d45	c6 45 fc 0d	 mov	 BYTE PTR __$EHRec$[ebp+8], 13 ; 0000000dH
  00d49	51		 push	 ecx
  00d4a	8b cc		 mov	 ecx, esp
  00d4c	89 65 a0	 mov	 DWORD PTR $T200921[ebp], esp
  00d4f	68 00 00 00 00	 push	 OFFSET FLAT:$SG199716
  00d54	ff 15 00 00 00
	00		 call	 DWORD PTR __imp_??0?$CStringT@DV?$StrTraitMFC_DLL@DV?$ChTraitsCRT@D@ATL@@@@@ATL@@QAE@PBD@Z
  00d5a	89 85 80 fe ff
	ff		 mov	 DWORD PTR tv497[ebp], eax
  00d60	8b 8d 80 fe ff
	ff		 mov	 ecx, DWORD PTR tv497[ebp]
  00d66	89 8d 7c fe ff
	ff		 mov	 DWORD PTR tv479[ebp], ecx
  00d6c	c6 45 fc 0e	 mov	 BYTE PTR __$EHRec$[ebp+8], 14 ; 0000000eH
  00d70	e8 00 00 00 00	 call	 ?AfxGetUIManager@@YAPAVIUIManager@@XZ ; AfxGetUIManager
  00d75	89 85 78 fe ff
	ff		 mov	 DWORD PTR tv366[ebp], eax
  00d7b	8b 95 78 fe ff
	ff		 mov	 edx, DWORD PTR tv366[ebp]
  00d81	8b 02		 mov	 eax, DWORD PTR [edx]
  00d83	8b 8d 78 fe ff
	ff		 mov	 ecx, DWORD PTR tv366[ebp]
  00d89	ff 50 24	 call	 DWORD PTR [eax+36]
  00d8c	89 85 74 fe ff
	ff		 mov	 DWORD PTR tv371[ebp], eax
  00d92	8b 8d 74 fe ff
	ff		 mov	 ecx, DWORD PTR tv371[ebp]
  00d98	8b 11		 mov	 edx, DWORD PTR [ecx]
  00d9a	c6 45 fc 02	 mov	 BYTE PTR __$EHRec$[ebp+8], 2
  00d9e	8b 8d 74 fe ff
	ff		 mov	 ecx, DWORD PTR tv371[ebp]
  00da4	ff 52 24	 call	 DWORD PTR [edx+36]

; 287  : 
; 288  : 	m_bShowMV = !m_bShowMV;

  00da7	8b 85 2c ff ff
	ff		 mov	 eax, DWORD PTR _this$[ebp]
  00dad	0f b6 88 34 02
	00 00		 movzx	 ecx, BYTE PTR [eax+564]
  00db4	f7 d9		 neg	 ecx
  00db6	1b c9		 sbb	 ecx, ecx
  00db8	41		 inc	 ecx
  00db9	8b 95 2c ff ff
	ff		 mov	 edx, DWORD PTR _this$[ebp]
  00dbf	88 8a 34 02 00
	00		 mov	 BYTE PTR [edx+564], cl

; 289  : 	SetMinSize();

  00dc5	8b 8d 2c ff ff
	ff		 mov	 ecx, DWORD PTR _this$[ebp]
  00dcb	e8 00 00 00 00	 call	 ?SetMinSize@CMainHostWnd@@QAEXXZ ; CMainHostWnd::SetMinSize

; 290  : 
; 291  : 	if(!bKeepMVSize)

  00dd0	0f b6 45 db	 movzx	 eax, BYTE PTR _bKeepMVSize$[ebp]
  00dd4	85 c0		 test	 eax, eax
  00dd6	75 0b		 jne	 SHORT $L199717

; 292  : 		MoveContent();

  00dd8	8b 8d 2c ff ff
	ff		 mov	 ecx, DWORD PTR _this$[ebp]
  00dde	e8 00 00 00 00	 call	 ?MoveContent@CMainHostWnd@@AAEXXZ ; CMainHostWnd::MoveContent
$L199717:

; 293  : 
; 294  : 	if(m_bShowMV)

  00de3	8b 8d 2c ff ff
	ff		 mov	 ecx, DWORD PTR _this$[ebp]
  00de9	0f b6 91 34 02
	00 00		 movzx	 edx, BYTE PTR [ecx+564]
  00df0	85 d2		 test	 edx, edx
  00df2	74 5a		 je	 SHORT $L199718

; 295  : 		LogUserActMsg(STR_USER_CLICK, "BTN:SHOW_MV");

  00df4	68 00 00 00 00	 push	 OFFSET FLAT:$SG199721
  00df9	8d 4d 84	 lea	 ecx, DWORD PTR $T200922[ebp]
  00dfc	ff 15 00 00 00
	00		 call	 DWORD PTR __imp_??0?$basic_string@DU?$char_traits@D@std@@V?$allocator@D@2@@std@@QAE@PBD@Z
  00e02	c6 45 fc 0f	 mov	 BYTE PTR __$EHRec$[ebp+8], 15 ; 0000000fH
  00e06	68 00 00 00 00	 push	 OFFSET FLAT:$SG199722
  00e0b	8d 8d 68 ff ff
	ff		 lea	 ecx, DWORD PTR $T200923[ebp]
  00e11	ff 15 00 00 00
	00		 call	 DWORD PTR __imp_??0?$basic_string@DU?$char_traits@D@std@@V?$allocator@D@2@@std@@QAE@PBD@Z
  00e17	c6 45 fc 10	 mov	 BYTE PTR __$EHRec$[ebp+8], 16 ; 00000010H
  00e1b	8d 45 84	 lea	 eax, DWORD PTR $T200922[ebp]
  00e1e	50		 push	 eax
  00e1f	8d 8d 68 ff ff
	ff		 lea	 ecx, DWORD PTR $T200923[ebp]
  00e25	51		 push	 ecx
  00e26	ff 15 00 00 00
	00		 call	 DWORD PTR __imp_?LogUserActMsg@@YAXABV?$basic_string@DU?$char_traits@D@std@@V?$allocator@D@2@@std@@0@Z
  00e2c	83 c4 08	 add	 esp, 8
  00e2f	c6 45 fc 0f	 mov	 BYTE PTR __$EHRec$[ebp+8], 15 ; 0000000fH
  00e33	8d 8d 68 ff ff
	ff		 lea	 ecx, DWORD PTR $T200923[ebp]
  00e39	ff 15 00 00 00
	00		 call	 DWORD PTR __imp_??1?$basic_string@DU?$char_traits@D@std@@V?$allocator@D@2@@std@@QAE@XZ
  00e3f	c6 45 fc 02	 mov	 BYTE PTR __$EHRec$[ebp+8], 2
  00e43	8d 4d 84	 lea	 ecx, DWORD PTR $T200922[ebp]
  00e46	ff 15 00 00 00
	00		 call	 DWORD PTR __imp_??1?$basic_string@DU?$char_traits@D@std@@V?$allocator@D@2@@std@@QAE@XZ

; 296  : 	else

  00e4c	eb 61		 jmp	 SHORT $L199723
$L199718:

; 297  : 		LogUserActMsg(STR_USER_CLICK, "BTN:HIDE_MV");

  00e4e	68 00 00 00 00	 push	 OFFSET FLAT:$SG199726
  00e53	8d 8d 4c ff ff
	ff		 lea	 ecx, DWORD PTR $T200924[ebp]
  00e59	ff 15 00 00 00
	00		 call	 DWORD PTR __imp_??0?$basic_string@DU?$char_traits@D@std@@V?$allocator@D@2@@std@@QAE@PBD@Z
  00e5f	c6 45 fc 11	 mov	 BYTE PTR __$EHRec$[ebp+8], 17 ; 00000011H
  00e63	68 00 00 00 00	 push	 OFFSET FLAT:$SG199727
  00e68	8d 8d 30 ff ff
	ff		 lea	 ecx, DWORD PTR $T200925[ebp]
  00e6e	ff 15 00 00 00
	00		 call	 DWORD PTR __imp_??0?$basic_string@DU?$char_traits@D@std@@V?$allocator@D@2@@std@@QAE@PBD@Z
  00e74	c6 45 fc 12	 mov	 BYTE PTR __$EHRec$[ebp+8], 18 ; 00000012H
  00e78	8d 95 4c ff ff
	ff		 lea	 edx, DWORD PTR $T200924[ebp]
  00e7e	52		 push	 edx
  00e7f	8d 85 30 ff ff
	ff		 lea	 eax, DWORD PTR $T200925[ebp]
  00e85	50		 push	 eax
  00e86	ff 15 00 00 00
	00		 call	 DWORD PTR __imp_?LogUserActMsg@@YAXABV?$basic_string@DU?$char_traits@D@std@@V?$allocator@D@2@@std@@0@Z
  00e8c	83 c4 08	 add	 esp, 8
  00e8f	c6 45 fc 11	 mov	 BYTE PTR __$EHRec$[ebp+8], 17 ; 00000011H
  00e93	8d 8d 30 ff ff
	ff		 lea	 ecx, DWORD PTR $T200925[ebp]
  00e99	ff 15 00 00 00
	00		 call	 DWORD PTR __imp_??1?$basic_string@DU?$char_traits@D@std@@V?$allocator@D@2@@std@@QAE@XZ
  00e9f	c6 45 fc 02	 mov	 BYTE PTR __$EHRec$[ebp+8], 2
  00ea3	8d 8d 4c ff ff
	ff		 lea	 ecx, DWORD PTR $T200924[ebp]
  00ea9	ff 15 00 00 00
	00		 call	 DWORD PTR __imp_??1?$basic_string@DU?$char_traits@D@std@@V?$allocator@D@2@@std@@QAE@XZ
$L199723:

; 298  : 
; 299  : 	if(m_bShowMV)

  00eaf	8b 8d 2c ff ff
	ff		 mov	 ecx, DWORD PTR _this$[ebp]
  00eb5	0f b6 91 34 02
	00 00		 movzx	 edx, BYTE PTR [ecx+564]
  00ebc	85 d2		 test	 edx, edx
  00ebe	74 10		 je	 SHORT $L199728

; 300  : 	{
; 301  : 		CHostWndMgr::GetInstance()->ShowPopupWndsAfterMainChange(true);

  00ec0	6a 01		 push	 1
  00ec2	e8 00 00 00 00	 call	 ?GetInstance@CHostWndMgr@@SAPAV1@XZ ; CHostWndMgr::GetInstance
  00ec7	8b c8		 mov	 ecx, eax
  00ec9	e8 00 00 00 00	 call	 ?ShowPopupWndsAfterMainChange@CHostWndMgr@@QAEXH@Z ; CHostWndMgr::ShowPopupWndsAfterMainChange

; 302  : 	}
; 303  : 	else

  00ece	eb 0e		 jmp	 SHORT $L199729
$L199728:

; 304  : 	{
; 305  : 		CHostWndMgr::GetInstance()->ShowPopupWndsAfterMainChange(false);

  00ed0	6a 00		 push	 0
  00ed2	e8 00 00 00 00	 call	 ?GetInstance@CHostWndMgr@@SAPAV1@XZ ; CHostWndMgr::GetInstance
  00ed7	8b c8		 mov	 ecx, eax
  00ed9	e8 00 00 00 00	 call	 ?ShowPopupWndsAfterMainChange@CHostWndMgr@@QAEXH@Z ; CHostWndMgr::ShowPopupWndsAfterMainChange
$L199729:

; 306  : 	}
; 307  : //	RedrawWindow(NULL, NULL, RDW_INVALIDATE | RDW_UPDATENOW | RDW_ERASE | RDW_ALLCHILDREN);
; 308  : 
; 309  : }

  00ede	c7 45 fc ff ff
	ff ff		 mov	 DWORD PTR __$EHRec$[ebp+8], -1
  00ee5	8d 4d e0	 lea	 ecx, DWORD PTR _strCur$[ebp]
  00ee8	ff 15 00 00 00
	00		 call	 DWORD PTR __imp_??1?$CStringT@DV?$StrTraitMFC_DLL@DV?$ChTraitsCRT@D@ATL@@@@@ATL@@QAE@XZ
  00eee	8b 4d f4	 mov	 ecx, DWORD PTR __$EHRec$[ebp]
  00ef1	64 89 0d 00 00
	00 00		 mov	 DWORD PTR fs:__except_list, ecx
  00ef8	8b e5		 mov	 esp, ebp
  00efa	5d		 pop	 ebp
  00efb	c3		 ret	 0
_TEXT	ENDS
text$x	SEGMENT
$L200926:
  00024	8b 4d d4	 mov	 ecx, DWORD PTR $T200908[ebp]
  00027	ff 25 00 00 00
	00		 jmp	 DWORD PTR __imp_??1?$CStringT@DV?$StrTraitMFC_DLL@DV?$ChTraitsCRT@D@ATL@@@@@ATL@@QAE@XZ
$L200927:
  0002d	8b 4d d0	 mov	 ecx, DWORD PTR $T200909[ebp]
  00030	ff 25 00 00 00
	00		 jmp	 DWORD PTR __imp_??1?$CStringT@DV?$StrTraitMFC_DLL@DV?$ChTraitsCRT@D@ATL@@@@@ATL@@QAE@XZ
$L200928:
  00036	8d 4d e0	 lea	 ecx, DWORD PTR _strCur$[ebp]
  00039	ff 25 00 00 00
	00		 jmp	 DWORD PTR __imp_??1?$CStringT@DV?$StrTraitMFC_DLL@DV?$ChTraitsCRT@D@ATL@@@@@ATL@@QAE@XZ
$L200929:
  0003f	8b 4d cc	 mov	 ecx, DWORD PTR $T200910[ebp]
  00042	ff 25 00 00 00
	00		 jmp	 DWORD PTR __imp_??1?$CStringT@DV?$StrTraitMFC_DLL@DV?$ChTraitsCRT@D@ATL@@@@@ATL@@QAE@XZ
$L200930:
  00048	8b 4d c8	 mov	 ecx, DWORD PTR $T200911[ebp]
  0004b	ff 25 00 00 00
	00		 jmp	 DWORD PTR __imp_??1?$CStringT@DV?$StrTraitMFC_DLL@DV?$ChTraitsCRT@D@ATL@@@@@ATL@@QAE@XZ
$L200931:
  00051	8b 4d c4	 mov	 ecx, DWORD PTR $T200912[ebp]
  00054	ff 25 00 00 00
	00		 jmp	 DWORD PTR __imp_??1?$CStringT@DV?$StrTraitMFC_DLL@DV?$ChTraitsCRT@D@ATL@@@@@ATL@@QAE@XZ
$L200932:
  0005a	8b 4d c0	 mov	 ecx, DWORD PTR $T200913[ebp]
  0005d	ff 25 00 00 00
	00		 jmp	 DWORD PTR __imp_??1?$CStringT@DV?$StrTraitMFC_DLL@DV?$ChTraitsCRT@D@ATL@@@@@ATL@@QAE@XZ
$L200933:
  00063	8b 4d bc	 mov	 ecx, DWORD PTR $T200914[ebp]
  00066	ff 25 00 00 00
	00		 jmp	 DWORD PTR __imp_??1?$CStringT@DV?$StrTraitMFC_DLL@DV?$ChTraitsCRT@D@ATL@@@@@ATL@@QAE@XZ
$L200934:
  0006c	8b 4d b8	 mov	 ecx, DWORD PTR $T200915[ebp]
  0006f	ff 25 00 00 00
	00		 jmp	 DWORD PTR __imp_??1?$CStringT@DV?$StrTraitMFC_DLL@DV?$ChTraitsCRT@D@ATL@@@@@ATL@@QAE@XZ
$L200935:
  00075	8b 4d b4	 mov	 ecx, DWORD PTR $T200916[ebp]
  00078	ff 25 00 00 00
	00		 jmp	 DWORD PTR __imp_??1?$CStringT@DV?$StrTraitMFC_DLL@DV?$ChTraitsCRT@D@ATL@@@@@ATL@@QAE@XZ
$L200936:
  0007e	8b 4d b0	 mov	 ecx, DWORD PTR $T200917[ebp]
  00081	ff 25 00 00 00
	00		 jmp	 DWORD PTR __imp_??1?$CStringT@DV?$StrTraitMFC_DLL@DV?$ChTraitsCRT@D@ATL@@@@@ATL@@QAE@XZ
$L200937:
  00087	8b 4d ac	 mov	 ecx, DWORD PTR $T200918[ebp]
  0008a	ff 25 00 00 00
	00		 jmp	 DWORD PTR __imp_??1?$CStringT@DV?$StrTraitMFC_DLL@DV?$ChTraitsCRT@D@ATL@@@@@ATL@@QAE@XZ
$L200938:
  00090	8b 4d a8	 mov	 ecx, DWORD PTR $T200919[ebp]
  00093	ff 25 00 00 00
	00		 jmp	 DWORD PTR __imp_??1?$CStringT@DV?$StrTraitMFC_DLL@DV?$ChTraitsCRT@D@ATL@@@@@ATL@@QAE@XZ
$L200939:
  00099	8b 4d a4	 mov	 ecx, DWORD PTR $T200920[ebp]
  0009c	ff 25 00 00 00
	00		 jmp	 DWORD PTR __imp_??1?$CStringT@DV?$StrTraitMFC_DLL@DV?$ChTraitsCRT@D@ATL@@@@@ATL@@QAE@XZ
$L200940:
  000a2	8b 4d a0	 mov	 ecx, DWORD PTR $T200921[ebp]
  000a5	ff 25 00 00 00
	00		 jmp	 DWORD PTR __imp_??1?$CStringT@DV?$StrTraitMFC_DLL@DV?$ChTraitsCRT@D@ATL@@@@@ATL@@QAE@XZ
$L200941:
  000ab	8d 4d 84	 lea	 ecx, DWORD PTR $T200922[ebp]
  000ae	ff 25 00 00 00
	00		 jmp	 DWORD PTR __imp_??1?$basic_string@DU?$char_traits@D@std@@V?$allocator@D@2@@std@@QAE@XZ
$L200942:
  000b4	8d 8d 68 ff ff
	ff		 lea	 ecx, DWORD PTR $T200923[ebp]
  000ba	ff 25 00 00 00
	00		 jmp	 DWORD PTR __imp_??1?$basic_string@DU?$char_traits@D@std@@V?$allocator@D@2@@std@@QAE@XZ
$L200943:
  000c0	8d 8d 4c ff ff
	ff		 lea	 ecx, DWORD PTR $T200924[ebp]
  000c6	ff 25 00 00 00
	00		 jmp	 DWORD PTR __imp_??1?$basic_string@DU?$char_traits@D@std@@V?$allocator@D@2@@std@@QAE@XZ
$L200944:
  000cc	8d 8d 30 ff ff
	ff		 lea	 ecx, DWORD PTR $T200925[ebp]
  000d2	ff 25 00 00 00
	00		 jmp	 DWORD PTR __imp_??1?$basic_string@DU?$char_traits@D@std@@V?$allocator@D@2@@std@@QAE@XZ
__ehhandler$?ChangeWatchMode@CMainHostWnd@@QAEXXZ:
  000d8	b8 00 00 00 00	 mov	 eax, OFFSET FLAT:$T200946
  000dd	e9 00 00 00 00	 jmp	 ___CxxFrameHandler
text$x	ENDS
?ChangeWatchMode@CMainHostWnd@@QAEXXZ ENDP		; CMainHostWnd::ChangeWatchMode
PUBLIC	?InterlockedExchangePointer@@YGPAXPAPAXPAX@Z	; InterlockedExchangePointer
PUBLIC	?_AtlGetThreadACPFake@ATL@@YGIXZ		; ATL::_AtlGetThreadACPFake
PUBLIC	?_AtlGetThreadACPReal@ATL@@YGIXZ		; ATL::_AtlGetThreadACPReal
EXTRN	___security_cookie:DWORD
EXTRN	@__security_check_cookie@4:NEAR
EXTRN	__imp__GetVersionExA@4:NEAR
; Function compile flags: /Odt
; File d:\program files (x86)\microsoft visual studio .net 2003\vc7\atlmfc\include\atlconv.h
;	COMDAT ?_AtlGetThreadACPThunk@ATL@@YGIXZ
_TEXT	SEGMENT
_pfnGetThreadACP$ = -164				; size = 4
_ver$ = -160						; size = 148
__$ArrayPad$ = -4					; size = 4
__$ReturnAddr$ = 4					; size = 4
?_AtlGetThreadACPThunk@ATL@@YGIXZ PROC NEAR		; ATL::_AtlGetThreadACPThunk, COMDAT

; 134  : {

  00000	55		 push	 ebp
  00001	8b ec		 mov	 ebp, esp
  00003	81 ec a4 00 00
	00		 sub	 esp, 164		; 000000a4H
  00009	a1 00 00 00 00	 mov	 eax, DWORD PTR ___security_cookie
  0000e	89 45 fc	 mov	 DWORD PTR __$ArrayPad$[ebp], eax

; 135  : 	OSVERSIONINFO ver;
; 136  : 	ATLGETTHREADACP pfnGetThreadACP;
; 137  : 
; 138  : 	ver.dwOSVersionInfoSize = sizeof( ver );

  00011	c7 85 60 ff ff
	ff 94 00 00 00	 mov	 DWORD PTR _ver$[ebp], 148 ; 00000094H

; 139  : 	::GetVersionEx( &ver );

  0001b	8d 85 60 ff ff
	ff		 lea	 eax, DWORD PTR _ver$[ebp]
  00021	50		 push	 eax
  00022	ff 15 00 00 00
	00		 call	 DWORD PTR __imp__GetVersionExA@4

; 140  : 	if( (ver.dwPlatformId == VER_PLATFORM_WIN32_NT) && (ver.dwMajorVersion >= 5) )

  00028	83 bd 70 ff ff
	ff 02		 cmp	 DWORD PTR _ver$[ebp+16], 2
  0002f	75 15		 jne	 SHORT $L24173
  00031	83 bd 64 ff ff
	ff 05		 cmp	 DWORD PTR _ver$[ebp+4], 5
  00038	72 0c		 jb	 SHORT $L24173

; 141  : 	{
; 142  : 		// On Win2K, CP_THREAD_ACP is supported
; 143  : 		pfnGetThreadACP = _AtlGetThreadACPReal;

  0003a	c7 85 5c ff ff
	ff 00 00 00 00	 mov	 DWORD PTR _pfnGetThreadACP$[ebp], OFFSET FLAT:?_AtlGetThreadACPReal@ATL@@YGIXZ ; ATL::_AtlGetThreadACPReal

; 144  : 	}
; 145  : 	else

  00044	eb 0a		 jmp	 SHORT $L24174
$L24173:

; 146  : 	{
; 147  : 		pfnGetThreadACP = _AtlGetThreadACPFake;

  00046	c7 85 5c ff ff
	ff 00 00 00 00	 mov	 DWORD PTR _pfnGetThreadACP$[ebp], OFFSET FLAT:?_AtlGetThreadACPFake@ATL@@YGIXZ ; ATL::_AtlGetThreadACPFake
$L24174:

; 148  : 	}
; 149  : 	InterlockedExchangePointer( reinterpret_cast< void** >(&g_pfnGetThreadACP), pfnGetThreadACP );

  00050	8b 8d 5c ff ff
	ff		 mov	 ecx, DWORD PTR _pfnGetThreadACP$[ebp]
  00056	51		 push	 ecx
  00057	68 00 00 00 00	 push	 OFFSET FLAT:?g_pfnGetThreadACP@ATL@@3P6GIXZA ; ATL::g_pfnGetThreadACP
  0005c	e8 00 00 00 00	 call	 ?InterlockedExchangePointer@@YGPAXPAPAXPAX@Z ; InterlockedExchangePointer

; 150  : 
; 151  : 	return( g_pfnGetThreadACP() );

  00061	ff 15 00 00 00
	00		 call	 DWORD PTR ?g_pfnGetThreadACP@ATL@@3P6GIXZA ; ATL::g_pfnGetThreadACP

; 152  : }

  00067	8b 4d fc	 mov	 ecx, DWORD PTR __$ArrayPad$[ebp]
  0006a	e8 00 00 00 00	 call	 @__security_check_cookie@4
  0006f	8b e5		 mov	 esp, ebp
  00071	5d		 pop	 ebp
  00072	c3		 ret	 0
?_AtlGetThreadACPThunk@ATL@@YGIXZ ENDP			; ATL::_AtlGetThreadACPThunk
_TEXT	ENDS
EXTRN	__imp__InterlockedExchange@8:NEAR
; Function compile flags: /Odt
;	COMDAT ?InterlockedExchangePointer@@YGPAXPAPAXPAX@Z
_TEXT	SEGMENT
_pp$ = 8						; size = 4
_pNew$ = 12						; size = 4
?InterlockedExchangePointer@@YGPAXPAPAXPAX@Z PROC NEAR	; InterlockedExchangePointer, COMDAT

; 91   : {

  00000	55		 push	 ebp
  00001	8b ec		 mov	 ebp, esp

; 92   : 	return( reinterpret_cast<void*>(static_cast<LONG_PTR>(::InterlockedExchange(reinterpret_cast<LONG*>(pp), static_cast<LONG>(reinterpret_cast<LONG_PTR>(pNew))))) );

  00003	8b 45 0c	 mov	 eax, DWORD PTR _pNew$[ebp]
  00006	50		 push	 eax
  00007	8b 4d 08	 mov	 ecx, DWORD PTR _pp$[ebp]
  0000a	51		 push	 ecx
  0000b	ff 15 00 00 00
	00		 call	 DWORD PTR __imp__InterlockedExchange@8

; 93   : }

  00011	5d		 pop	 ebp
  00012	c2 08 00	 ret	 8
?InterlockedExchangePointer@@YGPAXPAPAXPAX@Z ENDP	; InterlockedExchangePointer
_TEXT	ENDS
EXTRN	__imp__GetACP@0:NEAR
EXTRN	__imp__GetLocaleInfoA@16:NEAR
EXTRN	__imp__GetThreadLocale@0:NEAR
; Function compile flags: /Odt
;	COMDAT ?_AtlGetThreadACPFake@ATL@@YGIXZ
_TEXT	SEGMENT
_pch$24161 = -24					; size = 4
_lcidThread$ = -20					; size = 4
_szACP$ = -16						; size = 7
__$ArrayPad$ = -8					; size = 4
_nACP$ = -4						; size = 4
__$ReturnAddr$ = 4					; size = 4
?_AtlGetThreadACPFake@ATL@@YGIXZ PROC NEAR		; ATL::_AtlGetThreadACPFake, COMDAT

; 101  : {

  00000	55		 push	 ebp
  00001	8b ec		 mov	 ebp, esp
  00003	83 ec 18	 sub	 esp, 24			; 00000018H
  00006	a1 00 00 00 00	 mov	 eax, DWORD PTR ___security_cookie
  0000b	89 45 f8	 mov	 DWORD PTR __$ArrayPad$[ebp], eax

; 102  : 	UINT nACP = 0;

  0000e	c7 45 fc 00 00
	00 00		 mov	 DWORD PTR _nACP$[ebp], 0

; 103  : 
; 104  : 	LCID lcidThread = ::GetThreadLocale();

  00015	ff 15 00 00 00
	00		 call	 DWORD PTR __imp__GetThreadLocale@0
  0001b	89 45 ec	 mov	 DWORD PTR _lcidThread$[ebp], eax

; 105  : 
; 106  : 	char szACP[7];
; 107  : 	// GetLocaleInfoA will fail for a Unicode-only LCID, but those are only supported on 
; 108  : 	// Windows 2000.  Since Windows 2000 supports CP_THREAD_ACP, this code path is never
; 109  : 	// executed on Windows 2000.
; 110  : 	if (::GetLocaleInfoA(lcidThread, LOCALE_IDEFAULTANSICODEPAGE, szACP, 7) != 0)

  0001e	6a 07		 push	 7
  00020	8d 45 f0	 lea	 eax, DWORD PTR _szACP$[ebp]
  00023	50		 push	 eax
  00024	68 04 10 00 00	 push	 4100			; 00001004H
  00029	8b 4d ec	 mov	 ecx, DWORD PTR _lcidThread$[ebp]
  0002c	51		 push	 ecx
  0002d	ff 15 00 00 00
	00		 call	 DWORD PTR __imp__GetLocaleInfoA@16
  00033	85 c0		 test	 eax, eax
  00035	74 34		 je	 SHORT $L24160

; 111  : 	{
; 112  : 		char* pch = szACP;

  00037	8d 55 f0	 lea	 edx, DWORD PTR _szACP$[ebp]
  0003a	89 55 e8	 mov	 DWORD PTR _pch$24161[ebp], edx
$L24163:

; 113  : 		while (*pch != '\0')

  0003d	8b 45 e8	 mov	 eax, DWORD PTR _pch$24161[ebp]
  00040	0f be 08	 movsx	 ecx, BYTE PTR [eax]
  00043	85 c9		 test	 ecx, ecx
  00045	74 24		 je	 SHORT $L24160

; 114  : 		{
; 115  : 			nACP *= 10;

  00047	8b 55 fc	 mov	 edx, DWORD PTR _nACP$[ebp]
  0004a	6b d2 0a	 imul	 edx, 10			; 0000000aH
  0004d	89 55 fc	 mov	 DWORD PTR _nACP$[ebp], edx

; 116  : 			nACP += *pch++ - '0';

  00050	8b 45 e8	 mov	 eax, DWORD PTR _pch$24161[ebp]
  00053	0f be 08	 movsx	 ecx, BYTE PTR [eax]
  00056	8b 55 fc	 mov	 edx, DWORD PTR _nACP$[ebp]
  00059	8d 44 0a d0	 lea	 eax, DWORD PTR [edx+ecx-48]
  0005d	89 45 fc	 mov	 DWORD PTR _nACP$[ebp], eax
  00060	8b 4d e8	 mov	 ecx, DWORD PTR _pch$24161[ebp]
  00063	83 c1 01	 add	 ecx, 1
  00066	89 4d e8	 mov	 DWORD PTR _pch$24161[ebp], ecx

; 117  : 		}

  00069	eb d2		 jmp	 SHORT $L24163
$L24160:

; 118  : 	}
; 119  : 	// Use the Default ANSI Code Page if we were unable to get the thread ACP or if one does not exist.
; 120  : 	if (nACP == 0)

  0006b	83 7d fc 00	 cmp	 DWORD PTR _nACP$[ebp], 0
  0006f	75 09		 jne	 SHORT $L24165

; 121  : 		nACP = ::GetACP();

  00071	ff 15 00 00 00
	00		 call	 DWORD PTR __imp__GetACP@0
  00077	89 45 fc	 mov	 DWORD PTR _nACP$[ebp], eax
$L24165:

; 122  : 
; 123  : 	return nACP;

  0007a	8b 45 fc	 mov	 eax, DWORD PTR _nACP$[ebp]

; 124  : }

  0007d	8b 4d f8	 mov	 ecx, DWORD PTR __$ArrayPad$[ebp]
  00080	e8 00 00 00 00	 call	 @__security_check_cookie@4
  00085	8b e5		 mov	 esp, ebp
  00087	5d		 pop	 ebp
  00088	c3		 ret	 0
?_AtlGetThreadACPFake@ATL@@YGIXZ ENDP			; ATL::_AtlGetThreadACPFake
; Function compile flags: /Odt
_TEXT	ENDS
;	COMDAT ?_AtlGetThreadACPReal@ATL@@YGIXZ
_TEXT	SEGMENT
?_AtlGetThreadACPReal@ATL@@YGIXZ PROC NEAR		; ATL::_AtlGetThreadACPReal, COMDAT

; 127  : {

  00000	55		 push	 ebp
  00001	8b ec		 mov	 ebp, esp

; 128  : 	return( CP_THREAD_ACP );

  00003	b8 03 00 00 00	 mov	 eax, 3

; 129  : }

  00008	5d		 pop	 ebp
  00009	c3		 ret	 0
?_AtlGetThreadACPReal@ATL@@YGIXZ ENDP			; ATL::_AtlGetThreadACPReal
_TEXT	ENDS
PUBLIC	?ChangePlaylistMode@CMainHostWnd@@QAEXXZ	; CMainHostWnd::ChangePlaylistMode
EXTRN	?ShowWindow@CWnd@@QAEHH@Z:NEAR			; CWnd::ShowWindow
; Function compile flags: /Odt
; File d:\boxgit\playbox\playbox\dev\prj\playbox\src\layoutmgr\seperatemode\mainhostwnd.cpp
_TEXT	SEGMENT
_this$ = -52						; size = 4
_rcControl$ = -48					; size = 16
_rcPlaylist$ = -32					; size = 16
_rc$ = -16						; size = 16
?ChangePlaylistMode@CMainHostWnd@@QAEXXZ PROC NEAR	; CMainHostWnd::ChangePlaylistMode
; _this$ = ecx

; 313  : {

  00f00	55		 push	 ebp
  00f01	8b ec		 mov	 ebp, esp
  00f03	83 ec 34	 sub	 esp, 52			; 00000034H
  00f06	89 4d cc	 mov	 DWORD PTR _this$[ebp], ecx

; 314  : 	CRect rc;

  00f09	8d 4d f0	 lea	 ecx, DWORD PTR _rc$[ebp]
  00f0c	e8 00 00 00 00	 call	 ??0CRect@@QAE@XZ	; CRect::CRect

; 315  : 	CRect rcControl;

  00f11	8d 4d d0	 lea	 ecx, DWORD PTR _rcControl$[ebp]
  00f14	e8 00 00 00 00	 call	 ??0CRect@@QAE@XZ	; CRect::CRect

; 316  : 
; 317  : 	GetWindowRect(&rc);

  00f19	8d 45 f0	 lea	 eax, DWORD PTR _rc$[ebp]
  00f1c	50		 push	 eax
  00f1d	8b 4d cc	 mov	 ecx, DWORD PTR _this$[ebp]
  00f20	e8 00 00 00 00	 call	 ?GetWindowRect@CWnd@@QBEXPAUtagRECT@@@Z ; CWnd::GetWindowRect

; 318  : 	m_pControlWnd->GetWindowRect(&rcControl);

  00f25	8d 4d d0	 lea	 ecx, DWORD PTR _rcControl$[ebp]
  00f28	51		 push	 ecx
  00f29	8b 55 cc	 mov	 edx, DWORD PTR _this$[ebp]
  00f2c	8b 8a 48 02 00
	00		 mov	 ecx, DWORD PTR [edx+584]
  00f32	e8 00 00 00 00	 call	 ?GetWindowRect@CWnd@@QBEXPAUtagRECT@@@Z ; CWnd::GetWindowRect

; 319  : //	CWnd *pWnd = ::AfxGetUIManager()->UIGetLayoutMgr()->GetWnd("ControlPanel");
; 320  : 
; 321  : 	m_bShowPlaylist = !m_bShowPlaylist;

  00f37	8b 45 cc	 mov	 eax, DWORD PTR _this$[ebp]
  00f3a	0f b6 88 35 02
	00 00		 movzx	 ecx, BYTE PTR [eax+565]
  00f41	f7 d9		 neg	 ecx
  00f43	1b c9		 sbb	 ecx, ecx
  00f45	41		 inc	 ecx
  00f46	8b 55 cc	 mov	 edx, DWORD PTR _this$[ebp]
  00f49	88 8a 35 02 00
	00		 mov	 BYTE PTR [edx+565], cl

; 322  : 
; 323  : 	SetMinSize();

  00f4f	8b 4d cc	 mov	 ecx, DWORD PTR _this$[ebp]
  00f52	e8 00 00 00 00	 call	 ?SetMinSize@CMainHostWnd@@QAEXXZ ; CMainHostWnd::SetMinSize

; 324  : 	CRect rcPlaylist;

  00f57	8d 4d e0	 lea	 ecx, DWORD PTR _rcPlaylist$[ebp]
  00f5a	e8 00 00 00 00	 call	 ??0CRect@@QAE@XZ	; CRect::CRect

; 325  : 	m_pPlistWnd->GetWindowRect(rcPlaylist);

  00f5f	8d 4d e0	 lea	 ecx, DWORD PTR _rcPlaylist$[ebp]
  00f62	e8 00 00 00 00	 call	 ??BCRect@@QAEPAUtagRECT@@XZ ; CRect::operator tagRECT *
  00f67	50		 push	 eax
  00f68	8b 45 cc	 mov	 eax, DWORD PTR _this$[ebp]
  00f6b	8b 88 4c 02 00
	00		 mov	 ecx, DWORD PTR [eax+588]
  00f71	e8 00 00 00 00	 call	 ?GetWindowRect@CWnd@@QBEXPAUtagRECT@@@Z ; CWnd::GetWindowRect

; 326  : 
; 327  : 	if(m_bShowPlaylist)

  00f76	8b 4d cc	 mov	 ecx, DWORD PTR _this$[ebp]
  00f79	0f b6 91 35 02
	00 00		 movzx	 edx, BYTE PTR [ecx+565]
  00f80	85 d2		 test	 edx, edx
  00f82	74 7d		 je	 SHORT $L199736

; 328  : 	{
; 329  : 
; 330  : 		m_pPlistWnd->ShowWindow(SW_SHOW);

  00f84	6a 05		 push	 5
  00f86	8b 45 cc	 mov	 eax, DWORD PTR _this$[ebp]
  00f89	8b 88 4c 02 00
	00		 mov	 ecx, DWORD PTR [eax+588]
  00f8f	e8 00 00 00 00	 call	 ?ShowWindow@CWnd@@QAEHH@Z ; CWnd::ShowWindow

; 331  : 		rc.bottom += rcPlaylist.Height();

  00f94	8d 4d e0	 lea	 ecx, DWORD PTR _rcPlaylist$[ebp]
  00f97	e8 00 00 00 00	 call	 ?Height@CRect@@QBEHXZ	; CRect::Height
  00f9c	03 45 fc	 add	 eax, DWORD PTR _rc$[ebp+12]
  00f9f	89 45 fc	 mov	 DWORD PTR _rc$[ebp+12], eax

; 332  : 
; 333  : 		if(!m_isShowMVWhenClosePlaylist && m_bShowMV)

  00fa2	8b 4d cc	 mov	 ecx, DWORD PTR _this$[ebp]
  00fa5	83 b9 3c 02 00
	00 00		 cmp	 DWORD PTR [ecx+572], 0
  00fac	75 21		 jne	 SHORT $L199737
  00fae	8b 55 cc	 mov	 edx, DWORD PTR _this$[ebp]
  00fb1	0f b6 82 34 02
	00 00		 movzx	 eax, BYTE PTR [edx+564]
  00fb8	85 c0		 test	 eax, eax
  00fba	74 13		 je	 SHORT $L199737

; 334  : 			rc.bottom -= rcControl.Height() - 127;

  00fbc	8d 4d d0	 lea	 ecx, DWORD PTR _rcControl$[ebp]
  00fbf	e8 00 00 00 00	 call	 ?Height@CRect@@QBEHXZ	; CRect::Height
  00fc4	83 e8 7f	 sub	 eax, 127		; 0000007fH
  00fc7	8b 4d fc	 mov	 ecx, DWORD PTR _rc$[ebp+12]
  00fca	2b c8		 sub	 ecx, eax
  00fcc	89 4d fc	 mov	 DWORD PTR _rc$[ebp+12], ecx
$L199737:

; 335  : 
; 336  : 		if(rc.Height() < m_nMinCy)

  00fcf	8d 4d f0	 lea	 ecx, DWORD PTR _rc$[ebp]
  00fd2	e8 00 00 00 00	 call	 ?Height@CRect@@QBEHXZ	; CRect::Height
  00fd7	8b 55 cc	 mov	 edx, DWORD PTR _this$[ebp]
  00fda	3b 82 0c 01 00
	00		 cmp	 eax, DWORD PTR [edx+268]
  00fe0	7d 0f		 jge	 SHORT $L199738

; 337  : 			rc.bottom = rc.top + m_nMinCy;

  00fe2	8b 45 cc	 mov	 eax, DWORD PTR _this$[ebp]
  00fe5	8b 4d f4	 mov	 ecx, DWORD PTR _rc$[ebp+4]
  00fe8	03 88 0c 01 00
	00		 add	 ecx, DWORD PTR [eax+268]
  00fee	89 4d fc	 mov	 DWORD PTR _rc$[ebp+12], ecx
$L199738:

; 338  : 
; 339  : 
; 340  : 		MoveWindow(&rc);

  00ff1	6a 01		 push	 1
  00ff3	8d 55 f0	 lea	 edx, DWORD PTR _rc$[ebp]
  00ff6	52		 push	 edx
  00ff7	8b 4d cc	 mov	 ecx, DWORD PTR _this$[ebp]
  00ffa	e8 00 00 00 00	 call	 ?MoveWindow@CWnd@@QAEXPBUtagRECT@@H@Z ; CWnd::MoveWindow

; 341  : 
; 342  : 	}
; 343  : 	else

  00fff	eb 41		 jmp	 SHORT $L199739
$L199736:

; 344  : 	{
; 345  : 		m_pPlistWnd->ShowWindow(SW_HIDE);

  01001	6a 00		 push	 0
  01003	8b 45 cc	 mov	 eax, DWORD PTR _this$[ebp]
  01006	8b 88 4c 02 00
	00		 mov	 ecx, DWORD PTR [eax+588]
  0100c	e8 00 00 00 00	 call	 ?ShowWindow@CWnd@@QAEHH@Z ; CWnd::ShowWindow

; 346  : 		rc.bottom -= rcPlaylist.Height();

  01011	8d 4d e0	 lea	 ecx, DWORD PTR _rcPlaylist$[ebp]
  01014	e8 00 00 00 00	 call	 ?Height@CRect@@QBEHXZ	; CRect::Height
  01019	8b 4d fc	 mov	 ecx, DWORD PTR _rc$[ebp+12]
  0101c	2b c8		 sub	 ecx, eax
  0101e	89 4d fc	 mov	 DWORD PTR _rc$[ebp+12], ecx

; 347  : 		MoveWindow(&rc);

  01021	6a 01		 push	 1
  01023	8d 55 f0	 lea	 edx, DWORD PTR _rc$[ebp]
  01026	52		 push	 edx
  01027	8b 4d cc	 mov	 ecx, DWORD PTR _this$[ebp]
  0102a	e8 00 00 00 00	 call	 ?MoveWindow@CWnd@@QAEXPBUtagRECT@@H@Z ; CWnd::MoveWindow

; 348  : 		m_isShowMVWhenClosePlaylist = m_bShowMV;

  0102f	8b 45 cc	 mov	 eax, DWORD PTR _this$[ebp]
  01032	0f b6 88 34 02
	00 00		 movzx	 ecx, BYTE PTR [eax+564]
  01039	8b 55 cc	 mov	 edx, DWORD PTR _this$[ebp]
  0103c	89 8a 3c 02 00
	00		 mov	 DWORD PTR [edx+572], ecx
$L199739:

; 349  : 	}
; 350  : 
; 351  : 	//chaohua edit
; 352  : 	//if(m_bShowPlaylist)
; 353  : 	//	LogUserActMsg(STR_USER_CLICK, "BTN:SHOW_PLAYLIST");
; 354  : 	//else
; 355  : 	//	LogUserActMsg(STR_USER_CLICK, "BTN:HIDE_PLAYLIST");
; 356  : 
; 357  : 
; 358  : 	//if(m_bShowPlaylist)
; 359  : 	//	AfxGetUserConfig()->SetConfigIntValue( CONF_APP_MODULE_NAME,CONF_APP_SEPMODE_START_MODE,SHOWLIST,true );
; 360  : 	//else
; 361  : 	//	AfxGetUserConfig()->SetConfigIntValue( CONF_APP_MODULE_NAME,CONF_APP_SEPMODE_START_MODE,0,true );
; 362  : 	RedrawWindow(NULL, NULL, RDW_INVALIDATE | RDW_UPDATENOW | RDW_ERASE | RDW_ALLCHILDREN);

  01042	68 85 01 00 00	 push	 389			; 00000185H
  01047	6a 00		 push	 0
  01049	6a 00		 push	 0
  0104b	8b 4d cc	 mov	 ecx, DWORD PTR _this$[ebp]
  0104e	e8 00 00 00 00	 call	 ?RedrawWindow@CWnd@@QAEHPBUtagRECT@@PAVCRgn@@I@Z ; CWnd::RedrawWindow

; 363  : }

  01053	8b e5		 mov	 esp, ebp
  01055	5d		 pop	 ebp
  01056	c3		 ret	 0
?ChangePlaylistMode@CMainHostWnd@@QAEXXZ ENDP		; CMainHostWnd::ChangePlaylistMode
_TEXT	ENDS
EXTRN	?_needChangeCursor@CHostWnd@@MAE_NABVCPoint@@@Z:NEAR ; CHostWnd::_needChangeCursor
; Function compile flags: /Odt
_TEXT	SEGMENT
_this$ = -8						; size = 4
_ret$ = -1						; size = 1
_Pt$ = 8						; size = 4
?_needChangeCursor@CMainHostWnd@@UAE_NABVCPoint@@@Z PROC NEAR ; CMainHostWnd::_needChangeCursor
; _this$ = ecx

; 367  : {

  01060	55		 push	 ebp
  01061	8b ec		 mov	 ebp, esp
  01063	83 ec 08	 sub	 esp, 8
  01066	89 4d f8	 mov	 DWORD PTR _this$[ebp], ecx

; 368  : 
; 369  : 	bool ret = __super::_needChangeCursor(Pt);

  01069	8b 45 08	 mov	 eax, DWORD PTR _Pt$[ebp]
  0106c	50		 push	 eax
  0106d	8b 4d f8	 mov	 ecx, DWORD PTR _this$[ebp]
  01070	e8 00 00 00 00	 call	 ?_needChangeCursor@CHostWnd@@MAE_NABVCPoint@@@Z ; CHostWnd::_needChangeCursor
  01075	88 45 ff	 mov	 BYTE PTR _ret$[ebp], al

; 370  : 	if(ret == true && !m_bShowPlaylist && !m_bShowMV)

  01078	0f b6 4d ff	 movzx	 ecx, BYTE PTR _ret$[ebp]
  0107c	83 f9 01	 cmp	 ecx, 1
  0107f	75 7c		 jne	 SHORT $L199745
  01081	8b 55 f8	 mov	 edx, DWORD PTR _this$[ebp]
  01084	0f b6 82 35 02
	00 00		 movzx	 eax, BYTE PTR [edx+565]
  0108b	85 c0		 test	 eax, eax
  0108d	75 6e		 jne	 SHORT $L199745
  0108f	8b 4d f8	 mov	 ecx, DWORD PTR _this$[ebp]
  01092	0f b6 91 34 02
	00 00		 movzx	 edx, BYTE PTR [ecx+564]
  01099	85 d2		 test	 edx, edx
  0109b	75 60		 jne	 SHORT $L199745

; 371  : 	{
; 372  : 		if(m_iDirection & DIRECTION_TOP)

  0109d	8b 45 f8	 mov	 eax, DWORD PTR _this$[ebp]
  010a0	8b 88 9c 00 00
	00		 mov	 ecx, DWORD PTR [eax+156]
  010a6	83 e1 04	 and	 ecx, 4
  010a9	74 15		 je	 SHORT $L199746

; 373  : 			m_iDirection ^= DIRECTION_TOP;

  010ab	8b 55 f8	 mov	 edx, DWORD PTR _this$[ebp]
  010ae	8b 82 9c 00 00
	00		 mov	 eax, DWORD PTR [edx+156]
  010b4	83 f0 04	 xor	 eax, 4
  010b7	8b 4d f8	 mov	 ecx, DWORD PTR _this$[ebp]
  010ba	89 81 9c 00 00
	00		 mov	 DWORD PTR [ecx+156], eax
$L199746:

; 374  : 
; 375  : 		if(m_iDirection & DIRECTION_BOTTOM)

  010c0	8b 55 f8	 mov	 edx, DWORD PTR _this$[ebp]
  010c3	8b 82 9c 00 00
	00		 mov	 eax, DWORD PTR [edx+156]
  010c9	83 e0 08	 and	 eax, 8
  010cc	74 15		 je	 SHORT $L199747

; 376  : 			m_iDirection ^= DIRECTION_BOTTOM;

  010ce	8b 4d f8	 mov	 ecx, DWORD PTR _this$[ebp]
  010d1	8b 91 9c 00 00
	00		 mov	 edx, DWORD PTR [ecx+156]
  010d7	83 f2 08	 xor	 edx, 8
  010da	8b 45 f8	 mov	 eax, DWORD PTR _this$[ebp]
  010dd	89 90 9c 00 00
	00		 mov	 DWORD PTR [eax+156], edx
$L199747:

; 377  : 
; 378  : 		if(m_iDirection == 0)

  010e3	8b 4d f8	 mov	 ecx, DWORD PTR _this$[ebp]
  010e6	83 b9 9c 00 00
	00 00		 cmp	 DWORD PTR [ecx+156], 0
  010ed	75 0e		 jne	 SHORT $L199745

; 379  : 		{
; 380  : 			m_bChangeCursor = true;

  010ef	8b 55 f8	 mov	 edx, DWORD PTR _this$[ebp]
  010f2	c6 82 a0 00 00
	00 01		 mov	 BYTE PTR [edx+160], 1

; 381  : 			return false;

  010f9	32 c0		 xor	 al, al
  010fb	eb 03		 jmp	 SHORT $L199743
$L199745:

; 382  : 		}
; 383  : 
; 384  : 	}
; 385  : 	return ret;

  010fd	8a 45 ff	 mov	 al, BYTE PTR _ret$[ebp]
$L199743:

; 386  : 
; 387  : }

  01100	8b e5		 mov	 esp, ebp
  01102	5d		 pop	 ebp
  01103	c2 04 00	 ret	 4
?_needChangeCursor@CMainHostWnd@@UAE_NABVCPoint@@@Z ENDP ; CMainHostWnd::_needChangeCursor
_TEXT	ENDS
PUBLIC	?SetTo1x@CMainHostWnd@@QAEXXZ			; CMainHostWnd::SetTo1x
EXTRN	?PopupWndsChangeTo1x@CHostWndMgr@@QAEXXZ:NEAR	; CHostWndMgr::PopupWndsChangeTo1x
; Function compile flags: /Odt
_TEXT	SEGMENT
_this$ = -44						; size = 4
_deltax$199756 = -40					; size = 4
_deltay$199757 = -36					; size = 4
_rcControl$ = -32					; size = 16
_rc$ = -16						; size = 16
?SetTo1x@CMainHostWnd@@QAEXXZ PROC NEAR			; CMainHostWnd::SetTo1x
; _this$ = ecx

; 390  : {

  01110	55		 push	 ebp
  01111	8b ec		 mov	 ebp, esp
  01113	83 ec 2c	 sub	 esp, 44			; 0000002cH
  01116	89 4d d4	 mov	 DWORD PTR _this$[ebp], ecx

; 391  : 	CRect rc, rcControl;

  01119	8d 4d f0	 lea	 ecx, DWORD PTR _rc$[ebp]
  0111c	e8 00 00 00 00	 call	 ??0CRect@@QAE@XZ	; CRect::CRect
  01121	8d 4d e0	 lea	 ecx, DWORD PTR _rcControl$[ebp]
  01124	e8 00 00 00 00	 call	 ??0CRect@@QAE@XZ	; CRect::CRect

; 392  : 	GetWindowRect(&rc);

  01129	8d 45 f0	 lea	 eax, DWORD PTR _rc$[ebp]
  0112c	50		 push	 eax
  0112d	8b 4d d4	 mov	 ecx, DWORD PTR _this$[ebp]
  01130	e8 00 00 00 00	 call	 ?GetWindowRect@CWnd@@QBEXPAUtagRECT@@@Z ; CWnd::GetWindowRect

; 393  : 
; 394  : 	if(!m_bShowPlaylist)

  01135	8b 4d d4	 mov	 ecx, DWORD PTR _this$[ebp]
  01138	0f b6 91 35 02
	00 00		 movzx	 edx, BYTE PTR [ecx+565]
  0113f	85 d2		 test	 edx, edx
  01141	75 19		 jne	 SHORT $L199754

; 395  : 	{
; 396  : 		rc.right = rc.left + DEFAULT_WIDTH;

  01143	8b 45 f0	 mov	 eax, DWORD PTR _rc$[ebp]
  01146	05 40 01 00 00	 add	 eax, 320		; 00000140H
  0114b	89 45 f8	 mov	 DWORD PTR _rc$[ebp+8], eax

; 397  : 		rc.bottom = rc.top + DEFAULT_HEIGHT;

  0114e	8b 4d f4	 mov	 ecx, DWORD PTR _rc$[ebp+4]
  01151	81 c1 56 01 00
	00		 add	 ecx, 342		; 00000156H
  01157	89 4d fc	 mov	 DWORD PTR _rc$[ebp+12], ecx

; 398  : 	}
; 399  : 	else

  0115a	eb 54		 jmp	 SHORT $L199755
$L199754:

; 400  : 	{
; 401  : 		m_iDirection = DIRECTION_TOP;

  0115c	8b 55 d4	 mov	 edx, DWORD PTR _this$[ebp]
  0115f	c7 82 9c 00 00
	00 04 00 00 00	 mov	 DWORD PTR [edx+156], 4

; 402  : 		m_pControlWnd->GetWindowRect(&rcControl);

  01169	8d 45 e0	 lea	 eax, DWORD PTR _rcControl$[ebp]
  0116c	50		 push	 eax
  0116d	8b 4d d4	 mov	 ecx, DWORD PTR _this$[ebp]
  01170	8b 89 48 02 00
	00		 mov	 ecx, DWORD PTR [ecx+584]
  01176	e8 00 00 00 00	 call	 ?GetWindowRect@CWnd@@QBEXPAUtagRECT@@@Z ; CWnd::GetWindowRect

; 403  : 		int deltax = rcControl.Width() - DEFAULT_WIDTH;

  0117b	8d 4d e0	 lea	 ecx, DWORD PTR _rcControl$[ebp]
  0117e	e8 00 00 00 00	 call	 ?Width@CRect@@QBEHXZ	; CRect::Width
  01183	2d 40 01 00 00	 sub	 eax, 320		; 00000140H
  01188	89 45 d8	 mov	 DWORD PTR _deltax$199756[ebp], eax

; 404  : 		int deltay = rcControl.Height() - DEFAULT_HEIGHT;

  0118b	8d 4d e0	 lea	 ecx, DWORD PTR _rcControl$[ebp]
  0118e	e8 00 00 00 00	 call	 ?Height@CRect@@QBEHXZ	; CRect::Height
  01193	2d 56 01 00 00	 sub	 eax, 342		; 00000156H
  01198	89 45 dc	 mov	 DWORD PTR _deltay$199757[ebp], eax

; 405  : 
; 406  : 		rc.right = rc.left + DEFAULT_WIDTH;

  0119b	8b 55 f0	 mov	 edx, DWORD PTR _rc$[ebp]
  0119e	81 c2 40 01 00
	00		 add	 edx, 320		; 00000140H
  011a4	89 55 f8	 mov	 DWORD PTR _rc$[ebp+8], edx

; 407  : 		rc.bottom = rc.bottom - deltay;

  011a7	8b 45 fc	 mov	 eax, DWORD PTR _rc$[ebp+12]
  011aa	2b 45 dc	 sub	 eax, DWORD PTR _deltay$199757[ebp]
  011ad	89 45 fc	 mov	 DWORD PTR _rc$[ebp+12], eax
$L199755:

; 408  : 	}
; 409  : 
; 410  : 	this->MoveWindow(&rc);

  011b0	6a 01		 push	 1
  011b2	8d 4d f0	 lea	 ecx, DWORD PTR _rc$[ebp]
  011b5	51		 push	 ecx
  011b6	8b 4d d4	 mov	 ecx, DWORD PTR _this$[ebp]
  011b9	e8 00 00 00 00	 call	 ?MoveWindow@CWnd@@QAEXPBUtagRECT@@H@Z ; CWnd::MoveWindow

; 411  : 
; 412  : 	CHostWndMgr::GetInstance()->PopupWndsChangeTo1x();

  011be	e8 00 00 00 00	 call	 ?GetInstance@CHostWndMgr@@SAPAV1@XZ ; CHostWndMgr::GetInstance
  011c3	8b c8		 mov	 ecx, eax
  011c5	e8 00 00 00 00	 call	 ?PopupWndsChangeTo1x@CHostWndMgr@@QAEXXZ ; CHostWndMgr::PopupWndsChangeTo1x

; 413  : }

  011ca	8b e5		 mov	 esp, ebp
  011cc	5d		 pop	 ebp
  011cd	c3		 ret	 0
?SetTo1x@CMainHostWnd@@QAEXXZ ENDP			; CMainHostWnd::SetTo1x
_TEXT	ENDS
EXTRN	?ScreenToClient@CWnd@@QBEXPAUtagRECT@@@Z:NEAR	; CWnd::ScreenToClient
; Function compile flags: /Odt
_TEXT	SEGMENT
_this$ = -56						; size = 4
_deltax$199768 = -52					; size = 4
_rcControl$ = -48					; size = 16
_rcPlaylist$ = -32					; size = 16
_rc$ = -16						; size = 16
_height$ = 8						; size = 4
_width$ = 12						; size = 4
?MoveMvSize@CMainHostWnd@@QAEXHH@Z PROC NEAR		; CMainHostWnd::MoveMvSize
; _this$ = ecx

; 416  : {

  011d0	55		 push	 ebp
  011d1	8b ec		 mov	 ebp, esp
  011d3	83 ec 38	 sub	 esp, 56			; 00000038H
  011d6	89 4d c8	 mov	 DWORD PTR _this$[ebp], ecx

; 417  : 	CRect rc, rcControl, rcPlaylist;

  011d9	8d 4d f0	 lea	 ecx, DWORD PTR _rc$[ebp]
  011dc	e8 00 00 00 00	 call	 ??0CRect@@QAE@XZ	; CRect::CRect
  011e1	8d 4d d0	 lea	 ecx, DWORD PTR _rcControl$[ebp]
  011e4	e8 00 00 00 00	 call	 ??0CRect@@QAE@XZ	; CRect::CRect
  011e9	8d 4d e0	 lea	 ecx, DWORD PTR _rcPlaylist$[ebp]
  011ec	e8 00 00 00 00	 call	 ??0CRect@@QAE@XZ	; CRect::CRect

; 418  : 	GetWindowRect(&rc);

  011f1	8d 45 f0	 lea	 eax, DWORD PTR _rc$[ebp]
  011f4	50		 push	 eax
  011f5	8b 4d c8	 mov	 ecx, DWORD PTR _this$[ebp]
  011f8	e8 00 00 00 00	 call	 ?GetWindowRect@CWnd@@QBEXPAUtagRECT@@@Z ; CWnd::GetWindowRect

; 419  : 
; 420  : 	if(!m_bShowPlaylist)

  011fd	8b 4d c8	 mov	 ecx, DWORD PTR _this$[ebp]
  01200	0f b6 91 35 02
	00 00		 movzx	 edx, BYTE PTR [ecx+565]
  01207	85 d2		 test	 edx, edx
  01209	75 17		 jne	 SHORT $L199766

; 421  : 	{
; 422  : 		rc.right = rc.left + width;

  0120b	8b 45 f0	 mov	 eax, DWORD PTR _rc$[ebp]
  0120e	03 45 0c	 add	 eax, DWORD PTR _width$[ebp]
  01211	89 45 f8	 mov	 DWORD PTR _rc$[ebp+8], eax

; 423  : 		rc.bottom = rc.top + height;

  01214	8b 4d f4	 mov	 ecx, DWORD PTR _rc$[ebp+4]
  01217	03 4d 08	 add	 ecx, DWORD PTR _height$[ebp]
  0121a	89 4d fc	 mov	 DWORD PTR _rc$[ebp+12], ecx

; 424  : 	}
; 425  : 	else

  0121d	e9 cb 00 00 00	 jmp	 $L199767
$L199766:

; 426  : 	{
; 427  : 		m_pPlistWnd->GetWindowRect(&rcPlaylist);

  01222	8d 55 e0	 lea	 edx, DWORD PTR _rcPlaylist$[ebp]
  01225	52		 push	 edx
  01226	8b 45 c8	 mov	 eax, DWORD PTR _this$[ebp]
  01229	8b 88 4c 02 00
	00		 mov	 ecx, DWORD PTR [eax+588]
  0122f	e8 00 00 00 00	 call	 ?GetWindowRect@CWnd@@QBEXPAUtagRECT@@@Z ; CWnd::GetWindowRect

; 428  : 		m_iDirection = DIRECTION_TOP;

  01234	8b 4d c8	 mov	 ecx, DWORD PTR _this$[ebp]
  01237	c7 81 9c 00 00
	00 04 00 00 00	 mov	 DWORD PTR [ecx+156], 4

; 429  : 		m_pControlWnd->GetWindowRect(&rcControl);

  01241	8d 55 d0	 lea	 edx, DWORD PTR _rcControl$[ebp]
  01244	52		 push	 edx
  01245	8b 45 c8	 mov	 eax, DWORD PTR _this$[ebp]
  01248	8b 88 48 02 00
	00		 mov	 ecx, DWORD PTR [eax+584]
  0124e	e8 00 00 00 00	 call	 ?GetWindowRect@CWnd@@QBEXPAUtagRECT@@@Z ; CWnd::GetWindowRect

; 430  : 		int deltax = rcControl.Width() - width;

  01253	8d 4d d0	 lea	 ecx, DWORD PTR _rcControl$[ebp]
  01256	e8 00 00 00 00	 call	 ?Width@CRect@@QBEHXZ	; CRect::Width
  0125b	2b 45 0c	 sub	 eax, DWORD PTR _width$[ebp]
  0125e	89 45 cc	 mov	 DWORD PTR _deltax$199768[ebp], eax

; 431  : 		//int deltay = rcControl.Height() - 629;
; 432  : 		rcPlaylist.top = rc.top + height;

  01261	8b 4d f4	 mov	 ecx, DWORD PTR _rc$[ebp+4]
  01264	03 4d 08	 add	 ecx, DWORD PTR _height$[ebp]
  01267	89 4d e4	 mov	 DWORD PTR _rcPlaylist$[ebp+4], ecx

; 433  : 		rcControl.bottom = rc.top + height;

  0126a	8b 55 f4	 mov	 edx, DWORD PTR _rc$[ebp+4]
  0126d	03 55 08	 add	 edx, DWORD PTR _height$[ebp]
  01270	89 55 dc	 mov	 DWORD PTR _rcControl$[ebp+12], edx

; 434  : 
; 435  : 		if(rcPlaylist.bottom - rcPlaylist.top < PLAYLIST_MIN_HEIGHT)

  01273	8b 45 ec	 mov	 eax, DWORD PTR _rcPlaylist$[ebp+12]
  01276	2b 45 e4	 sub	 eax, DWORD PTR _rcPlaylist$[ebp+4]
  01279	3d d2 00 00 00	 cmp	 eax, 210		; 000000d2H
  0127e	7d 0c		 jge	 SHORT $L199769

; 436  : 			rcPlaylist.bottom = rcPlaylist.top + PLAYLIST_MIN_HEIGHT;

  01280	8b 4d e4	 mov	 ecx, DWORD PTR _rcPlaylist$[ebp+4]
  01283	81 c1 d2 00 00
	00		 add	 ecx, 210		; 000000d2H
  01289	89 4d ec	 mov	 DWORD PTR _rcPlaylist$[ebp+12], ecx
$L199769:

; 437  : 		if(rc.bottom < rcPlaylist.bottom)

  0128c	8b 55 fc	 mov	 edx, DWORD PTR _rc$[ebp+12]
  0128f	3b 55 ec	 cmp	 edx, DWORD PTR _rcPlaylist$[ebp+12]
  01292	7d 06		 jge	 SHORT $L199770

; 438  : 			rc.bottom = rcPlaylist.bottom;

  01294	8b 45 ec	 mov	 eax, DWORD PTR _rcPlaylist$[ebp+12]
  01297	89 45 fc	 mov	 DWORD PTR _rc$[ebp+12], eax
$L199770:

; 439  : 
; 440  : 		ScreenToClient(rcPlaylist);

  0129a	8d 4d e0	 lea	 ecx, DWORD PTR _rcPlaylist$[ebp]
  0129d	e8 00 00 00 00	 call	 ??BCRect@@QAEPAUtagRECT@@XZ ; CRect::operator tagRECT *
  012a2	50		 push	 eax
  012a3	8b 4d c8	 mov	 ecx, DWORD PTR _this$[ebp]
  012a6	e8 00 00 00 00	 call	 ?ScreenToClient@CWnd@@QBEXPAUtagRECT@@@Z ; CWnd::ScreenToClient

; 441  : 		ScreenToClient(rcControl);

  012ab	8d 4d d0	 lea	 ecx, DWORD PTR _rcControl$[ebp]
  012ae	e8 00 00 00 00	 call	 ??BCRect@@QAEPAUtagRECT@@XZ ; CRect::operator tagRECT *
  012b3	50		 push	 eax
  012b4	8b 4d c8	 mov	 ecx, DWORD PTR _this$[ebp]
  012b7	e8 00 00 00 00	 call	 ?ScreenToClient@CWnd@@QBEXPAUtagRECT@@@Z ; CWnd::ScreenToClient

; 442  : 		m_pPlistWnd->MoveWindow(&rcPlaylist);

  012bc	6a 01		 push	 1
  012be	8d 4d e0	 lea	 ecx, DWORD PTR _rcPlaylist$[ebp]
  012c1	51		 push	 ecx
  012c2	8b 55 c8	 mov	 edx, DWORD PTR _this$[ebp]
  012c5	8b 8a 4c 02 00
	00		 mov	 ecx, DWORD PTR [edx+588]
  012cb	e8 00 00 00 00	 call	 ?MoveWindow@CWnd@@QAEXPBUtagRECT@@H@Z ; CWnd::MoveWindow

; 443  : 		m_pControlWnd->MoveWindow(&rcControl);

  012d0	6a 01		 push	 1
  012d2	8d 45 d0	 lea	 eax, DWORD PTR _rcControl$[ebp]
  012d5	50		 push	 eax
  012d6	8b 4d c8	 mov	 ecx, DWORD PTR _this$[ebp]
  012d9	8b 89 48 02 00
	00		 mov	 ecx, DWORD PTR [ecx+584]
  012df	e8 00 00 00 00	 call	 ?MoveWindow@CWnd@@QAEXPBUtagRECT@@H@Z ; CWnd::MoveWindow

; 444  : 
; 445  : 		rc.right = rc.left + width;

  012e4	8b 55 f0	 mov	 edx, DWORD PTR _rc$[ebp]
  012e7	03 55 0c	 add	 edx, DWORD PTR _width$[ebp]
  012ea	89 55 f8	 mov	 DWORD PTR _rc$[ebp+8], edx
$L199767:

; 446  : 		//rc.bottom = rc.bottom - deltay;
; 447  : 	}
; 448  : 
; 449  : 	this->MoveWindow(&rc);

  012ed	6a 01		 push	 1
  012ef	8d 45 f0	 lea	 eax, DWORD PTR _rc$[ebp]
  012f2	50		 push	 eax
  012f3	8b 4d c8	 mov	 ecx, DWORD PTR _this$[ebp]
  012f6	e8 00 00 00 00	 call	 ?MoveWindow@CWnd@@QAEXPBUtagRECT@@H@Z ; CWnd::MoveWindow

; 450  : 
; 451  : }

  012fb	8b e5		 mov	 esp, ebp
  012fd	5d		 pop	 ebp
  012fe	c2 08 00	 ret	 8
?MoveMvSize@CMainHostWnd@@QAEXHH@Z ENDP			; CMainHostWnd::MoveMvSize
_TEXT	ENDS
PUBLIC	?SetTo2x@CMainHostWnd@@QAEXXZ			; CMainHostWnd::SetTo2x
EXTRN	?PopupWndsChangeTo2x@CHostWndMgr@@QAEXXZ:NEAR	; CHostWndMgr::PopupWndsChangeTo2x
; Function compile flags: /Odt
_TEXT	SEGMENT
_this$ = -4						; size = 4
?SetTo2x@CMainHostWnd@@QAEXXZ PROC NEAR			; CMainHostWnd::SetTo2x
; _this$ = ecx

; 453  : {

  01310	55		 push	 ebp
  01311	8b ec		 mov	 ebp, esp
  01313	51		 push	 ecx
  01314	89 4d fc	 mov	 DWORD PTR _this$[ebp], ecx

; 454  : 	MoveMvSize(629 , 600);

  01317	68 58 02 00 00	 push	 600			; 00000258H
  0131c	68 75 02 00 00	 push	 629			; 00000275H
  01321	8b 4d fc	 mov	 ecx, DWORD PTR _this$[ebp]
  01324	e8 00 00 00 00	 call	 ?MoveMvSize@CMainHostWnd@@QAEXHH@Z ; CMainHostWnd::MoveMvSize

; 455  : 	CHostWndMgr::GetInstance()->PopupWndsChangeTo2x();

  01329	e8 00 00 00 00	 call	 ?GetInstance@CHostWndMgr@@SAPAV1@XZ ; CHostWndMgr::GetInstance
  0132e	8b c8		 mov	 ecx, eax
  01330	e8 00 00 00 00	 call	 ?PopupWndsChangeTo2x@CHostWndMgr@@QAEXXZ ; CHostWndMgr::PopupWndsChangeTo2x

; 456  : }

  01335	8b e5		 mov	 esp, ebp
  01337	5d		 pop	 ebp
  01338	c3		 ret	 0
?SetTo2x@CMainHostWnd@@QAEXXZ ENDP			; CMainHostWnd::SetTo2x
; Function compile flags: /Odt
_this$ = -4						; size = 4
?SetMinSize@CMainHostWnd@@QAEXXZ PROC NEAR		; CMainHostWnd::SetMinSize
; _this$ = ecx

; 459  : {

  01340	55		 push	 ebp
  01341	8b ec		 mov	 ebp, esp
  01343	51		 push	 ecx
  01344	89 4d fc	 mov	 DWORD PTR _this$[ebp], ecx

; 460  : 	//return;
; 461  : 	m_nMinCx = DEFAULT_WIDTH;

  01347	8b 45 fc	 mov	 eax, DWORD PTR _this$[ebp]
  0134a	c7 80 08 01 00
	00 40 01 00 00	 mov	 DWORD PTR [eax+264], 320 ; 00000140H

; 462  : 
; 463  : 	if(m_bShowPlaylist)

  01354	8b 4d fc	 mov	 ecx, DWORD PTR _this$[ebp]
  01357	0f b6 91 35 02
	00 00		 movzx	 edx, BYTE PTR [ecx+565]
  0135e	85 d2		 test	 edx, edx
  01360	74 2c		 je	 SHORT $L199777

; 464  : 	{
; 465  : 		if(!m_bShowMV)

  01362	8b 45 fc	 mov	 eax, DWORD PTR _this$[ebp]
  01365	0f b6 88 34 02
	00 00		 movzx	 ecx, BYTE PTR [eax+564]
  0136c	85 c9		 test	 ecx, ecx
  0136e	75 0f		 jne	 SHORT $L199778

; 466  : 			m_nMinCy = 127*2 + PLAYLIST_MIN_HEIGHT;

  01370	8b 55 fc	 mov	 edx, DWORD PTR _this$[ebp]
  01373	c7 82 0c 01 00
	00 d0 01 00 00	 mov	 DWORD PTR [edx+268], 464 ; 000001d0H

; 467  : 		else

  0137d	eb 0d		 jmp	 SHORT $L199779
$L199778:

; 468  : 			m_nMinCy = DEFAULT_HEIGHT + PLAYLIST_MIN_HEIGHT;

  0137f	8b 45 fc	 mov	 eax, DWORD PTR _this$[ebp]
  01382	c7 80 0c 01 00
	00 28 02 00 00	 mov	 DWORD PTR [eax+268], 552 ; 00000228H
$L199779:

; 469  : 	}
; 470  : 	else

  0138c	eb 2a		 jmp	 SHORT $L199776
$L199777:

; 471  : 	{
; 472  : 		if(!m_bShowMV)

  0138e	8b 4d fc	 mov	 ecx, DWORD PTR _this$[ebp]
  01391	0f b6 91 34 02
	00 00		 movzx	 edx, BYTE PTR [ecx+564]
  01398	85 d2		 test	 edx, edx
  0139a	75 0f		 jne	 SHORT $L199781

; 473  : 			m_nMinCy = 127;

  0139c	8b 45 fc	 mov	 eax, DWORD PTR _this$[ebp]
  0139f	c7 80 0c 01 00
	00 7f 00 00 00	 mov	 DWORD PTR [eax+268], 127 ; 0000007fH

; 474  : 		else

  013a9	eb 0d		 jmp	 SHORT $L199776
$L199781:

; 475  : 			m_nMinCy = DEFAULT_HEIGHT;

  013ab	8b 4d fc	 mov	 ecx, DWORD PTR _this$[ebp]
  013ae	c7 81 0c 01 00
	00 56 01 00 00	 mov	 DWORD PTR [ecx+268], 342 ; 00000156H
$L199776:

; 476  : 	}
; 477  : }

  013b8	8b e5		 mov	 esp, ebp
  013ba	5d		 pop	 ebp
  013bb	c3		 ret	 0
?SetMinSize@CMainHostWnd@@QAEXXZ ENDP			; CMainHostWnd::SetMinSize
_TEXT	ENDS
EXTRN	__imp_?Compare@?$CStringT@DV?$StrTraitMFC_DLL@DV?$ChTraitsCRT@D@ATL@@@@@ATL@@QBEHPBD@Z:NEAR
; Function compile flags: /Odt
; File d:\program files (x86)\microsoft visual studio .net 2003\vc7\atlmfc\include\cstringt.h
;	COMDAT ??8ATL@@YA_NABV?$CStringT@DV?$StrTraitMFC_DLL@DV?$ChTraitsCRT@D@ATL@@@@@0@PBD@Z
_TEXT	SEGMENT
_str1$ = 8						; size = 4
_psz2$ = 12						; size = 4
??8ATL@@YA_NABV?$CStringT@DV?$StrTraitMFC_DLL@DV?$ChTraitsCRT@D@ATL@@@@@0@PBD@Z PROC NEAR ; ATL::operator==, COMDAT

; 2087 : 	{

  00000	55		 push	 ebp
  00001	8b ec		 mov	 ebp, esp

; 2088 : 		return( str1.Compare( psz2 ) == 0 );

  00003	8b 45 0c	 mov	 eax, DWORD PTR _psz2$[ebp]
  00006	50		 push	 eax
  00007	8b 4d 08	 mov	 ecx, DWORD PTR _str1$[ebp]
  0000a	ff 15 00 00 00
	00		 call	 DWORD PTR __imp_?Compare@?$CStringT@DV?$StrTraitMFC_DLL@DV?$ChTraitsCRT@D@ATL@@@@@ATL@@QBEHPBD@Z
  00010	f7 d8		 neg	 eax
  00012	1b c0		 sbb	 eax, eax
  00014	40		 inc	 eax

; 2089 : 	}

  00015	5d		 pop	 ebp
  00016	c3		 ret	 0
??8ATL@@YA_NABV?$CStringT@DV?$StrTraitMFC_DLL@DV?$ChTraitsCRT@D@ATL@@@@@0@PBD@Z ENDP ; ATL::operator==
; Function compile flags: /Odt
; File d:\program files (x86)\microsoft visual studio .net 2003\vc7\atlmfc\include\atltypes.inl
_TEXT	ENDS
;	COMDAT ??0CRect@@QAE@XZ
_TEXT	SEGMENT
_this$ = -4						; size = 4
??0CRect@@QAE@XZ PROC NEAR				; CRect::CRect, COMDAT
; _this$ = ecx

; 110  : 	{ /* random filled */ }

  00000	55		 push	 ebp
  00001	8b ec		 mov	 ebp, esp
  00003	51		 push	 ecx
  00004	89 4d fc	 mov	 DWORD PTR _this$[ebp], ecx
  00007	8b 45 fc	 mov	 eax, DWORD PTR _this$[ebp]
  0000a	8b e5		 mov	 esp, ebp
  0000c	5d		 pop	 ebp
  0000d	c3		 ret	 0
??0CRect@@QAE@XZ ENDP					; CRect::CRect
; Function compile flags: /Odt
_TEXT	ENDS
;	COMDAT ?Width@CRect@@QBEHXZ
_TEXT	SEGMENT
_this$ = -4						; size = 4
?Width@CRect@@QBEHXZ PROC NEAR				; CRect::Width, COMDAT
; _this$ = ecx

; 123  : 	{ return right - left; }

  00000	55		 push	 ebp
  00001	8b ec		 mov	 ebp, esp
  00003	51		 push	 ecx
  00004	89 4d fc	 mov	 DWORD PTR _this$[ebp], ecx
  00007	8b 45 fc	 mov	 eax, DWORD PTR _this$[ebp]
  0000a	8b 4d fc	 mov	 ecx, DWORD PTR _this$[ebp]
  0000d	8b 40 08	 mov	 eax, DWORD PTR [eax+8]
  00010	2b 01		 sub	 eax, DWORD PTR [ecx]
  00012	8b e5		 mov	 esp, ebp
  00014	5d		 pop	 ebp
  00015	c3		 ret	 0
?Width@CRect@@QBEHXZ ENDP				; CRect::Width
; Function compile flags: /Odt
_TEXT	ENDS
;	COMDAT ?Height@CRect@@QBEHXZ
_TEXT	SEGMENT
_this$ = -4						; size = 4
?Height@CRect@@QBEHXZ PROC NEAR				; CRect::Height, COMDAT
; _this$ = ecx

; 125  : 	{ return bottom - top; }

  00000	55		 push	 ebp
  00001	8b ec		 mov	 ebp, esp
  00003	51		 push	 ecx
  00004	89 4d fc	 mov	 DWORD PTR _this$[ebp], ecx
  00007	8b 45 fc	 mov	 eax, DWORD PTR _this$[ebp]
  0000a	8b 4d fc	 mov	 ecx, DWORD PTR _this$[ebp]
  0000d	8b 40 0c	 mov	 eax, DWORD PTR [eax+12]
  00010	2b 41 04	 sub	 eax, DWORD PTR [ecx+4]
  00013	8b e5		 mov	 esp, ebp
  00015	5d		 pop	 ebp
  00016	c3		 ret	 0
?Height@CRect@@QBEHXZ ENDP				; CRect::Height
; Function compile flags: /Odt
_TEXT	ENDS
;	COMDAT ??BCRect@@QAEPAUtagRECT@@XZ
_TEXT	SEGMENT
_this$ = -4						; size = 4
??BCRect@@QAEPAUtagRECT@@XZ PROC NEAR			; CRect::operator tagRECT *, COMDAT
; _this$ = ecx

; 143  : 	{ return this; }

  00000	55		 push	 ebp
  00001	8b ec		 mov	 ebp, esp
  00003	51		 push	 ecx
  00004	89 4d fc	 mov	 DWORD PTR _this$[ebp], ecx
  00007	8b 45 fc	 mov	 eax, DWORD PTR _this$[ebp]
  0000a	8b e5		 mov	 esp, ebp
  0000c	5d		 pop	 ebp
  0000d	c3		 ret	 0
??BCRect@@QAEPAUtagRECT@@XZ ENDP			; CRect::operator tagRECT *
; Function compile flags: /Odt
_TEXT	ENDS
;	COMDAT ?DeflateRect@CRect@@QAEXHHHH@Z
_TEXT	SEGMENT
_this$ = -4						; size = 4
_l$ = 8							; size = 4
_t$ = 12						; size = 4
_r$ = 16						; size = 4
_b$ = 20						; size = 4
?DeflateRect@CRect@@QAEXHHHH@Z PROC NEAR		; CRect::DeflateRect, COMDAT
; _this$ = ecx

; 267  : 	{

  00000	55		 push	 ebp
  00001	8b ec		 mov	 ebp, esp
  00003	51		 push	 ecx
  00004	89 4d fc	 mov	 DWORD PTR _this$[ebp], ecx

; 268  : 		left += l;		top += t;

  00007	8b 45 fc	 mov	 eax, DWORD PTR _this$[ebp]
  0000a	8b 08		 mov	 ecx, DWORD PTR [eax]
  0000c	03 4d 08	 add	 ecx, DWORD PTR _l$[ebp]
  0000f	8b 55 fc	 mov	 edx, DWORD PTR _this$[ebp]
  00012	89 0a		 mov	 DWORD PTR [edx], ecx
  00014	8b 45 fc	 mov	 eax, DWORD PTR _this$[ebp]
  00017	8b 48 04	 mov	 ecx, DWORD PTR [eax+4]
  0001a	03 4d 0c	 add	 ecx, DWORD PTR _t$[ebp]
  0001d	8b 55 fc	 mov	 edx, DWORD PTR _this$[ebp]
  00020	89 4a 04	 mov	 DWORD PTR [edx+4], ecx

; 269  : 		right -= r;		bottom -= b;

  00023	8b 45 fc	 mov	 eax, DWORD PTR _this$[ebp]
  00026	8b 48 08	 mov	 ecx, DWORD PTR [eax+8]
  00029	2b 4d 10	 sub	 ecx, DWORD PTR _r$[ebp]
  0002c	8b 55 fc	 mov	 edx, DWORD PTR _this$[ebp]
  0002f	89 4a 08	 mov	 DWORD PTR [edx+8], ecx
  00032	8b 45 fc	 mov	 eax, DWORD PTR _this$[ebp]
  00035	8b 48 0c	 mov	 ecx, DWORD PTR [eax+12]
  00038	2b 4d 14	 sub	 ecx, DWORD PTR _b$[ebp]
  0003b	8b 55 fc	 mov	 edx, DWORD PTR _this$[ebp]
  0003e	89 4a 0c	 mov	 DWORD PTR [edx+12], ecx

; 270  : 	}

  00041	8b e5		 mov	 esp, ebp
  00043	5d		 pop	 ebp
  00044	c2 10 00	 ret	 16			; 00000010H
?DeflateRect@CRect@@QAEXHHHH@Z ENDP			; CRect::DeflateRect
; Function compile flags: /Odt
; File d:\program files (x86)\microsoft visual studio .net 2003\vc7\atlmfc\include\afx.inl
_TEXT	ENDS
;	COMDAT ?Serialize@CObject@@UAEXAAVCArchive@@@Z
_TEXT	SEGMENT
_this$ = -4						; size = 4
___formal$ = 8						; size = 4
?Serialize@CObject@@UAEXAAVCArchive@@@Z PROC NEAR	; CObject::Serialize, COMDAT
; _this$ = ecx

; 25   : 	{ /* CObject does not serialize anything by default */ }

  00000	55		 push	 ebp
  00001	8b ec		 mov	 ebp, esp
  00003	51		 push	 ecx
  00004	89 4d fc	 mov	 DWORD PTR _this$[ebp], ecx
  00007	8b e5		 mov	 esp, ebp
  00009	5d		 pop	 ebp
  0000a	c2 04 00	 ret	 4
?Serialize@CObject@@UAEXAAVCArchive@@@Z ENDP		; CObject::Serialize
_TEXT	ENDS
EXTRN	??3@YAXPAX@Z:NEAR				; operator delete
; Function compile flags: /Odt
;	COMDAT ??3CObject@@SGXPAX@Z
_TEXT	SEGMENT
_p$ = 8							; size = 4
??3CObject@@SGXPAX@Z PROC NEAR				; CObject::operator delete, COMDAT

; 31   : 	{ ::operator delete(p); }

  00000	55		 push	 ebp
  00001	8b ec		 mov	 ebp, esp
  00003	8b 45 08	 mov	 eax, DWORD PTR _p$[ebp]
  00006	50		 push	 eax
  00007	e8 00 00 00 00	 call	 ??3@YAXPAX@Z		; operator delete
  0000c	83 c4 04	 add	 esp, 4
  0000f	5d		 pop	 ebp
  00010	c2 04 00	 ret	 4
??3CObject@@SGXPAX@Z ENDP				; CObject::operator delete
; Function compile flags: /Odt
_TEXT	ENDS
;	COMDAT ?AssertValid@CObject@@UBEXXZ
_TEXT	SEGMENT
_this$ = -4						; size = 4
?AssertValid@CObject@@UBEXXZ PROC NEAR			; CObject::AssertValid, COMDAT
; _this$ = ecx

; 41   : 	{ /* no asserts in release builds */ }

  00000	55		 push	 ebp
  00001	8b ec		 mov	 ebp, esp
  00003	51		 push	 ecx
  00004	89 4d fc	 mov	 DWORD PTR _this$[ebp], ecx
  00007	8b e5		 mov	 esp, ebp
  00009	5d		 pop	 ebp
  0000a	c3		 ret	 0
?AssertValid@CObject@@UBEXXZ ENDP			; CObject::AssertValid
; Function compile flags: /Odt
_TEXT	ENDS
;	COMDAT ?Dump@CObject@@UBEXAAVCDumpContext@@@Z
_TEXT	SEGMENT
_this$ = -4						; size = 4
___formal$ = 8						; size = 4
?Dump@CObject@@UBEXAAVCDumpContext@@@Z PROC NEAR	; CObject::Dump, COMDAT
; _this$ = ecx

; 43   : 	{ /* no dumping in release builds */ }

  00000	55		 push	 ebp
  00001	8b ec		 mov	 ebp, esp
  00003	51		 push	 ecx
  00004	89 4d fc	 mov	 DWORD PTR _this$[ebp], ecx
  00007	8b e5		 mov	 esp, ebp
  00009	5d		 pop	 ebp
  0000a	c2 04 00	 ret	 4
?Dump@CObject@@UBEXAAVCDumpContext@@@Z ENDP		; CObject::Dump
_TEXT	ENDS
EXTRN	?MoveWindow@CWnd@@QAEXHHHHH@Z:NEAR		; CWnd::MoveWindow
; Function compile flags: /Odt
; File d:\program files (x86)\microsoft visual studio .net 2003\vc7\atlmfc\include\afxwin2.inl
;	COMDAT ?MoveWindow@CWnd@@QAEXPBUtagRECT@@H@Z
_TEXT	SEGMENT
_this$ = -4						; size = 4
_lpRect$ = 8						; size = 4
_bRepaint$ = 12						; size = 4
?MoveWindow@CWnd@@QAEXPBUtagRECT@@H@Z PROC NEAR		; CWnd::MoveWindow, COMDAT
; _this$ = ecx

; 89   : 	{ MoveWindow(lpRect->left, lpRect->top, lpRect->right - lpRect->left,

  00000	55		 push	 ebp
  00001	8b ec		 mov	 ebp, esp
  00003	51		 push	 ecx
  00004	89 4d fc	 mov	 DWORD PTR _this$[ebp], ecx

; 90   : 		lpRect->bottom - lpRect->top, bRepaint); }

  00007	8b 45 0c	 mov	 eax, DWORD PTR _bRepaint$[ebp]
  0000a	50		 push	 eax
  0000b	8b 4d 08	 mov	 ecx, DWORD PTR _lpRect$[ebp]
  0000e	8b 55 08	 mov	 edx, DWORD PTR _lpRect$[ebp]
  00011	8b 41 0c	 mov	 eax, DWORD PTR [ecx+12]
  00014	2b 42 04	 sub	 eax, DWORD PTR [edx+4]
  00017	50		 push	 eax
  00018	8b 4d 08	 mov	 ecx, DWORD PTR _lpRect$[ebp]
  0001b	8b 55 08	 mov	 edx, DWORD PTR _lpRect$[ebp]
  0001e	8b 41 08	 mov	 eax, DWORD PTR [ecx+8]
  00021	2b 02		 sub	 eax, DWORD PTR [edx]
  00023	50		 push	 eax
  00024	8b 4d 08	 mov	 ecx, DWORD PTR _lpRect$[ebp]
  00027	8b 51 04	 mov	 edx, DWORD PTR [ecx+4]
  0002a	52		 push	 edx
  0002b	8b 45 08	 mov	 eax, DWORD PTR _lpRect$[ebp]
  0002e	8b 08		 mov	 ecx, DWORD PTR [eax]
  00030	51		 push	 ecx
  00031	8b 4d fc	 mov	 ecx, DWORD PTR _this$[ebp]
  00034	e8 00 00 00 00	 call	 ?MoveWindow@CWnd@@QAEXHHHHH@Z ; CWnd::MoveWindow
  00039	8b e5		 mov	 esp, ebp
  0003b	5d		 pop	 ebp
  0003c	c2 08 00	 ret	 8
?MoveWindow@CWnd@@QAEXPBUtagRECT@@H@Z ENDP		; CWnd::MoveWindow
_TEXT	ENDS
EXTRN	__imp__GetWindowRect@8:NEAR
; Function compile flags: /Odt
;	COMDAT ?GetWindowRect@CWnd@@QBEXPAUtagRECT@@@Z
_TEXT	SEGMENT
_this$ = -4						; size = 4
_lpRect$ = 8						; size = 4
?GetWindowRect@CWnd@@QBEXPAUtagRECT@@@Z PROC NEAR	; CWnd::GetWindowRect, COMDAT
; _this$ = ecx

; 105  : 	{ ASSERT(::IsWindow(m_hWnd)); ::GetWindowRect(m_hWnd, lpRect); }

  00000	55		 push	 ebp
  00001	8b ec		 mov	 ebp, esp
  00003	51		 push	 ecx
  00004	89 4d fc	 mov	 DWORD PTR _this$[ebp], ecx
  00007	8b 45 08	 mov	 eax, DWORD PTR _lpRect$[ebp]
  0000a	50		 push	 eax
  0000b	8b 4d fc	 mov	 ecx, DWORD PTR _this$[ebp]
  0000e	8b 51 20	 mov	 edx, DWORD PTR [ecx+32]
  00011	52		 push	 edx
  00012	ff 15 00 00 00
	00		 call	 DWORD PTR __imp__GetWindowRect@8
  00018	8b e5		 mov	 esp, ebp
  0001a	5d		 pop	 ebp
  0001b	c2 04 00	 ret	 4
?GetWindowRect@CWnd@@QBEXPAUtagRECT@@@Z ENDP		; CWnd::GetWindowRect
_TEXT	ENDS
EXTRN	__imp__GetClientRect@8:NEAR
; Function compile flags: /Odt
;	COMDAT ?GetClientRect@CWnd@@QBEXPAUtagRECT@@@Z
_TEXT	SEGMENT
_this$ = -4						; size = 4
_lpRect$ = 8						; size = 4
?GetClientRect@CWnd@@QBEXPAUtagRECT@@@Z PROC NEAR	; CWnd::GetClientRect, COMDAT
; _this$ = ecx

; 107  : 	{ ASSERT(::IsWindow(m_hWnd)); ::GetClientRect(m_hWnd, lpRect); }

  00000	55		 push	 ebp
  00001	8b ec		 mov	 ebp, esp
  00003	51		 push	 ecx
  00004	89 4d fc	 mov	 DWORD PTR _this$[ebp], ecx
  00007	8b 45 08	 mov	 eax, DWORD PTR _lpRect$[ebp]
  0000a	50		 push	 eax
  0000b	8b 4d fc	 mov	 ecx, DWORD PTR _this$[ebp]
  0000e	8b 51 20	 mov	 edx, DWORD PTR [ecx+32]
  00011	52		 push	 edx
  00012	ff 15 00 00 00
	00		 call	 DWORD PTR __imp__GetClientRect@8
  00018	8b e5		 mov	 esp, ebp
  0001a	5d		 pop	 ebp
  0001b	c2 04 00	 ret	 4
?GetClientRect@CWnd@@QBEXPAUtagRECT@@@Z ENDP		; CWnd::GetClientRect
_TEXT	ENDS
EXTRN	?FromHandle@CDC@@SGPAV1@PAUHDC__@@@Z:NEAR	; CDC::FromHandle
EXTRN	__imp__GetDC@4:NEAR
; Function compile flags: /Odt
;	COMDAT ?GetDC@CWnd@@QAEPAVCDC@@XZ
_TEXT	SEGMENT
_this$ = -4						; size = 4
?GetDC@CWnd@@QAEPAVCDC@@XZ PROC NEAR			; CWnd::GetDC, COMDAT
; _this$ = ecx

; 121  : 	{ ASSERT(::IsWindow(m_hWnd)); return CDC::FromHandle(::GetDC(m_hWnd)); }

  00000	55		 push	 ebp
  00001	8b ec		 mov	 ebp, esp
  00003	51		 push	 ecx
  00004	89 4d fc	 mov	 DWORD PTR _this$[ebp], ecx
  00007	8b 45 fc	 mov	 eax, DWORD PTR _this$[ebp]
  0000a	8b 48 20	 mov	 ecx, DWORD PTR [eax+32]
  0000d	51		 push	 ecx
  0000e	ff 15 00 00 00
	00		 call	 DWORD PTR __imp__GetDC@4
  00014	50		 push	 eax
  00015	e8 00 00 00 00	 call	 ?FromHandle@CDC@@SGPAV1@PAUHDC__@@@Z ; CDC::FromHandle
  0001a	8b e5		 mov	 esp, ebp
  0001c	5d		 pop	 ebp
  0001d	c3		 ret	 0
?GetDC@CWnd@@QAEPAVCDC@@XZ ENDP				; CWnd::GetDC
_TEXT	ENDS
EXTRN	__imp__ReleaseDC@8:NEAR
; Function compile flags: /Odt
;	COMDAT ?ReleaseDC@CWnd@@QAEHPAVCDC@@@Z
_TEXT	SEGMENT
_this$ = -4						; size = 4
_pDC$ = 8						; size = 4
?ReleaseDC@CWnd@@QAEHPAVCDC@@@Z PROC NEAR		; CWnd::ReleaseDC, COMDAT
; _this$ = ecx

; 125  : 	{ ASSERT(::IsWindow(m_hWnd)); return ::ReleaseDC(m_hWnd, pDC->m_hDC); }

  00000	55		 push	 ebp
  00001	8b ec		 mov	 ebp, esp
  00003	51		 push	 ecx
  00004	89 4d fc	 mov	 DWORD PTR _this$[ebp], ecx
  00007	8b 45 08	 mov	 eax, DWORD PTR _pDC$[ebp]
  0000a	8b 48 04	 mov	 ecx, DWORD PTR [eax+4]
  0000d	51		 push	 ecx
  0000e	8b 55 fc	 mov	 edx, DWORD PTR _this$[ebp]
  00011	8b 42 20	 mov	 eax, DWORD PTR [edx+32]
  00014	50		 push	 eax
  00015	ff 15 00 00 00
	00		 call	 DWORD PTR __imp__ReleaseDC@8
  0001b	8b e5		 mov	 esp, ebp
  0001d	5d		 pop	 ebp
  0001e	c2 04 00	 ret	 4
?ReleaseDC@CWnd@@QAEHPAVCDC@@@Z ENDP			; CWnd::ReleaseDC
_TEXT	ENDS
PUBLIC	?GetSafeHandle@CGdiObject@@QBEPAXXZ		; CGdiObject::GetSafeHandle
EXTRN	__imp__RedrawWindow@16:NEAR
; Function compile flags: /Odt
;	COMDAT ?RedrawWindow@CWnd@@QAEHPBUtagRECT@@PAVCRgn@@I@Z
_TEXT	SEGMENT
_this$ = -4						; size = 4
_lpRectUpdate$ = 8					; size = 4
_prgnUpdate$ = 12					; size = 4
_flags$ = 16						; size = 4
?RedrawWindow@CWnd@@QAEHPBUtagRECT@@PAVCRgn@@I@Z PROC NEAR ; CWnd::RedrawWindow, COMDAT
; _this$ = ecx

; 172  : 	{ ASSERT(::IsWindow(m_hWnd)); return ::RedrawWindow(m_hWnd, lpRectUpdate, (HRGN)prgnUpdate->GetSafeHandle(), flags); }

  00000	55		 push	 ebp
  00001	8b ec		 mov	 ebp, esp
  00003	51		 push	 ecx
  00004	89 4d fc	 mov	 DWORD PTR _this$[ebp], ecx
  00007	8b 45 10	 mov	 eax, DWORD PTR _flags$[ebp]
  0000a	50		 push	 eax
  0000b	8b 4d 0c	 mov	 ecx, DWORD PTR _prgnUpdate$[ebp]
  0000e	e8 00 00 00 00	 call	 ?GetSafeHandle@CGdiObject@@QBEPAXXZ ; CGdiObject::GetSafeHandle
  00013	50		 push	 eax
  00014	8b 4d 08	 mov	 ecx, DWORD PTR _lpRectUpdate$[ebp]
  00017	51		 push	 ecx
  00018	8b 55 fc	 mov	 edx, DWORD PTR _this$[ebp]
  0001b	8b 42 20	 mov	 eax, DWORD PTR [edx+32]
  0001e	50		 push	 eax
  0001f	ff 15 00 00 00
	00		 call	 DWORD PTR __imp__RedrawWindow@16
  00025	8b e5		 mov	 esp, ebp
  00027	5d		 pop	 ebp
  00028	c2 0c 00	 ret	 12			; 0000000cH
?RedrawWindow@CWnd@@QAEHPBUtagRECT@@PAVCRgn@@I@Z ENDP	; CWnd::RedrawWindow
; Function compile flags: /Odt
; File d:\program files (x86)\microsoft visual studio .net 2003\vc7\atlmfc\include\afxwin1.inl
_TEXT	ENDS
;	COMDAT ?GetSafeHandle@CGdiObject@@QBEPAXXZ
_TEXT	SEGMENT
tv66 = -8						; size = 4
_this$ = -4						; size = 4
?GetSafeHandle@CGdiObject@@QBEPAXXZ PROC NEAR		; CGdiObject::GetSafeHandle, COMDAT
; _this$ = ecx

; 80   : 	{ return this == NULL ? NULL : m_hObject; }

  00000	55		 push	 ebp
  00001	8b ec		 mov	 ebp, esp
  00003	83 ec 08	 sub	 esp, 8
  00006	89 4d fc	 mov	 DWORD PTR _this$[ebp], ecx
  00009	83 7d fc 00	 cmp	 DWORD PTR _this$[ebp], 0
  0000d	75 09		 jne	 SHORT $L201002
  0000f	c7 45 f8 00 00
	00 00		 mov	 DWORD PTR tv66[ebp], 0
  00016	eb 09		 jmp	 SHORT $L201003
$L201002:
  00018	8b 45 fc	 mov	 eax, DWORD PTR _this$[ebp]
  0001b	8b 48 04	 mov	 ecx, DWORD PTR [eax+4]
  0001e	89 4d f8	 mov	 DWORD PTR tv66[ebp], ecx
$L201003:
  00021	8b 45 f8	 mov	 eax, DWORD PTR tv66[ebp]
  00024	8b e5		 mov	 esp, ebp
  00026	5d		 pop	 ebp
  00027	c3		 ret	 0
?GetSafeHandle@CGdiObject@@QBEPAXXZ ENDP		; CGdiObject::GetSafeHandle
_TEXT	ENDS
PUBLIC	?GetSafeHwnd@CWnd@@QBEPAUHWND__@@XZ		; CWnd::GetSafeHwnd
EXTRN	?FromHandle@CWnd@@SGPAV1@PAUHWND__@@@Z:NEAR	; CWnd::FromHandle
; Function compile flags: /Odt
; File d:\program files (x86)\microsoft visual studio .net 2003\vc7\atlmfc\include\afxwin2.inl
;	COMDAT ?SetParent@CWnd@@QAEPAV1@PAV1@@Z
_TEXT	SEGMENT
_this$ = -4						; size = 4
_pWndNewParent$ = 8					; size = 4
?SetParent@CWnd@@QAEPAV1@PAV1@@Z PROC NEAR		; CWnd::SetParent, COMDAT
; _this$ = ecx

; 284  : 	{ ASSERT(::IsWindow(m_hWnd)); return CWnd::FromHandle(::SetParent(m_hWnd,

  00000	55		 push	 ebp
  00001	8b ec		 mov	 ebp, esp
  00003	51		 push	 ecx
  00004	89 4d fc	 mov	 DWORD PTR _this$[ebp], ecx

; 285  : 			pWndNewParent->GetSafeHwnd())); }

  00007	8b 4d 08	 mov	 ecx, DWORD PTR _pWndNewParent$[ebp]
  0000a	e8 00 00 00 00	 call	 ?GetSafeHwnd@CWnd@@QBEPAUHWND__@@XZ ; CWnd::GetSafeHwnd
  0000f	50		 push	 eax
  00010	8b 45 fc	 mov	 eax, DWORD PTR _this$[ebp]
  00013	8b 48 20	 mov	 ecx, DWORD PTR [eax+32]
  00016	51		 push	 ecx
  00017	ff 15 00 00 00
	00		 call	 DWORD PTR __imp__SetParent@8
  0001d	50		 push	 eax
  0001e	e8 00 00 00 00	 call	 ?FromHandle@CWnd@@SGPAV1@PAUHWND__@@@Z ; CWnd::FromHandle
  00023	8b e5		 mov	 esp, ebp
  00025	5d		 pop	 ebp
  00026	c2 04 00	 ret	 4
?SetParent@CWnd@@QAEPAV1@PAV1@@Z ENDP			; CWnd::SetParent
; Function compile flags: /Odt
_TEXT	ENDS
;	COMDAT ?GetSafeHwnd@CWnd@@QBEPAUHWND__@@XZ
_TEXT	SEGMENT
tv66 = -8						; size = 4
_this$ = -4						; size = 4
?GetSafeHwnd@CWnd@@QBEPAUHWND__@@XZ PROC NEAR		; CWnd::GetSafeHwnd, COMDAT
; _this$ = ecx

; 27   : 	{ return this == NULL ? NULL : m_hWnd; }

  00000	55		 push	 ebp
  00001	8b ec		 mov	 ebp, esp
  00003	83 ec 08	 sub	 esp, 8
  00006	89 4d fc	 mov	 DWORD PTR _this$[ebp], ecx
  00009	83 7d fc 00	 cmp	 DWORD PTR _this$[ebp], 0
  0000d	75 09		 jne	 SHORT $L201008
  0000f	c7 45 f8 00 00
	00 00		 mov	 DWORD PTR tv66[ebp], 0
  00016	eb 09		 jmp	 SHORT $L201009
$L201008:
  00018	8b 45 fc	 mov	 eax, DWORD PTR _this$[ebp]
  0001b	8b 48 20	 mov	 ecx, DWORD PTR [eax+32]
  0001e	89 4d f8	 mov	 DWORD PTR tv66[ebp], ecx
$L201009:
  00021	8b 45 f8	 mov	 eax, DWORD PTR tv66[ebp]
  00024	8b e5		 mov	 esp, ebp
  00026	5d		 pop	 ebp
  00027	c3		 ret	 0
?GetSafeHwnd@CWnd@@QBEPAUHWND__@@XZ ENDP		; CWnd::GetSafeHwnd
_TEXT	ENDS
EXTRN	?Default@CWnd@@IAEJXZ:NEAR			; CWnd::Default
; Function compile flags: /Odt
;	COMDAT ?OnSize@CWnd@@IAEXIHH@Z
_TEXT	SEGMENT
_this$ = -4						; size = 4
___formal$ = 8						; size = 4
___formal$ = 12						; size = 4
___formal$ = 16						; size = 4
?OnSize@CWnd@@IAEXIHH@Z PROC NEAR			; CWnd::OnSize, COMDAT
; _this$ = ecx

; 392  : 	{ Default(); }

  00000	55		 push	 ebp
  00001	8b ec		 mov	 ebp, esp
  00003	51		 push	 ecx
  00004	89 4d fc	 mov	 DWORD PTR _this$[ebp], ecx
  00007	8b 4d fc	 mov	 ecx, DWORD PTR _this$[ebp]
  0000a	e8 00 00 00 00	 call	 ?Default@CWnd@@IAEJXZ	; CWnd::Default
  0000f	8b e5		 mov	 esp, ebp
  00011	5d		 pop	 ebp
  00012	c2 0c 00	 ret	 12			; 0000000cH
?OnSize@CWnd@@IAEXIHH@Z ENDP				; CWnd::OnSize
; Function compile flags: /Odt
_TEXT	ENDS
;	COMDAT ?DoDataExchange@CWnd@@MAEXPAVCDataExchange@@@Z
_TEXT	SEGMENT
_this$ = -4						; size = 4
___formal$ = 8						; size = 4
?DoDataExchange@CWnd@@MAEXPAVCDataExchange@@@Z PROC NEAR ; CWnd::DoDataExchange, COMDAT
; _this$ = ecx

; 545  : 	{ } // default does nothing

  00000	55		 push	 ebp
  00001	8b ec		 mov	 ebp, esp
  00003	51		 push	 ecx
  00004	89 4d fc	 mov	 DWORD PTR _this$[ebp], ecx
  00007	8b e5		 mov	 esp, ebp
  00009	5d		 pop	 ebp
  0000a	c2 04 00	 ret	 4
?DoDataExchange@CWnd@@MAEXPAVCDataExchange@@@Z ENDP	; CWnd::DoDataExchange
_TEXT	ENDS
EXTRN	__imp__EnableWindow@8:NEAR
; Function compile flags: /Odt
;	COMDAT ?BeginModalState@CWnd@@UAEXXZ
_TEXT	SEGMENT
_this$ = -4						; size = 4
?BeginModalState@CWnd@@UAEXXZ PROC NEAR			; CWnd::BeginModalState, COMDAT
; _this$ = ecx

; 549  : 	{ ::EnableWindow(m_hWnd, FALSE); }

  00000	55		 push	 ebp
  00001	8b ec		 mov	 ebp, esp
  00003	51		 push	 ecx
  00004	89 4d fc	 mov	 DWORD PTR _this$[ebp], ecx
  00007	6a 00		 push	 0
  00009	8b 45 fc	 mov	 eax, DWORD PTR _this$[ebp]
  0000c	8b 48 20	 mov	 ecx, DWORD PTR [eax+32]
  0000f	51		 push	 ecx
  00010	ff 15 00 00 00
	00		 call	 DWORD PTR __imp__EnableWindow@8
  00016	8b e5		 mov	 esp, ebp
  00018	5d		 pop	 ebp
  00019	c3		 ret	 0
?BeginModalState@CWnd@@UAEXXZ ENDP			; CWnd::BeginModalState
; Function compile flags: /Odt
_TEXT	ENDS
;	COMDAT ?EndModalState@CWnd@@UAEXXZ
_TEXT	SEGMENT
_this$ = -4						; size = 4
?EndModalState@CWnd@@UAEXXZ PROC NEAR			; CWnd::EndModalState, COMDAT
; _this$ = ecx

; 551  : 	{ ::EnableWindow(m_hWnd, TRUE); }

  00000	55		 push	 ebp
  00001	8b ec		 mov	 ebp, esp
  00003	51		 push	 ecx
  00004	89 4d fc	 mov	 DWORD PTR _this$[ebp], ecx
  00007	6a 01		 push	 1
  00009	8b 45 fc	 mov	 eax, DWORD PTR _this$[ebp]
  0000c	8b 48 20	 mov	 ecx, DWORD PTR [eax+32]
  0000f	51		 push	 ecx
  00010	ff 15 00 00 00
	00		 call	 DWORD PTR __imp__EnableWindow@8
  00016	8b e5		 mov	 esp, ebp
  00018	5d		 pop	 ebp
  00019	c3		 ret	 0
?EndModalState@CWnd@@UAEXXZ ENDP			; CWnd::EndModalState
; Function compile flags: /Odt
_TEXT	ENDS
;	COMDAT ?Create@CDialog@@UAEHIPAVCWnd@@@Z
_TEXT	SEGMENT
_this$ = -4						; size = 4
_nIDTemplate$ = 8					; size = 4
_pParentWnd$ = 12					; size = 4
?Create@CDialog@@UAEHIPAVCWnd@@@Z PROC NEAR		; CDialog::Create, COMDAT
; _this$ = ecx

; 569  : 	{ return Create(MAKEINTRESOURCE(nIDTemplate), pParentWnd); }

  00000	55		 push	 ebp
  00001	8b ec		 mov	 ebp, esp
  00003	51		 push	 ecx
  00004	89 4d fc	 mov	 DWORD PTR _this$[ebp], ecx
  00007	8b 45 0c	 mov	 eax, DWORD PTR _pParentWnd$[ebp]
  0000a	50		 push	 eax
  0000b	0f b7 4d 08	 movzx	 ecx, WORD PTR _nIDTemplate$[ebp]
  0000f	51		 push	 ecx
  00010	8b 55 fc	 mov	 edx, DWORD PTR _this$[ebp]
  00013	8b 02		 mov	 eax, DWORD PTR [edx]
  00015	8b 4d fc	 mov	 ecx, DWORD PTR _this$[ebp]
  00018	ff 90 3c 01 00
	00		 call	 DWORD PTR [eax+316]
  0001e	8b e5		 mov	 esp, ebp
  00020	5d		 pop	 ebp
  00021	c2 08 00	 ret	 8
?Create@CDialog@@UAEHIPAVCWnd@@@Z ENDP			; CDialog::Create
_TEXT	ENDS
CRT$XCU	SEGMENT
_$S6	DD	FLAT:_$E5
; Function compile flags: /Odt
; File d:\boxgit\playbox\playbox\dev\prj\playbox\src\appconfig\config\configappdef.h
CRT$XCU	ENDS
;	COMDAT _$E5
text$yc	SEGMENT
_$E5	PROC NEAR					; COMDAT

; 19   : 	CONF_APP_SWF_PATH,			TYPE_CONFIG_STR,

  00000	55		 push	 ebp
  00001	8b ec		 mov	 ebp, esp
  00003	a1 00 00 00 00	 mov	 eax, DWORD PTR _CONF_APP_SWF_PATH
  00008	a3 00 00 00 00	 mov	 DWORD PTR _CONF_APP, eax
  0000d	8b 0d 00 00 00
	00		 mov	 ecx, DWORD PTR _TYPE_CONFIG_STR
  00013	89 0d 04 00 00
	00		 mov	 DWORD PTR _CONF_APP+4, ecx

; 20   : 	CONF_APP_MAINWND_HOLD,		TYPE_CONFIG_BOOL,

  00019	8b 15 00 00 00
	00		 mov	 edx, DWORD PTR _CONF_APP_MAINWND_HOLD
  0001f	89 15 08 00 00
	00		 mov	 DWORD PTR _CONF_APP+8, edx
  00025	a1 00 00 00 00	 mov	 eax, DWORD PTR _TYPE_CONFIG_BOOL
  0002a	a3 0c 00 00 00	 mov	 DWORD PTR _CONF_APP+12, eax

; 21   : 	CONF_APP_RUN_COUNT,			TYPE_CONFIG_INT,

  0002f	8b 0d 00 00 00
	00		 mov	 ecx, DWORD PTR _CONF_APP_RUN_COUNT
  00035	89 0d 10 00 00
	00		 mov	 DWORD PTR _CONF_APP+16, ecx
  0003b	8b 15 00 00 00
	00		 mov	 edx, DWORD PTR _TYPE_CONFIG_INT
  00041	89 15 14 00 00
	00		 mov	 DWORD PTR _CONF_APP+20, edx

; 22   : 	CONF_APP_PLAYED_GAME,		TYPE_CONFIG_INT,

  00047	a1 00 00 00 00	 mov	 eax, DWORD PTR _CONF_APP_PLAYED_GAME
  0004c	a3 18 00 00 00	 mov	 DWORD PTR _CONF_APP+24, eax
  00051	8b 0d 00 00 00
	00		 mov	 ecx, DWORD PTR _TYPE_CONFIG_INT
  00057	89 0d 1c 00 00
	00		 mov	 DWORD PTR _CONF_APP+28, ecx

; 23   : 	CONF_APP_PLAYED_PC_GAME,	TYPE_CONFIG_INT,

  0005d	8b 15 00 00 00
	00		 mov	 edx, DWORD PTR _CONF_APP_PLAYED_PC_GAME
  00063	89 15 20 00 00
	00		 mov	 DWORD PTR _CONF_APP+32, edx
  00069	a1 00 00 00 00	 mov	 eax, DWORD PTR _TYPE_CONFIG_INT
  0006e	a3 24 00 00 00	 mov	 DWORD PTR _CONF_APP+36, eax

; 24   : 	CONF_APP_PLAYED_ICON_SIZE,	TYPE_CONFIG_INT, //panelicon0,1,2

  00073	8b 0d 00 00 00
	00		 mov	 ecx, DWORD PTR _CONF_APP_PLAYED_ICON_SIZE
  00079	89 0d 28 00 00
	00		 mov	 DWORD PTR _CONF_APP+40, ecx
  0007f	8b 15 00 00 00
	00		 mov	 edx, DWORD PTR _TYPE_CONFIG_INT
  00085	89 15 2c 00 00
	00		 mov	 DWORD PTR _CONF_APP+44, edx

; 25   : 	CONF_APP_PIC_SAVE_PATH,		TYPE_CONFIG_STR

  0008b	a1 00 00 00 00	 mov	 eax, DWORD PTR _CONF_APP_PIC_SAVE_PATH
  00090	a3 30 00 00 00	 mov	 DWORD PTR _CONF_APP+48, eax

; 26   : };

  00095	8b 0d 00 00 00
	00		 mov	 ecx, DWORD PTR _TYPE_CONFIG_STR
  0009b	89 0d 34 00 00
	00		 mov	 DWORD PTR _CONF_APP+52, ecx
  000a1	5d		 pop	 ebp
  000a2	c3		 ret	 0
_$E5	ENDP
text$yc	ENDS
_BSS	SEGMENT
_CONF_APP DD	0eH DUP (?)
_BSS	ENDS
END
