; Listing generated by Microsoft (R) Optimizing Compiler Version 13.10.3077 

	TITLE	.\src\util\MarkupArchive.cpp
	.386P
include listing.inc
if @Version gt 510
.model FLAT
else
_TEXT	SEGMENT PARA USE32 PUBLIC 'CODE'
_TEXT	ENDS
_DATA	SEGMENT DWORD USE32 PUBLIC 'DATA'
_DATA	ENDS
CONST	SEGMENT DWORD USE32 PUBLIC 'CONST'
CONST	ENDS
_BSS	SEGMENT DWORD USE32 PUBLIC 'BSS'
_BSS	ENDS
$$SYMBOLS	SEGMENT BYTE USE32 'DEBSYM'
$$SYMBOLS	ENDS
$$TYPES	SEGMENT BYTE USE32 'DEBTYP'
$$TYPES	ENDS
_TLS	SEGMENT DWORD USE32 PUBLIC 'TLS'
_TLS	ENDS
;	COMDAT ??_C@_04JAADICNI@?5?$DN?1?$FL?$AA@
CONST	SEGMENT DWORD USE32 PUBLIC 'CONST'
CONST	ENDS
;	COMDAT ??_C@_0L@GJIJNDEK@ISO?98859?91?$AA@
CONST	SEGMENT DWORD USE32 PUBLIC 'CONST'
CONST	ENDS
;	COMDAT ??_C@_01JLIPDDHJ@?3?$AA@
CONST	SEGMENT DWORD USE32 PUBLIC 'CONST'
CONST	ENDS
rdata$r	SEGMENT DWORD USE32 PUBLIC 'CONST'
rdata$r	ENDS
xdata$x	SEGMENT DWORD USE32 PUBLIC 'CONST'
xdata$x	ENDS
text$AFX_COL1	SEGMENT PARA USE32 PUBLIC ''
text$AFX_COL1	ENDS
text$yc	SEGMENT PARA USE32 PUBLIC 'CODE'
text$yc	ENDS
CRT$XCA	SEGMENT DWORD USE32 PUBLIC 'DATA'
CRT$XCA	ENDS
CRT$XCU	SEGMENT DWORD USE32 PUBLIC 'DATA'
CRT$XCU	ENDS
CRT$XCL	SEGMENT DWORD USE32 PUBLIC 'DATA'
CRT$XCL	ENDS
CRT$XCC	SEGMENT DWORD USE32 PUBLIC 'DATA'
CRT$XCC	ENDS
CRT$XCZ	SEGMENT DWORD USE32 PUBLIC 'DATA'
CRT$XCZ	ENDS
text$yd	SEGMENT PARA USE32 PUBLIC 'CODE'
text$yd	ENDS
ATL$__m	SEGMENT DWORD USE32 PUBLIC ''
ATL$__m	ENDS
ATL$__z	SEGMENT DWORD USE32 PUBLIC ''
ATL$__z	ENDS
ATL$__a	SEGMENT DWORD USE32 PUBLIC ''
ATL$__a	ENDS
;	COMDAT ??0CMarkup@@QAE@XZ
_TEXT	SEGMENT PARA USE32 PUBLIC 'CODE'
_TEXT	ENDS
;	COMDAT ??1CMarkup@@UAE@XZ
_TEXT	SEGMENT PARA USE32 PUBLIC 'CODE'
_TEXT	ENDS
;	COMDAT ?GetDoc@CMarkup@@QBE?AV?$CStringT@DV?$StrTraitMFC_DLL@DV?$ChTraitsCRT@D@ATL@@@@@ATL@@XZ
_TEXT	SEGMENT PARA USE32 PUBLIC 'CODE'
_TEXT	ENDS
;	COMDAT ?AddElem@CMarkup@@QAE_NPBD0@Z
_TEXT	SEGMENT PARA USE32 PUBLIC 'CODE'
_TEXT	ENDS
;	COMDAT ?AddChildElem@CMarkup@@QAE_NPBD0@Z
_TEXT	SEGMENT PARA USE32 PUBLIC 'CODE'
_TEXT	ENDS
;	COMDAT ??0ElemPos@CMarkup@@QAE@XZ
_TEXT	SEGMENT PARA USE32 PUBLIC 'CODE'
_TEXT	ENDS
;	COMDAT ?IsEmptyElement@ElemPos@CMarkup@@QBE_NXZ
_TEXT	SEGMENT PARA USE32 PUBLIC 'CODE'
_TEXT	ENDS
;	COMDAT ?Clear@ElemPos@CMarkup@@QAEXXZ
_TEXT	SEGMENT PARA USE32 PUBLIC 'CODE'
_TEXT	ENDS
;	COMDAT ?Clear@TokenPos@CMarkup@@QAEXXZ
_TEXT	SEGMENT PARA USE32 PUBLIC 'CODE'
_TEXT	ENDS
;	COMDAT ?x_SetPos@CMarkup@@IAEXHHH@Z
_TEXT	SEGMENT PARA USE32 PUBLIC 'CODE'
_TEXT	ENDS
;	COMDAT ??_GCMarkup@@UAEPAXI@Z
_TEXT	SEGMENT PARA USE32 PUBLIC 'CODE'
_TEXT	ENDS
;	COMDAT ?AddElem@CMarkupArchive@@UAE_NPBD0@Z
_TEXT	SEGMENT PARA USE32 PUBLIC 'CODE'
_TEXT	ENDS
;	COMDAT ?AddChildElem@CMarkupArchive@@UAE_NPBD0@Z
_TEXT	SEGMENT PARA USE32 PUBLIC 'CODE'
_TEXT	ENDS
;	COMDAT ?FindElem@CMarkupArchive@@UAE_NPBD@Z
_TEXT	SEGMENT PARA USE32 PUBLIC 'CODE'
_TEXT	ENDS
;	COMDAT ?FindChildElem@CMarkupArchive@@UAE_NPBD@Z
_TEXT	SEGMENT PARA USE32 PUBLIC 'CODE'
_TEXT	ENDS
;	COMDAT ??_GCMarkupArchive@@UAEPAXI@Z
_TEXT	SEGMENT PARA USE32 PUBLIC 'CODE'
_TEXT	ENDS
;	COMDAT ??HATL@@YA?AV?$CStringT@DV?$StrTraitMFC_DLL@DV?$ChTraitsCRT@D@ATL@@@@@0@ABV10@PBD@Z
_TEXT	SEGMENT PARA USE32 PUBLIC 'CODE'
_TEXT	ENDS
;	COMDAT ??HATL@@YA?AV?$CStringT@DV?$StrTraitMFC_DLL@DV?$ChTraitsCRT@D@ATL@@@@@0@PBDABV10@@Z
_TEXT	SEGMENT PARA USE32 PUBLIC 'CODE'
_TEXT	ENDS
;	COMDAT ??8ATL@@YA_NABV?$CStringT@DV?$StrTraitMFC_DLL@DV?$ChTraitsCRT@D@ATL@@@@@0@0@Z
_TEXT	SEGMENT PARA USE32 PUBLIC 'CODE'
_TEXT	ENDS
;	COMDAT ??8ATL@@YA_NABV?$CStringT@DV?$StrTraitMFC_DLL@DV?$ChTraitsCRT@D@ATL@@@@@0@PBD@Z
_TEXT	SEGMENT PARA USE32 PUBLIC 'CODE'
_TEXT	ENDS
;	COMDAT ??9ATL@@YA_NABV?$CStringT@DV?$StrTraitMFC_DLL@DV?$ChTraitsCRT@D@ATL@@@@@0@PBD@Z
_TEXT	SEGMENT PARA USE32 PUBLIC 'CODE'
_TEXT	ENDS
;	COMDAT ??B?$CComPtrBase@UITypeInfo2@@@ATL@@QBEPAUITypeInfo2@@XZ
_TEXT	SEGMENT PARA USE32 PUBLIC 'CODE'
_TEXT	ENDS
;	COMDAT ?equal@?$istreambuf_iterator@DU?$char_traits@D@std@@@std@@QBE_NABV12@@Z
_TEXT	SEGMENT PARA USE32 PUBLIC 'CODE'
_TEXT	ENDS
;	COMDAT ?equal@?$istreambuf_iterator@_WU?$char_traits@_W@std@@@std@@QBE_NABV12@@Z
_TEXT	SEGMENT PARA USE32 PUBLIC 'CODE'
_TEXT	ENDS
;	COMDAT ?StringCompare@?$ChTraitsCRT@D@ATL@@SAHPBD0@Z
_TEXT	SEGMENT PARA USE32 PUBLIC 'CODE'
_TEXT	ENDS
;	COMDAT ?Unlock@?$CComCritSecLock@VCComCriticalSection@ATL@@@ATL@@QAEXXZ
_TEXT	SEGMENT PARA USE32 PUBLIC 'CODE'
_TEXT	ENDS
;	COMDAT ??0?$CArray@UElemPos@CMarkup@@AAU12@@@QAE@XZ
_TEXT	SEGMENT PARA USE32 PUBLIC 'CODE'
_TEXT	ENDS
;	COMDAT ?GetSize@?$CArray@UElemPos@CMarkup@@AAU12@@@QBEHXZ
_TEXT	SEGMENT PARA USE32 PUBLIC 'CODE'
_TEXT	ENDS
;	COMDAT ??A?$CArray@UElemPos@CMarkup@@AAU12@@@QAEAAUElemPos@CMarkup@@H@Z
_TEXT	SEGMENT PARA USE32 PUBLIC 'CODE'
_TEXT	ENDS
;	COMDAT ??1?$CArray@UElemPos@CMarkup@@AAU12@@@UAE@XZ
_TEXT	SEGMENT PARA USE32 PUBLIC 'CODE'
_TEXT	ENDS
;	COMDAT ?Serialize@?$CArray@UElemPos@CMarkup@@AAU12@@@UAEXAAVCArchive@@@Z
_TEXT	SEGMENT PARA USE32 PUBLIC 'CODE'
_TEXT	ENDS
;	COMDAT ??$_Maklocstr@D@std@@YAPADPBDPADABU_Cvtvec@@@Z
_TEXT	SEGMENT PARA USE32 PUBLIC 'CODE'
_TEXT	ENDS
;	COMDAT ??_G?$CArray@UElemPos@CMarkup@@AAU12@@@UAEPAXI@Z
_TEXT	SEGMENT PARA USE32 PUBLIC 'CODE'
_TEXT	ENDS
;	COMDAT ?SetSize@?$CArray@UElemPos@CMarkup@@AAU12@@@QAEXHH@Z
_TEXT	SEGMENT PARA USE32 PUBLIC 'CODE'
_TEXT	ENDS
;	COMDAT ?ElementAt@?$CArray@UElemPos@CMarkup@@AAU12@@@QAEAAUElemPos@CMarkup@@H@Z
_TEXT	SEGMENT PARA USE32 PUBLIC 'CODE'
_TEXT	ENDS
;	COMDAT ??$SerializeElements@UElemPos@CMarkup@@@@YGXAAVCArchive@@PAUElemPos@CMarkup@@H@Z
_TEXT	SEGMENT PARA USE32 PUBLIC 'CODE'
_TEXT	ENDS
;	COMDAT ??_R3CMarkup@@8
rdata$r	SEGMENT DWORD USE32 PUBLIC 'CONST'
rdata$r	ENDS
;	COMDAT ??_R3CMarkupArchive@@8
rdata$r	SEGMENT DWORD USE32 PUBLIC 'CONST'
rdata$r	ENDS
;	COMDAT ??_R3?$CArray@UElemPos@CMarkup@@AAU12@@@8
rdata$r	SEGMENT DWORD USE32 PUBLIC 'CONST'
rdata$r	ENDS
;	COMDAT ??_R3?$numpunct@_W@std@@8
rdata$r	SEGMENT DWORD USE32 PUBLIC 'CONST'
rdata$r	ENDS
;	COMDAT ??_R3?$numpunct@D@std@@8
rdata$r	SEGMENT DWORD USE32 PUBLIC 'CONST'
rdata$r	ENDS
;	COMDAT ??_R2CMarkup@@8
rdata$r	SEGMENT DWORD USE32 PUBLIC 'CONST'
rdata$r	ENDS
;	COMDAT ??_R2CMarkupArchive@@8
rdata$r	SEGMENT DWORD USE32 PUBLIC 'CONST'
rdata$r	ENDS
;	COMDAT ??_R2?$CArray@UElemPos@CMarkup@@AAU12@@@8
rdata$r	SEGMENT DWORD USE32 PUBLIC 'CONST'
rdata$r	ENDS
;	COMDAT ??_R2?$numpunct@_W@std@@8
rdata$r	SEGMENT DWORD USE32 PUBLIC 'CONST'
rdata$r	ENDS
;	COMDAT ??_R2?$numpunct@D@std@@8
rdata$r	SEGMENT DWORD USE32 PUBLIC 'CONST'
rdata$r	ENDS
;	COMDAT ??_R1A@?0A@A@CMarkup@@8
rdata$r	SEGMENT DWORD USE32 PUBLIC 'CONST'
rdata$r	ENDS
;	COMDAT ??_R1A@?0A@A@CMarkupArchive@@8
rdata$r	SEGMENT DWORD USE32 PUBLIC 'CONST'
rdata$r	ENDS
;	COMDAT ??_R1A@?0A@A@CObject@@8
rdata$r	SEGMENT DWORD USE32 PUBLIC 'CONST'
rdata$r	ENDS
;	COMDAT ??_R0?AVCObject@@@8
_DATA	SEGMENT DWORD USE32 PUBLIC 'DATA'
_DATA	ENDS
;	COMDAT ??_R1A@?0A@A@?$CArray@UElemPos@CMarkup@@AAU12@@@8
rdata$r	SEGMENT DWORD USE32 PUBLIC 'CONST'
rdata$r	ENDS
;	COMDAT ??_R1A@?0A@A@?$numpunct@_W@std@@8
rdata$r	SEGMENT DWORD USE32 PUBLIC 'CONST'
rdata$r	ENDS
;	COMDAT ??_R1A@?0A@A@facet@locale@std@@8
rdata$r	SEGMENT DWORD USE32 PUBLIC 'CONST'
rdata$r	ENDS
;	COMDAT ??_R0?AVfacet@locale@std@@@8
_DATA	SEGMENT DWORD USE32 PUBLIC 'DATA'
_DATA	ENDS
;	COMDAT ??_R1A@?0A@A@?$numpunct@D@std@@8
rdata$r	SEGMENT DWORD USE32 PUBLIC 'CONST'
rdata$r	ENDS
;	COMDAT ??_R0?AVCMarkup@@@8
_DATA	SEGMENT DWORD USE32 PUBLIC 'DATA'
_DATA	ENDS
;	COMDAT ??_R0?AVCMarkupArchive@@@8
_DATA	SEGMENT DWORD USE32 PUBLIC 'DATA'
_DATA	ENDS
;	COMDAT ??_R0?AV?$CArray@UElemPos@CMarkup@@AAU12@@@@8
_DATA	SEGMENT DWORD USE32 PUBLIC 'DATA'
_DATA	ENDS
;	COMDAT ??_R0?AV?$numpunct@_W@std@@@8
_DATA	SEGMENT DWORD USE32 PUBLIC 'DATA'
_DATA	ENDS
;	COMDAT ??_R0?AV?$numpunct@D@std@@@8
_DATA	SEGMENT DWORD USE32 PUBLIC 'DATA'
_DATA	ENDS
;	COMDAT ??_R4CMarkup@@6B@
rdata$r	SEGMENT DWORD USE32 PUBLIC 'CONST'
rdata$r	ENDS
;	COMDAT ??_R4CMarkupArchive@@6B@
rdata$r	SEGMENT DWORD USE32 PUBLIC 'CONST'
rdata$r	ENDS
;	COMDAT ?Dump@CObject@@UBEXAAVCDumpContext@@@Z
_TEXT	SEGMENT PARA USE32 PUBLIC 'CODE'
_TEXT	ENDS
;	COMDAT ?AssertValid@CObject@@UBEXXZ
_TEXT	SEGMENT PARA USE32 PUBLIC 'CODE'
_TEXT	ENDS
;	COMDAT ??_R4?$CArray@UElemPos@CMarkup@@AAU12@@@6B@
rdata$r	SEGMENT DWORD USE32 PUBLIC 'CONST'
rdata$r	ENDS
;	COMDAT ??0?$allocator@_W@std@@QAE@XZ
_TEXT	SEGMENT PARA USE32 PUBLIC 'CODE'
_TEXT	ENDS
;	COMDAT ??_G?$numpunct@_W@std@@MAEPAXI@Z
_TEXT	SEGMENT PARA USE32 PUBLIC 'CODE'
_TEXT	ENDS
;	COMDAT ??_R4?$numpunct@_W@std@@6B@
rdata$r	SEGMENT DWORD USE32 PUBLIC 'CONST'
rdata$r	ENDS
;	COMDAT ??_G?$numpunct@D@std@@MAEPAXI@Z
_TEXT	SEGMENT PARA USE32 PUBLIC 'CODE'
_TEXT	ENDS
;	COMDAT ??_R4?$numpunct@D@std@@6B@
rdata$r	SEGMENT DWORD USE32 PUBLIC 'CONST'
rdata$r	ENDS
;	COMDAT ??3@YAXPAX0@Z
_TEXT	SEGMENT PARA USE32 PUBLIC 'CODE'
_TEXT	ENDS
;	COMDAT ??2@YAPAXIPAX@Z
_TEXT	SEGMENT PARA USE32 PUBLIC 'CODE'
_TEXT	ENDS
;	COMDAT ??3CObject@@SGXPAX@Z
_TEXT	SEGMENT PARA USE32 PUBLIC 'CODE'
_TEXT	ENDS
;	COMDAT ?IsStoring@CArchive@@QBEHXZ
_TEXT	SEGMENT PARA USE32 PUBLIC 'CODE'
_TEXT	ENDS
;	COMDAT ?Serialize@CObject@@UAEXAAVCArchive@@@Z
_TEXT	SEGMENT PARA USE32 PUBLIC 'CODE'
_TEXT	ENDS
;	COMDAT ??_7?$CArray@UElemPos@CMarkup@@AAU12@@@6B@
CONST	SEGMENT DWORD USE32 PUBLIC 'CONST'
CONST	ENDS
;	COMDAT ??1CObject@@UAE@XZ
_TEXT	SEGMENT PARA USE32 PUBLIC 'CODE'
_TEXT	ENDS
;	COMDAT ??0CObject@@IAE@XZ
_TEXT	SEGMENT PARA USE32 PUBLIC 'CODE'
_TEXT	ENDS
;	COMDAT ?_Psave@?$_Facetptr@V?$numpunct@_W@std@@@std@@2PBVfacet@locale@2@B
_DATA	SEGMENT DWORD USE32 PUBLIC 'DATA'
_DATA	ENDS
;	COMDAT ?_Psave@?$_Facetptr@V?$numpunct@D@std@@@std@@2PBVfacet@locale@2@B
_DATA	SEGMENT DWORD USE32 PUBLIC 'DATA'
_DATA	ENDS
;	COMDAT ?Unlock@CComCriticalSection@ATL@@QAEJXZ
_TEXT	SEGMENT PARA USE32 PUBLIC 'CODE'
_TEXT	ENDS
;	COMDAT ?_Psave@?$_Facetptr@V?$ctype@_W@std@@@std@@2PBVfacet@locale@2@B
_DATA	SEGMENT DWORD USE32 PUBLIC 'DATA'
_DATA	ENDS
;	COMDAT ?_Psave@?$_Facetptr@V?$ctype@D@std@@@std@@2PBVfacet@locale@2@B
_DATA	SEGMENT DWORD USE32 PUBLIC 'DATA'
_DATA	ENDS
;	COMDAT ??$_Maklocchr@_W@std@@YA_WDPA_WABU_Cvtvec@@@Z
_TEXT	SEGMENT PARA USE32 PUBLIC 'CODE'
_TEXT	ENDS
;	COMDAT ??$_Maklocstr@_W@std@@YAPA_WPBDPA_WABU_Cvtvec@@@Z
_TEXT	SEGMENT PARA USE32 PUBLIC 'CODE'
_TEXT	ENDS
;	COMDAT ??$_Maklocchr@D@std@@YADDPADABU_Cvtvec@@@Z
_TEXT	SEGMENT PARA USE32 PUBLIC 'CODE'
_TEXT	ENDS
;	COMDAT ??_C@_04LOAJBDKD@true?$AA@
CONST	SEGMENT DWORD USE32 PUBLIC 'CONST'
CONST	ENDS
;	COMDAT ??_C@_05LAPONLG@false?$AA@
CONST	SEGMENT DWORD USE32 PUBLIC 'CONST'
CONST	ENDS
;	COMDAT _wmemcpy
_TEXT	SEGMENT PARA USE32 PUBLIC 'CODE'
_TEXT	ENDS
;	COMDAT ?max_size@?$allocator@_W@std@@QBEIXZ
_TEXT	SEGMENT PARA USE32 PUBLIC 'CODE'
_TEXT	ENDS
;	COMDAT ?allocate@?$allocator@_W@std@@QAEPA_WI@Z
_TEXT	SEGMENT PARA USE32 PUBLIC 'CODE'
_TEXT	ENDS
;	COMDAT ??$_Allocate@_W@std@@YAPA_WIPA_W@Z
_TEXT	SEGMENT PARA USE32 PUBLIC 'CODE'
_TEXT	ENDS
;	COMDAT ?data@CStringData@ATL@@QAEPAXXZ
_TEXT	SEGMENT PARA USE32 PUBLIC 'CODE'
_TEXT	ENDS
;	COMDAT ?AtlThrow@ATL@@YGXJ@Z
_TEXT	SEGMENT PARA USE32 PUBLIC 'CODE'
_TEXT	ENDS
;	COMDAT ??_C@_01GFHCPBMG@C?$AA@
CONST	SEGMENT DWORD USE32 PUBLIC 'CONST'
CONST	ENDS
;	COMDAT ?max_size@?$allocator@D@std@@QBEIXZ
_TEXT	SEGMENT PARA USE32 PUBLIC 'CODE'
_TEXT	ENDS
;	COMDAT ?allocate@?$allocator@D@std@@QAEPADI@Z
_TEXT	SEGMENT PARA USE32 PUBLIC 'CODE'
_TEXT	ENDS
;	COMDAT ??$_Allocate@D@std@@YAPADIPAD@Z
_TEXT	SEGMENT PARA USE32 PUBLIC 'CODE'
_TEXT	ENDS
;	COMDAT ?deallocate@?$allocator@D@std@@QAEXPADI@Z
_TEXT	SEGMENT PARA USE32 PUBLIC 'CODE'
_TEXT	ENDS
;	COMDAT ?Release@CStringData@ATL@@QAEXXZ
_TEXT	SEGMENT PARA USE32 PUBLIC 'CODE'
_TEXT	ENDS
;	COMDAT ?IsShared@CStringData@ATL@@QBE_NXZ
_TEXT	SEGMENT PARA USE32 PUBLIC 'CODE'
_TEXT	ENDS
;	COMDAT ?_Peek@?$istreambuf_iterator@_WU?$char_traits@_W@std@@@std@@AAE_WXZ
_TEXT	SEGMENT PARA USE32 PUBLIC 'CODE'
_TEXT	ENDS
;	COMDAT ?_Peek@?$istreambuf_iterator@DU?$char_traits@D@std@@@std@@AAEDXZ
_TEXT	SEGMENT PARA USE32 PUBLIC 'CODE'
_TEXT	ENDS
;	COMDAT ??$use_facet@V?$ctype@_W@std@@@std@@YAABV?$ctype@_W@0@ABVlocale@0@@Z
_TEXT	SEGMENT PARA USE32 PUBLIC 'CODE'
_TEXT	ENDS
;	COMDAT ??_S?$ctype@_W@std@@6B@
CONST	SEGMENT DWORD USE32 PUBLIC 'CONST'
CONST	ENDS
;	COMDAT ??_R4?$ctype@_W@std@@6B@
rdata$r	SEGMENT DWORD USE32 PUBLIC 'CONST'
rdata$r	ENDS
;	COMDAT ??_R0?AV?$ctype@_W@std@@@8
_DATA	SEGMENT DWORD USE32 PUBLIC 'DATA'
_DATA	ENDS
;	COMDAT ??_R3?$ctype@_W@std@@8
rdata$r	SEGMENT DWORD USE32 PUBLIC 'CONST'
rdata$r	ENDS
;	COMDAT ??_R2?$ctype@_W@std@@8
rdata$r	SEGMENT DWORD USE32 PUBLIC 'CONST'
rdata$r	ENDS
;	COMDAT ??_R1A@?0A@A@?$ctype@_W@std@@8
rdata$r	SEGMENT DWORD USE32 PUBLIC 'CONST'
rdata$r	ENDS
;	COMDAT ??_R1A@?0A@A@ctype_base@std@@8
rdata$r	SEGMENT DWORD USE32 PUBLIC 'CONST'
rdata$r	ENDS
;	COMDAT ??_R0?AUctype_base@std@@@8
_DATA	SEGMENT DWORD USE32 PUBLIC 'DATA'
_DATA	ENDS
;	COMDAT ??_G?$ctype@_W@std@@MAEPAXI@Z
_TEXT	SEGMENT PARA USE32 PUBLIC 'CODE'
_TEXT	ENDS
;	COMDAT ??_C@_08EPJLHIJG@bad?5cast?$AA@
CONST	SEGMENT DWORD USE32 PUBLIC 'CONST'
CONST	ENDS
;	COMDAT __TI2?AVbad_cast@@
xdata$x	SEGMENT DWORD USE32 PUBLIC 'CONST'
xdata$x	ENDS
;	COMDAT __CTA2?AVbad_cast@@
xdata$x	SEGMENT DWORD USE32 PUBLIC 'CONST'
xdata$x	ENDS
;	COMDAT __CT??_R0?AVbad_cast@@@8??0bad_cast@@QAE@ABV0@@Z12
xdata$x	SEGMENT DWORD USE32 PUBLIC 'CONST'
xdata$x	ENDS
;	COMDAT ??_R0?AVbad_cast@@@8
_DATA	SEGMENT DWORD USE32 PUBLIC 'DATA'
_DATA	ENDS
;	COMDAT __CT??_R0?AVexception@@@8??0exception@@QAE@ABV0@@Z12
xdata$x	SEGMENT DWORD USE32 PUBLIC 'CONST'
xdata$x	ENDS
;	COMDAT ??_R0?AVexception@@@8
_DATA	SEGMENT DWORD USE32 PUBLIC 'DATA'
_DATA	ENDS
;	COMDAT ??$use_facet@V?$ctype@D@std@@@std@@YAABV?$ctype@D@0@ABVlocale@0@@Z
_TEXT	SEGMENT PARA USE32 PUBLIC 'CODE'
_TEXT	ENDS
;	COMDAT ??_S?$ctype@D@std@@6B@
CONST	SEGMENT DWORD USE32 PUBLIC 'CONST'
CONST	ENDS
;	COMDAT ??_R4?$ctype@D@std@@6B@
rdata$r	SEGMENT DWORD USE32 PUBLIC 'CONST'
rdata$r	ENDS
;	COMDAT ??_R0?AV?$ctype@D@std@@@8
_DATA	SEGMENT DWORD USE32 PUBLIC 'DATA'
_DATA	ENDS
;	COMDAT ??_R3?$ctype@D@std@@8
rdata$r	SEGMENT DWORD USE32 PUBLIC 'CONST'
rdata$r	ENDS
;	COMDAT ??_R2?$ctype@D@std@@8
rdata$r	SEGMENT DWORD USE32 PUBLIC 'CONST'
rdata$r	ENDS
;	COMDAT ??_R1A@?0A@A@?$ctype@D@std@@8
rdata$r	SEGMENT DWORD USE32 PUBLIC 'CONST'
rdata$r	ENDS
;	COMDAT ??_G?$ctype@D@std@@MAEPAXI@Z
_TEXT	SEGMENT PARA USE32 PUBLIC 'CODE'
_TEXT	ENDS
;	COMDAT ??_S?$numpunct@_W@std@@6B@
CONST	SEGMENT DWORD USE32 PUBLIC 'CONST'
CONST	ENDS
;	COMDAT ??_S?$numpunct@D@std@@6B@
CONST	SEGMENT DWORD USE32 PUBLIC 'CONST'
CONST	ENDS
;	COMDAT _wmemmove
_TEXT	SEGMENT PARA USE32 PUBLIC 'CODE'
_TEXT	ENDS
;	COMDAT ?deallocate@?$allocator@_W@std@@QAEXPA_WI@Z
_TEXT	SEGMENT PARA USE32 PUBLIC 'CODE'
_TEXT	ENDS
;	COMDAT ??0?$allocator@_W@std@@QAE@ABV01@@Z
_TEXT	SEGMENT PARA USE32 PUBLIC 'CODE'
_TEXT	ENDS
;	COMDAT ??0?$allocator@D@std@@QAE@ABV01@@Z
_TEXT	SEGMENT PARA USE32 PUBLIC 'CODE'
_TEXT	ENDS
;	COMDAT ??0?$allocator@D@std@@QAE@XZ
_TEXT	SEGMENT PARA USE32 PUBLIC 'CODE'
_TEXT	ENDS
;	COMDAT ?IsLocked@CStringData@ATL@@QBE_NXZ
_TEXT	SEGMENT PARA USE32 PUBLIC 'CODE'
_TEXT	ENDS
;	COMDAT ??_7CMarkupArchive@@6B@
CONST	SEGMENT DWORD USE32 PUBLIC 'CONST'
CONST	ENDS
;	COMDAT __tcschr
_TEXT	SEGMENT PARA USE32 PUBLIC 'CODE'
_TEXT	ENDS
;	COMDAT __tcsnccmp
_TEXT	SEGMENT PARA USE32 PUBLIC 'CODE'
_TEXT	ENDS
;	COMDAT ?AddRef@CStringData@ATL@@QAEXXZ
_TEXT	SEGMENT PARA USE32 PUBLIC 'CODE'
_TEXT	ENDS
;	COMDAT ?GetDefaultManager@?$StrTraitMFC_DLL@DV?$ChTraitsCRT@D@ATL@@@@SAPAUIAtlStringMgr@ATL@@XZ
_TEXT	SEGMENT PARA USE32 PUBLIC 'CODE'
_TEXT	ENDS
;	COMDAT ??_7CMarkup@@6B@
CONST	SEGMENT DWORD USE32 PUBLIC 'CONST'
CONST	ENDS
sxdata	SEGMENT DWORD USE32 'SXDATA'
sxdata	ENDS
FLAT	GROUP _DATA, CONST, _BSS
	ASSUME	CS: FLAT, DS: FLAT, SS: FLAT
endif

INCLUDELIB MSVCRT
INCLUDELIB OLDNAMES

CONST	SEGMENT
$SG198065 DB	'.temp', 00H
	ORG $+2
$SG198076 DB	'panel.xml.temp is 0 byte:', 00H
	ORG $+2
$SG198077 DB	'SAVEPANEL', 00H
	ORG $+2
$SG198083 DB	'Open panel.xml.temp file failed:', 00H
	ORG $+3
$SG198084 DB	'SAVEPANEL', 00H
	ORG $+2
$SG198091 DB	'Copy panel.xml.temp to panel.xml failed:', 00H
	ORG $+3
$SG198092 DB	'SAVEPANEL', 00H
$SG198099 DB	00H
$SG198123 DB	00H
$SG198153 DB	00H
CONST	ENDS
PUBLIC	??1CMarkupArchive@@UAE@XZ			; CMarkupArchive::~CMarkupArchive
PUBLIC	?Close@CMarkupArchive@@QAE_NXZ			; CMarkupArchive::Close
PUBLIC	?AddElem@CMarkupArchive@@UAE_NPBD0@Z		; CMarkupArchive::AddElem
PUBLIC	?AddChildElem@CMarkupArchive@@UAE_NPBD0@Z	; CMarkupArchive::AddChildElem
PUBLIC	?FindElem@CMarkupArchive@@UAE_NPBD@Z		; CMarkupArchive::FindElem
PUBLIC	?FindChildElem@CMarkupArchive@@UAE_NPBD@Z	; CMarkupArchive::FindChildElem
PUBLIC	??_7CMarkupArchive@@6B@				; CMarkupArchive::`vftable'
PUBLIC	??_GCMarkupArchive@@UAEPAXI@Z			; CMarkupArchive::`scalar deleting destructor'
PUBLIC	??1CMarkup@@UAE@XZ				; CMarkup::~CMarkup
PUBLIC	??_R4CMarkupArchive@@6B@			; CMarkupArchive::`RTTI Complete Object Locator'
PUBLIC	??_R0?AVCMarkupArchive@@@8			; CMarkupArchive `RTTI Type Descriptor'
PUBLIC	??_R3CMarkupArchive@@8				; CMarkupArchive::`RTTI Class Hierarchy Descriptor'
PUBLIC	??_R2CMarkupArchive@@8				; CMarkupArchive::`RTTI Base Class Array'
PUBLIC	??_R1A@?0A@A@CMarkupArchive@@8			; CMarkupArchive::`RTTI Base Class Descriptor at (0,-1,0,0)'
PUBLIC	??_R1A@?0A@A@CMarkup@@8				; CMarkup::`RTTI Base Class Descriptor at (0,-1,0,0)'
PUBLIC	??_R0?AVCMarkup@@@8				; CMarkup `RTTI Type Descriptor'
EXTRN	??_ECMarkupArchive@@UAEPAXI@Z:NEAR		; CMarkupArchive::`vector deleting destructor'
EXTRN	__imp_??1?$CStringT@DV?$StrTraitMFC_DLL@DV?$ChTraitsCRT@D@ATL@@@@@ATL@@QAE@XZ:NEAR
EXTRN	__except_list:DWORD
EXTRN	___CxxFrameHandler:NEAR
EXTRN	??_7type_info@@6B@:QWORD			; type_info::`vftable'
xdata$x	SEGMENT
$T198910 DD	0ffffffffH
	DD	FLAT:$L198899
	DD	00H
	DD	FLAT:$L198900
	DD	01H
	DD	FLAT:$L198901
	DD	02H
	DD	FLAT:$L198902
	DD	03H
	DD	FLAT:$L198903
$T198907 DD	019930520H
	DD	05H
	DD	FLAT:$T198910
	DD	2 DUP(00H)
	DD	2 DUP(00H)
xdata$x	ENDS
;	COMDAT ??_7CMarkupArchive@@6B@
; File d:\boxgit\playbox\playbox\dev\prj\playbox\src\util\markuparchive.cpp
CONST	SEGMENT
??_7CMarkupArchive@@6B@ DD FLAT:??_R4CMarkupArchive@@6B@ ; CMarkupArchive::`vftable'
	DD	FLAT:??_ECMarkupArchive@@UAEPAXI@Z
	DD	FLAT:?AddElem@CMarkupArchive@@UAE_NPBD0@Z
	DD	FLAT:?AddChildElem@CMarkupArchive@@UAE_NPBD0@Z
	DD	FLAT:?FindElem@CMarkupArchive@@UAE_NPBD@Z
	DD	FLAT:?FindChildElem@CMarkupArchive@@UAE_NPBD@Z
CONST	ENDS
;	COMDAT ??_R4CMarkupArchive@@6B@
rdata$r	SEGMENT
??_R4CMarkupArchive@@6B@ DD 00H				; CMarkupArchive::`RTTI Complete Object Locator'
	DD	00H
	DD	00H
	DD	FLAT:??_R0?AVCMarkupArchive@@@8
	DD	FLAT:??_R3CMarkupArchive@@8
rdata$r	ENDS
;	COMDAT ??_R0?AVCMarkupArchive@@@8
_DATA	SEGMENT
??_R0?AVCMarkupArchive@@@8 DD FLAT:??_7type_info@@6B@	; CMarkupArchive `RTTI Type Descriptor'
	DD	00H
	DB	'.?AVCMarkupArchive@@', 00H
_DATA	ENDS
;	COMDAT ??_R3CMarkupArchive@@8
rdata$r	SEGMENT
??_R3CMarkupArchive@@8 DD 00H				; CMarkupArchive::`RTTI Class Hierarchy Descriptor'
	DD	00H
	DD	02H
	DD	FLAT:??_R2CMarkupArchive@@8
rdata$r	ENDS
;	COMDAT ??_R2CMarkupArchive@@8
rdata$r	SEGMENT
??_R2CMarkupArchive@@8 DD FLAT:??_R1A@?0A@A@CMarkupArchive@@8 ; CMarkupArchive::`RTTI Base Class Array'
	DD	FLAT:??_R1A@?0A@A@CMarkup@@8
rdata$r	ENDS
;	COMDAT ??_R1A@?0A@A@CMarkupArchive@@8
rdata$r	SEGMENT
??_R1A@?0A@A@CMarkupArchive@@8 DD FLAT:??_R0?AVCMarkupArchive@@@8 ; CMarkupArchive::`RTTI Base Class Descriptor at (0,-1,0,0)'
	DD	01H
	DD	00H
	DD	0ffffffffH
	DD	00H
	DD	00H
rdata$r	ENDS
;	COMDAT ??_R1A@?0A@A@CMarkup@@8
rdata$r	SEGMENT
??_R1A@?0A@A@CMarkup@@8 DD FLAT:??_R0?AVCMarkup@@@8	; CMarkup::`RTTI Base Class Descriptor at (0,-1,0,0)'
	DD	00H
	DD	00H
	DD	0ffffffffH
	DD	00H
	DD	00H
rdata$r	ENDS
;	COMDAT ??_R0?AVCMarkup@@@8
_DATA	SEGMENT
??_R0?AVCMarkup@@@8 DD FLAT:??_7type_info@@6B@		; CMarkup `RTTI Type Descriptor'
	DD	00H
	DB	'.?AVCMarkup@@', 00H
; Function compile flags: /Odt
_DATA	ENDS
_TEXT	SEGMENT
_this$ = -16						; size = 4
__$EHRec$ = -12						; size = 12
??1CMarkupArchive@@UAE@XZ PROC NEAR			; CMarkupArchive::~CMarkupArchive
; _this$ = ecx

; 15   : {

  00000	55		 push	 ebp
  00001	8b ec		 mov	 ebp, esp
  00003	6a ff		 push	 -1
  00005	68 00 00 00 00	 push	 __ehhandler$??1CMarkupArchive@@UAE@XZ
  0000a	64 a1 00 00 00
	00		 mov	 eax, DWORD PTR fs:__except_list
  00010	50		 push	 eax
  00011	64 89 25 00 00
	00 00		 mov	 DWORD PTR fs:__except_list, esp
  00018	51		 push	 ecx
  00019	89 4d f0	 mov	 DWORD PTR _this$[ebp], ecx
  0001c	8b 45 f0	 mov	 eax, DWORD PTR _this$[ebp]
  0001f	c7 00 00 00 00
	00		 mov	 DWORD PTR [eax], OFFSET FLAT:??_7CMarkupArchive@@6B@
  00025	c7 45 fc 04 00
	00 00		 mov	 DWORD PTR __$EHRec$[ebp+8], 4

; 16   : 	Close();

  0002c	8b 4d f0	 mov	 ecx, DWORD PTR _this$[ebp]
  0002f	e8 00 00 00 00	 call	 ?Close@CMarkupArchive@@QAE_NXZ ; CMarkupArchive::Close

; 17   : }

  00034	c6 45 fc 03	 mov	 BYTE PTR __$EHRec$[ebp+8], 3
  00038	8b 4d f0	 mov	 ecx, DWORD PTR _this$[ebp]
  0003b	83 c1 48	 add	 ecx, 72			; 00000048H
  0003e	ff 15 00 00 00
	00		 call	 DWORD PTR __imp_??1?$CStringT@DV?$StrTraitMFC_DLL@DV?$ChTraitsCRT@D@ATL@@@@@ATL@@QAE@XZ
  00044	c6 45 fc 02	 mov	 BYTE PTR __$EHRec$[ebp+8], 2
  00048	8b 4d f0	 mov	 ecx, DWORD PTR _this$[ebp]
  0004b	83 c1 44	 add	 ecx, 68			; 00000044H
  0004e	ff 15 00 00 00
	00		 call	 DWORD PTR __imp_??1?$CStringT@DV?$StrTraitMFC_DLL@DV?$ChTraitsCRT@D@ATL@@@@@ATL@@QAE@XZ
  00054	c6 45 fc 01	 mov	 BYTE PTR __$EHRec$[ebp+8], 1
  00058	8b 4d f0	 mov	 ecx, DWORD PTR _this$[ebp]
  0005b	83 c1 40	 add	 ecx, 64			; 00000040H
  0005e	ff 15 00 00 00
	00		 call	 DWORD PTR __imp_??1?$CStringT@DV?$StrTraitMFC_DLL@DV?$ChTraitsCRT@D@ATL@@@@@ATL@@QAE@XZ
  00064	c6 45 fc 00	 mov	 BYTE PTR __$EHRec$[ebp+8], 0
  00068	8b 4d f0	 mov	 ecx, DWORD PTR _this$[ebp]
  0006b	83 c1 38	 add	 ecx, 56			; 00000038H
  0006e	ff 15 00 00 00
	00		 call	 DWORD PTR __imp_??1?$CStringT@DV?$StrTraitMFC_DLL@DV?$ChTraitsCRT@D@ATL@@@@@ATL@@QAE@XZ
  00074	c7 45 fc ff ff
	ff ff		 mov	 DWORD PTR __$EHRec$[ebp+8], -1
  0007b	8b 4d f0	 mov	 ecx, DWORD PTR _this$[ebp]
  0007e	e8 00 00 00 00	 call	 ??1CMarkup@@UAE@XZ	; CMarkup::~CMarkup
  00083	8b 4d f4	 mov	 ecx, DWORD PTR __$EHRec$[ebp]
  00086	64 89 0d 00 00
	00 00		 mov	 DWORD PTR fs:__except_list, ecx
  0008d	8b e5		 mov	 esp, ebp
  0008f	5d		 pop	 ebp
  00090	c3		 ret	 0
_TEXT	ENDS
text$x	SEGMENT
$L198899:
  00000	8b 4d f0	 mov	 ecx, DWORD PTR _this$[ebp]
  00003	e9 00 00 00 00	 jmp	 ??1CMarkup@@UAE@XZ	; CMarkup::~CMarkup
$L198900:
  00008	8b 4d f0	 mov	 ecx, DWORD PTR _this$[ebp]
  0000b	83 c1 38	 add	 ecx, 56			; 00000038H
  0000e	ff 25 00 00 00
	00		 jmp	 DWORD PTR __imp_??1?$CStringT@DV?$StrTraitMFC_DLL@DV?$ChTraitsCRT@D@ATL@@@@@ATL@@QAE@XZ
$L198901:
  00014	8b 4d f0	 mov	 ecx, DWORD PTR _this$[ebp]
  00017	83 c1 40	 add	 ecx, 64			; 00000040H
  0001a	ff 25 00 00 00
	00		 jmp	 DWORD PTR __imp_??1?$CStringT@DV?$StrTraitMFC_DLL@DV?$ChTraitsCRT@D@ATL@@@@@ATL@@QAE@XZ
$L198902:
  00020	8b 4d f0	 mov	 ecx, DWORD PTR _this$[ebp]
  00023	83 c1 44	 add	 ecx, 68			; 00000044H
  00026	ff 25 00 00 00
	00		 jmp	 DWORD PTR __imp_??1?$CStringT@DV?$StrTraitMFC_DLL@DV?$ChTraitsCRT@D@ATL@@@@@ATL@@QAE@XZ
$L198903:
  0002c	8b 4d f0	 mov	 ecx, DWORD PTR _this$[ebp]
  0002f	83 c1 48	 add	 ecx, 72			; 00000048H
  00032	ff 25 00 00 00
	00		 jmp	 DWORD PTR __imp_??1?$CStringT@DV?$StrTraitMFC_DLL@DV?$ChTraitsCRT@D@ATL@@@@@ATL@@QAE@XZ
__ehhandler$??1CMarkupArchive@@UAE@XZ:
  00038	b8 00 00 00 00	 mov	 eax, OFFSET FLAT:$T198907
  0003d	e9 00 00 00 00	 jmp	 ___CxxFrameHandler
text$x	ENDS
??1CMarkupArchive@@UAE@XZ ENDP				; CMarkupArchive::~CMarkupArchive
PUBLIC	??_R4CMarkup@@6B@				; CMarkup::`RTTI Complete Object Locator'
PUBLIC	??_R3CMarkup@@8					; CMarkup::`RTTI Class Hierarchy Descriptor'
PUBLIC	??_R2CMarkup@@8					; CMarkup::`RTTI Base Class Array'
PUBLIC	??1?$CArray@UElemPos@CMarkup@@AAU12@@@UAE@XZ	; CArray<CMarkup::ElemPos,CMarkup::ElemPos &>::~CArray<CMarkup::ElemPos,CMarkup::ElemPos &>
PUBLIC	??_7CMarkup@@6B@				; CMarkup::`vftable'
PUBLIC	??_GCMarkup@@UAEPAXI@Z				; CMarkup::`scalar deleting destructor'
EXTRN	??_ECMarkup@@UAEPAXI@Z:NEAR			; CMarkup::`vector deleting destructor'
;	COMDAT xdata$x
; File d:\boxgit\playbox\playbox\dev\prj\playbox\src\util\markup.h
xdata$x	SEGMENT
$T198919 DD	0ffffffffH
	DD	FLAT:$L198913
	DD	00H
	DD	FLAT:$L198914
$T198917 DD	019930520H
	DD	02H
	DD	FLAT:$T198919
	DD	2 DUP(00H)
	DD	2 DUP(00H)
xdata$x	ENDS
;	COMDAT ??_7CMarkup@@6B@
CONST	SEGMENT
??_7CMarkup@@6B@ DD FLAT:??_R4CMarkup@@6B@		; CMarkup::`vftable'
	DD	FLAT:??_ECMarkup@@UAEPAXI@Z
CONST	ENDS
;	COMDAT ??_R4CMarkup@@6B@
rdata$r	SEGMENT
??_R4CMarkup@@6B@ DD 00H				; CMarkup::`RTTI Complete Object Locator'
	DD	00H
	DD	00H
	DD	FLAT:??_R0?AVCMarkup@@@8
	DD	FLAT:??_R3CMarkup@@8
rdata$r	ENDS
;	COMDAT ??_R3CMarkup@@8
rdata$r	SEGMENT
??_R3CMarkup@@8 DD 00H					; CMarkup::`RTTI Class Hierarchy Descriptor'
	DD	00H
	DD	01H
	DD	FLAT:??_R2CMarkup@@8
rdata$r	ENDS
;	COMDAT ??_R2CMarkup@@8
rdata$r	SEGMENT
??_R2CMarkup@@8 DD FLAT:??_R1A@?0A@A@CMarkup@@8		; CMarkup::`RTTI Base Class Array'
; Function compile flags: /Odt
rdata$r	ENDS
;	COMDAT ??1CMarkup@@UAE@XZ
_TEXT	SEGMENT
_this$ = -16						; size = 4
__$EHRec$ = -12						; size = 12
??1CMarkup@@UAE@XZ PROC NEAR				; CMarkup::~CMarkup, COMDAT
; _this$ = ecx

; 33   : 	virtual ~CMarkup() {};

  00000	55		 push	 ebp
  00001	8b ec		 mov	 ebp, esp
  00003	6a ff		 push	 -1
  00005	68 00 00 00 00	 push	 __ehhandler$??1CMarkup@@UAE@XZ
  0000a	64 a1 00 00 00
	00		 mov	 eax, DWORD PTR fs:__except_list
  00010	50		 push	 eax
  00011	64 89 25 00 00
	00 00		 mov	 DWORD PTR fs:__except_list, esp
  00018	51		 push	 ecx
  00019	89 4d f0	 mov	 DWORD PTR _this$[ebp], ecx
  0001c	8b 45 f0	 mov	 eax, DWORD PTR _this$[ebp]
  0001f	c7 00 00 00 00
	00		 mov	 DWORD PTR [eax], OFFSET FLAT:??_7CMarkup@@6B@
  00025	c7 45 fc 01 00
	00 00		 mov	 DWORD PTR __$EHRec$[ebp+8], 1
  0002c	8b 4d f0	 mov	 ecx, DWORD PTR _this$[ebp]
  0002f	83 c1 0c	 add	 ecx, 12			; 0000000cH
  00032	e8 00 00 00 00	 call	 ??1?$CArray@UElemPos@CMarkup@@AAU12@@@UAE@XZ ; CArray<CMarkup::ElemPos,CMarkup::ElemPos &>::~CArray<CMarkup::ElemPos,CMarkup::ElemPos &>
  00037	c6 45 fc 00	 mov	 BYTE PTR __$EHRec$[ebp+8], 0
  0003b	8b 4d f0	 mov	 ecx, DWORD PTR _this$[ebp]
  0003e	83 c1 08	 add	 ecx, 8
  00041	ff 15 00 00 00
	00		 call	 DWORD PTR __imp_??1?$CStringT@DV?$StrTraitMFC_DLL@DV?$ChTraitsCRT@D@ATL@@@@@ATL@@QAE@XZ
  00047	c7 45 fc ff ff
	ff ff		 mov	 DWORD PTR __$EHRec$[ebp+8], -1
  0004e	8b 4d f0	 mov	 ecx, DWORD PTR _this$[ebp]
  00051	83 c1 04	 add	 ecx, 4
  00054	ff 15 00 00 00
	00		 call	 DWORD PTR __imp_??1?$CStringT@DV?$StrTraitMFC_DLL@DV?$ChTraitsCRT@D@ATL@@@@@ATL@@QAE@XZ
  0005a	8b 4d f4	 mov	 ecx, DWORD PTR __$EHRec$[ebp]
  0005d	64 89 0d 00 00
	00 00		 mov	 DWORD PTR fs:__except_list, ecx
  00064	8b e5		 mov	 esp, ebp
  00066	5d		 pop	 ebp
  00067	c3		 ret	 0
_TEXT	ENDS
;	COMDAT text$x
text$x	SEGMENT
$L198913:
  00000	8b 4d f0	 mov	 ecx, DWORD PTR _this$[ebp]
  00003	83 c1 04	 add	 ecx, 4
  00006	ff 25 00 00 00
	00		 jmp	 DWORD PTR __imp_??1?$CStringT@DV?$StrTraitMFC_DLL@DV?$ChTraitsCRT@D@ATL@@@@@ATL@@QAE@XZ
$L198914:
  0000c	8b 4d f0	 mov	 ecx, DWORD PTR _this$[ebp]
  0000f	83 c1 08	 add	 ecx, 8
  00012	ff 25 00 00 00
	00		 jmp	 DWORD PTR __imp_??1?$CStringT@DV?$StrTraitMFC_DLL@DV?$ChTraitsCRT@D@ATL@@@@@ATL@@QAE@XZ
__ehhandler$??1CMarkup@@UAE@XZ:
  00018	b8 00 00 00 00	 mov	 eax, OFFSET FLAT:$T198917
  0001d	e9 00 00 00 00	 jmp	 ___CxxFrameHandler
text$x	ENDS
??1CMarkup@@UAE@XZ ENDP					; CMarkup::~CMarkup
EXTRN	??3@YAXPAX@Z:NEAR				; operator delete
; Function compile flags: /Odt
;	COMDAT ??_GCMarkup@@UAEPAXI@Z
_TEXT	SEGMENT
_this$ = -4						; size = 4
___flags$ = 8						; size = 4
??_GCMarkup@@UAEPAXI@Z PROC NEAR			; CMarkup::`scalar deleting destructor', COMDAT
; _this$ = ecx
  00000	55		 push	 ebp
  00001	8b ec		 mov	 ebp, esp
  00003	51		 push	 ecx
  00004	89 4d fc	 mov	 DWORD PTR _this$[ebp], ecx
  00007	8b 4d fc	 mov	 ecx, DWORD PTR _this$[ebp]
  0000a	e8 00 00 00 00	 call	 ??1CMarkup@@UAE@XZ	; CMarkup::~CMarkup
  0000f	8b 45 08	 mov	 eax, DWORD PTR ___flags$[ebp]
  00012	83 e0 01	 and	 eax, 1
  00015	74 0c		 je	 SHORT $L197688
  00017	8b 4d fc	 mov	 ecx, DWORD PTR _this$[ebp]
  0001a	51		 push	 ecx
  0001b	e8 00 00 00 00	 call	 ??3@YAXPAX@Z		; operator delete
  00020	83 c4 04	 add	 esp, 4
$L197688:
  00023	8b 45 fc	 mov	 eax, DWORD PTR _this$[ebp]
  00026	8b e5		 mov	 esp, ebp
  00028	5d		 pop	 ebp
  00029	c2 04 00	 ret	 4
??_GCMarkup@@UAEPAXI@Z ENDP				; CMarkup::`scalar deleting destructor'
_TEXT	ENDS
PUBLIC	??HATL@@YA?AV?$CStringT@DV?$StrTraitMFC_DLL@DV?$ChTraitsCRT@D@ATL@@@@@0@ABV10@PBD@Z ; ATL::operator+
PUBLIC	?AddElem@CMarkup@@QAE_NPBD0@Z			; CMarkup::AddElem
EXTRN	__imp_??B?$CSimpleStringT@D$00@ATL@@QBEPBDXZ:NEAR
EXTRN	__imp_?IsEmpty@?$CSimpleStringT@D$00@ATL@@QBE_NXZ:NEAR
;	COMDAT xdata$x
; File d:\boxgit\playbox\playbox\dev\prj\playbox\src\util\markuparchive.h
xdata$x	SEGMENT
$T198932 DD	0ffffffffH
	DD	FLAT:$L198928
$T198930 DD	019930520H
	DD	01H
	DD	FLAT:$T198932
	DD	2 DUP(00H)
	DD	2 DUP(00H)
; Function compile flags: /Odt
xdata$x	ENDS
;	COMDAT ?AddElem@CMarkupArchive@@UAE_NPBD0@Z
_TEXT	SEGMENT
tv88 = -32						; size = 4
tv89 = -28						; size = 4
_this$ = -24						; size = 4
$T198927 = -20						; size = 4
$T198926 = -13						; size = 1
__$EHRec$ = -12						; size = 12
_szName$ = 8						; size = 4
_szData$ = 12						; size = 4
?AddElem@CMarkupArchive@@UAE_NPBD0@Z PROC NEAR		; CMarkupArchive::AddElem, COMDAT
; _this$ = ecx

; 144  : 	{	

  00000	55		 push	 ebp
  00001	8b ec		 mov	 ebp, esp
  00003	6a ff		 push	 -1
  00005	68 00 00 00 00	 push	 __ehhandler$?AddElem@CMarkupArchive@@UAE_NPBD0@Z
  0000a	64 a1 00 00 00
	00		 mov	 eax, DWORD PTR fs:__except_list
  00010	50		 push	 eax
  00011	64 89 25 00 00
	00 00		 mov	 DWORD PTR fs:__except_list, esp
  00018	83 ec 14	 sub	 esp, 20			; 00000014H
  0001b	89 4d e8	 mov	 DWORD PTR _this$[ebp], ecx

; 145  : 		if (m_sNameSpace.IsEmpty()) 

  0001e	8b 4d e8	 mov	 ecx, DWORD PTR _this$[ebp]
  00021	83 c1 44	 add	 ecx, 68			; 00000044H
  00024	ff 15 00 00 00
	00		 call	 DWORD PTR __imp_?IsEmpty@?$CSimpleStringT@D$00@ATL@@QBE_NXZ
  0002a	0f b6 c0	 movzx	 eax, al
  0002d	85 c0		 test	 eax, eax
  0002f	74 12		 je	 SHORT $L197790

; 146  : 			return CMarkup::AddElem( szName, szData); 

  00031	8b 4d 0c	 mov	 ecx, DWORD PTR _szData$[ebp]
  00034	51		 push	 ecx
  00035	8b 55 08	 mov	 edx, DWORD PTR _szName$[ebp]
  00038	52		 push	 edx
  00039	8b 4d e8	 mov	 ecx, DWORD PTR _this$[ebp]
  0003c	e8 00 00 00 00	 call	 ?AddElem@CMarkup@@QAE_NPBD0@Z ; CMarkup::AddElem
  00041	eb 53		 jmp	 SHORT $L197789
$L197790:

; 147  : 		else 
; 148  : 			return CMarkup::AddElem( m_sNameSpace+szName, szData);

  00043	8b 45 08	 mov	 eax, DWORD PTR _szName$[ebp]
  00046	50		 push	 eax
  00047	8b 4d e8	 mov	 ecx, DWORD PTR _this$[ebp]
  0004a	83 c1 44	 add	 ecx, 68			; 00000044H
  0004d	51		 push	 ecx
  0004e	8d 55 ec	 lea	 edx, DWORD PTR $T198927[ebp]
  00051	52		 push	 edx
  00052	e8 00 00 00 00	 call	 ??HATL@@YA?AV?$CStringT@DV?$StrTraitMFC_DLL@DV?$ChTraitsCRT@D@ATL@@@@@0@ABV10@PBD@Z ; ATL::operator+
  00057	83 c4 0c	 add	 esp, 12			; 0000000cH
  0005a	89 45 e4	 mov	 DWORD PTR tv89[ebp], eax
  0005d	8b 45 e4	 mov	 eax, DWORD PTR tv89[ebp]
  00060	89 45 e0	 mov	 DWORD PTR tv88[ebp], eax
  00063	c7 45 fc 00 00
	00 00		 mov	 DWORD PTR __$EHRec$[ebp+8], 0
  0006a	8b 4d 0c	 mov	 ecx, DWORD PTR _szData$[ebp]
  0006d	51		 push	 ecx
  0006e	8b 4d e0	 mov	 ecx, DWORD PTR tv88[ebp]
  00071	ff 15 00 00 00
	00		 call	 DWORD PTR __imp_??B?$CSimpleStringT@D$00@ATL@@QBEPBDXZ
  00077	50		 push	 eax
  00078	8b 4d e8	 mov	 ecx, DWORD PTR _this$[ebp]
  0007b	e8 00 00 00 00	 call	 ?AddElem@CMarkup@@QAE_NPBD0@Z ; CMarkup::AddElem
  00080	88 45 f3	 mov	 BYTE PTR $T198926[ebp], al
  00083	c7 45 fc ff ff
	ff ff		 mov	 DWORD PTR __$EHRec$[ebp+8], -1
  0008a	8d 4d ec	 lea	 ecx, DWORD PTR $T198927[ebp]
  0008d	ff 15 00 00 00
	00		 call	 DWORD PTR __imp_??1?$CStringT@DV?$StrTraitMFC_DLL@DV?$ChTraitsCRT@D@ATL@@@@@ATL@@QAE@XZ
  00093	8a 45 f3	 mov	 al, BYTE PTR $T198926[ebp]
$L197789:

; 149  : 	};

  00096	8b 4d f4	 mov	 ecx, DWORD PTR __$EHRec$[ebp]
  00099	64 89 0d 00 00
	00 00		 mov	 DWORD PTR fs:__except_list, ecx
  000a0	8b e5		 mov	 esp, ebp
  000a2	5d		 pop	 ebp
  000a3	c2 08 00	 ret	 8
_TEXT	ENDS
;	COMDAT text$x
text$x	SEGMENT
$L198928:
  00000	8d 4d ec	 lea	 ecx, DWORD PTR $T198927[ebp]
  00003	ff 25 00 00 00
	00		 jmp	 DWORD PTR __imp_??1?$CStringT@DV?$StrTraitMFC_DLL@DV?$ChTraitsCRT@D@ATL@@@@@ATL@@QAE@XZ
__ehhandler$?AddElem@CMarkupArchive@@UAE_NPBD0@Z:
  00009	b8 00 00 00 00	 mov	 eax, OFFSET FLAT:$T198930
  0000e	e9 00 00 00 00	 jmp	 ___CxxFrameHandler
text$x	ENDS
?AddElem@CMarkupArchive@@UAE_NPBD0@Z ENDP		; CMarkupArchive::AddElem
EXTRN	?x_AddElem@CMarkup@@IAE_NPBD0_N1@Z:NEAR		; CMarkup::x_AddElem
; Function compile flags: /Odt
; File d:\boxgit\playbox\playbox\dev\prj\playbox\src\util\markup.h
;	COMDAT ?AddElem@CMarkup@@QAE_NPBD0@Z
_TEXT	SEGMENT
_this$ = -4						; size = 4
_szName$ = 8						; size = 4
_szData$ = 12						; size = 4
?AddElem@CMarkup@@QAE_NPBD0@Z PROC NEAR			; CMarkup::AddElem, COMDAT
; _this$ = ecx

; 37   : 	bool AddElem( LPCTSTR szName, LPCTSTR szData=NULL ) { return x_AddElem(szName,szData,false,false); };

  00000	55		 push	 ebp
  00001	8b ec		 mov	 ebp, esp
  00003	51		 push	 ecx
  00004	89 4d fc	 mov	 DWORD PTR _this$[ebp], ecx
  00007	6a 00		 push	 0
  00009	6a 00		 push	 0
  0000b	8b 45 0c	 mov	 eax, DWORD PTR _szData$[ebp]
  0000e	50		 push	 eax
  0000f	8b 4d 08	 mov	 ecx, DWORD PTR _szName$[ebp]
  00012	51		 push	 ecx
  00013	8b 4d fc	 mov	 ecx, DWORD PTR _this$[ebp]
  00016	e8 00 00 00 00	 call	 ?x_AddElem@CMarkup@@IAE_NPBD0_N1@Z ; CMarkup::x_AddElem
  0001b	8b e5		 mov	 esp, ebp
  0001d	5d		 pop	 ebp
  0001e	c2 08 00	 ret	 8
?AddElem@CMarkup@@QAE_NPBD0@Z ENDP			; CMarkup::AddElem
_TEXT	ENDS
PUBLIC	?AddChildElem@CMarkup@@QAE_NPBD0@Z		; CMarkup::AddChildElem
;	COMDAT xdata$x
; File d:\boxgit\playbox\playbox\dev\prj\playbox\src\util\markuparchive.h
xdata$x	SEGMENT
$T198945 DD	0ffffffffH
	DD	FLAT:$L198941
$T198943 DD	019930520H
	DD	01H
	DD	FLAT:$T198945
	DD	2 DUP(00H)
	DD	2 DUP(00H)
; Function compile flags: /Odt
xdata$x	ENDS
;	COMDAT ?AddChildElem@CMarkupArchive@@UAE_NPBD0@Z
_TEXT	SEGMENT
tv88 = -32						; size = 4
tv89 = -28						; size = 4
_this$ = -24						; size = 4
$T198940 = -20						; size = 4
$T198939 = -13						; size = 1
__$EHRec$ = -12						; size = 12
_szName$ = 8						; size = 4
_szData$ = 12						; size = 4
?AddChildElem@CMarkupArchive@@UAE_NPBD0@Z PROC NEAR	; CMarkupArchive::AddChildElem, COMDAT
; _this$ = ecx

; 152  : 	{	

  00000	55		 push	 ebp
  00001	8b ec		 mov	 ebp, esp
  00003	6a ff		 push	 -1
  00005	68 00 00 00 00	 push	 __ehhandler$?AddChildElem@CMarkupArchive@@UAE_NPBD0@Z
  0000a	64 a1 00 00 00
	00		 mov	 eax, DWORD PTR fs:__except_list
  00010	50		 push	 eax
  00011	64 89 25 00 00
	00 00		 mov	 DWORD PTR fs:__except_list, esp
  00018	83 ec 14	 sub	 esp, 20			; 00000014H
  0001b	89 4d e8	 mov	 DWORD PTR _this$[ebp], ecx

; 153  : 		if (m_sNameSpace.IsEmpty()) 

  0001e	8b 4d e8	 mov	 ecx, DWORD PTR _this$[ebp]
  00021	83 c1 44	 add	 ecx, 68			; 00000044H
  00024	ff 15 00 00 00
	00		 call	 DWORD PTR __imp_?IsEmpty@?$CSimpleStringT@D$00@ATL@@QBE_NXZ
  0002a	0f b6 c0	 movzx	 eax, al
  0002d	85 c0		 test	 eax, eax
  0002f	74 12		 je	 SHORT $L197796

; 154  : 			return CMarkup::AddChildElem( szName, szData); 

  00031	8b 4d 0c	 mov	 ecx, DWORD PTR _szData$[ebp]
  00034	51		 push	 ecx
  00035	8b 55 08	 mov	 edx, DWORD PTR _szName$[ebp]
  00038	52		 push	 edx
  00039	8b 4d e8	 mov	 ecx, DWORD PTR _this$[ebp]
  0003c	e8 00 00 00 00	 call	 ?AddChildElem@CMarkup@@QAE_NPBD0@Z ; CMarkup::AddChildElem
  00041	eb 53		 jmp	 SHORT $L197795
$L197796:

; 155  : 		else 
; 156  : 			return CMarkup::AddChildElem( m_sNameSpace+szName, szData);

  00043	8b 45 08	 mov	 eax, DWORD PTR _szName$[ebp]
  00046	50		 push	 eax
  00047	8b 4d e8	 mov	 ecx, DWORD PTR _this$[ebp]
  0004a	83 c1 44	 add	 ecx, 68			; 00000044H
  0004d	51		 push	 ecx
  0004e	8d 55 ec	 lea	 edx, DWORD PTR $T198940[ebp]
  00051	52		 push	 edx
  00052	e8 00 00 00 00	 call	 ??HATL@@YA?AV?$CStringT@DV?$StrTraitMFC_DLL@DV?$ChTraitsCRT@D@ATL@@@@@0@ABV10@PBD@Z ; ATL::operator+
  00057	83 c4 0c	 add	 esp, 12			; 0000000cH
  0005a	89 45 e4	 mov	 DWORD PTR tv89[ebp], eax
  0005d	8b 45 e4	 mov	 eax, DWORD PTR tv89[ebp]
  00060	89 45 e0	 mov	 DWORD PTR tv88[ebp], eax
  00063	c7 45 fc 00 00
	00 00		 mov	 DWORD PTR __$EHRec$[ebp+8], 0
  0006a	8b 4d 0c	 mov	 ecx, DWORD PTR _szData$[ebp]
  0006d	51		 push	 ecx
  0006e	8b 4d e0	 mov	 ecx, DWORD PTR tv88[ebp]
  00071	ff 15 00 00 00
	00		 call	 DWORD PTR __imp_??B?$CSimpleStringT@D$00@ATL@@QBEPBDXZ
  00077	50		 push	 eax
  00078	8b 4d e8	 mov	 ecx, DWORD PTR _this$[ebp]
  0007b	e8 00 00 00 00	 call	 ?AddChildElem@CMarkup@@QAE_NPBD0@Z ; CMarkup::AddChildElem
  00080	88 45 f3	 mov	 BYTE PTR $T198939[ebp], al
  00083	c7 45 fc ff ff
	ff ff		 mov	 DWORD PTR __$EHRec$[ebp+8], -1
  0008a	8d 4d ec	 lea	 ecx, DWORD PTR $T198940[ebp]
  0008d	ff 15 00 00 00
	00		 call	 DWORD PTR __imp_??1?$CStringT@DV?$StrTraitMFC_DLL@DV?$ChTraitsCRT@D@ATL@@@@@ATL@@QAE@XZ
  00093	8a 45 f3	 mov	 al, BYTE PTR $T198939[ebp]
$L197795:

; 157  : 	};

  00096	8b 4d f4	 mov	 ecx, DWORD PTR __$EHRec$[ebp]
  00099	64 89 0d 00 00
	00 00		 mov	 DWORD PTR fs:__except_list, ecx
  000a0	8b e5		 mov	 esp, ebp
  000a2	5d		 pop	 ebp
  000a3	c2 08 00	 ret	 8
_TEXT	ENDS
;	COMDAT text$x
text$x	SEGMENT
$L198941:
  00000	8d 4d ec	 lea	 ecx, DWORD PTR $T198940[ebp]
  00003	ff 25 00 00 00
	00		 jmp	 DWORD PTR __imp_??1?$CStringT@DV?$StrTraitMFC_DLL@DV?$ChTraitsCRT@D@ATL@@@@@ATL@@QAE@XZ
__ehhandler$?AddChildElem@CMarkupArchive@@UAE_NPBD0@Z:
  00009	b8 00 00 00 00	 mov	 eax, OFFSET FLAT:$T198943
  0000e	e9 00 00 00 00	 jmp	 ___CxxFrameHandler
text$x	ENDS
?AddChildElem@CMarkupArchive@@UAE_NPBD0@Z ENDP		; CMarkupArchive::AddChildElem
; Function compile flags: /Odt
; File d:\boxgit\playbox\playbox\dev\prj\playbox\src\util\markup.h
;	COMDAT ?AddChildElem@CMarkup@@QAE_NPBD0@Z
_TEXT	SEGMENT
_this$ = -4						; size = 4
_szName$ = 8						; size = 4
_szData$ = 12						; size = 4
?AddChildElem@CMarkup@@QAE_NPBD0@Z PROC NEAR		; CMarkup::AddChildElem, COMDAT
; _this$ = ecx

; 38   : 	bool AddChildElem( LPCTSTR szName, LPCTSTR szData=NULL ) { return x_AddElem(szName,szData,false,true); };

  00000	55		 push	 ebp
  00001	8b ec		 mov	 ebp, esp
  00003	51		 push	 ecx
  00004	89 4d fc	 mov	 DWORD PTR _this$[ebp], ecx
  00007	6a 01		 push	 1
  00009	6a 00		 push	 0
  0000b	8b 45 0c	 mov	 eax, DWORD PTR _szData$[ebp]
  0000e	50		 push	 eax
  0000f	8b 4d 08	 mov	 ecx, DWORD PTR _szName$[ebp]
  00012	51		 push	 ecx
  00013	8b 4d fc	 mov	 ecx, DWORD PTR _this$[ebp]
  00016	e8 00 00 00 00	 call	 ?x_AddElem@CMarkup@@IAE_NPBD0_N1@Z ; CMarkup::x_AddElem
  0001b	8b e5		 mov	 esp, ebp
  0001d	5d		 pop	 ebp
  0001e	c2 08 00	 ret	 8
?AddChildElem@CMarkup@@QAE_NPBD0@Z ENDP			; CMarkup::AddChildElem
_TEXT	ENDS
EXTRN	?FindElem@CMarkup@@QAE_NPBD@Z:NEAR		; CMarkup::FindElem
;	COMDAT xdata$x
; File d:\boxgit\playbox\playbox\dev\prj\playbox\src\util\markuparchive.h
xdata$x	SEGMENT
$T198958 DD	0ffffffffH
	DD	FLAT:$L198954
$T198956 DD	019930520H
	DD	01H
	DD	FLAT:$T198958
	DD	2 DUP(00H)
	DD	2 DUP(00H)
; Function compile flags: /Odt
xdata$x	ENDS
;	COMDAT ?FindElem@CMarkupArchive@@UAE_NPBD@Z
_TEXT	SEGMENT
tv90 = -32						; size = 4
tv91 = -28						; size = 4
_this$ = -24						; size = 4
$T198953 = -20						; size = 4
$T198952 = -13						; size = 1
__$EHRec$ = -12						; size = 12
_szName$ = 8						; size = 4
?FindElem@CMarkupArchive@@UAE_NPBD@Z PROC NEAR		; CMarkupArchive::FindElem, COMDAT
; _this$ = ecx

; 160  : 	{	

  00000	55		 push	 ebp
  00001	8b ec		 mov	 ebp, esp
  00003	6a ff		 push	 -1
  00005	68 00 00 00 00	 push	 __ehhandler$?FindElem@CMarkupArchive@@UAE_NPBD@Z
  0000a	64 a1 00 00 00
	00		 mov	 eax, DWORD PTR fs:__except_list
  00010	50		 push	 eax
  00011	64 89 25 00 00
	00 00		 mov	 DWORD PTR fs:__except_list, esp
  00018	83 ec 14	 sub	 esp, 20			; 00000014H
  0001b	89 4d e8	 mov	 DWORD PTR _this$[ebp], ecx

; 161  : 		if (szName==NULL) 

  0001e	83 7d 08 00	 cmp	 DWORD PTR _szName$[ebp], 0
  00022	75 0c		 jne	 SHORT $L197802

; 162  : 			return CMarkup::FindElem( NULL); 

  00024	6a 00		 push	 0
  00026	8b 4d e8	 mov	 ecx, DWORD PTR _this$[ebp]
  00029	e8 00 00 00 00	 call	 ?FindElem@CMarkup@@QAE_NPBD@Z ; CMarkup::FindElem
  0002e	eb 70		 jmp	 SHORT $L197801
$L197802:

; 163  : 		else 
; 164  : 			if (m_sNameSpace.IsEmpty())

  00030	8b 4d e8	 mov	 ecx, DWORD PTR _this$[ebp]
  00033	83 c1 44	 add	 ecx, 68			; 00000044H
  00036	ff 15 00 00 00
	00		 call	 DWORD PTR __imp_?IsEmpty@?$CSimpleStringT@D$00@ATL@@QBE_NXZ
  0003c	0f b6 c0	 movzx	 eax, al
  0003f	85 c0		 test	 eax, eax
  00041	74 0e		 je	 SHORT $L197804

; 165  : 				return CMarkup::FindElem(szName);

  00043	8b 4d 08	 mov	 ecx, DWORD PTR _szName$[ebp]
  00046	51		 push	 ecx
  00047	8b 4d e8	 mov	 ecx, DWORD PTR _this$[ebp]
  0004a	e8 00 00 00 00	 call	 ?FindElem@CMarkup@@QAE_NPBD@Z ; CMarkup::FindElem
  0004f	eb 4f		 jmp	 SHORT $L197801
$L197804:

; 166  : 			else
; 167  : 				return CMarkup::FindElem( m_sNameSpace+szName);

  00051	8b 55 08	 mov	 edx, DWORD PTR _szName$[ebp]
  00054	52		 push	 edx
  00055	8b 45 e8	 mov	 eax, DWORD PTR _this$[ebp]
  00058	83 c0 44	 add	 eax, 68			; 00000044H
  0005b	50		 push	 eax
  0005c	8d 4d ec	 lea	 ecx, DWORD PTR $T198953[ebp]
  0005f	51		 push	 ecx
  00060	e8 00 00 00 00	 call	 ??HATL@@YA?AV?$CStringT@DV?$StrTraitMFC_DLL@DV?$ChTraitsCRT@D@ATL@@@@@0@ABV10@PBD@Z ; ATL::operator+
  00065	83 c4 0c	 add	 esp, 12			; 0000000cH
  00068	89 45 e4	 mov	 DWORD PTR tv91[ebp], eax
  0006b	8b 55 e4	 mov	 edx, DWORD PTR tv91[ebp]
  0006e	89 55 e0	 mov	 DWORD PTR tv90[ebp], edx
  00071	c7 45 fc 00 00
	00 00		 mov	 DWORD PTR __$EHRec$[ebp+8], 0
  00078	8b 4d e0	 mov	 ecx, DWORD PTR tv90[ebp]
  0007b	ff 15 00 00 00
	00		 call	 DWORD PTR __imp_??B?$CSimpleStringT@D$00@ATL@@QBEPBDXZ
  00081	50		 push	 eax
  00082	8b 4d e8	 mov	 ecx, DWORD PTR _this$[ebp]
  00085	e8 00 00 00 00	 call	 ?FindElem@CMarkup@@QAE_NPBD@Z ; CMarkup::FindElem
  0008a	88 45 f3	 mov	 BYTE PTR $T198952[ebp], al
  0008d	c7 45 fc ff ff
	ff ff		 mov	 DWORD PTR __$EHRec$[ebp+8], -1
  00094	8d 4d ec	 lea	 ecx, DWORD PTR $T198953[ebp]
  00097	ff 15 00 00 00
	00		 call	 DWORD PTR __imp_??1?$CStringT@DV?$StrTraitMFC_DLL@DV?$ChTraitsCRT@D@ATL@@@@@ATL@@QAE@XZ
  0009d	8a 45 f3	 mov	 al, BYTE PTR $T198952[ebp]
$L197801:

; 168  : 	};

  000a0	8b 4d f4	 mov	 ecx, DWORD PTR __$EHRec$[ebp]
  000a3	64 89 0d 00 00
	00 00		 mov	 DWORD PTR fs:__except_list, ecx
  000aa	8b e5		 mov	 esp, ebp
  000ac	5d		 pop	 ebp
  000ad	c2 04 00	 ret	 4
_TEXT	ENDS
;	COMDAT text$x
text$x	SEGMENT
$L198954:
  00000	8d 4d ec	 lea	 ecx, DWORD PTR $T198953[ebp]
  00003	ff 25 00 00 00
	00		 jmp	 DWORD PTR __imp_??1?$CStringT@DV?$StrTraitMFC_DLL@DV?$ChTraitsCRT@D@ATL@@@@@ATL@@QAE@XZ
__ehhandler$?FindElem@CMarkupArchive@@UAE_NPBD@Z:
  00009	b8 00 00 00 00	 mov	 eax, OFFSET FLAT:$T198956
  0000e	e9 00 00 00 00	 jmp	 ___CxxFrameHandler
text$x	ENDS
?FindElem@CMarkupArchive@@UAE_NPBD@Z ENDP		; CMarkupArchive::FindElem
EXTRN	?FindChildElem@CMarkup@@QAE_NPBD@Z:NEAR		; CMarkup::FindChildElem
;	COMDAT xdata$x
xdata$x	SEGMENT
$T198969 DD	0ffffffffH
	DD	FLAT:$L198965
$T198967 DD	019930520H
	DD	01H
	DD	FLAT:$T198969
	DD	2 DUP(00H)
	DD	2 DUP(00H)
; Function compile flags: /Odt
xdata$x	ENDS
;	COMDAT ?FindChildElem@CMarkupArchive@@UAE_NPBD@Z
_TEXT	SEGMENT
tv90 = -32						; size = 4
tv91 = -28						; size = 4
_this$ = -24						; size = 4
$T198964 = -20						; size = 4
$T198963 = -13						; size = 1
__$EHRec$ = -12						; size = 12
_szName$ = 8						; size = 4
?FindChildElem@CMarkupArchive@@UAE_NPBD@Z PROC NEAR	; CMarkupArchive::FindChildElem, COMDAT
; _this$ = ecx

; 171  : 	{	

  00000	55		 push	 ebp
  00001	8b ec		 mov	 ebp, esp
  00003	6a ff		 push	 -1
  00005	68 00 00 00 00	 push	 __ehhandler$?FindChildElem@CMarkupArchive@@UAE_NPBD@Z
  0000a	64 a1 00 00 00
	00		 mov	 eax, DWORD PTR fs:__except_list
  00010	50		 push	 eax
  00011	64 89 25 00 00
	00 00		 mov	 DWORD PTR fs:__except_list, esp
  00018	83 ec 14	 sub	 esp, 20			; 00000014H
  0001b	89 4d e8	 mov	 DWORD PTR _this$[ebp], ecx

; 172  : 		if (szName==NULL) 

  0001e	83 7d 08 00	 cmp	 DWORD PTR _szName$[ebp], 0
  00022	75 0c		 jne	 SHORT $L197810

; 173  : 			return CMarkup::FindElem( NULL); 

  00024	6a 00		 push	 0
  00026	8b 4d e8	 mov	 ecx, DWORD PTR _this$[ebp]
  00029	e8 00 00 00 00	 call	 ?FindElem@CMarkup@@QAE_NPBD@Z ; CMarkup::FindElem
  0002e	eb 70		 jmp	 SHORT $L197809
$L197810:

; 174  : 		else 
; 175  : 			if (m_sNameSpace.IsEmpty())

  00030	8b 4d e8	 mov	 ecx, DWORD PTR _this$[ebp]
  00033	83 c1 44	 add	 ecx, 68			; 00000044H
  00036	ff 15 00 00 00
	00		 call	 DWORD PTR __imp_?IsEmpty@?$CSimpleStringT@D$00@ATL@@QBE_NXZ
  0003c	0f b6 c0	 movzx	 eax, al
  0003f	85 c0		 test	 eax, eax
  00041	74 0e		 je	 SHORT $L197812

; 176  : 				return CMarkup::FindChildElem(szName);

  00043	8b 4d 08	 mov	 ecx, DWORD PTR _szName$[ebp]
  00046	51		 push	 ecx
  00047	8b 4d e8	 mov	 ecx, DWORD PTR _this$[ebp]
  0004a	e8 00 00 00 00	 call	 ?FindChildElem@CMarkup@@QAE_NPBD@Z ; CMarkup::FindChildElem
  0004f	eb 4f		 jmp	 SHORT $L197809
$L197812:

; 177  : 			else
; 178  : 				return CMarkup::FindChildElem( m_sNameSpace+szName);

  00051	8b 55 08	 mov	 edx, DWORD PTR _szName$[ebp]
  00054	52		 push	 edx
  00055	8b 45 e8	 mov	 eax, DWORD PTR _this$[ebp]
  00058	83 c0 44	 add	 eax, 68			; 00000044H
  0005b	50		 push	 eax
  0005c	8d 4d ec	 lea	 ecx, DWORD PTR $T198964[ebp]
  0005f	51		 push	 ecx
  00060	e8 00 00 00 00	 call	 ??HATL@@YA?AV?$CStringT@DV?$StrTraitMFC_DLL@DV?$ChTraitsCRT@D@ATL@@@@@0@ABV10@PBD@Z ; ATL::operator+
  00065	83 c4 0c	 add	 esp, 12			; 0000000cH
  00068	89 45 e4	 mov	 DWORD PTR tv91[ebp], eax
  0006b	8b 55 e4	 mov	 edx, DWORD PTR tv91[ebp]
  0006e	89 55 e0	 mov	 DWORD PTR tv90[ebp], edx
  00071	c7 45 fc 00 00
	00 00		 mov	 DWORD PTR __$EHRec$[ebp+8], 0
  00078	8b 4d e0	 mov	 ecx, DWORD PTR tv90[ebp]
  0007b	ff 15 00 00 00
	00		 call	 DWORD PTR __imp_??B?$CSimpleStringT@D$00@ATL@@QBEPBDXZ
  00081	50		 push	 eax
  00082	8b 4d e8	 mov	 ecx, DWORD PTR _this$[ebp]
  00085	e8 00 00 00 00	 call	 ?FindChildElem@CMarkup@@QAE_NPBD@Z ; CMarkup::FindChildElem
  0008a	88 45 f3	 mov	 BYTE PTR $T198963[ebp], al
  0008d	c7 45 fc ff ff
	ff ff		 mov	 DWORD PTR __$EHRec$[ebp+8], -1
  00094	8d 4d ec	 lea	 ecx, DWORD PTR $T198964[ebp]
  00097	ff 15 00 00 00
	00		 call	 DWORD PTR __imp_??1?$CStringT@DV?$StrTraitMFC_DLL@DV?$ChTraitsCRT@D@ATL@@@@@ATL@@QAE@XZ
  0009d	8a 45 f3	 mov	 al, BYTE PTR $T198963[ebp]
$L197809:

; 179  : 	};

  000a0	8b 4d f4	 mov	 ecx, DWORD PTR __$EHRec$[ebp]
  000a3	64 89 0d 00 00
	00 00		 mov	 DWORD PTR fs:__except_list, ecx
  000aa	8b e5		 mov	 esp, ebp
  000ac	5d		 pop	 ebp
  000ad	c2 04 00	 ret	 4
_TEXT	ENDS
;	COMDAT text$x
text$x	SEGMENT
$L198965:
  00000	8d 4d ec	 lea	 ecx, DWORD PTR $T198964[ebp]
  00003	ff 25 00 00 00
	00		 jmp	 DWORD PTR __imp_??1?$CStringT@DV?$StrTraitMFC_DLL@DV?$ChTraitsCRT@D@ATL@@@@@ATL@@QAE@XZ
__ehhandler$?FindChildElem@CMarkupArchive@@UAE_NPBD@Z:
  00009	b8 00 00 00 00	 mov	 eax, OFFSET FLAT:$T198967
  0000e	e9 00 00 00 00	 jmp	 ___CxxFrameHandler
text$x	ENDS
?FindChildElem@CMarkupArchive@@UAE_NPBD@Z ENDP		; CMarkupArchive::FindChildElem
; Function compile flags: /Odt
;	COMDAT ??_GCMarkupArchive@@UAEPAXI@Z
_TEXT	SEGMENT
_this$ = -4						; size = 4
___flags$ = 8						; size = 4
??_GCMarkupArchive@@UAEPAXI@Z PROC NEAR			; CMarkupArchive::`scalar deleting destructor', COMDAT
; _this$ = ecx
  00000	55		 push	 ebp
  00001	8b ec		 mov	 ebp, esp
  00003	51		 push	 ecx
  00004	89 4d fc	 mov	 DWORD PTR _this$[ebp], ecx
  00007	8b 4d fc	 mov	 ecx, DWORD PTR _this$[ebp]
  0000a	e8 00 00 00 00	 call	 ??1CMarkupArchive@@UAE@XZ ; CMarkupArchive::~CMarkupArchive
  0000f	8b 45 08	 mov	 eax, DWORD PTR ___flags$[ebp]
  00012	83 e0 01	 and	 eax, 1
  00015	74 0c		 je	 SHORT $L197822
  00017	8b 4d fc	 mov	 ecx, DWORD PTR _this$[ebp]
  0001a	51		 push	 ecx
  0001b	e8 00 00 00 00	 call	 ??3@YAXPAX@Z		; operator delete
  00020	83 c4 04	 add	 esp, 4
$L197822:
  00023	8b 45 fc	 mov	 eax, DWORD PTR _this$[ebp]
  00026	8b e5		 mov	 esp, ebp
  00028	5d		 pop	 ebp
  00029	c2 04 00	 ret	 4
??_GCMarkupArchive@@UAEPAXI@Z ENDP			; CMarkupArchive::`scalar deleting destructor'
_TEXT	ENDS
PUBLIC	?OpenNewFile@CMarkupArchive@@QAE_NPBD@Z		; CMarkupArchive::OpenNewFile
EXTRN	__imp_??4?$CStringT@DV?$StrTraitMFC_DLL@DV?$ChTraitsCRT@D@ATL@@@@@ATL@@QAEAAV01@PBD@Z:NEAR
EXTRN	?SetDoc@CMarkup@@QAE_NPBD@Z:NEAR		; CMarkup::SetDoc
; Function compile flags: /Odt
; File d:\boxgit\playbox\playbox\dev\prj\playbox\src\util\markuparchive.cpp
_TEXT	SEGMENT
_this$ = -4						; size = 4
_szFileName$ = 8					; size = 4
?OpenNewFile@CMarkupArchive@@QAE_NPBD@Z PROC NEAR	; CMarkupArchive::OpenNewFile
; _this$ = ecx

; 20   : {

  000a0	55		 push	 ebp
  000a1	8b ec		 mov	 ebp, esp
  000a3	51		 push	 ecx
  000a4	89 4d fc	 mov	 DWORD PTR _this$[ebp], ecx

; 21   : 	m_sFileName = szFileName;

  000a7	8b 45 08	 mov	 eax, DWORD PTR _szFileName$[ebp]
  000aa	50		 push	 eax
  000ab	8b 4d fc	 mov	 ecx, DWORD PTR _this$[ebp]
  000ae	83 c1 40	 add	 ecx, 64			; 00000040H
  000b1	ff 15 00 00 00
	00		 call	 DWORD PTR __imp_??4?$CStringT@DV?$StrTraitMFC_DLL@DV?$ChTraitsCRT@D@ATL@@@@@ATL@@QAEAAV01@PBD@Z

; 22   : 	SetDoc(NULL);

  000b7	6a 00		 push	 0
  000b9	8b 4d fc	 mov	 ecx, DWORD PTR _this$[ebp]
  000bc	e8 00 00 00 00	 call	 ?SetDoc@CMarkup@@QAE_NPBD@Z ; CMarkup::SetDoc

; 23   : 	m_bOpened=true;

  000c1	8b 4d fc	 mov	 ecx, DWORD PTR _this$[ebp]
  000c4	c6 41 3c 01	 mov	 BYTE PTR [ecx+60], 1

; 24   : 
; 25   : 	return true;

  000c8	b0 01		 mov	 al, 1

; 26   : }

  000ca	8b e5		 mov	 esp, ebp
  000cc	5d		 pop	 ebp
  000cd	c2 04 00	 ret	 4
?OpenNewFile@CMarkupArchive@@QAE_NPBD@Z ENDP		; CMarkupArchive::OpenNewFile
_TEXT	ENDS
PUBLIC	?SaveNewFile@CMarkupArchive@@QAE_NXZ		; CMarkupArchive::SaveNewFile
PUBLIC	?GetDoc@CMarkup@@QBE?AV?$CStringT@DV?$StrTraitMFC_DLL@DV?$ChTraitsCRT@D@ATL@@@@@ATL@@XZ ; CMarkup::GetDoc
EXTRN	__imp_?GetLength@?$CSimpleStringT@D$00@ATL@@QBEHXZ:NEAR
EXTRN	??0CFile@@QAE@XZ:NEAR				; CFile::CFile
EXTRN	?Open@CFile@@UAEHPBDIPAVCFileException@@@Z:NEAR	; CFile::Open
EXTRN	?Write@CFile@@UAEXPBXI@Z:NEAR			; CFile::Write
EXTRN	?Close@CFile@@UAEXXZ:NEAR			; CFile::Close
EXTRN	??1CFile@@UAE@XZ:NEAR				; CFile::~CFile
xdata$x	SEGMENT
$T198984 DD	0ffffffffH
	DD	FLAT:$L198979
	DD	00H
	DD	FLAT:$L198980
$T198982 DD	019930520H
	DD	02H
	DD	FLAT:$T198984
	DD	2 DUP(00H)
	DD	2 DUP(00H)
; Function compile flags: /Odt
xdata$x	ENDS
_TEXT	SEGMENT
_this$ = -40						; size = 4
$T198978 = -34						; size = 1
$T198977 = -33						; size = 1
_doc$ = -32						; size = 4
_f$ = -28						; size = 16
__$EHRec$ = -12						; size = 12
?SaveNewFile@CMarkupArchive@@QAE_NXZ PROC NEAR		; CMarkupArchive::SaveNewFile
; _this$ = ecx

; 28   : {

  000d0	55		 push	 ebp
  000d1	8b ec		 mov	 ebp, esp
  000d3	6a ff		 push	 -1
  000d5	68 00 00 00 00	 push	 __ehhandler$?SaveNewFile@CMarkupArchive@@QAE_NXZ
  000da	64 a1 00 00 00
	00		 mov	 eax, DWORD PTR fs:__except_list
  000e0	50		 push	 eax
  000e1	64 89 25 00 00
	00 00		 mov	 DWORD PTR fs:__except_list, esp
  000e8	83 ec 1c	 sub	 esp, 28			; 0000001cH
  000eb	89 4d d8	 mov	 DWORD PTR _this$[ebp], ecx

; 29   : 	CFile			f;

  000ee	8d 4d e4	 lea	 ecx, DWORD PTR _f$[ebp]
  000f1	e8 00 00 00 00	 call	 ??0CFile@@QAE@XZ	; CFile::CFile
  000f6	c7 45 fc 00 00
	00 00		 mov	 DWORD PTR __$EHRec$[ebp+8], 0

; 30   : 	if(!f.Open(m_sFileName, CFile::modeCreate| CFile::modeWrite|CFile::modeRead))

  000fd	6a 00		 push	 0
  000ff	68 01 10 00 00	 push	 4097			; 00001001H
  00104	8b 4d d8	 mov	 ecx, DWORD PTR _this$[ebp]
  00107	83 c1 40	 add	 ecx, 64			; 00000040H
  0010a	ff 15 00 00 00
	00		 call	 DWORD PTR __imp_??B?$CSimpleStringT@D$00@ATL@@QBEPBDXZ
  00110	50		 push	 eax
  00111	8d 4d e4	 lea	 ecx, DWORD PTR _f$[ebp]
  00114	e8 00 00 00 00	 call	 ?Open@CFile@@UAEHPBDIPAVCFileException@@@Z ; CFile::Open
  00119	85 c0		 test	 eax, eax
  0011b	75 18		 jne	 SHORT $L198036

; 31   : 		return false;

  0011d	c6 45 df 00	 mov	 BYTE PTR $T198977[ebp], 0
  00121	c7 45 fc ff ff
	ff ff		 mov	 DWORD PTR __$EHRec$[ebp+8], -1
  00128	8d 4d e4	 lea	 ecx, DWORD PTR _f$[ebp]
  0012b	e8 00 00 00 00	 call	 ??1CFile@@UAE@XZ	; CFile::~CFile
  00130	8a 45 df	 mov	 al, BYTE PTR $T198977[ebp]
  00133	eb 57		 jmp	 SHORT $L198034
$L198036:

; 32   : 	CString doc = GetDoc();

  00135	8d 45 e0	 lea	 eax, DWORD PTR _doc$[ebp]
  00138	50		 push	 eax
  00139	8b 4d d8	 mov	 ecx, DWORD PTR _this$[ebp]
  0013c	e8 00 00 00 00	 call	 ?GetDoc@CMarkup@@QBE?AV?$CStringT@DV?$StrTraitMFC_DLL@DV?$ChTraitsCRT@D@ATL@@@@@ATL@@XZ ; CMarkup::GetDoc
  00141	c6 45 fc 01	 mov	 BYTE PTR __$EHRec$[ebp+8], 1

; 33   : 	f.Write(doc, doc.GetLength());

  00145	8d 4d e0	 lea	 ecx, DWORD PTR _doc$[ebp]
  00148	ff 15 00 00 00
	00		 call	 DWORD PTR __imp_?GetLength@?$CSimpleStringT@D$00@ATL@@QBEHXZ
  0014e	50		 push	 eax
  0014f	8d 4d e0	 lea	 ecx, DWORD PTR _doc$[ebp]
  00152	ff 15 00 00 00
	00		 call	 DWORD PTR __imp_??B?$CSimpleStringT@D$00@ATL@@QBEPBDXZ
  00158	50		 push	 eax
  00159	8d 4d e4	 lea	 ecx, DWORD PTR _f$[ebp]
  0015c	e8 00 00 00 00	 call	 ?Write@CFile@@UAEXPBXI@Z ; CFile::Write

; 34   : 	f.Close();

  00161	8d 4d e4	 lea	 ecx, DWORD PTR _f$[ebp]
  00164	e8 00 00 00 00	 call	 ?Close@CFile@@UAEXXZ	; CFile::Close

; 35   : 	return true;

  00169	c6 45 de 01	 mov	 BYTE PTR $T198978[ebp], 1
  0016d	c6 45 fc 00	 mov	 BYTE PTR __$EHRec$[ebp+8], 0
  00171	8d 4d e0	 lea	 ecx, DWORD PTR _doc$[ebp]
  00174	ff 15 00 00 00
	00		 call	 DWORD PTR __imp_??1?$CStringT@DV?$StrTraitMFC_DLL@DV?$ChTraitsCRT@D@ATL@@@@@ATL@@QAE@XZ
  0017a	c7 45 fc ff ff
	ff ff		 mov	 DWORD PTR __$EHRec$[ebp+8], -1
  00181	8d 4d e4	 lea	 ecx, DWORD PTR _f$[ebp]
  00184	e8 00 00 00 00	 call	 ??1CFile@@UAE@XZ	; CFile::~CFile
  00189	8a 45 de	 mov	 al, BYTE PTR $T198978[ebp]
$L198034:

; 36   : }

  0018c	8b 4d f4	 mov	 ecx, DWORD PTR __$EHRec$[ebp]
  0018f	64 89 0d 00 00
	00 00		 mov	 DWORD PTR fs:__except_list, ecx
  00196	8b e5		 mov	 esp, ebp
  00198	5d		 pop	 ebp
  00199	c3		 ret	 0
_TEXT	ENDS
text$x	SEGMENT
$L198979:
  00042	8d 4d e4	 lea	 ecx, DWORD PTR _f$[ebp]
  00045	e9 00 00 00 00	 jmp	 ??1CFile@@UAE@XZ	; CFile::~CFile
$L198980:
  0004a	8d 4d e0	 lea	 ecx, DWORD PTR _doc$[ebp]
  0004d	ff 25 00 00 00
	00		 jmp	 DWORD PTR __imp_??1?$CStringT@DV?$StrTraitMFC_DLL@DV?$ChTraitsCRT@D@ATL@@@@@ATL@@QAE@XZ
__ehhandler$?SaveNewFile@CMarkupArchive@@QAE_NXZ:
  00053	b8 00 00 00 00	 mov	 eax, OFFSET FLAT:$T198982
  00058	e9 00 00 00 00	 jmp	 ___CxxFrameHandler
text$x	ENDS
?SaveNewFile@CMarkupArchive@@QAE_NXZ ENDP		; CMarkupArchive::SaveNewFile
EXTRN	__imp_??0?$CStringT@DV?$StrTraitMFC_DLL@DV?$ChTraitsCRT@D@ATL@@@@@ATL@@QAE@ABV01@@Z:NEAR
; Function compile flags: /Odt
; File d:\boxgit\playbox\playbox\dev\prj\playbox\src\util\markup.h
;	COMDAT ?GetDoc@CMarkup@@QBE?AV?$CStringT@DV?$StrTraitMFC_DLL@DV?$ChTraitsCRT@D@ATL@@@@@ATL@@XZ
_TEXT	SEGMENT
_this$ = -8						; size = 4
$T198987 = -4						; size = 4
___$ReturnUdt$ = 8					; size = 4
?GetDoc@CMarkup@@QBE?AV?$CStringT@DV?$StrTraitMFC_DLL@DV?$ChTraitsCRT@D@ATL@@@@@ATL@@XZ PROC NEAR ; CMarkup::GetDoc, COMDAT
; _this$ = ecx

; 36   : 	CString GetDoc() const { return m_csDoc; };

  00000	55		 push	 ebp
  00001	8b ec		 mov	 ebp, esp
  00003	83 ec 08	 sub	 esp, 8
  00006	89 4d f8	 mov	 DWORD PTR _this$[ebp], ecx
  00009	c7 45 fc 00 00
	00 00		 mov	 DWORD PTR $T198987[ebp], 0
  00010	8b 45 f8	 mov	 eax, DWORD PTR _this$[ebp]
  00013	83 c0 04	 add	 eax, 4
  00016	50		 push	 eax
  00017	8b 4d 08	 mov	 ecx, DWORD PTR ___$ReturnUdt$[ebp]
  0001a	ff 15 00 00 00
	00		 call	 DWORD PTR __imp_??0?$CStringT@DV?$StrTraitMFC_DLL@DV?$ChTraitsCRT@D@ATL@@@@@ATL@@QAE@ABV01@@Z
  00020	8b 4d fc	 mov	 ecx, DWORD PTR $T198987[ebp]
  00023	83 c9 01	 or	 ecx, 1
  00026	89 4d fc	 mov	 DWORD PTR $T198987[ebp], ecx
  00029	8b 45 08	 mov	 eax, DWORD PTR ___$ReturnUdt$[ebp]
  0002c	8b e5		 mov	 esp, ebp
  0002e	5d		 pop	 ebp
  0002f	c2 04 00	 ret	 4
?GetDoc@CMarkup@@QBE?AV?$CStringT@DV?$StrTraitMFC_DLL@DV?$ChTraitsCRT@D@ATL@@@@@ATL@@XZ ENDP ; CMarkup::GetDoc
_TEXT	ENDS
PUBLIC	?Open@CMarkupArchive@@QAE_NPBD@Z		; CMarkupArchive::Open
EXTRN	__imp_??0?$CStringT@DV?$StrTraitMFC_DLL@DV?$ChTraitsCRT@D@ATL@@@@@ATL@@QAE@XZ:NEAR
EXTRN	__imp_??4?$CStringT@DV?$StrTraitMFC_DLL@DV?$ChTraitsCRT@D@ATL@@@@@ATL@@QAEAAV01@PBE@Z:NEAR
EXTRN	??_U@YAPAXI@Z:NEAR				; operator new[]
EXTRN	??_V@YAXPAX@Z:NEAR				; operator delete[]
EXTRN	?GetLength@CFile@@UBE_KXZ:NEAR			; CFile::GetLength
EXTRN	?Read@CFile@@UAEIPAXI@Z:NEAR			; CFile::Read
xdata$x	SEGMENT
$T199000 DD	0ffffffffH
	DD	FLAT:$L198995
	DD	00H
	DD	FLAT:$L198996
$T198998 DD	019930520H
	DD	02H
	DD	FLAT:$T199000
	DD	2 DUP(00H)
	DD	2 DUP(00H)
; Function compile flags: /Odt
; File d:\boxgit\playbox\playbox\dev\prj\playbox\src\util\markuparchive.cpp
xdata$x	ENDS
_TEXT	SEGMENT
_this$ = -60						; size = 4
$T198994 = -53						; size = 1
$T198993 = -52						; size = 4
$T198992 = -48						; size = 4
$T198991 = -41						; size = 1
_f$ = -40						; size = 16
_nFileLen$ = -24					; size = 4
_strXMLContent$ = -20					; size = 4
_pBuffer$ = -16						; size = 4
__$EHRec$ = -12						; size = 12
_szFileName$ = 8					; size = 4
?Open@CMarkupArchive@@QAE_NPBD@Z PROC NEAR		; CMarkupArchive::Open
; _this$ = ecx

; 39   : {

  001a0	55		 push	 ebp
  001a1	8b ec		 mov	 ebp, esp
  001a3	6a ff		 push	 -1
  001a5	68 00 00 00 00	 push	 __ehhandler$?Open@CMarkupArchive@@QAE_NPBD@Z
  001aa	64 a1 00 00 00
	00		 mov	 eax, DWORD PTR fs:__except_list
  001b0	50		 push	 eax
  001b1	64 89 25 00 00
	00 00		 mov	 DWORD PTR fs:__except_list, esp
  001b8	83 ec 30	 sub	 esp, 48			; 00000030H
  001bb	89 4d c4	 mov	 DWORD PTR _this$[ebp], ecx

; 40   : 	CFile			f;

  001be	8d 4d d8	 lea	 ecx, DWORD PTR _f$[ebp]
  001c1	e8 00 00 00 00	 call	 ??0CFile@@QAE@XZ	; CFile::CFile
  001c6	c7 45 fc 00 00
	00 00		 mov	 DWORD PTR __$EHRec$[ebp+8], 0

; 41   : 	CString			strXMLContent;

  001cd	8d 4d ec	 lea	 ecx, DWORD PTR _strXMLContent$[ebp]
  001d0	ff 15 00 00 00
	00		 call	 DWORD PTR __imp_??0?$CStringT@DV?$StrTraitMFC_DLL@DV?$ChTraitsCRT@D@ATL@@@@@ATL@@QAE@XZ
  001d6	c6 45 fc 01	 mov	 BYTE PTR __$EHRec$[ebp+8], 1

; 42   : 	int				nFileLen;
; 43   : 	unsigned char * pBuffer;
; 44   : 
; 45   : 	m_sFileName= szFileName;

  001da	8b 45 08	 mov	 eax, DWORD PTR _szFileName$[ebp]
  001dd	50		 push	 eax
  001de	8b 4d c4	 mov	 ecx, DWORD PTR _this$[ebp]
  001e1	83 c1 40	 add	 ecx, 64			; 00000040H
  001e4	ff 15 00 00 00
	00		 call	 DWORD PTR __imp_??4?$CStringT@DV?$StrTraitMFC_DLL@DV?$ChTraitsCRT@D@ATL@@@@@ATL@@QAEAAV01@PBD@Z

; 46   : 
; 47   : 	ASSERT(m_bOpened==false);
; 48   : 
; 49   : 	if(!f.Open(szFileName, CFile::modeRead))

  001ea	6a 00		 push	 0
  001ec	6a 00		 push	 0
  001ee	8b 4d 08	 mov	 ecx, DWORD PTR _szFileName$[ebp]
  001f1	51		 push	 ecx
  001f2	8d 4d d8	 lea	 ecx, DWORD PTR _f$[ebp]
  001f5	e8 00 00 00 00	 call	 ?Open@CFile@@UAEHPBDIPAVCFileException@@@Z ; CFile::Open
  001fa	85 c0		 test	 eax, eax
  001fc	75 28		 jne	 SHORT $L198050

; 50   : 		return false;

  001fe	c6 45 d7 00	 mov	 BYTE PTR $T198991[ebp], 0
  00202	c6 45 fc 00	 mov	 BYTE PTR __$EHRec$[ebp+8], 0
  00206	8d 4d ec	 lea	 ecx, DWORD PTR _strXMLContent$[ebp]
  00209	ff 15 00 00 00
	00		 call	 DWORD PTR __imp_??1?$CStringT@DV?$StrTraitMFC_DLL@DV?$ChTraitsCRT@D@ATL@@@@@ATL@@QAE@XZ
  0020f	c7 45 fc ff ff
	ff ff		 mov	 DWORD PTR __$EHRec$[ebp+8], -1
  00216	8d 4d d8	 lea	 ecx, DWORD PTR _f$[ebp]
  00219	e8 00 00 00 00	 call	 ??1CFile@@UAE@XZ	; CFile::~CFile
  0021e	8a 45 d7	 mov	 al, BYTE PTR $T198991[ebp]
  00221	e9 ad 00 00 00	 jmp	 $L198044
$L198050:

; 51   : 
; 52   : 	nFileLen = (int)(f.GetLength());

  00226	8d 4d d8	 lea	 ecx, DWORD PTR _f$[ebp]
  00229	e8 00 00 00 00	 call	 ?GetLength@CFile@@UBE_KXZ ; CFile::GetLength
  0022e	89 45 e8	 mov	 DWORD PTR _nFileLen$[ebp], eax

; 53   : 	pBuffer = new unsigned char[nFileLen + 2];

  00231	8b 55 e8	 mov	 edx, DWORD PTR _nFileLen$[ebp]
  00234	83 c2 02	 add	 edx, 2
  00237	52		 push	 edx
  00238	e8 00 00 00 00	 call	 ??_U@YAPAXI@Z		; operator new[]
  0023d	83 c4 04	 add	 esp, 4
  00240	89 45 d0	 mov	 DWORD PTR $T198992[ebp], eax
  00243	8b 45 d0	 mov	 eax, DWORD PTR $T198992[ebp]
  00246	89 45 f0	 mov	 DWORD PTR _pBuffer$[ebp], eax

; 54   : 	f.Read(pBuffer, nFileLen);

  00249	8b 4d e8	 mov	 ecx, DWORD PTR _nFileLen$[ebp]
  0024c	51		 push	 ecx
  0024d	8b 55 f0	 mov	 edx, DWORD PTR _pBuffer$[ebp]
  00250	52		 push	 edx
  00251	8d 4d d8	 lea	 ecx, DWORD PTR _f$[ebp]
  00254	e8 00 00 00 00	 call	 ?Read@CFile@@UAEIPAXI@Z	; CFile::Read

; 55   : 	f.Close();

  00259	8d 4d d8	 lea	 ecx, DWORD PTR _f$[ebp]
  0025c	e8 00 00 00 00	 call	 ?Close@CFile@@UAEXXZ	; CFile::Close

; 56   : 
; 57   : 	pBuffer[nFileLen] = '\0';

  00261	8b 45 f0	 mov	 eax, DWORD PTR _pBuffer$[ebp]
  00264	03 45 e8	 add	 eax, DWORD PTR _nFileLen$[ebp]
  00267	c6 00 00	 mov	 BYTE PTR [eax], 0

; 58   : 	pBuffer[nFileLen+1] = '\0'; // in case 2-byte encoded

  0026a	8b 4d f0	 mov	 ecx, DWORD PTR _pBuffer$[ebp]
  0026d	03 4d e8	 add	 ecx, DWORD PTR _nFileLen$[ebp]
  00270	c6 41 01 00	 mov	 BYTE PTR [ecx+1], 0

; 59   : 
; 60   : 	strXMLContent = pBuffer;

  00274	8b 55 f0	 mov	 edx, DWORD PTR _pBuffer$[ebp]
  00277	52		 push	 edx
  00278	8d 4d ec	 lea	 ecx, DWORD PTR _strXMLContent$[ebp]
  0027b	ff 15 00 00 00
	00		 call	 DWORD PTR __imp_??4?$CStringT@DV?$StrTraitMFC_DLL@DV?$ChTraitsCRT@D@ATL@@@@@ATL@@QAEAAV01@PBE@Z

; 61   : 	delete [] pBuffer;

  00281	8b 45 f0	 mov	 eax, DWORD PTR _pBuffer$[ebp]
  00284	89 45 cc	 mov	 DWORD PTR $T198993[ebp], eax
  00287	8b 4d cc	 mov	 ecx, DWORD PTR $T198993[ebp]
  0028a	51		 push	 ecx
  0028b	e8 00 00 00 00	 call	 ??_V@YAXPAX@Z		; operator delete[]
  00290	83 c4 04	 add	 esp, 4

; 62   : 	m_bOpened = SetDoc(strXMLContent);

  00293	8d 4d ec	 lea	 ecx, DWORD PTR _strXMLContent$[ebp]
  00296	ff 15 00 00 00
	00		 call	 DWORD PTR __imp_??B?$CSimpleStringT@D$00@ATL@@QBEPBDXZ
  0029c	50		 push	 eax
  0029d	8b 4d c4	 mov	 ecx, DWORD PTR _this$[ebp]
  002a0	e8 00 00 00 00	 call	 ?SetDoc@CMarkup@@QAE_NPBD@Z ; CMarkup::SetDoc
  002a5	8b 55 c4	 mov	 edx, DWORD PTR _this$[ebp]
  002a8	88 42 3c	 mov	 BYTE PTR [edx+60], al

; 63   : 
; 64   : 	return m_bOpened;

  002ab	8b 45 c4	 mov	 eax, DWORD PTR _this$[ebp]
  002ae	8a 48 3c	 mov	 cl, BYTE PTR [eax+60]
  002b1	88 4d cb	 mov	 BYTE PTR $T198994[ebp], cl
  002b4	c6 45 fc 00	 mov	 BYTE PTR __$EHRec$[ebp+8], 0
  002b8	8d 4d ec	 lea	 ecx, DWORD PTR _strXMLContent$[ebp]
  002bb	ff 15 00 00 00
	00		 call	 DWORD PTR __imp_??1?$CStringT@DV?$StrTraitMFC_DLL@DV?$ChTraitsCRT@D@ATL@@@@@ATL@@QAE@XZ
  002c1	c7 45 fc ff ff
	ff ff		 mov	 DWORD PTR __$EHRec$[ebp+8], -1
  002c8	8d 4d d8	 lea	 ecx, DWORD PTR _f$[ebp]
  002cb	e8 00 00 00 00	 call	 ??1CFile@@UAE@XZ	; CFile::~CFile
  002d0	8a 45 cb	 mov	 al, BYTE PTR $T198994[ebp]
$L198044:

; 65   : }

  002d3	8b 4d f4	 mov	 ecx, DWORD PTR __$EHRec$[ebp]
  002d6	64 89 0d 00 00
	00 00		 mov	 DWORD PTR fs:__except_list, ecx
  002dd	8b e5		 mov	 esp, ebp
  002df	5d		 pop	 ebp
  002e0	c2 04 00	 ret	 4
_TEXT	ENDS
text$x	SEGMENT
$L198995:
  0005d	8d 4d d8	 lea	 ecx, DWORD PTR _f$[ebp]
  00060	e9 00 00 00 00	 jmp	 ??1CFile@@UAE@XZ	; CFile::~CFile
$L198996:
  00065	8d 4d ec	 lea	 ecx, DWORD PTR _strXMLContent$[ebp]
  00068	ff 25 00 00 00
	00		 jmp	 DWORD PTR __imp_??1?$CStringT@DV?$StrTraitMFC_DLL@DV?$ChTraitsCRT@D@ATL@@@@@ATL@@QAE@XZ
__ehhandler$?Open@CMarkupArchive@@QAE_NPBD@Z:
  0006e	b8 00 00 00 00	 mov	 eax, OFFSET FLAT:$T198998
  00073	e9 00 00 00 00	 jmp	 ___CxxFrameHandler
text$x	ENDS
?Open@CMarkupArchive@@QAE_NPBD@Z ENDP			; CMarkupArchive::Open
PUBLIC	?Save@CMarkupArchive@@QAE_NXZ			; CMarkupArchive::Save
PUBLIC	??HATL@@YA?AV?$CStringT@DV?$StrTraitMFC_DLL@DV?$ChTraitsCRT@D@ATL@@@@@0@PBDABV10@@Z ; ATL::operator+
EXTRN	__imp__CopyFileA@12:NEAR
EXTRN	__imp_?LogUserActMsg@@YAXABV?$basic_string@DU?$char_traits@D@std@@V?$allocator@D@2@@std@@0@Z:NEAR
EXTRN	__imp_??0?$basic_string@DU?$char_traits@D@std@@V?$allocator@D@2@@std@@QAE@PBD@Z:NEAR
EXTRN	__imp_??1?$basic_string@DU?$char_traits@D@std@@V?$allocator@D@2@@std@@QAE@XZ:NEAR
xdata$x	SEGMENT
$T199032 DD	0ffffffffH
	DD	FLAT:$L199015
	DD	00H
	DD	FLAT:$L199016
	DD	01H
	DD	FLAT:$L199017
	DD	02H
	DD	FLAT:$L199018
	DD	03H
	DD	FLAT:$L199019
	DD	04H
	DD	FLAT:$L199020
	DD	05H
	DD	FLAT:$L199021
	DD	06H
	DD	FLAT:$L199022
	DD	04H
	DD	FLAT:$L199023
	DD	08H
	DD	FLAT:$L199024
	DD	09H
	DD	FLAT:$L199025
	DD	04H
	DD	FLAT:$L199026
	DD	0bH
	DD	FLAT:$L199027
	DD	0cH
	DD	FLAT:$L199028
$T199030 DD	019930520H
	DD	0eH
	DD	FLAT:$T199032
	DD	2 DUP(00H)
	DD	2 DUP(00H)
; Function compile flags: /Odt
xdata$x	ENDS
_TEXT	SEGMENT
tv254 = -296						; size = 4
tv71 = -292						; size = 4
tv252 = -288						; size = 4
tv217 = -284						; size = 4
tv244 = -280						; size = 4
tv75 = -276						; size = 4
tv242 = -272						; size = 4
tv188 = -268						; size = 4
tv234 = -264						; size = 4
tv90 = -260						; size = 4
tv232 = -256						; size = 4
tv161 = -252						; size = 4
_this$ = -248						; size = 4
$T199014 = -241						; size = 1
$T199013 = -240						; size = 28
$T199012 = -212						; size = 4
$T199011 = -208						; size = 28
$T199010 = -177						; size = 1
$T199009 = -176						; size = 28
$T199008 = -148						; size = 4
$T199007 = -144						; size = 28
$T199006 = -113						; size = 1
$T199005 = -112						; size = 28
$T199004 = -84						; size = 4
$T199003 = -80						; size = 28
$T199002 = -49						; size = 1
_len$198071 = -48					; size = 4
_doc$ = -44						; size = 4
_m_strRealFileName$ = -40				; size = 4
_f$ = -36						; size = 16
_strXMLContent$ = -20					; size = 4
_szFileName$ = -16					; size = 4
__$EHRec$ = -12						; size = 12
?Save@CMarkupArchive@@QAE_NXZ PROC NEAR			; CMarkupArchive::Save
; _this$ = ecx

; 68   : {

  002f0	55		 push	 ebp
  002f1	8b ec		 mov	 ebp, esp
  002f3	6a ff		 push	 -1
  002f5	68 00 00 00 00	 push	 __ehhandler$?Save@CMarkupArchive@@QAE_NXZ
  002fa	64 a1 00 00 00
	00		 mov	 eax, DWORD PTR fs:__except_list
  00300	50		 push	 eax
  00301	64 89 25 00 00
	00 00		 mov	 DWORD PTR fs:__except_list, esp
  00308	81 ec 1c 01 00
	00		 sub	 esp, 284		; 0000011cH
  0030e	89 8d 08 ff ff
	ff		 mov	 DWORD PTR _this$[ebp], ecx

; 69   : 	CFile			f;

  00314	8d 4d dc	 lea	 ecx, DWORD PTR _f$[ebp]
  00317	e8 00 00 00 00	 call	 ??0CFile@@QAE@XZ	; CFile::CFile
  0031c	c7 45 fc 00 00
	00 00		 mov	 DWORD PTR __$EHRec$[ebp+8], 0

; 70   : 	CString			strXMLContent;

  00323	8d 4d ec	 lea	 ecx, DWORD PTR _strXMLContent$[ebp]
  00326	ff 15 00 00 00
	00		 call	 DWORD PTR __imp_??0?$CStringT@DV?$StrTraitMFC_DLL@DV?$ChTraitsCRT@D@ATL@@@@@ATL@@QAE@XZ
  0032c	c6 45 fc 01	 mov	 BYTE PTR __$EHRec$[ebp+8], 1

; 71   : 	CString			m_strRealFileName  = m_sFileName;

  00330	8b 85 08 ff ff
	ff		 mov	 eax, DWORD PTR _this$[ebp]
  00336	83 c0 40	 add	 eax, 64			; 00000040H
  00339	50		 push	 eax
  0033a	8d 4d d8	 lea	 ecx, DWORD PTR _m_strRealFileName$[ebp]
  0033d	ff 15 00 00 00
	00		 call	 DWORD PTR __imp_??0?$CStringT@DV?$StrTraitMFC_DLL@DV?$ChTraitsCRT@D@ATL@@@@@ATL@@QAE@ABV01@@Z
  00343	c6 45 fc 02	 mov	 BYTE PTR __$EHRec$[ebp+8], 2

; 72   : 	CString			szFileName = m_sFileName + ".temp";

  00347	68 00 00 00 00	 push	 OFFSET FLAT:$SG198065
  0034c	8b 8d 08 ff ff
	ff		 mov	 ecx, DWORD PTR _this$[ebp]
  00352	83 c1 40	 add	 ecx, 64			; 00000040H
  00355	51		 push	 ecx
  00356	8d 55 f0	 lea	 edx, DWORD PTR _szFileName$[ebp]
  00359	52		 push	 edx
  0035a	e8 00 00 00 00	 call	 ??HATL@@YA?AV?$CStringT@DV?$StrTraitMFC_DLL@DV?$ChTraitsCRT@D@ATL@@@@@0@ABV10@PBD@Z ; ATL::operator+
  0035f	83 c4 0c	 add	 esp, 12			; 0000000cH
  00362	c6 45 fc 03	 mov	 BYTE PTR __$EHRec$[ebp+8], 3

; 73   : 
; 74   : 	if(!f.Open(szFileName, CFile::modeCreate| CFile::modeWrite|CFile::modeRead))

  00366	6a 00		 push	 0
  00368	68 01 10 00 00	 push	 4097			; 00001001H
  0036d	8d 4d f0	 lea	 ecx, DWORD PTR _szFileName$[ebp]
  00370	ff 15 00 00 00
	00		 call	 DWORD PTR __imp_??B?$CSimpleStringT@D$00@ATL@@QBEPBDXZ
  00376	50		 push	 eax
  00377	8d 4d dc	 lea	 ecx, DWORD PTR _f$[ebp]
  0037a	e8 00 00 00 00	 call	 ?Open@CFile@@UAEHPBDIPAVCFileException@@@Z ; CFile::Open
  0037f	85 c0		 test	 eax, eax
  00381	75 42		 jne	 SHORT $L198066

; 75   : 		return false;

  00383	c6 45 cf 00	 mov	 BYTE PTR $T199002[ebp], 0
  00387	c6 45 fc 02	 mov	 BYTE PTR __$EHRec$[ebp+8], 2
  0038b	8d 4d f0	 lea	 ecx, DWORD PTR _szFileName$[ebp]
  0038e	ff 15 00 00 00
	00		 call	 DWORD PTR __imp_??1?$CStringT@DV?$StrTraitMFC_DLL@DV?$ChTraitsCRT@D@ATL@@@@@ATL@@QAE@XZ
  00394	c6 45 fc 01	 mov	 BYTE PTR __$EHRec$[ebp+8], 1
  00398	8d 4d d8	 lea	 ecx, DWORD PTR _m_strRealFileName$[ebp]
  0039b	ff 15 00 00 00
	00		 call	 DWORD PTR __imp_??1?$CStringT@DV?$StrTraitMFC_DLL@DV?$ChTraitsCRT@D@ATL@@@@@ATL@@QAE@XZ
  003a1	c6 45 fc 00	 mov	 BYTE PTR __$EHRec$[ebp+8], 0
  003a5	8d 4d ec	 lea	 ecx, DWORD PTR _strXMLContent$[ebp]
  003a8	ff 15 00 00 00
	00		 call	 DWORD PTR __imp_??1?$CStringT@DV?$StrTraitMFC_DLL@DV?$ChTraitsCRT@D@ATL@@@@@ATL@@QAE@XZ
  003ae	c7 45 fc ff ff
	ff ff		 mov	 DWORD PTR __$EHRec$[ebp+8], -1
  003b5	8d 4d dc	 lea	 ecx, DWORD PTR _f$[ebp]
  003b8	e8 00 00 00 00	 call	 ??1CFile@@UAE@XZ	; CFile::~CFile
  003bd	8a 45 cf	 mov	 al, BYTE PTR $T199002[ebp]
  003c0	e9 d6 03 00 00	 jmp	 $L198059
$L198066:

; 76   : 	CString doc = GetDoc();

  003c5	8d 45 d4	 lea	 eax, DWORD PTR _doc$[ebp]
  003c8	50		 push	 eax
  003c9	8b 8d 08 ff ff
	ff		 mov	 ecx, DWORD PTR _this$[ebp]
  003cf	e8 00 00 00 00	 call	 ?GetDoc@CMarkup@@QBE?AV?$CStringT@DV?$StrTraitMFC_DLL@DV?$ChTraitsCRT@D@ATL@@@@@ATL@@XZ ; CMarkup::GetDoc
  003d4	c6 45 fc 04	 mov	 BYTE PTR __$EHRec$[ebp+8], 4

; 77   : 	f.Write(doc, doc.GetLength());

  003d8	8d 4d d4	 lea	 ecx, DWORD PTR _doc$[ebp]
  003db	ff 15 00 00 00
	00		 call	 DWORD PTR __imp_?GetLength@?$CSimpleStringT@D$00@ATL@@QBEHXZ
  003e1	50		 push	 eax
  003e2	8d 4d d4	 lea	 ecx, DWORD PTR _doc$[ebp]
  003e5	ff 15 00 00 00
	00		 call	 DWORD PTR __imp_??B?$CSimpleStringT@D$00@ATL@@QBEPBDXZ
  003eb	50		 push	 eax
  003ec	8d 4d dc	 lea	 ecx, DWORD PTR _f$[ebp]
  003ef	e8 00 00 00 00	 call	 ?Write@CFile@@UAEXPBXI@Z ; CFile::Write

; 78   : 	f.Close();

  003f4	8d 4d dc	 lea	 ecx, DWORD PTR _f$[ebp]
  003f7	e8 00 00 00 00	 call	 ?Close@CFile@@UAEXXZ	; CFile::Close

; 79   : 
; 80   : 	// panes.xml.temp, panes.xml, panes.xml.temp panes.xml
; 81   : 	if(f.Open(szFileName, CFile::modeRead))

  003fc	6a 00		 push	 0
  003fe	6a 00		 push	 0
  00400	8d 4d f0	 lea	 ecx, DWORD PTR _szFileName$[ebp]
  00403	ff 15 00 00 00
	00		 call	 DWORD PTR __imp_??B?$CSimpleStringT@D$00@ATL@@QBEPBDXZ
  00409	50		 push	 eax
  0040a	8d 4d dc	 lea	 ecx, DWORD PTR _f$[ebp]
  0040d	e8 00 00 00 00	 call	 ?Open@CFile@@UAEHPBDIPAVCFileException@@@Z ; CFile::Open
  00412	85 c0		 test	 eax, eax
  00414	0f 84 31 03 00
	00		 je	 $L198070

; 82   : 	{
; 83   : 		int len = f.GetLength();

  0041a	8d 4d dc	 lea	 ecx, DWORD PTR _f$[ebp]
  0041d	e8 00 00 00 00	 call	 ?GetLength@CFile@@UBE_KXZ ; CFile::GetLength
  00422	89 45 d0	 mov	 DWORD PTR _len$198071[ebp], eax

; 84   : 		f.Close();

  00425	8d 4d dc	 lea	 ecx, DWORD PTR _f$[ebp]
  00428	e8 00 00 00 00	 call	 ?Close@CFile@@UAEXXZ	; CFile::Close

; 85   : 
; 86   : 		if(len == 0)

  0042d	83 7d d0 00	 cmp	 DWORD PTR _len$198071[ebp], 0
  00431	0f 85 f3 00 00
	00		 jne	 $L198072

; 87   : 		{
; 88   : 			LogUserActMsg("SAVEPANEL", string("panel.xml.temp is 0 byte:" + szFileName));

  00437	68 00 00 00 00	 push	 OFFSET FLAT:$SG198077
  0043c	8d 4d 90	 lea	 ecx, DWORD PTR $T199005[ebp]
  0043f	ff 15 00 00 00
	00		 call	 DWORD PTR __imp_??0?$basic_string@DU?$char_traits@D@std@@V?$allocator@D@2@@std@@QAE@PBD@Z
  00445	c6 45 fc 05	 mov	 BYTE PTR __$EHRec$[ebp+8], 5
  00449	8d 4d f0	 lea	 ecx, DWORD PTR _szFileName$[ebp]
  0044c	51		 push	 ecx
  0044d	68 00 00 00 00	 push	 OFFSET FLAT:$SG198076
  00452	8d 55 ac	 lea	 edx, DWORD PTR $T199004[ebp]
  00455	52		 push	 edx
  00456	e8 00 00 00 00	 call	 ??HATL@@YA?AV?$CStringT@DV?$StrTraitMFC_DLL@DV?$ChTraitsCRT@D@ATL@@@@@0@PBDABV10@@Z ; ATL::operator+
  0045b	83 c4 0c	 add	 esp, 12			; 0000000cH
  0045e	89 85 04 ff ff
	ff		 mov	 DWORD PTR tv161[ebp], eax
  00464	8b 85 04 ff ff
	ff		 mov	 eax, DWORD PTR tv161[ebp]
  0046a	89 85 00 ff ff
	ff		 mov	 DWORD PTR tv232[ebp], eax
  00470	c6 45 fc 06	 mov	 BYTE PTR __$EHRec$[ebp+8], 6
  00474	8b 8d 00 ff ff
	ff		 mov	 ecx, DWORD PTR tv232[ebp]
  0047a	ff 15 00 00 00
	00		 call	 DWORD PTR __imp_??B?$CSimpleStringT@D$00@ATL@@QBEPBDXZ
  00480	50		 push	 eax
  00481	8d 4d b0	 lea	 ecx, DWORD PTR $T199003[ebp]
  00484	ff 15 00 00 00
	00		 call	 DWORD PTR __imp_??0?$basic_string@DU?$char_traits@D@std@@V?$allocator@D@2@@std@@QAE@PBD@Z
  0048a	89 85 fc fe ff
	ff		 mov	 DWORD PTR tv90[ebp], eax
  00490	8b 8d fc fe ff
	ff		 mov	 ecx, DWORD PTR tv90[ebp]
  00496	89 8d f8 fe ff
	ff		 mov	 DWORD PTR tv234[ebp], ecx
  0049c	c6 45 fc 07	 mov	 BYTE PTR __$EHRec$[ebp+8], 7
  004a0	8b 95 f8 fe ff
	ff		 mov	 edx, DWORD PTR tv234[ebp]
  004a6	52		 push	 edx
  004a7	8d 45 90	 lea	 eax, DWORD PTR $T199005[ebp]
  004aa	50		 push	 eax
  004ab	ff 15 00 00 00
	00		 call	 DWORD PTR __imp_?LogUserActMsg@@YAXABV?$basic_string@DU?$char_traits@D@std@@V?$allocator@D@2@@std@@0@Z
  004b1	83 c4 08	 add	 esp, 8
  004b4	c6 45 fc 06	 mov	 BYTE PTR __$EHRec$[ebp+8], 6
  004b8	8d 4d b0	 lea	 ecx, DWORD PTR $T199003[ebp]
  004bb	ff 15 00 00 00
	00		 call	 DWORD PTR __imp_??1?$basic_string@DU?$char_traits@D@std@@V?$allocator@D@2@@std@@QAE@XZ
  004c1	c6 45 fc 05	 mov	 BYTE PTR __$EHRec$[ebp+8], 5
  004c5	8d 4d ac	 lea	 ecx, DWORD PTR $T199004[ebp]
  004c8	ff 15 00 00 00
	00		 call	 DWORD PTR __imp_??1?$CStringT@DV?$StrTraitMFC_DLL@DV?$ChTraitsCRT@D@ATL@@@@@ATL@@QAE@XZ
  004ce	c6 45 fc 04	 mov	 BYTE PTR __$EHRec$[ebp+8], 4
  004d2	8d 4d 90	 lea	 ecx, DWORD PTR $T199005[ebp]
  004d5	ff 15 00 00 00
	00		 call	 DWORD PTR __imp_??1?$basic_string@DU?$char_traits@D@std@@V?$allocator@D@2@@std@@QAE@XZ

; 89   : 			return false;

  004db	c6 45 8f 00	 mov	 BYTE PTR $T199006[ebp], 0
  004df	c6 45 fc 03	 mov	 BYTE PTR __$EHRec$[ebp+8], 3
  004e3	8d 4d d4	 lea	 ecx, DWORD PTR _doc$[ebp]
  004e6	ff 15 00 00 00
	00		 call	 DWORD PTR __imp_??1?$CStringT@DV?$StrTraitMFC_DLL@DV?$ChTraitsCRT@D@ATL@@@@@ATL@@QAE@XZ
  004ec	c6 45 fc 02	 mov	 BYTE PTR __$EHRec$[ebp+8], 2
  004f0	8d 4d f0	 lea	 ecx, DWORD PTR _szFileName$[ebp]
  004f3	ff 15 00 00 00
	00		 call	 DWORD PTR __imp_??1?$CStringT@DV?$StrTraitMFC_DLL@DV?$ChTraitsCRT@D@ATL@@@@@ATL@@QAE@XZ
  004f9	c6 45 fc 01	 mov	 BYTE PTR __$EHRec$[ebp+8], 1
  004fd	8d 4d d8	 lea	 ecx, DWORD PTR _m_strRealFileName$[ebp]
  00500	ff 15 00 00 00
	00		 call	 DWORD PTR __imp_??1?$CStringT@DV?$StrTraitMFC_DLL@DV?$ChTraitsCRT@D@ATL@@@@@ATL@@QAE@XZ
  00506	c6 45 fc 00	 mov	 BYTE PTR __$EHRec$[ebp+8], 0
  0050a	8d 4d ec	 lea	 ecx, DWORD PTR _strXMLContent$[ebp]
  0050d	ff 15 00 00 00
	00		 call	 DWORD PTR __imp_??1?$CStringT@DV?$StrTraitMFC_DLL@DV?$ChTraitsCRT@D@ATL@@@@@ATL@@QAE@XZ
  00513	c7 45 fc ff ff
	ff ff		 mov	 DWORD PTR __$EHRec$[ebp+8], -1
  0051a	8d 4d dc	 lea	 ecx, DWORD PTR _f$[ebp]
  0051d	e8 00 00 00 00	 call	 ??1CFile@@UAE@XZ	; CFile::~CFile
  00522	8a 45 8f	 mov	 al, BYTE PTR $T199006[ebp]
  00525	e9 71 02 00 00	 jmp	 $L198059
$L198072:

; 90   : 		}
; 91   : 		Close();

  0052a	8b 8d 08 ff ff
	ff		 mov	 ecx, DWORD PTR _this$[ebp]
  00530	e8 00 00 00 00	 call	 ?Close@CMarkupArchive@@QAE_NXZ ; CMarkupArchive::Close

; 92   : 		if(!Open(szFileName))

  00535	8d 4d f0	 lea	 ecx, DWORD PTR _szFileName$[ebp]
  00538	ff 15 00 00 00
	00		 call	 DWORD PTR __imp_??B?$CSimpleStringT@D$00@ATL@@QBEPBDXZ
  0053e	50		 push	 eax
  0053f	8b 8d 08 ff ff
	ff		 mov	 ecx, DWORD PTR _this$[ebp]
  00545	e8 00 00 00 00	 call	 ?Open@CMarkupArchive@@QAE_NPBD@Z ; CMarkupArchive::Open
  0054a	0f b6 c8	 movzx	 ecx, al
  0054d	85 c9		 test	 ecx, ecx
  0054f	0f 85 0e 01 00
	00		 jne	 $L198079

; 93   : 		{
; 94   : 			LogUserActMsg("SAVEPANEL", string("Open panel.xml.temp file failed:" + szFileName));

  00555	68 00 00 00 00	 push	 OFFSET FLAT:$SG198084
  0055a	8d 8d 50 ff ff
	ff		 lea	 ecx, DWORD PTR $T199009[ebp]
  00560	ff 15 00 00 00
	00		 call	 DWORD PTR __imp_??0?$basic_string@DU?$char_traits@D@std@@V?$allocator@D@2@@std@@QAE@PBD@Z
  00566	c6 45 fc 08	 mov	 BYTE PTR __$EHRec$[ebp+8], 8
  0056a	8d 55 f0	 lea	 edx, DWORD PTR _szFileName$[ebp]
  0056d	52		 push	 edx
  0056e	68 00 00 00 00	 push	 OFFSET FLAT:$SG198083
  00573	8d 85 6c ff ff
	ff		 lea	 eax, DWORD PTR $T199008[ebp]
  00579	50		 push	 eax
  0057a	e8 00 00 00 00	 call	 ??HATL@@YA?AV?$CStringT@DV?$StrTraitMFC_DLL@DV?$ChTraitsCRT@D@ATL@@@@@0@PBDABV10@@Z ; ATL::operator+
  0057f	83 c4 0c	 add	 esp, 12			; 0000000cH
  00582	89 85 f4 fe ff
	ff		 mov	 DWORD PTR tv188[ebp], eax
  00588	8b 8d f4 fe ff
	ff		 mov	 ecx, DWORD PTR tv188[ebp]
  0058e	89 8d f0 fe ff
	ff		 mov	 DWORD PTR tv242[ebp], ecx
  00594	c6 45 fc 09	 mov	 BYTE PTR __$EHRec$[ebp+8], 9
  00598	8b 8d f0 fe ff
	ff		 mov	 ecx, DWORD PTR tv242[ebp]
  0059e	ff 15 00 00 00
	00		 call	 DWORD PTR __imp_??B?$CSimpleStringT@D$00@ATL@@QBEPBDXZ
  005a4	50		 push	 eax
  005a5	8d 8d 70 ff ff
	ff		 lea	 ecx, DWORD PTR $T199007[ebp]
  005ab	ff 15 00 00 00
	00		 call	 DWORD PTR __imp_??0?$basic_string@DU?$char_traits@D@std@@V?$allocator@D@2@@std@@QAE@PBD@Z
  005b1	89 85 ec fe ff
	ff		 mov	 DWORD PTR tv75[ebp], eax
  005b7	8b 95 ec fe ff
	ff		 mov	 edx, DWORD PTR tv75[ebp]
  005bd	89 95 e8 fe ff
	ff		 mov	 DWORD PTR tv244[ebp], edx
  005c3	c6 45 fc 0a	 mov	 BYTE PTR __$EHRec$[ebp+8], 10 ; 0000000aH
  005c7	8b 85 e8 fe ff
	ff		 mov	 eax, DWORD PTR tv244[ebp]
  005cd	50		 push	 eax
  005ce	8d 8d 50 ff ff
	ff		 lea	 ecx, DWORD PTR $T199009[ebp]
  005d4	51		 push	 ecx
  005d5	ff 15 00 00 00
	00		 call	 DWORD PTR __imp_?LogUserActMsg@@YAXABV?$basic_string@DU?$char_traits@D@std@@V?$allocator@D@2@@std@@0@Z
  005db	83 c4 08	 add	 esp, 8
  005de	c6 45 fc 09	 mov	 BYTE PTR __$EHRec$[ebp+8], 9
  005e2	8d 8d 70 ff ff
	ff		 lea	 ecx, DWORD PTR $T199007[ebp]
  005e8	ff 15 00 00 00
	00		 call	 DWORD PTR __imp_??1?$basic_string@DU?$char_traits@D@std@@V?$allocator@D@2@@std@@QAE@XZ
  005ee	c6 45 fc 08	 mov	 BYTE PTR __$EHRec$[ebp+8], 8
  005f2	8d 8d 6c ff ff
	ff		 lea	 ecx, DWORD PTR $T199008[ebp]
  005f8	ff 15 00 00 00
	00		 call	 DWORD PTR __imp_??1?$CStringT@DV?$StrTraitMFC_DLL@DV?$ChTraitsCRT@D@ATL@@@@@ATL@@QAE@XZ
  005fe	c6 45 fc 04	 mov	 BYTE PTR __$EHRec$[ebp+8], 4
  00602	8d 8d 50 ff ff
	ff		 lea	 ecx, DWORD PTR $T199009[ebp]
  00608	ff 15 00 00 00
	00		 call	 DWORD PTR __imp_??1?$basic_string@DU?$char_traits@D@std@@V?$allocator@D@2@@std@@QAE@XZ

; 95   : 			return false;

  0060e	c6 85 4f ff ff
	ff 00		 mov	 BYTE PTR $T199010[ebp], 0
  00615	c6 45 fc 03	 mov	 BYTE PTR __$EHRec$[ebp+8], 3
  00619	8d 4d d4	 lea	 ecx, DWORD PTR _doc$[ebp]
  0061c	ff 15 00 00 00
	00		 call	 DWORD PTR __imp_??1?$CStringT@DV?$StrTraitMFC_DLL@DV?$ChTraitsCRT@D@ATL@@@@@ATL@@QAE@XZ
  00622	c6 45 fc 02	 mov	 BYTE PTR __$EHRec$[ebp+8], 2
  00626	8d 4d f0	 lea	 ecx, DWORD PTR _szFileName$[ebp]
  00629	ff 15 00 00 00
	00		 call	 DWORD PTR __imp_??1?$CStringT@DV?$StrTraitMFC_DLL@DV?$ChTraitsCRT@D@ATL@@@@@ATL@@QAE@XZ
  0062f	c6 45 fc 01	 mov	 BYTE PTR __$EHRec$[ebp+8], 1
  00633	8d 4d d8	 lea	 ecx, DWORD PTR _m_strRealFileName$[ebp]
  00636	ff 15 00 00 00
	00		 call	 DWORD PTR __imp_??1?$CStringT@DV?$StrTraitMFC_DLL@DV?$ChTraitsCRT@D@ATL@@@@@ATL@@QAE@XZ
  0063c	c6 45 fc 00	 mov	 BYTE PTR __$EHRec$[ebp+8], 0
  00640	8d 4d ec	 lea	 ecx, DWORD PTR _strXMLContent$[ebp]
  00643	ff 15 00 00 00
	00		 call	 DWORD PTR __imp_??1?$CStringT@DV?$StrTraitMFC_DLL@DV?$ChTraitsCRT@D@ATL@@@@@ATL@@QAE@XZ
  00649	c7 45 fc ff ff
	ff ff		 mov	 DWORD PTR __$EHRec$[ebp+8], -1
  00650	8d 4d dc	 lea	 ecx, DWORD PTR _f$[ebp]
  00653	e8 00 00 00 00	 call	 ??1CFile@@UAE@XZ	; CFile::~CFile
  00658	8a 85 4f ff ff
	ff		 mov	 al, BYTE PTR $T199010[ebp]
  0065e	e9 38 01 00 00	 jmp	 $L198059
$L198079:

; 96   : 		}
; 97   : 		else
; 98   : 			Close();

  00663	8b 8d 08 ff ff
	ff		 mov	 ecx, DWORD PTR _this$[ebp]
  00669	e8 00 00 00 00	 call	 ?Close@CMarkupArchive@@QAE_NXZ ; CMarkupArchive::Close

; 99   : 		//CFile::Remove(m_sFileName);
; 100  : 		//CFile::Rename(szFileName, m_sFileName);
; 101  : 		if(!CopyFile(szFileName, m_strRealFileName, FALSE))

  0066e	6a 00		 push	 0
  00670	8d 4d d8	 lea	 ecx, DWORD PTR _m_strRealFileName$[ebp]
  00673	ff 15 00 00 00
	00		 call	 DWORD PTR __imp_??B?$CSimpleStringT@D$00@ATL@@QBEPBDXZ
  00679	50		 push	 eax
  0067a	8d 4d f0	 lea	 ecx, DWORD PTR _szFileName$[ebp]
  0067d	ff 15 00 00 00
	00		 call	 DWORD PTR __imp_??B?$CSimpleStringT@D$00@ATL@@QBEPBDXZ
  00683	50		 push	 eax
  00684	ff 15 00 00 00
	00		 call	 DWORD PTR __imp__CopyFileA@12
  0068a	85 c0		 test	 eax, eax
  0068c	0f 85 b9 00 00
	00		 jne	 $L198070

; 102  : 		{
; 103  : 			LogUserActMsg("SAVEPANEL", string("Copy panel.xml.temp to panel.xml failed:" + szFileName));

  00692	68 00 00 00 00	 push	 OFFSET FLAT:$SG198092
  00697	8d 8d 10 ff ff
	ff		 lea	 ecx, DWORD PTR $T199013[ebp]
  0069d	ff 15 00 00 00
	00		 call	 DWORD PTR __imp_??0?$basic_string@DU?$char_traits@D@std@@V?$allocator@D@2@@std@@QAE@PBD@Z
  006a3	c6 45 fc 0b	 mov	 BYTE PTR __$EHRec$[ebp+8], 11 ; 0000000bH
  006a7	8d 55 f0	 lea	 edx, DWORD PTR _szFileName$[ebp]
  006aa	52		 push	 edx
  006ab	68 00 00 00 00	 push	 OFFSET FLAT:$SG198091
  006b0	8d 85 2c ff ff
	ff		 lea	 eax, DWORD PTR $T199012[ebp]
  006b6	50		 push	 eax
  006b7	e8 00 00 00 00	 call	 ??HATL@@YA?AV?$CStringT@DV?$StrTraitMFC_DLL@DV?$ChTraitsCRT@D@ATL@@@@@0@PBDABV10@@Z ; ATL::operator+
  006bc	83 c4 0c	 add	 esp, 12			; 0000000cH
  006bf	89 85 e4 fe ff
	ff		 mov	 DWORD PTR tv217[ebp], eax
  006c5	8b 8d e4 fe ff
	ff		 mov	 ecx, DWORD PTR tv217[ebp]
  006cb	89 8d e0 fe ff
	ff		 mov	 DWORD PTR tv252[ebp], ecx
  006d1	c6 45 fc 0c	 mov	 BYTE PTR __$EHRec$[ebp+8], 12 ; 0000000cH
  006d5	8b 8d e0 fe ff
	ff		 mov	 ecx, DWORD PTR tv252[ebp]
  006db	ff 15 00 00 00
	00		 call	 DWORD PTR __imp_??B?$CSimpleStringT@D$00@ATL@@QBEPBDXZ
  006e1	50		 push	 eax
  006e2	8d 8d 30 ff ff
	ff		 lea	 ecx, DWORD PTR $T199011[ebp]
  006e8	ff 15 00 00 00
	00		 call	 DWORD PTR __imp_??0?$basic_string@DU?$char_traits@D@std@@V?$allocator@D@2@@std@@QAE@PBD@Z
  006ee	89 85 dc fe ff
	ff		 mov	 DWORD PTR tv71[ebp], eax
  006f4	8b 95 dc fe ff
	ff		 mov	 edx, DWORD PTR tv71[ebp]
  006fa	89 95 d8 fe ff
	ff		 mov	 DWORD PTR tv254[ebp], edx
  00700	c6 45 fc 0d	 mov	 BYTE PTR __$EHRec$[ebp+8], 13 ; 0000000dH
  00704	8b 85 d8 fe ff
	ff		 mov	 eax, DWORD PTR tv254[ebp]
  0070a	50		 push	 eax
  0070b	8d 8d 10 ff ff
	ff		 lea	 ecx, DWORD PTR $T199013[ebp]
  00711	51		 push	 ecx
  00712	ff 15 00 00 00
	00		 call	 DWORD PTR __imp_?LogUserActMsg@@YAXABV?$basic_string@DU?$char_traits@D@std@@V?$allocator@D@2@@std@@0@Z
  00718	83 c4 08	 add	 esp, 8
  0071b	c6 45 fc 0c	 mov	 BYTE PTR __$EHRec$[ebp+8], 12 ; 0000000cH
  0071f	8d 8d 30 ff ff
	ff		 lea	 ecx, DWORD PTR $T199011[ebp]
  00725	ff 15 00 00 00
	00		 call	 DWORD PTR __imp_??1?$basic_string@DU?$char_traits@D@std@@V?$allocator@D@2@@std@@QAE@XZ
  0072b	c6 45 fc 0b	 mov	 BYTE PTR __$EHRec$[ebp+8], 11 ; 0000000bH
  0072f	8d 8d 2c ff ff
	ff		 lea	 ecx, DWORD PTR $T199012[ebp]
  00735	ff 15 00 00 00
	00		 call	 DWORD PTR __imp_??1?$CStringT@DV?$StrTraitMFC_DLL@DV?$ChTraitsCRT@D@ATL@@@@@ATL@@QAE@XZ
  0073b	c6 45 fc 04	 mov	 BYTE PTR __$EHRec$[ebp+8], 4
  0073f	8d 8d 10 ff ff
	ff		 lea	 ecx, DWORD PTR $T199013[ebp]
  00745	ff 15 00 00 00
	00		 call	 DWORD PTR __imp_??1?$basic_string@DU?$char_traits@D@std@@V?$allocator@D@2@@std@@QAE@XZ
$L198070:

; 104  : 		}
; 105  : 	}
; 106  : 	return true;

  0074b	c6 85 0f ff ff
	ff 01		 mov	 BYTE PTR $T199014[ebp], 1
  00752	c6 45 fc 03	 mov	 BYTE PTR __$EHRec$[ebp+8], 3
  00756	8d 4d d4	 lea	 ecx, DWORD PTR _doc$[ebp]
  00759	ff 15 00 00 00
	00		 call	 DWORD PTR __imp_??1?$CStringT@DV?$StrTraitMFC_DLL@DV?$ChTraitsCRT@D@ATL@@@@@ATL@@QAE@XZ
  0075f	c6 45 fc 02	 mov	 BYTE PTR __$EHRec$[ebp+8], 2
  00763	8d 4d f0	 lea	 ecx, DWORD PTR _szFileName$[ebp]
  00766	ff 15 00 00 00
	00		 call	 DWORD PTR __imp_??1?$CStringT@DV?$StrTraitMFC_DLL@DV?$ChTraitsCRT@D@ATL@@@@@ATL@@QAE@XZ
  0076c	c6 45 fc 01	 mov	 BYTE PTR __$EHRec$[ebp+8], 1
  00770	8d 4d d8	 lea	 ecx, DWORD PTR _m_strRealFileName$[ebp]
  00773	ff 15 00 00 00
	00		 call	 DWORD PTR __imp_??1?$CStringT@DV?$StrTraitMFC_DLL@DV?$ChTraitsCRT@D@ATL@@@@@ATL@@QAE@XZ
  00779	c6 45 fc 00	 mov	 BYTE PTR __$EHRec$[ebp+8], 0
  0077d	8d 4d ec	 lea	 ecx, DWORD PTR _strXMLContent$[ebp]
  00780	ff 15 00 00 00
	00		 call	 DWORD PTR __imp_??1?$CStringT@DV?$StrTraitMFC_DLL@DV?$ChTraitsCRT@D@ATL@@@@@ATL@@QAE@XZ
  00786	c7 45 fc ff ff
	ff ff		 mov	 DWORD PTR __$EHRec$[ebp+8], -1
  0078d	8d 4d dc	 lea	 ecx, DWORD PTR _f$[ebp]
  00790	e8 00 00 00 00	 call	 ??1CFile@@UAE@XZ	; CFile::~CFile
  00795	8a 85 0f ff ff
	ff		 mov	 al, BYTE PTR $T199014[ebp]
$L198059:

; 107  : }

  0079b	8b 4d f4	 mov	 ecx, DWORD PTR __$EHRec$[ebp]
  0079e	64 89 0d 00 00
	00 00		 mov	 DWORD PTR fs:__except_list, ecx
  007a5	8b e5		 mov	 esp, ebp
  007a7	5d		 pop	 ebp
  007a8	c3		 ret	 0
_TEXT	ENDS
text$x	SEGMENT
$L199015:
  00078	8d 4d dc	 lea	 ecx, DWORD PTR _f$[ebp]
  0007b	e9 00 00 00 00	 jmp	 ??1CFile@@UAE@XZ	; CFile::~CFile
$L199016:
  00080	8d 4d ec	 lea	 ecx, DWORD PTR _strXMLContent$[ebp]
  00083	ff 25 00 00 00
	00		 jmp	 DWORD PTR __imp_??1?$CStringT@DV?$StrTraitMFC_DLL@DV?$ChTraitsCRT@D@ATL@@@@@ATL@@QAE@XZ
$L199017:
  00089	8d 4d d8	 lea	 ecx, DWORD PTR _m_strRealFileName$[ebp]
  0008c	ff 25 00 00 00
	00		 jmp	 DWORD PTR __imp_??1?$CStringT@DV?$StrTraitMFC_DLL@DV?$ChTraitsCRT@D@ATL@@@@@ATL@@QAE@XZ
$L199018:
  00092	8d 4d f0	 lea	 ecx, DWORD PTR _szFileName$[ebp]
  00095	ff 25 00 00 00
	00		 jmp	 DWORD PTR __imp_??1?$CStringT@DV?$StrTraitMFC_DLL@DV?$ChTraitsCRT@D@ATL@@@@@ATL@@QAE@XZ
$L199019:
  0009b	8d 4d d4	 lea	 ecx, DWORD PTR _doc$[ebp]
  0009e	ff 25 00 00 00
	00		 jmp	 DWORD PTR __imp_??1?$CStringT@DV?$StrTraitMFC_DLL@DV?$ChTraitsCRT@D@ATL@@@@@ATL@@QAE@XZ
$L199020:
  000a4	8d 4d 90	 lea	 ecx, DWORD PTR $T199005[ebp]
  000a7	ff 25 00 00 00
	00		 jmp	 DWORD PTR __imp_??1?$basic_string@DU?$char_traits@D@std@@V?$allocator@D@2@@std@@QAE@XZ
$L199021:
  000ad	8d 4d ac	 lea	 ecx, DWORD PTR $T199004[ebp]
  000b0	ff 25 00 00 00
	00		 jmp	 DWORD PTR __imp_??1?$CStringT@DV?$StrTraitMFC_DLL@DV?$ChTraitsCRT@D@ATL@@@@@ATL@@QAE@XZ
$L199022:
  000b6	8d 4d b0	 lea	 ecx, DWORD PTR $T199003[ebp]
  000b9	ff 25 00 00 00
	00		 jmp	 DWORD PTR __imp_??1?$basic_string@DU?$char_traits@D@std@@V?$allocator@D@2@@std@@QAE@XZ
$L199023:
  000bf	8d 8d 50 ff ff
	ff		 lea	 ecx, DWORD PTR $T199009[ebp]
  000c5	ff 25 00 00 00
	00		 jmp	 DWORD PTR __imp_??1?$basic_string@DU?$char_traits@D@std@@V?$allocator@D@2@@std@@QAE@XZ
$L199024:
  000cb	8d 8d 6c ff ff
	ff		 lea	 ecx, DWORD PTR $T199008[ebp]
  000d1	ff 25 00 00 00
	00		 jmp	 DWORD PTR __imp_??1?$CStringT@DV?$StrTraitMFC_DLL@DV?$ChTraitsCRT@D@ATL@@@@@ATL@@QAE@XZ
$L199025:
  000d7	8d 8d 70 ff ff
	ff		 lea	 ecx, DWORD PTR $T199007[ebp]
  000dd	ff 25 00 00 00
	00		 jmp	 DWORD PTR __imp_??1?$basic_string@DU?$char_traits@D@std@@V?$allocator@D@2@@std@@QAE@XZ
$L199026:
  000e3	8d 8d 10 ff ff
	ff		 lea	 ecx, DWORD PTR $T199013[ebp]
  000e9	ff 25 00 00 00
	00		 jmp	 DWORD PTR __imp_??1?$basic_string@DU?$char_traits@D@std@@V?$allocator@D@2@@std@@QAE@XZ
$L199027:
  000ef	8d 8d 2c ff ff
	ff		 lea	 ecx, DWORD PTR $T199012[ebp]
  000f5	ff 25 00 00 00
	00		 jmp	 DWORD PTR __imp_??1?$CStringT@DV?$StrTraitMFC_DLL@DV?$ChTraitsCRT@D@ATL@@@@@ATL@@QAE@XZ
$L199028:
  000fb	8d 8d 30 ff ff
	ff		 lea	 ecx, DWORD PTR $T199011[ebp]
  00101	ff 25 00 00 00
	00		 jmp	 DWORD PTR __imp_??1?$basic_string@DU?$char_traits@D@std@@V?$allocator@D@2@@std@@QAE@XZ
__ehhandler$?Save@CMarkupArchive@@QAE_NXZ:
  00107	b8 00 00 00 00	 mov	 eax, OFFSET FLAT:$T199030
  0010c	e9 00 00 00 00	 jmp	 ___CxxFrameHandler
text$x	ENDS
?Save@CMarkupArchive@@QAE_NXZ ENDP			; CMarkupArchive::Save
PUBLIC	?OpenString@CMarkupArchive@@QAE_NPBD@Z		; CMarkupArchive::OpenString
; Function compile flags: /Odt
_TEXT	SEGMENT
_this$ = -4						; size = 4
_szXMLString$ = 8					; size = 4
?OpenString@CMarkupArchive@@QAE_NPBD@Z PROC NEAR	; CMarkupArchive::OpenString
; _this$ = ecx

; 110  : {

  007b0	55		 push	 ebp
  007b1	8b ec		 mov	 ebp, esp
  007b3	51		 push	 ecx
  007b4	89 4d fc	 mov	 DWORD PTR _this$[ebp], ecx

; 111  : 	if (szXMLString==NULL)

  007b7	83 7d 08 00	 cmp	 DWORD PTR _szXMLString$[ebp], 0
  007bb	75 04		 jne	 SHORT $L198098

; 112  : 		return false;

  007bd	32 c0		 xor	 al, al
  007bf	eb 37		 jmp	 SHORT $L198097
$L198098:

; 113  : 
; 114  : 	m_dwMode = ~(~m_dwMode | ArchiveModeStoring);

  007c1	8b 45 fc	 mov	 eax, DWORD PTR _this$[ebp]
  007c4	8b 48 34	 mov	 ecx, DWORD PTR [eax+52]
  007c7	f7 d1		 not	 ecx
  007c9	83 c9 01	 or	 ecx, 1
  007cc	f7 d1		 not	 ecx
  007ce	8b 55 fc	 mov	 edx, DWORD PTR _this$[ebp]
  007d1	89 4a 34	 mov	 DWORD PTR [edx+52], ecx

; 115  : 
; 116  : 	m_sFileName=_T("");

  007d4	68 00 00 00 00	 push	 OFFSET FLAT:$SG198099
  007d9	8b 4d fc	 mov	 ecx, DWORD PTR _this$[ebp]
  007dc	83 c1 40	 add	 ecx, 64			; 00000040H
  007df	ff 15 00 00 00
	00		 call	 DWORD PTR __imp_??4?$CStringT@DV?$StrTraitMFC_DLL@DV?$ChTraitsCRT@D@ATL@@@@@ATL@@QAEAAV01@PBD@Z

; 117  : 	m_bOpened=true;

  007e5	8b 45 fc	 mov	 eax, DWORD PTR _this$[ebp]
  007e8	c6 40 3c 01	 mov	 BYTE PTR [eax+60], 1

; 118  : 
; 119  : 	return SetDoc(szXMLString);

  007ec	8b 4d 08	 mov	 ecx, DWORD PTR _szXMLString$[ebp]
  007ef	51		 push	 ecx
  007f0	8b 4d fc	 mov	 ecx, DWORD PTR _this$[ebp]
  007f3	e8 00 00 00 00	 call	 ?SetDoc@CMarkup@@QAE_NPBD@Z ; CMarkup::SetDoc
$L198097:

; 120  : }

  007f8	8b e5		 mov	 esp, ebp
  007fa	5d		 pop	 ebp
  007fb	c2 04 00	 ret	 4
?OpenString@CMarkupArchive@@QAE_NPBD@Z ENDP		; CMarkupArchive::OpenString
; Function compile flags: /Odt
_this$ = -4						; size = 4
?Close@CMarkupArchive@@QAE_NXZ PROC NEAR		; CMarkupArchive::Close
; _this$ = ecx

; 124  : {

  00800	55		 push	 ebp
  00801	8b ec		 mov	 ebp, esp
  00803	51		 push	 ecx
  00804	89 4d fc	 mov	 DWORD PTR _this$[ebp], ecx

; 125  : 	m_bOpened = false;

  00807	8b 45 fc	 mov	 eax, DWORD PTR _this$[ebp]
  0080a	c6 40 3c 00	 mov	 BYTE PTR [eax+60], 0

; 126  : 	//if (!m_bOpened)
; 127  : 	//	return false;
; 128  : 
; 129  : 	//CString str;
; 130  : 	//LPTSTR pBuffer;
; 131  : 	//int length;
; 132  : 
; 133  : 	//// --- start --- TMB! 29-08-2002 ** INSAD **
; 134  : 	//// Initialy fill str with the XML header ;)
; 135  : 	//str.Format(_T("<?xml version=\"1.0\" encoding=\"%s\" ?>\r\n"), m_strEncodingString);
; 136  : 	//// --- end --- TMB! 29-08-2002 ** INSAD **
; 137  : 
; 138  : 	//if (IsStoring())
; 139  : 	//{
; 140  : 	//	if (!( m_dwMode & ArchiveModeNotZipped))
; 141  : 	//	{
; 142  : 	//#ifdef _UNICODE
; 143  : 	//		char mbFileName[512];
; 144  : 	//		VERIFY( WideCharToMultiByte(CP_THREAD_ACP, // code page
; 145  : 	//			WC_SEPCHARS,            // performance and mapping flags
; 146  : 	//			m_sFileName,    // wide-character string
; 147  : 	//			-1,          // number of chars in string
; 148  : 	//			mbFileName,     // buffer for new string
; 149  : 	//			512*sizeof(TCHAR),          // size of buffer
; 150  : 	//			NULL,     // default for unmappable chars
; 151  : 	//			NULL  // set when default char used
; 152  : 	//			) );
; 153  : 	//		gzFile gzf = gzopen(mbFileName,"wb9");
; 154  : 	//#else
; 155  : 	//		gzFile gzf = gzopen( m_sFileName, "wb9");
; 156  : 	//#endif
; 157  : 
; 158  : 	//		// --- Old code --- TMB! 29-08-2002 ** INSAD ** Now already filled!
; 159  : 	//		//str=_T("<?xml version=\"1.0\" encoding=\"ISO-8859-1\" ?>\r\n");
; 160  : 	//		// --- end --- TMB! 29-08-2002 ** INSAD **
; 161  : 	//		length=str.GetLength()*sizeof(TCHAR);
; 162  : 	//		pBuffer=str.LockBuffer();
; 163  : 	//		gzwrite(gzf,pBuffer,length);
; 164  : 	//		str.UnlockBuffer();
; 165  : 
; 166  : 	//		// writing document
; 167  : 	//		str=GetDoc();
; 168  : 	//		length=str.GetLength();
; 169  : 	//		pBuffer=str.LockBuffer();
; 170  : 	//		gzwrite(gzf,pBuffer, length);
; 171  : 	//		str.UnlockBuffer();
; 172  : 	//		gzclose(gzf);
; 173  : 	//	}
; 174  : 	//	else
; 175  : 	//	{
; 176  : 	//		TRY
; 177  : 	//		{
; 178  : 	//			CStdioFile file(m_sFileName, CFile::modeWrite | CFile::modeCreate | CFile::typeText);
; 179  : 	//			// --- start --- TMB! 29-08-2002 ** INSAD ** // Already filled!
; 180  : 	//			file.WriteString(str);
; 181  : 	//			// --- Old code --- TMB! 29-08-2002 ** INSAD **
; 182  : 	//			//file.WriteString(_T("<?xml version=\"1.0\" encoding=\"ISO-8859-1\" ?>\r\n"));
; 183  : 	//			// --- end --- TMB! 29-08-2002 ** INSAD **
; 184  : 	//			file.WriteString(GetDoc());
; 185  : 	//			file.Close();
; 186  : 	//		}
; 187  : 	//		CATCH( CFileException, e )
; 188  : 	//		{
; 189  : 	//			AfxMessageBox(_T("File could not be opened ")+e->m_cause);
; 190  : 	//		}
; 191  : 	//		END_CATCH
; 192  : 	//	}
; 193  : 	//}
; 194  : 
; 195  : 	//m_bOpened=false;
; 196  : 
; 197  : 	return true;

  0080e	b0 01		 mov	 al, 1

; 198  : }

  00810	8b e5		 mov	 esp, ebp
  00812	5d		 pop	 ebp
  00813	c3		 ret	 0
?Close@CMarkupArchive@@QAE_NXZ ENDP			; CMarkupArchive::Close
_TEXT	ENDS
PUBLIC	?FindElemAttrib@CMarkupArchive@@QAE_NPBD00@Z	; CMarkupArchive::FindElemAttrib
PUBLIC	??8ATL@@YA_NABV?$CStringT@DV?$StrTraitMFC_DLL@DV?$ChTraitsCRT@D@ATL@@@@@0@0@Z ; ATL::operator==
PUBLIC	??8ATL@@YA_NABV?$CStringT@DV?$StrTraitMFC_DLL@DV?$ChTraitsCRT@D@ATL@@@@@0@PBD@Z ; ATL::operator==
PUBLIC	??9ATL@@YA_NABV?$CStringT@DV?$StrTraitMFC_DLL@DV?$ChTraitsCRT@D@ATL@@@@@0@PBD@Z ; ATL::operator!=
PUBLIC	?GetSize@?$CArray@UElemPos@CMarkup@@AAU12@@@QBEHXZ ; CArray<CMarkup::ElemPos,CMarkup::ElemPos &>::GetSize
PUBLIC	??A?$CArray@UElemPos@CMarkup@@AAU12@@@QAEAAUElemPos@CMarkup@@H@Z ; CArray<CMarkup::ElemPos,CMarkup::ElemPos &>::operator[]
EXTRN	?x_GetTagName@CMarkup@@IBE?AV?$CStringT@DV?$StrTraitMFC_DLL@DV?$ChTraitsCRT@D@ATL@@@@@ATL@@H@Z:NEAR ; CMarkup::x_GetTagName
EXTRN	?x_GetAttrib@CMarkup@@IBE?AV?$CStringT@DV?$StrTraitMFC_DLL@DV?$ChTraitsCRT@D@ATL@@@@@ATL@@HPBD@Z:NEAR ; CMarkup::x_GetAttrib
xdata$x	SEGMENT
$T199048 DD	0ffffffffH
	DD	FLAT:$L199040
	DD	0ffffffffH
	DD	FLAT:$L199043
$T199046 DD	019930520H
	DD	02H
	DD	FLAT:$T199048
	DD	2 DUP(00H)
	DD	2 DUP(00H)
; Function compile flags: /Odt
xdata$x	ENDS
_TEXT	SEGMENT
tv182 = -64						; size = 4
tv179 = -60						; size = 4
tv177 = -56						; size = 4
tv175 = -52						; size = 4
tv183 = -48						; size = 4
_this$ = -44						; size = 4
$T199039 = -40						; size = 4
$T199038 = -36						; size = 4
$T199037 = -32						; size = 4
$T199036 = -28						; size = 4
_temp$198125 = -24					; size = 4
_bGotIt$ = -20						; size = 4
_iPos$ = -16						; size = 4
__$EHRec$ = -12						; size = 12
_szName$ = 8						; size = 4
_szAttrib$ = 12						; size = 4
_szAttribValue$ = 16					; size = 4
?FindElemAttrib@CMarkupArchive@@QAE_NPBD00@Z PROC NEAR	; CMarkupArchive::FindElemAttrib
; _this$ = ecx

; 201  : {

  00820	55		 push	 ebp
  00821	8b ec		 mov	 ebp, esp
  00823	6a ff		 push	 -1
  00825	68 00 00 00 00	 push	 __ehhandler$?FindElemAttrib@CMarkupArchive@@QAE_NPBD00@Z
  0082a	64 a1 00 00 00
	00		 mov	 eax, DWORD PTR fs:__except_list
  00830	50		 push	 eax
  00831	64 89 25 00 00
	00 00		 mov	 DWORD PTR fs:__except_list, esp
  00838	83 ec 34	 sub	 esp, 52			; 00000034H
  0083b	89 4d d4	 mov	 DWORD PTR _this$[ebp], ecx

; 202  : 	if ( szName == NULL || !szName[0] || szAttrib == NULL || !szAttrib[0])

  0083e	83 7d 08 00	 cmp	 DWORD PTR _szName$[ebp], 0
  00842	74 1a		 je	 SHORT $L198110
  00844	8b 45 08	 mov	 eax, DWORD PTR _szName$[ebp]
  00847	0f be 08	 movsx	 ecx, BYTE PTR [eax]
  0084a	85 c9		 test	 ecx, ecx
  0084c	74 10		 je	 SHORT $L198110
  0084e	83 7d 0c 00	 cmp	 DWORD PTR _szAttrib$[ebp], 0
  00852	74 0a		 je	 SHORT $L198110
  00854	8b 55 0c	 mov	 edx, DWORD PTR _szAttrib$[ebp]
  00857	0f be 02	 movsx	 eax, BYTE PTR [edx]
  0085a	85 c0		 test	 eax, eax
  0085c	75 07		 jne	 SHORT $L198109
$L198110:

; 203  : 		return false;

  0085e	32 c0		 xor	 al, al
  00860	e9 9a 01 00 00	 jmp	 $L198108
$L198109:

; 204  : 
; 205  : 	// Otherwise go to next sibling element with matching tag name and attrib value
; 206  : 	// If the current position is valid, start looking from next
; 207  : 	// Change current position only if found
; 208  : 	int iPos = m_iPos;

  00865	8b 4d d4	 mov	 ecx, DWORD PTR _this$[ebp]
  00868	8b 51 24	 mov	 edx, DWORD PTR [ecx+36]
  0086b	89 55 f0	 mov	 DWORD PTR _iPos$[ebp], edx

; 209  : 	if ( ! iPos )

  0086e	83 7d f0 00	 cmp	 DWORD PTR _iPos$[ebp], 0
  00872	75 24		 jne	 SHORT $L198112

; 210  : 	{
; 211  : 		if ( m_aPos.GetSize() )

  00874	8b 4d d4	 mov	 ecx, DWORD PTR _this$[ebp]
  00877	83 c1 0c	 add	 ecx, 12			; 0000000cH
  0087a	e8 00 00 00 00	 call	 ?GetSize@?$CArray@UElemPos@CMarkup@@AAU12@@@QBEHXZ ; CArray<CMarkup::ElemPos,CMarkup::ElemPos &>::GetSize
  0087f	85 c0		 test	 eax, eax
  00881	74 13		 je	 SHORT $L198113

; 212  : 			iPos = m_aPos[0].iElemChild;

  00883	6a 00		 push	 0
  00885	8b 4d d4	 mov	 ecx, DWORD PTR _this$[ebp]
  00888	83 c1 0c	 add	 ecx, 12			; 0000000cH
  0088b	e8 00 00 00 00	 call	 ??A?$CArray@UElemPos@CMarkup@@AAU12@@@QAEAAUElemPos@CMarkup@@H@Z ; CArray<CMarkup::ElemPos,CMarkup::ElemPos &>::operator[]
  00890	8b 40 18	 mov	 eax, DWORD PTR [eax+24]
  00893	89 45 f0	 mov	 DWORD PTR _iPos$[ebp], eax
$L198113:

; 213  : 	}
; 214  : 	else

  00896	eb 15		 jmp	 SHORT $L198117
$L198112:

; 215  : 	{
; 216  : 		iPos = m_aPos[iPos].iElemNext;

  00898	8b 4d f0	 mov	 ecx, DWORD PTR _iPos$[ebp]
  0089b	51		 push	 ecx
  0089c	8b 4d d4	 mov	 ecx, DWORD PTR _this$[ebp]
  0089f	83 c1 0c	 add	 ecx, 12			; 0000000cH
  008a2	e8 00 00 00 00	 call	 ??A?$CArray@UElemPos@CMarkup@@AAU12@@@QAEAAUElemPos@CMarkup@@H@Z ; CArray<CMarkup::ElemPos,CMarkup::ElemPos &>::operator[]
  008a7	8b 50 1c	 mov	 edx, DWORD PTR [eax+28]
  008aa	89 55 f0	 mov	 DWORD PTR _iPos$[ebp], edx
$L198117:

; 217  : 	}
; 218  : 
; 219  : 	BOOL bGotIt;											// --- Added --- TMB! 22-08-2002 ** INSAD **
; 220  : 	while ( iPos )

  008ad	83 7d f0 00	 cmp	 DWORD PTR _iPos$[ebp], 0
  008b1	0f 84 46 01 00
	00		 je	 $L198118

; 221  : 	{
; 222  : 		// Compare tag name unless szName is not specified
; 223  : 		// --- start --- TMB! 22-08-2002 ** INSAD **
; 224  : 		bGotIt = (x_GetTagName(iPos) == m_sNameSpace+szName);

  008b7	8b 45 08	 mov	 eax, DWORD PTR _szName$[ebp]
  008ba	50		 push	 eax
  008bb	8b 4d d4	 mov	 ecx, DWORD PTR _this$[ebp]
  008be	83 c1 44	 add	 ecx, 68			; 00000044H
  008c1	51		 push	 ecx
  008c2	8d 55 e4	 lea	 edx, DWORD PTR $T199036[ebp]
  008c5	52		 push	 edx
  008c6	e8 00 00 00 00	 call	 ??HATL@@YA?AV?$CStringT@DV?$StrTraitMFC_DLL@DV?$ChTraitsCRT@D@ATL@@@@@0@ABV10@PBD@Z ; ATL::operator+
  008cb	83 c4 0c	 add	 esp, 12			; 0000000cH
  008ce	89 45 d0	 mov	 DWORD PTR tv183[ebp], eax
  008d1	8b 45 d0	 mov	 eax, DWORD PTR tv183[ebp]
  008d4	89 45 cc	 mov	 DWORD PTR tv175[ebp], eax
  008d7	c7 45 fc 00 00
	00 00		 mov	 DWORD PTR __$EHRec$[ebp+8], 0
  008de	8b 4d f0	 mov	 ecx, DWORD PTR _iPos$[ebp]
  008e1	51		 push	 ecx
  008e2	8d 55 e0	 lea	 edx, DWORD PTR $T199037[ebp]
  008e5	52		 push	 edx
  008e6	8b 4d d4	 mov	 ecx, DWORD PTR _this$[ebp]
  008e9	e8 00 00 00 00	 call	 ?x_GetTagName@CMarkup@@IBE?AV?$CStringT@DV?$StrTraitMFC_DLL@DV?$ChTraitsCRT@D@ATL@@@@@ATL@@H@Z ; CMarkup::x_GetTagName
  008ee	89 45 c8	 mov	 DWORD PTR tv177[ebp], eax
  008f1	8b 45 cc	 mov	 eax, DWORD PTR tv175[ebp]
  008f4	50		 push	 eax
  008f5	8b 4d c8	 mov	 ecx, DWORD PTR tv177[ebp]
  008f8	51		 push	 ecx
  008f9	e8 00 00 00 00	 call	 ??8ATL@@YA_NABV?$CStringT@DV?$StrTraitMFC_DLL@DV?$ChTraitsCRT@D@ATL@@@@@0@0@Z ; ATL::operator==
  008fe	83 c4 08	 add	 esp, 8
  00901	0f b6 d0	 movzx	 edx, al
  00904	89 55 ec	 mov	 DWORD PTR _bGotIt$[ebp], edx
  00907	8d 4d e0	 lea	 ecx, DWORD PTR $T199037[ebp]
  0090a	ff 15 00 00 00
	00		 call	 DWORD PTR __imp_??1?$CStringT@DV?$StrTraitMFC_DLL@DV?$ChTraitsCRT@D@ATL@@@@@ATL@@QAE@XZ
  00910	c7 45 fc ff ff
	ff ff		 mov	 DWORD PTR __$EHRec$[ebp+8], -1
  00917	8d 4d e4	 lea	 ecx, DWORD PTR $T199036[ebp]
  0091a	ff 15 00 00 00
	00		 call	 DWORD PTR __imp_??1?$CStringT@DV?$StrTraitMFC_DLL@DV?$ChTraitsCRT@D@ATL@@@@@ATL@@QAE@XZ

; 225  : 		if (bGotIt && szAttribValue == NULL) 

  00920	83 7d ec 00	 cmp	 DWORD PTR _bGotIt$[ebp], 0
  00924	74 3f		 je	 SHORT $L198121
  00926	83 7d 10 00	 cmp	 DWORD PTR _szAttribValue$[ebp], 0
  0092a	75 39		 jne	 SHORT $L198121

; 226  : 		{
; 227  : 			bGotIt = x_GetAttrib(iPos, szAttrib) != "";		// Assume empty value is same as attribute not there...

  0092c	8b 45 0c	 mov	 eax, DWORD PTR _szAttrib$[ebp]
  0092f	50		 push	 eax
  00930	8b 4d f0	 mov	 ecx, DWORD PTR _iPos$[ebp]
  00933	51		 push	 ecx
  00934	8d 55 dc	 lea	 edx, DWORD PTR $T199038[ebp]
  00937	52		 push	 edx
  00938	8b 4d d4	 mov	 ecx, DWORD PTR _this$[ebp]
  0093b	e8 00 00 00 00	 call	 ?x_GetAttrib@CMarkup@@IBE?AV?$CStringT@DV?$StrTraitMFC_DLL@DV?$ChTraitsCRT@D@ATL@@@@@ATL@@HPBD@Z ; CMarkup::x_GetAttrib
  00940	89 45 c4	 mov	 DWORD PTR tv179[ebp], eax
  00943	68 00 00 00 00	 push	 OFFSET FLAT:$SG198123
  00948	8b 45 c4	 mov	 eax, DWORD PTR tv179[ebp]
  0094b	50		 push	 eax
  0094c	e8 00 00 00 00	 call	 ??9ATL@@YA_NABV?$CStringT@DV?$StrTraitMFC_DLL@DV?$ChTraitsCRT@D@ATL@@@@@0@PBD@Z ; ATL::operator!=
  00951	83 c4 08	 add	 esp, 8
  00954	0f b6 c8	 movzx	 ecx, al
  00957	89 4d ec	 mov	 DWORD PTR _bGotIt$[ebp], ecx
  0095a	8d 4d dc	 lea	 ecx, DWORD PTR $T199038[ebp]
  0095d	ff 15 00 00 00
	00		 call	 DWORD PTR __imp_??1?$CStringT@DV?$StrTraitMFC_DLL@DV?$ChTraitsCRT@D@ATL@@@@@ATL@@QAE@XZ

; 228  : 		}
; 229  : 		else 

  00963	eb 61		 jmp	 SHORT $L198124
$L198121:

; 230  : 		{
; 231  : 			CString temp = x_GetAttrib(iPos, szAttrib);

  00965	8b 55 0c	 mov	 edx, DWORD PTR _szAttrib$[ebp]
  00968	52		 push	 edx
  00969	8b 45 f0	 mov	 eax, DWORD PTR _iPos$[ebp]
  0096c	50		 push	 eax
  0096d	8d 4d e8	 lea	 ecx, DWORD PTR _temp$198125[ebp]
  00970	51		 push	 ecx
  00971	8b 4d d4	 mov	 ecx, DWORD PTR _this$[ebp]
  00974	e8 00 00 00 00	 call	 ?x_GetAttrib@CMarkup@@IBE?AV?$CStringT@DV?$StrTraitMFC_DLL@DV?$ChTraitsCRT@D@ATL@@@@@ATL@@HPBD@Z ; CMarkup::x_GetAttrib
  00979	c7 45 fc 01 00
	00 00		 mov	 DWORD PTR __$EHRec$[ebp+8], 1

; 232  : 			bGotIt = (x_GetAttrib(iPos, szAttrib) == szAttribValue);

  00980	8b 55 0c	 mov	 edx, DWORD PTR _szAttrib$[ebp]
  00983	52		 push	 edx
  00984	8b 45 f0	 mov	 eax, DWORD PTR _iPos$[ebp]
  00987	50		 push	 eax
  00988	8d 4d d8	 lea	 ecx, DWORD PTR $T199039[ebp]
  0098b	51		 push	 ecx
  0098c	8b 4d d4	 mov	 ecx, DWORD PTR _this$[ebp]
  0098f	e8 00 00 00 00	 call	 ?x_GetAttrib@CMarkup@@IBE?AV?$CStringT@DV?$StrTraitMFC_DLL@DV?$ChTraitsCRT@D@ATL@@@@@ATL@@HPBD@Z ; CMarkup::x_GetAttrib
  00994	89 45 c0	 mov	 DWORD PTR tv182[ebp], eax
  00997	8b 55 10	 mov	 edx, DWORD PTR _szAttribValue$[ebp]
  0099a	52		 push	 edx
  0099b	8b 45 c0	 mov	 eax, DWORD PTR tv182[ebp]
  0099e	50		 push	 eax
  0099f	e8 00 00 00 00	 call	 ??8ATL@@YA_NABV?$CStringT@DV?$StrTraitMFC_DLL@DV?$ChTraitsCRT@D@ATL@@@@@0@PBD@Z ; ATL::operator==
  009a4	83 c4 08	 add	 esp, 8
  009a7	0f b6 c8	 movzx	 ecx, al
  009aa	89 4d ec	 mov	 DWORD PTR _bGotIt$[ebp], ecx
  009ad	8d 4d d8	 lea	 ecx, DWORD PTR $T199039[ebp]
  009b0	ff 15 00 00 00
	00		 call	 DWORD PTR __imp_??1?$CStringT@DV?$StrTraitMFC_DLL@DV?$ChTraitsCRT@D@ATL@@@@@ATL@@QAE@XZ

; 233  : 		}

  009b6	c7 45 fc ff ff
	ff ff		 mov	 DWORD PTR __$EHRec$[ebp+8], -1
  009bd	8d 4d e8	 lea	 ecx, DWORD PTR _temp$198125[ebp]
  009c0	ff 15 00 00 00
	00		 call	 DWORD PTR __imp_??1?$CStringT@DV?$StrTraitMFC_DLL@DV?$ChTraitsCRT@D@ATL@@@@@ATL@@QAE@XZ
$L198124:

; 234  : 		if (bGotIt)

  009c6	83 7d ec 00	 cmp	 DWORD PTR _bGotIt$[ebp], 0
  009ca	74 17		 je	 SHORT $L198128

; 235  : 		// --- oldcode --- TMB! 22-08-2002 ** INSAD **
; 236  : 		//if ( x_GetTagName(iPos) == m_sNameSpace+szName && x_GetAttrib(iPos, szAttrib) )
; 237  : 		// --- end --- TMB! 22-08-2002 ** INSAD **
; 238  : 		{
; 239  : 			// Assign new position
; 240  : 			m_iPos = iPos;

  009cc	8b 55 d4	 mov	 edx, DWORD PTR _this$[ebp]
  009cf	8b 45 f0	 mov	 eax, DWORD PTR _iPos$[ebp]
  009d2	89 42 24	 mov	 DWORD PTR [edx+36], eax

; 241  : 			m_iPosChild = 0;

  009d5	8b 4d d4	 mov	 ecx, DWORD PTR _this$[ebp]
  009d8	c7 41 28 00 00
	00 00		 mov	 DWORD PTR [ecx+40], 0

; 242  : 			return true;

  009df	b0 01		 mov	 al, 1
  009e1	eb 1c		 jmp	 SHORT $L198108
$L198128:

; 243  : 		}
; 244  : 		iPos = m_aPos[iPos].iElemNext;

  009e3	8b 55 f0	 mov	 edx, DWORD PTR _iPos$[ebp]
  009e6	52		 push	 edx
  009e7	8b 4d d4	 mov	 ecx, DWORD PTR _this$[ebp]
  009ea	83 c1 0c	 add	 ecx, 12			; 0000000cH
  009ed	e8 00 00 00 00	 call	 ??A?$CArray@UElemPos@CMarkup@@AAU12@@@QAEAAUElemPos@CMarkup@@H@Z ; CArray<CMarkup::ElemPos,CMarkup::ElemPos &>::operator[]
  009f2	8b 40 1c	 mov	 eax, DWORD PTR [eax+28]
  009f5	89 45 f0	 mov	 DWORD PTR _iPos$[ebp], eax

; 245  : 	}

  009f8	e9 b0 fe ff ff	 jmp	 $L198117
$L198118:

; 246  : 	return false;

  009fd	32 c0		 xor	 al, al
$L198108:

; 247  : }

  009ff	8b 4d f4	 mov	 ecx, DWORD PTR __$EHRec$[ebp]
  00a02	64 89 0d 00 00
	00 00		 mov	 DWORD PTR fs:__except_list, ecx
  00a09	8b e5		 mov	 esp, ebp
  00a0b	5d		 pop	 ebp
  00a0c	c2 0c 00	 ret	 12			; 0000000cH
_TEXT	ENDS
text$x	SEGMENT
$L199040:
  00111	8d 4d e4	 lea	 ecx, DWORD PTR $T199036[ebp]
  00114	ff 25 00 00 00
	00		 jmp	 DWORD PTR __imp_??1?$CStringT@DV?$StrTraitMFC_DLL@DV?$ChTraitsCRT@D@ATL@@@@@ATL@@QAE@XZ
$L199043:
  0011a	8d 4d e8	 lea	 ecx, DWORD PTR _temp$198125[ebp]
  0011d	ff 25 00 00 00
	00		 jmp	 DWORD PTR __imp_??1?$CStringT@DV?$StrTraitMFC_DLL@DV?$ChTraitsCRT@D@ATL@@@@@ATL@@QAE@XZ
__ehhandler$?FindElemAttrib@CMarkupArchive@@QAE_NPBD00@Z:
  00123	b8 00 00 00 00	 mov	 eax, OFFSET FLAT:$T199046
  00128	e9 00 00 00 00	 jmp	 ___CxxFrameHandler
text$x	ENDS
?FindElemAttrib@CMarkupArchive@@QAE_NPBD00@Z ENDP	; CMarkupArchive::FindElemAttrib
PUBLIC	?FindChildElemAttrib@CMarkupArchive@@QAE_NPBD00@Z ; CMarkupArchive::FindChildElemAttrib
PUBLIC	?IsEmptyElement@ElemPos@CMarkup@@QBE_NXZ	; CMarkup::ElemPos::IsEmptyElement
xdata$x	SEGMENT
$T199063 DD	0ffffffffH
	DD	FLAT:$L199055
	DD	00H
	DD	FLAT:$L199056
$T199061 DD	019930520H
	DD	02H
	DD	FLAT:$T199063
	DD	2 DUP(00H)
	DD	2 DUP(00H)
; Function compile flags: /Odt
xdata$x	ENDS
_TEXT	SEGMENT
tv194 = -68						; size = 4
tv192 = -64						; size = 4
tv190 = -60						; size = 4
tv188 = -56						; size = 4
tv134 = -52						; size = 4
_this$ = -48						; size = 4
$T199054 = -41						; size = 1
$T199053 = -40						; size = 4
$T199052 = -36						; size = 4
$T199051 = -32						; size = 4
$T199050 = -28						; size = 4
_temp$198147 = -24					; size = 4
_iPosChild$ = -20					; size = 4
_bGotIt$ = -16						; size = 4
__$EHRec$ = -12						; size = 12
_szName$ = 8						; size = 4
_szAttrib$ = 12						; size = 4
_szAttribValue$ = 16					; size = 4
?FindChildElemAttrib@CMarkupArchive@@QAE_NPBD00@Z PROC NEAR ; CMarkupArchive::FindChildElemAttrib
; _this$ = ecx

; 252  : {

  00a10	55		 push	 ebp
  00a11	8b ec		 mov	 ebp, esp
  00a13	6a ff		 push	 -1
  00a15	68 00 00 00 00	 push	 __ehhandler$?FindChildElemAttrib@CMarkupArchive@@QAE_NPBD00@Z
  00a1a	64 a1 00 00 00
	00		 mov	 eax, DWORD PTR fs:__except_list
  00a20	50		 push	 eax
  00a21	64 89 25 00 00
	00 00		 mov	 DWORD PTR fs:__except_list, esp
  00a28	83 ec 38	 sub	 esp, 56			; 00000038H
  00a2b	89 4d d0	 mov	 DWORD PTR _this$[ebp], ecx

; 253  : 	if ( szName == NULL || !szName[0] || szAttrib == NULL || !szAttrib[0])

  00a2e	83 7d 08 00	 cmp	 DWORD PTR _szName$[ebp], 0
  00a32	74 1a		 je	 SHORT $L198136
  00a34	8b 45 08	 mov	 eax, DWORD PTR _szName$[ebp]
  00a37	0f be 08	 movsx	 ecx, BYTE PTR [eax]
  00a3a	85 c9		 test	 ecx, ecx
  00a3c	74 10		 je	 SHORT $L198136
  00a3e	83 7d 0c 00	 cmp	 DWORD PTR _szAttrib$[ebp], 0
  00a42	74 0a		 je	 SHORT $L198136
  00a44	8b 55 0c	 mov	 edx, DWORD PTR _szAttrib$[ebp]
  00a47	0f be 02	 movsx	 eax, BYTE PTR [edx]
  00a4a	85 c0		 test	 eax, eax
  00a4c	75 07		 jne	 SHORT $L198135
$L198136:

; 254  : 		return false;

  00a4e	32 c0		 xor	 al, al
  00a50	e9 d7 01 00 00	 jmp	 $L198134
$L198135:

; 255  : 
; 256  : 	// If szName is NULL or empty, go to next sibling child element
; 257  : 	// Otherwise go to next sibling child element with matching tag name
; 258  : 	// If the current child position is valid, start looking from next
; 259  : 	// Change current child position only if found
; 260  : 	//
; 261  : 	// Shorthand: call this with no current position means under root element
; 262  : 	if ( ! m_iPos )

  00a55	8b 4d d0	 mov	 ecx, DWORD PTR _this$[ebp]
  00a58	83 79 24 00	 cmp	 DWORD PTR [ecx+36], 0
  00a5c	75 0d		 jne	 SHORT $L198137

; 263  : 		FindElem();

  00a5e	6a 00		 push	 0
  00a60	8b 55 d0	 mov	 edx, DWORD PTR _this$[ebp]
  00a63	8b 02		 mov	 eax, DWORD PTR [edx]
  00a65	8b 4d d0	 mov	 ecx, DWORD PTR _this$[ebp]
  00a68	ff 50 0c	 call	 DWORD PTR [eax+12]
$L198137:

; 264  : 
; 265  : 	// Is main position valid and not empty?
; 266  : 	if ( ! m_iPos || m_aPos[m_iPos].IsEmptyElement() )

  00a6b	8b 4d d0	 mov	 ecx, DWORD PTR _this$[ebp]
  00a6e	83 79 24 00	 cmp	 DWORD PTR [ecx+36], 0
  00a72	74 20		 je	 SHORT $L198139
  00a74	8b 55 d0	 mov	 edx, DWORD PTR _this$[ebp]
  00a77	8b 42 24	 mov	 eax, DWORD PTR [edx+36]
  00a7a	50		 push	 eax
  00a7b	8b 4d d0	 mov	 ecx, DWORD PTR _this$[ebp]
  00a7e	83 c1 0c	 add	 ecx, 12			; 0000000cH
  00a81	e8 00 00 00 00	 call	 ??A?$CArray@UElemPos@CMarkup@@AAU12@@@QAEAAUElemPos@CMarkup@@H@Z ; CArray<CMarkup::ElemPos,CMarkup::ElemPos &>::operator[]
  00a86	8b c8		 mov	 ecx, eax
  00a88	e8 00 00 00 00	 call	 ?IsEmptyElement@ElemPos@CMarkup@@QBE_NXZ ; CMarkup::ElemPos::IsEmptyElement
  00a8d	0f b6 c8	 movzx	 ecx, al
  00a90	85 c9		 test	 ecx, ecx
  00a92	74 07		 je	 SHORT $L198138
$L198139:

; 267  : 		return false;

  00a94	32 c0		 xor	 al, al
  00a96	e9 91 01 00 00	 jmp	 $L198134
$L198138:

; 268  : 
; 269  : 	// Is current child position valid?
; 270  : 	int iPosChild = m_iPosChild;

  00a9b	8b 55 d0	 mov	 edx, DWORD PTR _this$[ebp]
  00a9e	8b 42 28	 mov	 eax, DWORD PTR [edx+40]
  00aa1	89 45 ec	 mov	 DWORD PTR _iPosChild$[ebp], eax

; 271  : 	if ( iPosChild )

  00aa4	83 7d ec 00	 cmp	 DWORD PTR _iPosChild$[ebp], 0
  00aa8	74 17		 je	 SHORT $L198141

; 272  : 		iPosChild = m_aPos[iPosChild].iElemNext;

  00aaa	8b 4d ec	 mov	 ecx, DWORD PTR _iPosChild$[ebp]
  00aad	51		 push	 ecx
  00aae	8b 4d d0	 mov	 ecx, DWORD PTR _this$[ebp]
  00ab1	83 c1 0c	 add	 ecx, 12			; 0000000cH
  00ab4	e8 00 00 00 00	 call	 ??A?$CArray@UElemPos@CMarkup@@AAU12@@@QAEAAUElemPos@CMarkup@@H@Z ; CArray<CMarkup::ElemPos,CMarkup::ElemPos &>::operator[]
  00ab9	8b 50 1c	 mov	 edx, DWORD PTR [eax+28]
  00abc	89 55 ec	 mov	 DWORD PTR _iPosChild$[ebp], edx

; 273  : 	else

  00abf	eb 18		 jmp	 SHORT $L198145
$L198141:

; 274  : 		iPosChild = m_aPos[m_iPos].iElemChild;

  00ac1	8b 45 d0	 mov	 eax, DWORD PTR _this$[ebp]
  00ac4	8b 48 24	 mov	 ecx, DWORD PTR [eax+36]
  00ac7	51		 push	 ecx
  00ac8	8b 4d d0	 mov	 ecx, DWORD PTR _this$[ebp]
  00acb	83 c1 0c	 add	 ecx, 12			; 0000000cH
  00ace	e8 00 00 00 00	 call	 ??A?$CArray@UElemPos@CMarkup@@AAU12@@@QAEAAUElemPos@CMarkup@@H@Z ; CArray<CMarkup::ElemPos,CMarkup::ElemPos &>::operator[]
  00ad3	8b 50 18	 mov	 edx, DWORD PTR [eax+24]
  00ad6	89 55 ec	 mov	 DWORD PTR _iPosChild$[ebp], edx
$L198145:

; 275  : 
; 276  : 	// Search
; 277  : 	BOOL bGotIt;											// --- Added --- TMB! 22-08-2002 ** INSAD **
; 278  : 	while ( iPosChild )

  00ad9	83 7d ec 00	 cmp	 DWORD PTR _iPosChild$[ebp], 0
  00add	0f 84 47 01 00
	00		 je	 $L198146

; 279  : 	{
; 280  : 		// Compare tag name unless szName is not specified
; 281  : 		CString temp = x_GetTagName(iPosChild);

  00ae3	8b 45 ec	 mov	 eax, DWORD PTR _iPosChild$[ebp]
  00ae6	50		 push	 eax
  00ae7	8d 4d e8	 lea	 ecx, DWORD PTR _temp$198147[ebp]
  00aea	51		 push	 ecx
  00aeb	8b 4d d0	 mov	 ecx, DWORD PTR _this$[ebp]
  00aee	e8 00 00 00 00	 call	 ?x_GetTagName@CMarkup@@IBE?AV?$CStringT@DV?$StrTraitMFC_DLL@DV?$ChTraitsCRT@D@ATL@@@@@ATL@@H@Z ; CMarkup::x_GetTagName
  00af3	c7 45 fc 00 00
	00 00		 mov	 DWORD PTR __$EHRec$[ebp+8], 0

; 282  : 		// --- start --- TMB! 22-08-2002 ** INSAD **
; 283  : 		bGotIt = (x_GetTagName(iPosChild) == m_sNameSpace+szName);

  00afa	8b 55 08	 mov	 edx, DWORD PTR _szName$[ebp]
  00afd	52		 push	 edx
  00afe	8b 45 d0	 mov	 eax, DWORD PTR _this$[ebp]
  00b01	83 c0 44	 add	 eax, 68			; 00000044H
  00b04	50		 push	 eax
  00b05	8d 4d e4	 lea	 ecx, DWORD PTR $T199050[ebp]
  00b08	51		 push	 ecx
  00b09	e8 00 00 00 00	 call	 ??HATL@@YA?AV?$CStringT@DV?$StrTraitMFC_DLL@DV?$ChTraitsCRT@D@ATL@@@@@0@ABV10@PBD@Z ; ATL::operator+
  00b0e	83 c4 0c	 add	 esp, 12			; 0000000cH
  00b11	89 45 cc	 mov	 DWORD PTR tv134[ebp], eax
  00b14	8b 55 cc	 mov	 edx, DWORD PTR tv134[ebp]
  00b17	89 55 c8	 mov	 DWORD PTR tv188[ebp], edx
  00b1a	c6 45 fc 01	 mov	 BYTE PTR __$EHRec$[ebp+8], 1
  00b1e	8b 45 ec	 mov	 eax, DWORD PTR _iPosChild$[ebp]
  00b21	50		 push	 eax
  00b22	8d 4d e0	 lea	 ecx, DWORD PTR $T199051[ebp]
  00b25	51		 push	 ecx
  00b26	8b 4d d0	 mov	 ecx, DWORD PTR _this$[ebp]
  00b29	e8 00 00 00 00	 call	 ?x_GetTagName@CMarkup@@IBE?AV?$CStringT@DV?$StrTraitMFC_DLL@DV?$ChTraitsCRT@D@ATL@@@@@ATL@@H@Z ; CMarkup::x_GetTagName
  00b2e	89 45 c4	 mov	 DWORD PTR tv190[ebp], eax
  00b31	8b 55 c8	 mov	 edx, DWORD PTR tv188[ebp]
  00b34	52		 push	 edx
  00b35	8b 45 c4	 mov	 eax, DWORD PTR tv190[ebp]
  00b38	50		 push	 eax
  00b39	e8 00 00 00 00	 call	 ??8ATL@@YA_NABV?$CStringT@DV?$StrTraitMFC_DLL@DV?$ChTraitsCRT@D@ATL@@@@@0@0@Z ; ATL::operator==
  00b3e	83 c4 08	 add	 esp, 8
  00b41	0f b6 c8	 movzx	 ecx, al
  00b44	89 4d f0	 mov	 DWORD PTR _bGotIt$[ebp], ecx
  00b47	8d 4d e0	 lea	 ecx, DWORD PTR $T199051[ebp]
  00b4a	ff 15 00 00 00
	00		 call	 DWORD PTR __imp_??1?$CStringT@DV?$StrTraitMFC_DLL@DV?$ChTraitsCRT@D@ATL@@@@@ATL@@QAE@XZ
  00b50	c6 45 fc 00	 mov	 BYTE PTR __$EHRec$[ebp+8], 0
  00b54	8d 4d e4	 lea	 ecx, DWORD PTR $T199050[ebp]
  00b57	ff 15 00 00 00
	00		 call	 DWORD PTR __imp_??1?$CStringT@DV?$StrTraitMFC_DLL@DV?$ChTraitsCRT@D@ATL@@@@@ATL@@QAE@XZ

; 284  : 		if (bGotIt && szAttribValue == NULL) 

  00b5d	83 7d f0 00	 cmp	 DWORD PTR _bGotIt$[ebp], 0
  00b61	74 3f		 je	 SHORT $L198151
  00b63	83 7d 10 00	 cmp	 DWORD PTR _szAttribValue$[ebp], 0
  00b67	75 39		 jne	 SHORT $L198151

; 285  : 		{
; 286  : 			bGotIt = x_GetAttrib(iPosChild, szAttrib) != _T("");		// Assume empty value is same as attribute not there...

  00b69	8b 55 0c	 mov	 edx, DWORD PTR _szAttrib$[ebp]
  00b6c	52		 push	 edx
  00b6d	8b 45 ec	 mov	 eax, DWORD PTR _iPosChild$[ebp]
  00b70	50		 push	 eax
  00b71	8d 4d dc	 lea	 ecx, DWORD PTR $T199052[ebp]
  00b74	51		 push	 ecx
  00b75	8b 4d d0	 mov	 ecx, DWORD PTR _this$[ebp]
  00b78	e8 00 00 00 00	 call	 ?x_GetAttrib@CMarkup@@IBE?AV?$CStringT@DV?$StrTraitMFC_DLL@DV?$ChTraitsCRT@D@ATL@@@@@ATL@@HPBD@Z ; CMarkup::x_GetAttrib
  00b7d	89 45 c0	 mov	 DWORD PTR tv192[ebp], eax
  00b80	68 00 00 00 00	 push	 OFFSET FLAT:$SG198153
  00b85	8b 55 c0	 mov	 edx, DWORD PTR tv192[ebp]
  00b88	52		 push	 edx
  00b89	e8 00 00 00 00	 call	 ??9ATL@@YA_NABV?$CStringT@DV?$StrTraitMFC_DLL@DV?$ChTraitsCRT@D@ATL@@@@@0@PBD@Z ; ATL::operator!=
  00b8e	83 c4 08	 add	 esp, 8
  00b91	0f b6 c0	 movzx	 eax, al
  00b94	89 45 f0	 mov	 DWORD PTR _bGotIt$[ebp], eax
  00b97	8d 4d dc	 lea	 ecx, DWORD PTR $T199052[ebp]
  00b9a	ff 15 00 00 00
	00		 call	 DWORD PTR __imp_??1?$CStringT@DV?$StrTraitMFC_DLL@DV?$ChTraitsCRT@D@ATL@@@@@ATL@@QAE@XZ

; 287  : 		}
; 288  : 		else 

  00ba0	eb 36		 jmp	 SHORT $L198154
$L198151:

; 289  : 		{
; 290  : 			bGotIt = (x_GetAttrib(iPosChild, szAttrib) == szAttribValue);

  00ba2	8b 4d 0c	 mov	 ecx, DWORD PTR _szAttrib$[ebp]
  00ba5	51		 push	 ecx
  00ba6	8b 55 ec	 mov	 edx, DWORD PTR _iPosChild$[ebp]
  00ba9	52		 push	 edx
  00baa	8d 45 d8	 lea	 eax, DWORD PTR $T199053[ebp]
  00bad	50		 push	 eax
  00bae	8b 4d d0	 mov	 ecx, DWORD PTR _this$[ebp]
  00bb1	e8 00 00 00 00	 call	 ?x_GetAttrib@CMarkup@@IBE?AV?$CStringT@DV?$StrTraitMFC_DLL@DV?$ChTraitsCRT@D@ATL@@@@@ATL@@HPBD@Z ; CMarkup::x_GetAttrib
  00bb6	89 45 bc	 mov	 DWORD PTR tv194[ebp], eax
  00bb9	8b 4d 10	 mov	 ecx, DWORD PTR _szAttribValue$[ebp]
  00bbc	51		 push	 ecx
  00bbd	8b 55 bc	 mov	 edx, DWORD PTR tv194[ebp]
  00bc0	52		 push	 edx
  00bc1	e8 00 00 00 00	 call	 ??8ATL@@YA_NABV?$CStringT@DV?$StrTraitMFC_DLL@DV?$ChTraitsCRT@D@ATL@@@@@0@PBD@Z ; ATL::operator==
  00bc6	83 c4 08	 add	 esp, 8
  00bc9	0f b6 c0	 movzx	 eax, al
  00bcc	89 45 f0	 mov	 DWORD PTR _bGotIt$[ebp], eax
  00bcf	8d 4d d8	 lea	 ecx, DWORD PTR $T199053[ebp]
  00bd2	ff 15 00 00 00
	00		 call	 DWORD PTR __imp_??1?$CStringT@DV?$StrTraitMFC_DLL@DV?$ChTraitsCRT@D@ATL@@@@@ATL@@QAE@XZ
$L198154:

; 291  : 		}
; 292  : 		if (bGotIt)

  00bd8	83 7d f0 00	 cmp	 DWORD PTR _bGotIt$[ebp], 0
  00bdc	74 22		 je	 SHORT $L198156

; 293  : 		// --- oldcode --- TMB! 22-08-2002 ** INSAD **
; 294  : 		//if ((x_GetTagName(iPosChild) == m_sNameSpace+szName) && (x_GetAttrib(iPosChild, szAttrib) == szAttribValue))
; 295  : 		// --- end --- TMB! 22-08-2002 ** INSAD **
; 296  : 		{
; 297  : 			// Assign new position
; 298  : 			m_iPosChild = iPosChild;

  00bde	8b 4d d0	 mov	 ecx, DWORD PTR _this$[ebp]
  00be1	8b 55 ec	 mov	 edx, DWORD PTR _iPosChild$[ebp]
  00be4	89 51 28	 mov	 DWORD PTR [ecx+40], edx

; 299  : 			return true;

  00be7	c6 45 d7 01	 mov	 BYTE PTR $T199054[ebp], 1
  00beb	c7 45 fc ff ff
	ff ff		 mov	 DWORD PTR __$EHRec$[ebp+8], -1
  00bf2	8d 4d e8	 lea	 ecx, DWORD PTR _temp$198147[ebp]
  00bf5	ff 15 00 00 00
	00		 call	 DWORD PTR __imp_??1?$CStringT@DV?$StrTraitMFC_DLL@DV?$ChTraitsCRT@D@ATL@@@@@ATL@@QAE@XZ
  00bfb	8a 45 d7	 mov	 al, BYTE PTR $T199054[ebp]
  00bfe	eb 2c		 jmp	 SHORT $L198134
$L198156:

; 300  : 		}
; 301  : 		iPosChild = m_aPos[iPosChild].iElemNext;

  00c00	8b 45 ec	 mov	 eax, DWORD PTR _iPosChild$[ebp]
  00c03	50		 push	 eax
  00c04	8b 4d d0	 mov	 ecx, DWORD PTR _this$[ebp]
  00c07	83 c1 0c	 add	 ecx, 12			; 0000000cH
  00c0a	e8 00 00 00 00	 call	 ??A?$CArray@UElemPos@CMarkup@@AAU12@@@QAEAAUElemPos@CMarkup@@H@Z ; CArray<CMarkup::ElemPos,CMarkup::ElemPos &>::operator[]
  00c0f	8b 48 1c	 mov	 ecx, DWORD PTR [eax+28]
  00c12	89 4d ec	 mov	 DWORD PTR _iPosChild$[ebp], ecx

; 302  : 	}

  00c15	c7 45 fc ff ff
	ff ff		 mov	 DWORD PTR __$EHRec$[ebp+8], -1
  00c1c	8d 4d e8	 lea	 ecx, DWORD PTR _temp$198147[ebp]
  00c1f	ff 15 00 00 00
	00		 call	 DWORD PTR __imp_??1?$CStringT@DV?$StrTraitMFC_DLL@DV?$ChTraitsCRT@D@ATL@@@@@ATL@@QAE@XZ
  00c25	e9 af fe ff ff	 jmp	 $L198145
$L198146:

; 303  : 	return false;

  00c2a	32 c0		 xor	 al, al
$L198134:

; 304  : }

  00c2c	8b 4d f4	 mov	 ecx, DWORD PTR __$EHRec$[ebp]
  00c2f	64 89 0d 00 00
	00 00		 mov	 DWORD PTR fs:__except_list, ecx
  00c36	8b e5		 mov	 esp, ebp
  00c38	5d		 pop	 ebp
  00c39	c2 0c 00	 ret	 12			; 0000000cH
_TEXT	ENDS
text$x	SEGMENT
$L199055:
  0012d	8d 4d e8	 lea	 ecx, DWORD PTR _temp$198147[ebp]
  00130	ff 25 00 00 00
	00		 jmp	 DWORD PTR __imp_??1?$CStringT@DV?$StrTraitMFC_DLL@DV?$ChTraitsCRT@D@ATL@@@@@ATL@@QAE@XZ
$L199056:
  00136	8d 4d e4	 lea	 ecx, DWORD PTR $T199050[ebp]
  00139	ff 25 00 00 00
	00		 jmp	 DWORD PTR __imp_??1?$CStringT@DV?$StrTraitMFC_DLL@DV?$ChTraitsCRT@D@ATL@@@@@ATL@@QAE@XZ
__ehhandler$?FindChildElemAttrib@CMarkupArchive@@QAE_NPBD00@Z:
  0013f	b8 00 00 00 00	 mov	 eax, OFFSET FLAT:$T199061
  00144	e9 00 00 00 00	 jmp	 ___CxxFrameHandler
text$x	ENDS
?FindChildElemAttrib@CMarkupArchive@@QAE_NPBD00@Z ENDP	; CMarkupArchive::FindChildElemAttrib
; Function compile flags: /Odt
; File d:\boxgit\playbox\playbox\dev\prj\playbox\src\util\markup.h
;	COMDAT ?IsEmptyElement@ElemPos@CMarkup@@QBE_NXZ
_TEXT	SEGMENT
_this$ = -4						; size = 4
?IsEmptyElement@ElemPos@CMarkup@@QBE_NXZ PROC NEAR	; CMarkup::ElemPos::IsEmptyElement, COMDAT
; _this$ = ecx

; 88   : 		bool IsEmptyElement() const { return (nStartR == nEndL + 1); };

  00000	55		 push	 ebp
  00001	8b ec		 mov	 ebp, esp
  00003	51		 push	 ecx
  00004	89 4d fc	 mov	 DWORD PTR _this$[ebp], ecx
  00007	8b 45 fc	 mov	 eax, DWORD PTR _this$[ebp]
  0000a	8b 48 08	 mov	 ecx, DWORD PTR [eax+8]
  0000d	83 c1 01	 add	 ecx, 1
  00010	8b 55 fc	 mov	 edx, DWORD PTR _this$[ebp]
  00013	33 c0		 xor	 eax, eax
  00015	39 4a 04	 cmp	 DWORD PTR [edx+4], ecx
  00018	0f 94 c0	 sete	 al
  0001b	8b e5		 mov	 esp, ebp
  0001d	5d		 pop	 ebp
  0001e	c3		 ret	 0
?IsEmptyElement@ElemPos@CMarkup@@QBE_NXZ ENDP		; CMarkup::ElemPos::IsEmptyElement
_TEXT	ENDS
EXTRN	__imp_?GetManager@?$CSimpleStringT@D$00@ATL@@QBEPAUIAtlStringMgr@2@XZ:NEAR
EXTRN	__imp_?StringLength@?$CSimpleStringT@D$00@ATL@@SAHPBD@Z:NEAR
EXTRN	__imp_?Concatenate@?$CSimpleStringT@D$00@ATL@@KAXAAV12@PBDH1H@Z:NEAR
EXTRN	__imp_??0?$CStringT@DV?$StrTraitMFC_DLL@DV?$ChTraitsCRT@D@ATL@@@@@ATL@@QAE@PAUIAtlStringMgr@1@@Z:NEAR
;	COMDAT xdata$x
; File d:\program files (x86)\microsoft visual studio .net 2003\vc7\atlmfc\include\cstringt.h
xdata$x	SEGMENT
$T199074 DD	0ffffffffH
	DD	FLAT:$L199067
$T199072 DD	019930520H
	DD	01H
	DD	FLAT:$T199074
	DD	2 DUP(00H)
	DD	2 DUP(00H)
; Function compile flags: /Odt
xdata$x	ENDS
;	COMDAT ??HATL@@YA?AV?$CStringT@DV?$StrTraitMFC_DLL@DV?$ChTraitsCRT@D@ATL@@@@@0@ABV10@PBD@Z
_TEXT	SEGMENT
$T199069 = -20						; size = 4
_strResult$ = -16					; size = 4
__$EHRec$ = -12						; size = 12
___$ReturnUdt$ = 8					; size = 4
_str1$ = 12						; size = 4
_psz2$ = 16						; size = 4
??HATL@@YA?AV?$CStringT@DV?$StrTraitMFC_DLL@DV?$ChTraitsCRT@D@ATL@@@@@0@ABV10@PBD@Z PROC NEAR ; ATL::operator+, COMDAT

; 2023 : 	{

  00000	55		 push	 ebp
  00001	8b ec		 mov	 ebp, esp
  00003	6a ff		 push	 -1
  00005	68 00 00 00 00	 push	 __ehhandler$??HATL@@YA?AV?$CStringT@DV?$StrTraitMFC_DLL@DV?$ChTraitsCRT@D@ATL@@@@@0@ABV10@PBD@Z
  0000a	64 a1 00 00 00
	00		 mov	 eax, DWORD PTR fs:__except_list
  00010	50		 push	 eax
  00011	64 89 25 00 00
	00 00		 mov	 DWORD PTR fs:__except_list, esp
  00018	83 ec 08	 sub	 esp, 8
  0001b	c7 45 ec 00 00
	00 00		 mov	 DWORD PTR $T199069[ebp], 0

; 2024 : 		CStringT strResult( str1.GetManager() );

  00022	8b 4d 0c	 mov	 ecx, DWORD PTR _str1$[ebp]
  00025	ff 15 00 00 00
	00		 call	 DWORD PTR __imp_?GetManager@?$CSimpleStringT@D$00@ATL@@QBEPAUIAtlStringMgr@2@XZ
  0002b	50		 push	 eax
  0002c	8d 4d f0	 lea	 ecx, DWORD PTR _strResult$[ebp]
  0002f	ff 15 00 00 00
	00		 call	 DWORD PTR __imp_??0?$CStringT@DV?$StrTraitMFC_DLL@DV?$ChTraitsCRT@D@ATL@@@@@ATL@@QAE@PAUIAtlStringMgr@1@@Z
  00035	c7 45 fc 00 00
	00 00		 mov	 DWORD PTR __$EHRec$[ebp+8], 0

; 2025 : 
; 2026 : 		Concatenate( strResult, str1, str1.GetLength(), psz2, StringLength( psz2 ) );

  0003c	8b 45 10	 mov	 eax, DWORD PTR _psz2$[ebp]
  0003f	50		 push	 eax
  00040	ff 15 00 00 00
	00		 call	 DWORD PTR __imp_?StringLength@?$CSimpleStringT@D$00@ATL@@SAHPBD@Z
  00046	83 c4 04	 add	 esp, 4
  00049	50		 push	 eax
  0004a	8b 4d 10	 mov	 ecx, DWORD PTR _psz2$[ebp]
  0004d	51		 push	 ecx
  0004e	8b 4d 0c	 mov	 ecx, DWORD PTR _str1$[ebp]
  00051	ff 15 00 00 00
	00		 call	 DWORD PTR __imp_?GetLength@?$CSimpleStringT@D$00@ATL@@QBEHXZ
  00057	50		 push	 eax
  00058	8b 4d 0c	 mov	 ecx, DWORD PTR _str1$[ebp]
  0005b	ff 15 00 00 00
	00		 call	 DWORD PTR __imp_??B?$CSimpleStringT@D$00@ATL@@QBEPBDXZ
  00061	50		 push	 eax
  00062	8d 55 f0	 lea	 edx, DWORD PTR _strResult$[ebp]
  00065	52		 push	 edx
  00066	ff 15 00 00 00
	00		 call	 DWORD PTR __imp_?Concatenate@?$CSimpleStringT@D$00@ATL@@KAXAAV12@PBDH1H@Z
  0006c	83 c4 14	 add	 esp, 20			; 00000014H

; 2027 : 
; 2028 : 		return( strResult );

  0006f	8d 45 f0	 lea	 eax, DWORD PTR _strResult$[ebp]
  00072	50		 push	 eax
  00073	8b 4d 08	 mov	 ecx, DWORD PTR ___$ReturnUdt$[ebp]
  00076	ff 15 00 00 00
	00		 call	 DWORD PTR __imp_??0?$CStringT@DV?$StrTraitMFC_DLL@DV?$ChTraitsCRT@D@ATL@@@@@ATL@@QAE@ABV01@@Z
  0007c	8b 4d ec	 mov	 ecx, DWORD PTR $T199069[ebp]
  0007f	83 c9 01	 or	 ecx, 1
  00082	89 4d ec	 mov	 DWORD PTR $T199069[ebp], ecx
  00085	c7 45 fc ff ff
	ff ff		 mov	 DWORD PTR __$EHRec$[ebp+8], -1
  0008c	8d 4d f0	 lea	 ecx, DWORD PTR _strResult$[ebp]
  0008f	ff 15 00 00 00
	00		 call	 DWORD PTR __imp_??1?$CStringT@DV?$StrTraitMFC_DLL@DV?$ChTraitsCRT@D@ATL@@@@@ATL@@QAE@XZ
  00095	8b 45 08	 mov	 eax, DWORD PTR ___$ReturnUdt$[ebp]

; 2029 : 	}

  00098	8b 4d f4	 mov	 ecx, DWORD PTR __$EHRec$[ebp]
  0009b	64 89 0d 00 00
	00 00		 mov	 DWORD PTR fs:__except_list, ecx
  000a2	8b e5		 mov	 esp, ebp
  000a4	5d		 pop	 ebp
  000a5	c3		 ret	 0
_TEXT	ENDS
;	COMDAT text$x
text$x	SEGMENT
$L199067:
  00000	8d 4d f0	 lea	 ecx, DWORD PTR _strResult$[ebp]
  00003	ff 25 00 00 00
	00		 jmp	 DWORD PTR __imp_??1?$CStringT@DV?$StrTraitMFC_DLL@DV?$ChTraitsCRT@D@ATL@@@@@ATL@@QAE@XZ
__ehhandler$??HATL@@YA?AV?$CStringT@DV?$StrTraitMFC_DLL@DV?$ChTraitsCRT@D@ATL@@@@@0@ABV10@PBD@Z:
  00009	b8 00 00 00 00	 mov	 eax, OFFSET FLAT:$T199072
  0000e	e9 00 00 00 00	 jmp	 ___CxxFrameHandler
text$x	ENDS
??HATL@@YA?AV?$CStringT@DV?$StrTraitMFC_DLL@DV?$ChTraitsCRT@D@ATL@@@@@0@ABV10@PBD@Z ENDP ; ATL::operator+
;	COMDAT xdata$x
xdata$x	SEGMENT
$T199086 DD	0ffffffffH
	DD	FLAT:$L199079
$T199084 DD	019930520H
	DD	01H
	DD	FLAT:$T199086
	DD	2 DUP(00H)
	DD	2 DUP(00H)
; Function compile flags: /Odt
xdata$x	ENDS
;	COMDAT ??HATL@@YA?AV?$CStringT@DV?$StrTraitMFC_DLL@DV?$ChTraitsCRT@D@ATL@@@@@0@PBDABV10@@Z
_TEXT	SEGMENT
$T199081 = -20						; size = 4
_strResult$ = -16					; size = 4
__$EHRec$ = -12						; size = 12
___$ReturnUdt$ = 8					; size = 4
_psz1$ = 12						; size = 4
_str2$ = 16						; size = 4
??HATL@@YA?AV?$CStringT@DV?$StrTraitMFC_DLL@DV?$ChTraitsCRT@D@ATL@@@@@0@PBDABV10@@Z PROC NEAR ; ATL::operator+, COMDAT

; 2032 : 	{

  00000	55		 push	 ebp
  00001	8b ec		 mov	 ebp, esp
  00003	6a ff		 push	 -1
  00005	68 00 00 00 00	 push	 __ehhandler$??HATL@@YA?AV?$CStringT@DV?$StrTraitMFC_DLL@DV?$ChTraitsCRT@D@ATL@@@@@0@PBDABV10@@Z
  0000a	64 a1 00 00 00
	00		 mov	 eax, DWORD PTR fs:__except_list
  00010	50		 push	 eax
  00011	64 89 25 00 00
	00 00		 mov	 DWORD PTR fs:__except_list, esp
  00018	83 ec 08	 sub	 esp, 8
  0001b	c7 45 ec 00 00
	00 00		 mov	 DWORD PTR $T199081[ebp], 0

; 2033 : 		CStringT strResult( str2.GetManager() );

  00022	8b 4d 10	 mov	 ecx, DWORD PTR _str2$[ebp]
  00025	ff 15 00 00 00
	00		 call	 DWORD PTR __imp_?GetManager@?$CSimpleStringT@D$00@ATL@@QBEPAUIAtlStringMgr@2@XZ
  0002b	50		 push	 eax
  0002c	8d 4d f0	 lea	 ecx, DWORD PTR _strResult$[ebp]
  0002f	ff 15 00 00 00
	00		 call	 DWORD PTR __imp_??0?$CStringT@DV?$StrTraitMFC_DLL@DV?$ChTraitsCRT@D@ATL@@@@@ATL@@QAE@PAUIAtlStringMgr@1@@Z
  00035	c7 45 fc 00 00
	00 00		 mov	 DWORD PTR __$EHRec$[ebp+8], 0

; 2034 : 
; 2035 : 		Concatenate( strResult, psz1, StringLength( psz1 ), str2, str2.GetLength() );

  0003c	8b 4d 10	 mov	 ecx, DWORD PTR _str2$[ebp]
  0003f	ff 15 00 00 00
	00		 call	 DWORD PTR __imp_?GetLength@?$CSimpleStringT@D$00@ATL@@QBEHXZ
  00045	50		 push	 eax
  00046	8b 4d 10	 mov	 ecx, DWORD PTR _str2$[ebp]
  00049	ff 15 00 00 00
	00		 call	 DWORD PTR __imp_??B?$CSimpleStringT@D$00@ATL@@QBEPBDXZ
  0004f	50		 push	 eax
  00050	8b 45 0c	 mov	 eax, DWORD PTR _psz1$[ebp]
  00053	50		 push	 eax
  00054	ff 15 00 00 00
	00		 call	 DWORD PTR __imp_?StringLength@?$CSimpleStringT@D$00@ATL@@SAHPBD@Z
  0005a	83 c4 04	 add	 esp, 4
  0005d	50		 push	 eax
  0005e	8b 4d 0c	 mov	 ecx, DWORD PTR _psz1$[ebp]
  00061	51		 push	 ecx
  00062	8d 55 f0	 lea	 edx, DWORD PTR _strResult$[ebp]
  00065	52		 push	 edx
  00066	ff 15 00 00 00
	00		 call	 DWORD PTR __imp_?Concatenate@?$CSimpleStringT@D$00@ATL@@KAXAAV12@PBDH1H@Z
  0006c	83 c4 14	 add	 esp, 20			; 00000014H

; 2036 : 
; 2037 : 		return( strResult );

  0006f	8d 45 f0	 lea	 eax, DWORD PTR _strResult$[ebp]
  00072	50		 push	 eax
  00073	8b 4d 08	 mov	 ecx, DWORD PTR ___$ReturnUdt$[ebp]
  00076	ff 15 00 00 00
	00		 call	 DWORD PTR __imp_??0?$CStringT@DV?$StrTraitMFC_DLL@DV?$ChTraitsCRT@D@ATL@@@@@ATL@@QAE@ABV01@@Z
  0007c	8b 4d ec	 mov	 ecx, DWORD PTR $T199081[ebp]
  0007f	83 c9 01	 or	 ecx, 1
  00082	89 4d ec	 mov	 DWORD PTR $T199081[ebp], ecx
  00085	c7 45 fc ff ff
	ff ff		 mov	 DWORD PTR __$EHRec$[ebp+8], -1
  0008c	8d 4d f0	 lea	 ecx, DWORD PTR _strResult$[ebp]
  0008f	ff 15 00 00 00
	00		 call	 DWORD PTR __imp_??1?$CStringT@DV?$StrTraitMFC_DLL@DV?$ChTraitsCRT@D@ATL@@@@@ATL@@QAE@XZ
  00095	8b 45 08	 mov	 eax, DWORD PTR ___$ReturnUdt$[ebp]

; 2038 : 	}

  00098	8b 4d f4	 mov	 ecx, DWORD PTR __$EHRec$[ebp]
  0009b	64 89 0d 00 00
	00 00		 mov	 DWORD PTR fs:__except_list, ecx
  000a2	8b e5		 mov	 esp, ebp
  000a4	5d		 pop	 ebp
  000a5	c3		 ret	 0
_TEXT	ENDS
;	COMDAT text$x
text$x	SEGMENT
$L199079:
  00000	8d 4d f0	 lea	 ecx, DWORD PTR _strResult$[ebp]
  00003	ff 25 00 00 00
	00		 jmp	 DWORD PTR __imp_??1?$CStringT@DV?$StrTraitMFC_DLL@DV?$ChTraitsCRT@D@ATL@@@@@ATL@@QAE@XZ
__ehhandler$??HATL@@YA?AV?$CStringT@DV?$StrTraitMFC_DLL@DV?$ChTraitsCRT@D@ATL@@@@@0@PBDABV10@@Z:
  00009	b8 00 00 00 00	 mov	 eax, OFFSET FLAT:$T199084
  0000e	e9 00 00 00 00	 jmp	 ___CxxFrameHandler
text$x	ENDS
??HATL@@YA?AV?$CStringT@DV?$StrTraitMFC_DLL@DV?$ChTraitsCRT@D@ATL@@@@@0@PBDABV10@@Z ENDP ; ATL::operator+
EXTRN	__imp_?Compare@?$CStringT@DV?$StrTraitMFC_DLL@DV?$ChTraitsCRT@D@ATL@@@@@ATL@@QBEHPBD@Z:NEAR
; Function compile flags: /Odt
;	COMDAT ??8ATL@@YA_NABV?$CStringT@DV?$StrTraitMFC_DLL@DV?$ChTraitsCRT@D@ATL@@@@@0@0@Z
_TEXT	SEGMENT
_str1$ = 8						; size = 4
_str2$ = 12						; size = 4
??8ATL@@YA_NABV?$CStringT@DV?$StrTraitMFC_DLL@DV?$ChTraitsCRT@D@ATL@@@@@0@0@Z PROC NEAR ; ATL::operator==, COMDAT

; 2081 : 	{

  00000	55		 push	 ebp
  00001	8b ec		 mov	 ebp, esp

; 2082 : 		return( str1.Compare( str2 ) == 0 );

  00003	8b 4d 0c	 mov	 ecx, DWORD PTR _str2$[ebp]
  00006	ff 15 00 00 00
	00		 call	 DWORD PTR __imp_??B?$CSimpleStringT@D$00@ATL@@QBEPBDXZ
  0000c	50		 push	 eax
  0000d	8b 4d 08	 mov	 ecx, DWORD PTR _str1$[ebp]
  00010	ff 15 00 00 00
	00		 call	 DWORD PTR __imp_?Compare@?$CStringT@DV?$StrTraitMFC_DLL@DV?$ChTraitsCRT@D@ATL@@@@@ATL@@QBEHPBD@Z
  00016	f7 d8		 neg	 eax
  00018	1b c0		 sbb	 eax, eax
  0001a	40		 inc	 eax

; 2083 : 	}

  0001b	5d		 pop	 ebp
  0001c	c3		 ret	 0
??8ATL@@YA_NABV?$CStringT@DV?$StrTraitMFC_DLL@DV?$ChTraitsCRT@D@ATL@@@@@0@0@Z ENDP ; ATL::operator==
; Function compile flags: /Odt
_TEXT	ENDS
;	COMDAT ??8ATL@@YA_NABV?$CStringT@DV?$StrTraitMFC_DLL@DV?$ChTraitsCRT@D@ATL@@@@@0@PBD@Z
_TEXT	SEGMENT
_str1$ = 8						; size = 4
_psz2$ = 12						; size = 4
??8ATL@@YA_NABV?$CStringT@DV?$StrTraitMFC_DLL@DV?$ChTraitsCRT@D@ATL@@@@@0@PBD@Z PROC NEAR ; ATL::operator==, COMDAT

; 2087 : 	{

  00000	55		 push	 ebp
  00001	8b ec		 mov	 ebp, esp

; 2088 : 		return( str1.Compare( psz2 ) == 0 );

  00003	8b 45 0c	 mov	 eax, DWORD PTR _psz2$[ebp]
  00006	50		 push	 eax
  00007	8b 4d 08	 mov	 ecx, DWORD PTR _str1$[ebp]
  0000a	ff 15 00 00 00
	00		 call	 DWORD PTR __imp_?Compare@?$CStringT@DV?$StrTraitMFC_DLL@DV?$ChTraitsCRT@D@ATL@@@@@ATL@@QBEHPBD@Z
  00010	f7 d8		 neg	 eax
  00012	1b c0		 sbb	 eax, eax
  00014	40		 inc	 eax

; 2089 : 	}

  00015	5d		 pop	 ebp
  00016	c3		 ret	 0
??8ATL@@YA_NABV?$CStringT@DV?$StrTraitMFC_DLL@DV?$ChTraitsCRT@D@ATL@@@@@0@PBD@Z ENDP ; ATL::operator==
; Function compile flags: /Odt
_TEXT	ENDS
;	COMDAT ??9ATL@@YA_NABV?$CStringT@DV?$StrTraitMFC_DLL@DV?$ChTraitsCRT@D@ATL@@@@@0@PBD@Z
_TEXT	SEGMENT
_str1$ = 8						; size = 4
_psz2$ = 12						; size = 4
??9ATL@@YA_NABV?$CStringT@DV?$StrTraitMFC_DLL@DV?$ChTraitsCRT@D@ATL@@@@@0@PBD@Z PROC NEAR ; ATL::operator!=, COMDAT

; 2121 : 	{

  00000	55		 push	 ebp
  00001	8b ec		 mov	 ebp, esp

; 2122 : 		return( str1.Compare( psz2 ) != 0 );

  00003	8b 45 0c	 mov	 eax, DWORD PTR _psz2$[ebp]
  00006	50		 push	 eax
  00007	8b 4d 08	 mov	 ecx, DWORD PTR _str1$[ebp]
  0000a	ff 15 00 00 00
	00		 call	 DWORD PTR __imp_?Compare@?$CStringT@DV?$StrTraitMFC_DLL@DV?$ChTraitsCRT@D@ATL@@@@@ATL@@QBEHPBD@Z
  00010	f7 d8		 neg	 eax
  00012	1b c0		 sbb	 eax, eax
  00014	f7 d8		 neg	 eax

; 2123 : 	}

  00016	5d		 pop	 ebp
  00017	c3		 ret	 0
??9ATL@@YA_NABV?$CStringT@DV?$StrTraitMFC_DLL@DV?$ChTraitsCRT@D@ATL@@@@@0@PBD@Z ENDP ; ATL::operator!=
; Function compile flags: /Odt
; File d:\program files (x86)\microsoft visual studio .net 2003\vc7\atlmfc\include\afxtempl.h
_TEXT	ENDS
;	COMDAT ?GetSize@?$CArray@UElemPos@CMarkup@@AAU12@@@QBEHXZ
_TEXT	SEGMENT
_this$ = -4						; size = 4
?GetSize@?$CArray@UElemPos@CMarkup@@AAU12@@@QBEHXZ PROC NEAR ; CArray<CMarkup::ElemPos,CMarkup::ElemPos &>::GetSize, COMDAT
; _this$ = ecx

; 272  : 	{ return m_nSize; }

  00000	55		 push	 ebp
  00001	8b ec		 mov	 ebp, esp
  00003	51		 push	 ecx
  00004	89 4d fc	 mov	 DWORD PTR _this$[ebp], ecx
  00007	8b 45 fc	 mov	 eax, DWORD PTR _this$[ebp]
  0000a	8b 40 08	 mov	 eax, DWORD PTR [eax+8]
  0000d	8b e5		 mov	 esp, ebp
  0000f	5d		 pop	 ebp
  00010	c3		 ret	 0
?GetSize@?$CArray@UElemPos@CMarkup@@AAU12@@@QBEHXZ ENDP	; CArray<CMarkup::ElemPos,CMarkup::ElemPos &>::GetSize
_TEXT	ENDS
PUBLIC	?ElementAt@?$CArray@UElemPos@CMarkup@@AAU12@@@QAEAAUElemPos@CMarkup@@H@Z ; CArray<CMarkup::ElemPos,CMarkup::ElemPos &>::ElementAt
; Function compile flags: /Odt
;	COMDAT ??A?$CArray@UElemPos@CMarkup@@AAU12@@@QAEAAUElemPos@CMarkup@@H@Z
_TEXT	SEGMENT
_this$ = -4						; size = 4
_nIndex$ = 8						; size = 4
??A?$CArray@UElemPos@CMarkup@@AAU12@@@QAEAAUElemPos@CMarkup@@H@Z PROC NEAR ; CArray<CMarkup::ElemPos,CMarkup::ElemPos &>::operator[], COMDAT
; _this$ = ecx

; 342  : 	{ return ElementAt(nIndex); }

  00000	55		 push	 ebp
  00001	8b ec		 mov	 ebp, esp
  00003	51		 push	 ecx
  00004	89 4d fc	 mov	 DWORD PTR _this$[ebp], ecx
  00007	8b 45 08	 mov	 eax, DWORD PTR _nIndex$[ebp]
  0000a	50		 push	 eax
  0000b	8b 4d fc	 mov	 ecx, DWORD PTR _this$[ebp]
  0000e	e8 00 00 00 00	 call	 ?ElementAt@?$CArray@UElemPos@CMarkup@@AAU12@@@QAEAAUElemPos@CMarkup@@H@Z ; CArray<CMarkup::ElemPos,CMarkup::ElemPos &>::ElementAt
  00013	8b e5		 mov	 esp, ebp
  00015	5d		 pop	 ebp
  00016	c2 04 00	 ret	 4
??A?$CArray@UElemPos@CMarkup@@AAU12@@@QAEAAUElemPos@CMarkup@@H@Z ENDP ; CArray<CMarkup::ElemPos,CMarkup::ElemPos &>::operator[]
_TEXT	ENDS
PUBLIC	??_R1A@?0A@A@CObject@@8				; CObject::`RTTI Base Class Descriptor at (0,-1,0,0)'
PUBLIC	??_R0?AVCObject@@@8				; CObject `RTTI Type Descriptor'
PUBLIC	??1CObject@@UAE@XZ				; CObject::~CObject
PUBLIC	?AssertValid@CObject@@UBEXXZ			; CObject::AssertValid
PUBLIC	?Dump@CObject@@UBEXAAVCDumpContext@@@Z		; CObject::Dump
PUBLIC	??_R4?$CArray@UElemPos@CMarkup@@AAU12@@@6B@	; CArray<CMarkup::ElemPos,CMarkup::ElemPos &>::`RTTI Complete Object Locator'
PUBLIC	??_R0?AV?$CArray@UElemPos@CMarkup@@AAU12@@@@8	; CArray<CMarkup::ElemPos,CMarkup::ElemPos &> `RTTI Type Descriptor'
PUBLIC	??_R3?$CArray@UElemPos@CMarkup@@AAU12@@@8	; CArray<CMarkup::ElemPos,CMarkup::ElemPos &>::`RTTI Class Hierarchy Descriptor'
PUBLIC	??_R2?$CArray@UElemPos@CMarkup@@AAU12@@@8	; CArray<CMarkup::ElemPos,CMarkup::ElemPos &>::`RTTI Base Class Array'
PUBLIC	??_R1A@?0A@A@?$CArray@UElemPos@CMarkup@@AAU12@@@8 ; CArray<CMarkup::ElemPos,CMarkup::ElemPos &>::`RTTI Base Class Descriptor at (0,-1,0,0)'
PUBLIC	?Serialize@?$CArray@UElemPos@CMarkup@@AAU12@@@UAEXAAVCArchive@@@Z ; CArray<CMarkup::ElemPos,CMarkup::ElemPos &>::Serialize
PUBLIC	??_7?$CArray@UElemPos@CMarkup@@AAU12@@@6B@	; CArray<CMarkup::ElemPos,CMarkup::ElemPos &>::`vftable'
PUBLIC	??_G?$CArray@UElemPos@CMarkup@@AAU12@@@UAEPAXI@Z ; CArray<CMarkup::ElemPos,CMarkup::ElemPos &>::`scalar deleting destructor'
EXTRN	?GetRuntimeClass@CObject@@UBEPAUCRuntimeClass@@XZ:NEAR ; CObject::GetRuntimeClass
EXTRN	??_E?$CArray@UElemPos@CMarkup@@AAU12@@@UAEPAXI@Z:NEAR ; CArray<CMarkup::ElemPos,CMarkup::ElemPos &>::`vector deleting destructor'
;	COMDAT ??_7?$CArray@UElemPos@CMarkup@@AAU12@@@6B@
CONST	SEGMENT
??_7?$CArray@UElemPos@CMarkup@@AAU12@@@6B@ DD FLAT:??_R4?$CArray@UElemPos@CMarkup@@AAU12@@@6B@ ; CArray<CMarkup::ElemPos,CMarkup::ElemPos &>::`vftable'
	DD	FLAT:?GetRuntimeClass@CObject@@UBEPAUCRuntimeClass@@XZ
	DD	FLAT:??_E?$CArray@UElemPos@CMarkup@@AAU12@@@UAEPAXI@Z
	DD	FLAT:?Serialize@?$CArray@UElemPos@CMarkup@@AAU12@@@UAEXAAVCArchive@@@Z
	DD	FLAT:?AssertValid@CObject@@UBEXXZ
	DD	FLAT:?Dump@CObject@@UBEXAAVCDumpContext@@@Z
CONST	ENDS
;	COMDAT ??_R4?$CArray@UElemPos@CMarkup@@AAU12@@@6B@
rdata$r	SEGMENT
??_R4?$CArray@UElemPos@CMarkup@@AAU12@@@6B@ DD 00H	; CArray<CMarkup::ElemPos,CMarkup::ElemPos &>::`RTTI Complete Object Locator'
	DD	00H
	DD	00H
	DD	FLAT:??_R0?AV?$CArray@UElemPos@CMarkup@@AAU12@@@@8
	DD	FLAT:??_R3?$CArray@UElemPos@CMarkup@@AAU12@@@8
rdata$r	ENDS
;	COMDAT ??_R0?AV?$CArray@UElemPos@CMarkup@@AAU12@@@@8
_DATA	SEGMENT
??_R0?AV?$CArray@UElemPos@CMarkup@@AAU12@@@@8 DD FLAT:??_7type_info@@6B@ ; CArray<CMarkup::ElemPos,CMarkup::ElemPos &> `RTTI Type Descriptor'
	DD	00H
	DB	'.?AV?$CArray@UElemPos@CMarkup@@AAU12@@@', 00H
_DATA	ENDS
;	COMDAT ??_R3?$CArray@UElemPos@CMarkup@@AAU12@@@8
rdata$r	SEGMENT
??_R3?$CArray@UElemPos@CMarkup@@AAU12@@@8 DD 00H	; CArray<CMarkup::ElemPos,CMarkup::ElemPos &>::`RTTI Class Hierarchy Descriptor'
	DD	00H
	DD	02H
	DD	FLAT:??_R2?$CArray@UElemPos@CMarkup@@AAU12@@@8
rdata$r	ENDS
;	COMDAT ??_R2?$CArray@UElemPos@CMarkup@@AAU12@@@8
rdata$r	SEGMENT
??_R2?$CArray@UElemPos@CMarkup@@AAU12@@@8 DD FLAT:??_R1A@?0A@A@?$CArray@UElemPos@CMarkup@@AAU12@@@8 ; CArray<CMarkup::ElemPos,CMarkup::ElemPos &>::`RTTI Base Class Array'
	DD	FLAT:??_R1A@?0A@A@CObject@@8
rdata$r	ENDS
;	COMDAT ??_R1A@?0A@A@?$CArray@UElemPos@CMarkup@@AAU12@@@8
rdata$r	SEGMENT
??_R1A@?0A@A@?$CArray@UElemPos@CMarkup@@AAU12@@@8 DD FLAT:??_R0?AV?$CArray@UElemPos@CMarkup@@AAU12@@@@8 ; CArray<CMarkup::ElemPos,CMarkup::ElemPos &>::`RTTI Base Class Descriptor at (0,-1,0,0)'
	DD	01H
	DD	00H
	DD	0ffffffffH
	DD	00H
	DD	00H
rdata$r	ENDS
;	COMDAT ??_R1A@?0A@A@CObject@@8
rdata$r	SEGMENT
??_R1A@?0A@A@CObject@@8 DD FLAT:??_R0?AVCObject@@@8	; CObject::`RTTI Base Class Descriptor at (0,-1,0,0)'
	DD	00H
	DD	00H
	DD	0ffffffffH
	DD	00H
	DD	00H
rdata$r	ENDS
;	COMDAT ??_R0?AVCObject@@@8
_DATA	SEGMENT
??_R0?AVCObject@@@8 DD FLAT:??_7type_info@@6B@		; CObject `RTTI Type Descriptor'
	DD	00H
	DB	'.?AVCObject@@', 00H
; Function compile flags: /Odt
_DATA	ENDS
;	COMDAT ??1?$CArray@UElemPos@CMarkup@@AAU12@@@UAE@XZ
_TEXT	SEGMENT
_this$ = -12						; size = 4
$T199101 = -8						; size = 4
_i$198339 = -4						; size = 4
??1?$CArray@UElemPos@CMarkup@@AAU12@@@UAE@XZ PROC NEAR	; CArray<CMarkup::ElemPos,CMarkup::ElemPos &>::~CArray<CMarkup::ElemPos,CMarkup::ElemPos &>, COMDAT
; _this$ = ecx

; 356  : {

  00000	55		 push	 ebp
  00001	8b ec		 mov	 ebp, esp
  00003	83 ec 0c	 sub	 esp, 12			; 0000000cH
  00006	89 4d f4	 mov	 DWORD PTR _this$[ebp], ecx
  00009	8b 45 f4	 mov	 eax, DWORD PTR _this$[ebp]
  0000c	c7 00 00 00 00
	00		 mov	 DWORD PTR [eax], OFFSET FLAT:??_7?$CArray@UElemPos@CMarkup@@AAU12@@@6B@

; 357  : 	ASSERT_VALID(this);
; 358  : 
; 359  : 	if (m_pData != NULL)

  00012	8b 4d f4	 mov	 ecx, DWORD PTR _this$[ebp]
  00015	83 79 04 00	 cmp	 DWORD PTR [ecx+4], 0
  00019	74 34		 je	 SHORT $L198336

; 360  : 	{
; 361  : 		for( int i = 0; i < m_nSize; i++ )

  0001b	c7 45 fc 00 00
	00 00		 mov	 DWORD PTR _i$198339[ebp], 0
  00022	eb 09		 jmp	 SHORT $L198340
$L198341:
  00024	8b 55 fc	 mov	 edx, DWORD PTR _i$198339[ebp]
  00027	83 c2 01	 add	 edx, 1
  0002a	89 55 fc	 mov	 DWORD PTR _i$198339[ebp], edx
$L198340:
  0002d	8b 45 f4	 mov	 eax, DWORD PTR _this$[ebp]
  00030	8b 4d fc	 mov	 ecx, DWORD PTR _i$198339[ebp]
  00033	3b 48 08	 cmp	 ecx, DWORD PTR [eax+8]
  00036	7d 02		 jge	 SHORT $L198342

; 362  : 			(m_pData + i)->~TYPE();

  00038	eb ea		 jmp	 SHORT $L198341
$L198342:

; 363  : 		delete[] (BYTE*)m_pData;

  0003a	8b 55 f4	 mov	 edx, DWORD PTR _this$[ebp]
  0003d	8b 42 04	 mov	 eax, DWORD PTR [edx+4]
  00040	89 45 f8	 mov	 DWORD PTR $T199101[ebp], eax
  00043	8b 4d f8	 mov	 ecx, DWORD PTR $T199101[ebp]
  00046	51		 push	 ecx
  00047	e8 00 00 00 00	 call	 ??_V@YAXPAX@Z		; operator delete[]
  0004c	83 c4 04	 add	 esp, 4
$L198336:

; 364  : 	}
; 365  : }

  0004f	8b 4d f4	 mov	 ecx, DWORD PTR _this$[ebp]
  00052	e8 00 00 00 00	 call	 ??1CObject@@UAE@XZ	; CObject::~CObject
  00057	8b e5		 mov	 esp, ebp
  00059	5d		 pop	 ebp
  0005a	c3		 ret	 0
??1?$CArray@UElemPos@CMarkup@@AAU12@@@UAE@XZ ENDP	; CArray<CMarkup::ElemPos,CMarkup::ElemPos &>::~CArray<CMarkup::ElemPos,CMarkup::ElemPos &>
_TEXT	ENDS
PUBLIC	?Serialize@CObject@@UAEXAAVCArchive@@@Z		; CObject::Serialize
PUBLIC	?IsStoring@CArchive@@QBEHXZ			; CArchive::IsStoring
PUBLIC	??$SerializeElements@UElemPos@CMarkup@@@@YGXAAVCArchive@@PAUElemPos@CMarkup@@H@Z ; SerializeElements<CMarkup::ElemPos>
PUBLIC	?SetSize@?$CArray@UElemPos@CMarkup@@AAU12@@@QAEXHH@Z ; CArray<CMarkup::ElemPos,CMarkup::ElemPos &>::SetSize
EXTRN	?ReadCount@CArchive@@QAEKXZ:NEAR		; CArchive::ReadCount
EXTRN	?WriteCount@CArchive@@QAEXK@Z:NEAR		; CArchive::WriteCount
; Function compile flags: /Odt
;	COMDAT ?Serialize@?$CArray@UElemPos@CMarkup@@AAU12@@@UAEXAAVCArchive@@@Z
_TEXT	SEGMENT
_this$ = -8						; size = 4
_nOldSize$198354 = -4					; size = 4
_ar$ = 8						; size = 4
?Serialize@?$CArray@UElemPos@CMarkup@@AAU12@@@UAEXAAVCArchive@@@Z PROC NEAR ; CArray<CMarkup::ElemPos,CMarkup::ElemPos &>::Serialize, COMDAT
; _this$ = ecx

; 629  : {

  00000	55		 push	 ebp
  00001	8b ec		 mov	 ebp, esp
  00003	83 ec 08	 sub	 esp, 8
  00006	89 4d f8	 mov	 DWORD PTR _this$[ebp], ecx

; 630  : 	ASSERT_VALID(this);
; 631  : 
; 632  : 	CObject::Serialize(ar);

  00009	8b 45 08	 mov	 eax, DWORD PTR _ar$[ebp]
  0000c	50		 push	 eax
  0000d	8b 4d f8	 mov	 ecx, DWORD PTR _this$[ebp]
  00010	e8 00 00 00 00	 call	 ?Serialize@CObject@@UAEXAAVCArchive@@@Z ; CObject::Serialize

; 633  : 	if (ar.IsStoring())

  00015	8b 4d 08	 mov	 ecx, DWORD PTR _ar$[ebp]
  00018	e8 00 00 00 00	 call	 ?IsStoring@CArchive@@QBEHXZ ; CArchive::IsStoring
  0001d	85 c0		 test	 eax, eax
  0001f	74 11		 je	 SHORT $L198352

; 634  : 	{
; 635  : 		ar.WriteCount(m_nSize);

  00021	8b 4d f8	 mov	 ecx, DWORD PTR _this$[ebp]
  00024	8b 51 08	 mov	 edx, DWORD PTR [ecx+8]
  00027	52		 push	 edx
  00028	8b 4d 08	 mov	 ecx, DWORD PTR _ar$[ebp]
  0002b	e8 00 00 00 00	 call	 ?WriteCount@CArchive@@QAEXK@Z ; CArchive::WriteCount

; 636  : 	}
; 637  : 	else

  00030	eb 19		 jmp	 SHORT $L198353
$L198352:

; 638  : 	{
; 639  : 		DWORD_PTR nOldSize = ar.ReadCount();

  00032	8b 4d 08	 mov	 ecx, DWORD PTR _ar$[ebp]
  00035	e8 00 00 00 00	 call	 ?ReadCount@CArchive@@QAEKXZ ; CArchive::ReadCount
  0003a	89 45 fc	 mov	 DWORD PTR _nOldSize$198354[ebp], eax

; 640  : 		SetSize(nOldSize, -1);

  0003d	6a ff		 push	 -1
  0003f	8b 45 fc	 mov	 eax, DWORD PTR _nOldSize$198354[ebp]
  00042	50		 push	 eax
  00043	8b 4d f8	 mov	 ecx, DWORD PTR _this$[ebp]
  00046	e8 00 00 00 00	 call	 ?SetSize@?$CArray@UElemPos@CMarkup@@AAU12@@@QAEXHH@Z ; CArray<CMarkup::ElemPos,CMarkup::ElemPos &>::SetSize
$L198353:

; 641  : 	}
; 642  : 	SerializeElements<TYPE>(ar, m_pData, m_nSize);

  0004b	8b 4d f8	 mov	 ecx, DWORD PTR _this$[ebp]
  0004e	8b 51 08	 mov	 edx, DWORD PTR [ecx+8]
  00051	52		 push	 edx
  00052	8b 45 f8	 mov	 eax, DWORD PTR _this$[ebp]
  00055	8b 48 04	 mov	 ecx, DWORD PTR [eax+4]
  00058	51		 push	 ecx
  00059	8b 55 08	 mov	 edx, DWORD PTR _ar$[ebp]
  0005c	52		 push	 edx
  0005d	e8 00 00 00 00	 call	 ??$SerializeElements@UElemPos@CMarkup@@@@YGXAAVCArchive@@PAUElemPos@CMarkup@@H@Z ; SerializeElements<CMarkup::ElemPos>

; 643  : }

  00062	8b e5		 mov	 esp, ebp
  00064	5d		 pop	 ebp
  00065	c2 04 00	 ret	 4
?Serialize@?$CArray@UElemPos@CMarkup@@AAU12@@@UAEXAAVCArchive@@@Z ENDP ; CArray<CMarkup::ElemPos,CMarkup::ElemPos &>::Serialize
_TEXT	ENDS
PUBLIC	??3CObject@@SGXPAX@Z				; CObject::operator delete
; Function compile flags: /Odt
;	COMDAT ??_G?$CArray@UElemPos@CMarkup@@AAU12@@@UAEPAXI@Z
_TEXT	SEGMENT
_this$ = -4						; size = 4
___flags$ = 8						; size = 4
??_G?$CArray@UElemPos@CMarkup@@AAU12@@@UAEPAXI@Z PROC NEAR ; CArray<CMarkup::ElemPos,CMarkup::ElemPos &>::`scalar deleting destructor', COMDAT
; _this$ = ecx
  00000	55		 push	 ebp
  00001	8b ec		 mov	 ebp, esp
  00003	51		 push	 ecx
  00004	89 4d fc	 mov	 DWORD PTR _this$[ebp], ecx
  00007	8b 4d fc	 mov	 ecx, DWORD PTR _this$[ebp]
  0000a	e8 00 00 00 00	 call	 ??1?$CArray@UElemPos@CMarkup@@AAU12@@@UAE@XZ ; CArray<CMarkup::ElemPos,CMarkup::ElemPos &>::~CArray<CMarkup::ElemPos,CMarkup::ElemPos &>
  0000f	8b 45 08	 mov	 eax, DWORD PTR ___flags$[ebp]
  00012	83 e0 01	 and	 eax, 1
  00015	74 09		 je	 SHORT $L198375
  00017	8b 4d fc	 mov	 ecx, DWORD PTR _this$[ebp]
  0001a	51		 push	 ecx
  0001b	e8 00 00 00 00	 call	 ??3CObject@@SGXPAX@Z	; CObject::operator delete
$L198375:
  00020	8b 45 fc	 mov	 eax, DWORD PTR _this$[ebp]
  00023	8b e5		 mov	 esp, ebp
  00025	5d		 pop	 ebp
  00026	c2 04 00	 ret	 4
??_G?$CArray@UElemPos@CMarkup@@AAU12@@@UAEPAXI@Z ENDP	; CArray<CMarkup::ElemPos,CMarkup::ElemPos &>::`scalar deleting destructor'
_TEXT	ENDS
PUBLIC	??2@YAPAXIPAX@Z					; operator new
PUBLIC	??3@YAXPAX0@Z					; operator delete
PUBLIC	??0ElemPos@CMarkup@@QAE@XZ			; CMarkup::ElemPos::ElemPos
EXTRN	?AfxThrowInvalidArgException@@YGXXZ:NEAR	; AfxThrowInvalidArgException
EXTRN	_memcpy:NEAR
EXTRN	_memset:NEAR
;	COMDAT xdata$x
xdata$x	SEGMENT
$T199137 DD	0ffffffffH
	DD	FLAT:$L199131
	DD	0ffffffffH
	DD	FLAT:$L199132
	DD	0ffffffffH
	DD	FLAT:$L199133
$T199135 DD	019930520H
	DD	03H
	DD	FLAT:$T199137
	DD	2 DUP(00H)
	DD	2 DUP(00H)
; Function compile flags: /Odt
xdata$x	ENDS
;	COMDAT ?SetSize@?$CArray@UElemPos@CMarkup@@AAU12@@@QAEXHH@Z
_TEXT	SEGMENT
tv246 = -112						; size = 4
tv196 = -108						; size = 4
tv197 = -104						; size = 4
tv183 = -100						; size = 4
tv142 = -96						; size = 4
tv83 = -92						; size = 4
_this$ = -88						; size = 4
$T199130 = -84						; size = 4
$T199127 = -80						; size = 4
$T199126 = -76						; size = 4
$T199125 = -72						; size = 4
$T199118 = -68						; size = 4
$T199117 = -64						; size = 4
$T199114 = -60						; size = 4
$T199113 = -56						; size = 4
$T199112 = -52						; size = 4
$T199109 = -48						; size = 4
_i$198459 = -44						; size = 4
_pNewData$198447 = -40					; size = 4
_nNewMax$198441 = -36					; size = 4
_i$198435 = -32						; size = 4
_i$198423 = -28						; size = 4
_i$198407 = -24						; size = 4
_nAllocSize$198398 = -20				; size = 4
_i$198389 = -16						; size = 4
__$EHRec$ = -12						; size = 12
_nNewSize$ = 8						; size = 4
_nGrowBy$ = 12						; size = 4
?SetSize@?$CArray@UElemPos@CMarkup@@AAU12@@@QAEXHH@Z PROC NEAR ; CArray<CMarkup::ElemPos,CMarkup::ElemPos &>::SetSize, COMDAT
; _this$ = ecx

; 369  : {

  00000	55		 push	 ebp
  00001	8b ec		 mov	 ebp, esp
  00003	6a ff		 push	 -1
  00005	68 00 00 00 00	 push	 __ehhandler$?SetSize@?$CArray@UElemPos@CMarkup@@AAU12@@@QAEXHH@Z
  0000a	64 a1 00 00 00
	00		 mov	 eax, DWORD PTR fs:__except_list
  00010	50		 push	 eax
  00011	64 89 25 00 00
	00 00		 mov	 DWORD PTR fs:__except_list, esp
  00018	83 ec 64	 sub	 esp, 100		; 00000064H
  0001b	89 4d a8	 mov	 DWORD PTR _this$[ebp], ecx

; 370  : 	ASSERT_VALID(this);
; 371  : 	ASSERT(nNewSize >= 0);
; 372  : 
; 373  : 	if(nNewSize < 0 )

  0001e	83 7d 08 00	 cmp	 DWORD PTR _nNewSize$[ebp], 0
  00022	7d 05		 jge	 SHORT $L198385

; 374  : 		AfxThrowInvalidArgException();

  00024	e8 00 00 00 00	 call	 ?AfxThrowInvalidArgException@@YGXXZ ; AfxThrowInvalidArgException
$L198385:

; 375  : 
; 376  : 	if (nGrowBy >= 0)

  00029	83 7d 0c 00	 cmp	 DWORD PTR _nGrowBy$[ebp], 0
  0002d	7c 09		 jl	 SHORT $L198386

; 377  : 		m_nGrowBy = nGrowBy;  // set new size

  0002f	8b 45 a8	 mov	 eax, DWORD PTR _this$[ebp]
  00032	8b 4d 0c	 mov	 ecx, DWORD PTR _nGrowBy$[ebp]
  00035	89 48 10	 mov	 DWORD PTR [eax+16], ecx
$L198386:

; 378  : 
; 379  : 	if (nNewSize == 0)

  00038	83 7d 08 00	 cmp	 DWORD PTR _nNewSize$[ebp], 0
  0003c	75 60		 jne	 SHORT $L198387

; 380  : 	{
; 381  : 		// shrink to nothing
; 382  : 		if (m_pData != NULL)

  0003e	8b 55 a8	 mov	 edx, DWORD PTR _this$[ebp]
  00041	83 7a 04 00	 cmp	 DWORD PTR [edx+4], 0
  00045	74 3e		 je	 SHORT $L198388

; 383  : 		{
; 384  : 			for( int i = 0; i < m_nSize; i++ )

  00047	c7 45 f0 00 00
	00 00		 mov	 DWORD PTR _i$198389[ebp], 0
  0004e	eb 09		 jmp	 SHORT $L198390
$L198391:
  00050	8b 45 f0	 mov	 eax, DWORD PTR _i$198389[ebp]
  00053	83 c0 01	 add	 eax, 1
  00056	89 45 f0	 mov	 DWORD PTR _i$198389[ebp], eax
$L198390:
  00059	8b 4d a8	 mov	 ecx, DWORD PTR _this$[ebp]
  0005c	8b 55 f0	 mov	 edx, DWORD PTR _i$198389[ebp]
  0005f	3b 51 08	 cmp	 edx, DWORD PTR [ecx+8]
  00062	7d 02		 jge	 SHORT $L198392

; 385  : 				(m_pData + i)->~TYPE();

  00064	eb ea		 jmp	 SHORT $L198391
$L198392:

; 386  : 			delete[] (BYTE*)m_pData;

  00066	8b 45 a8	 mov	 eax, DWORD PTR _this$[ebp]
  00069	8b 48 04	 mov	 ecx, DWORD PTR [eax+4]
  0006c	89 4d d0	 mov	 DWORD PTR $T199109[ebp], ecx
  0006f	8b 55 d0	 mov	 edx, DWORD PTR $T199109[ebp]
  00072	52		 push	 edx
  00073	e8 00 00 00 00	 call	 ??_V@YAXPAX@Z		; operator delete[]
  00078	83 c4 04	 add	 esp, 4

; 387  : 			m_pData = NULL;

  0007b	8b 45 a8	 mov	 eax, DWORD PTR _this$[ebp]
  0007e	c7 40 04 00 00
	00 00		 mov	 DWORD PTR [eax+4], 0
$L198388:

; 388  : 		}
; 389  : 		m_nSize = m_nMaxSize = 0;

  00085	8b 4d a8	 mov	 ecx, DWORD PTR _this$[ebp]
  00088	c7 41 0c 00 00
	00 00		 mov	 DWORD PTR [ecx+12], 0
  0008f	8b 55 a8	 mov	 edx, DWORD PTR _this$[ebp]
  00092	c7 42 08 00 00
	00 00		 mov	 DWORD PTR [edx+8], 0

; 390  : 	}
; 391  : 	else if (m_pData == NULL)

  00099	e9 57 03 00 00	 jmp	 $L199108
$L198387:
  0009e	8b 45 a8	 mov	 eax, DWORD PTR _this$[ebp]
  000a1	83 78 04 00	 cmp	 DWORD PTR [eax+4], 0
  000a5	0f 85 d0 00 00
	00		 jne	 $L198396

; 392  : 	{
; 393  : 		// create buffer big enough to hold number of requested elements or
; 394  : 		// m_nGrowBy elements, whichever is larger.
; 395  : #ifdef SIZE_T_MAX
; 396  : 		ASSERT(nNewSize <= SIZE_T_MAX/sizeof(TYPE));    // no overflow
; 397  : #endif
; 398  : 		size_t nAllocSize = max(nNewSize, m_nGrowBy);

  000ab	8b 4d a8	 mov	 ecx, DWORD PTR _this$[ebp]
  000ae	8b 55 08	 mov	 edx, DWORD PTR _nNewSize$[ebp]
  000b1	3b 51 10	 cmp	 edx, DWORD PTR [ecx+16]
  000b4	7e 08		 jle	 SHORT $L199110
  000b6	8b 45 08	 mov	 eax, DWORD PTR _nNewSize$[ebp]
  000b9	89 45 a4	 mov	 DWORD PTR tv83[ebp], eax
  000bc	eb 09		 jmp	 SHORT $L199111
$L199110:
  000be	8b 4d a8	 mov	 ecx, DWORD PTR _this$[ebp]
  000c1	8b 51 10	 mov	 edx, DWORD PTR [ecx+16]
  000c4	89 55 a4	 mov	 DWORD PTR tv83[ebp], edx
$L199111:
  000c7	8b 45 a4	 mov	 eax, DWORD PTR tv83[ebp]
  000ca	89 45 ec	 mov	 DWORD PTR _nAllocSize$198398[ebp], eax

; 399  : 		m_pData = (TYPE*) new BYTE[(size_t)nAllocSize * sizeof(TYPE)];

  000cd	8b 4d ec	 mov	 ecx, DWORD PTR _nAllocSize$198398[ebp]
  000d0	c1 e1 05	 shl	 ecx, 5
  000d3	51		 push	 ecx
  000d4	e8 00 00 00 00	 call	 ??_U@YAPAXI@Z		; operator new[]
  000d9	83 c4 04	 add	 esp, 4
  000dc	89 45 cc	 mov	 DWORD PTR $T199112[ebp], eax
  000df	8b 55 a8	 mov	 edx, DWORD PTR _this$[ebp]
  000e2	8b 45 cc	 mov	 eax, DWORD PTR $T199112[ebp]
  000e5	89 42 04	 mov	 DWORD PTR [edx+4], eax

; 400  : 		memset((void*)m_pData, 0, (size_t)nAllocSize * sizeof(TYPE));

  000e8	8b 4d ec	 mov	 ecx, DWORD PTR _nAllocSize$198398[ebp]
  000eb	c1 e1 05	 shl	 ecx, 5
  000ee	51		 push	 ecx
  000ef	6a 00		 push	 0
  000f1	8b 55 a8	 mov	 edx, DWORD PTR _this$[ebp]
  000f4	8b 42 04	 mov	 eax, DWORD PTR [edx+4]
  000f7	50		 push	 eax
  000f8	e8 00 00 00 00	 call	 _memset
  000fd	83 c4 0c	 add	 esp, 12			; 0000000cH

; 401  : 		for( int i = 0; i < nNewSize; i++ )

  00100	c7 45 e8 00 00
	00 00		 mov	 DWORD PTR _i$198407[ebp], 0
  00107	eb 09		 jmp	 SHORT $L198408
$L198409:
  00109	8b 4d e8	 mov	 ecx, DWORD PTR _i$198407[ebp]
  0010c	83 c1 01	 add	 ecx, 1
  0010f	89 4d e8	 mov	 DWORD PTR _i$198407[ebp], ecx
$L198408:
  00112	8b 55 e8	 mov	 edx, DWORD PTR _i$198407[ebp]
  00115	3b 55 08	 cmp	 edx, DWORD PTR _nNewSize$[ebp]
  00118	7d 4a		 jge	 SHORT $L198410

; 402  : #pragma push_macro("new")
; 403  : #undef new
; 404  : 			::new( (void*)( m_pData + i ) ) TYPE;

  0011a	8b 45 e8	 mov	 eax, DWORD PTR _i$198407[ebp]
  0011d	c1 e0 05	 shl	 eax, 5
  00120	8b 4d a8	 mov	 ecx, DWORD PTR _this$[ebp]
  00123	03 41 04	 add	 eax, DWORD PTR [ecx+4]
  00126	50		 push	 eax
  00127	6a 20		 push	 32			; 00000020H
  00129	e8 00 00 00 00	 call	 ??2@YAPAXIPAX@Z		; operator new
  0012e	83 c4 08	 add	 esp, 8
  00131	89 45 c4	 mov	 DWORD PTR $T199114[ebp], eax
  00134	c7 45 fc 00 00
	00 00		 mov	 DWORD PTR __$EHRec$[ebp+8], 0
  0013b	83 7d c4 00	 cmp	 DWORD PTR $T199114[ebp], 0
  0013f	74 0d		 je	 SHORT $L199115
  00141	8b 4d c4	 mov	 ecx, DWORD PTR $T199114[ebp]
  00144	e8 00 00 00 00	 call	 ??0ElemPos@CMarkup@@QAE@XZ ; CMarkup::ElemPos::ElemPos
  00149	89 45 a0	 mov	 DWORD PTR tv142[ebp], eax
  0014c	eb 07		 jmp	 SHORT $L199116
$L199115:
  0014e	c7 45 a0 00 00
	00 00		 mov	 DWORD PTR tv142[ebp], 0
$L199116:
  00155	8b 55 a0	 mov	 edx, DWORD PTR tv142[ebp]
  00158	89 55 c8	 mov	 DWORD PTR $T199113[ebp], edx
  0015b	c7 45 fc ff ff
	ff ff		 mov	 DWORD PTR __$EHRec$[ebp+8], -1
  00162	eb a5		 jmp	 SHORT $L198409
$L198410:

; 405  : #pragma pop_macro("new")
; 406  : 		m_nSize = nNewSize;

  00164	8b 45 a8	 mov	 eax, DWORD PTR _this$[ebp]
  00167	8b 4d 08	 mov	 ecx, DWORD PTR _nNewSize$[ebp]
  0016a	89 48 08	 mov	 DWORD PTR [eax+8], ecx

; 407  : 		m_nMaxSize = nAllocSize;

  0016d	8b 55 a8	 mov	 edx, DWORD PTR _this$[ebp]
  00170	8b 45 ec	 mov	 eax, DWORD PTR _nAllocSize$198398[ebp]
  00173	89 42 0c	 mov	 DWORD PTR [edx+12], eax

; 408  : 	}
; 409  : 	else if (nNewSize <= m_nMaxSize)

  00176	e9 7a 02 00 00	 jmp	 $L199108
$L198396:
  0017b	8b 4d a8	 mov	 ecx, DWORD PTR _this$[ebp]
  0017e	8b 55 08	 mov	 edx, DWORD PTR _nNewSize$[ebp]
  00181	3b 51 0c	 cmp	 edx, DWORD PTR [ecx+12]
  00184	0f 8f ea 00 00
	00		 jg	 $L198418

; 410  : 	{
; 411  : 		// it fits
; 412  : 		if (nNewSize > m_nSize)

  0018a	8b 45 a8	 mov	 eax, DWORD PTR _this$[ebp]
  0018d	8b 4d 08	 mov	 ecx, DWORD PTR _nNewSize$[ebp]
  00190	3b 48 08	 cmp	 ecx, DWORD PTR [eax+8]
  00193	0f 8e a0 00 00
	00		 jle	 $L198419

; 413  : 		{
; 414  : 			// initialize the new elements
; 415  : 			memset((void*)(m_pData + m_nSize), 0, (size_t)(nNewSize-m_nSize) * sizeof(TYPE));

  00199	8b 55 a8	 mov	 edx, DWORD PTR _this$[ebp]
  0019c	8b 45 08	 mov	 eax, DWORD PTR _nNewSize$[ebp]
  0019f	2b 42 08	 sub	 eax, DWORD PTR [edx+8]
  001a2	c1 e0 05	 shl	 eax, 5
  001a5	50		 push	 eax
  001a6	6a 00		 push	 0
  001a8	8b 4d a8	 mov	 ecx, DWORD PTR _this$[ebp]
  001ab	8b 51 08	 mov	 edx, DWORD PTR [ecx+8]
  001ae	c1 e2 05	 shl	 edx, 5
  001b1	8b 45 a8	 mov	 eax, DWORD PTR _this$[ebp]
  001b4	03 50 04	 add	 edx, DWORD PTR [eax+4]
  001b7	52		 push	 edx
  001b8	e8 00 00 00 00	 call	 _memset
  001bd	83 c4 0c	 add	 esp, 12			; 0000000cH

; 416  : 			for( int i = 0; i < nNewSize-m_nSize; i++ )

  001c0	c7 45 e4 00 00
	00 00		 mov	 DWORD PTR _i$198423[ebp], 0
  001c7	eb 09		 jmp	 SHORT $L198424
$L198425:
  001c9	8b 4d e4	 mov	 ecx, DWORD PTR _i$198423[ebp]
  001cc	83 c1 01	 add	 ecx, 1
  001cf	89 4d e4	 mov	 DWORD PTR _i$198423[ebp], ecx
$L198424:
  001d2	8b 55 a8	 mov	 edx, DWORD PTR _this$[ebp]
  001d5	8b 45 08	 mov	 eax, DWORD PTR _nNewSize$[ebp]
  001d8	2b 42 08	 sub	 eax, DWORD PTR [edx+8]
  001db	39 45 e4	 cmp	 DWORD PTR _i$198423[ebp], eax
  001de	7d 57		 jge	 SHORT $L198426

; 417  : #pragma push_macro("new")
; 418  : #undef new
; 419  : 				::new( (void*)( m_pData + m_nSize + i ) ) TYPE;

  001e0	8b 4d a8	 mov	 ecx, DWORD PTR _this$[ebp]
  001e3	8b 51 08	 mov	 edx, DWORD PTR [ecx+8]
  001e6	c1 e2 05	 shl	 edx, 5
  001e9	8b 45 a8	 mov	 eax, DWORD PTR _this$[ebp]
  001ec	8b 48 04	 mov	 ecx, DWORD PTR [eax+4]
  001ef	03 ca		 add	 ecx, edx
  001f1	8b 55 e4	 mov	 edx, DWORD PTR _i$198423[ebp]
  001f4	c1 e2 05	 shl	 edx, 5
  001f7	03 ca		 add	 ecx, edx
  001f9	51		 push	 ecx
  001fa	6a 20		 push	 32			; 00000020H
  001fc	e8 00 00 00 00	 call	 ??2@YAPAXIPAX@Z		; operator new
  00201	83 c4 08	 add	 esp, 8
  00204	89 45 bc	 mov	 DWORD PTR $T199118[ebp], eax
  00207	c7 45 fc 01 00
	00 00		 mov	 DWORD PTR __$EHRec$[ebp+8], 1
  0020e	83 7d bc 00	 cmp	 DWORD PTR $T199118[ebp], 0
  00212	74 0d		 je	 SHORT $L199119
  00214	8b 4d bc	 mov	 ecx, DWORD PTR $T199118[ebp]
  00217	e8 00 00 00 00	 call	 ??0ElemPos@CMarkup@@QAE@XZ ; CMarkup::ElemPos::ElemPos
  0021c	89 45 9c	 mov	 DWORD PTR tv183[ebp], eax
  0021f	eb 07		 jmp	 SHORT $L199120
$L199119:
  00221	c7 45 9c 00 00
	00 00		 mov	 DWORD PTR tv183[ebp], 0
$L199120:
  00228	8b 45 9c	 mov	 eax, DWORD PTR tv183[ebp]
  0022b	89 45 c0	 mov	 DWORD PTR $T199117[ebp], eax
  0022e	c7 45 fc ff ff
	ff ff		 mov	 DWORD PTR __$EHRec$[ebp+8], -1
  00235	eb 92		 jmp	 SHORT $L198425
$L198426:

; 420  : #pragma pop_macro("new")
; 421  : 		}
; 422  : 		else if (m_nSize > nNewSize)

  00237	eb 2d		 jmp	 SHORT $L198433
$L198419:
  00239	8b 4d a8	 mov	 ecx, DWORD PTR _this$[ebp]
  0023c	8b 51 08	 mov	 edx, DWORD PTR [ecx+8]
  0023f	3b 55 08	 cmp	 edx, DWORD PTR _nNewSize$[ebp]
  00242	7e 22		 jle	 SHORT $L198433

; 423  : 		{
; 424  : 			// destroy the old elements
; 425  : 			for( int i = 0; i < m_nSize-nNewSize; i++ )

  00244	c7 45 e0 00 00
	00 00		 mov	 DWORD PTR _i$198435[ebp], 0
  0024b	eb 09		 jmp	 SHORT $L198436
$L198437:
  0024d	8b 45 e0	 mov	 eax, DWORD PTR _i$198435[ebp]
  00250	83 c0 01	 add	 eax, 1
  00253	89 45 e0	 mov	 DWORD PTR _i$198435[ebp], eax
$L198436:
  00256	8b 4d a8	 mov	 ecx, DWORD PTR _this$[ebp]
  00259	8b 51 08	 mov	 edx, DWORD PTR [ecx+8]
  0025c	2b 55 08	 sub	 edx, DWORD PTR _nNewSize$[ebp]
  0025f	39 55 e0	 cmp	 DWORD PTR _i$198435[ebp], edx
  00262	7d 02		 jge	 SHORT $L198433

; 426  : 				(m_pData + nNewSize + i)->~TYPE();

  00264	eb e7		 jmp	 SHORT $L198437
$L198433:

; 427  : 		}
; 428  : 		m_nSize = nNewSize;

  00266	8b 45 a8	 mov	 eax, DWORD PTR _this$[ebp]
  00269	8b 4d 08	 mov	 ecx, DWORD PTR _nNewSize$[ebp]
  0026c	89 48 08	 mov	 DWORD PTR [eax+8], ecx

; 429  : 	}
; 430  : 	else

  0026f	e9 81 01 00 00	 jmp	 $L199108
$L198418:

; 431  : 	{
; 432  : 		// otherwise, grow array
; 433  : 		nGrowBy = m_nGrowBy;

  00274	8b 55 a8	 mov	 edx, DWORD PTR _this$[ebp]
  00277	8b 42 10	 mov	 eax, DWORD PTR [edx+16]
  0027a	89 45 0c	 mov	 DWORD PTR _nGrowBy$[ebp], eax

; 434  : 		if (nGrowBy == 0)

  0027d	83 7d 0c 00	 cmp	 DWORD PTR _nGrowBy$[ebp], 0
  00281	75 45		 jne	 SHORT $L198440

; 435  : 		{
; 436  : 			// heuristically determine growth when nGrowBy == 0
; 437  : 			//  (this avoids heap fragmentation in many situations)
; 438  : 			nGrowBy = m_nSize / 8;

  00283	8b 4d a8	 mov	 ecx, DWORD PTR _this$[ebp]
  00286	8b 41 08	 mov	 eax, DWORD PTR [ecx+8]
  00289	99		 cdq
  0028a	83 e2 07	 and	 edx, 7
  0028d	03 c2		 add	 eax, edx
  0028f	c1 f8 03	 sar	 eax, 3
  00292	89 45 0c	 mov	 DWORD PTR _nGrowBy$[ebp], eax

; 439  : 			nGrowBy = (nGrowBy < 4) ? 4 : ((nGrowBy > 1024) ? 1024 : nGrowBy);

  00295	83 7d 0c 04	 cmp	 DWORD PTR _nGrowBy$[ebp], 4
  00299	7d 09		 jge	 SHORT $L199123
  0029b	c7 45 98 04 00
	00 00		 mov	 DWORD PTR tv197[ebp], 4
  002a2	eb 1e		 jmp	 SHORT $L199124
$L199123:
  002a4	81 7d 0c 00 04
	00 00		 cmp	 DWORD PTR _nGrowBy$[ebp], 1024 ; 00000400H
  002ab	7e 09		 jle	 SHORT $L199121
  002ad	c7 45 94 00 04
	00 00		 mov	 DWORD PTR tv196[ebp], 1024 ; 00000400H
  002b4	eb 06		 jmp	 SHORT $L199122
$L199121:
  002b6	8b 55 0c	 mov	 edx, DWORD PTR _nGrowBy$[ebp]
  002b9	89 55 94	 mov	 DWORD PTR tv196[ebp], edx
$L199122:
  002bc	8b 45 94	 mov	 eax, DWORD PTR tv196[ebp]
  002bf	89 45 98	 mov	 DWORD PTR tv197[ebp], eax
$L199124:
  002c2	8b 4d 98	 mov	 ecx, DWORD PTR tv197[ebp]
  002c5	89 4d 0c	 mov	 DWORD PTR _nGrowBy$[ebp], ecx
$L198440:

; 440  : 		}
; 441  : 		INT_PTR nNewMax;
; 442  : 		if (nNewSize < m_nMaxSize + nGrowBy)

  002c8	8b 55 a8	 mov	 edx, DWORD PTR _this$[ebp]
  002cb	8b 42 0c	 mov	 eax, DWORD PTR [edx+12]
  002ce	03 45 0c	 add	 eax, DWORD PTR _nGrowBy$[ebp]
  002d1	39 45 08	 cmp	 DWORD PTR _nNewSize$[ebp], eax
  002d4	7d 0e		 jge	 SHORT $L198442

; 443  : 			nNewMax = m_nMaxSize + nGrowBy;  // granularity

  002d6	8b 4d a8	 mov	 ecx, DWORD PTR _this$[ebp]
  002d9	8b 51 0c	 mov	 edx, DWORD PTR [ecx+12]
  002dc	03 55 0c	 add	 edx, DWORD PTR _nGrowBy$[ebp]
  002df	89 55 dc	 mov	 DWORD PTR _nNewMax$198441[ebp], edx

; 444  : 		else

  002e2	eb 06		 jmp	 SHORT $L198443
$L198442:

; 445  : 			nNewMax = nNewSize;  // no slush

  002e4	8b 45 08	 mov	 eax, DWORD PTR _nNewSize$[ebp]
  002e7	89 45 dc	 mov	 DWORD PTR _nNewMax$198441[ebp], eax
$L198443:

; 446  : 
; 447  : 		ASSERT(nNewMax >= m_nMaxSize);  // no wrap around
; 448  : 		
; 449  : 		if(nNewMax  < m_nMaxSize)

  002ea	8b 4d a8	 mov	 ecx, DWORD PTR _this$[ebp]
  002ed	8b 55 dc	 mov	 edx, DWORD PTR _nNewMax$198441[ebp]
  002f0	3b 51 0c	 cmp	 edx, DWORD PTR [ecx+12]
  002f3	7d 05		 jge	 SHORT $L198445

; 450  : 			AfxThrowInvalidArgException();

  002f5	e8 00 00 00 00	 call	 ?AfxThrowInvalidArgException@@YGXXZ ; AfxThrowInvalidArgException
$L198445:

; 451  : 
; 452  : #ifdef SIZE_T_MAX
; 453  : 		ASSERT(nNewMax <= SIZE_T_MAX/sizeof(TYPE)); // no overflow
; 454  : #endif
; 455  : 		TYPE* pNewData = (TYPE*) new BYTE[(size_t)nNewMax * sizeof(TYPE)];

  002fa	8b 45 dc	 mov	 eax, DWORD PTR _nNewMax$198441[ebp]
  002fd	c1 e0 05	 shl	 eax, 5
  00300	50		 push	 eax
  00301	e8 00 00 00 00	 call	 ??_U@YAPAXI@Z		; operator new[]
  00306	83 c4 04	 add	 esp, 4
  00309	89 45 b8	 mov	 DWORD PTR $T199125[ebp], eax
  0030c	8b 4d b8	 mov	 ecx, DWORD PTR $T199125[ebp]
  0030f	89 4d d8	 mov	 DWORD PTR _pNewData$198447[ebp], ecx

; 456  : 
; 457  : 		// copy new data from old
; 458  : 		memcpy(pNewData, m_pData, (size_t)m_nSize * sizeof(TYPE));

  00312	8b 55 a8	 mov	 edx, DWORD PTR _this$[ebp]
  00315	8b 42 08	 mov	 eax, DWORD PTR [edx+8]
  00318	c1 e0 05	 shl	 eax, 5
  0031b	50		 push	 eax
  0031c	8b 4d a8	 mov	 ecx, DWORD PTR _this$[ebp]
  0031f	8b 51 04	 mov	 edx, DWORD PTR [ecx+4]
  00322	52		 push	 edx
  00323	8b 45 d8	 mov	 eax, DWORD PTR _pNewData$198447[ebp]
  00326	50		 push	 eax
  00327	e8 00 00 00 00	 call	 _memcpy
  0032c	83 c4 0c	 add	 esp, 12			; 0000000cH

; 459  : 
; 460  : 		// construct remaining elements
; 461  : 		ASSERT(nNewSize > m_nSize);
; 462  : 		memset((void*)(pNewData + m_nSize), 0, (size_t)(nNewSize-m_nSize) * sizeof(TYPE));

  0032f	8b 4d a8	 mov	 ecx, DWORD PTR _this$[ebp]
  00332	8b 55 08	 mov	 edx, DWORD PTR _nNewSize$[ebp]
  00335	2b 51 08	 sub	 edx, DWORD PTR [ecx+8]
  00338	c1 e2 05	 shl	 edx, 5
  0033b	52		 push	 edx
  0033c	6a 00		 push	 0
  0033e	8b 45 a8	 mov	 eax, DWORD PTR _this$[ebp]
  00341	8b 48 08	 mov	 ecx, DWORD PTR [eax+8]
  00344	c1 e1 05	 shl	 ecx, 5
  00347	03 4d d8	 add	 ecx, DWORD PTR _pNewData$198447[ebp]
  0034a	51		 push	 ecx
  0034b	e8 00 00 00 00	 call	 _memset
  00350	83 c4 0c	 add	 esp, 12			; 0000000cH

; 463  : 		for( int i = 0; i < nNewSize-m_nSize; i++ )

  00353	c7 45 d4 00 00
	00 00		 mov	 DWORD PTR _i$198459[ebp], 0
  0035a	eb 09		 jmp	 SHORT $L198460
$L198461:
  0035c	8b 55 d4	 mov	 edx, DWORD PTR _i$198459[ebp]
  0035f	83 c2 01	 add	 edx, 1
  00362	89 55 d4	 mov	 DWORD PTR _i$198459[ebp], edx
$L198460:
  00365	8b 45 a8	 mov	 eax, DWORD PTR _this$[ebp]
  00368	8b 4d 08	 mov	 ecx, DWORD PTR _nNewSize$[ebp]
  0036b	2b 48 08	 sub	 ecx, DWORD PTR [eax+8]
  0036e	39 4d d4	 cmp	 DWORD PTR _i$198459[ebp], ecx
  00371	7d 52		 jge	 SHORT $L198462

; 464  : #pragma push_macro("new")
; 465  : #undef new
; 466  : 			::new( (void*)( pNewData + m_nSize + i ) ) TYPE;

  00373	8b 55 a8	 mov	 edx, DWORD PTR _this$[ebp]
  00376	8b 42 08	 mov	 eax, DWORD PTR [edx+8]
  00379	c1 e0 05	 shl	 eax, 5
  0037c	03 45 d8	 add	 eax, DWORD PTR _pNewData$198447[ebp]
  0037f	8b 4d d4	 mov	 ecx, DWORD PTR _i$198459[ebp]
  00382	c1 e1 05	 shl	 ecx, 5
  00385	03 c1		 add	 eax, ecx
  00387	50		 push	 eax
  00388	6a 20		 push	 32			; 00000020H
  0038a	e8 00 00 00 00	 call	 ??2@YAPAXIPAX@Z		; operator new
  0038f	83 c4 08	 add	 esp, 8
  00392	89 45 b0	 mov	 DWORD PTR $T199127[ebp], eax
  00395	c7 45 fc 02 00
	00 00		 mov	 DWORD PTR __$EHRec$[ebp+8], 2
  0039c	83 7d b0 00	 cmp	 DWORD PTR $T199127[ebp], 0
  003a0	74 0d		 je	 SHORT $L199128
  003a2	8b 4d b0	 mov	 ecx, DWORD PTR $T199127[ebp]
  003a5	e8 00 00 00 00	 call	 ??0ElemPos@CMarkup@@QAE@XZ ; CMarkup::ElemPos::ElemPos
  003aa	89 45 90	 mov	 DWORD PTR tv246[ebp], eax
  003ad	eb 07		 jmp	 SHORT $L199129
$L199128:
  003af	c7 45 90 00 00
	00 00		 mov	 DWORD PTR tv246[ebp], 0
$L199129:
  003b6	8b 55 90	 mov	 edx, DWORD PTR tv246[ebp]
  003b9	89 55 b4	 mov	 DWORD PTR $T199126[ebp], edx
  003bc	c7 45 fc ff ff
	ff ff		 mov	 DWORD PTR __$EHRec$[ebp+8], -1
  003c3	eb 97		 jmp	 SHORT $L198461
$L198462:

; 467  : #pragma pop_macro("new")
; 468  : 
; 469  : 		// get rid of old stuff (note: no destructors called)
; 470  : 		delete[] (BYTE*)m_pData;

  003c5	8b 45 a8	 mov	 eax, DWORD PTR _this$[ebp]
  003c8	8b 48 04	 mov	 ecx, DWORD PTR [eax+4]
  003cb	89 4d ac	 mov	 DWORD PTR $T199130[ebp], ecx
  003ce	8b 55 ac	 mov	 edx, DWORD PTR $T199130[ebp]
  003d1	52		 push	 edx
  003d2	e8 00 00 00 00	 call	 ??_V@YAXPAX@Z		; operator delete[]
  003d7	83 c4 04	 add	 esp, 4

; 471  : 		m_pData = pNewData;

  003da	8b 45 a8	 mov	 eax, DWORD PTR _this$[ebp]
  003dd	8b 4d d8	 mov	 ecx, DWORD PTR _pNewData$198447[ebp]
  003e0	89 48 04	 mov	 DWORD PTR [eax+4], ecx

; 472  : 		m_nSize = nNewSize;

  003e3	8b 55 a8	 mov	 edx, DWORD PTR _this$[ebp]
  003e6	8b 45 08	 mov	 eax, DWORD PTR _nNewSize$[ebp]
  003e9	89 42 08	 mov	 DWORD PTR [edx+8], eax

; 473  : 		m_nMaxSize = nNewMax;

  003ec	8b 4d a8	 mov	 ecx, DWORD PTR _this$[ebp]
  003ef	8b 55 dc	 mov	 edx, DWORD PTR _nNewMax$198441[ebp]
  003f2	89 51 0c	 mov	 DWORD PTR [ecx+12], edx
$L199108:

; 474  : 	}
; 475  : }

  003f5	8b 4d f4	 mov	 ecx, DWORD PTR __$EHRec$[ebp]
  003f8	64 89 0d 00 00
	00 00		 mov	 DWORD PTR fs:__except_list, ecx
  003ff	8b e5		 mov	 esp, ebp
  00401	5d		 pop	 ebp
  00402	c2 08 00	 ret	 8
_TEXT	ENDS
;	COMDAT text$x
text$x	SEGMENT
$L199131:
  00000	8b 45 e8	 mov	 eax, DWORD PTR _i$198407[ebp]
  00003	c1 e0 05	 shl	 eax, 5
  00006	8b 4d a8	 mov	 ecx, DWORD PTR _this$[ebp]
  00009	03 41 04	 add	 eax, DWORD PTR [ecx+4]
  0000c	50		 push	 eax
  0000d	8b 55 c4	 mov	 edx, DWORD PTR $T199114[ebp]
  00010	52		 push	 edx
  00011	e8 00 00 00 00	 call	 ??3@YAXPAX0@Z		; operator delete
  00016	83 c4 08	 add	 esp, 8
  00019	c3		 ret	 0
$L199132:
  0001a	8b 45 a8	 mov	 eax, DWORD PTR _this$[ebp]
  0001d	8b 48 08	 mov	 ecx, DWORD PTR [eax+8]
  00020	c1 e1 05	 shl	 ecx, 5
  00023	8b 55 a8	 mov	 edx, DWORD PTR _this$[ebp]
  00026	8b 42 04	 mov	 eax, DWORD PTR [edx+4]
  00029	03 c1		 add	 eax, ecx
  0002b	8b 4d e4	 mov	 ecx, DWORD PTR _i$198423[ebp]
  0002e	c1 e1 05	 shl	 ecx, 5
  00031	03 c1		 add	 eax, ecx
  00033	50		 push	 eax
  00034	8b 55 bc	 mov	 edx, DWORD PTR $T199118[ebp]
  00037	52		 push	 edx
  00038	e8 00 00 00 00	 call	 ??3@YAXPAX0@Z		; operator delete
  0003d	83 c4 08	 add	 esp, 8
  00040	c3		 ret	 0
$L199133:
  00041	8b 45 a8	 mov	 eax, DWORD PTR _this$[ebp]
  00044	8b 48 08	 mov	 ecx, DWORD PTR [eax+8]
  00047	c1 e1 05	 shl	 ecx, 5
  0004a	03 4d d8	 add	 ecx, DWORD PTR _pNewData$198447[ebp]
  0004d	8b 55 d4	 mov	 edx, DWORD PTR _i$198459[ebp]
  00050	c1 e2 05	 shl	 edx, 5
  00053	03 ca		 add	 ecx, edx
  00055	51		 push	 ecx
  00056	8b 45 b0	 mov	 eax, DWORD PTR $T199127[ebp]
  00059	50		 push	 eax
  0005a	e8 00 00 00 00	 call	 ??3@YAXPAX0@Z		; operator delete
  0005f	83 c4 08	 add	 esp, 8
  00062	c3		 ret	 0
__ehhandler$?SetSize@?$CArray@UElemPos@CMarkup@@AAU12@@@QAEXHH@Z:
  00063	b8 00 00 00 00	 mov	 eax, OFFSET FLAT:$T199135
  00068	e9 00 00 00 00	 jmp	 ___CxxFrameHandler
text$x	ENDS
?SetSize@?$CArray@UElemPos@CMarkup@@AAU12@@@QAEXHH@Z ENDP ; CArray<CMarkup::ElemPos,CMarkup::ElemPos &>::SetSize
; Function compile flags: /Odt
; File d:\program files (x86)\microsoft visual studio .net 2003\vc7\include\new.h
;	COMDAT ??2@YAPAXIPAX@Z
_TEXT	SEGMENT
___formal$ = 8						; size = 4
__P$ = 12						; size = 4
??2@YAPAXIPAX@Z PROC NEAR				; operator new, COMDAT

; 109  :         {return (_P); }

  00000	55		 push	 ebp
  00001	8b ec		 mov	 ebp, esp
  00003	8b 45 0c	 mov	 eax, DWORD PTR __P$[ebp]
  00006	5d		 pop	 ebp
  00007	c3		 ret	 0
??2@YAPAXIPAX@Z ENDP					; operator new
; Function compile flags: /Odt
_TEXT	ENDS
;	COMDAT ??3@YAXPAX0@Z
_TEXT	SEGMENT
___formal$ = 8						; size = 4
___formal$ = 12						; size = 4
??3@YAXPAX0@Z PROC NEAR					; operator delete, COMDAT

; 112  :         {return; }

  00000	55		 push	 ebp
  00001	8b ec		 mov	 ebp, esp
  00003	5d		 pop	 ebp
  00004	c3		 ret	 0
??3@YAXPAX0@Z ENDP					; operator delete
_TEXT	ENDS
PUBLIC	?Clear@ElemPos@CMarkup@@QAEXXZ			; CMarkup::ElemPos::Clear
; Function compile flags: /Odt
; File d:\boxgit\playbox\playbox\dev\prj\playbox\src\util\markup.h
;	COMDAT ??0ElemPos@CMarkup@@QAE@XZ
_TEXT	SEGMENT
_this$ = -4						; size = 4
??0ElemPos@CMarkup@@QAE@XZ PROC NEAR			; CMarkup::ElemPos::ElemPos, COMDAT
; _this$ = ecx

; 86   : 		ElemPos() { Clear(); };

  00000	55		 push	 ebp
  00001	8b ec		 mov	 ebp, esp
  00003	51		 push	 ecx
  00004	89 4d fc	 mov	 DWORD PTR _this$[ebp], ecx
  00007	8b 4d fc	 mov	 ecx, DWORD PTR _this$[ebp]
  0000a	e8 00 00 00 00	 call	 ?Clear@ElemPos@CMarkup@@QAEXXZ ; CMarkup::ElemPos::Clear
  0000f	8b 45 fc	 mov	 eax, DWORD PTR _this$[ebp]
  00012	8b e5		 mov	 esp, ebp
  00014	5d		 pop	 ebp
  00015	c3		 ret	 0
??0ElemPos@CMarkup@@QAE@XZ ENDP				; CMarkup::ElemPos::ElemPos
; Function compile flags: /Odt
_TEXT	ENDS
;	COMDAT ?Clear@ElemPos@CMarkup@@QAEXXZ
_TEXT	SEGMENT
_this$ = -4						; size = 4
?Clear@ElemPos@CMarkup@@QAEXXZ PROC NEAR		; CMarkup::ElemPos::Clear, COMDAT
; _this$ = ecx

; 90   : 		{

  00000	55		 push	 ebp
  00001	8b ec		 mov	 ebp, esp
  00003	51		 push	 ecx
  00004	89 4d fc	 mov	 DWORD PTR _this$[ebp], ecx

; 91   : 			nStartL=0; nStartR=0; nEndL=0; nEndR=0; nReserved=0;

  00007	8b 45 fc	 mov	 eax, DWORD PTR _this$[ebp]
  0000a	c7 00 00 00 00
	00		 mov	 DWORD PTR [eax], 0
  00010	8b 4d fc	 mov	 ecx, DWORD PTR _this$[ebp]
  00013	c7 41 04 00 00
	00 00		 mov	 DWORD PTR [ecx+4], 0
  0001a	8b 55 fc	 mov	 edx, DWORD PTR _this$[ebp]
  0001d	c7 42 08 00 00
	00 00		 mov	 DWORD PTR [edx+8], 0
  00024	8b 45 fc	 mov	 eax, DWORD PTR _this$[ebp]
  00027	c7 40 0c 00 00
	00 00		 mov	 DWORD PTR [eax+12], 0
  0002e	8b 4d fc	 mov	 ecx, DWORD PTR _this$[ebp]
  00031	c7 41 10 00 00
	00 00		 mov	 DWORD PTR [ecx+16], 0

; 92   : 			iElemParent=0; iElemChild=0; iElemNext=0;

  00038	8b 55 fc	 mov	 edx, DWORD PTR _this$[ebp]
  0003b	c7 42 14 00 00
	00 00		 mov	 DWORD PTR [edx+20], 0
  00042	8b 45 fc	 mov	 eax, DWORD PTR _this$[ebp]
  00045	c7 40 18 00 00
	00 00		 mov	 DWORD PTR [eax+24], 0
  0004c	8b 4d fc	 mov	 ecx, DWORD PTR _this$[ebp]
  0004f	c7 41 1c 00 00
	00 00		 mov	 DWORD PTR [ecx+28], 0

; 93   : 		};

  00056	8b e5		 mov	 esp, ebp
  00058	5d		 pop	 ebp
  00059	c3		 ret	 0
?Clear@ElemPos@CMarkup@@QAEXXZ ENDP			; CMarkup::ElemPos::Clear
; Function compile flags: /Odt
; File d:\program files (x86)\microsoft visual studio .net 2003\vc7\atlmfc\include\afxtempl.h
_TEXT	ENDS
;	COMDAT ?ElementAt@?$CArray@UElemPos@CMarkup@@AAU12@@@QAEAAUElemPos@CMarkup@@H@Z
_TEXT	SEGMENT
_this$ = -4						; size = 4
_nIndex$ = 8						; size = 4
?ElementAt@?$CArray@UElemPos@CMarkup@@AAU12@@@QAEAAUElemPos@CMarkup@@H@Z PROC NEAR ; CArray<CMarkup::ElemPos,CMarkup::ElemPos &>::ElementAt, COMDAT
; _this$ = ecx

; 320  : { 

  00000	55		 push	 ebp
  00001	8b ec		 mov	 ebp, esp
  00003	51		 push	 ecx
  00004	89 4d fc	 mov	 DWORD PTR _this$[ebp], ecx

; 321  : 	ASSERT(nIndex >= 0 && nIndex < m_nSize);
; 322  : 	if(nIndex >= 0 && nIndex < m_nSize)

  00007	83 7d 08 00	 cmp	 DWORD PTR _nIndex$[ebp], 0
  0000b	7c 19		 jl	 SHORT $L198478
  0000d	8b 45 fc	 mov	 eax, DWORD PTR _this$[ebp]
  00010	8b 4d 08	 mov	 ecx, DWORD PTR _nIndex$[ebp]
  00013	3b 48 08	 cmp	 ecx, DWORD PTR [eax+8]
  00016	7d 0e		 jge	 SHORT $L198478

; 323  : 		return m_pData[nIndex]; 

  00018	8b 45 08	 mov	 eax, DWORD PTR _nIndex$[ebp]
  0001b	c1 e0 05	 shl	 eax, 5
  0001e	8b 55 fc	 mov	 edx, DWORD PTR _this$[ebp]
  00021	03 42 04	 add	 eax, DWORD PTR [edx+4]
  00024	eb 05		 jmp	 SHORT $L199149
$L198478:

; 324  : 	AfxThrowInvalidArgException();		

  00026	e8 00 00 00 00	 call	 ?AfxThrowInvalidArgException@@YGXXZ ; AfxThrowInvalidArgException
$L199149:

; 325  : }

  0002b	8b e5		 mov	 esp, ebp
  0002d	5d		 pop	 ebp
  0002e	c2 04 00	 ret	 4
?ElementAt@?$CArray@UElemPos@CMarkup@@AAU12@@@QAEAAUElemPos@CMarkup@@H@Z ENDP ; CArray<CMarkup::ElemPos,CMarkup::ElemPos &>::ElementAt
_TEXT	ENDS
EXTRN	?Read@CArchive@@QAEIPAXI@Z:NEAR			; CArchive::Read
EXTRN	?Write@CArchive@@QAEXPBXI@Z:NEAR		; CArchive::Write
; Function compile flags: /Odt
;	COMDAT ??$SerializeElements@UElemPos@CMarkup@@@@YGXAAVCArchive@@PAUElemPos@CMarkup@@H@Z
_TEXT	SEGMENT
tv79 = -32						; size = 4
tv69 = -28						; size = 4
_nElementsToRead$198497 = -24				; size = 4
_nElementsLeft$198493 = -20				; size = 4
_pData$198492 = -16					; size = 4
_nElementsToWrite$198487 = -12				; size = 4
_nElementsLeft$198483 = -8				; size = 4
_pData$198482 = -4					; size = 4
_ar$ = 8						; size = 4
_pElements$ = 12					; size = 4
_nCount$ = 16						; size = 4
??$SerializeElements@UElemPos@CMarkup@@@@YGXAAVCArchive@@PAUElemPos@CMarkup@@H@Z PROC NEAR ; SerializeElements<CMarkup::ElemPos>, COMDAT

; 69   : {

  00000	55		 push	 ebp
  00001	8b ec		 mov	 ebp, esp
  00003	83 ec 20	 sub	 esp, 32			; 00000020H

; 70   : 	ASSERT(nCount == 0 ||
; 71   : 		AfxIsValidAddress(pElements, (size_t)nCount * sizeof(TYPE)));
; 72   : 
; 73   : 	// default is bit-wise read/write
; 74   : 	if (ar.IsStoring())

  00006	8b 4d 08	 mov	 ecx, DWORD PTR _ar$[ebp]
  00009	e8 00 00 00 00	 call	 ?IsStoring@CArchive@@QBEHXZ ; CArchive::IsStoring
  0000e	85 c0		 test	 eax, eax
  00010	74 5c		 je	 SHORT $L198481

; 75   :    {
; 76   : 	  TYPE* pData;
; 77   : 	  UINT_PTR nElementsLeft;
; 78   : 
; 79   : 	  nElementsLeft = nCount;

  00012	8b 45 10	 mov	 eax, DWORD PTR _nCount$[ebp]
  00015	89 45 f8	 mov	 DWORD PTR _nElementsLeft$198483[ebp], eax

; 80   : 	  pData = pElements;

  00018	8b 4d 0c	 mov	 ecx, DWORD PTR _pElements$[ebp]
  0001b	89 4d fc	 mov	 DWORD PTR _pData$198482[ebp], ecx
$L198485:

; 81   : 	  while( nElementsLeft > 0 )

  0001e	83 7d f8 00	 cmp	 DWORD PTR _nElementsLeft$198483[ebp], 0
  00022	76 48		 jbe	 SHORT $L198486

; 82   : 	  {
; 83   : 		 UINT nElementsToWrite;
; 84   : 
; 85   : 		 nElementsToWrite = UINT(min(nElementsLeft, INT_MAX/sizeof(TYPE)));

  00024	81 7d f8 ff ff
	ff 03		 cmp	 DWORD PTR _nElementsLeft$198483[ebp], 67108863 ; 03ffffffH
  0002b	73 08		 jae	 SHORT $L199152
  0002d	8b 55 f8	 mov	 edx, DWORD PTR _nElementsLeft$198483[ebp]
  00030	89 55 e4	 mov	 DWORD PTR tv69[ebp], edx
  00033	eb 07		 jmp	 SHORT $L199153
$L199152:
  00035	c7 45 e4 ff ff
	ff 03		 mov	 DWORD PTR tv69[ebp], 67108863 ; 03ffffffH
$L199153:
  0003c	8b 45 e4	 mov	 eax, DWORD PTR tv69[ebp]
  0003f	89 45 f4	 mov	 DWORD PTR _nElementsToWrite$198487[ebp], eax

; 86   : 		 ar.Write(pData, nElementsToWrite*sizeof(TYPE));

  00042	8b 4d f4	 mov	 ecx, DWORD PTR _nElementsToWrite$198487[ebp]
  00045	c1 e1 05	 shl	 ecx, 5
  00048	51		 push	 ecx
  00049	8b 55 fc	 mov	 edx, DWORD PTR _pData$198482[ebp]
  0004c	52		 push	 edx
  0004d	8b 4d 08	 mov	 ecx, DWORD PTR _ar$[ebp]
  00050	e8 00 00 00 00	 call	 ?Write@CArchive@@QAEXPBXI@Z ; CArchive::Write

; 87   : 		 nElementsLeft -= nElementsToWrite;

  00055	8b 45 f8	 mov	 eax, DWORD PTR _nElementsLeft$198483[ebp]
  00058	2b 45 f4	 sub	 eax, DWORD PTR _nElementsToWrite$198487[ebp]
  0005b	89 45 f8	 mov	 DWORD PTR _nElementsLeft$198483[ebp], eax

; 88   : 		 pData += nElementsToWrite;

  0005e	8b 4d f4	 mov	 ecx, DWORD PTR _nElementsToWrite$198487[ebp]
  00061	c1 e1 05	 shl	 ecx, 5
  00064	03 4d fc	 add	 ecx, DWORD PTR _pData$198482[ebp]
  00067	89 4d fc	 mov	 DWORD PTR _pData$198482[ebp], ecx

; 89   : 	  }

  0006a	eb b2		 jmp	 SHORT $L198485
$L198486:

; 90   :    }
; 91   : 	else

  0006c	eb 5a		 jmp	 SHORT $L198479
$L198481:

; 92   :    {
; 93   : 	  TYPE* pData;
; 94   : 	  UINT_PTR nElementsLeft;
; 95   : 
; 96   : 	  nElementsLeft = nCount;

  0006e	8b 55 10	 mov	 edx, DWORD PTR _nCount$[ebp]
  00071	89 55 ec	 mov	 DWORD PTR _nElementsLeft$198493[ebp], edx

; 97   : 	  pData = pElements;

  00074	8b 45 0c	 mov	 eax, DWORD PTR _pElements$[ebp]
  00077	89 45 f0	 mov	 DWORD PTR _pData$198492[ebp], eax
$L198495:

; 98   : 	  while( nElementsLeft > 0 )

  0007a	83 7d ec 00	 cmp	 DWORD PTR _nElementsLeft$198493[ebp], 0
  0007e	76 48		 jbe	 SHORT $L198479

; 99   : 	  {
; 100  : 		 UINT nElementsToRead;
; 101  : 
; 102  : 		 nElementsToRead = UINT(min(nElementsLeft, INT_MAX/sizeof(TYPE)));

  00080	81 7d ec ff ff
	ff 03		 cmp	 DWORD PTR _nElementsLeft$198493[ebp], 67108863 ; 03ffffffH
  00087	73 08		 jae	 SHORT $L199154
  00089	8b 4d ec	 mov	 ecx, DWORD PTR _nElementsLeft$198493[ebp]
  0008c	89 4d e0	 mov	 DWORD PTR tv79[ebp], ecx
  0008f	eb 07		 jmp	 SHORT $L199155
$L199154:
  00091	c7 45 e0 ff ff
	ff 03		 mov	 DWORD PTR tv79[ebp], 67108863 ; 03ffffffH
$L199155:
  00098	8b 55 e0	 mov	 edx, DWORD PTR tv79[ebp]
  0009b	89 55 e8	 mov	 DWORD PTR _nElementsToRead$198497[ebp], edx

; 103  : 		 ar.Read(pData, nElementsToRead*sizeof(TYPE));

  0009e	8b 45 e8	 mov	 eax, DWORD PTR _nElementsToRead$198497[ebp]
  000a1	c1 e0 05	 shl	 eax, 5
  000a4	50		 push	 eax
  000a5	8b 4d f0	 mov	 ecx, DWORD PTR _pData$198492[ebp]
  000a8	51		 push	 ecx
  000a9	8b 4d 08	 mov	 ecx, DWORD PTR _ar$[ebp]
  000ac	e8 00 00 00 00	 call	 ?Read@CArchive@@QAEIPAXI@Z ; CArchive::Read

; 104  : 		 nElementsLeft -= nElementsToRead;

  000b1	8b 55 ec	 mov	 edx, DWORD PTR _nElementsLeft$198493[ebp]
  000b4	2b 55 e8	 sub	 edx, DWORD PTR _nElementsToRead$198497[ebp]
  000b7	89 55 ec	 mov	 DWORD PTR _nElementsLeft$198493[ebp], edx

; 105  : 		 pData += nElementsToRead;

  000ba	8b 45 e8	 mov	 eax, DWORD PTR _nElementsToRead$198497[ebp]
  000bd	c1 e0 05	 shl	 eax, 5
  000c0	03 45 f0	 add	 eax, DWORD PTR _pData$198492[ebp]
  000c3	89 45 f0	 mov	 DWORD PTR _pData$198492[ebp], eax

; 106  : 	  }

  000c6	eb b2		 jmp	 SHORT $L198495
$L198479:

; 107  :    }
; 108  : }

  000c8	8b e5		 mov	 esp, ebp
  000ca	5d		 pop	 ebp
  000cb	c2 0c 00	 ret	 12			; 0000000cH
??$SerializeElements@UElemPos@CMarkup@@@@YGXAAVCArchive@@PAUElemPos@CMarkup@@H@Z ENDP ; SerializeElements<CMarkup::ElemPos>
; Function compile flags: /Odt
; File d:\program files (x86)\microsoft visual studio .net 2003\vc7\atlmfc\include\afx.inl
_TEXT	ENDS
;	COMDAT ??1CObject@@UAE@XZ
_TEXT	SEGMENT
_this$ = -4						; size = 4
??1CObject@@UAE@XZ PROC NEAR				; CObject::~CObject, COMDAT
; _this$ = ecx

; 23   : 	{ }

  00000	55		 push	 ebp
  00001	8b ec		 mov	 ebp, esp
  00003	51		 push	 ecx
  00004	89 4d fc	 mov	 DWORD PTR _this$[ebp], ecx
  00007	8b e5		 mov	 esp, ebp
  00009	5d		 pop	 ebp
  0000a	c3		 ret	 0
??1CObject@@UAE@XZ ENDP					; CObject::~CObject
; Function compile flags: /Odt
_TEXT	ENDS
;	COMDAT ?Serialize@CObject@@UAEXAAVCArchive@@@Z
_TEXT	SEGMENT
_this$ = -4						; size = 4
___formal$ = 8						; size = 4
?Serialize@CObject@@UAEXAAVCArchive@@@Z PROC NEAR	; CObject::Serialize, COMDAT
; _this$ = ecx

; 25   : 	{ /* CObject does not serialize anything by default */ }

  00000	55		 push	 ebp
  00001	8b ec		 mov	 ebp, esp
  00003	51		 push	 ecx
  00004	89 4d fc	 mov	 DWORD PTR _this$[ebp], ecx
  00007	8b e5		 mov	 esp, ebp
  00009	5d		 pop	 ebp
  0000a	c2 04 00	 ret	 4
?Serialize@CObject@@UAEXAAVCArchive@@@Z ENDP		; CObject::Serialize
; Function compile flags: /Odt
_TEXT	ENDS
;	COMDAT ??3CObject@@SGXPAX@Z
_TEXT	SEGMENT
_p$ = 8							; size = 4
??3CObject@@SGXPAX@Z PROC NEAR				; CObject::operator delete, COMDAT

; 31   : 	{ ::operator delete(p); }

  00000	55		 push	 ebp
  00001	8b ec		 mov	 ebp, esp
  00003	8b 45 08	 mov	 eax, DWORD PTR _p$[ebp]
  00006	50		 push	 eax
  00007	e8 00 00 00 00	 call	 ??3@YAXPAX@Z		; operator delete
  0000c	83 c4 04	 add	 esp, 4
  0000f	5d		 pop	 ebp
  00010	c2 04 00	 ret	 4
??3CObject@@SGXPAX@Z ENDP				; CObject::operator delete
; Function compile flags: /Odt
_TEXT	ENDS
;	COMDAT ?AssertValid@CObject@@UBEXXZ
_TEXT	SEGMENT
_this$ = -4						; size = 4
?AssertValid@CObject@@UBEXXZ PROC NEAR			; CObject::AssertValid, COMDAT
; _this$ = ecx

; 41   : 	{ /* no asserts in release builds */ }

  00000	55		 push	 ebp
  00001	8b ec		 mov	 ebp, esp
  00003	51		 push	 ecx
  00004	89 4d fc	 mov	 DWORD PTR _this$[ebp], ecx
  00007	8b e5		 mov	 esp, ebp
  00009	5d		 pop	 ebp
  0000a	c3		 ret	 0
?AssertValid@CObject@@UBEXXZ ENDP			; CObject::AssertValid
; Function compile flags: /Odt
_TEXT	ENDS
;	COMDAT ?Dump@CObject@@UBEXAAVCDumpContext@@@Z
_TEXT	SEGMENT
_this$ = -4						; size = 4
___formal$ = 8						; size = 4
?Dump@CObject@@UBEXAAVCDumpContext@@@Z PROC NEAR	; CObject::Dump, COMDAT
; _this$ = ecx

; 43   : 	{ /* no dumping in release builds */ }

  00000	55		 push	 ebp
  00001	8b ec		 mov	 ebp, esp
  00003	51		 push	 ecx
  00004	89 4d fc	 mov	 DWORD PTR _this$[ebp], ecx
  00007	8b e5		 mov	 esp, ebp
  00009	5d		 pop	 ebp
  0000a	c2 04 00	 ret	 4
?Dump@CObject@@UBEXAAVCDumpContext@@@Z ENDP		; CObject::Dump
; Function compile flags: /Odt
_TEXT	ENDS
;	COMDAT ?IsStoring@CArchive@@QBEHXZ
_TEXT	SEGMENT
_this$ = -4						; size = 4
?IsStoring@CArchive@@QBEHXZ PROC NEAR			; CArchive::IsStoring, COMDAT
; _this$ = ecx

; 133  : 	{ return (m_nMode & CArchive::load) == 0; }

  00000	55		 push	 ebp
  00001	8b ec		 mov	 ebp, esp
  00003	51		 push	 ecx
  00004	89 4d fc	 mov	 DWORD PTR _this$[ebp], ecx
  00007	8b 45 fc	 mov	 eax, DWORD PTR _this$[ebp]
  0000a	8b 40 18	 mov	 eax, DWORD PTR [eax+24]
  0000d	83 e0 01	 and	 eax, 1
  00010	f7 d8		 neg	 eax
  00012	1b c0		 sbb	 eax, eax
  00014	40		 inc	 eax
  00015	8b e5		 mov	 esp, ebp
  00017	5d		 pop	 ebp
  00018	c3		 ret	 0
?IsStoring@CArchive@@QBEHXZ ENDP			; CArchive::IsStoring
_TEXT	ENDS
END
