; Listing generated by Microsoft (R) Optimizing Compiler Version 13.10.3077 

	TITLE	.\src\module\TopPanel\MinOrExit.cpp
	.386P
include listing.inc
if @Version gt 510
.model FLAT
else
_TEXT	SEGMENT PARA USE32 PUBLIC 'CODE'
_TEXT	ENDS
_DATA	SEGMENT DWORD USE32 PUBLIC 'DATA'
_DATA	ENDS
CONST	SEGMENT DWORD USE32 PUBLIC 'CONST'
CONST	ENDS
_BSS	SEGMENT DWORD USE32 PUBLIC 'BSS'
_BSS	ENDS
$$SYMBOLS	SEGMENT BYTE USE32 'DEBSYM'
$$SYMBOLS	ENDS
$$TYPES	SEGMENT BYTE USE32 'DEBTYP'
$$TYPES	ENDS
_TLS	SEGMENT DWORD USE32 PUBLIC 'TLS'
_TLS	ENDS
;	COMDAT ??_C@_0BD@OLBABOEK@vector?$DMT?$DO?5too?5long?$AA@
CONST	SEGMENT DWORD USE32 PUBLIC 'CONST'
CONST	ENDS
rdata$r	SEGMENT DWORD USE32 PUBLIC 'CONST'
rdata$r	ENDS
xdata$x	SEGMENT DWORD USE32 PUBLIC 'CONST'
xdata$x	ENDS
text$AFX_COL1	SEGMENT PARA USE32 PUBLIC ''
text$AFX_COL1	ENDS
text$yc	SEGMENT PARA USE32 PUBLIC 'CODE'
text$yc	ENDS
CRT$XCA	SEGMENT DWORD USE32 PUBLIC 'DATA'
CRT$XCA	ENDS
CRT$XCU	SEGMENT DWORD USE32 PUBLIC 'DATA'
CRT$XCU	ENDS
CRT$XCL	SEGMENT DWORD USE32 PUBLIC 'DATA'
CRT$XCL	ENDS
CRT$XCC	SEGMENT DWORD USE32 PUBLIC 'DATA'
CRT$XCC	ENDS
CRT$XCZ	SEGMENT DWORD USE32 PUBLIC 'DATA'
CRT$XCZ	ENDS
text$yd	SEGMENT PARA USE32 PUBLIC 'CODE'
text$yd	ENDS
ATL$__m	SEGMENT DWORD USE32 PUBLIC ''
ATL$__m	ENDS
ATL$__z	SEGMENT DWORD USE32 PUBLIC ''
ATL$__z	ENDS
ATL$__a	SEGMENT DWORD USE32 PUBLIC ''
ATL$__a	ENDS
;	COMDAT ??1IData@@MAE@XZ
_TEXT	SEGMENT PARA USE32 PUBLIC 'CODE'
_TEXT	ENDS
;	COMDAT ?DataAppStart@IData@@UAEXXZ
_TEXT	SEGMENT PARA USE32 PUBLIC 'CODE'
_TEXT	ENDS
;	COMDAT ?DataAppExit@IData@@UAEXXZ
_TEXT	SEGMENT PARA USE32 PUBLIC 'CODE'
_TEXT	ENDS
;	COMDAT ??_GIData@@MAEPAXI@Z
_TEXT	SEGMENT PARA USE32 PUBLIC 'CODE'
_TEXT	ENDS
;	COMDAT _$E5
text$yc	SEGMENT PARA USE32 PUBLIC 'CODE'
text$yc	ENDS
;	COMDAT ?GetMainWnd@CHostWndMgr@@QAEPAVCWnd@@XZ
_TEXT	SEGMENT PARA USE32 PUBLIC 'CODE'
_TEXT	ENDS
;	COMDAT ??_GCMinOrExit@@UAEPAXI@Z
_TEXT	SEGMENT PARA USE32 PUBLIC 'CODE'
_TEXT	ENDS
;	COMDAT ??B?$CComPtrBase@UITypeInfo2@@@ATL@@QBEPAUITypeInfo2@@XZ
_TEXT	SEGMENT PARA USE32 PUBLIC 'CODE'
_TEXT	ENDS
;	COMDAT ?equal@?$istreambuf_iterator@DU?$char_traits@D@std@@@std@@QBE_NABV12@@Z
_TEXT	SEGMENT PARA USE32 PUBLIC 'CODE'
_TEXT	ENDS
;	COMDAT ?equal@?$istreambuf_iterator@_WU?$char_traits@_W@std@@@std@@QBE_NABV12@@Z
_TEXT	SEGMENT PARA USE32 PUBLIC 'CODE'
_TEXT	ENDS
;	COMDAT ?push_back@?$vector@PAVILyricPopupWndShowObserver@@V?$allocator@PAVILyricPopupWndShowObserver@@@std@@@std@@QAEXABQAVILyricPopupWndShowObserver@@@Z
_TEXT	SEGMENT PARA USE32 PUBLIC 'CODE'
_TEXT	ENDS
;	COMDAT ?capacity@?$vector@PAVILyricPopupWndShowObserver@@V?$allocator@PAVILyricPopupWndShowObserver@@@std@@@std@@QBEIXZ
_TEXT	SEGMENT PARA USE32 PUBLIC 'CODE'
_TEXT	ENDS
;	COMDAT ?end@?$vector@PAVILyricPopupWndShowObserver@@V?$allocator@PAVILyricPopupWndShowObserver@@@std@@@std@@QAE?AViterator@12@XZ
_TEXT	SEGMENT PARA USE32 PUBLIC 'CODE'
_TEXT	ENDS
;	COMDAT ?size@?$vector@PAVILyricPopupWndShowObserver@@V?$allocator@PAVILyricPopupWndShowObserver@@@std@@@std@@QBEIXZ
_TEXT	SEGMENT PARA USE32 PUBLIC 'CODE'
_TEXT	ENDS
;	COMDAT ?insert@?$vector@PAVILyricPopupWndShowObserver@@V?$allocator@PAVILyricPopupWndShowObserver@@@std@@@std@@QAE?AViterator@12@V312@ABQAVILyricPopupWndShowObserver@@@Z
_TEXT	SEGMENT PARA USE32 PUBLIC 'CODE'
_TEXT	ENDS
;	COMDAT ?_Ufill@?$vector@PAVILyricPopupWndShowObserver@@V?$allocator@PAVILyricPopupWndShowObserver@@@std@@@std@@IAEPAPAVILyricPopupWndShowObserver@@PAPAV3@IABQAV3@@Z
_TEXT	SEGMENT PARA USE32 PUBLIC 'CODE'
_TEXT	ENDS
;	COMDAT ?begin@?$vector@PAVILyricPopupWndShowObserver@@V?$allocator@PAVILyricPopupWndShowObserver@@@std@@@std@@QAE?AViterator@12@XZ
_TEXT	SEGMENT PARA USE32 PUBLIC 'CODE'
_TEXT	ENDS
;	COMDAT ?_Insert_n@?$vector@PAVILyricPopupWndShowObserver@@V?$allocator@PAVILyricPopupWndShowObserver@@@std@@@std@@IAEXViterator@12@IABQAVILyricPopupWndShowObserver@@@Z
_TEXT	SEGMENT PARA USE32 PUBLIC 'CODE'
_TEXT	ENDS
;	COMDAT ??0iterator@?$vector@PAVILyricPopupWndShowObserver@@V?$allocator@PAVILyricPopupWndShowObserver@@@std@@@std@@QAE@PAPAVILyricPopupWndShowObserver@@@Z
_TEXT	SEGMENT PARA USE32 PUBLIC 'CODE'
_TEXT	ENDS
;	COMDAT ??Hiterator@?$vector@PAVILyricPopupWndShowObserver@@V?$allocator@PAVILyricPopupWndShowObserver@@@std@@@std@@QBE?AV012@H@Z
_TEXT	SEGMENT PARA USE32 PUBLIC 'CODE'
_TEXT	ENDS
;	COMDAT ??Giterator@?$vector@PAVILyricPopupWndShowObserver@@V?$allocator@PAVILyricPopupWndShowObserver@@@std@@@std@@QBEHABVconst_iterator@12@@Z
_TEXT	SEGMENT PARA USE32 PUBLIC 'CODE'
_TEXT	ENDS
;	COMDAT ?max_size@?$vector@PAVILyricPopupWndShowObserver@@V?$allocator@PAVILyricPopupWndShowObserver@@@std@@@std@@QBEIXZ
_TEXT	SEGMENT PARA USE32 PUBLIC 'CODE'
_TEXT	ENDS
;	COMDAT ?_Destroy@?$vector@PAVILyricPopupWndShowObserver@@V?$allocator@PAVILyricPopupWndShowObserver@@@std@@@std@@IAEXPAPAVILyricPopupWndShowObserver@@0@Z
_TEXT	SEGMENT PARA USE32 PUBLIC 'CODE'
_TEXT	ENDS
;	COMDAT ?_Xlen@?$vector@PAVILyricPopupWndShowObserver@@V?$allocator@PAVILyricPopupWndShowObserver@@@std@@@std@@IBEXXZ
_TEXT	SEGMENT PARA USE32 PUBLIC 'CODE'
_TEXT	ENDS
;	COMDAT ?deallocate@?$allocator@PAVILyricPopupWndShowObserver@@@std@@QAEXPAPAVILyricPopupWndShowObserver@@I@Z
_TEXT	SEGMENT PARA USE32 PUBLIC 'CODE'
_TEXT	ENDS
;	COMDAT ?allocate@?$allocator@PAVILyricPopupWndShowObserver@@@std@@QAEPAPAVILyricPopupWndShowObserver@@I@Z
_TEXT	SEGMENT PARA USE32 PUBLIC 'CODE'
_TEXT	ENDS
;	COMDAT ??Yiterator@?$vector@PAVILyricPopupWndShowObserver@@V?$allocator@PAVILyricPopupWndShowObserver@@@std@@@std@@QAEAAV012@H@Z
_TEXT	SEGMENT PARA USE32 PUBLIC 'CODE'
_TEXT	ENDS
;	COMDAT ??0const_iterator@?$vector@PAVILyricPopupWndShowObserver@@V?$allocator@PAVILyricPopupWndShowObserver@@@std@@@std@@QAE@PAPAVILyricPopupWndShowObserver@@@Z
_TEXT	SEGMENT PARA USE32 PUBLIC 'CODE'
_TEXT	ENDS
;	COMDAT ??Gconst_iterator@?$vector@PAVILyricPopupWndShowObserver@@V?$allocator@PAVILyricPopupWndShowObserver@@@std@@@std@@QBEHABV012@@Z
_TEXT	SEGMENT PARA USE32 PUBLIC 'CODE'
_TEXT	ENDS
;	COMDAT ??0length_error@std@@QAE@ABV01@@Z
_TEXT	SEGMENT PARA USE32 PUBLIC 'CODE'
_TEXT	ENDS
;	COMDAT ?max_size@?$allocator@PAVILyricPopupWndShowObserver@@@std@@QBEIXZ
_TEXT	SEGMENT PARA USE32 PUBLIC 'CODE'
_TEXT	ENDS
;	COMDAT ?Unlock@?$CComCritSecLock@VCComCriticalSection@ATL@@@ATL@@QAEXXZ
_TEXT	SEGMENT PARA USE32 PUBLIC 'CODE'
_TEXT	ENDS
;	COMDAT ??$_Uninitialized_fill_n@PAPAVILyricPopupWndShowObserver@@IPAV1@V?$allocator@PAVILyricPopupWndShowObserver@@@std@@@std@@YAXPAPAVILyricPopupWndShowObserver@@IABQAV1@AAV?$allocator@PAVILyricPopupWndShowObserver@@@0@@Z
_TEXT	SEGMENT PARA USE32 PUBLIC 'CODE'
_TEXT	ENDS
;	COMDAT ??$_Maklocstr@D@std@@YAPADPBDPADABU_Cvtvec@@@Z
_TEXT	SEGMENT PARA USE32 PUBLIC 'CODE'
_TEXT	ENDS
;	COMDAT ??$_Ucopy@PAPAVILyricPopupWndShowObserver@@@?$vector@PAVILyricPopupWndShowObserver@@V?$allocator@PAVILyricPopupWndShowObserver@@@std@@@std@@IAEPAPAVILyricPopupWndShowObserver@@PAPAV2@00@Z
_TEXT	SEGMENT PARA USE32 PUBLIC 'CODE'
_TEXT	ENDS
;	COMDAT ??$fill@PAPAVILyricPopupWndShowObserver@@PAV1@@std@@YAXPAPAVILyricPopupWndShowObserver@@0ABQAV1@@Z
_TEXT	SEGMENT PARA USE32 PUBLIC 'CODE'
_TEXT	ENDS
;	COMDAT ??$copy_backward@PAPAVILyricPopupWndShowObserver@@PAPAV1@@std@@YAPAPAVILyricPopupWndShowObserver@@PAPAV1@00@Z
_TEXT	SEGMENT PARA USE32 PUBLIC 'CODE'
_TEXT	ENDS
;	COMDAT ??$_Destroy_range@PAVILyricPopupWndShowObserver@@V?$allocator@PAVILyricPopupWndShowObserver@@@std@@@std@@YAXPAPAVILyricPopupWndShowObserver@@0AAV?$allocator@PAVILyricPopupWndShowObserver@@@0@@Z
_TEXT	SEGMENT PARA USE32 PUBLIC 'CODE'
_TEXT	ENDS
;	COMDAT ??$_Allocate@PAVILyricPopupWndShowObserver@@@std@@YAPAPAVILyricPopupWndShowObserver@@IPAPAV1@@Z
_TEXT	SEGMENT PARA USE32 PUBLIC 'CODE'
_TEXT	ENDS
;	COMDAT ??$_Ptr_cat@VILyricPopupWndShowObserver@@@std@@YA?AU_Scalar_ptr_iterator_tag@0@PAPAVILyricPopupWndShowObserver@@0@Z
_TEXT	SEGMENT PARA USE32 PUBLIC 'CODE'
_TEXT	ENDS
;	COMDAT ??$_Uninit_fill_n@PAVILyricPopupWndShowObserver@@IPAV1@@std@@YAXPAPAVILyricPopupWndShowObserver@@IABQAV1@AAV?$allocator@PAVILyricPopupWndShowObserver@@@0@U_Scalar_ptr_iterator_tag@0@@Z
_TEXT	SEGMENT PARA USE32 PUBLIC 'CODE'
_TEXT	ENDS
;	COMDAT ??$_Uninitialized_copy@PAPAVILyricPopupWndShowObserver@@PAPAV1@V?$allocator@PAVILyricPopupWndShowObserver@@@std@@@std@@YAPAPAVILyricPopupWndShowObserver@@PAPAV1@00AAV?$allocator@PAVILyricPopupWndShowObserver@@@0@@Z
_TEXT	SEGMENT PARA USE32 PUBLIC 'CODE'
_TEXT	ENDS
;	COMDAT ??$_Copy_backward_opt@PAPAVILyricPopupWndShowObserver@@PAPAV1@@std@@YAPAPAVILyricPopupWndShowObserver@@PAPAV1@00U_Scalar_ptr_iterator_tag@0@@Z
_TEXT	SEGMENT PARA USE32 PUBLIC 'CODE'
_TEXT	ENDS
;	COMDAT ??$_Destroy_range@PAVILyricPopupWndShowObserver@@V?$allocator@PAVILyricPopupWndShowObserver@@@std@@@std@@YAXPAPAVILyricPopupWndShowObserver@@0AAV?$allocator@PAVILyricPopupWndShowObserver@@@0@U_Scalar_ptr_iterator_tag@0@@Z
_TEXT	SEGMENT PARA USE32 PUBLIC 'CODE'
_TEXT	ENDS
;	COMDAT ??$fill_n@PAPAVILyricPopupWndShowObserver@@IPAV1@@std@@YAXPAPAVILyricPopupWndShowObserver@@IABQAV1@@Z
_TEXT	SEGMENT PARA USE32 PUBLIC 'CODE'
_TEXT	ENDS
;	COMDAT ??$_Uninit_copy@PAVILyricPopupWndShowObserver@@PAV1@@std@@YAPAPAVILyricPopupWndShowObserver@@PAPAV1@00AAV?$allocator@PAVILyricPopupWndShowObserver@@@0@U_Scalar_ptr_iterator_tag@0@@Z
_TEXT	SEGMENT PARA USE32 PUBLIC 'CODE'
_TEXT	ENDS
;	COMDAT ??_R3IData@@8
rdata$r	SEGMENT DWORD USE32 PUBLIC 'CONST'
rdata$r	ENDS
;	COMDAT ??_R3CMinOrExit@@8
rdata$r	SEGMENT DWORD USE32 PUBLIC 'CONST'
rdata$r	ENDS
;	COMDAT ??_R3?$numpunct@_W@std@@8
rdata$r	SEGMENT DWORD USE32 PUBLIC 'CONST'
rdata$r	ENDS
;	COMDAT ??_R3?$numpunct@D@std@@8
rdata$r	SEGMENT DWORD USE32 PUBLIC 'CONST'
rdata$r	ENDS
;	COMDAT ??_R2IData@@8
rdata$r	SEGMENT DWORD USE32 PUBLIC 'CONST'
rdata$r	ENDS
;	COMDAT ??_R2CMinOrExit@@8
rdata$r	SEGMENT DWORD USE32 PUBLIC 'CONST'
rdata$r	ENDS
;	COMDAT ??_R2?$numpunct@_W@std@@8
rdata$r	SEGMENT DWORD USE32 PUBLIC 'CONST'
rdata$r	ENDS
;	COMDAT ??_R2?$numpunct@D@std@@8
rdata$r	SEGMENT DWORD USE32 PUBLIC 'CONST'
rdata$r	ENDS
;	COMDAT ??_R1A@?0A@A@IData@@8
rdata$r	SEGMENT DWORD USE32 PUBLIC 'CONST'
rdata$r	ENDS
;	COMDAT ??_R1A@?0A@A@CObject@@8
rdata$r	SEGMENT DWORD USE32 PUBLIC 'CONST'
rdata$r	ENDS
;	COMDAT ??_R0?AVCObject@@@8
_DATA	SEGMENT DWORD USE32 PUBLIC 'DATA'
_DATA	ENDS
;	COMDAT ??_R1A@?0A@A@CCmdTarget@@8
rdata$r	SEGMENT DWORD USE32 PUBLIC 'CONST'
rdata$r	ENDS
;	COMDAT ??_R0?AVCCmdTarget@@@8
_DATA	SEGMENT DWORD USE32 PUBLIC 'DATA'
_DATA	ENDS
;	COMDAT ??_R1A@?0A@A@CWnd@@8
rdata$r	SEGMENT DWORD USE32 PUBLIC 'CONST'
rdata$r	ENDS
;	COMDAT ??_R0?AVCWnd@@@8
_DATA	SEGMENT DWORD USE32 PUBLIC 'DATA'
_DATA	ENDS
;	COMDAT ??_R1A@?0A@A@CDialog@@8
rdata$r	SEGMENT DWORD USE32 PUBLIC 'CONST'
rdata$r	ENDS
;	COMDAT ??_R0?AVCDialog@@@8
_DATA	SEGMENT DWORD USE32 PUBLIC 'DATA'
_DATA	ENDS
;	COMDAT ??_R1A@?0A@A@CMinOrExit@@8
rdata$r	SEGMENT DWORD USE32 PUBLIC 'CONST'
rdata$r	ENDS
;	COMDAT ??_R1A@?0A@A@?$numpunct@_W@std@@8
rdata$r	SEGMENT DWORD USE32 PUBLIC 'CONST'
rdata$r	ENDS
;	COMDAT ??_R1A@?0A@A@facet@locale@std@@8
rdata$r	SEGMENT DWORD USE32 PUBLIC 'CONST'
rdata$r	ENDS
;	COMDAT ??_R0?AVfacet@locale@std@@@8
_DATA	SEGMENT DWORD USE32 PUBLIC 'DATA'
_DATA	ENDS
;	COMDAT ??_R1A@?0A@A@?$numpunct@D@std@@8
rdata$r	SEGMENT DWORD USE32 PUBLIC 'CONST'
rdata$r	ENDS
;	COMDAT ??_R0?AVIData@@@8
_DATA	SEGMENT DWORD USE32 PUBLIC 'DATA'
_DATA	ENDS
;	COMDAT ??_R0?AVCMinOrExit@@@8
_DATA	SEGMENT DWORD USE32 PUBLIC 'DATA'
_DATA	ENDS
;	COMDAT ??_R0?AV?$numpunct@_W@std@@@8
_DATA	SEGMENT DWORD USE32 PUBLIC 'DATA'
_DATA	ENDS
;	COMDAT ??_R0?AV?$numpunct@D@std@@@8
_DATA	SEGMENT DWORD USE32 PUBLIC 'DATA'
_DATA	ENDS
;	COMDAT ??_R4IData@@6B@
rdata$r	SEGMENT DWORD USE32 PUBLIC 'CONST'
rdata$r	ENDS
;	COMDAT ?Create@CDialog@@UAEHIPAVCWnd@@@Z
_TEXT	SEGMENT PARA USE32 PUBLIC 'CODE'
_TEXT	ENDS
;	COMDAT ?EndModalState@CWnd@@UAEXXZ
_TEXT	SEGMENT PARA USE32 PUBLIC 'CODE'
_TEXT	ENDS
;	COMDAT ?BeginModalState@CWnd@@UAEXXZ
_TEXT	SEGMENT PARA USE32 PUBLIC 'CODE'
_TEXT	ENDS
;	COMDAT ?Dump@CObject@@UBEXAAVCDumpContext@@@Z
_TEXT	SEGMENT PARA USE32 PUBLIC 'CODE'
_TEXT	ENDS
;	COMDAT ?AssertValid@CObject@@UBEXXZ
_TEXT	SEGMENT PARA USE32 PUBLIC 'CODE'
_TEXT	ENDS
;	COMDAT ?Serialize@CObject@@UAEXAAVCArchive@@@Z
_TEXT	SEGMENT PARA USE32 PUBLIC 'CODE'
_TEXT	ENDS
;	COMDAT ??_R4CMinOrExit@@6B@
rdata$r	SEGMENT DWORD USE32 PUBLIC 'CONST'
rdata$r	ENDS
;	COMDAT ??0?$allocator@_W@std@@QAE@XZ
_TEXT	SEGMENT PARA USE32 PUBLIC 'CODE'
_TEXT	ENDS
;	COMDAT ??_G?$numpunct@_W@std@@MAEPAXI@Z
_TEXT	SEGMENT PARA USE32 PUBLIC 'CODE'
_TEXT	ENDS
;	COMDAT ??_R4?$numpunct@_W@std@@6B@
rdata$r	SEGMENT DWORD USE32 PUBLIC 'CONST'
rdata$r	ENDS
;	COMDAT ??_G?$numpunct@D@std@@MAEPAXI@Z
_TEXT	SEGMENT PARA USE32 PUBLIC 'CODE'
_TEXT	ENDS
;	COMDAT ??_R4?$numpunct@D@std@@6B@
rdata$r	SEGMENT DWORD USE32 PUBLIC 'CONST'
rdata$r	ENDS
;	COMDAT ?_Psave@?$_Facetptr@V?$numpunct@_W@std@@@std@@2PBVfacet@locale@2@B
_DATA	SEGMENT DWORD USE32 PUBLIC 'DATA'
_DATA	ENDS
;	COMDAT ?_Psave@?$_Facetptr@V?$numpunct@D@std@@@std@@2PBVfacet@locale@2@B
_DATA	SEGMENT DWORD USE32 PUBLIC 'DATA'
_DATA	ENDS
;	COMDAT ?Unlock@CComCriticalSection@ATL@@QAEJXZ
_TEXT	SEGMENT PARA USE32 PUBLIC 'CODE'
_TEXT	ENDS
;	COMDAT ?_Psave@?$_Facetptr@V?$ctype@_W@std@@@std@@2PBVfacet@locale@2@B
_DATA	SEGMENT DWORD USE32 PUBLIC 'DATA'
_DATA	ENDS
;	COMDAT ?_Psave@?$_Facetptr@V?$ctype@D@std@@@std@@2PBVfacet@locale@2@B
_DATA	SEGMENT DWORD USE32 PUBLIC 'DATA'
_DATA	ENDS
;	COMDAT ??_7length_error@std@@6B@
CONST	SEGMENT DWORD USE32 PUBLIC 'CONST'
CONST	ENDS
;	COMDAT ??_R4length_error@std@@6B@
rdata$r	SEGMENT DWORD USE32 PUBLIC 'CONST'
rdata$r	ENDS
;	COMDAT ??_R3length_error@std@@8
rdata$r	SEGMENT DWORD USE32 PUBLIC 'CONST'
rdata$r	ENDS
;	COMDAT ??_R2length_error@std@@8
rdata$r	SEGMENT DWORD USE32 PUBLIC 'CONST'
rdata$r	ENDS
;	COMDAT ??_R1A@?0A@A@length_error@std@@8
rdata$r	SEGMENT DWORD USE32 PUBLIC 'CONST'
rdata$r	ENDS
;	COMDAT ??_R1A@?0A@A@logic_error@std@@8
rdata$r	SEGMENT DWORD USE32 PUBLIC 'CONST'
rdata$r	ENDS
;	COMDAT ??_R0?AVlogic_error@std@@@8
_DATA	SEGMENT DWORD USE32 PUBLIC 'DATA'
_DATA	ENDS
;	COMDAT ??_R1A@?0A@A@exception@@8
rdata$r	SEGMENT DWORD USE32 PUBLIC 'CONST'
rdata$r	ENDS
;	COMDAT ??_R0?AVexception@@@8
_DATA	SEGMENT DWORD USE32 PUBLIC 'DATA'
_DATA	ENDS
;	COMDAT ??_Glength_error@std@@UAEPAXI@Z
_TEXT	SEGMENT PARA USE32 PUBLIC 'CODE'
_TEXT	ENDS
;	COMDAT ?what@logic_error@std@@UBEPBDXZ
_TEXT	SEGMENT PARA USE32 PUBLIC 'CODE'
_TEXT	ENDS
;	COMDAT ??1logic_error@std@@UAE@XZ
_TEXT	SEGMENT PARA USE32 PUBLIC 'CODE'
_TEXT	ENDS
;	COMDAT ??_7logic_error@std@@6B@
CONST	SEGMENT DWORD USE32 PUBLIC 'CONST'
CONST	ENDS
;	COMDAT ??_R4logic_error@std@@6B@
rdata$r	SEGMENT DWORD USE32 PUBLIC 'CONST'
rdata$r	ENDS
;	COMDAT ??_R3logic_error@std@@8
rdata$r	SEGMENT DWORD USE32 PUBLIC 'CONST'
rdata$r	ENDS
;	COMDAT ??_R2logic_error@std@@8
rdata$r	SEGMENT DWORD USE32 PUBLIC 'CONST'
rdata$r	ENDS
;	COMDAT ??_Glogic_error@std@@UAEPAXI@Z
_TEXT	SEGMENT PARA USE32 PUBLIC 'CODE'
_TEXT	ENDS
;	COMDAT ??0logic_error@std@@QAE@ABV01@@Z
_TEXT	SEGMENT PARA USE32 PUBLIC 'CODE'
_TEXT	ENDS
;	COMDAT __CTA3?AVlength_error@std@@
xdata$x	SEGMENT DWORD USE32 PUBLIC 'CONST'
xdata$x	ENDS
;	COMDAT ??1length_error@std@@UAE@XZ
_TEXT	SEGMENT PARA USE32 PUBLIC 'CODE'
_TEXT	ENDS
;	COMDAT __CT??_R0?AVexception@@@8??0exception@@QAE@ABV0@@Z12
xdata$x	SEGMENT DWORD USE32 PUBLIC 'CONST'
xdata$x	ENDS
;	COMDAT __CT??_R0?AVlogic_error@std@@@8??0logic_error@std@@QAE@ABV01@@Z40
xdata$x	SEGMENT DWORD USE32 PUBLIC 'CONST'
xdata$x	ENDS
;	COMDAT __CT??_R0?AVlength_error@std@@@8??0length_error@std@@QAE@ABV01@@Z40
xdata$x	SEGMENT DWORD USE32 PUBLIC 'CONST'
xdata$x	ENDS
;	COMDAT ??_R0?AVlength_error@std@@@8
_DATA	SEGMENT DWORD USE32 PUBLIC 'DATA'
_DATA	ENDS
;	COMDAT __TI3?AVlength_error@std@@
xdata$x	SEGMENT DWORD USE32 PUBLIC 'CONST'
xdata$x	ENDS
;	COMDAT ??0length_error@std@@QAE@ABV?$basic_string@DU?$char_traits@D@std@@V?$allocator@D@2@@1@@Z
_TEXT	SEGMENT PARA USE32 PUBLIC 'CODE'
_TEXT	ENDS
;	COMDAT ??0logic_error@std@@QAE@ABV?$basic_string@DU?$char_traits@D@std@@V?$allocator@D@2@@1@@Z
_TEXT	SEGMENT PARA USE32 PUBLIC 'CODE'
_TEXT	ENDS
;	COMDAT ??$_Maklocchr@_W@std@@YA_WDPA_WABU_Cvtvec@@@Z
_TEXT	SEGMENT PARA USE32 PUBLIC 'CODE'
_TEXT	ENDS
;	COMDAT ??$_Maklocstr@_W@std@@YAPA_WPBDPA_WABU_Cvtvec@@@Z
_TEXT	SEGMENT PARA USE32 PUBLIC 'CODE'
_TEXT	ENDS
;	COMDAT ??$_Maklocchr@D@std@@YADDPADABU_Cvtvec@@@Z
_TEXT	SEGMENT PARA USE32 PUBLIC 'CODE'
_TEXT	ENDS
;	COMDAT ??_C@_04LOAJBDKD@true?$AA@
CONST	SEGMENT DWORD USE32 PUBLIC 'CONST'
CONST	ENDS
;	COMDAT ??_C@_05LAPONLG@false?$AA@
CONST	SEGMENT DWORD USE32 PUBLIC 'CONST'
CONST	ENDS
;	COMDAT _wmemcpy
_TEXT	SEGMENT PARA USE32 PUBLIC 'CODE'
_TEXT	ENDS
;	COMDAT ?max_size@?$allocator@_W@std@@QBEIXZ
_TEXT	SEGMENT PARA USE32 PUBLIC 'CODE'
_TEXT	ENDS
;	COMDAT ?allocate@?$allocator@_W@std@@QAEPA_WI@Z
_TEXT	SEGMENT PARA USE32 PUBLIC 'CODE'
_TEXT	ENDS
;	COMDAT ??$_Allocate@_W@std@@YAPA_WIPA_W@Z
_TEXT	SEGMENT PARA USE32 PUBLIC 'CODE'
_TEXT	ENDS
;	COMDAT ??_C@_01GFHCPBMG@C?$AA@
CONST	SEGMENT DWORD USE32 PUBLIC 'CONST'
CONST	ENDS
;	COMDAT ?max_size@?$allocator@D@std@@QBEIXZ
_TEXT	SEGMENT PARA USE32 PUBLIC 'CODE'
_TEXT	ENDS
;	COMDAT ?allocate@?$allocator@D@std@@QAEPADI@Z
_TEXT	SEGMENT PARA USE32 PUBLIC 'CODE'
_TEXT	ENDS
;	COMDAT ??$_Allocate@D@std@@YAPADIPAD@Z
_TEXT	SEGMENT PARA USE32 PUBLIC 'CODE'
_TEXT	ENDS
;	COMDAT ?deallocate@?$allocator@D@std@@QAEXPADI@Z
_TEXT	SEGMENT PARA USE32 PUBLIC 'CODE'
_TEXT	ENDS
;	COMDAT ?_Peek@?$istreambuf_iterator@_WU?$char_traits@_W@std@@@std@@AAE_WXZ
_TEXT	SEGMENT PARA USE32 PUBLIC 'CODE'
_TEXT	ENDS
;	COMDAT ?_Peek@?$istreambuf_iterator@DU?$char_traits@D@std@@@std@@AAEDXZ
_TEXT	SEGMENT PARA USE32 PUBLIC 'CODE'
_TEXT	ENDS
;	COMDAT ??$use_facet@V?$ctype@_W@std@@@std@@YAABV?$ctype@_W@0@ABVlocale@0@@Z
_TEXT	SEGMENT PARA USE32 PUBLIC 'CODE'
_TEXT	ENDS
;	COMDAT ??_S?$ctype@_W@std@@6B@
CONST	SEGMENT DWORD USE32 PUBLIC 'CONST'
CONST	ENDS
;	COMDAT ??_R4?$ctype@_W@std@@6B@
rdata$r	SEGMENT DWORD USE32 PUBLIC 'CONST'
rdata$r	ENDS
;	COMDAT ??_R0?AV?$ctype@_W@std@@@8
_DATA	SEGMENT DWORD USE32 PUBLIC 'DATA'
_DATA	ENDS
;	COMDAT ??_R3?$ctype@_W@std@@8
rdata$r	SEGMENT DWORD USE32 PUBLIC 'CONST'
rdata$r	ENDS
;	COMDAT ??_R2?$ctype@_W@std@@8
rdata$r	SEGMENT DWORD USE32 PUBLIC 'CONST'
rdata$r	ENDS
;	COMDAT ??_R1A@?0A@A@?$ctype@_W@std@@8
rdata$r	SEGMENT DWORD USE32 PUBLIC 'CONST'
rdata$r	ENDS
;	COMDAT ??_R1A@?0A@A@ctype_base@std@@8
rdata$r	SEGMENT DWORD USE32 PUBLIC 'CONST'
rdata$r	ENDS
;	COMDAT ??_R0?AUctype_base@std@@@8
_DATA	SEGMENT DWORD USE32 PUBLIC 'DATA'
_DATA	ENDS
;	COMDAT ??_G?$ctype@_W@std@@MAEPAXI@Z
_TEXT	SEGMENT PARA USE32 PUBLIC 'CODE'
_TEXT	ENDS
;	COMDAT ??_C@_08EPJLHIJG@bad?5cast?$AA@
CONST	SEGMENT DWORD USE32 PUBLIC 'CONST'
CONST	ENDS
;	COMDAT __TI2?AVbad_cast@@
xdata$x	SEGMENT DWORD USE32 PUBLIC 'CONST'
xdata$x	ENDS
;	COMDAT __CTA2?AVbad_cast@@
xdata$x	SEGMENT DWORD USE32 PUBLIC 'CONST'
xdata$x	ENDS
;	COMDAT __CT??_R0?AVbad_cast@@@8??0bad_cast@@QAE@ABV0@@Z12
xdata$x	SEGMENT DWORD USE32 PUBLIC 'CONST'
xdata$x	ENDS
;	COMDAT ??_R0?AVbad_cast@@@8
_DATA	SEGMENT DWORD USE32 PUBLIC 'DATA'
_DATA	ENDS
;	COMDAT ??$use_facet@V?$ctype@D@std@@@std@@YAABV?$ctype@D@0@ABVlocale@0@@Z
_TEXT	SEGMENT PARA USE32 PUBLIC 'CODE'
_TEXT	ENDS
;	COMDAT ??_S?$ctype@D@std@@6B@
CONST	SEGMENT DWORD USE32 PUBLIC 'CONST'
CONST	ENDS
;	COMDAT ??_R4?$ctype@D@std@@6B@
rdata$r	SEGMENT DWORD USE32 PUBLIC 'CONST'
rdata$r	ENDS
;	COMDAT ??_R0?AV?$ctype@D@std@@@8
_DATA	SEGMENT DWORD USE32 PUBLIC 'DATA'
_DATA	ENDS
;	COMDAT ??_R3?$ctype@D@std@@8
rdata$r	SEGMENT DWORD USE32 PUBLIC 'CONST'
rdata$r	ENDS
;	COMDAT ??_R2?$ctype@D@std@@8
rdata$r	SEGMENT DWORD USE32 PUBLIC 'CONST'
rdata$r	ENDS
;	COMDAT ??_R1A@?0A@A@?$ctype@D@std@@8
rdata$r	SEGMENT DWORD USE32 PUBLIC 'CONST'
rdata$r	ENDS
;	COMDAT ??_G?$ctype@D@std@@MAEPAXI@Z
_TEXT	SEGMENT PARA USE32 PUBLIC 'CODE'
_TEXT	ENDS
;	COMDAT ??_S?$numpunct@_W@std@@6B@
CONST	SEGMENT DWORD USE32 PUBLIC 'CONST'
CONST	ENDS
;	COMDAT ??_S?$numpunct@D@std@@6B@
CONST	SEGMENT DWORD USE32 PUBLIC 'CONST'
CONST	ENDS
;	COMDAT _wmemmove
_TEXT	SEGMENT PARA USE32 PUBLIC 'CODE'
_TEXT	ENDS
;	COMDAT ?deallocate@?$allocator@_W@std@@QAEXPA_WI@Z
_TEXT	SEGMENT PARA USE32 PUBLIC 'CODE'
_TEXT	ENDS
;	COMDAT ??0?$allocator@_W@std@@QAE@ABV01@@Z
_TEXT	SEGMENT PARA USE32 PUBLIC 'CODE'
_TEXT	ENDS
;	COMDAT ?OnNcHitTest@CWnd@@IAEIVCPoint@@@Z
_TEXT	SEGMENT PARA USE32 PUBLIC 'CODE'
_TEXT	ENDS
;	COMDAT ?PtInRect@CRect@@QBEHUtagPOINT@@@Z
_TEXT	SEGMENT PARA USE32 PUBLIC 'CODE'
_TEXT	ENDS
;	COMDAT ?GetClientRect@CWnd@@QBEXPAUtagRECT@@@Z
_TEXT	SEGMENT PARA USE32 PUBLIC 'CODE'
_TEXT	ENDS
;	COMDAT ?OnLButtonUp@CWnd@@IAEXIVCPoint@@@Z
_TEXT	SEGMENT PARA USE32 PUBLIC 'CODE'
_TEXT	ENDS
;	COMDAT ??BCRect@@QAEPAUtagRECT@@XZ
_TEXT	SEGMENT PARA USE32 PUBLIC 'CODE'
_TEXT	ENDS
;	COMDAT ?MoveWindow@CWnd@@QAEXPBUtagRECT@@H@Z
_TEXT	SEGMENT PARA USE32 PUBLIC 'CODE'
_TEXT	ENDS
;	COMDAT ?GetWindowRect@CWnd@@QBEXPAUtagRECT@@@Z
_TEXT	SEGMENT PARA USE32 PUBLIC 'CODE'
_TEXT	ENDS
;	COMDAT ?GetParent@CWnd@@QBEPAV1@XZ
_TEXT	SEGMENT PARA USE32 PUBLIC 'CODE'
_TEXT	ENDS
;	COMDAT ??0CRect@@QAE@XZ
_TEXT	SEGMENT PARA USE32 PUBLIC 'CODE'
_TEXT	ENDS
;	COMDAT ?data@CStringData@ATL@@QAEPAXXZ
_TEXT	SEGMENT PARA USE32 PUBLIC 'CODE'
_TEXT	ENDS
;	COMDAT ?GetDefaultManager@?$StrTraitMFC_DLL@DV?$ChTraitsCRT@D@ATL@@@@SAPAUIAtlStringMgr@ATL@@XZ
_TEXT	SEGMENT PARA USE32 PUBLIC 'CODE'
_TEXT	ENDS
;	COMDAT ?Release@CStringData@ATL@@QAEXXZ
_TEXT	SEGMENT PARA USE32 PUBLIC 'CODE'
_TEXT	ENDS
;	COMDAT ?FindStringResourceInstance@?$StrTraitMFC_DLL@DV?$ChTraitsCRT@D@ATL@@@@SAPAUHINSTANCE__@@I@Z
_TEXT	SEGMENT PARA USE32 PUBLIC 'CODE'
_TEXT	ENDS
;	COMDAT ?AtlGetStringResourceImage@ATL@@YAPBUATLSTRINGRESOURCEIMAGE@1@PAUHINSTANCE__@@I@Z
_TEXT	SEGMENT PARA USE32 PUBLIC 'CODE'
_TEXT	ENDS
;	COMDAT ?_AtlGetStringResourceImage@ATL@@YAPBUATLSTRINGRESOURCEIMAGE@1@PAUHINSTANCE__@@PAUHRSRC__@@I@Z
_TEXT	SEGMENT PARA USE32 PUBLIC 'CODE'
_TEXT	ENDS
;	COMDAT ?GetBaseTypeLength@?$ChTraitsCRT@D@ATL@@SAHPB_WH@Z
_TEXT	SEGMENT PARA USE32 PUBLIC 'CODE'
_TEXT	ENDS
;	COMDAT ?_AtlGetConversionACP@ATL@@YGIXZ
_TEXT	SEGMENT PARA USE32 PUBLIC 'CODE'
_TEXT	ENDS
;	COMDAT ?g_pfnGetThreadACP@ATL@@3P6GIXZA
_DATA	SEGMENT DWORD USE32 PUBLIC 'DATA'
_DATA	ENDS
;	COMDAT ?_AtlGetThreadACPThunk@ATL@@YGIXZ
_TEXT	SEGMENT PARA USE32 PUBLIC 'CODE'
_TEXT	ENDS
;	COMDAT ?_AtlGetThreadACPReal@ATL@@YGIXZ
_TEXT	SEGMENT PARA USE32 PUBLIC 'CODE'
_TEXT	ENDS
;	COMDAT ?_AtlGetThreadACPFake@ATL@@YGIXZ
_TEXT	SEGMENT PARA USE32 PUBLIC 'CODE'
_TEXT	ENDS
;	COMDAT ?InterlockedExchangePointer@@YGPAXPAPAXPAX@Z
_TEXT	SEGMENT PARA USE32 PUBLIC 'CODE'
_TEXT	ENDS
;	COMDAT ?IsShared@CStringData@ATL@@QBE_NXZ
_TEXT	SEGMENT PARA USE32 PUBLIC 'CODE'
_TEXT	ENDS
;	COMDAT ?AtlThrow@ATL@@YGXJ@Z
_TEXT	SEGMENT PARA USE32 PUBLIC 'CODE'
_TEXT	ENDS
;	COMDAT ?ConvertToBaseType@?$ChTraitsCRT@D@ATL@@SAXPADHPB_WH@Z
_TEXT	SEGMENT PARA USE32 PUBLIC 'CODE'
_TEXT	ENDS
;	COMDAT ?IsLocked@CStringData@ATL@@QBE_NXZ
_TEXT	SEGMENT PARA USE32 PUBLIC 'CODE'
_TEXT	ENDS
;	COMDAT ??0CRect@@QAE@HHHH@Z
_TEXT	SEGMENT PARA USE32 PUBLIC 'CODE'
_TEXT	ENDS
;	COMDAT ??0?$allocator@D@std@@QAE@ABV01@@Z
_TEXT	SEGMENT PARA USE32 PUBLIC 'CODE'
_TEXT	ENDS
;	COMDAT ??0?$allocator@D@std@@QAE@XZ
_TEXT	SEGMENT PARA USE32 PUBLIC 'CODE'
_TEXT	ENDS
;	COMDAT ?SetWindowRgn@CWnd@@QAEHPAUHRGN__@@H@Z
_TEXT	SEGMENT PARA USE32 PUBLIC 'CODE'
_TEXT	ENDS
;	COMDAT ?_messageEntries@CMinOrExit@@0QBUAFX_MSGMAP_ENTRY@@B
CONST	SEGMENT DWORD USE32 PUBLIC 'CONST'
CONST	ENDS
;	COMDAT ?messageMap@CMinOrExit@@1UAFX_MSGMAP@@B
CONST	SEGMENT DWORD USE32 PUBLIC 'CONST'
CONST	ENDS
;	COMDAT ?DoDataExchange@CWnd@@MAEXPAVCDataExchange@@@Z
_TEXT	SEGMENT PARA USE32 PUBLIC 'CODE'
_TEXT	ENDS
;	COMDAT ??3CObject@@SGXPAX@Z
_TEXT	SEGMENT PARA USE32 PUBLIC 'CODE'
_TEXT	ENDS
;	COMDAT ??_7CMinOrExit@@6B@
CONST	SEGMENT DWORD USE32 PUBLIC 'CONST'
CONST	ENDS
;	COMDAT ?classCMinOrExit@CMinOrExit@@2UCRuntimeClass@@B
CONST	SEGMENT DWORD USE32 PUBLIC 'CONST'
CONST	ENDS
;	COMDAT ?AddRef@CStringData@ATL@@QAEXXZ
_TEXT	SEGMENT PARA USE32 PUBLIC 'CODE'
_TEXT	ENDS
;	COMDAT ??_7IData@@6B@
CONST	SEGMENT DWORD USE32 PUBLIC 'CONST'
CONST	ENDS
sxdata	SEGMENT DWORD USE32 'SXDATA'
sxdata	ENDS
FLAT	GROUP _DATA, CONST, _BSS
	ASSUME	CS: FLAT, DS: FLAT, SS: FLAT
endif

INCLUDELIB MSVCRT
INCLUDELIB OLDNAMES

PUBLIC	?_messageEntries@CMinOrExit@@0QBUAFX_MSGMAP_ENTRY@@B ; CMinOrExit::_messageEntries
PUBLIC	?messageMap@CMinOrExit@@1UAFX_MSGMAP@@B		; CMinOrExit::messageMap
PUBLIC	?OnPaint@CMinOrExit@@QAEXXZ			; CMinOrExit::OnPaint
PUBLIC	?OnLButtonUp@CMinOrExit@@QAEXIVCPoint@@@Z	; CMinOrExit::OnLButtonUp
PUBLIC	?OnNcHitTest@CMinOrExit@@QAEIVCPoint@@@Z	; CMinOrExit::OnNcHitTest
PUBLIC	?g_pfnGetThreadACP@ATL@@3P6GIXZA		; ATL::g_pfnGetThreadACP
PUBLIC	?_AtlGetThreadACPThunk@ATL@@YGIXZ		; ATL::_AtlGetThreadACPThunk
PUBLIC	?classCMinOrExit@CMinOrExit@@2UCRuntimeClass@@B	; CMinOrExit::classCMinOrExit
EXTRN	?GetThisClass@CDialog@@SGPAUCRuntimeClass@@XZ:NEAR ; CDialog::GetThisClass
EXTRN	?GetThisMessageMap@CDialog@@KGPBUAFX_MSGMAP@@XZ:NEAR ; CDialog::GetThisMessageMap
CONST	SEGMENT
$SG197676 DB	'int', 00H
CONST	ENDS
_DATA	SEGMENT
_TYPE_CONFIG_INT DD FLAT:$SG197676
_DATA	ENDS
CONST	SEGMENT
$SG197678 DB	'str', 00H
CONST	ENDS
_DATA	SEGMENT
_TYPE_CONFIG_STR DD FLAT:$SG197678
_DATA	ENDS
CONST	SEGMENT
$SG197680 DB	'double', 00H
CONST	ENDS
_DATA	SEGMENT
_TYPE_CONFIG_DOUBLE DD FLAT:$SG197680
_DATA	ENDS
CONST	SEGMENT
	ORG $+1
$SG197682 DB	'bool', 00H
CONST	ENDS
_DATA	SEGMENT
_TYPE_CONFIG_BOOL DD FLAT:$SG197682
_DATA	ENDS
CONST	SEGMENT
	ORG $+3
$SG197684 DB	'sepint', 00H
CONST	ENDS
_DATA	SEGMENT
_TYPE_CONFIG_INT_HASSEP DD FLAT:$SG197684
_DATA	ENDS
CONST	SEGMENT
	ORG $+1
$SG197686 DB	'sepstr', 00H
CONST	ENDS
_DATA	SEGMENT
_TYPE_CONFIG_STR_HASSEP DD FLAT:$SG197686
_DATA	ENDS
CONST	SEGMENT
	ORG $+1
$SG197688 DB	'sepdouble', 00H
CONST	ENDS
_DATA	SEGMENT
_TYPE_CONFIG_DOUBLE_HASSEP DD FLAT:$SG197688
_DATA	ENDS
CONST	SEGMENT
	ORG $+2
$SG197690 DB	'sepbool', 00H
CONST	ENDS
_DATA	SEGMENT
_TYPE_CONFIG_BOOL_HASSEP DD FLAT:$SG197690
_DATA	ENDS
CONST	SEGMENT
$SG197692 DB	'Setting', 00H
CONST	ENDS
_DATA	SEGMENT
_CONF_SETTING_MODULE_NAME DD FLAT:$SG197692
_DATA	ENDS
CONST	SEGMENT
$SG197694 DB	'skin', 00H
CONST	ENDS
_DATA	SEGMENT
_CONF_SETTING_SKIN_IDX DD FLAT:$SG197694
_DATA	ENDS
CONST	SEGMENT
	ORG $+3
$SG197696 DB	'MainPage', 00H
CONST	ENDS
_DATA	SEGMENT
_CONF_SETTING_CONFIG_MAIN_PAGE DD FLAT:$SG197696
_DATA	ENDS
CONST	SEGMENT
	ORG $+3
$SG197698 DB	'ProblemReport', 00H
CONST	ENDS
_DATA	SEGMENT
_CONF_SETTING_CONFIG_PROBLEM_REPORT DD FLAT:$SG197698
_DATA	ENDS
CONST	SEGMENT
	ORG $+2
$SG197700 DB	'HomePage', 00H
CONST	ENDS
_DATA	SEGMENT
_CONF_SETTING_CONFIG_HOME_PAGE DD FLAT:$SG197700
_DATA	ENDS
CONST	SEGMENT
	ORG $+3
$SG197702 DB	'askexit', 00H
CONST	ENDS
_DATA	SEGMENT
_CONF_SETTING_CONFIG_IFASKEXIT DD FLAT:$SG197702
_DATA	ENDS
CONST	SEGMENT
$SG197704 DB	'exitchoice', 00H
CONST	ENDS
_DATA	SEGMENT
_CONF_SETTING_CONFIG_EXITCHOICE DD FLAT:$SG197704
_DATA	ENDS
CONST	SEGMENT
	ORG $+1
$SG197706 DB	'UN', 00H
CONST	ENDS
_DATA	SEGMENT
_CONF_SETTING_LOGIN_USER_NAME DD FLAT:$SG197706
_DATA	ENDS
CONST	SEGMENT
	ORG $+1
$SG197708 DB	'PW', 00H
CONST	ENDS
_DATA	SEGMENT
_CONF_SETTING_LOGIN_PASSWORD DD FLAT:$SG197708
_DATA	ENDS
CONST	SEGMENT
	ORG $+1
$SG197710 DB	'NetID', 00H
CONST	ENDS
_DATA	SEGMENT
_CONF_SETTING_NETID DD FLAT:$SG197710
_DATA	ENDS
CONST	SEGMENT
	ORG $+2
$SG197712 DB	'ChangeColorValue', 00H
CONST	ENDS
_DATA	SEGMENT
_CONF_SETTING_COLOR DD FLAT:$SG197712
_DATA	ENDS
CONST	SEGMENT
	ORG $+3
$SG197714 DB	'changeColorLight', 00H
CONST	ENDS
_DATA	SEGMENT
_CONF_SETTING_LIGHT DD FLAT:$SG197714
_DATA	ENDS
CONST	SEGMENT
	ORG $+3
$SG197716 DB	'ColorIndex', 00H
CONST	ENDS
_DATA	SEGMENT
_CONF_SETTING_COLOR_BTN_INDEX DD FLAT:$SG197716
_DATA	ENDS
CONST	SEGMENT
	ORG $+1
$SG197718 DB	'ColorUser', 00H
CONST	ENDS
_DATA	SEGMENT
_CONF_SETTING_COLOR_USER DD FLAT:$SG197718
_DATA	ENDS
CONST	SEGMENT
	ORG $+2
$SG197720 DB	'FirstTimeChangeSkin', 00H
CONST	ENDS
_DATA	SEGMENT
_CONF_SETTING_FIRST_TIME_CHANGESKIN DD FLAT:$SG197720
_DATA	ENDS
CONST	SEGMENT
$SG198981 DB	'CMinOrExit', 00H
CONST	ENDS
;	COMDAT ?classCMinOrExit@CMinOrExit@@2UCRuntimeClass@@B
CONST	SEGMENT
?classCMinOrExit@CMinOrExit@@2UCRuntimeClass@@B DD FLAT:$SG198981 ; CMinOrExit::classCMinOrExit
	DD	0ac4H
	DD	0ffffH
	DD	00H
	DD	FLAT:?GetThisClass@CDialog@@SGPAUCRuntimeClass@@XZ
	DD	00H
	DD	00H
CONST	ENDS
CONST	SEGMENT
	ORG $+1
$SG198994 DB	'MinOrExitBkg', 00H
CONST	ENDS
;	COMDAT ?_messageEntries@CMinOrExit@@0QBUAFX_MSGMAP_ENTRY@@B
CONST	SEGMENT
?_messageEntries@CMinOrExit@@0QBUAFX_MSGMAP_ENTRY@@B DD 0fH ; CMinOrExit::_messageEntries
	DD	00H
	DD	00H
	DD	00H
	DD	010H
	DD	FLAT:?OnPaint@CMinOrExit@@QAEXXZ
	DD	0202H
	DD	00H
	DD	00H
	DD	00H
	DD	032H
	DD	FLAT:?OnLButtonUp@CMinOrExit@@QAEXIVCPoint@@@Z
	DD	084H
	DD	00H
	DD	00H
	DD	00H
	DD	02dH
	DD	FLAT:?OnNcHitTest@CMinOrExit@@QAEIVCPoint@@@Z
	DD	00H
	DD	00H
	DD	00H
	DD	00H
	DD	00H
	DD	00H
CONST	ENDS
;	COMDAT ?messageMap@CMinOrExit@@1UAFX_MSGMAP@@B
CONST	SEGMENT
?messageMap@CMinOrExit@@1UAFX_MSGMAP@@B DD FLAT:?GetThisMessageMap@CDialog@@KGPBUAFX_MSGMAP@@XZ ; CMinOrExit::messageMap
	DD	FLAT:?_messageEntries@CMinOrExit@@0QBUAFX_MSGMAP_ENTRY@@B
CONST	ENDS
CONST	SEGMENT
	ORG $+3
$SG199041 DB	'MinOrExit_close', 00H
$SG199043 DB	'MinOrExit_cancle', 00H
	ORG $+3
$SG199045 DB	'MinOrExit_ok', 00H
	ORG $+3
$SG199047 DB	'MinOrExit_rad1unCheck', 00H
	ORG $+2
$SG199049 DB	'MinOrExit_rad1Checked', 00H
	ORG $+2
$SG199051 DB	'MinOrExit_rad2unCheck', 00H
	ORG $+2
$SG199053 DB	'MinOrExit_rad2Checked', 00H
	ORG $+2
$SG199055 DB	'MinOrExit_m_boxunCheck', 00H
	ORG $+1
$SG199057 DB	'MinOrExit_m_boxChecked', 00H
	ORG $+1
$SG199060 DB	'normal', 00H
	ORG $+1
$SG199061 DB	'MinOrExit', 00H
	ORG $+2
$SG199064 DB	'normal', 00H
	ORG $+1
$SG199065 DB	'MinOrExit', 00H
	ORG $+2
$SG199077 DB	'win rect x: %d, y: %d, r: %d, b: %d.', 00H
	ORG $+3
$SG199078 DB	'OnInitDialog', 00H
	ORG $+3
$SG199079 DB	'MinOrExit.txt', 00H
CONST	ENDS
;	COMDAT ?g_pfnGetThreadACP@ATL@@3P6GIXZA
_DATA	SEGMENT
?g_pfnGetThreadACP@ATL@@3P6GIXZA DD FLAT:?_AtlGetThreadACPThunk@ATL@@YGIXZ ; ATL::g_pfnGetThreadACP
_DATA	ENDS
PUBLIC	?GetThisClass@CMinOrExit@@SGPAUCRuntimeClass@@XZ ; CMinOrExit::GetThisClass
; Function compile flags: /Odt
; File d:\boxgit\playbox\playbox\dev\prj\playbox\src\module\toppanel\minorexit.cpp
_TEXT	SEGMENT
?GetThisClass@CMinOrExit@@SGPAUCRuntimeClass@@XZ PROC NEAR ; CMinOrExit::GetThisClass

; 13   : IMPLEMENT_DYNAMIC(CMinOrExit, CDialog)

  00000	55		 push	 ebp
  00001	8b ec		 mov	 ebp, esp
  00003	b8 00 00 00 00	 mov	 eax, OFFSET FLAT:?classCMinOrExit@CMinOrExit@@2UCRuntimeClass@@B ; CMinOrExit::classCMinOrExit
  00008	5d		 pop	 ebp
  00009	c3		 ret	 0
?GetThisClass@CMinOrExit@@SGPAUCRuntimeClass@@XZ ENDP	; CMinOrExit::GetThisClass
_TEXT	ENDS
PUBLIC	?GetRuntimeClass@CMinOrExit@@UBEPAUCRuntimeClass@@XZ ; CMinOrExit::GetRuntimeClass
; Function compile flags: /Odt
_TEXT	SEGMENT
_this$ = -4						; size = 4
?GetRuntimeClass@CMinOrExit@@UBEPAUCRuntimeClass@@XZ PROC NEAR ; CMinOrExit::GetRuntimeClass
; _this$ = ecx

; 13   : IMPLEMENT_DYNAMIC(CMinOrExit, CDialog)

  00010	55		 push	 ebp
  00011	8b ec		 mov	 ebp, esp
  00013	51		 push	 ecx
  00014	89 4d fc	 mov	 DWORD PTR _this$[ebp], ecx
  00017	b8 00 00 00 00	 mov	 eax, OFFSET FLAT:?classCMinOrExit@CMinOrExit@@2UCRuntimeClass@@B ; CMinOrExit::classCMinOrExit
  0001c	8b e5		 mov	 esp, ebp
  0001e	5d		 pop	 ebp
  0001f	c3		 ret	 0
?GetRuntimeClass@CMinOrExit@@UBEPAUCRuntimeClass@@XZ ENDP ; CMinOrExit::GetRuntimeClass
_TEXT	ENDS
PUBLIC	?OnInitDialog@CMinOrExit@@MAEHXZ		; CMinOrExit::OnInitDialog
PUBLIC	?OnCommand@CMinOrExit@@MAEHIJ@Z			; CMinOrExit::OnCommand
PUBLIC	?GetMessageMap@CMinOrExit@@MBEPBUAFX_MSGMAP@@XZ	; CMinOrExit::GetMessageMap
PUBLIC	?OnOK@CMinOrExit@@MAEXXZ			; CMinOrExit::OnOK
PUBLIC	??_7CMinOrExit@@6B@				; CMinOrExit::`vftable'
PUBLIC	??_GCMinOrExit@@UAEPAXI@Z			; CMinOrExit::`scalar deleting destructor'
PUBLIC	??_R4CMinOrExit@@6B@				; CMinOrExit::`RTTI Complete Object Locator'
PUBLIC	??_R0?AVCMinOrExit@@@8				; CMinOrExit `RTTI Type Descriptor'
PUBLIC	??_R3CMinOrExit@@8				; CMinOrExit::`RTTI Class Hierarchy Descriptor'
PUBLIC	??_R2CMinOrExit@@8				; CMinOrExit::`RTTI Base Class Array'
PUBLIC	??_R1A@?0A@A@CMinOrExit@@8			; CMinOrExit::`RTTI Base Class Descriptor at (0,-1,0,0)'
PUBLIC	?Create@CDialog@@UAEHIPAVCWnd@@@Z		; CDialog::Create
PUBLIC	??_R1A@?0A@A@CObject@@8				; CObject::`RTTI Base Class Descriptor at (0,-1,0,0)'
PUBLIC	??_R0?AVCObject@@@8				; CObject `RTTI Type Descriptor'
PUBLIC	??_R1A@?0A@A@CWnd@@8				; CWnd::`RTTI Base Class Descriptor at (0,-1,0,0)'
PUBLIC	??_R0?AVCWnd@@@8				; CWnd `RTTI Type Descriptor'
PUBLIC	??_R1A@?0A@A@CCmdTarget@@8			; CCmdTarget::`RTTI Base Class Descriptor at (0,-1,0,0)'
PUBLIC	??_R0?AVCCmdTarget@@@8				; CCmdTarget `RTTI Type Descriptor'
PUBLIC	??_R1A@?0A@A@CDialog@@8				; CDialog::`RTTI Base Class Descriptor at (0,-1,0,0)'
PUBLIC	??_R0?AVCDialog@@@8				; CDialog `RTTI Type Descriptor'
PUBLIC	?Serialize@CObject@@UAEXAAVCArchive@@@Z		; CObject::Serialize
PUBLIC	?AssertValid@CObject@@UBEXXZ			; CObject::AssertValid
PUBLIC	?Dump@CObject@@UBEXAAVCDumpContext@@@Z		; CObject::Dump
PUBLIC	?BeginModalState@CWnd@@UAEXXZ			; CWnd::BeginModalState
PUBLIC	?EndModalState@CWnd@@UAEXXZ			; CWnd::EndModalState
PUBLIC	??0CMinOrExit@@QAE@PAVCWnd@@@Z			; CMinOrExit::CMinOrExit
PUBLIC	?DoDataExchange@CMinOrExit@@MAEXPAVCDataExchange@@@Z ; CMinOrExit::DoDataExchange
EXTRN	?CreateControlContainer@CWnd@@MAEHPAPAVCOleControlContainer@@@Z:NEAR ; CWnd::CreateControlContainer
EXTRN	?CreateControlSite@CWnd@@MAEHPAVCOleControlContainer@@PAPAVCOleControlSite@@IABU_GUID@@@Z:NEAR ; CWnd::CreateControlSite
EXTRN	??_ECMinOrExit@@UAEPAXI@Z:NEAR			; CMinOrExit::`vector deleting destructor'
EXTRN	?Create@CDialog@@UAEHPBDPAVCWnd@@@Z:NEAR	; CDialog::Create
EXTRN	?CreateIndirect@CDialog@@UAEHPBUDLGTEMPLATE@@PAVCWnd@@PAX@Z:NEAR ; CDialog::CreateIndirect
EXTRN	?CreateIndirect@CDialog@@UAEHPAXPAVCWnd@@@Z:NEAR ; CDialog::CreateIndirect
EXTRN	?OnToolHitTest@CWnd@@UBEHVCPoint@@PAUtagTOOLINFOA@@@Z:NEAR ; CWnd::OnToolHitTest
EXTRN	??0CDialog@@QAE@IPAVCWnd@@@Z:NEAR		; CDialog::CDialog
EXTRN	?DoModal@CDialog@@UAEHXZ:NEAR			; CDialog::DoModal
EXTRN	?OnSetFont@CDialog@@UAEXPAVCFont@@@Z:NEAR	; CDialog::OnSetFont
EXTRN	?OnCancel@CDialog@@MAEXXZ:NEAR			; CDialog::OnCancel
EXTRN	??1CDialog@@UAE@XZ:NEAR				; CDialog::~CDialog
EXTRN	?PreTranslateMessage@CDialog@@UAEHPAUtagMSG@@@Z:NEAR ; CDialog::PreTranslateMessage
EXTRN	?OnCmdMsg@CDialog@@UAEHIHPAXPAUAFX_CMDHANDLERINFO@@@Z:NEAR ; CDialog::OnCmdMsg
EXTRN	?CheckAutoCenter@CDialog@@UAEHXZ:NEAR		; CDialog::CheckAutoCenter
EXTRN	?SetOccDialogInfo@CDialog@@MAEHPAU_AFX_OCC_DIALOG_INFO@@@Z:NEAR ; CDialog::SetOccDialogInfo
EXTRN	?PreInitDialog@CDialog@@MAEXXZ:NEAR		; CDialog::PreInitDialog
EXTRN	?GetScrollBarCtrl@CWnd@@UBEPAVCScrollBar@@H@Z:NEAR ; CWnd::GetScrollBarCtrl
EXTRN	?WinHelpA@CWnd@@UAEXKI@Z:NEAR			; CWnd::WinHelpA
EXTRN	?HtmlHelpA@CWnd@@UAEXKI@Z:NEAR			; CWnd::HtmlHelpA
EXTRN	?WinHelpInternal@CWnd@@UAEXKI@Z:NEAR		; CWnd::WinHelpInternal
EXTRN	?ContinueModal@CWnd@@UAEHXZ:NEAR		; CWnd::ContinueModal
EXTRN	?EndModalLoop@CWnd@@UAEXH@Z:NEAR		; CWnd::EndModalLoop
EXTRN	?GetInterfaceMap@CWnd@@MBEPBUAFX_INTERFACEMAP@@XZ:NEAR ; CWnd::GetInterfaceMap
EXTRN	?EnsureStdObj@CWnd@@UAEJXZ:NEAR			; CWnd::EnsureStdObj
EXTRN	?get_accParent@CWnd@@UAEJPAPAUIDispatch@@@Z:NEAR ; CWnd::get_accParent
EXTRN	?get_accChildCount@CWnd@@UAEJPAJ@Z:NEAR		; CWnd::get_accChildCount
EXTRN	?get_accChild@CWnd@@UAEJUtagVARIANT@@PAPAUIDispatch@@@Z:NEAR ; CWnd::get_accChild
EXTRN	?IsInvokeAllowed@CCmdTarget@@UAEHJ@Z:NEAR	; CCmdTarget::IsInvokeAllowed
EXTRN	?get_accName@CWnd@@UAEJUtagVARIANT@@PAPA_W@Z:NEAR ; CWnd::get_accName
EXTRN	?get_accValue@CWnd@@UAEJUtagVARIANT@@PAPA_W@Z:NEAR ; CWnd::get_accValue
EXTRN	?get_accDescription@CWnd@@UAEJUtagVARIANT@@PAPA_W@Z:NEAR ; CWnd::get_accDescription
EXTRN	?GetDispatchIID@CCmdTarget@@UAEHPAU_GUID@@@Z:NEAR ; CCmdTarget::GetDispatchIID
EXTRN	?GetTypeInfoCount@CCmdTarget@@UAEIXZ:NEAR	; CCmdTarget::GetTypeInfoCount
EXTRN	?GetTypeLibCache@CCmdTarget@@UAEPAVCTypeLibCache@@XZ:NEAR ; CCmdTarget::GetTypeLibCache
EXTRN	?get_accRole@CWnd@@UAEJUtagVARIANT@@PAU2@@Z:NEAR ; CWnd::get_accRole
EXTRN	__except_list:DWORD
EXTRN	?GetTypeLib@CCmdTarget@@UAEJKPAPAUITypeLib@@@Z:NEAR ; CCmdTarget::GetTypeLib
EXTRN	?get_accState@CWnd@@UAEJUtagVARIANT@@PAU2@@Z:NEAR ; CWnd::get_accState
EXTRN	___CxxFrameHandler:NEAR
EXTRN	?get_accHelp@CWnd@@UAEJUtagVARIANT@@PAPA_W@Z:NEAR ; CWnd::get_accHelp
EXTRN	?get_accHelpTopic@CWnd@@UAEJPAPA_WUtagVARIANT@@PAJ@Z:NEAR ; CWnd::get_accHelpTopic
EXTRN	?get_accKeyboardShortcut@CWnd@@UAEJUtagVARIANT@@PAPA_W@Z:NEAR ; CWnd::get_accKeyboardShortcut
EXTRN	?get_accFocus@CWnd@@UAEJPAUtagVARIANT@@@Z:NEAR	; CWnd::get_accFocus
EXTRN	?get_accSelection@CWnd@@UAEJPAUtagVARIANT@@@Z:NEAR ; CWnd::get_accSelection
EXTRN	?get_accDefaultAction@CWnd@@UAEJUtagVARIANT@@PAPA_W@Z:NEAR ; CWnd::get_accDefaultAction
EXTRN	?GetCommandMap@CCmdTarget@@MBEPBUAFX_OLECMDMAP@@XZ:NEAR ; CCmdTarget::GetCommandMap
EXTRN	?accSelect@CWnd@@UAEJJUtagVARIANT@@@Z:NEAR	; CWnd::accSelect
EXTRN	?accLocation@CWnd@@UAEJPAJ000UtagVARIANT@@@Z:NEAR ; CWnd::accLocation
EXTRN	?GetDispatchMap@CCmdTarget@@MBEPBUAFX_DISPMAP@@XZ:NEAR ; CCmdTarget::GetDispatchMap
EXTRN	?accNavigate@CWnd@@UAEJJUtagVARIANT@@PAU2@@Z:NEAR ; CWnd::accNavigate
EXTRN	?accHitTest@CWnd@@UAEJJJPAUtagVARIANT@@@Z:NEAR	; CWnd::accHitTest
EXTRN	?GetConnectionMap@CCmdTarget@@MBEPBUAFX_CONNECTIONMAP@@XZ:NEAR ; CCmdTarget::GetConnectionMap
EXTRN	?accDoDefaultAction@CWnd@@UAEJUtagVARIANT@@@Z:NEAR ; CWnd::accDoDefaultAction
EXTRN	?put_accName@CWnd@@UAEJUtagVARIANT@@PA_W@Z:NEAR	; CWnd::put_accName
EXTRN	?put_accValue@CWnd@@UAEJUtagVARIANT@@PA_W@Z:NEAR ; CWnd::put_accValue
EXTRN	?SetProxy@CWnd@@UAEJPAUIAccessibleProxy@@@Z:NEAR ; CWnd::SetProxy
EXTRN	?CreateAccessibleProxy@CWnd@@UAEJIJPAJ@Z:NEAR	; CWnd::CreateAccessibleProxy
EXTRN	?GetEventSinkMap@CCmdTarget@@MBEPBUAFX_EVENTSINKMAP@@XZ:NEAR ; CCmdTarget::GetEventSinkMap
EXTRN	?OnCreateAggregates@CCmdTarget@@UAEHXZ:NEAR	; CCmdTarget::OnCreateAggregates
EXTRN	?GetInterfaceHook@CCmdTarget@@UAEPAUIUnknown@@PBX@Z:NEAR ; CCmdTarget::GetInterfaceHook
EXTRN	?OnNotify@CWnd@@MAEHIJPAJ@Z:NEAR		; CWnd::OnNotify
EXTRN	?GetExtraConnectionPoints@CCmdTarget@@MAEHPAVCPtrArray@@@Z:NEAR ; CCmdTarget::GetExtraConnectionPoints
EXTRN	?GetConnectionHook@CCmdTarget@@MAEPAUIConnectionPoint@@ABU_GUID@@@Z:NEAR ; CCmdTarget::GetConnectionHook
EXTRN	?PreSubclassWindow@CWnd@@UAEXXZ:NEAR		; CWnd::PreSubclassWindow
EXTRN	?Create@CWnd@@UAEHPBD0KABUtagRECT@@PAV1@IPAUCCreateContext@@@Z:NEAR ; CWnd::Create
EXTRN	?CreateEx@CWnd@@UAEHKPBD0KHHHHPAUHWND__@@PAUHMENU__@@PAX@Z:NEAR ; CWnd::CreateEx
EXTRN	??0CxSkinButton@@QAE@XZ:NEAR			; CxSkinButton::CxSkinButton
EXTRN	?CreateEx@CWnd@@UAEHKPBD0KABUtagRECT@@PAV1@IPAX@Z:NEAR ; CWnd::CreateEx
EXTRN	??1CxSkinButton@@UAE@XZ:NEAR			; CxSkinButton::~CxSkinButton
EXTRN	?DestroyWindow@CWnd@@UAEHXZ:NEAR		; CWnd::DestroyWindow
EXTRN	?PreCreateWindow@CWnd@@UAEHAAUtagCREATESTRUCTA@@@Z:NEAR ; CWnd::PreCreateWindow
EXTRN	?CalcWindowRect@CWnd@@UAEXPAUtagRECT@@I@Z:NEAR	; CWnd::CalcWindowRect
EXTRN	?GetSuperWndProcAddr@CWnd@@MAEPAP6GJPAUHWND__@@IIJ@ZXZ:NEAR ; CWnd::GetSuperWndProcAddr
EXTRN	??_7type_info@@6B@:QWORD			; type_info::`vftable'
EXTRN	?OnAmbientProperty@CWnd@@UAEHPAVCOleControlSite@@JPAUtagVARIANT@@@Z:NEAR ; CWnd::OnAmbientProperty
EXTRN	?WindowProc@CWnd@@MAEJIIJ@Z:NEAR		; CWnd::WindowProc
EXTRN	?OnWndMsg@CWnd@@MAEHIIJPAJ@Z:NEAR		; CWnd::OnWndMsg
EXTRN	?DefWindowProcA@CWnd@@MAEJIIJ@Z:NEAR		; CWnd::DefWindowProcA
EXTRN	?PostNcDestroy@CWnd@@MAEXXZ:NEAR		; CWnd::PostNcDestroy
EXTRN	?OnChildNotify@CWnd@@MAEHIIJPAJ@Z:NEAR		; CWnd::OnChildNotify
EXTRN	?AfxGetUIManager@@YAPAVIUIManager@@XZ:NEAR	; AfxGetUIManager
EXTRN	?IsFrameWnd@CWnd@@UBEHXZ:NEAR			; CWnd::IsFrameWnd
EXTRN	?OnFinalRelease@CWnd@@UAEXXZ:NEAR		; CWnd::OnFinalRelease
xdata$x	SEGMENT
$T200238 DD	0ffffffffH
	DD	FLAT:$L200222
	DD	00H
	DD	FLAT:$L200223
	DD	01H
	DD	FLAT:$L200224
	DD	02H
	DD	FLAT:$L200225
	DD	03H
	DD	FLAT:$L200226
	DD	04H
	DD	FLAT:$L200227
	DD	05H
	DD	FLAT:$L200228
	DD	06H
	DD	FLAT:$L200229
	DD	07H
	DD	FLAT:$L200230
	DD	08H
	DD	FLAT:$L200231
$T200235 DD	019930520H
	DD	0aH
	DD	FLAT:$T200238
	DD	2 DUP(00H)
	DD	2 DUP(00H)
xdata$x	ENDS
;	COMDAT ??_7CMinOrExit@@6B@
CONST	SEGMENT
??_7CMinOrExit@@6B@ DD FLAT:??_R4CMinOrExit@@6B@	; CMinOrExit::`vftable'
	DD	FLAT:?GetRuntimeClass@CMinOrExit@@UBEPAUCRuntimeClass@@XZ
	DD	FLAT:??_ECMinOrExit@@UAEPAXI@Z
	DD	FLAT:?Serialize@CObject@@UAEXAAVCArchive@@@Z
	DD	FLAT:?AssertValid@CObject@@UBEXXZ
	DD	FLAT:?Dump@CObject@@UBEXAAVCDumpContext@@@Z
	DD	FLAT:?OnCmdMsg@CDialog@@UAEHIHPAXPAUAFX_CMDHANDLERINFO@@@Z
	DD	FLAT:?OnFinalRelease@CWnd@@UAEXXZ
	DD	FLAT:?IsInvokeAllowed@CCmdTarget@@UAEHJ@Z
	DD	FLAT:?GetDispatchIID@CCmdTarget@@UAEHPAU_GUID@@@Z
	DD	FLAT:?GetTypeInfoCount@CCmdTarget@@UAEIXZ
	DD	FLAT:?GetTypeLibCache@CCmdTarget@@UAEPAVCTypeLibCache@@XZ
	DD	FLAT:?GetTypeLib@CCmdTarget@@UAEJKPAPAUITypeLib@@@Z
	DD	FLAT:?GetMessageMap@CMinOrExit@@MBEPBUAFX_MSGMAP@@XZ
	DD	FLAT:?GetCommandMap@CCmdTarget@@MBEPBUAFX_OLECMDMAP@@XZ
	DD	FLAT:?GetDispatchMap@CCmdTarget@@MBEPBUAFX_DISPMAP@@XZ
	DD	FLAT:?GetConnectionMap@CCmdTarget@@MBEPBUAFX_CONNECTIONMAP@@XZ
	DD	FLAT:?GetInterfaceMap@CWnd@@MBEPBUAFX_INTERFACEMAP@@XZ
	DD	FLAT:?GetEventSinkMap@CCmdTarget@@MBEPBUAFX_EVENTSINKMAP@@XZ
	DD	FLAT:?OnCreateAggregates@CCmdTarget@@UAEHXZ
	DD	FLAT:?GetInterfaceHook@CCmdTarget@@UAEPAUIUnknown@@PBX@Z
	DD	FLAT:?GetExtraConnectionPoints@CCmdTarget@@MAEHPAVCPtrArray@@@Z
	DD	FLAT:?GetConnectionHook@CCmdTarget@@MAEPAUIConnectionPoint@@ABU_GUID@@@Z
	DD	FLAT:?PreSubclassWindow@CWnd@@UAEXXZ
	DD	FLAT:?Create@CWnd@@UAEHPBD0KABUtagRECT@@PAV1@IPAUCCreateContext@@@Z
	DD	FLAT:?CreateEx@CWnd@@UAEHKPBD0KABUtagRECT@@PAV1@IPAX@Z
	DD	FLAT:?CreateEx@CWnd@@UAEHKPBD0KHHHHPAUHWND__@@PAUHMENU__@@PAX@Z
	DD	FLAT:?DestroyWindow@CWnd@@UAEHXZ
	DD	FLAT:?PreCreateWindow@CWnd@@UAEHAAUtagCREATESTRUCTA@@@Z
	DD	FLAT:?CalcWindowRect@CWnd@@UAEXPAUtagRECT@@I@Z
	DD	FLAT:?OnToolHitTest@CWnd@@UBEHVCPoint@@PAUtagTOOLINFOA@@@Z
	DD	FLAT:?GetScrollBarCtrl@CWnd@@UBEPAVCScrollBar@@H@Z
	DD	FLAT:?WinHelpA@CWnd@@UAEXKI@Z
	DD	FLAT:?HtmlHelpA@CWnd@@UAEXKI@Z
	DD	FLAT:?WinHelpInternal@CWnd@@UAEXKI@Z
	DD	FLAT:?ContinueModal@CWnd@@UAEHXZ
	DD	FLAT:?EndModalLoop@CWnd@@UAEXH@Z
	DD	FLAT:?EnsureStdObj@CWnd@@UAEJXZ
	DD	FLAT:?get_accParent@CWnd@@UAEJPAPAUIDispatch@@@Z
	DD	FLAT:?get_accChildCount@CWnd@@UAEJPAJ@Z
	DD	FLAT:?get_accChild@CWnd@@UAEJUtagVARIANT@@PAPAUIDispatch@@@Z
	DD	FLAT:?get_accName@CWnd@@UAEJUtagVARIANT@@PAPA_W@Z
	DD	FLAT:?get_accValue@CWnd@@UAEJUtagVARIANT@@PAPA_W@Z
	DD	FLAT:?get_accDescription@CWnd@@UAEJUtagVARIANT@@PAPA_W@Z
	DD	FLAT:?get_accRole@CWnd@@UAEJUtagVARIANT@@PAU2@@Z
	DD	FLAT:?get_accState@CWnd@@UAEJUtagVARIANT@@PAU2@@Z
	DD	FLAT:?get_accHelp@CWnd@@UAEJUtagVARIANT@@PAPA_W@Z
	DD	FLAT:?get_accHelpTopic@CWnd@@UAEJPAPA_WUtagVARIANT@@PAJ@Z
	DD	FLAT:?get_accKeyboardShortcut@CWnd@@UAEJUtagVARIANT@@PAPA_W@Z
	DD	FLAT:?get_accFocus@CWnd@@UAEJPAUtagVARIANT@@@Z
	DD	FLAT:?get_accSelection@CWnd@@UAEJPAUtagVARIANT@@@Z
	DD	FLAT:?get_accDefaultAction@CWnd@@UAEJUtagVARIANT@@PAPA_W@Z
	DD	FLAT:?accSelect@CWnd@@UAEJJUtagVARIANT@@@Z
	DD	FLAT:?accLocation@CWnd@@UAEJPAJ000UtagVARIANT@@@Z
	DD	FLAT:?accNavigate@CWnd@@UAEJJUtagVARIANT@@PAU2@@Z
	DD	FLAT:?accHitTest@CWnd@@UAEJJJPAUtagVARIANT@@@Z
	DD	FLAT:?accDoDefaultAction@CWnd@@UAEJUtagVARIANT@@@Z
	DD	FLAT:?put_accName@CWnd@@UAEJUtagVARIANT@@PA_W@Z
	DD	FLAT:?put_accValue@CWnd@@UAEJUtagVARIANT@@PA_W@Z
	DD	FLAT:?SetProxy@CWnd@@UAEJPAUIAccessibleProxy@@@Z
	DD	FLAT:?CreateAccessibleProxy@CWnd@@UAEJIJPAJ@Z
	DD	FLAT:?OnCommand@CMinOrExit@@MAEHIJ@Z
	DD	FLAT:?OnNotify@CWnd@@MAEHIJPAJ@Z
	DD	FLAT:?GetSuperWndProcAddr@CWnd@@MAEPAP6GJPAUHWND__@@IIJ@ZXZ
	DD	FLAT:?DoDataExchange@CMinOrExit@@MAEXPAVCDataExchange@@@Z
	DD	FLAT:?BeginModalState@CWnd@@UAEXXZ
	DD	FLAT:?EndModalState@CWnd@@UAEXXZ
	DD	FLAT:?PreTranslateMessage@CDialog@@UAEHPAUtagMSG@@@Z
	DD	FLAT:?OnAmbientProperty@CWnd@@UAEHPAVCOleControlSite@@JPAUtagVARIANT@@@Z
	DD	FLAT:?WindowProc@CWnd@@MAEJIIJ@Z
	DD	FLAT:?OnWndMsg@CWnd@@MAEHIIJPAJ@Z
	DD	FLAT:?DefWindowProcA@CWnd@@MAEJIIJ@Z
	DD	FLAT:?PostNcDestroy@CWnd@@MAEXXZ
	DD	FLAT:?OnChildNotify@CWnd@@MAEHIIJPAJ@Z
	DD	FLAT:?CheckAutoCenter@CDialog@@UAEHXZ
	DD	FLAT:?IsFrameWnd@CWnd@@UBEHXZ
	DD	FLAT:?CreateControlContainer@CWnd@@MAEHPAPAVCOleControlContainer@@@Z
	DD	FLAT:?CreateControlSite@CWnd@@MAEHPAVCOleControlContainer@@PAPAVCOleControlSite@@IABU_GUID@@@Z
	DD	FLAT:?SetOccDialogInfo@CDialog@@MAEHPAU_AFX_OCC_DIALOG_INFO@@@Z
	DD	FLAT:?Create@CDialog@@UAEHIPAVCWnd@@@Z
	DD	FLAT:?Create@CDialog@@UAEHPBDPAVCWnd@@@Z
	DD	FLAT:?CreateIndirect@CDialog@@UAEHPAXPAVCWnd@@@Z
	DD	FLAT:?CreateIndirect@CDialog@@UAEHPBUDLGTEMPLATE@@PAVCWnd@@PAX@Z
	DD	FLAT:?DoModal@CDialog@@UAEHXZ
	DD	FLAT:?OnInitDialog@CMinOrExit@@MAEHXZ
	DD	FLAT:?OnSetFont@CDialog@@UAEXPAVCFont@@@Z
	DD	FLAT:?OnOK@CMinOrExit@@MAEXXZ
	DD	FLAT:?OnCancel@CDialog@@MAEXXZ
	DD	FLAT:?PreInitDialog@CDialog@@MAEXXZ
CONST	ENDS
;	COMDAT ??_R4CMinOrExit@@6B@
rdata$r	SEGMENT
??_R4CMinOrExit@@6B@ DD 00H				; CMinOrExit::`RTTI Complete Object Locator'
	DD	00H
	DD	00H
	DD	FLAT:??_R0?AVCMinOrExit@@@8
	DD	FLAT:??_R3CMinOrExit@@8
rdata$r	ENDS
;	COMDAT ??_R0?AVCMinOrExit@@@8
_DATA	SEGMENT
??_R0?AVCMinOrExit@@@8 DD FLAT:??_7type_info@@6B@	; CMinOrExit `RTTI Type Descriptor'
	DD	00H
	DB	'.?AVCMinOrExit@@', 00H
_DATA	ENDS
;	COMDAT ??_R3CMinOrExit@@8
rdata$r	SEGMENT
??_R3CMinOrExit@@8 DD 00H				; CMinOrExit::`RTTI Class Hierarchy Descriptor'
	DD	00H
	DD	05H
	DD	FLAT:??_R2CMinOrExit@@8
rdata$r	ENDS
;	COMDAT ??_R2CMinOrExit@@8
rdata$r	SEGMENT
??_R2CMinOrExit@@8 DD FLAT:??_R1A@?0A@A@CMinOrExit@@8	; CMinOrExit::`RTTI Base Class Array'
	DD	FLAT:??_R1A@?0A@A@CDialog@@8
	DD	FLAT:??_R1A@?0A@A@CWnd@@8
	DD	FLAT:??_R1A@?0A@A@CCmdTarget@@8
	DD	FLAT:??_R1A@?0A@A@CObject@@8
rdata$r	ENDS
;	COMDAT ??_R1A@?0A@A@CMinOrExit@@8
rdata$r	SEGMENT
??_R1A@?0A@A@CMinOrExit@@8 DD FLAT:??_R0?AVCMinOrExit@@@8 ; CMinOrExit::`RTTI Base Class Descriptor at (0,-1,0,0)'
	DD	04H
	DD	00H
	DD	0ffffffffH
	DD	00H
	DD	00H
rdata$r	ENDS
;	COMDAT ??_R1A@?0A@A@CDialog@@8
rdata$r	SEGMENT
??_R1A@?0A@A@CDialog@@8 DD FLAT:??_R0?AVCDialog@@@8	; CDialog::`RTTI Base Class Descriptor at (0,-1,0,0)'
	DD	03H
	DD	00H
	DD	0ffffffffH
	DD	00H
	DD	00H
rdata$r	ENDS
;	COMDAT ??_R0?AVCDialog@@@8
_DATA	SEGMENT
??_R0?AVCDialog@@@8 DD FLAT:??_7type_info@@6B@		; CDialog `RTTI Type Descriptor'
	DD	00H
	DB	'.?AVCDialog@@', 00H
_DATA	ENDS
;	COMDAT ??_R1A@?0A@A@CWnd@@8
rdata$r	SEGMENT
??_R1A@?0A@A@CWnd@@8 DD FLAT:??_R0?AVCWnd@@@8		; CWnd::`RTTI Base Class Descriptor at (0,-1,0,0)'
	DD	02H
	DD	00H
	DD	0ffffffffH
	DD	00H
	DD	00H
rdata$r	ENDS
;	COMDAT ??_R0?AVCWnd@@@8
_DATA	SEGMENT
??_R0?AVCWnd@@@8 DD FLAT:??_7type_info@@6B@		; CWnd `RTTI Type Descriptor'
	DD	00H
	DB	'.?AVCWnd@@', 00H
_DATA	ENDS
;	COMDAT ??_R1A@?0A@A@CCmdTarget@@8
rdata$r	SEGMENT
??_R1A@?0A@A@CCmdTarget@@8 DD FLAT:??_R0?AVCCmdTarget@@@8 ; CCmdTarget::`RTTI Base Class Descriptor at (0,-1,0,0)'
	DD	01H
	DD	00H
	DD	0ffffffffH
	DD	00H
	DD	00H
rdata$r	ENDS
;	COMDAT ??_R0?AVCCmdTarget@@@8
_DATA	SEGMENT
??_R0?AVCCmdTarget@@@8 DD FLAT:??_7type_info@@6B@	; CCmdTarget `RTTI Type Descriptor'
	DD	00H
	DB	'.?AVCCmdTarget@@', 00H
_DATA	ENDS
;	COMDAT ??_R1A@?0A@A@CObject@@8
rdata$r	SEGMENT
??_R1A@?0A@A@CObject@@8 DD FLAT:??_R0?AVCObject@@@8	; CObject::`RTTI Base Class Descriptor at (0,-1,0,0)'
	DD	00H
	DD	00H
	DD	0ffffffffH
	DD	00H
	DD	00H
rdata$r	ENDS
;	COMDAT ??_R0?AVCObject@@@8
_DATA	SEGMENT
??_R0?AVCObject@@@8 DD FLAT:??_7type_info@@6B@		; CObject `RTTI Type Descriptor'
	DD	00H
	DB	'.?AVCObject@@', 00H
; Function compile flags: /Odt
_DATA	ENDS
_TEXT	SEGMENT
tv174 = -24						; size = 4
tv169 = -20						; size = 4
_this$ = -16						; size = 4
__$EHRec$ = -12						; size = 12
_pParent$ = 8						; size = 4
??0CMinOrExit@@QAE@PAVCWnd@@@Z PROC NEAR		; CMinOrExit::CMinOrExit
; _this$ = ecx

; 18   : {

  00020	55		 push	 ebp
  00021	8b ec		 mov	 ebp, esp
  00023	6a ff		 push	 -1
  00025	68 00 00 00 00	 push	 __ehhandler$??0CMinOrExit@@QAE@PAVCWnd@@@Z
  0002a	64 a1 00 00 00
	00		 mov	 eax, DWORD PTR fs:__except_list
  00030	50		 push	 eax
  00031	64 89 25 00 00
	00 00		 mov	 DWORD PTR fs:__except_list, esp
  00038	83 ec 0c	 sub	 esp, 12			; 0000000cH
  0003b	89 4d f0	 mov	 DWORD PTR _this$[ebp], ecx
  0003e	8b 45 08	 mov	 eax, DWORD PTR _pParent$[ebp]
  00041	50		 push	 eax
  00042	6a 6b		 push	 107			; 0000006bH
  00044	8b 4d f0	 mov	 ecx, DWORD PTR _this$[ebp]
  00047	e8 00 00 00 00	 call	 ??0CDialog@@QAE@IPAVCWnd@@@Z ; CDialog::CDialog
  0004c	c7 45 fc 00 00
	00 00		 mov	 DWORD PTR __$EHRec$[ebp+8], 0
  00053	8b 4d f0	 mov	 ecx, DWORD PTR _this$[ebp]
  00056	c7 01 00 00 00
	00		 mov	 DWORD PTR [ecx], OFFSET FLAT:??_7CMinOrExit@@6B@
  0005c	8b 4d f0	 mov	 ecx, DWORD PTR _this$[ebp]
  0005f	83 c1 74	 add	 ecx, 116		; 00000074H
  00062	e8 00 00 00 00	 call	 ??0CxSkinButton@@QAE@XZ	; CxSkinButton::CxSkinButton
  00067	c6 45 fc 01	 mov	 BYTE PTR __$EHRec$[ebp+8], 1
  0006b	8b 4d f0	 mov	 ecx, DWORD PTR _this$[ebp]
  0006e	81 c1 98 01 00
	00		 add	 ecx, 408		; 00000198H
  00074	e8 00 00 00 00	 call	 ??0CxSkinButton@@QAE@XZ	; CxSkinButton::CxSkinButton
  00079	c6 45 fc 02	 mov	 BYTE PTR __$EHRec$[ebp+8], 2
  0007d	8b 4d f0	 mov	 ecx, DWORD PTR _this$[ebp]
  00080	81 c1 bc 02 00
	00		 add	 ecx, 700		; 000002bcH
  00086	e8 00 00 00 00	 call	 ??0CxSkinButton@@QAE@XZ	; CxSkinButton::CxSkinButton
  0008b	c6 45 fc 03	 mov	 BYTE PTR __$EHRec$[ebp+8], 3
  0008f	8b 4d f0	 mov	 ecx, DWORD PTR _this$[ebp]
  00092	81 c1 e0 03 00
	00		 add	 ecx, 992		; 000003e0H
  00098	e8 00 00 00 00	 call	 ??0CxSkinButton@@QAE@XZ	; CxSkinButton::CxSkinButton
  0009d	c6 45 fc 04	 mov	 BYTE PTR __$EHRec$[ebp+8], 4
  000a1	8b 4d f0	 mov	 ecx, DWORD PTR _this$[ebp]
  000a4	81 c1 04 05 00
	00		 add	 ecx, 1284		; 00000504H
  000aa	e8 00 00 00 00	 call	 ??0CxSkinButton@@QAE@XZ	; CxSkinButton::CxSkinButton
  000af	c6 45 fc 05	 mov	 BYTE PTR __$EHRec$[ebp+8], 5
  000b3	8b 4d f0	 mov	 ecx, DWORD PTR _this$[ebp]
  000b6	81 c1 28 06 00
	00		 add	 ecx, 1576		; 00000628H
  000bc	e8 00 00 00 00	 call	 ??0CxSkinButton@@QAE@XZ	; CxSkinButton::CxSkinButton
  000c1	c6 45 fc 06	 mov	 BYTE PTR __$EHRec$[ebp+8], 6
  000c5	8b 4d f0	 mov	 ecx, DWORD PTR _this$[ebp]
  000c8	81 c1 4c 07 00
	00		 add	 ecx, 1868		; 0000074cH
  000ce	e8 00 00 00 00	 call	 ??0CxSkinButton@@QAE@XZ	; CxSkinButton::CxSkinButton
  000d3	c6 45 fc 07	 mov	 BYTE PTR __$EHRec$[ebp+8], 7
  000d7	8b 4d f0	 mov	 ecx, DWORD PTR _this$[ebp]
  000da	81 c1 70 08 00
	00		 add	 ecx, 2160		; 00000870H
  000e0	e8 00 00 00 00	 call	 ??0CxSkinButton@@QAE@XZ	; CxSkinButton::CxSkinButton
  000e5	c6 45 fc 08	 mov	 BYTE PTR __$EHRec$[ebp+8], 8
  000e9	8b 4d f0	 mov	 ecx, DWORD PTR _this$[ebp]
  000ec	81 c1 94 09 00
	00		 add	 ecx, 2452		; 00000994H
  000f2	e8 00 00 00 00	 call	 ??0CxSkinButton@@QAE@XZ	; CxSkinButton::CxSkinButton
  000f7	c6 45 fc 09	 mov	 BYTE PTR __$EHRec$[ebp+8], 9
  000fb	8b 55 f0	 mov	 edx, DWORD PTR _this$[ebp]
  000fe	c7 82 b8 0a 00
	00 00 00 00 00	 mov	 DWORD PTR [edx+2744], 0
  00108	8b 45 f0	 mov	 eax, DWORD PTR _this$[ebp]
  0010b	c7 80 bc 0a 00
	00 00 00 00 00	 mov	 DWORD PTR [eax+2748], 0

; 19   : 	m_bkg= ::AfxGetUIManager()->UIGetSkinMgr()->GetDibBmp("MinOrExitBkg");

  00115	e8 00 00 00 00	 call	 ?AfxGetUIManager@@YAPAVIUIManager@@XZ ; AfxGetUIManager
  0011a	89 45 ec	 mov	 DWORD PTR tv169[ebp], eax
  0011d	8b 4d ec	 mov	 ecx, DWORD PTR tv169[ebp]
  00120	8b 11		 mov	 edx, DWORD PTR [ecx]
  00122	8b 4d ec	 mov	 ecx, DWORD PTR tv169[ebp]
  00125	ff 52 28	 call	 DWORD PTR [edx+40]
  00128	89 45 e8	 mov	 DWORD PTR tv174[ebp], eax
  0012b	68 00 00 00 00	 push	 OFFSET FLAT:$SG198994
  00130	8b 45 e8	 mov	 eax, DWORD PTR tv174[ebp]
  00133	8b 10		 mov	 edx, DWORD PTR [eax]
  00135	8b 4d e8	 mov	 ecx, DWORD PTR tv174[ebp]
  00138	ff 52 04	 call	 DWORD PTR [edx+4]
  0013b	8b 4d f0	 mov	 ecx, DWORD PTR _this$[ebp]
  0013e	89 81 c0 0a 00
	00		 mov	 DWORD PTR [ecx+2752], eax

; 20   : }

  00144	c7 45 fc ff ff
	ff ff		 mov	 DWORD PTR __$EHRec$[ebp+8], -1
  0014b	8b 45 f0	 mov	 eax, DWORD PTR _this$[ebp]
  0014e	8b 4d f4	 mov	 ecx, DWORD PTR __$EHRec$[ebp]
  00151	64 89 0d 00 00
	00 00		 mov	 DWORD PTR fs:__except_list, ecx
  00158	8b e5		 mov	 esp, ebp
  0015a	5d		 pop	 ebp
  0015b	c2 04 00	 ret	 4
_TEXT	ENDS
text$x	SEGMENT
$L200222:
  00000	8b 4d f0	 mov	 ecx, DWORD PTR _this$[ebp]
  00003	e9 00 00 00 00	 jmp	 ??1CDialog@@UAE@XZ	; CDialog::~CDialog
$L200223:
  00008	8b 4d f0	 mov	 ecx, DWORD PTR _this$[ebp]
  0000b	83 c1 74	 add	 ecx, 116		; 00000074H
  0000e	e9 00 00 00 00	 jmp	 ??1CxSkinButton@@UAE@XZ	; CxSkinButton::~CxSkinButton
$L200224:
  00013	8b 4d f0	 mov	 ecx, DWORD PTR _this$[ebp]
  00016	81 c1 98 01 00
	00		 add	 ecx, 408		; 00000198H
  0001c	e9 00 00 00 00	 jmp	 ??1CxSkinButton@@UAE@XZ	; CxSkinButton::~CxSkinButton
$L200225:
  00021	8b 4d f0	 mov	 ecx, DWORD PTR _this$[ebp]
  00024	81 c1 bc 02 00
	00		 add	 ecx, 700		; 000002bcH
  0002a	e9 00 00 00 00	 jmp	 ??1CxSkinButton@@UAE@XZ	; CxSkinButton::~CxSkinButton
$L200226:
  0002f	8b 4d f0	 mov	 ecx, DWORD PTR _this$[ebp]
  00032	81 c1 e0 03 00
	00		 add	 ecx, 992		; 000003e0H
  00038	e9 00 00 00 00	 jmp	 ??1CxSkinButton@@UAE@XZ	; CxSkinButton::~CxSkinButton
$L200227:
  0003d	8b 4d f0	 mov	 ecx, DWORD PTR _this$[ebp]
  00040	81 c1 04 05 00
	00		 add	 ecx, 1284		; 00000504H
  00046	e9 00 00 00 00	 jmp	 ??1CxSkinButton@@UAE@XZ	; CxSkinButton::~CxSkinButton
$L200228:
  0004b	8b 4d f0	 mov	 ecx, DWORD PTR _this$[ebp]
  0004e	81 c1 28 06 00
	00		 add	 ecx, 1576		; 00000628H
  00054	e9 00 00 00 00	 jmp	 ??1CxSkinButton@@UAE@XZ	; CxSkinButton::~CxSkinButton
$L200229:
  00059	8b 4d f0	 mov	 ecx, DWORD PTR _this$[ebp]
  0005c	81 c1 4c 07 00
	00		 add	 ecx, 1868		; 0000074cH
  00062	e9 00 00 00 00	 jmp	 ??1CxSkinButton@@UAE@XZ	; CxSkinButton::~CxSkinButton
$L200230:
  00067	8b 4d f0	 mov	 ecx, DWORD PTR _this$[ebp]
  0006a	81 c1 70 08 00
	00		 add	 ecx, 2160		; 00000870H
  00070	e9 00 00 00 00	 jmp	 ??1CxSkinButton@@UAE@XZ	; CxSkinButton::~CxSkinButton
$L200231:
  00075	8b 4d f0	 mov	 ecx, DWORD PTR _this$[ebp]
  00078	81 c1 94 09 00
	00		 add	 ecx, 2452		; 00000994H
  0007e	e9 00 00 00 00	 jmp	 ??1CxSkinButton@@UAE@XZ	; CxSkinButton::~CxSkinButton
__ehhandler$??0CMinOrExit@@QAE@PAVCWnd@@@Z:
  00083	b8 00 00 00 00	 mov	 eax, OFFSET FLAT:$T200235
  00088	e9 00 00 00 00	 jmp	 ___CxxFrameHandler
text$x	ENDS
??0CMinOrExit@@QAE@PAVCWnd@@@Z ENDP			; CMinOrExit::CMinOrExit
PUBLIC	??3CObject@@SGXPAX@Z				; CObject::operator delete
PUBLIC	??1CMinOrExit@@UAE@XZ				; CMinOrExit::~CMinOrExit
; Function compile flags: /Odt
;	COMDAT ??_GCMinOrExit@@UAEPAXI@Z
_TEXT	SEGMENT
_this$ = -4						; size = 4
___flags$ = 8						; size = 4
??_GCMinOrExit@@UAEPAXI@Z PROC NEAR			; CMinOrExit::`scalar deleting destructor', COMDAT
; _this$ = ecx
  00000	55		 push	 ebp
  00001	8b ec		 mov	 ebp, esp
  00003	51		 push	 ecx
  00004	89 4d fc	 mov	 DWORD PTR _this$[ebp], ecx
  00007	8b 4d fc	 mov	 ecx, DWORD PTR _this$[ebp]
  0000a	e8 00 00 00 00	 call	 ??1CMinOrExit@@UAE@XZ	; CMinOrExit::~CMinOrExit
  0000f	8b 45 08	 mov	 eax, DWORD PTR ___flags$[ebp]
  00012	83 e0 01	 and	 eax, 1
  00015	74 09		 je	 SHORT $L198998
  00017	8b 4d fc	 mov	 ecx, DWORD PTR _this$[ebp]
  0001a	51		 push	 ecx
  0001b	e8 00 00 00 00	 call	 ??3CObject@@SGXPAX@Z	; CObject::operator delete
$L198998:
  00020	8b 45 fc	 mov	 eax, DWORD PTR _this$[ebp]
  00023	8b e5		 mov	 esp, ebp
  00025	5d		 pop	 ebp
  00026	c2 04 00	 ret	 4
??_GCMinOrExit@@UAEPAXI@Z ENDP				; CMinOrExit::`scalar deleting destructor'
_TEXT	ENDS
xdata$x	SEGMENT
$T200256 DD	0ffffffffH
	DD	FLAT:$L200243
	DD	00H
	DD	FLAT:$L200244
	DD	01H
	DD	FLAT:$L200245
	DD	02H
	DD	FLAT:$L200246
	DD	03H
	DD	FLAT:$L200247
	DD	04H
	DD	FLAT:$L200248
	DD	05H
	DD	FLAT:$L200249
	DD	06H
	DD	FLAT:$L200250
	DD	07H
	DD	FLAT:$L200251
$T200254 DD	019930520H
	DD	09H
	DD	FLAT:$T200256
	DD	2 DUP(00H)
	DD	2 DUP(00H)
; Function compile flags: /Odt
xdata$x	ENDS
_TEXT	SEGMENT
_this$ = -16						; size = 4
__$EHRec$ = -12						; size = 12
??1CMinOrExit@@UAE@XZ PROC NEAR				; CMinOrExit::~CMinOrExit
; _this$ = ecx

; 23   : {

  00160	55		 push	 ebp
  00161	8b ec		 mov	 ebp, esp
  00163	6a ff		 push	 -1
  00165	68 00 00 00 00	 push	 __ehhandler$??1CMinOrExit@@UAE@XZ
  0016a	64 a1 00 00 00
	00		 mov	 eax, DWORD PTR fs:__except_list
  00170	50		 push	 eax
  00171	64 89 25 00 00
	00 00		 mov	 DWORD PTR fs:__except_list, esp
  00178	51		 push	 ecx
  00179	89 4d f0	 mov	 DWORD PTR _this$[ebp], ecx
  0017c	8b 45 f0	 mov	 eax, DWORD PTR _this$[ebp]
  0017f	c7 00 00 00 00
	00		 mov	 DWORD PTR [eax], OFFSET FLAT:??_7CMinOrExit@@6B@
  00185	c7 45 fc 08 00
	00 00		 mov	 DWORD PTR __$EHRec$[ebp+8], 8

; 24   : }

  0018c	8b 4d f0	 mov	 ecx, DWORD PTR _this$[ebp]
  0018f	81 c1 94 09 00
	00		 add	 ecx, 2452		; 00000994H
  00195	e8 00 00 00 00	 call	 ??1CxSkinButton@@UAE@XZ	; CxSkinButton::~CxSkinButton
  0019a	c6 45 fc 07	 mov	 BYTE PTR __$EHRec$[ebp+8], 7
  0019e	8b 4d f0	 mov	 ecx, DWORD PTR _this$[ebp]
  001a1	81 c1 70 08 00
	00		 add	 ecx, 2160		; 00000870H
  001a7	e8 00 00 00 00	 call	 ??1CxSkinButton@@UAE@XZ	; CxSkinButton::~CxSkinButton
  001ac	c6 45 fc 06	 mov	 BYTE PTR __$EHRec$[ebp+8], 6
  001b0	8b 4d f0	 mov	 ecx, DWORD PTR _this$[ebp]
  001b3	81 c1 4c 07 00
	00		 add	 ecx, 1868		; 0000074cH
  001b9	e8 00 00 00 00	 call	 ??1CxSkinButton@@UAE@XZ	; CxSkinButton::~CxSkinButton
  001be	c6 45 fc 05	 mov	 BYTE PTR __$EHRec$[ebp+8], 5
  001c2	8b 4d f0	 mov	 ecx, DWORD PTR _this$[ebp]
  001c5	81 c1 28 06 00
	00		 add	 ecx, 1576		; 00000628H
  001cb	e8 00 00 00 00	 call	 ??1CxSkinButton@@UAE@XZ	; CxSkinButton::~CxSkinButton
  001d0	c6 45 fc 04	 mov	 BYTE PTR __$EHRec$[ebp+8], 4
  001d4	8b 4d f0	 mov	 ecx, DWORD PTR _this$[ebp]
  001d7	81 c1 04 05 00
	00		 add	 ecx, 1284		; 00000504H
  001dd	e8 00 00 00 00	 call	 ??1CxSkinButton@@UAE@XZ	; CxSkinButton::~CxSkinButton
  001e2	c6 45 fc 03	 mov	 BYTE PTR __$EHRec$[ebp+8], 3
  001e6	8b 4d f0	 mov	 ecx, DWORD PTR _this$[ebp]
  001e9	81 c1 e0 03 00
	00		 add	 ecx, 992		; 000003e0H
  001ef	e8 00 00 00 00	 call	 ??1CxSkinButton@@UAE@XZ	; CxSkinButton::~CxSkinButton
  001f4	c6 45 fc 02	 mov	 BYTE PTR __$EHRec$[ebp+8], 2
  001f8	8b 4d f0	 mov	 ecx, DWORD PTR _this$[ebp]
  001fb	81 c1 bc 02 00
	00		 add	 ecx, 700		; 000002bcH
  00201	e8 00 00 00 00	 call	 ??1CxSkinButton@@UAE@XZ	; CxSkinButton::~CxSkinButton
  00206	c6 45 fc 01	 mov	 BYTE PTR __$EHRec$[ebp+8], 1
  0020a	8b 4d f0	 mov	 ecx, DWORD PTR _this$[ebp]
  0020d	81 c1 98 01 00
	00		 add	 ecx, 408		; 00000198H
  00213	e8 00 00 00 00	 call	 ??1CxSkinButton@@UAE@XZ	; CxSkinButton::~CxSkinButton
  00218	c6 45 fc 00	 mov	 BYTE PTR __$EHRec$[ebp+8], 0
  0021c	8b 4d f0	 mov	 ecx, DWORD PTR _this$[ebp]
  0021f	83 c1 74	 add	 ecx, 116		; 00000074H
  00222	e8 00 00 00 00	 call	 ??1CxSkinButton@@UAE@XZ	; CxSkinButton::~CxSkinButton
  00227	c7 45 fc ff ff
	ff ff		 mov	 DWORD PTR __$EHRec$[ebp+8], -1
  0022e	8b 4d f0	 mov	 ecx, DWORD PTR _this$[ebp]
  00231	e8 00 00 00 00	 call	 ??1CDialog@@UAE@XZ	; CDialog::~CDialog
  00236	8b 4d f4	 mov	 ecx, DWORD PTR __$EHRec$[ebp]
  00239	64 89 0d 00 00
	00 00		 mov	 DWORD PTR fs:__except_list, ecx
  00240	8b e5		 mov	 esp, ebp
  00242	5d		 pop	 ebp
  00243	c3		 ret	 0
_TEXT	ENDS
text$x	SEGMENT
$L200243:
  0008d	8b 4d f0	 mov	 ecx, DWORD PTR _this$[ebp]
  00090	e9 00 00 00 00	 jmp	 ??1CDialog@@UAE@XZ	; CDialog::~CDialog
$L200244:
  00095	8b 4d f0	 mov	 ecx, DWORD PTR _this$[ebp]
  00098	83 c1 74	 add	 ecx, 116		; 00000074H
  0009b	e9 00 00 00 00	 jmp	 ??1CxSkinButton@@UAE@XZ	; CxSkinButton::~CxSkinButton
$L200245:
  000a0	8b 4d f0	 mov	 ecx, DWORD PTR _this$[ebp]
  000a3	81 c1 98 01 00
	00		 add	 ecx, 408		; 00000198H
  000a9	e9 00 00 00 00	 jmp	 ??1CxSkinButton@@UAE@XZ	; CxSkinButton::~CxSkinButton
$L200246:
  000ae	8b 4d f0	 mov	 ecx, DWORD PTR _this$[ebp]
  000b1	81 c1 bc 02 00
	00		 add	 ecx, 700		; 000002bcH
  000b7	e9 00 00 00 00	 jmp	 ??1CxSkinButton@@UAE@XZ	; CxSkinButton::~CxSkinButton
$L200247:
  000bc	8b 4d f0	 mov	 ecx, DWORD PTR _this$[ebp]
  000bf	81 c1 e0 03 00
	00		 add	 ecx, 992		; 000003e0H
  000c5	e9 00 00 00 00	 jmp	 ??1CxSkinButton@@UAE@XZ	; CxSkinButton::~CxSkinButton
$L200248:
  000ca	8b 4d f0	 mov	 ecx, DWORD PTR _this$[ebp]
  000cd	81 c1 04 05 00
	00		 add	 ecx, 1284		; 00000504H
  000d3	e9 00 00 00 00	 jmp	 ??1CxSkinButton@@UAE@XZ	; CxSkinButton::~CxSkinButton
$L200249:
  000d8	8b 4d f0	 mov	 ecx, DWORD PTR _this$[ebp]
  000db	81 c1 28 06 00
	00		 add	 ecx, 1576		; 00000628H
  000e1	e9 00 00 00 00	 jmp	 ??1CxSkinButton@@UAE@XZ	; CxSkinButton::~CxSkinButton
$L200250:
  000e6	8b 4d f0	 mov	 ecx, DWORD PTR _this$[ebp]
  000e9	81 c1 4c 07 00
	00		 add	 ecx, 1868		; 0000074cH
  000ef	e9 00 00 00 00	 jmp	 ??1CxSkinButton@@UAE@XZ	; CxSkinButton::~CxSkinButton
$L200251:
  000f4	8b 4d f0	 mov	 ecx, DWORD PTR _this$[ebp]
  000f7	81 c1 70 08 00
	00		 add	 ecx, 2160		; 00000870H
  000fd	e9 00 00 00 00	 jmp	 ??1CxSkinButton@@UAE@XZ	; CxSkinButton::~CxSkinButton
__ehhandler$??1CMinOrExit@@UAE@XZ:
  00102	b8 00 00 00 00	 mov	 eax, OFFSET FLAT:$T200254
  00107	e9 00 00 00 00	 jmp	 ___CxxFrameHandler
text$x	ENDS
??1CMinOrExit@@UAE@XZ ENDP				; CMinOrExit::~CMinOrExit
PUBLIC	?DoDataExchange@CWnd@@MAEXPAVCDataExchange@@@Z	; CWnd::DoDataExchange
; Function compile flags: /Odt
_TEXT	SEGMENT
_this$ = -4						; size = 4
_pDX$ = 8						; size = 4
?DoDataExchange@CMinOrExit@@MAEXPAVCDataExchange@@@Z PROC NEAR ; CMinOrExit::DoDataExchange
; _this$ = ecx

; 27   : {

  00250	55		 push	 ebp
  00251	8b ec		 mov	 ebp, esp
  00253	51		 push	 ecx
  00254	89 4d fc	 mov	 DWORD PTR _this$[ebp], ecx

; 28   : 	CDialog::DoDataExchange(pDX);

  00257	8b 45 08	 mov	 eax, DWORD PTR _pDX$[ebp]
  0025a	50		 push	 eax
  0025b	8b 4d fc	 mov	 ecx, DWORD PTR _this$[ebp]
  0025e	e8 00 00 00 00	 call	 ?DoDataExchange@CWnd@@MAEXPAVCDataExchange@@@Z ; CWnd::DoDataExchange

; 29   : }

  00263	8b e5		 mov	 esp, ebp
  00265	5d		 pop	 ebp
  00266	c2 04 00	 ret	 4
?DoDataExchange@CMinOrExit@@MAEXPAVCDataExchange@@@Z ENDP ; CMinOrExit::DoDataExchange
_TEXT	ENDS
PUBLIC	?GetThisMessageMap@CMinOrExit@@KGPBUAFX_MSGMAP@@XZ ; CMinOrExit::GetThisMessageMap
; Function compile flags: /Odt
_TEXT	SEGMENT
?GetThisMessageMap@CMinOrExit@@KGPBUAFX_MSGMAP@@XZ PROC NEAR ; CMinOrExit::GetThisMessageMap

; 32   : BEGIN_MESSAGE_MAP(CMinOrExit, CDialog)

  00270	55		 push	 ebp
  00271	8b ec		 mov	 ebp, esp
  00273	b8 00 00 00 00	 mov	 eax, OFFSET FLAT:?messageMap@CMinOrExit@@1UAFX_MSGMAP@@B ; CMinOrExit::messageMap
  00278	5d		 pop	 ebp
  00279	c3		 ret	 0
?GetThisMessageMap@CMinOrExit@@KGPBUAFX_MSGMAP@@XZ ENDP	; CMinOrExit::GetThisMessageMap
; Function compile flags: /Odt
_this$ = -4						; size = 4
?GetMessageMap@CMinOrExit@@MBEPBUAFX_MSGMAP@@XZ PROC NEAR ; CMinOrExit::GetMessageMap
; _this$ = ecx

; 32   : BEGIN_MESSAGE_MAP(CMinOrExit, CDialog)

  00280	55		 push	 ebp
  00281	8b ec		 mov	 ebp, esp
  00283	51		 push	 ecx
  00284	89 4d fc	 mov	 DWORD PTR _this$[ebp], ecx
  00287	b8 00 00 00 00	 mov	 eax, OFFSET FLAT:?messageMap@CMinOrExit@@1UAFX_MSGMAP@@B ; CMinOrExit::messageMap
  0028c	8b e5		 mov	 esp, ebp
  0028e	5d		 pop	 ebp
  0028f	c3		 ret	 0
?GetMessageMap@CMinOrExit@@MBEPBUAFX_MSGMAP@@XZ ENDP	; CMinOrExit::GetMessageMap
_TEXT	ENDS
PUBLIC	?GetWindowRect@CWnd@@QBEXPAUtagRECT@@@Z		; CWnd::GetWindowRect
PUBLIC	?CheckRad1@CMinOrExit@@AAEXXZ			; CMinOrExit::CheckRad1
PUBLIC	?CheckRad2@CMinOrExit@@AAEXXZ			; CMinOrExit::CheckRad2
PUBLIC	??0CRect@@QAE@XZ				; CRect::CRect
PUBLIC	??0CRect@@QAE@HHHH@Z				; CRect::CRect
PUBLIC	??BCRect@@QAEPAUtagRECT@@XZ			; CRect::operator tagRECT *
PUBLIC	?GetParent@CWnd@@QBEPAV1@XZ			; CWnd::GetParent
PUBLIC	?GetMainWnd@CHostWndMgr@@QAEPAVCWnd@@XZ		; CHostWndMgr::GetMainWnd
PUBLIC	?MoveWindow@CWnd@@QAEXPBUtagRECT@@H@Z		; CWnd::MoveWindow
PUBLIC	?SetWindowRgn@CWnd@@QAEHPAUHRGN__@@H@Z		; CWnd::SetWindowRgn
EXTRN	?ShowWindow@CWnd@@QAEHH@Z:NEAR			; CWnd::ShowWindow
EXTRN	?OnInitDialog@CDialog@@UAEHXZ:NEAR		; CDialog::OnInitDialog
EXTRN	__imp_??0?$CStringT@DV?$StrTraitMFC_DLL@DV?$ChTraitsCRT@D@ATL@@@@@ATL@@QAE@PBD@Z:NEAR
EXTRN	__imp_??1?$CStringT@DV?$StrTraitMFC_DLL@DV?$ChTraitsCRT@D@ATL@@@@@ATL@@QAE@XZ:NEAR
EXTRN	?GetInstance@CHostWndMgr@@SAPAV1@XZ:NEAR	; CHostWndMgr::GetInstance
EXTRN	?CreateRgnFromBitmap@CDibBitmap@@QAEPAUHRGN__@@KPAVCWnd@@@Z:NEAR ; CDibBitmap::CreateRgnFromBitmap
EXTRN	?GetConfigBoolValue@AfxUserConfig@@QAEXABV?$basic_string@DU?$char_traits@D@std@@V?$allocator@D@2@@std@@0AA_N@Z:NEAR ; AfxUserConfig::GetConfigBoolValue
EXTRN	__imp_?YL_Log@@YAXABV?$basic_string@DU?$char_traits@D@std@@V?$allocator@D@2@@std@@H0PBDZZ:NEAR
EXTRN	__imp_??0?$basic_string@DU?$char_traits@D@std@@V?$allocator@D@2@@std@@QAE@PBD@Z:NEAR
EXTRN	__imp__GetSystemMetrics@4:NEAR
EXTRN	__imp_??1?$basic_string@DU?$char_traits@D@std@@V?$allocator@D@2@@std@@QAE@XZ:NEAR
EXTRN	?AfxGetUserConfig@@YAPAVAfxUserConfig@@XZ:NEAR	; AfxGetUserConfig
xdata$x	SEGMENT
$T200298 DD	0ffffffffH
	DD	FLAT:$L200278
	DD	00H
	DD	FLAT:$L200279
	DD	0ffffffffH
	DD	FLAT:$L200289
	DD	0ffffffffH
	DD	FLAT:$L200291
	DD	0ffffffffH
	DD	FLAT:$L200293
	DD	04H
	DD	FLAT:$L200294
$T200296 DD	019930520H
	DD	06H
	DD	FLAT:$T200298
	DD	2 DUP(00H)
	DD	2 DUP(00H)
; Function compile flags: /Odt
xdata$x	ENDS
_TEXT	SEGMENT
tv500 = -332						; size = 4
tv495 = -328						; size = 4
tv623 = -324						; size = 4
tv620 = -320						; size = 4
tv78 = -316						; size = 4
tv618 = -312						; size = 4
tv615 = -308						; size = 4
tv83 = -304						; size = 4
tv613 = -300						; size = 4
tv610 = -296						; size = 4
tv607 = -292						; size = 4
tv604 = -288						; size = 4
tv601 = -284						; size = 4
tv598 = -280						; size = 4
tv595 = -276						; size = 4
tv592 = -272						; size = 4
tv589 = -268						; size = 4
tv229 = -264						; size = 4
_this$ = -260						; size = 4
$T200277 = -256						; size = 28
$T200276 = -228						; size = 28
$T200275 = -200						; size = 4
$T200274 = -196						; size = 4
$T200273 = -192						; size = 4
$T200272 = -188						; size = 4
$T200271 = -184						; size = 4
$T200270 = -180						; size = 4
$T200269 = -176						; size = 4
$T200268 = -172						; size = 4
$T200267 = -168						; size = 4
$T200266 = -164						; size = 4
$T200265 = -160						; size = 4
$T200264 = -156						; size = 4
$T200263 = -152						; size = 4
$T200262 = -148						; size = 28
$T200261 = -120						; size = 28
_rectNULL$ = -92					; size = 16
_wndRect$ = -76						; size = 16
_pWnd$ = -60						; size = 4
_m_color$ = -56						; size = 4
_screenX$ = -52						; size = 4
_pLayoutMgr$ = -48					; size = 4
_exitchoice$ = -41					; size = 1
_x$ = -40						; size = 4
_y$ = -36						; size = 4
_screenY$ = -32						; size = 4
_winPos$ = -28						; size = 16
__$EHRec$ = -12						; size = 12
?OnInitDialog@CMinOrExit@@MAEHXZ PROC NEAR		; CMinOrExit::OnInitDialog
; _this$ = ecx

; 41   : {

  00290	55		 push	 ebp
  00291	8b ec		 mov	 ebp, esp
  00293	6a ff		 push	 -1
  00295	68 00 00 00 00	 push	 __ehhandler$?OnInitDialog@CMinOrExit@@MAEHXZ
  0029a	64 a1 00 00 00
	00		 mov	 eax, DWORD PTR fs:__except_list
  002a0	50		 push	 eax
  002a1	64 89 25 00 00
	00 00		 mov	 DWORD PTR fs:__except_list, esp
  002a8	81 ec 40 01 00
	00		 sub	 esp, 320		; 00000140H
  002ae	89 8d fc fe ff
	ff		 mov	 DWORD PTR _this$[ebp], ecx

; 42   : 	CDialog::OnInitDialog();

  002b4	8b 8d fc fe ff
	ff		 mov	 ecx, DWORD PTR _this$[ebp]
  002ba	e8 00 00 00 00	 call	 ?OnInitDialog@CDialog@@UAEHXZ ; CDialog::OnInitDialog

; 43   : 
; 44   : 	COLORREF m_color(RGB(255,0,255));

  002bf	c7 45 c8 ff 00
	ff 00		 mov	 DWORD PTR _m_color$[ebp], 16711935 ; 00ff00ffH

; 45   : 	SetWindowRgn(m_bkg->CreateRgnFromBitmap(m_color,this),TRUE);

  002c6	6a 01		 push	 1
  002c8	8b 85 fc fe ff
	ff		 mov	 eax, DWORD PTR _this$[ebp]
  002ce	50		 push	 eax
  002cf	8b 4d c8	 mov	 ecx, DWORD PTR _m_color$[ebp]
  002d2	51		 push	 ecx
  002d3	8b 95 fc fe ff
	ff		 mov	 edx, DWORD PTR _this$[ebp]
  002d9	8b 8a c0 0a 00
	00		 mov	 ecx, DWORD PTR [edx+2752]
  002df	e8 00 00 00 00	 call	 ?CreateRgnFromBitmap@CDibBitmap@@QAEPAUHRGN__@@KPAVCWnd@@@Z ; CDibBitmap::CreateRgnFromBitmap
  002e4	50		 push	 eax
  002e5	8b 8d fc fe ff
	ff		 mov	 ecx, DWORD PTR _this$[ebp]
  002eb	e8 00 00 00 00	 call	 ?SetWindowRgn@CWnd@@QAEHPAUHRGN__@@H@Z ; CWnd::SetWindowRgn

; 46   : 
; 47   : 	bool exitchoice;
; 48   : 	AfxGetUserConfig()->GetConfigBoolValue( CONF_SETTING_MODULE_NAME,CONF_SETTING_CONFIG_EXITCHOICE,exitchoice);

  002f0	a1 00 00 00 00	 mov	 eax, DWORD PTR _CONF_SETTING_CONFIG_EXITCHOICE
  002f5	50		 push	 eax
  002f6	8d 4d 88	 lea	 ecx, DWORD PTR $T200261[ebp]
  002f9	ff 15 00 00 00
	00		 call	 DWORD PTR __imp_??0?$basic_string@DU?$char_traits@D@std@@V?$allocator@D@2@@std@@QAE@PBD@Z
  002ff	c7 45 fc 00 00
	00 00		 mov	 DWORD PTR __$EHRec$[ebp+8], 0
  00306	8b 0d 00 00 00
	00		 mov	 ecx, DWORD PTR _CONF_SETTING_MODULE_NAME
  0030c	51		 push	 ecx
  0030d	8d 8d 6c ff ff
	ff		 lea	 ecx, DWORD PTR $T200262[ebp]
  00313	ff 15 00 00 00
	00		 call	 DWORD PTR __imp_??0?$basic_string@DU?$char_traits@D@std@@V?$allocator@D@2@@std@@QAE@PBD@Z
  00319	c6 45 fc 01	 mov	 BYTE PTR __$EHRec$[ebp+8], 1
  0031d	8d 55 d7	 lea	 edx, DWORD PTR _exitchoice$[ebp]
  00320	52		 push	 edx
  00321	8d 45 88	 lea	 eax, DWORD PTR $T200261[ebp]
  00324	50		 push	 eax
  00325	8d 8d 6c ff ff
	ff		 lea	 ecx, DWORD PTR $T200262[ebp]
  0032b	51		 push	 ecx
  0032c	e8 00 00 00 00	 call	 ?AfxGetUserConfig@@YAPAVAfxUserConfig@@XZ ; AfxGetUserConfig
  00331	8b c8		 mov	 ecx, eax
  00333	e8 00 00 00 00	 call	 ?GetConfigBoolValue@AfxUserConfig@@QAEXABV?$basic_string@DU?$char_traits@D@std@@V?$allocator@D@2@@std@@0AA_N@Z ; AfxUserConfig::GetConfigBoolValue
  00338	c6 45 fc 00	 mov	 BYTE PTR __$EHRec$[ebp+8], 0
  0033c	8d 8d 6c ff ff
	ff		 lea	 ecx, DWORD PTR $T200262[ebp]
  00342	ff 15 00 00 00
	00		 call	 DWORD PTR __imp_??1?$basic_string@DU?$char_traits@D@std@@V?$allocator@D@2@@std@@QAE@XZ
  00348	c7 45 fc ff ff
	ff ff		 mov	 DWORD PTR __$EHRec$[ebp+8], -1
  0034f	8d 4d 88	 lea	 ecx, DWORD PTR $T200261[ebp]
  00352	ff 15 00 00 00
	00		 call	 DWORD PTR __imp_??1?$basic_string@DU?$char_traits@D@std@@V?$allocator@D@2@@std@@QAE@XZ

; 49   : 	m_chkRad=exitchoice?TRUE:FALSE;

  00358	0f b6 55 d7	 movzx	 edx, BYTE PTR _exitchoice$[ebp]
  0035c	f7 da		 neg	 edx
  0035e	1b d2		 sbb	 edx, edx
  00360	f7 da		 neg	 edx
  00362	8b 85 fc fe ff
	ff		 mov	 eax, DWORD PTR _this$[ebp]
  00368	89 90 b8 0a 00
	00		 mov	 DWORD PTR [eax+2744], edx

; 50   : 
; 51   : 	CRect rectNULL(0,0,0,0);

  0036e	6a 00		 push	 0
  00370	6a 00		 push	 0
  00372	6a 00		 push	 0
  00374	6a 00		 push	 0
  00376	8d 4d a4	 lea	 ecx, DWORD PTR _rectNULL$[ebp]
  00379	e8 00 00 00 00	 call	 ??0CRect@@QAE@HHHH@Z	; CRect::CRect

; 52   : 	m_btnClose.Create(NULL,WS_VISIBLE,rectNULL,this,ID_BTN_MINORCLOSE_CANCLE);

  0037e	68 1d 27 00 00	 push	 10013			; 0000271dH
  00383	8b 8d fc fe ff
	ff		 mov	 ecx, DWORD PTR _this$[ebp]
  00389	51		 push	 ecx
  0038a	8d 55 a4	 lea	 edx, DWORD PTR _rectNULL$[ebp]
  0038d	52		 push	 edx
  0038e	68 00 00 00 10	 push	 268435456		; 10000000H
  00393	6a 00		 push	 0
  00395	8b 8d fc fe ff
	ff		 mov	 ecx, DWORD PTR _this$[ebp]
  0039b	83 c1 74	 add	 ecx, 116		; 00000074H
  0039e	8b 85 fc fe ff
	ff		 mov	 eax, DWORD PTR _this$[ebp]
  003a4	8b 50 74	 mov	 edx, DWORD PTR [eax+116]
  003a7	ff 92 38 01 00
	00		 call	 DWORD PTR [edx+312]

; 53   : 	m_btnCancle.Create(NULL,WS_VISIBLE,rectNULL,this,ID_BTN_MINORCLOSE_CANCLE);

  003ad	68 1d 27 00 00	 push	 10013			; 0000271dH
  003b2	8b 85 fc fe ff
	ff		 mov	 eax, DWORD PTR _this$[ebp]
  003b8	50		 push	 eax
  003b9	8d 4d a4	 lea	 ecx, DWORD PTR _rectNULL$[ebp]
  003bc	51		 push	 ecx
  003bd	68 00 00 00 10	 push	 268435456		; 10000000H
  003c2	6a 00		 push	 0
  003c4	8b 8d fc fe ff
	ff		 mov	 ecx, DWORD PTR _this$[ebp]
  003ca	81 c1 98 01 00
	00		 add	 ecx, 408		; 00000198H
  003d0	8b 95 fc fe ff
	ff		 mov	 edx, DWORD PTR _this$[ebp]
  003d6	8b 82 98 01 00
	00		 mov	 eax, DWORD PTR [edx+408]
  003dc	ff 90 38 01 00
	00		 call	 DWORD PTR [eax+312]

; 54   : 	m_btnOk.Create(NULL,WS_VISIBLE,rectNULL,this,ID_BTN_MINORCLOSE_OK);

  003e2	68 19 27 00 00	 push	 10009			; 00002719H
  003e7	8b 8d fc fe ff
	ff		 mov	 ecx, DWORD PTR _this$[ebp]
  003ed	51		 push	 ecx
  003ee	8d 55 a4	 lea	 edx, DWORD PTR _rectNULL$[ebp]
  003f1	52		 push	 edx
  003f2	68 00 00 00 10	 push	 268435456		; 10000000H
  003f7	6a 00		 push	 0
  003f9	8b 8d fc fe ff
	ff		 mov	 ecx, DWORD PTR _this$[ebp]
  003ff	81 c1 bc 02 00
	00		 add	 ecx, 700		; 000002bcH
  00405	8b 85 fc fe ff
	ff		 mov	 eax, DWORD PTR _this$[ebp]
  0040b	8b 90 bc 02 00
	00		 mov	 edx, DWORD PTR [eax+700]
  00411	ff 92 38 01 00
	00		 call	 DWORD PTR [edx+312]

; 55   : 	m_rad1unCheck.Create(NULL,WS_VISIBLE,rectNULL,this,ID_BTN_MINORCLOSE_RAD1);

  00417	68 1a 27 00 00	 push	 10010			; 0000271aH
  0041c	8b 85 fc fe ff
	ff		 mov	 eax, DWORD PTR _this$[ebp]
  00422	50		 push	 eax
  00423	8d 4d a4	 lea	 ecx, DWORD PTR _rectNULL$[ebp]
  00426	51		 push	 ecx
  00427	68 00 00 00 10	 push	 268435456		; 10000000H
  0042c	6a 00		 push	 0
  0042e	8b 8d fc fe ff
	ff		 mov	 ecx, DWORD PTR _this$[ebp]
  00434	81 c1 e0 03 00
	00		 add	 ecx, 992		; 000003e0H
  0043a	8b 95 fc fe ff
	ff		 mov	 edx, DWORD PTR _this$[ebp]
  00440	8b 82 e0 03 00
	00		 mov	 eax, DWORD PTR [edx+992]
  00446	ff 90 38 01 00
	00		 call	 DWORD PTR [eax+312]

; 56   : 	m_rad1Checked.Create(NULL,WS_VISIBLE,rectNULL,this,ID_BTN_MINORCLOSE_RAD1);

  0044c	68 1a 27 00 00	 push	 10010			; 0000271aH
  00451	8b 8d fc fe ff
	ff		 mov	 ecx, DWORD PTR _this$[ebp]
  00457	51		 push	 ecx
  00458	8d 55 a4	 lea	 edx, DWORD PTR _rectNULL$[ebp]
  0045b	52		 push	 edx
  0045c	68 00 00 00 10	 push	 268435456		; 10000000H
  00461	6a 00		 push	 0
  00463	8b 8d fc fe ff
	ff		 mov	 ecx, DWORD PTR _this$[ebp]
  00469	81 c1 04 05 00
	00		 add	 ecx, 1284		; 00000504H
  0046f	8b 85 fc fe ff
	ff		 mov	 eax, DWORD PTR _this$[ebp]
  00475	8b 90 04 05 00
	00		 mov	 edx, DWORD PTR [eax+1284]
  0047b	ff 92 38 01 00
	00		 call	 DWORD PTR [edx+312]

; 57   : 	m_rad2unCheck.Create(NULL,WS_VISIBLE,rectNULL,this,ID_BTN_MINORCLOSE_RAD2);

  00481	68 1b 27 00 00	 push	 10011			; 0000271bH
  00486	8b 85 fc fe ff
	ff		 mov	 eax, DWORD PTR _this$[ebp]
  0048c	50		 push	 eax
  0048d	8d 4d a4	 lea	 ecx, DWORD PTR _rectNULL$[ebp]
  00490	51		 push	 ecx
  00491	68 00 00 00 10	 push	 268435456		; 10000000H
  00496	6a 00		 push	 0
  00498	8b 8d fc fe ff
	ff		 mov	 ecx, DWORD PTR _this$[ebp]
  0049e	81 c1 28 06 00
	00		 add	 ecx, 1576		; 00000628H
  004a4	8b 95 fc fe ff
	ff		 mov	 edx, DWORD PTR _this$[ebp]
  004aa	8b 82 28 06 00
	00		 mov	 eax, DWORD PTR [edx+1576]
  004b0	ff 90 38 01 00
	00		 call	 DWORD PTR [eax+312]

; 58   : 	m_rad2Checked.Create(NULL,WS_VISIBLE,rectNULL,this,ID_BTN_MINORCLOSE_RAD2);

  004b6	68 1b 27 00 00	 push	 10011			; 0000271bH
  004bb	8b 8d fc fe ff
	ff		 mov	 ecx, DWORD PTR _this$[ebp]
  004c1	51		 push	 ecx
  004c2	8d 55 a4	 lea	 edx, DWORD PTR _rectNULL$[ebp]
  004c5	52		 push	 edx
  004c6	68 00 00 00 10	 push	 268435456		; 10000000H
  004cb	6a 00		 push	 0
  004cd	8b 8d fc fe ff
	ff		 mov	 ecx, DWORD PTR _this$[ebp]
  004d3	81 c1 4c 07 00
	00		 add	 ecx, 1868		; 0000074cH
  004d9	8b 85 fc fe ff
	ff		 mov	 eax, DWORD PTR _this$[ebp]
  004df	8b 90 4c 07 00
	00		 mov	 edx, DWORD PTR [eax+1868]
  004e5	ff 92 38 01 00
	00		 call	 DWORD PTR [edx+312]

; 59   : 	m_boxunCheck.Create(NULL,WS_VISIBLE,rectNULL,this,ID_BTN_MINORCLOSE_BOX);

  004eb	68 1c 27 00 00	 push	 10012			; 0000271cH
  004f0	8b 85 fc fe ff
	ff		 mov	 eax, DWORD PTR _this$[ebp]
  004f6	50		 push	 eax
  004f7	8d 4d a4	 lea	 ecx, DWORD PTR _rectNULL$[ebp]
  004fa	51		 push	 ecx
  004fb	68 00 00 00 10	 push	 268435456		; 10000000H
  00500	6a 00		 push	 0
  00502	8b 8d fc fe ff
	ff		 mov	 ecx, DWORD PTR _this$[ebp]
  00508	81 c1 70 08 00
	00		 add	 ecx, 2160		; 00000870H
  0050e	8b 95 fc fe ff
	ff		 mov	 edx, DWORD PTR _this$[ebp]
  00514	8b 82 70 08 00
	00		 mov	 eax, DWORD PTR [edx+2160]
  0051a	ff 90 38 01 00
	00		 call	 DWORD PTR [eax+312]

; 60   : 	m_boxChecked.Create(NULL,WS_VISIBLE,rectNULL,this,ID_BTN_MINORCLOSE_BOX);

  00520	68 1c 27 00 00	 push	 10012			; 0000271cH
  00525	8b 8d fc fe ff
	ff		 mov	 ecx, DWORD PTR _this$[ebp]
  0052b	51		 push	 ecx
  0052c	8d 55 a4	 lea	 edx, DWORD PTR _rectNULL$[ebp]
  0052f	52		 push	 edx
  00530	68 00 00 00 10	 push	 268435456		; 10000000H
  00535	6a 00		 push	 0
  00537	8b 8d fc fe ff
	ff		 mov	 ecx, DWORD PTR _this$[ebp]
  0053d	81 c1 94 09 00
	00		 add	 ecx, 2452		; 00000994H
  00543	8b 85 fc fe ff
	ff		 mov	 eax, DWORD PTR _this$[ebp]
  00549	8b 90 94 09 00
	00		 mov	 edx, DWORD PTR [eax+2452]
  0054f	ff 92 38 01 00
	00		 call	 DWORD PTR [edx+312]

; 61   : 
; 62   : 	ILayoutMgr* pLayoutMgr =  AfxGetUIManager()->UIGetLayoutMgr();

  00555	e8 00 00 00 00	 call	 ?AfxGetUIManager@@YAPAVIUIManager@@XZ ; AfxGetUIManager
  0055a	89 85 f8 fe ff
	ff		 mov	 DWORD PTR tv229[ebp], eax
  00560	8b 85 f8 fe ff
	ff		 mov	 eax, DWORD PTR tv229[ebp]
  00566	8b 10		 mov	 edx, DWORD PTR [eax]
  00568	8b 8d f8 fe ff
	ff		 mov	 ecx, DWORD PTR tv229[ebp]
  0056e	ff 52 24	 call	 DWORD PTR [edx+36]
  00571	89 45 d0	 mov	 DWORD PTR _pLayoutMgr$[ebp], eax

; 63   : 	
; 64   : 	pLayoutMgr->RegisterCtrl( this,"MinOrExit_close",&m_btnClose);

  00574	8b 85 fc fe ff
	ff		 mov	 eax, DWORD PTR _this$[ebp]
  0057a	83 c0 74	 add	 eax, 116		; 00000074H
  0057d	50		 push	 eax
  0057e	51		 push	 ecx
  0057f	8b cc		 mov	 ecx, esp
  00581	89 a5 68 ff ff
	ff		 mov	 DWORD PTR $T200263[ebp], esp
  00587	68 00 00 00 00	 push	 OFFSET FLAT:$SG199041
  0058c	ff 15 00 00 00
	00		 call	 DWORD PTR __imp_??0?$CStringT@DV?$StrTraitMFC_DLL@DV?$ChTraitsCRT@D@ATL@@@@@ATL@@QAE@PBD@Z
  00592	89 85 f4 fe ff
	ff		 mov	 DWORD PTR tv589[ebp], eax
  00598	8b 8d fc fe ff
	ff		 mov	 ecx, DWORD PTR _this$[ebp]
  0059e	51		 push	 ecx
  0059f	8b 55 d0	 mov	 edx, DWORD PTR _pLayoutMgr$[ebp]
  005a2	8b 02		 mov	 eax, DWORD PTR [edx]
  005a4	8b 4d d0	 mov	 ecx, DWORD PTR _pLayoutMgr$[ebp]
  005a7	ff 50 34	 call	 DWORD PTR [eax+52]

; 65   : 	pLayoutMgr->RegisterCtrl( this,"MinOrExit_cancle",&m_btnCancle);

  005aa	8b 8d fc fe ff
	ff		 mov	 ecx, DWORD PTR _this$[ebp]
  005b0	81 c1 98 01 00
	00		 add	 ecx, 408		; 00000198H
  005b6	51		 push	 ecx
  005b7	51		 push	 ecx
  005b8	8b cc		 mov	 ecx, esp
  005ba	89 a5 64 ff ff
	ff		 mov	 DWORD PTR $T200264[ebp], esp
  005c0	68 00 00 00 00	 push	 OFFSET FLAT:$SG199043
  005c5	ff 15 00 00 00
	00		 call	 DWORD PTR __imp_??0?$CStringT@DV?$StrTraitMFC_DLL@DV?$ChTraitsCRT@D@ATL@@@@@ATL@@QAE@PBD@Z
  005cb	89 85 f0 fe ff
	ff		 mov	 DWORD PTR tv592[ebp], eax
  005d1	8b 95 fc fe ff
	ff		 mov	 edx, DWORD PTR _this$[ebp]
  005d7	52		 push	 edx
  005d8	8b 45 d0	 mov	 eax, DWORD PTR _pLayoutMgr$[ebp]
  005db	8b 10		 mov	 edx, DWORD PTR [eax]
  005dd	8b 4d d0	 mov	 ecx, DWORD PTR _pLayoutMgr$[ebp]
  005e0	ff 52 34	 call	 DWORD PTR [edx+52]

; 66   : 	pLayoutMgr->RegisterCtrl( this,"MinOrExit_ok",&m_btnOk);

  005e3	8b 85 fc fe ff
	ff		 mov	 eax, DWORD PTR _this$[ebp]
  005e9	05 bc 02 00 00	 add	 eax, 700		; 000002bcH
  005ee	50		 push	 eax
  005ef	51		 push	 ecx
  005f0	8b cc		 mov	 ecx, esp
  005f2	89 a5 60 ff ff
	ff		 mov	 DWORD PTR $T200265[ebp], esp
  005f8	68 00 00 00 00	 push	 OFFSET FLAT:$SG199045
  005fd	ff 15 00 00 00
	00		 call	 DWORD PTR __imp_??0?$CStringT@DV?$StrTraitMFC_DLL@DV?$ChTraitsCRT@D@ATL@@@@@ATL@@QAE@PBD@Z
  00603	89 85 ec fe ff
	ff		 mov	 DWORD PTR tv595[ebp], eax
  00609	8b 8d fc fe ff
	ff		 mov	 ecx, DWORD PTR _this$[ebp]
  0060f	51		 push	 ecx
  00610	8b 55 d0	 mov	 edx, DWORD PTR _pLayoutMgr$[ebp]
  00613	8b 02		 mov	 eax, DWORD PTR [edx]
  00615	8b 4d d0	 mov	 ecx, DWORD PTR _pLayoutMgr$[ebp]
  00618	ff 50 34	 call	 DWORD PTR [eax+52]

; 67   : 	pLayoutMgr->RegisterCtrl( this,"MinOrExit_rad1unCheck",&m_rad1unCheck);

  0061b	8b 8d fc fe ff
	ff		 mov	 ecx, DWORD PTR _this$[ebp]
  00621	81 c1 e0 03 00
	00		 add	 ecx, 992		; 000003e0H
  00627	51		 push	 ecx
  00628	51		 push	 ecx
  00629	8b cc		 mov	 ecx, esp
  0062b	89 a5 5c ff ff
	ff		 mov	 DWORD PTR $T200266[ebp], esp
  00631	68 00 00 00 00	 push	 OFFSET FLAT:$SG199047
  00636	ff 15 00 00 00
	00		 call	 DWORD PTR __imp_??0?$CStringT@DV?$StrTraitMFC_DLL@DV?$ChTraitsCRT@D@ATL@@@@@ATL@@QAE@PBD@Z
  0063c	89 85 e8 fe ff
	ff		 mov	 DWORD PTR tv598[ebp], eax
  00642	8b 95 fc fe ff
	ff		 mov	 edx, DWORD PTR _this$[ebp]
  00648	52		 push	 edx
  00649	8b 45 d0	 mov	 eax, DWORD PTR _pLayoutMgr$[ebp]
  0064c	8b 10		 mov	 edx, DWORD PTR [eax]
  0064e	8b 4d d0	 mov	 ecx, DWORD PTR _pLayoutMgr$[ebp]
  00651	ff 52 34	 call	 DWORD PTR [edx+52]

; 68   : 	pLayoutMgr->RegisterCtrl( this,"MinOrExit_rad1Checked",&m_rad1Checked);

  00654	8b 85 fc fe ff
	ff		 mov	 eax, DWORD PTR _this$[ebp]
  0065a	05 04 05 00 00	 add	 eax, 1284		; 00000504H
  0065f	50		 push	 eax
  00660	51		 push	 ecx
  00661	8b cc		 mov	 ecx, esp
  00663	89 a5 58 ff ff
	ff		 mov	 DWORD PTR $T200267[ebp], esp
  00669	68 00 00 00 00	 push	 OFFSET FLAT:$SG199049
  0066e	ff 15 00 00 00
	00		 call	 DWORD PTR __imp_??0?$CStringT@DV?$StrTraitMFC_DLL@DV?$ChTraitsCRT@D@ATL@@@@@ATL@@QAE@PBD@Z
  00674	89 85 e4 fe ff
	ff		 mov	 DWORD PTR tv601[ebp], eax
  0067a	8b 8d fc fe ff
	ff		 mov	 ecx, DWORD PTR _this$[ebp]
  00680	51		 push	 ecx
  00681	8b 55 d0	 mov	 edx, DWORD PTR _pLayoutMgr$[ebp]
  00684	8b 02		 mov	 eax, DWORD PTR [edx]
  00686	8b 4d d0	 mov	 ecx, DWORD PTR _pLayoutMgr$[ebp]
  00689	ff 50 34	 call	 DWORD PTR [eax+52]

; 69   : 	pLayoutMgr->RegisterCtrl( this,"MinOrExit_rad2unCheck",&m_rad2unCheck);

  0068c	8b 8d fc fe ff
	ff		 mov	 ecx, DWORD PTR _this$[ebp]
  00692	81 c1 28 06 00
	00		 add	 ecx, 1576		; 00000628H
  00698	51		 push	 ecx
  00699	51		 push	 ecx
  0069a	8b cc		 mov	 ecx, esp
  0069c	89 a5 54 ff ff
	ff		 mov	 DWORD PTR $T200268[ebp], esp
  006a2	68 00 00 00 00	 push	 OFFSET FLAT:$SG199051
  006a7	ff 15 00 00 00
	00		 call	 DWORD PTR __imp_??0?$CStringT@DV?$StrTraitMFC_DLL@DV?$ChTraitsCRT@D@ATL@@@@@ATL@@QAE@PBD@Z
  006ad	89 85 e0 fe ff
	ff		 mov	 DWORD PTR tv604[ebp], eax
  006b3	8b 95 fc fe ff
	ff		 mov	 edx, DWORD PTR _this$[ebp]
  006b9	52		 push	 edx
  006ba	8b 45 d0	 mov	 eax, DWORD PTR _pLayoutMgr$[ebp]
  006bd	8b 10		 mov	 edx, DWORD PTR [eax]
  006bf	8b 4d d0	 mov	 ecx, DWORD PTR _pLayoutMgr$[ebp]
  006c2	ff 52 34	 call	 DWORD PTR [edx+52]

; 70   : 	pLayoutMgr->RegisterCtrl( this,"MinOrExit_rad2Checked",&m_rad2Checked);

  006c5	8b 85 fc fe ff
	ff		 mov	 eax, DWORD PTR _this$[ebp]
  006cb	05 4c 07 00 00	 add	 eax, 1868		; 0000074cH
  006d0	50		 push	 eax
  006d1	51		 push	 ecx
  006d2	8b cc		 mov	 ecx, esp
  006d4	89 a5 50 ff ff
	ff		 mov	 DWORD PTR $T200269[ebp], esp
  006da	68 00 00 00 00	 push	 OFFSET FLAT:$SG199053
  006df	ff 15 00 00 00
	00		 call	 DWORD PTR __imp_??0?$CStringT@DV?$StrTraitMFC_DLL@DV?$ChTraitsCRT@D@ATL@@@@@ATL@@QAE@PBD@Z
  006e5	89 85 dc fe ff
	ff		 mov	 DWORD PTR tv607[ebp], eax
  006eb	8b 8d fc fe ff
	ff		 mov	 ecx, DWORD PTR _this$[ebp]
  006f1	51		 push	 ecx
  006f2	8b 55 d0	 mov	 edx, DWORD PTR _pLayoutMgr$[ebp]
  006f5	8b 02		 mov	 eax, DWORD PTR [edx]
  006f7	8b 4d d0	 mov	 ecx, DWORD PTR _pLayoutMgr$[ebp]
  006fa	ff 50 34	 call	 DWORD PTR [eax+52]

; 71   : 	pLayoutMgr->RegisterCtrl( this,"MinOrExit_m_boxunCheck",&m_boxunCheck);

  006fd	8b 8d fc fe ff
	ff		 mov	 ecx, DWORD PTR _this$[ebp]
  00703	81 c1 70 08 00
	00		 add	 ecx, 2160		; 00000870H
  00709	51		 push	 ecx
  0070a	51		 push	 ecx
  0070b	8b cc		 mov	 ecx, esp
  0070d	89 a5 4c ff ff
	ff		 mov	 DWORD PTR $T200270[ebp], esp
  00713	68 00 00 00 00	 push	 OFFSET FLAT:$SG199055
  00718	ff 15 00 00 00
	00		 call	 DWORD PTR __imp_??0?$CStringT@DV?$StrTraitMFC_DLL@DV?$ChTraitsCRT@D@ATL@@@@@ATL@@QAE@PBD@Z
  0071e	89 85 d8 fe ff
	ff		 mov	 DWORD PTR tv610[ebp], eax
  00724	8b 95 fc fe ff
	ff		 mov	 edx, DWORD PTR _this$[ebp]
  0072a	52		 push	 edx
  0072b	8b 45 d0	 mov	 eax, DWORD PTR _pLayoutMgr$[ebp]
  0072e	8b 10		 mov	 edx, DWORD PTR [eax]
  00730	8b 4d d0	 mov	 ecx, DWORD PTR _pLayoutMgr$[ebp]
  00733	ff 52 34	 call	 DWORD PTR [edx+52]

; 72   : 	pLayoutMgr->RegisterCtrl( this,"MinOrExit_m_boxChecked",&m_boxChecked);

  00736	8b 85 fc fe ff
	ff		 mov	 eax, DWORD PTR _this$[ebp]
  0073c	05 94 09 00 00	 add	 eax, 2452		; 00000994H
  00741	50		 push	 eax
  00742	51		 push	 ecx
  00743	8b cc		 mov	 ecx, esp
  00745	89 a5 48 ff ff
	ff		 mov	 DWORD PTR $T200271[ebp], esp
  0074b	68 00 00 00 00	 push	 OFFSET FLAT:$SG199057
  00750	ff 15 00 00 00
	00		 call	 DWORD PTR __imp_??0?$CStringT@DV?$StrTraitMFC_DLL@DV?$ChTraitsCRT@D@ATL@@@@@ATL@@QAE@PBD@Z
  00756	89 85 d4 fe ff
	ff		 mov	 DWORD PTR tv613[ebp], eax
  0075c	8b 8d fc fe ff
	ff		 mov	 ecx, DWORD PTR _this$[ebp]
  00762	51		 push	 ecx
  00763	8b 55 d0	 mov	 edx, DWORD PTR _pLayoutMgr$[ebp]
  00766	8b 02		 mov	 eax, DWORD PTR [edx]
  00768	8b 4d d0	 mov	 ecx, DWORD PTR _pLayoutMgr$[ebp]
  0076b	ff 50 34	 call	 DWORD PTR [eax+52]

; 73   : 
; 74   : 	pLayoutMgr->CreateControlPane( this,"MinOrExit","normal" );

  0076e	51		 push	 ecx
  0076f	8b cc		 mov	 ecx, esp
  00771	89 a5 44 ff ff
	ff		 mov	 DWORD PTR $T200272[ebp], esp
  00777	68 00 00 00 00	 push	 OFFSET FLAT:$SG199060
  0077c	ff 15 00 00 00
	00		 call	 DWORD PTR __imp_??0?$CStringT@DV?$StrTraitMFC_DLL@DV?$ChTraitsCRT@D@ATL@@@@@ATL@@QAE@PBD@Z
  00782	89 85 d0 fe ff
	ff		 mov	 DWORD PTR tv83[ebp], eax
  00788	8b 8d d0 fe ff
	ff		 mov	 ecx, DWORD PTR tv83[ebp]
  0078e	89 8d cc fe ff
	ff		 mov	 DWORD PTR tv615[ebp], ecx
  00794	c7 45 fc 02 00
	00 00		 mov	 DWORD PTR __$EHRec$[ebp+8], 2
  0079b	51		 push	 ecx
  0079c	8b cc		 mov	 ecx, esp
  0079e	89 a5 40 ff ff
	ff		 mov	 DWORD PTR $T200273[ebp], esp
  007a4	68 00 00 00 00	 push	 OFFSET FLAT:$SG199061
  007a9	ff 15 00 00 00
	00		 call	 DWORD PTR __imp_??0?$CStringT@DV?$StrTraitMFC_DLL@DV?$ChTraitsCRT@D@ATL@@@@@ATL@@QAE@PBD@Z
  007af	89 85 c8 fe ff
	ff		 mov	 DWORD PTR tv618[ebp], eax
  007b5	8b 95 fc fe ff
	ff		 mov	 edx, DWORD PTR _this$[ebp]
  007bb	52		 push	 edx
  007bc	8b 45 d0	 mov	 eax, DWORD PTR _pLayoutMgr$[ebp]
  007bf	8b 10		 mov	 edx, DWORD PTR [eax]
  007c1	c7 45 fc ff ff
	ff ff		 mov	 DWORD PTR __$EHRec$[ebp+8], -1
  007c8	8b 4d d0	 mov	 ecx, DWORD PTR _pLayoutMgr$[ebp]
  007cb	ff 52 38	 call	 DWORD PTR [edx+56]

; 75   : 	pLayoutMgr->CreateBmpPane( this,"MinOrExit","normal" );

  007ce	51		 push	 ecx
  007cf	8b cc		 mov	 ecx, esp
  007d1	89 a5 3c ff ff
	ff		 mov	 DWORD PTR $T200274[ebp], esp
  007d7	68 00 00 00 00	 push	 OFFSET FLAT:$SG199064
  007dc	ff 15 00 00 00
	00		 call	 DWORD PTR __imp_??0?$CStringT@DV?$StrTraitMFC_DLL@DV?$ChTraitsCRT@D@ATL@@@@@ATL@@QAE@PBD@Z
  007e2	89 85 c4 fe ff
	ff		 mov	 DWORD PTR tv78[ebp], eax
  007e8	8b 85 c4 fe ff
	ff		 mov	 eax, DWORD PTR tv78[ebp]
  007ee	89 85 c0 fe ff
	ff		 mov	 DWORD PTR tv620[ebp], eax
  007f4	c7 45 fc 03 00
	00 00		 mov	 DWORD PTR __$EHRec$[ebp+8], 3
  007fb	51		 push	 ecx
  007fc	8b cc		 mov	 ecx, esp
  007fe	89 a5 38 ff ff
	ff		 mov	 DWORD PTR $T200275[ebp], esp
  00804	68 00 00 00 00	 push	 OFFSET FLAT:$SG199065
  00809	ff 15 00 00 00
	00		 call	 DWORD PTR __imp_??0?$CStringT@DV?$StrTraitMFC_DLL@DV?$ChTraitsCRT@D@ATL@@@@@ATL@@QAE@PBD@Z
  0080f	89 85 bc fe ff
	ff		 mov	 DWORD PTR tv623[ebp], eax
  00815	8b 8d fc fe ff
	ff		 mov	 ecx, DWORD PTR _this$[ebp]
  0081b	51		 push	 ecx
  0081c	8b 55 d0	 mov	 edx, DWORD PTR _pLayoutMgr$[ebp]
  0081f	8b 02		 mov	 eax, DWORD PTR [edx]
  00821	c7 45 fc ff ff
	ff ff		 mov	 DWORD PTR __$EHRec$[ebp+8], -1
  00828	8b 4d d0	 mov	 ecx, DWORD PTR _pLayoutMgr$[ebp]
  0082b	ff 50 58	 call	 DWORD PTR [eax+88]

; 76   : 
; 77   : 	if (m_chkRad)

  0082e	8b 8d fc fe ff
	ff		 mov	 ecx, DWORD PTR _this$[ebp]
  00834	83 b9 b8 0a 00
	00 00		 cmp	 DWORD PTR [ecx+2744], 0
  0083b	74 0d		 je	 SHORT $L199066

; 78   : 	{
; 79   : 		CheckRad2();

  0083d	8b 8d fc fe ff
	ff		 mov	 ecx, DWORD PTR _this$[ebp]
  00843	e8 00 00 00 00	 call	 ?CheckRad2@CMinOrExit@@AAEXXZ ; CMinOrExit::CheckRad2

; 80   : 	}
; 81   : 	else

  00848	eb 0b		 jmp	 SHORT $L199067
$L199066:

; 82   : 	{
; 83   : 		CheckRad1();

  0084a	8b 8d fc fe ff
	ff		 mov	 ecx, DWORD PTR _this$[ebp]
  00850	e8 00 00 00 00	 call	 ?CheckRad1@CMinOrExit@@AAEXXZ ; CMinOrExit::CheckRad1
$L199067:

; 84   : 	}
; 85   : 	m_boxChecked.ShowWindow(SW_HIDE);

  00855	6a 00		 push	 0
  00857	8b 8d fc fe ff
	ff		 mov	 ecx, DWORD PTR _this$[ebp]
  0085d	81 c1 94 09 00
	00		 add	 ecx, 2452		; 00000994H
  00863	e8 00 00 00 00	 call	 ?ShowWindow@CWnd@@QAEHH@Z ; CWnd::ShowWindow

; 86   : 	m_boxunCheck.ShowWindow(SW_SHOW);

  00868	6a 05		 push	 5
  0086a	8b 8d fc fe ff
	ff		 mov	 ecx, DWORD PTR _this$[ebp]
  00870	81 c1 70 08 00
	00		 add	 ecx, 2160		; 00000870H
  00876	e8 00 00 00 00	 call	 ?ShowWindow@CWnd@@QAEHH@Z ; CWnd::ShowWindow

; 87   : 	CRect winPos(0,0,319,180);

  0087b	68 b4 00 00 00	 push	 180			; 000000b4H
  00880	68 3f 01 00 00	 push	 319			; 0000013fH
  00885	6a 00		 push	 0
  00887	6a 00		 push	 0
  00889	8d 4d e4	 lea	 ecx, DWORD PTR _winPos$[ebp]
  0088c	e8 00 00 00 00	 call	 ??0CRect@@QAE@HHHH@Z	; CRect::CRect

; 88   : 	CRect wndRect;

  00891	8d 4d b4	 lea	 ecx, DWORD PTR _wndRect$[ebp]
  00894	e8 00 00 00 00	 call	 ??0CRect@@QAE@XZ	; CRect::CRect

; 89   : 	
; 90   : 	CWnd *pWnd = NULL;

  00899	c7 45 c4 00 00
	00 00		 mov	 DWORD PTR _pWnd$[ebp], 0

; 91   : 	if(AfxGetUIManager()->UIGetLayoutMgr()->GetDisplayMode() == DISPLAY_SEPERATE_MODE)

  008a0	e8 00 00 00 00	 call	 ?AfxGetUIManager@@YAPAVIUIManager@@XZ ; AfxGetUIManager
  008a5	89 85 b8 fe ff
	ff		 mov	 DWORD PTR tv495[ebp], eax
  008ab	8b 95 b8 fe ff
	ff		 mov	 edx, DWORD PTR tv495[ebp]
  008b1	8b 02		 mov	 eax, DWORD PTR [edx]
  008b3	8b 8d b8 fe ff
	ff		 mov	 ecx, DWORD PTR tv495[ebp]
  008b9	ff 50 24	 call	 DWORD PTR [eax+36]
  008bc	89 85 b4 fe ff
	ff		 mov	 DWORD PTR tv500[ebp], eax
  008c2	8b 8d b4 fe ff
	ff		 mov	 ecx, DWORD PTR tv500[ebp]
  008c8	8b 11		 mov	 edx, DWORD PTR [ecx]
  008ca	8b 8d b4 fe ff
	ff		 mov	 ecx, DWORD PTR tv500[ebp]
  008d0	ff 52 7c	 call	 DWORD PTR [edx+124]
  008d3	85 c0		 test	 eax, eax
  008d5	75 11		 jne	 SHORT $L199071

; 92   : 	{
; 93   : 		pWnd = CHostWndMgr::GetInstance()->GetMainWnd();

  008d7	e8 00 00 00 00	 call	 ?GetInstance@CHostWndMgr@@SAPAV1@XZ ; CHostWndMgr::GetInstance
  008dc	8b c8		 mov	 ecx, eax
  008de	e8 00 00 00 00	 call	 ?GetMainWnd@CHostWndMgr@@QAEPAVCWnd@@XZ ; CHostWndMgr::GetMainWnd
  008e3	89 45 c4	 mov	 DWORD PTR _pWnd$[ebp], eax

; 94   : 	}
; 95   : 	else

  008e6	eb 0e		 jmp	 SHORT $L199072
$L199071:

; 96   : 		pWnd = GetParent();

  008e8	8b 8d fc fe ff
	ff		 mov	 ecx, DWORD PTR _this$[ebp]
  008ee	e8 00 00 00 00	 call	 ?GetParent@CWnd@@QBEPAV1@XZ ; CWnd::GetParent
  008f3	89 45 c4	 mov	 DWORD PTR _pWnd$[ebp], eax
$L199072:

; 97   : 	pWnd->GetWindowRect(&wndRect);

  008f6	8d 45 b4	 lea	 eax, DWORD PTR _wndRect$[ebp]
  008f9	50		 push	 eax
  008fa	8b 4d c4	 mov	 ecx, DWORD PTR _pWnd$[ebp]
  008fd	e8 00 00 00 00	 call	 ?GetWindowRect@CWnd@@QBEXPAUtagRECT@@@Z ; CWnd::GetWindowRect

; 98   : 	int x,y;
; 99   : 	x=(wndRect.left+wndRect.right)/2-160;

  00902	8b 45 b4	 mov	 eax, DWORD PTR _wndRect$[ebp]
  00905	03 45 bc	 add	 eax, DWORD PTR _wndRect$[ebp+8]
  00908	99		 cdq
  00909	2b c2		 sub	 eax, edx
  0090b	d1 f8		 sar	 eax, 1
  0090d	2d a0 00 00 00	 sub	 eax, 160		; 000000a0H
  00912	89 45 d8	 mov	 DWORD PTR _x$[ebp], eax

; 100  : 	y=(wndRect.top+wndRect.bottom)/2-90;

  00915	8b 45 b8	 mov	 eax, DWORD PTR _wndRect$[ebp+4]
  00918	03 45 c0	 add	 eax, DWORD PTR _wndRect$[ebp+12]
  0091b	99		 cdq
  0091c	2b c2		 sub	 eax, edx
  0091e	d1 f8		 sar	 eax, 1
  00920	83 e8 5a	 sub	 eax, 90			; 0000005aH
  00923	89 45 dc	 mov	 DWORD PTR _y$[ebp], eax

; 101  : 	YL_Log("MinOrExit.txt",LOG_DEBUG,"OnInitDialog","win rect x: %d, y: %d, r: %d, b: %d.", wndRect.left, wndRect.top, wndRect.right, wndRect.bottom);

  00926	68 00 00 00 00	 push	 OFFSET FLAT:$SG199078
  0092b	8d 8d 1c ff ff
	ff		 lea	 ecx, DWORD PTR $T200276[ebp]
  00931	ff 15 00 00 00
	00		 call	 DWORD PTR __imp_??0?$basic_string@DU?$char_traits@D@std@@V?$allocator@D@2@@std@@QAE@PBD@Z
  00937	c7 45 fc 04 00
	00 00		 mov	 DWORD PTR __$EHRec$[ebp+8], 4
  0093e	68 00 00 00 00	 push	 OFFSET FLAT:$SG199079
  00943	8d 8d 00 ff ff
	ff		 lea	 ecx, DWORD PTR $T200277[ebp]
  00949	ff 15 00 00 00
	00		 call	 DWORD PTR __imp_??0?$basic_string@DU?$char_traits@D@std@@V?$allocator@D@2@@std@@QAE@PBD@Z
  0094f	c6 45 fc 05	 mov	 BYTE PTR __$EHRec$[ebp+8], 5
  00953	8b 4d c0	 mov	 ecx, DWORD PTR _wndRect$[ebp+12]
  00956	51		 push	 ecx
  00957	8b 55 bc	 mov	 edx, DWORD PTR _wndRect$[ebp+8]
  0095a	52		 push	 edx
  0095b	8b 45 b8	 mov	 eax, DWORD PTR _wndRect$[ebp+4]
  0095e	50		 push	 eax
  0095f	8b 4d b4	 mov	 ecx, DWORD PTR _wndRect$[ebp]
  00962	51		 push	 ecx
  00963	68 00 00 00 00	 push	 OFFSET FLAT:$SG199077
  00968	8d 95 1c ff ff
	ff		 lea	 edx, DWORD PTR $T200276[ebp]
  0096e	52		 push	 edx
  0096f	6a 00		 push	 0
  00971	8d 85 00 ff ff
	ff		 lea	 eax, DWORD PTR $T200277[ebp]
  00977	50		 push	 eax
  00978	ff 15 00 00 00
	00		 call	 DWORD PTR __imp_?YL_Log@@YAXABV?$basic_string@DU?$char_traits@D@std@@V?$allocator@D@2@@std@@H0PBDZZ
  0097e	83 c4 20	 add	 esp, 32			; 00000020H
  00981	c6 45 fc 04	 mov	 BYTE PTR __$EHRec$[ebp+8], 4
  00985	8d 8d 00 ff ff
	ff		 lea	 ecx, DWORD PTR $T200277[ebp]
  0098b	ff 15 00 00 00
	00		 call	 DWORD PTR __imp_??1?$basic_string@DU?$char_traits@D@std@@V?$allocator@D@2@@std@@QAE@XZ
  00991	c7 45 fc ff ff
	ff ff		 mov	 DWORD PTR __$EHRec$[ebp+8], -1
  00998	8d 8d 1c ff ff
	ff		 lea	 ecx, DWORD PTR $T200276[ebp]
  0099e	ff 15 00 00 00
	00		 call	 DWORD PTR __imp_??1?$basic_string@DU?$char_traits@D@std@@V?$allocator@D@2@@std@@QAE@XZ

; 102  : 	int screenX=GetSystemMetrics(SM_CXSCREEN);

  009a4	6a 00		 push	 0
  009a6	ff 15 00 00 00
	00		 call	 DWORD PTR __imp__GetSystemMetrics@4
  009ac	89 45 cc	 mov	 DWORD PTR _screenX$[ebp], eax

; 103  : 	int screenY=GetSystemMetrics(SM_CYSCREEN);

  009af	6a 01		 push	 1
  009b1	ff 15 00 00 00
	00		 call	 DWORD PTR __imp__GetSystemMetrics@4
  009b7	89 45 e0	 mov	 DWORD PTR _screenY$[ebp], eax

; 104  : 	if (x>=0)

  009ba	83 7d d8 00	 cmp	 DWORD PTR _x$[ebp], 0
  009be	7c 08		 jl	 SHORT $L199082

; 105  : 	{
; 106  : 		winPos.left=x;

  009c0	8b 4d d8	 mov	 ecx, DWORD PTR _x$[ebp]
  009c3	89 4d e4	 mov	 DWORD PTR _winPos$[ebp], ecx

; 107  : 	}
; 108  : 	else

  009c6	eb 07		 jmp	 SHORT $L199083
$L199082:

; 109  : 	{
; 110  : 		winPos.left=20;

  009c8	c7 45 e4 14 00
	00 00		 mov	 DWORD PTR _winPos$[ebp], 20 ; 00000014H
$L199083:

; 111  : 	}
; 112  : 	winPos.right=winPos.left+319;

  009cf	8b 55 e4	 mov	 edx, DWORD PTR _winPos$[ebp]
  009d2	81 c2 3f 01 00
	00		 add	 edx, 319		; 0000013fH
  009d8	89 55 ec	 mov	 DWORD PTR _winPos$[ebp+8], edx

; 113  : 	
; 114  : 	if (winPos.right>screenX)

  009db	8b 45 ec	 mov	 eax, DWORD PTR _winPos$[ebp+8]
  009de	3b 45 cc	 cmp	 eax, DWORD PTR _screenX$[ebp]
  009e1	7e 15		 jle	 SHORT $L199084

; 115  : 	{
; 116  : 		winPos.right=screenX-20;

  009e3	8b 4d cc	 mov	 ecx, DWORD PTR _screenX$[ebp]
  009e6	83 e9 14	 sub	 ecx, 20			; 00000014H
  009e9	89 4d ec	 mov	 DWORD PTR _winPos$[ebp+8], ecx

; 117  : 		winPos.left=winPos.right-319;

  009ec	8b 55 ec	 mov	 edx, DWORD PTR _winPos$[ebp+8]
  009ef	81 ea 3f 01 00
	00		 sub	 edx, 319		; 0000013fH
  009f5	89 55 e4	 mov	 DWORD PTR _winPos$[ebp], edx
$L199084:

; 118  : 	}
; 119  : 	if (y>0)

  009f8	83 7d dc 00	 cmp	 DWORD PTR _y$[ebp], 0
  009fc	7e 08		 jle	 SHORT $L199085

; 120  : 	{
; 121  : 		winPos.top=y;

  009fe	8b 45 dc	 mov	 eax, DWORD PTR _y$[ebp]
  00a01	89 45 e8	 mov	 DWORD PTR _winPos$[ebp+4], eax

; 122  : 	}
; 123  : 	else

  00a04	eb 07		 jmp	 SHORT $L199086
$L199085:

; 124  : 	{
; 125  : 		winPos.top=20;

  00a06	c7 45 e8 14 00
	00 00		 mov	 DWORD PTR _winPos$[ebp+4], 20 ; 00000014H
$L199086:

; 126  : 	}
; 127  : 	winPos.bottom=winPos.top+180;

  00a0d	8b 4d e8	 mov	 ecx, DWORD PTR _winPos$[ebp+4]
  00a10	81 c1 b4 00 00
	00		 add	 ecx, 180		; 000000b4H
  00a16	89 4d f0	 mov	 DWORD PTR _winPos$[ebp+12], ecx

; 128  : 	if (winPos.bottom>screenY)

  00a19	8b 55 f0	 mov	 edx, DWORD PTR _winPos$[ebp+12]
  00a1c	3b 55 e0	 cmp	 edx, DWORD PTR _screenY$[ebp]
  00a1f	7e 15		 jle	 SHORT $L199087

; 129  : 	{
; 130  : 		winPos.bottom=screenY-20;

  00a21	8b 45 e0	 mov	 eax, DWORD PTR _screenY$[ebp]
  00a24	83 e8 14	 sub	 eax, 20			; 00000014H
  00a27	89 45 f0	 mov	 DWORD PTR _winPos$[ebp+12], eax

; 131  : 		winPos.top=winPos.bottom-180;

  00a2a	8b 4d f0	 mov	 ecx, DWORD PTR _winPos$[ebp+12]
  00a2d	81 e9 b4 00 00
	00		 sub	 ecx, 180		; 000000b4H
  00a33	89 4d e8	 mov	 DWORD PTR _winPos$[ebp+4], ecx
$L199087:

; 132  : 	}
; 133  : 	MoveWindow(winPos);

  00a36	6a 01		 push	 1
  00a38	8d 4d e4	 lea	 ecx, DWORD PTR _winPos$[ebp]
  00a3b	e8 00 00 00 00	 call	 ??BCRect@@QAEPAUtagRECT@@XZ ; CRect::operator tagRECT *
  00a40	50		 push	 eax
  00a41	8b 8d fc fe ff
	ff		 mov	 ecx, DWORD PTR _this$[ebp]
  00a47	e8 00 00 00 00	 call	 ?MoveWindow@CWnd@@QAEXPBUtagRECT@@H@Z ; CWnd::MoveWindow

; 134  : 	return TRUE;

  00a4c	b8 01 00 00 00	 mov	 eax, 1

; 135  : }

  00a51	8b 4d f4	 mov	 ecx, DWORD PTR __$EHRec$[ebp]
  00a54	64 89 0d 00 00
	00 00		 mov	 DWORD PTR fs:__except_list, ecx
  00a5b	8b e5		 mov	 esp, ebp
  00a5d	5d		 pop	 ebp
  00a5e	c3		 ret	 0
_TEXT	ENDS
text$x	SEGMENT
$L200278:
  0010c	8d 4d 88	 lea	 ecx, DWORD PTR $T200261[ebp]
  0010f	ff 25 00 00 00
	00		 jmp	 DWORD PTR __imp_??1?$basic_string@DU?$char_traits@D@std@@V?$allocator@D@2@@std@@QAE@XZ
$L200279:
  00115	8d 8d 6c ff ff
	ff		 lea	 ecx, DWORD PTR $T200262[ebp]
  0011b	ff 25 00 00 00
	00		 jmp	 DWORD PTR __imp_??1?$basic_string@DU?$char_traits@D@std@@V?$allocator@D@2@@std@@QAE@XZ
$L200289:
  00121	8b 8d 44 ff ff
	ff		 mov	 ecx, DWORD PTR $T200272[ebp]
  00127	ff 25 00 00 00
	00		 jmp	 DWORD PTR __imp_??1?$CStringT@DV?$StrTraitMFC_DLL@DV?$ChTraitsCRT@D@ATL@@@@@ATL@@QAE@XZ
$L200291:
  0012d	8b 8d 3c ff ff
	ff		 mov	 ecx, DWORD PTR $T200274[ebp]
  00133	ff 25 00 00 00
	00		 jmp	 DWORD PTR __imp_??1?$CStringT@DV?$StrTraitMFC_DLL@DV?$ChTraitsCRT@D@ATL@@@@@ATL@@QAE@XZ
$L200293:
  00139	8d 8d 1c ff ff
	ff		 lea	 ecx, DWORD PTR $T200276[ebp]
  0013f	ff 25 00 00 00
	00		 jmp	 DWORD PTR __imp_??1?$basic_string@DU?$char_traits@D@std@@V?$allocator@D@2@@std@@QAE@XZ
$L200294:
  00145	8d 8d 00 ff ff
	ff		 lea	 ecx, DWORD PTR $T200277[ebp]
  0014b	ff 25 00 00 00
	00		 jmp	 DWORD PTR __imp_??1?$basic_string@DU?$char_traits@D@std@@V?$allocator@D@2@@std@@QAE@XZ
__ehhandler$?OnInitDialog@CMinOrExit@@MAEHXZ:
  00151	b8 00 00 00 00	 mov	 eax, OFFSET FLAT:$T200296
  00156	e9 00 00 00 00	 jmp	 ___CxxFrameHandler
text$x	ENDS
?OnInitDialog@CMinOrExit@@MAEHXZ ENDP			; CMinOrExit::OnInitDialog
; Function compile flags: /Odt
; File d:\boxgit\playbox\playbox\dev\prj\playbox\src\layoutmgr\seperatemode\hostwndmgr.h
;	COMDAT ?GetMainWnd@CHostWndMgr@@QAEPAVCWnd@@XZ
_TEXT	SEGMENT
_this$ = -4						; size = 4
?GetMainWnd@CHostWndMgr@@QAEPAVCWnd@@XZ PROC NEAR	; CHostWndMgr::GetMainWnd, COMDAT
; _this$ = ecx

; 43   : 	CWnd*				GetMainWnd(){

  00000	55		 push	 ebp
  00001	8b ec		 mov	 ebp, esp
  00003	51		 push	 ecx
  00004	89 4d fc	 mov	 DWORD PTR _this$[ebp], ecx

; 44   : 		return m_pMainWnd;

  00007	8b 45 fc	 mov	 eax, DWORD PTR _this$[ebp]
  0000a	8b 40 3c	 mov	 eax, DWORD PTR [eax+60]

; 45   : 	};

  0000d	8b e5		 mov	 esp, ebp
  0000f	5d		 pop	 ebp
  00010	c3		 ret	 0
?GetMainWnd@CHostWndMgr@@QAEPAVCWnd@@XZ ENDP		; CHostWndMgr::GetMainWnd
; Function compile flags: /Odt
; File d:\boxgit\playbox\playbox\dev\prj\playbox\src\module\toppanel\minorexit.cpp
_TEXT	ENDS
_TEXT	SEGMENT
_this$ = -4						; size = 4
?CheckRad1@CMinOrExit@@AAEXXZ PROC NEAR			; CMinOrExit::CheckRad1
; _this$ = ecx

; 137  : {

  00a60	55		 push	 ebp
  00a61	8b ec		 mov	 ebp, esp
  00a63	51		 push	 ecx
  00a64	89 4d fc	 mov	 DWORD PTR _this$[ebp], ecx

; 138  : 	m_chkRad=FALSE;

  00a67	8b 45 fc	 mov	 eax, DWORD PTR _this$[ebp]
  00a6a	c7 80 b8 0a 00
	00 00 00 00 00	 mov	 DWORD PTR [eax+2744], 0

; 139  : 	m_rad1Checked.ShowWindow(SW_SHOW);

  00a74	6a 05		 push	 5
  00a76	8b 4d fc	 mov	 ecx, DWORD PTR _this$[ebp]
  00a79	81 c1 04 05 00
	00		 add	 ecx, 1284		; 00000504H
  00a7f	e8 00 00 00 00	 call	 ?ShowWindow@CWnd@@QAEHH@Z ; CWnd::ShowWindow

; 140  : 	m_rad1unCheck.ShowWindow(SW_HIDE);

  00a84	6a 00		 push	 0
  00a86	8b 4d fc	 mov	 ecx, DWORD PTR _this$[ebp]
  00a89	81 c1 e0 03 00
	00		 add	 ecx, 992		; 000003e0H
  00a8f	e8 00 00 00 00	 call	 ?ShowWindow@CWnd@@QAEHH@Z ; CWnd::ShowWindow

; 141  : 	m_rad2Checked.ShowWindow(SW_HIDE);

  00a94	6a 00		 push	 0
  00a96	8b 4d fc	 mov	 ecx, DWORD PTR _this$[ebp]
  00a99	81 c1 4c 07 00
	00		 add	 ecx, 1868		; 0000074cH
  00a9f	e8 00 00 00 00	 call	 ?ShowWindow@CWnd@@QAEHH@Z ; CWnd::ShowWindow

; 142  : 	m_rad2unCheck.ShowWindow(SW_SHOW);

  00aa4	6a 05		 push	 5
  00aa6	8b 4d fc	 mov	 ecx, DWORD PTR _this$[ebp]
  00aa9	81 c1 28 06 00
	00		 add	 ecx, 1576		; 00000628H
  00aaf	e8 00 00 00 00	 call	 ?ShowWindow@CWnd@@QAEHH@Z ; CWnd::ShowWindow

; 143  : }

  00ab4	8b e5		 mov	 esp, ebp
  00ab6	5d		 pop	 ebp
  00ab7	c3		 ret	 0
?CheckRad1@CMinOrExit@@AAEXXZ ENDP			; CMinOrExit::CheckRad1
; Function compile flags: /Odt
_this$ = -4						; size = 4
?CheckRad2@CMinOrExit@@AAEXXZ PROC NEAR			; CMinOrExit::CheckRad2
; _this$ = ecx

; 145  : {

  00ac0	55		 push	 ebp
  00ac1	8b ec		 mov	 ebp, esp
  00ac3	51		 push	 ecx
  00ac4	89 4d fc	 mov	 DWORD PTR _this$[ebp], ecx

; 146  : 	m_chkRad=TRUE;

  00ac7	8b 45 fc	 mov	 eax, DWORD PTR _this$[ebp]
  00aca	c7 80 b8 0a 00
	00 01 00 00 00	 mov	 DWORD PTR [eax+2744], 1

; 147  : 	m_rad1Checked.ShowWindow(SW_HIDE);

  00ad4	6a 00		 push	 0
  00ad6	8b 4d fc	 mov	 ecx, DWORD PTR _this$[ebp]
  00ad9	81 c1 04 05 00
	00		 add	 ecx, 1284		; 00000504H
  00adf	e8 00 00 00 00	 call	 ?ShowWindow@CWnd@@QAEHH@Z ; CWnd::ShowWindow

; 148  : 	m_rad1unCheck.ShowWindow(SW_SHOW);

  00ae4	6a 05		 push	 5
  00ae6	8b 4d fc	 mov	 ecx, DWORD PTR _this$[ebp]
  00ae9	81 c1 e0 03 00
	00		 add	 ecx, 992		; 000003e0H
  00aef	e8 00 00 00 00	 call	 ?ShowWindow@CWnd@@QAEHH@Z ; CWnd::ShowWindow

; 149  : 	m_rad2Checked.ShowWindow(SW_SHOW);

  00af4	6a 05		 push	 5
  00af6	8b 4d fc	 mov	 ecx, DWORD PTR _this$[ebp]
  00af9	81 c1 4c 07 00
	00		 add	 ecx, 1868		; 0000074cH
  00aff	e8 00 00 00 00	 call	 ?ShowWindow@CWnd@@QAEHH@Z ; CWnd::ShowWindow

; 150  : 	m_rad2unCheck.ShowWindow(SW_HIDE);

  00b04	6a 00		 push	 0
  00b06	8b 4d fc	 mov	 ecx, DWORD PTR _this$[ebp]
  00b09	81 c1 28 06 00
	00		 add	 ecx, 1576		; 00000628H
  00b0f	e8 00 00 00 00	 call	 ?ShowWindow@CWnd@@QAEHH@Z ; CWnd::ShowWindow

; 151  : }

  00b14	8b e5		 mov	 esp, ebp
  00b16	5d		 pop	 ebp
  00b17	c3		 ret	 0
?CheckRad2@CMinOrExit@@AAEXXZ ENDP			; CMinOrExit::CheckRad2
_TEXT	ENDS
PUBLIC	?CheckBox@CMinOrExit@@AAEXXZ			; CMinOrExit::CheckBox
; Function compile flags: /Odt
_TEXT	SEGMENT
_this$ = -4						; size = 4
?CheckBox@CMinOrExit@@AAEXXZ PROC NEAR			; CMinOrExit::CheckBox
; _this$ = ecx

; 153  : {

  00b20	55		 push	 ebp
  00b21	8b ec		 mov	 ebp, esp
  00b23	51		 push	 ecx
  00b24	89 4d fc	 mov	 DWORD PTR _this$[ebp], ecx

; 154  : 	m_chkBox=TRUE;

  00b27	8b 45 fc	 mov	 eax, DWORD PTR _this$[ebp]
  00b2a	c7 80 bc 0a 00
	00 01 00 00 00	 mov	 DWORD PTR [eax+2748], 1

; 155  : 	m_boxChecked.ShowWindow(SW_SHOW);

  00b34	6a 05		 push	 5
  00b36	8b 4d fc	 mov	 ecx, DWORD PTR _this$[ebp]
  00b39	81 c1 94 09 00
	00		 add	 ecx, 2452		; 00000994H
  00b3f	e8 00 00 00 00	 call	 ?ShowWindow@CWnd@@QAEHH@Z ; CWnd::ShowWindow

; 156  : 	m_boxunCheck.ShowWindow(SW_HIDE);

  00b44	6a 00		 push	 0
  00b46	8b 4d fc	 mov	 ecx, DWORD PTR _this$[ebp]
  00b49	81 c1 70 08 00
	00		 add	 ecx, 2160		; 00000870H
  00b4f	e8 00 00 00 00	 call	 ?ShowWindow@CWnd@@QAEHH@Z ; CWnd::ShowWindow

; 157  : }

  00b54	8b e5		 mov	 esp, ebp
  00b56	5d		 pop	 ebp
  00b57	c3		 ret	 0
?CheckBox@CMinOrExit@@AAEXXZ ENDP			; CMinOrExit::CheckBox
_TEXT	ENDS
PUBLIC	?UnCheckBox@CMinOrExit@@AAEXXZ			; CMinOrExit::UnCheckBox
; Function compile flags: /Odt
_TEXT	SEGMENT
_this$ = -4						; size = 4
?UnCheckBox@CMinOrExit@@AAEXXZ PROC NEAR		; CMinOrExit::UnCheckBox
; _this$ = ecx

; 159  : {

  00b60	55		 push	 ebp
  00b61	8b ec		 mov	 ebp, esp
  00b63	51		 push	 ecx
  00b64	89 4d fc	 mov	 DWORD PTR _this$[ebp], ecx

; 160  : 	m_chkBox=FALSE;

  00b67	8b 45 fc	 mov	 eax, DWORD PTR _this$[ebp]
  00b6a	c7 80 bc 0a 00
	00 00 00 00 00	 mov	 DWORD PTR [eax+2748], 0

; 161  : 	m_boxChecked.ShowWindow(SW_HIDE);

  00b74	6a 00		 push	 0
  00b76	8b 4d fc	 mov	 ecx, DWORD PTR _this$[ebp]
  00b79	81 c1 94 09 00
	00		 add	 ecx, 2452		; 00000994H
  00b7f	e8 00 00 00 00	 call	 ?ShowWindow@CWnd@@QAEHH@Z ; CWnd::ShowWindow

; 162  : 	m_boxunCheck.ShowWindow(SW_SHOW);

  00b84	6a 05		 push	 5
  00b86	8b 4d fc	 mov	 ecx, DWORD PTR _this$[ebp]
  00b89	81 c1 70 08 00
	00		 add	 ecx, 2160		; 00000870H
  00b8f	e8 00 00 00 00	 call	 ?ShowWindow@CWnd@@QAEHH@Z ; CWnd::ShowWindow

; 163  : }

  00b94	8b e5		 mov	 esp, ebp
  00b96	5d		 pop	 ebp
  00b97	c3		 ret	 0
?UnCheckBox@CMinOrExit@@AAEXXZ ENDP			; CMinOrExit::UnCheckBox
_TEXT	ENDS
EXTRN	?OnCommand@CWnd@@MAEHIJ@Z:NEAR			; CWnd::OnCommand
; Function compile flags: /Odt
_TEXT	SEGMENT
tv67 = -20						; size = 4
_this$ = -16						; size = 4
_lowWord$ = -8						; size = 2
_wParam$ = 8						; size = 4
_lParam$ = 12						; size = 4
?OnCommand@CMinOrExit@@MAEHIJ@Z PROC NEAR		; CMinOrExit::OnCommand
; _this$ = ecx

; 165  : {

  00ba0	55		 push	 ebp
  00ba1	8b ec		 mov	 ebp, esp
  00ba3	83 ec 14	 sub	 esp, 20			; 00000014H
  00ba6	89 4d f0	 mov	 DWORD PTR _this$[ebp], ecx

; 166  : 	bool askexit,exitchoice;
; 167  : 	WORD lowWord	= LOWORD( wParam );

  00ba9	8b 45 08	 mov	 eax, DWORD PTR _wParam$[ebp]
  00bac	25 ff ff 00 00	 and	 eax, 65535		; 0000ffffH
  00bb1	66 89 45 f8	 mov	 WORD PTR _lowWord$[ebp], ax

; 168  : 	switch (lowWord)

  00bb5	0f b7 4d f8	 movzx	 ecx, WORD PTR _lowWord$[ebp]
  00bb9	89 4d ec	 mov	 DWORD PTR tv67[ebp], ecx
  00bbc	8b 55 ec	 mov	 edx, DWORD PTR tv67[ebp]
  00bbf	81 ea 19 27 00
	00		 sub	 edx, 10009		; 00002719H
  00bc5	89 55 ec	 mov	 DWORD PTR tv67[ebp], edx
  00bc8	83 7d ec 04	 cmp	 DWORD PTR tv67[ebp], 4
  00bcc	77 56		 ja	 SHORT $L199111
  00bce	8b 45 ec	 mov	 eax, DWORD PTR tv67[ebp]
  00bd1	ff 24 85 00 00
	00 00		 jmp	 DWORD PTR $L200306[eax*4]
$L199114:

; 169  : 	{
; 170  : 	case ID_BTN_MINORCLOSE_RAD1:
; 171  : 		CheckRad1();

  00bd8	8b 4d f0	 mov	 ecx, DWORD PTR _this$[ebp]
  00bdb	e8 00 00 00 00	 call	 ?CheckRad1@CMinOrExit@@AAEXXZ ; CMinOrExit::CheckRad1

; 172  : 		break;

  00be0	eb 42		 jmp	 SHORT $L199111
$L199115:

; 173  : 	case ID_BTN_MINORCLOSE_RAD2:
; 174  : 		CheckRad2();

  00be2	8b 4d f0	 mov	 ecx, DWORD PTR _this$[ebp]
  00be5	e8 00 00 00 00	 call	 ?CheckRad2@CMinOrExit@@AAEXXZ ; CMinOrExit::CheckRad2

; 175  : 		break;

  00bea	eb 38		 jmp	 SHORT $L199111
$L199116:

; 176  : 	case ID_BTN_MINORCLOSE_BOX:
; 177  : 		if (m_chkBox)

  00bec	8b 4d f0	 mov	 ecx, DWORD PTR _this$[ebp]
  00bef	83 b9 bc 0a 00
	00 00		 cmp	 DWORD PTR [ecx+2748], 0
  00bf6	74 0a		 je	 SHORT $L199117

; 178  : 		{
; 179  : 			UnCheckBox();

  00bf8	8b 4d f0	 mov	 ecx, DWORD PTR _this$[ebp]
  00bfb	e8 00 00 00 00	 call	 ?UnCheckBox@CMinOrExit@@AAEXXZ ; CMinOrExit::UnCheckBox

; 180  : 		}
; 181  : 		else

  00c00	eb 08		 jmp	 SHORT $L199118
$L199117:

; 182  : 		{
; 183  : 			CheckBox();

  00c02	8b 4d f0	 mov	 ecx, DWORD PTR _this$[ebp]
  00c05	e8 00 00 00 00	 call	 ?CheckBox@CMinOrExit@@AAEXXZ ; CMinOrExit::CheckBox
$L199118:

; 184  : 		}
; 185  : 		break;

  00c0a	eb 18		 jmp	 SHORT $L199111
$L199119:

; 186  : 	case ID_BTN_MINORCLOSE_CANCLE:
; 187  : 		CDialog::OnCancel();

  00c0c	8b 4d f0	 mov	 ecx, DWORD PTR _this$[ebp]
  00c0f	e8 00 00 00 00	 call	 ?OnCancel@CDialog@@MAEXXZ ; CDialog::OnCancel

; 188  : 		break;

  00c14	eb 0e		 jmp	 SHORT $L199111
$L199120:

; 189  : 	case ID_BTN_MINORCLOSE_OK:
; 190  : 		OnOK();

  00c16	8b 55 f0	 mov	 edx, DWORD PTR _this$[ebp]
  00c19	8b 02		 mov	 eax, DWORD PTR [edx]
  00c1b	8b 4d f0	 mov	 ecx, DWORD PTR _this$[ebp]
  00c1e	ff 90 54 01 00
	00		 call	 DWORD PTR [eax+340]
$L199111:

; 191  : 		break;
; 192  : 	}
; 193  : 	return CDialog::OnCommand(wParam,lParam);

  00c24	8b 4d 0c	 mov	 ecx, DWORD PTR _lParam$[ebp]
  00c27	51		 push	 ecx
  00c28	8b 55 08	 mov	 edx, DWORD PTR _wParam$[ebp]
  00c2b	52		 push	 edx
  00c2c	8b 4d f0	 mov	 ecx, DWORD PTR _this$[ebp]
  00c2f	e8 00 00 00 00	 call	 ?OnCommand@CWnd@@MAEHIJ@Z ; CWnd::OnCommand

; 194  : }

  00c34	8b e5		 mov	 esp, ebp
  00c36	5d		 pop	 ebp
  00c37	c2 08 00	 ret	 8
$L200306:
  00c3a	00 00 00 00	 DD	 $L199120
  00c3e	00 00 00 00	 DD	 $L199114
  00c42	00 00 00 00	 DD	 $L199115
  00c46	00 00 00 00	 DD	 $L199116
  00c4a	00 00 00 00	 DD	 $L199119
?OnCommand@CMinOrExit@@MAEHIJ@Z ENDP			; CMinOrExit::OnCommand
_TEXT	ENDS
EXTRN	___security_cookie:DWORD
EXTRN	@__security_check_cookie@4:NEAR
EXTRN	??0CPaintDC@@QAE@PAVCWnd@@@Z:NEAR		; CPaintDC::CPaintDC
EXTRN	??1CPaintDC@@UAE@XZ:NEAR			; CPaintDC::~CPaintDC
xdata$x	SEGMENT
$T200316 DD	0ffffffffH
	DD	FLAT:$L200309
$T200311 DD	019930520H
	DD	01H
	DD	FLAT:$T200316
	DD	2 DUP(00H)
	DD	2 DUP(00H)
; Function compile flags: /Odt
xdata$x	ENDS
_TEXT	SEGMENT
tv75 = -120						; size = 4
tv70 = -116						; size = 4
_this$ = -112						; size = 4
_dc$ = -108						; size = 84
__$ArrayPad$ = -16					; size = 4
__$EHRec$ = -12						; size = 12
__$ReturnAddr$ = 4					; size = 4
?OnPaint@CMinOrExit@@QAEXXZ PROC NEAR			; CMinOrExit::OnPaint
; _this$ = ecx

; 199  : {

  00c50	55		 push	 ebp
  00c51	8b ec		 mov	 ebp, esp
  00c53	6a ff		 push	 -1
  00c55	68 00 00 00 00	 push	 __ehhandler$?OnPaint@CMinOrExit@@QAEXXZ
  00c5a	64 a1 00 00 00
	00		 mov	 eax, DWORD PTR fs:__except_list
  00c60	50		 push	 eax
  00c61	64 89 25 00 00
	00 00		 mov	 DWORD PTR fs:__except_list, esp
  00c68	83 ec 6c	 sub	 esp, 108		; 0000006cH
  00c6b	a1 00 00 00 00	 mov	 eax, DWORD PTR ___security_cookie
  00c70	89 45 f0	 mov	 DWORD PTR __$ArrayPad$[ebp], eax
  00c73	89 4d 90	 mov	 DWORD PTR _this$[ebp], ecx

; 200  : 	CPaintDC dc(this); // device context for painting

  00c76	8b 45 90	 mov	 eax, DWORD PTR _this$[ebp]
  00c79	50		 push	 eax
  00c7a	8d 4d 94	 lea	 ecx, DWORD PTR _dc$[ebp]
  00c7d	e8 00 00 00 00	 call	 ??0CPaintDC@@QAE@PAVCWnd@@@Z ; CPaintDC::CPaintDC
  00c82	c7 45 fc 00 00
	00 00		 mov	 DWORD PTR __$EHRec$[ebp+8], 0

; 201  : 	AfxGetUIManager()->UIGetLayoutMgr()->PaintBkGround( m_hWnd ,&dc,false ) ;	

  00c89	e8 00 00 00 00	 call	 ?AfxGetUIManager@@YAPAVIUIManager@@XZ ; AfxGetUIManager
  00c8e	89 45 8c	 mov	 DWORD PTR tv70[ebp], eax
  00c91	8b 4d 8c	 mov	 ecx, DWORD PTR tv70[ebp]
  00c94	8b 11		 mov	 edx, DWORD PTR [ecx]
  00c96	8b 4d 8c	 mov	 ecx, DWORD PTR tv70[ebp]
  00c99	ff 52 24	 call	 DWORD PTR [edx+36]
  00c9c	89 45 88	 mov	 DWORD PTR tv75[ebp], eax
  00c9f	6a 00		 push	 0
  00ca1	8d 45 94	 lea	 eax, DWORD PTR _dc$[ebp]
  00ca4	50		 push	 eax
  00ca5	8b 4d 90	 mov	 ecx, DWORD PTR _this$[ebp]
  00ca8	8b 51 20	 mov	 edx, DWORD PTR [ecx+32]
  00cab	52		 push	 edx
  00cac	8b 45 88	 mov	 eax, DWORD PTR tv75[ebp]
  00caf	8b 10		 mov	 edx, DWORD PTR [eax]
  00cb1	8b 4d 88	 mov	 ecx, DWORD PTR tv75[ebp]
  00cb4	ff 52 5c	 call	 DWORD PTR [edx+92]

; 202  : }

  00cb7	c7 45 fc ff ff
	ff ff		 mov	 DWORD PTR __$EHRec$[ebp+8], -1
  00cbe	8d 4d 94	 lea	 ecx, DWORD PTR _dc$[ebp]
  00cc1	e8 00 00 00 00	 call	 ??1CPaintDC@@UAE@XZ	; CPaintDC::~CPaintDC
  00cc6	8b 4d f4	 mov	 ecx, DWORD PTR __$EHRec$[ebp]
  00cc9	64 89 0d 00 00
	00 00		 mov	 DWORD PTR fs:__except_list, ecx
  00cd0	8b 4d f0	 mov	 ecx, DWORD PTR __$ArrayPad$[ebp]
  00cd3	e8 00 00 00 00	 call	 @__security_check_cookie@4
  00cd8	8b e5		 mov	 esp, ebp
  00cda	5d		 pop	 ebp
  00cdb	c3		 ret	 0
_TEXT	ENDS
text$x	SEGMENT
$L200309:
  0015b	8d 4d 94	 lea	 ecx, DWORD PTR _dc$[ebp]
  0015e	e9 00 00 00 00	 jmp	 ??1CPaintDC@@UAE@XZ	; CPaintDC::~CPaintDC
__ehhandler$?OnPaint@CMinOrExit@@QAEXXZ:
  00163	b8 00 00 00 00	 mov	 eax, OFFSET FLAT:$T200311
  00168	e9 00 00 00 00	 jmp	 ___CxxFrameHandler
text$x	ENDS
?OnPaint@CMinOrExit@@QAEXXZ ENDP			; CMinOrExit::OnPaint
PUBLIC	?OnLButtonUp@CWnd@@IAEXIVCPoint@@@Z		; CWnd::OnLButtonUp
EXTRN	__imp__PtInRect@12:NEAR
; Function compile flags: /Odt
_TEXT	SEGMENT
tv129 = -80						; size = 4
_this$ = -76						; size = 4
$T200320 = -72						; size = 8
$T200319 = -64						; size = 8
$T200318 = -56						; size = 8
_boxRect$ = -48						; size = 16
_rad1Rect$ = -32					; size = 16
_rad2Rect$ = -16					; size = 16
_nFlags$ = 8						; size = 4
_point$ = 12						; size = 8
?OnLButtonUp@CMinOrExit@@QAEXIVCPoint@@@Z PROC NEAR	; CMinOrExit::OnLButtonUp
; _this$ = ecx

; 205  : {

  00ce0	55		 push	 ebp
  00ce1	8b ec		 mov	 ebp, esp
  00ce3	83 ec 50	 sub	 esp, 80			; 00000050H
  00ce6	89 4d b4	 mov	 DWORD PTR _this$[ebp], ecx

; 206  : 	// TODO: /
; 207  : 
; 208  : 	CRect rad1Rect(24,83,296,95);

  00ce9	6a 5f		 push	 95			; 0000005fH
  00ceb	68 28 01 00 00	 push	 296			; 00000128H
  00cf0	6a 53		 push	 83			; 00000053H
  00cf2	6a 18		 push	 24			; 00000018H
  00cf4	8d 4d e0	 lea	 ecx, DWORD PTR _rad1Rect$[ebp]
  00cf7	e8 00 00 00 00	 call	 ??0CRect@@QAE@HHHH@Z	; CRect::CRect

; 209  : 	CRect rad2Rect(24,104,162,118);

  00cfc	6a 76		 push	 118			; 00000076H
  00cfe	68 a2 00 00 00	 push	 162			; 000000a2H
  00d03	6a 68		 push	 104			; 00000068H
  00d05	6a 18		 push	 24			; 00000018H
  00d07	8d 4d f0	 lea	 ecx, DWORD PTR _rad2Rect$[ebp]
  00d0a	e8 00 00 00 00	 call	 ??0CRect@@QAE@HHHH@Z	; CRect::CRect

; 210  : 	CRect boxRect(10,152,84,170);

  00d0f	68 aa 00 00 00	 push	 170			; 000000aaH
  00d14	6a 54		 push	 84			; 00000054H
  00d16	68 98 00 00 00	 push	 152			; 00000098H
  00d1b	6a 0a		 push	 10			; 0000000aH
  00d1d	8d 4d d0	 lea	 ecx, DWORD PTR _boxRect$[ebp]
  00d20	e8 00 00 00 00	 call	 ??0CRect@@QAE@HHHH@Z	; CRect::CRect

; 211  : 	if (PtInRect(&rad1Rect,point))

  00d25	8b 45 0c	 mov	 eax, DWORD PTR _point$[ebp]
  00d28	89 45 c8	 mov	 DWORD PTR $T200318[ebp], eax
  00d2b	8b 4d 10	 mov	 ecx, DWORD PTR _point$[ebp+4]
  00d2e	89 4d cc	 mov	 DWORD PTR $T200318[ebp+4], ecx
  00d31	8b 55 cc	 mov	 edx, DWORD PTR $T200318[ebp+4]
  00d34	52		 push	 edx
  00d35	8b 45 c8	 mov	 eax, DWORD PTR $T200318[ebp]
  00d38	50		 push	 eax
  00d39	8d 4d e0	 lea	 ecx, DWORD PTR _rad1Rect$[ebp]
  00d3c	51		 push	 ecx
  00d3d	ff 15 00 00 00
	00		 call	 DWORD PTR __imp__PtInRect@12
  00d43	85 c0		 test	 eax, eax
  00d45	74 0a		 je	 SHORT $L199134

; 212  : 	{
; 213  : 		CheckRad1();

  00d47	8b 4d b4	 mov	 ecx, DWORD PTR _this$[ebp]
  00d4a	e8 00 00 00 00	 call	 ?CheckRad1@CMinOrExit@@AAEXXZ ; CMinOrExit::CheckRad1

; 214  : 	}
; 215  : 	else if (PtInRect(&rad2Rect,point))

  00d4f	eb 7a		 jmp	 SHORT $L199135
$L199134:
  00d51	8b 55 0c	 mov	 edx, DWORD PTR _point$[ebp]
  00d54	89 55 c0	 mov	 DWORD PTR $T200319[ebp], edx
  00d57	8b 45 10	 mov	 eax, DWORD PTR _point$[ebp+4]
  00d5a	89 45 c4	 mov	 DWORD PTR $T200319[ebp+4], eax
  00d5d	8b 4d c4	 mov	 ecx, DWORD PTR $T200319[ebp+4]
  00d60	51		 push	 ecx
  00d61	8b 55 c0	 mov	 edx, DWORD PTR $T200319[ebp]
  00d64	52		 push	 edx
  00d65	8d 45 f0	 lea	 eax, DWORD PTR _rad2Rect$[ebp]
  00d68	50		 push	 eax
  00d69	ff 15 00 00 00
	00		 call	 DWORD PTR __imp__PtInRect@12
  00d6f	85 c0		 test	 eax, eax
  00d71	74 0a		 je	 SHORT $L199137

; 216  : 	{
; 217  : 		CheckRad2();

  00d73	8b 4d b4	 mov	 ecx, DWORD PTR _this$[ebp]
  00d76	e8 00 00 00 00	 call	 ?CheckRad2@CMinOrExit@@AAEXXZ ; CMinOrExit::CheckRad2

; 218  : 	}
; 219  : 	else if(PtInRect(&boxRect,point))

  00d7b	eb 4e		 jmp	 SHORT $L199135
$L199137:
  00d7d	8b 4d 0c	 mov	 ecx, DWORD PTR _point$[ebp]
  00d80	89 4d b8	 mov	 DWORD PTR $T200320[ebp], ecx
  00d83	8b 55 10	 mov	 edx, DWORD PTR _point$[ebp+4]
  00d86	89 55 bc	 mov	 DWORD PTR $T200320[ebp+4], edx
  00d89	8b 45 bc	 mov	 eax, DWORD PTR $T200320[ebp+4]
  00d8c	50		 push	 eax
  00d8d	8b 4d b8	 mov	 ecx, DWORD PTR $T200320[ebp]
  00d90	51		 push	 ecx
  00d91	8d 55 d0	 lea	 edx, DWORD PTR _boxRect$[ebp]
  00d94	52		 push	 edx
  00d95	ff 15 00 00 00
	00		 call	 DWORD PTR __imp__PtInRect@12
  00d9b	85 c0		 test	 eax, eax
  00d9d	74 2c		 je	 SHORT $L199135

; 220  : 	{
; 221  : 		m_chkBox?UnCheckBox():CheckBox();

  00d9f	8b 45 b4	 mov	 eax, DWORD PTR _this$[ebp]
  00da2	83 b8 bc 0a 00
	00 00		 cmp	 DWORD PTR [eax+2748], 0
  00da9	74 11		 je	 SHORT $L200321
  00dab	8b 4d b4	 mov	 ecx, DWORD PTR _this$[ebp]
  00dae	e8 00 00 00 00	 call	 ?UnCheckBox@CMinOrExit@@AAEXXZ ; CMinOrExit::UnCheckBox
  00db3	c7 45 b0 00 00
	00 00		 mov	 DWORD PTR tv129[ebp], 0
  00dba	eb 0f		 jmp	 SHORT $L199135
$L200321:
  00dbc	8b 4d b4	 mov	 ecx, DWORD PTR _this$[ebp]
  00dbf	e8 00 00 00 00	 call	 ?CheckBox@CMinOrExit@@AAEXXZ ; CMinOrExit::CheckBox
  00dc4	c7 45 b0 00 00
	00 00		 mov	 DWORD PTR tv129[ebp], 0
$L199135:

; 222  : 	}
; 223  : 
; 224  : 	CDialog::OnLButtonUp(nFlags, point);

  00dcb	8b 4d 10	 mov	 ecx, DWORD PTR _point$[ebp+4]
  00dce	51		 push	 ecx
  00dcf	8b 55 0c	 mov	 edx, DWORD PTR _point$[ebp]
  00dd2	52		 push	 edx
  00dd3	8b 45 08	 mov	 eax, DWORD PTR _nFlags$[ebp]
  00dd6	50		 push	 eax
  00dd7	8b 4d b4	 mov	 ecx, DWORD PTR _this$[ebp]
  00dda	e8 00 00 00 00	 call	 ?OnLButtonUp@CWnd@@IAEXIVCPoint@@@Z ; CWnd::OnLButtonUp

; 225  : }

  00ddf	8b e5		 mov	 esp, ebp
  00de1	5d		 pop	 ebp
  00de2	c2 0c 00	 ret	 12			; 0000000cH
?OnLButtonUp@CMinOrExit@@QAEXIVCPoint@@@Z ENDP		; CMinOrExit::OnLButtonUp
_TEXT	ENDS
PUBLIC	?InterlockedExchangePointer@@YGPAXPAPAXPAX@Z	; InterlockedExchangePointer
PUBLIC	?_AtlGetThreadACPFake@ATL@@YGIXZ		; ATL::_AtlGetThreadACPFake
PUBLIC	?_AtlGetThreadACPReal@ATL@@YGIXZ		; ATL::_AtlGetThreadACPReal
EXTRN	__imp__GetVersionExA@4:NEAR
; Function compile flags: /Odt
; File d:\program files (x86)\microsoft visual studio .net 2003\vc7\atlmfc\include\atlconv.h
;	COMDAT ?_AtlGetThreadACPThunk@ATL@@YGIXZ
_TEXT	SEGMENT
_pfnGetThreadACP$ = -164				; size = 4
_ver$ = -160						; size = 148
__$ArrayPad$ = -4					; size = 4
__$ReturnAddr$ = 4					; size = 4
?_AtlGetThreadACPThunk@ATL@@YGIXZ PROC NEAR		; ATL::_AtlGetThreadACPThunk, COMDAT

; 134  : {

  00000	55		 push	 ebp
  00001	8b ec		 mov	 ebp, esp
  00003	81 ec a4 00 00
	00		 sub	 esp, 164		; 000000a4H
  00009	a1 00 00 00 00	 mov	 eax, DWORD PTR ___security_cookie
  0000e	89 45 fc	 mov	 DWORD PTR __$ArrayPad$[ebp], eax

; 135  : 	OSVERSIONINFO ver;
; 136  : 	ATLGETTHREADACP pfnGetThreadACP;
; 137  : 
; 138  : 	ver.dwOSVersionInfoSize = sizeof( ver );

  00011	c7 85 60 ff ff
	ff 94 00 00 00	 mov	 DWORD PTR _ver$[ebp], 148 ; 00000094H

; 139  : 	::GetVersionEx( &ver );

  0001b	8d 85 60 ff ff
	ff		 lea	 eax, DWORD PTR _ver$[ebp]
  00021	50		 push	 eax
  00022	ff 15 00 00 00
	00		 call	 DWORD PTR __imp__GetVersionExA@4

; 140  : 	if( (ver.dwPlatformId == VER_PLATFORM_WIN32_NT) && (ver.dwMajorVersion >= 5) )

  00028	83 bd 70 ff ff
	ff 02		 cmp	 DWORD PTR _ver$[ebp+16], 2
  0002f	75 15		 jne	 SHORT $L24173
  00031	83 bd 64 ff ff
	ff 05		 cmp	 DWORD PTR _ver$[ebp+4], 5
  00038	72 0c		 jb	 SHORT $L24173

; 141  : 	{
; 142  : 		// On Win2K, CP_THREAD_ACP is supported
; 143  : 		pfnGetThreadACP = _AtlGetThreadACPReal;

  0003a	c7 85 5c ff ff
	ff 00 00 00 00	 mov	 DWORD PTR _pfnGetThreadACP$[ebp], OFFSET FLAT:?_AtlGetThreadACPReal@ATL@@YGIXZ ; ATL::_AtlGetThreadACPReal

; 144  : 	}
; 145  : 	else

  00044	eb 0a		 jmp	 SHORT $L24174
$L24173:

; 146  : 	{
; 147  : 		pfnGetThreadACP = _AtlGetThreadACPFake;

  00046	c7 85 5c ff ff
	ff 00 00 00 00	 mov	 DWORD PTR _pfnGetThreadACP$[ebp], OFFSET FLAT:?_AtlGetThreadACPFake@ATL@@YGIXZ ; ATL::_AtlGetThreadACPFake
$L24174:

; 148  : 	}
; 149  : 	InterlockedExchangePointer( reinterpret_cast< void** >(&g_pfnGetThreadACP), pfnGetThreadACP );

  00050	8b 8d 5c ff ff
	ff		 mov	 ecx, DWORD PTR _pfnGetThreadACP$[ebp]
  00056	51		 push	 ecx
  00057	68 00 00 00 00	 push	 OFFSET FLAT:?g_pfnGetThreadACP@ATL@@3P6GIXZA ; ATL::g_pfnGetThreadACP
  0005c	e8 00 00 00 00	 call	 ?InterlockedExchangePointer@@YGPAXPAPAXPAX@Z ; InterlockedExchangePointer

; 150  : 
; 151  : 	return( g_pfnGetThreadACP() );

  00061	ff 15 00 00 00
	00		 call	 DWORD PTR ?g_pfnGetThreadACP@ATL@@3P6GIXZA ; ATL::g_pfnGetThreadACP

; 152  : }

  00067	8b 4d fc	 mov	 ecx, DWORD PTR __$ArrayPad$[ebp]
  0006a	e8 00 00 00 00	 call	 @__security_check_cookie@4
  0006f	8b e5		 mov	 esp, ebp
  00071	5d		 pop	 ebp
  00072	c3		 ret	 0
?_AtlGetThreadACPThunk@ATL@@YGIXZ ENDP			; ATL::_AtlGetThreadACPThunk
_TEXT	ENDS
EXTRN	__imp__InterlockedExchange@8:NEAR
; Function compile flags: /Odt
;	COMDAT ?InterlockedExchangePointer@@YGPAXPAPAXPAX@Z
_TEXT	SEGMENT
_pp$ = 8						; size = 4
_pNew$ = 12						; size = 4
?InterlockedExchangePointer@@YGPAXPAPAXPAX@Z PROC NEAR	; InterlockedExchangePointer, COMDAT

; 91   : {

  00000	55		 push	 ebp
  00001	8b ec		 mov	 ebp, esp

; 92   : 	return( reinterpret_cast<void*>(static_cast<LONG_PTR>(::InterlockedExchange(reinterpret_cast<LONG*>(pp), static_cast<LONG>(reinterpret_cast<LONG_PTR>(pNew))))) );

  00003	8b 45 0c	 mov	 eax, DWORD PTR _pNew$[ebp]
  00006	50		 push	 eax
  00007	8b 4d 08	 mov	 ecx, DWORD PTR _pp$[ebp]
  0000a	51		 push	 ecx
  0000b	ff 15 00 00 00
	00		 call	 DWORD PTR __imp__InterlockedExchange@8

; 93   : }

  00011	5d		 pop	 ebp
  00012	c2 08 00	 ret	 8
?InterlockedExchangePointer@@YGPAXPAPAXPAX@Z ENDP	; InterlockedExchangePointer
_TEXT	ENDS
EXTRN	__imp__GetACP@0:NEAR
EXTRN	__imp__GetLocaleInfoA@16:NEAR
EXTRN	__imp__GetThreadLocale@0:NEAR
; Function compile flags: /Odt
;	COMDAT ?_AtlGetThreadACPFake@ATL@@YGIXZ
_TEXT	SEGMENT
_pch$24161 = -24					; size = 4
_lcidThread$ = -20					; size = 4
_szACP$ = -16						; size = 7
__$ArrayPad$ = -8					; size = 4
_nACP$ = -4						; size = 4
__$ReturnAddr$ = 4					; size = 4
?_AtlGetThreadACPFake@ATL@@YGIXZ PROC NEAR		; ATL::_AtlGetThreadACPFake, COMDAT

; 101  : {

  00000	55		 push	 ebp
  00001	8b ec		 mov	 ebp, esp
  00003	83 ec 18	 sub	 esp, 24			; 00000018H
  00006	a1 00 00 00 00	 mov	 eax, DWORD PTR ___security_cookie
  0000b	89 45 f8	 mov	 DWORD PTR __$ArrayPad$[ebp], eax

; 102  : 	UINT nACP = 0;

  0000e	c7 45 fc 00 00
	00 00		 mov	 DWORD PTR _nACP$[ebp], 0

; 103  : 
; 104  : 	LCID lcidThread = ::GetThreadLocale();

  00015	ff 15 00 00 00
	00		 call	 DWORD PTR __imp__GetThreadLocale@0
  0001b	89 45 ec	 mov	 DWORD PTR _lcidThread$[ebp], eax

; 105  : 
; 106  : 	char szACP[7];
; 107  : 	// GetLocaleInfoA will fail for a Unicode-only LCID, but those are only supported on 
; 108  : 	// Windows 2000.  Since Windows 2000 supports CP_THREAD_ACP, this code path is never
; 109  : 	// executed on Windows 2000.
; 110  : 	if (::GetLocaleInfoA(lcidThread, LOCALE_IDEFAULTANSICODEPAGE, szACP, 7) != 0)

  0001e	6a 07		 push	 7
  00020	8d 45 f0	 lea	 eax, DWORD PTR _szACP$[ebp]
  00023	50		 push	 eax
  00024	68 04 10 00 00	 push	 4100			; 00001004H
  00029	8b 4d ec	 mov	 ecx, DWORD PTR _lcidThread$[ebp]
  0002c	51		 push	 ecx
  0002d	ff 15 00 00 00
	00		 call	 DWORD PTR __imp__GetLocaleInfoA@16
  00033	85 c0		 test	 eax, eax
  00035	74 34		 je	 SHORT $L24160

; 111  : 	{
; 112  : 		char* pch = szACP;

  00037	8d 55 f0	 lea	 edx, DWORD PTR _szACP$[ebp]
  0003a	89 55 e8	 mov	 DWORD PTR _pch$24161[ebp], edx
$L24163:

; 113  : 		while (*pch != '\0')

  0003d	8b 45 e8	 mov	 eax, DWORD PTR _pch$24161[ebp]
  00040	0f be 08	 movsx	 ecx, BYTE PTR [eax]
  00043	85 c9		 test	 ecx, ecx
  00045	74 24		 je	 SHORT $L24160

; 114  : 		{
; 115  : 			nACP *= 10;

  00047	8b 55 fc	 mov	 edx, DWORD PTR _nACP$[ebp]
  0004a	6b d2 0a	 imul	 edx, 10			; 0000000aH
  0004d	89 55 fc	 mov	 DWORD PTR _nACP$[ebp], edx

; 116  : 			nACP += *pch++ - '0';

  00050	8b 45 e8	 mov	 eax, DWORD PTR _pch$24161[ebp]
  00053	0f be 08	 movsx	 ecx, BYTE PTR [eax]
  00056	8b 55 fc	 mov	 edx, DWORD PTR _nACP$[ebp]
  00059	8d 44 0a d0	 lea	 eax, DWORD PTR [edx+ecx-48]
  0005d	89 45 fc	 mov	 DWORD PTR _nACP$[ebp], eax
  00060	8b 4d e8	 mov	 ecx, DWORD PTR _pch$24161[ebp]
  00063	83 c1 01	 add	 ecx, 1
  00066	89 4d e8	 mov	 DWORD PTR _pch$24161[ebp], ecx

; 117  : 		}

  00069	eb d2		 jmp	 SHORT $L24163
$L24160:

; 118  : 	}
; 119  : 	// Use the Default ANSI Code Page if we were unable to get the thread ACP or if one does not exist.
; 120  : 	if (nACP == 0)

  0006b	83 7d fc 00	 cmp	 DWORD PTR _nACP$[ebp], 0
  0006f	75 09		 jne	 SHORT $L24165

; 121  : 		nACP = ::GetACP();

  00071	ff 15 00 00 00
	00		 call	 DWORD PTR __imp__GetACP@0
  00077	89 45 fc	 mov	 DWORD PTR _nACP$[ebp], eax
$L24165:

; 122  : 
; 123  : 	return nACP;

  0007a	8b 45 fc	 mov	 eax, DWORD PTR _nACP$[ebp]

; 124  : }

  0007d	8b 4d f8	 mov	 ecx, DWORD PTR __$ArrayPad$[ebp]
  00080	e8 00 00 00 00	 call	 @__security_check_cookie@4
  00085	8b e5		 mov	 esp, ebp
  00087	5d		 pop	 ebp
  00088	c3		 ret	 0
?_AtlGetThreadACPFake@ATL@@YGIXZ ENDP			; ATL::_AtlGetThreadACPFake
; Function compile flags: /Odt
_TEXT	ENDS
;	COMDAT ?_AtlGetThreadACPReal@ATL@@YGIXZ
_TEXT	SEGMENT
?_AtlGetThreadACPReal@ATL@@YGIXZ PROC NEAR		; ATL::_AtlGetThreadACPReal, COMDAT

; 127  : {

  00000	55		 push	 ebp
  00001	8b ec		 mov	 ebp, esp

; 128  : 	return( CP_THREAD_ACP );

  00003	b8 03 00 00 00	 mov	 eax, 3

; 129  : }

  00008	5d		 pop	 ebp
  00009	c3		 ret	 0
?_AtlGetThreadACPReal@ATL@@YGIXZ ENDP			; ATL::_AtlGetThreadACPReal
_TEXT	ENDS
PUBLIC	?GetClientRect@CWnd@@QBEXPAUtagRECT@@@Z		; CWnd::GetClientRect
PUBLIC	?PtInRect@CRect@@QBEHUtagPOINT@@@Z		; CRect::PtInRect
PUBLIC	?OnNcHitTest@CWnd@@IAEIVCPoint@@@Z		; CWnd::OnNcHitTest
EXTRN	?ClientToScreen@CWnd@@QBEXPAUtagRECT@@@Z:NEAR	; CWnd::ClientToScreen
; Function compile flags: /Odt
; File d:\boxgit\playbox\playbox\dev\prj\playbox\src\module\toppanel\minorexit.cpp
_TEXT	SEGMENT
tv77 = -32						; size = 4
_this$ = -28						; size = 4
$T200336 = -24						; size = 8
_rc$ = -16						; size = 16
_point$ = 8						; size = 8
?OnNcHitTest@CMinOrExit@@QAEIVCPoint@@@Z PROC NEAR	; CMinOrExit::OnNcHitTest
; _this$ = ecx

; 228  : {

  00df0	55		 push	 ebp
  00df1	8b ec		 mov	 ebp, esp
  00df3	83 ec 20	 sub	 esp, 32			; 00000020H
  00df6	89 4d e4	 mov	 DWORD PTR _this$[ebp], ecx

; 229  : 	// TODO: /
; 230  : 
; 231  : 	CRect rc;

  00df9	8d 4d f0	 lea	 ecx, DWORD PTR _rc$[ebp]
  00dfc	e8 00 00 00 00	 call	 ??0CRect@@QAE@XZ	; CRect::CRect

; 232  : 	GetClientRect(&rc);

  00e01	8d 45 f0	 lea	 eax, DWORD PTR _rc$[ebp]
  00e04	50		 push	 eax
  00e05	8b 4d e4	 mov	 ecx, DWORD PTR _this$[ebp]
  00e08	e8 00 00 00 00	 call	 ?GetClientRect@CWnd@@QBEXPAUtagRECT@@@Z ; CWnd::GetClientRect

; 233  : 	ClientToScreen(&rc);

  00e0d	8d 4d f0	 lea	 ecx, DWORD PTR _rc$[ebp]
  00e10	51		 push	 ecx
  00e11	8b 4d e4	 mov	 ecx, DWORD PTR _this$[ebp]
  00e14	e8 00 00 00 00	 call	 ?ClientToScreen@CWnd@@QBEXPAUtagRECT@@@Z ; CWnd::ClientToScreen

; 234  : 	rc.bottom=rc.top+29;

  00e19	8b 55 f4	 mov	 edx, DWORD PTR _rc$[ebp+4]
  00e1c	83 c2 1d	 add	 edx, 29			; 0000001dH
  00e1f	89 55 fc	 mov	 DWORD PTR _rc$[ebp+12], edx

; 235  : 	return rc.PtInRect(point)?HTCAPTION:CDialog::OnNcHitTest(point);

  00e22	8b 45 08	 mov	 eax, DWORD PTR _point$[ebp]
  00e25	89 45 e8	 mov	 DWORD PTR $T200336[ebp], eax
  00e28	8b 4d 0c	 mov	 ecx, DWORD PTR _point$[ebp+4]
  00e2b	89 4d ec	 mov	 DWORD PTR $T200336[ebp+4], ecx
  00e2e	8b 55 ec	 mov	 edx, DWORD PTR $T200336[ebp+4]
  00e31	52		 push	 edx
  00e32	8b 45 e8	 mov	 eax, DWORD PTR $T200336[ebp]
  00e35	50		 push	 eax
  00e36	8d 4d f0	 lea	 ecx, DWORD PTR _rc$[ebp]
  00e39	e8 00 00 00 00	 call	 ?PtInRect@CRect@@QBEHUtagPOINT@@@Z ; CRect::PtInRect
  00e3e	85 c0		 test	 eax, eax
  00e40	74 09		 je	 SHORT $L200337
  00e42	c7 45 e0 02 00
	00 00		 mov	 DWORD PTR tv77[ebp], 2
  00e49	eb 13		 jmp	 SHORT $L200338
$L200337:
  00e4b	8b 4d 0c	 mov	 ecx, DWORD PTR _point$[ebp+4]
  00e4e	51		 push	 ecx
  00e4f	8b 55 08	 mov	 edx, DWORD PTR _point$[ebp]
  00e52	52		 push	 edx
  00e53	8b 4d e4	 mov	 ecx, DWORD PTR _this$[ebp]
  00e56	e8 00 00 00 00	 call	 ?OnNcHitTest@CWnd@@IAEIVCPoint@@@Z ; CWnd::OnNcHitTest
  00e5b	89 45 e0	 mov	 DWORD PTR tv77[ebp], eax
$L200338:
  00e5e	8b 45 e0	 mov	 eax, DWORD PTR tv77[ebp]

; 236  : }

  00e61	8b e5		 mov	 esp, ebp
  00e63	5d		 pop	 ebp
  00e64	c2 08 00	 ret	 8
?OnNcHitTest@CMinOrExit@@QAEIVCPoint@@@Z ENDP		; CMinOrExit::OnNcHitTest
_TEXT	ENDS
EXTRN	?OnOK@CDialog@@MAEXXZ:NEAR			; CDialog::OnOK
EXTRN	?SetConfigBoolValue@AfxUserConfig@@QAEXABV?$basic_string@DU?$char_traits@D@std@@V?$allocator@D@2@@std@@0_N1@Z:NEAR ; AfxUserConfig::SetConfigBoolValue
xdata$x	SEGMENT
$T200351 DD	0ffffffffH
	DD	FLAT:$L200344
	DD	00H
	DD	FLAT:$L200345
	DD	0ffffffffH
	DD	FLAT:$L200346
	DD	02H
	DD	FLAT:$L200347
$T200349 DD	019930520H
	DD	04H
	DD	FLAT:$T200351
	DD	2 DUP(00H)
	DD	2 DUP(00H)
; Function compile flags: /Odt
xdata$x	ENDS
_TEXT	SEGMENT
_this$ = -132						; size = 4
$T200343 = -128						; size = 28
$T200342 = -100						; size = 28
$T200341 = -72						; size = 28
$T200340 = -44						; size = 28
_askexit$ = -14						; size = 1
_exitchoice$ = -13					; size = 1
__$EHRec$ = -12						; size = 12
?OnOK@CMinOrExit@@MAEXXZ PROC NEAR			; CMinOrExit::OnOK
; _this$ = ecx

; 239  : {

  00e70	55		 push	 ebp
  00e71	8b ec		 mov	 ebp, esp
  00e73	6a ff		 push	 -1
  00e75	68 00 00 00 00	 push	 __ehhandler$?OnOK@CMinOrExit@@MAEXXZ
  00e7a	64 a1 00 00 00
	00		 mov	 eax, DWORD PTR fs:__except_list
  00e80	50		 push	 eax
  00e81	64 89 25 00 00
	00 00		 mov	 DWORD PTR fs:__except_list, esp
  00e88	83 ec 78	 sub	 esp, 120		; 00000078H
  00e8b	89 8d 7c ff ff
	ff		 mov	 DWORD PTR _this$[ebp], ecx

; 240  : 	// TODO: /
; 241  : 	bool askexit,exitchoice;
; 242  : 	ShowWindow(SW_HIDE);

  00e91	6a 00		 push	 0
  00e93	8b 8d 7c ff ff
	ff		 mov	 ecx, DWORD PTR _this$[ebp]
  00e99	e8 00 00 00 00	 call	 ?ShowWindow@CWnd@@QAEHH@Z ; CWnd::ShowWindow

; 243  : 	askexit=m_chkBox;

  00e9e	8b 85 7c ff ff
	ff		 mov	 eax, DWORD PTR _this$[ebp]
  00ea4	83 b8 bc 0a 00
	00 00		 cmp	 DWORD PTR [eax+2748], 0
  00eab	0f 95 c1	 setne	 cl
  00eae	88 4d f2	 mov	 BYTE PTR _askexit$[ebp], cl

; 244  : 	exitchoice=m_chkRad;

  00eb1	8b 95 7c ff ff
	ff		 mov	 edx, DWORD PTR _this$[ebp]
  00eb7	83 ba b8 0a 00
	00 00		 cmp	 DWORD PTR [edx+2744], 0
  00ebe	0f 95 c0	 setne	 al
  00ec1	88 45 f3	 mov	 BYTE PTR _exitchoice$[ebp], al

; 245  : 	AfxGetUserConfig()->SetConfigBoolValue( CONF_SETTING_MODULE_NAME,CONF_SETTING_CONFIG_IFASKEXIT,askexit);

  00ec4	8b 0d 00 00 00
	00		 mov	 ecx, DWORD PTR _CONF_SETTING_CONFIG_IFASKEXIT
  00eca	51		 push	 ecx
  00ecb	8d 4d d4	 lea	 ecx, DWORD PTR $T200340[ebp]
  00ece	ff 15 00 00 00
	00		 call	 DWORD PTR __imp_??0?$basic_string@DU?$char_traits@D@std@@V?$allocator@D@2@@std@@QAE@PBD@Z
  00ed4	c7 45 fc 00 00
	00 00		 mov	 DWORD PTR __$EHRec$[ebp+8], 0
  00edb	8b 15 00 00 00
	00		 mov	 edx, DWORD PTR _CONF_SETTING_MODULE_NAME
  00ee1	52		 push	 edx
  00ee2	8d 4d b8	 lea	 ecx, DWORD PTR $T200341[ebp]
  00ee5	ff 15 00 00 00
	00		 call	 DWORD PTR __imp_??0?$basic_string@DU?$char_traits@D@std@@V?$allocator@D@2@@std@@QAE@PBD@Z
  00eeb	c6 45 fc 01	 mov	 BYTE PTR __$EHRec$[ebp+8], 1
  00eef	6a 00		 push	 0
  00ef1	8a 45 f2	 mov	 al, BYTE PTR _askexit$[ebp]
  00ef4	50		 push	 eax
  00ef5	8d 4d d4	 lea	 ecx, DWORD PTR $T200340[ebp]
  00ef8	51		 push	 ecx
  00ef9	8d 55 b8	 lea	 edx, DWORD PTR $T200341[ebp]
  00efc	52		 push	 edx
  00efd	e8 00 00 00 00	 call	 ?AfxGetUserConfig@@YAPAVAfxUserConfig@@XZ ; AfxGetUserConfig
  00f02	8b c8		 mov	 ecx, eax
  00f04	e8 00 00 00 00	 call	 ?SetConfigBoolValue@AfxUserConfig@@QAEXABV?$basic_string@DU?$char_traits@D@std@@V?$allocator@D@2@@std@@0_N1@Z ; AfxUserConfig::SetConfigBoolValue
  00f09	c6 45 fc 00	 mov	 BYTE PTR __$EHRec$[ebp+8], 0
  00f0d	8d 4d b8	 lea	 ecx, DWORD PTR $T200341[ebp]
  00f10	ff 15 00 00 00
	00		 call	 DWORD PTR __imp_??1?$basic_string@DU?$char_traits@D@std@@V?$allocator@D@2@@std@@QAE@XZ
  00f16	c7 45 fc ff ff
	ff ff		 mov	 DWORD PTR __$EHRec$[ebp+8], -1
  00f1d	8d 4d d4	 lea	 ecx, DWORD PTR $T200340[ebp]
  00f20	ff 15 00 00 00
	00		 call	 DWORD PTR __imp_??1?$basic_string@DU?$char_traits@D@std@@V?$allocator@D@2@@std@@QAE@XZ

; 246  : 	AfxGetUserConfig()->SetConfigBoolValue( CONF_SETTING_MODULE_NAME,CONF_SETTING_CONFIG_EXITCHOICE,exitchoice);

  00f26	a1 00 00 00 00	 mov	 eax, DWORD PTR _CONF_SETTING_CONFIG_EXITCHOICE
  00f2b	50		 push	 eax
  00f2c	8d 4d 9c	 lea	 ecx, DWORD PTR $T200342[ebp]
  00f2f	ff 15 00 00 00
	00		 call	 DWORD PTR __imp_??0?$basic_string@DU?$char_traits@D@std@@V?$allocator@D@2@@std@@QAE@PBD@Z
  00f35	c7 45 fc 02 00
	00 00		 mov	 DWORD PTR __$EHRec$[ebp+8], 2
  00f3c	8b 0d 00 00 00
	00		 mov	 ecx, DWORD PTR _CONF_SETTING_MODULE_NAME
  00f42	51		 push	 ecx
  00f43	8d 4d 80	 lea	 ecx, DWORD PTR $T200343[ebp]
  00f46	ff 15 00 00 00
	00		 call	 DWORD PTR __imp_??0?$basic_string@DU?$char_traits@D@std@@V?$allocator@D@2@@std@@QAE@PBD@Z
  00f4c	c6 45 fc 03	 mov	 BYTE PTR __$EHRec$[ebp+8], 3
  00f50	6a 00		 push	 0
  00f52	8a 55 f3	 mov	 dl, BYTE PTR _exitchoice$[ebp]
  00f55	52		 push	 edx
  00f56	8d 45 9c	 lea	 eax, DWORD PTR $T200342[ebp]
  00f59	50		 push	 eax
  00f5a	8d 4d 80	 lea	 ecx, DWORD PTR $T200343[ebp]
  00f5d	51		 push	 ecx
  00f5e	e8 00 00 00 00	 call	 ?AfxGetUserConfig@@YAPAVAfxUserConfig@@XZ ; AfxGetUserConfig
  00f63	8b c8		 mov	 ecx, eax
  00f65	e8 00 00 00 00	 call	 ?SetConfigBoolValue@AfxUserConfig@@QAEXABV?$basic_string@DU?$char_traits@D@std@@V?$allocator@D@2@@std@@0_N1@Z ; AfxUserConfig::SetConfigBoolValue
  00f6a	c6 45 fc 02	 mov	 BYTE PTR __$EHRec$[ebp+8], 2
  00f6e	8d 4d 80	 lea	 ecx, DWORD PTR $T200343[ebp]
  00f71	ff 15 00 00 00
	00		 call	 DWORD PTR __imp_??1?$basic_string@DU?$char_traits@D@std@@V?$allocator@D@2@@std@@QAE@XZ
  00f77	c7 45 fc ff ff
	ff ff		 mov	 DWORD PTR __$EHRec$[ebp+8], -1
  00f7e	8d 4d 9c	 lea	 ecx, DWORD PTR $T200342[ebp]
  00f81	ff 15 00 00 00
	00		 call	 DWORD PTR __imp_??1?$basic_string@DU?$char_traits@D@std@@V?$allocator@D@2@@std@@QAE@XZ

; 247  : 
; 248  : 	CDialog::OnOK();

  00f87	8b 8d 7c ff ff
	ff		 mov	 ecx, DWORD PTR _this$[ebp]
  00f8d	e8 00 00 00 00	 call	 ?OnOK@CDialog@@MAEXXZ	; CDialog::OnOK

; 249  : }

  00f92	8b 4d f4	 mov	 ecx, DWORD PTR __$EHRec$[ebp]
  00f95	64 89 0d 00 00
	00 00		 mov	 DWORD PTR fs:__except_list, ecx
  00f9c	8b e5		 mov	 esp, ebp
  00f9e	5d		 pop	 ebp
  00f9f	c3		 ret	 0
_TEXT	ENDS
text$x	SEGMENT
$L200344:
  0016d	8d 4d d4	 lea	 ecx, DWORD PTR $T200340[ebp]
  00170	ff 25 00 00 00
	00		 jmp	 DWORD PTR __imp_??1?$basic_string@DU?$char_traits@D@std@@V?$allocator@D@2@@std@@QAE@XZ
$L200345:
  00176	8d 4d b8	 lea	 ecx, DWORD PTR $T200341[ebp]
  00179	ff 25 00 00 00
	00		 jmp	 DWORD PTR __imp_??1?$basic_string@DU?$char_traits@D@std@@V?$allocator@D@2@@std@@QAE@XZ
$L200346:
  0017f	8d 4d 9c	 lea	 ecx, DWORD PTR $T200342[ebp]
  00182	ff 25 00 00 00
	00		 jmp	 DWORD PTR __imp_??1?$basic_string@DU?$char_traits@D@std@@V?$allocator@D@2@@std@@QAE@XZ
$L200347:
  00188	8d 4d 80	 lea	 ecx, DWORD PTR $T200343[ebp]
  0018b	ff 25 00 00 00
	00		 jmp	 DWORD PTR __imp_??1?$basic_string@DU?$char_traits@D@std@@V?$allocator@D@2@@std@@QAE@XZ
__ehhandler$?OnOK@CMinOrExit@@MAEXXZ:
  00191	b8 00 00 00 00	 mov	 eax, OFFSET FLAT:$T200349
  00196	e9 00 00 00 00	 jmp	 ___CxxFrameHandler
text$x	ENDS
?OnOK@CMinOrExit@@MAEXXZ ENDP				; CMinOrExit::OnOK
; Function compile flags: /Odt
; File d:\program files (x86)\microsoft visual studio .net 2003\vc7\atlmfc\include\atltypes.inl
;	COMDAT ??0CRect@@QAE@XZ
_TEXT	SEGMENT
_this$ = -4						; size = 4
??0CRect@@QAE@XZ PROC NEAR				; CRect::CRect, COMDAT
; _this$ = ecx

; 110  : 	{ /* random filled */ }

  00000	55		 push	 ebp
  00001	8b ec		 mov	 ebp, esp
  00003	51		 push	 ecx
  00004	89 4d fc	 mov	 DWORD PTR _this$[ebp], ecx
  00007	8b 45 fc	 mov	 eax, DWORD PTR _this$[ebp]
  0000a	8b e5		 mov	 esp, ebp
  0000c	5d		 pop	 ebp
  0000d	c3		 ret	 0
??0CRect@@QAE@XZ ENDP					; CRect::CRect
; Function compile flags: /Odt
_TEXT	ENDS
;	COMDAT ??0CRect@@QAE@HHHH@Z
_TEXT	SEGMENT
_this$ = -4						; size = 4
_l$ = 8							; size = 4
_t$ = 12						; size = 4
_r$ = 16						; size = 4
_b$ = 20						; size = 4
??0CRect@@QAE@HHHH@Z PROC NEAR				; CRect::CRect, COMDAT
; _this$ = ecx

; 112  : 	{ left = l; top = t; right = r; bottom = b; }

  00000	55		 push	 ebp
  00001	8b ec		 mov	 ebp, esp
  00003	51		 push	 ecx
  00004	89 4d fc	 mov	 DWORD PTR _this$[ebp], ecx
  00007	8b 45 fc	 mov	 eax, DWORD PTR _this$[ebp]
  0000a	8b 4d 08	 mov	 ecx, DWORD PTR _l$[ebp]
  0000d	89 08		 mov	 DWORD PTR [eax], ecx
  0000f	8b 55 fc	 mov	 edx, DWORD PTR _this$[ebp]
  00012	8b 45 0c	 mov	 eax, DWORD PTR _t$[ebp]
  00015	89 42 04	 mov	 DWORD PTR [edx+4], eax
  00018	8b 4d fc	 mov	 ecx, DWORD PTR _this$[ebp]
  0001b	8b 55 10	 mov	 edx, DWORD PTR _r$[ebp]
  0001e	89 51 08	 mov	 DWORD PTR [ecx+8], edx
  00021	8b 45 fc	 mov	 eax, DWORD PTR _this$[ebp]
  00024	8b 4d 14	 mov	 ecx, DWORD PTR _b$[ebp]
  00027	89 48 0c	 mov	 DWORD PTR [eax+12], ecx
  0002a	8b 45 fc	 mov	 eax, DWORD PTR _this$[ebp]
  0002d	8b e5		 mov	 esp, ebp
  0002f	5d		 pop	 ebp
  00030	c2 10 00	 ret	 16			; 00000010H
??0CRect@@QAE@HHHH@Z ENDP				; CRect::CRect
; Function compile flags: /Odt
_TEXT	ENDS
;	COMDAT ??BCRect@@QAEPAUtagRECT@@XZ
_TEXT	SEGMENT
_this$ = -4						; size = 4
??BCRect@@QAEPAUtagRECT@@XZ PROC NEAR			; CRect::operator tagRECT *, COMDAT
; _this$ = ecx

; 143  : 	{ return this; }

  00000	55		 push	 ebp
  00001	8b ec		 mov	 ebp, esp
  00003	51		 push	 ecx
  00004	89 4d fc	 mov	 DWORD PTR _this$[ebp], ecx
  00007	8b 45 fc	 mov	 eax, DWORD PTR _this$[ebp]
  0000a	8b e5		 mov	 esp, ebp
  0000c	5d		 pop	 ebp
  0000d	c3		 ret	 0
??BCRect@@QAEPAUtagRECT@@XZ ENDP			; CRect::operator tagRECT *
; Function compile flags: /Odt
_TEXT	ENDS
;	COMDAT ?PtInRect@CRect@@QBEHUtagPOINT@@@Z
_TEXT	SEGMENT
_this$ = -4						; size = 4
_point$ = 8						; size = 8
?PtInRect@CRect@@QBEHUtagPOINT@@@Z PROC NEAR		; CRect::PtInRect, COMDAT
; _this$ = ecx

; 151  : 	{ return ::PtInRect(this, point); }

  00000	55		 push	 ebp
  00001	8b ec		 mov	 ebp, esp
  00003	51		 push	 ecx
  00004	89 4d fc	 mov	 DWORD PTR _this$[ebp], ecx
  00007	8b 45 0c	 mov	 eax, DWORD PTR _point$[ebp+4]
  0000a	50		 push	 eax
  0000b	8b 4d 08	 mov	 ecx, DWORD PTR _point$[ebp]
  0000e	51		 push	 ecx
  0000f	8b 55 fc	 mov	 edx, DWORD PTR _this$[ebp]
  00012	52		 push	 edx
  00013	ff 15 00 00 00
	00		 call	 DWORD PTR __imp__PtInRect@12
  00019	8b e5		 mov	 esp, ebp
  0001b	5d		 pop	 ebp
  0001c	c2 08 00	 ret	 8
?PtInRect@CRect@@QBEHUtagPOINT@@@Z ENDP			; CRect::PtInRect
; Function compile flags: /Odt
; File d:\program files (x86)\microsoft visual studio .net 2003\vc7\atlmfc\include\afx.inl
_TEXT	ENDS
;	COMDAT ?Serialize@CObject@@UAEXAAVCArchive@@@Z
_TEXT	SEGMENT
_this$ = -4						; size = 4
___formal$ = 8						; size = 4
?Serialize@CObject@@UAEXAAVCArchive@@@Z PROC NEAR	; CObject::Serialize, COMDAT
; _this$ = ecx

; 25   : 	{ /* CObject does not serialize anything by default */ }

  00000	55		 push	 ebp
  00001	8b ec		 mov	 ebp, esp
  00003	51		 push	 ecx
  00004	89 4d fc	 mov	 DWORD PTR _this$[ebp], ecx
  00007	8b e5		 mov	 esp, ebp
  00009	5d		 pop	 ebp
  0000a	c2 04 00	 ret	 4
?Serialize@CObject@@UAEXAAVCArchive@@@Z ENDP		; CObject::Serialize
_TEXT	ENDS
EXTRN	??3@YAXPAX@Z:NEAR				; operator delete
; Function compile flags: /Odt
;	COMDAT ??3CObject@@SGXPAX@Z
_TEXT	SEGMENT
_p$ = 8							; size = 4
??3CObject@@SGXPAX@Z PROC NEAR				; CObject::operator delete, COMDAT

; 31   : 	{ ::operator delete(p); }

  00000	55		 push	 ebp
  00001	8b ec		 mov	 ebp, esp
  00003	8b 45 08	 mov	 eax, DWORD PTR _p$[ebp]
  00006	50		 push	 eax
  00007	e8 00 00 00 00	 call	 ??3@YAXPAX@Z		; operator delete
  0000c	83 c4 04	 add	 esp, 4
  0000f	5d		 pop	 ebp
  00010	c2 04 00	 ret	 4
??3CObject@@SGXPAX@Z ENDP				; CObject::operator delete
; Function compile flags: /Odt
_TEXT	ENDS
;	COMDAT ?AssertValid@CObject@@UBEXXZ
_TEXT	SEGMENT
_this$ = -4						; size = 4
?AssertValid@CObject@@UBEXXZ PROC NEAR			; CObject::AssertValid, COMDAT
; _this$ = ecx

; 41   : 	{ /* no asserts in release builds */ }

  00000	55		 push	 ebp
  00001	8b ec		 mov	 ebp, esp
  00003	51		 push	 ecx
  00004	89 4d fc	 mov	 DWORD PTR _this$[ebp], ecx
  00007	8b e5		 mov	 esp, ebp
  00009	5d		 pop	 ebp
  0000a	c3		 ret	 0
?AssertValid@CObject@@UBEXXZ ENDP			; CObject::AssertValid
; Function compile flags: /Odt
_TEXT	ENDS
;	COMDAT ?Dump@CObject@@UBEXAAVCDumpContext@@@Z
_TEXT	SEGMENT
_this$ = -4						; size = 4
___formal$ = 8						; size = 4
?Dump@CObject@@UBEXAAVCDumpContext@@@Z PROC NEAR	; CObject::Dump, COMDAT
; _this$ = ecx

; 43   : 	{ /* no dumping in release builds */ }

  00000	55		 push	 ebp
  00001	8b ec		 mov	 ebp, esp
  00003	51		 push	 ecx
  00004	89 4d fc	 mov	 DWORD PTR _this$[ebp], ecx
  00007	8b e5		 mov	 esp, ebp
  00009	5d		 pop	 ebp
  0000a	c2 04 00	 ret	 4
?Dump@CObject@@UBEXAAVCDumpContext@@@Z ENDP		; CObject::Dump
_TEXT	ENDS
EXTRN	?MoveWindow@CWnd@@QAEXHHHHH@Z:NEAR		; CWnd::MoveWindow
; Function compile flags: /Odt
; File d:\program files (x86)\microsoft visual studio .net 2003\vc7\atlmfc\include\afxwin2.inl
;	COMDAT ?MoveWindow@CWnd@@QAEXPBUtagRECT@@H@Z
_TEXT	SEGMENT
_this$ = -4						; size = 4
_lpRect$ = 8						; size = 4
_bRepaint$ = 12						; size = 4
?MoveWindow@CWnd@@QAEXPBUtagRECT@@H@Z PROC NEAR		; CWnd::MoveWindow, COMDAT
; _this$ = ecx

; 89   : 	{ MoveWindow(lpRect->left, lpRect->top, lpRect->right - lpRect->left,

  00000	55		 push	 ebp
  00001	8b ec		 mov	 ebp, esp
  00003	51		 push	 ecx
  00004	89 4d fc	 mov	 DWORD PTR _this$[ebp], ecx

; 90   : 		lpRect->bottom - lpRect->top, bRepaint); }

  00007	8b 45 0c	 mov	 eax, DWORD PTR _bRepaint$[ebp]
  0000a	50		 push	 eax
  0000b	8b 4d 08	 mov	 ecx, DWORD PTR _lpRect$[ebp]
  0000e	8b 55 08	 mov	 edx, DWORD PTR _lpRect$[ebp]
  00011	8b 41 0c	 mov	 eax, DWORD PTR [ecx+12]
  00014	2b 42 04	 sub	 eax, DWORD PTR [edx+4]
  00017	50		 push	 eax
  00018	8b 4d 08	 mov	 ecx, DWORD PTR _lpRect$[ebp]
  0001b	8b 55 08	 mov	 edx, DWORD PTR _lpRect$[ebp]
  0001e	8b 41 08	 mov	 eax, DWORD PTR [ecx+8]
  00021	2b 02		 sub	 eax, DWORD PTR [edx]
  00023	50		 push	 eax
  00024	8b 4d 08	 mov	 ecx, DWORD PTR _lpRect$[ebp]
  00027	8b 51 04	 mov	 edx, DWORD PTR [ecx+4]
  0002a	52		 push	 edx
  0002b	8b 45 08	 mov	 eax, DWORD PTR _lpRect$[ebp]
  0002e	8b 08		 mov	 ecx, DWORD PTR [eax]
  00030	51		 push	 ecx
  00031	8b 4d fc	 mov	 ecx, DWORD PTR _this$[ebp]
  00034	e8 00 00 00 00	 call	 ?MoveWindow@CWnd@@QAEXHHHHH@Z ; CWnd::MoveWindow
  00039	8b e5		 mov	 esp, ebp
  0003b	5d		 pop	 ebp
  0003c	c2 08 00	 ret	 8
?MoveWindow@CWnd@@QAEXPBUtagRECT@@H@Z ENDP		; CWnd::MoveWindow
_TEXT	ENDS
EXTRN	__imp__SetWindowRgn@12:NEAR
; Function compile flags: /Odt
;	COMDAT ?SetWindowRgn@CWnd@@QAEHPAUHRGN__@@H@Z
_TEXT	SEGMENT
_this$ = -4						; size = 4
_hRgn$ = 8						; size = 4
_bRedraw$ = 12						; size = 4
?SetWindowRgn@CWnd@@QAEHPAUHRGN__@@H@Z PROC NEAR	; CWnd::SetWindowRgn, COMDAT
; _this$ = ecx

; 99   : 	{ ASSERT(::IsWindow(m_hWnd)); return ::SetWindowRgn(m_hWnd, hRgn, bRedraw); }

  00000	55		 push	 ebp
  00001	8b ec		 mov	 ebp, esp
  00003	51		 push	 ecx
  00004	89 4d fc	 mov	 DWORD PTR _this$[ebp], ecx
  00007	8b 45 0c	 mov	 eax, DWORD PTR _bRedraw$[ebp]
  0000a	50		 push	 eax
  0000b	8b 4d 08	 mov	 ecx, DWORD PTR _hRgn$[ebp]
  0000e	51		 push	 ecx
  0000f	8b 55 fc	 mov	 edx, DWORD PTR _this$[ebp]
  00012	8b 42 20	 mov	 eax, DWORD PTR [edx+32]
  00015	50		 push	 eax
  00016	ff 15 00 00 00
	00		 call	 DWORD PTR __imp__SetWindowRgn@12
  0001c	8b e5		 mov	 esp, ebp
  0001e	5d		 pop	 ebp
  0001f	c2 08 00	 ret	 8
?SetWindowRgn@CWnd@@QAEHPAUHRGN__@@H@Z ENDP		; CWnd::SetWindowRgn
_TEXT	ENDS
EXTRN	__imp__GetWindowRect@8:NEAR
; Function compile flags: /Odt
;	COMDAT ?GetWindowRect@CWnd@@QBEXPAUtagRECT@@@Z
_TEXT	SEGMENT
_this$ = -4						; size = 4
_lpRect$ = 8						; size = 4
?GetWindowRect@CWnd@@QBEXPAUtagRECT@@@Z PROC NEAR	; CWnd::GetWindowRect, COMDAT
; _this$ = ecx

; 105  : 	{ ASSERT(::IsWindow(m_hWnd)); ::GetWindowRect(m_hWnd, lpRect); }

  00000	55		 push	 ebp
  00001	8b ec		 mov	 ebp, esp
  00003	51		 push	 ecx
  00004	89 4d fc	 mov	 DWORD PTR _this$[ebp], ecx
  00007	8b 45 08	 mov	 eax, DWORD PTR _lpRect$[ebp]
  0000a	50		 push	 eax
  0000b	8b 4d fc	 mov	 ecx, DWORD PTR _this$[ebp]
  0000e	8b 51 20	 mov	 edx, DWORD PTR [ecx+32]
  00011	52		 push	 edx
  00012	ff 15 00 00 00
	00		 call	 DWORD PTR __imp__GetWindowRect@8
  00018	8b e5		 mov	 esp, ebp
  0001a	5d		 pop	 ebp
  0001b	c2 04 00	 ret	 4
?GetWindowRect@CWnd@@QBEXPAUtagRECT@@@Z ENDP		; CWnd::GetWindowRect
_TEXT	ENDS
EXTRN	__imp__GetClientRect@8:NEAR
; Function compile flags: /Odt
;	COMDAT ?GetClientRect@CWnd@@QBEXPAUtagRECT@@@Z
_TEXT	SEGMENT
_this$ = -4						; size = 4
_lpRect$ = 8						; size = 4
?GetClientRect@CWnd@@QBEXPAUtagRECT@@@Z PROC NEAR	; CWnd::GetClientRect, COMDAT
; _this$ = ecx

; 107  : 	{ ASSERT(::IsWindow(m_hWnd)); ::GetClientRect(m_hWnd, lpRect); }

  00000	55		 push	 ebp
  00001	8b ec		 mov	 ebp, esp
  00003	51		 push	 ecx
  00004	89 4d fc	 mov	 DWORD PTR _this$[ebp], ecx
  00007	8b 45 08	 mov	 eax, DWORD PTR _lpRect$[ebp]
  0000a	50		 push	 eax
  0000b	8b 4d fc	 mov	 ecx, DWORD PTR _this$[ebp]
  0000e	8b 51 20	 mov	 edx, DWORD PTR [ecx+32]
  00011	52		 push	 edx
  00012	ff 15 00 00 00
	00		 call	 DWORD PTR __imp__GetClientRect@8
  00018	8b e5		 mov	 esp, ebp
  0001a	5d		 pop	 ebp
  0001b	c2 04 00	 ret	 4
?GetClientRect@CWnd@@QBEXPAUtagRECT@@@Z ENDP		; CWnd::GetClientRect
_TEXT	ENDS
EXTRN	__imp__GetParent@4:NEAR
EXTRN	?FromHandle@CWnd@@SGPAV1@PAUHWND__@@@Z:NEAR	; CWnd::FromHandle
; Function compile flags: /Odt
;	COMDAT ?GetParent@CWnd@@QBEPAV1@XZ
_TEXT	SEGMENT
_this$ = -4						; size = 4
?GetParent@CWnd@@QBEPAV1@XZ PROC NEAR			; CWnd::GetParent, COMDAT
; _this$ = ecx

; 282  : 	{ ASSERT(::IsWindow(m_hWnd)); return CWnd::FromHandle(::GetParent(m_hWnd)); }

  00000	55		 push	 ebp
  00001	8b ec		 mov	 ebp, esp
  00003	51		 push	 ecx
  00004	89 4d fc	 mov	 DWORD PTR _this$[ebp], ecx
  00007	8b 45 fc	 mov	 eax, DWORD PTR _this$[ebp]
  0000a	8b 48 20	 mov	 ecx, DWORD PTR [eax+32]
  0000d	51		 push	 ecx
  0000e	ff 15 00 00 00
	00		 call	 DWORD PTR __imp__GetParent@4
  00014	50		 push	 eax
  00015	e8 00 00 00 00	 call	 ?FromHandle@CWnd@@SGPAV1@PAUHWND__@@@Z ; CWnd::FromHandle
  0001a	8b e5		 mov	 esp, ebp
  0001c	5d		 pop	 ebp
  0001d	c3		 ret	 0
?GetParent@CWnd@@QBEPAV1@XZ ENDP			; CWnd::GetParent
_TEXT	ENDS
EXTRN	?Default@CWnd@@IAEJXZ:NEAR			; CWnd::Default
; Function compile flags: /Odt
;	COMDAT ?OnNcHitTest@CWnd@@IAEIVCPoint@@@Z
_TEXT	SEGMENT
_this$ = -4						; size = 4
___formal$ = 8						; size = 8
?OnNcHitTest@CWnd@@IAEIVCPoint@@@Z PROC NEAR		; CWnd::OnNcHitTest, COMDAT
; _this$ = ecx

; 410  : 	{ return (UINT)Default(); }

  00000	55		 push	 ebp
  00001	8b ec		 mov	 ebp, esp
  00003	51		 push	 ecx
  00004	89 4d fc	 mov	 DWORD PTR _this$[ebp], ecx
  00007	8b 4d fc	 mov	 ecx, DWORD PTR _this$[ebp]
  0000a	e8 00 00 00 00	 call	 ?Default@CWnd@@IAEJXZ	; CWnd::Default
  0000f	8b e5		 mov	 esp, ebp
  00011	5d		 pop	 ebp
  00012	c2 08 00	 ret	 8
?OnNcHitTest@CWnd@@IAEIVCPoint@@@Z ENDP			; CWnd::OnNcHitTest
; Function compile flags: /Odt
_TEXT	ENDS
;	COMDAT ?OnLButtonUp@CWnd@@IAEXIVCPoint@@@Z
_TEXT	SEGMENT
_this$ = -4						; size = 4
___formal$ = 8						; size = 4
___formal$ = 12						; size = 8
?OnLButtonUp@CWnd@@IAEXIVCPoint@@@Z PROC NEAR		; CWnd::OnLButtonUp, COMDAT
; _this$ = ecx

; 466  : 	{ Default(); }

  00000	55		 push	 ebp
  00001	8b ec		 mov	 ebp, esp
  00003	51		 push	 ecx
  00004	89 4d fc	 mov	 DWORD PTR _this$[ebp], ecx
  00007	8b 4d fc	 mov	 ecx, DWORD PTR _this$[ebp]
  0000a	e8 00 00 00 00	 call	 ?Default@CWnd@@IAEJXZ	; CWnd::Default
  0000f	8b e5		 mov	 esp, ebp
  00011	5d		 pop	 ebp
  00012	c2 0c 00	 ret	 12			; 0000000cH
?OnLButtonUp@CWnd@@IAEXIVCPoint@@@Z ENDP		; CWnd::OnLButtonUp
; Function compile flags: /Odt
_TEXT	ENDS
;	COMDAT ?DoDataExchange@CWnd@@MAEXPAVCDataExchange@@@Z
_TEXT	SEGMENT
_this$ = -4						; size = 4
___formal$ = 8						; size = 4
?DoDataExchange@CWnd@@MAEXPAVCDataExchange@@@Z PROC NEAR ; CWnd::DoDataExchange, COMDAT
; _this$ = ecx

; 545  : 	{ } // default does nothing

  00000	55		 push	 ebp
  00001	8b ec		 mov	 ebp, esp
  00003	51		 push	 ecx
  00004	89 4d fc	 mov	 DWORD PTR _this$[ebp], ecx
  00007	8b e5		 mov	 esp, ebp
  00009	5d		 pop	 ebp
  0000a	c2 04 00	 ret	 4
?DoDataExchange@CWnd@@MAEXPAVCDataExchange@@@Z ENDP	; CWnd::DoDataExchange
_TEXT	ENDS
EXTRN	__imp__EnableWindow@8:NEAR
; Function compile flags: /Odt
;	COMDAT ?BeginModalState@CWnd@@UAEXXZ
_TEXT	SEGMENT
_this$ = -4						; size = 4
?BeginModalState@CWnd@@UAEXXZ PROC NEAR			; CWnd::BeginModalState, COMDAT
; _this$ = ecx

; 549  : 	{ ::EnableWindow(m_hWnd, FALSE); }

  00000	55		 push	 ebp
  00001	8b ec		 mov	 ebp, esp
  00003	51		 push	 ecx
  00004	89 4d fc	 mov	 DWORD PTR _this$[ebp], ecx
  00007	6a 00		 push	 0
  00009	8b 45 fc	 mov	 eax, DWORD PTR _this$[ebp]
  0000c	8b 48 20	 mov	 ecx, DWORD PTR [eax+32]
  0000f	51		 push	 ecx
  00010	ff 15 00 00 00
	00		 call	 DWORD PTR __imp__EnableWindow@8
  00016	8b e5		 mov	 esp, ebp
  00018	5d		 pop	 ebp
  00019	c3		 ret	 0
?BeginModalState@CWnd@@UAEXXZ ENDP			; CWnd::BeginModalState
; Function compile flags: /Odt
_TEXT	ENDS
;	COMDAT ?EndModalState@CWnd@@UAEXXZ
_TEXT	SEGMENT
_this$ = -4						; size = 4
?EndModalState@CWnd@@UAEXXZ PROC NEAR			; CWnd::EndModalState, COMDAT
; _this$ = ecx

; 551  : 	{ ::EnableWindow(m_hWnd, TRUE); }

  00000	55		 push	 ebp
  00001	8b ec		 mov	 ebp, esp
  00003	51		 push	 ecx
  00004	89 4d fc	 mov	 DWORD PTR _this$[ebp], ecx
  00007	6a 01		 push	 1
  00009	8b 45 fc	 mov	 eax, DWORD PTR _this$[ebp]
  0000c	8b 48 20	 mov	 ecx, DWORD PTR [eax+32]
  0000f	51		 push	 ecx
  00010	ff 15 00 00 00
	00		 call	 DWORD PTR __imp__EnableWindow@8
  00016	8b e5		 mov	 esp, ebp
  00018	5d		 pop	 ebp
  00019	c3		 ret	 0
?EndModalState@CWnd@@UAEXXZ ENDP			; CWnd::EndModalState
; Function compile flags: /Odt
_TEXT	ENDS
;	COMDAT ?Create@CDialog@@UAEHIPAVCWnd@@@Z
_TEXT	SEGMENT
_this$ = -4						; size = 4
_nIDTemplate$ = 8					; size = 4
_pParentWnd$ = 12					; size = 4
?Create@CDialog@@UAEHIPAVCWnd@@@Z PROC NEAR		; CDialog::Create, COMDAT
; _this$ = ecx

; 569  : 	{ return Create(MAKEINTRESOURCE(nIDTemplate), pParentWnd); }

  00000	55		 push	 ebp
  00001	8b ec		 mov	 ebp, esp
  00003	51		 push	 ecx
  00004	89 4d fc	 mov	 DWORD PTR _this$[ebp], ecx
  00007	8b 45 0c	 mov	 eax, DWORD PTR _pParentWnd$[ebp]
  0000a	50		 push	 eax
  0000b	0f b7 4d 08	 movzx	 ecx, WORD PTR _nIDTemplate$[ebp]
  0000f	51		 push	 ecx
  00010	8b 55 fc	 mov	 edx, DWORD PTR _this$[ebp]
  00013	8b 02		 mov	 eax, DWORD PTR [edx]
  00015	8b 4d fc	 mov	 ecx, DWORD PTR _this$[ebp]
  00018	ff 90 3c 01 00
	00		 call	 DWORD PTR [eax+316]
  0001e	8b e5		 mov	 esp, ebp
  00020	5d		 pop	 ebp
  00021	c2 08 00	 ret	 8
?Create@CDialog@@UAEHIPAVCWnd@@@Z ENDP			; CDialog::Create
_TEXT	ENDS
CRT$XCU	SEGMENT
_$S6	DD	FLAT:_$E5
; Function compile flags: /Odt
; File d:\boxgit\playbox\playbox\dev\prj\playbox\src\appconfig\config\configsettingdef.h
CRT$XCU	ENDS
;	COMDAT _$E5
text$yc	SEGMENT
_$E5	PROC NEAR					; COMDAT

; 25   : 	CONF_SETTING_SKIN_IDX,				TYPE_CONFIG_STR,

  00000	55		 push	 ebp
  00001	8b ec		 mov	 ebp, esp
  00003	a1 00 00 00 00	 mov	 eax, DWORD PTR _CONF_SETTING_SKIN_IDX
  00008	a3 00 00 00 00	 mov	 DWORD PTR _CONF_SETTING, eax
  0000d	8b 0d 00 00 00
	00		 mov	 ecx, DWORD PTR _TYPE_CONFIG_STR
  00013	89 0d 04 00 00
	00		 mov	 DWORD PTR _CONF_SETTING+4, ecx

; 26   : 	CONF_SETTING_CONFIG_MAIN_PAGE,		TYPE_CONFIG_STR,

  00019	8b 15 00 00 00
	00		 mov	 edx, DWORD PTR _CONF_SETTING_CONFIG_MAIN_PAGE
  0001f	89 15 08 00 00
	00		 mov	 DWORD PTR _CONF_SETTING+8, edx
  00025	a1 00 00 00 00	 mov	 eax, DWORD PTR _TYPE_CONFIG_STR
  0002a	a3 0c 00 00 00	 mov	 DWORD PTR _CONF_SETTING+12, eax

; 27   : 	CONF_SETTING_CONFIG_PROBLEM_REPORT,	TYPE_CONFIG_STR,

  0002f	8b 0d 00 00 00
	00		 mov	 ecx, DWORD PTR _CONF_SETTING_CONFIG_PROBLEM_REPORT
  00035	89 0d 10 00 00
	00		 mov	 DWORD PTR _CONF_SETTING+16, ecx
  0003b	8b 15 00 00 00
	00		 mov	 edx, DWORD PTR _TYPE_CONFIG_STR
  00041	89 15 14 00 00
	00		 mov	 DWORD PTR _CONF_SETTING+20, edx

; 28   : 	CONF_SETTING_CONFIG_HOME_PAGE,		TYPE_CONFIG_STR,

  00047	a1 00 00 00 00	 mov	 eax, DWORD PTR _CONF_SETTING_CONFIG_HOME_PAGE
  0004c	a3 18 00 00 00	 mov	 DWORD PTR _CONF_SETTING+24, eax
  00051	8b 0d 00 00 00
	00		 mov	 ecx, DWORD PTR _TYPE_CONFIG_STR
  00057	89 0d 1c 00 00
	00		 mov	 DWORD PTR _CONF_SETTING+28, ecx

; 29   : 	CONF_SETTING_CONFIG_IFASKEXIT,		TYPE_CONFIG_BOOL,

  0005d	8b 15 00 00 00
	00		 mov	 edx, DWORD PTR _CONF_SETTING_CONFIG_IFASKEXIT
  00063	89 15 20 00 00
	00		 mov	 DWORD PTR _CONF_SETTING+32, edx
  00069	a1 00 00 00 00	 mov	 eax, DWORD PTR _TYPE_CONFIG_BOOL
  0006e	a3 24 00 00 00	 mov	 DWORD PTR _CONF_SETTING+36, eax

; 30   : 	CONF_SETTING_CONFIG_EXITCHOICE,		TYPE_CONFIG_BOOL,

  00073	8b 0d 00 00 00
	00		 mov	 ecx, DWORD PTR _CONF_SETTING_CONFIG_EXITCHOICE
  00079	89 0d 28 00 00
	00		 mov	 DWORD PTR _CONF_SETTING+40, ecx
  0007f	8b 15 00 00 00
	00		 mov	 edx, DWORD PTR _TYPE_CONFIG_BOOL
  00085	89 15 2c 00 00
	00		 mov	 DWORD PTR _CONF_SETTING+44, edx

; 31   : 	CONF_SETTING_LOGIN_USER_NAME,		TYPE_CONFIG_STR,

  0008b	a1 00 00 00 00	 mov	 eax, DWORD PTR _CONF_SETTING_LOGIN_USER_NAME
  00090	a3 30 00 00 00	 mov	 DWORD PTR _CONF_SETTING+48, eax
  00095	8b 0d 00 00 00
	00		 mov	 ecx, DWORD PTR _TYPE_CONFIG_STR
  0009b	89 0d 34 00 00
	00		 mov	 DWORD PTR _CONF_SETTING+52, ecx

; 32   : 	CONF_SETTING_LOGIN_PASSWORD,		TYPE_CONFIG_STR,

  000a1	8b 15 00 00 00
	00		 mov	 edx, DWORD PTR _CONF_SETTING_LOGIN_PASSWORD
  000a7	89 15 38 00 00
	00		 mov	 DWORD PTR _CONF_SETTING+56, edx
  000ad	a1 00 00 00 00	 mov	 eax, DWORD PTR _TYPE_CONFIG_STR
  000b2	a3 3c 00 00 00	 mov	 DWORD PTR _CONF_SETTING+60, eax

; 33   : 	CONF_SETTING_NETID,					TYPE_CONFIG_STR,

  000b7	8b 0d 00 00 00
	00		 mov	 ecx, DWORD PTR _CONF_SETTING_NETID
  000bd	89 0d 40 00 00
	00		 mov	 DWORD PTR _CONF_SETTING+64, ecx
  000c3	8b 15 00 00 00
	00		 mov	 edx, DWORD PTR _TYPE_CONFIG_STR
  000c9	89 15 44 00 00
	00		 mov	 DWORD PTR _CONF_SETTING+68, edx

; 34   : 	CONF_SETTING_COLOR,					TYPE_CONFIG_INT,

  000cf	a1 00 00 00 00	 mov	 eax, DWORD PTR _CONF_SETTING_COLOR
  000d4	a3 48 00 00 00	 mov	 DWORD PTR _CONF_SETTING+72, eax
  000d9	8b 0d 00 00 00
	00		 mov	 ecx, DWORD PTR _TYPE_CONFIG_INT
  000df	89 0d 4c 00 00
	00		 mov	 DWORD PTR _CONF_SETTING+76, ecx

; 35   : 	CONF_SETTING_LIGHT,					TYPE_CONFIG_INT,

  000e5	8b 15 00 00 00
	00		 mov	 edx, DWORD PTR _CONF_SETTING_LIGHT
  000eb	89 15 50 00 00
	00		 mov	 DWORD PTR _CONF_SETTING+80, edx
  000f1	a1 00 00 00 00	 mov	 eax, DWORD PTR _TYPE_CONFIG_INT
  000f6	a3 54 00 00 00	 mov	 DWORD PTR _CONF_SETTING+84, eax

; 36   : 	CONF_SETTING_COLOR_BTN_INDEX,		TYPE_CONFIG_INT,

  000fb	8b 0d 00 00 00
	00		 mov	 ecx, DWORD PTR _CONF_SETTING_COLOR_BTN_INDEX
  00101	89 0d 58 00 00
	00		 mov	 DWORD PTR _CONF_SETTING+88, ecx
  00107	8b 15 00 00 00
	00		 mov	 edx, DWORD PTR _TYPE_CONFIG_INT
  0010d	89 15 5c 00 00
	00		 mov	 DWORD PTR _CONF_SETTING+92, edx

; 37   : 	CONF_SETTING_COLOR_USER,			TYPE_CONFIG_INT,

  00113	a1 00 00 00 00	 mov	 eax, DWORD PTR _CONF_SETTING_COLOR_USER
  00118	a3 60 00 00 00	 mov	 DWORD PTR _CONF_SETTING+96, eax
  0011d	8b 0d 00 00 00
	00		 mov	 ecx, DWORD PTR _TYPE_CONFIG_INT
  00123	89 0d 64 00 00
	00		 mov	 DWORD PTR _CONF_SETTING+100, ecx

; 38   : 	CONF_SETTING_FIRST_TIME_CHANGESKIN, TYPE_CONFIG_BOOL

  00129	8b 15 00 00 00
	00		 mov	 edx, DWORD PTR _CONF_SETTING_FIRST_TIME_CHANGESKIN
  0012f	89 15 68 00 00
	00		 mov	 DWORD PTR _CONF_SETTING+104, edx

; 39   : };

  00135	a1 00 00 00 00	 mov	 eax, DWORD PTR _TYPE_CONFIG_BOOL
  0013a	a3 6c 00 00 00	 mov	 DWORD PTR _CONF_SETTING+108, eax
  0013f	5d		 pop	 ebp
  00140	c3		 ret	 0
_$E5	ENDP
text$yc	ENDS
_BSS	SEGMENT
_CONF_SETTING DD 01cH DUP (?)
_BSS	ENDS
END
