; Listing generated by Microsoft (R) Optimizing Compiler Version 13.10.3077 

	TITLE	.\src\util\Mixer.cpp
	.386P
include listing.inc
if @Version gt 510
.model FLAT
else
_TEXT	SEGMENT PARA USE32 PUBLIC 'CODE'
_TEXT	ENDS
_DATA	SEGMENT DWORD USE32 PUBLIC 'DATA'
_DATA	ENDS
CONST	SEGMENT DWORD USE32 PUBLIC 'CONST'
CONST	ENDS
_BSS	SEGMENT DWORD USE32 PUBLIC 'BSS'
_BSS	ENDS
$$SYMBOLS	SEGMENT BYTE USE32 'DEBSYM'
$$SYMBOLS	ENDS
$$TYPES	SEGMENT BYTE USE32 'DEBTYP'
$$TYPES	ENDS
_TLS	SEGMENT DWORD USE32 PUBLIC 'TLS'
_TLS	ENDS
rdata$r	SEGMENT DWORD USE32 PUBLIC 'CONST'
rdata$r	ENDS
xdata$x	SEGMENT DWORD USE32 PUBLIC 'CONST'
xdata$x	ENDS
text$AFX_COL1	SEGMENT PARA USE32 PUBLIC ''
text$AFX_COL1	ENDS
text$yc	SEGMENT PARA USE32 PUBLIC 'CODE'
text$yc	ENDS
CRT$XCA	SEGMENT DWORD USE32 PUBLIC 'DATA'
CRT$XCA	ENDS
CRT$XCU	SEGMENT DWORD USE32 PUBLIC 'DATA'
CRT$XCU	ENDS
CRT$XCL	SEGMENT DWORD USE32 PUBLIC 'DATA'
CRT$XCL	ENDS
CRT$XCC	SEGMENT DWORD USE32 PUBLIC 'DATA'
CRT$XCC	ENDS
CRT$XCZ	SEGMENT DWORD USE32 PUBLIC 'DATA'
CRT$XCZ	ENDS
text$yd	SEGMENT PARA USE32 PUBLIC 'CODE'
text$yd	ENDS
ATL$__m	SEGMENT DWORD USE32 PUBLIC ''
ATL$__m	ENDS
ATL$__z	SEGMENT DWORD USE32 PUBLIC ''
ATL$__z	ENDS
ATL$__a	SEGMENT DWORD USE32 PUBLIC ''
ATL$__a	ENDS
;	COMDAT ??_GCMixer@@UAEPAXI@Z
_TEXT	SEGMENT PARA USE32 PUBLIC 'CODE'
_TEXT	ENDS
;	COMDAT ??B?$CComPtrBase@UITypeInfo2@@@ATL@@QBEPAUITypeInfo2@@XZ
_TEXT	SEGMENT PARA USE32 PUBLIC 'CODE'
_TEXT	ENDS
;	COMDAT ?equal@?$istreambuf_iterator@DU?$char_traits@D@std@@@std@@QBE_NABV12@@Z
_TEXT	SEGMENT PARA USE32 PUBLIC 'CODE'
_TEXT	ENDS
;	COMDAT ?equal@?$istreambuf_iterator@_WU?$char_traits@_W@std@@@std@@QBE_NABV12@@Z
_TEXT	SEGMENT PARA USE32 PUBLIC 'CODE'
_TEXT	ENDS
;	COMDAT ?Unlock@?$CComCritSecLock@VCComCriticalSection@ATL@@@ATL@@QAEXXZ
_TEXT	SEGMENT PARA USE32 PUBLIC 'CODE'
_TEXT	ENDS
;	COMDAT ??$_Maklocstr@D@std@@YAPADPBDPADABU_Cvtvec@@@Z
_TEXT	SEGMENT PARA USE32 PUBLIC 'CODE'
_TEXT	ENDS
;	COMDAT ??_R3CMixer@@8
rdata$r	SEGMENT DWORD USE32 PUBLIC 'CONST'
rdata$r	ENDS
;	COMDAT ??_R3?$numpunct@_W@std@@8
rdata$r	SEGMENT DWORD USE32 PUBLIC 'CONST'
rdata$r	ENDS
;	COMDAT ??_R3?$numpunct@D@std@@8
rdata$r	SEGMENT DWORD USE32 PUBLIC 'CONST'
rdata$r	ENDS
;	COMDAT ??_R2CMixer@@8
rdata$r	SEGMENT DWORD USE32 PUBLIC 'CONST'
rdata$r	ENDS
;	COMDAT ??_R2?$numpunct@_W@std@@8
rdata$r	SEGMENT DWORD USE32 PUBLIC 'CONST'
rdata$r	ENDS
;	COMDAT ??_R2?$numpunct@D@std@@8
rdata$r	SEGMENT DWORD USE32 PUBLIC 'CONST'
rdata$r	ENDS
;	COMDAT ??_R1A@?0A@A@CMixer@@8
rdata$r	SEGMENT DWORD USE32 PUBLIC 'CONST'
rdata$r	ENDS
;	COMDAT ??_R1A@?0A@A@?$numpunct@_W@std@@8
rdata$r	SEGMENT DWORD USE32 PUBLIC 'CONST'
rdata$r	ENDS
;	COMDAT ??_R1A@?0A@A@facet@locale@std@@8
rdata$r	SEGMENT DWORD USE32 PUBLIC 'CONST'
rdata$r	ENDS
;	COMDAT ??_R0?AVfacet@locale@std@@@8
_DATA	SEGMENT DWORD USE32 PUBLIC 'DATA'
_DATA	ENDS
;	COMDAT ??_R1A@?0A@A@?$numpunct@D@std@@8
rdata$r	SEGMENT DWORD USE32 PUBLIC 'CONST'
rdata$r	ENDS
;	COMDAT ??_R0?AVCMixer@@@8
_DATA	SEGMENT DWORD USE32 PUBLIC 'DATA'
_DATA	ENDS
;	COMDAT ??_R0?AV?$numpunct@_W@std@@@8
_DATA	SEGMENT DWORD USE32 PUBLIC 'DATA'
_DATA	ENDS
;	COMDAT ??_R0?AV?$numpunct@D@std@@@8
_DATA	SEGMENT DWORD USE32 PUBLIC 'DATA'
_DATA	ENDS
;	COMDAT ??_R4CMixer@@6B@
rdata$r	SEGMENT DWORD USE32 PUBLIC 'CONST'
rdata$r	ENDS
;	COMDAT ??0?$allocator@_W@std@@QAE@XZ
_TEXT	SEGMENT PARA USE32 PUBLIC 'CODE'
_TEXT	ENDS
;	COMDAT ??0?$allocator@D@std@@QAE@ABV01@@Z
_TEXT	SEGMENT PARA USE32 PUBLIC 'CODE'
_TEXT	ENDS
;	COMDAT ??0?$allocator@D@std@@QAE@XZ
_TEXT	SEGMENT PARA USE32 PUBLIC 'CODE'
_TEXT	ENDS
;	COMDAT ?deallocate@?$allocator@D@std@@QAEXPADI@Z
_TEXT	SEGMENT PARA USE32 PUBLIC 'CODE'
_TEXT	ENDS
;	COMDAT ?max_size@?$allocator@D@std@@QBEIXZ
_TEXT	SEGMENT PARA USE32 PUBLIC 'CODE'
_TEXT	ENDS
;	COMDAT ?allocate@?$allocator@D@std@@QAEPADI@Z
_TEXT	SEGMENT PARA USE32 PUBLIC 'CODE'
_TEXT	ENDS
;	COMDAT ??$_Allocate@D@std@@YAPADIPAD@Z
_TEXT	SEGMENT PARA USE32 PUBLIC 'CODE'
_TEXT	ENDS
;	COMDAT ??_G?$numpunct@_W@std@@MAEPAXI@Z
_TEXT	SEGMENT PARA USE32 PUBLIC 'CODE'
_TEXT	ENDS
;	COMDAT ??_R4?$numpunct@_W@std@@6B@
rdata$r	SEGMENT DWORD USE32 PUBLIC 'CONST'
rdata$r	ENDS
;	COMDAT ??_G?$numpunct@D@std@@MAEPAXI@Z
_TEXT	SEGMENT PARA USE32 PUBLIC 'CODE'
_TEXT	ENDS
;	COMDAT ??_R4?$numpunct@D@std@@6B@
rdata$r	SEGMENT DWORD USE32 PUBLIC 'CONST'
rdata$r	ENDS
;	COMDAT ?_Psave@?$_Facetptr@V?$numpunct@_W@std@@@std@@2PBVfacet@locale@2@B
_DATA	SEGMENT DWORD USE32 PUBLIC 'DATA'
_DATA	ENDS
;	COMDAT ?_Psave@?$_Facetptr@V?$numpunct@D@std@@@std@@2PBVfacet@locale@2@B
_DATA	SEGMENT DWORD USE32 PUBLIC 'DATA'
_DATA	ENDS
;	COMDAT ?Unlock@CComCriticalSection@ATL@@QAEJXZ
_TEXT	SEGMENT PARA USE32 PUBLIC 'CODE'
_TEXT	ENDS
;	COMDAT ?_Psave@?$_Facetptr@V?$ctype@_W@std@@@std@@2PBVfacet@locale@2@B
_DATA	SEGMENT DWORD USE32 PUBLIC 'DATA'
_DATA	ENDS
;	COMDAT ?_Psave@?$_Facetptr@V?$ctype@D@std@@@std@@2PBVfacet@locale@2@B
_DATA	SEGMENT DWORD USE32 PUBLIC 'DATA'
_DATA	ENDS
;	COMDAT ??$_Maklocchr@_W@std@@YA_WDPA_WABU_Cvtvec@@@Z
_TEXT	SEGMENT PARA USE32 PUBLIC 'CODE'
_TEXT	ENDS
;	COMDAT ??$_Maklocstr@_W@std@@YAPA_WPBDPA_WABU_Cvtvec@@@Z
_TEXT	SEGMENT PARA USE32 PUBLIC 'CODE'
_TEXT	ENDS
;	COMDAT ??$_Maklocchr@D@std@@YADDPADABU_Cvtvec@@@Z
_TEXT	SEGMENT PARA USE32 PUBLIC 'CODE'
_TEXT	ENDS
;	COMDAT ??_C@_04LOAJBDKD@true?$AA@
CONST	SEGMENT DWORD USE32 PUBLIC 'CONST'
CONST	ENDS
;	COMDAT ??_C@_05LAPONLG@false?$AA@
CONST	SEGMENT DWORD USE32 PUBLIC 'CONST'
CONST	ENDS
;	COMDAT _wmemcpy
_TEXT	SEGMENT PARA USE32 PUBLIC 'CODE'
_TEXT	ENDS
;	COMDAT ?max_size@?$allocator@_W@std@@QBEIXZ
_TEXT	SEGMENT PARA USE32 PUBLIC 'CODE'
_TEXT	ENDS
;	COMDAT ?allocate@?$allocator@_W@std@@QAEPA_WI@Z
_TEXT	SEGMENT PARA USE32 PUBLIC 'CODE'
_TEXT	ENDS
;	COMDAT ??$_Allocate@_W@std@@YAPA_WIPA_W@Z
_TEXT	SEGMENT PARA USE32 PUBLIC 'CODE'
_TEXT	ENDS
;	COMDAT ??_C@_01GFHCPBMG@C?$AA@
CONST	SEGMENT DWORD USE32 PUBLIC 'CONST'
CONST	ENDS
;	COMDAT ?_Peek@?$istreambuf_iterator@_WU?$char_traits@_W@std@@@std@@AAE_WXZ
_TEXT	SEGMENT PARA USE32 PUBLIC 'CODE'
_TEXT	ENDS
;	COMDAT ?_Peek@?$istreambuf_iterator@DU?$char_traits@D@std@@@std@@AAEDXZ
_TEXT	SEGMENT PARA USE32 PUBLIC 'CODE'
_TEXT	ENDS
;	COMDAT ??$use_facet@V?$ctype@_W@std@@@std@@YAABV?$ctype@_W@0@ABVlocale@0@@Z
_TEXT	SEGMENT PARA USE32 PUBLIC 'CODE'
_TEXT	ENDS
;	COMDAT ??_S?$ctype@_W@std@@6B@
CONST	SEGMENT DWORD USE32 PUBLIC 'CONST'
CONST	ENDS
;	COMDAT ??_R4?$ctype@_W@std@@6B@
rdata$r	SEGMENT DWORD USE32 PUBLIC 'CONST'
rdata$r	ENDS
;	COMDAT ??_R0?AV?$ctype@_W@std@@@8
_DATA	SEGMENT DWORD USE32 PUBLIC 'DATA'
_DATA	ENDS
;	COMDAT ??_R3?$ctype@_W@std@@8
rdata$r	SEGMENT DWORD USE32 PUBLIC 'CONST'
rdata$r	ENDS
;	COMDAT ??_R2?$ctype@_W@std@@8
rdata$r	SEGMENT DWORD USE32 PUBLIC 'CONST'
rdata$r	ENDS
;	COMDAT ??_R1A@?0A@A@?$ctype@_W@std@@8
rdata$r	SEGMENT DWORD USE32 PUBLIC 'CONST'
rdata$r	ENDS
;	COMDAT ??_R1A@?0A@A@ctype_base@std@@8
rdata$r	SEGMENT DWORD USE32 PUBLIC 'CONST'
rdata$r	ENDS
;	COMDAT ??_R0?AUctype_base@std@@@8
_DATA	SEGMENT DWORD USE32 PUBLIC 'DATA'
_DATA	ENDS
;	COMDAT ??_G?$ctype@_W@std@@MAEPAXI@Z
_TEXT	SEGMENT PARA USE32 PUBLIC 'CODE'
_TEXT	ENDS
;	COMDAT ??_C@_08EPJLHIJG@bad?5cast?$AA@
CONST	SEGMENT DWORD USE32 PUBLIC 'CONST'
CONST	ENDS
;	COMDAT __TI2?AVbad_cast@@
xdata$x	SEGMENT DWORD USE32 PUBLIC 'CONST'
xdata$x	ENDS
;	COMDAT __CTA2?AVbad_cast@@
xdata$x	SEGMENT DWORD USE32 PUBLIC 'CONST'
xdata$x	ENDS
;	COMDAT __CT??_R0?AVbad_cast@@@8??0bad_cast@@QAE@ABV0@@Z12
xdata$x	SEGMENT DWORD USE32 PUBLIC 'CONST'
xdata$x	ENDS
;	COMDAT ??_R0?AVbad_cast@@@8
_DATA	SEGMENT DWORD USE32 PUBLIC 'DATA'
_DATA	ENDS
;	COMDAT __CT??_R0?AVexception@@@8??0exception@@QAE@ABV0@@Z12
xdata$x	SEGMENT DWORD USE32 PUBLIC 'CONST'
xdata$x	ENDS
;	COMDAT ??_R0?AVexception@@@8
_DATA	SEGMENT DWORD USE32 PUBLIC 'DATA'
_DATA	ENDS
;	COMDAT ??$use_facet@V?$ctype@D@std@@@std@@YAABV?$ctype@D@0@ABVlocale@0@@Z
_TEXT	SEGMENT PARA USE32 PUBLIC 'CODE'
_TEXT	ENDS
;	COMDAT ??_S?$ctype@D@std@@6B@
CONST	SEGMENT DWORD USE32 PUBLIC 'CONST'
CONST	ENDS
;	COMDAT ??_R4?$ctype@D@std@@6B@
rdata$r	SEGMENT DWORD USE32 PUBLIC 'CONST'
rdata$r	ENDS
;	COMDAT ??_R0?AV?$ctype@D@std@@@8
_DATA	SEGMENT DWORD USE32 PUBLIC 'DATA'
_DATA	ENDS
;	COMDAT ??_R3?$ctype@D@std@@8
rdata$r	SEGMENT DWORD USE32 PUBLIC 'CONST'
rdata$r	ENDS
;	COMDAT ??_R2?$ctype@D@std@@8
rdata$r	SEGMENT DWORD USE32 PUBLIC 'CONST'
rdata$r	ENDS
;	COMDAT ??_R1A@?0A@A@?$ctype@D@std@@8
rdata$r	SEGMENT DWORD USE32 PUBLIC 'CONST'
rdata$r	ENDS
;	COMDAT ??_G?$ctype@D@std@@MAEPAXI@Z
_TEXT	SEGMENT PARA USE32 PUBLIC 'CODE'
_TEXT	ENDS
;	COMDAT ??_S?$numpunct@_W@std@@6B@
CONST	SEGMENT DWORD USE32 PUBLIC 'CONST'
CONST	ENDS
;	COMDAT ??_S?$numpunct@D@std@@6B@
CONST	SEGMENT DWORD USE32 PUBLIC 'CONST'
CONST	ENDS
;	COMDAT _wmemmove
_TEXT	SEGMENT PARA USE32 PUBLIC 'CODE'
_TEXT	ENDS
;	COMDAT ?deallocate@?$allocator@_W@std@@QAEXPA_WI@Z
_TEXT	SEGMENT PARA USE32 PUBLIC 'CODE'
_TEXT	ENDS
;	COMDAT ??0?$allocator@_W@std@@QAE@ABV01@@Z
_TEXT	SEGMENT PARA USE32 PUBLIC 'CODE'
_TEXT	ENDS
;	COMDAT ??_7CMixer@@6B@
CONST	SEGMENT DWORD USE32 PUBLIC 'CONST'
CONST	ENDS
sxdata	SEGMENT DWORD USE32 'SXDATA'
sxdata	ENDS
FLAT	GROUP _DATA, CONST, _BSS
	ASSUME	CS: FLAT, DS: FLAT, SS: FLAT
endif

INCLUDELIB MSVCRT
INCLUDELIB OLDNAMES

PUBLIC	?m_self@CMixer@@2PAV1@A				; CMixer::m_self
_BSS	SEGMENT
?m_self@CMixer@@2PAV1@A DD 01H DUP (?)			; CMixer::m_self
_BSS	ENDS
PUBLIC	?GetInstance@CMixer@@SAPAV1@XZ			; CMixer::GetInstance
PUBLIC	??0CMixer@@QAE@XZ				; CMixer::CMixer
EXTRN	??2@YAPAXI@Z:NEAR				; operator new
EXTRN	??3@YAXPAX@Z:NEAR				; operator delete
EXTRN	__except_list:DWORD
EXTRN	___CxxFrameHandler:NEAR
xdata$x	SEGMENT
$T200682 DD	0ffffffffH
	DD	FLAT:$L200675
$T200679 DD	019930520H
	DD	01H
	DD	FLAT:$T200682
	DD	2 DUP(00H)
	DD	2 DUP(00H)
; Function compile flags: /Odt
; File d:\boxgit\playbox\playbox\dev\prj\playbox\src\util\mixer.cpp
xdata$x	ENDS
_TEXT	SEGMENT
tv72 = -24						; size = 4
$T200672 = -20						; size = 4
$T200671 = -16						; size = 4
__$EHRec$ = -12						; size = 12
?GetInstance@CMixer@@SAPAV1@XZ PROC NEAR		; CMixer::GetInstance

; 10   : {

  00000	55		 push	 ebp
  00001	8b ec		 mov	 ebp, esp
  00003	6a ff		 push	 -1
  00005	68 00 00 00 00	 push	 __ehhandler$?GetInstance@CMixer@@SAPAV1@XZ
  0000a	64 a1 00 00 00
	00		 mov	 eax, DWORD PTR fs:__except_list
  00010	50		 push	 eax
  00011	64 89 25 00 00
	00 00		 mov	 DWORD PTR fs:__except_list, esp
  00018	83 ec 0c	 sub	 esp, 12			; 0000000cH

; 11   : 	if( m_self == NULL )

  0001b	83 3d 00 00 00
	00 00		 cmp	 DWORD PTR ?m_self@CMixer@@2PAV1@A, 0 ; CMixer::m_self
  00022	75 44		 jne	 SHORT $L200100

; 12   : 	{
; 13   : 		m_self = new CMixer();

  00024	6a 08		 push	 8
  00026	e8 00 00 00 00	 call	 ??2@YAPAXI@Z		; operator new
  0002b	83 c4 04	 add	 esp, 4
  0002e	89 45 ec	 mov	 DWORD PTR $T200672[ebp], eax
  00031	c7 45 fc 00 00
	00 00		 mov	 DWORD PTR __$EHRec$[ebp+8], 0
  00038	83 7d ec 00	 cmp	 DWORD PTR $T200672[ebp], 0
  0003c	74 0d		 je	 SHORT $L200673
  0003e	8b 4d ec	 mov	 ecx, DWORD PTR $T200672[ebp]
  00041	e8 00 00 00 00	 call	 ??0CMixer@@QAE@XZ	; CMixer::CMixer
  00046	89 45 e8	 mov	 DWORD PTR tv72[ebp], eax
  00049	eb 07		 jmp	 SHORT $L200674
$L200673:
  0004b	c7 45 e8 00 00
	00 00		 mov	 DWORD PTR tv72[ebp], 0
$L200674:
  00052	8b 45 e8	 mov	 eax, DWORD PTR tv72[ebp]
  00055	89 45 f0	 mov	 DWORD PTR $T200671[ebp], eax
  00058	c7 45 fc ff ff
	ff ff		 mov	 DWORD PTR __$EHRec$[ebp+8], -1
  0005f	8b 4d f0	 mov	 ecx, DWORD PTR $T200671[ebp]
  00062	89 0d 00 00 00
	00		 mov	 DWORD PTR ?m_self@CMixer@@2PAV1@A, ecx ; CMixer::m_self
$L200100:

; 14   : 	}
; 15   : 	return m_self;

  00068	a1 00 00 00 00	 mov	 eax, DWORD PTR ?m_self@CMixer@@2PAV1@A ; CMixer::m_self

; 16   : }

  0006d	8b 4d f4	 mov	 ecx, DWORD PTR __$EHRec$[ebp]
  00070	64 89 0d 00 00
	00 00		 mov	 DWORD PTR fs:__except_list, ecx
  00077	8b e5		 mov	 esp, ebp
  00079	5d		 pop	 ebp
  0007a	c3		 ret	 0
_TEXT	ENDS
text$x	SEGMENT
$L200675:
  00000	8b 45 ec	 mov	 eax, DWORD PTR $T200672[ebp]
  00003	50		 push	 eax
  00004	e8 00 00 00 00	 call	 ??3@YAXPAX@Z		; operator delete
  00009	59		 pop	 ecx
  0000a	c3		 ret	 0
__ehhandler$?GetInstance@CMixer@@SAPAV1@XZ:
  0000b	b8 00 00 00 00	 mov	 eax, OFFSET FLAT:$T200679
  00010	e9 00 00 00 00	 jmp	 ___CxxFrameHandler
text$x	ENDS
?GetInstance@CMixer@@SAPAV1@XZ ENDP			; CMixer::GetInstance
PUBLIC	?DelInstance@CMixer@@SAXXZ			; CMixer::DelInstance
; Function compile flags: /Odt
_TEXT	SEGMENT
tv71 = -12						; size = 4
$T200686 = -8						; size = 4
$T200685 = -4						; size = 4
?DelInstance@CMixer@@SAXXZ PROC NEAR			; CMixer::DelInstance

; 19   : {

  00080	55		 push	 ebp
  00081	8b ec		 mov	 ebp, esp
  00083	83 ec 0c	 sub	 esp, 12			; 0000000cH

; 20   : 	if( m_self != NULL )

  00086	83 3d 00 00 00
	00 00		 cmp	 DWORD PTR ?m_self@CMixer@@2PAV1@A, 0 ; CMixer::m_self
  0008d	74 2c		 je	 SHORT $L200107

; 21   : 	{
; 22   : 		delete m_self;

  0008f	a1 00 00 00 00	 mov	 eax, DWORD PTR ?m_self@CMixer@@2PAV1@A ; CMixer::m_self
  00094	89 45 f8	 mov	 DWORD PTR $T200686[ebp], eax
  00097	8b 4d f8	 mov	 ecx, DWORD PTR $T200686[ebp]
  0009a	89 4d fc	 mov	 DWORD PTR $T200685[ebp], ecx
  0009d	83 7d fc 00	 cmp	 DWORD PTR $T200685[ebp], 0
  000a1	74 11		 je	 SHORT $L200687
  000a3	6a 01		 push	 1
  000a5	8b 55 fc	 mov	 edx, DWORD PTR $T200685[ebp]
  000a8	8b 02		 mov	 eax, DWORD PTR [edx]
  000aa	8b 4d fc	 mov	 ecx, DWORD PTR $T200685[ebp]
  000ad	ff 10		 call	 DWORD PTR [eax]
  000af	89 45 f4	 mov	 DWORD PTR tv71[ebp], eax
  000b2	eb 07		 jmp	 SHORT $L200107
$L200687:
  000b4	c7 45 f4 00 00
	00 00		 mov	 DWORD PTR tv71[ebp], 0
$L200107:

; 23   : 	}
; 24   : 	m_self = NULL;

  000bb	c7 05 00 00 00
	00 00 00 00 00	 mov	 DWORD PTR ?m_self@CMixer@@2PAV1@A, 0 ; CMixer::m_self

; 25   : }

  000c5	8b e5		 mov	 esp, ebp
  000c7	5d		 pop	 ebp
  000c8	c3		 ret	 0
?DelInstance@CMixer@@SAXXZ ENDP				; CMixer::DelInstance
_TEXT	ENDS
PUBLIC	??_7CMixer@@6B@					; CMixer::`vftable'
PUBLIC	??_GCMixer@@UAEPAXI@Z				; CMixer::`scalar deleting destructor'
PUBLIC	??_R4CMixer@@6B@				; CMixer::`RTTI Complete Object Locator'
PUBLIC	??_R0?AVCMixer@@@8				; CMixer `RTTI Type Descriptor'
PUBLIC	??_R3CMixer@@8					; CMixer::`RTTI Class Hierarchy Descriptor'
PUBLIC	??_R2CMixer@@8					; CMixer::`RTTI Base Class Array'
PUBLIC	??_R1A@?0A@A@CMixer@@8				; CMixer::`RTTI Base Class Descriptor at (0,-1,0,0)'
EXTRN	??_ECMixer@@UAEPAXI@Z:NEAR			; CMixer::`vector deleting destructor'
EXTRN	??_7type_info@@6B@:QWORD			; type_info::`vftable'
;	COMDAT ??_7CMixer@@6B@
CONST	SEGMENT
??_7CMixer@@6B@ DD FLAT:??_R4CMixer@@6B@		; CMixer::`vftable'
	DD	FLAT:??_ECMixer@@UAEPAXI@Z
CONST	ENDS
;	COMDAT ??_R4CMixer@@6B@
rdata$r	SEGMENT
??_R4CMixer@@6B@ DD 00H					; CMixer::`RTTI Complete Object Locator'
	DD	00H
	DD	00H
	DD	FLAT:??_R0?AVCMixer@@@8
	DD	FLAT:??_R3CMixer@@8
rdata$r	ENDS
;	COMDAT ??_R0?AVCMixer@@@8
_DATA	SEGMENT
??_R0?AVCMixer@@@8 DD FLAT:??_7type_info@@6B@		; CMixer `RTTI Type Descriptor'
	DD	00H
	DB	'.?AVCMixer@@', 00H
_DATA	ENDS
;	COMDAT ??_R3CMixer@@8
rdata$r	SEGMENT
??_R3CMixer@@8 DD 00H					; CMixer::`RTTI Class Hierarchy Descriptor'
	DD	00H
	DD	01H
	DD	FLAT:??_R2CMixer@@8
rdata$r	ENDS
;	COMDAT ??_R2CMixer@@8
rdata$r	SEGMENT
??_R2CMixer@@8 DD FLAT:??_R1A@?0A@A@CMixer@@8		; CMixer::`RTTI Base Class Array'
rdata$r	ENDS
;	COMDAT ??_R1A@?0A@A@CMixer@@8
rdata$r	SEGMENT
??_R1A@?0A@A@CMixer@@8 DD FLAT:??_R0?AVCMixer@@@8	; CMixer::`RTTI Base Class Descriptor at (0,-1,0,0)'
	DD	00H
	DD	00H
	DD	0ffffffffH
	DD	00H
	DD	00H
; Function compile flags: /Odt
rdata$r	ENDS
_TEXT	SEGMENT
_this$ = -4						; size = 4
??0CMixer@@QAE@XZ PROC NEAR				; CMixer::CMixer
; _this$ = ecx

; 32   : {

  000d0	55		 push	 ebp
  000d1	8b ec		 mov	 ebp, esp
  000d3	51		 push	 ecx
  000d4	89 4d fc	 mov	 DWORD PTR _this$[ebp], ecx
  000d7	8b 45 fc	 mov	 eax, DWORD PTR _this$[ebp]
  000da	c7 00 00 00 00
	00		 mov	 DWORD PTR [eax], OFFSET FLAT:??_7CMixer@@6B@

; 33   : 	m_VolRange = 100;

  000e0	8b 4d fc	 mov	 ecx, DWORD PTR _this$[ebp]
  000e3	c7 41 04 64 00
	00 00		 mov	 DWORD PTR [ecx+4], 100	; 00000064H

; 34   : }

  000ea	8b 45 fc	 mov	 eax, DWORD PTR _this$[ebp]
  000ed	8b e5		 mov	 esp, ebp
  000ef	5d		 pop	 ebp
  000f0	c3		 ret	 0
??0CMixer@@QAE@XZ ENDP					; CMixer::CMixer
_TEXT	ENDS
PUBLIC	??1CMixer@@UAE@XZ				; CMixer::~CMixer
; Function compile flags: /Odt
;	COMDAT ??_GCMixer@@UAEPAXI@Z
_TEXT	SEGMENT
_this$ = -4						; size = 4
___flags$ = 8						; size = 4
??_GCMixer@@UAEPAXI@Z PROC NEAR				; CMixer::`scalar deleting destructor', COMDAT
; _this$ = ecx
  00000	55		 push	 ebp
  00001	8b ec		 mov	 ebp, esp
  00003	51		 push	 ecx
  00004	89 4d fc	 mov	 DWORD PTR _this$[ebp], ecx
  00007	8b 4d fc	 mov	 ecx, DWORD PTR _this$[ebp]
  0000a	e8 00 00 00 00	 call	 ??1CMixer@@UAE@XZ	; CMixer::~CMixer
  0000f	8b 45 08	 mov	 eax, DWORD PTR ___flags$[ebp]
  00012	83 e0 01	 and	 eax, 1
  00015	74 0c		 je	 SHORT $L200116
  00017	8b 4d fc	 mov	 ecx, DWORD PTR _this$[ebp]
  0001a	51		 push	 ecx
  0001b	e8 00 00 00 00	 call	 ??3@YAXPAX@Z		; operator delete
  00020	83 c4 04	 add	 esp, 4
$L200116:
  00023	8b 45 fc	 mov	 eax, DWORD PTR _this$[ebp]
  00026	8b e5		 mov	 esp, ebp
  00028	5d		 pop	 ebp
  00029	c2 04 00	 ret	 4
??_GCMixer@@UAEPAXI@Z ENDP				; CMixer::`scalar deleting destructor'
; Function compile flags: /Odt
_TEXT	ENDS
_TEXT	SEGMENT
_this$ = -4						; size = 4
??1CMixer@@UAE@XZ PROC NEAR				; CMixer::~CMixer
; _this$ = ecx

; 37   : {

  00100	55		 push	 ebp
  00101	8b ec		 mov	 ebp, esp
  00103	51		 push	 ecx
  00104	89 4d fc	 mov	 DWORD PTR _this$[ebp], ecx
  00107	8b 45 fc	 mov	 eax, DWORD PTR _this$[ebp]
  0010a	c7 00 00 00 00
	00		 mov	 DWORD PTR [eax], OFFSET FLAT:??_7CMixer@@6B@

; 38   : 
; 39   : }

  00110	8b e5		 mov	 esp, ebp
  00112	5d		 pop	 ebp
  00113	c3		 ret	 0
??1CMixer@@UAE@XZ ENDP					; CMixer::~CMixer
_TEXT	ENDS
PUBLIC	??0CMixer@@QAE@H@Z				; CMixer::CMixer
; Function compile flags: /Odt
_TEXT	SEGMENT
_this$ = -4						; size = 4
_VolRange$ = 8						; size = 4
??0CMixer@@QAE@H@Z PROC NEAR				; CMixer::CMixer
; _this$ = ecx

; 42   : {

  00120	55		 push	 ebp
  00121	8b ec		 mov	 ebp, esp
  00123	51		 push	 ecx
  00124	89 4d fc	 mov	 DWORD PTR _this$[ebp], ecx
  00127	8b 45 fc	 mov	 eax, DWORD PTR _this$[ebp]
  0012a	c7 00 00 00 00
	00		 mov	 DWORD PTR [eax], OFFSET FLAT:??_7CMixer@@6B@

; 43   : 	m_VolRange = VolRange;

  00130	8b 4d fc	 mov	 ecx, DWORD PTR _this$[ebp]
  00133	8b 55 08	 mov	 edx, DWORD PTR _VolRange$[ebp]
  00136	89 51 04	 mov	 DWORD PTR [ecx+4], edx

; 44   : }

  00139	8b 45 fc	 mov	 eax, DWORD PTR _this$[ebp]
  0013c	8b e5		 mov	 esp, ebp
  0013e	5d		 pop	 ebp
  0013f	c2 04 00	 ret	 4
??0CMixer@@QAE@H@Z ENDP					; CMixer::CMixer
_TEXT	ENDS
PUBLIC	?GetVolumeControl@CMixer@@AAE_NPAUHMIXER__@@JJPAUtagMIXERCONTROLA@@@Z ; CMixer::GetVolumeControl
EXTRN	__imp__mixerGetLineControlsA@12:NEAR
EXTRN	___security_cookie:DWORD
EXTRN	@__security_check_cookie@4:NEAR
EXTRN	__imp__mixerGetLineInfoA@12:NEAR
; Function compile flags: /Odt
_TEXT	SEGMENT
_this$ = -220						; size = 4
_mr$200142 = -216					; size = 4
_i$200138 = -212					; size = 4
_dwConnections$200136 = -208				; size = 4
_dwLineID$200137 = -204					; size = 4
_mxlc$ = -200						; size = 24
_mxl$ = -176						; size = 168
__$ArrayPad$ = -8					; size = 4
_exist$ = -1						; size = 1
__$ReturnAddr$ = 4					; size = 4
_hmixer$ = 8						; size = 4
_componentType$ = 12					; size = 4
_ctrlType$ = 16						; size = 4
_mxc$ = 20						; size = 4
?GetVolumeControl@CMixer@@AAE_NPAUHMIXER__@@JJPAUtagMIXERCONTROLA@@@Z PROC NEAR ; CMixer::GetVolumeControl
; _this$ = ecx

; 48   : {

  00150	55		 push	 ebp
  00151	8b ec		 mov	 ebp, esp
  00153	81 ec dc 00 00
	00		 sub	 esp, 220		; 000000dcH
  00159	a1 00 00 00 00	 mov	 eax, DWORD PTR ___security_cookie
  0015e	89 45 f8	 mov	 DWORD PTR __$ArrayPad$[ebp], eax
  00161	89 8d 24 ff ff
	ff		 mov	 DWORD PTR _this$[ebp], ecx

; 49   : 	MIXERLINECONTROLS mxlc;
; 50   : 	MIXERLINE mxl;
; 51   : 	bool exist = false;

  00167	c6 45 ff 00	 mov	 BYTE PTR _exist$[ebp], 0

; 52   : 	mxl.cbStruct = sizeof(mxl);

  0016b	c7 85 50 ff ff
	ff a8 00 00 00	 mov	 DWORD PTR _mxl$[ebp], 168 ; 000000a8H

; 53   : 	mxl.dwComponentType = componentType;

  00175	8b 45 0c	 mov	 eax, DWORD PTR _componentType$[ebp]
  00178	89 85 68 ff ff
	ff		 mov	 DWORD PTR _mxl$[ebp+24], eax

; 54   : 
; 55   : 	if (componentType == MIXERLINE_COMPONENTTYPE_SRC_MICROPHONE)

  0017e	81 7d 0c 03 10
	00 00		 cmp	 DWORD PTR _componentType$[ebp], 4099 ; 00001003H
  00185	0f 85 a8 00 00
	00		 jne	 $L200134

; 56   : 	{//获取录音麦克风设备
; 57   : 		mxl.dwComponentType   =   MIXERLINE_COMPONENTTYPE_DST_WAVEIN;   

  0018b	c7 85 68 ff ff
	ff 07 00 00 00	 mov	 DWORD PTR _mxl$[ebp+24], 7

; 58   : 		//   得到录制总线中的连接数   
; 59   : 		mixerGetLineInfo(   (HMIXEROBJ)hmixer,   &mxl,   
; 60   : 			MIXER_OBJECTF_HMIXER   |   MIXER_GETLINEINFOF_COMPONENTTYPE   );   

  00195	68 03 00 00 80	 push	 -2147483645		; 80000003H
  0019a	8d 8d 50 ff ff
	ff		 lea	 ecx, DWORD PTR _mxl$[ebp]
  001a0	51		 push	 ecx
  001a1	8b 55 08	 mov	 edx, DWORD PTR _hmixer$[ebp]
  001a4	52		 push	 edx
  001a5	ff 15 00 00 00
	00		 call	 DWORD PTR __imp__mixerGetLineInfoA@12

; 61   : 		//   将连接数保存   
; 62   : 		DWORD   dwConnections   =   mxl.cConnections;   

  001ab	8b 85 70 ff ff
	ff		 mov	 eax, DWORD PTR _mxl$[ebp+32]
  001b1	89 85 30 ff ff
	ff		 mov	 DWORD PTR _dwConnections$200136[ebp], eax

; 63   : 		//   准备获取麦克风设备的ID   
; 64   : 		DWORD   dwLineID   =   0;   

  001b7	c7 85 34 ff ff
	ff 00 00 00 00	 mov	 DWORD PTR _dwLineID$200137[ebp], 0

; 65   : 		for   (   DWORD   i   =   0;   i   <   dwConnections;   i++   )   

  001c1	c7 85 2c ff ff
	ff 00 00 00 00	 mov	 DWORD PTR _i$200138[ebp], 0
  001cb	eb 0f		 jmp	 SHORT $L200139
$L200140:
  001cd	8b 8d 2c ff ff
	ff		 mov	 ecx, DWORD PTR _i$200138[ebp]
  001d3	83 c1 01	 add	 ecx, 1
  001d6	89 8d 2c ff ff
	ff		 mov	 DWORD PTR _i$200138[ebp], ecx
$L200139:
  001dc	8b 95 2c ff ff
	ff		 mov	 edx, DWORD PTR _i$200138[ebp]
  001e2	3b 95 30 ff ff
	ff		 cmp	 edx, DWORD PTR _dwConnections$200136[ebp]
  001e8	73 47		 jae	 SHORT $L200141

; 66   : 		{   
; 67   : 			//   枚举每一个设备，当Source的ID等于当前的迭代记数   
; 68   : 			mxl.dwSource   =   i;   

  001ea	8b 85 2c ff ff
	ff		 mov	 eax, DWORD PTR _i$200138[ebp]
  001f0	89 85 58 ff ff
	ff		 mov	 DWORD PTR _mxl$[ebp+8], eax

; 69   : 			//   根据SourceID获得连接的信息   
; 70   : 			MMRESULT mr   =   mixerGetLineInfo(   (HMIXEROBJ)hmixer,   &mxl,   
; 71   : 				MIXER_OBJECTF_HMIXER   |   MIXER_GETLINEINFOF_SOURCE   );   

  001f6	68 01 00 00 80	 push	 -2147483647		; 80000001H
  001fb	8d 8d 50 ff ff
	ff		 lea	 ecx, DWORD PTR _mxl$[ebp]
  00201	51		 push	 ecx
  00202	8b 55 08	 mov	 edx, DWORD PTR _hmixer$[ebp]
  00205	52		 push	 edx
  00206	ff 15 00 00 00
	00		 call	 DWORD PTR __imp__mixerGetLineInfoA@12
  0020c	89 85 28 ff ff
	ff		 mov	 DWORD PTR _mr$200142[ebp], eax

; 72   : 			//   判断函数执行错误   
; 73   : 			if   (   mr   !=   0   )   

  00212	83 bd 28 ff ff
	ff 00		 cmp	 DWORD PTR _mr$200142[ebp], 0
  00219	74 02		 je	 SHORT $L200144

; 74   : 			{   
; 75   : 				break;   

  0021b	eb 14		 jmp	 SHORT $L200141
$L200144:

; 76   : 			}   
; 77   : 			//   如果当前设备类型是麦克风，则跳出循环。   
; 78   : 			if   (   mxl.dwComponentType   ==   
; 79   : 				MIXERLINE_COMPONENTTYPE_SRC_MICROPHONE   )   

  0021d	81 bd 68 ff ff
	ff 03 10 00 00	 cmp	 DWORD PTR _mxl$[ebp+24], 4099 ; 00001003H
  00227	75 06		 jne	 SHORT $L200145

; 80   : 			{   
; 81   : 				exist = true;

  00229	c6 45 ff 01	 mov	 BYTE PTR _exist$[ebp], 1

; 82   : 				break;   

  0022d	eb 02		 jmp	 SHORT $L200141
$L200145:

; 83   : 			}   
; 84   : 		} 

  0022f	eb 9c		 jmp	 SHORT $L200140
$L200141:
  00231	eb 1b		 jmp	 SHORT $L200146
$L200134:

; 85   : 	}else if(!mixerGetLineInfo((HMIXEROBJ)hmixer, &mxl, MIXER_GETLINEINFOF_COMPONENTTYPE))

  00233	6a 03		 push	 3
  00235	8d 85 50 ff ff
	ff		 lea	 eax, DWORD PTR _mxl$[ebp]
  0023b	50		 push	 eax
  0023c	8b 4d 08	 mov	 ecx, DWORD PTR _hmixer$[ebp]
  0023f	51		 push	 ecx
  00240	ff 15 00 00 00
	00		 call	 DWORD PTR __imp__mixerGetLineInfoA@12
  00246	85 c0		 test	 eax, eax
  00248	75 04		 jne	 SHORT $L200146

; 86   : 	{
; 87   : 		exist = true;

  0024a	c6 45 ff 01	 mov	 BYTE PTR _exist$[ebp], 1
$L200146:

; 88   : 	}
; 89   : 
; 90   : 	if (exist)

  0024e	0f b6 55 ff	 movzx	 edx, BYTE PTR _exist$[ebp]
  00252	85 d2		 test	 edx, edx
  00254	74 5b		 je	 SHORT $L200149

; 91   : 	{
; 92   : 		mxlc.cbStruct = sizeof(mxlc);

  00256	c7 85 38 ff ff
	ff 18 00 00 00	 mov	 DWORD PTR _mxlc$[ebp], 24 ; 00000018H

; 93   : 		mxlc.dwLineID = mxl.dwLineID;

  00260	8b 85 5c ff ff
	ff		 mov	 eax, DWORD PTR _mxl$[ebp+12]
  00266	89 85 3c ff ff
	ff		 mov	 DWORD PTR _mxlc$[ebp+4], eax

; 94   : 		mxlc.dwControlType = ctrlType;

  0026c	8b 4d 10	 mov	 ecx, DWORD PTR _ctrlType$[ebp]
  0026f	89 8d 40 ff ff
	ff		 mov	 DWORD PTR _mxlc$[ebp+8], ecx

; 95   : 		mxlc.cControls = 1;

  00275	c7 85 44 ff ff
	ff 01 00 00 00	 mov	 DWORD PTR _mxlc$[ebp+12], 1

; 96   : 		mxlc.cbmxctrl = sizeof(MIXERCONTROL);

  0027f	c7 85 48 ff ff
	ff 94 00 00 00	 mov	 DWORD PTR _mxlc$[ebp+16], 148 ; 00000094H

; 97   : 		mxlc.pamxctrl = mxc;

  00289	8b 55 14	 mov	 edx, DWORD PTR _mxc$[ebp]
  0028c	89 95 4c ff ff
	ff		 mov	 DWORD PTR _mxlc$[ebp+20], edx

; 98   : 		if(mixerGetLineControls((HMIXEROBJ)hmixer,&mxlc,MIXER_GETLINECONTROLSF_ONEBYTYPE))

  00292	6a 02		 push	 2
  00294	8d 85 38 ff ff
	ff		 lea	 eax, DWORD PTR _mxlc$[ebp]
  0029a	50		 push	 eax
  0029b	8b 4d 08	 mov	 ecx, DWORD PTR _hmixer$[ebp]
  0029e	51		 push	 ecx
  0029f	ff 15 00 00 00
	00		 call	 DWORD PTR __imp__mixerGetLineControlsA@12
  002a5	85 c0		 test	 eax, eax
  002a7	74 04		 je	 SHORT $L200152

; 99   : 			return 0;

  002a9	32 c0		 xor	 al, al
  002ab	eb 06		 jmp	 SHORT $L200130
$L200152:

; 100  : 		else
; 101  : 			return 1;

  002ad	b0 01		 mov	 al, 1
  002af	eb 02		 jmp	 SHORT $L200130
$L200149:

; 102  : 	}
; 103  : 	return 0;

  002b1	32 c0		 xor	 al, al
$L200130:

; 104  : }

  002b3	8b 4d f8	 mov	 ecx, DWORD PTR __$ArrayPad$[ebp]
  002b6	e8 00 00 00 00	 call	 @__security_check_cookie@4
  002bb	8b e5		 mov	 esp, ebp
  002bd	5d		 pop	 ebp
  002be	c2 10 00	 ret	 16			; 00000010H
?GetVolumeControl@CMixer@@AAE_NPAUHMIXER__@@JJPAUtagMIXERCONTROLA@@@Z ENDP ; CMixer::GetVolumeControl
_TEXT	ENDS
PUBLIC	?GetMuteValue@CMixer@@AAEJPAUHMIXER__@@PAUtagMIXERCONTROLA@@@Z ; CMixer::GetMuteValue
EXTRN	__imp__mixerGetControlDetailsA@12:NEAR
; Function compile flags: /Odt
_TEXT	SEGMENT
_this$ = -32						; size = 4
_mxcdMute$ = -28					; size = 4
_mxcd$ = -24						; size = 24
_hmixer$ = 8						; size = 4
_mxc$ = 12						; size = 4
?GetMuteValue@CMixer@@AAEJPAUHMIXER__@@PAUtagMIXERCONTROLA@@@Z PROC NEAR ; CMixer::GetMuteValue
; _this$ = ecx

; 107  : {

  002d0	55		 push	 ebp
  002d1	8b ec		 mov	 ebp, esp
  002d3	83 ec 20	 sub	 esp, 32			; 00000020H
  002d6	89 4d e0	 mov	 DWORD PTR _this$[ebp], ecx

; 108  : 	MIXERCONTROLDETAILS mxcd;
; 109  : 	MIXERCONTROLDETAILS_BOOLEAN mxcdMute;
; 110  : 	mxcd.hwndOwner = 0;

  002d9	c7 45 f4 00 00
	00 00		 mov	 DWORD PTR _mxcd$[ebp+12], 0

; 111  : 	mxcd.cbStruct = sizeof(mxcd);

  002e0	c7 45 e8 18 00
	00 00		 mov	 DWORD PTR _mxcd$[ebp], 24 ; 00000018H

; 112  : 	mxcd.dwControlID = mxc->dwControlID;

  002e7	8b 45 0c	 mov	 eax, DWORD PTR _mxc$[ebp]
  002ea	8b 48 04	 mov	 ecx, DWORD PTR [eax+4]
  002ed	89 4d ec	 mov	 DWORD PTR _mxcd$[ebp+4], ecx

; 113  : 	mxcd.cbDetails = sizeof(mxcdMute);

  002f0	c7 45 f8 04 00
	00 00		 mov	 DWORD PTR _mxcd$[ebp+16], 4

; 114  : 	mxcd.paDetails = &mxcdMute;

  002f7	8d 55 e4	 lea	 edx, DWORD PTR _mxcdMute$[ebp]
  002fa	89 55 fc	 mov	 DWORD PTR _mxcd$[ebp+20], edx

; 115  : 	mxcd.cChannels = 1;

  002fd	c7 45 f0 01 00
	00 00		 mov	 DWORD PTR _mxcd$[ebp+8], 1

; 116  : 	mxcd.cMultipleItems = 0;

  00304	c7 45 f4 00 00
	00 00		 mov	 DWORD PTR _mxcd$[ebp+12], 0

; 117  : 	if (mixerGetControlDetails((HMIXEROBJ)hmixer, &mxcd,MIXER_OBJECTF_HMIXER|MIXER_GETCONTROLDETAILSF_VALUE))

  0030b	68 00 00 00 80	 push	 -2147483648		; 80000000H
  00310	8d 45 e8	 lea	 eax, DWORD PTR _mxcd$[ebp]
  00313	50		 push	 eax
  00314	8b 4d 08	 mov	 ecx, DWORD PTR _hmixer$[ebp]
  00317	51		 push	 ecx
  00318	ff 15 00 00 00
	00		 call	 DWORD PTR __imp__mixerGetControlDetailsA@12
  0031e	85 c0		 test	 eax, eax
  00320	74 05		 je	 SHORT $L200162

; 118  : 		return -1;

  00322	83 c8 ff	 or	 eax, -1
  00325	eb 03		 jmp	 SHORT $L200158
$L200162:

; 119  : 	return mxcdMute.fValue;

  00327	8b 45 e4	 mov	 eax, DWORD PTR _mxcdMute$[ebp]
$L200158:

; 120  : }

  0032a	8b e5		 mov	 esp, ebp
  0032c	5d		 pop	 ebp
  0032d	c2 08 00	 ret	 8
?GetMuteValue@CMixer@@AAEJPAUHMIXER__@@PAUtagMIXERCONTROLA@@@Z ENDP ; CMixer::GetMuteValue
_TEXT	ENDS
PUBLIC	?GetVolumeValue@CMixer@@AAEIPAUHMIXER__@@PAUtagMIXERCONTROLA@@@Z ; CMixer::GetVolumeValue
; Function compile flags: /Odt
_TEXT	SEGMENT
_this$ = -32						; size = 4
_mxcd$ = -28						; size = 24
_vol$ = -4						; size = 4
_hmixer$ = 8						; size = 4
_mxc$ = 12						; size = 4
?GetVolumeValue@CMixer@@AAEIPAUHMIXER__@@PAUtagMIXERCONTROLA@@@Z PROC NEAR ; CMixer::GetVolumeValue
; _this$ = ecx

; 124  : {

  00330	55		 push	 ebp
  00331	8b ec		 mov	 ebp, esp
  00333	83 ec 20	 sub	 esp, 32			; 00000020H
  00336	89 4d e0	 mov	 DWORD PTR _this$[ebp], ecx

; 125  : 	MIXERCONTROLDETAILS mxcd;
; 126  : 	MIXERCONTROLDETAILS_UNSIGNED vol; 
; 127  : 	vol.dwValue=0;

  00339	c7 45 fc 00 00
	00 00		 mov	 DWORD PTR _vol$[ebp], 0

; 128  : 	mxcd.hwndOwner = 0;

  00340	c7 45 f0 00 00
	00 00		 mov	 DWORD PTR _mxcd$[ebp+12], 0

; 129  : 	mxcd.cbStruct = sizeof(mxcd);

  00347	c7 45 e4 18 00
	00 00		 mov	 DWORD PTR _mxcd$[ebp], 24 ; 00000018H

; 130  : 	mxcd.dwControlID = mxc->dwControlID;

  0034e	8b 45 0c	 mov	 eax, DWORD PTR _mxc$[ebp]
  00351	8b 48 04	 mov	 ecx, DWORD PTR [eax+4]
  00354	89 4d e8	 mov	 DWORD PTR _mxcd$[ebp+4], ecx

; 131  : 	mxcd.cbDetails = sizeof(vol);

  00357	c7 45 f4 04 00
	00 00		 mov	 DWORD PTR _mxcd$[ebp+16], 4

; 132  : 	mxcd.paDetails = &vol;

  0035e	8d 55 fc	 lea	 edx, DWORD PTR _vol$[ebp]
  00361	89 55 f8	 mov	 DWORD PTR _mxcd$[ebp+20], edx

; 133  : 	mxcd.cChannels = 1;

  00364	c7 45 ec 01 00
	00 00		 mov	 DWORD PTR _mxcd$[ebp+8], 1

; 134  : 	if(mixerGetControlDetails((HMIXEROBJ)hmixer, &mxcd, MIXER_OBJECTF_HMIXER|MIXER_GETCONTROLDETAILSF_VALUE))

  0036b	68 00 00 00 80	 push	 -2147483648		; 80000000H
  00370	8d 45 e4	 lea	 eax, DWORD PTR _mxcd$[ebp]
  00373	50		 push	 eax
  00374	8b 4d 08	 mov	 ecx, DWORD PTR _hmixer$[ebp]
  00377	51		 push	 ecx
  00378	ff 15 00 00 00
	00		 call	 DWORD PTR __imp__mixerGetControlDetailsA@12
  0037e	85 c0		 test	 eax, eax
  00380	74 05		 je	 SHORT $L200171

; 135  : 		return -1;

  00382	83 c8 ff	 or	 eax, -1
  00385	eb 03		 jmp	 SHORT $L200167
$L200171:

; 136  : 	return vol.dwValue;

  00387	8b 45 fc	 mov	 eax, DWORD PTR _vol$[ebp]
$L200167:

; 137  : }

  0038a	8b e5		 mov	 esp, ebp
  0038c	5d		 pop	 ebp
  0038d	c2 08 00	 ret	 8
?GetVolumeValue@CMixer@@AAEIPAUHMIXER__@@PAUtagMIXERCONTROLA@@@Z ENDP ; CMixer::GetVolumeValue
_TEXT	ENDS
PUBLIC	?SetMuteValue@CMixer@@AAE_NPAUHMIXER__@@PAUtagMIXERCONTROLA@@_N@Z ; CMixer::SetMuteValue
EXTRN	__imp__mixerSetControlDetails@12:NEAR
; Function compile flags: /Odt
_TEXT	SEGMENT
_this$ = -32						; size = 4
_mxcdMute$ = -28					; size = 4
_mxcd$ = -24						; size = 24
_hmixer$ = 8						; size = 4
_mxc$ = 12						; size = 4
_mute$ = 16						; size = 1
?SetMuteValue@CMixer@@AAE_NPAUHMIXER__@@PAUtagMIXERCONTROLA@@_N@Z PROC NEAR ; CMixer::SetMuteValue
; _this$ = ecx

; 141  : {

  00390	55		 push	 ebp
  00391	8b ec		 mov	 ebp, esp
  00393	83 ec 20	 sub	 esp, 32			; 00000020H
  00396	89 4d e0	 mov	 DWORD PTR _this$[ebp], ecx

; 142  : 	MIXERCONTROLDETAILS mxcd;
; 143  : 	MIXERCONTROLDETAILS_BOOLEAN mxcdMute;
; 144  : 	mxcdMute.fValue=mute;

  00399	0f b6 45 10	 movzx	 eax, BYTE PTR _mute$[ebp]
  0039d	89 45 e4	 mov	 DWORD PTR _mxcdMute$[ebp], eax

; 145  : 	mxcd.hwndOwner = 0;

  003a0	c7 45 f4 00 00
	00 00		 mov	 DWORD PTR _mxcd$[ebp+12], 0

; 146  : 	mxcd.dwControlID = mxc->dwControlID;

  003a7	8b 4d 0c	 mov	 ecx, DWORD PTR _mxc$[ebp]
  003aa	8b 51 04	 mov	 edx, DWORD PTR [ecx+4]
  003ad	89 55 ec	 mov	 DWORD PTR _mxcd$[ebp+4], edx

; 147  : 	mxcd.cbStruct = sizeof(mxcd);

  003b0	c7 45 e8 18 00
	00 00		 mov	 DWORD PTR _mxcd$[ebp], 24 ; 00000018H

; 148  : 	mxcd.cbDetails = sizeof(mxcdMute);

  003b7	c7 45 f8 04 00
	00 00		 mov	 DWORD PTR _mxcd$[ebp+16], 4

; 149  : 	mxcd.paDetails = &mxcdMute;

  003be	8d 45 e4	 lea	 eax, DWORD PTR _mxcdMute$[ebp]
  003c1	89 45 fc	 mov	 DWORD PTR _mxcd$[ebp+20], eax

; 150  : 	mxcd.cChannels = 1;

  003c4	c7 45 f0 01 00
	00 00		 mov	 DWORD PTR _mxcd$[ebp+8], 1

; 151  : 	mxcd.cMultipleItems = 0;

  003cb	c7 45 f4 00 00
	00 00		 mov	 DWORD PTR _mxcd$[ebp+12], 0

; 152  : 	if (mixerSetControlDetails((HMIXEROBJ)hmixer, &mxcd, MIXER_OBJECTF_HMIXER|MIXER_SETCONTROLDETAILSF_VALUE))

  003d2	68 00 00 00 80	 push	 -2147483648		; 80000000H
  003d7	8d 4d e8	 lea	 ecx, DWORD PTR _mxcd$[ebp]
  003da	51		 push	 ecx
  003db	8b 55 08	 mov	 edx, DWORD PTR _hmixer$[ebp]
  003de	52		 push	 edx
  003df	ff 15 00 00 00
	00		 call	 DWORD PTR __imp__mixerSetControlDetails@12
  003e5	85 c0		 test	 eax, eax
  003e7	74 04		 je	 SHORT $L200181

; 153  : 		return 0;

  003e9	32 c0		 xor	 al, al
  003eb	eb 02		 jmp	 SHORT $L200177
$L200181:

; 154  : 	return 1;

  003ed	b0 01		 mov	 al, 1
$L200177:

; 155  : }

  003ef	8b e5		 mov	 esp, ebp
  003f1	5d		 pop	 ebp
  003f2	c2 0c 00	 ret	 12			; 0000000cH
?SetMuteValue@CMixer@@AAE_NPAUHMIXER__@@PAUtagMIXERCONTROLA@@_N@Z ENDP ; CMixer::SetMuteValue
_TEXT	ENDS
PUBLIC	?SetVolumeValue@CMixer@@AAE_NPAUHMIXER__@@PAUtagMIXERCONTROLA@@J@Z ; CMixer::SetVolumeValue
; Function compile flags: /Odt
_TEXT	SEGMENT
_this$ = -32						; size = 4
_mxcd$ = -28						; size = 24
_vol$ = -4						; size = 4
_hmixer$ = 8						; size = 4
_mxc$ = 12						; size = 4
_volume$ = 16						; size = 4
?SetVolumeValue@CMixer@@AAE_NPAUHMIXER__@@PAUtagMIXERCONTROLA@@J@Z PROC NEAR ; CMixer::SetVolumeValue
; _this$ = ecx

; 160  : {

  00400	55		 push	 ebp
  00401	8b ec		 mov	 ebp, esp
  00403	83 ec 20	 sub	 esp, 32			; 00000020H
  00406	89 4d e0	 mov	 DWORD PTR _this$[ebp], ecx

; 161  : 	MIXERCONTROLDETAILS mxcd;
; 162  : 	MIXERCONTROLDETAILS_UNSIGNED vol;
; 163  : 	vol.dwValue = volume;

  00409	8b 45 10	 mov	 eax, DWORD PTR _volume$[ebp]
  0040c	89 45 fc	 mov	 DWORD PTR _vol$[ebp], eax

; 164  : 	mxcd.hwndOwner = 0;

  0040f	c7 45 f0 00 00
	00 00		 mov	 DWORD PTR _mxcd$[ebp+12], 0

; 165  : 	mxcd.dwControlID = mxc->dwControlID;

  00416	8b 4d 0c	 mov	 ecx, DWORD PTR _mxc$[ebp]
  00419	8b 51 04	 mov	 edx, DWORD PTR [ecx+4]
  0041c	89 55 e8	 mov	 DWORD PTR _mxcd$[ebp+4], edx

; 166  : 	mxcd.cbStruct = sizeof(mxcd);

  0041f	c7 45 e4 18 00
	00 00		 mov	 DWORD PTR _mxcd$[ebp], 24 ; 00000018H

; 167  : 	mxcd.cbDetails = sizeof(vol);

  00426	c7 45 f4 04 00
	00 00		 mov	 DWORD PTR _mxcd$[ebp+16], 4

; 168  : 	mxcd.paDetails = &vol;

  0042d	8d 45 fc	 lea	 eax, DWORD PTR _vol$[ebp]
  00430	89 45 f8	 mov	 DWORD PTR _mxcd$[ebp+20], eax

; 169  : 	mxcd.cChannels = 1;

  00433	c7 45 ec 01 00
	00 00		 mov	 DWORD PTR _mxcd$[ebp+8], 1

; 170  : 	if(mixerSetControlDetails((HMIXEROBJ)hmixer, &mxcd, MIXER_OBJECTF_HMIXER|MIXER_SETCONTROLDETAILSF_VALUE))

  0043a	68 00 00 00 80	 push	 -2147483648		; 80000000H
  0043f	8d 4d e4	 lea	 ecx, DWORD PTR _mxcd$[ebp]
  00442	51		 push	 ecx
  00443	8b 55 08	 mov	 edx, DWORD PTR _hmixer$[ebp]
  00446	52		 push	 edx
  00447	ff 15 00 00 00
	00		 call	 DWORD PTR __imp__mixerSetControlDetails@12
  0044d	85 c0		 test	 eax, eax
  0044f	74 04		 je	 SHORT $L200191

; 171  : 		return 0;

  00451	32 c0		 xor	 al, al
  00453	eb 02		 jmp	 SHORT $L200187
$L200191:

; 172  : 	return 1;

  00455	b0 01		 mov	 al, 1
$L200187:

; 173  : }

  00457	8b e5		 mov	 esp, ebp
  00459	5d		 pop	 ebp
  0045a	c2 0c 00	 ret	 12			; 0000000cH
?SetVolumeValue@CMixer@@AAE_NPAUHMIXER__@@PAUtagMIXERCONTROLA@@J@Z ENDP ; CMixer::SetVolumeValue
_TEXT	ENDS
PUBLIC	?GetVolume@CMixer@@QAEIW4MixerDeice@1@@Z	; CMixer::GetVolume
EXTRN	__imp__mixerOpen@20:NEAR
EXTRN	__imp__mixerClose@4:NEAR
; Function compile flags: /Odt
_TEXT	SEGMENT
tv64 = -176						; size = 4
_this$ = -172						; size = 4
_volCtrl$ = -168					; size = 148
__$ArrayPad$ = -16					; size = 4
_rt$ = -12						; size = 4
_device$ = -8						; size = 4
_hmixer$ = -4						; size = 4
__$ReturnAddr$ = 4					; size = 4
_dev$ = 8						; size = 4
?GetVolume@CMixer@@QAEIW4MixerDeice@1@@Z PROC NEAR	; CMixer::GetVolume
; _this$ = ecx

; 178  : {

  00460	55		 push	 ebp
  00461	8b ec		 mov	 ebp, esp
  00463	81 ec b0 00 00
	00		 sub	 esp, 176		; 000000b0H
  00469	a1 00 00 00 00	 mov	 eax, DWORD PTR ___security_cookie
  0046e	89 45 f0	 mov	 DWORD PTR __$ArrayPad$[ebp], eax
  00471	89 8d 54 ff ff
	ff		 mov	 DWORD PTR _this$[ebp], ecx

; 179  : 
; 180  : 	long device;
; 181  : 	unsigned rt=0;

  00477	c7 45 f4 00 00
	00 00		 mov	 DWORD PTR _rt$[ebp], 0

; 182  : 	MIXERCONTROL volCtrl;
; 183  : 	HMIXER hmixer;
; 184  : 	switch (dev)

  0047e	8b 45 08	 mov	 eax, DWORD PTR _dev$[ebp]
  00481	89 85 50 ff ff
	ff		 mov	 DWORD PTR tv64[ebp], eax
  00487	83 bd 50 ff ff
	ff 01		 cmp	 DWORD PTR tv64[ebp], 1
  0048e	74 14		 je	 SHORT $L200204
  00490	83 bd 50 ff ff
	ff 02		 cmp	 DWORD PTR tv64[ebp], 2
  00497	74 14		 je	 SHORT $L200205
  00499	83 bd 50 ff ff
	ff 03		 cmp	 DWORD PTR tv64[ebp], 3
  004a0	74 14		 je	 SHORT $L200206
  004a2	eb 1b		 jmp	 SHORT $L200207
$L200204:

; 185  : 	{
; 186  : 	case WAVEOUT:
; 187  : 		device=MIXERLINE_COMPONENTTYPE_SRC_WAVEOUT; break;

  004a4	c7 45 f8 08 10
	00 00		 mov	 DWORD PTR _device$[ebp], 4104 ; 00001008H
  004ab	eb 19		 jmp	 SHORT $L200201
$L200205:

; 188  : 	case SYNTHESIZER:
; 189  : 		device=MIXERLINE_COMPONENTTYPE_SRC_SYNTHESIZER; break;

  004ad	c7 45 f8 04 10
	00 00		 mov	 DWORD PTR _device$[ebp], 4100 ; 00001004H
  004b4	eb 10		 jmp	 SHORT $L200201
$L200206:

; 190  : 	case MICROPHONE:
; 191  : 		// device=MIXERLINE_COMPONENTTYPE_SRC_COMPACTDISC; break; // cd 音量
; 192  : 		device=MIXERLINE_COMPONENTTYPE_SRC_MICROPHONE; break;   //麦克风音量

  004b6	c7 45 f8 03 10
	00 00		 mov	 DWORD PTR _device$[ebp], 4099 ; 00001003H
  004bd	eb 07		 jmp	 SHORT $L200201
$L200207:

; 193  : 		// device=MIXERLINE_COMPONENTTYPE_SRC_LINE; break;         //PC 扬声器音量
; 194  : 		//device=MIXERLINE_COMPONENTTYPE_SRC_COMPACTDISC; break;
; 195  : 
; 196  : 	default:
; 197  : 		device=MIXERLINE_COMPONENTTYPE_DST_SPEAKERS;

  004bf	c7 45 f8 04 00
	00 00		 mov	 DWORD PTR _device$[ebp], 4
$L200201:

; 198  : 	}
; 199  : 
; 200  : 	if(mixerOpen(&hmixer, 0, 0, 0, 0)) return 0;

  004c6	6a 00		 push	 0
  004c8	6a 00		 push	 0
  004ca	6a 00		 push	 0
  004cc	6a 00		 push	 0
  004ce	8d 4d fc	 lea	 ecx, DWORD PTR _hmixer$[ebp]
  004d1	51		 push	 ecx
  004d2	ff 15 00 00 00
	00		 call	 DWORD PTR __imp__mixerOpen@20
  004d8	85 c0		 test	 eax, eax
  004da	74 04		 je	 SHORT $L200208
  004dc	33 c0		 xor	 eax, eax
  004de	eb 69		 jmp	 SHORT $L200195
$L200208:

; 201  : 	if(!GetVolumeControl(hmixer,device,MIXERCONTROL_CONTROLTYPE_VOLUME,&volCtrl))

  004e0	8d 95 58 ff ff
	ff		 lea	 edx, DWORD PTR _volCtrl$[ebp]
  004e6	52		 push	 edx
  004e7	68 01 00 03 50	 push	 1342373889		; 50030001H
  004ec	8b 45 f8	 mov	 eax, DWORD PTR _device$[ebp]
  004ef	50		 push	 eax
  004f0	8b 4d fc	 mov	 ecx, DWORD PTR _hmixer$[ebp]
  004f3	51		 push	 ecx
  004f4	8b 8d 54 ff ff
	ff		 mov	 ecx, DWORD PTR _this$[ebp]
  004fa	e8 00 00 00 00	 call	 ?GetVolumeControl@CMixer@@AAE_NPAUHMIXER__@@JJPAUtagMIXERCONTROLA@@@Z ; CMixer::GetVolumeControl
  004ff	0f b6 d0	 movzx	 edx, al
  00502	85 d2		 test	 edx, edx
  00504	75 0e		 jne	 SHORT $L200209

; 202  : 	{
; 203  : 
; 204  : 		mixerClose(hmixer);

  00506	8b 45 fc	 mov	 eax, DWORD PTR _hmixer$[ebp]
  00509	50		 push	 eax
  0050a	ff 15 00 00 00
	00		 call	 DWORD PTR __imp__mixerClose@4

; 205  : 
; 206  : 		return 0;

  00510	33 c0		 xor	 eax, eax
  00512	eb 35		 jmp	 SHORT $L200195
$L200209:

; 207  : 
; 208  : 	}
; 209  : 	rt=GetVolumeValue(hmixer,&volCtrl)*m_VolRange /volCtrl.Bounds.lMaximum;

  00514	8d 8d 58 ff ff
	ff		 lea	 ecx, DWORD PTR _volCtrl$[ebp]
  0051a	51		 push	 ecx
  0051b	8b 55 fc	 mov	 edx, DWORD PTR _hmixer$[ebp]
  0051e	52		 push	 edx
  0051f	8b 8d 54 ff ff
	ff		 mov	 ecx, DWORD PTR _this$[ebp]
  00525	e8 00 00 00 00	 call	 ?GetVolumeValue@CMixer@@AAEIPAUHMIXER__@@PAUtagMIXERCONTROLA@@@Z ; CMixer::GetVolumeValue
  0052a	8b 8d 54 ff ff
	ff		 mov	 ecx, DWORD PTR _this$[ebp]
  00530	0f af 41 04	 imul	 eax, DWORD PTR [ecx+4]
  00534	33 d2		 xor	 edx, edx
  00536	f7 75 c0	 div	 DWORD PTR _volCtrl$[ebp+104]
  00539	89 45 f4	 mov	 DWORD PTR _rt$[ebp], eax

; 210  : 	mixerClose(hmixer);

  0053c	8b 55 fc	 mov	 edx, DWORD PTR _hmixer$[ebp]
  0053f	52		 push	 edx
  00540	ff 15 00 00 00
	00		 call	 DWORD PTR __imp__mixerClose@4

; 211  : 	return rt;

  00546	8b 45 f4	 mov	 eax, DWORD PTR _rt$[ebp]
$L200195:

; 212  : 
; 213  : }

  00549	8b 4d f0	 mov	 ecx, DWORD PTR __$ArrayPad$[ebp]
  0054c	e8 00 00 00 00	 call	 @__security_check_cookie@4
  00551	8b e5		 mov	 esp, ebp
  00553	5d		 pop	 ebp
  00554	c2 04 00	 ret	 4
?GetVolume@CMixer@@QAEIW4MixerDeice@1@@Z ENDP		; CMixer::GetVolume
_TEXT	ENDS
PUBLIC	?SetVolume@CMixer@@QAE_NW4MixerDeice@1@J@Z	; CMixer::SetVolume
; Function compile flags: /Odt
_TEXT	SEGMENT
tv64 = -176						; size = 4
_this$ = -172						; size = 4
_volCtrl$ = -168					; size = 148
__$ArrayPad$ = -16					; size = 4
_device$ = -12						; size = 4
_hmixer$ = -8						; size = 4
_rc$ = -1						; size = 1
__$ReturnAddr$ = 4					; size = 4
_dev$ = 8						; size = 4
_vol$ = 12						; size = 4
?SetVolume@CMixer@@QAE_NW4MixerDeice@1@J@Z PROC NEAR	; CMixer::SetVolume
; _this$ = ecx

; 218  : {

  00560	55		 push	 ebp
  00561	8b ec		 mov	 ebp, esp
  00563	81 ec b0 00 00
	00		 sub	 esp, 176		; 000000b0H
  00569	a1 00 00 00 00	 mov	 eax, DWORD PTR ___security_cookie
  0056e	89 45 f0	 mov	 DWORD PTR __$ArrayPad$[ebp], eax
  00571	89 8d 54 ff ff
	ff		 mov	 DWORD PTR _this$[ebp], ecx

; 219  : 	// dev =0,1,2   分别表示主音量,波形,MIDI ,LINE IN
; 220  : 	// vol=0-m_VolRange      表示音量的大小 , 设置与返回音量的值用的是百分比，即音量从0 - m_VolRange ，而不是设备的绝对值
; 221  : 	// retrun false 表示设置音量的大小的操作不成功
; 222  : 	// retrun true 表示设置音量的大小的操作成功
; 223  : 
; 224  : 	long device;
; 225  : 	bool rc=false;

  00577	c6 45 ff 00	 mov	 BYTE PTR _rc$[ebp], 0

; 226  : 	MIXERCONTROL volCtrl;
; 227  : 	HMIXER hmixer;
; 228  : 	switch (dev)

  0057b	8b 45 08	 mov	 eax, DWORD PTR _dev$[ebp]
  0057e	89 85 50 ff ff
	ff		 mov	 DWORD PTR tv64[ebp], eax
  00584	83 bd 50 ff ff
	ff 01		 cmp	 DWORD PTR tv64[ebp], 1
  0058b	74 14		 je	 SHORT $L200223
  0058d	83 bd 50 ff ff
	ff 02		 cmp	 DWORD PTR tv64[ebp], 2
  00594	74 14		 je	 SHORT $L200224
  00596	83 bd 50 ff ff
	ff 03		 cmp	 DWORD PTR tv64[ebp], 3
  0059d	74 14		 je	 SHORT $L200225
  0059f	eb 1b		 jmp	 SHORT $L200226
$L200223:

; 229  : 	{
; 230  : 	case WAVEOUT:
; 231  : 		device=MIXERLINE_COMPONENTTYPE_SRC_WAVEOUT; break;

  005a1	c7 45 f4 08 10
	00 00		 mov	 DWORD PTR _device$[ebp], 4104 ; 00001008H
  005a8	eb 19		 jmp	 SHORT $L200220
$L200224:

; 232  : 	case SYNTHESIZER:
; 233  : 		device=MIXERLINE_COMPONENTTYPE_SRC_SYNTHESIZER; break;

  005aa	c7 45 f4 04 10
	00 00		 mov	 DWORD PTR _device$[ebp], 4100 ; 00001004H
  005b1	eb 10		 jmp	 SHORT $L200220
$L200225:

; 234  : 	case MICROPHONE:
; 235  : 
; 236  : 		// device=MIXERLINE_COMPONENTTYPE_SRC_COMPACTDISC; break; // cd 音量
; 237  : 		device=MIXERLINE_COMPONENTTYPE_SRC_MICROPHONE; break;   //麦克风音量

  005b3	c7 45 f4 03 10
	00 00		 mov	 DWORD PTR _device$[ebp], 4099 ; 00001003H
  005ba	eb 07		 jmp	 SHORT $L200220
$L200226:

; 238  : 		// device=MIXERLINE_COMPONENTTYPE_SRC_LINE; break;         //PC 扬声器音量
; 239  : 		//device=MIXERLINE_COMPONENTTYPE_SRC_COMPACTDISC; break;
; 240  : 	default:
; 241  : 		device=MIXERLINE_COMPONENTTYPE_DST_SPEAKERS;

  005bc	c7 45 f4 04 00
	00 00		 mov	 DWORD PTR _device$[ebp], 4
$L200220:

; 242  : 	}
; 243  : 
; 244  : 	if(mixerOpen(&hmixer, 0, 0, 0, 0)) return 0;

  005c3	6a 00		 push	 0
  005c5	6a 00		 push	 0
  005c7	6a 00		 push	 0
  005c9	6a 00		 push	 0
  005cb	8d 4d f8	 lea	 ecx, DWORD PTR _hmixer$[ebp]
  005ce	51		 push	 ecx
  005cf	ff 15 00 00 00
	00		 call	 DWORD PTR __imp__mixerOpen@20
  005d5	85 c0		 test	 eax, eax
  005d7	74 04		 je	 SHORT $L200227
  005d9	32 c0		 xor	 al, al
  005db	eb 6c		 jmp	 SHORT $L200214
$L200227:

; 245  : 
; 246  : 	if(GetVolumeControl(hmixer,device,MIXERCONTROL_CONTROLTYPE_VOLUME,&volCtrl))

  005dd	8d 95 58 ff ff
	ff		 lea	 edx, DWORD PTR _volCtrl$[ebp]
  005e3	52		 push	 edx
  005e4	68 01 00 03 50	 push	 1342373889		; 50030001H
  005e9	8b 45 f4	 mov	 eax, DWORD PTR _device$[ebp]
  005ec	50		 push	 eax
  005ed	8b 4d f8	 mov	 ecx, DWORD PTR _hmixer$[ebp]
  005f0	51		 push	 ecx
  005f1	8b 8d 54 ff ff
	ff		 mov	 ecx, DWORD PTR _this$[ebp]
  005f7	e8 00 00 00 00	 call	 ?GetVolumeControl@CMixer@@AAE_NPAUHMIXER__@@JJPAUtagMIXERCONTROLA@@@Z ; CMixer::GetVolumeControl
  005fc	0f b6 d0	 movzx	 edx, al
  005ff	85 d2		 test	 edx, edx
  00601	74 39		 je	 SHORT $L200228

; 247  : 	{
; 248  : 		vol=vol*volCtrl.Bounds.lMaximum/m_VolRange ;

  00603	8b 45 0c	 mov	 eax, DWORD PTR _vol$[ebp]
  00606	0f af 45 c0	 imul	 eax, DWORD PTR _volCtrl$[ebp+104]
  0060a	8b 8d 54 ff ff
	ff		 mov	 ecx, DWORD PTR _this$[ebp]
  00610	99		 cdq
  00611	f7 79 04	 idiv	 DWORD PTR [ecx+4]
  00614	89 45 0c	 mov	 DWORD PTR _vol$[ebp], eax

; 249  : 		if(SetVolumeValue(hmixer,&volCtrl,vol))

  00617	8b 55 0c	 mov	 edx, DWORD PTR _vol$[ebp]
  0061a	52		 push	 edx
  0061b	8d 85 58 ff ff
	ff		 lea	 eax, DWORD PTR _volCtrl$[ebp]
  00621	50		 push	 eax
  00622	8b 4d f8	 mov	 ecx, DWORD PTR _hmixer$[ebp]
  00625	51		 push	 ecx
  00626	8b 8d 54 ff ff
	ff		 mov	 ecx, DWORD PTR _this$[ebp]
  0062c	e8 00 00 00 00	 call	 ?SetVolumeValue@CMixer@@AAE_NPAUHMIXER__@@PAUtagMIXERCONTROLA@@J@Z ; CMixer::SetVolumeValue
  00631	0f b6 d0	 movzx	 edx, al
  00634	85 d2		 test	 edx, edx
  00636	74 04		 je	 SHORT $L200228

; 250  : 			rc=true;

  00638	c6 45 ff 01	 mov	 BYTE PTR _rc$[ebp], 1
$L200228:

; 251  : 	}
; 252  : 	mixerClose(hmixer);

  0063c	8b 45 f8	 mov	 eax, DWORD PTR _hmixer$[ebp]
  0063f	50		 push	 eax
  00640	ff 15 00 00 00
	00		 call	 DWORD PTR __imp__mixerClose@4

; 253  : 	return rc;

  00646	8a 45 ff	 mov	 al, BYTE PTR _rc$[ebp]
$L200214:

; 254  : }

  00649	8b 4d f0	 mov	 ecx, DWORD PTR __$ArrayPad$[ebp]
  0064c	e8 00 00 00 00	 call	 @__security_check_cookie@4
  00651	8b e5		 mov	 esp, ebp
  00653	5d		 pop	 ebp
  00654	c2 08 00	 ret	 8
?SetVolume@CMixer@@QAE_NW4MixerDeice@1@J@Z ENDP		; CMixer::SetVolume
_TEXT	ENDS
PUBLIC	?SetMute@CMixer@@QAE_NW4MixerDeice@1@_N@Z	; CMixer::SetMute
; Function compile flags: /Odt
_TEXT	SEGMENT
tv64 = -176						; size = 4
_this$ = -172						; size = 4
_volCtrl$ = -168					; size = 148
__$ArrayPad$ = -16					; size = 4
_device$ = -12						; size = 4
_hmixer$ = -8						; size = 4
_rc$ = -1						; size = 1
__$ReturnAddr$ = 4					; size = 4
_dev$ = 8						; size = 4
_vol$ = 12						; size = 1
?SetMute@CMixer@@QAE_NW4MixerDeice@1@_N@Z PROC NEAR	; CMixer::SetMute
; _this$ = ecx

; 259  : {

  00660	55		 push	 ebp
  00661	8b ec		 mov	 ebp, esp
  00663	81 ec b0 00 00
	00		 sub	 esp, 176		; 000000b0H
  00669	a1 00 00 00 00	 mov	 eax, DWORD PTR ___security_cookie
  0066e	89 45 f0	 mov	 DWORD PTR __$ArrayPad$[ebp], eax
  00671	89 8d 54 ff ff
	ff		 mov	 DWORD PTR _this$[ebp], ecx

; 260  : 	// dev =0,1,2   分别表示主音量,波形,MIDI ,LINE IN
; 261  : 	// vol=0,1      分别表示取消静音,设置静音
; 262  : 	// retrun false 表示取消或设置静音操作不成功
; 263  : 	// retrun true 表示取消或设置静音操作成功
; 264  : 
; 265  : 	long device;
; 266  : 	bool rc=false;

  00677	c6 45 ff 00	 mov	 BYTE PTR _rc$[ebp], 0

; 267  : 	MIXERCONTROL volCtrl;
; 268  : 	HMIXER hmixer;
; 269  : 	switch (dev)

  0067b	8b 45 08	 mov	 eax, DWORD PTR _dev$[ebp]
  0067e	89 85 50 ff ff
	ff		 mov	 DWORD PTR tv64[ebp], eax
  00684	83 bd 50 ff ff
	ff 01		 cmp	 DWORD PTR tv64[ebp], 1
  0068b	74 14		 je	 SHORT $L200243
  0068d	83 bd 50 ff ff
	ff 02		 cmp	 DWORD PTR tv64[ebp], 2
  00694	74 14		 je	 SHORT $L200244
  00696	83 bd 50 ff ff
	ff 03		 cmp	 DWORD PTR tv64[ebp], 3
  0069d	74 14		 je	 SHORT $L200245
  0069f	eb 1b		 jmp	 SHORT $L200246
$L200243:

; 270  : 	{
; 271  : 	case WAVEOUT:
; 272  : 		device=MIXERLINE_COMPONENTTYPE_SRC_WAVEOUT; break;

  006a1	c7 45 f4 08 10
	00 00		 mov	 DWORD PTR _device$[ebp], 4104 ; 00001008H
  006a8	eb 19		 jmp	 SHORT $L200240
$L200244:

; 273  : 	case SYNTHESIZER:
; 274  : 		device=MIXERLINE_COMPONENTTYPE_SRC_SYNTHESIZER; break;

  006aa	c7 45 f4 04 10
	00 00		 mov	 DWORD PTR _device$[ebp], 4100 ; 00001004H
  006b1	eb 10		 jmp	 SHORT $L200240
$L200245:

; 275  : 	case MICROPHONE:
; 276  : 		// device=MIXERLINE_COMPONENTTYPE_SRC_COMPACTDISC; break; // cd 音量
; 277  : 		device=MIXERLINE_COMPONENTTYPE_SRC_MICROPHONE; break;   //麦克风音量

  006b3	c7 45 f4 03 10
	00 00		 mov	 DWORD PTR _device$[ebp], 4099 ; 00001003H
  006ba	eb 07		 jmp	 SHORT $L200240
$L200246:

; 278  : 		// device=MIXERLINE_COMPONENTTYPE_SRC_LINE; break;         //PC 扬声器音量
; 279  : 		//device=MIXERLINE_COMPONENTTYPE_SRC_COMPACTDISC; break;
; 280  : 
; 281  : 	default:
; 282  : 		device=MIXERLINE_COMPONENTTYPE_DST_SPEAKERS;

  006bc	c7 45 f4 04 00
	00 00		 mov	 DWORD PTR _device$[ebp], 4
$L200240:

; 283  : 	}
; 284  : 
; 285  : 	if(mixerOpen(&hmixer, 0, 0, 0, 0)) return 0;

  006c3	6a 00		 push	 0
  006c5	6a 00		 push	 0
  006c7	6a 00		 push	 0
  006c9	6a 00		 push	 0
  006cb	8d 4d f8	 lea	 ecx, DWORD PTR _hmixer$[ebp]
  006ce	51		 push	 ecx
  006cf	ff 15 00 00 00
	00		 call	 DWORD PTR __imp__mixerOpen@20
  006d5	85 c0		 test	 eax, eax
  006d7	74 04		 je	 SHORT $L200247
  006d9	32 c0		 xor	 al, al
  006db	eb 58		 jmp	 SHORT $L200234
$L200247:

; 286  : 	if(GetVolumeControl(hmixer,device,MIXERCONTROL_CONTROLTYPE_MUTE,&volCtrl))

  006dd	8d 95 58 ff ff
	ff		 lea	 edx, DWORD PTR _volCtrl$[ebp]
  006e3	52		 push	 edx
  006e4	68 02 00 01 20	 push	 536936450		; 20010002H
  006e9	8b 45 f4	 mov	 eax, DWORD PTR _device$[ebp]
  006ec	50		 push	 eax
  006ed	8b 4d f8	 mov	 ecx, DWORD PTR _hmixer$[ebp]
  006f0	51		 push	 ecx
  006f1	8b 8d 54 ff ff
	ff		 mov	 ecx, DWORD PTR _this$[ebp]
  006f7	e8 00 00 00 00	 call	 ?GetVolumeControl@CMixer@@AAE_NPAUHMIXER__@@JJPAUtagMIXERCONTROLA@@@Z ; CMixer::GetVolumeControl
  006fc	0f b6 d0	 movzx	 edx, al
  006ff	85 d2		 test	 edx, edx
  00701	74 25		 je	 SHORT $L200248

; 287  : 		if(SetMuteValue(hmixer,&volCtrl,(bool)vol))

  00703	8a 45 0c	 mov	 al, BYTE PTR _vol$[ebp]
  00706	50		 push	 eax
  00707	8d 8d 58 ff ff
	ff		 lea	 ecx, DWORD PTR _volCtrl$[ebp]
  0070d	51		 push	 ecx
  0070e	8b 55 f8	 mov	 edx, DWORD PTR _hmixer$[ebp]
  00711	52		 push	 edx
  00712	8b 8d 54 ff ff
	ff		 mov	 ecx, DWORD PTR _this$[ebp]
  00718	e8 00 00 00 00	 call	 ?SetMuteValue@CMixer@@AAE_NPAUHMIXER__@@PAUtagMIXERCONTROLA@@_N@Z ; CMixer::SetMuteValue
  0071d	0f b6 c0	 movzx	 eax, al
  00720	85 c0		 test	 eax, eax
  00722	74 04		 je	 SHORT $L200248

; 288  : 			rc=true;

  00724	c6 45 ff 01	 mov	 BYTE PTR _rc$[ebp], 1
$L200248:

; 289  : 	mixerClose(hmixer);

  00728	8b 4d f8	 mov	 ecx, DWORD PTR _hmixer$[ebp]
  0072b	51		 push	 ecx
  0072c	ff 15 00 00 00
	00		 call	 DWORD PTR __imp__mixerClose@4

; 290  : 	return rc;

  00732	8a 45 ff	 mov	 al, BYTE PTR _rc$[ebp]
$L200234:

; 291  : }

  00735	8b 4d f0	 mov	 ecx, DWORD PTR __$ArrayPad$[ebp]
  00738	e8 00 00 00 00	 call	 @__security_check_cookie@4
  0073d	8b e5		 mov	 esp, ebp
  0073f	5d		 pop	 ebp
  00740	c2 08 00	 ret	 8
?SetMute@CMixer@@QAE_NW4MixerDeice@1@_N@Z ENDP		; CMixer::SetMute
_TEXT	ENDS
PUBLIC	?GetMute@CMixer@@QAE_NW4MixerDeice@1@@Z		; CMixer::GetMute
; Function compile flags: /Odt
_TEXT	SEGMENT
tv64 = -176						; size = 4
_this$ = -172						; size = 4
_volCtrl$ = -168					; size = 148
__$ArrayPad$ = -16					; size = 4
_device$ = -12						; size = 4
_hmixer$ = -8						; size = 4
_rc$ = -1						; size = 1
__$ReturnAddr$ = 4					; size = 4
_dev$ = 8						; size = 4
?GetMute@CMixer@@QAE_NW4MixerDeice@1@@Z PROC NEAR	; CMixer::GetMute
; _this$ = ecx

; 296  : {

  00750	55		 push	 ebp
  00751	8b ec		 mov	 ebp, esp
  00753	81 ec b0 00 00
	00		 sub	 esp, 176		; 000000b0H
  00759	a1 00 00 00 00	 mov	 eax, DWORD PTR ___security_cookie
  0075e	89 45 f0	 mov	 DWORD PTR __$ArrayPad$[ebp], eax
  00761	89 8d 54 ff ff
	ff		 mov	 DWORD PTR _this$[ebp], ecx

; 297  : 	//dev =0,1,2 分别表示主音量，波形,MIDI ,LINE IN
; 298  : 	// retrun false 表示没有静音
; 299  : 	// retrun true 表示静音
; 300  : 	long device;
; 301  : 	bool rc=false;

  00767	c6 45 ff 00	 mov	 BYTE PTR _rc$[ebp], 0

; 302  : 	MIXERCONTROL volCtrl;
; 303  : 	HMIXER hmixer;
; 304  : 	switch (dev)

  0076b	8b 45 08	 mov	 eax, DWORD PTR _dev$[ebp]
  0076e	89 85 50 ff ff
	ff		 mov	 DWORD PTR tv64[ebp], eax
  00774	83 bd 50 ff ff
	ff 01		 cmp	 DWORD PTR tv64[ebp], 1
  0077b	74 14		 je	 SHORT $L200263
  0077d	83 bd 50 ff ff
	ff 02		 cmp	 DWORD PTR tv64[ebp], 2
  00784	74 14		 je	 SHORT $L200264
  00786	83 bd 50 ff ff
	ff 03		 cmp	 DWORD PTR tv64[ebp], 3
  0078d	74 14		 je	 SHORT $L200265
  0078f	eb 1b		 jmp	 SHORT $L200266
$L200263:

; 305  : 	{
; 306  : 	case WAVEOUT:
; 307  : 		device=MIXERLINE_COMPONENTTYPE_SRC_WAVEOUT; break;

  00791	c7 45 f4 08 10
	00 00		 mov	 DWORD PTR _device$[ebp], 4104 ; 00001008H
  00798	eb 19		 jmp	 SHORT $L200260
$L200264:

; 308  : 	case SYNTHESIZER:
; 309  : 		device=MIXERLINE_COMPONENTTYPE_SRC_SYNTHESIZER; break;

  0079a	c7 45 f4 04 10
	00 00		 mov	 DWORD PTR _device$[ebp], 4100 ; 00001004H
  007a1	eb 10		 jmp	 SHORT $L200260
$L200265:

; 310  : 	case MICROPHONE:  
; 311  : 		// device=MIXERLINE_COMPONENTTYPE_SRC_COMPACTDISC; break; // cd 音量
; 312  : 		//device=MIXERLINE_COMPONENTTYPE_SRC_MICROPHONE; break;   //麦克风音量
; 313  : 		// device=MIXERLINE_COMPONENTTYPE_SRC_LINE; break;         //PC 扬声器音量
; 314  : 		//device=MIXERLINE_COMPONENTTYPE_SRC_COMPACTDISC; break;
; 315  : 		device=MIXERLINE_COMPONENTTYPE_DST_WAVEIN; break;

  007a3	c7 45 f4 07 00
	00 00		 mov	 DWORD PTR _device$[ebp], 7
  007aa	eb 07		 jmp	 SHORT $L200260
$L200266:

; 316  : 	default:
; 317  : 		device=MIXERLINE_COMPONENTTYPE_DST_SPEAKERS;

  007ac	c7 45 f4 04 00
	00 00		 mov	 DWORD PTR _device$[ebp], 4
$L200260:

; 318  : 	}
; 319  : 
; 320  : 	if(mixerOpen(&hmixer, 0, 0, 0, 0)) return 0;

  007b3	6a 00		 push	 0
  007b5	6a 00		 push	 0
  007b7	6a 00		 push	 0
  007b9	6a 00		 push	 0
  007bb	8d 4d f8	 lea	 ecx, DWORD PTR _hmixer$[ebp]
  007be	51		 push	 ecx
  007bf	ff 15 00 00 00
	00		 call	 DWORD PTR __imp__mixerOpen@20
  007c5	85 c0		 test	 eax, eax
  007c7	74 04		 je	 SHORT $L200267
  007c9	32 c0		 xor	 al, al
  007cb	eb 51		 jmp	 SHORT $L200254
$L200267:

; 321  : 
; 322  : 	if(GetVolumeControl(hmixer,device,MIXERCONTROL_CONTROLTYPE_MUTE,&volCtrl))

  007cd	8d 95 58 ff ff
	ff		 lea	 edx, DWORD PTR _volCtrl$[ebp]
  007d3	52		 push	 edx
  007d4	68 02 00 01 20	 push	 536936450		; 20010002H
  007d9	8b 45 f4	 mov	 eax, DWORD PTR _device$[ebp]
  007dc	50		 push	 eax
  007dd	8b 4d f8	 mov	 ecx, DWORD PTR _hmixer$[ebp]
  007e0	51		 push	 ecx
  007e1	8b 8d 54 ff ff
	ff		 mov	 ecx, DWORD PTR _this$[ebp]
  007e7	e8 00 00 00 00	 call	 ?GetVolumeControl@CMixer@@AAE_NPAUHMIXER__@@JJPAUtagMIXERCONTROLA@@@Z ; CMixer::GetVolumeControl
  007ec	0f b6 d0	 movzx	 edx, al
  007ef	85 d2		 test	 edx, edx
  007f1	74 1e		 je	 SHORT $L200268

; 323  : 		rc=GetMuteValue(hmixer,&volCtrl);

  007f3	8d 85 58 ff ff
	ff		 lea	 eax, DWORD PTR _volCtrl$[ebp]
  007f9	50		 push	 eax
  007fa	8b 4d f8	 mov	 ecx, DWORD PTR _hmixer$[ebp]
  007fd	51		 push	 ecx
  007fe	8b 8d 54 ff ff
	ff		 mov	 ecx, DWORD PTR _this$[ebp]
  00804	e8 00 00 00 00	 call	 ?GetMuteValue@CMixer@@AAEJPAUHMIXER__@@PAUtagMIXERCONTROLA@@@Z ; CMixer::GetMuteValue
  00809	85 c0		 test	 eax, eax
  0080b	0f 95 c2	 setne	 dl
  0080e	88 55 ff	 mov	 BYTE PTR _rc$[ebp], dl
$L200268:

; 324  : 	mixerClose(hmixer);

  00811	8b 45 f8	 mov	 eax, DWORD PTR _hmixer$[ebp]
  00814	50		 push	 eax
  00815	ff 15 00 00 00
	00		 call	 DWORD PTR __imp__mixerClose@4

; 325  : 	return rc;

  0081b	8a 45 ff	 mov	 al, BYTE PTR _rc$[ebp]
$L200254:

; 326  : 
; 327  : }

  0081e	8b 4d f0	 mov	 ecx, DWORD PTR __$ArrayPad$[ebp]
  00821	e8 00 00 00 00	 call	 @__security_check_cookie@4
  00826	8b e5		 mov	 esp, ebp
  00828	5d		 pop	 ebp
  00829	c2 04 00	 ret	 4
?GetMute@CMixer@@QAE_NW4MixerDeice@1@@Z ENDP		; CMixer::GetMute
_TEXT	ENDS
END
