; Listing generated by Microsoft (R) Optimizing Compiler Version 13.10.3077 

	TITLE	.\src\Gui\CommonControl\MyBtnTreeCtrl.cpp
	.386P
include listing.inc
if @Version gt 510
.model FLAT
else
_TEXT	SEGMENT PARA USE32 PUBLIC 'CODE'
_TEXT	ENDS
_DATA	SEGMENT DWORD USE32 PUBLIC 'DATA'
_DATA	ENDS
CONST	SEGMENT DWORD USE32 PUBLIC 'CONST'
CONST	ENDS
_BSS	SEGMENT DWORD USE32 PUBLIC 'BSS'
_BSS	ENDS
$$SYMBOLS	SEGMENT BYTE USE32 'DEBSYM'
$$SYMBOLS	ENDS
$$TYPES	SEGMENT BYTE USE32 'DEBTYP'
$$TYPES	ENDS
_TLS	SEGMENT DWORD USE32 PUBLIC 'TLS'
_TLS	ENDS
rdata$r	SEGMENT DWORD USE32 PUBLIC 'CONST'
rdata$r	ENDS
xdata$x	SEGMENT DWORD USE32 PUBLIC 'CONST'
xdata$x	ENDS
text$AFX_COL1	SEGMENT PARA USE32 PUBLIC ''
text$AFX_COL1	ENDS
text$yc	SEGMENT PARA USE32 PUBLIC 'CODE'
text$yc	ENDS
CRT$XCA	SEGMENT DWORD USE32 PUBLIC 'DATA'
CRT$XCA	ENDS
CRT$XCU	SEGMENT DWORD USE32 PUBLIC 'DATA'
CRT$XCU	ENDS
CRT$XCL	SEGMENT DWORD USE32 PUBLIC 'DATA'
CRT$XCL	ENDS
CRT$XCC	SEGMENT DWORD USE32 PUBLIC 'DATA'
CRT$XCC	ENDS
CRT$XCZ	SEGMENT DWORD USE32 PUBLIC 'DATA'
CRT$XCZ	ENDS
text$yd	SEGMENT PARA USE32 PUBLIC 'CODE'
text$yd	ENDS
ATL$__m	SEGMENT DWORD USE32 PUBLIC ''
ATL$__m	ENDS
ATL$__z	SEGMENT DWORD USE32 PUBLIC ''
ATL$__z	ENDS
ATL$__a	SEGMENT DWORD USE32 PUBLIC ''
ATL$__a	ENDS
;	COMDAT ?ClickTreeItem@CMyTreeCtrl@@UAEXPAU_TREEITEM@@@Z
_TEXT	SEGMENT PARA USE32 PUBLIC 'CODE'
_TEXT	ENDS
;	COMDAT ?RClickTreeItem@CMyTreeCtrl@@UAEXPAU_TREEITEM@@@Z
_TEXT	SEGMENT PARA USE32 PUBLIC 'CODE'
_TEXT	ENDS
;	COMDAT ?DClickTreeItem@CMyTreeCtrl@@UAEXPAU_TREEITEM@@@Z
_TEXT	SEGMENT PARA USE32 PUBLIC 'CODE'
_TEXT	ENDS
;	COMDAT ??_GCMyBtnTreeCtrl@@UAEPAXI@Z
_TEXT	SEGMENT PARA USE32 PUBLIC 'CODE'
_TEXT	ENDS
;	COMDAT ??B?$CComPtrBase@UITypeInfo2@@@ATL@@QBEPAUITypeInfo2@@XZ
_TEXT	SEGMENT PARA USE32 PUBLIC 'CODE'
_TEXT	ENDS
;	COMDAT ?equal@?$istreambuf_iterator@DU?$char_traits@D@std@@@std@@QBE_NABV12@@Z
_TEXT	SEGMENT PARA USE32 PUBLIC 'CODE'
_TEXT	ENDS
;	COMDAT ?equal@?$istreambuf_iterator@_WU?$char_traits@_W@std@@@std@@QBE_NABV12@@Z
_TEXT	SEGMENT PARA USE32 PUBLIC 'CODE'
_TEXT	ENDS
;	COMDAT ?Unlock@?$CComCritSecLock@VCComCriticalSection@ATL@@@ATL@@QAEXXZ
_TEXT	SEGMENT PARA USE32 PUBLIC 'CODE'
_TEXT	ENDS
;	COMDAT ??$_Maklocstr@D@std@@YAPADPBDPADABU_Cvtvec@@@Z
_TEXT	SEGMENT PARA USE32 PUBLIC 'CODE'
_TEXT	ENDS
;	COMDAT ??_R3CMyBtnTreeCtrl@@8
rdata$r	SEGMENT DWORD USE32 PUBLIC 'CONST'
rdata$r	ENDS
;	COMDAT ??_R3?$numpunct@_W@std@@8
rdata$r	SEGMENT DWORD USE32 PUBLIC 'CONST'
rdata$r	ENDS
;	COMDAT ??_R3?$numpunct@D@std@@8
rdata$r	SEGMENT DWORD USE32 PUBLIC 'CONST'
rdata$r	ENDS
;	COMDAT ??_R2CMyBtnTreeCtrl@@8
rdata$r	SEGMENT DWORD USE32 PUBLIC 'CONST'
rdata$r	ENDS
;	COMDAT ??_R2?$numpunct@_W@std@@8
rdata$r	SEGMENT DWORD USE32 PUBLIC 'CONST'
rdata$r	ENDS
;	COMDAT ??_R2?$numpunct@D@std@@8
rdata$r	SEGMENT DWORD USE32 PUBLIC 'CONST'
rdata$r	ENDS
;	COMDAT ??_R1A@?0A@A@CObject@@8
rdata$r	SEGMENT DWORD USE32 PUBLIC 'CONST'
rdata$r	ENDS
;	COMDAT ??_R0?AVCObject@@@8
_DATA	SEGMENT DWORD USE32 PUBLIC 'DATA'
_DATA	ENDS
;	COMDAT ??_R1A@?0A@A@CCmdTarget@@8
rdata$r	SEGMENT DWORD USE32 PUBLIC 'CONST'
rdata$r	ENDS
;	COMDAT ??_R0?AVCCmdTarget@@@8
_DATA	SEGMENT DWORD USE32 PUBLIC 'DATA'
_DATA	ENDS
;	COMDAT ??_R1A@?0A@A@CWnd@@8
rdata$r	SEGMENT DWORD USE32 PUBLIC 'CONST'
rdata$r	ENDS
;	COMDAT ??_R0?AVCWnd@@@8
_DATA	SEGMENT DWORD USE32 PUBLIC 'DATA'
_DATA	ENDS
;	COMDAT ??_R1A@?0A@A@CTreeCtrl@@8
rdata$r	SEGMENT DWORD USE32 PUBLIC 'CONST'
rdata$r	ENDS
;	COMDAT ??_R0?AVCTreeCtrl@@@8
_DATA	SEGMENT DWORD USE32 PUBLIC 'DATA'
_DATA	ENDS
;	COMDAT ??_R1A@?0A@A@CMyTreeCtrl@@8
rdata$r	SEGMENT DWORD USE32 PUBLIC 'CONST'
rdata$r	ENDS
;	COMDAT ??_R1A@?0A@A@CMyBtnTreeCtrl@@8
rdata$r	SEGMENT DWORD USE32 PUBLIC 'CONST'
rdata$r	ENDS
;	COMDAT ??_R1A@?0A@A@?$numpunct@_W@std@@8
rdata$r	SEGMENT DWORD USE32 PUBLIC 'CONST'
rdata$r	ENDS
;	COMDAT ??_R1A@?0A@A@facet@locale@std@@8
rdata$r	SEGMENT DWORD USE32 PUBLIC 'CONST'
rdata$r	ENDS
;	COMDAT ??_R0?AVfacet@locale@std@@@8
_DATA	SEGMENT DWORD USE32 PUBLIC 'DATA'
_DATA	ENDS
;	COMDAT ??_R1A@?0A@A@?$numpunct@D@std@@8
rdata$r	SEGMENT DWORD USE32 PUBLIC 'CONST'
rdata$r	ENDS
;	COMDAT ??_R0?AVCMyTreeCtrl@@@8
_DATA	SEGMENT DWORD USE32 PUBLIC 'DATA'
_DATA	ENDS
;	COMDAT ??_R0?AVCMyBtnTreeCtrl@@@8
_DATA	SEGMENT DWORD USE32 PUBLIC 'DATA'
_DATA	ENDS
;	COMDAT ??_R0?AV?$numpunct@_W@std@@@8
_DATA	SEGMENT DWORD USE32 PUBLIC 'DATA'
_DATA	ENDS
;	COMDAT ??_R0?AV?$numpunct@D@std@@@8
_DATA	SEGMENT DWORD USE32 PUBLIC 'DATA'
_DATA	ENDS
;	COMDAT ?EndModalState@CWnd@@UAEXXZ
_TEXT	SEGMENT PARA USE32 PUBLIC 'CODE'
_TEXT	ENDS
;	COMDAT ?BeginModalState@CWnd@@UAEXXZ
_TEXT	SEGMENT PARA USE32 PUBLIC 'CODE'
_TEXT	ENDS
;	COMDAT ?DoDataExchange@CWnd@@MAEXPAVCDataExchange@@@Z
_TEXT	SEGMENT PARA USE32 PUBLIC 'CODE'
_TEXT	ENDS
;	COMDAT ?Dump@CObject@@UBEXAAVCDumpContext@@@Z
_TEXT	SEGMENT PARA USE32 PUBLIC 'CODE'
_TEXT	ENDS
;	COMDAT ?AssertValid@CObject@@UBEXXZ
_TEXT	SEGMENT PARA USE32 PUBLIC 'CODE'
_TEXT	ENDS
;	COMDAT ?Serialize@CObject@@UAEXAAVCArchive@@@Z
_TEXT	SEGMENT PARA USE32 PUBLIC 'CODE'
_TEXT	ENDS
;	COMDAT ??_R4CMyBtnTreeCtrl@@6B@
rdata$r	SEGMENT DWORD USE32 PUBLIC 'CONST'
rdata$r	ENDS
;	COMDAT ??0?$allocator@_W@std@@QAE@XZ
_TEXT	SEGMENT PARA USE32 PUBLIC 'CODE'
_TEXT	ENDS
;	COMDAT ??0?$allocator@D@std@@QAE@ABV01@@Z
_TEXT	SEGMENT PARA USE32 PUBLIC 'CODE'
_TEXT	ENDS
;	COMDAT ??0?$allocator@D@std@@QAE@XZ
_TEXT	SEGMENT PARA USE32 PUBLIC 'CODE'
_TEXT	ENDS
;	COMDAT ?deallocate@?$allocator@D@std@@QAEXPADI@Z
_TEXT	SEGMENT PARA USE32 PUBLIC 'CODE'
_TEXT	ENDS
;	COMDAT ?max_size@?$allocator@D@std@@QBEIXZ
_TEXT	SEGMENT PARA USE32 PUBLIC 'CODE'
_TEXT	ENDS
;	COMDAT ?allocate@?$allocator@D@std@@QAEPADI@Z
_TEXT	SEGMENT PARA USE32 PUBLIC 'CODE'
_TEXT	ENDS
;	COMDAT ??$_Allocate@D@std@@YAPADIPAD@Z
_TEXT	SEGMENT PARA USE32 PUBLIC 'CODE'
_TEXT	ENDS
;	COMDAT ??_G?$numpunct@_W@std@@MAEPAXI@Z
_TEXT	SEGMENT PARA USE32 PUBLIC 'CODE'
_TEXT	ENDS
;	COMDAT ??_R4?$numpunct@_W@std@@6B@
rdata$r	SEGMENT DWORD USE32 PUBLIC 'CONST'
rdata$r	ENDS
;	COMDAT ??_G?$numpunct@D@std@@MAEPAXI@Z
_TEXT	SEGMENT PARA USE32 PUBLIC 'CODE'
_TEXT	ENDS
;	COMDAT ??_R4?$numpunct@D@std@@6B@
rdata$r	SEGMENT DWORD USE32 PUBLIC 'CONST'
rdata$r	ENDS
;	COMDAT ?_Psave@?$_Facetptr@V?$numpunct@_W@std@@@std@@2PBVfacet@locale@2@B
_DATA	SEGMENT DWORD USE32 PUBLIC 'DATA'
_DATA	ENDS
;	COMDAT ?_Psave@?$_Facetptr@V?$numpunct@D@std@@@std@@2PBVfacet@locale@2@B
_DATA	SEGMENT DWORD USE32 PUBLIC 'DATA'
_DATA	ENDS
;	COMDAT ?Unlock@CComCriticalSection@ATL@@QAEJXZ
_TEXT	SEGMENT PARA USE32 PUBLIC 'CODE'
_TEXT	ENDS
;	COMDAT ?_Psave@?$_Facetptr@V?$ctype@_W@std@@@std@@2PBVfacet@locale@2@B
_DATA	SEGMENT DWORD USE32 PUBLIC 'DATA'
_DATA	ENDS
;	COMDAT ?_Psave@?$_Facetptr@V?$ctype@D@std@@@std@@2PBVfacet@locale@2@B
_DATA	SEGMENT DWORD USE32 PUBLIC 'DATA'
_DATA	ENDS
;	COMDAT ??$_Maklocchr@_W@std@@YA_WDPA_WABU_Cvtvec@@@Z
_TEXT	SEGMENT PARA USE32 PUBLIC 'CODE'
_TEXT	ENDS
;	COMDAT ??$_Maklocstr@_W@std@@YAPA_WPBDPA_WABU_Cvtvec@@@Z
_TEXT	SEGMENT PARA USE32 PUBLIC 'CODE'
_TEXT	ENDS
;	COMDAT ??$_Maklocchr@D@std@@YADDPADABU_Cvtvec@@@Z
_TEXT	SEGMENT PARA USE32 PUBLIC 'CODE'
_TEXT	ENDS
;	COMDAT ??_C@_04LOAJBDKD@true?$AA@
CONST	SEGMENT DWORD USE32 PUBLIC 'CONST'
CONST	ENDS
;	COMDAT ??_C@_05LAPONLG@false?$AA@
CONST	SEGMENT DWORD USE32 PUBLIC 'CONST'
CONST	ENDS
;	COMDAT _wmemcpy
_TEXT	SEGMENT PARA USE32 PUBLIC 'CODE'
_TEXT	ENDS
;	COMDAT ?max_size@?$allocator@_W@std@@QBEIXZ
_TEXT	SEGMENT PARA USE32 PUBLIC 'CODE'
_TEXT	ENDS
;	COMDAT ?allocate@?$allocator@_W@std@@QAEPA_WI@Z
_TEXT	SEGMENT PARA USE32 PUBLIC 'CODE'
_TEXT	ENDS
;	COMDAT ??$_Allocate@_W@std@@YAPA_WIPA_W@Z
_TEXT	SEGMENT PARA USE32 PUBLIC 'CODE'
_TEXT	ENDS
;	COMDAT ??_C@_01GFHCPBMG@C?$AA@
CONST	SEGMENT DWORD USE32 PUBLIC 'CONST'
CONST	ENDS
;	COMDAT ?_Peek@?$istreambuf_iterator@_WU?$char_traits@_W@std@@@std@@AAE_WXZ
_TEXT	SEGMENT PARA USE32 PUBLIC 'CODE'
_TEXT	ENDS
;	COMDAT ?_Peek@?$istreambuf_iterator@DU?$char_traits@D@std@@@std@@AAEDXZ
_TEXT	SEGMENT PARA USE32 PUBLIC 'CODE'
_TEXT	ENDS
;	COMDAT ??$use_facet@V?$ctype@_W@std@@@std@@YAABV?$ctype@_W@0@ABVlocale@0@@Z
_TEXT	SEGMENT PARA USE32 PUBLIC 'CODE'
_TEXT	ENDS
;	COMDAT ??_S?$ctype@_W@std@@6B@
CONST	SEGMENT DWORD USE32 PUBLIC 'CONST'
CONST	ENDS
;	COMDAT ??_R4?$ctype@_W@std@@6B@
rdata$r	SEGMENT DWORD USE32 PUBLIC 'CONST'
rdata$r	ENDS
;	COMDAT ??_R0?AV?$ctype@_W@std@@@8
_DATA	SEGMENT DWORD USE32 PUBLIC 'DATA'
_DATA	ENDS
;	COMDAT ??_R3?$ctype@_W@std@@8
rdata$r	SEGMENT DWORD USE32 PUBLIC 'CONST'
rdata$r	ENDS
;	COMDAT ??_R2?$ctype@_W@std@@8
rdata$r	SEGMENT DWORD USE32 PUBLIC 'CONST'
rdata$r	ENDS
;	COMDAT ??_R1A@?0A@A@?$ctype@_W@std@@8
rdata$r	SEGMENT DWORD USE32 PUBLIC 'CONST'
rdata$r	ENDS
;	COMDAT ??_R1A@?0A@A@ctype_base@std@@8
rdata$r	SEGMENT DWORD USE32 PUBLIC 'CONST'
rdata$r	ENDS
;	COMDAT ??_R0?AUctype_base@std@@@8
_DATA	SEGMENT DWORD USE32 PUBLIC 'DATA'
_DATA	ENDS
;	COMDAT ??_G?$ctype@_W@std@@MAEPAXI@Z
_TEXT	SEGMENT PARA USE32 PUBLIC 'CODE'
_TEXT	ENDS
;	COMDAT ??_C@_08EPJLHIJG@bad?5cast?$AA@
CONST	SEGMENT DWORD USE32 PUBLIC 'CONST'
CONST	ENDS
;	COMDAT __TI2?AVbad_cast@@
xdata$x	SEGMENT DWORD USE32 PUBLIC 'CONST'
xdata$x	ENDS
;	COMDAT __CTA2?AVbad_cast@@
xdata$x	SEGMENT DWORD USE32 PUBLIC 'CONST'
xdata$x	ENDS
;	COMDAT __CT??_R0?AVbad_cast@@@8??0bad_cast@@QAE@ABV0@@Z12
xdata$x	SEGMENT DWORD USE32 PUBLIC 'CONST'
xdata$x	ENDS
;	COMDAT ??_R0?AVbad_cast@@@8
_DATA	SEGMENT DWORD USE32 PUBLIC 'DATA'
_DATA	ENDS
;	COMDAT __CT??_R0?AVexception@@@8??0exception@@QAE@ABV0@@Z12
xdata$x	SEGMENT DWORD USE32 PUBLIC 'CONST'
xdata$x	ENDS
;	COMDAT ??_R0?AVexception@@@8
_DATA	SEGMENT DWORD USE32 PUBLIC 'DATA'
_DATA	ENDS
;	COMDAT ??$use_facet@V?$ctype@D@std@@@std@@YAABV?$ctype@D@0@ABVlocale@0@@Z
_TEXT	SEGMENT PARA USE32 PUBLIC 'CODE'
_TEXT	ENDS
;	COMDAT ??_S?$ctype@D@std@@6B@
CONST	SEGMENT DWORD USE32 PUBLIC 'CONST'
CONST	ENDS
;	COMDAT ??_R4?$ctype@D@std@@6B@
rdata$r	SEGMENT DWORD USE32 PUBLIC 'CONST'
rdata$r	ENDS
;	COMDAT ??_R0?AV?$ctype@D@std@@@8
_DATA	SEGMENT DWORD USE32 PUBLIC 'DATA'
_DATA	ENDS
;	COMDAT ??_R3?$ctype@D@std@@8
rdata$r	SEGMENT DWORD USE32 PUBLIC 'CONST'
rdata$r	ENDS
;	COMDAT ??_R2?$ctype@D@std@@8
rdata$r	SEGMENT DWORD USE32 PUBLIC 'CONST'
rdata$r	ENDS
;	COMDAT ??_R1A@?0A@A@?$ctype@D@std@@8
rdata$r	SEGMENT DWORD USE32 PUBLIC 'CONST'
rdata$r	ENDS
;	COMDAT ??_G?$ctype@D@std@@MAEPAXI@Z
_TEXT	SEGMENT PARA USE32 PUBLIC 'CODE'
_TEXT	ENDS
;	COMDAT ??_S?$numpunct@_W@std@@6B@
CONST	SEGMENT DWORD USE32 PUBLIC 'CONST'
CONST	ENDS
;	COMDAT ??_S?$numpunct@D@std@@6B@
CONST	SEGMENT DWORD USE32 PUBLIC 'CONST'
CONST	ENDS
;	COMDAT _wmemmove
_TEXT	SEGMENT PARA USE32 PUBLIC 'CODE'
_TEXT	ENDS
;	COMDAT ?deallocate@?$allocator@_W@std@@QAEXPA_WI@Z
_TEXT	SEGMENT PARA USE32 PUBLIC 'CODE'
_TEXT	ENDS
;	COMDAT ??0?$allocator@_W@std@@QAE@ABV01@@Z
_TEXT	SEGMENT PARA USE32 PUBLIC 'CODE'
_TEXT	ENDS
;	COMDAT ?PtInRect@CRect@@QBEHUtagPOINT@@@Z
_TEXT	SEGMENT PARA USE32 PUBLIC 'CODE'
_TEXT	ENDS
;	COMDAT ??BCRect@@QAEPAUtagRECT@@XZ
_TEXT	SEGMENT PARA USE32 PUBLIC 'CODE'
_TEXT	ENDS
;	COMDAT ?InvalidateRect@CWnd@@QAEXPBUtagRECT@@H@Z
_TEXT	SEGMENT PARA USE32 PUBLIC 'CODE'
_TEXT	ENDS
;	COMDAT ??0CRect@@QAE@HHHH@Z
_TEXT	SEGMENT PARA USE32 PUBLIC 'CODE'
_TEXT	ENDS
;	COMDAT ?CenterPoint@CRect@@QBE?AVCPoint@@XZ
_TEXT	SEGMENT PARA USE32 PUBLIC 'CODE'
_TEXT	ENDS
;	COMDAT ??0CPoint@@QAE@HH@Z
_TEXT	SEGMENT PARA USE32 PUBLIC 'CODE'
_TEXT	ENDS
;	COMDAT ?Width@CRect@@QBEHXZ
_TEXT	SEGMENT PARA USE32 PUBLIC 'CODE'
_TEXT	ENDS
;	COMDAT ??8CRect@@QBEHABUtagRECT@@@Z
_TEXT	SEGMENT PARA USE32 PUBLIC 'CODE'
_TEXT	ENDS
;	COMDAT ?DrawTextA@CDC@@QAEHABV?$CStringT@DV?$StrTraitMFC_DLL@DV?$ChTraitsCRT@D@ATL@@@@@ATL@@PAUtagRECT@@I@Z
_TEXT	SEGMENT PARA USE32 PUBLIC 'CODE'
_TEXT	ENDS
;	COMDAT ?GetItemHeight@CTreeCtrl@@QBEFXZ
_TEXT	SEGMENT PARA USE32 PUBLIC 'CODE'
_TEXT	ENDS
;	COMDAT ?GetImageInfo@CImageList@@QBEHHPAU_IMAGEINFO@@@Z
_TEXT	SEGMENT PARA USE32 PUBLIC 'CODE'
_TEXT	ENDS
;	COMDAT ?GetFont@CWnd@@QBEPAVCFont@@XZ
_TEXT	SEGMENT PARA USE32 PUBLIC 'CODE'
_TEXT	ENDS
;	COMDAT ?FromHandle@CFont@@SGPAV1@PAUHFONT__@@@Z
_TEXT	SEGMENT PARA USE32 PUBLIC 'CODE'
_TEXT	ENDS
;	COMDAT ?GetTextColor@CDC@@QBEKXZ
_TEXT	SEGMENT PARA USE32 PUBLIC 'CODE'
_TEXT	ENDS
;	COMDAT ?Release@CStringData@ATL@@QAEXXZ
_TEXT	SEGMENT PARA USE32 PUBLIC 'CODE'
_TEXT	ENDS
;	COMDAT ?GetSelectedItem@CTreeCtrl@@QBEPAU_TREEITEM@@XZ
_TEXT	SEGMENT PARA USE32 PUBLIC 'CODE'
_TEXT	ENDS
;	COMDAT ?OnLButtonUp@CWnd@@IAEXIVCPoint@@@Z
_TEXT	SEGMENT PARA USE32 PUBLIC 'CODE'
_TEXT	ENDS
;	COMDAT ?_messageEntries@CMyBtnTreeCtrl@@0QBUAFX_MSGMAP_ENTRY@@B
CONST	SEGMENT DWORD USE32 PUBLIC 'CONST'
CONST	ENDS
;	COMDAT ?messageMap@CMyBtnTreeCtrl@@1UAFX_MSGMAP@@B
CONST	SEGMENT DWORD USE32 PUBLIC 'CONST'
CONST	ENDS
;	COMDAT ??3CObject@@SGXPAX@Z
_TEXT	SEGMENT PARA USE32 PUBLIC 'CODE'
_TEXT	ENDS
;	COMDAT ??0CRect@@QAE@XZ
_TEXT	SEGMENT PARA USE32 PUBLIC 'CODE'
_TEXT	ENDS
;	COMDAT ??_7CMyBtnTreeCtrl@@6B@
CONST	SEGMENT DWORD USE32 PUBLIC 'CONST'
CONST	ENDS
;	COMDAT ?classCMyBtnTreeCtrl@CMyBtnTreeCtrl@@2UCRuntimeClass@@B
CONST	SEGMENT DWORD USE32 PUBLIC 'CONST'
CONST	ENDS
sxdata	SEGMENT DWORD USE32 'SXDATA'
sxdata	ENDS
FLAT	GROUP _DATA, CONST, _BSS
	ASSUME	CS: FLAT, DS: FLAT, SS: FLAT
endif

INCLUDELIB MSVCRT
INCLUDELIB OLDNAMES

PUBLIC	?classCMyBtnTreeCtrl@CMyBtnTreeCtrl@@2UCRuntimeClass@@B ; CMyBtnTreeCtrl::classCMyBtnTreeCtrl
PUBLIC	?_messageEntries@CMyBtnTreeCtrl@@0QBUAFX_MSGMAP_ENTRY@@B ; CMyBtnTreeCtrl::_messageEntries
PUBLIC	?messageMap@CMyBtnTreeCtrl@@1UAFX_MSGMAP@@B	; CMyBtnTreeCtrl::messageMap
PUBLIC	?OnCustomdraw@CMyBtnTreeCtrl@@QAEXPAUtagNMHDR@@PAJ@Z ; CMyBtnTreeCtrl::OnCustomdraw
PUBLIC	?OnMouseMove@CMyBtnTreeCtrl@@QAEXIVCPoint@@@Z	; CMyBtnTreeCtrl::OnMouseMove
PUBLIC	?OnMouseLeave@CMyBtnTreeCtrl@@QAEJIJ@Z		; CMyBtnTreeCtrl::OnMouseLeave
PUBLIC	?OnEraseBkgnd@CMyBtnTreeCtrl@@QAEHPAVCDC@@@Z	; CMyBtnTreeCtrl::OnEraseBkgnd
PUBLIC	?OnLButtonUp@CWnd@@IAEXIVCPoint@@@Z		; CWnd::OnLButtonUp
EXTRN	?GetThisMessageMap@CMyTreeCtrl@@KGPBUAFX_MSGMAP@@XZ:NEAR ; CMyTreeCtrl::GetThisMessageMap
EXTRN	?OnPaint@CMyTreeCtrl@@QAEXXZ:NEAR		; CMyTreeCtrl::OnPaint
EXTRN	?OnSize@CMyTreeCtrl@@QAEXIHH@Z:NEAR		; CMyTreeCtrl::OnSize
EXTRN	?GetThisClass@CMyTreeCtrl@@SGPAUCRuntimeClass@@XZ:NEAR ; CMyTreeCtrl::GetThisClass
EXTRN	?OnDrawItem@CWnd@@IAEXHPAUtagDRAWITEMSTRUCT@@@Z:NEAR ; CWnd::OnDrawItem
CONST	SEGMENT
$SG197821 DB	'CMyBtnTreeCtrl', 00H
CONST	ENDS
;	COMDAT ?classCMyBtnTreeCtrl@CMyBtnTreeCtrl@@2UCRuntimeClass@@B
CONST	SEGMENT
?classCMyBtnTreeCtrl@CMyBtnTreeCtrl@@2UCRuntimeClass@@B DD FLAT:$SG197821 ; CMyBtnTreeCtrl::classCMyBtnTreeCtrl
	DD	0bcH
	DD	0ffffH
	DD	00H
	DD	FLAT:?GetThisClass@CMyTreeCtrl@@SGPAUCRuntimeClass@@XZ
	DD	00H
	DD	00H
CONST	ENDS
;	COMDAT ?_messageEntries@CMyBtnTreeCtrl@@0QBUAFX_MSGMAP_ENTRY@@B
CONST	SEGMENT
?_messageEntries@CMyBtnTreeCtrl@@0QBUAFX_MSGMAP_ENTRY@@B DD 014H ; CMyBtnTreeCtrl::_messageEntries
	DD	00H
	DD	00H
	DD	00H
	DD	01H
	DD	FLAT:?OnEraseBkgnd@CMyBtnTreeCtrl@@QAEHPAVCDC@@@Z
	DD	0fH
	DD	00H
	DD	00H
	DD	00H
	DD	010H
	DD	FLAT:?OnPaint@CMyTreeCtrl@@QAEXXZ
	DD	05H
	DD	00H
	DD	00H
	DD	00H
	DD	016H
	DD	FLAT:?OnSize@CMyTreeCtrl@@QAEXIHH@Z
	DD	02bH
	DD	00H
	DD	00H
	DD	00H
	DD	02bH
	DD	FLAT:?OnDrawItem@CWnd@@IAEXHPAUtagDRAWITEMSTRUCT@@@Z
	DD	0202H
	DD	00H
	DD	00H
	DD	00H
	DD	032H
	DD	FLAT:?OnLButtonUp@CWnd@@IAEXIVCPoint@@@Z
	DD	0200H
	DD	00H
	DD	00H
	DD	00H
	DD	032H
	DD	FLAT:?OnMouseMove@CMyBtnTreeCtrl@@QAEXIVCPoint@@@Z
	DD	02a3H
	DD	00H
	DD	00H
	DD	00H
	DD	0eH
	DD	FLAT:?OnMouseLeave@CMyBtnTreeCtrl@@QAEJIJ@Z
	DD	0bc4eH
	DD	0fff4H
	DD	00H
	DD	00H
	DD	039H
	DD	FLAT:?OnCustomdraw@CMyBtnTreeCtrl@@QAEXPAUtagNMHDR@@PAJ@Z
	DD	00H
	DD	00H
	DD	00H
	DD	00H
	DD	00H
	DD	00H
CONST	ENDS
;	COMDAT ?messageMap@CMyBtnTreeCtrl@@1UAFX_MSGMAP@@B
CONST	SEGMENT
?messageMap@CMyBtnTreeCtrl@@1UAFX_MSGMAP@@B DD FLAT:?GetThisMessageMap@CMyTreeCtrl@@KGPBUAFX_MSGMAP@@XZ ; CMyBtnTreeCtrl::messageMap
	DD	FLAT:?_messageEntries@CMyBtnTreeCtrl@@0QBUAFX_MSGMAP_ENTRY@@B
CONST	ENDS
CONST	SEGMENT
	ORG $+1
$SG197923 DB	'ListBkTop', 00H
	ORG $+2
$SG197930 DB	'ListHoverBK', 00H
CONST	ENDS
PUBLIC	?GetThisClass@CMyBtnTreeCtrl@@SGPAUCRuntimeClass@@XZ ; CMyBtnTreeCtrl::GetThisClass
; Function compile flags: /Odt
; File d:\boxgit\playbox\playbox\dev\prj\playbox\src\gui\commoncontrol\mybtntreectrl.cpp
_TEXT	SEGMENT
?GetThisClass@CMyBtnTreeCtrl@@SGPAUCRuntimeClass@@XZ PROC NEAR ; CMyBtnTreeCtrl::GetThisClass

; 5    : IMPLEMENT_DYNAMIC(CMyBtnTreeCtrl, CMyTreeCtrl)

  00000	55		 push	 ebp
  00001	8b ec		 mov	 ebp, esp
  00003	b8 00 00 00 00	 mov	 eax, OFFSET FLAT:?classCMyBtnTreeCtrl@CMyBtnTreeCtrl@@2UCRuntimeClass@@B ; CMyBtnTreeCtrl::classCMyBtnTreeCtrl
  00008	5d		 pop	 ebp
  00009	c3		 ret	 0
?GetThisClass@CMyBtnTreeCtrl@@SGPAUCRuntimeClass@@XZ ENDP ; CMyBtnTreeCtrl::GetThisClass
_TEXT	ENDS
PUBLIC	?GetRuntimeClass@CMyBtnTreeCtrl@@UBEPAUCRuntimeClass@@XZ ; CMyBtnTreeCtrl::GetRuntimeClass
; Function compile flags: /Odt
_TEXT	SEGMENT
_this$ = -4						; size = 4
?GetRuntimeClass@CMyBtnTreeCtrl@@UBEPAUCRuntimeClass@@XZ PROC NEAR ; CMyBtnTreeCtrl::GetRuntimeClass
; _this$ = ecx

; 5    : IMPLEMENT_DYNAMIC(CMyBtnTreeCtrl, CMyTreeCtrl)

  00010	55		 push	 ebp
  00011	8b ec		 mov	 ebp, esp
  00013	51		 push	 ecx
  00014	89 4d fc	 mov	 DWORD PTR _this$[ebp], ecx
  00017	b8 00 00 00 00	 mov	 eax, OFFSET FLAT:?classCMyBtnTreeCtrl@CMyBtnTreeCtrl@@2UCRuntimeClass@@B ; CMyBtnTreeCtrl::classCMyBtnTreeCtrl
  0001c	8b e5		 mov	 esp, ebp
  0001e	5d		 pop	 ebp
  0001f	c3		 ret	 0
?GetRuntimeClass@CMyBtnTreeCtrl@@UBEPAUCRuntimeClass@@XZ ENDP ; CMyBtnTreeCtrl::GetRuntimeClass
_TEXT	ENDS
PUBLIC	?ClickTreeItem@CMyTreeCtrl@@UAEXPAU_TREEITEM@@@Z ; CMyTreeCtrl::ClickTreeItem
PUBLIC	?RClickTreeItem@CMyTreeCtrl@@UAEXPAU_TREEITEM@@@Z ; CMyTreeCtrl::RClickTreeItem
PUBLIC	?DClickTreeItem@CMyTreeCtrl@@UAEXPAU_TREEITEM@@@Z ; CMyTreeCtrl::DClickTreeItem
PUBLIC	??0CRect@@QAE@XZ				; CRect::CRect
PUBLIC	??0CMyBtnTreeCtrl@@QAE@XZ			; CMyBtnTreeCtrl::CMyBtnTreeCtrl
PUBLIC	?GetMessageMap@CMyBtnTreeCtrl@@MBEPBUAFX_MSGMAP@@XZ ; CMyBtnTreeCtrl::GetMessageMap
PUBLIC	??_7CMyBtnTreeCtrl@@6B@				; CMyBtnTreeCtrl::`vftable'
PUBLIC	??_GCMyBtnTreeCtrl@@UAEPAXI@Z			; CMyBtnTreeCtrl::`scalar deleting destructor'
PUBLIC	??_R1A@?0A@A@CObject@@8				; CObject::`RTTI Base Class Descriptor at (0,-1,0,0)'
PUBLIC	??_R0?AVCObject@@@8				; CObject `RTTI Type Descriptor'
PUBLIC	??_R1A@?0A@A@CWnd@@8				; CWnd::`RTTI Base Class Descriptor at (0,-1,0,0)'
PUBLIC	??_R0?AVCWnd@@@8				; CWnd `RTTI Type Descriptor'
PUBLIC	??_R1A@?0A@A@CCmdTarget@@8			; CCmdTarget::`RTTI Base Class Descriptor at (0,-1,0,0)'
PUBLIC	??_R0?AVCCmdTarget@@@8				; CCmdTarget `RTTI Type Descriptor'
PUBLIC	?Serialize@CObject@@UAEXAAVCArchive@@@Z		; CObject::Serialize
PUBLIC	?AssertValid@CObject@@UBEXXZ			; CObject::AssertValid
PUBLIC	?Dump@CObject@@UBEXAAVCDumpContext@@@Z		; CObject::Dump
PUBLIC	??_R4CMyBtnTreeCtrl@@6B@			; CMyBtnTreeCtrl::`RTTI Complete Object Locator'
PUBLIC	??_R0?AVCMyBtnTreeCtrl@@@8			; CMyBtnTreeCtrl `RTTI Type Descriptor'
PUBLIC	??_R3CMyBtnTreeCtrl@@8				; CMyBtnTreeCtrl::`RTTI Class Hierarchy Descriptor'
PUBLIC	??_R2CMyBtnTreeCtrl@@8				; CMyBtnTreeCtrl::`RTTI Base Class Array'
PUBLIC	??_R1A@?0A@A@CMyBtnTreeCtrl@@8			; CMyBtnTreeCtrl::`RTTI Base Class Descriptor at (0,-1,0,0)'
PUBLIC	??_R1A@?0A@A@CMyTreeCtrl@@8			; CMyTreeCtrl::`RTTI Base Class Descriptor at (0,-1,0,0)'
PUBLIC	??_R0?AVCMyTreeCtrl@@@8				; CMyTreeCtrl `RTTI Type Descriptor'
PUBLIC	??_R0?AVCTreeCtrl@@@8				; CTreeCtrl `RTTI Type Descriptor'
PUBLIC	??_R1A@?0A@A@CTreeCtrl@@8			; CTreeCtrl::`RTTI Base Class Descriptor at (0,-1,0,0)'
PUBLIC	?DoDataExchange@CWnd@@MAEXPAVCDataExchange@@@Z	; CWnd::DoDataExchange
PUBLIC	?BeginModalState@CWnd@@UAEXXZ			; CWnd::BeginModalState
PUBLIC	?EndModalState@CWnd@@UAEXXZ			; CWnd::EndModalState
EXTRN	??0CMyTreeCtrl@@QAE@PAVCDibBitmap@@0@Z:NEAR	; CMyTreeCtrl::CMyTreeCtrl
EXTRN	?CreateControlContainer@CWnd@@MAEHPAPAVCOleControlContainer@@@Z:NEAR ; CWnd::CreateControlContainer
EXTRN	?CreateControlSite@CWnd@@MAEHPAVCOleControlContainer@@PAPAVCOleControlSite@@IABU_GUID@@@Z:NEAR ; CWnd::CreateControlSite
EXTRN	?SetOccDialogInfo@CWnd@@MAEHPAU_AFX_OCC_DIALOG_INFO@@@Z:NEAR ; CWnd::SetOccDialogInfo
EXTRN	?ClearData@CMyTreeCtrl@@UAEXXZ:NEAR		; CMyTreeCtrl::ClearData
EXTRN	?OnToolHitTest@CWnd@@UBEHVCPoint@@PAUtagTOOLINFOA@@@Z:NEAR ; CWnd::OnToolHitTest
EXTRN	??_ECMyBtnTreeCtrl@@UAEPAXI@Z:NEAR		; CMyBtnTreeCtrl::`vector deleting destructor'
EXTRN	?GetScrollBarCtrl@CWnd@@UBEPAVCScrollBar@@H@Z:NEAR ; CWnd::GetScrollBarCtrl
EXTRN	?Create@CTreeCtrl@@UAEHKABUtagRECT@@PAVCWnd@@I@Z:NEAR ; CTreeCtrl::Create
EXTRN	?CreateEx@CTreeCtrl@@UAEHKKABUtagRECT@@PAVCWnd@@I@Z:NEAR ; CTreeCtrl::CreateEx
EXTRN	?WinHelpA@CWnd@@UAEXKI@Z:NEAR			; CWnd::WinHelpA
EXTRN	?HtmlHelpA@CWnd@@UAEXKI@Z:NEAR			; CWnd::HtmlHelpA
EXTRN	?WinHelpInternal@CWnd@@UAEXKI@Z:NEAR		; CWnd::WinHelpInternal
EXTRN	?ContinueModal@CWnd@@UAEHXZ:NEAR		; CWnd::ContinueModal
EXTRN	?EndModalLoop@CWnd@@UAEXH@Z:NEAR		; CWnd::EndModalLoop
EXTRN	?GetInterfaceMap@CWnd@@MBEPBUAFX_INTERFACEMAP@@XZ:NEAR ; CWnd::GetInterfaceMap
EXTRN	?EnsureStdObj@CWnd@@UAEJXZ:NEAR			; CWnd::EnsureStdObj
EXTRN	?get_accParent@CWnd@@UAEJPAPAUIDispatch@@@Z:NEAR ; CWnd::get_accParent
EXTRN	?get_accChildCount@CWnd@@UAEJPAJ@Z:NEAR		; CWnd::get_accChildCount
EXTRN	?OnCmdMsg@CCmdTarget@@UAEHIHPAXPAUAFX_CMDHANDLERINFO@@@Z:NEAR ; CCmdTarget::OnCmdMsg
EXTRN	?get_accChild@CWnd@@UAEJUtagVARIANT@@PAPAUIDispatch@@@Z:NEAR ; CWnd::get_accChild
EXTRN	?IsInvokeAllowed@CCmdTarget@@UAEHJ@Z:NEAR	; CCmdTarget::IsInvokeAllowed
EXTRN	?get_accName@CWnd@@UAEJUtagVARIANT@@PAPA_W@Z:NEAR ; CWnd::get_accName
EXTRN	?get_accValue@CWnd@@UAEJUtagVARIANT@@PAPA_W@Z:NEAR ; CWnd::get_accValue
EXTRN	?get_accDescription@CWnd@@UAEJUtagVARIANT@@PAPA_W@Z:NEAR ; CWnd::get_accDescription
EXTRN	?GetDispatchIID@CCmdTarget@@UAEHPAU_GUID@@@Z:NEAR ; CCmdTarget::GetDispatchIID
EXTRN	?GetTypeInfoCount@CCmdTarget@@UAEIXZ:NEAR	; CCmdTarget::GetTypeInfoCount
EXTRN	?GetTypeLibCache@CCmdTarget@@UAEPAVCTypeLibCache@@XZ:NEAR ; CCmdTarget::GetTypeLibCache
EXTRN	?get_accRole@CWnd@@UAEJUtagVARIANT@@PAU2@@Z:NEAR ; CWnd::get_accRole
EXTRN	?GetTypeLib@CCmdTarget@@UAEJKPAPAUITypeLib@@@Z:NEAR ; CCmdTarget::GetTypeLib
EXTRN	?get_accState@CWnd@@UAEJUtagVARIANT@@PAU2@@Z:NEAR ; CWnd::get_accState
EXTRN	?get_accHelp@CWnd@@UAEJUtagVARIANT@@PAPA_W@Z:NEAR ; CWnd::get_accHelp
EXTRN	?get_accHelpTopic@CWnd@@UAEJPAPA_WUtagVARIANT@@PAJ@Z:NEAR ; CWnd::get_accHelpTopic
EXTRN	?get_accKeyboardShortcut@CWnd@@UAEJUtagVARIANT@@PAPA_W@Z:NEAR ; CWnd::get_accKeyboardShortcut
EXTRN	?get_accFocus@CWnd@@UAEJPAUtagVARIANT@@@Z:NEAR	; CWnd::get_accFocus
EXTRN	?get_accSelection@CWnd@@UAEJPAUtagVARIANT@@@Z:NEAR ; CWnd::get_accSelection
EXTRN	?get_accDefaultAction@CWnd@@UAEJUtagVARIANT@@PAPA_W@Z:NEAR ; CWnd::get_accDefaultAction
EXTRN	?GetCommandMap@CCmdTarget@@MBEPBUAFX_OLECMDMAP@@XZ:NEAR ; CCmdTarget::GetCommandMap
EXTRN	?accSelect@CWnd@@UAEJJUtagVARIANT@@@Z:NEAR	; CWnd::accSelect
EXTRN	?accLocation@CWnd@@UAEJPAJ000UtagVARIANT@@@Z:NEAR ; CWnd::accLocation
EXTRN	?GetDispatchMap@CCmdTarget@@MBEPBUAFX_DISPMAP@@XZ:NEAR ; CCmdTarget::GetDispatchMap
EXTRN	?accNavigate@CWnd@@UAEJJUtagVARIANT@@PAU2@@Z:NEAR ; CWnd::accNavigate
EXTRN	?accHitTest@CWnd@@UAEJJJPAUtagVARIANT@@@Z:NEAR	; CWnd::accHitTest
EXTRN	?GetConnectionMap@CCmdTarget@@MBEPBUAFX_CONNECTIONMAP@@XZ:NEAR ; CCmdTarget::GetConnectionMap
EXTRN	?accDoDefaultAction@CWnd@@UAEJUtagVARIANT@@@Z:NEAR ; CWnd::accDoDefaultAction
EXTRN	?put_accName@CWnd@@UAEJUtagVARIANT@@PA_W@Z:NEAR	; CWnd::put_accName
EXTRN	?put_accValue@CWnd@@UAEJUtagVARIANT@@PA_W@Z:NEAR ; CWnd::put_accValue
EXTRN	?SetProxy@CWnd@@UAEJPAUIAccessibleProxy@@@Z:NEAR ; CWnd::SetProxy
EXTRN	?CreateAccessibleProxy@CWnd@@UAEJIJPAJ@Z:NEAR	; CWnd::CreateAccessibleProxy
EXTRN	?GetEventSinkMap@CCmdTarget@@MBEPBUAFX_EVENTSINKMAP@@XZ:NEAR ; CCmdTarget::GetEventSinkMap
EXTRN	?OnCreateAggregates@CCmdTarget@@UAEHXZ:NEAR	; CCmdTarget::OnCreateAggregates
EXTRN	?OnCommand@CWnd@@MAEHIJ@Z:NEAR			; CWnd::OnCommand
EXTRN	?GetInterfaceHook@CCmdTarget@@UAEPAUIUnknown@@PBX@Z:NEAR ; CCmdTarget::GetInterfaceHook
EXTRN	?OnNotify@CWnd@@MAEHIJPAJ@Z:NEAR		; CWnd::OnNotify
EXTRN	?GetExtraConnectionPoints@CCmdTarget@@MAEHPAVCPtrArray@@@Z:NEAR ; CCmdTarget::GetExtraConnectionPoints
EXTRN	?GetConnectionHook@CCmdTarget@@MAEPAUIConnectionPoint@@ABU_GUID@@@Z:NEAR ; CCmdTarget::GetConnectionHook
EXTRN	?PreSubclassWindow@CWnd@@UAEXXZ:NEAR		; CWnd::PreSubclassWindow
EXTRN	?Create@CWnd@@UAEHPBD0KABUtagRECT@@PAV1@IPAUCCreateContext@@@Z:NEAR ; CWnd::Create
EXTRN	?CreateEx@CWnd@@UAEHKPBD0KHHHHPAUHWND__@@PAUHMENU__@@PAX@Z:NEAR ; CWnd::CreateEx
EXTRN	?CreateEx@CWnd@@UAEHKPBD0KABUtagRECT@@PAV1@IPAX@Z:NEAR ; CWnd::CreateEx
EXTRN	?DestroyWindow@CWnd@@UAEHXZ:NEAR		; CWnd::DestroyWindow
EXTRN	?PreCreateWindow@CWnd@@UAEHAAUtagCREATESTRUCTA@@@Z:NEAR ; CWnd::PreCreateWindow
EXTRN	?CalcWindowRect@CWnd@@UAEXPAUtagRECT@@I@Z:NEAR	; CWnd::CalcWindowRect
EXTRN	?GetSuperWndProcAddr@CWnd@@MAEPAP6GJPAUHWND__@@IIJ@ZXZ:NEAR ; CWnd::GetSuperWndProcAddr
EXTRN	??_7type_info@@6B@:QWORD			; type_info::`vftable'
EXTRN	?PreTranslateMessage@CWnd@@UAEHPAUtagMSG@@@Z:NEAR ; CWnd::PreTranslateMessage
EXTRN	?OnAmbientProperty@CWnd@@UAEHPAVCOleControlSite@@JPAUtagVARIANT@@@Z:NEAR ; CWnd::OnAmbientProperty
EXTRN	?WindowProc@CWnd@@MAEJIIJ@Z:NEAR		; CWnd::WindowProc
EXTRN	?OnWndMsg@CWnd@@MAEHIIJPAJ@Z:NEAR		; CWnd::OnWndMsg
EXTRN	?DefWindowProcA@CWnd@@MAEJIIJ@Z:NEAR		; CWnd::DefWindowProcA
EXTRN	?PostNcDestroy@CWnd@@MAEXXZ:NEAR		; CWnd::PostNcDestroy
EXTRN	?OnChildNotify@CWnd@@MAEHIIJPAJ@Z:NEAR		; CWnd::OnChildNotify
EXTRN	?CheckAutoCenter@CWnd@@UAEHXZ:NEAR		; CWnd::CheckAutoCenter
EXTRN	?IsFrameWnd@CWnd@@UBEHXZ:NEAR			; CWnd::IsFrameWnd
EXTRN	?OnFinalRelease@CWnd@@UAEXXZ:NEAR		; CWnd::OnFinalRelease
;	COMDAT ??_7CMyBtnTreeCtrl@@6B@
CONST	SEGMENT
??_7CMyBtnTreeCtrl@@6B@ DD FLAT:??_R4CMyBtnTreeCtrl@@6B@ ; CMyBtnTreeCtrl::`vftable'
	DD	FLAT:?GetRuntimeClass@CMyBtnTreeCtrl@@UBEPAUCRuntimeClass@@XZ
	DD	FLAT:??_ECMyBtnTreeCtrl@@UAEPAXI@Z
	DD	FLAT:?Serialize@CObject@@UAEXAAVCArchive@@@Z
	DD	FLAT:?AssertValid@CObject@@UBEXXZ
	DD	FLAT:?Dump@CObject@@UBEXAAVCDumpContext@@@Z
	DD	FLAT:?OnCmdMsg@CCmdTarget@@UAEHIHPAXPAUAFX_CMDHANDLERINFO@@@Z
	DD	FLAT:?OnFinalRelease@CWnd@@UAEXXZ
	DD	FLAT:?IsInvokeAllowed@CCmdTarget@@UAEHJ@Z
	DD	FLAT:?GetDispatchIID@CCmdTarget@@UAEHPAU_GUID@@@Z
	DD	FLAT:?GetTypeInfoCount@CCmdTarget@@UAEIXZ
	DD	FLAT:?GetTypeLibCache@CCmdTarget@@UAEPAVCTypeLibCache@@XZ
	DD	FLAT:?GetTypeLib@CCmdTarget@@UAEJKPAPAUITypeLib@@@Z
	DD	FLAT:?GetMessageMap@CMyBtnTreeCtrl@@MBEPBUAFX_MSGMAP@@XZ
	DD	FLAT:?GetCommandMap@CCmdTarget@@MBEPBUAFX_OLECMDMAP@@XZ
	DD	FLAT:?GetDispatchMap@CCmdTarget@@MBEPBUAFX_DISPMAP@@XZ
	DD	FLAT:?GetConnectionMap@CCmdTarget@@MBEPBUAFX_CONNECTIONMAP@@XZ
	DD	FLAT:?GetInterfaceMap@CWnd@@MBEPBUAFX_INTERFACEMAP@@XZ
	DD	FLAT:?GetEventSinkMap@CCmdTarget@@MBEPBUAFX_EVENTSINKMAP@@XZ
	DD	FLAT:?OnCreateAggregates@CCmdTarget@@UAEHXZ
	DD	FLAT:?GetInterfaceHook@CCmdTarget@@UAEPAUIUnknown@@PBX@Z
	DD	FLAT:?GetExtraConnectionPoints@CCmdTarget@@MAEHPAVCPtrArray@@@Z
	DD	FLAT:?GetConnectionHook@CCmdTarget@@MAEPAUIConnectionPoint@@ABU_GUID@@@Z
	DD	FLAT:?PreSubclassWindow@CWnd@@UAEXXZ
	DD	FLAT:?Create@CWnd@@UAEHPBD0KABUtagRECT@@PAV1@IPAUCCreateContext@@@Z
	DD	FLAT:?CreateEx@CWnd@@UAEHKPBD0KABUtagRECT@@PAV1@IPAX@Z
	DD	FLAT:?CreateEx@CWnd@@UAEHKPBD0KHHHHPAUHWND__@@PAUHMENU__@@PAX@Z
	DD	FLAT:?DestroyWindow@CWnd@@UAEHXZ
	DD	FLAT:?PreCreateWindow@CWnd@@UAEHAAUtagCREATESTRUCTA@@@Z
	DD	FLAT:?CalcWindowRect@CWnd@@UAEXPAUtagRECT@@I@Z
	DD	FLAT:?OnToolHitTest@CWnd@@UBEHVCPoint@@PAUtagTOOLINFOA@@@Z
	DD	FLAT:?GetScrollBarCtrl@CWnd@@UBEPAVCScrollBar@@H@Z
	DD	FLAT:?WinHelpA@CWnd@@UAEXKI@Z
	DD	FLAT:?HtmlHelpA@CWnd@@UAEXKI@Z
	DD	FLAT:?WinHelpInternal@CWnd@@UAEXKI@Z
	DD	FLAT:?ContinueModal@CWnd@@UAEHXZ
	DD	FLAT:?EndModalLoop@CWnd@@UAEXH@Z
	DD	FLAT:?EnsureStdObj@CWnd@@UAEJXZ
	DD	FLAT:?get_accParent@CWnd@@UAEJPAPAUIDispatch@@@Z
	DD	FLAT:?get_accChildCount@CWnd@@UAEJPAJ@Z
	DD	FLAT:?get_accChild@CWnd@@UAEJUtagVARIANT@@PAPAUIDispatch@@@Z
	DD	FLAT:?get_accName@CWnd@@UAEJUtagVARIANT@@PAPA_W@Z
	DD	FLAT:?get_accValue@CWnd@@UAEJUtagVARIANT@@PAPA_W@Z
	DD	FLAT:?get_accDescription@CWnd@@UAEJUtagVARIANT@@PAPA_W@Z
	DD	FLAT:?get_accRole@CWnd@@UAEJUtagVARIANT@@PAU2@@Z
	DD	FLAT:?get_accState@CWnd@@UAEJUtagVARIANT@@PAU2@@Z
	DD	FLAT:?get_accHelp@CWnd@@UAEJUtagVARIANT@@PAPA_W@Z
	DD	FLAT:?get_accHelpTopic@CWnd@@UAEJPAPA_WUtagVARIANT@@PAJ@Z
	DD	FLAT:?get_accKeyboardShortcut@CWnd@@UAEJUtagVARIANT@@PAPA_W@Z
	DD	FLAT:?get_accFocus@CWnd@@UAEJPAUtagVARIANT@@@Z
	DD	FLAT:?get_accSelection@CWnd@@UAEJPAUtagVARIANT@@@Z
	DD	FLAT:?get_accDefaultAction@CWnd@@UAEJUtagVARIANT@@PAPA_W@Z
	DD	FLAT:?accSelect@CWnd@@UAEJJUtagVARIANT@@@Z
	DD	FLAT:?accLocation@CWnd@@UAEJPAJ000UtagVARIANT@@@Z
	DD	FLAT:?accNavigate@CWnd@@UAEJJUtagVARIANT@@PAU2@@Z
	DD	FLAT:?accHitTest@CWnd@@UAEJJJPAUtagVARIANT@@@Z
	DD	FLAT:?accDoDefaultAction@CWnd@@UAEJUtagVARIANT@@@Z
	DD	FLAT:?put_accName@CWnd@@UAEJUtagVARIANT@@PA_W@Z
	DD	FLAT:?put_accValue@CWnd@@UAEJUtagVARIANT@@PA_W@Z
	DD	FLAT:?SetProxy@CWnd@@UAEJPAUIAccessibleProxy@@@Z
	DD	FLAT:?CreateAccessibleProxy@CWnd@@UAEJIJPAJ@Z
	DD	FLAT:?OnCommand@CWnd@@MAEHIJ@Z
	DD	FLAT:?OnNotify@CWnd@@MAEHIJPAJ@Z
	DD	FLAT:?GetSuperWndProcAddr@CWnd@@MAEPAP6GJPAUHWND__@@IIJ@ZXZ
	DD	FLAT:?DoDataExchange@CWnd@@MAEXPAVCDataExchange@@@Z
	DD	FLAT:?BeginModalState@CWnd@@UAEXXZ
	DD	FLAT:?EndModalState@CWnd@@UAEXXZ
	DD	FLAT:?PreTranslateMessage@CWnd@@UAEHPAUtagMSG@@@Z
	DD	FLAT:?OnAmbientProperty@CWnd@@UAEHPAVCOleControlSite@@JPAUtagVARIANT@@@Z
	DD	FLAT:?WindowProc@CWnd@@MAEJIIJ@Z
	DD	FLAT:?OnWndMsg@CWnd@@MAEHIIJPAJ@Z
	DD	FLAT:?DefWindowProcA@CWnd@@MAEJIIJ@Z
	DD	FLAT:?PostNcDestroy@CWnd@@MAEXXZ
	DD	FLAT:?OnChildNotify@CWnd@@MAEHIIJPAJ@Z
	DD	FLAT:?CheckAutoCenter@CWnd@@UAEHXZ
	DD	FLAT:?IsFrameWnd@CWnd@@UBEHXZ
	DD	FLAT:?CreateControlContainer@CWnd@@MAEHPAPAVCOleControlContainer@@@Z
	DD	FLAT:?CreateControlSite@CWnd@@MAEHPAVCOleControlContainer@@PAPAVCOleControlSite@@IABU_GUID@@@Z
	DD	FLAT:?SetOccDialogInfo@CWnd@@MAEHPAU_AFX_OCC_DIALOG_INFO@@@Z
	DD	FLAT:?Create@CTreeCtrl@@UAEHKABUtagRECT@@PAVCWnd@@I@Z
	DD	FLAT:?CreateEx@CTreeCtrl@@UAEHKKABUtagRECT@@PAVCWnd@@I@Z
	DD	FLAT:?ClickTreeItem@CMyTreeCtrl@@UAEXPAU_TREEITEM@@@Z
	DD	FLAT:?RClickTreeItem@CMyTreeCtrl@@UAEXPAU_TREEITEM@@@Z
	DD	FLAT:?DClickTreeItem@CMyTreeCtrl@@UAEXPAU_TREEITEM@@@Z
	DD	FLAT:?ClearData@CMyTreeCtrl@@UAEXXZ
CONST	ENDS
;	COMDAT ??_R4CMyBtnTreeCtrl@@6B@
rdata$r	SEGMENT
??_R4CMyBtnTreeCtrl@@6B@ DD 00H				; CMyBtnTreeCtrl::`RTTI Complete Object Locator'
	DD	00H
	DD	00H
	DD	FLAT:??_R0?AVCMyBtnTreeCtrl@@@8
	DD	FLAT:??_R3CMyBtnTreeCtrl@@8
rdata$r	ENDS
;	COMDAT ??_R0?AVCMyBtnTreeCtrl@@@8
_DATA	SEGMENT
??_R0?AVCMyBtnTreeCtrl@@@8 DD FLAT:??_7type_info@@6B@	; CMyBtnTreeCtrl `RTTI Type Descriptor'
	DD	00H
	DB	'.?AVCMyBtnTreeCtrl@@', 00H
_DATA	ENDS
;	COMDAT ??_R3CMyBtnTreeCtrl@@8
rdata$r	SEGMENT
??_R3CMyBtnTreeCtrl@@8 DD 00H				; CMyBtnTreeCtrl::`RTTI Class Hierarchy Descriptor'
	DD	00H
	DD	06H
	DD	FLAT:??_R2CMyBtnTreeCtrl@@8
rdata$r	ENDS
;	COMDAT ??_R2CMyBtnTreeCtrl@@8
rdata$r	SEGMENT
??_R2CMyBtnTreeCtrl@@8 DD FLAT:??_R1A@?0A@A@CMyBtnTreeCtrl@@8 ; CMyBtnTreeCtrl::`RTTI Base Class Array'
	DD	FLAT:??_R1A@?0A@A@CMyTreeCtrl@@8
	DD	FLAT:??_R1A@?0A@A@CTreeCtrl@@8
	DD	FLAT:??_R1A@?0A@A@CWnd@@8
	DD	FLAT:??_R1A@?0A@A@CCmdTarget@@8
	DD	FLAT:??_R1A@?0A@A@CObject@@8
rdata$r	ENDS
;	COMDAT ??_R1A@?0A@A@CMyBtnTreeCtrl@@8
rdata$r	SEGMENT
??_R1A@?0A@A@CMyBtnTreeCtrl@@8 DD FLAT:??_R0?AVCMyBtnTreeCtrl@@@8 ; CMyBtnTreeCtrl::`RTTI Base Class Descriptor at (0,-1,0,0)'
	DD	05H
	DD	00H
	DD	0ffffffffH
	DD	00H
	DD	00H
rdata$r	ENDS
;	COMDAT ??_R1A@?0A@A@CMyTreeCtrl@@8
rdata$r	SEGMENT
??_R1A@?0A@A@CMyTreeCtrl@@8 DD FLAT:??_R0?AVCMyTreeCtrl@@@8 ; CMyTreeCtrl::`RTTI Base Class Descriptor at (0,-1,0,0)'
	DD	04H
	DD	00H
	DD	0ffffffffH
	DD	00H
	DD	00H
rdata$r	ENDS
;	COMDAT ??_R0?AVCMyTreeCtrl@@@8
_DATA	SEGMENT
??_R0?AVCMyTreeCtrl@@@8 DD FLAT:??_7type_info@@6B@	; CMyTreeCtrl `RTTI Type Descriptor'
	DD	00H
	DB	'.?AVCMyTreeCtrl@@', 00H
_DATA	ENDS
;	COMDAT ??_R1A@?0A@A@CTreeCtrl@@8
rdata$r	SEGMENT
??_R1A@?0A@A@CTreeCtrl@@8 DD FLAT:??_R0?AVCTreeCtrl@@@8	; CTreeCtrl::`RTTI Base Class Descriptor at (0,-1,0,0)'
	DD	03H
	DD	00H
	DD	0ffffffffH
	DD	00H
	DD	00H
rdata$r	ENDS
;	COMDAT ??_R0?AVCTreeCtrl@@@8
_DATA	SEGMENT
??_R0?AVCTreeCtrl@@@8 DD FLAT:??_7type_info@@6B@	; CTreeCtrl `RTTI Type Descriptor'
	DD	00H
	DB	'.?AVCTreeCtrl@@', 00H
_DATA	ENDS
;	COMDAT ??_R1A@?0A@A@CWnd@@8
rdata$r	SEGMENT
??_R1A@?0A@A@CWnd@@8 DD FLAT:??_R0?AVCWnd@@@8		; CWnd::`RTTI Base Class Descriptor at (0,-1,0,0)'
	DD	02H
	DD	00H
	DD	0ffffffffH
	DD	00H
	DD	00H
rdata$r	ENDS
;	COMDAT ??_R0?AVCWnd@@@8
_DATA	SEGMENT
??_R0?AVCWnd@@@8 DD FLAT:??_7type_info@@6B@		; CWnd `RTTI Type Descriptor'
	DD	00H
	DB	'.?AVCWnd@@', 00H
_DATA	ENDS
;	COMDAT ??_R1A@?0A@A@CCmdTarget@@8
rdata$r	SEGMENT
??_R1A@?0A@A@CCmdTarget@@8 DD FLAT:??_R0?AVCCmdTarget@@@8 ; CCmdTarget::`RTTI Base Class Descriptor at (0,-1,0,0)'
	DD	01H
	DD	00H
	DD	0ffffffffH
	DD	00H
	DD	00H
rdata$r	ENDS
;	COMDAT ??_R0?AVCCmdTarget@@@8
_DATA	SEGMENT
??_R0?AVCCmdTarget@@@8 DD FLAT:??_7type_info@@6B@	; CCmdTarget `RTTI Type Descriptor'
	DD	00H
	DB	'.?AVCCmdTarget@@', 00H
_DATA	ENDS
;	COMDAT ??_R1A@?0A@A@CObject@@8
rdata$r	SEGMENT
??_R1A@?0A@A@CObject@@8 DD FLAT:??_R0?AVCObject@@@8	; CObject::`RTTI Base Class Descriptor at (0,-1,0,0)'
	DD	00H
	DD	00H
	DD	0ffffffffH
	DD	00H
	DD	00H
rdata$r	ENDS
;	COMDAT ??_R0?AVCObject@@@8
_DATA	SEGMENT
??_R0?AVCObject@@@8 DD FLAT:??_7type_info@@6B@		; CObject `RTTI Type Descriptor'
	DD	00H
	DB	'.?AVCObject@@', 00H
; Function compile flags: /Odt
_DATA	ENDS
_TEXT	SEGMENT
_this$ = -4						; size = 4
??0CMyBtnTreeCtrl@@QAE@XZ PROC NEAR			; CMyBtnTreeCtrl::CMyBtnTreeCtrl
; _this$ = ecx

; 11   : {

  00020	55		 push	 ebp
  00021	8b ec		 mov	 ebp, esp
  00023	51		 push	 ecx
  00024	89 4d fc	 mov	 DWORD PTR _this$[ebp], ecx
  00027	6a 00		 push	 0
  00029	6a 00		 push	 0
  0002b	8b 4d fc	 mov	 ecx, DWORD PTR _this$[ebp]
  0002e	e8 00 00 00 00	 call	 ??0CMyTreeCtrl@@QAE@PAVCDibBitmap@@0@Z ; CMyTreeCtrl::CMyTreeCtrl
  00033	8b 45 fc	 mov	 eax, DWORD PTR _this$[ebp]
  00036	c7 00 00 00 00
	00		 mov	 DWORD PTR [eax], OFFSET FLAT:??_7CMyBtnTreeCtrl@@6B@
  0003c	8b 4d fc	 mov	 ecx, DWORD PTR _this$[ebp]
  0003f	c7 81 9c 00 00
	00 00 00 00 00	 mov	 DWORD PTR [ecx+156], 0
  00049	8b 55 fc	 mov	 edx, DWORD PTR _this$[ebp]
  0004c	c7 82 a0 00 00
	00 00 00 00 00	 mov	 DWORD PTR [edx+160], 0
  00056	8b 45 fc	 mov	 eax, DWORD PTR _this$[ebp]
  00059	c7 80 a4 00 00
	00 00 00 00 00	 mov	 DWORD PTR [eax+164], 0
  00063	8b 4d fc	 mov	 ecx, DWORD PTR _this$[ebp]
  00066	81 c1 a8 00 00
	00		 add	 ecx, 168		; 000000a8H
  0006c	e8 00 00 00 00	 call	 ??0CRect@@QAE@XZ	; CRect::CRect
  00071	8b 4d fc	 mov	 ecx, DWORD PTR _this$[ebp]
  00074	c6 81 b8 00 00
	00 00		 mov	 BYTE PTR [ecx+184], 0
  0007b	8b 55 fc	 mov	 edx, DWORD PTR _this$[ebp]
  0007e	c6 82 ba 00 00
	00 01		 mov	 BYTE PTR [edx+186], 1

; 12   : 	m_bTrackMouse = false;

  00085	8b 45 fc	 mov	 eax, DWORD PTR _this$[ebp]
  00088	c6 80 b9 00 00
	00 00		 mov	 BYTE PTR [eax+185], 0

; 13   : }

  0008f	8b 45 fc	 mov	 eax, DWORD PTR _this$[ebp]
  00092	8b e5		 mov	 esp, ebp
  00094	5d		 pop	 ebp
  00095	c3		 ret	 0
??0CMyBtnTreeCtrl@@QAE@XZ ENDP				; CMyBtnTreeCtrl::CMyBtnTreeCtrl
; Function compile flags: /Odt
; File d:\boxgit\playbox\playbox\dev\prj\playbox\src\gui\commoncontrol\mytreectrl.h
_TEXT	ENDS
;	COMDAT ?ClickTreeItem@CMyTreeCtrl@@UAEXPAU_TREEITEM@@@Z
_TEXT	SEGMENT
_this$ = -4						; size = 4
___formal$ = 8						; size = 4
?ClickTreeItem@CMyTreeCtrl@@UAEXPAU_TREEITEM@@@Z PROC NEAR ; CMyTreeCtrl::ClickTreeItem, COMDAT
; _this$ = ecx

; 65   : 	virtual void	ClickTreeItem( HTREEITEM ){};

  00000	55		 push	 ebp
  00001	8b ec		 mov	 ebp, esp
  00003	51		 push	 ecx
  00004	89 4d fc	 mov	 DWORD PTR _this$[ebp], ecx
  00007	8b e5		 mov	 esp, ebp
  00009	5d		 pop	 ebp
  0000a	c2 04 00	 ret	 4
?ClickTreeItem@CMyTreeCtrl@@UAEXPAU_TREEITEM@@@Z ENDP	; CMyTreeCtrl::ClickTreeItem
; Function compile flags: /Odt
_TEXT	ENDS
;	COMDAT ?RClickTreeItem@CMyTreeCtrl@@UAEXPAU_TREEITEM@@@Z
_TEXT	SEGMENT
_this$ = -4						; size = 4
___formal$ = 8						; size = 4
?RClickTreeItem@CMyTreeCtrl@@UAEXPAU_TREEITEM@@@Z PROC NEAR ; CMyTreeCtrl::RClickTreeItem, COMDAT
; _this$ = ecx

; 66   : 	virtual void	RClickTreeItem( HTREEITEM ){};

  00000	55		 push	 ebp
  00001	8b ec		 mov	 ebp, esp
  00003	51		 push	 ecx
  00004	89 4d fc	 mov	 DWORD PTR _this$[ebp], ecx
  00007	8b e5		 mov	 esp, ebp
  00009	5d		 pop	 ebp
  0000a	c2 04 00	 ret	 4
?RClickTreeItem@CMyTreeCtrl@@UAEXPAU_TREEITEM@@@Z ENDP	; CMyTreeCtrl::RClickTreeItem
; Function compile flags: /Odt
_TEXT	ENDS
;	COMDAT ?DClickTreeItem@CMyTreeCtrl@@UAEXPAU_TREEITEM@@@Z
_TEXT	SEGMENT
_this$ = -4						; size = 4
___formal$ = 8						; size = 4
?DClickTreeItem@CMyTreeCtrl@@UAEXPAU_TREEITEM@@@Z PROC NEAR ; CMyTreeCtrl::DClickTreeItem, COMDAT
; _this$ = ecx

; 67   : 	virtual void	DClickTreeItem( HTREEITEM ){};

  00000	55		 push	 ebp
  00001	8b ec		 mov	 ebp, esp
  00003	51		 push	 ecx
  00004	89 4d fc	 mov	 DWORD PTR _this$[ebp], ecx
  00007	8b e5		 mov	 esp, ebp
  00009	5d		 pop	 ebp
  0000a	c2 04 00	 ret	 4
?DClickTreeItem@CMyTreeCtrl@@UAEXPAU_TREEITEM@@@Z ENDP	; CMyTreeCtrl::DClickTreeItem
_TEXT	ENDS
PUBLIC	??1CMyBtnTreeCtrl@@UAE@XZ			; CMyBtnTreeCtrl::~CMyBtnTreeCtrl
PUBLIC	??3CObject@@SGXPAX@Z				; CObject::operator delete
; Function compile flags: /Odt
;	COMDAT ??_GCMyBtnTreeCtrl@@UAEPAXI@Z
_TEXT	SEGMENT
_this$ = -4						; size = 4
___flags$ = 8						; size = 4
??_GCMyBtnTreeCtrl@@UAEPAXI@Z PROC NEAR			; CMyBtnTreeCtrl::`scalar deleting destructor', COMDAT
; _this$ = ecx
  00000	55		 push	 ebp
  00001	8b ec		 mov	 ebp, esp
  00003	51		 push	 ecx
  00004	89 4d fc	 mov	 DWORD PTR _this$[ebp], ecx
  00007	8b 4d fc	 mov	 ecx, DWORD PTR _this$[ebp]
  0000a	e8 00 00 00 00	 call	 ??1CMyBtnTreeCtrl@@UAE@XZ ; CMyBtnTreeCtrl::~CMyBtnTreeCtrl
  0000f	8b 45 08	 mov	 eax, DWORD PTR ___flags$[ebp]
  00012	83 e0 01	 and	 eax, 1
  00015	74 09		 je	 SHORT $L197836
  00017	8b 4d fc	 mov	 ecx, DWORD PTR _this$[ebp]
  0001a	51		 push	 ecx
  0001b	e8 00 00 00 00	 call	 ??3CObject@@SGXPAX@Z	; CObject::operator delete
$L197836:
  00020	8b 45 fc	 mov	 eax, DWORD PTR _this$[ebp]
  00023	8b e5		 mov	 esp, ebp
  00025	5d		 pop	 ebp
  00026	c2 04 00	 ret	 4
??_GCMyBtnTreeCtrl@@UAEPAXI@Z ENDP			; CMyBtnTreeCtrl::`scalar deleting destructor'
_TEXT	ENDS
EXTRN	??1CMyTreeCtrl@@UAE@XZ:NEAR			; CMyTreeCtrl::~CMyTreeCtrl
; Function compile flags: /Odt
; File d:\boxgit\playbox\playbox\dev\prj\playbox\src\gui\commoncontrol\mybtntreectrl.cpp
_TEXT	SEGMENT
_this$ = -4						; size = 4
??1CMyBtnTreeCtrl@@UAE@XZ PROC NEAR			; CMyBtnTreeCtrl::~CMyBtnTreeCtrl
; _this$ = ecx

; 16   : {

  000a0	55		 push	 ebp
  000a1	8b ec		 mov	 ebp, esp
  000a3	51		 push	 ecx
  000a4	89 4d fc	 mov	 DWORD PTR _this$[ebp], ecx
  000a7	8b 45 fc	 mov	 eax, DWORD PTR _this$[ebp]
  000aa	c7 00 00 00 00
	00		 mov	 DWORD PTR [eax], OFFSET FLAT:??_7CMyBtnTreeCtrl@@6B@

; 17   : }

  000b0	8b 4d fc	 mov	 ecx, DWORD PTR _this$[ebp]
  000b3	e8 00 00 00 00	 call	 ??1CMyTreeCtrl@@UAE@XZ	; CMyTreeCtrl::~CMyTreeCtrl
  000b8	8b e5		 mov	 esp, ebp
  000ba	5d		 pop	 ebp
  000bb	c3		 ret	 0
??1CMyBtnTreeCtrl@@UAE@XZ ENDP				; CMyBtnTreeCtrl::~CMyBtnTreeCtrl
_TEXT	ENDS
PUBLIC	?GetThisMessageMap@CMyBtnTreeCtrl@@KGPBUAFX_MSGMAP@@XZ ; CMyBtnTreeCtrl::GetThisMessageMap
; Function compile flags: /Odt
_TEXT	SEGMENT
?GetThisMessageMap@CMyBtnTreeCtrl@@KGPBUAFX_MSGMAP@@XZ PROC NEAR ; CMyBtnTreeCtrl::GetThisMessageMap

; 20   : BEGIN_MESSAGE_MAP(CMyBtnTreeCtrl, CMyTreeCtrl)

  000c0	55		 push	 ebp
  000c1	8b ec		 mov	 ebp, esp
  000c3	b8 00 00 00 00	 mov	 eax, OFFSET FLAT:?messageMap@CMyBtnTreeCtrl@@1UAFX_MSGMAP@@B ; CMyBtnTreeCtrl::messageMap
  000c8	5d		 pop	 ebp
  000c9	c3		 ret	 0
?GetThisMessageMap@CMyBtnTreeCtrl@@KGPBUAFX_MSGMAP@@XZ ENDP ; CMyBtnTreeCtrl::GetThisMessageMap
; Function compile flags: /Odt
_this$ = -4						; size = 4
?GetMessageMap@CMyBtnTreeCtrl@@MBEPBUAFX_MSGMAP@@XZ PROC NEAR ; CMyBtnTreeCtrl::GetMessageMap
; _this$ = ecx

; 20   : BEGIN_MESSAGE_MAP(CMyBtnTreeCtrl, CMyTreeCtrl)

  000d0	55		 push	 ebp
  000d1	8b ec		 mov	 ebp, esp
  000d3	51		 push	 ecx
  000d4	89 4d fc	 mov	 DWORD PTR _this$[ebp], ecx
  000d7	b8 00 00 00 00	 mov	 eax, OFFSET FLAT:?messageMap@CMyBtnTreeCtrl@@1UAFX_MSGMAP@@B ; CMyBtnTreeCtrl::messageMap
  000dc	8b e5		 mov	 esp, ebp
  000de	5d		 pop	 ebp
  000df	c3		 ret	 0
?GetMessageMap@CMyBtnTreeCtrl@@MBEPBUAFX_MSGMAP@@XZ ENDP ; CMyBtnTreeCtrl::GetMessageMap
; Function compile flags: /Odt
_this$ = -4						; size = 4
_pDC$ = 8						; size = 4
?OnEraseBkgnd@CMyBtnTreeCtrl@@QAEHPAVCDC@@@Z PROC NEAR	; CMyBtnTreeCtrl::OnEraseBkgnd
; _this$ = ecx

; 32   : {

  000e0	55		 push	 ebp
  000e1	8b ec		 mov	 ebp, esp
  000e3	51		 push	 ecx
  000e4	89 4d fc	 mov	 DWORD PTR _this$[ebp], ecx

; 33   : 	return 0;

  000e7	33 c0		 xor	 eax, eax

; 34   : }

  000e9	8b e5		 mov	 esp, ebp
  000eb	5d		 pop	 ebp
  000ec	c2 04 00	 ret	 4
?OnEraseBkgnd@CMyBtnTreeCtrl@@QAEHPAVCDC@@@Z ENDP	; CMyBtnTreeCtrl::OnEraseBkgnd
_TEXT	ENDS
PUBLIC	?GetTextColor@CDC@@QBEKXZ			; CDC::GetTextColor
PUBLIC	?GetImageInfo@CImageList@@QBEHHPAU_IMAGEINFO@@@Z ; CImageList::GetImageInfo
PUBLIC	?DrawImage@CMyBtnTreeCtrl@@QAEXPAVCDibBitmap@@AAVCRect@@AAVCDC@@@Z ; CMyBtnTreeCtrl::DrawImage
PUBLIC	??8CRect@@QBEHABUtagRECT@@@Z			; CRect::operator==
PUBLIC	?GetSelectedItem@CTreeCtrl@@QBEPAU_TREEITEM@@XZ	; CTreeCtrl::GetSelectedItem
PUBLIC	?GetItemHeight@CTreeCtrl@@QBEFXZ		; CTreeCtrl::GetItemHeight
PUBLIC	?DrawTextA@CDC@@QAEHABV?$CStringT@DV?$StrTraitMFC_DLL@DV?$ChTraitsCRT@D@ATL@@@@@ATL@@PAUtagRECT@@I@Z ; CDC::DrawTextA
PUBLIC	?GetFont@CWnd@@QBEPAVCFont@@XZ			; CWnd::GetFont
EXTRN	?FromHandle@CDC@@SGPAV1@PAUHDC__@@@Z:NEAR	; CDC::FromHandle
EXTRN	?SetBkMode@CDC@@QAEHH@Z:NEAR			; CDC::SetBkMode
EXTRN	?DrawIndirect@CImageList@@QAEHPAVCDC@@HUtagPOINT@@UtagSIZE@@1IKKKKKK@Z:NEAR ; CImageList::DrawIndirect
EXTRN	__imp_??1?$CStringT@DV?$StrTraitMFC_DLL@DV?$ChTraitsCRT@D@ATL@@@@@ATL@@QAE@XZ:NEAR
EXTRN	?Draw@CDibBitmap@@QAEHPAVCDC@@HKH@Z:NEAR	; CDibBitmap::Draw
EXTRN	?SetCDibRect@CDibBitmap@@QAEXVCRect@@@Z:NEAR	; CDibBitmap::SetCDibRect
EXTRN	?GetHeight@CDibBitmap@@QAEHXZ:NEAR		; CDibBitmap::GetHeight
EXTRN	?GetItemRect@CTreeCtrl@@QBEHPAU_TREEITEM@@PAUtagRECT@@H@Z:NEAR ; CTreeCtrl::GetItemRect
EXTRN	?GetItemText@CTreeCtrl@@QBE?AV?$CStringT@DV?$StrTraitMFC_DLL@DV?$ChTraitsCRT@D@ATL@@@@@ATL@@PAU_TREEITEM@@@Z:NEAR ; CTreeCtrl::GetItemText
EXTRN	?GetItemImage@CTreeCtrl@@QBEHPAU_TREEITEM@@AAH1@Z:NEAR ; CTreeCtrl::GetItemImage
EXTRN	?GetItemState@CTreeCtrl@@QBEIPAU_TREEITEM@@I@Z:NEAR ; CTreeCtrl::GetItemState
EXTRN	?FillSolidRect@CDC@@QAEXPBUtagRECT@@K@Z:NEAR	; CDC::FillSolidRect
EXTRN	__except_list:DWORD
EXTRN	___CxxFrameHandler:NEAR
EXTRN	?AfxGetUIManager@@YAPAVIUIManager@@XZ:NEAR	; AfxGetUIManager
xdata$x	SEGMENT
$T198485 DD	0ffffffffH
	DD	FLAT:$L198478
$T198482 DD	019930520H
	DD	01H
	DD	FLAT:$T198485
	DD	2 DUP(00H)
	DD	2 DUP(00H)
; Function compile flags: /Odt
xdata$x	ENDS
_TEXT	SEGMENT
tv215 = -248						; size = 4
tv210 = -244						; size = 4
tv151 = -240						; size = 4
tv146 = -236						; size = 4
tv143 = -232						; size = 4
_this$ = -228						; size = 4
_pDib$197929 = -224					; size = 4
_rcTop$197925 = -220					; size = 16
_pDes$197933 = -204					; size = 8
_pSrc$197934 = -196					; size = 8
_imageInfo$197931 = -188				; size = 32
_size$197932 = -156					; size = 8
_bDrop$ = -145						; size = 1
_pDibTopLine$ = -144					; size = 4
_item$ = -140						; size = 4
_nImage$ = -136						; size = 4
_nSelectedImage$ = -132					; size = 4
_rctext$ = -128						; size = 16
_bSelect$ = -109					; size = 1
_colorOld$ = -108					; size = 4
_rcDrawText$ = -104					; size = 16
_pLVCD$ = -88						; size = 4
_bHover$ = -81						; size = 1
_pDC$ = -80						; size = 4
_rcDrawTextReal$ = -76					; size = 16
_hCurTreeItem$ = -60					; size = 4
_newRc$ = -56						; size = 16
_nFormat$ = -40						; size = 4
_pOldFont$ = -36					; size = 4
_rc$ = -32						; size = 16
_text$ = -16						; size = 4
__$EHRec$ = -12						; size = 12
_pNMHDR$ = 8						; size = 4
_pResult$ = 12						; size = 4
?OnCustomdraw@CMyBtnTreeCtrl@@QAEXPAUtagNMHDR@@PAJ@Z PROC NEAR ; CMyBtnTreeCtrl::OnCustomdraw
; _this$ = ecx

; 42   : {

  000f0	55		 push	 ebp
  000f1	8b ec		 mov	 ebp, esp
  000f3	6a ff		 push	 -1
  000f5	68 00 00 00 00	 push	 __ehhandler$?OnCustomdraw@CMyBtnTreeCtrl@@QAEXPAUtagNMHDR@@PAJ@Z
  000fa	64 a1 00 00 00
	00		 mov	 eax, DWORD PTR fs:__except_list
  00100	50		 push	 eax
  00101	64 89 25 00 00
	00 00		 mov	 DWORD PTR fs:__except_list, esp
  00108	81 ec ec 00 00
	00		 sub	 esp, 236		; 000000ecH
  0010e	56		 push	 esi
  0010f	89 8d 1c ff ff
	ff		 mov	 DWORD PTR _this$[ebp], ecx

; 43   : 	NMTVCUSTOMDRAW* pLVCD = reinterpret_cast<NMTVCUSTOMDRAW*>(pNMHDR);

  00115	8b 45 08	 mov	 eax, DWORD PTR _pNMHDR$[ebp]
  00118	89 45 a8	 mov	 DWORD PTR _pLVCD$[ebp], eax

; 44   : 	*pResult = CDRF_DODEFAULT;

  0011b	8b 4d 0c	 mov	 ecx, DWORD PTR _pResult$[ebp]
  0011e	c7 01 00 00 00
	00		 mov	 DWORD PTR [ecx], 0

; 45   : 	HTREEITEM item = GetSelectedItem();

  00124	8b 8d 1c ff ff
	ff		 mov	 ecx, DWORD PTR _this$[ebp]
  0012a	e8 00 00 00 00	 call	 ?GetSelectedItem@CTreeCtrl@@QBEPAU_TREEITEM@@XZ ; CTreeCtrl::GetSelectedItem
  0012f	89 85 74 ff ff
	ff		 mov	 DWORD PTR _item$[ebp], eax

; 46   : 
; 47   : 	bool bDrop = false;

  00135	c6 85 6f ff ff
	ff 00		 mov	 BYTE PTR _bDrop$[ebp], 0

; 48   : 	if( item )

  0013c	83 bd 74 ff ff
	ff 00		 cmp	 DWORD PTR _item$[ebp], 0
  00143	74 20		 je	 SHORT $L197899

; 49   : 	{
; 50   : 		bDrop = (GetItemState( item,TVIS_DROPHILITED ) & TVIS_DROPHILITED);

  00145	6a 08		 push	 8
  00147	8b 95 74 ff ff
	ff		 mov	 edx, DWORD PTR _item$[ebp]
  0014d	52		 push	 edx
  0014e	8b 8d 1c ff ff
	ff		 mov	 ecx, DWORD PTR _this$[ebp]
  00154	e8 00 00 00 00	 call	 ?GetItemState@CTreeCtrl@@QBEIPAU_TREEITEM@@I@Z ; CTreeCtrl::GetItemState
  00159	83 e0 08	 and	 eax, 8
  0015c	0f 95 c0	 setne	 al
  0015f	88 85 6f ff ff
	ff		 mov	 BYTE PTR _bDrop$[ebp], al
$L197899:

; 51   : 	}
; 52   : 	//当前所画的item的状况
; 53   : 	HTREEITEM hCurTreeItem = (HTREEITEM)(pLVCD->nmcd.dwItemSpec);

  00165	8b 4d a8	 mov	 ecx, DWORD PTR _pLVCD$[ebp]
  00168	8b 51 24	 mov	 edx, DWORD PTR [ecx+36]
  0016b	89 55 c4	 mov	 DWORD PTR _hCurTreeItem$[ebp], edx

; 54   : 	CRect rc, rctext;

  0016e	8d 4d e0	 lea	 ecx, DWORD PTR _rc$[ebp]
  00171	e8 00 00 00 00	 call	 ??0CRect@@QAE@XZ	; CRect::CRect
  00176	8d 4d 80	 lea	 ecx, DWORD PTR _rctext$[ebp]
  00179	e8 00 00 00 00	 call	 ??0CRect@@QAE@XZ	; CRect::CRect

; 55   : 	GetItemRect(hCurTreeItem, &rctext, true);

  0017e	6a 01		 push	 1
  00180	8d 45 80	 lea	 eax, DWORD PTR _rctext$[ebp]
  00183	50		 push	 eax
  00184	8b 4d c4	 mov	 ecx, DWORD PTR _hCurTreeItem$[ebp]
  00187	51		 push	 ecx
  00188	8b 8d 1c ff ff
	ff		 mov	 ecx, DWORD PTR _this$[ebp]
  0018e	e8 00 00 00 00	 call	 ?GetItemRect@CTreeCtrl@@QBEHPAU_TREEITEM@@PAUtagRECT@@H@Z ; CTreeCtrl::GetItemRect

; 56   : 	GetItemRect(hCurTreeItem, &rc, false);

  00193	6a 00		 push	 0
  00195	8d 55 e0	 lea	 edx, DWORD PTR _rc$[ebp]
  00198	52		 push	 edx
  00199	8b 45 c4	 mov	 eax, DWORD PTR _hCurTreeItem$[ebp]
  0019c	50		 push	 eax
  0019d	8b 8d 1c ff ff
	ff		 mov	 ecx, DWORD PTR _this$[ebp]
  001a3	e8 00 00 00 00	 call	 ?GetItemRect@CTreeCtrl@@QBEHPAU_TREEITEM@@PAUtagRECT@@H@Z ; CTreeCtrl::GetItemRect

; 57   : 	CString text = GetItemText(hCurTreeItem);

  001a8	8b 4d c4	 mov	 ecx, DWORD PTR _hCurTreeItem$[ebp]
  001ab	51		 push	 ecx
  001ac	8d 55 f0	 lea	 edx, DWORD PTR _text$[ebp]
  001af	52		 push	 edx
  001b0	8b 8d 1c ff ff
	ff		 mov	 ecx, DWORD PTR _this$[ebp]
  001b6	e8 00 00 00 00	 call	 ?GetItemText@CTreeCtrl@@QBE?AV?$CStringT@DV?$StrTraitMFC_DLL@DV?$ChTraitsCRT@D@ATL@@@@@ATL@@PAU_TREEITEM@@@Z ; CTreeCtrl::GetItemText
  001bb	c7 45 fc 00 00
	00 00		 mov	 DWORD PTR __$EHRec$[ebp+8], 0

; 58   : 	CRect newRc(rctext);

  001c2	8b 45 80	 mov	 eax, DWORD PTR _rctext$[ebp]
  001c5	89 45 c8	 mov	 DWORD PTR _newRc$[ebp], eax
  001c8	8b 4d 84	 mov	 ecx, DWORD PTR _rctext$[ebp+4]
  001cb	89 4d cc	 mov	 DWORD PTR _newRc$[ebp+4], ecx
  001ce	8b 55 88	 mov	 edx, DWORD PTR _rctext$[ebp+8]
  001d1	89 55 d0	 mov	 DWORD PTR _newRc$[ebp+8], edx
  001d4	8b 45 8c	 mov	 eax, DWORD PTR _rctext$[ebp+12]
  001d7	89 45 d4	 mov	 DWORD PTR _newRc$[ebp+12], eax

; 59   : 
; 60   : 	bool bSelect = (item==hCurTreeItem);

  001da	8b 8d 74 ff ff
	ff		 mov	 ecx, DWORD PTR _item$[ebp]
  001e0	2b 4d c4	 sub	 ecx, DWORD PTR _hCurTreeItem$[ebp]
  001e3	f7 d9		 neg	 ecx
  001e5	1b c9		 sbb	 ecx, ecx
  001e7	41		 inc	 ecx
  001e8	88 4d 93	 mov	 BYTE PTR _bSelect$[ebp], cl

; 61   : 	bool bHover = (hCurTreeItem==m_iHoverItem);

  001eb	8b 95 1c ff ff
	ff		 mov	 edx, DWORD PTR _this$[ebp]
  001f1	8b 45 c4	 mov	 eax, DWORD PTR _hCurTreeItem$[ebp]
  001f4	2b 82 98 00 00
	00		 sub	 eax, DWORD PTR [edx+152]
  001fa	f7 d8		 neg	 eax
  001fc	1b c0		 sbb	 eax, eax
  001fe	40		 inc	 eax
  001ff	88 45 af	 mov	 BYTE PTR _bHover$[ebp], al

; 62   : 	CDC* pDC = CDC::FromHandle(pLVCD->nmcd.hdc);

  00202	8b 4d a8	 mov	 ecx, DWORD PTR _pLVCD$[ebp]
  00205	8b 51 10	 mov	 edx, DWORD PTR [ecx+16]
  00208	52		 push	 edx
  00209	e8 00 00 00 00	 call	 ?FromHandle@CDC@@SGPAV1@PAUHDC__@@@Z ; CDC::FromHandle
  0020e	89 45 b0	 mov	 DWORD PTR _pDC$[ebp], eax

; 63   : 	COLORREF colorOld = pDC->GetTextColor();

  00211	8b 4d b0	 mov	 ecx, DWORD PTR _pDC$[ebp]
  00214	e8 00 00 00 00	 call	 ?GetTextColor@CDC@@QBEKXZ ; CDC::GetTextColor
  00219	89 45 94	 mov	 DWORD PTR _colorOld$[ebp], eax

; 64   : 	CFont* pOldFont = GetFont();

  0021c	8b 8d 1c ff ff
	ff		 mov	 ecx, DWORD PTR _this$[ebp]
  00222	e8 00 00 00 00	 call	 ?GetFont@CWnd@@QBEPAVCFont@@XZ ; CWnd::GetFont
  00227	89 45 dc	 mov	 DWORD PTR _pOldFont$[ebp], eax

; 65   : 	int nImage, nSelectedImage;
; 66   : 	GetItemImage( hCurTreeItem, nImage, nSelectedImage );

  0022a	8d 85 7c ff ff
	ff		 lea	 eax, DWORD PTR _nSelectedImage$[ebp]
  00230	50		 push	 eax
  00231	8d 8d 78 ff ff
	ff		 lea	 ecx, DWORD PTR _nImage$[ebp]
  00237	51		 push	 ecx
  00238	8b 55 c4	 mov	 edx, DWORD PTR _hCurTreeItem$[ebp]
  0023b	52		 push	 edx
  0023c	8b 8d 1c ff ff
	ff		 mov	 ecx, DWORD PTR _this$[ebp]
  00242	e8 00 00 00 00	 call	 ?GetItemImage@CTreeCtrl@@QBEHPAU_TREEITEM@@AAH1@Z ; CTreeCtrl::GetItemImage

; 67   : 	UINT nFormat = DT_LEFT|DT_VCENTER|DT_SINGLELINE|DT_NOPREFIX;

  00247	c7 45 d8 24 08
	00 00		 mov	 DWORD PTR _nFormat$[ebp], 2084 ; 00000824H

; 68   : 
; 69   : 	CRect rcDrawText;//写字的范围

  0024e	8d 4d 98	 lea	 ecx, DWORD PTR _rcDrawText$[ebp]
  00251	e8 00 00 00 00	 call	 ??0CRect@@QAE@XZ	; CRect::CRect

; 70   : 	CRect rcDrawTextReal; //实际写出的字的范围

  00256	8d 4d b4	 lea	 ecx, DWORD PTR _rcDrawTextReal$[ebp]
  00259	e8 00 00 00 00	 call	 ??0CRect@@QAE@XZ	; CRect::CRect

; 71   : 	CDibBitmap *pDibTopLine = NULL;

  0025e	c7 85 70 ff ff
	ff 00 00 00 00	 mov	 DWORD PTR _pDibTopLine$[ebp], 0

; 72   : 
; 73   : 	switch (pLVCD->nmcd.dwDrawStage)

  00268	8b 45 a8	 mov	 eax, DWORD PTR _pLVCD$[ebp]
  0026b	8b 48 0c	 mov	 ecx, DWORD PTR [eax+12]
  0026e	89 8d 18 ff ff
	ff		 mov	 DWORD PTR tv143[ebp], ecx
  00274	83 bd 18 ff ff
	ff 01		 cmp	 DWORD PTR tv143[ebp], 1
  0027b	0f 84 77 04 00
	00		 je	 $L197942
  00281	81 bd 18 ff ff
	ff 01 00 01 00	 cmp	 DWORD PTR tv143[ebp], 65537 ; 00010001H
  0028b	74 05		 je	 SHORT $L197922
  0028d	e9 23 05 00 00	 jmp	 $L197947
$L197922:

; 74   : 	{
; 75   : 	case CDDS_ITEMPREPAINT:
; 76   : 		//画出每个item上边的横道
; 77   : 		pDibTopLine = ::AfxGetUIManager()->UIGetSkinMgr()->GetDibBmp("ListBkTop");

  00292	e8 00 00 00 00	 call	 ?AfxGetUIManager@@YAPAVIUIManager@@XZ ; AfxGetUIManager
  00297	89 85 14 ff ff
	ff		 mov	 DWORD PTR tv146[ebp], eax
  0029d	8b 95 14 ff ff
	ff		 mov	 edx, DWORD PTR tv146[ebp]
  002a3	8b 02		 mov	 eax, DWORD PTR [edx]
  002a5	8b 8d 14 ff ff
	ff		 mov	 ecx, DWORD PTR tv146[ebp]
  002ab	ff 50 28	 call	 DWORD PTR [eax+40]
  002ae	89 85 10 ff ff
	ff		 mov	 DWORD PTR tv151[ebp], eax
  002b4	68 00 00 00 00	 push	 OFFSET FLAT:$SG197923
  002b9	8b 8d 10 ff ff
	ff		 mov	 ecx, DWORD PTR tv151[ebp]
  002bf	8b 11		 mov	 edx, DWORD PTR [ecx]
  002c1	8b 8d 10 ff ff
	ff		 mov	 ecx, DWORD PTR tv151[ebp]
  002c7	ff 52 04	 call	 DWORD PTR [edx+4]
  002ca	89 85 70 ff ff
	ff		 mov	 DWORD PTR _pDibTopLine$[ebp], eax

; 78   : 		if( pDibTopLine != NULL )

  002d0	83 bd 70 ff ff
	ff 00		 cmp	 DWORD PTR _pDibTopLine$[ebp], 0
  002d7	0f 84 9c 00 00
	00		 je	 $L197924

; 79   : 		{
; 80   : 			CRect rcTop(rc);

  002dd	8b 45 e0	 mov	 eax, DWORD PTR _rc$[ebp]
  002e0	89 85 24 ff ff
	ff		 mov	 DWORD PTR _rcTop$197925[ebp], eax
  002e6	8b 4d e4	 mov	 ecx, DWORD PTR _rc$[ebp+4]
  002e9	89 8d 28 ff ff
	ff		 mov	 DWORD PTR _rcTop$197925[ebp+4], ecx
  002ef	8b 55 e8	 mov	 edx, DWORD PTR _rc$[ebp+8]
  002f2	89 95 2c ff ff
	ff		 mov	 DWORD PTR _rcTop$197925[ebp+8], edx
  002f8	8b 45 ec	 mov	 eax, DWORD PTR _rc$[ebp+12]
  002fb	89 85 30 ff ff
	ff		 mov	 DWORD PTR _rcTop$197925[ebp+12], eax

; 81   : 			rcTop.bottom = rcTop.top + pDibTopLine->GetHeight();

  00301	8b 8d 70 ff ff
	ff		 mov	 ecx, DWORD PTR _pDibTopLine$[ebp]
  00307	e8 00 00 00 00	 call	 ?GetHeight@CDibBitmap@@QAEHXZ ; CDibBitmap::GetHeight
  0030c	03 85 28 ff ff
	ff		 add	 eax, DWORD PTR _rcTop$197925[ebp+4]
  00312	89 85 30 ff ff
	ff		 mov	 DWORD PTR _rcTop$197925[ebp+12], eax

; 82   : 			rcTop.left   = 8;

  00318	c7 85 24 ff ff
	ff 08 00 00 00	 mov	 DWORD PTR _rcTop$197925[ebp], 8

; 83   : 			rcTop.right  = rcTop.right - 8;

  00322	8b 8d 2c ff ff
	ff		 mov	 ecx, DWORD PTR _rcTop$197925[ebp+8]
  00328	83 e9 08	 sub	 ecx, 8
  0032b	89 8d 2c ff ff
	ff		 mov	 DWORD PTR _rcTop$197925[ebp+8], ecx

; 84   : 			pDibTopLine->SetCDibRect(rcTop);

  00331	83 ec 10	 sub	 esp, 16			; 00000010H
  00334	8b d4		 mov	 edx, esp
  00336	8b 85 24 ff ff
	ff		 mov	 eax, DWORD PTR _rcTop$197925[ebp]
  0033c	89 02		 mov	 DWORD PTR [edx], eax
  0033e	8b 8d 28 ff ff
	ff		 mov	 ecx, DWORD PTR _rcTop$197925[ebp+4]
  00344	89 4a 04	 mov	 DWORD PTR [edx+4], ecx
  00347	8b 85 2c ff ff
	ff		 mov	 eax, DWORD PTR _rcTop$197925[ebp+8]
  0034d	89 42 08	 mov	 DWORD PTR [edx+8], eax
  00350	8b 8d 30 ff ff
	ff		 mov	 ecx, DWORD PTR _rcTop$197925[ebp+12]
  00356	89 4a 0c	 mov	 DWORD PTR [edx+12], ecx
  00359	8b 8d 70 ff ff
	ff		 mov	 ecx, DWORD PTR _pDibTopLine$[ebp]
  0035f	e8 00 00 00 00	 call	 ?SetCDibRect@CDibBitmap@@QAEXVCRect@@@Z ; CDibBitmap::SetCDibRect

; 85   : 			pDibTopLine->Draw(pDC, true);

  00364	6a 01		 push	 1
  00366	6a 00		 push	 0
  00368	6a 01		 push	 1
  0036a	8b 55 b0	 mov	 edx, DWORD PTR _pDC$[ebp]
  0036d	52		 push	 edx
  0036e	8b 8d 70 ff ff
	ff		 mov	 ecx, DWORD PTR _pDibTopLine$[ebp]
  00374	e8 00 00 00 00	 call	 ?Draw@CDibBitmap@@QAEHPAVCDC@@HKH@Z ; CDibBitmap::Draw
$L197924:

; 86   : 		}
; 87   : 		//画背景/////////////////////////////////////////////////////////////
; 88   : 		if( bSelect )

  00379	0f b6 45 93	 movzx	 eax, BYTE PTR _bSelect$[ebp]
  0037d	85 c0		 test	 eax, eax
  0037f	74 1b		 je	 SHORT $L197926

; 89   : 		{
; 90   : 			pDC->FillSolidRect(&rc,m_colorSelectItemBK);

  00381	8b 8d 1c ff ff
	ff		 mov	 ecx, DWORD PTR _this$[ebp]
  00387	8b 51 78	 mov	 edx, DWORD PTR [ecx+120]
  0038a	52		 push	 edx
  0038b	8d 45 e0	 lea	 eax, DWORD PTR _rc$[ebp]
  0038e	50		 push	 eax
  0038f	8b 4d b0	 mov	 ecx, DWORD PTR _pDC$[ebp]
  00392	e8 00 00 00 00	 call	 ?FillSolidRect@CDC@@QAEXPBUtagRECT@@K@Z ; CDC::FillSolidRect

; 91   : 		}else

  00397	e9 82 00 00 00	 jmp	 $L197927
$L197926:

; 92   : 		if( bHover )

  0039c	0f b6 4d af	 movzx	 ecx, BYTE PTR _bHover$[ebp]
  003a0	85 c9		 test	 ecx, ecx
  003a2	74 7a		 je	 SHORT $L197927

; 93   : 		{
; 94   : 			CDibBitmap *pDib = ::AfxGetUIManager()->UIGetSkinMgr()->GetDibBmp("ListHoverBK");

  003a4	e8 00 00 00 00	 call	 ?AfxGetUIManager@@YAPAVIUIManager@@XZ ; AfxGetUIManager
  003a9	89 85 0c ff ff
	ff		 mov	 DWORD PTR tv210[ebp], eax
  003af	8b 95 0c ff ff
	ff		 mov	 edx, DWORD PTR tv210[ebp]
  003b5	8b 02		 mov	 eax, DWORD PTR [edx]
  003b7	8b 8d 0c ff ff
	ff		 mov	 ecx, DWORD PTR tv210[ebp]
  003bd	ff 50 28	 call	 DWORD PTR [eax+40]
  003c0	89 85 08 ff ff
	ff		 mov	 DWORD PTR tv215[ebp], eax
  003c6	68 00 00 00 00	 push	 OFFSET FLAT:$SG197930
  003cb	8b 8d 08 ff ff
	ff		 mov	 ecx, DWORD PTR tv215[ebp]
  003d1	8b 11		 mov	 edx, DWORD PTR [ecx]
  003d3	8b 8d 08 ff ff
	ff		 mov	 ecx, DWORD PTR tv215[ebp]
  003d9	ff 52 04	 call	 DWORD PTR [edx+4]
  003dc	89 85 20 ff ff
	ff		 mov	 DWORD PTR _pDib$197929[ebp], eax

; 95   : 			pDib->SetCDibRect(rc);

  003e2	83 ec 10	 sub	 esp, 16			; 00000010H
  003e5	8b c4		 mov	 eax, esp
  003e7	8b 4d e0	 mov	 ecx, DWORD PTR _rc$[ebp]
  003ea	89 08		 mov	 DWORD PTR [eax], ecx
  003ec	8b 55 e4	 mov	 edx, DWORD PTR _rc$[ebp+4]
  003ef	89 50 04	 mov	 DWORD PTR [eax+4], edx
  003f2	8b 4d e8	 mov	 ecx, DWORD PTR _rc$[ebp+8]
  003f5	89 48 08	 mov	 DWORD PTR [eax+8], ecx
  003f8	8b 55 ec	 mov	 edx, DWORD PTR _rc$[ebp+12]
  003fb	89 50 0c	 mov	 DWORD PTR [eax+12], edx
  003fe	8b 8d 20 ff ff
	ff		 mov	 ecx, DWORD PTR _pDib$197929[ebp]
  00404	e8 00 00 00 00	 call	 ?SetCDibRect@CDibBitmap@@QAEXVCRect@@@Z ; CDibBitmap::SetCDibRect

; 96   : 			pDib->Draw(pDC, true);

  00409	6a 01		 push	 1
  0040b	6a 00		 push	 0
  0040d	6a 01		 push	 1
  0040f	8b 45 b0	 mov	 eax, DWORD PTR _pDC$[ebp]
  00412	50		 push	 eax
  00413	8b 8d 20 ff ff
	ff		 mov	 ecx, DWORD PTR _pDib$197929[ebp]
  00419	e8 00 00 00 00	 call	 ?Draw@CDibBitmap@@QAEHPAVCDC@@HKH@Z ; CDibBitmap::Draw
$L197927:

; 97   : 		}
; 98   : 		//字前的图/////////////////////////////////////////////////////////////
; 99   : 		IMAGEINFO imageInfo;
; 100  : 		m_ImageList.GetImageInfo( nImage, &imageInfo );

  0041e	8d 8d 44 ff ff
	ff		 lea	 ecx, DWORD PTR _imageInfo$197931[ebp]
  00424	51		 push	 ecx
  00425	8b 95 78 ff ff
	ff		 mov	 edx, DWORD PTR _nImage$[ebp]
  0042b	52		 push	 edx
  0042c	8b 8d 1c ff ff
	ff		 mov	 ecx, DWORD PTR _this$[ebp]
  00432	83 c1 54	 add	 ecx, 84			; 00000054H
  00435	e8 00 00 00 00	 call	 ?GetImageInfo@CImageList@@QBEHHPAU_IMAGEINFO@@@Z ; CImageList::GetImageInfo

; 101  : 					
; 102  : 		SIZE size;
; 103  : 		size.cx = size.cy = imageInfo.rcImage.right-imageInfo.rcImage.left;

  0043a	8b 85 5c ff ff
	ff		 mov	 eax, DWORD PTR _imageInfo$197931[ebp+24]
  00440	2b 85 54 ff ff
	ff		 sub	 eax, DWORD PTR _imageInfo$197931[ebp+16]
  00446	89 85 68 ff ff
	ff		 mov	 DWORD PTR _size$197932[ebp+4], eax
  0044c	8b 8d 68 ff ff
	ff		 mov	 ecx, DWORD PTR _size$197932[ebp+4]
  00452	89 8d 64 ff ff
	ff		 mov	 DWORD PTR _size$197932[ebp], ecx

; 104  : 		POINT pDes, pSrc;
; 105  : 		pDes.x = rctext.left - GetItemHeight() + ( GetItemHeight()-size.cx )/2;

  00458	8b 8d 1c ff ff
	ff		 mov	 ecx, DWORD PTR _this$[ebp]
  0045e	e8 00 00 00 00	 call	 ?GetItemHeight@CTreeCtrl@@QBEFXZ ; CTreeCtrl::GetItemHeight
  00463	0f bf d0	 movsx	 edx, ax
  00466	8b 75 80	 mov	 esi, DWORD PTR _rctext$[ebp]
  00469	2b f2		 sub	 esi, edx
  0046b	8b 8d 1c ff ff
	ff		 mov	 ecx, DWORD PTR _this$[ebp]
  00471	e8 00 00 00 00	 call	 ?GetItemHeight@CTreeCtrl@@QBEFXZ ; CTreeCtrl::GetItemHeight
  00476	0f bf c0	 movsx	 eax, ax
  00479	2b 85 64 ff ff
	ff		 sub	 eax, DWORD PTR _size$197932[ebp]
  0047f	99		 cdq
  00480	2b c2		 sub	 eax, edx
  00482	d1 f8		 sar	 eax, 1
  00484	03 f0		 add	 esi, eax
  00486	89 b5 34 ff ff
	ff		 mov	 DWORD PTR _pDes$197933[ebp], esi

; 106  : 		pDes.y = rctext.top + ( GetItemHeight()-size.cy )/2;

  0048c	8b 8d 1c ff ff
	ff		 mov	 ecx, DWORD PTR _this$[ebp]
  00492	e8 00 00 00 00	 call	 ?GetItemHeight@CTreeCtrl@@QBEFXZ ; CTreeCtrl::GetItemHeight
  00497	0f bf c0	 movsx	 eax, ax
  0049a	2b 85 68 ff ff
	ff		 sub	 eax, DWORD PTR _size$197932[ebp+4]
  004a0	99		 cdq
  004a1	2b c2		 sub	 eax, edx
  004a3	d1 f8		 sar	 eax, 1
  004a5	03 45 84	 add	 eax, DWORD PTR _rctext$[ebp+4]
  004a8	89 85 38 ff ff
	ff		 mov	 DWORD PTR _pDes$197933[ebp+4], eax

; 107  : 		pSrc.x = pSrc.y = 0;

  004ae	c7 85 40 ff ff
	ff 00 00 00 00	 mov	 DWORD PTR _pSrc$197934[ebp+4], 0
  004b8	8b 85 40 ff ff
	ff		 mov	 eax, DWORD PTR _pSrc$197934[ebp+4]
  004be	89 85 3c ff ff
	ff		 mov	 DWORD PTR _pSrc$197934[ebp], eax

; 108  : 		m_ImageList.DrawIndirect(pDC, nImage, pDes, size, pSrc );

  004c4	68 00 00 00 ff	 push	 -16777216		; ff000000H
  004c9	6a 00		 push	 0
  004cb	6a 00		 push	 0
  004cd	68 00 00 00 ff	 push	 -16777216		; ff000000H
  004d2	68 00 00 00 ff	 push	 -16777216		; ff000000H
  004d7	68 20 00 cc 00	 push	 13369376		; 00cc0020H
  004dc	6a 00		 push	 0
  004de	8b 8d 40 ff ff
	ff		 mov	 ecx, DWORD PTR _pSrc$197934[ebp+4]
  004e4	51		 push	 ecx
  004e5	8b 95 3c ff ff
	ff		 mov	 edx, DWORD PTR _pSrc$197934[ebp]
  004eb	52		 push	 edx
  004ec	8b 85 68 ff ff
	ff		 mov	 eax, DWORD PTR _size$197932[ebp+4]
  004f2	50		 push	 eax
  004f3	8b 8d 64 ff ff
	ff		 mov	 ecx, DWORD PTR _size$197932[ebp]
  004f9	51		 push	 ecx
  004fa	8b 95 38 ff ff
	ff		 mov	 edx, DWORD PTR _pDes$197933[ebp+4]
  00500	52		 push	 edx
  00501	8b 85 34 ff ff
	ff		 mov	 eax, DWORD PTR _pDes$197933[ebp]
  00507	50		 push	 eax
  00508	8b 8d 78 ff ff
	ff		 mov	 ecx, DWORD PTR _nImage$[ebp]
  0050e	51		 push	 ecx
  0050f	8b 55 b0	 mov	 edx, DWORD PTR _pDC$[ebp]
  00512	52		 push	 edx
  00513	8b 8d 1c ff ff
	ff		 mov	 ecx, DWORD PTR _this$[ebp]
  00519	83 c1 54	 add	 ecx, 84			; 00000054H
  0051c	e8 00 00 00 00	 call	 ?DrawIndirect@CImageList@@QAEHPAVCDC@@HUtagPOINT@@UtagSIZE@@1IKKKKKK@Z ; CImageList::DrawIndirect

; 109  : 		//画字后面的btn/////////////////////////////
; 110  : 		m_BtnRect = rc;

  00521	8b 85 1c ff ff
	ff		 mov	 eax, DWORD PTR _this$[ebp]
  00527	05 a8 00 00 00	 add	 eax, 168		; 000000a8H
  0052c	8b 4d e0	 mov	 ecx, DWORD PTR _rc$[ebp]
  0052f	89 08		 mov	 DWORD PTR [eax], ecx
  00531	8b 55 e4	 mov	 edx, DWORD PTR _rc$[ebp+4]
  00534	89 50 04	 mov	 DWORD PTR [eax+4], edx
  00537	8b 4d e8	 mov	 ecx, DWORD PTR _rc$[ebp+8]
  0053a	89 48 08	 mov	 DWORD PTR [eax+8], ecx
  0053d	8b 55 ec	 mov	 edx, DWORD PTR _rc$[ebp+12]
  00540	89 50 0c	 mov	 DWORD PTR [eax+12], edx

; 111  : 		if( bSelect && !m_bHideBtn && pLVCD->iLevel == 1 )

  00543	0f b6 45 93	 movzx	 eax, BYTE PTR _bSelect$[ebp]
  00547	85 c0		 test	 eax, eax
  00549	74 37		 je	 SHORT $L197935
  0054b	8b 8d 1c ff ff
	ff		 mov	 ecx, DWORD PTR _this$[ebp]
  00551	0f b6 91 ba 00
	00 00		 movzx	 edx, BYTE PTR [ecx+186]
  00558	85 d2		 test	 edx, edx
  0055a	75 26		 jne	 SHORT $L197935
  0055c	8b 45 a8	 mov	 eax, DWORD PTR _pLVCD$[ebp]
  0055f	83 78 38 01	 cmp	 DWORD PTR [eax+56], 1
  00563	75 1d		 jne	 SHORT $L197935

; 112  : 		{
; 113  : 			m_BtnRect.left = m_BtnRect.right - 30;			

  00565	8b 8d 1c ff ff
	ff		 mov	 ecx, DWORD PTR _this$[ebp]
  0056b	8b 91 b0 00 00
	00		 mov	 edx, DWORD PTR [ecx+176]
  00571	83 ea 1e	 sub	 edx, 30			; 0000001eH
  00574	8b 85 1c ff ff
	ff		 mov	 eax, DWORD PTR _this$[ebp]
  0057a	89 90 a8 00 00
	00		 mov	 DWORD PTR [eax+168], edx

; 114  : 		}else

  00580	eb 18		 jmp	 SHORT $L197936
$L197935:

; 115  : 		{
; 116  : 			m_BtnRect.left = m_BtnRect.right;

  00582	8b 8d 1c ff ff
	ff		 mov	 ecx, DWORD PTR _this$[ebp]
  00588	8b 95 1c ff ff
	ff		 mov	 edx, DWORD PTR _this$[ebp]
  0058e	8b 82 b0 00 00
	00		 mov	 eax, DWORD PTR [edx+176]
  00594	89 81 a8 00 00
	00		 mov	 DWORD PTR [ecx+168], eax
$L197936:

; 117  : 		}
; 118  : 		newRc = rctext;

  0059a	8b 4d 80	 mov	 ecx, DWORD PTR _rctext$[ebp]
  0059d	89 4d c8	 mov	 DWORD PTR _newRc$[ebp], ecx
  005a0	8b 55 84	 mov	 edx, DWORD PTR _rctext$[ebp+4]
  005a3	89 55 cc	 mov	 DWORD PTR _newRc$[ebp+4], edx
  005a6	8b 45 88	 mov	 eax, DWORD PTR _rctext$[ebp+8]
  005a9	89 45 d0	 mov	 DWORD PTR _newRc$[ebp+8], eax
  005ac	8b 4d 8c	 mov	 ecx, DWORD PTR _rctext$[ebp+12]
  005af	89 4d d4	 mov	 DWORD PTR _newRc$[ebp+12], ecx

; 119  : 		if(pLVCD->iLevel == 1)

  005b2	8b 55 a8	 mov	 edx, DWORD PTR _pLVCD$[ebp]
  005b5	83 7a 38 01	 cmp	 DWORD PTR [edx+56], 1
  005b9	75 73		 jne	 SHORT $L197937

; 120  : 		{
; 121  : 			newRc.right = m_BtnRect.left;

  005bb	8b 85 1c ff ff
	ff		 mov	 eax, DWORD PTR _this$[ebp]
  005c1	8b 88 a8 00 00
	00		 mov	 ecx, DWORD PTR [eax+168]
  005c7	89 4d d0	 mov	 DWORD PTR _newRc$[ebp+8], ecx

; 122  : 			if( m_bMouseOverBtn )

  005ca	8b 95 1c ff ff
	ff		 mov	 edx, DWORD PTR _this$[ebp]
  005d0	0f b6 82 b8 00
	00 00		 movzx	 eax, BYTE PTR [edx+184]
  005d7	85 c0		 test	 eax, eax
  005d9	74 2b		 je	 SHORT $L197938

; 123  : 			{
; 124  : 				DrawImage( m_pBitmapOver, m_BtnRect, *pDC );

  005db	8b 4d b0	 mov	 ecx, DWORD PTR _pDC$[ebp]
  005de	51		 push	 ecx
  005df	8b 95 1c ff ff
	ff		 mov	 edx, DWORD PTR _this$[ebp]
  005e5	81 c2 a8 00 00
	00		 add	 edx, 168		; 000000a8H
  005eb	52		 push	 edx
  005ec	8b 85 1c ff ff
	ff		 mov	 eax, DWORD PTR _this$[ebp]
  005f2	8b 88 9c 00 00
	00		 mov	 ecx, DWORD PTR [eax+156]
  005f8	51		 push	 ecx
  005f9	8b 8d 1c ff ff
	ff		 mov	 ecx, DWORD PTR _this$[ebp]
  005ff	e8 00 00 00 00	 call	 ?DrawImage@CMyBtnTreeCtrl@@QAEXPAVCDibBitmap@@AAVCRect@@AAVCDC@@@Z ; CMyBtnTreeCtrl::DrawImage

; 125  : 			}else

  00604	eb 28		 jmp	 SHORT $L197937
$L197938:

; 126  : 			{
; 127  : 				DrawImage( m_pBitmapNormal, m_BtnRect, *pDC );

  00606	8b 55 b0	 mov	 edx, DWORD PTR _pDC$[ebp]
  00609	52		 push	 edx
  0060a	8b 85 1c ff ff
	ff		 mov	 eax, DWORD PTR _this$[ebp]
  00610	05 a8 00 00 00	 add	 eax, 168		; 000000a8H
  00615	50		 push	 eax
  00616	8b 8d 1c ff ff
	ff		 mov	 ecx, DWORD PTR _this$[ebp]
  0061c	8b 91 a0 00 00
	00		 mov	 edx, DWORD PTR [ecx+160]
  00622	52		 push	 edx
  00623	8b 8d 1c ff ff
	ff		 mov	 ecx, DWORD PTR _this$[ebp]
  00629	e8 00 00 00 00	 call	 ?DrawImage@CMyBtnTreeCtrl@@QAEXPAVCDibBitmap@@AAVCRect@@AAVCDC@@@Z ; CMyBtnTreeCtrl::DrawImage
$L197937:

; 128  : 			}
; 129  : 		}
; 130  : 		//写字/////////////////////////////////////////////////////////////
; 131  : 		pDC->SetBkMode( TRANSPARENT );

  0062e	6a 01		 push	 1
  00630	8b 4d b0	 mov	 ecx, DWORD PTR _pDC$[ebp]
  00633	e8 00 00 00 00	 call	 ?SetBkMode@CDC@@QAEHH@Z	; CDC::SetBkMode

; 132  : 		if( bSelect )//选中时的写字颜色

  00638	0f b6 45 93	 movzx	 eax, BYTE PTR _bSelect$[ebp]
  0063c	85 c0		 test	 eax, eax
  0063e	74 17		 je	 SHORT $L197940

; 133  : 		{
; 134  : 			pDC->SetTextColor(m_colorSelectItemText);

  00640	8b 8d 1c ff ff
	ff		 mov	 ecx, DWORD PTR _this$[ebp]
  00646	8b 51 7c	 mov	 edx, DWORD PTR [ecx+124]
  00649	52		 push	 edx
  0064a	8b 45 b0	 mov	 eax, DWORD PTR _pDC$[ebp]
  0064d	8b 10		 mov	 edx, DWORD PTR [eax]
  0064f	8b 4d b0	 mov	 ecx, DWORD PTR _pDC$[ebp]
  00652	ff 52 38	 call	 DWORD PTR [edx+56]

; 135  : 		}
; 136  : 		else

  00655	eb 18		 jmp	 SHORT $L197941
$L197940:

; 137  : 		{
; 138  : 			pDC->SetTextColor(m_colorNormalItemText);

  00657	8b 85 1c ff ff
	ff		 mov	 eax, DWORD PTR _this$[ebp]
  0065d	8b 88 80 00 00
	00		 mov	 ecx, DWORD PTR [eax+128]
  00663	51		 push	 ecx
  00664	8b 55 b0	 mov	 edx, DWORD PTR _pDC$[ebp]
  00667	8b 02		 mov	 eax, DWORD PTR [edx]
  00669	8b 4d b0	 mov	 ecx, DWORD PTR _pDC$[ebp]
  0066c	ff 50 38	 call	 DWORD PTR [eax+56]
$L197941:

; 139  : 		}
; 140  : 
; 141  : 		rcDrawText = newRc;

  0066f	8b 4d c8	 mov	 ecx, DWORD PTR _newRc$[ebp]
  00672	89 4d 98	 mov	 DWORD PTR _rcDrawText$[ebp], ecx
  00675	8b 55 cc	 mov	 edx, DWORD PTR _newRc$[ebp+4]
  00678	89 55 9c	 mov	 DWORD PTR _rcDrawText$[ebp+4], edx
  0067b	8b 45 d0	 mov	 eax, DWORD PTR _newRc$[ebp+8]
  0067e	89 45 a0	 mov	 DWORD PTR _rcDrawText$[ebp+8], eax
  00681	8b 4d d4	 mov	 ecx, DWORD PTR _newRc$[ebp+12]
  00684	89 4d a4	 mov	 DWORD PTR _rcDrawText$[ebp+12], ecx

; 142  : 		pDC->DrawText(text,&rcDrawText,nFormat);

  00687	8b 55 d8	 mov	 edx, DWORD PTR _nFormat$[ebp]
  0068a	52		 push	 edx
  0068b	8d 45 98	 lea	 eax, DWORD PTR _rcDrawText$[ebp]
  0068e	50		 push	 eax
  0068f	8d 4d f0	 lea	 ecx, DWORD PTR _text$[ebp]
  00692	51		 push	 ecx
  00693	8b 4d b0	 mov	 ecx, DWORD PTR _pDC$[ebp]
  00696	e8 00 00 00 00	 call	 ?DrawTextA@CDC@@QAEHABV?$CStringT@DV?$StrTraitMFC_DLL@DV?$ChTraitsCRT@D@ATL@@@@@ATL@@PAUtagRECT@@I@Z ; CDC::DrawTextA

; 143  : 		rcDrawTextReal = rcDrawText;

  0069b	8b 55 98	 mov	 edx, DWORD PTR _rcDrawText$[ebp]
  0069e	89 55 b4	 mov	 DWORD PTR _rcDrawTextReal$[ebp], edx
  006a1	8b 45 9c	 mov	 eax, DWORD PTR _rcDrawText$[ebp+4]
  006a4	89 45 b8	 mov	 DWORD PTR _rcDrawTextReal$[ebp+4], eax
  006a7	8b 4d a0	 mov	 ecx, DWORD PTR _rcDrawText$[ebp+8]
  006aa	89 4d bc	 mov	 DWORD PTR _rcDrawTextReal$[ebp+8], ecx
  006ad	8b 55 a4	 mov	 edx, DWORD PTR _rcDrawText$[ebp+12]
  006b0	89 55 c0	 mov	 DWORD PTR _rcDrawTextReal$[ebp+12], edx

; 144  : 		pDC->DrawText(text,&rcDrawTextReal,nFormat|DT_CALCRECT);

  006b3	8b 45 d8	 mov	 eax, DWORD PTR _nFormat$[ebp]
  006b6	0d 00 04 00 00	 or	 eax, 1024		; 00000400H
  006bb	50		 push	 eax
  006bc	8d 4d b4	 lea	 ecx, DWORD PTR _rcDrawTextReal$[ebp]
  006bf	51		 push	 ecx
  006c0	8d 55 f0	 lea	 edx, DWORD PTR _text$[ebp]
  006c3	52		 push	 edx
  006c4	8b 4d b0	 mov	 ecx, DWORD PTR _pDC$[ebp]
  006c7	e8 00 00 00 00	 call	 ?DrawTextA@CDC@@QAEHABV?$CStringT@DV?$StrTraitMFC_DLL@DV?$ChTraitsCRT@D@ATL@@@@@ATL@@PAUtagRECT@@I@Z ; CDC::DrawTextA

; 145  : 
; 146  : 		pDC->SetTextColor(colorOld);

  006cc	8b 45 94	 mov	 eax, DWORD PTR _colorOld$[ebp]
  006cf	50		 push	 eax
  006d0	8b 4d b0	 mov	 ecx, DWORD PTR _pDC$[ebp]
  006d3	8b 11		 mov	 edx, DWORD PTR [ecx]
  006d5	8b 4d b0	 mov	 ecx, DWORD PTR _pDC$[ebp]
  006d8	ff 52 38	 call	 DWORD PTR [edx+56]

; 147  : 		pDC->SelectObject(pOldFont);

  006db	8b 45 dc	 mov	 eax, DWORD PTR _pOldFont$[ebp]
  006de	50		 push	 eax
  006df	8b 4d b0	 mov	 ecx, DWORD PTR _pDC$[ebp]
  006e2	8b 11		 mov	 edx, DWORD PTR [ecx]
  006e4	8b 4d b0	 mov	 ecx, DWORD PTR _pDC$[ebp]
  006e7	ff 52 30	 call	 DWORD PTR [edx+48]

; 148  : 		/////////////////////////////////////////////////////////////
; 149  : 		*pResult = CDRF_SKIPDEFAULT;

  006ea	8b 45 0c	 mov	 eax, DWORD PTR _pResult$[ebp]
  006ed	c7 00 04 00 00
	00		 mov	 DWORD PTR [eax], 4

; 150  : 		break;

  006f3	e9 c6 00 00 00	 jmp	 $L197919
$L197942:

; 151  : 	case CDDS_PREPAINT :
; 152  : 		if ( rc == pLVCD->nmcd.rc /*|| bDrop*/ )

  006f8	8b 4d a8	 mov	 ecx, DWORD PTR _pLVCD$[ebp]
  006fb	83 c1 14	 add	 ecx, 20			; 00000014H
  006fe	51		 push	 ecx
  006ff	8d 4d e0	 lea	 ecx, DWORD PTR _rc$[ebp]
  00702	e8 00 00 00 00	 call	 ??8CRect@@QBEHABUtagRECT@@@Z ; CRect::operator==
  00707	85 c0		 test	 eax, eax
  00709	0f 84 89 00 00
	00		 je	 $L197943

; 153  : 		{
; 154  : 			pLVCD->clrTextBk = m_colorSelectItemBK;//RGB(0x0,0x0,0xFF);

  0070f	8b 55 a8	 mov	 edx, DWORD PTR _pLVCD$[ebp]
  00712	8b 85 1c ff ff
	ff		 mov	 eax, DWORD PTR _this$[ebp]
  00718	8b 48 78	 mov	 ecx, DWORD PTR [eax+120]
  0071b	89 4a 34	 mov	 DWORD PTR [edx+52], ecx

; 155  : 			pLVCD->clrText   = m_colorSelectItemText;			

  0071e	8b 55 a8	 mov	 edx, DWORD PTR _pLVCD$[ebp]
  00721	8b 85 1c ff ff
	ff		 mov	 eax, DWORD PTR _this$[ebp]
  00727	8b 48 7c	 mov	 ecx, DWORD PTR [eax+124]
  0072a	89 4a 30	 mov	 DWORD PTR [edx+48], ecx

; 156  : 			m_BtnRect = rc;

  0072d	8b 95 1c ff ff
	ff		 mov	 edx, DWORD PTR _this$[ebp]
  00733	81 c2 a8 00 00
	00		 add	 edx, 168		; 000000a8H
  00739	8b 45 e0	 mov	 eax, DWORD PTR _rc$[ebp]
  0073c	89 02		 mov	 DWORD PTR [edx], eax
  0073e	8b 4d e4	 mov	 ecx, DWORD PTR _rc$[ebp+4]
  00741	89 4a 04	 mov	 DWORD PTR [edx+4], ecx
  00744	8b 45 e8	 mov	 eax, DWORD PTR _rc$[ebp+8]
  00747	89 42 08	 mov	 DWORD PTR [edx+8], eax
  0074a	8b 4d ec	 mov	 ecx, DWORD PTR _rc$[ebp+12]
  0074d	89 4a 0c	 mov	 DWORD PTR [edx+12], ecx

; 157  : 			if(m_bHideBtn)

  00750	8b 95 1c ff ff
	ff		 mov	 edx, DWORD PTR _this$[ebp]
  00756	0f b6 82 ba 00
	00 00		 movzx	 eax, BYTE PTR [edx+186]
  0075d	85 c0		 test	 eax, eax
  0075f	74 1a		 je	 SHORT $L197944

; 158  : 				m_BtnRect.left = m_BtnRect.right;// - 30;

  00761	8b 8d 1c ff ff
	ff		 mov	 ecx, DWORD PTR _this$[ebp]
  00767	8b 95 1c ff ff
	ff		 mov	 edx, DWORD PTR _this$[ebp]
  0076d	8b 82 b0 00 00
	00		 mov	 eax, DWORD PTR [edx+176]
  00773	89 81 a8 00 00
	00		 mov	 DWORD PTR [ecx+168], eax

; 159  : 			else

  00779	eb 1b		 jmp	 SHORT $L197945
$L197944:

; 160  : 			m_BtnRect.left = m_BtnRect.right - 30;

  0077b	8b 8d 1c ff ff
	ff		 mov	 ecx, DWORD PTR _this$[ebp]
  00781	8b 91 b0 00 00
	00		 mov	 edx, DWORD PTR [ecx+176]
  00787	83 ea 1e	 sub	 edx, 30			; 0000001eH
  0078a	8b 85 1c ff ff
	ff		 mov	 eax, DWORD PTR _this$[ebp]
  00790	89 90 a8 00 00
	00		 mov	 DWORD PTR [eax+168], edx
$L197945:

; 161  : 		}
; 162  : 		else

  00796	eb 12		 jmp	 SHORT $L197946
$L197943:

; 163  : 		{
; 164  : 			pLVCD->clrText   = m_colorNormalItemText;

  00798	8b 4d a8	 mov	 ecx, DWORD PTR _pLVCD$[ebp]
  0079b	8b 95 1c ff ff
	ff		 mov	 edx, DWORD PTR _this$[ebp]
  007a1	8b 82 80 00 00
	00		 mov	 eax, DWORD PTR [edx+128]
  007a7	89 41 30	 mov	 DWORD PTR [ecx+48], eax
$L197946:

; 165  : 		}
; 166  : 
; 167  : 		*pResult = CDRF_NOTIFYITEMDRAW  ;

  007aa	8b 4d 0c	 mov	 ecx, DWORD PTR _pResult$[ebp]
  007ad	c7 01 20 00 00
	00		 mov	 DWORD PTR [ecx], 32	; 00000020H

; 168  : 		break ;

  007b3	eb 09		 jmp	 SHORT $L197919
$L197947:

; 169  : 	default:
; 170  : 		*pResult = CDRF_DODEFAULT;

  007b5	8b 55 0c	 mov	 edx, DWORD PTR _pResult$[ebp]
  007b8	c7 02 00 00 00
	00		 mov	 DWORD PTR [edx], 0
$L197919:

; 171  : 	}
; 172  : }

  007be	c7 45 fc ff ff
	ff ff		 mov	 DWORD PTR __$EHRec$[ebp+8], -1
  007c5	8d 4d f0	 lea	 ecx, DWORD PTR _text$[ebp]
  007c8	ff 15 00 00 00
	00		 call	 DWORD PTR __imp_??1?$CStringT@DV?$StrTraitMFC_DLL@DV?$ChTraitsCRT@D@ATL@@@@@ATL@@QAE@XZ
  007ce	8b 4d f4	 mov	 ecx, DWORD PTR __$EHRec$[ebp]
  007d1	64 89 0d 00 00
	00 00		 mov	 DWORD PTR fs:__except_list, ecx
  007d8	5e		 pop	 esi
  007d9	8b e5		 mov	 esp, ebp
  007db	5d		 pop	 ebp
  007dc	c2 08 00	 ret	 8
_TEXT	ENDS
text$x	SEGMENT
$L198478:
  00000	8d 4d f0	 lea	 ecx, DWORD PTR _text$[ebp]
  00003	ff 25 00 00 00
	00		 jmp	 DWORD PTR __imp_??1?$CStringT@DV?$StrTraitMFC_DLL@DV?$ChTraitsCRT@D@ATL@@@@@ATL@@QAE@XZ
__ehhandler$?OnCustomdraw@CMyBtnTreeCtrl@@QAEXPAUtagNMHDR@@PAJ@Z:
  00009	b8 00 00 00 00	 mov	 eax, OFFSET FLAT:$T198482
  0000e	e9 00 00 00 00	 jmp	 ___CxxFrameHandler
text$x	ENDS
?OnCustomdraw@CMyBtnTreeCtrl@@QAEXPAUtagNMHDR@@PAJ@Z ENDP ; CMyBtnTreeCtrl::OnCustomdraw
PUBLIC	??0CRect@@QAE@HHHH@Z				; CRect::CRect
PUBLIC	?Width@CRect@@QBEHXZ				; CRect::Width
PUBLIC	?CenterPoint@CRect@@QBE?AVCPoint@@XZ		; CRect::CenterPoint
EXTRN	?GetWidth@CDibBitmap@@QAEHXZ:NEAR		; CDibBitmap::GetWidth
; Function compile flags: /Odt
_TEXT	SEGMENT
_this$ = -28						; size = 4
$T198488 = -24						; size = 16
_pt$ = -8						; size = 8
_pDibBitmap$ = 8					; size = 4
_r$ = 12						; size = 4
_memDC$ = 16						; size = 4
?DrawImage@CMyBtnTreeCtrl@@QAEXPAVCDibBitmap@@AAVCRect@@AAVCDC@@@Z PROC NEAR ; CMyBtnTreeCtrl::DrawImage
; _this$ = ecx

; 174  : {		

  007e0	55		 push	 ebp
  007e1	8b ec		 mov	 ebp, esp
  007e3	83 ec 1c	 sub	 esp, 28			; 0000001cH
  007e6	89 4d e4	 mov	 DWORD PTR _this$[ebp], ecx

; 175  : 	if(r.Width() == 0)

  007e9	8b 4d 0c	 mov	 ecx, DWORD PTR _r$[ebp]
  007ec	e8 00 00 00 00	 call	 ?Width@CRect@@QBEHXZ	; CRect::Width
  007f1	85 c0		 test	 eax, eax
  007f3	75 05		 jne	 SHORT $L197954

; 176  : 		return ;

  007f5	e9 93 00 00 00	 jmp	 $L197953
$L197954:

; 177  : 	CPoint pt = r.CenterPoint();

  007fa	8d 45 f8	 lea	 eax, DWORD PTR _pt$[ebp]
  007fd	50		 push	 eax
  007fe	8b 4d 0c	 mov	 ecx, DWORD PTR _r$[ebp]
  00801	e8 00 00 00 00	 call	 ?CenterPoint@CRect@@QBE?AVCPoint@@XZ ; CRect::CenterPoint

; 178  : 	pt.x = pt.x - pDibBitmap->GetWidth() /2;

  00806	8b 4d 08	 mov	 ecx, DWORD PTR _pDibBitmap$[ebp]
  00809	e8 00 00 00 00	 call	 ?GetWidth@CDibBitmap@@QAEHXZ ; CDibBitmap::GetWidth
  0080e	99		 cdq
  0080f	2b c2		 sub	 eax, edx
  00811	d1 f8		 sar	 eax, 1
  00813	8b 4d f8	 mov	 ecx, DWORD PTR _pt$[ebp]
  00816	2b c8		 sub	 ecx, eax
  00818	89 4d f8	 mov	 DWORD PTR _pt$[ebp], ecx

; 179  : 	pt.y = pt.y - pDibBitmap->GetHeight() /2;

  0081b	8b 4d 08	 mov	 ecx, DWORD PTR _pDibBitmap$[ebp]
  0081e	e8 00 00 00 00	 call	 ?GetHeight@CDibBitmap@@QAEHXZ ; CDibBitmap::GetHeight
  00823	99		 cdq
  00824	2b c2		 sub	 eax, edx
  00826	d1 f8		 sar	 eax, 1
  00828	8b 55 fc	 mov	 edx, DWORD PTR _pt$[ebp+4]
  0082b	2b d0		 sub	 edx, eax
  0082d	89 55 fc	 mov	 DWORD PTR _pt$[ebp+4], edx

; 180  : 	pDibBitmap->SetCDibRect(CRect(pt.x, pt.y, pt.x + pDibBitmap->GetWidth() , pt.y + pDibBitmap->GetHeight()));

  00830	8b 4d 08	 mov	 ecx, DWORD PTR _pDibBitmap$[ebp]
  00833	e8 00 00 00 00	 call	 ?GetHeight@CDibBitmap@@QAEHXZ ; CDibBitmap::GetHeight
  00838	03 45 fc	 add	 eax, DWORD PTR _pt$[ebp+4]
  0083b	50		 push	 eax
  0083c	8b 4d 08	 mov	 ecx, DWORD PTR _pDibBitmap$[ebp]
  0083f	e8 00 00 00 00	 call	 ?GetWidth@CDibBitmap@@QAEHXZ ; CDibBitmap::GetWidth
  00844	03 45 f8	 add	 eax, DWORD PTR _pt$[ebp]
  00847	50		 push	 eax
  00848	8b 45 fc	 mov	 eax, DWORD PTR _pt$[ebp+4]
  0084b	50		 push	 eax
  0084c	8b 4d f8	 mov	 ecx, DWORD PTR _pt$[ebp]
  0084f	51		 push	 ecx
  00850	8d 4d e8	 lea	 ecx, DWORD PTR $T198488[ebp]
  00853	e8 00 00 00 00	 call	 ??0CRect@@QAE@HHHH@Z	; CRect::CRect
  00858	83 ec 10	 sub	 esp, 16			; 00000010H
  0085b	8b d4		 mov	 edx, esp
  0085d	8b 08		 mov	 ecx, DWORD PTR [eax]
  0085f	89 0a		 mov	 DWORD PTR [edx], ecx
  00861	8b 48 04	 mov	 ecx, DWORD PTR [eax+4]
  00864	89 4a 04	 mov	 DWORD PTR [edx+4], ecx
  00867	8b 48 08	 mov	 ecx, DWORD PTR [eax+8]
  0086a	89 4a 08	 mov	 DWORD PTR [edx+8], ecx
  0086d	8b 40 0c	 mov	 eax, DWORD PTR [eax+12]
  00870	89 42 0c	 mov	 DWORD PTR [edx+12], eax
  00873	8b 4d 08	 mov	 ecx, DWORD PTR _pDibBitmap$[ebp]
  00876	e8 00 00 00 00	 call	 ?SetCDibRect@CDibBitmap@@QAEXVCRect@@@Z ; CDibBitmap::SetCDibRect

; 181  : 	pDibBitmap->Draw(&memDC, true);	

  0087b	6a 01		 push	 1
  0087d	6a 00		 push	 0
  0087f	6a 01		 push	 1
  00881	8b 4d 10	 mov	 ecx, DWORD PTR _memDC$[ebp]
  00884	51		 push	 ecx
  00885	8b 4d 08	 mov	 ecx, DWORD PTR _pDibBitmap$[ebp]
  00888	e8 00 00 00 00	 call	 ?Draw@CDibBitmap@@QAEHPAVCDC@@HKH@Z ; CDibBitmap::Draw
$L197953:

; 182  : }

  0088d	8b e5		 mov	 esp, ebp
  0088f	5d		 pop	 ebp
  00890	c2 0c 00	 ret	 12			; 0000000cH
?DrawImage@CMyBtnTreeCtrl@@QAEXPAVCDibBitmap@@AAVCRect@@AAVCDC@@@Z ENDP ; CMyBtnTreeCtrl::DrawImage
_TEXT	ENDS
PUBLIC	?SetButtonBitmap@CMyBtnTreeCtrl@@QAEXPAVCDibBitmap@@00@Z ; CMyBtnTreeCtrl::SetButtonBitmap
; Function compile flags: /Odt
_TEXT	SEGMENT
_this$ = -4						; size = 4
_pBitNormal$ = 8					; size = 4
_pBitOver$ = 12						; size = 4
_pBitDown$ = 16						; size = 4
?SetButtonBitmap@CMyBtnTreeCtrl@@QAEXPAVCDibBitmap@@00@Z PROC NEAR ; CMyBtnTreeCtrl::SetButtonBitmap
; _this$ = ecx

; 185  : {

  008a0	55		 push	 ebp
  008a1	8b ec		 mov	 ebp, esp
  008a3	51		 push	 ecx
  008a4	89 4d fc	 mov	 DWORD PTR _this$[ebp], ecx

; 186  : 	m_pBitmapNormal = pBitNormal;

  008a7	8b 45 fc	 mov	 eax, DWORD PTR _this$[ebp]
  008aa	8b 4d 08	 mov	 ecx, DWORD PTR _pBitNormal$[ebp]
  008ad	89 88 a0 00 00
	00		 mov	 DWORD PTR [eax+160], ecx

; 187  : 	m_pBitmapDown	= pBitDown;

  008b3	8b 55 fc	 mov	 edx, DWORD PTR _this$[ebp]
  008b6	8b 45 10	 mov	 eax, DWORD PTR _pBitDown$[ebp]
  008b9	89 82 a4 00 00
	00		 mov	 DWORD PTR [edx+164], eax

; 188  : 	m_pBitmapOver	= pBitOver;

  008bf	8b 4d fc	 mov	 ecx, DWORD PTR _this$[ebp]
  008c2	8b 55 0c	 mov	 edx, DWORD PTR _pBitOver$[ebp]
  008c5	89 91 9c 00 00
	00		 mov	 DWORD PTR [ecx+156], edx

; 189  : }

  008cb	8b e5		 mov	 esp, ebp
  008cd	5d		 pop	 ebp
  008ce	c2 0c 00	 ret	 12			; 0000000cH
?SetButtonBitmap@CMyBtnTreeCtrl@@QAEXPAVCDibBitmap@@00@Z ENDP ; CMyBtnTreeCtrl::SetButtonBitmap
_TEXT	ENDS
PUBLIC	?InvalidateRect@CWnd@@QAEXPBUtagRECT@@H@Z	; CWnd::InvalidateRect
PUBLIC	??BCRect@@QAEPAUtagRECT@@XZ			; CRect::operator tagRECT *
; Function compile flags: /Odt
_TEXT	SEGMENT
_this$ = -20						; size = 4
_rcHover$197970 = -16					; size = 16
_wp$ = 8						; size = 4
_lp$ = 12						; size = 4
?OnMouseLeave@CMyBtnTreeCtrl@@QAEJIJ@Z PROC NEAR	; CMyBtnTreeCtrl::OnMouseLeave
; _this$ = ecx

; 192  : {

  008e0	55		 push	 ebp
  008e1	8b ec		 mov	 ebp, esp
  008e3	83 ec 14	 sub	 esp, 20			; 00000014H
  008e6	89 4d ec	 mov	 DWORD PTR _this$[ebp], ecx

; 193  : 	m_bTrackMouse = FALSE;

  008e9	8b 45 ec	 mov	 eax, DWORD PTR _this$[ebp]
  008ec	c6 80 b9 00 00
	00 00		 mov	 BYTE PTR [eax+185], 0

; 194  : 
; 195  : 	if( m_iHoverItem != NULL )

  008f3	8b 4d ec	 mov	 ecx, DWORD PTR _this$[ebp]
  008f6	83 b9 98 00 00
	00 00		 cmp	 DWORD PTR [ecx+152], 0
  008fd	74 40		 je	 SHORT $L197969

; 196  : 	{
; 197  : 		CRect rcHover;

  008ff	8d 4d f0	 lea	 ecx, DWORD PTR _rcHover$197970[ebp]
  00902	e8 00 00 00 00	 call	 ??0CRect@@QAE@XZ	; CRect::CRect

; 198  : 		GetItemRect( m_iHoverItem, &rcHover, FALSE );

  00907	6a 00		 push	 0
  00909	8d 55 f0	 lea	 edx, DWORD PTR _rcHover$197970[ebp]
  0090c	52		 push	 edx
  0090d	8b 45 ec	 mov	 eax, DWORD PTR _this$[ebp]
  00910	8b 88 98 00 00
	00		 mov	 ecx, DWORD PTR [eax+152]
  00916	51		 push	 ecx
  00917	8b 4d ec	 mov	 ecx, DWORD PTR _this$[ebp]
  0091a	e8 00 00 00 00	 call	 ?GetItemRect@CTreeCtrl@@QBEHPAU_TREEITEM@@PAUtagRECT@@H@Z ; CTreeCtrl::GetItemRect

; 199  : 		InvalidateRect(rcHover);

  0091f	6a 01		 push	 1
  00921	8d 4d f0	 lea	 ecx, DWORD PTR _rcHover$197970[ebp]
  00924	e8 00 00 00 00	 call	 ??BCRect@@QAEPAUtagRECT@@XZ ; CRect::operator tagRECT *
  00929	50		 push	 eax
  0092a	8b 4d ec	 mov	 ecx, DWORD PTR _this$[ebp]
  0092d	e8 00 00 00 00	 call	 ?InvalidateRect@CWnd@@QAEXPBUtagRECT@@H@Z ; CWnd::InvalidateRect

; 200  : 		m_iHoverItem = NULL;

  00932	8b 55 ec	 mov	 edx, DWORD PTR _this$[ebp]
  00935	c7 82 98 00 00
	00 00 00 00 00	 mov	 DWORD PTR [edx+152], 0
$L197969:

; 201  : 	}
; 202  : 
; 203  : 	if( m_bMouseOverBtn )

  0093f	8b 45 ec	 mov	 eax, DWORD PTR _this$[ebp]
  00942	0f b6 88 b8 00
	00 00		 movzx	 ecx, BYTE PTR [eax+184]
  00949	85 c9		 test	 ecx, ecx
  0094b	74 23		 je	 SHORT $L197971

; 204  : 	{
; 205  : 		m_bMouseOverBtn = false;

  0094d	8b 55 ec	 mov	 edx, DWORD PTR _this$[ebp]
  00950	c6 82 b8 00 00
	00 00		 mov	 BYTE PTR [edx+184], 0

; 206  : 		InvalidateRect(m_BtnRect);

  00957	6a 01		 push	 1
  00959	8b 4d ec	 mov	 ecx, DWORD PTR _this$[ebp]
  0095c	81 c1 a8 00 00
	00		 add	 ecx, 168		; 000000a8H
  00962	e8 00 00 00 00	 call	 ??BCRect@@QAEPAUtagRECT@@XZ ; CRect::operator tagRECT *
  00967	50		 push	 eax
  00968	8b 4d ec	 mov	 ecx, DWORD PTR _this$[ebp]
  0096b	e8 00 00 00 00	 call	 ?InvalidateRect@CWnd@@QAEXPBUtagRECT@@H@Z ; CWnd::InvalidateRect
$L197971:

; 207  : 	}
; 208  : 	return 0;

  00970	33 c0		 xor	 eax, eax

; 209  : }

  00972	8b e5		 mov	 esp, ebp
  00974	5d		 pop	 ebp
  00975	c2 08 00	 ret	 8
?OnMouseLeave@CMyBtnTreeCtrl@@QAEJIJ@Z ENDP		; CMyBtnTreeCtrl::OnMouseLeave
_TEXT	ENDS
PUBLIC	?PtInRect@CRect@@QBEHUtagPOINT@@@Z		; CRect::PtInRect
EXTRN	?OnMouseMove@CMyTreeCtrl@@QAEXIVCPoint@@@Z:NEAR	; CMyTreeCtrl::OnMouseMove
EXTRN	?ItemHasChildren@CTreeCtrl@@QBEHPAU_TREEITEM@@@Z:NEAR ; CTreeCtrl::ItemHasChildren
EXTRN	?HitTest@CTreeCtrl@@QBEPAU_TREEITEM@@VCPoint@@PAI@Z:NEAR ; CTreeCtrl::HitTest
EXTRN	__imp__SetCursor@4:NEAR
EXTRN	__imp___TrackMouseEvent@4:NEAR
EXTRN	__imp__LoadCursorA@8:NEAR
; Function compile flags: /Odt
_TEXT	SEGMENT
_this$ = -104						; size = 4
$T198493 = -100						; size = 8
$T198492 = -92						; size = 8
_rectText$197996 = -84					; size = 16
_rectAll$197997 = -68					; size = 16
_rcHover$197986 = -52					; size = 16
_rcHover$197983 = -36					; size = 16
_tme$197979 = -20					; size = 16
_htree$ = -4						; size = 4
_nFlags$ = 8						; size = 4
_point$ = 12						; size = 8
?OnMouseMove@CMyBtnTreeCtrl@@QAEXIVCPoint@@@Z PROC NEAR	; CMyBtnTreeCtrl::OnMouseMove
; _this$ = ecx

; 212  : {

  00980	55		 push	 ebp
  00981	8b ec		 mov	 ebp, esp
  00983	83 ec 68	 sub	 esp, 104		; 00000068H
  00986	89 4d 98	 mov	 DWORD PTR _this$[ebp], ecx

; 213  : 	HTREEITEM htree = HitTest(point);

  00989	6a 00		 push	 0
  0098b	8b 45 10	 mov	 eax, DWORD PTR _point$[ebp+4]
  0098e	50		 push	 eax
  0098f	8b 4d 0c	 mov	 ecx, DWORD PTR _point$[ebp]
  00992	51		 push	 ecx
  00993	8b 4d 98	 mov	 ecx, DWORD PTR _this$[ebp]
  00996	e8 00 00 00 00	 call	 ?HitTest@CTreeCtrl@@QBEPAU_TREEITEM@@VCPoint@@PAI@Z ; CTreeCtrl::HitTest
  0099b	89 45 fc	 mov	 DWORD PTR _htree$[ebp], eax

; 214  : 	
; 215  : 	if (!m_bTrackMouse)

  0099e	8b 55 98	 mov	 edx, DWORD PTR _this$[ebp]
  009a1	0f b6 82 b9 00
	00 00		 movzx	 eax, BYTE PTR [edx+185]
  009a8	85 c0		 test	 eax, eax
  009aa	75 2b		 jne	 SHORT $L197978

; 216  : 	{
; 217  : 		TRACKMOUSEEVENT tme;
; 218  : 		tme.cbSize = sizeof(tme);

  009ac	c7 45 ec 10 00
	00 00		 mov	 DWORD PTR _tme$197979[ebp], 16 ; 00000010H

; 219  : 		tme.hwndTrack = m_hWnd;

  009b3	8b 4d 98	 mov	 ecx, DWORD PTR _this$[ebp]
  009b6	8b 51 20	 mov	 edx, DWORD PTR [ecx+32]
  009b9	89 55 f4	 mov	 DWORD PTR _tme$197979[ebp+8], edx

; 220  : 		tme.dwFlags = TME_LEAVE;

  009bc	c7 45 f0 02 00
	00 00		 mov	 DWORD PTR _tme$197979[ebp+4], 2

; 221  : 		_TrackMouseEvent(&tme);

  009c3	8d 45 ec	 lea	 eax, DWORD PTR _tme$197979[ebp]
  009c6	50		 push	 eax
  009c7	ff 15 00 00 00
	00		 call	 DWORD PTR __imp___TrackMouseEvent@4

; 222  : 		m_bTrackMouse = TRUE;

  009cd	8b 4d 98	 mov	 ecx, DWORD PTR _this$[ebp]
  009d0	c6 81 b9 00 00
	00 01		 mov	 BYTE PTR [ecx+185], 1
$L197978:

; 223  : 	}
; 224  : 
; 225  : 	if( htree == NULL )

  009d7	83 7d fc 00	 cmp	 DWORD PTR _htree$[ebp], 0
  009db	0f 85 96 00 00
	00		 jne	 $L197980

; 226  : 	{
; 227  : 		if( m_bMouseOverBtn )

  009e1	8b 55 98	 mov	 edx, DWORD PTR _this$[ebp]
  009e4	0f b6 82 b8 00
	00 00		 movzx	 eax, BYTE PTR [edx+184]
  009eb	85 c0		 test	 eax, eax
  009ed	74 23		 je	 SHORT $L197981

; 228  : 		{
; 229  : 			m_bMouseOverBtn = false;

  009ef	8b 4d 98	 mov	 ecx, DWORD PTR _this$[ebp]
  009f2	c6 81 b8 00 00
	00 00		 mov	 BYTE PTR [ecx+184], 0

; 230  : 			InvalidateRect(m_BtnRect);

  009f9	6a 01		 push	 1
  009fb	8b 4d 98	 mov	 ecx, DWORD PTR _this$[ebp]
  009fe	81 c1 a8 00 00
	00		 add	 ecx, 168		; 000000a8H
  00a04	e8 00 00 00 00	 call	 ??BCRect@@QAEPAUtagRECT@@XZ ; CRect::operator tagRECT *
  00a09	50		 push	 eax
  00a0a	8b 4d 98	 mov	 ecx, DWORD PTR _this$[ebp]
  00a0d	e8 00 00 00 00	 call	 ?InvalidateRect@CWnd@@QAEXPBUtagRECT@@H@Z ; CWnd::InvalidateRect
$L197981:

; 231  : 		}
; 232  : 		if(	m_iHoverItem != NULL )

  00a12	8b 55 98	 mov	 edx, DWORD PTR _this$[ebp]
  00a15	83 ba 98 00 00
	00 00		 cmp	 DWORD PTR [edx+152], 0
  00a1c	74 40		 je	 SHORT $L197982

; 233  : 		{
; 234  : 			CRect rcHover;

  00a1e	8d 4d dc	 lea	 ecx, DWORD PTR _rcHover$197983[ebp]
  00a21	e8 00 00 00 00	 call	 ??0CRect@@QAE@XZ	; CRect::CRect

; 235  : 			GetItemRect( m_iHoverItem, &rcHover, FALSE );

  00a26	6a 00		 push	 0
  00a28	8d 45 dc	 lea	 eax, DWORD PTR _rcHover$197983[ebp]
  00a2b	50		 push	 eax
  00a2c	8b 4d 98	 mov	 ecx, DWORD PTR _this$[ebp]
  00a2f	8b 91 98 00 00
	00		 mov	 edx, DWORD PTR [ecx+152]
  00a35	52		 push	 edx
  00a36	8b 4d 98	 mov	 ecx, DWORD PTR _this$[ebp]
  00a39	e8 00 00 00 00	 call	 ?GetItemRect@CTreeCtrl@@QBEHPAU_TREEITEM@@PAUtagRECT@@H@Z ; CTreeCtrl::GetItemRect

; 236  : 			InvalidateRect(rcHover);

  00a3e	6a 01		 push	 1
  00a40	8d 4d dc	 lea	 ecx, DWORD PTR _rcHover$197983[ebp]
  00a43	e8 00 00 00 00	 call	 ??BCRect@@QAEPAUtagRECT@@XZ ; CRect::operator tagRECT *
  00a48	50		 push	 eax
  00a49	8b 4d 98	 mov	 ecx, DWORD PTR _this$[ebp]
  00a4c	e8 00 00 00 00	 call	 ?InvalidateRect@CWnd@@QAEXPBUtagRECT@@H@Z ; CWnd::InvalidateRect

; 237  : 			m_iHoverItem = NULL;

  00a51	8b 45 98	 mov	 eax, DWORD PTR _this$[ebp]
  00a54	c7 80 98 00 00
	00 00 00 00 00	 mov	 DWORD PTR [eax+152], 0
$L197982:

; 238  : 		}
; 239  : 		return __super::OnMouseMove( nFlags,point );

  00a5e	8b 4d 10	 mov	 ecx, DWORD PTR _point$[ebp+4]
  00a61	51		 push	 ecx
  00a62	8b 55 0c	 mov	 edx, DWORD PTR _point$[ebp]
  00a65	52		 push	 edx
  00a66	8b 45 08	 mov	 eax, DWORD PTR _nFlags$[ebp]
  00a69	50		 push	 eax
  00a6a	8b 4d 98	 mov	 ecx, DWORD PTR _this$[ebp]
  00a6d	e8 00 00 00 00	 call	 ?OnMouseMove@CMyTreeCtrl@@QAEXIVCPoint@@@Z ; CMyTreeCtrl::OnMouseMove
  00a72	e9 f9 01 00 00	 jmp	 $L197976
$L197980:

; 240  : 	}else
; 241  : 	{
; 242  : 		if( m_iHoverItem != htree )

  00a77	8b 4d 98	 mov	 ecx, DWORD PTR _this$[ebp]
  00a7a	8b 91 98 00 00
	00		 mov	 edx, DWORD PTR [ecx+152]
  00a80	3b 55 fc	 cmp	 edx, DWORD PTR _htree$[ebp]
  00a83	74 6a		 je	 SHORT $L197984

; 243  : 		{
; 244  : 			//更新原来的item
; 245  : 			CRect rcHover;

  00a85	8d 4d cc	 lea	 ecx, DWORD PTR _rcHover$197986[ebp]
  00a88	e8 00 00 00 00	 call	 ??0CRect@@QAE@XZ	; CRect::CRect

; 246  : 			GetItemRect( m_iHoverItem, &rcHover, FALSE );

  00a8d	6a 00		 push	 0
  00a8f	8d 45 cc	 lea	 eax, DWORD PTR _rcHover$197986[ebp]
  00a92	50		 push	 eax
  00a93	8b 4d 98	 mov	 ecx, DWORD PTR _this$[ebp]
  00a96	8b 91 98 00 00
	00		 mov	 edx, DWORD PTR [ecx+152]
  00a9c	52		 push	 edx
  00a9d	8b 4d 98	 mov	 ecx, DWORD PTR _this$[ebp]
  00aa0	e8 00 00 00 00	 call	 ?GetItemRect@CTreeCtrl@@QBEHPAU_TREEITEM@@PAUtagRECT@@H@Z ; CTreeCtrl::GetItemRect

; 247  : 			InvalidateRect(rcHover);

  00aa5	6a 01		 push	 1
  00aa7	8d 4d cc	 lea	 ecx, DWORD PTR _rcHover$197986[ebp]
  00aaa	e8 00 00 00 00	 call	 ??BCRect@@QAEPAUtagRECT@@XZ ; CRect::operator tagRECT *
  00aaf	50		 push	 eax
  00ab0	8b 4d 98	 mov	 ecx, DWORD PTR _this$[ebp]
  00ab3	e8 00 00 00 00	 call	 ?InvalidateRect@CWnd@@QAEXPBUtagRECT@@H@Z ; CWnd::InvalidateRect

; 248  : 			//更新现在的item
; 249  : 			m_iHoverItem = htree;

  00ab8	8b 45 98	 mov	 eax, DWORD PTR _this$[ebp]
  00abb	8b 4d fc	 mov	 ecx, DWORD PTR _htree$[ebp]
  00abe	89 88 98 00 00
	00		 mov	 DWORD PTR [eax+152], ecx

; 250  : 			GetItemRect( m_iHoverItem, &rcHover, FALSE );

  00ac4	6a 00		 push	 0
  00ac6	8d 55 cc	 lea	 edx, DWORD PTR _rcHover$197986[ebp]
  00ac9	52		 push	 edx
  00aca	8b 45 98	 mov	 eax, DWORD PTR _this$[ebp]
  00acd	8b 88 98 00 00
	00		 mov	 ecx, DWORD PTR [eax+152]
  00ad3	51		 push	 ecx
  00ad4	8b 4d 98	 mov	 ecx, DWORD PTR _this$[ebp]
  00ad7	e8 00 00 00 00	 call	 ?GetItemRect@CTreeCtrl@@QBEHPAU_TREEITEM@@PAUtagRECT@@H@Z ; CTreeCtrl::GetItemRect

; 251  : 			InvalidateRect(rcHover);

  00adc	6a 01		 push	 1
  00ade	8d 4d cc	 lea	 ecx, DWORD PTR _rcHover$197986[ebp]
  00ae1	e8 00 00 00 00	 call	 ??BCRect@@QAEPAUtagRECT@@XZ ; CRect::operator tagRECT *
  00ae6	50		 push	 eax
  00ae7	8b 4d 98	 mov	 ecx, DWORD PTR _this$[ebp]
  00aea	e8 00 00 00 00	 call	 ?InvalidateRect@CWnd@@QAEXPBUtagRECT@@H@Z ; CWnd::InvalidateRect
$L197984:

; 252  : 		}
; 253  : 	}
; 254  : 
; 255  : 	if(m_BtnRect.PtInRect(point) && point.x < m_BtnRect.right - 2)

  00aef	8b 55 0c	 mov	 edx, DWORD PTR _point$[ebp]
  00af2	89 55 a4	 mov	 DWORD PTR $T198492[ebp], edx
  00af5	8b 45 10	 mov	 eax, DWORD PTR _point$[ebp+4]
  00af8	89 45 a8	 mov	 DWORD PTR $T198492[ebp+4], eax
  00afb	8b 4d a8	 mov	 ecx, DWORD PTR $T198492[ebp+4]
  00afe	51		 push	 ecx
  00aff	8b 55 a4	 mov	 edx, DWORD PTR $T198492[ebp]
  00b02	52		 push	 edx
  00b03	8b 4d 98	 mov	 ecx, DWORD PTR _this$[ebp]
  00b06	81 c1 a8 00 00
	00		 add	 ecx, 168		; 000000a8H
  00b0c	e8 00 00 00 00	 call	 ?PtInRect@CRect@@QBEHUtagPOINT@@@Z ; CRect::PtInRect
  00b11	85 c0		 test	 eax, eax
  00b13	74 5b		 je	 SHORT $L197988
  00b15	8b 45 98	 mov	 eax, DWORD PTR _this$[ebp]
  00b18	8b 88 b0 00 00
	00		 mov	 ecx, DWORD PTR [eax+176]
  00b1e	83 e9 02	 sub	 ecx, 2
  00b21	39 4d 0c	 cmp	 DWORD PTR _point$[ebp], ecx
  00b24	7d 4a		 jge	 SHORT $L197988

; 256  : 	{
; 257  : 		::SetCursor(::LoadCursor(NULL, MAKEINTRESOURCE(32649)));

  00b26	68 89 7f 00 00	 push	 32649			; 00007f89H
  00b2b	6a 00		 push	 0
  00b2d	ff 15 00 00 00
	00		 call	 DWORD PTR __imp__LoadCursorA@8
  00b33	50		 push	 eax
  00b34	ff 15 00 00 00
	00		 call	 DWORD PTR __imp__SetCursor@4

; 258  : 		if( !m_bMouseOverBtn )

  00b3a	8b 55 98	 mov	 edx, DWORD PTR _this$[ebp]
  00b3d	0f b6 82 b8 00
	00 00		 movzx	 eax, BYTE PTR [edx+184]
  00b44	85 c0		 test	 eax, eax
  00b46	75 23		 jne	 SHORT $L197992

; 259  : 		{
; 260  : 			m_bMouseOverBtn = true;

  00b48	8b 4d 98	 mov	 ecx, DWORD PTR _this$[ebp]
  00b4b	c6 81 b8 00 00
	00 01		 mov	 BYTE PTR [ecx+184], 1

; 261  : 			InvalidateRect(m_BtnRect);

  00b52	6a 01		 push	 1
  00b54	8b 4d 98	 mov	 ecx, DWORD PTR _this$[ebp]
  00b57	81 c1 a8 00 00
	00		 add	 ecx, 168		; 000000a8H
  00b5d	e8 00 00 00 00	 call	 ??BCRect@@QAEPAUtagRECT@@XZ ; CRect::operator tagRECT *
  00b62	50		 push	 eax
  00b63	8b 4d 98	 mov	 ecx, DWORD PTR _this$[ebp]
  00b66	e8 00 00 00 00	 call	 ?InvalidateRect@CWnd@@QAEXPBUtagRECT@@H@Z ; CWnd::InvalidateRect
$L197992:

; 262  : 		}
; 263  : 	}
; 264  : 	else 

  00b6b	e9 ec 00 00 00	 jmp	 $L197993
$L197988:

; 265  : 	{
; 266  : 		if( m_bMouseOverBtn )

  00b70	8b 55 98	 mov	 edx, DWORD PTR _this$[ebp]
  00b73	0f b6 82 b8 00
	00 00		 movzx	 eax, BYTE PTR [edx+184]
  00b7a	85 c0		 test	 eax, eax
  00b7c	74 23		 je	 SHORT $L197994

; 267  : 		{
; 268  : 			m_bMouseOverBtn = false;

  00b7e	8b 4d 98	 mov	 ecx, DWORD PTR _this$[ebp]
  00b81	c6 81 b8 00 00
	00 00		 mov	 BYTE PTR [ecx+184], 0

; 269  : 			InvalidateRect(m_BtnRect);

  00b88	6a 01		 push	 1
  00b8a	8b 4d 98	 mov	 ecx, DWORD PTR _this$[ebp]
  00b8d	81 c1 a8 00 00
	00		 add	 ecx, 168		; 000000a8H
  00b93	e8 00 00 00 00	 call	 ??BCRect@@QAEPAUtagRECT@@XZ ; CRect::operator tagRECT *
  00b98	50		 push	 eax
  00b99	8b 4d 98	 mov	 ecx, DWORD PTR _this$[ebp]
  00b9c	e8 00 00 00 00	 call	 ?InvalidateRect@CWnd@@QAEXPBUtagRECT@@H@Z ; CWnd::InvalidateRect
$L197994:

; 270  : 		}
; 271  : 
; 272  : 		if( ItemHasChildren( htree ) )

  00ba1	8b 55 fc	 mov	 edx, DWORD PTR _htree$[ebp]
  00ba4	52		 push	 edx
  00ba5	8b 4d 98	 mov	 ecx, DWORD PTR _this$[ebp]
  00ba8	e8 00 00 00 00	 call	 ?ItemHasChildren@CTreeCtrl@@QBEHPAU_TREEITEM@@@Z ; CTreeCtrl::ItemHasChildren
  00bad	85 c0		 test	 eax, eax
  00baf	0f 84 93 00 00
	00		 je	 $L197995

; 273  : 		{
; 274  : 			CRect rectText;

  00bb5	8d 4d ac	 lea	 ecx, DWORD PTR _rectText$197996[ebp]
  00bb8	e8 00 00 00 00	 call	 ??0CRect@@QAE@XZ	; CRect::CRect

; 275  : 			CRect rectAll;

  00bbd	8d 4d bc	 lea	 ecx, DWORD PTR _rectAll$197997[ebp]
  00bc0	e8 00 00 00 00	 call	 ??0CRect@@QAE@XZ	; CRect::CRect

; 276  : 			GetItemRect( htree,rectText,true);

  00bc5	6a 01		 push	 1
  00bc7	8d 4d ac	 lea	 ecx, DWORD PTR _rectText$197996[ebp]
  00bca	e8 00 00 00 00	 call	 ??BCRect@@QAEPAUtagRECT@@XZ ; CRect::operator tagRECT *
  00bcf	50		 push	 eax
  00bd0	8b 45 fc	 mov	 eax, DWORD PTR _htree$[ebp]
  00bd3	50		 push	 eax
  00bd4	8b 4d 98	 mov	 ecx, DWORD PTR _this$[ebp]
  00bd7	e8 00 00 00 00	 call	 ?GetItemRect@CTreeCtrl@@QBEHPAU_TREEITEM@@PAUtagRECT@@H@Z ; CTreeCtrl::GetItemRect

; 277  : 			GetItemRect( htree,rectAll,false);

  00bdc	6a 00		 push	 0
  00bde	8d 4d bc	 lea	 ecx, DWORD PTR _rectAll$197997[ebp]
  00be1	e8 00 00 00 00	 call	 ??BCRect@@QAEPAUtagRECT@@XZ ; CRect::operator tagRECT *
  00be6	50		 push	 eax
  00be7	8b 4d fc	 mov	 ecx, DWORD PTR _htree$[ebp]
  00bea	51		 push	 ecx
  00beb	8b 4d 98	 mov	 ecx, DWORD PTR _this$[ebp]
  00bee	e8 00 00 00 00	 call	 ?GetItemRect@CTreeCtrl@@QBEHPAU_TREEITEM@@PAUtagRECT@@H@Z ; CTreeCtrl::GetItemRect

; 278  : 			rectAll.right = rectText.left - 3;

  00bf3	8b 55 ac	 mov	 edx, DWORD PTR _rectText$197996[ebp]
  00bf6	83 ea 03	 sub	 edx, 3
  00bf9	89 55 c4	 mov	 DWORD PTR _rectAll$197997[ebp+8], edx

; 279  : 			if( rectAll.PtInRect(point) )

  00bfc	8b 45 0c	 mov	 eax, DWORD PTR _point$[ebp]
  00bff	89 45 9c	 mov	 DWORD PTR $T198493[ebp], eax
  00c02	8b 4d 10	 mov	 ecx, DWORD PTR _point$[ebp+4]
  00c05	89 4d a0	 mov	 DWORD PTR $T198493[ebp+4], ecx
  00c08	8b 55 a0	 mov	 edx, DWORD PTR $T198493[ebp+4]
  00c0b	52		 push	 edx
  00c0c	8b 45 9c	 mov	 eax, DWORD PTR $T198493[ebp]
  00c0f	50		 push	 eax
  00c10	8d 4d bc	 lea	 ecx, DWORD PTR _rectAll$197997[ebp]
  00c13	e8 00 00 00 00	 call	 ?PtInRect@CRect@@QBEHUtagPOINT@@@Z ; CRect::PtInRect
  00c18	85 c0		 test	 eax, eax
  00c1a	74 2a		 je	 SHORT $L197999

; 280  : 			{
; 281  : 				::SetCursor(::LoadCursor(NULL, MAKEINTRESOURCE(32649)));

  00c1c	68 89 7f 00 00	 push	 32649			; 00007f89H
  00c21	6a 00		 push	 0
  00c23	ff 15 00 00 00
	00		 call	 DWORD PTR __imp__LoadCursorA@8
  00c29	50		 push	 eax
  00c2a	ff 15 00 00 00
	00		 call	 DWORD PTR __imp__SetCursor@4

; 282  : 				return __super::OnMouseMove( nFlags,point );

  00c30	8b 4d 10	 mov	 ecx, DWORD PTR _point$[ebp+4]
  00c33	51		 push	 ecx
  00c34	8b 55 0c	 mov	 edx, DWORD PTR _point$[ebp]
  00c37	52		 push	 edx
  00c38	8b 45 08	 mov	 eax, DWORD PTR _nFlags$[ebp]
  00c3b	50		 push	 eax
  00c3c	8b 4d 98	 mov	 ecx, DWORD PTR _this$[ebp]
  00c3f	e8 00 00 00 00	 call	 ?OnMouseMove@CMyTreeCtrl@@QAEXIVCPoint@@@Z ; CMyTreeCtrl::OnMouseMove
  00c44	eb 2a		 jmp	 SHORT $L197976
$L197999:

; 283  : 			}
; 284  : 		}
; 285  : 		else

  00c46	eb 14		 jmp	 SHORT $L197993
$L197995:

; 286  : 		{
; 287  : 			::SetCursor(::LoadCursor(NULL, IDC_ARROW));			

  00c48	68 00 7f 00 00	 push	 32512			; 00007f00H
  00c4d	6a 00		 push	 0
  00c4f	ff 15 00 00 00
	00		 call	 DWORD PTR __imp__LoadCursorA@8
  00c55	50		 push	 eax
  00c56	ff 15 00 00 00
	00		 call	 DWORD PTR __imp__SetCursor@4
$L197993:

; 288  : 		}
; 289  : 	}	
; 290  : 	__super::OnMouseMove(nFlags, point);

  00c5c	8b 4d 10	 mov	 ecx, DWORD PTR _point$[ebp+4]
  00c5f	51		 push	 ecx
  00c60	8b 55 0c	 mov	 edx, DWORD PTR _point$[ebp]
  00c63	52		 push	 edx
  00c64	8b 45 08	 mov	 eax, DWORD PTR _nFlags$[ebp]
  00c67	50		 push	 eax
  00c68	8b 4d 98	 mov	 ecx, DWORD PTR _this$[ebp]
  00c6b	e8 00 00 00 00	 call	 ?OnMouseMove@CMyTreeCtrl@@QAEXIVCPoint@@@Z ; CMyTreeCtrl::OnMouseMove
$L197976:

; 291  : }

  00c70	8b e5		 mov	 esp, ebp
  00c72	5d		 pop	 ebp
  00c73	c2 0c 00	 ret	 12			; 0000000cH
?OnMouseMove@CMyBtnTreeCtrl@@QAEXIVCPoint@@@Z ENDP	; CMyBtnTreeCtrl::OnMouseMove
; Function compile flags: /Odt
; File d:\program files (x86)\microsoft visual studio .net 2003\vc7\atlmfc\include\atltypes.inl
_TEXT	ENDS
;	COMDAT ??0CRect@@QAE@XZ
_TEXT	SEGMENT
_this$ = -4						; size = 4
??0CRect@@QAE@XZ PROC NEAR				; CRect::CRect, COMDAT
; _this$ = ecx

; 110  : 	{ /* random filled */ }

  00000	55		 push	 ebp
  00001	8b ec		 mov	 ebp, esp
  00003	51		 push	 ecx
  00004	89 4d fc	 mov	 DWORD PTR _this$[ebp], ecx
  00007	8b 45 fc	 mov	 eax, DWORD PTR _this$[ebp]
  0000a	8b e5		 mov	 esp, ebp
  0000c	5d		 pop	 ebp
  0000d	c3		 ret	 0
??0CRect@@QAE@XZ ENDP					; CRect::CRect
; Function compile flags: /Odt
_TEXT	ENDS
;	COMDAT ??0CRect@@QAE@HHHH@Z
_TEXT	SEGMENT
_this$ = -4						; size = 4
_l$ = 8							; size = 4
_t$ = 12						; size = 4
_r$ = 16						; size = 4
_b$ = 20						; size = 4
??0CRect@@QAE@HHHH@Z PROC NEAR				; CRect::CRect, COMDAT
; _this$ = ecx

; 112  : 	{ left = l; top = t; right = r; bottom = b; }

  00000	55		 push	 ebp
  00001	8b ec		 mov	 ebp, esp
  00003	51		 push	 ecx
  00004	89 4d fc	 mov	 DWORD PTR _this$[ebp], ecx
  00007	8b 45 fc	 mov	 eax, DWORD PTR _this$[ebp]
  0000a	8b 4d 08	 mov	 ecx, DWORD PTR _l$[ebp]
  0000d	89 08		 mov	 DWORD PTR [eax], ecx
  0000f	8b 55 fc	 mov	 edx, DWORD PTR _this$[ebp]
  00012	8b 45 0c	 mov	 eax, DWORD PTR _t$[ebp]
  00015	89 42 04	 mov	 DWORD PTR [edx+4], eax
  00018	8b 4d fc	 mov	 ecx, DWORD PTR _this$[ebp]
  0001b	8b 55 10	 mov	 edx, DWORD PTR _r$[ebp]
  0001e	89 51 08	 mov	 DWORD PTR [ecx+8], edx
  00021	8b 45 fc	 mov	 eax, DWORD PTR _this$[ebp]
  00024	8b 4d 14	 mov	 ecx, DWORD PTR _b$[ebp]
  00027	89 48 0c	 mov	 DWORD PTR [eax+12], ecx
  0002a	8b 45 fc	 mov	 eax, DWORD PTR _this$[ebp]
  0002d	8b e5		 mov	 esp, ebp
  0002f	5d		 pop	 ebp
  00030	c2 10 00	 ret	 16			; 00000010H
??0CRect@@QAE@HHHH@Z ENDP				; CRect::CRect
; Function compile flags: /Odt
_TEXT	ENDS
;	COMDAT ?Width@CRect@@QBEHXZ
_TEXT	SEGMENT
_this$ = -4						; size = 4
?Width@CRect@@QBEHXZ PROC NEAR				; CRect::Width, COMDAT
; _this$ = ecx

; 123  : 	{ return right - left; }

  00000	55		 push	 ebp
  00001	8b ec		 mov	 ebp, esp
  00003	51		 push	 ecx
  00004	89 4d fc	 mov	 DWORD PTR _this$[ebp], ecx
  00007	8b 45 fc	 mov	 eax, DWORD PTR _this$[ebp]
  0000a	8b 4d fc	 mov	 ecx, DWORD PTR _this$[ebp]
  0000d	8b 40 08	 mov	 eax, DWORD PTR [eax+8]
  00010	2b 01		 sub	 eax, DWORD PTR [ecx]
  00012	8b e5		 mov	 esp, ebp
  00014	5d		 pop	 ebp
  00015	c3		 ret	 0
?Width@CRect@@QBEHXZ ENDP				; CRect::Width
_TEXT	ENDS
PUBLIC	??0CPoint@@QAE@HH@Z				; CPoint::CPoint
; Function compile flags: /Odt
;	COMDAT ?CenterPoint@CRect@@QBE?AVCPoint@@XZ
_TEXT	SEGMENT
_this$ = -4						; size = 4
___$ReturnUdt$ = 8					; size = 4
?CenterPoint@CRect@@QBE?AVCPoint@@XZ PROC NEAR		; CRect::CenterPoint, COMDAT
; _this$ = ecx

; 137  : 	{ return CPoint((left+right)/2, (top+bottom)/2); }

  00000	55		 push	 ebp
  00001	8b ec		 mov	 ebp, esp
  00003	51		 push	 ecx
  00004	89 4d fc	 mov	 DWORD PTR _this$[ebp], ecx
  00007	8b 45 fc	 mov	 eax, DWORD PTR _this$[ebp]
  0000a	8b 40 04	 mov	 eax, DWORD PTR [eax+4]
  0000d	8b 4d fc	 mov	 ecx, DWORD PTR _this$[ebp]
  00010	03 41 0c	 add	 eax, DWORD PTR [ecx+12]
  00013	99		 cdq
  00014	2b c2		 sub	 eax, edx
  00016	d1 f8		 sar	 eax, 1
  00018	50		 push	 eax
  00019	8b 55 fc	 mov	 edx, DWORD PTR _this$[ebp]
  0001c	8b 02		 mov	 eax, DWORD PTR [edx]
  0001e	8b 4d fc	 mov	 ecx, DWORD PTR _this$[ebp]
  00021	03 41 08	 add	 eax, DWORD PTR [ecx+8]
  00024	99		 cdq
  00025	2b c2		 sub	 eax, edx
  00027	d1 f8		 sar	 eax, 1
  00029	50		 push	 eax
  0002a	8b 4d 08	 mov	 ecx, DWORD PTR ___$ReturnUdt$[ebp]
  0002d	e8 00 00 00 00	 call	 ??0CPoint@@QAE@HH@Z	; CPoint::CPoint
  00032	8b 45 08	 mov	 eax, DWORD PTR ___$ReturnUdt$[ebp]
  00035	8b e5		 mov	 esp, ebp
  00037	5d		 pop	 ebp
  00038	c2 04 00	 ret	 4
?CenterPoint@CRect@@QBE?AVCPoint@@XZ ENDP		; CRect::CenterPoint
; Function compile flags: /Odt
_TEXT	ENDS
;	COMDAT ??0CPoint@@QAE@HH@Z
_TEXT	SEGMENT
_this$ = -4						; size = 4
_initX$ = 8						; size = 4
_initY$ = 12						; size = 4
??0CPoint@@QAE@HH@Z PROC NEAR				; CPoint::CPoint, COMDAT
; _this$ = ecx

; 63   : 	{ x = initX; y = initY; }

  00000	55		 push	 ebp
  00001	8b ec		 mov	 ebp, esp
  00003	51		 push	 ecx
  00004	89 4d fc	 mov	 DWORD PTR _this$[ebp], ecx
  00007	8b 45 fc	 mov	 eax, DWORD PTR _this$[ebp]
  0000a	8b 4d 08	 mov	 ecx, DWORD PTR _initX$[ebp]
  0000d	89 08		 mov	 DWORD PTR [eax], ecx
  0000f	8b 55 fc	 mov	 edx, DWORD PTR _this$[ebp]
  00012	8b 45 0c	 mov	 eax, DWORD PTR _initY$[ebp]
  00015	89 42 04	 mov	 DWORD PTR [edx+4], eax
  00018	8b 45 fc	 mov	 eax, DWORD PTR _this$[ebp]
  0001b	8b e5		 mov	 esp, ebp
  0001d	5d		 pop	 ebp
  0001e	c2 08 00	 ret	 8
??0CPoint@@QAE@HH@Z ENDP				; CPoint::CPoint
; Function compile flags: /Odt
_TEXT	ENDS
;	COMDAT ??BCRect@@QAEPAUtagRECT@@XZ
_TEXT	SEGMENT
_this$ = -4						; size = 4
??BCRect@@QAEPAUtagRECT@@XZ PROC NEAR			; CRect::operator tagRECT *, COMDAT
; _this$ = ecx

; 143  : 	{ return this; }

  00000	55		 push	 ebp
  00001	8b ec		 mov	 ebp, esp
  00003	51		 push	 ecx
  00004	89 4d fc	 mov	 DWORD PTR _this$[ebp], ecx
  00007	8b 45 fc	 mov	 eax, DWORD PTR _this$[ebp]
  0000a	8b e5		 mov	 esp, ebp
  0000c	5d		 pop	 ebp
  0000d	c3		 ret	 0
??BCRect@@QAEPAUtagRECT@@XZ ENDP			; CRect::operator tagRECT *
_TEXT	ENDS
EXTRN	__imp__PtInRect@12:NEAR
; Function compile flags: /Odt
;	COMDAT ?PtInRect@CRect@@QBEHUtagPOINT@@@Z
_TEXT	SEGMENT
_this$ = -4						; size = 4
_point$ = 8						; size = 8
?PtInRect@CRect@@QBEHUtagPOINT@@@Z PROC NEAR		; CRect::PtInRect, COMDAT
; _this$ = ecx

; 151  : 	{ return ::PtInRect(this, point); }

  00000	55		 push	 ebp
  00001	8b ec		 mov	 ebp, esp
  00003	51		 push	 ecx
  00004	89 4d fc	 mov	 DWORD PTR _this$[ebp], ecx
  00007	8b 45 0c	 mov	 eax, DWORD PTR _point$[ebp+4]
  0000a	50		 push	 eax
  0000b	8b 4d 08	 mov	 ecx, DWORD PTR _point$[ebp]
  0000e	51		 push	 ecx
  0000f	8b 55 fc	 mov	 edx, DWORD PTR _this$[ebp]
  00012	52		 push	 edx
  00013	ff 15 00 00 00
	00		 call	 DWORD PTR __imp__PtInRect@12
  00019	8b e5		 mov	 esp, ebp
  0001b	5d		 pop	 ebp
  0001c	c2 08 00	 ret	 8
?PtInRect@CRect@@QBEHUtagPOINT@@@Z ENDP			; CRect::PtInRect
_TEXT	ENDS
EXTRN	__imp__EqualRect@8:NEAR
; Function compile flags: /Odt
;	COMDAT ??8CRect@@QBEHABUtagRECT@@@Z
_TEXT	SEGMENT
_this$ = -4						; size = 4
_rect$ = 8						; size = 4
??8CRect@@QBEHABUtagRECT@@@Z PROC NEAR			; CRect::operator==, COMDAT
; _this$ = ecx

; 191  : 	{ return ::EqualRect(this, &rect); }

  00000	55		 push	 ebp
  00001	8b ec		 mov	 ebp, esp
  00003	51		 push	 ecx
  00004	89 4d fc	 mov	 DWORD PTR _this$[ebp], ecx
  00007	8b 45 08	 mov	 eax, DWORD PTR _rect$[ebp]
  0000a	50		 push	 eax
  0000b	8b 4d fc	 mov	 ecx, DWORD PTR _this$[ebp]
  0000e	51		 push	 ecx
  0000f	ff 15 00 00 00
	00		 call	 DWORD PTR __imp__EqualRect@8
  00015	8b e5		 mov	 esp, ebp
  00017	5d		 pop	 ebp
  00018	c2 04 00	 ret	 4
??8CRect@@QBEHABUtagRECT@@@Z ENDP			; CRect::operator==
; Function compile flags: /Odt
; File d:\program files (x86)\microsoft visual studio .net 2003\vc7\atlmfc\include\afx.inl
_TEXT	ENDS
;	COMDAT ?Serialize@CObject@@UAEXAAVCArchive@@@Z
_TEXT	SEGMENT
_this$ = -4						; size = 4
___formal$ = 8						; size = 4
?Serialize@CObject@@UAEXAAVCArchive@@@Z PROC NEAR	; CObject::Serialize, COMDAT
; _this$ = ecx

; 25   : 	{ /* CObject does not serialize anything by default */ }

  00000	55		 push	 ebp
  00001	8b ec		 mov	 ebp, esp
  00003	51		 push	 ecx
  00004	89 4d fc	 mov	 DWORD PTR _this$[ebp], ecx
  00007	8b e5		 mov	 esp, ebp
  00009	5d		 pop	 ebp
  0000a	c2 04 00	 ret	 4
?Serialize@CObject@@UAEXAAVCArchive@@@Z ENDP		; CObject::Serialize
_TEXT	ENDS
EXTRN	??3@YAXPAX@Z:NEAR				; operator delete
; Function compile flags: /Odt
;	COMDAT ??3CObject@@SGXPAX@Z
_TEXT	SEGMENT
_p$ = 8							; size = 4
??3CObject@@SGXPAX@Z PROC NEAR				; CObject::operator delete, COMDAT

; 31   : 	{ ::operator delete(p); }

  00000	55		 push	 ebp
  00001	8b ec		 mov	 ebp, esp
  00003	8b 45 08	 mov	 eax, DWORD PTR _p$[ebp]
  00006	50		 push	 eax
  00007	e8 00 00 00 00	 call	 ??3@YAXPAX@Z		; operator delete
  0000c	83 c4 04	 add	 esp, 4
  0000f	5d		 pop	 ebp
  00010	c2 04 00	 ret	 4
??3CObject@@SGXPAX@Z ENDP				; CObject::operator delete
; Function compile flags: /Odt
_TEXT	ENDS
;	COMDAT ?AssertValid@CObject@@UBEXXZ
_TEXT	SEGMENT
_this$ = -4						; size = 4
?AssertValid@CObject@@UBEXXZ PROC NEAR			; CObject::AssertValid, COMDAT
; _this$ = ecx

; 41   : 	{ /* no asserts in release builds */ }

  00000	55		 push	 ebp
  00001	8b ec		 mov	 ebp, esp
  00003	51		 push	 ecx
  00004	89 4d fc	 mov	 DWORD PTR _this$[ebp], ecx
  00007	8b e5		 mov	 esp, ebp
  00009	5d		 pop	 ebp
  0000a	c3		 ret	 0
?AssertValid@CObject@@UBEXXZ ENDP			; CObject::AssertValid
; Function compile flags: /Odt
_TEXT	ENDS
;	COMDAT ?Dump@CObject@@UBEXAAVCDumpContext@@@Z
_TEXT	SEGMENT
_this$ = -4						; size = 4
___formal$ = 8						; size = 4
?Dump@CObject@@UBEXAAVCDumpContext@@@Z PROC NEAR	; CObject::Dump, COMDAT
; _this$ = ecx

; 43   : 	{ /* no dumping in release builds */ }

  00000	55		 push	 ebp
  00001	8b ec		 mov	 ebp, esp
  00003	51		 push	 ecx
  00004	89 4d fc	 mov	 DWORD PTR _this$[ebp], ecx
  00007	8b e5		 mov	 esp, ebp
  00009	5d		 pop	 ebp
  0000a	c2 04 00	 ret	 4
?Dump@CObject@@UBEXAAVCDumpContext@@@Z ENDP		; CObject::Dump
_TEXT	ENDS
EXTRN	__imp__GetTextColor@4:NEAR
; Function compile flags: /Odt
; File d:\program files (x86)\microsoft visual studio .net 2003\vc7\atlmfc\include\afxwin1.inl
;	COMDAT ?GetTextColor@CDC@@QBEKXZ
_TEXT	SEGMENT
_this$ = -4						; size = 4
?GetTextColor@CDC@@QBEKXZ PROC NEAR			; CDC::GetTextColor, COMDAT
; _this$ = ecx

; 384  : 	{ ASSERT(m_hAttribDC != NULL); return ::GetTextColor(m_hAttribDC); }

  00000	55		 push	 ebp
  00001	8b ec		 mov	 ebp, esp
  00003	51		 push	 ecx
  00004	89 4d fc	 mov	 DWORD PTR _this$[ebp], ecx
  00007	8b 45 fc	 mov	 eax, DWORD PTR _this$[ebp]
  0000a	8b 48 08	 mov	 ecx, DWORD PTR [eax+8]
  0000d	51		 push	 ecx
  0000e	ff 15 00 00 00
	00		 call	 DWORD PTR __imp__GetTextColor@4
  00014	8b e5		 mov	 esp, ebp
  00016	5d		 pop	 ebp
  00017	c3		 ret	 0
?GetTextColor@CDC@@QBEKXZ ENDP				; CDC::GetTextColor
_TEXT	ENDS
EXTRN	__imp_??B?$CSimpleStringT@D$00@ATL@@QBEPBDXZ:NEAR
EXTRN	__imp_?GetLength@?$CSimpleStringT@D$00@ATL@@QBEHXZ:NEAR
; Function compile flags: /Odt
;	COMDAT ?DrawTextA@CDC@@QAEHABV?$CStringT@DV?$StrTraitMFC_DLL@DV?$ChTraitsCRT@D@ATL@@@@@ATL@@PAUtagRECT@@I@Z
_TEXT	SEGMENT
_this$ = -4						; size = 4
_str$ = 8						; size = 4
_lpRect$ = 12						; size = 4
_nFormat$ = 16						; size = 4
?DrawTextA@CDC@@QAEHABV?$CStringT@DV?$StrTraitMFC_DLL@DV?$ChTraitsCRT@D@ATL@@@@@ATL@@PAUtagRECT@@I@Z PROC NEAR ; CDC::DrawTextA, COMDAT
; _this$ = ecx

; 592  : 	{ ASSERT(m_hDC != NULL);

  00000	55		 push	 ebp
  00001	8b ec		 mov	 ebp, esp
  00003	51		 push	 ecx
  00004	89 4d fc	 mov	 DWORD PTR _this$[ebp], ecx

; 593  : 		// these flags would modify the string
; 594  : 		ASSERT((nFormat & (DT_END_ELLIPSIS | DT_MODIFYSTRING)) != (DT_END_ELLIPSIS | DT_MODIFYSTRING));
; 595  : 		ASSERT((nFormat & (DT_PATH_ELLIPSIS | DT_MODIFYSTRING)) != (DT_PATH_ELLIPSIS | DT_MODIFYSTRING));
; 596  : 		return DrawText((LPCTSTR)str, (int)str.GetLength(), lpRect, nFormat); }

  00007	8b 45 10	 mov	 eax, DWORD PTR _nFormat$[ebp]
  0000a	50		 push	 eax
  0000b	8b 4d 0c	 mov	 ecx, DWORD PTR _lpRect$[ebp]
  0000e	51		 push	 ecx
  0000f	8b 4d 08	 mov	 ecx, DWORD PTR _str$[ebp]
  00012	ff 15 00 00 00
	00		 call	 DWORD PTR __imp_?GetLength@?$CSimpleStringT@D$00@ATL@@QBEHXZ
  00018	50		 push	 eax
  00019	8b 4d 08	 mov	 ecx, DWORD PTR _str$[ebp]
  0001c	ff 15 00 00 00
	00		 call	 DWORD PTR __imp_??B?$CSimpleStringT@D$00@ATL@@QBEPBDXZ
  00022	50		 push	 eax
  00023	8b 55 fc	 mov	 edx, DWORD PTR _this$[ebp]
  00026	8b 02		 mov	 eax, DWORD PTR [edx]
  00028	8b 4d fc	 mov	 ecx, DWORD PTR _this$[ebp]
  0002b	ff 50 70	 call	 DWORD PTR [eax+112]
  0002e	8b e5		 mov	 esp, ebp
  00030	5d		 pop	 ebp
  00031	c2 0c 00	 ret	 12			; 0000000cH
?DrawTextA@CDC@@QAEHABV?$CStringT@DV?$StrTraitMFC_DLL@DV?$ChTraitsCRT@D@ATL@@@@@ATL@@PAUtagRECT@@I@Z ENDP ; CDC::DrawTextA
_TEXT	ENDS
PUBLIC	?FromHandle@CFont@@SGPAV1@PAUHFONT__@@@Z	; CFont::FromHandle
EXTRN	__imp__SendMessageA@16:NEAR
; Function compile flags: /Odt
; File d:\program files (x86)\microsoft visual studio .net 2003\vc7\atlmfc\include\afxwin2.inl
;	COMDAT ?GetFont@CWnd@@QBEPAVCFont@@XZ
_TEXT	SEGMENT
_this$ = -4						; size = 4
?GetFont@CWnd@@QBEPAVCFont@@XZ PROC NEAR		; CWnd::GetFont, COMDAT
; _this$ = ecx

; 60   : 	{ ASSERT(::IsWindow(m_hWnd)); return CFont::FromHandle(

  00000	55		 push	 ebp
  00001	8b ec		 mov	 ebp, esp
  00003	51		 push	 ecx
  00004	89 4d fc	 mov	 DWORD PTR _this$[ebp], ecx

; 61   : 		(HFONT)::SendMessage(m_hWnd, WM_GETFONT, 0, 0)); }

  00007	6a 00		 push	 0
  00009	6a 00		 push	 0
  0000b	6a 31		 push	 49			; 00000031H
  0000d	8b 45 fc	 mov	 eax, DWORD PTR _this$[ebp]
  00010	8b 48 20	 mov	 ecx, DWORD PTR [eax+32]
  00013	51		 push	 ecx
  00014	ff 15 00 00 00
	00		 call	 DWORD PTR __imp__SendMessageA@16
  0001a	50		 push	 eax
  0001b	e8 00 00 00 00	 call	 ?FromHandle@CFont@@SGPAV1@PAUHFONT__@@@Z ; CFont::FromHandle
  00020	8b e5		 mov	 esp, ebp
  00022	5d		 pop	 ebp
  00023	c3		 ret	 0
?GetFont@CWnd@@QBEPAVCFont@@XZ ENDP			; CWnd::GetFont
_TEXT	ENDS
EXTRN	?FromHandle@CGdiObject@@SGPAV1@PAX@Z:NEAR	; CGdiObject::FromHandle
; Function compile flags: /Odt
; File d:\program files (x86)\microsoft visual studio .net 2003\vc7\atlmfc\include\afxwin1.inl
;	COMDAT ?FromHandle@CFont@@SGPAV1@PAUHFONT__@@@Z
_TEXT	SEGMENT
_hFont$ = 8						; size = 4
?FromHandle@CFont@@SGPAV1@PAUHFONT__@@@Z PROC NEAR	; CFont::FromHandle, COMDAT

; 151  : 	{ return (CFont*) CGdiObject::FromHandle(hFont); }

  00000	55		 push	 ebp
  00001	8b ec		 mov	 ebp, esp
  00003	8b 45 08	 mov	 eax, DWORD PTR _hFont$[ebp]
  00006	50		 push	 eax
  00007	e8 00 00 00 00	 call	 ?FromHandle@CGdiObject@@SGPAV1@PAX@Z ; CGdiObject::FromHandle
  0000c	5d		 pop	 ebp
  0000d	c2 04 00	 ret	 4
?FromHandle@CFont@@SGPAV1@PAUHFONT__@@@Z ENDP		; CFont::FromHandle
_TEXT	ENDS
EXTRN	__imp__InvalidateRect@12:NEAR
; Function compile flags: /Odt
; File d:\program files (x86)\microsoft visual studio .net 2003\vc7\atlmfc\include\afxwin2.inl
;	COMDAT ?InvalidateRect@CWnd@@QAEXPBUtagRECT@@H@Z
_TEXT	SEGMENT
_this$ = -4						; size = 4
_lpRect$ = 8						; size = 4
_bErase$ = 12						; size = 4
?InvalidateRect@CWnd@@QAEXPBUtagRECT@@H@Z PROC NEAR	; CWnd::InvalidateRect, COMDAT
; _this$ = ecx

; 137  : 	{ ASSERT(::IsWindow(m_hWnd)); ::InvalidateRect(m_hWnd, lpRect, bErase); }

  00000	55		 push	 ebp
  00001	8b ec		 mov	 ebp, esp
  00003	51		 push	 ecx
  00004	89 4d fc	 mov	 DWORD PTR _this$[ebp], ecx
  00007	8b 45 0c	 mov	 eax, DWORD PTR _bErase$[ebp]
  0000a	50		 push	 eax
  0000b	8b 4d 08	 mov	 ecx, DWORD PTR _lpRect$[ebp]
  0000e	51		 push	 ecx
  0000f	8b 55 fc	 mov	 edx, DWORD PTR _this$[ebp]
  00012	8b 42 20	 mov	 eax, DWORD PTR [edx+32]
  00015	50		 push	 eax
  00016	ff 15 00 00 00
	00		 call	 DWORD PTR __imp__InvalidateRect@12
  0001c	8b e5		 mov	 esp, ebp
  0001e	5d		 pop	 ebp
  0001f	c2 08 00	 ret	 8
?InvalidateRect@CWnd@@QAEXPBUtagRECT@@H@Z ENDP		; CWnd::InvalidateRect
_TEXT	ENDS
EXTRN	?Default@CWnd@@IAEJXZ:NEAR			; CWnd::Default
; Function compile flags: /Odt
;	COMDAT ?OnLButtonUp@CWnd@@IAEXIVCPoint@@@Z
_TEXT	SEGMENT
_this$ = -4						; size = 4
___formal$ = 8						; size = 4
___formal$ = 12						; size = 8
?OnLButtonUp@CWnd@@IAEXIVCPoint@@@Z PROC NEAR		; CWnd::OnLButtonUp, COMDAT
; _this$ = ecx

; 466  : 	{ Default(); }

  00000	55		 push	 ebp
  00001	8b ec		 mov	 ebp, esp
  00003	51		 push	 ecx
  00004	89 4d fc	 mov	 DWORD PTR _this$[ebp], ecx
  00007	8b 4d fc	 mov	 ecx, DWORD PTR _this$[ebp]
  0000a	e8 00 00 00 00	 call	 ?Default@CWnd@@IAEJXZ	; CWnd::Default
  0000f	8b e5		 mov	 esp, ebp
  00011	5d		 pop	 ebp
  00012	c2 0c 00	 ret	 12			; 0000000cH
?OnLButtonUp@CWnd@@IAEXIVCPoint@@@Z ENDP		; CWnd::OnLButtonUp
; Function compile flags: /Odt
_TEXT	ENDS
;	COMDAT ?DoDataExchange@CWnd@@MAEXPAVCDataExchange@@@Z
_TEXT	SEGMENT
_this$ = -4						; size = 4
___formal$ = 8						; size = 4
?DoDataExchange@CWnd@@MAEXPAVCDataExchange@@@Z PROC NEAR ; CWnd::DoDataExchange, COMDAT
; _this$ = ecx

; 545  : 	{ } // default does nothing

  00000	55		 push	 ebp
  00001	8b ec		 mov	 ebp, esp
  00003	51		 push	 ecx
  00004	89 4d fc	 mov	 DWORD PTR _this$[ebp], ecx
  00007	8b e5		 mov	 esp, ebp
  00009	5d		 pop	 ebp
  0000a	c2 04 00	 ret	 4
?DoDataExchange@CWnd@@MAEXPAVCDataExchange@@@Z ENDP	; CWnd::DoDataExchange
_TEXT	ENDS
EXTRN	__imp__EnableWindow@8:NEAR
; Function compile flags: /Odt
;	COMDAT ?BeginModalState@CWnd@@UAEXXZ
_TEXT	SEGMENT
_this$ = -4						; size = 4
?BeginModalState@CWnd@@UAEXXZ PROC NEAR			; CWnd::BeginModalState, COMDAT
; _this$ = ecx

; 549  : 	{ ::EnableWindow(m_hWnd, FALSE); }

  00000	55		 push	 ebp
  00001	8b ec		 mov	 ebp, esp
  00003	51		 push	 ecx
  00004	89 4d fc	 mov	 DWORD PTR _this$[ebp], ecx
  00007	6a 00		 push	 0
  00009	8b 45 fc	 mov	 eax, DWORD PTR _this$[ebp]
  0000c	8b 48 20	 mov	 ecx, DWORD PTR [eax+32]
  0000f	51		 push	 ecx
  00010	ff 15 00 00 00
	00		 call	 DWORD PTR __imp__EnableWindow@8
  00016	8b e5		 mov	 esp, ebp
  00018	5d		 pop	 ebp
  00019	c3		 ret	 0
?BeginModalState@CWnd@@UAEXXZ ENDP			; CWnd::BeginModalState
; Function compile flags: /Odt
_TEXT	ENDS
;	COMDAT ?EndModalState@CWnd@@UAEXXZ
_TEXT	SEGMENT
_this$ = -4						; size = 4
?EndModalState@CWnd@@UAEXXZ PROC NEAR			; CWnd::EndModalState, COMDAT
; _this$ = ecx

; 551  : 	{ ::EnableWindow(m_hWnd, TRUE); }

  00000	55		 push	 ebp
  00001	8b ec		 mov	 ebp, esp
  00003	51		 push	 ecx
  00004	89 4d fc	 mov	 DWORD PTR _this$[ebp], ecx
  00007	6a 01		 push	 1
  00009	8b 45 fc	 mov	 eax, DWORD PTR _this$[ebp]
  0000c	8b 48 20	 mov	 ecx, DWORD PTR [eax+32]
  0000f	51		 push	 ecx
  00010	ff 15 00 00 00
	00		 call	 DWORD PTR __imp__EnableWindow@8
  00016	8b e5		 mov	 esp, ebp
  00018	5d		 pop	 ebp
  00019	c3		 ret	 0
?EndModalState@CWnd@@UAEXXZ ENDP			; CWnd::EndModalState
; Function compile flags: /Odt
; File d:\program files (x86)\microsoft visual studio .net 2003\vc7\atlmfc\include\afxcmn.inl
_TEXT	ENDS
;	COMDAT ?GetSelectedItem@CTreeCtrl@@QBEPAU_TREEITEM@@XZ
_TEXT	SEGMENT
_this$ = -4						; size = 4
?GetSelectedItem@CTreeCtrl@@QBEPAU_TREEITEM@@XZ PROC NEAR ; CTreeCtrl::GetSelectedItem, COMDAT
; _this$ = ecx

; 280  : 	{ ASSERT(::IsWindow(m_hWnd)); return (HTREEITEM)::SendMessage(m_hWnd, TVM_GETNEXTITEM, TVGN_CARET, 0); }

  00000	55		 push	 ebp
  00001	8b ec		 mov	 ebp, esp
  00003	51		 push	 ecx
  00004	89 4d fc	 mov	 DWORD PTR _this$[ebp], ecx
  00007	6a 00		 push	 0
  00009	6a 09		 push	 9
  0000b	68 0a 11 00 00	 push	 4362			; 0000110aH
  00010	8b 45 fc	 mov	 eax, DWORD PTR _this$[ebp]
  00013	8b 48 20	 mov	 ecx, DWORD PTR [eax+32]
  00016	51		 push	 ecx
  00017	ff 15 00 00 00
	00		 call	 DWORD PTR __imp__SendMessageA@16
  0001d	8b e5		 mov	 esp, ebp
  0001f	5d		 pop	 ebp
  00020	c3		 ret	 0
?GetSelectedItem@CTreeCtrl@@QBEPAU_TREEITEM@@XZ ENDP	; CTreeCtrl::GetSelectedItem
; Function compile flags: /Odt
_TEXT	ENDS
;	COMDAT ?GetItemHeight@CTreeCtrl@@QBEFXZ
_TEXT	SEGMENT
_this$ = -4						; size = 4
?GetItemHeight@CTreeCtrl@@QBEFXZ PROC NEAR		; CTreeCtrl::GetItemHeight, COMDAT
; _this$ = ecx

; 330  : 	{ ASSERT(::IsWindow(m_hWnd)); return (SHORT) ::SendMessage(m_hWnd, TVM_GETITEMHEIGHT, 0, 0L); }

  00000	55		 push	 ebp
  00001	8b ec		 mov	 ebp, esp
  00003	51		 push	 ecx
  00004	89 4d fc	 mov	 DWORD PTR _this$[ebp], ecx
  00007	6a 00		 push	 0
  00009	6a 00		 push	 0
  0000b	68 1c 11 00 00	 push	 4380			; 0000111cH
  00010	8b 45 fc	 mov	 eax, DWORD PTR _this$[ebp]
  00013	8b 48 20	 mov	 ecx, DWORD PTR [eax+32]
  00016	51		 push	 ecx
  00017	ff 15 00 00 00
	00		 call	 DWORD PTR __imp__SendMessageA@16
  0001d	8b e5		 mov	 esp, ebp
  0001f	5d		 pop	 ebp
  00020	c3		 ret	 0
?GetItemHeight@CTreeCtrl@@QBEFXZ ENDP			; CTreeCtrl::GetItemHeight
_TEXT	ENDS
EXTRN	__imp__ImageList_GetImageInfo@12:NEAR
; Function compile flags: /Odt
;	COMDAT ?GetImageInfo@CImageList@@QBEHHPAU_IMAGEINFO@@@Z
_TEXT	SEGMENT
_this$ = -4						; size = 4
_nImage$ = 8						; size = 4
_pImageInfo$ = 12					; size = 4
?GetImageInfo@CImageList@@QBEHHPAU_IMAGEINFO@@@Z PROC NEAR ; CImageList::GetImageInfo, COMDAT
; _this$ = ecx

; 523  : 	{ ASSERT(m_hImageList != NULL); return ImageList_GetImageInfo(m_hImageList, nImage, pImageInfo); }

  00000	55		 push	 ebp
  00001	8b ec		 mov	 ebp, esp
  00003	51		 push	 ecx
  00004	89 4d fc	 mov	 DWORD PTR _this$[ebp], ecx
  00007	8b 45 0c	 mov	 eax, DWORD PTR _pImageInfo$[ebp]
  0000a	50		 push	 eax
  0000b	8b 4d 08	 mov	 ecx, DWORD PTR _nImage$[ebp]
  0000e	51		 push	 ecx
  0000f	8b 55 fc	 mov	 edx, DWORD PTR _this$[ebp]
  00012	8b 42 04	 mov	 eax, DWORD PTR [edx+4]
  00015	50		 push	 eax
  00016	ff 15 00 00 00
	00		 call	 DWORD PTR __imp__ImageList_GetImageInfo@12
  0001c	8b e5		 mov	 esp, ebp
  0001e	5d		 pop	 ebp
  0001f	c2 08 00	 ret	 8
?GetImageInfo@CImageList@@QBEHHPAU_IMAGEINFO@@@Z ENDP	; CImageList::GetImageInfo
_TEXT	ENDS
END
