; Listing generated by Microsoft (R) Optimizing Compiler Version 13.10.3077 

	TITLE	.\src\Gui\CommonControl\MyHeaderCtrl.cpp
	.386P
include listing.inc
if @Version gt 510
.model FLAT
else
_TEXT	SEGMENT PARA USE32 PUBLIC 'CODE'
_TEXT	ENDS
_DATA	SEGMENT DWORD USE32 PUBLIC 'DATA'
_DATA	ENDS
CONST	SEGMENT DWORD USE32 PUBLIC 'CONST'
CONST	ENDS
_BSS	SEGMENT DWORD USE32 PUBLIC 'BSS'
_BSS	ENDS
$$SYMBOLS	SEGMENT BYTE USE32 'DEBSYM'
$$SYMBOLS	ENDS
$$TYPES	SEGMENT BYTE USE32 'DEBTYP'
$$TYPES	ENDS
_TLS	SEGMENT DWORD USE32 PUBLIC 'TLS'
_TLS	ENDS
rdata$r	SEGMENT DWORD USE32 PUBLIC 'CONST'
rdata$r	ENDS
xdata$x	SEGMENT DWORD USE32 PUBLIC 'CONST'
xdata$x	ENDS
text$AFX_COL1	SEGMENT PARA USE32 PUBLIC ''
text$AFX_COL1	ENDS
text$yc	SEGMENT PARA USE32 PUBLIC 'CODE'
text$yc	ENDS
CRT$XCA	SEGMENT DWORD USE32 PUBLIC 'DATA'
CRT$XCA	ENDS
CRT$XCU	SEGMENT DWORD USE32 PUBLIC 'DATA'
CRT$XCU	ENDS
CRT$XCL	SEGMENT DWORD USE32 PUBLIC 'DATA'
CRT$XCL	ENDS
CRT$XCC	SEGMENT DWORD USE32 PUBLIC 'DATA'
CRT$XCC	ENDS
CRT$XCZ	SEGMENT DWORD USE32 PUBLIC 'DATA'
CRT$XCZ	ENDS
text$yd	SEGMENT PARA USE32 PUBLIC 'CODE'
text$yd	ENDS
ATL$__m	SEGMENT DWORD USE32 PUBLIC ''
ATL$__m	ENDS
ATL$__z	SEGMENT DWORD USE32 PUBLIC ''
ATL$__z	ENDS
ATL$__a	SEGMENT DWORD USE32 PUBLIC ''
ATL$__a	ENDS
;	COMDAT ??0MYLIST_COLUMN_IMAGE@@QAE@XZ
_TEXT	SEGMENT PARA USE32 PUBLIC 'CODE'
_TEXT	ENDS
;	COMDAT ??_GCMyHeaderCtrl@@UAEPAXI@Z
_TEXT	SEGMENT PARA USE32 PUBLIC 'CODE'
_TEXT	ENDS
;	COMDAT ??B?$CComPtrBase@UITypeInfo2@@@ATL@@QBEPAUITypeInfo2@@XZ
_TEXT	SEGMENT PARA USE32 PUBLIC 'CODE'
_TEXT	ENDS
;	COMDAT ?equal@?$istreambuf_iterator@DU?$char_traits@D@std@@@std@@QBE_NABV12@@Z
_TEXT	SEGMENT PARA USE32 PUBLIC 'CODE'
_TEXT	ENDS
;	COMDAT ?equal@?$istreambuf_iterator@_WU?$char_traits@_W@std@@@std@@QBE_NABV12@@Z
_TEXT	SEGMENT PARA USE32 PUBLIC 'CODE'
_TEXT	ENDS
;	COMDAT ?Unlock@?$CComCritSecLock@VCComCriticalSection@ATL@@@ATL@@QAEXXZ
_TEXT	SEGMENT PARA USE32 PUBLIC 'CODE'
_TEXT	ENDS
;	COMDAT ??$_Maklocstr@D@std@@YAPADPBDPADABU_Cvtvec@@@Z
_TEXT	SEGMENT PARA USE32 PUBLIC 'CODE'
_TEXT	ENDS
;	COMDAT ??_R3CMyHeaderCtrl@@8
rdata$r	SEGMENT DWORD USE32 PUBLIC 'CONST'
rdata$r	ENDS
;	COMDAT ??_R3?$numpunct@_W@std@@8
rdata$r	SEGMENT DWORD USE32 PUBLIC 'CONST'
rdata$r	ENDS
;	COMDAT ??_R3?$numpunct@D@std@@8
rdata$r	SEGMENT DWORD USE32 PUBLIC 'CONST'
rdata$r	ENDS
;	COMDAT ??_R2CMyHeaderCtrl@@8
rdata$r	SEGMENT DWORD USE32 PUBLIC 'CONST'
rdata$r	ENDS
;	COMDAT ??_R2?$numpunct@_W@std@@8
rdata$r	SEGMENT DWORD USE32 PUBLIC 'CONST'
rdata$r	ENDS
;	COMDAT ??_R2?$numpunct@D@std@@8
rdata$r	SEGMENT DWORD USE32 PUBLIC 'CONST'
rdata$r	ENDS
;	COMDAT ??_R1A@?0A@A@CObject@@8
rdata$r	SEGMENT DWORD USE32 PUBLIC 'CONST'
rdata$r	ENDS
;	COMDAT ??_R0?AVCObject@@@8
_DATA	SEGMENT DWORD USE32 PUBLIC 'DATA'
_DATA	ENDS
;	COMDAT ??_R1A@?0A@A@CCmdTarget@@8
rdata$r	SEGMENT DWORD USE32 PUBLIC 'CONST'
rdata$r	ENDS
;	COMDAT ??_R0?AVCCmdTarget@@@8
_DATA	SEGMENT DWORD USE32 PUBLIC 'DATA'
_DATA	ENDS
;	COMDAT ??_R1A@?0A@A@CWnd@@8
rdata$r	SEGMENT DWORD USE32 PUBLIC 'CONST'
rdata$r	ENDS
;	COMDAT ??_R0?AVCWnd@@@8
_DATA	SEGMENT DWORD USE32 PUBLIC 'DATA'
_DATA	ENDS
;	COMDAT ??_R1A@?0A@A@CHeaderCtrl@@8
rdata$r	SEGMENT DWORD USE32 PUBLIC 'CONST'
rdata$r	ENDS
;	COMDAT ??_R0?AVCHeaderCtrl@@@8
_DATA	SEGMENT DWORD USE32 PUBLIC 'DATA'
_DATA	ENDS
;	COMDAT ??_R1A@?0A@A@CMyHeaderCtrl@@8
rdata$r	SEGMENT DWORD USE32 PUBLIC 'CONST'
rdata$r	ENDS
;	COMDAT ??_R1A@?0A@A@?$numpunct@_W@std@@8
rdata$r	SEGMENT DWORD USE32 PUBLIC 'CONST'
rdata$r	ENDS
;	COMDAT ??_R1A@?0A@A@facet@locale@std@@8
rdata$r	SEGMENT DWORD USE32 PUBLIC 'CONST'
rdata$r	ENDS
;	COMDAT ??_R0?AVfacet@locale@std@@@8
_DATA	SEGMENT DWORD USE32 PUBLIC 'DATA'
_DATA	ENDS
;	COMDAT ??_R1A@?0A@A@?$numpunct@D@std@@8
rdata$r	SEGMENT DWORD USE32 PUBLIC 'CONST'
rdata$r	ENDS
;	COMDAT ??_R0?AVCMyHeaderCtrl@@@8
_DATA	SEGMENT DWORD USE32 PUBLIC 'DATA'
_DATA	ENDS
;	COMDAT ??_R0?AV?$numpunct@_W@std@@@8
_DATA	SEGMENT DWORD USE32 PUBLIC 'DATA'
_DATA	ENDS
;	COMDAT ??_R0?AV?$numpunct@D@std@@@8
_DATA	SEGMENT DWORD USE32 PUBLIC 'DATA'
_DATA	ENDS
;	COMDAT ?EndModalState@CWnd@@UAEXXZ
_TEXT	SEGMENT PARA USE32 PUBLIC 'CODE'
_TEXT	ENDS
;	COMDAT ?BeginModalState@CWnd@@UAEXXZ
_TEXT	SEGMENT PARA USE32 PUBLIC 'CODE'
_TEXT	ENDS
;	COMDAT ?DoDataExchange@CWnd@@MAEXPAVCDataExchange@@@Z
_TEXT	SEGMENT PARA USE32 PUBLIC 'CODE'
_TEXT	ENDS
;	COMDAT ?Dump@CObject@@UBEXAAVCDumpContext@@@Z
_TEXT	SEGMENT PARA USE32 PUBLIC 'CODE'
_TEXT	ENDS
;	COMDAT ?AssertValid@CObject@@UBEXXZ
_TEXT	SEGMENT PARA USE32 PUBLIC 'CODE'
_TEXT	ENDS
;	COMDAT ?Serialize@CObject@@UAEXAAVCArchive@@@Z
_TEXT	SEGMENT PARA USE32 PUBLIC 'CODE'
_TEXT	ENDS
;	COMDAT ??_R4CMyHeaderCtrl@@6B@
rdata$r	SEGMENT DWORD USE32 PUBLIC 'CONST'
rdata$r	ENDS
;	COMDAT ??0?$allocator@_W@std@@QAE@XZ
_TEXT	SEGMENT PARA USE32 PUBLIC 'CODE'
_TEXT	ENDS
;	COMDAT ??_G?$numpunct@_W@std@@MAEPAXI@Z
_TEXT	SEGMENT PARA USE32 PUBLIC 'CODE'
_TEXT	ENDS
;	COMDAT ??_R4?$numpunct@_W@std@@6B@
rdata$r	SEGMENT DWORD USE32 PUBLIC 'CONST'
rdata$r	ENDS
;	COMDAT ??_G?$numpunct@D@std@@MAEPAXI@Z
_TEXT	SEGMENT PARA USE32 PUBLIC 'CODE'
_TEXT	ENDS
;	COMDAT ??_R4?$numpunct@D@std@@6B@
rdata$r	SEGMENT DWORD USE32 PUBLIC 'CONST'
rdata$r	ENDS
;	COMDAT ?_Psave@?$_Facetptr@V?$numpunct@_W@std@@@std@@2PBVfacet@locale@2@B
_DATA	SEGMENT DWORD USE32 PUBLIC 'DATA'
_DATA	ENDS
;	COMDAT ?_Psave@?$_Facetptr@V?$numpunct@D@std@@@std@@2PBVfacet@locale@2@B
_DATA	SEGMENT DWORD USE32 PUBLIC 'DATA'
_DATA	ENDS
;	COMDAT ?Unlock@CComCriticalSection@ATL@@QAEJXZ
_TEXT	SEGMENT PARA USE32 PUBLIC 'CODE'
_TEXT	ENDS
;	COMDAT ?_Psave@?$_Facetptr@V?$ctype@_W@std@@@std@@2PBVfacet@locale@2@B
_DATA	SEGMENT DWORD USE32 PUBLIC 'DATA'
_DATA	ENDS
;	COMDAT ?_Psave@?$_Facetptr@V?$ctype@D@std@@@std@@2PBVfacet@locale@2@B
_DATA	SEGMENT DWORD USE32 PUBLIC 'DATA'
_DATA	ENDS
;	COMDAT ??$_Maklocchr@_W@std@@YA_WDPA_WABU_Cvtvec@@@Z
_TEXT	SEGMENT PARA USE32 PUBLIC 'CODE'
_TEXT	ENDS
;	COMDAT ??$_Maklocstr@_W@std@@YAPA_WPBDPA_WABU_Cvtvec@@@Z
_TEXT	SEGMENT PARA USE32 PUBLIC 'CODE'
_TEXT	ENDS
;	COMDAT ??$_Maklocchr@D@std@@YADDPADABU_Cvtvec@@@Z
_TEXT	SEGMENT PARA USE32 PUBLIC 'CODE'
_TEXT	ENDS
;	COMDAT ??_C@_04LOAJBDKD@true?$AA@
CONST	SEGMENT DWORD USE32 PUBLIC 'CONST'
CONST	ENDS
;	COMDAT ??_C@_05LAPONLG@false?$AA@
CONST	SEGMENT DWORD USE32 PUBLIC 'CONST'
CONST	ENDS
;	COMDAT _wmemcpy
_TEXT	SEGMENT PARA USE32 PUBLIC 'CODE'
_TEXT	ENDS
;	COMDAT ?max_size@?$allocator@_W@std@@QBEIXZ
_TEXT	SEGMENT PARA USE32 PUBLIC 'CODE'
_TEXT	ENDS
;	COMDAT ?allocate@?$allocator@_W@std@@QAEPA_WI@Z
_TEXT	SEGMENT PARA USE32 PUBLIC 'CODE'
_TEXT	ENDS
;	COMDAT ??$_Allocate@_W@std@@YAPA_WIPA_W@Z
_TEXT	SEGMENT PARA USE32 PUBLIC 'CODE'
_TEXT	ENDS
;	COMDAT ??_C@_01GFHCPBMG@C?$AA@
CONST	SEGMENT DWORD USE32 PUBLIC 'CONST'
CONST	ENDS
;	COMDAT ?max_size@?$allocator@D@std@@QBEIXZ
_TEXT	SEGMENT PARA USE32 PUBLIC 'CODE'
_TEXT	ENDS
;	COMDAT ?allocate@?$allocator@D@std@@QAEPADI@Z
_TEXT	SEGMENT PARA USE32 PUBLIC 'CODE'
_TEXT	ENDS
;	COMDAT ??$_Allocate@D@std@@YAPADIPAD@Z
_TEXT	SEGMENT PARA USE32 PUBLIC 'CODE'
_TEXT	ENDS
;	COMDAT ?deallocate@?$allocator@D@std@@QAEXPADI@Z
_TEXT	SEGMENT PARA USE32 PUBLIC 'CODE'
_TEXT	ENDS
;	COMDAT ?_Peek@?$istreambuf_iterator@_WU?$char_traits@_W@std@@@std@@AAE_WXZ
_TEXT	SEGMENT PARA USE32 PUBLIC 'CODE'
_TEXT	ENDS
;	COMDAT ?_Peek@?$istreambuf_iterator@DU?$char_traits@D@std@@@std@@AAEDXZ
_TEXT	SEGMENT PARA USE32 PUBLIC 'CODE'
_TEXT	ENDS
;	COMDAT ??$use_facet@V?$ctype@_W@std@@@std@@YAABV?$ctype@_W@0@ABVlocale@0@@Z
_TEXT	SEGMENT PARA USE32 PUBLIC 'CODE'
_TEXT	ENDS
;	COMDAT ??_S?$ctype@_W@std@@6B@
CONST	SEGMENT DWORD USE32 PUBLIC 'CONST'
CONST	ENDS
;	COMDAT ??_R4?$ctype@_W@std@@6B@
rdata$r	SEGMENT DWORD USE32 PUBLIC 'CONST'
rdata$r	ENDS
;	COMDAT ??_R0?AV?$ctype@_W@std@@@8
_DATA	SEGMENT DWORD USE32 PUBLIC 'DATA'
_DATA	ENDS
;	COMDAT ??_R3?$ctype@_W@std@@8
rdata$r	SEGMENT DWORD USE32 PUBLIC 'CONST'
rdata$r	ENDS
;	COMDAT ??_R2?$ctype@_W@std@@8
rdata$r	SEGMENT DWORD USE32 PUBLIC 'CONST'
rdata$r	ENDS
;	COMDAT ??_R1A@?0A@A@?$ctype@_W@std@@8
rdata$r	SEGMENT DWORD USE32 PUBLIC 'CONST'
rdata$r	ENDS
;	COMDAT ??_R1A@?0A@A@ctype_base@std@@8
rdata$r	SEGMENT DWORD USE32 PUBLIC 'CONST'
rdata$r	ENDS
;	COMDAT ??_R0?AUctype_base@std@@@8
_DATA	SEGMENT DWORD USE32 PUBLIC 'DATA'
_DATA	ENDS
;	COMDAT ??_G?$ctype@_W@std@@MAEPAXI@Z
_TEXT	SEGMENT PARA USE32 PUBLIC 'CODE'
_TEXT	ENDS
;	COMDAT ??_C@_08EPJLHIJG@bad?5cast?$AA@
CONST	SEGMENT DWORD USE32 PUBLIC 'CONST'
CONST	ENDS
;	COMDAT __TI2?AVbad_cast@@
xdata$x	SEGMENT DWORD USE32 PUBLIC 'CONST'
xdata$x	ENDS
;	COMDAT __CTA2?AVbad_cast@@
xdata$x	SEGMENT DWORD USE32 PUBLIC 'CONST'
xdata$x	ENDS
;	COMDAT __CT??_R0?AVbad_cast@@@8??0bad_cast@@QAE@ABV0@@Z12
xdata$x	SEGMENT DWORD USE32 PUBLIC 'CONST'
xdata$x	ENDS
;	COMDAT ??_R0?AVbad_cast@@@8
_DATA	SEGMENT DWORD USE32 PUBLIC 'DATA'
_DATA	ENDS
;	COMDAT __CT??_R0?AVexception@@@8??0exception@@QAE@ABV0@@Z12
xdata$x	SEGMENT DWORD USE32 PUBLIC 'CONST'
xdata$x	ENDS
;	COMDAT ??_R0?AVexception@@@8
_DATA	SEGMENT DWORD USE32 PUBLIC 'DATA'
_DATA	ENDS
;	COMDAT ??$use_facet@V?$ctype@D@std@@@std@@YAABV?$ctype@D@0@ABVlocale@0@@Z
_TEXT	SEGMENT PARA USE32 PUBLIC 'CODE'
_TEXT	ENDS
;	COMDAT ??_S?$ctype@D@std@@6B@
CONST	SEGMENT DWORD USE32 PUBLIC 'CONST'
CONST	ENDS
;	COMDAT ??_R4?$ctype@D@std@@6B@
rdata$r	SEGMENT DWORD USE32 PUBLIC 'CONST'
rdata$r	ENDS
;	COMDAT ??_R0?AV?$ctype@D@std@@@8
_DATA	SEGMENT DWORD USE32 PUBLIC 'DATA'
_DATA	ENDS
;	COMDAT ??_R3?$ctype@D@std@@8
rdata$r	SEGMENT DWORD USE32 PUBLIC 'CONST'
rdata$r	ENDS
;	COMDAT ??_R2?$ctype@D@std@@8
rdata$r	SEGMENT DWORD USE32 PUBLIC 'CONST'
rdata$r	ENDS
;	COMDAT ??_R1A@?0A@A@?$ctype@D@std@@8
rdata$r	SEGMENT DWORD USE32 PUBLIC 'CONST'
rdata$r	ENDS
;	COMDAT ??_G?$ctype@D@std@@MAEPAXI@Z
_TEXT	SEGMENT PARA USE32 PUBLIC 'CODE'
_TEXT	ENDS
;	COMDAT ??_S?$numpunct@_W@std@@6B@
CONST	SEGMENT DWORD USE32 PUBLIC 'CONST'
CONST	ENDS
;	COMDAT ??_S?$numpunct@D@std@@6B@
CONST	SEGMENT DWORD USE32 PUBLIC 'CONST'
CONST	ENDS
;	COMDAT _wmemmove
_TEXT	SEGMENT PARA USE32 PUBLIC 'CODE'
_TEXT	ENDS
;	COMDAT ?deallocate@?$allocator@_W@std@@QAEXPA_WI@Z
_TEXT	SEGMENT PARA USE32 PUBLIC 'CODE'
_TEXT	ENDS
;	COMDAT ??0?$allocator@_W@std@@QAE@ABV01@@Z
_TEXT	SEGMENT PARA USE32 PUBLIC 'CODE'
_TEXT	ENDS
;	COMDAT ?OnLButtonUp@CWnd@@IAEXIVCPoint@@@Z
_TEXT	SEGMENT PARA USE32 PUBLIC 'CODE'
_TEXT	ENDS
;	COMDAT ?OnLButtonDown@CWnd@@IAEXIVCPoint@@@Z
_TEXT	SEGMENT PARA USE32 PUBLIC 'CODE'
_TEXT	ENDS
;	COMDAT ?BitBlt@CDC@@QAEHHHHHPAV1@HHK@Z
_TEXT	SEGMENT PARA USE32 PUBLIC 'CODE'
_TEXT	ENDS
;	COMDAT ?GetSafeHdc@CDC@@QBEPAUHDC__@@XZ
_TEXT	SEGMENT PARA USE32 PUBLIC 'CODE'
_TEXT	ENDS
;	COMDAT ??0CRect@@QAE@UtagPOINT@@UtagSIZE@@@Z
_TEXT	SEGMENT PARA USE32 PUBLIC 'CODE'
_TEXT	ENDS
;	COMDAT ?CenterPoint@CRect@@QBE?AVCPoint@@XZ
_TEXT	SEGMENT PARA USE32 PUBLIC 'CODE'
_TEXT	ENDS
;	COMDAT ??0CPoint@@QAE@XZ
_TEXT	SEGMENT PARA USE32 PUBLIC 'CODE'
_TEXT	ENDS
;	COMDAT ??0CSize@@QAE@XZ
_TEXT	SEGMENT PARA USE32 PUBLIC 'CODE'
_TEXT	ENDS
;	COMDAT ?Release@CStringData@ATL@@QAEXXZ
_TEXT	SEGMENT PARA USE32 PUBLIC 'CODE'
_TEXT	ENDS
;	COMDAT ?data@CStringData@ATL@@QAEPAXXZ
_TEXT	SEGMENT PARA USE32 PUBLIC 'CODE'
_TEXT	ENDS
;	COMDAT ?GetDefaultManager@?$StrTraitMFC_DLL@DV?$ChTraitsCRT@D@ATL@@@@SAPAUIAtlStringMgr@ATL@@XZ
_TEXT	SEGMENT PARA USE32 PUBLIC 'CODE'
_TEXT	ENDS
;	COMDAT ?FindStringResourceInstance@?$StrTraitMFC_DLL@DV?$ChTraitsCRT@D@ATL@@@@SAPAUHINSTANCE__@@I@Z
_TEXT	SEGMENT PARA USE32 PUBLIC 'CODE'
_TEXT	ENDS
;	COMDAT ?AtlGetStringResourceImage@ATL@@YAPBUATLSTRINGRESOURCEIMAGE@1@PAUHINSTANCE__@@I@Z
_TEXT	SEGMENT PARA USE32 PUBLIC 'CODE'
_TEXT	ENDS
;	COMDAT ?_AtlGetStringResourceImage@ATL@@YAPBUATLSTRINGRESOURCEIMAGE@1@PAUHINSTANCE__@@PAUHRSRC__@@I@Z
_TEXT	SEGMENT PARA USE32 PUBLIC 'CODE'
_TEXT	ENDS
;	COMDAT ?GetBaseTypeLength@?$ChTraitsCRT@D@ATL@@SAHPB_WH@Z
_TEXT	SEGMENT PARA USE32 PUBLIC 'CODE'
_TEXT	ENDS
;	COMDAT ?_AtlGetConversionACP@ATL@@YGIXZ
_TEXT	SEGMENT PARA USE32 PUBLIC 'CODE'
_TEXT	ENDS
;	COMDAT ?g_pfnGetThreadACP@ATL@@3P6GIXZA
_DATA	SEGMENT DWORD USE32 PUBLIC 'DATA'
_DATA	ENDS
;	COMDAT ?_AtlGetThreadACPThunk@ATL@@YGIXZ
_TEXT	SEGMENT PARA USE32 PUBLIC 'CODE'
_TEXT	ENDS
;	COMDAT ?_AtlGetThreadACPReal@ATL@@YGIXZ
_TEXT	SEGMENT PARA USE32 PUBLIC 'CODE'
_TEXT	ENDS
;	COMDAT ?_AtlGetThreadACPFake@ATL@@YGIXZ
_TEXT	SEGMENT PARA USE32 PUBLIC 'CODE'
_TEXT	ENDS
;	COMDAT ?InterlockedExchangePointer@@YGPAXPAPAXPAX@Z
_TEXT	SEGMENT PARA USE32 PUBLIC 'CODE'
_TEXT	ENDS
;	COMDAT ?IsShared@CStringData@ATL@@QBE_NXZ
_TEXT	SEGMENT PARA USE32 PUBLIC 'CODE'
_TEXT	ENDS
;	COMDAT ?AtlThrow@ATL@@YGXJ@Z
_TEXT	SEGMENT PARA USE32 PUBLIC 'CODE'
_TEXT	ENDS
;	COMDAT ?ConvertToBaseType@?$ChTraitsCRT@D@ATL@@SAXPADHPB_WH@Z
_TEXT	SEGMENT PARA USE32 PUBLIC 'CODE'
_TEXT	ENDS
;	COMDAT ?IsLocked@CStringData@ATL@@QBE_NXZ
_TEXT	SEGMENT PARA USE32 PUBLIC 'CODE'
_TEXT	ENDS
;	COMDAT ?DrawTextA@CDC@@QAEHABV?$CStringT@DV?$StrTraitMFC_DLL@DV?$ChTraitsCRT@D@ATL@@@@@ATL@@PAUtagRECT@@I@Z
_TEXT	SEGMENT PARA USE32 PUBLIC 'CODE'
_TEXT	ENDS
;	COMDAT ?DeflateRect@CRect@@QAEXHHHH@Z
_TEXT	SEGMENT PARA USE32 PUBLIC 'CODE'
_TEXT	ENDS
;	COMDAT ?TopLeft@CRect@@QAEAAVCPoint@@XZ
_TEXT	SEGMENT PARA USE32 PUBLIC 'CODE'
_TEXT	ENDS
;	COMDAT ?BottomRight@CRect@@QAEAAVCPoint@@XZ
_TEXT	SEGMENT PARA USE32 PUBLIC 'CODE'
_TEXT	ENDS
;	COMDAT ??0CRect@@QAE@HHHH@Z
_TEXT	SEGMENT PARA USE32 PUBLIC 'CODE'
_TEXT	ENDS
;	COMDAT ?GetItem@CHeaderCtrl@@QBEHHPAU_HD_ITEMA@@@Z
_TEXT	SEGMENT PARA USE32 PUBLIC 'CODE'
_TEXT	ENDS
;	COMDAT ?CreateFontIndirectA@CFont@@QAEHPBUtagLOGFONTA@@@Z
_TEXT	SEGMENT PARA USE32 PUBLIC 'CODE'
_TEXT	ENDS
;	COMDAT ?SelectObject@CDC@@QAEPAVCBitmap@@PAV2@@Z
_TEXT	SEGMENT PARA USE32 PUBLIC 'CODE'
_TEXT	ENDS
;	COMDAT ?GetSafeHandle@CGdiObject@@QBEPAXXZ
_TEXT	SEGMENT PARA USE32 PUBLIC 'CODE'
_TEXT	ENDS
;	COMDAT ?Width@CRect@@QBEHXZ
_TEXT	SEGMENT PARA USE32 PUBLIC 'CODE'
_TEXT	ENDS
;	COMDAT ?Height@CRect@@QBEHXZ
_TEXT	SEGMENT PARA USE32 PUBLIC 'CODE'
_TEXT	ENDS
;	COMDAT ?CreateCompatibleBitmap@CBitmap@@QAEHPAVCDC@@HH@Z
_TEXT	SEGMENT PARA USE32 PUBLIC 'CODE'
_TEXT	ENDS
;	COMDAT ??1CBitmap@@UAE@XZ
_TEXT	SEGMENT PARA USE32 PUBLIC 'CODE'
_TEXT	ENDS
;	COMDAT ??_7CBitmap@@6B@
CONST	SEGMENT DWORD USE32 PUBLIC 'CONST'
CONST	ENDS
;	COMDAT ??_R4CBitmap@@6B@
rdata$r	SEGMENT DWORD USE32 PUBLIC 'CONST'
rdata$r	ENDS
;	COMDAT ??_R0?AVCBitmap@@@8
_DATA	SEGMENT DWORD USE32 PUBLIC 'DATA'
_DATA	ENDS
;	COMDAT ??_R3CBitmap@@8
rdata$r	SEGMENT DWORD USE32 PUBLIC 'CONST'
rdata$r	ENDS
;	COMDAT ??_R2CBitmap@@8
rdata$r	SEGMENT DWORD USE32 PUBLIC 'CONST'
rdata$r	ENDS
;	COMDAT ??_R1A@?0A@A@CBitmap@@8
rdata$r	SEGMENT DWORD USE32 PUBLIC 'CONST'
rdata$r	ENDS
;	COMDAT ??_R1A@?0A@A@CGdiObject@@8
rdata$r	SEGMENT DWORD USE32 PUBLIC 'CONST'
rdata$r	ENDS
;	COMDAT ??_R0?AVCGdiObject@@@8
_DATA	SEGMENT DWORD USE32 PUBLIC 'DATA'
_DATA	ENDS
;	COMDAT ??_GCBitmap@@UAEPAXI@Z
_TEXT	SEGMENT PARA USE32 PUBLIC 'CODE'
_TEXT	ENDS
;	COMDAT ??1CGdiObject@@UAE@XZ
_TEXT	SEGMENT PARA USE32 PUBLIC 'CODE'
_TEXT	ENDS
;	COMDAT ??_7CGdiObject@@6B@
CONST	SEGMENT DWORD USE32 PUBLIC 'CONST'
CONST	ENDS
;	COMDAT ??_R4CGdiObject@@6B@
rdata$r	SEGMENT DWORD USE32 PUBLIC 'CONST'
rdata$r	ENDS
;	COMDAT ??_R3CGdiObject@@8
rdata$r	SEGMENT DWORD USE32 PUBLIC 'CONST'
rdata$r	ENDS
;	COMDAT ??_R2CGdiObject@@8
rdata$r	SEGMENT DWORD USE32 PUBLIC 'CONST'
rdata$r	ENDS
;	COMDAT ??_GCGdiObject@@UAEPAXI@Z
_TEXT	SEGMENT PARA USE32 PUBLIC 'CODE'
_TEXT	ENDS
;	COMDAT ??1CObject@@UAE@XZ
_TEXT	SEGMENT PARA USE32 PUBLIC 'CODE'
_TEXT	ENDS
;	COMDAT ??0CBitmap@@QAE@XZ
_TEXT	SEGMENT PARA USE32 PUBLIC 'CODE'
_TEXT	ENDS
;	COMDAT ??0CGdiObject@@QAE@XZ
_TEXT	SEGMENT PARA USE32 PUBLIC 'CODE'
_TEXT	ENDS
;	COMDAT ??0CObject@@IAE@XZ
_TEXT	SEGMENT PARA USE32 PUBLIC 'CODE'
_TEXT	ENDS
;	COMDAT ?CreateCompatibleDC@CDC@@QAEHPAV1@@Z
_TEXT	SEGMENT PARA USE32 PUBLIC 'CODE'
_TEXT	ENDS
;	COMDAT ?GetClientRect@CWnd@@QBEXPAUtagRECT@@@Z
_TEXT	SEGMENT PARA USE32 PUBLIC 'CODE'
_TEXT	ENDS
;	COMDAT ?Invalidate@CWnd@@QAEXH@Z
_TEXT	SEGMENT PARA USE32 PUBLIC 'CODE'
_TEXT	ENDS
;	COMDAT ?PtInRect@CRect@@QBEHUtagPOINT@@@Z
_TEXT	SEGMENT PARA USE32 PUBLIC 'CODE'
_TEXT	ENDS
;	COMDAT ?GetItemRect@CHeaderCtrl@@QBEHHPAUtagRECT@@@Z
_TEXT	SEGMENT PARA USE32 PUBLIC 'CODE'
_TEXT	ENDS
;	COMDAT ??0CRect@@QAE@XZ
_TEXT	SEGMENT PARA USE32 PUBLIC 'CODE'
_TEXT	ENDS
;	COMDAT ?GetItemCount@CHeaderCtrl@@QBEHXZ
_TEXT	SEGMENT PARA USE32 PUBLIC 'CODE'
_TEXT	ENDS
;	COMDAT ?OnMouseMove@CWnd@@IAEXIVCPoint@@@Z
_TEXT	SEGMENT PARA USE32 PUBLIC 'CODE'
_TEXT	ENDS
;	COMDAT ??8CPoint@@QBEHUtagPOINT@@@Z
_TEXT	SEGMENT PARA USE32 PUBLIC 'CODE'
_TEXT	ENDS
;	COMDAT ?s_pt@?1??OnMouseMove@CMyHeaderCtrl@@QAEXIVCPoint@@@Z@4V3@A
_BSS	SEGMENT DWORD USE32 PUBLIC 'BSS'
_BSS	ENDS
;	COMDAT ??0CPoint@@QAE@HH@Z
_TEXT	SEGMENT PARA USE32 PUBLIC 'CODE'
_TEXT	ENDS
;	COMDAT ?$S5@?1??OnMouseMove@CMyHeaderCtrl@@QAEXIVCPoint@@@Z@4IA
_BSS	SEGMENT DWORD USE32 PUBLIC 'BSS'
_BSS	ENDS
;	COMDAT ?OnCreate@CWnd@@IAEHPAUtagCREATESTRUCTA@@@Z
_TEXT	SEGMENT PARA USE32 PUBLIC 'CODE'
_TEXT	ENDS
;	COMDAT ?SetFont@CWnd@@QAEXPAVCFont@@H@Z
_TEXT	SEGMENT PARA USE32 PUBLIC 'CODE'
_TEXT	ENDS
;	COMDAT ?CreateFontA@CFont@@QAEHHHHHHEEEEEEEEPBD@Z
_TEXT	SEGMENT PARA USE32 PUBLIC 'CODE'
_TEXT	ENDS
;	COMDAT ?_messageEntries@CMyHeaderCtrl@@0QBUAFX_MSGMAP_ENTRY@@B
CONST	SEGMENT DWORD USE32 PUBLIC 'CONST'
CONST	ENDS
;	COMDAT ?messageMap@CMyHeaderCtrl@@1UAFX_MSGMAP@@B
CONST	SEGMENT DWORD USE32 PUBLIC 'CONST'
CONST	ENDS
;	COMDAT ??3CObject@@SGXPAX@Z
_TEXT	SEGMENT PARA USE32 PUBLIC 'CODE'
_TEXT	ENDS
;	COMDAT ??1CFont@@UAE@XZ
_TEXT	SEGMENT PARA USE32 PUBLIC 'CODE'
_TEXT	ENDS
;	COMDAT ??_7CFont@@6B@
CONST	SEGMENT DWORD USE32 PUBLIC 'CONST'
CONST	ENDS
;	COMDAT ??_R4CFont@@6B@
rdata$r	SEGMENT DWORD USE32 PUBLIC 'CONST'
rdata$r	ENDS
;	COMDAT ??_R0?AVCFont@@@8
_DATA	SEGMENT DWORD USE32 PUBLIC 'DATA'
_DATA	ENDS
;	COMDAT ??_R3CFont@@8
rdata$r	SEGMENT DWORD USE32 PUBLIC 'CONST'
rdata$r	ENDS
;	COMDAT ??_R2CFont@@8
rdata$r	SEGMENT DWORD USE32 PUBLIC 'CONST'
rdata$r	ENDS
;	COMDAT ??_R1A@?0A@A@CFont@@8
rdata$r	SEGMENT DWORD USE32 PUBLIC 'CONST'
rdata$r	ENDS
;	COMDAT ??_GCFont@@UAEPAXI@Z
_TEXT	SEGMENT PARA USE32 PUBLIC 'CODE'
_TEXT	ENDS
;	COMDAT ??0CFont@@QAE@XZ
_TEXT	SEGMENT PARA USE32 PUBLIC 'CODE'
_TEXT	ENDS
;	COMDAT ??_7CMyHeaderCtrl@@6B@
CONST	SEGMENT DWORD USE32 PUBLIC 'CONST'
CONST	ENDS
;	COMDAT ??0CHeaderCtrl@@QAE@XZ
_TEXT	SEGMENT PARA USE32 PUBLIC 'CODE'
_TEXT	ENDS
;	COMDAT ??_7CHeaderCtrl@@6B@
CONST	SEGMENT DWORD USE32 PUBLIC 'CONST'
CONST	ENDS
;	COMDAT ??_R4CHeaderCtrl@@6B@
rdata$r	SEGMENT DWORD USE32 PUBLIC 'CONST'
rdata$r	ENDS
;	COMDAT ??_R3CHeaderCtrl@@8
rdata$r	SEGMENT DWORD USE32 PUBLIC 'CONST'
rdata$r	ENDS
;	COMDAT ??_R2CHeaderCtrl@@8
rdata$r	SEGMENT DWORD USE32 PUBLIC 'CONST'
rdata$r	ENDS
;	COMDAT ??_GCHeaderCtrl@@UAEPAXI@Z
_TEXT	SEGMENT PARA USE32 PUBLIC 'CODE'
_TEXT	ENDS
;	COMDAT ?classCMyHeaderCtrl@CMyHeaderCtrl@@2UCRuntimeClass@@B
CONST	SEGMENT DWORD USE32 PUBLIC 'CONST'
CONST	ENDS
;	COMDAT ??_C@_00CNPNBAHC@?$AA@
CONST	SEGMENT DWORD USE32 PUBLIC 'CONST'
CONST	ENDS
;	COMDAT ??0?$allocator@D@std@@QAE@ABV01@@Z
_TEXT	SEGMENT PARA USE32 PUBLIC 'CODE'
_TEXT	ENDS
;	COMDAT ??0?$allocator@D@std@@QAE@XZ
_TEXT	SEGMENT PARA USE32 PUBLIC 'CODE'
_TEXT	ENDS
sxdata	SEGMENT DWORD USE32 'SXDATA'
sxdata	ENDS
FLAT	GROUP _DATA, CONST, _BSS
	ASSUME	CS: FLAT, DS: FLAT, SS: FLAT
endif

INCLUDELIB MSVCRT
INCLUDELIB OLDNAMES

PUBLIC	?g_pfnGetThreadACP@ATL@@3P6GIXZA		; ATL::g_pfnGetThreadACP
PUBLIC	?_AtlGetThreadACPThunk@ATL@@YGIXZ		; ATL::_AtlGetThreadACPThunk
PUBLIC	?classCMyHeaderCtrl@CMyHeaderCtrl@@2UCRuntimeClass@@B ; CMyHeaderCtrl::classCMyHeaderCtrl
PUBLIC	?_messageEntries@CMyHeaderCtrl@@0QBUAFX_MSGMAP_ENTRY@@B ; CMyHeaderCtrl::_messageEntries
PUBLIC	?messageMap@CMyHeaderCtrl@@1UAFX_MSGMAP@@B	; CMyHeaderCtrl::messageMap
PUBLIC	?OnPaint@CMyHeaderCtrl@@QAEXXZ			; CMyHeaderCtrl::OnPaint
PUBLIC	?OnCreate@CMyHeaderCtrl@@QAEHPAUtagCREATESTRUCTA@@@Z ; CMyHeaderCtrl::OnCreate
PUBLIC	?OnEraseBkgnd@CMyHeaderCtrl@@QAEHPAVCDC@@@Z	; CMyHeaderCtrl::OnEraseBkgnd
PUBLIC	?OnMouseLeave@CMyHeaderCtrl@@QAEJIJ@Z		; CMyHeaderCtrl::OnMouseLeave
PUBLIC	?OnMouseMove@CMyHeaderCtrl@@QAEXIVCPoint@@@Z	; CMyHeaderCtrl::OnMouseMove
PUBLIC	?OnLButtonDown@CMyHeaderCtrl@@QAEXIVCPoint@@@Z	; CMyHeaderCtrl::OnLButtonDown
PUBLIC	?OnLButtonUp@CMyHeaderCtrl@@QAEXIVCPoint@@@Z	; CMyHeaderCtrl::OnLButtonUp
PUBLIC	?OnLayOut@CMyHeaderCtrl@@QAEJIJ@Z		; CMyHeaderCtrl::OnLayOut
EXTRN	?GetThisMessageMap@CWnd@@KGPBUAFX_MSGMAP@@XZ:NEAR ; CWnd::GetThisMessageMap
EXTRN	?GetThisClass@CHeaderCtrl@@SGPAUCRuntimeClass@@XZ:NEAR ; CHeaderCtrl::GetThisClass
CONST	SEGMENT
$SG198439 DB	'CMyHeaderCtrl', 00H
CONST	ENDS
;	COMDAT ?classCMyHeaderCtrl@CMyHeaderCtrl@@2UCRuntimeClass@@B
CONST	SEGMENT
?classCMyHeaderCtrl@CMyHeaderCtrl@@2UCRuntimeClass@@B DD FLAT:$SG198439 ; CMyHeaderCtrl::classCMyHeaderCtrl
	DD	088H
	DD	0ffffH
	DD	00H
	DD	FLAT:?GetThisClass@CHeaderCtrl@@SGPAUCRuntimeClass@@XZ
	DD	00H
	DD	00H
CONST	ENDS
;	COMDAT ?_messageEntries@CMyHeaderCtrl@@0QBUAFX_MSGMAP_ENTRY@@B
CONST	SEGMENT
?_messageEntries@CMyHeaderCtrl@@0QBUAFX_MSGMAP_ENTRY@@B DD 01H ; CMyHeaderCtrl::_messageEntries
	DD	00H
	DD	00H
	DD	00H
	DD	0dH
	DD	FLAT:?OnCreate@CMyHeaderCtrl@@QAEHPAUtagCREATESTRUCTA@@@Z
	DD	0fH
	DD	00H
	DD	00H
	DD	00H
	DD	010H
	DD	FLAT:?OnPaint@CMyHeaderCtrl@@QAEXXZ
	DD	0200H
	DD	00H
	DD	00H
	DD	00H
	DD	032H
	DD	FLAT:?OnMouseMove@CMyHeaderCtrl@@QAEXIVCPoint@@@Z
	DD	0202H
	DD	00H
	DD	00H
	DD	00H
	DD	032H
	DD	FLAT:?OnLButtonUp@CMyHeaderCtrl@@QAEXIVCPoint@@@Z
	DD	0201H
	DD	00H
	DD	00H
	DD	00H
	DD	032H
	DD	FLAT:?OnLButtonDown@CMyHeaderCtrl@@QAEXIVCPoint@@@Z
	DD	02a3H
	DD	00H
	DD	00H
	DD	00H
	DD	0eH
	DD	FLAT:?OnMouseLeave@CMyHeaderCtrl@@QAEJIJ@Z
	DD	014H
	DD	00H
	DD	00H
	DD	00H
	DD	01H
	DD	FLAT:?OnEraseBkgnd@CMyHeaderCtrl@@QAEHPAVCDC@@@Z
	DD	01205H
	DD	00H
	DD	00H
	DD	00H
	DD	0eH
	DD	FLAT:?OnLayOut@CMyHeaderCtrl@@QAEJIJ@Z
	DD	00H
	DD	00H
	DD	00H
	DD	00H
	DD	00H
	DD	00H
CONST	ENDS
;	COMDAT ?messageMap@CMyHeaderCtrl@@1UAFX_MSGMAP@@B
CONST	SEGMENT
?messageMap@CMyHeaderCtrl@@1UAFX_MSGMAP@@B DD FLAT:?GetThisMessageMap@CWnd@@KGPBUAFX_MSGMAP@@XZ ; CMyHeaderCtrl::messageMap
	DD	FLAT:?_messageEntries@CMyHeaderCtrl@@0QBUAFX_MSGMAP_ENTRY@@B
CONST	ENDS
CONST	SEGMENT
	ORG $+2
$SG198513 DB	0cbH, 0ceH, 0ccH, 0e5H, 00H
	ORG $+3
$SG198545 DB	0cbH, 0ceH, 0ccH, 0e5H, 00H
	ORG $+3
$SG198554 DB	'ListHeaderBK', 00H
	ORG $+3
$SG198555 DB	'ListHeaderMidLine', 00H
	ORG $+2
$SG198556 DB	'ListHeaderBK', 00H
	ORG $+3
$SG198571 DB	0cbH, 0ceH, 0ccH, 0e5H, 00H
CONST	ENDS
;	COMDAT ?g_pfnGetThreadACP@ATL@@3P6GIXZA
_DATA	SEGMENT
?g_pfnGetThreadACP@ATL@@3P6GIXZA DD FLAT:?_AtlGetThreadACPThunk@ATL@@YGIXZ ; ATL::g_pfnGetThreadACP
_DATA	ENDS
PUBLIC	?GetThisClass@CMyHeaderCtrl@@SGPAUCRuntimeClass@@XZ ; CMyHeaderCtrl::GetThisClass
; Function compile flags: /Odt
; File d:\boxgit\playbox\playbox\dev\prj\playbox\src\gui\commoncontrol\myheaderctrl.cpp
_TEXT	SEGMENT
?GetThisClass@CMyHeaderCtrl@@SGPAUCRuntimeClass@@XZ PROC NEAR ; CMyHeaderCtrl::GetThisClass

; 11   : IMPLEMENT_DYNAMIC(CMyHeaderCtrl, CHeaderCtrl)

  00000	55		 push	 ebp
  00001	8b ec		 mov	 ebp, esp
  00003	b8 00 00 00 00	 mov	 eax, OFFSET FLAT:?classCMyHeaderCtrl@CMyHeaderCtrl@@2UCRuntimeClass@@B ; CMyHeaderCtrl::classCMyHeaderCtrl
  00008	5d		 pop	 ebp
  00009	c3		 ret	 0
?GetThisClass@CMyHeaderCtrl@@SGPAUCRuntimeClass@@XZ ENDP ; CMyHeaderCtrl::GetThisClass
_TEXT	ENDS
PUBLIC	?GetRuntimeClass@CMyHeaderCtrl@@UBEPAUCRuntimeClass@@XZ ; CMyHeaderCtrl::GetRuntimeClass
; Function compile flags: /Odt
_TEXT	SEGMENT
_this$ = -4						; size = 4
?GetRuntimeClass@CMyHeaderCtrl@@UBEPAUCRuntimeClass@@XZ PROC NEAR ; CMyHeaderCtrl::GetRuntimeClass
; _this$ = ecx

; 11   : IMPLEMENT_DYNAMIC(CMyHeaderCtrl, CHeaderCtrl)

  00010	55		 push	 ebp
  00011	8b ec		 mov	 ebp, esp
  00013	51		 push	 ecx
  00014	89 4d fc	 mov	 DWORD PTR _this$[ebp], ecx
  00017	b8 00 00 00 00	 mov	 eax, OFFSET FLAT:?classCMyHeaderCtrl@CMyHeaderCtrl@@2UCRuntimeClass@@B ; CMyHeaderCtrl::classCMyHeaderCtrl
  0001c	8b e5		 mov	 esp, ebp
  0001e	5d		 pop	 ebp
  0001f	c3		 ret	 0
?GetRuntimeClass@CMyHeaderCtrl@@UBEPAUCRuntimeClass@@XZ ENDP ; CMyHeaderCtrl::GetRuntimeClass
_TEXT	ENDS
PUBLIC	??_R4CMyHeaderCtrl@@6B@				; CMyHeaderCtrl::`RTTI Complete Object Locator'
PUBLIC	??_R0?AVCMyHeaderCtrl@@@8			; CMyHeaderCtrl `RTTI Type Descriptor'
PUBLIC	??_R3CMyHeaderCtrl@@8				; CMyHeaderCtrl::`RTTI Class Hierarchy Descriptor'
PUBLIC	??_R2CMyHeaderCtrl@@8				; CMyHeaderCtrl::`RTTI Base Class Array'
PUBLIC	??_R1A@?0A@A@CMyHeaderCtrl@@8			; CMyHeaderCtrl::`RTTI Base Class Descriptor at (0,-1,0,0)'
PUBLIC	??_R1A@?0A@A@CObject@@8				; CObject::`RTTI Base Class Descriptor at (0,-1,0,0)'
PUBLIC	??_R0?AVCObject@@@8				; CObject `RTTI Type Descriptor'
PUBLIC	??_R1A@?0A@A@CWnd@@8				; CWnd::`RTTI Base Class Descriptor at (0,-1,0,0)'
PUBLIC	??_R0?AVCWnd@@@8				; CWnd `RTTI Type Descriptor'
PUBLIC	??_R1A@?0A@A@CCmdTarget@@8			; CCmdTarget::`RTTI Base Class Descriptor at (0,-1,0,0)'
PUBLIC	??_R0?AVCCmdTarget@@@8				; CCmdTarget `RTTI Type Descriptor'
PUBLIC	?Serialize@CObject@@UAEXAAVCArchive@@@Z		; CObject::Serialize
PUBLIC	?AssertValid@CObject@@UBEXXZ			; CObject::AssertValid
PUBLIC	?Dump@CObject@@UBEXAAVCDumpContext@@@Z		; CObject::Dump
PUBLIC	??_R0?AVCHeaderCtrl@@@8				; CHeaderCtrl `RTTI Type Descriptor'
PUBLIC	??_R1A@?0A@A@CHeaderCtrl@@8			; CHeaderCtrl::`RTTI Base Class Descriptor at (0,-1,0,0)'
PUBLIC	??0CHeaderCtrl@@QAE@XZ				; CHeaderCtrl::CHeaderCtrl
PUBLIC	??0CMyHeaderCtrl@@QAE@XZ			; CMyHeaderCtrl::CMyHeaderCtrl
PUBLIC	?SubclassWindow@CMyHeaderCtrl@@UAEHPAUHWND__@@@Z ; CMyHeaderCtrl::SubclassWindow
PUBLIC	?GetMessageMap@CMyHeaderCtrl@@MBEPBUAFX_MSGMAP@@XZ ; CMyHeaderCtrl::GetMessageMap
PUBLIC	??0CFont@@QAE@XZ				; CFont::CFont
PUBLIC	??_7CMyHeaderCtrl@@6B@				; CMyHeaderCtrl::`vftable'
PUBLIC	??_GCMyHeaderCtrl@@UAEPAXI@Z			; CMyHeaderCtrl::`scalar deleting destructor'
PUBLIC	?DoDataExchange@CWnd@@MAEXPAVCDataExchange@@@Z	; CWnd::DoDataExchange
PUBLIC	?BeginModalState@CWnd@@UAEXXZ			; CWnd::BeginModalState
PUBLIC	?EndModalState@CWnd@@UAEXXZ			; CWnd::EndModalState
EXTRN	?CreateControlContainer@CWnd@@MAEHPAPAVCOleControlContainer@@@Z:NEAR ; CWnd::CreateControlContainer
EXTRN	?CreateControlSite@CWnd@@MAEHPAVCOleControlContainer@@PAPAVCOleControlSite@@IABU_GUID@@@Z:NEAR ; CWnd::CreateControlSite
EXTRN	?SetOccDialogInfo@CWnd@@MAEHPAU_AFX_OCC_DIALOG_INFO@@@Z:NEAR ; CWnd::SetOccDialogInfo
EXTRN	?OnToolHitTest@CWnd@@UBEHVCPoint@@PAUtagTOOLINFOA@@@Z:NEAR ; CWnd::OnToolHitTest
EXTRN	?GetScrollBarCtrl@CWnd@@UBEPAVCScrollBar@@H@Z:NEAR ; CWnd::GetScrollBarCtrl
EXTRN	?WinHelpA@CWnd@@UAEXKI@Z:NEAR			; CWnd::WinHelpA
EXTRN	?HtmlHelpA@CWnd@@UAEXKI@Z:NEAR			; CWnd::HtmlHelpA
EXTRN	?WinHelpInternal@CWnd@@UAEXKI@Z:NEAR		; CWnd::WinHelpInternal
EXTRN	?ContinueModal@CWnd@@UAEHXZ:NEAR		; CWnd::ContinueModal
EXTRN	?EndModalLoop@CWnd@@UAEXH@Z:NEAR		; CWnd::EndModalLoop
EXTRN	?GetInterfaceMap@CWnd@@MBEPBUAFX_INTERFACEMAP@@XZ:NEAR ; CWnd::GetInterfaceMap
EXTRN	?EnsureStdObj@CWnd@@UAEJXZ:NEAR			; CWnd::EnsureStdObj
EXTRN	?get_accParent@CWnd@@UAEJPAPAUIDispatch@@@Z:NEAR ; CWnd::get_accParent
EXTRN	?get_accChildCount@CWnd@@UAEJPAJ@Z:NEAR		; CWnd::get_accChildCount
EXTRN	?OnCmdMsg@CCmdTarget@@UAEHIHPAXPAUAFX_CMDHANDLERINFO@@@Z:NEAR ; CCmdTarget::OnCmdMsg
EXTRN	?get_accChild@CWnd@@UAEJUtagVARIANT@@PAPAUIDispatch@@@Z:NEAR ; CWnd::get_accChild
EXTRN	__except_list:DWORD
EXTRN	?IsInvokeAllowed@CCmdTarget@@UAEHJ@Z:NEAR	; CCmdTarget::IsInvokeAllowed
EXTRN	?get_accName@CWnd@@UAEJUtagVARIANT@@PAPA_W@Z:NEAR ; CWnd::get_accName
EXTRN	___CxxFrameHandler:NEAR
EXTRN	?get_accValue@CWnd@@UAEJUtagVARIANT@@PAPA_W@Z:NEAR ; CWnd::get_accValue
EXTRN	?get_accDescription@CWnd@@UAEJUtagVARIANT@@PAPA_W@Z:NEAR ; CWnd::get_accDescription
EXTRN	?GetDispatchIID@CCmdTarget@@UAEHPAU_GUID@@@Z:NEAR ; CCmdTarget::GetDispatchIID
EXTRN	?GetTypeInfoCount@CCmdTarget@@UAEIXZ:NEAR	; CCmdTarget::GetTypeInfoCount
EXTRN	?GetTypeLibCache@CCmdTarget@@UAEPAVCTypeLibCache@@XZ:NEAR ; CCmdTarget::GetTypeLibCache
EXTRN	?get_accRole@CWnd@@UAEJUtagVARIANT@@PAU2@@Z:NEAR ; CWnd::get_accRole
EXTRN	?GetTypeLib@CCmdTarget@@UAEJKPAPAUITypeLib@@@Z:NEAR ; CCmdTarget::GetTypeLib
EXTRN	?get_accState@CWnd@@UAEJUtagVARIANT@@PAU2@@Z:NEAR ; CWnd::get_accState
EXTRN	?get_accHelp@CWnd@@UAEJUtagVARIANT@@PAPA_W@Z:NEAR ; CWnd::get_accHelp
EXTRN	?get_accHelpTopic@CWnd@@UAEJPAPA_WUtagVARIANT@@PAJ@Z:NEAR ; CWnd::get_accHelpTopic
EXTRN	?get_accKeyboardShortcut@CWnd@@UAEJUtagVARIANT@@PAPA_W@Z:NEAR ; CWnd::get_accKeyboardShortcut
EXTRN	?get_accFocus@CWnd@@UAEJPAUtagVARIANT@@@Z:NEAR	; CWnd::get_accFocus
EXTRN	?get_accSelection@CWnd@@UAEJPAUtagVARIANT@@@Z:NEAR ; CWnd::get_accSelection
EXTRN	?get_accDefaultAction@CWnd@@UAEJUtagVARIANT@@PAPA_W@Z:NEAR ; CWnd::get_accDefaultAction
EXTRN	?GetCommandMap@CCmdTarget@@MBEPBUAFX_OLECMDMAP@@XZ:NEAR ; CCmdTarget::GetCommandMap
EXTRN	?accSelect@CWnd@@UAEJJUtagVARIANT@@@Z:NEAR	; CWnd::accSelect
EXTRN	?accLocation@CWnd@@UAEJPAJ000UtagVARIANT@@@Z:NEAR ; CWnd::accLocation
EXTRN	?GetDispatchMap@CCmdTarget@@MBEPBUAFX_DISPMAP@@XZ:NEAR ; CCmdTarget::GetDispatchMap
EXTRN	?accNavigate@CWnd@@UAEJJUtagVARIANT@@PAU2@@Z:NEAR ; CWnd::accNavigate
EXTRN	?accHitTest@CWnd@@UAEJJJPAUtagVARIANT@@@Z:NEAR	; CWnd::accHitTest
EXTRN	?GetConnectionMap@CCmdTarget@@MBEPBUAFX_CONNECTIONMAP@@XZ:NEAR ; CCmdTarget::GetConnectionMap
EXTRN	?accDoDefaultAction@CWnd@@UAEJUtagVARIANT@@@Z:NEAR ; CWnd::accDoDefaultAction
EXTRN	?put_accName@CWnd@@UAEJUtagVARIANT@@PA_W@Z:NEAR	; CWnd::put_accName
EXTRN	?put_accValue@CWnd@@UAEJUtagVARIANT@@PA_W@Z:NEAR ; CWnd::put_accValue
EXTRN	?SetProxy@CWnd@@UAEJPAUIAccessibleProxy@@@Z:NEAR ; CWnd::SetProxy
EXTRN	?CreateAccessibleProxy@CWnd@@UAEJIJPAJ@Z:NEAR	; CWnd::CreateAccessibleProxy
EXTRN	?GetEventSinkMap@CCmdTarget@@MBEPBUAFX_EVENTSINKMAP@@XZ:NEAR ; CCmdTarget::GetEventSinkMap
EXTRN	?OnCreateAggregates@CCmdTarget@@UAEHXZ:NEAR	; CCmdTarget::OnCreateAggregates
EXTRN	?OnCommand@CWnd@@MAEHIJ@Z:NEAR			; CWnd::OnCommand
EXTRN	?GetInterfaceHook@CCmdTarget@@UAEPAUIUnknown@@PBX@Z:NEAR ; CCmdTarget::GetInterfaceHook
EXTRN	?OnNotify@CWnd@@MAEHIJPAJ@Z:NEAR		; CWnd::OnNotify
EXTRN	?GetExtraConnectionPoints@CCmdTarget@@MAEHPAVCPtrArray@@@Z:NEAR ; CCmdTarget::GetExtraConnectionPoints
EXTRN	?GetConnectionHook@CCmdTarget@@MAEPAUIConnectionPoint@@ABU_GUID@@@Z:NEAR ; CCmdTarget::GetConnectionHook
EXTRN	?Create@CHeaderCtrl@@UAEHKABUtagRECT@@PAVCWnd@@I@Z:NEAR ; CHeaderCtrl::Create
EXTRN	?CreateEx@CHeaderCtrl@@UAEHKKABUtagRECT@@PAVCWnd@@I@Z:NEAR ; CHeaderCtrl::CreateEx
EXTRN	?DrawItem@CHeaderCtrl@@UAEXPAUtagDRAWITEMSTRUCT@@@Z:NEAR ; CHeaderCtrl::DrawItem
EXTRN	??1CHeaderCtrl@@UAE@XZ:NEAR			; CHeaderCtrl::~CHeaderCtrl
EXTRN	?OnChildNotify@CHeaderCtrl@@MAEHIIJPAJ@Z:NEAR	; CHeaderCtrl::OnChildNotify
EXTRN	??_ECMyHeaderCtrl@@UAEPAXI@Z:NEAR		; CMyHeaderCtrl::`vector deleting destructor'
EXTRN	?PreSubclassWindow@CWnd@@UAEXXZ:NEAR		; CWnd::PreSubclassWindow
EXTRN	?Create@CWnd@@UAEHPBD0KABUtagRECT@@PAV1@IPAUCCreateContext@@@Z:NEAR ; CWnd::Create
EXTRN	?CreateEx@CWnd@@UAEHKPBD0KHHHHPAUHWND__@@PAUHMENU__@@PAX@Z:NEAR ; CWnd::CreateEx
EXTRN	?CreateEx@CWnd@@UAEHKPBD0KABUtagRECT@@PAV1@IPAX@Z:NEAR ; CWnd::CreateEx
EXTRN	?DestroyWindow@CWnd@@UAEHXZ:NEAR		; CWnd::DestroyWindow
EXTRN	?PreCreateWindow@CWnd@@UAEHAAUtagCREATESTRUCTA@@@Z:NEAR ; CWnd::PreCreateWindow
EXTRN	?CalcWindowRect@CWnd@@UAEXPAUtagRECT@@I@Z:NEAR	; CWnd::CalcWindowRect
EXTRN	?GetSuperWndProcAddr@CWnd@@MAEPAP6GJPAUHWND__@@IIJ@ZXZ:NEAR ; CWnd::GetSuperWndProcAddr
EXTRN	??_7type_info@@6B@:QWORD			; type_info::`vftable'
EXTRN	?PreTranslateMessage@CWnd@@UAEHPAUtagMSG@@@Z:NEAR ; CWnd::PreTranslateMessage
EXTRN	?OnAmbientProperty@CWnd@@UAEHPAVCOleControlSite@@JPAUtagVARIANT@@@Z:NEAR ; CWnd::OnAmbientProperty
EXTRN	?WindowProc@CWnd@@MAEJIIJ@Z:NEAR		; CWnd::WindowProc
EXTRN	?OnWndMsg@CWnd@@MAEHIIJPAJ@Z:NEAR		; CWnd::OnWndMsg
EXTRN	?DefWindowProcA@CWnd@@MAEJIIJ@Z:NEAR		; CWnd::DefWindowProcA
EXTRN	?PostNcDestroy@CWnd@@MAEXXZ:NEAR		; CWnd::PostNcDestroy
EXTRN	?CheckAutoCenter@CWnd@@UAEHXZ:NEAR		; CWnd::CheckAutoCenter
EXTRN	?IsFrameWnd@CWnd@@UBEHXZ:NEAR			; CWnd::IsFrameWnd
EXTRN	?OnFinalRelease@CWnd@@UAEXXZ:NEAR		; CWnd::OnFinalRelease
xdata$x	SEGMENT
$T199202 DD	0ffffffffH
	DD	FLAT:$L199194
$T199199 DD	019930520H
	DD	01H
	DD	FLAT:$T199202
	DD	2 DUP(00H)
	DD	2 DUP(00H)
xdata$x	ENDS
;	COMDAT ??_7CMyHeaderCtrl@@6B@
CONST	SEGMENT
??_7CMyHeaderCtrl@@6B@ DD FLAT:??_R4CMyHeaderCtrl@@6B@	; CMyHeaderCtrl::`vftable'
	DD	FLAT:?GetRuntimeClass@CMyHeaderCtrl@@UBEPAUCRuntimeClass@@XZ
	DD	FLAT:??_ECMyHeaderCtrl@@UAEPAXI@Z
	DD	FLAT:?Serialize@CObject@@UAEXAAVCArchive@@@Z
	DD	FLAT:?AssertValid@CObject@@UBEXXZ
	DD	FLAT:?Dump@CObject@@UBEXAAVCDumpContext@@@Z
	DD	FLAT:?OnCmdMsg@CCmdTarget@@UAEHIHPAXPAUAFX_CMDHANDLERINFO@@@Z
	DD	FLAT:?OnFinalRelease@CWnd@@UAEXXZ
	DD	FLAT:?IsInvokeAllowed@CCmdTarget@@UAEHJ@Z
	DD	FLAT:?GetDispatchIID@CCmdTarget@@UAEHPAU_GUID@@@Z
	DD	FLAT:?GetTypeInfoCount@CCmdTarget@@UAEIXZ
	DD	FLAT:?GetTypeLibCache@CCmdTarget@@UAEPAVCTypeLibCache@@XZ
	DD	FLAT:?GetTypeLib@CCmdTarget@@UAEJKPAPAUITypeLib@@@Z
	DD	FLAT:?GetMessageMap@CMyHeaderCtrl@@MBEPBUAFX_MSGMAP@@XZ
	DD	FLAT:?GetCommandMap@CCmdTarget@@MBEPBUAFX_OLECMDMAP@@XZ
	DD	FLAT:?GetDispatchMap@CCmdTarget@@MBEPBUAFX_DISPMAP@@XZ
	DD	FLAT:?GetConnectionMap@CCmdTarget@@MBEPBUAFX_CONNECTIONMAP@@XZ
	DD	FLAT:?GetInterfaceMap@CWnd@@MBEPBUAFX_INTERFACEMAP@@XZ
	DD	FLAT:?GetEventSinkMap@CCmdTarget@@MBEPBUAFX_EVENTSINKMAP@@XZ
	DD	FLAT:?OnCreateAggregates@CCmdTarget@@UAEHXZ
	DD	FLAT:?GetInterfaceHook@CCmdTarget@@UAEPAUIUnknown@@PBX@Z
	DD	FLAT:?GetExtraConnectionPoints@CCmdTarget@@MAEHPAVCPtrArray@@@Z
	DD	FLAT:?GetConnectionHook@CCmdTarget@@MAEPAUIConnectionPoint@@ABU_GUID@@@Z
	DD	FLAT:?PreSubclassWindow@CWnd@@UAEXXZ
	DD	FLAT:?Create@CWnd@@UAEHPBD0KABUtagRECT@@PAV1@IPAUCCreateContext@@@Z
	DD	FLAT:?CreateEx@CWnd@@UAEHKPBD0KABUtagRECT@@PAV1@IPAX@Z
	DD	FLAT:?CreateEx@CWnd@@UAEHKPBD0KHHHHPAUHWND__@@PAUHMENU__@@PAX@Z
	DD	FLAT:?DestroyWindow@CWnd@@UAEHXZ
	DD	FLAT:?PreCreateWindow@CWnd@@UAEHAAUtagCREATESTRUCTA@@@Z
	DD	FLAT:?CalcWindowRect@CWnd@@UAEXPAUtagRECT@@I@Z
	DD	FLAT:?OnToolHitTest@CWnd@@UBEHVCPoint@@PAUtagTOOLINFOA@@@Z
	DD	FLAT:?GetScrollBarCtrl@CWnd@@UBEPAVCScrollBar@@H@Z
	DD	FLAT:?WinHelpA@CWnd@@UAEXKI@Z
	DD	FLAT:?HtmlHelpA@CWnd@@UAEXKI@Z
	DD	FLAT:?WinHelpInternal@CWnd@@UAEXKI@Z
	DD	FLAT:?ContinueModal@CWnd@@UAEHXZ
	DD	FLAT:?EndModalLoop@CWnd@@UAEXH@Z
	DD	FLAT:?EnsureStdObj@CWnd@@UAEJXZ
	DD	FLAT:?get_accParent@CWnd@@UAEJPAPAUIDispatch@@@Z
	DD	FLAT:?get_accChildCount@CWnd@@UAEJPAJ@Z
	DD	FLAT:?get_accChild@CWnd@@UAEJUtagVARIANT@@PAPAUIDispatch@@@Z
	DD	FLAT:?get_accName@CWnd@@UAEJUtagVARIANT@@PAPA_W@Z
	DD	FLAT:?get_accValue@CWnd@@UAEJUtagVARIANT@@PAPA_W@Z
	DD	FLAT:?get_accDescription@CWnd@@UAEJUtagVARIANT@@PAPA_W@Z
	DD	FLAT:?get_accRole@CWnd@@UAEJUtagVARIANT@@PAU2@@Z
	DD	FLAT:?get_accState@CWnd@@UAEJUtagVARIANT@@PAU2@@Z
	DD	FLAT:?get_accHelp@CWnd@@UAEJUtagVARIANT@@PAPA_W@Z
	DD	FLAT:?get_accHelpTopic@CWnd@@UAEJPAPA_WUtagVARIANT@@PAJ@Z
	DD	FLAT:?get_accKeyboardShortcut@CWnd@@UAEJUtagVARIANT@@PAPA_W@Z
	DD	FLAT:?get_accFocus@CWnd@@UAEJPAUtagVARIANT@@@Z
	DD	FLAT:?get_accSelection@CWnd@@UAEJPAUtagVARIANT@@@Z
	DD	FLAT:?get_accDefaultAction@CWnd@@UAEJUtagVARIANT@@PAPA_W@Z
	DD	FLAT:?accSelect@CWnd@@UAEJJUtagVARIANT@@@Z
	DD	FLAT:?accLocation@CWnd@@UAEJPAJ000UtagVARIANT@@@Z
	DD	FLAT:?accNavigate@CWnd@@UAEJJUtagVARIANT@@PAU2@@Z
	DD	FLAT:?accHitTest@CWnd@@UAEJJJPAUtagVARIANT@@@Z
	DD	FLAT:?accDoDefaultAction@CWnd@@UAEJUtagVARIANT@@@Z
	DD	FLAT:?put_accName@CWnd@@UAEJUtagVARIANT@@PA_W@Z
	DD	FLAT:?put_accValue@CWnd@@UAEJUtagVARIANT@@PA_W@Z
	DD	FLAT:?SetProxy@CWnd@@UAEJPAUIAccessibleProxy@@@Z
	DD	FLAT:?CreateAccessibleProxy@CWnd@@UAEJIJPAJ@Z
	DD	FLAT:?OnCommand@CWnd@@MAEHIJ@Z
	DD	FLAT:?OnNotify@CWnd@@MAEHIJPAJ@Z
	DD	FLAT:?GetSuperWndProcAddr@CWnd@@MAEPAP6GJPAUHWND__@@IIJ@ZXZ
	DD	FLAT:?DoDataExchange@CWnd@@MAEXPAVCDataExchange@@@Z
	DD	FLAT:?BeginModalState@CWnd@@UAEXXZ
	DD	FLAT:?EndModalState@CWnd@@UAEXXZ
	DD	FLAT:?PreTranslateMessage@CWnd@@UAEHPAUtagMSG@@@Z
	DD	FLAT:?OnAmbientProperty@CWnd@@UAEHPAVCOleControlSite@@JPAUtagVARIANT@@@Z
	DD	FLAT:?WindowProc@CWnd@@MAEJIIJ@Z
	DD	FLAT:?OnWndMsg@CWnd@@MAEHIIJPAJ@Z
	DD	FLAT:?DefWindowProcA@CWnd@@MAEJIIJ@Z
	DD	FLAT:?PostNcDestroy@CWnd@@MAEXXZ
	DD	FLAT:?OnChildNotify@CHeaderCtrl@@MAEHIIJPAJ@Z
	DD	FLAT:?CheckAutoCenter@CWnd@@UAEHXZ
	DD	FLAT:?IsFrameWnd@CWnd@@UBEHXZ
	DD	FLAT:?CreateControlContainer@CWnd@@MAEHPAPAVCOleControlContainer@@@Z
	DD	FLAT:?CreateControlSite@CWnd@@MAEHPAVCOleControlContainer@@PAPAVCOleControlSite@@IABU_GUID@@@Z
	DD	FLAT:?SetOccDialogInfo@CWnd@@MAEHPAU_AFX_OCC_DIALOG_INFO@@@Z
	DD	FLAT:?Create@CHeaderCtrl@@UAEHKABUtagRECT@@PAVCWnd@@I@Z
	DD	FLAT:?CreateEx@CHeaderCtrl@@UAEHKKABUtagRECT@@PAVCWnd@@I@Z
	DD	FLAT:?DrawItem@CHeaderCtrl@@UAEXPAUtagDRAWITEMSTRUCT@@@Z
	DD	FLAT:?SubclassWindow@CMyHeaderCtrl@@UAEHPAUHWND__@@@Z
CONST	ENDS
;	COMDAT ??_R4CMyHeaderCtrl@@6B@
rdata$r	SEGMENT
??_R4CMyHeaderCtrl@@6B@ DD 00H				; CMyHeaderCtrl::`RTTI Complete Object Locator'
	DD	00H
	DD	00H
	DD	FLAT:??_R0?AVCMyHeaderCtrl@@@8
	DD	FLAT:??_R3CMyHeaderCtrl@@8
rdata$r	ENDS
;	COMDAT ??_R0?AVCMyHeaderCtrl@@@8
_DATA	SEGMENT
??_R0?AVCMyHeaderCtrl@@@8 DD FLAT:??_7type_info@@6B@	; CMyHeaderCtrl `RTTI Type Descriptor'
	DD	00H
	DB	'.?AVCMyHeaderCtrl@@', 00H
_DATA	ENDS
;	COMDAT ??_R3CMyHeaderCtrl@@8
rdata$r	SEGMENT
??_R3CMyHeaderCtrl@@8 DD 00H				; CMyHeaderCtrl::`RTTI Class Hierarchy Descriptor'
	DD	00H
	DD	05H
	DD	FLAT:??_R2CMyHeaderCtrl@@8
rdata$r	ENDS
;	COMDAT ??_R2CMyHeaderCtrl@@8
rdata$r	SEGMENT
??_R2CMyHeaderCtrl@@8 DD FLAT:??_R1A@?0A@A@CMyHeaderCtrl@@8 ; CMyHeaderCtrl::`RTTI Base Class Array'
	DD	FLAT:??_R1A@?0A@A@CHeaderCtrl@@8
	DD	FLAT:??_R1A@?0A@A@CWnd@@8
	DD	FLAT:??_R1A@?0A@A@CCmdTarget@@8
	DD	FLAT:??_R1A@?0A@A@CObject@@8
rdata$r	ENDS
;	COMDAT ??_R1A@?0A@A@CMyHeaderCtrl@@8
rdata$r	SEGMENT
??_R1A@?0A@A@CMyHeaderCtrl@@8 DD FLAT:??_R0?AVCMyHeaderCtrl@@@8 ; CMyHeaderCtrl::`RTTI Base Class Descriptor at (0,-1,0,0)'
	DD	04H
	DD	00H
	DD	0ffffffffH
	DD	00H
	DD	00H
rdata$r	ENDS
;	COMDAT ??_R1A@?0A@A@CHeaderCtrl@@8
rdata$r	SEGMENT
??_R1A@?0A@A@CHeaderCtrl@@8 DD FLAT:??_R0?AVCHeaderCtrl@@@8 ; CHeaderCtrl::`RTTI Base Class Descriptor at (0,-1,0,0)'
	DD	03H
	DD	00H
	DD	0ffffffffH
	DD	00H
	DD	00H
rdata$r	ENDS
;	COMDAT ??_R0?AVCHeaderCtrl@@@8
_DATA	SEGMENT
??_R0?AVCHeaderCtrl@@@8 DD FLAT:??_7type_info@@6B@	; CHeaderCtrl `RTTI Type Descriptor'
	DD	00H
	DB	'.?AVCHeaderCtrl@@', 00H
_DATA	ENDS
;	COMDAT ??_R1A@?0A@A@CWnd@@8
rdata$r	SEGMENT
??_R1A@?0A@A@CWnd@@8 DD FLAT:??_R0?AVCWnd@@@8		; CWnd::`RTTI Base Class Descriptor at (0,-1,0,0)'
	DD	02H
	DD	00H
	DD	0ffffffffH
	DD	00H
	DD	00H
rdata$r	ENDS
;	COMDAT ??_R0?AVCWnd@@@8
_DATA	SEGMENT
??_R0?AVCWnd@@@8 DD FLAT:??_7type_info@@6B@		; CWnd `RTTI Type Descriptor'
	DD	00H
	DB	'.?AVCWnd@@', 00H
_DATA	ENDS
;	COMDAT ??_R1A@?0A@A@CCmdTarget@@8
rdata$r	SEGMENT
??_R1A@?0A@A@CCmdTarget@@8 DD FLAT:??_R0?AVCCmdTarget@@@8 ; CCmdTarget::`RTTI Base Class Descriptor at (0,-1,0,0)'
	DD	01H
	DD	00H
	DD	0ffffffffH
	DD	00H
	DD	00H
rdata$r	ENDS
;	COMDAT ??_R0?AVCCmdTarget@@@8
_DATA	SEGMENT
??_R0?AVCCmdTarget@@@8 DD FLAT:??_7type_info@@6B@	; CCmdTarget `RTTI Type Descriptor'
	DD	00H
	DB	'.?AVCCmdTarget@@', 00H
_DATA	ENDS
;	COMDAT ??_R1A@?0A@A@CObject@@8
rdata$r	SEGMENT
??_R1A@?0A@A@CObject@@8 DD FLAT:??_R0?AVCObject@@@8	; CObject::`RTTI Base Class Descriptor at (0,-1,0,0)'
	DD	00H
	DD	00H
	DD	0ffffffffH
	DD	00H
	DD	00H
rdata$r	ENDS
;	COMDAT ??_R0?AVCObject@@@8
_DATA	SEGMENT
??_R0?AVCObject@@@8 DD FLAT:??_7type_info@@6B@		; CObject `RTTI Type Descriptor'
	DD	00H
	DB	'.?AVCObject@@', 00H
; Function compile flags: /Odt
_DATA	ENDS
_TEXT	SEGMENT
_this$ = -16						; size = 4
__$EHRec$ = -12						; size = 12
??0CMyHeaderCtrl@@QAE@XZ PROC NEAR			; CMyHeaderCtrl::CMyHeaderCtrl
; _this$ = ecx

; 16   : {	

  00020	55		 push	 ebp
  00021	8b ec		 mov	 ebp, esp
  00023	6a ff		 push	 -1
  00025	68 00 00 00 00	 push	 __ehhandler$??0CMyHeaderCtrl@@QAE@XZ
  0002a	64 a1 00 00 00
	00		 mov	 eax, DWORD PTR fs:__except_list
  00030	50		 push	 eax
  00031	64 89 25 00 00
	00 00		 mov	 DWORD PTR fs:__except_list, esp
  00038	51		 push	 ecx
  00039	89 4d f0	 mov	 DWORD PTR _this$[ebp], ecx
  0003c	8b 4d f0	 mov	 ecx, DWORD PTR _this$[ebp]
  0003f	e8 00 00 00 00	 call	 ??0CHeaderCtrl@@QAE@XZ	; CHeaderCtrl::CHeaderCtrl
  00044	c7 45 fc 00 00
	00 00		 mov	 DWORD PTR __$EHRec$[ebp+8], 0
  0004b	8b 45 f0	 mov	 eax, DWORD PTR _this$[ebp]
  0004e	c7 00 00 00 00
	00		 mov	 DWORD PTR [eax], OFFSET FLAT:??_7CMyHeaderCtrl@@6B@
  00054	8b 4d f0	 mov	 ecx, DWORD PTR _this$[ebp]
  00057	c7 41 54 00 00
	00 00		 mov	 DWORD PTR [ecx+84], 0
  0005e	8b 55 f0	 mov	 edx, DWORD PTR _this$[ebp]
  00061	c7 42 58 00 00
	00 00		 mov	 DWORD PTR [edx+88], 0
  00068	8b 45 f0	 mov	 eax, DWORD PTR _this$[ebp]
  0006b	c7 40 5c 00 00
	00 00		 mov	 DWORD PTR [eax+92], 0
  00072	8b 4d f0	 mov	 ecx, DWORD PTR _this$[ebp]
  00075	c7 41 6c 00 00
	00 00		 mov	 DWORD PTR [ecx+108], 0
  0007c	8b 4d f0	 mov	 ecx, DWORD PTR _this$[ebp]
  0007f	83 c1 78	 add	 ecx, 120		; 00000078H
  00082	e8 00 00 00 00	 call	 ??0CFont@@QAE@XZ	; CFont::CFont

; 17   : 	m_fontColor			= RGB(0x00,0x00,0x00);

  00087	8b 55 f0	 mov	 edx, DWORD PTR _this$[ebp]
  0008a	c7 82 80 00 00
	00 00 00 00 00	 mov	 DWORD PTR [edx+128], 0

; 18   : 	m_bTrackMouse		= false;

  00094	8b 45 f0	 mov	 eax, DWORD PTR _this$[ebp]
  00097	c6 40 74 00	 mov	 BYTE PTR [eax+116], 0

; 19   : 	m_nHoverItem		= -1;

  0009b	8b 4d f0	 mov	 ecx, DWORD PTR _this$[ebp]
  0009e	c7 41 70 ff ff
	ff ff		 mov	 DWORD PTR [ecx+112], -1

; 20   : 	m_bLButtonDown		= false;

  000a5	8b 55 f0	 mov	 edx, DWORD PTR _this$[ebp]
  000a8	c6 42 75 00	 mov	 BYTE PTR [edx+117], 0

; 21   : }

  000ac	c7 45 fc ff ff
	ff ff		 mov	 DWORD PTR __$EHRec$[ebp+8], -1
  000b3	8b 45 f0	 mov	 eax, DWORD PTR _this$[ebp]
  000b6	8b 4d f4	 mov	 ecx, DWORD PTR __$EHRec$[ebp]
  000b9	64 89 0d 00 00
	00 00		 mov	 DWORD PTR fs:__except_list, ecx
  000c0	8b e5		 mov	 esp, ebp
  000c2	5d		 pop	 ebp
  000c3	c3		 ret	 0
_TEXT	ENDS
text$x	SEGMENT
$L199194:
  00000	8b 4d f0	 mov	 ecx, DWORD PTR _this$[ebp]
  00003	e9 00 00 00 00	 jmp	 ??1CHeaderCtrl@@UAE@XZ	; CHeaderCtrl::~CHeaderCtrl
__ehhandler$??0CMyHeaderCtrl@@QAE@XZ:
  00008	b8 00 00 00 00	 mov	 eax, OFFSET FLAT:$T199199
  0000d	e9 00 00 00 00	 jmp	 ___CxxFrameHandler
text$x	ENDS
??0CMyHeaderCtrl@@QAE@XZ ENDP				; CMyHeaderCtrl::CMyHeaderCtrl
PUBLIC	??3CObject@@SGXPAX@Z				; CObject::operator delete
PUBLIC	??1CMyHeaderCtrl@@UAE@XZ			; CMyHeaderCtrl::~CMyHeaderCtrl
; Function compile flags: /Odt
;	COMDAT ??_GCMyHeaderCtrl@@UAEPAXI@Z
_TEXT	SEGMENT
_this$ = -4						; size = 4
___flags$ = 8						; size = 4
??_GCMyHeaderCtrl@@UAEPAXI@Z PROC NEAR			; CMyHeaderCtrl::`scalar deleting destructor', COMDAT
; _this$ = ecx
  00000	55		 push	 ebp
  00001	8b ec		 mov	 ebp, esp
  00003	51		 push	 ecx
  00004	89 4d fc	 mov	 DWORD PTR _this$[ebp], ecx
  00007	8b 4d fc	 mov	 ecx, DWORD PTR _this$[ebp]
  0000a	e8 00 00 00 00	 call	 ??1CMyHeaderCtrl@@UAE@XZ ; CMyHeaderCtrl::~CMyHeaderCtrl
  0000f	8b 45 08	 mov	 eax, DWORD PTR ___flags$[ebp]
  00012	83 e0 01	 and	 eax, 1
  00015	74 09		 je	 SHORT $L198460
  00017	8b 4d fc	 mov	 ecx, DWORD PTR _this$[ebp]
  0001a	51		 push	 ecx
  0001b	e8 00 00 00 00	 call	 ??3CObject@@SGXPAX@Z	; CObject::operator delete
$L198460:
  00020	8b 45 fc	 mov	 eax, DWORD PTR _this$[ebp]
  00023	8b e5		 mov	 esp, ebp
  00025	5d		 pop	 ebp
  00026	c2 04 00	 ret	 4
??_GCMyHeaderCtrl@@UAEPAXI@Z ENDP			; CMyHeaderCtrl::`scalar deleting destructor'
_TEXT	ENDS
PUBLIC	??1CFont@@UAE@XZ				; CFont::~CFont
EXTRN	?DeleteObject@CGdiObject@@QAEHXZ:NEAR		; CGdiObject::DeleteObject
xdata$x	SEGMENT
$T199212 DD	0ffffffffH
	DD	FLAT:$L199207
	DD	00H
	DD	FLAT:$L199208
$T199210 DD	019930520H
	DD	02H
	DD	FLAT:$T199212
	DD	2 DUP(00H)
	DD	2 DUP(00H)
; Function compile flags: /Odt
xdata$x	ENDS
_TEXT	SEGMENT
_this$ = -16						; size = 4
__$EHRec$ = -12						; size = 12
??1CMyHeaderCtrl@@UAE@XZ PROC NEAR			; CMyHeaderCtrl::~CMyHeaderCtrl
; _this$ = ecx

; 24   : {

  000d0	55		 push	 ebp
  000d1	8b ec		 mov	 ebp, esp
  000d3	6a ff		 push	 -1
  000d5	68 00 00 00 00	 push	 __ehhandler$??1CMyHeaderCtrl@@UAE@XZ
  000da	64 a1 00 00 00
	00		 mov	 eax, DWORD PTR fs:__except_list
  000e0	50		 push	 eax
  000e1	64 89 25 00 00
	00 00		 mov	 DWORD PTR fs:__except_list, esp
  000e8	51		 push	 ecx
  000e9	89 4d f0	 mov	 DWORD PTR _this$[ebp], ecx
  000ec	8b 45 f0	 mov	 eax, DWORD PTR _this$[ebp]
  000ef	c7 00 00 00 00
	00		 mov	 DWORD PTR [eax], OFFSET FLAT:??_7CMyHeaderCtrl@@6B@
  000f5	c7 45 fc 01 00
	00 00		 mov	 DWORD PTR __$EHRec$[ebp+8], 1

; 25   : 	if( m_fHeaderFont.m_hObject != NULL )

  000fc	8b 4d f0	 mov	 ecx, DWORD PTR _this$[ebp]
  000ff	83 79 7c 00	 cmp	 DWORD PTR [ecx+124], 0
  00103	74 0b		 je	 SHORT $L198463

; 26   : 	{
; 27   : 		m_fHeaderFont.DeleteObject();

  00105	8b 4d f0	 mov	 ecx, DWORD PTR _this$[ebp]
  00108	83 c1 78	 add	 ecx, 120		; 00000078H
  0010b	e8 00 00 00 00	 call	 ?DeleteObject@CGdiObject@@QAEHXZ ; CGdiObject::DeleteObject
$L198463:

; 28   : 	}
; 29   : }

  00110	c6 45 fc 00	 mov	 BYTE PTR __$EHRec$[ebp+8], 0
  00114	8b 4d f0	 mov	 ecx, DWORD PTR _this$[ebp]
  00117	83 c1 78	 add	 ecx, 120		; 00000078H
  0011a	e8 00 00 00 00	 call	 ??1CFont@@UAE@XZ	; CFont::~CFont
  0011f	c7 45 fc ff ff
	ff ff		 mov	 DWORD PTR __$EHRec$[ebp+8], -1
  00126	8b 4d f0	 mov	 ecx, DWORD PTR _this$[ebp]
  00129	e8 00 00 00 00	 call	 ??1CHeaderCtrl@@UAE@XZ	; CHeaderCtrl::~CHeaderCtrl
  0012e	8b 4d f4	 mov	 ecx, DWORD PTR __$EHRec$[ebp]
  00131	64 89 0d 00 00
	00 00		 mov	 DWORD PTR fs:__except_list, ecx
  00138	8b e5		 mov	 esp, ebp
  0013a	5d		 pop	 ebp
  0013b	c3		 ret	 0
_TEXT	ENDS
text$x	SEGMENT
$L199207:
  00012	8b 4d f0	 mov	 ecx, DWORD PTR _this$[ebp]
  00015	e9 00 00 00 00	 jmp	 ??1CHeaderCtrl@@UAE@XZ	; CHeaderCtrl::~CHeaderCtrl
$L199208:
  0001a	8b 4d f0	 mov	 ecx, DWORD PTR _this$[ebp]
  0001d	83 c1 78	 add	 ecx, 120		; 00000078H
  00020	e9 00 00 00 00	 jmp	 ??1CFont@@UAE@XZ	; CFont::~CFont
__ehhandler$??1CMyHeaderCtrl@@UAE@XZ:
  00025	b8 00 00 00 00	 mov	 eax, OFFSET FLAT:$T199210
  0002a	e9 00 00 00 00	 jmp	 ___CxxFrameHandler
text$x	ENDS
??1CMyHeaderCtrl@@UAE@XZ ENDP				; CMyHeaderCtrl::~CMyHeaderCtrl
PUBLIC	?GetThisMessageMap@CMyHeaderCtrl@@KGPBUAFX_MSGMAP@@XZ ; CMyHeaderCtrl::GetThisMessageMap
; Function compile flags: /Odt
_TEXT	SEGMENT
?GetThisMessageMap@CMyHeaderCtrl@@KGPBUAFX_MSGMAP@@XZ PROC NEAR ; CMyHeaderCtrl::GetThisMessageMap

; 32   : BEGIN_MESSAGE_MAP(CMyHeaderCtrl, CHeaderCtrl)

  00140	55		 push	 ebp
  00141	8b ec		 mov	 ebp, esp
  00143	b8 00 00 00 00	 mov	 eax, OFFSET FLAT:?messageMap@CMyHeaderCtrl@@1UAFX_MSGMAP@@B ; CMyHeaderCtrl::messageMap
  00148	5d		 pop	 ebp
  00149	c3		 ret	 0
?GetThisMessageMap@CMyHeaderCtrl@@KGPBUAFX_MSGMAP@@XZ ENDP ; CMyHeaderCtrl::GetThisMessageMap
; Function compile flags: /Odt
_this$ = -4						; size = 4
?GetMessageMap@CMyHeaderCtrl@@MBEPBUAFX_MSGMAP@@XZ PROC NEAR ; CMyHeaderCtrl::GetMessageMap
; _this$ = ecx

; 32   : BEGIN_MESSAGE_MAP(CMyHeaderCtrl, CHeaderCtrl)

  00150	55		 push	 ebp
  00151	8b ec		 mov	 ebp, esp
  00153	51		 push	 ecx
  00154	89 4d fc	 mov	 DWORD PTR _this$[ebp], ecx
  00157	b8 00 00 00 00	 mov	 eax, OFFSET FLAT:?messageMap@CMyHeaderCtrl@@1UAFX_MSGMAP@@B ; CMyHeaderCtrl::messageMap
  0015c	8b e5		 mov	 esp, ebp
  0015e	5d		 pop	 ebp
  0015f	c3		 ret	 0
?GetMessageMap@CMyHeaderCtrl@@MBEPBUAFX_MSGMAP@@XZ ENDP	; CMyHeaderCtrl::GetMessageMap
_TEXT	ENDS
PUBLIC	?OnCreate@CWnd@@IAEHPAUtagCREATESTRUCTA@@@Z	; CWnd::OnCreate
PUBLIC	?CreateFontA@CFont@@QAEHHHHHHEEEEEEEEPBD@Z	; CFont::CreateFontA
PUBLIC	?SetFont@CWnd@@QAEXPAVCFont@@H@Z		; CWnd::SetFont
; Function compile flags: /Odt
_TEXT	SEGMENT
_this$ = -4						; size = 4
_lpCreateStruct$ = 8					; size = 4
?OnCreate@CMyHeaderCtrl@@QAEHPAUtagCREATESTRUCTA@@@Z PROC NEAR ; CMyHeaderCtrl::OnCreate
; _this$ = ecx

; 44   : {

  00160	55		 push	 ebp
  00161	8b ec		 mov	 ebp, esp
  00163	51		 push	 ecx
  00164	89 4d fc	 mov	 DWORD PTR _this$[ebp], ecx

; 45   : 	if( m_fHeaderFont.m_hObject != NULL )

  00167	8b 45 fc	 mov	 eax, DWORD PTR _this$[ebp]
  0016a	83 78 7c 00	 cmp	 DWORD PTR [eax+124], 0
  0016e	74 3e		 je	 SHORT $L198512

; 46   : 	{
; 47   : 		m_fHeaderFont.CreateFont(
; 48   : 		14,                        // nHeight
; 49   : 		0,                         // nWidth
; 50   : 		0,                         // nEscapement
; 51   : 		0,                         // nOrientation
; 52   : 		FW_NORMAL,                 // nWeight
; 53   : 		FALSE,                     // bItalic
; 54   : 		FALSE,                     // bUnderline
; 55   : 		0,                         // cStrikeOut
; 56   : 		ANSI_CHARSET,              // nCharSet
; 57   : 		OUT_DEFAULT_PRECIS,        // nOutPrecision
; 58   : 		CLIP_DEFAULT_PRECIS,       // nClipPrecision
; 59   : 		DEFAULT_QUALITY,           // nQuality
; 60   : 		DEFAULT_PITCH | FF_SWISS,  // nPitchAndFamily
; 61   : 		"ו");                 // lpszFacename

  00170	68 00 00 00 00	 push	 OFFSET FLAT:$SG198513
  00175	6a 20		 push	 32			; 00000020H
  00177	6a 00		 push	 0
  00179	6a 00		 push	 0
  0017b	6a 00		 push	 0
  0017d	6a 00		 push	 0
  0017f	6a 00		 push	 0
  00181	6a 00		 push	 0
  00183	6a 00		 push	 0
  00185	68 90 01 00 00	 push	 400			; 00000190H
  0018a	6a 00		 push	 0
  0018c	6a 00		 push	 0
  0018e	6a 00		 push	 0
  00190	6a 0e		 push	 14			; 0000000eH
  00192	8b 4d fc	 mov	 ecx, DWORD PTR _this$[ebp]
  00195	83 c1 78	 add	 ecx, 120		; 00000078H
  00198	e8 00 00 00 00	 call	 ?CreateFontA@CFont@@QAEHHHHHHEEEEEEEEPBD@Z ; CFont::CreateFontA

; 62   : 	//A BIGGER FONT MAKES THE CONTROL BIGGER
; 63   : 		SetFont(&m_fHeaderFont);

  0019d	6a 01		 push	 1
  0019f	8b 4d fc	 mov	 ecx, DWORD PTR _this$[ebp]
  001a2	83 c1 78	 add	 ecx, 120		; 00000078H
  001a5	51		 push	 ecx
  001a6	8b 4d fc	 mov	 ecx, DWORD PTR _this$[ebp]
  001a9	e8 00 00 00 00	 call	 ?SetFont@CWnd@@QAEXPAVCFont@@H@Z ; CWnd::SetFont
$L198512:

; 64   : 	}
; 65   : 
; 66   : 	return CHeaderCtrl::OnCreate( lpCreateStruct );

  001ae	8b 55 08	 mov	 edx, DWORD PTR _lpCreateStruct$[ebp]
  001b1	52		 push	 edx
  001b2	8b 4d fc	 mov	 ecx, DWORD PTR _this$[ebp]
  001b5	e8 00 00 00 00	 call	 ?OnCreate@CWnd@@IAEHPAUtagCREATESTRUCTA@@@Z ; CWnd::OnCreate

; 67   : }

  001ba	8b e5		 mov	 esp, ebp
  001bc	5d		 pop	 ebp
  001bd	c2 04 00	 ret	 4
?OnCreate@CMyHeaderCtrl@@QAEHPAUtagCREATESTRUCTA@@@Z ENDP ; CMyHeaderCtrl::OnCreate
_TEXT	ENDS
PUBLIC	?SetHeaderColor@CMyHeaderCtrl@@QAEXK@Z		; CMyHeaderCtrl::SetHeaderColor
; Function compile flags: /Odt
_TEXT	SEGMENT
_this$ = -4						; size = 4
_colorfont$ = 8						; size = 4
?SetHeaderColor@CMyHeaderCtrl@@QAEXK@Z PROC NEAR	; CMyHeaderCtrl::SetHeaderColor
; _this$ = ecx

; 70   : {

  001c0	55		 push	 ebp
  001c1	8b ec		 mov	 ebp, esp
  001c3	51		 push	 ecx
  001c4	89 4d fc	 mov	 DWORD PTR _this$[ebp], ecx

; 71   : 	m_fontColor = colorfont;

  001c7	8b 45 fc	 mov	 eax, DWORD PTR _this$[ebp]
  001ca	8b 4d 08	 mov	 ecx, DWORD PTR _colorfont$[ebp]
  001cd	89 88 80 00 00
	00		 mov	 DWORD PTR [eax+128], ecx

; 72   : }

  001d3	8b e5		 mov	 esp, ebp
  001d5	5d		 pop	 ebp
  001d6	c2 04 00	 ret	 4
?SetHeaderColor@CMyHeaderCtrl@@QAEXK@Z ENDP		; CMyHeaderCtrl::SetHeaderColor
_TEXT	ENDS
PUBLIC	?Invalidate@CWnd@@QAEXH@Z			; CWnd::Invalidate
PUBLIC	??0CPoint@@QAE@HH@Z				; CPoint::CPoint
PUBLIC	??8CPoint@@QBEHUtagPOINT@@@Z			; CPoint::operator==
PUBLIC	??0CRect@@QAE@XZ				; CRect::CRect
PUBLIC	?PtInRect@CRect@@QBEHUtagPOINT@@@Z		; CRect::PtInRect
PUBLIC	?GetItemCount@CHeaderCtrl@@QBEHXZ		; CHeaderCtrl::GetItemCount
PUBLIC	?GetItemRect@CHeaderCtrl@@QBEHHPAUtagRECT@@@Z	; CHeaderCtrl::GetItemRect
PUBLIC	?OnMouseMove@CWnd@@IAEXIVCPoint@@@Z		; CWnd::OnMouseMove
EXTRN	__imp___TrackMouseEvent@4:NEAR
;	COMDAT ?s_pt@?1??OnMouseMove@CMyHeaderCtrl@@QAEXIVCPoint@@@Z@4V3@A
_BSS	SEGMENT
?s_pt@?1??OnMouseMove@CMyHeaderCtrl@@QAEXIVCPoint@@@Z@4V3@A DQ 01H DUP (?) ; `CMyHeaderCtrl::OnMouseMove'::`2'::s_pt
_BSS	ENDS
;	COMDAT ?$S5@?1??OnMouseMove@CMyHeaderCtrl@@QAEXIVCPoint@@@Z@4IA
_BSS	SEGMENT
?$S5@?1??OnMouseMove@CMyHeaderCtrl@@QAEXIVCPoint@@@Z@4IA DD 01H DUP (?) ; `CMyHeaderCtrl::OnMouseMove'::`2'::$S5
; Function compile flags: /Odt
_BSS	ENDS
_TEXT	SEGMENT
_this$ = -60						; size = 4
$T199219 = -56						; size = 8
$T199218 = -48						; size = 8
_i$198534 = -40						; size = 4
_tme$198531 = -36					; size = 16
_nItems$ = -20						; size = 4
_rect$ = -16						; size = 16
_nFlags$ = 8						; size = 4
_point$ = 12						; size = 8
?OnMouseMove@CMyHeaderCtrl@@QAEXIVCPoint@@@Z PROC NEAR	; CMyHeaderCtrl::OnMouseMove
; _this$ = ecx

; 75   : {

  001e0	55		 push	 ebp
  001e1	8b ec		 mov	 ebp, esp
  001e3	83 ec 3c	 sub	 esp, 60			; 0000003cH
  001e6	89 4d c4	 mov	 DWORD PTR _this$[ebp], ecx

; 76   : 	static CPoint s_pt(0,0);

  001e9	a1 00 00 00 00	 mov	 eax, DWORD PTR ?$S5@?1??OnMouseMove@CMyHeaderCtrl@@QAEXIVCPoint@@@Z@4IA
  001ee	83 e0 01	 and	 eax, 1
  001f1	75 1d		 jne	 SHORT $L198527
  001f3	8b 0d 00 00 00
	00		 mov	 ecx, DWORD PTR ?$S5@?1??OnMouseMove@CMyHeaderCtrl@@QAEXIVCPoint@@@Z@4IA
  001f9	83 c9 01	 or	 ecx, 1
  001fc	89 0d 00 00 00
	00		 mov	 DWORD PTR ?$S5@?1??OnMouseMove@CMyHeaderCtrl@@QAEXIVCPoint@@@Z@4IA, ecx
  00202	6a 00		 push	 0
  00204	6a 00		 push	 0
  00206	b9 00 00 00 00	 mov	 ecx, OFFSET FLAT:?s_pt@?1??OnMouseMove@CMyHeaderCtrl@@QAEXIVCPoint@@@Z@4V3@A
  0020b	e8 00 00 00 00	 call	 ??0CPoint@@QAE@HH@Z	; CPoint::CPoint
$L198527:

; 77   : 
; 78   : 	if( s_pt == point )

  00210	8b 55 0c	 mov	 edx, DWORD PTR _point$[ebp]
  00213	89 55 d0	 mov	 DWORD PTR $T199218[ebp], edx
  00216	8b 45 10	 mov	 eax, DWORD PTR _point$[ebp+4]
  00219	89 45 d4	 mov	 DWORD PTR $T199218[ebp+4], eax
  0021c	8b 4d d4	 mov	 ecx, DWORD PTR $T199218[ebp+4]
  0021f	51		 push	 ecx
  00220	8b 55 d0	 mov	 edx, DWORD PTR $T199218[ebp]
  00223	52		 push	 edx
  00224	b9 00 00 00 00	 mov	 ecx, OFFSET FLAT:?s_pt@?1??OnMouseMove@CMyHeaderCtrl@@QAEXIVCPoint@@@Z@4V3@A
  00229	e8 00 00 00 00	 call	 ??8CPoint@@QBEHUtagPOINT@@@Z ; CPoint::operator==
  0022e	85 c0		 test	 eax, eax
  00230	74 19		 je	 SHORT $L198529

; 79   : 	{
; 80   : 		return __super::OnMouseMove(nFlags,point);

  00232	8b 45 10	 mov	 eax, DWORD PTR _point$[ebp+4]
  00235	50		 push	 eax
  00236	8b 4d 0c	 mov	 ecx, DWORD PTR _point$[ebp]
  00239	51		 push	 ecx
  0023a	8b 55 08	 mov	 edx, DWORD PTR _nFlags$[ebp]
  0023d	52		 push	 edx
  0023e	8b 4d c4	 mov	 ecx, DWORD PTR _this$[ebp]
  00241	e8 00 00 00 00	 call	 ?OnMouseMove@CWnd@@IAEXIVCPoint@@@Z ; CWnd::OnMouseMove
  00246	e9 d7 00 00 00	 jmp	 $L198522
$L198529:

; 81   : 	}
; 82   : 	s_pt = point;

  0024b	8b 45 0c	 mov	 eax, DWORD PTR _point$[ebp]
  0024e	a3 00 00 00 00	 mov	 DWORD PTR ?s_pt@?1??OnMouseMove@CMyHeaderCtrl@@QAEXIVCPoint@@@Z@4V3@A, eax
  00253	8b 4d 10	 mov	 ecx, DWORD PTR _point$[ebp+4]
  00256	89 0d 04 00 00
	00		 mov	 DWORD PTR ?s_pt@?1??OnMouseMove@CMyHeaderCtrl@@QAEXIVCPoint@@@Z@4V3@A+4, ecx

; 83   : 
; 84   : 	if (!m_bTrackMouse)

  0025c	8b 55 c4	 mov	 edx, DWORD PTR _this$[ebp]
  0025f	0f b6 42 74	 movzx	 eax, BYTE PTR [edx+116]
  00263	85 c0		 test	 eax, eax
  00265	75 28		 jne	 SHORT $L198530

; 85   : 	{
; 86   : 		TRACKMOUSEEVENT tme;
; 87   : 		tme.cbSize = sizeof(tme);

  00267	c7 45 dc 10 00
	00 00		 mov	 DWORD PTR _tme$198531[ebp], 16 ; 00000010H

; 88   : 		tme.hwndTrack = m_hWnd;

  0026e	8b 4d c4	 mov	 ecx, DWORD PTR _this$[ebp]
  00271	8b 51 20	 mov	 edx, DWORD PTR [ecx+32]
  00274	89 55 e4	 mov	 DWORD PTR _tme$198531[ebp+8], edx

; 89   : 		tme.dwFlags = TME_LEAVE;

  00277	c7 45 e0 02 00
	00 00		 mov	 DWORD PTR _tme$198531[ebp+4], 2

; 90   : 		_TrackMouseEvent(&tme);

  0027e	8d 45 dc	 lea	 eax, DWORD PTR _tme$198531[ebp]
  00281	50		 push	 eax
  00282	ff 15 00 00 00
	00		 call	 DWORD PTR __imp___TrackMouseEvent@4

; 91   : 		m_bTrackMouse = TRUE;

  00288	8b 4d c4	 mov	 ecx, DWORD PTR _this$[ebp]
  0028b	c6 41 74 01	 mov	 BYTE PTR [ecx+116], 1
$L198530:

; 92   : 	}
; 93   : 
; 94   : 	int nItems = GetItemCount();

  0028f	8b 4d c4	 mov	 ecx, DWORD PTR _this$[ebp]
  00292	e8 00 00 00 00	 call	 ?GetItemCount@CHeaderCtrl@@QBEHXZ ; CHeaderCtrl::GetItemCount
  00297	89 45 ec	 mov	 DWORD PTR _nItems$[ebp], eax

; 95   : 	CRect rect;

  0029a	8d 4d f0	 lea	 ecx, DWORD PTR _rect$[ebp]
  0029d	e8 00 00 00 00	 call	 ??0CRect@@QAE@XZ	; CRect::CRect

; 96   : 	for(int i = 0; i <nItems; i++)

  002a2	c7 45 d8 00 00
	00 00		 mov	 DWORD PTR _i$198534[ebp], 0
  002a9	eb 09		 jmp	 SHORT $L198535
$L198536:
  002ab	8b 55 d8	 mov	 edx, DWORD PTR _i$198534[ebp]
  002ae	83 c2 01	 add	 edx, 1
  002b1	89 55 d8	 mov	 DWORD PTR _i$198534[ebp], edx
$L198535:
  002b4	8b 45 d8	 mov	 eax, DWORD PTR _i$198534[ebp]
  002b7	3b 45 ec	 cmp	 eax, DWORD PTR _nItems$[ebp]
  002ba	7d 52		 jge	 SHORT $L198537

; 97   : 	{
; 98   : 		GetItemRect(i, &rect);

  002bc	8d 4d f0	 lea	 ecx, DWORD PTR _rect$[ebp]
  002bf	51		 push	 ecx
  002c0	8b 55 d8	 mov	 edx, DWORD PTR _i$198534[ebp]
  002c3	52		 push	 edx
  002c4	8b 4d c4	 mov	 ecx, DWORD PTR _this$[ebp]
  002c7	e8 00 00 00 00	 call	 ?GetItemRect@CHeaderCtrl@@QBEHHPAUtagRECT@@@Z ; CHeaderCtrl::GetItemRect

; 99   : 		if(rect.PtInRect(point))

  002cc	8b 45 0c	 mov	 eax, DWORD PTR _point$[ebp]
  002cf	89 45 c8	 mov	 DWORD PTR $T199219[ebp], eax
  002d2	8b 4d 10	 mov	 ecx, DWORD PTR _point$[ebp+4]
  002d5	89 4d cc	 mov	 DWORD PTR $T199219[ebp+4], ecx
  002d8	8b 55 cc	 mov	 edx, DWORD PTR $T199219[ebp+4]
  002db	52		 push	 edx
  002dc	8b 45 c8	 mov	 eax, DWORD PTR $T199219[ebp]
  002df	50		 push	 eax
  002e0	8d 4d f0	 lea	 ecx, DWORD PTR _rect$[ebp]
  002e3	e8 00 00 00 00	 call	 ?PtInRect@CRect@@QBEHUtagPOINT@@@Z ; CRect::PtInRect
  002e8	85 c0		 test	 eax, eax
  002ea	74 20		 je	 SHORT $L198539

; 100  : 		{
; 101  : 			if(i != m_nHoverItem)

  002ec	8b 4d c4	 mov	 ecx, DWORD PTR _this$[ebp]
  002ef	8b 55 d8	 mov	 edx, DWORD PTR _i$198534[ebp]
  002f2	3b 51 70	 cmp	 edx, DWORD PTR [ecx+112]
  002f5	74 15		 je	 SHORT $L198539

; 102  : 			{	
; 103  : 				 m_nHoverItem = i;

  002f7	8b 45 c4	 mov	 eax, DWORD PTR _this$[ebp]
  002fa	8b 4d d8	 mov	 ecx, DWORD PTR _i$198534[ebp]
  002fd	89 48 70	 mov	 DWORD PTR [eax+112], ecx

; 104  : 				 Invalidate();

  00300	6a 01		 push	 1
  00302	8b 4d c4	 mov	 ecx, DWORD PTR _this$[ebp]
  00305	e8 00 00 00 00	 call	 ?Invalidate@CWnd@@QAEXH@Z ; CWnd::Invalidate

; 105  : 				 break;

  0030a	eb 02		 jmp	 SHORT $L198537
$L198539:

; 106  : 			}
; 107  : 		}
; 108  : 	}

  0030c	eb 9d		 jmp	 SHORT $L198536
$L198537:

; 109  : 
; 110  : 	__super::OnMouseMove(nFlags, point);

  0030e	8b 55 10	 mov	 edx, DWORD PTR _point$[ebp+4]
  00311	52		 push	 edx
  00312	8b 45 0c	 mov	 eax, DWORD PTR _point$[ebp]
  00315	50		 push	 eax
  00316	8b 4d 08	 mov	 ecx, DWORD PTR _nFlags$[ebp]
  00319	51		 push	 ecx
  0031a	8b 4d c4	 mov	 ecx, DWORD PTR _this$[ebp]
  0031d	e8 00 00 00 00	 call	 ?OnMouseMove@CWnd@@IAEXIVCPoint@@@Z ; CWnd::OnMouseMove
$L198522:

; 111  : }

  00322	8b e5		 mov	 esp, ebp
  00324	5d		 pop	 ebp
  00325	c2 0c 00	 ret	 12			; 0000000cH
?OnMouseMove@CMyHeaderCtrl@@QAEXIVCPoint@@@Z ENDP	; CMyHeaderCtrl::OnMouseMove
_TEXT	ENDS
EXTRN	?SubclassWindow@CWnd@@QAEHPAUHWND__@@@Z:NEAR	; CWnd::SubclassWindow
; Function compile flags: /Odt
_TEXT	SEGMENT
_this$ = -4						; size = 4
_hwnd$ = 8						; size = 4
?SubclassWindow@CMyHeaderCtrl@@UAEHPAUHWND__@@@Z PROC NEAR ; CMyHeaderCtrl::SubclassWindow
; _this$ = ecx

; 113  : {

  00330	55		 push	 ebp
  00331	8b ec		 mov	 ebp, esp
  00333	51		 push	 ecx
  00334	89 4d fc	 mov	 DWORD PTR _this$[ebp], ecx

; 114  : 	//m_imgList.Add(&(theApp.skin.m_bListBtnListen),RGB(0,0,0));
; 115  : 	//m_imgList.Add(&(theApp.skin.m_bListBtnDownload),RGB(0,0,0));
; 116  : 
; 117  : 	CHeaderCtrl::SubclassWindow(hwnd);

  00337	8b 45 08	 mov	 eax, DWORD PTR _hwnd$[ebp]
  0033a	50		 push	 eax
  0033b	8b 4d fc	 mov	 ecx, DWORD PTR _this$[ebp]
  0033e	e8 00 00 00 00	 call	 ?SubclassWindow@CWnd@@QAEHPAUHWND__@@@Z ; CWnd::SubclassWindow

; 118  : 	m_fHeaderFont.CreateFont(
; 119  : 			14,                        // nHeight
; 120  : 			0,                         // nWidth
; 121  : 			0,                         // nEscapement
; 122  : 			0,                         // nOrientation
; 123  : 			FW_NORMAL,                 // nWeight
; 124  : 			FALSE,                     // bItalic
; 125  : 			FALSE,                     // bUnderline
; 126  : 			0,                         // cStrikeOut
; 127  : 			ANSI_CHARSET,              // nCharSet
; 128  : 			OUT_DEFAULT_PRECIS,        // nOutPrecision
; 129  : 			CLIP_DEFAULT_PRECIS,       // nClipPrecision
; 130  : 			DEFAULT_QUALITY,           // nQuality
; 131  : 			DEFAULT_PITCH | FF_SWISS,  // nPitchAndFamily
; 132  : 			"ו");                 // lpszFacename

  00343	68 00 00 00 00	 push	 OFFSET FLAT:$SG198545
  00348	6a 20		 push	 32			; 00000020H
  0034a	6a 00		 push	 0
  0034c	6a 00		 push	 0
  0034e	6a 00		 push	 0
  00350	6a 00		 push	 0
  00352	6a 00		 push	 0
  00354	6a 00		 push	 0
  00356	6a 00		 push	 0
  00358	68 90 01 00 00	 push	 400			; 00000190H
  0035d	6a 00		 push	 0
  0035f	6a 00		 push	 0
  00361	6a 00		 push	 0
  00363	6a 0e		 push	 14			; 0000000eH
  00365	8b 4d fc	 mov	 ecx, DWORD PTR _this$[ebp]
  00368	83 c1 78	 add	 ecx, 120		; 00000078H
  0036b	e8 00 00 00 00	 call	 ?CreateFontA@CFont@@QAEHHHHHHEEEEEEEEPBD@Z ; CFont::CreateFontA

; 133  : 		//A BIGGER FONT MAKES THE CONTROL BIGGER
; 134  : 		SetFont(&m_fHeaderFont);

  00370	6a 01		 push	 1
  00372	8b 4d fc	 mov	 ecx, DWORD PTR _this$[ebp]
  00375	83 c1 78	 add	 ecx, 120		; 00000078H
  00378	51		 push	 ecx
  00379	8b 4d fc	 mov	 ecx, DWORD PTR _this$[ebp]
  0037c	e8 00 00 00 00	 call	 ?SetFont@CWnd@@QAEXPAVCFont@@H@Z ; CWnd::SetFont

; 135  : 		return TRUE;

  00381	b8 01 00 00 00	 mov	 eax, 1

; 136  : }

  00386	8b e5		 mov	 esp, ebp
  00388	5d		 pop	 ebp
  00389	c2 04 00	 ret	 4
?SubclassWindow@CMyHeaderCtrl@@UAEHPAUHWND__@@@Z ENDP	; CMyHeaderCtrl::SubclassWindow
_TEXT	ENDS
PUBLIC	?SetBitmap@CMyHeaderCtrl@@QAEXPAVCDibBitmap@@000@Z ; CMyHeaderCtrl::SetBitmap
EXTRN	?AfxGetUIManager@@YAPAVIUIManager@@XZ:NEAR	; AfxGetUIManager
; Function compile flags: /Odt
_TEXT	SEGMENT
tv70 = -12						; size = 4
_this$ = -8						; size = 4
_pSkinMgr$ = -4						; size = 4
_pBk$ = 8						; size = 4
_pMidLine$ = 12						; size = 4
_pAsc$ = 16						; size = 4
_pDesc$ = 20						; size = 4
?SetBitmap@CMyHeaderCtrl@@QAEXPAVCDibBitmap@@000@Z PROC NEAR ; CMyHeaderCtrl::SetBitmap
; _this$ = ecx

; 139  : {

  00390	55		 push	 ebp
  00391	8b ec		 mov	 ebp, esp
  00393	83 ec 0c	 sub	 esp, 12			; 0000000cH
  00396	89 4d f8	 mov	 DWORD PTR _this$[ebp], ecx

; 140  : 	m_pBitmapBk			= pBk;

  00399	8b 45 f8	 mov	 eax, DWORD PTR _this$[ebp]
  0039c	8b 4d 08	 mov	 ecx, DWORD PTR _pBk$[ebp]
  0039f	89 48 54	 mov	 DWORD PTR [eax+84], ecx

; 141  : 	m_pBitmapAsc		= pAsc;

  003a2	8b 55 f8	 mov	 edx, DWORD PTR _this$[ebp]
  003a5	8b 45 10	 mov	 eax, DWORD PTR _pAsc$[ebp]
  003a8	89 42 5c	 mov	 DWORD PTR [edx+92], eax

; 142  : 	m_pBitmapDesc		= pDesc;

  003ab	8b 4d f8	 mov	 ecx, DWORD PTR _this$[ebp]
  003ae	8b 55 14	 mov	 edx, DWORD PTR _pDesc$[ebp]
  003b1	89 51 6c	 mov	 DWORD PTR [ecx+108], edx

; 143  : 	m_pBitmapMidLine	= pMidLine;

  003b4	8b 45 f8	 mov	 eax, DWORD PTR _this$[ebp]
  003b7	8b 4d 0c	 mov	 ecx, DWORD PTR _pMidLine$[ebp]
  003ba	89 48 58	 mov	 DWORD PTR [eax+88], ecx

; 144  : 	ISkinMgr* pSkinMgr	= AfxGetUIManager()->UIGetSkinMgr();

  003bd	e8 00 00 00 00	 call	 ?AfxGetUIManager@@YAPAVIUIManager@@XZ ; AfxGetUIManager
  003c2	89 45 f4	 mov	 DWORD PTR tv70[ebp], eax
  003c5	8b 55 f4	 mov	 edx, DWORD PTR tv70[ebp]
  003c8	8b 02		 mov	 eax, DWORD PTR [edx]
  003ca	8b 4d f4	 mov	 ecx, DWORD PTR tv70[ebp]
  003cd	ff 50 28	 call	 DWORD PTR [eax+40]
  003d0	89 45 fc	 mov	 DWORD PTR _pSkinMgr$[ebp], eax

; 145  : 	m_pBitmapBkOver		= pSkinMgr->GetDibBmp("ListHeaderBK");//Over");

  003d3	68 00 00 00 00	 push	 OFFSET FLAT:$SG198554
  003d8	8b 4d fc	 mov	 ecx, DWORD PTR _pSkinMgr$[ebp]
  003db	8b 11		 mov	 edx, DWORD PTR [ecx]
  003dd	8b 4d fc	 mov	 ecx, DWORD PTR _pSkinMgr$[ebp]
  003e0	ff 52 04	 call	 DWORD PTR [edx+4]
  003e3	8b 4d f8	 mov	 ecx, DWORD PTR _this$[ebp]
  003e6	89 41 60	 mov	 DWORD PTR [ecx+96], eax

; 146  : 	m_pBitmapMidLineOver= pSkinMgr->GetDibBmp("ListHeaderMidLine");//Over");

  003e9	68 00 00 00 00	 push	 OFFSET FLAT:$SG198555
  003ee	8b 55 fc	 mov	 edx, DWORD PTR _pSkinMgr$[ebp]
  003f1	8b 02		 mov	 eax, DWORD PTR [edx]
  003f3	8b 4d fc	 mov	 ecx, DWORD PTR _pSkinMgr$[ebp]
  003f6	ff 50 04	 call	 DWORD PTR [eax+4]
  003f9	8b 4d f8	 mov	 ecx, DWORD PTR _this$[ebp]
  003fc	89 41 64	 mov	 DWORD PTR [ecx+100], eax

; 147  : 	m_pBitmapBkDown		= pSkinMgr->GetDibBmp("ListHeaderBK");//Down");

  003ff	68 00 00 00 00	 push	 OFFSET FLAT:$SG198556
  00404	8b 55 fc	 mov	 edx, DWORD PTR _pSkinMgr$[ebp]
  00407	8b 02		 mov	 eax, DWORD PTR [edx]
  00409	8b 4d fc	 mov	 ecx, DWORD PTR _pSkinMgr$[ebp]
  0040c	ff 50 04	 call	 DWORD PTR [eax+4]
  0040f	8b 4d f8	 mov	 ecx, DWORD PTR _this$[ebp]
  00412	89 41 68	 mov	 DWORD PTR [ecx+104], eax

; 148  : }

  00415	8b e5		 mov	 esp, ebp
  00417	5d		 pop	 ebp
  00418	c2 10 00	 ret	 16			; 00000010H
?SetBitmap@CMyHeaderCtrl@@QAEXPAVCDibBitmap@@000@Z ENDP	; CMyHeaderCtrl::SetBitmap
_TEXT	ENDS
PUBLIC	?GetClientRect@CWnd@@QBEXPAUtagRECT@@@Z		; CWnd::GetClientRect
PUBLIC	??0CSize@@QAE@XZ				; CSize::CSize
PUBLIC	?CreateCompatibleDC@CDC@@QAEHPAV1@@Z		; CDC::CreateCompatibleDC
PUBLIC	??0CPoint@@QAE@XZ				; CPoint::CPoint
PUBLIC	?SelectObject@CDC@@QAEPAVCBitmap@@PAV2@@Z	; CDC::SelectObject
PUBLIC	??0CRect@@QAE@HHHH@Z				; CRect::CRect
PUBLIC	??0CRect@@QAE@UtagPOINT@@UtagSIZE@@@Z		; CRect::CRect
PUBLIC	?Width@CRect@@QBEHXZ				; CRect::Width
PUBLIC	?Height@CRect@@QBEHXZ				; CRect::Height
PUBLIC	?TopLeft@CRect@@QAEAAVCPoint@@XZ		; CRect::TopLeft
PUBLIC	?BottomRight@CRect@@QAEAAVCPoint@@XZ		; CRect::BottomRight
PUBLIC	?CenterPoint@CRect@@QBE?AVCPoint@@XZ		; CRect::CenterPoint
PUBLIC	?DeflateRect@CRect@@QAEXHHHH@Z			; CRect::DeflateRect
PUBLIC	?BitBlt@CDC@@QAEHHHHHPAV1@HHK@Z			; CDC::BitBlt
PUBLIC	?DrawTextA@CDC@@QAEHABV?$CStringT@DV?$StrTraitMFC_DLL@DV?$ChTraitsCRT@D@ATL@@@@@ATL@@PAUtagRECT@@I@Z ; CDC::DrawTextA
PUBLIC	?GetItem@CHeaderCtrl@@QBEHHPAU_HD_ITEMA@@@Z	; CHeaderCtrl::GetItem
PUBLIC	?CreateFontIndirectA@CFont@@QAEHPBUtagLOGFONTA@@@Z ; CFont::CreateFontIndirectA
PUBLIC	??0CBitmap@@QAE@XZ				; CBitmap::CBitmap
PUBLIC	?CreateCompatibleBitmap@CBitmap@@QAEHPAVCDC@@HH@Z ; CBitmap::CreateCompatibleBitmap
PUBLIC	??1CBitmap@@UAE@XZ				; CBitmap::~CBitmap
EXTRN	??0CDC@@QAE@XZ:NEAR				; CDC::CDC
EXTRN	?SelectObject@CDC@@UAEPAVCFont@@PAV2@@Z:NEAR	; CDC::SelectObject
EXTRN	?SetBkMode@CDC@@QAEHH@Z:NEAR			; CDC::SetBkMode
EXTRN	?SetTextColor@CDC@@UAEKK@Z:NEAR			; CDC::SetTextColor
EXTRN	?GetDimensions@CDib@@QAE?AVCSize@@XZ:NEAR	; CDib::GetDimensions
EXTRN	__imp_??0?$CStringT@DV?$StrTraitMFC_DLL@DV?$ChTraitsCRT@D@ATL@@@@@ATL@@QAE@PBD@Z:NEAR
EXTRN	__imp_??1?$CStringT@DV?$StrTraitMFC_DLL@DV?$ChTraitsCRT@D@ATL@@@@@ATL@@QAE@XZ:NEAR
EXTRN	?Draw@CDibBitmap@@QAEHPAVCDC@@HKH@Z:NEAR	; CDibBitmap::Draw
EXTRN	?SetCDibRect@CDibBitmap@@QAEXVCRect@@@Z:NEAR	; CDibBitmap::SetCDibRect
EXTRN	___security_cookie:DWORD
EXTRN	@__security_check_cookie@4:NEAR
EXTRN	_memset:NEAR
EXTRN	_strcpy:NEAR
EXTRN	??1CDC@@UAE@XZ:NEAR				; CDC::~CDC
EXTRN	??0CPaintDC@@QAE@PAVCWnd@@@Z:NEAR		; CPaintDC::CPaintDC
EXTRN	??1CPaintDC@@UAE@XZ:NEAR			; CPaintDC::~CPaintDC
xdata$x	SEGMENT
$T199246 DD	0ffffffffH
	DD	FLAT:$L199234
	DD	00H
	DD	FLAT:$L199235
	DD	01H
	DD	FLAT:$L199236
	DD	02H
	DD	FLAT:$L199237
	DD	03H
	DD	FLAT:$L199238
	DD	03H
	DD	FLAT:$L199239
$T199241 DD	019930520H
	DD	06H
	DD	FLAT:$T199246
	DD	2 DUP(00H)
	DD	2 DUP(00H)
; Function compile flags: /Odt
xdata$x	ENDS
_TEXT	SEGMENT
_this$ = -980						; size = 4
$T199233 = -976						; size = 8
$T199232 = -968						; size = 8
$T199231 = -960						; size = 16
$T199230 = -944						; size = 8
$T199229 = -936						; size = 8
$T199228 = -928						; size = 4
$T199227 = -924						; size = 4
$T199226 = -920						; size = 16
$T199225 = -904						; size = 16
_pBmp$198593 = -888					; size = 4
_imaSize$198596 = -884					; size = 8
_p$198597 = -876					; size = 8
_buf1$198576 = -868					; size = 256
_hditem1$198577 = -608					; size = 44
_buf$198587 = -564					; size = 256
_hditem$198588 = -304					; size = 44
_calRect$198589 = -260					; size = 16
_uFormat$198586 = -244					; size = 4
_i$198572 = -240					; size = 4
_font$ = -236						; size = 8
_nItems$ = -228						; size = 4
_hBitmap$ = -224					; size = 8
_lf$ = -216						; size = 60
_rectItem$ = -156					; size = 16
_dc$ = -140						; size = 84
__$ArrayPad$ = -52					; size = 4
_rect$ = -48						; size = 16
_hdcMem$ = -32						; size = 16
_def_font$ = -16					; size = 4
__$EHRec$ = -12						; size = 12
__$ReturnAddr$ = 4					; size = 4
?OnPaint@CMyHeaderCtrl@@QAEXXZ PROC NEAR		; CMyHeaderCtrl::OnPaint
; _this$ = ecx

; 151  : {

  00420	55		 push	 ebp
  00421	8b ec		 mov	 ebp, esp
  00423	6a ff		 push	 -1
  00425	68 00 00 00 00	 push	 __ehhandler$?OnPaint@CMyHeaderCtrl@@QAEXXZ
  0042a	64 a1 00 00 00
	00		 mov	 eax, DWORD PTR fs:__except_list
  00430	50		 push	 eax
  00431	64 89 25 00 00
	00 00		 mov	 DWORD PTR fs:__except_list, esp
  00438	81 ec c8 03 00
	00		 sub	 esp, 968		; 000003c8H
  0043e	a1 00 00 00 00	 mov	 eax, DWORD PTR ___security_cookie
  00443	89 45 cc	 mov	 DWORD PTR __$ArrayPad$[ebp], eax
  00446	56		 push	 esi
  00447	89 8d 2c fc ff
	ff		 mov	 DWORD PTR _this$[ebp], ecx

; 152  : 	CPaintDC dc(this); 

  0044d	8b 85 2c fc ff
	ff		 mov	 eax, DWORD PTR _this$[ebp]
  00453	50		 push	 eax
  00454	8d 8d 74 ff ff
	ff		 lea	 ecx, DWORD PTR _dc$[ebp]
  0045a	e8 00 00 00 00	 call	 ??0CPaintDC@@QAE@PAVCWnd@@@Z ; CPaintDC::CPaintDC
  0045f	c7 45 fc 00 00
	00 00		 mov	 DWORD PTR __$EHRec$[ebp+8], 0

; 153  : 	CRect rect,rectItem;

  00466	8d 4d d0	 lea	 ecx, DWORD PTR _rect$[ebp]
  00469	e8 00 00 00 00	 call	 ??0CRect@@QAE@XZ	; CRect::CRect
  0046e	8d 8d 64 ff ff
	ff		 lea	 ecx, DWORD PTR _rectItem$[ebp]
  00474	e8 00 00 00 00	 call	 ??0CRect@@QAE@XZ	; CRect::CRect

; 154  : 	GetClientRect(&rect);

  00479	8d 4d d0	 lea	 ecx, DWORD PTR _rect$[ebp]
  0047c	51		 push	 ecx
  0047d	8b 8d 2c fc ff
	ff		 mov	 ecx, DWORD PTR _this$[ebp]
  00483	e8 00 00 00 00	 call	 ?GetClientRect@CWnd@@QBEXPAUtagRECT@@@Z ; CWnd::GetClientRect

; 155  : 
; 156  : 	CDC hdcMem;

  00488	8d 4d e0	 lea	 ecx, DWORD PTR _hdcMem$[ebp]
  0048b	e8 00 00 00 00	 call	 ??0CDC@@QAE@XZ		; CDC::CDC
  00490	c6 45 fc 01	 mov	 BYTE PTR __$EHRec$[ebp+8], 1

; 157  : 	hdcMem.CreateCompatibleDC(NULL);

  00494	6a 00		 push	 0
  00496	8d 4d e0	 lea	 ecx, DWORD PTR _hdcMem$[ebp]
  00499	e8 00 00 00 00	 call	 ?CreateCompatibleDC@CDC@@QAEHPAV1@@Z ; CDC::CreateCompatibleDC

; 158  : 	CBitmap hBitmap;

  0049e	8d 8d 20 ff ff
	ff		 lea	 ecx, DWORD PTR _hBitmap$[ebp]
  004a4	e8 00 00 00 00	 call	 ??0CBitmap@@QAE@XZ	; CBitmap::CBitmap
  004a9	c6 45 fc 02	 mov	 BYTE PTR __$EHRec$[ebp+8], 2

; 159  : 	hBitmap.CreateCompatibleBitmap(&dc,rect.Width(),rect.Height());

  004ad	8d 4d d0	 lea	 ecx, DWORD PTR _rect$[ebp]
  004b0	e8 00 00 00 00	 call	 ?Height@CRect@@QBEHXZ	; CRect::Height
  004b5	50		 push	 eax
  004b6	8d 4d d0	 lea	 ecx, DWORD PTR _rect$[ebp]
  004b9	e8 00 00 00 00	 call	 ?Width@CRect@@QBEHXZ	; CRect::Width
  004be	50		 push	 eax
  004bf	8d 95 74 ff ff
	ff		 lea	 edx, DWORD PTR _dc$[ebp]
  004c5	52		 push	 edx
  004c6	8d 8d 20 ff ff
	ff		 lea	 ecx, DWORD PTR _hBitmap$[ebp]
  004cc	e8 00 00 00 00	 call	 ?CreateCompatibleBitmap@CBitmap@@QAEHPAVCDC@@HH@Z ; CBitmap::CreateCompatibleBitmap

; 160  : 	hdcMem.SelectObject(&hBitmap);

  004d1	8d 85 20 ff ff
	ff		 lea	 eax, DWORD PTR _hBitmap$[ebp]
  004d7	50		 push	 eax
  004d8	8d 4d e0	 lea	 ecx, DWORD PTR _hdcMem$[ebp]
  004db	e8 00 00 00 00	 call	 ?SelectObject@CDC@@QAEPAVCBitmap@@PAV2@@Z ; CDC::SelectObject

; 161  : 
; 162  : 	//CMemDC memDC(&dc, rect);
; 163  : 	int nItems = GetItemCount();

  004e0	8b 8d 2c fc ff
	ff		 mov	 ecx, DWORD PTR _this$[ebp]
  004e6	e8 00 00 00 00	 call	 ?GetItemCount@CHeaderCtrl@@QBEHXZ ; CHeaderCtrl::GetItemCount
  004eb	89 85 1c ff ff
	ff		 mov	 DWORD PTR _nItems$[ebp], eax

; 164  : 
; 165  : 	if( m_pBitmapBk != NULL )

  004f1	8b 8d 2c fc ff
	ff		 mov	 ecx, DWORD PTR _this$[ebp]
  004f7	83 79 54 00	 cmp	 DWORD PTR [ecx+84], 0
  004fb	74 42		 je	 SHORT $L198566

; 166  : 	{
; 167  : 		m_pBitmapBk->SetCDibRect( rect );

  004fd	83 ec 10	 sub	 esp, 16			; 00000010H
  00500	8b d4		 mov	 edx, esp
  00502	8b 45 d0	 mov	 eax, DWORD PTR _rect$[ebp]
  00505	89 02		 mov	 DWORD PTR [edx], eax
  00507	8b 4d d4	 mov	 ecx, DWORD PTR _rect$[ebp+4]
  0050a	89 4a 04	 mov	 DWORD PTR [edx+4], ecx
  0050d	8b 45 d8	 mov	 eax, DWORD PTR _rect$[ebp+8]
  00510	89 42 08	 mov	 DWORD PTR [edx+8], eax
  00513	8b 4d dc	 mov	 ecx, DWORD PTR _rect$[ebp+12]
  00516	89 4a 0c	 mov	 DWORD PTR [edx+12], ecx
  00519	8b 95 2c fc ff
	ff		 mov	 edx, DWORD PTR _this$[ebp]
  0051f	8b 4a 54	 mov	 ecx, DWORD PTR [edx+84]
  00522	e8 00 00 00 00	 call	 ?SetCDibRect@CDibBitmap@@QAEXVCRect@@@Z ; CDibBitmap::SetCDibRect

; 168  : 		m_pBitmapBk->Draw( &hdcMem,FALSE );

  00527	6a 01		 push	 1
  00529	6a 00		 push	 0
  0052b	6a 00		 push	 0
  0052d	8d 45 e0	 lea	 eax, DWORD PTR _hdcMem$[ebp]
  00530	50		 push	 eax
  00531	8b 8d 2c fc ff
	ff		 mov	 ecx, DWORD PTR _this$[ebp]
  00537	8b 49 54	 mov	 ecx, DWORD PTR [ecx+84]
  0053a	e8 00 00 00 00	 call	 ?Draw@CDibBitmap@@QAEHPAVCDC@@HKH@Z ; CDibBitmap::Draw
$L198566:

; 169  : 	}
; 170  : 
; 171  : 	
; 172  : 	CFont* def_font;
; 173  : 	CFont font;

  0053f	8d 8d 14 ff ff
	ff		 lea	 ecx, DWORD PTR _font$[ebp]
  00545	e8 00 00 00 00	 call	 ??0CFont@@QAE@XZ	; CFont::CFont
  0054a	c6 45 fc 03	 mov	 BYTE PTR __$EHRec$[ebp+8], 3

; 174  : 	LOGFONT lf;
; 175  : 	memset(&lf, 0, sizeof(LOGFONT));

  0054e	6a 3c		 push	 60			; 0000003cH
  00550	6a 00		 push	 0
  00552	8d 95 28 ff ff
	ff		 lea	 edx, DWORD PTR _lf$[ebp]
  00558	52		 push	 edx
  00559	e8 00 00 00 00	 call	 _memset
  0055e	83 c4 0c	 add	 esp, 12			; 0000000cH

; 176  : 	lf.lfHeight = 12;

  00561	c7 85 28 ff ff
	ff 0c 00 00 00	 mov	 DWORD PTR _lf$[ebp], 12	; 0000000cH

; 177  : 	strcpy(lf.lfFaceName, "ו");

  0056b	68 00 00 00 00	 push	 OFFSET FLAT:$SG198571
  00570	8d 85 44 ff ff
	ff		 lea	 eax, DWORD PTR _lf$[ebp+28]
  00576	50		 push	 eax
  00577	e8 00 00 00 00	 call	 _strcpy
  0057c	83 c4 08	 add	 esp, 8

; 178  : 	font.CreateFontIndirect(&lf);

  0057f	8d 8d 28 ff ff
	ff		 lea	 ecx, DWORD PTR _lf$[ebp]
  00585	51		 push	 ecx
  00586	8d 8d 14 ff ff
	ff		 lea	 ecx, DWORD PTR _font$[ebp]
  0058c	e8 00 00 00 00	 call	 ?CreateFontIndirectA@CFont@@QAEHPBUtagLOGFONTA@@@Z ; CFont::CreateFontIndirectA

; 179  : 	def_font = hdcMem.SelectObject(&font);	

  00591	8d 95 14 ff ff
	ff		 lea	 edx, DWORD PTR _font$[ebp]
  00597	52		 push	 edx
  00598	8d 4d e0	 lea	 ecx, DWORD PTR _hdcMem$[ebp]
  0059b	e8 00 00 00 00	 call	 ?SelectObject@CDC@@UAEPAVCFont@@PAV2@@Z ; CDC::SelectObject
  005a0	89 45 f0	 mov	 DWORD PTR _def_font$[ebp], eax

; 180  : 
; 181  : 
; 182  : 	hdcMem.SetBkMode(TRANSPARENT);

  005a3	6a 01		 push	 1
  005a5	8d 4d e0	 lea	 ecx, DWORD PTR _hdcMem$[ebp]
  005a8	e8 00 00 00 00	 call	 ?SetBkMode@CDC@@QAEHH@Z	; CDC::SetBkMode

; 183  : 	hdcMem.SetTextColor(m_fontColor) ;

  005ad	8b 85 2c fc ff
	ff		 mov	 eax, DWORD PTR _this$[ebp]
  005b3	8b 88 80 00 00
	00		 mov	 ecx, DWORD PTR [eax+128]
  005b9	51		 push	 ecx
  005ba	8d 4d e0	 lea	 ecx, DWORD PTR _hdcMem$[ebp]
  005bd	e8 00 00 00 00	 call	 ?SetTextColor@CDC@@UAEKK@Z ; CDC::SetTextColor

; 184  : 			
; 185  : 	for(int i = 0; i <nItems; i++)

  005c2	c7 85 10 ff ff
	ff 00 00 00 00	 mov	 DWORD PTR _i$198572[ebp], 0
  005cc	eb 0f		 jmp	 SHORT $L198573
$L198574:
  005ce	8b 95 10 ff ff
	ff		 mov	 edx, DWORD PTR _i$198572[ebp]
  005d4	83 c2 01	 add	 edx, 1
  005d7	89 95 10 ff ff
	ff		 mov	 DWORD PTR _i$198572[ebp], edx
$L198573:
  005dd	8b 85 10 ff ff
	ff		 mov	 eax, DWORD PTR _i$198572[ebp]
  005e3	3b 85 1c ff ff
	ff		 cmp	 eax, DWORD PTR _nItems$[ebp]
  005e9	0f 8d fd 04 00
	00		 jge	 $L198575

; 186  : 	{
; 187  : 		TCHAR buf1[256];
; 188  : 		HD_ITEM hditem1;
; 189  : 		
; 190  : 		hditem1.mask = HDI_TEXT | HDI_FORMAT | HDI_ORDER;

  005ef	c7 85 a0 fd ff
	ff 86 00 00 00	 mov	 DWORD PTR _hditem1$198577[ebp], 134 ; 00000086H

; 191  : 		hditem1.pszText = buf1;

  005f9	8d 8d 9c fc ff
	ff		 lea	 ecx, DWORD PTR _buf1$198576[ebp]
  005ff	89 8d a8 fd ff
	ff		 mov	 DWORD PTR _hditem1$198577[ebp+8], ecx

; 192  : 		hditem1.cchTextMax = 255;

  00605	c7 85 b0 fd ff
	ff ff 00 00 00	 mov	 DWORD PTR _hditem1$198577[ebp+16], 255 ; 000000ffH

; 193  : 		GetItem( i, &hditem1 );	

  0060f	8d 95 a0 fd ff
	ff		 lea	 edx, DWORD PTR _hditem1$198577[ebp]
  00615	52		 push	 edx
  00616	8b 85 10 ff ff
	ff		 mov	 eax, DWORD PTR _i$198572[ebp]
  0061c	50		 push	 eax
  0061d	8b 8d 2c fc ff
	ff		 mov	 ecx, DWORD PTR _this$[ebp]
  00623	e8 00 00 00 00	 call	 ?GetItem@CHeaderCtrl@@QBEHHPAU_HD_ITEMA@@@Z ; CHeaderCtrl::GetItem

; 194  : 		GetItemRect(i, &rect);

  00628	8d 4d d0	 lea	 ecx, DWORD PTR _rect$[ebp]
  0062b	51		 push	 ecx
  0062c	8b 95 10 ff ff
	ff		 mov	 edx, DWORD PTR _i$198572[ebp]
  00632	52		 push	 edx
  00633	8b 8d 2c fc ff
	ff		 mov	 ecx, DWORD PTR _this$[ebp]
  00639	e8 00 00 00 00	 call	 ?GetItemRect@CHeaderCtrl@@QBEHHPAUtagRECT@@@Z ; CHeaderCtrl::GetItemRect

; 195  : 
; 196  : 		if( m_nHoverItem == i )

  0063e	8b 85 2c fc ff
	ff		 mov	 eax, DWORD PTR _this$[ebp]
  00644	8b 48 70	 mov	 ecx, DWORD PTR [eax+112]
  00647	3b 8d 10 ff ff
	ff		 cmp	 ecx, DWORD PTR _i$198572[ebp]
  0064d	0f 85 94 00 00
	00		 jne	 $L198578

; 197  : 		{
; 198  : 			if(this->m_bLButtonDown)

  00653	8b 95 2c fc ff
	ff		 mov	 edx, DWORD PTR _this$[ebp]
  00659	0f b6 42 75	 movzx	 eax, BYTE PTR [edx+117]
  0065d	85 c0		 test	 eax, eax
  0065f	74 44		 je	 SHORT $L198579

; 199  : 			{
; 200  : 				m_pBitmapBkDown->SetCDibRect( rect );

  00661	83 ec 10	 sub	 esp, 16			; 00000010H
  00664	8b cc		 mov	 ecx, esp
  00666	8b 55 d0	 mov	 edx, DWORD PTR _rect$[ebp]
  00669	89 11		 mov	 DWORD PTR [ecx], edx
  0066b	8b 45 d4	 mov	 eax, DWORD PTR _rect$[ebp+4]
  0066e	89 41 04	 mov	 DWORD PTR [ecx+4], eax
  00671	8b 55 d8	 mov	 edx, DWORD PTR _rect$[ebp+8]
  00674	89 51 08	 mov	 DWORD PTR [ecx+8], edx
  00677	8b 45 dc	 mov	 eax, DWORD PTR _rect$[ebp+12]
  0067a	89 41 0c	 mov	 DWORD PTR [ecx+12], eax
  0067d	8b 8d 2c fc ff
	ff		 mov	 ecx, DWORD PTR _this$[ebp]
  00683	8b 49 68	 mov	 ecx, DWORD PTR [ecx+104]
  00686	e8 00 00 00 00	 call	 ?SetCDibRect@CDibBitmap@@QAEXVCRect@@@Z ; CDibBitmap::SetCDibRect

; 201  : 				m_pBitmapBkDown->Draw( &hdcMem,FALSE );

  0068b	6a 01		 push	 1
  0068d	6a 00		 push	 0
  0068f	6a 00		 push	 0
  00691	8d 55 e0	 lea	 edx, DWORD PTR _hdcMem$[ebp]
  00694	52		 push	 edx
  00695	8b 85 2c fc ff
	ff		 mov	 eax, DWORD PTR _this$[ebp]
  0069b	8b 48 68	 mov	 ecx, DWORD PTR [eax+104]
  0069e	e8 00 00 00 00	 call	 ?Draw@CDibBitmap@@QAEHPAVCDC@@HKH@Z ; CDibBitmap::Draw

; 202  : 			}
; 203  : 			else

  006a3	eb 42		 jmp	 SHORT $L198578
$L198579:

; 204  : 			{
; 205  : 				m_pBitmapBkOver->SetCDibRect( rect );

  006a5	83 ec 10	 sub	 esp, 16			; 00000010H
  006a8	8b cc		 mov	 ecx, esp
  006aa	8b 55 d0	 mov	 edx, DWORD PTR _rect$[ebp]
  006ad	89 11		 mov	 DWORD PTR [ecx], edx
  006af	8b 45 d4	 mov	 eax, DWORD PTR _rect$[ebp+4]
  006b2	89 41 04	 mov	 DWORD PTR [ecx+4], eax
  006b5	8b 55 d8	 mov	 edx, DWORD PTR _rect$[ebp+8]
  006b8	89 51 08	 mov	 DWORD PTR [ecx+8], edx
  006bb	8b 45 dc	 mov	 eax, DWORD PTR _rect$[ebp+12]
  006be	89 41 0c	 mov	 DWORD PTR [ecx+12], eax
  006c1	8b 8d 2c fc ff
	ff		 mov	 ecx, DWORD PTR _this$[ebp]
  006c7	8b 49 60	 mov	 ecx, DWORD PTR [ecx+96]
  006ca	e8 00 00 00 00	 call	 ?SetCDibRect@CDibBitmap@@QAEXVCRect@@@Z ; CDibBitmap::SetCDibRect

; 206  : 				m_pBitmapBkOver->Draw( &hdcMem,FALSE );

  006cf	6a 01		 push	 1
  006d1	6a 00		 push	 0
  006d3	6a 00		 push	 0
  006d5	8d 55 e0	 lea	 edx, DWORD PTR _hdcMem$[ebp]
  006d8	52		 push	 edx
  006d9	8b 85 2c fc ff
	ff		 mov	 eax, DWORD PTR _this$[ebp]
  006df	8b 48 60	 mov	 ecx, DWORD PTR [eax+96]
  006e2	e8 00 00 00 00	 call	 ?Draw@CDibBitmap@@QAEHPAVCDC@@HKH@Z ; CDibBitmap::Draw
$L198578:

; 207  : 			}
; 208  : 		}
; 209  : 		if( m_pBitmapMidLine != NULL )

  006e7	8b 8d 2c fc ff
	ff		 mov	 ecx, DWORD PTR _this$[ebp]
  006ed	83 79 58 00	 cmp	 DWORD PTR [ecx+88], 0
  006f1	0f 84 0d 01 00
	00		 je	 $L198581

; 210  : 		{
; 211  : 			if(m_nHoverItem == i)

  006f7	8b 95 2c fc ff
	ff		 mov	 edx, DWORD PTR _this$[ebp]
  006fd	8b 42 70	 mov	 eax, DWORD PTR [edx+112]
  00700	3b 85 10 ff ff
	ff		 cmp	 eax, DWORD PTR _i$198572[ebp]
  00706	75 7f		 jne	 SHORT $L198582

; 212  : 			{
; 213  : 				m_pBitmapMidLineOver->SetCDibRect(CRect(rect.BottomRight().x-1,rect.TopLeft().y,rect.BottomRight().x,rect.BottomRight().y));

  00708	8d 4d d0	 lea	 ecx, DWORD PTR _rect$[ebp]
  0070b	e8 00 00 00 00	 call	 ?BottomRight@CRect@@QAEAAVCPoint@@XZ ; CRect::BottomRight
  00710	8b 48 04	 mov	 ecx, DWORD PTR [eax+4]
  00713	51		 push	 ecx
  00714	8d 4d d0	 lea	 ecx, DWORD PTR _rect$[ebp]
  00717	e8 00 00 00 00	 call	 ?BottomRight@CRect@@QAEAAVCPoint@@XZ ; CRect::BottomRight
  0071c	8b 10		 mov	 edx, DWORD PTR [eax]
  0071e	52		 push	 edx
  0071f	8d 4d d0	 lea	 ecx, DWORD PTR _rect$[ebp]
  00722	e8 00 00 00 00	 call	 ?TopLeft@CRect@@QAEAAVCPoint@@XZ ; CRect::TopLeft
  00727	8b 40 04	 mov	 eax, DWORD PTR [eax+4]
  0072a	50		 push	 eax
  0072b	8d 4d d0	 lea	 ecx, DWORD PTR _rect$[ebp]
  0072e	e8 00 00 00 00	 call	 ?BottomRight@CRect@@QAEAAVCPoint@@XZ ; CRect::BottomRight
  00733	8b 08		 mov	 ecx, DWORD PTR [eax]
  00735	83 e9 01	 sub	 ecx, 1
  00738	51		 push	 ecx
  00739	8d 8d 78 fc ff
	ff		 lea	 ecx, DWORD PTR $T199225[ebp]
  0073f	e8 00 00 00 00	 call	 ??0CRect@@QAE@HHHH@Z	; CRect::CRect
  00744	83 ec 10	 sub	 esp, 16			; 00000010H
  00747	8b d4		 mov	 edx, esp
  00749	8b 08		 mov	 ecx, DWORD PTR [eax]
  0074b	89 0a		 mov	 DWORD PTR [edx], ecx
  0074d	8b 48 04	 mov	 ecx, DWORD PTR [eax+4]
  00750	89 4a 04	 mov	 DWORD PTR [edx+4], ecx
  00753	8b 48 08	 mov	 ecx, DWORD PTR [eax+8]
  00756	89 4a 08	 mov	 DWORD PTR [edx+8], ecx
  00759	8b 40 0c	 mov	 eax, DWORD PTR [eax+12]
  0075c	89 42 0c	 mov	 DWORD PTR [edx+12], eax
  0075f	8b 8d 2c fc ff
	ff		 mov	 ecx, DWORD PTR _this$[ebp]
  00765	8b 49 64	 mov	 ecx, DWORD PTR [ecx+100]
  00768	e8 00 00 00 00	 call	 ?SetCDibRect@CDibBitmap@@QAEXVCRect@@@Z ; CDibBitmap::SetCDibRect

; 214  : 				m_pBitmapMidLineOver->Draw(&hdcMem,FALSE);

  0076d	6a 01		 push	 1
  0076f	6a 00		 push	 0
  00771	6a 00		 push	 0
  00773	8d 55 e0	 lea	 edx, DWORD PTR _hdcMem$[ebp]
  00776	52		 push	 edx
  00777	8b 85 2c fc ff
	ff		 mov	 eax, DWORD PTR _this$[ebp]
  0077d	8b 48 64	 mov	 ecx, DWORD PTR [eax+100]
  00780	e8 00 00 00 00	 call	 ?Draw@CDibBitmap@@QAEHPAVCDC@@HKH@Z ; CDibBitmap::Draw

; 215  : // 				int start = rect.TopLeft().x == 0 ? 0 : rect.TopLeft().x - 1;
; 216  : // 				m_pBitmapMidLineOver->SetCDibRect(CRect(start ,rect.TopLeft().y,start + 1,rect.BottomRight().y));
; 217  : // 				m_pBitmapMidLineOver->Draw(&hdcMem,FALSE);
; 218  : 			}
; 219  : 			else

  00785	eb 7d		 jmp	 SHORT $L198581
$L198582:

; 220  : 			{
; 221  : // 				m_pBitmapMidLine->SetCDibRect(CRect(rect.BottomRight().x-1,rect.TopLeft().y,rect.BottomRight().x+2,rect.BottomRight().y));
; 222  : // 				m_pBitmapMidLine->Draw(&hdcMem,FALSE);
; 223  : 
; 224  : 				m_pBitmapMidLineOver->SetCDibRect(CRect(rect.BottomRight().x-1,rect.TopLeft().y,rect.BottomRight().x,rect.BottomRight().y));

  00787	8d 4d d0	 lea	 ecx, DWORD PTR _rect$[ebp]
  0078a	e8 00 00 00 00	 call	 ?BottomRight@CRect@@QAEAAVCPoint@@XZ ; CRect::BottomRight
  0078f	8b 48 04	 mov	 ecx, DWORD PTR [eax+4]
  00792	51		 push	 ecx
  00793	8d 4d d0	 lea	 ecx, DWORD PTR _rect$[ebp]
  00796	e8 00 00 00 00	 call	 ?BottomRight@CRect@@QAEAAVCPoint@@XZ ; CRect::BottomRight
  0079b	8b 10		 mov	 edx, DWORD PTR [eax]
  0079d	52		 push	 edx
  0079e	8d 4d d0	 lea	 ecx, DWORD PTR _rect$[ebp]
  007a1	e8 00 00 00 00	 call	 ?TopLeft@CRect@@QAEAAVCPoint@@XZ ; CRect::TopLeft
  007a6	8b 40 04	 mov	 eax, DWORD PTR [eax+4]
  007a9	50		 push	 eax
  007aa	8d 4d d0	 lea	 ecx, DWORD PTR _rect$[ebp]
  007ad	e8 00 00 00 00	 call	 ?BottomRight@CRect@@QAEAAVCPoint@@XZ ; CRect::BottomRight
  007b2	8b 08		 mov	 ecx, DWORD PTR [eax]
  007b4	83 e9 01	 sub	 ecx, 1
  007b7	51		 push	 ecx
  007b8	8d 8d 68 fc ff
	ff		 lea	 ecx, DWORD PTR $T199226[ebp]
  007be	e8 00 00 00 00	 call	 ??0CRect@@QAE@HHHH@Z	; CRect::CRect
  007c3	83 ec 10	 sub	 esp, 16			; 00000010H
  007c6	8b d4		 mov	 edx, esp
  007c8	8b 08		 mov	 ecx, DWORD PTR [eax]
  007ca	89 0a		 mov	 DWORD PTR [edx], ecx
  007cc	8b 48 04	 mov	 ecx, DWORD PTR [eax+4]
  007cf	89 4a 04	 mov	 DWORD PTR [edx+4], ecx
  007d2	8b 48 08	 mov	 ecx, DWORD PTR [eax+8]
  007d5	89 4a 08	 mov	 DWORD PTR [edx+8], ecx
  007d8	8b 40 0c	 mov	 eax, DWORD PTR [eax+12]
  007db	89 42 0c	 mov	 DWORD PTR [edx+12], eax
  007de	8b 8d 2c fc ff
	ff		 mov	 ecx, DWORD PTR _this$[ebp]
  007e4	8b 49 64	 mov	 ecx, DWORD PTR [ecx+100]
  007e7	e8 00 00 00 00	 call	 ?SetCDibRect@CDibBitmap@@QAEXVCRect@@@Z ; CDibBitmap::SetCDibRect

; 225  : 				m_pBitmapMidLineOver->Draw(&hdcMem,FALSE);

  007ec	6a 01		 push	 1
  007ee	6a 00		 push	 0
  007f0	6a 00		 push	 0
  007f2	8d 55 e0	 lea	 edx, DWORD PTR _hdcMem$[ebp]
  007f5	52		 push	 edx
  007f6	8b 85 2c fc ff
	ff		 mov	 eax, DWORD PTR _this$[ebp]
  007fc	8b 48 64	 mov	 ecx, DWORD PTR [eax+100]
  007ff	e8 00 00 00 00	 call	 ?Draw@CDibBitmap@@QAEHPAVCDC@@HKH@Z ; CDibBitmap::Draw
$L198581:

; 226  : 			}
; 227  : 		}
; 228  : 
; 229  : 		GetItemRect(i, &rectItem);

  00804	8d 8d 64 ff ff
	ff		 lea	 ecx, DWORD PTR _rectItem$[ebp]
  0080a	51		 push	 ecx
  0080b	8b 95 10 ff ff
	ff		 mov	 edx, DWORD PTR _i$198572[ebp]
  00811	52		 push	 edx
  00812	8b 8d 2c fc ff
	ff		 mov	 ecx, DWORD PTR _this$[ebp]
  00818	e8 00 00 00 00	 call	 ?GetItemRect@CHeaderCtrl@@QBEHHPAUtagRECT@@@Z ; CHeaderCtrl::GetItemRect

; 230  : 		//DRAWITEMSTRUCT	DrawItemStruct;
; 231  : 		//		
; 232  : 		//DrawItemStruct.CtlType		= ODT_HEADER;
; 233  : 		//DrawItemStruct.hDC			= dc.GetSafeHdc();
; 234  : 		//DrawItemStruct.itemAction	= ODA_DRAWENTIRE; 
; 235  : 		//DrawItemStruct.hwndItem 	= GetSafeHwnd(); 
; 236  : 		//DrawItemStruct.rcItem	= rectItem;
; 237  : 		//DrawItemStruct.itemID	= i;*/
; 238  : ////		DrawItem(&DrawItemStruct);
; 239  : 		
; 240  : 		UINT uFormat = DT_SINGLELINE | DT_NOPREFIX | DT_TOP |DT_CENTER | DT_END_ELLIPSIS | DT_VCENTER;

  0081d	c7 85 0c ff ff
	ff 25 88 00 00	 mov	 DWORD PTR _uFormat$198586[ebp], 34853 ; 00008825H

; 241  : 
; 242  : 		rectItem.DeflateRect(2,2,2,2);

  00827	6a 02		 push	 2
  00829	6a 02		 push	 2
  0082b	6a 02		 push	 2
  0082d	6a 02		 push	 2
  0082f	8d 8d 64 ff ff
	ff		 lea	 ecx, DWORD PTR _rectItem$[ebp]
  00835	e8 00 00 00 00	 call	 ?DeflateRect@CRect@@QAEXHHHH@Z ; CRect::DeflateRect

; 243  : 		
; 244  : 		TCHAR buf[256];
; 245  : 		HD_ITEM hditem;
; 246  : 		
; 247  : 		hditem.mask = HDI_TEXT | HDI_FORMAT | HDI_ORDER ;

  0083a	c7 85 d0 fe ff
	ff 86 00 00 00	 mov	 DWORD PTR _hditem$198588[ebp], 134 ; 00000086H

; 248  : 		hditem.pszText = buf;

  00844	8d 85 cc fd ff
	ff		 lea	 eax, DWORD PTR _buf$198587[ebp]
  0084a	89 85 d8 fe ff
	ff		 mov	 DWORD PTR _hditem$198588[ebp+8], eax

; 249  : 		hditem.cchTextMax = 255;

  00850	c7 85 e0 fe ff
	ff ff 00 00 00	 mov	 DWORD PTR _hditem$198588[ebp+16], 255 ; 000000ffH

; 250  : 		GetItem( i, &hditem );

  0085a	8d 8d d0 fe ff
	ff		 lea	 ecx, DWORD PTR _hditem$198588[ebp]
  00860	51		 push	 ecx
  00861	8b 95 10 ff ff
	ff		 mov	 edx, DWORD PTR _i$198572[ebp]
  00867	52		 push	 edx
  00868	8b 8d 2c fc ff
	ff		 mov	 ecx, DWORD PTR _this$[ebp]
  0086e	e8 00 00 00 00	 call	 ?GetItem@CHeaderCtrl@@QBEHHPAU_HD_ITEMA@@@Z ; CHeaderCtrl::GetItem

; 251  : 		
; 252  : 		CRect calRect = rectItem;

  00873	8b 85 64 ff ff
	ff		 mov	 eax, DWORD PTR _rectItem$[ebp]
  00879	89 85 fc fe ff
	ff		 mov	 DWORD PTR _calRect$198589[ebp], eax
  0087f	8b 8d 68 ff ff
	ff		 mov	 ecx, DWORD PTR _rectItem$[ebp+4]
  00885	89 8d 00 ff ff
	ff		 mov	 DWORD PTR _calRect$198589[ebp+4], ecx
  0088b	8b 95 6c ff ff
	ff		 mov	 edx, DWORD PTR _rectItem$[ebp+8]
  00891	89 95 04 ff ff
	ff		 mov	 DWORD PTR _calRect$198589[ebp+8], edx
  00897	8b 85 70 ff ff
	ff		 mov	 eax, DWORD PTR _rectItem$[ebp+12]
  0089d	89 85 08 ff ff
	ff		 mov	 DWORD PTR _calRect$198589[ebp+12], eax

; 253  : 		hdcMem.DrawText(buf, &calRect, DT_CALCRECT | DT_CENTER |DT_VCENTER);

  008a3	8d 8d cc fd ff
	ff		 lea	 ecx, DWORD PTR _buf$198587[ebp]
  008a9	51		 push	 ecx
  008aa	8d 8d 64 fc ff
	ff		 lea	 ecx, DWORD PTR $T199227[ebp]
  008b0	ff 15 00 00 00
	00		 call	 DWORD PTR __imp_??0?$CStringT@DV?$StrTraitMFC_DLL@DV?$ChTraitsCRT@D@ATL@@@@@ATL@@QAE@PBD@Z
  008b6	c6 45 fc 04	 mov	 BYTE PTR __$EHRec$[ebp+8], 4
  008ba	68 05 04 00 00	 push	 1029			; 00000405H
  008bf	8d 95 fc fe ff
	ff		 lea	 edx, DWORD PTR _calRect$198589[ebp]
  008c5	52		 push	 edx
  008c6	8d 85 64 fc ff
	ff		 lea	 eax, DWORD PTR $T199227[ebp]
  008cc	50		 push	 eax
  008cd	8d 4d e0	 lea	 ecx, DWORD PTR _hdcMem$[ebp]
  008d0	e8 00 00 00 00	 call	 ?DrawTextA@CDC@@QAEHABV?$CStringT@DV?$StrTraitMFC_DLL@DV?$ChTraitsCRT@D@ATL@@@@@ATL@@PAUtagRECT@@I@Z ; CDC::DrawTextA
  008d5	c6 45 fc 03	 mov	 BYTE PTR __$EHRec$[ebp+8], 3
  008d9	8d 8d 64 fc ff
	ff		 lea	 ecx, DWORD PTR $T199227[ebp]
  008df	ff 15 00 00 00
	00		 call	 DWORD PTR __imp_??1?$CStringT@DV?$StrTraitMFC_DLL@DV?$ChTraitsCRT@D@ATL@@@@@ATL@@QAE@XZ

; 254  : 		hdcMem.DrawText(buf, &rectItem, uFormat);

  008e5	8d 8d cc fd ff
	ff		 lea	 ecx, DWORD PTR _buf$198587[ebp]
  008eb	51		 push	 ecx
  008ec	8d 8d 60 fc ff
	ff		 lea	 ecx, DWORD PTR $T199228[ebp]
  008f2	ff 15 00 00 00
	00		 call	 DWORD PTR __imp_??0?$CStringT@DV?$StrTraitMFC_DLL@DV?$ChTraitsCRT@D@ATL@@@@@ATL@@QAE@PBD@Z
  008f8	c6 45 fc 05	 mov	 BYTE PTR __$EHRec$[ebp+8], 5
  008fc	8b 95 0c ff ff
	ff		 mov	 edx, DWORD PTR _uFormat$198586[ebp]
  00902	52		 push	 edx
  00903	8d 85 64 ff ff
	ff		 lea	 eax, DWORD PTR _rectItem$[ebp]
  00909	50		 push	 eax
  0090a	8d 8d 60 fc ff
	ff		 lea	 ecx, DWORD PTR $T199228[ebp]
  00910	51		 push	 ecx
  00911	8d 4d e0	 lea	 ecx, DWORD PTR _hdcMem$[ebp]
  00914	e8 00 00 00 00	 call	 ?DrawTextA@CDC@@QAEHABV?$CStringT@DV?$StrTraitMFC_DLL@DV?$ChTraitsCRT@D@ATL@@@@@ATL@@PAUtagRECT@@I@Z ; CDC::DrawTextA
  00919	c6 45 fc 03	 mov	 BYTE PTR __$EHRec$[ebp+8], 3
  0091d	8d 8d 60 fc ff
	ff		 lea	 ecx, DWORD PTR $T199228[ebp]
  00923	ff 15 00 00 00
	00		 call	 DWORD PTR __imp_??1?$CStringT@DV?$StrTraitMFC_DLL@DV?$ChTraitsCRT@D@ATL@@@@@ATL@@QAE@XZ

; 255  : 		
; 256  : 
; 257  : 		if( i == m_pList->m_iSortItem )

  00929	8b 95 2c fc ff
	ff		 mov	 edx, DWORD PTR _this$[ebp]
  0092f	8b 82 84 00 00
	00		 mov	 eax, DWORD PTR [edx+132]
  00935	8b 8d 10 ff ff
	ff		 mov	 ecx, DWORD PTR _i$198572[ebp]
  0093b	3b 88 34 01 00
	00		 cmp	 ecx, DWORD PTR [eax+308]
  00941	0f 85 a0 01 00
	00		 jne	 $L198592

; 258  : 		{
; 259  : 			CDibBitmap * pBmp = NULL;

  00947	c7 85 88 fc ff
	ff 00 00 00 00	 mov	 DWORD PTR _pBmp$198593[ebp], 0

; 260  : 
; 261  : 			if( !m_pList->m_bAsc )

  00951	8b 95 2c fc ff
	ff		 mov	 edx, DWORD PTR _this$[ebp]
  00957	8b 82 84 00 00
	00		 mov	 eax, DWORD PTR [edx+132]
  0095d	0f b6 88 30 01
	00 00		 movzx	 ecx, BYTE PTR [eax+304]
  00964	85 c9		 test	 ecx, ecx
  00966	75 11		 jne	 SHORT $L198594

; 262  : 			{
; 263  : 				pBmp = m_pBitmapAsc;

  00968	8b 95 2c fc ff
	ff		 mov	 edx, DWORD PTR _this$[ebp]
  0096e	8b 42 5c	 mov	 eax, DWORD PTR [edx+92]
  00971	89 85 88 fc ff
	ff		 mov	 DWORD PTR _pBmp$198593[ebp], eax

; 264  : 			}
; 265  : 			else

  00977	eb 0f		 jmp	 SHORT $L198595
$L198594:

; 266  : 			{
; 267  : 				pBmp = m_pBitmapDesc;

  00979	8b 8d 2c fc ff
	ff		 mov	 ecx, DWORD PTR _this$[ebp]
  0097f	8b 51 6c	 mov	 edx, DWORD PTR [ecx+108]
  00982	89 95 88 fc ff
	ff		 mov	 DWORD PTR _pBmp$198593[ebp], edx
$L198595:

; 268  : 			}
; 269  : 
; 270  : 			CSize imaSize;

  00988	8d 8d 8c fc ff
	ff		 lea	 ecx, DWORD PTR _imaSize$198596[ebp]
  0098e	e8 00 00 00 00	 call	 ??0CSize@@QAE@XZ	; CSize::CSize

; 271  : 			CPoint p;

  00993	8d 8d 94 fc ff
	ff		 lea	 ecx, DWORD PTR _p$198597[ebp]
  00999	e8 00 00 00 00	 call	 ??0CPoint@@QAE@XZ	; CPoint::CPoint

; 272  : 
; 273  : 			imaSize = pBmp->GetDimensions();

  0099e	8d 85 58 fc ff
	ff		 lea	 eax, DWORD PTR $T199229[ebp]
  009a4	50		 push	 eax
  009a5	8b 8d 88 fc ff
	ff		 mov	 ecx, DWORD PTR _pBmp$198593[ebp]
  009ab	e8 00 00 00 00	 call	 ?GetDimensions@CDib@@QAE?AVCSize@@XZ ; CDib::GetDimensions
  009b0	8b 08		 mov	 ecx, DWORD PTR [eax]
  009b2	8b 50 04	 mov	 edx, DWORD PTR [eax+4]
  009b5	89 8d 8c fc ff
	ff		 mov	 DWORD PTR _imaSize$198596[ebp], ecx
  009bb	89 95 90 fc ff
	ff		 mov	 DWORD PTR _imaSize$198596[ebp+4], edx

; 274  : 			p.x = calRect.right + 2 + rectItem.Width() / 2 - calRect.Width() / 2;

  009c1	8d 8d 64 ff ff
	ff		 lea	 ecx, DWORD PTR _rectItem$[ebp]
  009c7	e8 00 00 00 00	 call	 ?Width@CRect@@QBEHXZ	; CRect::Width
  009cc	99		 cdq
  009cd	2b c2		 sub	 eax, edx
  009cf	d1 f8		 sar	 eax, 1
  009d1	8b 8d 04 ff ff
	ff		 mov	 ecx, DWORD PTR _calRect$198589[ebp+8]
  009d7	8d 74 01 02	 lea	 esi, DWORD PTR [ecx+eax+2]
  009db	8d 8d fc fe ff
	ff		 lea	 ecx, DWORD PTR _calRect$198589[ebp]
  009e1	e8 00 00 00 00	 call	 ?Width@CRect@@QBEHXZ	; CRect::Width
  009e6	99		 cdq
  009e7	2b c2		 sub	 eax, edx
  009e9	d1 f8		 sar	 eax, 1
  009eb	2b f0		 sub	 esi, eax
  009ed	89 b5 94 fc ff
	ff		 mov	 DWORD PTR _p$198597[ebp], esi

; 275  : 			p.y = rectItem.CenterPoint().y - imaSize.cy / 2;

  009f3	8d 95 50 fc ff
	ff		 lea	 edx, DWORD PTR $T199230[ebp]
  009f9	52		 push	 edx
  009fa	8d 8d 64 ff ff
	ff		 lea	 ecx, DWORD PTR _rectItem$[ebp]
  00a00	e8 00 00 00 00	 call	 ?CenterPoint@CRect@@QBE?AVCPoint@@XZ ; CRect::CenterPoint
  00a05	8b c8		 mov	 ecx, eax
  00a07	8b 85 90 fc ff
	ff		 mov	 eax, DWORD PTR _imaSize$198596[ebp+4]
  00a0d	99		 cdq
  00a0e	2b c2		 sub	 eax, edx
  00a10	d1 f8		 sar	 eax, 1
  00a12	8b 51 04	 mov	 edx, DWORD PTR [ecx+4]
  00a15	2b d0		 sub	 edx, eax
  00a17	89 95 98 fc ff
	ff		 mov	 DWORD PTR _p$198597[ebp+4], edx

; 276  : 			
; 277  : 			if(p.x  < rectItem.right)

  00a1d	8b 85 94 fc ff
	ff		 mov	 eax, DWORD PTR _p$198597[ebp]
  00a23	3b 85 6c ff ff
	ff		 cmp	 eax, DWORD PTR _rectItem$[ebp+8]
  00a29	0f 8d b8 00 00
	00		 jge	 $L198592

; 278  : 			{
; 279  : 				if(p.x + imaSize.cx > rectItem.right)

  00a2f	8b 8d 94 fc ff
	ff		 mov	 ecx, DWORD PTR _p$198597[ebp]
  00a35	03 8d 8c fc ff
	ff		 add	 ecx, DWORD PTR _imaSize$198596[ebp]
  00a3b	3b 8d 6c ff ff
	ff		 cmp	 ecx, DWORD PTR _rectItem$[ebp+8]
  00a41	7e 12		 jle	 SHORT $L198601

; 280  : 				{
; 281  : 					imaSize.cx = rectItem.right - p.x;

  00a43	8b 95 6c ff ff
	ff		 mov	 edx, DWORD PTR _rectItem$[ebp+8]
  00a49	2b 95 94 fc ff
	ff		 sub	 edx, DWORD PTR _p$198597[ebp]
  00a4f	89 95 8c fc ff
	ff		 mov	 DWORD PTR _imaSize$198596[ebp], edx
$L198601:

; 282  : 				}
; 283  : 				pBmp->SetCDibRect(CRect(p, imaSize));

  00a55	8b 85 8c fc ff
	ff		 mov	 eax, DWORD PTR _imaSize$198596[ebp]
  00a5b	89 85 38 fc ff
	ff		 mov	 DWORD PTR $T199232[ebp], eax
  00a61	8b 8d 90 fc ff
	ff		 mov	 ecx, DWORD PTR _imaSize$198596[ebp+4]
  00a67	89 8d 3c fc ff
	ff		 mov	 DWORD PTR $T199232[ebp+4], ecx
  00a6d	8b 95 94 fc ff
	ff		 mov	 edx, DWORD PTR _p$198597[ebp]
  00a73	89 95 30 fc ff
	ff		 mov	 DWORD PTR $T199233[ebp], edx
  00a79	8b 85 98 fc ff
	ff		 mov	 eax, DWORD PTR _p$198597[ebp+4]
  00a7f	89 85 34 fc ff
	ff		 mov	 DWORD PTR $T199233[ebp+4], eax
  00a85	8b 8d 3c fc ff
	ff		 mov	 ecx, DWORD PTR $T199232[ebp+4]
  00a8b	51		 push	 ecx
  00a8c	8b 95 38 fc ff
	ff		 mov	 edx, DWORD PTR $T199232[ebp]
  00a92	52		 push	 edx
  00a93	8b 85 34 fc ff
	ff		 mov	 eax, DWORD PTR $T199233[ebp+4]
  00a99	50		 push	 eax
  00a9a	8b 8d 30 fc ff
	ff		 mov	 ecx, DWORD PTR $T199233[ebp]
  00aa0	51		 push	 ecx
  00aa1	8d 8d 40 fc ff
	ff		 lea	 ecx, DWORD PTR $T199231[ebp]
  00aa7	e8 00 00 00 00	 call	 ??0CRect@@QAE@UtagPOINT@@UtagSIZE@@@Z ; CRect::CRect
  00aac	83 ec 10	 sub	 esp, 16			; 00000010H
  00aaf	8b d4		 mov	 edx, esp
  00ab1	8b 08		 mov	 ecx, DWORD PTR [eax]
  00ab3	89 0a		 mov	 DWORD PTR [edx], ecx
  00ab5	8b 48 04	 mov	 ecx, DWORD PTR [eax+4]
  00ab8	89 4a 04	 mov	 DWORD PTR [edx+4], ecx
  00abb	8b 48 08	 mov	 ecx, DWORD PTR [eax+8]
  00abe	89 4a 08	 mov	 DWORD PTR [edx+8], ecx
  00ac1	8b 40 0c	 mov	 eax, DWORD PTR [eax+12]
  00ac4	89 42 0c	 mov	 DWORD PTR [edx+12], eax
  00ac7	8b 8d 88 fc ff
	ff		 mov	 ecx, DWORD PTR _pBmp$198593[ebp]
  00acd	e8 00 00 00 00	 call	 ?SetCDibRect@CDibBitmap@@QAEXVCRect@@@Z ; CDibBitmap::SetCDibRect

; 284  : 				pBmp->Draw(&hdcMem,  true);

  00ad2	6a 01		 push	 1
  00ad4	6a 00		 push	 0
  00ad6	6a 01		 push	 1
  00ad8	8d 4d e0	 lea	 ecx, DWORD PTR _hdcMem$[ebp]
  00adb	51		 push	 ecx
  00adc	8b 8d 88 fc ff
	ff		 mov	 ecx, DWORD PTR _pBmp$198593[ebp]
  00ae2	e8 00 00 00 00	 call	 ?Draw@CDibBitmap@@QAEHPAVCDC@@HKH@Z ; CDibBitmap::Draw
$L198592:

; 285  : 			}
; 286  : 		}
; 287  : 	}

  00ae7	e9 e2 fa ff ff	 jmp	 $L198574
$L198575:

; 288  : 
; 289  : 	GetClientRect(&rect);

  00aec	8d 55 d0	 lea	 edx, DWORD PTR _rect$[ebp]
  00aef	52		 push	 edx
  00af0	8b 8d 2c fc ff
	ff		 mov	 ecx, DWORD PTR _this$[ebp]
  00af6	e8 00 00 00 00	 call	 ?GetClientRect@CWnd@@QBEXPAUtagRECT@@@Z ; CWnd::GetClientRect

; 290  : 	dc.BitBlt(rect.TopLeft().x,rect.TopLeft().y,rect.Width(),rect.Height(),&hdcMem,0,0,SRCCOPY);

  00afb	68 20 00 cc 00	 push	 13369376		; 00cc0020H
  00b00	6a 00		 push	 0
  00b02	6a 00		 push	 0
  00b04	8d 45 e0	 lea	 eax, DWORD PTR _hdcMem$[ebp]
  00b07	50		 push	 eax
  00b08	8d 4d d0	 lea	 ecx, DWORD PTR _rect$[ebp]
  00b0b	e8 00 00 00 00	 call	 ?Height@CRect@@QBEHXZ	; CRect::Height
  00b10	50		 push	 eax
  00b11	8d 4d d0	 lea	 ecx, DWORD PTR _rect$[ebp]
  00b14	e8 00 00 00 00	 call	 ?Width@CRect@@QBEHXZ	; CRect::Width
  00b19	50		 push	 eax
  00b1a	8d 4d d0	 lea	 ecx, DWORD PTR _rect$[ebp]
  00b1d	e8 00 00 00 00	 call	 ?TopLeft@CRect@@QAEAAVCPoint@@XZ ; CRect::TopLeft
  00b22	8b 48 04	 mov	 ecx, DWORD PTR [eax+4]
  00b25	51		 push	 ecx
  00b26	8d 4d d0	 lea	 ecx, DWORD PTR _rect$[ebp]
  00b29	e8 00 00 00 00	 call	 ?TopLeft@CRect@@QAEAAVCPoint@@XZ ; CRect::TopLeft
  00b2e	8b 10		 mov	 edx, DWORD PTR [eax]
  00b30	52		 push	 edx
  00b31	8d 8d 74 ff ff
	ff		 lea	 ecx, DWORD PTR _dc$[ebp]
  00b37	e8 00 00 00 00	 call	 ?BitBlt@CDC@@QAEHHHHHPAV1@HHK@Z ; CDC::BitBlt

; 291  : 
; 292  : 	hdcMem.SelectObject(def_font);

  00b3c	8b 45 f0	 mov	 eax, DWORD PTR _def_font$[ebp]
  00b3f	50		 push	 eax
  00b40	8d 4d e0	 lea	 ecx, DWORD PTR _hdcMem$[ebp]
  00b43	e8 00 00 00 00	 call	 ?SelectObject@CDC@@UAEPAVCFont@@PAV2@@Z ; CDC::SelectObject

; 293  : 	font.DeleteObject();

  00b48	8d 8d 14 ff ff
	ff		 lea	 ecx, DWORD PTR _font$[ebp]
  00b4e	e8 00 00 00 00	 call	 ?DeleteObject@CGdiObject@@QAEHXZ ; CGdiObject::DeleteObject

; 294  : }

  00b53	c6 45 fc 02	 mov	 BYTE PTR __$EHRec$[ebp+8], 2
  00b57	8d 8d 14 ff ff
	ff		 lea	 ecx, DWORD PTR _font$[ebp]
  00b5d	e8 00 00 00 00	 call	 ??1CFont@@UAE@XZ	; CFont::~CFont
  00b62	c6 45 fc 01	 mov	 BYTE PTR __$EHRec$[ebp+8], 1
  00b66	8d 8d 20 ff ff
	ff		 lea	 ecx, DWORD PTR _hBitmap$[ebp]
  00b6c	e8 00 00 00 00	 call	 ??1CBitmap@@UAE@XZ	; CBitmap::~CBitmap
  00b71	c6 45 fc 00	 mov	 BYTE PTR __$EHRec$[ebp+8], 0
  00b75	8d 4d e0	 lea	 ecx, DWORD PTR _hdcMem$[ebp]
  00b78	e8 00 00 00 00	 call	 ??1CDC@@UAE@XZ		; CDC::~CDC
  00b7d	c7 45 fc ff ff
	ff ff		 mov	 DWORD PTR __$EHRec$[ebp+8], -1
  00b84	8d 8d 74 ff ff
	ff		 lea	 ecx, DWORD PTR _dc$[ebp]
  00b8a	e8 00 00 00 00	 call	 ??1CPaintDC@@UAE@XZ	; CPaintDC::~CPaintDC
  00b8f	8b 4d f4	 mov	 ecx, DWORD PTR __$EHRec$[ebp]
  00b92	64 89 0d 00 00
	00 00		 mov	 DWORD PTR fs:__except_list, ecx
  00b99	8b 4d cc	 mov	 ecx, DWORD PTR __$ArrayPad$[ebp]
  00b9c	e8 00 00 00 00	 call	 @__security_check_cookie@4
  00ba1	5e		 pop	 esi
  00ba2	8b e5		 mov	 esp, ebp
  00ba4	5d		 pop	 ebp
  00ba5	c3		 ret	 0
_TEXT	ENDS
text$x	SEGMENT
$L199234:
  0002f	8d 8d 74 ff ff
	ff		 lea	 ecx, DWORD PTR _dc$[ebp]
  00035	e9 00 00 00 00	 jmp	 ??1CPaintDC@@UAE@XZ	; CPaintDC::~CPaintDC
$L199235:
  0003a	8d 4d e0	 lea	 ecx, DWORD PTR _hdcMem$[ebp]
  0003d	e9 00 00 00 00	 jmp	 ??1CDC@@UAE@XZ		; CDC::~CDC
$L199236:
  00042	8d 8d 20 ff ff
	ff		 lea	 ecx, DWORD PTR _hBitmap$[ebp]
  00048	e9 00 00 00 00	 jmp	 ??1CBitmap@@UAE@XZ	; CBitmap::~CBitmap
$L199237:
  0004d	8d 8d 14 ff ff
	ff		 lea	 ecx, DWORD PTR _font$[ebp]
  00053	e9 00 00 00 00	 jmp	 ??1CFont@@UAE@XZ	; CFont::~CFont
$L199238:
  00058	8d 8d 64 fc ff
	ff		 lea	 ecx, DWORD PTR $T199227[ebp]
  0005e	ff 25 00 00 00
	00		 jmp	 DWORD PTR __imp_??1?$CStringT@DV?$StrTraitMFC_DLL@DV?$ChTraitsCRT@D@ATL@@@@@ATL@@QAE@XZ
$L199239:
  00064	8d 8d 60 fc ff
	ff		 lea	 ecx, DWORD PTR $T199228[ebp]
  0006a	ff 25 00 00 00
	00		 jmp	 DWORD PTR __imp_??1?$CStringT@DV?$StrTraitMFC_DLL@DV?$ChTraitsCRT@D@ATL@@@@@ATL@@QAE@XZ
__ehhandler$?OnPaint@CMyHeaderCtrl@@QAEXXZ:
  00070	b8 00 00 00 00	 mov	 eax, OFFSET FLAT:$T199241
  00075	e9 00 00 00 00	 jmp	 ___CxxFrameHandler
text$x	ENDS
?OnPaint@CMyHeaderCtrl@@QAEXXZ ENDP			; CMyHeaderCtrl::OnPaint
; Function compile flags: /Odt
_TEXT	SEGMENT
_this$ = -4						; size = 4
_pDC$ = 8						; size = 4
?OnEraseBkgnd@CMyHeaderCtrl@@QAEHPAVCDC@@@Z PROC NEAR	; CMyHeaderCtrl::OnEraseBkgnd
; _this$ = ecx

; 297  : {

  00bb0	55		 push	 ebp
  00bb1	8b ec		 mov	 ebp, esp
  00bb3	51		 push	 ecx
  00bb4	89 4d fc	 mov	 DWORD PTR _this$[ebp], ecx

; 298  : 	return true;

  00bb7	b8 01 00 00 00	 mov	 eax, 1

; 299  : }

  00bbc	8b e5		 mov	 esp, ebp
  00bbe	5d		 pop	 ebp
  00bbf	c2 04 00	 ret	 4
?OnEraseBkgnd@CMyHeaderCtrl@@QAEHPAVCDC@@@Z ENDP	; CMyHeaderCtrl::OnEraseBkgnd
; Function compile flags: /Odt
_this$ = -4						; size = 4
_wp$ = 8						; size = 4
_lp$ = 12						; size = 4
?OnMouseLeave@CMyHeaderCtrl@@QAEJIJ@Z PROC NEAR		; CMyHeaderCtrl::OnMouseLeave
; _this$ = ecx

; 302  : {

  00bd0	55		 push	 ebp
  00bd1	8b ec		 mov	 ebp, esp
  00bd3	51		 push	 ecx
  00bd4	89 4d fc	 mov	 DWORD PTR _this$[ebp], ecx

; 303  : 	m_bTrackMouse = false;

  00bd7	8b 45 fc	 mov	 eax, DWORD PTR _this$[ebp]
  00bda	c6 40 74 00	 mov	 BYTE PTR [eax+116], 0

; 304  : 	
; 305  : 	m_nHoverItem = -1;

  00bde	8b 4d fc	 mov	 ecx, DWORD PTR _this$[ebp]
  00be1	c7 41 70 ff ff
	ff ff		 mov	 DWORD PTR [ecx+112], -1

; 306  : 	Invalidate();

  00be8	6a 01		 push	 1
  00bea	8b 4d fc	 mov	 ecx, DWORD PTR _this$[ebp]
  00bed	e8 00 00 00 00	 call	 ?Invalidate@CWnd@@QAEXH@Z ; CWnd::Invalidate

; 307  : 	return 1;

  00bf2	b8 01 00 00 00	 mov	 eax, 1

; 308  : }

  00bf7	8b e5		 mov	 esp, ebp
  00bf9	5d		 pop	 ebp
  00bfa	c2 08 00	 ret	 8
?OnMouseLeave@CMyHeaderCtrl@@QAEJIJ@Z ENDP		; CMyHeaderCtrl::OnMouseLeave
_TEXT	ENDS
PUBLIC	?OnLButtonDown@CWnd@@IAEXIVCPoint@@@Z		; CWnd::OnLButtonDown
; Function compile flags: /Odt
_TEXT	SEGMENT
_this$ = -4						; size = 4
_nFlags$ = 8						; size = 4
_point$ = 12						; size = 8
?OnLButtonDown@CMyHeaderCtrl@@QAEXIVCPoint@@@Z PROC NEAR ; CMyHeaderCtrl::OnLButtonDown
; _this$ = ecx

; 311  : {

  00c00	55		 push	 ebp
  00c01	8b ec		 mov	 ebp, esp
  00c03	51		 push	 ecx
  00c04	89 4d fc	 mov	 DWORD PTR _this$[ebp], ecx

; 312  : 	m_bLButtonDown = true;

  00c07	8b 45 fc	 mov	 eax, DWORD PTR _this$[ebp]
  00c0a	c6 40 75 01	 mov	 BYTE PTR [eax+117], 1

; 313  : 	Invalidate();

  00c0e	6a 01		 push	 1
  00c10	8b 4d fc	 mov	 ecx, DWORD PTR _this$[ebp]
  00c13	e8 00 00 00 00	 call	 ?Invalidate@CWnd@@QAEXH@Z ; CWnd::Invalidate

; 314  : 	__super::OnLButtonDown(nFlags, point);

  00c18	8b 4d 10	 mov	 ecx, DWORD PTR _point$[ebp+4]
  00c1b	51		 push	 ecx
  00c1c	8b 55 0c	 mov	 edx, DWORD PTR _point$[ebp]
  00c1f	52		 push	 edx
  00c20	8b 45 08	 mov	 eax, DWORD PTR _nFlags$[ebp]
  00c23	50		 push	 eax
  00c24	8b 4d fc	 mov	 ecx, DWORD PTR _this$[ebp]
  00c27	e8 00 00 00 00	 call	 ?OnLButtonDown@CWnd@@IAEXIVCPoint@@@Z ; CWnd::OnLButtonDown

; 315  : }

  00c2c	8b e5		 mov	 esp, ebp
  00c2e	5d		 pop	 ebp
  00c2f	c2 0c 00	 ret	 12			; 0000000cH
?OnLButtonDown@CMyHeaderCtrl@@QAEXIVCPoint@@@Z ENDP	; CMyHeaderCtrl::OnLButtonDown
_TEXT	ENDS
PUBLIC	?OnLButtonUp@CWnd@@IAEXIVCPoint@@@Z		; CWnd::OnLButtonUp
; Function compile flags: /Odt
_TEXT	SEGMENT
_this$ = -4						; size = 4
_nFlags$ = 8						; size = 4
_point$ = 12						; size = 8
?OnLButtonUp@CMyHeaderCtrl@@QAEXIVCPoint@@@Z PROC NEAR	; CMyHeaderCtrl::OnLButtonUp
; _this$ = ecx

; 318  : {

  00c40	55		 push	 ebp
  00c41	8b ec		 mov	 ebp, esp
  00c43	51		 push	 ecx
  00c44	89 4d fc	 mov	 DWORD PTR _this$[ebp], ecx

; 319  : 	m_bLButtonDown = false;

  00c47	8b 45 fc	 mov	 eax, DWORD PTR _this$[ebp]
  00c4a	c6 40 75 00	 mov	 BYTE PTR [eax+117], 0

; 320  : 	Invalidate();

  00c4e	6a 01		 push	 1
  00c50	8b 4d fc	 mov	 ecx, DWORD PTR _this$[ebp]
  00c53	e8 00 00 00 00	 call	 ?Invalidate@CWnd@@QAEXH@Z ; CWnd::Invalidate

; 321  : 	__super::OnLButtonUp(nFlags, point);

  00c58	8b 4d 10	 mov	 ecx, DWORD PTR _point$[ebp+4]
  00c5b	51		 push	 ecx
  00c5c	8b 55 0c	 mov	 edx, DWORD PTR _point$[ebp]
  00c5f	52		 push	 edx
  00c60	8b 45 08	 mov	 eax, DWORD PTR _nFlags$[ebp]
  00c63	50		 push	 eax
  00c64	8b 4d fc	 mov	 ecx, DWORD PTR _this$[ebp]
  00c67	e8 00 00 00 00	 call	 ?OnLButtonUp@CWnd@@IAEXIVCPoint@@@Z ; CWnd::OnLButtonUp

; 322  : }

  00c6c	8b e5		 mov	 esp, ebp
  00c6e	5d		 pop	 ebp
  00c6f	c2 0c 00	 ret	 12			; 0000000cH
?OnLButtonUp@CMyHeaderCtrl@@QAEXIVCPoint@@@Z ENDP	; CMyHeaderCtrl::OnLButtonUp
; Function compile flags: /Odt
_this$ = -24						; size = 4
_hdl$ = -20						; size = 4
_pwpos$ = -16						; size = 4
_nHeight$ = -12						; size = 4
_prc$ = -8						; size = 4
_lResult$ = -4						; size = 4
_wParam$ = 8						; size = 4
_lParam$ = 12						; size = 4
?OnLayOut@CMyHeaderCtrl@@QAEJIJ@Z PROC NEAR		; CMyHeaderCtrl::OnLayOut
; _this$ = ecx

; 325  : {

  00c80	55		 push	 ebp
  00c81	8b ec		 mov	 ebp, esp
  00c83	83 ec 18	 sub	 esp, 24			; 00000018H
  00c86	89 4d e8	 mov	 DWORD PTR _this$[ebp], ecx

; 326  : 	LRESULT lResult = CHeaderCtrl::DefWindowProc(HDM_LAYOUT, 0, lParam);   

  00c89	8b 45 0c	 mov	 eax, DWORD PTR _lParam$[ebp]
  00c8c	50		 push	 eax
  00c8d	6a 00		 push	 0
  00c8f	68 05 12 00 00	 push	 4613			; 00001205H
  00c94	8b 4d e8	 mov	 ecx, DWORD PTR _this$[ebp]
  00c97	e8 00 00 00 00	 call	 ?DefWindowProcA@CWnd@@MAEJIIJ@Z ; CWnd::DefWindowProcA
  00c9c	89 45 fc	 mov	 DWORD PTR _lResult$[ebp], eax

; 327  : 
; 328  : 	HD_LAYOUT &hdl = *( HD_LAYOUT * ) lParam;   

  00c9f	8b 4d 0c	 mov	 ecx, DWORD PTR _lParam$[ebp]
  00ca2	89 4d ec	 mov	 DWORD PTR _hdl$[ebp], ecx

; 329  : 
; 330  : 	RECT *prc = hdl.prc;   

  00ca5	8b 55 ec	 mov	 edx, DWORD PTR _hdl$[ebp]
  00ca8	8b 02		 mov	 eax, DWORD PTR [edx]
  00caa	89 45 f8	 mov	 DWORD PTR _prc$[ebp], eax

; 331  : 	WINDOWPOS *pwpos = hdl.pwpos;   

  00cad	8b 4d ec	 mov	 ecx, DWORD PTR _hdl$[ebp]
  00cb0	8b 51 04	 mov	 edx, DWORD PTR [ecx+4]
  00cb3	89 55 f0	 mov	 DWORD PTR _pwpos$[ebp], edx

; 332  : 
; 333  : 	const int nHeight = 20;

  00cb6	c7 45 f4 14 00
	00 00		 mov	 DWORD PTR _nHeight$[ebp], 20 ; 00000014H

; 334  : 	pwpos->cy = nHeight;

  00cbd	8b 45 f0	 mov	 eax, DWORD PTR _pwpos$[ebp]
  00cc0	c7 40 14 14 00
	00 00		 mov	 DWORD PTR [eax+20], 20	; 00000014H

; 335  : 	prc->bottom = nHeight;

  00cc7	8b 4d f8	 mov	 ecx, DWORD PTR _prc$[ebp]
  00cca	c7 41 0c 14 00
	00 00		 mov	 DWORD PTR [ecx+12], 20	; 00000014H

; 336  : 
; 337  : 	return lResult;

  00cd1	8b 45 fc	 mov	 eax, DWORD PTR _lResult$[ebp]

; 338  : }

  00cd4	8b e5		 mov	 esp, ebp
  00cd6	5d		 pop	 ebp
  00cd7	c2 08 00	 ret	 8
?OnLayOut@CMyHeaderCtrl@@QAEJIJ@Z ENDP			; CMyHeaderCtrl::OnLayOut
_TEXT	ENDS
PUBLIC	?InterlockedExchangePointer@@YGPAXPAPAXPAX@Z	; InterlockedExchangePointer
PUBLIC	?_AtlGetThreadACPFake@ATL@@YGIXZ		; ATL::_AtlGetThreadACPFake
PUBLIC	?_AtlGetThreadACPReal@ATL@@YGIXZ		; ATL::_AtlGetThreadACPReal
EXTRN	__imp__GetVersionExA@4:NEAR
; Function compile flags: /Odt
; File d:\program files (x86)\microsoft visual studio .net 2003\vc7\atlmfc\include\atlconv.h
;	COMDAT ?_AtlGetThreadACPThunk@ATL@@YGIXZ
_TEXT	SEGMENT
_pfnGetThreadACP$ = -164				; size = 4
_ver$ = -160						; size = 148
__$ArrayPad$ = -4					; size = 4
__$ReturnAddr$ = 4					; size = 4
?_AtlGetThreadACPThunk@ATL@@YGIXZ PROC NEAR		; ATL::_AtlGetThreadACPThunk, COMDAT

; 134  : {

  00000	55		 push	 ebp
  00001	8b ec		 mov	 ebp, esp
  00003	81 ec a4 00 00
	00		 sub	 esp, 164		; 000000a4H
  00009	a1 00 00 00 00	 mov	 eax, DWORD PTR ___security_cookie
  0000e	89 45 fc	 mov	 DWORD PTR __$ArrayPad$[ebp], eax

; 135  : 	OSVERSIONINFO ver;
; 136  : 	ATLGETTHREADACP pfnGetThreadACP;
; 137  : 
; 138  : 	ver.dwOSVersionInfoSize = sizeof( ver );

  00011	c7 85 60 ff ff
	ff 94 00 00 00	 mov	 DWORD PTR _ver$[ebp], 148 ; 00000094H

; 139  : 	::GetVersionEx( &ver );

  0001b	8d 85 60 ff ff
	ff		 lea	 eax, DWORD PTR _ver$[ebp]
  00021	50		 push	 eax
  00022	ff 15 00 00 00
	00		 call	 DWORD PTR __imp__GetVersionExA@4

; 140  : 	if( (ver.dwPlatformId == VER_PLATFORM_WIN32_NT) && (ver.dwMajorVersion >= 5) )

  00028	83 bd 70 ff ff
	ff 02		 cmp	 DWORD PTR _ver$[ebp+16], 2
  0002f	75 15		 jne	 SHORT $L24173
  00031	83 bd 64 ff ff
	ff 05		 cmp	 DWORD PTR _ver$[ebp+4], 5
  00038	72 0c		 jb	 SHORT $L24173

; 141  : 	{
; 142  : 		// On Win2K, CP_THREAD_ACP is supported
; 143  : 		pfnGetThreadACP = _AtlGetThreadACPReal;

  0003a	c7 85 5c ff ff
	ff 00 00 00 00	 mov	 DWORD PTR _pfnGetThreadACP$[ebp], OFFSET FLAT:?_AtlGetThreadACPReal@ATL@@YGIXZ ; ATL::_AtlGetThreadACPReal

; 144  : 	}
; 145  : 	else

  00044	eb 0a		 jmp	 SHORT $L24174
$L24173:

; 146  : 	{
; 147  : 		pfnGetThreadACP = _AtlGetThreadACPFake;

  00046	c7 85 5c ff ff
	ff 00 00 00 00	 mov	 DWORD PTR _pfnGetThreadACP$[ebp], OFFSET FLAT:?_AtlGetThreadACPFake@ATL@@YGIXZ ; ATL::_AtlGetThreadACPFake
$L24174:

; 148  : 	}
; 149  : 	InterlockedExchangePointer( reinterpret_cast< void** >(&g_pfnGetThreadACP), pfnGetThreadACP );

  00050	8b 8d 5c ff ff
	ff		 mov	 ecx, DWORD PTR _pfnGetThreadACP$[ebp]
  00056	51		 push	 ecx
  00057	68 00 00 00 00	 push	 OFFSET FLAT:?g_pfnGetThreadACP@ATL@@3P6GIXZA ; ATL::g_pfnGetThreadACP
  0005c	e8 00 00 00 00	 call	 ?InterlockedExchangePointer@@YGPAXPAPAXPAX@Z ; InterlockedExchangePointer

; 150  : 
; 151  : 	return( g_pfnGetThreadACP() );

  00061	ff 15 00 00 00
	00		 call	 DWORD PTR ?g_pfnGetThreadACP@ATL@@3P6GIXZA ; ATL::g_pfnGetThreadACP

; 152  : }

  00067	8b 4d fc	 mov	 ecx, DWORD PTR __$ArrayPad$[ebp]
  0006a	e8 00 00 00 00	 call	 @__security_check_cookie@4
  0006f	8b e5		 mov	 esp, ebp
  00071	5d		 pop	 ebp
  00072	c3		 ret	 0
?_AtlGetThreadACPThunk@ATL@@YGIXZ ENDP			; ATL::_AtlGetThreadACPThunk
_TEXT	ENDS
EXTRN	__imp__InterlockedExchange@8:NEAR
; Function compile flags: /Odt
;	COMDAT ?InterlockedExchangePointer@@YGPAXPAPAXPAX@Z
_TEXT	SEGMENT
_pp$ = 8						; size = 4
_pNew$ = 12						; size = 4
?InterlockedExchangePointer@@YGPAXPAPAXPAX@Z PROC NEAR	; InterlockedExchangePointer, COMDAT

; 91   : {

  00000	55		 push	 ebp
  00001	8b ec		 mov	 ebp, esp

; 92   : 	return( reinterpret_cast<void*>(static_cast<LONG_PTR>(::InterlockedExchange(reinterpret_cast<LONG*>(pp), static_cast<LONG>(reinterpret_cast<LONG_PTR>(pNew))))) );

  00003	8b 45 0c	 mov	 eax, DWORD PTR _pNew$[ebp]
  00006	50		 push	 eax
  00007	8b 4d 08	 mov	 ecx, DWORD PTR _pp$[ebp]
  0000a	51		 push	 ecx
  0000b	ff 15 00 00 00
	00		 call	 DWORD PTR __imp__InterlockedExchange@8

; 93   : }

  00011	5d		 pop	 ebp
  00012	c2 08 00	 ret	 8
?InterlockedExchangePointer@@YGPAXPAPAXPAX@Z ENDP	; InterlockedExchangePointer
_TEXT	ENDS
EXTRN	__imp__GetACP@0:NEAR
EXTRN	__imp__GetLocaleInfoA@16:NEAR
EXTRN	__imp__GetThreadLocale@0:NEAR
; Function compile flags: /Odt
;	COMDAT ?_AtlGetThreadACPFake@ATL@@YGIXZ
_TEXT	SEGMENT
_pch$24161 = -24					; size = 4
_lcidThread$ = -20					; size = 4
_szACP$ = -16						; size = 7
__$ArrayPad$ = -8					; size = 4
_nACP$ = -4						; size = 4
__$ReturnAddr$ = 4					; size = 4
?_AtlGetThreadACPFake@ATL@@YGIXZ PROC NEAR		; ATL::_AtlGetThreadACPFake, COMDAT

; 101  : {

  00000	55		 push	 ebp
  00001	8b ec		 mov	 ebp, esp
  00003	83 ec 18	 sub	 esp, 24			; 00000018H
  00006	a1 00 00 00 00	 mov	 eax, DWORD PTR ___security_cookie
  0000b	89 45 f8	 mov	 DWORD PTR __$ArrayPad$[ebp], eax

; 102  : 	UINT nACP = 0;

  0000e	c7 45 fc 00 00
	00 00		 mov	 DWORD PTR _nACP$[ebp], 0

; 103  : 
; 104  : 	LCID lcidThread = ::GetThreadLocale();

  00015	ff 15 00 00 00
	00		 call	 DWORD PTR __imp__GetThreadLocale@0
  0001b	89 45 ec	 mov	 DWORD PTR _lcidThread$[ebp], eax

; 105  : 
; 106  : 	char szACP[7];
; 107  : 	// GetLocaleInfoA will fail for a Unicode-only LCID, but those are only supported on 
; 108  : 	// Windows 2000.  Since Windows 2000 supports CP_THREAD_ACP, this code path is never
; 109  : 	// executed on Windows 2000.
; 110  : 	if (::GetLocaleInfoA(lcidThread, LOCALE_IDEFAULTANSICODEPAGE, szACP, 7) != 0)

  0001e	6a 07		 push	 7
  00020	8d 45 f0	 lea	 eax, DWORD PTR _szACP$[ebp]
  00023	50		 push	 eax
  00024	68 04 10 00 00	 push	 4100			; 00001004H
  00029	8b 4d ec	 mov	 ecx, DWORD PTR _lcidThread$[ebp]
  0002c	51		 push	 ecx
  0002d	ff 15 00 00 00
	00		 call	 DWORD PTR __imp__GetLocaleInfoA@16
  00033	85 c0		 test	 eax, eax
  00035	74 34		 je	 SHORT $L24160

; 111  : 	{
; 112  : 		char* pch = szACP;

  00037	8d 55 f0	 lea	 edx, DWORD PTR _szACP$[ebp]
  0003a	89 55 e8	 mov	 DWORD PTR _pch$24161[ebp], edx
$L24163:

; 113  : 		while (*pch != '\0')

  0003d	8b 45 e8	 mov	 eax, DWORD PTR _pch$24161[ebp]
  00040	0f be 08	 movsx	 ecx, BYTE PTR [eax]
  00043	85 c9		 test	 ecx, ecx
  00045	74 24		 je	 SHORT $L24160

; 114  : 		{
; 115  : 			nACP *= 10;

  00047	8b 55 fc	 mov	 edx, DWORD PTR _nACP$[ebp]
  0004a	6b d2 0a	 imul	 edx, 10			; 0000000aH
  0004d	89 55 fc	 mov	 DWORD PTR _nACP$[ebp], edx

; 116  : 			nACP += *pch++ - '0';

  00050	8b 45 e8	 mov	 eax, DWORD PTR _pch$24161[ebp]
  00053	0f be 08	 movsx	 ecx, BYTE PTR [eax]
  00056	8b 55 fc	 mov	 edx, DWORD PTR _nACP$[ebp]
  00059	8d 44 0a d0	 lea	 eax, DWORD PTR [edx+ecx-48]
  0005d	89 45 fc	 mov	 DWORD PTR _nACP$[ebp], eax
  00060	8b 4d e8	 mov	 ecx, DWORD PTR _pch$24161[ebp]
  00063	83 c1 01	 add	 ecx, 1
  00066	89 4d e8	 mov	 DWORD PTR _pch$24161[ebp], ecx

; 117  : 		}

  00069	eb d2		 jmp	 SHORT $L24163
$L24160:

; 118  : 	}
; 119  : 	// Use the Default ANSI Code Page if we were unable to get the thread ACP or if one does not exist.
; 120  : 	if (nACP == 0)

  0006b	83 7d fc 00	 cmp	 DWORD PTR _nACP$[ebp], 0
  0006f	75 09		 jne	 SHORT $L24165

; 121  : 		nACP = ::GetACP();

  00071	ff 15 00 00 00
	00		 call	 DWORD PTR __imp__GetACP@0
  00077	89 45 fc	 mov	 DWORD PTR _nACP$[ebp], eax
$L24165:

; 122  : 
; 123  : 	return nACP;

  0007a	8b 45 fc	 mov	 eax, DWORD PTR _nACP$[ebp]

; 124  : }

  0007d	8b 4d f8	 mov	 ecx, DWORD PTR __$ArrayPad$[ebp]
  00080	e8 00 00 00 00	 call	 @__security_check_cookie@4
  00085	8b e5		 mov	 esp, ebp
  00087	5d		 pop	 ebp
  00088	c3		 ret	 0
?_AtlGetThreadACPFake@ATL@@YGIXZ ENDP			; ATL::_AtlGetThreadACPFake
; Function compile flags: /Odt
_TEXT	ENDS
;	COMDAT ?_AtlGetThreadACPReal@ATL@@YGIXZ
_TEXT	SEGMENT
?_AtlGetThreadACPReal@ATL@@YGIXZ PROC NEAR		; ATL::_AtlGetThreadACPReal, COMDAT

; 127  : {

  00000	55		 push	 ebp
  00001	8b ec		 mov	 ebp, esp

; 128  : 	return( CP_THREAD_ACP );

  00003	b8 03 00 00 00	 mov	 eax, 3

; 129  : }

  00008	5d		 pop	 ebp
  00009	c3		 ret	 0
?_AtlGetThreadACPReal@ATL@@YGIXZ ENDP			; ATL::_AtlGetThreadACPReal
; Function compile flags: /Odt
; File d:\program files (x86)\microsoft visual studio .net 2003\vc7\atlmfc\include\atltypes.inl
_TEXT	ENDS
;	COMDAT ??0CSize@@QAE@XZ
_TEXT	SEGMENT
_this$ = -4						; size = 4
??0CSize@@QAE@XZ PROC NEAR				; CSize::CSize, COMDAT
; _this$ = ecx

; 22   : 	{ /* random filled */ }

  00000	55		 push	 ebp
  00001	8b ec		 mov	 ebp, esp
  00003	51		 push	 ecx
  00004	89 4d fc	 mov	 DWORD PTR _this$[ebp], ecx
  00007	8b 45 fc	 mov	 eax, DWORD PTR _this$[ebp]
  0000a	8b e5		 mov	 esp, ebp
  0000c	5d		 pop	 ebp
  0000d	c3		 ret	 0
??0CSize@@QAE@XZ ENDP					; CSize::CSize
; Function compile flags: /Odt
_TEXT	ENDS
;	COMDAT ??0CPoint@@QAE@XZ
_TEXT	SEGMENT
_this$ = -4						; size = 4
??0CPoint@@QAE@XZ PROC NEAR				; CPoint::CPoint, COMDAT
; _this$ = ecx

; 61   : 	{ /* random filled */ }

  00000	55		 push	 ebp
  00001	8b ec		 mov	 ebp, esp
  00003	51		 push	 ecx
  00004	89 4d fc	 mov	 DWORD PTR _this$[ebp], ecx
  00007	8b 45 fc	 mov	 eax, DWORD PTR _this$[ebp]
  0000a	8b e5		 mov	 esp, ebp
  0000c	5d		 pop	 ebp
  0000d	c3		 ret	 0
??0CPoint@@QAE@XZ ENDP					; CPoint::CPoint
; Function compile flags: /Odt
_TEXT	ENDS
;	COMDAT ??0CPoint@@QAE@HH@Z
_TEXT	SEGMENT
_this$ = -4						; size = 4
_initX$ = 8						; size = 4
_initY$ = 12						; size = 4
??0CPoint@@QAE@HH@Z PROC NEAR				; CPoint::CPoint, COMDAT
; _this$ = ecx

; 63   : 	{ x = initX; y = initY; }

  00000	55		 push	 ebp
  00001	8b ec		 mov	 ebp, esp
  00003	51		 push	 ecx
  00004	89 4d fc	 mov	 DWORD PTR _this$[ebp], ecx
  00007	8b 45 fc	 mov	 eax, DWORD PTR _this$[ebp]
  0000a	8b 4d 08	 mov	 ecx, DWORD PTR _initX$[ebp]
  0000d	89 08		 mov	 DWORD PTR [eax], ecx
  0000f	8b 55 fc	 mov	 edx, DWORD PTR _this$[ebp]
  00012	8b 45 0c	 mov	 eax, DWORD PTR _initY$[ebp]
  00015	89 42 04	 mov	 DWORD PTR [edx+4], eax
  00018	8b 45 fc	 mov	 eax, DWORD PTR _this$[ebp]
  0001b	8b e5		 mov	 esp, ebp
  0001d	5d		 pop	 ebp
  0001e	c2 08 00	 ret	 8
??0CPoint@@QAE@HH@Z ENDP				; CPoint::CPoint
; Function compile flags: /Odt
_TEXT	ENDS
;	COMDAT ??8CPoint@@QBEHUtagPOINT@@@Z
_TEXT	SEGMENT
tv67 = -8						; size = 4
_this$ = -4						; size = 4
_point$ = 8						; size = 8
??8CPoint@@QBEHUtagPOINT@@@Z PROC NEAR			; CPoint::operator==, COMDAT
; _this$ = ecx

; 82   : 	{ return (x == point.x && y == point.y); }

  00000	55		 push	 ebp
  00001	8b ec		 mov	 ebp, esp
  00003	83 ec 08	 sub	 esp, 8
  00006	89 4d fc	 mov	 DWORD PTR _this$[ebp], ecx
  00009	8b 45 fc	 mov	 eax, DWORD PTR _this$[ebp]
  0000c	8b 08		 mov	 ecx, DWORD PTR [eax]
  0000e	3b 4d 08	 cmp	 ecx, DWORD PTR _point$[ebp]
  00011	75 14		 jne	 SHORT $L199271
  00013	8b 55 fc	 mov	 edx, DWORD PTR _this$[ebp]
  00016	8b 42 04	 mov	 eax, DWORD PTR [edx+4]
  00019	3b 45 0c	 cmp	 eax, DWORD PTR _point$[ebp+4]
  0001c	75 09		 jne	 SHORT $L199271
  0001e	c7 45 f8 01 00
	00 00		 mov	 DWORD PTR tv67[ebp], 1
  00025	eb 07		 jmp	 SHORT $L199272
$L199271:
  00027	c7 45 f8 00 00
	00 00		 mov	 DWORD PTR tv67[ebp], 0
$L199272:
  0002e	8b 45 f8	 mov	 eax, DWORD PTR tv67[ebp]
  00031	8b e5		 mov	 esp, ebp
  00033	5d		 pop	 ebp
  00034	c2 08 00	 ret	 8
??8CPoint@@QBEHUtagPOINT@@@Z ENDP			; CPoint::operator==
; Function compile flags: /Odt
_TEXT	ENDS
;	COMDAT ??0CRect@@QAE@XZ
_TEXT	SEGMENT
_this$ = -4						; size = 4
??0CRect@@QAE@XZ PROC NEAR				; CRect::CRect, COMDAT
; _this$ = ecx

; 110  : 	{ /* random filled */ }

  00000	55		 push	 ebp
  00001	8b ec		 mov	 ebp, esp
  00003	51		 push	 ecx
  00004	89 4d fc	 mov	 DWORD PTR _this$[ebp], ecx
  00007	8b 45 fc	 mov	 eax, DWORD PTR _this$[ebp]
  0000a	8b e5		 mov	 esp, ebp
  0000c	5d		 pop	 ebp
  0000d	c3		 ret	 0
??0CRect@@QAE@XZ ENDP					; CRect::CRect
; Function compile flags: /Odt
_TEXT	ENDS
;	COMDAT ??0CRect@@QAE@HHHH@Z
_TEXT	SEGMENT
_this$ = -4						; size = 4
_l$ = 8							; size = 4
_t$ = 12						; size = 4
_r$ = 16						; size = 4
_b$ = 20						; size = 4
??0CRect@@QAE@HHHH@Z PROC NEAR				; CRect::CRect, COMDAT
; _this$ = ecx

; 112  : 	{ left = l; top = t; right = r; bottom = b; }

  00000	55		 push	 ebp
  00001	8b ec		 mov	 ebp, esp
  00003	51		 push	 ecx
  00004	89 4d fc	 mov	 DWORD PTR _this$[ebp], ecx
  00007	8b 45 fc	 mov	 eax, DWORD PTR _this$[ebp]
  0000a	8b 4d 08	 mov	 ecx, DWORD PTR _l$[ebp]
  0000d	89 08		 mov	 DWORD PTR [eax], ecx
  0000f	8b 55 fc	 mov	 edx, DWORD PTR _this$[ebp]
  00012	8b 45 0c	 mov	 eax, DWORD PTR _t$[ebp]
  00015	89 42 04	 mov	 DWORD PTR [edx+4], eax
  00018	8b 4d fc	 mov	 ecx, DWORD PTR _this$[ebp]
  0001b	8b 55 10	 mov	 edx, DWORD PTR _r$[ebp]
  0001e	89 51 08	 mov	 DWORD PTR [ecx+8], edx
  00021	8b 45 fc	 mov	 eax, DWORD PTR _this$[ebp]
  00024	8b 4d 14	 mov	 ecx, DWORD PTR _b$[ebp]
  00027	89 48 0c	 mov	 DWORD PTR [eax+12], ecx
  0002a	8b 45 fc	 mov	 eax, DWORD PTR _this$[ebp]
  0002d	8b e5		 mov	 esp, ebp
  0002f	5d		 pop	 ebp
  00030	c2 10 00	 ret	 16			; 00000010H
??0CRect@@QAE@HHHH@Z ENDP				; CRect::CRect
; Function compile flags: /Odt
_TEXT	ENDS
;	COMDAT ??0CRect@@QAE@UtagPOINT@@UtagSIZE@@@Z
_TEXT	SEGMENT
_this$ = -4						; size = 4
_point$ = 8						; size = 8
_size$ = 16						; size = 8
??0CRect@@QAE@UtagPOINT@@UtagSIZE@@@Z PROC NEAR		; CRect::CRect, COMDAT
; _this$ = ecx

; 118  : 	{ right = (left = point.x) + size.cx; bottom = (top = point.y) + size.cy; }

  00000	55		 push	 ebp
  00001	8b ec		 mov	 ebp, esp
  00003	51		 push	 ecx
  00004	89 4d fc	 mov	 DWORD PTR _this$[ebp], ecx
  00007	8b 45 fc	 mov	 eax, DWORD PTR _this$[ebp]
  0000a	8b 4d 08	 mov	 ecx, DWORD PTR _point$[ebp]
  0000d	89 08		 mov	 DWORD PTR [eax], ecx
  0000f	8b 55 08	 mov	 edx, DWORD PTR _point$[ebp]
  00012	03 55 10	 add	 edx, DWORD PTR _size$[ebp]
  00015	8b 45 fc	 mov	 eax, DWORD PTR _this$[ebp]
  00018	89 50 08	 mov	 DWORD PTR [eax+8], edx
  0001b	8b 4d fc	 mov	 ecx, DWORD PTR _this$[ebp]
  0001e	8b 55 0c	 mov	 edx, DWORD PTR _point$[ebp+4]
  00021	89 51 04	 mov	 DWORD PTR [ecx+4], edx
  00024	8b 45 0c	 mov	 eax, DWORD PTR _point$[ebp+4]
  00027	03 45 14	 add	 eax, DWORD PTR _size$[ebp+4]
  0002a	8b 4d fc	 mov	 ecx, DWORD PTR _this$[ebp]
  0002d	89 41 0c	 mov	 DWORD PTR [ecx+12], eax
  00030	8b 45 fc	 mov	 eax, DWORD PTR _this$[ebp]
  00033	8b e5		 mov	 esp, ebp
  00035	5d		 pop	 ebp
  00036	c2 10 00	 ret	 16			; 00000010H
??0CRect@@QAE@UtagPOINT@@UtagSIZE@@@Z ENDP		; CRect::CRect
; Function compile flags: /Odt
_TEXT	ENDS
;	COMDAT ?Width@CRect@@QBEHXZ
_TEXT	SEGMENT
_this$ = -4						; size = 4
?Width@CRect@@QBEHXZ PROC NEAR				; CRect::Width, COMDAT
; _this$ = ecx

; 123  : 	{ return right - left; }

  00000	55		 push	 ebp
  00001	8b ec		 mov	 ebp, esp
  00003	51		 push	 ecx
  00004	89 4d fc	 mov	 DWORD PTR _this$[ebp], ecx
  00007	8b 45 fc	 mov	 eax, DWORD PTR _this$[ebp]
  0000a	8b 4d fc	 mov	 ecx, DWORD PTR _this$[ebp]
  0000d	8b 40 08	 mov	 eax, DWORD PTR [eax+8]
  00010	2b 01		 sub	 eax, DWORD PTR [ecx]
  00012	8b e5		 mov	 esp, ebp
  00014	5d		 pop	 ebp
  00015	c3		 ret	 0
?Width@CRect@@QBEHXZ ENDP				; CRect::Width
; Function compile flags: /Odt
_TEXT	ENDS
;	COMDAT ?Height@CRect@@QBEHXZ
_TEXT	SEGMENT
_this$ = -4						; size = 4
?Height@CRect@@QBEHXZ PROC NEAR				; CRect::Height, COMDAT
; _this$ = ecx

; 125  : 	{ return bottom - top; }

  00000	55		 push	 ebp
  00001	8b ec		 mov	 ebp, esp
  00003	51		 push	 ecx
  00004	89 4d fc	 mov	 DWORD PTR _this$[ebp], ecx
  00007	8b 45 fc	 mov	 eax, DWORD PTR _this$[ebp]
  0000a	8b 4d fc	 mov	 ecx, DWORD PTR _this$[ebp]
  0000d	8b 40 0c	 mov	 eax, DWORD PTR [eax+12]
  00010	2b 41 04	 sub	 eax, DWORD PTR [ecx+4]
  00013	8b e5		 mov	 esp, ebp
  00015	5d		 pop	 ebp
  00016	c3		 ret	 0
?Height@CRect@@QBEHXZ ENDP				; CRect::Height
; Function compile flags: /Odt
_TEXT	ENDS
;	COMDAT ?TopLeft@CRect@@QAEAAVCPoint@@XZ
_TEXT	SEGMENT
_this$ = -4						; size = 4
?TopLeft@CRect@@QAEAAVCPoint@@XZ PROC NEAR		; CRect::TopLeft, COMDAT
; _this$ = ecx

; 129  : 	{ return *((CPoint*)this); }

  00000	55		 push	 ebp
  00001	8b ec		 mov	 ebp, esp
  00003	51		 push	 ecx
  00004	89 4d fc	 mov	 DWORD PTR _this$[ebp], ecx
  00007	8b 45 fc	 mov	 eax, DWORD PTR _this$[ebp]
  0000a	8b e5		 mov	 esp, ebp
  0000c	5d		 pop	 ebp
  0000d	c3		 ret	 0
?TopLeft@CRect@@QAEAAVCPoint@@XZ ENDP			; CRect::TopLeft
; Function compile flags: /Odt
_TEXT	ENDS
;	COMDAT ?BottomRight@CRect@@QAEAAVCPoint@@XZ
_TEXT	SEGMENT
_this$ = -4						; size = 4
?BottomRight@CRect@@QAEAAVCPoint@@XZ PROC NEAR		; CRect::BottomRight, COMDAT
; _this$ = ecx

; 131  : 	{ return *((CPoint*)this+1); }

  00000	55		 push	 ebp
  00001	8b ec		 mov	 ebp, esp
  00003	51		 push	 ecx
  00004	89 4d fc	 mov	 DWORD PTR _this$[ebp], ecx
  00007	8b 45 fc	 mov	 eax, DWORD PTR _this$[ebp]
  0000a	83 c0 08	 add	 eax, 8
  0000d	8b e5		 mov	 esp, ebp
  0000f	5d		 pop	 ebp
  00010	c3		 ret	 0
?BottomRight@CRect@@QAEAAVCPoint@@XZ ENDP		; CRect::BottomRight
; Function compile flags: /Odt
_TEXT	ENDS
;	COMDAT ?CenterPoint@CRect@@QBE?AVCPoint@@XZ
_TEXT	SEGMENT
_this$ = -4						; size = 4
___$ReturnUdt$ = 8					; size = 4
?CenterPoint@CRect@@QBE?AVCPoint@@XZ PROC NEAR		; CRect::CenterPoint, COMDAT
; _this$ = ecx

; 137  : 	{ return CPoint((left+right)/2, (top+bottom)/2); }

  00000	55		 push	 ebp
  00001	8b ec		 mov	 ebp, esp
  00003	51		 push	 ecx
  00004	89 4d fc	 mov	 DWORD PTR _this$[ebp], ecx
  00007	8b 45 fc	 mov	 eax, DWORD PTR _this$[ebp]
  0000a	8b 40 04	 mov	 eax, DWORD PTR [eax+4]
  0000d	8b 4d fc	 mov	 ecx, DWORD PTR _this$[ebp]
  00010	03 41 0c	 add	 eax, DWORD PTR [ecx+12]
  00013	99		 cdq
  00014	2b c2		 sub	 eax, edx
  00016	d1 f8		 sar	 eax, 1
  00018	50		 push	 eax
  00019	8b 55 fc	 mov	 edx, DWORD PTR _this$[ebp]
  0001c	8b 02		 mov	 eax, DWORD PTR [edx]
  0001e	8b 4d fc	 mov	 ecx, DWORD PTR _this$[ebp]
  00021	03 41 08	 add	 eax, DWORD PTR [ecx+8]
  00024	99		 cdq
  00025	2b c2		 sub	 eax, edx
  00027	d1 f8		 sar	 eax, 1
  00029	50		 push	 eax
  0002a	8b 4d 08	 mov	 ecx, DWORD PTR ___$ReturnUdt$[ebp]
  0002d	e8 00 00 00 00	 call	 ??0CPoint@@QAE@HH@Z	; CPoint::CPoint
  00032	8b 45 08	 mov	 eax, DWORD PTR ___$ReturnUdt$[ebp]
  00035	8b e5		 mov	 esp, ebp
  00037	5d		 pop	 ebp
  00038	c2 04 00	 ret	 4
?CenterPoint@CRect@@QBE?AVCPoint@@XZ ENDP		; CRect::CenterPoint
_TEXT	ENDS
EXTRN	__imp__PtInRect@12:NEAR
; Function compile flags: /Odt
;	COMDAT ?PtInRect@CRect@@QBEHUtagPOINT@@@Z
_TEXT	SEGMENT
_this$ = -4						; size = 4
_point$ = 8						; size = 8
?PtInRect@CRect@@QBEHUtagPOINT@@@Z PROC NEAR		; CRect::PtInRect, COMDAT
; _this$ = ecx

; 151  : 	{ return ::PtInRect(this, point); }

  00000	55		 push	 ebp
  00001	8b ec		 mov	 ebp, esp
  00003	51		 push	 ecx
  00004	89 4d fc	 mov	 DWORD PTR _this$[ebp], ecx
  00007	8b 45 0c	 mov	 eax, DWORD PTR _point$[ebp+4]
  0000a	50		 push	 eax
  0000b	8b 4d 08	 mov	 ecx, DWORD PTR _point$[ebp]
  0000e	51		 push	 ecx
  0000f	8b 55 fc	 mov	 edx, DWORD PTR _this$[ebp]
  00012	52		 push	 edx
  00013	ff 15 00 00 00
	00		 call	 DWORD PTR __imp__PtInRect@12
  00019	8b e5		 mov	 esp, ebp
  0001b	5d		 pop	 ebp
  0001c	c2 08 00	 ret	 8
?PtInRect@CRect@@QBEHUtagPOINT@@@Z ENDP			; CRect::PtInRect
; Function compile flags: /Odt
_TEXT	ENDS
;	COMDAT ?DeflateRect@CRect@@QAEXHHHH@Z
_TEXT	SEGMENT
_this$ = -4						; size = 4
_l$ = 8							; size = 4
_t$ = 12						; size = 4
_r$ = 16						; size = 4
_b$ = 20						; size = 4
?DeflateRect@CRect@@QAEXHHHH@Z PROC NEAR		; CRect::DeflateRect, COMDAT
; _this$ = ecx

; 267  : 	{

  00000	55		 push	 ebp
  00001	8b ec		 mov	 ebp, esp
  00003	51		 push	 ecx
  00004	89 4d fc	 mov	 DWORD PTR _this$[ebp], ecx

; 268  : 		left += l;		top += t;

  00007	8b 45 fc	 mov	 eax, DWORD PTR _this$[ebp]
  0000a	8b 08		 mov	 ecx, DWORD PTR [eax]
  0000c	03 4d 08	 add	 ecx, DWORD PTR _l$[ebp]
  0000f	8b 55 fc	 mov	 edx, DWORD PTR _this$[ebp]
  00012	89 0a		 mov	 DWORD PTR [edx], ecx
  00014	8b 45 fc	 mov	 eax, DWORD PTR _this$[ebp]
  00017	8b 48 04	 mov	 ecx, DWORD PTR [eax+4]
  0001a	03 4d 0c	 add	 ecx, DWORD PTR _t$[ebp]
  0001d	8b 55 fc	 mov	 edx, DWORD PTR _this$[ebp]
  00020	89 4a 04	 mov	 DWORD PTR [edx+4], ecx

; 269  : 		right -= r;		bottom -= b;

  00023	8b 45 fc	 mov	 eax, DWORD PTR _this$[ebp]
  00026	8b 48 08	 mov	 ecx, DWORD PTR [eax+8]
  00029	2b 4d 10	 sub	 ecx, DWORD PTR _r$[ebp]
  0002c	8b 55 fc	 mov	 edx, DWORD PTR _this$[ebp]
  0002f	89 4a 08	 mov	 DWORD PTR [edx+8], ecx
  00032	8b 45 fc	 mov	 eax, DWORD PTR _this$[ebp]
  00035	8b 48 0c	 mov	 ecx, DWORD PTR [eax+12]
  00038	2b 4d 14	 sub	 ecx, DWORD PTR _b$[ebp]
  0003b	8b 55 fc	 mov	 edx, DWORD PTR _this$[ebp]
  0003e	89 4a 0c	 mov	 DWORD PTR [edx+12], ecx

; 270  : 	}

  00041	8b e5		 mov	 esp, ebp
  00043	5d		 pop	 ebp
  00044	c2 10 00	 ret	 16			; 00000010H
?DeflateRect@CRect@@QAEXHHHH@Z ENDP			; CRect::DeflateRect
; Function compile flags: /Odt
; File d:\program files (x86)\microsoft visual studio .net 2003\vc7\atlmfc\include\afx.inl
_TEXT	ENDS
;	COMDAT ?Serialize@CObject@@UAEXAAVCArchive@@@Z
_TEXT	SEGMENT
_this$ = -4						; size = 4
___formal$ = 8						; size = 4
?Serialize@CObject@@UAEXAAVCArchive@@@Z PROC NEAR	; CObject::Serialize, COMDAT
; _this$ = ecx

; 25   : 	{ /* CObject does not serialize anything by default */ }

  00000	55		 push	 ebp
  00001	8b ec		 mov	 ebp, esp
  00003	51		 push	 ecx
  00004	89 4d fc	 mov	 DWORD PTR _this$[ebp], ecx
  00007	8b e5		 mov	 esp, ebp
  00009	5d		 pop	 ebp
  0000a	c2 04 00	 ret	 4
?Serialize@CObject@@UAEXAAVCArchive@@@Z ENDP		; CObject::Serialize
_TEXT	ENDS
EXTRN	??3@YAXPAX@Z:NEAR				; operator delete
; Function compile flags: /Odt
;	COMDAT ??3CObject@@SGXPAX@Z
_TEXT	SEGMENT
_p$ = 8							; size = 4
??3CObject@@SGXPAX@Z PROC NEAR				; CObject::operator delete, COMDAT

; 31   : 	{ ::operator delete(p); }

  00000	55		 push	 ebp
  00001	8b ec		 mov	 ebp, esp
  00003	8b 45 08	 mov	 eax, DWORD PTR _p$[ebp]
  00006	50		 push	 eax
  00007	e8 00 00 00 00	 call	 ??3@YAXPAX@Z		; operator delete
  0000c	83 c4 04	 add	 esp, 4
  0000f	5d		 pop	 ebp
  00010	c2 04 00	 ret	 4
??3CObject@@SGXPAX@Z ENDP				; CObject::operator delete
; Function compile flags: /Odt
_TEXT	ENDS
;	COMDAT ?AssertValid@CObject@@UBEXXZ
_TEXT	SEGMENT
_this$ = -4						; size = 4
?AssertValid@CObject@@UBEXXZ PROC NEAR			; CObject::AssertValid, COMDAT
; _this$ = ecx

; 41   : 	{ /* no asserts in release builds */ }

  00000	55		 push	 ebp
  00001	8b ec		 mov	 ebp, esp
  00003	51		 push	 ecx
  00004	89 4d fc	 mov	 DWORD PTR _this$[ebp], ecx
  00007	8b e5		 mov	 esp, ebp
  00009	5d		 pop	 ebp
  0000a	c3		 ret	 0
?AssertValid@CObject@@UBEXXZ ENDP			; CObject::AssertValid
; Function compile flags: /Odt
_TEXT	ENDS
;	COMDAT ?Dump@CObject@@UBEXAAVCDumpContext@@@Z
_TEXT	SEGMENT
_this$ = -4						; size = 4
___formal$ = 8						; size = 4
?Dump@CObject@@UBEXAAVCDumpContext@@@Z PROC NEAR	; CObject::Dump, COMDAT
; _this$ = ecx

; 43   : 	{ /* no dumping in release builds */ }

  00000	55		 push	 ebp
  00001	8b ec		 mov	 ebp, esp
  00003	51		 push	 ecx
  00004	89 4d fc	 mov	 DWORD PTR _this$[ebp], ecx
  00007	8b e5		 mov	 esp, ebp
  00009	5d		 pop	 ebp
  0000a	c2 04 00	 ret	 4
?Dump@CObject@@UBEXAAVCDumpContext@@@Z ENDP		; CObject::Dump
_TEXT	ENDS
PUBLIC	??_R0?AVCGdiObject@@@8				; CGdiObject `RTTI Type Descriptor'
PUBLIC	??_R1A@?0A@A@CGdiObject@@8			; CGdiObject::`RTTI Base Class Descriptor at (0,-1,0,0)'
PUBLIC	??_R4CFont@@6B@					; CFont::`RTTI Complete Object Locator'
PUBLIC	??_R0?AVCFont@@@8				; CFont `RTTI Type Descriptor'
PUBLIC	??_R3CFont@@8					; CFont::`RTTI Class Hierarchy Descriptor'
PUBLIC	??_R2CFont@@8					; CFont::`RTTI Base Class Array'
PUBLIC	??_R1A@?0A@A@CFont@@8				; CFont::`RTTI Base Class Descriptor at (0,-1,0,0)'
PUBLIC	??0CGdiObject@@QAE@XZ				; CGdiObject::CGdiObject
PUBLIC	??_7CFont@@6B@					; CFont::`vftable'
PUBLIC	??_GCFont@@UAEPAXI@Z				; CFont::`scalar deleting destructor'
EXTRN	?GetRuntimeClass@CFont@@UBEPAUCRuntimeClass@@XZ:NEAR ; CFont::GetRuntimeClass
EXTRN	??_ECFont@@UAEPAXI@Z:NEAR			; CFont::`vector deleting destructor'
;	COMDAT ??_7CFont@@6B@
; File d:\program files (x86)\microsoft visual studio .net 2003\vc7\atlmfc\include\afxwin1.inl
CONST	SEGMENT
??_7CFont@@6B@ DD FLAT:??_R4CFont@@6B@			; CFont::`vftable'
	DD	FLAT:?GetRuntimeClass@CFont@@UBEPAUCRuntimeClass@@XZ
	DD	FLAT:??_ECFont@@UAEPAXI@Z
	DD	FLAT:?Serialize@CObject@@UAEXAAVCArchive@@@Z
	DD	FLAT:?AssertValid@CObject@@UBEXXZ
	DD	FLAT:?Dump@CObject@@UBEXAAVCDumpContext@@@Z
CONST	ENDS
;	COMDAT ??_R4CFont@@6B@
rdata$r	SEGMENT
??_R4CFont@@6B@ DD 00H					; CFont::`RTTI Complete Object Locator'
	DD	00H
	DD	00H
	DD	FLAT:??_R0?AVCFont@@@8
	DD	FLAT:??_R3CFont@@8
rdata$r	ENDS
;	COMDAT ??_R0?AVCFont@@@8
_DATA	SEGMENT
??_R0?AVCFont@@@8 DD FLAT:??_7type_info@@6B@		; CFont `RTTI Type Descriptor'
	DD	00H
	DB	'.?AVCFont@@', 00H
_DATA	ENDS
;	COMDAT ??_R3CFont@@8
rdata$r	SEGMENT
??_R3CFont@@8 DD 00H					; CFont::`RTTI Class Hierarchy Descriptor'
	DD	00H
	DD	03H
	DD	FLAT:??_R2CFont@@8
rdata$r	ENDS
;	COMDAT ??_R2CFont@@8
rdata$r	SEGMENT
??_R2CFont@@8 DD FLAT:??_R1A@?0A@A@CFont@@8		; CFont::`RTTI Base Class Array'
	DD	FLAT:??_R1A@?0A@A@CGdiObject@@8
	DD	FLAT:??_R1A@?0A@A@CObject@@8
rdata$r	ENDS
;	COMDAT ??_R1A@?0A@A@CFont@@8
rdata$r	SEGMENT
??_R1A@?0A@A@CFont@@8 DD FLAT:??_R0?AVCFont@@@8		; CFont::`RTTI Base Class Descriptor at (0,-1,0,0)'
	DD	02H
	DD	00H
	DD	0ffffffffH
	DD	00H
	DD	00H
rdata$r	ENDS
;	COMDAT ??_R1A@?0A@A@CGdiObject@@8
rdata$r	SEGMENT
??_R1A@?0A@A@CGdiObject@@8 DD FLAT:??_R0?AVCGdiObject@@@8 ; CGdiObject::`RTTI Base Class Descriptor at (0,-1,0,0)'
	DD	01H
	DD	00H
	DD	0ffffffffH
	DD	00H
	DD	00H
rdata$r	ENDS
;	COMDAT ??_R0?AVCGdiObject@@@8
_DATA	SEGMENT
??_R0?AVCGdiObject@@@8 DD FLAT:??_7type_info@@6B@	; CGdiObject `RTTI Type Descriptor'
	DD	00H
	DB	'.?AVCGdiObject@@', 00H
; Function compile flags: /Odt
_DATA	ENDS
;	COMDAT ??0CFont@@QAE@XZ
_TEXT	SEGMENT
_this$ = -4						; size = 4
??0CFont@@QAE@XZ PROC NEAR				; CFont::CFont, COMDAT
; _this$ = ecx

; 153  : 	{ }

  00000	55		 push	 ebp
  00001	8b ec		 mov	 ebp, esp
  00003	51		 push	 ecx
  00004	89 4d fc	 mov	 DWORD PTR _this$[ebp], ecx
  00007	8b 4d fc	 mov	 ecx, DWORD PTR _this$[ebp]
  0000a	e8 00 00 00 00	 call	 ??0CGdiObject@@QAE@XZ	; CGdiObject::CGdiObject
  0000f	8b 45 fc	 mov	 eax, DWORD PTR _this$[ebp]
  00012	c7 00 00 00 00
	00		 mov	 DWORD PTR [eax], OFFSET FLAT:??_7CFont@@6B@
  00018	8b 45 fc	 mov	 eax, DWORD PTR _this$[ebp]
  0001b	8b e5		 mov	 esp, ebp
  0001d	5d		 pop	 ebp
  0001e	c3		 ret	 0
??0CFont@@QAE@XZ ENDP					; CFont::CFont
_TEXT	ENDS
PUBLIC	??_R4CGdiObject@@6B@				; CGdiObject::`RTTI Complete Object Locator'
PUBLIC	??_R3CGdiObject@@8				; CGdiObject::`RTTI Class Hierarchy Descriptor'
PUBLIC	??_R2CGdiObject@@8				; CGdiObject::`RTTI Base Class Array'
PUBLIC	??0CObject@@IAE@XZ				; CObject::CObject
PUBLIC	??_7CGdiObject@@6B@				; CGdiObject::`vftable'
PUBLIC	??_GCGdiObject@@UAEPAXI@Z			; CGdiObject::`scalar deleting destructor'
EXTRN	?GetRuntimeClass@CGdiObject@@UBEPAUCRuntimeClass@@XZ:NEAR ; CGdiObject::GetRuntimeClass
EXTRN	??_ECGdiObject@@UAEPAXI@Z:NEAR			; CGdiObject::`vector deleting destructor'
;	COMDAT ??_7CGdiObject@@6B@
CONST	SEGMENT
??_7CGdiObject@@6B@ DD FLAT:??_R4CGdiObject@@6B@	; CGdiObject::`vftable'
	DD	FLAT:?GetRuntimeClass@CGdiObject@@UBEPAUCRuntimeClass@@XZ
	DD	FLAT:??_ECGdiObject@@UAEPAXI@Z
	DD	FLAT:?Serialize@CObject@@UAEXAAVCArchive@@@Z
	DD	FLAT:?AssertValid@CObject@@UBEXXZ
	DD	FLAT:?Dump@CObject@@UBEXAAVCDumpContext@@@Z
CONST	ENDS
;	COMDAT ??_R4CGdiObject@@6B@
rdata$r	SEGMENT
??_R4CGdiObject@@6B@ DD 00H				; CGdiObject::`RTTI Complete Object Locator'
	DD	00H
	DD	00H
	DD	FLAT:??_R0?AVCGdiObject@@@8
	DD	FLAT:??_R3CGdiObject@@8
rdata$r	ENDS
;	COMDAT ??_R3CGdiObject@@8
rdata$r	SEGMENT
??_R3CGdiObject@@8 DD 00H				; CGdiObject::`RTTI Class Hierarchy Descriptor'
	DD	00H
	DD	02H
	DD	FLAT:??_R2CGdiObject@@8
rdata$r	ENDS
;	COMDAT ??_R2CGdiObject@@8
rdata$r	SEGMENT
??_R2CGdiObject@@8 DD FLAT:??_R1A@?0A@A@CGdiObject@@8	; CGdiObject::`RTTI Base Class Array'
	DD	FLAT:??_R1A@?0A@A@CObject@@8
; Function compile flags: /Odt
rdata$r	ENDS
;	COMDAT ??0CGdiObject@@QAE@XZ
_TEXT	SEGMENT
_this$ = -4						; size = 4
??0CGdiObject@@QAE@XZ PROC NEAR				; CGdiObject::CGdiObject, COMDAT
; _this$ = ecx

; 82   : 	{ m_hObject = NULL; }

  00000	55		 push	 ebp
  00001	8b ec		 mov	 ebp, esp
  00003	51		 push	 ecx
  00004	89 4d fc	 mov	 DWORD PTR _this$[ebp], ecx
  00007	8b 4d fc	 mov	 ecx, DWORD PTR _this$[ebp]
  0000a	e8 00 00 00 00	 call	 ??0CObject@@IAE@XZ	; CObject::CObject
  0000f	8b 45 fc	 mov	 eax, DWORD PTR _this$[ebp]
  00012	c7 00 00 00 00
	00		 mov	 DWORD PTR [eax], OFFSET FLAT:??_7CGdiObject@@6B@
  00018	8b 4d fc	 mov	 ecx, DWORD PTR _this$[ebp]
  0001b	c7 41 04 00 00
	00 00		 mov	 DWORD PTR [ecx+4], 0
  00022	8b 45 fc	 mov	 eax, DWORD PTR _this$[ebp]
  00025	8b e5		 mov	 esp, ebp
  00027	5d		 pop	 ebp
  00028	c3		 ret	 0
??0CGdiObject@@QAE@XZ ENDP				; CGdiObject::CGdiObject
; Function compile flags: /Odt
; File d:\program files (x86)\microsoft visual studio .net 2003\vc7\atlmfc\include\afx.inl
_TEXT	ENDS
;	COMDAT ??0CObject@@IAE@XZ
_TEXT	SEGMENT
_this$ = -4						; size = 4
??0CObject@@IAE@XZ PROC NEAR				; CObject::CObject, COMDAT
; _this$ = ecx

; 21   : 	{ }

  00000	55		 push	 ebp
  00001	8b ec		 mov	 ebp, esp
  00003	51		 push	 ecx
  00004	89 4d fc	 mov	 DWORD PTR _this$[ebp], ecx
  00007	8b 45 fc	 mov	 eax, DWORD PTR _this$[ebp]
  0000a	8b e5		 mov	 esp, ebp
  0000c	5d		 pop	 ebp
  0000d	c3		 ret	 0
??0CObject@@IAE@XZ ENDP					; CObject::CObject
_TEXT	ENDS
PUBLIC	??1CGdiObject@@UAE@XZ				; CGdiObject::~CGdiObject
; Function compile flags: /Odt
;	COMDAT ??_GCGdiObject@@UAEPAXI@Z
_TEXT	SEGMENT
_this$ = -4						; size = 4
___flags$ = 8						; size = 4
??_GCGdiObject@@UAEPAXI@Z PROC NEAR			; CGdiObject::`scalar deleting destructor', COMDAT
; _this$ = ecx
  00000	55		 push	 ebp
  00001	8b ec		 mov	 ebp, esp
  00003	51		 push	 ecx
  00004	89 4d fc	 mov	 DWORD PTR _this$[ebp], ecx
  00007	8b 4d fc	 mov	 ecx, DWORD PTR _this$[ebp]
  0000a	e8 00 00 00 00	 call	 ??1CGdiObject@@UAE@XZ	; CGdiObject::~CGdiObject
  0000f	8b 45 08	 mov	 eax, DWORD PTR ___flags$[ebp]
  00012	83 e0 01	 and	 eax, 1
  00015	74 09		 je	 SHORT $L41495
  00017	8b 4d fc	 mov	 ecx, DWORD PTR _this$[ebp]
  0001a	51		 push	 ecx
  0001b	e8 00 00 00 00	 call	 ??3CObject@@SGXPAX@Z	; CObject::operator delete
$L41495:
  00020	8b 45 fc	 mov	 eax, DWORD PTR _this$[ebp]
  00023	8b e5		 mov	 esp, ebp
  00025	5d		 pop	 ebp
  00026	c2 04 00	 ret	 4
??_GCGdiObject@@UAEPAXI@Z ENDP				; CGdiObject::`scalar deleting destructor'
_TEXT	ENDS
PUBLIC	??1CObject@@UAE@XZ				; CObject::~CObject
;	COMDAT xdata$x
; File d:\program files (x86)\microsoft visual studio .net 2003\vc7\atlmfc\include\afxwin1.inl
xdata$x	SEGMENT
$T199317 DD	0ffffffffH
	DD	FLAT:$L199313
$T199315 DD	019930520H
	DD	01H
	DD	FLAT:$T199317
	DD	2 DUP(00H)
	DD	2 DUP(00H)
; Function compile flags: /Odt
xdata$x	ENDS
;	COMDAT ??1CGdiObject@@UAE@XZ
_TEXT	SEGMENT
_this$ = -16						; size = 4
__$EHRec$ = -12						; size = 12
??1CGdiObject@@UAE@XZ PROC NEAR				; CGdiObject::~CGdiObject, COMDAT
; _this$ = ecx

; 84   : 	{ DeleteObject(); }

  00000	55		 push	 ebp
  00001	8b ec		 mov	 ebp, esp
  00003	6a ff		 push	 -1
  00005	68 00 00 00 00	 push	 __ehhandler$??1CGdiObject@@UAE@XZ
  0000a	64 a1 00 00 00
	00		 mov	 eax, DWORD PTR fs:__except_list
  00010	50		 push	 eax
  00011	64 89 25 00 00
	00 00		 mov	 DWORD PTR fs:__except_list, esp
  00018	51		 push	 ecx
  00019	89 4d f0	 mov	 DWORD PTR _this$[ebp], ecx
  0001c	8b 45 f0	 mov	 eax, DWORD PTR _this$[ebp]
  0001f	c7 00 00 00 00
	00		 mov	 DWORD PTR [eax], OFFSET FLAT:??_7CGdiObject@@6B@
  00025	c7 45 fc 00 00
	00 00		 mov	 DWORD PTR __$EHRec$[ebp+8], 0
  0002c	8b 4d f0	 mov	 ecx, DWORD PTR _this$[ebp]
  0002f	e8 00 00 00 00	 call	 ?DeleteObject@CGdiObject@@QAEHXZ ; CGdiObject::DeleteObject
  00034	c7 45 fc ff ff
	ff ff		 mov	 DWORD PTR __$EHRec$[ebp+8], -1
  0003b	8b 4d f0	 mov	 ecx, DWORD PTR _this$[ebp]
  0003e	e8 00 00 00 00	 call	 ??1CObject@@UAE@XZ	; CObject::~CObject
  00043	8b 4d f4	 mov	 ecx, DWORD PTR __$EHRec$[ebp]
  00046	64 89 0d 00 00
	00 00		 mov	 DWORD PTR fs:__except_list, ecx
  0004d	8b e5		 mov	 esp, ebp
  0004f	5d		 pop	 ebp
  00050	c3		 ret	 0
_TEXT	ENDS
;	COMDAT text$x
text$x	SEGMENT
$L199313:
  00000	8b 4d f0	 mov	 ecx, DWORD PTR _this$[ebp]
  00003	e9 00 00 00 00	 jmp	 ??1CObject@@UAE@XZ	; CObject::~CObject
__ehhandler$??1CGdiObject@@UAE@XZ:
  00008	b8 00 00 00 00	 mov	 eax, OFFSET FLAT:$T199315
  0000d	e9 00 00 00 00	 jmp	 ___CxxFrameHandler
text$x	ENDS
??1CGdiObject@@UAE@XZ ENDP				; CGdiObject::~CGdiObject
; Function compile flags: /Odt
; File d:\program files (x86)\microsoft visual studio .net 2003\vc7\atlmfc\include\afx.inl
;	COMDAT ??1CObject@@UAE@XZ
_TEXT	SEGMENT
_this$ = -4						; size = 4
??1CObject@@UAE@XZ PROC NEAR				; CObject::~CObject, COMDAT
; _this$ = ecx

; 23   : 	{ }

  00000	55		 push	 ebp
  00001	8b ec		 mov	 ebp, esp
  00003	51		 push	 ecx
  00004	89 4d fc	 mov	 DWORD PTR _this$[ebp], ecx
  00007	8b e5		 mov	 esp, ebp
  00009	5d		 pop	 ebp
  0000a	c3		 ret	 0
??1CObject@@UAE@XZ ENDP					; CObject::~CObject
; Function compile flags: /Odt
_TEXT	ENDS
;	COMDAT ??_GCFont@@UAEPAXI@Z
_TEXT	SEGMENT
_this$ = -4						; size = 4
___flags$ = 8						; size = 4
??_GCFont@@UAEPAXI@Z PROC NEAR				; CFont::`scalar deleting destructor', COMDAT
; _this$ = ecx
  00000	55		 push	 ebp
  00001	8b ec		 mov	 ebp, esp
  00003	51		 push	 ecx
  00004	89 4d fc	 mov	 DWORD PTR _this$[ebp], ecx
  00007	8b 4d fc	 mov	 ecx, DWORD PTR _this$[ebp]
  0000a	e8 00 00 00 00	 call	 ??1CFont@@UAE@XZ	; CFont::~CFont
  0000f	8b 45 08	 mov	 eax, DWORD PTR ___flags$[ebp]
  00012	83 e0 01	 and	 eax, 1
  00015	74 09		 je	 SHORT $L41640
  00017	8b 4d fc	 mov	 ecx, DWORD PTR _this$[ebp]
  0001a	51		 push	 ecx
  0001b	e8 00 00 00 00	 call	 ??3CObject@@SGXPAX@Z	; CObject::operator delete
$L41640:
  00020	8b 45 fc	 mov	 eax, DWORD PTR _this$[ebp]
  00023	8b e5		 mov	 esp, ebp
  00025	5d		 pop	 ebp
  00026	c2 04 00	 ret	 4
??_GCFont@@UAEPAXI@Z ENDP				; CFont::`scalar deleting destructor'
; Function compile flags: /Odt
; File d:\program files (x86)\microsoft visual studio .net 2003\vc7\atlmfc\include\afxwin1.inl
_TEXT	ENDS
;	COMDAT ??1CFont@@UAE@XZ
_TEXT	SEGMENT
_this$ = -4						; size = 4
??1CFont@@UAE@XZ PROC NEAR				; CFont::~CFont, COMDAT
; _this$ = ecx

; 155  : 	{ }

  00000	55		 push	 ebp
  00001	8b ec		 mov	 ebp, esp
  00003	51		 push	 ecx
  00004	89 4d fc	 mov	 DWORD PTR _this$[ebp], ecx
  00007	8b 45 fc	 mov	 eax, DWORD PTR _this$[ebp]
  0000a	c7 00 00 00 00
	00		 mov	 DWORD PTR [eax], OFFSET FLAT:??_7CFont@@6B@
  00010	8b 4d fc	 mov	 ecx, DWORD PTR _this$[ebp]
  00013	e8 00 00 00 00	 call	 ??1CGdiObject@@UAE@XZ	; CGdiObject::~CGdiObject
  00018	8b e5		 mov	 esp, ebp
  0001a	5d		 pop	 ebp
  0001b	c3		 ret	 0
??1CFont@@UAE@XZ ENDP					; CFont::~CFont
_TEXT	ENDS
EXTRN	__imp__CreateFontIndirectA@4:NEAR
EXTRN	?Attach@CGdiObject@@QAEHPAX@Z:NEAR		; CGdiObject::Attach
; Function compile flags: /Odt
;	COMDAT ?CreateFontIndirectA@CFont@@QAEHPBUtagLOGFONTA@@@Z
_TEXT	SEGMENT
_this$ = -4						; size = 4
_lpLogFont$ = 8						; size = 4
?CreateFontIndirectA@CFont@@QAEHPBUtagLOGFONTA@@@Z PROC NEAR ; CFont::CreateFontIndirectA, COMDAT
; _this$ = ecx

; 157  : 	{ return Attach(::CreateFontIndirect(lpLogFont)); }

  00000	55		 push	 ebp
  00001	8b ec		 mov	 ebp, esp
  00003	51		 push	 ecx
  00004	89 4d fc	 mov	 DWORD PTR _this$[ebp], ecx
  00007	8b 45 08	 mov	 eax, DWORD PTR _lpLogFont$[ebp]
  0000a	50		 push	 eax
  0000b	ff 15 00 00 00
	00		 call	 DWORD PTR __imp__CreateFontIndirectA@4
  00011	50		 push	 eax
  00012	8b 4d fc	 mov	 ecx, DWORD PTR _this$[ebp]
  00015	e8 00 00 00 00	 call	 ?Attach@CGdiObject@@QAEHPAX@Z ; CGdiObject::Attach
  0001a	8b e5		 mov	 esp, ebp
  0001c	5d		 pop	 ebp
  0001d	c2 04 00	 ret	 4
?CreateFontIndirectA@CFont@@QAEHPBUtagLOGFONTA@@@Z ENDP	; CFont::CreateFontIndirectA
_TEXT	ENDS
EXTRN	__imp__CreateFontA@56:NEAR
; Function compile flags: /Odt
;	COMDAT ?CreateFontA@CFont@@QAEHHHHHHEEEEEEEEPBD@Z
_TEXT	SEGMENT
_this$ = -4						; size = 4
_nHeight$ = 8						; size = 4
_nWidth$ = 12						; size = 4
_nEscapement$ = 16					; size = 4
_nOrientation$ = 20					; size = 4
_nWeight$ = 24						; size = 4
_bItalic$ = 28						; size = 1
_bUnderline$ = 32					; size = 1
_cStrikeOut$ = 36					; size = 1
_nCharSet$ = 40						; size = 1
_nOutPrecision$ = 44					; size = 1
_nClipPrecision$ = 48					; size = 1
_nQuality$ = 52						; size = 1
_nPitchAndFamily$ = 56					; size = 1
_lpszFacename$ = 60					; size = 4
?CreateFontA@CFont@@QAEHHHHHHEEEEEEEEPBD@Z PROC NEAR	; CFont::CreateFontA, COMDAT
; _this$ = ecx

; 163  : 	{ return Attach(::CreateFont(nHeight, nWidth, nEscapement,

  00000	55		 push	 ebp
  00001	8b ec		 mov	 ebp, esp
  00003	51		 push	 ecx
  00004	89 4d fc	 mov	 DWORD PTR _this$[ebp], ecx

; 164  : 		nOrientation, nWeight, bItalic, bUnderline, cStrikeOut,
; 165  : 		nCharSet, nOutPrecision, nClipPrecision, nQuality,
; 166  : 		nPitchAndFamily, lpszFacename)); }

  00007	8b 45 3c	 mov	 eax, DWORD PTR _lpszFacename$[ebp]
  0000a	50		 push	 eax
  0000b	0f b6 4d 38	 movzx	 ecx, BYTE PTR _nPitchAndFamily$[ebp]
  0000f	51		 push	 ecx
  00010	0f b6 55 34	 movzx	 edx, BYTE PTR _nQuality$[ebp]
  00014	52		 push	 edx
  00015	0f b6 45 30	 movzx	 eax, BYTE PTR _nClipPrecision$[ebp]
  00019	50		 push	 eax
  0001a	0f b6 4d 2c	 movzx	 ecx, BYTE PTR _nOutPrecision$[ebp]
  0001e	51		 push	 ecx
  0001f	0f b6 55 28	 movzx	 edx, BYTE PTR _nCharSet$[ebp]
  00023	52		 push	 edx
  00024	0f b6 45 24	 movzx	 eax, BYTE PTR _cStrikeOut$[ebp]
  00028	50		 push	 eax
  00029	0f b6 4d 20	 movzx	 ecx, BYTE PTR _bUnderline$[ebp]
  0002d	51		 push	 ecx
  0002e	0f b6 55 1c	 movzx	 edx, BYTE PTR _bItalic$[ebp]
  00032	52		 push	 edx
  00033	8b 45 18	 mov	 eax, DWORD PTR _nWeight$[ebp]
  00036	50		 push	 eax
  00037	8b 4d 14	 mov	 ecx, DWORD PTR _nOrientation$[ebp]
  0003a	51		 push	 ecx
  0003b	8b 55 10	 mov	 edx, DWORD PTR _nEscapement$[ebp]
  0003e	52		 push	 edx
  0003f	8b 45 0c	 mov	 eax, DWORD PTR _nWidth$[ebp]
  00042	50		 push	 eax
  00043	8b 4d 08	 mov	 ecx, DWORD PTR _nHeight$[ebp]
  00046	51		 push	 ecx
  00047	ff 15 00 00 00
	00		 call	 DWORD PTR __imp__CreateFontA@56
  0004d	50		 push	 eax
  0004e	8b 4d fc	 mov	 ecx, DWORD PTR _this$[ebp]
  00051	e8 00 00 00 00	 call	 ?Attach@CGdiObject@@QAEHPAX@Z ; CGdiObject::Attach
  00056	8b e5		 mov	 esp, ebp
  00058	5d		 pop	 ebp
  00059	c2 38 00	 ret	 56			; 00000038H
?CreateFontA@CFont@@QAEHHHHHHEEEEEEEEPBD@Z ENDP		; CFont::CreateFontA
_TEXT	ENDS
PUBLIC	??_R4CBitmap@@6B@				; CBitmap::`RTTI Complete Object Locator'
PUBLIC	??_R0?AVCBitmap@@@8				; CBitmap `RTTI Type Descriptor'
PUBLIC	??_R3CBitmap@@8					; CBitmap::`RTTI Class Hierarchy Descriptor'
PUBLIC	??_R2CBitmap@@8					; CBitmap::`RTTI Base Class Array'
PUBLIC	??_R1A@?0A@A@CBitmap@@8				; CBitmap::`RTTI Base Class Descriptor at (0,-1,0,0)'
PUBLIC	??_7CBitmap@@6B@				; CBitmap::`vftable'
PUBLIC	??_GCBitmap@@UAEPAXI@Z				; CBitmap::`scalar deleting destructor'
EXTRN	?GetRuntimeClass@CBitmap@@UBEPAUCRuntimeClass@@XZ:NEAR ; CBitmap::GetRuntimeClass
EXTRN	??_ECBitmap@@UAEPAXI@Z:NEAR			; CBitmap::`vector deleting destructor'
;	COMDAT ??_7CBitmap@@6B@
CONST	SEGMENT
??_7CBitmap@@6B@ DD FLAT:??_R4CBitmap@@6B@		; CBitmap::`vftable'
	DD	FLAT:?GetRuntimeClass@CBitmap@@UBEPAUCRuntimeClass@@XZ
	DD	FLAT:??_ECBitmap@@UAEPAXI@Z
	DD	FLAT:?Serialize@CObject@@UAEXAAVCArchive@@@Z
	DD	FLAT:?AssertValid@CObject@@UBEXXZ
	DD	FLAT:?Dump@CObject@@UBEXAAVCDumpContext@@@Z
CONST	ENDS
;	COMDAT ??_R4CBitmap@@6B@
rdata$r	SEGMENT
??_R4CBitmap@@6B@ DD 00H				; CBitmap::`RTTI Complete Object Locator'
	DD	00H
	DD	00H
	DD	FLAT:??_R0?AVCBitmap@@@8
	DD	FLAT:??_R3CBitmap@@8
rdata$r	ENDS
;	COMDAT ??_R0?AVCBitmap@@@8
_DATA	SEGMENT
??_R0?AVCBitmap@@@8 DD FLAT:??_7type_info@@6B@		; CBitmap `RTTI Type Descriptor'
	DD	00H
	DB	'.?AVCBitmap@@', 00H
_DATA	ENDS
;	COMDAT ??_R3CBitmap@@8
rdata$r	SEGMENT
??_R3CBitmap@@8 DD 00H					; CBitmap::`RTTI Class Hierarchy Descriptor'
	DD	00H
	DD	03H
	DD	FLAT:??_R2CBitmap@@8
rdata$r	ENDS
;	COMDAT ??_R2CBitmap@@8
rdata$r	SEGMENT
??_R2CBitmap@@8 DD FLAT:??_R1A@?0A@A@CBitmap@@8		; CBitmap::`RTTI Base Class Array'
	DD	FLAT:??_R1A@?0A@A@CGdiObject@@8
	DD	FLAT:??_R1A@?0A@A@CObject@@8
rdata$r	ENDS
;	COMDAT ??_R1A@?0A@A@CBitmap@@8
rdata$r	SEGMENT
??_R1A@?0A@A@CBitmap@@8 DD FLAT:??_R0?AVCBitmap@@@8	; CBitmap::`RTTI Base Class Descriptor at (0,-1,0,0)'
	DD	02H
	DD	00H
	DD	0ffffffffH
	DD	00H
	DD	00H
; Function compile flags: /Odt
rdata$r	ENDS
;	COMDAT ??0CBitmap@@QAE@XZ
_TEXT	SEGMENT
_this$ = -4						; size = 4
??0CBitmap@@QAE@XZ PROC NEAR				; CBitmap::CBitmap, COMDAT
; _this$ = ecx

; 177  : 	{ }

  00000	55		 push	 ebp
  00001	8b ec		 mov	 ebp, esp
  00003	51		 push	 ecx
  00004	89 4d fc	 mov	 DWORD PTR _this$[ebp], ecx
  00007	8b 4d fc	 mov	 ecx, DWORD PTR _this$[ebp]
  0000a	e8 00 00 00 00	 call	 ??0CGdiObject@@QAE@XZ	; CGdiObject::CGdiObject
  0000f	8b 45 fc	 mov	 eax, DWORD PTR _this$[ebp]
  00012	c7 00 00 00 00
	00		 mov	 DWORD PTR [eax], OFFSET FLAT:??_7CBitmap@@6B@
  00018	8b 45 fc	 mov	 eax, DWORD PTR _this$[ebp]
  0001b	8b e5		 mov	 esp, ebp
  0001d	5d		 pop	 ebp
  0001e	c3		 ret	 0
??0CBitmap@@QAE@XZ ENDP					; CBitmap::CBitmap
; Function compile flags: /Odt
_TEXT	ENDS
;	COMDAT ??_GCBitmap@@UAEPAXI@Z
_TEXT	SEGMENT
_this$ = -4						; size = 4
___flags$ = 8						; size = 4
??_GCBitmap@@UAEPAXI@Z PROC NEAR			; CBitmap::`scalar deleting destructor', COMDAT
; _this$ = ecx
  00000	55		 push	 ebp
  00001	8b ec		 mov	 ebp, esp
  00003	51		 push	 ecx
  00004	89 4d fc	 mov	 DWORD PTR _this$[ebp], ecx
  00007	8b 4d fc	 mov	 ecx, DWORD PTR _this$[ebp]
  0000a	e8 00 00 00 00	 call	 ??1CBitmap@@UAE@XZ	; CBitmap::~CBitmap
  0000f	8b 45 08	 mov	 eax, DWORD PTR ___flags$[ebp]
  00012	83 e0 01	 and	 eax, 1
  00015	74 09		 je	 SHORT $L41685
  00017	8b 4d fc	 mov	 ecx, DWORD PTR _this$[ebp]
  0001a	51		 push	 ecx
  0001b	e8 00 00 00 00	 call	 ??3CObject@@SGXPAX@Z	; CObject::operator delete
$L41685:
  00020	8b 45 fc	 mov	 eax, DWORD PTR _this$[ebp]
  00023	8b e5		 mov	 esp, ebp
  00025	5d		 pop	 ebp
  00026	c2 04 00	 ret	 4
??_GCBitmap@@UAEPAXI@Z ENDP				; CBitmap::`scalar deleting destructor'
; Function compile flags: /Odt
_TEXT	ENDS
;	COMDAT ??1CBitmap@@UAE@XZ
_TEXT	SEGMENT
_this$ = -4						; size = 4
??1CBitmap@@UAE@XZ PROC NEAR				; CBitmap::~CBitmap, COMDAT
; _this$ = ecx

; 179  : 	{ }

  00000	55		 push	 ebp
  00001	8b ec		 mov	 ebp, esp
  00003	51		 push	 ecx
  00004	89 4d fc	 mov	 DWORD PTR _this$[ebp], ecx
  00007	8b 45 fc	 mov	 eax, DWORD PTR _this$[ebp]
  0000a	c7 00 00 00 00
	00		 mov	 DWORD PTR [eax], OFFSET FLAT:??_7CBitmap@@6B@
  00010	8b 4d fc	 mov	 ecx, DWORD PTR _this$[ebp]
  00013	e8 00 00 00 00	 call	 ??1CGdiObject@@UAE@XZ	; CGdiObject::~CGdiObject
  00018	8b e5		 mov	 esp, ebp
  0001a	5d		 pop	 ebp
  0001b	c3		 ret	 0
??1CBitmap@@UAE@XZ ENDP					; CBitmap::~CBitmap
_TEXT	ENDS
EXTRN	__imp__CreateCompatibleBitmap@12:NEAR
; Function compile flags: /Odt
;	COMDAT ?CreateCompatibleBitmap@CBitmap@@QAEHPAVCDC@@HH@Z
_TEXT	SEGMENT
_this$ = -4						; size = 4
_pDC$ = 8						; size = 4
_nWidth$ = 12						; size = 4
_nHeight$ = 16						; size = 4
?CreateCompatibleBitmap@CBitmap@@QAEHPAVCDC@@HH@Z PROC NEAR ; CBitmap::CreateCompatibleBitmap, COMDAT
; _this$ = ecx

; 217  : 	{ return Attach(::CreateCompatibleBitmap(pDC->m_hDC, nWidth, nHeight)); }

  00000	55		 push	 ebp
  00001	8b ec		 mov	 ebp, esp
  00003	51		 push	 ecx
  00004	89 4d fc	 mov	 DWORD PTR _this$[ebp], ecx
  00007	8b 45 10	 mov	 eax, DWORD PTR _nHeight$[ebp]
  0000a	50		 push	 eax
  0000b	8b 4d 0c	 mov	 ecx, DWORD PTR _nWidth$[ebp]
  0000e	51		 push	 ecx
  0000f	8b 55 08	 mov	 edx, DWORD PTR _pDC$[ebp]
  00012	8b 42 04	 mov	 eax, DWORD PTR [edx+4]
  00015	50		 push	 eax
  00016	ff 15 00 00 00
	00		 call	 DWORD PTR __imp__CreateCompatibleBitmap@12
  0001c	50		 push	 eax
  0001d	8b 4d fc	 mov	 ecx, DWORD PTR _this$[ebp]
  00020	e8 00 00 00 00	 call	 ?Attach@CGdiObject@@QAEHPAX@Z ; CGdiObject::Attach
  00025	8b e5		 mov	 esp, ebp
  00027	5d		 pop	 ebp
  00028	c2 0c 00	 ret	 12			; 0000000cH
?CreateCompatibleBitmap@CBitmap@@QAEHPAVCDC@@HH@Z ENDP	; CBitmap::CreateCompatibleBitmap
_TEXT	ENDS
PUBLIC	?GetSafeHdc@CDC@@QBEPAUHDC__@@XZ		; CDC::GetSafeHdc
EXTRN	?Attach@CDC@@QAEHPAUHDC__@@@Z:NEAR		; CDC::Attach
EXTRN	__imp__CreateCompatibleDC@4:NEAR
; Function compile flags: /Odt
;	COMDAT ?CreateCompatibleDC@CDC@@QAEHPAV1@@Z
_TEXT	SEGMENT
_this$ = -4						; size = 4
_pDC$ = 8						; size = 4
?CreateCompatibleDC@CDC@@QAEHPAV1@@Z PROC NEAR		; CDC::CreateCompatibleDC, COMDAT
; _this$ = ecx

; 330  : 	{ return Attach(::CreateCompatibleDC(pDC->GetSafeHdc())); }

  00000	55		 push	 ebp
  00001	8b ec		 mov	 ebp, esp
  00003	51		 push	 ecx
  00004	89 4d fc	 mov	 DWORD PTR _this$[ebp], ecx
  00007	8b 4d 08	 mov	 ecx, DWORD PTR _pDC$[ebp]
  0000a	e8 00 00 00 00	 call	 ?GetSafeHdc@CDC@@QBEPAUHDC__@@XZ ; CDC::GetSafeHdc
  0000f	50		 push	 eax
  00010	ff 15 00 00 00
	00		 call	 DWORD PTR __imp__CreateCompatibleDC@4
  00016	50		 push	 eax
  00017	8b 4d fc	 mov	 ecx, DWORD PTR _this$[ebp]
  0001a	e8 00 00 00 00	 call	 ?Attach@CDC@@QAEHPAUHDC__@@@Z ; CDC::Attach
  0001f	8b e5		 mov	 esp, ebp
  00021	5d		 pop	 ebp
  00022	c2 04 00	 ret	 4
?CreateCompatibleDC@CDC@@QAEHPAV1@@Z ENDP		; CDC::CreateCompatibleDC
; Function compile flags: /Odt
_TEXT	ENDS
;	COMDAT ?GetSafeHdc@CDC@@QBEPAUHDC__@@XZ
_TEXT	SEGMENT
tv66 = -8						; size = 4
_this$ = -4						; size = 4
?GetSafeHdc@CDC@@QBEPAUHDC__@@XZ PROC NEAR		; CDC::GetSafeHdc, COMDAT
; _this$ = ecx

; 316  : 	{ return this == NULL ? NULL : m_hDC; }

  00000	55		 push	 ebp
  00001	8b ec		 mov	 ebp, esp
  00003	83 ec 08	 sub	 esp, 8
  00006	89 4d fc	 mov	 DWORD PTR _this$[ebp], ecx
  00009	83 7d fc 00	 cmp	 DWORD PTR _this$[ebp], 0
  0000d	75 09		 jne	 SHORT $L199345
  0000f	c7 45 f8 00 00
	00 00		 mov	 DWORD PTR tv66[ebp], 0
  00016	eb 09		 jmp	 SHORT $L199346
$L199345:
  00018	8b 45 fc	 mov	 eax, DWORD PTR _this$[ebp]
  0001b	8b 48 04	 mov	 ecx, DWORD PTR [eax+4]
  0001e	89 4d f8	 mov	 DWORD PTR tv66[ebp], ecx
$L199346:
  00021	8b 45 f8	 mov	 eax, DWORD PTR tv66[ebp]
  00024	8b e5		 mov	 esp, ebp
  00026	5d		 pop	 ebp
  00027	c3		 ret	 0
?GetSafeHdc@CDC@@QBEPAUHDC__@@XZ ENDP			; CDC::GetSafeHdc
_TEXT	ENDS
PUBLIC	?GetSafeHandle@CGdiObject@@QBEPAXXZ		; CGdiObject::GetSafeHandle
EXTRN	?SelectGdiObject@CDC@@KGPAVCGdiObject@@PAUHDC__@@PAX@Z:NEAR ; CDC::SelectGdiObject
; Function compile flags: /Odt
;	COMDAT ?SelectObject@CDC@@QAEPAVCBitmap@@PAV2@@Z
_TEXT	SEGMENT
_this$ = -4						; size = 4
_pBitmap$ = 8						; size = 4
?SelectObject@CDC@@QAEPAVCBitmap@@PAV2@@Z PROC NEAR	; CDC::SelectObject, COMDAT
; _this$ = ecx

; 361  : 	{ ASSERT(m_hDC != NULL); return (CBitmap*) SelectGdiObject(m_hDC, pBitmap->GetSafeHandle()); }

  00000	55		 push	 ebp
  00001	8b ec		 mov	 ebp, esp
  00003	51		 push	 ecx
  00004	89 4d fc	 mov	 DWORD PTR _this$[ebp], ecx
  00007	8b 4d 08	 mov	 ecx, DWORD PTR _pBitmap$[ebp]
  0000a	e8 00 00 00 00	 call	 ?GetSafeHandle@CGdiObject@@QBEPAXXZ ; CGdiObject::GetSafeHandle
  0000f	50		 push	 eax
  00010	8b 45 fc	 mov	 eax, DWORD PTR _this$[ebp]
  00013	8b 48 04	 mov	 ecx, DWORD PTR [eax+4]
  00016	51		 push	 ecx
  00017	e8 00 00 00 00	 call	 ?SelectGdiObject@CDC@@KGPAVCGdiObject@@PAUHDC__@@PAX@Z ; CDC::SelectGdiObject
  0001c	8b e5		 mov	 esp, ebp
  0001e	5d		 pop	 ebp
  0001f	c2 04 00	 ret	 4
?SelectObject@CDC@@QAEPAVCBitmap@@PAV2@@Z ENDP		; CDC::SelectObject
; Function compile flags: /Odt
_TEXT	ENDS
;	COMDAT ?GetSafeHandle@CGdiObject@@QBEPAXXZ
_TEXT	SEGMENT
tv66 = -8						; size = 4
_this$ = -4						; size = 4
?GetSafeHandle@CGdiObject@@QBEPAXXZ PROC NEAR		; CGdiObject::GetSafeHandle, COMDAT
; _this$ = ecx

; 80   : 	{ return this == NULL ? NULL : m_hObject; }

  00000	55		 push	 ebp
  00001	8b ec		 mov	 ebp, esp
  00003	83 ec 08	 sub	 esp, 8
  00006	89 4d fc	 mov	 DWORD PTR _this$[ebp], ecx
  00009	83 7d fc 00	 cmp	 DWORD PTR _this$[ebp], 0
  0000d	75 09		 jne	 SHORT $L199351
  0000f	c7 45 f8 00 00
	00 00		 mov	 DWORD PTR tv66[ebp], 0
  00016	eb 09		 jmp	 SHORT $L199352
$L199351:
  00018	8b 45 fc	 mov	 eax, DWORD PTR _this$[ebp]
  0001b	8b 48 04	 mov	 ecx, DWORD PTR [eax+4]
  0001e	89 4d f8	 mov	 DWORD PTR tv66[ebp], ecx
$L199352:
  00021	8b 45 f8	 mov	 eax, DWORD PTR tv66[ebp]
  00024	8b e5		 mov	 esp, ebp
  00026	5d		 pop	 ebp
  00027	c3		 ret	 0
?GetSafeHandle@CGdiObject@@QBEPAXXZ ENDP		; CGdiObject::GetSafeHandle
_TEXT	ENDS
EXTRN	__imp__BitBlt@36:NEAR
; Function compile flags: /Odt
;	COMDAT ?BitBlt@CDC@@QAEHHHHHPAV1@HHK@Z
_TEXT	SEGMENT
_this$ = -4						; size = 4
_x$ = 8							; size = 4
_y$ = 12						; size = 4
_nWidth$ = 16						; size = 4
_nHeight$ = 20						; size = 4
_pSrcDC$ = 24						; size = 4
_xSrc$ = 28						; size = 4
_ySrc$ = 32						; size = 4
_dwRop$ = 36						; size = 4
?BitBlt@CDC@@QAEHHHHHPAV1@HHK@Z PROC NEAR		; CDC::BitBlt, COMDAT
; _this$ = ecx

; 548  : 	{ ASSERT(m_hDC != NULL); return ::BitBlt(m_hDC, x, y, nWidth, nHeight,

  00000	55		 push	 ebp
  00001	8b ec		 mov	 ebp, esp
  00003	51		 push	 ecx
  00004	89 4d fc	 mov	 DWORD PTR _this$[ebp], ecx

; 549  : 		pSrcDC->GetSafeHdc(), xSrc, ySrc, dwRop); }

  00007	8b 45 24	 mov	 eax, DWORD PTR _dwRop$[ebp]
  0000a	50		 push	 eax
  0000b	8b 4d 20	 mov	 ecx, DWORD PTR _ySrc$[ebp]
  0000e	51		 push	 ecx
  0000f	8b 55 1c	 mov	 edx, DWORD PTR _xSrc$[ebp]
  00012	52		 push	 edx
  00013	8b 4d 18	 mov	 ecx, DWORD PTR _pSrcDC$[ebp]
  00016	e8 00 00 00 00	 call	 ?GetSafeHdc@CDC@@QBEPAUHDC__@@XZ ; CDC::GetSafeHdc
  0001b	50		 push	 eax
  0001c	8b 45 14	 mov	 eax, DWORD PTR _nHeight$[ebp]
  0001f	50		 push	 eax
  00020	8b 4d 10	 mov	 ecx, DWORD PTR _nWidth$[ebp]
  00023	51		 push	 ecx
  00024	8b 55 0c	 mov	 edx, DWORD PTR _y$[ebp]
  00027	52		 push	 edx
  00028	8b 45 08	 mov	 eax, DWORD PTR _x$[ebp]
  0002b	50		 push	 eax
  0002c	8b 4d fc	 mov	 ecx, DWORD PTR _this$[ebp]
  0002f	8b 51 04	 mov	 edx, DWORD PTR [ecx+4]
  00032	52		 push	 edx
  00033	ff 15 00 00 00
	00		 call	 DWORD PTR __imp__BitBlt@36
  00039	8b e5		 mov	 esp, ebp
  0003b	5d		 pop	 ebp
  0003c	c2 20 00	 ret	 32			; 00000020H
?BitBlt@CDC@@QAEHHHHHPAV1@HHK@Z ENDP			; CDC::BitBlt
_TEXT	ENDS
EXTRN	__imp_??B?$CSimpleStringT@D$00@ATL@@QBEPBDXZ:NEAR
EXTRN	__imp_?GetLength@?$CSimpleStringT@D$00@ATL@@QBEHXZ:NEAR
; Function compile flags: /Odt
;	COMDAT ?DrawTextA@CDC@@QAEHABV?$CStringT@DV?$StrTraitMFC_DLL@DV?$ChTraitsCRT@D@ATL@@@@@ATL@@PAUtagRECT@@I@Z
_TEXT	SEGMENT
_this$ = -4						; size = 4
_str$ = 8						; size = 4
_lpRect$ = 12						; size = 4
_nFormat$ = 16						; size = 4
?DrawTextA@CDC@@QAEHABV?$CStringT@DV?$StrTraitMFC_DLL@DV?$ChTraitsCRT@D@ATL@@@@@ATL@@PAUtagRECT@@I@Z PROC NEAR ; CDC::DrawTextA, COMDAT
; _this$ = ecx

; 592  : 	{ ASSERT(m_hDC != NULL);

  00000	55		 push	 ebp
  00001	8b ec		 mov	 ebp, esp
  00003	51		 push	 ecx
  00004	89 4d fc	 mov	 DWORD PTR _this$[ebp], ecx

; 593  : 		// these flags would modify the string
; 594  : 		ASSERT((nFormat & (DT_END_ELLIPSIS | DT_MODIFYSTRING)) != (DT_END_ELLIPSIS | DT_MODIFYSTRING));
; 595  : 		ASSERT((nFormat & (DT_PATH_ELLIPSIS | DT_MODIFYSTRING)) != (DT_PATH_ELLIPSIS | DT_MODIFYSTRING));
; 596  : 		return DrawText((LPCTSTR)str, (int)str.GetLength(), lpRect, nFormat); }

  00007	8b 45 10	 mov	 eax, DWORD PTR _nFormat$[ebp]
  0000a	50		 push	 eax
  0000b	8b 4d 0c	 mov	 ecx, DWORD PTR _lpRect$[ebp]
  0000e	51		 push	 ecx
  0000f	8b 4d 08	 mov	 ecx, DWORD PTR _str$[ebp]
  00012	ff 15 00 00 00
	00		 call	 DWORD PTR __imp_?GetLength@?$CSimpleStringT@D$00@ATL@@QBEHXZ
  00018	50		 push	 eax
  00019	8b 4d 08	 mov	 ecx, DWORD PTR _str$[ebp]
  0001c	ff 15 00 00 00
	00		 call	 DWORD PTR __imp_??B?$CSimpleStringT@D$00@ATL@@QBEPBDXZ
  00022	50		 push	 eax
  00023	8b 55 fc	 mov	 edx, DWORD PTR _this$[ebp]
  00026	8b 02		 mov	 eax, DWORD PTR [edx]
  00028	8b 4d fc	 mov	 ecx, DWORD PTR _this$[ebp]
  0002b	ff 50 70	 call	 DWORD PTR [eax+112]
  0002e	8b e5		 mov	 esp, ebp
  00030	5d		 pop	 ebp
  00031	c2 0c 00	 ret	 12			; 0000000cH
?DrawTextA@CDC@@QAEHABV?$CStringT@DV?$StrTraitMFC_DLL@DV?$ChTraitsCRT@D@ATL@@@@@ATL@@PAUtagRECT@@I@Z ENDP ; CDC::DrawTextA
_TEXT	ENDS
EXTRN	__imp__SendMessageA@16:NEAR
; Function compile flags: /Odt
; File d:\program files (x86)\microsoft visual studio .net 2003\vc7\atlmfc\include\afxwin2.inl
;	COMDAT ?SetFont@CWnd@@QAEXPAVCFont@@H@Z
_TEXT	SEGMENT
_this$ = -4						; size = 4
_pFont$ = 8						; size = 4
_bRedraw$ = 12						; size = 4
?SetFont@CWnd@@QAEXPAVCFont@@H@Z PROC NEAR		; CWnd::SetFont, COMDAT
; _this$ = ecx

; 58   : 	{ ASSERT(::IsWindow(m_hWnd)); ::SendMessage(m_hWnd, WM_SETFONT, (WPARAM)pFont->GetSafeHandle(), bRedraw); }

  00000	55		 push	 ebp
  00001	8b ec		 mov	 ebp, esp
  00003	51		 push	 ecx
  00004	89 4d fc	 mov	 DWORD PTR _this$[ebp], ecx
  00007	8b 45 0c	 mov	 eax, DWORD PTR _bRedraw$[ebp]
  0000a	50		 push	 eax
  0000b	8b 4d 08	 mov	 ecx, DWORD PTR _pFont$[ebp]
  0000e	e8 00 00 00 00	 call	 ?GetSafeHandle@CGdiObject@@QBEPAXXZ ; CGdiObject::GetSafeHandle
  00013	50		 push	 eax
  00014	6a 30		 push	 48			; 00000030H
  00016	8b 4d fc	 mov	 ecx, DWORD PTR _this$[ebp]
  00019	8b 51 20	 mov	 edx, DWORD PTR [ecx+32]
  0001c	52		 push	 edx
  0001d	ff 15 00 00 00
	00		 call	 DWORD PTR __imp__SendMessageA@16
  00023	8b e5		 mov	 esp, ebp
  00025	5d		 pop	 ebp
  00026	c2 08 00	 ret	 8
?SetFont@CWnd@@QAEXPAVCFont@@H@Z ENDP			; CWnd::SetFont
_TEXT	ENDS
EXTRN	__imp__GetClientRect@8:NEAR
; Function compile flags: /Odt
;	COMDAT ?GetClientRect@CWnd@@QBEXPAUtagRECT@@@Z
_TEXT	SEGMENT
_this$ = -4						; size = 4
_lpRect$ = 8						; size = 4
?GetClientRect@CWnd@@QBEXPAUtagRECT@@@Z PROC NEAR	; CWnd::GetClientRect, COMDAT
; _this$ = ecx

; 107  : 	{ ASSERT(::IsWindow(m_hWnd)); ::GetClientRect(m_hWnd, lpRect); }

  00000	55		 push	 ebp
  00001	8b ec		 mov	 ebp, esp
  00003	51		 push	 ecx
  00004	89 4d fc	 mov	 DWORD PTR _this$[ebp], ecx
  00007	8b 45 08	 mov	 eax, DWORD PTR _lpRect$[ebp]
  0000a	50		 push	 eax
  0000b	8b 4d fc	 mov	 ecx, DWORD PTR _this$[ebp]
  0000e	8b 51 20	 mov	 edx, DWORD PTR [ecx+32]
  00011	52		 push	 edx
  00012	ff 15 00 00 00
	00		 call	 DWORD PTR __imp__GetClientRect@8
  00018	8b e5		 mov	 esp, ebp
  0001a	5d		 pop	 ebp
  0001b	c2 04 00	 ret	 4
?GetClientRect@CWnd@@QBEXPAUtagRECT@@@Z ENDP		; CWnd::GetClientRect
_TEXT	ENDS
EXTRN	__imp__InvalidateRect@12:NEAR
; Function compile flags: /Odt
;	COMDAT ?Invalidate@CWnd@@QAEXH@Z
_TEXT	SEGMENT
_this$ = -4						; size = 4
_bErase$ = 8						; size = 4
?Invalidate@CWnd@@QAEXH@Z PROC NEAR			; CWnd::Invalidate, COMDAT
; _this$ = ecx

; 135  : 	{ ASSERT(::IsWindow(m_hWnd)); ::InvalidateRect(m_hWnd, NULL, bErase); }

  00000	55		 push	 ebp
  00001	8b ec		 mov	 ebp, esp
  00003	51		 push	 ecx
  00004	89 4d fc	 mov	 DWORD PTR _this$[ebp], ecx
  00007	8b 45 08	 mov	 eax, DWORD PTR _bErase$[ebp]
  0000a	50		 push	 eax
  0000b	6a 00		 push	 0
  0000d	8b 4d fc	 mov	 ecx, DWORD PTR _this$[ebp]
  00010	8b 51 20	 mov	 edx, DWORD PTR [ecx+32]
  00013	52		 push	 edx
  00014	ff 15 00 00 00
	00		 call	 DWORD PTR __imp__InvalidateRect@12
  0001a	8b e5		 mov	 esp, ebp
  0001c	5d		 pop	 ebp
  0001d	c2 04 00	 ret	 4
?Invalidate@CWnd@@QAEXH@Z ENDP				; CWnd::Invalidate
_TEXT	ENDS
EXTRN	?Default@CWnd@@IAEJXZ:NEAR			; CWnd::Default
; Function compile flags: /Odt
;	COMDAT ?OnCreate@CWnd@@IAEHPAUtagCREATESTRUCTA@@@Z
_TEXT	SEGMENT
_this$ = -4						; size = 4
___formal$ = 8						; size = 4
?OnCreate@CWnd@@IAEHPAUtagCREATESTRUCTA@@@Z PROC NEAR	; CWnd::OnCreate, COMDAT
; _this$ = ecx

; 360  : 	{ return (int)Default(); }

  00000	55		 push	 ebp
  00001	8b ec		 mov	 ebp, esp
  00003	51		 push	 ecx
  00004	89 4d fc	 mov	 DWORD PTR _this$[ebp], ecx
  00007	8b 4d fc	 mov	 ecx, DWORD PTR _this$[ebp]
  0000a	e8 00 00 00 00	 call	 ?Default@CWnd@@IAEJXZ	; CWnd::Default
  0000f	8b e5		 mov	 esp, ebp
  00011	5d		 pop	 ebp
  00012	c2 04 00	 ret	 4
?OnCreate@CWnd@@IAEHPAUtagCREATESTRUCTA@@@Z ENDP	; CWnd::OnCreate
; Function compile flags: /Odt
_TEXT	ENDS
;	COMDAT ?OnLButtonDown@CWnd@@IAEXIVCPoint@@@Z
_TEXT	SEGMENT
_this$ = -4						; size = 4
___formal$ = 8						; size = 4
___formal$ = 12						; size = 8
?OnLButtonDown@CWnd@@IAEXIVCPoint@@@Z PROC NEAR		; CWnd::OnLButtonDown, COMDAT
; _this$ = ecx

; 464  : 	{ Default(); }

  00000	55		 push	 ebp
  00001	8b ec		 mov	 ebp, esp
  00003	51		 push	 ecx
  00004	89 4d fc	 mov	 DWORD PTR _this$[ebp], ecx
  00007	8b 4d fc	 mov	 ecx, DWORD PTR _this$[ebp]
  0000a	e8 00 00 00 00	 call	 ?Default@CWnd@@IAEJXZ	; CWnd::Default
  0000f	8b e5		 mov	 esp, ebp
  00011	5d		 pop	 ebp
  00012	c2 0c 00	 ret	 12			; 0000000cH
?OnLButtonDown@CWnd@@IAEXIVCPoint@@@Z ENDP		; CWnd::OnLButtonDown
; Function compile flags: /Odt
_TEXT	ENDS
;	COMDAT ?OnLButtonUp@CWnd@@IAEXIVCPoint@@@Z
_TEXT	SEGMENT
_this$ = -4						; size = 4
___formal$ = 8						; size = 4
___formal$ = 12						; size = 8
?OnLButtonUp@CWnd@@IAEXIVCPoint@@@Z PROC NEAR		; CWnd::OnLButtonUp, COMDAT
; _this$ = ecx

; 466  : 	{ Default(); }

  00000	55		 push	 ebp
  00001	8b ec		 mov	 ebp, esp
  00003	51		 push	 ecx
  00004	89 4d fc	 mov	 DWORD PTR _this$[ebp], ecx
  00007	8b 4d fc	 mov	 ecx, DWORD PTR _this$[ebp]
  0000a	e8 00 00 00 00	 call	 ?Default@CWnd@@IAEJXZ	; CWnd::Default
  0000f	8b e5		 mov	 esp, ebp
  00011	5d		 pop	 ebp
  00012	c2 0c 00	 ret	 12			; 0000000cH
?OnLButtonUp@CWnd@@IAEXIVCPoint@@@Z ENDP		; CWnd::OnLButtonUp
; Function compile flags: /Odt
_TEXT	ENDS
;	COMDAT ?OnMouseMove@CWnd@@IAEXIVCPoint@@@Z
_TEXT	SEGMENT
_this$ = -4						; size = 4
___formal$ = 8						; size = 4
___formal$ = 12						; size = 8
?OnMouseMove@CWnd@@IAEXIVCPoint@@@Z PROC NEAR		; CWnd::OnMouseMove, COMDAT
; _this$ = ecx

; 476  : 	{ Default(); }

  00000	55		 push	 ebp
  00001	8b ec		 mov	 ebp, esp
  00003	51		 push	 ecx
  00004	89 4d fc	 mov	 DWORD PTR _this$[ebp], ecx
  00007	8b 4d fc	 mov	 ecx, DWORD PTR _this$[ebp]
  0000a	e8 00 00 00 00	 call	 ?Default@CWnd@@IAEJXZ	; CWnd::Default
  0000f	8b e5		 mov	 esp, ebp
  00011	5d		 pop	 ebp
  00012	c2 0c 00	 ret	 12			; 0000000cH
?OnMouseMove@CWnd@@IAEXIVCPoint@@@Z ENDP		; CWnd::OnMouseMove
; Function compile flags: /Odt
_TEXT	ENDS
;	COMDAT ?DoDataExchange@CWnd@@MAEXPAVCDataExchange@@@Z
_TEXT	SEGMENT
_this$ = -4						; size = 4
___formal$ = 8						; size = 4
?DoDataExchange@CWnd@@MAEXPAVCDataExchange@@@Z PROC NEAR ; CWnd::DoDataExchange, COMDAT
; _this$ = ecx

; 545  : 	{ } // default does nothing

  00000	55		 push	 ebp
  00001	8b ec		 mov	 ebp, esp
  00003	51		 push	 ecx
  00004	89 4d fc	 mov	 DWORD PTR _this$[ebp], ecx
  00007	8b e5		 mov	 esp, ebp
  00009	5d		 pop	 ebp
  0000a	c2 04 00	 ret	 4
?DoDataExchange@CWnd@@MAEXPAVCDataExchange@@@Z ENDP	; CWnd::DoDataExchange
_TEXT	ENDS
EXTRN	__imp__EnableWindow@8:NEAR
; Function compile flags: /Odt
;	COMDAT ?BeginModalState@CWnd@@UAEXXZ
_TEXT	SEGMENT
_this$ = -4						; size = 4
?BeginModalState@CWnd@@UAEXXZ PROC NEAR			; CWnd::BeginModalState, COMDAT
; _this$ = ecx

; 549  : 	{ ::EnableWindow(m_hWnd, FALSE); }

  00000	55		 push	 ebp
  00001	8b ec		 mov	 ebp, esp
  00003	51		 push	 ecx
  00004	89 4d fc	 mov	 DWORD PTR _this$[ebp], ecx
  00007	6a 00		 push	 0
  00009	8b 45 fc	 mov	 eax, DWORD PTR _this$[ebp]
  0000c	8b 48 20	 mov	 ecx, DWORD PTR [eax+32]
  0000f	51		 push	 ecx
  00010	ff 15 00 00 00
	00		 call	 DWORD PTR __imp__EnableWindow@8
  00016	8b e5		 mov	 esp, ebp
  00018	5d		 pop	 ebp
  00019	c3		 ret	 0
?BeginModalState@CWnd@@UAEXXZ ENDP			; CWnd::BeginModalState
; Function compile flags: /Odt
_TEXT	ENDS
;	COMDAT ?EndModalState@CWnd@@UAEXXZ
_TEXT	SEGMENT
_this$ = -4						; size = 4
?EndModalState@CWnd@@UAEXXZ PROC NEAR			; CWnd::EndModalState, COMDAT
; _this$ = ecx

; 551  : 	{ ::EnableWindow(m_hWnd, TRUE); }

  00000	55		 push	 ebp
  00001	8b ec		 mov	 ebp, esp
  00003	51		 push	 ecx
  00004	89 4d fc	 mov	 DWORD PTR _this$[ebp], ecx
  00007	6a 01		 push	 1
  00009	8b 45 fc	 mov	 eax, DWORD PTR _this$[ebp]
  0000c	8b 48 20	 mov	 ecx, DWORD PTR [eax+32]
  0000f	51		 push	 ecx
  00010	ff 15 00 00 00
	00		 call	 DWORD PTR __imp__EnableWindow@8
  00016	8b e5		 mov	 esp, ebp
  00018	5d		 pop	 ebp
  00019	c3		 ret	 0
?EndModalState@CWnd@@UAEXXZ ENDP			; CWnd::EndModalState
_TEXT	ENDS
PUBLIC	??_R4CHeaderCtrl@@6B@				; CHeaderCtrl::`RTTI Complete Object Locator'
PUBLIC	??_R3CHeaderCtrl@@8				; CHeaderCtrl::`RTTI Class Hierarchy Descriptor'
PUBLIC	??_R2CHeaderCtrl@@8				; CHeaderCtrl::`RTTI Base Class Array'
PUBLIC	??_7CHeaderCtrl@@6B@				; CHeaderCtrl::`vftable'
PUBLIC	??_GCHeaderCtrl@@UAEPAXI@Z			; CHeaderCtrl::`scalar deleting destructor'
EXTRN	?GetMessageMap@CWnd@@MBEPBUAFX_MSGMAP@@XZ:NEAR	; CWnd::GetMessageMap
EXTRN	?GetRuntimeClass@CHeaderCtrl@@UBEPAUCRuntimeClass@@XZ:NEAR ; CHeaderCtrl::GetRuntimeClass
EXTRN	??_ECHeaderCtrl@@UAEPAXI@Z:NEAR			; CHeaderCtrl::`vector deleting destructor'
EXTRN	??0CWnd@@QAE@XZ:NEAR				; CWnd::CWnd
;	COMDAT ??_7CHeaderCtrl@@6B@
; File d:\program files (x86)\microsoft visual studio .net 2003\vc7\atlmfc\include\afxcmn.inl
CONST	SEGMENT
??_7CHeaderCtrl@@6B@ DD FLAT:??_R4CHeaderCtrl@@6B@	; CHeaderCtrl::`vftable'
	DD	FLAT:?GetRuntimeClass@CHeaderCtrl@@UBEPAUCRuntimeClass@@XZ
	DD	FLAT:??_ECHeaderCtrl@@UAEPAXI@Z
	DD	FLAT:?Serialize@CObject@@UAEXAAVCArchive@@@Z
	DD	FLAT:?AssertValid@CObject@@UBEXXZ
	DD	FLAT:?Dump@CObject@@UBEXAAVCDumpContext@@@Z
	DD	FLAT:?OnCmdMsg@CCmdTarget@@UAEHIHPAXPAUAFX_CMDHANDLERINFO@@@Z
	DD	FLAT:?OnFinalRelease@CWnd@@UAEXXZ
	DD	FLAT:?IsInvokeAllowed@CCmdTarget@@UAEHJ@Z
	DD	FLAT:?GetDispatchIID@CCmdTarget@@UAEHPAU_GUID@@@Z
	DD	FLAT:?GetTypeInfoCount@CCmdTarget@@UAEIXZ
	DD	FLAT:?GetTypeLibCache@CCmdTarget@@UAEPAVCTypeLibCache@@XZ
	DD	FLAT:?GetTypeLib@CCmdTarget@@UAEJKPAPAUITypeLib@@@Z
	DD	FLAT:?GetMessageMap@CWnd@@MBEPBUAFX_MSGMAP@@XZ
	DD	FLAT:?GetCommandMap@CCmdTarget@@MBEPBUAFX_OLECMDMAP@@XZ
	DD	FLAT:?GetDispatchMap@CCmdTarget@@MBEPBUAFX_DISPMAP@@XZ
	DD	FLAT:?GetConnectionMap@CCmdTarget@@MBEPBUAFX_CONNECTIONMAP@@XZ
	DD	FLAT:?GetInterfaceMap@CWnd@@MBEPBUAFX_INTERFACEMAP@@XZ
	DD	FLAT:?GetEventSinkMap@CCmdTarget@@MBEPBUAFX_EVENTSINKMAP@@XZ
	DD	FLAT:?OnCreateAggregates@CCmdTarget@@UAEHXZ
	DD	FLAT:?GetInterfaceHook@CCmdTarget@@UAEPAUIUnknown@@PBX@Z
	DD	FLAT:?GetExtraConnectionPoints@CCmdTarget@@MAEHPAVCPtrArray@@@Z
	DD	FLAT:?GetConnectionHook@CCmdTarget@@MAEPAUIConnectionPoint@@ABU_GUID@@@Z
	DD	FLAT:?PreSubclassWindow@CWnd@@UAEXXZ
	DD	FLAT:?Create@CWnd@@UAEHPBD0KABUtagRECT@@PAV1@IPAUCCreateContext@@@Z
	DD	FLAT:?CreateEx@CWnd@@UAEHKPBD0KABUtagRECT@@PAV1@IPAX@Z
	DD	FLAT:?CreateEx@CWnd@@UAEHKPBD0KHHHHPAUHWND__@@PAUHMENU__@@PAX@Z
	DD	FLAT:?DestroyWindow@CWnd@@UAEHXZ
	DD	FLAT:?PreCreateWindow@CWnd@@UAEHAAUtagCREATESTRUCTA@@@Z
	DD	FLAT:?CalcWindowRect@CWnd@@UAEXPAUtagRECT@@I@Z
	DD	FLAT:?OnToolHitTest@CWnd@@UBEHVCPoint@@PAUtagTOOLINFOA@@@Z
	DD	FLAT:?GetScrollBarCtrl@CWnd@@UBEPAVCScrollBar@@H@Z
	DD	FLAT:?WinHelpA@CWnd@@UAEXKI@Z
	DD	FLAT:?HtmlHelpA@CWnd@@UAEXKI@Z
	DD	FLAT:?WinHelpInternal@CWnd@@UAEXKI@Z
	DD	FLAT:?ContinueModal@CWnd@@UAEHXZ
	DD	FLAT:?EndModalLoop@CWnd@@UAEXH@Z
	DD	FLAT:?EnsureStdObj@CWnd@@UAEJXZ
	DD	FLAT:?get_accParent@CWnd@@UAEJPAPAUIDispatch@@@Z
	DD	FLAT:?get_accChildCount@CWnd@@UAEJPAJ@Z
	DD	FLAT:?get_accChild@CWnd@@UAEJUtagVARIANT@@PAPAUIDispatch@@@Z
	DD	FLAT:?get_accName@CWnd@@UAEJUtagVARIANT@@PAPA_W@Z
	DD	FLAT:?get_accValue@CWnd@@UAEJUtagVARIANT@@PAPA_W@Z
	DD	FLAT:?get_accDescription@CWnd@@UAEJUtagVARIANT@@PAPA_W@Z
	DD	FLAT:?get_accRole@CWnd@@UAEJUtagVARIANT@@PAU2@@Z
	DD	FLAT:?get_accState@CWnd@@UAEJUtagVARIANT@@PAU2@@Z
	DD	FLAT:?get_accHelp@CWnd@@UAEJUtagVARIANT@@PAPA_W@Z
	DD	FLAT:?get_accHelpTopic@CWnd@@UAEJPAPA_WUtagVARIANT@@PAJ@Z
	DD	FLAT:?get_accKeyboardShortcut@CWnd@@UAEJUtagVARIANT@@PAPA_W@Z
	DD	FLAT:?get_accFocus@CWnd@@UAEJPAUtagVARIANT@@@Z
	DD	FLAT:?get_accSelection@CWnd@@UAEJPAUtagVARIANT@@@Z
	DD	FLAT:?get_accDefaultAction@CWnd@@UAEJUtagVARIANT@@PAPA_W@Z
	DD	FLAT:?accSelect@CWnd@@UAEJJUtagVARIANT@@@Z
	DD	FLAT:?accLocation@CWnd@@UAEJPAJ000UtagVARIANT@@@Z
	DD	FLAT:?accNavigate@CWnd@@UAEJJUtagVARIANT@@PAU2@@Z
	DD	FLAT:?accHitTest@CWnd@@UAEJJJPAUtagVARIANT@@@Z
	DD	FLAT:?accDoDefaultAction@CWnd@@UAEJUtagVARIANT@@@Z
	DD	FLAT:?put_accName@CWnd@@UAEJUtagVARIANT@@PA_W@Z
	DD	FLAT:?put_accValue@CWnd@@UAEJUtagVARIANT@@PA_W@Z
	DD	FLAT:?SetProxy@CWnd@@UAEJPAUIAccessibleProxy@@@Z
	DD	FLAT:?CreateAccessibleProxy@CWnd@@UAEJIJPAJ@Z
	DD	FLAT:?OnCommand@CWnd@@MAEHIJ@Z
	DD	FLAT:?OnNotify@CWnd@@MAEHIJPAJ@Z
	DD	FLAT:?GetSuperWndProcAddr@CWnd@@MAEPAP6GJPAUHWND__@@IIJ@ZXZ
	DD	FLAT:?DoDataExchange@CWnd@@MAEXPAVCDataExchange@@@Z
	DD	FLAT:?BeginModalState@CWnd@@UAEXXZ
	DD	FLAT:?EndModalState@CWnd@@UAEXXZ
	DD	FLAT:?PreTranslateMessage@CWnd@@UAEHPAUtagMSG@@@Z
	DD	FLAT:?OnAmbientProperty@CWnd@@UAEHPAVCOleControlSite@@JPAUtagVARIANT@@@Z
	DD	FLAT:?WindowProc@CWnd@@MAEJIIJ@Z
	DD	FLAT:?OnWndMsg@CWnd@@MAEHIIJPAJ@Z
	DD	FLAT:?DefWindowProcA@CWnd@@MAEJIIJ@Z
	DD	FLAT:?PostNcDestroy@CWnd@@MAEXXZ
	DD	FLAT:?OnChildNotify@CHeaderCtrl@@MAEHIIJPAJ@Z
	DD	FLAT:?CheckAutoCenter@CWnd@@UAEHXZ
	DD	FLAT:?IsFrameWnd@CWnd@@UBEHXZ
	DD	FLAT:?CreateControlContainer@CWnd@@MAEHPAPAVCOleControlContainer@@@Z
	DD	FLAT:?CreateControlSite@CWnd@@MAEHPAVCOleControlContainer@@PAPAVCOleControlSite@@IABU_GUID@@@Z
	DD	FLAT:?SetOccDialogInfo@CWnd@@MAEHPAU_AFX_OCC_DIALOG_INFO@@@Z
	DD	FLAT:?Create@CHeaderCtrl@@UAEHKABUtagRECT@@PAVCWnd@@I@Z
	DD	FLAT:?CreateEx@CHeaderCtrl@@UAEHKKABUtagRECT@@PAVCWnd@@I@Z
	DD	FLAT:?DrawItem@CHeaderCtrl@@UAEXPAUtagDRAWITEMSTRUCT@@@Z
CONST	ENDS
;	COMDAT ??_R4CHeaderCtrl@@6B@
rdata$r	SEGMENT
??_R4CHeaderCtrl@@6B@ DD 00H				; CHeaderCtrl::`RTTI Complete Object Locator'
	DD	00H
	DD	00H
	DD	FLAT:??_R0?AVCHeaderCtrl@@@8
	DD	FLAT:??_R3CHeaderCtrl@@8
rdata$r	ENDS
;	COMDAT ??_R3CHeaderCtrl@@8
rdata$r	SEGMENT
??_R3CHeaderCtrl@@8 DD 00H				; CHeaderCtrl::`RTTI Class Hierarchy Descriptor'
	DD	00H
	DD	04H
	DD	FLAT:??_R2CHeaderCtrl@@8
rdata$r	ENDS
;	COMDAT ??_R2CHeaderCtrl@@8
rdata$r	SEGMENT
??_R2CHeaderCtrl@@8 DD FLAT:??_R1A@?0A@A@CHeaderCtrl@@8	; CHeaderCtrl::`RTTI Base Class Array'
	DD	FLAT:??_R1A@?0A@A@CWnd@@8
	DD	FLAT:??_R1A@?0A@A@CCmdTarget@@8
	DD	FLAT:??_R1A@?0A@A@CObject@@8
; Function compile flags: /Odt
rdata$r	ENDS
;	COMDAT ??0CHeaderCtrl@@QAE@XZ
_TEXT	SEGMENT
_this$ = -4						; size = 4
??0CHeaderCtrl@@QAE@XZ PROC NEAR			; CHeaderCtrl::CHeaderCtrl, COMDAT
; _this$ = ecx

; 476  : 	{ }

  00000	55		 push	 ebp
  00001	8b ec		 mov	 ebp, esp
  00003	51		 push	 ecx
  00004	89 4d fc	 mov	 DWORD PTR _this$[ebp], ecx
  00007	8b 4d fc	 mov	 ecx, DWORD PTR _this$[ebp]
  0000a	e8 00 00 00 00	 call	 ??0CWnd@@QAE@XZ		; CWnd::CWnd
  0000f	8b 45 fc	 mov	 eax, DWORD PTR _this$[ebp]
  00012	c7 00 00 00 00
	00		 mov	 DWORD PTR [eax], OFFSET FLAT:??_7CHeaderCtrl@@6B@
  00018	8b 45 fc	 mov	 eax, DWORD PTR _this$[ebp]
  0001b	8b e5		 mov	 esp, ebp
  0001d	5d		 pop	 ebp
  0001e	c3		 ret	 0
??0CHeaderCtrl@@QAE@XZ ENDP				; CHeaderCtrl::CHeaderCtrl
; Function compile flags: /Odt
_TEXT	ENDS
;	COMDAT ??_GCHeaderCtrl@@UAEPAXI@Z
_TEXT	SEGMENT
_this$ = -4						; size = 4
___flags$ = 8						; size = 4
??_GCHeaderCtrl@@UAEPAXI@Z PROC NEAR			; CHeaderCtrl::`scalar deleting destructor', COMDAT
; _this$ = ecx
  00000	55		 push	 ebp
  00001	8b ec		 mov	 ebp, esp
  00003	51		 push	 ecx
  00004	89 4d fc	 mov	 DWORD PTR _this$[ebp], ecx
  00007	8b 4d fc	 mov	 ecx, DWORD PTR _this$[ebp]
  0000a	e8 00 00 00 00	 call	 ??1CHeaderCtrl@@UAE@XZ	; CHeaderCtrl::~CHeaderCtrl
  0000f	8b 45 08	 mov	 eax, DWORD PTR ___flags$[ebp]
  00012	83 e0 01	 and	 eax, 1
  00015	74 09		 je	 SHORT $L96545
  00017	8b 4d fc	 mov	 ecx, DWORD PTR _this$[ebp]
  0001a	51		 push	 ecx
  0001b	e8 00 00 00 00	 call	 ??3CObject@@SGXPAX@Z	; CObject::operator delete
$L96545:
  00020	8b 45 fc	 mov	 eax, DWORD PTR _this$[ebp]
  00023	8b e5		 mov	 esp, ebp
  00025	5d		 pop	 ebp
  00026	c2 04 00	 ret	 4
??_GCHeaderCtrl@@UAEPAXI@Z ENDP				; CHeaderCtrl::`scalar deleting destructor'
; Function compile flags: /Odt
_TEXT	ENDS
;	COMDAT ?GetItemCount@CHeaderCtrl@@QBEHXZ
_TEXT	SEGMENT
_this$ = -4						; size = 4
?GetItemCount@CHeaderCtrl@@QBEHXZ PROC NEAR		; CHeaderCtrl::GetItemCount, COMDAT
; _this$ = ecx

; 478  : 	{ ASSERT(::IsWindow(m_hWnd)); return (int) ::SendMessage(m_hWnd, HDM_GETITEMCOUNT, 0, 0L); }

  00000	55		 push	 ebp
  00001	8b ec		 mov	 ebp, esp
  00003	51		 push	 ecx
  00004	89 4d fc	 mov	 DWORD PTR _this$[ebp], ecx
  00007	6a 00		 push	 0
  00009	6a 00		 push	 0
  0000b	68 00 12 00 00	 push	 4608			; 00001200H
  00010	8b 45 fc	 mov	 eax, DWORD PTR _this$[ebp]
  00013	8b 48 20	 mov	 ecx, DWORD PTR [eax+32]
  00016	51		 push	 ecx
  00017	ff 15 00 00 00
	00		 call	 DWORD PTR __imp__SendMessageA@16
  0001d	8b e5		 mov	 esp, ebp
  0001f	5d		 pop	 ebp
  00020	c3		 ret	 0
?GetItemCount@CHeaderCtrl@@QBEHXZ ENDP			; CHeaderCtrl::GetItemCount
; Function compile flags: /Odt
_TEXT	ENDS
;	COMDAT ?GetItem@CHeaderCtrl@@QBEHHPAU_HD_ITEMA@@@Z
_TEXT	SEGMENT
_this$ = -4						; size = 4
_nPos$ = 8						; size = 4
_pHeaderItem$ = 12					; size = 4
?GetItem@CHeaderCtrl@@QBEHHPAU_HD_ITEMA@@@Z PROC NEAR	; CHeaderCtrl::GetItem, COMDAT
; _this$ = ecx

; 484  : 	{ ASSERT(::IsWindow(m_hWnd)); return (BOOL)::SendMessage(m_hWnd, HDM_GETITEM, nPos, (LPARAM)pHeaderItem); }

  00000	55		 push	 ebp
  00001	8b ec		 mov	 ebp, esp
  00003	51		 push	 ecx
  00004	89 4d fc	 mov	 DWORD PTR _this$[ebp], ecx
  00007	8b 45 0c	 mov	 eax, DWORD PTR _pHeaderItem$[ebp]
  0000a	50		 push	 eax
  0000b	8b 4d 08	 mov	 ecx, DWORD PTR _nPos$[ebp]
  0000e	51		 push	 ecx
  0000f	68 03 12 00 00	 push	 4611			; 00001203H
  00014	8b 55 fc	 mov	 edx, DWORD PTR _this$[ebp]
  00017	8b 42 20	 mov	 eax, DWORD PTR [edx+32]
  0001a	50		 push	 eax
  0001b	ff 15 00 00 00
	00		 call	 DWORD PTR __imp__SendMessageA@16
  00021	8b e5		 mov	 esp, ebp
  00023	5d		 pop	 ebp
  00024	c2 08 00	 ret	 8
?GetItem@CHeaderCtrl@@QBEHHPAU_HD_ITEMA@@@Z ENDP	; CHeaderCtrl::GetItem
; Function compile flags: /Odt
; File d:\program files (x86)\microsoft visual studio .net 2003\vc7\atlmfc\include\afxcmn2.inl
_TEXT	ENDS
;	COMDAT ?GetItemRect@CHeaderCtrl@@QBEHHPAUtagRECT@@@Z
_TEXT	SEGMENT
_this$ = -4						; size = 4
_nIndex$ = 8						; size = 4
_lpRect$ = 12						; size = 4
?GetItemRect@CHeaderCtrl@@QBEHHPAUtagRECT@@@Z PROC NEAR	; CHeaderCtrl::GetItemRect, COMDAT
; _this$ = ecx

; 152  : 	{ ASSERT(::IsWindow(m_hWnd)); ASSERT(lpRect != NULL); return (BOOL)::SendMessage(m_hWnd, HDM_GETITEMRECT, nIndex, (LPARAM)lpRect); }

  00000	55		 push	 ebp
  00001	8b ec		 mov	 ebp, esp
  00003	51		 push	 ecx
  00004	89 4d fc	 mov	 DWORD PTR _this$[ebp], ecx
  00007	8b 45 0c	 mov	 eax, DWORD PTR _lpRect$[ebp]
  0000a	50		 push	 eax
  0000b	8b 4d 08	 mov	 ecx, DWORD PTR _nIndex$[ebp]
  0000e	51		 push	 ecx
  0000f	68 07 12 00 00	 push	 4615			; 00001207H
  00014	8b 55 fc	 mov	 edx, DWORD PTR _this$[ebp]
  00017	8b 42 20	 mov	 eax, DWORD PTR [edx+32]
  0001a	50		 push	 eax
  0001b	ff 15 00 00 00
	00		 call	 DWORD PTR __imp__SendMessageA@16
  00021	8b e5		 mov	 esp, ebp
  00023	5d		 pop	 ebp
  00024	c2 08 00	 ret	 8
?GetItemRect@CHeaderCtrl@@QBEHHPAUtagRECT@@@Z ENDP	; CHeaderCtrl::GetItemRect
_TEXT	ENDS
END
