; Listing generated by Microsoft (R) Optimizing Compiler Version 13.10.3077 

	TITLE	.\src\module\WebInteract\MyWebBrowserWnd.cpp
	.386P
include listing.inc
if @Version gt 510
.model FLAT
else
_TEXT	SEGMENT PARA USE32 PUBLIC 'CODE'
_TEXT	ENDS
_DATA	SEGMENT DWORD USE32 PUBLIC 'DATA'
_DATA	ENDS
CONST	SEGMENT DWORD USE32 PUBLIC 'CONST'
CONST	ENDS
_BSS	SEGMENT DWORD USE32 PUBLIC 'BSS'
_BSS	ENDS
$$SYMBOLS	SEGMENT BYTE USE32 'DEBSYM'
$$SYMBOLS	ENDS
$$TYPES	SEGMENT BYTE USE32 'DEBTYP'
$$TYPES	ENDS
_TLS	SEGMENT DWORD USE32 PUBLIC 'TLS'
_TLS	ENDS
;	COMDAT ??_C@_0P@CLMBAKJD@JSCall?5Error?3?6?$AA@
CONST	SEGMENT DWORD USE32 PUBLIC 'CONST'
CONST	ENDS
;	COMDAT ??_C@_08OLHMJGAF@stop?4swf?$AA@
CONST	SEGMENT DWORD USE32 PUBLIC 'CONST'
CONST	ENDS
;	COMDAT ??_C@_0M@DBEKFKCI@loading?4swf?$AA@
CONST	SEGMENT DWORD USE32 PUBLIC 'CONST'
CONST	ENDS
;	COMDAT ??_C@_0BH@PCLJNBEP@?2Resources?2StandardUI?2?$AA@
CONST	SEGMENT DWORD USE32 PUBLIC 'CONST'
CONST	ENDS
;	COMDAT ??_C@_04JAADICNI@?5?$DN?1?$FL?$AA@
CONST	SEGMENT DWORD USE32 PUBLIC 'CONST'
CONST	ENDS
;	COMDAT ??_C@_0L@GJIJNDEK@ISO?98859?91?$AA@
CONST	SEGMENT DWORD USE32 PUBLIC 'CONST'
CONST	ENDS
;	COMDAT ??_C@_01JLIPDDHJ@?3?$AA@
CONST	SEGMENT DWORD USE32 PUBLIC 'CONST'
CONST	ENDS
rdata$r	SEGMENT DWORD USE32 PUBLIC 'CONST'
rdata$r	ENDS
xdata$x	SEGMENT DWORD USE32 PUBLIC 'CONST'
xdata$x	ENDS
text$AFX_COL1	SEGMENT PARA USE32 PUBLIC ''
text$AFX_COL1	ENDS
text$yc	SEGMENT PARA USE32 PUBLIC 'CODE'
text$yc	ENDS
CRT$XCA	SEGMENT DWORD USE32 PUBLIC 'DATA'
CRT$XCA	ENDS
CRT$XCU	SEGMENT DWORD USE32 PUBLIC 'DATA'
CRT$XCU	ENDS
CRT$XCL	SEGMENT DWORD USE32 PUBLIC 'DATA'
CRT$XCL	ENDS
CRT$XCC	SEGMENT DWORD USE32 PUBLIC 'DATA'
CRT$XCC	ENDS
CRT$XCZ	SEGMENT DWORD USE32 PUBLIC 'DATA'
CRT$XCZ	ENDS
text$yd	SEGMENT PARA USE32 PUBLIC 'CODE'
text$yd	ENDS
ATL$__m	SEGMENT DWORD USE32 PUBLIC ''
ATL$__m	ENDS
ATL$__z	SEGMENT DWORD USE32 PUBLIC ''
ATL$__z	ENDS
ATL$__a	SEGMENT DWORD USE32 PUBLIC ''
ATL$__a	ENDS
;	COMDAT ?IWebRefreshOb_Refresh@IWebRefreshObserver@@UAEXPBD@Z
_TEXT	SEGMENT PARA USE32 PUBLIC 'CODE'
_TEXT	ENDS
;	COMDAT ?GetClsid@CShockwaveFlash@@QAEABU_GUID@@XZ
_TEXT	SEGMENT PARA USE32 PUBLIC 'CODE'
_TEXT	ENDS
;	COMDAT ??0CCustomControlSite@@QAE@PAVCOleControlContainer@@@Z
_TEXT	SEGMENT PARA USE32 PUBLIC 'CODE'
_TEXT	ENDS
;	COMDAT ??_GCCustomControlSite@@UAEPAXI@Z
_TEXT	SEGMENT PARA USE32 PUBLIC 'CODE'
_TEXT	ENDS
;	COMDAT ??0XDocHostShowUI@CCustomControlSite@@QAE@XZ
_TEXT	SEGMENT PARA USE32 PUBLIC 'CODE'
_TEXT	ENDS
;	COMDAT ??0XDocHostUIHandler@CCustomControlSite@@QAE@XZ
_TEXT	SEGMENT PARA USE32 PUBLIC 'CODE'
_TEXT	ENDS
;	COMDAT ??1CCustomControlSite@@UAE@XZ
_TEXT	SEGMENT PARA USE32 PUBLIC 'CODE'
_TEXT	ENDS
;	COMDAT ??0IDocHostShowUI@@QAE@XZ
_TEXT	SEGMENT PARA USE32 PUBLIC 'CODE'
_TEXT	ENDS
;	COMDAT ??0IDocHostUIHandler@@QAE@XZ
_TEXT	SEGMENT PARA USE32 PUBLIC 'CODE'
_TEXT	ENDS
;	COMDAT ??0CCustomOccManager@@QAE@XZ
_TEXT	SEGMENT PARA USE32 PUBLIC 'CODE'
_TEXT	ENDS
;	COMDAT ?CreateSite@CCustomOccManager@@UAEPAVCOleControlSite@@PAVCOleControlContainer@@@Z
_TEXT	SEGMENT PARA USE32 PUBLIC 'CODE'
_TEXT	ENDS
;	COMDAT ??_GCCustomOccManager@@UAEPAXI@Z
_TEXT	SEGMENT PARA USE32 PUBLIC 'CODE'
_TEXT	ENDS
;	COMDAT ??0COccManager@@QAE@XZ
_TEXT	SEGMENT PARA USE32 PUBLIC 'CODE'
_TEXT	ENDS
;	COMDAT ??1COccManager@@UAE@XZ
_TEXT	SEGMENT PARA USE32 PUBLIC 'CODE'
_TEXT	ENDS
;	COMDAT ??1CCustomOccManager@@UAE@XZ
_TEXT	SEGMENT PARA USE32 PUBLIC 'CODE'
_TEXT	ENDS
;	COMDAT ??_GCOccManager@@UAEPAXI@Z
_TEXT	SEGMENT PARA USE32 PUBLIC 'CODE'
_TEXT	ENDS
;	COMDAT ??0CNoTrackObject@@QAE@XZ
_TEXT	SEGMENT PARA USE32 PUBLIC 'CODE'
_TEXT	ENDS
;	COMDAT ?GetSwfPath@GlobalSwfPath@@SA?AV?$CStringT@DV?$StrTraitMFC_DLL@DV?$ChTraitsCRT@D@ATL@@@@@ATL@@XZ
_TEXT	SEGMENT PARA USE32 PUBLIC 'CODE'
_TEXT	ENDS
;	COMDAT ??0CMarkup@@QAE@XZ
_TEXT	SEGMENT PARA USE32 PUBLIC 'CODE'
_TEXT	ENDS
;	COMDAT ??1CMarkup@@UAE@XZ
_TEXT	SEGMENT PARA USE32 PUBLIC 'CODE'
_TEXT	ENDS
;	COMDAT ?AddElem@CMarkup@@QAE_NPBD0@Z
_TEXT	SEGMENT PARA USE32 PUBLIC 'CODE'
_TEXT	ENDS
;	COMDAT ?AddChildElem@CMarkup@@QAE_NPBD0@Z
_TEXT	SEGMENT PARA USE32 PUBLIC 'CODE'
_TEXT	ENDS
;	COMDAT ??0ElemPos@CMarkup@@QAE@XZ
_TEXT	SEGMENT PARA USE32 PUBLIC 'CODE'
_TEXT	ENDS
;	COMDAT ?Clear@ElemPos@CMarkup@@QAEXXZ
_TEXT	SEGMENT PARA USE32 PUBLIC 'CODE'
_TEXT	ENDS
;	COMDAT ?Clear@TokenPos@CMarkup@@QAEXXZ
_TEXT	SEGMENT PARA USE32 PUBLIC 'CODE'
_TEXT	ENDS
;	COMDAT ?x_SetPos@CMarkup@@IAEXHHH@Z
_TEXT	SEGMENT PARA USE32 PUBLIC 'CODE'
_TEXT	ENDS
;	COMDAT ??_GCMarkup@@UAEPAXI@Z
_TEXT	SEGMENT PARA USE32 PUBLIC 'CODE'
_TEXT	ENDS
;	COMDAT ?AddElem@CMarkupArchive@@UAE_NPBD0@Z
_TEXT	SEGMENT PARA USE32 PUBLIC 'CODE'
_TEXT	ENDS
;	COMDAT ?AddChildElem@CMarkupArchive@@UAE_NPBD0@Z
_TEXT	SEGMENT PARA USE32 PUBLIC 'CODE'
_TEXT	ENDS
;	COMDAT ?FindElem@CMarkupArchive@@UAE_NPBD@Z
_TEXT	SEGMENT PARA USE32 PUBLIC 'CODE'
_TEXT	ENDS
;	COMDAT ?FindChildElem@CMarkupArchive@@UAE_NPBD@Z
_TEXT	SEGMENT PARA USE32 PUBLIC 'CODE'
_TEXT	ENDS
;	COMDAT ??_GCMarkupArchive@@UAEPAXI@Z
_TEXT	SEGMENT PARA USE32 PUBLIC 'CODE'
_TEXT	ENDS
;	COMDAT ??1DIBINFO@@UAE@XZ
_TEXT	SEGMENT PARA USE32 PUBLIC 'CODE'
_TEXT	ENDS
;	COMDAT ??_GDIBINFO@@UAEPAXI@Z
_TEXT	SEGMENT PARA USE32 PUBLIC 'CODE'
_TEXT	ENDS
;	COMDAT ??1CGdiPlusBitmap@@UAE@XZ
_TEXT	SEGMENT PARA USE32 PUBLIC 'CODE'
_TEXT	ENDS
;	COMDAT ?Empty@CGdiPlusBitmap@@QAEXXZ
_TEXT	SEGMENT PARA USE32 PUBLIC 'CODE'
_TEXT	ENDS
;	COMDAT ?Load@CGdiPlusBitmap@@QAE_NPB_W@Z
_TEXT	SEGMENT PARA USE32 PUBLIC 'CODE'
_TEXT	ENDS
;	COMDAT ??_GCGdiPlusBitmap@@UAEPAXI@Z
_TEXT	SEGMENT PARA USE32 PUBLIC 'CODE'
_TEXT	ENDS
;	COMDAT ??1IData@@MAE@XZ
_TEXT	SEGMENT PARA USE32 PUBLIC 'CODE'
_TEXT	ENDS
;	COMDAT ?DataAppStart@IData@@UAEXXZ
_TEXT	SEGMENT PARA USE32 PUBLIC 'CODE'
_TEXT	ENDS
;	COMDAT ?DataAppExit@IData@@UAEXXZ
_TEXT	SEGMENT PARA USE32 PUBLIC 'CODE'
_TEXT	ENDS
;	COMDAT ??_GIData@@MAEPAXI@Z
_TEXT	SEGMENT PARA USE32 PUBLIC 'CODE'
_TEXT	ENDS
;	COMDAT ??1CGdiPlusBitmap@CSkinButton@@UAE@XZ
_TEXT	SEGMENT PARA USE32 PUBLIC 'CODE'
_TEXT	ENDS
;	COMDAT ?Empty@CGdiPlusBitmap@CSkinButton@@QAEXXZ
_TEXT	SEGMENT PARA USE32 PUBLIC 'CODE'
_TEXT	ENDS
;	COMDAT ?Load@CGdiPlusBitmap@CSkinButton@@QAE_NPB_W@Z
_TEXT	SEGMENT PARA USE32 PUBLIC 'CODE'
_TEXT	ENDS
;	COMDAT ??_GCGdiPlusBitmap@CSkinButton@@UAEPAXI@Z
_TEXT	SEGMENT PARA USE32 PUBLIC 'CODE'
_TEXT	ENDS
;	COMDAT ??1HTTPObserver@@UAE@XZ
_TEXT	SEGMENT PARA USE32 PUBLIC 'CODE'
_TEXT	ENDS
;	COMDAT ?HTTPOb_DownStart@HTTPObserver@@UAEXPBD0I@Z
_TEXT	SEGMENT PARA USE32 PUBLIC 'CODE'
_TEXT	ENDS
;	COMDAT ?HTTPOb_DownFinish@HTTPObserver@@UAEXPBD@Z
_TEXT	SEGMENT PARA USE32 PUBLIC 'CODE'
_TEXT	ENDS
;	COMDAT ?HTTPOb_DownFailed@HTTPObserver@@UAEXPBDW4HTTP_DOWN_FAILED_REASON@@@Z
_TEXT	SEGMENT PARA USE32 PUBLIC 'CODE'
_TEXT	ENDS
;	COMDAT ?HTTPOb_DownProgress@HTTPObserver@@UAEXPBDII@Z
_TEXT	SEGMENT PARA USE32 PUBLIC 'CODE'
_TEXT	ENDS
;	COMDAT ?HTTPOb_DownloadPause@HTTPObserver@@UAEXPBD@Z
_TEXT	SEGMENT PARA USE32 PUBLIC 'CODE'
_TEXT	ENDS
;	COMDAT ??_GHTTPObserver@@UAEPAXI@Z
_TEXT	SEGMENT PARA USE32 PUBLIC 'CODE'
_TEXT	ENDS
;	COMDAT ??1P2PObserver@@UAE@XZ
_TEXT	SEGMENT PARA USE32 PUBLIC 'CODE'
_TEXT	ENDS
;	COMDAT ?P2POb_DownStart@P2PObserver@@UAEXABV?$basic_string@DU?$char_traits@D@std@@V?$allocator@D@2@@std@@PBDI@Z
_TEXT	SEGMENT PARA USE32 PUBLIC 'CODE'
_TEXT	ENDS
;	COMDAT ?P2POb_DownFinish@P2PObserver@@UAEXABV?$basic_string@DU?$char_traits@D@std@@V?$allocator@D@2@@std@@@Z
_TEXT	SEGMENT PARA USE32 PUBLIC 'CODE'
_TEXT	ENDS
;	COMDAT ?P2POb_DownFailed@P2PObserver@@UAEXABV?$basic_string@DU?$char_traits@D@std@@V?$allocator@D@2@@std@@W4P2P_DOWN_FAILED_REASON@@@Z
_TEXT	SEGMENT PARA USE32 PUBLIC 'CODE'
_TEXT	ENDS
;	COMDAT ?P2POb_DownProgress@P2PObserver@@UAEXABV?$basic_string@DU?$char_traits@D@std@@V?$allocator@D@2@@std@@III@Z
_TEXT	SEGMENT PARA USE32 PUBLIC 'CODE'
_TEXT	ENDS
;	COMDAT ?P2POb_DownPause@P2PObserver@@UAEXABV?$basic_string@DU?$char_traits@D@std@@V?$allocator@D@2@@std@@@Z
_TEXT	SEGMENT PARA USE32 PUBLIC 'CODE'
_TEXT	ENDS
;	COMDAT ?P2POb_SigChange@P2PObserver@@UAEXABV?$basic_string@DU?$char_traits@D@std@@V?$allocator@D@2@@std@@0PBD@Z
_TEXT	SEGMENT PARA USE32 PUBLIC 'CODE'
_TEXT	ENDS
;	COMDAT ??_GP2PObserver@@UAEPAXI@Z
_TEXT	SEGMENT PARA USE32 PUBLIC 'CODE'
_TEXT	ENDS
;	COMDAT _$E5
text$yc	SEGMENT PARA USE32 PUBLIC 'CODE'
text$yc	ENDS
;	COMDAT _$E7
text$yc	SEGMENT PARA USE32 PUBLIC 'CODE'
text$yc	ENDS
;	COMDAT ??1CAtlStringMgr@ATL@@UAE@XZ
_TEXT	SEGMENT PARA USE32 PUBLIC 'CODE'
_TEXT	ENDS
;	COMDAT ?Allocate@CAtlStringMgr@ATL@@UAEPAUCStringData@2@HH@Z
_TEXT	SEGMENT PARA USE32 PUBLIC 'CODE'
_TEXT	ENDS
;	COMDAT ?Free@CAtlStringMgr@ATL@@UAEXPAUCStringData@2@@Z
_TEXT	SEGMENT PARA USE32 PUBLIC 'CODE'
_TEXT	ENDS
;	COMDAT ?Reallocate@CAtlStringMgr@ATL@@UAEPAUCStringData@2@PAU32@HH@Z
_TEXT	SEGMENT PARA USE32 PUBLIC 'CODE'
_TEXT	ENDS
;	COMDAT ?GetNilString@CAtlStringMgr@ATL@@UAEPAUCStringData@2@XZ
_TEXT	SEGMENT PARA USE32 PUBLIC 'CODE'
_TEXT	ENDS
;	COMDAT ?Clone@CAtlStringMgr@ATL@@UAEPAUIAtlStringMgr@2@XZ
_TEXT	SEGMENT PARA USE32 PUBLIC 'CODE'
_TEXT	ENDS
;	COMDAT ??_GCAtlStringMgr@ATL@@UAEPAXI@Z
_TEXT	SEGMENT PARA USE32 PUBLIC 'CODE'
_TEXT	ENDS
;	COMDAT ?CompareStringW@?$ChTraitsOS@_W@ATL@@KGHKKPB_WH0H@Z
_TEXT	SEGMENT PARA USE32 PUBLIC 'CODE'
_TEXT	ENDS
;	COMDAT ?GetStringTypeExW@?$ChTraitsOS@_W@ATL@@KGHKKPB_WHPAG@Z
_TEXT	SEGMENT PARA USE32 PUBLIC 'CODE'
_TEXT	ENDS
;	COMDAT ?lstrcmpiW@?$ChTraitsOS@_W@ATL@@KGHPB_W0@Z
_TEXT	SEGMENT PARA USE32 PUBLIC 'CODE'
_TEXT	ENDS
;	COMDAT ?CharLowerW@?$ChTraitsOS@_W@ATL@@KGPA_WPA_W@Z
_TEXT	SEGMENT PARA USE32 PUBLIC 'CODE'
_TEXT	ENDS
;	COMDAT ?CharUpperW@?$ChTraitsOS@_W@ATL@@KGPA_WPA_W@Z
_TEXT	SEGMENT PARA USE32 PUBLIC 'CODE'
_TEXT	ENDS
;	COMDAT ?strchr@?$ChTraitsOS@_W@ATL@@SAPB_WPB_W_W@Z
_TEXT	SEGMENT PARA USE32 PUBLIC 'CODE'
_TEXT	ENDS
;	COMDAT ?strrchr@?$ChTraitsOS@_W@ATL@@SAPB_WPB_W_W@Z
_TEXT	SEGMENT PARA USE32 PUBLIC 'CODE'
_TEXT	ENDS
;	COMDAT ?_strrev@?$ChTraitsOS@_W@ATL@@SAPA_WPA_W@Z
_TEXT	SEGMENT PARA USE32 PUBLIC 'CODE'
_TEXT	ENDS
;	COMDAT ?strstr@?$ChTraitsOS@_W@ATL@@SAPB_WPB_W0@Z
_TEXT	SEGMENT PARA USE32 PUBLIC 'CODE'
_TEXT	ENDS
;	COMDAT ?strspn@?$ChTraitsOS@_W@ATL@@SAHPB_W0@Z
_TEXT	SEGMENT PARA USE32 PUBLIC 'CODE'
_TEXT	ENDS
;	COMDAT ?strcspn@?$ChTraitsOS@_W@ATL@@SAHPB_W0@Z
_TEXT	SEGMENT PARA USE32 PUBLIC 'CODE'
_TEXT	ENDS
;	COMDAT ?strpbrk@?$ChTraitsOS@_W@ATL@@SAPB_WPB_W0@Z
_TEXT	SEGMENT PARA USE32 PUBLIC 'CODE'
_TEXT	ENDS
;	COMDAT ?StringFindString@?$ChTraitsOS@_W@ATL@@SAPB_WPB_W0@Z
_TEXT	SEGMENT PARA USE32 PUBLIC 'CODE'
_TEXT	ENDS
;	COMDAT ??_GMyWebBrowserWnd@@UAEPAXI@Z
_TEXT	SEGMENT PARA USE32 PUBLIC 'CODE'
_TEXT	ENDS
;	COMDAT ??0IWebRefreshObserver@@QAE@XZ
_TEXT	SEGMENT PARA USE32 PUBLIC 'CODE'
_TEXT	ENDS
;	COMDAT ??1IWebRefreshObserver@@UAE@XZ
_TEXT	SEGMENT PARA USE32 PUBLIC 'CODE'
_TEXT	ENDS
;	COMDAT ??_GIWebRefreshObserver@@UAEPAXI@Z
_TEXT	SEGMENT PARA USE32 PUBLIC 'CODE'
_TEXT	ENDS
;	COMDAT ??0IMessageObserver@@QAE@XZ
_TEXT	SEGMENT PARA USE32 PUBLIC 'CODE'
_TEXT	ENDS
;	COMDAT ??HATL@@YA?AV?$CStringT@DV?$StrTraitMFC_DLL@DV?$ChTraitsCRT@D@ATL@@@@@0@ABV10@PBD@Z
_TEXT	SEGMENT PARA USE32 PUBLIC 'CODE'
_TEXT	ENDS
;	COMDAT ??HATL@@YA?AV?$CStringT@DV?$StrTraitMFC_DLL@DV?$ChTraitsCRT@D@ATL@@@@@0@PBDABV10@@Z
_TEXT	SEGMENT PARA USE32 PUBLIC 'CODE'
_TEXT	ENDS
;	COMDAT ??8ATL@@YA_NABV?$CStringT@DV?$StrTraitMFC_DLL@DV?$ChTraitsCRT@D@ATL@@@@@0@PBD@Z
_TEXT	SEGMENT PARA USE32 PUBLIC 'CODE'
_TEXT	ENDS
;	COMDAT ??8ATL@@YA_NPBDABV?$CStringT@DV?$StrTraitMFC_DLL@DV?$ChTraitsCRT@D@ATL@@@@@0@@Z
_TEXT	SEGMENT PARA USE32 PUBLIC 'CODE'
_TEXT	ENDS
;	COMDAT ??4?$CComPtr@UIWebBrowser2@@@ATL@@QAEPAUIWebBrowser2@@PAU2@@Z
_TEXT	SEGMENT PARA USE32 PUBLIC 'CODE'
_TEXT	ENDS
;	COMDAT ??I?$CComPtrBase@UIWebBrowser2@@@ATL@@QAEPAPAUIWebBrowser2@@XZ
_TEXT	SEGMENT PARA USE32 PUBLIC 'CODE'
_TEXT	ENDS
;	COMDAT ??B?$CComPtrBase@UITypeInfo2@@@ATL@@QBEPAUITypeInfo2@@XZ
_TEXT	SEGMENT PARA USE32 PUBLIC 'CODE'
_TEXT	ENDS
;	COMDAT ??B?$CComPtrBase@UIHTMLDocument2@@@ATL@@QBEPAUIHTMLDocument2@@XZ
_TEXT	SEGMENT PARA USE32 PUBLIC 'CODE'
_TEXT	ENDS
;	COMDAT ?equal@?$istreambuf_iterator@DU?$char_traits@D@std@@@std@@QBE_NABV12@@Z
_TEXT	SEGMENT PARA USE32 PUBLIC 'CODE'
_TEXT	ENDS
;	COMDAT ?equal@?$istreambuf_iterator@_WU?$char_traits@_W@std@@@std@@QBE_NABV12@@Z
_TEXT	SEGMENT PARA USE32 PUBLIC 'CODE'
_TEXT	ENDS
;	COMDAT ?StringCompare@?$ChTraitsCRT@D@ATL@@SAHPBD0@Z
_TEXT	SEGMENT PARA USE32 PUBLIC 'CODE'
_TEXT	ENDS
;	COMDAT ?Unlock@?$CComCritSecLock@VCComCriticalSection@ATL@@@ATL@@QAEXXZ
_TEXT	SEGMENT PARA USE32 PUBLIC 'CODE'
_TEXT	ENDS
;	COMDAT ??0?$CArray@UElemPos@CMarkup@@AAU12@@@QAE@XZ
_TEXT	SEGMENT PARA USE32 PUBLIC 'CODE'
_TEXT	ENDS
;	COMDAT ??1?$CArray@UElemPos@CMarkup@@AAU12@@@UAE@XZ
_TEXT	SEGMENT PARA USE32 PUBLIC 'CODE'
_TEXT	ENDS
;	COMDAT ?Serialize@?$CArray@UElemPos@CMarkup@@AAU12@@@UAEXAAVCArchive@@@Z
_TEXT	SEGMENT PARA USE32 PUBLIC 'CODE'
_TEXT	ENDS
;	COMDAT ??$AtlAlignUp@H@ATL@@YGHHK@Z
_TEXT	SEGMENT PARA USE32 PUBLIC 'CODE'
_TEXT	ENDS
;	COMDAT ??$_Maklocstr@D@std@@YAPADPBDPADABU_Cvtvec@@@Z
_TEXT	SEGMENT PARA USE32 PUBLIC 'CODE'
_TEXT	ENDS
;	COMDAT ??_G?$CArray@UElemPos@CMarkup@@AAU12@@@UAEPAXI@Z
_TEXT	SEGMENT PARA USE32 PUBLIC 'CODE'
_TEXT	ENDS
;	COMDAT ?SetSize@?$CArray@UElemPos@CMarkup@@AAU12@@@QAEXHH@Z
_TEXT	SEGMENT PARA USE32 PUBLIC 'CODE'
_TEXT	ENDS
;	COMDAT ??$SerializeElements@UElemPos@CMarkup@@@@YGXAAVCArchive@@PAUElemPos@CMarkup@@H@Z
_TEXT	SEGMENT PARA USE32 PUBLIC 'CODE'
_TEXT	ENDS
;	COMDAT ??_EMyWebBrowserWnd@@WPA@AEPAXI@Z
_TEXT	SEGMENT PARA USE32 PUBLIC 'CODE'
_TEXT	ENDS
;	COMDAT ??_R3CMarkup@@8
rdata$r	SEGMENT DWORD USE32 PUBLIC 'CONST'
rdata$r	ENDS
;	COMDAT ??_R3IData@@8
rdata$r	SEGMENT DWORD USE32 PUBLIC 'CONST'
rdata$r	ENDS
;	COMDAT ??_R3HTTPObserver@@8
rdata$r	SEGMENT DWORD USE32 PUBLIC 'CONST'
rdata$r	ENDS
;	COMDAT ??_R3CMarkupArchive@@8
rdata$r	SEGMENT DWORD USE32 PUBLIC 'CONST'
rdata$r	ENDS
;	COMDAT ??_R3CGdiPlusBitmap@CSkinButton@@8
rdata$r	SEGMENT DWORD USE32 PUBLIC 'CONST'
rdata$r	ENDS
;	COMDAT ??_R3?$CArray@UElemPos@CMarkup@@AAU12@@@8
rdata$r	SEGMENT DWORD USE32 PUBLIC 'CONST'
rdata$r	ENDS
;	COMDAT ??_R3IDocHostShowUI@@8
rdata$r	SEGMENT DWORD USE32 PUBLIC 'CONST'
rdata$r	ENDS
;	COMDAT ??_R3IDocHostUIHandler@@8
rdata$r	SEGMENT DWORD USE32 PUBLIC 'CONST'
rdata$r	ENDS
;	COMDAT ??_R3XDocHostUIHandler@CCustomControlSite@@8
rdata$r	SEGMENT DWORD USE32 PUBLIC 'CONST'
rdata$r	ENDS
;	COMDAT ??_R3P2PObserver@@8
rdata$r	SEGMENT DWORD USE32 PUBLIC 'CONST'
rdata$r	ENDS
;	COMDAT ??_R3CGdiPlusBitmap@@8
rdata$r	SEGMENT DWORD USE32 PUBLIC 'CONST'
rdata$r	ENDS
;	COMDAT ??_R3XDocHostShowUI@CCustomControlSite@@8
rdata$r	SEGMENT DWORD USE32 PUBLIC 'CONST'
rdata$r	ENDS
;	COMDAT ??_R3CCustomControlSite@@8
rdata$r	SEGMENT DWORD USE32 PUBLIC 'CONST'
rdata$r	ENDS
;	COMDAT ??_R3CAtlStringMgr@ATL@@8
rdata$r	SEGMENT DWORD USE32 PUBLIC 'CONST'
rdata$r	ENDS
;	COMDAT ??_R3COccManager@@8
rdata$r	SEGMENT DWORD USE32 PUBLIC 'CONST'
rdata$r	ENDS
;	COMDAT ??_R3IWebRefreshObserver@@8
rdata$r	SEGMENT DWORD USE32 PUBLIC 'CONST'
rdata$r	ENDS
;	COMDAT ??_R3CCustomOccManager@@8
rdata$r	SEGMENT DWORD USE32 PUBLIC 'CONST'
rdata$r	ENDS
;	COMDAT ??_R3DIBINFO@@8
rdata$r	SEGMENT DWORD USE32 PUBLIC 'CONST'
rdata$r	ENDS
;	COMDAT ??_R3?$numpunct@_W@std@@8
rdata$r	SEGMENT DWORD USE32 PUBLIC 'CONST'
rdata$r	ENDS
;	COMDAT ??_R3MyWebBrowserWnd@@8
rdata$r	SEGMENT DWORD USE32 PUBLIC 'CONST'
rdata$r	ENDS
;	COMDAT ??_R3?$numpunct@D@std@@8
rdata$r	SEGMENT DWORD USE32 PUBLIC 'CONST'
rdata$r	ENDS
;	COMDAT ??_R2CMarkup@@8
rdata$r	SEGMENT DWORD USE32 PUBLIC 'CONST'
rdata$r	ENDS
;	COMDAT ??_R2IData@@8
rdata$r	SEGMENT DWORD USE32 PUBLIC 'CONST'
rdata$r	ENDS
;	COMDAT ??_R2HTTPObserver@@8
rdata$r	SEGMENT DWORD USE32 PUBLIC 'CONST'
rdata$r	ENDS
;	COMDAT ??_R2CMarkupArchive@@8
rdata$r	SEGMENT DWORD USE32 PUBLIC 'CONST'
rdata$r	ENDS
;	COMDAT ??_R2CGdiPlusBitmap@CSkinButton@@8
rdata$r	SEGMENT DWORD USE32 PUBLIC 'CONST'
rdata$r	ENDS
;	COMDAT ??_R2?$CArray@UElemPos@CMarkup@@AAU12@@@8
rdata$r	SEGMENT DWORD USE32 PUBLIC 'CONST'
rdata$r	ENDS
;	COMDAT ??_R2IDocHostShowUI@@8
rdata$r	SEGMENT DWORD USE32 PUBLIC 'CONST'
rdata$r	ENDS
;	COMDAT ??_R2IDocHostUIHandler@@8
rdata$r	SEGMENT DWORD USE32 PUBLIC 'CONST'
rdata$r	ENDS
;	COMDAT ??_R2XDocHostUIHandler@CCustomControlSite@@8
rdata$r	SEGMENT DWORD USE32 PUBLIC 'CONST'
rdata$r	ENDS
;	COMDAT ??_R2P2PObserver@@8
rdata$r	SEGMENT DWORD USE32 PUBLIC 'CONST'
rdata$r	ENDS
;	COMDAT ??_R2CGdiPlusBitmap@@8
rdata$r	SEGMENT DWORD USE32 PUBLIC 'CONST'
rdata$r	ENDS
;	COMDAT ??_R2XDocHostShowUI@CCustomControlSite@@8
rdata$r	SEGMENT DWORD USE32 PUBLIC 'CONST'
rdata$r	ENDS
;	COMDAT ??_R2CCustomControlSite@@8
rdata$r	SEGMENT DWORD USE32 PUBLIC 'CONST'
rdata$r	ENDS
;	COMDAT ??_R2CAtlStringMgr@ATL@@8
rdata$r	SEGMENT DWORD USE32 PUBLIC 'CONST'
rdata$r	ENDS
;	COMDAT ??_R2COccManager@@8
rdata$r	SEGMENT DWORD USE32 PUBLIC 'CONST'
rdata$r	ENDS
;	COMDAT ??_R2IWebRefreshObserver@@8
rdata$r	SEGMENT DWORD USE32 PUBLIC 'CONST'
rdata$r	ENDS
;	COMDAT ??_R2CCustomOccManager@@8
rdata$r	SEGMENT DWORD USE32 PUBLIC 'CONST'
rdata$r	ENDS
;	COMDAT ??_R2DIBINFO@@8
rdata$r	SEGMENT DWORD USE32 PUBLIC 'CONST'
rdata$r	ENDS
;	COMDAT ??_R2?$numpunct@_W@std@@8
rdata$r	SEGMENT DWORD USE32 PUBLIC 'CONST'
rdata$r	ENDS
;	COMDAT ??_R2MyWebBrowserWnd@@8
rdata$r	SEGMENT DWORD USE32 PUBLIC 'CONST'
rdata$r	ENDS
;	COMDAT ??_R2?$numpunct@D@std@@8
rdata$r	SEGMENT DWORD USE32 PUBLIC 'CONST'
rdata$r	ENDS
;	COMDAT ??_R1A@?0A@A@IData@@8
rdata$r	SEGMENT DWORD USE32 PUBLIC 'CONST'
rdata$r	ENDS
;	COMDAT ??_R1A@?0A@A@HTTPObserver@@8
rdata$r	SEGMENT DWORD USE32 PUBLIC 'CONST'
rdata$r	ENDS
;	COMDAT ??_R1A@?0A@A@CMarkup@@8
rdata$r	SEGMENT DWORD USE32 PUBLIC 'CONST'
rdata$r	ENDS
;	COMDAT ??_R1A@?0A@A@CMarkupArchive@@8
rdata$r	SEGMENT DWORD USE32 PUBLIC 'CONST'
rdata$r	ENDS
;	COMDAT ??_R1A@?0A@A@CGdiPlusBitmap@CSkinButton@@8
rdata$r	SEGMENT DWORD USE32 PUBLIC 'CONST'
rdata$r	ENDS
;	COMDAT ??_R1A@?0A@A@?$CArray@UElemPos@CMarkup@@AAU12@@@8
rdata$r	SEGMENT DWORD USE32 PUBLIC 'CONST'
rdata$r	ENDS
;	COMDAT ??_R1A@?0A@A@IDocHostUIHandler@@8
rdata$r	SEGMENT DWORD USE32 PUBLIC 'CONST'
rdata$r	ENDS
;	COMDAT ??_R1A@?0A@A@XDocHostUIHandler@CCustomControlSite@@8
rdata$r	SEGMENT DWORD USE32 PUBLIC 'CONST'
rdata$r	ENDS
;	COMDAT ??_R1A@?0A@A@P2PObserver@@8
rdata$r	SEGMENT DWORD USE32 PUBLIC 'CONST'
rdata$r	ENDS
;	COMDAT ??_R1A@?0A@A@CGdiPlusBitmap@@8
rdata$r	SEGMENT DWORD USE32 PUBLIC 'CONST'
rdata$r	ENDS
;	COMDAT ??_R1A@?0A@A@IUnknown@@8
rdata$r	SEGMENT DWORD USE32 PUBLIC 'CONST'
rdata$r	ENDS
;	COMDAT ??_R0?AUIUnknown@@@8
_DATA	SEGMENT DWORD USE32 PUBLIC 'DATA'
_DATA	ENDS
;	COMDAT ??_R1A@?0A@A@IDocHostShowUI@@8
rdata$r	SEGMENT DWORD USE32 PUBLIC 'CONST'
rdata$r	ENDS
;	COMDAT ??_R1A@?0A@A@XDocHostShowUI@CCustomControlSite@@8
rdata$r	SEGMENT DWORD USE32 PUBLIC 'CONST'
rdata$r	ENDS
;	COMDAT ??_R1A@?0A@A@COleControlSite@@8
rdata$r	SEGMENT DWORD USE32 PUBLIC 'CONST'
rdata$r	ENDS
;	COMDAT ??_R1A@?0A@A@CCustomControlSite@@8
rdata$r	SEGMENT DWORD USE32 PUBLIC 'CONST'
rdata$r	ENDS
;	COMDAT ??_R1A@?0A@A@IAtlStringMgr@ATL@@8
rdata$r	SEGMENT DWORD USE32 PUBLIC 'CONST'
rdata$r	ENDS
;	COMDAT ??_R0?AUIAtlStringMgr@ATL@@@8
_DATA	SEGMENT DWORD USE32 PUBLIC 'DATA'
_DATA	ENDS
;	COMDAT ??_R1A@?0A@A@CAtlStringMgr@ATL@@8
rdata$r	SEGMENT DWORD USE32 PUBLIC 'CONST'
rdata$r	ENDS
;	COMDAT ??_R1A@?0A@A@IMessageObserver@@8
rdata$r	SEGMENT DWORD USE32 PUBLIC 'CONST'
rdata$r	ENDS
;	COMDAT ??_R1A@?0A@A@IWebRefreshObserver@@8
rdata$r	SEGMENT DWORD USE32 PUBLIC 'CONST'
rdata$r	ENDS
;	COMDAT ??_R1A@?0A@A@CNoTrackObject@@8
rdata$r	SEGMENT DWORD USE32 PUBLIC 'CONST'
rdata$r	ENDS
;	COMDAT ??_R0?AVCNoTrackObject@@@8
_DATA	SEGMENT DWORD USE32 PUBLIC 'DATA'
_DATA	ENDS
;	COMDAT ??_R1A@?0A@A@COccManager@@8
rdata$r	SEGMENT DWORD USE32 PUBLIC 'CONST'
rdata$r	ENDS
;	COMDAT ??_R1A@?0A@A@CCustomOccManager@@8
rdata$r	SEGMENT DWORD USE32 PUBLIC 'CONST'
rdata$r	ENDS
;	COMDAT ??_R1A@?0A@A@DIBINFO@@8
rdata$r	SEGMENT DWORD USE32 PUBLIC 'CONST'
rdata$r	ENDS
;	COMDAT ??_R1A@?0A@A@?$numpunct@_W@std@@8
rdata$r	SEGMENT DWORD USE32 PUBLIC 'CONST'
rdata$r	ENDS
;	COMDAT ??_R1PA@?0A@A@IMessageObserver@@8
rdata$r	SEGMENT DWORD USE32 PUBLIC 'CONST'
rdata$r	ENDS
;	COMDAT ??_R1PA@?0A@A@IWebRefreshObserver@@8
rdata$r	SEGMENT DWORD USE32 PUBLIC 'CONST'
rdata$r	ENDS
;	COMDAT ??_R1A@?0A@A@CObject@@8
rdata$r	SEGMENT DWORD USE32 PUBLIC 'CONST'
rdata$r	ENDS
;	COMDAT ??_R0?AVCObject@@@8
_DATA	SEGMENT DWORD USE32 PUBLIC 'DATA'
_DATA	ENDS
;	COMDAT ??_R1A@?0A@A@CCmdTarget@@8
rdata$r	SEGMENT DWORD USE32 PUBLIC 'CONST'
rdata$r	ENDS
;	COMDAT ??_R0?AVCCmdTarget@@@8
_DATA	SEGMENT DWORD USE32 PUBLIC 'DATA'
_DATA	ENDS
;	COMDAT ??_R1A@?0A@A@CWnd@@8
rdata$r	SEGMENT DWORD USE32 PUBLIC 'CONST'
rdata$r	ENDS
;	COMDAT ??_R0?AVCWnd@@@8
_DATA	SEGMENT DWORD USE32 PUBLIC 'DATA'
_DATA	ENDS
;	COMDAT ??_R1A@?0A@A@CView@@8
rdata$r	SEGMENT DWORD USE32 PUBLIC 'CONST'
rdata$r	ENDS
;	COMDAT ??_R1A@?0A@A@CScrollView@@8
rdata$r	SEGMENT DWORD USE32 PUBLIC 'CONST'
rdata$r	ENDS
;	COMDAT ??_R1A@?0A@A@CFormView@@8
rdata$r	SEGMENT DWORD USE32 PUBLIC 'CONST'
rdata$r	ENDS
;	COMDAT ??_R1A@?0A@A@CHtmlView@@8
rdata$r	SEGMENT DWORD USE32 PUBLIC 'CONST'
rdata$r	ENDS
;	COMDAT ??_R1A@?0A@A@MyWebBrowserWnd@@8
rdata$r	SEGMENT DWORD USE32 PUBLIC 'CONST'
rdata$r	ENDS
;	COMDAT ??_R1A@?0A@A@facet@locale@std@@8
rdata$r	SEGMENT DWORD USE32 PUBLIC 'CONST'
rdata$r	ENDS
;	COMDAT ??_R0?AVfacet@locale@std@@@8
_DATA	SEGMENT DWORD USE32 PUBLIC 'DATA'
_DATA	ENDS
;	COMDAT ??_R1A@?0A@A@?$numpunct@D@std@@8
rdata$r	SEGMENT DWORD USE32 PUBLIC 'CONST'
rdata$r	ENDS
;	COMDAT ??_R0?AVIData@@@8
_DATA	SEGMENT DWORD USE32 PUBLIC 'DATA'
_DATA	ENDS
;	COMDAT ??_R0?AVHTTPObserver@@@8
_DATA	SEGMENT DWORD USE32 PUBLIC 'DATA'
_DATA	ENDS
;	COMDAT ??_R0?AVCMarkup@@@8
_DATA	SEGMENT DWORD USE32 PUBLIC 'DATA'
_DATA	ENDS
;	COMDAT ??_R0?AVCMarkupArchive@@@8
_DATA	SEGMENT DWORD USE32 PUBLIC 'DATA'
_DATA	ENDS
;	COMDAT ??_R0?AVCGdiPlusBitmap@CSkinButton@@@8
_DATA	SEGMENT DWORD USE32 PUBLIC 'DATA'
_DATA	ENDS
;	COMDAT ??_R0?AV?$CArray@UElemPos@CMarkup@@AAU12@@@@8
_DATA	SEGMENT DWORD USE32 PUBLIC 'DATA'
_DATA	ENDS
;	COMDAT ??_R0?AUIDocHostUIHandler@@@8
_DATA	SEGMENT DWORD USE32 PUBLIC 'DATA'
_DATA	ENDS
;	COMDAT ??_R0?AVXDocHostUIHandler@CCustomControlSite@@@8
_DATA	SEGMENT DWORD USE32 PUBLIC 'DATA'
_DATA	ENDS
;	COMDAT ??_R0?AVP2PObserver@@@8
_DATA	SEGMENT DWORD USE32 PUBLIC 'DATA'
_DATA	ENDS
;	COMDAT ??_R0?AVCGdiPlusBitmap@@@8
_DATA	SEGMENT DWORD USE32 PUBLIC 'DATA'
_DATA	ENDS
;	COMDAT ??_R0?AUIDocHostShowUI@@@8
_DATA	SEGMENT DWORD USE32 PUBLIC 'DATA'
_DATA	ENDS
;	COMDAT ??_R0?AVXDocHostShowUI@CCustomControlSite@@@8
_DATA	SEGMENT DWORD USE32 PUBLIC 'DATA'
_DATA	ENDS
;	COMDAT ??_R0?AVCOleControlSite@@@8
_DATA	SEGMENT DWORD USE32 PUBLIC 'DATA'
_DATA	ENDS
;	COMDAT ??_R0?AVCCustomControlSite@@@8
_DATA	SEGMENT DWORD USE32 PUBLIC 'DATA'
_DATA	ENDS
;	COMDAT ??_R0?AVCAtlStringMgr@ATL@@@8
_DATA	SEGMENT DWORD USE32 PUBLIC 'DATA'
_DATA	ENDS
;	COMDAT ??_R0?AVCOccManager@@@8
_DATA	SEGMENT DWORD USE32 PUBLIC 'DATA'
_DATA	ENDS
;	COMDAT ??_R0?AVCCustomOccManager@@@8
_DATA	SEGMENT DWORD USE32 PUBLIC 'DATA'
_DATA	ENDS
;	COMDAT ??_R0?AVDIBINFO@@@8
_DATA	SEGMENT DWORD USE32 PUBLIC 'DATA'
_DATA	ENDS
;	COMDAT ??_R0?AV?$numpunct@_W@std@@@8
_DATA	SEGMENT DWORD USE32 PUBLIC 'DATA'
_DATA	ENDS
;	COMDAT ??_R0?AVIMessageObserver@@@8
_DATA	SEGMENT DWORD USE32 PUBLIC 'DATA'
_DATA	ENDS
;	COMDAT ??_R0?AVIWebRefreshObserver@@@8
_DATA	SEGMENT DWORD USE32 PUBLIC 'DATA'
_DATA	ENDS
;	COMDAT ??_R0?AVCView@@@8
_DATA	SEGMENT DWORD USE32 PUBLIC 'DATA'
_DATA	ENDS
;	COMDAT ??_R0?AVCScrollView@@@8
_DATA	SEGMENT DWORD USE32 PUBLIC 'DATA'
_DATA	ENDS
;	COMDAT ??_R0?AVCFormView@@@8
_DATA	SEGMENT DWORD USE32 PUBLIC 'DATA'
_DATA	ENDS
;	COMDAT ??_R0?AVCHtmlView@@@8
_DATA	SEGMENT DWORD USE32 PUBLIC 'DATA'
_DATA	ENDS
;	COMDAT ??_R0?AVMyWebBrowserWnd@@@8
_DATA	SEGMENT DWORD USE32 PUBLIC 'DATA'
_DATA	ENDS
;	COMDAT ??_R0?AV?$numpunct@D@std@@@8
_DATA	SEGMENT DWORD USE32 PUBLIC 'DATA'
_DATA	ENDS
;	COMDAT ??_R4CMarkup@@6B@
rdata$r	SEGMENT DWORD USE32 PUBLIC 'CONST'
rdata$r	ENDS
;	COMDAT ??_R4IData@@6B@
rdata$r	SEGMENT DWORD USE32 PUBLIC 'CONST'
rdata$r	ENDS
;	COMDAT ??_R4HTTPObserver@@6B@
rdata$r	SEGMENT DWORD USE32 PUBLIC 'CONST'
rdata$r	ENDS
;	COMDAT ??_R4CMarkupArchive@@6B@
rdata$r	SEGMENT DWORD USE32 PUBLIC 'CONST'
rdata$r	ENDS
;	COMDAT ??_R4CGdiPlusBitmap@CSkinButton@@6B@
rdata$r	SEGMENT DWORD USE32 PUBLIC 'CONST'
rdata$r	ENDS
;	COMDAT ??_R4?$CArray@UElemPos@CMarkup@@AAU12@@@6B@
rdata$r	SEGMENT DWORD USE32 PUBLIC 'CONST'
rdata$r	ENDS
;	COMDAT ??_R4IDocHostShowUI@@6B@
rdata$r	SEGMENT DWORD USE32 PUBLIC 'CONST'
rdata$r	ENDS
;	COMDAT ??_R4IDocHostUIHandler@@6B@
rdata$r	SEGMENT DWORD USE32 PUBLIC 'CONST'
rdata$r	ENDS
;	COMDAT ??_R4XDocHostUIHandler@CCustomControlSite@@6B@
rdata$r	SEGMENT DWORD USE32 PUBLIC 'CONST'
rdata$r	ENDS
;	COMDAT ??_R4P2PObserver@@6B@
rdata$r	SEGMENT DWORD USE32 PUBLIC 'CONST'
rdata$r	ENDS
;	COMDAT ??_R4CGdiPlusBitmap@@6B@
rdata$r	SEGMENT DWORD USE32 PUBLIC 'CONST'
rdata$r	ENDS
;	COMDAT ??_R4XDocHostShowUI@CCustomControlSite@@6B@
rdata$r	SEGMENT DWORD USE32 PUBLIC 'CONST'
rdata$r	ENDS
;	COMDAT ??_R4CCustomControlSite@@6B@
rdata$r	SEGMENT DWORD USE32 PUBLIC 'CONST'
rdata$r	ENDS
;	COMDAT ??_R4CAtlStringMgr@ATL@@6B@
rdata$r	SEGMENT DWORD USE32 PUBLIC 'CONST'
rdata$r	ENDS
;	COMDAT ??_R4COccManager@@6B@
rdata$r	SEGMENT DWORD USE32 PUBLIC 'CONST'
rdata$r	ENDS
;	COMDAT ??_R4IWebRefreshObserver@@6B@
rdata$r	SEGMENT DWORD USE32 PUBLIC 'CONST'
rdata$r	ENDS
;	COMDAT ??_R4CCustomOccManager@@6B@
rdata$r	SEGMENT DWORD USE32 PUBLIC 'CONST'
rdata$r	ENDS
;	COMDAT ??_R4DIBINFO@@6B@
rdata$r	SEGMENT DWORD USE32 PUBLIC 'CONST'
rdata$r	ENDS
;	COMDAT ??0?$allocator@_W@std@@QAE@XZ
_TEXT	SEGMENT PARA USE32 PUBLIC 'CODE'
_TEXT	ENDS
;	COMDAT ??_G?$numpunct@_W@std@@MAEPAXI@Z
_TEXT	SEGMENT PARA USE32 PUBLIC 'CODE'
_TEXT	ENDS
;	COMDAT ??_R4?$numpunct@_W@std@@6B@
rdata$r	SEGMENT DWORD USE32 PUBLIC 'CONST'
rdata$r	ENDS
;	COMDAT ??_R4MyWebBrowserWnd@@6BIWebRefreshObserver@@@
rdata$r	SEGMENT DWORD USE32 PUBLIC 'CONST'
rdata$r	ENDS
;	COMDAT ?EndModalState@CWnd@@UAEXXZ
_TEXT	SEGMENT PARA USE32 PUBLIC 'CODE'
_TEXT	ENDS
;	COMDAT ?BeginModalState@CWnd@@UAEXXZ
_TEXT	SEGMENT PARA USE32 PUBLIC 'CODE'
_TEXT	ENDS
;	COMDAT ?DoDataExchange@CWnd@@MAEXPAVCDataExchange@@@Z
_TEXT	SEGMENT PARA USE32 PUBLIC 'CODE'
_TEXT	ENDS
;	COMDAT ?accHitTest@CFormView@@UAEJJJPAUtagVARIANT@@@Z
_TEXT	SEGMENT PARA USE32 PUBLIC 'CODE'
_TEXT	ENDS
;	COMDAT ?accLocation@CFormView@@UAEJPAJ000UtagVARIANT@@@Z
_TEXT	SEGMENT PARA USE32 PUBLIC 'CODE'
_TEXT	ENDS
;	COMDAT ?get_accName@CFormView@@UAEJUtagVARIANT@@PAPA_W@Z
_TEXT	SEGMENT PARA USE32 PUBLIC 'CODE'
_TEXT	ENDS
;	COMDAT ?get_accChild@CFormView@@UAEJUtagVARIANT@@PAPAUIDispatch@@@Z
_TEXT	SEGMENT PARA USE32 PUBLIC 'CODE'
_TEXT	ENDS
;	COMDAT ?get_accChildCount@CFormView@@UAEJPAJ@Z
_TEXT	SEGMENT PARA USE32 PUBLIC 'CODE'
_TEXT	ENDS
;	COMDAT ?Dump@CObject@@UBEXAAVCDumpContext@@@Z
_TEXT	SEGMENT PARA USE32 PUBLIC 'CODE'
_TEXT	ENDS
;	COMDAT ?AssertValid@CObject@@UBEXXZ
_TEXT	SEGMENT PARA USE32 PUBLIC 'CODE'
_TEXT	ENDS
;	COMDAT ??_R4MyWebBrowserWnd@@6BCHtmlView@@@
rdata$r	SEGMENT DWORD USE32 PUBLIC 'CONST'
rdata$r	ENDS
;	COMDAT ??_G?$numpunct@D@std@@MAEPAXI@Z
_TEXT	SEGMENT PARA USE32 PUBLIC 'CODE'
_TEXT	ENDS
;	COMDAT ??_R4?$numpunct@D@std@@6B@
rdata$r	SEGMENT DWORD USE32 PUBLIC 'CONST'
rdata$r	ENDS
;	COMDAT ??3@YAXPAX0@Z
_TEXT	SEGMENT PARA USE32 PUBLIC 'CODE'
_TEXT	ENDS
;	COMDAT ??2@YAPAXIPAX@Z
_TEXT	SEGMENT PARA USE32 PUBLIC 'CODE'
_TEXT	ENDS
;	COMDAT ?IsStoring@CArchive@@QBEHXZ
_TEXT	SEGMENT PARA USE32 PUBLIC 'CODE'
_TEXT	ENDS
;	COMDAT ?Serialize@CObject@@UAEXAAVCArchive@@@Z
_TEXT	SEGMENT PARA USE32 PUBLIC 'CODE'
_TEXT	ENDS
;	COMDAT ??_7?$CArray@UElemPos@CMarkup@@AAU12@@@6B@
CONST	SEGMENT DWORD USE32 PUBLIC 'CONST'
CONST	ENDS
;	COMDAT ??1CObject@@UAE@XZ
_TEXT	SEGMENT PARA USE32 PUBLIC 'CODE'
_TEXT	ENDS
;	COMDAT ??0CObject@@IAE@XZ
_TEXT	SEGMENT PARA USE32 PUBLIC 'CODE'
_TEXT	ENDS
;	COMDAT ?_Psave@?$_Facetptr@V?$numpunct@_W@std@@@std@@2PBVfacet@locale@2@B
_DATA	SEGMENT DWORD USE32 PUBLIC 'DATA'
_DATA	ENDS
;	COMDAT ?_Psave@?$_Facetptr@V?$numpunct@D@std@@@std@@2PBVfacet@locale@2@B
_DATA	SEGMENT DWORD USE32 PUBLIC 'DATA'
_DATA	ENDS
;	COMDAT ?Unlock@CComCriticalSection@ATL@@QAEJXZ
_TEXT	SEGMENT PARA USE32 PUBLIC 'CODE'
_TEXT	ENDS
;	COMDAT ?_Psave@?$_Facetptr@V?$ctype@_W@std@@@std@@2PBVfacet@locale@2@B
_DATA	SEGMENT DWORD USE32 PUBLIC 'DATA'
_DATA	ENDS
;	COMDAT ?_Psave@?$_Facetptr@V?$ctype@D@std@@@std@@2PBVfacet@locale@2@B
_DATA	SEGMENT DWORD USE32 PUBLIC 'DATA'
_DATA	ENDS
;	COMDAT ??$_Maklocchr@_W@std@@YA_WDPA_WABU_Cvtvec@@@Z
_TEXT	SEGMENT PARA USE32 PUBLIC 'CODE'
_TEXT	ENDS
;	COMDAT ??$_Maklocstr@_W@std@@YAPA_WPBDPA_WABU_Cvtvec@@@Z
_TEXT	SEGMENT PARA USE32 PUBLIC 'CODE'
_TEXT	ENDS
;	COMDAT ??$_Maklocchr@D@std@@YADDPADABU_Cvtvec@@@Z
_TEXT	SEGMENT PARA USE32 PUBLIC 'CODE'
_TEXT	ENDS
;	COMDAT ??_C@_04LOAJBDKD@true?$AA@
CONST	SEGMENT DWORD USE32 PUBLIC 'CONST'
CONST	ENDS
;	COMDAT ??_C@_05LAPONLG@false?$AA@
CONST	SEGMENT DWORD USE32 PUBLIC 'CONST'
CONST	ENDS
;	COMDAT _wmemcpy
_TEXT	SEGMENT PARA USE32 PUBLIC 'CODE'
_TEXT	ENDS
;	COMDAT ?max_size@?$allocator@_W@std@@QBEIXZ
_TEXT	SEGMENT PARA USE32 PUBLIC 'CODE'
_TEXT	ENDS
;	COMDAT ?allocate@?$allocator@_W@std@@QAEPA_WI@Z
_TEXT	SEGMENT PARA USE32 PUBLIC 'CODE'
_TEXT	ENDS
;	COMDAT ??$_Allocate@_W@std@@YAPA_WIPA_W@Z
_TEXT	SEGMENT PARA USE32 PUBLIC 'CODE'
_TEXT	ENDS
;	COMDAT ?data@CStringData@ATL@@QAEPAXXZ
_TEXT	SEGMENT PARA USE32 PUBLIC 'CODE'
_TEXT	ENDS
;	COMDAT ?AtlThrow@ATL@@YGXJ@Z
_TEXT	SEGMENT PARA USE32 PUBLIC 'CODE'
_TEXT	ENDS
;	COMDAT ??_C@_01GFHCPBMG@C?$AA@
CONST	SEGMENT DWORD USE32 PUBLIC 'CONST'
CONST	ENDS
;	COMDAT ?max_size@?$allocator@D@std@@QBEIXZ
_TEXT	SEGMENT PARA USE32 PUBLIC 'CODE'
_TEXT	ENDS
;	COMDAT ?allocate@?$allocator@D@std@@QAEPADI@Z
_TEXT	SEGMENT PARA USE32 PUBLIC 'CODE'
_TEXT	ENDS
;	COMDAT ??$_Allocate@D@std@@YAPADIPAD@Z
_TEXT	SEGMENT PARA USE32 PUBLIC 'CODE'
_TEXT	ENDS
;	COMDAT ?deallocate@?$allocator@D@std@@QAEXPADI@Z
_TEXT	SEGMENT PARA USE32 PUBLIC 'CODE'
_TEXT	ENDS
;	COMDAT ?Release@CStringData@ATL@@QAEXXZ
_TEXT	SEGMENT PARA USE32 PUBLIC 'CODE'
_TEXT	ENDS
;	COMDAT ?IsShared@CStringData@ATL@@QBE_NXZ
_TEXT	SEGMENT PARA USE32 PUBLIC 'CODE'
_TEXT	ENDS
;	COMDAT ?_Peek@?$istreambuf_iterator@_WU?$char_traits@_W@std@@@std@@AAE_WXZ
_TEXT	SEGMENT PARA USE32 PUBLIC 'CODE'
_TEXT	ENDS
;	COMDAT ?_Peek@?$istreambuf_iterator@DU?$char_traits@D@std@@@std@@AAEDXZ
_TEXT	SEGMENT PARA USE32 PUBLIC 'CODE'
_TEXT	ENDS
;	COMDAT ?AtlComPtrAssign@ATL@@YGPAUIUnknown@@PAPAU2@PAU2@@Z
_TEXT	SEGMENT PARA USE32 PUBLIC 'CODE'
_TEXT	ENDS
;	COMDAT ??$use_facet@V?$ctype@_W@std@@@std@@YAABV?$ctype@_W@0@ABVlocale@0@@Z
_TEXT	SEGMENT PARA USE32 PUBLIC 'CODE'
_TEXT	ENDS
;	COMDAT ??_S?$ctype@_W@std@@6B@
CONST	SEGMENT DWORD USE32 PUBLIC 'CONST'
CONST	ENDS
;	COMDAT ??_R4?$ctype@_W@std@@6B@
rdata$r	SEGMENT DWORD USE32 PUBLIC 'CONST'
rdata$r	ENDS
;	COMDAT ??_R0?AV?$ctype@_W@std@@@8
_DATA	SEGMENT DWORD USE32 PUBLIC 'DATA'
_DATA	ENDS
;	COMDAT ??_R3?$ctype@_W@std@@8
rdata$r	SEGMENT DWORD USE32 PUBLIC 'CONST'
rdata$r	ENDS
;	COMDAT ??_R2?$ctype@_W@std@@8
rdata$r	SEGMENT DWORD USE32 PUBLIC 'CONST'
rdata$r	ENDS
;	COMDAT ??_R1A@?0A@A@?$ctype@_W@std@@8
rdata$r	SEGMENT DWORD USE32 PUBLIC 'CONST'
rdata$r	ENDS
;	COMDAT ??_R1A@?0A@A@ctype_base@std@@8
rdata$r	SEGMENT DWORD USE32 PUBLIC 'CONST'
rdata$r	ENDS
;	COMDAT ??_R0?AUctype_base@std@@@8
_DATA	SEGMENT DWORD USE32 PUBLIC 'DATA'
_DATA	ENDS
;	COMDAT ??_G?$ctype@_W@std@@MAEPAXI@Z
_TEXT	SEGMENT PARA USE32 PUBLIC 'CODE'
_TEXT	ENDS
;	COMDAT ??_C@_08EPJLHIJG@bad?5cast?$AA@
CONST	SEGMENT DWORD USE32 PUBLIC 'CONST'
CONST	ENDS
;	COMDAT __TI2?AVbad_cast@@
xdata$x	SEGMENT DWORD USE32 PUBLIC 'CONST'
xdata$x	ENDS
;	COMDAT __CTA2?AVbad_cast@@
xdata$x	SEGMENT DWORD USE32 PUBLIC 'CONST'
xdata$x	ENDS
;	COMDAT __CT??_R0?AVbad_cast@@@8??0bad_cast@@QAE@ABV0@@Z12
xdata$x	SEGMENT DWORD USE32 PUBLIC 'CONST'
xdata$x	ENDS
;	COMDAT ??_R0?AVbad_cast@@@8
_DATA	SEGMENT DWORD USE32 PUBLIC 'DATA'
_DATA	ENDS
;	COMDAT __CT??_R0?AVexception@@@8??0exception@@QAE@ABV0@@Z12
xdata$x	SEGMENT DWORD USE32 PUBLIC 'CONST'
xdata$x	ENDS
;	COMDAT ??_R0?AVexception@@@8
_DATA	SEGMENT DWORD USE32 PUBLIC 'DATA'
_DATA	ENDS
;	COMDAT ??$use_facet@V?$ctype@D@std@@@std@@YAABV?$ctype@D@0@ABVlocale@0@@Z
_TEXT	SEGMENT PARA USE32 PUBLIC 'CODE'
_TEXT	ENDS
;	COMDAT ??_S?$ctype@D@std@@6B@
CONST	SEGMENT DWORD USE32 PUBLIC 'CONST'
CONST	ENDS
;	COMDAT ??_R4?$ctype@D@std@@6B@
rdata$r	SEGMENT DWORD USE32 PUBLIC 'CONST'
rdata$r	ENDS
;	COMDAT ??_R0?AV?$ctype@D@std@@@8
_DATA	SEGMENT DWORD USE32 PUBLIC 'DATA'
_DATA	ENDS
;	COMDAT ??_R3?$ctype@D@std@@8
rdata$r	SEGMENT DWORD USE32 PUBLIC 'CONST'
rdata$r	ENDS
;	COMDAT ??_R2?$ctype@D@std@@8
rdata$r	SEGMENT DWORD USE32 PUBLIC 'CONST'
rdata$r	ENDS
;	COMDAT ??_R1A@?0A@A@?$ctype@D@std@@8
rdata$r	SEGMENT DWORD USE32 PUBLIC 'CONST'
rdata$r	ENDS
;	COMDAT ??_G?$ctype@D@std@@MAEPAXI@Z
_TEXT	SEGMENT PARA USE32 PUBLIC 'CODE'
_TEXT	ENDS
;	COMDAT ??_S?$numpunct@_W@std@@6B@
CONST	SEGMENT DWORD USE32 PUBLIC 'CONST'
CONST	ENDS
;	COMDAT ??_S?$numpunct@D@std@@6B@
CONST	SEGMENT DWORD USE32 PUBLIC 'CONST'
CONST	ENDS
;	COMDAT _wmemmove
_TEXT	SEGMENT PARA USE32 PUBLIC 'CODE'
_TEXT	ENDS
;	COMDAT ?deallocate@?$allocator@_W@std@@QAEXPA_WI@Z
_TEXT	SEGMENT PARA USE32 PUBLIC 'CODE'
_TEXT	ENDS
;	COMDAT ??0?$allocator@_W@std@@QAE@ABV01@@Z
_TEXT	SEGMENT PARA USE32 PUBLIC 'CODE'
_TEXT	ENDS
;	COMDAT ?OnTimer@CWnd@@IAEXI@Z
_TEXT	SEGMENT PARA USE32 PUBLIC 'CODE'
_TEXT	ENDS
;	COMDAT ?MoveWindow@CWnd@@QAEXPBUtagRECT@@H@Z
_TEXT	SEGMENT PARA USE32 PUBLIC 'CODE'
_TEXT	ENDS
;	COMDAT ?Refresh2@CHtmlView@@QAEXH@Z
_TEXT	SEGMENT PARA USE32 PUBLIC 'CODE'
_TEXT	ENDS
;	COMDAT ??C?$CComPtrBase@UIWebBrowser2@@@ATL@@QBEPAV?$_NoAddRefReleaseOnCComPtr@UIWebBrowser2@@@1@XZ
_TEXT	SEGMENT PARA USE32 PUBLIC 'CODE'
_TEXT	ENDS
;	COMDAT ??BCOleVariant@@QAEPAUtagVARIANT@@XZ
_TEXT	SEGMENT PARA USE32 PUBLIC 'CODE'
_TEXT	ENDS
;	COMDAT ??1COleVariant@@QAE@XZ
_TEXT	SEGMENT PARA USE32 PUBLIC 'CODE'
_TEXT	ENDS
;	COMDAT ??$?HDU?$char_traits@D@std@@V?$allocator@D@1@@std@@YA?AV?$basic_string@DU?$char_traits@D@std@@V?$allocator@D@2@@0@ABV10@0@Z
_TEXT	SEGMENT PARA USE32 PUBLIC 'CODE'
_TEXT	ENDS
;	COMDAT ??0?$allocator@D@std@@QAE@ABV01@@Z
_TEXT	SEGMENT PARA USE32 PUBLIC 'CODE'
_TEXT	ENDS
;	COMDAT ??0?$allocator@D@std@@QAE@XZ
_TEXT	SEGMENT PARA USE32 PUBLIC 'CODE'
_TEXT	ENDS
;	COMDAT ?SetTimer@CWnd@@QAEIIIP6GXPAUHWND__@@IIK@Z@Z
_TEXT	SEGMENT PARA USE32 PUBLIC 'CODE'
_TEXT	ENDS
;	COMDAT ??0CRect@@QAE@XZ
_TEXT	SEGMENT PARA USE32 PUBLIC 'CODE'
_TEXT	ENDS
;	COMDAT ??0CRect@@QAE@HHHH@Z
_TEXT	SEGMENT PARA USE32 PUBLIC 'CODE'
_TEXT	ENDS
;	COMDAT ?KillTimer@CWnd@@QAEHI@Z
_TEXT	SEGMENT PARA USE32 PUBLIC 'CODE'
_TEXT	ENDS
;	COMDAT ?GetClientRect@CWnd@@QBEXPAUtagRECT@@@Z
_TEXT	SEGMENT PARA USE32 PUBLIC 'CODE'
_TEXT	ENDS
;	COMDAT ?_messageEntries@MyWebBrowserWnd@@0QBUAFX_MSGMAP_ENTRY@@B
CONST	SEGMENT DWORD USE32 PUBLIC 'CONST'
CONST	ENDS
;	COMDAT ?messageMap@MyWebBrowserWnd@@1UAFX_MSGMAP@@B
CONST	SEGMENT DWORD USE32 PUBLIC 'CONST'
CONST	ENDS
;	COMDAT ??_7IMessageObserver@@6B@
CONST	SEGMENT DWORD USE32 PUBLIC 'CONST'
CONST	ENDS
;	COMDAT ??_R4IMessageObserver@@6B@
rdata$r	SEGMENT DWORD USE32 PUBLIC 'CONST'
rdata$r	ENDS
;	COMDAT ??_R3IMessageObserver@@8
rdata$r	SEGMENT DWORD USE32 PUBLIC 'CONST'
rdata$r	ENDS
;	COMDAT ??_R2IMessageObserver@@8
rdata$r	SEGMENT DWORD USE32 PUBLIC 'CONST'
rdata$r	ENDS
;	COMDAT ??_GIMessageObserver@@UAEPAXI@Z
_TEXT	SEGMENT PARA USE32 PUBLIC 'CODE'
_TEXT	ENDS
;	COMDAT ??_7IWebRefreshObserver@@6B@
CONST	SEGMENT DWORD USE32 PUBLIC 'CONST'
CONST	ENDS
;	COMDAT ??1IMessageObserver@@UAE@XZ
_TEXT	SEGMENT PARA USE32 PUBLIC 'CODE'
_TEXT	ENDS
;	COMDAT ??_7MyWebBrowserWnd@@6BIWebRefreshObserver@@@
CONST	SEGMENT DWORD USE32 PUBLIC 'CONST'
CONST	ENDS
;	COMDAT ??_7MyWebBrowserWnd@@6BCHtmlView@@@
CONST	SEGMENT DWORD USE32 PUBLIC 'CONST'
CONST	ENDS
;	COMDAT ?classMyWebBrowserWnd@MyWebBrowserWnd@@2UCRuntimeClass@@B
CONST	SEGMENT DWORD USE32 PUBLIC 'CONST'
CONST	ENDS
;	COMDAT ?c_bIsMFCDLLTraits@?$_MFCDLLTraitsCheck@_WV?$StrTraitATL@_WV?$ChTraitsCRT@_W@ATL@@@ATL@@@_CSTRING_IMPL_@ATL@@2_NB
CONST	SEGMENT DWORD USE32 PUBLIC 'CONST'
CONST	ENDS
;	COMDAT ?c_bIsMFCDLLTraits@?$_MFCDLLTraitsCheck@DV?$StrTraitATL@DV?$ChTraitsCRT@D@ATL@@@ATL@@@_CSTRING_IMPL_@ATL@@2_NB
CONST	SEGMENT DWORD USE32 PUBLIC 'CONST'
CONST	ENDS
;	COMDAT ?_AtlGetConversionACP@ATL@@YGIXZ
_TEXT	SEGMENT PARA USE32 PUBLIC 'CODE'
_TEXT	ENDS
;	COMDAT ?g_pfnGetThreadACP@ATL@@3P6GIXZA
_DATA	SEGMENT DWORD USE32 PUBLIC 'DATA'
_DATA	ENDS
;	COMDAT ?_AtlGetThreadACPThunk@ATL@@YGIXZ
_TEXT	SEGMENT PARA USE32 PUBLIC 'CODE'
_TEXT	ENDS
;	COMDAT ?_AtlGetThreadACPReal@ATL@@YGIXZ
_TEXT	SEGMENT PARA USE32 PUBLIC 'CODE'
_TEXT	ENDS
;	COMDAT ?_AtlGetThreadACPFake@ATL@@YGIXZ
_TEXT	SEGMENT PARA USE32 PUBLIC 'CODE'
_TEXT	ENDS
;	COMDAT ?InterlockedExchangePointer@@YGPAXPAPAXPAX@Z
_TEXT	SEGMENT PARA USE32 PUBLIC 'CODE'
_TEXT	ENDS
;	COMDAT ?_strthunks@ATL@@3U_AtlStringThunks@1@A
_DATA	SEGMENT DWORD USE32 PUBLIC 'DATA'
_DATA	ENDS
;	COMDAT ?CompareStringWThunk@ATL@@YGHKKPB_WH0H@Z
_TEXT	SEGMENT PARA USE32 PUBLIC 'CODE'
_TEXT	ENDS
;	COMDAT ?_AtlInstallStringThunk@ATL@@YAXPAPAXPAX1@Z
_TEXT	SEGMENT PARA USE32 PUBLIC 'CODE'
_TEXT	ENDS
;	COMDAT ??_B?1??_AtlInstallStringThunk@ATL@@YAXPAPAXPAX1@Z@51
_BSS	SEGMENT DWORD USE32 PUBLIC 'BSS'
_BSS	ENDS
;	COMDAT ?s_bWin9x@?1??_AtlInstallStringThunk@ATL@@YAXPAPAXPAX1@Z@4_NA
_BSS	SEGMENT DWORD USE32 PUBLIC 'BSS'
_BSS	ENDS
;	COMDAT ?CompareStringWFake@ATL@@YGHKKPB_WH0H@Z
_TEXT	SEGMENT PARA USE32 PUBLIC 'CODE'
_TEXT	ENDS
;	COMDAT ??0?$CAtlSafeAllocBufferManager@VCCRTAllocator@ATL@@@_ATL_SAFE_ALLOCA_IMPL@ATL@@QAE@XZ
_TEXT	SEGMENT PARA USE32 PUBLIC 'CODE'
_TEXT	ENDS
;	COMDAT ??1?$CAtlSafeAllocBufferManager@VCCRTAllocator@ATL@@@_ATL_SAFE_ALLOCA_IMPL@ATL@@QAE@XZ
_TEXT	SEGMENT PARA USE32 PUBLIC 'CODE'
_TEXT	ENDS
;	COMDAT ?Free@CCRTAllocator@ATL@@SAXPAX@Z
_TEXT	SEGMENT PARA USE32 PUBLIC 'CODE'
_TEXT	ENDS
;	COMDAT ?AtlW2AHelper@@YGPADPADPB_WHI@Z
_TEXT	SEGMENT PARA USE32 PUBLIC 'CODE'
_TEXT	ENDS
;	COMDAT ?_AtlVerifyStackAvailable@_ATL_SAFE_ALLOCA_IMPL@ATL@@YA_NK@Z
_TEXT	SEGMENT PARA USE32 PUBLIC 'CODE'
_TEXT	ENDS
;	COMDAT ?Allocate@?$CAtlSafeAllocBufferManager@VCCRTAllocator@ATL@@@_ATL_SAFE_ALLOCA_IMPL@ATL@@QAEPAXK@Z
_TEXT	SEGMENT PARA USE32 PUBLIC 'CODE'
_TEXT	ENDS
;	COMDAT ?Allocate@CCRTAllocator@ATL@@SAPAXI@Z
_TEXT	SEGMENT PARA USE32 PUBLIC 'CODE'
_TEXT	ENDS
;	COMDAT ?GetData@CAtlSafeAllocBufferNode@?$CAtlSafeAllocBufferManager@VCCRTAllocator@ATL@@@_ATL_SAFE_ALLOCA_IMPL@ATL@@QAEPAXXZ
_TEXT	SEGMENT PARA USE32 PUBLIC 'CODE'
_TEXT	ENDS
;	COMDAT ?GetStringTypeExWThunk@ATL@@YGHKKPB_WHPAG@Z
_TEXT	SEGMENT PARA USE32 PUBLIC 'CODE'
_TEXT	ENDS
;	COMDAT ?GetStringTypeExWFake@ATL@@YGHKKPB_WHPAG@Z
_TEXT	SEGMENT PARA USE32 PUBLIC 'CODE'
_TEXT	ENDS
;	COMDAT ??0?$CTempBuffer@D$0IA@VCCRTAllocator@ATL@@@ATL@@QAE@XZ
_TEXT	SEGMENT PARA USE32 PUBLIC 'CODE'
_TEXT	ENDS
;	COMDAT ??1?$CTempBuffer@D$0IA@VCCRTAllocator@ATL@@@ATL@@QAE@XZ
_TEXT	SEGMENT PARA USE32 PUBLIC 'CODE'
_TEXT	ENDS
;	COMDAT ?FreeHeap@?$CTempBuffer@D$0IA@VCCRTAllocator@ATL@@@ATL@@AAEXXZ
_TEXT	SEGMENT PARA USE32 PUBLIC 'CODE'
_TEXT	ENDS
;	COMDAT ?Allocate@?$CTempBuffer@D$0IA@VCCRTAllocator@ATL@@@ATL@@QAEPADI@Z
_TEXT	SEGMENT PARA USE32 PUBLIC 'CODE'
_TEXT	ENDS
;	COMDAT ?AllocateBytes@?$CTempBuffer@D$0IA@VCCRTAllocator@ATL@@@ATL@@QAEPADI@Z
_TEXT	SEGMENT PARA USE32 PUBLIC 'CODE'
_TEXT	ENDS
;	COMDAT ?AllocateHeap@?$CTempBuffer@D$0IA@VCCRTAllocator@ATL@@@ATL@@AAEXI@Z
_TEXT	SEGMENT PARA USE32 PUBLIC 'CODE'
_TEXT	ENDS
;	COMDAT ??B?$CTempBuffer@D$0IA@VCCRTAllocator@ATL@@@ATL@@QBEPADXZ
_TEXT	SEGMENT PARA USE32 PUBLIC 'CODE'
_TEXT	ENDS
;	COMDAT ?lstrcmpiWThunk@ATL@@YGHPB_W0@Z
_TEXT	SEGMENT PARA USE32 PUBLIC 'CODE'
_TEXT	ENDS
;	COMDAT ?lstrcmpiWFake@ATL@@YGHPB_W0@Z
_TEXT	SEGMENT PARA USE32 PUBLIC 'CODE'
_TEXT	ENDS
;	COMDAT ?CharLowerWThunk@ATL@@YGPA_WPA_W@Z
_TEXT	SEGMENT PARA USE32 PUBLIC 'CODE'
_TEXT	ENDS
;	COMDAT ?CharLowerWFake@ATL@@YGPA_WPA_W@Z
_TEXT	SEGMENT PARA USE32 PUBLIC 'CODE'
_TEXT	ENDS
;	COMDAT ?AtlA2WHelper@@YGPA_WPA_WPBDHI@Z
_TEXT	SEGMENT PARA USE32 PUBLIC 'CODE'
_TEXT	ENDS
;	COMDAT ?CharUpperWThunk@ATL@@YGPA_WPA_W@Z
_TEXT	SEGMENT PARA USE32 PUBLIC 'CODE'
_TEXT	ENDS
;	COMDAT ?CharUpperWFake@ATL@@YGPA_WPA_W@Z
_TEXT	SEGMENT PARA USE32 PUBLIC 'CODE'
_TEXT	ENDS
;	COMDAT ?GetEnvironmentVariableWThunk@ATL@@YGKPB_WPA_WK@Z
_TEXT	SEGMENT PARA USE32 PUBLIC 'CODE'
_TEXT	ENDS
;	COMDAT ?GetEnvironmentVariableWFake@ATL@@YGKPB_WPA_WK@Z
_TEXT	SEGMENT PARA USE32 PUBLIC 'CODE'
_TEXT	ENDS
;	COMDAT ??0?$CW2AEX@$0IA@@ATL@@QAE@PB_W@Z
_TEXT	SEGMENT PARA USE32 PUBLIC 'CODE'
_TEXT	ENDS
;	COMDAT ?Init@?$CW2AEX@$0IA@@ATL@@AAEXPB_WI@Z
_TEXT	SEGMENT PARA USE32 PUBLIC 'CODE'
_TEXT	ENDS
;	COMDAT ?AtlThrowLastWin32@ATL@@YGXXZ
_TEXT	SEGMENT PARA USE32 PUBLIC 'CODE'
_TEXT	ENDS
;	COMDAT ??1?$CW2AEX@$0IA@@ATL@@QAE@XZ
_TEXT	SEGMENT PARA USE32 PUBLIC 'CODE'
_TEXT	ENDS
;	COMDAT ??B?$CW2AEX@$0IA@@ATL@@QBEPADXZ
_TEXT	SEGMENT PARA USE32 PUBLIC 'CODE'
_TEXT	ENDS
;	COMDAT ?AddRef@CStringData@ATL@@QAEXXZ
_TEXT	SEGMENT PARA USE32 PUBLIC 'CODE'
_TEXT	ENDS
;	COMDAT ?SetManager@CNilStringData@ATL@@QAEXPAUIAtlStringMgr@2@@Z
_TEXT	SEGMENT PARA USE32 PUBLIC 'CODE'
_TEXT	ENDS
;	COMDAT ??0CNilStringData@ATL@@QAE@XZ
_TEXT	SEGMENT PARA USE32 PUBLIC 'CODE'
_TEXT	ENDS
;	COMDAT ??_7CAtlStringMgr@ATL@@6B@
CONST	SEGMENT DWORD USE32 PUBLIC 'CONST'
CONST	ENDS
;	COMDAT ??_7P2PObserver@@6B@
CONST	SEGMENT DWORD USE32 PUBLIC 'CONST'
CONST	ENDS
;	COMDAT ??_7HTTPObserver@@6B@
CONST	SEGMENT DWORD USE32 PUBLIC 'CONST'
CONST	ENDS
;	COMDAT ??_7CGdiPlusBitmap@CSkinButton@@6B@
CONST	SEGMENT DWORD USE32 PUBLIC 'CONST'
CONST	ENDS
;	COMDAT ??_7IData@@6B@
CONST	SEGMENT DWORD USE32 PUBLIC 'CONST'
CONST	ENDS
;	COMDAT ?GetLastStatus@Image@Gdiplus@@QBE?AW4Status@2@XZ
_TEXT	SEGMENT PARA USE32 PUBLIC 'CODE'
_TEXT	ENDS
;	COMDAT ?FromFile@Bitmap@Gdiplus@@SAPAV12@PB_WH@Z
_TEXT	SEGMENT PARA USE32 PUBLIC 'CODE'
_TEXT	ENDS
;	COMDAT ??2GdiplusBase@Gdiplus@@SAPAXI@Z
_TEXT	SEGMENT PARA USE32 PUBLIC 'CODE'
_TEXT	ENDS
;	COMDAT ??3GdiplusBase@Gdiplus@@SAXPAX@Z
_TEXT	SEGMENT PARA USE32 PUBLIC 'CODE'
_TEXT	ENDS
;	COMDAT ??0Bitmap@Gdiplus@@QAE@PB_WH@Z
_TEXT	SEGMENT PARA USE32 PUBLIC 'CODE'
_TEXT	ENDS
;	COMDAT ??0Image@Gdiplus@@IAE@XZ
_TEXT	SEGMENT PARA USE32 PUBLIC 'CODE'
_TEXT	ENDS
;	COMDAT ??_7Image@Gdiplus@@6B@
CONST	SEGMENT DWORD USE32 PUBLIC 'CONST'
CONST	ENDS
;	COMDAT ??_R4Image@Gdiplus@@6B@
rdata$r	SEGMENT DWORD USE32 PUBLIC 'CONST'
rdata$r	ENDS
;	COMDAT ??_R0?AVImage@Gdiplus@@@8
_DATA	SEGMENT DWORD USE32 PUBLIC 'DATA'
_DATA	ENDS
;	COMDAT ??_R3Image@Gdiplus@@8
rdata$r	SEGMENT DWORD USE32 PUBLIC 'CONST'
rdata$r	ENDS
;	COMDAT ??_R2Image@Gdiplus@@8
rdata$r	SEGMENT DWORD USE32 PUBLIC 'CONST'
rdata$r	ENDS
;	COMDAT ??_R1A@?0A@A@Image@Gdiplus@@8
rdata$r	SEGMENT DWORD USE32 PUBLIC 'CONST'
rdata$r	ENDS
;	COMDAT ??_R13?0A@A@GdiplusBase@Gdiplus@@8
rdata$r	SEGMENT DWORD USE32 PUBLIC 'CONST'
rdata$r	ENDS
;	COMDAT ??_R0?AVGdiplusBase@Gdiplus@@@8
_DATA	SEGMENT DWORD USE32 PUBLIC 'DATA'
_DATA	ENDS
;	COMDAT ??_GImage@Gdiplus@@UAEPAXI@Z
_TEXT	SEGMENT PARA USE32 PUBLIC 'CODE'
_TEXT	ENDS
;	COMDAT ?Clone@Image@Gdiplus@@UAEPAV12@XZ
_TEXT	SEGMENT PARA USE32 PUBLIC 'CODE'
_TEXT	ENDS
;	COMDAT ?SetStatus@Image@Gdiplus@@IBE?AW4Status@2@W432@@Z
_TEXT	SEGMENT PARA USE32 PUBLIC 'CODE'
_TEXT	ENDS
;	COMDAT ??0Image@Gdiplus@@IAE@PAVGpImage@1@W4Status@1@@Z
_TEXT	SEGMENT PARA USE32 PUBLIC 'CODE'
_TEXT	ENDS
;	COMDAT ??1Image@Gdiplus@@UAE@XZ
_TEXT	SEGMENT PARA USE32 PUBLIC 'CODE'
_TEXT	ENDS
;	COMDAT ??_7Bitmap@Gdiplus@@6B@
CONST	SEGMENT DWORD USE32 PUBLIC 'CONST'
CONST	ENDS
;	COMDAT ??_R4Bitmap@Gdiplus@@6B@
rdata$r	SEGMENT DWORD USE32 PUBLIC 'CONST'
rdata$r	ENDS
;	COMDAT ??_R0?AVBitmap@Gdiplus@@@8
_DATA	SEGMENT DWORD USE32 PUBLIC 'DATA'
_DATA	ENDS
;	COMDAT ??_R3Bitmap@Gdiplus@@8
rdata$r	SEGMENT DWORD USE32 PUBLIC 'CONST'
rdata$r	ENDS
;	COMDAT ??_R2Bitmap@Gdiplus@@8
rdata$r	SEGMENT DWORD USE32 PUBLIC 'CONST'
rdata$r	ENDS
;	COMDAT ??_R1A@?0A@A@Bitmap@Gdiplus@@8
rdata$r	SEGMENT DWORD USE32 PUBLIC 'CONST'
rdata$r	ENDS
;	COMDAT ??_GBitmap@Gdiplus@@UAEPAXI@Z
_TEXT	SEGMENT PARA USE32 PUBLIC 'CODE'
_TEXT	ENDS
;	COMDAT ??1Bitmap@Gdiplus@@UAE@XZ
_TEXT	SEGMENT PARA USE32 PUBLIC 'CODE'
_TEXT	ENDS
;	COMDAT ?SetNativeImage@Image@Gdiplus@@IAEXPAVGpImage@2@@Z
_TEXT	SEGMENT PARA USE32 PUBLIC 'CODE'
_TEXT	ENDS
;	COMDAT ??_7CGdiPlusBitmap@@6B@
CONST	SEGMENT DWORD USE32 PUBLIC 'CONST'
CONST	ENDS
;	COMDAT ??_7DIBINFO@@6B@
CONST	SEGMENT DWORD USE32 PUBLIC 'CONST'
CONST	ENDS
;	COMDAT ?IsLocked@CStringData@ATL@@QBE_NXZ
_TEXT	SEGMENT PARA USE32 PUBLIC 'CODE'
_TEXT	ENDS
;	COMDAT ??_7CMarkupArchive@@6B@
CONST	SEGMENT DWORD USE32 PUBLIC 'CONST'
CONST	ENDS
;	COMDAT __tcschr
_TEXT	SEGMENT PARA USE32 PUBLIC 'CODE'
_TEXT	ENDS
;	COMDAT __tcsnccmp
_TEXT	SEGMENT PARA USE32 PUBLIC 'CODE'
_TEXT	ENDS
;	COMDAT ?GetDefaultManager@?$StrTraitMFC_DLL@DV?$ChTraitsCRT@D@ATL@@@@SAPAUIAtlStringMgr@ATL@@XZ
_TEXT	SEGMENT PARA USE32 PUBLIC 'CODE'
_TEXT	ENDS
;	COMDAT ??_7CMarkup@@6B@
CONST	SEGMENT DWORD USE32 PUBLIC 'CONST'
CONST	ENDS
;	COMDAT ??_C@_00CNPNBAHC@?$AA@
CONST	SEGMENT DWORD USE32 PUBLIC 'CONST'
CONST	ENDS
;	COMDAT ?FindStringResourceInstance@?$StrTraitMFC_DLL@DV?$ChTraitsCRT@D@ATL@@@@SAPAUHINSTANCE__@@I@Z
_TEXT	SEGMENT PARA USE32 PUBLIC 'CODE'
_TEXT	ENDS
;	COMDAT ?AtlGetStringResourceImage@ATL@@YAPBUATLSTRINGRESOURCEIMAGE@1@PAUHINSTANCE__@@I@Z
_TEXT	SEGMENT PARA USE32 PUBLIC 'CODE'
_TEXT	ENDS
;	COMDAT ?_AtlGetStringResourceImage@ATL@@YAPBUATLSTRINGRESOURCEIMAGE@1@PAUHINSTANCE__@@PAUHRSRC__@@I@Z
_TEXT	SEGMENT PARA USE32 PUBLIC 'CODE'
_TEXT	ENDS
;	COMDAT ?GetBaseTypeLength@?$ChTraitsCRT@D@ATL@@SAHPB_WH@Z
_TEXT	SEGMENT PARA USE32 PUBLIC 'CODE'
_TEXT	ENDS
;	COMDAT ?ConvertToBaseType@?$ChTraitsCRT@D@ATL@@SAXPADHPB_WH@Z
_TEXT	SEGMENT PARA USE32 PUBLIC 'CODE'
_TEXT	ENDS
;	COMDAT ??_7COccManager@@6B@
CONST	SEGMENT DWORD USE32 PUBLIC 'CONST'
CONST	ENDS
;	COMDAT ??1CNoTrackObject@@UAE@XZ
_TEXT	SEGMENT PARA USE32 PUBLIC 'CODE'
_TEXT	ENDS
;	COMDAT ??2CObject@@SGPAXI@Z
_TEXT	SEGMENT PARA USE32 PUBLIC 'CODE'
_TEXT	ENDS
;	COMDAT ??_7CCustomOccManager@@6B@
CONST	SEGMENT DWORD USE32 PUBLIC 'CONST'
CONST	ENDS
;	COMDAT ??0IUnknown@@QAE@XZ
_TEXT	SEGMENT PARA USE32 PUBLIC 'CODE'
_TEXT	ENDS
;	COMDAT ??_7XDocHostUIHandler@CCustomControlSite@@6B@
CONST	SEGMENT DWORD USE32 PUBLIC 'CONST'
CONST	ENDS
;	COMDAT ??_7XDocHostShowUI@CCustomControlSite@@6B@
CONST	SEGMENT DWORD USE32 PUBLIC 'CONST'
CONST	ENDS
;	COMDAT ??3CObject@@SGXPAX@Z
_TEXT	SEGMENT PARA USE32 PUBLIC 'CODE'
_TEXT	ENDS
;	COMDAT ??_7CCustomControlSite@@6B@
CONST	SEGMENT DWORD USE32 PUBLIC 'CONST'
CONST	ENDS
;	COMDAT ?clsid@?1??GetClsid@CShockwaveFlash@@QAEABU_GUID@@XZ@4U3@B
CONST	SEGMENT DWORD USE32 PUBLIC 'CONST'
CONST	ENDS
sxdata	SEGMENT DWORD USE32 'SXDATA'
sxdata	ENDS
FLAT	GROUP _DATA, CONST, _BSS
	ASSUME	CS: FLAT, DS: FLAT, SS: FLAT
endif

INCLUDELIB MSVCRT
INCLUDELIB OLDNAMES

PUBLIC	?c_bIsMFCDLLTraits@?$_MFCDLLTraitsCheck@_WV?$StrTraitATL@_WV?$ChTraitsCRT@_W@ATL@@@ATL@@@_CSTRING_IMPL_@ATL@@2_NB ; ATL::_CSTRING_IMPL_::_MFCDLLTraitsCheck<wchar_t,ATL::StrTraitATL<wchar_t,ATL::ChTraitsCRT<wchar_t> > >::c_bIsMFCDLLTraits
PUBLIC	?_strthunks@ATL@@3U_AtlStringThunks@1@A		; ATL::_strthunks
PUBLIC	?GetEnvironmentVariableWThunk@ATL@@YGKPB_WPA_WK@Z ; ATL::GetEnvironmentVariableWThunk
PUBLIC	?CompareStringWThunk@ATL@@YGHKKPB_WH0H@Z	; ATL::CompareStringWThunk
PUBLIC	?GetStringTypeExWThunk@ATL@@YGHKKPB_WHPAG@Z	; ATL::GetStringTypeExWThunk
PUBLIC	?lstrcmpiWThunk@ATL@@YGHPB_W0@Z			; ATL::lstrcmpiWThunk
PUBLIC	?CharLowerWThunk@ATL@@YGPA_WPA_W@Z		; ATL::CharLowerWThunk
PUBLIC	?CharUpperWThunk@ATL@@YGPA_WPA_W@Z		; ATL::CharUpperWThunk
PUBLIC	?classMyWebBrowserWnd@MyWebBrowserWnd@@2UCRuntimeClass@@B ; MyWebBrowserWnd::classMyWebBrowserWnd
PUBLIC	?OnEraseBkgnd@MyWebBrowserWnd@@QAEHPAVCDC@@@Z	; MyWebBrowserWnd::OnEraseBkgnd
PUBLIC	?_messageEntries@MyWebBrowserWnd@@0QBUAFX_MSGMAP_ENTRY@@B ; MyWebBrowserWnd::_messageEntries
PUBLIC	?messageMap@MyWebBrowserWnd@@1UAFX_MSGMAP@@B	; MyWebBrowserWnd::messageMap
PUBLIC	?OnCreate@MyWebBrowserWnd@@IAEHPAUtagCREATESTRUCTA@@@Z ; MyWebBrowserWnd::OnCreate
PUBLIC	?OnSize@MyWebBrowserWnd@@IAEXIHH@Z		; MyWebBrowserWnd::OnSize
PUBLIC	?OnTimer@MyWebBrowserWnd@@IAEXI@Z		; MyWebBrowserWnd::OnTimer
PUBLIC	?OnCallJavaScript@MyWebBrowserWnd@@QAEJIJ@Z	; MyWebBrowserWnd::OnCallJavaScript
PUBLIC	?g_pfnGetThreadACP@ATL@@3P6GIXZA		; ATL::g_pfnGetThreadACP
PUBLIC	?_AtlGetThreadACPThunk@ATL@@YGIXZ		; ATL::_AtlGetThreadACPThunk
PUBLIC	?c_bIsMFCDLLTraits@?$_MFCDLLTraitsCheck@DV?$StrTraitATL@DV?$ChTraitsCRT@D@ATL@@@ATL@@@_CSTRING_IMPL_@ATL@@2_NB ; ATL::_CSTRING_IMPL_::_MFCDLLTraitsCheck<char,ATL::StrTraitATL<char,ATL::ChTraitsCRT<char> > >::c_bIsMFCDLLTraits
EXTRN	?GetThisMessageMap@CHtmlView@@KGPBUAFX_MSGMAP@@XZ:NEAR ; CHtmlView::GetThisMessageMap
EXTRN	?GetThisClass@CHtmlView@@SGPAUCRuntimeClass@@XZ:NEAR ; CHtmlView::GetThisClass
CONST	SEGMENT
$SG202793 DB	'int', 00H
CONST	ENDS
_DATA	SEGMENT
_TYPE_CONFIG_INT DD FLAT:$SG202793
_DATA	ENDS
CONST	SEGMENT
$SG202795 DB	'str', 00H
CONST	ENDS
_DATA	SEGMENT
_TYPE_CONFIG_STR DD FLAT:$SG202795
_DATA	ENDS
CONST	SEGMENT
$SG202797 DB	'double', 00H
CONST	ENDS
_DATA	SEGMENT
_TYPE_CONFIG_DOUBLE DD FLAT:$SG202797
_DATA	ENDS
CONST	SEGMENT
	ORG $+1
$SG202799 DB	'bool', 00H
CONST	ENDS
_DATA	SEGMENT
_TYPE_CONFIG_BOOL DD FLAT:$SG202799
_DATA	ENDS
CONST	SEGMENT
	ORG $+3
$SG202801 DB	'sepint', 00H
CONST	ENDS
_DATA	SEGMENT
_TYPE_CONFIG_INT_HASSEP DD FLAT:$SG202801
_DATA	ENDS
CONST	SEGMENT
	ORG $+1
$SG202803 DB	'sepstr', 00H
CONST	ENDS
_DATA	SEGMENT
_TYPE_CONFIG_STR_HASSEP DD FLAT:$SG202803
_DATA	ENDS
CONST	SEGMENT
	ORG $+1
$SG202805 DB	'sepdouble', 00H
CONST	ENDS
_DATA	SEGMENT
_TYPE_CONFIG_DOUBLE_HASSEP DD FLAT:$SG202805
_DATA	ENDS
CONST	SEGMENT
	ORG $+2
$SG202807 DB	'sepbool', 00H
CONST	ENDS
_DATA	SEGMENT
_TYPE_CONFIG_BOOL_HASSEP DD FLAT:$SG202807
_DATA	ENDS
CONST	SEGMENT
$SG202809 DB	'Setting', 00H
CONST	ENDS
_DATA	SEGMENT
_CONF_SETTING_MODULE_NAME DD FLAT:$SG202809
_DATA	ENDS
CONST	SEGMENT
$SG202811 DB	'skin', 00H
CONST	ENDS
_DATA	SEGMENT
_CONF_SETTING_SKIN_IDX DD FLAT:$SG202811
_DATA	ENDS
CONST	SEGMENT
	ORG $+3
$SG202813 DB	'MainPage', 00H
CONST	ENDS
_DATA	SEGMENT
_CONF_SETTING_CONFIG_MAIN_PAGE DD FLAT:$SG202813
_DATA	ENDS
CONST	SEGMENT
	ORG $+3
$SG202815 DB	'ProblemReport', 00H
CONST	ENDS
_DATA	SEGMENT
_CONF_SETTING_CONFIG_PROBLEM_REPORT DD FLAT:$SG202815
_DATA	ENDS
CONST	SEGMENT
	ORG $+2
$SG202817 DB	'HomePage', 00H
CONST	ENDS
_DATA	SEGMENT
_CONF_SETTING_CONFIG_HOME_PAGE DD FLAT:$SG202817
_DATA	ENDS
CONST	SEGMENT
	ORG $+3
$SG202819 DB	'askexit', 00H
CONST	ENDS
_DATA	SEGMENT
_CONF_SETTING_CONFIG_IFASKEXIT DD FLAT:$SG202819
_DATA	ENDS
CONST	SEGMENT
$SG202821 DB	'exitchoice', 00H
CONST	ENDS
_DATA	SEGMENT
_CONF_SETTING_CONFIG_EXITCHOICE DD FLAT:$SG202821
_DATA	ENDS
CONST	SEGMENT
	ORG $+1
$SG202823 DB	'UN', 00H
CONST	ENDS
_DATA	SEGMENT
_CONF_SETTING_LOGIN_USER_NAME DD FLAT:$SG202823
_DATA	ENDS
CONST	SEGMENT
	ORG $+1
$SG202825 DB	'PW', 00H
CONST	ENDS
_DATA	SEGMENT
_CONF_SETTING_LOGIN_PASSWORD DD FLAT:$SG202825
_DATA	ENDS
CONST	SEGMENT
	ORG $+1
$SG202827 DB	'NetID', 00H
CONST	ENDS
_DATA	SEGMENT
_CONF_SETTING_NETID DD FLAT:$SG202827
_DATA	ENDS
CONST	SEGMENT
	ORG $+2
$SG202829 DB	'ChangeColorValue', 00H
CONST	ENDS
_DATA	SEGMENT
_CONF_SETTING_COLOR DD FLAT:$SG202829
_DATA	ENDS
CONST	SEGMENT
	ORG $+3
$SG202831 DB	'changeColorLight', 00H
CONST	ENDS
_DATA	SEGMENT
_CONF_SETTING_LIGHT DD FLAT:$SG202831
_DATA	ENDS
CONST	SEGMENT
	ORG $+3
$SG202833 DB	'ColorIndex', 00H
CONST	ENDS
_DATA	SEGMENT
_CONF_SETTING_COLOR_BTN_INDEX DD FLAT:$SG202833
_DATA	ENDS
CONST	SEGMENT
	ORG $+1
$SG202835 DB	'ColorUser', 00H
CONST	ENDS
_DATA	SEGMENT
_CONF_SETTING_COLOR_USER DD FLAT:$SG202835
_DATA	ENDS
CONST	SEGMENT
	ORG $+2
$SG202837 DB	'FirstTimeChangeSkin', 00H
CONST	ENDS
_DATA	SEGMENT
_CONF_SETTING_FIRST_TIME_CHANGESKIN DD FLAT:$SG202837
_DATA	ENDS
CONST	SEGMENT
$SG202844 DB	'App', 00H
CONST	ENDS
_DATA	SEGMENT
_CONF_APP_MODULE_NAME DD FLAT:$SG202844
_DATA	ENDS
CONST	SEGMENT
$SG202846 DB	'SwfPath', 00H
CONST	ENDS
_DATA	SEGMENT
_CONF_APP_SWF_PATH DD FLAT:$SG202846
_DATA	ENDS
CONST	SEGMENT
$SG202848 DB	'MainWndHold', 00H
CONST	ENDS
_DATA	SEGMENT
_CONF_APP_MAINWND_HOLD DD FLAT:$SG202848
_DATA	ENDS
CONST	SEGMENT
$SG202850 DB	'RunCount', 00H
CONST	ENDS
_DATA	SEGMENT
_CONF_APP_RUN_COUNT DD FLAT:$SG202850
_DATA	ENDS
CONST	SEGMENT
	ORG $+3
$SG202852 DB	'PlayedGame', 00H
CONST	ENDS
_DATA	SEGMENT
_CONF_APP_PLAYED_GAME DD FLAT:$SG202852
_DATA	ENDS
CONST	SEGMENT
	ORG $+1
$SG202854 DB	'playedPcGame', 00H
CONST	ENDS
_DATA	SEGMENT
_CONF_APP_PLAYED_PC_GAME DD FLAT:$SG202854
_DATA	ENDS
CONST	SEGMENT
	ORG $+3
$SG202856 DB	'PlayedIconSize', 00H
CONST	ENDS
_DATA	SEGMENT
_CONF_APP_PLAYED_ICON_SIZE DD FLAT:$SG202856
_DATA	ENDS
CONST	SEGMENT
	ORG $+1
$SG202858 DB	'PictureSavePath', 00H
CONST	ENDS
_DATA	SEGMENT
_CONF_APP_PIC_SAVE_PATH DD FLAT:$SG202858
_DATA	ENDS
;	COMDAT ?c_bIsMFCDLLTraits@?$_MFCDLLTraitsCheck@DV?$StrTraitATL@DV?$ChTraitsCRT@D@ATL@@@ATL@@@_CSTRING_IMPL_@ATL@@2_NB
CONST	SEGMENT
?c_bIsMFCDLLTraits@?$_MFCDLLTraitsCheck@DV?$StrTraitATL@DV?$ChTraitsCRT@D@ATL@@@ATL@@@_CSTRING_IMPL_@ATL@@2_NB DB 00H ; ATL::_CSTRING_IMPL_::_MFCDLLTraitsCheck<char,ATL::StrTraitATL<char,ATL::ChTraitsCRT<char> > >::c_bIsMFCDLLTraits
CONST	ENDS
;	COMDAT ?c_bIsMFCDLLTraits@?$_MFCDLLTraitsCheck@_WV?$StrTraitATL@_WV?$ChTraitsCRT@_W@ATL@@@ATL@@@_CSTRING_IMPL_@ATL@@2_NB
CONST	SEGMENT
?c_bIsMFCDLLTraits@?$_MFCDLLTraitsCheck@_WV?$StrTraitATL@_WV?$ChTraitsCRT@_W@ATL@@@ATL@@@_CSTRING_IMPL_@ATL@@2_NB DB 00H ; ATL::_CSTRING_IMPL_::_MFCDLLTraitsCheck<wchar_t,ATL::StrTraitATL<wchar_t,ATL::ChTraitsCRT<wchar_t> > >::c_bIsMFCDLLTraits
CONST	ENDS
CONST	SEGMENT
$SG206206 DB	'MyWebBrowserWnd', 00H
CONST	ENDS
;	COMDAT ?classMyWebBrowserWnd@MyWebBrowserWnd@@2UCRuntimeClass@@B
CONST	SEGMENT
?classMyWebBrowserWnd@MyWebBrowserWnd@@2UCRuntimeClass@@B DD FLAT:$SG206206 ; MyWebBrowserWnd::classMyWebBrowserWnd
	DD	01e8H
	DD	0ffffH
	DD	00H
	DD	FLAT:?GetThisClass@CHtmlView@@SGPAUCRuntimeClass@@XZ
	DD	00H
	DD	00H
CONST	ENDS
CONST	SEGMENT
$SG206219 DB	00H
CONST	ENDS
;	COMDAT ?_messageEntries@MyWebBrowserWnd@@0QBUAFX_MSGMAP_ENTRY@@B
CONST	SEGMENT
?_messageEntries@MyWebBrowserWnd@@0QBUAFX_MSGMAP_ENTRY@@B DD 01H ; MyWebBrowserWnd::_messageEntries
	DD	00H
	DD	00H
	DD	00H
	DD	0dH
	DD	FLAT:?OnCreate@MyWebBrowserWnd@@IAEHPAUtagCREATESTRUCTA@@@Z
	DD	014H
	DD	00H
	DD	00H
	DD	00H
	DD	01H
	DD	FLAT:?OnEraseBkgnd@MyWebBrowserWnd@@QAEHPAVCDC@@@Z
	DD	05H
	DD	00H
	DD	00H
	DD	00H
	DD	016H
	DD	FLAT:?OnSize@MyWebBrowserWnd@@IAEXIHH@Z
	DD	0113H
	DD	00H
	DD	00H
	DD	00H
	DD	011H
	DD	FLAT:?OnTimer@MyWebBrowserWnd@@IAEXI@Z
	DD	07e9H
	DD	00H
	DD	00H
	DD	00H
	DD	0eH
	DD	FLAT:?OnCallJavaScript@MyWebBrowserWnd@@QAEJIJ@Z
	DD	00H
	DD	00H
	DD	00H
	DD	00H
	DD	00H
	DD	00H
CONST	ENDS
;	COMDAT ?messageMap@MyWebBrowserWnd@@1UAFX_MSGMAP@@B
CONST	SEGMENT
?messageMap@MyWebBrowserWnd@@1UAFX_MSGMAP@@B DD FLAT:?GetThisMessageMap@CHtmlView@@KGPBUAFX_MSGMAP@@XZ ; MyWebBrowserWnd::messageMap
	DD	FLAT:?_messageEntries@MyWebBrowserWnd@@0QBUAFX_MSGMAP_ENTRY@@B
CONST	ENDS
CONST	SEGMENT
$SG206305 DB	00H
	ORG $+2
$SG206318 DB	'\Resources\StandardUI\error404.htm?r=', 00H
	ORG $+2
$SG206338 DB	'%s', 00H
	ORG $+1
$SG206339 DB	'Web BEGIN', 00H
	ORG $+2
$SG206340 DB	'log_httpr.txt', 00H
	ORG $+2
$SG206349 DB	'http://', 00H
$SG206359 DB	'WEB_COMMEND_ERR', 00H
$SG206360 DB	'ERROR', 00H
	ORG $+2
$SG206367 DB	'SwfGamePlaying.htm', 00H
	ORG $+1
$SG206369 DB	'T:%d', 00H
	ORG $+3
$SG206372 DB	'WEBLOADRECOM', 00H
	ORG $+3
$SG206375 DB	'error404', 00H
	ORG $+3
$SG206395 DB	'%s', 00H
	ORG $+1
$SG206396 DB	'OnDocumentComplete: ', 00H
	ORG $+3
$SG206397 DB	'log_webrec.txt', 00H
	ORG $+1
$SG206400 DB	'SwfGamePlaying.htm', 00H
CONST	ENDS
;	COMDAT ?g_pfnGetThreadACP@ATL@@3P6GIXZA
_DATA	SEGMENT
?g_pfnGetThreadACP@ATL@@3P6GIXZA DD FLAT:?_AtlGetThreadACPThunk@ATL@@YGIXZ ; ATL::g_pfnGetThreadACP
_DATA	ENDS
;	COMDAT ?_strthunks@ATL@@3U_AtlStringThunks@1@A
_DATA	SEGMENT
?_strthunks@ATL@@3U_AtlStringThunks@1@A DD FLAT:?CompareStringWThunk@ATL@@YGHKKPB_WH0H@Z ; ATL::_strthunks
	DD	FLAT:?GetStringTypeExWThunk@ATL@@YGHKKPB_WHPAG@Z
	DD	FLAT:?lstrcmpiWThunk@ATL@@YGHPB_W0@Z
	DD	FLAT:?CharLowerWThunk@ATL@@YGPA_WPA_W@Z
	DD	FLAT:?CharUpperWThunk@ATL@@YGPA_WPA_W@Z
	DD	FLAT:?GetEnvironmentVariableWThunk@ATL@@YGKPB_WPA_WK@Z
_DATA	ENDS
CONST	SEGMENT
	ORG $+1
_ID_MESSAGE_REFRESH DD 04H
CONST	ENDS
PUBLIC	?InterlockedExchangePointer@@YGPAXPAPAXPAX@Z	; InterlockedExchangePointer
PUBLIC	?_AtlGetThreadACPFake@ATL@@YGIXZ		; ATL::_AtlGetThreadACPFake
PUBLIC	?_AtlGetThreadACPReal@ATL@@YGIXZ		; ATL::_AtlGetThreadACPReal
EXTRN	__imp__GetVersionExA@4:NEAR
EXTRN	___security_cookie:DWORD
EXTRN	@__security_check_cookie@4:NEAR
; Function compile flags: /Odt
; File d:\program files (x86)\microsoft visual studio .net 2003\vc7\atlmfc\include\atlconv.h
;	COMDAT ?_AtlGetThreadACPThunk@ATL@@YGIXZ
_TEXT	SEGMENT
_pfnGetThreadACP$ = -164				; size = 4
_ver$ = -160						; size = 148
__$ArrayPad$ = -4					; size = 4
__$ReturnAddr$ = 4					; size = 4
?_AtlGetThreadACPThunk@ATL@@YGIXZ PROC NEAR		; ATL::_AtlGetThreadACPThunk, COMDAT

; 134  : {

  00000	55		 push	 ebp
  00001	8b ec		 mov	 ebp, esp
  00003	81 ec a4 00 00
	00		 sub	 esp, 164		; 000000a4H
  00009	a1 00 00 00 00	 mov	 eax, DWORD PTR ___security_cookie
  0000e	89 45 fc	 mov	 DWORD PTR __$ArrayPad$[ebp], eax

; 135  : 	OSVERSIONINFO ver;
; 136  : 	ATLGETTHREADACP pfnGetThreadACP;
; 137  : 
; 138  : 	ver.dwOSVersionInfoSize = sizeof( ver );

  00011	c7 85 60 ff ff
	ff 94 00 00 00	 mov	 DWORD PTR _ver$[ebp], 148 ; 00000094H

; 139  : 	::GetVersionEx( &ver );

  0001b	8d 85 60 ff ff
	ff		 lea	 eax, DWORD PTR _ver$[ebp]
  00021	50		 push	 eax
  00022	ff 15 00 00 00
	00		 call	 DWORD PTR __imp__GetVersionExA@4

; 140  : 	if( (ver.dwPlatformId == VER_PLATFORM_WIN32_NT) && (ver.dwMajorVersion >= 5) )

  00028	83 bd 70 ff ff
	ff 02		 cmp	 DWORD PTR _ver$[ebp+16], 2
  0002f	75 15		 jne	 SHORT $L24173
  00031	83 bd 64 ff ff
	ff 05		 cmp	 DWORD PTR _ver$[ebp+4], 5
  00038	72 0c		 jb	 SHORT $L24173

; 141  : 	{
; 142  : 		// On Win2K, CP_THREAD_ACP is supported
; 143  : 		pfnGetThreadACP = _AtlGetThreadACPReal;

  0003a	c7 85 5c ff ff
	ff 00 00 00 00	 mov	 DWORD PTR _pfnGetThreadACP$[ebp], OFFSET FLAT:?_AtlGetThreadACPReal@ATL@@YGIXZ ; ATL::_AtlGetThreadACPReal

; 144  : 	}
; 145  : 	else

  00044	eb 0a		 jmp	 SHORT $L24174
$L24173:

; 146  : 	{
; 147  : 		pfnGetThreadACP = _AtlGetThreadACPFake;

  00046	c7 85 5c ff ff
	ff 00 00 00 00	 mov	 DWORD PTR _pfnGetThreadACP$[ebp], OFFSET FLAT:?_AtlGetThreadACPFake@ATL@@YGIXZ ; ATL::_AtlGetThreadACPFake
$L24174:

; 148  : 	}
; 149  : 	InterlockedExchangePointer( reinterpret_cast< void** >(&g_pfnGetThreadACP), pfnGetThreadACP );

  00050	8b 8d 5c ff ff
	ff		 mov	 ecx, DWORD PTR _pfnGetThreadACP$[ebp]
  00056	51		 push	 ecx
  00057	68 00 00 00 00	 push	 OFFSET FLAT:?g_pfnGetThreadACP@ATL@@3P6GIXZA ; ATL::g_pfnGetThreadACP
  0005c	e8 00 00 00 00	 call	 ?InterlockedExchangePointer@@YGPAXPAPAXPAX@Z ; InterlockedExchangePointer

; 150  : 
; 151  : 	return( g_pfnGetThreadACP() );

  00061	ff 15 00 00 00
	00		 call	 DWORD PTR ?g_pfnGetThreadACP@ATL@@3P6GIXZA ; ATL::g_pfnGetThreadACP

; 152  : }

  00067	8b 4d fc	 mov	 ecx, DWORD PTR __$ArrayPad$[ebp]
  0006a	e8 00 00 00 00	 call	 @__security_check_cookie@4
  0006f	8b e5		 mov	 esp, ebp
  00071	5d		 pop	 ebp
  00072	c3		 ret	 0
?_AtlGetThreadACPThunk@ATL@@YGIXZ ENDP			; ATL::_AtlGetThreadACPThunk
_TEXT	ENDS
EXTRN	__imp__InterlockedExchange@8:NEAR
; Function compile flags: /Odt
;	COMDAT ?InterlockedExchangePointer@@YGPAXPAPAXPAX@Z
_TEXT	SEGMENT
_pp$ = 8						; size = 4
_pNew$ = 12						; size = 4
?InterlockedExchangePointer@@YGPAXPAPAXPAX@Z PROC NEAR	; InterlockedExchangePointer, COMDAT

; 91   : {

  00000	55		 push	 ebp
  00001	8b ec		 mov	 ebp, esp

; 92   : 	return( reinterpret_cast<void*>(static_cast<LONG_PTR>(::InterlockedExchange(reinterpret_cast<LONG*>(pp), static_cast<LONG>(reinterpret_cast<LONG_PTR>(pNew))))) );

  00003	8b 45 0c	 mov	 eax, DWORD PTR _pNew$[ebp]
  00006	50		 push	 eax
  00007	8b 4d 08	 mov	 ecx, DWORD PTR _pp$[ebp]
  0000a	51		 push	 ecx
  0000b	ff 15 00 00 00
	00		 call	 DWORD PTR __imp__InterlockedExchange@8

; 93   : }

  00011	5d		 pop	 ebp
  00012	c2 08 00	 ret	 8
?InterlockedExchangePointer@@YGPAXPAPAXPAX@Z ENDP	; InterlockedExchangePointer
_TEXT	ENDS
EXTRN	__imp__GetACP@0:NEAR
EXTRN	__imp__GetLocaleInfoA@16:NEAR
EXTRN	__imp__GetThreadLocale@0:NEAR
; Function compile flags: /Odt
;	COMDAT ?_AtlGetThreadACPFake@ATL@@YGIXZ
_TEXT	SEGMENT
_pch$24161 = -24					; size = 4
_lcidThread$ = -20					; size = 4
_szACP$ = -16						; size = 7
__$ArrayPad$ = -8					; size = 4
_nACP$ = -4						; size = 4
__$ReturnAddr$ = 4					; size = 4
?_AtlGetThreadACPFake@ATL@@YGIXZ PROC NEAR		; ATL::_AtlGetThreadACPFake, COMDAT

; 101  : {

  00000	55		 push	 ebp
  00001	8b ec		 mov	 ebp, esp
  00003	83 ec 18	 sub	 esp, 24			; 00000018H
  00006	a1 00 00 00 00	 mov	 eax, DWORD PTR ___security_cookie
  0000b	89 45 f8	 mov	 DWORD PTR __$ArrayPad$[ebp], eax

; 102  : 	UINT nACP = 0;

  0000e	c7 45 fc 00 00
	00 00		 mov	 DWORD PTR _nACP$[ebp], 0

; 103  : 
; 104  : 	LCID lcidThread = ::GetThreadLocale();

  00015	ff 15 00 00 00
	00		 call	 DWORD PTR __imp__GetThreadLocale@0
  0001b	89 45 ec	 mov	 DWORD PTR _lcidThread$[ebp], eax

; 105  : 
; 106  : 	char szACP[7];
; 107  : 	// GetLocaleInfoA will fail for a Unicode-only LCID, but those are only supported on 
; 108  : 	// Windows 2000.  Since Windows 2000 supports CP_THREAD_ACP, this code path is never
; 109  : 	// executed on Windows 2000.
; 110  : 	if (::GetLocaleInfoA(lcidThread, LOCALE_IDEFAULTANSICODEPAGE, szACP, 7) != 0)

  0001e	6a 07		 push	 7
  00020	8d 45 f0	 lea	 eax, DWORD PTR _szACP$[ebp]
  00023	50		 push	 eax
  00024	68 04 10 00 00	 push	 4100			; 00001004H
  00029	8b 4d ec	 mov	 ecx, DWORD PTR _lcidThread$[ebp]
  0002c	51		 push	 ecx
  0002d	ff 15 00 00 00
	00		 call	 DWORD PTR __imp__GetLocaleInfoA@16
  00033	85 c0		 test	 eax, eax
  00035	74 34		 je	 SHORT $L24160

; 111  : 	{
; 112  : 		char* pch = szACP;

  00037	8d 55 f0	 lea	 edx, DWORD PTR _szACP$[ebp]
  0003a	89 55 e8	 mov	 DWORD PTR _pch$24161[ebp], edx
$L24163:

; 113  : 		while (*pch != '\0')

  0003d	8b 45 e8	 mov	 eax, DWORD PTR _pch$24161[ebp]
  00040	0f be 08	 movsx	 ecx, BYTE PTR [eax]
  00043	85 c9		 test	 ecx, ecx
  00045	74 24		 je	 SHORT $L24160

; 114  : 		{
; 115  : 			nACP *= 10;

  00047	8b 55 fc	 mov	 edx, DWORD PTR _nACP$[ebp]
  0004a	6b d2 0a	 imul	 edx, 10			; 0000000aH
  0004d	89 55 fc	 mov	 DWORD PTR _nACP$[ebp], edx

; 116  : 			nACP += *pch++ - '0';

  00050	8b 45 e8	 mov	 eax, DWORD PTR _pch$24161[ebp]
  00053	0f be 08	 movsx	 ecx, BYTE PTR [eax]
  00056	8b 55 fc	 mov	 edx, DWORD PTR _nACP$[ebp]
  00059	8d 44 0a d0	 lea	 eax, DWORD PTR [edx+ecx-48]
  0005d	89 45 fc	 mov	 DWORD PTR _nACP$[ebp], eax
  00060	8b 4d e8	 mov	 ecx, DWORD PTR _pch$24161[ebp]
  00063	83 c1 01	 add	 ecx, 1
  00066	89 4d e8	 mov	 DWORD PTR _pch$24161[ebp], ecx

; 117  : 		}

  00069	eb d2		 jmp	 SHORT $L24163
$L24160:

; 118  : 	}
; 119  : 	// Use the Default ANSI Code Page if we were unable to get the thread ACP or if one does not exist.
; 120  : 	if (nACP == 0)

  0006b	83 7d fc 00	 cmp	 DWORD PTR _nACP$[ebp], 0
  0006f	75 09		 jne	 SHORT $L24165

; 121  : 		nACP = ::GetACP();

  00071	ff 15 00 00 00
	00		 call	 DWORD PTR __imp__GetACP@0
  00077	89 45 fc	 mov	 DWORD PTR _nACP$[ebp], eax
$L24165:

; 122  : 
; 123  : 	return nACP;

  0007a	8b 45 fc	 mov	 eax, DWORD PTR _nACP$[ebp]

; 124  : }

  0007d	8b 4d f8	 mov	 ecx, DWORD PTR __$ArrayPad$[ebp]
  00080	e8 00 00 00 00	 call	 @__security_check_cookie@4
  00085	8b e5		 mov	 esp, ebp
  00087	5d		 pop	 ebp
  00088	c3		 ret	 0
?_AtlGetThreadACPFake@ATL@@YGIXZ ENDP			; ATL::_AtlGetThreadACPFake
; Function compile flags: /Odt
_TEXT	ENDS
;	COMDAT ?_AtlGetThreadACPReal@ATL@@YGIXZ
_TEXT	SEGMENT
?_AtlGetThreadACPReal@ATL@@YGIXZ PROC NEAR		; ATL::_AtlGetThreadACPReal, COMDAT

; 127  : {

  00000	55		 push	 ebp
  00001	8b ec		 mov	 ebp, esp

; 128  : 	return( CP_THREAD_ACP );

  00003	b8 03 00 00 00	 mov	 eax, 3

; 129  : }

  00008	5d		 pop	 ebp
  00009	c3		 ret	 0
?_AtlGetThreadACPReal@ATL@@YGIXZ ENDP			; ATL::_AtlGetThreadACPReal
_TEXT	ENDS
PUBLIC	?_AtlInstallStringThunk@ATL@@YAXPAPAXPAX1@Z	; ATL::_AtlInstallStringThunk
PUBLIC	?GetEnvironmentVariableWFake@ATL@@YGKPB_WPA_WK@Z ; ATL::GetEnvironmentVariableWFake
EXTRN	__imp__GetEnvironmentVariableW@12:NEAR
; Function compile flags: /Odt
; File d:\program files (x86)\microsoft visual studio .net 2003\vc7\atlmfc\include\cstringt.h
;	COMDAT ?GetEnvironmentVariableWThunk@ATL@@YGKPB_WPA_WK@Z
_TEXT	SEGMENT
_pszName$ = 8						; size = 4
_pszBuffer$ = 12					; size = 4
_nSize$ = 16						; size = 4
?GetEnvironmentVariableWThunk@ATL@@YGKPB_WPA_WK@Z PROC NEAR ; ATL::GetEnvironmentVariableWThunk, COMDAT

; 183  : {

  00000	55		 push	 ebp
  00001	8b ec		 mov	 ebp, esp

; 184  : 	_AtlInstallStringThunk(reinterpret_cast<void**>(&_strthunks.pfnGetEnvironmentVariableW), 
; 185  : 		GetEnvironmentVariableWFake, ::GetEnvironmentVariableW);

  00003	a1 00 00 00 00	 mov	 eax, DWORD PTR __imp__GetEnvironmentVariableW@12
  00008	50		 push	 eax
  00009	68 00 00 00 00	 push	 OFFSET FLAT:?GetEnvironmentVariableWFake@ATL@@YGKPB_WPA_WK@Z ; ATL::GetEnvironmentVariableWFake
  0000e	68 14 00 00 00	 push	 OFFSET FLAT:?_strthunks@ATL@@3U_AtlStringThunks@1@A+20
  00013	e8 00 00 00 00	 call	 ?_AtlInstallStringThunk@ATL@@YAXPAPAXPAX1@Z ; ATL::_AtlInstallStringThunk
  00018	83 c4 0c	 add	 esp, 12			; 0000000cH

; 186  : 
; 187  : 	return _strthunks.pfnGetEnvironmentVariableW(pszName, pszBuffer, nSize);

  0001b	8b 4d 10	 mov	 ecx, DWORD PTR _nSize$[ebp]
  0001e	51		 push	 ecx
  0001f	8b 55 0c	 mov	 edx, DWORD PTR _pszBuffer$[ebp]
  00022	52		 push	 edx
  00023	8b 45 08	 mov	 eax, DWORD PTR _pszName$[ebp]
  00026	50		 push	 eax
  00027	ff 15 14 00 00
	00		 call	 DWORD PTR ?_strthunks@ATL@@3U_AtlStringThunks@1@A+20

; 188  : }

  0002d	5d		 pop	 ebp
  0002e	c2 0c 00	 ret	 12			; 0000000cH
?GetEnvironmentVariableWThunk@ATL@@YGKPB_WPA_WK@Z ENDP	; ATL::GetEnvironmentVariableWThunk
_TEXT	ENDS
PUBLIC	?s_bWin9x@?1??_AtlInstallStringThunk@ATL@@YAXPAPAXPAX1@Z@4_NA ; `ATL::_AtlInstallStringThunk'::`2'::s_bWin9x
PUBLIC	??_B?1??_AtlInstallStringThunk@ATL@@YAXPAPAXPAX1@Z@51 ; `ATL::_AtlInstallStringThunk'::`2'::`local static guard'
EXTRN	__imp__GetVersion@0:NEAR
;	COMDAT ?s_bWin9x@?1??_AtlInstallStringThunk@ATL@@YAXPAPAXPAX1@Z@4_NA
_BSS	SEGMENT
?s_bWin9x@?1??_AtlInstallStringThunk@ATL@@YAXPAPAXPAX1@Z@4_NA DB 01H DUP (?) ; `ATL::_AtlInstallStringThunk'::`2'::s_bWin9x
_BSS	ENDS
;	COMDAT ??_B?1??_AtlInstallStringThunk@ATL@@YAXPAPAXPAX1@Z@51
_BSS	SEGMENT
??_B?1??_AtlInstallStringThunk@ATL@@YAXPAPAXPAX1@Z@51 DD 01H DUP (?) ; `ATL::_AtlInstallStringThunk'::`2'::`local static guard'
; Function compile flags: /Odt
_BSS	ENDS
;	COMDAT ?_AtlInstallStringThunk@ATL@@YAXPAPAXPAX1@Z
_TEXT	SEGMENT
_pfn$ = -4						; size = 4
_ppThunk$ = 8						; size = 4
_pfnWin9x$ = 12						; size = 4
_pfnNT$ = 16						; size = 4
?_AtlInstallStringThunk@ATL@@YAXPAPAXPAX1@Z PROC NEAR	; ATL::_AtlInstallStringThunk, COMDAT

; 115  : {

  00000	55		 push	 ebp
  00001	8b ec		 mov	 ebp, esp
  00003	51		 push	 ecx

; 116  : #pragma warning (push)
; 117  : #pragma warning (disable : 4640)	// construction of local static object is not thread-safe
; 118  : 
; 119  : 	static bool s_bWin9x = (::GetVersion()&0x80000000) != 0;

  00004	a1 00 00 00 00	 mov	 eax, DWORD PTR ??_B?1??_AtlInstallStringThunk@ATL@@YAXPAPAXPAX1@Z@51
  00009	83 e0 01	 and	 eax, 1
  0000c	75 25		 jne	 SHORT $L25641
  0000e	8b 0d 00 00 00
	00		 mov	 ecx, DWORD PTR ??_B?1??_AtlInstallStringThunk@ATL@@YAXPAPAXPAX1@Z@51
  00014	83 c9 01	 or	 ecx, 1
  00017	89 0d 00 00 00
	00		 mov	 DWORD PTR ??_B?1??_AtlInstallStringThunk@ATL@@YAXPAPAXPAX1@Z@51, ecx
  0001d	ff 15 00 00 00
	00		 call	 DWORD PTR __imp__GetVersion@0
  00023	25 00 00 00 80	 and	 eax, -2147483648	; 80000000H
  00028	f7 d8		 neg	 eax
  0002a	1b c0		 sbb	 eax, eax
  0002c	f7 d8		 neg	 eax
  0002e	a2 00 00 00 00	 mov	 BYTE PTR ?s_bWin9x@?1??_AtlInstallStringThunk@ATL@@YAXPAPAXPAX1@Z@4_NA, al ; `ATL::_AtlInstallStringThunk'::`2'::s_bWin9x
$L25641:

; 120  : 	
; 121  : #pragma warning (pop)
; 122  : 
; 123  : 	void* pfn;
; 124  : 	if (s_bWin9x)

  00033	0f b6 15 00 00
	00 00		 movzx	 edx, BYTE PTR ?s_bWin9x@?1??_AtlInstallStringThunk@ATL@@YAXPAPAXPAX1@Z@4_NA ; `ATL::_AtlInstallStringThunk'::`2'::s_bWin9x
  0003a	85 d2		 test	 edx, edx
  0003c	74 08		 je	 SHORT $L25643

; 125  : 		pfn = pfnWin9x;

  0003e	8b 45 0c	 mov	 eax, DWORD PTR _pfnWin9x$[ebp]
  00041	89 45 fc	 mov	 DWORD PTR _pfn$[ebp], eax

; 126  : 	else

  00044	eb 06		 jmp	 SHORT $L25644
$L25643:

; 127  : 	{
; 128  : #ifdef _CSTRING_ALWAYS_THUNK
; 129  : 		pfn = pfnWin9x;
; 130  : 		(void)pfnNT;
; 131  : #else
; 132  : 		pfn = pfnNT;

  00046	8b 4d 10	 mov	 ecx, DWORD PTR _pfnNT$[ebp]
  00049	89 4d fc	 mov	 DWORD PTR _pfn$[ebp], ecx
$L25644:

; 133  : #endif
; 134  : 	}
; 135  : 	InterlockedExchangePointer(ppThunk, pfn);

  0004c	8b 55 fc	 mov	 edx, DWORD PTR _pfn$[ebp]
  0004f	52		 push	 edx
  00050	8b 45 08	 mov	 eax, DWORD PTR _ppThunk$[ebp]
  00053	50		 push	 eax
  00054	e8 00 00 00 00	 call	 ?InterlockedExchangePointer@@YGPAXPAPAXPAX@Z ; InterlockedExchangePointer

; 136  : }

  00059	8b e5		 mov	 esp, ebp
  0005b	5d		 pop	 ebp
  0005c	c3		 ret	 0
?_AtlInstallStringThunk@ATL@@YAXPAPAXPAX1@Z ENDP	; ATL::_AtlInstallStringThunk
_TEXT	ENDS
PUBLIC	??0?$CTempBuffer@D$0IA@VCCRTAllocator@ATL@@@ATL@@QAE@XZ ; ATL::CTempBuffer<char,128,ATL::CCRTAllocator>::CTempBuffer<char,128,ATL::CCRTAllocator>
PUBLIC	??1?$CTempBuffer@D$0IA@VCCRTAllocator@ATL@@@ATL@@QAE@XZ ; ATL::CTempBuffer<char,128,ATL::CCRTAllocator>::~CTempBuffer<char,128,ATL::CCRTAllocator>
PUBLIC	??B?$CTempBuffer@D$0IA@VCCRTAllocator@ATL@@@ATL@@QBEPADXZ ; ATL::CTempBuffer<char,128,ATL::CCRTAllocator>::operator char *
PUBLIC	?Allocate@?$CTempBuffer@D$0IA@VCCRTAllocator@ATL@@@ATL@@QAEPADI@Z ; ATL::CTempBuffer<char,128,ATL::CCRTAllocator>::Allocate
PUBLIC	??0?$CW2AEX@$0IA@@ATL@@QAE@PB_W@Z		; ATL::CW2AEX<128>::CW2AEX<128>
PUBLIC	??1?$CW2AEX@$0IA@@ATL@@QAE@XZ			; ATL::CW2AEX<128>::~CW2AEX<128>
PUBLIC	??B?$CW2AEX@$0IA@@ATL@@QBEPADXZ			; ATL::CW2AEX<128>::operator char *
PUBLIC	?_AtlGetConversionACP@ATL@@YGIXZ		; ATL::_AtlGetConversionACP
EXTRN	__imp__MultiByteToWideChar@24:NEAR
EXTRN	__imp__GetEnvironmentVariableA@12:NEAR
EXTRN	__except_list:DWORD
EXTRN	___CxxFrameHandler:NEAR
;	COMDAT xdata$x
xdata$x	SEGMENT
$T207661 DD	0ffffffffH
	DD	FLAT:$L207652
	DD	00H
	DD	FLAT:$L207653
$T207657 DD	019930520H
	DD	02H
	DD	FLAT:$T207661
	DD	2 DUP(00H)
	DD	2 DUP(00H)
; Function compile flags: /Odt
xdata$x	ENDS
;	COMDAT ?GetEnvironmentVariableWFake@ATL@@YGKPB_WPA_WK@Z
_TEXT	SEGMENT
$T207651 = -312						; size = 4
$T207650 = -308						; size = 4
$T207649 = -304						; size = 4
_pszBufferA$ = -300					; size = 132
_nSizeW$ = -160						; size = 4
_pszNameA$ = -156					; size = 132
__$ArrayPad$ = -20					; size = 4
_nSizeA$ = -16						; size = 4
__$EHRec$ = -12						; size = 12
__$ReturnAddr$ = 4					; size = 4
_pszName$ = 8						; size = 4
_pszBuffer$ = 12					; size = 4
_nSize$ = 16						; size = 4
?GetEnvironmentVariableWFake@ATL@@YGKPB_WPA_WK@Z PROC NEAR ; ATL::GetEnvironmentVariableWFake, COMDAT

; 159  : {

  00000	55		 push	 ebp
  00001	8b ec		 mov	 ebp, esp
  00003	6a ff		 push	 -1
  00005	68 00 00 00 00	 push	 __ehhandler$?GetEnvironmentVariableWFake@ATL@@YGKPB_WPA_WK@Z
  0000a	64 a1 00 00 00
	00		 mov	 eax, DWORD PTR fs:__except_list
  00010	50		 push	 eax
  00011	64 89 25 00 00
	00 00		 mov	 DWORD PTR fs:__except_list, esp
  00018	81 ec 2c 01 00
	00		 sub	 esp, 300		; 0000012cH
  0001e	a1 00 00 00 00	 mov	 eax, DWORD PTR ___security_cookie
  00023	89 45 ec	 mov	 DWORD PTR __$ArrayPad$[ebp], eax

; 160  : 	ULONG nSizeA;
; 161  : 	ULONG nSizeW;
; 162  : 	CTempBuffer<char> pszBufferA;

  00026	8d 8d d4 fe ff
	ff		 lea	 ecx, DWORD PTR _pszBufferA$[ebp]
  0002c	e8 00 00 00 00	 call	 ??0?$CTempBuffer@D$0IA@VCCRTAllocator@ATL@@@ATL@@QAE@XZ ; ATL::CTempBuffer<char,128,ATL::CCRTAllocator>::CTempBuffer<char,128,ATL::CCRTAllocator>
  00031	c7 45 fc 00 00
	00 00		 mov	 DWORD PTR __$EHRec$[ebp+8], 0

; 163  : 	CW2A pszNameA(pszName);

  00038	8b 45 08	 mov	 eax, DWORD PTR _pszName$[ebp]
  0003b	50		 push	 eax
  0003c	8d 8d 64 ff ff
	ff		 lea	 ecx, DWORD PTR _pszNameA$[ebp]
  00042	e8 00 00 00 00	 call	 ??0?$CW2AEX@$0IA@@ATL@@QAE@PB_W@Z ; ATL::CW2AEX<128>::CW2AEX<128>
  00047	c6 45 fc 01	 mov	 BYTE PTR __$EHRec$[ebp+8], 1

; 164  : 
; 165  : 	nSizeA = ::GetEnvironmentVariableA(pszNameA, NULL, 0);

  0004b	6a 00		 push	 0
  0004d	6a 00		 push	 0
  0004f	8d 8d 64 ff ff
	ff		 lea	 ecx, DWORD PTR _pszNameA$[ebp]
  00055	e8 00 00 00 00	 call	 ??B?$CW2AEX@$0IA@@ATL@@QBEPADXZ ; ATL::CW2AEX<128>::operator char *
  0005a	50		 push	 eax
  0005b	ff 15 00 00 00
	00		 call	 DWORD PTR __imp__GetEnvironmentVariableA@12
  00061	89 45 f0	 mov	 DWORD PTR _nSizeA$[ebp], eax

; 166  : 	if (nSizeA == 0)

  00064	83 7d f0 00	 cmp	 DWORD PTR _nSizeA$[ebp], 0
  00068	75 36		 jne	 SHORT $L25746

; 167  : 		return 0;

  0006a	c7 85 d0 fe ff
	ff 00 00 00 00	 mov	 DWORD PTR $T207649[ebp], 0
  00074	c6 45 fc 00	 mov	 BYTE PTR __$EHRec$[ebp+8], 0
  00078	8d 8d 64 ff ff
	ff		 lea	 ecx, DWORD PTR _pszNameA$[ebp]
  0007e	e8 00 00 00 00	 call	 ??1?$CW2AEX@$0IA@@ATL@@QAE@XZ ; ATL::CW2AEX<128>::~CW2AEX<128>
  00083	c7 45 fc ff ff
	ff ff		 mov	 DWORD PTR __$EHRec$[ebp+8], -1
  0008a	8d 8d d4 fe ff
	ff		 lea	 ecx, DWORD PTR _pszBufferA$[ebp]
  00090	e8 00 00 00 00	 call	 ??1?$CTempBuffer@D$0IA@VCCRTAllocator@ATL@@@ATL@@QAE@XZ ; ATL::CTempBuffer<char,128,ATL::CCRTAllocator>::~CTempBuffer<char,128,ATL::CCRTAllocator>
  00095	8b 85 d0 fe ff
	ff		 mov	 eax, DWORD PTR $T207649[ebp]
  0009b	e9 ee 00 00 00	 jmp	 $L25687
$L25746:

; 168  : 
; 169  : 	pszBufferA.Allocate(nSizeA*2);

  000a0	8b 4d f0	 mov	 ecx, DWORD PTR _nSizeA$[ebp]
  000a3	d1 e1		 shl	 ecx, 1
  000a5	51		 push	 ecx
  000a6	8d 8d d4 fe ff
	ff		 lea	 ecx, DWORD PTR _pszBufferA$[ebp]
  000ac	e8 00 00 00 00	 call	 ?Allocate@?$CTempBuffer@D$0IA@VCCRTAllocator@ATL@@@ATL@@QAEPADI@Z ; ATL::CTempBuffer<char,128,ATL::CCRTAllocator>::Allocate

; 170  : 	::GetEnvironmentVariableA(pszNameA, pszBufferA, nSizeA);

  000b1	8b 55 f0	 mov	 edx, DWORD PTR _nSizeA$[ebp]
  000b4	52		 push	 edx
  000b5	8d 8d d4 fe ff
	ff		 lea	 ecx, DWORD PTR _pszBufferA$[ebp]
  000bb	e8 00 00 00 00	 call	 ??B?$CTempBuffer@D$0IA@VCCRTAllocator@ATL@@@ATL@@QBEPADXZ ; ATL::CTempBuffer<char,128,ATL::CCRTAllocator>::operator char *
  000c0	50		 push	 eax
  000c1	8d 8d 64 ff ff
	ff		 lea	 ecx, DWORD PTR _pszNameA$[ebp]
  000c7	e8 00 00 00 00	 call	 ??B?$CW2AEX@$0IA@@ATL@@QBEPADXZ ; ATL::CW2AEX<128>::operator char *
  000cc	50		 push	 eax
  000cd	ff 15 00 00 00
	00		 call	 DWORD PTR __imp__GetEnvironmentVariableA@12

; 171  : 
; 172  : 	nSizeW = ::MultiByteToWideChar(_AtlGetConversionACP(), 0, pszBufferA, -1, NULL, 0);

  000d3	6a 00		 push	 0
  000d5	6a 00		 push	 0
  000d7	6a ff		 push	 -1
  000d9	8d 8d d4 fe ff
	ff		 lea	 ecx, DWORD PTR _pszBufferA$[ebp]
  000df	e8 00 00 00 00	 call	 ??B?$CTempBuffer@D$0IA@VCCRTAllocator@ATL@@@ATL@@QBEPADXZ ; ATL::CTempBuffer<char,128,ATL::CCRTAllocator>::operator char *
  000e4	50		 push	 eax
  000e5	6a 00		 push	 0
  000e7	e8 00 00 00 00	 call	 ?_AtlGetConversionACP@ATL@@YGIXZ ; ATL::_AtlGetConversionACP
  000ec	50		 push	 eax
  000ed	ff 15 00 00 00
	00		 call	 DWORD PTR __imp__MultiByteToWideChar@24
  000f3	89 85 60 ff ff
	ff		 mov	 DWORD PTR _nSizeW$[ebp], eax

; 173  : 	if (nSize == 0)

  000f9	83 7d 10 00	 cmp	 DWORD PTR _nSize$[ebp], 0
  000fd	75 35		 jne	 SHORT $L25748

; 174  : 		return nSizeW;

  000ff	8b 85 60 ff ff
	ff		 mov	 eax, DWORD PTR _nSizeW$[ebp]
  00105	89 85 cc fe ff
	ff		 mov	 DWORD PTR $T207650[ebp], eax
  0010b	c6 45 fc 00	 mov	 BYTE PTR __$EHRec$[ebp+8], 0
  0010f	8d 8d 64 ff ff
	ff		 lea	 ecx, DWORD PTR _pszNameA$[ebp]
  00115	e8 00 00 00 00	 call	 ??1?$CW2AEX@$0IA@@ATL@@QAE@XZ ; ATL::CW2AEX<128>::~CW2AEX<128>
  0011a	c7 45 fc ff ff
	ff ff		 mov	 DWORD PTR __$EHRec$[ebp+8], -1
  00121	8d 8d d4 fe ff
	ff		 lea	 ecx, DWORD PTR _pszBufferA$[ebp]
  00127	e8 00 00 00 00	 call	 ??1?$CTempBuffer@D$0IA@VCCRTAllocator@ATL@@@ATL@@QAE@XZ ; ATL::CTempBuffer<char,128,ATL::CCRTAllocator>::~CTempBuffer<char,128,ATL::CCRTAllocator>
  0012c	8b 85 cc fe ff
	ff		 mov	 eax, DWORD PTR $T207650[ebp]
  00132	eb 5a		 jmp	 SHORT $L25687
$L25748:

; 175  : 	ATLASSERT(nSize >= nSizeW);
; 176  : 	::MultiByteToWideChar(_AtlGetConversionACP(), 0, pszBufferA, -1, pszBuffer, nSizeW);

  00134	8b 8d 60 ff ff
	ff		 mov	 ecx, DWORD PTR _nSizeW$[ebp]
  0013a	51		 push	 ecx
  0013b	8b 55 0c	 mov	 edx, DWORD PTR _pszBuffer$[ebp]
  0013e	52		 push	 edx
  0013f	6a ff		 push	 -1
  00141	8d 8d d4 fe ff
	ff		 lea	 ecx, DWORD PTR _pszBufferA$[ebp]
  00147	e8 00 00 00 00	 call	 ??B?$CTempBuffer@D$0IA@VCCRTAllocator@ATL@@@ATL@@QBEPADXZ ; ATL::CTempBuffer<char,128,ATL::CCRTAllocator>::operator char *
  0014c	50		 push	 eax
  0014d	6a 00		 push	 0
  0014f	e8 00 00 00 00	 call	 ?_AtlGetConversionACP@ATL@@YGIXZ ; ATL::_AtlGetConversionACP
  00154	50		 push	 eax
  00155	ff 15 00 00 00
	00		 call	 DWORD PTR __imp__MultiByteToWideChar@24

; 177  : 
; 178  : 	return nSizeW;

  0015b	8b 85 60 ff ff
	ff		 mov	 eax, DWORD PTR _nSizeW$[ebp]
  00161	89 85 c8 fe ff
	ff		 mov	 DWORD PTR $T207651[ebp], eax
  00167	c6 45 fc 00	 mov	 BYTE PTR __$EHRec$[ebp+8], 0
  0016b	8d 8d 64 ff ff
	ff		 lea	 ecx, DWORD PTR _pszNameA$[ebp]
  00171	e8 00 00 00 00	 call	 ??1?$CW2AEX@$0IA@@ATL@@QAE@XZ ; ATL::CW2AEX<128>::~CW2AEX<128>
  00176	c7 45 fc ff ff
	ff ff		 mov	 DWORD PTR __$EHRec$[ebp+8], -1
  0017d	8d 8d d4 fe ff
	ff		 lea	 ecx, DWORD PTR _pszBufferA$[ebp]
  00183	e8 00 00 00 00	 call	 ??1?$CTempBuffer@D$0IA@VCCRTAllocator@ATL@@@ATL@@QAE@XZ ; ATL::CTempBuffer<char,128,ATL::CCRTAllocator>::~CTempBuffer<char,128,ATL::CCRTAllocator>
  00188	8b 85 c8 fe ff
	ff		 mov	 eax, DWORD PTR $T207651[ebp]
$L25687:

; 179  : }

  0018e	8b 4d f4	 mov	 ecx, DWORD PTR __$EHRec$[ebp]
  00191	64 89 0d 00 00
	00 00		 mov	 DWORD PTR fs:__except_list, ecx
  00198	8b 4d ec	 mov	 ecx, DWORD PTR __$ArrayPad$[ebp]
  0019b	e8 00 00 00 00	 call	 @__security_check_cookie@4
  001a0	8b e5		 mov	 esp, ebp
  001a2	5d		 pop	 ebp
  001a3	c2 0c 00	 ret	 12			; 0000000cH
_TEXT	ENDS
;	COMDAT text$x
text$x	SEGMENT
$L207652:
  00000	8d 8d d4 fe ff
	ff		 lea	 ecx, DWORD PTR _pszBufferA$[ebp]
  00006	e9 00 00 00 00	 jmp	 ??1?$CTempBuffer@D$0IA@VCCRTAllocator@ATL@@@ATL@@QAE@XZ ; ATL::CTempBuffer<char,128,ATL::CCRTAllocator>::~CTempBuffer<char,128,ATL::CCRTAllocator>
$L207653:
  0000b	8d 8d 64 ff ff
	ff		 lea	 ecx, DWORD PTR _pszNameA$[ebp]
  00011	e9 00 00 00 00	 jmp	 ??1?$CW2AEX@$0IA@@ATL@@QAE@XZ ; ATL::CW2AEX<128>::~CW2AEX<128>
__ehhandler$?GetEnvironmentVariableWFake@ATL@@YGKPB_WPA_WK@Z:
  00016	b8 00 00 00 00	 mov	 eax, OFFSET FLAT:$T207657
  0001b	e9 00 00 00 00	 jmp	 ___CxxFrameHandler
text$x	ENDS
?GetEnvironmentVariableWFake@ATL@@YGKPB_WPA_WK@Z ENDP	; ATL::GetEnvironmentVariableWFake
; Function compile flags: /Odt
; File d:\program files (x86)\microsoft visual studio .net 2003\vc7\atlmfc\include\atlconv.h
;	COMDAT ?_AtlGetConversionACP@ATL@@YGIXZ
_TEXT	SEGMENT
?_AtlGetConversionACP@ATL@@YGIXZ PROC NEAR		; ATL::_AtlGetConversionACP, COMDAT

; 157  : {

  00000	55		 push	 ebp
  00001	8b ec		 mov	 ebp, esp

; 158  : 	return( g_pfnGetThreadACP() );

  00003	ff 15 00 00 00
	00		 call	 DWORD PTR ?g_pfnGetThreadACP@ATL@@3P6GIXZA ; ATL::g_pfnGetThreadACP

; 159  : }

  00009	5d		 pop	 ebp
  0000a	c3		 ret	 0
?_AtlGetConversionACP@ATL@@YGIXZ ENDP			; ATL::_AtlGetConversionACP
_TEXT	ENDS
PUBLIC	?CompareStringWFake@ATL@@YGHKKPB_WH0H@Z		; ATL::CompareStringWFake
EXTRN	__imp__CompareStringW@24:NEAR
; Function compile flags: /Odt
; File d:\program files (x86)\microsoft visual studio .net 2003\vc7\atlmfc\include\cstringt.h
;	COMDAT ?CompareStringWThunk@ATL@@YGHKKPB_WH0H@Z
_TEXT	SEGMENT
_lcid$ = 8						; size = 4
_dwFlags$ = 12						; size = 4
_pszString1$ = 16					; size = 4
_nLength1$ = 20						; size = 4
_pszString2$ = 24					; size = 4
_nLength2$ = 28						; size = 4
?CompareStringWThunk@ATL@@YGHKKPB_WH0H@Z PROC NEAR	; ATL::CompareStringWThunk, COMDAT

; 216  : {

  00000	55		 push	 ebp
  00001	8b ec		 mov	 ebp, esp

; 217  : 	_AtlInstallStringThunk(reinterpret_cast<void**>(&_strthunks.pfnCompareStringW), CompareStringWFake, ::CompareStringW);

  00003	a1 00 00 00 00	 mov	 eax, DWORD PTR __imp__CompareStringW@24
  00008	50		 push	 eax
  00009	68 00 00 00 00	 push	 OFFSET FLAT:?CompareStringWFake@ATL@@YGHKKPB_WH0H@Z ; ATL::CompareStringWFake
  0000e	68 00 00 00 00	 push	 OFFSET FLAT:?_strthunks@ATL@@3U_AtlStringThunks@1@A ; ATL::_strthunks
  00013	e8 00 00 00 00	 call	 ?_AtlInstallStringThunk@ATL@@YAXPAPAXPAX1@Z ; ATL::_AtlInstallStringThunk
  00018	83 c4 0c	 add	 esp, 12			; 0000000cH

; 218  : 
; 219  : 	return _strthunks.pfnCompareStringW(lcid, dwFlags, pszString1, nLength1, pszString2, nLength2);

  0001b	8b 4d 1c	 mov	 ecx, DWORD PTR _nLength2$[ebp]
  0001e	51		 push	 ecx
  0001f	8b 55 18	 mov	 edx, DWORD PTR _pszString2$[ebp]
  00022	52		 push	 edx
  00023	8b 45 14	 mov	 eax, DWORD PTR _nLength1$[ebp]
  00026	50		 push	 eax
  00027	8b 4d 10	 mov	 ecx, DWORD PTR _pszString1$[ebp]
  0002a	51		 push	 ecx
  0002b	8b 55 0c	 mov	 edx, DWORD PTR _dwFlags$[ebp]
  0002e	52		 push	 edx
  0002f	8b 45 08	 mov	 eax, DWORD PTR _lcid$[ebp]
  00032	50		 push	 eax
  00033	ff 15 00 00 00
	00		 call	 DWORD PTR ?_strthunks@ATL@@3U_AtlStringThunks@1@A

; 220  : }

  00039	5d		 pop	 ebp
  0003a	c2 18 00	 ret	 24			; 00000018H
?CompareStringWThunk@ATL@@YGHKKPB_WH0H@Z ENDP		; ATL::CompareStringWThunk
_TEXT	ENDS
PUBLIC	?AtlThrow@ATL@@YGXJ@Z				; ATL::AtlThrow
PUBLIC	?_AtlVerifyStackAvailable@_ATL_SAFE_ALLOCA_IMPL@ATL@@YA_NK@Z ; ATL::_ATL_SAFE_ALLOCA_IMPL::_AtlVerifyStackAvailable
PUBLIC	?AtlW2AHelper@@YGPADPADPB_WHI@Z			; AtlW2AHelper
PUBLIC	??0?$CAtlSafeAllocBufferManager@VCCRTAllocator@ATL@@@_ATL_SAFE_ALLOCA_IMPL@ATL@@QAE@XZ ; ATL::_ATL_SAFE_ALLOCA_IMPL::CAtlSafeAllocBufferManager<ATL::CCRTAllocator>::CAtlSafeAllocBufferManager<ATL::CCRTAllocator>
PUBLIC	?Allocate@?$CAtlSafeAllocBufferManager@VCCRTAllocator@ATL@@@_ATL_SAFE_ALLOCA_IMPL@ATL@@QAEPAXK@Z ; ATL::_ATL_SAFE_ALLOCA_IMPL::CAtlSafeAllocBufferManager<ATL::CCRTAllocator>::Allocate
PUBLIC	??1?$CAtlSafeAllocBufferManager@VCCRTAllocator@ATL@@@_ATL_SAFE_ALLOCA_IMPL@ATL@@QAE@XZ ; ATL::_ATL_SAFE_ALLOCA_IMPL::CAtlSafeAllocBufferManager<ATL::CCRTAllocator>::~CAtlSafeAllocBufferManager<ATL::CCRTAllocator>
EXTRN	__imp__lstrlenW@4:NEAR
EXTRN	__imp__CompareStringA@24:NEAR
EXTRN	__alloca_probe:NEAR
;	COMDAT xdata$x
xdata$x	SEGMENT
$T207685 DD	0ffffffffH
	DD	FLAT:$L207680
$T207682 DD	019930520H
	DD	01H
	DD	FLAT:$T207685
	DD	2 DUP(00H)
	DD	2 DUP(00H)
; Function compile flags: /Odt
xdata$x	ENDS
;	COMDAT ?CompareStringWFake@ATL@@YGHKKPB_WH0H@Z
_TEXT	SEGMENT
tv147 = -68						; size = 4
tv142 = -64						; size = 4
tv149 = -60						; size = 4
tv89 = -56						; size = 4
tv84 = -52						; size = 4
tv91 = -48						; size = 4
$T207679 = -44						; size = 4
_pszAString1$ = -40					; size = 4
__AtlSafeAllocaManager$ = -36				; size = 4
__convert_ex$ = -32					; size = 4
__acp_ex$ = -28						; size = 4
_pszAString2$ = -24					; size = 4
__lpw_ex$ = -16						; size = 4
__$EHRec$ = -12						; size = 12
_lcid$ = 8						; size = 4
_dwFlags$ = 12						; size = 4
_pszString1$ = 16					; size = 4
_nLength1$ = 20						; size = 4
_pszString2$ = 24					; size = 4
_nLength2$ = 28						; size = 4
?CompareStringWFake@ATL@@YGHKKPB_WH0H@Z PROC NEAR	; ATL::CompareStringWFake, COMDAT

; 192  : {

  00000	55		 push	 ebp
  00001	8b ec		 mov	 ebp, esp
  00003	6a ff		 push	 -1
  00005	68 00 00 00 00	 push	 __ehhandler$?CompareStringWFake@ATL@@YGHKKPB_WH0H@Z
  0000a	64 a1 00 00 00
	00		 mov	 eax, DWORD PTR fs:__except_list
  00010	50		 push	 eax
  00011	64 89 25 00 00
	00 00		 mov	 DWORD PTR fs:__except_list, esp
  00018	83 ec 38	 sub	 esp, 56			; 00000038H

; 193  : 	USES_CONVERSION_EX;

  0001b	e8 00 00 00 00	 call	 ?_AtlGetConversionACP@ATL@@YGIXZ ; ATL::_AtlGetConversionACP
  00020	89 45 e4	 mov	 DWORD PTR __acp_ex$[ebp], eax
  00023	8d 4d dc	 lea	 ecx, DWORD PTR __AtlSafeAllocaManager$[ebp]
  00026	e8 00 00 00 00	 call	 ??0?$CAtlSafeAllocBufferManager@VCCRTAllocator@ATL@@@_ATL_SAFE_ALLOCA_IMPL@ATL@@QAE@XZ ; ATL::_ATL_SAFE_ALLOCA_IMPL::CAtlSafeAllocBufferManager<ATL::CCRTAllocator>::CAtlSafeAllocBufferManager<ATL::CCRTAllocator>
  0002b	c7 45 fc 00 00
	00 00		 mov	 DWORD PTR __$EHRec$[ebp+8], 0

; 194  : 	
; 195  : 	LPCSTR pszAString1 = NULL;

  00032	c7 45 d8 00 00
	00 00		 mov	 DWORD PTR _pszAString1$[ebp], 0

; 196  : 	if(pszString1 != NULL)

  00039	83 7d 10 00	 cmp	 DWORD PTR _pszString1$[ebp], 0
  0003d	0f 84 98 00 00
	00		 je	 $L25772

; 197  : 	{
; 198  : 		pszAString1 = W2A_EX(pszString1,_ATL_SAFE_ALLOCA_DEF_THRESHOLD);

  00043	8b 45 10	 mov	 eax, DWORD PTR _pszString1$[ebp]
  00046	89 45 f0	 mov	 DWORD PTR __lpw_ex$[ebp], eax
  00049	83 7d f0 00	 cmp	 DWORD PTR __lpw_ex$[ebp], 0
  0004d	75 09		 jne	 SHORT $L207673
  0004f	c7 45 d0 00 00
	00 00		 mov	 DWORD PTR tv91[ebp], 0
  00056	eb 6d		 jmp	 SHORT $L207674
$L207673:
  00058	8b 4d f0	 mov	 ecx, DWORD PTR __lpw_ex$[ebp]
  0005b	51		 push	 ecx
  0005c	ff 15 00 00 00
	00		 call	 DWORD PTR __imp__lstrlenW@4
  00062	8d 54 00 02	 lea	 edx, DWORD PTR [eax+eax+2]
  00066	89 55 e0	 mov	 DWORD PTR __convert_ex$[ebp], edx
  00069	81 7d e0 00 04
	00 00		 cmp	 DWORD PTR __convert_ex$[ebp], 1024 ; 00000400H
  00070	7f 2c		 jg	 SHORT $L207671
  00072	8b 45 e0	 mov	 eax, DWORD PTR __convert_ex$[ebp]
  00075	50		 push	 eax
  00076	e8 00 00 00 00	 call	 ?_AtlVerifyStackAvailable@_ATL_SAFE_ALLOCA_IMPL@ATL@@YA_NK@Z ; ATL::_ATL_SAFE_ALLOCA_IMPL::_AtlVerifyStackAvailable
  0007b	83 c4 04	 add	 esp, 4
  0007e	0f b6 c8	 movzx	 ecx, al
  00081	85 c9		 test	 ecx, ecx
  00083	74 19		 je	 SHORT $L207671
  00085	8b 45 e0	 mov	 eax, DWORD PTR __convert_ex$[ebp]
  00088	83 c0 03	 add	 eax, 3
  0008b	83 e0 fc	 and	 eax, -4			; fffffffcH
  0008e	e8 00 00 00 00	 call	 __alloca_probe
  00093	89 65 cc	 mov	 DWORD PTR tv84[ebp], esp
  00096	8b 55 cc	 mov	 edx, DWORD PTR tv84[ebp]
  00099	89 55 c8	 mov	 DWORD PTR tv89[ebp], edx
  0009c	eb 0f		 jmp	 SHORT $L207672
$L207671:
  0009e	8b 45 e0	 mov	 eax, DWORD PTR __convert_ex$[ebp]
  000a1	50		 push	 eax
  000a2	8d 4d dc	 lea	 ecx, DWORD PTR __AtlSafeAllocaManager$[ebp]
  000a5	e8 00 00 00 00	 call	 ?Allocate@?$CAtlSafeAllocBufferManager@VCCRTAllocator@ATL@@@_ATL_SAFE_ALLOCA_IMPL@ATL@@QAEPAXK@Z ; ATL::_ATL_SAFE_ALLOCA_IMPL::CAtlSafeAllocBufferManager<ATL::CCRTAllocator>::Allocate
  000aa	89 45 c8	 mov	 DWORD PTR tv89[ebp], eax
$L207672:
  000ad	8b 4d e4	 mov	 ecx, DWORD PTR __acp_ex$[ebp]
  000b0	51		 push	 ecx
  000b1	8b 55 e0	 mov	 edx, DWORD PTR __convert_ex$[ebp]
  000b4	52		 push	 edx
  000b5	8b 45 f0	 mov	 eax, DWORD PTR __lpw_ex$[ebp]
  000b8	50		 push	 eax
  000b9	8b 4d c8	 mov	 ecx, DWORD PTR tv89[ebp]
  000bc	51		 push	 ecx
  000bd	e8 00 00 00 00	 call	 ?AtlW2AHelper@@YGPADPADPB_WHI@Z ; AtlW2AHelper
  000c2	89 45 d0	 mov	 DWORD PTR tv91[ebp], eax
$L207674:
  000c5	8b 55 d0	 mov	 edx, DWORD PTR tv91[ebp]
  000c8	89 55 d8	 mov	 DWORD PTR _pszAString1$[ebp], edx

; 199  : 		if(pszAString1 == NULL)

  000cb	83 7d d8 00	 cmp	 DWORD PTR _pszAString1$[ebp], 0
  000cf	75 0a		 jne	 SHORT $L25772

; 200  : 			AtlThrow(E_OUTOFMEMORY);

  000d1	68 0e 00 07 80	 push	 -2147024882		; 8007000eH
  000d6	e8 00 00 00 00	 call	 ?AtlThrow@ATL@@YGXJ@Z	; ATL::AtlThrow
$L25772:

; 201  : 	}
; 202  : 
; 203  : 	LPCSTR pszAString2 = NULL;

  000db	c7 45 e8 00 00
	00 00		 mov	 DWORD PTR _pszAString2$[ebp], 0

; 204  : 	if(pszString2 != NULL)

  000e2	83 7d 18 00	 cmp	 DWORD PTR _pszString2$[ebp], 0
  000e6	0f 84 98 00 00
	00		 je	 $L25778

; 205  : 	{
; 206  : 		pszAString2 = W2A_EX(pszString2,_ATL_SAFE_ALLOCA_DEF_THRESHOLD);

  000ec	8b 45 18	 mov	 eax, DWORD PTR _pszString2$[ebp]
  000ef	89 45 f0	 mov	 DWORD PTR __lpw_ex$[ebp], eax
  000f2	83 7d f0 00	 cmp	 DWORD PTR __lpw_ex$[ebp], 0
  000f6	75 09		 jne	 SHORT $L207677
  000f8	c7 45 c4 00 00
	00 00		 mov	 DWORD PTR tv149[ebp], 0
  000ff	eb 6d		 jmp	 SHORT $L207678
$L207677:
  00101	8b 4d f0	 mov	 ecx, DWORD PTR __lpw_ex$[ebp]
  00104	51		 push	 ecx
  00105	ff 15 00 00 00
	00		 call	 DWORD PTR __imp__lstrlenW@4
  0010b	8d 54 00 02	 lea	 edx, DWORD PTR [eax+eax+2]
  0010f	89 55 e0	 mov	 DWORD PTR __convert_ex$[ebp], edx
  00112	81 7d e0 00 04
	00 00		 cmp	 DWORD PTR __convert_ex$[ebp], 1024 ; 00000400H
  00119	7f 2c		 jg	 SHORT $L207675
  0011b	8b 45 e0	 mov	 eax, DWORD PTR __convert_ex$[ebp]
  0011e	50		 push	 eax
  0011f	e8 00 00 00 00	 call	 ?_AtlVerifyStackAvailable@_ATL_SAFE_ALLOCA_IMPL@ATL@@YA_NK@Z ; ATL::_ATL_SAFE_ALLOCA_IMPL::_AtlVerifyStackAvailable
  00124	83 c4 04	 add	 esp, 4
  00127	0f b6 c8	 movzx	 ecx, al
  0012a	85 c9		 test	 ecx, ecx
  0012c	74 19		 je	 SHORT $L207675
  0012e	8b 45 e0	 mov	 eax, DWORD PTR __convert_ex$[ebp]
  00131	83 c0 03	 add	 eax, 3
  00134	83 e0 fc	 and	 eax, -4			; fffffffcH
  00137	e8 00 00 00 00	 call	 __alloca_probe
  0013c	89 65 c0	 mov	 DWORD PTR tv142[ebp], esp
  0013f	8b 55 c0	 mov	 edx, DWORD PTR tv142[ebp]
  00142	89 55 bc	 mov	 DWORD PTR tv147[ebp], edx
  00145	eb 0f		 jmp	 SHORT $L207676
$L207675:
  00147	8b 45 e0	 mov	 eax, DWORD PTR __convert_ex$[ebp]
  0014a	50		 push	 eax
  0014b	8d 4d dc	 lea	 ecx, DWORD PTR __AtlSafeAllocaManager$[ebp]
  0014e	e8 00 00 00 00	 call	 ?Allocate@?$CAtlSafeAllocBufferManager@VCCRTAllocator@ATL@@@_ATL_SAFE_ALLOCA_IMPL@ATL@@QAEPAXK@Z ; ATL::_ATL_SAFE_ALLOCA_IMPL::CAtlSafeAllocBufferManager<ATL::CCRTAllocator>::Allocate
  00153	89 45 bc	 mov	 DWORD PTR tv147[ebp], eax
$L207676:
  00156	8b 4d e4	 mov	 ecx, DWORD PTR __acp_ex$[ebp]
  00159	51		 push	 ecx
  0015a	8b 55 e0	 mov	 edx, DWORD PTR __convert_ex$[ebp]
  0015d	52		 push	 edx
  0015e	8b 45 f0	 mov	 eax, DWORD PTR __lpw_ex$[ebp]
  00161	50		 push	 eax
  00162	8b 4d bc	 mov	 ecx, DWORD PTR tv147[ebp]
  00165	51		 push	 ecx
  00166	e8 00 00 00 00	 call	 ?AtlW2AHelper@@YGPADPADPB_WHI@Z ; AtlW2AHelper
  0016b	89 45 c4	 mov	 DWORD PTR tv149[ebp], eax
$L207678:
  0016e	8b 55 c4	 mov	 edx, DWORD PTR tv149[ebp]
  00171	89 55 e8	 mov	 DWORD PTR _pszAString2$[ebp], edx

; 207  : 		if(pszAString2 == NULL)

  00174	83 7d e8 00	 cmp	 DWORD PTR _pszAString2$[ebp], 0
  00178	75 0a		 jne	 SHORT $L25778

; 208  : 			AtlThrow(E_OUTOFMEMORY);

  0017a	68 0e 00 07 80	 push	 -2147024882		; 8007000eH
  0017f	e8 00 00 00 00	 call	 ?AtlThrow@ATL@@YGXJ@Z	; ATL::AtlThrow
$L25778:

; 209  : 	}
; 210  : 
; 211  : 	return ::CompareStringA(lcid, dwFlags, pszAString1, nLength1, pszAString2, nLength2);

  00184	8b 45 1c	 mov	 eax, DWORD PTR _nLength2$[ebp]
  00187	50		 push	 eax
  00188	8b 4d e8	 mov	 ecx, DWORD PTR _pszAString2$[ebp]
  0018b	51		 push	 ecx
  0018c	8b 55 14	 mov	 edx, DWORD PTR _nLength1$[ebp]
  0018f	52		 push	 edx
  00190	8b 45 d8	 mov	 eax, DWORD PTR _pszAString1$[ebp]
  00193	50		 push	 eax
  00194	8b 4d 0c	 mov	 ecx, DWORD PTR _dwFlags$[ebp]
  00197	51		 push	 ecx
  00198	8b 55 08	 mov	 edx, DWORD PTR _lcid$[ebp]
  0019b	52		 push	 edx
  0019c	ff 15 00 00 00
	00		 call	 DWORD PTR __imp__CompareStringA@24
  001a2	89 45 d4	 mov	 DWORD PTR $T207679[ebp], eax
  001a5	c7 45 fc ff ff
	ff ff		 mov	 DWORD PTR __$EHRec$[ebp+8], -1
  001ac	8d 4d dc	 lea	 ecx, DWORD PTR __AtlSafeAllocaManager$[ebp]
  001af	e8 00 00 00 00	 call	 ??1?$CAtlSafeAllocBufferManager@VCCRTAllocator@ATL@@@_ATL_SAFE_ALLOCA_IMPL@ATL@@QAE@XZ ; ATL::_ATL_SAFE_ALLOCA_IMPL::CAtlSafeAllocBufferManager<ATL::CCRTAllocator>::~CAtlSafeAllocBufferManager<ATL::CCRTAllocator>
  001b4	8b 45 d4	 mov	 eax, DWORD PTR $T207679[ebp]
$L207670:

; 212  : }

  001b7	8d 65 bc	 lea	 esp, DWORD PTR [ebp-68]
  001ba	8b 4d f4	 mov	 ecx, DWORD PTR __$EHRec$[ebp]
  001bd	64 89 0d 00 00
	00 00		 mov	 DWORD PTR fs:__except_list, ecx
  001c4	8b e5		 mov	 esp, ebp
  001c6	5d		 pop	 ebp
  001c7	c2 18 00	 ret	 24			; 00000018H
_TEXT	ENDS
;	COMDAT text$x
text$x	SEGMENT
$L207680:
  00000	8d 4d dc	 lea	 ecx, DWORD PTR __AtlSafeAllocaManager$[ebp]
  00003	e9 00 00 00 00	 jmp	 ??1?$CAtlSafeAllocBufferManager@VCCRTAllocator@ATL@@@_ATL_SAFE_ALLOCA_IMPL@ATL@@QAE@XZ ; ATL::_ATL_SAFE_ALLOCA_IMPL::CAtlSafeAllocBufferManager<ATL::CCRTAllocator>::~CAtlSafeAllocBufferManager<ATL::CCRTAllocator>
__ehhandler$?CompareStringWFake@ATL@@YGHKKPB_WH0H@Z:
  00008	b8 00 00 00 00	 mov	 eax, OFFSET FLAT:$T207682
  0000d	e9 00 00 00 00	 jmp	 ___CxxFrameHandler
text$x	ENDS
?CompareStringWFake@ATL@@YGHKKPB_WH0H@Z ENDP		; ATL::CompareStringWFake
EXTRN	__imp___resetstkoflw:NEAR
EXTRN	__except_handler3:NEAR
;	COMDAT CONST
; File d:\program files (x86)\microsoft visual studio .net 2003\vc7\atlmfc\include\atlalloc.h
CONST	SEGMENT
$T207696 DD	0ffffffffH
	DD	FLAT:$L207691
	DD	FLAT:$L207692
; Function compile flags: /Odt
CONST	ENDS
;	COMDAT ?_AtlVerifyStackAvailable@_ATL_SAFE_ALLOCA_IMPL@ATL@@YA_NK@Z
_TEXT	SEGMENT
tv65 = -40						; size = 4
$T207695 = -36						; size = 4
_p$24118 = -32						; size = 4
_bStackAvailable$ = -25					; size = 1
__$SEHRec$ = -24					; size = 24
_Size$ = 8						; size = 4
?_AtlVerifyStackAvailable@_ATL_SAFE_ALLOCA_IMPL@ATL@@YA_NK@Z PROC NEAR ; ATL::_ATL_SAFE_ALLOCA_IMPL::_AtlVerifyStackAvailable, COMDAT

; 331  : {

  00000	55		 push	 ebp
  00001	8b ec		 mov	 ebp, esp
  00003	6a ff		 push	 -1
  00005	68 00 00 00 00	 push	 OFFSET FLAT:$T207696
  0000a	68 00 00 00 00	 push	 OFFSET FLAT:__except_handler3
  0000f	64 a1 00 00 00
	00		 mov	 eax, DWORD PTR fs:__except_list
  00015	50		 push	 eax
  00016	64 89 25 00 00
	00 00		 mov	 DWORD PTR fs:__except_list, esp
  0001d	83 c4 e8	 add	 esp, -24		; ffffffe8H
  00020	53		 push	 ebx
  00021	56		 push	 esi
  00022	57		 push	 edi
  00023	89 65 e8	 mov	 DWORD PTR __$SEHRec$[ebp], esp

; 332  :     bool bStackAvailable = true;

  00026	c6 45 e7 01	 mov	 BYTE PTR _bStackAvailable$[ebp], 1

; 333  : 
; 334  :     __try

  0002a	c7 45 fc 00 00
	00 00		 mov	 DWORD PTR __$SEHRec$[ebp+20], 0

; 335  :     {
; 336  :         PVOID p = _alloca(Size + _ATL_STACK_MARGIN);

  00031	8b 45 08	 mov	 eax, DWORD PTR _Size$[ebp]
  00034	05 03 20 00 00	 add	 eax, 8195		; 00002003H
  00039	83 e0 fc	 and	 eax, -4			; fffffffcH
  0003c	e8 00 00 00 00	 call	 __alloca_probe
  00041	89 65 d8	 mov	 DWORD PTR tv65[ebp], esp
  00044	89 65 e8	 mov	 DWORD PTR __$SEHRec$[ebp], esp
  00047	8b 45 d8	 mov	 eax, DWORD PTR tv65[ebp]
  0004a	89 45 e0	 mov	 DWORD PTR _p$24118[ebp], eax
  0004d	c7 45 fc ff ff
	ff ff		 mov	 DWORD PTR __$SEHRec$[ebp+20], -1
  00054	eb 2c		 jmp	 SHORT $L207694
$L207691:
$L207700:

; 337  :         (p);
; 338  :     }
; 339  :     __except ((EXCEPTION_STACK_OVERFLOW == GetExceptionCode()) ?
; 340  :                    EXCEPTION_EXECUTE_HANDLER :
; 341  :                    EXCEPTION_CONTINUE_SEARCH)

  00056	8b 4d ec	 mov	 ecx, DWORD PTR __$SEHRec$[ebp+4]
  00059	8b 11		 mov	 edx, DWORD PTR [ecx]
  0005b	8b 02		 mov	 eax, DWORD PTR [edx]
  0005d	89 45 dc	 mov	 DWORD PTR $T207695[ebp], eax
  00060	8b 45 dc	 mov	 eax, DWORD PTR $T207695[ebp]
  00063	2d fd 00 00 c0	 sub	 eax, -1073741571	; c00000fdH
  00068	f7 d8		 neg	 eax
  0006a	1b c0		 sbb	 eax, eax
  0006c	40		 inc	 eax
$L207693:
$L207699:
  0006d	c3		 ret	 0
$L207692:
  0006e	8b 65 e8	 mov	 esp, DWORD PTR __$SEHRec$[ebp]

; 342  :     {
; 343  :         bStackAvailable = false;

  00071	c6 45 e7 00	 mov	 BYTE PTR _bStackAvailable$[ebp], 0

; 344  :         _resetstkoflw();

  00075	ff 15 00 00 00
	00		 call	 DWORD PTR __imp___resetstkoflw
  0007b	c7 45 fc ff ff
	ff ff		 mov	 DWORD PTR __$SEHRec$[ebp+20], -1
$L207694:

; 345  :     }
; 346  :     return bStackAvailable;

  00082	8a 45 e7	 mov	 al, BYTE PTR _bStackAvailable$[ebp]
$L207690:

; 347  : }

  00085	8d 65 cc	 lea	 esp, DWORD PTR [ebp-52]
  00088	8b 4d f0	 mov	 ecx, DWORD PTR __$SEHRec$[ebp+8]
  0008b	64 89 0d 00 00
	00 00		 mov	 DWORD PTR fs:__except_list, ecx
  00092	5f		 pop	 edi
  00093	5e		 pop	 esi
  00094	5b		 pop	 ebx
  00095	8b e5		 mov	 esp, ebp
  00097	5d		 pop	 ebp
  00098	c3		 ret	 0
?_AtlVerifyStackAvailable@_ATL_SAFE_ALLOCA_IMPL@ATL@@YA_NK@Z ENDP ; ATL::_ATL_SAFE_ALLOCA_IMPL::_AtlVerifyStackAvailable
_TEXT	ENDS
EXTRN	__imp__WideCharToMultiByte@32:NEAR
; Function compile flags: /Odt
; File d:\program files (x86)\microsoft visual studio .net 2003\vc7\atlmfc\include\atlconv.h
;	COMDAT ?AtlW2AHelper@@YGPADPADPB_WHI@Z
_TEXT	SEGMENT
_ret$ = -4						; size = 4
_lpa$ = 8						; size = 4
_lpw$ = 12						; size = 4
_nChars$ = 16						; size = 4
_acp$ = 20						; size = 4
?AtlW2AHelper@@YGPADPADPB_WHI@Z PROC NEAR		; AtlW2AHelper, COMDAT

; 573  : {

  00000	55		 push	 ebp
  00001	8b ec		 mov	 ebp, esp
  00003	51		 push	 ecx

; 574  : 	ATLASSERT(lpw != NULL);
; 575  : 	ATLASSERT(lpa != NULL);
; 576  : 	if (lpa == NULL || lpw == NULL)

  00004	83 7d 08 00	 cmp	 DWORD PTR _lpa$[ebp], 0
  00008	74 06		 je	 SHORT $L24319
  0000a	83 7d 0c 00	 cmp	 DWORD PTR _lpw$[ebp], 0
  0000e	75 04		 jne	 SHORT $L24318
$L24319:

; 577  : 		return NULL;

  00010	33 c0		 xor	 eax, eax
  00012	eb 34		 jmp	 SHORT $L24315
$L24318:

; 578  : 	// verify that no illegal character present
; 579  : 	// since lpa was allocated based on the size of lpw
; 580  : 	// don't worry about the number of chars
; 581  : 	lpa[0] = '\0';

  00014	8b 45 08	 mov	 eax, DWORD PTR _lpa$[ebp]
  00017	c6 00 00	 mov	 BYTE PTR [eax], 0

; 582  : 	int ret = WideCharToMultiByte(acp, 0, lpw, -1, lpa, nChars, NULL, NULL);

  0001a	6a 00		 push	 0
  0001c	6a 00		 push	 0
  0001e	8b 4d 10	 mov	 ecx, DWORD PTR _nChars$[ebp]
  00021	51		 push	 ecx
  00022	8b 55 08	 mov	 edx, DWORD PTR _lpa$[ebp]
  00025	52		 push	 edx
  00026	6a ff		 push	 -1
  00028	8b 45 0c	 mov	 eax, DWORD PTR _lpw$[ebp]
  0002b	50		 push	 eax
  0002c	6a 00		 push	 0
  0002e	8b 4d 14	 mov	 ecx, DWORD PTR _acp$[ebp]
  00031	51		 push	 ecx
  00032	ff 15 00 00 00
	00		 call	 DWORD PTR __imp__WideCharToMultiByte@32
  00038	89 45 fc	 mov	 DWORD PTR _ret$[ebp], eax

; 583  : 	if(ret == 0)

  0003b	83 7d fc 00	 cmp	 DWORD PTR _ret$[ebp], 0
  0003f	75 04		 jne	 SHORT $L24321

; 584  : 	{
; 585  : 		ATLASSERT(FALSE);
; 586  : 		return NULL;

  00041	33 c0		 xor	 eax, eax
  00043	eb 03		 jmp	 SHORT $L24315
$L24321:

; 587  : 	}
; 588  : 	return lpa;

  00045	8b 45 08	 mov	 eax, DWORD PTR _lpa$[ebp]
$L24315:

; 589  : }

  00048	8b e5		 mov	 esp, ebp
  0004a	5d		 pop	 ebp
  0004b	c2 10 00	 ret	 16			; 00000010H
?AtlW2AHelper@@YGPADPADPB_WHI@Z ENDP			; AtlW2AHelper
_TEXT	ENDS
EXTRN	?AfxThrowMemoryException@@YGXXZ:NEAR		; AfxThrowMemoryException
EXTRN	?AfxThrowOleException@@YGXJ@Z:NEAR		; AfxThrowOleException
; Function compile flags: /Odt
; File d:\program files (x86)\microsoft visual studio .net 2003\vc7\atlmfc\include\atlexcept.h
;	COMDAT ?AtlThrow@ATL@@YGXJ@Z
_TEXT	SEGMENT
_hr$ = 8						; size = 4
?AtlThrow@ATL@@YGXJ@Z PROC NEAR				; ATL::AtlThrow, COMDAT

; 61   : {

  00000	55		 push	 ebp
  00001	8b ec		 mov	 ebp, esp

; 62   : 	ATLTRACE(atlTraceException, 0, _T("AtlThrow: hr = 0x%x\n"), hr );
; 63   : #ifdef _AFX
; 64   : 	if( hr == E_OUTOFMEMORY )

  00003	81 7d 08 0e 00
	07 80		 cmp	 DWORD PTR _hr$[ebp], -2147024882 ; 8007000eH
  0000a	75 05		 jne	 SHORT $L24681

; 65   : 	{
; 66   : 		AfxThrowMemoryException();

  0000c	e8 00 00 00 00	 call	 ?AfxThrowMemoryException@@YGXXZ ; AfxThrowMemoryException
$L24681:

; 67   : 	}
; 68   : 	else
; 69   : 	{
; 70   : 		AfxThrowOleException( hr );

  00011	8b 45 08	 mov	 eax, DWORD PTR _hr$[ebp]
  00014	50		 push	 eax
  00015	e8 00 00 00 00	 call	 ?AfxThrowOleException@@YGXJ@Z ; AfxThrowOleException
$L207706:

; 71   : 	}
; 72   : #else
; 73   : 	throw CAtlException( hr );
; 74   : #endif
; 75   : };

  0001a	5d		 pop	 ebp
  0001b	c2 04 00	 ret	 4
?AtlThrow@ATL@@YGXJ@Z ENDP				; ATL::AtlThrow
_TEXT	ENDS
PUBLIC	?GetStringTypeExWFake@ATL@@YGHKKPB_WHPAG@Z	; ATL::GetStringTypeExWFake
EXTRN	__imp__GetStringTypeExW@20:NEAR
; Function compile flags: /Odt
; File d:\program files (x86)\microsoft visual studio .net 2003\vc7\atlmfc\include\cstringt.h
;	COMDAT ?GetStringTypeExWThunk@ATL@@YGHKKPB_WHPAG@Z
_TEXT	SEGMENT
_lcid$ = 8						; size = 4
_dwInfoType$ = 12					; size = 4
_pszSrc$ = 16						; size = 4
_nLength$ = 20						; size = 4
_pwCharType$ = 24					; size = 4
?GetStringTypeExWThunk@ATL@@YGHKKPB_WHPAG@Z PROC NEAR	; ATL::GetStringTypeExWThunk, COMDAT

; 240  : {

  00000	55		 push	 ebp
  00001	8b ec		 mov	 ebp, esp

; 241  : 	_AtlInstallStringThunk(reinterpret_cast<void**>(&_strthunks.pfnGetStringTypeExW), GetStringTypeExWFake, ::GetStringTypeExW);

  00003	a1 00 00 00 00	 mov	 eax, DWORD PTR __imp__GetStringTypeExW@20
  00008	50		 push	 eax
  00009	68 00 00 00 00	 push	 OFFSET FLAT:?GetStringTypeExWFake@ATL@@YGHKKPB_WHPAG@Z ; ATL::GetStringTypeExWFake
  0000e	68 04 00 00 00	 push	 OFFSET FLAT:?_strthunks@ATL@@3U_AtlStringThunks@1@A+4
  00013	e8 00 00 00 00	 call	 ?_AtlInstallStringThunk@ATL@@YAXPAPAXPAX1@Z ; ATL::_AtlInstallStringThunk
  00018	83 c4 0c	 add	 esp, 12			; 0000000cH

; 242  : 
; 243  : 	return _strthunks.pfnGetStringTypeExW(lcid, dwInfoType, pszSrc, nLength, pwCharType);

  0001b	8b 4d 18	 mov	 ecx, DWORD PTR _pwCharType$[ebp]
  0001e	51		 push	 ecx
  0001f	8b 55 14	 mov	 edx, DWORD PTR _nLength$[ebp]
  00022	52		 push	 edx
  00023	8b 45 10	 mov	 eax, DWORD PTR _pszSrc$[ebp]
  00026	50		 push	 eax
  00027	8b 4d 0c	 mov	 ecx, DWORD PTR _dwInfoType$[ebp]
  0002a	51		 push	 ecx
  0002b	8b 55 08	 mov	 edx, DWORD PTR _lcid$[ebp]
  0002e	52		 push	 edx
  0002f	ff 15 04 00 00
	00		 call	 DWORD PTR ?_strthunks@ATL@@3U_AtlStringThunks@1@A+4

; 244  : }

  00035	5d		 pop	 ebp
  00036	c2 14 00	 ret	 20			; 00000014H
?GetStringTypeExWThunk@ATL@@YGHKKPB_WHPAG@Z ENDP	; ATL::GetStringTypeExWThunk
_TEXT	ENDS
EXTRN	__imp__GetStringTypeExA@20:NEAR
;	COMDAT xdata$x
xdata$x	SEGMENT
$T207718 DD	0ffffffffH
	DD	FLAT:$L207713
$T207715 DD	019930520H
	DD	01H
	DD	FLAT:$T207718
	DD	2 DUP(00H)
	DD	2 DUP(00H)
; Function compile flags: /Odt
xdata$x	ENDS
;	COMDAT ?GetStringTypeExWFake@ATL@@YGHKKPB_WHPAG@Z
_TEXT	SEGMENT
$T207712 = -164						; size = 4
_nLengthA$ = -160					; size = 4
_pszA$ = -156						; size = 132
__$ArrayPad$ = -16					; size = 4
__$EHRec$ = -12						; size = 12
__$ReturnAddr$ = 4					; size = 4
_lcid$ = 8						; size = 4
_dwInfoType$ = 12					; size = 4
_pszSrc$ = 16						; size = 4
_nLength$ = 20						; size = 4
_pwCharType$ = 24					; size = 4
?GetStringTypeExWFake@ATL@@YGHKKPB_WHPAG@Z PROC NEAR	; ATL::GetStringTypeExWFake, COMDAT

; 224  : {

  00000	55		 push	 ebp
  00001	8b ec		 mov	 ebp, esp
  00003	6a ff		 push	 -1
  00005	68 00 00 00 00	 push	 __ehhandler$?GetStringTypeExWFake@ATL@@YGHKKPB_WHPAG@Z
  0000a	64 a1 00 00 00
	00		 mov	 eax, DWORD PTR fs:__except_list
  00010	50		 push	 eax
  00011	64 89 25 00 00
	00 00		 mov	 DWORD PTR fs:__except_list, esp
  00018	81 ec 98 00 00
	00		 sub	 esp, 152		; 00000098H
  0001e	a1 00 00 00 00	 mov	 eax, DWORD PTR ___security_cookie
  00023	89 45 f0	 mov	 DWORD PTR __$ArrayPad$[ebp], eax

; 225  : 	int nLengthA;
; 226  : 	CTempBuffer<char> pszA;

  00026	8d 8d 64 ff ff
	ff		 lea	 ecx, DWORD PTR _pszA$[ebp]
  0002c	e8 00 00 00 00	 call	 ??0?$CTempBuffer@D$0IA@VCCRTAllocator@ATL@@@ATL@@QAE@XZ ; ATL::CTempBuffer<char,128,ATL::CCRTAllocator>::CTempBuffer<char,128,ATL::CCRTAllocator>
  00031	c7 45 fc 00 00
	00 00		 mov	 DWORD PTR __$EHRec$[ebp+8], 0

; 227  : 
; 228  : 	nLengthA = ::WideCharToMultiByte(_AtlGetConversionACP(), 0, pszSrc, nLength, NULL, 0, NULL, NULL);

  00038	6a 00		 push	 0
  0003a	6a 00		 push	 0
  0003c	6a 00		 push	 0
  0003e	6a 00		 push	 0
  00040	8b 45 14	 mov	 eax, DWORD PTR _nLength$[ebp]
  00043	50		 push	 eax
  00044	8b 4d 10	 mov	 ecx, DWORD PTR _pszSrc$[ebp]
  00047	51		 push	 ecx
  00048	6a 00		 push	 0
  0004a	e8 00 00 00 00	 call	 ?_AtlGetConversionACP@ATL@@YGIXZ ; ATL::_AtlGetConversionACP
  0004f	50		 push	 eax
  00050	ff 15 00 00 00
	00		 call	 DWORD PTR __imp__WideCharToMultiByte@32
  00056	89 85 60 ff ff
	ff		 mov	 DWORD PTR _nLengthA$[ebp], eax

; 229  : 	pszA.Allocate(nLengthA);

  0005c	8b 95 60 ff ff
	ff		 mov	 edx, DWORD PTR _nLengthA$[ebp]
  00062	52		 push	 edx
  00063	8d 8d 64 ff ff
	ff		 lea	 ecx, DWORD PTR _pszA$[ebp]
  00069	e8 00 00 00 00	 call	 ?Allocate@?$CTempBuffer@D$0IA@VCCRTAllocator@ATL@@@ATL@@QAEPADI@Z ; ATL::CTempBuffer<char,128,ATL::CCRTAllocator>::Allocate

; 230  : 	::WideCharToMultiByte(_AtlGetConversionACP(), 0, pszSrc, nLength, pszA, nLengthA, NULL, NULL);

  0006e	6a 00		 push	 0
  00070	6a 00		 push	 0
  00072	8b 85 60 ff ff
	ff		 mov	 eax, DWORD PTR _nLengthA$[ebp]
  00078	50		 push	 eax
  00079	8d 8d 64 ff ff
	ff		 lea	 ecx, DWORD PTR _pszA$[ebp]
  0007f	e8 00 00 00 00	 call	 ??B?$CTempBuffer@D$0IA@VCCRTAllocator@ATL@@@ATL@@QBEPADXZ ; ATL::CTempBuffer<char,128,ATL::CCRTAllocator>::operator char *
  00084	50		 push	 eax
  00085	8b 4d 14	 mov	 ecx, DWORD PTR _nLength$[ebp]
  00088	51		 push	 ecx
  00089	8b 55 10	 mov	 edx, DWORD PTR _pszSrc$[ebp]
  0008c	52		 push	 edx
  0008d	6a 00		 push	 0
  0008f	e8 00 00 00 00	 call	 ?_AtlGetConversionACP@ATL@@YGIXZ ; ATL::_AtlGetConversionACP
  00094	50		 push	 eax
  00095	ff 15 00 00 00
	00		 call	 DWORD PTR __imp__WideCharToMultiByte@32

; 231  : 
; 232  : 	if (nLength == -1)

  0009b	83 7d 14 ff	 cmp	 DWORD PTR _nLength$[ebp], -1
  0009f	75 0a		 jne	 SHORT $L25804

; 233  : 		nLengthA = -1;

  000a1	c7 85 60 ff ff
	ff ff ff ff ff	 mov	 DWORD PTR _nLengthA$[ebp], -1
$L25804:

; 234  : 
; 235  : 	return ::GetStringTypeExA(lcid, dwInfoType, pszA, nLengthA, pwCharType);

  000ab	8b 45 18	 mov	 eax, DWORD PTR _pwCharType$[ebp]
  000ae	50		 push	 eax
  000af	8b 8d 60 ff ff
	ff		 mov	 ecx, DWORD PTR _nLengthA$[ebp]
  000b5	51		 push	 ecx
  000b6	8d 8d 64 ff ff
	ff		 lea	 ecx, DWORD PTR _pszA$[ebp]
  000bc	e8 00 00 00 00	 call	 ??B?$CTempBuffer@D$0IA@VCCRTAllocator@ATL@@@ATL@@QBEPADXZ ; ATL::CTempBuffer<char,128,ATL::CCRTAllocator>::operator char *
  000c1	50		 push	 eax
  000c2	8b 55 0c	 mov	 edx, DWORD PTR _dwInfoType$[ebp]
  000c5	52		 push	 edx
  000c6	8b 45 08	 mov	 eax, DWORD PTR _lcid$[ebp]
  000c9	50		 push	 eax
  000ca	ff 15 00 00 00
	00		 call	 DWORD PTR __imp__GetStringTypeExA@20
  000d0	89 85 5c ff ff
	ff		 mov	 DWORD PTR $T207712[ebp], eax
  000d6	c7 45 fc ff ff
	ff ff		 mov	 DWORD PTR __$EHRec$[ebp+8], -1
  000dd	8d 8d 64 ff ff
	ff		 lea	 ecx, DWORD PTR _pszA$[ebp]
  000e3	e8 00 00 00 00	 call	 ??1?$CTempBuffer@D$0IA@VCCRTAllocator@ATL@@@ATL@@QAE@XZ ; ATL::CTempBuffer<char,128,ATL::CCRTAllocator>::~CTempBuffer<char,128,ATL::CCRTAllocator>
  000e8	8b 85 5c ff ff
	ff		 mov	 eax, DWORD PTR $T207712[ebp]

; 236  : }

  000ee	8b 4d f4	 mov	 ecx, DWORD PTR __$EHRec$[ebp]
  000f1	64 89 0d 00 00
	00 00		 mov	 DWORD PTR fs:__except_list, ecx
  000f8	8b 4d f0	 mov	 ecx, DWORD PTR __$ArrayPad$[ebp]
  000fb	e8 00 00 00 00	 call	 @__security_check_cookie@4
  00100	8b e5		 mov	 esp, ebp
  00102	5d		 pop	 ebp
  00103	c2 14 00	 ret	 20			; 00000014H
_TEXT	ENDS
;	COMDAT text$x
text$x	SEGMENT
$L207713:
  00000	8d 8d 64 ff ff
	ff		 lea	 ecx, DWORD PTR _pszA$[ebp]
  00006	e9 00 00 00 00	 jmp	 ??1?$CTempBuffer@D$0IA@VCCRTAllocator@ATL@@@ATL@@QAE@XZ ; ATL::CTempBuffer<char,128,ATL::CCRTAllocator>::~CTempBuffer<char,128,ATL::CCRTAllocator>
__ehhandler$?GetStringTypeExWFake@ATL@@YGHKKPB_WHPAG@Z:
  0000b	b8 00 00 00 00	 mov	 eax, OFFSET FLAT:$T207715
  00010	e9 00 00 00 00	 jmp	 ___CxxFrameHandler
text$x	ENDS
?GetStringTypeExWFake@ATL@@YGHKKPB_WHPAG@Z ENDP		; ATL::GetStringTypeExWFake
PUBLIC	?lstrcmpiWFake@ATL@@YGHPB_W0@Z			; ATL::lstrcmpiWFake
EXTRN	__imp__lstrcmpiW@8:NEAR
; Function compile flags: /Odt
;	COMDAT ?lstrcmpiWThunk@ATL@@YGHPB_W0@Z
_TEXT	SEGMENT
_psz1$ = 8						; size = 4
_psz2$ = 12						; size = 4
?lstrcmpiWThunk@ATL@@YGHPB_W0@Z PROC NEAR		; ATL::lstrcmpiWThunk, COMDAT

; 254  : {

  00000	55		 push	 ebp
  00001	8b ec		 mov	 ebp, esp

; 255  : 	_AtlInstallStringThunk(reinterpret_cast<void**>(&_strthunks.pfnlstrcmpiW), lstrcmpiWFake, ::lstrcmpiW);

  00003	a1 00 00 00 00	 mov	 eax, DWORD PTR __imp__lstrcmpiW@8
  00008	50		 push	 eax
  00009	68 00 00 00 00	 push	 OFFSET FLAT:?lstrcmpiWFake@ATL@@YGHPB_W0@Z ; ATL::lstrcmpiWFake
  0000e	68 08 00 00 00	 push	 OFFSET FLAT:?_strthunks@ATL@@3U_AtlStringThunks@1@A+8
  00013	e8 00 00 00 00	 call	 ?_AtlInstallStringThunk@ATL@@YAXPAPAXPAX1@Z ; ATL::_AtlInstallStringThunk
  00018	83 c4 0c	 add	 esp, 12			; 0000000cH

; 256  : 
; 257  : 	return _strthunks.pfnlstrcmpiW(psz1, psz2);

  0001b	8b 4d 0c	 mov	 ecx, DWORD PTR _psz2$[ebp]
  0001e	51		 push	 ecx
  0001f	8b 55 08	 mov	 edx, DWORD PTR _psz1$[ebp]
  00022	52		 push	 edx
  00023	ff 15 08 00 00
	00		 call	 DWORD PTR ?_strthunks@ATL@@3U_AtlStringThunks@1@A+8

; 258  : }

  00029	5d		 pop	 ebp
  0002a	c2 08 00	 ret	 8
?lstrcmpiWThunk@ATL@@YGHPB_W0@Z ENDP			; ATL::lstrcmpiWThunk
_TEXT	ENDS
EXTRN	__imp__lstrcmpiA@8:NEAR
; Function compile flags: /Odt
;	COMDAT ?lstrcmpiWFake@ATL@@YGHPB_W0@Z
_TEXT	SEGMENT
tv91 = -32						; size = 4
tv94 = -28						; size = 4
tv76 = -24						; size = 4
tv79 = -20						; size = 4
__acp$ = -12						; size = 4
__lpw$ = -8						; size = 4
__convert$ = -4						; size = 4
_psz1$ = 8						; size = 4
_psz2$ = 12						; size = 4
?lstrcmpiWFake@ATL@@YGHPB_W0@Z PROC NEAR		; ATL::lstrcmpiWFake, COMDAT

; 247  : {

  00000	55		 push	 ebp
  00001	8b ec		 mov	 ebp, esp
  00003	83 ec 20	 sub	 esp, 32			; 00000020H

; 248  : 	USES_CONVERSION;

  00006	e8 00 00 00 00	 call	 ?_AtlGetConversionACP@ATL@@YGIXZ ; ATL::_AtlGetConversionACP
  0000b	89 45 f4	 mov	 DWORD PTR __acp$[ebp], eax

; 249  : 
; 250  : 	return ::lstrcmpiA(W2A(psz1), W2A(psz2));

  0000e	8b 45 0c	 mov	 eax, DWORD PTR _psz2$[ebp]
  00011	89 45 f8	 mov	 DWORD PTR __lpw$[ebp], eax
  00014	83 7d f8 00	 cmp	 DWORD PTR __lpw$[ebp], 0
  00018	75 09		 jne	 SHORT $L207725
  0001a	c7 45 ec 00 00
	00 00		 mov	 DWORD PTR tv79[ebp], 0
  00021	eb 3a		 jmp	 SHORT $L207726
$L207725:
  00023	8b 4d f8	 mov	 ecx, DWORD PTR __lpw$[ebp]
  00026	51		 push	 ecx
  00027	ff 15 00 00 00
	00		 call	 DWORD PTR __imp__lstrlenW@4
  0002d	8d 54 00 02	 lea	 edx, DWORD PTR [eax+eax+2]
  00031	89 55 fc	 mov	 DWORD PTR __convert$[ebp], edx
  00034	8b 45 fc	 mov	 eax, DWORD PTR __convert$[ebp]
  00037	83 c0 03	 add	 eax, 3
  0003a	83 e0 fc	 and	 eax, -4			; fffffffcH
  0003d	e8 00 00 00 00	 call	 __alloca_probe
  00042	89 65 e8	 mov	 DWORD PTR tv76[ebp], esp
  00045	8b 45 f4	 mov	 eax, DWORD PTR __acp$[ebp]
  00048	50		 push	 eax
  00049	8b 4d fc	 mov	 ecx, DWORD PTR __convert$[ebp]
  0004c	51		 push	 ecx
  0004d	8b 55 f8	 mov	 edx, DWORD PTR __lpw$[ebp]
  00050	52		 push	 edx
  00051	8b 45 e8	 mov	 eax, DWORD PTR tv76[ebp]
  00054	50		 push	 eax
  00055	e8 00 00 00 00	 call	 ?AtlW2AHelper@@YGPADPADPB_WHI@Z ; AtlW2AHelper
  0005a	89 45 ec	 mov	 DWORD PTR tv79[ebp], eax
$L207726:
  0005d	8b 4d 08	 mov	 ecx, DWORD PTR _psz1$[ebp]
  00060	89 4d f8	 mov	 DWORD PTR __lpw$[ebp], ecx
  00063	83 7d f8 00	 cmp	 DWORD PTR __lpw$[ebp], 0
  00067	75 09		 jne	 SHORT $L207727
  00069	c7 45 e4 00 00
	00 00		 mov	 DWORD PTR tv94[ebp], 0
  00070	eb 3a		 jmp	 SHORT $L207728
$L207727:
  00072	8b 55 f8	 mov	 edx, DWORD PTR __lpw$[ebp]
  00075	52		 push	 edx
  00076	ff 15 00 00 00
	00		 call	 DWORD PTR __imp__lstrlenW@4
  0007c	8d 44 00 02	 lea	 eax, DWORD PTR [eax+eax+2]
  00080	89 45 fc	 mov	 DWORD PTR __convert$[ebp], eax
  00083	8b 45 fc	 mov	 eax, DWORD PTR __convert$[ebp]
  00086	83 c0 03	 add	 eax, 3
  00089	83 e0 fc	 and	 eax, -4			; fffffffcH
  0008c	e8 00 00 00 00	 call	 __alloca_probe
  00091	89 65 e0	 mov	 DWORD PTR tv91[ebp], esp
  00094	8b 4d f4	 mov	 ecx, DWORD PTR __acp$[ebp]
  00097	51		 push	 ecx
  00098	8b 55 fc	 mov	 edx, DWORD PTR __convert$[ebp]
  0009b	52		 push	 edx
  0009c	8b 45 f8	 mov	 eax, DWORD PTR __lpw$[ebp]
  0009f	50		 push	 eax
  000a0	8b 4d e0	 mov	 ecx, DWORD PTR tv91[ebp]
  000a3	51		 push	 ecx
  000a4	e8 00 00 00 00	 call	 ?AtlW2AHelper@@YGPADPADPB_WHI@Z ; AtlW2AHelper
  000a9	89 45 e4	 mov	 DWORD PTR tv94[ebp], eax
$L207728:
  000ac	8b 55 ec	 mov	 edx, DWORD PTR tv79[ebp]
  000af	52		 push	 edx
  000b0	8b 45 e4	 mov	 eax, DWORD PTR tv94[ebp]
  000b3	50		 push	 eax
  000b4	ff 15 00 00 00
	00		 call	 DWORD PTR __imp__lstrcmpiA@8

; 251  : }

  000ba	8d 65 e0	 lea	 esp, DWORD PTR [ebp-32]
  000bd	8b e5		 mov	 esp, ebp
  000bf	5d		 pop	 ebp
  000c0	c2 08 00	 ret	 8
?lstrcmpiWFake@ATL@@YGHPB_W0@Z ENDP			; ATL::lstrcmpiWFake
_TEXT	ENDS
PUBLIC	?CharLowerWFake@ATL@@YGPA_WPA_W@Z		; ATL::CharLowerWFake
EXTRN	__imp__CharLowerW@4:NEAR
; Function compile flags: /Odt
;	COMDAT ?CharLowerWThunk@ATL@@YGPA_WPA_W@Z
_TEXT	SEGMENT
_psz$ = 8						; size = 4
?CharLowerWThunk@ATL@@YGPA_WPA_W@Z PROC NEAR		; ATL::CharLowerWThunk, COMDAT

; 273  : {

  00000	55		 push	 ebp
  00001	8b ec		 mov	 ebp, esp

; 274  : 	_AtlInstallStringThunk(reinterpret_cast<void**>(&_strthunks.pfnCharLowerW), CharLowerWFake, ::CharLowerW);

  00003	a1 00 00 00 00	 mov	 eax, DWORD PTR __imp__CharLowerW@4
  00008	50		 push	 eax
  00009	68 00 00 00 00	 push	 OFFSET FLAT:?CharLowerWFake@ATL@@YGPA_WPA_W@Z ; ATL::CharLowerWFake
  0000e	68 0c 00 00 00	 push	 OFFSET FLAT:?_strthunks@ATL@@3U_AtlStringThunks@1@A+12
  00013	e8 00 00 00 00	 call	 ?_AtlInstallStringThunk@ATL@@YAXPAPAXPAX1@Z ; ATL::_AtlInstallStringThunk
  00018	83 c4 0c	 add	 esp, 12			; 0000000cH

; 275  : 
; 276  : 	return _strthunks.pfnCharLowerW(psz);

  0001b	8b 4d 08	 mov	 ecx, DWORD PTR _psz$[ebp]
  0001e	51		 push	 ecx
  0001f	ff 15 0c 00 00
	00		 call	 DWORD PTR ?_strthunks@ATL@@3U_AtlStringThunks@1@A+12

; 277  : }

  00025	5d		 pop	 ebp
  00026	c2 04 00	 ret	 4
?CharLowerWThunk@ATL@@YGPA_WPA_W@Z ENDP			; ATL::CharLowerWThunk
_TEXT	ENDS
PUBLIC	?AtlA2WHelper@@YGPA_WPA_WPBDHI@Z		; AtlA2WHelper
EXTRN	__imp__lstrlenA@4:NEAR
EXTRN	__imp__CharLowerA@4:NEAR
EXTRN	__imp__wcscpy:NEAR
; Function compile flags: /Odt
;	COMDAT ?CharLowerWFake@ATL@@YGPA_WPA_W@Z
_TEXT	SEGMENT
tv90 = -36						; size = 4
tv94 = -32						; size = 4
tv75 = -28						; size = 4
tv78 = -24						; size = 4
__lpa$ = -20						; size = 4
__acp$ = -16						; size = 4
_pszA$ = -12						; size = 4
__lpw$ = -8						; size = 4
__convert$ = -4						; size = 4
_psz$ = 8						; size = 4
?CharLowerWFake@ATL@@YGPA_WPA_W@Z PROC NEAR		; ATL::CharLowerWFake, COMDAT

; 261  : {

  00000	55		 push	 ebp
  00001	8b ec		 mov	 ebp, esp
  00003	83 ec 24	 sub	 esp, 36			; 00000024H

; 262  : 	USES_CONVERSION;

  00006	e8 00 00 00 00	 call	 ?_AtlGetConversionACP@ATL@@YGIXZ ; ATL::_AtlGetConversionACP
  0000b	89 45 f0	 mov	 DWORD PTR __acp$[ebp], eax

; 263  : 	LPSTR pszA;
; 264  : 
; 265  : 	pszA = W2A(psz);

  0000e	8b 45 08	 mov	 eax, DWORD PTR _psz$[ebp]
  00011	89 45 f8	 mov	 DWORD PTR __lpw$[ebp], eax
  00014	83 7d f8 00	 cmp	 DWORD PTR __lpw$[ebp], 0
  00018	75 09		 jne	 SHORT $L207733
  0001a	c7 45 e8 00 00
	00 00		 mov	 DWORD PTR tv78[ebp], 0
  00021	eb 3a		 jmp	 SHORT $L207734
$L207733:
  00023	8b 4d f8	 mov	 ecx, DWORD PTR __lpw$[ebp]
  00026	51		 push	 ecx
  00027	ff 15 00 00 00
	00		 call	 DWORD PTR __imp__lstrlenW@4
  0002d	8d 54 00 02	 lea	 edx, DWORD PTR [eax+eax+2]
  00031	89 55 fc	 mov	 DWORD PTR __convert$[ebp], edx
  00034	8b 45 fc	 mov	 eax, DWORD PTR __convert$[ebp]
  00037	83 c0 03	 add	 eax, 3
  0003a	83 e0 fc	 and	 eax, -4			; fffffffcH
  0003d	e8 00 00 00 00	 call	 __alloca_probe
  00042	89 65 e4	 mov	 DWORD PTR tv75[ebp], esp
  00045	8b 45 f0	 mov	 eax, DWORD PTR __acp$[ebp]
  00048	50		 push	 eax
  00049	8b 4d fc	 mov	 ecx, DWORD PTR __convert$[ebp]
  0004c	51		 push	 ecx
  0004d	8b 55 f8	 mov	 edx, DWORD PTR __lpw$[ebp]
  00050	52		 push	 edx
  00051	8b 45 e4	 mov	 eax, DWORD PTR tv75[ebp]
  00054	50		 push	 eax
  00055	e8 00 00 00 00	 call	 ?AtlW2AHelper@@YGPADPADPB_WHI@Z ; AtlW2AHelper
  0005a	89 45 e8	 mov	 DWORD PTR tv78[ebp], eax
$L207734:
  0005d	8b 4d e8	 mov	 ecx, DWORD PTR tv78[ebp]
  00060	89 4d f4	 mov	 DWORD PTR _pszA$[ebp], ecx

; 266  : 	::CharLowerA(pszA);

  00063	8b 55 f4	 mov	 edx, DWORD PTR _pszA$[ebp]
  00066	52		 push	 edx
  00067	ff 15 00 00 00
	00		 call	 DWORD PTR __imp__CharLowerA@4

; 267  : 	wcscpy(psz, A2W(pszA));

  0006d	8b 45 f4	 mov	 eax, DWORD PTR _pszA$[ebp]
  00070	89 45 ec	 mov	 DWORD PTR __lpa$[ebp], eax
  00073	83 7d ec 00	 cmp	 DWORD PTR __lpa$[ebp], 0
  00077	75 09		 jne	 SHORT $L207735
  00079	c7 45 e0 00 00
	00 00		 mov	 DWORD PTR tv94[ebp], 0
  00080	eb 3b		 jmp	 SHORT $L207736
$L207735:
  00082	8b 4d ec	 mov	 ecx, DWORD PTR __lpa$[ebp]
  00085	51		 push	 ecx
  00086	ff 15 00 00 00
	00		 call	 DWORD PTR __imp__lstrlenA@4
  0008c	83 c0 01	 add	 eax, 1
  0008f	89 45 fc	 mov	 DWORD PTR __convert$[ebp], eax
  00092	8b 45 fc	 mov	 eax, DWORD PTR __convert$[ebp]
  00095	d1 e0		 shl	 eax, 1
  00097	83 c0 03	 add	 eax, 3
  0009a	83 e0 fc	 and	 eax, -4			; fffffffcH
  0009d	e8 00 00 00 00	 call	 __alloca_probe
  000a2	89 65 dc	 mov	 DWORD PTR tv90[ebp], esp
  000a5	8b 55 f0	 mov	 edx, DWORD PTR __acp$[ebp]
  000a8	52		 push	 edx
  000a9	8b 45 fc	 mov	 eax, DWORD PTR __convert$[ebp]
  000ac	50		 push	 eax
  000ad	8b 4d ec	 mov	 ecx, DWORD PTR __lpa$[ebp]
  000b0	51		 push	 ecx
  000b1	8b 55 dc	 mov	 edx, DWORD PTR tv90[ebp]
  000b4	52		 push	 edx
  000b5	e8 00 00 00 00	 call	 ?AtlA2WHelper@@YGPA_WPA_WPBDHI@Z ; AtlA2WHelper
  000ba	89 45 e0	 mov	 DWORD PTR tv94[ebp], eax
$L207736:
  000bd	8b 45 e0	 mov	 eax, DWORD PTR tv94[ebp]
  000c0	50		 push	 eax
  000c1	8b 4d 08	 mov	 ecx, DWORD PTR _psz$[ebp]
  000c4	51		 push	 ecx
  000c5	ff 15 00 00 00
	00		 call	 DWORD PTR __imp__wcscpy
  000cb	83 c4 08	 add	 esp, 8

; 268  : 
; 269  : 	return psz;

  000ce	8b 45 08	 mov	 eax, DWORD PTR _psz$[ebp]

; 270  : }

  000d1	8d 65 dc	 lea	 esp, DWORD PTR [ebp-36]
  000d4	8b e5		 mov	 esp, ebp
  000d6	5d		 pop	 ebp
  000d7	c2 04 00	 ret	 4
?CharLowerWFake@ATL@@YGPA_WPA_W@Z ENDP			; ATL::CharLowerWFake
; Function compile flags: /Odt
; File d:\program files (x86)\microsoft visual studio .net 2003\vc7\atlmfc\include\atlconv.h
_TEXT	ENDS
;	COMDAT ?AtlA2WHelper@@YGPA_WPA_WPBDHI@Z
_TEXT	SEGMENT
_ret$ = -4						; size = 4
_lpw$ = 8						; size = 4
_lpa$ = 12						; size = 4
_nChars$ = 16						; size = 4
_acp$ = 20						; size = 4
?AtlA2WHelper@@YGPA_WPA_WPBDHI@Z PROC NEAR		; AtlA2WHelper, COMDAT

; 554  : {

  00000	55		 push	 ebp
  00001	8b ec		 mov	 ebp, esp
  00003	51		 push	 ecx

; 555  : 	ATLASSERT(lpa != NULL);
; 556  : 	ATLASSERT(lpw != NULL);
; 557  : 	if (lpw == NULL || lpa == NULL)

  00004	83 7d 08 00	 cmp	 DWORD PTR _lpw$[ebp], 0
  00008	74 06		 je	 SHORT $L24306
  0000a	83 7d 0c 00	 cmp	 DWORD PTR _lpa$[ebp], 0
  0000e	75 04		 jne	 SHORT $L24305
$L24306:

; 558  : 		return NULL;

  00010	33 c0		 xor	 eax, eax
  00012	eb 32		 jmp	 SHORT $L24302
$L24305:

; 559  : 	// verify that no illegal character present
; 560  : 	// since lpw was allocated based on the size of lpa
; 561  : 	// don't worry about the number of chars
; 562  : 	lpw[0] = '\0';

  00014	8b 45 08	 mov	 eax, DWORD PTR _lpw$[ebp]
  00017	66 c7 00 00 00	 mov	 WORD PTR [eax], 0

; 563  : 	int ret = MultiByteToWideChar(acp, 0, lpa, -1, lpw, nChars);

  0001c	8b 4d 10	 mov	 ecx, DWORD PTR _nChars$[ebp]
  0001f	51		 push	 ecx
  00020	8b 55 08	 mov	 edx, DWORD PTR _lpw$[ebp]
  00023	52		 push	 edx
  00024	6a ff		 push	 -1
  00026	8b 45 0c	 mov	 eax, DWORD PTR _lpa$[ebp]
  00029	50		 push	 eax
  0002a	6a 00		 push	 0
  0002c	8b 4d 14	 mov	 ecx, DWORD PTR _acp$[ebp]
  0002f	51		 push	 ecx
  00030	ff 15 00 00 00
	00		 call	 DWORD PTR __imp__MultiByteToWideChar@24
  00036	89 45 fc	 mov	 DWORD PTR _ret$[ebp], eax

; 564  : 	if(ret == 0)

  00039	83 7d fc 00	 cmp	 DWORD PTR _ret$[ebp], 0
  0003d	75 04		 jne	 SHORT $L24308

; 565  : 	{
; 566  : 		ATLASSERT(FALSE);
; 567  : 		return NULL;

  0003f	33 c0		 xor	 eax, eax
  00041	eb 03		 jmp	 SHORT $L24302
$L24308:

; 568  : 	}		
; 569  : 	return lpw;

  00043	8b 45 08	 mov	 eax, DWORD PTR _lpw$[ebp]
$L24302:

; 570  : }

  00046	8b e5		 mov	 esp, ebp
  00048	5d		 pop	 ebp
  00049	c2 10 00	 ret	 16			; 00000010H
?AtlA2WHelper@@YGPA_WPA_WPBDHI@Z ENDP			; AtlA2WHelper
_TEXT	ENDS
PUBLIC	?CharUpperWFake@ATL@@YGPA_WPA_W@Z		; ATL::CharUpperWFake
EXTRN	__imp__CharUpperW@4:NEAR
; Function compile flags: /Odt
; File d:\program files (x86)\microsoft visual studio .net 2003\vc7\atlmfc\include\cstringt.h
;	COMDAT ?CharUpperWThunk@ATL@@YGPA_WPA_W@Z
_TEXT	SEGMENT
_psz$ = 8						; size = 4
?CharUpperWThunk@ATL@@YGPA_WPA_W@Z PROC NEAR		; ATL::CharUpperWThunk, COMDAT

; 292  : {

  00000	55		 push	 ebp
  00001	8b ec		 mov	 ebp, esp

; 293  : 	_AtlInstallStringThunk(reinterpret_cast<void**>(&_strthunks.pfnCharUpperW), CharUpperWFake, ::CharUpperW);

  00003	a1 00 00 00 00	 mov	 eax, DWORD PTR __imp__CharUpperW@4
  00008	50		 push	 eax
  00009	68 00 00 00 00	 push	 OFFSET FLAT:?CharUpperWFake@ATL@@YGPA_WPA_W@Z ; ATL::CharUpperWFake
  0000e	68 10 00 00 00	 push	 OFFSET FLAT:?_strthunks@ATL@@3U_AtlStringThunks@1@A+16
  00013	e8 00 00 00 00	 call	 ?_AtlInstallStringThunk@ATL@@YAXPAPAXPAX1@Z ; ATL::_AtlInstallStringThunk
  00018	83 c4 0c	 add	 esp, 12			; 0000000cH

; 294  : 
; 295  : 	return _strthunks.pfnCharUpperW(psz);

  0001b	8b 4d 08	 mov	 ecx, DWORD PTR _psz$[ebp]
  0001e	51		 push	 ecx
  0001f	ff 15 10 00 00
	00		 call	 DWORD PTR ?_strthunks@ATL@@3U_AtlStringThunks@1@A+16

; 296  : }

  00025	5d		 pop	 ebp
  00026	c2 04 00	 ret	 4
?CharUpperWThunk@ATL@@YGPA_WPA_W@Z ENDP			; ATL::CharUpperWThunk
_TEXT	ENDS
EXTRN	__imp__CharUpperA@4:NEAR
; Function compile flags: /Odt
;	COMDAT ?CharUpperWFake@ATL@@YGPA_WPA_W@Z
_TEXT	SEGMENT
tv90 = -36						; size = 4
tv94 = -32						; size = 4
tv75 = -28						; size = 4
tv78 = -24						; size = 4
__lpa$ = -20						; size = 4
__acp$ = -16						; size = 4
_pszA$ = -12						; size = 4
__lpw$ = -8						; size = 4
__convert$ = -4						; size = 4
_psz$ = 8						; size = 4
?CharUpperWFake@ATL@@YGPA_WPA_W@Z PROC NEAR		; ATL::CharUpperWFake, COMDAT

; 280  : {

  00000	55		 push	 ebp
  00001	8b ec		 mov	 ebp, esp
  00003	83 ec 24	 sub	 esp, 36			; 00000024H

; 281  : 	USES_CONVERSION;

  00006	e8 00 00 00 00	 call	 ?_AtlGetConversionACP@ATL@@YGIXZ ; ATL::_AtlGetConversionACP
  0000b	89 45 f0	 mov	 DWORD PTR __acp$[ebp], eax

; 282  : 	LPSTR pszA;
; 283  : 
; 284  : 	pszA = W2A(psz);

  0000e	8b 45 08	 mov	 eax, DWORD PTR _psz$[ebp]
  00011	89 45 f8	 mov	 DWORD PTR __lpw$[ebp], eax
  00014	83 7d f8 00	 cmp	 DWORD PTR __lpw$[ebp], 0
  00018	75 09		 jne	 SHORT $L207743
  0001a	c7 45 e8 00 00
	00 00		 mov	 DWORD PTR tv78[ebp], 0
  00021	eb 3a		 jmp	 SHORT $L207744
$L207743:
  00023	8b 4d f8	 mov	 ecx, DWORD PTR __lpw$[ebp]
  00026	51		 push	 ecx
  00027	ff 15 00 00 00
	00		 call	 DWORD PTR __imp__lstrlenW@4
  0002d	8d 54 00 02	 lea	 edx, DWORD PTR [eax+eax+2]
  00031	89 55 fc	 mov	 DWORD PTR __convert$[ebp], edx
  00034	8b 45 fc	 mov	 eax, DWORD PTR __convert$[ebp]
  00037	83 c0 03	 add	 eax, 3
  0003a	83 e0 fc	 and	 eax, -4			; fffffffcH
  0003d	e8 00 00 00 00	 call	 __alloca_probe
  00042	89 65 e4	 mov	 DWORD PTR tv75[ebp], esp
  00045	8b 45 f0	 mov	 eax, DWORD PTR __acp$[ebp]
  00048	50		 push	 eax
  00049	8b 4d fc	 mov	 ecx, DWORD PTR __convert$[ebp]
  0004c	51		 push	 ecx
  0004d	8b 55 f8	 mov	 edx, DWORD PTR __lpw$[ebp]
  00050	52		 push	 edx
  00051	8b 45 e4	 mov	 eax, DWORD PTR tv75[ebp]
  00054	50		 push	 eax
  00055	e8 00 00 00 00	 call	 ?AtlW2AHelper@@YGPADPADPB_WHI@Z ; AtlW2AHelper
  0005a	89 45 e8	 mov	 DWORD PTR tv78[ebp], eax
$L207744:
  0005d	8b 4d e8	 mov	 ecx, DWORD PTR tv78[ebp]
  00060	89 4d f4	 mov	 DWORD PTR _pszA$[ebp], ecx

; 285  : 	::CharUpperA(pszA);

  00063	8b 55 f4	 mov	 edx, DWORD PTR _pszA$[ebp]
  00066	52		 push	 edx
  00067	ff 15 00 00 00
	00		 call	 DWORD PTR __imp__CharUpperA@4

; 286  : 	wcscpy(psz, A2W(pszA));

  0006d	8b 45 f4	 mov	 eax, DWORD PTR _pszA$[ebp]
  00070	89 45 ec	 mov	 DWORD PTR __lpa$[ebp], eax
  00073	83 7d ec 00	 cmp	 DWORD PTR __lpa$[ebp], 0
  00077	75 09		 jne	 SHORT $L207745
  00079	c7 45 e0 00 00
	00 00		 mov	 DWORD PTR tv94[ebp], 0
  00080	eb 3b		 jmp	 SHORT $L207746
$L207745:
  00082	8b 4d ec	 mov	 ecx, DWORD PTR __lpa$[ebp]
  00085	51		 push	 ecx
  00086	ff 15 00 00 00
	00		 call	 DWORD PTR __imp__lstrlenA@4
  0008c	83 c0 01	 add	 eax, 1
  0008f	89 45 fc	 mov	 DWORD PTR __convert$[ebp], eax
  00092	8b 45 fc	 mov	 eax, DWORD PTR __convert$[ebp]
  00095	d1 e0		 shl	 eax, 1
  00097	83 c0 03	 add	 eax, 3
  0009a	83 e0 fc	 and	 eax, -4			; fffffffcH
  0009d	e8 00 00 00 00	 call	 __alloca_probe
  000a2	89 65 dc	 mov	 DWORD PTR tv90[ebp], esp
  000a5	8b 55 f0	 mov	 edx, DWORD PTR __acp$[ebp]
  000a8	52		 push	 edx
  000a9	8b 45 fc	 mov	 eax, DWORD PTR __convert$[ebp]
  000ac	50		 push	 eax
  000ad	8b 4d ec	 mov	 ecx, DWORD PTR __lpa$[ebp]
  000b0	51		 push	 ecx
  000b1	8b 55 dc	 mov	 edx, DWORD PTR tv90[ebp]
  000b4	52		 push	 edx
  000b5	e8 00 00 00 00	 call	 ?AtlA2WHelper@@YGPA_WPA_WPBDHI@Z ; AtlA2WHelper
  000ba	89 45 e0	 mov	 DWORD PTR tv94[ebp], eax
$L207746:
  000bd	8b 45 e0	 mov	 eax, DWORD PTR tv94[ebp]
  000c0	50		 push	 eax
  000c1	8b 4d 08	 mov	 ecx, DWORD PTR _psz$[ebp]
  000c4	51		 push	 ecx
  000c5	ff 15 00 00 00
	00		 call	 DWORD PTR __imp__wcscpy
  000cb	83 c4 08	 add	 esp, 8

; 287  : 
; 288  : 	return psz;

  000ce	8b 45 08	 mov	 eax, DWORD PTR _psz$[ebp]

; 289  : }

  000d1	8d 65 dc	 lea	 esp, DWORD PTR [ebp-36]
  000d4	8b e5		 mov	 esp, ebp
  000d6	5d		 pop	 ebp
  000d7	c2 04 00	 ret	 4
?CharUpperWFake@ATL@@YGPA_WPA_W@Z ENDP			; ATL::CharUpperWFake
_TEXT	ENDS
PUBLIC	?GetThisClass@MyWebBrowserWnd@@SGPAUCRuntimeClass@@XZ ; MyWebBrowserWnd::GetThisClass
; Function compile flags: /Odt
; File d:\boxgit\playbox\playbox\dev\prj\playbox\src\module\webinteract\mywebbrowserwnd.cpp
_TEXT	SEGMENT
?GetThisClass@MyWebBrowserWnd@@SGPAUCRuntimeClass@@XZ PROC NEAR ; MyWebBrowserWnd::GetThisClass

; 26   : IMPLEMENT_DYNAMIC(MyWebBrowserWnd, CHtmlView)

  00000	55		 push	 ebp
  00001	8b ec		 mov	 ebp, esp
  00003	b8 00 00 00 00	 mov	 eax, OFFSET FLAT:?classMyWebBrowserWnd@MyWebBrowserWnd@@2UCRuntimeClass@@B ; MyWebBrowserWnd::classMyWebBrowserWnd
  00008	5d		 pop	 ebp
  00009	c3		 ret	 0
?GetThisClass@MyWebBrowserWnd@@SGPAUCRuntimeClass@@XZ ENDP ; MyWebBrowserWnd::GetThisClass
_TEXT	ENDS
PUBLIC	?GetRuntimeClass@MyWebBrowserWnd@@UBEPAUCRuntimeClass@@XZ ; MyWebBrowserWnd::GetRuntimeClass
; Function compile flags: /Odt
_TEXT	SEGMENT
_this$ = -4						; size = 4
?GetRuntimeClass@MyWebBrowserWnd@@UBEPAUCRuntimeClass@@XZ PROC NEAR ; MyWebBrowserWnd::GetRuntimeClass
; _this$ = ecx

; 26   : IMPLEMENT_DYNAMIC(MyWebBrowserWnd, CHtmlView)

  00010	55		 push	 ebp
  00011	8b ec		 mov	 ebp, esp
  00013	51		 push	 ecx
  00014	89 4d fc	 mov	 DWORD PTR _this$[ebp], ecx
  00017	b8 00 00 00 00	 mov	 eax, OFFSET FLAT:?classMyWebBrowserWnd@MyWebBrowserWnd@@2UCRuntimeClass@@B ; MyWebBrowserWnd::classMyWebBrowserWnd
  0001c	8b e5		 mov	 esp, ebp
  0001e	5d		 pop	 ebp
  0001f	c3		 ret	 0
?GetRuntimeClass@MyWebBrowserWnd@@UBEPAUCRuntimeClass@@XZ ENDP ; MyWebBrowserWnd::GetRuntimeClass
_TEXT	ENDS
PUBLIC	??_R1A@?0A@A@CObject@@8				; CObject::`RTTI Base Class Descriptor at (0,-1,0,0)'
PUBLIC	??_R0?AVCObject@@@8				; CObject `RTTI Type Descriptor'
PUBLIC	??_R1A@?0A@A@CWnd@@8				; CWnd::`RTTI Base Class Descriptor at (0,-1,0,0)'
PUBLIC	??_R0?AVCWnd@@@8				; CWnd `RTTI Type Descriptor'
PUBLIC	??_R1A@?0A@A@CCmdTarget@@8			; CCmdTarget::`RTTI Base Class Descriptor at (0,-1,0,0)'
PUBLIC	??_R0?AVCCmdTarget@@@8				; CCmdTarget `RTTI Type Descriptor'
PUBLIC	??0MyWebBrowserWnd@@QAE@H@Z			; MyWebBrowserWnd::MyWebBrowserWnd
PUBLIC	?CreateControlSite@MyWebBrowserWnd@@UAEHPAVCOleControlContainer@@PAPAVCOleControlSite@@IABU_GUID@@@Z ; MyWebBrowserWnd::CreateControlSite
PUBLIC	?Create@MyWebBrowserWnd@@UAEHPBD0KABUtagRECT@@PAVCWnd@@IPAUCCreateContext@@@Z ; MyWebBrowserWnd::Create
PUBLIC	?OnNavigateError@MyWebBrowserWnd@@UAEXPBD0KPAH@Z ; MyWebBrowserWnd::OnNavigateError
PUBLIC	?OnNavigateComplete2@MyWebBrowserWnd@@UAEXPBD@Z	; MyWebBrowserWnd::OnNavigateComplete2
PUBLIC	?PreTranslateMessage@MyWebBrowserWnd@@UAEHPAUtagMSG@@@Z ; MyWebBrowserWnd::PreTranslateMessage
PUBLIC	?OnDocumentComplete@MyWebBrowserWnd@@UAEXPBD@Z	; MyWebBrowserWnd::OnDocumentComplete
PUBLIC	?IWebRefreshOb_Refresh@MyWebBrowserWnd@@UAEXPBD@Z ; MyWebBrowserWnd::IWebRefreshOb_Refresh
PUBLIC	?GetMessageMap@MyWebBrowserWnd@@MBEPBUAFX_MSGMAP@@XZ ; MyWebBrowserWnd::GetMessageMap
PUBLIC	??_R0?AVIMessageObserver@@@8			; IMessageObserver `RTTI Type Descriptor'
PUBLIC	??_7MyWebBrowserWnd@@6BCHtmlView@@@		; MyWebBrowserWnd::`vftable'
PUBLIC	??_7MyWebBrowserWnd@@6BIWebRefreshObserver@@@	; MyWebBrowserWnd::`vftable'
PUBLIC	??_GMyWebBrowserWnd@@UAEPAXI@Z			; MyWebBrowserWnd::`scalar deleting destructor'
PUBLIC	?Serialize@CObject@@UAEXAAVCArchive@@@Z		; CObject::Serialize
PUBLIC	?AssertValid@CObject@@UBEXXZ			; CObject::AssertValid
PUBLIC	?Dump@CObject@@UBEXAAVCDumpContext@@@Z		; CObject::Dump
PUBLIC	??0IWebRefreshObserver@@QAE@XZ			; IWebRefreshObserver::IWebRefreshObserver
PUBLIC	??1IWebRefreshObserver@@UAE@XZ			; IWebRefreshObserver::~IWebRefreshObserver
PUBLIC	??_R4MyWebBrowserWnd@@6BCHtmlView@@@		; MyWebBrowserWnd::`RTTI Complete Object Locator'
PUBLIC	?DoDataExchange@CWnd@@MAEXPAVCDataExchange@@@Z	; CWnd::DoDataExchange
PUBLIC	??_R0?AVMyWebBrowserWnd@@@8			; MyWebBrowserWnd `RTTI Type Descriptor'
PUBLIC	?BeginModalState@CWnd@@UAEXXZ			; CWnd::BeginModalState
PUBLIC	??_R3MyWebBrowserWnd@@8				; MyWebBrowserWnd::`RTTI Class Hierarchy Descriptor'
PUBLIC	?EndModalState@CWnd@@UAEXXZ			; CWnd::EndModalState
PUBLIC	??_R2MyWebBrowserWnd@@8				; MyWebBrowserWnd::`RTTI Base Class Array'
PUBLIC	??_R1A@?0A@A@MyWebBrowserWnd@@8			; MyWebBrowserWnd::`RTTI Base Class Descriptor at (0,-1,0,0)'
PUBLIC	??_R1A@?0A@A@CHtmlView@@8			; CHtmlView::`RTTI Base Class Descriptor at (0,-1,0,0)'
PUBLIC	??_R0?AVCHtmlView@@@8				; CHtmlView `RTTI Type Descriptor'
PUBLIC	??_R1A@?0A@A@CFormView@@8			; CFormView::`RTTI Base Class Descriptor at (0,-1,0,0)'
PUBLIC	??_R0?AVCFormView@@@8				; CFormView `RTTI Type Descriptor'
PUBLIC	??_R1A@?0A@A@CScrollView@@8			; CScrollView::`RTTI Base Class Descriptor at (0,-1,0,0)'
PUBLIC	??_R0?AVCScrollView@@@8				; CScrollView `RTTI Type Descriptor'
PUBLIC	??_R1A@?0A@A@CView@@8				; CView::`RTTI Base Class Descriptor at (0,-1,0,0)'
PUBLIC	??_R0?AVCView@@@8				; CView `RTTI Type Descriptor'
PUBLIC	??_R1PA@?0A@A@IWebRefreshObserver@@8		; IWebRefreshObserver::`RTTI Base Class Descriptor at (240,-1,0,0)'
PUBLIC	??_R0?AVIWebRefreshObserver@@@8			; IWebRefreshObserver `RTTI Type Descriptor'
PUBLIC	??_R1PA@?0A@A@IMessageObserver@@8		; IMessageObserver::`RTTI Base Class Descriptor at (240,-1,0,0)'
PUBLIC	??_EMyWebBrowserWnd@@WPA@AEPAXI@Z		; [thunk]:MyWebBrowserWnd::`vector deleting destructor'
PUBLIC	??_R4MyWebBrowserWnd@@6BIWebRefreshObserver@@@	; MyWebBrowserWnd::`RTTI Complete Object Locator'
PUBLIC	?get_accChild@CFormView@@UAEJUtagVARIANT@@PAPAUIDispatch@@@Z ; CFormView::get_accChild
PUBLIC	?get_accChildCount@CFormView@@UAEJPAJ@Z		; CFormView::get_accChildCount
PUBLIC	?get_accName@CFormView@@UAEJUtagVARIANT@@PAPA_W@Z ; CFormView::get_accName
PUBLIC	?accLocation@CFormView@@UAEJPAJ000UtagVARIANT@@@Z ; CFormView::accLocation
PUBLIC	?accHitTest@CFormView@@UAEJJJPAUtagVARIANT@@@Z	; CFormView::accHitTest
EXTRN	?OnProgressChange@CHtmlView@@UAEXJJ@Z:NEAR	; CHtmlView::OnProgressChange
EXTRN	?OnCommandStateChange@CHtmlView@@UAEXJH@Z:NEAR	; CHtmlView::OnCommandStateChange
EXTRN	?OnDownloadBegin@CHtmlView@@UAEXXZ:NEAR		; CHtmlView::OnDownloadBegin
EXTRN	?OnDownloadComplete@CHtmlView@@UAEXXZ:NEAR	; CHtmlView::OnDownloadComplete
EXTRN	?OnTitleChange@CHtmlView@@UAEXPBD@Z:NEAR	; CHtmlView::OnTitleChange
EXTRN	?OnPropertyChange@CHtmlView@@UAEXPBD@Z:NEAR	; CHtmlView::OnPropertyChange
EXTRN	?OnNewWindow2@CHtmlView@@UAEXPAPAUIDispatch@@PAH@Z:NEAR ; CHtmlView::OnNewWindow2
EXTRN	?OnQuit@CHtmlView@@UAEXXZ:NEAR			; CHtmlView::OnQuit
EXTRN	?OnVisible@CHtmlView@@UAEXH@Z:NEAR		; CHtmlView::OnVisible
EXTRN	?OnToolBar@CHtmlView@@UAEXH@Z:NEAR		; CHtmlView::OnToolBar
EXTRN	?OnMenuBar@CHtmlView@@UAEXH@Z:NEAR		; CHtmlView::OnMenuBar
EXTRN	?OnStatusBar@CHtmlView@@UAEXH@Z:NEAR		; CHtmlView::OnStatusBar
EXTRN	?OnFullScreen@CHtmlView@@UAEXH@Z:NEAR		; CHtmlView::OnFullScreen
EXTRN	?OnTheaterMode@CHtmlView@@UAEXH@Z:NEAR		; CHtmlView::OnTheaterMode
EXTRN	?CreateControlContainer@CWnd@@MAEHPAPAVCOleControlContainer@@@Z:NEAR ; CWnd::CreateControlContainer
EXTRN	??1CHtmlView@@UAE@XZ:NEAR			; CHtmlView::~CHtmlView
EXTRN	?OnDraw@CHtmlView@@UAEXPAVCDC@@@Z:NEAR		; CHtmlView::OnDraw
EXTRN	?NavigateComplete2@CHtmlView@@MAEXPAUIDispatch@@PAUtagVARIANT@@@Z:NEAR ; CHtmlView::NavigateComplete2
EXTRN	?BeforeNavigate2@CHtmlView@@MAEXPAUIDispatch@@PAUtagVARIANT@@1111PAF@Z:NEAR ; CHtmlView::BeforeNavigate2
EXTRN	?DocumentComplete@CHtmlView@@MAEXPAUIDispatch@@PAUtagVARIANT@@@Z:NEAR ; CHtmlView::DocumentComplete
EXTRN	?OnToolHitTest@CWnd@@UBEHVCPoint@@PAUtagTOOLINFOA@@@Z:NEAR ; CWnd::OnToolHitTest
EXTRN	?NavigateError@CHtmlView@@MAEXPAUIDispatch@@PAUtagVARIANT@@11PAF@Z:NEAR ; CHtmlView::NavigateError
EXTRN	__imp_??0?$CStringT@DV?$StrTraitMFC_DLL@DV?$ChTraitsCRT@D@ATL@@@@@ATL@@QAE@PBD@Z:NEAR
EXTRN	__imp_??1?$CStringT@DV?$StrTraitMFC_DLL@DV?$ChTraitsCRT@D@ATL@@@@@ATL@@QAE@XZ:NEAR
EXTRN	?WinHelpA@CWnd@@UAEXKI@Z:NEAR			; CWnd::WinHelpA
EXTRN	?HtmlHelpA@CWnd@@UAEXKI@Z:NEAR			; CWnd::HtmlHelpA
EXTRN	?WinHelpInternal@CWnd@@UAEXKI@Z:NEAR		; CWnd::WinHelpInternal
EXTRN	?ContinueModal@CWnd@@UAEHXZ:NEAR		; CWnd::ContinueModal
EXTRN	?EndModalLoop@CWnd@@UAEXH@Z:NEAR		; CWnd::EndModalLoop
EXTRN	?IsSelected@CView@@UBEHPBVCObject@@@Z:NEAR	; CView::IsSelected
EXTRN	??_EMyWebBrowserWnd@@UAEPAXI@Z:NEAR		; MyWebBrowserWnd::`vector deleting destructor'
EXTRN	?OnDragEnter@CView@@UAEKPAVCOleDataObject@@KVCPoint@@@Z:NEAR ; CView::OnDragEnter
EXTRN	?OnDragOver@CView@@UAEKPAVCOleDataObject@@KVCPoint@@@Z:NEAR ; CView::OnDragOver
EXTRN	?OnDragLeave@CView@@UAEXXZ:NEAR			; CView::OnDragLeave
EXTRN	?OnDrop@CView@@UAEHPAVCOleDataObject@@KVCPoint@@@Z:NEAR ; CView::OnDrop
EXTRN	?OnDropEx@CView@@UAEKPAVCOleDataObject@@KKVCPoint@@@Z:NEAR ; CView::OnDropEx
EXTRN	?OnDragScroll@CView@@UAEKKVCPoint@@@Z:NEAR	; CView::OnDragScroll
EXTRN	?GetInterfaceMap@CWnd@@MBEPBUAFX_INTERFACEMAP@@XZ:NEAR ; CWnd::GetInterfaceMap
EXTRN	?OnUpdate@CView@@MAEXPAV1@JPAVCObject@@@Z:NEAR	; CView::OnUpdate
EXTRN	?OnPreparePrinting@CView@@MAEHPAUCPrintInfo@@@Z:NEAR ; CView::OnPreparePrinting
EXTRN	?OnBeginPrinting@CView@@MAEXPAVCDC@@PAUCPrintInfo@@@Z:NEAR ; CView::OnBeginPrinting
EXTRN	?OnPrint@CView@@MAEXPAVCDC@@PAUCPrintInfo@@@Z:NEAR ; CView::OnPrint
EXTRN	?OnEndPrinting@CView@@MAEXPAVCDC@@PAUCPrintInfo@@@Z:NEAR ; CView::OnEndPrinting
EXTRN	?OnEndPrintPreview@CView@@MAEXPAVCDC@@PAUCPrintInfo@@UtagPOINT@@PAVCPreviewView@@@Z:NEAR ; CView::OnEndPrintPreview
EXTRN	?GetScrollBarCtrl@CView@@UBEPAVCScrollBar@@H@Z:NEAR ; CView::GetScrollBarCtrl
EXTRN	?OnCmdMsg@CView@@UAEHIHPAXPAUAFX_CMDHANDLERINFO@@@Z:NEAR ; CView::OnCmdMsg
EXTRN	?PostNcDestroy@CView@@MAEXXZ:NEAR		; CView::PostNcDestroy
EXTRN	?EnsureStdObj@CWnd@@UAEJXZ:NEAR			; CWnd::EnsureStdObj
EXTRN	?get_accParent@CWnd@@UAEJPAPAUIDispatch@@@Z:NEAR ; CWnd::get_accParent
EXTRN	?IsInvokeAllowed@CCmdTarget@@UAEHJ@Z:NEAR	; CCmdTarget::IsInvokeAllowed
EXTRN	?get_accValue@CWnd@@UAEJUtagVARIANT@@PAPA_W@Z:NEAR ; CWnd::get_accValue
EXTRN	?get_accDescription@CWnd@@UAEJUtagVARIANT@@PAPA_W@Z:NEAR ; CWnd::get_accDescription
EXTRN	?GetDispatchIID@CCmdTarget@@UAEHPAU_GUID@@@Z:NEAR ; CCmdTarget::GetDispatchIID
EXTRN	?GetTypeInfoCount@CCmdTarget@@UAEIXZ:NEAR	; CCmdTarget::GetTypeInfoCount
EXTRN	?GetTypeLibCache@CCmdTarget@@UAEPAVCTypeLibCache@@XZ:NEAR ; CCmdTarget::GetTypeLibCache
EXTRN	?get_accRole@CWnd@@UAEJUtagVARIANT@@PAU2@@Z:NEAR ; CWnd::get_accRole
EXTRN	?GetTypeLib@CCmdTarget@@UAEJKPAPAUITypeLib@@@Z:NEAR ; CCmdTarget::GetTypeLib
EXTRN	?get_accState@CWnd@@UAEJUtagVARIANT@@PAU2@@Z:NEAR ; CWnd::get_accState
EXTRN	?get_accHelp@CWnd@@UAEJUtagVARIANT@@PAPA_W@Z:NEAR ; CWnd::get_accHelp
EXTRN	?get_accHelpTopic@CWnd@@UAEJPAPA_WUtagVARIANT@@PAJ@Z:NEAR ; CWnd::get_accHelpTopic
EXTRN	?get_accKeyboardShortcut@CWnd@@UAEJUtagVARIANT@@PAPA_W@Z:NEAR ; CWnd::get_accKeyboardShortcut
EXTRN	?get_accFocus@CWnd@@UAEJPAUtagVARIANT@@@Z:NEAR	; CWnd::get_accFocus
EXTRN	?get_accSelection@CWnd@@UAEJPAUtagVARIANT@@@Z:NEAR ; CWnd::get_accSelection
EXTRN	?get_accDefaultAction@CWnd@@UAEJUtagVARIANT@@PAPA_W@Z:NEAR ; CWnd::get_accDefaultAction
EXTRN	?GetCommandMap@CCmdTarget@@MBEPBUAFX_OLECMDMAP@@XZ:NEAR ; CCmdTarget::GetCommandMap
EXTRN	?accSelect@CWnd@@UAEJJUtagVARIANT@@@Z:NEAR	; CWnd::accSelect
EXTRN	?GetDispatchMap@CCmdTarget@@MBEPBUAFX_DISPMAP@@XZ:NEAR ; CCmdTarget::GetDispatchMap
EXTRN	?accNavigate@CWnd@@UAEJJUtagVARIANT@@PAU2@@Z:NEAR ; CWnd::accNavigate
EXTRN	?GetConnectionMap@CCmdTarget@@MBEPBUAFX_CONNECTIONMAP@@XZ:NEAR ; CCmdTarget::GetConnectionMap
EXTRN	?CalcWindowRect@CScrollView@@UAEXPAUtagRECT@@I@Z:NEAR ; CScrollView::CalcWindowRect
EXTRN	?accDoDefaultAction@CWnd@@UAEJUtagVARIANT@@@Z:NEAR ; CWnd::accDoDefaultAction
EXTRN	?OnPrepareDC@CScrollView@@UAEXPAVCDC@@PAUCPrintInfo@@@Z:NEAR ; CScrollView::OnPrepareDC
EXTRN	?put_accName@CWnd@@UAEJUtagVARIANT@@PA_W@Z:NEAR	; CWnd::put_accName
EXTRN	?put_accValue@CWnd@@UAEJUtagVARIANT@@PA_W@Z:NEAR ; CWnd::put_accValue
EXTRN	?GetWheelScrollDistance@CScrollView@@UAE?AVCSize@@V2@HH@Z:NEAR ; CScrollView::GetWheelScrollDistance
EXTRN	?SetProxy@CWnd@@UAEJPAUIAccessibleProxy@@@Z:NEAR ; CWnd::SetProxy
EXTRN	?OnScroll@CScrollView@@UAEHIIH@Z:NEAR		; CScrollView::OnScroll
EXTRN	?CreateAccessibleProxy@CWnd@@UAEJIJPAJ@Z:NEAR	; CWnd::CreateAccessibleProxy
EXTRN	?OnScrollBy@CScrollView@@UAEHVCSize@@H@Z:NEAR	; CScrollView::OnScrollBy
EXTRN	?OnCreateAggregates@CCmdTarget@@UAEHXZ:NEAR	; CCmdTarget::OnCreateAggregates
EXTRN	?OnCommand@CWnd@@MAEHIJ@Z:NEAR			; CWnd::OnCommand
EXTRN	?GetInterfaceHook@CCmdTarget@@UAEPAUIUnknown@@PBX@Z:NEAR ; CCmdTarget::GetInterfaceHook
EXTRN	?OnNotify@CWnd@@MAEHIJPAJ@Z:NEAR		; CWnd::OnNotify
EXTRN	?GetExtraConnectionPoints@CCmdTarget@@MAEHPAVCPtrArray@@@Z:NEAR ; CCmdTarget::GetExtraConnectionPoints
EXTRN	?GetConnectionHook@CCmdTarget@@MAEPAUIConnectionPoint@@ABU_GUID@@@Z:NEAR ; CCmdTarget::GetConnectionHook
EXTRN	??0CHtmlView@@IAE@XZ:NEAR			; CHtmlView::CHtmlView
EXTRN	?GetEventSinkMap@CHtmlView@@MBEPBUAFX_EVENTSINKMAP@@XZ:NEAR ; CHtmlView::GetEventSinkMap
EXTRN	?PreSubclassWindow@CWnd@@UAEXXZ:NEAR		; CWnd::PreSubclassWindow
EXTRN	__imp_??0?$basic_string@DU?$char_traits@D@std@@V?$allocator@D@2@@std@@QAE@XZ:NEAR
EXTRN	?CreateEx@CWnd@@UAEHKPBD0KHHHHPAUHWND__@@PAUHMENU__@@PAX@Z:NEAR ; CWnd::CreateEx
EXTRN	?CreateEx@CWnd@@UAEHKPBD0KABUtagRECT@@PAV1@IPAX@Z:NEAR ; CWnd::CreateEx
EXTRN	?DestroyWindow@CWnd@@UAEHXZ:NEAR		; CWnd::DestroyWindow
EXTRN	__imp_??1?$basic_string@DU?$char_traits@D@std@@V?$allocator@D@2@@std@@QAE@XZ:NEAR
EXTRN	?GetSuperWndProcAddr@CWnd@@MAEPAP6GJPAUHWND__@@IIJ@ZXZ:NEAR ; CWnd::GetSuperWndProcAddr
EXTRN	??_7type_info@@6B@:QWORD			; type_info::`vftable'
EXTRN	?OnAmbientProperty@CWnd@@UAEHPAVCOleControlSite@@JPAUtagVARIANT@@@Z:NEAR ; CWnd::OnAmbientProperty
EXTRN	?WindowProc@CWnd@@MAEJIIJ@Z:NEAR		; CWnd::WindowProc
EXTRN	?PreCreateWindow@CHtmlView@@UAEHAAUtagCREATESTRUCTA@@@Z:NEAR ; CHtmlView::PreCreateWindow
EXTRN	?OnWndMsg@CWnd@@MAEHIIJPAJ@Z:NEAR		; CWnd::OnWndMsg
EXTRN	?OnInitialUpdate@CFormView@@UAEXXZ:NEAR		; CFormView::OnInitialUpdate
EXTRN	?DefWindowProcA@CWnd@@MAEJIIJ@Z:NEAR		; CWnd::DefWindowProcA
EXTRN	?OnShowContextMenu@CHtmlView@@UAEJKPAUtagPOINT@@PAUIUnknown@@PAUIDispatch@@@Z:NEAR ; CHtmlView::OnShowContextMenu
EXTRN	?OnGetExternal@CHtmlView@@UAEJPAPAUIDispatch@@@Z:NEAR ; CHtmlView::OnGetExternal
EXTRN	?OnGetHostInfo@CHtmlView@@UAEJPAU_DOCHOSTUIINFO@@@Z:NEAR ; CHtmlView::OnGetHostInfo
EXTRN	?OnChildNotify@CWnd@@MAEHIIJPAJ@Z:NEAR		; CWnd::OnChildNotify
EXTRN	?OnShowUI@CHtmlView@@UAEJKPAUIOleInPlaceActiveObject@@PAUIOleCommandTarget@@PAUIOleInPlaceFrame@@PAUIOleInPlaceUIWindow@@@Z:NEAR ; CHtmlView::OnShowUI
EXTRN	?OnHideUI@CHtmlView@@UAEJXZ:NEAR		; CHtmlView::OnHideUI
EXTRN	?OnUpdateUI@CHtmlView@@UAEJXZ:NEAR		; CHtmlView::OnUpdateUI
EXTRN	?AfxGetMessageManager@@YAPAVIMessageManager@@XZ:NEAR ; AfxGetMessageManager
EXTRN	?OnEnableModeless@CHtmlView@@UAEJH@Z:NEAR	; CHtmlView::OnEnableModeless
EXTRN	?CheckAutoCenter@CWnd@@UAEHXZ:NEAR		; CWnd::CheckAutoCenter
EXTRN	?OnDocWindowActivate@CHtmlView@@UAEJH@Z:NEAR	; CHtmlView::OnDocWindowActivate
EXTRN	?OnFrameWindowActivate@CHtmlView@@UAEJH@Z:NEAR	; CHtmlView::OnFrameWindowActivate
EXTRN	?OnResizeBorder@CHtmlView@@UAEJPBUtagRECT@@PAUIOleInPlaceUIWindow@@H@Z:NEAR ; CHtmlView::OnResizeBorder
EXTRN	?OnTranslateAccelerator@CHtmlView@@UAEJPAUtagMSG@@PBU_GUID@@K@Z:NEAR ; CHtmlView::OnTranslateAccelerator
EXTRN	?OnGetOptionKeyPath@CHtmlView@@UAEJPAPA_WK@Z:NEAR ; CHtmlView::OnGetOptionKeyPath
EXTRN	?OnFilterDataObject@CHtmlView@@UAEJPAUIDataObject@@PAPAU2@@Z:NEAR ; CHtmlView::OnFilterDataObject
EXTRN	?OnActivateView@CFormView@@MAEXHPAVCView@@0@Z:NEAR ; CFormView::OnActivateView
EXTRN	?OnTranslateUrl@CHtmlView@@UAEJKPA_WPAPA_W@Z:NEAR ; CHtmlView::OnTranslateUrl
EXTRN	?OnActivateFrame@CFormView@@MAEXIPAVCFrameWnd@@@Z:NEAR ; CFormView::OnActivateFrame
EXTRN	?OnGetDropTarget@CHtmlView@@UAEJPAUIDropTarget@@PAPAU2@@Z:NEAR ; CHtmlView::OnGetDropTarget
EXTRN	?SetOccDialogInfo@CFormView@@MAEHPAU_AFX_OCC_DIALOG_INFO@@@Z:NEAR ; CFormView::SetOccDialogInfo
EXTRN	?IsFrameWnd@CWnd@@UBEHXZ:NEAR			; CWnd::IsFrameWnd
EXTRN	?OnFinalRelease@CWnd@@UAEXXZ:NEAR		; CWnd::OnFinalRelease
EXTRN	??0CFlashWnd@@QAE@XZ:NEAR			; CFlashWnd::CFlashWnd
EXTRN	?OnBeforeNavigate2@CHtmlView@@UAEXPBDK0AAVCByteArray@@0PAH@Z:NEAR ; CHtmlView::OnBeforeNavigate2
EXTRN	??1CFlashWnd@@UAE@XZ:NEAR			; CFlashWnd::~CFlashWnd
EXTRN	?OnStatusTextChange@CHtmlView@@UAEXPBD@Z:NEAR	; CHtmlView::OnStatusTextChange
xdata$x	SEGMENT
$T207761 DD	0ffffffffH
	DD	FLAT:$L207753
	DD	00H
	DD	FLAT:$L207754
	DD	01H
	DD	FLAT:$L207755
	DD	02H
	DD	FLAT:$L207756
	DD	03H
	DD	FLAT:$L207757
$T207759 DD	019930520H
	DD	05H
	DD	FLAT:$T207761
	DD	2 DUP(00H)
	DD	2 DUP(00H)
xdata$x	ENDS
;	COMDAT ??_7MyWebBrowserWnd@@6BCHtmlView@@@
CONST	SEGMENT
??_7MyWebBrowserWnd@@6BCHtmlView@@@ DD FLAT:??_R4MyWebBrowserWnd@@6BCHtmlView@@@ ; MyWebBrowserWnd::`vftable'
	DD	FLAT:?GetRuntimeClass@MyWebBrowserWnd@@UBEPAUCRuntimeClass@@XZ
	DD	FLAT:??_EMyWebBrowserWnd@@UAEPAXI@Z
	DD	FLAT:?Serialize@CObject@@UAEXAAVCArchive@@@Z
	DD	FLAT:?AssertValid@CObject@@UBEXXZ
	DD	FLAT:?Dump@CObject@@UBEXAAVCDumpContext@@@Z
	DD	FLAT:?OnCmdMsg@CView@@UAEHIHPAXPAUAFX_CMDHANDLERINFO@@@Z
	DD	FLAT:?OnFinalRelease@CWnd@@UAEXXZ
	DD	FLAT:?IsInvokeAllowed@CCmdTarget@@UAEHJ@Z
	DD	FLAT:?GetDispatchIID@CCmdTarget@@UAEHPAU_GUID@@@Z
	DD	FLAT:?GetTypeInfoCount@CCmdTarget@@UAEIXZ
	DD	FLAT:?GetTypeLibCache@CCmdTarget@@UAEPAVCTypeLibCache@@XZ
	DD	FLAT:?GetTypeLib@CCmdTarget@@UAEJKPAPAUITypeLib@@@Z
	DD	FLAT:?GetMessageMap@MyWebBrowserWnd@@MBEPBUAFX_MSGMAP@@XZ
	DD	FLAT:?GetCommandMap@CCmdTarget@@MBEPBUAFX_OLECMDMAP@@XZ
	DD	FLAT:?GetDispatchMap@CCmdTarget@@MBEPBUAFX_DISPMAP@@XZ
	DD	FLAT:?GetConnectionMap@CCmdTarget@@MBEPBUAFX_CONNECTIONMAP@@XZ
	DD	FLAT:?GetInterfaceMap@CWnd@@MBEPBUAFX_INTERFACEMAP@@XZ
	DD	FLAT:?GetEventSinkMap@CHtmlView@@MBEPBUAFX_EVENTSINKMAP@@XZ
	DD	FLAT:?OnCreateAggregates@CCmdTarget@@UAEHXZ
	DD	FLAT:?GetInterfaceHook@CCmdTarget@@UAEPAUIUnknown@@PBX@Z
	DD	FLAT:?GetExtraConnectionPoints@CCmdTarget@@MAEHPAVCPtrArray@@@Z
	DD	FLAT:?GetConnectionHook@CCmdTarget@@MAEPAUIConnectionPoint@@ABU_GUID@@@Z
	DD	FLAT:?PreSubclassWindow@CWnd@@UAEXXZ
	DD	FLAT:?Create@MyWebBrowserWnd@@UAEHPBD0KABUtagRECT@@PAVCWnd@@IPAUCCreateContext@@@Z
	DD	FLAT:?CreateEx@CWnd@@UAEHKPBD0KABUtagRECT@@PAV1@IPAX@Z
	DD	FLAT:?CreateEx@CWnd@@UAEHKPBD0KHHHHPAUHWND__@@PAUHMENU__@@PAX@Z
	DD	FLAT:?DestroyWindow@CWnd@@UAEHXZ
	DD	FLAT:?PreCreateWindow@CHtmlView@@UAEHAAUtagCREATESTRUCTA@@@Z
	DD	FLAT:?CalcWindowRect@CScrollView@@UAEXPAUtagRECT@@I@Z
	DD	FLAT:?OnToolHitTest@CWnd@@UBEHVCPoint@@PAUtagTOOLINFOA@@@Z
	DD	FLAT:?GetScrollBarCtrl@CView@@UBEPAVCScrollBar@@H@Z
	DD	FLAT:?WinHelpA@CWnd@@UAEXKI@Z
	DD	FLAT:?HtmlHelpA@CWnd@@UAEXKI@Z
	DD	FLAT:?WinHelpInternal@CWnd@@UAEXKI@Z
	DD	FLAT:?ContinueModal@CWnd@@UAEHXZ
	DD	FLAT:?EndModalLoop@CWnd@@UAEXH@Z
	DD	FLAT:?EnsureStdObj@CWnd@@UAEJXZ
	DD	FLAT:?get_accParent@CWnd@@UAEJPAPAUIDispatch@@@Z
	DD	FLAT:?get_accChildCount@CFormView@@UAEJPAJ@Z
	DD	FLAT:?get_accChild@CFormView@@UAEJUtagVARIANT@@PAPAUIDispatch@@@Z
	DD	FLAT:?get_accName@CFormView@@UAEJUtagVARIANT@@PAPA_W@Z
	DD	FLAT:?get_accValue@CWnd@@UAEJUtagVARIANT@@PAPA_W@Z
	DD	FLAT:?get_accDescription@CWnd@@UAEJUtagVARIANT@@PAPA_W@Z
	DD	FLAT:?get_accRole@CWnd@@UAEJUtagVARIANT@@PAU2@@Z
	DD	FLAT:?get_accState@CWnd@@UAEJUtagVARIANT@@PAU2@@Z
	DD	FLAT:?get_accHelp@CWnd@@UAEJUtagVARIANT@@PAPA_W@Z
	DD	FLAT:?get_accHelpTopic@CWnd@@UAEJPAPA_WUtagVARIANT@@PAJ@Z
	DD	FLAT:?get_accKeyboardShortcut@CWnd@@UAEJUtagVARIANT@@PAPA_W@Z
	DD	FLAT:?get_accFocus@CWnd@@UAEJPAUtagVARIANT@@@Z
	DD	FLAT:?get_accSelection@CWnd@@UAEJPAUtagVARIANT@@@Z
	DD	FLAT:?get_accDefaultAction@CWnd@@UAEJUtagVARIANT@@PAPA_W@Z
	DD	FLAT:?accSelect@CWnd@@UAEJJUtagVARIANT@@@Z
	DD	FLAT:?accLocation@CFormView@@UAEJPAJ000UtagVARIANT@@@Z
	DD	FLAT:?accNavigate@CWnd@@UAEJJUtagVARIANT@@PAU2@@Z
	DD	FLAT:?accHitTest@CFormView@@UAEJJJPAUtagVARIANT@@@Z
	DD	FLAT:?accDoDefaultAction@CWnd@@UAEJUtagVARIANT@@@Z
	DD	FLAT:?put_accName@CWnd@@UAEJUtagVARIANT@@PA_W@Z
	DD	FLAT:?put_accValue@CWnd@@UAEJUtagVARIANT@@PA_W@Z
	DD	FLAT:?SetProxy@CWnd@@UAEJPAUIAccessibleProxy@@@Z
	DD	FLAT:?CreateAccessibleProxy@CWnd@@UAEJIJPAJ@Z
	DD	FLAT:?OnCommand@CWnd@@MAEHIJ@Z
	DD	FLAT:?OnNotify@CWnd@@MAEHIJPAJ@Z
	DD	FLAT:?GetSuperWndProcAddr@CWnd@@MAEPAP6GJPAUHWND__@@IIJ@ZXZ
	DD	FLAT:?DoDataExchange@CWnd@@MAEXPAVCDataExchange@@@Z
	DD	FLAT:?BeginModalState@CWnd@@UAEXXZ
	DD	FLAT:?EndModalState@CWnd@@UAEXXZ
	DD	FLAT:?PreTranslateMessage@MyWebBrowserWnd@@UAEHPAUtagMSG@@@Z
	DD	FLAT:?OnAmbientProperty@CWnd@@UAEHPAVCOleControlSite@@JPAUtagVARIANT@@@Z
	DD	FLAT:?WindowProc@CWnd@@MAEJIIJ@Z
	DD	FLAT:?OnWndMsg@CWnd@@MAEHIIJPAJ@Z
	DD	FLAT:?DefWindowProcA@CWnd@@MAEJIIJ@Z
	DD	FLAT:?PostNcDestroy@CView@@MAEXXZ
	DD	FLAT:?OnChildNotify@CWnd@@MAEHIIJPAJ@Z
	DD	FLAT:?CheckAutoCenter@CWnd@@UAEHXZ
	DD	FLAT:?IsFrameWnd@CWnd@@UBEHXZ
	DD	FLAT:?CreateControlContainer@CWnd@@MAEHPAPAVCOleControlContainer@@@Z
	DD	FLAT:?CreateControlSite@MyWebBrowserWnd@@UAEHPAVCOleControlContainer@@PAPAVCOleControlSite@@IABU_GUID@@@Z
	DD	FLAT:?SetOccDialogInfo@CFormView@@MAEHPAU_AFX_OCC_DIALOG_INFO@@@Z
	DD	FLAT:?IsSelected@CView@@UBEHPBVCObject@@@Z
	DD	FLAT:?OnScroll@CScrollView@@UAEHIIH@Z
	DD	FLAT:?OnScrollBy@CScrollView@@UAEHVCSize@@H@Z
	DD	FLAT:?OnDragEnter@CView@@UAEKPAVCOleDataObject@@KVCPoint@@@Z
	DD	FLAT:?OnDragOver@CView@@UAEKPAVCOleDataObject@@KVCPoint@@@Z
	DD	FLAT:?OnDragLeave@CView@@UAEXXZ
	DD	FLAT:?OnDrop@CView@@UAEHPAVCOleDataObject@@KVCPoint@@@Z
	DD	FLAT:?OnDropEx@CView@@UAEKPAVCOleDataObject@@KKVCPoint@@@Z
	DD	FLAT:?OnDragScroll@CView@@UAEKKVCPoint@@@Z
	DD	FLAT:?OnPrepareDC@CScrollView@@UAEXPAVCDC@@PAUCPrintInfo@@@Z
	DD	FLAT:?OnInitialUpdate@CFormView@@UAEXXZ
	DD	FLAT:?OnActivateView@CFormView@@MAEXHPAVCView@@0@Z
	DD	FLAT:?OnActivateFrame@CFormView@@MAEXIPAVCFrameWnd@@@Z
	DD	FLAT:?OnUpdate@CView@@MAEXPAV1@JPAVCObject@@@Z
	DD	FLAT:?OnDraw@CHtmlView@@UAEXPAVCDC@@@Z
	DD	FLAT:?OnPreparePrinting@CView@@MAEHPAUCPrintInfo@@@Z
	DD	FLAT:?OnBeginPrinting@CView@@MAEXPAVCDC@@PAUCPrintInfo@@@Z
	DD	FLAT:?OnPrint@CView@@MAEXPAVCDC@@PAUCPrintInfo@@@Z
	DD	FLAT:?OnEndPrinting@CView@@MAEXPAVCDC@@PAUCPrintInfo@@@Z
	DD	FLAT:?OnEndPrintPreview@CView@@MAEXPAVCDC@@PAUCPrintInfo@@UtagPOINT@@PAVCPreviewView@@@Z
	DD	FLAT:?GetWheelScrollDistance@CScrollView@@UAE?AVCSize@@V2@HH@Z
	DD	FLAT:?OnShowContextMenu@CHtmlView@@UAEJKPAUtagPOINT@@PAUIUnknown@@PAUIDispatch@@@Z
	DD	FLAT:?OnGetExternal@CHtmlView@@UAEJPAPAUIDispatch@@@Z
	DD	FLAT:?OnGetHostInfo@CHtmlView@@UAEJPAU_DOCHOSTUIINFO@@@Z
	DD	FLAT:?OnShowUI@CHtmlView@@UAEJKPAUIOleInPlaceActiveObject@@PAUIOleCommandTarget@@PAUIOleInPlaceFrame@@PAUIOleInPlaceUIWindow@@@Z
	DD	FLAT:?OnHideUI@CHtmlView@@UAEJXZ
	DD	FLAT:?OnUpdateUI@CHtmlView@@UAEJXZ
	DD	FLAT:?OnEnableModeless@CHtmlView@@UAEJH@Z
	DD	FLAT:?OnDocWindowActivate@CHtmlView@@UAEJH@Z
	DD	FLAT:?OnFrameWindowActivate@CHtmlView@@UAEJH@Z
	DD	FLAT:?OnResizeBorder@CHtmlView@@UAEJPBUtagRECT@@PAUIOleInPlaceUIWindow@@H@Z
	DD	FLAT:?OnTranslateAccelerator@CHtmlView@@UAEJPAUtagMSG@@PBU_GUID@@K@Z
	DD	FLAT:?OnGetOptionKeyPath@CHtmlView@@UAEJPAPA_WK@Z
	DD	FLAT:?OnFilterDataObject@CHtmlView@@UAEJPAUIDataObject@@PAPAU2@@Z
	DD	FLAT:?OnTranslateUrl@CHtmlView@@UAEJKPA_WPAPA_W@Z
	DD	FLAT:?OnGetDropTarget@CHtmlView@@UAEJPAUIDropTarget@@PAPAU2@@Z
	DD	FLAT:?OnNavigateComplete2@MyWebBrowserWnd@@UAEXPBD@Z
	DD	FLAT:?OnBeforeNavigate2@CHtmlView@@UAEXPBDK0AAVCByteArray@@0PAH@Z
	DD	FLAT:?OnStatusTextChange@CHtmlView@@UAEXPBD@Z
	DD	FLAT:?OnProgressChange@CHtmlView@@UAEXJJ@Z
	DD	FLAT:?OnCommandStateChange@CHtmlView@@UAEXJH@Z
	DD	FLAT:?OnDownloadBegin@CHtmlView@@UAEXXZ
	DD	FLAT:?OnDownloadComplete@CHtmlView@@UAEXXZ
	DD	FLAT:?OnTitleChange@CHtmlView@@UAEXPBD@Z
	DD	FLAT:?OnPropertyChange@CHtmlView@@UAEXPBD@Z
	DD	FLAT:?OnNewWindow2@CHtmlView@@UAEXPAPAUIDispatch@@PAH@Z
	DD	FLAT:?OnDocumentComplete@MyWebBrowserWnd@@UAEXPBD@Z
	DD	FLAT:?OnQuit@CHtmlView@@UAEXXZ
	DD	FLAT:?OnVisible@CHtmlView@@UAEXH@Z
	DD	FLAT:?OnToolBar@CHtmlView@@UAEXH@Z
	DD	FLAT:?OnMenuBar@CHtmlView@@UAEXH@Z
	DD	FLAT:?OnStatusBar@CHtmlView@@UAEXH@Z
	DD	FLAT:?OnFullScreen@CHtmlView@@UAEXH@Z
	DD	FLAT:?OnTheaterMode@CHtmlView@@UAEXH@Z
	DD	FLAT:?OnNavigateError@MyWebBrowserWnd@@UAEXPBD0KPAH@Z
	DD	FLAT:?NavigateComplete2@CHtmlView@@MAEXPAUIDispatch@@PAUtagVARIANT@@@Z
	DD	FLAT:?BeforeNavigate2@CHtmlView@@MAEXPAUIDispatch@@PAUtagVARIANT@@1111PAF@Z
	DD	FLAT:?DocumentComplete@CHtmlView@@MAEXPAUIDispatch@@PAUtagVARIANT@@@Z
	DD	FLAT:?NavigateError@CHtmlView@@MAEXPAUIDispatch@@PAUtagVARIANT@@11PAF@Z
CONST	ENDS
;	COMDAT ??_7MyWebBrowserWnd@@6BIWebRefreshObserver@@@
CONST	SEGMENT
??_7MyWebBrowserWnd@@6BIWebRefreshObserver@@@ DD FLAT:??_R4MyWebBrowserWnd@@6BIWebRefreshObserver@@@ ; MyWebBrowserWnd::`vftable'
	DD	FLAT:??_EMyWebBrowserWnd@@WPA@AEPAXI@Z
	DD	FLAT:?IWebRefreshOb_Refresh@MyWebBrowserWnd@@UAEXPBD@Z
CONST	ENDS
;	COMDAT ??_R4MyWebBrowserWnd@@6BCHtmlView@@@
rdata$r	SEGMENT
??_R4MyWebBrowserWnd@@6BCHtmlView@@@ DD 00H		; MyWebBrowserWnd::`RTTI Complete Object Locator'
	DD	00H
	DD	00H
	DD	FLAT:??_R0?AVMyWebBrowserWnd@@@8
	DD	FLAT:??_R3MyWebBrowserWnd@@8
rdata$r	ENDS
;	COMDAT ??_R0?AVMyWebBrowserWnd@@@8
_DATA	SEGMENT
??_R0?AVMyWebBrowserWnd@@@8 DD FLAT:??_7type_info@@6B@	; MyWebBrowserWnd `RTTI Type Descriptor'
	DD	00H
	DB	'.?AVMyWebBrowserWnd@@', 00H
_DATA	ENDS
;	COMDAT ??_R3MyWebBrowserWnd@@8
rdata$r	SEGMENT
??_R3MyWebBrowserWnd@@8 DD 00H				; MyWebBrowserWnd::`RTTI Class Hierarchy Descriptor'
	DD	01H
	DD	0aH
	DD	FLAT:??_R2MyWebBrowserWnd@@8
rdata$r	ENDS
;	COMDAT ??_R2MyWebBrowserWnd@@8
rdata$r	SEGMENT
??_R2MyWebBrowserWnd@@8 DD FLAT:??_R1A@?0A@A@MyWebBrowserWnd@@8 ; MyWebBrowserWnd::`RTTI Base Class Array'
	DD	FLAT:??_R1A@?0A@A@CHtmlView@@8
	DD	FLAT:??_R1A@?0A@A@CFormView@@8
	DD	FLAT:??_R1A@?0A@A@CScrollView@@8
	DD	FLAT:??_R1A@?0A@A@CView@@8
	DD	FLAT:??_R1A@?0A@A@CWnd@@8
	DD	FLAT:??_R1A@?0A@A@CCmdTarget@@8
	DD	FLAT:??_R1A@?0A@A@CObject@@8
	DD	FLAT:??_R1PA@?0A@A@IWebRefreshObserver@@8
	DD	FLAT:??_R1PA@?0A@A@IMessageObserver@@8
rdata$r	ENDS
;	COMDAT ??_R1A@?0A@A@MyWebBrowserWnd@@8
rdata$r	SEGMENT
??_R1A@?0A@A@MyWebBrowserWnd@@8 DD FLAT:??_R0?AVMyWebBrowserWnd@@@8 ; MyWebBrowserWnd::`RTTI Base Class Descriptor at (0,-1,0,0)'
	DD	09H
	DD	00H
	DD	0ffffffffH
	DD	00H
	DD	00H
rdata$r	ENDS
;	COMDAT ??_R1A@?0A@A@CHtmlView@@8
rdata$r	SEGMENT
??_R1A@?0A@A@CHtmlView@@8 DD FLAT:??_R0?AVCHtmlView@@@8	; CHtmlView::`RTTI Base Class Descriptor at (0,-1,0,0)'
	DD	06H
	DD	00H
	DD	0ffffffffH
	DD	00H
	DD	00H
rdata$r	ENDS
;	COMDAT ??_R0?AVCHtmlView@@@8
_DATA	SEGMENT
??_R0?AVCHtmlView@@@8 DD FLAT:??_7type_info@@6B@	; CHtmlView `RTTI Type Descriptor'
	DD	00H
	DB	'.?AVCHtmlView@@', 00H
_DATA	ENDS
;	COMDAT ??_R1A@?0A@A@CFormView@@8
rdata$r	SEGMENT
??_R1A@?0A@A@CFormView@@8 DD FLAT:??_R0?AVCFormView@@@8	; CFormView::`RTTI Base Class Descriptor at (0,-1,0,0)'
	DD	05H
	DD	00H
	DD	0ffffffffH
	DD	00H
	DD	00H
rdata$r	ENDS
;	COMDAT ??_R0?AVCFormView@@@8
_DATA	SEGMENT
??_R0?AVCFormView@@@8 DD FLAT:??_7type_info@@6B@	; CFormView `RTTI Type Descriptor'
	DD	00H
	DB	'.?AVCFormView@@', 00H
_DATA	ENDS
;	COMDAT ??_R1A@?0A@A@CScrollView@@8
rdata$r	SEGMENT
??_R1A@?0A@A@CScrollView@@8 DD FLAT:??_R0?AVCScrollView@@@8 ; CScrollView::`RTTI Base Class Descriptor at (0,-1,0,0)'
	DD	04H
	DD	00H
	DD	0ffffffffH
	DD	00H
	DD	00H
rdata$r	ENDS
;	COMDAT ??_R0?AVCScrollView@@@8
_DATA	SEGMENT
??_R0?AVCScrollView@@@8 DD FLAT:??_7type_info@@6B@	; CScrollView `RTTI Type Descriptor'
	DD	00H
	DB	'.?AVCScrollView@@', 00H
_DATA	ENDS
;	COMDAT ??_R1A@?0A@A@CView@@8
rdata$r	SEGMENT
??_R1A@?0A@A@CView@@8 DD FLAT:??_R0?AVCView@@@8		; CView::`RTTI Base Class Descriptor at (0,-1,0,0)'
	DD	03H
	DD	00H
	DD	0ffffffffH
	DD	00H
	DD	00H
rdata$r	ENDS
;	COMDAT ??_R0?AVCView@@@8
_DATA	SEGMENT
??_R0?AVCView@@@8 DD FLAT:??_7type_info@@6B@		; CView `RTTI Type Descriptor'
	DD	00H
	DB	'.?AVCView@@', 00H
_DATA	ENDS
;	COMDAT ??_R1A@?0A@A@CWnd@@8
rdata$r	SEGMENT
??_R1A@?0A@A@CWnd@@8 DD FLAT:??_R0?AVCWnd@@@8		; CWnd::`RTTI Base Class Descriptor at (0,-1,0,0)'
	DD	02H
	DD	00H
	DD	0ffffffffH
	DD	00H
	DD	00H
rdata$r	ENDS
;	COMDAT ??_R0?AVCWnd@@@8
_DATA	SEGMENT
??_R0?AVCWnd@@@8 DD FLAT:??_7type_info@@6B@		; CWnd `RTTI Type Descriptor'
	DD	00H
	DB	'.?AVCWnd@@', 00H
_DATA	ENDS
;	COMDAT ??_R1A@?0A@A@CCmdTarget@@8
rdata$r	SEGMENT
??_R1A@?0A@A@CCmdTarget@@8 DD FLAT:??_R0?AVCCmdTarget@@@8 ; CCmdTarget::`RTTI Base Class Descriptor at (0,-1,0,0)'
	DD	01H
	DD	00H
	DD	0ffffffffH
	DD	00H
	DD	00H
rdata$r	ENDS
;	COMDAT ??_R0?AVCCmdTarget@@@8
_DATA	SEGMENT
??_R0?AVCCmdTarget@@@8 DD FLAT:??_7type_info@@6B@	; CCmdTarget `RTTI Type Descriptor'
	DD	00H
	DB	'.?AVCCmdTarget@@', 00H
_DATA	ENDS
;	COMDAT ??_R1A@?0A@A@CObject@@8
rdata$r	SEGMENT
??_R1A@?0A@A@CObject@@8 DD FLAT:??_R0?AVCObject@@@8	; CObject::`RTTI Base Class Descriptor at (0,-1,0,0)'
	DD	00H
	DD	00H
	DD	0ffffffffH
	DD	00H
	DD	00H
rdata$r	ENDS
;	COMDAT ??_R0?AVCObject@@@8
_DATA	SEGMENT
??_R0?AVCObject@@@8 DD FLAT:??_7type_info@@6B@		; CObject `RTTI Type Descriptor'
	DD	00H
	DB	'.?AVCObject@@', 00H
_DATA	ENDS
;	COMDAT ??_R1PA@?0A@A@IWebRefreshObserver@@8
rdata$r	SEGMENT
??_R1PA@?0A@A@IWebRefreshObserver@@8 DD FLAT:??_R0?AVIWebRefreshObserver@@@8 ; IWebRefreshObserver::`RTTI Base Class Descriptor at (240,-1,0,0)'
	DD	01H
	DD	0f0H
	DD	0ffffffffH
	DD	00H
	DD	00H
rdata$r	ENDS
;	COMDAT ??_R0?AVIWebRefreshObserver@@@8
_DATA	SEGMENT
??_R0?AVIWebRefreshObserver@@@8 DD FLAT:??_7type_info@@6B@ ; IWebRefreshObserver `RTTI Type Descriptor'
	DD	00H
	DB	'.?AVIWebRefreshObserver@@', 00H
_DATA	ENDS
;	COMDAT ??_R1PA@?0A@A@IMessageObserver@@8
rdata$r	SEGMENT
??_R1PA@?0A@A@IMessageObserver@@8 DD FLAT:??_R0?AVIMessageObserver@@@8 ; IMessageObserver::`RTTI Base Class Descriptor at (240,-1,0,0)'
	DD	00H
	DD	0f0H
	DD	0ffffffffH
	DD	00H
	DD	00H
rdata$r	ENDS
;	COMDAT ??_R0?AVIMessageObserver@@@8
_DATA	SEGMENT
??_R0?AVIMessageObserver@@@8 DD FLAT:??_7type_info@@6B@	; IMessageObserver `RTTI Type Descriptor'
	DD	00H
	DB	'.?AVIMessageObserver@@', 00H
	ORG $-31
	DD	FLAT:??_7type_info@@6B@
	DD	00H
	DB	'.?AVIMessageObserver@@', 00H
_DATA	ENDS
;	COMDAT ??_R4MyWebBrowserWnd@@6BIWebRefreshObserver@@@
rdata$r	SEGMENT
??_R4MyWebBrowserWnd@@6BIWebRefreshObserver@@@ DD 00H	; MyWebBrowserWnd::`RTTI Complete Object Locator'
	DD	0f0H
	DD	00H
	DD	FLAT:??_R0?AVMyWebBrowserWnd@@@8
	DD	FLAT:??_R3MyWebBrowserWnd@@8
; Function compile flags: /Odt
rdata$r	ENDS
_TEXT	SEGMENT
tv136 = -24						; size = 4
tv142 = -20						; size = 4
_this$ = -16						; size = 4
__$EHRec$ = -12						; size = 12
_bShowLoading$ = 8					; size = 4
??0MyWebBrowserWnd@@QAE@H@Z PROC NEAR			; MyWebBrowserWnd::MyWebBrowserWnd
; _this$ = ecx

; 28   : {

  00020	55		 push	 ebp
  00021	8b ec		 mov	 ebp, esp
  00023	6a ff		 push	 -1
  00025	68 00 00 00 00	 push	 __ehhandler$??0MyWebBrowserWnd@@QAE@H@Z
  0002a	64 a1 00 00 00
	00		 mov	 eax, DWORD PTR fs:__except_list
  00030	50		 push	 eax
  00031	64 89 25 00 00
	00 00		 mov	 DWORD PTR fs:__except_list, esp
  00038	83 ec 0c	 sub	 esp, 12			; 0000000cH
  0003b	89 4d f0	 mov	 DWORD PTR _this$[ebp], ecx
  0003e	8b 4d f0	 mov	 ecx, DWORD PTR _this$[ebp]
  00041	e8 00 00 00 00	 call	 ??0CHtmlView@@IAE@XZ	; CHtmlView::CHtmlView
  00046	c7 45 fc 00 00
	00 00		 mov	 DWORD PTR __$EHRec$[ebp+8], 0
  0004d	8b 4d f0	 mov	 ecx, DWORD PTR _this$[ebp]
  00050	81 c1 f0 00 00
	00		 add	 ecx, 240		; 000000f0H
  00056	e8 00 00 00 00	 call	 ??0IWebRefreshObserver@@QAE@XZ
  0005b	c6 45 fc 01	 mov	 BYTE PTR __$EHRec$[ebp+8], 1
  0005f	8b 45 f0	 mov	 eax, DWORD PTR _this$[ebp]
  00062	c7 00 00 00 00
	00		 mov	 DWORD PTR [eax], OFFSET FLAT:??_7MyWebBrowserWnd@@6BCHtmlView@@@
  00068	8b 4d f0	 mov	 ecx, DWORD PTR _this$[ebp]
  0006b	c7 81 f0 00 00
	00 00 00 00 00	 mov	 DWORD PTR [ecx+240], OFFSET FLAT:??_7MyWebBrowserWnd@@6BIWebRefreshObserver@@@
  00075	68 00 00 00 00	 push	 OFFSET FLAT:$SG206219
  0007a	8b 4d f0	 mov	 ecx, DWORD PTR _this$[ebp]
  0007d	81 c1 00 01 00
	00		 add	 ecx, 256		; 00000100H
  00083	ff 15 00 00 00
	00		 call	 DWORD PTR __imp_??0?$CStringT@DV?$StrTraitMFC_DLL@DV?$ChTraitsCRT@D@ATL@@@@@ATL@@QAE@PBD@Z
  00089	c6 45 fc 02	 mov	 BYTE PTR __$EHRec$[ebp+8], 2
  0008d	8b 4d f0	 mov	 ecx, DWORD PTR _this$[ebp]
  00090	81 c1 04 01 00
	00		 add	 ecx, 260		; 00000104H
  00096	e8 00 00 00 00	 call	 ??0CFlashWnd@@QAE@XZ	; CFlashWnd::CFlashWnd
  0009b	c6 45 fc 03	 mov	 BYTE PTR __$EHRec$[ebp+8], 3
  0009f	8b 4d f0	 mov	 ecx, DWORD PTR _this$[ebp]
  000a2	81 c1 cc 01 00
	00		 add	 ecx, 460		; 000001ccH
  000a8	ff 15 00 00 00
	00		 call	 DWORD PTR __imp_??0?$basic_string@DU?$char_traits@D@std@@V?$allocator@D@2@@std@@QAE@XZ
  000ae	c6 45 fc 04	 mov	 BYTE PTR __$EHRec$[ebp+8], 4

; 29   : 	m_bSucceed = TRUE;

  000b2	8b 55 f0	 mov	 edx, DWORD PTR _this$[ebp]
  000b5	c7 82 f4 00 00
	00 01 00 00 00	 mov	 DWORD PTR [edx+244], 1

; 30   : 	m_bReady = FALSE;

  000bf	8b 45 f0	 mov	 eax, DWORD PTR _this$[ebp]
  000c2	c7 80 f8 00 00
	00 00 00 00 00	 mov	 DWORD PTR [eax+248], 0

; 31   : 	m_dwStartShowTime = 0;

  000cc	8b 4d f0	 mov	 ecx, DWORD PTR _this$[ebp]
  000cf	c7 81 fc 00 00
	00 00 00 00 00	 mov	 DWORD PTR [ecx+252], 0

; 32   : 	m_bHomePage = false; //

  000d9	8b 55 f0	 mov	 edx, DWORD PTR _this$[ebp]
  000dc	c6 82 c4 01 00
	00 00		 mov	 BYTE PTR [edx+452], 0

; 33   : 	m_bShowLoading = bShowLoading;

  000e3	8b 45 f0	 mov	 eax, DWORD PTR _this$[ebp]
  000e6	8b 4d 08	 mov	 ecx, DWORD PTR _bShowLoading$[ebp]
  000e9	89 88 c0 01 00
	00		 mov	 DWORD PTR [eax+448], ecx

; 34   : 	AfxGetMessageManager()->AttachMessage(ID_MESSAGE_REFRESH, (IWebRefreshObserver*)this);

  000ef	83 7d f0 00	 cmp	 DWORD PTR _this$[ebp], 0
  000f3	74 0e		 je	 SHORT $L207751
  000f5	8b 55 f0	 mov	 edx, DWORD PTR _this$[ebp]
  000f8	81 c2 f0 00 00
	00		 add	 edx, 240		; 000000f0H
  000fe	89 55 ec	 mov	 DWORD PTR tv142[ebp], edx
  00101	eb 07		 jmp	 SHORT $L207752
$L207751:
  00103	c7 45 ec 00 00
	00 00		 mov	 DWORD PTR tv142[ebp], 0
$L207752:
  0010a	e8 00 00 00 00	 call	 ?AfxGetMessageManager@@YAPAVIMessageManager@@XZ ; AfxGetMessageManager
  0010f	89 45 e8	 mov	 DWORD PTR tv136[ebp], eax
  00112	6a 02		 push	 2
  00114	8b 45 ec	 mov	 eax, DWORD PTR tv142[ebp]
  00117	50		 push	 eax
  00118	68 00 00 00 00	 push	 OFFSET FLAT:_ID_MESSAGE_REFRESH
  0011d	8b 4d e8	 mov	 ecx, DWORD PTR tv136[ebp]
  00120	8b 11		 mov	 edx, DWORD PTR [ecx]
  00122	8b 4d e8	 mov	 ecx, DWORD PTR tv136[ebp]
  00125	ff 52 04	 call	 DWORD PTR [edx+4]

; 35   : }

  00128	c7 45 fc ff ff
	ff ff		 mov	 DWORD PTR __$EHRec$[ebp+8], -1
  0012f	8b 45 f0	 mov	 eax, DWORD PTR _this$[ebp]
  00132	8b 4d f4	 mov	 ecx, DWORD PTR __$EHRec$[ebp]
  00135	64 89 0d 00 00
	00 00		 mov	 DWORD PTR fs:__except_list, ecx
  0013c	8b e5		 mov	 esp, ebp
  0013e	5d		 pop	 ebp
  0013f	c2 04 00	 ret	 4
_TEXT	ENDS
text$x	SEGMENT
$L207753:
  00000	8b 4d f0	 mov	 ecx, DWORD PTR _this$[ebp]
  00003	e9 00 00 00 00	 jmp	 ??1CHtmlView@@UAE@XZ	; CHtmlView::~CHtmlView
$L207754:
  00008	8b 4d f0	 mov	 ecx, DWORD PTR _this$[ebp]
  0000b	81 c1 f0 00 00
	00		 add	 ecx, 240		; 000000f0H
  00011	e9 00 00 00 00	 jmp	 ??1IWebRefreshObserver@@UAE@XZ
$L207755:
  00016	8b 4d f0	 mov	 ecx, DWORD PTR _this$[ebp]
  00019	81 c1 00 01 00
	00		 add	 ecx, 256		; 00000100H
  0001f	ff 25 00 00 00
	00		 jmp	 DWORD PTR __imp_??1?$CStringT@DV?$StrTraitMFC_DLL@DV?$ChTraitsCRT@D@ATL@@@@@ATL@@QAE@XZ
$L207756:
  00025	8b 4d f0	 mov	 ecx, DWORD PTR _this$[ebp]
  00028	81 c1 04 01 00
	00		 add	 ecx, 260		; 00000104H
  0002e	e9 00 00 00 00	 jmp	 ??1CFlashWnd@@UAE@XZ	; CFlashWnd::~CFlashWnd
$L207757:
  00033	8b 4d f0	 mov	 ecx, DWORD PTR _this$[ebp]
  00036	81 c1 cc 01 00
	00		 add	 ecx, 460		; 000001ccH
  0003c	ff 25 00 00 00
	00		 jmp	 DWORD PTR __imp_??1?$basic_string@DU?$char_traits@D@std@@V?$allocator@D@2@@std@@QAE@XZ
__ehhandler$??0MyWebBrowserWnd@@QAE@H@Z:
  00042	b8 00 00 00 00	 mov	 eax, OFFSET FLAT:$T207759
  00047	e9 00 00 00 00	 jmp	 ___CxxFrameHandler
text$x	ENDS
??0MyWebBrowserWnd@@QAE@H@Z ENDP			; MyWebBrowserWnd::MyWebBrowserWnd
PUBLIC	??1MyWebBrowserWnd@@UAE@XZ			; MyWebBrowserWnd::~MyWebBrowserWnd
PUBLIC	??3CObject@@SGXPAX@Z				; CObject::operator delete
; Function compile flags: /Odt
;	COMDAT ??_GMyWebBrowserWnd@@UAEPAXI@Z
_TEXT	SEGMENT
_this$ = -4						; size = 4
___flags$ = 8						; size = 4
??_GMyWebBrowserWnd@@UAEPAXI@Z PROC NEAR		; MyWebBrowserWnd::`scalar deleting destructor', COMDAT
; _this$ = ecx
  00000	55		 push	 ebp
  00001	8b ec		 mov	 ebp, esp
  00003	51		 push	 ecx
  00004	89 4d fc	 mov	 DWORD PTR _this$[ebp], ecx
  00007	8b 4d fc	 mov	 ecx, DWORD PTR _this$[ebp]
  0000a	e8 00 00 00 00	 call	 ??1MyWebBrowserWnd@@UAE@XZ ; MyWebBrowserWnd::~MyWebBrowserWnd
  0000f	8b 45 08	 mov	 eax, DWORD PTR ___flags$[ebp]
  00012	83 e0 01	 and	 eax, 1
  00015	74 09		 je	 SHORT $L206224
  00017	8b 4d fc	 mov	 ecx, DWORD PTR _this$[ebp]
  0001a	51		 push	 ecx
  0001b	e8 00 00 00 00	 call	 ??3CObject@@SGXPAX@Z	; CObject::operator delete
$L206224:
  00020	8b 45 fc	 mov	 eax, DWORD PTR _this$[ebp]
  00023	8b e5		 mov	 esp, ebp
  00025	5d		 pop	 ebp
  00026	c2 04 00	 ret	 4
??_GMyWebBrowserWnd@@UAEPAXI@Z ENDP			; MyWebBrowserWnd::`scalar deleting destructor'
_TEXT	ENDS
PUBLIC	??_R1A@?0A@A@IMessageObserver@@8		; IMessageObserver::`RTTI Base Class Descriptor at (0,-1,0,0)'
PUBLIC	?IWebRefreshOb_Refresh@IWebRefreshObserver@@UAEXPBD@Z ; IWebRefreshObserver::IWebRefreshOb_Refresh
PUBLIC	??_7IWebRefreshObserver@@6B@			; IWebRefreshObserver::`vftable'
PUBLIC	??_GIWebRefreshObserver@@UAEPAXI@Z		; IWebRefreshObserver::`scalar deleting destructor'
PUBLIC	??0IMessageObserver@@QAE@XZ			; IMessageObserver::IMessageObserver
PUBLIC	??_R4IWebRefreshObserver@@6B@			; IWebRefreshObserver::`RTTI Complete Object Locator'
PUBLIC	??_R3IWebRefreshObserver@@8			; IWebRefreshObserver::`RTTI Class Hierarchy Descriptor'
PUBLIC	??_R2IWebRefreshObserver@@8			; IWebRefreshObserver::`RTTI Base Class Array'
PUBLIC	??_R1A@?0A@A@IWebRefreshObserver@@8		; IWebRefreshObserver::`RTTI Base Class Descriptor at (0,-1,0,0)'
EXTRN	??_EIWebRefreshObserver@@UAEPAXI@Z:NEAR		; IWebRefreshObserver::`vector deleting destructor'
;	COMDAT ??_7IWebRefreshObserver@@6B@
CONST	SEGMENT
??_7IWebRefreshObserver@@6B@ DD FLAT:??_R4IWebRefreshObserver@@6B@ ; IWebRefreshObserver::`vftable'
	DD	FLAT:??_EIWebRefreshObserver@@UAEPAXI@Z
	DD	FLAT:?IWebRefreshOb_Refresh@IWebRefreshObserver@@UAEXPBD@Z
CONST	ENDS
;	COMDAT ??_R4IWebRefreshObserver@@6B@
rdata$r	SEGMENT
??_R4IWebRefreshObserver@@6B@ DD 00H			; IWebRefreshObserver::`RTTI Complete Object Locator'
	DD	00H
	DD	00H
	DD	FLAT:??_R0?AVIWebRefreshObserver@@@8
	DD	FLAT:??_R3IWebRefreshObserver@@8
rdata$r	ENDS
;	COMDAT ??_R3IWebRefreshObserver@@8
rdata$r	SEGMENT
??_R3IWebRefreshObserver@@8 DD 00H			; IWebRefreshObserver::`RTTI Class Hierarchy Descriptor'
	DD	00H
	DD	02H
	DD	FLAT:??_R2IWebRefreshObserver@@8
rdata$r	ENDS
;	COMDAT ??_R2IWebRefreshObserver@@8
rdata$r	SEGMENT
??_R2IWebRefreshObserver@@8 DD FLAT:??_R1A@?0A@A@IWebRefreshObserver@@8 ; IWebRefreshObserver::`RTTI Base Class Array'
	DD	FLAT:??_R1A@?0A@A@IMessageObserver@@8
rdata$r	ENDS
;	COMDAT ??_R1A@?0A@A@IWebRefreshObserver@@8
rdata$r	SEGMENT
??_R1A@?0A@A@IWebRefreshObserver@@8 DD FLAT:??_R0?AVIWebRefreshObserver@@@8 ; IWebRefreshObserver::`RTTI Base Class Descriptor at (0,-1,0,0)'
	DD	01H
	DD	00H
	DD	0ffffffffH
	DD	00H
	DD	00H
rdata$r	ENDS
;	COMDAT ??_R1A@?0A@A@IMessageObserver@@8
rdata$r	SEGMENT
??_R1A@?0A@A@IMessageObserver@@8 DD FLAT:??_R0?AVIMessageObserver@@@8 ; IMessageObserver::`RTTI Base Class Descriptor at (0,-1,0,0)'
	DD	00H
	DD	00H
	DD	0ffffffffH
	DD	00H
	DD	00H
; Function compile flags: /Odt
rdata$r	ENDS
;	COMDAT ??0IWebRefreshObserver@@QAE@XZ
_TEXT	SEGMENT
_this$ = -4						; size = 4
??0IWebRefreshObserver@@QAE@XZ PROC NEAR		; IWebRefreshObserver::IWebRefreshObserver, COMDAT
; _this$ = ecx
  00000	55		 push	 ebp
  00001	8b ec		 mov	 ebp, esp
  00003	51		 push	 ecx
  00004	89 4d fc	 mov	 DWORD PTR _this$[ebp], ecx
  00007	8b 4d fc	 mov	 ecx, DWORD PTR _this$[ebp]
  0000a	e8 00 00 00 00	 call	 ??0IMessageObserver@@QAE@XZ
  0000f	8b 45 fc	 mov	 eax, DWORD PTR _this$[ebp]
  00012	c7 00 00 00 00
	00		 mov	 DWORD PTR [eax], OFFSET FLAT:??_7IWebRefreshObserver@@6B@
  00018	8b 45 fc	 mov	 eax, DWORD PTR _this$[ebp]
  0001b	8b e5		 mov	 esp, ebp
  0001d	5d		 pop	 ebp
  0001e	c3		 ret	 0
??0IWebRefreshObserver@@QAE@XZ ENDP			; IWebRefreshObserver::IWebRefreshObserver
; Function compile flags: /Odt
; File d:\boxgit\playbox\playbox\dev\prj\playbox\src\datainterface\iwebrefreshobserver.h
_TEXT	ENDS
;	COMDAT ?IWebRefreshOb_Refresh@IWebRefreshObserver@@UAEXPBD@Z
_TEXT	SEGMENT
_this$ = -4						; size = 4
_psz$ = 8						; size = 4
?IWebRefreshOb_Refresh@IWebRefreshObserver@@UAEXPBD@Z PROC NEAR ; IWebRefreshObserver::IWebRefreshOb_Refresh, COMDAT
; _this$ = ecx

; 8    : 	virtual void IWebRefreshOb_Refresh(const char* psz){};

  00000	55		 push	 ebp
  00001	8b ec		 mov	 ebp, esp
  00003	51		 push	 ecx
  00004	89 4d fc	 mov	 DWORD PTR _this$[ebp], ecx
  00007	8b e5		 mov	 esp, ebp
  00009	5d		 pop	 ebp
  0000a	c2 04 00	 ret	 4
?IWebRefreshOb_Refresh@IWebRefreshObserver@@UAEXPBD@Z ENDP ; IWebRefreshObserver::IWebRefreshOb_Refresh
_TEXT	ENDS
PUBLIC	??1IMessageObserver@@UAE@XZ			; IMessageObserver::~IMessageObserver
; Function compile flags: /Odt
;	COMDAT ??1IWebRefreshObserver@@UAE@XZ
_TEXT	SEGMENT
_this$ = -4						; size = 4
??1IWebRefreshObserver@@UAE@XZ PROC NEAR		; IWebRefreshObserver::~IWebRefreshObserver, COMDAT
; _this$ = ecx
  00000	55		 push	 ebp
  00001	8b ec		 mov	 ebp, esp
  00003	51		 push	 ecx
  00004	89 4d fc	 mov	 DWORD PTR _this$[ebp], ecx
  00007	8b 4d fc	 mov	 ecx, DWORD PTR _this$[ebp]
  0000a	e8 00 00 00 00	 call	 ??1IMessageObserver@@UAE@XZ ; IMessageObserver::~IMessageObserver
  0000f	8b e5		 mov	 esp, ebp
  00011	5d		 pop	 ebp
  00012	c3		 ret	 0
??1IWebRefreshObserver@@UAE@XZ ENDP			; IWebRefreshObserver::~IWebRefreshObserver
_TEXT	ENDS
EXTRN	??3@YAXPAX@Z:NEAR				; operator delete
; Function compile flags: /Odt
;	COMDAT ??_GIWebRefreshObserver@@UAEPAXI@Z
_TEXT	SEGMENT
_this$ = -4						; size = 4
___flags$ = 8						; size = 4
??_GIWebRefreshObserver@@UAEPAXI@Z PROC NEAR		; IWebRefreshObserver::`scalar deleting destructor', COMDAT
; _this$ = ecx
  00000	55		 push	 ebp
  00001	8b ec		 mov	 ebp, esp
  00003	51		 push	 ecx
  00004	89 4d fc	 mov	 DWORD PTR _this$[ebp], ecx
  00007	8b 4d fc	 mov	 ecx, DWORD PTR _this$[ebp]
  0000a	e8 00 00 00 00	 call	 ??1IWebRefreshObserver@@UAE@XZ
  0000f	8b 45 08	 mov	 eax, DWORD PTR ___flags$[ebp]
  00012	83 e0 01	 and	 eax, 1
  00015	74 0c		 je	 SHORT $L206232
  00017	8b 4d fc	 mov	 ecx, DWORD PTR _this$[ebp]
  0001a	51		 push	 ecx
  0001b	e8 00 00 00 00	 call	 ??3@YAXPAX@Z		; operator delete
  00020	83 c4 04	 add	 esp, 4
$L206232:
  00023	8b 45 fc	 mov	 eax, DWORD PTR _this$[ebp]
  00026	8b e5		 mov	 esp, ebp
  00028	5d		 pop	 ebp
  00029	c2 04 00	 ret	 4
??_GIWebRefreshObserver@@UAEPAXI@Z ENDP			; IWebRefreshObserver::`scalar deleting destructor'
_TEXT	ENDS
PUBLIC	??_R4IMessageObserver@@6B@			; IMessageObserver::`RTTI Complete Object Locator'
PUBLIC	??_R3IMessageObserver@@8			; IMessageObserver::`RTTI Class Hierarchy Descriptor'
PUBLIC	??_R2IMessageObserver@@8			; IMessageObserver::`RTTI Base Class Array'
PUBLIC	??_7IMessageObserver@@6B@			; IMessageObserver::`vftable'
PUBLIC	??_GIMessageObserver@@UAEPAXI@Z			; IMessageObserver::`scalar deleting destructor'
EXTRN	??_EIMessageObserver@@UAEPAXI@Z:NEAR		; IMessageObserver::`vector deleting destructor'
;	COMDAT ??_7IMessageObserver@@6B@
CONST	SEGMENT
??_7IMessageObserver@@6B@ DD FLAT:??_R4IMessageObserver@@6B@ ; IMessageObserver::`vftable'
	DD	FLAT:??_EIMessageObserver@@UAEPAXI@Z
CONST	ENDS
;	COMDAT ??_R4IMessageObserver@@6B@
rdata$r	SEGMENT
??_R4IMessageObserver@@6B@ DD 00H			; IMessageObserver::`RTTI Complete Object Locator'
	DD	00H
	DD	00H
	DD	FLAT:??_R0?AVIMessageObserver@@@8
	DD	FLAT:??_R3IMessageObserver@@8
rdata$r	ENDS
;	COMDAT ??_R3IMessageObserver@@8
rdata$r	SEGMENT
??_R3IMessageObserver@@8 DD 00H				; IMessageObserver::`RTTI Class Hierarchy Descriptor'
	DD	00H
	DD	01H
	DD	FLAT:??_R2IMessageObserver@@8
rdata$r	ENDS
;	COMDAT ??_R2IMessageObserver@@8
rdata$r	SEGMENT
??_R2IMessageObserver@@8 DD FLAT:??_R1A@?0A@A@IMessageObserver@@8 ; IMessageObserver::`RTTI Base Class Array'
; Function compile flags: /Odt
rdata$r	ENDS
;	COMDAT ??0IMessageObserver@@QAE@XZ
_TEXT	SEGMENT
_this$ = -4						; size = 4
??0IMessageObserver@@QAE@XZ PROC NEAR			; IMessageObserver::IMessageObserver, COMDAT
; _this$ = ecx
  00000	55		 push	 ebp
  00001	8b ec		 mov	 ebp, esp
  00003	51		 push	 ecx
  00004	89 4d fc	 mov	 DWORD PTR _this$[ebp], ecx
  00007	8b 45 fc	 mov	 eax, DWORD PTR _this$[ebp]
  0000a	c7 00 00 00 00
	00		 mov	 DWORD PTR [eax], OFFSET FLAT:??_7IMessageObserver@@6B@
  00010	8b 45 fc	 mov	 eax, DWORD PTR _this$[ebp]
  00013	8b e5		 mov	 esp, ebp
  00015	5d		 pop	 ebp
  00016	c3		 ret	 0
??0IMessageObserver@@QAE@XZ ENDP			; IMessageObserver::IMessageObserver
_TEXT	ENDS
xdata$x	SEGMENT
$T207790 DD	0ffffffffH
	DD	FLAT:$L207780
	DD	00H
	DD	FLAT:$L207783
	DD	01H
	DD	FLAT:$L207784
	DD	02H
	DD	FLAT:$L207785
	DD	03H
	DD	FLAT:$L207786
$T207788 DD	019930520H
	DD	05H
	DD	FLAT:$T207790
	DD	2 DUP(00H)
	DD	2 DUP(00H)
; Function compile flags: /Odt
; File d:\boxgit\playbox\playbox\dev\prj\playbox\src\module\webinteract\mywebbrowserwnd.cpp
xdata$x	ENDS
_TEXT	SEGMENT
tv68 = -28						; size = 4
tv84 = -24						; size = 4
tv89 = -20						; size = 4
_this$ = -16						; size = 4
__$EHRec$ = -12						; size = 12
??1MyWebBrowserWnd@@UAE@XZ PROC NEAR			; MyWebBrowserWnd::~MyWebBrowserWnd
; _this$ = ecx

; 38   : {

  00150	55		 push	 ebp
  00151	8b ec		 mov	 ebp, esp
  00153	6a ff		 push	 -1
  00155	68 00 00 00 00	 push	 __ehhandler$??1MyWebBrowserWnd@@UAE@XZ
  0015a	64 a1 00 00 00
	00		 mov	 eax, DWORD PTR fs:__except_list
  00160	50		 push	 eax
  00161	64 89 25 00 00
	00 00		 mov	 DWORD PTR fs:__except_list, esp
  00168	83 ec 10	 sub	 esp, 16			; 00000010H
  0016b	89 4d f0	 mov	 DWORD PTR _this$[ebp], ecx
  0016e	8b 45 f0	 mov	 eax, DWORD PTR _this$[ebp]
  00171	c7 00 00 00 00
	00		 mov	 DWORD PTR [eax], OFFSET FLAT:??_7MyWebBrowserWnd@@6BCHtmlView@@@
  00177	8b 4d f0	 mov	 ecx, DWORD PTR _this$[ebp]
  0017a	c7 81 f0 00 00
	00 00 00 00 00	 mov	 DWORD PTR [ecx+240], OFFSET FLAT:??_7MyWebBrowserWnd@@6BIWebRefreshObserver@@@
  00184	c7 45 fc 04 00
	00 00		 mov	 DWORD PTR __$EHRec$[ebp+8], 4

; 39   : 	AfxGetMessageManager()->DetachMessage(ID_MESSAGE_REFRESH, (IWebRefreshObserver*)this);

  0018b	83 7d f0 00	 cmp	 DWORD PTR _this$[ebp], 0
  0018f	74 0e		 je	 SHORT $L207778
  00191	8b 55 f0	 mov	 edx, DWORD PTR _this$[ebp]
  00194	81 c2 f0 00 00
	00		 add	 edx, 240		; 000000f0H
  0019a	89 55 ec	 mov	 DWORD PTR tv89[ebp], edx
  0019d	eb 07		 jmp	 SHORT $L207779
$L207778:
  0019f	c7 45 ec 00 00
	00 00		 mov	 DWORD PTR tv89[ebp], 0
$L207779:
  001a6	e8 00 00 00 00	 call	 ?AfxGetMessageManager@@YAPAVIMessageManager@@XZ ; AfxGetMessageManager
  001ab	89 45 e8	 mov	 DWORD PTR tv84[ebp], eax
  001ae	8b 45 ec	 mov	 eax, DWORD PTR tv89[ebp]
  001b1	50		 push	 eax
  001b2	68 00 00 00 00	 push	 OFFSET FLAT:_ID_MESSAGE_REFRESH
  001b7	8b 4d e8	 mov	 ecx, DWORD PTR tv84[ebp]
  001ba	8b 11		 mov	 edx, DWORD PTR [ecx]
  001bc	8b 4d e8	 mov	 ecx, DWORD PTR tv84[ebp]
  001bf	ff 52 08	 call	 DWORD PTR [edx+8]

; 40   : }

  001c2	c6 45 fc 03	 mov	 BYTE PTR __$EHRec$[ebp+8], 3
  001c6	8b 4d f0	 mov	 ecx, DWORD PTR _this$[ebp]
  001c9	81 c1 cc 01 00
	00		 add	 ecx, 460		; 000001ccH
  001cf	ff 15 00 00 00
	00		 call	 DWORD PTR __imp_??1?$basic_string@DU?$char_traits@D@std@@V?$allocator@D@2@@std@@QAE@XZ
  001d5	c6 45 fc 02	 mov	 BYTE PTR __$EHRec$[ebp+8], 2
  001d9	8b 4d f0	 mov	 ecx, DWORD PTR _this$[ebp]
  001dc	81 c1 04 01 00
	00		 add	 ecx, 260		; 00000104H
  001e2	e8 00 00 00 00	 call	 ??1CFlashWnd@@UAE@XZ	; CFlashWnd::~CFlashWnd
  001e7	c6 45 fc 01	 mov	 BYTE PTR __$EHRec$[ebp+8], 1
  001eb	8b 4d f0	 mov	 ecx, DWORD PTR _this$[ebp]
  001ee	81 c1 00 01 00
	00		 add	 ecx, 256		; 00000100H
  001f4	ff 15 00 00 00
	00		 call	 DWORD PTR __imp_??1?$CStringT@DV?$StrTraitMFC_DLL@DV?$ChTraitsCRT@D@ATL@@@@@ATL@@QAE@XZ
  001fa	c6 45 fc 00	 mov	 BYTE PTR __$EHRec$[ebp+8], 0
  001fe	83 7d f0 00	 cmp	 DWORD PTR _this$[ebp], 0
  00202	74 0d		 je	 SHORT $L207776
  00204	8b 45 f0	 mov	 eax, DWORD PTR _this$[ebp]
  00207	05 f0 00 00 00	 add	 eax, 240		; 000000f0H
  0020c	89 45 e4	 mov	 DWORD PTR tv68[ebp], eax
  0020f	eb 07		 jmp	 SHORT $L207777
$L207776:
  00211	c7 45 e4 00 00
	00 00		 mov	 DWORD PTR tv68[ebp], 0
$L207777:
  00218	8b 4d e4	 mov	 ecx, DWORD PTR tv68[ebp]
  0021b	e8 00 00 00 00	 call	 ??1IWebRefreshObserver@@UAE@XZ
  00220	c7 45 fc ff ff
	ff ff		 mov	 DWORD PTR __$EHRec$[ebp+8], -1
  00227	8b 4d f0	 mov	 ecx, DWORD PTR _this$[ebp]
  0022a	e8 00 00 00 00	 call	 ??1CHtmlView@@UAE@XZ	; CHtmlView::~CHtmlView
  0022f	8b 4d f4	 mov	 ecx, DWORD PTR __$EHRec$[ebp]
  00232	64 89 0d 00 00
	00 00		 mov	 DWORD PTR fs:__except_list, ecx
  00239	8b e5		 mov	 esp, ebp
  0023b	5d		 pop	 ebp
  0023c	c3		 ret	 0
_TEXT	ENDS
text$x	SEGMENT
$L207780:
  0004c	8b 4d f0	 mov	 ecx, DWORD PTR _this$[ebp]
  0004f	e9 00 00 00 00	 jmp	 ??1CHtmlView@@UAE@XZ	; CHtmlView::~CHtmlView
$L207783:
  00054	83 7d f0 00	 cmp	 DWORD PTR _this$[ebp], 0
  00058	0f 84 10 00 00
	00		 je	 $L207781
  0005e	8b 45 f0	 mov	 eax, DWORD PTR _this$[ebp]
  00061	05 f0 00 00 00	 add	 eax, 240		; 000000f0H
  00066	89 45 e4	 mov	 DWORD PTR tv68[ebp], eax
  00069	e9 07 00 00 00	 jmp	 $L207782
$L207781:
  0006e	c7 45 e4 00 00
	00 00		 mov	 DWORD PTR tv68[ebp], 0
$L207782:
  00075	8b 4d e4	 mov	 ecx, DWORD PTR tv68[ebp]
  00078	e9 00 00 00 00	 jmp	 ??1IWebRefreshObserver@@UAE@XZ
$L207784:
  0007d	8b 4d f0	 mov	 ecx, DWORD PTR _this$[ebp]
  00080	81 c1 00 01 00
	00		 add	 ecx, 256		; 00000100H
  00086	ff 25 00 00 00
	00		 jmp	 DWORD PTR __imp_??1?$CStringT@DV?$StrTraitMFC_DLL@DV?$ChTraitsCRT@D@ATL@@@@@ATL@@QAE@XZ
$L207785:
  0008c	8b 4d f0	 mov	 ecx, DWORD PTR _this$[ebp]
  0008f	81 c1 04 01 00
	00		 add	 ecx, 260		; 00000104H
  00095	e9 00 00 00 00	 jmp	 ??1CFlashWnd@@UAE@XZ	; CFlashWnd::~CFlashWnd
$L207786:
  0009a	8b 4d f0	 mov	 ecx, DWORD PTR _this$[ebp]
  0009d	81 c1 cc 01 00
	00		 add	 ecx, 460		; 000001ccH
  000a3	ff 25 00 00 00
	00		 jmp	 DWORD PTR __imp_??1?$basic_string@DU?$char_traits@D@std@@V?$allocator@D@2@@std@@QAE@XZ
__ehhandler$??1MyWebBrowserWnd@@UAE@XZ:
  000a9	b8 00 00 00 00	 mov	 eax, OFFSET FLAT:$T207788
  000ae	e9 00 00 00 00	 jmp	 ___CxxFrameHandler
text$x	ENDS
??1MyWebBrowserWnd@@UAE@XZ ENDP				; MyWebBrowserWnd::~MyWebBrowserWnd
PUBLIC	?GetThisMessageMap@MyWebBrowserWnd@@KGPBUAFX_MSGMAP@@XZ ; MyWebBrowserWnd::GetThisMessageMap
; Function compile flags: /Odt
_TEXT	SEGMENT
?GetThisMessageMap@MyWebBrowserWnd@@KGPBUAFX_MSGMAP@@XZ PROC NEAR ; MyWebBrowserWnd::GetThisMessageMap

; 42   : BEGIN_MESSAGE_MAP(MyWebBrowserWnd, CHtmlView)

  00240	55		 push	 ebp
  00241	8b ec		 mov	 ebp, esp
  00243	b8 00 00 00 00	 mov	 eax, OFFSET FLAT:?messageMap@MyWebBrowserWnd@@1UAFX_MSGMAP@@B ; MyWebBrowserWnd::messageMap
  00248	5d		 pop	 ebp
  00249	c3		 ret	 0
?GetThisMessageMap@MyWebBrowserWnd@@KGPBUAFX_MSGMAP@@XZ ENDP ; MyWebBrowserWnd::GetThisMessageMap
; Function compile flags: /Odt
_this$ = -4						; size = 4
?GetMessageMap@MyWebBrowserWnd@@MBEPBUAFX_MSGMAP@@XZ PROC NEAR ; MyWebBrowserWnd::GetMessageMap
; _this$ = ecx

; 42   : BEGIN_MESSAGE_MAP(MyWebBrowserWnd, CHtmlView)

  00250	55		 push	 ebp
  00251	8b ec		 mov	 ebp, esp
  00253	51		 push	 ecx
  00254	89 4d fc	 mov	 DWORD PTR _this$[ebp], ecx
  00257	b8 00 00 00 00	 mov	 eax, OFFSET FLAT:?messageMap@MyWebBrowserWnd@@1UAFX_MSGMAP@@B ; MyWebBrowserWnd::messageMap
  0025c	8b e5		 mov	 esp, ebp
  0025e	5d		 pop	 ebp
  0025f	c3		 ret	 0
?GetMessageMap@MyWebBrowserWnd@@MBEPBUAFX_MSGMAP@@XZ ENDP ; MyWebBrowserWnd::GetMessageMap
_TEXT	ENDS
PUBLIC	?GetClientRect@CWnd@@QBEXPAUtagRECT@@@Z		; CWnd::GetClientRect
PUBLIC	??I?$CComPtrBase@UIWebBrowser2@@@ATL@@QAEPAPAUIWebBrowser2@@XZ ; ATL::CComPtrBase<IWebBrowser2>::operator&
PUBLIC	??4?$CComPtr@UIWebBrowser2@@@ATL@@QAEPAUIWebBrowser2@@PAU2@@Z ; ATL::CComPtr<IWebBrowser2>::operator=
PUBLIC	??0CCustomOccManager@@QAE@XZ			; CCustomOccManager::CCustomOccManager
EXTRN	_IID_IWebBrowser2:BYTE
EXTRN	_CLSID_WebBrowser:BYTE
EXTRN	?AfxEnableControlContainer@@YAXPAVCOccManager@@@Z:NEAR ; AfxEnableControlContainer
EXTRN	?Create@CWnd@@UAEHPBD0KABUtagRECT@@PAV1@IPAUCCreateContext@@@Z:NEAR ; CWnd::Create
EXTRN	?CreateControl@CWnd@@QAEHABU_GUID@@PBDKABUtagRECT@@PAV1@IPAVCFile@@HPA_W@Z:NEAR ; CWnd::CreateControl
EXTRN	??2CNoTrackObject@@SGPAXI@Z:NEAR		; CNoTrackObject::operator new
EXTRN	??3CNoTrackObject@@SGXPAX@Z:NEAR		; CNoTrackObject::operator delete
EXTRN	?GetControlUnknown@CWnd@@QAEPAUIUnknown@@XZ:NEAR ; CWnd::GetControlUnknown
xdata$x	SEGMENT
$T207802 DD	0ffffffffH
	DD	FLAT:$L207798
$T207800 DD	019930520H
	DD	01H
	DD	FLAT:$T207802
	DD	2 DUP(00H)
	DD	2 DUP(00H)
; Function compile flags: /Odt
xdata$x	ENDS
_TEXT	SEGMENT
tv72 = -52						; size = 4
_this$ = -48						; size = 4
$T207795 = -44						; size = 4
$T207794 = -40						; size = 4
_rectClient$ = -36					; size = 16
_hr$ = -20						; size = 4
_lpUnk$ = -16						; size = 4
__$EHRec$ = -12						; size = 12
_lpszClassName$ = 8					; size = 4
_lpszWindowName$ = 12					; size = 4
_dwStyle$ = 16						; size = 4
_rect$ = 20						; size = 4
_pParentWnd$ = 24					; size = 4
_nID$ = 28						; size = 4
_pContext$ = 32						; size = 4
?Create@MyWebBrowserWnd@@UAEHPBD0KABUtagRECT@@PAVCWnd@@IPAUCCreateContext@@@Z PROC NEAR ; MyWebBrowserWnd::Create
; _this$ = ecx

; 52   : {	

  00260	55		 push	 ebp
  00261	8b ec		 mov	 ebp, esp
  00263	6a ff		 push	 -1
  00265	68 00 00 00 00	 push	 __ehhandler$?Create@MyWebBrowserWnd@@UAEHPBD0KABUtagRECT@@PAVCWnd@@IPAUCCreateContext@@@Z
  0026a	64 a1 00 00 00
	00		 mov	 eax, DWORD PTR fs:__except_list
  00270	50		 push	 eax
  00271	64 89 25 00 00
	00 00		 mov	 DWORD PTR fs:__except_list, esp
  00278	83 ec 28	 sub	 esp, 40			; 00000028H
  0027b	89 4d d0	 mov	 DWORD PTR _this$[ebp], ecx

; 53   : 	m_Mgr = new CCustomOccManager();

  0027e	6a 04		 push	 4
  00280	e8 00 00 00 00	 call	 ??2CNoTrackObject@@SGPAXI@Z ; CNoTrackObject::operator new
  00285	89 45 d4	 mov	 DWORD PTR $T207795[ebp], eax
  00288	c7 45 fc 00 00
	00 00		 mov	 DWORD PTR __$EHRec$[ebp+8], 0
  0028f	83 7d d4 00	 cmp	 DWORD PTR $T207795[ebp], 0
  00293	74 0d		 je	 SHORT $L207796
  00295	8b 4d d4	 mov	 ecx, DWORD PTR $T207795[ebp]
  00298	e8 00 00 00 00	 call	 ??0CCustomOccManager@@QAE@XZ ; CCustomOccManager::CCustomOccManager
  0029d	89 45 cc	 mov	 DWORD PTR tv72[ebp], eax
  002a0	eb 07		 jmp	 SHORT $L207797
$L207796:
  002a2	c7 45 cc 00 00
	00 00		 mov	 DWORD PTR tv72[ebp], 0
$L207797:
  002a9	8b 45 cc	 mov	 eax, DWORD PTR tv72[ebp]
  002ac	89 45 d8	 mov	 DWORD PTR $T207794[ebp], eax
  002af	c7 45 fc ff ff
	ff ff		 mov	 DWORD PTR __$EHRec$[ebp+8], -1
  002b6	8b 4d d0	 mov	 ecx, DWORD PTR _this$[ebp]
  002b9	8b 55 d8	 mov	 edx, DWORD PTR $T207794[ebp]
  002bc	89 91 c8 01 00
	00		 mov	 DWORD PTR [ecx+456], edx

; 54   : 
; 55   : 	m_pCreateContext = pContext;

  002c2	8b 45 d0	 mov	 eax, DWORD PTR _this$[ebp]
  002c5	8b 4d 20	 mov	 ecx, DWORD PTR _pContext$[ebp]
  002c8	89 88 8c 00 00
	00		 mov	 DWORD PTR [eax+140], ecx

; 56   : 	if (!CView::Create(lpszClassName, lpszWindowName,dwStyle, rect, pParentWnd,  nID, pContext))

  002ce	8b 55 20	 mov	 edx, DWORD PTR _pContext$[ebp]
  002d1	52		 push	 edx
  002d2	8b 45 1c	 mov	 eax, DWORD PTR _nID$[ebp]
  002d5	50		 push	 eax
  002d6	8b 4d 18	 mov	 ecx, DWORD PTR _pParentWnd$[ebp]
  002d9	51		 push	 ecx
  002da	8b 55 14	 mov	 edx, DWORD PTR _rect$[ebp]
  002dd	52		 push	 edx
  002de	8b 45 10	 mov	 eax, DWORD PTR _dwStyle$[ebp]
  002e1	50		 push	 eax
  002e2	8b 4d 0c	 mov	 ecx, DWORD PTR _lpszWindowName$[ebp]
  002e5	51		 push	 ecx
  002e6	8b 55 08	 mov	 edx, DWORD PTR _lpszClassName$[ebp]
  002e9	52		 push	 edx
  002ea	8b 4d d0	 mov	 ecx, DWORD PTR _this$[ebp]
  002ed	e8 00 00 00 00	 call	 ?Create@CWnd@@UAEHPBD0KABUtagRECT@@PAV1@IPAUCCreateContext@@@Z ; CWnd::Create
  002f2	85 c0		 test	 eax, eax
  002f4	75 07		 jne	 SHORT $L206287

; 57   : 	{
; 58   : 		return FALSE;

  002f6	33 c0		 xor	 eax, eax
  002f8	e9 d2 00 00 00	 jmp	 $L206282
$L206287:

; 59   : 	}
; 60   : 
; 61   : 	AfxEnableControlContainer(m_Mgr);

  002fd	8b 45 d0	 mov	 eax, DWORD PTR _this$[ebp]
  00300	8b 88 c8 01 00
	00		 mov	 ecx, DWORD PTR [eax+456]
  00306	51		 push	 ecx
  00307	e8 00 00 00 00	 call	 ?AfxEnableControlContainer@@YAXPAVCOccManager@@@Z ; AfxEnableControlContainer
  0030c	83 c4 04	 add	 esp, 4

; 62   : 
; 63   : 	RECT rectClient;
; 64   : 	GetClientRect(&rectClient);

  0030f	8d 55 dc	 lea	 edx, DWORD PTR _rectClient$[ebp]
  00312	52		 push	 edx
  00313	8b 4d d0	 mov	 ecx, DWORD PTR _this$[ebp]
  00316	e8 00 00 00 00	 call	 ?GetClientRect@CWnd@@QBEXPAUtagRECT@@@Z ; CWnd::GetClientRect

; 65   : 	if (!m_wndBrowser.CreateControl(CLSID_WebBrowser, lpszWindowName,WS_VISIBLE | WS_CHILD, rectClient, this, AFX_IDW_PANE_FIRST))

  0031b	6a 00		 push	 0
  0031d	6a 00		 push	 0
  0031f	6a 00		 push	 0
  00321	68 00 e9 00 00	 push	 59648			; 0000e900H
  00326	8b 45 d0	 mov	 eax, DWORD PTR _this$[ebp]
  00329	50		 push	 eax
  0032a	8d 4d dc	 lea	 ecx, DWORD PTR _rectClient$[ebp]
  0032d	51		 push	 ecx
  0032e	68 00 00 00 50	 push	 1342177280		; 50000000H
  00333	8b 55 0c	 mov	 edx, DWORD PTR _lpszWindowName$[ebp]
  00336	52		 push	 edx
  00337	68 00 00 00 00	 push	 OFFSET FLAT:_CLSID_WebBrowser
  0033c	8b 4d d0	 mov	 ecx, DWORD PTR _this$[ebp]
  0033f	81 c1 98 00 00
	00		 add	 ecx, 152		; 00000098H
  00345	e8 00 00 00 00	 call	 ?CreateControl@CWnd@@QAEHABU_GUID@@PBDKABUtagRECT@@PAV1@IPAVCFile@@HPA_W@Z ; CWnd::CreateControl
  0034a	85 c0		 test	 eax, eax
  0034c	75 0f		 jne	 SHORT $L206289

; 66   : 	{
; 67   : 		DestroyWindow();

  0034e	8b 45 d0	 mov	 eax, DWORD PTR _this$[ebp]
  00351	8b 10		 mov	 edx, DWORD PTR [eax]
  00353	8b 4d d0	 mov	 ecx, DWORD PTR _this$[ebp]
  00356	ff 52 68	 call	 DWORD PTR [edx+104]

; 68   : 		return FALSE;

  00359	33 c0		 xor	 eax, eax
  0035b	eb 72		 jmp	 SHORT $L206282
$L206289:

; 69   : 	}
; 70   : 
; 71   : 	LPUNKNOWN lpUnk = m_wndBrowser.GetControlUnknown();

  0035d	8b 4d d0	 mov	 ecx, DWORD PTR _this$[ebp]
  00360	81 c1 98 00 00
	00		 add	 ecx, 152		; 00000098H
  00366	e8 00 00 00 00	 call	 ?GetControlUnknown@CWnd@@QAEPAUIUnknown@@XZ ; CWnd::GetControlUnknown
  0036b	89 45 f0	 mov	 DWORD PTR _lpUnk$[ebp], eax

; 72   : 	HRESULT hr = lpUnk->QueryInterface(IID_IWebBrowser2, (void**) &m_pBrowserApp);

  0036e	8b 4d d0	 mov	 ecx, DWORD PTR _this$[ebp]
  00371	81 c1 ec 00 00
	00		 add	 ecx, 236		; 000000ecH
  00377	e8 00 00 00 00	 call	 ??I?$CComPtrBase@UIWebBrowser2@@@ATL@@QAEPAPAUIWebBrowser2@@XZ ; ATL::CComPtrBase<IWebBrowser2>::operator&
  0037c	50		 push	 eax
  0037d	68 00 00 00 00	 push	 OFFSET FLAT:_IID_IWebBrowser2
  00382	8b 45 f0	 mov	 eax, DWORD PTR _lpUnk$[ebp]
  00385	8b 08		 mov	 ecx, DWORD PTR [eax]
  00387	8b 55 f0	 mov	 edx, DWORD PTR _lpUnk$[ebp]
  0038a	52		 push	 edx
  0038b	ff 11		 call	 DWORD PTR [ecx]
  0038d	89 45 ec	 mov	 DWORD PTR _hr$[ebp], eax

; 73   : 	if (!SUCCEEDED(hr))

  00390	83 7d ec 00	 cmp	 DWORD PTR _hr$[ebp], 0
  00394	7d 34		 jge	 SHORT $L206294

; 74   : 	{
; 75   : 		m_pBrowserApp = NULL;

  00396	6a 00		 push	 0
  00398	8b 4d d0	 mov	 ecx, DWORD PTR _this$[ebp]
  0039b	81 c1 ec 00 00
	00		 add	 ecx, 236		; 000000ecH
  003a1	e8 00 00 00 00	 call	 ??4?$CComPtr@UIWebBrowser2@@@ATL@@QAEPAUIWebBrowser2@@PAU2@@Z ; ATL::CComPtr<IWebBrowser2>::operator=

; 76   : 		m_wndBrowser.DestroyWindow();

  003a6	8b 4d d0	 mov	 ecx, DWORD PTR _this$[ebp]
  003a9	81 c1 98 00 00
	00		 add	 ecx, 152		; 00000098H
  003af	8b 45 d0	 mov	 eax, DWORD PTR _this$[ebp]
  003b2	8b 90 98 00 00
	00		 mov	 edx, DWORD PTR [eax+152]
  003b8	ff 52 68	 call	 DWORD PTR [edx+104]

; 77   : 		DestroyWindow();

  003bb	8b 45 d0	 mov	 eax, DWORD PTR _this$[ebp]
  003be	8b 10		 mov	 edx, DWORD PTR [eax]
  003c0	8b 4d d0	 mov	 ecx, DWORD PTR _this$[ebp]
  003c3	ff 52 68	 call	 DWORD PTR [edx+104]

; 78   : 		return FALSE;

  003c6	33 c0		 xor	 eax, eax
  003c8	eb 05		 jmp	 SHORT $L206282
$L206294:

; 79   : 	}
; 80   : 	return TRUE;

  003ca	b8 01 00 00 00	 mov	 eax, 1
$L206282:

; 81   : }

  003cf	8b 4d f4	 mov	 ecx, DWORD PTR __$EHRec$[ebp]
  003d2	64 89 0d 00 00
	00 00		 mov	 DWORD PTR fs:__except_list, ecx
  003d9	8b e5		 mov	 esp, ebp
  003db	5d		 pop	 ebp
  003dc	c2 1c 00	 ret	 28			; 0000001cH
_TEXT	ENDS
text$x	SEGMENT
$L207798:
  000b3	8b 45 d4	 mov	 eax, DWORD PTR $T207795[ebp]
  000b6	50		 push	 eax
  000b7	e8 00 00 00 00	 call	 ??3CNoTrackObject@@SGXPAX@Z ; CNoTrackObject::operator delete
  000bc	c3		 ret	 0
__ehhandler$?Create@MyWebBrowserWnd@@UAEHPBD0KABUtagRECT@@PAVCWnd@@IPAUCCreateContext@@@Z:
  000bd	b8 00 00 00 00	 mov	 eax, OFFSET FLAT:$T207800
  000c2	e9 00 00 00 00	 jmp	 ___CxxFrameHandler
text$x	ENDS
?Create@MyWebBrowserWnd@@UAEHPBD0KABUtagRECT@@PAVCWnd@@IPAUCCreateContext@@@Z ENDP ; MyWebBrowserWnd::Create
PUBLIC	?CreateSite@CCustomOccManager@@UAEPAVCOleControlSite@@PAVCOleControlContainer@@@Z ; CCustomOccManager::CreateSite
PUBLIC	??_7CCustomOccManager@@6B@			; CCustomOccManager::`vftable'
PUBLIC	??_GCCustomOccManager@@UAEPAXI@Z		; CCustomOccManager::`scalar deleting destructor'
PUBLIC	??0COccManager@@QAE@XZ				; COccManager::COccManager
PUBLIC	??_R0?AVCNoTrackObject@@@8			; CNoTrackObject `RTTI Type Descriptor'
PUBLIC	??_R1A@?0A@A@CNoTrackObject@@8			; CNoTrackObject::`RTTI Base Class Descriptor at (0,-1,0,0)'
PUBLIC	??_R4CCustomOccManager@@6B@			; CCustomOccManager::`RTTI Complete Object Locator'
PUBLIC	??_R0?AVCCustomOccManager@@@8			; CCustomOccManager `RTTI Type Descriptor'
PUBLIC	??_R3CCustomOccManager@@8			; CCustomOccManager::`RTTI Class Hierarchy Descriptor'
PUBLIC	??_R2CCustomOccManager@@8			; CCustomOccManager::`RTTI Base Class Array'
PUBLIC	??_R1A@?0A@A@CCustomOccManager@@8		; CCustomOccManager::`RTTI Base Class Descriptor at (0,-1,0,0)'
PUBLIC	??_R1A@?0A@A@COccManager@@8			; COccManager::`RTTI Base Class Descriptor at (0,-1,0,0)'
PUBLIC	??_R0?AVCOccManager@@@8				; COccManager `RTTI Type Descriptor'
EXTRN	??_ECCustomOccManager@@UAEPAXI@Z:NEAR		; CCustomOccManager::`vector deleting destructor'
EXTRN	?OnEvent@COccManager@@UAEHPAVCCmdTarget@@IPAUAFX_EVENT@@PAUAFX_CMDHANDLERINFO@@@Z:NEAR ; COccManager::OnEvent
EXTRN	?CreateContainer@COccManager@@UAEPAVCOleControlContainer@@PAVCWnd@@@Z:NEAR ; COccManager::CreateContainer
EXTRN	?PreCreateDialog@COccManager@@UAEPBUDLGTEMPLATE@@PAU_AFX_OCC_DIALOG_INFO@@PBU2@@Z:NEAR ; COccManager::PreCreateDialog
EXTRN	?PostCreateDialog@COccManager@@UAEXPAU_AFX_OCC_DIALOG_INFO@@@Z:NEAR ; COccManager::PostCreateDialog
EXTRN	?SplitDialogTemplate@COccManager@@UAEPAUDLGTEMPLATE@@PBU2@PAPAUDLGITEMTEMPLATE@@@Z:NEAR ; COccManager::SplitDialogTemplate
EXTRN	?CreateDlgControls@COccManager@@UAEHPAVCWnd@@PBDPAU_AFX_OCC_DIALOG_INFO@@@Z:NEAR ; COccManager::CreateDlgControls
EXTRN	?CreateDlgControls@COccManager@@UAEHPAVCWnd@@PAXPAU_AFX_OCC_DIALOG_INFO@@@Z:NEAR ; COccManager::CreateDlgControls
EXTRN	?IsDialogMessageA@COccManager@@UAEHPAVCWnd@@PAUtagMSG@@@Z:NEAR ; COccManager::IsDialogMessageA
;	COMDAT ??_7CCustomOccManager@@6B@
; File d:\boxgit\playbox\playbox\dev\prj\playbox\src\module\webinteract\custsite.h
CONST	SEGMENT
??_7CCustomOccManager@@6B@ DD FLAT:??_R4CCustomOccManager@@6B@ ; CCustomOccManager::`vftable'
	DD	FLAT:??_ECCustomOccManager@@UAEPAXI@Z
	DD	FLAT:?OnEvent@COccManager@@UAEHPAVCCmdTarget@@IPAUAFX_EVENT@@PAUAFX_CMDHANDLERINFO@@@Z
	DD	FLAT:?CreateContainer@COccManager@@UAEPAVCOleControlContainer@@PAVCWnd@@@Z
	DD	FLAT:?CreateSite@CCustomOccManager@@UAEPAVCOleControlSite@@PAVCOleControlContainer@@@Z
	DD	FLAT:?PreCreateDialog@COccManager@@UAEPBUDLGTEMPLATE@@PAU_AFX_OCC_DIALOG_INFO@@PBU2@@Z
	DD	FLAT:?PostCreateDialog@COccManager@@UAEXPAU_AFX_OCC_DIALOG_INFO@@@Z
	DD	FLAT:?SplitDialogTemplate@COccManager@@UAEPAUDLGTEMPLATE@@PBU2@PAPAUDLGITEMTEMPLATE@@@Z
	DD	FLAT:?CreateDlgControls@COccManager@@UAEHPAVCWnd@@PAXPAU_AFX_OCC_DIALOG_INFO@@@Z
	DD	FLAT:?CreateDlgControls@COccManager@@UAEHPAVCWnd@@PBDPAU_AFX_OCC_DIALOG_INFO@@@Z
	DD	FLAT:?IsDialogMessageA@COccManager@@UAEHPAVCWnd@@PAUtagMSG@@@Z
CONST	ENDS
;	COMDAT ??_R4CCustomOccManager@@6B@
rdata$r	SEGMENT
??_R4CCustomOccManager@@6B@ DD 00H			; CCustomOccManager::`RTTI Complete Object Locator'
	DD	00H
	DD	00H
	DD	FLAT:??_R0?AVCCustomOccManager@@@8
	DD	FLAT:??_R3CCustomOccManager@@8
rdata$r	ENDS
;	COMDAT ??_R0?AVCCustomOccManager@@@8
_DATA	SEGMENT
??_R0?AVCCustomOccManager@@@8 DD FLAT:??_7type_info@@6B@ ; CCustomOccManager `RTTI Type Descriptor'
	DD	00H
	DB	'.?AVCCustomOccManager@@', 00H
_DATA	ENDS
;	COMDAT ??_R3CCustomOccManager@@8
rdata$r	SEGMENT
??_R3CCustomOccManager@@8 DD 00H			; CCustomOccManager::`RTTI Class Hierarchy Descriptor'
	DD	00H
	DD	03H
	DD	FLAT:??_R2CCustomOccManager@@8
rdata$r	ENDS
;	COMDAT ??_R2CCustomOccManager@@8
rdata$r	SEGMENT
??_R2CCustomOccManager@@8 DD FLAT:??_R1A@?0A@A@CCustomOccManager@@8 ; CCustomOccManager::`RTTI Base Class Array'
	DD	FLAT:??_R1A@?0A@A@COccManager@@8
	DD	FLAT:??_R1A@?0A@A@CNoTrackObject@@8
rdata$r	ENDS
;	COMDAT ??_R1A@?0A@A@CCustomOccManager@@8
rdata$r	SEGMENT
??_R1A@?0A@A@CCustomOccManager@@8 DD FLAT:??_R0?AVCCustomOccManager@@@8 ; CCustomOccManager::`RTTI Base Class Descriptor at (0,-1,0,0)'
	DD	02H
	DD	00H
	DD	0ffffffffH
	DD	00H
	DD	00H
rdata$r	ENDS
;	COMDAT ??_R1A@?0A@A@COccManager@@8
rdata$r	SEGMENT
??_R1A@?0A@A@COccManager@@8 DD FLAT:??_R0?AVCOccManager@@@8 ; COccManager::`RTTI Base Class Descriptor at (0,-1,0,0)'
	DD	01H
	DD	00H
	DD	0ffffffffH
	DD	00H
	DD	00H
rdata$r	ENDS
;	COMDAT ??_R0?AVCOccManager@@@8
_DATA	SEGMENT
??_R0?AVCOccManager@@@8 DD FLAT:??_7type_info@@6B@	; COccManager `RTTI Type Descriptor'
	DD	00H
	DB	'.?AVCOccManager@@', 00H
_DATA	ENDS
;	COMDAT ??_R1A@?0A@A@CNoTrackObject@@8
rdata$r	SEGMENT
??_R1A@?0A@A@CNoTrackObject@@8 DD FLAT:??_R0?AVCNoTrackObject@@@8 ; CNoTrackObject::`RTTI Base Class Descriptor at (0,-1,0,0)'
	DD	00H
	DD	00H
	DD	0ffffffffH
	DD	00H
	DD	00H
rdata$r	ENDS
;	COMDAT ??_R0?AVCNoTrackObject@@@8
_DATA	SEGMENT
??_R0?AVCNoTrackObject@@@8 DD FLAT:??_7type_info@@6B@	; CNoTrackObject `RTTI Type Descriptor'
	DD	00H
	DB	'.?AVCNoTrackObject@@', 00H
; Function compile flags: /Odt
_DATA	ENDS
;	COMDAT ??0CCustomOccManager@@QAE@XZ
_TEXT	SEGMENT
_this$ = -4						; size = 4
??0CCustomOccManager@@QAE@XZ PROC NEAR			; CCustomOccManager::CCustomOccManager, COMDAT
; _this$ = ecx

; 94   : 	CCustomOccManager(){}

  00000	55		 push	 ebp
  00001	8b ec		 mov	 ebp, esp
  00003	51		 push	 ecx
  00004	89 4d fc	 mov	 DWORD PTR _this$[ebp], ecx
  00007	8b 4d fc	 mov	 ecx, DWORD PTR _this$[ebp]
  0000a	e8 00 00 00 00	 call	 ??0COccManager@@QAE@XZ
  0000f	8b 45 fc	 mov	 eax, DWORD PTR _this$[ebp]
  00012	c7 00 00 00 00
	00		 mov	 DWORD PTR [eax], OFFSET FLAT:??_7CCustomOccManager@@6B@
  00018	8b 45 fc	 mov	 eax, DWORD PTR _this$[ebp]
  0001b	8b e5		 mov	 esp, ebp
  0001d	5d		 pop	 ebp
  0001e	c3		 ret	 0
??0CCustomOccManager@@QAE@XZ ENDP			; CCustomOccManager::CCustomOccManager
_TEXT	ENDS
PUBLIC	??0CCustomControlSite@@QAE@PAVCOleControlContainer@@@Z ; CCustomControlSite::CCustomControlSite
PUBLIC	??2CObject@@SGPAXI@Z				; CObject::operator new
;	COMDAT xdata$x
xdata$x	SEGMENT
$T207815 DD	0ffffffffH
	DD	FLAT:$L207811
$T207813 DD	019930520H
	DD	01H
	DD	FLAT:$T207815
	DD	2 DUP(00H)
	DD	2 DUP(00H)
; Function compile flags: /Odt
xdata$x	ENDS
;	COMDAT ?CreateSite@CCustomOccManager@@UAEPAVCOleControlSite@@PAVCOleControlContainer@@@Z
_TEXT	SEGMENT
tv72 = -32						; size = 4
_this$ = -28						; size = 4
$T207808 = -24						; size = 4
$T207807 = -20						; size = 4
_pSite$ = -16						; size = 4
__$EHRec$ = -12						; size = 12
_pCtrlCont$ = 8						; size = 4
?CreateSite@CCustomOccManager@@UAEPAVCOleControlSite@@PAVCOleControlContainer@@@Z PROC NEAR ; CCustomOccManager::CreateSite, COMDAT
; _this$ = ecx

; 96   : 	{

  00000	55		 push	 ebp
  00001	8b ec		 mov	 ebp, esp
  00003	6a ff		 push	 -1
  00005	68 00 00 00 00	 push	 __ehhandler$?CreateSite@CCustomOccManager@@UAEPAVCOleControlSite@@PAVCOleControlContainer@@@Z
  0000a	64 a1 00 00 00
	00		 mov	 eax, DWORD PTR fs:__except_list
  00010	50		 push	 eax
  00011	64 89 25 00 00
	00 00		 mov	 DWORD PTR fs:__except_list, esp
  00018	83 ec 14	 sub	 esp, 20			; 00000014H
  0001b	89 4d e4	 mov	 DWORD PTR _this$[ebp], ecx

; 97   : 		CCustomControlSite *pSite = new CCustomControlSite(pCtrlCont);

  0001e	68 f8 00 00 00	 push	 248			; 000000f8H
  00023	e8 00 00 00 00	 call	 ??2CObject@@SGPAXI@Z	; CObject::operator new
  00028	89 45 e8	 mov	 DWORD PTR $T207808[ebp], eax
  0002b	c7 45 fc 00 00
	00 00		 mov	 DWORD PTR __$EHRec$[ebp+8], 0
  00032	83 7d e8 00	 cmp	 DWORD PTR $T207808[ebp], 0
  00036	74 11		 je	 SHORT $L207809
  00038	8b 45 08	 mov	 eax, DWORD PTR _pCtrlCont$[ebp]
  0003b	50		 push	 eax
  0003c	8b 4d e8	 mov	 ecx, DWORD PTR $T207808[ebp]
  0003f	e8 00 00 00 00	 call	 ??0CCustomControlSite@@QAE@PAVCOleControlContainer@@@Z ; CCustomControlSite::CCustomControlSite
  00044	89 45 e0	 mov	 DWORD PTR tv72[ebp], eax
  00047	eb 07		 jmp	 SHORT $L207810
$L207809:
  00049	c7 45 e0 00 00
	00 00		 mov	 DWORD PTR tv72[ebp], 0
$L207810:
  00050	8b 4d e0	 mov	 ecx, DWORD PTR tv72[ebp]
  00053	89 4d ec	 mov	 DWORD PTR $T207807[ebp], ecx
  00056	c7 45 fc ff ff
	ff ff		 mov	 DWORD PTR __$EHRec$[ebp+8], -1
  0005d	8b 55 ec	 mov	 edx, DWORD PTR $T207807[ebp]
  00060	89 55 f0	 mov	 DWORD PTR _pSite$[ebp], edx

; 98   : 		return pSite;

  00063	8b 45 f0	 mov	 eax, DWORD PTR _pSite$[ebp]

; 99   : 	}

  00066	8b 4d f4	 mov	 ecx, DWORD PTR __$EHRec$[ebp]
  00069	64 89 0d 00 00
	00 00		 mov	 DWORD PTR fs:__except_list, ecx
  00070	8b e5		 mov	 esp, ebp
  00072	5d		 pop	 ebp
  00073	c2 04 00	 ret	 4
_TEXT	ENDS
;	COMDAT text$x
text$x	SEGMENT
$L207811:
  00000	8b 45 e8	 mov	 eax, DWORD PTR $T207808[ebp]
  00003	50		 push	 eax
  00004	e8 00 00 00 00	 call	 ??3CObject@@SGXPAX@Z	; CObject::operator delete
  00009	c3		 ret	 0
__ehhandler$?CreateSite@CCustomOccManager@@UAEPAVCOleControlSite@@PAVCOleControlContainer@@@Z:
  0000a	b8 00 00 00 00	 mov	 eax, OFFSET FLAT:$T207813
  0000f	e9 00 00 00 00	 jmp	 ___CxxFrameHandler
text$x	ENDS
?CreateSite@CCustomOccManager@@UAEPAVCOleControlSite@@PAVCOleControlContainer@@@Z ENDP ; CCustomOccManager::CreateSite
PUBLIC	??0XDocHostShowUI@CCustomControlSite@@QAE@XZ	; CCustomControlSite::XDocHostShowUI::XDocHostShowUI
PUBLIC	??0XDocHostUIHandler@CCustomControlSite@@QAE@XZ	; CCustomControlSite::XDocHostUIHandler::XDocHostUIHandler
PUBLIC	??_7CCustomControlSite@@6B@			; CCustomControlSite::`vftable'
PUBLIC	??_GCCustomControlSite@@UAEPAXI@Z		; CCustomControlSite::`scalar deleting destructor'
PUBLIC	??_R4CCustomControlSite@@6B@			; CCustomControlSite::`RTTI Complete Object Locator'
PUBLIC	??_R0?AVCCustomControlSite@@@8			; CCustomControlSite `RTTI Type Descriptor'
PUBLIC	??_R3CCustomControlSite@@8			; CCustomControlSite::`RTTI Class Hierarchy Descriptor'
PUBLIC	??_R2CCustomControlSite@@8			; CCustomControlSite::`RTTI Base Class Array'
PUBLIC	??_R1A@?0A@A@CCustomControlSite@@8		; CCustomControlSite::`RTTI Base Class Descriptor at (0,-1,0,0)'
PUBLIC	??_R1A@?0A@A@COleControlSite@@8			; COleControlSite::`RTTI Base Class Descriptor at (0,-1,0,0)'
PUBLIC	??_R0?AVCOleControlSite@@@8			; COleControlSite `RTTI Type Descriptor'
EXTRN	?GetInterfaceMap@CCustomControlSite@@MBEPBUAFX_INTERFACEMAP@@XZ:NEAR ; CCustomControlSite::GetInterfaceMap
EXTRN	??_ECCustomControlSite@@UAEPAXI@Z:NEAR		; CCustomControlSite::`vector deleting destructor'
EXTRN	?GetRuntimeClass@CCmdTarget@@UBEPAUCRuntimeClass@@XZ:NEAR ; CCmdTarget::GetRuntimeClass
EXTRN	?OnCmdMsg@CCmdTarget@@UAEHIHPAXPAUAFX_CMDHANDLERINFO@@@Z:NEAR ; CCmdTarget::OnCmdMsg
EXTRN	?OnFinalRelease@CCmdTarget@@UAEXXZ:NEAR		; CCmdTarget::OnFinalRelease
EXTRN	?GetMessageMap@CCmdTarget@@MBEPBUAFX_MSGMAP@@XZ:NEAR ; CCmdTarget::GetMessageMap
EXTRN	?GetEventSinkMap@CCmdTarget@@MBEPBUAFX_EVENTSINKMAP@@XZ:NEAR ; CCmdTarget::GetEventSinkMap
EXTRN	??0COleControlSite@@QAE@PAVCOleControlContainer@@@Z:NEAR ; COleControlSite::COleControlSite
EXTRN	?CreateControl@COleControlSite@@UAEJPAVCWnd@@ABU_GUID@@PBDKABUtagRECT@@IPAVCFile@@HPA_W@Z:NEAR ; COleControlSite::CreateControl
EXTRN	?CreateControl@COleControlSite@@UAEJPAVCWnd@@ABU_GUID@@PBDKPBUtagPOINT@@PBUtagSIZE@@IPAVCFile@@HPA_W@Z:NEAR ; COleControlSite::CreateControl
EXTRN	?DestroyControl@COleControlSite@@UAEHXZ:NEAR	; COleControlSite::DestroyControl
EXTRN	?DoVerb@COleControlSite@@UAEJJPAUtagMSG@@@Z:NEAR ; COleControlSite::DoVerb
EXTRN	?InvokeHelperV@COleControlSite@@UAEXJGGPAXPBEPAD@Z:NEAR ; COleControlSite::InvokeHelperV
EXTRN	?SetPropertyV@COleControlSite@@UAEXJGPAD@Z:NEAR	; COleControlSite::SetPropertyV
EXTRN	?InvokeHelper@COleControlSite@@UAAXJGGPAXPBEZZ:NEAR ; COleControlSite::InvokeHelper
EXTRN	?GetProperty@COleControlSite@@UBEXJGPAX@Z:NEAR	; COleControlSite::GetProperty
EXTRN	?SetProperty@COleControlSite@@UAAXJGZZ:NEAR	; COleControlSite::SetProperty
EXTRN	?SafeSetProperty@COleControlSite@@UAAHJGZZ:NEAR	; COleControlSite::SafeSetProperty
EXTRN	?GetStyle@COleControlSite@@UBEKXZ:NEAR		; COleControlSite::GetStyle
EXTRN	?GetExStyle@COleControlSite@@UBEKXZ:NEAR	; COleControlSite::GetExStyle
EXTRN	?ModifyStyle@COleControlSite@@UAEHKKI@Z:NEAR	; COleControlSite::ModifyStyle
EXTRN	?ModifyStyleEx@COleControlSite@@UAEHKKI@Z:NEAR	; COleControlSite::ModifyStyleEx
EXTRN	?SetWindowTextA@COleControlSite@@UAEXPBD@Z:NEAR	; COleControlSite::SetWindowTextA
EXTRN	?GetWindowTextA@COleControlSite@@UBEXAAV?$CStringT@DV?$StrTraitMFC_DLL@DV?$ChTraitsCRT@D@ATL@@@@@ATL@@@Z:NEAR ; COleControlSite::GetWindowTextA
EXTRN	?GetDlgCtrlID@COleControlSite@@UBEHXZ:NEAR	; COleControlSite::GetDlgCtrlID
EXTRN	?SetDlgCtrlID@COleControlSite@@UAEHH@Z:NEAR	; COleControlSite::SetDlgCtrlID
EXTRN	?MoveWindow@COleControlSite@@UAEXHHHH@Z:NEAR	; COleControlSite::MoveWindow
EXTRN	?SetWindowPos@COleControlSite@@UAEHPBVCWnd@@HHHHI@Z:NEAR ; COleControlSite::SetWindowPos
EXTRN	?ShowWindow@COleControlSite@@UAEHH@Z:NEAR	; COleControlSite::ShowWindow
EXTRN	?IsWindowEnabled@COleControlSite@@UBEHXZ:NEAR	; COleControlSite::IsWindowEnabled
EXTRN	?EnableWindow@COleControlSite@@UAEHH@Z:NEAR	; COleControlSite::EnableWindow
EXTRN	?SetFocus@COleControlSite@@UAEPAVCWnd@@XZ:NEAR	; COleControlSite::SetFocus
EXTRN	?SetFocus@COleControlSite@@UAEPAVCWnd@@PAUtagMSG@@@Z:NEAR ; COleControlSite::SetFocus
EXTRN	?EnableDSC@COleControlSite@@UAEXXZ:NEAR		; COleControlSite::EnableDSC
EXTRN	?BindDefaultProperty@COleControlSite@@UAEXJGPBDPAVCWnd@@@Z:NEAR ; COleControlSite::BindDefaultProperty
EXTRN	?BindProperty@COleControlSite@@UAEXJPAVCWnd@@@Z:NEAR ; COleControlSite::BindProperty
EXTRN	?QuickActivate@COleControlSite@@UAEHXZ:NEAR	; COleControlSite::QuickActivate
;	COMDAT ??_7CCustomControlSite@@6B@
CONST	SEGMENT
??_7CCustomControlSite@@6B@ DD FLAT:??_R4CCustomControlSite@@6B@ ; CCustomControlSite::`vftable'
	DD	FLAT:?GetRuntimeClass@CCmdTarget@@UBEPAUCRuntimeClass@@XZ
	DD	FLAT:??_ECCustomControlSite@@UAEPAXI@Z
	DD	FLAT:?Serialize@CObject@@UAEXAAVCArchive@@@Z
	DD	FLAT:?AssertValid@CObject@@UBEXXZ
	DD	FLAT:?Dump@CObject@@UBEXAAVCDumpContext@@@Z
	DD	FLAT:?OnCmdMsg@CCmdTarget@@UAEHIHPAXPAUAFX_CMDHANDLERINFO@@@Z
	DD	FLAT:?OnFinalRelease@CCmdTarget@@UAEXXZ
	DD	FLAT:?IsInvokeAllowed@CCmdTarget@@UAEHJ@Z
	DD	FLAT:?GetDispatchIID@CCmdTarget@@UAEHPAU_GUID@@@Z
	DD	FLAT:?GetTypeInfoCount@CCmdTarget@@UAEIXZ
	DD	FLAT:?GetTypeLibCache@CCmdTarget@@UAEPAVCTypeLibCache@@XZ
	DD	FLAT:?GetTypeLib@CCmdTarget@@UAEJKPAPAUITypeLib@@@Z
	DD	FLAT:?GetMessageMap@CCmdTarget@@MBEPBUAFX_MSGMAP@@XZ
	DD	FLAT:?GetCommandMap@CCmdTarget@@MBEPBUAFX_OLECMDMAP@@XZ
	DD	FLAT:?GetDispatchMap@CCmdTarget@@MBEPBUAFX_DISPMAP@@XZ
	DD	FLAT:?GetConnectionMap@CCmdTarget@@MBEPBUAFX_CONNECTIONMAP@@XZ
	DD	FLAT:?GetInterfaceMap@CCustomControlSite@@MBEPBUAFX_INTERFACEMAP@@XZ
	DD	FLAT:?GetEventSinkMap@CCmdTarget@@MBEPBUAFX_EVENTSINKMAP@@XZ
	DD	FLAT:?OnCreateAggregates@CCmdTarget@@UAEHXZ
	DD	FLAT:?GetInterfaceHook@CCmdTarget@@UAEPAUIUnknown@@PBX@Z
	DD	FLAT:?GetExtraConnectionPoints@CCmdTarget@@MAEHPAVCPtrArray@@@Z
	DD	FLAT:?GetConnectionHook@CCmdTarget@@MAEPAUIConnectionPoint@@ABU_GUID@@@Z
	DD	FLAT:?CreateControl@COleControlSite@@UAEJPAVCWnd@@ABU_GUID@@PBDKPBUtagPOINT@@PBUtagSIZE@@IPAVCFile@@HPA_W@Z
	DD	FLAT:?CreateControl@COleControlSite@@UAEJPAVCWnd@@ABU_GUID@@PBDKABUtagRECT@@IPAVCFile@@HPA_W@Z
	DD	FLAT:?DestroyControl@COleControlSite@@UAEHXZ
	DD	FLAT:?DoVerb@COleControlSite@@UAEJJPAUtagMSG@@@Z
	DD	FLAT:?InvokeHelperV@COleControlSite@@UAEXJGGPAXPBEPAD@Z
	DD	FLAT:?SetPropertyV@COleControlSite@@UAEXJGPAD@Z
	DD	FLAT:?InvokeHelper@COleControlSite@@UAAXJGGPAXPBEZZ
	DD	FLAT:?GetProperty@COleControlSite@@UBEXJGPAX@Z
	DD	FLAT:?SetProperty@COleControlSite@@UAAXJGZZ
	DD	FLAT:?SafeSetProperty@COleControlSite@@UAAHJGZZ
	DD	FLAT:?GetStyle@COleControlSite@@UBEKXZ
	DD	FLAT:?GetExStyle@COleControlSite@@UBEKXZ
	DD	FLAT:?ModifyStyle@COleControlSite@@UAEHKKI@Z
	DD	FLAT:?ModifyStyleEx@COleControlSite@@UAEHKKI@Z
	DD	FLAT:?SetWindowTextA@COleControlSite@@UAEXPBD@Z
	DD	FLAT:?GetWindowTextA@COleControlSite@@UBEXAAV?$CStringT@DV?$StrTraitMFC_DLL@DV?$ChTraitsCRT@D@ATL@@@@@ATL@@@Z
	DD	FLAT:?GetDlgCtrlID@COleControlSite@@UBEHXZ
	DD	FLAT:?SetDlgCtrlID@COleControlSite@@UAEHH@Z
	DD	FLAT:?MoveWindow@COleControlSite@@UAEXHHHH@Z
	DD	FLAT:?SetWindowPos@COleControlSite@@UAEHPBVCWnd@@HHHHI@Z
	DD	FLAT:?ShowWindow@COleControlSite@@UAEHH@Z
	DD	FLAT:?IsWindowEnabled@COleControlSite@@UBEHXZ
	DD	FLAT:?EnableWindow@COleControlSite@@UAEHH@Z
	DD	FLAT:?SetFocus@COleControlSite@@UAEPAVCWnd@@PAUtagMSG@@@Z
	DD	FLAT:?SetFocus@COleControlSite@@UAEPAVCWnd@@XZ
	DD	FLAT:?EnableDSC@COleControlSite@@UAEXXZ
	DD	FLAT:?BindDefaultProperty@COleControlSite@@UAEXJGPBDPAVCWnd@@@Z
	DD	FLAT:?BindProperty@COleControlSite@@UAEXJPAVCWnd@@@Z
	DD	FLAT:?QuickActivate@COleControlSite@@UAEHXZ
CONST	ENDS
;	COMDAT ??_R4CCustomControlSite@@6B@
rdata$r	SEGMENT
??_R4CCustomControlSite@@6B@ DD 00H			; CCustomControlSite::`RTTI Complete Object Locator'
	DD	00H
	DD	00H
	DD	FLAT:??_R0?AVCCustomControlSite@@@8
	DD	FLAT:??_R3CCustomControlSite@@8
rdata$r	ENDS
;	COMDAT ??_R0?AVCCustomControlSite@@@8
_DATA	SEGMENT
??_R0?AVCCustomControlSite@@@8 DD FLAT:??_7type_info@@6B@ ; CCustomControlSite `RTTI Type Descriptor'
	DD	00H
	DB	'.?AVCCustomControlSite@@', 00H
_DATA	ENDS
;	COMDAT ??_R3CCustomControlSite@@8
rdata$r	SEGMENT
??_R3CCustomControlSite@@8 DD 00H			; CCustomControlSite::`RTTI Class Hierarchy Descriptor'
	DD	00H
	DD	04H
	DD	FLAT:??_R2CCustomControlSite@@8
rdata$r	ENDS
;	COMDAT ??_R2CCustomControlSite@@8
rdata$r	SEGMENT
??_R2CCustomControlSite@@8 DD FLAT:??_R1A@?0A@A@CCustomControlSite@@8 ; CCustomControlSite::`RTTI Base Class Array'
	DD	FLAT:??_R1A@?0A@A@COleControlSite@@8
	DD	FLAT:??_R1A@?0A@A@CCmdTarget@@8
	DD	FLAT:??_R1A@?0A@A@CObject@@8
rdata$r	ENDS
;	COMDAT ??_R1A@?0A@A@CCustomControlSite@@8
rdata$r	SEGMENT
??_R1A@?0A@A@CCustomControlSite@@8 DD FLAT:??_R0?AVCCustomControlSite@@@8 ; CCustomControlSite::`RTTI Base Class Descriptor at (0,-1,0,0)'
	DD	03H
	DD	00H
	DD	0ffffffffH
	DD	00H
	DD	00H
rdata$r	ENDS
;	COMDAT ??_R1A@?0A@A@COleControlSite@@8
rdata$r	SEGMENT
??_R1A@?0A@A@COleControlSite@@8 DD FLAT:??_R0?AVCOleControlSite@@@8 ; COleControlSite::`RTTI Base Class Descriptor at (0,-1,0,0)'
	DD	02H
	DD	00H
	DD	0ffffffffH
	DD	00H
	DD	00H
rdata$r	ENDS
;	COMDAT ??_R0?AVCOleControlSite@@@8
_DATA	SEGMENT
??_R0?AVCOleControlSite@@@8 DD FLAT:??_7type_info@@6B@	; COleControlSite `RTTI Type Descriptor'
	DD	00H
	DB	'.?AVCOleControlSite@@', 00H
; Function compile flags: /Odt
_DATA	ENDS
;	COMDAT ??0CCustomControlSite@@QAE@PAVCOleControlContainer@@@Z
_TEXT	SEGMENT
_this$ = -4						; size = 4
_pCnt$ = 8						; size = 4
??0CCustomControlSite@@QAE@PAVCOleControlContainer@@@Z PROC NEAR ; CCustomControlSite::CCustomControlSite, COMDAT
; _this$ = ecx

; 21   : 	CCustomControlSite(COleControlContainer *pCnt):COleControlSite(pCnt){}

  00000	55		 push	 ebp
  00001	8b ec		 mov	 ebp, esp
  00003	51		 push	 ecx
  00004	89 4d fc	 mov	 DWORD PTR _this$[ebp], ecx
  00007	8b 45 08	 mov	 eax, DWORD PTR _pCnt$[ebp]
  0000a	50		 push	 eax
  0000b	8b 4d fc	 mov	 ecx, DWORD PTR _this$[ebp]
  0000e	e8 00 00 00 00	 call	 ??0COleControlSite@@QAE@PAVCOleControlContainer@@@Z ; COleControlSite::COleControlSite
  00013	8b 4d fc	 mov	 ecx, DWORD PTR _this$[ebp]
  00016	c7 01 00 00 00
	00		 mov	 DWORD PTR [ecx], OFFSET FLAT:??_7CCustomControlSite@@6B@
  0001c	8b 4d fc	 mov	 ecx, DWORD PTR _this$[ebp]
  0001f	81 c1 f0 00 00
	00		 add	 ecx, 240		; 000000f0H
  00025	e8 00 00 00 00	 call	 ??0XDocHostShowUI@CCustomControlSite@@QAE@XZ
  0002a	8b 4d fc	 mov	 ecx, DWORD PTR _this$[ebp]
  0002d	81 c1 f4 00 00
	00		 add	 ecx, 244		; 000000f4H
  00033	e8 00 00 00 00	 call	 ??0XDocHostUIHandler@CCustomControlSite@@QAE@XZ
  00038	8b 45 fc	 mov	 eax, DWORD PTR _this$[ebp]
  0003b	8b e5		 mov	 esp, ebp
  0003d	5d		 pop	 ebp
  0003e	c2 04 00	 ret	 4
??0CCustomControlSite@@QAE@PAVCOleControlContainer@@@Z ENDP ; CCustomControlSite::CCustomControlSite
_TEXT	ENDS
PUBLIC	??1CCustomControlSite@@UAE@XZ			; CCustomControlSite::~CCustomControlSite
; Function compile flags: /Odt
;	COMDAT ??_GCCustomControlSite@@UAEPAXI@Z
_TEXT	SEGMENT
_this$ = -4						; size = 4
___flags$ = 8						; size = 4
??_GCCustomControlSite@@UAEPAXI@Z PROC NEAR		; CCustomControlSite::`scalar deleting destructor', COMDAT
; _this$ = ecx
  00000	55		 push	 ebp
  00001	8b ec		 mov	 ebp, esp
  00003	51		 push	 ecx
  00004	89 4d fc	 mov	 DWORD PTR _this$[ebp], ecx
  00007	8b 4d fc	 mov	 ecx, DWORD PTR _this$[ebp]
  0000a	e8 00 00 00 00	 call	 ??1CCustomControlSite@@UAE@XZ
  0000f	8b 45 08	 mov	 eax, DWORD PTR ___flags$[ebp]
  00012	83 e0 01	 and	 eax, 1
  00015	74 09		 je	 SHORT $L197812
  00017	8b 4d fc	 mov	 ecx, DWORD PTR _this$[ebp]
  0001a	51		 push	 ecx
  0001b	e8 00 00 00 00	 call	 ??3CObject@@SGXPAX@Z	; CObject::operator delete
$L197812:
  00020	8b 45 fc	 mov	 eax, DWORD PTR _this$[ebp]
  00023	8b e5		 mov	 esp, ebp
  00025	5d		 pop	 ebp
  00026	c2 04 00	 ret	 4
??_GCCustomControlSite@@UAEPAXI@Z ENDP			; CCustomControlSite::`scalar deleting destructor'
_TEXT	ENDS
PUBLIC	??_7XDocHostShowUI@CCustomControlSite@@6B@	; CCustomControlSite::XDocHostShowUI::`vftable'
PUBLIC	??_R1A@?0A@A@IUnknown@@8			; IUnknown::`RTTI Base Class Descriptor at (0,-1,0,0)'
PUBLIC	??_R0?AUIUnknown@@@8				; IUnknown `RTTI Type Descriptor'
PUBLIC	??0IDocHostShowUI@@QAE@XZ			; IDocHostShowUI::IDocHostShowUI
PUBLIC	??_R4XDocHostShowUI@CCustomControlSite@@6B@	; CCustomControlSite::XDocHostShowUI::`RTTI Complete Object Locator'
PUBLIC	??_R0?AVXDocHostShowUI@CCustomControlSite@@@8	; CCustomControlSite::XDocHostShowUI `RTTI Type Descriptor'
PUBLIC	??_R3XDocHostShowUI@CCustomControlSite@@8	; CCustomControlSite::XDocHostShowUI::`RTTI Class Hierarchy Descriptor'
PUBLIC	??_R2XDocHostShowUI@CCustomControlSite@@8	; CCustomControlSite::XDocHostShowUI::`RTTI Base Class Array'
PUBLIC	??_R1A@?0A@A@XDocHostShowUI@CCustomControlSite@@8 ; CCustomControlSite::XDocHostShowUI::`RTTI Base Class Descriptor at (0,-1,0,0)'
PUBLIC	??_R1A@?0A@A@IDocHostShowUI@@8			; IDocHostShowUI::`RTTI Base Class Descriptor at (0,-1,0,0)'
PUBLIC	??_R0?AUIDocHostShowUI@@@8			; IDocHostShowUI `RTTI Type Descriptor'
EXTRN	?AddRef@XDocHostShowUI@CCustomControlSite@@UAGKXZ:NEAR ; CCustomControlSite::XDocHostShowUI::AddRef
EXTRN	?Release@XDocHostShowUI@CCustomControlSite@@UAGKXZ:NEAR ; CCustomControlSite::XDocHostShowUI::Release
EXTRN	?QueryInterface@XDocHostShowUI@CCustomControlSite@@UAGJABU_GUID@@PAPAX@Z:NEAR ; CCustomControlSite::XDocHostShowUI::QueryInterface
EXTRN	?ShowHelp@XDocHostShowUI@CCustomControlSite@@UAGJPAUHWND__@@PA_WIKUtagPOINT@@PAUIDispatch@@@Z:NEAR ; CCustomControlSite::XDocHostShowUI::ShowHelp
EXTRN	?ShowMessage@XDocHostShowUI@CCustomControlSite@@UAGJPAUHWND__@@PA_W1K1KPAJ@Z:NEAR ; CCustomControlSite::XDocHostShowUI::ShowMessage
;	COMDAT ??_7XDocHostShowUI@CCustomControlSite@@6B@
CONST	SEGMENT
??_7XDocHostShowUI@CCustomControlSite@@6B@ DD FLAT:??_R4XDocHostShowUI@CCustomControlSite@@6B@ ; CCustomControlSite::XDocHostShowUI::`vftable'
	DD	FLAT:?QueryInterface@XDocHostShowUI@CCustomControlSite@@UAGJABU_GUID@@PAPAX@Z
	DD	FLAT:?AddRef@XDocHostShowUI@CCustomControlSite@@UAGKXZ
	DD	FLAT:?Release@XDocHostShowUI@CCustomControlSite@@UAGKXZ
	DD	FLAT:?ShowMessage@XDocHostShowUI@CCustomControlSite@@UAGJPAUHWND__@@PA_W1K1KPAJ@Z
	DD	FLAT:?ShowHelp@XDocHostShowUI@CCustomControlSite@@UAGJPAUHWND__@@PA_WIKUtagPOINT@@PAUIDispatch@@@Z
CONST	ENDS
;	COMDAT ??_R4XDocHostShowUI@CCustomControlSite@@6B@
rdata$r	SEGMENT
??_R4XDocHostShowUI@CCustomControlSite@@6B@ DD 00H	; CCustomControlSite::XDocHostShowUI::`RTTI Complete Object Locator'
	DD	00H
	DD	00H
	DD	FLAT:??_R0?AVXDocHostShowUI@CCustomControlSite@@@8
	DD	FLAT:??_R3XDocHostShowUI@CCustomControlSite@@8
rdata$r	ENDS
;	COMDAT ??_R0?AVXDocHostShowUI@CCustomControlSite@@@8
_DATA	SEGMENT
??_R0?AVXDocHostShowUI@CCustomControlSite@@@8 DD FLAT:??_7type_info@@6B@ ; CCustomControlSite::XDocHostShowUI `RTTI Type Descriptor'
	DD	00H
	DB	'.?AVXDocHostShowUI@CCustomControlSite@@', 00H
_DATA	ENDS
;	COMDAT ??_R3XDocHostShowUI@CCustomControlSite@@8
rdata$r	SEGMENT
??_R3XDocHostShowUI@CCustomControlSite@@8 DD 00H	; CCustomControlSite::XDocHostShowUI::`RTTI Class Hierarchy Descriptor'
	DD	00H
	DD	03H
	DD	FLAT:??_R2XDocHostShowUI@CCustomControlSite@@8
rdata$r	ENDS
;	COMDAT ??_R2XDocHostShowUI@CCustomControlSite@@8
rdata$r	SEGMENT
??_R2XDocHostShowUI@CCustomControlSite@@8 DD FLAT:??_R1A@?0A@A@XDocHostShowUI@CCustomControlSite@@8 ; CCustomControlSite::XDocHostShowUI::`RTTI Base Class Array'
	DD	FLAT:??_R1A@?0A@A@IDocHostShowUI@@8
	DD	FLAT:??_R1A@?0A@A@IUnknown@@8
rdata$r	ENDS
;	COMDAT ??_R1A@?0A@A@XDocHostShowUI@CCustomControlSite@@8
rdata$r	SEGMENT
??_R1A@?0A@A@XDocHostShowUI@CCustomControlSite@@8 DD FLAT:??_R0?AVXDocHostShowUI@CCustomControlSite@@@8 ; CCustomControlSite::XDocHostShowUI::`RTTI Base Class Descriptor at (0,-1,0,0)'
	DD	02H
	DD	00H
	DD	0ffffffffH
	DD	00H
	DD	00H
rdata$r	ENDS
;	COMDAT ??_R1A@?0A@A@IDocHostShowUI@@8
rdata$r	SEGMENT
??_R1A@?0A@A@IDocHostShowUI@@8 DD FLAT:??_R0?AUIDocHostShowUI@@@8 ; IDocHostShowUI::`RTTI Base Class Descriptor at (0,-1,0,0)'
	DD	01H
	DD	00H
	DD	0ffffffffH
	DD	00H
	DD	00H
rdata$r	ENDS
;	COMDAT ??_R0?AUIDocHostShowUI@@@8
_DATA	SEGMENT
??_R0?AUIDocHostShowUI@@@8 DD FLAT:??_7type_info@@6B@	; IDocHostShowUI `RTTI Type Descriptor'
	DD	00H
	DB	'.?AUIDocHostShowUI@@', 00H
_DATA	ENDS
;	COMDAT ??_R1A@?0A@A@IUnknown@@8
rdata$r	SEGMENT
??_R1A@?0A@A@IUnknown@@8 DD FLAT:??_R0?AUIUnknown@@@8	; IUnknown::`RTTI Base Class Descriptor at (0,-1,0,0)'
	DD	00H
	DD	00H
	DD	0ffffffffH
	DD	00H
	DD	00H
rdata$r	ENDS
;	COMDAT ??_R0?AUIUnknown@@@8
_DATA	SEGMENT
??_R0?AUIUnknown@@@8 DD FLAT:??_7type_info@@6B@		; IUnknown `RTTI Type Descriptor'
	DD	00H
	DB	'.?AUIUnknown@@', 00H
; Function compile flags: /Odt
_DATA	ENDS
;	COMDAT ??0XDocHostShowUI@CCustomControlSite@@QAE@XZ
_TEXT	SEGMENT
_this$ = -4						; size = 4
??0XDocHostShowUI@CCustomControlSite@@QAE@XZ PROC NEAR	; CCustomControlSite::XDocHostShowUI::XDocHostShowUI, COMDAT
; _this$ = ecx
  00000	55		 push	 ebp
  00001	8b ec		 mov	 ebp, esp
  00003	51		 push	 ecx
  00004	89 4d fc	 mov	 DWORD PTR _this$[ebp], ecx
  00007	8b 4d fc	 mov	 ecx, DWORD PTR _this$[ebp]
  0000a	e8 00 00 00 00	 call	 ??0IDocHostShowUI@@QAE@XZ
  0000f	8b 45 fc	 mov	 eax, DWORD PTR _this$[ebp]
  00012	c7 00 00 00 00
	00		 mov	 DWORD PTR [eax], OFFSET FLAT:??_7XDocHostShowUI@CCustomControlSite@@6B@
  00018	8b 45 fc	 mov	 eax, DWORD PTR _this$[ebp]
  0001b	8b e5		 mov	 esp, ebp
  0001d	5d		 pop	 ebp
  0001e	c3		 ret	 0
??0XDocHostShowUI@CCustomControlSite@@QAE@XZ ENDP	; CCustomControlSite::XDocHostShowUI::XDocHostShowUI
_TEXT	ENDS
PUBLIC	??_R1A@?0A@A@IDocHostUIHandler@@8		; IDocHostUIHandler::`RTTI Base Class Descriptor at (0,-1,0,0)'
PUBLIC	??_R0?AUIDocHostUIHandler@@@8			; IDocHostUIHandler `RTTI Type Descriptor'
PUBLIC	??_7XDocHostUIHandler@CCustomControlSite@@6B@	; CCustomControlSite::XDocHostUIHandler::`vftable'
PUBLIC	??0IDocHostUIHandler@@QAE@XZ			; IDocHostUIHandler::IDocHostUIHandler
PUBLIC	??_R4XDocHostUIHandler@CCustomControlSite@@6B@	; CCustomControlSite::XDocHostUIHandler::`RTTI Complete Object Locator'
PUBLIC	??_R0?AVXDocHostUIHandler@CCustomControlSite@@@8 ; CCustomControlSite::XDocHostUIHandler `RTTI Type Descriptor'
PUBLIC	??_R3XDocHostUIHandler@CCustomControlSite@@8	; CCustomControlSite::XDocHostUIHandler::`RTTI Class Hierarchy Descriptor'
PUBLIC	??_R2XDocHostUIHandler@CCustomControlSite@@8	; CCustomControlSite::XDocHostUIHandler::`RTTI Base Class Array'
PUBLIC	??_R1A@?0A@A@XDocHostUIHandler@CCustomControlSite@@8 ; CCustomControlSite::XDocHostUIHandler::`RTTI Base Class Descriptor at (0,-1,0,0)'
EXTRN	?AddRef@XDocHostUIHandler@CCustomControlSite@@UAGKXZ:NEAR ; CCustomControlSite::XDocHostUIHandler::AddRef
EXTRN	?Release@XDocHostUIHandler@CCustomControlSite@@UAGKXZ:NEAR ; CCustomControlSite::XDocHostUIHandler::Release
EXTRN	?QueryInterface@XDocHostUIHandler@CCustomControlSite@@UAGJABU_GUID@@PAPAX@Z:NEAR ; CCustomControlSite::XDocHostUIHandler::QueryInterface
EXTRN	?ShowContextMenu@XDocHostUIHandler@CCustomControlSite@@UAGJKPAUtagPOINT@@PAUIUnknown@@PAUIDispatch@@@Z:NEAR ; CCustomControlSite::XDocHostUIHandler::ShowContextMenu
EXTRN	?GetHostInfo@XDocHostUIHandler@CCustomControlSite@@UAGJPAU_DOCHOSTUIINFO@@@Z:NEAR ; CCustomControlSite::XDocHostUIHandler::GetHostInfo
EXTRN	?ShowUI@XDocHostUIHandler@CCustomControlSite@@UAGJKPAUIOleInPlaceActiveObject@@PAUIOleCommandTarget@@PAUIOleInPlaceFrame@@PAUIOleInPlaceUIWindow@@@Z:NEAR ; CCustomControlSite::XDocHostUIHandler::ShowUI
EXTRN	?HideUI@XDocHostUIHandler@CCustomControlSite@@UAGJXZ:NEAR ; CCustomControlSite::XDocHostUIHandler::HideUI
EXTRN	?UpdateUI@XDocHostUIHandler@CCustomControlSite@@UAGJXZ:NEAR ; CCustomControlSite::XDocHostUIHandler::UpdateUI
EXTRN	?EnableModeless@XDocHostUIHandler@CCustomControlSite@@UAGJH@Z:NEAR ; CCustomControlSite::XDocHostUIHandler::EnableModeless
EXTRN	?OnDocWindowActivate@XDocHostUIHandler@CCustomControlSite@@UAGJH@Z:NEAR ; CCustomControlSite::XDocHostUIHandler::OnDocWindowActivate
EXTRN	?OnFrameWindowActivate@XDocHostUIHandler@CCustomControlSite@@UAGJH@Z:NEAR ; CCustomControlSite::XDocHostUIHandler::OnFrameWindowActivate
EXTRN	?ResizeBorder@XDocHostUIHandler@CCustomControlSite@@UAGJPBUtagRECT@@PAUIOleInPlaceUIWindow@@H@Z:NEAR ; CCustomControlSite::XDocHostUIHandler::ResizeBorder
EXTRN	?TranslateAcceleratorA@XDocHostUIHandler@CCustomControlSite@@UAGJPAUtagMSG@@PBU_GUID@@K@Z:NEAR ; CCustomControlSite::XDocHostUIHandler::TranslateAcceleratorA
EXTRN	?GetOptionKeyPath@XDocHostUIHandler@CCustomControlSite@@UAGJPAPA_WK@Z:NEAR ; CCustomControlSite::XDocHostUIHandler::GetOptionKeyPath
EXTRN	?GetDropTarget@XDocHostUIHandler@CCustomControlSite@@UAGJPAUIDropTarget@@PAPAU3@@Z:NEAR ; CCustomControlSite::XDocHostUIHandler::GetDropTarget
EXTRN	?GetExternal@XDocHostUIHandler@CCustomControlSite@@UAGJPAPAUIDispatch@@@Z:NEAR ; CCustomControlSite::XDocHostUIHandler::GetExternal
EXTRN	?TranslateUrl@XDocHostUIHandler@CCustomControlSite@@UAGJKPA_WPAPA_W@Z:NEAR ; CCustomControlSite::XDocHostUIHandler::TranslateUrl
EXTRN	?FilterDataObject@XDocHostUIHandler@CCustomControlSite@@UAGJPAUIDataObject@@PAPAU3@@Z:NEAR ; CCustomControlSite::XDocHostUIHandler::FilterDataObject
;	COMDAT ??_7XDocHostUIHandler@CCustomControlSite@@6B@
CONST	SEGMENT
??_7XDocHostUIHandler@CCustomControlSite@@6B@ DD FLAT:??_R4XDocHostUIHandler@CCustomControlSite@@6B@ ; CCustomControlSite::XDocHostUIHandler::`vftable'
	DD	FLAT:?QueryInterface@XDocHostUIHandler@CCustomControlSite@@UAGJABU_GUID@@PAPAX@Z
	DD	FLAT:?AddRef@XDocHostUIHandler@CCustomControlSite@@UAGKXZ
	DD	FLAT:?Release@XDocHostUIHandler@CCustomControlSite@@UAGKXZ
	DD	FLAT:?ShowContextMenu@XDocHostUIHandler@CCustomControlSite@@UAGJKPAUtagPOINT@@PAUIUnknown@@PAUIDispatch@@@Z
	DD	FLAT:?GetHostInfo@XDocHostUIHandler@CCustomControlSite@@UAGJPAU_DOCHOSTUIINFO@@@Z
	DD	FLAT:?ShowUI@XDocHostUIHandler@CCustomControlSite@@UAGJKPAUIOleInPlaceActiveObject@@PAUIOleCommandTarget@@PAUIOleInPlaceFrame@@PAUIOleInPlaceUIWindow@@@Z
	DD	FLAT:?HideUI@XDocHostUIHandler@CCustomControlSite@@UAGJXZ
	DD	FLAT:?UpdateUI@XDocHostUIHandler@CCustomControlSite@@UAGJXZ
	DD	FLAT:?EnableModeless@XDocHostUIHandler@CCustomControlSite@@UAGJH@Z
	DD	FLAT:?OnDocWindowActivate@XDocHostUIHandler@CCustomControlSite@@UAGJH@Z
	DD	FLAT:?OnFrameWindowActivate@XDocHostUIHandler@CCustomControlSite@@UAGJH@Z
	DD	FLAT:?ResizeBorder@XDocHostUIHandler@CCustomControlSite@@UAGJPBUtagRECT@@PAUIOleInPlaceUIWindow@@H@Z
	DD	FLAT:?TranslateAcceleratorA@XDocHostUIHandler@CCustomControlSite@@UAGJPAUtagMSG@@PBU_GUID@@K@Z
	DD	FLAT:?GetOptionKeyPath@XDocHostUIHandler@CCustomControlSite@@UAGJPAPA_WK@Z
	DD	FLAT:?GetDropTarget@XDocHostUIHandler@CCustomControlSite@@UAGJPAUIDropTarget@@PAPAU3@@Z
	DD	FLAT:?GetExternal@XDocHostUIHandler@CCustomControlSite@@UAGJPAPAUIDispatch@@@Z
	DD	FLAT:?TranslateUrl@XDocHostUIHandler@CCustomControlSite@@UAGJKPA_WPAPA_W@Z
	DD	FLAT:?FilterDataObject@XDocHostUIHandler@CCustomControlSite@@UAGJPAUIDataObject@@PAPAU3@@Z
CONST	ENDS
;	COMDAT ??_R4XDocHostUIHandler@CCustomControlSite@@6B@
rdata$r	SEGMENT
??_R4XDocHostUIHandler@CCustomControlSite@@6B@ DD 00H	; CCustomControlSite::XDocHostUIHandler::`RTTI Complete Object Locator'
	DD	00H
	DD	00H
	DD	FLAT:??_R0?AVXDocHostUIHandler@CCustomControlSite@@@8
	DD	FLAT:??_R3XDocHostUIHandler@CCustomControlSite@@8
rdata$r	ENDS
;	COMDAT ??_R0?AVXDocHostUIHandler@CCustomControlSite@@@8
_DATA	SEGMENT
??_R0?AVXDocHostUIHandler@CCustomControlSite@@@8 DD FLAT:??_7type_info@@6B@ ; CCustomControlSite::XDocHostUIHandler `RTTI Type Descriptor'
	DD	00H
	DB	'.?AVXDocHostUIHandler@CCustomControlSite@@', 00H
_DATA	ENDS
;	COMDAT ??_R3XDocHostUIHandler@CCustomControlSite@@8
rdata$r	SEGMENT
??_R3XDocHostUIHandler@CCustomControlSite@@8 DD 00H	; CCustomControlSite::XDocHostUIHandler::`RTTI Class Hierarchy Descriptor'
	DD	00H
	DD	03H
	DD	FLAT:??_R2XDocHostUIHandler@CCustomControlSite@@8
rdata$r	ENDS
;	COMDAT ??_R2XDocHostUIHandler@CCustomControlSite@@8
rdata$r	SEGMENT
??_R2XDocHostUIHandler@CCustomControlSite@@8 DD FLAT:??_R1A@?0A@A@XDocHostUIHandler@CCustomControlSite@@8 ; CCustomControlSite::XDocHostUIHandler::`RTTI Base Class Array'
	DD	FLAT:??_R1A@?0A@A@IDocHostUIHandler@@8
	DD	FLAT:??_R1A@?0A@A@IUnknown@@8
rdata$r	ENDS
;	COMDAT ??_R1A@?0A@A@XDocHostUIHandler@CCustomControlSite@@8
rdata$r	SEGMENT
??_R1A@?0A@A@XDocHostUIHandler@CCustomControlSite@@8 DD FLAT:??_R0?AVXDocHostUIHandler@CCustomControlSite@@@8 ; CCustomControlSite::XDocHostUIHandler::`RTTI Base Class Descriptor at (0,-1,0,0)'
	DD	02H
	DD	00H
	DD	0ffffffffH
	DD	00H
	DD	00H
rdata$r	ENDS
;	COMDAT ??_R1A@?0A@A@IDocHostUIHandler@@8
rdata$r	SEGMENT
??_R1A@?0A@A@IDocHostUIHandler@@8 DD FLAT:??_R0?AUIDocHostUIHandler@@@8 ; IDocHostUIHandler::`RTTI Base Class Descriptor at (0,-1,0,0)'
	DD	01H
	DD	00H
	DD	0ffffffffH
	DD	00H
	DD	00H
rdata$r	ENDS
;	COMDAT ??_R0?AUIDocHostUIHandler@@@8
_DATA	SEGMENT
??_R0?AUIDocHostUIHandler@@@8 DD FLAT:??_7type_info@@6B@ ; IDocHostUIHandler `RTTI Type Descriptor'
	DD	00H
	DB	'.?AUIDocHostUIHandler@@', 00H
; Function compile flags: /Odt
_DATA	ENDS
;	COMDAT ??0XDocHostUIHandler@CCustomControlSite@@QAE@XZ
_TEXT	SEGMENT
_this$ = -4						; size = 4
??0XDocHostUIHandler@CCustomControlSite@@QAE@XZ PROC NEAR ; CCustomControlSite::XDocHostUIHandler::XDocHostUIHandler, COMDAT
; _this$ = ecx
  00000	55		 push	 ebp
  00001	8b ec		 mov	 ebp, esp
  00003	51		 push	 ecx
  00004	89 4d fc	 mov	 DWORD PTR _this$[ebp], ecx
  00007	8b 4d fc	 mov	 ecx, DWORD PTR _this$[ebp]
  0000a	e8 00 00 00 00	 call	 ??0IDocHostUIHandler@@QAE@XZ
  0000f	8b 45 fc	 mov	 eax, DWORD PTR _this$[ebp]
  00012	c7 00 00 00 00
	00		 mov	 DWORD PTR [eax], OFFSET FLAT:??_7XDocHostUIHandler@CCustomControlSite@@6B@
  00018	8b 45 fc	 mov	 eax, DWORD PTR _this$[ebp]
  0001b	8b e5		 mov	 esp, ebp
  0001d	5d		 pop	 ebp
  0001e	c3		 ret	 0
??0XDocHostUIHandler@CCustomControlSite@@QAE@XZ ENDP	; CCustomControlSite::XDocHostUIHandler::XDocHostUIHandler
_TEXT	ENDS
EXTRN	??1COleControlSite@@UAE@XZ:NEAR			; COleControlSite::~COleControlSite
; Function compile flags: /Odt
;	COMDAT ??1CCustomControlSite@@UAE@XZ
_TEXT	SEGMENT
_this$ = -4						; size = 4
??1CCustomControlSite@@UAE@XZ PROC NEAR			; CCustomControlSite::~CCustomControlSite, COMDAT
; _this$ = ecx
  00000	55		 push	 ebp
  00001	8b ec		 mov	 ebp, esp
  00003	51		 push	 ecx
  00004	89 4d fc	 mov	 DWORD PTR _this$[ebp], ecx
  00007	8b 4d fc	 mov	 ecx, DWORD PTR _this$[ebp]
  0000a	e8 00 00 00 00	 call	 ??1COleControlSite@@UAE@XZ ; COleControlSite::~COleControlSite
  0000f	8b e5		 mov	 esp, ebp
  00011	5d		 pop	 ebp
  00012	c3		 ret	 0
??1CCustomControlSite@@UAE@XZ ENDP			; CCustomControlSite::~CCustomControlSite
_TEXT	ENDS
PUBLIC	??0IUnknown@@QAE@XZ				; IUnknown::IUnknown
; Function compile flags: /Odt
;	COMDAT ??0IDocHostShowUI@@QAE@XZ
_TEXT	SEGMENT
_this$ = -4						; size = 4
??0IDocHostShowUI@@QAE@XZ PROC NEAR			; IDocHostShowUI::IDocHostShowUI, COMDAT
; _this$ = ecx
  00000	55		 push	 ebp
  00001	8b ec		 mov	 ebp, esp
  00003	51		 push	 ecx
  00004	89 4d fc	 mov	 DWORD PTR _this$[ebp], ecx
  00007	8b 4d fc	 mov	 ecx, DWORD PTR _this$[ebp]
  0000a	e8 00 00 00 00	 call	 ??0IUnknown@@QAE@XZ
  0000f	8b 45 fc	 mov	 eax, DWORD PTR _this$[ebp]
  00012	8b e5		 mov	 esp, ebp
  00014	5d		 pop	 ebp
  00015	c3		 ret	 0
??0IDocHostShowUI@@QAE@XZ ENDP				; IDocHostShowUI::IDocHostShowUI
; Function compile flags: /Odt
_TEXT	ENDS
;	COMDAT ??0IDocHostUIHandler@@QAE@XZ
_TEXT	SEGMENT
_this$ = -4						; size = 4
??0IDocHostUIHandler@@QAE@XZ PROC NEAR			; IDocHostUIHandler::IDocHostUIHandler, COMDAT
; _this$ = ecx
  00000	55		 push	 ebp
  00001	8b ec		 mov	 ebp, esp
  00003	51		 push	 ecx
  00004	89 4d fc	 mov	 DWORD PTR _this$[ebp], ecx
  00007	8b 4d fc	 mov	 ecx, DWORD PTR _this$[ebp]
  0000a	e8 00 00 00 00	 call	 ??0IUnknown@@QAE@XZ
  0000f	8b 45 fc	 mov	 eax, DWORD PTR _this$[ebp]
  00012	8b e5		 mov	 esp, ebp
  00014	5d		 pop	 ebp
  00015	c3		 ret	 0
??0IDocHostUIHandler@@QAE@XZ ENDP			; IDocHostUIHandler::IDocHostUIHandler
_TEXT	ENDS
PUBLIC	??1CCustomOccManager@@UAE@XZ			; CCustomOccManager::~CCustomOccManager
; Function compile flags: /Odt
;	COMDAT ??_GCCustomOccManager@@UAEPAXI@Z
_TEXT	SEGMENT
_this$ = -4						; size = 4
___flags$ = 8						; size = 4
??_GCCustomOccManager@@UAEPAXI@Z PROC NEAR		; CCustomOccManager::`scalar deleting destructor', COMDAT
; _this$ = ecx
  00000	55		 push	 ebp
  00001	8b ec		 mov	 ebp, esp
  00003	51		 push	 ecx
  00004	89 4d fc	 mov	 DWORD PTR _this$[ebp], ecx
  00007	8b 4d fc	 mov	 ecx, DWORD PTR _this$[ebp]
  0000a	e8 00 00 00 00	 call	 ??1CCustomOccManager@@UAE@XZ
  0000f	8b 45 08	 mov	 eax, DWORD PTR ___flags$[ebp]
  00012	83 e0 01	 and	 eax, 1
  00015	74 09		 je	 SHORT $L197851
  00017	8b 4d fc	 mov	 ecx, DWORD PTR _this$[ebp]
  0001a	51		 push	 ecx
  0001b	e8 00 00 00 00	 call	 ??3CNoTrackObject@@SGXPAX@Z ; CNoTrackObject::operator delete
$L197851:
  00020	8b 45 fc	 mov	 eax, DWORD PTR _this$[ebp]
  00023	8b e5		 mov	 esp, ebp
  00025	5d		 pop	 ebp
  00026	c2 04 00	 ret	 4
??_GCCustomOccManager@@UAEPAXI@Z ENDP			; CCustomOccManager::`scalar deleting destructor'
_TEXT	ENDS
PUBLIC	??_7COccManager@@6B@				; COccManager::`vftable'
PUBLIC	??_GCOccManager@@UAEPAXI@Z			; COccManager::`scalar deleting destructor'
PUBLIC	??0CNoTrackObject@@QAE@XZ			; CNoTrackObject::CNoTrackObject
PUBLIC	??_R4COccManager@@6B@				; COccManager::`RTTI Complete Object Locator'
PUBLIC	??_R3COccManager@@8				; COccManager::`RTTI Class Hierarchy Descriptor'
PUBLIC	??_R2COccManager@@8				; COccManager::`RTTI Base Class Array'
EXTRN	?CreateSite@COccManager@@UAEPAVCOleControlSite@@PAVCOleControlContainer@@@Z:NEAR ; COccManager::CreateSite
EXTRN	??_ECOccManager@@UAEPAXI@Z:NEAR			; COccManager::`vector deleting destructor'
;	COMDAT ??_7COccManager@@6B@
CONST	SEGMENT
??_7COccManager@@6B@ DD FLAT:??_R4COccManager@@6B@	; COccManager::`vftable'
	DD	FLAT:??_ECOccManager@@UAEPAXI@Z
	DD	FLAT:?OnEvent@COccManager@@UAEHPAVCCmdTarget@@IPAUAFX_EVENT@@PAUAFX_CMDHANDLERINFO@@@Z
	DD	FLAT:?CreateContainer@COccManager@@UAEPAVCOleControlContainer@@PAVCWnd@@@Z
	DD	FLAT:?CreateSite@COccManager@@UAEPAVCOleControlSite@@PAVCOleControlContainer@@@Z
	DD	FLAT:?PreCreateDialog@COccManager@@UAEPBUDLGTEMPLATE@@PAU_AFX_OCC_DIALOG_INFO@@PBU2@@Z
	DD	FLAT:?PostCreateDialog@COccManager@@UAEXPAU_AFX_OCC_DIALOG_INFO@@@Z
	DD	FLAT:?SplitDialogTemplate@COccManager@@UAEPAUDLGTEMPLATE@@PBU2@PAPAUDLGITEMTEMPLATE@@@Z
	DD	FLAT:?CreateDlgControls@COccManager@@UAEHPAVCWnd@@PAXPAU_AFX_OCC_DIALOG_INFO@@@Z
	DD	FLAT:?CreateDlgControls@COccManager@@UAEHPAVCWnd@@PBDPAU_AFX_OCC_DIALOG_INFO@@@Z
	DD	FLAT:?IsDialogMessageA@COccManager@@UAEHPAVCWnd@@PAUtagMSG@@@Z
CONST	ENDS
;	COMDAT ??_R4COccManager@@6B@
rdata$r	SEGMENT
??_R4COccManager@@6B@ DD 00H				; COccManager::`RTTI Complete Object Locator'
	DD	00H
	DD	00H
	DD	FLAT:??_R0?AVCOccManager@@@8
	DD	FLAT:??_R3COccManager@@8
rdata$r	ENDS
;	COMDAT ??_R3COccManager@@8
rdata$r	SEGMENT
??_R3COccManager@@8 DD 00H				; COccManager::`RTTI Class Hierarchy Descriptor'
	DD	00H
	DD	02H
	DD	FLAT:??_R2COccManager@@8
rdata$r	ENDS
;	COMDAT ??_R2COccManager@@8
rdata$r	SEGMENT
??_R2COccManager@@8 DD FLAT:??_R1A@?0A@A@COccManager@@8	; COccManager::`RTTI Base Class Array'
	DD	FLAT:??_R1A@?0A@A@CNoTrackObject@@8
; Function compile flags: /Odt
rdata$r	ENDS
;	COMDAT ??0COccManager@@QAE@XZ
_TEXT	SEGMENT
_this$ = -4						; size = 4
??0COccManager@@QAE@XZ PROC NEAR			; COccManager::COccManager, COMDAT
; _this$ = ecx
  00000	55		 push	 ebp
  00001	8b ec		 mov	 ebp, esp
  00003	51		 push	 ecx
  00004	89 4d fc	 mov	 DWORD PTR _this$[ebp], ecx
  00007	8b 4d fc	 mov	 ecx, DWORD PTR _this$[ebp]
  0000a	e8 00 00 00 00	 call	 ??0CNoTrackObject@@QAE@XZ
  0000f	8b 45 fc	 mov	 eax, DWORD PTR _this$[ebp]
  00012	c7 00 00 00 00
	00		 mov	 DWORD PTR [eax], OFFSET FLAT:??_7COccManager@@6B@
  00018	8b 45 fc	 mov	 eax, DWORD PTR _this$[ebp]
  0001b	8b e5		 mov	 esp, ebp
  0001d	5d		 pop	 ebp
  0001e	c3		 ret	 0
??0COccManager@@QAE@XZ ENDP				; COccManager::COccManager
_TEXT	ENDS
PUBLIC	??1COccManager@@UAE@XZ				; COccManager::~COccManager
; Function compile flags: /Odt
;	COMDAT ??1CCustomOccManager@@UAE@XZ
_TEXT	SEGMENT
_this$ = -4						; size = 4
??1CCustomOccManager@@UAE@XZ PROC NEAR			; CCustomOccManager::~CCustomOccManager, COMDAT
; _this$ = ecx
  00000	55		 push	 ebp
  00001	8b ec		 mov	 ebp, esp
  00003	51		 push	 ecx
  00004	89 4d fc	 mov	 DWORD PTR _this$[ebp], ecx
  00007	8b 4d fc	 mov	 ecx, DWORD PTR _this$[ebp]
  0000a	e8 00 00 00 00	 call	 ??1COccManager@@UAE@XZ
  0000f	8b e5		 mov	 esp, ebp
  00011	5d		 pop	 ebp
  00012	c3		 ret	 0
??1CCustomOccManager@@UAE@XZ ENDP			; CCustomOccManager::~CCustomOccManager
_TEXT	ENDS
PUBLIC	??1CNoTrackObject@@UAE@XZ			; CNoTrackObject::~CNoTrackObject
; Function compile flags: /Odt
;	COMDAT ??1COccManager@@UAE@XZ
_TEXT	SEGMENT
_this$ = -4						; size = 4
??1COccManager@@UAE@XZ PROC NEAR			; COccManager::~COccManager, COMDAT
; _this$ = ecx
  00000	55		 push	 ebp
  00001	8b ec		 mov	 ebp, esp
  00003	51		 push	 ecx
  00004	89 4d fc	 mov	 DWORD PTR _this$[ebp], ecx
  00007	8b 4d fc	 mov	 ecx, DWORD PTR _this$[ebp]
  0000a	e8 00 00 00 00	 call	 ??1CNoTrackObject@@UAE@XZ ; CNoTrackObject::~CNoTrackObject
  0000f	8b e5		 mov	 esp, ebp
  00011	5d		 pop	 ebp
  00012	c3		 ret	 0
??1COccManager@@UAE@XZ ENDP				; COccManager::~COccManager
; Function compile flags: /Odt
_TEXT	ENDS
;	COMDAT ??_GCOccManager@@UAEPAXI@Z
_TEXT	SEGMENT
_this$ = -4						; size = 4
___flags$ = 8						; size = 4
??_GCOccManager@@UAEPAXI@Z PROC NEAR			; COccManager::`scalar deleting destructor', COMDAT
; _this$ = ecx
  00000	55		 push	 ebp
  00001	8b ec		 mov	 ebp, esp
  00003	51		 push	 ecx
  00004	89 4d fc	 mov	 DWORD PTR _this$[ebp], ecx
  00007	8b 4d fc	 mov	 ecx, DWORD PTR _this$[ebp]
  0000a	e8 00 00 00 00	 call	 ??1COccManager@@UAE@XZ
  0000f	8b 45 08	 mov	 eax, DWORD PTR ___flags$[ebp]
  00012	83 e0 01	 and	 eax, 1
  00015	74 09		 je	 SHORT $L197861
  00017	8b 4d fc	 mov	 ecx, DWORD PTR _this$[ebp]
  0001a	51		 push	 ecx
  0001b	e8 00 00 00 00	 call	 ??3CNoTrackObject@@SGXPAX@Z ; CNoTrackObject::operator delete
$L197861:
  00020	8b 45 fc	 mov	 eax, DWORD PTR _this$[ebp]
  00023	8b e5		 mov	 esp, ebp
  00025	5d		 pop	 ebp
  00026	c2 04 00	 ret	 4
??_GCOccManager@@UAEPAXI@Z ENDP				; COccManager::`scalar deleting destructor'
; Function compile flags: /Odt
_TEXT	ENDS
;	COMDAT ??0CNoTrackObject@@QAE@XZ
_TEXT	SEGMENT
_this$ = -4						; size = 4
??0CNoTrackObject@@QAE@XZ PROC NEAR			; CNoTrackObject::CNoTrackObject, COMDAT
; _this$ = ecx
  00000	55		 push	 ebp
  00001	8b ec		 mov	 ebp, esp
  00003	51		 push	 ecx
  00004	89 4d fc	 mov	 DWORD PTR _this$[ebp], ecx
  00007	8b 45 fc	 mov	 eax, DWORD PTR _this$[ebp]
  0000a	8b e5		 mov	 esp, ebp
  0000c	5d		 pop	 ebp
  0000d	c3		 ret	 0
??0CNoTrackObject@@QAE@XZ ENDP				; CNoTrackObject::CNoTrackObject
; Function compile flags: /Odt
; File d:\boxgit\playbox\playbox\dev\prj\playbox\src\module\webinteract\mywebbrowserwnd.cpp
_TEXT	ENDS
_TEXT	SEGMENT
_this$ = -4						; size = 4
_pContainer$ = 8					; size = 4
_ppSite$ = 12						; size = 4
_nID$ = 16						; size = 4
_clsid$ = 20						; size = 4
?CreateControlSite@MyWebBrowserWnd@@UAEHPAVCOleControlContainer@@PAPAVCOleControlSite@@IABU_GUID@@@Z PROC NEAR ; MyWebBrowserWnd::CreateControlSite
; _this$ = ecx

; 84   : {

  003e0	55		 push	 ebp
  003e1	8b ec		 mov	 ebp, esp
  003e3	51		 push	 ecx
  003e4	89 4d fc	 mov	 DWORD PTR _this$[ebp], ecx

; 85   : 	return TRUE;

  003e7	b8 01 00 00 00	 mov	 eax, 1

; 86   : }

  003ec	8b e5		 mov	 esp, ebp
  003ee	5d		 pop	 ebp
  003ef	c2 10 00	 ret	 16			; 00000010H
?CreateControlSite@MyWebBrowserWnd@@UAEHPAVCOleControlContainer@@PAPAVCOleControlSite@@IABU_GUID@@@Z ENDP ; MyWebBrowserWnd::CreateControlSite
_TEXT	ENDS
PUBLIC	?KillTimer@CWnd@@QAEHI@Z			; CWnd::KillTimer
PUBLIC	?Init@MyWebBrowserWnd@@QAEXXZ			; MyWebBrowserWnd::Init
EXTRN	?ShowWindow@CWnd@@QAEHH@Z:NEAR			; CWnd::ShowWindow
EXTRN	__imp_??4?$CStringT@DV?$StrTraitMFC_DLL@DV?$ChTraitsCRT@D@ATL@@@@@ATL@@QAEAAV01@PBD@Z:NEAR
EXTRN	__imp__IsWindow@4:NEAR
; Function compile flags: /Odt
_TEXT	SEGMENT
_this$ = -4						; size = 4
?Init@MyWebBrowserWnd@@QAEXXZ PROC NEAR			; MyWebBrowserWnd::Init
; _this$ = ecx

; 89   : {

  00400	55		 push	 ebp
  00401	8b ec		 mov	 ebp, esp
  00403	51		 push	 ecx
  00404	89 4d fc	 mov	 DWORD PTR _this$[ebp], ecx

; 90   : 	KillTimer( TIMER_CHECK_NAVIGATE );

  00407	68 6c 04 00 00	 push	 1132			; 0000046cH
  0040c	8b 4d fc	 mov	 ecx, DWORD PTR _this$[ebp]
  0040f	e8 00 00 00 00	 call	 ?KillTimer@CWnd@@QAEHI@Z ; CWnd::KillTimer

; 91   : 	m_bSucceed = TRUE;

  00414	8b 45 fc	 mov	 eax, DWORD PTR _this$[ebp]
  00417	c7 80 f4 00 00
	00 01 00 00 00	 mov	 DWORD PTR [eax+244], 1

; 92   : 	m_bReady = FALSE;

  00421	8b 4d fc	 mov	 ecx, DWORD PTR _this$[ebp]
  00424	c7 81 f8 00 00
	00 00 00 00 00	 mov	 DWORD PTR [ecx+248], 0

; 93   : 	m_strURL = "";

  0042e	68 00 00 00 00	 push	 OFFSET FLAT:$SG206305
  00433	8b 4d fc	 mov	 ecx, DWORD PTR _this$[ebp]
  00436	81 c1 00 01 00
	00		 add	 ecx, 256		; 00000100H
  0043c	ff 15 00 00 00
	00		 call	 DWORD PTR __imp_??4?$CStringT@DV?$StrTraitMFC_DLL@DV?$ChTraitsCRT@D@ATL@@@@@ATL@@QAEAAV01@PBD@Z

; 94   : 	m_dwStartShowTime = 0;

  00442	8b 55 fc	 mov	 edx, DWORD PTR _this$[ebp]
  00445	c7 82 fc 00 00
	00 00 00 00 00	 mov	 DWORD PTR [edx+252], 0

; 95   : 	if (::IsWindow (m_flash.m_hWnd))

  0044f	8b 45 fc	 mov	 eax, DWORD PTR _this$[ebp]
  00452	8b 88 24 01 00
	00		 mov	 ecx, DWORD PTR [eax+292]
  00458	51		 push	 ecx
  00459	ff 15 00 00 00
	00		 call	 DWORD PTR __imp__IsWindow@4
  0045f	85 c0		 test	 eax, eax
  00461	74 10		 je	 SHORT $L206304

; 96   : 		m_flash.ShowWindow(SW_SHOW);

  00463	6a 05		 push	 5
  00465	8b 4d fc	 mov	 ecx, DWORD PTR _this$[ebp]
  00468	81 c1 04 01 00
	00		 add	 ecx, 260		; 00000104H
  0046e	e8 00 00 00 00	 call	 ?ShowWindow@CWnd@@QAEHH@Z ; CWnd::ShowWindow
$L206304:

; 97   : }

  00473	8b e5		 mov	 esp, ebp
  00475	5d		 pop	 ebp
  00476	c3		 ret	 0
?Init@MyWebBrowserWnd@@QAEXXZ ENDP			; MyWebBrowserWnd::Init
_TEXT	ENDS
PUBLIC	?Recycle@MyWebBrowserWnd@@QAEXXZ		; MyWebBrowserWnd::Recycle
; Function compile flags: /Odt
_TEXT	SEGMENT
_this$ = -4						; size = 4
?Recycle@MyWebBrowserWnd@@QAEXXZ PROC NEAR		; MyWebBrowserWnd::Recycle
; _this$ = ecx

; 100  : {

  00480	55		 push	 ebp
  00481	8b ec		 mov	 ebp, esp
  00483	51		 push	 ecx
  00484	89 4d fc	 mov	 DWORD PTR _this$[ebp], ecx

; 101  : 	Init();

  00487	8b 4d fc	 mov	 ecx, DWORD PTR _this$[ebp]
  0048a	e8 00 00 00 00	 call	 ?Init@MyWebBrowserWnd@@QAEXXZ ; MyWebBrowserWnd::Init

; 102  : }

  0048f	8b e5		 mov	 esp, ebp
  00491	5d		 pop	 ebp
  00492	c3		 ret	 0
?Recycle@MyWebBrowserWnd@@QAEXXZ ENDP			; MyWebBrowserWnd::Recycle
_TEXT	ENDS
PUBLIC	??0CRect@@QAE@HHHH@Z				; CRect::CRect
EXTRN	__imp_??4?$basic_string@DU?$char_traits@D@std@@V?$allocator@D@2@@std@@QAEAAV01@PBD@Z:NEAR
EXTRN	__imp_??Y?$basic_string@DU?$char_traits@D@std@@V?$allocator@D@2@@std@@QAEAAV01@PBD@Z:NEAR
EXTRN	?GetHomePath@CLhcImg@@SA_NQADH@Z:NEAR		; CLhcImg::GetHomePath
EXTRN	?OnCreate@CFormView@@IAEHPAUtagCREATESTRUCTA@@@Z:NEAR ; CFormView::OnCreate
; Function compile flags: /Odt
_TEXT	SEGMENT
_this$ = -292						; size = 4
$T207854 = -288						; size = 16
_szBuffer$ = -272					; size = 260
__$ArrayPad$ = -4					; size = 4
__$ReturnAddr$ = 4					; size = 4
_lpCreateStruct$ = 8					; size = 4
?OnCreate@MyWebBrowserWnd@@IAEHPAUtagCREATESTRUCTA@@@Z PROC NEAR ; MyWebBrowserWnd::OnCreate
; _this$ = ecx

; 105  : {

  004a0	55		 push	 ebp
  004a1	8b ec		 mov	 ebp, esp
  004a3	81 ec 24 01 00
	00		 sub	 esp, 292		; 00000124H
  004a9	a1 00 00 00 00	 mov	 eax, DWORD PTR ___security_cookie
  004ae	89 45 fc	 mov	 DWORD PTR __$ArrayPad$[ebp], eax
  004b1	89 8d dc fe ff
	ff		 mov	 DWORD PTR _this$[ebp], ecx

; 106  : 	if( __super::OnCreate( lpCreateStruct) == -1 )

  004b7	8b 45 08	 mov	 eax, DWORD PTR _lpCreateStruct$[ebp]
  004ba	50		 push	 eax
  004bb	8b 8d dc fe ff
	ff		 mov	 ecx, DWORD PTR _this$[ebp]
  004c1	e8 00 00 00 00	 call	 ?OnCreate@CFormView@@IAEHPAUtagCREATESTRUCTA@@@Z ; CFormView::OnCreate
  004c6	83 f8 ff	 cmp	 eax, -1
  004c9	75 08		 jne	 SHORT $L206314

; 107  : 	{
; 108  : 		return -1;

  004cb	83 c8 ff	 or	 eax, -1
  004ce	e9 ab 00 00 00	 jmp	 $L206313
$L206314:

; 109  : 	}
; 110  : 
; 111  : 	if (m_bShowLoading)

  004d3	8b 8d dc fe ff
	ff		 mov	 ecx, DWORD PTR _this$[ebp]
  004d9	83 b9 c0 01 00
	00 00		 cmp	 DWORD PTR [ecx+448], 0
  004e0	74 56		 je	 SHORT $L206315

; 112  : 	{
; 113  : 		m_flash.Create(NULL,NULL, WS_CHILD, CRect(0,0,0,0), this, ID_GAME_RIGHT_LOADING_FLASH);

  004e2	6a 00		 push	 0
  004e4	6a 79		 push	 121			; 00000079H
  004e6	8b 95 dc fe ff
	ff		 mov	 edx, DWORD PTR _this$[ebp]
  004ec	52		 push	 edx
  004ed	6a 00		 push	 0
  004ef	6a 00		 push	 0
  004f1	6a 00		 push	 0
  004f3	6a 00		 push	 0
  004f5	8d 8d e0 fe ff
	ff		 lea	 ecx, DWORD PTR $T207854[ebp]
  004fb	e8 00 00 00 00	 call	 ??0CRect@@QAE@HHHH@Z	; CRect::CRect
  00500	50		 push	 eax
  00501	68 00 00 00 40	 push	 1073741824		; 40000000H
  00506	6a 00		 push	 0
  00508	6a 00		 push	 0
  0050a	8b 8d dc fe ff
	ff		 mov	 ecx, DWORD PTR _this$[ebp]
  00510	81 c1 04 01 00
	00		 add	 ecx, 260		; 00000104H
  00516	8b 85 dc fe ff
	ff		 mov	 eax, DWORD PTR _this$[ebp]
  0051c	8b 90 04 01 00
	00		 mov	 edx, DWORD PTR [eax+260]
  00522	ff 52 5c	 call	 DWORD PTR [edx+92]

; 114  : 		m_flash.ShowWindow(SW_SHOW);

  00525	6a 05		 push	 5
  00527	8b 8d dc fe ff
	ff		 mov	 ecx, DWORD PTR _this$[ebp]
  0052d	81 c1 04 01 00
	00		 add	 ecx, 260		; 00000104H
  00533	e8 00 00 00 00	 call	 ?ShowWindow@CWnd@@QAEHH@Z ; CWnd::ShowWindow
$L206315:

; 115  : 	}
; 116  : 
; 117  : 	char szBuffer[MAX_PATH];
; 118  : 	CLhcImg::GetHomePath(szBuffer,MAX_PATH);

  00538	68 04 01 00 00	 push	 260			; 00000104H
  0053d	8d 85 f0 fe ff
	ff		 lea	 eax, DWORD PTR _szBuffer$[ebp]
  00543	50		 push	 eax
  00544	e8 00 00 00 00	 call	 ?GetHomePath@CLhcImg@@SA_NQADH@Z ; CLhcImg::GetHomePath
  00549	83 c4 08	 add	 esp, 8

; 119  : 	m_strErrorPagePath = szBuffer;

  0054c	8d 8d f0 fe ff
	ff		 lea	 ecx, DWORD PTR _szBuffer$[ebp]
  00552	51		 push	 ecx
  00553	8b 8d dc fe ff
	ff		 mov	 ecx, DWORD PTR _this$[ebp]
  00559	81 c1 cc 01 00
	00		 add	 ecx, 460		; 000001ccH
  0055f	ff 15 00 00 00
	00		 call	 DWORD PTR __imp_??4?$basic_string@DU?$char_traits@D@std@@V?$allocator@D@2@@std@@QAEAAV01@PBD@Z

; 120  : 	m_strErrorPagePath += "\\Resources\\StandardUI\\error404.htm?r=";

  00565	68 00 00 00 00	 push	 OFFSET FLAT:$SG206318
  0056a	8b 8d dc fe ff
	ff		 mov	 ecx, DWORD PTR _this$[ebp]
  00570	81 c1 cc 01 00
	00		 add	 ecx, 460		; 000001ccH
  00576	ff 15 00 00 00
	00		 call	 DWORD PTR __imp_??Y?$basic_string@DU?$char_traits@D@std@@V?$allocator@D@2@@std@@QAEAAV01@PBD@Z

; 121  : 	return 0;

  0057c	33 c0		 xor	 eax, eax
$L206313:

; 122  : }

  0057e	8b 4d fc	 mov	 ecx, DWORD PTR __$ArrayPad$[ebp]
  00581	e8 00 00 00 00	 call	 @__security_check_cookie@4
  00586	8b e5		 mov	 esp, ebp
  00588	5d		 pop	 ebp
  00589	c2 04 00	 ret	 4
?OnCreate@MyWebBrowserWnd@@IAEHPAUtagCREATESTRUCTA@@@Z ENDP ; MyWebBrowserWnd::OnCreate
_TEXT	ENDS
PUBLIC	??0CRect@@QAE@XZ				; CRect::CRect
EXTRN	?FillSolidRect@CDC@@QAEXPBUtagRECT@@K@Z:NEAR	; CDC::FillSolidRect
; Function compile flags: /Odt
_TEXT	SEGMENT
_this$ = -24						; size = 4
_rcClient$ = -20					; size = 16
_clBak$ = -4						; size = 4
_pDC$ = 8						; size = 4
?OnEraseBkgnd@MyWebBrowserWnd@@QAEHPAVCDC@@@Z PROC NEAR	; MyWebBrowserWnd::OnEraseBkgnd
; _this$ = ecx

; 125  : {

  00590	55		 push	 ebp
  00591	8b ec		 mov	 ebp, esp
  00593	83 ec 18	 sub	 esp, 24			; 00000018H
  00596	89 4d e8	 mov	 DWORD PTR _this$[ebp], ecx

; 126  : // 	COLORREF clBak = RGB (41, 41, 41);
; 127  : 	COLORREF clBak = RGB (39, 39, 39);

  00599	c7 45 fc 27 27
	27 00		 mov	 DWORD PTR _clBak$[ebp], 2565927 ; 00272727H

; 128  : 	CRect rcClient;

  005a0	8d 4d ec	 lea	 ecx, DWORD PTR _rcClient$[ebp]
  005a3	e8 00 00 00 00	 call	 ??0CRect@@QAE@XZ	; CRect::CRect

; 129  : 	GetClientRect (&rcClient);

  005a8	8d 45 ec	 lea	 eax, DWORD PTR _rcClient$[ebp]
  005ab	50		 push	 eax
  005ac	8b 4d e8	 mov	 ecx, DWORD PTR _this$[ebp]
  005af	e8 00 00 00 00	 call	 ?GetClientRect@CWnd@@QBEXPAUtagRECT@@@Z ; CWnd::GetClientRect

; 130  : 
; 131  : 	pDC->FillSolidRect (&rcClient, clBak);

  005b4	8b 4d fc	 mov	 ecx, DWORD PTR _clBak$[ebp]
  005b7	51		 push	 ecx
  005b8	8d 55 ec	 lea	 edx, DWORD PTR _rcClient$[ebp]
  005bb	52		 push	 edx
  005bc	8b 4d 08	 mov	 ecx, DWORD PTR _pDC$[ebp]
  005bf	e8 00 00 00 00	 call	 ?FillSolidRect@CDC@@QAEXPBUtagRECT@@K@Z ; CDC::FillSolidRect

; 132  : 	
; 133  : 	return TRUE;

  005c4	b8 01 00 00 00	 mov	 eax, 1

; 134  : }

  005c9	8b e5		 mov	 esp, ebp
  005cb	5d		 pop	 ebp
  005cc	c2 04 00	 ret	 4
?OnEraseBkgnd@MyWebBrowserWnd@@QAEHPAVCDC@@@Z ENDP	; MyWebBrowserWnd::OnEraseBkgnd
_TEXT	ENDS
PUBLIC	?SetTimer@CWnd@@QAEIIIP6GXPAUHWND__@@IIK@Z@Z	; CWnd::SetTimer
PUBLIC	?Navigate@MyWebBrowserWnd@@QAEXV?$basic_string@DU?$char_traits@D@std@@V?$allocator@D@2@@std@@@Z ; MyWebBrowserWnd::Navigate
EXTRN	__imp_?c_str@?$basic_string@DU?$char_traits@D@std@@V?$allocator@D@2@@std@@QBEPBDXZ:NEAR
EXTRN	__imp_??4?$CStringT@DV?$StrTraitMFC_DLL@DV?$ChTraitsCRT@D@ATL@@@@@ATL@@QAEAAV01@ABV01@@Z:NEAR
EXTRN	__imp_?YL_Log@@YAXABV?$basic_string@DU?$char_traits@D@std@@V?$allocator@D@2@@std@@H0PBDZZ:NEAR
EXTRN	__imp_??0?$basic_string@DU?$char_traits@D@std@@V?$allocator@D@2@@std@@QAE@PBD@Z:NEAR
EXTRN	?Navigate2@CHtmlView@@QAEXPBDK00PAXK@Z:NEAR	; CHtmlView::Navigate2
EXTRN	__imp__GetTickCount@0:NEAR
xdata$x	SEGMENT
$T207868 DD	0ffffffffH
	DD	FLAT:$L207861
	DD	00H
	DD	FLAT:$L207862
	DD	00H
	DD	FLAT:$L207863
	DD	02H
	DD	FLAT:$L207864
$T207866 DD	019930520H
	DD	04H
	DD	FLAT:$T207868
	DD	2 DUP(00H)
	DD	2 DUP(00H)
; Function compile flags: /Odt
xdata$x	ENDS
_TEXT	SEGMENT
tv141 = -84						; size = 4
tv145 = -80						; size = 4
_this$ = -76						; size = 4
$T207860 = -72						; size = 28
$T207859 = -44						; size = 28
$T207858 = -16						; size = 4
__$EHRec$ = -12						; size = 12
_strUrl$ = 8						; size = 28
?Navigate@MyWebBrowserWnd@@QAEXV?$basic_string@DU?$char_traits@D@std@@V?$allocator@D@2@@std@@@Z PROC NEAR ; MyWebBrowserWnd::Navigate
; _this$ = ecx

; 137  : {	

  005d0	55		 push	 ebp
  005d1	8b ec		 mov	 ebp, esp
  005d3	6a ff		 push	 -1
  005d5	68 00 00 00 00	 push	 __ehhandler$?Navigate@MyWebBrowserWnd@@QAEXV?$basic_string@DU?$char_traits@D@std@@V?$allocator@D@2@@std@@@Z
  005da	64 a1 00 00 00
	00		 mov	 eax, DWORD PTR fs:__except_list
  005e0	50		 push	 eax
  005e1	64 89 25 00 00
	00 00		 mov	 DWORD PTR fs:__except_list, esp
  005e8	83 ec 48	 sub	 esp, 72			; 00000048H
  005eb	89 4d b4	 mov	 DWORD PTR _this$[ebp], ecx
  005ee	c7 45 fc 00 00
	00 00		 mov	 DWORD PTR __$EHRec$[ebp+8], 0

; 138  : 	Init();

  005f5	8b 4d b4	 mov	 ecx, DWORD PTR _this$[ebp]
  005f8	e8 00 00 00 00	 call	 ?Init@MyWebBrowserWnd@@QAEXXZ ; MyWebBrowserWnd::Init

; 139  : 	//RegisterLHProtocol();
; 140  : 	m_strURL = CString( strUrl.c_str() );

  005fd	8d 4d 08	 lea	 ecx, DWORD PTR _strUrl$[ebp]
  00600	ff 15 00 00 00
	00		 call	 DWORD PTR __imp_?c_str@?$basic_string@DU?$char_traits@D@std@@V?$allocator@D@2@@std@@QBEPBDXZ
  00606	50		 push	 eax
  00607	8d 4d f0	 lea	 ecx, DWORD PTR $T207858[ebp]
  0060a	ff 15 00 00 00
	00		 call	 DWORD PTR __imp_??0?$CStringT@DV?$StrTraitMFC_DLL@DV?$ChTraitsCRT@D@ATL@@@@@ATL@@QAE@PBD@Z
  00610	89 45 b0	 mov	 DWORD PTR tv145[ebp], eax
  00613	8b 45 b0	 mov	 eax, DWORD PTR tv145[ebp]
  00616	89 45 ac	 mov	 DWORD PTR tv141[ebp], eax
  00619	c6 45 fc 01	 mov	 BYTE PTR __$EHRec$[ebp+8], 1
  0061d	8b 4d ac	 mov	 ecx, DWORD PTR tv141[ebp]
  00620	51		 push	 ecx
  00621	8b 4d b4	 mov	 ecx, DWORD PTR _this$[ebp]
  00624	81 c1 00 01 00
	00		 add	 ecx, 256		; 00000100H
  0062a	ff 15 00 00 00
	00		 call	 DWORD PTR __imp_??4?$CStringT@DV?$StrTraitMFC_DLL@DV?$ChTraitsCRT@D@ATL@@@@@ATL@@QAEAAV01@ABV01@@Z
  00630	c6 45 fc 00	 mov	 BYTE PTR __$EHRec$[ebp+8], 0
  00634	8d 4d f0	 lea	 ecx, DWORD PTR $T207858[ebp]
  00637	ff 15 00 00 00
	00		 call	 DWORD PTR __imp_??1?$CStringT@DV?$StrTraitMFC_DLL@DV?$ChTraitsCRT@D@ATL@@@@@ATL@@QAE@XZ

; 141  : 
; 142  : 	m_dwStartShowTime = GetTickCount();

  0063d	ff 15 00 00 00
	00		 call	 DWORD PTR __imp__GetTickCount@0
  00643	8b 55 b4	 mov	 edx, DWORD PTR _this$[ebp]
  00646	89 82 fc 00 00
	00		 mov	 DWORD PTR [edx+252], eax

; 143  : 	SetTimer( TIMER_CHECK_NAVIGATE, ELAPSE_TIMER_CHECK_NAVIGATE, NULL );

  0064c	6a 00		 push	 0
  0064e	68 e8 03 00 00	 push	 1000			; 000003e8H
  00653	68 6c 04 00 00	 push	 1132			; 0000046cH
  00658	8b 4d b4	 mov	 ecx, DWORD PTR _this$[ebp]
  0065b	e8 00 00 00 00	 call	 ?SetTimer@CWnd@@QAEIIIP6GXPAUHWND__@@IIK@Z@Z ; CWnd::SetTimer

; 144  : 	
; 145  : 	Navigate2( strUrl.c_str() );

  00660	6a 00		 push	 0
  00662	6a 00		 push	 0
  00664	6a 00		 push	 0
  00666	6a 00		 push	 0
  00668	6a 00		 push	 0
  0066a	8d 4d 08	 lea	 ecx, DWORD PTR _strUrl$[ebp]
  0066d	ff 15 00 00 00
	00		 call	 DWORD PTR __imp_?c_str@?$basic_string@DU?$char_traits@D@std@@V?$allocator@D@2@@std@@QBEPBDXZ
  00673	50		 push	 eax
  00674	8b 4d b4	 mov	 ecx, DWORD PTR _this$[ebp]
  00677	e8 00 00 00 00	 call	 ?Navigate2@CHtmlView@@QAEXPBDK00PAXK@Z ; CHtmlView::Navigate2

; 146  : 	YL_Log("log_httpr.txt",LOG_DEBUG,"Web BEGIN","%s",strUrl.c_str());

  0067c	68 00 00 00 00	 push	 OFFSET FLAT:$SG206339
  00681	8d 4d d4	 lea	 ecx, DWORD PTR $T207859[ebp]
  00684	ff 15 00 00 00
	00		 call	 DWORD PTR __imp_??0?$basic_string@DU?$char_traits@D@std@@V?$allocator@D@2@@std@@QAE@PBD@Z
  0068a	c6 45 fc 02	 mov	 BYTE PTR __$EHRec$[ebp+8], 2
  0068e	68 00 00 00 00	 push	 OFFSET FLAT:$SG206340
  00693	8d 4d b8	 lea	 ecx, DWORD PTR $T207860[ebp]
  00696	ff 15 00 00 00
	00		 call	 DWORD PTR __imp_??0?$basic_string@DU?$char_traits@D@std@@V?$allocator@D@2@@std@@QAE@PBD@Z
  0069c	c6 45 fc 03	 mov	 BYTE PTR __$EHRec$[ebp+8], 3
  006a0	8d 4d 08	 lea	 ecx, DWORD PTR _strUrl$[ebp]
  006a3	ff 15 00 00 00
	00		 call	 DWORD PTR __imp_?c_str@?$basic_string@DU?$char_traits@D@std@@V?$allocator@D@2@@std@@QBEPBDXZ
  006a9	50		 push	 eax
  006aa	68 00 00 00 00	 push	 OFFSET FLAT:$SG206338
  006af	8d 45 d4	 lea	 eax, DWORD PTR $T207859[ebp]
  006b2	50		 push	 eax
  006b3	6a 00		 push	 0
  006b5	8d 4d b8	 lea	 ecx, DWORD PTR $T207860[ebp]
  006b8	51		 push	 ecx
  006b9	ff 15 00 00 00
	00		 call	 DWORD PTR __imp_?YL_Log@@YAXABV?$basic_string@DU?$char_traits@D@std@@V?$allocator@D@2@@std@@H0PBDZZ
  006bf	83 c4 14	 add	 esp, 20			; 00000014H
  006c2	c6 45 fc 02	 mov	 BYTE PTR __$EHRec$[ebp+8], 2
  006c6	8d 4d b8	 lea	 ecx, DWORD PTR $T207860[ebp]
  006c9	ff 15 00 00 00
	00		 call	 DWORD PTR __imp_??1?$basic_string@DU?$char_traits@D@std@@V?$allocator@D@2@@std@@QAE@XZ
  006cf	c6 45 fc 00	 mov	 BYTE PTR __$EHRec$[ebp+8], 0
  006d3	8d 4d d4	 lea	 ecx, DWORD PTR $T207859[ebp]
  006d6	ff 15 00 00 00
	00		 call	 DWORD PTR __imp_??1?$basic_string@DU?$char_traits@D@std@@V?$allocator@D@2@@std@@QAE@XZ

; 147  : 	m_bSucceed = TRUE;

  006dc	8b 55 b4	 mov	 edx, DWORD PTR _this$[ebp]
  006df	c7 82 f4 00 00
	00 01 00 00 00	 mov	 DWORD PTR [edx+244], 1

; 148  : }

  006e9	c7 45 fc ff ff
	ff ff		 mov	 DWORD PTR __$EHRec$[ebp+8], -1
  006f0	8d 4d 08	 lea	 ecx, DWORD PTR _strUrl$[ebp]
  006f3	ff 15 00 00 00
	00		 call	 DWORD PTR __imp_??1?$basic_string@DU?$char_traits@D@std@@V?$allocator@D@2@@std@@QAE@XZ
  006f9	8b 4d f4	 mov	 ecx, DWORD PTR __$EHRec$[ebp]
  006fc	64 89 0d 00 00
	00 00		 mov	 DWORD PTR fs:__except_list, ecx
  00703	8b e5		 mov	 esp, ebp
  00705	5d		 pop	 ebp
  00706	c2 1c 00	 ret	 28			; 0000001cH
_TEXT	ENDS
text$x	SEGMENT
$L207861:
  000c7	8d 4d 08	 lea	 ecx, DWORD PTR _strUrl$[ebp]
  000ca	ff 25 00 00 00
	00		 jmp	 DWORD PTR __imp_??1?$basic_string@DU?$char_traits@D@std@@V?$allocator@D@2@@std@@QAE@XZ
$L207862:
  000d0	8d 4d f0	 lea	 ecx, DWORD PTR $T207858[ebp]
  000d3	ff 25 00 00 00
	00		 jmp	 DWORD PTR __imp_??1?$CStringT@DV?$StrTraitMFC_DLL@DV?$ChTraitsCRT@D@ATL@@@@@ATL@@QAE@XZ
$L207863:
  000d9	8d 4d d4	 lea	 ecx, DWORD PTR $T207859[ebp]
  000dc	ff 25 00 00 00
	00		 jmp	 DWORD PTR __imp_??1?$basic_string@DU?$char_traits@D@std@@V?$allocator@D@2@@std@@QAE@XZ
$L207864:
  000e2	8d 4d b8	 lea	 ecx, DWORD PTR $T207860[ebp]
  000e5	ff 25 00 00 00
	00		 jmp	 DWORD PTR __imp_??1?$basic_string@DU?$char_traits@D@std@@V?$allocator@D@2@@std@@QAE@XZ
__ehhandler$?Navigate@MyWebBrowserWnd@@QAEXV?$basic_string@DU?$char_traits@D@std@@V?$allocator@D@2@@std@@@Z:
  000eb	b8 00 00 00 00	 mov	 eax, OFFSET FLAT:$T207866
  000f0	e9 00 00 00 00	 jmp	 ___CxxFrameHandler
text$x	ENDS
?Navigate@MyWebBrowserWnd@@QAEXV?$basic_string@DU?$char_traits@D@std@@V?$allocator@D@2@@std@@@Z ENDP ; MyWebBrowserWnd::Navigate
PUBLIC	?ShowErrorPage@MyWebBrowserWnd@@QAEXXZ		; MyWebBrowserWnd::ShowErrorPage
EXTRN	?HTTPFinish_TodayRecommend@CHTTPControl@@SAXXZ:NEAR ; CHTTPControl::HTTPFinish_TodayRecommend
EXTRN	__imp__strstr:NEAR
; Function compile flags: /Odt
_TEXT	SEGMENT
_this$ = -4						; size = 4
_lpszURL$ = 8						; size = 4
_lpszFrame$ = 12					; size = 4
_dwError$ = 16						; size = 4
_pbCancel$ = 20						; size = 4
?OnNavigateError@MyWebBrowserWnd@@UAEXPBD0KPAH@Z PROC NEAR ; MyWebBrowserWnd::OnNavigateError
; _this$ = ecx

; 151  : {

  00710	55		 push	 ebp
  00711	8b ec		 mov	 ebp, esp
  00713	51		 push	 ecx
  00714	89 4d fc	 mov	 DWORD PTR _this$[ebp], ecx

; 152  : 	if( strstr(lpszURL,"http://") != 0 )

  00717	68 00 00 00 00	 push	 OFFSET FLAT:$SG206349
  0071c	8b 45 08	 mov	 eax, DWORD PTR _lpszURL$[ebp]
  0071f	50		 push	 eax
  00720	ff 15 00 00 00
	00		 call	 DWORD PTR __imp__strstr
  00726	83 c4 08	 add	 esp, 8
  00729	85 c0		 test	 eax, eax
  0072b	74 08		 je	 SHORT $L206348

; 153  : 	{
; 154  : 		ShowErrorPage( );

  0072d	8b 4d fc	 mov	 ecx, DWORD PTR _this$[ebp]
  00730	e8 00 00 00 00	 call	 ?ShowErrorPage@MyWebBrowserWnd@@QAEXXZ ; MyWebBrowserWnd::ShowErrorPage
$L206348:

; 155  : 	}
; 156  : 	SetTimer( TIMER_HIDE_LOADING, ELAPSE_TIMER_HIDE_LOADING, NULL );

  00735	6a 00		 push	 0
  00737	68 f4 01 00 00	 push	 500			; 000001f4H
  0073c	68 6d 04 00 00	 push	 1133			; 0000046dH
  00741	8b 4d fc	 mov	 ecx, DWORD PTR _this$[ebp]
  00744	e8 00 00 00 00	 call	 ?SetTimer@CWnd@@QAEIIIP6GXPAUHWND__@@IIK@Z@Z ; CWnd::SetTimer

; 157  : 	if( m_bHomePage )

  00749	8b 4d fc	 mov	 ecx, DWORD PTR _this$[ebp]
  0074c	0f b6 91 c4 01
	00 00		 movzx	 edx, BYTE PTR [ecx+452]
  00753	85 d2		 test	 edx, edx
  00755	74 05		 je	 SHORT $L206347

; 158  : 	{
; 159  : 		CHTTPControl::HTTPFinish_TodayRecommend();

  00757	e8 00 00 00 00	 call	 ?HTTPFinish_TodayRecommend@CHTTPControl@@SAXXZ ; CHTTPControl::HTTPFinish_TodayRecommend
$L206347:

; 160  : 	}
; 161  : }

  0075c	8b e5		 mov	 esp, ebp
  0075e	5d		 pop	 ebp
  0075f	c2 10 00	 ret	 16			; 00000010H
?OnNavigateError@MyWebBrowserWnd@@UAEXPBD0KPAH@Z ENDP	; MyWebBrowserWnd::OnNavigateError
_TEXT	ENDS
PUBLIC	??$?HDU?$char_traits@D@std@@V?$allocator@D@1@@std@@YA?AV?$basic_string@DU?$char_traits@D@std@@V?$allocator@D@2@@0@ABV10@0@Z ; std::operator+<char,std::char_traits<char>,std::allocator<char> >
EXTRN	__imp_??B?$CSimpleStringT@D$00@ATL@@QBEPBDXZ:NEAR
EXTRN	?SetHTTPRes@CJudgeFirewall@@SAXW4HTTP_REQUEST_TYPE@@H@Z:NEAR ; CJudgeFirewall::SetHTTPRes
EXTRN	__imp_?LogUserActMsg@@YAXABV?$basic_string@DU?$char_traits@D@std@@V?$allocator@D@2@@std@@0@Z:NEAR
xdata$x	SEGMENT
$T207883 DD	0ffffffffH
	DD	FLAT:$L207875
	DD	00H
	DD	FLAT:$L207876
	DD	0ffffffffH
	DD	FLAT:$L207876
	DD	02H
	DD	FLAT:$L207877
	DD	03H
	DD	FLAT:$L207878
$T207880 DD	019930520H
	DD	05H
	DD	FLAT:$T207883
	DD	2 DUP(00H)
	DD	2 DUP(00H)
; Function compile flags: /Odt
xdata$x	ENDS
_TEXT	SEGMENT
tv133 = -140						; size = 4
tv137 = -136						; size = 4
_this$ = -132						; size = 4
$T207874 = -128						; size = 28
$T207873 = -100						; size = 28
$T207872 = -72						; size = 28
_str$ = -44						; size = 28
__$ArrayPad$ = -16					; size = 4
__$EHRec$ = -12						; size = 12
__$ReturnAddr$ = 4					; size = 4
?ShowErrorPage@MyWebBrowserWnd@@QAEXXZ PROC NEAR	; MyWebBrowserWnd::ShowErrorPage
; _this$ = ecx

; 164  : {

  00770	55		 push	 ebp
  00771	8b ec		 mov	 ebp, esp
  00773	6a ff		 push	 -1
  00775	68 00 00 00 00	 push	 __ehhandler$?ShowErrorPage@MyWebBrowserWnd@@QAEXXZ
  0077a	64 a1 00 00 00
	00		 mov	 eax, DWORD PTR fs:__except_list
  00780	50		 push	 eax
  00781	64 89 25 00 00
	00 00		 mov	 DWORD PTR fs:__except_list, esp
  00788	81 ec 80 00 00
	00		 sub	 esp, 128		; 00000080H
  0078e	a1 00 00 00 00	 mov	 eax, DWORD PTR ___security_cookie
  00793	89 45 f0	 mov	 DWORD PTR __$ArrayPad$[ebp], eax
  00796	89 8d 7c ff ff
	ff		 mov	 DWORD PTR _this$[ebp], ecx

; 165  : 	string str = m_strErrorPagePath + string(m_strURL);

  0079c	8b 8d 7c ff ff
	ff		 mov	 ecx, DWORD PTR _this$[ebp]
  007a2	81 c1 00 01 00
	00		 add	 ecx, 256		; 00000100H
  007a8	ff 15 00 00 00
	00		 call	 DWORD PTR __imp_??B?$CSimpleStringT@D$00@ATL@@QBEPBDXZ
  007ae	50		 push	 eax
  007af	8d 4d b8	 lea	 ecx, DWORD PTR $T207872[ebp]
  007b2	ff 15 00 00 00
	00		 call	 DWORD PTR __imp_??0?$basic_string@DU?$char_traits@D@std@@V?$allocator@D@2@@std@@QAE@PBD@Z
  007b8	89 85 78 ff ff
	ff		 mov	 DWORD PTR tv137[ebp], eax
  007be	8b 85 78 ff ff
	ff		 mov	 eax, DWORD PTR tv137[ebp]
  007c4	89 85 74 ff ff
	ff		 mov	 DWORD PTR tv133[ebp], eax
  007ca	c7 45 fc 00 00
	00 00		 mov	 DWORD PTR __$EHRec$[ebp+8], 0
  007d1	8b 8d 74 ff ff
	ff		 mov	 ecx, DWORD PTR tv133[ebp]
  007d7	51		 push	 ecx
  007d8	8b 95 7c ff ff
	ff		 mov	 edx, DWORD PTR _this$[ebp]
  007de	81 c2 cc 01 00
	00		 add	 edx, 460		; 000001ccH
  007e4	52		 push	 edx
  007e5	8d 45 d4	 lea	 eax, DWORD PTR _str$[ebp]
  007e8	50		 push	 eax
  007e9	e8 00 00 00 00	 call	 ??$?HDU?$char_traits@D@std@@V?$allocator@D@1@@std@@YA?AV?$basic_string@DU?$char_traits@D@std@@V?$allocator@D@2@@0@ABV10@0@Z ; std::operator+<char,std::char_traits<char>,std::allocator<char> >
  007ee	83 c4 0c	 add	 esp, 12			; 0000000cH
  007f1	c6 45 fc 02	 mov	 BYTE PTR __$EHRec$[ebp+8], 2
  007f5	8d 4d b8	 lea	 ecx, DWORD PTR $T207872[ebp]
  007f8	ff 15 00 00 00
	00		 call	 DWORD PTR __imp_??1?$basic_string@DU?$char_traits@D@std@@V?$allocator@D@2@@std@@QAE@XZ

; 166  : 	Navigate2(str.c_str(), 0, NULL);

  007fe	6a 00		 push	 0
  00800	6a 00		 push	 0
  00802	6a 00		 push	 0
  00804	6a 00		 push	 0
  00806	6a 00		 push	 0
  00808	8d 4d d4	 lea	 ecx, DWORD PTR _str$[ebp]
  0080b	ff 15 00 00 00
	00		 call	 DWORD PTR __imp_?c_str@?$basic_string@DU?$char_traits@D@std@@V?$allocator@D@2@@std@@QBEPBDXZ
  00811	50		 push	 eax
  00812	8b 8d 7c ff ff
	ff		 mov	 ecx, DWORD PTR _this$[ebp]
  00818	e8 00 00 00 00	 call	 ?Navigate2@CHtmlView@@QAEXPBDK00PAXK@Z ; CHtmlView::Navigate2

; 167  : 	m_bSucceed = FALSE;

  0081d	8b 8d 7c ff ff
	ff		 mov	 ecx, DWORD PTR _this$[ebp]
  00823	c7 81 f4 00 00
	00 00 00 00 00	 mov	 DWORD PTR [ecx+244], 0

; 168  : 
; 169  : 	LogUserActMsg("ERROR", "WEB_COMMEND_ERR");

  0082d	68 00 00 00 00	 push	 OFFSET FLAT:$SG206359
  00832	8d 4d 9c	 lea	 ecx, DWORD PTR $T207873[ebp]
  00835	ff 15 00 00 00
	00		 call	 DWORD PTR __imp_??0?$basic_string@DU?$char_traits@D@std@@V?$allocator@D@2@@std@@QAE@PBD@Z
  0083b	c6 45 fc 03	 mov	 BYTE PTR __$EHRec$[ebp+8], 3
  0083f	68 00 00 00 00	 push	 OFFSET FLAT:$SG206360
  00844	8d 4d 80	 lea	 ecx, DWORD PTR $T207874[ebp]
  00847	ff 15 00 00 00
	00		 call	 DWORD PTR __imp_??0?$basic_string@DU?$char_traits@D@std@@V?$allocator@D@2@@std@@QAE@PBD@Z
  0084d	c6 45 fc 04	 mov	 BYTE PTR __$EHRec$[ebp+8], 4
  00851	8d 55 9c	 lea	 edx, DWORD PTR $T207873[ebp]
  00854	52		 push	 edx
  00855	8d 45 80	 lea	 eax, DWORD PTR $T207874[ebp]
  00858	50		 push	 eax
  00859	ff 15 00 00 00
	00		 call	 DWORD PTR __imp_?LogUserActMsg@@YAXABV?$basic_string@DU?$char_traits@D@std@@V?$allocator@D@2@@std@@0@Z
  0085f	83 c4 08	 add	 esp, 8
  00862	c6 45 fc 03	 mov	 BYTE PTR __$EHRec$[ebp+8], 3
  00866	8d 4d 80	 lea	 ecx, DWORD PTR $T207874[ebp]
  00869	ff 15 00 00 00
	00		 call	 DWORD PTR __imp_??1?$basic_string@DU?$char_traits@D@std@@V?$allocator@D@2@@std@@QAE@XZ
  0086f	c6 45 fc 02	 mov	 BYTE PTR __$EHRec$[ebp+8], 2
  00873	8d 4d 9c	 lea	 ecx, DWORD PTR $T207873[ebp]
  00876	ff 15 00 00 00
	00		 call	 DWORD PTR __imp_??1?$basic_string@DU?$char_traits@D@std@@V?$allocator@D@2@@std@@QAE@XZ

; 170  : 	CJudgeFirewall::SetHTTPRes( HTTP_WEB_COMMAND,0 );

  0087c	6a 00		 push	 0
  0087e	6a 00		 push	 0
  00880	e8 00 00 00 00	 call	 ?SetHTTPRes@CJudgeFirewall@@SAXW4HTTP_REQUEST_TYPE@@H@Z ; CJudgeFirewall::SetHTTPRes
  00885	83 c4 08	 add	 esp, 8

; 171  : }

  00888	c7 45 fc ff ff
	ff ff		 mov	 DWORD PTR __$EHRec$[ebp+8], -1
  0088f	8d 4d d4	 lea	 ecx, DWORD PTR _str$[ebp]
  00892	ff 15 00 00 00
	00		 call	 DWORD PTR __imp_??1?$basic_string@DU?$char_traits@D@std@@V?$allocator@D@2@@std@@QAE@XZ
  00898	8b 4d f4	 mov	 ecx, DWORD PTR __$EHRec$[ebp]
  0089b	64 89 0d 00 00
	00 00		 mov	 DWORD PTR fs:__except_list, ecx
  008a2	8b 4d f0	 mov	 ecx, DWORD PTR __$ArrayPad$[ebp]
  008a5	e8 00 00 00 00	 call	 @__security_check_cookie@4
  008aa	8b e5		 mov	 esp, ebp
  008ac	5d		 pop	 ebp
  008ad	c3		 ret	 0
_TEXT	ENDS
text$x	SEGMENT
$L207875:
  000f5	8d 4d b8	 lea	 ecx, DWORD PTR $T207872[ebp]
  000f8	ff 25 00 00 00
	00		 jmp	 DWORD PTR __imp_??1?$basic_string@DU?$char_traits@D@std@@V?$allocator@D@2@@std@@QAE@XZ
$L207876:
  000fe	8d 4d d4	 lea	 ecx, DWORD PTR _str$[ebp]
  00101	ff 25 00 00 00
	00		 jmp	 DWORD PTR __imp_??1?$basic_string@DU?$char_traits@D@std@@V?$allocator@D@2@@std@@QAE@XZ
$L207877:
  00107	8d 4d 9c	 lea	 ecx, DWORD PTR $T207873[ebp]
  0010a	ff 25 00 00 00
	00		 jmp	 DWORD PTR __imp_??1?$basic_string@DU?$char_traits@D@std@@V?$allocator@D@2@@std@@QAE@XZ
$L207878:
  00110	8d 4d 80	 lea	 ecx, DWORD PTR $T207874[ebp]
  00113	ff 25 00 00 00
	00		 jmp	 DWORD PTR __imp_??1?$basic_string@DU?$char_traits@D@std@@V?$allocator@D@2@@std@@QAE@XZ
__ehhandler$?ShowErrorPage@MyWebBrowserWnd@@QAEXXZ:
  00119	b8 00 00 00 00	 mov	 eax, OFFSET FLAT:$T207880
  0011e	e9 00 00 00 00	 jmp	 ___CxxFrameHandler
text$x	ENDS
?ShowErrorPage@MyWebBrowserWnd@@QAEXXZ ENDP		; MyWebBrowserWnd::ShowErrorPage
PUBLIC	??8ATL@@YA_NABV?$CStringT@DV?$StrTraitMFC_DLL@DV?$ChTraitsCRT@D@ATL@@@@@0@PBD@Z ; ATL::operator==
PUBLIC	?Refresh2@CHtmlView@@QAEXH@Z			; CHtmlView::Refresh2
EXTRN	__imp__sprintf:NEAR
xdata$x	SEGMENT
$T207894 DD	0ffffffffH
	DD	FLAT:$L207888
	DD	00H
	DD	FLAT:$L207889
$T207891 DD	019930520H
	DD	02H
	DD	FLAT:$T207894
	DD	2 DUP(00H)
	DD	2 DUP(00H)
; Function compile flags: /Odt
xdata$x	ENDS
_TEXT	SEGMENT
_this$ = -108						; size = 4
$T207887 = -104						; size = 28
$T207886 = -76						; size = 28
_szBuf$206368 = -48					; size = 32
__$ArrayPad$ = -16					; size = 4
__$EHRec$ = -12						; size = 12
__$ReturnAddr$ = 4					; size = 4
_strURL$ = 8						; size = 4
?OnNavigateComplete2@MyWebBrowserWnd@@UAEXPBD@Z PROC NEAR ; MyWebBrowserWnd::OnNavigateComplete2
; _this$ = ecx

; 174  : {

  008b0	55		 push	 ebp
  008b1	8b ec		 mov	 ebp, esp
  008b3	6a ff		 push	 -1
  008b5	68 00 00 00 00	 push	 __ehhandler$?OnNavigateComplete2@MyWebBrowserWnd@@UAEXPBD@Z
  008ba	64 a1 00 00 00
	00		 mov	 eax, DWORD PTR fs:__except_list
  008c0	50		 push	 eax
  008c1	64 89 25 00 00
	00 00		 mov	 DWORD PTR fs:__except_list, esp
  008c8	83 ec 60	 sub	 esp, 96			; 00000060H
  008cb	a1 00 00 00 00	 mov	 eax, DWORD PTR ___security_cookie
  008d0	89 45 f0	 mov	 DWORD PTR __$ArrayPad$[ebp], eax
  008d3	89 4d 94	 mov	 DWORD PTR _this$[ebp], ecx

; 175  : 	if( m_strURL == strURL || strstr(strURL, "SwfGamePlaying.htm") != NULL )

  008d6	8b 45 08	 mov	 eax, DWORD PTR _strURL$[ebp]
  008d9	50		 push	 eax
  008da	8b 4d 94	 mov	 ecx, DWORD PTR _this$[ebp]
  008dd	81 c1 00 01 00
	00		 add	 ecx, 256		; 00000100H
  008e3	51		 push	 ecx
  008e4	e8 00 00 00 00	 call	 ??8ATL@@YA_NABV?$CStringT@DV?$StrTraitMFC_DLL@DV?$ChTraitsCRT@D@ATL@@@@@0@PBD@Z ; ATL::operator==
  008e9	83 c4 08	 add	 esp, 8
  008ec	0f b6 d0	 movzx	 edx, al
  008ef	85 d2		 test	 edx, edx
  008f1	75 1a		 jne	 SHORT $L206366
  008f3	68 00 00 00 00	 push	 OFFSET FLAT:$SG206367
  008f8	8b 45 08	 mov	 eax, DWORD PTR _strURL$[ebp]
  008fb	50		 push	 eax
  008fc	ff 15 00 00 00
	00		 call	 DWORD PTR __imp__strstr
  00902	83 c4 08	 add	 esp, 8
  00905	85 c0		 test	 eax, eax
  00907	0f 84 a5 00 00
	00		 je	 $L206365
$L206366:

; 176  : 	{
; 177  : 		char szBuf[32];
; 178  : 		sprintf(szBuf,"T:%d",GetTickCount() - m_dwStartShowTime );

  0090d	ff 15 00 00 00
	00		 call	 DWORD PTR __imp__GetTickCount@0
  00913	8b 4d 94	 mov	 ecx, DWORD PTR _this$[ebp]
  00916	2b 81 fc 00 00
	00		 sub	 eax, DWORD PTR [ecx+252]
  0091c	50		 push	 eax
  0091d	68 00 00 00 00	 push	 OFFSET FLAT:$SG206369
  00922	8d 55 d0	 lea	 edx, DWORD PTR _szBuf$206368[ebp]
  00925	52		 push	 edx
  00926	ff 15 00 00 00
	00		 call	 DWORD PTR __imp__sprintf
  0092c	83 c4 0c	 add	 esp, 12			; 0000000cH

; 179  : 		LogUserActMsg("WEBLOADRECOM",szBuf);

  0092f	8d 45 d0	 lea	 eax, DWORD PTR _szBuf$206368[ebp]
  00932	50		 push	 eax
  00933	8d 4d b4	 lea	 ecx, DWORD PTR $T207886[ebp]
  00936	ff 15 00 00 00
	00		 call	 DWORD PTR __imp_??0?$basic_string@DU?$char_traits@D@std@@V?$allocator@D@2@@std@@QAE@PBD@Z
  0093c	c7 45 fc 00 00
	00 00		 mov	 DWORD PTR __$EHRec$[ebp+8], 0
  00943	68 00 00 00 00	 push	 OFFSET FLAT:$SG206372
  00948	8d 4d 98	 lea	 ecx, DWORD PTR $T207887[ebp]
  0094b	ff 15 00 00 00
	00		 call	 DWORD PTR __imp_??0?$basic_string@DU?$char_traits@D@std@@V?$allocator@D@2@@std@@QAE@PBD@Z
  00951	c6 45 fc 01	 mov	 BYTE PTR __$EHRec$[ebp+8], 1
  00955	8d 4d b4	 lea	 ecx, DWORD PTR $T207886[ebp]
  00958	51		 push	 ecx
  00959	8d 55 98	 lea	 edx, DWORD PTR $T207887[ebp]
  0095c	52		 push	 edx
  0095d	ff 15 00 00 00
	00		 call	 DWORD PTR __imp_?LogUserActMsg@@YAXABV?$basic_string@DU?$char_traits@D@std@@V?$allocator@D@2@@std@@0@Z
  00963	83 c4 08	 add	 esp, 8
  00966	c6 45 fc 00	 mov	 BYTE PTR __$EHRec$[ebp+8], 0
  0096a	8d 4d 98	 lea	 ecx, DWORD PTR $T207887[ebp]
  0096d	ff 15 00 00 00
	00		 call	 DWORD PTR __imp_??1?$basic_string@DU?$char_traits@D@std@@V?$allocator@D@2@@std@@QAE@XZ
  00973	c7 45 fc ff ff
	ff ff		 mov	 DWORD PTR __$EHRec$[ebp+8], -1
  0097a	8d 4d b4	 lea	 ecx, DWORD PTR $T207886[ebp]
  0097d	ff 15 00 00 00
	00		 call	 DWORD PTR __imp_??1?$basic_string@DU?$char_traits@D@std@@V?$allocator@D@2@@std@@QAE@XZ

; 180  : 		CJudgeFirewall::SetHTTPRes( HTTP_WEB_COMMAND,1 );

  00983	6a 01		 push	 1
  00985	6a 00		 push	 0
  00987	e8 00 00 00 00	 call	 ?SetHTTPRes@CJudgeFirewall@@SAXW4HTTP_REQUEST_TYPE@@H@Z ; CJudgeFirewall::SetHTTPRes
  0098c	83 c4 08	 add	 esp, 8

; 181  : 
; 182  : 		m_bReady = TRUE;

  0098f	8b 45 94	 mov	 eax, DWORD PTR _this$[ebp]
  00992	c7 80 f8 00 00
	00 01 00 00 00	 mov	 DWORD PTR [eax+248], 1

; 183  : 		SetTimer( TIMER_HIDE_LOADING, ELAPSE_TIMER_HIDE_LOADING, NULL );

  0099c	6a 00		 push	 0
  0099e	68 f4 01 00 00	 push	 500			; 000001f4H
  009a3	68 6d 04 00 00	 push	 1133			; 0000046dH
  009a8	8b 4d 94	 mov	 ecx, DWORD PTR _this$[ebp]
  009ab	e8 00 00 00 00	 call	 ?SetTimer@CWnd@@QAEIIIP6GXPAUHWND__@@IIK@Z@Z ; CWnd::SetTimer

; 184  : 	}else	

  009b0	eb 20		 jmp	 SHORT $L206364
$L206365:

; 185  : 	if(strstr(strURL, "error404") != 0)

  009b2	68 00 00 00 00	 push	 OFFSET FLAT:$SG206375
  009b7	8b 4d 08	 mov	 ecx, DWORD PTR _strURL$[ebp]
  009ba	51		 push	 ecx
  009bb	ff 15 00 00 00
	00		 call	 DWORD PTR __imp__strstr
  009c1	83 c4 08	 add	 esp, 8
  009c4	85 c0		 test	 eax, eax
  009c6	74 0a		 je	 SHORT $L206364

; 186  : 	{
; 187  : 		Refresh2(REFRESH_NORMAL);

  009c8	6a 00		 push	 0
  009ca	8b 4d 94	 mov	 ecx, DWORD PTR _this$[ebp]
  009cd	e8 00 00 00 00	 call	 ?Refresh2@CHtmlView@@QAEXH@Z ; CHtmlView::Refresh2
$L206364:

; 188  : 	}
; 189  : }

  009d2	8b 4d f4	 mov	 ecx, DWORD PTR __$EHRec$[ebp]
  009d5	64 89 0d 00 00
	00 00		 mov	 DWORD PTR fs:__except_list, ecx
  009dc	8b 4d f0	 mov	 ecx, DWORD PTR __$ArrayPad$[ebp]
  009df	e8 00 00 00 00	 call	 @__security_check_cookie@4
  009e4	8b e5		 mov	 esp, ebp
  009e6	5d		 pop	 ebp
  009e7	c2 04 00	 ret	 4
_TEXT	ENDS
text$x	SEGMENT
$L207888:
  00123	8d 4d b4	 lea	 ecx, DWORD PTR $T207886[ebp]
  00126	ff 25 00 00 00
	00		 jmp	 DWORD PTR __imp_??1?$basic_string@DU?$char_traits@D@std@@V?$allocator@D@2@@std@@QAE@XZ
$L207889:
  0012c	8d 4d 98	 lea	 ecx, DWORD PTR $T207887[ebp]
  0012f	ff 25 00 00 00
	00		 jmp	 DWORD PTR __imp_??1?$basic_string@DU?$char_traits@D@std@@V?$allocator@D@2@@std@@QAE@XZ
__ehhandler$?OnNavigateComplete2@MyWebBrowserWnd@@UAEXPBD@Z:
  00135	b8 00 00 00 00	 mov	 eax, OFFSET FLAT:$T207891
  0013a	e9 00 00 00 00	 jmp	 ___CxxFrameHandler
text$x	ENDS
?OnNavigateComplete2@MyWebBrowserWnd@@UAEXPBD@Z ENDP	; MyWebBrowserWnd::OnNavigateComplete2
EXTRN	__imp__TranslateMessage@4:NEAR
EXTRN	__imp__DispatchMessageA@4:NEAR
EXTRN	?PreTranslateMessage@CHtmlView@@UAEHPAUtagMSG@@@Z:NEAR ; CHtmlView::PreTranslateMessage
; Function compile flags: /Odt
_TEXT	SEGMENT
_this$ = -4						; size = 4
_pMsg$ = 8						; size = 4
?PreTranslateMessage@MyWebBrowserWnd@@UAEHPAUtagMSG@@@Z PROC NEAR ; MyWebBrowserWnd::PreTranslateMessage
; _this$ = ecx

; 192  : {

  009f0	55		 push	 ebp
  009f1	8b ec		 mov	 ebp, esp
  009f3	51		 push	 ecx
  009f4	89 4d fc	 mov	 DWORD PTR _this$[ebp], ecx

; 193  : 	if(WM_KEYFIRST <= pMsg->message && pMsg->message <= WM_KEYLAST)

  009f7	8b 45 08	 mov	 eax, DWORD PTR _pMsg$[ebp]
  009fa	81 78 04 00 01
	00 00		 cmp	 DWORD PTR [eax+4], 256	; 00000100H
  00a01	72 2d		 jb	 SHORT $L206380
  00a03	8b 4d 08	 mov	 ecx, DWORD PTR _pMsg$[ebp]
  00a06	81 79 04 09 01
	00 00		 cmp	 DWORD PTR [ecx+4], 265	; 00000109H
  00a0d	77 21		 ja	 SHORT $L206380

; 194  :     {
; 195  :         if(pMsg->wParam==VK_RETURN)

  00a0f	8b 55 08	 mov	 edx, DWORD PTR _pMsg$[ebp]
  00a12	83 7a 08 0d	 cmp	 DWORD PTR [edx+8], 13	; 0000000dH
  00a16	75 18		 jne	 SHORT $L206380

; 196  : 		{
; 197  : 			TranslateMessage(pMsg);

  00a18	8b 45 08	 mov	 eax, DWORD PTR _pMsg$[ebp]
  00a1b	50		 push	 eax
  00a1c	ff 15 00 00 00
	00		 call	 DWORD PTR __imp__TranslateMessage@4

; 198  : 			DispatchMessage(pMsg);

  00a22	8b 4d 08	 mov	 ecx, DWORD PTR _pMsg$[ebp]
  00a25	51		 push	 ecx
  00a26	ff 15 00 00 00
	00		 call	 DWORD PTR __imp__DispatchMessageA@4

; 199  : 			return 0;

  00a2c	33 c0		 xor	 eax, eax
  00a2e	eb 0c		 jmp	 SHORT $L206379
$L206380:

; 200  : 		}
; 201  :     }
; 202  : 	return __super::PreTranslateMessage(pMsg);

  00a30	8b 55 08	 mov	 edx, DWORD PTR _pMsg$[ebp]
  00a33	52		 push	 edx
  00a34	8b 4d fc	 mov	 ecx, DWORD PTR _this$[ebp]
  00a37	e8 00 00 00 00	 call	 ?PreTranslateMessage@CHtmlView@@UAEHPAUtagMSG@@@Z ; CHtmlView::PreTranslateMessage
$L206379:

; 203  : }

  00a3c	8b e5		 mov	 esp, ebp
  00a3e	5d		 pop	 ebp
  00a3f	c2 04 00	 ret	 4
?PreTranslateMessage@MyWebBrowserWnd@@UAEHPAUtagMSG@@@Z ENDP ; MyWebBrowserWnd::PreTranslateMessage
_TEXT	ENDS
EXTRN	?OnSize@CHtmlView@@IAEXIHH@Z:NEAR		; CHtmlView::OnSize
EXTRN	?MoveWindow@CWnd@@QAEXHHHHH@Z:NEAR		; CWnd::MoveWindow
; Function compile flags: /Odt
_TEXT	SEGMENT
_this$ = -4						; size = 4
_nType$ = 8						; size = 4
_cx$ = 12						; size = 4
_cy$ = 16						; size = 4
?OnSize@MyWebBrowserWnd@@IAEXIHH@Z PROC NEAR		; MyWebBrowserWnd::OnSize
; _this$ = ecx

; 206  : {

  00a50	55		 push	 ebp
  00a51	8b ec		 mov	 ebp, esp
  00a53	51		 push	 ecx
  00a54	89 4d fc	 mov	 DWORD PTR _this$[ebp], ecx

; 207  : 	if (IsWindow (m_flash.m_hWnd))

  00a57	8b 45 fc	 mov	 eax, DWORD PTR _this$[ebp]
  00a5a	8b 88 24 01 00
	00		 mov	 ecx, DWORD PTR [eax+292]
  00a60	51		 push	 ecx
  00a61	ff 15 00 00 00
	00		 call	 DWORD PTR __imp__IsWindow@4
  00a67	85 c0		 test	 eax, eax
  00a69	74 1c		 je	 SHORT $L206388

; 208  : 		m_flash.MoveWindow(0,0,cx,cy);

  00a6b	6a 01		 push	 1
  00a6d	8b 55 10	 mov	 edx, DWORD PTR _cy$[ebp]
  00a70	52		 push	 edx
  00a71	8b 45 0c	 mov	 eax, DWORD PTR _cx$[ebp]
  00a74	50		 push	 eax
  00a75	6a 00		 push	 0
  00a77	6a 00		 push	 0
  00a79	8b 4d fc	 mov	 ecx, DWORD PTR _this$[ebp]
  00a7c	81 c1 04 01 00
	00		 add	 ecx, 260		; 00000104H
  00a82	e8 00 00 00 00	 call	 ?MoveWindow@CWnd@@QAEXHHHHH@Z ; CWnd::MoveWindow
$L206388:

; 209  : 
; 210  : 	__super::OnSize(nType,cx,cy);

  00a87	8b 4d 10	 mov	 ecx, DWORD PTR _cy$[ebp]
  00a8a	51		 push	 ecx
  00a8b	8b 55 0c	 mov	 edx, DWORD PTR _cx$[ebp]
  00a8e	52		 push	 edx
  00a8f	8b 45 08	 mov	 eax, DWORD PTR _nType$[ebp]
  00a92	50		 push	 eax
  00a93	8b 4d fc	 mov	 ecx, DWORD PTR _this$[ebp]
  00a96	e8 00 00 00 00	 call	 ?OnSize@CHtmlView@@IAEXIHH@Z ; CHtmlView::OnSize

; 211  : }

  00a9b	8b e5		 mov	 esp, ebp
  00a9d	5d		 pop	 ebp
  00a9e	c2 0c 00	 ret	 12			; 0000000cH
?OnSize@MyWebBrowserWnd@@IAEXIHH@Z ENDP			; MyWebBrowserWnd::OnSize
_TEXT	ENDS
PUBLIC	??8ATL@@YA_NPBDABV?$CStringT@DV?$StrTraitMFC_DLL@DV?$ChTraitsCRT@D@ATL@@@@@0@@Z ; ATL::operator==
EXTRN	?OnDocumentComplete@CHtmlView@@UAEXPBD@Z:NEAR	; CHtmlView::OnDocumentComplete
xdata$x	SEGMENT
$T207905 DD	0ffffffffH
	DD	FLAT:$L207900
	DD	00H
	DD	FLAT:$L207901
$T207903 DD	019930520H
	DD	02H
	DD	FLAT:$T207905
	DD	2 DUP(00H)
	DD	2 DUP(00H)
; Function compile flags: /Odt
xdata$x	ENDS
_TEXT	SEGMENT
_this$ = -72						; size = 4
$T207899 = -68						; size = 28
$T207898 = -40						; size = 28
__$EHRec$ = -12						; size = 12
_lpszURL$ = 8						; size = 4
?OnDocumentComplete@MyWebBrowserWnd@@UAEXPBD@Z PROC NEAR ; MyWebBrowserWnd::OnDocumentComplete
; _this$ = ecx

; 214  : {

  00ab0	55		 push	 ebp
  00ab1	8b ec		 mov	 ebp, esp
  00ab3	6a ff		 push	 -1
  00ab5	68 00 00 00 00	 push	 __ehhandler$?OnDocumentComplete@MyWebBrowserWnd@@UAEXPBD@Z
  00aba	64 a1 00 00 00
	00		 mov	 eax, DWORD PTR fs:__except_list
  00ac0	50		 push	 eax
  00ac1	64 89 25 00 00
	00 00		 mov	 DWORD PTR fs:__except_list, esp
  00ac8	83 ec 3c	 sub	 esp, 60			; 0000003cH
  00acb	89 4d b8	 mov	 DWORD PTR _this$[ebp], ecx

; 215  : 	YL_Log("log_webrec.txt",LOG_DEBUG,"OnDocumentComplete: ", "%s", lpszURL);

  00ace	68 00 00 00 00	 push	 OFFSET FLAT:$SG206396
  00ad3	8d 4d d8	 lea	 ecx, DWORD PTR $T207898[ebp]
  00ad6	ff 15 00 00 00
	00		 call	 DWORD PTR __imp_??0?$basic_string@DU?$char_traits@D@std@@V?$allocator@D@2@@std@@QAE@PBD@Z
  00adc	c7 45 fc 00 00
	00 00		 mov	 DWORD PTR __$EHRec$[ebp+8], 0
  00ae3	68 00 00 00 00	 push	 OFFSET FLAT:$SG206397
  00ae8	8d 4d bc	 lea	 ecx, DWORD PTR $T207899[ebp]
  00aeb	ff 15 00 00 00
	00		 call	 DWORD PTR __imp_??0?$basic_string@DU?$char_traits@D@std@@V?$allocator@D@2@@std@@QAE@PBD@Z
  00af1	c6 45 fc 01	 mov	 BYTE PTR __$EHRec$[ebp+8], 1
  00af5	8b 45 08	 mov	 eax, DWORD PTR _lpszURL$[ebp]
  00af8	50		 push	 eax
  00af9	68 00 00 00 00	 push	 OFFSET FLAT:$SG206395
  00afe	8d 4d d8	 lea	 ecx, DWORD PTR $T207898[ebp]
  00b01	51		 push	 ecx
  00b02	6a 00		 push	 0
  00b04	8d 55 bc	 lea	 edx, DWORD PTR $T207899[ebp]
  00b07	52		 push	 edx
  00b08	ff 15 00 00 00
	00		 call	 DWORD PTR __imp_?YL_Log@@YAXABV?$basic_string@DU?$char_traits@D@std@@V?$allocator@D@2@@std@@H0PBDZZ
  00b0e	83 c4 14	 add	 esp, 20			; 00000014H
  00b11	c6 45 fc 00	 mov	 BYTE PTR __$EHRec$[ebp+8], 0
  00b15	8d 4d bc	 lea	 ecx, DWORD PTR $T207899[ebp]
  00b18	ff 15 00 00 00
	00		 call	 DWORD PTR __imp_??1?$basic_string@DU?$char_traits@D@std@@V?$allocator@D@2@@std@@QAE@XZ
  00b1e	c7 45 fc ff ff
	ff ff		 mov	 DWORD PTR __$EHRec$[ebp+8], -1
  00b25	8d 4d d8	 lea	 ecx, DWORD PTR $T207898[ebp]
  00b28	ff 15 00 00 00
	00		 call	 DWORD PTR __imp_??1?$basic_string@DU?$char_traits@D@std@@V?$allocator@D@2@@std@@QAE@XZ

; 216  : 	if( lpszURL == m_strURL || strstr(lpszURL, "SwfGamePlaying.htm") != NULL) 

  00b2e	8b 45 b8	 mov	 eax, DWORD PTR _this$[ebp]
  00b31	05 00 01 00 00	 add	 eax, 256		; 00000100H
  00b36	50		 push	 eax
  00b37	8b 4d 08	 mov	 ecx, DWORD PTR _lpszURL$[ebp]
  00b3a	51		 push	 ecx
  00b3b	e8 00 00 00 00	 call	 ??8ATL@@YA_NPBDABV?$CStringT@DV?$StrTraitMFC_DLL@DV?$ChTraitsCRT@D@ATL@@@@@0@@Z ; ATL::operator==
  00b40	83 c4 08	 add	 esp, 8
  00b43	0f b6 d0	 movzx	 edx, al
  00b46	85 d2		 test	 edx, edx
  00b48	75 16		 jne	 SHORT $L206399
  00b4a	68 00 00 00 00	 push	 OFFSET FLAT:$SG206400
  00b4f	8b 45 08	 mov	 eax, DWORD PTR _lpszURL$[ebp]
  00b52	50		 push	 eax
  00b53	ff 15 00 00 00
	00		 call	 DWORD PTR __imp__strstr
  00b59	83 c4 08	 add	 esp, 8
  00b5c	85 c0		 test	 eax, eax
  00b5e	74 34		 je	 SHORT $L206398
$L206399:

; 217  : 	{
; 218  : 		m_bReady = TRUE;

  00b60	8b 4d b8	 mov	 ecx, DWORD PTR _this$[ebp]
  00b63	c7 81 f8 00 00
	00 01 00 00 00	 mov	 DWORD PTR [ecx+248], 1

; 219  : 		SetTimer( TIMER_HIDE_LOADING, ELAPSE_TIMER_HIDE_LOADING, NULL );

  00b6d	6a 00		 push	 0
  00b6f	68 f4 01 00 00	 push	 500			; 000001f4H
  00b74	68 6d 04 00 00	 push	 1133			; 0000046dH
  00b79	8b 4d b8	 mov	 ecx, DWORD PTR _this$[ebp]
  00b7c	e8 00 00 00 00	 call	 ?SetTimer@CWnd@@QAEIIIP6GXPAUHWND__@@IIK@Z@Z ; CWnd::SetTimer

; 220  : 		if( m_bHomePage )

  00b81	8b 55 b8	 mov	 edx, DWORD PTR _this$[ebp]
  00b84	0f b6 82 c4 01
	00 00		 movzx	 eax, BYTE PTR [edx+452]
  00b8b	85 c0		 test	 eax, eax
  00b8d	74 05		 je	 SHORT $L206398

; 221  : 		{
; 222  : 			CHTTPControl::HTTPFinish_TodayRecommend();

  00b8f	e8 00 00 00 00	 call	 ?HTTPFinish_TodayRecommend@CHTTPControl@@SAXXZ ; CHTTPControl::HTTPFinish_TodayRecommend
$L206398:

; 223  : 		}
; 224  : 	}
; 225  : 	__super::OnDocumentComplete(lpszURL);

  00b94	8b 4d 08	 mov	 ecx, DWORD PTR _lpszURL$[ebp]
  00b97	51		 push	 ecx
  00b98	8b 4d b8	 mov	 ecx, DWORD PTR _this$[ebp]
  00b9b	e8 00 00 00 00	 call	 ?OnDocumentComplete@CHtmlView@@UAEXPBD@Z ; CHtmlView::OnDocumentComplete

; 226  : }

  00ba0	8b 4d f4	 mov	 ecx, DWORD PTR __$EHRec$[ebp]
  00ba3	64 89 0d 00 00
	00 00		 mov	 DWORD PTR fs:__except_list, ecx
  00baa	8b e5		 mov	 esp, ebp
  00bac	5d		 pop	 ebp
  00bad	c2 04 00	 ret	 4
_TEXT	ENDS
text$x	SEGMENT
$L207900:
  0013f	8d 4d d8	 lea	 ecx, DWORD PTR $T207898[ebp]
  00142	ff 25 00 00 00
	00		 jmp	 DWORD PTR __imp_??1?$basic_string@DU?$char_traits@D@std@@V?$allocator@D@2@@std@@QAE@XZ
$L207901:
  00148	8d 4d bc	 lea	 ecx, DWORD PTR $T207899[ebp]
  0014b	ff 25 00 00 00
	00		 jmp	 DWORD PTR __imp_??1?$basic_string@DU?$char_traits@D@std@@V?$allocator@D@2@@std@@QAE@XZ
__ehhandler$?OnDocumentComplete@MyWebBrowserWnd@@UAEXPBD@Z:
  00151	b8 00 00 00 00	 mov	 eax, OFFSET FLAT:$T207903
  00156	e9 00 00 00 00	 jmp	 ___CxxFrameHandler
text$x	ENDS
?OnDocumentComplete@MyWebBrowserWnd@@UAEXPBD@Z ENDP	; MyWebBrowserWnd::OnDocumentComplete
PUBLIC	?OnTimer@CWnd@@IAEXI@Z				; CWnd::OnTimer
PUBLIC	?MoveWindow@CWnd@@QAEXPBUtagRECT@@H@Z		; CWnd::MoveWindow
EXTRN	__imp__AdjustWindowRectEx@16:NEAR
EXTRN	?GetStyle@CWnd@@QBEKXZ:NEAR			; CWnd::GetStyle
; Function compile flags: /Odt
_TEXT	SEGMENT
_this$ = -40						; size = 4
_rcNull$206414 = -36					; size = 16
_rcClient$206412 = -20					; size = 16
_dwCurTime$206407 = -4					; size = 4
_nIDEvent$ = 8						; size = 4
?OnTimer@MyWebBrowserWnd@@IAEXI@Z PROC NEAR		; MyWebBrowserWnd::OnTimer
; _this$ = ecx

; 229  : {

  00bb0	55		 push	 ebp
  00bb1	8b ec		 mov	 ebp, esp
  00bb3	83 ec 28	 sub	 esp, 40			; 00000028H
  00bb6	89 4d d8	 mov	 DWORD PTR _this$[ebp], ecx

; 230  : 	if( nIDEvent == TIMER_CHECK_NAVIGATE )

  00bb9	81 7d 08 6c 04
	00 00		 cmp	 DWORD PTR _nIDEvent$[ebp], 1132 ; 0000046cH
  00bc0	75 56		 jne	 SHORT $L206406

; 231  : 	{
; 232  : 		DWORD dwCurTime = GetTickCount();

  00bc2	ff 15 00 00 00
	00		 call	 DWORD PTR __imp__GetTickCount@0
  00bc8	89 45 fc	 mov	 DWORD PTR _dwCurTime$206407[ebp], eax

; 233  : 		if( dwCurTime - m_dwStartShowTime > 4000 )

  00bcb	8b 45 d8	 mov	 eax, DWORD PTR _this$[ebp]
  00bce	8b 4d fc	 mov	 ecx, DWORD PTR _dwCurTime$206407[ebp]
  00bd1	2b 88 fc 00 00
	00		 sub	 ecx, DWORD PTR [eax+252]
  00bd7	81 f9 a0 0f 00
	00		 cmp	 ecx, 4000		; 00000fa0H
  00bdd	76 34		 jbe	 SHORT $L206408

; 234  : 		{
; 235  : 			KillTimer( nIDEvent );

  00bdf	8b 55 08	 mov	 edx, DWORD PTR _nIDEvent$[ebp]
  00be2	52		 push	 edx
  00be3	8b 4d d8	 mov	 ecx, DWORD PTR _this$[ebp]
  00be6	e8 00 00 00 00	 call	 ?KillTimer@CWnd@@QAEHI@Z ; CWnd::KillTimer

; 236  : 			if( m_bReady == FALSE )

  00beb	8b 45 d8	 mov	 eax, DWORD PTR _this$[ebp]
  00bee	83 b8 f8 00 00
	00 00		 cmp	 DWORD PTR [eax+248], 0
  00bf5	75 1c		 jne	 SHORT $L206408

; 237  : 			{
; 238  : 				ShowErrorPage();

  00bf7	8b 4d d8	 mov	 ecx, DWORD PTR _this$[ebp]
  00bfa	e8 00 00 00 00	 call	 ?ShowErrorPage@MyWebBrowserWnd@@QAEXXZ ; MyWebBrowserWnd::ShowErrorPage

; 239  : 				SetTimer( TIMER_HIDE_LOADING, ELAPSE_TIMER_HIDE_LOADING, NULL );

  00bff	6a 00		 push	 0
  00c01	68 f4 01 00 00	 push	 500			; 000001f4H
  00c06	68 6d 04 00 00	 push	 1133			; 0000046dH
  00c0b	8b 4d d8	 mov	 ecx, DWORD PTR _this$[ebp]
  00c0e	e8 00 00 00 00	 call	 ?SetTimer@CWnd@@QAEIIIP6GXPAUHWND__@@IIK@Z@Z ; CWnd::SetTimer
$L206408:

; 240  : 			}
; 241  : 		}
; 242  : 	}else

  00c13	e9 c3 00 00 00	 jmp	 $L206410
$L206406:

; 243  : 	if( nIDEvent == TIMER_HIDE_LOADING )

  00c18	81 7d 08 6d 04
	00 00		 cmp	 DWORD PTR _nIDEvent$[ebp], 1133 ; 0000046dH
  00c1f	0f 85 b6 00 00
	00		 jne	 $L206410

; 244  : 	{
; 245  : 		KillTimer( nIDEvent );

  00c25	8b 4d 08	 mov	 ecx, DWORD PTR _nIDEvent$[ebp]
  00c28	51		 push	 ecx
  00c29	8b 4d d8	 mov	 ecx, DWORD PTR _this$[ebp]
  00c2c	e8 00 00 00 00	 call	 ?KillTimer@CWnd@@QAEHI@Z ; CWnd::KillTimer

; 246  : 
; 247  : 		CRect rcClient;

  00c31	8d 4d ec	 lea	 ecx, DWORD PTR _rcClient$206412[ebp]
  00c34	e8 00 00 00 00	 call	 ??0CRect@@QAE@XZ	; CRect::CRect

; 248  : 		GetClientRect (&rcClient);

  00c39	8d 55 ec	 lea	 edx, DWORD PTR _rcClient$206412[ebp]
  00c3c	52		 push	 edx
  00c3d	8b 4d d8	 mov	 ecx, DWORD PTR _this$[ebp]
  00c40	e8 00 00 00 00	 call	 ?GetClientRect@CWnd@@QBEXPAUtagRECT@@@Z ; CWnd::GetClientRect

; 249  : 		::AdjustWindowRectEx (&rcClient, m_wndBrowser.GetStyle (), FALSE, WS_EX_CLIENTEDGE);

  00c45	68 00 02 00 00	 push	 512			; 00000200H
  00c4a	6a 00		 push	 0
  00c4c	8b 4d d8	 mov	 ecx, DWORD PTR _this$[ebp]
  00c4f	81 c1 98 00 00
	00		 add	 ecx, 152		; 00000098H
  00c55	e8 00 00 00 00	 call	 ?GetStyle@CWnd@@QBEKXZ	; CWnd::GetStyle
  00c5a	50		 push	 eax
  00c5b	8d 45 ec	 lea	 eax, DWORD PTR _rcClient$206412[ebp]
  00c5e	50		 push	 eax
  00c5f	ff 15 00 00 00
	00		 call	 DWORD PTR __imp__AdjustWindowRectEx@16

; 250  : 		m_wndBrowser.MoveWindow (&rcClient, FALSE);

  00c65	6a 00		 push	 0
  00c67	8d 4d ec	 lea	 ecx, DWORD PTR _rcClient$206412[ebp]
  00c6a	51		 push	 ecx
  00c6b	8b 4d d8	 mov	 ecx, DWORD PTR _this$[ebp]
  00c6e	81 c1 98 00 00
	00		 add	 ecx, 152		; 00000098H
  00c74	e8 00 00 00 00	 call	 ?MoveWindow@CWnd@@QAEXPBUtagRECT@@H@Z ; CWnd::MoveWindow

; 251  : 		m_wndBrowser.ShowWindow (SW_SHOW);

  00c79	6a 05		 push	 5
  00c7b	8b 4d d8	 mov	 ecx, DWORD PTR _this$[ebp]
  00c7e	81 c1 98 00 00
	00		 add	 ecx, 152		; 00000098H
  00c84	e8 00 00 00 00	 call	 ?ShowWindow@CWnd@@QAEHH@Z ; CWnd::ShowWindow

; 252  : 
; 253  : 		if (IsWindow (m_flash.m_hWnd))

  00c89	8b 55 d8	 mov	 edx, DWORD PTR _this$[ebp]
  00c8c	8b 82 24 01 00
	00		 mov	 eax, DWORD PTR [edx+292]
  00c92	50		 push	 eax
  00c93	ff 15 00 00 00
	00		 call	 DWORD PTR __imp__IsWindow@4
  00c99	85 c0		 test	 eax, eax
  00c9b	74 34		 je	 SHORT $L206413

; 254  : 		{
; 255  : 			CRect rcNull (0, 0, 0, 0);

  00c9d	6a 00		 push	 0
  00c9f	6a 00		 push	 0
  00ca1	6a 00		 push	 0
  00ca3	6a 00		 push	 0
  00ca5	8d 4d dc	 lea	 ecx, DWORD PTR _rcNull$206414[ebp]
  00ca8	e8 00 00 00 00	 call	 ??0CRect@@QAE@HHHH@Z	; CRect::CRect

; 256  : 			m_flash.MoveWindow (&rcNull, FALSE);

  00cad	6a 00		 push	 0
  00caf	8d 4d dc	 lea	 ecx, DWORD PTR _rcNull$206414[ebp]
  00cb2	51		 push	 ecx
  00cb3	8b 4d d8	 mov	 ecx, DWORD PTR _this$[ebp]
  00cb6	81 c1 04 01 00
	00		 add	 ecx, 260		; 00000104H
  00cbc	e8 00 00 00 00	 call	 ?MoveWindow@CWnd@@QAEXPBUtagRECT@@H@Z ; CWnd::MoveWindow

; 257  : 			m_flash.ShowWindow(SW_HIDE);

  00cc1	6a 00		 push	 0
  00cc3	8b 4d d8	 mov	 ecx, DWORD PTR _this$[ebp]
  00cc6	81 c1 04 01 00
	00		 add	 ecx, 260		; 00000104H
  00ccc	e8 00 00 00 00	 call	 ?ShowWindow@CWnd@@QAEHH@Z ; CWnd::ShowWindow
$L206413:

; 258  : 		}
; 259  : 
; 260  : // 		Refresh ();
; 261  : 		Refresh2 (REFRESH_IFEXPIRED);

  00cd1	6a 01		 push	 1
  00cd3	8b 4d d8	 mov	 ecx, DWORD PTR _this$[ebp]
  00cd6	e8 00 00 00 00	 call	 ?Refresh2@CHtmlView@@QAEXH@Z ; CHtmlView::Refresh2
$L206410:

; 262  : 	}
; 263  : 	__super::OnTimer(nIDEvent);

  00cdb	8b 55 08	 mov	 edx, DWORD PTR _nIDEvent$[ebp]
  00cde	52		 push	 edx
  00cdf	8b 4d d8	 mov	 ecx, DWORD PTR _this$[ebp]
  00ce2	e8 00 00 00 00	 call	 ?OnTimer@CWnd@@IAEXI@Z	; CWnd::OnTimer

; 264  : }

  00ce7	8b e5		 mov	 esp, ebp
  00ce9	5d		 pop	 ebp
  00cea	c2 04 00	 ret	 4
?OnTimer@MyWebBrowserWnd@@IAEXI@Z ENDP			; MyWebBrowserWnd::OnTimer
_TEXT	ENDS
EXTRN	?GetInstance@CWebManager@@SAPAV1@XZ:NEAR	; CWebManager::GetInstance
EXTRN	?CallWebFromGBox@CWebManager@@QAEXPAVCHtmlView@@PAUCallJSParam@@@Z:NEAR ; CWebManager::CallWebFromGBox
; Function compile flags: /Odt
_TEXT	SEGMENT
_this$ = -12						; size = 4
_pParam$ = -8						; size = 4
_phtml$ = -4						; size = 4
_w$ = 8							; size = 4
_l$ = 12						; size = 4
?OnCallJavaScript@MyWebBrowserWnd@@QAEJIJ@Z PROC NEAR	; MyWebBrowserWnd::OnCallJavaScript
; _this$ = ecx

; 267  : {

  00cf0	55		 push	 ebp
  00cf1	8b ec		 mov	 ebp, esp
  00cf3	83 ec 0c	 sub	 esp, 12			; 0000000cH
  00cf6	89 4d f4	 mov	 DWORD PTR _this$[ebp], ecx

; 268  : 	CHtmlView* phtml = (CHtmlView*)w;

  00cf9	8b 45 08	 mov	 eax, DWORD PTR _w$[ebp]
  00cfc	89 45 fc	 mov	 DWORD PTR _phtml$[ebp], eax

; 269  : // 	string* pStr = (string*)l;
; 270  : 	CallJSParam * pParam = (CallJSParam*) l;

  00cff	8b 4d 0c	 mov	 ecx, DWORD PTR _l$[ebp]
  00d02	89 4d f8	 mov	 DWORD PTR _pParam$[ebp], ecx

; 271  : 
; 272  : 	CWebManager::GetInstance()->CallWebFromGBox( phtml, pParam/**pStr */);

  00d05	8b 55 f8	 mov	 edx, DWORD PTR _pParam$[ebp]
  00d08	52		 push	 edx
  00d09	8b 45 fc	 mov	 eax, DWORD PTR _phtml$[ebp]
  00d0c	50		 push	 eax
  00d0d	e8 00 00 00 00	 call	 ?GetInstance@CWebManager@@SAPAV1@XZ ; CWebManager::GetInstance
  00d12	8b c8		 mov	 ecx, eax
  00d14	e8 00 00 00 00	 call	 ?CallWebFromGBox@CWebManager@@QAEXPAVCHtmlView@@PAUCallJSParam@@@Z ; CWebManager::CallWebFromGBox

; 273  : 	/*delete pStr;*/
; 274  : 
; 275  : 	return 0;

  00d19	33 c0		 xor	 eax, eax

; 276  : }

  00d1b	8b e5		 mov	 esp, ebp
  00d1d	5d		 pop	 ebp
  00d1e	c2 08 00	 ret	 8
?OnCallJavaScript@MyWebBrowserWnd@@QAEJIJ@Z ENDP	; MyWebBrowserWnd::OnCallJavaScript
_TEXT	ENDS
EXTRN	__imp_?GetString@?$CSimpleStringT@D$00@ATL@@QBEPBDXZ:NEAR
; Function compile flags: /Odt
_TEXT	SEGMENT
tv130 = -12						; size = 4
_this$ = -8						; size = 4
$T207909 = -4						; size = 4
_psz$ = 8						; size = 4
?IWebRefreshOb_Refresh@MyWebBrowserWnd@@UAEXPBD@Z PROC NEAR ; MyWebBrowserWnd::IWebRefreshOb_Refresh
; _this$ = ecx

; 279  : {

  00d30	55		 push	 ebp
  00d31	8b ec		 mov	 ebp, esp
  00d33	83 ec 0c	 sub	 esp, 12			; 0000000cH
  00d36	89 4d f8	 mov	 DWORD PTR _this$[ebp], ecx

; 280  : 	if( m_bSucceed == FALSE )

  00d39	8b 45 f8	 mov	 eax, DWORD PTR _this$[ebp]
  00d3c	83 78 04 00	 cmp	 DWORD PTR [eax+4], 0
  00d40	75 4a		 jne	 SHORT $L206427

; 281  : 	{
; 282  : 		if( strstr( psz, m_strURL.GetString() ) != NULL )

  00d42	8b 4d f8	 mov	 ecx, DWORD PTR _this$[ebp]
  00d45	83 c1 10	 add	 ecx, 16			; 00000010H
  00d48	ff 15 00 00 00
	00		 call	 DWORD PTR __imp_?GetString@?$CSimpleStringT@D$00@ATL@@QBEPBDXZ
  00d4e	50		 push	 eax
  00d4f	8b 4d 08	 mov	 ecx, DWORD PTR _psz$[ebp]
  00d52	51		 push	 ecx
  00d53	ff 15 00 00 00
	00		 call	 DWORD PTR __imp__strstr
  00d59	83 c4 08	 add	 esp, 8
  00d5c	85 c0		 test	 eax, eax
  00d5e	74 2c		 je	 SHORT $L206427

; 283  : 		{
; 284  : 			Navigate( m_strURL.GetString() );

  00d60	8b 4d f8	 mov	 ecx, DWORD PTR _this$[ebp]
  00d63	83 c1 10	 add	 ecx, 16			; 00000010H
  00d66	ff 15 00 00 00
	00		 call	 DWORD PTR __imp_?GetString@?$CSimpleStringT@D$00@ATL@@QBEPBDXZ
  00d6c	83 ec 1c	 sub	 esp, 28			; 0000001cH
  00d6f	8b cc		 mov	 ecx, esp
  00d71	89 65 fc	 mov	 DWORD PTR $T207909[ebp], esp
  00d74	50		 push	 eax
  00d75	ff 15 00 00 00
	00		 call	 DWORD PTR __imp_??0?$basic_string@DU?$char_traits@D@std@@V?$allocator@D@2@@std@@QAE@PBD@Z
  00d7b	89 45 f4	 mov	 DWORD PTR tv130[ebp], eax
  00d7e	8b 4d f8	 mov	 ecx, DWORD PTR _this$[ebp]
  00d81	81 e9 f0 00 00
	00		 sub	 ecx, 240		; 000000f0H
  00d87	e8 00 00 00 00	 call	 ?Navigate@MyWebBrowserWnd@@QAEXV?$basic_string@DU?$char_traits@D@std@@V?$allocator@D@2@@std@@@Z ; MyWebBrowserWnd::Navigate
$L206427:

; 285  : 		}
; 286  : 	}
; 287  : }

  00d8c	8b e5		 mov	 esp, ebp
  00d8e	5d		 pop	 ebp
  00d8f	c2 04 00	 ret	 4
?IWebRefreshOb_Refresh@MyWebBrowserWnd@@UAEXPBD@Z ENDP	; MyWebBrowserWnd::IWebRefreshOb_Refresh
_TEXT	ENDS
PUBLIC	?SetHomePage@MyWebBrowserWnd@@QAEX_N@Z		; MyWebBrowserWnd::SetHomePage
; Function compile flags: /Odt
_TEXT	SEGMENT
_this$ = -4						; size = 4
_bHomePage$ = 8						; size = 1
?SetHomePage@MyWebBrowserWnd@@QAEX_N@Z PROC NEAR	; MyWebBrowserWnd::SetHomePage
; _this$ = ecx

; 290  : {

  00da0	55		 push	 ebp
  00da1	8b ec		 mov	 ebp, esp
  00da3	51		 push	 ecx
  00da4	89 4d fc	 mov	 DWORD PTR _this$[ebp], ecx

; 291  : 	m_bHomePage = bHomePage;

  00da7	8b 45 fc	 mov	 eax, DWORD PTR _this$[ebp]
  00daa	8a 4d 08	 mov	 cl, BYTE PTR _bHomePage$[ebp]
  00dad	88 88 c4 01 00
	00		 mov	 BYTE PTR [eax+452], cl

; 292  : }

  00db3	8b e5		 mov	 esp, ebp
  00db5	5d		 pop	 ebp
  00db6	c2 04 00	 ret	 4
?SetHomePage@MyWebBrowserWnd@@QAEX_N@Z ENDP		; MyWebBrowserWnd::SetHomePage
_TEXT	ENDS
EXTRN	__imp_?Compare@?$CStringT@DV?$StrTraitMFC_DLL@DV?$ChTraitsCRT@D@ATL@@@@@ATL@@QBEHPBD@Z:NEAR
; Function compile flags: /Odt
; File d:\program files (x86)\microsoft visual studio .net 2003\vc7\atlmfc\include\cstringt.h
;	COMDAT ??8ATL@@YA_NABV?$CStringT@DV?$StrTraitMFC_DLL@DV?$ChTraitsCRT@D@ATL@@@@@0@PBD@Z
_TEXT	SEGMENT
_str1$ = 8						; size = 4
_psz2$ = 12						; size = 4
??8ATL@@YA_NABV?$CStringT@DV?$StrTraitMFC_DLL@DV?$ChTraitsCRT@D@ATL@@@@@0@PBD@Z PROC NEAR ; ATL::operator==, COMDAT

; 2087 : 	{

  00000	55		 push	 ebp
  00001	8b ec		 mov	 ebp, esp

; 2088 : 		return( str1.Compare( psz2 ) == 0 );

  00003	8b 45 0c	 mov	 eax, DWORD PTR _psz2$[ebp]
  00006	50		 push	 eax
  00007	8b 4d 08	 mov	 ecx, DWORD PTR _str1$[ebp]
  0000a	ff 15 00 00 00
	00		 call	 DWORD PTR __imp_?Compare@?$CStringT@DV?$StrTraitMFC_DLL@DV?$ChTraitsCRT@D@ATL@@@@@ATL@@QBEHPBD@Z
  00010	f7 d8		 neg	 eax
  00012	1b c0		 sbb	 eax, eax
  00014	40		 inc	 eax

; 2089 : 	}

  00015	5d		 pop	 ebp
  00016	c3		 ret	 0
??8ATL@@YA_NABV?$CStringT@DV?$StrTraitMFC_DLL@DV?$ChTraitsCRT@D@ATL@@@@@0@PBD@Z ENDP ; ATL::operator==
; Function compile flags: /Odt
_TEXT	ENDS
;	COMDAT ??8ATL@@YA_NPBDABV?$CStringT@DV?$StrTraitMFC_DLL@DV?$ChTraitsCRT@D@ATL@@@@@0@@Z
_TEXT	SEGMENT
_psz1$ = 8						; size = 4
_str2$ = 12						; size = 4
??8ATL@@YA_NPBDABV?$CStringT@DV?$StrTraitMFC_DLL@DV?$ChTraitsCRT@D@ATL@@@@@0@@Z PROC NEAR ; ATL::operator==, COMDAT

; 2093 : 	{

  00000	55		 push	 ebp
  00001	8b ec		 mov	 ebp, esp

; 2094 : 		return( str2.Compare( psz1 ) == 0 );

  00003	8b 45 08	 mov	 eax, DWORD PTR _psz1$[ebp]
  00006	50		 push	 eax
  00007	8b 4d 0c	 mov	 ecx, DWORD PTR _str2$[ebp]
  0000a	ff 15 00 00 00
	00		 call	 DWORD PTR __imp_?Compare@?$CStringT@DV?$StrTraitMFC_DLL@DV?$ChTraitsCRT@D@ATL@@@@@ATL@@QBEHPBD@Z
  00010	f7 d8		 neg	 eax
  00012	1b c0		 sbb	 eax, eax
  00014	40		 inc	 eax

; 2095 : 	}

  00015	5d		 pop	 ebp
  00016	c3		 ret	 0
??8ATL@@YA_NPBDABV?$CStringT@DV?$StrTraitMFC_DLL@DV?$ChTraitsCRT@D@ATL@@@@@0@@Z ENDP ; ATL::operator==
_TEXT	ENDS
PUBLIC	?AtlComPtrAssign@ATL@@YGPAUIUnknown@@PAPAU2@PAU2@@Z ; ATL::AtlComPtrAssign
; Function compile flags: /Odt
; File d:\program files (x86)\microsoft visual studio .net 2003\vc7\atlmfc\include\atlcomcli.h
;	COMDAT ??4?$CComPtr@UIWebBrowser2@@@ATL@@QAEPAUIWebBrowser2@@PAU2@@Z
_TEXT	SEGMENT
_this$ = -4						; size = 4
_lp$ = 8						; size = 4
??4?$CComPtr@UIWebBrowser2@@@ATL@@QAEPAUIWebBrowser2@@PAU2@@Z PROC NEAR ; ATL::CComPtr<IWebBrowser2>::operator=, COMDAT
; _this$ = ecx

; 291  : 	{

  00000	55		 push	 ebp
  00001	8b ec		 mov	 ebp, esp
  00003	51		 push	 ecx
  00004	89 4d fc	 mov	 DWORD PTR _this$[ebp], ecx

; 292  : 		return static_cast<T*>(AtlComPtrAssign((IUnknown**)&p, lp));

  00007	8b 45 08	 mov	 eax, DWORD PTR _lp$[ebp]
  0000a	50		 push	 eax
  0000b	8b 4d fc	 mov	 ecx, DWORD PTR _this$[ebp]
  0000e	51		 push	 ecx
  0000f	e8 00 00 00 00	 call	 ?AtlComPtrAssign@ATL@@YGPAUIUnknown@@PAPAU2@PAU2@@Z ; ATL::AtlComPtrAssign

; 293  : 	}

  00014	8b e5		 mov	 esp, ebp
  00016	5d		 pop	 ebp
  00017	c2 04 00	 ret	 4
??4?$CComPtr@UIWebBrowser2@@@ATL@@QAEPAUIWebBrowser2@@PAU2@@Z ENDP ; ATL::CComPtr<IWebBrowser2>::operator=
; Function compile flags: /Odt
_TEXT	ENDS
;	COMDAT ??I?$CComPtrBase@UIWebBrowser2@@@ATL@@QAEPAPAUIWebBrowser2@@XZ
_TEXT	SEGMENT
_this$ = -4						; size = 4
??I?$CComPtrBase@UIWebBrowser2@@@ATL@@QAEPAPAUIWebBrowser2@@XZ PROC NEAR ; ATL::CComPtrBase<IWebBrowser2>::operator&, COMDAT
; _this$ = ecx

; 142  : 	{

  00000	55		 push	 ebp
  00001	8b ec		 mov	 ebp, esp
  00003	51		 push	 ecx
  00004	89 4d fc	 mov	 DWORD PTR _this$[ebp], ecx

; 143  : 		ATLASSERT(p==NULL);
; 144  : 		return &p;

  00007	8b 45 fc	 mov	 eax, DWORD PTR _this$[ebp]

; 145  : 	}

  0000a	8b e5		 mov	 esp, ebp
  0000c	5d		 pop	 ebp
  0000d	c3		 ret	 0
??I?$CComPtrBase@UIWebBrowser2@@@ATL@@QAEPAPAUIWebBrowser2@@XZ ENDP ; ATL::CComPtrBase<IWebBrowser2>::operator&
; Function compile flags: /Odt
_TEXT	ENDS
;	COMDAT ??_EMyWebBrowserWnd@@WPA@AEPAXI@Z
_TEXT	SEGMENT
??_EMyWebBrowserWnd@@WPA@AEPAXI@Z PROC NEAR		; [thunk]:MyWebBrowserWnd::`vector deleting destructor', COMDAT
  00000	81 e9 f0 00 00
	00		 sub	 ecx, 240		; 000000f0H
  00006	e9 00 00 00 00	 jmp	 ??_EMyWebBrowserWnd@@UAEPAXI@Z
??_EMyWebBrowserWnd@@WPA@AEPAXI@Z ENDP			; [thunk]:MyWebBrowserWnd::`vector deleting destructor'
; Function compile flags: /Odt
; File d:\program files (x86)\microsoft visual studio .net 2003\vc7\atlmfc\include\atltypes.inl
_TEXT	ENDS
;	COMDAT ??0CRect@@QAE@XZ
_TEXT	SEGMENT
_this$ = -4						; size = 4
??0CRect@@QAE@XZ PROC NEAR				; CRect::CRect, COMDAT
; _this$ = ecx

; 110  : 	{ /* random filled */ }

  00000	55		 push	 ebp
  00001	8b ec		 mov	 ebp, esp
  00003	51		 push	 ecx
  00004	89 4d fc	 mov	 DWORD PTR _this$[ebp], ecx
  00007	8b 45 fc	 mov	 eax, DWORD PTR _this$[ebp]
  0000a	8b e5		 mov	 esp, ebp
  0000c	5d		 pop	 ebp
  0000d	c3		 ret	 0
??0CRect@@QAE@XZ ENDP					; CRect::CRect
; Function compile flags: /Odt
_TEXT	ENDS
;	COMDAT ??0CRect@@QAE@HHHH@Z
_TEXT	SEGMENT
_this$ = -4						; size = 4
_l$ = 8							; size = 4
_t$ = 12						; size = 4
_r$ = 16						; size = 4
_b$ = 20						; size = 4
??0CRect@@QAE@HHHH@Z PROC NEAR				; CRect::CRect, COMDAT
; _this$ = ecx

; 112  : 	{ left = l; top = t; right = r; bottom = b; }

  00000	55		 push	 ebp
  00001	8b ec		 mov	 ebp, esp
  00003	51		 push	 ecx
  00004	89 4d fc	 mov	 DWORD PTR _this$[ebp], ecx
  00007	8b 45 fc	 mov	 eax, DWORD PTR _this$[ebp]
  0000a	8b 4d 08	 mov	 ecx, DWORD PTR _l$[ebp]
  0000d	89 08		 mov	 DWORD PTR [eax], ecx
  0000f	8b 55 fc	 mov	 edx, DWORD PTR _this$[ebp]
  00012	8b 45 0c	 mov	 eax, DWORD PTR _t$[ebp]
  00015	89 42 04	 mov	 DWORD PTR [edx+4], eax
  00018	8b 4d fc	 mov	 ecx, DWORD PTR _this$[ebp]
  0001b	8b 55 10	 mov	 edx, DWORD PTR _r$[ebp]
  0001e	89 51 08	 mov	 DWORD PTR [ecx+8], edx
  00021	8b 45 fc	 mov	 eax, DWORD PTR _this$[ebp]
  00024	8b 4d 14	 mov	 ecx, DWORD PTR _b$[ebp]
  00027	89 48 0c	 mov	 DWORD PTR [eax+12], ecx
  0002a	8b 45 fc	 mov	 eax, DWORD PTR _this$[ebp]
  0002d	8b e5		 mov	 esp, ebp
  0002f	5d		 pop	 ebp
  00030	c2 10 00	 ret	 16			; 00000010H
??0CRect@@QAE@HHHH@Z ENDP				; CRect::CRect
; Function compile flags: /Odt
; File d:\program files (x86)\microsoft visual studio .net 2003\vc7\atlmfc\include\afxtls_.h
_TEXT	ENDS
;	COMDAT ??1CNoTrackObject@@UAE@XZ
_TEXT	SEGMENT
_this$ = -4						; size = 4
??1CNoTrackObject@@UAE@XZ PROC NEAR			; CNoTrackObject::~CNoTrackObject, COMDAT
; _this$ = ecx

; 144  : 	virtual ~CNoTrackObject() = 0 { }

  00000	55		 push	 ebp
  00001	8b ec		 mov	 ebp, esp
  00003	51		 push	 ecx
  00004	89 4d fc	 mov	 DWORD PTR _this$[ebp], ecx
  00007	8b e5		 mov	 esp, ebp
  00009	5d		 pop	 ebp
  0000a	c3		 ret	 0
??1CNoTrackObject@@UAE@XZ ENDP				; CNoTrackObject::~CNoTrackObject
; Function compile flags: /Odt
; File d:\program files (x86)\microsoft visual studio .net 2003\vc7\atlmfc\include\afx.inl
_TEXT	ENDS
;	COMDAT ?Serialize@CObject@@UAEXAAVCArchive@@@Z
_TEXT	SEGMENT
_this$ = -4						; size = 4
___formal$ = 8						; size = 4
?Serialize@CObject@@UAEXAAVCArchive@@@Z PROC NEAR	; CObject::Serialize, COMDAT
; _this$ = ecx

; 25   : 	{ /* CObject does not serialize anything by default */ }

  00000	55		 push	 ebp
  00001	8b ec		 mov	 ebp, esp
  00003	51		 push	 ecx
  00004	89 4d fc	 mov	 DWORD PTR _this$[ebp], ecx
  00007	8b e5		 mov	 esp, ebp
  00009	5d		 pop	 ebp
  0000a	c2 04 00	 ret	 4
?Serialize@CObject@@UAEXAAVCArchive@@@Z ENDP		; CObject::Serialize
; Function compile flags: /Odt
_TEXT	ENDS
;	COMDAT ??3CObject@@SGXPAX@Z
_TEXT	SEGMENT
_p$ = 8							; size = 4
??3CObject@@SGXPAX@Z PROC NEAR				; CObject::operator delete, COMDAT

; 31   : 	{ ::operator delete(p); }

  00000	55		 push	 ebp
  00001	8b ec		 mov	 ebp, esp
  00003	8b 45 08	 mov	 eax, DWORD PTR _p$[ebp]
  00006	50		 push	 eax
  00007	e8 00 00 00 00	 call	 ??3@YAXPAX@Z		; operator delete
  0000c	83 c4 04	 add	 esp, 4
  0000f	5d		 pop	 ebp
  00010	c2 04 00	 ret	 4
??3CObject@@SGXPAX@Z ENDP				; CObject::operator delete
_TEXT	ENDS
EXTRN	??2@YAPAXI@Z:NEAR				; operator new
; Function compile flags: /Odt
;	COMDAT ??2CObject@@SGPAXI@Z
_TEXT	SEGMENT
_nSize$ = 8						; size = 4
??2CObject@@SGPAXI@Z PROC NEAR				; CObject::operator new, COMDAT

; 37   : 	{ return ::operator new(nSize); }

  00000	55		 push	 ebp
  00001	8b ec		 mov	 ebp, esp
  00003	8b 45 08	 mov	 eax, DWORD PTR _nSize$[ebp]
  00006	50		 push	 eax
  00007	e8 00 00 00 00	 call	 ??2@YAPAXI@Z		; operator new
  0000c	83 c4 04	 add	 esp, 4
  0000f	5d		 pop	 ebp
  00010	c2 04 00	 ret	 4
??2CObject@@SGPAXI@Z ENDP				; CObject::operator new
; Function compile flags: /Odt
_TEXT	ENDS
;	COMDAT ?AssertValid@CObject@@UBEXXZ
_TEXT	SEGMENT
_this$ = -4						; size = 4
?AssertValid@CObject@@UBEXXZ PROC NEAR			; CObject::AssertValid, COMDAT
; _this$ = ecx

; 41   : 	{ /* no asserts in release builds */ }

  00000	55		 push	 ebp
  00001	8b ec		 mov	 ebp, esp
  00003	51		 push	 ecx
  00004	89 4d fc	 mov	 DWORD PTR _this$[ebp], ecx
  00007	8b e5		 mov	 esp, ebp
  00009	5d		 pop	 ebp
  0000a	c3		 ret	 0
?AssertValid@CObject@@UBEXXZ ENDP			; CObject::AssertValid
; Function compile flags: /Odt
_TEXT	ENDS
;	COMDAT ?Dump@CObject@@UBEXAAVCDumpContext@@@Z
_TEXT	SEGMENT
_this$ = -4						; size = 4
___formal$ = 8						; size = 4
?Dump@CObject@@UBEXAAVCDumpContext@@@Z PROC NEAR	; CObject::Dump, COMDAT
; _this$ = ecx

; 43   : 	{ /* no dumping in release builds */ }

  00000	55		 push	 ebp
  00001	8b ec		 mov	 ebp, esp
  00003	51		 push	 ecx
  00004	89 4d fc	 mov	 DWORD PTR _this$[ebp], ecx
  00007	8b e5		 mov	 esp, ebp
  00009	5d		 pop	 ebp
  0000a	c2 04 00	 ret	 4
?Dump@CObject@@UBEXAAVCDumpContext@@@Z ENDP		; CObject::Dump
; Function compile flags: /Odt
; File d:\program files (x86)\microsoft visual studio .net 2003\vc7\atlmfc\include\afxwin2.inl
_TEXT	ENDS
;	COMDAT ?MoveWindow@CWnd@@QAEXPBUtagRECT@@H@Z
_TEXT	SEGMENT
_this$ = -4						; size = 4
_lpRect$ = 8						; size = 4
_bRepaint$ = 12						; size = 4
?MoveWindow@CWnd@@QAEXPBUtagRECT@@H@Z PROC NEAR		; CWnd::MoveWindow, COMDAT
; _this$ = ecx

; 89   : 	{ MoveWindow(lpRect->left, lpRect->top, lpRect->right - lpRect->left,

  00000	55		 push	 ebp
  00001	8b ec		 mov	 ebp, esp
  00003	51		 push	 ecx
  00004	89 4d fc	 mov	 DWORD PTR _this$[ebp], ecx

; 90   : 		lpRect->bottom - lpRect->top, bRepaint); }

  00007	8b 45 0c	 mov	 eax, DWORD PTR _bRepaint$[ebp]
  0000a	50		 push	 eax
  0000b	8b 4d 08	 mov	 ecx, DWORD PTR _lpRect$[ebp]
  0000e	8b 55 08	 mov	 edx, DWORD PTR _lpRect$[ebp]
  00011	8b 41 0c	 mov	 eax, DWORD PTR [ecx+12]
  00014	2b 42 04	 sub	 eax, DWORD PTR [edx+4]
  00017	50		 push	 eax
  00018	8b 4d 08	 mov	 ecx, DWORD PTR _lpRect$[ebp]
  0001b	8b 55 08	 mov	 edx, DWORD PTR _lpRect$[ebp]
  0001e	8b 41 08	 mov	 eax, DWORD PTR [ecx+8]
  00021	2b 02		 sub	 eax, DWORD PTR [edx]
  00023	50		 push	 eax
  00024	8b 4d 08	 mov	 ecx, DWORD PTR _lpRect$[ebp]
  00027	8b 51 04	 mov	 edx, DWORD PTR [ecx+4]
  0002a	52		 push	 edx
  0002b	8b 45 08	 mov	 eax, DWORD PTR _lpRect$[ebp]
  0002e	8b 08		 mov	 ecx, DWORD PTR [eax]
  00030	51		 push	 ecx
  00031	8b 4d fc	 mov	 ecx, DWORD PTR _this$[ebp]
  00034	e8 00 00 00 00	 call	 ?MoveWindow@CWnd@@QAEXHHHHH@Z ; CWnd::MoveWindow
  00039	8b e5		 mov	 esp, ebp
  0003b	5d		 pop	 ebp
  0003c	c2 08 00	 ret	 8
?MoveWindow@CWnd@@QAEXPBUtagRECT@@H@Z ENDP		; CWnd::MoveWindow
_TEXT	ENDS
EXTRN	__imp__GetClientRect@8:NEAR
; Function compile flags: /Odt
;	COMDAT ?GetClientRect@CWnd@@QBEXPAUtagRECT@@@Z
_TEXT	SEGMENT
_this$ = -4						; size = 4
_lpRect$ = 8						; size = 4
?GetClientRect@CWnd@@QBEXPAUtagRECT@@@Z PROC NEAR	; CWnd::GetClientRect, COMDAT
; _this$ = ecx

; 107  : 	{ ASSERT(::IsWindow(m_hWnd)); ::GetClientRect(m_hWnd, lpRect); }

  00000	55		 push	 ebp
  00001	8b ec		 mov	 ebp, esp
  00003	51		 push	 ecx
  00004	89 4d fc	 mov	 DWORD PTR _this$[ebp], ecx
  00007	8b 45 08	 mov	 eax, DWORD PTR _lpRect$[ebp]
  0000a	50		 push	 eax
  0000b	8b 4d fc	 mov	 ecx, DWORD PTR _this$[ebp]
  0000e	8b 51 20	 mov	 edx, DWORD PTR [ecx+32]
  00011	52		 push	 edx
  00012	ff 15 00 00 00
	00		 call	 DWORD PTR __imp__GetClientRect@8
  00018	8b e5		 mov	 esp, ebp
  0001a	5d		 pop	 ebp
  0001b	c2 04 00	 ret	 4
?GetClientRect@CWnd@@QBEXPAUtagRECT@@@Z ENDP		; CWnd::GetClientRect
_TEXT	ENDS
EXTRN	__imp__SetTimer@16:NEAR
; Function compile flags: /Odt
;	COMDAT ?SetTimer@CWnd@@QAEIIIP6GXPAUHWND__@@IIK@Z@Z
_TEXT	SEGMENT
_this$ = -4						; size = 4
_nIDEvent$ = 8						; size = 4
_nElapse$ = 12						; size = 4
_lpfnTimer$ = 16					; size = 4
?SetTimer@CWnd@@QAEIIIP6GXPAUHWND__@@IIK@Z@Z PROC NEAR	; CWnd::SetTimer, COMDAT
; _this$ = ecx

; 182  : 	{ ASSERT(::IsWindow(m_hWnd)); return ::SetTimer(m_hWnd, nIDEvent, nElapse,

  00000	55		 push	 ebp
  00001	8b ec		 mov	 ebp, esp
  00003	51		 push	 ecx
  00004	89 4d fc	 mov	 DWORD PTR _this$[ebp], ecx

; 183  : 		lpfnTimer); }

  00007	8b 45 10	 mov	 eax, DWORD PTR _lpfnTimer$[ebp]
  0000a	50		 push	 eax
  0000b	8b 4d 0c	 mov	 ecx, DWORD PTR _nElapse$[ebp]
  0000e	51		 push	 ecx
  0000f	8b 55 08	 mov	 edx, DWORD PTR _nIDEvent$[ebp]
  00012	52		 push	 edx
  00013	8b 45 fc	 mov	 eax, DWORD PTR _this$[ebp]
  00016	8b 48 20	 mov	 ecx, DWORD PTR [eax+32]
  00019	51		 push	 ecx
  0001a	ff 15 00 00 00
	00		 call	 DWORD PTR __imp__SetTimer@16
  00020	8b e5		 mov	 esp, ebp
  00022	5d		 pop	 ebp
  00023	c2 0c 00	 ret	 12			; 0000000cH
?SetTimer@CWnd@@QAEIIIP6GXPAUHWND__@@IIK@Z@Z ENDP	; CWnd::SetTimer
_TEXT	ENDS
EXTRN	__imp__KillTimer@8:NEAR
; Function compile flags: /Odt
;	COMDAT ?KillTimer@CWnd@@QAEHI@Z
_TEXT	SEGMENT
_this$ = -4						; size = 4
_nIDEvent$ = 8						; size = 4
?KillTimer@CWnd@@QAEHI@Z PROC NEAR			; CWnd::KillTimer, COMDAT
; _this$ = ecx

; 185  : 	{ ASSERT(::IsWindow(m_hWnd)); return ::KillTimer(m_hWnd, nIDEvent); }

  00000	55		 push	 ebp
  00001	8b ec		 mov	 ebp, esp
  00003	51		 push	 ecx
  00004	89 4d fc	 mov	 DWORD PTR _this$[ebp], ecx
  00007	8b 45 08	 mov	 eax, DWORD PTR _nIDEvent$[ebp]
  0000a	50		 push	 eax
  0000b	8b 4d fc	 mov	 ecx, DWORD PTR _this$[ebp]
  0000e	8b 51 20	 mov	 edx, DWORD PTR [ecx+32]
  00011	52		 push	 edx
  00012	ff 15 00 00 00
	00		 call	 DWORD PTR __imp__KillTimer@8
  00018	8b e5		 mov	 esp, ebp
  0001a	5d		 pop	 ebp
  0001b	c2 04 00	 ret	 4
?KillTimer@CWnd@@QAEHI@Z ENDP				; CWnd::KillTimer
_TEXT	ENDS
EXTRN	?Default@CWnd@@IAEJXZ:NEAR			; CWnd::Default
; Function compile flags: /Odt
;	COMDAT ?OnTimer@CWnd@@IAEXI@Z
_TEXT	SEGMENT
_this$ = -4						; size = 4
___formal$ = 8						; size = 4
?OnTimer@CWnd@@IAEXI@Z PROC NEAR			; CWnd::OnTimer, COMDAT
; _this$ = ecx

; 488  : 	{ Default(); }

  00000	55		 push	 ebp
  00001	8b ec		 mov	 ebp, esp
  00003	51		 push	 ecx
  00004	89 4d fc	 mov	 DWORD PTR _this$[ebp], ecx
  00007	8b 4d fc	 mov	 ecx, DWORD PTR _this$[ebp]
  0000a	e8 00 00 00 00	 call	 ?Default@CWnd@@IAEJXZ	; CWnd::Default
  0000f	8b e5		 mov	 esp, ebp
  00011	5d		 pop	 ebp
  00012	c2 04 00	 ret	 4
?OnTimer@CWnd@@IAEXI@Z ENDP				; CWnd::OnTimer
; Function compile flags: /Odt
_TEXT	ENDS
;	COMDAT ?DoDataExchange@CWnd@@MAEXPAVCDataExchange@@@Z
_TEXT	SEGMENT
_this$ = -4						; size = 4
___formal$ = 8						; size = 4
?DoDataExchange@CWnd@@MAEXPAVCDataExchange@@@Z PROC NEAR ; CWnd::DoDataExchange, COMDAT
; _this$ = ecx

; 545  : 	{ } // default does nothing

  00000	55		 push	 ebp
  00001	8b ec		 mov	 ebp, esp
  00003	51		 push	 ecx
  00004	89 4d fc	 mov	 DWORD PTR _this$[ebp], ecx
  00007	8b e5		 mov	 esp, ebp
  00009	5d		 pop	 ebp
  0000a	c2 04 00	 ret	 4
?DoDataExchange@CWnd@@MAEXPAVCDataExchange@@@Z ENDP	; CWnd::DoDataExchange
_TEXT	ENDS
EXTRN	__imp__EnableWindow@8:NEAR
; Function compile flags: /Odt
;	COMDAT ?BeginModalState@CWnd@@UAEXXZ
_TEXT	SEGMENT
_this$ = -4						; size = 4
?BeginModalState@CWnd@@UAEXXZ PROC NEAR			; CWnd::BeginModalState, COMDAT
; _this$ = ecx

; 549  : 	{ ::EnableWindow(m_hWnd, FALSE); }

  00000	55		 push	 ebp
  00001	8b ec		 mov	 ebp, esp
  00003	51		 push	 ecx
  00004	89 4d fc	 mov	 DWORD PTR _this$[ebp], ecx
  00007	6a 00		 push	 0
  00009	8b 45 fc	 mov	 eax, DWORD PTR _this$[ebp]
  0000c	8b 48 20	 mov	 ecx, DWORD PTR [eax+32]
  0000f	51		 push	 ecx
  00010	ff 15 00 00 00
	00		 call	 DWORD PTR __imp__EnableWindow@8
  00016	8b e5		 mov	 esp, ebp
  00018	5d		 pop	 ebp
  00019	c3		 ret	 0
?BeginModalState@CWnd@@UAEXXZ ENDP			; CWnd::BeginModalState
; Function compile flags: /Odt
_TEXT	ENDS
;	COMDAT ?EndModalState@CWnd@@UAEXXZ
_TEXT	SEGMENT
_this$ = -4						; size = 4
?EndModalState@CWnd@@UAEXXZ PROC NEAR			; CWnd::EndModalState, COMDAT
; _this$ = ecx

; 551  : 	{ ::EnableWindow(m_hWnd, TRUE); }

  00000	55		 push	 ebp
  00001	8b ec		 mov	 ebp, esp
  00003	51		 push	 ecx
  00004	89 4d fc	 mov	 DWORD PTR _this$[ebp], ecx
  00007	6a 01		 push	 1
  00009	8b 45 fc	 mov	 eax, DWORD PTR _this$[ebp]
  0000c	8b 48 20	 mov	 ecx, DWORD PTR [eax+32]
  0000f	51		 push	 ecx
  00010	ff 15 00 00 00
	00		 call	 DWORD PTR __imp__EnableWindow@8
  00016	8b e5		 mov	 esp, ebp
  00018	5d		 pop	 ebp
  00019	c3		 ret	 0
?EndModalState@CWnd@@UAEXXZ ENDP			; CWnd::EndModalState
_TEXT	ENDS
EXTRN	?GetAccessibleChild@CWnd@@QAEJUtagVARIANT@@PAPAUIDispatch@@@Z:NEAR ; CWnd::GetAccessibleChild
; Function compile flags: /Odt
; File d:\program files (x86)\microsoft visual studio .net 2003\vc7\atlmfc\include\afxext.h
;	COMDAT ?get_accChild@CFormView@@UAEJUtagVARIANT@@PAPAUIDispatch@@@Z
_TEXT	SEGMENT
_this$ = -4						; size = 4
_varChild$ = 8						; size = 16
_ppdispChild$ = 24					; size = 4
?get_accChild@CFormView@@UAEJUtagVARIANT@@PAPAUIDispatch@@@Z PROC NEAR ; CFormView::get_accChild, COMDAT
; _this$ = ecx

; 768  : 	{

  00000	55		 push	 ebp
  00001	8b ec		 mov	 ebp, esp
  00003	51		 push	 ecx
  00004	89 4d fc	 mov	 DWORD PTR _this$[ebp], ecx

; 769  : 		return GetAccessibleChild(varChild, ppdispChild);

  00007	8b 45 18	 mov	 eax, DWORD PTR _ppdispChild$[ebp]
  0000a	50		 push	 eax
  0000b	83 ec 10	 sub	 esp, 16			; 00000010H
  0000e	8b cc		 mov	 ecx, esp
  00010	8b 55 08	 mov	 edx, DWORD PTR _varChild$[ebp]
  00013	89 11		 mov	 DWORD PTR [ecx], edx
  00015	8b 45 0c	 mov	 eax, DWORD PTR _varChild$[ebp+4]
  00018	89 41 04	 mov	 DWORD PTR [ecx+4], eax
  0001b	8b 55 10	 mov	 edx, DWORD PTR _varChild$[ebp+8]
  0001e	89 51 08	 mov	 DWORD PTR [ecx+8], edx
  00021	8b 45 14	 mov	 eax, DWORD PTR _varChild$[ebp+12]
  00024	89 41 0c	 mov	 DWORD PTR [ecx+12], eax
  00027	8b 4d fc	 mov	 ecx, DWORD PTR _this$[ebp]
  0002a	e8 00 00 00 00	 call	 ?GetAccessibleChild@CWnd@@QAEJUtagVARIANT@@PAPAUIDispatch@@@Z ; CWnd::GetAccessibleChild

; 770  : 	}

  0002f	8b e5		 mov	 esp, ebp
  00031	5d		 pop	 ebp
  00032	c2 14 00	 ret	 20			; 00000014H
?get_accChild@CFormView@@UAEJUtagVARIANT@@PAPAUIDispatch@@@Z ENDP ; CFormView::get_accChild
_TEXT	ENDS
EXTRN	?GetAccessibleChildCount@CWnd@@QAEJXZ:NEAR	; CWnd::GetAccessibleChildCount
; Function compile flags: /Odt
;	COMDAT ?get_accChildCount@CFormView@@UAEJPAJ@Z
_TEXT	SEGMENT
_this$ = -4						; size = 4
_pcountChildren$ = 8					; size = 4
?get_accChildCount@CFormView@@UAEJPAJ@Z PROC NEAR	; CFormView::get_accChildCount, COMDAT
; _this$ = ecx

; 773  : 	{

  00000	55		 push	 ebp
  00001	8b ec		 mov	 ebp, esp
  00003	51		 push	 ecx
  00004	89 4d fc	 mov	 DWORD PTR _this$[ebp], ecx

; 774  : 		(*pcountChildren) = GetAccessibleChildCount();

  00007	8b 4d fc	 mov	 ecx, DWORD PTR _this$[ebp]
  0000a	e8 00 00 00 00	 call	 ?GetAccessibleChildCount@CWnd@@QAEJXZ ; CWnd::GetAccessibleChildCount
  0000f	8b 4d 08	 mov	 ecx, DWORD PTR _pcountChildren$[ebp]
  00012	89 01		 mov	 DWORD PTR [ecx], eax

; 775  : 		return S_OK;

  00014	33 c0		 xor	 eax, eax

; 776  : 	}

  00016	8b e5		 mov	 esp, ebp
  00018	5d		 pop	 ebp
  00019	c2 04 00	 ret	 4
?get_accChildCount@CFormView@@UAEJPAJ@Z ENDP		; CFormView::get_accChildCount
_TEXT	ENDS
EXTRN	?GetAccessibleName@CWnd@@QAEJUtagVARIANT@@PAPA_W@Z:NEAR ; CWnd::GetAccessibleName
; Function compile flags: /Odt
;	COMDAT ?get_accName@CFormView@@UAEJUtagVARIANT@@PAPA_W@Z
_TEXT	SEGMENT
_this$ = -4						; size = 4
_varChild$ = 8						; size = 16
_pszName$ = 24						; size = 4
?get_accName@CFormView@@UAEJUtagVARIANT@@PAPA_W@Z PROC NEAR ; CFormView::get_accName, COMDAT
; _this$ = ecx

; 779  : 	{

  00000	55		 push	 ebp
  00001	8b ec		 mov	 ebp, esp
  00003	51		 push	 ecx
  00004	89 4d fc	 mov	 DWORD PTR _this$[ebp], ecx

; 780  : 		return GetAccessibleName(varChild, pszName);

  00007	8b 45 18	 mov	 eax, DWORD PTR _pszName$[ebp]
  0000a	50		 push	 eax
  0000b	83 ec 10	 sub	 esp, 16			; 00000010H
  0000e	8b cc		 mov	 ecx, esp
  00010	8b 55 08	 mov	 edx, DWORD PTR _varChild$[ebp]
  00013	89 11		 mov	 DWORD PTR [ecx], edx
  00015	8b 45 0c	 mov	 eax, DWORD PTR _varChild$[ebp+4]
  00018	89 41 04	 mov	 DWORD PTR [ecx+4], eax
  0001b	8b 55 10	 mov	 edx, DWORD PTR _varChild$[ebp+8]
  0001e	89 51 08	 mov	 DWORD PTR [ecx+8], edx
  00021	8b 45 14	 mov	 eax, DWORD PTR _varChild$[ebp+12]
  00024	89 41 0c	 mov	 DWORD PTR [ecx+12], eax
  00027	8b 4d fc	 mov	 ecx, DWORD PTR _this$[ebp]
  0002a	e8 00 00 00 00	 call	 ?GetAccessibleName@CWnd@@QAEJUtagVARIANT@@PAPA_W@Z ; CWnd::GetAccessibleName

; 781  : 	}

  0002f	8b e5		 mov	 esp, ebp
  00031	5d		 pop	 ebp
  00032	c2 14 00	 ret	 20			; 00000014H
?get_accName@CFormView@@UAEJUtagVARIANT@@PAPA_W@Z ENDP	; CFormView::get_accName
_TEXT	ENDS
EXTRN	?GetAccessibilityLocation@CWnd@@QAEJUtagVARIANT@@PAJ111@Z:NEAR ; CWnd::GetAccessibilityLocation
; Function compile flags: /Odt
;	COMDAT ?accLocation@CFormView@@UAEJPAJ000UtagVARIANT@@@Z
_TEXT	SEGMENT
_this$ = -4						; size = 4
_pxLeft$ = 8						; size = 4
_pyTop$ = 12						; size = 4
_pcxWidth$ = 16						; size = 4
_pcyHeight$ = 20					; size = 4
_varChild$ = 24						; size = 16
?accLocation@CFormView@@UAEJPAJ000UtagVARIANT@@@Z PROC NEAR ; CFormView::accLocation, COMDAT
; _this$ = ecx

; 784  : 	{

  00000	55		 push	 ebp
  00001	8b ec		 mov	 ebp, esp
  00003	51		 push	 ecx
  00004	89 4d fc	 mov	 DWORD PTR _this$[ebp], ecx

; 785  : 		return GetAccessibilityLocation(varChild, pxLeft, pyTop, pcxWidth, pcyHeight);

  00007	8b 45 14	 mov	 eax, DWORD PTR _pcyHeight$[ebp]
  0000a	50		 push	 eax
  0000b	8b 4d 10	 mov	 ecx, DWORD PTR _pcxWidth$[ebp]
  0000e	51		 push	 ecx
  0000f	8b 55 0c	 mov	 edx, DWORD PTR _pyTop$[ebp]
  00012	52		 push	 edx
  00013	8b 45 08	 mov	 eax, DWORD PTR _pxLeft$[ebp]
  00016	50		 push	 eax
  00017	83 ec 10	 sub	 esp, 16			; 00000010H
  0001a	8b cc		 mov	 ecx, esp
  0001c	8b 55 18	 mov	 edx, DWORD PTR _varChild$[ebp]
  0001f	89 11		 mov	 DWORD PTR [ecx], edx
  00021	8b 45 1c	 mov	 eax, DWORD PTR _varChild$[ebp+4]
  00024	89 41 04	 mov	 DWORD PTR [ecx+4], eax
  00027	8b 55 20	 mov	 edx, DWORD PTR _varChild$[ebp+8]
  0002a	89 51 08	 mov	 DWORD PTR [ecx+8], edx
  0002d	8b 45 24	 mov	 eax, DWORD PTR _varChild$[ebp+12]
  00030	89 41 0c	 mov	 DWORD PTR [ecx+12], eax
  00033	8b 4d fc	 mov	 ecx, DWORD PTR _this$[ebp]
  00036	e8 00 00 00 00	 call	 ?GetAccessibilityLocation@CWnd@@QAEJUtagVARIANT@@PAJ111@Z ; CWnd::GetAccessibilityLocation

; 786  : 	}

  0003b	8b e5		 mov	 esp, ebp
  0003d	5d		 pop	 ebp
  0003e	c2 20 00	 ret	 32			; 00000020H
?accLocation@CFormView@@UAEJPAJ000UtagVARIANT@@@Z ENDP	; CFormView::accLocation
_TEXT	ENDS
EXTRN	?GetAccessibilityHitTest@CWnd@@QAEJJJPAUtagVARIANT@@@Z:NEAR ; CWnd::GetAccessibilityHitTest
; Function compile flags: /Odt
;	COMDAT ?accHitTest@CFormView@@UAEJJJPAUtagVARIANT@@@Z
_TEXT	SEGMENT
_this$ = -4						; size = 4
_xLeft$ = 8						; size = 4
_yTop$ = 12						; size = 4
_pvarChild$ = 16					; size = 4
?accHitTest@CFormView@@UAEJJJPAUtagVARIANT@@@Z PROC NEAR ; CFormView::accHitTest, COMDAT
; _this$ = ecx

; 789  : 	{

  00000	55		 push	 ebp
  00001	8b ec		 mov	 ebp, esp
  00003	51		 push	 ecx
  00004	89 4d fc	 mov	 DWORD PTR _this$[ebp], ecx

; 790  : 		return GetAccessibilityHitTest(xLeft, yTop, pvarChild);

  00007	8b 45 10	 mov	 eax, DWORD PTR _pvarChild$[ebp]
  0000a	50		 push	 eax
  0000b	8b 4d 0c	 mov	 ecx, DWORD PTR _yTop$[ebp]
  0000e	51		 push	 ecx
  0000f	8b 55 08	 mov	 edx, DWORD PTR _xLeft$[ebp]
  00012	52		 push	 edx
  00013	8b 4d fc	 mov	 ecx, DWORD PTR _this$[ebp]
  00016	e8 00 00 00 00	 call	 ?GetAccessibilityHitTest@CWnd@@QAEJJJPAUtagVARIANT@@@Z ; CWnd::GetAccessibilityHitTest

; 791  : 	}

  0001b	8b e5		 mov	 esp, ebp
  0001d	5d		 pop	 ebp
  0001e	c2 0c 00	 ret	 12			; 0000000cH
?accHitTest@CFormView@@UAEJJJPAUtagVARIANT@@@Z ENDP	; CFormView::accHitTest
; Function compile flags: /Odt
; File d:\program files (x86)\microsoft visual studio .net 2003\vc7\atlmfc\include\atlcomcli.h
_TEXT	ENDS
;	COMDAT ?AtlComPtrAssign@ATL@@YGPAUIUnknown@@PAPAU2@PAU2@@Z
_TEXT	SEGMENT
_pp$ = 8						; size = 4
_lp$ = 12						; size = 4
?AtlComPtrAssign@ATL@@YGPAUIUnknown@@PAPAU2@PAU2@@Z PROC NEAR ; ATL::AtlComPtrAssign, COMDAT

; 45   : {

  00000	55		 push	 ebp
  00001	8b ec		 mov	 ebp, esp

; 46   : 	if (pp == NULL)

  00003	83 7d 08 00	 cmp	 DWORD PTR _pp$[ebp], 0
  00007	75 04		 jne	 SHORT $L88207

; 47   : 		return NULL;

  00009	33 c0		 xor	 eax, eax
  0000b	eb 35		 jmp	 SHORT $L88206
$L88207:

; 48   : 		
; 49   : 	if (lp != NULL)

  0000d	83 7d 0c 00	 cmp	 DWORD PTR _lp$[ebp], 0
  00011	74 0c		 je	 SHORT $L88208

; 50   : 		lp->AddRef();

  00013	8b 45 0c	 mov	 eax, DWORD PTR _lp$[ebp]
  00016	8b 08		 mov	 ecx, DWORD PTR [eax]
  00018	8b 55 0c	 mov	 edx, DWORD PTR _lp$[ebp]
  0001b	52		 push	 edx
  0001c	ff 51 04	 call	 DWORD PTR [ecx+4]
$L88208:

; 51   : 	if (*pp)

  0001f	8b 45 08	 mov	 eax, DWORD PTR _pp$[ebp]
  00022	83 38 00	 cmp	 DWORD PTR [eax], 0
  00025	74 10		 je	 SHORT $L88209

; 52   : 		(*pp)->Release();

  00027	8b 4d 08	 mov	 ecx, DWORD PTR _pp$[ebp]
  0002a	8b 11		 mov	 edx, DWORD PTR [ecx]
  0002c	8b 45 08	 mov	 eax, DWORD PTR _pp$[ebp]
  0002f	8b 08		 mov	 ecx, DWORD PTR [eax]
  00031	8b 12		 mov	 edx, DWORD PTR [edx]
  00033	51		 push	 ecx
  00034	ff 52 08	 call	 DWORD PTR [edx+8]
$L88209:

; 53   : 	*pp = lp;

  00037	8b 45 08	 mov	 eax, DWORD PTR _pp$[ebp]
  0003a	8b 4d 0c	 mov	 ecx, DWORD PTR _lp$[ebp]
  0003d	89 08		 mov	 DWORD PTR [eax], ecx

; 54   : 	return lp;

  0003f	8b 45 0c	 mov	 eax, DWORD PTR _lp$[ebp]
$L88206:

; 55   : }

  00042	5d		 pop	 ebp
  00043	c2 08 00	 ret	 8
?AtlComPtrAssign@ATL@@YGPAUIUnknown@@PAPAU2@PAU2@@Z ENDP ; ATL::AtlComPtrAssign
; Function compile flags: /Odt
; File d:\boxgit\playbox\playbox\dev\prj\playbox\src\core\imessageobserver.h
_TEXT	ENDS
;	COMDAT ??1IMessageObserver@@UAE@XZ
_TEXT	SEGMENT
_this$ = -4						; size = 4
??1IMessageObserver@@UAE@XZ PROC NEAR			; IMessageObserver::~IMessageObserver, COMDAT
; _this$ = ecx

; 16   : 	virtual ~IMessageObserver(){};

  00000	55		 push	 ebp
  00001	8b ec		 mov	 ebp, esp
  00003	51		 push	 ecx
  00004	89 4d fc	 mov	 DWORD PTR _this$[ebp], ecx
  00007	8b 45 fc	 mov	 eax, DWORD PTR _this$[ebp]
  0000a	c7 00 00 00 00
	00		 mov	 DWORD PTR [eax], OFFSET FLAT:??_7IMessageObserver@@6B@
  00010	8b e5		 mov	 esp, ebp
  00012	5d		 pop	 ebp
  00013	c3		 ret	 0
??1IMessageObserver@@UAE@XZ ENDP			; IMessageObserver::~IMessageObserver
; Function compile flags: /Odt
_TEXT	ENDS
;	COMDAT ??_GIMessageObserver@@UAEPAXI@Z
_TEXT	SEGMENT
_this$ = -4						; size = 4
___flags$ = 8						; size = 4
??_GIMessageObserver@@UAEPAXI@Z PROC NEAR		; IMessageObserver::`scalar deleting destructor', COMDAT
; _this$ = ecx
  00000	55		 push	 ebp
  00001	8b ec		 mov	 ebp, esp
  00003	51		 push	 ecx
  00004	89 4d fc	 mov	 DWORD PTR _this$[ebp], ecx
  00007	8b 4d fc	 mov	 ecx, DWORD PTR _this$[ebp]
  0000a	e8 00 00 00 00	 call	 ??1IMessageObserver@@UAE@XZ ; IMessageObserver::~IMessageObserver
  0000f	8b 45 08	 mov	 eax, DWORD PTR ___flags$[ebp]
  00012	83 e0 01	 and	 eax, 1
  00015	74 0c		 je	 SHORT $L109524
  00017	8b 4d fc	 mov	 ecx, DWORD PTR _this$[ebp]
  0001a	51		 push	 ecx
  0001b	e8 00 00 00 00	 call	 ??3@YAXPAX@Z		; operator delete
  00020	83 c4 04	 add	 esp, 4
$L109524:
  00023	8b 45 fc	 mov	 eax, DWORD PTR _this$[ebp]
  00026	8b e5		 mov	 esp, ebp
  00028	5d		 pop	 ebp
  00029	c2 04 00	 ret	 4
??_GIMessageObserver@@UAEPAXI@Z ENDP			; IMessageObserver::`scalar deleting destructor'
; Function compile flags: /Odt
_TEXT	ENDS
;	COMDAT ??0IUnknown@@QAE@XZ
_TEXT	SEGMENT
_this$ = -4						; size = 4
??0IUnknown@@QAE@XZ PROC NEAR				; IUnknown::IUnknown, COMDAT
; _this$ = ecx
  00000	55		 push	 ebp
  00001	8b ec		 mov	 ebp, esp
  00003	51		 push	 ecx
  00004	89 4d fc	 mov	 DWORD PTR _this$[ebp], ecx
  00007	8b 45 fc	 mov	 eax, DWORD PTR _this$[ebp]
  0000a	8b e5		 mov	 esp, ebp
  0000c	5d		 pop	 ebp
  0000d	c3		 ret	 0
??0IUnknown@@QAE@XZ ENDP				; IUnknown::IUnknown
_TEXT	ENDS
PUBLIC	??C?$CComPtrBase@UIWebBrowser2@@@ATL@@QBEPAV?$_NoAddRefReleaseOnCComPtr@UIWebBrowser2@@@1@XZ ; ATL::CComPtrBase<IWebBrowser2>::operator->
PUBLIC	??BCOleVariant@@QAEPAUtagVARIANT@@XZ		; COleVariant::operator tagVARIANT *
PUBLIC	??1COleVariant@@QAE@XZ				; COleVariant::~COleVariant
EXTRN	??0COleVariant@@QAE@JG@Z:NEAR			; COleVariant::COleVariant
;	COMDAT xdata$x
; File d:\program files (x86)\microsoft visual studio .net 2003\vc7\atlmfc\include\afxhtml.inl
xdata$x	SEGMENT
$T207978 DD	0ffffffffH
	DD	FLAT:$L207974
$T207976 DD	019930520H
	DD	01H
	DD	FLAT:$T207978
	DD	2 DUP(00H)
	DD	2 DUP(00H)
; Function compile flags: /Odt
xdata$x	ENDS
;	COMDAT ?Refresh2@CHtmlView@@QAEXH@Z
_TEXT	SEGMENT
tv69 = -44						; size = 4
tv82 = -40						; size = 4
tv83 = -36						; size = 4
_this$ = -32						; size = 4
$T207973 = -28						; size = 16
__$EHRec$ = -12						; size = 12
_nLevel$ = 8						; size = 4
?Refresh2@CHtmlView@@QAEXH@Z PROC NEAR			; CHtmlView::Refresh2, COMDAT
; _this$ = ecx

; 61   : 	{ ASSERT(m_pBrowserApp != NULL); m_pBrowserApp->Refresh2(COleVariant((long) nLevel, VT_I4)); }

  00000	55		 push	 ebp
  00001	8b ec		 mov	 ebp, esp
  00003	6a ff		 push	 -1
  00005	68 00 00 00 00	 push	 __ehhandler$?Refresh2@CHtmlView@@QAEXH@Z
  0000a	64 a1 00 00 00
	00		 mov	 eax, DWORD PTR fs:__except_list
  00010	50		 push	 eax
  00011	64 89 25 00 00
	00 00		 mov	 DWORD PTR fs:__except_list, esp
  00018	83 ec 20	 sub	 esp, 32			; 00000020H
  0001b	89 4d e0	 mov	 DWORD PTR _this$[ebp], ecx
  0001e	6a 03		 push	 3
  00020	8b 45 08	 mov	 eax, DWORD PTR _nLevel$[ebp]
  00023	50		 push	 eax
  00024	8d 4d e4	 lea	 ecx, DWORD PTR $T207973[ebp]
  00027	e8 00 00 00 00	 call	 ??0COleVariant@@QAE@JG@Z ; COleVariant::COleVariant
  0002c	89 45 dc	 mov	 DWORD PTR tv83[ebp], eax
  0002f	8b 4d dc	 mov	 ecx, DWORD PTR tv83[ebp]
  00032	89 4d d8	 mov	 DWORD PTR tv82[ebp], ecx
  00035	c7 45 fc 00 00
	00 00		 mov	 DWORD PTR __$EHRec$[ebp+8], 0
  0003c	8b 4d e0	 mov	 ecx, DWORD PTR _this$[ebp]
  0003f	81 c1 ec 00 00
	00		 add	 ecx, 236		; 000000ecH
  00045	e8 00 00 00 00	 call	 ??C?$CComPtrBase@UIWebBrowser2@@@ATL@@QBEPAV?$_NoAddRefReleaseOnCComPtr@UIWebBrowser2@@@1@XZ ; ATL::CComPtrBase<IWebBrowser2>::operator->
  0004a	89 45 d4	 mov	 DWORD PTR tv69[ebp], eax
  0004d	8b 4d d8	 mov	 ecx, DWORD PTR tv82[ebp]
  00050	e8 00 00 00 00	 call	 ??BCOleVariant@@QAEPAUtagVARIANT@@XZ ; COleVariant::operator tagVARIANT *
  00055	50		 push	 eax
  00056	8b 55 d4	 mov	 edx, DWORD PTR tv69[ebp]
  00059	52		 push	 edx
  0005a	8b 45 d4	 mov	 eax, DWORD PTR tv69[ebp]
  0005d	8b 08		 mov	 ecx, DWORD PTR [eax]
  0005f	ff 51 34	 call	 DWORD PTR [ecx+52]
  00062	c7 45 fc ff ff
	ff ff		 mov	 DWORD PTR __$EHRec$[ebp+8], -1
  00069	8d 4d e4	 lea	 ecx, DWORD PTR $T207973[ebp]
  0006c	e8 00 00 00 00	 call	 ??1COleVariant@@QAE@XZ	; COleVariant::~COleVariant
  00071	8b 4d f4	 mov	 ecx, DWORD PTR __$EHRec$[ebp]
  00074	64 89 0d 00 00
	00 00		 mov	 DWORD PTR fs:__except_list, ecx
  0007b	8b e5		 mov	 esp, ebp
  0007d	5d		 pop	 ebp
  0007e	c2 04 00	 ret	 4
_TEXT	ENDS
;	COMDAT text$x
text$x	SEGMENT
$L207974:
  00000	8d 4d e4	 lea	 ecx, DWORD PTR $T207973[ebp]
  00003	e9 00 00 00 00	 jmp	 ??1COleVariant@@QAE@XZ	; COleVariant::~COleVariant
__ehhandler$?Refresh2@CHtmlView@@QAEXH@Z:
  00008	b8 00 00 00 00	 mov	 eax, OFFSET FLAT:$T207976
  0000d	e9 00 00 00 00	 jmp	 ___CxxFrameHandler
text$x	ENDS
?Refresh2@CHtmlView@@QAEXH@Z ENDP			; CHtmlView::Refresh2
EXTRN	__imp__VariantClear@4:NEAR
; Function compile flags: /Odt
; File d:\program files (x86)\microsoft visual studio .net 2003\vc7\atlmfc\include\afxole.inl
;	COMDAT ??1COleVariant@@QAE@XZ
_TEXT	SEGMENT
_this$ = -4						; size = 4
??1COleVariant@@QAE@XZ PROC NEAR			; COleVariant::~COleVariant, COMDAT
; _this$ = ecx

; 95   : 	{ VERIFY(::VariantClear(this) == NOERROR); }

  00000	55		 push	 ebp
  00001	8b ec		 mov	 ebp, esp
  00003	51		 push	 ecx
  00004	89 4d fc	 mov	 DWORD PTR _this$[ebp], ecx
  00007	8b 45 fc	 mov	 eax, DWORD PTR _this$[ebp]
  0000a	50		 push	 eax
  0000b	ff 15 00 00 00
	00		 call	 DWORD PTR __imp__VariantClear@4
  00011	8b e5		 mov	 esp, ebp
  00013	5d		 pop	 ebp
  00014	c3		 ret	 0
??1COleVariant@@QAE@XZ ENDP				; COleVariant::~COleVariant
; Function compile flags: /Odt
_TEXT	ENDS
;	COMDAT ??BCOleVariant@@QAEPAUtagVARIANT@@XZ
_TEXT	SEGMENT
_this$ = -4						; size = 4
??BCOleVariant@@QAEPAUtagVARIANT@@XZ PROC NEAR		; COleVariant::operator tagVARIANT *, COMDAT
; _this$ = ecx

; 125  : 	{ return this; }

  00000	55		 push	 ebp
  00001	8b ec		 mov	 ebp, esp
  00003	51		 push	 ecx
  00004	89 4d fc	 mov	 DWORD PTR _this$[ebp], ecx
  00007	8b 45 fc	 mov	 eax, DWORD PTR _this$[ebp]
  0000a	8b e5		 mov	 esp, ebp
  0000c	5d		 pop	 ebp
  0000d	c3		 ret	 0
??BCOleVariant@@QAEPAUtagVARIANT@@XZ ENDP		; COleVariant::operator tagVARIANT *
; Function compile flags: /Odt
; File d:\program files (x86)\microsoft visual studio .net 2003\vc7\atlmfc\include\atlalloc.h
_TEXT	ENDS
;	COMDAT ??0?$CAtlSafeAllocBufferManager@VCCRTAllocator@ATL@@@_ATL_SAFE_ALLOCA_IMPL@ATL@@QAE@XZ
_TEXT	SEGMENT
_this$ = -4						; size = 4
??0?$CAtlSafeAllocBufferManager@VCCRTAllocator@ATL@@@_ATL_SAFE_ALLOCA_IMPL@ATL@@QAE@XZ PROC NEAR ; ATL::_ATL_SAFE_ALLOCA_IMPL::CAtlSafeAllocBufferManager<ATL::CCRTAllocator>::CAtlSafeAllocBufferManager<ATL::CCRTAllocator>, COMDAT
; _this$ = ecx

; 373  : 	CAtlSafeAllocBufferManager() : m_pHead(NULL) {};

  00000	55		 push	 ebp
  00001	8b ec		 mov	 ebp, esp
  00003	51		 push	 ecx
  00004	89 4d fc	 mov	 DWORD PTR _this$[ebp], ecx
  00007	8b 45 fc	 mov	 eax, DWORD PTR _this$[ebp]
  0000a	c7 00 00 00 00
	00		 mov	 DWORD PTR [eax], 0
  00010	8b 45 fc	 mov	 eax, DWORD PTR _this$[ebp]
  00013	8b e5		 mov	 esp, ebp
  00015	5d		 pop	 ebp
  00016	c3		 ret	 0
??0?$CAtlSafeAllocBufferManager@VCCRTAllocator@ATL@@@_ATL_SAFE_ALLOCA_IMPL@ATL@@QAE@XZ ENDP ; ATL::_ATL_SAFE_ALLOCA_IMPL::CAtlSafeAllocBufferManager<ATL::CCRTAllocator>::CAtlSafeAllocBufferManager<ATL::CCRTAllocator>
_TEXT	ENDS
PUBLIC	?GetData@CAtlSafeAllocBufferNode@?$CAtlSafeAllocBufferManager@VCCRTAllocator@ATL@@@_ATL_SAFE_ALLOCA_IMPL@ATL@@QAEPAXXZ ; ATL::_ATL_SAFE_ALLOCA_IMPL::CAtlSafeAllocBufferManager<ATL::CCRTAllocator>::CAtlSafeAllocBufferNode::GetData
PUBLIC	?Allocate@CCRTAllocator@ATL@@SAPAXI@Z		; ATL::CCRTAllocator::Allocate
; Function compile flags: /Odt
;	COMDAT ?Allocate@?$CAtlSafeAllocBufferManager@VCCRTAllocator@ATL@@@_ATL_SAFE_ALLOCA_IMPL@ATL@@QAEPAXK@Z
_TEXT	SEGMENT
_this$ = -8						; size = 4
_p$ = -4						; size = 4
_nRequestedSize$ = 8					; size = 4
?Allocate@?$CAtlSafeAllocBufferManager@VCCRTAllocator@ATL@@@_ATL_SAFE_ALLOCA_IMPL@ATL@@QAEPAXK@Z PROC NEAR ; ATL::_ATL_SAFE_ALLOCA_IMPL::CAtlSafeAllocBufferManager<ATL::CCRTAllocator>::Allocate, COMDAT
; _this$ = ecx

; 375  : 	{

  00000	55		 push	 ebp
  00001	8b ec		 mov	 ebp, esp
  00003	83 ec 08	 sub	 esp, 8
  00006	89 4d f8	 mov	 DWORD PTR _this$[ebp], ecx

; 376  : 		CAtlSafeAllocBufferNode *p = (CAtlSafeAllocBufferNode*)Allocator::Allocate(nRequestedSize + sizeof(CAtlSafeAllocBufferNode));

  00009	8b 45 08	 mov	 eax, DWORD PTR _nRequestedSize$[ebp]
  0000c	83 c0 08	 add	 eax, 8
  0000f	50		 push	 eax
  00010	e8 00 00 00 00	 call	 ?Allocate@CCRTAllocator@ATL@@SAPAXI@Z ; ATL::CCRTAllocator::Allocate
  00015	83 c4 04	 add	 esp, 4
  00018	89 45 fc	 mov	 DWORD PTR _p$[ebp], eax

; 377  : 		if (p == NULL)

  0001b	83 7d fc 00	 cmp	 DWORD PTR _p$[ebp], 0
  0001f	75 04		 jne	 SHORT $L191833

; 378  : 			return NULL;

  00021	33 c0		 xor	 eax, eax
  00023	eb 1a		 jmp	 SHORT $L191820
$L191833:

; 379  : 		
; 380  : 		// Add buffer to the list
; 381  : 		p->m_pNext = m_pHead;

  00025	8b 4d fc	 mov	 ecx, DWORD PTR _p$[ebp]
  00028	8b 55 f8	 mov	 edx, DWORD PTR _this$[ebp]
  0002b	8b 02		 mov	 eax, DWORD PTR [edx]
  0002d	89 01		 mov	 DWORD PTR [ecx], eax

; 382  : 		m_pHead = p;

  0002f	8b 4d f8	 mov	 ecx, DWORD PTR _this$[ebp]
  00032	8b 55 fc	 mov	 edx, DWORD PTR _p$[ebp]
  00035	89 11		 mov	 DWORD PTR [ecx], edx

; 383  : 		
; 384  : 		return p->GetData();

  00037	8b 4d fc	 mov	 ecx, DWORD PTR _p$[ebp]
  0003a	e8 00 00 00 00	 call	 ?GetData@CAtlSafeAllocBufferNode@?$CAtlSafeAllocBufferManager@VCCRTAllocator@ATL@@@_ATL_SAFE_ALLOCA_IMPL@ATL@@QAEPAXXZ ; ATL::_ATL_SAFE_ALLOCA_IMPL::CAtlSafeAllocBufferManager<ATL::CCRTAllocator>::CAtlSafeAllocBufferNode::GetData
$L191820:

; 385  : 	}

  0003f	8b e5		 mov	 esp, ebp
  00041	5d		 pop	 ebp
  00042	c2 04 00	 ret	 4
?Allocate@?$CAtlSafeAllocBufferManager@VCCRTAllocator@ATL@@@_ATL_SAFE_ALLOCA_IMPL@ATL@@QAEPAXK@Z ENDP ; ATL::_ATL_SAFE_ALLOCA_IMPL::CAtlSafeAllocBufferManager<ATL::CCRTAllocator>::Allocate
_TEXT	ENDS
EXTRN	__imp__malloc:NEAR
; Function compile flags: /Odt
;	COMDAT ?Allocate@CCRTAllocator@ATL@@SAPAXI@Z
_TEXT	SEGMENT
_nBytes$ = 8						; size = 4
?Allocate@CCRTAllocator@ATL@@SAPAXI@Z PROC NEAR		; ATL::CCRTAllocator::Allocate, COMDAT

; 30   : 	{

  00000	55		 push	 ebp
  00001	8b ec		 mov	 ebp, esp

; 31   : 		return malloc(nBytes);

  00003	8b 45 08	 mov	 eax, DWORD PTR _nBytes$[ebp]
  00006	50		 push	 eax
  00007	ff 15 00 00 00
	00		 call	 DWORD PTR __imp__malloc
  0000d	83 c4 04	 add	 esp, 4

; 32   : 	}

  00010	5d		 pop	 ebp
  00011	c3		 ret	 0
?Allocate@CCRTAllocator@ATL@@SAPAXI@Z ENDP		; ATL::CCRTAllocator::Allocate
_TEXT	ENDS
PUBLIC	?Free@CCRTAllocator@ATL@@SAXPAX@Z		; ATL::CCRTAllocator::Free
; Function compile flags: /Odt
;	COMDAT ??1?$CAtlSafeAllocBufferManager@VCCRTAllocator@ATL@@@_ATL_SAFE_ALLOCA_IMPL@ATL@@QAE@XZ
_TEXT	SEGMENT
_this$ = -8						; size = 4
_p$191839 = -4						; size = 4
??1?$CAtlSafeAllocBufferManager@VCCRTAllocator@ATL@@@_ATL_SAFE_ALLOCA_IMPL@ATL@@QAE@XZ PROC NEAR ; ATL::_ATL_SAFE_ALLOCA_IMPL::CAtlSafeAllocBufferManager<ATL::CCRTAllocator>::~CAtlSafeAllocBufferManager<ATL::CCRTAllocator>, COMDAT
; _this$ = ecx

; 387  : 	{

  00000	55		 push	 ebp
  00001	8b ec		 mov	 ebp, esp
  00003	83 ec 08	 sub	 esp, 8
  00006	89 4d f8	 mov	 DWORD PTR _this$[ebp], ecx
$L191837:

; 388  : 		// Walk the list and free the buffers
; 389  : 		while (m_pHead != NULL)

  00009	8b 45 f8	 mov	 eax, DWORD PTR _this$[ebp]
  0000c	83 38 00	 cmp	 DWORD PTR [eax], 0
  0000f	74 22		 je	 SHORT $L191835

; 390  : 		{
; 391  : 			CAtlSafeAllocBufferNode* p = m_pHead;

  00011	8b 4d f8	 mov	 ecx, DWORD PTR _this$[ebp]
  00014	8b 11		 mov	 edx, DWORD PTR [ecx]
  00016	89 55 fc	 mov	 DWORD PTR _p$191839[ebp], edx

; 392  : 			m_pHead = m_pHead->m_pNext;

  00019	8b 45 f8	 mov	 eax, DWORD PTR _this$[ebp]
  0001c	8b 08		 mov	 ecx, DWORD PTR [eax]
  0001e	8b 55 f8	 mov	 edx, DWORD PTR _this$[ebp]
  00021	8b 01		 mov	 eax, DWORD PTR [ecx]
  00023	89 02		 mov	 DWORD PTR [edx], eax

; 393  : 			Allocator::Free(p);

  00025	8b 4d fc	 mov	 ecx, DWORD PTR _p$191839[ebp]
  00028	51		 push	 ecx
  00029	e8 00 00 00 00	 call	 ?Free@CCRTAllocator@ATL@@SAXPAX@Z ; ATL::CCRTAllocator::Free
  0002e	83 c4 04	 add	 esp, 4

; 394  : 		}

  00031	eb d6		 jmp	 SHORT $L191837
$L191835:

; 395  : 	}

  00033	8b e5		 mov	 esp, ebp
  00035	5d		 pop	 ebp
  00036	c3		 ret	 0
??1?$CAtlSafeAllocBufferManager@VCCRTAllocator@ATL@@@_ATL_SAFE_ALLOCA_IMPL@ATL@@QAE@XZ ENDP ; ATL::_ATL_SAFE_ALLOCA_IMPL::CAtlSafeAllocBufferManager<ATL::CCRTAllocator>::~CAtlSafeAllocBufferManager<ATL::CCRTAllocator>
_TEXT	ENDS
EXTRN	__imp__free:NEAR
; Function compile flags: /Odt
;	COMDAT ?Free@CCRTAllocator@ATL@@SAXPAX@Z
_TEXT	SEGMENT
_p$ = 8							; size = 4
?Free@CCRTAllocator@ATL@@SAXPAX@Z PROC NEAR		; ATL::CCRTAllocator::Free, COMDAT

; 35   : 	{

  00000	55		 push	 ebp
  00001	8b ec		 mov	 ebp, esp

; 36   : 		free(p);

  00003	8b 45 08	 mov	 eax, DWORD PTR _p$[ebp]
  00006	50		 push	 eax
  00007	ff 15 00 00 00
	00		 call	 DWORD PTR __imp__free
  0000d	83 c4 04	 add	 esp, 4

; 37   : 	}

  00010	5d		 pop	 ebp
  00011	c3		 ret	 0
?Free@CCRTAllocator@ATL@@SAXPAX@Z ENDP			; ATL::CCRTAllocator::Free
; Function compile flags: /Odt
_TEXT	ENDS
;	COMDAT ??0?$CTempBuffer@D$0IA@VCCRTAllocator@ATL@@@ATL@@QAE@XZ
_TEXT	SEGMENT
_this$ = -4						; size = 4
??0?$CTempBuffer@D$0IA@VCCRTAllocator@ATL@@@ATL@@QAE@XZ PROC NEAR ; ATL::CTempBuffer<char,128,ATL::CCRTAllocator>::CTempBuffer<char,128,ATL::CCRTAllocator>, COMDAT
; _this$ = ecx

; 216  : 	{

  00000	55		 push	 ebp
  00001	8b ec		 mov	 ebp, esp
  00003	51		 push	 ecx
  00004	89 4d fc	 mov	 DWORD PTR _this$[ebp], ecx
  00007	8b 45 fc	 mov	 eax, DWORD PTR _this$[ebp]
  0000a	c7 00 00 00 00
	00		 mov	 DWORD PTR [eax], 0

; 217  : 	}

  00010	8b 45 fc	 mov	 eax, DWORD PTR _this$[ebp]
  00013	8b e5		 mov	 esp, ebp
  00015	5d		 pop	 ebp
  00016	c3		 ret	 0
??0?$CTempBuffer@D$0IA@VCCRTAllocator@ATL@@@ATL@@QAE@XZ ENDP ; ATL::CTempBuffer<char,128,ATL::CCRTAllocator>::CTempBuffer<char,128,ATL::CCRTAllocator>
_TEXT	ENDS
PUBLIC	?FreeHeap@?$CTempBuffer@D$0IA@VCCRTAllocator@ATL@@@ATL@@AAEXXZ ; ATL::CTempBuffer<char,128,ATL::CCRTAllocator>::FreeHeap
; Function compile flags: /Odt
;	COMDAT ??1?$CTempBuffer@D$0IA@VCCRTAllocator@ATL@@@ATL@@QAE@XZ
_TEXT	SEGMENT
_this$ = -4						; size = 4
??1?$CTempBuffer@D$0IA@VCCRTAllocator@ATL@@@ATL@@QAE@XZ PROC NEAR ; ATL::CTempBuffer<char,128,ATL::CCRTAllocator>::~CTempBuffer<char,128,ATL::CCRTAllocator>, COMDAT
; _this$ = ecx

; 225  : 	{

  00000	55		 push	 ebp
  00001	8b ec		 mov	 ebp, esp
  00003	51		 push	 ecx
  00004	89 4d fc	 mov	 DWORD PTR _this$[ebp], ecx

; 226  : 		if( m_p != reinterpret_cast< T* >( m_abFixedBuffer ) )

  00007	8b 45 fc	 mov	 eax, DWORD PTR _this$[ebp]
  0000a	83 c0 04	 add	 eax, 4
  0000d	8b 4d fc	 mov	 ecx, DWORD PTR _this$[ebp]
  00010	39 01		 cmp	 DWORD PTR [ecx], eax
  00012	74 08		 je	 SHORT $L191843

; 227  : 		{
; 228  : 			FreeHeap();

  00014	8b 4d fc	 mov	 ecx, DWORD PTR _this$[ebp]
  00017	e8 00 00 00 00	 call	 ?FreeHeap@?$CTempBuffer@D$0IA@VCCRTAllocator@ATL@@@ATL@@AAEXXZ ; ATL::CTempBuffer<char,128,ATL::CCRTAllocator>::FreeHeap
$L191843:

; 229  : 		}
; 230  : 	}

  0001c	8b e5		 mov	 esp, ebp
  0001e	5d		 pop	 ebp
  0001f	c3		 ret	 0
??1?$CTempBuffer@D$0IA@VCCRTAllocator@ATL@@@ATL@@QAE@XZ ENDP ; ATL::CTempBuffer<char,128,ATL::CCRTAllocator>::~CTempBuffer<char,128,ATL::CCRTAllocator>
; Function compile flags: /Odt
_TEXT	ENDS
;	COMDAT ??B?$CTempBuffer@D$0IA@VCCRTAllocator@ATL@@@ATL@@QBEPADXZ
_TEXT	SEGMENT
_this$ = -4						; size = 4
??B?$CTempBuffer@D$0IA@VCCRTAllocator@ATL@@@ATL@@QBEPADXZ PROC NEAR ; ATL::CTempBuffer<char,128,ATL::CCRTAllocator>::operator char *, COMDAT
; _this$ = ecx

; 233  : 	{

  00000	55		 push	 ebp
  00001	8b ec		 mov	 ebp, esp
  00003	51		 push	 ecx
  00004	89 4d fc	 mov	 DWORD PTR _this$[ebp], ecx

; 234  : 		return( m_p );

  00007	8b 45 fc	 mov	 eax, DWORD PTR _this$[ebp]
  0000a	8b 00		 mov	 eax, DWORD PTR [eax]

; 235  : 	}

  0000c	8b e5		 mov	 esp, ebp
  0000e	5d		 pop	 ebp
  0000f	c3		 ret	 0
??B?$CTempBuffer@D$0IA@VCCRTAllocator@ATL@@@ATL@@QBEPADXZ ENDP ; ATL::CTempBuffer<char,128,ATL::CCRTAllocator>::operator char *
_TEXT	ENDS
PUBLIC	?AllocateBytes@?$CTempBuffer@D$0IA@VCCRTAllocator@ATL@@@ATL@@QAEPADI@Z ; ATL::CTempBuffer<char,128,ATL::CCRTAllocator>::AllocateBytes
; Function compile flags: /Odt
;	COMDAT ?Allocate@?$CTempBuffer@D$0IA@VCCRTAllocator@ATL@@@ATL@@QAEPADI@Z
_TEXT	SEGMENT
_this$ = -4						; size = 4
_nElements$ = 8						; size = 4
?Allocate@?$CTempBuffer@D$0IA@VCCRTAllocator@ATL@@@ATL@@QAEPADI@Z PROC NEAR ; ATL::CTempBuffer<char,128,ATL::CCRTAllocator>::Allocate, COMDAT
; _this$ = ecx

; 243  : 	{

  00000	55		 push	 ebp
  00001	8b ec		 mov	 ebp, esp
  00003	51		 push	 ecx
  00004	89 4d fc	 mov	 DWORD PTR _this$[ebp], ecx

; 244  : 		return( AllocateBytes( nElements*sizeof( T ) ) );

  00007	8b 45 08	 mov	 eax, DWORD PTR _nElements$[ebp]
  0000a	50		 push	 eax
  0000b	8b 4d fc	 mov	 ecx, DWORD PTR _this$[ebp]
  0000e	e8 00 00 00 00	 call	 ?AllocateBytes@?$CTempBuffer@D$0IA@VCCRTAllocator@ATL@@@ATL@@QAEPADI@Z ; ATL::CTempBuffer<char,128,ATL::CCRTAllocator>::AllocateBytes

; 245  : 	}

  00013	8b e5		 mov	 esp, ebp
  00015	5d		 pop	 ebp
  00016	c2 04 00	 ret	 4
?Allocate@?$CTempBuffer@D$0IA@VCCRTAllocator@ATL@@@ATL@@QAEPADI@Z ENDP ; ATL::CTempBuffer<char,128,ATL::CCRTAllocator>::Allocate
_TEXT	ENDS
PUBLIC	?Init@?$CW2AEX@$0IA@@ATL@@AAEXPB_WI@Z		; ATL::CW2AEX<128>::Init
; Function compile flags: /Odt
; File d:\program files (x86)\microsoft visual studio .net 2003\vc7\atlmfc\include\atlconv.h
;	COMDAT ??0?$CW2AEX@$0IA@@ATL@@QAE@PB_W@Z
_TEXT	SEGMENT
_this$ = -4						; size = 4
_psz$ = 8						; size = 4
??0?$CW2AEX@$0IA@@ATL@@QAE@PB_W@Z PROC NEAR		; ATL::CW2AEX<128>::CW2AEX<128>, COMDAT
; _this$ = ecx

; 419  : 	{

  00000	55		 push	 ebp
  00001	8b ec		 mov	 ebp, esp
  00003	51		 push	 ecx
  00004	89 4d fc	 mov	 DWORD PTR _this$[ebp], ecx
  00007	8b 45 fc	 mov	 eax, DWORD PTR _this$[ebp]
  0000a	83 c0 04	 add	 eax, 4
  0000d	8b 4d fc	 mov	 ecx, DWORD PTR _this$[ebp]
  00010	89 01		 mov	 DWORD PTR [ecx], eax

; 420  : 		Init( psz, _AtlGetConversionACP() );

  00012	e8 00 00 00 00	 call	 ?_AtlGetConversionACP@ATL@@YGIXZ ; ATL::_AtlGetConversionACP
  00017	50		 push	 eax
  00018	8b 55 08	 mov	 edx, DWORD PTR _psz$[ebp]
  0001b	52		 push	 edx
  0001c	8b 4d fc	 mov	 ecx, DWORD PTR _this$[ebp]
  0001f	e8 00 00 00 00	 call	 ?Init@?$CW2AEX@$0IA@@ATL@@AAEXPB_WI@Z ; ATL::CW2AEX<128>::Init

; 421  : 	}

  00024	8b 45 fc	 mov	 eax, DWORD PTR _this$[ebp]
  00027	8b e5		 mov	 esp, ebp
  00029	5d		 pop	 ebp
  0002a	c2 04 00	 ret	 4
??0?$CW2AEX@$0IA@@ATL@@QAE@PB_W@Z ENDP			; ATL::CW2AEX<128>::CW2AEX<128>
; Function compile flags: /Odt
_TEXT	ENDS
;	COMDAT ??1?$CW2AEX@$0IA@@ATL@@QAE@XZ
_TEXT	SEGMENT
_this$ = -4						; size = 4
??1?$CW2AEX@$0IA@@ATL@@QAE@XZ PROC NEAR			; ATL::CW2AEX<128>::~CW2AEX<128>, COMDAT
; _this$ = ecx

; 428  : 	{

  00000	55		 push	 ebp
  00001	8b ec		 mov	 ebp, esp
  00003	51		 push	 ecx
  00004	89 4d fc	 mov	 DWORD PTR _this$[ebp], ecx

; 429  : 		if( m_psz != m_szBuffer )

  00007	8b 45 fc	 mov	 eax, DWORD PTR _this$[ebp]
  0000a	83 c0 04	 add	 eax, 4
  0000d	8b 4d fc	 mov	 ecx, DWORD PTR _this$[ebp]
  00010	39 01		 cmp	 DWORD PTR [ecx], eax
  00012	74 0f		 je	 SHORT $L191854

; 430  : 		{
; 431  : 			free( m_psz );

  00014	8b 55 fc	 mov	 edx, DWORD PTR _this$[ebp]
  00017	8b 02		 mov	 eax, DWORD PTR [edx]
  00019	50		 push	 eax
  0001a	ff 15 00 00 00
	00		 call	 DWORD PTR __imp__free
  00020	83 c4 04	 add	 esp, 4
$L191854:

; 432  : 		}
; 433  : 	}

  00023	8b e5		 mov	 esp, ebp
  00025	5d		 pop	 ebp
  00026	c3		 ret	 0
??1?$CW2AEX@$0IA@@ATL@@QAE@XZ ENDP			; ATL::CW2AEX<128>::~CW2AEX<128>
; Function compile flags: /Odt
_TEXT	ENDS
;	COMDAT ??B?$CW2AEX@$0IA@@ATL@@QBEPADXZ
_TEXT	SEGMENT
_this$ = -4						; size = 4
??B?$CW2AEX@$0IA@@ATL@@QBEPADXZ PROC NEAR		; ATL::CW2AEX<128>::operator char *, COMDAT
; _this$ = ecx

; 436  : 	{

  00000	55		 push	 ebp
  00001	8b ec		 mov	 ebp, esp
  00003	51		 push	 ecx
  00004	89 4d fc	 mov	 DWORD PTR _this$[ebp], ecx

; 437  : 		return( m_psz );

  00007	8b 45 fc	 mov	 eax, DWORD PTR _this$[ebp]
  0000a	8b 00		 mov	 eax, DWORD PTR [eax]

; 438  : 	}

  0000c	8b e5		 mov	 esp, ebp
  0000e	5d		 pop	 ebp
  0000f	c3		 ret	 0
??B?$CW2AEX@$0IA@@ATL@@QBEPADXZ ENDP			; ATL::CW2AEX<128>::operator char *
; Function compile flags: /Odt
; File d:\program files (x86)\microsoft visual studio .net 2003\vc7\atlmfc\include\atlcomcli.h
_TEXT	ENDS
;	COMDAT ??C?$CComPtrBase@UIWebBrowser2@@@ATL@@QBEPAV?$_NoAddRefReleaseOnCComPtr@UIWebBrowser2@@@1@XZ
_TEXT	SEGMENT
_this$ = -4						; size = 4
??C?$CComPtrBase@UIWebBrowser2@@@ATL@@QBEPAV?$_NoAddRefReleaseOnCComPtr@UIWebBrowser2@@@1@XZ PROC NEAR ; ATL::CComPtrBase<IWebBrowser2>::operator->, COMDAT
; _this$ = ecx

; 147  : 	{

  00000	55		 push	 ebp
  00001	8b ec		 mov	 ebp, esp
  00003	51		 push	 ecx
  00004	89 4d fc	 mov	 DWORD PTR _this$[ebp], ecx

; 148  : 		ATLASSERT(p!=NULL);
; 149  : 		return (_NoAddRefReleaseOnCComPtr<T>*)p;

  00007	8b 45 fc	 mov	 eax, DWORD PTR _this$[ebp]
  0000a	8b 00		 mov	 eax, DWORD PTR [eax]

; 150  : 	}

  0000c	8b e5		 mov	 esp, ebp
  0000e	5d		 pop	 ebp
  0000f	c3		 ret	 0
??C?$CComPtrBase@UIWebBrowser2@@@ATL@@QBEPAV?$_NoAddRefReleaseOnCComPtr@UIWebBrowser2@@@1@XZ ENDP ; ATL::CComPtrBase<IWebBrowser2>::operator->
_TEXT	ENDS
PUBLIC	?AllocateHeap@?$CTempBuffer@D$0IA@VCCRTAllocator@ATL@@@ATL@@AAEXI@Z ; ATL::CTempBuffer<char,128,ATL::CCRTAllocator>::AllocateHeap
; Function compile flags: /Odt
; File d:\program files (x86)\microsoft visual studio .net 2003\vc7\atlmfc\include\atlalloc.h
;	COMDAT ?AllocateBytes@?$CTempBuffer@D$0IA@VCCRTAllocator@ATL@@@ATL@@QAEPADI@Z
_TEXT	SEGMENT
_this$ = -4						; size = 4
_nBytes$ = 8						; size = 4
?AllocateBytes@?$CTempBuffer@D$0IA@VCCRTAllocator@ATL@@@ATL@@QAEPADI@Z PROC NEAR ; ATL::CTempBuffer<char,128,ATL::CCRTAllocator>::AllocateBytes, COMDAT
; _this$ = ecx

; 276  : 	{

  00000	55		 push	 ebp
  00001	8b ec		 mov	 ebp, esp
  00003	51		 push	 ecx
  00004	89 4d fc	 mov	 DWORD PTR _this$[ebp], ecx

; 277  : 		ATLASSERT( m_p == NULL );
; 278  : 		if( nBytes > t_nFixedBytes )

  00007	81 7d 08 80 00
	00 00		 cmp	 DWORD PTR _nBytes$[ebp], 128 ; 00000080H
  0000e	76 0e		 jbe	 SHORT $L193612

; 279  : 		{
; 280  : 			AllocateHeap( nBytes );

  00010	8b 45 08	 mov	 eax, DWORD PTR _nBytes$[ebp]
  00013	50		 push	 eax
  00014	8b 4d fc	 mov	 ecx, DWORD PTR _this$[ebp]
  00017	e8 00 00 00 00	 call	 ?AllocateHeap@?$CTempBuffer@D$0IA@VCCRTAllocator@ATL@@@ATL@@AAEXI@Z ; ATL::CTempBuffer<char,128,ATL::CCRTAllocator>::AllocateHeap

; 281  : 		}
; 282  : 		else

  0001c	eb 0b		 jmp	 SHORT $L193613
$L193612:

; 283  : 		{
; 284  : 			m_p = reinterpret_cast< T* >( m_abFixedBuffer );

  0001e	8b 4d fc	 mov	 ecx, DWORD PTR _this$[ebp]
  00021	83 c1 04	 add	 ecx, 4
  00024	8b 55 fc	 mov	 edx, DWORD PTR _this$[ebp]
  00027	89 0a		 mov	 DWORD PTR [edx], ecx
$L193613:

; 285  : 		}
; 286  : 
; 287  : 		return( m_p );

  00029	8b 45 fc	 mov	 eax, DWORD PTR _this$[ebp]
  0002c	8b 00		 mov	 eax, DWORD PTR [eax]

; 288  : 	}

  0002e	8b e5		 mov	 esp, ebp
  00030	5d		 pop	 ebp
  00031	c2 04 00	 ret	 4
?AllocateBytes@?$CTempBuffer@D$0IA@VCCRTAllocator@ATL@@@ATL@@QAEPADI@Z ENDP ; ATL::CTempBuffer<char,128,ATL::CCRTAllocator>::AllocateBytes
; Function compile flags: /Odt
_TEXT	ENDS
;	COMDAT ?FreeHeap@?$CTempBuffer@D$0IA@VCCRTAllocator@ATL@@@ATL@@AAEXXZ
_TEXT	SEGMENT
_this$ = -4						; size = 4
?FreeHeap@?$CTempBuffer@D$0IA@VCCRTAllocator@ATL@@@ATL@@AAEXXZ PROC NEAR ; ATL::CTempBuffer<char,128,ATL::CCRTAllocator>::FreeHeap, COMDAT
; _this$ = ecx

; 312  : 	{

  00000	55		 push	 ebp
  00001	8b ec		 mov	 ebp, esp
  00003	51		 push	 ecx
  00004	89 4d fc	 mov	 DWORD PTR _this$[ebp], ecx

; 313  : 		Allocator::Free( m_p );

  00007	8b 45 fc	 mov	 eax, DWORD PTR _this$[ebp]
  0000a	8b 08		 mov	 ecx, DWORD PTR [eax]
  0000c	51		 push	 ecx
  0000d	e8 00 00 00 00	 call	 ?Free@CCRTAllocator@ATL@@SAXPAX@Z ; ATL::CCRTAllocator::Free
  00012	83 c4 04	 add	 esp, 4

; 314  : 	}

  00015	8b e5		 mov	 esp, ebp
  00017	5d		 pop	 ebp
  00018	c3		 ret	 0
?FreeHeap@?$CTempBuffer@D$0IA@VCCRTAllocator@ATL@@@ATL@@AAEXXZ ENDP ; ATL::CTempBuffer<char,128,ATL::CCRTAllocator>::FreeHeap
_TEXT	ENDS
PUBLIC	?AtlThrowLastWin32@ATL@@YGXXZ			; ATL::AtlThrowLastWin32
; Function compile flags: /Odt
; File d:\program files (x86)\microsoft visual studio .net 2003\vc7\atlmfc\include\atlconv.h
;	COMDAT ?Init@?$CW2AEX@$0IA@@ATL@@AAEXPB_WI@Z
_TEXT	SEGMENT
_this$ = -12						; size = 4
_nLengthW$ = -8						; size = 4
_nLengthA$ = -4						; size = 4
_psz$ = 8						; size = 4
_nCodePage$ = 12					; size = 4
?Init@?$CW2AEX@$0IA@@ATL@@AAEXPB_WI@Z PROC NEAR		; ATL::CW2AEX<128>::Init, COMDAT
; _this$ = ecx

; 442  : 	{

  00000	55		 push	 ebp
  00001	8b ec		 mov	 ebp, esp
  00003	83 ec 0c	 sub	 esp, 12			; 0000000cH
  00006	89 4d f4	 mov	 DWORD PTR _this$[ebp], ecx

; 443  : 		if (psz == NULL)

  00009	83 7d 08 00	 cmp	 DWORD PTR _psz$[ebp], 0
  0000d	75 0b		 jne	 SHORT $L193619

; 444  : 		{
; 445  : 			m_psz = NULL;

  0000f	8b 45 f4	 mov	 eax, DWORD PTR _this$[ebp]
  00012	c7 00 00 00 00
	00		 mov	 DWORD PTR [eax], 0

; 446  : 			return;

  00018	eb 70		 jmp	 SHORT $L208016
$L193619:

; 447  : 		}
; 448  : 		int nLengthW = lstrlenW( psz )+1;

  0001a	8b 4d 08	 mov	 ecx, DWORD PTR _psz$[ebp]
  0001d	51		 push	 ecx
  0001e	ff 15 00 00 00
	00		 call	 DWORD PTR __imp__lstrlenW@4
  00024	83 c0 01	 add	 eax, 1
  00027	89 45 f8	 mov	 DWORD PTR _nLengthW$[ebp], eax

; 449  : 		int nLengthA = nLengthW*2;

  0002a	8b 55 f8	 mov	 edx, DWORD PTR _nLengthW$[ebp]
  0002d	d1 e2		 shl	 edx, 1
  0002f	89 55 fc	 mov	 DWORD PTR _nLengthA$[ebp], edx

; 450  : 
; 451  : 		if( nLengthA > t_nBufferLength )

  00032	81 7d fc 80 00
	00 00		 cmp	 DWORD PTR _nLengthA$[ebp], 128 ; 00000080H
  00039	7e 24		 jle	 SHORT $L193622

; 452  : 		{
; 453  : 			m_psz = static_cast< LPSTR >( malloc( nLengthA*sizeof( char ) ) );

  0003b	8b 45 fc	 mov	 eax, DWORD PTR _nLengthA$[ebp]
  0003e	50		 push	 eax
  0003f	ff 15 00 00 00
	00		 call	 DWORD PTR __imp__malloc
  00045	83 c4 04	 add	 esp, 4
  00048	8b 4d f4	 mov	 ecx, DWORD PTR _this$[ebp]
  0004b	89 01		 mov	 DWORD PTR [ecx], eax

; 454  : 			if (m_psz == NULL)

  0004d	8b 55 f4	 mov	 edx, DWORD PTR _this$[ebp]
  00050	83 3a 00	 cmp	 DWORD PTR [edx], 0
  00053	75 0a		 jne	 SHORT $L193622

; 455  : 			{
; 456  : 				AtlThrow( E_OUTOFMEMORY );

  00055	68 0e 00 07 80	 push	 -2147024882		; 8007000eH
  0005a	e8 00 00 00 00	 call	 ?AtlThrow@ATL@@YGXJ@Z	; ATL::AtlThrow
$L193622:

; 457  : 			}
; 458  : 		}
; 459  : 
; 460  : 		if (::WideCharToMultiByte( nCodePage, 0, psz, nLengthW, m_psz, nLengthA, NULL, NULL ) == 0)

  0005f	6a 00		 push	 0
  00061	6a 00		 push	 0
  00063	8b 45 fc	 mov	 eax, DWORD PTR _nLengthA$[ebp]
  00066	50		 push	 eax
  00067	8b 4d f4	 mov	 ecx, DWORD PTR _this$[ebp]
  0006a	8b 11		 mov	 edx, DWORD PTR [ecx]
  0006c	52		 push	 edx
  0006d	8b 45 f8	 mov	 eax, DWORD PTR _nLengthW$[ebp]
  00070	50		 push	 eax
  00071	8b 4d 08	 mov	 ecx, DWORD PTR _psz$[ebp]
  00074	51		 push	 ecx
  00075	6a 00		 push	 0
  00077	8b 55 0c	 mov	 edx, DWORD PTR _nCodePage$[ebp]
  0007a	52		 push	 edx
  0007b	ff 15 00 00 00
	00		 call	 DWORD PTR __imp__WideCharToMultiByte@32
  00081	85 c0		 test	 eax, eax
  00083	75 05		 jne	 SHORT $L208016

; 461  : 		{
; 462  : 			AtlThrowLastWin32();

  00085	e8 00 00 00 00	 call	 ?AtlThrowLastWin32@ATL@@YGXXZ ; ATL::AtlThrowLastWin32
$L208016:

; 463  : 		}
; 464  : 	}

  0008a	8b e5		 mov	 esp, ebp
  0008c	5d		 pop	 ebp
  0008d	c2 08 00	 ret	 8
?Init@?$CW2AEX@$0IA@@ATL@@AAEXPB_WI@Z ENDP		; ATL::CW2AEX<128>::Init
_TEXT	ENDS
EXTRN	__imp__GetLastError@0:NEAR
; Function compile flags: /Odt
; File d:\program files (x86)\microsoft visual studio .net 2003\vc7\atlmfc\include\atlexcept.h
;	COMDAT ?AtlThrowLastWin32@ATL@@YGXXZ
_TEXT	SEGMENT
tv69 = -8						; size = 4
_dwError$ = -4						; size = 4
?AtlThrowLastWin32@ATL@@YGXXZ PROC NEAR			; ATL::AtlThrowLastWin32, COMDAT

; 80   : {

  00000	55		 push	 ebp
  00001	8b ec		 mov	 ebp, esp
  00003	83 ec 08	 sub	 esp, 8

; 81   : 	DWORD dwError = ::GetLastError();

  00006	ff 15 00 00 00
	00		 call	 DWORD PTR __imp__GetLastError@0
  0000c	89 45 fc	 mov	 DWORD PTR _dwError$[ebp], eax

; 82   : 	AtlThrow( HRESULT_FROM_WIN32( dwError ) );

  0000f	83 7d fc 00	 cmp	 DWORD PTR _dwError$[ebp], 0
  00013	7f 08		 jg	 SHORT $L208019
  00015	8b 45 fc	 mov	 eax, DWORD PTR _dwError$[ebp]
  00018	89 45 f8	 mov	 DWORD PTR tv69[ebp], eax
  0001b	eb 18		 jmp	 SHORT $L208020
$L208019:
  0001d	8b 4d fc	 mov	 ecx, DWORD PTR _dwError$[ebp]
  00020	81 e1 ff ff 00
	00		 and	 ecx, 65535		; 0000ffffH
  00026	81 c9 00 00 07
	00		 or	 ecx, 458752		; 00070000H
  0002c	81 c9 00 00 00
	80		 or	 ecx, -2147483648	; 80000000H
  00032	89 4d f8	 mov	 DWORD PTR tv69[ebp], ecx
$L208020:
  00035	8b 55 f8	 mov	 edx, DWORD PTR tv69[ebp]
  00038	52		 push	 edx
  00039	e8 00 00 00 00	 call	 ?AtlThrow@ATL@@YGXJ@Z	; ATL::AtlThrow
$L208018:

; 83   : }

  0003e	8b e5		 mov	 esp, ebp
  00040	5d		 pop	 ebp
  00041	c3		 ret	 0
?AtlThrowLastWin32@ATL@@YGXXZ ENDP			; ATL::AtlThrowLastWin32
; Function compile flags: /Odt
; File d:\program files (x86)\microsoft visual studio .net 2003\vc7\atlmfc\include\atlalloc.h
_TEXT	ENDS
;	COMDAT ?GetData@CAtlSafeAllocBufferNode@?$CAtlSafeAllocBufferManager@VCCRTAllocator@ATL@@@_ATL_SAFE_ALLOCA_IMPL@ATL@@QAEPAXXZ
_TEXT	SEGMENT
_this$ = -4						; size = 4
?GetData@CAtlSafeAllocBufferNode@?$CAtlSafeAllocBufferManager@VCCRTAllocator@ATL@@@_ATL_SAFE_ALLOCA_IMPL@ATL@@QAEPAXXZ PROC NEAR ; ATL::_ATL_SAFE_ALLOCA_IMPL::CAtlSafeAllocBufferManager<ATL::CCRTAllocator>::CAtlSafeAllocBufferNode::GetData, COMDAT
; _this$ = ecx

; 365  : 		{

  00000	55		 push	 ebp
  00001	8b ec		 mov	 ebp, esp
  00003	51		 push	 ecx
  00004	89 4d fc	 mov	 DWORD PTR _this$[ebp], ecx

; 366  : 			return (this + 1);

  00007	8b 45 fc	 mov	 eax, DWORD PTR _this$[ebp]
  0000a	83 c0 08	 add	 eax, 8

; 367  : 		}

  0000d	8b e5		 mov	 esp, ebp
  0000f	5d		 pop	 ebp
  00010	c3		 ret	 0
?GetData@CAtlSafeAllocBufferNode@?$CAtlSafeAllocBufferManager@VCCRTAllocator@ATL@@@_ATL_SAFE_ALLOCA_IMPL@ATL@@QAEPAXXZ ENDP ; ATL::_ATL_SAFE_ALLOCA_IMPL::CAtlSafeAllocBufferManager<ATL::CCRTAllocator>::CAtlSafeAllocBufferNode::GetData
; Function compile flags: /Odt
_TEXT	ENDS
;	COMDAT ?AllocateHeap@?$CTempBuffer@D$0IA@VCCRTAllocator@ATL@@@ATL@@AAEXI@Z
_TEXT	SEGMENT
_this$ = -8						; size = 4
_p$ = -4						; size = 4
_nBytes$ = 8						; size = 4
?AllocateHeap@?$CTempBuffer@D$0IA@VCCRTAllocator@ATL@@@ATL@@AAEXI@Z PROC NEAR ; ATL::CTempBuffer<char,128,ATL::CCRTAllocator>::AllocateHeap, COMDAT
; _this$ = ecx

; 292  : 	{

  00000	55		 push	 ebp
  00001	8b ec		 mov	 ebp, esp
  00003	83 ec 08	 sub	 esp, 8
  00006	89 4d f8	 mov	 DWORD PTR _this$[ebp], ecx

; 293  : 		T* p = static_cast< T* >( Allocator::Allocate( nBytes ) );

  00009	8b 45 08	 mov	 eax, DWORD PTR _nBytes$[ebp]
  0000c	50		 push	 eax
  0000d	e8 00 00 00 00	 call	 ?Allocate@CCRTAllocator@ATL@@SAPAXI@Z ; ATL::CCRTAllocator::Allocate
  00012	83 c4 04	 add	 esp, 4
  00015	89 45 fc	 mov	 DWORD PTR _p$[ebp], eax

; 294  : 		if( p == NULL )

  00018	83 7d fc 00	 cmp	 DWORD PTR _p$[ebp], 0
  0001c	75 0a		 jne	 SHORT $L194985

; 295  : 		{
; 296  : 			AtlThrow( E_OUTOFMEMORY );

  0001e	68 0e 00 07 80	 push	 -2147024882		; 8007000eH
  00023	e8 00 00 00 00	 call	 ?AtlThrow@ATL@@YGXJ@Z	; ATL::AtlThrow
$L194985:

; 297  : 		}
; 298  : 		m_p = p;

  00028	8b 4d f8	 mov	 ecx, DWORD PTR _this$[ebp]
  0002b	8b 55 fc	 mov	 edx, DWORD PTR _p$[ebp]
  0002e	89 11		 mov	 DWORD PTR [ecx], edx
$L208024:

; 299  : 	}

  00030	8b e5		 mov	 esp, ebp
  00032	5d		 pop	 ebp
  00033	c2 04 00	 ret	 4
?AllocateHeap@?$CTempBuffer@D$0IA@VCCRTAllocator@ATL@@@ATL@@AAEXI@Z ENDP ; ATL::CTempBuffer<char,128,ATL::CCRTAllocator>::AllocateHeap
_TEXT	ENDS
EXTRN	__imp_??0?$basic_string@DU?$char_traits@D@std@@V?$allocator@D@2@@std@@QAE@ABV01@@Z:NEAR
EXTRN	__imp_??Y?$basic_string@DU?$char_traits@D@std@@V?$allocator@D@2@@std@@QAEAAV01@ABV01@@Z:NEAR
;	COMDAT xdata$x
; File d:\program files (x86)\microsoft visual studio .net 2003\vc7\include\string
xdata$x	SEGMENT
$T208035 DD	0ffffffffH
	DD	FLAT:$L208029
	DD	00H
	DD	FLAT:$L208028
$T208033 DD	019930520H
	DD	02H
	DD	FLAT:$T208035
	DD	2 DUP(00H)
	DD	2 DUP(00H)
; Function compile flags: /Odt
xdata$x	ENDS
;	COMDAT ??$?HDU?$char_traits@D@std@@V?$allocator@D@1@@std@@YA?AV?$basic_string@DU?$char_traits@D@std@@V?$allocator@D@2@@0@ABV10@0@Z
_TEXT	SEGMENT
tv77 = -52						; size = 4
tv82 = -48						; size = 4
$T208030 = -44						; size = 4
$T208027 = -40						; size = 28
__$EHRec$ = -12						; size = 12
___$ReturnUdt$ = 8					; size = 4
__Left$ = 12						; size = 4
__Right$ = 16						; size = 4
??$?HDU?$char_traits@D@std@@V?$allocator@D@1@@std@@YA?AV?$basic_string@DU?$char_traits@D@std@@V?$allocator@D@2@@0@ABV10@0@Z PROC NEAR ; std::operator+<char,std::char_traits<char>,std::allocator<char> >, COMDAT

; 21   : 	{	// return string + string

  00000	55		 push	 ebp
  00001	8b ec		 mov	 ebp, esp
  00003	6a ff		 push	 -1
  00005	68 00 00 00 00	 push	 __ehhandler$??$?HDU?$char_traits@D@std@@V?$allocator@D@1@@std@@YA?AV?$basic_string@DU?$char_traits@D@std@@V?$allocator@D@2@@0@ABV10@0@Z
  0000a	64 a1 00 00 00
	00		 mov	 eax, DWORD PTR fs:__except_list
  00010	50		 push	 eax
  00011	64 89 25 00 00
	00 00		 mov	 DWORD PTR fs:__except_list, esp
  00018	83 ec 28	 sub	 esp, 40			; 00000028H
  0001b	c7 45 d4 00 00
	00 00		 mov	 DWORD PTR $T208030[ebp], 0

; 22   : 	return (basic_string<_Elem, _Traits, _Alloc>(_Left) += _Right);

  00022	8b 45 0c	 mov	 eax, DWORD PTR __Left$[ebp]
  00025	50		 push	 eax
  00026	8d 4d d8	 lea	 ecx, DWORD PTR $T208027[ebp]
  00029	ff 15 00 00 00
	00		 call	 DWORD PTR __imp_??0?$basic_string@DU?$char_traits@D@std@@V?$allocator@D@2@@std@@QAE@ABV01@@Z
  0002f	89 45 d0	 mov	 DWORD PTR tv82[ebp], eax
  00032	8b 4d d0	 mov	 ecx, DWORD PTR tv82[ebp]
  00035	89 4d cc	 mov	 DWORD PTR tv77[ebp], ecx
  00038	c7 45 fc 01 00
	00 00		 mov	 DWORD PTR __$EHRec$[ebp+8], 1
  0003f	8b 55 10	 mov	 edx, DWORD PTR __Right$[ebp]
  00042	52		 push	 edx
  00043	8b 4d cc	 mov	 ecx, DWORD PTR tv77[ebp]
  00046	ff 15 00 00 00
	00		 call	 DWORD PTR __imp_??Y?$basic_string@DU?$char_traits@D@std@@V?$allocator@D@2@@std@@QAEAAV01@ABV01@@Z
  0004c	50		 push	 eax
  0004d	8b 4d 08	 mov	 ecx, DWORD PTR ___$ReturnUdt$[ebp]
  00050	ff 15 00 00 00
	00		 call	 DWORD PTR __imp_??0?$basic_string@DU?$char_traits@D@std@@V?$allocator@D@2@@std@@QAE@ABV01@@Z
  00056	8b 45 d4	 mov	 eax, DWORD PTR $T208030[ebp]
  00059	83 c8 01	 or	 eax, 1
  0005c	89 45 d4	 mov	 DWORD PTR $T208030[ebp], eax
  0005f	c6 45 fc 00	 mov	 BYTE PTR __$EHRec$[ebp+8], 0
  00063	8d 4d d8	 lea	 ecx, DWORD PTR $T208027[ebp]
  00066	ff 15 00 00 00
	00		 call	 DWORD PTR __imp_??1?$basic_string@DU?$char_traits@D@std@@V?$allocator@D@2@@std@@QAE@XZ
  0006c	8b 45 08	 mov	 eax, DWORD PTR ___$ReturnUdt$[ebp]

; 23   : 	}

  0006f	8b 4d f4	 mov	 ecx, DWORD PTR __$EHRec$[ebp]
  00072	64 89 0d 00 00
	00 00		 mov	 DWORD PTR fs:__except_list, ecx
  00079	8b e5		 mov	 esp, ebp
  0007b	5d		 pop	 ebp
  0007c	c3		 ret	 0
_TEXT	ENDS
;	COMDAT text$x
text$x	SEGMENT
$L208028:
  00000	8d 4d d8	 lea	 ecx, DWORD PTR $T208027[ebp]
  00003	ff 25 00 00 00
	00		 jmp	 DWORD PTR __imp_??1?$basic_string@DU?$char_traits@D@std@@V?$allocator@D@2@@std@@QAE@XZ
$L208029:
  00009	8b 45 d4	 mov	 eax, DWORD PTR $T208030[ebp]
  0000c	83 e0 01	 and	 eax, 1
  0000f	0f 84 0d 00 00
	00		 je	 $L208031
  00015	83 65 d4 fe	 and	 DWORD PTR $T208030[ebp], -2 ; fffffffeH
  00019	8b 4d 08	 mov	 ecx, DWORD PTR ___$ReturnUdt$[ebp]
  0001c	ff 25 00 00 00
	00		 jmp	 DWORD PTR __imp_??1?$basic_string@DU?$char_traits@D@std@@V?$allocator@D@2@@std@@QAE@XZ
$L208031:
  00022	c3		 ret	 0
__ehhandler$??$?HDU?$char_traits@D@std@@V?$allocator@D@1@@std@@YA?AV?$basic_string@DU?$char_traits@D@std@@V?$allocator@D@2@@0@ABV10@0@Z:
  00023	b8 00 00 00 00	 mov	 eax, OFFSET FLAT:$T208033
  00028	e9 00 00 00 00	 jmp	 ___CxxFrameHandler
text$x	ENDS
??$?HDU?$char_traits@D@std@@V?$allocator@D@1@@std@@YA?AV?$basic_string@DU?$char_traits@D@std@@V?$allocator@D@2@@0@ABV10@0@Z ENDP ; std::operator+<char,std::char_traits<char>,std::allocator<char> >
CRT$XCU	SEGMENT
_$S6	DD	FLAT:_$E5
; Function compile flags: /Odt
; File d:\boxgit\playbox\playbox\dev\prj\playbox\src\appconfig\config\configsettingdef.h
CRT$XCU	ENDS
;	COMDAT _$E5
text$yc	SEGMENT
_$E5	PROC NEAR					; COMDAT

; 25   : 	CONF_SETTING_SKIN_IDX,				TYPE_CONFIG_STR,

  00000	55		 push	 ebp
  00001	8b ec		 mov	 ebp, esp
  00003	a1 00 00 00 00	 mov	 eax, DWORD PTR _CONF_SETTING_SKIN_IDX
  00008	a3 00 00 00 00	 mov	 DWORD PTR _CONF_SETTING, eax
  0000d	8b 0d 00 00 00
	00		 mov	 ecx, DWORD PTR _TYPE_CONFIG_STR
  00013	89 0d 04 00 00
	00		 mov	 DWORD PTR _CONF_SETTING+4, ecx

; 26   : 	CONF_SETTING_CONFIG_MAIN_PAGE,		TYPE_CONFIG_STR,

  00019	8b 15 00 00 00
	00		 mov	 edx, DWORD PTR _CONF_SETTING_CONFIG_MAIN_PAGE
  0001f	89 15 08 00 00
	00		 mov	 DWORD PTR _CONF_SETTING+8, edx
  00025	a1 00 00 00 00	 mov	 eax, DWORD PTR _TYPE_CONFIG_STR
  0002a	a3 0c 00 00 00	 mov	 DWORD PTR _CONF_SETTING+12, eax

; 27   : 	CONF_SETTING_CONFIG_PROBLEM_REPORT,	TYPE_CONFIG_STR,

  0002f	8b 0d 00 00 00
	00		 mov	 ecx, DWORD PTR _CONF_SETTING_CONFIG_PROBLEM_REPORT
  00035	89 0d 10 00 00
	00		 mov	 DWORD PTR _CONF_SETTING+16, ecx
  0003b	8b 15 00 00 00
	00		 mov	 edx, DWORD PTR _TYPE_CONFIG_STR
  00041	89 15 14 00 00
	00		 mov	 DWORD PTR _CONF_SETTING+20, edx

; 28   : 	CONF_SETTING_CONFIG_HOME_PAGE,		TYPE_CONFIG_STR,

  00047	a1 00 00 00 00	 mov	 eax, DWORD PTR _CONF_SETTING_CONFIG_HOME_PAGE
  0004c	a3 18 00 00 00	 mov	 DWORD PTR _CONF_SETTING+24, eax
  00051	8b 0d 00 00 00
	00		 mov	 ecx, DWORD PTR _TYPE_CONFIG_STR
  00057	89 0d 1c 00 00
	00		 mov	 DWORD PTR _CONF_SETTING+28, ecx

; 29   : 	CONF_SETTING_CONFIG_IFASKEXIT,		TYPE_CONFIG_BOOL,

  0005d	8b 15 00 00 00
	00		 mov	 edx, DWORD PTR _CONF_SETTING_CONFIG_IFASKEXIT
  00063	89 15 20 00 00
	00		 mov	 DWORD PTR _CONF_SETTING+32, edx
  00069	a1 00 00 00 00	 mov	 eax, DWORD PTR _TYPE_CONFIG_BOOL
  0006e	a3 24 00 00 00	 mov	 DWORD PTR _CONF_SETTING+36, eax

; 30   : 	CONF_SETTING_CONFIG_EXITCHOICE,		TYPE_CONFIG_BOOL,

  00073	8b 0d 00 00 00
	00		 mov	 ecx, DWORD PTR _CONF_SETTING_CONFIG_EXITCHOICE
  00079	89 0d 28 00 00
	00		 mov	 DWORD PTR _CONF_SETTING+40, ecx
  0007f	8b 15 00 00 00
	00		 mov	 edx, DWORD PTR _TYPE_CONFIG_BOOL
  00085	89 15 2c 00 00
	00		 mov	 DWORD PTR _CONF_SETTING+44, edx

; 31   : 	CONF_SETTING_LOGIN_USER_NAME,		TYPE_CONFIG_STR,

  0008b	a1 00 00 00 00	 mov	 eax, DWORD PTR _CONF_SETTING_LOGIN_USER_NAME
  00090	a3 30 00 00 00	 mov	 DWORD PTR _CONF_SETTING+48, eax
  00095	8b 0d 00 00 00
	00		 mov	 ecx, DWORD PTR _TYPE_CONFIG_STR
  0009b	89 0d 34 00 00
	00		 mov	 DWORD PTR _CONF_SETTING+52, ecx

; 32   : 	CONF_SETTING_LOGIN_PASSWORD,		TYPE_CONFIG_STR,

  000a1	8b 15 00 00 00
	00		 mov	 edx, DWORD PTR _CONF_SETTING_LOGIN_PASSWORD
  000a7	89 15 38 00 00
	00		 mov	 DWORD PTR _CONF_SETTING+56, edx
  000ad	a1 00 00 00 00	 mov	 eax, DWORD PTR _TYPE_CONFIG_STR
  000b2	a3 3c 00 00 00	 mov	 DWORD PTR _CONF_SETTING+60, eax

; 33   : 	CONF_SETTING_NETID,					TYPE_CONFIG_STR,

  000b7	8b 0d 00 00 00
	00		 mov	 ecx, DWORD PTR _CONF_SETTING_NETID
  000bd	89 0d 40 00 00
	00		 mov	 DWORD PTR _CONF_SETTING+64, ecx
  000c3	8b 15 00 00 00
	00		 mov	 edx, DWORD PTR _TYPE_CONFIG_STR
  000c9	89 15 44 00 00
	00		 mov	 DWORD PTR _CONF_SETTING+68, edx

; 34   : 	CONF_SETTING_COLOR,					TYPE_CONFIG_INT,

  000cf	a1 00 00 00 00	 mov	 eax, DWORD PTR _CONF_SETTING_COLOR
  000d4	a3 48 00 00 00	 mov	 DWORD PTR _CONF_SETTING+72, eax
  000d9	8b 0d 00 00 00
	00		 mov	 ecx, DWORD PTR _TYPE_CONFIG_INT
  000df	89 0d 4c 00 00
	00		 mov	 DWORD PTR _CONF_SETTING+76, ecx

; 35   : 	CONF_SETTING_LIGHT,					TYPE_CONFIG_INT,

  000e5	8b 15 00 00 00
	00		 mov	 edx, DWORD PTR _CONF_SETTING_LIGHT
  000eb	89 15 50 00 00
	00		 mov	 DWORD PTR _CONF_SETTING+80, edx
  000f1	a1 00 00 00 00	 mov	 eax, DWORD PTR _TYPE_CONFIG_INT
  000f6	a3 54 00 00 00	 mov	 DWORD PTR _CONF_SETTING+84, eax

; 36   : 	CONF_SETTING_COLOR_BTN_INDEX,		TYPE_CONFIG_INT,

  000fb	8b 0d 00 00 00
	00		 mov	 ecx, DWORD PTR _CONF_SETTING_COLOR_BTN_INDEX
  00101	89 0d 58 00 00
	00		 mov	 DWORD PTR _CONF_SETTING+88, ecx
  00107	8b 15 00 00 00
	00		 mov	 edx, DWORD PTR _TYPE_CONFIG_INT
  0010d	89 15 5c 00 00
	00		 mov	 DWORD PTR _CONF_SETTING+92, edx

; 37   : 	CONF_SETTING_COLOR_USER,			TYPE_CONFIG_INT,

  00113	a1 00 00 00 00	 mov	 eax, DWORD PTR _CONF_SETTING_COLOR_USER
  00118	a3 60 00 00 00	 mov	 DWORD PTR _CONF_SETTING+96, eax
  0011d	8b 0d 00 00 00
	00		 mov	 ecx, DWORD PTR _TYPE_CONFIG_INT
  00123	89 0d 64 00 00
	00		 mov	 DWORD PTR _CONF_SETTING+100, ecx

; 38   : 	CONF_SETTING_FIRST_TIME_CHANGESKIN, TYPE_CONFIG_BOOL

  00129	8b 15 00 00 00
	00		 mov	 edx, DWORD PTR _CONF_SETTING_FIRST_TIME_CHANGESKIN
  0012f	89 15 68 00 00
	00		 mov	 DWORD PTR _CONF_SETTING+104, edx

; 39   : };

  00135	a1 00 00 00 00	 mov	 eax, DWORD PTR _TYPE_CONFIG_BOOL
  0013a	a3 6c 00 00 00	 mov	 DWORD PTR _CONF_SETTING+108, eax
  0013f	5d		 pop	 ebp
  00140	c3		 ret	 0
_$E5	ENDP
text$yc	ENDS
CRT$XCU	SEGMENT
_$S8	DD	FLAT:_$E7
; Function compile flags: /Odt
; File d:\boxgit\playbox\playbox\dev\prj\playbox\src\appconfig\config\configappdef.h
CRT$XCU	ENDS
;	COMDAT _$E7
text$yc	SEGMENT
_$E7	PROC NEAR					; COMDAT

; 19   : 	CONF_APP_SWF_PATH,			TYPE_CONFIG_STR,

  00000	55		 push	 ebp
  00001	8b ec		 mov	 ebp, esp
  00003	a1 00 00 00 00	 mov	 eax, DWORD PTR _CONF_APP_SWF_PATH
  00008	a3 00 00 00 00	 mov	 DWORD PTR _CONF_APP, eax
  0000d	8b 0d 00 00 00
	00		 mov	 ecx, DWORD PTR _TYPE_CONFIG_STR
  00013	89 0d 04 00 00
	00		 mov	 DWORD PTR _CONF_APP+4, ecx

; 20   : 	CONF_APP_MAINWND_HOLD,		TYPE_CONFIG_BOOL,

  00019	8b 15 00 00 00
	00		 mov	 edx, DWORD PTR _CONF_APP_MAINWND_HOLD
  0001f	89 15 08 00 00
	00		 mov	 DWORD PTR _CONF_APP+8, edx
  00025	a1 00 00 00 00	 mov	 eax, DWORD PTR _TYPE_CONFIG_BOOL
  0002a	a3 0c 00 00 00	 mov	 DWORD PTR _CONF_APP+12, eax

; 21   : 	CONF_APP_RUN_COUNT,			TYPE_CONFIG_INT,

  0002f	8b 0d 00 00 00
	00		 mov	 ecx, DWORD PTR _CONF_APP_RUN_COUNT
  00035	89 0d 10 00 00
	00		 mov	 DWORD PTR _CONF_APP+16, ecx
  0003b	8b 15 00 00 00
	00		 mov	 edx, DWORD PTR _TYPE_CONFIG_INT
  00041	89 15 14 00 00
	00		 mov	 DWORD PTR _CONF_APP+20, edx

; 22   : 	CONF_APP_PLAYED_GAME,		TYPE_CONFIG_INT,

  00047	a1 00 00 00 00	 mov	 eax, DWORD PTR _CONF_APP_PLAYED_GAME
  0004c	a3 18 00 00 00	 mov	 DWORD PTR _CONF_APP+24, eax
  00051	8b 0d 00 00 00
	00		 mov	 ecx, DWORD PTR _TYPE_CONFIG_INT
  00057	89 0d 1c 00 00
	00		 mov	 DWORD PTR _CONF_APP+28, ecx

; 23   : 	CONF_APP_PLAYED_PC_GAME,	TYPE_CONFIG_INT,

  0005d	8b 15 00 00 00
	00		 mov	 edx, DWORD PTR _CONF_APP_PLAYED_PC_GAME
  00063	89 15 20 00 00
	00		 mov	 DWORD PTR _CONF_APP+32, edx
  00069	a1 00 00 00 00	 mov	 eax, DWORD PTR _TYPE_CONFIG_INT
  0006e	a3 24 00 00 00	 mov	 DWORD PTR _CONF_APP+36, eax

; 24   : 	CONF_APP_PLAYED_ICON_SIZE,	TYPE_CONFIG_INT, //panelicon0,1,2

  00073	8b 0d 00 00 00
	00		 mov	 ecx, DWORD PTR _CONF_APP_PLAYED_ICON_SIZE
  00079	89 0d 28 00 00
	00		 mov	 DWORD PTR _CONF_APP+40, ecx
  0007f	8b 15 00 00 00
	00		 mov	 edx, DWORD PTR _TYPE_CONFIG_INT
  00085	89 15 2c 00 00
	00		 mov	 DWORD PTR _CONF_APP+44, edx

; 25   : 	CONF_APP_PIC_SAVE_PATH,		TYPE_CONFIG_STR

  0008b	a1 00 00 00 00	 mov	 eax, DWORD PTR _CONF_APP_PIC_SAVE_PATH
  00090	a3 30 00 00 00	 mov	 DWORD PTR _CONF_APP+48, eax

; 26   : };

  00095	8b 0d 00 00 00
	00		 mov	 ecx, DWORD PTR _TYPE_CONFIG_STR
  0009b	89 0d 34 00 00
	00		 mov	 DWORD PTR _CONF_APP+52, ecx
  000a1	5d		 pop	 ebp
  000a2	c3		 ret	 0
_$E7	ENDP
text$yc	ENDS
_BSS	SEGMENT
_CONF_SETTING DD 01cH DUP (?)
_CONF_APP DD	0eH DUP (?)
_BSS	ENDS
END
