; Listing generated by Microsoft (R) Optimizing Compiler Version 13.10.3077 

	TITLE	.\PlayBox.cpp
	.386P
include listing.inc
if @Version gt 510
.model FLAT
else
_TEXT	SEGMENT PARA USE32 PUBLIC 'CODE'
_TEXT	ENDS
_DATA	SEGMENT DWORD USE32 PUBLIC 'DATA'
_DATA	ENDS
CONST	SEGMENT DWORD USE32 PUBLIC 'CONST'
CONST	ENDS
_BSS	SEGMENT DWORD USE32 PUBLIC 'BSS'
_BSS	ENDS
$$SYMBOLS	SEGMENT BYTE USE32 'DEBSYM'
$$SYMBOLS	ENDS
$$TYPES	SEGMENT BYTE USE32 'DEBTYP'
$$TYPES	ENDS
_TLS	SEGMENT DWORD USE32 PUBLIC 'TLS'
_TLS	ENDS
SHARED	SEGMENT DWORD USE32 PUBLIC ''
SHARED	ENDS
rdata$r	SEGMENT DWORD USE32 PUBLIC 'CONST'
rdata$r	ENDS
xdata$x	SEGMENT DWORD USE32 PUBLIC 'CONST'
xdata$x	ENDS
text$AFX_COL1	SEGMENT PARA USE32 PUBLIC ''
text$AFX_COL1	ENDS
text$yc	SEGMENT PARA USE32 PUBLIC 'CODE'
text$yc	ENDS
CRT$XCA	SEGMENT DWORD USE32 PUBLIC 'DATA'
CRT$XCA	ENDS
CRT$XCU	SEGMENT DWORD USE32 PUBLIC 'DATA'
CRT$XCU	ENDS
CRT$XCL	SEGMENT DWORD USE32 PUBLIC 'DATA'
CRT$XCL	ENDS
CRT$XCC	SEGMENT DWORD USE32 PUBLIC 'DATA'
CRT$XCC	ENDS
CRT$XCZ	SEGMENT DWORD USE32 PUBLIC 'DATA'
CRT$XCZ	ENDS
text$yd	SEGMENT PARA USE32 PUBLIC 'CODE'
text$yd	ENDS
ATL$__m	SEGMENT DWORD USE32 PUBLIC ''
ATL$__m	ENDS
ATL$__z	SEGMENT DWORD USE32 PUBLIC ''
ATL$__z	ENDS
ATL$__a	SEGMENT DWORD USE32 PUBLIC ''
ATL$__a	ENDS
;	COMDAT ??1CAtlStringMgr@ATL@@UAE@XZ
_TEXT	SEGMENT PARA USE32 PUBLIC 'CODE'
_TEXT	ENDS
;	COMDAT ?Allocate@CAtlStringMgr@ATL@@UAEPAUCStringData@2@HH@Z
_TEXT	SEGMENT PARA USE32 PUBLIC 'CODE'
_TEXT	ENDS
;	COMDAT ?Free@CAtlStringMgr@ATL@@UAEXPAUCStringData@2@@Z
_TEXT	SEGMENT PARA USE32 PUBLIC 'CODE'
_TEXT	ENDS
;	COMDAT ?Reallocate@CAtlStringMgr@ATL@@UAEPAUCStringData@2@PAU32@HH@Z
_TEXT	SEGMENT PARA USE32 PUBLIC 'CODE'
_TEXT	ENDS
;	COMDAT ?GetNilString@CAtlStringMgr@ATL@@UAEPAUCStringData@2@XZ
_TEXT	SEGMENT PARA USE32 PUBLIC 'CODE'
_TEXT	ENDS
;	COMDAT ?Clone@CAtlStringMgr@ATL@@UAEPAUIAtlStringMgr@2@XZ
_TEXT	SEGMENT PARA USE32 PUBLIC 'CODE'
_TEXT	ENDS
;	COMDAT ??_GCAtlStringMgr@ATL@@UAEPAXI@Z
_TEXT	SEGMENT PARA USE32 PUBLIC 'CODE'
_TEXT	ENDS
;	COMDAT ?CompareStringW@?$ChTraitsOS@_W@ATL@@KGHKKPB_WH0H@Z
_TEXT	SEGMENT PARA USE32 PUBLIC 'CODE'
_TEXT	ENDS
;	COMDAT ?GetStringTypeExW@?$ChTraitsOS@_W@ATL@@KGHKKPB_WHPAG@Z
_TEXT	SEGMENT PARA USE32 PUBLIC 'CODE'
_TEXT	ENDS
;	COMDAT ?lstrcmpiW@?$ChTraitsOS@_W@ATL@@KGHPB_W0@Z
_TEXT	SEGMENT PARA USE32 PUBLIC 'CODE'
_TEXT	ENDS
;	COMDAT ?CharLowerW@?$ChTraitsOS@_W@ATL@@KGPA_WPA_W@Z
_TEXT	SEGMENT PARA USE32 PUBLIC 'CODE'
_TEXT	ENDS
;	COMDAT ?CharUpperW@?$ChTraitsOS@_W@ATL@@KGPA_WPA_W@Z
_TEXT	SEGMENT PARA USE32 PUBLIC 'CODE'
_TEXT	ENDS
;	COMDAT ?strchr@?$ChTraitsOS@_W@ATL@@SAPB_WPB_W_W@Z
_TEXT	SEGMENT PARA USE32 PUBLIC 'CODE'
_TEXT	ENDS
;	COMDAT ?strrchr@?$ChTraitsOS@_W@ATL@@SAPB_WPB_W_W@Z
_TEXT	SEGMENT PARA USE32 PUBLIC 'CODE'
_TEXT	ENDS
;	COMDAT ?_strrev@?$ChTraitsOS@_W@ATL@@SAPA_WPA_W@Z
_TEXT	SEGMENT PARA USE32 PUBLIC 'CODE'
_TEXT	ENDS
;	COMDAT ?strstr@?$ChTraitsOS@_W@ATL@@SAPB_WPB_W0@Z
_TEXT	SEGMENT PARA USE32 PUBLIC 'CODE'
_TEXT	ENDS
;	COMDAT ?strspn@?$ChTraitsOS@_W@ATL@@SAHPB_W0@Z
_TEXT	SEGMENT PARA USE32 PUBLIC 'CODE'
_TEXT	ENDS
;	COMDAT ?strcspn@?$ChTraitsOS@_W@ATL@@SAHPB_W0@Z
_TEXT	SEGMENT PARA USE32 PUBLIC 'CODE'
_TEXT	ENDS
;	COMDAT ?strpbrk@?$ChTraitsOS@_W@ATL@@SAPB_WPB_W0@Z
_TEXT	SEGMENT PARA USE32 PUBLIC 'CODE'
_TEXT	ENDS
;	COMDAT ?StringFindString@?$ChTraitsOS@_W@ATL@@SAPB_WPB_W0@Z
_TEXT	SEGMENT PARA USE32 PUBLIC 'CODE'
_TEXT	ENDS
;	COMDAT ??_GCPlayBoxApp@@UAEPAXI@Z
_TEXT	SEGMENT PARA USE32 PUBLIC 'CODE'
_TEXT	ENDS
;	COMDAT ??1CPlayBoxApp@@UAE@XZ
_TEXT	SEGMENT PARA USE32 PUBLIC 'CODE'
_TEXT	ENDS
;	COMDAT _$E5
text$yc	SEGMENT PARA USE32 PUBLIC 'CODE'
text$yc	ENDS
;	COMDAT _$E6
text$yd	SEGMENT PARA USE32 PUBLIC 'CODE'
text$yd	ENDS
;	COMDAT ??1CPlayBoxDlg@@UAE@XZ
_TEXT	SEGMENT PARA USE32 PUBLIC 'CODE'
_TEXT	ENDS
;	COMDAT ??1ILayoutChangeObserver@@UAE@XZ
_TEXT	SEGMENT PARA USE32 PUBLIC 'CODE'
_TEXT	ENDS
;	COMDAT ??1IPanelChangeObserver@@UAE@XZ
_TEXT	SEGMENT PARA USE32 PUBLIC 'CODE'
_TEXT	ENDS
;	COMDAT ??B?$CComPtrBase@UITypeInfo2@@@ATL@@QBEPAUITypeInfo2@@XZ
_TEXT	SEGMENT PARA USE32 PUBLIC 'CODE'
_TEXT	ENDS
;	COMDAT ?equal@?$istreambuf_iterator@DU?$char_traits@D@std@@@std@@QBE_NABV12@@Z
_TEXT	SEGMENT PARA USE32 PUBLIC 'CODE'
_TEXT	ENDS
;	COMDAT ?equal@?$istreambuf_iterator@_WU?$char_traits@_W@std@@@std@@QBE_NABV12@@Z
_TEXT	SEGMENT PARA USE32 PUBLIC 'CODE'
_TEXT	ENDS
;	COMDAT ?StringFindString@?$ChTraitsCRT@D@ATL@@SAPBDPBD0@Z
_TEXT	SEGMENT PARA USE32 PUBLIC 'CODE'
_TEXT	ENDS
;	COMDAT ?StringLowercase@?$ChTraitsCRT@D@ATL@@SAPADPAD@Z
_TEXT	SEGMENT PARA USE32 PUBLIC 'CODE'
_TEXT	ENDS
;	COMDAT ?Unlock@?$CComCritSecLock@VCComCriticalSection@ATL@@@ATL@@QAEXXZ
_TEXT	SEGMENT PARA USE32 PUBLIC 'CODE'
_TEXT	ENDS
;	COMDAT ??$AtlAlignUp@H@ATL@@YGHHK@Z
_TEXT	SEGMENT PARA USE32 PUBLIC 'CODE'
_TEXT	ENDS
;	COMDAT ??$_Maklocstr@D@std@@YAPADPBDPADABU_Cvtvec@@@Z
_TEXT	SEGMENT PARA USE32 PUBLIC 'CODE'
_TEXT	ENDS
;	COMDAT ??_R3CPlayBoxApp@@8
rdata$r	SEGMENT DWORD USE32 PUBLIC 'CONST'
rdata$r	ENDS
;	COMDAT ??_R3?$numpunct@_W@std@@8
rdata$r	SEGMENT DWORD USE32 PUBLIC 'CONST'
rdata$r	ENDS
;	COMDAT ??_R3?$numpunct@D@std@@8
rdata$r	SEGMENT DWORD USE32 PUBLIC 'CONST'
rdata$r	ENDS
;	COMDAT ??_R3CAtlStringMgr@ATL@@8
rdata$r	SEGMENT DWORD USE32 PUBLIC 'CONST'
rdata$r	ENDS
;	COMDAT ??_R2CPlayBoxApp@@8
rdata$r	SEGMENT DWORD USE32 PUBLIC 'CONST'
rdata$r	ENDS
;	COMDAT ??_R2?$numpunct@_W@std@@8
rdata$r	SEGMENT DWORD USE32 PUBLIC 'CONST'
rdata$r	ENDS
;	COMDAT ??_R2?$numpunct@D@std@@8
rdata$r	SEGMENT DWORD USE32 PUBLIC 'CONST'
rdata$r	ENDS
;	COMDAT ??_R2CAtlStringMgr@ATL@@8
rdata$r	SEGMENT DWORD USE32 PUBLIC 'CONST'
rdata$r	ENDS
;	COMDAT ??_R1A@?0A@A@CObject@@8
rdata$r	SEGMENT DWORD USE32 PUBLIC 'CONST'
rdata$r	ENDS
;	COMDAT ??_R0?AVCObject@@@8
_DATA	SEGMENT DWORD USE32 PUBLIC 'DATA'
_DATA	ENDS
;	COMDAT ??_R1A@?0A@A@CCmdTarget@@8
rdata$r	SEGMENT DWORD USE32 PUBLIC 'CONST'
rdata$r	ENDS
;	COMDAT ??_R0?AVCCmdTarget@@@8
_DATA	SEGMENT DWORD USE32 PUBLIC 'DATA'
_DATA	ENDS
;	COMDAT ??_R1A@?0A@A@CWinThread@@8
rdata$r	SEGMENT DWORD USE32 PUBLIC 'CONST'
rdata$r	ENDS
;	COMDAT ??_R1A@?0A@A@CWinApp@@8
rdata$r	SEGMENT DWORD USE32 PUBLIC 'CONST'
rdata$r	ENDS
;	COMDAT ??_R1A@?0A@A@CPlayBoxApp@@8
rdata$r	SEGMENT DWORD USE32 PUBLIC 'CONST'
rdata$r	ENDS
;	COMDAT ??_R1A@?0A@A@?$numpunct@_W@std@@8
rdata$r	SEGMENT DWORD USE32 PUBLIC 'CONST'
rdata$r	ENDS
;	COMDAT ??_R1A@?0A@A@facet@locale@std@@8
rdata$r	SEGMENT DWORD USE32 PUBLIC 'CONST'
rdata$r	ENDS
;	COMDAT ??_R0?AVfacet@locale@std@@@8
_DATA	SEGMENT DWORD USE32 PUBLIC 'DATA'
_DATA	ENDS
;	COMDAT ??_R1A@?0A@A@?$numpunct@D@std@@8
rdata$r	SEGMENT DWORD USE32 PUBLIC 'CONST'
rdata$r	ENDS
;	COMDAT ??_R1A@?0A@A@IAtlStringMgr@ATL@@8
rdata$r	SEGMENT DWORD USE32 PUBLIC 'CONST'
rdata$r	ENDS
;	COMDAT ??_R0?AUIAtlStringMgr@ATL@@@8
_DATA	SEGMENT DWORD USE32 PUBLIC 'DATA'
_DATA	ENDS
;	COMDAT ??_R1A@?0A@A@CAtlStringMgr@ATL@@8
rdata$r	SEGMENT DWORD USE32 PUBLIC 'CONST'
rdata$r	ENDS
;	COMDAT ??_R0?AVCWinThread@@@8
_DATA	SEGMENT DWORD USE32 PUBLIC 'DATA'
_DATA	ENDS
;	COMDAT ??_R0?AVCWinApp@@@8
_DATA	SEGMENT DWORD USE32 PUBLIC 'DATA'
_DATA	ENDS
;	COMDAT ??_R0?AVCPlayBoxApp@@@8
_DATA	SEGMENT DWORD USE32 PUBLIC 'DATA'
_DATA	ENDS
;	COMDAT ??_R0?AV?$numpunct@_W@std@@@8
_DATA	SEGMENT DWORD USE32 PUBLIC 'DATA'
_DATA	ENDS
;	COMDAT ??_R0?AV?$numpunct@D@std@@@8
_DATA	SEGMENT DWORD USE32 PUBLIC 'DATA'
_DATA	ENDS
;	COMDAT ??_R0?AVCAtlStringMgr@ATL@@@8
_DATA	SEGMENT DWORD USE32 PUBLIC 'DATA'
_DATA	ENDS
;	COMDAT ?Dump@CObject@@UBEXAAVCDumpContext@@@Z
_TEXT	SEGMENT PARA USE32 PUBLIC 'CODE'
_TEXT	ENDS
;	COMDAT ?AssertValid@CObject@@UBEXXZ
_TEXT	SEGMENT PARA USE32 PUBLIC 'CODE'
_TEXT	ENDS
;	COMDAT ?Serialize@CObject@@UAEXAAVCArchive@@@Z
_TEXT	SEGMENT PARA USE32 PUBLIC 'CODE'
_TEXT	ENDS
;	COMDAT ??_R4CPlayBoxApp@@6B@
rdata$r	SEGMENT DWORD USE32 PUBLIC 'CONST'
rdata$r	ENDS
;	COMDAT ??0?$allocator@_W@std@@QAE@XZ
_TEXT	SEGMENT PARA USE32 PUBLIC 'CODE'
_TEXT	ENDS
;	COMDAT ??_G?$numpunct@_W@std@@MAEPAXI@Z
_TEXT	SEGMENT PARA USE32 PUBLIC 'CODE'
_TEXT	ENDS
;	COMDAT ??_R4?$numpunct@_W@std@@6B@
rdata$r	SEGMENT DWORD USE32 PUBLIC 'CONST'
rdata$r	ENDS
;	COMDAT ??_G?$numpunct@D@std@@MAEPAXI@Z
_TEXT	SEGMENT PARA USE32 PUBLIC 'CODE'
_TEXT	ENDS
;	COMDAT ??_R4?$numpunct@D@std@@6B@
rdata$r	SEGMENT DWORD USE32 PUBLIC 'CONST'
rdata$r	ENDS
;	COMDAT ??_R4CAtlStringMgr@ATL@@6B@
rdata$r	SEGMENT DWORD USE32 PUBLIC 'CONST'
rdata$r	ENDS
;	COMDAT ?_Psave@?$_Facetptr@V?$numpunct@_W@std@@@std@@2PBVfacet@locale@2@B
_DATA	SEGMENT DWORD USE32 PUBLIC 'DATA'
_DATA	ENDS
;	COMDAT ?_Psave@?$_Facetptr@V?$numpunct@D@std@@@std@@2PBVfacet@locale@2@B
_DATA	SEGMENT DWORD USE32 PUBLIC 'DATA'
_DATA	ENDS
;	COMDAT ?Unlock@CComCriticalSection@ATL@@QAEJXZ
_TEXT	SEGMENT PARA USE32 PUBLIC 'CODE'
_TEXT	ENDS
;	COMDAT ?_Psave@?$_Facetptr@V?$ctype@_W@std@@@std@@2PBVfacet@locale@2@B
_DATA	SEGMENT DWORD USE32 PUBLIC 'DATA'
_DATA	ENDS
;	COMDAT ?_Psave@?$_Facetptr@V?$ctype@D@std@@@std@@2PBVfacet@locale@2@B
_DATA	SEGMENT DWORD USE32 PUBLIC 'DATA'
_DATA	ENDS
;	COMDAT ??$_Maklocchr@_W@std@@YA_WDPA_WABU_Cvtvec@@@Z
_TEXT	SEGMENT PARA USE32 PUBLIC 'CODE'
_TEXT	ENDS
;	COMDAT ??$_Maklocstr@_W@std@@YAPA_WPBDPA_WABU_Cvtvec@@@Z
_TEXT	SEGMENT PARA USE32 PUBLIC 'CODE'
_TEXT	ENDS
;	COMDAT ??$_Maklocchr@D@std@@YADDPADABU_Cvtvec@@@Z
_TEXT	SEGMENT PARA USE32 PUBLIC 'CODE'
_TEXT	ENDS
;	COMDAT ??_C@_04LOAJBDKD@true?$AA@
CONST	SEGMENT DWORD USE32 PUBLIC 'CONST'
CONST	ENDS
;	COMDAT ??_C@_05LAPONLG@false?$AA@
CONST	SEGMENT DWORD USE32 PUBLIC 'CONST'
CONST	ENDS
;	COMDAT _wmemcpy
_TEXT	SEGMENT PARA USE32 PUBLIC 'CODE'
_TEXT	ENDS
;	COMDAT ?max_size@?$allocator@_W@std@@QBEIXZ
_TEXT	SEGMENT PARA USE32 PUBLIC 'CODE'
_TEXT	ENDS
;	COMDAT ?allocate@?$allocator@_W@std@@QAEPA_WI@Z
_TEXT	SEGMENT PARA USE32 PUBLIC 'CODE'
_TEXT	ENDS
;	COMDAT ??$_Allocate@_W@std@@YAPA_WIPA_W@Z
_TEXT	SEGMENT PARA USE32 PUBLIC 'CODE'
_TEXT	ENDS
;	COMDAT ??_C@_01GFHCPBMG@C?$AA@
CONST	SEGMENT DWORD USE32 PUBLIC 'CONST'
CONST	ENDS
;	COMDAT ?max_size@?$allocator@D@std@@QBEIXZ
_TEXT	SEGMENT PARA USE32 PUBLIC 'CODE'
_TEXT	ENDS
;	COMDAT ?allocate@?$allocator@D@std@@QAEPADI@Z
_TEXT	SEGMENT PARA USE32 PUBLIC 'CODE'
_TEXT	ENDS
;	COMDAT ??$_Allocate@D@std@@YAPADIPAD@Z
_TEXT	SEGMENT PARA USE32 PUBLIC 'CODE'
_TEXT	ENDS
;	COMDAT ?deallocate@?$allocator@D@std@@QAEXPADI@Z
_TEXT	SEGMENT PARA USE32 PUBLIC 'CODE'
_TEXT	ENDS
;	COMDAT ?_Peek@?$istreambuf_iterator@_WU?$char_traits@_W@std@@@std@@AAE_WXZ
_TEXT	SEGMENT PARA USE32 PUBLIC 'CODE'
_TEXT	ENDS
;	COMDAT ?_Peek@?$istreambuf_iterator@DU?$char_traits@D@std@@@std@@AAEDXZ
_TEXT	SEGMENT PARA USE32 PUBLIC 'CODE'
_TEXT	ENDS
;	COMDAT ??$use_facet@V?$ctype@_W@std@@@std@@YAABV?$ctype@_W@0@ABVlocale@0@@Z
_TEXT	SEGMENT PARA USE32 PUBLIC 'CODE'
_TEXT	ENDS
;	COMDAT ??_S?$ctype@_W@std@@6B@
CONST	SEGMENT DWORD USE32 PUBLIC 'CONST'
CONST	ENDS
;	COMDAT ??_R4?$ctype@_W@std@@6B@
rdata$r	SEGMENT DWORD USE32 PUBLIC 'CONST'
rdata$r	ENDS
;	COMDAT ??_R0?AV?$ctype@_W@std@@@8
_DATA	SEGMENT DWORD USE32 PUBLIC 'DATA'
_DATA	ENDS
;	COMDAT ??_R3?$ctype@_W@std@@8
rdata$r	SEGMENT DWORD USE32 PUBLIC 'CONST'
rdata$r	ENDS
;	COMDAT ??_R2?$ctype@_W@std@@8
rdata$r	SEGMENT DWORD USE32 PUBLIC 'CONST'
rdata$r	ENDS
;	COMDAT ??_R1A@?0A@A@?$ctype@_W@std@@8
rdata$r	SEGMENT DWORD USE32 PUBLIC 'CONST'
rdata$r	ENDS
;	COMDAT ??_R1A@?0A@A@ctype_base@std@@8
rdata$r	SEGMENT DWORD USE32 PUBLIC 'CONST'
rdata$r	ENDS
;	COMDAT ??_R0?AUctype_base@std@@@8
_DATA	SEGMENT DWORD USE32 PUBLIC 'DATA'
_DATA	ENDS
;	COMDAT ??_G?$ctype@_W@std@@MAEPAXI@Z
_TEXT	SEGMENT PARA USE32 PUBLIC 'CODE'
_TEXT	ENDS
;	COMDAT ??_C@_08EPJLHIJG@bad?5cast?$AA@
CONST	SEGMENT DWORD USE32 PUBLIC 'CONST'
CONST	ENDS
;	COMDAT __TI2?AVbad_cast@@
xdata$x	SEGMENT DWORD USE32 PUBLIC 'CONST'
xdata$x	ENDS
;	COMDAT __CTA2?AVbad_cast@@
xdata$x	SEGMENT DWORD USE32 PUBLIC 'CONST'
xdata$x	ENDS
;	COMDAT __CT??_R0?AVbad_cast@@@8??0bad_cast@@QAE@ABV0@@Z12
xdata$x	SEGMENT DWORD USE32 PUBLIC 'CONST'
xdata$x	ENDS
;	COMDAT ??_R0?AVbad_cast@@@8
_DATA	SEGMENT DWORD USE32 PUBLIC 'DATA'
_DATA	ENDS
;	COMDAT __CT??_R0?AVexception@@@8??0exception@@QAE@ABV0@@Z12
xdata$x	SEGMENT DWORD USE32 PUBLIC 'CONST'
xdata$x	ENDS
;	COMDAT ??_R0?AVexception@@@8
_DATA	SEGMENT DWORD USE32 PUBLIC 'DATA'
_DATA	ENDS
;	COMDAT ??$use_facet@V?$ctype@D@std@@@std@@YAABV?$ctype@D@0@ABVlocale@0@@Z
_TEXT	SEGMENT PARA USE32 PUBLIC 'CODE'
_TEXT	ENDS
;	COMDAT ??_S?$ctype@D@std@@6B@
CONST	SEGMENT DWORD USE32 PUBLIC 'CONST'
CONST	ENDS
;	COMDAT ??_R4?$ctype@D@std@@6B@
rdata$r	SEGMENT DWORD USE32 PUBLIC 'CONST'
rdata$r	ENDS
;	COMDAT ??_R0?AV?$ctype@D@std@@@8
_DATA	SEGMENT DWORD USE32 PUBLIC 'DATA'
_DATA	ENDS
;	COMDAT ??_R3?$ctype@D@std@@8
rdata$r	SEGMENT DWORD USE32 PUBLIC 'CONST'
rdata$r	ENDS
;	COMDAT ??_R2?$ctype@D@std@@8
rdata$r	SEGMENT DWORD USE32 PUBLIC 'CONST'
rdata$r	ENDS
;	COMDAT ??_R1A@?0A@A@?$ctype@D@std@@8
rdata$r	SEGMENT DWORD USE32 PUBLIC 'CONST'
rdata$r	ENDS
;	COMDAT ??_G?$ctype@D@std@@MAEPAXI@Z
_TEXT	SEGMENT PARA USE32 PUBLIC 'CODE'
_TEXT	ENDS
;	COMDAT ??_S?$numpunct@_W@std@@6B@
CONST	SEGMENT DWORD USE32 PUBLIC 'CONST'
CONST	ENDS
;	COMDAT ??_S?$numpunct@D@std@@6B@
CONST	SEGMENT DWORD USE32 PUBLIC 'CONST'
CONST	ENDS
;	COMDAT _wmemmove
_TEXT	SEGMENT PARA USE32 PUBLIC 'CODE'
_TEXT	ENDS
;	COMDAT ?deallocate@?$allocator@_W@std@@QAEXPA_WI@Z
_TEXT	SEGMENT PARA USE32 PUBLIC 'CODE'
_TEXT	ENDS
;	COMDAT ??0?$allocator@_W@std@@QAE@ABV01@@Z
_TEXT	SEGMENT PARA USE32 PUBLIC 'CODE'
_TEXT	ENDS
;	COMDAT ?AtlThrow@ATL@@YGXJ@Z
_TEXT	SEGMENT PARA USE32 PUBLIC 'CODE'
_TEXT	ENDS
;	COMDAT ?IsShared@CStringData@ATL@@QBE_NXZ
_TEXT	SEGMENT PARA USE32 PUBLIC 'CODE'
_TEXT	ENDS
;	COMDAT ?data@CStringData@ATL@@QAEPAXXZ
_TEXT	SEGMENT PARA USE32 PUBLIC 'CODE'
_TEXT	ENDS
;	COMDAT ?Release@CStringData@ATL@@QAEXXZ
_TEXT	SEGMENT PARA USE32 PUBLIC 'CODE'
_TEXT	ENDS
;	COMDAT ??1IMessageObserver@@UAE@XZ
_TEXT	SEGMENT PARA USE32 PUBLIC 'CODE'
_TEXT	ENDS
;	COMDAT ??_7IMessageObserver@@6B@
CONST	SEGMENT DWORD USE32 PUBLIC 'CONST'
CONST	ENDS
;	COMDAT ??_R4IMessageObserver@@6B@
rdata$r	SEGMENT DWORD USE32 PUBLIC 'CONST'
rdata$r	ENDS
;	COMDAT ??_R0?AVIMessageObserver@@@8
_DATA	SEGMENT DWORD USE32 PUBLIC 'DATA'
_DATA	ENDS
;	COMDAT ??_R3IMessageObserver@@8
rdata$r	SEGMENT DWORD USE32 PUBLIC 'CONST'
rdata$r	ENDS
;	COMDAT ??_R2IMessageObserver@@8
rdata$r	SEGMENT DWORD USE32 PUBLIC 'CONST'
rdata$r	ENDS
;	COMDAT ??_R1A@?0A@A@IMessageObserver@@8
rdata$r	SEGMENT DWORD USE32 PUBLIC 'CONST'
rdata$r	ENDS
;	COMDAT ??_GIMessageObserver@@UAEPAXI@Z
_TEXT	SEGMENT PARA USE32 PUBLIC 'CODE'
_TEXT	ENDS
;	COMDAT ??0?$allocator@D@std@@QAE@ABV01@@Z
_TEXT	SEGMENT PARA USE32 PUBLIC 'CODE'
_TEXT	ENDS
;	COMDAT ??0?$allocator@D@std@@QAE@XZ
_TEXT	SEGMENT PARA USE32 PUBLIC 'CODE'
_TEXT	ENDS
;	COMDAT ?Create@CDialog@@UAEHIPAVCWnd@@@Z
_TEXT	SEGMENT PARA USE32 PUBLIC 'CODE'
_TEXT	ENDS
;	COMDAT ??0GdiplusStartupInput@Gdiplus@@QAE@P6GXW4DebugEventLevel@1@PAD@ZHH@Z
_TEXT	SEGMENT PARA USE32 PUBLIC 'CODE'
_TEXT	ENDS
;	COMDAT ?IsLocked@CStringData@ATL@@QBE_NXZ
_TEXT	SEGMENT PARA USE32 PUBLIC 'CODE'
_TEXT	ENDS
;	COMDAT ??3CObject@@SGXPAX@Z
_TEXT	SEGMENT PARA USE32 PUBLIC 'CODE'
_TEXT	ENDS
;	COMDAT ?GetDefaultManager@?$StrTraitMFC_DLL@DV?$ChTraitsCRT@D@ATL@@@@SAPAUIAtlStringMgr@ATL@@XZ
_TEXT	SEGMENT PARA USE32 PUBLIC 'CODE'
_TEXT	ENDS
;	COMDAT ??_7CPlayBoxApp@@6B@
CONST	SEGMENT DWORD USE32 PUBLIC 'CONST'
CONST	ENDS
;	COMDAT ?_messageEntries@CPlayBoxApp@@0QBUAFX_MSGMAP_ENTRY@@B
CONST	SEGMENT DWORD USE32 PUBLIC 'CONST'
CONST	ENDS
;	COMDAT ?messageMap@CPlayBoxApp@@1UAFX_MSGMAP@@B
CONST	SEGMENT DWORD USE32 PUBLIC 'CONST'
CONST	ENDS
;	COMDAT ?c_bIsMFCDLLTraits@?$_MFCDLLTraitsCheck@_WV?$StrTraitATL@_WV?$ChTraitsCRT@_W@ATL@@@ATL@@@_CSTRING_IMPL_@ATL@@2_NB
CONST	SEGMENT DWORD USE32 PUBLIC 'CONST'
CONST	ENDS
;	COMDAT ?c_bIsMFCDLLTraits@?$_MFCDLLTraitsCheck@DV?$StrTraitATL@DV?$ChTraitsCRT@D@ATL@@@ATL@@@_CSTRING_IMPL_@ATL@@2_NB
CONST	SEGMENT DWORD USE32 PUBLIC 'CONST'
CONST	ENDS
;	COMDAT ?_AtlGetConversionACP@ATL@@YGIXZ
_TEXT	SEGMENT PARA USE32 PUBLIC 'CODE'
_TEXT	ENDS
;	COMDAT ?g_pfnGetThreadACP@ATL@@3P6GIXZA
_DATA	SEGMENT DWORD USE32 PUBLIC 'DATA'
_DATA	ENDS
;	COMDAT ?_AtlGetThreadACPThunk@ATL@@YGIXZ
_TEXT	SEGMENT PARA USE32 PUBLIC 'CODE'
_TEXT	ENDS
;	COMDAT ?_AtlGetThreadACPReal@ATL@@YGIXZ
_TEXT	SEGMENT PARA USE32 PUBLIC 'CODE'
_TEXT	ENDS
;	COMDAT ?_AtlGetThreadACPFake@ATL@@YGIXZ
_TEXT	SEGMENT PARA USE32 PUBLIC 'CODE'
_TEXT	ENDS
;	COMDAT ?InterlockedExchangePointer@@YGPAXPAPAXPAX@Z
_TEXT	SEGMENT PARA USE32 PUBLIC 'CODE'
_TEXT	ENDS
;	COMDAT ?_strthunks@ATL@@3U_AtlStringThunks@1@A
_DATA	SEGMENT DWORD USE32 PUBLIC 'DATA'
_DATA	ENDS
;	COMDAT ?CompareStringWThunk@ATL@@YGHKKPB_WH0H@Z
_TEXT	SEGMENT PARA USE32 PUBLIC 'CODE'
_TEXT	ENDS
;	COMDAT ?_AtlInstallStringThunk@ATL@@YAXPAPAXPAX1@Z
_TEXT	SEGMENT PARA USE32 PUBLIC 'CODE'
_TEXT	ENDS
;	COMDAT ??_B?1??_AtlInstallStringThunk@ATL@@YAXPAPAXPAX1@Z@51
_BSS	SEGMENT DWORD USE32 PUBLIC 'BSS'
_BSS	ENDS
;	COMDAT ?s_bWin9x@?1??_AtlInstallStringThunk@ATL@@YAXPAPAXPAX1@Z@4_NA
_BSS	SEGMENT DWORD USE32 PUBLIC 'BSS'
_BSS	ENDS
;	COMDAT ?CompareStringWFake@ATL@@YGHKKPB_WH0H@Z
_TEXT	SEGMENT PARA USE32 PUBLIC 'CODE'
_TEXT	ENDS
;	COMDAT ??0?$CAtlSafeAllocBufferManager@VCCRTAllocator@ATL@@@_ATL_SAFE_ALLOCA_IMPL@ATL@@QAE@XZ
_TEXT	SEGMENT PARA USE32 PUBLIC 'CODE'
_TEXT	ENDS
;	COMDAT ??1?$CAtlSafeAllocBufferManager@VCCRTAllocator@ATL@@@_ATL_SAFE_ALLOCA_IMPL@ATL@@QAE@XZ
_TEXT	SEGMENT PARA USE32 PUBLIC 'CODE'
_TEXT	ENDS
;	COMDAT ?Free@CCRTAllocator@ATL@@SAXPAX@Z
_TEXT	SEGMENT PARA USE32 PUBLIC 'CODE'
_TEXT	ENDS
;	COMDAT ?AtlW2AHelper@@YGPADPADPB_WHI@Z
_TEXT	SEGMENT PARA USE32 PUBLIC 'CODE'
_TEXT	ENDS
;	COMDAT ?_AtlVerifyStackAvailable@_ATL_SAFE_ALLOCA_IMPL@ATL@@YA_NK@Z
_TEXT	SEGMENT PARA USE32 PUBLIC 'CODE'
_TEXT	ENDS
;	COMDAT ?Allocate@?$CAtlSafeAllocBufferManager@VCCRTAllocator@ATL@@@_ATL_SAFE_ALLOCA_IMPL@ATL@@QAEPAXK@Z
_TEXT	SEGMENT PARA USE32 PUBLIC 'CODE'
_TEXT	ENDS
;	COMDAT ?Allocate@CCRTAllocator@ATL@@SAPAXI@Z
_TEXT	SEGMENT PARA USE32 PUBLIC 'CODE'
_TEXT	ENDS
;	COMDAT ?GetData@CAtlSafeAllocBufferNode@?$CAtlSafeAllocBufferManager@VCCRTAllocator@ATL@@@_ATL_SAFE_ALLOCA_IMPL@ATL@@QAEPAXXZ
_TEXT	SEGMENT PARA USE32 PUBLIC 'CODE'
_TEXT	ENDS
;	COMDAT ?GetStringTypeExWThunk@ATL@@YGHKKPB_WHPAG@Z
_TEXT	SEGMENT PARA USE32 PUBLIC 'CODE'
_TEXT	ENDS
;	COMDAT ?GetStringTypeExWFake@ATL@@YGHKKPB_WHPAG@Z
_TEXT	SEGMENT PARA USE32 PUBLIC 'CODE'
_TEXT	ENDS
;	COMDAT ??0?$CTempBuffer@D$0IA@VCCRTAllocator@ATL@@@ATL@@QAE@XZ
_TEXT	SEGMENT PARA USE32 PUBLIC 'CODE'
_TEXT	ENDS
;	COMDAT ??1?$CTempBuffer@D$0IA@VCCRTAllocator@ATL@@@ATL@@QAE@XZ
_TEXT	SEGMENT PARA USE32 PUBLIC 'CODE'
_TEXT	ENDS
;	COMDAT ?FreeHeap@?$CTempBuffer@D$0IA@VCCRTAllocator@ATL@@@ATL@@AAEXXZ
_TEXT	SEGMENT PARA USE32 PUBLIC 'CODE'
_TEXT	ENDS
;	COMDAT ?Allocate@?$CTempBuffer@D$0IA@VCCRTAllocator@ATL@@@ATL@@QAEPADI@Z
_TEXT	SEGMENT PARA USE32 PUBLIC 'CODE'
_TEXT	ENDS
;	COMDAT ?AllocateBytes@?$CTempBuffer@D$0IA@VCCRTAllocator@ATL@@@ATL@@QAEPADI@Z
_TEXT	SEGMENT PARA USE32 PUBLIC 'CODE'
_TEXT	ENDS
;	COMDAT ?AllocateHeap@?$CTempBuffer@D$0IA@VCCRTAllocator@ATL@@@ATL@@AAEXI@Z
_TEXT	SEGMENT PARA USE32 PUBLIC 'CODE'
_TEXT	ENDS
;	COMDAT ??B?$CTempBuffer@D$0IA@VCCRTAllocator@ATL@@@ATL@@QBEPADXZ
_TEXT	SEGMENT PARA USE32 PUBLIC 'CODE'
_TEXT	ENDS
;	COMDAT ?lstrcmpiWThunk@ATL@@YGHPB_W0@Z
_TEXT	SEGMENT PARA USE32 PUBLIC 'CODE'
_TEXT	ENDS
;	COMDAT ?lstrcmpiWFake@ATL@@YGHPB_W0@Z
_TEXT	SEGMENT PARA USE32 PUBLIC 'CODE'
_TEXT	ENDS
;	COMDAT ?CharLowerWThunk@ATL@@YGPA_WPA_W@Z
_TEXT	SEGMENT PARA USE32 PUBLIC 'CODE'
_TEXT	ENDS
;	COMDAT ?CharLowerWFake@ATL@@YGPA_WPA_W@Z
_TEXT	SEGMENT PARA USE32 PUBLIC 'CODE'
_TEXT	ENDS
;	COMDAT ?AtlA2WHelper@@YGPA_WPA_WPBDHI@Z
_TEXT	SEGMENT PARA USE32 PUBLIC 'CODE'
_TEXT	ENDS
;	COMDAT ?CharUpperWThunk@ATL@@YGPA_WPA_W@Z
_TEXT	SEGMENT PARA USE32 PUBLIC 'CODE'
_TEXT	ENDS
;	COMDAT ?CharUpperWFake@ATL@@YGPA_WPA_W@Z
_TEXT	SEGMENT PARA USE32 PUBLIC 'CODE'
_TEXT	ENDS
;	COMDAT ?GetEnvironmentVariableWThunk@ATL@@YGKPB_WPA_WK@Z
_TEXT	SEGMENT PARA USE32 PUBLIC 'CODE'
_TEXT	ENDS
;	COMDAT ?GetEnvironmentVariableWFake@ATL@@YGKPB_WPA_WK@Z
_TEXT	SEGMENT PARA USE32 PUBLIC 'CODE'
_TEXT	ENDS
;	COMDAT ??0?$CW2AEX@$0IA@@ATL@@QAE@PB_W@Z
_TEXT	SEGMENT PARA USE32 PUBLIC 'CODE'
_TEXT	ENDS
;	COMDAT ?Init@?$CW2AEX@$0IA@@ATL@@AAEXPB_WI@Z
_TEXT	SEGMENT PARA USE32 PUBLIC 'CODE'
_TEXT	ENDS
;	COMDAT ?AtlThrowLastWin32@ATL@@YGXXZ
_TEXT	SEGMENT PARA USE32 PUBLIC 'CODE'
_TEXT	ENDS
;	COMDAT ??1?$CW2AEX@$0IA@@ATL@@QAE@XZ
_TEXT	SEGMENT PARA USE32 PUBLIC 'CODE'
_TEXT	ENDS
;	COMDAT ??B?$CW2AEX@$0IA@@ATL@@QBEPADXZ
_TEXT	SEGMENT PARA USE32 PUBLIC 'CODE'
_TEXT	ENDS
;	COMDAT ?AddRef@CStringData@ATL@@QAEXXZ
_TEXT	SEGMENT PARA USE32 PUBLIC 'CODE'
_TEXT	ENDS
;	COMDAT ?SetManager@CNilStringData@ATL@@QAEXPAUIAtlStringMgr@2@@Z
_TEXT	SEGMENT PARA USE32 PUBLIC 'CODE'
_TEXT	ENDS
;	COMDAT ??0CNilStringData@ATL@@QAE@XZ
_TEXT	SEGMENT PARA USE32 PUBLIC 'CODE'
_TEXT	ENDS
;	COMDAT ??_7CAtlStringMgr@ATL@@6B@
CONST	SEGMENT DWORD USE32 PUBLIC 'CONST'
CONST	ENDS
;	COMDAT ?AfxGetApp@@YGPAVCWinApp@@XZ
_TEXT	SEGMENT PARA USE32 PUBLIC 'CODE'
_TEXT	ENDS
;	COMDAT ?LoadIconA@CWinApp@@QBEPAUHICON__@@PBD@Z
_TEXT	SEGMENT PARA USE32 PUBLIC 'CODE'
_TEXT	ENDS
;	COMDAT ?GetSafeHwnd@CWnd@@QBEPAUHWND__@@XZ
_TEXT	SEGMENT PARA USE32 PUBLIC 'CODE'
_TEXT	ENDS
sxdata	SEGMENT DWORD USE32 'SXDATA'
sxdata	ENDS
FLAT	GROUP _DATA, CONST, _BSS, SHARED
	ASSUME	CS: FLAT, DS: FLAT, SS: FLAT
endif

INCLUDELIB MSVCRT
INCLUDELIB OLDNAMES

PUBLIC	?c_bIsMFCDLLTraits@?$_MFCDLLTraitsCheck@_WV?$StrTraitATL@_WV?$ChTraitsCRT@_W@ATL@@@ATL@@@_CSTRING_IMPL_@ATL@@2_NB ; ATL::_CSTRING_IMPL_::_MFCDLLTraitsCheck<wchar_t,ATL::StrTraitATL<wchar_t,ATL::ChTraitsCRT<wchar_t> > >::c_bIsMFCDLLTraits
PUBLIC	?_strthunks@ATL@@3U_AtlStringThunks@1@A		; ATL::_strthunks
PUBLIC	?g_hSharedWnd@@3PAUHWND__@@A			; g_hSharedWnd
PUBLIC	?GetEnvironmentVariableWThunk@ATL@@YGKPB_WPA_WK@Z ; ATL::GetEnvironmentVariableWThunk
PUBLIC	?CompareStringWThunk@ATL@@YGHKKPB_WH0H@Z	; ATL::CompareStringWThunk
PUBLIC	?GetStringTypeExWThunk@ATL@@YGHKKPB_WHPAG@Z	; ATL::GetStringTypeExWThunk
PUBLIC	?lstrcmpiWThunk@ATL@@YGHPB_W0@Z			; ATL::lstrcmpiWThunk
PUBLIC	?CharLowerWThunk@ATL@@YGPA_WPA_W@Z		; ATL::CharLowerWThunk
PUBLIC	?CharUpperWThunk@ATL@@YGPA_WPA_W@Z		; ATL::CharUpperWThunk
PUBLIC	?g_pfnGetThreadACP@ATL@@3P6GIXZA		; ATL::g_pfnGetThreadACP
PUBLIC	?_AtlGetThreadACPThunk@ATL@@YGIXZ		; ATL::_AtlGetThreadACPThunk
PUBLIC	?c_bIsMFCDLLTraits@?$_MFCDLLTraitsCheck@DV?$StrTraitATL@DV?$ChTraitsCRT@D@ATL@@@ATL@@@_CSTRING_IMPL_@ATL@@2_NB ; ATL::_CSTRING_IMPL_::_MFCDLLTraitsCheck<char,ATL::StrTraitATL<char,ATL::ChTraitsCRT<char> > >::c_bIsMFCDLLTraits
PUBLIC	?_messageEntries@CPlayBoxApp@@0QBUAFX_MSGMAP_ENTRY@@B ; CPlayBoxApp::_messageEntries
PUBLIC	?messageMap@CPlayBoxApp@@1UAFX_MSGMAP@@B	; CPlayBoxApp::messageMap
EXTRN	?GetThisMessageMap@CWinApp@@KGPBUAFX_MSGMAP@@XZ:NEAR ; CWinApp::GetThisMessageMap
;	COMDAT ?c_bIsMFCDLLTraits@?$_MFCDLLTraitsCheck@DV?$StrTraitATL@DV?$ChTraitsCRT@D@ATL@@@ATL@@@_CSTRING_IMPL_@ATL@@2_NB
CONST	SEGMENT
?c_bIsMFCDLLTraits@?$_MFCDLLTraitsCheck@DV?$StrTraitATL@DV?$ChTraitsCRT@D@ATL@@@ATL@@@_CSTRING_IMPL_@ATL@@2_NB DB 00H ; ATL::_CSTRING_IMPL_::_MFCDLLTraitsCheck<char,ATL::StrTraitATL<char,ATL::ChTraitsCRT<char> > >::c_bIsMFCDLLTraits
CONST	ENDS
;	COMDAT ?c_bIsMFCDLLTraits@?$_MFCDLLTraitsCheck@_WV?$StrTraitATL@_WV?$ChTraitsCRT@_W@ATL@@@ATL@@@_CSTRING_IMPL_@ATL@@2_NB
CONST	SEGMENT
?c_bIsMFCDLLTraits@?$_MFCDLLTraitsCheck@_WV?$StrTraitATL@_WV?$ChTraitsCRT@_W@ATL@@@ATL@@@_CSTRING_IMPL_@ATL@@2_NB DB 00H ; ATL::_CSTRING_IMPL_::_MFCDLLTraitsCheck<wchar_t,ATL::StrTraitATL<wchar_t,ATL::ChTraitsCRT<wchar_t> > >::c_bIsMFCDLLTraits
CONST	ENDS
SHARED	SEGMENT
?g_hSharedWnd@@3PAUHWND__@@A DD 00H			; g_hSharedWnd
SHARED	ENDS
;	COMDAT ?_messageEntries@CPlayBoxApp@@0QBUAFX_MSGMAP_ENTRY@@B
CONST	SEGMENT
?_messageEntries@CPlayBoxApp@@0QBUAFX_MSGMAP_ENTRY@@B DD 00H ; CPlayBoxApp::_messageEntries
	DD	00H
	DD	00H
	DD	00H
	DD	00H
	DD	00H
CONST	ENDS
;	COMDAT ?messageMap@CPlayBoxApp@@1UAFX_MSGMAP@@B
CONST	SEGMENT
?messageMap@CPlayBoxApp@@1UAFX_MSGMAP@@B DD FLAT:?GetThisMessageMap@CWinApp@@KGPBUAFX_MSGMAP@@XZ ; CPlayBoxApp::messageMap
	DD	FLAT:?_messageEntries@CPlayBoxApp@@0QBUAFX_MSGMAP_ENTRY@@B
CONST	ENDS
CONST	SEGMENT
$SG199822 DB	'PBMutex', 00H
$SG199826 DB	'%s', 00H
	ORG $+1
$SG199827 DB	'commandline', 00H
$SG199828 DB	'debug.txt', 00H
	ORG $+2
$SG199830 DB	'startuprun', 00H
	ORG $+1
$SG199832 DB	'GdiPlus.dll', 00H
$SG199846 DB	'YPLAYBOX_2011_3_3', 00H
	ORG $+2
$SG199849 DB	'PBMutex', 00H
$SG199852 DB	'PlayGame', 00H
	ORG $+3
$SG199853 DB	0d3H, 0a6H, 0d3H, 0c3H, 0b3H, 0ccH, 0d0H, 0f2H, 0cfH, 0f2H
	DB	0b5H, 0bcH, 0c9H, 0faH, 0b3H, 0c9H, 0b5H, 0c4H, 0b1H, 0beH, 0b5H
	DB	0d8H, 0d3H, 0a6H, 0d3H, 0c3H, 0b3H, 0ccH, 0d0H, 0f2H, 00H
	ORG $+1
$SG199857 DB	'AutoRun:%d', 00H
	ORG $+1
$SG199860 DB	'AppStart', 00H
	ORG $+3
$SG199890 DB	'PlayBox.exe', 00H
$SG199908 DB	'PlayBox.exe', 00H
$SG199915 DB	'taskkill /f /pid %d', 00H
CONST	ENDS
;	COMDAT ?g_pfnGetThreadACP@ATL@@3P6GIXZA
_DATA	SEGMENT
?g_pfnGetThreadACP@ATL@@3P6GIXZA DD FLAT:?_AtlGetThreadACPThunk@ATL@@YGIXZ ; ATL::g_pfnGetThreadACP
_DATA	ENDS
;	COMDAT ?_strthunks@ATL@@3U_AtlStringThunks@1@A
_DATA	SEGMENT
?_strthunks@ATL@@3U_AtlStringThunks@1@A DD FLAT:?CompareStringWThunk@ATL@@YGHKKPB_WH0H@Z ; ATL::_strthunks
	DD	FLAT:?GetStringTypeExWThunk@ATL@@YGHKKPB_WHPAG@Z
	DD	FLAT:?lstrcmpiWThunk@ATL@@YGHPB_W0@Z
	DD	FLAT:?CharLowerWThunk@ATL@@YGPA_WPA_W@Z
	DD	FLAT:?CharUpperWThunk@ATL@@YGPA_WPA_W@Z
	DD	FLAT:?GetEnvironmentVariableWThunk@ATL@@YGKPB_WPA_WK@Z
_DATA	ENDS
PUBLIC	?GetThisMessageMap@CPlayBoxApp@@KGPBUAFX_MSGMAP@@XZ ; CPlayBoxApp::GetThisMessageMap
; Function compile flags: /Odt
; File d:\boxgit\playbox\playbox\dev\prj\playbox\playbox.cpp
_TEXT	SEGMENT
?GetThisMessageMap@CPlayBoxApp@@KGPBUAFX_MSGMAP@@XZ PROC NEAR ; CPlayBoxApp::GetThisMessageMap

; 29   : BEGIN_MESSAGE_MAP(CPlayBoxApp, CWinApp)

  00000	55		 push	 ebp
  00001	8b ec		 mov	 ebp, esp
  00003	b8 00 00 00 00	 mov	 eax, OFFSET FLAT:?messageMap@CPlayBoxApp@@1UAFX_MSGMAP@@B ; CPlayBoxApp::messageMap
  00008	5d		 pop	 ebp
  00009	c3		 ret	 0
?GetThisMessageMap@CPlayBoxApp@@KGPBUAFX_MSGMAP@@XZ ENDP ; CPlayBoxApp::GetThisMessageMap
_TEXT	ENDS
PUBLIC	?GetMessageMap@CPlayBoxApp@@MBEPBUAFX_MSGMAP@@XZ ; CPlayBoxApp::GetMessageMap
; Function compile flags: /Odt
_TEXT	SEGMENT
_this$ = -4						; size = 4
?GetMessageMap@CPlayBoxApp@@MBEPBUAFX_MSGMAP@@XZ PROC NEAR ; CPlayBoxApp::GetMessageMap
; _this$ = ecx

; 29   : BEGIN_MESSAGE_MAP(CPlayBoxApp, CWinApp)

  00010	55		 push	 ebp
  00011	8b ec		 mov	 ebp, esp
  00013	51		 push	 ecx
  00014	89 4d fc	 mov	 DWORD PTR _this$[ebp], ecx
  00017	b8 00 00 00 00	 mov	 eax, OFFSET FLAT:?messageMap@CPlayBoxApp@@1UAFX_MSGMAP@@B ; CPlayBoxApp::messageMap
  0001c	8b e5		 mov	 esp, ebp
  0001e	5d		 pop	 ebp
  0001f	c3		 ret	 0
?GetMessageMap@CPlayBoxApp@@MBEPBUAFX_MSGMAP@@XZ ENDP	; CPlayBoxApp::GetMessageMap
_TEXT	ENDS
PUBLIC	??_R1A@?0A@A@CObject@@8				; CObject::`RTTI Base Class Descriptor at (0,-1,0,0)'
PUBLIC	??_R0?AVCObject@@@8				; CObject `RTTI Type Descriptor'
PUBLIC	??_R1A@?0A@A@CCmdTarget@@8			; CCmdTarget::`RTTI Base Class Descriptor at (0,-1,0,0)'
PUBLIC	??_R0?AVCCmdTarget@@@8				; CCmdTarget `RTTI Type Descriptor'
PUBLIC	?Serialize@CObject@@UAEXAAVCArchive@@@Z		; CObject::Serialize
PUBLIC	?AssertValid@CObject@@UBEXXZ			; CObject::AssertValid
PUBLIC	?Dump@CObject@@UBEXAAVCDumpContext@@@Z		; CObject::Dump
PUBLIC	??_R4CPlayBoxApp@@6B@				; CPlayBoxApp::`RTTI Complete Object Locator'
PUBLIC	??_R0?AVCPlayBoxApp@@@8				; CPlayBoxApp `RTTI Type Descriptor'
PUBLIC	??_R3CPlayBoxApp@@8				; CPlayBoxApp::`RTTI Class Hierarchy Descriptor'
PUBLIC	??_R2CPlayBoxApp@@8				; CPlayBoxApp::`RTTI Base Class Array'
PUBLIC	??_R1A@?0A@A@CPlayBoxApp@@8			; CPlayBoxApp::`RTTI Base Class Descriptor at (0,-1,0,0)'
PUBLIC	??_R1A@?0A@A@CWinApp@@8				; CWinApp::`RTTI Base Class Descriptor at (0,-1,0,0)'
PUBLIC	??_R0?AVCWinApp@@@8				; CWinApp `RTTI Type Descriptor'
PUBLIC	??_R1A@?0A@A@CWinThread@@8			; CWinThread::`RTTI Base Class Descriptor at (0,-1,0,0)'
PUBLIC	??_R0?AVCWinThread@@@8				; CWinThread `RTTI Type Descriptor'
PUBLIC	??0CPlayBoxApp@@QAE@XZ				; CPlayBoxApp::CPlayBoxApp
PUBLIC	?InitInstance@CPlayBoxApp@@UAEHXZ		; CPlayBoxApp::InitInstance
PUBLIC	?ExitInstance@CPlayBoxApp@@MAEHXZ		; CPlayBoxApp::ExitInstance
PUBLIC	??_7CPlayBoxApp@@6B@				; CPlayBoxApp::`vftable'
PUBLIC	??_GCPlayBoxApp@@UAEPAXI@Z			; CPlayBoxApp::`scalar deleting destructor'
EXTRN	?Run@CWinApp@@UAEHXZ:NEAR			; CWinApp::Run
EXTRN	?OnIdle@CWinApp@@UAEHJ@Z:NEAR			; CWinApp::OnIdle
EXTRN	?ProcessWndProcException@CWinApp@@UAEJPAVCException@@PBUtagMSG@@@Z:NEAR ; CWinApp::ProcessWndProcException
EXTRN	?LoadAppLangResourceDLL@CWinApp@@UAEPAUHINSTANCE__@@XZ:NEAR ; CWinApp::LoadAppLangResourceDLL
EXTRN	?LoadSysPolicies@CWinApp@@UAEHXZ:NEAR		; CWinApp::LoadSysPolicies
EXTRN	__imp_??0?$CStringT@DV?$StrTraitMFC_DLL@DV?$ChTraitsCRT@D@ATL@@@@@ATL@@QAE@XZ:NEAR
EXTRN	?OnCmdMsg@CCmdTarget@@UAEHIHPAXPAUAFX_CMDHANDLERINFO@@@Z:NEAR ; CCmdTarget::OnCmdMsg
EXTRN	?OnFinalRelease@CCmdTarget@@UAEXXZ:NEAR		; CCmdTarget::OnFinalRelease
EXTRN	?IsInvokeAllowed@CCmdTarget@@UAEHJ@Z:NEAR	; CCmdTarget::IsInvokeAllowed
EXTRN	?GetDispatchIID@CCmdTarget@@UAEHPAU_GUID@@@Z:NEAR ; CCmdTarget::GetDispatchIID
EXTRN	?GetTypeInfoCount@CCmdTarget@@UAEIXZ:NEAR	; CCmdTarget::GetTypeInfoCount
EXTRN	?GetTypeLibCache@CCmdTarget@@UAEPAVCTypeLibCache@@XZ:NEAR ; CCmdTarget::GetTypeLibCache
EXTRN	?GetTypeLib@CCmdTarget@@UAEJKPAPAUITypeLib@@@Z:NEAR ; CCmdTarget::GetTypeLib
EXTRN	?GetCommandMap@CCmdTarget@@MBEPBUAFX_OLECMDMAP@@XZ:NEAR ; CCmdTarget::GetCommandMap
EXTRN	?GetDispatchMap@CCmdTarget@@MBEPBUAFX_DISPMAP@@XZ:NEAR ; CCmdTarget::GetDispatchMap
EXTRN	?GetConnectionMap@CCmdTarget@@MBEPBUAFX_CONNECTIONMAP@@XZ:NEAR ; CCmdTarget::GetConnectionMap
EXTRN	?GetInterfaceMap@CCmdTarget@@MBEPBUAFX_INTERFACEMAP@@XZ:NEAR ; CCmdTarget::GetInterfaceMap
EXTRN	?GetEventSinkMap@CCmdTarget@@MBEPBUAFX_EVENTSINKMAP@@XZ:NEAR ; CCmdTarget::GetEventSinkMap
EXTRN	?OnCreateAggregates@CCmdTarget@@UAEHXZ:NEAR	; CCmdTarget::OnCreateAggregates
EXTRN	?GetInterfaceHook@CCmdTarget@@UAEPAUIUnknown@@PBX@Z:NEAR ; CCmdTarget::GetInterfaceHook
EXTRN	?PreTranslateMessage@CWinThread@@UAEHPAUtagMSG@@@Z:NEAR ; CWinThread::PreTranslateMessage
EXTRN	?PumpMessage@CWinThread@@UAEHXZ:NEAR		; CWinThread::PumpMessage
EXTRN	?IsIdleMessage@CWinThread@@UAEHPAUtagMSG@@@Z:NEAR ; CWinThread::IsIdleMessage
EXTRN	?ProcessMessageFilter@CWinThread@@UAEHHPAUtagMSG@@@Z:NEAR ; CWinThread::ProcessMessageFilter
EXTRN	?GetMainWnd@CWinThread@@UAEPAVCWnd@@XZ:NEAR	; CWinThread::GetMainWnd
EXTRN	?GetExtraConnectionPoints@CCmdTarget@@MAEHPAVCPtrArray@@@Z:NEAR ; CCmdTarget::GetExtraConnectionPoints
EXTRN	?Delete@CWinThread@@UAEXXZ:NEAR			; CWinThread::Delete
EXTRN	?GetConnectionHook@CCmdTarget@@MAEPAUIConnectionPoint@@ABU_GUID@@@Z:NEAR ; CCmdTarget::GetConnectionHook
EXTRN	??_ECPlayBoxApp@@UAEPAXI@Z:NEAR			; CPlayBoxApp::`vector deleting destructor'
EXTRN	?GetRuntimeClass@CWinApp@@UBEPAUCRuntimeClass@@XZ:NEAR ; CWinApp::GetRuntimeClass
EXTRN	??0CWinApp@@QAE@PBD@Z:NEAR			; CWinApp::CWinApp
EXTRN	?InitLibId@CWinApp@@UAEXXZ:NEAR			; CWinApp::InitLibId
EXTRN	?Register@CWinApp@@UAEHXZ:NEAR			; CWinApp::Register
EXTRN	?Unregister@CWinApp@@UAEHXZ:NEAR		; CWinApp::Unregister
EXTRN	??_7type_info@@6B@:QWORD			; type_info::`vftable'
EXTRN	?OpenDocumentFile@CWinApp@@UAEPAVCDocument@@PBD@Z:NEAR ; CWinApp::OpenDocumentFile
EXTRN	?AddToRecentFileList@CWinApp@@UAEXPBD@Z:NEAR	; CWinApp::AddToRecentFileList
EXTRN	?InitApplication@CWinApp@@UAEHXZ:NEAR		; CWinApp::InitApplication
EXTRN	?SaveAllModified@CWinApp@@UAEHXZ:NEAR		; CWinApp::SaveAllModified
EXTRN	?DoMessageBox@CWinApp@@UAEHPBDII@Z:NEAR		; CWinApp::DoMessageBox
EXTRN	?DoWaitCursor@CWinApp@@UAEXH@Z:NEAR		; CWinApp::DoWaitCursor
EXTRN	?OnDDECommand@CWinApp@@UAEHPAD@Z:NEAR		; CWinApp::OnDDECommand
EXTRN	?WinHelpA@CWinApp@@UAEXKI@Z:NEAR		; CWinApp::WinHelpA
EXTRN	?HtmlHelpA@CWinApp@@UAEXKI@Z:NEAR		; CWinApp::HtmlHelpA
EXTRN	?WinHelpInternal@CWinApp@@UAEXKI@Z:NEAR		; CWinApp::WinHelpInternal
;	COMDAT ??_7CPlayBoxApp@@6B@
CONST	SEGMENT
??_7CPlayBoxApp@@6B@ DD FLAT:??_R4CPlayBoxApp@@6B@	; CPlayBoxApp::`vftable'
	DD	FLAT:?GetRuntimeClass@CWinApp@@UBEPAUCRuntimeClass@@XZ
	DD	FLAT:??_ECPlayBoxApp@@UAEPAXI@Z
	DD	FLAT:?Serialize@CObject@@UAEXAAVCArchive@@@Z
	DD	FLAT:?AssertValid@CObject@@UBEXXZ
	DD	FLAT:?Dump@CObject@@UBEXAAVCDumpContext@@@Z
	DD	FLAT:?OnCmdMsg@CCmdTarget@@UAEHIHPAXPAUAFX_CMDHANDLERINFO@@@Z
	DD	FLAT:?OnFinalRelease@CCmdTarget@@UAEXXZ
	DD	FLAT:?IsInvokeAllowed@CCmdTarget@@UAEHJ@Z
	DD	FLAT:?GetDispatchIID@CCmdTarget@@UAEHPAU_GUID@@@Z
	DD	FLAT:?GetTypeInfoCount@CCmdTarget@@UAEIXZ
	DD	FLAT:?GetTypeLibCache@CCmdTarget@@UAEPAVCTypeLibCache@@XZ
	DD	FLAT:?GetTypeLib@CCmdTarget@@UAEJKPAPAUITypeLib@@@Z
	DD	FLAT:?GetMessageMap@CPlayBoxApp@@MBEPBUAFX_MSGMAP@@XZ
	DD	FLAT:?GetCommandMap@CCmdTarget@@MBEPBUAFX_OLECMDMAP@@XZ
	DD	FLAT:?GetDispatchMap@CCmdTarget@@MBEPBUAFX_DISPMAP@@XZ
	DD	FLAT:?GetConnectionMap@CCmdTarget@@MBEPBUAFX_CONNECTIONMAP@@XZ
	DD	FLAT:?GetInterfaceMap@CCmdTarget@@MBEPBUAFX_INTERFACEMAP@@XZ
	DD	FLAT:?GetEventSinkMap@CCmdTarget@@MBEPBUAFX_EVENTSINKMAP@@XZ
	DD	FLAT:?OnCreateAggregates@CCmdTarget@@UAEHXZ
	DD	FLAT:?GetInterfaceHook@CCmdTarget@@UAEPAUIUnknown@@PBX@Z
	DD	FLAT:?GetExtraConnectionPoints@CCmdTarget@@MAEHPAVCPtrArray@@@Z
	DD	FLAT:?GetConnectionHook@CCmdTarget@@MAEPAUIConnectionPoint@@ABU_GUID@@@Z
	DD	FLAT:?InitInstance@CPlayBoxApp@@UAEHXZ
	DD	FLAT:?Run@CWinApp@@UAEHXZ
	DD	FLAT:?PreTranslateMessage@CWinThread@@UAEHPAUtagMSG@@@Z
	DD	FLAT:?PumpMessage@CWinThread@@UAEHXZ
	DD	FLAT:?OnIdle@CWinApp@@UAEHJ@Z
	DD	FLAT:?IsIdleMessage@CWinThread@@UAEHPAUtagMSG@@@Z
	DD	FLAT:?ExitInstance@CPlayBoxApp@@MAEHXZ
	DD	FLAT:?ProcessWndProcException@CWinApp@@UAEJPAVCException@@PBUtagMSG@@@Z
	DD	FLAT:?ProcessMessageFilter@CWinThread@@UAEHHPAUtagMSG@@@Z
	DD	FLAT:?GetMainWnd@CWinThread@@UAEPAVCWnd@@XZ
	DD	FLAT:?Delete@CWinThread@@UAEXXZ
	DD	FLAT:?InitLibId@CWinApp@@UAEXXZ
	DD	FLAT:?Register@CWinApp@@UAEHXZ
	DD	FLAT:?Unregister@CWinApp@@UAEHXZ
	DD	FLAT:?OpenDocumentFile@CWinApp@@UAEPAVCDocument@@PBD@Z
	DD	FLAT:?AddToRecentFileList@CWinApp@@UAEXPBD@Z
	DD	FLAT:?InitApplication@CWinApp@@UAEHXZ
	DD	FLAT:?SaveAllModified@CWinApp@@UAEHXZ
	DD	FLAT:?DoMessageBox@CWinApp@@UAEHPBDII@Z
	DD	FLAT:?DoWaitCursor@CWinApp@@UAEXH@Z
	DD	FLAT:?OnDDECommand@CWinApp@@UAEHPAD@Z
	DD	FLAT:?WinHelpA@CWinApp@@UAEXKI@Z
	DD	FLAT:?HtmlHelpA@CWinApp@@UAEXKI@Z
	DD	FLAT:?WinHelpInternal@CWinApp@@UAEXKI@Z
	DD	FLAT:?LoadAppLangResourceDLL@CWinApp@@UAEPAUHINSTANCE__@@XZ
	DD	FLAT:?LoadSysPolicies@CWinApp@@UAEHXZ
CONST	ENDS
;	COMDAT ??_R4CPlayBoxApp@@6B@
rdata$r	SEGMENT
??_R4CPlayBoxApp@@6B@ DD 00H				; CPlayBoxApp::`RTTI Complete Object Locator'
	DD	00H
	DD	00H
	DD	FLAT:??_R0?AVCPlayBoxApp@@@8
	DD	FLAT:??_R3CPlayBoxApp@@8
rdata$r	ENDS
;	COMDAT ??_R0?AVCPlayBoxApp@@@8
_DATA	SEGMENT
??_R0?AVCPlayBoxApp@@@8 DD FLAT:??_7type_info@@6B@	; CPlayBoxApp `RTTI Type Descriptor'
	DD	00H
	DB	'.?AVCPlayBoxApp@@', 00H
_DATA	ENDS
;	COMDAT ??_R3CPlayBoxApp@@8
rdata$r	SEGMENT
??_R3CPlayBoxApp@@8 DD 00H				; CPlayBoxApp::`RTTI Class Hierarchy Descriptor'
	DD	00H
	DD	05H
	DD	FLAT:??_R2CPlayBoxApp@@8
rdata$r	ENDS
;	COMDAT ??_R2CPlayBoxApp@@8
rdata$r	SEGMENT
??_R2CPlayBoxApp@@8 DD FLAT:??_R1A@?0A@A@CPlayBoxApp@@8	; CPlayBoxApp::`RTTI Base Class Array'
	DD	FLAT:??_R1A@?0A@A@CWinApp@@8
	DD	FLAT:??_R1A@?0A@A@CWinThread@@8
	DD	FLAT:??_R1A@?0A@A@CCmdTarget@@8
	DD	FLAT:??_R1A@?0A@A@CObject@@8
rdata$r	ENDS
;	COMDAT ??_R1A@?0A@A@CPlayBoxApp@@8
rdata$r	SEGMENT
??_R1A@?0A@A@CPlayBoxApp@@8 DD FLAT:??_R0?AVCPlayBoxApp@@@8 ; CPlayBoxApp::`RTTI Base Class Descriptor at (0,-1,0,0)'
	DD	04H
	DD	00H
	DD	0ffffffffH
	DD	00H
	DD	00H
rdata$r	ENDS
;	COMDAT ??_R1A@?0A@A@CWinApp@@8
rdata$r	SEGMENT
??_R1A@?0A@A@CWinApp@@8 DD FLAT:??_R0?AVCWinApp@@@8	; CWinApp::`RTTI Base Class Descriptor at (0,-1,0,0)'
	DD	03H
	DD	00H
	DD	0ffffffffH
	DD	00H
	DD	00H
rdata$r	ENDS
;	COMDAT ??_R0?AVCWinApp@@@8
_DATA	SEGMENT
??_R0?AVCWinApp@@@8 DD FLAT:??_7type_info@@6B@		; CWinApp `RTTI Type Descriptor'
	DD	00H
	DB	'.?AVCWinApp@@', 00H
_DATA	ENDS
;	COMDAT ??_R1A@?0A@A@CWinThread@@8
rdata$r	SEGMENT
??_R1A@?0A@A@CWinThread@@8 DD FLAT:??_R0?AVCWinThread@@@8 ; CWinThread::`RTTI Base Class Descriptor at (0,-1,0,0)'
	DD	02H
	DD	00H
	DD	0ffffffffH
	DD	00H
	DD	00H
rdata$r	ENDS
;	COMDAT ??_R0?AVCWinThread@@@8
_DATA	SEGMENT
??_R0?AVCWinThread@@@8 DD FLAT:??_7type_info@@6B@	; CWinThread `RTTI Type Descriptor'
	DD	00H
	DB	'.?AVCWinThread@@', 00H
_DATA	ENDS
;	COMDAT ??_R1A@?0A@A@CCmdTarget@@8
rdata$r	SEGMENT
??_R1A@?0A@A@CCmdTarget@@8 DD FLAT:??_R0?AVCCmdTarget@@@8 ; CCmdTarget::`RTTI Base Class Descriptor at (0,-1,0,0)'
	DD	01H
	DD	00H
	DD	0ffffffffH
	DD	00H
	DD	00H
rdata$r	ENDS
;	COMDAT ??_R0?AVCCmdTarget@@@8
_DATA	SEGMENT
??_R0?AVCCmdTarget@@@8 DD FLAT:??_7type_info@@6B@	; CCmdTarget `RTTI Type Descriptor'
	DD	00H
	DB	'.?AVCCmdTarget@@', 00H
_DATA	ENDS
;	COMDAT ??_R1A@?0A@A@CObject@@8
rdata$r	SEGMENT
??_R1A@?0A@A@CObject@@8 DD FLAT:??_R0?AVCObject@@@8	; CObject::`RTTI Base Class Descriptor at (0,-1,0,0)'
	DD	00H
	DD	00H
	DD	0ffffffffH
	DD	00H
	DD	00H
rdata$r	ENDS
;	COMDAT ??_R0?AVCObject@@@8
_DATA	SEGMENT
??_R0?AVCObject@@@8 DD FLAT:??_7type_info@@6B@		; CObject `RTTI Type Descriptor'
	DD	00H
	DB	'.?AVCObject@@', 00H
; Function compile flags: /Odt
_DATA	ENDS
_TEXT	SEGMENT
_this$ = -4						; size = 4
??0CPlayBoxApp@@QAE@XZ PROC NEAR			; CPlayBoxApp::CPlayBoxApp
; _this$ = ecx

; 37   : {

  00020	55		 push	 ebp
  00021	8b ec		 mov	 ebp, esp
  00023	51		 push	 ecx
  00024	89 4d fc	 mov	 DWORD PTR _this$[ebp], ecx
  00027	6a 00		 push	 0
  00029	8b 4d fc	 mov	 ecx, DWORD PTR _this$[ebp]
  0002c	e8 00 00 00 00	 call	 ??0CWinApp@@QAE@PBD@Z	; CWinApp::CWinApp
  00031	8b 45 fc	 mov	 eax, DWORD PTR _this$[ebp]
  00034	c7 00 00 00 00
	00		 mov	 DWORD PTR [eax], OFFSET FLAT:??_7CPlayBoxApp@@6B@
  0003a	8b 4d fc	 mov	 ecx, DWORD PTR _this$[ebp]
  0003d	81 c1 ac 00 00
	00		 add	 ecx, 172		; 000000acH
  00043	ff 15 00 00 00
	00		 call	 DWORD PTR __imp_??0?$CStringT@DV?$StrTraitMFC_DLL@DV?$ChTraitsCRT@D@ATL@@@@@ATL@@QAE@XZ

; 38   : 	m_bHasGdiPlus = FALSE;

  00049	8b 4d fc	 mov	 ecx, DWORD PTR _this$[ebp]
  0004c	c7 81 a8 00 00
	00 00 00 00 00	 mov	 DWORD PTR [ecx+168], 0

; 39   : }

  00056	8b 45 fc	 mov	 eax, DWORD PTR _this$[ebp]
  00059	8b e5		 mov	 esp, ebp
  0005b	5d		 pop	 ebp
  0005c	c3		 ret	 0
??0CPlayBoxApp@@QAE@XZ ENDP				; CPlayBoxApp::CPlayBoxApp
_TEXT	ENDS
PUBLIC	??3CObject@@SGXPAX@Z				; CObject::operator delete
PUBLIC	??1CPlayBoxApp@@UAE@XZ				; CPlayBoxApp::~CPlayBoxApp
; Function compile flags: /Odt
;	COMDAT ??_GCPlayBoxApp@@UAEPAXI@Z
_TEXT	SEGMENT
_this$ = -4						; size = 4
___flags$ = 8						; size = 4
??_GCPlayBoxApp@@UAEPAXI@Z PROC NEAR			; CPlayBoxApp::`scalar deleting destructor', COMDAT
; _this$ = ecx
  00000	55		 push	 ebp
  00001	8b ec		 mov	 ebp, esp
  00003	51		 push	 ecx
  00004	89 4d fc	 mov	 DWORD PTR _this$[ebp], ecx
  00007	8b 4d fc	 mov	 ecx, DWORD PTR _this$[ebp]
  0000a	e8 00 00 00 00	 call	 ??1CPlayBoxApp@@UAE@XZ
  0000f	8b 45 08	 mov	 eax, DWORD PTR ___flags$[ebp]
  00012	83 e0 01	 and	 eax, 1
  00015	74 09		 je	 SHORT $L199810
  00017	8b 4d fc	 mov	 ecx, DWORD PTR _this$[ebp]
  0001a	51		 push	 ecx
  0001b	e8 00 00 00 00	 call	 ??3CObject@@SGXPAX@Z	; CObject::operator delete
$L199810:
  00020	8b 45 fc	 mov	 eax, DWORD PTR _this$[ebp]
  00023	8b e5		 mov	 esp, ebp
  00025	5d		 pop	 ebp
  00026	c2 04 00	 ret	 4
??_GCPlayBoxApp@@UAEPAXI@Z ENDP				; CPlayBoxApp::`scalar deleting destructor'
_TEXT	ENDS
EXTRN	??1CWinApp@@UAE@XZ:NEAR				; CWinApp::~CWinApp
EXTRN	__imp_??1?$CStringT@DV?$StrTraitMFC_DLL@DV?$ChTraitsCRT@D@ATL@@@@@ATL@@QAE@XZ:NEAR
; Function compile flags: /Odt
;	COMDAT ??1CPlayBoxApp@@UAE@XZ
_TEXT	SEGMENT
_this$ = -4						; size = 4
??1CPlayBoxApp@@UAE@XZ PROC NEAR			; CPlayBoxApp::~CPlayBoxApp, COMDAT
; _this$ = ecx
  00000	55		 push	 ebp
  00001	8b ec		 mov	 ebp, esp
  00003	51		 push	 ecx
  00004	89 4d fc	 mov	 DWORD PTR _this$[ebp], ecx
  00007	8b 4d fc	 mov	 ecx, DWORD PTR _this$[ebp]
  0000a	81 c1 ac 00 00
	00		 add	 ecx, 172		; 000000acH
  00010	ff 15 00 00 00
	00		 call	 DWORD PTR __imp_??1?$CStringT@DV?$StrTraitMFC_DLL@DV?$ChTraitsCRT@D@ATL@@@@@ATL@@QAE@XZ
  00016	8b 4d fc	 mov	 ecx, DWORD PTR _this$[ebp]
  00019	e8 00 00 00 00	 call	 ??1CWinApp@@UAE@XZ	; CWinApp::~CWinApp
  0001e	8b e5		 mov	 esp, ebp
  00020	5d		 pop	 ebp
  00021	c3		 ret	 0
??1CPlayBoxApp@@UAE@XZ ENDP				; CPlayBoxApp::~CPlayBoxApp
_TEXT	ENDS
PUBLIC	?InterlockedExchangePointer@@YGPAXPAPAXPAX@Z	; InterlockedExchangePointer
PUBLIC	?_AtlGetThreadACPFake@ATL@@YGIXZ		; ATL::_AtlGetThreadACPFake
PUBLIC	?_AtlGetThreadACPReal@ATL@@YGIXZ		; ATL::_AtlGetThreadACPReal
EXTRN	__imp__GetVersionExA@4:NEAR
EXTRN	___security_cookie:DWORD
EXTRN	@__security_check_cookie@4:NEAR
; Function compile flags: /Odt
; File d:\program files (x86)\microsoft visual studio .net 2003\vc7\atlmfc\include\atlconv.h
;	COMDAT ?_AtlGetThreadACPThunk@ATL@@YGIXZ
_TEXT	SEGMENT
_pfnGetThreadACP$ = -164				; size = 4
_ver$ = -160						; size = 148
__$ArrayPad$ = -4					; size = 4
__$ReturnAddr$ = 4					; size = 4
?_AtlGetThreadACPThunk@ATL@@YGIXZ PROC NEAR		; ATL::_AtlGetThreadACPThunk, COMDAT

; 134  : {

  00000	55		 push	 ebp
  00001	8b ec		 mov	 ebp, esp
  00003	81 ec a4 00 00
	00		 sub	 esp, 164		; 000000a4H
  00009	a1 00 00 00 00	 mov	 eax, DWORD PTR ___security_cookie
  0000e	89 45 fc	 mov	 DWORD PTR __$ArrayPad$[ebp], eax

; 135  : 	OSVERSIONINFO ver;
; 136  : 	ATLGETTHREADACP pfnGetThreadACP;
; 137  : 
; 138  : 	ver.dwOSVersionInfoSize = sizeof( ver );

  00011	c7 85 60 ff ff
	ff 94 00 00 00	 mov	 DWORD PTR _ver$[ebp], 148 ; 00000094H

; 139  : 	::GetVersionEx( &ver );

  0001b	8d 85 60 ff ff
	ff		 lea	 eax, DWORD PTR _ver$[ebp]
  00021	50		 push	 eax
  00022	ff 15 00 00 00
	00		 call	 DWORD PTR __imp__GetVersionExA@4

; 140  : 	if( (ver.dwPlatformId == VER_PLATFORM_WIN32_NT) && (ver.dwMajorVersion >= 5) )

  00028	83 bd 70 ff ff
	ff 02		 cmp	 DWORD PTR _ver$[ebp+16], 2
  0002f	75 15		 jne	 SHORT $L24173
  00031	83 bd 64 ff ff
	ff 05		 cmp	 DWORD PTR _ver$[ebp+4], 5
  00038	72 0c		 jb	 SHORT $L24173

; 141  : 	{
; 142  : 		// On Win2K, CP_THREAD_ACP is supported
; 143  : 		pfnGetThreadACP = _AtlGetThreadACPReal;

  0003a	c7 85 5c ff ff
	ff 00 00 00 00	 mov	 DWORD PTR _pfnGetThreadACP$[ebp], OFFSET FLAT:?_AtlGetThreadACPReal@ATL@@YGIXZ ; ATL::_AtlGetThreadACPReal

; 144  : 	}
; 145  : 	else

  00044	eb 0a		 jmp	 SHORT $L24174
$L24173:

; 146  : 	{
; 147  : 		pfnGetThreadACP = _AtlGetThreadACPFake;

  00046	c7 85 5c ff ff
	ff 00 00 00 00	 mov	 DWORD PTR _pfnGetThreadACP$[ebp], OFFSET FLAT:?_AtlGetThreadACPFake@ATL@@YGIXZ ; ATL::_AtlGetThreadACPFake
$L24174:

; 148  : 	}
; 149  : 	InterlockedExchangePointer( reinterpret_cast< void** >(&g_pfnGetThreadACP), pfnGetThreadACP );

  00050	8b 8d 5c ff ff
	ff		 mov	 ecx, DWORD PTR _pfnGetThreadACP$[ebp]
  00056	51		 push	 ecx
  00057	68 00 00 00 00	 push	 OFFSET FLAT:?g_pfnGetThreadACP@ATL@@3P6GIXZA ; ATL::g_pfnGetThreadACP
  0005c	e8 00 00 00 00	 call	 ?InterlockedExchangePointer@@YGPAXPAPAXPAX@Z ; InterlockedExchangePointer

; 150  : 
; 151  : 	return( g_pfnGetThreadACP() );

  00061	ff 15 00 00 00
	00		 call	 DWORD PTR ?g_pfnGetThreadACP@ATL@@3P6GIXZA ; ATL::g_pfnGetThreadACP

; 152  : }

  00067	8b 4d fc	 mov	 ecx, DWORD PTR __$ArrayPad$[ebp]
  0006a	e8 00 00 00 00	 call	 @__security_check_cookie@4
  0006f	8b e5		 mov	 esp, ebp
  00071	5d		 pop	 ebp
  00072	c3		 ret	 0
?_AtlGetThreadACPThunk@ATL@@YGIXZ ENDP			; ATL::_AtlGetThreadACPThunk
_TEXT	ENDS
EXTRN	__imp__InterlockedExchange@8:NEAR
; Function compile flags: /Odt
;	COMDAT ?InterlockedExchangePointer@@YGPAXPAPAXPAX@Z
_TEXT	SEGMENT
_pp$ = 8						; size = 4
_pNew$ = 12						; size = 4
?InterlockedExchangePointer@@YGPAXPAPAXPAX@Z PROC NEAR	; InterlockedExchangePointer, COMDAT

; 91   : {

  00000	55		 push	 ebp
  00001	8b ec		 mov	 ebp, esp

; 92   : 	return( reinterpret_cast<void*>(static_cast<LONG_PTR>(::InterlockedExchange(reinterpret_cast<LONG*>(pp), static_cast<LONG>(reinterpret_cast<LONG_PTR>(pNew))))) );

  00003	8b 45 0c	 mov	 eax, DWORD PTR _pNew$[ebp]
  00006	50		 push	 eax
  00007	8b 4d 08	 mov	 ecx, DWORD PTR _pp$[ebp]
  0000a	51		 push	 ecx
  0000b	ff 15 00 00 00
	00		 call	 DWORD PTR __imp__InterlockedExchange@8

; 93   : }

  00011	5d		 pop	 ebp
  00012	c2 08 00	 ret	 8
?InterlockedExchangePointer@@YGPAXPAPAXPAX@Z ENDP	; InterlockedExchangePointer
_TEXT	ENDS
EXTRN	__imp__GetACP@0:NEAR
EXTRN	__imp__GetLocaleInfoA@16:NEAR
EXTRN	__imp__GetThreadLocale@0:NEAR
; Function compile flags: /Odt
;	COMDAT ?_AtlGetThreadACPFake@ATL@@YGIXZ
_TEXT	SEGMENT
_pch$24161 = -24					; size = 4
_lcidThread$ = -20					; size = 4
_szACP$ = -16						; size = 7
__$ArrayPad$ = -8					; size = 4
_nACP$ = -4						; size = 4
__$ReturnAddr$ = 4					; size = 4
?_AtlGetThreadACPFake@ATL@@YGIXZ PROC NEAR		; ATL::_AtlGetThreadACPFake, COMDAT

; 101  : {

  00000	55		 push	 ebp
  00001	8b ec		 mov	 ebp, esp
  00003	83 ec 18	 sub	 esp, 24			; 00000018H
  00006	a1 00 00 00 00	 mov	 eax, DWORD PTR ___security_cookie
  0000b	89 45 f8	 mov	 DWORD PTR __$ArrayPad$[ebp], eax

; 102  : 	UINT nACP = 0;

  0000e	c7 45 fc 00 00
	00 00		 mov	 DWORD PTR _nACP$[ebp], 0

; 103  : 
; 104  : 	LCID lcidThread = ::GetThreadLocale();

  00015	ff 15 00 00 00
	00		 call	 DWORD PTR __imp__GetThreadLocale@0
  0001b	89 45 ec	 mov	 DWORD PTR _lcidThread$[ebp], eax

; 105  : 
; 106  : 	char szACP[7];
; 107  : 	// GetLocaleInfoA will fail for a Unicode-only LCID, but those are only supported on 
; 108  : 	// Windows 2000.  Since Windows 2000 supports CP_THREAD_ACP, this code path is never
; 109  : 	// executed on Windows 2000.
; 110  : 	if (::GetLocaleInfoA(lcidThread, LOCALE_IDEFAULTANSICODEPAGE, szACP, 7) != 0)

  0001e	6a 07		 push	 7
  00020	8d 45 f0	 lea	 eax, DWORD PTR _szACP$[ebp]
  00023	50		 push	 eax
  00024	68 04 10 00 00	 push	 4100			; 00001004H
  00029	8b 4d ec	 mov	 ecx, DWORD PTR _lcidThread$[ebp]
  0002c	51		 push	 ecx
  0002d	ff 15 00 00 00
	00		 call	 DWORD PTR __imp__GetLocaleInfoA@16
  00033	85 c0		 test	 eax, eax
  00035	74 34		 je	 SHORT $L24160

; 111  : 	{
; 112  : 		char* pch = szACP;

  00037	8d 55 f0	 lea	 edx, DWORD PTR _szACP$[ebp]
  0003a	89 55 e8	 mov	 DWORD PTR _pch$24161[ebp], edx
$L24163:

; 113  : 		while (*pch != '\0')

  0003d	8b 45 e8	 mov	 eax, DWORD PTR _pch$24161[ebp]
  00040	0f be 08	 movsx	 ecx, BYTE PTR [eax]
  00043	85 c9		 test	 ecx, ecx
  00045	74 24		 je	 SHORT $L24160

; 114  : 		{
; 115  : 			nACP *= 10;

  00047	8b 55 fc	 mov	 edx, DWORD PTR _nACP$[ebp]
  0004a	6b d2 0a	 imul	 edx, 10			; 0000000aH
  0004d	89 55 fc	 mov	 DWORD PTR _nACP$[ebp], edx

; 116  : 			nACP += *pch++ - '0';

  00050	8b 45 e8	 mov	 eax, DWORD PTR _pch$24161[ebp]
  00053	0f be 08	 movsx	 ecx, BYTE PTR [eax]
  00056	8b 55 fc	 mov	 edx, DWORD PTR _nACP$[ebp]
  00059	8d 44 0a d0	 lea	 eax, DWORD PTR [edx+ecx-48]
  0005d	89 45 fc	 mov	 DWORD PTR _nACP$[ebp], eax
  00060	8b 4d e8	 mov	 ecx, DWORD PTR _pch$24161[ebp]
  00063	83 c1 01	 add	 ecx, 1
  00066	89 4d e8	 mov	 DWORD PTR _pch$24161[ebp], ecx

; 117  : 		}

  00069	eb d2		 jmp	 SHORT $L24163
$L24160:

; 118  : 	}
; 119  : 	// Use the Default ANSI Code Page if we were unable to get the thread ACP or if one does not exist.
; 120  : 	if (nACP == 0)

  0006b	83 7d fc 00	 cmp	 DWORD PTR _nACP$[ebp], 0
  0006f	75 09		 jne	 SHORT $L24165

; 121  : 		nACP = ::GetACP();

  00071	ff 15 00 00 00
	00		 call	 DWORD PTR __imp__GetACP@0
  00077	89 45 fc	 mov	 DWORD PTR _nACP$[ebp], eax
$L24165:

; 122  : 
; 123  : 	return nACP;

  0007a	8b 45 fc	 mov	 eax, DWORD PTR _nACP$[ebp]

; 124  : }

  0007d	8b 4d f8	 mov	 ecx, DWORD PTR __$ArrayPad$[ebp]
  00080	e8 00 00 00 00	 call	 @__security_check_cookie@4
  00085	8b e5		 mov	 esp, ebp
  00087	5d		 pop	 ebp
  00088	c3		 ret	 0
?_AtlGetThreadACPFake@ATL@@YGIXZ ENDP			; ATL::_AtlGetThreadACPFake
; Function compile flags: /Odt
_TEXT	ENDS
;	COMDAT ?_AtlGetThreadACPReal@ATL@@YGIXZ
_TEXT	SEGMENT
?_AtlGetThreadACPReal@ATL@@YGIXZ PROC NEAR		; ATL::_AtlGetThreadACPReal, COMDAT

; 127  : {

  00000	55		 push	 ebp
  00001	8b ec		 mov	 ebp, esp

; 128  : 	return( CP_THREAD_ACP );

  00003	b8 03 00 00 00	 mov	 eax, 3

; 129  : }

  00008	5d		 pop	 ebp
  00009	c3		 ret	 0
?_AtlGetThreadACPReal@ATL@@YGIXZ ENDP			; ATL::_AtlGetThreadACPReal
_TEXT	ENDS
PUBLIC	?Create@CDialog@@UAEHIPAVCWnd@@@Z		; CDialog::Create
PUBLIC	??1CPlayBoxDlg@@UAE@XZ				; CPlayBoxDlg::~CPlayBoxDlg
PUBLIC	??0GdiplusStartupInput@Gdiplus@@QAE@P6GXW4DebugEventLevel@1@PAD@ZHH@Z ; Gdiplus::GdiplusStartupInput::GdiplusStartupInput
PUBLIC	?KillOtherInstance@CPlayBoxApp@@QAEHXZ		; CPlayBoxApp::KillOtherInstance
PUBLIC	?SendCmdLineMsg@CPlayBoxApp@@QAEXPAUHWND__@@@Z	; CPlayBoxApp::SendCmdLineMsg
EXTRN	__imp__TranslateMessage@4:NEAR
EXTRN	__imp__DispatchMessageA@4:NEAR
EXTRN	?InitInstance@CWinApp@@UAEHXZ:NEAR		; CWinApp::InitInstance
EXTRN	?IsAutoRun@GlobalFunc@@SA_NXZ:NEAR		; GlobalFunc::IsAutoRun
EXTRN	?DelSkinXml@GlobalFunc@@SA_NXZ:NEAR		; GlobalFunc::DelSkinXml
EXTRN	??0CPlayBoxDlg@@QAE@_NPAVCWnd@@@Z:NEAR		; CPlayBoxDlg::CPlayBoxDlg
EXTRN	__imp_??B?$CSimpleStringT@D$00@ATL@@QBEPBDXZ:NEAR
EXTRN	__imp__FreeLibrary@4:NEAR
EXTRN	__imp_?c_str@?$basic_string@DU?$char_traits@D@std@@V?$allocator@D@2@@std@@QBEPBDXZ:NEAR
EXTRN	__imp__PostMessageA@16:NEAR
EXTRN	__imp_??4?$CStringT@DV?$StrTraitMFC_DLL@DV?$ChTraitsCRT@D@ATL@@@@@ATL@@QAEAAV01@PBD@Z:NEAR
EXTRN	?Config_AppStart@AfxUserConfig@@QAEXXZ:NEAR	; AfxUserConfig::Config_AppStart
EXTRN	?Config_AppExit@AfxUserConfig@@QAEXXZ:NEAR	; AfxUserConfig::Config_AppExit
EXTRN	__imp_?Find@?$CStringT@DV?$StrTraitMFC_DLL@DV?$ChTraitsCRT@D@ATL@@@@@ATL@@QBEHPBDH@Z:NEAR
EXTRN	__imp_?MakeLower@?$CStringT@DV?$StrTraitMFC_DLL@DV?$ChTraitsCRT@D@ATL@@@@@ATL@@QAEAAV12@XZ:NEAR
EXTRN	__imp__SetForegroundWindow@4:NEAR
EXTRN	?AfxEnableControlContainer@@YAXPAVCOccManager@@@Z:NEAR ; AfxEnableControlContainer
EXTRN	__imp__IsWindowVisible@4:NEAR
EXTRN	__imp__IsIconic@4:NEAR
EXTRN	__imp_?YL_Log@@YAXABV?$basic_string@DU?$char_traits@D@std@@V?$allocator@D@2@@std@@H0PBDZZ:NEAR
EXTRN	__imp_?LogInit@@YAXABV?$basic_string@DU?$char_traits@D@std@@V?$allocator@D@2@@std@@@Z:NEAR
EXTRN	__imp_?LogRealMsg@@YAXABV?$basic_string@DU?$char_traits@D@std@@V?$allocator@D@2@@std@@0_NPAPAEPAI@Z:NEAR
EXTRN	__imp__CreateMutexA@12:NEAR
EXTRN	__imp__InitCommonControls@0:NEAR
EXTRN	_GdiplusStartup@12:NEAR
EXTRN	_GdiplusShutdown@4:NEAR
EXTRN	__imp__LoadLibraryA@4:NEAR
EXTRN	__imp__GetLastError@0:NEAR
EXTRN	__imp__GetCommandLineA@0:NEAR
EXTRN	?AfxPreTranslateMessage@@YAHPAUtagMSG@@@Z:NEAR	; AfxPreTranslateMessage
EXTRN	__imp__ReleaseMutex@4:NEAR
EXTRN	__imp__WaitForSingleObject@8:NEAR
EXTRN	_memset:NEAR
EXTRN	?Format@YL_StringUtil@@SA_NAAV?$basic_string@DU?$char_traits@D@std@@V?$allocator@D@2@@std@@PBDZZ:NEAR ; YL_StringUtil::Format
EXTRN	__imp_??0?$basic_string@DU?$char_traits@D@std@@V?$allocator@D@2@@std@@QAE@XZ:NEAR
EXTRN	__imp__InitializeSecurityDescriptor@8:NEAR
EXTRN	__imp__SetSecurityDescriptorDacl@16:NEAR
EXTRN	__imp_??0?$basic_string@DU?$char_traits@D@std@@V?$allocator@D@2@@std@@QAE@PBD@Z:NEAR
EXTRN	?SetRegistryKey@CWinApp@@IAEXPBD@Z:NEAR		; CWinApp::SetRegistryKey
EXTRN	__imp_??1?$basic_string@DU?$char_traits@D@std@@V?$allocator@D@2@@std@@QAE@XZ:NEAR
EXTRN	__except_list:DWORD
EXTRN	___CxxFrameHandler:NEAR
EXTRN	?AfxOleInit@@YGHXZ:NEAR				; AfxOleInit
EXTRN	?AfxGetDataManager2@@YAPAVIDataManager@@XZ:NEAR	; AfxGetDataManager2
EXTRN	?AfxGetUserConfig@@YAPAVAfxUserConfig@@XZ:NEAR	; AfxGetUserConfig
EXTRN	__imp__GetMessageA@16:NEAR
xdata$x	SEGMENT
$T200619 DD	0ffffffffH
	DD	FLAT:$L200605
	DD	00H
	DD	FLAT:$L200606
	DD	0ffffffffH
	DD	FLAT:$L200607
	DD	0ffffffffH
	DD	FLAT:$L200608
	DD	03H
	DD	FLAT:$L200609
	DD	04H
	DD	FLAT:$L200610
	DD	05H
	DD	FLAT:$L200611
$T200615 DD	019930520H
	DD	07H
	DD	FLAT:$T200619
	DD	2 DUP(00H)
	DD	2 DUP(00H)
; Function compile flags: /Odt
; File d:\boxgit\playbox\playbox\dev\prj\playbox\playbox.cpp
xdata$x	ENDS
_TEXT	SEGMENT
tv252 = -620						; size = 4
tv201 = -616						; size = 4
_this$ = -612						; size = 4
$T200604 = -608						; size = 4
$T200603 = -604						; size = 28
$T200602 = -576						; size = 28
$T200601 = -548						; size = 28
$T200600 = -520						; size = 28
$T200599 = -492						; size = 28
_curMutexHandle$199848 = -464				; size = 4
_bStartupRun$ = -457					; size = 1
_curMutexHandle$ = -456					; size = 4
_bAutoRun$ = -449					; size = 1
_strLog$ = -448						; size = 28
_sa$ = -420						; size = 12
_sd_wideopen$ = -408					; size = 20
_dlg$ = -388						; size = 312
__$ArrayPad$ = -72					; size = 4
_hKwMusic$ = -68					; size = 4
_gdiplusStartupInput$ = -64				; size = 16
_lib$ = -48						; size = 4
_Msg$ = -44						; size = 28
_m_gdiplusToken$ = -16					; size = 4
__$EHRec$ = -12						; size = 12
__$ReturnAddr$ = 4					; size = 4
?InitInstance@CPlayBoxApp@@UAEHXZ PROC NEAR		; CPlayBoxApp::InitInstance
; _this$ = ecx

; 44   : {

  00060	55		 push	 ebp
  00061	8b ec		 mov	 ebp, esp
  00063	6a ff		 push	 -1
  00065	68 00 00 00 00	 push	 __ehhandler$?InitInstance@CPlayBoxApp@@UAEHXZ
  0006a	64 a1 00 00 00
	00		 mov	 eax, DWORD PTR fs:__except_list
  00070	50		 push	 eax
  00071	64 89 25 00 00
	00 00		 mov	 DWORD PTR fs:__except_list, esp
  00078	81 ec 60 02 00
	00		 sub	 esp, 608		; 00000260H
  0007e	a1 00 00 00 00	 mov	 eax, DWORD PTR ___security_cookie
  00083	89 45 b8	 mov	 DWORD PTR __$ArrayPad$[ebp], eax
  00086	89 8d 9c fd ff
	ff		 mov	 DWORD PTR _this$[ebp], ecx

; 45   : 	//  Windows XP 
; 46   : 	//  ComCtl32.dll  6 
; 47   : 	// InitCommonControls()
; 48   : 	HANDLE curMutexHandle = CreateMutex(NULL,true,"PBMutex");

  0008c	68 00 00 00 00	 push	 OFFSET FLAT:$SG199822
  00091	6a 01		 push	 1
  00093	6a 00		 push	 0
  00095	ff 15 00 00 00
	00		 call	 DWORD PTR __imp__CreateMutexA@12
  0009b	89 85 38 fe ff
	ff		 mov	 DWORD PTR _curMutexHandle$[ebp], eax

; 49   : 
; 50   : 	AfxOleInit();

  000a1	e8 00 00 00 00	 call	 ?AfxOleInit@@YGHXZ	; AfxOleInit

; 51   : 	InitCommonControls();

  000a6	ff 15 00 00 00
	00		 call	 DWORD PTR __imp__InitCommonControls@0

; 52   : 	CWinApp::InitInstance();

  000ac	8b 8d 9c fd ff
	ff		 mov	 ecx, DWORD PTR _this$[ebp]
  000b2	e8 00 00 00 00	 call	 ?InitInstance@CWinApp@@UAEHXZ ; CWinApp::InitInstance

; 53   : 
; 54   : 	//webbrowser
; 55   : 	
; 56   : 	//CoInternetSetFeatureEnabled( FEATURE_DISABLE_NAVIGATION_SOUNDS, SET_FEATURE_ON_THREAD, TRUE );
; 57   : 
; 58   : 
; 59   : 	m_strCmdLine = GetCommandLine();

  000b7	ff 15 00 00 00
	00		 call	 DWORD PTR __imp__GetCommandLineA@0
  000bd	50		 push	 eax
  000be	8b 8d 9c fd ff
	ff		 mov	 ecx, DWORD PTR _this$[ebp]
  000c4	81 c1 ac 00 00
	00		 add	 ecx, 172		; 000000acH
  000ca	ff 15 00 00 00
	00		 call	 DWORD PTR __imp_??4?$CStringT@DV?$StrTraitMFC_DLL@DV?$ChTraitsCRT@D@ATL@@@@@ATL@@QAEAAV01@PBD@Z

; 60   : 	YL_Log("debug.txt",LOG_DEBUG,"commandline","%s",(LPCTSTR)m_strCmdLine);

  000d0	68 00 00 00 00	 push	 OFFSET FLAT:$SG199827
  000d5	8d 8d 14 fe ff
	ff		 lea	 ecx, DWORD PTR $T200599[ebp]
  000db	ff 15 00 00 00
	00		 call	 DWORD PTR __imp_??0?$basic_string@DU?$char_traits@D@std@@V?$allocator@D@2@@std@@QAE@PBD@Z
  000e1	c7 45 fc 00 00
	00 00		 mov	 DWORD PTR __$EHRec$[ebp+8], 0
  000e8	68 00 00 00 00	 push	 OFFSET FLAT:$SG199828
  000ed	8d 8d f8 fd ff
	ff		 lea	 ecx, DWORD PTR $T200600[ebp]
  000f3	ff 15 00 00 00
	00		 call	 DWORD PTR __imp_??0?$basic_string@DU?$char_traits@D@std@@V?$allocator@D@2@@std@@QAE@PBD@Z
  000f9	c6 45 fc 01	 mov	 BYTE PTR __$EHRec$[ebp+8], 1
  000fd	8b 8d 9c fd ff
	ff		 mov	 ecx, DWORD PTR _this$[ebp]
  00103	81 c1 ac 00 00
	00		 add	 ecx, 172		; 000000acH
  00109	ff 15 00 00 00
	00		 call	 DWORD PTR __imp_??B?$CSimpleStringT@D$00@ATL@@QBEPBDXZ
  0010f	50		 push	 eax
  00110	68 00 00 00 00	 push	 OFFSET FLAT:$SG199826
  00115	8d 85 14 fe ff
	ff		 lea	 eax, DWORD PTR $T200599[ebp]
  0011b	50		 push	 eax
  0011c	6a 00		 push	 0
  0011e	8d 8d f8 fd ff
	ff		 lea	 ecx, DWORD PTR $T200600[ebp]
  00124	51		 push	 ecx
  00125	ff 15 00 00 00
	00		 call	 DWORD PTR __imp_?YL_Log@@YAXABV?$basic_string@DU?$char_traits@D@std@@V?$allocator@D@2@@std@@H0PBDZZ
  0012b	83 c4 14	 add	 esp, 20			; 00000014H
  0012e	c6 45 fc 00	 mov	 BYTE PTR __$EHRec$[ebp+8], 0
  00132	8d 8d f8 fd ff
	ff		 lea	 ecx, DWORD PTR $T200600[ebp]
  00138	ff 15 00 00 00
	00		 call	 DWORD PTR __imp_??1?$basic_string@DU?$char_traits@D@std@@V?$allocator@D@2@@std@@QAE@XZ
  0013e	c7 45 fc ff ff
	ff ff		 mov	 DWORD PTR __$EHRec$[ebp+8], -1
  00145	8d 8d 14 fe ff
	ff		 lea	 ecx, DWORD PTR $T200599[ebp]
  0014b	ff 15 00 00 00
	00		 call	 DWORD PTR __imp_??1?$basic_string@DU?$char_traits@D@std@@V?$allocator@D@2@@std@@QAE@XZ

; 61   : 	m_strCmdLine.MakeLower();

  00151	8b 8d 9c fd ff
	ff		 mov	 ecx, DWORD PTR _this$[ebp]
  00157	81 c1 ac 00 00
	00		 add	 ecx, 172		; 000000acH
  0015d	ff 15 00 00 00
	00		 call	 DWORD PTR __imp_?MakeLower@?$CStringT@DV?$StrTraitMFC_DLL@DV?$ChTraitsCRT@D@ATL@@@@@ATL@@QAEAAV12@XZ

; 62   : 
; 63   : 	bool bStartupRun = m_strCmdLine.Find ("startuprun") != -1;

  00163	6a 00		 push	 0
  00165	68 00 00 00 00	 push	 OFFSET FLAT:$SG199830
  0016a	8b 8d 9c fd ff
	ff		 mov	 ecx, DWORD PTR _this$[ebp]
  00170	81 c1 ac 00 00
	00		 add	 ecx, 172		; 000000acH
  00176	ff 15 00 00 00
	00		 call	 DWORD PTR __imp_?Find@?$CStringT@DV?$StrTraitMFC_DLL@DV?$ChTraitsCRT@D@ATL@@@@@ATL@@QBEHPBDH@Z
  0017c	33 d2		 xor	 edx, edx
  0017e	83 f8 ff	 cmp	 eax, -1
  00181	0f 95 c2	 setne	 dl
  00184	88 95 37 fe ff
	ff		 mov	 BYTE PTR _bStartupRun$[ebp], dl

; 64   : 
; 65   : 	//  gdi+
; 66   : 	HINSTANCE lib = LoadLibrary("GdiPlus.dll");

  0018a	68 00 00 00 00	 push	 OFFSET FLAT:$SG199832
  0018f	ff 15 00 00 00
	00		 call	 DWORD PTR __imp__LoadLibraryA@4
  00195	89 45 d0	 mov	 DWORD PTR _lib$[ebp], eax

; 67   : 	if( lib != NULL)

  00198	83 7d d0 00	 cmp	 DWORD PTR _lib$[ebp], 0
  0019c	74 1a		 je	 SHORT $L199833

; 68   : 	{
; 69   : 		FreeLibrary(lib);

  0019e	8b 45 d0	 mov	 eax, DWORD PTR _lib$[ebp]
  001a1	50		 push	 eax
  001a2	ff 15 00 00 00
	00		 call	 DWORD PTR __imp__FreeLibrary@4

; 70   : 		m_bHasGdiPlus = TRUE;

  001a8	8b 8d 9c fd ff
	ff		 mov	 ecx, DWORD PTR _this$[ebp]
  001ae	c7 81 a8 00 00
	00 01 00 00 00	 mov	 DWORD PTR [ecx+168], 1
$L199833:

; 71   : 	}
; 72   : 	ULONG_PTR m_gdiplusToken;
; 73   : 	GdiplusStartupInput gdiplusStartupInput;

  001b8	6a 00		 push	 0
  001ba	6a 00		 push	 0
  001bc	6a 00		 push	 0
  001be	8d 4d c0	 lea	 ecx, DWORD PTR _gdiplusStartupInput$[ebp]
  001c1	e8 00 00 00 00	 call	 ??0GdiplusStartupInput@Gdiplus@@QAE@P6GXW4DebugEventLevel@1@PAD@ZHH@Z ; Gdiplus::GdiplusStartupInput::GdiplusStartupInput

; 74   : 	if(m_bHasGdiPlus)

  001c6	8b 95 9c fd ff
	ff		 mov	 edx, DWORD PTR _this$[ebp]
  001cc	83 ba a8 00 00
	00 00		 cmp	 DWORD PTR [edx+168], 0
  001d3	74 0f		 je	 SHORT $L199836

; 75   : 	{
; 76   : 		if( GdiplusStartup(&m_gdiplusToken,&gdiplusStartupInput,NULL) != Ok )

  001d5	6a 00		 push	 0
  001d7	8d 45 c0	 lea	 eax, DWORD PTR _gdiplusStartupInput$[ebp]
  001da	50		 push	 eax
  001db	8d 4d f0	 lea	 ecx, DWORD PTR _m_gdiplusToken$[ebp]
  001de	51		 push	 ecx
  001df	e8 00 00 00 00	 call	 _GdiplusStartup@12
$L199836:

; 77   : 		{
; 78   : 			//LogUserActMsg("GdiplusStartupInput","FAILED:0");
; 79   : 		}
; 80   : 		else
; 81   : 		{
; 82   : 			//LogUserActMsg("GdiplusStartupInput","FAILED:1");
; 83   : 		}
; 84   : 	}
; 85   : 	HWND hKwMusic = g_hSharedWnd;

  001e4	8b 15 00 00 00
	00		 mov	 edx, DWORD PTR ?g_hSharedWnd@@3PAUHWND__@@A ; g_hSharedWnd
  001ea	89 55 bc	 mov	 DWORD PTR _hKwMusic$[ebp], edx

; 86   : 	//
; 87   : 	if (hKwMusic != NULL)

  001ed	83 7d bc 00	 cmp	 DWORD PTR _hKwMusic$[ebp], 0
  001f1	74 64		 je	 SHORT $L199840

; 88   : 	{
; 89   : 		ReleaseMutex(curMutexHandle);

  001f3	8b 85 38 fe ff
	ff		 mov	 eax, DWORD PTR _curMutexHandle$[ebp]
  001f9	50		 push	 eax
  001fa	ff 15 00 00 00
	00		 call	 DWORD PTR __imp__ReleaseMutex@4

; 90   : 
; 91   : 		//
; 92   : 		if( ::IsIconic( hKwMusic ) ||
; 93   : 			!::IsWindowVisible (hKwMusic))//

  00200	8b 4d bc	 mov	 ecx, DWORD PTR _hKwMusic$[ebp]
  00203	51		 push	 ecx
  00204	ff 15 00 00 00
	00		 call	 DWORD PTR __imp__IsIconic@4
  0020a	85 c0		 test	 eax, eax
  0020c	75 0e		 jne	 SHORT $L199842
  0020e	8b 55 bc	 mov	 edx, DWORD PTR _hKwMusic$[ebp]
  00211	52		 push	 edx
  00212	ff 15 00 00 00
	00		 call	 DWORD PTR __imp__IsWindowVisible@4
  00218	85 c0		 test	 eax, eax
  0021a	75 18		 jne	 SHORT $L199841
$L199842:

; 94   : 		{
; 95   : 			PostMessage(hKwMusic, WM_COMMAND, ID_OPEN, 0);

  0021c	6a 00		 push	 0
  0021e	68 89 00 00 00	 push	 137			; 00000089H
  00223	68 11 01 00 00	 push	 273			; 00000111H
  00228	8b 45 bc	 mov	 eax, DWORD PTR _hKwMusic$[ebp]
  0022b	50		 push	 eax
  0022c	ff 15 00 00 00
	00		 call	 DWORD PTR __imp__PostMessageA@16

; 96   : 		}else

  00232	eb 0a		 jmp	 SHORT $L199843
$L199841:

; 97   : 		{
; 98   : 			::SetForegroundWindow( hKwMusic );

  00234	8b 4d bc	 mov	 ecx, DWORD PTR _hKwMusic$[ebp]
  00237	51		 push	 ecx
  00238	ff 15 00 00 00
	00		 call	 DWORD PTR __imp__SetForegroundWindow@4
$L199843:

; 99   : 		}
; 100  : 		//ID_OPEN
; 101  : 		//if(!::IsWindowVisible(hKwMusic))
; 102  : 		//	PostMessage(hKwMusic, WM_COMMAND, ID_OPEN, 0); //ID_WAKE_UP 
; 103  : 
; 104  : 		SendCmdLineMsg( g_hSharedWnd );

  0023e	8b 15 00 00 00
	00		 mov	 edx, DWORD PTR ?g_hSharedWnd@@3PAUHWND__@@A ; g_hSharedWnd
  00244	52		 push	 edx
  00245	8b 8d 9c fd ff
	ff		 mov	 ecx, DWORD PTR _this$[ebp]
  0024b	e8 00 00 00 00	 call	 ?SendCmdLineMsg@CPlayBoxApp@@QAEXPAUHWND__@@@Z ; CPlayBoxApp::SendCmdLineMsg

; 105  : 		return FALSE;

  00250	33 c0		 xor	 eax, eax
  00252	e9 14 03 00 00	 jmp	 $L199820
$L199840:

; 106  : 	}	
; 107  : 	//
; 108  : 	SECURITY_DESCRIPTOR     sd_wideopen;
; 109  : 	InitializeSecurityDescriptor(&sd_wideopen, SECURITY_DESCRIPTOR_REVISION);

  00257	6a 01		 push	 1
  00259	8d 85 68 fe ff
	ff		 lea	 eax, DWORD PTR _sd_wideopen$[ebp]
  0025f	50		 push	 eax
  00260	ff 15 00 00 00
	00		 call	 DWORD PTR __imp__InitializeSecurityDescriptor@8

; 110  : 	SetSecurityDescriptorDacl(
; 111  : 		&sd_wideopen,	// addr of SD
; 112  : 		TRUE,		    // TRUE = DACL present
; 113  : 		NULL,		    // ... but it's empty (wide open)
; 114  : 		FALSE);		    // DACL explicitly set, not defaulted

  00266	6a 00		 push	 0
  00268	6a 00		 push	 0
  0026a	6a 01		 push	 1
  0026c	8d 8d 68 fe ff
	ff		 lea	 ecx, DWORD PTR _sd_wideopen$[ebp]
  00272	51		 push	 ecx
  00273	ff 15 00 00 00
	00		 call	 DWORD PTR __imp__SetSecurityDescriptorDacl@16

; 115  : 
; 116  : 	SECURITY_ATTRIBUTES     sa;
; 117  : 	memset(&sa, 0, sizeof sa);

  00279	6a 0c		 push	 12			; 0000000cH
  0027b	6a 00		 push	 0
  0027d	8d 95 5c fe ff
	ff		 lea	 edx, DWORD PTR _sa$[ebp]
  00283	52		 push	 edx
  00284	e8 00 00 00 00	 call	 _memset
  00289	83 c4 0c	 add	 esp, 12			; 0000000cH

; 118  : 	sa.nLength              = sizeof sa;

  0028c	c7 85 5c fe ff
	ff 0c 00 00 00	 mov	 DWORD PTR _sa$[ebp], 12	; 0000000cH

; 119  : 	sa.lpSecurityDescriptor = &sd_wideopen;

  00296	8d 85 68 fe ff
	ff		 lea	 eax, DWORD PTR _sd_wideopen$[ebp]
  0029c	89 85 60 fe ff
	ff		 mov	 DWORD PTR _sa$[ebp+4], eax

; 120  : 	sa.bInheritHandle       = FALSE;

  002a2	c7 85 64 fe ff
	ff 00 00 00 00	 mov	 DWORD PTR _sa$[ebp+8], 0

; 121  : 	m_hMutexhandle = ::CreateMutex(&sa, FALSE, "YPLAYBOX_2011_3_3");

  002ac	68 00 00 00 00	 push	 OFFSET FLAT:$SG199846
  002b1	6a 00		 push	 0
  002b3	8d 8d 5c fe ff
	ff		 lea	 ecx, DWORD PTR _sa$[ebp]
  002b9	51		 push	 ecx
  002ba	ff 15 00 00 00
	00		 call	 DWORD PTR __imp__CreateMutexA@12
  002c0	8b 95 9c fd ff
	ff		 mov	 edx, DWORD PTR _this$[ebp]
  002c6	89 82 a4 00 00
	00		 mov	 DWORD PTR [edx+164], eax

; 122  : 	if(GetLastError() == ERROR_ALREADY_EXISTS)

  002cc	ff 15 00 00 00
	00		 call	 DWORD PTR __imp__GetLastError@0
  002d2	3d b7 00 00 00	 cmp	 eax, 183		; 000000b7H
  002d7	75 7a		 jne	 SHORT $L199847

; 123  : 	{
; 124  : 		HANDLE curMutexHandle=CreateMutex(NULL,false,"PBMutex");

  002d9	68 00 00 00 00	 push	 OFFSET FLAT:$SG199849
  002de	6a 00		 push	 0
  002e0	6a 00		 push	 0
  002e2	ff 15 00 00 00
	00		 call	 DWORD PTR __imp__CreateMutexA@12
  002e8	89 85 30 fe ff
	ff		 mov	 DWORD PTR _curMutexHandle$199848[ebp], eax

; 125  : 		WaitForSingleObject(curMutexHandle,INFINITE);

  002ee	6a ff		 push	 -1
  002f0	8b 85 30 fe ff
	ff		 mov	 eax, DWORD PTR _curMutexHandle$199848[ebp]
  002f6	50		 push	 eax
  002f7	ff 15 00 00 00
	00		 call	 DWORD PTR __imp__WaitForSingleObject@8

; 126  : 		hKwMusic = g_hSharedWnd;

  002fd	8b 0d 00 00 00
	00		 mov	 ecx, DWORD PTR ?g_hSharedWnd@@3PAUHWND__@@A ; g_hSharedWnd
  00303	89 4d bc	 mov	 DWORD PTR _hKwMusic$[ebp], ecx

; 127  : 		//
; 128  : 		if (hKwMusic != NULL)

  00306	83 7d bc 00	 cmp	 DWORD PTR _hKwMusic$[ebp], 0
  0030a	74 2f		 je	 SHORT $L199850

; 129  : 		{
; 130  : 			//
; 131  : 			::SetForegroundWindow( hKwMusic );

  0030c	8b 55 bc	 mov	 edx, DWORD PTR _hKwMusic$[ebp]
  0030f	52		 push	 edx
  00310	ff 15 00 00 00
	00		 call	 DWORD PTR __imp__SetForegroundWindow@4

; 132  : 			SendCmdLineMsg( g_hSharedWnd );

  00316	a1 00 00 00 00	 mov	 eax, DWORD PTR ?g_hSharedWnd@@3PAUHWND__@@A ; g_hSharedWnd
  0031b	50		 push	 eax
  0031c	8b 8d 9c fd ff
	ff		 mov	 ecx, DWORD PTR _this$[ebp]
  00322	e8 00 00 00 00	 call	 ?SendCmdLineMsg@CPlayBoxApp@@QAEXPAUHWND__@@@Z ; CPlayBoxApp::SendCmdLineMsg

; 133  : 			ReleaseMutex(curMutexHandle);

  00327	8b 8d 30 fe ff
	ff		 mov	 ecx, DWORD PTR _curMutexHandle$199848[ebp]
  0032d	51		 push	 ecx
  0032e	ff 15 00 00 00
	00		 call	 DWORD PTR __imp__ReleaseMutex@4

; 134  : 			return FALSE;

  00334	33 c0		 xor	 eax, eax
  00336	e9 30 02 00 00	 jmp	 $L199820
$L199850:

; 135  : 		}
; 136  : 		ReleaseMutex(curMutexHandle);

  0033b	8b 95 30 fe ff
	ff		 mov	 edx, DWORD PTR _curMutexHandle$199848[ebp]
  00341	52		 push	 edx
  00342	ff 15 00 00 00
	00		 call	 DWORD PTR __imp__ReleaseMutex@4

; 137  : 		KillOtherInstance();

  00348	8b 8d 9c fd ff
	ff		 mov	 ecx, DWORD PTR _this$[ebp]
  0034e	e8 00 00 00 00	 call	 ?KillOtherInstance@CPlayBoxApp@@QAEHXZ ; CPlayBoxApp::KillOtherInstance
$L199847:

; 138  : 	}
; 139  : 
; 140  : 	AfxEnableControlContainer();

  00353	6a 00		 push	 0
  00355	e8 00 00 00 00	 call	 ?AfxEnableControlContainer@@YAXPAVCOccManager@@@Z ; AfxEnableControlContainer
  0035a	83 c4 04	 add	 esp, 4

; 141  : 
; 142  : 	LogInit( "PlayGame" );

  0035d	68 00 00 00 00	 push	 OFFSET FLAT:$SG199852
  00362	8d 8d dc fd ff
	ff		 lea	 ecx, DWORD PTR $T200601[ebp]
  00368	ff 15 00 00 00
	00		 call	 DWORD PTR __imp_??0?$basic_string@DU?$char_traits@D@std@@V?$allocator@D@2@@std@@QAE@PBD@Z
  0036e	c7 45 fc 02 00
	00 00		 mov	 DWORD PTR __$EHRec$[ebp+8], 2
  00375	8d 85 dc fd ff
	ff		 lea	 eax, DWORD PTR $T200601[ebp]
  0037b	50		 push	 eax
  0037c	ff 15 00 00 00
	00		 call	 DWORD PTR __imp_?LogInit@@YAXABV?$basic_string@DU?$char_traits@D@std@@V?$allocator@D@2@@std@@@Z
  00382	83 c4 04	 add	 esp, 4
  00385	c7 45 fc ff ff
	ff ff		 mov	 DWORD PTR __$EHRec$[ebp+8], -1
  0038c	8d 8d dc fd ff
	ff		 lea	 ecx, DWORD PTR $T200601[ebp]
  00392	ff 15 00 00 00
	00		 call	 DWORD PTR __imp_??1?$basic_string@DU?$char_traits@D@std@@V?$allocator@D@2@@std@@QAE@XZ

; 143  : 	AfxGetUserConfig()->Config_AppStart();

  00398	e8 00 00 00 00	 call	 ?AfxGetUserConfig@@YAPAVAfxUserConfig@@XZ ; AfxGetUserConfig
  0039d	8b c8		 mov	 ecx, eax
  0039f	e8 00 00 00 00	 call	 ?Config_AppStart@AfxUserConfig@@QAEXXZ ; AfxUserConfig::Config_AppStart

; 144  : 	AfxGetDataManager2()->DataManAppStart();	

  003a4	e8 00 00 00 00	 call	 ?AfxGetDataManager2@@YAPAVIDataManager@@XZ ; AfxGetDataManager2
  003a9	89 85 98 fd ff
	ff		 mov	 DWORD PTR tv201[ebp], eax
  003af	8b 8d 98 fd ff
	ff		 mov	 ecx, DWORD PTR tv201[ebp]
  003b5	8b 11		 mov	 edx, DWORD PTR [ecx]
  003b7	8b 8d 98 fd ff
	ff		 mov	 ecx, DWORD PTR tv201[ebp]
  003bd	ff 52 04	 call	 DWORD PTR [edx+4]

; 145  : 	SetRegistryKey(_T(""));

  003c0	68 00 00 00 00	 push	 OFFSET FLAT:$SG199853
  003c5	8b 8d 9c fd ff
	ff		 mov	 ecx, DWORD PTR _this$[ebp]
  003cb	e8 00 00 00 00	 call	 ?SetRegistryKey@CWinApp@@IAEXPBD@Z ; CWinApp::SetRegistryKey

; 146  : 
; 147  : 	CPlayBoxDlg dlg (bStartupRun);

  003d0	6a 00		 push	 0
  003d2	8a 85 37 fe ff
	ff		 mov	 al, BYTE PTR _bStartupRun$[ebp]
  003d8	50		 push	 eax
  003d9	8d 8d 7c fe ff
	ff		 lea	 ecx, DWORD PTR _dlg$[ebp]
  003df	e8 00 00 00 00	 call	 ??0CPlayBoxDlg@@QAE@_NPAVCWnd@@@Z ; CPlayBoxDlg::CPlayBoxDlg
  003e4	c7 45 fc 03 00
	00 00		 mov	 DWORD PTR __$EHRec$[ebp+8], 3

; 148  : 	dlg.Create(IDD_PLAYBOX_DIALOG,NULL);

  003eb	6a 00		 push	 0
  003ed	6a 66		 push	 102			; 00000066H
  003ef	8d 8d 7c fe ff
	ff		 lea	 ecx, DWORD PTR _dlg$[ebp]
  003f5	e8 00 00 00 00	 call	 ?Create@CDialog@@UAEHIPAVCWnd@@@Z ; CDialog::Create

; 149  : 
; 150  : 	//
; 151  : 	bool bAutoRun = GlobalFunc::IsAutoRun();

  003fa	e8 00 00 00 00	 call	 ?IsAutoRun@GlobalFunc@@SA_NXZ ; GlobalFunc::IsAutoRun
  003ff	88 85 3f fe ff
	ff		 mov	 BYTE PTR _bAutoRun$[ebp], al

; 152  : 	string strLog;

  00405	8d 8d 40 fe ff
	ff		 lea	 ecx, DWORD PTR _strLog$[ebp]
  0040b	ff 15 00 00 00
	00		 call	 DWORD PTR __imp_??0?$basic_string@DU?$char_traits@D@std@@V?$allocator@D@2@@std@@QAE@XZ
  00411	c6 45 fc 04	 mov	 BYTE PTR __$EHRec$[ebp+8], 4

; 153  : 	YL_StringUtil::Format( strLog, "AutoRun:%d", bAutoRun );

  00415	0f b6 8d 3f fe
	ff ff		 movzx	 ecx, BYTE PTR _bAutoRun$[ebp]
  0041c	51		 push	 ecx
  0041d	68 00 00 00 00	 push	 OFFSET FLAT:$SG199857
  00422	8d 95 40 fe ff
	ff		 lea	 edx, DWORD PTR _strLog$[ebp]
  00428	52		 push	 edx
  00429	e8 00 00 00 00	 call	 ?Format@YL_StringUtil@@SA_NAAV?$basic_string@DU?$char_traits@D@std@@V?$allocator@D@2@@std@@PBDZZ ; YL_StringUtil::Format
  0042e	83 c4 0c	 add	 esp, 12			; 0000000cH

; 154  : 	LogRealMsg( "AppStart", strLog.c_str() );

  00431	8d 8d 40 fe ff
	ff		 lea	 ecx, DWORD PTR _strLog$[ebp]
  00437	ff 15 00 00 00
	00		 call	 DWORD PTR __imp_?c_str@?$basic_string@DU?$char_traits@D@std@@V?$allocator@D@2@@std@@QBEPBDXZ
  0043d	50		 push	 eax
  0043e	8d 8d c0 fd ff
	ff		 lea	 ecx, DWORD PTR $T200602[ebp]
  00444	ff 15 00 00 00
	00		 call	 DWORD PTR __imp_??0?$basic_string@DU?$char_traits@D@std@@V?$allocator@D@2@@std@@QAE@PBD@Z
  0044a	c6 45 fc 05	 mov	 BYTE PTR __$EHRec$[ebp+8], 5
  0044e	68 00 00 00 00	 push	 OFFSET FLAT:$SG199860
  00453	8d 8d a4 fd ff
	ff		 lea	 ecx, DWORD PTR $T200603[ebp]
  00459	ff 15 00 00 00
	00		 call	 DWORD PTR __imp_??0?$basic_string@DU?$char_traits@D@std@@V?$allocator@D@2@@std@@QAE@PBD@Z
  0045f	c6 45 fc 06	 mov	 BYTE PTR __$EHRec$[ebp+8], 6
  00463	6a 00		 push	 0
  00465	6a 00		 push	 0
  00467	6a 00		 push	 0
  00469	8d 85 c0 fd ff
	ff		 lea	 eax, DWORD PTR $T200602[ebp]
  0046f	50		 push	 eax
  00470	8d 8d a4 fd ff
	ff		 lea	 ecx, DWORD PTR $T200603[ebp]
  00476	51		 push	 ecx
  00477	ff 15 00 00 00
	00		 call	 DWORD PTR __imp_?LogRealMsg@@YAXABV?$basic_string@DU?$char_traits@D@std@@V?$allocator@D@2@@std@@0_NPAPAEPAI@Z
  0047d	83 c4 14	 add	 esp, 20			; 00000014H
  00480	c6 45 fc 05	 mov	 BYTE PTR __$EHRec$[ebp+8], 5
  00484	8d 8d a4 fd ff
	ff		 lea	 ecx, DWORD PTR $T200603[ebp]
  0048a	ff 15 00 00 00
	00		 call	 DWORD PTR __imp_??1?$basic_string@DU?$char_traits@D@std@@V?$allocator@D@2@@std@@QAE@XZ
  00490	c6 45 fc 04	 mov	 BYTE PTR __$EHRec$[ebp+8], 4
  00494	8d 8d c0 fd ff
	ff		 lea	 ecx, DWORD PTR $T200602[ebp]
  0049a	ff 15 00 00 00
	00		 call	 DWORD PTR __imp_??1?$basic_string@DU?$char_traits@D@std@@V?$allocator@D@2@@std@@QAE@XZ

; 155  : 
; 156  : 	m_pMainWnd = &dlg;

  004a0	8b 95 9c fd ff
	ff		 mov	 edx, DWORD PTR _this$[ebp]
  004a6	8d 85 7c fe ff
	ff		 lea	 eax, DWORD PTR _dlg$[ebp]
  004ac	89 42 20	 mov	 DWORD PTR [edx+32], eax
$L199863:

; 157  : 
; 158  : 	MSG   Msg;
; 159  : 	while(GetMessage(&Msg,NULL,0,0))

  004af	6a 00		 push	 0
  004b1	6a 00		 push	 0
  004b3	6a 00		 push	 0
  004b5	8d 4d d4	 lea	 ecx, DWORD PTR _Msg$[ebp]
  004b8	51		 push	 ecx
  004b9	ff 15 00 00 00
	00		 call	 DWORD PTR __imp__GetMessageA@16
  004bf	85 c0		 test	 eax, eax
  004c1	74 31		 je	 SHORT $L199864

; 160  : 	{
; 161  : 		//AfxPreTranslateMessage(&Msg);
; 162  : 		if (!AfxPreTranslateMessage(&Msg))

  004c3	8d 55 d4	 lea	 edx, DWORD PTR _Msg$[ebp]
  004c6	52		 push	 edx
  004c7	e8 00 00 00 00	 call	 ?AfxPreTranslateMessage@@YAHPAUtagMSG@@@Z ; AfxPreTranslateMessage
  004cc	83 c4 04	 add	 esp, 4
  004cf	85 c0		 test	 eax, eax
  004d1	75 14		 jne	 SHORT $L199865

; 163  : 		{
; 164  : 			TranslateMessage(&Msg);

  004d3	8d 45 d4	 lea	 eax, DWORD PTR _Msg$[ebp]
  004d6	50		 push	 eax
  004d7	ff 15 00 00 00
	00		 call	 DWORD PTR __imp__TranslateMessage@4

; 165  : 			DispatchMessage(&Msg);

  004dd	8d 4d d4	 lea	 ecx, DWORD PTR _Msg$[ebp]
  004e0	51		 push	 ecx
  004e1	ff 15 00 00 00
	00		 call	 DWORD PTR __imp__DispatchMessageA@4
$L199865:

; 166  : 		}
; 167  : 		if(dlg.m_bExit)

  004e7	83 bd 00 ff ff
	ff 00		 cmp	 DWORD PTR _dlg$[ebp+132], 0
  004ee	74 02		 je	 SHORT $L199866

; 168  : 		{
; 169  : 			break;

  004f0	eb 02		 jmp	 SHORT $L199864
$L199866:

; 170  : 		}
; 171  : 	}

  004f2	eb bb		 jmp	 SHORT $L199863
$L199864:

; 172  : 
; 173  : 	AfxGetDataManager2()->DataManAppExit();

  004f4	e8 00 00 00 00	 call	 ?AfxGetDataManager2@@YAPAVIDataManager@@XZ ; AfxGetDataManager2
  004f9	89 85 94 fd ff
	ff		 mov	 DWORD PTR tv252[ebp], eax
  004ff	8b 95 94 fd ff
	ff		 mov	 edx, DWORD PTR tv252[ebp]
  00505	8b 02		 mov	 eax, DWORD PTR [edx]
  00507	8b 8d 94 fd ff
	ff		 mov	 ecx, DWORD PTR tv252[ebp]
  0050d	ff 50 08	 call	 DWORD PTR [eax+8]

; 174  : 	AfxGetUserConfig()->Config_AppExit();

  00510	e8 00 00 00 00	 call	 ?AfxGetUserConfig@@YAPAVAfxUserConfig@@XZ ; AfxGetUserConfig
  00515	8b c8		 mov	 ecx, eax
  00517	e8 00 00 00 00	 call	 ?Config_AppExit@AfxUserConfig@@QAEXXZ ; AfxUserConfig::Config_AppExit

; 175  : 
; 176  : 	if(m_bHasGdiPlus)

  0051c	8b 8d 9c fd ff
	ff		 mov	 ecx, DWORD PTR _this$[ebp]
  00522	83 b9 a8 00 00
	00 00		 cmp	 DWORD PTR [ecx+168], 0
  00529	74 09		 je	 SHORT $L199867

; 177  : 		GdiplusShutdown( m_gdiplusToken );

  0052b	8b 55 f0	 mov	 edx, DWORD PTR _m_gdiplusToken$[ebp]
  0052e	52		 push	 edx
  0052f	e8 00 00 00 00	 call	 _GdiplusShutdown@4
$L199867:

; 178  : 	//
; 179  : #ifndef _DEBUG 
; 180  : 	GlobalFunc::DelSkinXml();

  00534	e8 00 00 00 00	 call	 ?DelSkinXml@GlobalFunc@@SA_NXZ ; GlobalFunc::DelSkinXml

; 181  : #endif
; 182  : 	return FALSE;

  00539	c7 85 a0 fd ff
	ff 00 00 00 00	 mov	 DWORD PTR $T200604[ebp], 0
  00543	c6 45 fc 03	 mov	 BYTE PTR __$EHRec$[ebp+8], 3
  00547	8d 8d 40 fe ff
	ff		 lea	 ecx, DWORD PTR _strLog$[ebp]
  0054d	ff 15 00 00 00
	00		 call	 DWORD PTR __imp_??1?$basic_string@DU?$char_traits@D@std@@V?$allocator@D@2@@std@@QAE@XZ
  00553	c7 45 fc ff ff
	ff ff		 mov	 DWORD PTR __$EHRec$[ebp+8], -1
  0055a	8d 8d 7c fe ff
	ff		 lea	 ecx, DWORD PTR _dlg$[ebp]
  00560	e8 00 00 00 00	 call	 ??1CPlayBoxDlg@@UAE@XZ
  00565	8b 85 a0 fd ff
	ff		 mov	 eax, DWORD PTR $T200604[ebp]
$L199820:

; 183  : }

  0056b	8b 4d f4	 mov	 ecx, DWORD PTR __$EHRec$[ebp]
  0056e	64 89 0d 00 00
	00 00		 mov	 DWORD PTR fs:__except_list, ecx
  00575	8b 4d b8	 mov	 ecx, DWORD PTR __$ArrayPad$[ebp]
  00578	e8 00 00 00 00	 call	 @__security_check_cookie@4
  0057d	8b e5		 mov	 esp, ebp
  0057f	5d		 pop	 ebp
  00580	c3		 ret	 0
_TEXT	ENDS
text$x	SEGMENT
$L200605:
  00000	8d 8d 14 fe ff
	ff		 lea	 ecx, DWORD PTR $T200599[ebp]
  00006	ff 25 00 00 00
	00		 jmp	 DWORD PTR __imp_??1?$basic_string@DU?$char_traits@D@std@@V?$allocator@D@2@@std@@QAE@XZ
$L200606:
  0000c	8d 8d f8 fd ff
	ff		 lea	 ecx, DWORD PTR $T200600[ebp]
  00012	ff 25 00 00 00
	00		 jmp	 DWORD PTR __imp_??1?$basic_string@DU?$char_traits@D@std@@V?$allocator@D@2@@std@@QAE@XZ
$L200607:
  00018	8d 8d dc fd ff
	ff		 lea	 ecx, DWORD PTR $T200601[ebp]
  0001e	ff 25 00 00 00
	00		 jmp	 DWORD PTR __imp_??1?$basic_string@DU?$char_traits@D@std@@V?$allocator@D@2@@std@@QAE@XZ
$L200608:
  00024	8d 8d 7c fe ff
	ff		 lea	 ecx, DWORD PTR _dlg$[ebp]
  0002a	e9 00 00 00 00	 jmp	 ??1CPlayBoxDlg@@UAE@XZ
$L200609:
  0002f	8d 8d 40 fe ff
	ff		 lea	 ecx, DWORD PTR _strLog$[ebp]
  00035	ff 25 00 00 00
	00		 jmp	 DWORD PTR __imp_??1?$basic_string@DU?$char_traits@D@std@@V?$allocator@D@2@@std@@QAE@XZ
$L200610:
  0003b	8d 8d c0 fd ff
	ff		 lea	 ecx, DWORD PTR $T200602[ebp]
  00041	ff 25 00 00 00
	00		 jmp	 DWORD PTR __imp_??1?$basic_string@DU?$char_traits@D@std@@V?$allocator@D@2@@std@@QAE@XZ
$L200611:
  00047	8d 8d a4 fd ff
	ff		 lea	 ecx, DWORD PTR $T200603[ebp]
  0004d	ff 25 00 00 00
	00		 jmp	 DWORD PTR __imp_??1?$basic_string@DU?$char_traits@D@std@@V?$allocator@D@2@@std@@QAE@XZ
__ehhandler$?InitInstance@CPlayBoxApp@@UAEHXZ:
  00053	b8 00 00 00 00	 mov	 eax, OFFSET FLAT:$T200615
  00058	e9 00 00 00 00	 jmp	 ___CxxFrameHandler
text$x	ENDS
?InitInstance@CPlayBoxApp@@UAEHXZ ENDP			; CPlayBoxApp::InitInstance
PUBLIC	??1IPanelChangeObserver@@UAE@XZ			; IPanelChangeObserver::~IPanelChangeObserver
PUBLIC	??1ILayoutChangeObserver@@UAE@XZ		; ILayoutChangeObserver::~ILayoutChangeObserver
EXTRN	??1CDialog@@UAE@XZ:NEAR				; CDialog::~CDialog
;	COMDAT xdata$x
xdata$x	SEGMENT
$T200639 DD	0ffffffffH
	DD	FLAT:$L200626
	DD	00H
	DD	FLAT:$L200629
	DD	01H
	DD	FLAT:$L200632
	DD	02H
	DD	FLAT:$L200633
	DD	03H
	DD	FLAT:$L200634
$T200637 DD	019930520H
	DD	05H
	DD	FLAT:$T200639
	DD	2 DUP(00H)
	DD	2 DUP(00H)
; Function compile flags: /Odt
xdata$x	ENDS
;	COMDAT ??1CPlayBoxDlg@@UAE@XZ
_TEXT	SEGMENT
tv67 = -24						; size = 4
tv71 = -20						; size = 4
_this$ = -16						; size = 4
__$EHRec$ = -12						; size = 12
??1CPlayBoxDlg@@UAE@XZ PROC NEAR			; CPlayBoxDlg::~CPlayBoxDlg, COMDAT
; _this$ = ecx
  00000	55		 push	 ebp
  00001	8b ec		 mov	 ebp, esp
  00003	6a ff		 push	 -1
  00005	68 00 00 00 00	 push	 __ehhandler$??1CPlayBoxDlg@@UAE@XZ
  0000a	64 a1 00 00 00
	00		 mov	 eax, DWORD PTR fs:__except_list
  00010	50		 push	 eax
  00011	64 89 25 00 00
	00 00		 mov	 DWORD PTR fs:__except_list, esp
  00018	83 ec 0c	 sub	 esp, 12			; 0000000cH
  0001b	89 4d f0	 mov	 DWORD PTR _this$[ebp], ecx
  0001e	c7 45 fc 04 00
	00 00		 mov	 DWORD PTR __$EHRec$[ebp+8], 4
  00025	8b 4d f0	 mov	 ecx, DWORD PTR _this$[ebp]
  00028	81 c1 1c 01 00
	00		 add	 ecx, 284		; 0000011cH
  0002e	ff 15 00 00 00
	00		 call	 DWORD PTR __imp_??1?$basic_string@DU?$char_traits@D@std@@V?$allocator@D@2@@std@@QAE@XZ
  00034	c6 45 fc 03	 mov	 BYTE PTR __$EHRec$[ebp+8], 3
  00038	8b 4d f0	 mov	 ecx, DWORD PTR _this$[ebp]
  0003b	81 c1 00 01 00
	00		 add	 ecx, 256		; 00000100H
  00041	ff 15 00 00 00
	00		 call	 DWORD PTR __imp_??1?$basic_string@DU?$char_traits@D@std@@V?$allocator@D@2@@std@@QAE@XZ
  00047	c6 45 fc 02	 mov	 BYTE PTR __$EHRec$[ebp+8], 2
  0004b	8b 4d f0	 mov	 ecx, DWORD PTR _this$[ebp]
  0004e	81 c1 e4 00 00
	00		 add	 ecx, 228		; 000000e4H
  00054	ff 15 00 00 00
	00		 call	 DWORD PTR __imp_??1?$basic_string@DU?$char_traits@D@std@@V?$allocator@D@2@@std@@QAE@XZ
  0005a	c6 45 fc 01	 mov	 BYTE PTR __$EHRec$[ebp+8], 1
  0005e	83 7d f0 00	 cmp	 DWORD PTR _this$[ebp], 0
  00062	74 0b		 je	 SHORT $L200624
  00064	8b 45 f0	 mov	 eax, DWORD PTR _this$[ebp]
  00067	83 c0 7c	 add	 eax, 124		; 0000007cH
  0006a	89 45 ec	 mov	 DWORD PTR tv71[ebp], eax
  0006d	eb 07		 jmp	 SHORT $L200625
$L200624:
  0006f	c7 45 ec 00 00
	00 00		 mov	 DWORD PTR tv71[ebp], 0
$L200625:
  00076	8b 4d ec	 mov	 ecx, DWORD PTR tv71[ebp]
  00079	e8 00 00 00 00	 call	 ??1IPanelChangeObserver@@UAE@XZ
  0007e	c6 45 fc 00	 mov	 BYTE PTR __$EHRec$[ebp+8], 0
  00082	83 7d f0 00	 cmp	 DWORD PTR _this$[ebp], 0
  00086	74 0b		 je	 SHORT $L200622
  00088	8b 4d f0	 mov	 ecx, DWORD PTR _this$[ebp]
  0008b	83 c1 78	 add	 ecx, 120		; 00000078H
  0008e	89 4d e8	 mov	 DWORD PTR tv67[ebp], ecx
  00091	eb 07		 jmp	 SHORT $L200623
$L200622:
  00093	c7 45 e8 00 00
	00 00		 mov	 DWORD PTR tv67[ebp], 0
$L200623:
  0009a	8b 4d e8	 mov	 ecx, DWORD PTR tv67[ebp]
  0009d	e8 00 00 00 00	 call	 ??1ILayoutChangeObserver@@UAE@XZ
  000a2	c7 45 fc ff ff
	ff ff		 mov	 DWORD PTR __$EHRec$[ebp+8], -1
  000a9	8b 4d f0	 mov	 ecx, DWORD PTR _this$[ebp]
  000ac	e8 00 00 00 00	 call	 ??1CDialog@@UAE@XZ	; CDialog::~CDialog
  000b1	8b 4d f4	 mov	 ecx, DWORD PTR __$EHRec$[ebp]
  000b4	64 89 0d 00 00
	00 00		 mov	 DWORD PTR fs:__except_list, ecx
  000bb	8b e5		 mov	 esp, ebp
  000bd	5d		 pop	 ebp
  000be	c3		 ret	 0
_TEXT	ENDS
;	COMDAT text$x
text$x	SEGMENT
$L200626:
  00000	8b 4d f0	 mov	 ecx, DWORD PTR _this$[ebp]
  00003	e9 00 00 00 00	 jmp	 ??1CDialog@@UAE@XZ	; CDialog::~CDialog
$L200629:
  00008	83 7d f0 00	 cmp	 DWORD PTR _this$[ebp], 0
  0000c	0f 84 0e 00 00
	00		 je	 $L200627
  00012	8b 45 f0	 mov	 eax, DWORD PTR _this$[ebp]
  00015	83 c0 78	 add	 eax, 120		; 00000078H
  00018	89 45 e8	 mov	 DWORD PTR tv67[ebp], eax
  0001b	e9 07 00 00 00	 jmp	 $L200628
$L200627:
  00020	c7 45 e8 00 00
	00 00		 mov	 DWORD PTR tv67[ebp], 0
$L200628:
  00027	8b 4d e8	 mov	 ecx, DWORD PTR tv67[ebp]
  0002a	e9 00 00 00 00	 jmp	 ??1ILayoutChangeObserver@@UAE@XZ
$L200632:
  0002f	83 7d f0 00	 cmp	 DWORD PTR _this$[ebp], 0
  00033	0f 84 0e 00 00
	00		 je	 $L200630
  00039	8b 45 f0	 mov	 eax, DWORD PTR _this$[ebp]
  0003c	83 c0 7c	 add	 eax, 124		; 0000007cH
  0003f	89 45 ec	 mov	 DWORD PTR tv71[ebp], eax
  00042	e9 07 00 00 00	 jmp	 $L200631
$L200630:
  00047	c7 45 ec 00 00
	00 00		 mov	 DWORD PTR tv71[ebp], 0
$L200631:
  0004e	8b 4d ec	 mov	 ecx, DWORD PTR tv71[ebp]
  00051	e9 00 00 00 00	 jmp	 ??1IPanelChangeObserver@@UAE@XZ
$L200633:
  00056	8b 4d f0	 mov	 ecx, DWORD PTR _this$[ebp]
  00059	81 c1 e4 00 00
	00		 add	 ecx, 228		; 000000e4H
  0005f	ff 25 00 00 00
	00		 jmp	 DWORD PTR __imp_??1?$basic_string@DU?$char_traits@D@std@@V?$allocator@D@2@@std@@QAE@XZ
$L200634:
  00065	8b 4d f0	 mov	 ecx, DWORD PTR _this$[ebp]
  00068	81 c1 00 01 00
	00		 add	 ecx, 256		; 00000100H
  0006e	ff 25 00 00 00
	00		 jmp	 DWORD PTR __imp_??1?$basic_string@DU?$char_traits@D@std@@V?$allocator@D@2@@std@@QAE@XZ
__ehhandler$??1CPlayBoxDlg@@UAE@XZ:
  00074	b8 00 00 00 00	 mov	 eax, OFFSET FLAT:$T200637
  00079	e9 00 00 00 00	 jmp	 ___CxxFrameHandler
text$x	ENDS
??1CPlayBoxDlg@@UAE@XZ ENDP				; CPlayBoxDlg::~CPlayBoxDlg
PUBLIC	??1IMessageObserver@@UAE@XZ			; IMessageObserver::~IMessageObserver
; Function compile flags: /Odt
;	COMDAT ??1ILayoutChangeObserver@@UAE@XZ
_TEXT	SEGMENT
_this$ = -4						; size = 4
??1ILayoutChangeObserver@@UAE@XZ PROC NEAR		; ILayoutChangeObserver::~ILayoutChangeObserver, COMDAT
; _this$ = ecx
  00000	55		 push	 ebp
  00001	8b ec		 mov	 ebp, esp
  00003	51		 push	 ecx
  00004	89 4d fc	 mov	 DWORD PTR _this$[ebp], ecx
  00007	8b 4d fc	 mov	 ecx, DWORD PTR _this$[ebp]
  0000a	e8 00 00 00 00	 call	 ??1IMessageObserver@@UAE@XZ ; IMessageObserver::~IMessageObserver
  0000f	8b e5		 mov	 esp, ebp
  00011	5d		 pop	 ebp
  00012	c3		 ret	 0
??1ILayoutChangeObserver@@UAE@XZ ENDP			; ILayoutChangeObserver::~ILayoutChangeObserver
; Function compile flags: /Odt
_TEXT	ENDS
;	COMDAT ??1IPanelChangeObserver@@UAE@XZ
_TEXT	SEGMENT
_this$ = -4						; size = 4
??1IPanelChangeObserver@@UAE@XZ PROC NEAR		; IPanelChangeObserver::~IPanelChangeObserver, COMDAT
; _this$ = ecx
  00000	55		 push	 ebp
  00001	8b ec		 mov	 ebp, esp
  00003	51		 push	 ecx
  00004	89 4d fc	 mov	 DWORD PTR _this$[ebp], ecx
  00007	8b 4d fc	 mov	 ecx, DWORD PTR _this$[ebp]
  0000a	e8 00 00 00 00	 call	 ??1IMessageObserver@@UAE@XZ ; IMessageObserver::~IMessageObserver
  0000f	8b e5		 mov	 esp, ebp
  00011	5d		 pop	 ebp
  00012	c3		 ret	 0
??1IPanelChangeObserver@@UAE@XZ ENDP			; IPanelChangeObserver::~IPanelChangeObserver
_TEXT	ENDS
PUBLIC	?GetProcessNum@CPlayBoxApp@@QAEHXZ		; CPlayBoxApp::GetProcessNum
EXTRN	_Process32First@8:NEAR
EXTRN	_Process32Next@8:NEAR
EXTRN	__imp__CloseHandle@4:NEAR
EXTRN	__imp__strstr:NEAR
EXTRN	_CreateToolhelp32Snapshot@8:NEAR
; Function compile flags: /Odt
_TEXT	SEGMENT
_this$ = -320						; size = 4
_hSnapshot$ = -316					; size = 4
_bProcess$ = -312					; size = 4
_num$ = -308						; size = 4
_pe32$ = -304						; size = 296
__$ArrayPad$ = -4					; size = 4
__$ReturnAddr$ = 4					; size = 4
?GetProcessNum@CPlayBoxApp@@QAEHXZ PROC NEAR		; CPlayBoxApp::GetProcessNum
; _this$ = ecx

; 185  : {

  00590	55		 push	 ebp
  00591	8b ec		 mov	 ebp, esp
  00593	81 ec 40 01 00
	00		 sub	 esp, 320		; 00000140H
  00599	a1 00 00 00 00	 mov	 eax, DWORD PTR ___security_cookie
  0059e	89 45 fc	 mov	 DWORD PTR __$ArrayPad$[ebp], eax
  005a1	89 8d c0 fe ff
	ff		 mov	 DWORD PTR _this$[ebp], ecx

; 186  : 	int num = 0;

  005a7	c7 85 cc fe ff
	ff 00 00 00 00	 mov	 DWORD PTR _num$[ebp], 0

; 187  : 	PROCESSENTRY32 pe32;
; 188  : 	pe32.dwSize = sizeof(PROCESSENTRY32);

  005b1	c7 85 d0 fe ff
	ff 28 01 00 00	 mov	 DWORD PTR _pe32$[ebp], 296 ; 00000128H

; 189  : 	HANDLE hSnapshot = CreateToolhelp32Snapshot(TH32CS_SNAPPROCESS, 0);

  005bb	6a 00		 push	 0
  005bd	6a 02		 push	 2
  005bf	e8 00 00 00 00	 call	 _CreateToolhelp32Snapshot@8
  005c4	89 85 c4 fe ff
	ff		 mov	 DWORD PTR _hSnapshot$[ebp], eax

; 190  : 	if(hSnapshot == INVALID_HANDLE_VALUE)

  005ca	83 bd c4 fe ff
	ff ff		 cmp	 DWORD PTR _hSnapshot$[ebp], -1
  005d1	75 0a		 jne	 SHORT $L199884

; 191  : 	{
; 192  : 		return 1;

  005d3	b8 01 00 00 00	 mov	 eax, 1
  005d8	e9 83 00 00 00	 jmp	 $L199877
$L199884:

; 193  : 	}
; 194  : 
; 195  : 	BOOL bProcess = Process32First(hSnapshot, &pe32);

  005dd	8d 85 d0 fe ff
	ff		 lea	 eax, DWORD PTR _pe32$[ebp]
  005e3	50		 push	 eax
  005e4	8b 8d c4 fe ff
	ff		 mov	 ecx, DWORD PTR _hSnapshot$[ebp]
  005ea	51		 push	 ecx
  005eb	e8 00 00 00 00	 call	 _Process32First@8
  005f0	89 85 c8 fe ff
	ff		 mov	 DWORD PTR _bProcess$[ebp], eax
$L199887:

; 196  : 	while(bProcess)

  005f6	83 bd c8 fe ff
	ff 00		 cmp	 DWORD PTR _bProcess$[ebp], 0
  005fd	74 4e		 je	 SHORT $L199888

; 197  : 	{
; 198  : 		if(strstr(pe32.szExeFile, "PlayBox.exe") != NULL)

  005ff	68 00 00 00 00	 push	 OFFSET FLAT:$SG199890
  00604	8d 95 f4 fe ff
	ff		 lea	 edx, DWORD PTR _pe32$[ebp+36]
  0060a	52		 push	 edx
  0060b	ff 15 00 00 00
	00		 call	 DWORD PTR __imp__strstr
  00611	83 c4 08	 add	 esp, 8
  00614	85 c0		 test	 eax, eax
  00616	74 1a		 je	 SHORT $L199889

; 199  : 		{
; 200  : 			num++;

  00618	8b 85 cc fe ff
	ff		 mov	 eax, DWORD PTR _num$[ebp]
  0061e	83 c0 01	 add	 eax, 1
  00621	89 85 cc fe ff
	ff		 mov	 DWORD PTR _num$[ebp], eax

; 201  : 			if(num > 2)

  00627	83 bd cc fe ff
	ff 02		 cmp	 DWORD PTR _num$[ebp], 2
  0062e	7e 02		 jle	 SHORT $L199889

; 202  : 				break;

  00630	eb 1b		 jmp	 SHORT $L199888
$L199889:

; 203  : 		}
; 204  : 		bProcess = Process32Next(hSnapshot, &pe32);

  00632	8d 8d d0 fe ff
	ff		 lea	 ecx, DWORD PTR _pe32$[ebp]
  00638	51		 push	 ecx
  00639	8b 95 c4 fe ff
	ff		 mov	 edx, DWORD PTR _hSnapshot$[ebp]
  0063f	52		 push	 edx
  00640	e8 00 00 00 00	 call	 _Process32Next@8
  00645	89 85 c8 fe ff
	ff		 mov	 DWORD PTR _bProcess$[ebp], eax

; 205  : 	}

  0064b	eb a9		 jmp	 SHORT $L199887
$L199888:

; 206  : 
; 207  : 	CloseHandle( hSnapshot );

  0064d	8b 85 c4 fe ff
	ff		 mov	 eax, DWORD PTR _hSnapshot$[ebp]
  00653	50		 push	 eax
  00654	ff 15 00 00 00
	00		 call	 DWORD PTR __imp__CloseHandle@4

; 208  : 	return num;

  0065a	8b 85 cc fe ff
	ff		 mov	 eax, DWORD PTR _num$[ebp]
$L199877:

; 209  : }

  00660	8b 4d fc	 mov	 ecx, DWORD PTR __$ArrayPad$[ebp]
  00663	e8 00 00 00 00	 call	 @__security_check_cookie@4
  00668	8b e5		 mov	 esp, ebp
  0066a	5d		 pop	 ebp
  0066b	c3		 ret	 0
?GetProcessNum@CPlayBoxApp@@QAEHXZ ENDP			; CPlayBoxApp::GetProcessNum
_TEXT	ENDS
EXTRN	__imp__GetCurrentProcess@0:NEAR
EXTRN	__imp__GetCurrentProcessId@0:NEAR
EXTRN	__imp__TerminateProcess@8:NEAR
EXTRN	__imp__sprintf:NEAR
EXTRN	__imp__CreateProcessA@40:NEAR
EXTRN	__imp__DuplicateHandle@28:NEAR
; Function compile flags: /Odt
_TEXT	SEGMENT
_this$ = -560						; size = 4
_saProcess$199912 = -556				; size = 12
_siStartupInfo$199911 = -544				; size = 68
_szBuffer$199914 = -472					; size = 128
_saThread$199913 = -344					; size = 12
_piProcInfoGPS$199910 = -332				; size = 16
_hSnapshot$ = -316					; size = 4
_bProcess$ = -312					; size = 4
_num$ = -308						; size = 4
_pe32$ = -304						; size = 296
__$ArrayPad$ = -8					; size = 4
_hProcess$ = -4						; size = 4
__$ReturnAddr$ = 4					; size = 4
?KillOtherInstance@CPlayBoxApp@@QAEHXZ PROC NEAR	; CPlayBoxApp::KillOtherInstance
; _this$ = ecx

; 212  : {

  00670	55		 push	 ebp
  00671	8b ec		 mov	 ebp, esp
  00673	81 ec 30 02 00
	00		 sub	 esp, 560		; 00000230H
  00679	a1 00 00 00 00	 mov	 eax, DWORD PTR ___security_cookie
  0067e	89 45 f8	 mov	 DWORD PTR __$ArrayPad$[ebp], eax
  00681	89 8d d0 fd ff
	ff		 mov	 DWORD PTR _this$[ebp], ecx

; 213  : 	int num = 0;

  00687	c7 85 cc fe ff
	ff 00 00 00 00	 mov	 DWORD PTR _num$[ebp], 0

; 214  : 	PROCESSENTRY32 pe32;
; 215  : 	pe32.dwSize = sizeof(PROCESSENTRY32);

  00691	c7 85 d0 fe ff
	ff 28 01 00 00	 mov	 DWORD PTR _pe32$[ebp], 296 ; 00000128H

; 216  : 	HANDLE hSnapshot = CreateToolhelp32Snapshot(TH32CS_SNAPPROCESS, 0);

  0069b	6a 00		 push	 0
  0069d	6a 02		 push	 2
  0069f	e8 00 00 00 00	 call	 _CreateToolhelp32Snapshot@8
  006a4	89 85 c4 fe ff
	ff		 mov	 DWORD PTR _hSnapshot$[ebp], eax

; 217  : 	if(hSnapshot == INVALID_HANDLE_VALUE)

  006aa	83 bd c4 fe ff
	ff ff		 cmp	 DWORD PTR _hSnapshot$[ebp], -1
  006b1	75 07		 jne	 SHORT $L199901

; 218  : 	{
; 219  : 		return 0;

  006b3	33 c0		 xor	 eax, eax
  006b5	e9 7a 01 00 00	 jmp	 $L199894
$L199901:

; 220  : 	}
; 221  : 
; 222  : 	BOOL bProcess = Process32First(hSnapshot, &pe32);

  006ba	8d 85 d0 fe ff
	ff		 lea	 eax, DWORD PTR _pe32$[ebp]
  006c0	50		 push	 eax
  006c1	8b 8d c4 fe ff
	ff		 mov	 ecx, DWORD PTR _hSnapshot$[ebp]
  006c7	51		 push	 ecx
  006c8	e8 00 00 00 00	 call	 _Process32First@8
  006cd	89 85 c8 fe ff
	ff		 mov	 DWORD PTR _bProcess$[ebp], eax
$L199905:

; 223  : 	HANDLE hProcess;
; 224  : 	while(bProcess)

  006d3	83 bd c8 fe ff
	ff 00		 cmp	 DWORD PTR _bProcess$[ebp], 0
  006da	0f 84 42 01 00
	00		 je	 $L199906

; 225  : 	{
; 226  : 		if(strstr(pe32.szExeFile, "PlayBox.exe") != NULL)

  006e0	68 00 00 00 00	 push	 OFFSET FLAT:$SG199908
  006e5	8d 95 f4 fe ff
	ff		 lea	 edx, DWORD PTR _pe32$[ebp+36]
  006eb	52		 push	 edx
  006ec	ff 15 00 00 00
	00		 call	 DWORD PTR __imp__strstr
  006f2	83 c4 08	 add	 esp, 8
  006f5	85 c0		 test	 eax, eax
  006f7	0f 84 07 01 00
	00		 je	 $L199907

; 227  : 		{
; 228  : 			if(pe32.th32ProcessID != GetCurrentProcessId())

  006fd	ff 15 00 00 00
	00		 call	 DWORD PTR __imp__GetCurrentProcessId@0
  00703	39 85 d8 fe ff
	ff		 cmp	 DWORD PTR _pe32$[ebp+8], eax
  00709	0f 84 f5 00 00
	00		 je	 $L199907

; 229  : 			{
; 230  : 				PROCESS_INFORMATION piProcInfoGPS;
; 231  : 				STARTUPINFO siStartupInfo;
; 232  : 				SECURITY_ATTRIBUTES saProcess, saThread;
; 233  : 				ZeroMemory( &siStartupInfo, sizeof(siStartupInfo) );

  0070f	6a 44		 push	 68			; 00000044H
  00711	6a 00		 push	 0
  00713	8d 85 e0 fd ff
	ff		 lea	 eax, DWORD PTR _siStartupInfo$199911[ebp]
  00719	50		 push	 eax
  0071a	e8 00 00 00 00	 call	 _memset
  0071f	83 c4 0c	 add	 esp, 12			; 0000000cH

; 234  : 				siStartupInfo.cb = sizeof(siStartupInfo);

  00722	c7 85 e0 fd ff
	ff 44 00 00 00	 mov	 DWORD PTR _siStartupInfo$199911[ebp], 68 ; 00000044H

; 235  : 				saProcess.nLength = sizeof(saProcess);

  0072c	c7 85 d4 fd ff
	ff 0c 00 00 00	 mov	 DWORD PTR _saProcess$199912[ebp], 12 ; 0000000cH

; 236  : 				saProcess.lpSecurityDescriptor = NULL;

  00736	c7 85 d8 fd ff
	ff 00 00 00 00	 mov	 DWORD PTR _saProcess$199912[ebp+4], 0

; 237  : 				saProcess.bInheritHandle = true;

  00740	c7 85 dc fd ff
	ff 01 00 00 00	 mov	 DWORD PTR _saProcess$199912[ebp+8], 1

; 238  : 				saThread.nLength = sizeof(saThread);

  0074a	c7 85 a8 fe ff
	ff 0c 00 00 00	 mov	 DWORD PTR _saThread$199913[ebp], 12 ; 0000000cH

; 239  : 				saThread.lpSecurityDescriptor = NULL;

  00754	c7 85 ac fe ff
	ff 00 00 00 00	 mov	 DWORD PTR _saThread$199913[ebp+4], 0

; 240  : 				saThread.bInheritHandle = true;

  0075e	c7 85 b0 fe ff
	ff 01 00 00 00	 mov	 DWORD PTR _saThread$199913[ebp+8], 1

; 241  : 				char szBuffer[128];
; 242  : 				sprintf(szBuffer,"taskkill /f /pid %d",pe32.th32ProcessID);

  00768	8b 8d d8 fe ff
	ff		 mov	 ecx, DWORD PTR _pe32$[ebp+8]
  0076e	51		 push	 ecx
  0076f	68 00 00 00 00	 push	 OFFSET FLAT:$SG199915
  00774	8d 95 28 fe ff
	ff		 lea	 edx, DWORD PTR _szBuffer$199914[ebp]
  0077a	52		 push	 edx
  0077b	ff 15 00 00 00
	00		 call	 DWORD PTR __imp__sprintf
  00781	83 c4 0c	 add	 esp, 12			; 0000000cH

; 243  : 				::CreateProcess( NULL,szBuffer , &saProcess,&saThread,
; 244  : 					false,CREATE_NO_WINDOW, NULL, NULL,&siStartupInfo,
; 245  : 					&piProcInfoGPS );

  00784	8d 85 b4 fe ff
	ff		 lea	 eax, DWORD PTR _piProcInfoGPS$199910[ebp]
  0078a	50		 push	 eax
  0078b	8d 8d e0 fd ff
	ff		 lea	 ecx, DWORD PTR _siStartupInfo$199911[ebp]
  00791	51		 push	 ecx
  00792	6a 00		 push	 0
  00794	6a 00		 push	 0
  00796	68 00 00 00 08	 push	 134217728		; 08000000H
  0079b	6a 00		 push	 0
  0079d	8d 95 a8 fe ff
	ff		 lea	 edx, DWORD PTR _saThread$199913[ebp]
  007a3	52		 push	 edx
  007a4	8d 85 d4 fd ff
	ff		 lea	 eax, DWORD PTR _saProcess$199912[ebp]
  007aa	50		 push	 eax
  007ab	8d 8d 28 fe ff
	ff		 lea	 ecx, DWORD PTR _szBuffer$199914[ebp]
  007b1	51		 push	 ecx
  007b2	6a 00		 push	 0
  007b4	ff 15 00 00 00
	00		 call	 DWORD PTR __imp__CreateProcessA@40

; 246  : 
; 247  : 				DuplicateHandle(GetCurrentProcess(), 
; 248  : 					(HANDLE)pe32.th32ProcessID, 
; 249  : 					GetCurrentProcess(),
; 250  : 					&hProcess, 
; 251  : 					0,
; 252  : 					FALSE,
; 253  : 					DUPLICATE_SAME_ACCESS);

  007ba	6a 02		 push	 2
  007bc	6a 00		 push	 0
  007be	6a 00		 push	 0
  007c0	8d 55 fc	 lea	 edx, DWORD PTR _hProcess$[ebp]
  007c3	52		 push	 edx
  007c4	ff 15 00 00 00
	00		 call	 DWORD PTR __imp__GetCurrentProcess@0
  007ca	50		 push	 eax
  007cb	8b 85 d8 fe ff
	ff		 mov	 eax, DWORD PTR _pe32$[ebp+8]
  007d1	50		 push	 eax
  007d2	ff 15 00 00 00
	00		 call	 DWORD PTR __imp__GetCurrentProcess@0
  007d8	50		 push	 eax
  007d9	ff 15 00 00 00
	00		 call	 DWORD PTR __imp__DuplicateHandle@28

; 254  : 				TerminateProcess(&hProcess, 0);

  007df	6a 00		 push	 0
  007e1	8d 4d fc	 lea	 ecx, DWORD PTR _hProcess$[ebp]
  007e4	51		 push	 ecx
  007e5	ff 15 00 00 00
	00		 call	 DWORD PTR __imp__TerminateProcess@8

; 255  : 				WaitForSingleObject(hProcess,2000);

  007eb	68 d0 07 00 00	 push	 2000			; 000007d0H
  007f0	8b 55 fc	 mov	 edx, DWORD PTR _hProcess$[ebp]
  007f3	52		 push	 edx
  007f4	ff 15 00 00 00
	00		 call	 DWORD PTR __imp__WaitForSingleObject@8

; 256  : 				CloseHandle(hProcess);

  007fa	8b 45 fc	 mov	 eax, DWORD PTR _hProcess$[ebp]
  007fd	50		 push	 eax
  007fe	ff 15 00 00 00
	00		 call	 DWORD PTR __imp__CloseHandle@4
$L199907:

; 257  : 			}
; 258  : 		}
; 259  : 		bProcess = Process32Next(hSnapshot, &pe32);

  00804	8d 8d d0 fe ff
	ff		 lea	 ecx, DWORD PTR _pe32$[ebp]
  0080a	51		 push	 ecx
  0080b	8b 95 c4 fe ff
	ff		 mov	 edx, DWORD PTR _hSnapshot$[ebp]
  00811	52		 push	 edx
  00812	e8 00 00 00 00	 call	 _Process32Next@8
  00817	89 85 c8 fe ff
	ff		 mov	 DWORD PTR _bProcess$[ebp], eax

; 260  : 	}

  0081d	e9 b1 fe ff ff	 jmp	 $L199905
$L199906:

; 261  : 
; 262  : 	CloseHandle( hSnapshot );

  00822	8b 85 c4 fe ff
	ff		 mov	 eax, DWORD PTR _hSnapshot$[ebp]
  00828	50		 push	 eax
  00829	ff 15 00 00 00
	00		 call	 DWORD PTR __imp__CloseHandle@4

; 263  : 	return 1;

  0082f	b8 01 00 00 00	 mov	 eax, 1
$L199894:

; 264  : }

  00834	8b 4d f8	 mov	 ecx, DWORD PTR __$ArrayPad$[ebp]
  00837	e8 00 00 00 00	 call	 @__security_check_cookie@4
  0083c	8b e5		 mov	 esp, ebp
  0083e	5d		 pop	 ebp
  0083f	c3		 ret	 0
?KillOtherInstance@CPlayBoxApp@@QAEHXZ ENDP		; CPlayBoxApp::KillOtherInstance
_TEXT	ENDS
EXTRN	__imp__SendMessageTimeoutA@28:NEAR
EXTRN	__imp__IsWindow@4:NEAR
EXTRN	__imp____p___argc:NEAR
EXTRN	__imp____p___argv:NEAR
EXTRN	_strlen:NEAR
; Function compile flags: /Odt
_TEXT	SEGMENT
tv68 = -24						; size = 4
_this$ = -20						; size = 4
_copy$199928 = -16					; size = 12
_result$199926 = -4					; size = 4
_hKwMusic$ = 8						; size = 4
?SendCmdLineMsg@CPlayBoxApp@@QAEXPAUHWND__@@@Z PROC NEAR ; CPlayBoxApp::SendCmdLineMsg
; _this$ = ecx

; 268  : {

  00840	55		 push	 ebp
  00841	8b ec		 mov	 ebp, esp
  00843	83 ec 18	 sub	 esp, 24			; 00000018H
  00846	89 4d ec	 mov	 DWORD PTR _this$[ebp], ecx

; 269  : 	if(!IsWindow(hKwMusic))

  00849	8b 45 08	 mov	 eax, DWORD PTR _hKwMusic$[ebp]
  0084c	50		 push	 eax
  0084d	ff 15 00 00 00
	00		 call	 DWORD PTR __imp__IsWindow@4
  00853	85 c0		 test	 eax, eax
  00855	75 02		 jne	 SHORT $L199921

; 270  : 		return;

  00857	eb 5f		 jmp	 SHORT $L199920
$L199921:

; 271  : 	
; 272  : 	switch(__argc)

  00859	ff 15 00 00 00
	00		 call	 DWORD PTR __imp____p___argc
  0085f	8b 08		 mov	 ecx, DWORD PTR [eax]
  00861	89 4d e8	 mov	 DWORD PTR tv68[ebp], ecx
  00864	83 7d e8 02	 cmp	 DWORD PTR tv68[ebp], 2
  00868	74 02		 je	 SHORT $L199927
  0086a	eb 4c		 jmp	 SHORT $L199920
$L199927:

; 273  : 	{
; 274  : 		DWORD result;
; 275  : 	case 2:
; 276  : 		{
; 277  : 			COPYDATASTRUCT copy;
; 278  : 			copy.dwData = WM_PLAYBOX_PROTOCOL;

  0086c	c7 45 f0 64 04
	00 00		 mov	 DWORD PTR _copy$199928[ebp], 1124 ; 00000464H

; 279  : 			copy.cbData = (DWORD)strlen(__targv[1]) + 1;

  00873	ff 15 00 00 00
	00		 call	 DWORD PTR __imp____p___argv
  00879	8b 10		 mov	 edx, DWORD PTR [eax]
  0087b	8b 42 04	 mov	 eax, DWORD PTR [edx+4]
  0087e	50		 push	 eax
  0087f	e8 00 00 00 00	 call	 _strlen
  00884	83 c4 04	 add	 esp, 4
  00887	83 c0 01	 add	 eax, 1
  0088a	89 45 f4	 mov	 DWORD PTR _copy$199928[ebp+4], eax

; 280  : 			copy.lpData = (void*)__targv[1];

  0088d	ff 15 00 00 00
	00		 call	 DWORD PTR __imp____p___argv
  00893	8b 08		 mov	 ecx, DWORD PTR [eax]
  00895	8b 51 04	 mov	 edx, DWORD PTR [ecx+4]
  00898	89 55 f8	 mov	 DWORD PTR _copy$199928[ebp+8], edx

; 281  : 			SendMessageTimeout(hKwMusic, WM_COPYDATA, NULL, (LPARAM)&copy, SMTO_NORMAL, 1000, &result);

  0089b	8d 45 fc	 lea	 eax, DWORD PTR _result$199926[ebp]
  0089e	50		 push	 eax
  0089f	68 e8 03 00 00	 push	 1000			; 000003e8H
  008a4	6a 00		 push	 0
  008a6	8d 4d f0	 lea	 ecx, DWORD PTR _copy$199928[ebp]
  008a9	51		 push	 ecx
  008aa	6a 00		 push	 0
  008ac	6a 4a		 push	 74			; 0000004aH
  008ae	8b 55 08	 mov	 edx, DWORD PTR _hKwMusic$[ebp]
  008b1	52		 push	 edx
  008b2	ff 15 00 00 00
	00		 call	 DWORD PTR __imp__SendMessageTimeoutA@28
$L199920:

; 282  : 		}
; 283  : 		break;
; 284  : 	default:
; 285  : 		break;
; 286  : 	}
; 287  : }

  008b8	8b e5		 mov	 esp, ebp
  008ba	5d		 pop	 ebp
  008bb	c2 04 00	 ret	 4
?SendCmdLineMsg@CPlayBoxApp@@QAEXPAUHWND__@@@Z ENDP	; CPlayBoxApp::SendCmdLineMsg
_TEXT	ENDS
EXTRN	?ExitInstance@CWinApp@@UAEHXZ:NEAR		; CWinApp::ExitInstance
; Function compile flags: /Odt
_TEXT	SEGMENT
_this$ = -4						; size = 4
?ExitInstance@CPlayBoxApp@@MAEHXZ PROC NEAR		; CPlayBoxApp::ExitInstance
; _this$ = ecx

; 290  : {

  008c0	55		 push	 ebp
  008c1	8b ec		 mov	 ebp, esp
  008c3	51		 push	 ecx
  008c4	89 4d fc	 mov	 DWORD PTR _this$[ebp], ecx

; 291  : 	////
; 292  : 	//SECURITY_DESCRIPTOR     sd_wideopen;
; 293  : 	//InitializeSecurityDescriptor(&sd_wideopen, SECURITY_DESCRIPTOR_REVISION);
; 294  : 	//SetSecurityDescriptorDacl(
; 295  : 	//	&sd_wideopen,	// addr of SD
; 296  : 	//	TRUE,		    // TRUE = DACL present
; 297  : 	//	NULL,		    // ... but it's empty (wide open)
; 298  : 	//	FALSE);		    // DACL explicitly set, not defaulted
; 299  : 
; 300  : 	//SECURITY_ATTRIBUTES     sa;
; 301  : 	//memset(&sa, 0, sizeof sa);
; 302  : 	//sa.nLength              = sizeof sa;
; 303  : 	//sa.lpSecurityDescriptor = &sd_wideopen;
; 304  : 	//sa.bInheritHandle       = FALSE;
; 305  : 	//HANDLE handle = ::CreateMutex(&sa, FALSE, "YPLAYBOX_2011_3_3");
; 306  : 	//::ReleaseMutex(handle);
; 307  : 	//CloseHandle(handle);
; 308  : 	//
; 309  : 	//g_hSharedWnd = NULL;
; 310  : 
; 311  : 	//win32exec("PlayBox.exe", GetExePath().c_str(), false);
; 312  : 	return __super::ExitInstance();

  008c7	8b 4d fc	 mov	 ecx, DWORD PTR _this$[ebp]
  008ca	e8 00 00 00 00	 call	 ?ExitInstance@CWinApp@@UAEHXZ ; CWinApp::ExitInstance

; 313  : }

  008cf	8b e5		 mov	 esp, ebp
  008d1	5d		 pop	 ebp
  008d2	c3		 ret	 0
?ExitInstance@CPlayBoxApp@@MAEHXZ ENDP			; CPlayBoxApp::ExitInstance
_TEXT	ENDS
PUBLIC	?_AtlInstallStringThunk@ATL@@YAXPAPAXPAX1@Z	; ATL::_AtlInstallStringThunk
PUBLIC	?GetEnvironmentVariableWFake@ATL@@YGKPB_WPA_WK@Z ; ATL::GetEnvironmentVariableWFake
EXTRN	__imp__GetEnvironmentVariableW@12:NEAR
; Function compile flags: /Odt
; File d:\program files (x86)\microsoft visual studio .net 2003\vc7\atlmfc\include\cstringt.h
;	COMDAT ?GetEnvironmentVariableWThunk@ATL@@YGKPB_WPA_WK@Z
_TEXT	SEGMENT
_pszName$ = 8						; size = 4
_pszBuffer$ = 12					; size = 4
_nSize$ = 16						; size = 4
?GetEnvironmentVariableWThunk@ATL@@YGKPB_WPA_WK@Z PROC NEAR ; ATL::GetEnvironmentVariableWThunk, COMDAT

; 183  : {

  00000	55		 push	 ebp
  00001	8b ec		 mov	 ebp, esp

; 184  : 	_AtlInstallStringThunk(reinterpret_cast<void**>(&_strthunks.pfnGetEnvironmentVariableW), 
; 185  : 		GetEnvironmentVariableWFake, ::GetEnvironmentVariableW);

  00003	a1 00 00 00 00	 mov	 eax, DWORD PTR __imp__GetEnvironmentVariableW@12
  00008	50		 push	 eax
  00009	68 00 00 00 00	 push	 OFFSET FLAT:?GetEnvironmentVariableWFake@ATL@@YGKPB_WPA_WK@Z ; ATL::GetEnvironmentVariableWFake
  0000e	68 14 00 00 00	 push	 OFFSET FLAT:?_strthunks@ATL@@3U_AtlStringThunks@1@A+20
  00013	e8 00 00 00 00	 call	 ?_AtlInstallStringThunk@ATL@@YAXPAPAXPAX1@Z ; ATL::_AtlInstallStringThunk
  00018	83 c4 0c	 add	 esp, 12			; 0000000cH

; 186  : 
; 187  : 	return _strthunks.pfnGetEnvironmentVariableW(pszName, pszBuffer, nSize);

  0001b	8b 4d 10	 mov	 ecx, DWORD PTR _nSize$[ebp]
  0001e	51		 push	 ecx
  0001f	8b 55 0c	 mov	 edx, DWORD PTR _pszBuffer$[ebp]
  00022	52		 push	 edx
  00023	8b 45 08	 mov	 eax, DWORD PTR _pszName$[ebp]
  00026	50		 push	 eax
  00027	ff 15 14 00 00
	00		 call	 DWORD PTR ?_strthunks@ATL@@3U_AtlStringThunks@1@A+20

; 188  : }

  0002d	5d		 pop	 ebp
  0002e	c2 0c 00	 ret	 12			; 0000000cH
?GetEnvironmentVariableWThunk@ATL@@YGKPB_WPA_WK@Z ENDP	; ATL::GetEnvironmentVariableWThunk
_TEXT	ENDS
PUBLIC	?s_bWin9x@?1??_AtlInstallStringThunk@ATL@@YAXPAPAXPAX1@Z@4_NA ; `ATL::_AtlInstallStringThunk'::`2'::s_bWin9x
PUBLIC	??_B?1??_AtlInstallStringThunk@ATL@@YAXPAPAXPAX1@Z@51 ; `ATL::_AtlInstallStringThunk'::`2'::`local static guard'
EXTRN	__imp__GetVersion@0:NEAR
;	COMDAT ?s_bWin9x@?1??_AtlInstallStringThunk@ATL@@YAXPAPAXPAX1@Z@4_NA
_BSS	SEGMENT
?s_bWin9x@?1??_AtlInstallStringThunk@ATL@@YAXPAPAXPAX1@Z@4_NA DB 01H DUP (?) ; `ATL::_AtlInstallStringThunk'::`2'::s_bWin9x
_BSS	ENDS
;	COMDAT ??_B?1??_AtlInstallStringThunk@ATL@@YAXPAPAXPAX1@Z@51
_BSS	SEGMENT
??_B?1??_AtlInstallStringThunk@ATL@@YAXPAPAXPAX1@Z@51 DD 01H DUP (?) ; `ATL::_AtlInstallStringThunk'::`2'::`local static guard'
; Function compile flags: /Odt
_BSS	ENDS
;	COMDAT ?_AtlInstallStringThunk@ATL@@YAXPAPAXPAX1@Z
_TEXT	SEGMENT
_pfn$ = -4						; size = 4
_ppThunk$ = 8						; size = 4
_pfnWin9x$ = 12						; size = 4
_pfnNT$ = 16						; size = 4
?_AtlInstallStringThunk@ATL@@YAXPAPAXPAX1@Z PROC NEAR	; ATL::_AtlInstallStringThunk, COMDAT

; 115  : {

  00000	55		 push	 ebp
  00001	8b ec		 mov	 ebp, esp
  00003	51		 push	 ecx

; 116  : #pragma warning (push)
; 117  : #pragma warning (disable : 4640)	// construction of local static object is not thread-safe
; 118  : 
; 119  : 	static bool s_bWin9x = (::GetVersion()&0x80000000) != 0;

  00004	a1 00 00 00 00	 mov	 eax, DWORD PTR ??_B?1??_AtlInstallStringThunk@ATL@@YAXPAPAXPAX1@Z@51
  00009	83 e0 01	 and	 eax, 1
  0000c	75 25		 jne	 SHORT $L25641
  0000e	8b 0d 00 00 00
	00		 mov	 ecx, DWORD PTR ??_B?1??_AtlInstallStringThunk@ATL@@YAXPAPAXPAX1@Z@51
  00014	83 c9 01	 or	 ecx, 1
  00017	89 0d 00 00 00
	00		 mov	 DWORD PTR ??_B?1??_AtlInstallStringThunk@ATL@@YAXPAPAXPAX1@Z@51, ecx
  0001d	ff 15 00 00 00
	00		 call	 DWORD PTR __imp__GetVersion@0
  00023	25 00 00 00 80	 and	 eax, -2147483648	; 80000000H
  00028	f7 d8		 neg	 eax
  0002a	1b c0		 sbb	 eax, eax
  0002c	f7 d8		 neg	 eax
  0002e	a2 00 00 00 00	 mov	 BYTE PTR ?s_bWin9x@?1??_AtlInstallStringThunk@ATL@@YAXPAPAXPAX1@Z@4_NA, al ; `ATL::_AtlInstallStringThunk'::`2'::s_bWin9x
$L25641:

; 120  : 	
; 121  : #pragma warning (pop)
; 122  : 
; 123  : 	void* pfn;
; 124  : 	if (s_bWin9x)

  00033	0f b6 15 00 00
	00 00		 movzx	 edx, BYTE PTR ?s_bWin9x@?1??_AtlInstallStringThunk@ATL@@YAXPAPAXPAX1@Z@4_NA ; `ATL::_AtlInstallStringThunk'::`2'::s_bWin9x
  0003a	85 d2		 test	 edx, edx
  0003c	74 08		 je	 SHORT $L25643

; 125  : 		pfn = pfnWin9x;

  0003e	8b 45 0c	 mov	 eax, DWORD PTR _pfnWin9x$[ebp]
  00041	89 45 fc	 mov	 DWORD PTR _pfn$[ebp], eax

; 126  : 	else

  00044	eb 06		 jmp	 SHORT $L25644
$L25643:

; 127  : 	{
; 128  : #ifdef _CSTRING_ALWAYS_THUNK
; 129  : 		pfn = pfnWin9x;
; 130  : 		(void)pfnNT;
; 131  : #else
; 132  : 		pfn = pfnNT;

  00046	8b 4d 10	 mov	 ecx, DWORD PTR _pfnNT$[ebp]
  00049	89 4d fc	 mov	 DWORD PTR _pfn$[ebp], ecx
$L25644:

; 133  : #endif
; 134  : 	}
; 135  : 	InterlockedExchangePointer(ppThunk, pfn);

  0004c	8b 55 fc	 mov	 edx, DWORD PTR _pfn$[ebp]
  0004f	52		 push	 edx
  00050	8b 45 08	 mov	 eax, DWORD PTR _ppThunk$[ebp]
  00053	50		 push	 eax
  00054	e8 00 00 00 00	 call	 ?InterlockedExchangePointer@@YGPAXPAPAXPAX@Z ; InterlockedExchangePointer

; 136  : }

  00059	8b e5		 mov	 esp, ebp
  0005b	5d		 pop	 ebp
  0005c	c3		 ret	 0
?_AtlInstallStringThunk@ATL@@YAXPAPAXPAX1@Z ENDP	; ATL::_AtlInstallStringThunk
_TEXT	ENDS
PUBLIC	??0?$CTempBuffer@D$0IA@VCCRTAllocator@ATL@@@ATL@@QAE@XZ ; ATL::CTempBuffer<char,128,ATL::CCRTAllocator>::CTempBuffer<char,128,ATL::CCRTAllocator>
PUBLIC	??1?$CTempBuffer@D$0IA@VCCRTAllocator@ATL@@@ATL@@QAE@XZ ; ATL::CTempBuffer<char,128,ATL::CCRTAllocator>::~CTempBuffer<char,128,ATL::CCRTAllocator>
PUBLIC	??B?$CTempBuffer@D$0IA@VCCRTAllocator@ATL@@@ATL@@QBEPADXZ ; ATL::CTempBuffer<char,128,ATL::CCRTAllocator>::operator char *
PUBLIC	?Allocate@?$CTempBuffer@D$0IA@VCCRTAllocator@ATL@@@ATL@@QAEPADI@Z ; ATL::CTempBuffer<char,128,ATL::CCRTAllocator>::Allocate
PUBLIC	??0?$CW2AEX@$0IA@@ATL@@QAE@PB_W@Z		; ATL::CW2AEX<128>::CW2AEX<128>
PUBLIC	??1?$CW2AEX@$0IA@@ATL@@QAE@XZ			; ATL::CW2AEX<128>::~CW2AEX<128>
PUBLIC	??B?$CW2AEX@$0IA@@ATL@@QBEPADXZ			; ATL::CW2AEX<128>::operator char *
PUBLIC	?_AtlGetConversionACP@ATL@@YGIXZ		; ATL::_AtlGetConversionACP
EXTRN	__imp__MultiByteToWideChar@24:NEAR
EXTRN	__imp__GetEnvironmentVariableA@12:NEAR
;	COMDAT xdata$x
xdata$x	SEGMENT
$T200672 DD	0ffffffffH
	DD	FLAT:$L200666
	DD	00H
	DD	FLAT:$L200667
$T200669 DD	019930520H
	DD	02H
	DD	FLAT:$T200672
	DD	2 DUP(00H)
	DD	2 DUP(00H)
; Function compile flags: /Odt
xdata$x	ENDS
;	COMDAT ?GetEnvironmentVariableWFake@ATL@@YGKPB_WPA_WK@Z
_TEXT	SEGMENT
$T200665 = -312						; size = 4
$T200664 = -308						; size = 4
$T200663 = -304						; size = 4
_pszBufferA$ = -300					; size = 132
_nSizeW$ = -160						; size = 4
_pszNameA$ = -156					; size = 132
__$ArrayPad$ = -20					; size = 4
_nSizeA$ = -16						; size = 4
__$EHRec$ = -12						; size = 12
__$ReturnAddr$ = 4					; size = 4
_pszName$ = 8						; size = 4
_pszBuffer$ = 12					; size = 4
_nSize$ = 16						; size = 4
?GetEnvironmentVariableWFake@ATL@@YGKPB_WPA_WK@Z PROC NEAR ; ATL::GetEnvironmentVariableWFake, COMDAT

; 159  : {

  00000	55		 push	 ebp
  00001	8b ec		 mov	 ebp, esp
  00003	6a ff		 push	 -1
  00005	68 00 00 00 00	 push	 __ehhandler$?GetEnvironmentVariableWFake@ATL@@YGKPB_WPA_WK@Z
  0000a	64 a1 00 00 00
	00		 mov	 eax, DWORD PTR fs:__except_list
  00010	50		 push	 eax
  00011	64 89 25 00 00
	00 00		 mov	 DWORD PTR fs:__except_list, esp
  00018	81 ec 2c 01 00
	00		 sub	 esp, 300		; 0000012cH
  0001e	a1 00 00 00 00	 mov	 eax, DWORD PTR ___security_cookie
  00023	89 45 ec	 mov	 DWORD PTR __$ArrayPad$[ebp], eax

; 160  : 	ULONG nSizeA;
; 161  : 	ULONG nSizeW;
; 162  : 	CTempBuffer<char> pszBufferA;

  00026	8d 8d d4 fe ff
	ff		 lea	 ecx, DWORD PTR _pszBufferA$[ebp]
  0002c	e8 00 00 00 00	 call	 ??0?$CTempBuffer@D$0IA@VCCRTAllocator@ATL@@@ATL@@QAE@XZ ; ATL::CTempBuffer<char,128,ATL::CCRTAllocator>::CTempBuffer<char,128,ATL::CCRTAllocator>
  00031	c7 45 fc 00 00
	00 00		 mov	 DWORD PTR __$EHRec$[ebp+8], 0

; 163  : 	CW2A pszNameA(pszName);

  00038	8b 45 08	 mov	 eax, DWORD PTR _pszName$[ebp]
  0003b	50		 push	 eax
  0003c	8d 8d 64 ff ff
	ff		 lea	 ecx, DWORD PTR _pszNameA$[ebp]
  00042	e8 00 00 00 00	 call	 ??0?$CW2AEX@$0IA@@ATL@@QAE@PB_W@Z ; ATL::CW2AEX<128>::CW2AEX<128>
  00047	c6 45 fc 01	 mov	 BYTE PTR __$EHRec$[ebp+8], 1

; 164  : 
; 165  : 	nSizeA = ::GetEnvironmentVariableA(pszNameA, NULL, 0);

  0004b	6a 00		 push	 0
  0004d	6a 00		 push	 0
  0004f	8d 8d 64 ff ff
	ff		 lea	 ecx, DWORD PTR _pszNameA$[ebp]
  00055	e8 00 00 00 00	 call	 ??B?$CW2AEX@$0IA@@ATL@@QBEPADXZ ; ATL::CW2AEX<128>::operator char *
  0005a	50		 push	 eax
  0005b	ff 15 00 00 00
	00		 call	 DWORD PTR __imp__GetEnvironmentVariableA@12
  00061	89 45 f0	 mov	 DWORD PTR _nSizeA$[ebp], eax

; 166  : 	if (nSizeA == 0)

  00064	83 7d f0 00	 cmp	 DWORD PTR _nSizeA$[ebp], 0
  00068	75 36		 jne	 SHORT $L25746

; 167  : 		return 0;

  0006a	c7 85 d0 fe ff
	ff 00 00 00 00	 mov	 DWORD PTR $T200663[ebp], 0
  00074	c6 45 fc 00	 mov	 BYTE PTR __$EHRec$[ebp+8], 0
  00078	8d 8d 64 ff ff
	ff		 lea	 ecx, DWORD PTR _pszNameA$[ebp]
  0007e	e8 00 00 00 00	 call	 ??1?$CW2AEX@$0IA@@ATL@@QAE@XZ ; ATL::CW2AEX<128>::~CW2AEX<128>
  00083	c7 45 fc ff ff
	ff ff		 mov	 DWORD PTR __$EHRec$[ebp+8], -1
  0008a	8d 8d d4 fe ff
	ff		 lea	 ecx, DWORD PTR _pszBufferA$[ebp]
  00090	e8 00 00 00 00	 call	 ??1?$CTempBuffer@D$0IA@VCCRTAllocator@ATL@@@ATL@@QAE@XZ ; ATL::CTempBuffer<char,128,ATL::CCRTAllocator>::~CTempBuffer<char,128,ATL::CCRTAllocator>
  00095	8b 85 d0 fe ff
	ff		 mov	 eax, DWORD PTR $T200663[ebp]
  0009b	e9 ee 00 00 00	 jmp	 $L25687
$L25746:

; 168  : 
; 169  : 	pszBufferA.Allocate(nSizeA*2);

  000a0	8b 4d f0	 mov	 ecx, DWORD PTR _nSizeA$[ebp]
  000a3	d1 e1		 shl	 ecx, 1
  000a5	51		 push	 ecx
  000a6	8d 8d d4 fe ff
	ff		 lea	 ecx, DWORD PTR _pszBufferA$[ebp]
  000ac	e8 00 00 00 00	 call	 ?Allocate@?$CTempBuffer@D$0IA@VCCRTAllocator@ATL@@@ATL@@QAEPADI@Z ; ATL::CTempBuffer<char,128,ATL::CCRTAllocator>::Allocate

; 170  : 	::GetEnvironmentVariableA(pszNameA, pszBufferA, nSizeA);

  000b1	8b 55 f0	 mov	 edx, DWORD PTR _nSizeA$[ebp]
  000b4	52		 push	 edx
  000b5	8d 8d d4 fe ff
	ff		 lea	 ecx, DWORD PTR _pszBufferA$[ebp]
  000bb	e8 00 00 00 00	 call	 ??B?$CTempBuffer@D$0IA@VCCRTAllocator@ATL@@@ATL@@QBEPADXZ ; ATL::CTempBuffer<char,128,ATL::CCRTAllocator>::operator char *
  000c0	50		 push	 eax
  000c1	8d 8d 64 ff ff
	ff		 lea	 ecx, DWORD PTR _pszNameA$[ebp]
  000c7	e8 00 00 00 00	 call	 ??B?$CW2AEX@$0IA@@ATL@@QBEPADXZ ; ATL::CW2AEX<128>::operator char *
  000cc	50		 push	 eax
  000cd	ff 15 00 00 00
	00		 call	 DWORD PTR __imp__GetEnvironmentVariableA@12

; 171  : 
; 172  : 	nSizeW = ::MultiByteToWideChar(_AtlGetConversionACP(), 0, pszBufferA, -1, NULL, 0);

  000d3	6a 00		 push	 0
  000d5	6a 00		 push	 0
  000d7	6a ff		 push	 -1
  000d9	8d 8d d4 fe ff
	ff		 lea	 ecx, DWORD PTR _pszBufferA$[ebp]
  000df	e8 00 00 00 00	 call	 ??B?$CTempBuffer@D$0IA@VCCRTAllocator@ATL@@@ATL@@QBEPADXZ ; ATL::CTempBuffer<char,128,ATL::CCRTAllocator>::operator char *
  000e4	50		 push	 eax
  000e5	6a 00		 push	 0
  000e7	e8 00 00 00 00	 call	 ?_AtlGetConversionACP@ATL@@YGIXZ ; ATL::_AtlGetConversionACP
  000ec	50		 push	 eax
  000ed	ff 15 00 00 00
	00		 call	 DWORD PTR __imp__MultiByteToWideChar@24
  000f3	89 85 60 ff ff
	ff		 mov	 DWORD PTR _nSizeW$[ebp], eax

; 173  : 	if (nSize == 0)

  000f9	83 7d 10 00	 cmp	 DWORD PTR _nSize$[ebp], 0
  000fd	75 35		 jne	 SHORT $L25748

; 174  : 		return nSizeW;

  000ff	8b 85 60 ff ff
	ff		 mov	 eax, DWORD PTR _nSizeW$[ebp]
  00105	89 85 cc fe ff
	ff		 mov	 DWORD PTR $T200664[ebp], eax
  0010b	c6 45 fc 00	 mov	 BYTE PTR __$EHRec$[ebp+8], 0
  0010f	8d 8d 64 ff ff
	ff		 lea	 ecx, DWORD PTR _pszNameA$[ebp]
  00115	e8 00 00 00 00	 call	 ??1?$CW2AEX@$0IA@@ATL@@QAE@XZ ; ATL::CW2AEX<128>::~CW2AEX<128>
  0011a	c7 45 fc ff ff
	ff ff		 mov	 DWORD PTR __$EHRec$[ebp+8], -1
  00121	8d 8d d4 fe ff
	ff		 lea	 ecx, DWORD PTR _pszBufferA$[ebp]
  00127	e8 00 00 00 00	 call	 ??1?$CTempBuffer@D$0IA@VCCRTAllocator@ATL@@@ATL@@QAE@XZ ; ATL::CTempBuffer<char,128,ATL::CCRTAllocator>::~CTempBuffer<char,128,ATL::CCRTAllocator>
  0012c	8b 85 cc fe ff
	ff		 mov	 eax, DWORD PTR $T200664[ebp]
  00132	eb 5a		 jmp	 SHORT $L25687
$L25748:

; 175  : 	ATLASSERT(nSize >= nSizeW);
; 176  : 	::MultiByteToWideChar(_AtlGetConversionACP(), 0, pszBufferA, -1, pszBuffer, nSizeW);

  00134	8b 8d 60 ff ff
	ff		 mov	 ecx, DWORD PTR _nSizeW$[ebp]
  0013a	51		 push	 ecx
  0013b	8b 55 0c	 mov	 edx, DWORD PTR _pszBuffer$[ebp]
  0013e	52		 push	 edx
  0013f	6a ff		 push	 -1
  00141	8d 8d d4 fe ff
	ff		 lea	 ecx, DWORD PTR _pszBufferA$[ebp]
  00147	e8 00 00 00 00	 call	 ??B?$CTempBuffer@D$0IA@VCCRTAllocator@ATL@@@ATL@@QBEPADXZ ; ATL::CTempBuffer<char,128,ATL::CCRTAllocator>::operator char *
  0014c	50		 push	 eax
  0014d	6a 00		 push	 0
  0014f	e8 00 00 00 00	 call	 ?_AtlGetConversionACP@ATL@@YGIXZ ; ATL::_AtlGetConversionACP
  00154	50		 push	 eax
  00155	ff 15 00 00 00
	00		 call	 DWORD PTR __imp__MultiByteToWideChar@24

; 177  : 
; 178  : 	return nSizeW;

  0015b	8b 85 60 ff ff
	ff		 mov	 eax, DWORD PTR _nSizeW$[ebp]
  00161	89 85 c8 fe ff
	ff		 mov	 DWORD PTR $T200665[ebp], eax
  00167	c6 45 fc 00	 mov	 BYTE PTR __$EHRec$[ebp+8], 0
  0016b	8d 8d 64 ff ff
	ff		 lea	 ecx, DWORD PTR _pszNameA$[ebp]
  00171	e8 00 00 00 00	 call	 ??1?$CW2AEX@$0IA@@ATL@@QAE@XZ ; ATL::CW2AEX<128>::~CW2AEX<128>
  00176	c7 45 fc ff ff
	ff ff		 mov	 DWORD PTR __$EHRec$[ebp+8], -1
  0017d	8d 8d d4 fe ff
	ff		 lea	 ecx, DWORD PTR _pszBufferA$[ebp]
  00183	e8 00 00 00 00	 call	 ??1?$CTempBuffer@D$0IA@VCCRTAllocator@ATL@@@ATL@@QAE@XZ ; ATL::CTempBuffer<char,128,ATL::CCRTAllocator>::~CTempBuffer<char,128,ATL::CCRTAllocator>
  00188	8b 85 c8 fe ff
	ff		 mov	 eax, DWORD PTR $T200665[ebp]
$L25687:

; 179  : }

  0018e	8b 4d f4	 mov	 ecx, DWORD PTR __$EHRec$[ebp]
  00191	64 89 0d 00 00
	00 00		 mov	 DWORD PTR fs:__except_list, ecx
  00198	8b 4d ec	 mov	 ecx, DWORD PTR __$ArrayPad$[ebp]
  0019b	e8 00 00 00 00	 call	 @__security_check_cookie@4
  001a0	8b e5		 mov	 esp, ebp
  001a2	5d		 pop	 ebp
  001a3	c2 0c 00	 ret	 12			; 0000000cH
_TEXT	ENDS
;	COMDAT text$x
text$x	SEGMENT
$L200666:
  00000	8d 8d d4 fe ff
	ff		 lea	 ecx, DWORD PTR _pszBufferA$[ebp]
  00006	e9 00 00 00 00	 jmp	 ??1?$CTempBuffer@D$0IA@VCCRTAllocator@ATL@@@ATL@@QAE@XZ ; ATL::CTempBuffer<char,128,ATL::CCRTAllocator>::~CTempBuffer<char,128,ATL::CCRTAllocator>
$L200667:
  0000b	8d 8d 64 ff ff
	ff		 lea	 ecx, DWORD PTR _pszNameA$[ebp]
  00011	e9 00 00 00 00	 jmp	 ??1?$CW2AEX@$0IA@@ATL@@QAE@XZ ; ATL::CW2AEX<128>::~CW2AEX<128>
__ehhandler$?GetEnvironmentVariableWFake@ATL@@YGKPB_WPA_WK@Z:
  00016	b8 00 00 00 00	 mov	 eax, OFFSET FLAT:$T200669
  0001b	e9 00 00 00 00	 jmp	 ___CxxFrameHandler
text$x	ENDS
?GetEnvironmentVariableWFake@ATL@@YGKPB_WPA_WK@Z ENDP	; ATL::GetEnvironmentVariableWFake
; Function compile flags: /Odt
; File d:\program files (x86)\microsoft visual studio .net 2003\vc7\atlmfc\include\atlconv.h
;	COMDAT ?_AtlGetConversionACP@ATL@@YGIXZ
_TEXT	SEGMENT
?_AtlGetConversionACP@ATL@@YGIXZ PROC NEAR		; ATL::_AtlGetConversionACP, COMDAT

; 157  : {

  00000	55		 push	 ebp
  00001	8b ec		 mov	 ebp, esp

; 158  : 	return( g_pfnGetThreadACP() );

  00003	ff 15 00 00 00
	00		 call	 DWORD PTR ?g_pfnGetThreadACP@ATL@@3P6GIXZA ; ATL::g_pfnGetThreadACP

; 159  : }

  00009	5d		 pop	 ebp
  0000a	c3		 ret	 0
?_AtlGetConversionACP@ATL@@YGIXZ ENDP			; ATL::_AtlGetConversionACP
_TEXT	ENDS
PUBLIC	?CompareStringWFake@ATL@@YGHKKPB_WH0H@Z		; ATL::CompareStringWFake
EXTRN	__imp__CompareStringW@24:NEAR
; Function compile flags: /Odt
; File d:\program files (x86)\microsoft visual studio .net 2003\vc7\atlmfc\include\cstringt.h
;	COMDAT ?CompareStringWThunk@ATL@@YGHKKPB_WH0H@Z
_TEXT	SEGMENT
_lcid$ = 8						; size = 4
_dwFlags$ = 12						; size = 4
_pszString1$ = 16					; size = 4
_nLength1$ = 20						; size = 4
_pszString2$ = 24					; size = 4
_nLength2$ = 28						; size = 4
?CompareStringWThunk@ATL@@YGHKKPB_WH0H@Z PROC NEAR	; ATL::CompareStringWThunk, COMDAT

; 216  : {

  00000	55		 push	 ebp
  00001	8b ec		 mov	 ebp, esp

; 217  : 	_AtlInstallStringThunk(reinterpret_cast<void**>(&_strthunks.pfnCompareStringW), CompareStringWFake, ::CompareStringW);

  00003	a1 00 00 00 00	 mov	 eax, DWORD PTR __imp__CompareStringW@24
  00008	50		 push	 eax
  00009	68 00 00 00 00	 push	 OFFSET FLAT:?CompareStringWFake@ATL@@YGHKKPB_WH0H@Z ; ATL::CompareStringWFake
  0000e	68 00 00 00 00	 push	 OFFSET FLAT:?_strthunks@ATL@@3U_AtlStringThunks@1@A ; ATL::_strthunks
  00013	e8 00 00 00 00	 call	 ?_AtlInstallStringThunk@ATL@@YAXPAPAXPAX1@Z ; ATL::_AtlInstallStringThunk
  00018	83 c4 0c	 add	 esp, 12			; 0000000cH

; 218  : 
; 219  : 	return _strthunks.pfnCompareStringW(lcid, dwFlags, pszString1, nLength1, pszString2, nLength2);

  0001b	8b 4d 1c	 mov	 ecx, DWORD PTR _nLength2$[ebp]
  0001e	51		 push	 ecx
  0001f	8b 55 18	 mov	 edx, DWORD PTR _pszString2$[ebp]
  00022	52		 push	 edx
  00023	8b 45 14	 mov	 eax, DWORD PTR _nLength1$[ebp]
  00026	50		 push	 eax
  00027	8b 4d 10	 mov	 ecx, DWORD PTR _pszString1$[ebp]
  0002a	51		 push	 ecx
  0002b	8b 55 0c	 mov	 edx, DWORD PTR _dwFlags$[ebp]
  0002e	52		 push	 edx
  0002f	8b 45 08	 mov	 eax, DWORD PTR _lcid$[ebp]
  00032	50		 push	 eax
  00033	ff 15 00 00 00
	00		 call	 DWORD PTR ?_strthunks@ATL@@3U_AtlStringThunks@1@A

; 220  : }

  00039	5d		 pop	 ebp
  0003a	c2 18 00	 ret	 24			; 00000018H
?CompareStringWThunk@ATL@@YGHKKPB_WH0H@Z ENDP		; ATL::CompareStringWThunk
_TEXT	ENDS
PUBLIC	?AtlThrow@ATL@@YGXJ@Z				; ATL::AtlThrow
PUBLIC	?_AtlVerifyStackAvailable@_ATL_SAFE_ALLOCA_IMPL@ATL@@YA_NK@Z ; ATL::_ATL_SAFE_ALLOCA_IMPL::_AtlVerifyStackAvailable
PUBLIC	?AtlW2AHelper@@YGPADPADPB_WHI@Z			; AtlW2AHelper
PUBLIC	??0?$CAtlSafeAllocBufferManager@VCCRTAllocator@ATL@@@_ATL_SAFE_ALLOCA_IMPL@ATL@@QAE@XZ ; ATL::_ATL_SAFE_ALLOCA_IMPL::CAtlSafeAllocBufferManager<ATL::CCRTAllocator>::CAtlSafeAllocBufferManager<ATL::CCRTAllocator>
PUBLIC	?Allocate@?$CAtlSafeAllocBufferManager@VCCRTAllocator@ATL@@@_ATL_SAFE_ALLOCA_IMPL@ATL@@QAEPAXK@Z ; ATL::_ATL_SAFE_ALLOCA_IMPL::CAtlSafeAllocBufferManager<ATL::CCRTAllocator>::Allocate
PUBLIC	??1?$CAtlSafeAllocBufferManager@VCCRTAllocator@ATL@@@_ATL_SAFE_ALLOCA_IMPL@ATL@@QAE@XZ ; ATL::_ATL_SAFE_ALLOCA_IMPL::CAtlSafeAllocBufferManager<ATL::CCRTAllocator>::~CAtlSafeAllocBufferManager<ATL::CCRTAllocator>
EXTRN	__imp__lstrlenW@4:NEAR
EXTRN	__imp__CompareStringA@24:NEAR
EXTRN	__alloca_probe:NEAR
;	COMDAT xdata$x
xdata$x	SEGMENT
$T200695 DD	0ffffffffH
	DD	FLAT:$L200690
$T200692 DD	019930520H
	DD	01H
	DD	FLAT:$T200695
	DD	2 DUP(00H)
	DD	2 DUP(00H)
; Function compile flags: /Odt
xdata$x	ENDS
;	COMDAT ?CompareStringWFake@ATL@@YGHKKPB_WH0H@Z
_TEXT	SEGMENT
tv147 = -68						; size = 4
tv142 = -64						; size = 4
tv149 = -60						; size = 4
tv89 = -56						; size = 4
tv84 = -52						; size = 4
tv91 = -48						; size = 4
$T200689 = -44						; size = 4
_pszAString1$ = -40					; size = 4
__AtlSafeAllocaManager$ = -36				; size = 4
__convert_ex$ = -32					; size = 4
__acp_ex$ = -28						; size = 4
_pszAString2$ = -24					; size = 4
__lpw_ex$ = -16						; size = 4
__$EHRec$ = -12						; size = 12
_lcid$ = 8						; size = 4
_dwFlags$ = 12						; size = 4
_pszString1$ = 16					; size = 4
_nLength1$ = 20						; size = 4
_pszString2$ = 24					; size = 4
_nLength2$ = 28						; size = 4
?CompareStringWFake@ATL@@YGHKKPB_WH0H@Z PROC NEAR	; ATL::CompareStringWFake, COMDAT

; 192  : {

  00000	55		 push	 ebp
  00001	8b ec		 mov	 ebp, esp
  00003	6a ff		 push	 -1
  00005	68 00 00 00 00	 push	 __ehhandler$?CompareStringWFake@ATL@@YGHKKPB_WH0H@Z
  0000a	64 a1 00 00 00
	00		 mov	 eax, DWORD PTR fs:__except_list
  00010	50		 push	 eax
  00011	64 89 25 00 00
	00 00		 mov	 DWORD PTR fs:__except_list, esp
  00018	83 ec 38	 sub	 esp, 56			; 00000038H

; 193  : 	USES_CONVERSION_EX;

  0001b	e8 00 00 00 00	 call	 ?_AtlGetConversionACP@ATL@@YGIXZ ; ATL::_AtlGetConversionACP
  00020	89 45 e4	 mov	 DWORD PTR __acp_ex$[ebp], eax
  00023	8d 4d dc	 lea	 ecx, DWORD PTR __AtlSafeAllocaManager$[ebp]
  00026	e8 00 00 00 00	 call	 ??0?$CAtlSafeAllocBufferManager@VCCRTAllocator@ATL@@@_ATL_SAFE_ALLOCA_IMPL@ATL@@QAE@XZ ; ATL::_ATL_SAFE_ALLOCA_IMPL::CAtlSafeAllocBufferManager<ATL::CCRTAllocator>::CAtlSafeAllocBufferManager<ATL::CCRTAllocator>
  0002b	c7 45 fc 00 00
	00 00		 mov	 DWORD PTR __$EHRec$[ebp+8], 0

; 194  : 	
; 195  : 	LPCSTR pszAString1 = NULL;

  00032	c7 45 d8 00 00
	00 00		 mov	 DWORD PTR _pszAString1$[ebp], 0

; 196  : 	if(pszString1 != NULL)

  00039	83 7d 10 00	 cmp	 DWORD PTR _pszString1$[ebp], 0
  0003d	0f 84 98 00 00
	00		 je	 $L25772

; 197  : 	{
; 198  : 		pszAString1 = W2A_EX(pszString1,_ATL_SAFE_ALLOCA_DEF_THRESHOLD);

  00043	8b 45 10	 mov	 eax, DWORD PTR _pszString1$[ebp]
  00046	89 45 f0	 mov	 DWORD PTR __lpw_ex$[ebp], eax
  00049	83 7d f0 00	 cmp	 DWORD PTR __lpw_ex$[ebp], 0
  0004d	75 09		 jne	 SHORT $L200683
  0004f	c7 45 d0 00 00
	00 00		 mov	 DWORD PTR tv91[ebp], 0
  00056	eb 6d		 jmp	 SHORT $L200684
$L200683:
  00058	8b 4d f0	 mov	 ecx, DWORD PTR __lpw_ex$[ebp]
  0005b	51		 push	 ecx
  0005c	ff 15 00 00 00
	00		 call	 DWORD PTR __imp__lstrlenW@4
  00062	8d 54 00 02	 lea	 edx, DWORD PTR [eax+eax+2]
  00066	89 55 e0	 mov	 DWORD PTR __convert_ex$[ebp], edx
  00069	81 7d e0 00 04
	00 00		 cmp	 DWORD PTR __convert_ex$[ebp], 1024 ; 00000400H
  00070	7f 2c		 jg	 SHORT $L200681
  00072	8b 45 e0	 mov	 eax, DWORD PTR __convert_ex$[ebp]
  00075	50		 push	 eax
  00076	e8 00 00 00 00	 call	 ?_AtlVerifyStackAvailable@_ATL_SAFE_ALLOCA_IMPL@ATL@@YA_NK@Z ; ATL::_ATL_SAFE_ALLOCA_IMPL::_AtlVerifyStackAvailable
  0007b	83 c4 04	 add	 esp, 4
  0007e	0f b6 c8	 movzx	 ecx, al
  00081	85 c9		 test	 ecx, ecx
  00083	74 19		 je	 SHORT $L200681
  00085	8b 45 e0	 mov	 eax, DWORD PTR __convert_ex$[ebp]
  00088	83 c0 03	 add	 eax, 3
  0008b	83 e0 fc	 and	 eax, -4			; fffffffcH
  0008e	e8 00 00 00 00	 call	 __alloca_probe
  00093	89 65 cc	 mov	 DWORD PTR tv84[ebp], esp
  00096	8b 55 cc	 mov	 edx, DWORD PTR tv84[ebp]
  00099	89 55 c8	 mov	 DWORD PTR tv89[ebp], edx
  0009c	eb 0f		 jmp	 SHORT $L200682
$L200681:
  0009e	8b 45 e0	 mov	 eax, DWORD PTR __convert_ex$[ebp]
  000a1	50		 push	 eax
  000a2	8d 4d dc	 lea	 ecx, DWORD PTR __AtlSafeAllocaManager$[ebp]
  000a5	e8 00 00 00 00	 call	 ?Allocate@?$CAtlSafeAllocBufferManager@VCCRTAllocator@ATL@@@_ATL_SAFE_ALLOCA_IMPL@ATL@@QAEPAXK@Z ; ATL::_ATL_SAFE_ALLOCA_IMPL::CAtlSafeAllocBufferManager<ATL::CCRTAllocator>::Allocate
  000aa	89 45 c8	 mov	 DWORD PTR tv89[ebp], eax
$L200682:
  000ad	8b 4d e4	 mov	 ecx, DWORD PTR __acp_ex$[ebp]
  000b0	51		 push	 ecx
  000b1	8b 55 e0	 mov	 edx, DWORD PTR __convert_ex$[ebp]
  000b4	52		 push	 edx
  000b5	8b 45 f0	 mov	 eax, DWORD PTR __lpw_ex$[ebp]
  000b8	50		 push	 eax
  000b9	8b 4d c8	 mov	 ecx, DWORD PTR tv89[ebp]
  000bc	51		 push	 ecx
  000bd	e8 00 00 00 00	 call	 ?AtlW2AHelper@@YGPADPADPB_WHI@Z ; AtlW2AHelper
  000c2	89 45 d0	 mov	 DWORD PTR tv91[ebp], eax
$L200684:
  000c5	8b 55 d0	 mov	 edx, DWORD PTR tv91[ebp]
  000c8	89 55 d8	 mov	 DWORD PTR _pszAString1$[ebp], edx

; 199  : 		if(pszAString1 == NULL)

  000cb	83 7d d8 00	 cmp	 DWORD PTR _pszAString1$[ebp], 0
  000cf	75 0a		 jne	 SHORT $L25772

; 200  : 			AtlThrow(E_OUTOFMEMORY);

  000d1	68 0e 00 07 80	 push	 -2147024882		; 8007000eH
  000d6	e8 00 00 00 00	 call	 ?AtlThrow@ATL@@YGXJ@Z	; ATL::AtlThrow
$L25772:

; 201  : 	}
; 202  : 
; 203  : 	LPCSTR pszAString2 = NULL;

  000db	c7 45 e8 00 00
	00 00		 mov	 DWORD PTR _pszAString2$[ebp], 0

; 204  : 	if(pszString2 != NULL)

  000e2	83 7d 18 00	 cmp	 DWORD PTR _pszString2$[ebp], 0
  000e6	0f 84 98 00 00
	00		 je	 $L25778

; 205  : 	{
; 206  : 		pszAString2 = W2A_EX(pszString2,_ATL_SAFE_ALLOCA_DEF_THRESHOLD);

  000ec	8b 45 18	 mov	 eax, DWORD PTR _pszString2$[ebp]
  000ef	89 45 f0	 mov	 DWORD PTR __lpw_ex$[ebp], eax
  000f2	83 7d f0 00	 cmp	 DWORD PTR __lpw_ex$[ebp], 0
  000f6	75 09		 jne	 SHORT $L200687
  000f8	c7 45 c4 00 00
	00 00		 mov	 DWORD PTR tv149[ebp], 0
  000ff	eb 6d		 jmp	 SHORT $L200688
$L200687:
  00101	8b 4d f0	 mov	 ecx, DWORD PTR __lpw_ex$[ebp]
  00104	51		 push	 ecx
  00105	ff 15 00 00 00
	00		 call	 DWORD PTR __imp__lstrlenW@4
  0010b	8d 54 00 02	 lea	 edx, DWORD PTR [eax+eax+2]
  0010f	89 55 e0	 mov	 DWORD PTR __convert_ex$[ebp], edx
  00112	81 7d e0 00 04
	00 00		 cmp	 DWORD PTR __convert_ex$[ebp], 1024 ; 00000400H
  00119	7f 2c		 jg	 SHORT $L200685
  0011b	8b 45 e0	 mov	 eax, DWORD PTR __convert_ex$[ebp]
  0011e	50		 push	 eax
  0011f	e8 00 00 00 00	 call	 ?_AtlVerifyStackAvailable@_ATL_SAFE_ALLOCA_IMPL@ATL@@YA_NK@Z ; ATL::_ATL_SAFE_ALLOCA_IMPL::_AtlVerifyStackAvailable
  00124	83 c4 04	 add	 esp, 4
  00127	0f b6 c8	 movzx	 ecx, al
  0012a	85 c9		 test	 ecx, ecx
  0012c	74 19		 je	 SHORT $L200685
  0012e	8b 45 e0	 mov	 eax, DWORD PTR __convert_ex$[ebp]
  00131	83 c0 03	 add	 eax, 3
  00134	83 e0 fc	 and	 eax, -4			; fffffffcH
  00137	e8 00 00 00 00	 call	 __alloca_probe
  0013c	89 65 c0	 mov	 DWORD PTR tv142[ebp], esp
  0013f	8b 55 c0	 mov	 edx, DWORD PTR tv142[ebp]
  00142	89 55 bc	 mov	 DWORD PTR tv147[ebp], edx
  00145	eb 0f		 jmp	 SHORT $L200686
$L200685:
  00147	8b 45 e0	 mov	 eax, DWORD PTR __convert_ex$[ebp]
  0014a	50		 push	 eax
  0014b	8d 4d dc	 lea	 ecx, DWORD PTR __AtlSafeAllocaManager$[ebp]
  0014e	e8 00 00 00 00	 call	 ?Allocate@?$CAtlSafeAllocBufferManager@VCCRTAllocator@ATL@@@_ATL_SAFE_ALLOCA_IMPL@ATL@@QAEPAXK@Z ; ATL::_ATL_SAFE_ALLOCA_IMPL::CAtlSafeAllocBufferManager<ATL::CCRTAllocator>::Allocate
  00153	89 45 bc	 mov	 DWORD PTR tv147[ebp], eax
$L200686:
  00156	8b 4d e4	 mov	 ecx, DWORD PTR __acp_ex$[ebp]
  00159	51		 push	 ecx
  0015a	8b 55 e0	 mov	 edx, DWORD PTR __convert_ex$[ebp]
  0015d	52		 push	 edx
  0015e	8b 45 f0	 mov	 eax, DWORD PTR __lpw_ex$[ebp]
  00161	50		 push	 eax
  00162	8b 4d bc	 mov	 ecx, DWORD PTR tv147[ebp]
  00165	51		 push	 ecx
  00166	e8 00 00 00 00	 call	 ?AtlW2AHelper@@YGPADPADPB_WHI@Z ; AtlW2AHelper
  0016b	89 45 c4	 mov	 DWORD PTR tv149[ebp], eax
$L200688:
  0016e	8b 55 c4	 mov	 edx, DWORD PTR tv149[ebp]
  00171	89 55 e8	 mov	 DWORD PTR _pszAString2$[ebp], edx

; 207  : 		if(pszAString2 == NULL)

  00174	83 7d e8 00	 cmp	 DWORD PTR _pszAString2$[ebp], 0
  00178	75 0a		 jne	 SHORT $L25778

; 208  : 			AtlThrow(E_OUTOFMEMORY);

  0017a	68 0e 00 07 80	 push	 -2147024882		; 8007000eH
  0017f	e8 00 00 00 00	 call	 ?AtlThrow@ATL@@YGXJ@Z	; ATL::AtlThrow
$L25778:

; 209  : 	}
; 210  : 
; 211  : 	return ::CompareStringA(lcid, dwFlags, pszAString1, nLength1, pszAString2, nLength2);

  00184	8b 45 1c	 mov	 eax, DWORD PTR _nLength2$[ebp]
  00187	50		 push	 eax
  00188	8b 4d e8	 mov	 ecx, DWORD PTR _pszAString2$[ebp]
  0018b	51		 push	 ecx
  0018c	8b 55 14	 mov	 edx, DWORD PTR _nLength1$[ebp]
  0018f	52		 push	 edx
  00190	8b 45 d8	 mov	 eax, DWORD PTR _pszAString1$[ebp]
  00193	50		 push	 eax
  00194	8b 4d 0c	 mov	 ecx, DWORD PTR _dwFlags$[ebp]
  00197	51		 push	 ecx
  00198	8b 55 08	 mov	 edx, DWORD PTR _lcid$[ebp]
  0019b	52		 push	 edx
  0019c	ff 15 00 00 00
	00		 call	 DWORD PTR __imp__CompareStringA@24
  001a2	89 45 d4	 mov	 DWORD PTR $T200689[ebp], eax
  001a5	c7 45 fc ff ff
	ff ff		 mov	 DWORD PTR __$EHRec$[ebp+8], -1
  001ac	8d 4d dc	 lea	 ecx, DWORD PTR __AtlSafeAllocaManager$[ebp]
  001af	e8 00 00 00 00	 call	 ??1?$CAtlSafeAllocBufferManager@VCCRTAllocator@ATL@@@_ATL_SAFE_ALLOCA_IMPL@ATL@@QAE@XZ ; ATL::_ATL_SAFE_ALLOCA_IMPL::CAtlSafeAllocBufferManager<ATL::CCRTAllocator>::~CAtlSafeAllocBufferManager<ATL::CCRTAllocator>
  001b4	8b 45 d4	 mov	 eax, DWORD PTR $T200689[ebp]
$L200680:

; 212  : }

  001b7	8d 65 bc	 lea	 esp, DWORD PTR [ebp-68]
  001ba	8b 4d f4	 mov	 ecx, DWORD PTR __$EHRec$[ebp]
  001bd	64 89 0d 00 00
	00 00		 mov	 DWORD PTR fs:__except_list, ecx
  001c4	8b e5		 mov	 esp, ebp
  001c6	5d		 pop	 ebp
  001c7	c2 18 00	 ret	 24			; 00000018H
_TEXT	ENDS
;	COMDAT text$x
text$x	SEGMENT
$L200690:
  00000	8d 4d dc	 lea	 ecx, DWORD PTR __AtlSafeAllocaManager$[ebp]
  00003	e9 00 00 00 00	 jmp	 ??1?$CAtlSafeAllocBufferManager@VCCRTAllocator@ATL@@@_ATL_SAFE_ALLOCA_IMPL@ATL@@QAE@XZ ; ATL::_ATL_SAFE_ALLOCA_IMPL::CAtlSafeAllocBufferManager<ATL::CCRTAllocator>::~CAtlSafeAllocBufferManager<ATL::CCRTAllocator>
__ehhandler$?CompareStringWFake@ATL@@YGHKKPB_WH0H@Z:
  00008	b8 00 00 00 00	 mov	 eax, OFFSET FLAT:$T200692
  0000d	e9 00 00 00 00	 jmp	 ___CxxFrameHandler
text$x	ENDS
?CompareStringWFake@ATL@@YGHKKPB_WH0H@Z ENDP		; ATL::CompareStringWFake
EXTRN	__except_handler3:NEAR
EXTRN	__imp___resetstkoflw:NEAR
;	COMDAT CONST
; File d:\program files (x86)\microsoft visual studio .net 2003\vc7\atlmfc\include\atlalloc.h
CONST	SEGMENT
$T200706 DD	0ffffffffH
	DD	FLAT:$L200701
	DD	FLAT:$L200702
; Function compile flags: /Odt
CONST	ENDS
;	COMDAT ?_AtlVerifyStackAvailable@_ATL_SAFE_ALLOCA_IMPL@ATL@@YA_NK@Z
_TEXT	SEGMENT
tv65 = -40						; size = 4
$T200705 = -36						; size = 4
_p$24118 = -32						; size = 4
_bStackAvailable$ = -25					; size = 1
__$SEHRec$ = -24					; size = 24
_Size$ = 8						; size = 4
?_AtlVerifyStackAvailable@_ATL_SAFE_ALLOCA_IMPL@ATL@@YA_NK@Z PROC NEAR ; ATL::_ATL_SAFE_ALLOCA_IMPL::_AtlVerifyStackAvailable, COMDAT

; 331  : {

  00000	55		 push	 ebp
  00001	8b ec		 mov	 ebp, esp
  00003	6a ff		 push	 -1
  00005	68 00 00 00 00	 push	 OFFSET FLAT:$T200706
  0000a	68 00 00 00 00	 push	 OFFSET FLAT:__except_handler3
  0000f	64 a1 00 00 00
	00		 mov	 eax, DWORD PTR fs:__except_list
  00015	50		 push	 eax
  00016	64 89 25 00 00
	00 00		 mov	 DWORD PTR fs:__except_list, esp
  0001d	83 c4 e8	 add	 esp, -24		; ffffffe8H
  00020	53		 push	 ebx
  00021	56		 push	 esi
  00022	57		 push	 edi
  00023	89 65 e8	 mov	 DWORD PTR __$SEHRec$[ebp], esp

; 332  :     bool bStackAvailable = true;

  00026	c6 45 e7 01	 mov	 BYTE PTR _bStackAvailable$[ebp], 1

; 333  : 
; 334  :     __try

  0002a	c7 45 fc 00 00
	00 00		 mov	 DWORD PTR __$SEHRec$[ebp+20], 0

; 335  :     {
; 336  :         PVOID p = _alloca(Size + _ATL_STACK_MARGIN);

  00031	8b 45 08	 mov	 eax, DWORD PTR _Size$[ebp]
  00034	05 03 20 00 00	 add	 eax, 8195		; 00002003H
  00039	83 e0 fc	 and	 eax, -4			; fffffffcH
  0003c	e8 00 00 00 00	 call	 __alloca_probe
  00041	89 65 d8	 mov	 DWORD PTR tv65[ebp], esp
  00044	89 65 e8	 mov	 DWORD PTR __$SEHRec$[ebp], esp
  00047	8b 45 d8	 mov	 eax, DWORD PTR tv65[ebp]
  0004a	89 45 e0	 mov	 DWORD PTR _p$24118[ebp], eax
  0004d	c7 45 fc ff ff
	ff ff		 mov	 DWORD PTR __$SEHRec$[ebp+20], -1
  00054	eb 2c		 jmp	 SHORT $L200704
$L200701:
$L200710:

; 337  :         (p);
; 338  :     }
; 339  :     __except ((EXCEPTION_STACK_OVERFLOW == GetExceptionCode()) ?
; 340  :                    EXCEPTION_EXECUTE_HANDLER :
; 341  :                    EXCEPTION_CONTINUE_SEARCH)

  00056	8b 4d ec	 mov	 ecx, DWORD PTR __$SEHRec$[ebp+4]
  00059	8b 11		 mov	 edx, DWORD PTR [ecx]
  0005b	8b 02		 mov	 eax, DWORD PTR [edx]
  0005d	89 45 dc	 mov	 DWORD PTR $T200705[ebp], eax
  00060	8b 45 dc	 mov	 eax, DWORD PTR $T200705[ebp]
  00063	2d fd 00 00 c0	 sub	 eax, -1073741571	; c00000fdH
  00068	f7 d8		 neg	 eax
  0006a	1b c0		 sbb	 eax, eax
  0006c	40		 inc	 eax
$L200703:
$L200709:
  0006d	c3		 ret	 0
$L200702:
  0006e	8b 65 e8	 mov	 esp, DWORD PTR __$SEHRec$[ebp]

; 342  :     {
; 343  :         bStackAvailable = false;

  00071	c6 45 e7 00	 mov	 BYTE PTR _bStackAvailable$[ebp], 0

; 344  :         _resetstkoflw();

  00075	ff 15 00 00 00
	00		 call	 DWORD PTR __imp___resetstkoflw
  0007b	c7 45 fc ff ff
	ff ff		 mov	 DWORD PTR __$SEHRec$[ebp+20], -1
$L200704:

; 345  :     }
; 346  :     return bStackAvailable;

  00082	8a 45 e7	 mov	 al, BYTE PTR _bStackAvailable$[ebp]
$L200700:

; 347  : }

  00085	8d 65 cc	 lea	 esp, DWORD PTR [ebp-52]
  00088	8b 4d f0	 mov	 ecx, DWORD PTR __$SEHRec$[ebp+8]
  0008b	64 89 0d 00 00
	00 00		 mov	 DWORD PTR fs:__except_list, ecx
  00092	5f		 pop	 edi
  00093	5e		 pop	 esi
  00094	5b		 pop	 ebx
  00095	8b e5		 mov	 esp, ebp
  00097	5d		 pop	 ebp
  00098	c3		 ret	 0
?_AtlVerifyStackAvailable@_ATL_SAFE_ALLOCA_IMPL@ATL@@YA_NK@Z ENDP ; ATL::_ATL_SAFE_ALLOCA_IMPL::_AtlVerifyStackAvailable
_TEXT	ENDS
EXTRN	__imp__WideCharToMultiByte@32:NEAR
; Function compile flags: /Odt
; File d:\program files (x86)\microsoft visual studio .net 2003\vc7\atlmfc\include\atlconv.h
;	COMDAT ?AtlW2AHelper@@YGPADPADPB_WHI@Z
_TEXT	SEGMENT
_ret$ = -4						; size = 4
_lpa$ = 8						; size = 4
_lpw$ = 12						; size = 4
_nChars$ = 16						; size = 4
_acp$ = 20						; size = 4
?AtlW2AHelper@@YGPADPADPB_WHI@Z PROC NEAR		; AtlW2AHelper, COMDAT

; 573  : {

  00000	55		 push	 ebp
  00001	8b ec		 mov	 ebp, esp
  00003	51		 push	 ecx

; 574  : 	ATLASSERT(lpw != NULL);
; 575  : 	ATLASSERT(lpa != NULL);
; 576  : 	if (lpa == NULL || lpw == NULL)

  00004	83 7d 08 00	 cmp	 DWORD PTR _lpa$[ebp], 0
  00008	74 06		 je	 SHORT $L24319
  0000a	83 7d 0c 00	 cmp	 DWORD PTR _lpw$[ebp], 0
  0000e	75 04		 jne	 SHORT $L24318
$L24319:

; 577  : 		return NULL;

  00010	33 c0		 xor	 eax, eax
  00012	eb 34		 jmp	 SHORT $L24315
$L24318:

; 578  : 	// verify that no illegal character present
; 579  : 	// since lpa was allocated based on the size of lpw
; 580  : 	// don't worry about the number of chars
; 581  : 	lpa[0] = '\0';

  00014	8b 45 08	 mov	 eax, DWORD PTR _lpa$[ebp]
  00017	c6 00 00	 mov	 BYTE PTR [eax], 0

; 582  : 	int ret = WideCharToMultiByte(acp, 0, lpw, -1, lpa, nChars, NULL, NULL);

  0001a	6a 00		 push	 0
  0001c	6a 00		 push	 0
  0001e	8b 4d 10	 mov	 ecx, DWORD PTR _nChars$[ebp]
  00021	51		 push	 ecx
  00022	8b 55 08	 mov	 edx, DWORD PTR _lpa$[ebp]
  00025	52		 push	 edx
  00026	6a ff		 push	 -1
  00028	8b 45 0c	 mov	 eax, DWORD PTR _lpw$[ebp]
  0002b	50		 push	 eax
  0002c	6a 00		 push	 0
  0002e	8b 4d 14	 mov	 ecx, DWORD PTR _acp$[ebp]
  00031	51		 push	 ecx
  00032	ff 15 00 00 00
	00		 call	 DWORD PTR __imp__WideCharToMultiByte@32
  00038	89 45 fc	 mov	 DWORD PTR _ret$[ebp], eax

; 583  : 	if(ret == 0)

  0003b	83 7d fc 00	 cmp	 DWORD PTR _ret$[ebp], 0
  0003f	75 04		 jne	 SHORT $L24321

; 584  : 	{
; 585  : 		ATLASSERT(FALSE);
; 586  : 		return NULL;

  00041	33 c0		 xor	 eax, eax
  00043	eb 03		 jmp	 SHORT $L24315
$L24321:

; 587  : 	}
; 588  : 	return lpa;

  00045	8b 45 08	 mov	 eax, DWORD PTR _lpa$[ebp]
$L24315:

; 589  : }

  00048	8b e5		 mov	 esp, ebp
  0004a	5d		 pop	 ebp
  0004b	c2 10 00	 ret	 16			; 00000010H
?AtlW2AHelper@@YGPADPADPB_WHI@Z ENDP			; AtlW2AHelper
_TEXT	ENDS
EXTRN	?AfxThrowMemoryException@@YGXXZ:NEAR		; AfxThrowMemoryException
EXTRN	?AfxThrowOleException@@YGXJ@Z:NEAR		; AfxThrowOleException
; Function compile flags: /Odt
; File d:\program files (x86)\microsoft visual studio .net 2003\vc7\atlmfc\include\atlexcept.h
;	COMDAT ?AtlThrow@ATL@@YGXJ@Z
_TEXT	SEGMENT
_hr$ = 8						; size = 4
?AtlThrow@ATL@@YGXJ@Z PROC NEAR				; ATL::AtlThrow, COMDAT

; 61   : {

  00000	55		 push	 ebp
  00001	8b ec		 mov	 ebp, esp

; 62   : 	ATLTRACE(atlTraceException, 0, _T("AtlThrow: hr = 0x%x\n"), hr );
; 63   : #ifdef _AFX
; 64   : 	if( hr == E_OUTOFMEMORY )

  00003	81 7d 08 0e 00
	07 80		 cmp	 DWORD PTR _hr$[ebp], -2147024882 ; 8007000eH
  0000a	75 05		 jne	 SHORT $L24681

; 65   : 	{
; 66   : 		AfxThrowMemoryException();

  0000c	e8 00 00 00 00	 call	 ?AfxThrowMemoryException@@YGXXZ ; AfxThrowMemoryException
$L24681:

; 67   : 	}
; 68   : 	else
; 69   : 	{
; 70   : 		AfxThrowOleException( hr );

  00011	8b 45 08	 mov	 eax, DWORD PTR _hr$[ebp]
  00014	50		 push	 eax
  00015	e8 00 00 00 00	 call	 ?AfxThrowOleException@@YGXJ@Z ; AfxThrowOleException
$L200716:

; 71   : 	}
; 72   : #else
; 73   : 	throw CAtlException( hr );
; 74   : #endif
; 75   : };

  0001a	5d		 pop	 ebp
  0001b	c2 04 00	 ret	 4
?AtlThrow@ATL@@YGXJ@Z ENDP				; ATL::AtlThrow
_TEXT	ENDS
PUBLIC	?GetStringTypeExWFake@ATL@@YGHKKPB_WHPAG@Z	; ATL::GetStringTypeExWFake
EXTRN	__imp__GetStringTypeExW@20:NEAR
; Function compile flags: /Odt
; File d:\program files (x86)\microsoft visual studio .net 2003\vc7\atlmfc\include\cstringt.h
;	COMDAT ?GetStringTypeExWThunk@ATL@@YGHKKPB_WHPAG@Z
_TEXT	SEGMENT
_lcid$ = 8						; size = 4
_dwInfoType$ = 12					; size = 4
_pszSrc$ = 16						; size = 4
_nLength$ = 20						; size = 4
_pwCharType$ = 24					; size = 4
?GetStringTypeExWThunk@ATL@@YGHKKPB_WHPAG@Z PROC NEAR	; ATL::GetStringTypeExWThunk, COMDAT

; 240  : {

  00000	55		 push	 ebp
  00001	8b ec		 mov	 ebp, esp

; 241  : 	_AtlInstallStringThunk(reinterpret_cast<void**>(&_strthunks.pfnGetStringTypeExW), GetStringTypeExWFake, ::GetStringTypeExW);

  00003	a1 00 00 00 00	 mov	 eax, DWORD PTR __imp__GetStringTypeExW@20
  00008	50		 push	 eax
  00009	68 00 00 00 00	 push	 OFFSET FLAT:?GetStringTypeExWFake@ATL@@YGHKKPB_WHPAG@Z ; ATL::GetStringTypeExWFake
  0000e	68 04 00 00 00	 push	 OFFSET FLAT:?_strthunks@ATL@@3U_AtlStringThunks@1@A+4
  00013	e8 00 00 00 00	 call	 ?_AtlInstallStringThunk@ATL@@YAXPAPAXPAX1@Z ; ATL::_AtlInstallStringThunk
  00018	83 c4 0c	 add	 esp, 12			; 0000000cH

; 242  : 
; 243  : 	return _strthunks.pfnGetStringTypeExW(lcid, dwInfoType, pszSrc, nLength, pwCharType);

  0001b	8b 4d 18	 mov	 ecx, DWORD PTR _pwCharType$[ebp]
  0001e	51		 push	 ecx
  0001f	8b 55 14	 mov	 edx, DWORD PTR _nLength$[ebp]
  00022	52		 push	 edx
  00023	8b 45 10	 mov	 eax, DWORD PTR _pszSrc$[ebp]
  00026	50		 push	 eax
  00027	8b 4d 0c	 mov	 ecx, DWORD PTR _dwInfoType$[ebp]
  0002a	51		 push	 ecx
  0002b	8b 55 08	 mov	 edx, DWORD PTR _lcid$[ebp]
  0002e	52		 push	 edx
  0002f	ff 15 04 00 00
	00		 call	 DWORD PTR ?_strthunks@ATL@@3U_AtlStringThunks@1@A+4

; 244  : }

  00035	5d		 pop	 ebp
  00036	c2 14 00	 ret	 20			; 00000014H
?GetStringTypeExWThunk@ATL@@YGHKKPB_WHPAG@Z ENDP	; ATL::GetStringTypeExWThunk
_TEXT	ENDS
EXTRN	__imp__GetStringTypeExA@20:NEAR
;	COMDAT xdata$x
xdata$x	SEGMENT
$T200728 DD	0ffffffffH
	DD	FLAT:$L200723
$T200725 DD	019930520H
	DD	01H
	DD	FLAT:$T200728
	DD	2 DUP(00H)
	DD	2 DUP(00H)
; Function compile flags: /Odt
xdata$x	ENDS
;	COMDAT ?GetStringTypeExWFake@ATL@@YGHKKPB_WHPAG@Z
_TEXT	SEGMENT
$T200722 = -164						; size = 4
_nLengthA$ = -160					; size = 4
_pszA$ = -156						; size = 132
__$ArrayPad$ = -16					; size = 4
__$EHRec$ = -12						; size = 12
__$ReturnAddr$ = 4					; size = 4
_lcid$ = 8						; size = 4
_dwInfoType$ = 12					; size = 4
_pszSrc$ = 16						; size = 4
_nLength$ = 20						; size = 4
_pwCharType$ = 24					; size = 4
?GetStringTypeExWFake@ATL@@YGHKKPB_WHPAG@Z PROC NEAR	; ATL::GetStringTypeExWFake, COMDAT

; 224  : {

  00000	55		 push	 ebp
  00001	8b ec		 mov	 ebp, esp
  00003	6a ff		 push	 -1
  00005	68 00 00 00 00	 push	 __ehhandler$?GetStringTypeExWFake@ATL@@YGHKKPB_WHPAG@Z
  0000a	64 a1 00 00 00
	00		 mov	 eax, DWORD PTR fs:__except_list
  00010	50		 push	 eax
  00011	64 89 25 00 00
	00 00		 mov	 DWORD PTR fs:__except_list, esp
  00018	81 ec 98 00 00
	00		 sub	 esp, 152		; 00000098H
  0001e	a1 00 00 00 00	 mov	 eax, DWORD PTR ___security_cookie
  00023	89 45 f0	 mov	 DWORD PTR __$ArrayPad$[ebp], eax

; 225  : 	int nLengthA;
; 226  : 	CTempBuffer<char> pszA;

  00026	8d 8d 64 ff ff
	ff		 lea	 ecx, DWORD PTR _pszA$[ebp]
  0002c	e8 00 00 00 00	 call	 ??0?$CTempBuffer@D$0IA@VCCRTAllocator@ATL@@@ATL@@QAE@XZ ; ATL::CTempBuffer<char,128,ATL::CCRTAllocator>::CTempBuffer<char,128,ATL::CCRTAllocator>
  00031	c7 45 fc 00 00
	00 00		 mov	 DWORD PTR __$EHRec$[ebp+8], 0

; 227  : 
; 228  : 	nLengthA = ::WideCharToMultiByte(_AtlGetConversionACP(), 0, pszSrc, nLength, NULL, 0, NULL, NULL);

  00038	6a 00		 push	 0
  0003a	6a 00		 push	 0
  0003c	6a 00		 push	 0
  0003e	6a 00		 push	 0
  00040	8b 45 14	 mov	 eax, DWORD PTR _nLength$[ebp]
  00043	50		 push	 eax
  00044	8b 4d 10	 mov	 ecx, DWORD PTR _pszSrc$[ebp]
  00047	51		 push	 ecx
  00048	6a 00		 push	 0
  0004a	e8 00 00 00 00	 call	 ?_AtlGetConversionACP@ATL@@YGIXZ ; ATL::_AtlGetConversionACP
  0004f	50		 push	 eax
  00050	ff 15 00 00 00
	00		 call	 DWORD PTR __imp__WideCharToMultiByte@32
  00056	89 85 60 ff ff
	ff		 mov	 DWORD PTR _nLengthA$[ebp], eax

; 229  : 	pszA.Allocate(nLengthA);

  0005c	8b 95 60 ff ff
	ff		 mov	 edx, DWORD PTR _nLengthA$[ebp]
  00062	52		 push	 edx
  00063	8d 8d 64 ff ff
	ff		 lea	 ecx, DWORD PTR _pszA$[ebp]
  00069	e8 00 00 00 00	 call	 ?Allocate@?$CTempBuffer@D$0IA@VCCRTAllocator@ATL@@@ATL@@QAEPADI@Z ; ATL::CTempBuffer<char,128,ATL::CCRTAllocator>::Allocate

; 230  : 	::WideCharToMultiByte(_AtlGetConversionACP(), 0, pszSrc, nLength, pszA, nLengthA, NULL, NULL);

  0006e	6a 00		 push	 0
  00070	6a 00		 push	 0
  00072	8b 85 60 ff ff
	ff		 mov	 eax, DWORD PTR _nLengthA$[ebp]
  00078	50		 push	 eax
  00079	8d 8d 64 ff ff
	ff		 lea	 ecx, DWORD PTR _pszA$[ebp]
  0007f	e8 00 00 00 00	 call	 ??B?$CTempBuffer@D$0IA@VCCRTAllocator@ATL@@@ATL@@QBEPADXZ ; ATL::CTempBuffer<char,128,ATL::CCRTAllocator>::operator char *
  00084	50		 push	 eax
  00085	8b 4d 14	 mov	 ecx, DWORD PTR _nLength$[ebp]
  00088	51		 push	 ecx
  00089	8b 55 10	 mov	 edx, DWORD PTR _pszSrc$[ebp]
  0008c	52		 push	 edx
  0008d	6a 00		 push	 0
  0008f	e8 00 00 00 00	 call	 ?_AtlGetConversionACP@ATL@@YGIXZ ; ATL::_AtlGetConversionACP
  00094	50		 push	 eax
  00095	ff 15 00 00 00
	00		 call	 DWORD PTR __imp__WideCharToMultiByte@32

; 231  : 
; 232  : 	if (nLength == -1)

  0009b	83 7d 14 ff	 cmp	 DWORD PTR _nLength$[ebp], -1
  0009f	75 0a		 jne	 SHORT $L25804

; 233  : 		nLengthA = -1;

  000a1	c7 85 60 ff ff
	ff ff ff ff ff	 mov	 DWORD PTR _nLengthA$[ebp], -1
$L25804:

; 234  : 
; 235  : 	return ::GetStringTypeExA(lcid, dwInfoType, pszA, nLengthA, pwCharType);

  000ab	8b 45 18	 mov	 eax, DWORD PTR _pwCharType$[ebp]
  000ae	50		 push	 eax
  000af	8b 8d 60 ff ff
	ff		 mov	 ecx, DWORD PTR _nLengthA$[ebp]
  000b5	51		 push	 ecx
  000b6	8d 8d 64 ff ff
	ff		 lea	 ecx, DWORD PTR _pszA$[ebp]
  000bc	e8 00 00 00 00	 call	 ??B?$CTempBuffer@D$0IA@VCCRTAllocator@ATL@@@ATL@@QBEPADXZ ; ATL::CTempBuffer<char,128,ATL::CCRTAllocator>::operator char *
  000c1	50		 push	 eax
  000c2	8b 55 0c	 mov	 edx, DWORD PTR _dwInfoType$[ebp]
  000c5	52		 push	 edx
  000c6	8b 45 08	 mov	 eax, DWORD PTR _lcid$[ebp]
  000c9	50		 push	 eax
  000ca	ff 15 00 00 00
	00		 call	 DWORD PTR __imp__GetStringTypeExA@20
  000d0	89 85 5c ff ff
	ff		 mov	 DWORD PTR $T200722[ebp], eax
  000d6	c7 45 fc ff ff
	ff ff		 mov	 DWORD PTR __$EHRec$[ebp+8], -1
  000dd	8d 8d 64 ff ff
	ff		 lea	 ecx, DWORD PTR _pszA$[ebp]
  000e3	e8 00 00 00 00	 call	 ??1?$CTempBuffer@D$0IA@VCCRTAllocator@ATL@@@ATL@@QAE@XZ ; ATL::CTempBuffer<char,128,ATL::CCRTAllocator>::~CTempBuffer<char,128,ATL::CCRTAllocator>
  000e8	8b 85 5c ff ff
	ff		 mov	 eax, DWORD PTR $T200722[ebp]

; 236  : }

  000ee	8b 4d f4	 mov	 ecx, DWORD PTR __$EHRec$[ebp]
  000f1	64 89 0d 00 00
	00 00		 mov	 DWORD PTR fs:__except_list, ecx
  000f8	8b 4d f0	 mov	 ecx, DWORD PTR __$ArrayPad$[ebp]
  000fb	e8 00 00 00 00	 call	 @__security_check_cookie@4
  00100	8b e5		 mov	 esp, ebp
  00102	5d		 pop	 ebp
  00103	c2 14 00	 ret	 20			; 00000014H
_TEXT	ENDS
;	COMDAT text$x
text$x	SEGMENT
$L200723:
  00000	8d 8d 64 ff ff
	ff		 lea	 ecx, DWORD PTR _pszA$[ebp]
  00006	e9 00 00 00 00	 jmp	 ??1?$CTempBuffer@D$0IA@VCCRTAllocator@ATL@@@ATL@@QAE@XZ ; ATL::CTempBuffer<char,128,ATL::CCRTAllocator>::~CTempBuffer<char,128,ATL::CCRTAllocator>
__ehhandler$?GetStringTypeExWFake@ATL@@YGHKKPB_WHPAG@Z:
  0000b	b8 00 00 00 00	 mov	 eax, OFFSET FLAT:$T200725
  00010	e9 00 00 00 00	 jmp	 ___CxxFrameHandler
text$x	ENDS
?GetStringTypeExWFake@ATL@@YGHKKPB_WHPAG@Z ENDP		; ATL::GetStringTypeExWFake
PUBLIC	?lstrcmpiWFake@ATL@@YGHPB_W0@Z			; ATL::lstrcmpiWFake
EXTRN	__imp__lstrcmpiW@8:NEAR
; Function compile flags: /Odt
;	COMDAT ?lstrcmpiWThunk@ATL@@YGHPB_W0@Z
_TEXT	SEGMENT
_psz1$ = 8						; size = 4
_psz2$ = 12						; size = 4
?lstrcmpiWThunk@ATL@@YGHPB_W0@Z PROC NEAR		; ATL::lstrcmpiWThunk, COMDAT

; 254  : {

  00000	55		 push	 ebp
  00001	8b ec		 mov	 ebp, esp

; 255  : 	_AtlInstallStringThunk(reinterpret_cast<void**>(&_strthunks.pfnlstrcmpiW), lstrcmpiWFake, ::lstrcmpiW);

  00003	a1 00 00 00 00	 mov	 eax, DWORD PTR __imp__lstrcmpiW@8
  00008	50		 push	 eax
  00009	68 00 00 00 00	 push	 OFFSET FLAT:?lstrcmpiWFake@ATL@@YGHPB_W0@Z ; ATL::lstrcmpiWFake
  0000e	68 08 00 00 00	 push	 OFFSET FLAT:?_strthunks@ATL@@3U_AtlStringThunks@1@A+8
  00013	e8 00 00 00 00	 call	 ?_AtlInstallStringThunk@ATL@@YAXPAPAXPAX1@Z ; ATL::_AtlInstallStringThunk
  00018	83 c4 0c	 add	 esp, 12			; 0000000cH

; 256  : 
; 257  : 	return _strthunks.pfnlstrcmpiW(psz1, psz2);

  0001b	8b 4d 0c	 mov	 ecx, DWORD PTR _psz2$[ebp]
  0001e	51		 push	 ecx
  0001f	8b 55 08	 mov	 edx, DWORD PTR _psz1$[ebp]
  00022	52		 push	 edx
  00023	ff 15 08 00 00
	00		 call	 DWORD PTR ?_strthunks@ATL@@3U_AtlStringThunks@1@A+8

; 258  : }

  00029	5d		 pop	 ebp
  0002a	c2 08 00	 ret	 8
?lstrcmpiWThunk@ATL@@YGHPB_W0@Z ENDP			; ATL::lstrcmpiWThunk
_TEXT	ENDS
EXTRN	__imp__lstrcmpiA@8:NEAR
; Function compile flags: /Odt
;	COMDAT ?lstrcmpiWFake@ATL@@YGHPB_W0@Z
_TEXT	SEGMENT
tv91 = -32						; size = 4
tv94 = -28						; size = 4
tv76 = -24						; size = 4
tv79 = -20						; size = 4
__acp$ = -12						; size = 4
__lpw$ = -8						; size = 4
__convert$ = -4						; size = 4
_psz1$ = 8						; size = 4
_psz2$ = 12						; size = 4
?lstrcmpiWFake@ATL@@YGHPB_W0@Z PROC NEAR		; ATL::lstrcmpiWFake, COMDAT

; 247  : {

  00000	55		 push	 ebp
  00001	8b ec		 mov	 ebp, esp
  00003	83 ec 20	 sub	 esp, 32			; 00000020H

; 248  : 	USES_CONVERSION;

  00006	e8 00 00 00 00	 call	 ?_AtlGetConversionACP@ATL@@YGIXZ ; ATL::_AtlGetConversionACP
  0000b	89 45 f4	 mov	 DWORD PTR __acp$[ebp], eax

; 249  : 
; 250  : 	return ::lstrcmpiA(W2A(psz1), W2A(psz2));

  0000e	8b 45 0c	 mov	 eax, DWORD PTR _psz2$[ebp]
  00011	89 45 f8	 mov	 DWORD PTR __lpw$[ebp], eax
  00014	83 7d f8 00	 cmp	 DWORD PTR __lpw$[ebp], 0
  00018	75 09		 jne	 SHORT $L200735
  0001a	c7 45 ec 00 00
	00 00		 mov	 DWORD PTR tv79[ebp], 0
  00021	eb 3a		 jmp	 SHORT $L200736
$L200735:
  00023	8b 4d f8	 mov	 ecx, DWORD PTR __lpw$[ebp]
  00026	51		 push	 ecx
  00027	ff 15 00 00 00
	00		 call	 DWORD PTR __imp__lstrlenW@4
  0002d	8d 54 00 02	 lea	 edx, DWORD PTR [eax+eax+2]
  00031	89 55 fc	 mov	 DWORD PTR __convert$[ebp], edx
  00034	8b 45 fc	 mov	 eax, DWORD PTR __convert$[ebp]
  00037	83 c0 03	 add	 eax, 3
  0003a	83 e0 fc	 and	 eax, -4			; fffffffcH
  0003d	e8 00 00 00 00	 call	 __alloca_probe
  00042	89 65 e8	 mov	 DWORD PTR tv76[ebp], esp
  00045	8b 45 f4	 mov	 eax, DWORD PTR __acp$[ebp]
  00048	50		 push	 eax
  00049	8b 4d fc	 mov	 ecx, DWORD PTR __convert$[ebp]
  0004c	51		 push	 ecx
  0004d	8b 55 f8	 mov	 edx, DWORD PTR __lpw$[ebp]
  00050	52		 push	 edx
  00051	8b 45 e8	 mov	 eax, DWORD PTR tv76[ebp]
  00054	50		 push	 eax
  00055	e8 00 00 00 00	 call	 ?AtlW2AHelper@@YGPADPADPB_WHI@Z ; AtlW2AHelper
  0005a	89 45 ec	 mov	 DWORD PTR tv79[ebp], eax
$L200736:
  0005d	8b 4d 08	 mov	 ecx, DWORD PTR _psz1$[ebp]
  00060	89 4d f8	 mov	 DWORD PTR __lpw$[ebp], ecx
  00063	83 7d f8 00	 cmp	 DWORD PTR __lpw$[ebp], 0
  00067	75 09		 jne	 SHORT $L200737
  00069	c7 45 e4 00 00
	00 00		 mov	 DWORD PTR tv94[ebp], 0
  00070	eb 3a		 jmp	 SHORT $L200738
$L200737:
  00072	8b 55 f8	 mov	 edx, DWORD PTR __lpw$[ebp]
  00075	52		 push	 edx
  00076	ff 15 00 00 00
	00		 call	 DWORD PTR __imp__lstrlenW@4
  0007c	8d 44 00 02	 lea	 eax, DWORD PTR [eax+eax+2]
  00080	89 45 fc	 mov	 DWORD PTR __convert$[ebp], eax
  00083	8b 45 fc	 mov	 eax, DWORD PTR __convert$[ebp]
  00086	83 c0 03	 add	 eax, 3
  00089	83 e0 fc	 and	 eax, -4			; fffffffcH
  0008c	e8 00 00 00 00	 call	 __alloca_probe
  00091	89 65 e0	 mov	 DWORD PTR tv91[ebp], esp
  00094	8b 4d f4	 mov	 ecx, DWORD PTR __acp$[ebp]
  00097	51		 push	 ecx
  00098	8b 55 fc	 mov	 edx, DWORD PTR __convert$[ebp]
  0009b	52		 push	 edx
  0009c	8b 45 f8	 mov	 eax, DWORD PTR __lpw$[ebp]
  0009f	50		 push	 eax
  000a0	8b 4d e0	 mov	 ecx, DWORD PTR tv91[ebp]
  000a3	51		 push	 ecx
  000a4	e8 00 00 00 00	 call	 ?AtlW2AHelper@@YGPADPADPB_WHI@Z ; AtlW2AHelper
  000a9	89 45 e4	 mov	 DWORD PTR tv94[ebp], eax
$L200738:
  000ac	8b 55 ec	 mov	 edx, DWORD PTR tv79[ebp]
  000af	52		 push	 edx
  000b0	8b 45 e4	 mov	 eax, DWORD PTR tv94[ebp]
  000b3	50		 push	 eax
  000b4	ff 15 00 00 00
	00		 call	 DWORD PTR __imp__lstrcmpiA@8

; 251  : }

  000ba	8d 65 e0	 lea	 esp, DWORD PTR [ebp-32]
  000bd	8b e5		 mov	 esp, ebp
  000bf	5d		 pop	 ebp
  000c0	c2 08 00	 ret	 8
?lstrcmpiWFake@ATL@@YGHPB_W0@Z ENDP			; ATL::lstrcmpiWFake
_TEXT	ENDS
PUBLIC	?CharLowerWFake@ATL@@YGPA_WPA_W@Z		; ATL::CharLowerWFake
EXTRN	__imp__CharLowerW@4:NEAR
; Function compile flags: /Odt
;	COMDAT ?CharLowerWThunk@ATL@@YGPA_WPA_W@Z
_TEXT	SEGMENT
_psz$ = 8						; size = 4
?CharLowerWThunk@ATL@@YGPA_WPA_W@Z PROC NEAR		; ATL::CharLowerWThunk, COMDAT

; 273  : {

  00000	55		 push	 ebp
  00001	8b ec		 mov	 ebp, esp

; 274  : 	_AtlInstallStringThunk(reinterpret_cast<void**>(&_strthunks.pfnCharLowerW), CharLowerWFake, ::CharLowerW);

  00003	a1 00 00 00 00	 mov	 eax, DWORD PTR __imp__CharLowerW@4
  00008	50		 push	 eax
  00009	68 00 00 00 00	 push	 OFFSET FLAT:?CharLowerWFake@ATL@@YGPA_WPA_W@Z ; ATL::CharLowerWFake
  0000e	68 0c 00 00 00	 push	 OFFSET FLAT:?_strthunks@ATL@@3U_AtlStringThunks@1@A+12
  00013	e8 00 00 00 00	 call	 ?_AtlInstallStringThunk@ATL@@YAXPAPAXPAX1@Z ; ATL::_AtlInstallStringThunk
  00018	83 c4 0c	 add	 esp, 12			; 0000000cH

; 275  : 
; 276  : 	return _strthunks.pfnCharLowerW(psz);

  0001b	8b 4d 08	 mov	 ecx, DWORD PTR _psz$[ebp]
  0001e	51		 push	 ecx
  0001f	ff 15 0c 00 00
	00		 call	 DWORD PTR ?_strthunks@ATL@@3U_AtlStringThunks@1@A+12

; 277  : }

  00025	5d		 pop	 ebp
  00026	c2 04 00	 ret	 4
?CharLowerWThunk@ATL@@YGPA_WPA_W@Z ENDP			; ATL::CharLowerWThunk
_TEXT	ENDS
PUBLIC	?AtlA2WHelper@@YGPA_WPA_WPBDHI@Z		; AtlA2WHelper
EXTRN	__imp__lstrlenA@4:NEAR
EXTRN	__imp__CharLowerA@4:NEAR
EXTRN	__imp__wcscpy:NEAR
; Function compile flags: /Odt
;	COMDAT ?CharLowerWFake@ATL@@YGPA_WPA_W@Z
_TEXT	SEGMENT
tv90 = -36						; size = 4
tv94 = -32						; size = 4
tv75 = -28						; size = 4
tv78 = -24						; size = 4
__lpa$ = -20						; size = 4
__acp$ = -16						; size = 4
_pszA$ = -12						; size = 4
__lpw$ = -8						; size = 4
__convert$ = -4						; size = 4
_psz$ = 8						; size = 4
?CharLowerWFake@ATL@@YGPA_WPA_W@Z PROC NEAR		; ATL::CharLowerWFake, COMDAT

; 261  : {

  00000	55		 push	 ebp
  00001	8b ec		 mov	 ebp, esp
  00003	83 ec 24	 sub	 esp, 36			; 00000024H

; 262  : 	USES_CONVERSION;

  00006	e8 00 00 00 00	 call	 ?_AtlGetConversionACP@ATL@@YGIXZ ; ATL::_AtlGetConversionACP
  0000b	89 45 f0	 mov	 DWORD PTR __acp$[ebp], eax

; 263  : 	LPSTR pszA;
; 264  : 
; 265  : 	pszA = W2A(psz);

  0000e	8b 45 08	 mov	 eax, DWORD PTR _psz$[ebp]
  00011	89 45 f8	 mov	 DWORD PTR __lpw$[ebp], eax
  00014	83 7d f8 00	 cmp	 DWORD PTR __lpw$[ebp], 0
  00018	75 09		 jne	 SHORT $L200743
  0001a	c7 45 e8 00 00
	00 00		 mov	 DWORD PTR tv78[ebp], 0
  00021	eb 3a		 jmp	 SHORT $L200744
$L200743:
  00023	8b 4d f8	 mov	 ecx, DWORD PTR __lpw$[ebp]
  00026	51		 push	 ecx
  00027	ff 15 00 00 00
	00		 call	 DWORD PTR __imp__lstrlenW@4
  0002d	8d 54 00 02	 lea	 edx, DWORD PTR [eax+eax+2]
  00031	89 55 fc	 mov	 DWORD PTR __convert$[ebp], edx
  00034	8b 45 fc	 mov	 eax, DWORD PTR __convert$[ebp]
  00037	83 c0 03	 add	 eax, 3
  0003a	83 e0 fc	 and	 eax, -4			; fffffffcH
  0003d	e8 00 00 00 00	 call	 __alloca_probe
  00042	89 65 e4	 mov	 DWORD PTR tv75[ebp], esp
  00045	8b 45 f0	 mov	 eax, DWORD PTR __acp$[ebp]
  00048	50		 push	 eax
  00049	8b 4d fc	 mov	 ecx, DWORD PTR __convert$[ebp]
  0004c	51		 push	 ecx
  0004d	8b 55 f8	 mov	 edx, DWORD PTR __lpw$[ebp]
  00050	52		 push	 edx
  00051	8b 45 e4	 mov	 eax, DWORD PTR tv75[ebp]
  00054	50		 push	 eax
  00055	e8 00 00 00 00	 call	 ?AtlW2AHelper@@YGPADPADPB_WHI@Z ; AtlW2AHelper
  0005a	89 45 e8	 mov	 DWORD PTR tv78[ebp], eax
$L200744:
  0005d	8b 4d e8	 mov	 ecx, DWORD PTR tv78[ebp]
  00060	89 4d f4	 mov	 DWORD PTR _pszA$[ebp], ecx

; 266  : 	::CharLowerA(pszA);

  00063	8b 55 f4	 mov	 edx, DWORD PTR _pszA$[ebp]
  00066	52		 push	 edx
  00067	ff 15 00 00 00
	00		 call	 DWORD PTR __imp__CharLowerA@4

; 267  : 	wcscpy(psz, A2W(pszA));

  0006d	8b 45 f4	 mov	 eax, DWORD PTR _pszA$[ebp]
  00070	89 45 ec	 mov	 DWORD PTR __lpa$[ebp], eax
  00073	83 7d ec 00	 cmp	 DWORD PTR __lpa$[ebp], 0
  00077	75 09		 jne	 SHORT $L200745
  00079	c7 45 e0 00 00
	00 00		 mov	 DWORD PTR tv94[ebp], 0
  00080	eb 3b		 jmp	 SHORT $L200746
$L200745:
  00082	8b 4d ec	 mov	 ecx, DWORD PTR __lpa$[ebp]
  00085	51		 push	 ecx
  00086	ff 15 00 00 00
	00		 call	 DWORD PTR __imp__lstrlenA@4
  0008c	83 c0 01	 add	 eax, 1
  0008f	89 45 fc	 mov	 DWORD PTR __convert$[ebp], eax
  00092	8b 45 fc	 mov	 eax, DWORD PTR __convert$[ebp]
  00095	d1 e0		 shl	 eax, 1
  00097	83 c0 03	 add	 eax, 3
  0009a	83 e0 fc	 and	 eax, -4			; fffffffcH
  0009d	e8 00 00 00 00	 call	 __alloca_probe
  000a2	89 65 dc	 mov	 DWORD PTR tv90[ebp], esp
  000a5	8b 55 f0	 mov	 edx, DWORD PTR __acp$[ebp]
  000a8	52		 push	 edx
  000a9	8b 45 fc	 mov	 eax, DWORD PTR __convert$[ebp]
  000ac	50		 push	 eax
  000ad	8b 4d ec	 mov	 ecx, DWORD PTR __lpa$[ebp]
  000b0	51		 push	 ecx
  000b1	8b 55 dc	 mov	 edx, DWORD PTR tv90[ebp]
  000b4	52		 push	 edx
  000b5	e8 00 00 00 00	 call	 ?AtlA2WHelper@@YGPA_WPA_WPBDHI@Z ; AtlA2WHelper
  000ba	89 45 e0	 mov	 DWORD PTR tv94[ebp], eax
$L200746:
  000bd	8b 45 e0	 mov	 eax, DWORD PTR tv94[ebp]
  000c0	50		 push	 eax
  000c1	8b 4d 08	 mov	 ecx, DWORD PTR _psz$[ebp]
  000c4	51		 push	 ecx
  000c5	ff 15 00 00 00
	00		 call	 DWORD PTR __imp__wcscpy
  000cb	83 c4 08	 add	 esp, 8

; 268  : 
; 269  : 	return psz;

  000ce	8b 45 08	 mov	 eax, DWORD PTR _psz$[ebp]

; 270  : }

  000d1	8d 65 dc	 lea	 esp, DWORD PTR [ebp-36]
  000d4	8b e5		 mov	 esp, ebp
  000d6	5d		 pop	 ebp
  000d7	c2 04 00	 ret	 4
?CharLowerWFake@ATL@@YGPA_WPA_W@Z ENDP			; ATL::CharLowerWFake
; Function compile flags: /Odt
; File d:\program files (x86)\microsoft visual studio .net 2003\vc7\atlmfc\include\atlconv.h
_TEXT	ENDS
;	COMDAT ?AtlA2WHelper@@YGPA_WPA_WPBDHI@Z
_TEXT	SEGMENT
_ret$ = -4						; size = 4
_lpw$ = 8						; size = 4
_lpa$ = 12						; size = 4
_nChars$ = 16						; size = 4
_acp$ = 20						; size = 4
?AtlA2WHelper@@YGPA_WPA_WPBDHI@Z PROC NEAR		; AtlA2WHelper, COMDAT

; 554  : {

  00000	55		 push	 ebp
  00001	8b ec		 mov	 ebp, esp
  00003	51		 push	 ecx

; 555  : 	ATLASSERT(lpa != NULL);
; 556  : 	ATLASSERT(lpw != NULL);
; 557  : 	if (lpw == NULL || lpa == NULL)

  00004	83 7d 08 00	 cmp	 DWORD PTR _lpw$[ebp], 0
  00008	74 06		 je	 SHORT $L24306
  0000a	83 7d 0c 00	 cmp	 DWORD PTR _lpa$[ebp], 0
  0000e	75 04		 jne	 SHORT $L24305
$L24306:

; 558  : 		return NULL;

  00010	33 c0		 xor	 eax, eax
  00012	eb 32		 jmp	 SHORT $L24302
$L24305:

; 559  : 	// verify that no illegal character present
; 560  : 	// since lpw was allocated based on the size of lpa
; 561  : 	// don't worry about the number of chars
; 562  : 	lpw[0] = '\0';

  00014	8b 45 08	 mov	 eax, DWORD PTR _lpw$[ebp]
  00017	66 c7 00 00 00	 mov	 WORD PTR [eax], 0

; 563  : 	int ret = MultiByteToWideChar(acp, 0, lpa, -1, lpw, nChars);

  0001c	8b 4d 10	 mov	 ecx, DWORD PTR _nChars$[ebp]
  0001f	51		 push	 ecx
  00020	8b 55 08	 mov	 edx, DWORD PTR _lpw$[ebp]
  00023	52		 push	 edx
  00024	6a ff		 push	 -1
  00026	8b 45 0c	 mov	 eax, DWORD PTR _lpa$[ebp]
  00029	50		 push	 eax
  0002a	6a 00		 push	 0
  0002c	8b 4d 14	 mov	 ecx, DWORD PTR _acp$[ebp]
  0002f	51		 push	 ecx
  00030	ff 15 00 00 00
	00		 call	 DWORD PTR __imp__MultiByteToWideChar@24
  00036	89 45 fc	 mov	 DWORD PTR _ret$[ebp], eax

; 564  : 	if(ret == 0)

  00039	83 7d fc 00	 cmp	 DWORD PTR _ret$[ebp], 0
  0003d	75 04		 jne	 SHORT $L24308

; 565  : 	{
; 566  : 		ATLASSERT(FALSE);
; 567  : 		return NULL;

  0003f	33 c0		 xor	 eax, eax
  00041	eb 03		 jmp	 SHORT $L24302
$L24308:

; 568  : 	}		
; 569  : 	return lpw;

  00043	8b 45 08	 mov	 eax, DWORD PTR _lpw$[ebp]
$L24302:

; 570  : }

  00046	8b e5		 mov	 esp, ebp
  00048	5d		 pop	 ebp
  00049	c2 10 00	 ret	 16			; 00000010H
?AtlA2WHelper@@YGPA_WPA_WPBDHI@Z ENDP			; AtlA2WHelper
_TEXT	ENDS
PUBLIC	?CharUpperWFake@ATL@@YGPA_WPA_W@Z		; ATL::CharUpperWFake
EXTRN	__imp__CharUpperW@4:NEAR
; Function compile flags: /Odt
; File d:\program files (x86)\microsoft visual studio .net 2003\vc7\atlmfc\include\cstringt.h
;	COMDAT ?CharUpperWThunk@ATL@@YGPA_WPA_W@Z
_TEXT	SEGMENT
_psz$ = 8						; size = 4
?CharUpperWThunk@ATL@@YGPA_WPA_W@Z PROC NEAR		; ATL::CharUpperWThunk, COMDAT

; 292  : {

  00000	55		 push	 ebp
  00001	8b ec		 mov	 ebp, esp

; 293  : 	_AtlInstallStringThunk(reinterpret_cast<void**>(&_strthunks.pfnCharUpperW), CharUpperWFake, ::CharUpperW);

  00003	a1 00 00 00 00	 mov	 eax, DWORD PTR __imp__CharUpperW@4
  00008	50		 push	 eax
  00009	68 00 00 00 00	 push	 OFFSET FLAT:?CharUpperWFake@ATL@@YGPA_WPA_W@Z ; ATL::CharUpperWFake
  0000e	68 10 00 00 00	 push	 OFFSET FLAT:?_strthunks@ATL@@3U_AtlStringThunks@1@A+16
  00013	e8 00 00 00 00	 call	 ?_AtlInstallStringThunk@ATL@@YAXPAPAXPAX1@Z ; ATL::_AtlInstallStringThunk
  00018	83 c4 0c	 add	 esp, 12			; 0000000cH

; 294  : 
; 295  : 	return _strthunks.pfnCharUpperW(psz);

  0001b	8b 4d 08	 mov	 ecx, DWORD PTR _psz$[ebp]
  0001e	51		 push	 ecx
  0001f	ff 15 10 00 00
	00		 call	 DWORD PTR ?_strthunks@ATL@@3U_AtlStringThunks@1@A+16

; 296  : }

  00025	5d		 pop	 ebp
  00026	c2 04 00	 ret	 4
?CharUpperWThunk@ATL@@YGPA_WPA_W@Z ENDP			; ATL::CharUpperWThunk
_TEXT	ENDS
EXTRN	__imp__CharUpperA@4:NEAR
; Function compile flags: /Odt
;	COMDAT ?CharUpperWFake@ATL@@YGPA_WPA_W@Z
_TEXT	SEGMENT
tv90 = -36						; size = 4
tv94 = -32						; size = 4
tv75 = -28						; size = 4
tv78 = -24						; size = 4
__lpa$ = -20						; size = 4
__acp$ = -16						; size = 4
_pszA$ = -12						; size = 4
__lpw$ = -8						; size = 4
__convert$ = -4						; size = 4
_psz$ = 8						; size = 4
?CharUpperWFake@ATL@@YGPA_WPA_W@Z PROC NEAR		; ATL::CharUpperWFake, COMDAT

; 280  : {

  00000	55		 push	 ebp
  00001	8b ec		 mov	 ebp, esp
  00003	83 ec 24	 sub	 esp, 36			; 00000024H

; 281  : 	USES_CONVERSION;

  00006	e8 00 00 00 00	 call	 ?_AtlGetConversionACP@ATL@@YGIXZ ; ATL::_AtlGetConversionACP
  0000b	89 45 f0	 mov	 DWORD PTR __acp$[ebp], eax

; 282  : 	LPSTR pszA;
; 283  : 
; 284  : 	pszA = W2A(psz);

  0000e	8b 45 08	 mov	 eax, DWORD PTR _psz$[ebp]
  00011	89 45 f8	 mov	 DWORD PTR __lpw$[ebp], eax
  00014	83 7d f8 00	 cmp	 DWORD PTR __lpw$[ebp], 0
  00018	75 09		 jne	 SHORT $L200753
  0001a	c7 45 e8 00 00
	00 00		 mov	 DWORD PTR tv78[ebp], 0
  00021	eb 3a		 jmp	 SHORT $L200754
$L200753:
  00023	8b 4d f8	 mov	 ecx, DWORD PTR __lpw$[ebp]
  00026	51		 push	 ecx
  00027	ff 15 00 00 00
	00		 call	 DWORD PTR __imp__lstrlenW@4
  0002d	8d 54 00 02	 lea	 edx, DWORD PTR [eax+eax+2]
  00031	89 55 fc	 mov	 DWORD PTR __convert$[ebp], edx
  00034	8b 45 fc	 mov	 eax, DWORD PTR __convert$[ebp]
  00037	83 c0 03	 add	 eax, 3
  0003a	83 e0 fc	 and	 eax, -4			; fffffffcH
  0003d	e8 00 00 00 00	 call	 __alloca_probe
  00042	89 65 e4	 mov	 DWORD PTR tv75[ebp], esp
  00045	8b 45 f0	 mov	 eax, DWORD PTR __acp$[ebp]
  00048	50		 push	 eax
  00049	8b 4d fc	 mov	 ecx, DWORD PTR __convert$[ebp]
  0004c	51		 push	 ecx
  0004d	8b 55 f8	 mov	 edx, DWORD PTR __lpw$[ebp]
  00050	52		 push	 edx
  00051	8b 45 e4	 mov	 eax, DWORD PTR tv75[ebp]
  00054	50		 push	 eax
  00055	e8 00 00 00 00	 call	 ?AtlW2AHelper@@YGPADPADPB_WHI@Z ; AtlW2AHelper
  0005a	89 45 e8	 mov	 DWORD PTR tv78[ebp], eax
$L200754:
  0005d	8b 4d e8	 mov	 ecx, DWORD PTR tv78[ebp]
  00060	89 4d f4	 mov	 DWORD PTR _pszA$[ebp], ecx

; 285  : 	::CharUpperA(pszA);

  00063	8b 55 f4	 mov	 edx, DWORD PTR _pszA$[ebp]
  00066	52		 push	 edx
  00067	ff 15 00 00 00
	00		 call	 DWORD PTR __imp__CharUpperA@4

; 286  : 	wcscpy(psz, A2W(pszA));

  0006d	8b 45 f4	 mov	 eax, DWORD PTR _pszA$[ebp]
  00070	89 45 ec	 mov	 DWORD PTR __lpa$[ebp], eax
  00073	83 7d ec 00	 cmp	 DWORD PTR __lpa$[ebp], 0
  00077	75 09		 jne	 SHORT $L200755
  00079	c7 45 e0 00 00
	00 00		 mov	 DWORD PTR tv94[ebp], 0
  00080	eb 3b		 jmp	 SHORT $L200756
$L200755:
  00082	8b 4d ec	 mov	 ecx, DWORD PTR __lpa$[ebp]
  00085	51		 push	 ecx
  00086	ff 15 00 00 00
	00		 call	 DWORD PTR __imp__lstrlenA@4
  0008c	83 c0 01	 add	 eax, 1
  0008f	89 45 fc	 mov	 DWORD PTR __convert$[ebp], eax
  00092	8b 45 fc	 mov	 eax, DWORD PTR __convert$[ebp]
  00095	d1 e0		 shl	 eax, 1
  00097	83 c0 03	 add	 eax, 3
  0009a	83 e0 fc	 and	 eax, -4			; fffffffcH
  0009d	e8 00 00 00 00	 call	 __alloca_probe
  000a2	89 65 dc	 mov	 DWORD PTR tv90[ebp], esp
  000a5	8b 55 f0	 mov	 edx, DWORD PTR __acp$[ebp]
  000a8	52		 push	 edx
  000a9	8b 45 fc	 mov	 eax, DWORD PTR __convert$[ebp]
  000ac	50		 push	 eax
  000ad	8b 4d ec	 mov	 ecx, DWORD PTR __lpa$[ebp]
  000b0	51		 push	 ecx
  000b1	8b 55 dc	 mov	 edx, DWORD PTR tv90[ebp]
  000b4	52		 push	 edx
  000b5	e8 00 00 00 00	 call	 ?AtlA2WHelper@@YGPA_WPA_WPBDHI@Z ; AtlA2WHelper
  000ba	89 45 e0	 mov	 DWORD PTR tv94[ebp], eax
$L200756:
  000bd	8b 45 e0	 mov	 eax, DWORD PTR tv94[ebp]
  000c0	50		 push	 eax
  000c1	8b 4d 08	 mov	 ecx, DWORD PTR _psz$[ebp]
  000c4	51		 push	 ecx
  000c5	ff 15 00 00 00
	00		 call	 DWORD PTR __imp__wcscpy
  000cb	83 c4 08	 add	 esp, 8

; 287  : 
; 288  : 	return psz;

  000ce	8b 45 08	 mov	 eax, DWORD PTR _psz$[ebp]

; 289  : }

  000d1	8d 65 dc	 lea	 esp, DWORD PTR [ebp-36]
  000d4	8b e5		 mov	 esp, ebp
  000d6	5d		 pop	 ebp
  000d7	c2 04 00	 ret	 4
?CharUpperWFake@ATL@@YGPA_WPA_W@Z ENDP			; ATL::CharUpperWFake
; Function compile flags: /Odt
; File d:\program files (x86)\microsoft visual studio .net 2003\vc7\atlmfc\include\afx.inl
_TEXT	ENDS
;	COMDAT ?Serialize@CObject@@UAEXAAVCArchive@@@Z
_TEXT	SEGMENT
_this$ = -4						; size = 4
___formal$ = 8						; size = 4
?Serialize@CObject@@UAEXAAVCArchive@@@Z PROC NEAR	; CObject::Serialize, COMDAT
; _this$ = ecx

; 25   : 	{ /* CObject does not serialize anything by default */ }

  00000	55		 push	 ebp
  00001	8b ec		 mov	 ebp, esp
  00003	51		 push	 ecx
  00004	89 4d fc	 mov	 DWORD PTR _this$[ebp], ecx
  00007	8b e5		 mov	 esp, ebp
  00009	5d		 pop	 ebp
  0000a	c2 04 00	 ret	 4
?Serialize@CObject@@UAEXAAVCArchive@@@Z ENDP		; CObject::Serialize
_TEXT	ENDS
EXTRN	??3@YAXPAX@Z:NEAR				; operator delete
; Function compile flags: /Odt
;	COMDAT ??3CObject@@SGXPAX@Z
_TEXT	SEGMENT
_p$ = 8							; size = 4
??3CObject@@SGXPAX@Z PROC NEAR				; CObject::operator delete, COMDAT

; 31   : 	{ ::operator delete(p); }

  00000	55		 push	 ebp
  00001	8b ec		 mov	 ebp, esp
  00003	8b 45 08	 mov	 eax, DWORD PTR _p$[ebp]
  00006	50		 push	 eax
  00007	e8 00 00 00 00	 call	 ??3@YAXPAX@Z		; operator delete
  0000c	83 c4 04	 add	 esp, 4
  0000f	5d		 pop	 ebp
  00010	c2 04 00	 ret	 4
??3CObject@@SGXPAX@Z ENDP				; CObject::operator delete
; Function compile flags: /Odt
_TEXT	ENDS
;	COMDAT ?AssertValid@CObject@@UBEXXZ
_TEXT	SEGMENT
_this$ = -4						; size = 4
?AssertValid@CObject@@UBEXXZ PROC NEAR			; CObject::AssertValid, COMDAT
; _this$ = ecx

; 41   : 	{ /* no asserts in release builds */ }

  00000	55		 push	 ebp
  00001	8b ec		 mov	 ebp, esp
  00003	51		 push	 ecx
  00004	89 4d fc	 mov	 DWORD PTR _this$[ebp], ecx
  00007	8b e5		 mov	 esp, ebp
  00009	5d		 pop	 ebp
  0000a	c3		 ret	 0
?AssertValid@CObject@@UBEXXZ ENDP			; CObject::AssertValid
; Function compile flags: /Odt
_TEXT	ENDS
;	COMDAT ?Dump@CObject@@UBEXAAVCDumpContext@@@Z
_TEXT	SEGMENT
_this$ = -4						; size = 4
___formal$ = 8						; size = 4
?Dump@CObject@@UBEXAAVCDumpContext@@@Z PROC NEAR	; CObject::Dump, COMDAT
; _this$ = ecx

; 43   : 	{ /* no dumping in release builds */ }

  00000	55		 push	 ebp
  00001	8b ec		 mov	 ebp, esp
  00003	51		 push	 ecx
  00004	89 4d fc	 mov	 DWORD PTR _this$[ebp], ecx
  00007	8b e5		 mov	 esp, ebp
  00009	5d		 pop	 ebp
  0000a	c2 04 00	 ret	 4
?Dump@CObject@@UBEXAAVCDumpContext@@@Z ENDP		; CObject::Dump
; Function compile flags: /Odt
; File d:\program files (x86)\microsoft visual studio .net 2003\vc7\atlmfc\include\afxwin2.inl
_TEXT	ENDS
;	COMDAT ?Create@CDialog@@UAEHIPAVCWnd@@@Z
_TEXT	SEGMENT
_this$ = -4						; size = 4
_nIDTemplate$ = 8					; size = 4
_pParentWnd$ = 12					; size = 4
?Create@CDialog@@UAEHIPAVCWnd@@@Z PROC NEAR		; CDialog::Create, COMDAT
; _this$ = ecx

; 569  : 	{ return Create(MAKEINTRESOURCE(nIDTemplate), pParentWnd); }

  00000	55		 push	 ebp
  00001	8b ec		 mov	 ebp, esp
  00003	51		 push	 ecx
  00004	89 4d fc	 mov	 DWORD PTR _this$[ebp], ecx
  00007	8b 45 0c	 mov	 eax, DWORD PTR _pParentWnd$[ebp]
  0000a	50		 push	 eax
  0000b	0f b7 4d 08	 movzx	 ecx, WORD PTR _nIDTemplate$[ebp]
  0000f	51		 push	 ecx
  00010	8b 55 fc	 mov	 edx, DWORD PTR _this$[ebp]
  00013	8b 02		 mov	 eax, DWORD PTR [edx]
  00015	8b 4d fc	 mov	 ecx, DWORD PTR _this$[ebp]
  00018	ff 90 3c 01 00
	00		 call	 DWORD PTR [eax+316]
  0001e	8b e5		 mov	 esp, ebp
  00020	5d		 pop	 ebp
  00021	c2 08 00	 ret	 8
?Create@CDialog@@UAEHIPAVCWnd@@@Z ENDP			; CDialog::Create
_TEXT	ENDS
PUBLIC	??_R4IMessageObserver@@6B@			; IMessageObserver::`RTTI Complete Object Locator'
PUBLIC	??_R0?AVIMessageObserver@@@8			; IMessageObserver `RTTI Type Descriptor'
PUBLIC	??_R3IMessageObserver@@8			; IMessageObserver::`RTTI Class Hierarchy Descriptor'
PUBLIC	??_R2IMessageObserver@@8			; IMessageObserver::`RTTI Base Class Array'
PUBLIC	??_R1A@?0A@A@IMessageObserver@@8		; IMessageObserver::`RTTI Base Class Descriptor at (0,-1,0,0)'
PUBLIC	??_7IMessageObserver@@6B@			; IMessageObserver::`vftable'
PUBLIC	??_GIMessageObserver@@UAEPAXI@Z			; IMessageObserver::`scalar deleting destructor'
EXTRN	??_EIMessageObserver@@UAEPAXI@Z:NEAR		; IMessageObserver::`vector deleting destructor'
;	COMDAT ??_7IMessageObserver@@6B@
; File d:\boxgit\playbox\playbox\dev\prj\playbox\src\core\imessageobserver.h
CONST	SEGMENT
??_7IMessageObserver@@6B@ DD FLAT:??_R4IMessageObserver@@6B@ ; IMessageObserver::`vftable'
	DD	FLAT:??_EIMessageObserver@@UAEPAXI@Z
CONST	ENDS
;	COMDAT ??_R4IMessageObserver@@6B@
rdata$r	SEGMENT
??_R4IMessageObserver@@6B@ DD 00H			; IMessageObserver::`RTTI Complete Object Locator'
	DD	00H
	DD	00H
	DD	FLAT:??_R0?AVIMessageObserver@@@8
	DD	FLAT:??_R3IMessageObserver@@8
rdata$r	ENDS
;	COMDAT ??_R0?AVIMessageObserver@@@8
_DATA	SEGMENT
??_R0?AVIMessageObserver@@@8 DD FLAT:??_7type_info@@6B@	; IMessageObserver `RTTI Type Descriptor'
	DD	00H
	DB	'.?AVIMessageObserver@@', 00H
_DATA	ENDS
;	COMDAT ??_R3IMessageObserver@@8
rdata$r	SEGMENT
??_R3IMessageObserver@@8 DD 00H				; IMessageObserver::`RTTI Class Hierarchy Descriptor'
	DD	00H
	DD	01H
	DD	FLAT:??_R2IMessageObserver@@8
rdata$r	ENDS
;	COMDAT ??_R2IMessageObserver@@8
rdata$r	SEGMENT
??_R2IMessageObserver@@8 DD FLAT:??_R1A@?0A@A@IMessageObserver@@8 ; IMessageObserver::`RTTI Base Class Array'
rdata$r	ENDS
;	COMDAT ??_R1A@?0A@A@IMessageObserver@@8
rdata$r	SEGMENT
??_R1A@?0A@A@IMessageObserver@@8 DD FLAT:??_R0?AVIMessageObserver@@@8 ; IMessageObserver::`RTTI Base Class Descriptor at (0,-1,0,0)'
	DD	00H
	DD	00H
	DD	0ffffffffH
	DD	00H
	DD	00H
; Function compile flags: /Odt
rdata$r	ENDS
;	COMDAT ??1IMessageObserver@@UAE@XZ
_TEXT	SEGMENT
_this$ = -4						; size = 4
??1IMessageObserver@@UAE@XZ PROC NEAR			; IMessageObserver::~IMessageObserver, COMDAT
; _this$ = ecx

; 16   : 	virtual ~IMessageObserver(){};

  00000	55		 push	 ebp
  00001	8b ec		 mov	 ebp, esp
  00003	51		 push	 ecx
  00004	89 4d fc	 mov	 DWORD PTR _this$[ebp], ecx
  00007	8b 45 fc	 mov	 eax, DWORD PTR _this$[ebp]
  0000a	c7 00 00 00 00
	00		 mov	 DWORD PTR [eax], OFFSET FLAT:??_7IMessageObserver@@6B@
  00010	8b e5		 mov	 esp, ebp
  00012	5d		 pop	 ebp
  00013	c3		 ret	 0
??1IMessageObserver@@UAE@XZ ENDP			; IMessageObserver::~IMessageObserver
; Function compile flags: /Odt
_TEXT	ENDS
;	COMDAT ??_GIMessageObserver@@UAEPAXI@Z
_TEXT	SEGMENT
_this$ = -4						; size = 4
___flags$ = 8						; size = 4
??_GIMessageObserver@@UAEPAXI@Z PROC NEAR		; IMessageObserver::`scalar deleting destructor', COMDAT
; _this$ = ecx
  00000	55		 push	 ebp
  00001	8b ec		 mov	 ebp, esp
  00003	51		 push	 ecx
  00004	89 4d fc	 mov	 DWORD PTR _this$[ebp], ecx
  00007	8b 4d fc	 mov	 ecx, DWORD PTR _this$[ebp]
  0000a	e8 00 00 00 00	 call	 ??1IMessageObserver@@UAE@XZ ; IMessageObserver::~IMessageObserver
  0000f	8b 45 08	 mov	 eax, DWORD PTR ___flags$[ebp]
  00012	83 e0 01	 and	 eax, 1
  00015	74 0c		 je	 SHORT $L109524
  00017	8b 4d fc	 mov	 ecx, DWORD PTR _this$[ebp]
  0001a	51		 push	 ecx
  0001b	e8 00 00 00 00	 call	 ??3@YAXPAX@Z		; operator delete
  00020	83 c4 04	 add	 esp, 4
$L109524:
  00023	8b 45 fc	 mov	 eax, DWORD PTR _this$[ebp]
  00026	8b e5		 mov	 esp, ebp
  00028	5d		 pop	 ebp
  00029	c2 04 00	 ret	 4
??_GIMessageObserver@@UAEPAXI@Z ENDP			; IMessageObserver::`scalar deleting destructor'
; Function compile flags: /Odt
; File d:\program files (x86)\microsoft visual studio .net 2003\vc7\platformsdk\include\gdiplusinit.h
_TEXT	ENDS
;	COMDAT ??0GdiplusStartupInput@Gdiplus@@QAE@P6GXW4DebugEventLevel@1@PAD@ZHH@Z
_TEXT	SEGMENT
_this$ = -4						; size = 4
_debugEventCallback$ = 8				; size = 4
_suppressBackgroundThread$ = 12				; size = 4
_suppressExternalCodecs$ = 16				; size = 4
??0GdiplusStartupInput@Gdiplus@@QAE@P6GXW4DebugEventLevel@1@PAD@ZHH@Z PROC NEAR ; Gdiplus::GdiplusStartupInput::GdiplusStartupInput, COMDAT
; _this$ = ecx

; 46   :     GdiplusStartupInput(

  00000	55		 push	 ebp
  00001	8b ec		 mov	 ebp, esp
  00003	51		 push	 ecx
  00004	89 4d fc	 mov	 DWORD PTR _this$[ebp], ecx

; 47   :         DebugEventProc debugEventCallback = NULL,
; 48   :         BOOL suppressBackgroundThread = FALSE,
; 49   :         BOOL suppressExternalCodecs = FALSE)
; 50   :     {
; 51   :         GdiplusVersion = 1;

  00007	8b 45 fc	 mov	 eax, DWORD PTR _this$[ebp]
  0000a	c7 00 01 00 00
	00		 mov	 DWORD PTR [eax], 1

; 52   :         DebugEventCallback = debugEventCallback;

  00010	8b 4d fc	 mov	 ecx, DWORD PTR _this$[ebp]
  00013	8b 55 08	 mov	 edx, DWORD PTR _debugEventCallback$[ebp]
  00016	89 51 04	 mov	 DWORD PTR [ecx+4], edx

; 53   :         SuppressBackgroundThread = suppressBackgroundThread;

  00019	8b 45 fc	 mov	 eax, DWORD PTR _this$[ebp]
  0001c	8b 4d 0c	 mov	 ecx, DWORD PTR _suppressBackgroundThread$[ebp]
  0001f	89 48 08	 mov	 DWORD PTR [eax+8], ecx

; 54   :         SuppressExternalCodecs = suppressExternalCodecs;

  00022	8b 55 fc	 mov	 edx, DWORD PTR _this$[ebp]
  00025	8b 45 10	 mov	 eax, DWORD PTR _suppressExternalCodecs$[ebp]
  00028	89 42 0c	 mov	 DWORD PTR [edx+12], eax

; 55   :     }

  0002b	8b 45 fc	 mov	 eax, DWORD PTR _this$[ebp]
  0002e	8b e5		 mov	 esp, ebp
  00030	5d		 pop	 ebp
  00031	c2 0c 00	 ret	 12			; 0000000cH
??0GdiplusStartupInput@Gdiplus@@QAE@P6GXW4DebugEventLevel@1@PAD@ZHH@Z ENDP ; Gdiplus::GdiplusStartupInput::GdiplusStartupInput
; Function compile flags: /Odt
; File d:\program files (x86)\microsoft visual studio .net 2003\vc7\atlmfc\include\atlalloc.h
_TEXT	ENDS
;	COMDAT ??0?$CAtlSafeAllocBufferManager@VCCRTAllocator@ATL@@@_ATL_SAFE_ALLOCA_IMPL@ATL@@QAE@XZ
_TEXT	SEGMENT
_this$ = -4						; size = 4
??0?$CAtlSafeAllocBufferManager@VCCRTAllocator@ATL@@@_ATL_SAFE_ALLOCA_IMPL@ATL@@QAE@XZ PROC NEAR ; ATL::_ATL_SAFE_ALLOCA_IMPL::CAtlSafeAllocBufferManager<ATL::CCRTAllocator>::CAtlSafeAllocBufferManager<ATL::CCRTAllocator>, COMDAT
; _this$ = ecx

; 373  : 	CAtlSafeAllocBufferManager() : m_pHead(NULL) {};

  00000	55		 push	 ebp
  00001	8b ec		 mov	 ebp, esp
  00003	51		 push	 ecx
  00004	89 4d fc	 mov	 DWORD PTR _this$[ebp], ecx
  00007	8b 45 fc	 mov	 eax, DWORD PTR _this$[ebp]
  0000a	c7 00 00 00 00
	00		 mov	 DWORD PTR [eax], 0
  00010	8b 45 fc	 mov	 eax, DWORD PTR _this$[ebp]
  00013	8b e5		 mov	 esp, ebp
  00015	5d		 pop	 ebp
  00016	c3		 ret	 0
??0?$CAtlSafeAllocBufferManager@VCCRTAllocator@ATL@@@_ATL_SAFE_ALLOCA_IMPL@ATL@@QAE@XZ ENDP ; ATL::_ATL_SAFE_ALLOCA_IMPL::CAtlSafeAllocBufferManager<ATL::CCRTAllocator>::CAtlSafeAllocBufferManager<ATL::CCRTAllocator>
_TEXT	ENDS
PUBLIC	?GetData@CAtlSafeAllocBufferNode@?$CAtlSafeAllocBufferManager@VCCRTAllocator@ATL@@@_ATL_SAFE_ALLOCA_IMPL@ATL@@QAEPAXXZ ; ATL::_ATL_SAFE_ALLOCA_IMPL::CAtlSafeAllocBufferManager<ATL::CCRTAllocator>::CAtlSafeAllocBufferNode::GetData
PUBLIC	?Allocate@CCRTAllocator@ATL@@SAPAXI@Z		; ATL::CCRTAllocator::Allocate
; Function compile flags: /Odt
;	COMDAT ?Allocate@?$CAtlSafeAllocBufferManager@VCCRTAllocator@ATL@@@_ATL_SAFE_ALLOCA_IMPL@ATL@@QAEPAXK@Z
_TEXT	SEGMENT
_this$ = -8						; size = 4
_p$ = -4						; size = 4
_nRequestedSize$ = 8					; size = 4
?Allocate@?$CAtlSafeAllocBufferManager@VCCRTAllocator@ATL@@@_ATL_SAFE_ALLOCA_IMPL@ATL@@QAEPAXK@Z PROC NEAR ; ATL::_ATL_SAFE_ALLOCA_IMPL::CAtlSafeAllocBufferManager<ATL::CCRTAllocator>::Allocate, COMDAT
; _this$ = ecx

; 375  : 	{

  00000	55		 push	 ebp
  00001	8b ec		 mov	 ebp, esp
  00003	83 ec 08	 sub	 esp, 8
  00006	89 4d f8	 mov	 DWORD PTR _this$[ebp], ecx

; 376  : 		CAtlSafeAllocBufferNode *p = (CAtlSafeAllocBufferNode*)Allocator::Allocate(nRequestedSize + sizeof(CAtlSafeAllocBufferNode));

  00009	8b 45 08	 mov	 eax, DWORD PTR _nRequestedSize$[ebp]
  0000c	83 c0 08	 add	 eax, 8
  0000f	50		 push	 eax
  00010	e8 00 00 00 00	 call	 ?Allocate@CCRTAllocator@ATL@@SAPAXI@Z ; ATL::CCRTAllocator::Allocate
  00015	83 c4 04	 add	 esp, 4
  00018	89 45 fc	 mov	 DWORD PTR _p$[ebp], eax

; 377  : 		if (p == NULL)

  0001b	83 7d fc 00	 cmp	 DWORD PTR _p$[ebp], 0
  0001f	75 04		 jne	 SHORT $L191833

; 378  : 			return NULL;

  00021	33 c0		 xor	 eax, eax
  00023	eb 1a		 jmp	 SHORT $L191820
$L191833:

; 379  : 		
; 380  : 		// Add buffer to the list
; 381  : 		p->m_pNext = m_pHead;

  00025	8b 4d fc	 mov	 ecx, DWORD PTR _p$[ebp]
  00028	8b 55 f8	 mov	 edx, DWORD PTR _this$[ebp]
  0002b	8b 02		 mov	 eax, DWORD PTR [edx]
  0002d	89 01		 mov	 DWORD PTR [ecx], eax

; 382  : 		m_pHead = p;

  0002f	8b 4d f8	 mov	 ecx, DWORD PTR _this$[ebp]
  00032	8b 55 fc	 mov	 edx, DWORD PTR _p$[ebp]
  00035	89 11		 mov	 DWORD PTR [ecx], edx

; 383  : 		
; 384  : 		return p->GetData();

  00037	8b 4d fc	 mov	 ecx, DWORD PTR _p$[ebp]
  0003a	e8 00 00 00 00	 call	 ?GetData@CAtlSafeAllocBufferNode@?$CAtlSafeAllocBufferManager@VCCRTAllocator@ATL@@@_ATL_SAFE_ALLOCA_IMPL@ATL@@QAEPAXXZ ; ATL::_ATL_SAFE_ALLOCA_IMPL::CAtlSafeAllocBufferManager<ATL::CCRTAllocator>::CAtlSafeAllocBufferNode::GetData
$L191820:

; 385  : 	}

  0003f	8b e5		 mov	 esp, ebp
  00041	5d		 pop	 ebp
  00042	c2 04 00	 ret	 4
?Allocate@?$CAtlSafeAllocBufferManager@VCCRTAllocator@ATL@@@_ATL_SAFE_ALLOCA_IMPL@ATL@@QAEPAXK@Z ENDP ; ATL::_ATL_SAFE_ALLOCA_IMPL::CAtlSafeAllocBufferManager<ATL::CCRTAllocator>::Allocate
_TEXT	ENDS
EXTRN	__imp__malloc:NEAR
; Function compile flags: /Odt
;	COMDAT ?Allocate@CCRTAllocator@ATL@@SAPAXI@Z
_TEXT	SEGMENT
_nBytes$ = 8						; size = 4
?Allocate@CCRTAllocator@ATL@@SAPAXI@Z PROC NEAR		; ATL::CCRTAllocator::Allocate, COMDAT

; 30   : 	{

  00000	55		 push	 ebp
  00001	8b ec		 mov	 ebp, esp

; 31   : 		return malloc(nBytes);

  00003	8b 45 08	 mov	 eax, DWORD PTR _nBytes$[ebp]
  00006	50		 push	 eax
  00007	ff 15 00 00 00
	00		 call	 DWORD PTR __imp__malloc
  0000d	83 c4 04	 add	 esp, 4

; 32   : 	}

  00010	5d		 pop	 ebp
  00011	c3		 ret	 0
?Allocate@CCRTAllocator@ATL@@SAPAXI@Z ENDP		; ATL::CCRTAllocator::Allocate
_TEXT	ENDS
PUBLIC	?Free@CCRTAllocator@ATL@@SAXPAX@Z		; ATL::CCRTAllocator::Free
; Function compile flags: /Odt
;	COMDAT ??1?$CAtlSafeAllocBufferManager@VCCRTAllocator@ATL@@@_ATL_SAFE_ALLOCA_IMPL@ATL@@QAE@XZ
_TEXT	SEGMENT
_this$ = -8						; size = 4
_p$191839 = -4						; size = 4
??1?$CAtlSafeAllocBufferManager@VCCRTAllocator@ATL@@@_ATL_SAFE_ALLOCA_IMPL@ATL@@QAE@XZ PROC NEAR ; ATL::_ATL_SAFE_ALLOCA_IMPL::CAtlSafeAllocBufferManager<ATL::CCRTAllocator>::~CAtlSafeAllocBufferManager<ATL::CCRTAllocator>, COMDAT
; _this$ = ecx

; 387  : 	{

  00000	55		 push	 ebp
  00001	8b ec		 mov	 ebp, esp
  00003	83 ec 08	 sub	 esp, 8
  00006	89 4d f8	 mov	 DWORD PTR _this$[ebp], ecx
$L191837:

; 388  : 		// Walk the list and free the buffers
; 389  : 		while (m_pHead != NULL)

  00009	8b 45 f8	 mov	 eax, DWORD PTR _this$[ebp]
  0000c	83 38 00	 cmp	 DWORD PTR [eax], 0
  0000f	74 22		 je	 SHORT $L191835

; 390  : 		{
; 391  : 			CAtlSafeAllocBufferNode* p = m_pHead;

  00011	8b 4d f8	 mov	 ecx, DWORD PTR _this$[ebp]
  00014	8b 11		 mov	 edx, DWORD PTR [ecx]
  00016	89 55 fc	 mov	 DWORD PTR _p$191839[ebp], edx

; 392  : 			m_pHead = m_pHead->m_pNext;

  00019	8b 45 f8	 mov	 eax, DWORD PTR _this$[ebp]
  0001c	8b 08		 mov	 ecx, DWORD PTR [eax]
  0001e	8b 55 f8	 mov	 edx, DWORD PTR _this$[ebp]
  00021	8b 01		 mov	 eax, DWORD PTR [ecx]
  00023	89 02		 mov	 DWORD PTR [edx], eax

; 393  : 			Allocator::Free(p);

  00025	8b 4d fc	 mov	 ecx, DWORD PTR _p$191839[ebp]
  00028	51		 push	 ecx
  00029	e8 00 00 00 00	 call	 ?Free@CCRTAllocator@ATL@@SAXPAX@Z ; ATL::CCRTAllocator::Free
  0002e	83 c4 04	 add	 esp, 4

; 394  : 		}

  00031	eb d6		 jmp	 SHORT $L191837
$L191835:

; 395  : 	}

  00033	8b e5		 mov	 esp, ebp
  00035	5d		 pop	 ebp
  00036	c3		 ret	 0
??1?$CAtlSafeAllocBufferManager@VCCRTAllocator@ATL@@@_ATL_SAFE_ALLOCA_IMPL@ATL@@QAE@XZ ENDP ; ATL::_ATL_SAFE_ALLOCA_IMPL::CAtlSafeAllocBufferManager<ATL::CCRTAllocator>::~CAtlSafeAllocBufferManager<ATL::CCRTAllocator>
_TEXT	ENDS
EXTRN	__imp__free:NEAR
; Function compile flags: /Odt
;	COMDAT ?Free@CCRTAllocator@ATL@@SAXPAX@Z
_TEXT	SEGMENT
_p$ = 8							; size = 4
?Free@CCRTAllocator@ATL@@SAXPAX@Z PROC NEAR		; ATL::CCRTAllocator::Free, COMDAT

; 35   : 	{

  00000	55		 push	 ebp
  00001	8b ec		 mov	 ebp, esp

; 36   : 		free(p);

  00003	8b 45 08	 mov	 eax, DWORD PTR _p$[ebp]
  00006	50		 push	 eax
  00007	ff 15 00 00 00
	00		 call	 DWORD PTR __imp__free
  0000d	83 c4 04	 add	 esp, 4

; 37   : 	}

  00010	5d		 pop	 ebp
  00011	c3		 ret	 0
?Free@CCRTAllocator@ATL@@SAXPAX@Z ENDP			; ATL::CCRTAllocator::Free
; Function compile flags: /Odt
_TEXT	ENDS
;	COMDAT ??0?$CTempBuffer@D$0IA@VCCRTAllocator@ATL@@@ATL@@QAE@XZ
_TEXT	SEGMENT
_this$ = -4						; size = 4
??0?$CTempBuffer@D$0IA@VCCRTAllocator@ATL@@@ATL@@QAE@XZ PROC NEAR ; ATL::CTempBuffer<char,128,ATL::CCRTAllocator>::CTempBuffer<char,128,ATL::CCRTAllocator>, COMDAT
; _this$ = ecx

; 216  : 	{

  00000	55		 push	 ebp
  00001	8b ec		 mov	 ebp, esp
  00003	51		 push	 ecx
  00004	89 4d fc	 mov	 DWORD PTR _this$[ebp], ecx
  00007	8b 45 fc	 mov	 eax, DWORD PTR _this$[ebp]
  0000a	c7 00 00 00 00
	00		 mov	 DWORD PTR [eax], 0

; 217  : 	}

  00010	8b 45 fc	 mov	 eax, DWORD PTR _this$[ebp]
  00013	8b e5		 mov	 esp, ebp
  00015	5d		 pop	 ebp
  00016	c3		 ret	 0
??0?$CTempBuffer@D$0IA@VCCRTAllocator@ATL@@@ATL@@QAE@XZ ENDP ; ATL::CTempBuffer<char,128,ATL::CCRTAllocator>::CTempBuffer<char,128,ATL::CCRTAllocator>
_TEXT	ENDS
PUBLIC	?FreeHeap@?$CTempBuffer@D$0IA@VCCRTAllocator@ATL@@@ATL@@AAEXXZ ; ATL::CTempBuffer<char,128,ATL::CCRTAllocator>::FreeHeap
; Function compile flags: /Odt
;	COMDAT ??1?$CTempBuffer@D$0IA@VCCRTAllocator@ATL@@@ATL@@QAE@XZ
_TEXT	SEGMENT
_this$ = -4						; size = 4
??1?$CTempBuffer@D$0IA@VCCRTAllocator@ATL@@@ATL@@QAE@XZ PROC NEAR ; ATL::CTempBuffer<char,128,ATL::CCRTAllocator>::~CTempBuffer<char,128,ATL::CCRTAllocator>, COMDAT
; _this$ = ecx

; 225  : 	{

  00000	55		 push	 ebp
  00001	8b ec		 mov	 ebp, esp
  00003	51		 push	 ecx
  00004	89 4d fc	 mov	 DWORD PTR _this$[ebp], ecx

; 226  : 		if( m_p != reinterpret_cast< T* >( m_abFixedBuffer ) )

  00007	8b 45 fc	 mov	 eax, DWORD PTR _this$[ebp]
  0000a	83 c0 04	 add	 eax, 4
  0000d	8b 4d fc	 mov	 ecx, DWORD PTR _this$[ebp]
  00010	39 01		 cmp	 DWORD PTR [ecx], eax
  00012	74 08		 je	 SHORT $L191843

; 227  : 		{
; 228  : 			FreeHeap();

  00014	8b 4d fc	 mov	 ecx, DWORD PTR _this$[ebp]
  00017	e8 00 00 00 00	 call	 ?FreeHeap@?$CTempBuffer@D$0IA@VCCRTAllocator@ATL@@@ATL@@AAEXXZ ; ATL::CTempBuffer<char,128,ATL::CCRTAllocator>::FreeHeap
$L191843:

; 229  : 		}
; 230  : 	}

  0001c	8b e5		 mov	 esp, ebp
  0001e	5d		 pop	 ebp
  0001f	c3		 ret	 0
??1?$CTempBuffer@D$0IA@VCCRTAllocator@ATL@@@ATL@@QAE@XZ ENDP ; ATL::CTempBuffer<char,128,ATL::CCRTAllocator>::~CTempBuffer<char,128,ATL::CCRTAllocator>
; Function compile flags: /Odt
_TEXT	ENDS
;	COMDAT ??B?$CTempBuffer@D$0IA@VCCRTAllocator@ATL@@@ATL@@QBEPADXZ
_TEXT	SEGMENT
_this$ = -4						; size = 4
??B?$CTempBuffer@D$0IA@VCCRTAllocator@ATL@@@ATL@@QBEPADXZ PROC NEAR ; ATL::CTempBuffer<char,128,ATL::CCRTAllocator>::operator char *, COMDAT
; _this$ = ecx

; 233  : 	{

  00000	55		 push	 ebp
  00001	8b ec		 mov	 ebp, esp
  00003	51		 push	 ecx
  00004	89 4d fc	 mov	 DWORD PTR _this$[ebp], ecx

; 234  : 		return( m_p );

  00007	8b 45 fc	 mov	 eax, DWORD PTR _this$[ebp]
  0000a	8b 00		 mov	 eax, DWORD PTR [eax]

; 235  : 	}

  0000c	8b e5		 mov	 esp, ebp
  0000e	5d		 pop	 ebp
  0000f	c3		 ret	 0
??B?$CTempBuffer@D$0IA@VCCRTAllocator@ATL@@@ATL@@QBEPADXZ ENDP ; ATL::CTempBuffer<char,128,ATL::CCRTAllocator>::operator char *
_TEXT	ENDS
PUBLIC	?AllocateBytes@?$CTempBuffer@D$0IA@VCCRTAllocator@ATL@@@ATL@@QAEPADI@Z ; ATL::CTempBuffer<char,128,ATL::CCRTAllocator>::AllocateBytes
; Function compile flags: /Odt
;	COMDAT ?Allocate@?$CTempBuffer@D$0IA@VCCRTAllocator@ATL@@@ATL@@QAEPADI@Z
_TEXT	SEGMENT
_this$ = -4						; size = 4
_nElements$ = 8						; size = 4
?Allocate@?$CTempBuffer@D$0IA@VCCRTAllocator@ATL@@@ATL@@QAEPADI@Z PROC NEAR ; ATL::CTempBuffer<char,128,ATL::CCRTAllocator>::Allocate, COMDAT
; _this$ = ecx

; 243  : 	{

  00000	55		 push	 ebp
  00001	8b ec		 mov	 ebp, esp
  00003	51		 push	 ecx
  00004	89 4d fc	 mov	 DWORD PTR _this$[ebp], ecx

; 244  : 		return( AllocateBytes( nElements*sizeof( T ) ) );

  00007	8b 45 08	 mov	 eax, DWORD PTR _nElements$[ebp]
  0000a	50		 push	 eax
  0000b	8b 4d fc	 mov	 ecx, DWORD PTR _this$[ebp]
  0000e	e8 00 00 00 00	 call	 ?AllocateBytes@?$CTempBuffer@D$0IA@VCCRTAllocator@ATL@@@ATL@@QAEPADI@Z ; ATL::CTempBuffer<char,128,ATL::CCRTAllocator>::AllocateBytes

; 245  : 	}

  00013	8b e5		 mov	 esp, ebp
  00015	5d		 pop	 ebp
  00016	c2 04 00	 ret	 4
?Allocate@?$CTempBuffer@D$0IA@VCCRTAllocator@ATL@@@ATL@@QAEPADI@Z ENDP ; ATL::CTempBuffer<char,128,ATL::CCRTAllocator>::Allocate
_TEXT	ENDS
PUBLIC	?Init@?$CW2AEX@$0IA@@ATL@@AAEXPB_WI@Z		; ATL::CW2AEX<128>::Init
; Function compile flags: /Odt
; File d:\program files (x86)\microsoft visual studio .net 2003\vc7\atlmfc\include\atlconv.h
;	COMDAT ??0?$CW2AEX@$0IA@@ATL@@QAE@PB_W@Z
_TEXT	SEGMENT
_this$ = -4						; size = 4
_psz$ = 8						; size = 4
??0?$CW2AEX@$0IA@@ATL@@QAE@PB_W@Z PROC NEAR		; ATL::CW2AEX<128>::CW2AEX<128>, COMDAT
; _this$ = ecx

; 419  : 	{

  00000	55		 push	 ebp
  00001	8b ec		 mov	 ebp, esp
  00003	51		 push	 ecx
  00004	89 4d fc	 mov	 DWORD PTR _this$[ebp], ecx
  00007	8b 45 fc	 mov	 eax, DWORD PTR _this$[ebp]
  0000a	83 c0 04	 add	 eax, 4
  0000d	8b 4d fc	 mov	 ecx, DWORD PTR _this$[ebp]
  00010	89 01		 mov	 DWORD PTR [ecx], eax

; 420  : 		Init( psz, _AtlGetConversionACP() );

  00012	e8 00 00 00 00	 call	 ?_AtlGetConversionACP@ATL@@YGIXZ ; ATL::_AtlGetConversionACP
  00017	50		 push	 eax
  00018	8b 55 08	 mov	 edx, DWORD PTR _psz$[ebp]
  0001b	52		 push	 edx
  0001c	8b 4d fc	 mov	 ecx, DWORD PTR _this$[ebp]
  0001f	e8 00 00 00 00	 call	 ?Init@?$CW2AEX@$0IA@@ATL@@AAEXPB_WI@Z ; ATL::CW2AEX<128>::Init

; 421  : 	}

  00024	8b 45 fc	 mov	 eax, DWORD PTR _this$[ebp]
  00027	8b e5		 mov	 esp, ebp
  00029	5d		 pop	 ebp
  0002a	c2 04 00	 ret	 4
??0?$CW2AEX@$0IA@@ATL@@QAE@PB_W@Z ENDP			; ATL::CW2AEX<128>::CW2AEX<128>
; Function compile flags: /Odt
_TEXT	ENDS
;	COMDAT ??1?$CW2AEX@$0IA@@ATL@@QAE@XZ
_TEXT	SEGMENT
_this$ = -4						; size = 4
??1?$CW2AEX@$0IA@@ATL@@QAE@XZ PROC NEAR			; ATL::CW2AEX<128>::~CW2AEX<128>, COMDAT
; _this$ = ecx

; 428  : 	{

  00000	55		 push	 ebp
  00001	8b ec		 mov	 ebp, esp
  00003	51		 push	 ecx
  00004	89 4d fc	 mov	 DWORD PTR _this$[ebp], ecx

; 429  : 		if( m_psz != m_szBuffer )

  00007	8b 45 fc	 mov	 eax, DWORD PTR _this$[ebp]
  0000a	83 c0 04	 add	 eax, 4
  0000d	8b 4d fc	 mov	 ecx, DWORD PTR _this$[ebp]
  00010	39 01		 cmp	 DWORD PTR [ecx], eax
  00012	74 0f		 je	 SHORT $L191854

; 430  : 		{
; 431  : 			free( m_psz );

  00014	8b 55 fc	 mov	 edx, DWORD PTR _this$[ebp]
  00017	8b 02		 mov	 eax, DWORD PTR [edx]
  00019	50		 push	 eax
  0001a	ff 15 00 00 00
	00		 call	 DWORD PTR __imp__free
  00020	83 c4 04	 add	 esp, 4
$L191854:

; 432  : 		}
; 433  : 	}

  00023	8b e5		 mov	 esp, ebp
  00025	5d		 pop	 ebp
  00026	c3		 ret	 0
??1?$CW2AEX@$0IA@@ATL@@QAE@XZ ENDP			; ATL::CW2AEX<128>::~CW2AEX<128>
; Function compile flags: /Odt
_TEXT	ENDS
;	COMDAT ??B?$CW2AEX@$0IA@@ATL@@QBEPADXZ
_TEXT	SEGMENT
_this$ = -4						; size = 4
??B?$CW2AEX@$0IA@@ATL@@QBEPADXZ PROC NEAR		; ATL::CW2AEX<128>::operator char *, COMDAT
; _this$ = ecx

; 436  : 	{

  00000	55		 push	 ebp
  00001	8b ec		 mov	 ebp, esp
  00003	51		 push	 ecx
  00004	89 4d fc	 mov	 DWORD PTR _this$[ebp], ecx

; 437  : 		return( m_psz );

  00007	8b 45 fc	 mov	 eax, DWORD PTR _this$[ebp]
  0000a	8b 00		 mov	 eax, DWORD PTR [eax]

; 438  : 	}

  0000c	8b e5		 mov	 esp, ebp
  0000e	5d		 pop	 ebp
  0000f	c3		 ret	 0
??B?$CW2AEX@$0IA@@ATL@@QBEPADXZ ENDP			; ATL::CW2AEX<128>::operator char *
_TEXT	ENDS
PUBLIC	?AllocateHeap@?$CTempBuffer@D$0IA@VCCRTAllocator@ATL@@@ATL@@AAEXI@Z ; ATL::CTempBuffer<char,128,ATL::CCRTAllocator>::AllocateHeap
; Function compile flags: /Odt
; File d:\program files (x86)\microsoft visual studio .net 2003\vc7\atlmfc\include\atlalloc.h
;	COMDAT ?AllocateBytes@?$CTempBuffer@D$0IA@VCCRTAllocator@ATL@@@ATL@@QAEPADI@Z
_TEXT	SEGMENT
_this$ = -4						; size = 4
_nBytes$ = 8						; size = 4
?AllocateBytes@?$CTempBuffer@D$0IA@VCCRTAllocator@ATL@@@ATL@@QAEPADI@Z PROC NEAR ; ATL::CTempBuffer<char,128,ATL::CCRTAllocator>::AllocateBytes, COMDAT
; _this$ = ecx

; 276  : 	{

  00000	55		 push	 ebp
  00001	8b ec		 mov	 ebp, esp
  00003	51		 push	 ecx
  00004	89 4d fc	 mov	 DWORD PTR _this$[ebp], ecx

; 277  : 		ATLASSERT( m_p == NULL );
; 278  : 		if( nBytes > t_nFixedBytes )

  00007	81 7d 08 80 00
	00 00		 cmp	 DWORD PTR _nBytes$[ebp], 128 ; 00000080H
  0000e	76 0e		 jbe	 SHORT $L193612

; 279  : 		{
; 280  : 			AllocateHeap( nBytes );

  00010	8b 45 08	 mov	 eax, DWORD PTR _nBytes$[ebp]
  00013	50		 push	 eax
  00014	8b 4d fc	 mov	 ecx, DWORD PTR _this$[ebp]
  00017	e8 00 00 00 00	 call	 ?AllocateHeap@?$CTempBuffer@D$0IA@VCCRTAllocator@ATL@@@ATL@@AAEXI@Z ; ATL::CTempBuffer<char,128,ATL::CCRTAllocator>::AllocateHeap

; 281  : 		}
; 282  : 		else

  0001c	eb 0b		 jmp	 SHORT $L193613
$L193612:

; 283  : 		{
; 284  : 			m_p = reinterpret_cast< T* >( m_abFixedBuffer );

  0001e	8b 4d fc	 mov	 ecx, DWORD PTR _this$[ebp]
  00021	83 c1 04	 add	 ecx, 4
  00024	8b 55 fc	 mov	 edx, DWORD PTR _this$[ebp]
  00027	89 0a		 mov	 DWORD PTR [edx], ecx
$L193613:

; 285  : 		}
; 286  : 
; 287  : 		return( m_p );

  00029	8b 45 fc	 mov	 eax, DWORD PTR _this$[ebp]
  0002c	8b 00		 mov	 eax, DWORD PTR [eax]

; 288  : 	}

  0002e	8b e5		 mov	 esp, ebp
  00030	5d		 pop	 ebp
  00031	c2 04 00	 ret	 4
?AllocateBytes@?$CTempBuffer@D$0IA@VCCRTAllocator@ATL@@@ATL@@QAEPADI@Z ENDP ; ATL::CTempBuffer<char,128,ATL::CCRTAllocator>::AllocateBytes
; Function compile flags: /Odt
_TEXT	ENDS
;	COMDAT ?FreeHeap@?$CTempBuffer@D$0IA@VCCRTAllocator@ATL@@@ATL@@AAEXXZ
_TEXT	SEGMENT
_this$ = -4						; size = 4
?FreeHeap@?$CTempBuffer@D$0IA@VCCRTAllocator@ATL@@@ATL@@AAEXXZ PROC NEAR ; ATL::CTempBuffer<char,128,ATL::CCRTAllocator>::FreeHeap, COMDAT
; _this$ = ecx

; 312  : 	{

  00000	55		 push	 ebp
  00001	8b ec		 mov	 ebp, esp
  00003	51		 push	 ecx
  00004	89 4d fc	 mov	 DWORD PTR _this$[ebp], ecx

; 313  : 		Allocator::Free( m_p );

  00007	8b 45 fc	 mov	 eax, DWORD PTR _this$[ebp]
  0000a	8b 08		 mov	 ecx, DWORD PTR [eax]
  0000c	51		 push	 ecx
  0000d	e8 00 00 00 00	 call	 ?Free@CCRTAllocator@ATL@@SAXPAX@Z ; ATL::CCRTAllocator::Free
  00012	83 c4 04	 add	 esp, 4

; 314  : 	}

  00015	8b e5		 mov	 esp, ebp
  00017	5d		 pop	 ebp
  00018	c3		 ret	 0
?FreeHeap@?$CTempBuffer@D$0IA@VCCRTAllocator@ATL@@@ATL@@AAEXXZ ENDP ; ATL::CTempBuffer<char,128,ATL::CCRTAllocator>::FreeHeap
_TEXT	ENDS
PUBLIC	?AtlThrowLastWin32@ATL@@YGXXZ			; ATL::AtlThrowLastWin32
; Function compile flags: /Odt
; File d:\program files (x86)\microsoft visual studio .net 2003\vc7\atlmfc\include\atlconv.h
;	COMDAT ?Init@?$CW2AEX@$0IA@@ATL@@AAEXPB_WI@Z
_TEXT	SEGMENT
_this$ = -12						; size = 4
_nLengthW$ = -8						; size = 4
_nLengthA$ = -4						; size = 4
_psz$ = 8						; size = 4
_nCodePage$ = 12					; size = 4
?Init@?$CW2AEX@$0IA@@ATL@@AAEXPB_WI@Z PROC NEAR		; ATL::CW2AEX<128>::Init, COMDAT
; _this$ = ecx

; 442  : 	{

  00000	55		 push	 ebp
  00001	8b ec		 mov	 ebp, esp
  00003	83 ec 0c	 sub	 esp, 12			; 0000000cH
  00006	89 4d f4	 mov	 DWORD PTR _this$[ebp], ecx

; 443  : 		if (psz == NULL)

  00009	83 7d 08 00	 cmp	 DWORD PTR _psz$[ebp], 0
  0000d	75 0b		 jne	 SHORT $L193619

; 444  : 		{
; 445  : 			m_psz = NULL;

  0000f	8b 45 f4	 mov	 eax, DWORD PTR _this$[ebp]
  00012	c7 00 00 00 00
	00		 mov	 DWORD PTR [eax], 0

; 446  : 			return;

  00018	eb 70		 jmp	 SHORT $L200802
$L193619:

; 447  : 		}
; 448  : 		int nLengthW = lstrlenW( psz )+1;

  0001a	8b 4d 08	 mov	 ecx, DWORD PTR _psz$[ebp]
  0001d	51		 push	 ecx
  0001e	ff 15 00 00 00
	00		 call	 DWORD PTR __imp__lstrlenW@4
  00024	83 c0 01	 add	 eax, 1
  00027	89 45 f8	 mov	 DWORD PTR _nLengthW$[ebp], eax

; 449  : 		int nLengthA = nLengthW*2;

  0002a	8b 55 f8	 mov	 edx, DWORD PTR _nLengthW$[ebp]
  0002d	d1 e2		 shl	 edx, 1
  0002f	89 55 fc	 mov	 DWORD PTR _nLengthA$[ebp], edx

; 450  : 
; 451  : 		if( nLengthA > t_nBufferLength )

  00032	81 7d fc 80 00
	00 00		 cmp	 DWORD PTR _nLengthA$[ebp], 128 ; 00000080H
  00039	7e 24		 jle	 SHORT $L193622

; 452  : 		{
; 453  : 			m_psz = static_cast< LPSTR >( malloc( nLengthA*sizeof( char ) ) );

  0003b	8b 45 fc	 mov	 eax, DWORD PTR _nLengthA$[ebp]
  0003e	50		 push	 eax
  0003f	ff 15 00 00 00
	00		 call	 DWORD PTR __imp__malloc
  00045	83 c4 04	 add	 esp, 4
  00048	8b 4d f4	 mov	 ecx, DWORD PTR _this$[ebp]
  0004b	89 01		 mov	 DWORD PTR [ecx], eax

; 454  : 			if (m_psz == NULL)

  0004d	8b 55 f4	 mov	 edx, DWORD PTR _this$[ebp]
  00050	83 3a 00	 cmp	 DWORD PTR [edx], 0
  00053	75 0a		 jne	 SHORT $L193622

; 455  : 			{
; 456  : 				AtlThrow( E_OUTOFMEMORY );

  00055	68 0e 00 07 80	 push	 -2147024882		; 8007000eH
  0005a	e8 00 00 00 00	 call	 ?AtlThrow@ATL@@YGXJ@Z	; ATL::AtlThrow
$L193622:

; 457  : 			}
; 458  : 		}
; 459  : 
; 460  : 		if (::WideCharToMultiByte( nCodePage, 0, psz, nLengthW, m_psz, nLengthA, NULL, NULL ) == 0)

  0005f	6a 00		 push	 0
  00061	6a 00		 push	 0
  00063	8b 45 fc	 mov	 eax, DWORD PTR _nLengthA$[ebp]
  00066	50		 push	 eax
  00067	8b 4d f4	 mov	 ecx, DWORD PTR _this$[ebp]
  0006a	8b 11		 mov	 edx, DWORD PTR [ecx]
  0006c	52		 push	 edx
  0006d	8b 45 f8	 mov	 eax, DWORD PTR _nLengthW$[ebp]
  00070	50		 push	 eax
  00071	8b 4d 08	 mov	 ecx, DWORD PTR _psz$[ebp]
  00074	51		 push	 ecx
  00075	6a 00		 push	 0
  00077	8b 55 0c	 mov	 edx, DWORD PTR _nCodePage$[ebp]
  0007a	52		 push	 edx
  0007b	ff 15 00 00 00
	00		 call	 DWORD PTR __imp__WideCharToMultiByte@32
  00081	85 c0		 test	 eax, eax
  00083	75 05		 jne	 SHORT $L200802

; 461  : 		{
; 462  : 			AtlThrowLastWin32();

  00085	e8 00 00 00 00	 call	 ?AtlThrowLastWin32@ATL@@YGXXZ ; ATL::AtlThrowLastWin32
$L200802:

; 463  : 		}
; 464  : 	}

  0008a	8b e5		 mov	 esp, ebp
  0008c	5d		 pop	 ebp
  0008d	c2 08 00	 ret	 8
?Init@?$CW2AEX@$0IA@@ATL@@AAEXPB_WI@Z ENDP		; ATL::CW2AEX<128>::Init
; Function compile flags: /Odt
; File d:\program files (x86)\microsoft visual studio .net 2003\vc7\atlmfc\include\atlexcept.h
_TEXT	ENDS
;	COMDAT ?AtlThrowLastWin32@ATL@@YGXXZ
_TEXT	SEGMENT
tv69 = -8						; size = 4
_dwError$ = -4						; size = 4
?AtlThrowLastWin32@ATL@@YGXXZ PROC NEAR			; ATL::AtlThrowLastWin32, COMDAT

; 80   : {

  00000	55		 push	 ebp
  00001	8b ec		 mov	 ebp, esp
  00003	83 ec 08	 sub	 esp, 8

; 81   : 	DWORD dwError = ::GetLastError();

  00006	ff 15 00 00 00
	00		 call	 DWORD PTR __imp__GetLastError@0
  0000c	89 45 fc	 mov	 DWORD PTR _dwError$[ebp], eax

; 82   : 	AtlThrow( HRESULT_FROM_WIN32( dwError ) );

  0000f	83 7d fc 00	 cmp	 DWORD PTR _dwError$[ebp], 0
  00013	7f 08		 jg	 SHORT $L200805
  00015	8b 45 fc	 mov	 eax, DWORD PTR _dwError$[ebp]
  00018	89 45 f8	 mov	 DWORD PTR tv69[ebp], eax
  0001b	eb 18		 jmp	 SHORT $L200806
$L200805:
  0001d	8b 4d fc	 mov	 ecx, DWORD PTR _dwError$[ebp]
  00020	81 e1 ff ff 00
	00		 and	 ecx, 65535		; 0000ffffH
  00026	81 c9 00 00 07
	00		 or	 ecx, 458752		; 00070000H
  0002c	81 c9 00 00 00
	80		 or	 ecx, -2147483648	; 80000000H
  00032	89 4d f8	 mov	 DWORD PTR tv69[ebp], ecx
$L200806:
  00035	8b 55 f8	 mov	 edx, DWORD PTR tv69[ebp]
  00038	52		 push	 edx
  00039	e8 00 00 00 00	 call	 ?AtlThrow@ATL@@YGXJ@Z	; ATL::AtlThrow
$L200804:

; 83   : }

  0003e	8b e5		 mov	 esp, ebp
  00040	5d		 pop	 ebp
  00041	c3		 ret	 0
?AtlThrowLastWin32@ATL@@YGXXZ ENDP			; ATL::AtlThrowLastWin32
; Function compile flags: /Odt
; File d:\program files (x86)\microsoft visual studio .net 2003\vc7\atlmfc\include\atlalloc.h
_TEXT	ENDS
;	COMDAT ?GetData@CAtlSafeAllocBufferNode@?$CAtlSafeAllocBufferManager@VCCRTAllocator@ATL@@@_ATL_SAFE_ALLOCA_IMPL@ATL@@QAEPAXXZ
_TEXT	SEGMENT
_this$ = -4						; size = 4
?GetData@CAtlSafeAllocBufferNode@?$CAtlSafeAllocBufferManager@VCCRTAllocator@ATL@@@_ATL_SAFE_ALLOCA_IMPL@ATL@@QAEPAXXZ PROC NEAR ; ATL::_ATL_SAFE_ALLOCA_IMPL::CAtlSafeAllocBufferManager<ATL::CCRTAllocator>::CAtlSafeAllocBufferNode::GetData, COMDAT
; _this$ = ecx

; 365  : 		{

  00000	55		 push	 ebp
  00001	8b ec		 mov	 ebp, esp
  00003	51		 push	 ecx
  00004	89 4d fc	 mov	 DWORD PTR _this$[ebp], ecx

; 366  : 			return (this + 1);

  00007	8b 45 fc	 mov	 eax, DWORD PTR _this$[ebp]
  0000a	83 c0 08	 add	 eax, 8

; 367  : 		}

  0000d	8b e5		 mov	 esp, ebp
  0000f	5d		 pop	 ebp
  00010	c3		 ret	 0
?GetData@CAtlSafeAllocBufferNode@?$CAtlSafeAllocBufferManager@VCCRTAllocator@ATL@@@_ATL_SAFE_ALLOCA_IMPL@ATL@@QAEPAXXZ ENDP ; ATL::_ATL_SAFE_ALLOCA_IMPL::CAtlSafeAllocBufferManager<ATL::CCRTAllocator>::CAtlSafeAllocBufferNode::GetData
; Function compile flags: /Odt
_TEXT	ENDS
;	COMDAT ?AllocateHeap@?$CTempBuffer@D$0IA@VCCRTAllocator@ATL@@@ATL@@AAEXI@Z
_TEXT	SEGMENT
_this$ = -8						; size = 4
_p$ = -4						; size = 4
_nBytes$ = 8						; size = 4
?AllocateHeap@?$CTempBuffer@D$0IA@VCCRTAllocator@ATL@@@ATL@@AAEXI@Z PROC NEAR ; ATL::CTempBuffer<char,128,ATL::CCRTAllocator>::AllocateHeap, COMDAT
; _this$ = ecx

; 292  : 	{

  00000	55		 push	 ebp
  00001	8b ec		 mov	 ebp, esp
  00003	83 ec 08	 sub	 esp, 8
  00006	89 4d f8	 mov	 DWORD PTR _this$[ebp], ecx

; 293  : 		T* p = static_cast< T* >( Allocator::Allocate( nBytes ) );

  00009	8b 45 08	 mov	 eax, DWORD PTR _nBytes$[ebp]
  0000c	50		 push	 eax
  0000d	e8 00 00 00 00	 call	 ?Allocate@CCRTAllocator@ATL@@SAPAXI@Z ; ATL::CCRTAllocator::Allocate
  00012	83 c4 04	 add	 esp, 4
  00015	89 45 fc	 mov	 DWORD PTR _p$[ebp], eax

; 294  : 		if( p == NULL )

  00018	83 7d fc 00	 cmp	 DWORD PTR _p$[ebp], 0
  0001c	75 0a		 jne	 SHORT $L194985

; 295  : 		{
; 296  : 			AtlThrow( E_OUTOFMEMORY );

  0001e	68 0e 00 07 80	 push	 -2147024882		; 8007000eH
  00023	e8 00 00 00 00	 call	 ?AtlThrow@ATL@@YGXJ@Z	; ATL::AtlThrow
$L194985:

; 297  : 		}
; 298  : 		m_p = p;

  00028	8b 4d f8	 mov	 ecx, DWORD PTR _this$[ebp]
  0002b	8b 55 fc	 mov	 edx, DWORD PTR _p$[ebp]
  0002e	89 11		 mov	 DWORD PTR [ecx], edx
$L200810:

; 299  : 	}

  00030	8b e5		 mov	 esp, ebp
  00032	5d		 pop	 ebp
  00033	c2 04 00	 ret	 4
?AllocateHeap@?$CTempBuffer@D$0IA@VCCRTAllocator@ATL@@@ATL@@AAEXI@Z ENDP ; ATL::CTempBuffer<char,128,ATL::CCRTAllocator>::AllocateHeap
_TEXT	ENDS
EXTRN	_atexit:NEAR
CRT$XCU	SEGMENT
_$S7	DD	FLAT:_$E5
; Function compile flags: /Odt
; File d:\boxgit\playbox\playbox\dev\prj\playbox\playbox.cpp
CRT$XCU	ENDS
;	COMDAT _$E5
text$yc	SEGMENT
_$E5	PROC NEAR					; COMDAT

; 41   : CPlayBoxApp theApp;

  00000	55		 push	 ebp
  00001	8b ec		 mov	 ebp, esp
  00003	b9 00 00 00 00	 mov	 ecx, OFFSET FLAT:?theApp@@3VCPlayBoxApp@@A
  00008	e8 00 00 00 00	 call	 ??0CPlayBoxApp@@QAE@XZ	; CPlayBoxApp::CPlayBoxApp
  0000d	68 00 00 00 00	 push	 OFFSET FLAT:_$E6
  00012	e8 00 00 00 00	 call	 _atexit
  00017	83 c4 04	 add	 esp, 4
  0001a	5d		 pop	 ebp
  0001b	c3		 ret	 0
_$E5	ENDP
; Function compile flags: /Odt
text$yc	ENDS
;	COMDAT _$E6
text$yd	SEGMENT
_$E6	PROC NEAR					; COMDAT
  00000	55		 push	 ebp
  00001	8b ec		 mov	 ebp, esp
  00003	b9 00 00 00 00	 mov	 ecx, OFFSET FLAT:?theApp@@3VCPlayBoxApp@@A
  00008	e8 00 00 00 00	 call	 ??1CPlayBoxApp@@UAE@XZ
  0000d	5d		 pop	 ebp
  0000e	c3		 ret	 0
_$E6	ENDP
text$yd	ENDS
PUBLIC	?theApp@@3VCPlayBoxApp@@A			; theApp
_BSS	SEGMENT
?theApp@@3VCPlayBoxApp@@A DB 0b0H DUP (?)		; theApp
_BSS	ENDS
END
