; Listing generated by Microsoft (R) Optimizing Compiler Version 13.10.3077 

	TITLE	.\PlayBoxDlg.cpp
	.386P
include listing.inc
if @Version gt 510
.model FLAT
else
_TEXT	SEGMENT PARA USE32 PUBLIC 'CODE'
_TEXT	ENDS
_DATA	SEGMENT DWORD USE32 PUBLIC 'DATA'
_DATA	ENDS
CONST	SEGMENT DWORD USE32 PUBLIC 'CONST'
CONST	ENDS
_BSS	SEGMENT DWORD USE32 PUBLIC 'BSS'
_BSS	ENDS
$$SYMBOLS	SEGMENT BYTE USE32 'DEBSYM'
$$SYMBOLS	ENDS
$$TYPES	SEGMENT BYTE USE32 'DEBTYP'
$$TYPES	ENDS
_TLS	SEGMENT DWORD USE32 PUBLIC 'TLS'
_TLS	ENDS
rdata$r	SEGMENT DWORD USE32 PUBLIC 'CONST'
rdata$r	ENDS
xdata$x	SEGMENT DWORD USE32 PUBLIC 'CONST'
xdata$x	ENDS
text$AFX_COL1	SEGMENT PARA USE32 PUBLIC ''
text$AFX_COL1	ENDS
text$yc	SEGMENT PARA USE32 PUBLIC 'CODE'
text$yc	ENDS
CRT$XCA	SEGMENT DWORD USE32 PUBLIC 'DATA'
CRT$XCA	ENDS
CRT$XCU	SEGMENT DWORD USE32 PUBLIC 'DATA'
CRT$XCU	ENDS
CRT$XCL	SEGMENT DWORD USE32 PUBLIC 'DATA'
CRT$XCL	ENDS
CRT$XCC	SEGMENT DWORD USE32 PUBLIC 'DATA'
CRT$XCC	ENDS
CRT$XCZ	SEGMENT DWORD USE32 PUBLIC 'DATA'
CRT$XCZ	ENDS
text$yd	SEGMENT PARA USE32 PUBLIC 'CODE'
text$yd	ENDS
ATL$__m	SEGMENT DWORD USE32 PUBLIC ''
ATL$__m	ENDS
ATL$__z	SEGMENT DWORD USE32 PUBLIC ''
ATL$__z	ENDS
ATL$__a	SEGMENT DWORD USE32 PUBLIC ''
ATL$__a	ENDS
;	COMDAT ?ILayoutChangeOb_LayerChanged@ILayoutChangeObserver@@UAEXV?$basic_string@DU?$char_traits@D@std@@V?$allocator@D@2@@std@@00@Z
_TEXT	SEGMENT PARA USE32 PUBLIC 'CODE'
_TEXT	ENDS
;	COMDAT ?ILayoutChangeOb_PaneChanged@ILayoutChangeObserver@@UAEXV?$basic_string@DU?$char_traits@D@std@@V?$allocator@D@2@@std@@0@Z
_TEXT	SEGMENT PARA USE32 PUBLIC 'CODE'
_TEXT	ENDS
;	COMDAT ?ILayoutChangeOb_SkinChanged@ILayoutChangeObserver@@UAEXV?$basic_string@DU?$char_traits@D@std@@V?$allocator@D@2@@std@@0@Z
_TEXT	SEGMENT PARA USE32 PUBLIC 'CODE'
_TEXT	ENDS
;	COMDAT ?ILayoutChangeOb_ColorChanged@ILayoutChangeObserver@@UAEXXZ
_TEXT	SEGMENT PARA USE32 PUBLIC 'CODE'
_TEXT	ENDS
;	COMDAT ?ILayoutChangeOb_ColorChanging@ILayoutChangeObserver@@UAEXXZ
_TEXT	SEGMENT PARA USE32 PUBLIC 'CODE'
_TEXT	ENDS
;	COMDAT ?ILayoutChangeOb_UpdateLayout@ILayoutChangeObserver@@UAEXPAUHWND__@@@Z
_TEXT	SEGMENT PARA USE32 PUBLIC 'CODE'
_TEXT	ENDS
;	COMDAT ?ILayoutChangeOb_InitFinished@ILayoutChangeObserver@@UAEXXZ
_TEXT	SEGMENT PARA USE32 PUBLIC 'CODE'
_TEXT	ENDS
;	COMDAT ?ILayoutChangeOb_InitBegin@ILayoutChangeObserver@@UAEXXZ
_TEXT	SEGMENT PARA USE32 PUBLIC 'CODE'
_TEXT	ENDS
;	COMDAT ?IPanelChangeOb_WindowMax@IPanelChangeObserver@@UAEXXZ
_TEXT	SEGMENT PARA USE32 PUBLIC 'CODE'
_TEXT	ENDS
;	COMDAT ?IPanelChangeOb_WindowMin@IPanelChangeObserver@@UAEXXZ
_TEXT	SEGMENT PARA USE32 PUBLIC 'CODE'
_TEXT	ENDS
;	COMDAT ?IPanelChangeOb_WindowRestore@IPanelChangeObserver@@UAEXXZ
_TEXT	SEGMENT PARA USE32 PUBLIC 'CODE'
_TEXT	ENDS
;	COMDAT ?IPanelChangeOb_WindowClose@IPanelChangeObserver@@UAEXXZ
_TEXT	SEGMENT PARA USE32 PUBLIC 'CODE'
_TEXT	ENDS
;	COMDAT ?IPanelChangeOb_ToFullScreen@IPanelChangeObserver@@UAEXPAVCWnd@@@Z
_TEXT	SEGMENT PARA USE32 PUBLIC 'CODE'
_TEXT	ENDS
;	COMDAT ?IPanelChangeOb_ExitFullScreen@IPanelChangeObserver@@UAEXPAVCWnd@@@Z
_TEXT	SEGMENT PARA USE32 PUBLIC 'CODE'
_TEXT	ENDS
;	COMDAT ??1CAtlStringMgr@ATL@@UAE@XZ
_TEXT	SEGMENT PARA USE32 PUBLIC 'CODE'
_TEXT	ENDS
;	COMDAT ?Allocate@CAtlStringMgr@ATL@@UAEPAUCStringData@2@HH@Z
_TEXT	SEGMENT PARA USE32 PUBLIC 'CODE'
_TEXT	ENDS
;	COMDAT ?Free@CAtlStringMgr@ATL@@UAEXPAUCStringData@2@@Z
_TEXT	SEGMENT PARA USE32 PUBLIC 'CODE'
_TEXT	ENDS
;	COMDAT ?Reallocate@CAtlStringMgr@ATL@@UAEPAUCStringData@2@PAU32@HH@Z
_TEXT	SEGMENT PARA USE32 PUBLIC 'CODE'
_TEXT	ENDS
;	COMDAT ?GetNilString@CAtlStringMgr@ATL@@UAEPAUCStringData@2@XZ
_TEXT	SEGMENT PARA USE32 PUBLIC 'CODE'
_TEXT	ENDS
;	COMDAT ?Clone@CAtlStringMgr@ATL@@UAEPAUIAtlStringMgr@2@XZ
_TEXT	SEGMENT PARA USE32 PUBLIC 'CODE'
_TEXT	ENDS
;	COMDAT ??_GCAtlStringMgr@ATL@@UAEPAXI@Z
_TEXT	SEGMENT PARA USE32 PUBLIC 'CODE'
_TEXT	ENDS
;	COMDAT ?CompareStringW@?$ChTraitsOS@_W@ATL@@KGHKKPB_WH0H@Z
_TEXT	SEGMENT PARA USE32 PUBLIC 'CODE'
_TEXT	ENDS
;	COMDAT ?GetStringTypeExW@?$ChTraitsOS@_W@ATL@@KGHKKPB_WHPAG@Z
_TEXT	SEGMENT PARA USE32 PUBLIC 'CODE'
_TEXT	ENDS
;	COMDAT ?lstrcmpiW@?$ChTraitsOS@_W@ATL@@KGHPB_W0@Z
_TEXT	SEGMENT PARA USE32 PUBLIC 'CODE'
_TEXT	ENDS
;	COMDAT ?CharLowerW@?$ChTraitsOS@_W@ATL@@KGPA_WPA_W@Z
_TEXT	SEGMENT PARA USE32 PUBLIC 'CODE'
_TEXT	ENDS
;	COMDAT ?CharUpperW@?$ChTraitsOS@_W@ATL@@KGPA_WPA_W@Z
_TEXT	SEGMENT PARA USE32 PUBLIC 'CODE'
_TEXT	ENDS
;	COMDAT ?strchr@?$ChTraitsOS@_W@ATL@@SAPB_WPB_W_W@Z
_TEXT	SEGMENT PARA USE32 PUBLIC 'CODE'
_TEXT	ENDS
;	COMDAT ?strrchr@?$ChTraitsOS@_W@ATL@@SAPB_WPB_W_W@Z
_TEXT	SEGMENT PARA USE32 PUBLIC 'CODE'
_TEXT	ENDS
;	COMDAT ?_strrev@?$ChTraitsOS@_W@ATL@@SAPA_WPA_W@Z
_TEXT	SEGMENT PARA USE32 PUBLIC 'CODE'
_TEXT	ENDS
;	COMDAT ?strstr@?$ChTraitsOS@_W@ATL@@SAPB_WPB_W0@Z
_TEXT	SEGMENT PARA USE32 PUBLIC 'CODE'
_TEXT	ENDS
;	COMDAT ?strspn@?$ChTraitsOS@_W@ATL@@SAHPB_W0@Z
_TEXT	SEGMENT PARA USE32 PUBLIC 'CODE'
_TEXT	ENDS
;	COMDAT ?strcspn@?$ChTraitsOS@_W@ATL@@SAHPB_W0@Z
_TEXT	SEGMENT PARA USE32 PUBLIC 'CODE'
_TEXT	ENDS
;	COMDAT ?strpbrk@?$ChTraitsOS@_W@ATL@@SAPB_WPB_W0@Z
_TEXT	SEGMENT PARA USE32 PUBLIC 'CODE'
_TEXT	ENDS
;	COMDAT ?StringFindString@?$ChTraitsOS@_W@ATL@@SAPB_WPB_W0@Z
_TEXT	SEGMENT PARA USE32 PUBLIC 'CODE'
_TEXT	ENDS
;	COMDAT _$E5
text$yc	SEGMENT PARA USE32 PUBLIC 'CODE'
text$yc	ENDS
;	COMDAT _$E7
text$yc	SEGMENT PARA USE32 PUBLIC 'CODE'
text$yc	ENDS
;	COMDAT _$E9
text$yc	SEGMENT PARA USE32 PUBLIC 'CODE'
text$yc	ENDS
;	COMDAT ?Unlock@CSyncObject@@UAEHJPAJ@Z
_TEXT	SEGMENT PARA USE32 PUBLIC 'CODE'
_TEXT	ENDS
;	COMDAT ?Init@CCriticalSection@@AAEHXZ
_TEXT	SEGMENT PARA USE32 PUBLIC 'CODE'
_TEXT	ENDS
;	COMDAT ??_GCCriticalSection@@UAEPAXI@Z
_TEXT	SEGMENT PARA USE32 PUBLIC 'CODE'
_TEXT	ENDS
;	COMDAT ??1CCriticalSection@@UAE@XZ
_TEXT	SEGMENT PARA USE32 PUBLIC 'CODE'
_TEXT	ENDS
;	COMDAT ?Lock@CCriticalSection@@QAEHXZ
_TEXT	SEGMENT PARA USE32 PUBLIC 'CODE'
_TEXT	ENDS
;	COMDAT ?Lock@CCriticalSection@@UAEHK@Z
_TEXT	SEGMENT PARA USE32 PUBLIC 'CODE'
_TEXT	ENDS
;	COMDAT ?Unlock@CCriticalSection@@UAEHXZ
_TEXT	SEGMENT PARA USE32 PUBLIC 'CODE'
_TEXT	ENDS
;	COMDAT ??1HTTPObserver@@UAE@XZ
_TEXT	SEGMENT PARA USE32 PUBLIC 'CODE'
_TEXT	ENDS
;	COMDAT ?HTTPOb_DownStart@HTTPObserver@@UAEXPBD0I@Z
_TEXT	SEGMENT PARA USE32 PUBLIC 'CODE'
_TEXT	ENDS
;	COMDAT ?HTTPOb_DownFinish@HTTPObserver@@UAEXPBD@Z
_TEXT	SEGMENT PARA USE32 PUBLIC 'CODE'
_TEXT	ENDS
;	COMDAT ?HTTPOb_DownFailed@HTTPObserver@@UAEXPBDW4HTTP_DOWN_FAILED_REASON@@@Z
_TEXT	SEGMENT PARA USE32 PUBLIC 'CODE'
_TEXT	ENDS
;	COMDAT ?HTTPOb_DownProgress@HTTPObserver@@UAEXPBDII@Z
_TEXT	SEGMENT PARA USE32 PUBLIC 'CODE'
_TEXT	ENDS
;	COMDAT ?HTTPOb_DownloadPause@HTTPObserver@@UAEXPBD@Z
_TEXT	SEGMENT PARA USE32 PUBLIC 'CODE'
_TEXT	ENDS
;	COMDAT ??_GHTTPObserver@@UAEPAXI@Z
_TEXT	SEGMENT PARA USE32 PUBLIC 'CODE'
_TEXT	ENDS
;	COMDAT ??1DIBINFO@@UAE@XZ
_TEXT	SEGMENT PARA USE32 PUBLIC 'CODE'
_TEXT	ENDS
;	COMDAT ??_GDIBINFO@@UAEPAXI@Z
_TEXT	SEGMENT PARA USE32 PUBLIC 'CODE'
_TEXT	ENDS
;	COMDAT ??1CGdiPlusBitmap@@UAE@XZ
_TEXT	SEGMENT PARA USE32 PUBLIC 'CODE'
_TEXT	ENDS
;	COMDAT ?Empty@CGdiPlusBitmap@@QAEXXZ
_TEXT	SEGMENT PARA USE32 PUBLIC 'CODE'
_TEXT	ENDS
;	COMDAT ?Load@CGdiPlusBitmap@@QAE_NPB_W@Z
_TEXT	SEGMENT PARA USE32 PUBLIC 'CODE'
_TEXT	ENDS
;	COMDAT ??_GCGdiPlusBitmap@@UAEPAXI@Z
_TEXT	SEGMENT PARA USE32 PUBLIC 'CODE'
_TEXT	ENDS
;	COMDAT ??1IData@@MAE@XZ
_TEXT	SEGMENT PARA USE32 PUBLIC 'CODE'
_TEXT	ENDS
;	COMDAT ?DataAppStart@IData@@UAEXXZ
_TEXT	SEGMENT PARA USE32 PUBLIC 'CODE'
_TEXT	ENDS
;	COMDAT ?DataAppExit@IData@@UAEXXZ
_TEXT	SEGMENT PARA USE32 PUBLIC 'CODE'
_TEXT	ENDS
;	COMDAT ??_GIData@@MAEPAXI@Z
_TEXT	SEGMENT PARA USE32 PUBLIC 'CODE'
_TEXT	ENDS
;	COMDAT ??1CGdiPlusBitmap@CSkinButton@@UAE@XZ
_TEXT	SEGMENT PARA USE32 PUBLIC 'CODE'
_TEXT	ENDS
;	COMDAT ?Empty@CGdiPlusBitmap@CSkinButton@@QAEXXZ
_TEXT	SEGMENT PARA USE32 PUBLIC 'CODE'
_TEXT	ENDS
;	COMDAT ?Load@CGdiPlusBitmap@CSkinButton@@QAE_NPB_W@Z
_TEXT	SEGMENT PARA USE32 PUBLIC 'CODE'
_TEXT	ENDS
;	COMDAT ??_GCGdiPlusBitmap@CSkinButton@@UAEPAXI@Z
_TEXT	SEGMENT PARA USE32 PUBLIC 'CODE'
_TEXT	ENDS
;	COMDAT ??1P2PObserver@@UAE@XZ
_TEXT	SEGMENT PARA USE32 PUBLIC 'CODE'
_TEXT	ENDS
;	COMDAT ?P2POb_DownStart@P2PObserver@@UAEXABV?$basic_string@DU?$char_traits@D@std@@V?$allocator@D@2@@std@@PBDI@Z
_TEXT	SEGMENT PARA USE32 PUBLIC 'CODE'
_TEXT	ENDS
;	COMDAT ?P2POb_DownFinish@P2PObserver@@UAEXABV?$basic_string@DU?$char_traits@D@std@@V?$allocator@D@2@@std@@@Z
_TEXT	SEGMENT PARA USE32 PUBLIC 'CODE'
_TEXT	ENDS
;	COMDAT ?P2POb_DownFailed@P2PObserver@@UAEXABV?$basic_string@DU?$char_traits@D@std@@V?$allocator@D@2@@std@@W4P2P_DOWN_FAILED_REASON@@@Z
_TEXT	SEGMENT PARA USE32 PUBLIC 'CODE'
_TEXT	ENDS
;	COMDAT ?P2POb_DownProgress@P2PObserver@@UAEXABV?$basic_string@DU?$char_traits@D@std@@V?$allocator@D@2@@std@@III@Z
_TEXT	SEGMENT PARA USE32 PUBLIC 'CODE'
_TEXT	ENDS
;	COMDAT ?P2POb_DownPause@P2PObserver@@UAEXABV?$basic_string@DU?$char_traits@D@std@@V?$allocator@D@2@@std@@@Z
_TEXT	SEGMENT PARA USE32 PUBLIC 'CODE'
_TEXT	ENDS
;	COMDAT ?P2POb_SigChange@P2PObserver@@UAEXABV?$basic_string@DU?$char_traits@D@std@@V?$allocator@D@2@@std@@0PBD@Z
_TEXT	SEGMENT PARA USE32 PUBLIC 'CODE'
_TEXT	ENDS
;	COMDAT ??_GP2PObserver@@UAEPAXI@Z
_TEXT	SEGMENT PARA USE32 PUBLIC 'CODE'
_TEXT	ENDS
;	COMDAT ?GetClsid@CShockwaveFlash@@QAEABU_GUID@@XZ
_TEXT	SEGMENT PARA USE32 PUBLIC 'CODE'
_TEXT	ENDS
;	COMDAT ?clear@OneLocalGame@@QAEXXZ
_TEXT	SEGMENT PARA USE32 PUBLIC 'CODE'
_TEXT	ENDS
;	COMDAT ??1IAdData@@MAE@XZ
_TEXT	SEGMENT PARA USE32 PUBLIC 'CODE'
_TEXT	ENDS
;	COMDAT ??_GIAdData@@MAEPAXI@Z
_TEXT	SEGMENT PARA USE32 PUBLIC 'CODE'
_TEXT	ENDS
;	COMDAT ??_GCPlayBoxDlg@@UAEPAXI@Z
_TEXT	SEGMENT PARA USE32 PUBLIC 'CODE'
_TEXT	ENDS
;	COMDAT ??0AfxUserConfig_Observer@@QAE@XZ
_TEXT	SEGMENT PARA USE32 PUBLIC 'CODE'
_TEXT	ENDS
;	COMDAT ??0ILayoutChangeObserver@@QAE@XZ
_TEXT	SEGMENT PARA USE32 PUBLIC 'CODE'
_TEXT	ENDS
;	COMDAT ??1ILayoutChangeObserver@@UAE@XZ
_TEXT	SEGMENT PARA USE32 PUBLIC 'CODE'
_TEXT	ENDS
;	COMDAT ??0IPanelChangeObserver@@QAE@XZ
_TEXT	SEGMENT PARA USE32 PUBLIC 'CODE'
_TEXT	ENDS
;	COMDAT ??1IPanelChangeObserver@@UAE@XZ
_TEXT	SEGMENT PARA USE32 PUBLIC 'CODE'
_TEXT	ENDS
;	COMDAT ??1CPlayBoxDlg@@UAE@XZ
_TEXT	SEGMENT PARA USE32 PUBLIC 'CODE'
_TEXT	ENDS
;	COMDAT ??_GILayoutChangeObserver@@UAEPAXI@Z
_TEXT	SEGMENT PARA USE32 PUBLIC 'CODE'
_TEXT	ENDS
;	COMDAT ??0IMessageObserver@@QAE@XZ
_TEXT	SEGMENT PARA USE32 PUBLIC 'CODE'
_TEXT	ENDS
;	COMDAT ??_GIPanelChangeObserver@@UAEPAXI@Z
_TEXT	SEGMENT PARA USE32 PUBLIC 'CODE'
_TEXT	ENDS
;	COMDAT ??_DCConfigDialog@@QAEXXZ
_TEXT	SEGMENT PARA USE32 PUBLIC 'CODE'
_TEXT	ENDS
;	COMDAT ??9ATL@@YA_NABV?$CStringT@DV?$StrTraitMFC_DLL@DV?$ChTraitsCRT@D@ATL@@@@@0@PBD@Z
_TEXT	SEGMENT PARA USE32 PUBLIC 'CODE'
_TEXT	ENDS
;	COMDAT ??B?$CComPtrBase@UITypeInfo2@@@ATL@@QBEPAUITypeInfo2@@XZ
_TEXT	SEGMENT PARA USE32 PUBLIC 'CODE'
_TEXT	ENDS
;	COMDAT ?equal@?$istreambuf_iterator@DU?$char_traits@D@std@@@std@@QBE_NABV12@@Z
_TEXT	SEGMENT PARA USE32 PUBLIC 'CODE'
_TEXT	ENDS
;	COMDAT ?equal@?$istreambuf_iterator@_WU?$char_traits@_W@std@@@std@@QBE_NABV12@@Z
_TEXT	SEGMENT PARA USE32 PUBLIC 'CODE'
_TEXT	ENDS
;	COMDAT ??0?$list@PAVIMessageObserver@@V?$allocator@PAVIMessageObserver@@@std@@@std@@QAE@XZ
_TEXT	SEGMENT PARA USE32 PUBLIC 'CODE'
_TEXT	ENDS
;	COMDAT ??1?$list@PAVIMessageObserver@@V?$allocator@PAVIMessageObserver@@@std@@@std@@QAE@XZ
_TEXT	SEGMENT PARA USE32 PUBLIC 'CODE'
_TEXT	ENDS
;	COMDAT ?begin@?$list@PAVIMessageObserver@@V?$allocator@PAVIMessageObserver@@@std@@@std@@QAE?AViterator@12@XZ
_TEXT	SEGMENT PARA USE32 PUBLIC 'CODE'
_TEXT	ENDS
;	COMDAT ?end@?$list@PAVIMessageObserver@@V?$allocator@PAVIMessageObserver@@@std@@@std@@QAE?AViterator@12@XZ
_TEXT	SEGMENT PARA USE32 PUBLIC 'CODE'
_TEXT	ENDS
;	COMDAT ??Diterator@?$list@PAVIMessageObserver@@V?$allocator@PAVIMessageObserver@@@std@@@std@@QBEAAPAVIMessageObserver@@XZ
_TEXT	SEGMENT PARA USE32 PUBLIC 'CODE'
_TEXT	ENDS
;	COMDAT ??Eiterator@?$list@PAVIMessageObserver@@V?$allocator@PAVIMessageObserver@@@std@@@std@@QAE?AV012@H@Z
_TEXT	SEGMENT PARA USE32 PUBLIC 'CODE'
_TEXT	ENDS
;	COMDAT ??9const_iterator@?$list@PAVIMessageObserver@@V?$allocator@PAVIMessageObserver@@@std@@@std@@QBE_NABV012@@Z
_TEXT	SEGMENT PARA USE32 PUBLIC 'CODE'
_TEXT	ENDS
;	COMDAT ?_Nextnode@?$list@PAVIMessageObserver@@V?$allocator@PAVIMessageObserver@@@std@@@std@@KAAAPAU_Node@?$_List_nod@PAVIMessageObserver@@V?$allocator@PAVIMessageObserver@@@std@@@2@PAU342@@Z
_TEXT	SEGMENT PARA USE32 PUBLIC 'CODE'
_TEXT	ENDS
;	COMDAT ?_Buynode@?$list@PAVIMessageObserver@@V?$allocator@PAVIMessageObserver@@@std@@@std@@IAEPAU_Node@?$_List_nod@PAVIMessageObserver@@V?$allocator@PAVIMessageObserver@@@std@@@2@XZ
_TEXT	SEGMENT PARA USE32 PUBLIC 'CODE'
_TEXT	ENDS
;	COMDAT ?_Tidy@?$list@PAVIMessageObserver@@V?$allocator@PAVIMessageObserver@@@std@@@std@@IAEXXZ
_TEXT	SEGMENT PARA USE32 PUBLIC 'CODE'
_TEXT	ENDS
;	COMDAT ??0?$_List_val@PAVIMessageObserver@@V?$allocator@PAVIMessageObserver@@@std@@@std@@IAE@V?$allocator@PAVIMessageObserver@@@1@@Z
_TEXT	SEGMENT PARA USE32 PUBLIC 'CODE'
_TEXT	ENDS
;	COMDAT ??0?$allocator@PAVIMessageObserver@@@std@@QAE@XZ
_TEXT	SEGMENT PARA USE32 PUBLIC 'CODE'
_TEXT	ENDS
;	COMDAT ??0iterator@?$list@PAVIMessageObserver@@V?$allocator@PAVIMessageObserver@@@std@@@std@@QAE@PAU_Node@?$_List_nod@PAVIMessageObserver@@V?$allocator@PAVIMessageObserver@@@std@@@2@@Z
_TEXT	SEGMENT PARA USE32 PUBLIC 'CODE'
_TEXT	ENDS
;	COMDAT ??Eiterator@?$list@PAVIMessageObserver@@V?$allocator@PAVIMessageObserver@@@std@@@std@@QAEAAV012@XZ
_TEXT	SEGMENT PARA USE32 PUBLIC 'CODE'
_TEXT	ENDS
;	COMDAT ??Dconst_iterator@?$list@PAVIMessageObserver@@V?$allocator@PAVIMessageObserver@@@std@@@std@@QBEABQAVIMessageObserver@@XZ
_TEXT	SEGMENT PARA USE32 PUBLIC 'CODE'
_TEXT	ENDS
;	COMDAT ??8const_iterator@?$list@PAVIMessageObserver@@V?$allocator@PAVIMessageObserver@@@std@@@std@@QBE_NABV012@@Z
_TEXT	SEGMENT PARA USE32 PUBLIC 'CODE'
_TEXT	ENDS
;	COMDAT ?StringCompare@?$ChTraitsCRT@D@ATL@@SAHPBD0@Z
_TEXT	SEGMENT PARA USE32 PUBLIC 'CODE'
_TEXT	ENDS
;	COMDAT ??0iterator@?$basic_string@DU?$char_traits@D@std@@V?$allocator@D@2@@std@@QAE@PAD@Z
_TEXT	SEGMENT PARA USE32 PUBLIC 'CODE'
_TEXT	ENDS
;	COMDAT ?_Prevnode@?$list@PAVIMessageObserver@@V?$allocator@PAVIMessageObserver@@@std@@@std@@KAAAPAU_Node@?$_List_nod@PAVIMessageObserver@@V?$allocator@PAVIMessageObserver@@@std@@@2@PAU342@@Z
_TEXT	SEGMENT PARA USE32 PUBLIC 'CODE'
_TEXT	ENDS
;	COMDAT ?_Myval@?$list@PAVIMessageObserver@@V?$allocator@PAVIMessageObserver@@@std@@@std@@KAAAPAVIMessageObserver@@PAU_Node@?$_List_nod@PAVIMessageObserver@@V?$allocator@PAVIMessageObserver@@@std@@@2@@Z
_TEXT	SEGMENT PARA USE32 PUBLIC 'CODE'
_TEXT	ENDS
;	COMDAT ?clear@?$list@PAVIMessageObserver@@V?$allocator@PAVIMessageObserver@@@std@@@std@@QAEXXZ
_TEXT	SEGMENT PARA USE32 PUBLIC 'CODE'
_TEXT	ENDS
;	COMDAT ??0?$_List_ptr@PAVIMessageObserver@@V?$allocator@PAVIMessageObserver@@@std@@@std@@IAE@V?$allocator@PAVIMessageObserver@@@1@@Z
_TEXT	SEGMENT PARA USE32 PUBLIC 'CODE'
_TEXT	ENDS
;	COMDAT ??0?$allocator@PAVIMessageObserver@@@std@@QAE@ABV01@@Z
_TEXT	SEGMENT PARA USE32 PUBLIC 'CODE'
_TEXT	ENDS
;	COMDAT ?deallocate@?$allocator@U_Node@?$_List_nod@PAVIMessageObserver@@V?$allocator@PAVIMessageObserver@@@std@@@std@@@std@@QAEXPAU_Node@?$_List_nod@PAVIMessageObserver@@V?$allocator@PAVIMessageObserver@@@std@@@2@I@Z
_TEXT	SEGMENT PARA USE32 PUBLIC 'CODE'
_TEXT	ENDS
;	COMDAT ?allocate@?$allocator@U_Node@?$_List_nod@PAVIMessageObserver@@V?$allocator@PAVIMessageObserver@@@std@@@std@@@std@@QAEPAU_Node@?$_List_nod@PAVIMessageObserver@@V?$allocator@PAVIMessageObserver@@@std@@@2@I@Z
_TEXT	SEGMENT PARA USE32 PUBLIC 'CODE'
_TEXT	ENDS
;	COMDAT ?construct@?$allocator@PAU_Node@?$_List_nod@PAVIMessageObserver@@V?$allocator@PAVIMessageObserver@@@std@@@std@@@std@@QAEXPAPAU_Node@?$_List_nod@PAVIMessageObserver@@V?$allocator@PAVIMessageObserver@@@std@@@2@ABQAU342@@Z
_TEXT	SEGMENT PARA USE32 PUBLIC 'CODE'
_TEXT	ENDS
;	COMDAT ?destroy@?$allocator@PAU_Node@?$_List_nod@PAVIMessageObserver@@V?$allocator@PAVIMessageObserver@@@std@@@std@@@std@@QAEXPAPAU_Node@?$_List_nod@PAVIMessageObserver@@V?$allocator@PAVIMessageObserver@@@std@@@2@@Z
_TEXT	SEGMENT PARA USE32 PUBLIC 'CODE'
_TEXT	ENDS
;	COMDAT ??0const_iterator@?$list@PAVIMessageObserver@@V?$allocator@PAVIMessageObserver@@@std@@@std@@QAE@PAU_Node@?$_List_nod@PAVIMessageObserver@@V?$allocator@PAVIMessageObserver@@@std@@@2@@Z
_TEXT	SEGMENT PARA USE32 PUBLIC 'CODE'
_TEXT	ENDS
;	COMDAT ??Econst_iterator@?$list@PAVIMessageObserver@@V?$allocator@PAVIMessageObserver@@@std@@@std@@QAEAAV012@XZ
_TEXT	SEGMENT PARA USE32 PUBLIC 'CODE'
_TEXT	ENDS
;	COMDAT ??0const_iterator@?$basic_string@DU?$char_traits@D@std@@V?$allocator@D@2@@std@@QAE@PBD@Z
_TEXT	SEGMENT PARA USE32 PUBLIC 'CODE'
_TEXT	ENDS
;	COMDAT ??Gconst_iterator@?$basic_string@DU?$char_traits@D@std@@V?$allocator@D@2@@std@@QBEHABV012@@Z
_TEXT	SEGMENT PARA USE32 PUBLIC 'CODE'
_TEXT	ENDS
;	COMDAT ??0?$_List_nod@PAVIMessageObserver@@V?$allocator@PAVIMessageObserver@@@std@@@std@@IAE@V?$allocator@PAVIMessageObserver@@@1@@Z
_TEXT	SEGMENT PARA USE32 PUBLIC 'CODE'
_TEXT	ENDS
;	COMDAT ?destroy@?$allocator@U_Node@?$_List_nod@PAVIMessageObserver@@V?$allocator@PAVIMessageObserver@@@std@@@std@@@std@@QAEXPAU_Node@?$_List_nod@PAVIMessageObserver@@V?$allocator@PAVIMessageObserver@@@std@@@2@@Z
_TEXT	SEGMENT PARA USE32 PUBLIC 'CODE'
_TEXT	ENDS
;	COMDAT ?Unlock@?$CComCritSecLock@VCComCriticalSection@ATL@@@ATL@@QAEXXZ
_TEXT	SEGMENT PARA USE32 PUBLIC 'CODE'
_TEXT	ENDS
;	COMDAT ??$AtlAlignUp@H@ATL@@YGHHK@Z
_TEXT	SEGMENT PARA USE32 PUBLIC 'CODE'
_TEXT	ENDS
;	COMDAT ??$_Maklocstr@D@std@@YAPADPBDPADABU_Cvtvec@@@Z
_TEXT	SEGMENT PARA USE32 PUBLIC 'CODE'
_TEXT	ENDS
;	COMDAT ??$?0PAVIMessageObserver@@@?$allocator@PAU_Node@?$_List_nod@PAVIMessageObserver@@V?$allocator@PAVIMessageObserver@@@std@@@std@@@std@@QAE@ABV?$allocator@PAVIMessageObserver@@@1@@Z
_TEXT	SEGMENT PARA USE32 PUBLIC 'CODE'
_TEXT	ENDS
;	COMDAT ??$_Allocate@U_Node@?$_List_nod@PAVIMessageObserver@@V?$allocator@PAVIMessageObserver@@@std@@@std@@@std@@YAPAU_Node@?$_List_nod@PAVIMessageObserver@@V?$allocator@PAVIMessageObserver@@@std@@@0@IPAU120@@Z
_TEXT	SEGMENT PARA USE32 PUBLIC 'CODE'
_TEXT	ENDS
;	COMDAT ??$_Construct@PAU_Node@?$_List_nod@PAVIMessageObserver@@V?$allocator@PAVIMessageObserver@@@std@@@std@@PAU123@@std@@YAXPAPAU_Node@?$_List_nod@PAVIMessageObserver@@V?$allocator@PAVIMessageObserver@@@std@@@0@ABQAU120@@Z
_TEXT	SEGMENT PARA USE32 PUBLIC 'CODE'
_TEXT	ENDS
;	COMDAT ??$_Destroy@PAU_Node@?$_List_nod@PAVIMessageObserver@@V?$allocator@PAVIMessageObserver@@@std@@@std@@@std@@YAXPAPAU_Node@?$_List_nod@PAVIMessageObserver@@V?$allocator@PAVIMessageObserver@@@std@@@0@@Z
_TEXT	SEGMENT PARA USE32 PUBLIC 'CODE'
_TEXT	ENDS
;	COMDAT ??$?0PAVIMessageObserver@@@?$allocator@U_Node@?$_List_nod@PAVIMessageObserver@@V?$allocator@PAVIMessageObserver@@@std@@@std@@@std@@QAE@ABV?$allocator@PAVIMessageObserver@@@1@@Z
_TEXT	SEGMENT PARA USE32 PUBLIC 'CODE'
_TEXT	ENDS
;	COMDAT ??$_Destroy@U_Node@?$_List_nod@PAVIMessageObserver@@V?$allocator@PAVIMessageObserver@@@std@@@std@@@std@@YAXPAU_Node@?$_List_nod@PAVIMessageObserver@@V?$allocator@PAVIMessageObserver@@@std@@@0@@Z
_TEXT	SEGMENT PARA USE32 PUBLIC 'CODE'
_TEXT	ENDS
;	COMDAT ??_9@$BBFE@AE
_TEXT	SEGMENT PARA USE32 PUBLIC 'CODE'
_TEXT	ENDS
;	COMDAT ??_9@$BBFI@AE
_TEXT	SEGMENT PARA USE32 PUBLIC 'CODE'
_TEXT	ENDS
;	COMDAT ??_ECPlayBoxDlg@@WHI@AEPAXI@Z
_TEXT	SEGMENT PARA USE32 PUBLIC 'CODE'
_TEXT	ENDS
;	COMDAT ??_ECPlayBoxDlg@@WHM@AEPAXI@Z
_TEXT	SEGMENT PARA USE32 PUBLIC 'CODE'
_TEXT	ENDS
;	COMDAT ??_R3HTTPObserver@@8
rdata$r	SEGMENT DWORD USE32 PUBLIC 'CONST'
rdata$r	ENDS
;	COMDAT ??_R3IData@@8
rdata$r	SEGMENT DWORD USE32 PUBLIC 'CONST'
rdata$r	ENDS
;	COMDAT ??_R3ILayoutChangeObserver@@8
rdata$r	SEGMENT DWORD USE32 PUBLIC 'CONST'
rdata$r	ENDS
;	COMDAT ??_R3CCriticalSection@@8
rdata$r	SEGMENT DWORD USE32 PUBLIC 'CONST'
rdata$r	ENDS
;	COMDAT ??_R3CGdiPlusBitmap@CSkinButton@@8
rdata$r	SEGMENT DWORD USE32 PUBLIC 'CONST'
rdata$r	ENDS
;	COMDAT ??_R3P2PObserver@@8
rdata$r	SEGMENT DWORD USE32 PUBLIC 'CONST'
rdata$r	ENDS
;	COMDAT ??_R3IAdData@@8
rdata$r	SEGMENT DWORD USE32 PUBLIC 'CONST'
rdata$r	ENDS
;	COMDAT ??_R3DIBINFO@@8
rdata$r	SEGMENT DWORD USE32 PUBLIC 'CONST'
rdata$r	ENDS
;	COMDAT ??_R3CGdiPlusBitmap@@8
rdata$r	SEGMENT DWORD USE32 PUBLIC 'CONST'
rdata$r	ENDS
;	COMDAT ??_R3AfxUserConfig_Observer@@8
rdata$r	SEGMENT DWORD USE32 PUBLIC 'CONST'
rdata$r	ENDS
;	COMDAT ??_R3CPlayBoxDlg@@8
rdata$r	SEGMENT DWORD USE32 PUBLIC 'CONST'
rdata$r	ENDS
;	COMDAT ??_R3IPanelChangeObserver@@8
rdata$r	SEGMENT DWORD USE32 PUBLIC 'CONST'
rdata$r	ENDS
;	COMDAT ??_R3CAtlStringMgr@ATL@@8
rdata$r	SEGMENT DWORD USE32 PUBLIC 'CONST'
rdata$r	ENDS
;	COMDAT ??_R3?$numpunct@_W@std@@8
rdata$r	SEGMENT DWORD USE32 PUBLIC 'CONST'
rdata$r	ENDS
;	COMDAT ??_R3?$numpunct@D@std@@8
rdata$r	SEGMENT DWORD USE32 PUBLIC 'CONST'
rdata$r	ENDS
;	COMDAT ??_R2HTTPObserver@@8
rdata$r	SEGMENT DWORD USE32 PUBLIC 'CONST'
rdata$r	ENDS
;	COMDAT ??_R2IData@@8
rdata$r	SEGMENT DWORD USE32 PUBLIC 'CONST'
rdata$r	ENDS
;	COMDAT ??_R2ILayoutChangeObserver@@8
rdata$r	SEGMENT DWORD USE32 PUBLIC 'CONST'
rdata$r	ENDS
;	COMDAT ??_R2CCriticalSection@@8
rdata$r	SEGMENT DWORD USE32 PUBLIC 'CONST'
rdata$r	ENDS
;	COMDAT ??_R2CGdiPlusBitmap@CSkinButton@@8
rdata$r	SEGMENT DWORD USE32 PUBLIC 'CONST'
rdata$r	ENDS
;	COMDAT ??_R2P2PObserver@@8
rdata$r	SEGMENT DWORD USE32 PUBLIC 'CONST'
rdata$r	ENDS
;	COMDAT ??_R2IAdData@@8
rdata$r	SEGMENT DWORD USE32 PUBLIC 'CONST'
rdata$r	ENDS
;	COMDAT ??_R2DIBINFO@@8
rdata$r	SEGMENT DWORD USE32 PUBLIC 'CONST'
rdata$r	ENDS
;	COMDAT ??_R2CGdiPlusBitmap@@8
rdata$r	SEGMENT DWORD USE32 PUBLIC 'CONST'
rdata$r	ENDS
;	COMDAT ??_R2AfxUserConfig_Observer@@8
rdata$r	SEGMENT DWORD USE32 PUBLIC 'CONST'
rdata$r	ENDS
;	COMDAT ??_R2CPlayBoxDlg@@8
rdata$r	SEGMENT DWORD USE32 PUBLIC 'CONST'
rdata$r	ENDS
;	COMDAT ??_R2IPanelChangeObserver@@8
rdata$r	SEGMENT DWORD USE32 PUBLIC 'CONST'
rdata$r	ENDS
;	COMDAT ??_R2CAtlStringMgr@ATL@@8
rdata$r	SEGMENT DWORD USE32 PUBLIC 'CONST'
rdata$r	ENDS
;	COMDAT ??_R2?$numpunct@_W@std@@8
rdata$r	SEGMENT DWORD USE32 PUBLIC 'CONST'
rdata$r	ENDS
;	COMDAT ??_R2?$numpunct@D@std@@8
rdata$r	SEGMENT DWORD USE32 PUBLIC 'CONST'
rdata$r	ENDS
;	COMDAT ??_R1A@?0A@A@HTTPObserver@@8
rdata$r	SEGMENT DWORD USE32 PUBLIC 'CONST'
rdata$r	ENDS
;	COMDAT ??_R1A@?0A@A@ILayoutChangeObserver@@8
rdata$r	SEGMENT DWORD USE32 PUBLIC 'CONST'
rdata$r	ENDS
;	COMDAT ??_R1A@?0A@A@CSyncObject@@8
rdata$r	SEGMENT DWORD USE32 PUBLIC 'CONST'
rdata$r	ENDS
;	COMDAT ??_R1A@?0A@A@CCriticalSection@@8
rdata$r	SEGMENT DWORD USE32 PUBLIC 'CONST'
rdata$r	ENDS
;	COMDAT ??_R1A@?0A@A@CGdiPlusBitmap@CSkinButton@@8
rdata$r	SEGMENT DWORD USE32 PUBLIC 'CONST'
rdata$r	ENDS
;	COMDAT ??_R1A@?0A@A@P2PObserver@@8
rdata$r	SEGMENT DWORD USE32 PUBLIC 'CONST'
rdata$r	ENDS
;	COMDAT ??_R1A@?0A@A@IData@@8
rdata$r	SEGMENT DWORD USE32 PUBLIC 'CONST'
rdata$r	ENDS
;	COMDAT ??_R1A@?0A@A@IAdData@@8
rdata$r	SEGMENT DWORD USE32 PUBLIC 'CONST'
rdata$r	ENDS
;	COMDAT ??_R1A@?0A@A@DIBINFO@@8
rdata$r	SEGMENT DWORD USE32 PUBLIC 'CONST'
rdata$r	ENDS
;	COMDAT ??_R1A@?0A@A@CGdiPlusBitmap@@8
rdata$r	SEGMENT DWORD USE32 PUBLIC 'CONST'
rdata$r	ENDS
;	COMDAT ??_R1A@?0A@A@AfxUserConfig_Observer@@8
rdata$r	SEGMENT DWORD USE32 PUBLIC 'CONST'
rdata$r	ENDS
;	COMDAT ??_R1HM@?0A@1IMessageObserver@@8
rdata$r	SEGMENT DWORD USE32 PUBLIC 'CONST'
rdata$r	ENDS
;	COMDAT ??_R1HM@?0A@A@IPanelChangeObserver@@8
rdata$r	SEGMENT DWORD USE32 PUBLIC 'CONST'
rdata$r	ENDS
;	COMDAT ??_R1HI@?0A@1IMessageObserver@@8
rdata$r	SEGMENT DWORD USE32 PUBLIC 'CONST'
rdata$r	ENDS
;	COMDAT ??_R1HI@?0A@A@ILayoutChangeObserver@@8
rdata$r	SEGMENT DWORD USE32 PUBLIC 'CONST'
rdata$r	ENDS
;	COMDAT ??_R1HE@?0A@A@AfxUserConfig_Observer@@8
rdata$r	SEGMENT DWORD USE32 PUBLIC 'CONST'
rdata$r	ENDS
;	COMDAT ??_R1A@?0A@A@CObject@@8
rdata$r	SEGMENT DWORD USE32 PUBLIC 'CONST'
rdata$r	ENDS
;	COMDAT ??_R0?AVCObject@@@8
_DATA	SEGMENT DWORD USE32 PUBLIC 'DATA'
_DATA	ENDS
;	COMDAT ??_R1A@?0A@A@CCmdTarget@@8
rdata$r	SEGMENT DWORD USE32 PUBLIC 'CONST'
rdata$r	ENDS
;	COMDAT ??_R0?AVCCmdTarget@@@8
_DATA	SEGMENT DWORD USE32 PUBLIC 'DATA'
_DATA	ENDS
;	COMDAT ??_R1A@?0A@A@CWnd@@8
rdata$r	SEGMENT DWORD USE32 PUBLIC 'CONST'
rdata$r	ENDS
;	COMDAT ??_R0?AVCWnd@@@8
_DATA	SEGMENT DWORD USE32 PUBLIC 'DATA'
_DATA	ENDS
;	COMDAT ??_R1A@?0A@A@CDialog@@8
rdata$r	SEGMENT DWORD USE32 PUBLIC 'CONST'
rdata$r	ENDS
;	COMDAT ??_R0?AVCDialog@@@8
_DATA	SEGMENT DWORD USE32 PUBLIC 'DATA'
_DATA	ENDS
;	COMDAT ??_R1A@?0A@A@CPlayBoxDlg@@8
rdata$r	SEGMENT DWORD USE32 PUBLIC 'CONST'
rdata$r	ENDS
;	COMDAT ??_R1A@?0A@A@IMessageObserver@@8
rdata$r	SEGMENT DWORD USE32 PUBLIC 'CONST'
rdata$r	ENDS
;	COMDAT ??_R1A@?0A@A@IPanelChangeObserver@@8
rdata$r	SEGMENT DWORD USE32 PUBLIC 'CONST'
rdata$r	ENDS
;	COMDAT ??_R1A@?0A@A@IAtlStringMgr@ATL@@8
rdata$r	SEGMENT DWORD USE32 PUBLIC 'CONST'
rdata$r	ENDS
;	COMDAT ??_R0?AUIAtlStringMgr@ATL@@@8
_DATA	SEGMENT DWORD USE32 PUBLIC 'DATA'
_DATA	ENDS
;	COMDAT ??_R1A@?0A@A@CAtlStringMgr@ATL@@8
rdata$r	SEGMENT DWORD USE32 PUBLIC 'CONST'
rdata$r	ENDS
;	COMDAT ??_R1A@?0A@A@?$numpunct@_W@std@@8
rdata$r	SEGMENT DWORD USE32 PUBLIC 'CONST'
rdata$r	ENDS
;	COMDAT ??_R1A@?0A@A@facet@locale@std@@8
rdata$r	SEGMENT DWORD USE32 PUBLIC 'CONST'
rdata$r	ENDS
;	COMDAT ??_R0?AVfacet@locale@std@@@8
_DATA	SEGMENT DWORD USE32 PUBLIC 'DATA'
_DATA	ENDS
;	COMDAT ??_R1A@?0A@A@?$numpunct@D@std@@8
rdata$r	SEGMENT DWORD USE32 PUBLIC 'CONST'
rdata$r	ENDS
;	COMDAT ??_R0?AVHTTPObserver@@@8
_DATA	SEGMENT DWORD USE32 PUBLIC 'DATA'
_DATA	ENDS
;	COMDAT ??_R0?AVCSyncObject@@@8
_DATA	SEGMENT DWORD USE32 PUBLIC 'DATA'
_DATA	ENDS
;	COMDAT ??_R0?AVCCriticalSection@@@8
_DATA	SEGMENT DWORD USE32 PUBLIC 'DATA'
_DATA	ENDS
;	COMDAT ??_R0?AVCGdiPlusBitmap@CSkinButton@@@8
_DATA	SEGMENT DWORD USE32 PUBLIC 'DATA'
_DATA	ENDS
;	COMDAT ??_R0?AVP2PObserver@@@8
_DATA	SEGMENT DWORD USE32 PUBLIC 'DATA'
_DATA	ENDS
;	COMDAT ??_R0?AVIData@@@8
_DATA	SEGMENT DWORD USE32 PUBLIC 'DATA'
_DATA	ENDS
;	COMDAT ??_R0?AVIAdData@@@8
_DATA	SEGMENT DWORD USE32 PUBLIC 'DATA'
_DATA	ENDS
;	COMDAT ??_R0?AVDIBINFO@@@8
_DATA	SEGMENT DWORD USE32 PUBLIC 'DATA'
_DATA	ENDS
;	COMDAT ??_R0?AVCGdiPlusBitmap@@@8
_DATA	SEGMENT DWORD USE32 PUBLIC 'DATA'
_DATA	ENDS
;	COMDAT ??_R0?AVILayoutChangeObserver@@@8
_DATA	SEGMENT DWORD USE32 PUBLIC 'DATA'
_DATA	ENDS
;	COMDAT ??_R0?AVAfxUserConfig_Observer@@@8
_DATA	SEGMENT DWORD USE32 PUBLIC 'DATA'
_DATA	ENDS
;	COMDAT ??_R0?AVCPlayBoxDlg@@@8
_DATA	SEGMENT DWORD USE32 PUBLIC 'DATA'
_DATA	ENDS
;	COMDAT ??_R0?AVIPanelChangeObserver@@@8
_DATA	SEGMENT DWORD USE32 PUBLIC 'DATA'
_DATA	ENDS
;	COMDAT ??_R0?AVCAtlStringMgr@ATL@@@8
_DATA	SEGMENT DWORD USE32 PUBLIC 'DATA'
_DATA	ENDS
;	COMDAT ??_R0?AV?$numpunct@_W@std@@@8
_DATA	SEGMENT DWORD USE32 PUBLIC 'DATA'
_DATA	ENDS
;	COMDAT ??_R0?AV?$numpunct@D@std@@@8
_DATA	SEGMENT DWORD USE32 PUBLIC 'DATA'
_DATA	ENDS
;	COMDAT ??_R4HTTPObserver@@6B@
rdata$r	SEGMENT DWORD USE32 PUBLIC 'CONST'
rdata$r	ENDS
;	COMDAT ??_R4IData@@6B@
rdata$r	SEGMENT DWORD USE32 PUBLIC 'CONST'
rdata$r	ENDS
;	COMDAT ??_R4ILayoutChangeObserver@@6B@
rdata$r	SEGMENT DWORD USE32 PUBLIC 'CONST'
rdata$r	ENDS
;	COMDAT ??_R4CCriticalSection@@6B@
rdata$r	SEGMENT DWORD USE32 PUBLIC 'CONST'
rdata$r	ENDS
;	COMDAT ??_R4CGdiPlusBitmap@CSkinButton@@6B@
rdata$r	SEGMENT DWORD USE32 PUBLIC 'CONST'
rdata$r	ENDS
;	COMDAT ??_R4P2PObserver@@6B@
rdata$r	SEGMENT DWORD USE32 PUBLIC 'CONST'
rdata$r	ENDS
;	COMDAT ??_R4IAdData@@6B@
rdata$r	SEGMENT DWORD USE32 PUBLIC 'CONST'
rdata$r	ENDS
;	COMDAT ??_R4DIBINFO@@6B@
rdata$r	SEGMENT DWORD USE32 PUBLIC 'CONST'
rdata$r	ENDS
;	COMDAT ??_R4CGdiPlusBitmap@@6B@
rdata$r	SEGMENT DWORD USE32 PUBLIC 'CONST'
rdata$r	ENDS
;	COMDAT ??_R4AfxUserConfig_Observer@@6B@
rdata$r	SEGMENT DWORD USE32 PUBLIC 'CONST'
rdata$r	ENDS
;	COMDAT ??_R4CPlayBoxDlg@@6BIPanelChangeObserver@@@
rdata$r	SEGMENT DWORD USE32 PUBLIC 'CONST'
rdata$r	ENDS
;	COMDAT ??_R4CPlayBoxDlg@@6BILayoutChangeObserver@@@
rdata$r	SEGMENT DWORD USE32 PUBLIC 'CONST'
rdata$r	ENDS
;	COMDAT ??_R4CPlayBoxDlg@@6BAfxUserConfig_Observer@@@
rdata$r	SEGMENT DWORD USE32 PUBLIC 'CONST'
rdata$r	ENDS
;	COMDAT ?Create@CDialog@@UAEHIPAVCWnd@@@Z
_TEXT	SEGMENT PARA USE32 PUBLIC 'CODE'
_TEXT	ENDS
;	COMDAT ?EndModalState@CWnd@@UAEXXZ
_TEXT	SEGMENT PARA USE32 PUBLIC 'CODE'
_TEXT	ENDS
;	COMDAT ?BeginModalState@CWnd@@UAEXXZ
_TEXT	SEGMENT PARA USE32 PUBLIC 'CODE'
_TEXT	ENDS
;	COMDAT ?Dump@CObject@@UBEXAAVCDumpContext@@@Z
_TEXT	SEGMENT PARA USE32 PUBLIC 'CODE'
_TEXT	ENDS
;	COMDAT ?AssertValid@CObject@@UBEXXZ
_TEXT	SEGMENT PARA USE32 PUBLIC 'CODE'
_TEXT	ENDS
;	COMDAT ?Serialize@CObject@@UAEXAAVCArchive@@@Z
_TEXT	SEGMENT PARA USE32 PUBLIC 'CODE'
_TEXT	ENDS
;	COMDAT ??_R4CPlayBoxDlg@@6BCDialog@@@
rdata$r	SEGMENT DWORD USE32 PUBLIC 'CONST'
rdata$r	ENDS
;	COMDAT ??_R4IPanelChangeObserver@@6B@
rdata$r	SEGMENT DWORD USE32 PUBLIC 'CONST'
rdata$r	ENDS
;	COMDAT ??_R4CAtlStringMgr@ATL@@6B@
rdata$r	SEGMENT DWORD USE32 PUBLIC 'CONST'
rdata$r	ENDS
;	COMDAT ??0?$allocator@_W@std@@QAE@XZ
_TEXT	SEGMENT PARA USE32 PUBLIC 'CODE'
_TEXT	ENDS
;	COMDAT ??_G?$numpunct@_W@std@@MAEPAXI@Z
_TEXT	SEGMENT PARA USE32 PUBLIC 'CODE'
_TEXT	ENDS
;	COMDAT ??_R4?$numpunct@_W@std@@6B@
rdata$r	SEGMENT DWORD USE32 PUBLIC 'CONST'
rdata$r	ENDS
;	COMDAT ??_G?$numpunct@D@std@@MAEPAXI@Z
_TEXT	SEGMENT PARA USE32 PUBLIC 'CODE'
_TEXT	ENDS
;	COMDAT ??_R4?$numpunct@D@std@@6B@
rdata$r	SEGMENT DWORD USE32 PUBLIC 'CONST'
rdata$r	ENDS
;	COMDAT ??2@YAPAXIPAX@Z
_TEXT	SEGMENT PARA USE32 PUBLIC 'CODE'
_TEXT	ENDS
;	COMDAT ?_Psave@?$_Facetptr@V?$numpunct@_W@std@@@std@@2PBVfacet@locale@2@B
_DATA	SEGMENT DWORD USE32 PUBLIC 'DATA'
_DATA	ENDS
;	COMDAT ?_Psave@?$_Facetptr@V?$numpunct@D@std@@@std@@2PBVfacet@locale@2@B
_DATA	SEGMENT DWORD USE32 PUBLIC 'DATA'
_DATA	ENDS
;	COMDAT ?Unlock@CComCriticalSection@ATL@@QAEJXZ
_TEXT	SEGMENT PARA USE32 PUBLIC 'CODE'
_TEXT	ENDS
;	COMDAT ?_Psave@?$_Facetptr@V?$ctype@_W@std@@@std@@2PBVfacet@locale@2@B
_DATA	SEGMENT DWORD USE32 PUBLIC 'DATA'
_DATA	ENDS
;	COMDAT ?_Psave@?$_Facetptr@V?$ctype@D@std@@@std@@2PBVfacet@locale@2@B
_DATA	SEGMENT DWORD USE32 PUBLIC 'DATA'
_DATA	ENDS
;	COMDAT ?data@CStringData@ATL@@QAEPAXXZ
_TEXT	SEGMENT PARA USE32 PUBLIC 'CODE'
_TEXT	ENDS
;	COMDAT ??$_Maklocchr@_W@std@@YA_WDPA_WABU_Cvtvec@@@Z
_TEXT	SEGMENT PARA USE32 PUBLIC 'CODE'
_TEXT	ENDS
;	COMDAT ??$_Maklocstr@_W@std@@YAPA_WPBDPA_WABU_Cvtvec@@@Z
_TEXT	SEGMENT PARA USE32 PUBLIC 'CODE'
_TEXT	ENDS
;	COMDAT ??$_Maklocchr@D@std@@YADDPADABU_Cvtvec@@@Z
_TEXT	SEGMENT PARA USE32 PUBLIC 'CODE'
_TEXT	ENDS
;	COMDAT ??_C@_04LOAJBDKD@true?$AA@
CONST	SEGMENT DWORD USE32 PUBLIC 'CONST'
CONST	ENDS
;	COMDAT ??_C@_05LAPONLG@false?$AA@
CONST	SEGMENT DWORD USE32 PUBLIC 'CONST'
CONST	ENDS
;	COMDAT _wmemcpy
_TEXT	SEGMENT PARA USE32 PUBLIC 'CODE'
_TEXT	ENDS
;	COMDAT ?max_size@?$allocator@_W@std@@QBEIXZ
_TEXT	SEGMENT PARA USE32 PUBLIC 'CODE'
_TEXT	ENDS
;	COMDAT ?allocate@?$allocator@_W@std@@QAEPA_WI@Z
_TEXT	SEGMENT PARA USE32 PUBLIC 'CODE'
_TEXT	ENDS
;	COMDAT ??$_Allocate@_W@std@@YAPA_WIPA_W@Z
_TEXT	SEGMENT PARA USE32 PUBLIC 'CODE'
_TEXT	ENDS
;	COMDAT ?Release@CStringData@ATL@@QAEXXZ
_TEXT	SEGMENT PARA USE32 PUBLIC 'CODE'
_TEXT	ENDS
;	COMDAT ??_C@_01GFHCPBMG@C?$AA@
CONST	SEGMENT DWORD USE32 PUBLIC 'CONST'
CONST	ENDS
;	COMDAT ?max_size@?$allocator@D@std@@QBEIXZ
_TEXT	SEGMENT PARA USE32 PUBLIC 'CODE'
_TEXT	ENDS
;	COMDAT ?allocate@?$allocator@D@std@@QAEPADI@Z
_TEXT	SEGMENT PARA USE32 PUBLIC 'CODE'
_TEXT	ENDS
;	COMDAT ??$_Allocate@D@std@@YAPADIPAD@Z
_TEXT	SEGMENT PARA USE32 PUBLIC 'CODE'
_TEXT	ENDS
;	COMDAT ?deallocate@?$allocator@D@std@@QAEXPADI@Z
_TEXT	SEGMENT PARA USE32 PUBLIC 'CODE'
_TEXT	ENDS
;	COMDAT ?_Peek@?$istreambuf_iterator@_WU?$char_traits@_W@std@@@std@@AAE_WXZ
_TEXT	SEGMENT PARA USE32 PUBLIC 'CODE'
_TEXT	ENDS
;	COMDAT ?_Peek@?$istreambuf_iterator@DU?$char_traits@D@std@@@std@@AAEDXZ
_TEXT	SEGMENT PARA USE32 PUBLIC 'CODE'
_TEXT	ENDS
;	COMDAT ??$use_facet@V?$ctype@_W@std@@@std@@YAABV?$ctype@_W@0@ABVlocale@0@@Z
_TEXT	SEGMENT PARA USE32 PUBLIC 'CODE'
_TEXT	ENDS
;	COMDAT ??_S?$ctype@_W@std@@6B@
CONST	SEGMENT DWORD USE32 PUBLIC 'CONST'
CONST	ENDS
;	COMDAT ??_R4?$ctype@_W@std@@6B@
rdata$r	SEGMENT DWORD USE32 PUBLIC 'CONST'
rdata$r	ENDS
;	COMDAT ??_R0?AV?$ctype@_W@std@@@8
_DATA	SEGMENT DWORD USE32 PUBLIC 'DATA'
_DATA	ENDS
;	COMDAT ??_R3?$ctype@_W@std@@8
rdata$r	SEGMENT DWORD USE32 PUBLIC 'CONST'
rdata$r	ENDS
;	COMDAT ??_R2?$ctype@_W@std@@8
rdata$r	SEGMENT DWORD USE32 PUBLIC 'CONST'
rdata$r	ENDS
;	COMDAT ??_R1A@?0A@A@?$ctype@_W@std@@8
rdata$r	SEGMENT DWORD USE32 PUBLIC 'CONST'
rdata$r	ENDS
;	COMDAT ??_R1A@?0A@A@ctype_base@std@@8
rdata$r	SEGMENT DWORD USE32 PUBLIC 'CONST'
rdata$r	ENDS
;	COMDAT ??_R0?AUctype_base@std@@@8
_DATA	SEGMENT DWORD USE32 PUBLIC 'DATA'
_DATA	ENDS
;	COMDAT ??_G?$ctype@_W@std@@MAEPAXI@Z
_TEXT	SEGMENT PARA USE32 PUBLIC 'CODE'
_TEXT	ENDS
;	COMDAT ??_C@_08EPJLHIJG@bad?5cast?$AA@
CONST	SEGMENT DWORD USE32 PUBLIC 'CONST'
CONST	ENDS
;	COMDAT __TI2?AVbad_cast@@
xdata$x	SEGMENT DWORD USE32 PUBLIC 'CONST'
xdata$x	ENDS
;	COMDAT __CTA2?AVbad_cast@@
xdata$x	SEGMENT DWORD USE32 PUBLIC 'CONST'
xdata$x	ENDS
;	COMDAT __CT??_R0?AVbad_cast@@@8??0bad_cast@@QAE@ABV0@@Z12
xdata$x	SEGMENT DWORD USE32 PUBLIC 'CONST'
xdata$x	ENDS
;	COMDAT ??_R0?AVbad_cast@@@8
_DATA	SEGMENT DWORD USE32 PUBLIC 'DATA'
_DATA	ENDS
;	COMDAT __CT??_R0?AVexception@@@8??0exception@@QAE@ABV0@@Z12
xdata$x	SEGMENT DWORD USE32 PUBLIC 'CONST'
xdata$x	ENDS
;	COMDAT ??_R0?AVexception@@@8
_DATA	SEGMENT DWORD USE32 PUBLIC 'DATA'
_DATA	ENDS
;	COMDAT ??$use_facet@V?$ctype@D@std@@@std@@YAABV?$ctype@D@0@ABVlocale@0@@Z
_TEXT	SEGMENT PARA USE32 PUBLIC 'CODE'
_TEXT	ENDS
;	COMDAT ??_S?$ctype@D@std@@6B@
CONST	SEGMENT DWORD USE32 PUBLIC 'CONST'
CONST	ENDS
;	COMDAT ??_R4?$ctype@D@std@@6B@
rdata$r	SEGMENT DWORD USE32 PUBLIC 'CONST'
rdata$r	ENDS
;	COMDAT ??_R0?AV?$ctype@D@std@@@8
_DATA	SEGMENT DWORD USE32 PUBLIC 'DATA'
_DATA	ENDS
;	COMDAT ??_R3?$ctype@D@std@@8
rdata$r	SEGMENT DWORD USE32 PUBLIC 'CONST'
rdata$r	ENDS
;	COMDAT ??_R2?$ctype@D@std@@8
rdata$r	SEGMENT DWORD USE32 PUBLIC 'CONST'
rdata$r	ENDS
;	COMDAT ??_R1A@?0A@A@?$ctype@D@std@@8
rdata$r	SEGMENT DWORD USE32 PUBLIC 'CONST'
rdata$r	ENDS
;	COMDAT ??_G?$ctype@D@std@@MAEPAXI@Z
_TEXT	SEGMENT PARA USE32 PUBLIC 'CODE'
_TEXT	ENDS
;	COMDAT ??_S?$numpunct@_W@std@@6B@
CONST	SEGMENT DWORD USE32 PUBLIC 'CONST'
CONST	ENDS
;	COMDAT ??_S?$numpunct@D@std@@6B@
CONST	SEGMENT DWORD USE32 PUBLIC 'CONST'
CONST	ENDS
;	COMDAT _wmemmove
_TEXT	SEGMENT PARA USE32 PUBLIC 'CODE'
_TEXT	ENDS
;	COMDAT ?deallocate@?$allocator@_W@std@@QAEXPA_WI@Z
_TEXT	SEGMENT PARA USE32 PUBLIC 'CODE'
_TEXT	ENDS
;	COMDAT ??0?$allocator@_W@std@@QAE@ABV01@@Z
_TEXT	SEGMENT PARA USE32 PUBLIC 'CODE'
_TEXT	ENDS
;	COMDAT ?AtlThrow@ATL@@YGXJ@Z
_TEXT	SEGMENT PARA USE32 PUBLIC 'CODE'
_TEXT	ENDS
;	COMDAT ?OnGetMinMaxInfo@CWnd@@IAEXPAUtagMINMAXINFO@@@Z
_TEXT	SEGMENT PARA USE32 PUBLIC 'CODE'
_TEXT	ENDS
;	COMDAT ??_R0?AVIConfUpdateObserver@@@8
_DATA	SEGMENT DWORD USE32 PUBLIC 'DATA'
_DATA	ENDS
;	COMDAT ??_R0?AVIMessageObserver@@@8
_DATA	SEGMENT DWORD USE32 PUBLIC 'DATA'
_DATA	ENDS
;	COMDAT ??_R0?AVIWebRefreshObserver@@@8
_DATA	SEGMENT DWORD USE32 PUBLIC 'DATA'
_DATA	ENDS
;	COMDAT ?OnShowWindow@CWnd@@IAEXHI@Z
_TEXT	SEGMENT PARA USE32 PUBLIC 'CODE'
_TEXT	ENDS
;	COMDAT ?OnMove@CWnd@@IAEXHH@Z
_TEXT	SEGMENT PARA USE32 PUBLIC 'CODE'
_TEXT	ENDS
;	COMDAT ?IsWindowVisible@CWnd@@QBEHXZ
_TEXT	SEGMENT PARA USE32 PUBLIC 'CODE'
_TEXT	ENDS
;	COMDAT ?EnableMenuItem@CMenu@@QAEIII@Z
_TEXT	SEGMENT PARA USE32 PUBLIC 'CODE'
_TEXT	ENDS
;	COMDAT ?GetSystemMenu@CWnd@@QBEPAVCMenu@@H@Z
_TEXT	SEGMENT PARA USE32 PUBLIC 'CODE'
_TEXT	ENDS
;	COMDAT ?OnSysCommand@CWnd@@IAEXIJ@Z
_TEXT	SEGMENT PARA USE32 PUBLIC 'CODE'
_TEXT	ENDS
;	COMDAT ?PatBlt@CDC@@QAEHHHHHK@Z
_TEXT	SEGMENT PARA USE32 PUBLIC 'CODE'
_TEXT	ENDS
;	COMDAT ??1CBrush@@UAE@XZ
_TEXT	SEGMENT PARA USE32 PUBLIC 'CODE'
_TEXT	ENDS
;	COMDAT ??_7CBrush@@6B@
CONST	SEGMENT DWORD USE32 PUBLIC 'CONST'
CONST	ENDS
;	COMDAT ??_R4CBrush@@6B@
rdata$r	SEGMENT DWORD USE32 PUBLIC 'CONST'
rdata$r	ENDS
;	COMDAT ??_R0?AVCBrush@@@8
_DATA	SEGMENT DWORD USE32 PUBLIC 'DATA'
_DATA	ENDS
;	COMDAT ??_R3CBrush@@8
rdata$r	SEGMENT DWORD USE32 PUBLIC 'CONST'
rdata$r	ENDS
;	COMDAT ??_R2CBrush@@8
rdata$r	SEGMENT DWORD USE32 PUBLIC 'CONST'
rdata$r	ENDS
;	COMDAT ??_R1A@?0A@A@CBrush@@8
rdata$r	SEGMENT DWORD USE32 PUBLIC 'CONST'
rdata$r	ENDS
;	COMDAT ??_R1A@?0A@A@CGdiObject@@8
rdata$r	SEGMENT DWORD USE32 PUBLIC 'CONST'
rdata$r	ENDS
;	COMDAT ??_R0?AVCGdiObject@@@8
_DATA	SEGMENT DWORD USE32 PUBLIC 'DATA'
_DATA	ENDS
;	COMDAT ??_GCBrush@@UAEPAXI@Z
_TEXT	SEGMENT PARA USE32 PUBLIC 'CODE'
_TEXT	ENDS
;	COMDAT ??1CGdiObject@@UAE@XZ
_TEXT	SEGMENT PARA USE32 PUBLIC 'CODE'
_TEXT	ENDS
;	COMDAT ??_7CGdiObject@@6B@
CONST	SEGMENT DWORD USE32 PUBLIC 'CONST'
CONST	ENDS
;	COMDAT ??_R4CGdiObject@@6B@
rdata$r	SEGMENT DWORD USE32 PUBLIC 'CONST'
rdata$r	ENDS
;	COMDAT ??_R3CGdiObject@@8
rdata$r	SEGMENT DWORD USE32 PUBLIC 'CONST'
rdata$r	ENDS
;	COMDAT ??_R2CGdiObject@@8
rdata$r	SEGMENT DWORD USE32 PUBLIC 'CONST'
rdata$r	ENDS
;	COMDAT ??_GCGdiObject@@UAEPAXI@Z
_TEXT	SEGMENT PARA USE32 PUBLIC 'CODE'
_TEXT	ENDS
;	COMDAT ??1CObject@@UAE@XZ
_TEXT	SEGMENT PARA USE32 PUBLIC 'CODE'
_TEXT	ENDS
;	COMDAT ?LoadBitmapA@CBitmap@@QAEHI@Z
_TEXT	SEGMENT PARA USE32 PUBLIC 'CODE'
_TEXT	ENDS
;	COMDAT ??1CBitmap@@UAE@XZ
_TEXT	SEGMENT PARA USE32 PUBLIC 'CODE'
_TEXT	ENDS
;	COMDAT ??_7CBitmap@@6B@
CONST	SEGMENT DWORD USE32 PUBLIC 'CONST'
CONST	ENDS
;	COMDAT ??_R4CBitmap@@6B@
rdata$r	SEGMENT DWORD USE32 PUBLIC 'CONST'
rdata$r	ENDS
;	COMDAT ??_R0?AVCBitmap@@@8
_DATA	SEGMENT DWORD USE32 PUBLIC 'DATA'
_DATA	ENDS
;	COMDAT ??_R3CBitmap@@8
rdata$r	SEGMENT DWORD USE32 PUBLIC 'CONST'
rdata$r	ENDS
;	COMDAT ??_R2CBitmap@@8
rdata$r	SEGMENT DWORD USE32 PUBLIC 'CONST'
rdata$r	ENDS
;	COMDAT ??_R1A@?0A@A@CBitmap@@8
rdata$r	SEGMENT DWORD USE32 PUBLIC 'CONST'
rdata$r	ENDS
;	COMDAT ??_GCBitmap@@UAEPAXI@Z
_TEXT	SEGMENT PARA USE32 PUBLIC 'CODE'
_TEXT	ENDS
;	COMDAT ??0CBitmap@@QAE@XZ
_TEXT	SEGMENT PARA USE32 PUBLIC 'CODE'
_TEXT	ENDS
;	COMDAT ??0CGdiObject@@QAE@XZ
_TEXT	SEGMENT PARA USE32 PUBLIC 'CODE'
_TEXT	ENDS
;	COMDAT ??0CObject@@IAE@XZ
_TEXT	SEGMENT PARA USE32 PUBLIC 'CODE'
_TEXT	ENDS
;	COMDAT ?GetParent@CWnd@@QBEPAV1@XZ
_TEXT	SEGMENT PARA USE32 PUBLIC 'CODE'
_TEXT	ENDS
;	COMDAT ?OnTimer@CWnd@@IAEXI@Z
_TEXT	SEGMENT PARA USE32 PUBLIC 'CODE'
_TEXT	ENDS
;	COMDAT ?RedrawWindow@CWnd@@QAEHPBUtagRECT@@PAVCRgn@@I@Z
_TEXT	SEGMENT PARA USE32 PUBLIC 'CODE'
_TEXT	ENDS
;	COMDAT ?GetSafeHandle@CGdiObject@@QBEPAXXZ
_TEXT	SEGMENT PARA USE32 PUBLIC 'CODE'
_TEXT	ENDS
;	COMDAT ?OnSize@CWnd@@IAEXIHH@Z
_TEXT	SEGMENT PARA USE32 PUBLIC 'CODE'
_TEXT	ENDS
;	COMDAT ?ReleaseDC@CWnd@@QAEHPAVCDC@@@Z
_TEXT	SEGMENT PARA USE32 PUBLIC 'CODE'
_TEXT	ENDS
;	COMDAT ?GetDC@CWnd@@QAEPAVCDC@@XZ
_TEXT	SEGMENT PARA USE32 PUBLIC 'CODE'
_TEXT	ENDS
;	COMDAT ?OnMouseMove@CWnd@@IAEXIVCPoint@@@Z
_TEXT	SEGMENT PARA USE32 PUBLIC 'CODE'
_TEXT	ENDS
;	COMDAT ?OnLButtonDown@CWnd@@IAEXIVCPoint@@@Z
_TEXT	SEGMENT PARA USE32 PUBLIC 'CODE'
_TEXT	ENDS
;	COMDAT ?GetWindowRect@CWnd@@QBEXPAUtagRECT@@@Z
_TEXT	SEGMENT PARA USE32 PUBLIC 'CODE'
_TEXT	ENDS
;	COMDAT ?ClientToScreen@CWnd@@QBEXPAUtagPOINT@@@Z
_TEXT	SEGMENT PARA USE32 PUBLIC 'CODE'
_TEXT	ENDS
;	COMDAT ?SetCapture@CWnd@@QAEPAV1@XZ
_TEXT	SEGMENT PARA USE32 PUBLIC 'CODE'
_TEXT	ENDS
;	COMDAT ?GetCapture@CWnd@@SGPAV1@XZ
_TEXT	SEGMENT PARA USE32 PUBLIC 'CODE'
_TEXT	ENDS
;	COMDAT ??BCRect@@QAEPAUtagRECT@@XZ
_TEXT	SEGMENT PARA USE32 PUBLIC 'CODE'
_TEXT	ENDS
;	COMDAT ?MoveWindow@CWnd@@QAEXPBUtagRECT@@H@Z
_TEXT	SEGMENT PARA USE32 PUBLIC 'CODE'
_TEXT	ENDS
;	COMDAT ?DrawIcon@CDC@@QAEHHHPAUHICON__@@@Z
_TEXT	SEGMENT PARA USE32 PUBLIC 'CODE'
_TEXT	ENDS
;	COMDAT ?Height@CRect@@QBEHXZ
_TEXT	SEGMENT PARA USE32 PUBLIC 'CODE'
_TEXT	ENDS
;	COMDAT ?Width@CRect@@QBEHXZ
_TEXT	SEGMENT PARA USE32 PUBLIC 'CODE'
_TEXT	ENDS
;	COMDAT ?GetClientRect@CWnd@@QBEXPAUtagRECT@@@Z
_TEXT	SEGMENT PARA USE32 PUBLIC 'CODE'
_TEXT	ENDS
;	COMDAT ?GetSafeHdc@CDC@@QBEPAUHDC__@@XZ
_TEXT	SEGMENT PARA USE32 PUBLIC 'CODE'
_TEXT	ENDS
;	COMDAT ?SendMessageA@CWnd@@QAEJIIJ@Z
_TEXT	SEGMENT PARA USE32 PUBLIC 'CODE'
_TEXT	ENDS
;	COMDAT ?IsIconic@CWnd@@QBEHXZ
_TEXT	SEGMENT PARA USE32 PUBLIC 'CODE'
_TEXT	ENDS
;	COMDAT ?PostMessageA@CWnd@@QAEHIIJ@Z
_TEXT	SEGMENT PARA USE32 PUBLIC 'CODE'
_TEXT	ENDS
;	COMDAT ?SetIcon@CWnd@@QAEPAUHICON__@@PAU2@H@Z
_TEXT	SEGMENT PARA USE32 PUBLIC 'CODE'
_TEXT	ENDS
;	COMDAT ?OnClose@CWnd@@IAEXXZ
_TEXT	SEGMENT PARA USE32 PUBLIC 'CODE'
_TEXT	ENDS
;	COMDAT ?KillTimer@CWnd@@QAEHI@Z
_TEXT	SEGMENT PARA USE32 PUBLIC 'CODE'
_TEXT	ENDS
;	COMDAT ??0?$allocator@D@std@@QAE@ABV01@@Z
_TEXT	SEGMENT PARA USE32 PUBLIC 'CODE'
_TEXT	ENDS
;	COMDAT ??0?$allocator@D@std@@QAE@XZ
_TEXT	SEGMENT PARA USE32 PUBLIC 'CODE'
_TEXT	ENDS
;	COMDAT ?OnQueryEndSession@CWnd@@IAEHXZ
_TEXT	SEGMENT PARA USE32 PUBLIC 'CODE'
_TEXT	ENDS
;	COMDAT ?_messageEntries@CPlayBoxDlg@@0QBUAFX_MSGMAP_ENTRY@@B
CONST	SEGMENT DWORD USE32 PUBLIC 'CONST'
CONST	ENDS
;	COMDAT ?messageMap@CPlayBoxDlg@@1UAFX_MSGMAP@@B
CONST	SEGMENT DWORD USE32 PUBLIC 'CONST'
CONST	ENDS
;	COMDAT ?DoDataExchange@CWnd@@MAEXPAVCDataExchange@@@Z
_TEXT	SEGMENT PARA USE32 PUBLIC 'CODE'
_TEXT	ENDS
;	COMDAT ??_7IMessageObserver@@6B@
CONST	SEGMENT DWORD USE32 PUBLIC 'CONST'
CONST	ENDS
;	COMDAT ??_R4IMessageObserver@@6B@
rdata$r	SEGMENT DWORD USE32 PUBLIC 'CONST'
rdata$r	ENDS
;	COMDAT ??_R3IMessageObserver@@8
rdata$r	SEGMENT DWORD USE32 PUBLIC 'CONST'
rdata$r	ENDS
;	COMDAT ??_R2IMessageObserver@@8
rdata$r	SEGMENT DWORD USE32 PUBLIC 'CONST'
rdata$r	ENDS
;	COMDAT ??_GIMessageObserver@@UAEPAXI@Z
_TEXT	SEGMENT PARA USE32 PUBLIC 'CODE'
_TEXT	ENDS
;	COMDAT ??_7IPanelChangeObserver@@6B@
CONST	SEGMENT DWORD USE32 PUBLIC 'CONST'
CONST	ENDS
;	COMDAT ??_7ILayoutChangeObserver@@6B@
CONST	SEGMENT DWORD USE32 PUBLIC 'CONST'
CONST	ENDS
;	COMDAT ??1IMessageObserver@@UAE@XZ
_TEXT	SEGMENT PARA USE32 PUBLIC 'CODE'
_TEXT	ENDS
;	COMDAT ??_7AfxUserConfig_Observer@@6B@
CONST	SEGMENT DWORD USE32 PUBLIC 'CONST'
CONST	ENDS
;	COMDAT ?LoadIconA@CWinApp@@QBEPAUHICON__@@I@Z
_TEXT	SEGMENT PARA USE32 PUBLIC 'CODE'
_TEXT	ENDS
;	COMDAT ??2CObject@@SGPAXI@Z
_TEXT	SEGMENT PARA USE32 PUBLIC 'CODE'
_TEXT	ENDS
;	COMDAT ??0CPoint@@QAE@XZ
_TEXT	SEGMENT PARA USE32 PUBLIC 'CODE'
_TEXT	ENDS
;	COMDAT ??0CRect@@QAE@XZ
_TEXT	SEGMENT PARA USE32 PUBLIC 'CODE'
_TEXT	ENDS
;	COMDAT ??_7CPlayBoxDlg@@6BIPanelChangeObserver@@@
CONST	SEGMENT DWORD USE32 PUBLIC 'CONST'
CONST	ENDS
;	COMDAT ??_7CPlayBoxDlg@@6BILayoutChangeObserver@@@
CONST	SEGMENT DWORD USE32 PUBLIC 'CONST'
CONST	ENDS
;	COMDAT ??_7CPlayBoxDlg@@6BAfxUserConfig_Observer@@@
CONST	SEGMENT DWORD USE32 PUBLIC 'CONST'
CONST	ENDS
;	COMDAT ??_7CPlayBoxDlg@@6BCDialog@@@
CONST	SEGMENT DWORD USE32 PUBLIC 'CONST'
CONST	ENDS
;	COMDAT ??_7IAdData@@6B@
CONST	SEGMENT DWORD USE32 PUBLIC 'CONST'
CONST	ENDS
;	COMDAT ?clsid@?1??GetClsid@CShockwaveFlash@@QAEABU_GUID@@XZ@4U3@B
CONST	SEGMENT DWORD USE32 PUBLIC 'CONST'
CONST	ENDS
;	COMDAT ??_7P2PObserver@@6B@
CONST	SEGMENT DWORD USE32 PUBLIC 'CONST'
CONST	ENDS
;	COMDAT ?GetDefaultManager@?$StrTraitMFC_DLL@DV?$ChTraitsCRT@D@ATL@@@@SAPAUIAtlStringMgr@ATL@@XZ
_TEXT	SEGMENT PARA USE32 PUBLIC 'CODE'
_TEXT	ENDS
;	COMDAT ?FindStringResourceInstance@?$StrTraitMFC_DLL@DV?$ChTraitsCRT@D@ATL@@@@SAPAUHINSTANCE__@@I@Z
_TEXT	SEGMENT PARA USE32 PUBLIC 'CODE'
_TEXT	ENDS
;	COMDAT ?AtlGetStringResourceImage@ATL@@YAPBUATLSTRINGRESOURCEIMAGE@1@PAUHINSTANCE__@@I@Z
_TEXT	SEGMENT PARA USE32 PUBLIC 'CODE'
_TEXT	ENDS
;	COMDAT ?_AtlGetStringResourceImage@ATL@@YAPBUATLSTRINGRESOURCEIMAGE@1@PAUHINSTANCE__@@PAUHRSRC__@@I@Z
_TEXT	SEGMENT PARA USE32 PUBLIC 'CODE'
_TEXT	ENDS
;	COMDAT ?GetBaseTypeLength@?$ChTraitsCRT@D@ATL@@SAHPB_WH@Z
_TEXT	SEGMENT PARA USE32 PUBLIC 'CODE'
_TEXT	ENDS
;	COMDAT ?IsShared@CStringData@ATL@@QBE_NXZ
_TEXT	SEGMENT PARA USE32 PUBLIC 'CODE'
_TEXT	ENDS
;	COMDAT ?ConvertToBaseType@?$ChTraitsCRT@D@ATL@@SAXPADHPB_WH@Z
_TEXT	SEGMENT PARA USE32 PUBLIC 'CODE'
_TEXT	ENDS
;	COMDAT ?IsLocked@CStringData@ATL@@QBE_NXZ
_TEXT	SEGMENT PARA USE32 PUBLIC 'CODE'
_TEXT	ENDS
;	COMDAT ??_7CGdiPlusBitmap@CSkinButton@@6B@
CONST	SEGMENT DWORD USE32 PUBLIC 'CONST'
CONST	ENDS
;	COMDAT ??_7IData@@6B@
CONST	SEGMENT DWORD USE32 PUBLIC 'CONST'
CONST	ENDS
;	COMDAT ?GetLastStatus@Image@Gdiplus@@QBE?AW4Status@2@XZ
_TEXT	SEGMENT PARA USE32 PUBLIC 'CODE'
_TEXT	ENDS
;	COMDAT ?FromFile@Bitmap@Gdiplus@@SAPAV12@PB_WH@Z
_TEXT	SEGMENT PARA USE32 PUBLIC 'CODE'
_TEXT	ENDS
;	COMDAT ??2GdiplusBase@Gdiplus@@SAPAXI@Z
_TEXT	SEGMENT PARA USE32 PUBLIC 'CODE'
_TEXT	ENDS
;	COMDAT ??3GdiplusBase@Gdiplus@@SAXPAX@Z
_TEXT	SEGMENT PARA USE32 PUBLIC 'CODE'
_TEXT	ENDS
;	COMDAT ??0Bitmap@Gdiplus@@QAE@PB_WH@Z
_TEXT	SEGMENT PARA USE32 PUBLIC 'CODE'
_TEXT	ENDS
;	COMDAT ??0Image@Gdiplus@@IAE@XZ
_TEXT	SEGMENT PARA USE32 PUBLIC 'CODE'
_TEXT	ENDS
;	COMDAT ??_7Image@Gdiplus@@6B@
CONST	SEGMENT DWORD USE32 PUBLIC 'CONST'
CONST	ENDS
;	COMDAT ??_R4Image@Gdiplus@@6B@
rdata$r	SEGMENT DWORD USE32 PUBLIC 'CONST'
rdata$r	ENDS
;	COMDAT ??_R0?AVImage@Gdiplus@@@8
_DATA	SEGMENT DWORD USE32 PUBLIC 'DATA'
_DATA	ENDS
;	COMDAT ??_R3Image@Gdiplus@@8
rdata$r	SEGMENT DWORD USE32 PUBLIC 'CONST'
rdata$r	ENDS
;	COMDAT ??_R2Image@Gdiplus@@8
rdata$r	SEGMENT DWORD USE32 PUBLIC 'CONST'
rdata$r	ENDS
;	COMDAT ??_R1A@?0A@A@Image@Gdiplus@@8
rdata$r	SEGMENT DWORD USE32 PUBLIC 'CONST'
rdata$r	ENDS
;	COMDAT ??_R13?0A@A@GdiplusBase@Gdiplus@@8
rdata$r	SEGMENT DWORD USE32 PUBLIC 'CONST'
rdata$r	ENDS
;	COMDAT ??_R0?AVGdiplusBase@Gdiplus@@@8
_DATA	SEGMENT DWORD USE32 PUBLIC 'DATA'
_DATA	ENDS
;	COMDAT ??_GImage@Gdiplus@@UAEPAXI@Z
_TEXT	SEGMENT PARA USE32 PUBLIC 'CODE'
_TEXT	ENDS
;	COMDAT ?Clone@Image@Gdiplus@@UAEPAV12@XZ
_TEXT	SEGMENT PARA USE32 PUBLIC 'CODE'
_TEXT	ENDS
;	COMDAT ?SetStatus@Image@Gdiplus@@IBE?AW4Status@2@W432@@Z
_TEXT	SEGMENT PARA USE32 PUBLIC 'CODE'
_TEXT	ENDS
;	COMDAT ??0Image@Gdiplus@@IAE@PAVGpImage@1@W4Status@1@@Z
_TEXT	SEGMENT PARA USE32 PUBLIC 'CODE'
_TEXT	ENDS
;	COMDAT ??1Image@Gdiplus@@UAE@XZ
_TEXT	SEGMENT PARA USE32 PUBLIC 'CODE'
_TEXT	ENDS
;	COMDAT ??_7Bitmap@Gdiplus@@6B@
CONST	SEGMENT DWORD USE32 PUBLIC 'CONST'
CONST	ENDS
;	COMDAT ??_R4Bitmap@Gdiplus@@6B@
rdata$r	SEGMENT DWORD USE32 PUBLIC 'CONST'
rdata$r	ENDS
;	COMDAT ??_R0?AVBitmap@Gdiplus@@@8
_DATA	SEGMENT DWORD USE32 PUBLIC 'DATA'
_DATA	ENDS
;	COMDAT ??_R3Bitmap@Gdiplus@@8
rdata$r	SEGMENT DWORD USE32 PUBLIC 'CONST'
rdata$r	ENDS
;	COMDAT ??_R2Bitmap@Gdiplus@@8
rdata$r	SEGMENT DWORD USE32 PUBLIC 'CONST'
rdata$r	ENDS
;	COMDAT ??_R1A@?0A@A@Bitmap@Gdiplus@@8
rdata$r	SEGMENT DWORD USE32 PUBLIC 'CONST'
rdata$r	ENDS
;	COMDAT ??_GBitmap@Gdiplus@@UAEPAXI@Z
_TEXT	SEGMENT PARA USE32 PUBLIC 'CODE'
_TEXT	ENDS
;	COMDAT ??1Bitmap@Gdiplus@@UAE@XZ
_TEXT	SEGMENT PARA USE32 PUBLIC 'CODE'
_TEXT	ENDS
;	COMDAT ?SetNativeImage@Image@Gdiplus@@IAEXPAVGpImage@2@@Z
_TEXT	SEGMENT PARA USE32 PUBLIC 'CODE'
_TEXT	ENDS
;	COMDAT ??_7CGdiPlusBitmap@@6B@
CONST	SEGMENT DWORD USE32 PUBLIC 'CONST'
CONST	ENDS
;	COMDAT ??_7DIBINFO@@6B@
CONST	SEGMENT DWORD USE32 PUBLIC 'CONST'
CONST	ENDS
;	COMDAT ??_7HTTPObserver@@6B@
CONST	SEGMENT DWORD USE32 PUBLIC 'CONST'
CONST	ENDS
;	COMDAT ??3CObject@@SGXPAX@Z
_TEXT	SEGMENT PARA USE32 PUBLIC 'CODE'
_TEXT	ENDS
;	COMDAT ??_7CCriticalSection@@6B@
CONST	SEGMENT DWORD USE32 PUBLIC 'CONST'
CONST	ENDS
;	COMDAT ?c_bIsMFCDLLTraits@?$_MFCDLLTraitsCheck@_WV?$StrTraitATL@_WV?$ChTraitsCRT@_W@ATL@@@ATL@@@_CSTRING_IMPL_@ATL@@2_NB
CONST	SEGMENT DWORD USE32 PUBLIC 'CONST'
CONST	ENDS
;	COMDAT ?c_bIsMFCDLLTraits@?$_MFCDLLTraitsCheck@DV?$StrTraitATL@DV?$ChTraitsCRT@D@ATL@@@ATL@@@_CSTRING_IMPL_@ATL@@2_NB
CONST	SEGMENT DWORD USE32 PUBLIC 'CONST'
CONST	ENDS
;	COMDAT ?_AtlGetConversionACP@ATL@@YGIXZ
_TEXT	SEGMENT PARA USE32 PUBLIC 'CODE'
_TEXT	ENDS
;	COMDAT ?g_pfnGetThreadACP@ATL@@3P6GIXZA
_DATA	SEGMENT DWORD USE32 PUBLIC 'DATA'
_DATA	ENDS
;	COMDAT ?_AtlGetThreadACPThunk@ATL@@YGIXZ
_TEXT	SEGMENT PARA USE32 PUBLIC 'CODE'
_TEXT	ENDS
;	COMDAT ?_AtlGetThreadACPReal@ATL@@YGIXZ
_TEXT	SEGMENT PARA USE32 PUBLIC 'CODE'
_TEXT	ENDS
;	COMDAT ?_AtlGetThreadACPFake@ATL@@YGIXZ
_TEXT	SEGMENT PARA USE32 PUBLIC 'CODE'
_TEXT	ENDS
;	COMDAT ?InterlockedExchangePointer@@YGPAXPAPAXPAX@Z
_TEXT	SEGMENT PARA USE32 PUBLIC 'CODE'
_TEXT	ENDS
;	COMDAT ?_strthunks@ATL@@3U_AtlStringThunks@1@A
_DATA	SEGMENT DWORD USE32 PUBLIC 'DATA'
_DATA	ENDS
;	COMDAT ?CompareStringWThunk@ATL@@YGHKKPB_WH0H@Z
_TEXT	SEGMENT PARA USE32 PUBLIC 'CODE'
_TEXT	ENDS
;	COMDAT ?_AtlInstallStringThunk@ATL@@YAXPAPAXPAX1@Z
_TEXT	SEGMENT PARA USE32 PUBLIC 'CODE'
_TEXT	ENDS
;	COMDAT ??_B?1??_AtlInstallStringThunk@ATL@@YAXPAPAXPAX1@Z@51
_BSS	SEGMENT DWORD USE32 PUBLIC 'BSS'
_BSS	ENDS
;	COMDAT ?s_bWin9x@?1??_AtlInstallStringThunk@ATL@@YAXPAPAXPAX1@Z@4_NA
_BSS	SEGMENT DWORD USE32 PUBLIC 'BSS'
_BSS	ENDS
;	COMDAT ?CompareStringWFake@ATL@@YGHKKPB_WH0H@Z
_TEXT	SEGMENT PARA USE32 PUBLIC 'CODE'
_TEXT	ENDS
;	COMDAT ??0?$CAtlSafeAllocBufferManager@VCCRTAllocator@ATL@@@_ATL_SAFE_ALLOCA_IMPL@ATL@@QAE@XZ
_TEXT	SEGMENT PARA USE32 PUBLIC 'CODE'
_TEXT	ENDS
;	COMDAT ??1?$CAtlSafeAllocBufferManager@VCCRTAllocator@ATL@@@_ATL_SAFE_ALLOCA_IMPL@ATL@@QAE@XZ
_TEXT	SEGMENT PARA USE32 PUBLIC 'CODE'
_TEXT	ENDS
;	COMDAT ?Free@CCRTAllocator@ATL@@SAXPAX@Z
_TEXT	SEGMENT PARA USE32 PUBLIC 'CODE'
_TEXT	ENDS
;	COMDAT ?AtlW2AHelper@@YGPADPADPB_WHI@Z
_TEXT	SEGMENT PARA USE32 PUBLIC 'CODE'
_TEXT	ENDS
;	COMDAT ?_AtlVerifyStackAvailable@_ATL_SAFE_ALLOCA_IMPL@ATL@@YA_NK@Z
_TEXT	SEGMENT PARA USE32 PUBLIC 'CODE'
_TEXT	ENDS
;	COMDAT ?Allocate@?$CAtlSafeAllocBufferManager@VCCRTAllocator@ATL@@@_ATL_SAFE_ALLOCA_IMPL@ATL@@QAEPAXK@Z
_TEXT	SEGMENT PARA USE32 PUBLIC 'CODE'
_TEXT	ENDS
;	COMDAT ?Allocate@CCRTAllocator@ATL@@SAPAXI@Z
_TEXT	SEGMENT PARA USE32 PUBLIC 'CODE'
_TEXT	ENDS
;	COMDAT ?GetData@CAtlSafeAllocBufferNode@?$CAtlSafeAllocBufferManager@VCCRTAllocator@ATL@@@_ATL_SAFE_ALLOCA_IMPL@ATL@@QAEPAXXZ
_TEXT	SEGMENT PARA USE32 PUBLIC 'CODE'
_TEXT	ENDS
;	COMDAT ?GetStringTypeExWThunk@ATL@@YGHKKPB_WHPAG@Z
_TEXT	SEGMENT PARA USE32 PUBLIC 'CODE'
_TEXT	ENDS
;	COMDAT ?GetStringTypeExWFake@ATL@@YGHKKPB_WHPAG@Z
_TEXT	SEGMENT PARA USE32 PUBLIC 'CODE'
_TEXT	ENDS
;	COMDAT ??0?$CTempBuffer@D$0IA@VCCRTAllocator@ATL@@@ATL@@QAE@XZ
_TEXT	SEGMENT PARA USE32 PUBLIC 'CODE'
_TEXT	ENDS
;	COMDAT ??1?$CTempBuffer@D$0IA@VCCRTAllocator@ATL@@@ATL@@QAE@XZ
_TEXT	SEGMENT PARA USE32 PUBLIC 'CODE'
_TEXT	ENDS
;	COMDAT ?FreeHeap@?$CTempBuffer@D$0IA@VCCRTAllocator@ATL@@@ATL@@AAEXXZ
_TEXT	SEGMENT PARA USE32 PUBLIC 'CODE'
_TEXT	ENDS
;	COMDAT ?Allocate@?$CTempBuffer@D$0IA@VCCRTAllocator@ATL@@@ATL@@QAEPADI@Z
_TEXT	SEGMENT PARA USE32 PUBLIC 'CODE'
_TEXT	ENDS
;	COMDAT ?AllocateBytes@?$CTempBuffer@D$0IA@VCCRTAllocator@ATL@@@ATL@@QAEPADI@Z
_TEXT	SEGMENT PARA USE32 PUBLIC 'CODE'
_TEXT	ENDS
;	COMDAT ?AllocateHeap@?$CTempBuffer@D$0IA@VCCRTAllocator@ATL@@@ATL@@AAEXI@Z
_TEXT	SEGMENT PARA USE32 PUBLIC 'CODE'
_TEXT	ENDS
;	COMDAT ??B?$CTempBuffer@D$0IA@VCCRTAllocator@ATL@@@ATL@@QBEPADXZ
_TEXT	SEGMENT PARA USE32 PUBLIC 'CODE'
_TEXT	ENDS
;	COMDAT ?lstrcmpiWThunk@ATL@@YGHPB_W0@Z
_TEXT	SEGMENT PARA USE32 PUBLIC 'CODE'
_TEXT	ENDS
;	COMDAT ?lstrcmpiWFake@ATL@@YGHPB_W0@Z
_TEXT	SEGMENT PARA USE32 PUBLIC 'CODE'
_TEXT	ENDS
;	COMDAT ?CharLowerWThunk@ATL@@YGPA_WPA_W@Z
_TEXT	SEGMENT PARA USE32 PUBLIC 'CODE'
_TEXT	ENDS
;	COMDAT ?CharLowerWFake@ATL@@YGPA_WPA_W@Z
_TEXT	SEGMENT PARA USE32 PUBLIC 'CODE'
_TEXT	ENDS
;	COMDAT ?AtlA2WHelper@@YGPA_WPA_WPBDHI@Z
_TEXT	SEGMENT PARA USE32 PUBLIC 'CODE'
_TEXT	ENDS
;	COMDAT ?CharUpperWThunk@ATL@@YGPA_WPA_W@Z
_TEXT	SEGMENT PARA USE32 PUBLIC 'CODE'
_TEXT	ENDS
;	COMDAT ?CharUpperWFake@ATL@@YGPA_WPA_W@Z
_TEXT	SEGMENT PARA USE32 PUBLIC 'CODE'
_TEXT	ENDS
;	COMDAT ?GetEnvironmentVariableWThunk@ATL@@YGKPB_WPA_WK@Z
_TEXT	SEGMENT PARA USE32 PUBLIC 'CODE'
_TEXT	ENDS
;	COMDAT ?GetEnvironmentVariableWFake@ATL@@YGKPB_WPA_WK@Z
_TEXT	SEGMENT PARA USE32 PUBLIC 'CODE'
_TEXT	ENDS
;	COMDAT ??0?$CW2AEX@$0IA@@ATL@@QAE@PB_W@Z
_TEXT	SEGMENT PARA USE32 PUBLIC 'CODE'
_TEXT	ENDS
;	COMDAT ?Init@?$CW2AEX@$0IA@@ATL@@AAEXPB_WI@Z
_TEXT	SEGMENT PARA USE32 PUBLIC 'CODE'
_TEXT	ENDS
;	COMDAT ?AtlThrowLastWin32@ATL@@YGXXZ
_TEXT	SEGMENT PARA USE32 PUBLIC 'CODE'
_TEXT	ENDS
;	COMDAT ??1?$CW2AEX@$0IA@@ATL@@QAE@XZ
_TEXT	SEGMENT PARA USE32 PUBLIC 'CODE'
_TEXT	ENDS
;	COMDAT ??B?$CW2AEX@$0IA@@ATL@@QBEPADXZ
_TEXT	SEGMENT PARA USE32 PUBLIC 'CODE'
_TEXT	ENDS
;	COMDAT ?AddRef@CStringData@ATL@@QAEXXZ
_TEXT	SEGMENT PARA USE32 PUBLIC 'CODE'
_TEXT	ENDS
;	COMDAT ?SetManager@CNilStringData@ATL@@QAEXPAUIAtlStringMgr@2@@Z
_TEXT	SEGMENT PARA USE32 PUBLIC 'CODE'
_TEXT	ENDS
;	COMDAT ??0CNilStringData@ATL@@QAE@XZ
_TEXT	SEGMENT PARA USE32 PUBLIC 'CODE'
_TEXT	ENDS
;	COMDAT ??_7CAtlStringMgr@ATL@@6B@
CONST	SEGMENT DWORD USE32 PUBLIC 'CONST'
CONST	ENDS
;	COMDAT ?AfxGetApp@@YGPAVCWinApp@@XZ
_TEXT	SEGMENT PARA USE32 PUBLIC 'CODE'
_TEXT	ENDS
;	COMDAT ?LoadIconA@CWinApp@@QBEPAUHICON__@@PBD@Z
_TEXT	SEGMENT PARA USE32 PUBLIC 'CODE'
_TEXT	ENDS
;	COMDAT ?GetSafeHwnd@CWnd@@QBEPAUHWND__@@XZ
_TEXT	SEGMENT PARA USE32 PUBLIC 'CODE'
_TEXT	ENDS
sxdata	SEGMENT DWORD USE32 'SXDATA'
sxdata	ENDS
FLAT	GROUP _DATA, CONST, _BSS
	ASSUME	CS: FLAT, DS: FLAT, SS: FLAT
endif

INCLUDELIB MSVCRT
INCLUDELIB OLDNAMES

PUBLIC	?c_bIsMFCDLLTraits@?$_MFCDLLTraitsCheck@_WV?$StrTraitATL@_WV?$ChTraitsCRT@_W@ATL@@@ATL@@@_CSTRING_IMPL_@ATL@@2_NB ; ATL::_CSTRING_IMPL_::_MFCDLLTraitsCheck<wchar_t,ATL::StrTraitATL<wchar_t,ATL::ChTraitsCRT<wchar_t> > >::c_bIsMFCDLLTraits
PUBLIC	?OnMeasureItem@CPlayBoxDlg@@IAEXHPAUtagMEASUREITEMSTRUCT@@@Z ; CPlayBoxDlg::OnMeasureItem
PUBLIC	?OnPaint@CPlayBoxDlg@@IAEXXZ			; CPlayBoxDlg::OnPaint
PUBLIC	?OnShowWindow@CPlayBoxDlg@@IAEXHI@Z		; CPlayBoxDlg::OnShowWindow
PUBLIC	?OnLButtonDown@CPlayBoxDlg@@IAEXIVCPoint@@@Z	; CPlayBoxDlg::OnLButtonDown
PUBLIC	?OnLButtonUp@CPlayBoxDlg@@IAEXIVCPoint@@@Z	; CPlayBoxDlg::OnLButtonUp
PUBLIC	?OnMouseMove@CPlayBoxDlg@@IAEXIVCPoint@@@Z	; CPlayBoxDlg::OnMouseMove
PUBLIC	?OnEraseBkgnd@CPlayBoxDlg@@IAEHPAVCDC@@@Z	; CPlayBoxDlg::OnEraseBkgnd
PUBLIC	?OnSize@CPlayBoxDlg@@IAEXIHH@Z			; CPlayBoxDlg::OnSize
PUBLIC	?OnMove@CPlayBoxDlg@@IAEXHH@Z			; CPlayBoxDlg::OnMove
PUBLIC	?OnTimer@CPlayBoxDlg@@IAEXI@Z			; CPlayBoxDlg::OnTimer
PUBLIC	?OnClose@CPlayBoxDlg@@IAEXXZ			; CPlayBoxDlg::OnClose
PUBLIC	?_strthunks@ATL@@3U_AtlStringThunks@1@A		; ATL::_strthunks
PUBLIC	?OnCopyData@CPlayBoxDlg@@IAEHPAVCWnd@@PAUtagCOPYDATASTRUCT@@@Z ; CPlayBoxDlg::OnCopyData
PUBLIC	?OnTrayNotification@CPlayBoxDlg@@IAEJIJ@Z	; CPlayBoxDlg::OnTrayNotification
PUBLIC	?OnShowTrayIconBalloon@CPlayBoxDlg@@IAEJIJ@Z	; CPlayBoxDlg::OnShowTrayIconBalloon
PUBLIC	?OnQueryDragIcon@CPlayBoxDlg@@IAEPAUHICON__@@XZ	; CPlayBoxDlg::OnQueryDragIcon
PUBLIC	?OnAfterUiCreate@CPlayBoxDlg@@IAEJIJ@Z		; CPlayBoxDlg::OnAfterUiCreate
PUBLIC	?OnChangeText@CPlayBoxDlg@@IAEJIJ@Z		; CPlayBoxDlg::OnChangeText
PUBLIC	?OnHTTPDonwload@CPlayBoxDlg@@IAEJIJ@Z		; CPlayBoxDlg::OnHTTPDonwload
PUBLIC	?OnConfUpdate@CPlayBoxDlg@@IAEJIJ@Z		; CPlayBoxDlg::OnConfUpdate
PUBLIC	?_messageEntries@CPlayBoxDlg@@0QBUAFX_MSGMAP_ENTRY@@B ; CPlayBoxDlg::_messageEntries
PUBLIC	?messageMap@CPlayBoxDlg@@1UAFX_MSGMAP@@B	; CPlayBoxDlg::messageMap
PUBLIC	?OnDeleteTray@CPlayBoxDlg@@QAEJIJ@Z		; CPlayBoxDlg::OnDeleteTray
PUBLIC	?OnSysCommand@CPlayBoxDlg@@QAEXIJ@Z		; CPlayBoxDlg::OnSysCommand
PUBLIC	?OnTrayMenuSetting@CPlayBoxDlg@@QAEXXZ		; CPlayBoxDlg::OnTrayMenuSetting
PUBLIC	?GetEnvironmentVariableWThunk@ATL@@YGKPB_WPA_WK@Z ; ATL::GetEnvironmentVariableWThunk
PUBLIC	?OnTrayMenuOpen@CPlayBoxDlg@@QAEXXZ		; CPlayBoxDlg::OnTrayMenuOpen
PUBLIC	?OnTrayMenuExit@CPlayBoxDlg@@QAEXXZ		; CPlayBoxDlg::OnTrayMenuExit
PUBLIC	?OnGetMinMaxInfo@CPlayBoxDlg@@QAEXPAUtagMINMAXINFO@@@Z ; CPlayBoxDlg::OnGetMinMaxInfo
PUBLIC	?CompareStringWThunk@ATL@@YGHKKPB_WH0H@Z	; ATL::CompareStringWThunk
PUBLIC	?GetStringTypeExWThunk@ATL@@YGHKKPB_WHPAG@Z	; ATL::GetStringTypeExWThunk
PUBLIC	?lstrcmpiWThunk@ATL@@YGHPB_W0@Z			; ATL::lstrcmpiWThunk
PUBLIC	?CharLowerWThunk@ATL@@YGPA_WPA_W@Z		; ATL::CharLowerWThunk
PUBLIC	?CharUpperWThunk@ATL@@YGPA_WPA_W@Z		; ATL::CharUpperWThunk
PUBLIC	?g_pfnGetThreadACP@ATL@@3P6GIXZA		; ATL::g_pfnGetThreadACP
PUBLIC	?_AtlGetThreadACPThunk@ATL@@YGIXZ		; ATL::_AtlGetThreadACPThunk
PUBLIC	?c_bIsMFCDLLTraits@?$_MFCDLLTraitsCheck@DV?$StrTraitATL@DV?$ChTraitsCRT@D@ATL@@@ATL@@@_CSTRING_IMPL_@ATL@@2_NB ; ATL::_CSTRING_IMPL_::_MFCDLLTraitsCheck<char,ATL::StrTraitATL<char,ATL::ChTraitsCRT<char> > >::c_bIsMFCDLLTraits
PUBLIC	?OnQueryEndSession@CWnd@@IAEHXZ			; CWnd::OnQueryEndSession
PUBLIC	??_9@$BBFI@AE					; `vcall'
PUBLIC	??_9@$BBFE@AE					; `vcall'
PUBLIC	?g_hStartEvent@@3PAXA				; g_hStartEvent
EXTRN	?GetThisMessageMap@CDialog@@KGPBUAFX_MSGMAP@@XZ:NEAR ; CDialog::GetThisMessageMap
_BSS	SEGMENT
?g_hStartEvent@@3PAXA DD 01H DUP (?)			; g_hStartEvent
_BSS	ENDS
;	COMDAT ?c_bIsMFCDLLTraits@?$_MFCDLLTraitsCheck@DV?$StrTraitATL@DV?$ChTraitsCRT@D@ATL@@@ATL@@@_CSTRING_IMPL_@ATL@@2_NB
CONST	SEGMENT
?c_bIsMFCDLLTraits@?$_MFCDLLTraitsCheck@DV?$StrTraitATL@DV?$ChTraitsCRT@D@ATL@@@ATL@@@_CSTRING_IMPL_@ATL@@2_NB DB 00H ; ATL::_CSTRING_IMPL_::_MFCDLLTraitsCheck<char,ATL::StrTraitATL<char,ATL::ChTraitsCRT<char> > >::c_bIsMFCDLLTraits
CONST	ENDS
;	COMDAT ?c_bIsMFCDLLTraits@?$_MFCDLLTraitsCheck@_WV?$StrTraitATL@_WV?$ChTraitsCRT@_W@ATL@@@ATL@@@_CSTRING_IMPL_@ATL@@2_NB
CONST	SEGMENT
?c_bIsMFCDLLTraits@?$_MFCDLLTraitsCheck@_WV?$StrTraitATL@_WV?$ChTraitsCRT@_W@ATL@@@ATL@@@_CSTRING_IMPL_@ATL@@2_NB DB 00H ; ATL::_CSTRING_IMPL_::_MFCDLLTraitsCheck<wchar_t,ATL::StrTraitATL<wchar_t,ATL::ChTraitsCRT<wchar_t> > >::c_bIsMFCDLLTraits
CONST	ENDS
CONST	SEGMENT
$SG199388 DB	'int', 00H
CONST	ENDS
_DATA	SEGMENT
_TYPE_CONFIG_INT DD FLAT:$SG199388
_DATA	ENDS
CONST	SEGMENT
$SG199390 DB	'str', 00H
CONST	ENDS
_DATA	SEGMENT
_TYPE_CONFIG_STR DD FLAT:$SG199390
_DATA	ENDS
CONST	SEGMENT
$SG199392 DB	'double', 00H
CONST	ENDS
_DATA	SEGMENT
_TYPE_CONFIG_DOUBLE DD FLAT:$SG199392
_DATA	ENDS
CONST	SEGMENT
	ORG $+1
$SG199394 DB	'bool', 00H
CONST	ENDS
_DATA	SEGMENT
_TYPE_CONFIG_BOOL DD FLAT:$SG199394
_DATA	ENDS
CONST	SEGMENT
	ORG $+3
$SG199396 DB	'sepint', 00H
CONST	ENDS
_DATA	SEGMENT
_TYPE_CONFIG_INT_HASSEP DD FLAT:$SG199396
_DATA	ENDS
CONST	SEGMENT
	ORG $+1
$SG199398 DB	'sepstr', 00H
CONST	ENDS
_DATA	SEGMENT
_TYPE_CONFIG_STR_HASSEP DD FLAT:$SG199398
_DATA	ENDS
CONST	SEGMENT
	ORG $+1
$SG199400 DB	'sepdouble', 00H
CONST	ENDS
_DATA	SEGMENT
_TYPE_CONFIG_DOUBLE_HASSEP DD FLAT:$SG199400
_DATA	ENDS
CONST	SEGMENT
	ORG $+2
$SG199402 DB	'sepbool', 00H
CONST	ENDS
_DATA	SEGMENT
_TYPE_CONFIG_BOOL_HASSEP DD FLAT:$SG199402
_DATA	ENDS
CONST	SEGMENT
$SG199404 DB	'Layout', 00H
CONST	ENDS
_DATA	SEGMENT
_CONF_LAYOUT_MODULE_NAME DD FLAT:$SG199404
_DATA	ENDS
CONST	SEGMENT
	ORG $+1
$SG199406 DB	'Normal', 00H
CONST	ENDS
_DATA	SEGMENT
_CONF_LAYOUT_NORMAL DD FLAT:$SG199406
_DATA	ENDS
CONST	SEGMENT
	ORG $+1
$SG199408 DB	'xPos', 00H
CONST	ENDS
_DATA	SEGMENT
_CONF_LAYOUT_X_POS DD FLAT:$SG199408
_DATA	ENDS
CONST	SEGMENT
	ORG $+3
$SG199410 DB	'yPos', 00H
CONST	ENDS
_DATA	SEGMENT
_CONF_LAYOUT_Y_POS DD FLAT:$SG199410
_DATA	ENDS
CONST	SEGMENT
	ORG $+3
$SG199412 DB	'Width', 00H
CONST	ENDS
_DATA	SEGMENT
_CONF_LAYOUT_WIDTH DD FLAT:$SG199412
_DATA	ENDS
CONST	SEGMENT
	ORG $+2
$SG199414 DB	'Height', 00H
CONST	ENDS
_DATA	SEGMENT
_CONF_LAYOUT_HEIGHT DD FLAT:$SG199414
_DATA	ENDS
CONST	SEGMENT
	ORG $+1
$SG199416 DB	'mincx', 00H
CONST	ENDS
_DATA	SEGMENT
_CONF_LAYOUT_MIN_WIDTH DD FLAT:$SG199416
_DATA	ENDS
CONST	SEGMENT
	ORG $+2
$SG199418 DB	'mincy', 00H
CONST	ENDS
_DATA	SEGMENT
_CONF_LAYOUT_MIN_HEIGHT DD FLAT:$SG199418
_DATA	ENDS
CONST	SEGMENT
	ORG $+2
$SG199425 DB	'App', 00H
CONST	ENDS
_DATA	SEGMENT
_CONF_APP_MODULE_NAME DD FLAT:$SG199425
_DATA	ENDS
CONST	SEGMENT
$SG199427 DB	'SwfPath', 00H
CONST	ENDS
_DATA	SEGMENT
_CONF_APP_SWF_PATH DD FLAT:$SG199427
_DATA	ENDS
CONST	SEGMENT
$SG199429 DB	'MainWndHold', 00H
CONST	ENDS
_DATA	SEGMENT
_CONF_APP_MAINWND_HOLD DD FLAT:$SG199429
_DATA	ENDS
CONST	SEGMENT
$SG199431 DB	'RunCount', 00H
CONST	ENDS
_DATA	SEGMENT
_CONF_APP_RUN_COUNT DD FLAT:$SG199431
_DATA	ENDS
CONST	SEGMENT
	ORG $+3
$SG199433 DB	'PlayedGame', 00H
CONST	ENDS
_DATA	SEGMENT
_CONF_APP_PLAYED_GAME DD FLAT:$SG199433
_DATA	ENDS
CONST	SEGMENT
	ORG $+1
$SG199435 DB	'playedPcGame', 00H
CONST	ENDS
_DATA	SEGMENT
_CONF_APP_PLAYED_PC_GAME DD FLAT:$SG199435
_DATA	ENDS
CONST	SEGMENT
	ORG $+3
$SG199437 DB	'PlayedIconSize', 00H
CONST	ENDS
_DATA	SEGMENT
_CONF_APP_PLAYED_ICON_SIZE DD FLAT:$SG199437
_DATA	ENDS
CONST	SEGMENT
	ORG $+1
$SG199439 DB	'PictureSavePath', 00H
CONST	ENDS
_DATA	SEGMENT
_CONF_APP_PIC_SAVE_PATH DD FLAT:$SG199439
_DATA	ENDS
CONST	SEGMENT
$SG199446 DB	'Setting', 00H
CONST	ENDS
_DATA	SEGMENT
_CONF_SETTING_MODULE_NAME DD FLAT:$SG199446
_DATA	ENDS
CONST	SEGMENT
$SG199448 DB	'skin', 00H
CONST	ENDS
_DATA	SEGMENT
_CONF_SETTING_SKIN_IDX DD FLAT:$SG199448
_DATA	ENDS
CONST	SEGMENT
	ORG $+3
$SG199450 DB	'MainPage', 00H
CONST	ENDS
_DATA	SEGMENT
_CONF_SETTING_CONFIG_MAIN_PAGE DD FLAT:$SG199450
_DATA	ENDS
CONST	SEGMENT
	ORG $+3
$SG199452 DB	'ProblemReport', 00H
CONST	ENDS
_DATA	SEGMENT
_CONF_SETTING_CONFIG_PROBLEM_REPORT DD FLAT:$SG199452
_DATA	ENDS
CONST	SEGMENT
	ORG $+2
$SG199454 DB	'HomePage', 00H
CONST	ENDS
_DATA	SEGMENT
_CONF_SETTING_CONFIG_HOME_PAGE DD FLAT:$SG199454
_DATA	ENDS
CONST	SEGMENT
	ORG $+3
$SG199456 DB	'askexit', 00H
CONST	ENDS
_DATA	SEGMENT
_CONF_SETTING_CONFIG_IFASKEXIT DD FLAT:$SG199456
_DATA	ENDS
CONST	SEGMENT
$SG199458 DB	'exitchoice', 00H
CONST	ENDS
_DATA	SEGMENT
_CONF_SETTING_CONFIG_EXITCHOICE DD FLAT:$SG199458
_DATA	ENDS
CONST	SEGMENT
	ORG $+1
$SG199460 DB	'UN', 00H
CONST	ENDS
_DATA	SEGMENT
_CONF_SETTING_LOGIN_USER_NAME DD FLAT:$SG199460
_DATA	ENDS
CONST	SEGMENT
	ORG $+1
$SG199462 DB	'PW', 00H
CONST	ENDS
_DATA	SEGMENT
_CONF_SETTING_LOGIN_PASSWORD DD FLAT:$SG199462
_DATA	ENDS
CONST	SEGMENT
	ORG $+1
$SG199464 DB	'NetID', 00H
CONST	ENDS
_DATA	SEGMENT
_CONF_SETTING_NETID DD FLAT:$SG199464
_DATA	ENDS
CONST	SEGMENT
	ORG $+2
$SG199466 DB	'ChangeColorValue', 00H
CONST	ENDS
_DATA	SEGMENT
_CONF_SETTING_COLOR DD FLAT:$SG199466
_DATA	ENDS
CONST	SEGMENT
	ORG $+3
$SG199468 DB	'changeColorLight', 00H
CONST	ENDS
_DATA	SEGMENT
_CONF_SETTING_LIGHT DD FLAT:$SG199468
_DATA	ENDS
CONST	SEGMENT
	ORG $+3
$SG199470 DB	'ColorIndex', 00H
CONST	ENDS
_DATA	SEGMENT
_CONF_SETTING_COLOR_BTN_INDEX DD FLAT:$SG199470
_DATA	ENDS
CONST	SEGMENT
	ORG $+1
$SG199472 DB	'ColorUser', 00H
CONST	ENDS
_DATA	SEGMENT
_CONF_SETTING_COLOR_USER DD FLAT:$SG199472
_DATA	ENDS
CONST	SEGMENT
	ORG $+2
$SG199474 DB	'FirstTimeChangeSkin', 00H
CONST	ENDS
_DATA	SEGMENT
_CONF_SETTING_FIRST_TIME_CHANGESKIN DD FLAT:$SG199474
_DATA	ENDS
;	COMDAT ?_messageEntries@CPlayBoxDlg@@0QBUAFX_MSGMAP_ENTRY@@B
CONST	SEGMENT
?_messageEntries@CPlayBoxDlg@@0QBUAFX_MSGMAP_ENTRY@@B DD 0fH ; CPlayBoxDlg::_messageEntries
	DD	00H
	DD	00H
	DD	00H
	DD	010H
	DD	FLAT:?OnPaint@CPlayBoxDlg@@IAEXXZ
	DD	037H
	DD	00H
	DD	00H
	DD	00H
	DD	025H
	DD	FLAT:?OnQueryDragIcon@CPlayBoxDlg@@IAEPAUHICON__@@XZ
	DD	0201H
	DD	00H
	DD	00H
	DD	00H
	DD	032H
	DD	FLAT:?OnLButtonDown@CPlayBoxDlg@@IAEXIVCPoint@@@Z
	DD	0200H
	DD	00H
	DD	00H
	DD	00H
	DD	032H
	DD	FLAT:?OnMouseMove@CPlayBoxDlg@@IAEXIVCPoint@@@Z
	DD	014H
	DD	00H
	DD	00H
	DD	00H
	DD	01H
	DD	FLAT:?OnEraseBkgnd@CPlayBoxDlg@@IAEHPAVCDC@@@Z
	DD	0202H
	DD	00H
	DD	00H
	DD	00H
	DD	032H
	DD	FLAT:?OnLButtonUp@CPlayBoxDlg@@IAEXIVCPoint@@@Z
	DD	02cH
	DD	00H
	DD	00H
	DD	00H
	DD	02bH
	DD	FLAT:?OnMeasureItem@CPlayBoxDlg@@IAEXHPAUtagMEASUREITEMSTRUCT@@@Z
	DD	05H
	DD	00H
	DD	00H
	DD	00H
	DD	016H
	DD	FLAT:?OnSize@CPlayBoxDlg@@IAEXIHH@Z
	DD	03H
	DD	00H
	DD	00H
	DD	00H
	DD	014H
	DD	FLAT:?OnMove@CPlayBoxDlg@@IAEXHH@Z
	DD	010H
	DD	00H
	DD	00H
	DD	00H
	DD	010H
	DD	FLAT:?OnClose@CPlayBoxDlg@@IAEXXZ
	DD	0111H
	DD	00H
	DD	02H
	DD	02H
	DD	035H
	DD	FLAT:??_9@$BBFI@AE
	DD	0111H
	DD	00H
	DD	01H
	DD	01H
	DD	035H
	DD	FLAT:??_9@$BBFE@AE
	DD	0935H
	DD	00H
	DD	00H
	DD	00H
	DD	0eH
	DD	FLAT:?OnTrayNotification@CPlayBoxDlg@@IAEJIJ@Z
	DD	065H
	DD	00H
	DD	00H
	DD	00H
	DD	0eH
	DD	FLAT:?OnShowTrayIconBalloon@CPlayBoxDlg@@IAEJIJ@Z
	DD	066H
	DD	00H
	DD	00H
	DD	00H
	DD	0eH
	DD	FLAT:?OnDeleteTray@CPlayBoxDlg@@QAEJIJ@Z
	DD	0410H
	DD	00H
	DD	00H
	DD	00H
	DD	0eH
	DD	FLAT:?OnAfterUiCreate@CPlayBoxDlg@@IAEJIJ@Z
	DD	040dH
	DD	00H
	DD	00H
	DD	00H
	DD	0eH
	DD	FLAT:?OnConfUpdate@CPlayBoxDlg@@IAEJIJ@Z
	DD	040cH
	DD	00H
	DD	00H
	DD	00H
	DD	0eH
	DD	FLAT:?OnChangeText@CPlayBoxDlg@@IAEJIJ@Z
	DD	040eH
	DD	00H
	DD	00H
	DD	00H
	DD	0eH
	DD	FLAT:?OnHTTPDonwload@CPlayBoxDlg@@IAEJIJ@Z
	DD	0113H
	DD	00H
	DD	00H
	DD	00H
	DD	011H
	DD	FLAT:?OnTimer@CPlayBoxDlg@@IAEXI@Z
	DD	018H
	DD	00H
	DD	00H
	DD	00H
	DD	012H
	DD	FLAT:?OnShowWindow@CPlayBoxDlg@@IAEXHI@Z
	DD	0112H
	DD	00H
	DD	00H
	DD	00H
	DD	01bH
	DD	FLAT:?OnSysCommand@CPlayBoxDlg@@QAEXIJ@Z
	DD	018H
	DD	00H
	DD	00H
	DD	00H
	DD	012H
	DD	FLAT:?OnShowWindow@CPlayBoxDlg@@IAEXHI@Z
	DD	011H
	DD	00H
	DD	00H
	DD	00H
	DD	01aH
	DD	FLAT:?OnQueryEndSession@CWnd@@IAEHXZ
	DD	0111H
	DD	00H
	DD	068H
	DD	068H
	DD	035H
	DD	FLAT:?OnTrayMenuSetting@CPlayBoxDlg@@QAEXXZ
	DD	0111H
	DD	00H
	DD	0e141H
	DD	0e141H
	DD	035H
	DD	FLAT:?OnTrayMenuExit@CPlayBoxDlg@@QAEXXZ
	DD	0111H
	DD	00H
	DD	089H
	DD	089H
	DD	035H
	DD	FLAT:?OnTrayMenuOpen@CPlayBoxDlg@@QAEXXZ
	DD	04aH
	DD	00H
	DD	00H
	DD	00H
	DD	06H
	DD	FLAT:?OnCopyData@CPlayBoxDlg@@IAEHPAVCWnd@@PAUtagCOPYDATASTRUCT@@@Z
	DD	024H
	DD	00H
	DD	00H
	DD	00H
	DD	029H
	DD	FLAT:?OnGetMinMaxInfo@CPlayBoxDlg@@QAEXPAUtagMINMAXINFO@@@Z
	DD	00H
	DD	00H
	DD	00H
	DD	00H
	DD	00H
	DD	00H
CONST	ENDS
;	COMDAT ?messageMap@CPlayBoxDlg@@1UAFX_MSGMAP@@B
CONST	SEGMENT
?messageMap@CPlayBoxDlg@@1UAFX_MSGMAP@@B DD FLAT:?GetThisMessageMap@CDialog@@KGPBUAFX_MSGMAP@@XZ ; CPlayBoxDlg::messageMap
	DD	FLAT:?_messageEntries@CPlayBoxDlg@@0QBUAFX_MSGMAP_ENTRY@@B
CONST	ENDS
CONST	SEGMENT
$SG207697 DB	'OnClose', 00H
$SG207698 DB	'PlayBoxDlg', 00H
	ORG $+1
$SG207699 DB	'main.txt', 00H
$SG207718 DB	00H
	ORG $+2
$SG207719 DB	'START_TIMEOUT', 00H
	ORG $+2
$SG207725 DB	'PBMutex', 00H
$SG207738 DB	0d0H, 0a1H, 0b1H, 0a6H, 0b1H, 0b4H, 0d3H, 0ceH, 0cfH, 0b7H
	DB	0baH, 0d0H, 00H
	ORG $+3
$SG207739 DB	0d0H, 0a1H, 0b1H, 0a6H, 0b1H, 0b4H, 0d3H, 0ceH, 0cfH, 0b7H
	DB	0baH, 0d0H, 00H
	ORG $+3
$SG207741 DB	'T:%d', 00H
	ORG $+3
$SG207744 DB	'AppInit', 00H
$SG207750 DB	'before post MSG_AFTER_UICREATE', 00H
	ORG $+1
$SG207751 DB	'OnInitDialog', 00H
	ORG $+3
$SG207752 DB	'main.txt', 00H
	ORG $+3
$SG207755 DB	'after post MSG_AFTER_UICREATE', 00H
	ORG $+2
$SG207756 DB	'OnInitDialog', 00H
	ORG $+3
$SG207757 DB	'main.txt', 00H
	ORG $+3
$SG207921 DB	'WM_KEYDOWN', 00H
	ORG $+1
$SG207922 DB	'message:%s-hwnd:%d', 00H
	ORG $+1
$SG207923 DB	'CPlayBoxDlg::PreTranslateMessage', 00H
	ORG $+3
$SG207924 DB	'gameplay.txt', 00H
	ORG $+3
$SG207932 DB	0d3H, 0d2H, 0bcH, 0fcH, 00H
	ORG $+3
$SG207933 DB	'message:%s-hwnd:%d', 00H
	ORG $+1
$SG207934 DB	'CPlayBoxDlg::PreTranslateMessage', 00H
	ORG $+3
$SG207935 DB	'gameplay.txt', 00H
	ORG $+3
$SG207940 DB	'WM_SETFOCUS', 00H
$SG207941 DB	'message:%s-hwnd:%d', 00H
	ORG $+1
$SG207942 DB	'CPlayBoxDlg::PreTranslateMessage', 00H
	ORG $+3
$SG207943 DB	'gameplay.txt', 00H
	ORG $+3
$SG208125 DB	'://', 00H
$SG208133 DB	'add', 00H
$SG208136 DB	'search', 00H
	ORG $+1
$SG208139 DB	'refresh', 00H
$SG208655 DB	'OnAfterUiCreate==IN', 00H
$SG208656 DB	'PlayBoxDlg', 00H
	ORG $+1
$SG208657 DB	'main.txt', 00H
	ORG $+3
$SG208658 DB	'PlayBox', 00H
$SG208662 DB	'OnAfterUiCreate==OUT', 00H
	ORG $+3
$SG208663 DB	'PlayBoxDlg', 00H
	ORG $+1
$SG208664 DB	'main.txt', 00H
$SG208694 DB	00H
CONST	ENDS
;	COMDAT ?g_pfnGetThreadACP@ATL@@3P6GIXZA
_DATA	SEGMENT
?g_pfnGetThreadACP@ATL@@3P6GIXZA DD FLAT:?_AtlGetThreadACPThunk@ATL@@YGIXZ ; ATL::g_pfnGetThreadACP
_DATA	ENDS
;	COMDAT ?_strthunks@ATL@@3U_AtlStringThunks@1@A
_DATA	SEGMENT
?_strthunks@ATL@@3U_AtlStringThunks@1@A DD FLAT:?CompareStringWThunk@ATL@@YGHKKPB_WH0H@Z ; ATL::_strthunks
	DD	FLAT:?GetStringTypeExWThunk@ATL@@YGHKKPB_WHPAG@Z
	DD	FLAT:?lstrcmpiWThunk@ATL@@YGHPB_W0@Z
	DD	FLAT:?CharLowerWThunk@ATL@@YGPA_WPA_W@Z
	DD	FLAT:?CharUpperWThunk@ATL@@YGPA_WPA_W@Z
	DD	FLAT:?GetEnvironmentVariableWThunk@ATL@@YGKPB_WPA_WK@Z
_DATA	ENDS
CONST	SEGMENT
	ORG $+2
_ID_MESSAGE_PANEL_CHANGE DD 02H
_ID_MESSAGE_REFRESH DD 04H
_ID_MESSAGE_LAYOUTMGR DD 08H
_ID_MESSAGE_CONFUPDATE DD 0aH
_ID_DATA_PANELCHANGE DD 05H
_ID_DATA_AD DD	0bH
CONST	ENDS
PUBLIC	?InterlockedExchangePointer@@YGPAXPAPAXPAX@Z	; InterlockedExchangePointer
PUBLIC	?_AtlGetThreadACPFake@ATL@@YGIXZ		; ATL::_AtlGetThreadACPFake
PUBLIC	?_AtlGetThreadACPReal@ATL@@YGIXZ		; ATL::_AtlGetThreadACPReal
EXTRN	___security_cookie:DWORD
EXTRN	@__security_check_cookie@4:NEAR
EXTRN	__imp__GetVersionExA@4:NEAR
; Function compile flags: /Odt
; File d:\program files (x86)\microsoft visual studio .net 2003\vc7\atlmfc\include\atlconv.h
;	COMDAT ?_AtlGetThreadACPThunk@ATL@@YGIXZ
_TEXT	SEGMENT
_pfnGetThreadACP$ = -164				; size = 4
_ver$ = -160						; size = 148
__$ArrayPad$ = -4					; size = 4
__$ReturnAddr$ = 4					; size = 4
?_AtlGetThreadACPThunk@ATL@@YGIXZ PROC NEAR		; ATL::_AtlGetThreadACPThunk, COMDAT

; 134  : {

  00000	55		 push	 ebp
  00001	8b ec		 mov	 ebp, esp
  00003	81 ec a4 00 00
	00		 sub	 esp, 164		; 000000a4H
  00009	a1 00 00 00 00	 mov	 eax, DWORD PTR ___security_cookie
  0000e	89 45 fc	 mov	 DWORD PTR __$ArrayPad$[ebp], eax

; 135  : 	OSVERSIONINFO ver;
; 136  : 	ATLGETTHREADACP pfnGetThreadACP;
; 137  : 
; 138  : 	ver.dwOSVersionInfoSize = sizeof( ver );

  00011	c7 85 60 ff ff
	ff 94 00 00 00	 mov	 DWORD PTR _ver$[ebp], 148 ; 00000094H

; 139  : 	::GetVersionEx( &ver );

  0001b	8d 85 60 ff ff
	ff		 lea	 eax, DWORD PTR _ver$[ebp]
  00021	50		 push	 eax
  00022	ff 15 00 00 00
	00		 call	 DWORD PTR __imp__GetVersionExA@4

; 140  : 	if( (ver.dwPlatformId == VER_PLATFORM_WIN32_NT) && (ver.dwMajorVersion >= 5) )

  00028	83 bd 70 ff ff
	ff 02		 cmp	 DWORD PTR _ver$[ebp+16], 2
  0002f	75 15		 jne	 SHORT $L24173
  00031	83 bd 64 ff ff
	ff 05		 cmp	 DWORD PTR _ver$[ebp+4], 5
  00038	72 0c		 jb	 SHORT $L24173

; 141  : 	{
; 142  : 		// On Win2K, CP_THREAD_ACP is supported
; 143  : 		pfnGetThreadACP = _AtlGetThreadACPReal;

  0003a	c7 85 5c ff ff
	ff 00 00 00 00	 mov	 DWORD PTR _pfnGetThreadACP$[ebp], OFFSET FLAT:?_AtlGetThreadACPReal@ATL@@YGIXZ ; ATL::_AtlGetThreadACPReal

; 144  : 	}
; 145  : 	else

  00044	eb 0a		 jmp	 SHORT $L24174
$L24173:

; 146  : 	{
; 147  : 		pfnGetThreadACP = _AtlGetThreadACPFake;

  00046	c7 85 5c ff ff
	ff 00 00 00 00	 mov	 DWORD PTR _pfnGetThreadACP$[ebp], OFFSET FLAT:?_AtlGetThreadACPFake@ATL@@YGIXZ ; ATL::_AtlGetThreadACPFake
$L24174:

; 148  : 	}
; 149  : 	InterlockedExchangePointer( reinterpret_cast< void** >(&g_pfnGetThreadACP), pfnGetThreadACP );

  00050	8b 8d 5c ff ff
	ff		 mov	 ecx, DWORD PTR _pfnGetThreadACP$[ebp]
  00056	51		 push	 ecx
  00057	68 00 00 00 00	 push	 OFFSET FLAT:?g_pfnGetThreadACP@ATL@@3P6GIXZA ; ATL::g_pfnGetThreadACP
  0005c	e8 00 00 00 00	 call	 ?InterlockedExchangePointer@@YGPAXPAPAXPAX@Z ; InterlockedExchangePointer

; 150  : 
; 151  : 	return( g_pfnGetThreadACP() );

  00061	ff 15 00 00 00
	00		 call	 DWORD PTR ?g_pfnGetThreadACP@ATL@@3P6GIXZA ; ATL::g_pfnGetThreadACP

; 152  : }

  00067	8b 4d fc	 mov	 ecx, DWORD PTR __$ArrayPad$[ebp]
  0006a	e8 00 00 00 00	 call	 @__security_check_cookie@4
  0006f	8b e5		 mov	 esp, ebp
  00071	5d		 pop	 ebp
  00072	c3		 ret	 0
?_AtlGetThreadACPThunk@ATL@@YGIXZ ENDP			; ATL::_AtlGetThreadACPThunk
_TEXT	ENDS
EXTRN	__imp__InterlockedExchange@8:NEAR
; Function compile flags: /Odt
;	COMDAT ?InterlockedExchangePointer@@YGPAXPAPAXPAX@Z
_TEXT	SEGMENT
_pp$ = 8						; size = 4
_pNew$ = 12						; size = 4
?InterlockedExchangePointer@@YGPAXPAPAXPAX@Z PROC NEAR	; InterlockedExchangePointer, COMDAT

; 91   : {

  00000	55		 push	 ebp
  00001	8b ec		 mov	 ebp, esp

; 92   : 	return( reinterpret_cast<void*>(static_cast<LONG_PTR>(::InterlockedExchange(reinterpret_cast<LONG*>(pp), static_cast<LONG>(reinterpret_cast<LONG_PTR>(pNew))))) );

  00003	8b 45 0c	 mov	 eax, DWORD PTR _pNew$[ebp]
  00006	50		 push	 eax
  00007	8b 4d 08	 mov	 ecx, DWORD PTR _pp$[ebp]
  0000a	51		 push	 ecx
  0000b	ff 15 00 00 00
	00		 call	 DWORD PTR __imp__InterlockedExchange@8

; 93   : }

  00011	5d		 pop	 ebp
  00012	c2 08 00	 ret	 8
?InterlockedExchangePointer@@YGPAXPAPAXPAX@Z ENDP	; InterlockedExchangePointer
_TEXT	ENDS
EXTRN	__imp__GetACP@0:NEAR
EXTRN	__imp__GetLocaleInfoA@16:NEAR
EXTRN	__imp__GetThreadLocale@0:NEAR
; Function compile flags: /Odt
;	COMDAT ?_AtlGetThreadACPFake@ATL@@YGIXZ
_TEXT	SEGMENT
_pch$24161 = -24					; size = 4
_lcidThread$ = -20					; size = 4
_szACP$ = -16						; size = 7
__$ArrayPad$ = -8					; size = 4
_nACP$ = -4						; size = 4
__$ReturnAddr$ = 4					; size = 4
?_AtlGetThreadACPFake@ATL@@YGIXZ PROC NEAR		; ATL::_AtlGetThreadACPFake, COMDAT

; 101  : {

  00000	55		 push	 ebp
  00001	8b ec		 mov	 ebp, esp
  00003	83 ec 18	 sub	 esp, 24			; 00000018H
  00006	a1 00 00 00 00	 mov	 eax, DWORD PTR ___security_cookie
  0000b	89 45 f8	 mov	 DWORD PTR __$ArrayPad$[ebp], eax

; 102  : 	UINT nACP = 0;

  0000e	c7 45 fc 00 00
	00 00		 mov	 DWORD PTR _nACP$[ebp], 0

; 103  : 
; 104  : 	LCID lcidThread = ::GetThreadLocale();

  00015	ff 15 00 00 00
	00		 call	 DWORD PTR __imp__GetThreadLocale@0
  0001b	89 45 ec	 mov	 DWORD PTR _lcidThread$[ebp], eax

; 105  : 
; 106  : 	char szACP[7];
; 107  : 	// GetLocaleInfoA will fail for a Unicode-only LCID, but those are only supported on 
; 108  : 	// Windows 2000.  Since Windows 2000 supports CP_THREAD_ACP, this code path is never
; 109  : 	// executed on Windows 2000.
; 110  : 	if (::GetLocaleInfoA(lcidThread, LOCALE_IDEFAULTANSICODEPAGE, szACP, 7) != 0)

  0001e	6a 07		 push	 7
  00020	8d 45 f0	 lea	 eax, DWORD PTR _szACP$[ebp]
  00023	50		 push	 eax
  00024	68 04 10 00 00	 push	 4100			; 00001004H
  00029	8b 4d ec	 mov	 ecx, DWORD PTR _lcidThread$[ebp]
  0002c	51		 push	 ecx
  0002d	ff 15 00 00 00
	00		 call	 DWORD PTR __imp__GetLocaleInfoA@16
  00033	85 c0		 test	 eax, eax
  00035	74 34		 je	 SHORT $L24160

; 111  : 	{
; 112  : 		char* pch = szACP;

  00037	8d 55 f0	 lea	 edx, DWORD PTR _szACP$[ebp]
  0003a	89 55 e8	 mov	 DWORD PTR _pch$24161[ebp], edx
$L24163:

; 113  : 		while (*pch != '\0')

  0003d	8b 45 e8	 mov	 eax, DWORD PTR _pch$24161[ebp]
  00040	0f be 08	 movsx	 ecx, BYTE PTR [eax]
  00043	85 c9		 test	 ecx, ecx
  00045	74 24		 je	 SHORT $L24160

; 114  : 		{
; 115  : 			nACP *= 10;

  00047	8b 55 fc	 mov	 edx, DWORD PTR _nACP$[ebp]
  0004a	6b d2 0a	 imul	 edx, 10			; 0000000aH
  0004d	89 55 fc	 mov	 DWORD PTR _nACP$[ebp], edx

; 116  : 			nACP += *pch++ - '0';

  00050	8b 45 e8	 mov	 eax, DWORD PTR _pch$24161[ebp]
  00053	0f be 08	 movsx	 ecx, BYTE PTR [eax]
  00056	8b 55 fc	 mov	 edx, DWORD PTR _nACP$[ebp]
  00059	8d 44 0a d0	 lea	 eax, DWORD PTR [edx+ecx-48]
  0005d	89 45 fc	 mov	 DWORD PTR _nACP$[ebp], eax
  00060	8b 4d e8	 mov	 ecx, DWORD PTR _pch$24161[ebp]
  00063	83 c1 01	 add	 ecx, 1
  00066	89 4d e8	 mov	 DWORD PTR _pch$24161[ebp], ecx

; 117  : 		}

  00069	eb d2		 jmp	 SHORT $L24163
$L24160:

; 118  : 	}
; 119  : 	// Use the Default ANSI Code Page if we were unable to get the thread ACP or if one does not exist.
; 120  : 	if (nACP == 0)

  0006b	83 7d fc 00	 cmp	 DWORD PTR _nACP$[ebp], 0
  0006f	75 09		 jne	 SHORT $L24165

; 121  : 		nACP = ::GetACP();

  00071	ff 15 00 00 00
	00		 call	 DWORD PTR __imp__GetACP@0
  00077	89 45 fc	 mov	 DWORD PTR _nACP$[ebp], eax
$L24165:

; 122  : 
; 123  : 	return nACP;

  0007a	8b 45 fc	 mov	 eax, DWORD PTR _nACP$[ebp]

; 124  : }

  0007d	8b 4d f8	 mov	 ecx, DWORD PTR __$ArrayPad$[ebp]
  00080	e8 00 00 00 00	 call	 @__security_check_cookie@4
  00085	8b e5		 mov	 esp, ebp
  00087	5d		 pop	 ebp
  00088	c3		 ret	 0
?_AtlGetThreadACPFake@ATL@@YGIXZ ENDP			; ATL::_AtlGetThreadACPFake
; Function compile flags: /Odt
_TEXT	ENDS
;	COMDAT ?_AtlGetThreadACPReal@ATL@@YGIXZ
_TEXT	SEGMENT
?_AtlGetThreadACPReal@ATL@@YGIXZ PROC NEAR		; ATL::_AtlGetThreadACPReal, COMDAT

; 127  : {

  00000	55		 push	 ebp
  00001	8b ec		 mov	 ebp, esp

; 128  : 	return( CP_THREAD_ACP );

  00003	b8 03 00 00 00	 mov	 eax, 3

; 129  : }

  00008	5d		 pop	 ebp
  00009	c3		 ret	 0
?_AtlGetThreadACPReal@ATL@@YGIXZ ENDP			; ATL::_AtlGetThreadACPReal
_TEXT	ENDS
PUBLIC	?IPanelChangeOb_ToFullScreen@IPanelChangeObserver@@UAEXPAVCWnd@@@Z ; IPanelChangeObserver::IPanelChangeOb_ToFullScreen
PUBLIC	?IPanelChangeOb_ExitFullScreen@IPanelChangeObserver@@UAEXPAVCWnd@@@Z ; IPanelChangeObserver::IPanelChangeOb_ExitFullScreen
PUBLIC	??0IPanelChangeObserver@@QAE@XZ			; IPanelChangeObserver::IPanelChangeObserver
PUBLIC	??1IPanelChangeObserver@@UAE@XZ			; IPanelChangeObserver::~IPanelChangeObserver
PUBLIC	??0CPlayBoxDlg@@QAE@_NPAVCWnd@@@Z		; CPlayBoxDlg::CPlayBoxDlg
PUBLIC	?DoDataExchange@CPlayBoxDlg@@MAEXPAVCDataExchange@@@Z ; CPlayBoxDlg::DoDataExchange
PUBLIC	?OnConfigChange@CPlayBoxDlg@@MAEXABV?$basic_string@DU?$char_traits@D@std@@V?$allocator@D@2@@std@@@Z ; CPlayBoxDlg::OnConfigChange
PUBLIC	?OnInitDialog@CPlayBoxDlg@@MAEHXZ		; CPlayBoxDlg::OnInitDialog
PUBLIC	??0CPoint@@QAE@XZ				; CPoint::CPoint
PUBLIC	?OnCancel@CPlayBoxDlg@@MAEXXZ			; CPlayBoxDlg::OnCancel
PUBLIC	?OnOK@CPlayBoxDlg@@MAEXXZ			; CPlayBoxDlg::OnOK
PUBLIC	?PreTranslateMessage@CPlayBoxDlg@@MAEHPAUtagMSG@@@Z ; CPlayBoxDlg::PreTranslateMessage
PUBLIC	??0CRect@@QAE@XZ				; CRect::CRect
PUBLIC	?GetMessageMap@CPlayBoxDlg@@MBEPBUAFX_MSGMAP@@XZ ; CPlayBoxDlg::GetMessageMap
PUBLIC	?Create@CDialog@@UAEHIPAVCWnd@@@Z		; CDialog::Create
PUBLIC	?ILayoutChangeOb_SkinChanged@CPlayBoxDlg@@UAEXV?$basic_string@DU?$char_traits@D@std@@V?$allocator@D@2@@std@@0@Z ; CPlayBoxDlg::ILayoutChangeOb_SkinChanged
PUBLIC	?IPanelChangeOb_WindowMax@CPlayBoxDlg@@UAEXXZ	; CPlayBoxDlg::IPanelChangeOb_WindowMax
PUBLIC	?IPanelChangeOb_WindowMin@CPlayBoxDlg@@UAEXXZ	; CPlayBoxDlg::IPanelChangeOb_WindowMin
PUBLIC	?IPanelChangeOb_WindowRestore@CPlayBoxDlg@@UAEXXZ ; CPlayBoxDlg::IPanelChangeOb_WindowRestore
PUBLIC	??_R0?AVIPanelChangeObserver@@@8		; IPanelChangeObserver `RTTI Type Descriptor'
PUBLIC	??_7CPlayBoxDlg@@6BCDialog@@@			; CPlayBoxDlg::`vftable'
PUBLIC	??_R4CPlayBoxDlg@@6BCDialog@@@			; CPlayBoxDlg::`RTTI Complete Object Locator'
PUBLIC	??_R0?AVCPlayBoxDlg@@@8				; CPlayBoxDlg `RTTI Type Descriptor'
PUBLIC	??_7CPlayBoxDlg@@6BAfxUserConfig_Observer@@@	; CPlayBoxDlg::`vftable'
PUBLIC	??_R3CPlayBoxDlg@@8				; CPlayBoxDlg::`RTTI Class Hierarchy Descriptor'
PUBLIC	??_R2CPlayBoxDlg@@8				; CPlayBoxDlg::`RTTI Base Class Array'
PUBLIC	??_7CPlayBoxDlg@@6BILayoutChangeObserver@@@	; CPlayBoxDlg::`vftable'
PUBLIC	??_R1A@?0A@A@CPlayBoxDlg@@8			; CPlayBoxDlg::`RTTI Base Class Descriptor at (0,-1,0,0)'
PUBLIC	??_R1HE@?0A@A@AfxUserConfig_Observer@@8		; AfxUserConfig_Observer::`RTTI Base Class Descriptor at (116,-1,0,0)'
PUBLIC	??_7CPlayBoxDlg@@6BIPanelChangeObserver@@@	; CPlayBoxDlg::`vftable'
PUBLIC	??_R0?AVAfxUserConfig_Observer@@@8		; AfxUserConfig_Observer `RTTI Type Descriptor'
PUBLIC	??_R1HI@?0A@A@ILayoutChangeObserver@@8		; ILayoutChangeObserver::`RTTI Base Class Descriptor at (120,-1,0,0)'
PUBLIC	??_R0?AVILayoutChangeObserver@@@8		; ILayoutChangeObserver `RTTI Type Descriptor'
PUBLIC	??_GCPlayBoxDlg@@UAEPAXI@Z			; CPlayBoxDlg::`scalar deleting destructor'
PUBLIC	??_R1HI@?0A@1IMessageObserver@@8		; IMessageObserver::`RTTI Base Class Descriptor at (120,-1,0,2)'
PUBLIC	??_R1HM@?0A@A@IPanelChangeObserver@@8		; IPanelChangeObserver::`RTTI Base Class Descriptor at (124,-1,0,0)'
PUBLIC	??_R1HM@?0A@1IMessageObserver@@8		; IMessageObserver::`RTTI Base Class Descriptor at (124,-1,0,2)'
PUBLIC	??_R4CPlayBoxDlg@@6BAfxUserConfig_Observer@@@	; CPlayBoxDlg::`RTTI Complete Object Locator'
PUBLIC	??_ECPlayBoxDlg@@WHI@AEPAXI@Z			; [thunk]:CPlayBoxDlg::`vector deleting destructor'
PUBLIC	??_R4CPlayBoxDlg@@6BILayoutChangeObserver@@@	; CPlayBoxDlg::`RTTI Complete Object Locator'
PUBLIC	??_ECPlayBoxDlg@@WHM@AEPAXI@Z			; [thunk]:CPlayBoxDlg::`vector deleting destructor'
PUBLIC	??_R4CPlayBoxDlg@@6BIPanelChangeObserver@@@	; CPlayBoxDlg::`RTTI Complete Object Locator'
PUBLIC	??_R1A@?0A@A@CObject@@8				; CObject::`RTTI Base Class Descriptor at (0,-1,0,0)'
PUBLIC	??_R0?AVCObject@@@8				; CObject `RTTI Type Descriptor'
PUBLIC	??_R1A@?0A@A@CWnd@@8				; CWnd::`RTTI Base Class Descriptor at (0,-1,0,0)'
PUBLIC	??_R0?AVCWnd@@@8				; CWnd `RTTI Type Descriptor'
PUBLIC	??_R1A@?0A@A@CCmdTarget@@8			; CCmdTarget::`RTTI Base Class Descriptor at (0,-1,0,0)'
PUBLIC	??_R0?AVCCmdTarget@@@8				; CCmdTarget `RTTI Type Descriptor'
PUBLIC	??0AfxUserConfig_Observer@@QAE@XZ		; AfxUserConfig_Observer::AfxUserConfig_Observer
PUBLIC	??_R1A@?0A@A@CDialog@@8				; CDialog::`RTTI Base Class Descriptor at (0,-1,0,0)'
PUBLIC	??_R0?AVCDialog@@@8				; CDialog `RTTI Type Descriptor'
PUBLIC	??2CObject@@SGPAXI@Z				; CObject::operator new
PUBLIC	??_R0?AVIMessageObserver@@@8			; IMessageObserver `RTTI Type Descriptor'
PUBLIC	??3CObject@@SGXPAX@Z				; CObject::operator delete
PUBLIC	?Serialize@CObject@@UAEXAAVCArchive@@@Z		; CObject::Serialize
PUBLIC	?AssertValid@CObject@@UBEXXZ			; CObject::AssertValid
PUBLIC	?Dump@CObject@@UBEXAAVCDumpContext@@@Z		; CObject::Dump
PUBLIC	?AfxGetApp@@YGPAVCWinApp@@XZ			; AfxGetApp
PUBLIC	?LoadIconA@CWinApp@@QBEPAUHICON__@@I@Z		; CWinApp::LoadIconA
PUBLIC	?BeginModalState@CWnd@@UAEXXZ			; CWnd::BeginModalState
PUBLIC	?EndModalState@CWnd@@UAEXXZ			; CWnd::EndModalState
PUBLIC	?ILayoutChangeOb_LayerChanged@ILayoutChangeObserver@@UAEXV?$basic_string@DU?$char_traits@D@std@@V?$allocator@D@2@@std@@00@Z ; ILayoutChangeObserver::ILayoutChangeOb_LayerChanged
PUBLIC	?ILayoutChangeOb_PaneChanged@ILayoutChangeObserver@@UAEXV?$basic_string@DU?$char_traits@D@std@@V?$allocator@D@2@@std@@0@Z ; ILayoutChangeObserver::ILayoutChangeOb_PaneChanged
PUBLIC	?ILayoutChangeOb_ColorChanged@ILayoutChangeObserver@@UAEXXZ ; ILayoutChangeObserver::ILayoutChangeOb_ColorChanged
PUBLIC	?ILayoutChangeOb_ColorChanging@ILayoutChangeObserver@@UAEXXZ ; ILayoutChangeObserver::ILayoutChangeOb_ColorChanging
PUBLIC	?ILayoutChangeOb_UpdateLayout@ILayoutChangeObserver@@UAEXPAUHWND__@@@Z ; ILayoutChangeObserver::ILayoutChangeOb_UpdateLayout
PUBLIC	?ILayoutChangeOb_InitFinished@ILayoutChangeObserver@@UAEXXZ ; ILayoutChangeObserver::ILayoutChangeOb_InitFinished
PUBLIC	?ILayoutChangeOb_InitBegin@ILayoutChangeObserver@@UAEXXZ ; ILayoutChangeObserver::ILayoutChangeOb_InitBegin
PUBLIC	??0ILayoutChangeObserver@@QAE@XZ		; ILayoutChangeObserver::ILayoutChangeObserver
PUBLIC	??1ILayoutChangeObserver@@UAE@XZ		; ILayoutChangeObserver::~ILayoutChangeObserver
PUBLIC	?IPanelChangeOb_WindowClose@IPanelChangeObserver@@UAEXXZ ; IPanelChangeObserver::IPanelChangeOb_WindowClose
EXTRN	?CreateControlContainer@CWnd@@MAEHPAPAVCOleControlContainer@@@Z:NEAR ; CWnd::CreateControlContainer
EXTRN	?CreateControlSite@CWnd@@MAEHPAVCOleControlContainer@@PAPAVCOleControlSite@@IABU_GUID@@@Z:NEAR ; CWnd::CreateControlSite
EXTRN	__except_list:DWORD
EXTRN	___CxxFrameHandler:NEAR
EXTRN	?GetRuntimeClass@CDialog@@UBEPAUCRuntimeClass@@XZ:NEAR ; CDialog::GetRuntimeClass
EXTRN	?Create@CDialog@@UAEHPBDPAVCWnd@@@Z:NEAR	; CDialog::Create
EXTRN	?CreateIndirect@CDialog@@UAEHPBUDLGTEMPLATE@@PAVCWnd@@PAX@Z:NEAR ; CDialog::CreateIndirect
EXTRN	?CreateIndirect@CDialog@@UAEHPAXPAVCWnd@@@Z:NEAR ; CDialog::CreateIndirect
EXTRN	?OnToolHitTest@CWnd@@UBEHVCPoint@@PAUtagTOOLINFOA@@@Z:NEAR ; CWnd::OnToolHitTest
EXTRN	??0CDialog@@QAE@IPAVCWnd@@@Z:NEAR		; CDialog::CDialog
EXTRN	?DoModal@CDialog@@UAEHXZ:NEAR			; CDialog::DoModal
EXTRN	?OnSetFont@CDialog@@UAEXPAVCFont@@@Z:NEAR	; CDialog::OnSetFont
EXTRN	??1CDialog@@UAE@XZ:NEAR				; CDialog::~CDialog
EXTRN	?OnCmdMsg@CDialog@@UAEHIHPAXPAUAFX_CMDHANDLERINFO@@@Z:NEAR ; CDialog::OnCmdMsg
EXTRN	?CheckAutoCenter@CDialog@@UAEHXZ:NEAR		; CDialog::CheckAutoCenter
EXTRN	??_ECPlayBoxDlg@@UAEPAXI@Z:NEAR			; CPlayBoxDlg::`vector deleting destructor'
EXTRN	?SetOccDialogInfo@CDialog@@MAEHPAU_AFX_OCC_DIALOG_INFO@@@Z:NEAR ; CDialog::SetOccDialogInfo
EXTRN	?PreInitDialog@CDialog@@MAEXXZ:NEAR		; CDialog::PreInitDialog
EXTRN	?GetScrollBarCtrl@CWnd@@UBEPAVCScrollBar@@H@Z:NEAR ; CWnd::GetScrollBarCtrl
EXTRN	?WinHelpA@CWnd@@UAEXKI@Z:NEAR			; CWnd::WinHelpA
EXTRN	?HtmlHelpA@CWnd@@UAEXKI@Z:NEAR			; CWnd::HtmlHelpA
EXTRN	?WinHelpInternal@CWnd@@UAEXKI@Z:NEAR		; CWnd::WinHelpInternal
EXTRN	?ContinueModal@CWnd@@UAEHXZ:NEAR		; CWnd::ContinueModal
EXTRN	?EndModalLoop@CWnd@@UAEXH@Z:NEAR		; CWnd::EndModalLoop
EXTRN	?GetInterfaceMap@CWnd@@MBEPBUAFX_INTERFACEMAP@@XZ:NEAR ; CWnd::GetInterfaceMap
EXTRN	?EnsureStdObj@CWnd@@UAEJXZ:NEAR			; CWnd::EnsureStdObj
EXTRN	?get_accParent@CWnd@@UAEJPAPAUIDispatch@@@Z:NEAR ; CWnd::get_accParent
EXTRN	?get_accChildCount@CWnd@@UAEJPAJ@Z:NEAR		; CWnd::get_accChildCount
EXTRN	?get_accChild@CWnd@@UAEJUtagVARIANT@@PAPAUIDispatch@@@Z:NEAR ; CWnd::get_accChild
EXTRN	?IsInvokeAllowed@CCmdTarget@@UAEHJ@Z:NEAR	; CCmdTarget::IsInvokeAllowed
EXTRN	?get_accName@CWnd@@UAEJUtagVARIANT@@PAPA_W@Z:NEAR ; CWnd::get_accName
EXTRN	?get_accValue@CWnd@@UAEJUtagVARIANT@@PAPA_W@Z:NEAR ; CWnd::get_accValue
EXTRN	?get_accDescription@CWnd@@UAEJUtagVARIANT@@PAPA_W@Z:NEAR ; CWnd::get_accDescription
EXTRN	?GetDispatchIID@CCmdTarget@@UAEHPAU_GUID@@@Z:NEAR ; CCmdTarget::GetDispatchIID
EXTRN	?GetTypeInfoCount@CCmdTarget@@UAEIXZ:NEAR	; CCmdTarget::GetTypeInfoCount
EXTRN	?GetTypeLibCache@CCmdTarget@@UAEPAVCTypeLibCache@@XZ:NEAR ; CCmdTarget::GetTypeLibCache
EXTRN	?get_accRole@CWnd@@UAEJUtagVARIANT@@PAU2@@Z:NEAR ; CWnd::get_accRole
EXTRN	?GetTypeLib@CCmdTarget@@UAEJKPAPAUITypeLib@@@Z:NEAR ; CCmdTarget::GetTypeLib
EXTRN	?get_accState@CWnd@@UAEJUtagVARIANT@@PAU2@@Z:NEAR ; CWnd::get_accState
EXTRN	?get_accHelp@CWnd@@UAEJUtagVARIANT@@PAPA_W@Z:NEAR ; CWnd::get_accHelp
EXTRN	?get_accHelpTopic@CWnd@@UAEJPAPA_WUtagVARIANT@@PAJ@Z:NEAR ; CWnd::get_accHelpTopic
EXTRN	?get_accKeyboardShortcut@CWnd@@UAEJUtagVARIANT@@PAPA_W@Z:NEAR ; CWnd::get_accKeyboardShortcut
EXTRN	?get_accFocus@CWnd@@UAEJPAUtagVARIANT@@@Z:NEAR	; CWnd::get_accFocus
EXTRN	?get_accSelection@CWnd@@UAEJPAUtagVARIANT@@@Z:NEAR ; CWnd::get_accSelection
EXTRN	?get_accDefaultAction@CWnd@@UAEJUtagVARIANT@@PAPA_W@Z:NEAR ; CWnd::get_accDefaultAction
EXTRN	?GetCommandMap@CCmdTarget@@MBEPBUAFX_OLECMDMAP@@XZ:NEAR ; CCmdTarget::GetCommandMap
EXTRN	?accSelect@CWnd@@UAEJJUtagVARIANT@@@Z:NEAR	; CWnd::accSelect
EXTRN	?accLocation@CWnd@@UAEJPAJ000UtagVARIANT@@@Z:NEAR ; CWnd::accLocation
EXTRN	?GetDispatchMap@CCmdTarget@@MBEPBUAFX_DISPMAP@@XZ:NEAR ; CCmdTarget::GetDispatchMap
EXTRN	?accNavigate@CWnd@@UAEJJUtagVARIANT@@PAU2@@Z:NEAR ; CWnd::accNavigate
EXTRN	?accHitTest@CWnd@@UAEJJJPAUtagVARIANT@@@Z:NEAR	; CWnd::accHitTest
EXTRN	?GetConnectionMap@CCmdTarget@@MBEPBUAFX_CONNECTIONMAP@@XZ:NEAR ; CCmdTarget::GetConnectionMap
EXTRN	?accDoDefaultAction@CWnd@@UAEJUtagVARIANT@@@Z:NEAR ; CWnd::accDoDefaultAction
EXTRN	?put_accName@CWnd@@UAEJUtagVARIANT@@PA_W@Z:NEAR	; CWnd::put_accName
EXTRN	?put_accValue@CWnd@@UAEJUtagVARIANT@@PA_W@Z:NEAR ; CWnd::put_accValue
EXTRN	?SetProxy@CWnd@@UAEJPAUIAccessibleProxy@@@Z:NEAR ; CWnd::SetProxy
EXTRN	?CreateAccessibleProxy@CWnd@@UAEJIJPAJ@Z:NEAR	; CWnd::CreateAccessibleProxy
EXTRN	?GetEventSinkMap@CCmdTarget@@MBEPBUAFX_EVENTSINKMAP@@XZ:NEAR ; CCmdTarget::GetEventSinkMap
EXTRN	?OnCreateAggregates@CCmdTarget@@UAEHXZ:NEAR	; CCmdTarget::OnCreateAggregates
EXTRN	?OnCommand@CWnd@@MAEHIJ@Z:NEAR			; CWnd::OnCommand
EXTRN	?GetInterfaceHook@CCmdTarget@@UAEPAUIUnknown@@PBX@Z:NEAR ; CCmdTarget::GetInterfaceHook
EXTRN	?OnNotify@CWnd@@MAEHIJPAJ@Z:NEAR		; CWnd::OnNotify
EXTRN	?GetExtraConnectionPoints@CCmdTarget@@MAEHPAVCPtrArray@@@Z:NEAR ; CCmdTarget::GetExtraConnectionPoints
EXTRN	?GetConnectionHook@CCmdTarget@@MAEPAUIConnectionPoint@@ABU_GUID@@@Z:NEAR ; CCmdTarget::GetConnectionHook
EXTRN	?PreSubclassWindow@CWnd@@UAEXXZ:NEAR		; CWnd::PreSubclassWindow
EXTRN	?Create@CWnd@@UAEHPBD0KABUtagRECT@@PAV1@IPAUCCreateContext@@@Z:NEAR ; CWnd::Create
EXTRN	__imp_??0?$basic_string@DU?$char_traits@D@std@@V?$allocator@D@2@@std@@QAE@XZ:NEAR
EXTRN	?CreateEx@CWnd@@UAEHKPBD0KHHHHPAUHWND__@@PAUHMENU__@@PAX@Z:NEAR ; CWnd::CreateEx
EXTRN	?CreateEx@CWnd@@UAEHKPBD0KABUtagRECT@@PAV1@IPAX@Z:NEAR ; CWnd::CreateEx
EXTRN	??0CTrayIcon@@QAE@I@Z:NEAR			; CTrayIcon::CTrayIcon
EXTRN	?DestroyWindow@CWnd@@UAEHXZ:NEAR		; CWnd::DestroyWindow
EXTRN	?PreCreateWindow@CWnd@@UAEHAAUtagCREATESTRUCTA@@@Z:NEAR ; CWnd::PreCreateWindow
EXTRN	?CalcWindowRect@CWnd@@UAEXPAUtagRECT@@I@Z:NEAR	; CWnd::CalcWindowRect
EXTRN	__imp_??1?$basic_string@DU?$char_traits@D@std@@V?$allocator@D@2@@std@@QAE@XZ:NEAR
EXTRN	?GetSuperWndProcAddr@CWnd@@MAEPAP6GJPAUHWND__@@IIJ@ZXZ:NEAR ; CWnd::GetSuperWndProcAddr
EXTRN	??_7type_info@@6B@:QWORD			; type_info::`vftable'
EXTRN	?OnAmbientProperty@CWnd@@UAEHPAVCOleControlSite@@JPAUtagVARIANT@@@Z:NEAR ; CWnd::OnAmbientProperty
EXTRN	?WindowProc@CWnd@@MAEJIIJ@Z:NEAR		; CWnd::WindowProc
EXTRN	?OnWndMsg@CWnd@@MAEHIIJPAJ@Z:NEAR		; CWnd::OnWndMsg
EXTRN	?DefWindowProcA@CWnd@@MAEJIIJ@Z:NEAR		; CWnd::DefWindowProcA
EXTRN	?PostNcDestroy@CWnd@@MAEXXZ:NEAR		; CWnd::PostNcDestroy
EXTRN	?OnChildNotify@CWnd@@MAEHIIJPAJ@Z:NEAR		; CWnd::OnChildNotify
EXTRN	__imp__GetTickCount@0:NEAR
EXTRN	?IsFrameWnd@CWnd@@UBEHXZ:NEAR			; CWnd::IsFrameWnd
EXTRN	?OnFinalRelease@CWnd@@UAEXXZ:NEAR		; CWnd::OnFinalRelease
xdata$x	SEGMENT
$T209968 DD	0ffffffffH
	DD	FLAT:$L209955
	DD	00H
	DD	FLAT:$L209956
	DD	01H
	DD	FLAT:$L209957
	DD	02H
	DD	FLAT:$L209958
	DD	03H
	DD	FLAT:$L209959
	DD	04H
	DD	FLAT:$L209960
	DD	05H
	DD	FLAT:$L209961
$T209965 DD	019930520H
	DD	07H
	DD	FLAT:$T209968
	DD	2 DUP(00H)
	DD	2 DUP(00H)
xdata$x	ENDS
;	COMDAT ??_7CPlayBoxDlg@@6BCDialog@@@
; File d:\boxgit\playbox\playbox\dev\prj\playbox\playboxdlg.cpp
CONST	SEGMENT
??_7CPlayBoxDlg@@6BCDialog@@@ DD FLAT:??_R4CPlayBoxDlg@@6BCDialog@@@ ; CPlayBoxDlg::`vftable'
	DD	FLAT:?GetRuntimeClass@CDialog@@UBEPAUCRuntimeClass@@XZ
	DD	FLAT:??_ECPlayBoxDlg@@UAEPAXI@Z
	DD	FLAT:?Serialize@CObject@@UAEXAAVCArchive@@@Z
	DD	FLAT:?AssertValid@CObject@@UBEXXZ
	DD	FLAT:?Dump@CObject@@UBEXAAVCDumpContext@@@Z
	DD	FLAT:?OnCmdMsg@CDialog@@UAEHIHPAXPAUAFX_CMDHANDLERINFO@@@Z
	DD	FLAT:?OnFinalRelease@CWnd@@UAEXXZ
	DD	FLAT:?IsInvokeAllowed@CCmdTarget@@UAEHJ@Z
	DD	FLAT:?GetDispatchIID@CCmdTarget@@UAEHPAU_GUID@@@Z
	DD	FLAT:?GetTypeInfoCount@CCmdTarget@@UAEIXZ
	DD	FLAT:?GetTypeLibCache@CCmdTarget@@UAEPAVCTypeLibCache@@XZ
	DD	FLAT:?GetTypeLib@CCmdTarget@@UAEJKPAPAUITypeLib@@@Z
	DD	FLAT:?GetMessageMap@CPlayBoxDlg@@MBEPBUAFX_MSGMAP@@XZ
	DD	FLAT:?GetCommandMap@CCmdTarget@@MBEPBUAFX_OLECMDMAP@@XZ
	DD	FLAT:?GetDispatchMap@CCmdTarget@@MBEPBUAFX_DISPMAP@@XZ
	DD	FLAT:?GetConnectionMap@CCmdTarget@@MBEPBUAFX_CONNECTIONMAP@@XZ
	DD	FLAT:?GetInterfaceMap@CWnd@@MBEPBUAFX_INTERFACEMAP@@XZ
	DD	FLAT:?GetEventSinkMap@CCmdTarget@@MBEPBUAFX_EVENTSINKMAP@@XZ
	DD	FLAT:?OnCreateAggregates@CCmdTarget@@UAEHXZ
	DD	FLAT:?GetInterfaceHook@CCmdTarget@@UAEPAUIUnknown@@PBX@Z
	DD	FLAT:?GetExtraConnectionPoints@CCmdTarget@@MAEHPAVCPtrArray@@@Z
	DD	FLAT:?GetConnectionHook@CCmdTarget@@MAEPAUIConnectionPoint@@ABU_GUID@@@Z
	DD	FLAT:?PreSubclassWindow@CWnd@@UAEXXZ
	DD	FLAT:?Create@CWnd@@UAEHPBD0KABUtagRECT@@PAV1@IPAUCCreateContext@@@Z
	DD	FLAT:?CreateEx@CWnd@@UAEHKPBD0KABUtagRECT@@PAV1@IPAX@Z
	DD	FLAT:?CreateEx@CWnd@@UAEHKPBD0KHHHHPAUHWND__@@PAUHMENU__@@PAX@Z
	DD	FLAT:?DestroyWindow@CWnd@@UAEHXZ
	DD	FLAT:?PreCreateWindow@CWnd@@UAEHAAUtagCREATESTRUCTA@@@Z
	DD	FLAT:?CalcWindowRect@CWnd@@UAEXPAUtagRECT@@I@Z
	DD	FLAT:?OnToolHitTest@CWnd@@UBEHVCPoint@@PAUtagTOOLINFOA@@@Z
	DD	FLAT:?GetScrollBarCtrl@CWnd@@UBEPAVCScrollBar@@H@Z
	DD	FLAT:?WinHelpA@CWnd@@UAEXKI@Z
	DD	FLAT:?HtmlHelpA@CWnd@@UAEXKI@Z
	DD	FLAT:?WinHelpInternal@CWnd@@UAEXKI@Z
	DD	FLAT:?ContinueModal@CWnd@@UAEHXZ
	DD	FLAT:?EndModalLoop@CWnd@@UAEXH@Z
	DD	FLAT:?EnsureStdObj@CWnd@@UAEJXZ
	DD	FLAT:?get_accParent@CWnd@@UAEJPAPAUIDispatch@@@Z
	DD	FLAT:?get_accChildCount@CWnd@@UAEJPAJ@Z
	DD	FLAT:?get_accChild@CWnd@@UAEJUtagVARIANT@@PAPAUIDispatch@@@Z
	DD	FLAT:?get_accName@CWnd@@UAEJUtagVARIANT@@PAPA_W@Z
	DD	FLAT:?get_accValue@CWnd@@UAEJUtagVARIANT@@PAPA_W@Z
	DD	FLAT:?get_accDescription@CWnd@@UAEJUtagVARIANT@@PAPA_W@Z
	DD	FLAT:?get_accRole@CWnd@@UAEJUtagVARIANT@@PAU2@@Z
	DD	FLAT:?get_accState@CWnd@@UAEJUtagVARIANT@@PAU2@@Z
	DD	FLAT:?get_accHelp@CWnd@@UAEJUtagVARIANT@@PAPA_W@Z
	DD	FLAT:?get_accHelpTopic@CWnd@@UAEJPAPA_WUtagVARIANT@@PAJ@Z
	DD	FLAT:?get_accKeyboardShortcut@CWnd@@UAEJUtagVARIANT@@PAPA_W@Z
	DD	FLAT:?get_accFocus@CWnd@@UAEJPAUtagVARIANT@@@Z
	DD	FLAT:?get_accSelection@CWnd@@UAEJPAUtagVARIANT@@@Z
	DD	FLAT:?get_accDefaultAction@CWnd@@UAEJUtagVARIANT@@PAPA_W@Z
	DD	FLAT:?accSelect@CWnd@@UAEJJUtagVARIANT@@@Z
	DD	FLAT:?accLocation@CWnd@@UAEJPAJ000UtagVARIANT@@@Z
	DD	FLAT:?accNavigate@CWnd@@UAEJJUtagVARIANT@@PAU2@@Z
	DD	FLAT:?accHitTest@CWnd@@UAEJJJPAUtagVARIANT@@@Z
	DD	FLAT:?accDoDefaultAction@CWnd@@UAEJUtagVARIANT@@@Z
	DD	FLAT:?put_accName@CWnd@@UAEJUtagVARIANT@@PA_W@Z
	DD	FLAT:?put_accValue@CWnd@@UAEJUtagVARIANT@@PA_W@Z
	DD	FLAT:?SetProxy@CWnd@@UAEJPAUIAccessibleProxy@@@Z
	DD	FLAT:?CreateAccessibleProxy@CWnd@@UAEJIJPAJ@Z
	DD	FLAT:?OnCommand@CWnd@@MAEHIJ@Z
	DD	FLAT:?OnNotify@CWnd@@MAEHIJPAJ@Z
	DD	FLAT:?GetSuperWndProcAddr@CWnd@@MAEPAP6GJPAUHWND__@@IIJ@ZXZ
	DD	FLAT:?DoDataExchange@CPlayBoxDlg@@MAEXPAVCDataExchange@@@Z
	DD	FLAT:?BeginModalState@CWnd@@UAEXXZ
	DD	FLAT:?EndModalState@CWnd@@UAEXXZ
	DD	FLAT:?PreTranslateMessage@CPlayBoxDlg@@MAEHPAUtagMSG@@@Z
	DD	FLAT:?OnAmbientProperty@CWnd@@UAEHPAVCOleControlSite@@JPAUtagVARIANT@@@Z
	DD	FLAT:?WindowProc@CWnd@@MAEJIIJ@Z
	DD	FLAT:?OnWndMsg@CWnd@@MAEHIIJPAJ@Z
	DD	FLAT:?DefWindowProcA@CWnd@@MAEJIIJ@Z
	DD	FLAT:?PostNcDestroy@CWnd@@MAEXXZ
	DD	FLAT:?OnChildNotify@CWnd@@MAEHIIJPAJ@Z
	DD	FLAT:?CheckAutoCenter@CDialog@@UAEHXZ
	DD	FLAT:?IsFrameWnd@CWnd@@UBEHXZ
	DD	FLAT:?CreateControlContainer@CWnd@@MAEHPAPAVCOleControlContainer@@@Z
	DD	FLAT:?CreateControlSite@CWnd@@MAEHPAVCOleControlContainer@@PAPAVCOleControlSite@@IABU_GUID@@@Z
	DD	FLAT:?SetOccDialogInfo@CDialog@@MAEHPAU_AFX_OCC_DIALOG_INFO@@@Z
	DD	FLAT:?Create@CDialog@@UAEHIPAVCWnd@@@Z
	DD	FLAT:?Create@CDialog@@UAEHPBDPAVCWnd@@@Z
	DD	FLAT:?CreateIndirect@CDialog@@UAEHPAXPAVCWnd@@@Z
	DD	FLAT:?CreateIndirect@CDialog@@UAEHPBUDLGTEMPLATE@@PAVCWnd@@PAX@Z
	DD	FLAT:?DoModal@CDialog@@UAEHXZ
	DD	FLAT:?OnInitDialog@CPlayBoxDlg@@MAEHXZ
	DD	FLAT:?OnSetFont@CDialog@@UAEXPAVCFont@@@Z
	DD	FLAT:?OnOK@CPlayBoxDlg@@MAEXXZ
	DD	FLAT:?OnCancel@CPlayBoxDlg@@MAEXXZ
	DD	FLAT:?PreInitDialog@CDialog@@MAEXXZ
CONST	ENDS
;	COMDAT ??_7CPlayBoxDlg@@6BAfxUserConfig_Observer@@@
CONST	SEGMENT
??_7CPlayBoxDlg@@6BAfxUserConfig_Observer@@@ DD FLAT:??_R4CPlayBoxDlg@@6BAfxUserConfig_Observer@@@ ; CPlayBoxDlg::`vftable'
	DD	FLAT:?OnConfigChange@CPlayBoxDlg@@MAEXABV?$basic_string@DU?$char_traits@D@std@@V?$allocator@D@2@@std@@@Z
CONST	ENDS
;	COMDAT ??_7CPlayBoxDlg@@6BILayoutChangeObserver@@@
CONST	SEGMENT
??_7CPlayBoxDlg@@6BILayoutChangeObserver@@@ DD FLAT:??_R4CPlayBoxDlg@@6BILayoutChangeObserver@@@ ; CPlayBoxDlg::`vftable'
	DD	FLAT:??_ECPlayBoxDlg@@WHI@AEPAXI@Z
	DD	FLAT:?ILayoutChangeOb_LayerChanged@ILayoutChangeObserver@@UAEXV?$basic_string@DU?$char_traits@D@std@@V?$allocator@D@2@@std@@00@Z
	DD	FLAT:?ILayoutChangeOb_PaneChanged@ILayoutChangeObserver@@UAEXV?$basic_string@DU?$char_traits@D@std@@V?$allocator@D@2@@std@@0@Z
	DD	FLAT:?ILayoutChangeOb_SkinChanged@CPlayBoxDlg@@UAEXV?$basic_string@DU?$char_traits@D@std@@V?$allocator@D@2@@std@@0@Z
	DD	FLAT:?ILayoutChangeOb_ColorChanged@ILayoutChangeObserver@@UAEXXZ
	DD	FLAT:?ILayoutChangeOb_ColorChanging@ILayoutChangeObserver@@UAEXXZ
	DD	FLAT:?ILayoutChangeOb_UpdateLayout@ILayoutChangeObserver@@UAEXPAUHWND__@@@Z
	DD	FLAT:?ILayoutChangeOb_InitFinished@ILayoutChangeObserver@@UAEXXZ
	DD	FLAT:?ILayoutChangeOb_InitBegin@ILayoutChangeObserver@@UAEXXZ
CONST	ENDS
;	COMDAT ??_7CPlayBoxDlg@@6BIPanelChangeObserver@@@
CONST	SEGMENT
??_7CPlayBoxDlg@@6BIPanelChangeObserver@@@ DD FLAT:??_R4CPlayBoxDlg@@6BIPanelChangeObserver@@@ ; CPlayBoxDlg::`vftable'
	DD	FLAT:??_ECPlayBoxDlg@@WHM@AEPAXI@Z
	DD	FLAT:?IPanelChangeOb_WindowMax@CPlayBoxDlg@@UAEXXZ
	DD	FLAT:?IPanelChangeOb_WindowMin@CPlayBoxDlg@@UAEXXZ
	DD	FLAT:?IPanelChangeOb_WindowRestore@CPlayBoxDlg@@UAEXXZ
	DD	FLAT:?IPanelChangeOb_WindowClose@IPanelChangeObserver@@UAEXXZ
	DD	FLAT:?IPanelChangeOb_ToFullScreen@IPanelChangeObserver@@UAEXPAVCWnd@@@Z
	DD	FLAT:?IPanelChangeOb_ExitFullScreen@IPanelChangeObserver@@UAEXPAVCWnd@@@Z
CONST	ENDS
;	COMDAT ??_R4CPlayBoxDlg@@6BCDialog@@@
rdata$r	SEGMENT
??_R4CPlayBoxDlg@@6BCDialog@@@ DD 00H			; CPlayBoxDlg::`RTTI Complete Object Locator'
	DD	00H
	DD	00H
	DD	FLAT:??_R0?AVCPlayBoxDlg@@@8
	DD	FLAT:??_R3CPlayBoxDlg@@8
rdata$r	ENDS
;	COMDAT ??_R0?AVCPlayBoxDlg@@@8
_DATA	SEGMENT
??_R0?AVCPlayBoxDlg@@@8 DD FLAT:??_7type_info@@6B@	; CPlayBoxDlg `RTTI Type Descriptor'
	DD	00H
	DB	'.?AVCPlayBoxDlg@@', 00H
_DATA	ENDS
;	COMDAT ??_R3CPlayBoxDlg@@8
rdata$r	SEGMENT
??_R3CPlayBoxDlg@@8 DD 00H				; CPlayBoxDlg::`RTTI Class Hierarchy Descriptor'
	DD	05H
	DD	0aH
	DD	FLAT:??_R2CPlayBoxDlg@@8
rdata$r	ENDS
;	COMDAT ??_R2CPlayBoxDlg@@8
rdata$r	SEGMENT
??_R2CPlayBoxDlg@@8 DD FLAT:??_R1A@?0A@A@CPlayBoxDlg@@8	; CPlayBoxDlg::`RTTI Base Class Array'
	DD	FLAT:??_R1A@?0A@A@CDialog@@8
	DD	FLAT:??_R1A@?0A@A@CWnd@@8
	DD	FLAT:??_R1A@?0A@A@CCmdTarget@@8
	DD	FLAT:??_R1A@?0A@A@CObject@@8
	DD	FLAT:??_R1HE@?0A@A@AfxUserConfig_Observer@@8
	DD	FLAT:??_R1HI@?0A@A@ILayoutChangeObserver@@8
	DD	FLAT:??_R1HI@?0A@1IMessageObserver@@8
	DD	FLAT:??_R1HM@?0A@A@IPanelChangeObserver@@8
	DD	FLAT:??_R1HM@?0A@1IMessageObserver@@8
rdata$r	ENDS
;	COMDAT ??_R1A@?0A@A@CPlayBoxDlg@@8
rdata$r	SEGMENT
??_R1A@?0A@A@CPlayBoxDlg@@8 DD FLAT:??_R0?AVCPlayBoxDlg@@@8 ; CPlayBoxDlg::`RTTI Base Class Descriptor at (0,-1,0,0)'
	DD	09H
	DD	00H
	DD	0ffffffffH
	DD	00H
	DD	00H
rdata$r	ENDS
;	COMDAT ??_R1A@?0A@A@CDialog@@8
rdata$r	SEGMENT
??_R1A@?0A@A@CDialog@@8 DD FLAT:??_R0?AVCDialog@@@8	; CDialog::`RTTI Base Class Descriptor at (0,-1,0,0)'
	DD	03H
	DD	00H
	DD	0ffffffffH
	DD	00H
	DD	00H
rdata$r	ENDS
;	COMDAT ??_R0?AVCDialog@@@8
_DATA	SEGMENT
??_R0?AVCDialog@@@8 DD FLAT:??_7type_info@@6B@		; CDialog `RTTI Type Descriptor'
	DD	00H
	DB	'.?AVCDialog@@', 00H
_DATA	ENDS
;	COMDAT ??_R1A@?0A@A@CWnd@@8
rdata$r	SEGMENT
??_R1A@?0A@A@CWnd@@8 DD FLAT:??_R0?AVCWnd@@@8		; CWnd::`RTTI Base Class Descriptor at (0,-1,0,0)'
	DD	02H
	DD	00H
	DD	0ffffffffH
	DD	00H
	DD	00H
rdata$r	ENDS
;	COMDAT ??_R0?AVCWnd@@@8
_DATA	SEGMENT
??_R0?AVCWnd@@@8 DD FLAT:??_7type_info@@6B@		; CWnd `RTTI Type Descriptor'
	DD	00H
	DB	'.?AVCWnd@@', 00H
_DATA	ENDS
;	COMDAT ??_R1A@?0A@A@CCmdTarget@@8
rdata$r	SEGMENT
??_R1A@?0A@A@CCmdTarget@@8 DD FLAT:??_R0?AVCCmdTarget@@@8 ; CCmdTarget::`RTTI Base Class Descriptor at (0,-1,0,0)'
	DD	01H
	DD	00H
	DD	0ffffffffH
	DD	00H
	DD	00H
rdata$r	ENDS
;	COMDAT ??_R0?AVCCmdTarget@@@8
_DATA	SEGMENT
??_R0?AVCCmdTarget@@@8 DD FLAT:??_7type_info@@6B@	; CCmdTarget `RTTI Type Descriptor'
	DD	00H
	DB	'.?AVCCmdTarget@@', 00H
_DATA	ENDS
;	COMDAT ??_R1A@?0A@A@CObject@@8
rdata$r	SEGMENT
??_R1A@?0A@A@CObject@@8 DD FLAT:??_R0?AVCObject@@@8	; CObject::`RTTI Base Class Descriptor at (0,-1,0,0)'
	DD	00H
	DD	00H
	DD	0ffffffffH
	DD	00H
	DD	00H
rdata$r	ENDS
;	COMDAT ??_R0?AVCObject@@@8
_DATA	SEGMENT
??_R0?AVCObject@@@8 DD FLAT:??_7type_info@@6B@		; CObject `RTTI Type Descriptor'
	DD	00H
	DB	'.?AVCObject@@', 00H
_DATA	ENDS
;	COMDAT ??_R1HE@?0A@A@AfxUserConfig_Observer@@8
rdata$r	SEGMENT
??_R1HE@?0A@A@AfxUserConfig_Observer@@8 DD FLAT:??_R0?AVAfxUserConfig_Observer@@@8 ; AfxUserConfig_Observer::`RTTI Base Class Descriptor at (116,-1,0,0)'
	DD	00H
	DD	074H
	DD	0ffffffffH
	DD	00H
	DD	00H
rdata$r	ENDS
;	COMDAT ??_R0?AVAfxUserConfig_Observer@@@8
_DATA	SEGMENT
??_R0?AVAfxUserConfig_Observer@@@8 DD FLAT:??_7type_info@@6B@ ; AfxUserConfig_Observer `RTTI Type Descriptor'
	DD	00H
	DB	'.?AVAfxUserConfig_Observer@@', 00H
_DATA	ENDS
;	COMDAT ??_R1HI@?0A@A@ILayoutChangeObserver@@8
rdata$r	SEGMENT
??_R1HI@?0A@A@ILayoutChangeObserver@@8 DD FLAT:??_R0?AVILayoutChangeObserver@@@8 ; ILayoutChangeObserver::`RTTI Base Class Descriptor at (120,-1,0,0)'
	DD	01H
	DD	078H
	DD	0ffffffffH
	DD	00H
	DD	00H
rdata$r	ENDS
;	COMDAT ??_R0?AVILayoutChangeObserver@@@8
_DATA	SEGMENT
??_R0?AVILayoutChangeObserver@@@8 DD FLAT:??_7type_info@@6B@ ; ILayoutChangeObserver `RTTI Type Descriptor'
	DD	00H
	DB	'.?AVILayoutChangeObserver@@', 00H
_DATA	ENDS
;	COMDAT ??_R1HI@?0A@1IMessageObserver@@8
rdata$r	SEGMENT
??_R1HI@?0A@1IMessageObserver@@8 DD FLAT:??_R0?AVIMessageObserver@@@8 ; IMessageObserver::`RTTI Base Class Descriptor at (120,-1,0,2)'
	DD	00H
	DD	078H
	DD	0ffffffffH
	DD	00H
	DD	02H
rdata$r	ENDS
;	COMDAT ??_R0?AVIMessageObserver@@@8
_DATA	SEGMENT
??_R0?AVIMessageObserver@@@8 DD FLAT:??_7type_info@@6B@	; IMessageObserver `RTTI Type Descriptor'
	DD	00H
	DB	'.?AVIMessageObserver@@', 00H
	ORG $-31
	DD	FLAT:??_7type_info@@6B@
	DD	00H
	DB	'.?AVIMessageObserver@@', 00H
_DATA	ENDS
;	COMDAT ??_R1HM@?0A@A@IPanelChangeObserver@@8
rdata$r	SEGMENT
??_R1HM@?0A@A@IPanelChangeObserver@@8 DD FLAT:??_R0?AVIPanelChangeObserver@@@8 ; IPanelChangeObserver::`RTTI Base Class Descriptor at (124,-1,0,0)'
	DD	01H
	DD	07cH
	DD	0ffffffffH
	DD	00H
	DD	00H
rdata$r	ENDS
;	COMDAT ??_R0?AVIPanelChangeObserver@@@8
_DATA	SEGMENT
??_R0?AVIPanelChangeObserver@@@8 DD FLAT:??_7type_info@@6B@ ; IPanelChangeObserver `RTTI Type Descriptor'
	DD	00H
	DB	'.?AVIPanelChangeObserver@@', 00H
_DATA	ENDS
;	COMDAT ??_R1HM@?0A@1IMessageObserver@@8
rdata$r	SEGMENT
??_R1HM@?0A@1IMessageObserver@@8 DD FLAT:??_R0?AVIMessageObserver@@@8 ; IMessageObserver::`RTTI Base Class Descriptor at (124,-1,0,2)'
	DD	00H
	DD	07cH
	DD	0ffffffffH
	DD	00H
	DD	02H
rdata$r	ENDS
;	COMDAT ??_R4CPlayBoxDlg@@6BAfxUserConfig_Observer@@@
rdata$r	SEGMENT
??_R4CPlayBoxDlg@@6BAfxUserConfig_Observer@@@ DD 00H	; CPlayBoxDlg::`RTTI Complete Object Locator'
	DD	074H
	DD	00H
	DD	FLAT:??_R0?AVCPlayBoxDlg@@@8
	DD	FLAT:??_R3CPlayBoxDlg@@8
rdata$r	ENDS
;	COMDAT ??_R4CPlayBoxDlg@@6BILayoutChangeObserver@@@
rdata$r	SEGMENT
??_R4CPlayBoxDlg@@6BILayoutChangeObserver@@@ DD 00H	; CPlayBoxDlg::`RTTI Complete Object Locator'
	DD	078H
	DD	00H
	DD	FLAT:??_R0?AVCPlayBoxDlg@@@8
	DD	FLAT:??_R3CPlayBoxDlg@@8
rdata$r	ENDS
;	COMDAT ??_R4CPlayBoxDlg@@6BIPanelChangeObserver@@@
rdata$r	SEGMENT
??_R4CPlayBoxDlg@@6BIPanelChangeObserver@@@ DD 00H	; CPlayBoxDlg::`RTTI Complete Object Locator'
	DD	07cH
	DD	00H
	DD	FLAT:??_R0?AVCPlayBoxDlg@@@8
	DD	FLAT:??_R3CPlayBoxDlg@@8
; Function compile flags: /Odt
rdata$r	ENDS
_TEXT	SEGMENT
tv156 = -28						; size = 4
_this$ = -24						; size = 4
$T209952 = -20						; size = 4
$T209951 = -16						; size = 4
__$EHRec$ = -12						; size = 12
_bStartupRun$ = 8					; size = 1
_pParent$ = 12						; size = 4
??0CPlayBoxDlg@@QAE@_NPAVCWnd@@@Z PROC NEAR		; CPlayBoxDlg::CPlayBoxDlg
; _this$ = ecx

; 38   : {

  00000	55		 push	 ebp
  00001	8b ec		 mov	 ebp, esp
  00003	6a ff		 push	 -1
  00005	68 00 00 00 00	 push	 __ehhandler$??0CPlayBoxDlg@@QAE@_NPAVCWnd@@@Z
  0000a	64 a1 00 00 00
	00		 mov	 eax, DWORD PTR fs:__except_list
  00010	50		 push	 eax
  00011	64 89 25 00 00
	00 00		 mov	 DWORD PTR fs:__except_list, esp
  00018	83 ec 10	 sub	 esp, 16			; 00000010H
  0001b	89 4d e8	 mov	 DWORD PTR _this$[ebp], ecx
  0001e	8b 45 0c	 mov	 eax, DWORD PTR _pParent$[ebp]
  00021	50		 push	 eax
  00022	6a 66		 push	 102			; 00000066H
  00024	8b 4d e8	 mov	 ecx, DWORD PTR _this$[ebp]
  00027	e8 00 00 00 00	 call	 ??0CDialog@@QAE@IPAVCWnd@@@Z ; CDialog::CDialog
  0002c	c7 45 fc 00 00
	00 00		 mov	 DWORD PTR __$EHRec$[ebp+8], 0
  00033	8b 4d e8	 mov	 ecx, DWORD PTR _this$[ebp]
  00036	83 c1 74	 add	 ecx, 116		; 00000074H
  00039	e8 00 00 00 00	 call	 ??0AfxUserConfig_Observer@@QAE@XZ
  0003e	8b 4d e8	 mov	 ecx, DWORD PTR _this$[ebp]
  00041	83 c1 78	 add	 ecx, 120		; 00000078H
  00044	e8 00 00 00 00	 call	 ??0ILayoutChangeObserver@@QAE@XZ
  00049	c6 45 fc 01	 mov	 BYTE PTR __$EHRec$[ebp+8], 1
  0004d	8b 4d e8	 mov	 ecx, DWORD PTR _this$[ebp]
  00050	83 c1 7c	 add	 ecx, 124		; 0000007cH
  00053	e8 00 00 00 00	 call	 ??0IPanelChangeObserver@@QAE@XZ
  00058	c6 45 fc 02	 mov	 BYTE PTR __$EHRec$[ebp+8], 2
  0005c	8b 4d e8	 mov	 ecx, DWORD PTR _this$[ebp]
  0005f	c7 01 00 00 00
	00		 mov	 DWORD PTR [ecx], OFFSET FLAT:??_7CPlayBoxDlg@@6BCDialog@@@
  00065	8b 55 e8	 mov	 edx, DWORD PTR _this$[ebp]
  00068	c7 42 74 00 00
	00 00		 mov	 DWORD PTR [edx+116], OFFSET FLAT:??_7CPlayBoxDlg@@6BAfxUserConfig_Observer@@@
  0006f	8b 45 e8	 mov	 eax, DWORD PTR _this$[ebp]
  00072	c7 40 78 00 00
	00 00		 mov	 DWORD PTR [eax+120], OFFSET FLAT:??_7CPlayBoxDlg@@6BILayoutChangeObserver@@@
  00079	8b 4d e8	 mov	 ecx, DWORD PTR _this$[ebp]
  0007c	c7 41 7c 00 00
	00 00		 mov	 DWORD PTR [ecx+124], OFFSET FLAT:??_7CPlayBoxDlg@@6BIPanelChangeObserver@@@
  00083	8b 4d e8	 mov	 ecx, DWORD PTR _this$[ebp]
  00086	81 c1 94 00 00
	00		 add	 ecx, 148		; 00000094H
  0008c	e8 00 00 00 00	 call	 ??0CRect@@QAE@XZ	; CRect::CRect
  00091	8b 4d e8	 mov	 ecx, DWORD PTR _this$[ebp]
  00094	81 c1 ac 00 00
	00		 add	 ecx, 172		; 000000acH
  0009a	e8 00 00 00 00	 call	 ??0CPoint@@QAE@XZ	; CPoint::CPoint
  0009f	8b 4d e8	 mov	 ecx, DWORD PTR _this$[ebp]
  000a2	81 c1 b4 00 00
	00		 add	 ecx, 180		; 000000b4H
  000a8	e8 00 00 00 00	 call	 ??0CRect@@QAE@XZ	; CRect::CRect
  000ad	8b 4d e8	 mov	 ecx, DWORD PTR _this$[ebp]
  000b0	81 c1 e4 00 00
	00		 add	 ecx, 228		; 000000e4H
  000b6	ff 15 00 00 00
	00		 call	 DWORD PTR __imp_??0?$basic_string@DU?$char_traits@D@std@@V?$allocator@D@2@@std@@QAE@XZ
  000bc	c6 45 fc 03	 mov	 BYTE PTR __$EHRec$[ebp+8], 3
  000c0	8b 4d e8	 mov	 ecx, DWORD PTR _this$[ebp]
  000c3	81 c1 00 01 00
	00		 add	 ecx, 256		; 00000100H
  000c9	ff 15 00 00 00
	00		 call	 DWORD PTR __imp_??0?$basic_string@DU?$char_traits@D@std@@V?$allocator@D@2@@std@@QAE@XZ
  000cf	c6 45 fc 04	 mov	 BYTE PTR __$EHRec$[ebp+8], 4
  000d3	8b 4d e8	 mov	 ecx, DWORD PTR _this$[ebp]
  000d6	81 c1 1c 01 00
	00		 add	 ecx, 284		; 0000011cH
  000dc	ff 15 00 00 00
	00		 call	 DWORD PTR __imp_??0?$basic_string@DU?$char_traits@D@std@@V?$allocator@D@2@@std@@QAE@XZ
  000e2	c6 45 fc 05	 mov	 BYTE PTR __$EHRec$[ebp+8], 5

; 39   : 	m_ptrayIcon = new CTrayIcon(IDR_MAINFRAME);

  000e6	68 0c 03 00 00	 push	 780			; 0000030cH
  000eb	e8 00 00 00 00	 call	 ??2CObject@@SGPAXI@Z	; CObject::operator new
  000f0	89 45 ec	 mov	 DWORD PTR $T209952[ebp], eax
  000f3	c6 45 fc 06	 mov	 BYTE PTR __$EHRec$[ebp+8], 6
  000f7	83 7d ec 00	 cmp	 DWORD PTR $T209952[ebp], 0
  000fb	74 12		 je	 SHORT $L209953
  000fd	68 80 00 00 00	 push	 128			; 00000080H
  00102	8b 4d ec	 mov	 ecx, DWORD PTR $T209952[ebp]
  00105	e8 00 00 00 00	 call	 ??0CTrayIcon@@QAE@I@Z	; CTrayIcon::CTrayIcon
  0010a	89 45 e4	 mov	 DWORD PTR tv156[ebp], eax
  0010d	eb 07		 jmp	 SHORT $L209954
$L209953:
  0010f	c7 45 e4 00 00
	00 00		 mov	 DWORD PTR tv156[ebp], 0
$L209954:
  00116	8b 55 e4	 mov	 edx, DWORD PTR tv156[ebp]
  00119	89 55 f0	 mov	 DWORD PTR $T209951[ebp], edx
  0011c	c6 45 fc 05	 mov	 BYTE PTR __$EHRec$[ebp+8], 5
  00120	8b 45 e8	 mov	 eax, DWORD PTR _this$[ebp]
  00123	8b 4d f0	 mov	 ecx, DWORD PTR $T209951[ebp]
  00126	89 88 90 00 00
	00		 mov	 DWORD PTR [eax+144], ecx

; 40   : 	m_hIcon = AfxGetApp()->LoadIcon(IDR_MAINFRAME);

  0012c	68 80 00 00 00	 push	 128			; 00000080H
  00131	e8 00 00 00 00	 call	 ?AfxGetApp@@YGPAVCWinApp@@XZ ; AfxGetApp
  00136	8b c8		 mov	 ecx, eax
  00138	e8 00 00 00 00	 call	 ?LoadIconA@CWinApp@@QBEPAUHICON__@@I@Z ; CWinApp::LoadIconA
  0013d	8b 55 e8	 mov	 edx, DWORD PTR _this$[ebp]
  00140	89 82 8c 00 00
	00		 mov	 DWORD PTR [edx+140], eax

; 41   : 	
; 42   : 	m_bIsResizing = FALSE;

  00146	8b 45 e8	 mov	 eax, DWORD PTR _this$[ebp]
  00149	c7 80 a8 00 00
	00 00 00 00 00	 mov	 DWORD PTR [eax+168], 0

; 43   : 	m_ptStartResizing.x = 0;

  00153	8b 4d e8	 mov	 ecx, DWORD PTR _this$[ebp]
  00156	c7 81 ac 00 00
	00 00 00 00 00	 mov	 DWORD PTR [ecx+172], 0

; 44   : 	m_ptStartResizing.y = 0;

  00160	8b 55 e8	 mov	 edx, DWORD PTR _this$[ebp]
  00163	c7 82 b0 00 00
	00 00 00 00 00	 mov	 DWORD PTR [edx+176], 0

; 45   : 	m_rectStarResizing.left = 0;

  0016d	8b 45 e8	 mov	 eax, DWORD PTR _this$[ebp]
  00170	c7 80 b4 00 00
	00 00 00 00 00	 mov	 DWORD PTR [eax+180], 0

; 46   : 	m_rectStarResizing.right = 0;

  0017a	8b 4d e8	 mov	 ecx, DWORD PTR _this$[ebp]
  0017d	c7 81 bc 00 00
	00 00 00 00 00	 mov	 DWORD PTR [ecx+188], 0

; 47   : 	m_rectStarResizing.top = 0;

  00187	8b 55 e8	 mov	 edx, DWORD PTR _this$[ebp]
  0018a	c7 82 b8 00 00
	00 00 00 00 00	 mov	 DWORD PTR [edx+184], 0

; 48   : 	m_rectStarResizing.bottom = 0;

  00194	8b 45 e8	 mov	 eax, DWORD PTR _this$[ebp]
  00197	c7 80 c0 00 00
	00 00 00 00 00	 mov	 DWORD PTR [eax+192], 0

; 49   : 	m_iDirection = 0;

  001a1	8b 4d e8	 mov	 ecx, DWORD PTR _this$[ebp]
  001a4	c7 81 a4 00 00
	00 00 00 00 00	 mov	 DWORD PTR [ecx+164], 0

; 50   : 	m_dwFrontTime = 0;

  001ae	8b 55 e8	 mov	 edx, DWORD PTR _this$[ebp]
  001b1	c7 82 80 00 00
	00 00 00 00 00	 mov	 DWORD PTR [edx+128], 0

; 51   : 	m_dwLastFrontTime = GetTickCount();

  001bb	ff 15 00 00 00
	00		 call	 DWORD PTR __imp__GetTickCount@0
  001c1	8b 4d e8	 mov	 ecx, DWORD PTR _this$[ebp]
  001c4	89 81 dc 00 00
	00		 mov	 DWORD PTR [ecx+220], eax

; 52   : 	m_bExit = false;

  001ca	8b 55 e8	 mov	 edx, DWORD PTR _this$[ebp]
  001cd	c7 82 84 00 00
	00 00 00 00 00	 mov	 DWORD PTR [edx+132], 0

; 53   : 	m_bStartupRun = bStartupRun;

  001d7	8b 45 e8	 mov	 eax, DWORD PTR _this$[ebp]
  001da	8a 4d 08	 mov	 cl, BYTE PTR _bStartupRun$[ebp]
  001dd	88 88 88 00 00
	00		 mov	 BYTE PTR [eax+136], cl

; 54   : }

  001e3	c7 45 fc ff ff
	ff ff		 mov	 DWORD PTR __$EHRec$[ebp+8], -1
  001ea	8b 45 e8	 mov	 eax, DWORD PTR _this$[ebp]
  001ed	8b 4d f4	 mov	 ecx, DWORD PTR __$EHRec$[ebp]
  001f0	64 89 0d 00 00
	00 00		 mov	 DWORD PTR fs:__except_list, ecx
  001f7	8b e5		 mov	 esp, ebp
  001f9	5d		 pop	 ebp
  001fa	c2 08 00	 ret	 8
_TEXT	ENDS
text$x	SEGMENT
$L209955:
  00000	8b 4d e8	 mov	 ecx, DWORD PTR _this$[ebp]
  00003	e9 00 00 00 00	 jmp	 ??1CDialog@@UAE@XZ	; CDialog::~CDialog
$L209956:
  00008	8b 4d e8	 mov	 ecx, DWORD PTR _this$[ebp]
  0000b	83 c1 78	 add	 ecx, 120		; 00000078H
  0000e	e9 00 00 00 00	 jmp	 ??1ILayoutChangeObserver@@UAE@XZ
$L209957:
  00013	8b 4d e8	 mov	 ecx, DWORD PTR _this$[ebp]
  00016	83 c1 7c	 add	 ecx, 124		; 0000007cH
  00019	e9 00 00 00 00	 jmp	 ??1IPanelChangeObserver@@UAE@XZ
$L209958:
  0001e	8b 4d e8	 mov	 ecx, DWORD PTR _this$[ebp]
  00021	81 c1 e4 00 00
	00		 add	 ecx, 228		; 000000e4H
  00027	ff 25 00 00 00
	00		 jmp	 DWORD PTR __imp_??1?$basic_string@DU?$char_traits@D@std@@V?$allocator@D@2@@std@@QAE@XZ
$L209959:
  0002d	8b 4d e8	 mov	 ecx, DWORD PTR _this$[ebp]
  00030	81 c1 00 01 00
	00		 add	 ecx, 256		; 00000100H
  00036	ff 25 00 00 00
	00		 jmp	 DWORD PTR __imp_??1?$basic_string@DU?$char_traits@D@std@@V?$allocator@D@2@@std@@QAE@XZ
$L209960:
  0003c	8b 4d e8	 mov	 ecx, DWORD PTR _this$[ebp]
  0003f	81 c1 1c 01 00
	00		 add	 ecx, 284		; 0000011cH
  00045	ff 25 00 00 00
	00		 jmp	 DWORD PTR __imp_??1?$basic_string@DU?$char_traits@D@std@@V?$allocator@D@2@@std@@QAE@XZ
$L209961:
  0004b	8b 45 ec	 mov	 eax, DWORD PTR $T209952[ebp]
  0004e	50		 push	 eax
  0004f	e8 00 00 00 00	 call	 ??3CObject@@SGXPAX@Z	; CObject::operator delete
  00054	c3		 ret	 0
__ehhandler$??0CPlayBoxDlg@@QAE@_NPAVCWnd@@@Z:
  00055	b8 00 00 00 00	 mov	 eax, OFFSET FLAT:$T209965
  0005a	e9 00 00 00 00	 jmp	 ___CxxFrameHandler
text$x	ENDS
??0CPlayBoxDlg@@QAE@_NPAVCWnd@@@Z ENDP			; CPlayBoxDlg::CPlayBoxDlg
;	COMDAT xdata$x
; File d:\boxgit\playbox\playbox\dev\prj\playbox\src\datainterface\ilayoutchangeobserver.h
xdata$x	SEGMENT
$T209977 DD	0ffffffffH
	DD	FLAT:$L209971
	DD	00H
	DD	FLAT:$L209972
$T209975 DD	019930520H
	DD	02H
	DD	FLAT:$T209977
	DD	2 DUP(00H)
	DD	2 DUP(00H)
; Function compile flags: /Odt
xdata$x	ENDS
;	COMDAT ?ILayoutChangeOb_LayerChanged@ILayoutChangeObserver@@UAEXV?$basic_string@DU?$char_traits@D@std@@V?$allocator@D@2@@std@@00@Z
_TEXT	SEGMENT
_this$ = -16						; size = 4
__$EHRec$ = -12						; size = 12
_paneName$ = 8						; size = 28
_oldLayerName$ = 36					; size = 28
_newLayerName$ = 64					; size = 28
?ILayoutChangeOb_LayerChanged@ILayoutChangeObserver@@UAEXV?$basic_string@DU?$char_traits@D@std@@V?$allocator@D@2@@std@@00@Z PROC NEAR ; ILayoutChangeObserver::ILayoutChangeOb_LayerChanged, COMDAT
; _this$ = ecx

; 9    : 	virtual void	ILayoutChangeOb_LayerChanged(string paneName, string oldLayerName, string newLayerName ){};

  00000	55		 push	 ebp
  00001	8b ec		 mov	 ebp, esp
  00003	6a ff		 push	 -1
  00005	68 00 00 00 00	 push	 __ehhandler$?ILayoutChangeOb_LayerChanged@ILayoutChangeObserver@@UAEXV?$basic_string@DU?$char_traits@D@std@@V?$allocator@D@2@@std@@00@Z
  0000a	64 a1 00 00 00
	00		 mov	 eax, DWORD PTR fs:__except_list
  00010	50		 push	 eax
  00011	64 89 25 00 00
	00 00		 mov	 DWORD PTR fs:__except_list, esp
  00018	51		 push	 ecx
  00019	89 4d f0	 mov	 DWORD PTR _this$[ebp], ecx
  0001c	c7 45 fc 01 00
	00 00		 mov	 DWORD PTR __$EHRec$[ebp+8], 1
  00023	8d 4d 08	 lea	 ecx, DWORD PTR _paneName$[ebp]
  00026	ff 15 00 00 00
	00		 call	 DWORD PTR __imp_??1?$basic_string@DU?$char_traits@D@std@@V?$allocator@D@2@@std@@QAE@XZ
  0002c	c6 45 fc 00	 mov	 BYTE PTR __$EHRec$[ebp+8], 0
  00030	8d 4d 24	 lea	 ecx, DWORD PTR _oldLayerName$[ebp]
  00033	ff 15 00 00 00
	00		 call	 DWORD PTR __imp_??1?$basic_string@DU?$char_traits@D@std@@V?$allocator@D@2@@std@@QAE@XZ
  00039	c7 45 fc ff ff
	ff ff		 mov	 DWORD PTR __$EHRec$[ebp+8], -1
  00040	8d 4d 40	 lea	 ecx, DWORD PTR _newLayerName$[ebp]
  00043	ff 15 00 00 00
	00		 call	 DWORD PTR __imp_??1?$basic_string@DU?$char_traits@D@std@@V?$allocator@D@2@@std@@QAE@XZ
  00049	8b 4d f4	 mov	 ecx, DWORD PTR __$EHRec$[ebp]
  0004c	64 89 0d 00 00
	00 00		 mov	 DWORD PTR fs:__except_list, ecx
  00053	8b e5		 mov	 esp, ebp
  00055	5d		 pop	 ebp
  00056	c2 54 00	 ret	 84			; 00000054H
_TEXT	ENDS
;	COMDAT text$x
text$x	SEGMENT
$L209971:
  00000	8d 4d 40	 lea	 ecx, DWORD PTR _newLayerName$[ebp]
  00003	ff 25 00 00 00
	00		 jmp	 DWORD PTR __imp_??1?$basic_string@DU?$char_traits@D@std@@V?$allocator@D@2@@std@@QAE@XZ
$L209972:
  00009	8d 4d 24	 lea	 ecx, DWORD PTR _oldLayerName$[ebp]
  0000c	ff 25 00 00 00
	00		 jmp	 DWORD PTR __imp_??1?$basic_string@DU?$char_traits@D@std@@V?$allocator@D@2@@std@@QAE@XZ
__ehhandler$?ILayoutChangeOb_LayerChanged@ILayoutChangeObserver@@UAEXV?$basic_string@DU?$char_traits@D@std@@V?$allocator@D@2@@std@@00@Z:
  00012	b8 00 00 00 00	 mov	 eax, OFFSET FLAT:$T209975
  00017	e9 00 00 00 00	 jmp	 ___CxxFrameHandler
text$x	ENDS
?ILayoutChangeOb_LayerChanged@ILayoutChangeObserver@@UAEXV?$basic_string@DU?$char_traits@D@std@@V?$allocator@D@2@@std@@00@Z ENDP ; ILayoutChangeObserver::ILayoutChangeOb_LayerChanged
;	COMDAT xdata$x
xdata$x	SEGMENT
$T209987 DD	0ffffffffH
	DD	FLAT:$L209982
$T209985 DD	019930520H
	DD	01H
	DD	FLAT:$T209987
	DD	2 DUP(00H)
	DD	2 DUP(00H)
; Function compile flags: /Odt
xdata$x	ENDS
;	COMDAT ?ILayoutChangeOb_PaneChanged@ILayoutChangeObserver@@UAEXV?$basic_string@DU?$char_traits@D@std@@V?$allocator@D@2@@std@@0@Z
_TEXT	SEGMENT
_this$ = -16						; size = 4
__$EHRec$ = -12						; size = 12
_oldPaneName$ = 8					; size = 28
_newPaneName$ = 36					; size = 28
?ILayoutChangeOb_PaneChanged@ILayoutChangeObserver@@UAEXV?$basic_string@DU?$char_traits@D@std@@V?$allocator@D@2@@std@@0@Z PROC NEAR ; ILayoutChangeObserver::ILayoutChangeOb_PaneChanged, COMDAT
; _this$ = ecx

; 10   : 	virtual void	ILayoutChangeOb_PaneChanged(string oldPaneName, string newPaneName){};

  00000	55		 push	 ebp
  00001	8b ec		 mov	 ebp, esp
  00003	6a ff		 push	 -1
  00005	68 00 00 00 00	 push	 __ehhandler$?ILayoutChangeOb_PaneChanged@ILayoutChangeObserver@@UAEXV?$basic_string@DU?$char_traits@D@std@@V?$allocator@D@2@@std@@0@Z
  0000a	64 a1 00 00 00
	00		 mov	 eax, DWORD PTR fs:__except_list
  00010	50		 push	 eax
  00011	64 89 25 00 00
	00 00		 mov	 DWORD PTR fs:__except_list, esp
  00018	51		 push	 ecx
  00019	89 4d f0	 mov	 DWORD PTR _this$[ebp], ecx
  0001c	c7 45 fc 00 00
	00 00		 mov	 DWORD PTR __$EHRec$[ebp+8], 0
  00023	8d 4d 08	 lea	 ecx, DWORD PTR _oldPaneName$[ebp]
  00026	ff 15 00 00 00
	00		 call	 DWORD PTR __imp_??1?$basic_string@DU?$char_traits@D@std@@V?$allocator@D@2@@std@@QAE@XZ
  0002c	c7 45 fc ff ff
	ff ff		 mov	 DWORD PTR __$EHRec$[ebp+8], -1
  00033	8d 4d 24	 lea	 ecx, DWORD PTR _newPaneName$[ebp]
  00036	ff 15 00 00 00
	00		 call	 DWORD PTR __imp_??1?$basic_string@DU?$char_traits@D@std@@V?$allocator@D@2@@std@@QAE@XZ
  0003c	8b 4d f4	 mov	 ecx, DWORD PTR __$EHRec$[ebp]
  0003f	64 89 0d 00 00
	00 00		 mov	 DWORD PTR fs:__except_list, ecx
  00046	8b e5		 mov	 esp, ebp
  00048	5d		 pop	 ebp
  00049	c2 38 00	 ret	 56			; 00000038H
_TEXT	ENDS
;	COMDAT text$x
text$x	SEGMENT
$L209982:
  00000	8d 4d 24	 lea	 ecx, DWORD PTR _newPaneName$[ebp]
  00003	ff 25 00 00 00
	00		 jmp	 DWORD PTR __imp_??1?$basic_string@DU?$char_traits@D@std@@V?$allocator@D@2@@std@@QAE@XZ
__ehhandler$?ILayoutChangeOb_PaneChanged@ILayoutChangeObserver@@UAEXV?$basic_string@DU?$char_traits@D@std@@V?$allocator@D@2@@std@@0@Z:
  00009	b8 00 00 00 00	 mov	 eax, OFFSET FLAT:$T209985
  0000e	e9 00 00 00 00	 jmp	 ___CxxFrameHandler
text$x	ENDS
?ILayoutChangeOb_PaneChanged@ILayoutChangeObserver@@UAEXV?$basic_string@DU?$char_traits@D@std@@V?$allocator@D@2@@std@@0@Z ENDP ; ILayoutChangeObserver::ILayoutChangeOb_PaneChanged
; Function compile flags: /Odt
;	COMDAT ?ILayoutChangeOb_ColorChanged@ILayoutChangeObserver@@UAEXXZ
_TEXT	SEGMENT
_this$ = -4						; size = 4
?ILayoutChangeOb_ColorChanged@ILayoutChangeObserver@@UAEXXZ PROC NEAR ; ILayoutChangeObserver::ILayoutChangeOb_ColorChanged, COMDAT
; _this$ = ecx

; 12   : 	virtual void	ILayoutChangeOb_ColorChanged(){};

  00000	55		 push	 ebp
  00001	8b ec		 mov	 ebp, esp
  00003	51		 push	 ecx
  00004	89 4d fc	 mov	 DWORD PTR _this$[ebp], ecx
  00007	8b e5		 mov	 esp, ebp
  00009	5d		 pop	 ebp
  0000a	c3		 ret	 0
?ILayoutChangeOb_ColorChanged@ILayoutChangeObserver@@UAEXXZ ENDP ; ILayoutChangeObserver::ILayoutChangeOb_ColorChanged
; Function compile flags: /Odt
_TEXT	ENDS
;	COMDAT ?ILayoutChangeOb_ColorChanging@ILayoutChangeObserver@@UAEXXZ
_TEXT	SEGMENT
_this$ = -4						; size = 4
?ILayoutChangeOb_ColorChanging@ILayoutChangeObserver@@UAEXXZ PROC NEAR ; ILayoutChangeObserver::ILayoutChangeOb_ColorChanging, COMDAT
; _this$ = ecx

; 13   : 	virtual void	ILayoutChangeOb_ColorChanging(){};

  00000	55		 push	 ebp
  00001	8b ec		 mov	 ebp, esp
  00003	51		 push	 ecx
  00004	89 4d fc	 mov	 DWORD PTR _this$[ebp], ecx
  00007	8b e5		 mov	 esp, ebp
  00009	5d		 pop	 ebp
  0000a	c3		 ret	 0
?ILayoutChangeOb_ColorChanging@ILayoutChangeObserver@@UAEXXZ ENDP ; ILayoutChangeObserver::ILayoutChangeOb_ColorChanging
; Function compile flags: /Odt
_TEXT	ENDS
;	COMDAT ?ILayoutChangeOb_UpdateLayout@ILayoutChangeObserver@@UAEXPAUHWND__@@@Z
_TEXT	SEGMENT
_this$ = -4						; size = 4
_m_hWnd$ = 8						; size = 4
?ILayoutChangeOb_UpdateLayout@ILayoutChangeObserver@@UAEXPAUHWND__@@@Z PROC NEAR ; ILayoutChangeObserver::ILayoutChangeOb_UpdateLayout, COMDAT
; _this$ = ecx

; 14   : 	virtual void	ILayoutChangeOb_UpdateLayout(HWND m_hWnd){};

  00000	55		 push	 ebp
  00001	8b ec		 mov	 ebp, esp
  00003	51		 push	 ecx
  00004	89 4d fc	 mov	 DWORD PTR _this$[ebp], ecx
  00007	8b e5		 mov	 esp, ebp
  00009	5d		 pop	 ebp
  0000a	c2 04 00	 ret	 4
?ILayoutChangeOb_UpdateLayout@ILayoutChangeObserver@@UAEXPAUHWND__@@@Z ENDP ; ILayoutChangeObserver::ILayoutChangeOb_UpdateLayout
; Function compile flags: /Odt
_TEXT	ENDS
;	COMDAT ?ILayoutChangeOb_InitFinished@ILayoutChangeObserver@@UAEXXZ
_TEXT	SEGMENT
_this$ = -4						; size = 4
?ILayoutChangeOb_InitFinished@ILayoutChangeObserver@@UAEXXZ PROC NEAR ; ILayoutChangeObserver::ILayoutChangeOb_InitFinished, COMDAT
; _this$ = ecx

; 15   : 	virtual void	ILayoutChangeOb_InitFinished(){};

  00000	55		 push	 ebp
  00001	8b ec		 mov	 ebp, esp
  00003	51		 push	 ecx
  00004	89 4d fc	 mov	 DWORD PTR _this$[ebp], ecx
  00007	8b e5		 mov	 esp, ebp
  00009	5d		 pop	 ebp
  0000a	c3		 ret	 0
?ILayoutChangeOb_InitFinished@ILayoutChangeObserver@@UAEXXZ ENDP ; ILayoutChangeObserver::ILayoutChangeOb_InitFinished
; Function compile flags: /Odt
_TEXT	ENDS
;	COMDAT ?ILayoutChangeOb_InitBegin@ILayoutChangeObserver@@UAEXXZ
_TEXT	SEGMENT
_this$ = -4						; size = 4
?ILayoutChangeOb_InitBegin@ILayoutChangeObserver@@UAEXXZ PROC NEAR ; ILayoutChangeObserver::ILayoutChangeOb_InitBegin, COMDAT
; _this$ = ecx

; 16   : 	virtual void	ILayoutChangeOb_InitBegin(){};

  00000	55		 push	 ebp
  00001	8b ec		 mov	 ebp, esp
  00003	51		 push	 ecx
  00004	89 4d fc	 mov	 DWORD PTR _this$[ebp], ecx
  00007	8b e5		 mov	 esp, ebp
  00009	5d		 pop	 ebp
  0000a	c3		 ret	 0
?ILayoutChangeOb_InitBegin@ILayoutChangeObserver@@UAEXXZ ENDP ; ILayoutChangeObserver::ILayoutChangeOb_InitBegin
; Function compile flags: /Odt
; File d:\boxgit\playbox\playbox\dev\prj\playbox\src\datainterface\ipanelchangeobserver.h
_TEXT	ENDS
;	COMDAT ?IPanelChangeOb_WindowClose@IPanelChangeObserver@@UAEXXZ
_TEXT	SEGMENT
_this$ = -4						; size = 4
?IPanelChangeOb_WindowClose@IPanelChangeObserver@@UAEXXZ PROC NEAR ; IPanelChangeObserver::IPanelChangeOb_WindowClose, COMDAT
; _this$ = ecx

; 12   : 	virtual void	IPanelChangeOb_WindowClose(){};

  00000	55		 push	 ebp
  00001	8b ec		 mov	 ebp, esp
  00003	51		 push	 ecx
  00004	89 4d fc	 mov	 DWORD PTR _this$[ebp], ecx
  00007	8b e5		 mov	 esp, ebp
  00009	5d		 pop	 ebp
  0000a	c3		 ret	 0
?IPanelChangeOb_WindowClose@IPanelChangeObserver@@UAEXXZ ENDP ; IPanelChangeObserver::IPanelChangeOb_WindowClose
; Function compile flags: /Odt
_TEXT	ENDS
;	COMDAT ?IPanelChangeOb_ToFullScreen@IPanelChangeObserver@@UAEXPAVCWnd@@@Z
_TEXT	SEGMENT
_this$ = -4						; size = 4
_pWnd$ = 8						; size = 4
?IPanelChangeOb_ToFullScreen@IPanelChangeObserver@@UAEXPAVCWnd@@@Z PROC NEAR ; IPanelChangeObserver::IPanelChangeOb_ToFullScreen, COMDAT
; _this$ = ecx

; 13   : 	virtual void	IPanelChangeOb_ToFullScreen( CWnd* pWnd ){};

  00000	55		 push	 ebp
  00001	8b ec		 mov	 ebp, esp
  00003	51		 push	 ecx
  00004	89 4d fc	 mov	 DWORD PTR _this$[ebp], ecx
  00007	8b e5		 mov	 esp, ebp
  00009	5d		 pop	 ebp
  0000a	c2 04 00	 ret	 4
?IPanelChangeOb_ToFullScreen@IPanelChangeObserver@@UAEXPAVCWnd@@@Z ENDP ; IPanelChangeObserver::IPanelChangeOb_ToFullScreen
; Function compile flags: /Odt
_TEXT	ENDS
;	COMDAT ?IPanelChangeOb_ExitFullScreen@IPanelChangeObserver@@UAEXPAVCWnd@@@Z
_TEXT	SEGMENT
_this$ = -4						; size = 4
_pWnd$ = 8						; size = 4
?IPanelChangeOb_ExitFullScreen@IPanelChangeObserver@@UAEXPAVCWnd@@@Z PROC NEAR ; IPanelChangeObserver::IPanelChangeOb_ExitFullScreen, COMDAT
; _this$ = ecx

; 14   : 	virtual void	IPanelChangeOb_ExitFullScreen( CWnd* pWnd ){};

  00000	55		 push	 ebp
  00001	8b ec		 mov	 ebp, esp
  00003	51		 push	 ecx
  00004	89 4d fc	 mov	 DWORD PTR _this$[ebp], ecx
  00007	8b e5		 mov	 esp, ebp
  00009	5d		 pop	 ebp
  0000a	c2 04 00	 ret	 4
?IPanelChangeOb_ExitFullScreen@IPanelChangeObserver@@UAEXPAVCWnd@@@Z ENDP ; IPanelChangeObserver::IPanelChangeOb_ExitFullScreen
_TEXT	ENDS
PUBLIC	??1CPlayBoxDlg@@UAE@XZ				; CPlayBoxDlg::~CPlayBoxDlg
; Function compile flags: /Odt
;	COMDAT ??_GCPlayBoxDlg@@UAEPAXI@Z
_TEXT	SEGMENT
_this$ = -4						; size = 4
___flags$ = 8						; size = 4
??_GCPlayBoxDlg@@UAEPAXI@Z PROC NEAR			; CPlayBoxDlg::`scalar deleting destructor', COMDAT
; _this$ = ecx
  00000	55		 push	 ebp
  00001	8b ec		 mov	 ebp, esp
  00003	51		 push	 ecx
  00004	89 4d fc	 mov	 DWORD PTR _this$[ebp], ecx
  00007	8b 4d fc	 mov	 ecx, DWORD PTR _this$[ebp]
  0000a	e8 00 00 00 00	 call	 ??1CPlayBoxDlg@@UAE@XZ
  0000f	8b 45 08	 mov	 eax, DWORD PTR ___flags$[ebp]
  00012	83 e0 01	 and	 eax, 1
  00015	74 09		 je	 SHORT $L207479
  00017	8b 4d fc	 mov	 ecx, DWORD PTR _this$[ebp]
  0001a	51		 push	 ecx
  0001b	e8 00 00 00 00	 call	 ??3CObject@@SGXPAX@Z	; CObject::operator delete
$L207479:
  00020	8b 45 fc	 mov	 eax, DWORD PTR _this$[ebp]
  00023	8b e5		 mov	 esp, ebp
  00025	5d		 pop	 ebp
  00026	c2 04 00	 ret	 4
??_GCPlayBoxDlg@@UAEPAXI@Z ENDP				; CPlayBoxDlg::`scalar deleting destructor'
_TEXT	ENDS
PUBLIC	??_R4AfxUserConfig_Observer@@6B@		; AfxUserConfig_Observer::`RTTI Complete Object Locator'
PUBLIC	??_R3AfxUserConfig_Observer@@8			; AfxUserConfig_Observer::`RTTI Class Hierarchy Descriptor'
PUBLIC	??_R2AfxUserConfig_Observer@@8			; AfxUserConfig_Observer::`RTTI Base Class Array'
PUBLIC	??_R1A@?0A@A@AfxUserConfig_Observer@@8		; AfxUserConfig_Observer::`RTTI Base Class Descriptor at (0,-1,0,0)'
PUBLIC	??_7AfxUserConfig_Observer@@6B@			; AfxUserConfig_Observer::`vftable'
EXTRN	__purecall:NEAR
;	COMDAT ??_7AfxUserConfig_Observer@@6B@
CONST	SEGMENT
??_7AfxUserConfig_Observer@@6B@ DD FLAT:??_R4AfxUserConfig_Observer@@6B@ ; AfxUserConfig_Observer::`vftable'
	DD	FLAT:__purecall
CONST	ENDS
;	COMDAT ??_R4AfxUserConfig_Observer@@6B@
rdata$r	SEGMENT
??_R4AfxUserConfig_Observer@@6B@ DD 00H			; AfxUserConfig_Observer::`RTTI Complete Object Locator'
	DD	00H
	DD	00H
	DD	FLAT:??_R0?AVAfxUserConfig_Observer@@@8
	DD	FLAT:??_R3AfxUserConfig_Observer@@8
rdata$r	ENDS
;	COMDAT ??_R3AfxUserConfig_Observer@@8
rdata$r	SEGMENT
??_R3AfxUserConfig_Observer@@8 DD 00H			; AfxUserConfig_Observer::`RTTI Class Hierarchy Descriptor'
	DD	00H
	DD	01H
	DD	FLAT:??_R2AfxUserConfig_Observer@@8
rdata$r	ENDS
;	COMDAT ??_R2AfxUserConfig_Observer@@8
rdata$r	SEGMENT
??_R2AfxUserConfig_Observer@@8 DD FLAT:??_R1A@?0A@A@AfxUserConfig_Observer@@8 ; AfxUserConfig_Observer::`RTTI Base Class Array'
rdata$r	ENDS
;	COMDAT ??_R1A@?0A@A@AfxUserConfig_Observer@@8
rdata$r	SEGMENT
??_R1A@?0A@A@AfxUserConfig_Observer@@8 DD FLAT:??_R0?AVAfxUserConfig_Observer@@@8 ; AfxUserConfig_Observer::`RTTI Base Class Descriptor at (0,-1,0,0)'
	DD	00H
	DD	00H
	DD	0ffffffffH
	DD	00H
	DD	00H
; Function compile flags: /Odt
rdata$r	ENDS
;	COMDAT ??0AfxUserConfig_Observer@@QAE@XZ
_TEXT	SEGMENT
_this$ = -4						; size = 4
??0AfxUserConfig_Observer@@QAE@XZ PROC NEAR		; AfxUserConfig_Observer::AfxUserConfig_Observer, COMDAT
; _this$ = ecx
  00000	55		 push	 ebp
  00001	8b ec		 mov	 ebp, esp
  00003	51		 push	 ecx
  00004	89 4d fc	 mov	 DWORD PTR _this$[ebp], ecx
  00007	8b 45 fc	 mov	 eax, DWORD PTR _this$[ebp]
  0000a	c7 00 00 00 00
	00		 mov	 DWORD PTR [eax], OFFSET FLAT:??_7AfxUserConfig_Observer@@6B@
  00010	8b 45 fc	 mov	 eax, DWORD PTR _this$[ebp]
  00013	8b e5		 mov	 esp, ebp
  00015	5d		 pop	 ebp
  00016	c3		 ret	 0
??0AfxUserConfig_Observer@@QAE@XZ ENDP			; AfxUserConfig_Observer::AfxUserConfig_Observer
_TEXT	ENDS
PUBLIC	??_R4ILayoutChangeObserver@@6B@			; ILayoutChangeObserver::`RTTI Complete Object Locator'
PUBLIC	??_R3ILayoutChangeObserver@@8			; ILayoutChangeObserver::`RTTI Class Hierarchy Descriptor'
PUBLIC	??_R2ILayoutChangeObserver@@8			; ILayoutChangeObserver::`RTTI Base Class Array'
PUBLIC	??_R1A@?0A@A@ILayoutChangeObserver@@8		; ILayoutChangeObserver::`RTTI Base Class Descriptor at (0,-1,0,0)'
PUBLIC	??_R1A@?0A@A@IMessageObserver@@8		; IMessageObserver::`RTTI Base Class Descriptor at (0,-1,0,0)'
PUBLIC	??0IMessageObserver@@QAE@XZ			; IMessageObserver::IMessageObserver
PUBLIC	?ILayoutChangeOb_SkinChanged@ILayoutChangeObserver@@UAEXV?$basic_string@DU?$char_traits@D@std@@V?$allocator@D@2@@std@@0@Z ; ILayoutChangeObserver::ILayoutChangeOb_SkinChanged
PUBLIC	??_7ILayoutChangeObserver@@6B@			; ILayoutChangeObserver::`vftable'
PUBLIC	??_GILayoutChangeObserver@@UAEPAXI@Z		; ILayoutChangeObserver::`scalar deleting destructor'
EXTRN	??_EILayoutChangeObserver@@UAEPAXI@Z:NEAR	; ILayoutChangeObserver::`vector deleting destructor'
;	COMDAT ??_7ILayoutChangeObserver@@6B@
CONST	SEGMENT
??_7ILayoutChangeObserver@@6B@ DD FLAT:??_R4ILayoutChangeObserver@@6B@ ; ILayoutChangeObserver::`vftable'
	DD	FLAT:??_EILayoutChangeObserver@@UAEPAXI@Z
	DD	FLAT:?ILayoutChangeOb_LayerChanged@ILayoutChangeObserver@@UAEXV?$basic_string@DU?$char_traits@D@std@@V?$allocator@D@2@@std@@00@Z
	DD	FLAT:?ILayoutChangeOb_PaneChanged@ILayoutChangeObserver@@UAEXV?$basic_string@DU?$char_traits@D@std@@V?$allocator@D@2@@std@@0@Z
	DD	FLAT:?ILayoutChangeOb_SkinChanged@ILayoutChangeObserver@@UAEXV?$basic_string@DU?$char_traits@D@std@@V?$allocator@D@2@@std@@0@Z
	DD	FLAT:?ILayoutChangeOb_ColorChanged@ILayoutChangeObserver@@UAEXXZ
	DD	FLAT:?ILayoutChangeOb_ColorChanging@ILayoutChangeObserver@@UAEXXZ
	DD	FLAT:?ILayoutChangeOb_UpdateLayout@ILayoutChangeObserver@@UAEXPAUHWND__@@@Z
	DD	FLAT:?ILayoutChangeOb_InitFinished@ILayoutChangeObserver@@UAEXXZ
	DD	FLAT:?ILayoutChangeOb_InitBegin@ILayoutChangeObserver@@UAEXXZ
CONST	ENDS
;	COMDAT ??_R4ILayoutChangeObserver@@6B@
rdata$r	SEGMENT
??_R4ILayoutChangeObserver@@6B@ DD 00H			; ILayoutChangeObserver::`RTTI Complete Object Locator'
	DD	00H
	DD	00H
	DD	FLAT:??_R0?AVILayoutChangeObserver@@@8
	DD	FLAT:??_R3ILayoutChangeObserver@@8
rdata$r	ENDS
;	COMDAT ??_R3ILayoutChangeObserver@@8
rdata$r	SEGMENT
??_R3ILayoutChangeObserver@@8 DD 00H			; ILayoutChangeObserver::`RTTI Class Hierarchy Descriptor'
	DD	00H
	DD	02H
	DD	FLAT:??_R2ILayoutChangeObserver@@8
rdata$r	ENDS
;	COMDAT ??_R2ILayoutChangeObserver@@8
rdata$r	SEGMENT
??_R2ILayoutChangeObserver@@8 DD FLAT:??_R1A@?0A@A@ILayoutChangeObserver@@8 ; ILayoutChangeObserver::`RTTI Base Class Array'
	DD	FLAT:??_R1A@?0A@A@IMessageObserver@@8
rdata$r	ENDS
;	COMDAT ??_R1A@?0A@A@ILayoutChangeObserver@@8
rdata$r	SEGMENT
??_R1A@?0A@A@ILayoutChangeObserver@@8 DD FLAT:??_R0?AVILayoutChangeObserver@@@8 ; ILayoutChangeObserver::`RTTI Base Class Descriptor at (0,-1,0,0)'
	DD	01H
	DD	00H
	DD	0ffffffffH
	DD	00H
	DD	00H
rdata$r	ENDS
;	COMDAT ??_R1A@?0A@A@IMessageObserver@@8
rdata$r	SEGMENT
??_R1A@?0A@A@IMessageObserver@@8 DD FLAT:??_R0?AVIMessageObserver@@@8 ; IMessageObserver::`RTTI Base Class Descriptor at (0,-1,0,0)'
	DD	00H
	DD	00H
	DD	0ffffffffH
	DD	00H
	DD	00H
; Function compile flags: /Odt
rdata$r	ENDS
;	COMDAT ??0ILayoutChangeObserver@@QAE@XZ
_TEXT	SEGMENT
_this$ = -4						; size = 4
??0ILayoutChangeObserver@@QAE@XZ PROC NEAR		; ILayoutChangeObserver::ILayoutChangeObserver, COMDAT
; _this$ = ecx
  00000	55		 push	 ebp
  00001	8b ec		 mov	 ebp, esp
  00003	51		 push	 ecx
  00004	89 4d fc	 mov	 DWORD PTR _this$[ebp], ecx
  00007	8b 4d fc	 mov	 ecx, DWORD PTR _this$[ebp]
  0000a	e8 00 00 00 00	 call	 ??0IMessageObserver@@QAE@XZ
  0000f	8b 45 fc	 mov	 eax, DWORD PTR _this$[ebp]
  00012	c7 00 00 00 00
	00		 mov	 DWORD PTR [eax], OFFSET FLAT:??_7ILayoutChangeObserver@@6B@
  00018	8b 45 fc	 mov	 eax, DWORD PTR _this$[ebp]
  0001b	8b e5		 mov	 esp, ebp
  0001d	5d		 pop	 ebp
  0001e	c3		 ret	 0
??0ILayoutChangeObserver@@QAE@XZ ENDP			; ILayoutChangeObserver::ILayoutChangeObserver
_TEXT	ENDS
;	COMDAT xdata$x
; File d:\boxgit\playbox\playbox\dev\prj\playbox\src\datainterface\ilayoutchangeobserver.h
xdata$x	SEGMENT
$T210019 DD	0ffffffffH
	DD	FLAT:$L210014
$T210017 DD	019930520H
	DD	01H
	DD	FLAT:$T210019
	DD	2 DUP(00H)
	DD	2 DUP(00H)
; Function compile flags: /Odt
xdata$x	ENDS
;	COMDAT ?ILayoutChangeOb_SkinChanged@ILayoutChangeObserver@@UAEXV?$basic_string@DU?$char_traits@D@std@@V?$allocator@D@2@@std@@0@Z
_TEXT	SEGMENT
_this$ = -16						; size = 4
__$EHRec$ = -12						; size = 12
_oldSkinPath$ = 8					; size = 28
_newSkinPath$ = 36					; size = 28
?ILayoutChangeOb_SkinChanged@ILayoutChangeObserver@@UAEXV?$basic_string@DU?$char_traits@D@std@@V?$allocator@D@2@@std@@0@Z PROC NEAR ; ILayoutChangeObserver::ILayoutChangeOb_SkinChanged, COMDAT
; _this$ = ecx

; 11   : 	virtual void	ILayoutChangeOb_SkinChanged(string oldSkinPath, string newSkinPath){};

  00000	55		 push	 ebp
  00001	8b ec		 mov	 ebp, esp
  00003	6a ff		 push	 -1
  00005	68 00 00 00 00	 push	 __ehhandler$?ILayoutChangeOb_SkinChanged@ILayoutChangeObserver@@UAEXV?$basic_string@DU?$char_traits@D@std@@V?$allocator@D@2@@std@@0@Z
  0000a	64 a1 00 00 00
	00		 mov	 eax, DWORD PTR fs:__except_list
  00010	50		 push	 eax
  00011	64 89 25 00 00
	00 00		 mov	 DWORD PTR fs:__except_list, esp
  00018	51		 push	 ecx
  00019	89 4d f0	 mov	 DWORD PTR _this$[ebp], ecx
  0001c	c7 45 fc 00 00
	00 00		 mov	 DWORD PTR __$EHRec$[ebp+8], 0
  00023	8d 4d 08	 lea	 ecx, DWORD PTR _oldSkinPath$[ebp]
  00026	ff 15 00 00 00
	00		 call	 DWORD PTR __imp_??1?$basic_string@DU?$char_traits@D@std@@V?$allocator@D@2@@std@@QAE@XZ
  0002c	c7 45 fc ff ff
	ff ff		 mov	 DWORD PTR __$EHRec$[ebp+8], -1
  00033	8d 4d 24	 lea	 ecx, DWORD PTR _newSkinPath$[ebp]
  00036	ff 15 00 00 00
	00		 call	 DWORD PTR __imp_??1?$basic_string@DU?$char_traits@D@std@@V?$allocator@D@2@@std@@QAE@XZ
  0003c	8b 4d f4	 mov	 ecx, DWORD PTR __$EHRec$[ebp]
  0003f	64 89 0d 00 00
	00 00		 mov	 DWORD PTR fs:__except_list, ecx
  00046	8b e5		 mov	 esp, ebp
  00048	5d		 pop	 ebp
  00049	c2 38 00	 ret	 56			; 00000038H
_TEXT	ENDS
;	COMDAT text$x
text$x	SEGMENT
$L210014:
  00000	8d 4d 24	 lea	 ecx, DWORD PTR _newSkinPath$[ebp]
  00003	ff 25 00 00 00
	00		 jmp	 DWORD PTR __imp_??1?$basic_string@DU?$char_traits@D@std@@V?$allocator@D@2@@std@@QAE@XZ
__ehhandler$?ILayoutChangeOb_SkinChanged@ILayoutChangeObserver@@UAEXV?$basic_string@DU?$char_traits@D@std@@V?$allocator@D@2@@std@@0@Z:
  00009	b8 00 00 00 00	 mov	 eax, OFFSET FLAT:$T210017
  0000e	e9 00 00 00 00	 jmp	 ___CxxFrameHandler
text$x	ENDS
?ILayoutChangeOb_SkinChanged@ILayoutChangeObserver@@UAEXV?$basic_string@DU?$char_traits@D@std@@V?$allocator@D@2@@std@@0@Z ENDP ; ILayoutChangeObserver::ILayoutChangeOb_SkinChanged
PUBLIC	??1IMessageObserver@@UAE@XZ			; IMessageObserver::~IMessageObserver
; Function compile flags: /Odt
;	COMDAT ??1ILayoutChangeObserver@@UAE@XZ
_TEXT	SEGMENT
_this$ = -4						; size = 4
??1ILayoutChangeObserver@@UAE@XZ PROC NEAR		; ILayoutChangeObserver::~ILayoutChangeObserver, COMDAT
; _this$ = ecx
  00000	55		 push	 ebp
  00001	8b ec		 mov	 ebp, esp
  00003	51		 push	 ecx
  00004	89 4d fc	 mov	 DWORD PTR _this$[ebp], ecx
  00007	8b 4d fc	 mov	 ecx, DWORD PTR _this$[ebp]
  0000a	e8 00 00 00 00	 call	 ??1IMessageObserver@@UAE@XZ ; IMessageObserver::~IMessageObserver
  0000f	8b e5		 mov	 esp, ebp
  00011	5d		 pop	 ebp
  00012	c3		 ret	 0
??1ILayoutChangeObserver@@UAE@XZ ENDP			; ILayoutChangeObserver::~ILayoutChangeObserver
_TEXT	ENDS
PUBLIC	??_7IPanelChangeObserver@@6B@			; IPanelChangeObserver::`vftable'
PUBLIC	??_GIPanelChangeObserver@@UAEPAXI@Z		; IPanelChangeObserver::`scalar deleting destructor'
PUBLIC	??_R4IPanelChangeObserver@@6B@			; IPanelChangeObserver::`RTTI Complete Object Locator'
PUBLIC	??_R3IPanelChangeObserver@@8			; IPanelChangeObserver::`RTTI Class Hierarchy Descriptor'
PUBLIC	??_R2IPanelChangeObserver@@8			; IPanelChangeObserver::`RTTI Base Class Array'
PUBLIC	??_R1A@?0A@A@IPanelChangeObserver@@8		; IPanelChangeObserver::`RTTI Base Class Descriptor at (0,-1,0,0)'
PUBLIC	?IPanelChangeOb_WindowMax@IPanelChangeObserver@@UAEXXZ ; IPanelChangeObserver::IPanelChangeOb_WindowMax
PUBLIC	?IPanelChangeOb_WindowMin@IPanelChangeObserver@@UAEXXZ ; IPanelChangeObserver::IPanelChangeOb_WindowMin
PUBLIC	?IPanelChangeOb_WindowRestore@IPanelChangeObserver@@UAEXXZ ; IPanelChangeObserver::IPanelChangeOb_WindowRestore
EXTRN	??_EIPanelChangeObserver@@UAEPAXI@Z:NEAR	; IPanelChangeObserver::`vector deleting destructor'
;	COMDAT ??_7IPanelChangeObserver@@6B@
CONST	SEGMENT
??_7IPanelChangeObserver@@6B@ DD FLAT:??_R4IPanelChangeObserver@@6B@ ; IPanelChangeObserver::`vftable'
	DD	FLAT:??_EIPanelChangeObserver@@UAEPAXI@Z
	DD	FLAT:?IPanelChangeOb_WindowMax@IPanelChangeObserver@@UAEXXZ
	DD	FLAT:?IPanelChangeOb_WindowMin@IPanelChangeObserver@@UAEXXZ
	DD	FLAT:?IPanelChangeOb_WindowRestore@IPanelChangeObserver@@UAEXXZ
	DD	FLAT:?IPanelChangeOb_WindowClose@IPanelChangeObserver@@UAEXXZ
	DD	FLAT:?IPanelChangeOb_ToFullScreen@IPanelChangeObserver@@UAEXPAVCWnd@@@Z
	DD	FLAT:?IPanelChangeOb_ExitFullScreen@IPanelChangeObserver@@UAEXPAVCWnd@@@Z
CONST	ENDS
;	COMDAT ??_R4IPanelChangeObserver@@6B@
rdata$r	SEGMENT
??_R4IPanelChangeObserver@@6B@ DD 00H			; IPanelChangeObserver::`RTTI Complete Object Locator'
	DD	00H
	DD	00H
	DD	FLAT:??_R0?AVIPanelChangeObserver@@@8
	DD	FLAT:??_R3IPanelChangeObserver@@8
rdata$r	ENDS
;	COMDAT ??_R3IPanelChangeObserver@@8
rdata$r	SEGMENT
??_R3IPanelChangeObserver@@8 DD 00H			; IPanelChangeObserver::`RTTI Class Hierarchy Descriptor'
	DD	00H
	DD	02H
	DD	FLAT:??_R2IPanelChangeObserver@@8
rdata$r	ENDS
;	COMDAT ??_R2IPanelChangeObserver@@8
rdata$r	SEGMENT
??_R2IPanelChangeObserver@@8 DD FLAT:??_R1A@?0A@A@IPanelChangeObserver@@8 ; IPanelChangeObserver::`RTTI Base Class Array'
	DD	FLAT:??_R1A@?0A@A@IMessageObserver@@8
rdata$r	ENDS
;	COMDAT ??_R1A@?0A@A@IPanelChangeObserver@@8
rdata$r	SEGMENT
??_R1A@?0A@A@IPanelChangeObserver@@8 DD FLAT:??_R0?AVIPanelChangeObserver@@@8 ; IPanelChangeObserver::`RTTI Base Class Descriptor at (0,-1,0,0)'
	DD	01H
	DD	00H
	DD	0ffffffffH
	DD	00H
	DD	00H
; Function compile flags: /Odt
rdata$r	ENDS
;	COMDAT ??0IPanelChangeObserver@@QAE@XZ
_TEXT	SEGMENT
_this$ = -4						; size = 4
??0IPanelChangeObserver@@QAE@XZ PROC NEAR		; IPanelChangeObserver::IPanelChangeObserver, COMDAT
; _this$ = ecx
  00000	55		 push	 ebp
  00001	8b ec		 mov	 ebp, esp
  00003	51		 push	 ecx
  00004	89 4d fc	 mov	 DWORD PTR _this$[ebp], ecx
  00007	8b 4d fc	 mov	 ecx, DWORD PTR _this$[ebp]
  0000a	e8 00 00 00 00	 call	 ??0IMessageObserver@@QAE@XZ
  0000f	8b 45 fc	 mov	 eax, DWORD PTR _this$[ebp]
  00012	c7 00 00 00 00
	00		 mov	 DWORD PTR [eax], OFFSET FLAT:??_7IPanelChangeObserver@@6B@
  00018	8b 45 fc	 mov	 eax, DWORD PTR _this$[ebp]
  0001b	8b e5		 mov	 esp, ebp
  0001d	5d		 pop	 ebp
  0001e	c3		 ret	 0
??0IPanelChangeObserver@@QAE@XZ ENDP			; IPanelChangeObserver::IPanelChangeObserver
; Function compile flags: /Odt
; File d:\boxgit\playbox\playbox\dev\prj\playbox\src\datainterface\ipanelchangeobserver.h
_TEXT	ENDS
;	COMDAT ?IPanelChangeOb_WindowMax@IPanelChangeObserver@@UAEXXZ
_TEXT	SEGMENT
_this$ = -4						; size = 4
?IPanelChangeOb_WindowMax@IPanelChangeObserver@@UAEXXZ PROC NEAR ; IPanelChangeObserver::IPanelChangeOb_WindowMax, COMDAT
; _this$ = ecx

; 9    : 	virtual void	IPanelChangeOb_WindowMax(){};

  00000	55		 push	 ebp
  00001	8b ec		 mov	 ebp, esp
  00003	51		 push	 ecx
  00004	89 4d fc	 mov	 DWORD PTR _this$[ebp], ecx
  00007	8b e5		 mov	 esp, ebp
  00009	5d		 pop	 ebp
  0000a	c3		 ret	 0
?IPanelChangeOb_WindowMax@IPanelChangeObserver@@UAEXXZ ENDP ; IPanelChangeObserver::IPanelChangeOb_WindowMax
; Function compile flags: /Odt
_TEXT	ENDS
;	COMDAT ?IPanelChangeOb_WindowMin@IPanelChangeObserver@@UAEXXZ
_TEXT	SEGMENT
_this$ = -4						; size = 4
?IPanelChangeOb_WindowMin@IPanelChangeObserver@@UAEXXZ PROC NEAR ; IPanelChangeObserver::IPanelChangeOb_WindowMin, COMDAT
; _this$ = ecx

; 10   : 	virtual void	IPanelChangeOb_WindowMin(){};

  00000	55		 push	 ebp
  00001	8b ec		 mov	 ebp, esp
  00003	51		 push	 ecx
  00004	89 4d fc	 mov	 DWORD PTR _this$[ebp], ecx
  00007	8b e5		 mov	 esp, ebp
  00009	5d		 pop	 ebp
  0000a	c3		 ret	 0
?IPanelChangeOb_WindowMin@IPanelChangeObserver@@UAEXXZ ENDP ; IPanelChangeObserver::IPanelChangeOb_WindowMin
; Function compile flags: /Odt
_TEXT	ENDS
;	COMDAT ?IPanelChangeOb_WindowRestore@IPanelChangeObserver@@UAEXXZ
_TEXT	SEGMENT
_this$ = -4						; size = 4
?IPanelChangeOb_WindowRestore@IPanelChangeObserver@@UAEXXZ PROC NEAR ; IPanelChangeObserver::IPanelChangeOb_WindowRestore, COMDAT
; _this$ = ecx

; 11   : 	virtual void	IPanelChangeOb_WindowRestore(){};

  00000	55		 push	 ebp
  00001	8b ec		 mov	 ebp, esp
  00003	51		 push	 ecx
  00004	89 4d fc	 mov	 DWORD PTR _this$[ebp], ecx
  00007	8b e5		 mov	 esp, ebp
  00009	5d		 pop	 ebp
  0000a	c3		 ret	 0
?IPanelChangeOb_WindowRestore@IPanelChangeObserver@@UAEXXZ ENDP ; IPanelChangeObserver::IPanelChangeOb_WindowRestore
; Function compile flags: /Odt
_TEXT	ENDS
;	COMDAT ??1IPanelChangeObserver@@UAE@XZ
_TEXT	SEGMENT
_this$ = -4						; size = 4
??1IPanelChangeObserver@@UAE@XZ PROC NEAR		; IPanelChangeObserver::~IPanelChangeObserver, COMDAT
; _this$ = ecx
  00000	55		 push	 ebp
  00001	8b ec		 mov	 ebp, esp
  00003	51		 push	 ecx
  00004	89 4d fc	 mov	 DWORD PTR _this$[ebp], ecx
  00007	8b 4d fc	 mov	 ecx, DWORD PTR _this$[ebp]
  0000a	e8 00 00 00 00	 call	 ??1IMessageObserver@@UAE@XZ ; IMessageObserver::~IMessageObserver
  0000f	8b e5		 mov	 esp, ebp
  00011	5d		 pop	 ebp
  00012	c3		 ret	 0
??1IPanelChangeObserver@@UAE@XZ ENDP			; IPanelChangeObserver::~IPanelChangeObserver
_TEXT	ENDS
;	COMDAT xdata$x
xdata$x	SEGMENT
$T210055 DD	0ffffffffH
	DD	FLAT:$L210042
	DD	00H
	DD	FLAT:$L210045
	DD	01H
	DD	FLAT:$L210048
	DD	02H
	DD	FLAT:$L210049
	DD	03H
	DD	FLAT:$L210050
$T210053 DD	019930520H
	DD	05H
	DD	FLAT:$T210055
	DD	2 DUP(00H)
	DD	2 DUP(00H)
; Function compile flags: /Odt
xdata$x	ENDS
;	COMDAT ??1CPlayBoxDlg@@UAE@XZ
_TEXT	SEGMENT
tv67 = -24						; size = 4
tv71 = -20						; size = 4
_this$ = -16						; size = 4
__$EHRec$ = -12						; size = 12
??1CPlayBoxDlg@@UAE@XZ PROC NEAR			; CPlayBoxDlg::~CPlayBoxDlg, COMDAT
; _this$ = ecx
  00000	55		 push	 ebp
  00001	8b ec		 mov	 ebp, esp
  00003	6a ff		 push	 -1
  00005	68 00 00 00 00	 push	 __ehhandler$??1CPlayBoxDlg@@UAE@XZ
  0000a	64 a1 00 00 00
	00		 mov	 eax, DWORD PTR fs:__except_list
  00010	50		 push	 eax
  00011	64 89 25 00 00
	00 00		 mov	 DWORD PTR fs:__except_list, esp
  00018	83 ec 0c	 sub	 esp, 12			; 0000000cH
  0001b	89 4d f0	 mov	 DWORD PTR _this$[ebp], ecx
  0001e	c7 45 fc 04 00
	00 00		 mov	 DWORD PTR __$EHRec$[ebp+8], 4
  00025	8b 4d f0	 mov	 ecx, DWORD PTR _this$[ebp]
  00028	81 c1 1c 01 00
	00		 add	 ecx, 284		; 0000011cH
  0002e	ff 15 00 00 00
	00		 call	 DWORD PTR __imp_??1?$basic_string@DU?$char_traits@D@std@@V?$allocator@D@2@@std@@QAE@XZ
  00034	c6 45 fc 03	 mov	 BYTE PTR __$EHRec$[ebp+8], 3
  00038	8b 4d f0	 mov	 ecx, DWORD PTR _this$[ebp]
  0003b	81 c1 00 01 00
	00		 add	 ecx, 256		; 00000100H
  00041	ff 15 00 00 00
	00		 call	 DWORD PTR __imp_??1?$basic_string@DU?$char_traits@D@std@@V?$allocator@D@2@@std@@QAE@XZ
  00047	c6 45 fc 02	 mov	 BYTE PTR __$EHRec$[ebp+8], 2
  0004b	8b 4d f0	 mov	 ecx, DWORD PTR _this$[ebp]
  0004e	81 c1 e4 00 00
	00		 add	 ecx, 228		; 000000e4H
  00054	ff 15 00 00 00
	00		 call	 DWORD PTR __imp_??1?$basic_string@DU?$char_traits@D@std@@V?$allocator@D@2@@std@@QAE@XZ
  0005a	c6 45 fc 01	 mov	 BYTE PTR __$EHRec$[ebp+8], 1
  0005e	83 7d f0 00	 cmp	 DWORD PTR _this$[ebp], 0
  00062	74 0b		 je	 SHORT $L210040
  00064	8b 45 f0	 mov	 eax, DWORD PTR _this$[ebp]
  00067	83 c0 7c	 add	 eax, 124		; 0000007cH
  0006a	89 45 ec	 mov	 DWORD PTR tv71[ebp], eax
  0006d	eb 07		 jmp	 SHORT $L210041
$L210040:
  0006f	c7 45 ec 00 00
	00 00		 mov	 DWORD PTR tv71[ebp], 0
$L210041:
  00076	8b 4d ec	 mov	 ecx, DWORD PTR tv71[ebp]
  00079	e8 00 00 00 00	 call	 ??1IPanelChangeObserver@@UAE@XZ
  0007e	c6 45 fc 00	 mov	 BYTE PTR __$EHRec$[ebp+8], 0
  00082	83 7d f0 00	 cmp	 DWORD PTR _this$[ebp], 0
  00086	74 0b		 je	 SHORT $L210038
  00088	8b 4d f0	 mov	 ecx, DWORD PTR _this$[ebp]
  0008b	83 c1 78	 add	 ecx, 120		; 00000078H
  0008e	89 4d e8	 mov	 DWORD PTR tv67[ebp], ecx
  00091	eb 07		 jmp	 SHORT $L210039
$L210038:
  00093	c7 45 e8 00 00
	00 00		 mov	 DWORD PTR tv67[ebp], 0
$L210039:
  0009a	8b 4d e8	 mov	 ecx, DWORD PTR tv67[ebp]
  0009d	e8 00 00 00 00	 call	 ??1ILayoutChangeObserver@@UAE@XZ
  000a2	c7 45 fc ff ff
	ff ff		 mov	 DWORD PTR __$EHRec$[ebp+8], -1
  000a9	8b 4d f0	 mov	 ecx, DWORD PTR _this$[ebp]
  000ac	e8 00 00 00 00	 call	 ??1CDialog@@UAE@XZ	; CDialog::~CDialog
  000b1	8b 4d f4	 mov	 ecx, DWORD PTR __$EHRec$[ebp]
  000b4	64 89 0d 00 00
	00 00		 mov	 DWORD PTR fs:__except_list, ecx
  000bb	8b e5		 mov	 esp, ebp
  000bd	5d		 pop	 ebp
  000be	c3		 ret	 0
_TEXT	ENDS
;	COMDAT text$x
text$x	SEGMENT
$L210042:
  00000	8b 4d f0	 mov	 ecx, DWORD PTR _this$[ebp]
  00003	e9 00 00 00 00	 jmp	 ??1CDialog@@UAE@XZ	; CDialog::~CDialog
$L210045:
  00008	83 7d f0 00	 cmp	 DWORD PTR _this$[ebp], 0
  0000c	0f 84 0e 00 00
	00		 je	 $L210043
  00012	8b 45 f0	 mov	 eax, DWORD PTR _this$[ebp]
  00015	83 c0 78	 add	 eax, 120		; 00000078H
  00018	89 45 e8	 mov	 DWORD PTR tv67[ebp], eax
  0001b	e9 07 00 00 00	 jmp	 $L210044
$L210043:
  00020	c7 45 e8 00 00
	00 00		 mov	 DWORD PTR tv67[ebp], 0
$L210044:
  00027	8b 4d e8	 mov	 ecx, DWORD PTR tv67[ebp]
  0002a	e9 00 00 00 00	 jmp	 ??1ILayoutChangeObserver@@UAE@XZ
$L210048:
  0002f	83 7d f0 00	 cmp	 DWORD PTR _this$[ebp], 0
  00033	0f 84 0e 00 00
	00		 je	 $L210046
  00039	8b 45 f0	 mov	 eax, DWORD PTR _this$[ebp]
  0003c	83 c0 7c	 add	 eax, 124		; 0000007cH
  0003f	89 45 ec	 mov	 DWORD PTR tv71[ebp], eax
  00042	e9 07 00 00 00	 jmp	 $L210047
$L210046:
  00047	c7 45 ec 00 00
	00 00		 mov	 DWORD PTR tv71[ebp], 0
$L210047:
  0004e	8b 4d ec	 mov	 ecx, DWORD PTR tv71[ebp]
  00051	e9 00 00 00 00	 jmp	 ??1IPanelChangeObserver@@UAE@XZ
$L210049:
  00056	8b 4d f0	 mov	 ecx, DWORD PTR _this$[ebp]
  00059	81 c1 e4 00 00
	00		 add	 ecx, 228		; 000000e4H
  0005f	ff 25 00 00 00
	00		 jmp	 DWORD PTR __imp_??1?$basic_string@DU?$char_traits@D@std@@V?$allocator@D@2@@std@@QAE@XZ
$L210050:
  00065	8b 4d f0	 mov	 ecx, DWORD PTR _this$[ebp]
  00068	81 c1 00 01 00
	00		 add	 ecx, 256		; 00000100H
  0006e	ff 25 00 00 00
	00		 jmp	 DWORD PTR __imp_??1?$basic_string@DU?$char_traits@D@std@@V?$allocator@D@2@@std@@QAE@XZ
__ehhandler$??1CPlayBoxDlg@@UAE@XZ:
  00074	b8 00 00 00 00	 mov	 eax, OFFSET FLAT:$T210053
  00079	e9 00 00 00 00	 jmp	 ___CxxFrameHandler
text$x	ENDS
??1CPlayBoxDlg@@UAE@XZ ENDP				; CPlayBoxDlg::~CPlayBoxDlg
PUBLIC	?_AtlInstallStringThunk@ATL@@YAXPAPAXPAX1@Z	; ATL::_AtlInstallStringThunk
PUBLIC	?GetEnvironmentVariableWFake@ATL@@YGKPB_WPA_WK@Z ; ATL::GetEnvironmentVariableWFake
EXTRN	__imp__GetEnvironmentVariableW@12:NEAR
; Function compile flags: /Odt
; File d:\program files (x86)\microsoft visual studio .net 2003\vc7\atlmfc\include\cstringt.h
;	COMDAT ?GetEnvironmentVariableWThunk@ATL@@YGKPB_WPA_WK@Z
_TEXT	SEGMENT
_pszName$ = 8						; size = 4
_pszBuffer$ = 12					; size = 4
_nSize$ = 16						; size = 4
?GetEnvironmentVariableWThunk@ATL@@YGKPB_WPA_WK@Z PROC NEAR ; ATL::GetEnvironmentVariableWThunk, COMDAT

; 183  : {

  00000	55		 push	 ebp
  00001	8b ec		 mov	 ebp, esp

; 184  : 	_AtlInstallStringThunk(reinterpret_cast<void**>(&_strthunks.pfnGetEnvironmentVariableW), 
; 185  : 		GetEnvironmentVariableWFake, ::GetEnvironmentVariableW);

  00003	a1 00 00 00 00	 mov	 eax, DWORD PTR __imp__GetEnvironmentVariableW@12
  00008	50		 push	 eax
  00009	68 00 00 00 00	 push	 OFFSET FLAT:?GetEnvironmentVariableWFake@ATL@@YGKPB_WPA_WK@Z ; ATL::GetEnvironmentVariableWFake
  0000e	68 14 00 00 00	 push	 OFFSET FLAT:?_strthunks@ATL@@3U_AtlStringThunks@1@A+20
  00013	e8 00 00 00 00	 call	 ?_AtlInstallStringThunk@ATL@@YAXPAPAXPAX1@Z ; ATL::_AtlInstallStringThunk
  00018	83 c4 0c	 add	 esp, 12			; 0000000cH

; 186  : 
; 187  : 	return _strthunks.pfnGetEnvironmentVariableW(pszName, pszBuffer, nSize);

  0001b	8b 4d 10	 mov	 ecx, DWORD PTR _nSize$[ebp]
  0001e	51		 push	 ecx
  0001f	8b 55 0c	 mov	 edx, DWORD PTR _pszBuffer$[ebp]
  00022	52		 push	 edx
  00023	8b 45 08	 mov	 eax, DWORD PTR _pszName$[ebp]
  00026	50		 push	 eax
  00027	ff 15 14 00 00
	00		 call	 DWORD PTR ?_strthunks@ATL@@3U_AtlStringThunks@1@A+20

; 188  : }

  0002d	5d		 pop	 ebp
  0002e	c2 0c 00	 ret	 12			; 0000000cH
?GetEnvironmentVariableWThunk@ATL@@YGKPB_WPA_WK@Z ENDP	; ATL::GetEnvironmentVariableWThunk
_TEXT	ENDS
PUBLIC	?s_bWin9x@?1??_AtlInstallStringThunk@ATL@@YAXPAPAXPAX1@Z@4_NA ; `ATL::_AtlInstallStringThunk'::`2'::s_bWin9x
PUBLIC	??_B?1??_AtlInstallStringThunk@ATL@@YAXPAPAXPAX1@Z@51 ; `ATL::_AtlInstallStringThunk'::`2'::`local static guard'
EXTRN	__imp__GetVersion@0:NEAR
;	COMDAT ?s_bWin9x@?1??_AtlInstallStringThunk@ATL@@YAXPAPAXPAX1@Z@4_NA
_BSS	SEGMENT
?s_bWin9x@?1??_AtlInstallStringThunk@ATL@@YAXPAPAXPAX1@Z@4_NA DB 01H DUP (?) ; `ATL::_AtlInstallStringThunk'::`2'::s_bWin9x
_BSS	ENDS
;	COMDAT ??_B?1??_AtlInstallStringThunk@ATL@@YAXPAPAXPAX1@Z@51
_BSS	SEGMENT
??_B?1??_AtlInstallStringThunk@ATL@@YAXPAPAXPAX1@Z@51 DD 01H DUP (?) ; `ATL::_AtlInstallStringThunk'::`2'::`local static guard'
; Function compile flags: /Odt
_BSS	ENDS
;	COMDAT ?_AtlInstallStringThunk@ATL@@YAXPAPAXPAX1@Z
_TEXT	SEGMENT
_pfn$ = -4						; size = 4
_ppThunk$ = 8						; size = 4
_pfnWin9x$ = 12						; size = 4
_pfnNT$ = 16						; size = 4
?_AtlInstallStringThunk@ATL@@YAXPAPAXPAX1@Z PROC NEAR	; ATL::_AtlInstallStringThunk, COMDAT

; 115  : {

  00000	55		 push	 ebp
  00001	8b ec		 mov	 ebp, esp
  00003	51		 push	 ecx

; 116  : #pragma warning (push)
; 117  : #pragma warning (disable : 4640)	// construction of local static object is not thread-safe
; 118  : 
; 119  : 	static bool s_bWin9x = (::GetVersion()&0x80000000) != 0;

  00004	a1 00 00 00 00	 mov	 eax, DWORD PTR ??_B?1??_AtlInstallStringThunk@ATL@@YAXPAPAXPAX1@Z@51
  00009	83 e0 01	 and	 eax, 1
  0000c	75 25		 jne	 SHORT $L25641
  0000e	8b 0d 00 00 00
	00		 mov	 ecx, DWORD PTR ??_B?1??_AtlInstallStringThunk@ATL@@YAXPAPAXPAX1@Z@51
  00014	83 c9 01	 or	 ecx, 1
  00017	89 0d 00 00 00
	00		 mov	 DWORD PTR ??_B?1??_AtlInstallStringThunk@ATL@@YAXPAPAXPAX1@Z@51, ecx
  0001d	ff 15 00 00 00
	00		 call	 DWORD PTR __imp__GetVersion@0
  00023	25 00 00 00 80	 and	 eax, -2147483648	; 80000000H
  00028	f7 d8		 neg	 eax
  0002a	1b c0		 sbb	 eax, eax
  0002c	f7 d8		 neg	 eax
  0002e	a2 00 00 00 00	 mov	 BYTE PTR ?s_bWin9x@?1??_AtlInstallStringThunk@ATL@@YAXPAPAXPAX1@Z@4_NA, al ; `ATL::_AtlInstallStringThunk'::`2'::s_bWin9x
$L25641:

; 120  : 	
; 121  : #pragma warning (pop)
; 122  : 
; 123  : 	void* pfn;
; 124  : 	if (s_bWin9x)

  00033	0f b6 15 00 00
	00 00		 movzx	 edx, BYTE PTR ?s_bWin9x@?1??_AtlInstallStringThunk@ATL@@YAXPAPAXPAX1@Z@4_NA ; `ATL::_AtlInstallStringThunk'::`2'::s_bWin9x
  0003a	85 d2		 test	 edx, edx
  0003c	74 08		 je	 SHORT $L25643

; 125  : 		pfn = pfnWin9x;

  0003e	8b 45 0c	 mov	 eax, DWORD PTR _pfnWin9x$[ebp]
  00041	89 45 fc	 mov	 DWORD PTR _pfn$[ebp], eax

; 126  : 	else

  00044	eb 06		 jmp	 SHORT $L25644
$L25643:

; 127  : 	{
; 128  : #ifdef _CSTRING_ALWAYS_THUNK
; 129  : 		pfn = pfnWin9x;
; 130  : 		(void)pfnNT;
; 131  : #else
; 132  : 		pfn = pfnNT;

  00046	8b 4d 10	 mov	 ecx, DWORD PTR _pfnNT$[ebp]
  00049	89 4d fc	 mov	 DWORD PTR _pfn$[ebp], ecx
$L25644:

; 133  : #endif
; 134  : 	}
; 135  : 	InterlockedExchangePointer(ppThunk, pfn);

  0004c	8b 55 fc	 mov	 edx, DWORD PTR _pfn$[ebp]
  0004f	52		 push	 edx
  00050	8b 45 08	 mov	 eax, DWORD PTR _ppThunk$[ebp]
  00053	50		 push	 eax
  00054	e8 00 00 00 00	 call	 ?InterlockedExchangePointer@@YGPAXPAPAXPAX@Z ; InterlockedExchangePointer

; 136  : }

  00059	8b e5		 mov	 esp, ebp
  0005b	5d		 pop	 ebp
  0005c	c3		 ret	 0
?_AtlInstallStringThunk@ATL@@YAXPAPAXPAX1@Z ENDP	; ATL::_AtlInstallStringThunk
_TEXT	ENDS
PUBLIC	??0?$CTempBuffer@D$0IA@VCCRTAllocator@ATL@@@ATL@@QAE@XZ ; ATL::CTempBuffer<char,128,ATL::CCRTAllocator>::CTempBuffer<char,128,ATL::CCRTAllocator>
PUBLIC	??1?$CTempBuffer@D$0IA@VCCRTAllocator@ATL@@@ATL@@QAE@XZ ; ATL::CTempBuffer<char,128,ATL::CCRTAllocator>::~CTempBuffer<char,128,ATL::CCRTAllocator>
PUBLIC	??B?$CTempBuffer@D$0IA@VCCRTAllocator@ATL@@@ATL@@QBEPADXZ ; ATL::CTempBuffer<char,128,ATL::CCRTAllocator>::operator char *
PUBLIC	?Allocate@?$CTempBuffer@D$0IA@VCCRTAllocator@ATL@@@ATL@@QAEPADI@Z ; ATL::CTempBuffer<char,128,ATL::CCRTAllocator>::Allocate
PUBLIC	??0?$CW2AEX@$0IA@@ATL@@QAE@PB_W@Z		; ATL::CW2AEX<128>::CW2AEX<128>
PUBLIC	??1?$CW2AEX@$0IA@@ATL@@QAE@XZ			; ATL::CW2AEX<128>::~CW2AEX<128>
PUBLIC	??B?$CW2AEX@$0IA@@ATL@@QBEPADXZ			; ATL::CW2AEX<128>::operator char *
PUBLIC	?_AtlGetConversionACP@ATL@@YGIXZ		; ATL::_AtlGetConversionACP
EXTRN	__imp__MultiByteToWideChar@24:NEAR
EXTRN	__imp__GetEnvironmentVariableA@12:NEAR
;	COMDAT xdata$x
xdata$x	SEGMENT
$T210074 DD	0ffffffffH
	DD	FLAT:$L210068
	DD	00H
	DD	FLAT:$L210069
$T210071 DD	019930520H
	DD	02H
	DD	FLAT:$T210074
	DD	2 DUP(00H)
	DD	2 DUP(00H)
; Function compile flags: /Odt
xdata$x	ENDS
;	COMDAT ?GetEnvironmentVariableWFake@ATL@@YGKPB_WPA_WK@Z
_TEXT	SEGMENT
$T210067 = -312						; size = 4
$T210066 = -308						; size = 4
$T210065 = -304						; size = 4
_pszBufferA$ = -300					; size = 132
_nSizeW$ = -160						; size = 4
_pszNameA$ = -156					; size = 132
__$ArrayPad$ = -20					; size = 4
_nSizeA$ = -16						; size = 4
__$EHRec$ = -12						; size = 12
__$ReturnAddr$ = 4					; size = 4
_pszName$ = 8						; size = 4
_pszBuffer$ = 12					; size = 4
_nSize$ = 16						; size = 4
?GetEnvironmentVariableWFake@ATL@@YGKPB_WPA_WK@Z PROC NEAR ; ATL::GetEnvironmentVariableWFake, COMDAT

; 159  : {

  00000	55		 push	 ebp
  00001	8b ec		 mov	 ebp, esp
  00003	6a ff		 push	 -1
  00005	68 00 00 00 00	 push	 __ehhandler$?GetEnvironmentVariableWFake@ATL@@YGKPB_WPA_WK@Z
  0000a	64 a1 00 00 00
	00		 mov	 eax, DWORD PTR fs:__except_list
  00010	50		 push	 eax
  00011	64 89 25 00 00
	00 00		 mov	 DWORD PTR fs:__except_list, esp
  00018	81 ec 2c 01 00
	00		 sub	 esp, 300		; 0000012cH
  0001e	a1 00 00 00 00	 mov	 eax, DWORD PTR ___security_cookie
  00023	89 45 ec	 mov	 DWORD PTR __$ArrayPad$[ebp], eax

; 160  : 	ULONG nSizeA;
; 161  : 	ULONG nSizeW;
; 162  : 	CTempBuffer<char> pszBufferA;

  00026	8d 8d d4 fe ff
	ff		 lea	 ecx, DWORD PTR _pszBufferA$[ebp]
  0002c	e8 00 00 00 00	 call	 ??0?$CTempBuffer@D$0IA@VCCRTAllocator@ATL@@@ATL@@QAE@XZ ; ATL::CTempBuffer<char,128,ATL::CCRTAllocator>::CTempBuffer<char,128,ATL::CCRTAllocator>
  00031	c7 45 fc 00 00
	00 00		 mov	 DWORD PTR __$EHRec$[ebp+8], 0

; 163  : 	CW2A pszNameA(pszName);

  00038	8b 45 08	 mov	 eax, DWORD PTR _pszName$[ebp]
  0003b	50		 push	 eax
  0003c	8d 8d 64 ff ff
	ff		 lea	 ecx, DWORD PTR _pszNameA$[ebp]
  00042	e8 00 00 00 00	 call	 ??0?$CW2AEX@$0IA@@ATL@@QAE@PB_W@Z ; ATL::CW2AEX<128>::CW2AEX<128>
  00047	c6 45 fc 01	 mov	 BYTE PTR __$EHRec$[ebp+8], 1

; 164  : 
; 165  : 	nSizeA = ::GetEnvironmentVariableA(pszNameA, NULL, 0);

  0004b	6a 00		 push	 0
  0004d	6a 00		 push	 0
  0004f	8d 8d 64 ff ff
	ff		 lea	 ecx, DWORD PTR _pszNameA$[ebp]
  00055	e8 00 00 00 00	 call	 ??B?$CW2AEX@$0IA@@ATL@@QBEPADXZ ; ATL::CW2AEX<128>::operator char *
  0005a	50		 push	 eax
  0005b	ff 15 00 00 00
	00		 call	 DWORD PTR __imp__GetEnvironmentVariableA@12
  00061	89 45 f0	 mov	 DWORD PTR _nSizeA$[ebp], eax

; 166  : 	if (nSizeA == 0)

  00064	83 7d f0 00	 cmp	 DWORD PTR _nSizeA$[ebp], 0
  00068	75 36		 jne	 SHORT $L25746

; 167  : 		return 0;

  0006a	c7 85 d0 fe ff
	ff 00 00 00 00	 mov	 DWORD PTR $T210065[ebp], 0
  00074	c6 45 fc 00	 mov	 BYTE PTR __$EHRec$[ebp+8], 0
  00078	8d 8d 64 ff ff
	ff		 lea	 ecx, DWORD PTR _pszNameA$[ebp]
  0007e	e8 00 00 00 00	 call	 ??1?$CW2AEX@$0IA@@ATL@@QAE@XZ ; ATL::CW2AEX<128>::~CW2AEX<128>
  00083	c7 45 fc ff ff
	ff ff		 mov	 DWORD PTR __$EHRec$[ebp+8], -1
  0008a	8d 8d d4 fe ff
	ff		 lea	 ecx, DWORD PTR _pszBufferA$[ebp]
  00090	e8 00 00 00 00	 call	 ??1?$CTempBuffer@D$0IA@VCCRTAllocator@ATL@@@ATL@@QAE@XZ ; ATL::CTempBuffer<char,128,ATL::CCRTAllocator>::~CTempBuffer<char,128,ATL::CCRTAllocator>
  00095	8b 85 d0 fe ff
	ff		 mov	 eax, DWORD PTR $T210065[ebp]
  0009b	e9 ee 00 00 00	 jmp	 $L25687
$L25746:

; 168  : 
; 169  : 	pszBufferA.Allocate(nSizeA*2);

  000a0	8b 4d f0	 mov	 ecx, DWORD PTR _nSizeA$[ebp]
  000a3	d1 e1		 shl	 ecx, 1
  000a5	51		 push	 ecx
  000a6	8d 8d d4 fe ff
	ff		 lea	 ecx, DWORD PTR _pszBufferA$[ebp]
  000ac	e8 00 00 00 00	 call	 ?Allocate@?$CTempBuffer@D$0IA@VCCRTAllocator@ATL@@@ATL@@QAEPADI@Z ; ATL::CTempBuffer<char,128,ATL::CCRTAllocator>::Allocate

; 170  : 	::GetEnvironmentVariableA(pszNameA, pszBufferA, nSizeA);

  000b1	8b 55 f0	 mov	 edx, DWORD PTR _nSizeA$[ebp]
  000b4	52		 push	 edx
  000b5	8d 8d d4 fe ff
	ff		 lea	 ecx, DWORD PTR _pszBufferA$[ebp]
  000bb	e8 00 00 00 00	 call	 ??B?$CTempBuffer@D$0IA@VCCRTAllocator@ATL@@@ATL@@QBEPADXZ ; ATL::CTempBuffer<char,128,ATL::CCRTAllocator>::operator char *
  000c0	50		 push	 eax
  000c1	8d 8d 64 ff ff
	ff		 lea	 ecx, DWORD PTR _pszNameA$[ebp]
  000c7	e8 00 00 00 00	 call	 ??B?$CW2AEX@$0IA@@ATL@@QBEPADXZ ; ATL::CW2AEX<128>::operator char *
  000cc	50		 push	 eax
  000cd	ff 15 00 00 00
	00		 call	 DWORD PTR __imp__GetEnvironmentVariableA@12

; 171  : 
; 172  : 	nSizeW = ::MultiByteToWideChar(_AtlGetConversionACP(), 0, pszBufferA, -1, NULL, 0);

  000d3	6a 00		 push	 0
  000d5	6a 00		 push	 0
  000d7	6a ff		 push	 -1
  000d9	8d 8d d4 fe ff
	ff		 lea	 ecx, DWORD PTR _pszBufferA$[ebp]
  000df	e8 00 00 00 00	 call	 ??B?$CTempBuffer@D$0IA@VCCRTAllocator@ATL@@@ATL@@QBEPADXZ ; ATL::CTempBuffer<char,128,ATL::CCRTAllocator>::operator char *
  000e4	50		 push	 eax
  000e5	6a 00		 push	 0
  000e7	e8 00 00 00 00	 call	 ?_AtlGetConversionACP@ATL@@YGIXZ ; ATL::_AtlGetConversionACP
  000ec	50		 push	 eax
  000ed	ff 15 00 00 00
	00		 call	 DWORD PTR __imp__MultiByteToWideChar@24
  000f3	89 85 60 ff ff
	ff		 mov	 DWORD PTR _nSizeW$[ebp], eax

; 173  : 	if (nSize == 0)

  000f9	83 7d 10 00	 cmp	 DWORD PTR _nSize$[ebp], 0
  000fd	75 35		 jne	 SHORT $L25748

; 174  : 		return nSizeW;

  000ff	8b 85 60 ff ff
	ff		 mov	 eax, DWORD PTR _nSizeW$[ebp]
  00105	89 85 cc fe ff
	ff		 mov	 DWORD PTR $T210066[ebp], eax
  0010b	c6 45 fc 00	 mov	 BYTE PTR __$EHRec$[ebp+8], 0
  0010f	8d 8d 64 ff ff
	ff		 lea	 ecx, DWORD PTR _pszNameA$[ebp]
  00115	e8 00 00 00 00	 call	 ??1?$CW2AEX@$0IA@@ATL@@QAE@XZ ; ATL::CW2AEX<128>::~CW2AEX<128>
  0011a	c7 45 fc ff ff
	ff ff		 mov	 DWORD PTR __$EHRec$[ebp+8], -1
  00121	8d 8d d4 fe ff
	ff		 lea	 ecx, DWORD PTR _pszBufferA$[ebp]
  00127	e8 00 00 00 00	 call	 ??1?$CTempBuffer@D$0IA@VCCRTAllocator@ATL@@@ATL@@QAE@XZ ; ATL::CTempBuffer<char,128,ATL::CCRTAllocator>::~CTempBuffer<char,128,ATL::CCRTAllocator>
  0012c	8b 85 cc fe ff
	ff		 mov	 eax, DWORD PTR $T210066[ebp]
  00132	eb 5a		 jmp	 SHORT $L25687
$L25748:

; 175  : 	ATLASSERT(nSize >= nSizeW);
; 176  : 	::MultiByteToWideChar(_AtlGetConversionACP(), 0, pszBufferA, -1, pszBuffer, nSizeW);

  00134	8b 8d 60 ff ff
	ff		 mov	 ecx, DWORD PTR _nSizeW$[ebp]
  0013a	51		 push	 ecx
  0013b	8b 55 0c	 mov	 edx, DWORD PTR _pszBuffer$[ebp]
  0013e	52		 push	 edx
  0013f	6a ff		 push	 -1
  00141	8d 8d d4 fe ff
	ff		 lea	 ecx, DWORD PTR _pszBufferA$[ebp]
  00147	e8 00 00 00 00	 call	 ??B?$CTempBuffer@D$0IA@VCCRTAllocator@ATL@@@ATL@@QBEPADXZ ; ATL::CTempBuffer<char,128,ATL::CCRTAllocator>::operator char *
  0014c	50		 push	 eax
  0014d	6a 00		 push	 0
  0014f	e8 00 00 00 00	 call	 ?_AtlGetConversionACP@ATL@@YGIXZ ; ATL::_AtlGetConversionACP
  00154	50		 push	 eax
  00155	ff 15 00 00 00
	00		 call	 DWORD PTR __imp__MultiByteToWideChar@24

; 177  : 
; 178  : 	return nSizeW;

  0015b	8b 85 60 ff ff
	ff		 mov	 eax, DWORD PTR _nSizeW$[ebp]
  00161	89 85 c8 fe ff
	ff		 mov	 DWORD PTR $T210067[ebp], eax
  00167	c6 45 fc 00	 mov	 BYTE PTR __$EHRec$[ebp+8], 0
  0016b	8d 8d 64 ff ff
	ff		 lea	 ecx, DWORD PTR _pszNameA$[ebp]
  00171	e8 00 00 00 00	 call	 ??1?$CW2AEX@$0IA@@ATL@@QAE@XZ ; ATL::CW2AEX<128>::~CW2AEX<128>
  00176	c7 45 fc ff ff
	ff ff		 mov	 DWORD PTR __$EHRec$[ebp+8], -1
  0017d	8d 8d d4 fe ff
	ff		 lea	 ecx, DWORD PTR _pszBufferA$[ebp]
  00183	e8 00 00 00 00	 call	 ??1?$CTempBuffer@D$0IA@VCCRTAllocator@ATL@@@ATL@@QAE@XZ ; ATL::CTempBuffer<char,128,ATL::CCRTAllocator>::~CTempBuffer<char,128,ATL::CCRTAllocator>
  00188	8b 85 c8 fe ff
	ff		 mov	 eax, DWORD PTR $T210067[ebp]
$L25687:

; 179  : }

  0018e	8b 4d f4	 mov	 ecx, DWORD PTR __$EHRec$[ebp]
  00191	64 89 0d 00 00
	00 00		 mov	 DWORD PTR fs:__except_list, ecx
  00198	8b 4d ec	 mov	 ecx, DWORD PTR __$ArrayPad$[ebp]
  0019b	e8 00 00 00 00	 call	 @__security_check_cookie@4
  001a0	8b e5		 mov	 esp, ebp
  001a2	5d		 pop	 ebp
  001a3	c2 0c 00	 ret	 12			; 0000000cH
_TEXT	ENDS
;	COMDAT text$x
text$x	SEGMENT
$L210068:
  00000	8d 8d d4 fe ff
	ff		 lea	 ecx, DWORD PTR _pszBufferA$[ebp]
  00006	e9 00 00 00 00	 jmp	 ??1?$CTempBuffer@D$0IA@VCCRTAllocator@ATL@@@ATL@@QAE@XZ ; ATL::CTempBuffer<char,128,ATL::CCRTAllocator>::~CTempBuffer<char,128,ATL::CCRTAllocator>
$L210069:
  0000b	8d 8d 64 ff ff
	ff		 lea	 ecx, DWORD PTR _pszNameA$[ebp]
  00011	e9 00 00 00 00	 jmp	 ??1?$CW2AEX@$0IA@@ATL@@QAE@XZ ; ATL::CW2AEX<128>::~CW2AEX<128>
__ehhandler$?GetEnvironmentVariableWFake@ATL@@YGKPB_WPA_WK@Z:
  00016	b8 00 00 00 00	 mov	 eax, OFFSET FLAT:$T210071
  0001b	e9 00 00 00 00	 jmp	 ___CxxFrameHandler
text$x	ENDS
?GetEnvironmentVariableWFake@ATL@@YGKPB_WPA_WK@Z ENDP	; ATL::GetEnvironmentVariableWFake
; Function compile flags: /Odt
; File d:\program files (x86)\microsoft visual studio .net 2003\vc7\atlmfc\include\atlconv.h
;	COMDAT ?_AtlGetConversionACP@ATL@@YGIXZ
_TEXT	SEGMENT
?_AtlGetConversionACP@ATL@@YGIXZ PROC NEAR		; ATL::_AtlGetConversionACP, COMDAT

; 157  : {

  00000	55		 push	 ebp
  00001	8b ec		 mov	 ebp, esp

; 158  : 	return( g_pfnGetThreadACP() );

  00003	ff 15 00 00 00
	00		 call	 DWORD PTR ?g_pfnGetThreadACP@ATL@@3P6GIXZA ; ATL::g_pfnGetThreadACP

; 159  : }

  00009	5d		 pop	 ebp
  0000a	c3		 ret	 0
?_AtlGetConversionACP@ATL@@YGIXZ ENDP			; ATL::_AtlGetConversionACP
_TEXT	ENDS
EXTRN	??3@YAXPAX@Z:NEAR				; operator delete
; Function compile flags: /Odt
;	COMDAT ??_GILayoutChangeObserver@@UAEPAXI@Z
_TEXT	SEGMENT
_this$ = -4						; size = 4
___flags$ = 8						; size = 4
??_GILayoutChangeObserver@@UAEPAXI@Z PROC NEAR		; ILayoutChangeObserver::`scalar deleting destructor', COMDAT
; _this$ = ecx
  00000	55		 push	 ebp
  00001	8b ec		 mov	 ebp, esp
  00003	51		 push	 ecx
  00004	89 4d fc	 mov	 DWORD PTR _this$[ebp], ecx
  00007	8b 4d fc	 mov	 ecx, DWORD PTR _this$[ebp]
  0000a	e8 00 00 00 00	 call	 ??1ILayoutChangeObserver@@UAE@XZ
  0000f	8b 45 08	 mov	 eax, DWORD PTR ___flags$[ebp]
  00012	83 e0 01	 and	 eax, 1
  00015	74 0c		 je	 SHORT $L207496
  00017	8b 4d fc	 mov	 ecx, DWORD PTR _this$[ebp]
  0001a	51		 push	 ecx
  0001b	e8 00 00 00 00	 call	 ??3@YAXPAX@Z		; operator delete
  00020	83 c4 04	 add	 esp, 4
$L207496:
  00023	8b 45 fc	 mov	 eax, DWORD PTR _this$[ebp]
  00026	8b e5		 mov	 esp, ebp
  00028	5d		 pop	 ebp
  00029	c2 04 00	 ret	 4
??_GILayoutChangeObserver@@UAEPAXI@Z ENDP		; ILayoutChangeObserver::`scalar deleting destructor'
_TEXT	ENDS
PUBLIC	??_R4IMessageObserver@@6B@			; IMessageObserver::`RTTI Complete Object Locator'
PUBLIC	??_R3IMessageObserver@@8			; IMessageObserver::`RTTI Class Hierarchy Descriptor'
PUBLIC	??_R2IMessageObserver@@8			; IMessageObserver::`RTTI Base Class Array'
PUBLIC	??_7IMessageObserver@@6B@			; IMessageObserver::`vftable'
PUBLIC	??_GIMessageObserver@@UAEPAXI@Z			; IMessageObserver::`scalar deleting destructor'
EXTRN	??_EIMessageObserver@@UAEPAXI@Z:NEAR		; IMessageObserver::`vector deleting destructor'
;	COMDAT ??_7IMessageObserver@@6B@
CONST	SEGMENT
??_7IMessageObserver@@6B@ DD FLAT:??_R4IMessageObserver@@6B@ ; IMessageObserver::`vftable'
	DD	FLAT:??_EIMessageObserver@@UAEPAXI@Z
CONST	ENDS
;	COMDAT ??_R4IMessageObserver@@6B@
rdata$r	SEGMENT
??_R4IMessageObserver@@6B@ DD 00H			; IMessageObserver::`RTTI Complete Object Locator'
	DD	00H
	DD	00H
	DD	FLAT:??_R0?AVIMessageObserver@@@8
	DD	FLAT:??_R3IMessageObserver@@8
rdata$r	ENDS
;	COMDAT ??_R3IMessageObserver@@8
rdata$r	SEGMENT
??_R3IMessageObserver@@8 DD 00H				; IMessageObserver::`RTTI Class Hierarchy Descriptor'
	DD	00H
	DD	01H
	DD	FLAT:??_R2IMessageObserver@@8
rdata$r	ENDS
;	COMDAT ??_R2IMessageObserver@@8
rdata$r	SEGMENT
??_R2IMessageObserver@@8 DD FLAT:??_R1A@?0A@A@IMessageObserver@@8 ; IMessageObserver::`RTTI Base Class Array'
; Function compile flags: /Odt
rdata$r	ENDS
;	COMDAT ??0IMessageObserver@@QAE@XZ
_TEXT	SEGMENT
_this$ = -4						; size = 4
??0IMessageObserver@@QAE@XZ PROC NEAR			; IMessageObserver::IMessageObserver, COMDAT
; _this$ = ecx
  00000	55		 push	 ebp
  00001	8b ec		 mov	 ebp, esp
  00003	51		 push	 ecx
  00004	89 4d fc	 mov	 DWORD PTR _this$[ebp], ecx
  00007	8b 45 fc	 mov	 eax, DWORD PTR _this$[ebp]
  0000a	c7 00 00 00 00
	00		 mov	 DWORD PTR [eax], OFFSET FLAT:??_7IMessageObserver@@6B@
  00010	8b 45 fc	 mov	 eax, DWORD PTR _this$[ebp]
  00013	8b e5		 mov	 esp, ebp
  00015	5d		 pop	 ebp
  00016	c3		 ret	 0
??0IMessageObserver@@QAE@XZ ENDP			; IMessageObserver::IMessageObserver
; Function compile flags: /Odt
_TEXT	ENDS
;	COMDAT ??_GIPanelChangeObserver@@UAEPAXI@Z
_TEXT	SEGMENT
_this$ = -4						; size = 4
___flags$ = 8						; size = 4
??_GIPanelChangeObserver@@UAEPAXI@Z PROC NEAR		; IPanelChangeObserver::`scalar deleting destructor', COMDAT
; _this$ = ecx
  00000	55		 push	 ebp
  00001	8b ec		 mov	 ebp, esp
  00003	51		 push	 ecx
  00004	89 4d fc	 mov	 DWORD PTR _this$[ebp], ecx
  00007	8b 4d fc	 mov	 ecx, DWORD PTR _this$[ebp]
  0000a	e8 00 00 00 00	 call	 ??1IPanelChangeObserver@@UAE@XZ
  0000f	8b 45 08	 mov	 eax, DWORD PTR ___flags$[ebp]
  00012	83 e0 01	 and	 eax, 1
  00015	74 0c		 je	 SHORT $L207501
  00017	8b 4d fc	 mov	 ecx, DWORD PTR _this$[ebp]
  0001a	51		 push	 ecx
  0001b	e8 00 00 00 00	 call	 ??3@YAXPAX@Z		; operator delete
  00020	83 c4 04	 add	 esp, 4
$L207501:
  00023	8b 45 fc	 mov	 eax, DWORD PTR _this$[ebp]
  00026	8b e5		 mov	 esp, ebp
  00028	5d		 pop	 ebp
  00029	c2 04 00	 ret	 4
??_GIPanelChangeObserver@@UAEPAXI@Z ENDP		; IPanelChangeObserver::`scalar deleting destructor'
_TEXT	ENDS
PUBLIC	?DoDataExchange@CWnd@@MAEXPAVCDataExchange@@@Z	; CWnd::DoDataExchange
; Function compile flags: /Odt
; File d:\boxgit\playbox\playbox\dev\prj\playbox\playboxdlg.cpp
_TEXT	SEGMENT
_this$ = -4						; size = 4
_pDX$ = 8						; size = 4
?DoDataExchange@CPlayBoxDlg@@MAEXPAVCDataExchange@@@Z PROC NEAR ; CPlayBoxDlg::DoDataExchange
; _this$ = ecx

; 57   : {

  00200	55		 push	 ebp
  00201	8b ec		 mov	 ebp, esp
  00203	51		 push	 ecx
  00204	89 4d fc	 mov	 DWORD PTR _this$[ebp], ecx

; 58   : 	CDialog::DoDataExchange(pDX);

  00207	8b 45 08	 mov	 eax, DWORD PTR _pDX$[ebp]
  0020a	50		 push	 eax
  0020b	8b 4d fc	 mov	 ecx, DWORD PTR _this$[ebp]
  0020e	e8 00 00 00 00	 call	 ?DoDataExchange@CWnd@@MAEXPAVCDataExchange@@@Z ; CWnd::DoDataExchange

; 59   : }

  00213	8b e5		 mov	 esp, ebp
  00215	5d		 pop	 ebp
  00216	c2 04 00	 ret	 4
?DoDataExchange@CPlayBoxDlg@@MAEXPAVCDataExchange@@@Z ENDP ; CPlayBoxDlg::DoDataExchange
_TEXT	ENDS
PUBLIC	?GetThisMessageMap@CPlayBoxDlg@@KGPBUAFX_MSGMAP@@XZ ; CPlayBoxDlg::GetThisMessageMap
; Function compile flags: /Odt
_TEXT	SEGMENT
?GetThisMessageMap@CPlayBoxDlg@@KGPBUAFX_MSGMAP@@XZ PROC NEAR ; CPlayBoxDlg::GetThisMessageMap

; 61   : BEGIN_MESSAGE_MAP(CPlayBoxDlg, CDialog)

  00220	55		 push	 ebp
  00221	8b ec		 mov	 ebp, esp
  00223	b8 00 00 00 00	 mov	 eax, OFFSET FLAT:?messageMap@CPlayBoxDlg@@1UAFX_MSGMAP@@B ; CPlayBoxDlg::messageMap
  00228	5d		 pop	 ebp
  00229	c3		 ret	 0
?GetThisMessageMap@CPlayBoxDlg@@KGPBUAFX_MSGMAP@@XZ ENDP ; CPlayBoxDlg::GetThisMessageMap
; Function compile flags: /Odt
_this$ = -4						; size = 4
?GetMessageMap@CPlayBoxDlg@@MBEPBUAFX_MSGMAP@@XZ PROC NEAR ; CPlayBoxDlg::GetMessageMap
; _this$ = ecx

; 61   : BEGIN_MESSAGE_MAP(CPlayBoxDlg, CDialog)

  00230	55		 push	 ebp
  00231	8b ec		 mov	 ebp, esp
  00233	51		 push	 ecx
  00234	89 4d fc	 mov	 DWORD PTR _this$[ebp], ecx
  00237	b8 00 00 00 00	 mov	 eax, OFFSET FLAT:?messageMap@CPlayBoxDlg@@1UAFX_MSGMAP@@B ; CPlayBoxDlg::messageMap
  0023c	8b e5		 mov	 esp, ebp
  0023e	5d		 pop	 ebp
  0023f	c3		 ret	 0
?GetMessageMap@CPlayBoxDlg@@MBEPBUAFX_MSGMAP@@XZ ENDP	; CPlayBoxDlg::GetMessageMap
; Function compile flags: /Odt
_this$ = -4						; size = 4
?OnCancel@CPlayBoxDlg@@MAEXXZ PROC NEAR			; CPlayBoxDlg::OnCancel
; _this$ = ecx

; 94   : {

  00240	55		 push	 ebp
  00241	8b ec		 mov	 ebp, esp
  00243	51		 push	 ecx
  00244	89 4d fc	 mov	 DWORD PTR _this$[ebp], ecx

; 95   : }

  00247	8b e5		 mov	 esp, ebp
  00249	5d		 pop	 ebp
  0024a	c3		 ret	 0
?OnCancel@CPlayBoxDlg@@MAEXXZ ENDP			; CPlayBoxDlg::OnCancel
; Function compile flags: /Odt
_this$ = -4						; size = 4
?OnOK@CPlayBoxDlg@@MAEXXZ PROC NEAR			; CPlayBoxDlg::OnOK
; _this$ = ecx

; 97   : {

  00250	55		 push	 ebp
  00251	8b ec		 mov	 ebp, esp
  00253	51		 push	 ecx
  00254	89 4d fc	 mov	 DWORD PTR _this$[ebp], ecx

; 98   : }

  00257	8b e5		 mov	 esp, ebp
  00259	5d		 pop	 ebp
  0025a	c3		 ret	 0
?OnOK@CPlayBoxDlg@@MAEXXZ ENDP				; CPlayBoxDlg::OnOK
_TEXT	ENDS
PUBLIC	?CompareStringWFake@ATL@@YGHKKPB_WH0H@Z		; ATL::CompareStringWFake
EXTRN	__imp__CompareStringW@24:NEAR
; Function compile flags: /Odt
; File d:\program files (x86)\microsoft visual studio .net 2003\vc7\atlmfc\include\cstringt.h
;	COMDAT ?CompareStringWThunk@ATL@@YGHKKPB_WH0H@Z
_TEXT	SEGMENT
_lcid$ = 8						; size = 4
_dwFlags$ = 12						; size = 4
_pszString1$ = 16					; size = 4
_nLength1$ = 20						; size = 4
_pszString2$ = 24					; size = 4
_nLength2$ = 28						; size = 4
?CompareStringWThunk@ATL@@YGHKKPB_WH0H@Z PROC NEAR	; ATL::CompareStringWThunk, COMDAT

; 216  : {

  00000	55		 push	 ebp
  00001	8b ec		 mov	 ebp, esp

; 217  : 	_AtlInstallStringThunk(reinterpret_cast<void**>(&_strthunks.pfnCompareStringW), CompareStringWFake, ::CompareStringW);

  00003	a1 00 00 00 00	 mov	 eax, DWORD PTR __imp__CompareStringW@24
  00008	50		 push	 eax
  00009	68 00 00 00 00	 push	 OFFSET FLAT:?CompareStringWFake@ATL@@YGHKKPB_WH0H@Z ; ATL::CompareStringWFake
  0000e	68 00 00 00 00	 push	 OFFSET FLAT:?_strthunks@ATL@@3U_AtlStringThunks@1@A ; ATL::_strthunks
  00013	e8 00 00 00 00	 call	 ?_AtlInstallStringThunk@ATL@@YAXPAPAXPAX1@Z ; ATL::_AtlInstallStringThunk
  00018	83 c4 0c	 add	 esp, 12			; 0000000cH

; 218  : 
; 219  : 	return _strthunks.pfnCompareStringW(lcid, dwFlags, pszString1, nLength1, pszString2, nLength2);

  0001b	8b 4d 1c	 mov	 ecx, DWORD PTR _nLength2$[ebp]
  0001e	51		 push	 ecx
  0001f	8b 55 18	 mov	 edx, DWORD PTR _pszString2$[ebp]
  00022	52		 push	 edx
  00023	8b 45 14	 mov	 eax, DWORD PTR _nLength1$[ebp]
  00026	50		 push	 eax
  00027	8b 4d 10	 mov	 ecx, DWORD PTR _pszString1$[ebp]
  0002a	51		 push	 ecx
  0002b	8b 55 0c	 mov	 edx, DWORD PTR _dwFlags$[ebp]
  0002e	52		 push	 edx
  0002f	8b 45 08	 mov	 eax, DWORD PTR _lcid$[ebp]
  00032	50		 push	 eax
  00033	ff 15 00 00 00
	00		 call	 DWORD PTR ?_strthunks@ATL@@3U_AtlStringThunks@1@A

; 220  : }

  00039	5d		 pop	 ebp
  0003a	c2 18 00	 ret	 24			; 00000018H
?CompareStringWThunk@ATL@@YGHKKPB_WH0H@Z ENDP		; ATL::CompareStringWThunk
_TEXT	ENDS
PUBLIC	?AtlThrow@ATL@@YGXJ@Z				; ATL::AtlThrow
PUBLIC	?_AtlVerifyStackAvailable@_ATL_SAFE_ALLOCA_IMPL@ATL@@YA_NK@Z ; ATL::_ATL_SAFE_ALLOCA_IMPL::_AtlVerifyStackAvailable
PUBLIC	?AtlW2AHelper@@YGPADPADPB_WHI@Z			; AtlW2AHelper
PUBLIC	??0?$CAtlSafeAllocBufferManager@VCCRTAllocator@ATL@@@_ATL_SAFE_ALLOCA_IMPL@ATL@@QAE@XZ ; ATL::_ATL_SAFE_ALLOCA_IMPL::CAtlSafeAllocBufferManager<ATL::CCRTAllocator>::CAtlSafeAllocBufferManager<ATL::CCRTAllocator>
PUBLIC	?Allocate@?$CAtlSafeAllocBufferManager@VCCRTAllocator@ATL@@@_ATL_SAFE_ALLOCA_IMPL@ATL@@QAEPAXK@Z ; ATL::_ATL_SAFE_ALLOCA_IMPL::CAtlSafeAllocBufferManager<ATL::CCRTAllocator>::Allocate
PUBLIC	??1?$CAtlSafeAllocBufferManager@VCCRTAllocator@ATL@@@_ATL_SAFE_ALLOCA_IMPL@ATL@@QAE@XZ ; ATL::_ATL_SAFE_ALLOCA_IMPL::CAtlSafeAllocBufferManager<ATL::CCRTAllocator>::~CAtlSafeAllocBufferManager<ATL::CCRTAllocator>
EXTRN	__imp__lstrlenW@4:NEAR
EXTRN	__alloca_probe:NEAR
EXTRN	__imp__CompareStringA@24:NEAR
;	COMDAT xdata$x
xdata$x	SEGMENT
$T210108 DD	0ffffffffH
	DD	FLAT:$L210103
$T210105 DD	019930520H
	DD	01H
	DD	FLAT:$T210108
	DD	2 DUP(00H)
	DD	2 DUP(00H)
; Function compile flags: /Odt
xdata$x	ENDS
;	COMDAT ?CompareStringWFake@ATL@@YGHKKPB_WH0H@Z
_TEXT	SEGMENT
tv147 = -68						; size = 4
tv142 = -64						; size = 4
tv149 = -60						; size = 4
tv89 = -56						; size = 4
tv84 = -52						; size = 4
tv91 = -48						; size = 4
$T210102 = -44						; size = 4
_pszAString1$ = -40					; size = 4
__AtlSafeAllocaManager$ = -36				; size = 4
__convert_ex$ = -32					; size = 4
__acp_ex$ = -28						; size = 4
_pszAString2$ = -24					; size = 4
__lpw_ex$ = -16						; size = 4
__$EHRec$ = -12						; size = 12
_lcid$ = 8						; size = 4
_dwFlags$ = 12						; size = 4
_pszString1$ = 16					; size = 4
_nLength1$ = 20						; size = 4
_pszString2$ = 24					; size = 4
_nLength2$ = 28						; size = 4
?CompareStringWFake@ATL@@YGHKKPB_WH0H@Z PROC NEAR	; ATL::CompareStringWFake, COMDAT

; 192  : {

  00000	55		 push	 ebp
  00001	8b ec		 mov	 ebp, esp
  00003	6a ff		 push	 -1
  00005	68 00 00 00 00	 push	 __ehhandler$?CompareStringWFake@ATL@@YGHKKPB_WH0H@Z
  0000a	64 a1 00 00 00
	00		 mov	 eax, DWORD PTR fs:__except_list
  00010	50		 push	 eax
  00011	64 89 25 00 00
	00 00		 mov	 DWORD PTR fs:__except_list, esp
  00018	83 ec 38	 sub	 esp, 56			; 00000038H

; 193  : 	USES_CONVERSION_EX;

  0001b	e8 00 00 00 00	 call	 ?_AtlGetConversionACP@ATL@@YGIXZ ; ATL::_AtlGetConversionACP
  00020	89 45 e4	 mov	 DWORD PTR __acp_ex$[ebp], eax
  00023	8d 4d dc	 lea	 ecx, DWORD PTR __AtlSafeAllocaManager$[ebp]
  00026	e8 00 00 00 00	 call	 ??0?$CAtlSafeAllocBufferManager@VCCRTAllocator@ATL@@@_ATL_SAFE_ALLOCA_IMPL@ATL@@QAE@XZ ; ATL::_ATL_SAFE_ALLOCA_IMPL::CAtlSafeAllocBufferManager<ATL::CCRTAllocator>::CAtlSafeAllocBufferManager<ATL::CCRTAllocator>
  0002b	c7 45 fc 00 00
	00 00		 mov	 DWORD PTR __$EHRec$[ebp+8], 0

; 194  : 	
; 195  : 	LPCSTR pszAString1 = NULL;

  00032	c7 45 d8 00 00
	00 00		 mov	 DWORD PTR _pszAString1$[ebp], 0

; 196  : 	if(pszString1 != NULL)

  00039	83 7d 10 00	 cmp	 DWORD PTR _pszString1$[ebp], 0
  0003d	0f 84 98 00 00
	00		 je	 $L25772

; 197  : 	{
; 198  : 		pszAString1 = W2A_EX(pszString1,_ATL_SAFE_ALLOCA_DEF_THRESHOLD);

  00043	8b 45 10	 mov	 eax, DWORD PTR _pszString1$[ebp]
  00046	89 45 f0	 mov	 DWORD PTR __lpw_ex$[ebp], eax
  00049	83 7d f0 00	 cmp	 DWORD PTR __lpw_ex$[ebp], 0
  0004d	75 09		 jne	 SHORT $L210096
  0004f	c7 45 d0 00 00
	00 00		 mov	 DWORD PTR tv91[ebp], 0
  00056	eb 6d		 jmp	 SHORT $L210097
$L210096:
  00058	8b 4d f0	 mov	 ecx, DWORD PTR __lpw_ex$[ebp]
  0005b	51		 push	 ecx
  0005c	ff 15 00 00 00
	00		 call	 DWORD PTR __imp__lstrlenW@4
  00062	8d 54 00 02	 lea	 edx, DWORD PTR [eax+eax+2]
  00066	89 55 e0	 mov	 DWORD PTR __convert_ex$[ebp], edx
  00069	81 7d e0 00 04
	00 00		 cmp	 DWORD PTR __convert_ex$[ebp], 1024 ; 00000400H
  00070	7f 2c		 jg	 SHORT $L210094
  00072	8b 45 e0	 mov	 eax, DWORD PTR __convert_ex$[ebp]
  00075	50		 push	 eax
  00076	e8 00 00 00 00	 call	 ?_AtlVerifyStackAvailable@_ATL_SAFE_ALLOCA_IMPL@ATL@@YA_NK@Z ; ATL::_ATL_SAFE_ALLOCA_IMPL::_AtlVerifyStackAvailable
  0007b	83 c4 04	 add	 esp, 4
  0007e	0f b6 c8	 movzx	 ecx, al
  00081	85 c9		 test	 ecx, ecx
  00083	74 19		 je	 SHORT $L210094
  00085	8b 45 e0	 mov	 eax, DWORD PTR __convert_ex$[ebp]
  00088	83 c0 03	 add	 eax, 3
  0008b	83 e0 fc	 and	 eax, -4			; fffffffcH
  0008e	e8 00 00 00 00	 call	 __alloca_probe
  00093	89 65 cc	 mov	 DWORD PTR tv84[ebp], esp
  00096	8b 55 cc	 mov	 edx, DWORD PTR tv84[ebp]
  00099	89 55 c8	 mov	 DWORD PTR tv89[ebp], edx
  0009c	eb 0f		 jmp	 SHORT $L210095
$L210094:
  0009e	8b 45 e0	 mov	 eax, DWORD PTR __convert_ex$[ebp]
  000a1	50		 push	 eax
  000a2	8d 4d dc	 lea	 ecx, DWORD PTR __AtlSafeAllocaManager$[ebp]
  000a5	e8 00 00 00 00	 call	 ?Allocate@?$CAtlSafeAllocBufferManager@VCCRTAllocator@ATL@@@_ATL_SAFE_ALLOCA_IMPL@ATL@@QAEPAXK@Z ; ATL::_ATL_SAFE_ALLOCA_IMPL::CAtlSafeAllocBufferManager<ATL::CCRTAllocator>::Allocate
  000aa	89 45 c8	 mov	 DWORD PTR tv89[ebp], eax
$L210095:
  000ad	8b 4d e4	 mov	 ecx, DWORD PTR __acp_ex$[ebp]
  000b0	51		 push	 ecx
  000b1	8b 55 e0	 mov	 edx, DWORD PTR __convert_ex$[ebp]
  000b4	52		 push	 edx
  000b5	8b 45 f0	 mov	 eax, DWORD PTR __lpw_ex$[ebp]
  000b8	50		 push	 eax
  000b9	8b 4d c8	 mov	 ecx, DWORD PTR tv89[ebp]
  000bc	51		 push	 ecx
  000bd	e8 00 00 00 00	 call	 ?AtlW2AHelper@@YGPADPADPB_WHI@Z ; AtlW2AHelper
  000c2	89 45 d0	 mov	 DWORD PTR tv91[ebp], eax
$L210097:
  000c5	8b 55 d0	 mov	 edx, DWORD PTR tv91[ebp]
  000c8	89 55 d8	 mov	 DWORD PTR _pszAString1$[ebp], edx

; 199  : 		if(pszAString1 == NULL)

  000cb	83 7d d8 00	 cmp	 DWORD PTR _pszAString1$[ebp], 0
  000cf	75 0a		 jne	 SHORT $L25772

; 200  : 			AtlThrow(E_OUTOFMEMORY);

  000d1	68 0e 00 07 80	 push	 -2147024882		; 8007000eH
  000d6	e8 00 00 00 00	 call	 ?AtlThrow@ATL@@YGXJ@Z	; ATL::AtlThrow
$L25772:

; 201  : 	}
; 202  : 
; 203  : 	LPCSTR pszAString2 = NULL;

  000db	c7 45 e8 00 00
	00 00		 mov	 DWORD PTR _pszAString2$[ebp], 0

; 204  : 	if(pszString2 != NULL)

  000e2	83 7d 18 00	 cmp	 DWORD PTR _pszString2$[ebp], 0
  000e6	0f 84 98 00 00
	00		 je	 $L25778

; 205  : 	{
; 206  : 		pszAString2 = W2A_EX(pszString2,_ATL_SAFE_ALLOCA_DEF_THRESHOLD);

  000ec	8b 45 18	 mov	 eax, DWORD PTR _pszString2$[ebp]
  000ef	89 45 f0	 mov	 DWORD PTR __lpw_ex$[ebp], eax
  000f2	83 7d f0 00	 cmp	 DWORD PTR __lpw_ex$[ebp], 0
  000f6	75 09		 jne	 SHORT $L210100
  000f8	c7 45 c4 00 00
	00 00		 mov	 DWORD PTR tv149[ebp], 0
  000ff	eb 6d		 jmp	 SHORT $L210101
$L210100:
  00101	8b 4d f0	 mov	 ecx, DWORD PTR __lpw_ex$[ebp]
  00104	51		 push	 ecx
  00105	ff 15 00 00 00
	00		 call	 DWORD PTR __imp__lstrlenW@4
  0010b	8d 54 00 02	 lea	 edx, DWORD PTR [eax+eax+2]
  0010f	89 55 e0	 mov	 DWORD PTR __convert_ex$[ebp], edx
  00112	81 7d e0 00 04
	00 00		 cmp	 DWORD PTR __convert_ex$[ebp], 1024 ; 00000400H
  00119	7f 2c		 jg	 SHORT $L210098
  0011b	8b 45 e0	 mov	 eax, DWORD PTR __convert_ex$[ebp]
  0011e	50		 push	 eax
  0011f	e8 00 00 00 00	 call	 ?_AtlVerifyStackAvailable@_ATL_SAFE_ALLOCA_IMPL@ATL@@YA_NK@Z ; ATL::_ATL_SAFE_ALLOCA_IMPL::_AtlVerifyStackAvailable
  00124	83 c4 04	 add	 esp, 4
  00127	0f b6 c8	 movzx	 ecx, al
  0012a	85 c9		 test	 ecx, ecx
  0012c	74 19		 je	 SHORT $L210098
  0012e	8b 45 e0	 mov	 eax, DWORD PTR __convert_ex$[ebp]
  00131	83 c0 03	 add	 eax, 3
  00134	83 e0 fc	 and	 eax, -4			; fffffffcH
  00137	e8 00 00 00 00	 call	 __alloca_probe
  0013c	89 65 c0	 mov	 DWORD PTR tv142[ebp], esp
  0013f	8b 55 c0	 mov	 edx, DWORD PTR tv142[ebp]
  00142	89 55 bc	 mov	 DWORD PTR tv147[ebp], edx
  00145	eb 0f		 jmp	 SHORT $L210099
$L210098:
  00147	8b 45 e0	 mov	 eax, DWORD PTR __convert_ex$[ebp]
  0014a	50		 push	 eax
  0014b	8d 4d dc	 lea	 ecx, DWORD PTR __AtlSafeAllocaManager$[ebp]
  0014e	e8 00 00 00 00	 call	 ?Allocate@?$CAtlSafeAllocBufferManager@VCCRTAllocator@ATL@@@_ATL_SAFE_ALLOCA_IMPL@ATL@@QAEPAXK@Z ; ATL::_ATL_SAFE_ALLOCA_IMPL::CAtlSafeAllocBufferManager<ATL::CCRTAllocator>::Allocate
  00153	89 45 bc	 mov	 DWORD PTR tv147[ebp], eax
$L210099:
  00156	8b 4d e4	 mov	 ecx, DWORD PTR __acp_ex$[ebp]
  00159	51		 push	 ecx
  0015a	8b 55 e0	 mov	 edx, DWORD PTR __convert_ex$[ebp]
  0015d	52		 push	 edx
  0015e	8b 45 f0	 mov	 eax, DWORD PTR __lpw_ex$[ebp]
  00161	50		 push	 eax
  00162	8b 4d bc	 mov	 ecx, DWORD PTR tv147[ebp]
  00165	51		 push	 ecx
  00166	e8 00 00 00 00	 call	 ?AtlW2AHelper@@YGPADPADPB_WHI@Z ; AtlW2AHelper
  0016b	89 45 c4	 mov	 DWORD PTR tv149[ebp], eax
$L210101:
  0016e	8b 55 c4	 mov	 edx, DWORD PTR tv149[ebp]
  00171	89 55 e8	 mov	 DWORD PTR _pszAString2$[ebp], edx

; 207  : 		if(pszAString2 == NULL)

  00174	83 7d e8 00	 cmp	 DWORD PTR _pszAString2$[ebp], 0
  00178	75 0a		 jne	 SHORT $L25778

; 208  : 			AtlThrow(E_OUTOFMEMORY);

  0017a	68 0e 00 07 80	 push	 -2147024882		; 8007000eH
  0017f	e8 00 00 00 00	 call	 ?AtlThrow@ATL@@YGXJ@Z	; ATL::AtlThrow
$L25778:

; 209  : 	}
; 210  : 
; 211  : 	return ::CompareStringA(lcid, dwFlags, pszAString1, nLength1, pszAString2, nLength2);

  00184	8b 45 1c	 mov	 eax, DWORD PTR _nLength2$[ebp]
  00187	50		 push	 eax
  00188	8b 4d e8	 mov	 ecx, DWORD PTR _pszAString2$[ebp]
  0018b	51		 push	 ecx
  0018c	8b 55 14	 mov	 edx, DWORD PTR _nLength1$[ebp]
  0018f	52		 push	 edx
  00190	8b 45 d8	 mov	 eax, DWORD PTR _pszAString1$[ebp]
  00193	50		 push	 eax
  00194	8b 4d 0c	 mov	 ecx, DWORD PTR _dwFlags$[ebp]
  00197	51		 push	 ecx
  00198	8b 55 08	 mov	 edx, DWORD PTR _lcid$[ebp]
  0019b	52		 push	 edx
  0019c	ff 15 00 00 00
	00		 call	 DWORD PTR __imp__CompareStringA@24
  001a2	89 45 d4	 mov	 DWORD PTR $T210102[ebp], eax
  001a5	c7 45 fc ff ff
	ff ff		 mov	 DWORD PTR __$EHRec$[ebp+8], -1
  001ac	8d 4d dc	 lea	 ecx, DWORD PTR __AtlSafeAllocaManager$[ebp]
  001af	e8 00 00 00 00	 call	 ??1?$CAtlSafeAllocBufferManager@VCCRTAllocator@ATL@@@_ATL_SAFE_ALLOCA_IMPL@ATL@@QAE@XZ ; ATL::_ATL_SAFE_ALLOCA_IMPL::CAtlSafeAllocBufferManager<ATL::CCRTAllocator>::~CAtlSafeAllocBufferManager<ATL::CCRTAllocator>
  001b4	8b 45 d4	 mov	 eax, DWORD PTR $T210102[ebp]
$L210093:

; 212  : }

  001b7	8d 65 bc	 lea	 esp, DWORD PTR [ebp-68]
  001ba	8b 4d f4	 mov	 ecx, DWORD PTR __$EHRec$[ebp]
  001bd	64 89 0d 00 00
	00 00		 mov	 DWORD PTR fs:__except_list, ecx
  001c4	8b e5		 mov	 esp, ebp
  001c6	5d		 pop	 ebp
  001c7	c2 18 00	 ret	 24			; 00000018H
_TEXT	ENDS
;	COMDAT text$x
text$x	SEGMENT
$L210103:
  00000	8d 4d dc	 lea	 ecx, DWORD PTR __AtlSafeAllocaManager$[ebp]
  00003	e9 00 00 00 00	 jmp	 ??1?$CAtlSafeAllocBufferManager@VCCRTAllocator@ATL@@@_ATL_SAFE_ALLOCA_IMPL@ATL@@QAE@XZ ; ATL::_ATL_SAFE_ALLOCA_IMPL::CAtlSafeAllocBufferManager<ATL::CCRTAllocator>::~CAtlSafeAllocBufferManager<ATL::CCRTAllocator>
__ehhandler$?CompareStringWFake@ATL@@YGHKKPB_WH0H@Z:
  00008	b8 00 00 00 00	 mov	 eax, OFFSET FLAT:$T210105
  0000d	e9 00 00 00 00	 jmp	 ___CxxFrameHandler
text$x	ENDS
?CompareStringWFake@ATL@@YGHKKPB_WH0H@Z ENDP		; ATL::CompareStringWFake
EXTRN	__except_handler3:NEAR
EXTRN	__imp___resetstkoflw:NEAR
;	COMDAT CONST
; File d:\program files (x86)\microsoft visual studio .net 2003\vc7\atlmfc\include\atlalloc.h
CONST	SEGMENT
$T210119 DD	0ffffffffH
	DD	FLAT:$L210114
	DD	FLAT:$L210115
; Function compile flags: /Odt
CONST	ENDS
;	COMDAT ?_AtlVerifyStackAvailable@_ATL_SAFE_ALLOCA_IMPL@ATL@@YA_NK@Z
_TEXT	SEGMENT
tv65 = -40						; size = 4
$T210118 = -36						; size = 4
_p$24118 = -32						; size = 4
_bStackAvailable$ = -25					; size = 1
__$SEHRec$ = -24					; size = 24
_Size$ = 8						; size = 4
?_AtlVerifyStackAvailable@_ATL_SAFE_ALLOCA_IMPL@ATL@@YA_NK@Z PROC NEAR ; ATL::_ATL_SAFE_ALLOCA_IMPL::_AtlVerifyStackAvailable, COMDAT

; 331  : {

  00000	55		 push	 ebp
  00001	8b ec		 mov	 ebp, esp
  00003	6a ff		 push	 -1
  00005	68 00 00 00 00	 push	 OFFSET FLAT:$T210119
  0000a	68 00 00 00 00	 push	 OFFSET FLAT:__except_handler3
  0000f	64 a1 00 00 00
	00		 mov	 eax, DWORD PTR fs:__except_list
  00015	50		 push	 eax
  00016	64 89 25 00 00
	00 00		 mov	 DWORD PTR fs:__except_list, esp
  0001d	83 c4 e8	 add	 esp, -24		; ffffffe8H
  00020	53		 push	 ebx
  00021	56		 push	 esi
  00022	57		 push	 edi
  00023	89 65 e8	 mov	 DWORD PTR __$SEHRec$[ebp], esp

; 332  :     bool bStackAvailable = true;

  00026	c6 45 e7 01	 mov	 BYTE PTR _bStackAvailable$[ebp], 1

; 333  : 
; 334  :     __try

  0002a	c7 45 fc 00 00
	00 00		 mov	 DWORD PTR __$SEHRec$[ebp+20], 0

; 335  :     {
; 336  :         PVOID p = _alloca(Size + _ATL_STACK_MARGIN);

  00031	8b 45 08	 mov	 eax, DWORD PTR _Size$[ebp]
  00034	05 03 20 00 00	 add	 eax, 8195		; 00002003H
  00039	83 e0 fc	 and	 eax, -4			; fffffffcH
  0003c	e8 00 00 00 00	 call	 __alloca_probe
  00041	89 65 d8	 mov	 DWORD PTR tv65[ebp], esp
  00044	89 65 e8	 mov	 DWORD PTR __$SEHRec$[ebp], esp
  00047	8b 45 d8	 mov	 eax, DWORD PTR tv65[ebp]
  0004a	89 45 e0	 mov	 DWORD PTR _p$24118[ebp], eax
  0004d	c7 45 fc ff ff
	ff ff		 mov	 DWORD PTR __$SEHRec$[ebp+20], -1
  00054	eb 2c		 jmp	 SHORT $L210117
$L210114:
$L210123:

; 337  :         (p);
; 338  :     }
; 339  :     __except ((EXCEPTION_STACK_OVERFLOW == GetExceptionCode()) ?
; 340  :                    EXCEPTION_EXECUTE_HANDLER :
; 341  :                    EXCEPTION_CONTINUE_SEARCH)

  00056	8b 4d ec	 mov	 ecx, DWORD PTR __$SEHRec$[ebp+4]
  00059	8b 11		 mov	 edx, DWORD PTR [ecx]
  0005b	8b 02		 mov	 eax, DWORD PTR [edx]
  0005d	89 45 dc	 mov	 DWORD PTR $T210118[ebp], eax
  00060	8b 45 dc	 mov	 eax, DWORD PTR $T210118[ebp]
  00063	2d fd 00 00 c0	 sub	 eax, -1073741571	; c00000fdH
  00068	f7 d8		 neg	 eax
  0006a	1b c0		 sbb	 eax, eax
  0006c	40		 inc	 eax
$L210116:
$L210122:
  0006d	c3		 ret	 0
$L210115:
  0006e	8b 65 e8	 mov	 esp, DWORD PTR __$SEHRec$[ebp]

; 342  :     {
; 343  :         bStackAvailable = false;

  00071	c6 45 e7 00	 mov	 BYTE PTR _bStackAvailable$[ebp], 0

; 344  :         _resetstkoflw();

  00075	ff 15 00 00 00
	00		 call	 DWORD PTR __imp___resetstkoflw
  0007b	c7 45 fc ff ff
	ff ff		 mov	 DWORD PTR __$SEHRec$[ebp+20], -1
$L210117:

; 345  :     }
; 346  :     return bStackAvailable;

  00082	8a 45 e7	 mov	 al, BYTE PTR _bStackAvailable$[ebp]
$L210113:

; 347  : }

  00085	8d 65 cc	 lea	 esp, DWORD PTR [ebp-52]
  00088	8b 4d f0	 mov	 ecx, DWORD PTR __$SEHRec$[ebp+8]
  0008b	64 89 0d 00 00
	00 00		 mov	 DWORD PTR fs:__except_list, ecx
  00092	5f		 pop	 edi
  00093	5e		 pop	 esi
  00094	5b		 pop	 ebx
  00095	8b e5		 mov	 esp, ebp
  00097	5d		 pop	 ebp
  00098	c3		 ret	 0
?_AtlVerifyStackAvailable@_ATL_SAFE_ALLOCA_IMPL@ATL@@YA_NK@Z ENDP ; ATL::_ATL_SAFE_ALLOCA_IMPL::_AtlVerifyStackAvailable
_TEXT	ENDS
EXTRN	__imp__WideCharToMultiByte@32:NEAR
; Function compile flags: /Odt
; File d:\program files (x86)\microsoft visual studio .net 2003\vc7\atlmfc\include\atlconv.h
;	COMDAT ?AtlW2AHelper@@YGPADPADPB_WHI@Z
_TEXT	SEGMENT
_ret$ = -4						; size = 4
_lpa$ = 8						; size = 4
_lpw$ = 12						; size = 4
_nChars$ = 16						; size = 4
_acp$ = 20						; size = 4
?AtlW2AHelper@@YGPADPADPB_WHI@Z PROC NEAR		; AtlW2AHelper, COMDAT

; 573  : {

  00000	55		 push	 ebp
  00001	8b ec		 mov	 ebp, esp
  00003	51		 push	 ecx

; 574  : 	ATLASSERT(lpw != NULL);
; 575  : 	ATLASSERT(lpa != NULL);
; 576  : 	if (lpa == NULL || lpw == NULL)

  00004	83 7d 08 00	 cmp	 DWORD PTR _lpa$[ebp], 0
  00008	74 06		 je	 SHORT $L24319
  0000a	83 7d 0c 00	 cmp	 DWORD PTR _lpw$[ebp], 0
  0000e	75 04		 jne	 SHORT $L24318
$L24319:

; 577  : 		return NULL;

  00010	33 c0		 xor	 eax, eax
  00012	eb 34		 jmp	 SHORT $L24315
$L24318:

; 578  : 	// verify that no illegal character present
; 579  : 	// since lpa was allocated based on the size of lpw
; 580  : 	// don't worry about the number of chars
; 581  : 	lpa[0] = '\0';

  00014	8b 45 08	 mov	 eax, DWORD PTR _lpa$[ebp]
  00017	c6 00 00	 mov	 BYTE PTR [eax], 0

; 582  : 	int ret = WideCharToMultiByte(acp, 0, lpw, -1, lpa, nChars, NULL, NULL);

  0001a	6a 00		 push	 0
  0001c	6a 00		 push	 0
  0001e	8b 4d 10	 mov	 ecx, DWORD PTR _nChars$[ebp]
  00021	51		 push	 ecx
  00022	8b 55 08	 mov	 edx, DWORD PTR _lpa$[ebp]
  00025	52		 push	 edx
  00026	6a ff		 push	 -1
  00028	8b 45 0c	 mov	 eax, DWORD PTR _lpw$[ebp]
  0002b	50		 push	 eax
  0002c	6a 00		 push	 0
  0002e	8b 4d 14	 mov	 ecx, DWORD PTR _acp$[ebp]
  00031	51		 push	 ecx
  00032	ff 15 00 00 00
	00		 call	 DWORD PTR __imp__WideCharToMultiByte@32
  00038	89 45 fc	 mov	 DWORD PTR _ret$[ebp], eax

; 583  : 	if(ret == 0)

  0003b	83 7d fc 00	 cmp	 DWORD PTR _ret$[ebp], 0
  0003f	75 04		 jne	 SHORT $L24321

; 584  : 	{
; 585  : 		ATLASSERT(FALSE);
; 586  : 		return NULL;

  00041	33 c0		 xor	 eax, eax
  00043	eb 03		 jmp	 SHORT $L24315
$L24321:

; 587  : 	}
; 588  : 	return lpa;

  00045	8b 45 08	 mov	 eax, DWORD PTR _lpa$[ebp]
$L24315:

; 589  : }

  00048	8b e5		 mov	 esp, ebp
  0004a	5d		 pop	 ebp
  0004b	c2 10 00	 ret	 16			; 00000010H
?AtlW2AHelper@@YGPADPADPB_WHI@Z ENDP			; AtlW2AHelper
_TEXT	ENDS
EXTRN	?AfxThrowMemoryException@@YGXXZ:NEAR		; AfxThrowMemoryException
EXTRN	?AfxThrowOleException@@YGXJ@Z:NEAR		; AfxThrowOleException
; Function compile flags: /Odt
; File d:\program files (x86)\microsoft visual studio .net 2003\vc7\atlmfc\include\atlexcept.h
;	COMDAT ?AtlThrow@ATL@@YGXJ@Z
_TEXT	SEGMENT
_hr$ = 8						; size = 4
?AtlThrow@ATL@@YGXJ@Z PROC NEAR				; ATL::AtlThrow, COMDAT

; 61   : {

  00000	55		 push	 ebp
  00001	8b ec		 mov	 ebp, esp

; 62   : 	ATLTRACE(atlTraceException, 0, _T("AtlThrow: hr = 0x%x\n"), hr );
; 63   : #ifdef _AFX
; 64   : 	if( hr == E_OUTOFMEMORY )

  00003	81 7d 08 0e 00
	07 80		 cmp	 DWORD PTR _hr$[ebp], -2147024882 ; 8007000eH
  0000a	75 05		 jne	 SHORT $L24681

; 65   : 	{
; 66   : 		AfxThrowMemoryException();

  0000c	e8 00 00 00 00	 call	 ?AfxThrowMemoryException@@YGXXZ ; AfxThrowMemoryException
$L24681:

; 67   : 	}
; 68   : 	else
; 69   : 	{
; 70   : 		AfxThrowOleException( hr );

  00011	8b 45 08	 mov	 eax, DWORD PTR _hr$[ebp]
  00014	50		 push	 eax
  00015	e8 00 00 00 00	 call	 ?AfxThrowOleException@@YGXJ@Z ; AfxThrowOleException
$L210129:

; 71   : 	}
; 72   : #else
; 73   : 	throw CAtlException( hr );
; 74   : #endif
; 75   : };

  0001a	5d		 pop	 ebp
  0001b	c2 04 00	 ret	 4
?AtlThrow@ATL@@YGXJ@Z ENDP				; ATL::AtlThrow
_TEXT	ENDS
PUBLIC	?DeleteTray@CPlayBoxDlg@@QAEXXZ			; CPlayBoxDlg::DeleteTray
; Function compile flags: /Odt
; File d:\boxgit\playbox\playbox\dev\prj\playbox\playboxdlg.cpp
_TEXT	SEGMENT
tv73 = -16						; size = 4
_this$ = -12						; size = 4
$T210133 = -8						; size = 4
$T210132 = -4						; size = 4
?DeleteTray@CPlayBoxDlg@@QAEXXZ PROC NEAR		; CPlayBoxDlg::DeleteTray
; _this$ = ecx

; 100  : {

  00260	55		 push	 ebp
  00261	8b ec		 mov	 ebp, esp
  00263	83 ec 10	 sub	 esp, 16			; 00000010H
  00266	89 4d f4	 mov	 DWORD PTR _this$[ebp], ecx

; 101  : 	if(m_ptrayIcon != NULL)

  00269	8b 45 f4	 mov	 eax, DWORD PTR _this$[ebp]
  0026c	83 b8 90 00 00
	00 00		 cmp	 DWORD PTR [eax+144], 0
  00273	74 31		 je	 SHORT $L207682

; 102  : 		delete m_ptrayIcon;

  00275	8b 4d f4	 mov	 ecx, DWORD PTR _this$[ebp]
  00278	8b 91 90 00 00
	00		 mov	 edx, DWORD PTR [ecx+144]
  0027e	89 55 f8	 mov	 DWORD PTR $T210133[ebp], edx
  00281	8b 45 f8	 mov	 eax, DWORD PTR $T210133[ebp]
  00284	89 45 fc	 mov	 DWORD PTR $T210132[ebp], eax
  00287	83 7d fc 00	 cmp	 DWORD PTR $T210132[ebp], 0
  0028b	74 12		 je	 SHORT $L210134
  0028d	6a 01		 push	 1
  0028f	8b 4d fc	 mov	 ecx, DWORD PTR $T210132[ebp]
  00292	8b 11		 mov	 edx, DWORD PTR [ecx]
  00294	8b 4d fc	 mov	 ecx, DWORD PTR $T210132[ebp]
  00297	ff 52 04	 call	 DWORD PTR [edx+4]
  0029a	89 45 f0	 mov	 DWORD PTR tv73[ebp], eax
  0029d	eb 07		 jmp	 SHORT $L207682
$L210134:
  0029f	c7 45 f0 00 00
	00 00		 mov	 DWORD PTR tv73[ebp], 0
$L207682:

; 103  : 	m_ptrayIcon = NULL;

  002a6	8b 45 f4	 mov	 eax, DWORD PTR _this$[ebp]
  002a9	c7 80 90 00 00
	00 00 00 00 00	 mov	 DWORD PTR [eax+144], 0

; 104  : }

  002b3	8b e5		 mov	 esp, ebp
  002b5	5d		 pop	 ebp
  002b6	c3		 ret	 0
?DeleteTray@CPlayBoxDlg@@QAEXXZ ENDP			; CPlayBoxDlg::DeleteTray
_TEXT	ENDS
EXTRN	?GetConfigBoolValue@AfxUserConfig@@QAEXABV?$basic_string@DU?$char_traits@D@std@@V?$allocator@D@2@@std@@0AA_N@Z:NEAR ; AfxUserConfig::GetConfigBoolValue
EXTRN	__imp_??$?8DU?$char_traits@D@std@@V?$allocator@D@1@@std@@YA_NABV?$basic_string@DU?$char_traits@D@std@@V?$allocator@D@2@@0@PBD@Z:NEAR
EXTRN	__imp_??0?$basic_string@DU?$char_traits@D@std@@V?$allocator@D@2@@std@@QAE@PBD@Z:NEAR
EXTRN	?AfxGetUserConfig@@YAPAVAfxUserConfig@@XZ:NEAR	; AfxGetUserConfig
xdata$x	SEGMENT
$T210144 DD	0ffffffffH
	DD	FLAT:$L210139
	DD	00H
	DD	FLAT:$L210140
$T210142 DD	019930520H
	DD	02H
	DD	FLAT:$T210144
	DD	2 DUP(00H)
	DD	2 DUP(00H)
; Function compile flags: /Odt
xdata$x	ENDS
_TEXT	SEGMENT
_this$ = -72						; size = 4
$T210138 = -68						; size = 28
$T210137 = -40						; size = 28
__$EHRec$ = -12						; size = 12
_strKey$ = 8						; size = 4
?OnConfigChange@CPlayBoxDlg@@MAEXABV?$basic_string@DU?$char_traits@D@std@@V?$allocator@D@2@@std@@@Z PROC NEAR ; CPlayBoxDlg::OnConfigChange
; _this$ = ecx

; 107  : {

  002c0	55		 push	 ebp
  002c1	8b ec		 mov	 ebp, esp
  002c3	6a ff		 push	 -1
  002c5	68 00 00 00 00	 push	 __ehhandler$?OnConfigChange@CPlayBoxDlg@@MAEXABV?$basic_string@DU?$char_traits@D@std@@V?$allocator@D@2@@std@@@Z
  002ca	64 a1 00 00 00
	00		 mov	 eax, DWORD PTR fs:__except_list
  002d0	50		 push	 eax
  002d1	64 89 25 00 00
	00 00		 mov	 DWORD PTR fs:__except_list, esp
  002d8	83 ec 3c	 sub	 esp, 60			; 0000003cH
  002db	89 4d b8	 mov	 DWORD PTR _this$[ebp], ecx

; 108  : 	if( strKey == CONF_LAYOUT_NORMAL )

  002de	a1 00 00 00 00	 mov	 eax, DWORD PTR _CONF_LAYOUT_NORMAL
  002e3	50		 push	 eax
  002e4	8b 4d 08	 mov	 ecx, DWORD PTR _strKey$[ebp]
  002e7	51		 push	 ecx
  002e8	ff 15 00 00 00
	00		 call	 DWORD PTR __imp_??$?8DU?$char_traits@D@std@@V?$allocator@D@1@@std@@YA_NABV?$basic_string@DU?$char_traits@D@std@@V?$allocator@D@2@@0@PBD@Z
  002ee	83 c4 08	 add	 esp, 8
  002f1	0f b6 d0	 movzx	 edx, al
  002f4	85 d2		 test	 edx, edx
  002f6	74 62		 je	 SHORT $L207688

; 109  : 	{
; 110  : 		AfxGetUserConfig()->GetConfigBoolValue( CONF_LAYOUT_MODULE_NAME,CONF_LAYOUT_NORMAL,m_bNormal );

  002f8	a1 00 00 00 00	 mov	 eax, DWORD PTR _CONF_LAYOUT_NORMAL
  002fd	50		 push	 eax
  002fe	8d 4d d8	 lea	 ecx, DWORD PTR $T210137[ebp]
  00301	ff 15 00 00 00
	00		 call	 DWORD PTR __imp_??0?$basic_string@DU?$char_traits@D@std@@V?$allocator@D@2@@std@@QAE@PBD@Z
  00307	c7 45 fc 00 00
	00 00		 mov	 DWORD PTR __$EHRec$[ebp+8], 0
  0030e	8b 0d 00 00 00
	00		 mov	 ecx, DWORD PTR _CONF_LAYOUT_MODULE_NAME
  00314	51		 push	 ecx
  00315	8d 4d bc	 lea	 ecx, DWORD PTR $T210138[ebp]
  00318	ff 15 00 00 00
	00		 call	 DWORD PTR __imp_??0?$basic_string@DU?$char_traits@D@std@@V?$allocator@D@2@@std@@QAE@PBD@Z
  0031e	c6 45 fc 01	 mov	 BYTE PTR __$EHRec$[ebp+8], 1
  00322	8b 55 b8	 mov	 edx, DWORD PTR _this$[ebp]
  00325	83 c2 50	 add	 edx, 80			; 00000050H
  00328	52		 push	 edx
  00329	8d 45 d8	 lea	 eax, DWORD PTR $T210137[ebp]
  0032c	50		 push	 eax
  0032d	8d 4d bc	 lea	 ecx, DWORD PTR $T210138[ebp]
  00330	51		 push	 ecx
  00331	e8 00 00 00 00	 call	 ?AfxGetUserConfig@@YAPAVAfxUserConfig@@XZ ; AfxGetUserConfig
  00336	8b c8		 mov	 ecx, eax
  00338	e8 00 00 00 00	 call	 ?GetConfigBoolValue@AfxUserConfig@@QAEXABV?$basic_string@DU?$char_traits@D@std@@V?$allocator@D@2@@std@@0AA_N@Z ; AfxUserConfig::GetConfigBoolValue
  0033d	c6 45 fc 00	 mov	 BYTE PTR __$EHRec$[ebp+8], 0
  00341	8d 4d bc	 lea	 ecx, DWORD PTR $T210138[ebp]
  00344	ff 15 00 00 00
	00		 call	 DWORD PTR __imp_??1?$basic_string@DU?$char_traits@D@std@@V?$allocator@D@2@@std@@QAE@XZ
  0034a	c7 45 fc ff ff
	ff ff		 mov	 DWORD PTR __$EHRec$[ebp+8], -1
  00351	8d 4d d8	 lea	 ecx, DWORD PTR $T210137[ebp]
  00354	ff 15 00 00 00
	00		 call	 DWORD PTR __imp_??1?$basic_string@DU?$char_traits@D@std@@V?$allocator@D@2@@std@@QAE@XZ
$L207688:

; 111  : 	}
; 112  : }

  0035a	8b 4d f4	 mov	 ecx, DWORD PTR __$EHRec$[ebp]
  0035d	64 89 0d 00 00
	00 00		 mov	 DWORD PTR fs:__except_list, ecx
  00364	8b e5		 mov	 esp, ebp
  00366	5d		 pop	 ebp
  00367	c2 04 00	 ret	 4
_TEXT	ENDS
text$x	SEGMENT
$L210139:
  0005f	8d 4d d8	 lea	 ecx, DWORD PTR $T210137[ebp]
  00062	ff 25 00 00 00
	00		 jmp	 DWORD PTR __imp_??1?$basic_string@DU?$char_traits@D@std@@V?$allocator@D@2@@std@@QAE@XZ
$L210140:
  00068	8d 4d bc	 lea	 ecx, DWORD PTR $T210138[ebp]
  0006b	ff 25 00 00 00
	00		 jmp	 DWORD PTR __imp_??1?$basic_string@DU?$char_traits@D@std@@V?$allocator@D@2@@std@@QAE@XZ
__ehhandler$?OnConfigChange@CPlayBoxDlg@@MAEXABV?$basic_string@DU?$char_traits@D@std@@V?$allocator@D@2@@std@@@Z:
  00071	b8 00 00 00 00	 mov	 eax, OFFSET FLAT:$T210142
  00076	e9 00 00 00 00	 jmp	 ___CxxFrameHandler
text$x	ENDS
?OnConfigChange@CPlayBoxDlg@@MAEXABV?$basic_string@DU?$char_traits@D@std@@V?$allocator@D@2@@std@@@Z ENDP ; CPlayBoxDlg::OnConfigChange
PUBLIC	?KillTimer@CWnd@@QAEHI@Z			; CWnd::KillTimer
PUBLIC	?OnClose@CWnd@@IAEXXZ				; CWnd::OnClose
EXTRN	?EndDialog@CDialog@@QAEXH@Z:NEAR		; CDialog::EndDialog
EXTRN	__imp_?YL_Log@@YAXABV?$basic_string@DU?$char_traits@D@std@@V?$allocator@D@2@@std@@H0PBDZZ:NEAR
EXTRN	?DelInstance@TabWndFactory@@SAXXZ:NEAR		; TabWndFactory::DelInstance
EXTRN	?DelInstance@HttpDownCtrl@@SAXXZ:NEAR		; HttpDownCtrl::DelInstance
EXTRN	?GetInstance@CIrregularBorderMgr@@SAPAV1@XZ:NEAR ; CIrregularBorderMgr::GetInstance
EXTRN	?ShowTransDlg@CIrregularBorderMgr@@QAEX_N@Z:NEAR ; CIrregularBorderMgr::ShowTransDlg
EXTRN	?theApp@@3VCPlayBoxApp@@A:BYTE			; theApp
EXTRN	__imp__CloseHandle@4:NEAR
EXTRN	?AfxGetMessageManager@@YAPAVIMessageManager@@XZ:NEAR ; AfxGetMessageManager
EXTRN	?AfxGetUIManager@@YAPAVIUIManager@@XZ:NEAR	; AfxGetUIManager
xdata$x	SEGMENT
$T210161 DD	0ffffffffH
	DD	FLAT:$L210156
	DD	00H
	DD	FLAT:$L210157
$T210159 DD	019930520H
	DD	02H
	DD	FLAT:$T210161
	DD	2 DUP(00H)
	DD	2 DUP(00H)
; Function compile flags: /Odt
xdata$x	ENDS
_TEXT	SEGMENT
tv147 = -104						; size = 4
tv137 = -100						; size = 4
tv142 = -96						; size = 4
tv95 = -92						; size = 4
tv132 = -88						; size = 4
tv88 = -84						; size = 4
_this$ = -80						; size = 4
$T210149 = -76						; size = 4
$T210148 = -72						; size = 4
$T210147 = -68						; size = 28
$T210146 = -40						; size = 28
__$EHRec$ = -12						; size = 12
?OnClose@CPlayBoxDlg@@IAEXXZ PROC NEAR			; CPlayBoxDlg::OnClose
; _this$ = ecx

; 115  : {

  00370	55		 push	 ebp
  00371	8b ec		 mov	 ebp, esp
  00373	6a ff		 push	 -1
  00375	68 00 00 00 00	 push	 __ehhandler$?OnClose@CPlayBoxDlg@@IAEXXZ
  0037a	64 a1 00 00 00
	00		 mov	 eax, DWORD PTR fs:__except_list
  00380	50		 push	 eax
  00381	64 89 25 00 00
	00 00		 mov	 DWORD PTR fs:__except_list, esp
  00388	83 ec 5c	 sub	 esp, 92			; 0000005cH
  0038b	89 4d b0	 mov	 DWORD PTR _this$[ebp], ecx

; 116  : 	YL_Log( STR_LOG_FILE ,LOG_NOTICE,"PlayBoxDlg","OnClose" );

  0038e	68 00 00 00 00	 push	 OFFSET FLAT:$SG207698
  00393	8d 4d d8	 lea	 ecx, DWORD PTR $T210146[ebp]
  00396	ff 15 00 00 00
	00		 call	 DWORD PTR __imp_??0?$basic_string@DU?$char_traits@D@std@@V?$allocator@D@2@@std@@QAE@PBD@Z
  0039c	c7 45 fc 00 00
	00 00		 mov	 DWORD PTR __$EHRec$[ebp+8], 0
  003a3	68 00 00 00 00	 push	 OFFSET FLAT:$SG207699
  003a8	8d 4d bc	 lea	 ecx, DWORD PTR $T210147[ebp]
  003ab	ff 15 00 00 00
	00		 call	 DWORD PTR __imp_??0?$basic_string@DU?$char_traits@D@std@@V?$allocator@D@2@@std@@QAE@PBD@Z
  003b1	c6 45 fc 01	 mov	 BYTE PTR __$EHRec$[ebp+8], 1
  003b5	68 00 00 00 00	 push	 OFFSET FLAT:$SG207697
  003ba	8d 45 d8	 lea	 eax, DWORD PTR $T210146[ebp]
  003bd	50		 push	 eax
  003be	6a 01		 push	 1
  003c0	8d 4d bc	 lea	 ecx, DWORD PTR $T210147[ebp]
  003c3	51		 push	 ecx
  003c4	ff 15 00 00 00
	00		 call	 DWORD PTR __imp_?YL_Log@@YAXABV?$basic_string@DU?$char_traits@D@std@@V?$allocator@D@2@@std@@H0PBDZZ
  003ca	83 c4 10	 add	 esp, 16			; 00000010H
  003cd	c6 45 fc 00	 mov	 BYTE PTR __$EHRec$[ebp+8], 0
  003d1	8d 4d bc	 lea	 ecx, DWORD PTR $T210147[ebp]
  003d4	ff 15 00 00 00
	00		 call	 DWORD PTR __imp_??1?$basic_string@DU?$char_traits@D@std@@V?$allocator@D@2@@std@@QAE@XZ
  003da	c7 45 fc ff ff
	ff ff		 mov	 DWORD PTR __$EHRec$[ebp+8], -1
  003e1	8d 4d d8	 lea	 ecx, DWORD PTR $T210146[ebp]
  003e4	ff 15 00 00 00
	00		 call	 DWORD PTR __imp_??1?$basic_string@DU?$char_traits@D@std@@V?$allocator@D@2@@std@@QAE@XZ

; 117  : 
; 118  : 	CIrregularBorderMgr::GetInstance()->ShowTransDlg(false);

  003ea	6a 00		 push	 0
  003ec	e8 00 00 00 00	 call	 ?GetInstance@CIrregularBorderMgr@@SAPAV1@XZ ; CIrregularBorderMgr::GetInstance
  003f1	8b c8		 mov	 ecx, eax
  003f3	e8 00 00 00 00	 call	 ?ShowTransDlg@CIrregularBorderMgr@@QAEX_N@Z ; CIrregularBorderMgr::ShowTransDlg

; 119  : 	if(m_ptrayIcon != NULL)

  003f8	8b 55 b0	 mov	 edx, DWORD PTR _this$[ebp]
  003fb	83 ba 90 00 00
	00 00		 cmp	 DWORD PTR [edx+144], 0
  00402	74 3e		 je	 SHORT $L207700

; 120  : 	{
; 121  : 		delete m_ptrayIcon;

  00404	8b 45 b0	 mov	 eax, DWORD PTR _this$[ebp]
  00407	8b 88 90 00 00
	00		 mov	 ecx, DWORD PTR [eax+144]
  0040d	89 4d b4	 mov	 DWORD PTR $T210149[ebp], ecx
  00410	8b 55 b4	 mov	 edx, DWORD PTR $T210149[ebp]
  00413	89 55 b8	 mov	 DWORD PTR $T210148[ebp], edx
  00416	83 7d b8 00	 cmp	 DWORD PTR $T210148[ebp], 0
  0041a	74 12		 je	 SHORT $L210150
  0041c	6a 01		 push	 1
  0041e	8b 45 b8	 mov	 eax, DWORD PTR $T210148[ebp]
  00421	8b 10		 mov	 edx, DWORD PTR [eax]
  00423	8b 4d b8	 mov	 ecx, DWORD PTR $T210148[ebp]
  00426	ff 52 04	 call	 DWORD PTR [edx+4]
  00429	89 45 ac	 mov	 DWORD PTR tv88[ebp], eax
  0042c	eb 07		 jmp	 SHORT $L210151
$L210150:
  0042e	c7 45 ac 00 00
	00 00		 mov	 DWORD PTR tv88[ebp], 0
$L210151:

; 122  : 		m_ptrayIcon = NULL;

  00435	8b 45 b0	 mov	 eax, DWORD PTR _this$[ebp]
  00438	c7 80 90 00 00
	00 00 00 00 00	 mov	 DWORD PTR [eax+144], 0
$L207700:

; 123  : 	}
; 124  : 	CloseHandle(theApp.m_hMutexhandle);

  00442	8b 0d a4 00 00
	00		 mov	 ecx, DWORD PTR ?theApp@@3VCPlayBoxApp@@A+164
  00448	51		 push	 ecx
  00449	ff 15 00 00 00
	00		 call	 DWORD PTR __imp__CloseHandle@4

; 125  : 	EndDialog(0);

  0044f	6a 00		 push	 0
  00451	8b 4d b0	 mov	 ecx, DWORD PTR _this$[ebp]
  00454	e8 00 00 00 00	 call	 ?EndDialog@CDialog@@QAEXH@Z ; CDialog::EndDialog

; 126  : 	AfxGetMessageManager()->DetachMessage( ID_MESSAGE_LAYOUTMGR,(ILayoutChangeObserver*) this);

  00459	83 7d b0 00	 cmp	 DWORD PTR _this$[ebp], 0
  0045d	74 0b		 je	 SHORT $L210152
  0045f	8b 55 b0	 mov	 edx, DWORD PTR _this$[ebp]
  00462	83 c2 78	 add	 edx, 120		; 00000078H
  00465	89 55 a8	 mov	 DWORD PTR tv132[ebp], edx
  00468	eb 07		 jmp	 SHORT $L210153
$L210152:
  0046a	c7 45 a8 00 00
	00 00		 mov	 DWORD PTR tv132[ebp], 0
$L210153:
  00471	e8 00 00 00 00	 call	 ?AfxGetMessageManager@@YAPAVIMessageManager@@XZ ; AfxGetMessageManager
  00476	89 45 a4	 mov	 DWORD PTR tv95[ebp], eax
  00479	8b 45 a8	 mov	 eax, DWORD PTR tv132[ebp]
  0047c	50		 push	 eax
  0047d	68 00 00 00 00	 push	 OFFSET FLAT:_ID_MESSAGE_LAYOUTMGR
  00482	8b 4d a4	 mov	 ecx, DWORD PTR tv95[ebp]
  00485	8b 11		 mov	 edx, DWORD PTR [ecx]
  00487	8b 4d a4	 mov	 ecx, DWORD PTR tv95[ebp]
  0048a	ff 52 08	 call	 DWORD PTR [edx+8]

; 127  : 	AfxGetMessageManager()->DetachMessage( ID_MESSAGE_PANEL_CHANGE,(IPanelChangeObserver*)this);

  0048d	83 7d b0 00	 cmp	 DWORD PTR _this$[ebp], 0
  00491	74 0b		 je	 SHORT $L210154
  00493	8b 45 b0	 mov	 eax, DWORD PTR _this$[ebp]
  00496	83 c0 7c	 add	 eax, 124		; 0000007cH
  00499	89 45 a0	 mov	 DWORD PTR tv142[ebp], eax
  0049c	eb 07		 jmp	 SHORT $L210155
$L210154:
  0049e	c7 45 a0 00 00
	00 00		 mov	 DWORD PTR tv142[ebp], 0
$L210155:
  004a5	e8 00 00 00 00	 call	 ?AfxGetMessageManager@@YAPAVIMessageManager@@XZ ; AfxGetMessageManager
  004aa	89 45 9c	 mov	 DWORD PTR tv137[ebp], eax
  004ad	8b 4d a0	 mov	 ecx, DWORD PTR tv142[ebp]
  004b0	51		 push	 ecx
  004b1	68 00 00 00 00	 push	 OFFSET FLAT:_ID_MESSAGE_PANEL_CHANGE
  004b6	8b 55 9c	 mov	 edx, DWORD PTR tv137[ebp]
  004b9	8b 02		 mov	 eax, DWORD PTR [edx]
  004bb	8b 4d 9c	 mov	 ecx, DWORD PTR tv137[ebp]
  004be	ff 50 08	 call	 DWORD PTR [eax+8]

; 128  : 	AfxGetUIManager()->UIManAppExit();

  004c1	e8 00 00 00 00	 call	 ?AfxGetUIManager@@YAPAVIUIManager@@XZ ; AfxGetUIManager
  004c6	89 45 98	 mov	 DWORD PTR tv147[ebp], eax
  004c9	8b 4d 98	 mov	 ecx, DWORD PTR tv147[ebp]
  004cc	8b 11		 mov	 edx, DWORD PTR [ecx]
  004ce	8b 4d 98	 mov	 ecx, DWORD PTR tv147[ebp]
  004d1	ff 52 08	 call	 DWORD PTR [edx+8]

; 129  : 	KillTimer( TIMER_TRIM_MEM );

  004d4	6a 14		 push	 20			; 00000014H
  004d6	8b 4d b0	 mov	 ecx, DWORD PTR _this$[ebp]
  004d9	e8 00 00 00 00	 call	 ?KillTimer@CWnd@@QAEHI@Z ; CWnd::KillTimer

; 130  : 	if(m_uCloseTimer!=0)

  004de	8b 45 b0	 mov	 eax, DWORD PTR _this$[ebp]
  004e1	83 b8 d8 00 00
	00 00		 cmp	 DWORD PTR [eax+216], 0
  004e8	74 12		 je	 SHORT $L207705

; 131  : 		KillTimer(m_uCloseTimer);

  004ea	8b 4d b0	 mov	 ecx, DWORD PTR _this$[ebp]
  004ed	8b 91 d8 00 00
	00		 mov	 edx, DWORD PTR [ecx+216]
  004f3	52		 push	 edx
  004f4	8b 4d b0	 mov	 ecx, DWORD PTR _this$[ebp]
  004f7	e8 00 00 00 00	 call	 ?KillTimer@CWnd@@QAEHI@Z ; CWnd::KillTimer
$L207705:

; 132  : 	m_bExit = true;

  004fc	8b 45 b0	 mov	 eax, DWORD PTR _this$[ebp]
  004ff	c7 80 84 00 00
	00 01 00 00 00	 mov	 DWORD PTR [eax+132], 1

; 133  : 
; 134  : 	HttpDownCtrl::DelInstance();

  00509	e8 00 00 00 00	 call	 ?DelInstance@HttpDownCtrl@@SAXXZ ; HttpDownCtrl::DelInstance

; 135  : 	TabWndFactory::DelInstance();

  0050e	e8 00 00 00 00	 call	 ?DelInstance@TabWndFactory@@SAXXZ ; TabWndFactory::DelInstance

; 136  : 
; 137  : 	__super::OnClose();

  00513	8b 4d b0	 mov	 ecx, DWORD PTR _this$[ebp]
  00516	e8 00 00 00 00	 call	 ?OnClose@CWnd@@IAEXXZ	; CWnd::OnClose

; 138  : }

  0051b	8b 4d f4	 mov	 ecx, DWORD PTR __$EHRec$[ebp]
  0051e	64 89 0d 00 00
	00 00		 mov	 DWORD PTR fs:__except_list, ecx
  00525	8b e5		 mov	 esp, ebp
  00527	5d		 pop	 ebp
  00528	c3		 ret	 0
_TEXT	ENDS
text$x	SEGMENT
$L210156:
  0007b	8d 4d d8	 lea	 ecx, DWORD PTR $T210146[ebp]
  0007e	ff 25 00 00 00
	00		 jmp	 DWORD PTR __imp_??1?$basic_string@DU?$char_traits@D@std@@V?$allocator@D@2@@std@@QAE@XZ
$L210157:
  00084	8d 4d bc	 lea	 ecx, DWORD PTR $T210147[ebp]
  00087	ff 25 00 00 00
	00		 jmp	 DWORD PTR __imp_??1?$basic_string@DU?$char_traits@D@std@@V?$allocator@D@2@@std@@QAE@XZ
__ehhandler$?OnClose@CPlayBoxDlg@@IAEXXZ:
  0008d	b8 00 00 00 00	 mov	 eax, OFFSET FLAT:$T210159
  00092	e9 00 00 00 00	 jmp	 ___CxxFrameHandler
text$x	ENDS
?OnClose@CPlayBoxDlg@@IAEXXZ ENDP			; CPlayBoxDlg::OnClose
PUBLIC	?GetStringTypeExWFake@ATL@@YGHKKPB_WHPAG@Z	; ATL::GetStringTypeExWFake
EXTRN	__imp__GetStringTypeExW@20:NEAR
; Function compile flags: /Odt
; File d:\program files (x86)\microsoft visual studio .net 2003\vc7\atlmfc\include\cstringt.h
;	COMDAT ?GetStringTypeExWThunk@ATL@@YGHKKPB_WHPAG@Z
_TEXT	SEGMENT
_lcid$ = 8						; size = 4
_dwInfoType$ = 12					; size = 4
_pszSrc$ = 16						; size = 4
_nLength$ = 20						; size = 4
_pwCharType$ = 24					; size = 4
?GetStringTypeExWThunk@ATL@@YGHKKPB_WHPAG@Z PROC NEAR	; ATL::GetStringTypeExWThunk, COMDAT

; 240  : {

  00000	55		 push	 ebp
  00001	8b ec		 mov	 ebp, esp

; 241  : 	_AtlInstallStringThunk(reinterpret_cast<void**>(&_strthunks.pfnGetStringTypeExW), GetStringTypeExWFake, ::GetStringTypeExW);

  00003	a1 00 00 00 00	 mov	 eax, DWORD PTR __imp__GetStringTypeExW@20
  00008	50		 push	 eax
  00009	68 00 00 00 00	 push	 OFFSET FLAT:?GetStringTypeExWFake@ATL@@YGHKKPB_WHPAG@Z ; ATL::GetStringTypeExWFake
  0000e	68 04 00 00 00	 push	 OFFSET FLAT:?_strthunks@ATL@@3U_AtlStringThunks@1@A+4
  00013	e8 00 00 00 00	 call	 ?_AtlInstallStringThunk@ATL@@YAXPAPAXPAX1@Z ; ATL::_AtlInstallStringThunk
  00018	83 c4 0c	 add	 esp, 12			; 0000000cH

; 242  : 
; 243  : 	return _strthunks.pfnGetStringTypeExW(lcid, dwInfoType, pszSrc, nLength, pwCharType);

  0001b	8b 4d 18	 mov	 ecx, DWORD PTR _pwCharType$[ebp]
  0001e	51		 push	 ecx
  0001f	8b 55 14	 mov	 edx, DWORD PTR _nLength$[ebp]
  00022	52		 push	 edx
  00023	8b 45 10	 mov	 eax, DWORD PTR _pszSrc$[ebp]
  00026	50		 push	 eax
  00027	8b 4d 0c	 mov	 ecx, DWORD PTR _dwInfoType$[ebp]
  0002a	51		 push	 ecx
  0002b	8b 55 08	 mov	 edx, DWORD PTR _lcid$[ebp]
  0002e	52		 push	 edx
  0002f	ff 15 04 00 00
	00		 call	 DWORD PTR ?_strthunks@ATL@@3U_AtlStringThunks@1@A+4

; 244  : }

  00035	5d		 pop	 ebp
  00036	c2 14 00	 ret	 20			; 00000014H
?GetStringTypeExWThunk@ATL@@YGHKKPB_WHPAG@Z ENDP	; ATL::GetStringTypeExWThunk
_TEXT	ENDS
EXTRN	__imp__GetStringTypeExA@20:NEAR
;	COMDAT xdata$x
xdata$x	SEGMENT
$T210172 DD	0ffffffffH
	DD	FLAT:$L210167
$T210169 DD	019930520H
	DD	01H
	DD	FLAT:$T210172
	DD	2 DUP(00H)
	DD	2 DUP(00H)
; Function compile flags: /Odt
xdata$x	ENDS
;	COMDAT ?GetStringTypeExWFake@ATL@@YGHKKPB_WHPAG@Z
_TEXT	SEGMENT
$T210166 = -164						; size = 4
_nLengthA$ = -160					; size = 4
_pszA$ = -156						; size = 132
__$ArrayPad$ = -16					; size = 4
__$EHRec$ = -12						; size = 12
__$ReturnAddr$ = 4					; size = 4
_lcid$ = 8						; size = 4
_dwInfoType$ = 12					; size = 4
_pszSrc$ = 16						; size = 4
_nLength$ = 20						; size = 4
_pwCharType$ = 24					; size = 4
?GetStringTypeExWFake@ATL@@YGHKKPB_WHPAG@Z PROC NEAR	; ATL::GetStringTypeExWFake, COMDAT

; 224  : {

  00000	55		 push	 ebp
  00001	8b ec		 mov	 ebp, esp
  00003	6a ff		 push	 -1
  00005	68 00 00 00 00	 push	 __ehhandler$?GetStringTypeExWFake@ATL@@YGHKKPB_WHPAG@Z
  0000a	64 a1 00 00 00
	00		 mov	 eax, DWORD PTR fs:__except_list
  00010	50		 push	 eax
  00011	64 89 25 00 00
	00 00		 mov	 DWORD PTR fs:__except_list, esp
  00018	81 ec 98 00 00
	00		 sub	 esp, 152		; 00000098H
  0001e	a1 00 00 00 00	 mov	 eax, DWORD PTR ___security_cookie
  00023	89 45 f0	 mov	 DWORD PTR __$ArrayPad$[ebp], eax

; 225  : 	int nLengthA;
; 226  : 	CTempBuffer<char> pszA;

  00026	8d 8d 64 ff ff
	ff		 lea	 ecx, DWORD PTR _pszA$[ebp]
  0002c	e8 00 00 00 00	 call	 ??0?$CTempBuffer@D$0IA@VCCRTAllocator@ATL@@@ATL@@QAE@XZ ; ATL::CTempBuffer<char,128,ATL::CCRTAllocator>::CTempBuffer<char,128,ATL::CCRTAllocator>
  00031	c7 45 fc 00 00
	00 00		 mov	 DWORD PTR __$EHRec$[ebp+8], 0

; 227  : 
; 228  : 	nLengthA = ::WideCharToMultiByte(_AtlGetConversionACP(), 0, pszSrc, nLength, NULL, 0, NULL, NULL);

  00038	6a 00		 push	 0
  0003a	6a 00		 push	 0
  0003c	6a 00		 push	 0
  0003e	6a 00		 push	 0
  00040	8b 45 14	 mov	 eax, DWORD PTR _nLength$[ebp]
  00043	50		 push	 eax
  00044	8b 4d 10	 mov	 ecx, DWORD PTR _pszSrc$[ebp]
  00047	51		 push	 ecx
  00048	6a 00		 push	 0
  0004a	e8 00 00 00 00	 call	 ?_AtlGetConversionACP@ATL@@YGIXZ ; ATL::_AtlGetConversionACP
  0004f	50		 push	 eax
  00050	ff 15 00 00 00
	00		 call	 DWORD PTR __imp__WideCharToMultiByte@32
  00056	89 85 60 ff ff
	ff		 mov	 DWORD PTR _nLengthA$[ebp], eax

; 229  : 	pszA.Allocate(nLengthA);

  0005c	8b 95 60 ff ff
	ff		 mov	 edx, DWORD PTR _nLengthA$[ebp]
  00062	52		 push	 edx
  00063	8d 8d 64 ff ff
	ff		 lea	 ecx, DWORD PTR _pszA$[ebp]
  00069	e8 00 00 00 00	 call	 ?Allocate@?$CTempBuffer@D$0IA@VCCRTAllocator@ATL@@@ATL@@QAEPADI@Z ; ATL::CTempBuffer<char,128,ATL::CCRTAllocator>::Allocate

; 230  : 	::WideCharToMultiByte(_AtlGetConversionACP(), 0, pszSrc, nLength, pszA, nLengthA, NULL, NULL);

  0006e	6a 00		 push	 0
  00070	6a 00		 push	 0
  00072	8b 85 60 ff ff
	ff		 mov	 eax, DWORD PTR _nLengthA$[ebp]
  00078	50		 push	 eax
  00079	8d 8d 64 ff ff
	ff		 lea	 ecx, DWORD PTR _pszA$[ebp]
  0007f	e8 00 00 00 00	 call	 ??B?$CTempBuffer@D$0IA@VCCRTAllocator@ATL@@@ATL@@QBEPADXZ ; ATL::CTempBuffer<char,128,ATL::CCRTAllocator>::operator char *
  00084	50		 push	 eax
  00085	8b 4d 14	 mov	 ecx, DWORD PTR _nLength$[ebp]
  00088	51		 push	 ecx
  00089	8b 55 10	 mov	 edx, DWORD PTR _pszSrc$[ebp]
  0008c	52		 push	 edx
  0008d	6a 00		 push	 0
  0008f	e8 00 00 00 00	 call	 ?_AtlGetConversionACP@ATL@@YGIXZ ; ATL::_AtlGetConversionACP
  00094	50		 push	 eax
  00095	ff 15 00 00 00
	00		 call	 DWORD PTR __imp__WideCharToMultiByte@32

; 231  : 
; 232  : 	if (nLength == -1)

  0009b	83 7d 14 ff	 cmp	 DWORD PTR _nLength$[ebp], -1
  0009f	75 0a		 jne	 SHORT $L25804

; 233  : 		nLengthA = -1;

  000a1	c7 85 60 ff ff
	ff ff ff ff ff	 mov	 DWORD PTR _nLengthA$[ebp], -1
$L25804:

; 234  : 
; 235  : 	return ::GetStringTypeExA(lcid, dwInfoType, pszA, nLengthA, pwCharType);

  000ab	8b 45 18	 mov	 eax, DWORD PTR _pwCharType$[ebp]
  000ae	50		 push	 eax
  000af	8b 8d 60 ff ff
	ff		 mov	 ecx, DWORD PTR _nLengthA$[ebp]
  000b5	51		 push	 ecx
  000b6	8d 8d 64 ff ff
	ff		 lea	 ecx, DWORD PTR _pszA$[ebp]
  000bc	e8 00 00 00 00	 call	 ??B?$CTempBuffer@D$0IA@VCCRTAllocator@ATL@@@ATL@@QBEPADXZ ; ATL::CTempBuffer<char,128,ATL::CCRTAllocator>::operator char *
  000c1	50		 push	 eax
  000c2	8b 55 0c	 mov	 edx, DWORD PTR _dwInfoType$[ebp]
  000c5	52		 push	 edx
  000c6	8b 45 08	 mov	 eax, DWORD PTR _lcid$[ebp]
  000c9	50		 push	 eax
  000ca	ff 15 00 00 00
	00		 call	 DWORD PTR __imp__GetStringTypeExA@20
  000d0	89 85 5c ff ff
	ff		 mov	 DWORD PTR $T210166[ebp], eax
  000d6	c7 45 fc ff ff
	ff ff		 mov	 DWORD PTR __$EHRec$[ebp+8], -1
  000dd	8d 8d 64 ff ff
	ff		 lea	 ecx, DWORD PTR _pszA$[ebp]
  000e3	e8 00 00 00 00	 call	 ??1?$CTempBuffer@D$0IA@VCCRTAllocator@ATL@@@ATL@@QAE@XZ ; ATL::CTempBuffer<char,128,ATL::CCRTAllocator>::~CTempBuffer<char,128,ATL::CCRTAllocator>
  000e8	8b 85 5c ff ff
	ff		 mov	 eax, DWORD PTR $T210166[ebp]

; 236  : }

  000ee	8b 4d f4	 mov	 ecx, DWORD PTR __$EHRec$[ebp]
  000f1	64 89 0d 00 00
	00 00		 mov	 DWORD PTR fs:__except_list, ecx
  000f8	8b 4d f0	 mov	 ecx, DWORD PTR __$ArrayPad$[ebp]
  000fb	e8 00 00 00 00	 call	 @__security_check_cookie@4
  00100	8b e5		 mov	 esp, ebp
  00102	5d		 pop	 ebp
  00103	c2 14 00	 ret	 20			; 00000014H
_TEXT	ENDS
;	COMDAT text$x
text$x	SEGMENT
$L210167:
  00000	8d 8d 64 ff ff
	ff		 lea	 ecx, DWORD PTR _pszA$[ebp]
  00006	e9 00 00 00 00	 jmp	 ??1?$CTempBuffer@D$0IA@VCCRTAllocator@ATL@@@ATL@@QAE@XZ ; ATL::CTempBuffer<char,128,ATL::CCRTAllocator>::~CTempBuffer<char,128,ATL::CCRTAllocator>
__ehhandler$?GetStringTypeExWFake@ATL@@YGHKKPB_WHPAG@Z:
  0000b	b8 00 00 00 00	 mov	 eax, OFFSET FLAT:$T210169
  00010	e9 00 00 00 00	 jmp	 ___CxxFrameHandler
text$x	ENDS
?GetStringTypeExWFake@ATL@@YGHKKPB_WHPAG@Z ENDP		; ATL::GetStringTypeExWFake
PUBLIC	?lstrcmpiWFake@ATL@@YGHPB_W0@Z			; ATL::lstrcmpiWFake
EXTRN	__imp__lstrcmpiW@8:NEAR
; Function compile flags: /Odt
;	COMDAT ?lstrcmpiWThunk@ATL@@YGHPB_W0@Z
_TEXT	SEGMENT
_psz1$ = 8						; size = 4
_psz2$ = 12						; size = 4
?lstrcmpiWThunk@ATL@@YGHPB_W0@Z PROC NEAR		; ATL::lstrcmpiWThunk, COMDAT

; 254  : {

  00000	55		 push	 ebp
  00001	8b ec		 mov	 ebp, esp

; 255  : 	_AtlInstallStringThunk(reinterpret_cast<void**>(&_strthunks.pfnlstrcmpiW), lstrcmpiWFake, ::lstrcmpiW);

  00003	a1 00 00 00 00	 mov	 eax, DWORD PTR __imp__lstrcmpiW@8
  00008	50		 push	 eax
  00009	68 00 00 00 00	 push	 OFFSET FLAT:?lstrcmpiWFake@ATL@@YGHPB_W0@Z ; ATL::lstrcmpiWFake
  0000e	68 08 00 00 00	 push	 OFFSET FLAT:?_strthunks@ATL@@3U_AtlStringThunks@1@A+8
  00013	e8 00 00 00 00	 call	 ?_AtlInstallStringThunk@ATL@@YAXPAPAXPAX1@Z ; ATL::_AtlInstallStringThunk
  00018	83 c4 0c	 add	 esp, 12			; 0000000cH

; 256  : 
; 257  : 	return _strthunks.pfnlstrcmpiW(psz1, psz2);

  0001b	8b 4d 0c	 mov	 ecx, DWORD PTR _psz2$[ebp]
  0001e	51		 push	 ecx
  0001f	8b 55 08	 mov	 edx, DWORD PTR _psz1$[ebp]
  00022	52		 push	 edx
  00023	ff 15 08 00 00
	00		 call	 DWORD PTR ?_strthunks@ATL@@3U_AtlStringThunks@1@A+8

; 258  : }

  00029	5d		 pop	 ebp
  0002a	c2 08 00	 ret	 8
?lstrcmpiWThunk@ATL@@YGHPB_W0@Z ENDP			; ATL::lstrcmpiWThunk
_TEXT	ENDS
EXTRN	__imp__lstrcmpiA@8:NEAR
; Function compile flags: /Odt
;	COMDAT ?lstrcmpiWFake@ATL@@YGHPB_W0@Z
_TEXT	SEGMENT
tv91 = -32						; size = 4
tv94 = -28						; size = 4
tv76 = -24						; size = 4
tv79 = -20						; size = 4
__acp$ = -12						; size = 4
__lpw$ = -8						; size = 4
__convert$ = -4						; size = 4
_psz1$ = 8						; size = 4
_psz2$ = 12						; size = 4
?lstrcmpiWFake@ATL@@YGHPB_W0@Z PROC NEAR		; ATL::lstrcmpiWFake, COMDAT

; 247  : {

  00000	55		 push	 ebp
  00001	8b ec		 mov	 ebp, esp
  00003	83 ec 20	 sub	 esp, 32			; 00000020H

; 248  : 	USES_CONVERSION;

  00006	e8 00 00 00 00	 call	 ?_AtlGetConversionACP@ATL@@YGIXZ ; ATL::_AtlGetConversionACP
  0000b	89 45 f4	 mov	 DWORD PTR __acp$[ebp], eax

; 249  : 
; 250  : 	return ::lstrcmpiA(W2A(psz1), W2A(psz2));

  0000e	8b 45 0c	 mov	 eax, DWORD PTR _psz2$[ebp]
  00011	89 45 f8	 mov	 DWORD PTR __lpw$[ebp], eax
  00014	83 7d f8 00	 cmp	 DWORD PTR __lpw$[ebp], 0
  00018	75 09		 jne	 SHORT $L210179
  0001a	c7 45 ec 00 00
	00 00		 mov	 DWORD PTR tv79[ebp], 0
  00021	eb 3a		 jmp	 SHORT $L210180
$L210179:
  00023	8b 4d f8	 mov	 ecx, DWORD PTR __lpw$[ebp]
  00026	51		 push	 ecx
  00027	ff 15 00 00 00
	00		 call	 DWORD PTR __imp__lstrlenW@4
  0002d	8d 54 00 02	 lea	 edx, DWORD PTR [eax+eax+2]
  00031	89 55 fc	 mov	 DWORD PTR __convert$[ebp], edx
  00034	8b 45 fc	 mov	 eax, DWORD PTR __convert$[ebp]
  00037	83 c0 03	 add	 eax, 3
  0003a	83 e0 fc	 and	 eax, -4			; fffffffcH
  0003d	e8 00 00 00 00	 call	 __alloca_probe
  00042	89 65 e8	 mov	 DWORD PTR tv76[ebp], esp
  00045	8b 45 f4	 mov	 eax, DWORD PTR __acp$[ebp]
  00048	50		 push	 eax
  00049	8b 4d fc	 mov	 ecx, DWORD PTR __convert$[ebp]
  0004c	51		 push	 ecx
  0004d	8b 55 f8	 mov	 edx, DWORD PTR __lpw$[ebp]
  00050	52		 push	 edx
  00051	8b 45 e8	 mov	 eax, DWORD PTR tv76[ebp]
  00054	50		 push	 eax
  00055	e8 00 00 00 00	 call	 ?AtlW2AHelper@@YGPADPADPB_WHI@Z ; AtlW2AHelper
  0005a	89 45 ec	 mov	 DWORD PTR tv79[ebp], eax
$L210180:
  0005d	8b 4d 08	 mov	 ecx, DWORD PTR _psz1$[ebp]
  00060	89 4d f8	 mov	 DWORD PTR __lpw$[ebp], ecx
  00063	83 7d f8 00	 cmp	 DWORD PTR __lpw$[ebp], 0
  00067	75 09		 jne	 SHORT $L210181
  00069	c7 45 e4 00 00
	00 00		 mov	 DWORD PTR tv94[ebp], 0
  00070	eb 3a		 jmp	 SHORT $L210182
$L210181:
  00072	8b 55 f8	 mov	 edx, DWORD PTR __lpw$[ebp]
  00075	52		 push	 edx
  00076	ff 15 00 00 00
	00		 call	 DWORD PTR __imp__lstrlenW@4
  0007c	8d 44 00 02	 lea	 eax, DWORD PTR [eax+eax+2]
  00080	89 45 fc	 mov	 DWORD PTR __convert$[ebp], eax
  00083	8b 45 fc	 mov	 eax, DWORD PTR __convert$[ebp]
  00086	83 c0 03	 add	 eax, 3
  00089	83 e0 fc	 and	 eax, -4			; fffffffcH
  0008c	e8 00 00 00 00	 call	 __alloca_probe
  00091	89 65 e0	 mov	 DWORD PTR tv91[ebp], esp
  00094	8b 4d f4	 mov	 ecx, DWORD PTR __acp$[ebp]
  00097	51		 push	 ecx
  00098	8b 55 fc	 mov	 edx, DWORD PTR __convert$[ebp]
  0009b	52		 push	 edx
  0009c	8b 45 f8	 mov	 eax, DWORD PTR __lpw$[ebp]
  0009f	50		 push	 eax
  000a0	8b 4d e0	 mov	 ecx, DWORD PTR tv91[ebp]
  000a3	51		 push	 ecx
  000a4	e8 00 00 00 00	 call	 ?AtlW2AHelper@@YGPADPADPB_WHI@Z ; AtlW2AHelper
  000a9	89 45 e4	 mov	 DWORD PTR tv94[ebp], eax
$L210182:
  000ac	8b 55 ec	 mov	 edx, DWORD PTR tv79[ebp]
  000af	52		 push	 edx
  000b0	8b 45 e4	 mov	 eax, DWORD PTR tv94[ebp]
  000b3	50		 push	 eax
  000b4	ff 15 00 00 00
	00		 call	 DWORD PTR __imp__lstrcmpiA@8

; 251  : }

  000ba	8d 65 e0	 lea	 esp, DWORD PTR [ebp-32]
  000bd	8b e5		 mov	 esp, ebp
  000bf	5d		 pop	 ebp
  000c0	c2 08 00	 ret	 8
?lstrcmpiWFake@ATL@@YGHPB_W0@Z ENDP			; ATL::lstrcmpiWFake
; Function compile flags: /Odt
; File d:\boxgit\playbox\playbox\dev\prj\playbox\playboxdlg.cpp
_TEXT	ENDS
_TEXT	SEGMENT
_this$ = -4						; size = 4
_wParam$ = 8						; size = 4
_lParam$ = 12						; size = 4
?OnDeleteTray@CPlayBoxDlg@@QAEJIJ@Z PROC NEAR		; CPlayBoxDlg::OnDeleteTray
; _this$ = ecx

; 141  : {

  00530	55		 push	 ebp
  00531	8b ec		 mov	 ebp, esp
  00533	51		 push	 ecx
  00534	89 4d fc	 mov	 DWORD PTR _this$[ebp], ecx

; 142  : 	DeleteTray();

  00537	8b 4d fc	 mov	 ecx, DWORD PTR _this$[ebp]
  0053a	e8 00 00 00 00	 call	 ?DeleteTray@CPlayBoxDlg@@QAEXXZ ; CPlayBoxDlg::DeleteTray

; 143  : 	return -1;

  0053f	83 c8 ff	 or	 eax, -1

; 144  : }

  00542	8b e5		 mov	 esp, ebp
  00544	5d		 pop	 ebp
  00545	c2 08 00	 ret	 8
?OnDeleteTray@CPlayBoxDlg@@QAEJIJ@Z ENDP		; CPlayBoxDlg::OnDeleteTray
_TEXT	ENDS
PUBLIC	?Log_StartMessage@@YGKPAX@Z			; Log_StartMessage
EXTRN	__imp_?LogRealMsg@@YAXABV?$basic_string@DU?$char_traits@D@std@@V?$allocator@D@2@@std@@0_NPAPAEPAI@Z:NEAR
EXTRN	__imp__WaitForSingleObject@8:NEAR
xdata$x	SEGMENT
$T210193 DD	0ffffffffH
	DD	FLAT:$L210188
	DD	00H
	DD	FLAT:$L210189
$T210191 DD	019930520H
	DD	02H
	DD	FLAT:$T210193
	DD	2 DUP(00H)
	DD	2 DUP(00H)
; Function compile flags: /Odt
xdata$x	ENDS
_TEXT	SEGMENT
$T210187 = -68						; size = 28
$T210186 = -40						; size = 28
__$EHRec$ = -12						; size = 12
___formal$ = 8						; size = 4
?Log_StartMessage@@YGKPAX@Z PROC NEAR			; Log_StartMessage

; 150  : {

  00550	55		 push	 ebp
  00551	8b ec		 mov	 ebp, esp
  00553	6a ff		 push	 -1
  00555	68 00 00 00 00	 push	 __ehhandler$?Log_StartMessage@@YGKPAX@Z
  0055a	64 a1 00 00 00
	00		 mov	 eax, DWORD PTR fs:__except_list
  00560	50		 push	 eax
  00561	64 89 25 00 00
	00 00		 mov	 DWORD PTR fs:__except_list, esp
  00568	83 ec 38	 sub	 esp, 56			; 00000038H

; 151  : 	if( WaitForSingleObject(g_hStartEvent,10*1000) == WAIT_TIMEOUT )

  0056b	68 10 27 00 00	 push	 10000			; 00002710H
  00570	a1 00 00 00 00	 mov	 eax, DWORD PTR ?g_hStartEvent@@3PAXA ; g_hStartEvent
  00575	50		 push	 eax
  00576	ff 15 00 00 00
	00		 call	 DWORD PTR __imp__WaitForSingleObject@8
  0057c	3d 02 01 00 00	 cmp	 eax, 258		; 00000102H
  00581	75 5b		 jne	 SHORT $L207715

; 152  : 	{
; 153  : 		LogRealMsg("START_TIMEOUT","");

  00583	68 00 00 00 00	 push	 OFFSET FLAT:$SG207718
  00588	8d 4d d8	 lea	 ecx, DWORD PTR $T210186[ebp]
  0058b	ff 15 00 00 00
	00		 call	 DWORD PTR __imp_??0?$basic_string@DU?$char_traits@D@std@@V?$allocator@D@2@@std@@QAE@PBD@Z
  00591	c7 45 fc 00 00
	00 00		 mov	 DWORD PTR __$EHRec$[ebp+8], 0
  00598	68 00 00 00 00	 push	 OFFSET FLAT:$SG207719
  0059d	8d 4d bc	 lea	 ecx, DWORD PTR $T210187[ebp]
  005a0	ff 15 00 00 00
	00		 call	 DWORD PTR __imp_??0?$basic_string@DU?$char_traits@D@std@@V?$allocator@D@2@@std@@QAE@PBD@Z
  005a6	c6 45 fc 01	 mov	 BYTE PTR __$EHRec$[ebp+8], 1
  005aa	6a 00		 push	 0
  005ac	6a 00		 push	 0
  005ae	6a 00		 push	 0
  005b0	8d 4d d8	 lea	 ecx, DWORD PTR $T210186[ebp]
  005b3	51		 push	 ecx
  005b4	8d 55 bc	 lea	 edx, DWORD PTR $T210187[ebp]
  005b7	52		 push	 edx
  005b8	ff 15 00 00 00
	00		 call	 DWORD PTR __imp_?LogRealMsg@@YAXABV?$basic_string@DU?$char_traits@D@std@@V?$allocator@D@2@@std@@0_NPAPAEPAI@Z
  005be	83 c4 14	 add	 esp, 20			; 00000014H
  005c1	c6 45 fc 00	 mov	 BYTE PTR __$EHRec$[ebp+8], 0
  005c5	8d 4d bc	 lea	 ecx, DWORD PTR $T210187[ebp]
  005c8	ff 15 00 00 00
	00		 call	 DWORD PTR __imp_??1?$basic_string@DU?$char_traits@D@std@@V?$allocator@D@2@@std@@QAE@XZ
  005ce	c7 45 fc ff ff
	ff ff		 mov	 DWORD PTR __$EHRec$[ebp+8], -1
  005d5	8d 4d d8	 lea	 ecx, DWORD PTR $T210186[ebp]
  005d8	ff 15 00 00 00
	00		 call	 DWORD PTR __imp_??1?$basic_string@DU?$char_traits@D@std@@V?$allocator@D@2@@std@@QAE@XZ
$L207715:

; 154  : 	}
; 155  : 	return 0;

  005de	33 c0		 xor	 eax, eax

; 156  : }

  005e0	8b 4d f4	 mov	 ecx, DWORD PTR __$EHRec$[ebp]
  005e3	64 89 0d 00 00
	00 00		 mov	 DWORD PTR fs:__except_list, ecx
  005ea	8b e5		 mov	 esp, ebp
  005ec	5d		 pop	 ebp
  005ed	c2 04 00	 ret	 4
_TEXT	ENDS
text$x	SEGMENT
$L210188:
  00097	8d 4d d8	 lea	 ecx, DWORD PTR $T210186[ebp]
  0009a	ff 25 00 00 00
	00		 jmp	 DWORD PTR __imp_??1?$basic_string@DU?$char_traits@D@std@@V?$allocator@D@2@@std@@QAE@XZ
$L210189:
  000a0	8d 4d bc	 lea	 ecx, DWORD PTR $T210187[ebp]
  000a3	ff 25 00 00 00
	00		 jmp	 DWORD PTR __imp_??1?$basic_string@DU?$char_traits@D@std@@V?$allocator@D@2@@std@@QAE@XZ
__ehhandler$?Log_StartMessage@@YGKPAX@Z:
  000a9	b8 00 00 00 00	 mov	 eax, OFFSET FLAT:$T210191
  000ae	e9 00 00 00 00	 jmp	 ___CxxFrameHandler
text$x	ENDS
?Log_StartMessage@@YGKPAX@Z ENDP			; Log_StartMessage
PUBLIC	?CharLowerWFake@ATL@@YGPA_WPA_W@Z		; ATL::CharLowerWFake
EXTRN	__imp__CharLowerW@4:NEAR
; Function compile flags: /Odt
; File d:\program files (x86)\microsoft visual studio .net 2003\vc7\atlmfc\include\cstringt.h
;	COMDAT ?CharLowerWThunk@ATL@@YGPA_WPA_W@Z
_TEXT	SEGMENT
_psz$ = 8						; size = 4
?CharLowerWThunk@ATL@@YGPA_WPA_W@Z PROC NEAR		; ATL::CharLowerWThunk, COMDAT

; 273  : {

  00000	55		 push	 ebp
  00001	8b ec		 mov	 ebp, esp

; 274  : 	_AtlInstallStringThunk(reinterpret_cast<void**>(&_strthunks.pfnCharLowerW), CharLowerWFake, ::CharLowerW);

  00003	a1 00 00 00 00	 mov	 eax, DWORD PTR __imp__CharLowerW@4
  00008	50		 push	 eax
  00009	68 00 00 00 00	 push	 OFFSET FLAT:?CharLowerWFake@ATL@@YGPA_WPA_W@Z ; ATL::CharLowerWFake
  0000e	68 0c 00 00 00	 push	 OFFSET FLAT:?_strthunks@ATL@@3U_AtlStringThunks@1@A+12
  00013	e8 00 00 00 00	 call	 ?_AtlInstallStringThunk@ATL@@YAXPAPAXPAX1@Z ; ATL::_AtlInstallStringThunk
  00018	83 c4 0c	 add	 esp, 12			; 0000000cH

; 275  : 
; 276  : 	return _strthunks.pfnCharLowerW(psz);

  0001b	8b 4d 08	 mov	 ecx, DWORD PTR _psz$[ebp]
  0001e	51		 push	 ecx
  0001f	ff 15 0c 00 00
	00		 call	 DWORD PTR ?_strthunks@ATL@@3U_AtlStringThunks@1@A+12

; 277  : }

  00025	5d		 pop	 ebp
  00026	c2 04 00	 ret	 4
?CharLowerWThunk@ATL@@YGPA_WPA_W@Z ENDP			; ATL::CharLowerWThunk
_TEXT	ENDS
PUBLIC	?AtlA2WHelper@@YGPA_WPA_WPBDHI@Z		; AtlA2WHelper
EXTRN	__imp__lstrlenA@4:NEAR
EXTRN	__imp__CharLowerA@4:NEAR
EXTRN	__imp__wcscpy:NEAR
; Function compile flags: /Odt
;	COMDAT ?CharLowerWFake@ATL@@YGPA_WPA_W@Z
_TEXT	SEGMENT
tv90 = -36						; size = 4
tv94 = -32						; size = 4
tv75 = -28						; size = 4
tv78 = -24						; size = 4
__lpa$ = -20						; size = 4
__acp$ = -16						; size = 4
_pszA$ = -12						; size = 4
__lpw$ = -8						; size = 4
__convert$ = -4						; size = 4
_psz$ = 8						; size = 4
?CharLowerWFake@ATL@@YGPA_WPA_W@Z PROC NEAR		; ATL::CharLowerWFake, COMDAT

; 261  : {

  00000	55		 push	 ebp
  00001	8b ec		 mov	 ebp, esp
  00003	83 ec 24	 sub	 esp, 36			; 00000024H

; 262  : 	USES_CONVERSION;

  00006	e8 00 00 00 00	 call	 ?_AtlGetConversionACP@ATL@@YGIXZ ; ATL::_AtlGetConversionACP
  0000b	89 45 f0	 mov	 DWORD PTR __acp$[ebp], eax

; 263  : 	LPSTR pszA;
; 264  : 
; 265  : 	pszA = W2A(psz);

  0000e	8b 45 08	 mov	 eax, DWORD PTR _psz$[ebp]
  00011	89 45 f8	 mov	 DWORD PTR __lpw$[ebp], eax
  00014	83 7d f8 00	 cmp	 DWORD PTR __lpw$[ebp], 0
  00018	75 09		 jne	 SHORT $L210197
  0001a	c7 45 e8 00 00
	00 00		 mov	 DWORD PTR tv78[ebp], 0
  00021	eb 3a		 jmp	 SHORT $L210198
$L210197:
  00023	8b 4d f8	 mov	 ecx, DWORD PTR __lpw$[ebp]
  00026	51		 push	 ecx
  00027	ff 15 00 00 00
	00		 call	 DWORD PTR __imp__lstrlenW@4
  0002d	8d 54 00 02	 lea	 edx, DWORD PTR [eax+eax+2]
  00031	89 55 fc	 mov	 DWORD PTR __convert$[ebp], edx
  00034	8b 45 fc	 mov	 eax, DWORD PTR __convert$[ebp]
  00037	83 c0 03	 add	 eax, 3
  0003a	83 e0 fc	 and	 eax, -4			; fffffffcH
  0003d	e8 00 00 00 00	 call	 __alloca_probe
  00042	89 65 e4	 mov	 DWORD PTR tv75[ebp], esp
  00045	8b 45 f0	 mov	 eax, DWORD PTR __acp$[ebp]
  00048	50		 push	 eax
  00049	8b 4d fc	 mov	 ecx, DWORD PTR __convert$[ebp]
  0004c	51		 push	 ecx
  0004d	8b 55 f8	 mov	 edx, DWORD PTR __lpw$[ebp]
  00050	52		 push	 edx
  00051	8b 45 e4	 mov	 eax, DWORD PTR tv75[ebp]
  00054	50		 push	 eax
  00055	e8 00 00 00 00	 call	 ?AtlW2AHelper@@YGPADPADPB_WHI@Z ; AtlW2AHelper
  0005a	89 45 e8	 mov	 DWORD PTR tv78[ebp], eax
$L210198:
  0005d	8b 4d e8	 mov	 ecx, DWORD PTR tv78[ebp]
  00060	89 4d f4	 mov	 DWORD PTR _pszA$[ebp], ecx

; 266  : 	::CharLowerA(pszA);

  00063	8b 55 f4	 mov	 edx, DWORD PTR _pszA$[ebp]
  00066	52		 push	 edx
  00067	ff 15 00 00 00
	00		 call	 DWORD PTR __imp__CharLowerA@4

; 267  : 	wcscpy(psz, A2W(pszA));

  0006d	8b 45 f4	 mov	 eax, DWORD PTR _pszA$[ebp]
  00070	89 45 ec	 mov	 DWORD PTR __lpa$[ebp], eax
  00073	83 7d ec 00	 cmp	 DWORD PTR __lpa$[ebp], 0
  00077	75 09		 jne	 SHORT $L210199
  00079	c7 45 e0 00 00
	00 00		 mov	 DWORD PTR tv94[ebp], 0
  00080	eb 3b		 jmp	 SHORT $L210200
$L210199:
  00082	8b 4d ec	 mov	 ecx, DWORD PTR __lpa$[ebp]
  00085	51		 push	 ecx
  00086	ff 15 00 00 00
	00		 call	 DWORD PTR __imp__lstrlenA@4
  0008c	83 c0 01	 add	 eax, 1
  0008f	89 45 fc	 mov	 DWORD PTR __convert$[ebp], eax
  00092	8b 45 fc	 mov	 eax, DWORD PTR __convert$[ebp]
  00095	d1 e0		 shl	 eax, 1
  00097	83 c0 03	 add	 eax, 3
  0009a	83 e0 fc	 and	 eax, -4			; fffffffcH
  0009d	e8 00 00 00 00	 call	 __alloca_probe
  000a2	89 65 dc	 mov	 DWORD PTR tv90[ebp], esp
  000a5	8b 55 f0	 mov	 edx, DWORD PTR __acp$[ebp]
  000a8	52		 push	 edx
  000a9	8b 45 fc	 mov	 eax, DWORD PTR __convert$[ebp]
  000ac	50		 push	 eax
  000ad	8b 4d ec	 mov	 ecx, DWORD PTR __lpa$[ebp]
  000b0	51		 push	 ecx
  000b1	8b 55 dc	 mov	 edx, DWORD PTR tv90[ebp]
  000b4	52		 push	 edx
  000b5	e8 00 00 00 00	 call	 ?AtlA2WHelper@@YGPA_WPA_WPBDHI@Z ; AtlA2WHelper
  000ba	89 45 e0	 mov	 DWORD PTR tv94[ebp], eax
$L210200:
  000bd	8b 45 e0	 mov	 eax, DWORD PTR tv94[ebp]
  000c0	50		 push	 eax
  000c1	8b 4d 08	 mov	 ecx, DWORD PTR _psz$[ebp]
  000c4	51		 push	 ecx
  000c5	ff 15 00 00 00
	00		 call	 DWORD PTR __imp__wcscpy
  000cb	83 c4 08	 add	 esp, 8

; 268  : 
; 269  : 	return psz;

  000ce	8b 45 08	 mov	 eax, DWORD PTR _psz$[ebp]

; 270  : }

  000d1	8d 65 dc	 lea	 esp, DWORD PTR [ebp-36]
  000d4	8b e5		 mov	 esp, ebp
  000d6	5d		 pop	 ebp
  000d7	c2 04 00	 ret	 4
?CharLowerWFake@ATL@@YGPA_WPA_W@Z ENDP			; ATL::CharLowerWFake
; Function compile flags: /Odt
; File d:\program files (x86)\microsoft visual studio .net 2003\vc7\atlmfc\include\atlconv.h
_TEXT	ENDS
;	COMDAT ?AtlA2WHelper@@YGPA_WPA_WPBDHI@Z
_TEXT	SEGMENT
_ret$ = -4						; size = 4
_lpw$ = 8						; size = 4
_lpa$ = 12						; size = 4
_nChars$ = 16						; size = 4
_acp$ = 20						; size = 4
?AtlA2WHelper@@YGPA_WPA_WPBDHI@Z PROC NEAR		; AtlA2WHelper, COMDAT

; 554  : {

  00000	55		 push	 ebp
  00001	8b ec		 mov	 ebp, esp
  00003	51		 push	 ecx

; 555  : 	ATLASSERT(lpa != NULL);
; 556  : 	ATLASSERT(lpw != NULL);
; 557  : 	if (lpw == NULL || lpa == NULL)

  00004	83 7d 08 00	 cmp	 DWORD PTR _lpw$[ebp], 0
  00008	74 06		 je	 SHORT $L24306
  0000a	83 7d 0c 00	 cmp	 DWORD PTR _lpa$[ebp], 0
  0000e	75 04		 jne	 SHORT $L24305
$L24306:

; 558  : 		return NULL;

  00010	33 c0		 xor	 eax, eax
  00012	eb 32		 jmp	 SHORT $L24302
$L24305:

; 559  : 	// verify that no illegal character present
; 560  : 	// since lpw was allocated based on the size of lpa
; 561  : 	// don't worry about the number of chars
; 562  : 	lpw[0] = '\0';

  00014	8b 45 08	 mov	 eax, DWORD PTR _lpw$[ebp]
  00017	66 c7 00 00 00	 mov	 WORD PTR [eax], 0

; 563  : 	int ret = MultiByteToWideChar(acp, 0, lpa, -1, lpw, nChars);

  0001c	8b 4d 10	 mov	 ecx, DWORD PTR _nChars$[ebp]
  0001f	51		 push	 ecx
  00020	8b 55 08	 mov	 edx, DWORD PTR _lpw$[ebp]
  00023	52		 push	 edx
  00024	6a ff		 push	 -1
  00026	8b 45 0c	 mov	 eax, DWORD PTR _lpa$[ebp]
  00029	50		 push	 eax
  0002a	6a 00		 push	 0
  0002c	8b 4d 14	 mov	 ecx, DWORD PTR _acp$[ebp]
  0002f	51		 push	 ecx
  00030	ff 15 00 00 00
	00		 call	 DWORD PTR __imp__MultiByteToWideChar@24
  00036	89 45 fc	 mov	 DWORD PTR _ret$[ebp], eax

; 564  : 	if(ret == 0)

  00039	83 7d fc 00	 cmp	 DWORD PTR _ret$[ebp], 0
  0003d	75 04		 jne	 SHORT $L24308

; 565  : 	{
; 566  : 		ATLASSERT(FALSE);
; 567  : 		return NULL;

  0003f	33 c0		 xor	 eax, eax
  00041	eb 03		 jmp	 SHORT $L24302
$L24308:

; 568  : 	}		
; 569  : 	return lpw;

  00043	8b 45 08	 mov	 eax, DWORD PTR _lpw$[ebp]
$L24302:

; 570  : }

  00046	8b e5		 mov	 esp, ebp
  00048	5d		 pop	 ebp
  00049	c2 10 00	 ret	 16			; 00000010H
?AtlA2WHelper@@YGPA_WPA_WPBDHI@Z ENDP			; AtlA2WHelper
_TEXT	ENDS
PUBLIC	?_AdjustDlgSize@CPlayBoxDlg@@AAEXXZ		; CPlayBoxDlg::_AdjustDlgSize
PUBLIC	?SetIcon@CWnd@@QAEPAUHICON__@@PAU2@H@Z		; CWnd::SetIcon
PUBLIC	?PostMessageA@CWnd@@QAEHIIJ@Z			; CWnd::PostMessageA
EXTRN	__imp__SendMessageA@16:NEAR
EXTRN	?OnInitDialog@CDialog@@UAEHXZ:NEAR		; CDialog::OnInitDialog
EXTRN	?AttachConfigMessage@AfxUserConfig@@QAEXABV?$basic_string@DU?$char_traits@D@std@@V?$allocator@D@2@@std@@PAVAfxUserConfig_Observer@@@Z:NEAR ; AfxUserConfig::AttachConfigMessage
EXTRN	?GetConfigIntValue@AfxUserConfig@@QAEXABV?$basic_string@DU?$char_traits@D@std@@V?$allocator@D@2@@std@@0AAH@Z:NEAR ; AfxUserConfig::GetConfigIntValue
EXTRN	__imp__SetProcessWorkingSetSize@12:NEAR
EXTRN	__imp_?LogUserActMsg@@YAXABV?$basic_string@DU?$char_traits@D@std@@V?$allocator@D@2@@std@@0@Z:NEAR
EXTRN	__imp__GetCurrentProcess@0:NEAR
EXTRN	__imp__CreateMutexA@12:NEAR
EXTRN	__imp__CreateEventA@16:NEAR
EXTRN	__imp__CreateThread@24:NEAR
EXTRN	__imp__sprintf:NEAR
EXTRN	?g_hSharedWnd@@3PAUHWND__@@A:DWORD		; g_hSharedWnd
EXTRN	__imp__SetEvent@4:NEAR
EXTRN	__imp__ReleaseMutex@4:NEAR
EXTRN	?ModifyStyle@CWnd@@QAEHKKI@Z:NEAR		; CWnd::ModifyStyle
EXTRN	__imp__SetTimer@16:NEAR
EXTRN	?SetNotificationWnd@CTrayIcon@@QAEXPAVCWnd@@I@Z:NEAR ; CTrayIcon::SetNotificationWnd
EXTRN	?SetIcon@CTrayIcon@@QAEHPAUHICON__@@PBD@Z:NEAR	; CTrayIcon::SetIcon
EXTRN	?SetWindowTextA@CWnd@@QAEXPBD@Z:NEAR		; CWnd::SetWindowTextA
EXTRN	?AfxGetDataManager2@@YAPAVIDataManager@@XZ:NEAR	; AfxGetDataManager2
EXTRN	?AfxGetMainWindow@@YAPAVCWnd@@XZ:NEAR		; AfxGetMainWindow
EXTRN	?AfxSetMainWindow@@YAXPAVCWnd@@@Z:NEAR		; AfxSetMainWindow
xdata$x	SEGMENT
$T210238 DD	0ffffffffH
	DD	FLAT:$L210223
	DD	00H
	DD	FLAT:$L210224
	DD	0ffffffffH
	DD	FLAT:$L210225
	DD	02H
	DD	FLAT:$L210226
	DD	0ffffffffH
	DD	FLAT:$L210227
	DD	04H
	DD	FLAT:$L210228
	DD	0ffffffffH
	DD	FLAT:$L210229
	DD	0ffffffffH
	DD	FLAT:$L210230
	DD	07H
	DD	FLAT:$L210231
	DD	0ffffffffH
	DD	FLAT:$L210232
	DD	09H
	DD	FLAT:$L210233
$T210235 DD	019930520H
	DD	0bH
	DD	FLAT:$T210238
	DD	2 DUP(00H)
	DD	2 DUP(00H)
; Function compile flags: /Odt
; File d:\boxgit\playbox\playbox\dev\prj\playbox\playboxdlg.cpp
xdata$x	ENDS
_TEXT	SEGMENT
tv258 = -400						; size = 4
tv245 = -396						; size = 4
tv251 = -392						; size = 4
tv235 = -388						; size = 4
tv240 = -384						; size = 4
tv153 = -380						; size = 4
_this$ = -376						; size = 4
$T210222 = -372						; size = 28
$T210221 = -344						; size = 28
$T210220 = -316						; size = 28
$T210219 = -288						; size = 28
$T210218 = -260						; size = 28
$T210211 = -232						; size = 28
$T210210 = -204						; size = 28
$T210209 = -176						; size = 28
$T210208 = -148						; size = 28
$T210207 = -120						; size = 28
$T210206 = -92						; size = 28
_curMutexHandle$ = -64					; size = 4
_szBuffer$ = -60					; size = 32
__$ArrayPad$ = -28					; size = 4
_bUIStart$ = -21					; size = 1
_dwStart$ = -20						; size = 4
_pUserConfig$ = -16					; size = 4
__$EHRec$ = -12						; size = 12
__$ReturnAddr$ = 4					; size = 4
?OnInitDialog@CPlayBoxDlg@@MAEHXZ PROC NEAR		; CPlayBoxDlg::OnInitDialog
; _this$ = ecx

; 159  : {

  005f0	55		 push	 ebp
  005f1	8b ec		 mov	 ebp, esp
  005f3	6a ff		 push	 -1
  005f5	68 00 00 00 00	 push	 __ehhandler$?OnInitDialog@CPlayBoxDlg@@MAEHXZ
  005fa	64 a1 00 00 00
	00		 mov	 eax, DWORD PTR fs:__except_list
  00600	50		 push	 eax
  00601	64 89 25 00 00
	00 00		 mov	 DWORD PTR fs:__except_list, esp
  00608	81 ec 84 01 00
	00		 sub	 esp, 388		; 00000184H
  0060e	a1 00 00 00 00	 mov	 eax, DWORD PTR ___security_cookie
  00613	89 45 e4	 mov	 DWORD PTR __$ArrayPad$[ebp], eax
  00616	89 8d 88 fe ff
	ff		 mov	 DWORD PTR _this$[ebp], ecx

; 160  : 	DWORD dwStart = GetTickCount();

  0061c	ff 15 00 00 00
	00		 call	 DWORD PTR __imp__GetTickCount@0
  00622	89 45 ec	 mov	 DWORD PTR _dwStart$[ebp], eax

; 161  : 	AfxSetMainWindow( this );

  00625	8b 85 88 fe ff
	ff		 mov	 eax, DWORD PTR _this$[ebp]
  0062b	50		 push	 eax
  0062c	e8 00 00 00 00	 call	 ?AfxSetMainWindow@@YAXPAVCWnd@@@Z ; AfxSetMainWindow
  00631	83 c4 04	 add	 esp, 4

; 162  : 	g_hStartEvent = CreateEvent(NULL,FALSE,FALSE,NULL );

  00634	6a 00		 push	 0
  00636	6a 00		 push	 0
  00638	6a 00		 push	 0
  0063a	6a 00		 push	 0
  0063c	ff 15 00 00 00
	00		 call	 DWORD PTR __imp__CreateEventA@16
  00642	a3 00 00 00 00	 mov	 DWORD PTR ?g_hStartEvent@@3PAXA, eax ; g_hStartEvent

; 163  : 	CloseHandle( CreateThread(0,0,Log_StartMessage,0,0,0) );

  00647	6a 00		 push	 0
  00649	6a 00		 push	 0
  0064b	6a 00		 push	 0
  0064d	68 00 00 00 00	 push	 OFFSET FLAT:?Log_StartMessage@@YGKPAX@Z ; Log_StartMessage
  00652	6a 00		 push	 0
  00654	6a 00		 push	 0
  00656	ff 15 00 00 00
	00		 call	 DWORD PTR __imp__CreateThread@24
  0065c	50		 push	 eax
  0065d	ff 15 00 00 00
	00		 call	 DWORD PTR __imp__CloseHandle@4

; 164  : 
; 165  : 	HANDLE curMutexHandle=CreateMutex(NULL,false,"PBMutex");

  00663	68 00 00 00 00	 push	 OFFSET FLAT:$SG207725
  00668	6a 00		 push	 0
  0066a	6a 00		 push	 0
  0066c	ff 15 00 00 00
	00		 call	 DWORD PTR __imp__CreateMutexA@12
  00672	89 45 c0	 mov	 DWORD PTR _curMutexHandle$[ebp], eax

; 166  : 
; 167  : 	CDialog::OnInitDialog();

  00675	8b 8d 88 fe ff
	ff		 mov	 ecx, DWORD PTR _this$[ebp]
  0067b	e8 00 00 00 00	 call	 ?OnInitDialog@CDialog@@UAEHXZ ; CDialog::OnInitDialog

; 168  : 
; 169  : 	SetIcon(m_hIcon, TRUE);			// 

  00680	6a 01		 push	 1
  00682	8b 8d 88 fe ff
	ff		 mov	 ecx, DWORD PTR _this$[ebp]
  00688	8b 91 8c 00 00
	00		 mov	 edx, DWORD PTR [ecx+140]
  0068e	52		 push	 edx
  0068f	8b 8d 88 fe ff
	ff		 mov	 ecx, DWORD PTR _this$[ebp]
  00695	e8 00 00 00 00	 call	 ?SetIcon@CWnd@@QAEPAUHICON__@@PAU2@H@Z ; CWnd::SetIcon

; 170  : 	SetIcon(m_hIcon, FALSE);		// 

  0069a	6a 00		 push	 0
  0069c	8b 85 88 fe ff
	ff		 mov	 eax, DWORD PTR _this$[ebp]
  006a2	8b 88 8c 00 00
	00		 mov	 ecx, DWORD PTR [eax+140]
  006a8	51		 push	 ecx
  006a9	8b 8d 88 fe ff
	ff		 mov	 ecx, DWORD PTR _this$[ebp]
  006af	e8 00 00 00 00	 call	 ?SetIcon@CWnd@@QAEPAUHICON__@@PAU2@H@Z ; CWnd::SetIcon

; 171  : 
; 172  : 	m_pUIManager = AfxGetUIManager();

  006b4	e8 00 00 00 00	 call	 ?AfxGetUIManager@@YAPAVIUIManager@@XZ ; AfxGetUIManager
  006b9	8b 95 88 fe ff
	ff		 mov	 edx, DWORD PTR _this$[ebp]
  006bf	89 82 c8 00 00
	00		 mov	 DWORD PTR [edx+200], eax

; 173  : 	bool bUIStart = m_pUIManager->UIManAppStart();

  006c5	8b 85 88 fe ff
	ff		 mov	 eax, DWORD PTR _this$[ebp]
  006cb	8b 88 c8 00 00
	00		 mov	 ecx, DWORD PTR [eax+200]
  006d1	8b 95 88 fe ff
	ff		 mov	 edx, DWORD PTR _this$[ebp]
  006d7	8b 82 c8 00 00
	00		 mov	 eax, DWORD PTR [edx+200]
  006dd	8b 11		 mov	 edx, DWORD PTR [ecx]
  006df	8b c8		 mov	 ecx, eax
  006e1	ff 52 04	 call	 DWORD PTR [edx+4]
  006e4	88 45 eb	 mov	 BYTE PTR _bUIStart$[ebp], al

; 174  : 	if( !bUIStart )

  006e7	0f b6 45 eb	 movzx	 eax, BYTE PTR _bUIStart$[ebp]
  006eb	85 c0		 test	 eax, eax
  006ed	75 1f		 jne	 SHORT $L207727

; 175  : 	{
; 176  : 		::SendMessage(::AfxGetMainWindow()->m_hWnd, WM_CLOSE, 0, 0);

  006ef	6a 00		 push	 0
  006f1	6a 00		 push	 0
  006f3	6a 10		 push	 16			; 00000010H
  006f5	e8 00 00 00 00	 call	 ?AfxGetMainWindow@@YAPAVCWnd@@XZ ; AfxGetMainWindow
  006fa	8b 48 20	 mov	 ecx, DWORD PTR [eax+32]
  006fd	51		 push	 ecx
  006fe	ff 15 00 00 00
	00		 call	 DWORD PTR __imp__SendMessageA@16

; 177  : 		return TRUE;

  00704	b8 01 00 00 00	 mov	 eax, 1
  00709	e9 b1 04 00 00	 jmp	 $L207722
$L207727:

; 178  : 	}
; 179  : 	
; 180  : 	::SetProcessWorkingSetSize(::GetCurrentProcess(), -1, -1);

  0070e	6a ff		 push	 -1
  00710	6a ff		 push	 -1
  00712	ff 15 00 00 00
	00		 call	 DWORD PTR __imp__GetCurrentProcess@0
  00718	50		 push	 eax
  00719	ff 15 00 00 00
	00		 call	 DWORD PTR __imp__SetProcessWorkingSetSize@12

; 181  : 	::SetTimer(m_hWnd,TIMER_TRIM_MEM,30*1000,NULL);

  0071f	6a 00		 push	 0
  00721	68 30 75 00 00	 push	 30000			; 00007530H
  00726	6a 14		 push	 20			; 00000014H
  00728	8b 95 88 fe ff
	ff		 mov	 edx, DWORD PTR _this$[ebp]
  0072e	8b 42 20	 mov	 eax, DWORD PTR [edx+32]
  00731	50		 push	 eax
  00732	ff 15 00 00 00
	00		 call	 DWORD PTR __imp__SetTimer@16

; 182  : 
; 183  : 	GLOBAL_ADDATA;

  00738	e8 00 00 00 00	 call	 ?AfxGetDataManager2@@YAPAVIDataManager@@XZ ; AfxGetDataManager2
  0073d	89 85 84 fe ff
	ff		 mov	 DWORD PTR tv153[ebp], eax
  00743	68 00 00 00 00	 push	 OFFSET FLAT:_ID_DATA_AD
  00748	8b 8d 84 fe ff
	ff		 mov	 ecx, DWORD PTR tv153[ebp]
  0074e	8b 11		 mov	 edx, DWORD PTR [ecx]
  00750	8b 8d 84 fe ff
	ff		 mov	 ecx, DWORD PTR tv153[ebp]
  00756	ff 52 0c	 call	 DWORD PTR [edx+12]

; 184  : 
; 185  : 	AfxUserConfig* pUserConfig = AfxGetUserConfig();

  00759	e8 00 00 00 00	 call	 ?AfxGetUserConfig@@YAPAVAfxUserConfig@@XZ ; AfxGetUserConfig
  0075e	89 45 f0	 mov	 DWORD PTR _pUserConfig$[ebp], eax

; 186  : 	AfxGetUserConfig()->GetConfigIntValue( CONF_LAYOUT_MODULE_NAME, CONF_LAYOUT_MIN_WIDTH, m_nMinCx );

  00761	a1 00 00 00 00	 mov	 eax, DWORD PTR _CONF_LAYOUT_MIN_WIDTH
  00766	50		 push	 eax
  00767	8d 4d a4	 lea	 ecx, DWORD PTR $T210206[ebp]
  0076a	ff 15 00 00 00
	00		 call	 DWORD PTR __imp_??0?$basic_string@DU?$char_traits@D@std@@V?$allocator@D@2@@std@@QAE@PBD@Z
  00770	c7 45 fc 00 00
	00 00		 mov	 DWORD PTR __$EHRec$[ebp+8], 0
  00777	8b 0d 00 00 00
	00		 mov	 ecx, DWORD PTR _CONF_LAYOUT_MODULE_NAME
  0077d	51		 push	 ecx
  0077e	8d 4d 88	 lea	 ecx, DWORD PTR $T210207[ebp]
  00781	ff 15 00 00 00
	00		 call	 DWORD PTR __imp_??0?$basic_string@DU?$char_traits@D@std@@V?$allocator@D@2@@std@@QAE@PBD@Z
  00787	c6 45 fc 01	 mov	 BYTE PTR __$EHRec$[ebp+8], 1
  0078b	8b 95 88 fe ff
	ff		 mov	 edx, DWORD PTR _this$[ebp]
  00791	81 c2 cc 00 00
	00		 add	 edx, 204		; 000000ccH
  00797	52		 push	 edx
  00798	8d 45 a4	 lea	 eax, DWORD PTR $T210206[ebp]
  0079b	50		 push	 eax
  0079c	8d 4d 88	 lea	 ecx, DWORD PTR $T210207[ebp]
  0079f	51		 push	 ecx
  007a0	e8 00 00 00 00	 call	 ?AfxGetUserConfig@@YAPAVAfxUserConfig@@XZ ; AfxGetUserConfig
  007a5	8b c8		 mov	 ecx, eax
  007a7	e8 00 00 00 00	 call	 ?GetConfigIntValue@AfxUserConfig@@QAEXABV?$basic_string@DU?$char_traits@D@std@@V?$allocator@D@2@@std@@0AAH@Z ; AfxUserConfig::GetConfigIntValue
  007ac	c6 45 fc 00	 mov	 BYTE PTR __$EHRec$[ebp+8], 0
  007b0	8d 4d 88	 lea	 ecx, DWORD PTR $T210207[ebp]
  007b3	ff 15 00 00 00
	00		 call	 DWORD PTR __imp_??1?$basic_string@DU?$char_traits@D@std@@V?$allocator@D@2@@std@@QAE@XZ
  007b9	c7 45 fc ff ff
	ff ff		 mov	 DWORD PTR __$EHRec$[ebp+8], -1
  007c0	8d 4d a4	 lea	 ecx, DWORD PTR $T210206[ebp]
  007c3	ff 15 00 00 00
	00		 call	 DWORD PTR __imp_??1?$basic_string@DU?$char_traits@D@std@@V?$allocator@D@2@@std@@QAE@XZ

; 187  : 	AfxGetUserConfig()->GetConfigIntValue( CONF_LAYOUT_MODULE_NAME, CONF_LAYOUT_MIN_HEIGHT, m_nMinCy );

  007c9	8b 15 00 00 00
	00		 mov	 edx, DWORD PTR _CONF_LAYOUT_MIN_HEIGHT
  007cf	52		 push	 edx
  007d0	8d 8d 6c ff ff
	ff		 lea	 ecx, DWORD PTR $T210208[ebp]
  007d6	ff 15 00 00 00
	00		 call	 DWORD PTR __imp_??0?$basic_string@DU?$char_traits@D@std@@V?$allocator@D@2@@std@@QAE@PBD@Z
  007dc	c7 45 fc 02 00
	00 00		 mov	 DWORD PTR __$EHRec$[ebp+8], 2
  007e3	a1 00 00 00 00	 mov	 eax, DWORD PTR _CONF_LAYOUT_MODULE_NAME
  007e8	50		 push	 eax
  007e9	8d 8d 50 ff ff
	ff		 lea	 ecx, DWORD PTR $T210209[ebp]
  007ef	ff 15 00 00 00
	00		 call	 DWORD PTR __imp_??0?$basic_string@DU?$char_traits@D@std@@V?$allocator@D@2@@std@@QAE@PBD@Z
  007f5	c6 45 fc 03	 mov	 BYTE PTR __$EHRec$[ebp+8], 3
  007f9	8b 8d 88 fe ff
	ff		 mov	 ecx, DWORD PTR _this$[ebp]
  007ff	81 c1 d0 00 00
	00		 add	 ecx, 208		; 000000d0H
  00805	51		 push	 ecx
  00806	8d 95 6c ff ff
	ff		 lea	 edx, DWORD PTR $T210208[ebp]
  0080c	52		 push	 edx
  0080d	8d 85 50 ff ff
	ff		 lea	 eax, DWORD PTR $T210209[ebp]
  00813	50		 push	 eax
  00814	e8 00 00 00 00	 call	 ?AfxGetUserConfig@@YAPAVAfxUserConfig@@XZ ; AfxGetUserConfig
  00819	8b c8		 mov	 ecx, eax
  0081b	e8 00 00 00 00	 call	 ?GetConfigIntValue@AfxUserConfig@@QAEXABV?$basic_string@DU?$char_traits@D@std@@V?$allocator@D@2@@std@@0AAH@Z ; AfxUserConfig::GetConfigIntValue
  00820	c6 45 fc 02	 mov	 BYTE PTR __$EHRec$[ebp+8], 2
  00824	8d 8d 50 ff ff
	ff		 lea	 ecx, DWORD PTR $T210209[ebp]
  0082a	ff 15 00 00 00
	00		 call	 DWORD PTR __imp_??1?$basic_string@DU?$char_traits@D@std@@V?$allocator@D@2@@std@@QAE@XZ
  00830	c7 45 fc ff ff
	ff ff		 mov	 DWORD PTR __$EHRec$[ebp+8], -1
  00837	8d 8d 6c ff ff
	ff		 lea	 ecx, DWORD PTR $T210208[ebp]
  0083d	ff 15 00 00 00
	00		 call	 DWORD PTR __imp_??1?$basic_string@DU?$char_traits@D@std@@V?$allocator@D@2@@std@@QAE@XZ

; 188  : 
; 189  : 	if(m_nMinCx < 300 || m_nMinCx > 1400)

  00843	8b 8d 88 fe ff
	ff		 mov	 ecx, DWORD PTR _this$[ebp]
  00849	81 b9 cc 00 00
	00 2c 01 00 00	 cmp	 DWORD PTR [ecx+204], 300 ; 0000012cH
  00853	7c 12		 jl	 SHORT $L207735
  00855	8b 95 88 fe ff
	ff		 mov	 edx, DWORD PTR _this$[ebp]
  0085b	81 ba cc 00 00
	00 78 05 00 00	 cmp	 DWORD PTR [edx+204], 1400 ; 00000578H
  00865	7e 10		 jle	 SHORT $L207734
$L207735:

; 190  : 		m_nMinCx = 650;

  00867	8b 85 88 fe ff
	ff		 mov	 eax, DWORD PTR _this$[ebp]
  0086d	c7 80 cc 00 00
	00 8a 02 00 00	 mov	 DWORD PTR [eax+204], 650 ; 0000028aH
$L207734:

; 191  : 	if(m_nMinCy < 300 || m_nMinCy > 1024)

  00877	8b 8d 88 fe ff
	ff		 mov	 ecx, DWORD PTR _this$[ebp]
  0087d	81 b9 d0 00 00
	00 2c 01 00 00	 cmp	 DWORD PTR [ecx+208], 300 ; 0000012cH
  00887	7c 12		 jl	 SHORT $L207737
  00889	8b 95 88 fe ff
	ff		 mov	 edx, DWORD PTR _this$[ebp]
  0088f	81 ba d0 00 00
	00 00 04 00 00	 cmp	 DWORD PTR [edx+208], 1024 ; 00000400H
  00899	7e 10		 jle	 SHORT $L207736
$L207737:

; 192  : 		m_nMinCy = 400;

  0089b	8b 85 88 fe ff
	ff		 mov	 eax, DWORD PTR _this$[ebp]
  008a1	c7 80 d0 00 00
	00 90 01 00 00	 mov	 DWORD PTR [eax+208], 400 ; 00000190H
$L207736:

; 193  : 
; 194  : 
; 195  : 	g_hSharedWnd = m_hWnd;

  008ab	8b 8d 88 fe ff
	ff		 mov	 ecx, DWORD PTR _this$[ebp]
  008b1	8b 51 20	 mov	 edx, DWORD PTR [ecx+32]
  008b4	89 15 00 00 00
	00		 mov	 DWORD PTR ?g_hSharedWnd@@3PAUHWND__@@A, edx ; g_hSharedWnd

; 196  : 	m_ptrayIcon->SetNotificationWnd(this, WM_MY_TRAY_NOTIFICATION);

  008ba	68 35 09 00 00	 push	 2357			; 00000935H
  008bf	8b 85 88 fe ff
	ff		 mov	 eax, DWORD PTR _this$[ebp]
  008c5	50		 push	 eax
  008c6	8b 8d 88 fe ff
	ff		 mov	 ecx, DWORD PTR _this$[ebp]
  008cc	8b 89 90 00 00
	00		 mov	 ecx, DWORD PTR [ecx+144]
  008d2	e8 00 00 00 00	 call	 ?SetNotificationWnd@CTrayIcon@@QAEXPAVCWnd@@I@Z ; CTrayIcon::SetNotificationWnd

; 197  : 	SetWindowText("");

  008d7	68 00 00 00 00	 push	 OFFSET FLAT:$SG207738
  008dc	8b 8d 88 fe ff
	ff		 mov	 ecx, DWORD PTR _this$[ebp]
  008e2	e8 00 00 00 00	 call	 ?SetWindowTextA@CWnd@@QAEXPBD@Z ; CWnd::SetWindowTextA

; 198  : 	_AdjustDlgSize();

  008e7	8b 8d 88 fe ff
	ff		 mov	 ecx, DWORD PTR _this$[ebp]
  008ed	e8 00 00 00 00	 call	 ?_AdjustDlgSize@CPlayBoxDlg@@AAEXXZ ; CPlayBoxDlg::_AdjustDlgSize

; 199  : 
; 200  : 	m_ptrayIcon->SetIcon(theApp.LoadIcon(IDR_MAINFRAME),"");

  008f2	68 00 00 00 00	 push	 OFFSET FLAT:$SG207739
  008f7	68 80 00 00 00	 push	 128			; 00000080H
  008fc	b9 00 00 00 00	 mov	 ecx, OFFSET FLAT:?theApp@@3VCPlayBoxApp@@A
  00901	e8 00 00 00 00	 call	 ?LoadIconA@CWinApp@@QBEPAUHICON__@@I@Z ; CWinApp::LoadIconA
  00906	50		 push	 eax
  00907	8b 95 88 fe ff
	ff		 mov	 edx, DWORD PTR _this$[ebp]
  0090d	8b 8a 90 00 00
	00		 mov	 ecx, DWORD PTR [edx+144]
  00913	e8 00 00 00 00	 call	 ?SetIcon@CTrayIcon@@QAEHPAUHICON__@@PBD@Z ; CTrayIcon::SetIcon

; 201  : 
; 202  : 	ReleaseMutex(curMutexHandle);

  00918	8b 45 c0	 mov	 eax, DWORD PTR _curMutexHandle$[ebp]
  0091b	50		 push	 eax
  0091c	ff 15 00 00 00
	00		 call	 DWORD PTR __imp__ReleaseMutex@4

; 203  : 
; 204  : 	char szBuffer[32];
; 205  : 	sprintf(szBuffer,"T:%d",GetTickCount() - dwStart);	

  00922	ff 15 00 00 00
	00		 call	 DWORD PTR __imp__GetTickCount@0
  00928	2b 45 ec	 sub	 eax, DWORD PTR _dwStart$[ebp]
  0092b	50		 push	 eax
  0092c	68 00 00 00 00	 push	 OFFSET FLAT:$SG207741
  00931	8d 4d c4	 lea	 ecx, DWORD PTR _szBuffer$[ebp]
  00934	51		 push	 ecx
  00935	ff 15 00 00 00
	00		 call	 DWORD PTR __imp__sprintf
  0093b	83 c4 0c	 add	 esp, 12			; 0000000cH

; 206  : 	LogUserActMsg( "AppInit",szBuffer );

  0093e	8d 55 c4	 lea	 edx, DWORD PTR _szBuffer$[ebp]
  00941	52		 push	 edx
  00942	8d 8d 34 ff ff
	ff		 lea	 ecx, DWORD PTR $T210210[ebp]
  00948	ff 15 00 00 00
	00		 call	 DWORD PTR __imp_??0?$basic_string@DU?$char_traits@D@std@@V?$allocator@D@2@@std@@QAE@PBD@Z
  0094e	c7 45 fc 04 00
	00 00		 mov	 DWORD PTR __$EHRec$[ebp+8], 4
  00955	68 00 00 00 00	 push	 OFFSET FLAT:$SG207744
  0095a	8d 8d 18 ff ff
	ff		 lea	 ecx, DWORD PTR $T210211[ebp]
  00960	ff 15 00 00 00
	00		 call	 DWORD PTR __imp_??0?$basic_string@DU?$char_traits@D@std@@V?$allocator@D@2@@std@@QAE@PBD@Z
  00966	c6 45 fc 05	 mov	 BYTE PTR __$EHRec$[ebp+8], 5
  0096a	8d 85 34 ff ff
	ff		 lea	 eax, DWORD PTR $T210210[ebp]
  00970	50		 push	 eax
  00971	8d 8d 18 ff ff
	ff		 lea	 ecx, DWORD PTR $T210211[ebp]
  00977	51		 push	 ecx
  00978	ff 15 00 00 00
	00		 call	 DWORD PTR __imp_?LogUserActMsg@@YAXABV?$basic_string@DU?$char_traits@D@std@@V?$allocator@D@2@@std@@0@Z
  0097e	83 c4 08	 add	 esp, 8
  00981	c6 45 fc 04	 mov	 BYTE PTR __$EHRec$[ebp+8], 4
  00985	8d 8d 18 ff ff
	ff		 lea	 ecx, DWORD PTR $T210211[ebp]
  0098b	ff 15 00 00 00
	00		 call	 DWORD PTR __imp_??1?$basic_string@DU?$char_traits@D@std@@V?$allocator@D@2@@std@@QAE@XZ
  00991	c7 45 fc ff ff
	ff ff		 mov	 DWORD PTR __$EHRec$[ebp+8], -1
  00998	8d 8d 34 ff ff
	ff		 lea	 ecx, DWORD PTR $T210210[ebp]
  0099e	ff 15 00 00 00
	00		 call	 DWORD PTR __imp_??1?$basic_string@DU?$char_traits@D@std@@V?$allocator@D@2@@std@@QAE@XZ

; 207  : 
; 208  : 	//
; 209  : 	ModifyStyle(0, WS_SYSMENU|WS_MINIMIZEBOX|WS_MAXIMIZEBOX);

  009a4	6a 00		 push	 0
  009a6	68 00 00 0b 00	 push	 720896			; 000b0000H
  009ab	6a 00		 push	 0
  009ad	8b 8d 88 fe ff
	ff		 mov	 ecx, DWORD PTR _this$[ebp]
  009b3	e8 00 00 00 00	 call	 ?ModifyStyle@CWnd@@QAEHKKI@Z ; CWnd::ModifyStyle

; 210  : 
; 211  : 	AfxGetMessageManager()->DetachMessage( ID_MESSAGE_LAYOUTMGR,(ILayoutChangeObserver*) this);

  009b8	83 bd 88 fe ff
	ff 00		 cmp	 DWORD PTR _this$[ebp], 0
  009bf	74 11		 je	 SHORT $L210212
  009c1	8b 95 88 fe ff
	ff		 mov	 edx, DWORD PTR _this$[ebp]
  009c7	83 c2 78	 add	 edx, 120		; 00000078H
  009ca	89 95 80 fe ff
	ff		 mov	 DWORD PTR tv240[ebp], edx
  009d0	eb 0a		 jmp	 SHORT $L210213
$L210212:
  009d2	c7 85 80 fe ff
	ff 00 00 00 00	 mov	 DWORD PTR tv240[ebp], 0
$L210213:
  009dc	e8 00 00 00 00	 call	 ?AfxGetMessageManager@@YAPAVIMessageManager@@XZ ; AfxGetMessageManager
  009e1	89 85 7c fe ff
	ff		 mov	 DWORD PTR tv235[ebp], eax
  009e7	8b 85 80 fe ff
	ff		 mov	 eax, DWORD PTR tv240[ebp]
  009ed	50		 push	 eax
  009ee	68 00 00 00 00	 push	 OFFSET FLAT:_ID_MESSAGE_LAYOUTMGR
  009f3	8b 8d 7c fe ff
	ff		 mov	 ecx, DWORD PTR tv235[ebp]
  009f9	8b 11		 mov	 edx, DWORD PTR [ecx]
  009fb	8b 8d 7c fe ff
	ff		 mov	 ecx, DWORD PTR tv235[ebp]
  00a01	ff 52 08	 call	 DWORD PTR [edx+8]

; 212  : 	AfxGetMessageManager()->AttachMessage( ID_MESSAGE_PANEL_CHANGE,(IPanelChangeObserver*) this);

  00a04	83 bd 88 fe ff
	ff 00		 cmp	 DWORD PTR _this$[ebp], 0
  00a0b	74 11		 je	 SHORT $L210214
  00a0d	8b 85 88 fe ff
	ff		 mov	 eax, DWORD PTR _this$[ebp]
  00a13	83 c0 7c	 add	 eax, 124		; 0000007cH
  00a16	89 85 78 fe ff
	ff		 mov	 DWORD PTR tv251[ebp], eax
  00a1c	eb 0a		 jmp	 SHORT $L210215
$L210214:
  00a1e	c7 85 78 fe ff
	ff 00 00 00 00	 mov	 DWORD PTR tv251[ebp], 0
$L210215:
  00a28	e8 00 00 00 00	 call	 ?AfxGetMessageManager@@YAPAVIMessageManager@@XZ ; AfxGetMessageManager
  00a2d	89 85 74 fe ff
	ff		 mov	 DWORD PTR tv245[ebp], eax
  00a33	6a 02		 push	 2
  00a35	8b 8d 78 fe ff
	ff		 mov	 ecx, DWORD PTR tv251[ebp]
  00a3b	51		 push	 ecx
  00a3c	68 00 00 00 00	 push	 OFFSET FLAT:_ID_MESSAGE_PANEL_CHANGE
  00a41	8b 95 74 fe ff
	ff		 mov	 edx, DWORD PTR tv245[ebp]
  00a47	8b 02		 mov	 eax, DWORD PTR [edx]
  00a49	8b 8d 74 fe ff
	ff		 mov	 ecx, DWORD PTR tv245[ebp]
  00a4f	ff 50 04	 call	 DWORD PTR [eax+4]

; 213  : 	AfxGetUserConfig()->AttachConfigMessage( CONF_LAYOUT_MODULE_NAME,this );

  00a52	83 bd 88 fe ff
	ff 00		 cmp	 DWORD PTR _this$[ebp], 0
  00a59	74 11		 je	 SHORT $L210216
  00a5b	8b 8d 88 fe ff
	ff		 mov	 ecx, DWORD PTR _this$[ebp]
  00a61	83 c1 74	 add	 ecx, 116		; 00000074H
  00a64	89 8d 70 fe ff
	ff		 mov	 DWORD PTR tv258[ebp], ecx
  00a6a	eb 0a		 jmp	 SHORT $L210217
$L210216:
  00a6c	c7 85 70 fe ff
	ff 00 00 00 00	 mov	 DWORD PTR tv258[ebp], 0
$L210217:
  00a76	8b 15 00 00 00
	00		 mov	 edx, DWORD PTR _CONF_LAYOUT_MODULE_NAME
  00a7c	52		 push	 edx
  00a7d	8d 8d fc fe ff
	ff		 lea	 ecx, DWORD PTR $T210218[ebp]
  00a83	ff 15 00 00 00
	00		 call	 DWORD PTR __imp_??0?$basic_string@DU?$char_traits@D@std@@V?$allocator@D@2@@std@@QAE@PBD@Z
  00a89	c7 45 fc 06 00
	00 00		 mov	 DWORD PTR __$EHRec$[ebp+8], 6
  00a90	8b 85 70 fe ff
	ff		 mov	 eax, DWORD PTR tv258[ebp]
  00a96	50		 push	 eax
  00a97	8d 8d fc fe ff
	ff		 lea	 ecx, DWORD PTR $T210218[ebp]
  00a9d	51		 push	 ecx
  00a9e	e8 00 00 00 00	 call	 ?AfxGetUserConfig@@YAPAVAfxUserConfig@@XZ ; AfxGetUserConfig
  00aa3	8b c8		 mov	 ecx, eax
  00aa5	e8 00 00 00 00	 call	 ?AttachConfigMessage@AfxUserConfig@@QAEXABV?$basic_string@DU?$char_traits@D@std@@V?$allocator@D@2@@std@@PAVAfxUserConfig_Observer@@@Z ; AfxUserConfig::AttachConfigMessage
  00aaa	c7 45 fc ff ff
	ff ff		 mov	 DWORD PTR __$EHRec$[ebp+8], -1
  00ab1	8d 8d fc fe ff
	ff		 lea	 ecx, DWORD PTR $T210218[ebp]
  00ab7	ff 15 00 00 00
	00		 call	 DWORD PTR __imp_??1?$basic_string@DU?$char_traits@D@std@@V?$allocator@D@2@@std@@QAE@XZ

; 214  : 	YL_Log( STR_LOG_FILE ,LOG_NOTICE,"OnInitDialog","before post MSG_AFTER_UICREATE" );

  00abd	68 00 00 00 00	 push	 OFFSET FLAT:$SG207751
  00ac2	8d 8d e0 fe ff
	ff		 lea	 ecx, DWORD PTR $T210219[ebp]
  00ac8	ff 15 00 00 00
	00		 call	 DWORD PTR __imp_??0?$basic_string@DU?$char_traits@D@std@@V?$allocator@D@2@@std@@QAE@PBD@Z
  00ace	c7 45 fc 07 00
	00 00		 mov	 DWORD PTR __$EHRec$[ebp+8], 7
  00ad5	68 00 00 00 00	 push	 OFFSET FLAT:$SG207752
  00ada	8d 8d c4 fe ff
	ff		 lea	 ecx, DWORD PTR $T210220[ebp]
  00ae0	ff 15 00 00 00
	00		 call	 DWORD PTR __imp_??0?$basic_string@DU?$char_traits@D@std@@V?$allocator@D@2@@std@@QAE@PBD@Z
  00ae6	c6 45 fc 08	 mov	 BYTE PTR __$EHRec$[ebp+8], 8
  00aea	68 00 00 00 00	 push	 OFFSET FLAT:$SG207750
  00aef	8d 95 e0 fe ff
	ff		 lea	 edx, DWORD PTR $T210219[ebp]
  00af5	52		 push	 edx
  00af6	6a 01		 push	 1
  00af8	8d 85 c4 fe ff
	ff		 lea	 eax, DWORD PTR $T210220[ebp]
  00afe	50		 push	 eax
  00aff	ff 15 00 00 00
	00		 call	 DWORD PTR __imp_?YL_Log@@YAXABV?$basic_string@DU?$char_traits@D@std@@V?$allocator@D@2@@std@@H0PBDZZ
  00b05	83 c4 10	 add	 esp, 16			; 00000010H
  00b08	c6 45 fc 07	 mov	 BYTE PTR __$EHRec$[ebp+8], 7
  00b0c	8d 8d c4 fe ff
	ff		 lea	 ecx, DWORD PTR $T210220[ebp]
  00b12	ff 15 00 00 00
	00		 call	 DWORD PTR __imp_??1?$basic_string@DU?$char_traits@D@std@@V?$allocator@D@2@@std@@QAE@XZ
  00b18	c7 45 fc ff ff
	ff ff		 mov	 DWORD PTR __$EHRec$[ebp+8], -1
  00b1f	8d 8d e0 fe ff
	ff		 lea	 ecx, DWORD PTR $T210219[ebp]
  00b25	ff 15 00 00 00
	00		 call	 DWORD PTR __imp_??1?$basic_string@DU?$char_traits@D@std@@V?$allocator@D@2@@std@@QAE@XZ

; 215  : 	SetEvent(g_hStartEvent);

  00b2b	8b 0d 00 00 00
	00		 mov	 ecx, DWORD PTR ?g_hStartEvent@@3PAXA ; g_hStartEvent
  00b31	51		 push	 ecx
  00b32	ff 15 00 00 00
	00		 call	 DWORD PTR __imp__SetEvent@4

; 216  : 
; 217  : 	PostMessage(MSG_AFTER_UICREATE);

  00b38	6a 00		 push	 0
  00b3a	6a 00		 push	 0
  00b3c	68 10 04 00 00	 push	 1040			; 00000410H
  00b41	8b 8d 88 fe ff
	ff		 mov	 ecx, DWORD PTR _this$[ebp]
  00b47	e8 00 00 00 00	 call	 ?PostMessageA@CWnd@@QAEHIIJ@Z ; CWnd::PostMessageA

; 218  : 	YL_Log( STR_LOG_FILE ,LOG_NOTICE,"OnInitDialog","after post MSG_AFTER_UICREATE" );

  00b4c	68 00 00 00 00	 push	 OFFSET FLAT:$SG207756
  00b51	8d 8d a8 fe ff
	ff		 lea	 ecx, DWORD PTR $T210221[ebp]
  00b57	ff 15 00 00 00
	00		 call	 DWORD PTR __imp_??0?$basic_string@DU?$char_traits@D@std@@V?$allocator@D@2@@std@@QAE@PBD@Z
  00b5d	c7 45 fc 09 00
	00 00		 mov	 DWORD PTR __$EHRec$[ebp+8], 9
  00b64	68 00 00 00 00	 push	 OFFSET FLAT:$SG207757
  00b69	8d 8d 8c fe ff
	ff		 lea	 ecx, DWORD PTR $T210222[ebp]
  00b6f	ff 15 00 00 00
	00		 call	 DWORD PTR __imp_??0?$basic_string@DU?$char_traits@D@std@@V?$allocator@D@2@@std@@QAE@PBD@Z
  00b75	c6 45 fc 0a	 mov	 BYTE PTR __$EHRec$[ebp+8], 10 ; 0000000aH
  00b79	68 00 00 00 00	 push	 OFFSET FLAT:$SG207755
  00b7e	8d 95 a8 fe ff
	ff		 lea	 edx, DWORD PTR $T210221[ebp]
  00b84	52		 push	 edx
  00b85	6a 01		 push	 1
  00b87	8d 85 8c fe ff
	ff		 lea	 eax, DWORD PTR $T210222[ebp]
  00b8d	50		 push	 eax
  00b8e	ff 15 00 00 00
	00		 call	 DWORD PTR __imp_?YL_Log@@YAXABV?$basic_string@DU?$char_traits@D@std@@V?$allocator@D@2@@std@@H0PBDZZ
  00b94	83 c4 10	 add	 esp, 16			; 00000010H
  00b97	c6 45 fc 09	 mov	 BYTE PTR __$EHRec$[ebp+8], 9
  00b9b	8d 8d 8c fe ff
	ff		 lea	 ecx, DWORD PTR $T210222[ebp]
  00ba1	ff 15 00 00 00
	00		 call	 DWORD PTR __imp_??1?$basic_string@DU?$char_traits@D@std@@V?$allocator@D@2@@std@@QAE@XZ
  00ba7	c7 45 fc ff ff
	ff ff		 mov	 DWORD PTR __$EHRec$[ebp+8], -1
  00bae	8d 8d a8 fe ff
	ff		 lea	 ecx, DWORD PTR $T210221[ebp]
  00bb4	ff 15 00 00 00
	00		 call	 DWORD PTR __imp_??1?$basic_string@DU?$char_traits@D@std@@V?$allocator@D@2@@std@@QAE@XZ

; 219  : 
; 220  : 	return TRUE;  //  TRUE

  00bba	b8 01 00 00 00	 mov	 eax, 1
$L207722:

; 221  : }

  00bbf	8b 4d f4	 mov	 ecx, DWORD PTR __$EHRec$[ebp]
  00bc2	64 89 0d 00 00
	00 00		 mov	 DWORD PTR fs:__except_list, ecx
  00bc9	8b 4d e4	 mov	 ecx, DWORD PTR __$ArrayPad$[ebp]
  00bcc	e8 00 00 00 00	 call	 @__security_check_cookie@4
  00bd1	8b e5		 mov	 esp, ebp
  00bd3	5d		 pop	 ebp
  00bd4	c3		 ret	 0
_TEXT	ENDS
text$x	SEGMENT
$L210223:
  000b3	8d 4d a4	 lea	 ecx, DWORD PTR $T210206[ebp]
  000b6	ff 25 00 00 00
	00		 jmp	 DWORD PTR __imp_??1?$basic_string@DU?$char_traits@D@std@@V?$allocator@D@2@@std@@QAE@XZ
$L210224:
  000bc	8d 4d 88	 lea	 ecx, DWORD PTR $T210207[ebp]
  000bf	ff 25 00 00 00
	00		 jmp	 DWORD PTR __imp_??1?$basic_string@DU?$char_traits@D@std@@V?$allocator@D@2@@std@@QAE@XZ
$L210225:
  000c5	8d 8d 6c ff ff
	ff		 lea	 ecx, DWORD PTR $T210208[ebp]
  000cb	ff 25 00 00 00
	00		 jmp	 DWORD PTR __imp_??1?$basic_string@DU?$char_traits@D@std@@V?$allocator@D@2@@std@@QAE@XZ
$L210226:
  000d1	8d 8d 50 ff ff
	ff		 lea	 ecx, DWORD PTR $T210209[ebp]
  000d7	ff 25 00 00 00
	00		 jmp	 DWORD PTR __imp_??1?$basic_string@DU?$char_traits@D@std@@V?$allocator@D@2@@std@@QAE@XZ
$L210227:
  000dd	8d 8d 34 ff ff
	ff		 lea	 ecx, DWORD PTR $T210210[ebp]
  000e3	ff 25 00 00 00
	00		 jmp	 DWORD PTR __imp_??1?$basic_string@DU?$char_traits@D@std@@V?$allocator@D@2@@std@@QAE@XZ
$L210228:
  000e9	8d 8d 18 ff ff
	ff		 lea	 ecx, DWORD PTR $T210211[ebp]
  000ef	ff 25 00 00 00
	00		 jmp	 DWORD PTR __imp_??1?$basic_string@DU?$char_traits@D@std@@V?$allocator@D@2@@std@@QAE@XZ
$L210229:
  000f5	8d 8d fc fe ff
	ff		 lea	 ecx, DWORD PTR $T210218[ebp]
  000fb	ff 25 00 00 00
	00		 jmp	 DWORD PTR __imp_??1?$basic_string@DU?$char_traits@D@std@@V?$allocator@D@2@@std@@QAE@XZ
$L210230:
  00101	8d 8d e0 fe ff
	ff		 lea	 ecx, DWORD PTR $T210219[ebp]
  00107	ff 25 00 00 00
	00		 jmp	 DWORD PTR __imp_??1?$basic_string@DU?$char_traits@D@std@@V?$allocator@D@2@@std@@QAE@XZ
$L210231:
  0010d	8d 8d c4 fe ff
	ff		 lea	 ecx, DWORD PTR $T210220[ebp]
  00113	ff 25 00 00 00
	00		 jmp	 DWORD PTR __imp_??1?$basic_string@DU?$char_traits@D@std@@V?$allocator@D@2@@std@@QAE@XZ
$L210232:
  00119	8d 8d a8 fe ff
	ff		 lea	 ecx, DWORD PTR $T210221[ebp]
  0011f	ff 25 00 00 00
	00		 jmp	 DWORD PTR __imp_??1?$basic_string@DU?$char_traits@D@std@@V?$allocator@D@2@@std@@QAE@XZ
$L210233:
  00125	8d 8d 8c fe ff
	ff		 lea	 ecx, DWORD PTR $T210222[ebp]
  0012b	ff 25 00 00 00
	00		 jmp	 DWORD PTR __imp_??1?$basic_string@DU?$char_traits@D@std@@V?$allocator@D@2@@std@@QAE@XZ
__ehhandler$?OnInitDialog@CPlayBoxDlg@@MAEHXZ:
  00131	b8 00 00 00 00	 mov	 eax, OFFSET FLAT:$T210235
  00136	e9 00 00 00 00	 jmp	 ___CxxFrameHandler
text$x	ENDS
?OnInitDialog@CPlayBoxDlg@@MAEHXZ ENDP			; CPlayBoxDlg::OnInitDialog
PUBLIC	?CharUpperWFake@ATL@@YGPA_WPA_W@Z		; ATL::CharUpperWFake
EXTRN	__imp__CharUpperW@4:NEAR
; Function compile flags: /Odt
; File d:\program files (x86)\microsoft visual studio .net 2003\vc7\atlmfc\include\cstringt.h
;	COMDAT ?CharUpperWThunk@ATL@@YGPA_WPA_W@Z
_TEXT	SEGMENT
_psz$ = 8						; size = 4
?CharUpperWThunk@ATL@@YGPA_WPA_W@Z PROC NEAR		; ATL::CharUpperWThunk, COMDAT

; 292  : {

  00000	55		 push	 ebp
  00001	8b ec		 mov	 ebp, esp

; 293  : 	_AtlInstallStringThunk(reinterpret_cast<void**>(&_strthunks.pfnCharUpperW), CharUpperWFake, ::CharUpperW);

  00003	a1 00 00 00 00	 mov	 eax, DWORD PTR __imp__CharUpperW@4
  00008	50		 push	 eax
  00009	68 00 00 00 00	 push	 OFFSET FLAT:?CharUpperWFake@ATL@@YGPA_WPA_W@Z ; ATL::CharUpperWFake
  0000e	68 10 00 00 00	 push	 OFFSET FLAT:?_strthunks@ATL@@3U_AtlStringThunks@1@A+16
  00013	e8 00 00 00 00	 call	 ?_AtlInstallStringThunk@ATL@@YAXPAPAXPAX1@Z ; ATL::_AtlInstallStringThunk
  00018	83 c4 0c	 add	 esp, 12			; 0000000cH

; 294  : 
; 295  : 	return _strthunks.pfnCharUpperW(psz);

  0001b	8b 4d 08	 mov	 ecx, DWORD PTR _psz$[ebp]
  0001e	51		 push	 ecx
  0001f	ff 15 10 00 00
	00		 call	 DWORD PTR ?_strthunks@ATL@@3U_AtlStringThunks@1@A+16

; 296  : }

  00025	5d		 pop	 ebp
  00026	c2 04 00	 ret	 4
?CharUpperWThunk@ATL@@YGPA_WPA_W@Z ENDP			; ATL::CharUpperWThunk
_TEXT	ENDS
EXTRN	__imp__CharUpperA@4:NEAR
; Function compile flags: /Odt
;	COMDAT ?CharUpperWFake@ATL@@YGPA_WPA_W@Z
_TEXT	SEGMENT
tv90 = -36						; size = 4
tv94 = -32						; size = 4
tv75 = -28						; size = 4
tv78 = -24						; size = 4
__lpa$ = -20						; size = 4
__acp$ = -16						; size = 4
_pszA$ = -12						; size = 4
__lpw$ = -8						; size = 4
__convert$ = -4						; size = 4
_psz$ = 8						; size = 4
?CharUpperWFake@ATL@@YGPA_WPA_W@Z PROC NEAR		; ATL::CharUpperWFake, COMDAT

; 280  : {

  00000	55		 push	 ebp
  00001	8b ec		 mov	 ebp, esp
  00003	83 ec 24	 sub	 esp, 36			; 00000024H

; 281  : 	USES_CONVERSION;

  00006	e8 00 00 00 00	 call	 ?_AtlGetConversionACP@ATL@@YGIXZ ; ATL::_AtlGetConversionACP
  0000b	89 45 f0	 mov	 DWORD PTR __acp$[ebp], eax

; 282  : 	LPSTR pszA;
; 283  : 
; 284  : 	pszA = W2A(psz);

  0000e	8b 45 08	 mov	 eax, DWORD PTR _psz$[ebp]
  00011	89 45 f8	 mov	 DWORD PTR __lpw$[ebp], eax
  00014	83 7d f8 00	 cmp	 DWORD PTR __lpw$[ebp], 0
  00018	75 09		 jne	 SHORT $L210242
  0001a	c7 45 e8 00 00
	00 00		 mov	 DWORD PTR tv78[ebp], 0
  00021	eb 3a		 jmp	 SHORT $L210243
$L210242:
  00023	8b 4d f8	 mov	 ecx, DWORD PTR __lpw$[ebp]
  00026	51		 push	 ecx
  00027	ff 15 00 00 00
	00		 call	 DWORD PTR __imp__lstrlenW@4
  0002d	8d 54 00 02	 lea	 edx, DWORD PTR [eax+eax+2]
  00031	89 55 fc	 mov	 DWORD PTR __convert$[ebp], edx
  00034	8b 45 fc	 mov	 eax, DWORD PTR __convert$[ebp]
  00037	83 c0 03	 add	 eax, 3
  0003a	83 e0 fc	 and	 eax, -4			; fffffffcH
  0003d	e8 00 00 00 00	 call	 __alloca_probe
  00042	89 65 e4	 mov	 DWORD PTR tv75[ebp], esp
  00045	8b 45 f0	 mov	 eax, DWORD PTR __acp$[ebp]
  00048	50		 push	 eax
  00049	8b 4d fc	 mov	 ecx, DWORD PTR __convert$[ebp]
  0004c	51		 push	 ecx
  0004d	8b 55 f8	 mov	 edx, DWORD PTR __lpw$[ebp]
  00050	52		 push	 edx
  00051	8b 45 e4	 mov	 eax, DWORD PTR tv75[ebp]
  00054	50		 push	 eax
  00055	e8 00 00 00 00	 call	 ?AtlW2AHelper@@YGPADPADPB_WHI@Z ; AtlW2AHelper
  0005a	89 45 e8	 mov	 DWORD PTR tv78[ebp], eax
$L210243:
  0005d	8b 4d e8	 mov	 ecx, DWORD PTR tv78[ebp]
  00060	89 4d f4	 mov	 DWORD PTR _pszA$[ebp], ecx

; 285  : 	::CharUpperA(pszA);

  00063	8b 55 f4	 mov	 edx, DWORD PTR _pszA$[ebp]
  00066	52		 push	 edx
  00067	ff 15 00 00 00
	00		 call	 DWORD PTR __imp__CharUpperA@4

; 286  : 	wcscpy(psz, A2W(pszA));

  0006d	8b 45 f4	 mov	 eax, DWORD PTR _pszA$[ebp]
  00070	89 45 ec	 mov	 DWORD PTR __lpa$[ebp], eax
  00073	83 7d ec 00	 cmp	 DWORD PTR __lpa$[ebp], 0
  00077	75 09		 jne	 SHORT $L210244
  00079	c7 45 e0 00 00
	00 00		 mov	 DWORD PTR tv94[ebp], 0
  00080	eb 3b		 jmp	 SHORT $L210245
$L210244:
  00082	8b 4d ec	 mov	 ecx, DWORD PTR __lpa$[ebp]
  00085	51		 push	 ecx
  00086	ff 15 00 00 00
	00		 call	 DWORD PTR __imp__lstrlenA@4
  0008c	83 c0 01	 add	 eax, 1
  0008f	89 45 fc	 mov	 DWORD PTR __convert$[ebp], eax
  00092	8b 45 fc	 mov	 eax, DWORD PTR __convert$[ebp]
  00095	d1 e0		 shl	 eax, 1
  00097	83 c0 03	 add	 eax, 3
  0009a	83 e0 fc	 and	 eax, -4			; fffffffcH
  0009d	e8 00 00 00 00	 call	 __alloca_probe
  000a2	89 65 dc	 mov	 DWORD PTR tv90[ebp], esp
  000a5	8b 55 f0	 mov	 edx, DWORD PTR __acp$[ebp]
  000a8	52		 push	 edx
  000a9	8b 45 fc	 mov	 eax, DWORD PTR __convert$[ebp]
  000ac	50		 push	 eax
  000ad	8b 4d ec	 mov	 ecx, DWORD PTR __lpa$[ebp]
  000b0	51		 push	 ecx
  000b1	8b 55 dc	 mov	 edx, DWORD PTR tv90[ebp]
  000b4	52		 push	 edx
  000b5	e8 00 00 00 00	 call	 ?AtlA2WHelper@@YGPA_WPA_WPBDHI@Z ; AtlA2WHelper
  000ba	89 45 e0	 mov	 DWORD PTR tv94[ebp], eax
$L210245:
  000bd	8b 45 e0	 mov	 eax, DWORD PTR tv94[ebp]
  000c0	50		 push	 eax
  000c1	8b 4d 08	 mov	 ecx, DWORD PTR _psz$[ebp]
  000c4	51		 push	 ecx
  000c5	ff 15 00 00 00
	00		 call	 DWORD PTR __imp__wcscpy
  000cb	83 c4 08	 add	 esp, 8

; 287  : 
; 288  : 	return psz;

  000ce	8b 45 08	 mov	 eax, DWORD PTR _psz$[ebp]

; 289  : }

  000d1	8d 65 dc	 lea	 esp, DWORD PTR [ebp-36]
  000d4	8b e5		 mov	 esp, ebp
  000d6	5d		 pop	 ebp
  000d7	c2 04 00	 ret	 4
?CharUpperWFake@ATL@@YGPA_WPA_W@Z ENDP			; ATL::CharUpperWFake
_TEXT	ENDS
PUBLIC	?GetSafeHdc@CDC@@QBEPAUHDC__@@XZ		; CDC::GetSafeHdc
PUBLIC	?GetClientRect@CWnd@@QBEXPAUtagRECT@@@Z		; CWnd::GetClientRect
PUBLIC	?Width@CRect@@QBEHXZ				; CRect::Width
PUBLIC	?Height@CRect@@QBEHXZ				; CRect::Height
PUBLIC	?DrawIcon@CDC@@QAEHHHPAUHICON__@@@Z		; CDC::DrawIcon
PUBLIC	?SendMessageA@CWnd@@QAEJIIJ@Z			; CWnd::SendMessageA
PUBLIC	?IsIconic@CWnd@@QBEHXZ				; CWnd::IsIconic
EXTRN	?OnPaint@CDialog@@IAEXXZ:NEAR			; CDialog::OnPaint
EXTRN	??0CPaintDC@@QAE@PAVCWnd@@@Z:NEAR		; CPaintDC::CPaintDC
EXTRN	??1CPaintDC@@UAE@XZ:NEAR			; CPaintDC::~CPaintDC
EXTRN	__imp__GetSystemMetrics@4:NEAR
xdata$x	SEGMENT
$T210254 DD	0ffffffffH
	DD	FLAT:$L210249
$T210251 DD	019930520H
	DD	01H
	DD	FLAT:$T210254
	DD	2 DUP(00H)
	DD	2 DUP(00H)
; Function compile flags: /Odt
; File d:\boxgit\playbox\playbox\dev\prj\playbox\playboxdlg.cpp
xdata$x	ENDS
_TEXT	SEGMENT
_this$ = -144						; size = 4
_cyIcon$207765 = -140					; size = 4
_cxIcon$207764 = -136					; size = 4
_rect$207766 = -132					; size = 16
_x$207767 = -116					; size = 4
_y$207768 = -112					; size = 4
_dc$ = -108						; size = 84
__$ArrayPad$ = -20					; size = 4
_count$ = -16						; size = 4
__$EHRec$ = -12						; size = 12
__$ReturnAddr$ = 4					; size = 4
?OnPaint@CPlayBoxDlg@@IAEXXZ PROC NEAR			; CPlayBoxDlg::OnPaint
; _this$ = ecx

; 224  : {

  00be0	55		 push	 ebp
  00be1	8b ec		 mov	 ebp, esp
  00be3	6a ff		 push	 -1
  00be5	68 00 00 00 00	 push	 __ehhandler$?OnPaint@CPlayBoxDlg@@IAEXXZ
  00bea	64 a1 00 00 00
	00		 mov	 eax, DWORD PTR fs:__except_list
  00bf0	50		 push	 eax
  00bf1	64 89 25 00 00
	00 00		 mov	 DWORD PTR fs:__except_list, esp
  00bf8	81 ec 84 00 00
	00		 sub	 esp, 132		; 00000084H
  00bfe	a1 00 00 00 00	 mov	 eax, DWORD PTR ___security_cookie
  00c03	89 45 ec	 mov	 DWORD PTR __$ArrayPad$[ebp], eax
  00c06	89 8d 70 ff ff
	ff		 mov	 DWORD PTR _this$[ebp], ecx

; 225  : 	CPaintDC dc(this); // 

  00c0c	8b 85 70 ff ff
	ff		 mov	 eax, DWORD PTR _this$[ebp]
  00c12	50		 push	 eax
  00c13	8d 4d 94	 lea	 ecx, DWORD PTR _dc$[ebp]
  00c16	e8 00 00 00 00	 call	 ??0CPaintDC@@QAE@PAVCWnd@@@Z ; CPaintDC::CPaintDC
  00c1b	c7 45 fc 00 00
	00 00		 mov	 DWORD PTR __$EHRec$[ebp+8], 0

; 226  : 	if (IsIconic())

  00c22	8b 8d 70 ff ff
	ff		 mov	 ecx, DWORD PTR _this$[ebp]
  00c28	e8 00 00 00 00	 call	 ?IsIconic@CWnd@@QBEHXZ	; CWnd::IsIconic
  00c2d	85 c0		 test	 eax, eax
  00c2f	0f 84 a8 00 00
	00		 je	 $L207762

; 227  : 	{
; 228  : 		SendMessage(WM_ICONERASEBKGND, reinterpret_cast<WPARAM>(dc.GetSafeHdc()), 0);

  00c35	6a 00		 push	 0
  00c37	8d 4d 94	 lea	 ecx, DWORD PTR _dc$[ebp]
  00c3a	e8 00 00 00 00	 call	 ?GetSafeHdc@CDC@@QBEPAUHDC__@@XZ ; CDC::GetSafeHdc
  00c3f	50		 push	 eax
  00c40	6a 27		 push	 39			; 00000027H
  00c42	8b 8d 70 ff ff
	ff		 mov	 ecx, DWORD PTR _this$[ebp]
  00c48	e8 00 00 00 00	 call	 ?SendMessageA@CWnd@@QAEJIIJ@Z ; CWnd::SendMessageA

; 229  : 
; 230  : 		// 
; 231  : 		int cxIcon = GetSystemMetrics(SM_CXICON);

  00c4d	6a 0b		 push	 11			; 0000000bH
  00c4f	ff 15 00 00 00
	00		 call	 DWORD PTR __imp__GetSystemMetrics@4
  00c55	89 85 78 ff ff
	ff		 mov	 DWORD PTR _cxIcon$207764[ebp], eax

; 232  : 		int cyIcon = GetSystemMetrics(SM_CYICON);

  00c5b	6a 0c		 push	 12			; 0000000cH
  00c5d	ff 15 00 00 00
	00		 call	 DWORD PTR __imp__GetSystemMetrics@4
  00c63	89 85 74 ff ff
	ff		 mov	 DWORD PTR _cyIcon$207765[ebp], eax

; 233  : 		CRect rect;

  00c69	8d 8d 7c ff ff
	ff		 lea	 ecx, DWORD PTR _rect$207766[ebp]
  00c6f	e8 00 00 00 00	 call	 ??0CRect@@QAE@XZ	; CRect::CRect

; 234  : 		GetClientRect(&rect);

  00c74	8d 8d 7c ff ff
	ff		 lea	 ecx, DWORD PTR _rect$207766[ebp]
  00c7a	51		 push	 ecx
  00c7b	8b 8d 70 ff ff
	ff		 mov	 ecx, DWORD PTR _this$[ebp]
  00c81	e8 00 00 00 00	 call	 ?GetClientRect@CWnd@@QBEXPAUtagRECT@@@Z ; CWnd::GetClientRect

; 235  : 		int x = (rect.Width() - cxIcon + 1) / 2;

  00c86	8d 8d 7c ff ff
	ff		 lea	 ecx, DWORD PTR _rect$207766[ebp]
  00c8c	e8 00 00 00 00	 call	 ?Width@CRect@@QBEHXZ	; CRect::Width
  00c91	2b 85 78 ff ff
	ff		 sub	 eax, DWORD PTR _cxIcon$207764[ebp]
  00c97	83 c0 01	 add	 eax, 1
  00c9a	99		 cdq
  00c9b	2b c2		 sub	 eax, edx
  00c9d	d1 f8		 sar	 eax, 1
  00c9f	89 45 8c	 mov	 DWORD PTR _x$207767[ebp], eax

; 236  : 		int y = (rect.Height() - cyIcon + 1) / 2;

  00ca2	8d 8d 7c ff ff
	ff		 lea	 ecx, DWORD PTR _rect$207766[ebp]
  00ca8	e8 00 00 00 00	 call	 ?Height@CRect@@QBEHXZ	; CRect::Height
  00cad	2b 85 74 ff ff
	ff		 sub	 eax, DWORD PTR _cyIcon$207765[ebp]
  00cb3	83 c0 01	 add	 eax, 1
  00cb6	99		 cdq
  00cb7	2b c2		 sub	 eax, edx
  00cb9	d1 f8		 sar	 eax, 1
  00cbb	89 45 90	 mov	 DWORD PTR _y$207768[ebp], eax

; 237  : 
; 238  : 		// 
; 239  : 		dc.DrawIcon(x, y, m_hIcon);

  00cbe	8b 95 70 ff ff
	ff		 mov	 edx, DWORD PTR _this$[ebp]
  00cc4	8b 82 8c 00 00
	00		 mov	 eax, DWORD PTR [edx+140]
  00cca	50		 push	 eax
  00ccb	8b 4d 90	 mov	 ecx, DWORD PTR _y$207768[ebp]
  00cce	51		 push	 ecx
  00ccf	8b 55 8c	 mov	 edx, DWORD PTR _x$207767[ebp]
  00cd2	52		 push	 edx
  00cd3	8d 4d 94	 lea	 ecx, DWORD PTR _dc$[ebp]
  00cd6	e8 00 00 00 00	 call	 ?DrawIcon@CDC@@QAEHHHPAUHICON__@@@Z ; CDC::DrawIcon

; 240  : 	}
; 241  : 	else

  00cdb	eb 0b		 jmp	 SHORT $L207769
$L207762:

; 242  : 	{
; 243  : 		CDialog::OnPaint();

  00cdd	8b 8d 70 ff ff
	ff		 mov	 ecx, DWORD PTR _this$[ebp]
  00ce3	e8 00 00 00 00	 call	 ?OnPaint@CDialog@@IAEXXZ ; CDialog::OnPaint
$L207769:

; 244  : 	}
; 245  : 	DWORD count = ::GetTickCount();

  00ce8	ff 15 00 00 00
	00		 call	 DWORD PTR __imp__GetTickCount@0
  00cee	89 45 f0	 mov	 DWORD PTR _count$[ebp], eax

; 246  : 	m_pUIManager->UIOnPaint( &dc );

  00cf1	8d 45 94	 lea	 eax, DWORD PTR _dc$[ebp]
  00cf4	50		 push	 eax
  00cf5	8b 8d 70 ff ff
	ff		 mov	 ecx, DWORD PTR _this$[ebp]
  00cfb	8b 91 c8 00 00
	00		 mov	 edx, DWORD PTR [ecx+200]
  00d01	8b 85 70 ff ff
	ff		 mov	 eax, DWORD PTR _this$[ebp]
  00d07	8b 88 c8 00 00
	00		 mov	 ecx, DWORD PTR [eax+200]
  00d0d	8b 12		 mov	 edx, DWORD PTR [edx]
  00d0f	ff 52 30	 call	 DWORD PTR [edx+48]

; 247  : }

  00d12	c7 45 fc ff ff
	ff ff		 mov	 DWORD PTR __$EHRec$[ebp+8], -1
  00d19	8d 4d 94	 lea	 ecx, DWORD PTR _dc$[ebp]
  00d1c	e8 00 00 00 00	 call	 ??1CPaintDC@@UAE@XZ	; CPaintDC::~CPaintDC
  00d21	8b 4d f4	 mov	 ecx, DWORD PTR __$EHRec$[ebp]
  00d24	64 89 0d 00 00
	00 00		 mov	 DWORD PTR fs:__except_list, ecx
  00d2b	8b 4d ec	 mov	 ecx, DWORD PTR __$ArrayPad$[ebp]
  00d2e	e8 00 00 00 00	 call	 @__security_check_cookie@4
  00d33	8b e5		 mov	 esp, ebp
  00d35	5d		 pop	 ebp
  00d36	c3		 ret	 0
_TEXT	ENDS
text$x	SEGMENT
$L210249:
  0013b	8d 4d 94	 lea	 ecx, DWORD PTR _dc$[ebp]
  0013e	e9 00 00 00 00	 jmp	 ??1CPaintDC@@UAE@XZ	; CPaintDC::~CPaintDC
__ehhandler$?OnPaint@CPlayBoxDlg@@IAEXXZ:
  00143	b8 00 00 00 00	 mov	 eax, OFFSET FLAT:$T210251
  00148	e9 00 00 00 00	 jmp	 ___CxxFrameHandler
text$x	ENDS
?OnPaint@CPlayBoxDlg@@IAEXXZ ENDP			; CPlayBoxDlg::OnPaint
PUBLIC	?OnDestroy@CPlayBoxDlg@@IAEXXZ			; CPlayBoxDlg::OnDestroy
EXTRN	?DetachConfigMessage@AfxUserConfig@@QAEXABV?$basic_string@DU?$char_traits@D@std@@V?$allocator@D@2@@std@@PAVAfxUserConfig_Observer@@@Z:NEAR ; AfxUserConfig::DetachConfigMessage
EXTRN	?OnDestroy@CWnd@@IAEXXZ:NEAR			; CWnd::OnDestroy
xdata$x	SEGMENT
$T210263 DD	0ffffffffH
	DD	FLAT:$L210259
$T210261 DD	019930520H
	DD	01H
	DD	FLAT:$T210263
	DD	2 DUP(00H)
	DD	2 DUP(00H)
; Function compile flags: /Odt
xdata$x	ENDS
_TEXT	SEGMENT
tv68 = -48						; size = 4
_this$ = -44						; size = 4
$T210258 = -40						; size = 28
__$EHRec$ = -12						; size = 12
?OnDestroy@CPlayBoxDlg@@IAEXXZ PROC NEAR		; CPlayBoxDlg::OnDestroy
; _this$ = ecx

; 250  : {

  00d40	55		 push	 ebp
  00d41	8b ec		 mov	 ebp, esp
  00d43	6a ff		 push	 -1
  00d45	68 00 00 00 00	 push	 __ehhandler$?OnDestroy@CPlayBoxDlg@@IAEXXZ
  00d4a	64 a1 00 00 00
	00		 mov	 eax, DWORD PTR fs:__except_list
  00d50	50		 push	 eax
  00d51	64 89 25 00 00
	00 00		 mov	 DWORD PTR fs:__except_list, esp
  00d58	83 ec 24	 sub	 esp, 36			; 00000024H
  00d5b	89 4d d4	 mov	 DWORD PTR _this$[ebp], ecx

; 251  : 	AfxGetUserConfig()->DetachConfigMessage( CONF_LAYOUT_MODULE_NAME,this );

  00d5e	83 7d d4 00	 cmp	 DWORD PTR _this$[ebp], 0
  00d62	74 0b		 je	 SHORT $L210256
  00d64	8b 45 d4	 mov	 eax, DWORD PTR _this$[ebp]
  00d67	83 c0 74	 add	 eax, 116		; 00000074H
  00d6a	89 45 d0	 mov	 DWORD PTR tv68[ebp], eax
  00d6d	eb 07		 jmp	 SHORT $L210257
$L210256:
  00d6f	c7 45 d0 00 00
	00 00		 mov	 DWORD PTR tv68[ebp], 0
$L210257:
  00d76	8b 0d 00 00 00
	00		 mov	 ecx, DWORD PTR _CONF_LAYOUT_MODULE_NAME
  00d7c	51		 push	 ecx
  00d7d	8d 4d d8	 lea	 ecx, DWORD PTR $T210258[ebp]
  00d80	ff 15 00 00 00
	00		 call	 DWORD PTR __imp_??0?$basic_string@DU?$char_traits@D@std@@V?$allocator@D@2@@std@@QAE@PBD@Z
  00d86	c7 45 fc 00 00
	00 00		 mov	 DWORD PTR __$EHRec$[ebp+8], 0
  00d8d	8b 55 d0	 mov	 edx, DWORD PTR tv68[ebp]
  00d90	52		 push	 edx
  00d91	8d 45 d8	 lea	 eax, DWORD PTR $T210258[ebp]
  00d94	50		 push	 eax
  00d95	e8 00 00 00 00	 call	 ?AfxGetUserConfig@@YAPAVAfxUserConfig@@XZ ; AfxGetUserConfig
  00d9a	8b c8		 mov	 ecx, eax
  00d9c	e8 00 00 00 00	 call	 ?DetachConfigMessage@AfxUserConfig@@QAEXABV?$basic_string@DU?$char_traits@D@std@@V?$allocator@D@2@@std@@PAVAfxUserConfig_Observer@@@Z ; AfxUserConfig::DetachConfigMessage
  00da1	c7 45 fc ff ff
	ff ff		 mov	 DWORD PTR __$EHRec$[ebp+8], -1
  00da8	8d 4d d8	 lea	 ecx, DWORD PTR $T210258[ebp]
  00dab	ff 15 00 00 00
	00		 call	 DWORD PTR __imp_??1?$basic_string@DU?$char_traits@D@std@@V?$allocator@D@2@@std@@QAE@XZ

; 252  : 	__super::OnDestroy();

  00db1	8b 4d d4	 mov	 ecx, DWORD PTR _this$[ebp]
  00db4	e8 00 00 00 00	 call	 ?OnDestroy@CWnd@@IAEXXZ	; CWnd::OnDestroy

; 253  : 	EndDialog(IDOK);

  00db9	6a 01		 push	 1
  00dbb	8b 4d d4	 mov	 ecx, DWORD PTR _this$[ebp]
  00dbe	e8 00 00 00 00	 call	 ?EndDialog@CDialog@@QAEXH@Z ; CDialog::EndDialog

; 254  : }

  00dc3	8b 4d f4	 mov	 ecx, DWORD PTR __$EHRec$[ebp]
  00dc6	64 89 0d 00 00
	00 00		 mov	 DWORD PTR fs:__except_list, ecx
  00dcd	8b e5		 mov	 esp, ebp
  00dcf	5d		 pop	 ebp
  00dd0	c3		 ret	 0
_TEXT	ENDS
text$x	SEGMENT
$L210259:
  0014d	8d 4d d8	 lea	 ecx, DWORD PTR $T210258[ebp]
  00150	ff 25 00 00 00
	00		 jmp	 DWORD PTR __imp_??1?$basic_string@DU?$char_traits@D@std@@V?$allocator@D@2@@std@@QAE@XZ
__ehhandler$?OnDestroy@CPlayBoxDlg@@IAEXXZ:
  00156	b8 00 00 00 00	 mov	 eax, OFFSET FLAT:$T210261
  0015b	e9 00 00 00 00	 jmp	 ___CxxFrameHandler
text$x	ENDS
?OnDestroy@CPlayBoxDlg@@IAEXXZ ENDP			; CPlayBoxDlg::OnDestroy
; Function compile flags: /Odt
_TEXT	SEGMENT
_this$ = -4						; size = 4
?OnQueryDragIcon@CPlayBoxDlg@@IAEPAUHICON__@@XZ PROC NEAR ; CPlayBoxDlg::OnQueryDragIcon
; _this$ = ecx

; 258  : {

  00de0	55		 push	 ebp
  00de1	8b ec		 mov	 ebp, esp
  00de3	51		 push	 ecx
  00de4	89 4d fc	 mov	 DWORD PTR _this$[ebp], ecx

; 259  : 	return static_cast<HCURSOR>(m_hIcon);

  00de7	8b 45 fc	 mov	 eax, DWORD PTR _this$[ebp]
  00dea	8b 80 8c 00 00
	00		 mov	 eax, DWORD PTR [eax+140]

; 260  : }

  00df0	8b e5		 mov	 esp, ebp
  00df2	5d		 pop	 ebp
  00df3	c3		 ret	 0
?OnQueryDragIcon@CPlayBoxDlg@@IAEPAUHICON__@@XZ ENDP	; CPlayBoxDlg::OnQueryDragIcon
; Function compile flags: /Odt
_this$ = -4						; size = 4
_pDC$ = 8						; size = 4
?OnEraseBkgnd@CPlayBoxDlg@@IAEHPAVCDC@@@Z PROC NEAR	; CPlayBoxDlg::OnEraseBkgnd
; _this$ = ecx

; 262  : {

  00e00	55		 push	 ebp
  00e01	8b ec		 mov	 ebp, esp
  00e03	51		 push	 ecx
  00e04	89 4d fc	 mov	 DWORD PTR _this$[ebp], ecx

; 263  : 	return TRUE;

  00e07	b8 01 00 00 00	 mov	 eax, 1

; 264  : }

  00e0c	8b e5		 mov	 esp, ebp
  00e0e	5d		 pop	 ebp
  00e0f	c2 04 00	 ret	 4
?OnEraseBkgnd@CPlayBoxDlg@@IAEHPAVCDC@@@Z ENDP		; CPlayBoxDlg::OnEraseBkgnd
_TEXT	ENDS
PUBLIC	?DrawMoveFrame@CPlayBoxDlg@@AAEXVCRect@@@Z	; CPlayBoxDlg::DrawMoveFrame
PUBLIC	?GetCapture@CWnd@@SGPAV1@XZ			; CWnd::GetCapture
PUBLIC	??BCRect@@QAEPAUtagRECT@@XZ			; CRect::operator tagRECT *
PUBLIC	?MoveWindow@CWnd@@QAEXPBUtagRECT@@H@Z		; CWnd::MoveWindow
EXTRN	__imp__InvalidateRect@12:NEAR
EXTRN	__imp__GetDesktopWindow@0:NEAR
EXTRN	__imp__ReleaseCapture@0:NEAR
; Function compile flags: /Odt
_TEXT	SEGMENT
_this$ = -4						; size = 4
_nFlags$ = 8						; size = 4
_point$ = 12						; size = 8
?OnLButtonUp@CPlayBoxDlg@@IAEXIVCPoint@@@Z PROC NEAR	; CPlayBoxDlg::OnLButtonUp
; _this$ = ecx

; 267  : {

  00e20	55		 push	 ebp
  00e21	8b ec		 mov	 ebp, esp
  00e23	51		 push	 ecx
  00e24	89 4d fc	 mov	 DWORD PTR _this$[ebp], ecx

; 268  : 	if( m_bIsResizing )

  00e27	8b 45 fc	 mov	 eax, DWORD PTR _this$[ebp]
  00e2a	83 b8 a8 00 00
	00 00		 cmp	 DWORD PTR [eax+168], 0
  00e31	74 5e		 je	 SHORT $L207788

; 269  : 	{
; 270  : 		DrawMoveFrame(m_rcMain);

  00e33	8b 4d fc	 mov	 ecx, DWORD PTR _this$[ebp]
  00e36	81 c1 94 00 00
	00		 add	 ecx, 148		; 00000094H
  00e3c	83 ec 10	 sub	 esp, 16			; 00000010H
  00e3f	8b d4		 mov	 edx, esp
  00e41	8b 01		 mov	 eax, DWORD PTR [ecx]
  00e43	89 02		 mov	 DWORD PTR [edx], eax
  00e45	8b 41 04	 mov	 eax, DWORD PTR [ecx+4]
  00e48	89 42 04	 mov	 DWORD PTR [edx+4], eax
  00e4b	8b 41 08	 mov	 eax, DWORD PTR [ecx+8]
  00e4e	89 42 08	 mov	 DWORD PTR [edx+8], eax
  00e51	8b 49 0c	 mov	 ecx, DWORD PTR [ecx+12]
  00e54	89 4a 0c	 mov	 DWORD PTR [edx+12], ecx
  00e57	8b 4d fc	 mov	 ecx, DWORD PTR _this$[ebp]
  00e5a	e8 00 00 00 00	 call	 ?DrawMoveFrame@CPlayBoxDlg@@AAEXVCRect@@@Z ; CPlayBoxDlg::DrawMoveFrame

; 271  : 		MoveWindow( m_rcMain,true );

  00e5f	6a 01		 push	 1
  00e61	8b 4d fc	 mov	 ecx, DWORD PTR _this$[ebp]
  00e64	81 c1 94 00 00
	00		 add	 ecx, 148		; 00000094H
  00e6a	e8 00 00 00 00	 call	 ??BCRect@@QAEPAUtagRECT@@XZ ; CRect::operator tagRECT *
  00e6f	50		 push	 eax
  00e70	8b 4d fc	 mov	 ecx, DWORD PTR _this$[ebp]
  00e73	e8 00 00 00 00	 call	 ?MoveWindow@CWnd@@QAEXPBUtagRECT@@H@Z ; CWnd::MoveWindow

; 272  : 		::InvalidateRect(::GetDesktopWindow(), &m_rcMain, true);

  00e78	6a 01		 push	 1
  00e7a	8b 55 fc	 mov	 edx, DWORD PTR _this$[ebp]
  00e7d	81 c2 94 00 00
	00		 add	 edx, 148		; 00000094H
  00e83	52		 push	 edx
  00e84	ff 15 00 00 00
	00		 call	 DWORD PTR __imp__GetDesktopWindow@0
  00e8a	50		 push	 eax
  00e8b	ff 15 00 00 00
	00		 call	 DWORD PTR __imp__InvalidateRect@12
$L207788:

; 273  : 	}
; 274  : 	if( GetCapture() == this )

  00e91	e8 00 00 00 00	 call	 ?GetCapture@CWnd@@SGPAV1@XZ ; CWnd::GetCapture
  00e96	3b 45 fc	 cmp	 eax, DWORD PTR _this$[ebp]
  00e99	75 06		 jne	 SHORT $L207789

; 275  : 	{
; 276  : 		ReleaseCapture();

  00e9b	ff 15 00 00 00
	00		 call	 DWORD PTR __imp__ReleaseCapture@0
$L207789:

; 277  : 	}	
; 278  : 	m_bIsResizing = FALSE;

  00ea1	8b 45 fc	 mov	 eax, DWORD PTR _this$[ebp]
  00ea4	c7 80 a8 00 00
	00 00 00 00 00	 mov	 DWORD PTR [eax+168], 0

; 279  : 	return;
; 280  : }

  00eae	8b e5		 mov	 esp, ebp
  00eb0	5d		 pop	 ebp
  00eb1	c2 0c 00	 ret	 12			; 0000000cH
?OnLButtonUp@CPlayBoxDlg@@IAEXIVCPoint@@@Z ENDP		; CPlayBoxDlg::OnLButtonUp
_TEXT	ENDS
PUBLIC	?GetWindowRect@CWnd@@QBEXPAUtagRECT@@@Z		; CWnd::GetWindowRect
PUBLIC	?ClientToScreen@CWnd@@QBEXPAUtagPOINT@@@Z	; CWnd::ClientToScreen
PUBLIC	?_needChangeCursor@CPlayBoxDlg@@AAEHABVCPoint@@@Z ; CPlayBoxDlg::_needChangeCursor
PUBLIC	?SetCapture@CWnd@@QAEPAV1@XZ			; CWnd::SetCapture
PUBLIC	?OnLButtonDown@CWnd@@IAEXIVCPoint@@@Z		; CWnd::OnLButtonDown
; Function compile flags: /Odt
_TEXT	SEGMENT
_this$ = -4						; size = 4
_nFlags$ = 8						; size = 4
_point$ = 12						; size = 8
?OnLButtonDown@CPlayBoxDlg@@IAEXIVCPoint@@@Z PROC NEAR	; CPlayBoxDlg::OnLButtonDown
; _this$ = ecx

; 283  : {

  00ec0	55		 push	 ebp
  00ec1	8b ec		 mov	 ebp, esp
  00ec3	51		 push	 ecx
  00ec4	89 4d fc	 mov	 DWORD PTR _this$[ebp], ecx

; 284  : 	m_iDirection = 0;

  00ec7	8b 45 fc	 mov	 eax, DWORD PTR _this$[ebp]
  00eca	c7 80 a4 00 00
	00 00 00 00 00	 mov	 DWORD PTR [eax+164], 0

; 285  : 
; 286  : 	if( _needChangeCursor(point))

  00ed4	8d 4d 0c	 lea	 ecx, DWORD PTR _point$[ebp]
  00ed7	51		 push	 ecx
  00ed8	8b 4d fc	 mov	 ecx, DWORD PTR _this$[ebp]
  00edb	e8 00 00 00 00	 call	 ?_needChangeCursor@CPlayBoxDlg@@AAEHABVCPoint@@@Z ; CPlayBoxDlg::_needChangeCursor
  00ee0	85 c0		 test	 eax, eax
  00ee2	0f 84 9c 00 00
	00		 je	 $L207795

; 287  : 	{
; 288  : 		m_bChangeCursor  = true;

  00ee8	8b 55 fc	 mov	 edx, DWORD PTR _this$[ebp]
  00eeb	c6 82 c5 00 00
	00 01		 mov	 BYTE PTR [edx+197], 1

; 289  : 		SetCapture();		

  00ef2	8b 4d fc	 mov	 ecx, DWORD PTR _this$[ebp]
  00ef5	e8 00 00 00 00	 call	 ?SetCapture@CWnd@@QAEPAV1@XZ ; CWnd::SetCapture

; 290  : 		m_bIsResizing = TRUE;

  00efa	8b 45 fc	 mov	 eax, DWORD PTR _this$[ebp]
  00efd	c7 80 a8 00 00
	00 01 00 00 00	 mov	 DWORD PTR [eax+168], 1

; 291  : 		m_ptStartResizing = point;

  00f07	8b 4d fc	 mov	 ecx, DWORD PTR _this$[ebp]
  00f0a	8b 55 0c	 mov	 edx, DWORD PTR _point$[ebp]
  00f0d	89 91 ac 00 00
	00		 mov	 DWORD PTR [ecx+172], edx
  00f13	8b 45 10	 mov	 eax, DWORD PTR _point$[ebp+4]
  00f16	89 81 b0 00 00
	00		 mov	 DWORD PTR [ecx+176], eax

; 292  : 		ClientToScreen( &m_ptStartResizing );

  00f1c	8b 4d fc	 mov	 ecx, DWORD PTR _this$[ebp]
  00f1f	81 c1 ac 00 00
	00		 add	 ecx, 172		; 000000acH
  00f25	51		 push	 ecx
  00f26	8b 4d fc	 mov	 ecx, DWORD PTR _this$[ebp]
  00f29	e8 00 00 00 00	 call	 ?ClientToScreen@CWnd@@QBEXPAUtagPOINT@@@Z ; CWnd::ClientToScreen

; 293  : 		GetWindowRect( m_rectStarResizing );

  00f2e	8b 4d fc	 mov	 ecx, DWORD PTR _this$[ebp]
  00f31	81 c1 b4 00 00
	00		 add	 ecx, 180		; 000000b4H
  00f37	e8 00 00 00 00	 call	 ??BCRect@@QAEPAUtagRECT@@XZ ; CRect::operator tagRECT *
  00f3c	50		 push	 eax
  00f3d	8b 4d fc	 mov	 ecx, DWORD PTR _this$[ebp]
  00f40	e8 00 00 00 00	 call	 ?GetWindowRect@CWnd@@QBEXPAUtagRECT@@@Z ; CWnd::GetWindowRect

; 294  : 		GetWindowRect(&m_rcMain);

  00f45	8b 55 fc	 mov	 edx, DWORD PTR _this$[ebp]
  00f48	81 c2 94 00 00
	00		 add	 edx, 148		; 00000094H
  00f4e	52		 push	 edx
  00f4f	8b 4d fc	 mov	 ecx, DWORD PTR _this$[ebp]
  00f52	e8 00 00 00 00	 call	 ?GetWindowRect@CWnd@@QBEXPAUtagRECT@@@Z ; CWnd::GetWindowRect

; 295  : 		DrawMoveFrame(m_rcMain);

  00f57	8b 45 fc	 mov	 eax, DWORD PTR _this$[ebp]
  00f5a	05 94 00 00 00	 add	 eax, 148		; 00000094H
  00f5f	83 ec 10	 sub	 esp, 16			; 00000010H
  00f62	8b cc		 mov	 ecx, esp
  00f64	8b 10		 mov	 edx, DWORD PTR [eax]
  00f66	89 11		 mov	 DWORD PTR [ecx], edx
  00f68	8b 50 04	 mov	 edx, DWORD PTR [eax+4]
  00f6b	89 51 04	 mov	 DWORD PTR [ecx+4], edx
  00f6e	8b 50 08	 mov	 edx, DWORD PTR [eax+8]
  00f71	89 51 08	 mov	 DWORD PTR [ecx+8], edx
  00f74	8b 40 0c	 mov	 eax, DWORD PTR [eax+12]
  00f77	89 41 0c	 mov	 DWORD PTR [ecx+12], eax
  00f7a	8b 4d fc	 mov	 ecx, DWORD PTR _this$[ebp]
  00f7d	e8 00 00 00 00	 call	 ?DrawMoveFrame@CPlayBoxDlg@@AAEXVCRect@@@Z ; CPlayBoxDlg::DrawMoveFrame

; 296  : 		return ;

  00f82	eb 34		 jmp	 SHORT $L207794
$L207795:

; 297  : 	}		
; 298  : 	
; 299  : 	m_bIsResizing = FALSE;

  00f84	8b 4d fc	 mov	 ecx, DWORD PTR _this$[ebp]
  00f87	c7 81 a8 00 00
	00 00 00 00 00	 mov	 DWORD PTR [ecx+168], 0

; 300  : 
; 301  : 	PostMessage( WM_NCLBUTTONDOWN, HTCAPTION, (LPARAM)&point );	

  00f91	8d 55 0c	 lea	 edx, DWORD PTR _point$[ebp]
  00f94	52		 push	 edx
  00f95	6a 02		 push	 2
  00f97	68 a1 00 00 00	 push	 161			; 000000a1H
  00f9c	8b 4d fc	 mov	 ecx, DWORD PTR _this$[ebp]
  00f9f	e8 00 00 00 00	 call	 ?PostMessageA@CWnd@@QAEHIIJ@Z ; CWnd::PostMessageA

; 302  : 	CDialog::OnLButtonDown(nFlags, point);

  00fa4	8b 45 10	 mov	 eax, DWORD PTR _point$[ebp+4]
  00fa7	50		 push	 eax
  00fa8	8b 4d 0c	 mov	 ecx, DWORD PTR _point$[ebp]
  00fab	51		 push	 ecx
  00fac	8b 55 08	 mov	 edx, DWORD PTR _nFlags$[ebp]
  00faf	52		 push	 edx
  00fb0	8b 4d fc	 mov	 ecx, DWORD PTR _this$[ebp]
  00fb3	e8 00 00 00 00	 call	 ?OnLButtonDown@CWnd@@IAEXIVCPoint@@@Z ; CWnd::OnLButtonDown
$L207794:

; 303  : }

  00fb8	8b e5		 mov	 esp, ebp
  00fba	5d		 pop	 ebp
  00fbb	c2 0c 00	 ret	 12			; 0000000cH
?OnLButtonDown@CPlayBoxDlg@@IAEXIVCPoint@@@Z ENDP	; CPlayBoxDlg::OnLButtonDown
_TEXT	ENDS
PUBLIC	?OnMouseMove@CWnd@@IAEXIVCPoint@@@Z		; CWnd::OnMouseMove
EXTRN	__imp__SetCursor@4:NEAR
EXTRN	__imp__LoadCursorA@8:NEAR
; Function compile flags: /Odt
_TEXT	SEGMENT
_this$ = -40						; size = 4
_diff$207812 = -36					; size = 8
_tmpPT$207811 = -28					; size = 8
_newRect$207813 = -20					; size = 16
_m_hCursor$207805 = -4					; size = 4
_nFlags$ = 8						; size = 4
_point$ = 12						; size = 8
?OnMouseMove@CPlayBoxDlg@@IAEXIVCPoint@@@Z PROC NEAR	; CPlayBoxDlg::OnMouseMove
; _this$ = ecx

; 306  : {

  00fc0	55		 push	 ebp
  00fc1	8b ec		 mov	 ebp, esp
  00fc3	83 ec 28	 sub	 esp, 40			; 00000028H
  00fc6	89 4d d8	 mov	 DWORD PTR _this$[ebp], ecx

; 307  : 	if( !m_bIsResizing )

  00fc9	8b 45 d8	 mov	 eax, DWORD PTR _this$[ebp]
  00fcc	83 b8 a8 00 00
	00 00		 cmp	 DWORD PTR [eax+168], 0
  00fd3	75 4e		 jne	 SHORT $L207802

; 308  : 	{
; 309  : 		if( !_needChangeCursor( point ) )

  00fd5	8d 4d 0c	 lea	 ecx, DWORD PTR _point$[ebp]
  00fd8	51		 push	 ecx
  00fd9	8b 4d d8	 mov	 ecx, DWORD PTR _this$[ebp]
  00fdc	e8 00 00 00 00	 call	 ?_needChangeCursor@CPlayBoxDlg@@AAEHABVCPoint@@@Z ; CPlayBoxDlg::_needChangeCursor
  00fe1	85 c0		 test	 eax, eax
  00fe3	75 34		 jne	 SHORT $L207803

; 310  : 		{
; 311  : 			if( m_bChangeCursor )

  00fe5	8b 55 d8	 mov	 edx, DWORD PTR _this$[ebp]
  00fe8	0f b6 82 c5 00
	00 00		 movzx	 eax, BYTE PTR [edx+197]
  00fef	85 c0		 test	 eax, eax
  00ff1	74 24		 je	 SHORT $L207804

; 312  : 			{
; 313  : 				HCURSOR  m_hCursor = ::LoadCursor(NULL, IDC_ARROW);			

  00ff3	68 00 7f 00 00	 push	 32512			; 00007f00H
  00ff8	6a 00		 push	 0
  00ffa	ff 15 00 00 00
	00		 call	 DWORD PTR __imp__LoadCursorA@8
  01000	89 45 fc	 mov	 DWORD PTR _m_hCursor$207805[ebp], eax

; 314  : 				::SetCursor(m_hCursor);			

  01003	8b 4d fc	 mov	 ecx, DWORD PTR _m_hCursor$207805[ebp]
  01006	51		 push	 ecx
  01007	ff 15 00 00 00
	00		 call	 DWORD PTR __imp__SetCursor@4

; 315  : 				m_bChangeCursor = false;

  0100d	8b 55 d8	 mov	 edx, DWORD PTR _this$[ebp]
  01010	c6 82 c5 00 00
	00 00		 mov	 BYTE PTR [edx+197], 0
$L207804:

; 316  : 			}
; 317  : 		}
; 318  : 		else

  01017	eb 0a		 jmp	 SHORT $L207802
$L207803:

; 319  : 		{
; 320  : 			m_bChangeCursor = true;

  01019	8b 45 d8	 mov	 eax, DWORD PTR _this$[ebp]
  0101c	c6 80 c5 00 00
	00 01		 mov	 BYTE PTR [eax+197], 1
$L207802:

; 321  : 		}
; 322  : 	}
; 323  : 
; 324  : 	if( nFlags & MK_LBUTTON && m_bIsResizing )//

  01023	8b 4d 08	 mov	 ecx, DWORD PTR _nFlags$[ebp]
  01026	83 e1 01	 and	 ecx, 1
  01029	0f 84 3c 03 00
	00		 je	 $L207810
  0102f	8b 55 d8	 mov	 edx, DWORD PTR _this$[ebp]
  01032	83 ba a8 00 00
	00 00		 cmp	 DWORD PTR [edx+168], 0
  01039	0f 84 2c 03 00
	00		 je	 $L207810

; 325  : 	{
; 326  : 		CPoint tmpPT = point;

  0103f	8b 45 0c	 mov	 eax, DWORD PTR _point$[ebp]
  01042	89 45 e4	 mov	 DWORD PTR _tmpPT$207811[ebp], eax
  01045	8b 4d 10	 mov	 ecx, DWORD PTR _point$[ebp+4]
  01048	89 4d e8	 mov	 DWORD PTR _tmpPT$207811[ebp+4], ecx

; 327  : 		ClientToScreen(&tmpPT);

  0104b	8d 55 e4	 lea	 edx, DWORD PTR _tmpPT$207811[ebp]
  0104e	52		 push	 edx
  0104f	8b 4d d8	 mov	 ecx, DWORD PTR _this$[ebp]
  01052	e8 00 00 00 00	 call	 ?ClientToScreen@CWnd@@QBEXPAUtagPOINT@@@Z ; CWnd::ClientToScreen

; 328  : 		//Pt    
; 329  : 		CPoint diff;

  01057	8d 4d dc	 lea	 ecx, DWORD PTR _diff$207812[ebp]
  0105a	e8 00 00 00 00	 call	 ??0CPoint@@QAE@XZ	; CPoint::CPoint

; 330  : 		diff.x = tmpPT.x - m_ptStartResizing.x;

  0105f	8b 45 d8	 mov	 eax, DWORD PTR _this$[ebp]
  01062	8b 4d e4	 mov	 ecx, DWORD PTR _tmpPT$207811[ebp]
  01065	2b 88 ac 00 00
	00		 sub	 ecx, DWORD PTR [eax+172]
  0106b	89 4d dc	 mov	 DWORD PTR _diff$207812[ebp], ecx

; 331  : 		diff.y = tmpPT.y - m_ptStartResizing.y;

  0106e	8b 55 d8	 mov	 edx, DWORD PTR _this$[ebp]
  01071	8b 45 e8	 mov	 eax, DWORD PTR _tmpPT$207811[ebp+4]
  01074	2b 82 b0 00 00
	00		 sub	 eax, DWORD PTR [edx+176]
  0107a	89 45 e0	 mov	 DWORD PTR _diff$207812[ebp+4], eax

; 332  : 
; 333  : 		CRect newRect;

  0107d	8d 4d ec	 lea	 ecx, DWORD PTR _newRect$207813[ebp]
  01080	e8 00 00 00 00	 call	 ??0CRect@@QAE@XZ	; CRect::CRect

; 334  : 
; 335  : 		if( m_iDirection & DIRECTION_LEFT )

  01085	8b 4d d8	 mov	 ecx, DWORD PTR _this$[ebp]
  01088	8b 91 a4 00 00
	00		 mov	 edx, DWORD PTR [ecx+164]
  0108e	83 e2 01	 and	 edx, 1
  01091	74 68		 je	 SHORT $L207814

; 336  : 		{
; 337  : 			newRect.left = m_rectStarResizing.left + diff.x;

  01093	8b 45 d8	 mov	 eax, DWORD PTR _this$[ebp]
  01096	8b 88 b4 00 00
	00		 mov	 ecx, DWORD PTR [eax+180]
  0109c	03 4d dc	 add	 ecx, DWORD PTR _diff$207812[ebp]
  0109f	89 4d ec	 mov	 DWORD PTR _newRect$207813[ebp], ecx

; 338  : 			newRect.right = m_rectStarResizing.right;

  010a2	8b 55 d8	 mov	 edx, DWORD PTR _this$[ebp]
  010a5	8b 82 bc 00 00
	00		 mov	 eax, DWORD PTR [edx+188]
  010ab	89 45 f4	 mov	 DWORD PTR _newRect$207813[ebp+8], eax

; 339  : 			newRect.bottom = m_rectStarResizing.bottom;

  010ae	8b 4d d8	 mov	 ecx, DWORD PTR _this$[ebp]
  010b1	8b 91 c0 00 00
	00		 mov	 edx, DWORD PTR [ecx+192]
  010b7	89 55 f8	 mov	 DWORD PTR _newRect$207813[ebp+12], edx

; 340  : 			newRect.top = m_rectStarResizing.top;

  010ba	8b 45 d8	 mov	 eax, DWORD PTR _this$[ebp]
  010bd	8b 88 b8 00 00
	00		 mov	 ecx, DWORD PTR [eax+184]
  010c3	89 4d f0	 mov	 DWORD PTR _newRect$207813[ebp+4], ecx

; 341  : 
; 342  : 			if( m_iDirection & DIRECTION_TOP )

  010c6	8b 55 d8	 mov	 edx, DWORD PTR _this$[ebp]
  010c9	8b 82 a4 00 00
	00		 mov	 eax, DWORD PTR [edx+164]
  010cf	83 e0 04	 and	 eax, 4
  010d2	74 0b		 je	 SHORT $L207815

; 343  : 			{
; 344  : 				newRect.top += diff.y;

  010d4	8b 4d f0	 mov	 ecx, DWORD PTR _newRect$207813[ebp+4]
  010d7	03 4d e0	 add	 ecx, DWORD PTR _diff$207812[ebp+4]
  010da	89 4d f0	 mov	 DWORD PTR _newRect$207813[ebp+4], ecx

; 345  : 			}
; 346  : 			else if( m_iDirection & DIRECTION_BOTTOM )

  010dd	eb 17		 jmp	 SHORT $L207816
$L207815:
  010df	8b 55 d8	 mov	 edx, DWORD PTR _this$[ebp]
  010e2	8b 82 a4 00 00
	00		 mov	 eax, DWORD PTR [edx+164]
  010e8	83 e0 08	 and	 eax, 8
  010eb	74 09		 je	 SHORT $L207816

; 347  : 			{
; 348  : 				newRect.bottom += diff.y;

  010ed	8b 4d f8	 mov	 ecx, DWORD PTR _newRect$207813[ebp+12]
  010f0	03 4d e0	 add	 ecx, DWORD PTR _diff$207812[ebp+4]
  010f3	89 4d f8	 mov	 DWORD PTR _newRect$207813[ebp+12], ecx
$L207816:

; 349  : 			}				
; 350  : 		}
; 351  : 		else if( m_iDirection & DIRECTION_RIGHT )

  010f6	e9 78 01 00 00	 jmp	 $L207818
$L207814:
  010fb	8b 55 d8	 mov	 edx, DWORD PTR _this$[ebp]
  010fe	8b 82 a4 00 00
	00		 mov	 eax, DWORD PTR [edx+164]
  01104	83 e0 02	 and	 eax, 2
  01107	74 68		 je	 SHORT $L207819

; 352  : 		{		
; 353  : 			newRect.left = m_rectStarResizing.left;

  01109	8b 4d d8	 mov	 ecx, DWORD PTR _this$[ebp]
  0110c	8b 91 b4 00 00
	00		 mov	 edx, DWORD PTR [ecx+180]
  01112	89 55 ec	 mov	 DWORD PTR _newRect$207813[ebp], edx

; 354  : 			newRect.right = m_rectStarResizing.right + diff.x;

  01115	8b 45 d8	 mov	 eax, DWORD PTR _this$[ebp]
  01118	8b 88 bc 00 00
	00		 mov	 ecx, DWORD PTR [eax+188]
  0111e	03 4d dc	 add	 ecx, DWORD PTR _diff$207812[ebp]
  01121	89 4d f4	 mov	 DWORD PTR _newRect$207813[ebp+8], ecx

; 355  : 			newRect.bottom = m_rectStarResizing.bottom;

  01124	8b 55 d8	 mov	 edx, DWORD PTR _this$[ebp]
  01127	8b 82 c0 00 00
	00		 mov	 eax, DWORD PTR [edx+192]
  0112d	89 45 f8	 mov	 DWORD PTR _newRect$207813[ebp+12], eax

; 356  : 			newRect.top = m_rectStarResizing.top;

  01130	8b 4d d8	 mov	 ecx, DWORD PTR _this$[ebp]
  01133	8b 91 b8 00 00
	00		 mov	 edx, DWORD PTR [ecx+184]
  01139	89 55 f0	 mov	 DWORD PTR _newRect$207813[ebp+4], edx

; 357  : 
; 358  : 			if( m_iDirection & DIRECTION_TOP )

  0113c	8b 45 d8	 mov	 eax, DWORD PTR _this$[ebp]
  0113f	8b 88 a4 00 00
	00		 mov	 ecx, DWORD PTR [eax+164]
  01145	83 e1 04	 and	 ecx, 4
  01148	74 0b		 je	 SHORT $L207820

; 359  : 			{
; 360  : 				newRect.top += diff.y;

  0114a	8b 55 f0	 mov	 edx, DWORD PTR _newRect$207813[ebp+4]
  0114d	03 55 e0	 add	 edx, DWORD PTR _diff$207812[ebp+4]
  01150	89 55 f0	 mov	 DWORD PTR _newRect$207813[ebp+4], edx

; 361  : 			}
; 362  : 			else if( m_iDirection & DIRECTION_BOTTOM )

  01153	eb 17		 jmp	 SHORT $L207821
$L207820:
  01155	8b 45 d8	 mov	 eax, DWORD PTR _this$[ebp]
  01158	8b 88 a4 00 00
	00		 mov	 ecx, DWORD PTR [eax+164]
  0115e	83 e1 08	 and	 ecx, 8
  01161	74 09		 je	 SHORT $L207821

; 363  : 			{
; 364  : 				newRect.bottom += diff.y;

  01163	8b 55 f8	 mov	 edx, DWORD PTR _newRect$207813[ebp+12]
  01166	03 55 e0	 add	 edx, DWORD PTR _diff$207812[ebp+4]
  01169	89 55 f8	 mov	 DWORD PTR _newRect$207813[ebp+12], edx
$L207821:

; 365  : 			}		
; 366  : 		}
; 367  : 		else if( m_iDirection & DIRECTION_TOP )

  0116c	e9 02 01 00 00	 jmp	 $L207818
$L207819:
  01171	8b 45 d8	 mov	 eax, DWORD PTR _this$[ebp]
  01174	8b 88 a4 00 00
	00		 mov	 ecx, DWORD PTR [eax+164]
  0117a	83 e1 04	 and	 ecx, 4
  0117d	74 68		 je	 SHORT $L207824

; 368  : 		{
; 369  : 			newRect.left = m_rectStarResizing.left;

  0117f	8b 55 d8	 mov	 edx, DWORD PTR _this$[ebp]
  01182	8b 82 b4 00 00
	00		 mov	 eax, DWORD PTR [edx+180]
  01188	89 45 ec	 mov	 DWORD PTR _newRect$207813[ebp], eax

; 370  : 			newRect.right = m_rectStarResizing.right;

  0118b	8b 4d d8	 mov	 ecx, DWORD PTR _this$[ebp]
  0118e	8b 91 bc 00 00
	00		 mov	 edx, DWORD PTR [ecx+188]
  01194	89 55 f4	 mov	 DWORD PTR _newRect$207813[ebp+8], edx

; 371  : 			newRect.bottom = m_rectStarResizing.bottom;

  01197	8b 45 d8	 mov	 eax, DWORD PTR _this$[ebp]
  0119a	8b 88 c0 00 00
	00		 mov	 ecx, DWORD PTR [eax+192]
  011a0	89 4d f8	 mov	 DWORD PTR _newRect$207813[ebp+12], ecx

; 372  : 			newRect.top = m_rectStarResizing.top + diff.y;

  011a3	8b 55 d8	 mov	 edx, DWORD PTR _this$[ebp]
  011a6	8b 82 b8 00 00
	00		 mov	 eax, DWORD PTR [edx+184]
  011ac	03 45 e0	 add	 eax, DWORD PTR _diff$207812[ebp+4]
  011af	89 45 f0	 mov	 DWORD PTR _newRect$207813[ebp+4], eax

; 373  : 
; 374  : 			if( m_iDirection & DIRECTION_LEFT )

  011b2	8b 4d d8	 mov	 ecx, DWORD PTR _this$[ebp]
  011b5	8b 91 a4 00 00
	00		 mov	 edx, DWORD PTR [ecx+164]
  011bb	83 e2 01	 and	 edx, 1
  011be	74 0b		 je	 SHORT $L207825

; 375  : 			{
; 376  : 				newRect.left += diff.x;

  011c0	8b 45 ec	 mov	 eax, DWORD PTR _newRect$207813[ebp]
  011c3	03 45 dc	 add	 eax, DWORD PTR _diff$207812[ebp]
  011c6	89 45 ec	 mov	 DWORD PTR _newRect$207813[ebp], eax

; 377  : 			}
; 378  : 			else if( m_iDirection & DIRECTION_RIGHT )

  011c9	eb 17		 jmp	 SHORT $L207826
$L207825:
  011cb	8b 4d d8	 mov	 ecx, DWORD PTR _this$[ebp]
  011ce	8b 91 a4 00 00
	00		 mov	 edx, DWORD PTR [ecx+164]
  011d4	83 e2 02	 and	 edx, 2
  011d7	74 09		 je	 SHORT $L207826

; 379  : 			{
; 380  : 				newRect.right += diff.x;

  011d9	8b 45 f4	 mov	 eax, DWORD PTR _newRect$207813[ebp+8]
  011dc	03 45 dc	 add	 eax, DWORD PTR _diff$207812[ebp]
  011df	89 45 f4	 mov	 DWORD PTR _newRect$207813[ebp+8], eax
$L207826:

; 381  : 			}				
; 382  : 		}
; 383  : 		else if( m_iDirection & DIRECTION_BOTTOM )

  011e2	e9 8c 00 00 00	 jmp	 $L207818
$L207824:
  011e7	8b 4d d8	 mov	 ecx, DWORD PTR _this$[ebp]
  011ea	8b 91 a4 00 00
	00		 mov	 edx, DWORD PTR [ecx+164]
  011f0	83 e2 08	 and	 edx, 8
  011f3	74 65		 je	 SHORT $L207829

; 384  : 		{
; 385  : 			newRect.left = m_rectStarResizing.left;

  011f5	8b 45 d8	 mov	 eax, DWORD PTR _this$[ebp]
  011f8	8b 88 b4 00 00
	00		 mov	 ecx, DWORD PTR [eax+180]
  011fe	89 4d ec	 mov	 DWORD PTR _newRect$207813[ebp], ecx

; 386  : 			newRect.right = m_rectStarResizing.right;

  01201	8b 55 d8	 mov	 edx, DWORD PTR _this$[ebp]
  01204	8b 82 bc 00 00
	00		 mov	 eax, DWORD PTR [edx+188]
  0120a	89 45 f4	 mov	 DWORD PTR _newRect$207813[ebp+8], eax

; 387  : 			newRect.bottom = m_rectStarResizing.bottom + diff.y;

  0120d	8b 4d d8	 mov	 ecx, DWORD PTR _this$[ebp]
  01210	8b 91 c0 00 00
	00		 mov	 edx, DWORD PTR [ecx+192]
  01216	03 55 e0	 add	 edx, DWORD PTR _diff$207812[ebp+4]
  01219	89 55 f8	 mov	 DWORD PTR _newRect$207813[ebp+12], edx

; 388  : 			newRect.top = m_rectStarResizing.top;

  0121c	8b 45 d8	 mov	 eax, DWORD PTR _this$[ebp]
  0121f	8b 88 b8 00 00
	00		 mov	 ecx, DWORD PTR [eax+184]
  01225	89 4d f0	 mov	 DWORD PTR _newRect$207813[ebp+4], ecx

; 389  : 
; 390  : 			if( m_iDirection & DIRECTION_LEFT )

  01228	8b 55 d8	 mov	 edx, DWORD PTR _this$[ebp]
  0122b	8b 82 a4 00 00
	00		 mov	 eax, DWORD PTR [edx+164]
  01231	83 e0 01	 and	 eax, 1
  01234	74 0b		 je	 SHORT $L207830

; 391  : 			{
; 392  : 				newRect.left += diff.x;

  01236	8b 4d ec	 mov	 ecx, DWORD PTR _newRect$207813[ebp]
  01239	03 4d dc	 add	 ecx, DWORD PTR _diff$207812[ebp]
  0123c	89 4d ec	 mov	 DWORD PTR _newRect$207813[ebp], ecx

; 393  : 			}
; 394  : 			else if( m_iDirection & DIRECTION_RIGHT )

  0123f	eb 17		 jmp	 SHORT $L207831
$L207830:
  01241	8b 55 d8	 mov	 edx, DWORD PTR _this$[ebp]
  01244	8b 82 a4 00 00
	00		 mov	 eax, DWORD PTR [edx+164]
  0124a	83 e0 02	 and	 eax, 2
  0124d	74 09		 je	 SHORT $L207831

; 395  : 			{
; 396  : 				newRect.right += diff.x;

  0124f	8b 4d f4	 mov	 ecx, DWORD PTR _newRect$207813[ebp+8]
  01252	03 4d dc	 add	 ecx, DWORD PTR _diff$207812[ebp]
  01255	89 4d f4	 mov	 DWORD PTR _newRect$207813[ebp+8], ecx
$L207831:

; 397  : 			}			
; 398  : 		}
; 399  : 		else

  01258	eb 19		 jmp	 SHORT $L207818
$L207829:

; 400  : 		{
; 401  : 			__super::OnMouseMove( nFlags,point );

  0125a	8b 55 10	 mov	 edx, DWORD PTR _point$[ebp+4]
  0125d	52		 push	 edx
  0125e	8b 45 0c	 mov	 eax, DWORD PTR _point$[ebp]
  01261	50		 push	 eax
  01262	8b 4d 08	 mov	 ecx, DWORD PTR _nFlags$[ebp]
  01265	51		 push	 ecx
  01266	8b 4d d8	 mov	 ecx, DWORD PTR _this$[ebp]
  01269	e8 00 00 00 00	 call	 ?OnMouseMove@CWnd@@IAEXIVCPoint@@@Z ; CWnd::OnMouseMove

; 402  : 			return;

  0126e	e9 0c 01 00 00	 jmp	 $L207801
$L207818:

; 403  : 		}
; 404  : 
; 405  : 		if(newRect.Width() < m_nMinCx)

  01273	8d 4d ec	 lea	 ecx, DWORD PTR _newRect$207813[ebp]
  01276	e8 00 00 00 00	 call	 ?Width@CRect@@QBEHXZ	; CRect::Width
  0127b	8b 55 d8	 mov	 edx, DWORD PTR _this$[ebp]
  0127e	3b 82 cc 00 00
	00		 cmp	 eax, DWORD PTR [edx+204]
  01284	7d 2e		 jge	 SHORT $L207834

; 406  : 		{
; 407  : 			if(m_iDirection & DIRECTION_RIGHT)

  01286	8b 45 d8	 mov	 eax, DWORD PTR _this$[ebp]
  01289	8b 88 a4 00 00
	00		 mov	 ecx, DWORD PTR [eax+164]
  0128f	83 e1 02	 and	 ecx, 2
  01292	74 11		 je	 SHORT $L207835

; 408  : 				newRect.right = newRect.left + m_nMinCx;

  01294	8b 55 d8	 mov	 edx, DWORD PTR _this$[ebp]
  01297	8b 45 ec	 mov	 eax, DWORD PTR _newRect$207813[ebp]
  0129a	03 82 cc 00 00
	00		 add	 eax, DWORD PTR [edx+204]
  012a0	89 45 f4	 mov	 DWORD PTR _newRect$207813[ebp+8], eax

; 409  : 			else

  012a3	eb 0f		 jmp	 SHORT $L207834
$L207835:

; 410  : 				newRect.left = newRect.right - m_nMinCx;

  012a5	8b 4d d8	 mov	 ecx, DWORD PTR _this$[ebp]
  012a8	8b 55 f4	 mov	 edx, DWORD PTR _newRect$207813[ebp+8]
  012ab	2b 91 cc 00 00
	00		 sub	 edx, DWORD PTR [ecx+204]
  012b1	89 55 ec	 mov	 DWORD PTR _newRect$207813[ebp], edx
$L207834:

; 411  : 		}
; 412  : 		if(newRect.Height() < m_nMinCy)

  012b4	8d 4d ec	 lea	 ecx, DWORD PTR _newRect$207813[ebp]
  012b7	e8 00 00 00 00	 call	 ?Height@CRect@@QBEHXZ	; CRect::Height
  012bc	8b 4d d8	 mov	 ecx, DWORD PTR _this$[ebp]
  012bf	3b 81 d0 00 00
	00		 cmp	 eax, DWORD PTR [ecx+208]
  012c5	7d 2e		 jge	 SHORT $L207837

; 413  : 		{
; 414  : 			if(m_iDirection & DIRECTION_BOTTOM)

  012c7	8b 55 d8	 mov	 edx, DWORD PTR _this$[ebp]
  012ca	8b 82 a4 00 00
	00		 mov	 eax, DWORD PTR [edx+164]
  012d0	83 e0 08	 and	 eax, 8
  012d3	74 11		 je	 SHORT $L207838

; 415  : 				newRect.bottom = newRect.top + m_nMinCy;

  012d5	8b 4d d8	 mov	 ecx, DWORD PTR _this$[ebp]
  012d8	8b 55 f0	 mov	 edx, DWORD PTR _newRect$207813[ebp+4]
  012db	03 91 d0 00 00
	00		 add	 edx, DWORD PTR [ecx+208]
  012e1	89 55 f8	 mov	 DWORD PTR _newRect$207813[ebp+12], edx

; 416  : 			else

  012e4	eb 0f		 jmp	 SHORT $L207837
$L207838:

; 417  : 				newRect.top = newRect.bottom - m_nMinCy;

  012e6	8b 45 d8	 mov	 eax, DWORD PTR _this$[ebp]
  012e9	8b 4d f8	 mov	 ecx, DWORD PTR _newRect$207813[ebp+12]
  012ec	2b 88 d0 00 00
	00		 sub	 ecx, DWORD PTR [eax+208]
  012f2	89 4d f0	 mov	 DWORD PTR _newRect$207813[ebp+4], ecx
$L207837:

; 418  : 		}
; 419  : 		DrawMoveFrame(m_rcMain);

  012f5	8b 55 d8	 mov	 edx, DWORD PTR _this$[ebp]
  012f8	81 c2 94 00 00
	00		 add	 edx, 148		; 00000094H
  012fe	83 ec 10	 sub	 esp, 16			; 00000010H
  01301	8b c4		 mov	 eax, esp
  01303	8b 0a		 mov	 ecx, DWORD PTR [edx]
  01305	89 08		 mov	 DWORD PTR [eax], ecx
  01307	8b 4a 04	 mov	 ecx, DWORD PTR [edx+4]
  0130a	89 48 04	 mov	 DWORD PTR [eax+4], ecx
  0130d	8b 4a 08	 mov	 ecx, DWORD PTR [edx+8]
  01310	89 48 08	 mov	 DWORD PTR [eax+8], ecx
  01313	8b 52 0c	 mov	 edx, DWORD PTR [edx+12]
  01316	89 50 0c	 mov	 DWORD PTR [eax+12], edx
  01319	8b 4d d8	 mov	 ecx, DWORD PTR _this$[ebp]
  0131c	e8 00 00 00 00	 call	 ?DrawMoveFrame@CPlayBoxDlg@@AAEXVCRect@@@Z ; CPlayBoxDlg::DrawMoveFrame

; 420  : 		m_rcMain = newRect;

  01321	8b 45 d8	 mov	 eax, DWORD PTR _this$[ebp]
  01324	05 94 00 00 00	 add	 eax, 148		; 00000094H
  01329	8b 4d ec	 mov	 ecx, DWORD PTR _newRect$207813[ebp]
  0132c	89 08		 mov	 DWORD PTR [eax], ecx
  0132e	8b 55 f0	 mov	 edx, DWORD PTR _newRect$207813[ebp+4]
  01331	89 50 04	 mov	 DWORD PTR [eax+4], edx
  01334	8b 4d f4	 mov	 ecx, DWORD PTR _newRect$207813[ebp+8]
  01337	89 48 08	 mov	 DWORD PTR [eax+8], ecx
  0133a	8b 55 f8	 mov	 edx, DWORD PTR _newRect$207813[ebp+12]
  0133d	89 50 0c	 mov	 DWORD PTR [eax+12], edx

; 421  : 		DrawMoveFrame(m_rcMain);

  01340	8b 45 d8	 mov	 eax, DWORD PTR _this$[ebp]
  01343	05 94 00 00 00	 add	 eax, 148		; 00000094H
  01348	83 ec 10	 sub	 esp, 16			; 00000010H
  0134b	8b cc		 mov	 ecx, esp
  0134d	8b 10		 mov	 edx, DWORD PTR [eax]
  0134f	89 11		 mov	 DWORD PTR [ecx], edx
  01351	8b 50 04	 mov	 edx, DWORD PTR [eax+4]
  01354	89 51 04	 mov	 DWORD PTR [ecx+4], edx
  01357	8b 50 08	 mov	 edx, DWORD PTR [eax+8]
  0135a	89 51 08	 mov	 DWORD PTR [ecx+8], edx
  0135d	8b 40 0c	 mov	 eax, DWORD PTR [eax+12]
  01360	89 41 0c	 mov	 DWORD PTR [ecx+12], eax
  01363	8b 4d d8	 mov	 ecx, DWORD PTR _this$[ebp]
  01366	e8 00 00 00 00	 call	 ?DrawMoveFrame@CPlayBoxDlg@@AAEXVCRect@@@Z ; CPlayBoxDlg::DrawMoveFrame
$L207810:

; 422  : 		
; 423  : 		
; 424  : 	}
; 425  : 	__super::OnMouseMove( nFlags,point );

  0136b	8b 4d 10	 mov	 ecx, DWORD PTR _point$[ebp+4]
  0136e	51		 push	 ecx
  0136f	8b 55 0c	 mov	 edx, DWORD PTR _point$[ebp]
  01372	52		 push	 edx
  01373	8b 45 08	 mov	 eax, DWORD PTR _nFlags$[ebp]
  01376	50		 push	 eax
  01377	8b 4d d8	 mov	 ecx, DWORD PTR _this$[ebp]
  0137a	e8 00 00 00 00	 call	 ?OnMouseMove@CWnd@@IAEXIVCPoint@@@Z ; CWnd::OnMouseMove
$L207801:

; 426  : }

  0137f	8b e5		 mov	 esp, ebp
  01381	5d		 pop	 ebp
  01382	c2 0c 00	 ret	 12			; 0000000cH
?OnMouseMove@CPlayBoxDlg@@IAEXIVCPoint@@@Z ENDP		; CPlayBoxDlg::OnMouseMove
; Function compile flags: /Odt
_this$ = -52						; size = 4
_Pt$ = 8						; size = 4
?_needChangeCursor@CPlayBoxDlg@@AAEHABVCPoint@@@Z PROC NEAR ; CPlayBoxDlg::_needChangeCursor
; _this$ = ecx

; 429  : {

  01390	55		 push	 ebp
  01391	8b ec		 mov	 ebp, esp
  01393	83 ec 34	 sub	 esp, 52			; 00000034H
  01396	89 4d cc	 mov	 DWORD PTR _this$[ebp], ecx

; 430  : 	return FALSE; //

  01399	33 c0		 xor	 eax, eax

; 431  : 
; 432  : 	RECT fullRect;
; 433  : 	::GetWindowRect(m_hWnd,&fullRect);//rect			
; 434  : 
; 435  : 	// cursor 
; 436  : 	//  6*6 re_size
; 437  : 	if( (Pt.x >= 0 && Pt.x <= 8 ) && (Pt.y > fullRect.bottom - fullRect.top - 8) )
; 438  : 	{
; 439  : 		//
; 440  : 		HCURSOR  m_hCursor = ::LoadCursor(NULL, IDC_SIZENESW);
; 441  : 		::SetCursor(m_hCursor);
; 442  : 		m_iDirection |= DIRECTION_LEFT;
; 443  : 		m_iDirection |= DIRECTION_BOTTOM;
; 444  : 
; 445  : 		return TRUE;
; 446  : 	}
; 447  : 	//  6*6 re_size
; 448  : 	if( (Pt.x > fullRect.right - fullRect.left - 8) && (Pt.y > fullRect.bottom - fullRect.top - 8) )
; 449  : 	{
; 450  : 		//
; 451  : 		HCURSOR  m_hCursor = ::LoadCursor(NULL, IDC_SIZENWSE);
; 452  : 		::SetCursor(m_hCursor);
; 453  : 		m_iDirection |= DIRECTION_RIGHT;
; 454  : 		m_iDirection |= DIRECTION_BOTTOM;
; 455  : 
; 456  : 		return TRUE;
; 457  : 	}
; 458  : 	//  6*6 re_size
; 459  : 	if( (Pt.x >= 0 && Pt.x <= 8 ) && (Pt.y >= 0 && Pt.y <= 8) )
; 460  : 	{
; 461  : 		//
; 462  : 		HCURSOR  m_hCursor = ::LoadCursor(NULL, IDC_SIZENWSE);
; 463  : 		::SetCursor(m_hCursor);
; 464  : 		m_iDirection |= DIRECTION_LEFT;
; 465  : 		m_iDirection |= DIRECTION_TOP;
; 466  : 
; 467  : 		return TRUE;
; 468  : 	}
; 469  : 	//  6*6 re_size
; 470  : 	if( (Pt.x > fullRect.right - fullRect.left - 8) && (Pt.y >= 0 && Pt.y <= 8))
; 471  : 	{
; 472  : 		//
; 473  : 		HCURSOR  m_hCursor = ::LoadCursor(NULL, IDC_SIZENESW);
; 474  : 		::SetCursor(m_hCursor);
; 475  : 		m_iDirection |= DIRECTION_RIGHT;
; 476  : 		m_iDirection |= DIRECTION_TOP;
; 477  : 
; 478  : 		return TRUE;
; 479  : 	}
; 480  : 	//    3 IDC_SIZEWE 
; 481  : 	if(Pt.x >= 0 && Pt.x <= 8)
; 482  : 	{
; 483  : 		//
; 484  : 		HCURSOR  m_hCursor = ::LoadCursor(NULL, IDC_SIZEWE);
; 485  : 		::SetCursor(m_hCursor);
; 486  : 		m_iDirection |= DIRECTION_LEFT;
; 487  : 		
; 488  : 		return TRUE;
; 489  : 	}
; 490  : 	else if(Pt.x >= fullRect.right - fullRect.left -8 && Pt.x <= fullRect.right - fullRect.left)
; 491  : 	{
; 492  : 		//
; 493  : 		HCURSOR  m_hCursor = ::LoadCursor(NULL, IDC_SIZEWE);
; 494  : 		::SetCursor(m_hCursor);
; 495  : 		m_iDirection |= DIRECTION_RIGHT;		
; 496  : 		return TRUE;
; 497  : 	}
; 498  : 	//   3IDC_SIZEWE 
; 499  : 	if(Pt.y >= 0 && Pt.y <= 3)
; 500  : 	{	
; 501  : 		//
; 502  : 		HCURSOR  m_hCursor = ::LoadCursor(NULL, IDC_SIZENS);
; 503  : 		::SetCursor(m_hCursor);
; 504  : 		m_iDirection |= DIRECTION_TOP;
; 505  : 
; 506  : 		return TRUE;
; 507  : 	}
; 508  : 	else if(Pt.y >= fullRect.bottom - fullRect.top -8 && Pt.y <= fullRect.bottom - fullRect.top)
; 509  : 	{
; 510  : 		//
; 511  : 		HCURSOR  m_hCursor = ::LoadCursor(NULL, IDC_SIZENS);
; 512  : 		::SetCursor(m_hCursor);
; 513  : 		m_iDirection |= DIRECTION_BOTTOM;
; 514  : 		return TRUE;
; 515  : 	}
; 516  : 
; 517  : 	return FALSE;
; 518  : }

  0139b	8b e5		 mov	 esp, ebp
  0139d	5d		 pop	 ebp
  0139e	c2 04 00	 ret	 4
?_needChangeCursor@CPlayBoxDlg@@AAEHABVCPoint@@@Z ENDP	; CPlayBoxDlg::_needChangeCursor
_TEXT	ENDS
PUBLIC	?GetDC@CWnd@@QAEPAVCDC@@XZ			; CWnd::GetDC
PUBLIC	?ReleaseDC@CWnd@@QAEHPAVCDC@@@Z			; CWnd::ReleaseDC
EXTRN	__imp__SetWindowRgn@12:NEAR
xdata$x	SEGMENT
$T210276 DD	0ffffffffH
	DD	FLAT:$L210271
	DD	00H
	DD	FLAT:$L210272
$T210274 DD	019930520H
	DD	02H
	DD	FLAT:$T210276
	DD	2 DUP(00H)
	DD	2 DUP(00H)
; Function compile flags: /Odt
xdata$x	ENDS
_TEXT	SEGMENT
tv146 = -72						; size = 4
tv141 = -68						; size = 4
tv92 = -64						; size = 4
tv87 = -60						; size = 4
tv76 = -56						; size = 4
_this$ = -52						; size = 4
_hrgn$207898 = -48					; size = 4
_dc$207897 = -44					; size = 4
_count$207896 = -40					; size = 4
_cy$ = -36						; size = 4
_cx$ = -32						; size = 4
_rc$ = -28						; size = 16
__$EHRec$ = -12						; size = 12
_oldSkinPath$ = 8					; size = 28
_newSkinPath$ = 36					; size = 28
?ILayoutChangeOb_SkinChanged@CPlayBoxDlg@@UAEXV?$basic_string@DU?$char_traits@D@std@@V?$allocator@D@2@@std@@0@Z PROC NEAR ; CPlayBoxDlg::ILayoutChangeOb_SkinChanged
; _this$ = ecx

; 521  : {

  013b0	55		 push	 ebp
  013b1	8b ec		 mov	 ebp, esp
  013b3	6a ff		 push	 -1
  013b5	68 00 00 00 00	 push	 __ehhandler$?ILayoutChangeOb_SkinChanged@CPlayBoxDlg@@UAEXV?$basic_string@DU?$char_traits@D@std@@V?$allocator@D@2@@std@@0@Z
  013ba	64 a1 00 00 00
	00		 mov	 eax, DWORD PTR fs:__except_list
  013c0	50		 push	 eax
  013c1	64 89 25 00 00
	00 00		 mov	 DWORD PTR fs:__except_list, esp
  013c8	83 ec 3c	 sub	 esp, 60			; 0000003cH
  013cb	89 4d cc	 mov	 DWORD PTR _this$[ebp], ecx
  013ce	c7 45 fc 01 00
	00 00		 mov	 DWORD PTR __$EHRec$[ebp+8], 1

; 522  : 	int cx, cy;
; 523  : 
; 524  : 	CRect rc;

  013d5	8d 4d e4	 lea	 ecx, DWORD PTR _rc$[ebp]
  013d8	e8 00 00 00 00	 call	 ??0CRect@@QAE@XZ	; CRect::CRect

; 525  : 
; 526  : 	this->GetWindowRect(&rc);

  013dd	8d 45 e4	 lea	 eax, DWORD PTR _rc$[ebp]
  013e0	50		 push	 eax
  013e1	8b 4d cc	 mov	 ecx, DWORD PTR _this$[ebp]
  013e4	83 e9 78	 sub	 ecx, 120		; 00000078H
  013e7	e8 00 00 00 00	 call	 ?GetWindowRect@CWnd@@QBEXPAUtagRECT@@@Z ; CWnd::GetWindowRect

; 527  : 	cx = rc.Width(); 

  013ec	8d 4d e4	 lea	 ecx, DWORD PTR _rc$[ebp]
  013ef	e8 00 00 00 00	 call	 ?Width@CRect@@QBEHXZ	; CRect::Width
  013f4	89 45 e0	 mov	 DWORD PTR _cx$[ebp], eax

; 528  : 	cy = rc.Height();

  013f7	8d 4d e4	 lea	 ecx, DWORD PTR _rc$[ebp]
  013fa	e8 00 00 00 00	 call	 ?Height@CRect@@QBEHXZ	; CRect::Height
  013ff	89 45 dc	 mov	 DWORD PTR _cy$[ebp], eax

; 529  : 
; 530  : 	if( AfxGetUIManager()->UIGetLayoutMgr() != NULL )

  01402	e8 00 00 00 00	 call	 ?AfxGetUIManager@@YAPAVIUIManager@@XZ ; AfxGetUIManager
  01407	89 45 c8	 mov	 DWORD PTR tv76[ebp], eax
  0140a	8b 4d c8	 mov	 ecx, DWORD PTR tv76[ebp]
  0140d	8b 11		 mov	 edx, DWORD PTR [ecx]
  0140f	8b 4d c8	 mov	 ecx, DWORD PTR tv76[ebp]
  01412	ff 52 24	 call	 DWORD PTR [edx+36]
  01415	85 c0		 test	 eax, eax
  01417	0f 84 91 00 00
	00		 je	 $L207895

; 531  : 	{
; 532  : 		DWORD count = ::GetTickCount();

  0141d	ff 15 00 00 00
	00		 call	 DWORD PTR __imp__GetTickCount@0
  01423	89 45 d8	 mov	 DWORD PTR _count$207896[ebp], eax

; 533  : 		CDC* dc = GetDC();

  01426	8b 4d cc	 mov	 ecx, DWORD PTR _this$[ebp]
  01429	83 e9 78	 sub	 ecx, 120		; 00000078H
  0142c	e8 00 00 00 00	 call	 ?GetDC@CWnd@@QAEPAVCDC@@XZ ; CWnd::GetDC
  01431	89 45 d4	 mov	 DWORD PTR _dc$207897[ebp], eax

; 534  : 		HRGN hrgn = AfxGetUIManager()->UIGetSkinMgr()->GetFrameRGN(cx, cy , dc);

  01434	e8 00 00 00 00	 call	 ?AfxGetUIManager@@YAPAVIUIManager@@XZ ; AfxGetUIManager
  01439	89 45 c4	 mov	 DWORD PTR tv87[ebp], eax
  0143c	8b 45 c4	 mov	 eax, DWORD PTR tv87[ebp]
  0143f	8b 10		 mov	 edx, DWORD PTR [eax]
  01441	8b 4d c4	 mov	 ecx, DWORD PTR tv87[ebp]
  01444	ff 52 28	 call	 DWORD PTR [edx+40]
  01447	89 45 c0	 mov	 DWORD PTR tv92[ebp], eax
  0144a	8b 45 d4	 mov	 eax, DWORD PTR _dc$207897[ebp]
  0144d	50		 push	 eax
  0144e	8b 4d dc	 mov	 ecx, DWORD PTR _cy$[ebp]
  01451	51		 push	 ecx
  01452	8b 55 e0	 mov	 edx, DWORD PTR _cx$[ebp]
  01455	52		 push	 edx
  01456	8b 45 c0	 mov	 eax, DWORD PTR tv92[ebp]
  01459	8b 10		 mov	 edx, DWORD PTR [eax]
  0145b	8b 4d c0	 mov	 ecx, DWORD PTR tv92[ebp]
  0145e	ff 52 1c	 call	 DWORD PTR [edx+28]
  01461	89 45 d0	 mov	 DWORD PTR _hrgn$207898[ebp], eax

; 535  : 		ReleaseDC(dc);

  01464	8b 45 d4	 mov	 eax, DWORD PTR _dc$207897[ebp]
  01467	50		 push	 eax
  01468	8b 4d cc	 mov	 ecx, DWORD PTR _this$[ebp]
  0146b	83 e9 78	 sub	 ecx, 120		; 00000078H
  0146e	e8 00 00 00 00	 call	 ?ReleaseDC@CWnd@@QAEHPAVCDC@@@Z ; CWnd::ReleaseDC

; 536  : 		::SetWindowRgn(this->m_hWnd, hrgn, true);

  01473	6a 01		 push	 1
  01475	8b 4d d0	 mov	 ecx, DWORD PTR _hrgn$207898[ebp]
  01478	51		 push	 ecx
  01479	8b 55 cc	 mov	 edx, DWORD PTR _this$[ebp]
  0147c	8b 42 a8	 mov	 eax, DWORD PTR [edx-88]
  0147f	50		 push	 eax
  01480	ff 15 00 00 00
	00		 call	 DWORD PTR __imp__SetWindowRgn@12

; 537  : 		AfxGetUIManager()->UIGetLayoutMgr()->UpdateLayout(this->m_hWnd);

  01486	e8 00 00 00 00	 call	 ?AfxGetUIManager@@YAPAVIUIManager@@XZ ; AfxGetUIManager
  0148b	89 45 bc	 mov	 DWORD PTR tv141[ebp], eax
  0148e	8b 4d bc	 mov	 ecx, DWORD PTR tv141[ebp]
  01491	8b 11		 mov	 edx, DWORD PTR [ecx]
  01493	8b 4d bc	 mov	 ecx, DWORD PTR tv141[ebp]
  01496	ff 52 24	 call	 DWORD PTR [edx+36]
  01499	89 45 b8	 mov	 DWORD PTR tv146[ebp], eax
  0149c	8b 45 cc	 mov	 eax, DWORD PTR _this$[ebp]
  0149f	8b 48 a8	 mov	 ecx, DWORD PTR [eax-88]
  014a2	51		 push	 ecx
  014a3	8b 55 b8	 mov	 edx, DWORD PTR tv146[ebp]
  014a6	8b 02		 mov	 eax, DWORD PTR [edx]
  014a8	8b 4d b8	 mov	 ecx, DWORD PTR tv146[ebp]
  014ab	ff 50 14	 call	 DWORD PTR [eax+20]
$L207895:

; 538  : 		//RedrawWindow(NULL, NULL, RDW_INVALIDATE | RDW_UPDATENOW | RDW_ERASE | RDW_ALLCHILDREN);
; 539  : 		// toppanle
; 540  : 	}
; 541  : }

  014ae	c6 45 fc 00	 mov	 BYTE PTR __$EHRec$[ebp+8], 0
  014b2	8d 4d 08	 lea	 ecx, DWORD PTR _oldSkinPath$[ebp]
  014b5	ff 15 00 00 00
	00		 call	 DWORD PTR __imp_??1?$basic_string@DU?$char_traits@D@std@@V?$allocator@D@2@@std@@QAE@XZ
  014bb	c7 45 fc ff ff
	ff ff		 mov	 DWORD PTR __$EHRec$[ebp+8], -1
  014c2	8d 4d 24	 lea	 ecx, DWORD PTR _newSkinPath$[ebp]
  014c5	ff 15 00 00 00
	00		 call	 DWORD PTR __imp_??1?$basic_string@DU?$char_traits@D@std@@V?$allocator@D@2@@std@@QAE@XZ
  014cb	8b 4d f4	 mov	 ecx, DWORD PTR __$EHRec$[ebp]
  014ce	64 89 0d 00 00
	00 00		 mov	 DWORD PTR fs:__except_list, ecx
  014d5	8b e5		 mov	 esp, ebp
  014d7	5d		 pop	 ebp
  014d8	c2 38 00	 ret	 56			; 00000038H
_TEXT	ENDS
text$x	SEGMENT
$L210271:
  00160	8d 4d 24	 lea	 ecx, DWORD PTR _newSkinPath$[ebp]
  00163	ff 25 00 00 00
	00		 jmp	 DWORD PTR __imp_??1?$basic_string@DU?$char_traits@D@std@@V?$allocator@D@2@@std@@QAE@XZ
$L210272:
  00169	8d 4d 08	 lea	 ecx, DWORD PTR _oldSkinPath$[ebp]
  0016c	ff 25 00 00 00
	00		 jmp	 DWORD PTR __imp_??1?$basic_string@DU?$char_traits@D@std@@V?$allocator@D@2@@std@@QAE@XZ
__ehhandler$?ILayoutChangeOb_SkinChanged@CPlayBoxDlg@@UAEXV?$basic_string@DU?$char_traits@D@std@@V?$allocator@D@2@@std@@0@Z:
  00172	b8 00 00 00 00	 mov	 eax, OFFSET FLAT:$T210274
  00177	e9 00 00 00 00	 jmp	 ___CxxFrameHandler
text$x	ENDS
?ILayoutChangeOb_SkinChanged@CPlayBoxDlg@@UAEXV?$basic_string@DU?$char_traits@D@std@@V?$allocator@D@2@@std@@0@Z ENDP ; CPlayBoxDlg::ILayoutChangeOb_SkinChanged
PUBLIC	?RedrawWindow@CWnd@@QAEHPBUtagRECT@@PAVCRgn@@I@Z ; CWnd::RedrawWindow
PUBLIC	?OnSize@CWnd@@IAEXIHH@Z				; CWnd::OnSize
EXTRN	__imp__IsWindow@4:NEAR
EXTRN	?OnSize@CIrregularBorderMgr@@QAEXXZ:NEAR	; CIrregularBorderMgr::OnSize
; Function compile flags: /Odt
_TEXT	SEGMENT
tv156 = -48						; size = 4
tv151 = -44						; size = 4
tv136 = -40						; size = 4
tv131 = -36						; size = 4
tv89 = -32						; size = 4
tv78 = -28						; size = 4
tv73 = -24						; size = 4
tv66 = -20						; size = 4
_this$ = -16						; size = 4
_hrgn$207909 = -12					; size = 4
_dc$207908 = -8						; size = 4
_count$207907 = -4					; size = 4
_nType$ = 8						; size = 4
_cx$ = 12						; size = 4
_cy$ = 16						; size = 4
?OnSize@CPlayBoxDlg@@IAEXIHH@Z PROC NEAR		; CPlayBoxDlg::OnSize
; _this$ = ecx

; 545  : {

  014e0	55		 push	 ebp
  014e1	8b ec		 mov	 ebp, esp
  014e3	83 ec 30	 sub	 esp, 48			; 00000030H
  014e6	89 4d f0	 mov	 DWORD PTR _this$[ebp], ecx

; 546  : 	if(AfxGetUIManager()->UIGetLayoutMgr() != NULL &&AfxGetUIManager()->UIGetLayoutMgr()->GetDisplayMode() == DISPLAY_SEPERATE_MODE)

  014e9	e8 00 00 00 00	 call	 ?AfxGetUIManager@@YAPAVIUIManager@@XZ ; AfxGetUIManager
  014ee	89 45 ec	 mov	 DWORD PTR tv66[ebp], eax
  014f1	8b 45 ec	 mov	 eax, DWORD PTR tv66[ebp]
  014f4	8b 10		 mov	 edx, DWORD PTR [eax]
  014f6	8b 4d ec	 mov	 ecx, DWORD PTR tv66[ebp]
  014f9	ff 52 24	 call	 DWORD PTR [edx+36]
  014fc	85 c0		 test	 eax, eax
  014fe	74 33		 je	 SHORT $L207905
  01500	e8 00 00 00 00	 call	 ?AfxGetUIManager@@YAPAVIUIManager@@XZ ; AfxGetUIManager
  01505	89 45 e8	 mov	 DWORD PTR tv73[ebp], eax
  01508	8b 45 e8	 mov	 eax, DWORD PTR tv73[ebp]
  0150b	8b 10		 mov	 edx, DWORD PTR [eax]
  0150d	8b 4d e8	 mov	 ecx, DWORD PTR tv73[ebp]
  01510	ff 52 24	 call	 DWORD PTR [edx+36]
  01513	89 45 e4	 mov	 DWORD PTR tv78[ebp], eax
  01516	8b 45 e4	 mov	 eax, DWORD PTR tv78[ebp]
  01519	8b 10		 mov	 edx, DWORD PTR [eax]
  0151b	8b 4d e4	 mov	 ecx, DWORD PTR tv78[ebp]
  0151e	ff 52 7c	 call	 DWORD PTR [edx+124]
  01521	85 c0		 test	 eax, eax
  01523	75 0e		 jne	 SHORT $L207905

; 547  : 	{
; 548  : 		cx = 0;

  01525	c7 45 0c 00 00
	00 00		 mov	 DWORD PTR _cx$[ebp], 0

; 549  : 		cy = 0;

  0152c	c7 45 10 00 00
	00 00		 mov	 DWORD PTR _cy$[ebp], 0
$L207905:

; 550  : 	}
; 551  : 	__super::OnSize(nType, cx, cy);

  01533	8b 45 10	 mov	 eax, DWORD PTR _cy$[ebp]
  01536	50		 push	 eax
  01537	8b 4d 0c	 mov	 ecx, DWORD PTR _cx$[ebp]
  0153a	51		 push	 ecx
  0153b	8b 55 08	 mov	 edx, DWORD PTR _nType$[ebp]
  0153e	52		 push	 edx
  0153f	8b 4d f0	 mov	 ecx, DWORD PTR _this$[ebp]
  01542	e8 00 00 00 00	 call	 ?OnSize@CWnd@@IAEXIHH@Z	; CWnd::OnSize

; 552  : 	if( AfxGetUIManager()->UIGetLayoutMgr() != NULL )

  01547	e8 00 00 00 00	 call	 ?AfxGetUIManager@@YAPAVIUIManager@@XZ ; AfxGetUIManager
  0154c	89 45 e0	 mov	 DWORD PTR tv89[ebp], eax
  0154f	8b 45 e0	 mov	 eax, DWORD PTR tv89[ebp]
  01552	8b 10		 mov	 edx, DWORD PTR [eax]
  01554	8b 4d e0	 mov	 ecx, DWORD PTR tv89[ebp]
  01557	ff 52 24	 call	 DWORD PTR [edx+36]
  0155a	85 c0		 test	 eax, eax
  0155c	0f 84 9c 00 00
	00		 je	 $L207906

; 553  : 	{
; 554  : 		DWORD count = ::GetTickCount();

  01562	ff 15 00 00 00
	00		 call	 DWORD PTR __imp__GetTickCount@0
  01568	89 45 fc	 mov	 DWORD PTR _count$207907[ebp], eax

; 555  : 		CDC* dc = GetDC();

  0156b	8b 4d f0	 mov	 ecx, DWORD PTR _this$[ebp]
  0156e	e8 00 00 00 00	 call	 ?GetDC@CWnd@@QAEPAVCDC@@XZ ; CWnd::GetDC
  01573	89 45 f8	 mov	 DWORD PTR _dc$207908[ebp], eax

; 556  : 		HRGN hrgn = AfxGetUIManager()->UIGetSkinMgr()->GetFrameRGN(cx, cy , dc);

  01576	e8 00 00 00 00	 call	 ?AfxGetUIManager@@YAPAVIUIManager@@XZ ; AfxGetUIManager
  0157b	89 45 dc	 mov	 DWORD PTR tv131[ebp], eax
  0157e	8b 45 dc	 mov	 eax, DWORD PTR tv131[ebp]
  01581	8b 10		 mov	 edx, DWORD PTR [eax]
  01583	8b 4d dc	 mov	 ecx, DWORD PTR tv131[ebp]
  01586	ff 52 28	 call	 DWORD PTR [edx+40]
  01589	89 45 d8	 mov	 DWORD PTR tv136[ebp], eax
  0158c	8b 45 f8	 mov	 eax, DWORD PTR _dc$207908[ebp]
  0158f	50		 push	 eax
  01590	8b 4d 10	 mov	 ecx, DWORD PTR _cy$[ebp]
  01593	51		 push	 ecx
  01594	8b 55 0c	 mov	 edx, DWORD PTR _cx$[ebp]
  01597	52		 push	 edx
  01598	8b 45 d8	 mov	 eax, DWORD PTR tv136[ebp]
  0159b	8b 10		 mov	 edx, DWORD PTR [eax]
  0159d	8b 4d d8	 mov	 ecx, DWORD PTR tv136[ebp]
  015a0	ff 52 1c	 call	 DWORD PTR [edx+28]
  015a3	89 45 f4	 mov	 DWORD PTR _hrgn$207909[ebp], eax

; 557  : 		ReleaseDC(dc);

  015a6	8b 45 f8	 mov	 eax, DWORD PTR _dc$207908[ebp]
  015a9	50		 push	 eax
  015aa	8b 4d f0	 mov	 ecx, DWORD PTR _this$[ebp]
  015ad	e8 00 00 00 00	 call	 ?ReleaseDC@CWnd@@QAEHPAVCDC@@@Z ; CWnd::ReleaseDC

; 558  : 		::SetWindowRgn(this->m_hWnd, hrgn, true);

  015b2	6a 01		 push	 1
  015b4	8b 4d f4	 mov	 ecx, DWORD PTR _hrgn$207909[ebp]
  015b7	51		 push	 ecx
  015b8	8b 55 f0	 mov	 edx, DWORD PTR _this$[ebp]
  015bb	8b 42 20	 mov	 eax, DWORD PTR [edx+32]
  015be	50		 push	 eax
  015bf	ff 15 00 00 00
	00		 call	 DWORD PTR __imp__SetWindowRgn@12

; 559  : 		AfxGetUIManager()->UIGetLayoutMgr()->UpdateLayout(this->m_hWnd);

  015c5	e8 00 00 00 00	 call	 ?AfxGetUIManager@@YAPAVIUIManager@@XZ ; AfxGetUIManager
  015ca	89 45 d4	 mov	 DWORD PTR tv151[ebp], eax
  015cd	8b 4d d4	 mov	 ecx, DWORD PTR tv151[ebp]
  015d0	8b 11		 mov	 edx, DWORD PTR [ecx]
  015d2	8b 4d d4	 mov	 ecx, DWORD PTR tv151[ebp]
  015d5	ff 52 24	 call	 DWORD PTR [edx+36]
  015d8	89 45 d0	 mov	 DWORD PTR tv156[ebp], eax
  015db	8b 45 f0	 mov	 eax, DWORD PTR _this$[ebp]
  015de	8b 48 20	 mov	 ecx, DWORD PTR [eax+32]
  015e1	51		 push	 ecx
  015e2	8b 55 d0	 mov	 edx, DWORD PTR tv156[ebp]
  015e5	8b 02		 mov	 eax, DWORD PTR [edx]
  015e7	8b 4d d0	 mov	 ecx, DWORD PTR tv156[ebp]
  015ea	ff 50 14	 call	 DWORD PTR [eax+20]

; 560  : 		RedrawWindow(NULL, NULL, RDW_INVALIDATE | RDW_UPDATENOW | RDW_ERASE | RDW_ALLCHILDREN);

  015ed	68 85 01 00 00	 push	 389			; 00000185H
  015f2	6a 00		 push	 0
  015f4	6a 00		 push	 0
  015f6	8b 4d f0	 mov	 ecx, DWORD PTR _this$[ebp]
  015f9	e8 00 00 00 00	 call	 ?RedrawWindow@CWnd@@QAEHPBUtagRECT@@PAVCRgn@@I@Z ; CWnd::RedrawWindow
$L207906:

; 561  : 		//TRACE("update layout time: %d\n", ::GetTickCount() - count);
; 562  : 	}
; 563  : 	if(AfxGetMainWindow() != NULL && IsWindow(AfxGetMainWindow()->m_hWnd) && cx != 0 && cy != 0)

  015fe	e8 00 00 00 00	 call	 ?AfxGetMainWindow@@YAPAVCWnd@@XZ ; AfxGetMainWindow
  01603	85 c0		 test	 eax, eax
  01605	74 2b		 je	 SHORT $L207904
  01607	e8 00 00 00 00	 call	 ?AfxGetMainWindow@@YAPAVCWnd@@XZ ; AfxGetMainWindow
  0160c	8b 48 20	 mov	 ecx, DWORD PTR [eax+32]
  0160f	51		 push	 ecx
  01610	ff 15 00 00 00
	00		 call	 DWORD PTR __imp__IsWindow@4
  01616	85 c0		 test	 eax, eax
  01618	74 18		 je	 SHORT $L207904
  0161a	83 7d 0c 00	 cmp	 DWORD PTR _cx$[ebp], 0
  0161e	74 12		 je	 SHORT $L207904
  01620	83 7d 10 00	 cmp	 DWORD PTR _cy$[ebp], 0
  01624	74 0c		 je	 SHORT $L207904

; 564  : 		CIrregularBorderMgr::GetInstance()->OnSize();

  01626	e8 00 00 00 00	 call	 ?GetInstance@CIrregularBorderMgr@@SAPAV1@XZ ; CIrregularBorderMgr::GetInstance
  0162b	8b c8		 mov	 ecx, eax
  0162d	e8 00 00 00 00	 call	 ?OnSize@CIrregularBorderMgr@@QAEXXZ ; CIrregularBorderMgr::OnSize
$L207904:

; 565  : }

  01632	8b e5		 mov	 esp, ebp
  01634	5d		 pop	 ebp
  01635	c2 0c 00	 ret	 12			; 0000000cH
?OnSize@CPlayBoxDlg@@IAEXIHH@Z ENDP			; CPlayBoxDlg::OnSize
_TEXT	ENDS
EXTRN	?PreTranslateMessage@CDialog@@UAEHPAUtagMSG@@@Z:NEAR ; CDialog::PreTranslateMessage
xdata$x	SEGMENT
$T210294 DD	0ffffffffH
	DD	FLAT:$L210285
	DD	00H
	DD	FLAT:$L210286
	DD	0ffffffffH
	DD	FLAT:$L210287
	DD	02H
	DD	FLAT:$L210288
	DD	0ffffffffH
	DD	FLAT:$L210289
	DD	04H
	DD	FLAT:$L210290
$T210292 DD	019930520H
	DD	06H
	DD	FLAT:$T210294
	DD	2 DUP(00H)
	DD	2 DUP(00H)
; Function compile flags: /Odt
xdata$x	ENDS
_TEXT	SEGMENT
tv180 = -216						; size = 4
tv139 = -212						; size = 4
tv133 = -208						; size = 4
tv93 = -204						; size = 4
tv87 = -200						; size = 4
_this$ = -196						; size = 4
$T210284 = -192						; size = 28
$T210283 = -164						; size = 28
$T210282 = -136						; size = 28
$T210281 = -108						; size = 28
$T210280 = -80						; size = 28
$T210279 = -52						; size = 28
_wParam$ = -24						; size = 4
_uMsg$ = -20						; size = 4
_lParam$ = -16						; size = 4
__$EHRec$ = -12						; size = 12
_pMsg$ = 8						; size = 4
?PreTranslateMessage@CPlayBoxDlg@@MAEHPAUtagMSG@@@Z PROC NEAR ; CPlayBoxDlg::PreTranslateMessage
; _this$ = ecx

; 568  : {

  01640	55		 push	 ebp
  01641	8b ec		 mov	 ebp, esp
  01643	6a ff		 push	 -1
  01645	68 00 00 00 00	 push	 __ehhandler$?PreTranslateMessage@CPlayBoxDlg@@MAEHPAUtagMSG@@@Z
  0164a	64 a1 00 00 00
	00		 mov	 eax, DWORD PTR fs:__except_list
  01650	50		 push	 eax
  01651	64 89 25 00 00
	00 00		 mov	 DWORD PTR fs:__except_list, esp
  01658	81 ec cc 00 00
	00		 sub	 esp, 204		; 000000ccH
  0165e	89 8d 3c ff ff
	ff		 mov	 DWORD PTR _this$[ebp], ecx

; 569  : 	UINT uMsg = pMsg->message;

  01664	8b 45 08	 mov	 eax, DWORD PTR _pMsg$[ebp]
  01667	8b 48 04	 mov	 ecx, DWORD PTR [eax+4]
  0166a	89 4d ec	 mov	 DWORD PTR _uMsg$[ebp], ecx

; 570  : 	WPARAM wParam = pMsg->wParam;

  0166d	8b 55 08	 mov	 edx, DWORD PTR _pMsg$[ebp]
  01670	8b 42 08	 mov	 eax, DWORD PTR [edx+8]
  01673	89 45 e8	 mov	 DWORD PTR _wParam$[ebp], eax

; 571  : 	LPARAM lParam = pMsg->lParam;

  01676	8b 4d 08	 mov	 ecx, DWORD PTR _pMsg$[ebp]
  01679	8b 51 0c	 mov	 edx, DWORD PTR [ecx+12]
  0167c	89 55 f0	 mov	 DWORD PTR _lParam$[ebp], edx

; 572  : 
; 573  : 	if( pMsg->message == WM_KEYDOWN )

  0167f	8b 45 08	 mov	 eax, DWORD PTR _pMsg$[ebp]
  01682	81 78 04 00 01
	00 00		 cmp	 DWORD PTR [eax+4], 256	; 00000100H
  01689	0f 85 e7 00 00
	00		 jne	 $L207918

; 574  : 	{
; 575  : 		YL_Log("gameplay.txt", LOG_DEBUG, "CPlayBoxDlg::PreTranslateMessage", "message:%s-hwnd:%d", "WM_KEYDOWN", pMsg->hwnd);

  0168f	68 00 00 00 00	 push	 OFFSET FLAT:$SG207923
  01694	8d 4d cc	 lea	 ecx, DWORD PTR $T210279[ebp]
  01697	ff 15 00 00 00
	00		 call	 DWORD PTR __imp_??0?$basic_string@DU?$char_traits@D@std@@V?$allocator@D@2@@std@@QAE@PBD@Z
  0169d	c7 45 fc 00 00
	00 00		 mov	 DWORD PTR __$EHRec$[ebp+8], 0
  016a4	68 00 00 00 00	 push	 OFFSET FLAT:$SG207924
  016a9	8d 4d b0	 lea	 ecx, DWORD PTR $T210280[ebp]
  016ac	ff 15 00 00 00
	00		 call	 DWORD PTR __imp_??0?$basic_string@DU?$char_traits@D@std@@V?$allocator@D@2@@std@@QAE@PBD@Z
  016b2	c6 45 fc 01	 mov	 BYTE PTR __$EHRec$[ebp+8], 1
  016b6	8b 4d 08	 mov	 ecx, DWORD PTR _pMsg$[ebp]
  016b9	8b 11		 mov	 edx, DWORD PTR [ecx]
  016bb	52		 push	 edx
  016bc	68 00 00 00 00	 push	 OFFSET FLAT:$SG207921
  016c1	68 00 00 00 00	 push	 OFFSET FLAT:$SG207922
  016c6	8d 45 cc	 lea	 eax, DWORD PTR $T210279[ebp]
  016c9	50		 push	 eax
  016ca	6a 00		 push	 0
  016cc	8d 4d b0	 lea	 ecx, DWORD PTR $T210280[ebp]
  016cf	51		 push	 ecx
  016d0	ff 15 00 00 00
	00		 call	 DWORD PTR __imp_?YL_Log@@YAXABV?$basic_string@DU?$char_traits@D@std@@V?$allocator@D@2@@std@@H0PBDZZ
  016d6	83 c4 18	 add	 esp, 24			; 00000018H
  016d9	c6 45 fc 00	 mov	 BYTE PTR __$EHRec$[ebp+8], 0
  016dd	8d 4d b0	 lea	 ecx, DWORD PTR $T210280[ebp]
  016e0	ff 15 00 00 00
	00		 call	 DWORD PTR __imp_??1?$basic_string@DU?$char_traits@D@std@@V?$allocator@D@2@@std@@QAE@XZ
  016e6	c7 45 fc ff ff
	ff ff		 mov	 DWORD PTR __$EHRec$[ebp+8], -1
  016ed	8d 4d cc	 lea	 ecx, DWORD PTR $T210279[ebp]
  016f0	ff 15 00 00 00
	00		 call	 DWORD PTR __imp_??1?$basic_string@DU?$char_traits@D@std@@V?$allocator@D@2@@std@@QAE@XZ

; 576  : 		if( pMsg->wParam == VK_ESCAPE )

  016f6	8b 55 08	 mov	 edx, DWORD PTR _pMsg$[ebp]
  016f9	83 7a 08 1b	 cmp	 DWORD PTR [edx+8], 27	; 0000001bH
  016fd	75 77		 jne	 SHORT $L207918

; 577  : 		{
; 578  : 			if( GLOBAL_PANELCHANGEDATA->IPanelChange_IsFullScreen() )

  016ff	e8 00 00 00 00	 call	 ?AfxGetDataManager2@@YAPAVIDataManager@@XZ ; AfxGetDataManager2
  01704	89 85 38 ff ff
	ff		 mov	 DWORD PTR tv87[ebp], eax
  0170a	68 00 00 00 00	 push	 OFFSET FLAT:_ID_DATA_PANELCHANGE
  0170f	8b 85 38 ff ff
	ff		 mov	 eax, DWORD PTR tv87[ebp]
  01715	8b 10		 mov	 edx, DWORD PTR [eax]
  01717	8b 8d 38 ff ff
	ff		 mov	 ecx, DWORD PTR tv87[ebp]
  0171d	ff 52 0c	 call	 DWORD PTR [edx+12]
  01720	89 85 34 ff ff
	ff		 mov	 DWORD PTR tv93[ebp], eax
  01726	8b 85 34 ff ff
	ff		 mov	 eax, DWORD PTR tv93[ebp]
  0172c	8b 10		 mov	 edx, DWORD PTR [eax]
  0172e	8b 8d 34 ff ff
	ff		 mov	 ecx, DWORD PTR tv93[ebp]
  01734	ff 52 14	 call	 DWORD PTR [edx+20]
  01737	0f b6 c0	 movzx	 eax, al
  0173a	85 c0		 test	 eax, eax
  0173c	74 38		 je	 SHORT $L207918

; 579  : 			{
; 580  : 				GLOBAL_PANELCHANGEDATA->IPanelChange_ExitFullScreen();

  0173e	e8 00 00 00 00	 call	 ?AfxGetDataManager2@@YAPAVIDataManager@@XZ ; AfxGetDataManager2
  01743	89 85 30 ff ff
	ff		 mov	 DWORD PTR tv133[ebp], eax
  01749	68 00 00 00 00	 push	 OFFSET FLAT:_ID_DATA_PANELCHANGE
  0174e	8b 8d 30 ff ff
	ff		 mov	 ecx, DWORD PTR tv133[ebp]
  01754	8b 11		 mov	 edx, DWORD PTR [ecx]
  01756	8b 8d 30 ff ff
	ff		 mov	 ecx, DWORD PTR tv133[ebp]
  0175c	ff 52 0c	 call	 DWORD PTR [edx+12]
  0175f	89 85 2c ff ff
	ff		 mov	 DWORD PTR tv139[ebp], eax
  01765	8b 85 2c ff ff
	ff		 mov	 eax, DWORD PTR tv139[ebp]
  0176b	8b 10		 mov	 edx, DWORD PTR [eax]
  0176d	8b 8d 2c ff ff
	ff		 mov	 ecx, DWORD PTR tv139[ebp]
  01773	ff 52 10	 call	 DWORD PTR [edx+16]
$L207918:

; 581  : 			}
; 582  : 		}
; 583  : 	}
; 584  : 
; 585  : 	if( pMsg->message == WM_RBUTTONDOWN )

  01776	8b 45 08	 mov	 eax, DWORD PTR _pMsg$[ebp]
  01779	81 78 04 04 02
	00 00		 cmp	 DWORD PTR [eax+4], 516	; 00000204H
  01780	75 75		 jne	 SHORT $L207929

; 586  : 	{
; 587  : 		YL_Log("gameplay.txt", LOG_DEBUG, "CPlayBoxDlg::PreTranslateMessage", "message:%s-hwnd:%d", "", pMsg->hwnd);

  01782	68 00 00 00 00	 push	 OFFSET FLAT:$SG207934
  01787	8d 4d 94	 lea	 ecx, DWORD PTR $T210281[ebp]
  0178a	ff 15 00 00 00
	00		 call	 DWORD PTR __imp_??0?$basic_string@DU?$char_traits@D@std@@V?$allocator@D@2@@std@@QAE@PBD@Z
  01790	c7 45 fc 02 00
	00 00		 mov	 DWORD PTR __$EHRec$[ebp+8], 2
  01797	68 00 00 00 00	 push	 OFFSET FLAT:$SG207935
  0179c	8d 8d 78 ff ff
	ff		 lea	 ecx, DWORD PTR $T210282[ebp]
  017a2	ff 15 00 00 00
	00		 call	 DWORD PTR __imp_??0?$basic_string@DU?$char_traits@D@std@@V?$allocator@D@2@@std@@QAE@PBD@Z
  017a8	c6 45 fc 03	 mov	 BYTE PTR __$EHRec$[ebp+8], 3
  017ac	8b 4d 08	 mov	 ecx, DWORD PTR _pMsg$[ebp]
  017af	8b 11		 mov	 edx, DWORD PTR [ecx]
  017b1	52		 push	 edx
  017b2	68 00 00 00 00	 push	 OFFSET FLAT:$SG207932
  017b7	68 00 00 00 00	 push	 OFFSET FLAT:$SG207933
  017bc	8d 45 94	 lea	 eax, DWORD PTR $T210281[ebp]
  017bf	50		 push	 eax
  017c0	6a 00		 push	 0
  017c2	8d 8d 78 ff ff
	ff		 lea	 ecx, DWORD PTR $T210282[ebp]
  017c8	51		 push	 ecx
  017c9	ff 15 00 00 00
	00		 call	 DWORD PTR __imp_?YL_Log@@YAXABV?$basic_string@DU?$char_traits@D@std@@V?$allocator@D@2@@std@@H0PBDZZ
  017cf	83 c4 18	 add	 esp, 24			; 00000018H
  017d2	c6 45 fc 02	 mov	 BYTE PTR __$EHRec$[ebp+8], 2
  017d6	8d 8d 78 ff ff
	ff		 lea	 ecx, DWORD PTR $T210282[ebp]
  017dc	ff 15 00 00 00
	00		 call	 DWORD PTR __imp_??1?$basic_string@DU?$char_traits@D@std@@V?$allocator@D@2@@std@@QAE@XZ
  017e2	c7 45 fc ff ff
	ff ff		 mov	 DWORD PTR __$EHRec$[ebp+8], -1
  017e9	8d 4d 94	 lea	 ecx, DWORD PTR $T210281[ebp]
  017ec	ff 15 00 00 00
	00		 call	 DWORD PTR __imp_??1?$basic_string@DU?$char_traits@D@std@@V?$allocator@D@2@@std@@QAE@XZ

; 588  : 	}else

  017f2	e9 82 00 00 00	 jmp	 $L207936
$L207929:

; 589  : 	if( pMsg->message == WM_SETFOCUS )

  017f7	8b 55 08	 mov	 edx, DWORD PTR _pMsg$[ebp]
  017fa	83 7a 04 07	 cmp	 DWORD PTR [edx+4], 7
  017fe	75 79		 jne	 SHORT $L207936

; 590  : 	{
; 591  : 		YL_Log("gameplay.txt", LOG_DEBUG, "CPlayBoxDlg::PreTranslateMessage", "message:%s-hwnd:%d", "WM_SETFOCUS", pMsg->hwnd);

  01800	68 00 00 00 00	 push	 OFFSET FLAT:$SG207942
  01805	8d 8d 5c ff ff
	ff		 lea	 ecx, DWORD PTR $T210283[ebp]
  0180b	ff 15 00 00 00
	00		 call	 DWORD PTR __imp_??0?$basic_string@DU?$char_traits@D@std@@V?$allocator@D@2@@std@@QAE@PBD@Z
  01811	c7 45 fc 04 00
	00 00		 mov	 DWORD PTR __$EHRec$[ebp+8], 4
  01818	68 00 00 00 00	 push	 OFFSET FLAT:$SG207943
  0181d	8d 8d 40 ff ff
	ff		 lea	 ecx, DWORD PTR $T210284[ebp]
  01823	ff 15 00 00 00
	00		 call	 DWORD PTR __imp_??0?$basic_string@DU?$char_traits@D@std@@V?$allocator@D@2@@std@@QAE@PBD@Z
  01829	c6 45 fc 05	 mov	 BYTE PTR __$EHRec$[ebp+8], 5
  0182d	8b 45 08	 mov	 eax, DWORD PTR _pMsg$[ebp]
  01830	8b 08		 mov	 ecx, DWORD PTR [eax]
  01832	51		 push	 ecx
  01833	68 00 00 00 00	 push	 OFFSET FLAT:$SG207940
  01838	68 00 00 00 00	 push	 OFFSET FLAT:$SG207941
  0183d	8d 95 5c ff ff
	ff		 lea	 edx, DWORD PTR $T210283[ebp]
  01843	52		 push	 edx
  01844	6a 00		 push	 0
  01846	8d 85 40 ff ff
	ff		 lea	 eax, DWORD PTR $T210284[ebp]
  0184c	50		 push	 eax
  0184d	ff 15 00 00 00
	00		 call	 DWORD PTR __imp_?YL_Log@@YAXABV?$basic_string@DU?$char_traits@D@std@@V?$allocator@D@2@@std@@H0PBDZZ
  01853	83 c4 18	 add	 esp, 24			; 00000018H
  01856	c6 45 fc 04	 mov	 BYTE PTR __$EHRec$[ebp+8], 4
  0185a	8d 8d 40 ff ff
	ff		 lea	 ecx, DWORD PTR $T210284[ebp]
  01860	ff 15 00 00 00
	00		 call	 DWORD PTR __imp_??1?$basic_string@DU?$char_traits@D@std@@V?$allocator@D@2@@std@@QAE@XZ
  01866	c7 45 fc ff ff
	ff ff		 mov	 DWORD PTR __$EHRec$[ebp+8], -1
  0186d	8d 8d 5c ff ff
	ff		 lea	 ecx, DWORD PTR $T210283[ebp]
  01873	ff 15 00 00 00
	00		 call	 DWORD PTR __imp_??1?$basic_string@DU?$char_traits@D@std@@V?$allocator@D@2@@std@@QAE@XZ
$L207936:

; 592  : 	}
; 593  : 
; 594  : 
; 595  : 	if(pMsg->message == WM_SYSCOMMAND 
; 596  : 		&& pMsg->wParam == SC_CLOSE 
; 597  : 		&& AfxGetUIManager()->UICanExit())

  01879	8b 4d 08	 mov	 ecx, DWORD PTR _pMsg$[ebp]
  0187c	81 79 04 12 01
	00 00		 cmp	 DWORD PTR [ecx+4], 274	; 00000112H
  01883	75 3d		 jne	 SHORT $L207944
  01885	8b 55 08	 mov	 edx, DWORD PTR _pMsg$[ebp]
  01888	81 7a 08 60 f0
	00 00		 cmp	 DWORD PTR [edx+8], 61536 ; 0000f060H
  0188f	75 31		 jne	 SHORT $L207944
  01891	e8 00 00 00 00	 call	 ?AfxGetUIManager@@YAPAVIUIManager@@XZ ; AfxGetUIManager
  01896	89 85 28 ff ff
	ff		 mov	 DWORD PTR tv180[ebp], eax
  0189c	8b 85 28 ff ff
	ff		 mov	 eax, DWORD PTR tv180[ebp]
  018a2	8b 10		 mov	 edx, DWORD PTR [eax]
  018a4	8b 8d 28 ff ff
	ff		 mov	 ecx, DWORD PTR tv180[ebp]
  018aa	ff 52 0c	 call	 DWORD PTR [edx+12]
  018ad	0f b6 c0	 movzx	 eax, al
  018b0	85 c0		 test	 eax, eax
  018b2	74 0e		 je	 SHORT $L207944

; 598  : 	{
; 599  : 		pMsg->hwnd = m_hWnd;

  018b4	8b 4d 08	 mov	 ecx, DWORD PTR _pMsg$[ebp]
  018b7	8b 95 3c ff ff
	ff		 mov	 edx, DWORD PTR _this$[ebp]
  018bd	8b 42 20	 mov	 eax, DWORD PTR [edx+32]
  018c0	89 01		 mov	 DWORD PTR [ecx], eax
$L207944:

; 600  : 	}
; 601  : 
; 602  : 	return __super::PreTranslateMessage( pMsg );

  018c2	8b 4d 08	 mov	 ecx, DWORD PTR _pMsg$[ebp]
  018c5	51		 push	 ecx
  018c6	8b 8d 3c ff ff
	ff		 mov	 ecx, DWORD PTR _this$[ebp]
  018cc	e8 00 00 00 00	 call	 ?PreTranslateMessage@CDialog@@UAEHPAUtagMSG@@@Z ; CDialog::PreTranslateMessage

; 603  : }

  018d1	8b 4d f4	 mov	 ecx, DWORD PTR __$EHRec$[ebp]
  018d4	64 89 0d 00 00
	00 00		 mov	 DWORD PTR fs:__except_list, ecx
  018db	8b e5		 mov	 esp, ebp
  018dd	5d		 pop	 ebp
  018de	c2 04 00	 ret	 4
_TEXT	ENDS
text$x	SEGMENT
$L210285:
  0017c	8d 4d cc	 lea	 ecx, DWORD PTR $T210279[ebp]
  0017f	ff 25 00 00 00
	00		 jmp	 DWORD PTR __imp_??1?$basic_string@DU?$char_traits@D@std@@V?$allocator@D@2@@std@@QAE@XZ
$L210286:
  00185	8d 4d b0	 lea	 ecx, DWORD PTR $T210280[ebp]
  00188	ff 25 00 00 00
	00		 jmp	 DWORD PTR __imp_??1?$basic_string@DU?$char_traits@D@std@@V?$allocator@D@2@@std@@QAE@XZ
$L210287:
  0018e	8d 4d 94	 lea	 ecx, DWORD PTR $T210281[ebp]
  00191	ff 25 00 00 00
	00		 jmp	 DWORD PTR __imp_??1?$basic_string@DU?$char_traits@D@std@@V?$allocator@D@2@@std@@QAE@XZ
$L210288:
  00197	8d 8d 78 ff ff
	ff		 lea	 ecx, DWORD PTR $T210282[ebp]
  0019d	ff 25 00 00 00
	00		 jmp	 DWORD PTR __imp_??1?$basic_string@DU?$char_traits@D@std@@V?$allocator@D@2@@std@@QAE@XZ
$L210289:
  001a3	8d 8d 5c ff ff
	ff		 lea	 ecx, DWORD PTR $T210283[ebp]
  001a9	ff 25 00 00 00
	00		 jmp	 DWORD PTR __imp_??1?$basic_string@DU?$char_traits@D@std@@V?$allocator@D@2@@std@@QAE@XZ
$L210290:
  001af	8d 8d 40 ff ff
	ff		 lea	 ecx, DWORD PTR $T210284[ebp]
  001b5	ff 25 00 00 00
	00		 jmp	 DWORD PTR __imp_??1?$basic_string@DU?$char_traits@D@std@@V?$allocator@D@2@@std@@QAE@XZ
__ehhandler$?PreTranslateMessage@CPlayBoxDlg@@MAEHPAUtagMSG@@@Z:
  001bb	b8 00 00 00 00	 mov	 eax, OFFSET FLAT:$T210292
  001c0	e9 00 00 00 00	 jmp	 ___CxxFrameHandler
text$x	ENDS
?PreTranslateMessage@CPlayBoxDlg@@MAEHPAUtagMSG@@@Z ENDP ; CPlayBoxDlg::PreTranslateMessage
; Function compile flags: /Odt
_TEXT	SEGMENT
_this$ = -4						; size = 4
_uID$ = 8						; size = 4
_lEvent$ = 12						; size = 4
?OnTrayNotification@CPlayBoxDlg@@IAEJIJ@Z PROC NEAR	; CPlayBoxDlg::OnTrayNotification
; _this$ = ecx

; 606  : {

  018f0	55		 push	 ebp
  018f1	8b ec		 mov	 ebp, esp
  018f3	51		 push	 ecx
  018f4	89 4d fc	 mov	 DWORD PTR _this$[ebp], ecx

; 607  : 	return 0;

  018f7	33 c0		 xor	 eax, eax

; 608  : }

  018f9	8b e5		 mov	 esp, ebp
  018fb	5d		 pop	 ebp
  018fc	c2 08 00	 ret	 8
?OnTrayNotification@CPlayBoxDlg@@IAEJIJ@Z ENDP		; CPlayBoxDlg::OnTrayNotification
_TEXT	ENDS
EXTRN	__imp__IsMenu@4:NEAR
EXTRN	?MeasureItem@CTrayIcon@@QAEXPAUtagMEASUREITEMSTRUCT@@@Z:NEAR ; CTrayIcon::MeasureItem
EXTRN	?OnMeasureItem@CWnd@@IAEXHPAUtagMEASUREITEMSTRUCT@@@Z:NEAR ; CWnd::OnMeasureItem
; Function compile flags: /Odt
_TEXT	SEGMENT
_this$ = -4						; size = 4
_nIDCtl$ = 8						; size = 4
_lpMeasureItemStruct$ = 12				; size = 4
?OnMeasureItem@CPlayBoxDlg@@IAEXHPAUtagMEASUREITEMSTRUCT@@@Z PROC NEAR ; CPlayBoxDlg::OnMeasureItem
; _this$ = ecx

; 611  : {

  01900	55		 push	 ebp
  01901	8b ec		 mov	 ebp, esp
  01903	51		 push	 ecx
  01904	89 4d fc	 mov	 DWORD PTR _this$[ebp], ecx

; 612  : 	if(lpMeasureItemStruct->CtlType==ODT_MENU && IsMenu((HMENU)lpMeasureItemStruct->itemID))

  01907	8b 45 0c	 mov	 eax, DWORD PTR _lpMeasureItemStruct$[ebp]
  0190a	83 38 01	 cmp	 DWORD PTR [eax], 1
  0190d	75 2f		 jne	 SHORT $L207956
  0190f	8b 4d 0c	 mov	 ecx, DWORD PTR _lpMeasureItemStruct$[ebp]
  01912	8b 51 08	 mov	 edx, DWORD PTR [ecx+8]
  01915	52		 push	 edx
  01916	ff 15 00 00 00
	00		 call	 DWORD PTR __imp__IsMenu@4
  0191c	85 c0		 test	 eax, eax
  0191e	74 1e		 je	 SHORT $L207956

; 613  : 	{
; 614  : 		if( m_ptrayIcon )

  01920	8b 45 fc	 mov	 eax, DWORD PTR _this$[ebp]
  01923	83 b8 90 00 00
	00 00		 cmp	 DWORD PTR [eax+144], 0
  0192a	74 12		 je	 SHORT $L207956

; 615  : 		{
; 616  : 			m_ptrayIcon->MeasureItem( lpMeasureItemStruct);

  0192c	8b 4d 0c	 mov	 ecx, DWORD PTR _lpMeasureItemStruct$[ebp]
  0192f	51		 push	 ecx
  01930	8b 55 fc	 mov	 edx, DWORD PTR _this$[ebp]
  01933	8b 8a 90 00 00
	00		 mov	 ecx, DWORD PTR [edx+144]
  01939	e8 00 00 00 00	 call	 ?MeasureItem@CTrayIcon@@QAEXPAUtagMEASUREITEMSTRUCT@@@Z ; CTrayIcon::MeasureItem
$L207956:

; 617  : 		}			
; 618  : 	}
; 619  : 	__super::OnMeasureItem( nIDCtl,lpMeasureItemStruct);

  0193e	8b 45 0c	 mov	 eax, DWORD PTR _lpMeasureItemStruct$[ebp]
  01941	50		 push	 eax
  01942	8b 4d 08	 mov	 ecx, DWORD PTR _nIDCtl$[ebp]
  01945	51		 push	 ecx
  01946	8b 4d fc	 mov	 ecx, DWORD PTR _this$[ebp]
  01949	e8 00 00 00 00	 call	 ?OnMeasureItem@CWnd@@IAEXHPAUtagMEASUREITEMSTRUCT@@@Z ; CWnd::OnMeasureItem

; 620  : }

  0194e	8b e5		 mov	 esp, ebp
  01950	5d		 pop	 ebp
  01951	c2 08 00	 ret	 8
?OnMeasureItem@CPlayBoxDlg@@IAEXHPAUtagMEASUREITEMSTRUCT@@@Z ENDP ; CPlayBoxDlg::OnMeasureItem
_TEXT	ENDS
PUBLIC	?OnTimer@CWnd@@IAEXI@Z				; CWnd::OnTimer
EXTRN	?CreatePopup@CTrayIcon@@QAEHPAUHWND__@@@Z:NEAR	; CTrayIcon::CreatePopup
; Function compile flags: /Odt
_TEXT	SEGMENT
_this$ = -4						; size = 4
_nIDEvent$ = 8						; size = 4
?OnTimer@CPlayBoxDlg@@IAEXI@Z PROC NEAR			; CPlayBoxDlg::OnTimer
; _this$ = ecx

; 623  : {

  01960	55		 push	 ebp
  01961	8b ec		 mov	 ebp, esp
  01963	51		 push	 ecx
  01964	89 4d fc	 mov	 DWORD PTR _this$[ebp], ecx

; 624  : 	if(nIDEvent == TIMER_FOR_TRAY)

  01967	83 7d 08 0b	 cmp	 DWORD PTR _nIDEvent$[ebp], 11 ; 0000000bH
  0196b	75 50		 jne	 SHORT $L207962

; 625  : 	{
; 626  : 		if(m_ptrayIcon->m_bRClick)

  0196d	8b 45 fc	 mov	 eax, DWORD PTR _this$[ebp]
  01970	8b 88 90 00 00
	00		 mov	 ecx, DWORD PTR [eax+144]
  01976	0f b6 91 09 03
	00 00		 movzx	 edx, BYTE PTR [ecx+777]
  0197d	85 d2		 test	 edx, edx
  0197f	74 17		 je	 SHORT $L207963

; 627  : 		{
; 628  : 			m_ptrayIcon->CreatePopup(m_hWnd);

  01981	8b 45 fc	 mov	 eax, DWORD PTR _this$[ebp]
  01984	8b 48 20	 mov	 ecx, DWORD PTR [eax+32]
  01987	51		 push	 ecx
  01988	8b 55 fc	 mov	 edx, DWORD PTR _this$[ebp]
  0198b	8b 8a 90 00 00
	00		 mov	 ecx, DWORD PTR [edx+144]
  01991	e8 00 00 00 00	 call	 ?CreatePopup@CTrayIcon@@QAEHPAUHWND__@@@Z ; CTrayIcon::CreatePopup

; 629  : 		}else

  01996	eb 19		 jmp	 SHORT $L207964
$L207963:

; 630  : 		{
; 631  : 			::SendMessage(m_hWnd, WM_COMMAND, ID_OPEN, 0);

  01998	6a 00		 push	 0
  0199a	68 89 00 00 00	 push	 137			; 00000089H
  0199f	68 11 01 00 00	 push	 273			; 00000111H
  019a4	8b 45 fc	 mov	 eax, DWORD PTR _this$[ebp]
  019a7	8b 48 20	 mov	 ecx, DWORD PTR [eax+32]
  019aa	51		 push	 ecx
  019ab	ff 15 00 00 00
	00		 call	 DWORD PTR __imp__SendMessageA@16
$L207964:

; 632  : 			TRACE("::SendMessage(m_hWnd, WM_COMMAND, ID_OPEN, 0);\n");
; 633  : 		}
; 634  : 		KillTimer(nIDEvent);

  019b1	8b 55 08	 mov	 edx, DWORD PTR _nIDEvent$[ebp]
  019b4	52		 push	 edx
  019b5	8b 4d fc	 mov	 ecx, DWORD PTR _this$[ebp]
  019b8	e8 00 00 00 00	 call	 ?KillTimer@CWnd@@QAEHI@Z ; CWnd::KillTimer
$L207962:

; 635  : 	}
; 636  : 	if( nIDEvent == TIMER_TRIM_MEM )

  019bd	83 7d 08 14	 cmp	 DWORD PTR _nIDEvent$[ebp], 20 ; 00000014H
  019c1	75 11		 jne	 SHORT $L207965

; 637  : 	{
; 638  : 		::SetProcessWorkingSetSize(::GetCurrentProcess(), -1, -1);

  019c3	6a ff		 push	 -1
  019c5	6a ff		 push	 -1
  019c7	ff 15 00 00 00
	00		 call	 DWORD PTR __imp__GetCurrentProcess@0
  019cd	50		 push	 eax
  019ce	ff 15 00 00 00
	00		 call	 DWORD PTR __imp__SetProcessWorkingSetSize@12
$L207965:

; 639  : 	}
; 640  : 	if( nIDEvent == TIMER_APP_QUIT )

  019d4	83 7d 08 16	 cmp	 DWORD PTR _nIDEvent$[ebp], 22 ; 00000016H
  019d8	75 2d		 jne	 SHORT $L207966

; 641  : 	{
; 642  : 		KillTimer(m_uCloseTimer);

  019da	8b 45 fc	 mov	 eax, DWORD PTR _this$[ebp]
  019dd	8b 88 d8 00 00
	00		 mov	 ecx, DWORD PTR [eax+216]
  019e3	51		 push	 ecx
  019e4	8b 4d fc	 mov	 ecx, DWORD PTR _this$[ebp]
  019e7	e8 00 00 00 00	 call	 ?KillTimer@CWnd@@QAEHI@Z ; CWnd::KillTimer

; 643  : 		m_uCloseTimer = 0;

  019ec	8b 55 fc	 mov	 edx, DWORD PTR _this$[ebp]
  019ef	c7 82 d8 00 00
	00 00 00 00 00	 mov	 DWORD PTR [edx+216], 0

; 644  : 		PostMessage(WM_CLOSE,0,0);

  019f9	6a 00		 push	 0
  019fb	6a 00		 push	 0
  019fd	6a 10		 push	 16			; 00000010H
  019ff	8b 4d fc	 mov	 ecx, DWORD PTR _this$[ebp]
  01a02	e8 00 00 00 00	 call	 ?PostMessageA@CWnd@@QAEHIIJ@Z ; CWnd::PostMessageA
$L207966:

; 645  : 	}
; 646  : 	__super::OnTimer(nIDEvent);

  01a07	8b 45 08	 mov	 eax, DWORD PTR _nIDEvent$[ebp]
  01a0a	50		 push	 eax
  01a0b	8b 4d fc	 mov	 ecx, DWORD PTR _this$[ebp]
  01a0e	e8 00 00 00 00	 call	 ?OnTimer@CWnd@@IAEXI@Z	; CWnd::OnTimer

; 647  : }

  01a13	8b e5		 mov	 esp, ebp
  01a15	5d		 pop	 ebp
  01a16	c2 04 00	 ret	 4
?OnTimer@CPlayBoxDlg@@IAEXI@Z ENDP			; CPlayBoxDlg::OnTimer
_TEXT	ENDS
PUBLIC	?GetParent@CWnd@@QBEPAV1@XZ			; CWnd::GetParent
PUBLIC	?PatBlt@CDC@@QAEHHHHHK@Z			; CDC::PatBlt
PUBLIC	??1CBrush@@UAE@XZ				; CBrush::~CBrush
PUBLIC	??0CBitmap@@QAE@XZ				; CBitmap::CBitmap
PUBLIC	?LoadBitmapA@CBitmap@@QAEHI@Z			; CBitmap::LoadBitmapA
PUBLIC	??1CBitmap@@UAE@XZ				; CBitmap::~CBitmap
EXTRN	?SelectObject@CDC@@QAEPAVCBrush@@PAV2@@Z:NEAR	; CDC::SelectObject
EXTRN	??0CBrush@@QAE@PAVCBitmap@@@Z:NEAR		; CBrush::CBrush
EXTRN	??0CWindowDC@@QAE@PAVCWnd@@@Z:NEAR		; CWindowDC::CWindowDC
EXTRN	??1CWindowDC@@UAE@XZ:NEAR			; CWindowDC::~CWindowDC
xdata$x	SEGMENT
$T210305 DD	0ffffffffH
	DD	FLAT:$L210299
	DD	00H
	DD	FLAT:$L210300
	DD	01H
	DD	FLAT:$L210301
$T210303 DD	019930520H
	DD	03H
	DD	FLAT:$T210305
	DD	2 DUP(00H)
	DD	2 DUP(00H)
; Function compile flags: /Odt
xdata$x	ENDS
_TEXT	SEGMENT
_this$ = -60						; size = 4
_pOldBrush$ = -56					; size = 4
_brush$ = -52						; size = 8
_bmp$ = -44						; size = 8
_pParentWnd$ = -36					; size = 4
_dc$ = -32						; size = 20
__$EHRec$ = -12						; size = 12
_rc$ = 8						; size = 16
?DrawMoveFrame@CPlayBoxDlg@@AAEXVCRect@@@Z PROC NEAR	; CPlayBoxDlg::DrawMoveFrame
; _this$ = ecx

; 650  : {

  01a20	55		 push	 ebp
  01a21	8b ec		 mov	 ebp, esp
  01a23	6a ff		 push	 -1
  01a25	68 00 00 00 00	 push	 __ehhandler$?DrawMoveFrame@CPlayBoxDlg@@AAEXVCRect@@@Z
  01a2a	64 a1 00 00 00
	00		 mov	 eax, DWORD PTR fs:__except_list
  01a30	50		 push	 eax
  01a31	64 89 25 00 00
	00 00		 mov	 DWORD PTR fs:__except_list, esp
  01a38	83 ec 30	 sub	 esp, 48			; 00000030H
  01a3b	89 4d c4	 mov	 DWORD PTR _this$[ebp], ecx

; 651  : 	CWnd* pParentWnd = GetParent();

  01a3e	8b 4d c4	 mov	 ecx, DWORD PTR _this$[ebp]
  01a41	e8 00 00 00 00	 call	 ?GetParent@CWnd@@QBEPAV1@XZ ; CWnd::GetParent
  01a46	89 45 dc	 mov	 DWORD PTR _pParentWnd$[ebp], eax

; 652  : 	CWindowDC dc(pParentWnd);

  01a49	8b 45 dc	 mov	 eax, DWORD PTR _pParentWnd$[ebp]
  01a4c	50		 push	 eax
  01a4d	8d 4d e0	 lea	 ecx, DWORD PTR _dc$[ebp]
  01a50	e8 00 00 00 00	 call	 ??0CWindowDC@@QAE@PAVCWnd@@@Z ; CWindowDC::CWindowDC
  01a55	c7 45 fc 00 00
	00 00		 mov	 DWORD PTR __$EHRec$[ebp+8], 0

; 653  : 
; 654  : 	CBitmap bmp;

  01a5c	8d 4d d4	 lea	 ecx, DWORD PTR _bmp$[ebp]
  01a5f	e8 00 00 00 00	 call	 ??0CBitmap@@QAE@XZ	; CBitmap::CBitmap
  01a64	c6 45 fc 01	 mov	 BYTE PTR __$EHRec$[ebp+8], 1

; 655  : 
; 656  : 	bmp.LoadBitmap(IDB_FRAME_LINE);

  01a68	68 84 00 00 00	 push	 132			; 00000084H
  01a6d	8d 4d d4	 lea	 ecx, DWORD PTR _bmp$[ebp]
  01a70	e8 00 00 00 00	 call	 ?LoadBitmapA@CBitmap@@QAEHI@Z ; CBitmap::LoadBitmapA

; 657  : 
; 658  : 	CBrush brush(&bmp);

  01a75	8d 4d d4	 lea	 ecx, DWORD PTR _bmp$[ebp]
  01a78	51		 push	 ecx
  01a79	8d 4d cc	 lea	 ecx, DWORD PTR _brush$[ebp]
  01a7c	e8 00 00 00 00	 call	 ??0CBrush@@QAE@PAVCBitmap@@@Z ; CBrush::CBrush
  01a81	c6 45 fc 02	 mov	 BYTE PTR __$EHRec$[ebp+8], 2

; 659  : 	CBrush* pOldBrush = dc.SelectObject(&brush);

  01a85	8d 55 cc	 lea	 edx, DWORD PTR _brush$[ebp]
  01a88	52		 push	 edx
  01a89	8d 4d e0	 lea	 ecx, DWORD PTR _dc$[ebp]
  01a8c	e8 00 00 00 00	 call	 ?SelectObject@CDC@@QAEPAVCBrush@@PAV2@@Z ; CDC::SelectObject
  01a91	89 45 c8	 mov	 DWORD PTR _pOldBrush$[ebp], eax

; 660  : 
; 661  : 	dc.PatBlt(
; 662  : 		rc.left, 
; 663  : 		rc.top, 
; 664  : 		4, 
; 665  : 		rc.Height(), 
; 666  : 		PATINVERT);

  01a94	68 49 00 5a 00	 push	 5898313			; 005a0049H
  01a99	8d 4d 08	 lea	 ecx, DWORD PTR _rc$[ebp]
  01a9c	e8 00 00 00 00	 call	 ?Height@CRect@@QBEHXZ	; CRect::Height
  01aa1	50		 push	 eax
  01aa2	6a 04		 push	 4
  01aa4	8b 45 0c	 mov	 eax, DWORD PTR _rc$[ebp+4]
  01aa7	50		 push	 eax
  01aa8	8b 4d 08	 mov	 ecx, DWORD PTR _rc$[ebp]
  01aab	51		 push	 ecx
  01aac	8d 4d e0	 lea	 ecx, DWORD PTR _dc$[ebp]
  01aaf	e8 00 00 00 00	 call	 ?PatBlt@CDC@@QAEHHHHHK@Z ; CDC::PatBlt

; 667  : 
; 668  : 	dc.PatBlt(
; 669  : 		rc.left, 
; 670  : 		rc.top, 
; 671  : 		rc.Width(), 
; 672  : 		4, 
; 673  : 		PATINVERT);

  01ab4	68 49 00 5a 00	 push	 5898313			; 005a0049H
  01ab9	6a 04		 push	 4
  01abb	8d 4d 08	 lea	 ecx, DWORD PTR _rc$[ebp]
  01abe	e8 00 00 00 00	 call	 ?Width@CRect@@QBEHXZ	; CRect::Width
  01ac3	50		 push	 eax
  01ac4	8b 55 0c	 mov	 edx, DWORD PTR _rc$[ebp+4]
  01ac7	52		 push	 edx
  01ac8	8b 45 08	 mov	 eax, DWORD PTR _rc$[ebp]
  01acb	50		 push	 eax
  01acc	8d 4d e0	 lea	 ecx, DWORD PTR _dc$[ebp]
  01acf	e8 00 00 00 00	 call	 ?PatBlt@CDC@@QAEHHHHHK@Z ; CDC::PatBlt

; 674  : 
; 675  : 	dc.PatBlt(
; 676  : 		rc.left, 
; 677  : 		rc.bottom - 4, 
; 678  : 		rc.Width(), 
; 679  : 		4, 
; 680  : 		PATINVERT);

  01ad4	68 49 00 5a 00	 push	 5898313			; 005a0049H
  01ad9	6a 04		 push	 4
  01adb	8d 4d 08	 lea	 ecx, DWORD PTR _rc$[ebp]
  01ade	e8 00 00 00 00	 call	 ?Width@CRect@@QBEHXZ	; CRect::Width
  01ae3	50		 push	 eax
  01ae4	8b 4d 14	 mov	 ecx, DWORD PTR _rc$[ebp+12]
  01ae7	83 e9 04	 sub	 ecx, 4
  01aea	51		 push	 ecx
  01aeb	8b 55 08	 mov	 edx, DWORD PTR _rc$[ebp]
  01aee	52		 push	 edx
  01aef	8d 4d e0	 lea	 ecx, DWORD PTR _dc$[ebp]
  01af2	e8 00 00 00 00	 call	 ?PatBlt@CDC@@QAEHHHHHK@Z ; CDC::PatBlt

; 681  : 
; 682  : 	dc.PatBlt(
; 683  : 		rc.right, 
; 684  : 		rc.top, 
; 685  : 		4, 
; 686  : 		rc.Height(), 
; 687  : 		PATINVERT);

  01af7	68 49 00 5a 00	 push	 5898313			; 005a0049H
  01afc	8d 4d 08	 lea	 ecx, DWORD PTR _rc$[ebp]
  01aff	e8 00 00 00 00	 call	 ?Height@CRect@@QBEHXZ	; CRect::Height
  01b04	50		 push	 eax
  01b05	6a 04		 push	 4
  01b07	8b 45 0c	 mov	 eax, DWORD PTR _rc$[ebp+4]
  01b0a	50		 push	 eax
  01b0b	8b 4d 10	 mov	 ecx, DWORD PTR _rc$[ebp+8]
  01b0e	51		 push	 ecx
  01b0f	8d 4d e0	 lea	 ecx, DWORD PTR _dc$[ebp]
  01b12	e8 00 00 00 00	 call	 ?PatBlt@CDC@@QAEHHHHHK@Z ; CDC::PatBlt

; 688  : 
; 689  : 	dc.SelectObject(pOldBrush);

  01b17	8b 55 c8	 mov	 edx, DWORD PTR _pOldBrush$[ebp]
  01b1a	52		 push	 edx
  01b1b	8d 4d e0	 lea	 ecx, DWORD PTR _dc$[ebp]
  01b1e	e8 00 00 00 00	 call	 ?SelectObject@CDC@@QAEPAVCBrush@@PAV2@@Z ; CDC::SelectObject

; 690  : }

  01b23	c6 45 fc 01	 mov	 BYTE PTR __$EHRec$[ebp+8], 1
  01b27	8d 4d cc	 lea	 ecx, DWORD PTR _brush$[ebp]
  01b2a	e8 00 00 00 00	 call	 ??1CBrush@@UAE@XZ	; CBrush::~CBrush
  01b2f	c6 45 fc 00	 mov	 BYTE PTR __$EHRec$[ebp+8], 0
  01b33	8d 4d d4	 lea	 ecx, DWORD PTR _bmp$[ebp]
  01b36	e8 00 00 00 00	 call	 ??1CBitmap@@UAE@XZ	; CBitmap::~CBitmap
  01b3b	c7 45 fc ff ff
	ff ff		 mov	 DWORD PTR __$EHRec$[ebp+8], -1
  01b42	8d 4d e0	 lea	 ecx, DWORD PTR _dc$[ebp]
  01b45	e8 00 00 00 00	 call	 ??1CWindowDC@@UAE@XZ	; CWindowDC::~CWindowDC
  01b4a	8b 4d f4	 mov	 ecx, DWORD PTR __$EHRec$[ebp]
  01b4d	64 89 0d 00 00
	00 00		 mov	 DWORD PTR fs:__except_list, ecx
  01b54	8b e5		 mov	 esp, ebp
  01b56	5d		 pop	 ebp
  01b57	c2 10 00	 ret	 16			; 00000010H
_TEXT	ENDS
text$x	SEGMENT
$L210299:
  001c5	8d 4d e0	 lea	 ecx, DWORD PTR _dc$[ebp]
  001c8	e9 00 00 00 00	 jmp	 ??1CWindowDC@@UAE@XZ	; CWindowDC::~CWindowDC
$L210300:
  001cd	8d 4d d4	 lea	 ecx, DWORD PTR _bmp$[ebp]
  001d0	e9 00 00 00 00	 jmp	 ??1CBitmap@@UAE@XZ	; CBitmap::~CBitmap
$L210301:
  001d5	8d 4d cc	 lea	 ecx, DWORD PTR _brush$[ebp]
  001d8	e9 00 00 00 00	 jmp	 ??1CBrush@@UAE@XZ	; CBrush::~CBrush
__ehhandler$?DrawMoveFrame@CPlayBoxDlg@@AAEXVCRect@@@Z:
  001dd	b8 00 00 00 00	 mov	 eax, OFFSET FLAT:$T210303
  001e2	e9 00 00 00 00	 jmp	 ___CxxFrameHandler
text$x	ENDS
?DrawMoveFrame@CPlayBoxDlg@@AAEXVCRect@@@Z ENDP		; CPlayBoxDlg::DrawMoveFrame
EXTRN	__imp_??0?$CStringT@DV?$StrTraitMFC_DLL@DV?$ChTraitsCRT@D@ATL@@@@@ATL@@QAE@ABV01@@Z:NEAR
EXTRN	__imp_??1?$CStringT@DV?$StrTraitMFC_DLL@DV?$ChTraitsCRT@D@ATL@@@@@ATL@@QAE@XZ:NEAR
EXTRN	?ShowTrayIconBalloon@CTrayIcon@@QAEXV?$CStringT@DV?$StrTraitMFC_DLL@DV?$ChTraitsCRT@D@ATL@@@@@ATL@@0I@Z:NEAR ; CTrayIcon::ShowTrayIconBalloon
xdata$x	SEGMENT
$T210317 DD	0ffffffffH
	DD	FLAT:$L210310
	DD	00H
	DD	FLAT:$L210311
	DD	01H
	DD	FLAT:$L210312
$T210315 DD	019930520H
	DD	03H
	DD	FLAT:$T210317
	DD	2 DUP(00H)
	DD	2 DUP(00H)
; Function compile flags: /Odt
xdata$x	ENDS
_TEXT	SEGMENT
tv142 = -48						; size = 4
tv139 = -44						; size = 4
tv69 = -40						; size = 4
_this$ = -36						; size = 4
$T210309 = -32						; size = 4
$T210308 = -28						; size = 4
$T210307 = -24						; size = 4
_strTitle$ = -20					; size = 4
_strContent$ = -16					; size = 4
__$EHRec$ = -12						; size = 12
_wp$ = 8						; size = 4
_lp$ = 12						; size = 4
?OnShowTrayIconBalloon@CPlayBoxDlg@@IAEJIJ@Z PROC NEAR	; CPlayBoxDlg::OnShowTrayIconBalloon
; _this$ = ecx

; 694  : {

  01b60	55		 push	 ebp
  01b61	8b ec		 mov	 ebp, esp
  01b63	6a ff		 push	 -1
  01b65	68 00 00 00 00	 push	 __ehhandler$?OnShowTrayIconBalloon@CPlayBoxDlg@@IAEJIJ@Z
  01b6a	64 a1 00 00 00
	00		 mov	 eax, DWORD PTR fs:__except_list
  01b70	50		 push	 eax
  01b71	64 89 25 00 00
	00 00		 mov	 DWORD PTR fs:__except_list, esp
  01b78	83 ec 24	 sub	 esp, 36			; 00000024H
  01b7b	89 4d dc	 mov	 DWORD PTR _this$[ebp], ecx

; 695  : 	CString strTitle = *((CString*)wp);

  01b7e	8b 45 08	 mov	 eax, DWORD PTR _wp$[ebp]
  01b81	50		 push	 eax
  01b82	8d 4d ec	 lea	 ecx, DWORD PTR _strTitle$[ebp]
  01b85	ff 15 00 00 00
	00		 call	 DWORD PTR __imp_??0?$CStringT@DV?$StrTraitMFC_DLL@DV?$ChTraitsCRT@D@ATL@@@@@ATL@@QAE@ABV01@@Z
  01b8b	c7 45 fc 00 00
	00 00		 mov	 DWORD PTR __$EHRec$[ebp+8], 0

; 696  : 	CString strContent = *((CString*)lp);

  01b92	8b 4d 0c	 mov	 ecx, DWORD PTR _lp$[ebp]
  01b95	51		 push	 ecx
  01b96	8d 4d f0	 lea	 ecx, DWORD PTR _strContent$[ebp]
  01b99	ff 15 00 00 00
	00		 call	 DWORD PTR __imp_??0?$CStringT@DV?$StrTraitMFC_DLL@DV?$ChTraitsCRT@D@ATL@@@@@ATL@@QAE@ABV01@@Z
  01b9f	c6 45 fc 01	 mov	 BYTE PTR __$EHRec$[ebp+8], 1

; 697  : 	m_ptrayIcon->ShowTrayIconBalloon( strTitle, strContent, 3000 );

  01ba3	68 b8 0b 00 00	 push	 3000			; 00000bb8H
  01ba8	51		 push	 ecx
  01ba9	8b cc		 mov	 ecx, esp
  01bab	89 65 e8	 mov	 DWORD PTR $T210307[ebp], esp
  01bae	8d 55 f0	 lea	 edx, DWORD PTR _strContent$[ebp]
  01bb1	52		 push	 edx
  01bb2	ff 15 00 00 00
	00		 call	 DWORD PTR __imp_??0?$CStringT@DV?$StrTraitMFC_DLL@DV?$ChTraitsCRT@D@ATL@@@@@ATL@@QAE@ABV01@@Z
  01bb8	89 45 d8	 mov	 DWORD PTR tv69[ebp], eax
  01bbb	8b 45 d8	 mov	 eax, DWORD PTR tv69[ebp]
  01bbe	89 45 d4	 mov	 DWORD PTR tv139[ebp], eax
  01bc1	c6 45 fc 02	 mov	 BYTE PTR __$EHRec$[ebp+8], 2
  01bc5	51		 push	 ecx
  01bc6	8b cc		 mov	 ecx, esp
  01bc8	89 65 e4	 mov	 DWORD PTR $T210308[ebp], esp
  01bcb	8d 55 ec	 lea	 edx, DWORD PTR _strTitle$[ebp]
  01bce	52		 push	 edx
  01bcf	ff 15 00 00 00
	00		 call	 DWORD PTR __imp_??0?$CStringT@DV?$StrTraitMFC_DLL@DV?$ChTraitsCRT@D@ATL@@@@@ATL@@QAE@ABV01@@Z
  01bd5	89 45 d0	 mov	 DWORD PTR tv142[ebp], eax
  01bd8	8b 45 dc	 mov	 eax, DWORD PTR _this$[ebp]
  01bdb	8b 88 90 00 00
	00		 mov	 ecx, DWORD PTR [eax+144]
  01be1	c6 45 fc 01	 mov	 BYTE PTR __$EHRec$[ebp+8], 1
  01be5	e8 00 00 00 00	 call	 ?ShowTrayIconBalloon@CTrayIcon@@QAEXV?$CStringT@DV?$StrTraitMFC_DLL@DV?$ChTraitsCRT@D@ATL@@@@@ATL@@0I@Z ; CTrayIcon::ShowTrayIconBalloon

; 698  : 	return 0;

  01bea	c7 45 e0 00 00
	00 00		 mov	 DWORD PTR $T210309[ebp], 0
  01bf1	c6 45 fc 00	 mov	 BYTE PTR __$EHRec$[ebp+8], 0
  01bf5	8d 4d f0	 lea	 ecx, DWORD PTR _strContent$[ebp]
  01bf8	ff 15 00 00 00
	00		 call	 DWORD PTR __imp_??1?$CStringT@DV?$StrTraitMFC_DLL@DV?$ChTraitsCRT@D@ATL@@@@@ATL@@QAE@XZ
  01bfe	c7 45 fc ff ff
	ff ff		 mov	 DWORD PTR __$EHRec$[ebp+8], -1
  01c05	8d 4d ec	 lea	 ecx, DWORD PTR _strTitle$[ebp]
  01c08	ff 15 00 00 00
	00		 call	 DWORD PTR __imp_??1?$CStringT@DV?$StrTraitMFC_DLL@DV?$ChTraitsCRT@D@ATL@@@@@ATL@@QAE@XZ
  01c0e	8b 45 e0	 mov	 eax, DWORD PTR $T210309[ebp]

; 699  : }

  01c11	8b 4d f4	 mov	 ecx, DWORD PTR __$EHRec$[ebp]
  01c14	64 89 0d 00 00
	00 00		 mov	 DWORD PTR fs:__except_list, ecx
  01c1b	8b e5		 mov	 esp, ebp
  01c1d	5d		 pop	 ebp
  01c1e	c2 08 00	 ret	 8
_TEXT	ENDS
text$x	SEGMENT
$L210310:
  001e7	8d 4d ec	 lea	 ecx, DWORD PTR _strTitle$[ebp]
  001ea	ff 25 00 00 00
	00		 jmp	 DWORD PTR __imp_??1?$CStringT@DV?$StrTraitMFC_DLL@DV?$ChTraitsCRT@D@ATL@@@@@ATL@@QAE@XZ
$L210311:
  001f0	8d 4d f0	 lea	 ecx, DWORD PTR _strContent$[ebp]
  001f3	ff 25 00 00 00
	00		 jmp	 DWORD PTR __imp_??1?$CStringT@DV?$StrTraitMFC_DLL@DV?$ChTraitsCRT@D@ATL@@@@@ATL@@QAE@XZ
$L210312:
  001f9	8b 4d e8	 mov	 ecx, DWORD PTR $T210307[ebp]
  001fc	ff 25 00 00 00
	00		 jmp	 DWORD PTR __imp_??1?$CStringT@DV?$StrTraitMFC_DLL@DV?$ChTraitsCRT@D@ATL@@@@@ATL@@QAE@XZ
__ehhandler$?OnShowTrayIconBalloon@CPlayBoxDlg@@IAEJIJ@Z:
  00202	b8 00 00 00 00	 mov	 eax, OFFSET FLAT:$T210315
  00207	e9 00 00 00 00	 jmp	 ___CxxFrameHandler
text$x	ENDS
?OnShowTrayIconBalloon@CPlayBoxDlg@@IAEJIJ@Z ENDP	; CPlayBoxDlg::OnShowTrayIconBalloon
EXTRN	__imp__MoveWindow@24:NEAR
EXTRN	__imp__SystemParametersInfoA@16:NEAR
EXTRN	__imp_?wndTopMost@CWnd@@2V1@B:BYTE
EXTRN	?SetWindowPos@CWnd@@QAEHPBV1@HHHHI@Z:NEAR	; CWnd::SetWindowPos
xdata$x	SEGMENT
$T210358 DD	0ffffffffH
	DD	FLAT:$L210339
	DD	00H
	DD	FLAT:$L210340
	DD	0ffffffffH
	DD	FLAT:$L210341
	DD	02H
	DD	FLAT:$L210342
	DD	0ffffffffH
	DD	FLAT:$L210343
	DD	04H
	DD	FLAT:$L210344
	DD	0ffffffffH
	DD	FLAT:$L210345
	DD	06H
	DD	FLAT:$L210346
	DD	0ffffffffH
	DD	FLAT:$L210347
	DD	08H
	DD	FLAT:$L210348
	DD	0ffffffffH
	DD	FLAT:$L210349
	DD	0aH
	DD	FLAT:$L210350
	DD	0ffffffffH
	DD	FLAT:$L210351
	DD	0cH
	DD	FLAT:$L210352
	DD	0ffffffffH
	DD	FLAT:$L210353
	DD	0eH
	DD	FLAT:$L210354
$T210356 DD	019930520H
	DD	010H
	DD	FLAT:$T210358
	DD	2 DUP(00H)
	DD	2 DUP(00H)
; Function compile flags: /Odt
xdata$x	ENDS
_TEXT	SEGMENT
tv199 = -516						; size = 4
tv195 = -512						; size = 4
_this$ = -508						; size = 4
$T210338 = -504						; size = 28
$T210337 = -476						; size = 28
$T210336 = -448						; size = 28
$T210335 = -420						; size = 28
$T210330 = -392						; size = 28
$T210329 = -364						; size = 28
$T210328 = -336						; size = 28
$T210327 = -308						; size = 28
$T210326 = -280						; size = 28
$T210325 = -252						; size = 28
$T210324 = -224						; size = 28
$T210323 = -196						; size = 28
$T210322 = -168						; size = 28
$T210321 = -140						; size = 28
$T210320 = -112						; size = 28
$T210319 = -84						; size = 28
_iDesktopHeight$ = -56					; size = 4
_iYPos$ = -52						; size = 4
_r$ = -48						; size = 16
_iDesktopWidth$ = -32					; size = 4
_iWndNormalHeight$ = -28				; size = 4
_iWndNormalWidth$ = -24					; size = 4
_bHold$ = -17						; size = 1
_iXPos$ = -16						; size = 4
__$EHRec$ = -12						; size = 12
?_AdjustDlgSize@CPlayBoxDlg@@AAEXXZ PROC NEAR		; CPlayBoxDlg::_AdjustDlgSize
; _this$ = ecx

; 702  : {

  01c30	55		 push	 ebp
  01c31	8b ec		 mov	 ebp, esp
  01c33	6a ff		 push	 -1
  01c35	68 00 00 00 00	 push	 __ehhandler$?_AdjustDlgSize@CPlayBoxDlg@@AAEXXZ
  01c3a	64 a1 00 00 00
	00		 mov	 eax, DWORD PTR fs:__except_list
  01c40	50		 push	 eax
  01c41	64 89 25 00 00
	00 00		 mov	 DWORD PTR fs:__except_list, esp
  01c48	81 ec f8 01 00
	00		 sub	 esp, 504		; 000001f8H
  01c4e	89 8d 04 fe ff
	ff		 mov	 DWORD PTR _this$[ebp], ecx

; 703  : 	AfxGetUserConfig()->GetConfigIntValue( CONF_LAYOUT_MODULE_NAME, CONF_LAYOUT_MIN_WIDTH, m_nMinCx );

  01c54	a1 00 00 00 00	 mov	 eax, DWORD PTR _CONF_LAYOUT_MIN_WIDTH
  01c59	50		 push	 eax
  01c5a	8d 4d ac	 lea	 ecx, DWORD PTR $T210319[ebp]
  01c5d	ff 15 00 00 00
	00		 call	 DWORD PTR __imp_??0?$basic_string@DU?$char_traits@D@std@@V?$allocator@D@2@@std@@QAE@PBD@Z
  01c63	c7 45 fc 00 00
	00 00		 mov	 DWORD PTR __$EHRec$[ebp+8], 0
  01c6a	8b 0d 00 00 00
	00		 mov	 ecx, DWORD PTR _CONF_LAYOUT_MODULE_NAME
  01c70	51		 push	 ecx
  01c71	8d 4d 90	 lea	 ecx, DWORD PTR $T210320[ebp]
  01c74	ff 15 00 00 00
	00		 call	 DWORD PTR __imp_??0?$basic_string@DU?$char_traits@D@std@@V?$allocator@D@2@@std@@QAE@PBD@Z
  01c7a	c6 45 fc 01	 mov	 BYTE PTR __$EHRec$[ebp+8], 1
  01c7e	8b 95 04 fe ff
	ff		 mov	 edx, DWORD PTR _this$[ebp]
  01c84	81 c2 cc 00 00
	00		 add	 edx, 204		; 000000ccH
  01c8a	52		 push	 edx
  01c8b	8d 45 ac	 lea	 eax, DWORD PTR $T210319[ebp]
  01c8e	50		 push	 eax
  01c8f	8d 4d 90	 lea	 ecx, DWORD PTR $T210320[ebp]
  01c92	51		 push	 ecx
  01c93	e8 00 00 00 00	 call	 ?AfxGetUserConfig@@YAPAVAfxUserConfig@@XZ ; AfxGetUserConfig
  01c98	8b c8		 mov	 ecx, eax
  01c9a	e8 00 00 00 00	 call	 ?GetConfigIntValue@AfxUserConfig@@QAEXABV?$basic_string@DU?$char_traits@D@std@@V?$allocator@D@2@@std@@0AAH@Z ; AfxUserConfig::GetConfigIntValue
  01c9f	c6 45 fc 00	 mov	 BYTE PTR __$EHRec$[ebp+8], 0
  01ca3	8d 4d 90	 lea	 ecx, DWORD PTR $T210320[ebp]
  01ca6	ff 15 00 00 00
	00		 call	 DWORD PTR __imp_??1?$basic_string@DU?$char_traits@D@std@@V?$allocator@D@2@@std@@QAE@XZ
  01cac	c7 45 fc ff ff
	ff ff		 mov	 DWORD PTR __$EHRec$[ebp+8], -1
  01cb3	8d 4d ac	 lea	 ecx, DWORD PTR $T210319[ebp]
  01cb6	ff 15 00 00 00
	00		 call	 DWORD PTR __imp_??1?$basic_string@DU?$char_traits@D@std@@V?$allocator@D@2@@std@@QAE@XZ

; 704  : 	AfxGetUserConfig()->GetConfigIntValue( CONF_LAYOUT_MODULE_NAME, CONF_LAYOUT_MIN_HEIGHT, m_nMinCy );

  01cbc	8b 15 00 00 00
	00		 mov	 edx, DWORD PTR _CONF_LAYOUT_MIN_HEIGHT
  01cc2	52		 push	 edx
  01cc3	8d 8d 74 ff ff
	ff		 lea	 ecx, DWORD PTR $T210321[ebp]
  01cc9	ff 15 00 00 00
	00		 call	 DWORD PTR __imp_??0?$basic_string@DU?$char_traits@D@std@@V?$allocator@D@2@@std@@QAE@PBD@Z
  01ccf	c7 45 fc 02 00
	00 00		 mov	 DWORD PTR __$EHRec$[ebp+8], 2
  01cd6	a1 00 00 00 00	 mov	 eax, DWORD PTR _CONF_LAYOUT_MODULE_NAME
  01cdb	50		 push	 eax
  01cdc	8d 8d 58 ff ff
	ff		 lea	 ecx, DWORD PTR $T210322[ebp]
  01ce2	ff 15 00 00 00
	00		 call	 DWORD PTR __imp_??0?$basic_string@DU?$char_traits@D@std@@V?$allocator@D@2@@std@@QAE@PBD@Z
  01ce8	c6 45 fc 03	 mov	 BYTE PTR __$EHRec$[ebp+8], 3
  01cec	8b 8d 04 fe ff
	ff		 mov	 ecx, DWORD PTR _this$[ebp]
  01cf2	81 c1 d0 00 00
	00		 add	 ecx, 208		; 000000d0H
  01cf8	51		 push	 ecx
  01cf9	8d 95 74 ff ff
	ff		 lea	 edx, DWORD PTR $T210321[ebp]
  01cff	52		 push	 edx
  01d00	8d 85 58 ff ff
	ff		 lea	 eax, DWORD PTR $T210322[ebp]
  01d06	50		 push	 eax
  01d07	e8 00 00 00 00	 call	 ?AfxGetUserConfig@@YAPAVAfxUserConfig@@XZ ; AfxGetUserConfig
  01d0c	8b c8		 mov	 ecx, eax
  01d0e	e8 00 00 00 00	 call	 ?GetConfigIntValue@AfxUserConfig@@QAEXABV?$basic_string@DU?$char_traits@D@std@@V?$allocator@D@2@@std@@0AAH@Z ; AfxUserConfig::GetConfigIntValue
  01d13	c6 45 fc 02	 mov	 BYTE PTR __$EHRec$[ebp+8], 2
  01d17	8d 8d 58 ff ff
	ff		 lea	 ecx, DWORD PTR $T210322[ebp]
  01d1d	ff 15 00 00 00
	00		 call	 DWORD PTR __imp_??1?$basic_string@DU?$char_traits@D@std@@V?$allocator@D@2@@std@@QAE@XZ
  01d23	c7 45 fc ff ff
	ff ff		 mov	 DWORD PTR __$EHRec$[ebp+8], -1
  01d2a	8d 8d 74 ff ff
	ff		 lea	 ecx, DWORD PTR $T210321[ebp]
  01d30	ff 15 00 00 00
	00		 call	 DWORD PTR __imp_??1?$basic_string@DU?$char_traits@D@std@@V?$allocator@D@2@@std@@QAE@XZ

; 705  : 
; 706  : 	if(m_nMinCx < 300 || m_nMinCx > 1400)

  01d36	8b 8d 04 fe ff
	ff		 mov	 ecx, DWORD PTR _this$[ebp]
  01d3c	81 b9 cc 00 00
	00 2c 01 00 00	 cmp	 DWORD PTR [ecx+204], 300 ; 0000012cH
  01d46	7c 12		 jl	 SHORT $L208000
  01d48	8b 95 04 fe ff
	ff		 mov	 edx, DWORD PTR _this$[ebp]
  01d4e	81 ba cc 00 00
	00 78 05 00 00	 cmp	 DWORD PTR [edx+204], 1400 ; 00000578H
  01d58	7e 10		 jle	 SHORT $L207999
$L208000:

; 707  : 		m_nMinCx = 650;

  01d5a	8b 85 04 fe ff
	ff		 mov	 eax, DWORD PTR _this$[ebp]
  01d60	c7 80 cc 00 00
	00 8a 02 00 00	 mov	 DWORD PTR [eax+204], 650 ; 0000028aH
$L207999:

; 708  : 	if(m_nMinCy < 300 || m_nMinCy > 1024)

  01d6a	8b 8d 04 fe ff
	ff		 mov	 ecx, DWORD PTR _this$[ebp]
  01d70	81 b9 d0 00 00
	00 2c 01 00 00	 cmp	 DWORD PTR [ecx+208], 300 ; 0000012cH
  01d7a	7c 12		 jl	 SHORT $L208002
  01d7c	8b 95 04 fe ff
	ff		 mov	 edx, DWORD PTR _this$[ebp]
  01d82	81 ba d0 00 00
	00 00 04 00 00	 cmp	 DWORD PTR [edx+208], 1024 ; 00000400H
  01d8c	7e 10		 jle	 SHORT $L208001
$L208002:

; 709  : 		m_nMinCy = 400;

  01d8e	8b 85 04 fe ff
	ff		 mov	 eax, DWORD PTR _this$[ebp]
  01d94	c7 80 d0 00 00
	00 90 01 00 00	 mov	 DWORD PTR [eax+208], 400 ; 00000190H
$L208001:

; 710  : 
; 711  : 	RECT   r;   
; 712  : 	SystemParametersInfo(   SPI_GETWORKAREA,   sizeof(RECT),   &r,   0   );   

  01d9e	6a 00		 push	 0
  01da0	8d 4d d0	 lea	 ecx, DWORD PTR _r$[ebp]
  01da3	51		 push	 ecx
  01da4	6a 10		 push	 16			; 00000010H
  01da6	6a 30		 push	 48			; 00000030H
  01da8	ff 15 00 00 00
	00		 call	 DWORD PTR __imp__SystemParametersInfoA@16

; 713  : 
; 714  : 	int iDesktopWidth	= r.right - r.left;

  01dae	8b 55 d8	 mov	 edx, DWORD PTR _r$[ebp+8]
  01db1	2b 55 d0	 sub	 edx, DWORD PTR _r$[ebp]
  01db4	89 55 e0	 mov	 DWORD PTR _iDesktopWidth$[ebp], edx

; 715  : 	int iDesktopHeight	= r.bottom - r.top;

  01db7	8b 45 dc	 mov	 eax, DWORD PTR _r$[ebp+12]
  01dba	2b 45 d4	 sub	 eax, DWORD PTR _r$[ebp+4]
  01dbd	89 45 c8	 mov	 DWORD PTR _iDesktopHeight$[ebp], eax

; 716  : 
; 717  : 	int iWndNormalHeight,iWndNormalWidth,iXPos,iYPos;
; 718  : 
; 719  : 	AfxGetUserConfig()->GetConfigIntValue( CONF_LAYOUT_MODULE_NAME,CONF_LAYOUT_HEIGHT,iWndNormalHeight);

  01dc0	8b 0d 00 00 00
	00		 mov	 ecx, DWORD PTR _CONF_LAYOUT_HEIGHT
  01dc6	51		 push	 ecx
  01dc7	8d 8d 3c ff ff
	ff		 lea	 ecx, DWORD PTR $T210323[ebp]
  01dcd	ff 15 00 00 00
	00		 call	 DWORD PTR __imp_??0?$basic_string@DU?$char_traits@D@std@@V?$allocator@D@2@@std@@QAE@PBD@Z
  01dd3	c7 45 fc 04 00
	00 00		 mov	 DWORD PTR __$EHRec$[ebp+8], 4
  01dda	8b 15 00 00 00
	00		 mov	 edx, DWORD PTR _CONF_LAYOUT_MODULE_NAME
  01de0	52		 push	 edx
  01de1	8d 8d 20 ff ff
	ff		 lea	 ecx, DWORD PTR $T210324[ebp]
  01de7	ff 15 00 00 00
	00		 call	 DWORD PTR __imp_??0?$basic_string@DU?$char_traits@D@std@@V?$allocator@D@2@@std@@QAE@PBD@Z
  01ded	c6 45 fc 05	 mov	 BYTE PTR __$EHRec$[ebp+8], 5
  01df1	8d 45 e4	 lea	 eax, DWORD PTR _iWndNormalHeight$[ebp]
  01df4	50		 push	 eax
  01df5	8d 8d 3c ff ff
	ff		 lea	 ecx, DWORD PTR $T210323[ebp]
  01dfb	51		 push	 ecx
  01dfc	8d 95 20 ff ff
	ff		 lea	 edx, DWORD PTR $T210324[ebp]
  01e02	52		 push	 edx
  01e03	e8 00 00 00 00	 call	 ?AfxGetUserConfig@@YAPAVAfxUserConfig@@XZ ; AfxGetUserConfig
  01e08	8b c8		 mov	 ecx, eax
  01e0a	e8 00 00 00 00	 call	 ?GetConfigIntValue@AfxUserConfig@@QAEXABV?$basic_string@DU?$char_traits@D@std@@V?$allocator@D@2@@std@@0AAH@Z ; AfxUserConfig::GetConfigIntValue
  01e0f	c6 45 fc 04	 mov	 BYTE PTR __$EHRec$[ebp+8], 4
  01e13	8d 8d 20 ff ff
	ff		 lea	 ecx, DWORD PTR $T210324[ebp]
  01e19	ff 15 00 00 00
	00		 call	 DWORD PTR __imp_??1?$basic_string@DU?$char_traits@D@std@@V?$allocator@D@2@@std@@QAE@XZ
  01e1f	c7 45 fc ff ff
	ff ff		 mov	 DWORD PTR __$EHRec$[ebp+8], -1
  01e26	8d 8d 3c ff ff
	ff		 lea	 ecx, DWORD PTR $T210323[ebp]
  01e2c	ff 15 00 00 00
	00		 call	 DWORD PTR __imp_??1?$basic_string@DU?$char_traits@D@std@@V?$allocator@D@2@@std@@QAE@XZ

; 720  : 	AfxGetUserConfig()->GetConfigIntValue( CONF_LAYOUT_MODULE_NAME,CONF_LAYOUT_WIDTH,iWndNormalWidth);

  01e32	a1 00 00 00 00	 mov	 eax, DWORD PTR _CONF_LAYOUT_WIDTH
  01e37	50		 push	 eax
  01e38	8d 8d 04 ff ff
	ff		 lea	 ecx, DWORD PTR $T210325[ebp]
  01e3e	ff 15 00 00 00
	00		 call	 DWORD PTR __imp_??0?$basic_string@DU?$char_traits@D@std@@V?$allocator@D@2@@std@@QAE@PBD@Z
  01e44	c7 45 fc 06 00
	00 00		 mov	 DWORD PTR __$EHRec$[ebp+8], 6
  01e4b	8b 0d 00 00 00
	00		 mov	 ecx, DWORD PTR _CONF_LAYOUT_MODULE_NAME
  01e51	51		 push	 ecx
  01e52	8d 8d e8 fe ff
	ff		 lea	 ecx, DWORD PTR $T210326[ebp]
  01e58	ff 15 00 00 00
	00		 call	 DWORD PTR __imp_??0?$basic_string@DU?$char_traits@D@std@@V?$allocator@D@2@@std@@QAE@PBD@Z
  01e5e	c6 45 fc 07	 mov	 BYTE PTR __$EHRec$[ebp+8], 7
  01e62	8d 55 e8	 lea	 edx, DWORD PTR _iWndNormalWidth$[ebp]
  01e65	52		 push	 edx
  01e66	8d 85 04 ff ff
	ff		 lea	 eax, DWORD PTR $T210325[ebp]
  01e6c	50		 push	 eax
  01e6d	8d 8d e8 fe ff
	ff		 lea	 ecx, DWORD PTR $T210326[ebp]
  01e73	51		 push	 ecx
  01e74	e8 00 00 00 00	 call	 ?AfxGetUserConfig@@YAPAVAfxUserConfig@@XZ ; AfxGetUserConfig
  01e79	8b c8		 mov	 ecx, eax
  01e7b	e8 00 00 00 00	 call	 ?GetConfigIntValue@AfxUserConfig@@QAEXABV?$basic_string@DU?$char_traits@D@std@@V?$allocator@D@2@@std@@0AAH@Z ; AfxUserConfig::GetConfigIntValue
  01e80	c6 45 fc 06	 mov	 BYTE PTR __$EHRec$[ebp+8], 6
  01e84	8d 8d e8 fe ff
	ff		 lea	 ecx, DWORD PTR $T210326[ebp]
  01e8a	ff 15 00 00 00
	00		 call	 DWORD PTR __imp_??1?$basic_string@DU?$char_traits@D@std@@V?$allocator@D@2@@std@@QAE@XZ
  01e90	c7 45 fc ff ff
	ff ff		 mov	 DWORD PTR __$EHRec$[ebp+8], -1
  01e97	8d 8d 04 ff ff
	ff		 lea	 ecx, DWORD PTR $T210325[ebp]
  01e9d	ff 15 00 00 00
	00		 call	 DWORD PTR __imp_??1?$basic_string@DU?$char_traits@D@std@@V?$allocator@D@2@@std@@QAE@XZ

; 721  : 	AfxGetUserConfig()->GetConfigIntValue( CONF_LAYOUT_MODULE_NAME,CONF_LAYOUT_X_POS,iXPos);

  01ea3	8b 15 00 00 00
	00		 mov	 edx, DWORD PTR _CONF_LAYOUT_X_POS
  01ea9	52		 push	 edx
  01eaa	8d 8d cc fe ff
	ff		 lea	 ecx, DWORD PTR $T210327[ebp]
  01eb0	ff 15 00 00 00
	00		 call	 DWORD PTR __imp_??0?$basic_string@DU?$char_traits@D@std@@V?$allocator@D@2@@std@@QAE@PBD@Z
  01eb6	c7 45 fc 08 00
	00 00		 mov	 DWORD PTR __$EHRec$[ebp+8], 8
  01ebd	a1 00 00 00 00	 mov	 eax, DWORD PTR _CONF_LAYOUT_MODULE_NAME
  01ec2	50		 push	 eax
  01ec3	8d 8d b0 fe ff
	ff		 lea	 ecx, DWORD PTR $T210328[ebp]
  01ec9	ff 15 00 00 00
	00		 call	 DWORD PTR __imp_??0?$basic_string@DU?$char_traits@D@std@@V?$allocator@D@2@@std@@QAE@PBD@Z
  01ecf	c6 45 fc 09	 mov	 BYTE PTR __$EHRec$[ebp+8], 9
  01ed3	8d 4d f0	 lea	 ecx, DWORD PTR _iXPos$[ebp]
  01ed6	51		 push	 ecx
  01ed7	8d 95 cc fe ff
	ff		 lea	 edx, DWORD PTR $T210327[ebp]
  01edd	52		 push	 edx
  01ede	8d 85 b0 fe ff
	ff		 lea	 eax, DWORD PTR $T210328[ebp]
  01ee4	50		 push	 eax
  01ee5	e8 00 00 00 00	 call	 ?AfxGetUserConfig@@YAPAVAfxUserConfig@@XZ ; AfxGetUserConfig
  01eea	8b c8		 mov	 ecx, eax
  01eec	e8 00 00 00 00	 call	 ?GetConfigIntValue@AfxUserConfig@@QAEXABV?$basic_string@DU?$char_traits@D@std@@V?$allocator@D@2@@std@@0AAH@Z ; AfxUserConfig::GetConfigIntValue
  01ef1	c6 45 fc 08	 mov	 BYTE PTR __$EHRec$[ebp+8], 8
  01ef5	8d 8d b0 fe ff
	ff		 lea	 ecx, DWORD PTR $T210328[ebp]
  01efb	ff 15 00 00 00
	00		 call	 DWORD PTR __imp_??1?$basic_string@DU?$char_traits@D@std@@V?$allocator@D@2@@std@@QAE@XZ
  01f01	c7 45 fc ff ff
	ff ff		 mov	 DWORD PTR __$EHRec$[ebp+8], -1
  01f08	8d 8d cc fe ff
	ff		 lea	 ecx, DWORD PTR $T210327[ebp]
  01f0e	ff 15 00 00 00
	00		 call	 DWORD PTR __imp_??1?$basic_string@DU?$char_traits@D@std@@V?$allocator@D@2@@std@@QAE@XZ

; 722  : 	AfxGetUserConfig()->GetConfigIntValue( CONF_LAYOUT_MODULE_NAME,CONF_LAYOUT_Y_POS,iYPos);

  01f14	8b 0d 00 00 00
	00		 mov	 ecx, DWORD PTR _CONF_LAYOUT_Y_POS
  01f1a	51		 push	 ecx
  01f1b	8d 8d 94 fe ff
	ff		 lea	 ecx, DWORD PTR $T210329[ebp]
  01f21	ff 15 00 00 00
	00		 call	 DWORD PTR __imp_??0?$basic_string@DU?$char_traits@D@std@@V?$allocator@D@2@@std@@QAE@PBD@Z
  01f27	c7 45 fc 0a 00
	00 00		 mov	 DWORD PTR __$EHRec$[ebp+8], 10 ; 0000000aH
  01f2e	8b 15 00 00 00
	00		 mov	 edx, DWORD PTR _CONF_LAYOUT_MODULE_NAME
  01f34	52		 push	 edx
  01f35	8d 8d 78 fe ff
	ff		 lea	 ecx, DWORD PTR $T210330[ebp]
  01f3b	ff 15 00 00 00
	00		 call	 DWORD PTR __imp_??0?$basic_string@DU?$char_traits@D@std@@V?$allocator@D@2@@std@@QAE@PBD@Z
  01f41	c6 45 fc 0b	 mov	 BYTE PTR __$EHRec$[ebp+8], 11 ; 0000000bH
  01f45	8d 45 cc	 lea	 eax, DWORD PTR _iYPos$[ebp]
  01f48	50		 push	 eax
  01f49	8d 8d 94 fe ff
	ff		 lea	 ecx, DWORD PTR $T210329[ebp]
  01f4f	51		 push	 ecx
  01f50	8d 95 78 fe ff
	ff		 lea	 edx, DWORD PTR $T210330[ebp]
  01f56	52		 push	 edx
  01f57	e8 00 00 00 00	 call	 ?AfxGetUserConfig@@YAPAVAfxUserConfig@@XZ ; AfxGetUserConfig
  01f5c	8b c8		 mov	 ecx, eax
  01f5e	e8 00 00 00 00	 call	 ?GetConfigIntValue@AfxUserConfig@@QAEXABV?$basic_string@DU?$char_traits@D@std@@V?$allocator@D@2@@std@@0AAH@Z ; AfxUserConfig::GetConfigIntValue
  01f63	c6 45 fc 0a	 mov	 BYTE PTR __$EHRec$[ebp+8], 10 ; 0000000aH
  01f67	8d 8d 78 fe ff
	ff		 lea	 ecx, DWORD PTR $T210330[ebp]
  01f6d	ff 15 00 00 00
	00		 call	 DWORD PTR __imp_??1?$basic_string@DU?$char_traits@D@std@@V?$allocator@D@2@@std@@QAE@XZ
  01f73	c7 45 fc ff ff
	ff ff		 mov	 DWORD PTR __$EHRec$[ebp+8], -1
  01f7a	8d 8d 94 fe ff
	ff		 lea	 ecx, DWORD PTR $T210329[ebp]
  01f80	ff 15 00 00 00
	00		 call	 DWORD PTR __imp_??1?$basic_string@DU?$char_traits@D@std@@V?$allocator@D@2@@std@@QAE@XZ

; 723  : 
; 724  : 	iWndNormalHeight	= iWndNormalHeight < m_nMinCy ? m_nMinCy : iWndNormalHeight;

  01f86	8b 85 04 fe ff
	ff		 mov	 eax, DWORD PTR _this$[ebp]
  01f8c	8b 4d e4	 mov	 ecx, DWORD PTR _iWndNormalHeight$[ebp]
  01f8f	3b 88 d0 00 00
	00		 cmp	 ecx, DWORD PTR [eax+208]
  01f95	7d 14		 jge	 SHORT $L210331
  01f97	8b 95 04 fe ff
	ff		 mov	 edx, DWORD PTR _this$[ebp]
  01f9d	8b 82 d0 00 00
	00		 mov	 eax, DWORD PTR [edx+208]
  01fa3	89 85 00 fe ff
	ff		 mov	 DWORD PTR tv195[ebp], eax
  01fa9	eb 09		 jmp	 SHORT $L210332
$L210331:
  01fab	8b 4d e4	 mov	 ecx, DWORD PTR _iWndNormalHeight$[ebp]
  01fae	89 8d 00 fe ff
	ff		 mov	 DWORD PTR tv195[ebp], ecx
$L210332:
  01fb4	8b 95 00 fe ff
	ff		 mov	 edx, DWORD PTR tv195[ebp]
  01fba	89 55 e4	 mov	 DWORD PTR _iWndNormalHeight$[ebp], edx

; 725  : 	iWndNormalWidth		= iWndNormalWidth  < m_nMinCx ? m_nMinCx : iWndNormalWidth;

  01fbd	8b 85 04 fe ff
	ff		 mov	 eax, DWORD PTR _this$[ebp]
  01fc3	8b 4d e8	 mov	 ecx, DWORD PTR _iWndNormalWidth$[ebp]
  01fc6	3b 88 cc 00 00
	00		 cmp	 ecx, DWORD PTR [eax+204]
  01fcc	7d 14		 jge	 SHORT $L210333
  01fce	8b 95 04 fe ff
	ff		 mov	 edx, DWORD PTR _this$[ebp]
  01fd4	8b 82 cc 00 00
	00		 mov	 eax, DWORD PTR [edx+204]
  01fda	89 85 fc fd ff
	ff		 mov	 DWORD PTR tv199[ebp], eax
  01fe0	eb 09		 jmp	 SHORT $L210334
$L210333:
  01fe2	8b 4d e8	 mov	 ecx, DWORD PTR _iWndNormalWidth$[ebp]
  01fe5	89 8d fc fd ff
	ff		 mov	 DWORD PTR tv199[ebp], ecx
$L210334:
  01feb	8b 95 fc fd ff
	ff		 mov	 edx, DWORD PTR tv199[ebp]
  01ff1	89 55 e8	 mov	 DWORD PTR _iWndNormalWidth$[ebp], edx

; 726  : 
; 727  : 	if( iXPos < 0 || iXPos > iDesktopWidth )

  01ff4	83 7d f0 00	 cmp	 DWORD PTR _iXPos$[ebp], 0
  01ff8	7c 08		 jl	 SHORT $L208020
  01ffa	8b 45 f0	 mov	 eax, DWORD PTR _iXPos$[ebp]
  01ffd	3b 45 e0	 cmp	 eax, DWORD PTR _iDesktopWidth$[ebp]
  02000	7e 07		 jle	 SHORT $L208019
$L208020:

; 728  : 	{
; 729  : 		iXPos = 100;

  02002	c7 45 f0 64 00
	00 00		 mov	 DWORD PTR _iXPos$[ebp], 100 ; 00000064H
$L208019:

; 730  : 	}
; 731  : 
; 732  : 	if( iYPos < 0 || iYPos > iDesktopHeight )

  02009	83 7d cc 00	 cmp	 DWORD PTR _iYPos$[ebp], 0
  0200d	7c 08		 jl	 SHORT $L208022
  0200f	8b 4d cc	 mov	 ecx, DWORD PTR _iYPos$[ebp]
  02012	3b 4d c8	 cmp	 ecx, DWORD PTR _iDesktopHeight$[ebp]
  02015	7e 07		 jle	 SHORT $L208021
$L208022:

; 733  : 	{
; 734  : 		iYPos = 100;

  02017	c7 45 cc 64 00
	00 00		 mov	 DWORD PTR _iYPos$[ebp], 100 ; 00000064H
$L208021:

; 735  : 	}
; 736  : 
; 737  : 	AfxGetUserConfig()->GetConfigBoolValue( CONF_LAYOUT_MODULE_NAME,CONF_LAYOUT_NORMAL,m_bNormal );	

  0201e	8b 15 00 00 00
	00		 mov	 edx, DWORD PTR _CONF_LAYOUT_NORMAL
  02024	52		 push	 edx
  02025	8d 8d 5c fe ff
	ff		 lea	 ecx, DWORD PTR $T210335[ebp]
  0202b	ff 15 00 00 00
	00		 call	 DWORD PTR __imp_??0?$basic_string@DU?$char_traits@D@std@@V?$allocator@D@2@@std@@QAE@PBD@Z
  02031	c7 45 fc 0c 00
	00 00		 mov	 DWORD PTR __$EHRec$[ebp+8], 12 ; 0000000cH
  02038	a1 00 00 00 00	 mov	 eax, DWORD PTR _CONF_LAYOUT_MODULE_NAME
  0203d	50		 push	 eax
  0203e	8d 8d 40 fe ff
	ff		 lea	 ecx, DWORD PTR $T210336[ebp]
  02044	ff 15 00 00 00
	00		 call	 DWORD PTR __imp_??0?$basic_string@DU?$char_traits@D@std@@V?$allocator@D@2@@std@@QAE@PBD@Z
  0204a	c6 45 fc 0d	 mov	 BYTE PTR __$EHRec$[ebp+8], 13 ; 0000000dH
  0204e	8b 8d 04 fe ff
	ff		 mov	 ecx, DWORD PTR _this$[ebp]
  02054	81 c1 c4 00 00
	00		 add	 ecx, 196		; 000000c4H
  0205a	51		 push	 ecx
  0205b	8d 95 5c fe ff
	ff		 lea	 edx, DWORD PTR $T210335[ebp]
  02061	52		 push	 edx
  02062	8d 85 40 fe ff
	ff		 lea	 eax, DWORD PTR $T210336[ebp]
  02068	50		 push	 eax
  02069	e8 00 00 00 00	 call	 ?AfxGetUserConfig@@YAPAVAfxUserConfig@@XZ ; AfxGetUserConfig
  0206e	8b c8		 mov	 ecx, eax
  02070	e8 00 00 00 00	 call	 ?GetConfigBoolValue@AfxUserConfig@@QAEXABV?$basic_string@DU?$char_traits@D@std@@V?$allocator@D@2@@std@@0AA_N@Z ; AfxUserConfig::GetConfigBoolValue
  02075	c6 45 fc 0c	 mov	 BYTE PTR __$EHRec$[ebp+8], 12 ; 0000000cH
  02079	8d 8d 40 fe ff
	ff		 lea	 ecx, DWORD PTR $T210336[ebp]
  0207f	ff 15 00 00 00
	00		 call	 DWORD PTR __imp_??1?$basic_string@DU?$char_traits@D@std@@V?$allocator@D@2@@std@@QAE@XZ
  02085	c7 45 fc ff ff
	ff ff		 mov	 DWORD PTR __$EHRec$[ebp+8], -1
  0208c	8d 8d 5c fe ff
	ff		 lea	 ecx, DWORD PTR $T210335[ebp]
  02092	ff 15 00 00 00
	00		 call	 DWORD PTR __imp_??1?$basic_string@DU?$char_traits@D@std@@V?$allocator@D@2@@std@@QAE@XZ

; 738  : 	if( m_bNormal)

  02098	8b 8d 04 fe ff
	ff		 mov	 ecx, DWORD PTR _this$[ebp]
  0209e	0f b6 91 c4 00
	00 00		 movzx	 edx, BYTE PTR [ecx+196]
  020a5	85 d2		 test	 edx, edx
  020a7	74 23		 je	 SHORT $L208025

; 739  : 	{
; 740  : 		::MoveWindow( AfxGetMainWindow()->m_hWnd,iXPos,iYPos,iWndNormalWidth,iWndNormalHeight,TRUE);

  020a9	6a 01		 push	 1
  020ab	8b 45 e4	 mov	 eax, DWORD PTR _iWndNormalHeight$[ebp]
  020ae	50		 push	 eax
  020af	8b 4d e8	 mov	 ecx, DWORD PTR _iWndNormalWidth$[ebp]
  020b2	51		 push	 ecx
  020b3	8b 55 cc	 mov	 edx, DWORD PTR _iYPos$[ebp]
  020b6	52		 push	 edx
  020b7	8b 45 f0	 mov	 eax, DWORD PTR _iXPos$[ebp]
  020ba	50		 push	 eax
  020bb	e8 00 00 00 00	 call	 ?AfxGetMainWindow@@YAPAVCWnd@@XZ ; AfxGetMainWindow
  020c0	8b 48 20	 mov	 ecx, DWORD PTR [eax+32]
  020c3	51		 push	 ecx
  020c4	ff 15 00 00 00
	00		 call	 DWORD PTR __imp__MoveWindow@24

; 741  : 	}else

  020ca	eb 1d		 jmp	 SHORT $L208026
$L208025:

; 742  : 	{
; 743  : 		::MoveWindow( AfxGetMainWindow()->m_hWnd,0,0,iDesktopWidth,iDesktopHeight,TRUE);

  020cc	6a 01		 push	 1
  020ce	8b 55 c8	 mov	 edx, DWORD PTR _iDesktopHeight$[ebp]
  020d1	52		 push	 edx
  020d2	8b 45 e0	 mov	 eax, DWORD PTR _iDesktopWidth$[ebp]
  020d5	50		 push	 eax
  020d6	6a 00		 push	 0
  020d8	6a 00		 push	 0
  020da	e8 00 00 00 00	 call	 ?AfxGetMainWindow@@YAPAVCWnd@@XZ ; AfxGetMainWindow
  020df	8b 48 20	 mov	 ecx, DWORD PTR [eax+32]
  020e2	51		 push	 ecx
  020e3	ff 15 00 00 00
	00		 call	 DWORD PTR __imp__MoveWindow@24
$L208026:

; 744  : 	}
; 745  : 
; 746  : 	bool bHold;
; 747  : 	AfxGetUserConfig()->GetConfigBoolValue( CONF_APP_MODULE_NAME,CONF_APP_MAINWND_HOLD,bHold );

  020e9	8b 15 00 00 00
	00		 mov	 edx, DWORD PTR _CONF_APP_MAINWND_HOLD
  020ef	52		 push	 edx
  020f0	8d 8d 24 fe ff
	ff		 lea	 ecx, DWORD PTR $T210337[ebp]
  020f6	ff 15 00 00 00
	00		 call	 DWORD PTR __imp_??0?$basic_string@DU?$char_traits@D@std@@V?$allocator@D@2@@std@@QAE@PBD@Z
  020fc	c7 45 fc 0e 00
	00 00		 mov	 DWORD PTR __$EHRec$[ebp+8], 14 ; 0000000eH
  02103	a1 00 00 00 00	 mov	 eax, DWORD PTR _CONF_APP_MODULE_NAME
  02108	50		 push	 eax
  02109	8d 8d 08 fe ff
	ff		 lea	 ecx, DWORD PTR $T210338[ebp]
  0210f	ff 15 00 00 00
	00		 call	 DWORD PTR __imp_??0?$basic_string@DU?$char_traits@D@std@@V?$allocator@D@2@@std@@QAE@PBD@Z
  02115	c6 45 fc 0f	 mov	 BYTE PTR __$EHRec$[ebp+8], 15 ; 0000000fH
  02119	8d 4d ef	 lea	 ecx, DWORD PTR _bHold$[ebp]
  0211c	51		 push	 ecx
  0211d	8d 95 24 fe ff
	ff		 lea	 edx, DWORD PTR $T210337[ebp]
  02123	52		 push	 edx
  02124	8d 85 08 fe ff
	ff		 lea	 eax, DWORD PTR $T210338[ebp]
  0212a	50		 push	 eax
  0212b	e8 00 00 00 00	 call	 ?AfxGetUserConfig@@YAPAVAfxUserConfig@@XZ ; AfxGetUserConfig
  02130	8b c8		 mov	 ecx, eax
  02132	e8 00 00 00 00	 call	 ?GetConfigBoolValue@AfxUserConfig@@QAEXABV?$basic_string@DU?$char_traits@D@std@@V?$allocator@D@2@@std@@0AA_N@Z ; AfxUserConfig::GetConfigBoolValue
  02137	c6 45 fc 0e	 mov	 BYTE PTR __$EHRec$[ebp+8], 14 ; 0000000eH
  0213b	8d 8d 08 fe ff
	ff		 lea	 ecx, DWORD PTR $T210338[ebp]
  02141	ff 15 00 00 00
	00		 call	 DWORD PTR __imp_??1?$basic_string@DU?$char_traits@D@std@@V?$allocator@D@2@@std@@QAE@XZ
  02147	c7 45 fc ff ff
	ff ff		 mov	 DWORD PTR __$EHRec$[ebp+8], -1
  0214e	8d 8d 24 fe ff
	ff		 lea	 ecx, DWORD PTR $T210337[ebp]
  02154	ff 15 00 00 00
	00		 call	 DWORD PTR __imp_??1?$basic_string@DU?$char_traits@D@std@@V?$allocator@D@2@@std@@QAE@XZ

; 748  : 	if( bHold )

  0215a	0f b6 4d ef	 movzx	 ecx, BYTE PTR _bHold$[ebp]
  0215e	85 c9		 test	 ecx, ecx
  02160	74 1c		 je	 SHORT $L207994

; 749  : 	{
; 750  : 		SetWindowPos(&wndTopMost,-1,-1,-1,-1, SWP_NOSIZE|SWP_NOMOVE);

  02162	6a 03		 push	 3
  02164	6a ff		 push	 -1
  02166	6a ff		 push	 -1
  02168	6a ff		 push	 -1
  0216a	6a ff		 push	 -1
  0216c	8b 15 00 00 00
	00		 mov	 edx, DWORD PTR __imp_?wndTopMost@CWnd@@2V1@B
  02172	52		 push	 edx
  02173	8b 8d 04 fe ff
	ff		 mov	 ecx, DWORD PTR _this$[ebp]
  02179	e8 00 00 00 00	 call	 ?SetWindowPos@CWnd@@QAEHPBV1@HHHHI@Z ; CWnd::SetWindowPos
$L207994:

; 751  : 	}		
; 752  : }

  0217e	8b 4d f4	 mov	 ecx, DWORD PTR __$EHRec$[ebp]
  02181	64 89 0d 00 00
	00 00		 mov	 DWORD PTR fs:__except_list, ecx
  02188	8b e5		 mov	 esp, ebp
  0218a	5d		 pop	 ebp
  0218b	c3		 ret	 0
_TEXT	ENDS
text$x	SEGMENT
$L210339:
  0020c	8d 4d ac	 lea	 ecx, DWORD PTR $T210319[ebp]
  0020f	ff 25 00 00 00
	00		 jmp	 DWORD PTR __imp_??1?$basic_string@DU?$char_traits@D@std@@V?$allocator@D@2@@std@@QAE@XZ
$L210340:
  00215	8d 4d 90	 lea	 ecx, DWORD PTR $T210320[ebp]
  00218	ff 25 00 00 00
	00		 jmp	 DWORD PTR __imp_??1?$basic_string@DU?$char_traits@D@std@@V?$allocator@D@2@@std@@QAE@XZ
$L210341:
  0021e	8d 8d 74 ff ff
	ff		 lea	 ecx, DWORD PTR $T210321[ebp]
  00224	ff 25 00 00 00
	00		 jmp	 DWORD PTR __imp_??1?$basic_string@DU?$char_traits@D@std@@V?$allocator@D@2@@std@@QAE@XZ
$L210342:
  0022a	8d 8d 58 ff ff
	ff		 lea	 ecx, DWORD PTR $T210322[ebp]
  00230	ff 25 00 00 00
	00		 jmp	 DWORD PTR __imp_??1?$basic_string@DU?$char_traits@D@std@@V?$allocator@D@2@@std@@QAE@XZ
$L210343:
  00236	8d 8d 3c ff ff
	ff		 lea	 ecx, DWORD PTR $T210323[ebp]
  0023c	ff 25 00 00 00
	00		 jmp	 DWORD PTR __imp_??1?$basic_string@DU?$char_traits@D@std@@V?$allocator@D@2@@std@@QAE@XZ
$L210344:
  00242	8d 8d 20 ff ff
	ff		 lea	 ecx, DWORD PTR $T210324[ebp]
  00248	ff 25 00 00 00
	00		 jmp	 DWORD PTR __imp_??1?$basic_string@DU?$char_traits@D@std@@V?$allocator@D@2@@std@@QAE@XZ
$L210345:
  0024e	8d 8d 04 ff ff
	ff		 lea	 ecx, DWORD PTR $T210325[ebp]
  00254	ff 25 00 00 00
	00		 jmp	 DWORD PTR __imp_??1?$basic_string@DU?$char_traits@D@std@@V?$allocator@D@2@@std@@QAE@XZ
$L210346:
  0025a	8d 8d e8 fe ff
	ff		 lea	 ecx, DWORD PTR $T210326[ebp]
  00260	ff 25 00 00 00
	00		 jmp	 DWORD PTR __imp_??1?$basic_string@DU?$char_traits@D@std@@V?$allocator@D@2@@std@@QAE@XZ
$L210347:
  00266	8d 8d cc fe ff
	ff		 lea	 ecx, DWORD PTR $T210327[ebp]
  0026c	ff 25 00 00 00
	00		 jmp	 DWORD PTR __imp_??1?$basic_string@DU?$char_traits@D@std@@V?$allocator@D@2@@std@@QAE@XZ
$L210348:
  00272	8d 8d b0 fe ff
	ff		 lea	 ecx, DWORD PTR $T210328[ebp]
  00278	ff 25 00 00 00
	00		 jmp	 DWORD PTR __imp_??1?$basic_string@DU?$char_traits@D@std@@V?$allocator@D@2@@std@@QAE@XZ
$L210349:
  0027e	8d 8d 94 fe ff
	ff		 lea	 ecx, DWORD PTR $T210329[ebp]
  00284	ff 25 00 00 00
	00		 jmp	 DWORD PTR __imp_??1?$basic_string@DU?$char_traits@D@std@@V?$allocator@D@2@@std@@QAE@XZ
$L210350:
  0028a	8d 8d 78 fe ff
	ff		 lea	 ecx, DWORD PTR $T210330[ebp]
  00290	ff 25 00 00 00
	00		 jmp	 DWORD PTR __imp_??1?$basic_string@DU?$char_traits@D@std@@V?$allocator@D@2@@std@@QAE@XZ
$L210351:
  00296	8d 8d 5c fe ff
	ff		 lea	 ecx, DWORD PTR $T210335[ebp]
  0029c	ff 25 00 00 00
	00		 jmp	 DWORD PTR __imp_??1?$basic_string@DU?$char_traits@D@std@@V?$allocator@D@2@@std@@QAE@XZ
$L210352:
  002a2	8d 8d 40 fe ff
	ff		 lea	 ecx, DWORD PTR $T210336[ebp]
  002a8	ff 25 00 00 00
	00		 jmp	 DWORD PTR __imp_??1?$basic_string@DU?$char_traits@D@std@@V?$allocator@D@2@@std@@QAE@XZ
$L210353:
  002ae	8d 8d 24 fe ff
	ff		 lea	 ecx, DWORD PTR $T210337[ebp]
  002b4	ff 25 00 00 00
	00		 jmp	 DWORD PTR __imp_??1?$basic_string@DU?$char_traits@D@std@@V?$allocator@D@2@@std@@QAE@XZ
$L210354:
  002ba	8d 8d 08 fe ff
	ff		 lea	 ecx, DWORD PTR $T210338[ebp]
  002c0	ff 25 00 00 00
	00		 jmp	 DWORD PTR __imp_??1?$basic_string@DU?$char_traits@D@std@@V?$allocator@D@2@@std@@QAE@XZ
__ehhandler$?_AdjustDlgSize@CPlayBoxDlg@@AAEXXZ:
  002c6	b8 00 00 00 00	 mov	 eax, OFFSET FLAT:$T210356
  002cb	e9 00 00 00 00	 jmp	 ___CxxFrameHandler
text$x	ENDS
?_AdjustDlgSize@CPlayBoxDlg@@AAEXXZ ENDP		; CPlayBoxDlg::_AdjustDlgSize
PUBLIC	?OnSysCommand@CWnd@@IAEXIJ@Z			; CWnd::OnSysCommand
; Function compile flags: /Odt
_TEXT	SEGMENT
tv138 = -40						; size = 4
tv132 = -36						; size = 4
tv95 = -32						; size = 4
tv89 = -28						; size = 4
tv84 = -24						; size = 4
tv78 = -20						; size = 4
tv73 = -16						; size = 4
tv67 = -12						; size = 4
tv64 = -8						; size = 4
_this$ = -4						; size = 4
_nID$ = 8						; size = 4
_lParam$ = 12						; size = 4
?OnSysCommand@CPlayBoxDlg@@QAEXIJ@Z PROC NEAR		; CPlayBoxDlg::OnSysCommand
; _this$ = ecx

; 756  : {

  02190	55		 push	 ebp
  02191	8b ec		 mov	 ebp, esp
  02193	83 ec 28	 sub	 esp, 40			; 00000028H
  02196	89 4d fc	 mov	 DWORD PTR _this$[ebp], ecx

; 757  : 	switch( nID )

  02199	8b 45 08	 mov	 eax, DWORD PTR _nID$[ebp]
  0219c	89 45 f8	 mov	 DWORD PTR tv64[ebp], eax
  0219f	81 7d f8 60 f0
	00 00		 cmp	 DWORD PTR tv64[ebp], 61536 ; 0000f060H
  021a6	77 24		 ja	 SHORT $L210360
  021a8	81 7d f8 60 f0
	00 00		 cmp	 DWORD PTR tv64[ebp], 61536 ; 0000f060H
  021af	0f 84 a0 00 00
	00		 je	 $L208046
  021b5	81 7d f8 20 f0
	00 00		 cmp	 DWORD PTR tv64[ebp], 61472 ; 0000f020H
  021bc	74 47		 je	 SHORT $L208042
  021be	81 7d f8 30 f0
	00 00		 cmp	 DWORD PTR tv64[ebp], 61488 ; 0000f030H
  021c5	74 13		 je	 SHORT $L208040
  021c7	e9 b1 00 00 00	 jmp	 $L208048
$L210360:
  021cc	81 7d f8 20 f1
	00 00		 cmp	 DWORD PTR tv64[ebp], 61728 ; 0000f120H
  021d3	74 58		 je	 SHORT $L208044
  021d5	e9 a3 00 00 00	 jmp	 $L208048
$L208040:

; 758  : 	{
; 759  : 	case SC_MAXIMIZE:
; 760  : 		GLOBAL_PANELCHANGEDATA->IPanelChange_Max();

  021da	e8 00 00 00 00	 call	 ?AfxGetDataManager2@@YAPAVIDataManager@@XZ ; AfxGetDataManager2
  021df	89 45 f4	 mov	 DWORD PTR tv67[ebp], eax
  021e2	68 00 00 00 00	 push	 OFFSET FLAT:_ID_DATA_PANELCHANGE
  021e7	8b 4d f4	 mov	 ecx, DWORD PTR tv67[ebp]
  021ea	8b 11		 mov	 edx, DWORD PTR [ecx]
  021ec	8b 4d f4	 mov	 ecx, DWORD PTR tv67[ebp]
  021ef	ff 52 0c	 call	 DWORD PTR [edx+12]
  021f2	89 45 f0	 mov	 DWORD PTR tv73[ebp], eax
  021f5	8b 45 f0	 mov	 eax, DWORD PTR tv73[ebp]
  021f8	8b 10		 mov	 edx, DWORD PTR [eax]
  021fa	8b 4d f0	 mov	 ecx, DWORD PTR tv73[ebp]
  021fd	ff 52 18	 call	 DWORD PTR [edx+24]

; 761  : 		break;

  02200	e9 88 00 00 00	 jmp	 $L208035
$L208042:

; 762  : 	case SC_MINIMIZE:
; 763  : 		GLOBAL_PANELCHANGEDATA->IPanelChange_Min();

  02205	e8 00 00 00 00	 call	 ?AfxGetDataManager2@@YAPAVIDataManager@@XZ ; AfxGetDataManager2
  0220a	89 45 ec	 mov	 DWORD PTR tv78[ebp], eax
  0220d	68 00 00 00 00	 push	 OFFSET FLAT:_ID_DATA_PANELCHANGE
  02212	8b 45 ec	 mov	 eax, DWORD PTR tv78[ebp]
  02215	8b 10		 mov	 edx, DWORD PTR [eax]
  02217	8b 4d ec	 mov	 ecx, DWORD PTR tv78[ebp]
  0221a	ff 52 0c	 call	 DWORD PTR [edx+12]
  0221d	89 45 e8	 mov	 DWORD PTR tv84[ebp], eax
  02220	8b 45 e8	 mov	 eax, DWORD PTR tv84[ebp]
  02223	8b 10		 mov	 edx, DWORD PTR [eax]
  02225	8b 4d e8	 mov	 ecx, DWORD PTR tv84[ebp]
  02228	ff 52 1c	 call	 DWORD PTR [edx+28]

; 764  : 		break;

  0222b	eb 60		 jmp	 SHORT $L208035
$L208044:

; 765  : 	case SC_RESTORE:
; 766  : 		GLOBAL_PANELCHANGEDATA->IPanelChange_Restore();

  0222d	e8 00 00 00 00	 call	 ?AfxGetDataManager2@@YAPAVIDataManager@@XZ ; AfxGetDataManager2
  02232	89 45 e4	 mov	 DWORD PTR tv89[ebp], eax
  02235	68 00 00 00 00	 push	 OFFSET FLAT:_ID_DATA_PANELCHANGE
  0223a	8b 45 e4	 mov	 eax, DWORD PTR tv89[ebp]
  0223d	8b 10		 mov	 edx, DWORD PTR [eax]
  0223f	8b 4d e4	 mov	 ecx, DWORD PTR tv89[ebp]
  02242	ff 52 0c	 call	 DWORD PTR [edx+12]
  02245	89 45 e0	 mov	 DWORD PTR tv95[ebp], eax
  02248	8b 45 e0	 mov	 eax, DWORD PTR tv95[ebp]
  0224b	8b 10		 mov	 edx, DWORD PTR [eax]
  0224d	8b 4d e0	 mov	 ecx, DWORD PTR tv95[ebp]
  02250	ff 52 20	 call	 DWORD PTR [edx+32]

; 767  : 		break;

  02253	eb 38		 jmp	 SHORT $L208035
$L208046:

; 768  : 	case SC_CLOSE:
; 769  : 		GLOBAL_PANELCHANGEDATA->IPanelChange_Close();

  02255	e8 00 00 00 00	 call	 ?AfxGetDataManager2@@YAPAVIDataManager@@XZ ; AfxGetDataManager2
  0225a	89 45 dc	 mov	 DWORD PTR tv132[ebp], eax
  0225d	68 00 00 00 00	 push	 OFFSET FLAT:_ID_DATA_PANELCHANGE
  02262	8b 45 dc	 mov	 eax, DWORD PTR tv132[ebp]
  02265	8b 10		 mov	 edx, DWORD PTR [eax]
  02267	8b 4d dc	 mov	 ecx, DWORD PTR tv132[ebp]
  0226a	ff 52 0c	 call	 DWORD PTR [edx+12]
  0226d	89 45 d8	 mov	 DWORD PTR tv138[ebp], eax
  02270	8b 45 d8	 mov	 eax, DWORD PTR tv138[ebp]
  02273	8b 10		 mov	 edx, DWORD PTR [eax]
  02275	8b 4d d8	 mov	 ecx, DWORD PTR tv138[ebp]
  02278	ff 52 24	 call	 DWORD PTR [edx+36]

; 770  : 		break;

  0227b	eb 10		 jmp	 SHORT $L208035
$L208048:

; 771  : 	default:
; 772  : 		__super::OnSysCommand(nID, lParam);	

  0227d	8b 45 0c	 mov	 eax, DWORD PTR _lParam$[ebp]
  02280	50		 push	 eax
  02281	8b 4d 08	 mov	 ecx, DWORD PTR _nID$[ebp]
  02284	51		 push	 ecx
  02285	8b 4d fc	 mov	 ecx, DWORD PTR _this$[ebp]
  02288	e8 00 00 00 00	 call	 ?OnSysCommand@CWnd@@IAEXIJ@Z ; CWnd::OnSysCommand
$L208035:

; 773  : 		break;
; 774  : 	}
; 775  : }

  0228d	8b e5		 mov	 esp, ebp
  0228f	5d		 pop	 ebp
  02290	c2 08 00	 ret	 8
?OnSysCommand@CPlayBoxDlg@@QAEXIJ@Z ENDP		; CPlayBoxDlg::OnSysCommand
_TEXT	ENDS
PUBLIC	?EnableMenuItem@CMenu@@QAEIII@Z			; CMenu::EnableMenuItem
PUBLIC	?GetSystemMenu@CWnd@@QBEPAVCMenu@@H@Z		; CWnd::GetSystemMenu
; Function compile flags: /Odt
_TEXT	SEGMENT
_this$ = -8						; size = 4
_pMenu$ = -4						; size = 4
?IPanelChangeOb_WindowMax@CPlayBoxDlg@@UAEXXZ PROC NEAR	; CPlayBoxDlg::IPanelChangeOb_WindowMax
; _this$ = ecx

; 778  : {

  022a0	55		 push	 ebp
  022a1	8b ec		 mov	 ebp, esp
  022a3	83 ec 08	 sub	 esp, 8
  022a6	89 4d f8	 mov	 DWORD PTR _this$[ebp], ecx

; 779  : 	ModifyStyle(WS_MAXIMIZEBOX,WS_MINIMIZEBOX);

  022a9	6a 00		 push	 0
  022ab	68 00 00 02 00	 push	 131072			; 00020000H
  022b0	68 00 00 01 00	 push	 65536			; 00010000H
  022b5	8b 4d f8	 mov	 ecx, DWORD PTR _this$[ebp]
  022b8	83 e9 7c	 sub	 ecx, 124		; 0000007cH
  022bb	e8 00 00 00 00	 call	 ?ModifyStyle@CWnd@@QAEHKKI@Z ; CWnd::ModifyStyle

; 780  : 	CMenu* pMenu = GetSystemMenu(FALSE);

  022c0	6a 00		 push	 0
  022c2	8b 4d f8	 mov	 ecx, DWORD PTR _this$[ebp]
  022c5	83 e9 7c	 sub	 ecx, 124		; 0000007cH
  022c8	e8 00 00 00 00	 call	 ?GetSystemMenu@CWnd@@QBEPAVCMenu@@H@Z ; CWnd::GetSystemMenu
  022cd	89 45 fc	 mov	 DWORD PTR _pMenu$[ebp], eax

; 781  : 	if(pMenu)

  022d0	83 7d fc 00	 cmp	 DWORD PTR _pMenu$[ebp], 0
  022d4	74 1e		 je	 SHORT $L208051

; 782  : 	{
; 783  : 		pMenu->EnableMenuItem(SC_MAXIMIZE,MF_BYCOMMAND|MF_DISABLED);

  022d6	6a 02		 push	 2
  022d8	68 30 f0 00 00	 push	 61488			; 0000f030H
  022dd	8b 4d fc	 mov	 ecx, DWORD PTR _pMenu$[ebp]
  022e0	e8 00 00 00 00	 call	 ?EnableMenuItem@CMenu@@QAEIII@Z ; CMenu::EnableMenuItem

; 784  : 		pMenu->EnableMenuItem(SC_MINIMIZE,MF_BYCOMMAND|MF_ENABLED);	

  022e5	6a 00		 push	 0
  022e7	68 20 f0 00 00	 push	 61472			; 0000f020H
  022ec	8b 4d fc	 mov	 ecx, DWORD PTR _pMenu$[ebp]
  022ef	e8 00 00 00 00	 call	 ?EnableMenuItem@CMenu@@QAEIII@Z ; CMenu::EnableMenuItem
$L208051:

; 785  : 	}
; 786  : }

  022f4	8b e5		 mov	 esp, ebp
  022f6	5d		 pop	 ebp
  022f7	c3		 ret	 0
?IPanelChangeOb_WindowMax@CPlayBoxDlg@@UAEXXZ ENDP	; CPlayBoxDlg::IPanelChangeOb_WindowMax
; Function compile flags: /Odt
_this$ = -8						; size = 4
_pMenu$ = -4						; size = 4
?IPanelChangeOb_WindowMin@CPlayBoxDlg@@UAEXXZ PROC NEAR	; CPlayBoxDlg::IPanelChangeOb_WindowMin
; _this$ = ecx

; 789  : {

  02300	55		 push	 ebp
  02301	8b ec		 mov	 ebp, esp
  02303	83 ec 08	 sub	 esp, 8
  02306	89 4d f8	 mov	 DWORD PTR _this$[ebp], ecx

; 790  : 	ModifyStyle(WS_MINIMIZEBOX,WS_MAXIMIZEBOX);

  02309	6a 00		 push	 0
  0230b	68 00 00 01 00	 push	 65536			; 00010000H
  02310	68 00 00 02 00	 push	 131072			; 00020000H
  02315	8b 4d f8	 mov	 ecx, DWORD PTR _this$[ebp]
  02318	83 e9 7c	 sub	 ecx, 124		; 0000007cH
  0231b	e8 00 00 00 00	 call	 ?ModifyStyle@CWnd@@QAEHKKI@Z ; CWnd::ModifyStyle

; 791  : 	CMenu* pMenu = GetSystemMenu(FALSE);

  02320	6a 00		 push	 0
  02322	8b 4d f8	 mov	 ecx, DWORD PTR _this$[ebp]
  02325	83 e9 7c	 sub	 ecx, 124		; 0000007cH
  02328	e8 00 00 00 00	 call	 ?GetSystemMenu@CWnd@@QBEPAVCMenu@@H@Z ; CWnd::GetSystemMenu
  0232d	89 45 fc	 mov	 DWORD PTR _pMenu$[ebp], eax

; 792  : 	if(pMenu)

  02330	83 7d fc 00	 cmp	 DWORD PTR _pMenu$[ebp], 0
  02334	74 1e		 je	 SHORT $L208056

; 793  : 	{
; 794  : 		pMenu->EnableMenuItem(SC_MAXIMIZE,MF_BYCOMMAND|MF_ENABLED);

  02336	6a 00		 push	 0
  02338	68 30 f0 00 00	 push	 61488			; 0000f030H
  0233d	8b 4d fc	 mov	 ecx, DWORD PTR _pMenu$[ebp]
  02340	e8 00 00 00 00	 call	 ?EnableMenuItem@CMenu@@QAEIII@Z ; CMenu::EnableMenuItem

; 795  : 		pMenu->EnableMenuItem(SC_MINIMIZE,MF_BYCOMMAND|MF_DISABLED);

  02345	6a 02		 push	 2
  02347	68 20 f0 00 00	 push	 61472			; 0000f020H
  0234c	8b 4d fc	 mov	 ecx, DWORD PTR _pMenu$[ebp]
  0234f	e8 00 00 00 00	 call	 ?EnableMenuItem@CMenu@@QAEIII@Z ; CMenu::EnableMenuItem
$L208056:

; 796  : 	}
; 797  : }

  02354	8b e5		 mov	 esp, ebp
  02356	5d		 pop	 ebp
  02357	c3		 ret	 0
?IPanelChangeOb_WindowMin@CPlayBoxDlg@@UAEXXZ ENDP	; CPlayBoxDlg::IPanelChangeOb_WindowMin
; Function compile flags: /Odt
_this$ = -8						; size = 4
_pMenu$ = -4						; size = 4
?IPanelChangeOb_WindowRestore@CPlayBoxDlg@@UAEXXZ PROC NEAR ; CPlayBoxDlg::IPanelChangeOb_WindowRestore
; _this$ = ecx

; 800  : {

  02360	55		 push	 ebp
  02361	8b ec		 mov	 ebp, esp
  02363	83 ec 08	 sub	 esp, 8
  02366	89 4d f8	 mov	 DWORD PTR _this$[ebp], ecx

; 801  : 	ModifyStyle(0,WS_MAXIMIZEBOX|WS_MINIMIZEBOX);

  02369	6a 00		 push	 0
  0236b	68 00 00 03 00	 push	 196608			; 00030000H
  02370	6a 00		 push	 0
  02372	8b 4d f8	 mov	 ecx, DWORD PTR _this$[ebp]
  02375	83 e9 7c	 sub	 ecx, 124		; 0000007cH
  02378	e8 00 00 00 00	 call	 ?ModifyStyle@CWnd@@QAEHKKI@Z ; CWnd::ModifyStyle

; 802  : 	CMenu* pMenu = GetSystemMenu(FALSE);

  0237d	6a 00		 push	 0
  0237f	8b 4d f8	 mov	 ecx, DWORD PTR _this$[ebp]
  02382	83 e9 7c	 sub	 ecx, 124		; 0000007cH
  02385	e8 00 00 00 00	 call	 ?GetSystemMenu@CWnd@@QBEPAVCMenu@@H@Z ; CWnd::GetSystemMenu
  0238a	89 45 fc	 mov	 DWORD PTR _pMenu$[ebp], eax

; 803  : 	if(pMenu)

  0238d	83 7d fc 00	 cmp	 DWORD PTR _pMenu$[ebp], 0
  02391	74 1e		 je	 SHORT $L208061

; 804  : 	{
; 805  : 		pMenu->EnableMenuItem(SC_MAXIMIZE,MF_BYCOMMAND|MF_ENABLED);

  02393	6a 00		 push	 0
  02395	68 30 f0 00 00	 push	 61488			; 0000f030H
  0239a	8b 4d fc	 mov	 ecx, DWORD PTR _pMenu$[ebp]
  0239d	e8 00 00 00 00	 call	 ?EnableMenuItem@CMenu@@QAEIII@Z ; CMenu::EnableMenuItem

; 806  : 		pMenu->EnableMenuItem(SC_MINIMIZE,MF_BYCOMMAND|MF_ENABLED);

  023a2	6a 00		 push	 0
  023a4	68 20 f0 00 00	 push	 61472			; 0000f020H
  023a9	8b 4d fc	 mov	 ecx, DWORD PTR _pMenu$[ebp]
  023ac	e8 00 00 00 00	 call	 ?EnableMenuItem@CMenu@@QAEIII@Z ; CMenu::EnableMenuItem
$L208061:

; 807  : 	}
; 808  : }

  023b1	8b e5		 mov	 esp, ebp
  023b3	5d		 pop	 ebp
  023b4	c3		 ret	 0
?IPanelChangeOb_WindowRestore@CPlayBoxDlg@@UAEXXZ ENDP	; CPlayBoxDlg::IPanelChangeOb_WindowRestore
_TEXT	ENDS
PUBLIC	??_DCConfigDialog@@QAEXXZ			; CConfigDialog::`vbase destructor'
EXTRN	??0CConfigDialog@@QAE@HPAVCWnd@@@Z:NEAR		; CConfigDialog::CConfigDialog
xdata$x	SEGMENT
$T210371 DD	0ffffffffH
	DD	FLAT:$L210366
$T210368 DD	019930520H
	DD	01H
	DD	FLAT:$T210371
	DD	2 DUP(00H)
	DD	2 DUP(00H)
; Function compile flags: /Odt
xdata$x	ENDS
_TEXT	SEGMENT
_this$ = -1288						; size = 4
_configDlg$ = -1284					; size = 1260
__$ArrayPad$ = -16					; size = 4
__$EHRec$ = -12						; size = 12
__$ReturnAddr$ = 4					; size = 4
?OnTrayMenuSetting@CPlayBoxDlg@@QAEXXZ PROC NEAR	; CPlayBoxDlg::OnTrayMenuSetting
; _this$ = ecx

; 811  : {

  023c0	55		 push	 ebp
  023c1	8b ec		 mov	 ebp, esp
  023c3	6a ff		 push	 -1
  023c5	68 00 00 00 00	 push	 __ehhandler$?OnTrayMenuSetting@CPlayBoxDlg@@QAEXXZ
  023ca	64 a1 00 00 00
	00		 mov	 eax, DWORD PTR fs:__except_list
  023d0	50		 push	 eax
  023d1	64 89 25 00 00
	00 00		 mov	 DWORD PTR fs:__except_list, esp
  023d8	81 ec fc 04 00
	00		 sub	 esp, 1276		; 000004fcH
  023de	a1 00 00 00 00	 mov	 eax, DWORD PTR ___security_cookie
  023e3	89 45 f0	 mov	 DWORD PTR __$ArrayPad$[ebp], eax
  023e6	89 8d f8 fa ff
	ff		 mov	 DWORD PTR _this$[ebp], ecx

; 812  : 	CConfigDialog configDlg(0, AfxGetMainWindow());

  023ec	6a 01		 push	 1
  023ee	e8 00 00 00 00	 call	 ?AfxGetMainWindow@@YAPAVCWnd@@XZ ; AfxGetMainWindow
  023f3	50		 push	 eax
  023f4	6a 00		 push	 0
  023f6	8d 8d fc fa ff
	ff		 lea	 ecx, DWORD PTR _configDlg$[ebp]
  023fc	e8 00 00 00 00	 call	 ??0CConfigDialog@@QAE@HPAVCWnd@@@Z ; CConfigDialog::CConfigDialog
  02401	c7 45 fc 00 00
	00 00		 mov	 DWORD PTR __$EHRec$[ebp+8], 0

; 813  : 	configDlg.DoModal();

  02408	8d 8d fc fa ff
	ff		 lea	 ecx, DWORD PTR _configDlg$[ebp]
  0240e	e8 00 00 00 00	 call	 ?DoModal@CDialog@@UAEHXZ ; CDialog::DoModal

; 814  : }

  02413	c7 45 fc ff ff
	ff ff		 mov	 DWORD PTR __$EHRec$[ebp+8], -1
  0241a	8d 8d fc fa ff
	ff		 lea	 ecx, DWORD PTR _configDlg$[ebp]
  02420	e8 00 00 00 00	 call	 ??_DCConfigDialog@@QAEXXZ
  02425	8b 4d f4	 mov	 ecx, DWORD PTR __$EHRec$[ebp]
  02428	64 89 0d 00 00
	00 00		 mov	 DWORD PTR fs:__except_list, ecx
  0242f	8b 4d f0	 mov	 ecx, DWORD PTR __$ArrayPad$[ebp]
  02432	e8 00 00 00 00	 call	 @__security_check_cookie@4
  02437	8b e5		 mov	 esp, ebp
  02439	5d		 pop	 ebp
  0243a	c3		 ret	 0
_TEXT	ENDS
text$x	SEGMENT
$L210366:
  002d0	8d 8d fc fa ff
	ff		 lea	 ecx, DWORD PTR _configDlg$[ebp]
  002d6	e9 00 00 00 00	 jmp	 ??_DCConfigDialog@@QAEXXZ
__ehhandler$?OnTrayMenuSetting@CPlayBoxDlg@@QAEXXZ:
  002db	b8 00 00 00 00	 mov	 eax, OFFSET FLAT:$T210368
  002e0	e9 00 00 00 00	 jmp	 ___CxxFrameHandler
text$x	ENDS
?OnTrayMenuSetting@CPlayBoxDlg@@QAEXXZ ENDP		; CPlayBoxDlg::OnTrayMenuSetting
EXTRN	??1CConfigDialog@@UAE@XZ:NEAR			; CConfigDialog::~CConfigDialog
; Function compile flags: /Odt
;	COMDAT ??_DCConfigDialog@@QAEXXZ
_TEXT	SEGMENT
_this$ = -4						; size = 4
??_DCConfigDialog@@QAEXXZ PROC NEAR			; CConfigDialog::`vbase destructor', COMDAT
; _this$ = ecx
  00000	55		 push	 ebp
  00001	8b ec		 mov	 ebp, esp
  00003	51		 push	 ecx
  00004	89 4d fc	 mov	 DWORD PTR _this$[ebp], ecx
  00007	8b 4d fc	 mov	 ecx, DWORD PTR _this$[ebp]
  0000a	e8 00 00 00 00	 call	 ??1CConfigDialog@@UAE@XZ ; CConfigDialog::~CConfigDialog
  0000f	8b 4d fc	 mov	 ecx, DWORD PTR _this$[ebp]
  00012	81 c1 e8 04 00
	00		 add	 ecx, 1256		; 000004e8H
  00018	e8 00 00 00 00	 call	 ??1IMessageObserver@@UAE@XZ ; IMessageObserver::~IMessageObserver
  0001d	8b e5		 mov	 esp, ebp
  0001f	5d		 pop	 ebp
  00020	c3		 ret	 0
??_DCConfigDialog@@QAEXXZ ENDP				; CConfigDialog::`vbase destructor'
_TEXT	ENDS
PUBLIC	?IsWindowVisible@CWnd@@QBEHXZ			; CWnd::IsWindowVisible
PUBLIC	?GetSafeHwnd@CWnd@@QBEPAUHWND__@@XZ		; CWnd::GetSafeHwnd
EXTRN	__imp__SetForegroundWindow@4:NEAR
; Function compile flags: /Odt
_TEXT	SEGMENT
tv132 = -24						; size = 4
tv94 = -20						; size = 4
tv86 = -16						; size = 4
tv80 = -12						; size = 4
_this$ = -8						; size = 4
_hMainWnd$ = -4						; size = 4
?OnTrayMenuOpen@CPlayBoxDlg@@QAEXXZ PROC NEAR		; CPlayBoxDlg::OnTrayMenuOpen
; _this$ = ecx

; 817  : {

  02440	55		 push	 ebp
  02441	8b ec		 mov	 ebp, esp
  02443	83 ec 18	 sub	 esp, 24			; 00000018H
  02446	89 4d f8	 mov	 DWORD PTR _this$[ebp], ecx

; 818  : 	HWND hMainWnd = m_hWnd;

  02449	8b 45 f8	 mov	 eax, DWORD PTR _this$[ebp]
  0244c	8b 48 20	 mov	 ecx, DWORD PTR [eax+32]
  0244f	89 4d fc	 mov	 DWORD PTR _hMainWnd$[ebp], ecx

; 819  : 
; 820  : 	if(!m_ptrayIcon->m_bDbClicked)//

  02452	8b 55 f8	 mov	 edx, DWORD PTR _this$[ebp]
  02455	8b 82 90 00 00
	00		 mov	 eax, DWORD PTR [edx+144]
  0245b	0f b6 88 08 03
	00 00		 movzx	 ecx, BYTE PTR [eax+776]
  02462	85 c9		 test	 ecx, ecx
  02464	0f 85 8b 00 00
	00		 jne	 $L208072

; 821  : 	{
; 822  : 		//if( !IsWindowVisible() )//
; 823  : // 		if( IsWindowVisible() && IsIconic() )//
; 824  : 		if (!IsWindowVisible () ||
; 825  : 			IsWindowVisible () && IsIconic ())

  0246a	8b 4d f8	 mov	 ecx, DWORD PTR _this$[ebp]
  0246d	e8 00 00 00 00	 call	 ?IsWindowVisible@CWnd@@QBEHXZ ; CWnd::IsWindowVisible
  02472	85 c0		 test	 eax, eax
  02474	74 18		 je	 SHORT $L208076
  02476	8b 4d f8	 mov	 ecx, DWORD PTR _this$[ebp]
  02479	e8 00 00 00 00	 call	 ?IsWindowVisible@CWnd@@QBEHXZ ; CWnd::IsWindowVisible
  0247e	85 c0		 test	 eax, eax
  02480	74 43		 je	 SHORT $L208075
  02482	8b 4d f8	 mov	 ecx, DWORD PTR _this$[ebp]
  02485	e8 00 00 00 00	 call	 ?IsIconic@CWnd@@QBEHXZ	; CWnd::IsIconic
  0248a	85 c0		 test	 eax, eax
  0248c	74 37		 je	 SHORT $L208075
$L208076:

; 826  : 		{
; 827  : 			GLOBAL_PANELCHANGEDATA->IPanelChange_Restore();

  0248e	e8 00 00 00 00	 call	 ?AfxGetDataManager2@@YAPAVIDataManager@@XZ ; AfxGetDataManager2
  02493	89 45 f4	 mov	 DWORD PTR tv80[ebp], eax
  02496	68 00 00 00 00	 push	 OFFSET FLAT:_ID_DATA_PANELCHANGE
  0249b	8b 55 f4	 mov	 edx, DWORD PTR tv80[ebp]
  0249e	8b 02		 mov	 eax, DWORD PTR [edx]
  024a0	8b 4d f4	 mov	 ecx, DWORD PTR tv80[ebp]
  024a3	ff 50 0c	 call	 DWORD PTR [eax+12]
  024a6	89 45 f0	 mov	 DWORD PTR tv86[ebp], eax
  024a9	8b 4d f0	 mov	 ecx, DWORD PTR tv86[ebp]
  024ac	8b 11		 mov	 edx, DWORD PTR [ecx]
  024ae	8b 4d f0	 mov	 ecx, DWORD PTR tv86[ebp]
  024b1	ff 52 20	 call	 DWORD PTR [edx+32]

; 828  : 			::SetForegroundWindow( GetSafeHwnd() );

  024b4	8b 4d f8	 mov	 ecx, DWORD PTR _this$[ebp]
  024b7	e8 00 00 00 00	 call	 ?GetSafeHwnd@CWnd@@QBEPAUHWND__@@XZ ; CWnd::GetSafeHwnd
  024bc	50		 push	 eax
  024bd	ff 15 00 00 00
	00		 call	 DWORD PTR __imp__SetForegroundWindow@4

; 829  : 		}else

  024c3	eb 26		 jmp	 SHORT $L208078
$L208075:

; 830  : 		{
; 831  : 			GLOBAL_PANELCHANGEDATA->IPanelChange_Min();

  024c5	e8 00 00 00 00	 call	 ?AfxGetDataManager2@@YAPAVIDataManager@@XZ ; AfxGetDataManager2
  024ca	89 45 ec	 mov	 DWORD PTR tv94[ebp], eax
  024cd	68 00 00 00 00	 push	 OFFSET FLAT:_ID_DATA_PANELCHANGE
  024d2	8b 45 ec	 mov	 eax, DWORD PTR tv94[ebp]
  024d5	8b 10		 mov	 edx, DWORD PTR [eax]
  024d7	8b 4d ec	 mov	 ecx, DWORD PTR tv94[ebp]
  024da	ff 52 0c	 call	 DWORD PTR [edx+12]
  024dd	89 45 e8	 mov	 DWORD PTR tv132[ebp], eax
  024e0	8b 45 e8	 mov	 eax, DWORD PTR tv132[ebp]
  024e3	8b 10		 mov	 edx, DWORD PTR [eax]
  024e5	8b 4d e8	 mov	 ecx, DWORD PTR tv132[ebp]
  024e8	ff 52 1c	 call	 DWORD PTR [edx+28]
$L208078:

; 832  : 		}
; 833  : 		//
; 834  : 		//GLOBAL_PANELCHANGEDATA->IPanelChange_Restore();
; 835  : 		//::SetForegroundWindow( GetSafeHwnd() );
; 836  : 
; 837  : 		m_bStartupRun = false;

  024eb	8b 45 f8	 mov	 eax, DWORD PTR _this$[ebp]
  024ee	c6 80 88 00 00
	00 00		 mov	 BYTE PTR [eax+136], 0
$L208072:

; 838  : 	}
; 839  : }

  024f5	8b e5		 mov	 esp, ebp
  024f7	5d		 pop	 ebp
  024f8	c3		 ret	 0
?OnTrayMenuOpen@CPlayBoxDlg@@QAEXXZ ENDP		; CPlayBoxDlg::OnTrayMenuOpen
_TEXT	ENDS
EXTRN	__imp__PostMessageA@16:NEAR
; Function compile flags: /Odt
_TEXT	SEGMENT
_this$ = -4						; size = 4
?OnTrayMenuExit@CPlayBoxDlg@@QAEXXZ PROC NEAR		; CPlayBoxDlg::OnTrayMenuExit
; _this$ = ecx

; 842  : {

  02500	55		 push	 ebp
  02501	8b ec		 mov	 ebp, esp
  02503	51		 push	 ecx
  02504	89 4d fc	 mov	 DWORD PTR _this$[ebp], ecx

; 843  : 	::PostMessage(m_hWnd,WM_CLOSE,0,0 );

  02507	6a 00		 push	 0
  02509	6a 00		 push	 0
  0250b	6a 10		 push	 16			; 00000010H
  0250d	8b 45 fc	 mov	 eax, DWORD PTR _this$[ebp]
  02510	8b 48 20	 mov	 ecx, DWORD PTR [eax+32]
  02513	51		 push	 ecx
  02514	ff 15 00 00 00
	00		 call	 DWORD PTR __imp__PostMessageA@16

; 844  : }

  0251a	8b e5		 mov	 esp, ebp
  0251c	5d		 pop	 ebp
  0251d	c3		 ret	 0
?OnTrayMenuExit@CPlayBoxDlg@@QAEXXZ ENDP		; CPlayBoxDlg::OnTrayMenuExit
_TEXT	ENDS
PUBLIC	?OnMove@CWnd@@IAEXHH@Z				; CWnd::OnMove
EXTRN	?OnMove@CIrregularBorderMgr@@QAEXHH@Z:NEAR	; CIrregularBorderMgr::OnMove
; Function compile flags: /Odt
_TEXT	SEGMENT
tv73 = -28						; size = 4
tv66 = -24						; size = 4
_this$ = -20						; size = 4
_rc$ = -16						; size = 16
_x$ = 8							; size = 4
_y$ = 12						; size = 4
?OnMove@CPlayBoxDlg@@IAEXHH@Z PROC NEAR			; CPlayBoxDlg::OnMove
; _this$ = ecx

; 847  : {

  02520	55		 push	 ebp
  02521	8b ec		 mov	 ebp, esp
  02523	83 ec 1c	 sub	 esp, 28			; 0000001cH
  02526	89 4d ec	 mov	 DWORD PTR _this$[ebp], ecx

; 848  : 	if( AfxGetUIManager()->UIGetLayoutMgr() != NULL )

  02529	e8 00 00 00 00	 call	 ?AfxGetUIManager@@YAPAVIUIManager@@XZ ; AfxGetUIManager
  0252e	89 45 e8	 mov	 DWORD PTR tv66[ebp], eax
  02531	8b 45 e8	 mov	 eax, DWORD PTR tv66[ebp]
  02534	8b 10		 mov	 edx, DWORD PTR [eax]
  02536	8b 4d e8	 mov	 ecx, DWORD PTR tv66[ebp]
  02539	ff 52 24	 call	 DWORD PTR [edx+36]
  0253c	85 c0		 test	 eax, eax
  0253e	74 1b		 je	 SHORT $L208088

; 849  : 	{
; 850  : 		AfxGetUIManager()->UIOnMove( x,y );

  02540	e8 00 00 00 00	 call	 ?AfxGetUIManager@@YAPAVIUIManager@@XZ ; AfxGetUIManager
  02545	89 45 e4	 mov	 DWORD PTR tv73[ebp], eax
  02548	8b 45 0c	 mov	 eax, DWORD PTR _y$[ebp]
  0254b	50		 push	 eax
  0254c	8b 4d 08	 mov	 ecx, DWORD PTR _x$[ebp]
  0254f	51		 push	 ecx
  02550	8b 55 e4	 mov	 edx, DWORD PTR tv73[ebp]
  02553	8b 02		 mov	 eax, DWORD PTR [edx]
  02555	8b 4d e4	 mov	 ecx, DWORD PTR tv73[ebp]
  02558	ff 50 34	 call	 DWORD PTR [eax+52]
$L208088:

; 851  : 	}
; 852  : 	
; 853  : 	CRect rc;

  0255b	8d 4d f0	 lea	 ecx, DWORD PTR _rc$[ebp]
  0255e	e8 00 00 00 00	 call	 ??0CRect@@QAE@XZ	; CRect::CRect

; 854  : 	GetWindowRect(&rc);

  02563	8d 4d f0	 lea	 ecx, DWORD PTR _rc$[ebp]
  02566	51		 push	 ecx
  02567	8b 4d ec	 mov	 ecx, DWORD PTR _this$[ebp]
  0256a	e8 00 00 00 00	 call	 ?GetWindowRect@CWnd@@QBEXPAUtagRECT@@@Z ; CWnd::GetWindowRect

; 855  : 	if(m_hWnd  != NULL && rc.Width() != 0 && rc.Height() != 0)

  0256f	8b 55 ec	 mov	 edx, DWORD PTR _this$[ebp]
  02572	83 7a 20 00	 cmp	 DWORD PTR [edx+32], 0
  02576	74 38		 je	 SHORT $L208090
  02578	8d 4d f0	 lea	 ecx, DWORD PTR _rc$[ebp]
  0257b	e8 00 00 00 00	 call	 ?Width@CRect@@QBEHXZ	; CRect::Width
  02580	85 c0		 test	 eax, eax
  02582	74 2c		 je	 SHORT $L208090
  02584	8d 4d f0	 lea	 ecx, DWORD PTR _rc$[ebp]
  02587	e8 00 00 00 00	 call	 ?Height@CRect@@QBEHXZ	; CRect::Height
  0258c	85 c0		 test	 eax, eax
  0258e	74 20		 je	 SHORT $L208090

; 856  : 	{
; 857  : 		AfxSetMainWindow(this);

  02590	8b 45 ec	 mov	 eax, DWORD PTR _this$[ebp]
  02593	50		 push	 eax
  02594	e8 00 00 00 00	 call	 ?AfxSetMainWindow@@YAXPAVCWnd@@@Z ; AfxSetMainWindow
  02599	83 c4 04	 add	 esp, 4

; 858  : 		CIrregularBorderMgr::GetInstance()->OnMove(x,y);

  0259c	8b 4d 0c	 mov	 ecx, DWORD PTR _y$[ebp]
  0259f	51		 push	 ecx
  025a0	8b 55 08	 mov	 edx, DWORD PTR _x$[ebp]
  025a3	52		 push	 edx
  025a4	e8 00 00 00 00	 call	 ?GetInstance@CIrregularBorderMgr@@SAPAV1@XZ ; CIrregularBorderMgr::GetInstance
  025a9	8b c8		 mov	 ecx, eax
  025ab	e8 00 00 00 00	 call	 ?OnMove@CIrregularBorderMgr@@QAEXHH@Z ; CIrregularBorderMgr::OnMove
$L208090:

; 859  : 	}
; 860  : 	__super::OnMove(x,y);

  025b0	8b 45 0c	 mov	 eax, DWORD PTR _y$[ebp]
  025b3	50		 push	 eax
  025b4	8b 4d 08	 mov	 ecx, DWORD PTR _x$[ebp]
  025b7	51		 push	 ecx
  025b8	8b 4d ec	 mov	 ecx, DWORD PTR _this$[ebp]
  025bb	e8 00 00 00 00	 call	 ?OnMove@CWnd@@IAEXHH@Z	; CWnd::OnMove

; 861  : }

  025c0	8b e5		 mov	 esp, ebp
  025c2	5d		 pop	 ebp
  025c3	c2 08 00	 ret	 8
?OnMove@CPlayBoxDlg@@IAEXHH@Z ENDP			; CPlayBoxDlg::OnMove
_TEXT	ENDS
PUBLIC	?OnShowWindow@CWnd@@IAEXHI@Z			; CWnd::OnShowWindow
; Function compile flags: /Odt
_TEXT	SEGMENT
_this$ = -20						; size = 4
_rc$ = -16						; size = 16
_bShow$ = 8						; size = 4
_nStatus$ = 12						; size = 4
?OnShowWindow@CPlayBoxDlg@@IAEXHI@Z PROC NEAR		; CPlayBoxDlg::OnShowWindow
; _this$ = ecx

; 864  : {

  025d0	55		 push	 ebp
  025d1	8b ec		 mov	 ebp, esp
  025d3	83 ec 14	 sub	 esp, 20			; 00000014H
  025d6	89 4d ec	 mov	 DWORD PTR _this$[ebp], ecx

; 865  : 	CRect rc;

  025d9	8d 4d f0	 lea	 ecx, DWORD PTR _rc$[ebp]
  025dc	e8 00 00 00 00	 call	 ??0CRect@@QAE@XZ	; CRect::CRect

; 866  : 	GetWindowRect(&rc);

  025e1	8d 45 f0	 lea	 eax, DWORD PTR _rc$[ebp]
  025e4	50		 push	 eax
  025e5	8b 4d ec	 mov	 ecx, DWORD PTR _this$[ebp]
  025e8	e8 00 00 00 00	 call	 ?GetWindowRect@CWnd@@QBEXPAUtagRECT@@@Z ; CWnd::GetWindowRect

; 867  : 
; 868  : 	if(rc.Width() != 0 && rc.Height() != 0)

  025ed	8d 4d f0	 lea	 ecx, DWORD PTR _rc$[ebp]
  025f0	e8 00 00 00 00	 call	 ?Width@CRect@@QBEHXZ	; CRect::Width
  025f5	85 c0		 test	 eax, eax
  025f7	74 20		 je	 SHORT $L208097
  025f9	8d 4d f0	 lea	 ecx, DWORD PTR _rc$[ebp]
  025fc	e8 00 00 00 00	 call	 ?Height@CRect@@QBEHXZ	; CRect::Height
  02601	85 c0		 test	 eax, eax
  02603	74 14		 je	 SHORT $L208097

; 869  : 		CIrregularBorderMgr::GetInstance()->ShowTransDlg(bShow);

  02605	83 7d 08 00	 cmp	 DWORD PTR _bShow$[ebp], 0
  02609	0f 95 c1	 setne	 cl
  0260c	51		 push	 ecx
  0260d	e8 00 00 00 00	 call	 ?GetInstance@CIrregularBorderMgr@@SAPAV1@XZ ; CIrregularBorderMgr::GetInstance
  02612	8b c8		 mov	 ecx, eax
  02614	e8 00 00 00 00	 call	 ?ShowTransDlg@CIrregularBorderMgr@@QAEX_N@Z ; CIrregularBorderMgr::ShowTransDlg
$L208097:

; 870  : 	__super::OnShowWindow(bShow, nStatus);

  02619	8b 55 0c	 mov	 edx, DWORD PTR _nStatus$[ebp]
  0261c	52		 push	 edx
  0261d	8b 45 08	 mov	 eax, DWORD PTR _bShow$[ebp]
  02620	50		 push	 eax
  02621	8b 4d ec	 mov	 ecx, DWORD PTR _this$[ebp]
  02624	e8 00 00 00 00	 call	 ?OnShowWindow@CWnd@@IAEXHI@Z ; CWnd::OnShowWindow

; 871  : }

  02629	8b e5		 mov	 esp, ebp
  0262b	5d		 pop	 ebp
  0262c	c2 08 00	 ret	 8
?OnShowWindow@CPlayBoxDlg@@IAEXHI@Z ENDP		; CPlayBoxDlg::OnShowWindow
_TEXT	ENDS
PUBLIC	?OnKooWoProtocol@CPlayBoxDlg@@IAEXPBUtagCOPYDATASTRUCT@@@Z ; CPlayBoxDlg::OnKooWoProtocol
; Function compile flags: /Odt
_TEXT	SEGMENT
tv65 = -8						; size = 4
_this$ = -4						; size = 4
_pWnd$ = 8						; size = 4
_pCopyDataStruct$ = 12					; size = 4
?OnCopyData@CPlayBoxDlg@@IAEHPAVCWnd@@PAUtagCOPYDATASTRUCT@@@Z PROC NEAR ; CPlayBoxDlg::OnCopyData
; _this$ = ecx

; 873  : {

  02630	55		 push	 ebp
  02631	8b ec		 mov	 ebp, esp
  02633	83 ec 08	 sub	 esp, 8
  02636	89 4d fc	 mov	 DWORD PTR _this$[ebp], ecx

; 874  : 	if (!pCopyDataStruct)

  02639	83 7d 0c 00	 cmp	 DWORD PTR _pCopyDataStruct$[ebp], 0
  0263d	75 04		 jne	 SHORT $L208103

; 875  : 		return FALSE;

  0263f	33 c0		 xor	 eax, eax
  02641	eb 24		 jmp	 SHORT $L208102
$L208103:

; 876  : 
; 877  : 	switch(pCopyDataStruct->dwData)

  02643	8b 45 0c	 mov	 eax, DWORD PTR _pCopyDataStruct$[ebp]
  02646	8b 08		 mov	 ecx, DWORD PTR [eax]
  02648	89 4d f8	 mov	 DWORD PTR tv65[ebp], ecx
  0264b	81 7d f8 64 04
	00 00		 cmp	 DWORD PTR tv65[ebp], 1124 ; 00000464H
  02652	74 02		 je	 SHORT $L208108
  02654	eb 0c		 jmp	 SHORT $L208105
$L208108:

; 878  : 	{
; 879  : 	case WM_PLAYBOX_PROTOCOL:
; 880  : 		OnKooWoProtocol(pCopyDataStruct);

  02656	8b 55 0c	 mov	 edx, DWORD PTR _pCopyDataStruct$[ebp]
  02659	52		 push	 edx
  0265a	8b 4d fc	 mov	 ecx, DWORD PTR _this$[ebp]
  0265d	e8 00 00 00 00	 call	 ?OnKooWoProtocol@CPlayBoxDlg@@IAEXPBUtagCOPYDATASTRUCT@@@Z ; CPlayBoxDlg::OnKooWoProtocol
$L208105:

; 881  : 		break;
; 882  : 	}
; 883  : 	return TRUE;

  02662	b8 01 00 00 00	 mov	 eax, 1
$L208102:

; 884  : }

  02667	8b e5		 mov	 esp, ebp
  02669	5d		 pop	 ebp
  0266a	c2 08 00	 ret	 8
?OnCopyData@CPlayBoxDlg@@IAEHPAVCWnd@@PAUtagCOPYDATASTRUCT@@@Z ENDP ; CPlayBoxDlg::OnCopyData
_TEXT	ENDS
PUBLIC	?OnExecWebCmd@CPlayBoxDlg@@IAEXPBD@Z		; CPlayBoxDlg::OnExecWebCmd
EXTRN	??_U@YAPAXI@Z:NEAR				; operator new[]
EXTRN	_strcpy:NEAR
EXTRN	_strlen:NEAR
EXTRN	__imp__strstr:NEAR
; Function compile flags: /Odt
_TEXT	SEGMENT
_this$ = -20						; size = 4
$T210380 = -16						; size = 4
_i$208118 = -12						; size = 4
_tmp$ = -8						; size = 4
_szBuf$ = -4						; size = 4
_pCopyDataStruct$ = 8					; size = 4
?OnKooWoProtocol@CPlayBoxDlg@@IAEXPBUtagCOPYDATASTRUCT@@@Z PROC NEAR ; CPlayBoxDlg::OnKooWoProtocol
; _this$ = ecx

; 887  : {

  02670	55		 push	 ebp
  02671	8b ec		 mov	 ebp, esp
  02673	83 ec 14	 sub	 esp, 20			; 00000014H
  02676	89 4d ec	 mov	 DWORD PTR _this$[ebp], ecx

; 888  : 	char* szBuf = new char[strlen( (LPCTSTR)pCopyDataStruct->lpData)+1];

  02679	8b 45 08	 mov	 eax, DWORD PTR _pCopyDataStruct$[ebp]
  0267c	8b 48 08	 mov	 ecx, DWORD PTR [eax+8]
  0267f	51		 push	 ecx
  02680	e8 00 00 00 00	 call	 _strlen
  02685	83 c4 04	 add	 esp, 4
  02688	83 c0 01	 add	 eax, 1
  0268b	50		 push	 eax
  0268c	e8 00 00 00 00	 call	 ??_U@YAPAXI@Z		; operator new[]
  02691	83 c4 04	 add	 esp, 4
  02694	89 45 f0	 mov	 DWORD PTR $T210380[ebp], eax
  02697	8b 55 f0	 mov	 edx, DWORD PTR $T210380[ebp]
  0269a	89 55 fc	 mov	 DWORD PTR _szBuf$[ebp], edx

; 889  : 	strcpy(szBuf,(LPCTSTR)pCopyDataStruct->lpData);

  0269d	8b 45 08	 mov	 eax, DWORD PTR _pCopyDataStruct$[ebp]
  026a0	8b 48 08	 mov	 ecx, DWORD PTR [eax+8]
  026a3	51		 push	 ecx
  026a4	8b 55 fc	 mov	 edx, DWORD PTR _szBuf$[ebp]
  026a7	52		 push	 edx
  026a8	e8 00 00 00 00	 call	 _strcpy
  026ad	83 c4 08	 add	 esp, 8

; 890  : 
; 891  : 	for(int i = 0;i < strlen(szBuf);i++)

  026b0	c7 45 f4 00 00
	00 00		 mov	 DWORD PTR _i$208118[ebp], 0
  026b7	eb 09		 jmp	 SHORT $L208119
$L208120:
  026b9	8b 45 f4	 mov	 eax, DWORD PTR _i$208118[ebp]
  026bc	83 c0 01	 add	 eax, 1
  026bf	89 45 f4	 mov	 DWORD PTR _i$208118[ebp], eax
$L208119:
  026c2	8b 4d fc	 mov	 ecx, DWORD PTR _szBuf$[ebp]
  026c5	51		 push	 ecx
  026c6	e8 00 00 00 00	 call	 _strlen
  026cb	83 c4 04	 add	 esp, 4
  026ce	39 45 f4	 cmp	 DWORD PTR _i$208118[ebp], eax
  026d1	73 19		 jae	 SHORT $L208121

; 892  : 	{
; 893  : 		if( szBuf[i] == '\\')

  026d3	8b 55 fc	 mov	 edx, DWORD PTR _szBuf$[ebp]
  026d6	03 55 f4	 add	 edx, DWORD PTR _i$208118[ebp]
  026d9	0f be 02	 movsx	 eax, BYTE PTR [edx]
  026dc	83 f8 5c	 cmp	 eax, 92			; 0000005cH
  026df	75 09		 jne	 SHORT $L208122

; 894  : 		{
; 895  : 			szBuf[i] = '/';

  026e1	8b 4d fc	 mov	 ecx, DWORD PTR _szBuf$[ebp]
  026e4	03 4d f4	 add	 ecx, DWORD PTR _i$208118[ebp]
  026e7	c6 01 2f	 mov	 BYTE PTR [ecx], 47	; 0000002fH
$L208122:

; 896  : 		}
; 897  : 	}

  026ea	eb cd		 jmp	 SHORT $L208120
$L208121:

; 898  : 	char* tmp = (char*)strstr(szBuf, "://");	

  026ec	68 00 00 00 00	 push	 OFFSET FLAT:$SG208125
  026f1	8b 55 fc	 mov	 edx, DWORD PTR _szBuf$[ebp]
  026f4	52		 push	 edx
  026f5	ff 15 00 00 00
	00		 call	 DWORD PTR __imp__strstr
  026fb	83 c4 08	 add	 esp, 8
  026fe	89 45 f8	 mov	 DWORD PTR _tmp$[ebp], eax

; 899  : 
; 900  : 	if (tmp == NULL)

  02701	83 7d f8 00	 cmp	 DWORD PTR _tmp$[ebp], 0
  02705	75 02		 jne	 SHORT $L208126

; 901  : 		return;

  02707	eb 15		 jmp	 SHORT $L208112
$L208126:

; 902  : 
; 903  : 	tmp += 3;

  02709	8b 45 f8	 mov	 eax, DWORD PTR _tmp$[ebp]
  0270c	83 c0 03	 add	 eax, 3
  0270f	89 45 f8	 mov	 DWORD PTR _tmp$[ebp], eax

; 904  : 	OnExecWebCmd( tmp );

  02712	8b 4d f8	 mov	 ecx, DWORD PTR _tmp$[ebp]
  02715	51		 push	 ecx
  02716	8b 4d ec	 mov	 ecx, DWORD PTR _this$[ebp]
  02719	e8 00 00 00 00	 call	 ?OnExecWebCmd@CPlayBoxDlg@@IAEXPBD@Z ; CPlayBoxDlg::OnExecWebCmd
$L208112:

; 905  : }

  0271e	8b e5		 mov	 esp, ebp
  02720	5d		 pop	 ebp
  02721	c2 04 00	 ret	 4
?OnKooWoProtocol@CPlayBoxDlg@@IAEXPBUtagCOPYDATASTRUCT@@@Z ENDP ; CPlayBoxDlg::OnKooWoProtocol
_TEXT	ENDS
PUBLIC	?NotifyWebRefresh@CPlayBoxDlg@@IAEXPBD@Z	; CPlayBoxDlg::NotifyWebRefresh
EXTRN	__imp__strncmp:NEAR
xdata$x	SEGMENT
$T210388 DD	0ffffffffH
	DD	FLAT:$L210383
$T210385 DD	019930520H
	DD	01H
	DD	FLAT:$T210388
	DD	2 DUP(00H)
	DD	2 DUP(00H)
; Function compile flags: /Odt
xdata$x	ENDS
_TEXT	SEGMENT
_this$ = -48						; size = 4
_strParam$ = -44					; size = 28
__$ArrayPad$ = -16					; size = 4
__$EHRec$ = -12						; size = 12
__$ReturnAddr$ = 4					; size = 4
_tmp$ = 8						; size = 4
?OnExecWebCmd@CPlayBoxDlg@@IAEXPBD@Z PROC NEAR		; CPlayBoxDlg::OnExecWebCmd
; _this$ = ecx

; 909  : {

  02730	55		 push	 ebp
  02731	8b ec		 mov	 ebp, esp
  02733	6a ff		 push	 -1
  02735	68 00 00 00 00	 push	 __ehhandler$?OnExecWebCmd@CPlayBoxDlg@@IAEXPBD@Z
  0273a	64 a1 00 00 00
	00		 mov	 eax, DWORD PTR fs:__except_list
  02740	50		 push	 eax
  02741	64 89 25 00 00
	00 00		 mov	 DWORD PTR fs:__except_list, esp
  02748	83 ec 24	 sub	 esp, 36			; 00000024H
  0274b	a1 00 00 00 00	 mov	 eax, DWORD PTR ___security_cookie
  02750	89 45 f0	 mov	 DWORD PTR __$ArrayPad$[ebp], eax
  02753	89 4d d0	 mov	 DWORD PTR _this$[ebp], ecx

; 910  : 	string strParam;

  02756	8d 4d d4	 lea	 ecx, DWORD PTR _strParam$[ebp]
  02759	ff 15 00 00 00
	00		 call	 DWORD PTR __imp_??0?$basic_string@DU?$char_traits@D@std@@V?$allocator@D@2@@std@@QAE@XZ
  0275f	c7 45 fc 00 00
	00 00		 mov	 DWORD PTR __$EHRec$[ebp+8], 0

; 911  : 	if (strncmp(tmp, "add", 3) == 0)

  02766	6a 03		 push	 3
  02768	68 00 00 00 00	 push	 OFFSET FLAT:$SG208133
  0276d	8b 45 08	 mov	 eax, DWORD PTR _tmp$[ebp]
  02770	50		 push	 eax
  02771	ff 15 00 00 00
	00		 call	 DWORD PTR __imp__strncmp
  02777	83 c4 0c	 add	 esp, 12			; 0000000cH
  0277a	85 c0		 test	 eax, eax
  0277c	75 02		 jne	 SHORT $L208132

; 912  : 	{	
; 913  : 	}
; 914  : 	else if(strncmp(tmp, "search", 6) == 0)

  0277e	eb 3e		 jmp	 SHORT $L208134
$L208132:
  02780	6a 06		 push	 6
  02782	68 00 00 00 00	 push	 OFFSET FLAT:$SG208136
  02787	8b 4d 08	 mov	 ecx, DWORD PTR _tmp$[ebp]
  0278a	51		 push	 ecx
  0278b	ff 15 00 00 00
	00		 call	 DWORD PTR __imp__strncmp
  02791	83 c4 0c	 add	 esp, 12			; 0000000cH
  02794	85 c0		 test	 eax, eax
  02796	75 02		 jne	 SHORT $L208135

; 915  : 	{
; 916  : 	}
; 917  : 	else if(strncmp(tmp,"refresh",7) == 0 )

  02798	eb 24		 jmp	 SHORT $L208134
$L208135:
  0279a	6a 07		 push	 7
  0279c	68 00 00 00 00	 push	 OFFSET FLAT:$SG208139
  027a1	8b 55 08	 mov	 edx, DWORD PTR _tmp$[ebp]
  027a4	52		 push	 edx
  027a5	ff 15 00 00 00
	00		 call	 DWORD PTR __imp__strncmp
  027ab	83 c4 0c	 add	 esp, 12			; 0000000cH
  027ae	85 c0		 test	 eax, eax
  027b0	75 0c		 jne	 SHORT $L208134

; 918  : 	{
; 919  : 		NotifyWebRefresh(tmp);

  027b2	8b 45 08	 mov	 eax, DWORD PTR _tmp$[ebp]
  027b5	50		 push	 eax
  027b6	8b 4d d0	 mov	 ecx, DWORD PTR _this$[ebp]
  027b9	e8 00 00 00 00	 call	 ?NotifyWebRefresh@CPlayBoxDlg@@IAEXPBD@Z ; CPlayBoxDlg::NotifyWebRefresh
$L208134:

; 920  : 	}
; 921  : }

  027be	c7 45 fc ff ff
	ff ff		 mov	 DWORD PTR __$EHRec$[ebp+8], -1
  027c5	8d 4d d4	 lea	 ecx, DWORD PTR _strParam$[ebp]
  027c8	ff 15 00 00 00
	00		 call	 DWORD PTR __imp_??1?$basic_string@DU?$char_traits@D@std@@V?$allocator@D@2@@std@@QAE@XZ
  027ce	8b 4d f4	 mov	 ecx, DWORD PTR __$EHRec$[ebp]
  027d1	64 89 0d 00 00
	00 00		 mov	 DWORD PTR fs:__except_list, ecx
  027d8	8b 4d f0	 mov	 ecx, DWORD PTR __$ArrayPad$[ebp]
  027db	e8 00 00 00 00	 call	 @__security_check_cookie@4
  027e0	8b e5		 mov	 esp, ebp
  027e2	5d		 pop	 ebp
  027e3	c2 04 00	 ret	 4
_TEXT	ENDS
text$x	SEGMENT
$L210383:
  002e5	8d 4d d4	 lea	 ecx, DWORD PTR _strParam$[ebp]
  002e8	ff 25 00 00 00
	00		 jmp	 DWORD PTR __imp_??1?$basic_string@DU?$char_traits@D@std@@V?$allocator@D@2@@std@@QAE@XZ
__ehhandler$?OnExecWebCmd@CPlayBoxDlg@@IAEXPBD@Z:
  002ee	b8 00 00 00 00	 mov	 eax, OFFSET FLAT:$T210385
  002f3	e9 00 00 00 00	 jmp	 ___CxxFrameHandler
text$x	ENDS
?OnExecWebCmd@CPlayBoxDlg@@IAEXPBD@Z ENDP		; CPlayBoxDlg::OnExecWebCmd
PUBLIC	??0?$list@PAVIMessageObserver@@V?$allocator@PAVIMessageObserver@@@std@@@std@@QAE@XZ ; std::list<IMessageObserver *,std::allocator<IMessageObserver *> >::list<IMessageObserver *,std::allocator<IMessageObserver *> >
PUBLIC	??1?$list@PAVIMessageObserver@@V?$allocator@PAVIMessageObserver@@@std@@@std@@QAE@XZ ; std::list<IMessageObserver *,std::allocator<IMessageObserver *> >::~list<IMessageObserver *,std::allocator<IMessageObserver *> >
PUBLIC	?begin@?$list@PAVIMessageObserver@@V?$allocator@PAVIMessageObserver@@@std@@@std@@QAE?AViterator@12@XZ ; std::list<IMessageObserver *,std::allocator<IMessageObserver *> >::begin
PUBLIC	?end@?$list@PAVIMessageObserver@@V?$allocator@PAVIMessageObserver@@@std@@@std@@QAE?AViterator@12@XZ ; std::list<IMessageObserver *,std::allocator<IMessageObserver *> >::end
PUBLIC	??9const_iterator@?$list@PAVIMessageObserver@@V?$allocator@PAVIMessageObserver@@@std@@@std@@QBE_NABV012@@Z ; std::list<IMessageObserver *,std::allocator<IMessageObserver *> >::const_iterator::operator!=
PUBLIC	??Diterator@?$list@PAVIMessageObserver@@V?$allocator@PAVIMessageObserver@@@std@@@std@@QBEAAPAVIMessageObserver@@XZ ; std::list<IMessageObserver *,std::allocator<IMessageObserver *> >::iterator::operator*
PUBLIC	??Eiterator@?$list@PAVIMessageObserver@@V?$allocator@PAVIMessageObserver@@@std@@@std@@QAE?AV012@H@Z ; std::list<IMessageObserver *,std::allocator<IMessageObserver *> >::iterator::operator++
PUBLIC	??_R0?AVIWebRefreshObserver@@@8			; IWebRefreshObserver `RTTI Type Descriptor'
EXTRN	___RTDynamicCast:NEAR
xdata$x	SEGMENT
$T210396 DD	0ffffffffH
	DD	FLAT:$L210392
$T210394 DD	019930520H
	DD	01H
	DD	FLAT:$T210396
	DD	2 DUP(00H)
	DD	2 DUP(00H)
xdata$x	ENDS
;	COMDAT ??_R0?AVIWebRefreshObserver@@@8
_DATA	SEGMENT
??_R0?AVIWebRefreshObserver@@@8 DD FLAT:??_7type_info@@6B@ ; IWebRefreshObserver `RTTI Type Descriptor'
	DD	00H
	DB	'.?AVIWebRefreshObserver@@', 00H
; Function compile flags: /Odt
_DATA	ENDS
_TEXT	SEGMENT
tv69 = -48						; size = 4
_this$ = -44						; size = 4
$T210391 = -40						; size = 4
$T210390 = -36						; size = 4
_pOb$208645 = -32					; size = 4
_itOb$208638 = -28					; size = 4
_listOb$ = -24						; size = 12
__$EHRec$ = -12						; size = 12
_psz$ = 8						; size = 4
?NotifyWebRefresh@CPlayBoxDlg@@IAEXPBD@Z PROC NEAR	; CPlayBoxDlg::NotifyWebRefresh
; _this$ = ecx

; 924  : {

  027f0	55		 push	 ebp
  027f1	8b ec		 mov	 ebp, esp
  027f3	6a ff		 push	 -1
  027f5	68 00 00 00 00	 push	 __ehhandler$?NotifyWebRefresh@CPlayBoxDlg@@IAEXPBD@Z
  027fa	64 a1 00 00 00
	00		 mov	 eax, DWORD PTR fs:__except_list
  02800	50		 push	 eax
  02801	64 89 25 00 00
	00 00		 mov	 DWORD PTR fs:__except_list, esp
  02808	83 ec 24	 sub	 esp, 36			; 00000024H
  0280b	89 4d d4	 mov	 DWORD PTR _this$[ebp], ecx

; 925  : 	list<IMessageObserver*> listOb;

  0280e	8d 4d e8	 lea	 ecx, DWORD PTR _listOb$[ebp]
  02811	e8 00 00 00 00	 call	 ??0?$list@PAVIMessageObserver@@V?$allocator@PAVIMessageObserver@@@std@@@std@@QAE@XZ ; std::list<IMessageObserver *,std::allocator<IMessageObserver *> >::list<IMessageObserver *,std::allocator<IMessageObserver *> >
  02816	c7 45 fc 00 00
	00 00		 mov	 DWORD PTR __$EHRec$[ebp+8], 0

; 926  : 	AfxGetMessageManager()->QueryObservers( ID_MESSAGE_REFRESH,listOb);

  0281d	e8 00 00 00 00	 call	 ?AfxGetMessageManager@@YAPAVIMessageManager@@XZ ; AfxGetMessageManager
  02822	89 45 d0	 mov	 DWORD PTR tv69[ebp], eax
  02825	8d 45 e8	 lea	 eax, DWORD PTR _listOb$[ebp]
  02828	50		 push	 eax
  02829	68 00 00 00 00	 push	 OFFSET FLAT:_ID_MESSAGE_REFRESH
  0282e	8b 4d d0	 mov	 ecx, DWORD PTR tv69[ebp]
  02831	8b 11		 mov	 edx, DWORD PTR [ecx]
  02833	8b 4d d0	 mov	 ecx, DWORD PTR tv69[ebp]
  02836	ff 52 0c	 call	 DWORD PTR [edx+12]

; 927  : 
; 928  : 	for( list<IMessageObserver*>::iterator itOb = listOb.begin();itOb != listOb.end();itOb++ )

  02839	8d 45 e4	 lea	 eax, DWORD PTR _itOb$208638[ebp]
  0283c	50		 push	 eax
  0283d	8d 4d e8	 lea	 ecx, DWORD PTR _listOb$[ebp]
  02840	e8 00 00 00 00	 call	 ?begin@?$list@PAVIMessageObserver@@V?$allocator@PAVIMessageObserver@@@std@@@std@@QAE?AViterator@12@XZ ; std::list<IMessageObserver *,std::allocator<IMessageObserver *> >::begin
  02845	eb 0e		 jmp	 SHORT $L208642
$L208643:
  02847	6a 00		 push	 0
  02849	8d 4d dc	 lea	 ecx, DWORD PTR $T210390[ebp]
  0284c	51		 push	 ecx
  0284d	8d 4d e4	 lea	 ecx, DWORD PTR _itOb$208638[ebp]
  02850	e8 00 00 00 00	 call	 ??Eiterator@?$list@PAVIMessageObserver@@V?$allocator@PAVIMessageObserver@@@std@@@std@@QAE?AV012@H@Z ; std::list<IMessageObserver *,std::allocator<IMessageObserver *> >::iterator::operator++
$L208642:
  02855	8d 55 d8	 lea	 edx, DWORD PTR $T210391[ebp]
  02858	52		 push	 edx
  02859	8d 4d e8	 lea	 ecx, DWORD PTR _listOb$[ebp]
  0285c	e8 00 00 00 00	 call	 ?end@?$list@PAVIMessageObserver@@V?$allocator@PAVIMessageObserver@@@std@@@std@@QAE?AViterator@12@XZ ; std::list<IMessageObserver *,std::allocator<IMessageObserver *> >::end
  02861	50		 push	 eax
  02862	8d 4d e4	 lea	 ecx, DWORD PTR _itOb$208638[ebp]
  02865	e8 00 00 00 00	 call	 ??9const_iterator@?$list@PAVIMessageObserver@@V?$allocator@PAVIMessageObserver@@@std@@@std@@QBE_NABV012@@Z ; std::list<IMessageObserver *,std::allocator<IMessageObserver *> >::const_iterator::operator!=
  0286a	0f b6 c0	 movzx	 eax, al
  0286d	85 c0		 test	 eax, eax
  0286f	74 35		 je	 SHORT $L208644

; 929  : 	{
; 930  : 		IWebRefreshObserver* pOb = dynamic_cast<IWebRefreshObserver*>(*itOb);

  02871	6a 00		 push	 0
  02873	68 00 00 00 00	 push	 OFFSET FLAT:??_R0?AVIWebRefreshObserver@@@8
  02878	68 00 00 00 00	 push	 OFFSET FLAT:??_R0?AVIMessageObserver@@@8
  0287d	6a 00		 push	 0
  0287f	8d 4d e4	 lea	 ecx, DWORD PTR _itOb$208638[ebp]
  02882	e8 00 00 00 00	 call	 ??Diterator@?$list@PAVIMessageObserver@@V?$allocator@PAVIMessageObserver@@@std@@@std@@QBEAAPAVIMessageObserver@@XZ ; std::list<IMessageObserver *,std::allocator<IMessageObserver *> >::iterator::operator*
  02887	8b 08		 mov	 ecx, DWORD PTR [eax]
  02889	51		 push	 ecx
  0288a	e8 00 00 00 00	 call	 ___RTDynamicCast
  0288f	83 c4 14	 add	 esp, 20			; 00000014H
  02892	89 45 e0	 mov	 DWORD PTR _pOb$208645[ebp], eax

; 931  : 		pOb->IWebRefreshOb_Refresh( psz);

  02895	8b 55 08	 mov	 edx, DWORD PTR _psz$[ebp]
  02898	52		 push	 edx
  02899	8b 45 e0	 mov	 eax, DWORD PTR _pOb$208645[ebp]
  0289c	8b 10		 mov	 edx, DWORD PTR [eax]
  0289e	8b 4d e0	 mov	 ecx, DWORD PTR _pOb$208645[ebp]
  028a1	ff 52 04	 call	 DWORD PTR [edx+4]

; 932  : 	}

  028a4	eb a1		 jmp	 SHORT $L208643
$L208644:

; 933  : }

  028a6	c7 45 fc ff ff
	ff ff		 mov	 DWORD PTR __$EHRec$[ebp+8], -1
  028ad	8d 4d e8	 lea	 ecx, DWORD PTR _listOb$[ebp]
  028b0	e8 00 00 00 00	 call	 ??1?$list@PAVIMessageObserver@@V?$allocator@PAVIMessageObserver@@@std@@@std@@QAE@XZ ; std::list<IMessageObserver *,std::allocator<IMessageObserver *> >::~list<IMessageObserver *,std::allocator<IMessageObserver *> >
  028b5	8b 4d f4	 mov	 ecx, DWORD PTR __$EHRec$[ebp]
  028b8	64 89 0d 00 00
	00 00		 mov	 DWORD PTR fs:__except_list, ecx
  028bf	8b e5		 mov	 esp, ebp
  028c1	5d		 pop	 ebp
  028c2	c2 04 00	 ret	 4
_TEXT	ENDS
text$x	SEGMENT
$L210392:
  002f8	8d 4d e8	 lea	 ecx, DWORD PTR _listOb$[ebp]
  002fb	e9 00 00 00 00	 jmp	 ??1?$list@PAVIMessageObserver@@V?$allocator@PAVIMessageObserver@@@std@@@std@@QAE@XZ ; std::list<IMessageObserver *,std::allocator<IMessageObserver *> >::~list<IMessageObserver *,std::allocator<IMessageObserver *> >
__ehhandler$?NotifyWebRefresh@CPlayBoxDlg@@IAEXPBD@Z:
  00300	b8 00 00 00 00	 mov	 eax, OFFSET FLAT:$T210394
  00305	e9 00 00 00 00	 jmp	 ___CxxFrameHandler
text$x	ENDS
?NotifyWebRefresh@CPlayBoxDlg@@IAEXPBD@Z ENDP		; CPlayBoxDlg::NotifyWebRefresh
EXTRN	?GetInstance@CTopPanelControl@@SAPAV1@XZ:NEAR	; CTopPanelControl::GetInstance
EXTRN	?DoMin@CTopPanelControl@@QAEXXZ:NEAR		; CTopPanelControl::DoMin
EXTRN	?checkUpdate@@YAXPBD@Z:NEAR			; checkUpdate
EXTRN	?checkPopUpUpdate@@YAXPAPAUHWND__@@@Z:NEAR	; checkPopUpUpdate
xdata$x	SEGMENT
$T210409 DD	0ffffffffH
	DD	FLAT:$L210402
	DD	00H
	DD	FLAT:$L210403
	DD	0ffffffffH
	DD	FLAT:$L210404
	DD	02H
	DD	FLAT:$L210405
$T210407 DD	019930520H
	DD	04H
	DD	FLAT:$T210409
	DD	2 DUP(00H)
	DD	2 DUP(00H)
; Function compile flags: /Odt
xdata$x	ENDS
_TEXT	SEGMENT
_this$ = -128						; size = 4
$T210401 = -124						; size = 28
$T210400 = -96						; size = 28
$T210399 = -68						; size = 28
$T210398 = -40						; size = 28
__$EHRec$ = -12						; size = 12
___formal$ = 8						; size = 4
___formal$ = 12						; size = 4
?OnAfterUiCreate@CPlayBoxDlg@@IAEJIJ@Z PROC NEAR	; CPlayBoxDlg::OnAfterUiCreate
; _this$ = ecx

; 937  : {

  028d0	55		 push	 ebp
  028d1	8b ec		 mov	 ebp, esp
  028d3	6a ff		 push	 -1
  028d5	68 00 00 00 00	 push	 __ehhandler$?OnAfterUiCreate@CPlayBoxDlg@@IAEJIJ@Z
  028da	64 a1 00 00 00
	00		 mov	 eax, DWORD PTR fs:__except_list
  028e0	50		 push	 eax
  028e1	64 89 25 00 00
	00 00		 mov	 DWORD PTR fs:__except_list, esp
  028e8	83 ec 74	 sub	 esp, 116		; 00000074H
  028eb	89 4d 80	 mov	 DWORD PTR _this$[ebp], ecx

; 938  : 	YL_Log( STR_LOG_FILE ,LOG_NOTICE,"PlayBoxDlg","OnAfterUiCreate==IN" );

  028ee	68 00 00 00 00	 push	 OFFSET FLAT:$SG208656
  028f3	8d 4d d8	 lea	 ecx, DWORD PTR $T210398[ebp]
  028f6	ff 15 00 00 00
	00		 call	 DWORD PTR __imp_??0?$basic_string@DU?$char_traits@D@std@@V?$allocator@D@2@@std@@QAE@PBD@Z
  028fc	c7 45 fc 00 00
	00 00		 mov	 DWORD PTR __$EHRec$[ebp+8], 0
  02903	68 00 00 00 00	 push	 OFFSET FLAT:$SG208657
  02908	8d 4d bc	 lea	 ecx, DWORD PTR $T210399[ebp]
  0290b	ff 15 00 00 00
	00		 call	 DWORD PTR __imp_??0?$basic_string@DU?$char_traits@D@std@@V?$allocator@D@2@@std@@QAE@PBD@Z
  02911	c6 45 fc 01	 mov	 BYTE PTR __$EHRec$[ebp+8], 1
  02915	68 00 00 00 00	 push	 OFFSET FLAT:$SG208655
  0291a	8d 45 d8	 lea	 eax, DWORD PTR $T210398[ebp]
  0291d	50		 push	 eax
  0291e	6a 01		 push	 1
  02920	8d 4d bc	 lea	 ecx, DWORD PTR $T210399[ebp]
  02923	51		 push	 ecx
  02924	ff 15 00 00 00
	00		 call	 DWORD PTR __imp_?YL_Log@@YAXABV?$basic_string@DU?$char_traits@D@std@@V?$allocator@D@2@@std@@H0PBDZZ
  0292a	83 c4 10	 add	 esp, 16			; 00000010H
  0292d	c6 45 fc 00	 mov	 BYTE PTR __$EHRec$[ebp+8], 0
  02931	8d 4d bc	 lea	 ecx, DWORD PTR $T210399[ebp]
  02934	ff 15 00 00 00
	00		 call	 DWORD PTR __imp_??1?$basic_string@DU?$char_traits@D@std@@V?$allocator@D@2@@std@@QAE@XZ
  0293a	c7 45 fc ff ff
	ff ff		 mov	 DWORD PTR __$EHRec$[ebp+8], -1
  02941	8d 4d d8	 lea	 ecx, DWORD PTR $T210398[ebp]
  02944	ff 15 00 00 00
	00		 call	 DWORD PTR __imp_??1?$basic_string@DU?$char_traits@D@std@@V?$allocator@D@2@@std@@QAE@XZ

; 939  : 	checkPopUpUpdate(&g_hSharedWnd);

  0294a	68 00 00 00 00	 push	 OFFSET FLAT:?g_hSharedWnd@@3PAUHWND__@@A ; g_hSharedWnd
  0294f	e8 00 00 00 00	 call	 ?checkPopUpUpdate@@YAXPAPAUHWND__@@@Z ; checkPopUpUpdate
  02954	83 c4 04	 add	 esp, 4

; 940  : 	checkUpdate("PlayBox");

  02957	68 00 00 00 00	 push	 OFFSET FLAT:$SG208658
  0295c	e8 00 00 00 00	 call	 ?checkUpdate@@YAXPBD@Z	; checkUpdate
  02961	83 c4 04	 add	 esp, 4

; 941  : 	if (m_bStartupRun)

  02964	8b 55 80	 mov	 edx, DWORD PTR _this$[ebp]
  02967	0f b6 82 88 00
	00 00		 movzx	 eax, BYTE PTR [edx+136]
  0296e	85 c0		 test	 eax, eax
  02970	74 0c		 je	 SHORT $L208659

; 942  : 	{
; 943  : 		CTopPanelControl::GetInstance()->DoMin();

  02972	e8 00 00 00 00	 call	 ?GetInstance@CTopPanelControl@@SAPAV1@XZ ; CTopPanelControl::GetInstance
  02977	8b c8		 mov	 ecx, eax
  02979	e8 00 00 00 00	 call	 ?DoMin@CTopPanelControl@@QAEXXZ ; CTopPanelControl::DoMin
$L208659:

; 944  : 	}
; 945  : 
; 946  : 	YL_Log( STR_LOG_FILE ,LOG_NOTICE,"PlayBoxDlg","OnAfterUiCreate==OUT" );

  0297e	68 00 00 00 00	 push	 OFFSET FLAT:$SG208663
  02983	8d 4d a0	 lea	 ecx, DWORD PTR $T210400[ebp]
  02986	ff 15 00 00 00
	00		 call	 DWORD PTR __imp_??0?$basic_string@DU?$char_traits@D@std@@V?$allocator@D@2@@std@@QAE@PBD@Z
  0298c	c7 45 fc 02 00
	00 00		 mov	 DWORD PTR __$EHRec$[ebp+8], 2
  02993	68 00 00 00 00	 push	 OFFSET FLAT:$SG208664
  02998	8d 4d 84	 lea	 ecx, DWORD PTR $T210401[ebp]
  0299b	ff 15 00 00 00
	00		 call	 DWORD PTR __imp_??0?$basic_string@DU?$char_traits@D@std@@V?$allocator@D@2@@std@@QAE@PBD@Z
  029a1	c6 45 fc 03	 mov	 BYTE PTR __$EHRec$[ebp+8], 3
  029a5	68 00 00 00 00	 push	 OFFSET FLAT:$SG208662
  029aa	8d 4d a0	 lea	 ecx, DWORD PTR $T210400[ebp]
  029ad	51		 push	 ecx
  029ae	6a 01		 push	 1
  029b0	8d 55 84	 lea	 edx, DWORD PTR $T210401[ebp]
  029b3	52		 push	 edx
  029b4	ff 15 00 00 00
	00		 call	 DWORD PTR __imp_?YL_Log@@YAXABV?$basic_string@DU?$char_traits@D@std@@V?$allocator@D@2@@std@@H0PBDZZ
  029ba	83 c4 10	 add	 esp, 16			; 00000010H
  029bd	c6 45 fc 02	 mov	 BYTE PTR __$EHRec$[ebp+8], 2
  029c1	8d 4d 84	 lea	 ecx, DWORD PTR $T210401[ebp]
  029c4	ff 15 00 00 00
	00		 call	 DWORD PTR __imp_??1?$basic_string@DU?$char_traits@D@std@@V?$allocator@D@2@@std@@QAE@XZ
  029ca	c7 45 fc ff ff
	ff ff		 mov	 DWORD PTR __$EHRec$[ebp+8], -1
  029d1	8d 4d a0	 lea	 ecx, DWORD PTR $T210400[ebp]
  029d4	ff 15 00 00 00
	00		 call	 DWORD PTR __imp_??1?$basic_string@DU?$char_traits@D@std@@V?$allocator@D@2@@std@@QAE@XZ

; 947  : 	return 0;

  029da	33 c0		 xor	 eax, eax

; 948  : }

  029dc	8b 4d f4	 mov	 ecx, DWORD PTR __$EHRec$[ebp]
  029df	64 89 0d 00 00
	00 00		 mov	 DWORD PTR fs:__except_list, ecx
  029e6	8b e5		 mov	 esp, ebp
  029e8	5d		 pop	 ebp
  029e9	c2 08 00	 ret	 8
_TEXT	ENDS
text$x	SEGMENT
$L210402:
  0030a	8d 4d d8	 lea	 ecx, DWORD PTR $T210398[ebp]
  0030d	ff 25 00 00 00
	00		 jmp	 DWORD PTR __imp_??1?$basic_string@DU?$char_traits@D@std@@V?$allocator@D@2@@std@@QAE@XZ
$L210403:
  00313	8d 4d bc	 lea	 ecx, DWORD PTR $T210399[ebp]
  00316	ff 25 00 00 00
	00		 jmp	 DWORD PTR __imp_??1?$basic_string@DU?$char_traits@D@std@@V?$allocator@D@2@@std@@QAE@XZ
$L210404:
  0031c	8d 4d a0	 lea	 ecx, DWORD PTR $T210400[ebp]
  0031f	ff 25 00 00 00
	00		 jmp	 DWORD PTR __imp_??1?$basic_string@DU?$char_traits@D@std@@V?$allocator@D@2@@std@@QAE@XZ
$L210405:
  00325	8d 4d 84	 lea	 ecx, DWORD PTR $T210401[ebp]
  00328	ff 25 00 00 00
	00		 jmp	 DWORD PTR __imp_??1?$basic_string@DU?$char_traits@D@std@@V?$allocator@D@2@@std@@QAE@XZ
__ehhandler$?OnAfterUiCreate@CPlayBoxDlg@@IAEJIJ@Z:
  0032e	b8 00 00 00 00	 mov	 eax, OFFSET FLAT:$T210407
  00333	e9 00 00 00 00	 jmp	 ___CxxFrameHandler
text$x	ENDS
?OnAfterUiCreate@CPlayBoxDlg@@IAEJIJ@Z ENDP		; CPlayBoxDlg::OnAfterUiCreate
PUBLIC	??_R0?AVIConfUpdateObserver@@@8			; IConfUpdateObserver `RTTI Type Descriptor'
xdata$x	SEGMENT
$T210418 DD	0ffffffffH
	DD	FLAT:$L210414
$T210416 DD	019930520H
	DD	01H
	DD	FLAT:$T210418
	DD	2 DUP(00H)
	DD	2 DUP(00H)
xdata$x	ENDS
;	COMDAT ??_R0?AVIConfUpdateObserver@@@8
_DATA	SEGMENT
??_R0?AVIConfUpdateObserver@@@8 DD FLAT:??_7type_info@@6B@ ; IConfUpdateObserver `RTTI Type Descriptor'
	DD	00H
	DB	'.?AVIConfUpdateObserver@@', 00H
; Function compile flags: /Odt
_DATA	ENDS
_TEXT	SEGMENT
tv69 = -52						; size = 4
_this$ = -48						; size = 4
$T210413 = -44						; size = 4
$T210412 = -40						; size = 4
$T210411 = -36						; size = 4
_pOb$208680 = -32					; size = 4
_itOb$208673 = -28					; size = 4
_listOb$ = -24						; size = 12
__$EHRec$ = -12						; size = 12
___formal$ = 8						; size = 4
___formal$ = 12						; size = 4
?OnConfUpdate@CPlayBoxDlg@@IAEJIJ@Z PROC NEAR		; CPlayBoxDlg::OnConfUpdate
; _this$ = ecx

; 951  : {

  029f0	55		 push	 ebp
  029f1	8b ec		 mov	 ebp, esp
  029f3	6a ff		 push	 -1
  029f5	68 00 00 00 00	 push	 __ehhandler$?OnConfUpdate@CPlayBoxDlg@@IAEJIJ@Z
  029fa	64 a1 00 00 00
	00		 mov	 eax, DWORD PTR fs:__except_list
  02a00	50		 push	 eax
  02a01	64 89 25 00 00
	00 00		 mov	 DWORD PTR fs:__except_list, esp
  02a08	83 ec 28	 sub	 esp, 40			; 00000028H
  02a0b	89 4d d0	 mov	 DWORD PTR _this$[ebp], ecx

; 952  : 	list<IMessageObserver*> listOb;

  02a0e	8d 4d e8	 lea	 ecx, DWORD PTR _listOb$[ebp]
  02a11	e8 00 00 00 00	 call	 ??0?$list@PAVIMessageObserver@@V?$allocator@PAVIMessageObserver@@@std@@@std@@QAE@XZ ; std::list<IMessageObserver *,std::allocator<IMessageObserver *> >::list<IMessageObserver *,std::allocator<IMessageObserver *> >
  02a16	c7 45 fc 00 00
	00 00		 mov	 DWORD PTR __$EHRec$[ebp+8], 0

; 953  : 	AfxGetMessageManager()->QueryObservers( ID_MESSAGE_CONFUPDATE,listOb);

  02a1d	e8 00 00 00 00	 call	 ?AfxGetMessageManager@@YAPAVIMessageManager@@XZ ; AfxGetMessageManager
  02a22	89 45 cc	 mov	 DWORD PTR tv69[ebp], eax
  02a25	8d 45 e8	 lea	 eax, DWORD PTR _listOb$[ebp]
  02a28	50		 push	 eax
  02a29	68 00 00 00 00	 push	 OFFSET FLAT:_ID_MESSAGE_CONFUPDATE
  02a2e	8b 4d cc	 mov	 ecx, DWORD PTR tv69[ebp]
  02a31	8b 11		 mov	 edx, DWORD PTR [ecx]
  02a33	8b 4d cc	 mov	 ecx, DWORD PTR tv69[ebp]
  02a36	ff 52 0c	 call	 DWORD PTR [edx+12]

; 954  : 	for( list<IMessageObserver*>::iterator itOb = listOb.begin();itOb != listOb.end();itOb++ )

  02a39	8d 45 e4	 lea	 eax, DWORD PTR _itOb$208673[ebp]
  02a3c	50		 push	 eax
  02a3d	8d 4d e8	 lea	 ecx, DWORD PTR _listOb$[ebp]
  02a40	e8 00 00 00 00	 call	 ?begin@?$list@PAVIMessageObserver@@V?$allocator@PAVIMessageObserver@@@std@@@std@@QAE?AViterator@12@XZ ; std::list<IMessageObserver *,std::allocator<IMessageObserver *> >::begin
  02a45	eb 0e		 jmp	 SHORT $L208677
$L208678:
  02a47	6a 00		 push	 0
  02a49	8d 4d dc	 lea	 ecx, DWORD PTR $T210411[ebp]
  02a4c	51		 push	 ecx
  02a4d	8d 4d e4	 lea	 ecx, DWORD PTR _itOb$208673[ebp]
  02a50	e8 00 00 00 00	 call	 ??Eiterator@?$list@PAVIMessageObserver@@V?$allocator@PAVIMessageObserver@@@std@@@std@@QAE?AV012@H@Z ; std::list<IMessageObserver *,std::allocator<IMessageObserver *> >::iterator::operator++
$L208677:
  02a55	8d 55 d8	 lea	 edx, DWORD PTR $T210412[ebp]
  02a58	52		 push	 edx
  02a59	8d 4d e8	 lea	 ecx, DWORD PTR _listOb$[ebp]
  02a5c	e8 00 00 00 00	 call	 ?end@?$list@PAVIMessageObserver@@V?$allocator@PAVIMessageObserver@@@std@@@std@@QAE?AViterator@12@XZ ; std::list<IMessageObserver *,std::allocator<IMessageObserver *> >::end
  02a61	50		 push	 eax
  02a62	8d 4d e4	 lea	 ecx, DWORD PTR _itOb$208673[ebp]
  02a65	e8 00 00 00 00	 call	 ??9const_iterator@?$list@PAVIMessageObserver@@V?$allocator@PAVIMessageObserver@@@std@@@std@@QBE_NABV012@@Z ; std::list<IMessageObserver *,std::allocator<IMessageObserver *> >::const_iterator::operator!=
  02a6a	0f b6 c0	 movzx	 eax, al
  02a6d	85 c0		 test	 eax, eax
  02a6f	74 30		 je	 SHORT $L208679

; 955  : 	{
; 956  : 		IConfUpdateObserver* pOb = dynamic_cast<IConfUpdateObserver*>(*itOb);

  02a71	6a 00		 push	 0
  02a73	68 00 00 00 00	 push	 OFFSET FLAT:??_R0?AVIConfUpdateObserver@@@8
  02a78	68 00 00 00 00	 push	 OFFSET FLAT:??_R0?AVIMessageObserver@@@8
  02a7d	6a 00		 push	 0
  02a7f	8d 4d e4	 lea	 ecx, DWORD PTR _itOb$208673[ebp]
  02a82	e8 00 00 00 00	 call	 ??Diterator@?$list@PAVIMessageObserver@@V?$allocator@PAVIMessageObserver@@@std@@@std@@QBEAAPAVIMessageObserver@@XZ ; std::list<IMessageObserver *,std::allocator<IMessageObserver *> >::iterator::operator*
  02a87	8b 08		 mov	 ecx, DWORD PTR [eax]
  02a89	51		 push	 ecx
  02a8a	e8 00 00 00 00	 call	 ___RTDynamicCast
  02a8f	83 c4 14	 add	 esp, 20			; 00000014H
  02a92	89 45 e0	 mov	 DWORD PTR _pOb$208680[ebp], eax

; 957  : 		pOb->IConfUpdate_Update();

  02a95	8b 55 e0	 mov	 edx, DWORD PTR _pOb$208680[ebp]
  02a98	8b 02		 mov	 eax, DWORD PTR [edx]
  02a9a	8b 4d e0	 mov	 ecx, DWORD PTR _pOb$208680[ebp]
  02a9d	ff 10		 call	 DWORD PTR [eax]

; 958  : 	}

  02a9f	eb a6		 jmp	 SHORT $L208678
$L208679:

; 959  : 	return 0;

  02aa1	c7 45 d4 00 00
	00 00		 mov	 DWORD PTR $T210413[ebp], 0
  02aa8	c7 45 fc ff ff
	ff ff		 mov	 DWORD PTR __$EHRec$[ebp+8], -1
  02aaf	8d 4d e8	 lea	 ecx, DWORD PTR _listOb$[ebp]
  02ab2	e8 00 00 00 00	 call	 ??1?$list@PAVIMessageObserver@@V?$allocator@PAVIMessageObserver@@@std@@@std@@QAE@XZ ; std::list<IMessageObserver *,std::allocator<IMessageObserver *> >::~list<IMessageObserver *,std::allocator<IMessageObserver *> >
  02ab7	8b 45 d4	 mov	 eax, DWORD PTR $T210413[ebp]

; 960  : }

  02aba	8b 4d f4	 mov	 ecx, DWORD PTR __$EHRec$[ebp]
  02abd	64 89 0d 00 00
	00 00		 mov	 DWORD PTR fs:__except_list, ecx
  02ac4	8b e5		 mov	 esp, ebp
  02ac6	5d		 pop	 ebp
  02ac7	c2 08 00	 ret	 8
_TEXT	ENDS
text$x	SEGMENT
$L210414:
  00338	8d 4d e8	 lea	 ecx, DWORD PTR _listOb$[ebp]
  0033b	e9 00 00 00 00	 jmp	 ??1?$list@PAVIMessageObserver@@V?$allocator@PAVIMessageObserver@@@std@@@std@@QAE@XZ ; std::list<IMessageObserver *,std::allocator<IMessageObserver *> >::~list<IMessageObserver *,std::allocator<IMessageObserver *> >
__ehhandler$?OnConfUpdate@CPlayBoxDlg@@IAEJIJ@Z:
  00340	b8 00 00 00 00	 mov	 eax, OFFSET FLAT:$T210416
  00345	e9 00 00 00 00	 jmp	 ___CxxFrameHandler
text$x	ENDS
?OnConfUpdate@CPlayBoxDlg@@IAEJIJ@Z ENDP		; CPlayBoxDlg::OnConfUpdate
PUBLIC	??9ATL@@YA_NABV?$CStringT@DV?$StrTraitMFC_DLL@DV?$ChTraitsCRT@D@ATL@@@@@0@PBD@Z ; ATL::operator!=
EXTRN	__imp_??A?$CSimpleStringT@D$00@ATL@@QBEDH@Z:NEAR
EXTRN	__imp_??B?$CSimpleStringT@D$00@ATL@@QBEPBDXZ:NEAR
EXTRN	__imp_??0?$CStringT@DV?$StrTraitMFC_DLL@DV?$ChTraitsCRT@D@ATL@@@@@ATL@@QAE@PBD@Z:NEAR
EXTRN	__imp_??4?$CStringT@DV?$StrTraitMFC_DLL@DV?$ChTraitsCRT@D@ATL@@@@@ATL@@QAEAAV01@ABV01@@Z:NEAR
EXTRN	__imp_?Mid@?$CStringT@DV?$StrTraitMFC_DLL@DV?$ChTraitsCRT@D@ATL@@@@@ATL@@QBE?AV12@H@Z:NEAR
xdata$x	SEGMENT
$T210428 DD	0ffffffffH
	DD	00H
	DD	00H
	DD	FLAT:$L210423
	DD	01H
	DD	FLAT:$L210424
	DD	0ffffffffH
	DD	00H
$T210430 DD	00H
	DD	00H
	DD	00H
	DD	FLAT:$L210422
$T210429 DD	00H
	DD	02H
	DD	03H
	DD	01H
	DD	FLAT:$T210430
$T210426 DD	019930520H
	DD	04H
	DD	FLAT:$T210428
	DD	01H
	DD	FLAT:$T210429
	DD	2 DUP(00H)
; Function compile flags: /Odt
xdata$x	ENDS
_TEXT	SEGMENT
tv141 = -48						; size = 4
tv136 = -44						; size = 4
tv140 = -40						; size = 4
tv139 = -33						; size = 1
tv138 = -32						; size = 4
_this$ = -28						; size = 4
$T210420 = -24						; size = 4
_str$208691 = -20					; size = 4
__$EHRec$ = -16						; size = 16
_wp$ = 8						; size = 4
_lp$ = 12						; size = 4
?OnChangeText@CPlayBoxDlg@@IAEJIJ@Z PROC NEAR		; CPlayBoxDlg::OnChangeText
; _this$ = ecx

; 963  : {

  02ad0	55		 push	 ebp
  02ad1	8b ec		 mov	 ebp, esp
  02ad3	6a ff		 push	 -1
  02ad5	68 00 00 00 00	 push	 __ehhandler$?OnChangeText@CPlayBoxDlg@@IAEJIJ@Z
  02ada	64 a1 00 00 00
	00		 mov	 eax, DWORD PTR fs:__except_list
  02ae0	50		 push	 eax
  02ae1	64 89 25 00 00
	00 00		 mov	 DWORD PTR fs:__except_list, esp
  02ae8	51		 push	 ecx
  02ae9	83 ec 20	 sub	 esp, 32			; 00000020H
  02aec	53		 push	 ebx
  02aed	56		 push	 esi
  02aee	57		 push	 edi
  02aef	89 65 f0	 mov	 DWORD PTR __$EHRec$[ebp], esp
  02af2	89 4d e4	 mov	 DWORD PTR _this$[ebp], ecx

; 964  : 	if(!IsWindow(m_hWnd))

  02af5	8b 45 e4	 mov	 eax, DWORD PTR _this$[ebp]
  02af8	8b 48 20	 mov	 ecx, DWORD PTR [eax+32]
  02afb	51		 push	 ecx
  02afc	ff 15 00 00 00
	00		 call	 DWORD PTR __imp__IsWindow@4
  02b02	85 c0		 test	 eax, eax
  02b04	75 07		 jne	 SHORT $L208689

; 965  : 		return 0;

  02b06	33 c0		 xor	 eax, eax
  02b08	e9 d8 00 00 00	 jmp	 $L208688
$L208689:

; 966  : 	try
; 967  : 	{

  02b0d	c7 45 fc 00 00
	00 00		 mov	 DWORD PTR __$EHRec$[ebp+12], 0

; 968  : 		CString str = (LPCSTR)wp;

  02b14	8b 55 08	 mov	 edx, DWORD PTR _wp$[ebp]
  02b17	52		 push	 edx
  02b18	8d 4d ec	 lea	 ecx, DWORD PTR _str$208691[ebp]
  02b1b	ff 15 00 00 00
	00		 call	 DWORD PTR __imp_??0?$CStringT@DV?$StrTraitMFC_DLL@DV?$ChTraitsCRT@D@ATL@@@@@ATL@@QAE@PBD@Z
  02b21	89 45 e0	 mov	 DWORD PTR tv138[ebp], eax
  02b24	c6 45 fc 01	 mov	 BYTE PTR __$EHRec$[ebp+12], 1

; 969  : 		if(str != "" && str[0] == '-')

  02b28	68 00 00 00 00	 push	 OFFSET FLAT:$SG208694
  02b2d	8d 45 ec	 lea	 eax, DWORD PTR _str$208691[ebp]
  02b30	50		 push	 eax
  02b31	e8 00 00 00 00	 call	 ??9ATL@@YA_NABV?$CStringT@DV?$StrTraitMFC_DLL@DV?$ChTraitsCRT@D@ATL@@@@@0@PBD@Z ; ATL::operator!=
  02b36	83 c4 08	 add	 esp, 8
  02b39	0f b6 c8	 movzx	 ecx, al
  02b3c	85 c9		 test	 ecx, ecx
  02b3e	74 4d		 je	 SHORT $L208693
  02b40	6a 00		 push	 0
  02b42	8d 4d ec	 lea	 ecx, DWORD PTR _str$208691[ebp]
  02b45	ff 15 00 00 00
	00		 call	 DWORD PTR __imp_??A?$CSimpleStringT@D$00@ATL@@QBEDH@Z
  02b4b	88 45 df	 mov	 BYTE PTR tv139[ebp], al
  02b4e	0f be 55 df	 movsx	 edx, BYTE PTR tv139[ebp]
  02b52	83 fa 2d	 cmp	 edx, 45			; 0000002dH
  02b55	75 36		 jne	 SHORT $L208693

; 970  : 			str = str.Mid(1);

  02b57	6a 01		 push	 1
  02b59	8d 45 e8	 lea	 eax, DWORD PTR $T210420[ebp]
  02b5c	50		 push	 eax
  02b5d	8d 4d ec	 lea	 ecx, DWORD PTR _str$208691[ebp]
  02b60	ff 15 00 00 00
	00		 call	 DWORD PTR __imp_?Mid@?$CStringT@DV?$StrTraitMFC_DLL@DV?$ChTraitsCRT@D@ATL@@@@@ATL@@QBE?AV12@H@Z
  02b66	89 45 d8	 mov	 DWORD PTR tv140[ebp], eax
  02b69	8b 4d d8	 mov	 ecx, DWORD PTR tv140[ebp]
  02b6c	89 4d d4	 mov	 DWORD PTR tv136[ebp], ecx
  02b6f	c6 45 fc 02	 mov	 BYTE PTR __$EHRec$[ebp+12], 2
  02b73	8b 55 d4	 mov	 edx, DWORD PTR tv136[ebp]
  02b76	52		 push	 edx
  02b77	8d 4d ec	 lea	 ecx, DWORD PTR _str$208691[ebp]
  02b7a	ff 15 00 00 00
	00		 call	 DWORD PTR __imp_??4?$CStringT@DV?$StrTraitMFC_DLL@DV?$ChTraitsCRT@D@ATL@@@@@ATL@@QAEAAV01@ABV01@@Z
  02b80	c6 45 fc 01	 mov	 BYTE PTR __$EHRec$[ebp+12], 1
  02b84	8d 4d e8	 lea	 ecx, DWORD PTR $T210420[ebp]
  02b87	ff 15 00 00 00
	00		 call	 DWORD PTR __imp_??1?$CStringT@DV?$StrTraitMFC_DLL@DV?$ChTraitsCRT@D@ATL@@@@@ATL@@QAE@XZ
$L208693:

; 971  : 		SetWindowText(str);

  02b8d	8d 4d ec	 lea	 ecx, DWORD PTR _str$208691[ebp]
  02b90	ff 15 00 00 00
	00		 call	 DWORD PTR __imp_??B?$CSimpleStringT@D$00@ATL@@QBEPBDXZ
  02b96	50		 push	 eax
  02b97	8b 4d e4	 mov	 ecx, DWORD PTR _this$[ebp]
  02b9a	e8 00 00 00 00	 call	 ?SetWindowTextA@CWnd@@QAEXPBD@Z ; CWnd::SetWindowTextA

; 972  : 		m_ptrayIcon->SetIcon(theApp.LoadIcon(IDR_MAINFRAME),(LPCSTR)wp);

  02b9f	68 80 00 00 00	 push	 128			; 00000080H
  02ba4	b9 00 00 00 00	 mov	 ecx, OFFSET FLAT:?theApp@@3VCPlayBoxApp@@A
  02ba9	e8 00 00 00 00	 call	 ?LoadIconA@CWinApp@@QBEPAUHICON__@@I@Z ; CWinApp::LoadIconA
  02bae	89 45 d0	 mov	 DWORD PTR tv141[ebp], eax
  02bb1	8b 45 08	 mov	 eax, DWORD PTR _wp$[ebp]
  02bb4	50		 push	 eax
  02bb5	8b 4d d0	 mov	 ecx, DWORD PTR tv141[ebp]
  02bb8	51		 push	 ecx
  02bb9	8b 55 e4	 mov	 edx, DWORD PTR _this$[ebp]
  02bbc	8b 8a 90 00 00
	00		 mov	 ecx, DWORD PTR [edx+144]
  02bc2	e8 00 00 00 00	 call	 ?SetIcon@CTrayIcon@@QAEHPAUHICON__@@PBD@Z ; CTrayIcon::SetIcon

; 973  : 	}catch(...){}

  02bc7	c6 45 fc 00	 mov	 BYTE PTR __$EHRec$[ebp+12], 0
  02bcb	8d 4d ec	 lea	 ecx, DWORD PTR _str$208691[ebp]
  02bce	ff 15 00 00 00
	00		 call	 DWORD PTR __imp_??1?$CStringT@DV?$StrTraitMFC_DLL@DV?$ChTraitsCRT@D@ATL@@@@@ATL@@QAE@XZ
  02bd4	eb 06		 jmp	 SHORT $L210421
$L210422:
  02bd6	b8 00 00 00 00	 mov	 eax, $L210421
  02bdb	c3		 ret	 0
$L210421:
  02bdc	c7 45 fc ff ff
	ff ff		 mov	 DWORD PTR __$EHRec$[ebp+12], -1

; 974  : 	return 0;

  02be3	33 c0		 xor	 eax, eax
$L208688:

; 975  : }

  02be5	8b 4d f4	 mov	 ecx, DWORD PTR __$EHRec$[ebp+4]
  02be8	64 89 0d 00 00
	00 00		 mov	 DWORD PTR fs:__except_list, ecx
  02bef	5f		 pop	 edi
  02bf0	5e		 pop	 esi
  02bf1	5b		 pop	 ebx
  02bf2	8b e5		 mov	 esp, ebp
  02bf4	5d		 pop	 ebp
  02bf5	c2 08 00	 ret	 8
_TEXT	ENDS
text$x	SEGMENT
$L210423:
  0034a	8d 4d ec	 lea	 ecx, DWORD PTR _str$208691[ebp]
  0034d	ff 25 00 00 00
	00		 jmp	 DWORD PTR __imp_??1?$CStringT@DV?$StrTraitMFC_DLL@DV?$ChTraitsCRT@D@ATL@@@@@ATL@@QAE@XZ
$L210424:
  00353	8d 4d e8	 lea	 ecx, DWORD PTR $T210420[ebp]
  00356	ff 25 00 00 00
	00		 jmp	 DWORD PTR __imp_??1?$CStringT@DV?$StrTraitMFC_DLL@DV?$ChTraitsCRT@D@ATL@@@@@ATL@@QAE@XZ
__ehhandler$?OnChangeText@CPlayBoxDlg@@IAEJIJ@Z:
  0035c	b8 00 00 00 00	 mov	 eax, OFFSET FLAT:$T210426
  00361	e9 00 00 00 00	 jmp	 ___CxxFrameHandler
text$x	ENDS
?OnChangeText@CPlayBoxDlg@@IAEJIJ@Z ENDP		; CPlayBoxDlg::OnChangeText
EXTRN	?HTTPFinish_RegID@CHTTPControl@@SAXXZ:NEAR	; CHTTPControl::HTTPFinish_RegID
EXTRN	?HTTPFinish_ConfigFile@CHTTPControl@@SAXXZ:NEAR	; CHTTPControl::HTTPFinish_ConfigFile
EXTRN	?HTTPFinish_UpClientLog@CHTTPControl@@SAXXZ:NEAR ; CHTTPControl::HTTPFinish_UpClientLog
; Function compile flags: /Odt
_TEXT	SEGMENT
_this$ = -4						; size = 4
_w$ = 8							; size = 4
___formal$ = 12						; size = 4
?OnHTTPDonwload@CPlayBoxDlg@@IAEJIJ@Z PROC NEAR		; CPlayBoxDlg::OnHTTPDonwload
; _this$ = ecx

; 978  : {

  02c00	55		 push	 ebp
  02c01	8b ec		 mov	 ebp, esp
  02c03	51		 push	 ecx
  02c04	89 4d fc	 mov	 DWORD PTR _this$[ebp], ecx

; 979  : 	//
; 980  : 	if( w == 1 )

  02c07	83 7d 08 01	 cmp	 DWORD PTR _w$[ebp], 1
  02c0b	75 05		 jne	 SHORT $L208702

; 981  : 	{
; 982  : 		CHTTPControl::HTTPFinish_RegID();

  02c0d	e8 00 00 00 00	 call	 ?HTTPFinish_RegID@CHTTPControl@@SAXXZ ; CHTTPControl::HTTPFinish_RegID
$L208702:

; 983  : 	}
; 984  : 	if( w == 2)

  02c12	83 7d 08 02	 cmp	 DWORD PTR _w$[ebp], 2
  02c16	75 05		 jne	 SHORT $L208703

; 985  : 	{
; 986  : 		CHTTPControl::HTTPFinish_ConfigFile();

  02c18	e8 00 00 00 00	 call	 ?HTTPFinish_ConfigFile@CHTTPControl@@SAXXZ ; CHTTPControl::HTTPFinish_ConfigFile
$L208703:

; 987  : 		//,3.0,OnHTTPDonwload
; 988  : 		//CMainMsgControl::GetInstance()->ResetPopedMsgNum();
; 989  : 		//::SetTimer(m_hWnd,TIMER_POP_MESSAGE,3000,NULL);
; 990  : 		//
; 991  : 		//list<IMessageObserver*> listOb;
; 992  : 		//AfxGetMessageManager()->QueryObservers( ID_MESSAGE_CONFUPDATE,listOb);
; 993  : 		//for( list<IMessageObserver*>::iterator itOb = listOb.begin();itOb != listOb.end();itOb++ )
; 994  : 		//{
; 995  : 		//	IConfUpdateObserver* pOb = dynamic_cast<IConfUpdateObserver*>(*itOb);
; 996  : 		//	pOb->IConfUpdate_ConfigFile();
; 997  : 		//}
; 998  : 	}
; 999  : 	if( w == 3)

  02c1d	83 7d 08 03	 cmp	 DWORD PTR _w$[ebp], 3
  02c21	75 05		 jne	 SHORT $L208704

; 1000 : 	{
; 1001 : 		CHTTPControl::HTTPFinish_UpClientLog();

  02c23	e8 00 00 00 00	 call	 ?HTTPFinish_UpClientLog@CHTTPControl@@SAXXZ ; CHTTPControl::HTTPFinish_UpClientLog
$L208704:

; 1002 : 	}
; 1003 : 	return 0;

  02c28	33 c0		 xor	 eax, eax

; 1004 : }

  02c2a	8b e5		 mov	 esp, ebp
  02c2c	5d		 pop	 ebp
  02c2d	c2 08 00	 ret	 8
?OnHTTPDonwload@CPlayBoxDlg@@IAEJIJ@Z ENDP		; CPlayBoxDlg::OnHTTPDonwload
_TEXT	ENDS
PUBLIC	?OnGetMinMaxInfo@CWnd@@IAEXPAUtagMINMAXINFO@@@Z	; CWnd::OnGetMinMaxInfo
; Function compile flags: /Odt
_TEXT	SEGMENT
_this$ = -20						; size = 4
_rcWorkArea$ = -16					; size = 16
_lpMMI$ = 8						; size = 4
?OnGetMinMaxInfo@CPlayBoxDlg@@QAEXPAUtagMINMAXINFO@@@Z PROC NEAR ; CPlayBoxDlg::OnGetMinMaxInfo
; _this$ = ecx

; 1006 : {

  02c30	55		 push	 ebp
  02c31	8b ec		 mov	 ebp, esp
  02c33	83 ec 14	 sub	 esp, 20			; 00000014H
  02c36	89 4d ec	 mov	 DWORD PTR _this$[ebp], ecx

; 1007 : 	// TODO: Add your message handler code here and/or call default
; 1008 : 
; 1009 : 	RECT rcWorkArea;
; 1010 : 	SystemParametersInfo (SPI_GETWORKAREA, 0, (PVOID)&rcWorkArea, 0);

  02c39	6a 00		 push	 0
  02c3b	8d 45 f0	 lea	 eax, DWORD PTR _rcWorkArea$[ebp]
  02c3e	50		 push	 eax
  02c3f	6a 00		 push	 0
  02c41	6a 30		 push	 48			; 00000030H
  02c43	ff 15 00 00 00
	00		 call	 DWORD PTR __imp__SystemParametersInfoA@16

; 1011 : 
; 1012 : 	if (lpMMI->ptMaxSize.x > rcWorkArea.right)

  02c49	8b 4d 08	 mov	 ecx, DWORD PTR _lpMMI$[ebp]
  02c4c	8b 51 08	 mov	 edx, DWORD PTR [ecx+8]
  02c4f	3b 55 f8	 cmp	 edx, DWORD PTR _rcWorkArea$[ebp+8]
  02c52	7e 09		 jle	 SHORT $L208711

; 1013 : 		lpMMI->ptMaxSize.x = rcWorkArea.right;

  02c54	8b 45 08	 mov	 eax, DWORD PTR _lpMMI$[ebp]
  02c57	8b 4d f8	 mov	 ecx, DWORD PTR _rcWorkArea$[ebp+8]
  02c5a	89 48 08	 mov	 DWORD PTR [eax+8], ecx
$L208711:

; 1014 : 
; 1015 : 	if (lpMMI->ptMaxSize.y > rcWorkArea.bottom)

  02c5d	8b 55 08	 mov	 edx, DWORD PTR _lpMMI$[ebp]
  02c60	8b 42 0c	 mov	 eax, DWORD PTR [edx+12]
  02c63	3b 45 fc	 cmp	 eax, DWORD PTR _rcWorkArea$[ebp+12]
  02c66	7e 09		 jle	 SHORT $L208712

; 1016 : 		lpMMI->ptMaxSize.y = rcWorkArea.bottom;

  02c68	8b 4d 08	 mov	 ecx, DWORD PTR _lpMMI$[ebp]
  02c6b	8b 55 fc	 mov	 edx, DWORD PTR _rcWorkArea$[ebp+12]
  02c6e	89 51 0c	 mov	 DWORD PTR [ecx+12], edx
$L208712:

; 1017 : 
; 1018 : 	__super::OnGetMinMaxInfo(lpMMI);

  02c71	8b 45 08	 mov	 eax, DWORD PTR _lpMMI$[ebp]
  02c74	50		 push	 eax
  02c75	8b 4d ec	 mov	 ecx, DWORD PTR _this$[ebp]
  02c78	e8 00 00 00 00	 call	 ?OnGetMinMaxInfo@CWnd@@IAEXPAUtagMINMAXINFO@@@Z ; CWnd::OnGetMinMaxInfo

; 1019 : }

  02c7d	8b e5		 mov	 esp, ebp
  02c7f	5d		 pop	 ebp
  02c80	c2 04 00	 ret	 4
?OnGetMinMaxInfo@CPlayBoxDlg@@QAEXPAUtagMINMAXINFO@@@Z ENDP ; CPlayBoxDlg::OnGetMinMaxInfo
_TEXT	ENDS
EXTRN	__imp_?Compare@?$CStringT@DV?$StrTraitMFC_DLL@DV?$ChTraitsCRT@D@ATL@@@@@ATL@@QBEHPBD@Z:NEAR
; Function compile flags: /Odt
; File d:\program files (x86)\microsoft visual studio .net 2003\vc7\atlmfc\include\cstringt.h
;	COMDAT ??9ATL@@YA_NABV?$CStringT@DV?$StrTraitMFC_DLL@DV?$ChTraitsCRT@D@ATL@@@@@0@PBD@Z
_TEXT	SEGMENT
_str1$ = 8						; size = 4
_psz2$ = 12						; size = 4
??9ATL@@YA_NABV?$CStringT@DV?$StrTraitMFC_DLL@DV?$ChTraitsCRT@D@ATL@@@@@0@PBD@Z PROC NEAR ; ATL::operator!=, COMDAT

; 2121 : 	{

  00000	55		 push	 ebp
  00001	8b ec		 mov	 ebp, esp

; 2122 : 		return( str1.Compare( psz2 ) != 0 );

  00003	8b 45 0c	 mov	 eax, DWORD PTR _psz2$[ebp]
  00006	50		 push	 eax
  00007	8b 4d 08	 mov	 ecx, DWORD PTR _str1$[ebp]
  0000a	ff 15 00 00 00
	00		 call	 DWORD PTR __imp_?Compare@?$CStringT@DV?$StrTraitMFC_DLL@DV?$ChTraitsCRT@D@ATL@@@@@ATL@@QBEHPBD@Z
  00010	f7 d8		 neg	 eax
  00012	1b c0		 sbb	 eax, eax
  00014	f7 d8		 neg	 eax

; 2123 : 	}

  00016	5d		 pop	 ebp
  00017	c3		 ret	 0
??9ATL@@YA_NABV?$CStringT@DV?$StrTraitMFC_DLL@DV?$ChTraitsCRT@D@ATL@@@@@0@PBD@Z ENDP ; ATL::operator!=
; Function compile flags: /Odt
; File d:\program files (x86)\microsoft visual studio .net 2003\vc7\atlmfc\include\atltypes.inl
_TEXT	ENDS
;	COMDAT ??0CPoint@@QAE@XZ
_TEXT	SEGMENT
_this$ = -4						; size = 4
??0CPoint@@QAE@XZ PROC NEAR				; CPoint::CPoint, COMDAT
; _this$ = ecx

; 61   : 	{ /* random filled */ }

  00000	55		 push	 ebp
  00001	8b ec		 mov	 ebp, esp
  00003	51		 push	 ecx
  00004	89 4d fc	 mov	 DWORD PTR _this$[ebp], ecx
  00007	8b 45 fc	 mov	 eax, DWORD PTR _this$[ebp]
  0000a	8b e5		 mov	 esp, ebp
  0000c	5d		 pop	 ebp
  0000d	c3		 ret	 0
??0CPoint@@QAE@XZ ENDP					; CPoint::CPoint
_TEXT	ENDS
PUBLIC	??0?$allocator@PAVIMessageObserver@@@std@@QAE@XZ ; std::allocator<IMessageObserver *>::allocator<IMessageObserver *>
PUBLIC	??0?$_List_val@PAVIMessageObserver@@V?$allocator@PAVIMessageObserver@@@std@@@std@@IAE@V?$allocator@PAVIMessageObserver@@@1@@Z ; std::_List_val<IMessageObserver *,std::allocator<IMessageObserver *> >::_List_val<IMessageObserver *,std::allocator<IMessageObserver *> >
PUBLIC	?_Buynode@?$list@PAVIMessageObserver@@V?$allocator@PAVIMessageObserver@@@std@@@std@@IAEPAU_Node@?$_List_nod@PAVIMessageObserver@@V?$allocator@PAVIMessageObserver@@@std@@@2@XZ ; std::list<IMessageObserver *,std::allocator<IMessageObserver *> >::_Buynode
; Function compile flags: /Odt
; File d:\program files (x86)\microsoft visual studio .net 2003\vc7\include\list
;	COMDAT ??0?$list@PAVIMessageObserver@@V?$allocator@PAVIMessageObserver@@@std@@@std@@QAE@XZ
_TEXT	SEGMENT
_this$ = -8						; size = 4
??0?$list@PAVIMessageObserver@@V?$allocator@PAVIMessageObserver@@@std@@@std@@QAE@XZ PROC NEAR ; std::list<IMessageObserver *,std::allocator<IMessageObserver *> >::list<IMessageObserver *,std::allocator<IMessageObserver *> >, COMDAT
; _this$ = ecx

; 280  : 		{	// construct empty list

  00000	55		 push	 ebp
  00001	8b ec		 mov	 ebp, esp
  00003	83 ec 08	 sub	 esp, 8
  00006	89 4d f8	 mov	 DWORD PTR _this$[ebp], ecx
  00009	51		 push	 ecx
  0000a	8b cc		 mov	 ecx, esp
  0000c	e8 00 00 00 00	 call	 ??0?$allocator@PAVIMessageObserver@@@std@@QAE@XZ ; std::allocator<IMessageObserver *>::allocator<IMessageObserver *>
  00011	8b 4d f8	 mov	 ecx, DWORD PTR _this$[ebp]
  00014	e8 00 00 00 00	 call	 ??0?$_List_val@PAVIMessageObserver@@V?$allocator@PAVIMessageObserver@@@std@@@std@@IAE@V?$allocator@PAVIMessageObserver@@@1@@Z ; std::_List_val<IMessageObserver *,std::allocator<IMessageObserver *> >::_List_val<IMessageObserver *,std::allocator<IMessageObserver *> >
  00019	8b 4d f8	 mov	 ecx, DWORD PTR _this$[ebp]
  0001c	e8 00 00 00 00	 call	 ?_Buynode@?$list@PAVIMessageObserver@@V?$allocator@PAVIMessageObserver@@@std@@@std@@IAEPAU_Node@?$_List_nod@PAVIMessageObserver@@V?$allocator@PAVIMessageObserver@@@std@@@2@XZ ; std::list<IMessageObserver *,std::allocator<IMessageObserver *> >::_Buynode
  00021	8b 4d f8	 mov	 ecx, DWORD PTR _this$[ebp]
  00024	89 41 04	 mov	 DWORD PTR [ecx+4], eax
  00027	8b 55 f8	 mov	 edx, DWORD PTR _this$[ebp]
  0002a	c7 42 08 00 00
	00 00		 mov	 DWORD PTR [edx+8], 0

; 281  : 		}

  00031	8b 45 f8	 mov	 eax, DWORD PTR _this$[ebp]
  00034	8b e5		 mov	 esp, ebp
  00036	5d		 pop	 ebp
  00037	c3		 ret	 0
??0?$list@PAVIMessageObserver@@V?$allocator@PAVIMessageObserver@@@std@@@std@@QAE@XZ ENDP ; std::list<IMessageObserver *,std::allocator<IMessageObserver *> >::list<IMessageObserver *,std::allocator<IMessageObserver *> >
_TEXT	ENDS
PUBLIC	?_Tidy@?$list@PAVIMessageObserver@@V?$allocator@PAVIMessageObserver@@@std@@@std@@IAEXXZ ; std::list<IMessageObserver *,std::allocator<IMessageObserver *> >::_Tidy
; Function compile flags: /Odt
;	COMDAT ??1?$list@PAVIMessageObserver@@V?$allocator@PAVIMessageObserver@@@std@@@std@@QAE@XZ
_TEXT	SEGMENT
_this$ = -4						; size = 4
??1?$list@PAVIMessageObserver@@V?$allocator@PAVIMessageObserver@@@std@@@std@@QAE@XZ PROC NEAR ; std::list<IMessageObserver *,std::allocator<IMessageObserver *> >::~list<IMessageObserver *,std::allocator<IMessageObserver *> >, COMDAT
; _this$ = ecx

; 364  : 		{	// destroy the object

  00000	55		 push	 ebp
  00001	8b ec		 mov	 ebp, esp
  00003	51		 push	 ecx
  00004	89 4d fc	 mov	 DWORD PTR _this$[ebp], ecx

; 365  : 		_Tidy();

  00007	8b 4d fc	 mov	 ecx, DWORD PTR _this$[ebp]
  0000a	e8 00 00 00 00	 call	 ?_Tidy@?$list@PAVIMessageObserver@@V?$allocator@PAVIMessageObserver@@@std@@@std@@IAEXXZ ; std::list<IMessageObserver *,std::allocator<IMessageObserver *> >::_Tidy

; 366  : 		}

  0000f	8b e5		 mov	 esp, ebp
  00011	5d		 pop	 ebp
  00012	c3		 ret	 0
??1?$list@PAVIMessageObserver@@V?$allocator@PAVIMessageObserver@@@std@@@std@@QAE@XZ ENDP ; std::list<IMessageObserver *,std::allocator<IMessageObserver *> >::~list<IMessageObserver *,std::allocator<IMessageObserver *> >
_TEXT	ENDS
PUBLIC	?_Nextnode@?$list@PAVIMessageObserver@@V?$allocator@PAVIMessageObserver@@@std@@@std@@KAAAPAU_Node@?$_List_nod@PAVIMessageObserver@@V?$allocator@PAVIMessageObserver@@@std@@@2@PAU342@@Z ; std::list<IMessageObserver *,std::allocator<IMessageObserver *> >::_Nextnode
PUBLIC	??0iterator@?$list@PAVIMessageObserver@@V?$allocator@PAVIMessageObserver@@@std@@@std@@QAE@PAU_Node@?$_List_nod@PAVIMessageObserver@@V?$allocator@PAVIMessageObserver@@@std@@@2@@Z ; std::list<IMessageObserver *,std::allocator<IMessageObserver *> >::iterator::iterator
; Function compile flags: /Odt
;	COMDAT ?begin@?$list@PAVIMessageObserver@@V?$allocator@PAVIMessageObserver@@@std@@@std@@QAE?AViterator@12@XZ
_TEXT	SEGMENT
_this$ = -4						; size = 4
___$ReturnUdt$ = 8					; size = 4
?begin@?$list@PAVIMessageObserver@@V?$allocator@PAVIMessageObserver@@@std@@@std@@QAE?AViterator@12@XZ PROC NEAR ; std::list<IMessageObserver *,std::allocator<IMessageObserver *> >::begin, COMDAT
; _this$ = ecx

; 376  : 		{	// return iterator for beginning of mutable sequence

  00000	55		 push	 ebp
  00001	8b ec		 mov	 ebp, esp
  00003	51		 push	 ecx
  00004	89 4d fc	 mov	 DWORD PTR _this$[ebp], ecx

; 377  : 		return (iterator(_Nextnode(_Myhead)));

  00007	8b 45 fc	 mov	 eax, DWORD PTR _this$[ebp]
  0000a	8b 48 04	 mov	 ecx, DWORD PTR [eax+4]
  0000d	51		 push	 ecx
  0000e	e8 00 00 00 00	 call	 ?_Nextnode@?$list@PAVIMessageObserver@@V?$allocator@PAVIMessageObserver@@@std@@@std@@KAAAPAU_Node@?$_List_nod@PAVIMessageObserver@@V?$allocator@PAVIMessageObserver@@@std@@@2@PAU342@@Z ; std::list<IMessageObserver *,std::allocator<IMessageObserver *> >::_Nextnode
  00013	83 c4 04	 add	 esp, 4
  00016	8b 10		 mov	 edx, DWORD PTR [eax]
  00018	52		 push	 edx
  00019	8b 4d 08	 mov	 ecx, DWORD PTR ___$ReturnUdt$[ebp]
  0001c	e8 00 00 00 00	 call	 ??0iterator@?$list@PAVIMessageObserver@@V?$allocator@PAVIMessageObserver@@@std@@@std@@QAE@PAU_Node@?$_List_nod@PAVIMessageObserver@@V?$allocator@PAVIMessageObserver@@@std@@@2@@Z ; std::list<IMessageObserver *,std::allocator<IMessageObserver *> >::iterator::iterator
  00021	8b 45 08	 mov	 eax, DWORD PTR ___$ReturnUdt$[ebp]

; 378  : 		}

  00024	8b e5		 mov	 esp, ebp
  00026	5d		 pop	 ebp
  00027	c2 04 00	 ret	 4
?begin@?$list@PAVIMessageObserver@@V?$allocator@PAVIMessageObserver@@@std@@@std@@QAE?AViterator@12@XZ ENDP ; std::list<IMessageObserver *,std::allocator<IMessageObserver *> >::begin
; Function compile flags: /Odt
_TEXT	ENDS
;	COMDAT ?end@?$list@PAVIMessageObserver@@V?$allocator@PAVIMessageObserver@@@std@@@std@@QAE?AViterator@12@XZ
_TEXT	SEGMENT
_this$ = -4						; size = 4
___$ReturnUdt$ = 8					; size = 4
?end@?$list@PAVIMessageObserver@@V?$allocator@PAVIMessageObserver@@@std@@@std@@QAE?AViterator@12@XZ PROC NEAR ; std::list<IMessageObserver *,std::allocator<IMessageObserver *> >::end, COMDAT
; _this$ = ecx

; 386  : 		{	// return iterator for end of mutable sequence

  00000	55		 push	 ebp
  00001	8b ec		 mov	 ebp, esp
  00003	51		 push	 ecx
  00004	89 4d fc	 mov	 DWORD PTR _this$[ebp], ecx

; 387  : 		return (iterator(_Myhead));

  00007	8b 45 fc	 mov	 eax, DWORD PTR _this$[ebp]
  0000a	8b 48 04	 mov	 ecx, DWORD PTR [eax+4]
  0000d	51		 push	 ecx
  0000e	8b 4d 08	 mov	 ecx, DWORD PTR ___$ReturnUdt$[ebp]
  00011	e8 00 00 00 00	 call	 ??0iterator@?$list@PAVIMessageObserver@@V?$allocator@PAVIMessageObserver@@@std@@@std@@QAE@PAU_Node@?$_List_nod@PAVIMessageObserver@@V?$allocator@PAVIMessageObserver@@@std@@@2@@Z ; std::list<IMessageObserver *,std::allocator<IMessageObserver *> >::iterator::iterator
  00016	8b 45 08	 mov	 eax, DWORD PTR ___$ReturnUdt$[ebp]

; 388  : 		}

  00019	8b e5		 mov	 esp, ebp
  0001b	5d		 pop	 ebp
  0001c	c2 04 00	 ret	 4
?end@?$list@PAVIMessageObserver@@V?$allocator@PAVIMessageObserver@@@std@@@std@@QAE?AViterator@12@XZ ENDP ; std::list<IMessageObserver *,std::allocator<IMessageObserver *> >::end
_TEXT	ENDS
PUBLIC	??Dconst_iterator@?$list@PAVIMessageObserver@@V?$allocator@PAVIMessageObserver@@@std@@@std@@QBEABQAVIMessageObserver@@XZ ; std::list<IMessageObserver *,std::allocator<IMessageObserver *> >::const_iterator::operator*
; Function compile flags: /Odt
;	COMDAT ??Diterator@?$list@PAVIMessageObserver@@V?$allocator@PAVIMessageObserver@@@std@@@std@@QBEAAPAVIMessageObserver@@XZ
_TEXT	SEGMENT
_this$ = -4						; size = 4
??Diterator@?$list@PAVIMessageObserver@@V?$allocator@PAVIMessageObserver@@@std@@@std@@QBEAAPAVIMessageObserver@@XZ PROC NEAR ; std::list<IMessageObserver *,std::allocator<IMessageObserver *> >::iterator::operator*, COMDAT
; _this$ = ecx

; 239  : 			{	// return designated value

  00000	55		 push	 ebp
  00001	8b ec		 mov	 ebp, esp
  00003	51		 push	 ecx
  00004	89 4d fc	 mov	 DWORD PTR _this$[ebp], ecx

; 240  : 			return ((reference)**(const_iterator *)this);

  00007	8b 4d fc	 mov	 ecx, DWORD PTR _this$[ebp]
  0000a	e8 00 00 00 00	 call	 ??Dconst_iterator@?$list@PAVIMessageObserver@@V?$allocator@PAVIMessageObserver@@@std@@@std@@QBEABQAVIMessageObserver@@XZ ; std::list<IMessageObserver *,std::allocator<IMessageObserver *> >::const_iterator::operator*

; 241  : 			}

  0000f	8b e5		 mov	 esp, ebp
  00011	5d		 pop	 ebp
  00012	c3		 ret	 0
??Diterator@?$list@PAVIMessageObserver@@V?$allocator@PAVIMessageObserver@@@std@@@std@@QBEAAPAVIMessageObserver@@XZ ENDP ; std::list<IMessageObserver *,std::allocator<IMessageObserver *> >::iterator::operator*
_TEXT	ENDS
PUBLIC	??Eiterator@?$list@PAVIMessageObserver@@V?$allocator@PAVIMessageObserver@@@std@@@std@@QAEAAV012@XZ ; std::list<IMessageObserver *,std::allocator<IMessageObserver *> >::iterator::operator++
; Function compile flags: /Odt
;	COMDAT ??Eiterator@?$list@PAVIMessageObserver@@V?$allocator@PAVIMessageObserver@@@std@@@std@@QAE?AV012@H@Z
_TEXT	SEGMENT
_this$ = -8						; size = 4
__Tmp$ = -4						; size = 4
___$ReturnUdt$ = 8					; size = 4
___formal$ = 12						; size = 4
??Eiterator@?$list@PAVIMessageObserver@@V?$allocator@PAVIMessageObserver@@@std@@@std@@QAE?AV012@H@Z PROC NEAR ; std::list<IMessageObserver *,std::allocator<IMessageObserver *> >::iterator::operator++, COMDAT
; _this$ = ecx

; 255  : 			{	// postincrement

  00000	55		 push	 ebp
  00001	8b ec		 mov	 ebp, esp
  00003	83 ec 08	 sub	 esp, 8
  00006	89 4d f8	 mov	 DWORD PTR _this$[ebp], ecx

; 256  : 			iterator _Tmp = *this;

  00009	8b 45 f8	 mov	 eax, DWORD PTR _this$[ebp]
  0000c	8b 08		 mov	 ecx, DWORD PTR [eax]
  0000e	89 4d fc	 mov	 DWORD PTR __Tmp$[ebp], ecx

; 257  : 			++*this;

  00011	8b 4d f8	 mov	 ecx, DWORD PTR _this$[ebp]
  00014	e8 00 00 00 00	 call	 ??Eiterator@?$list@PAVIMessageObserver@@V?$allocator@PAVIMessageObserver@@@std@@@std@@QAEAAV012@XZ ; std::list<IMessageObserver *,std::allocator<IMessageObserver *> >::iterator::operator++

; 258  : 			return (_Tmp);

  00019	8b 55 08	 mov	 edx, DWORD PTR ___$ReturnUdt$[ebp]
  0001c	8b 45 fc	 mov	 eax, DWORD PTR __Tmp$[ebp]
  0001f	89 02		 mov	 DWORD PTR [edx], eax
  00021	8b 45 08	 mov	 eax, DWORD PTR ___$ReturnUdt$[ebp]

; 259  : 			}

  00024	8b e5		 mov	 esp, ebp
  00026	5d		 pop	 ebp
  00027	c2 08 00	 ret	 8
??Eiterator@?$list@PAVIMessageObserver@@V?$allocator@PAVIMessageObserver@@@std@@@std@@QAE?AV012@H@Z ENDP ; std::list<IMessageObserver *,std::allocator<IMessageObserver *> >::iterator::operator++
_TEXT	ENDS
PUBLIC	??8const_iterator@?$list@PAVIMessageObserver@@V?$allocator@PAVIMessageObserver@@@std@@@std@@QBE_NABV012@@Z ; std::list<IMessageObserver *,std::allocator<IMessageObserver *> >::const_iterator::operator==
; Function compile flags: /Odt
;	COMDAT ??9const_iterator@?$list@PAVIMessageObserver@@V?$allocator@PAVIMessageObserver@@@std@@@std@@QBE_NABV012@@Z
_TEXT	SEGMENT
_this$ = -4						; size = 4
__Right$ = 8						; size = 4
??9const_iterator@?$list@PAVIMessageObserver@@V?$allocator@PAVIMessageObserver@@@std@@@std@@QBE_NABV012@@Z PROC NEAR ; std::list<IMessageObserver *,std::allocator<IMessageObserver *> >::const_iterator::operator!=, COMDAT
; _this$ = ecx

; 201  : 			{	// test for iterator inequality

  00000	55		 push	 ebp
  00001	8b ec		 mov	 ebp, esp
  00003	51		 push	 ecx
  00004	89 4d fc	 mov	 DWORD PTR _this$[ebp], ecx

; 202  : 			return (!(*this == _Right));

  00007	8b 45 08	 mov	 eax, DWORD PTR __Right$[ebp]
  0000a	50		 push	 eax
  0000b	8b 4d fc	 mov	 ecx, DWORD PTR _this$[ebp]
  0000e	e8 00 00 00 00	 call	 ??8const_iterator@?$list@PAVIMessageObserver@@V?$allocator@PAVIMessageObserver@@@std@@@std@@QBE_NABV012@@Z ; std::list<IMessageObserver *,std::allocator<IMessageObserver *> >::const_iterator::operator==
  00013	0f b6 c0	 movzx	 eax, al
  00016	f7 d8		 neg	 eax
  00018	1b c0		 sbb	 eax, eax
  0001a	40		 inc	 eax

; 203  : 			}

  0001b	8b e5		 mov	 esp, ebp
  0001d	5d		 pop	 ebp
  0001e	c2 04 00	 ret	 4
??9const_iterator@?$list@PAVIMessageObserver@@V?$allocator@PAVIMessageObserver@@@std@@@std@@QBE_NABV012@@Z ENDP ; std::list<IMessageObserver *,std::allocator<IMessageObserver *> >::const_iterator::operator!=
; Function compile flags: /Odt
; File d:\program files (x86)\microsoft visual studio .net 2003\vc7\atlmfc\include\atltypes.inl
_TEXT	ENDS
;	COMDAT ??0CRect@@QAE@XZ
_TEXT	SEGMENT
_this$ = -4						; size = 4
??0CRect@@QAE@XZ PROC NEAR				; CRect::CRect, COMDAT
; _this$ = ecx

; 110  : 	{ /* random filled */ }

  00000	55		 push	 ebp
  00001	8b ec		 mov	 ebp, esp
  00003	51		 push	 ecx
  00004	89 4d fc	 mov	 DWORD PTR _this$[ebp], ecx
  00007	8b 45 fc	 mov	 eax, DWORD PTR _this$[ebp]
  0000a	8b e5		 mov	 esp, ebp
  0000c	5d		 pop	 ebp
  0000d	c3		 ret	 0
??0CRect@@QAE@XZ ENDP					; CRect::CRect
; Function compile flags: /Odt
_TEXT	ENDS
;	COMDAT ?Width@CRect@@QBEHXZ
_TEXT	SEGMENT
_this$ = -4						; size = 4
?Width@CRect@@QBEHXZ PROC NEAR				; CRect::Width, COMDAT
; _this$ = ecx

; 123  : 	{ return right - left; }

  00000	55		 push	 ebp
  00001	8b ec		 mov	 ebp, esp
  00003	51		 push	 ecx
  00004	89 4d fc	 mov	 DWORD PTR _this$[ebp], ecx
  00007	8b 45 fc	 mov	 eax, DWORD PTR _this$[ebp]
  0000a	8b 4d fc	 mov	 ecx, DWORD PTR _this$[ebp]
  0000d	8b 40 08	 mov	 eax, DWORD PTR [eax+8]
  00010	2b 01		 sub	 eax, DWORD PTR [ecx]
  00012	8b e5		 mov	 esp, ebp
  00014	5d		 pop	 ebp
  00015	c3		 ret	 0
?Width@CRect@@QBEHXZ ENDP				; CRect::Width
; Function compile flags: /Odt
_TEXT	ENDS
;	COMDAT ?Height@CRect@@QBEHXZ
_TEXT	SEGMENT
_this$ = -4						; size = 4
?Height@CRect@@QBEHXZ PROC NEAR				; CRect::Height, COMDAT
; _this$ = ecx

; 125  : 	{ return bottom - top; }

  00000	55		 push	 ebp
  00001	8b ec		 mov	 ebp, esp
  00003	51		 push	 ecx
  00004	89 4d fc	 mov	 DWORD PTR _this$[ebp], ecx
  00007	8b 45 fc	 mov	 eax, DWORD PTR _this$[ebp]
  0000a	8b 4d fc	 mov	 ecx, DWORD PTR _this$[ebp]
  0000d	8b 40 0c	 mov	 eax, DWORD PTR [eax+12]
  00010	2b 41 04	 sub	 eax, DWORD PTR [ecx+4]
  00013	8b e5		 mov	 esp, ebp
  00015	5d		 pop	 ebp
  00016	c3		 ret	 0
?Height@CRect@@QBEHXZ ENDP				; CRect::Height
; Function compile flags: /Odt
_TEXT	ENDS
;	COMDAT ??BCRect@@QAEPAUtagRECT@@XZ
_TEXT	SEGMENT
_this$ = -4						; size = 4
??BCRect@@QAEPAUtagRECT@@XZ PROC NEAR			; CRect::operator tagRECT *, COMDAT
; _this$ = ecx

; 143  : 	{ return this; }

  00000	55		 push	 ebp
  00001	8b ec		 mov	 ebp, esp
  00003	51		 push	 ecx
  00004	89 4d fc	 mov	 DWORD PTR _this$[ebp], ecx
  00007	8b 45 fc	 mov	 eax, DWORD PTR _this$[ebp]
  0000a	8b e5		 mov	 esp, ebp
  0000c	5d		 pop	 ebp
  0000d	c3		 ret	 0
??BCRect@@QAEPAUtagRECT@@XZ ENDP			; CRect::operator tagRECT *
; Function compile flags: /Odt
; File d:\program files (x86)\microsoft visual studio .net 2003\vc7\include\list
_TEXT	ENDS
;	COMDAT ?_Nextnode@?$list@PAVIMessageObserver@@V?$allocator@PAVIMessageObserver@@@std@@@std@@KAAAPAU_Node@?$_List_nod@PAVIMessageObserver@@V?$allocator@PAVIMessageObserver@@@std@@@2@PAU342@@Z
_TEXT	SEGMENT
__Pnode$ = 8						; size = 4
?_Nextnode@?$list@PAVIMessageObserver@@V?$allocator@PAVIMessageObserver@@@std@@@std@@KAAAPAU_Node@?$_List_nod@PAVIMessageObserver@@V?$allocator@PAVIMessageObserver@@@std@@@2@PAU342@@Z PROC NEAR ; std::list<IMessageObserver *,std::allocator<IMessageObserver *> >::_Nextnode, COMDAT

; 107  : 		{	// return reference to successor pointer in node

  00000	55		 push	 ebp
  00001	8b ec		 mov	 ebp, esp

; 108  : 		return ((_Nodepref)(*_Pnode)._Next);

  00003	8b 45 08	 mov	 eax, DWORD PTR __Pnode$[ebp]

; 109  : 		}

  00006	5d		 pop	 ebp
  00007	c3		 ret	 0
?_Nextnode@?$list@PAVIMessageObserver@@V?$allocator@PAVIMessageObserver@@@std@@@std@@KAAAPAU_Node@?$_List_nod@PAVIMessageObserver@@V?$allocator@PAVIMessageObserver@@@std@@@2@PAU342@@Z ENDP ; std::list<IMessageObserver *,std::allocator<IMessageObserver *> >::_Nextnode
_TEXT	ENDS
PUBLIC	?deallocate@?$allocator@U_Node@?$_List_nod@PAVIMessageObserver@@V?$allocator@PAVIMessageObserver@@@std@@@std@@@std@@QAEXPAU_Node@?$_List_nod@PAVIMessageObserver@@V?$allocator@PAVIMessageObserver@@@std@@@2@I@Z ; std::allocator<std::_List_nod<IMessageObserver *,std::allocator<IMessageObserver *> >::_Node>::deallocate
PUBLIC	?allocate@?$allocator@U_Node@?$_List_nod@PAVIMessageObserver@@V?$allocator@PAVIMessageObserver@@@std@@@std@@@std@@QAEPAU_Node@?$_List_nod@PAVIMessageObserver@@V?$allocator@PAVIMessageObserver@@@std@@@2@I@Z ; std::allocator<std::_List_nod<IMessageObserver *,std::allocator<IMessageObserver *> >::_Node>::allocate
PUBLIC	?construct@?$allocator@PAU_Node@?$_List_nod@PAVIMessageObserver@@V?$allocator@PAVIMessageObserver@@@std@@@std@@@std@@QAEXPAPAU_Node@?$_List_nod@PAVIMessageObserver@@V?$allocator@PAVIMessageObserver@@@std@@@2@ABQAU342@@Z ; std::allocator<std::_List_nod<IMessageObserver *,std::allocator<IMessageObserver *> >::_Node *>::construct
PUBLIC	?destroy@?$allocator@PAU_Node@?$_List_nod@PAVIMessageObserver@@V?$allocator@PAVIMessageObserver@@@std@@@std@@@std@@QAEXPAPAU_Node@?$_List_nod@PAVIMessageObserver@@V?$allocator@PAVIMessageObserver@@@std@@@2@@Z ; std::allocator<std::_List_nod<IMessageObserver *,std::allocator<IMessageObserver *> >::_Node *>::destroy
PUBLIC	?_Prevnode@?$list@PAVIMessageObserver@@V?$allocator@PAVIMessageObserver@@@std@@@std@@KAAAPAU_Node@?$_List_nod@PAVIMessageObserver@@V?$allocator@PAVIMessageObserver@@@std@@@2@PAU342@@Z ; std::list<IMessageObserver *,std::allocator<IMessageObserver *> >::_Prevnode
EXTRN	__CxxThrowException@8:NEAR
;	COMDAT xdata$x
xdata$x	SEGMENT
$T210469 DD	0ffffffffH
	DD	00H
	DD	0ffffffffH
	DD	00H
$T210471 DD	00H
	DD	00H
	DD	00H
	DD	FLAT:$L210465
$T210470 DD	00H
	DD	00H
	DD	01H
	DD	01H
	DD	FLAT:$T210471
$T210467 DD	019930520H
	DD	02H
	DD	FLAT:$T210469
	DD	01H
	DD	FLAT:$T210470
	DD	2 DUP(00H)
; Function compile flags: /Odt
xdata$x	ENDS
;	COMDAT ?_Buynode@?$list@PAVIMessageObserver@@V?$allocator@PAVIMessageObserver@@@std@@@std@@IAEPAU_Node@?$_List_nod@PAVIMessageObserver@@V?$allocator@PAVIMessageObserver@@@std@@@2@XZ
_TEXT	SEGMENT
tv93 = -36						; size = 4
tv92 = -32						; size = 4
_this$ = -28						; size = 4
__Pnode$ = -24						; size = 4
__Linkcnt$ = -20					; size = 4
__$EHRec$ = -16						; size = 16
?_Buynode@?$list@PAVIMessageObserver@@V?$allocator@PAVIMessageObserver@@@std@@@std@@IAEPAU_Node@?$_List_nod@PAVIMessageObserver@@V?$allocator@PAVIMessageObserver@@@std@@@2@XZ PROC NEAR ; std::list<IMessageObserver *,std::allocator<IMessageObserver *> >::_Buynode, COMDAT
; _this$ = ecx

; 898  : 		{	// allocate a head node and set links

  00000	55		 push	 ebp
  00001	8b ec		 mov	 ebp, esp
  00003	6a ff		 push	 -1
  00005	68 00 00 00 00	 push	 __ehhandler$?_Buynode@?$list@PAVIMessageObserver@@V?$allocator@PAVIMessageObserver@@@std@@@std@@IAEPAU_Node@?$_List_nod@PAVIMessageObserver@@V?$allocator@PAVIMessageObserver@@@std@@@2@XZ
  0000a	64 a1 00 00 00
	00		 mov	 eax, DWORD PTR fs:__except_list
  00010	50		 push	 eax
  00011	64 89 25 00 00
	00 00		 mov	 DWORD PTR fs:__except_list, esp
  00018	51		 push	 ecx
  00019	83 ec 14	 sub	 esp, 20			; 00000014H
  0001c	53		 push	 ebx
  0001d	56		 push	 esi
  0001e	57		 push	 edi
  0001f	89 65 f0	 mov	 DWORD PTR __$EHRec$[ebp], esp
  00022	89 4d e4	 mov	 DWORD PTR _this$[ebp], ecx

; 899  : 		_Nodeptr _Pnode = this->_Alnod.allocate(1);

  00025	6a 01		 push	 1
  00027	8b 4d e4	 mov	 ecx, DWORD PTR _this$[ebp]
  0002a	e8 00 00 00 00	 call	 ?allocate@?$allocator@U_Node@?$_List_nod@PAVIMessageObserver@@V?$allocator@PAVIMessageObserver@@@std@@@std@@@std@@QAEPAU_Node@?$_List_nod@PAVIMessageObserver@@V?$allocator@PAVIMessageObserver@@@std@@@2@I@Z ; std::allocator<std::_List_nod<IMessageObserver *,std::allocator<IMessageObserver *> >::_Node>::allocate
  0002f	89 45 e8	 mov	 DWORD PTR __Pnode$[ebp], eax

; 900  : 		int _Linkcnt = 0;

  00032	c7 45 ec 00 00
	00 00		 mov	 DWORD PTR __Linkcnt$[ebp], 0

; 901  : 
; 902  : 		_TRY_BEGIN

  00039	c7 45 fc 00 00
	00 00		 mov	 DWORD PTR __$EHRec$[ebp+12], 0

; 903  : 		this->_Alptr.construct(&_Nextnode(_Pnode), _Pnode);

  00040	8b 45 e8	 mov	 eax, DWORD PTR __Pnode$[ebp]
  00043	50		 push	 eax
  00044	e8 00 00 00 00	 call	 ?_Nextnode@?$list@PAVIMessageObserver@@V?$allocator@PAVIMessageObserver@@@std@@@std@@KAAAPAU_Node@?$_List_nod@PAVIMessageObserver@@V?$allocator@PAVIMessageObserver@@@std@@@2@PAU342@@Z ; std::list<IMessageObserver *,std::allocator<IMessageObserver *> >::_Nextnode
  00049	83 c4 04	 add	 esp, 4
  0004c	89 45 e0	 mov	 DWORD PTR tv92[ebp], eax
  0004f	8d 4d e8	 lea	 ecx, DWORD PTR __Pnode$[ebp]
  00052	51		 push	 ecx
  00053	8b 55 e0	 mov	 edx, DWORD PTR tv92[ebp]
  00056	52		 push	 edx
  00057	8b 4d e4	 mov	 ecx, DWORD PTR _this$[ebp]
  0005a	83 c1 01	 add	 ecx, 1
  0005d	e8 00 00 00 00	 call	 ?construct@?$allocator@PAU_Node@?$_List_nod@PAVIMessageObserver@@V?$allocator@PAVIMessageObserver@@@std@@@std@@@std@@QAEXPAPAU_Node@?$_List_nod@PAVIMessageObserver@@V?$allocator@PAVIMessageObserver@@@std@@@2@ABQAU342@@Z ; std::allocator<std::_List_nod<IMessageObserver *,std::allocator<IMessageObserver *> >::_Node *>::construct

; 904  : 		++_Linkcnt;

  00062	8b 45 ec	 mov	 eax, DWORD PTR __Linkcnt$[ebp]
  00065	83 c0 01	 add	 eax, 1
  00068	89 45 ec	 mov	 DWORD PTR __Linkcnt$[ebp], eax

; 905  : 		this->_Alptr.construct(&_Prevnode(_Pnode), _Pnode);

  0006b	8b 4d e8	 mov	 ecx, DWORD PTR __Pnode$[ebp]
  0006e	51		 push	 ecx
  0006f	e8 00 00 00 00	 call	 ?_Prevnode@?$list@PAVIMessageObserver@@V?$allocator@PAVIMessageObserver@@@std@@@std@@KAAAPAU_Node@?$_List_nod@PAVIMessageObserver@@V?$allocator@PAVIMessageObserver@@@std@@@2@PAU342@@Z ; std::list<IMessageObserver *,std::allocator<IMessageObserver *> >::_Prevnode
  00074	83 c4 04	 add	 esp, 4
  00077	89 45 dc	 mov	 DWORD PTR tv93[ebp], eax
  0007a	8d 55 e8	 lea	 edx, DWORD PTR __Pnode$[ebp]
  0007d	52		 push	 edx
  0007e	8b 45 dc	 mov	 eax, DWORD PTR tv93[ebp]
  00081	50		 push	 eax
  00082	8b 4d e4	 mov	 ecx, DWORD PTR _this$[ebp]
  00085	83 c1 01	 add	 ecx, 1
  00088	e8 00 00 00 00	 call	 ?construct@?$allocator@PAU_Node@?$_List_nod@PAVIMessageObserver@@V?$allocator@PAVIMessageObserver@@@std@@@std@@@std@@QAEXPAPAU_Node@?$_List_nod@PAVIMessageObserver@@V?$allocator@PAVIMessageObserver@@@std@@@2@ABQAU342@@Z ; std::allocator<std::_List_nod<IMessageObserver *,std::allocator<IMessageObserver *> >::_Node *>::construct
  0008d	eb 35		 jmp	 SHORT $L210464
$L210465:

; 906  : 		_CATCH_ALL
; 907  : 		if (0 < _Linkcnt)

  0008f	83 7d ec 00	 cmp	 DWORD PTR __Linkcnt$[ebp], 0
  00093	7e 18		 jle	 SHORT $L208868

; 908  : 			this->_Alptr.destroy(&_Nextnode(_Pnode));

  00095	8b 4d e8	 mov	 ecx, DWORD PTR __Pnode$[ebp]
  00098	51		 push	 ecx
  00099	e8 00 00 00 00	 call	 ?_Nextnode@?$list@PAVIMessageObserver@@V?$allocator@PAVIMessageObserver@@@std@@@std@@KAAAPAU_Node@?$_List_nod@PAVIMessageObserver@@V?$allocator@PAVIMessageObserver@@@std@@@2@PAU342@@Z ; std::list<IMessageObserver *,std::allocator<IMessageObserver *> >::_Nextnode
  0009e	83 c4 04	 add	 esp, 4
  000a1	50		 push	 eax
  000a2	8b 4d e4	 mov	 ecx, DWORD PTR _this$[ebp]
  000a5	83 c1 01	 add	 ecx, 1
  000a8	e8 00 00 00 00	 call	 ?destroy@?$allocator@PAU_Node@?$_List_nod@PAVIMessageObserver@@V?$allocator@PAVIMessageObserver@@@std@@@std@@@std@@QAEXPAPAU_Node@?$_List_nod@PAVIMessageObserver@@V?$allocator@PAVIMessageObserver@@@std@@@2@@Z ; std::allocator<std::_List_nod<IMessageObserver *,std::allocator<IMessageObserver *> >::_Node *>::destroy
$L208868:

; 909  : 		this->_Alnod.deallocate(_Pnode, 1);

  000ad	6a 01		 push	 1
  000af	8b 55 e8	 mov	 edx, DWORD PTR __Pnode$[ebp]
  000b2	52		 push	 edx
  000b3	8b 4d e4	 mov	 ecx, DWORD PTR _this$[ebp]
  000b6	e8 00 00 00 00	 call	 ?deallocate@?$allocator@U_Node@?$_List_nod@PAVIMessageObserver@@V?$allocator@PAVIMessageObserver@@@std@@@std@@@std@@QAEXPAU_Node@?$_List_nod@PAVIMessageObserver@@V?$allocator@PAVIMessageObserver@@@std@@@2@I@Z ; std::allocator<std::_List_nod<IMessageObserver *,std::allocator<IMessageObserver *> >::_Node>::deallocate

; 910  : 		_RERAISE;

  000bb	6a 00		 push	 0
  000bd	6a 00		 push	 0
  000bf	e8 00 00 00 00	 call	 __CxxThrowException@8
$L210464:

; 911  : 		_CATCH_END

  000c4	c7 45 fc ff ff
	ff ff		 mov	 DWORD PTR __$EHRec$[ebp+12], -1

; 912  : 		return (_Pnode);

  000cb	8b 45 e8	 mov	 eax, DWORD PTR __Pnode$[ebp]
$L210462:

; 913  : 		}

  000ce	8b 4d f4	 mov	 ecx, DWORD PTR __$EHRec$[ebp+4]
  000d1	64 89 0d 00 00
	00 00		 mov	 DWORD PTR fs:__except_list, ecx
  000d8	5f		 pop	 edi
  000d9	5e		 pop	 esi
  000da	5b		 pop	 ebx
  000db	8b e5		 mov	 esp, ebp
  000dd	5d		 pop	 ebp
  000de	c3		 ret	 0
_TEXT	ENDS
;	COMDAT text$x
text$x	SEGMENT
__ehhandler$?_Buynode@?$list@PAVIMessageObserver@@V?$allocator@PAVIMessageObserver@@@std@@@std@@IAEPAU_Node@?$_List_nod@PAVIMessageObserver@@V?$allocator@PAVIMessageObserver@@@std@@@2@XZ:
  00000	b8 00 00 00 00	 mov	 eax, OFFSET FLAT:$T210467
  00005	e9 00 00 00 00	 jmp	 ___CxxFrameHandler
text$x	ENDS
?_Buynode@?$list@PAVIMessageObserver@@V?$allocator@PAVIMessageObserver@@@std@@@std@@IAEPAU_Node@?$_List_nod@PAVIMessageObserver@@V?$allocator@PAVIMessageObserver@@@std@@@2@XZ ENDP ; std::list<IMessageObserver *,std::allocator<IMessageObserver *> >::_Buynode
PUBLIC	?clear@?$list@PAVIMessageObserver@@V?$allocator@PAVIMessageObserver@@@std@@@std@@QAEXXZ ; std::list<IMessageObserver *,std::allocator<IMessageObserver *> >::clear
; Function compile flags: /Odt
;	COMDAT ?_Tidy@?$list@PAVIMessageObserver@@V?$allocator@PAVIMessageObserver@@@std@@@std@@IAEXXZ
_TEXT	SEGMENT
_this$ = -4						; size = 4
?_Tidy@?$list@PAVIMessageObserver@@V?$allocator@PAVIMessageObserver@@@std@@@std@@IAEXXZ PROC NEAR ; std::list<IMessageObserver *,std::allocator<IMessageObserver *> >::_Tidy, COMDAT
; _this$ = ecx

; 929  : 		{	// free all storage

  00000	55		 push	 ebp
  00001	8b ec		 mov	 ebp, esp
  00003	51		 push	 ecx
  00004	89 4d fc	 mov	 DWORD PTR _this$[ebp], ecx

; 930  : 		clear();

  00007	8b 4d fc	 mov	 ecx, DWORD PTR _this$[ebp]
  0000a	e8 00 00 00 00	 call	 ?clear@?$list@PAVIMessageObserver@@V?$allocator@PAVIMessageObserver@@@std@@@std@@QAEXXZ ; std::list<IMessageObserver *,std::allocator<IMessageObserver *> >::clear

; 931  : 		this->_Alptr.destroy(&_Nextnode(_Myhead));

  0000f	8b 45 fc	 mov	 eax, DWORD PTR _this$[ebp]
  00012	8b 48 04	 mov	 ecx, DWORD PTR [eax+4]
  00015	51		 push	 ecx
  00016	e8 00 00 00 00	 call	 ?_Nextnode@?$list@PAVIMessageObserver@@V?$allocator@PAVIMessageObserver@@@std@@@std@@KAAAPAU_Node@?$_List_nod@PAVIMessageObserver@@V?$allocator@PAVIMessageObserver@@@std@@@2@PAU342@@Z ; std::list<IMessageObserver *,std::allocator<IMessageObserver *> >::_Nextnode
  0001b	83 c4 04	 add	 esp, 4
  0001e	50		 push	 eax
  0001f	8b 4d fc	 mov	 ecx, DWORD PTR _this$[ebp]
  00022	83 c1 01	 add	 ecx, 1
  00025	e8 00 00 00 00	 call	 ?destroy@?$allocator@PAU_Node@?$_List_nod@PAVIMessageObserver@@V?$allocator@PAVIMessageObserver@@@std@@@std@@@std@@QAEXPAPAU_Node@?$_List_nod@PAVIMessageObserver@@V?$allocator@PAVIMessageObserver@@@std@@@2@@Z ; std::allocator<std::_List_nod<IMessageObserver *,std::allocator<IMessageObserver *> >::_Node *>::destroy

; 932  : 		this->_Alptr.destroy(&_Prevnode(_Myhead));

  0002a	8b 55 fc	 mov	 edx, DWORD PTR _this$[ebp]
  0002d	8b 42 04	 mov	 eax, DWORD PTR [edx+4]
  00030	50		 push	 eax
  00031	e8 00 00 00 00	 call	 ?_Prevnode@?$list@PAVIMessageObserver@@V?$allocator@PAVIMessageObserver@@@std@@@std@@KAAAPAU_Node@?$_List_nod@PAVIMessageObserver@@V?$allocator@PAVIMessageObserver@@@std@@@2@PAU342@@Z ; std::list<IMessageObserver *,std::allocator<IMessageObserver *> >::_Prevnode
  00036	83 c4 04	 add	 esp, 4
  00039	50		 push	 eax
  0003a	8b 4d fc	 mov	 ecx, DWORD PTR _this$[ebp]
  0003d	83 c1 01	 add	 ecx, 1
  00040	e8 00 00 00 00	 call	 ?destroy@?$allocator@PAU_Node@?$_List_nod@PAVIMessageObserver@@V?$allocator@PAVIMessageObserver@@@std@@@std@@@std@@QAEXPAPAU_Node@?$_List_nod@PAVIMessageObserver@@V?$allocator@PAVIMessageObserver@@@std@@@2@@Z ; std::allocator<std::_List_nod<IMessageObserver *,std::allocator<IMessageObserver *> >::_Node *>::destroy

; 933  : 		this->_Alnod.deallocate(_Myhead, 1);

  00045	6a 01		 push	 1
  00047	8b 4d fc	 mov	 ecx, DWORD PTR _this$[ebp]
  0004a	8b 51 04	 mov	 edx, DWORD PTR [ecx+4]
  0004d	52		 push	 edx
  0004e	8b 4d fc	 mov	 ecx, DWORD PTR _this$[ebp]
  00051	e8 00 00 00 00	 call	 ?deallocate@?$allocator@U_Node@?$_List_nod@PAVIMessageObserver@@V?$allocator@PAVIMessageObserver@@@std@@@std@@@std@@QAEXPAU_Node@?$_List_nod@PAVIMessageObserver@@V?$allocator@PAVIMessageObserver@@@std@@@2@I@Z ; std::allocator<std::_List_nod<IMessageObserver *,std::allocator<IMessageObserver *> >::_Node>::deallocate

; 934  : 		_Myhead = 0;

  00056	8b 45 fc	 mov	 eax, DWORD PTR _this$[ebp]
  00059	c7 40 04 00 00
	00 00		 mov	 DWORD PTR [eax+4], 0

; 935  : 		}

  00060	8b e5		 mov	 esp, ebp
  00062	5d		 pop	 ebp
  00063	c3		 ret	 0
?_Tidy@?$list@PAVIMessageObserver@@V?$allocator@PAVIMessageObserver@@@std@@@std@@IAEXXZ ENDP ; std::list<IMessageObserver *,std::allocator<IMessageObserver *> >::_Tidy
_TEXT	ENDS
PUBLIC	??0?$allocator@PAVIMessageObserver@@@std@@QAE@ABV01@@Z ; std::allocator<IMessageObserver *>::allocator<IMessageObserver *>
PUBLIC	??0?$_List_ptr@PAVIMessageObserver@@V?$allocator@PAVIMessageObserver@@@std@@@std@@IAE@V?$allocator@PAVIMessageObserver@@@1@@Z ; std::_List_ptr<IMessageObserver *,std::allocator<IMessageObserver *> >::_List_ptr<IMessageObserver *,std::allocator<IMessageObserver *> >
; Function compile flags: /Odt
;	COMDAT ??0?$_List_val@PAVIMessageObserver@@V?$allocator@PAVIMessageObserver@@@std@@@std@@IAE@V?$allocator@PAVIMessageObserver@@@1@@Z
_TEXT	SEGMENT
_this$ = -8						; size = 4
__Al$ = 8						; size = 1
??0?$_List_val@PAVIMessageObserver@@V?$allocator@PAVIMessageObserver@@@std@@@std@@IAE@V?$allocator@PAVIMessageObserver@@@1@@Z PROC NEAR ; std::_List_val<IMessageObserver *,std::allocator<IMessageObserver *> >::_List_val<IMessageObserver *,std::allocator<IMessageObserver *> >, COMDAT
; _this$ = ecx

; 82   : 		{	// construct base, and allocator from _Al

  00000	55		 push	 ebp
  00001	8b ec		 mov	 ebp, esp
  00003	83 ec 08	 sub	 esp, 8
  00006	89 4d f8	 mov	 DWORD PTR _this$[ebp], ecx
  00009	51		 push	 ecx
  0000a	8b cc		 mov	 ecx, esp
  0000c	8d 45 08	 lea	 eax, DWORD PTR __Al$[ebp]
  0000f	50		 push	 eax
  00010	e8 00 00 00 00	 call	 ??0?$allocator@PAVIMessageObserver@@@std@@QAE@ABV01@@Z ; std::allocator<IMessageObserver *>::allocator<IMessageObserver *>
  00015	8b 4d f8	 mov	 ecx, DWORD PTR _this$[ebp]
  00018	e8 00 00 00 00	 call	 ??0?$_List_ptr@PAVIMessageObserver@@V?$allocator@PAVIMessageObserver@@@std@@@std@@IAE@V?$allocator@PAVIMessageObserver@@@1@@Z ; std::_List_ptr<IMessageObserver *,std::allocator<IMessageObserver *> >::_List_ptr<IMessageObserver *,std::allocator<IMessageObserver *> >
  0001d	8d 4d 08	 lea	 ecx, DWORD PTR __Al$[ebp]
  00020	51		 push	 ecx
  00021	8b 4d f8	 mov	 ecx, DWORD PTR _this$[ebp]
  00024	83 c1 02	 add	 ecx, 2
  00027	e8 00 00 00 00	 call	 ??0?$allocator@PAVIMessageObserver@@@std@@QAE@ABV01@@Z ; std::allocator<IMessageObserver *>::allocator<IMessageObserver *>

; 83   : 		}

  0002c	8b 45 f8	 mov	 eax, DWORD PTR _this$[ebp]
  0002f	8b e5		 mov	 esp, ebp
  00031	5d		 pop	 ebp
  00032	c2 04 00	 ret	 4
??0?$_List_val@PAVIMessageObserver@@V?$allocator@PAVIMessageObserver@@@std@@@std@@IAE@V?$allocator@PAVIMessageObserver@@@1@@Z ENDP ; std::_List_val<IMessageObserver *,std::allocator<IMessageObserver *> >::_List_val<IMessageObserver *,std::allocator<IMessageObserver *> >
; Function compile flags: /Odt
; File d:\program files (x86)\microsoft visual studio .net 2003\vc7\include\xmemory
_TEXT	ENDS
;	COMDAT ??0?$allocator@PAVIMessageObserver@@@std@@QAE@XZ
_TEXT	SEGMENT
_this$ = -4						; size = 4
??0?$allocator@PAVIMessageObserver@@@std@@QAE@XZ PROC NEAR ; std::allocator<IMessageObserver *>::allocator<IMessageObserver *>, COMDAT
; _this$ = ecx

; 111  : 	allocator()

  00000	55		 push	 ebp
  00001	8b ec		 mov	 ebp, esp
  00003	51		 push	 ecx
  00004	89 4d fc	 mov	 DWORD PTR _this$[ebp], ecx

; 112  : 		{	// construct default allocator (do nothing)
; 113  : 		}

  00007	8b 45 fc	 mov	 eax, DWORD PTR _this$[ebp]
  0000a	8b e5		 mov	 esp, ebp
  0000c	5d		 pop	 ebp
  0000d	c3		 ret	 0
??0?$allocator@PAVIMessageObserver@@@std@@QAE@XZ ENDP	; std::allocator<IMessageObserver *>::allocator<IMessageObserver *>
_TEXT	ENDS
PUBLIC	??0const_iterator@?$list@PAVIMessageObserver@@V?$allocator@PAVIMessageObserver@@@std@@@std@@QAE@PAU_Node@?$_List_nod@PAVIMessageObserver@@V?$allocator@PAVIMessageObserver@@@std@@@2@@Z ; std::list<IMessageObserver *,std::allocator<IMessageObserver *> >::const_iterator::const_iterator
; Function compile flags: /Odt
; File d:\program files (x86)\microsoft visual studio .net 2003\vc7\include\list
;	COMDAT ??0iterator@?$list@PAVIMessageObserver@@V?$allocator@PAVIMessageObserver@@@std@@@std@@QAE@PAU_Node@?$_List_nod@PAVIMessageObserver@@V?$allocator@PAVIMessageObserver@@@std@@@2@@Z
_TEXT	SEGMENT
_this$ = -4						; size = 4
__Pnode$ = 8						; size = 4
??0iterator@?$list@PAVIMessageObserver@@V?$allocator@PAVIMessageObserver@@@std@@@std@@QAE@PAU_Node@?$_List_nod@PAVIMessageObserver@@V?$allocator@PAVIMessageObserver@@@std@@@2@@Z PROC NEAR ; std::list<IMessageObserver *,std::allocator<IMessageObserver *> >::iterator::iterator, COMDAT
; _this$ = ecx

; 235  : 			{	// construct with node pointer _Pnode

  00000	55		 push	 ebp
  00001	8b ec		 mov	 ebp, esp
  00003	51		 push	 ecx
  00004	89 4d fc	 mov	 DWORD PTR _this$[ebp], ecx
  00007	8b 45 08	 mov	 eax, DWORD PTR __Pnode$[ebp]
  0000a	50		 push	 eax
  0000b	8b 4d fc	 mov	 ecx, DWORD PTR _this$[ebp]
  0000e	e8 00 00 00 00	 call	 ??0const_iterator@?$list@PAVIMessageObserver@@V?$allocator@PAVIMessageObserver@@@std@@@std@@QAE@PAU_Node@?$_List_nod@PAVIMessageObserver@@V?$allocator@PAVIMessageObserver@@@std@@@2@@Z ; std::list<IMessageObserver *,std::allocator<IMessageObserver *> >::const_iterator::const_iterator

; 236  : 			}

  00013	8b 45 fc	 mov	 eax, DWORD PTR _this$[ebp]
  00016	8b e5		 mov	 esp, ebp
  00018	5d		 pop	 ebp
  00019	c2 04 00	 ret	 4
??0iterator@?$list@PAVIMessageObserver@@V?$allocator@PAVIMessageObserver@@@std@@@std@@QAE@PAU_Node@?$_List_nod@PAVIMessageObserver@@V?$allocator@PAVIMessageObserver@@@std@@@2@@Z ENDP ; std::list<IMessageObserver *,std::allocator<IMessageObserver *> >::iterator::iterator
_TEXT	ENDS
PUBLIC	??Econst_iterator@?$list@PAVIMessageObserver@@V?$allocator@PAVIMessageObserver@@@std@@@std@@QAEAAV012@XZ ; std::list<IMessageObserver *,std::allocator<IMessageObserver *> >::const_iterator::operator++
; Function compile flags: /Odt
;	COMDAT ??Eiterator@?$list@PAVIMessageObserver@@V?$allocator@PAVIMessageObserver@@@std@@@std@@QAEAAV012@XZ
_TEXT	SEGMENT
_this$ = -4						; size = 4
??Eiterator@?$list@PAVIMessageObserver@@V?$allocator@PAVIMessageObserver@@@std@@@std@@QAEAAV012@XZ PROC NEAR ; std::list<IMessageObserver *,std::allocator<IMessageObserver *> >::iterator::operator++, COMDAT
; _this$ = ecx

; 249  : 			{	// preincrement

  00000	55		 push	 ebp
  00001	8b ec		 mov	 ebp, esp
  00003	51		 push	 ecx
  00004	89 4d fc	 mov	 DWORD PTR _this$[ebp], ecx

; 250  : 			++(*(const_iterator *)this);

  00007	8b 4d fc	 mov	 ecx, DWORD PTR _this$[ebp]
  0000a	e8 00 00 00 00	 call	 ??Econst_iterator@?$list@PAVIMessageObserver@@V?$allocator@PAVIMessageObserver@@@std@@@std@@QAEAAV012@XZ ; std::list<IMessageObserver *,std::allocator<IMessageObserver *> >::const_iterator::operator++

; 251  : 			return (*this);

  0000f	8b 45 fc	 mov	 eax, DWORD PTR _this$[ebp]

; 252  : 			}

  00012	8b e5		 mov	 esp, ebp
  00014	5d		 pop	 ebp
  00015	c3		 ret	 0
??Eiterator@?$list@PAVIMessageObserver@@V?$allocator@PAVIMessageObserver@@@std@@@std@@QAEAAV012@XZ ENDP ; std::list<IMessageObserver *,std::allocator<IMessageObserver *> >::iterator::operator++
_TEXT	ENDS
PUBLIC	?_Myval@?$list@PAVIMessageObserver@@V?$allocator@PAVIMessageObserver@@@std@@@std@@KAAAPAVIMessageObserver@@PAU_Node@?$_List_nod@PAVIMessageObserver@@V?$allocator@PAVIMessageObserver@@@std@@@2@@Z ; std::list<IMessageObserver *,std::allocator<IMessageObserver *> >::_Myval
; Function compile flags: /Odt
;	COMDAT ??Dconst_iterator@?$list@PAVIMessageObserver@@V?$allocator@PAVIMessageObserver@@@std@@@std@@QBEABQAVIMessageObserver@@XZ
_TEXT	SEGMENT
_this$ = -4						; size = 4
??Dconst_iterator@?$list@PAVIMessageObserver@@V?$allocator@PAVIMessageObserver@@@std@@@std@@QBEABQAVIMessageObserver@@XZ PROC NEAR ; std::list<IMessageObserver *,std::allocator<IMessageObserver *> >::const_iterator::operator*, COMDAT
; _this$ = ecx

; 160  : 			{	// return designated value

  00000	55		 push	 ebp
  00001	8b ec		 mov	 ebp, esp
  00003	51		 push	 ecx
  00004	89 4d fc	 mov	 DWORD PTR _this$[ebp], ecx

; 161  : 			return (_Myval(_Ptr));

  00007	8b 45 fc	 mov	 eax, DWORD PTR _this$[ebp]
  0000a	8b 08		 mov	 ecx, DWORD PTR [eax]
  0000c	51		 push	 ecx
  0000d	e8 00 00 00 00	 call	 ?_Myval@?$list@PAVIMessageObserver@@V?$allocator@PAVIMessageObserver@@@std@@@std@@KAAAPAVIMessageObserver@@PAU_Node@?$_List_nod@PAVIMessageObserver@@V?$allocator@PAVIMessageObserver@@@std@@@2@@Z ; std::list<IMessageObserver *,std::allocator<IMessageObserver *> >::_Myval
  00012	83 c4 04	 add	 esp, 4

; 162  : 			}

  00015	8b e5		 mov	 esp, ebp
  00017	5d		 pop	 ebp
  00018	c3		 ret	 0
??Dconst_iterator@?$list@PAVIMessageObserver@@V?$allocator@PAVIMessageObserver@@@std@@@std@@QBEABQAVIMessageObserver@@XZ ENDP ; std::list<IMessageObserver *,std::allocator<IMessageObserver *> >::const_iterator::operator*
; Function compile flags: /Odt
_TEXT	ENDS
;	COMDAT ??8const_iterator@?$list@PAVIMessageObserver@@V?$allocator@PAVIMessageObserver@@@std@@@std@@QBE_NABV012@@Z
_TEXT	SEGMENT
_this$ = -4						; size = 4
__Right$ = 8						; size = 4
??8const_iterator@?$list@PAVIMessageObserver@@V?$allocator@PAVIMessageObserver@@@std@@@std@@QBE_NABV012@@Z PROC NEAR ; std::list<IMessageObserver *,std::allocator<IMessageObserver *> >::const_iterator::operator==, COMDAT
; _this$ = ecx

; 196  : 			{	// test for iterator equality

  00000	55		 push	 ebp
  00001	8b ec		 mov	 ebp, esp
  00003	51		 push	 ecx
  00004	89 4d fc	 mov	 DWORD PTR _this$[ebp], ecx

; 197  : 			return (_Ptr == _Right._Ptr);

  00007	8b 45 fc	 mov	 eax, DWORD PTR _this$[ebp]
  0000a	8b 4d 08	 mov	 ecx, DWORD PTR __Right$[ebp]
  0000d	8b 00		 mov	 eax, DWORD PTR [eax]
  0000f	2b 01		 sub	 eax, DWORD PTR [ecx]
  00011	f7 d8		 neg	 eax
  00013	1b c0		 sbb	 eax, eax
  00015	40		 inc	 eax

; 198  : 			}

  00016	8b e5		 mov	 esp, ebp
  00018	5d		 pop	 ebp
  00019	c2 04 00	 ret	 4
??8const_iterator@?$list@PAVIMessageObserver@@V?$allocator@PAVIMessageObserver@@@std@@@std@@QBE_NABV012@@Z ENDP ; std::list<IMessageObserver *,std::allocator<IMessageObserver *> >::const_iterator::operator==
; Function compile flags: /Odt
_TEXT	ENDS
;	COMDAT ?_Prevnode@?$list@PAVIMessageObserver@@V?$allocator@PAVIMessageObserver@@@std@@@std@@KAAAPAU_Node@?$_List_nod@PAVIMessageObserver@@V?$allocator@PAVIMessageObserver@@@std@@@2@PAU342@@Z
_TEXT	SEGMENT
__Pnode$ = 8						; size = 4
?_Prevnode@?$list@PAVIMessageObserver@@V?$allocator@PAVIMessageObserver@@@std@@@std@@KAAAPAU_Node@?$_List_nod@PAVIMessageObserver@@V?$allocator@PAVIMessageObserver@@@std@@@2@PAU342@@Z PROC NEAR ; std::list<IMessageObserver *,std::allocator<IMessageObserver *> >::_Prevnode, COMDAT

; 112  : 		{	// return reference to predecessor pointer in node

  00000	55		 push	 ebp
  00001	8b ec		 mov	 ebp, esp

; 113  : 		return ((_Nodepref)(*_Pnode)._Prev);

  00003	8b 45 08	 mov	 eax, DWORD PTR __Pnode$[ebp]
  00006	83 c0 04	 add	 eax, 4

; 114  : 		}

  00009	5d		 pop	 ebp
  0000a	c3		 ret	 0
?_Prevnode@?$list@PAVIMessageObserver@@V?$allocator@PAVIMessageObserver@@@std@@@std@@KAAAPAU_Node@?$_List_nod@PAVIMessageObserver@@V?$allocator@PAVIMessageObserver@@@std@@@2@PAU342@@Z ENDP ; std::list<IMessageObserver *,std::allocator<IMessageObserver *> >::_Prevnode
; Function compile flags: /Odt
_TEXT	ENDS
;	COMDAT ?_Myval@?$list@PAVIMessageObserver@@V?$allocator@PAVIMessageObserver@@@std@@@std@@KAAAPAVIMessageObserver@@PAU_Node@?$_List_nod@PAVIMessageObserver@@V?$allocator@PAVIMessageObserver@@@std@@@2@@Z
_TEXT	SEGMENT
__Pnode$ = 8						; size = 4
?_Myval@?$list@PAVIMessageObserver@@V?$allocator@PAVIMessageObserver@@@std@@@std@@KAAAPAVIMessageObserver@@PAU_Node@?$_List_nod@PAVIMessageObserver@@V?$allocator@PAVIMessageObserver@@@std@@@2@@Z PROC NEAR ; std::list<IMessageObserver *,std::allocator<IMessageObserver *> >::_Myval, COMDAT

; 117  : 		{	// return reference to value in node

  00000	55		 push	 ebp
  00001	8b ec		 mov	 ebp, esp

; 118  : 		return ((_Vref)(*_Pnode)._Myval);

  00003	8b 45 08	 mov	 eax, DWORD PTR __Pnode$[ebp]
  00006	83 c0 08	 add	 eax, 8

; 119  : 		}

  00009	5d		 pop	 ebp
  0000a	c3		 ret	 0
?_Myval@?$list@PAVIMessageObserver@@V?$allocator@PAVIMessageObserver@@@std@@@std@@KAAAPAVIMessageObserver@@PAU_Node@?$_List_nod@PAVIMessageObserver@@V?$allocator@PAVIMessageObserver@@@std@@@2@@Z ENDP ; std::list<IMessageObserver *,std::allocator<IMessageObserver *> >::_Myval
_TEXT	ENDS
PUBLIC	?destroy@?$allocator@U_Node@?$_List_nod@PAVIMessageObserver@@V?$allocator@PAVIMessageObserver@@@std@@@std@@@std@@QAEXPAU_Node@?$_List_nod@PAVIMessageObserver@@V?$allocator@PAVIMessageObserver@@@std@@@2@@Z ; std::allocator<std::_List_nod<IMessageObserver *,std::allocator<IMessageObserver *> >::_Node>::destroy
; Function compile flags: /Odt
;	COMDAT ?clear@?$list@PAVIMessageObserver@@V?$allocator@PAVIMessageObserver@@@std@@@std@@QAEXXZ
_TEXT	SEGMENT
_this$ = -12						; size = 4
__Pnext$ = -8						; size = 4
__Pnode$ = -4						; size = 4
?clear@?$list@PAVIMessageObserver@@V?$allocator@PAVIMessageObserver@@@std@@@std@@QAEXXZ PROC NEAR ; std::list<IMessageObserver *,std::allocator<IMessageObserver *> >::clear, COMDAT
; _this$ = ecx

; 610  : 		{	// erase all

  00000	55		 push	 ebp
  00001	8b ec		 mov	 ebp, esp
  00003	83 ec 0c	 sub	 esp, 12			; 0000000cH
  00006	89 4d f4	 mov	 DWORD PTR _this$[ebp], ecx

; 611  : 		_Nodeptr _Pnext;
; 612  : 		_Nodeptr _Pnode = _Nextnode(_Myhead);

  00009	8b 45 f4	 mov	 eax, DWORD PTR _this$[ebp]
  0000c	8b 48 04	 mov	 ecx, DWORD PTR [eax+4]
  0000f	51		 push	 ecx
  00010	e8 00 00 00 00	 call	 ?_Nextnode@?$list@PAVIMessageObserver@@V?$allocator@PAVIMessageObserver@@@std@@@std@@KAAAPAU_Node@?$_List_nod@PAVIMessageObserver@@V?$allocator@PAVIMessageObserver@@@std@@@2@PAU342@@Z ; std::list<IMessageObserver *,std::allocator<IMessageObserver *> >::_Nextnode
  00015	83 c4 04	 add	 esp, 4
  00018	8b 10		 mov	 edx, DWORD PTR [eax]
  0001a	89 55 fc	 mov	 DWORD PTR __Pnode$[ebp], edx

; 613  : 		_Nextnode(_Myhead) = _Myhead;

  0001d	8b 45 f4	 mov	 eax, DWORD PTR _this$[ebp]
  00020	8b 48 04	 mov	 ecx, DWORD PTR [eax+4]
  00023	51		 push	 ecx
  00024	e8 00 00 00 00	 call	 ?_Nextnode@?$list@PAVIMessageObserver@@V?$allocator@PAVIMessageObserver@@@std@@@std@@KAAAPAU_Node@?$_List_nod@PAVIMessageObserver@@V?$allocator@PAVIMessageObserver@@@std@@@2@PAU342@@Z ; std::list<IMessageObserver *,std::allocator<IMessageObserver *> >::_Nextnode
  00029	83 c4 04	 add	 esp, 4
  0002c	8b 55 f4	 mov	 edx, DWORD PTR _this$[ebp]
  0002f	8b 4a 04	 mov	 ecx, DWORD PTR [edx+4]
  00032	89 08		 mov	 DWORD PTR [eax], ecx

; 614  : 		_Prevnode(_Myhead) = _Myhead;

  00034	8b 55 f4	 mov	 edx, DWORD PTR _this$[ebp]
  00037	8b 42 04	 mov	 eax, DWORD PTR [edx+4]
  0003a	50		 push	 eax
  0003b	e8 00 00 00 00	 call	 ?_Prevnode@?$list@PAVIMessageObserver@@V?$allocator@PAVIMessageObserver@@@std@@@std@@KAAAPAU_Node@?$_List_nod@PAVIMessageObserver@@V?$allocator@PAVIMessageObserver@@@std@@@2@PAU342@@Z ; std::list<IMessageObserver *,std::allocator<IMessageObserver *> >::_Prevnode
  00040	83 c4 04	 add	 esp, 4
  00043	8b 4d f4	 mov	 ecx, DWORD PTR _this$[ebp]
  00046	8b 51 04	 mov	 edx, DWORD PTR [ecx+4]
  00049	89 10		 mov	 DWORD PTR [eax], edx

; 615  : 		_Mysize = 0;

  0004b	8b 45 f4	 mov	 eax, DWORD PTR _this$[ebp]
  0004e	c7 40 08 00 00
	00 00		 mov	 DWORD PTR [eax+8], 0

; 616  : 
; 617  : 		for (; _Pnode != _Myhead; _Pnode = _Pnext)

  00055	eb 06		 jmp	 SHORT $L208943
$L208944:
  00057	8b 4d f8	 mov	 ecx, DWORD PTR __Pnext$[ebp]
  0005a	89 4d fc	 mov	 DWORD PTR __Pnode$[ebp], ecx
$L208943:
  0005d	8b 55 f4	 mov	 edx, DWORD PTR _this$[ebp]
  00060	8b 45 fc	 mov	 eax, DWORD PTR __Pnode$[ebp]
  00063	3b 42 04	 cmp	 eax, DWORD PTR [edx+4]
  00066	74 2d		 je	 SHORT $L208940

; 618  : 			{	// delete an element
; 619  : 			_Pnext = _Nextnode(_Pnode);

  00068	8b 4d fc	 mov	 ecx, DWORD PTR __Pnode$[ebp]
  0006b	51		 push	 ecx
  0006c	e8 00 00 00 00	 call	 ?_Nextnode@?$list@PAVIMessageObserver@@V?$allocator@PAVIMessageObserver@@@std@@@std@@KAAAPAU_Node@?$_List_nod@PAVIMessageObserver@@V?$allocator@PAVIMessageObserver@@@std@@@2@PAU342@@Z ; std::list<IMessageObserver *,std::allocator<IMessageObserver *> >::_Nextnode
  00071	83 c4 04	 add	 esp, 4
  00074	8b 10		 mov	 edx, DWORD PTR [eax]
  00076	89 55 f8	 mov	 DWORD PTR __Pnext$[ebp], edx

; 620  : 			this->_Alnod.destroy(_Pnode);

  00079	8b 45 fc	 mov	 eax, DWORD PTR __Pnode$[ebp]
  0007c	50		 push	 eax
  0007d	8b 4d f4	 mov	 ecx, DWORD PTR _this$[ebp]
  00080	e8 00 00 00 00	 call	 ?destroy@?$allocator@U_Node@?$_List_nod@PAVIMessageObserver@@V?$allocator@PAVIMessageObserver@@@std@@@std@@@std@@QAEXPAU_Node@?$_List_nod@PAVIMessageObserver@@V?$allocator@PAVIMessageObserver@@@std@@@2@@Z ; std::allocator<std::_List_nod<IMessageObserver *,std::allocator<IMessageObserver *> >::_Node>::destroy

; 621  : 			this->_Alnod.deallocate(_Pnode, 1);

  00085	6a 01		 push	 1
  00087	8b 4d fc	 mov	 ecx, DWORD PTR __Pnode$[ebp]
  0008a	51		 push	 ecx
  0008b	8b 4d f4	 mov	 ecx, DWORD PTR _this$[ebp]
  0008e	e8 00 00 00 00	 call	 ?deallocate@?$allocator@U_Node@?$_List_nod@PAVIMessageObserver@@V?$allocator@PAVIMessageObserver@@@std@@@std@@@std@@QAEXPAU_Node@?$_List_nod@PAVIMessageObserver@@V?$allocator@PAVIMessageObserver@@@std@@@2@I@Z ; std::allocator<std::_List_nod<IMessageObserver *,std::allocator<IMessageObserver *> >::_Node>::deallocate

; 622  : 			}

  00093	eb c2		 jmp	 SHORT $L208944
$L208940:

; 623  : 		}

  00095	8b e5		 mov	 esp, ebp
  00097	5d		 pop	 ebp
  00098	c3		 ret	 0
?clear@?$list@PAVIMessageObserver@@V?$allocator@PAVIMessageObserver@@@std@@@std@@QAEXXZ ENDP ; std::list<IMessageObserver *,std::allocator<IMessageObserver *> >::clear
_TEXT	ENDS
PUBLIC	??$?0PAVIMessageObserver@@@?$allocator@PAU_Node@?$_List_nod@PAVIMessageObserver@@V?$allocator@PAVIMessageObserver@@@std@@@std@@@std@@QAE@ABV?$allocator@PAVIMessageObserver@@@1@@Z ; std::allocator<std::_List_nod<IMessageObserver *,std::allocator<IMessageObserver *> >::_Node *>::allocator<std::_List_nod<IMessageObserver *,std::allocator<IMessageObserver *> >::_Node *><IMessageObserver *>
PUBLIC	??0?$_List_nod@PAVIMessageObserver@@V?$allocator@PAVIMessageObserver@@@std@@@std@@IAE@V?$allocator@PAVIMessageObserver@@@1@@Z ; std::_List_nod<IMessageObserver *,std::allocator<IMessageObserver *> >::_List_nod<IMessageObserver *,std::allocator<IMessageObserver *> >
; Function compile flags: /Odt
;	COMDAT ??0?$_List_ptr@PAVIMessageObserver@@V?$allocator@PAVIMessageObserver@@@std@@@std@@IAE@V?$allocator@PAVIMessageObserver@@@1@@Z
_TEXT	SEGMENT
_this$ = -8						; size = 4
__Al$ = 8						; size = 1
??0?$_List_ptr@PAVIMessageObserver@@V?$allocator@PAVIMessageObserver@@@std@@@std@@IAE@V?$allocator@PAVIMessageObserver@@@1@@Z PROC NEAR ; std::_List_ptr<IMessageObserver *,std::allocator<IMessageObserver *> >::_List_ptr<IMessageObserver *,std::allocator<IMessageObserver *> >, COMDAT
; _this$ = ecx

; 64   : 		{	// construct base, and allocator from _Al

  00000	55		 push	 ebp
  00001	8b ec		 mov	 ebp, esp
  00003	83 ec 08	 sub	 esp, 8
  00006	89 4d f8	 mov	 DWORD PTR _this$[ebp], ecx
  00009	51		 push	 ecx
  0000a	8b cc		 mov	 ecx, esp
  0000c	8d 45 08	 lea	 eax, DWORD PTR __Al$[ebp]
  0000f	50		 push	 eax
  00010	e8 00 00 00 00	 call	 ??0?$allocator@PAVIMessageObserver@@@std@@QAE@ABV01@@Z ; std::allocator<IMessageObserver *>::allocator<IMessageObserver *>
  00015	8b 4d f8	 mov	 ecx, DWORD PTR _this$[ebp]
  00018	e8 00 00 00 00	 call	 ??0?$_List_nod@PAVIMessageObserver@@V?$allocator@PAVIMessageObserver@@@std@@@std@@IAE@V?$allocator@PAVIMessageObserver@@@1@@Z ; std::_List_nod<IMessageObserver *,std::allocator<IMessageObserver *> >::_List_nod<IMessageObserver *,std::allocator<IMessageObserver *> >
  0001d	8d 4d 08	 lea	 ecx, DWORD PTR __Al$[ebp]
  00020	51		 push	 ecx
  00021	8b 4d f8	 mov	 ecx, DWORD PTR _this$[ebp]
  00024	83 c1 01	 add	 ecx, 1
  00027	e8 00 00 00 00	 call	 ??$?0PAVIMessageObserver@@@?$allocator@PAU_Node@?$_List_nod@PAVIMessageObserver@@V?$allocator@PAVIMessageObserver@@@std@@@std@@@std@@QAE@ABV?$allocator@PAVIMessageObserver@@@1@@Z ; std::allocator<std::_List_nod<IMessageObserver *,std::allocator<IMessageObserver *> >::_Node *>::allocator<std::_List_nod<IMessageObserver *,std::allocator<IMessageObserver *> >::_Node *><IMessageObserver *>

; 65   : 		}

  0002c	8b 45 f8	 mov	 eax, DWORD PTR _this$[ebp]
  0002f	8b e5		 mov	 esp, ebp
  00031	5d		 pop	 ebp
  00032	c2 04 00	 ret	 4
??0?$_List_ptr@PAVIMessageObserver@@V?$allocator@PAVIMessageObserver@@@std@@@std@@IAE@V?$allocator@PAVIMessageObserver@@@1@@Z ENDP ; std::_List_ptr<IMessageObserver *,std::allocator<IMessageObserver *> >::_List_ptr<IMessageObserver *,std::allocator<IMessageObserver *> >
; Function compile flags: /Odt
; File d:\program files (x86)\microsoft visual studio .net 2003\vc7\include\xmemory
_TEXT	ENDS
;	COMDAT ??0?$allocator@PAVIMessageObserver@@@std@@QAE@ABV01@@Z
_TEXT	SEGMENT
_this$ = -4						; size = 4
___formal$ = 8						; size = 4
??0?$allocator@PAVIMessageObserver@@@std@@QAE@ABV01@@Z PROC NEAR ; std::allocator<IMessageObserver *>::allocator<IMessageObserver *>, COMDAT
; _this$ = ecx

; 115  : 	allocator(const allocator<_Ty>&)

  00000	55		 push	 ebp
  00001	8b ec		 mov	 ebp, esp
  00003	51		 push	 ecx
  00004	89 4d fc	 mov	 DWORD PTR _this$[ebp], ecx

; 116  : 		{	// construct by copying (do nothing)
; 117  : 		}

  00007	8b 45 fc	 mov	 eax, DWORD PTR _this$[ebp]
  0000a	8b e5		 mov	 esp, ebp
  0000c	5d		 pop	 ebp
  0000d	c2 04 00	 ret	 4
??0?$allocator@PAVIMessageObserver@@@std@@QAE@ABV01@@Z ENDP ; std::allocator<IMessageObserver *>::allocator<IMessageObserver *>
; Function compile flags: /Odt
_TEXT	ENDS
;	COMDAT ?deallocate@?$allocator@U_Node@?$_List_nod@PAVIMessageObserver@@V?$allocator@PAVIMessageObserver@@@std@@@std@@@std@@QAEXPAU_Node@?$_List_nod@PAVIMessageObserver@@V?$allocator@PAVIMessageObserver@@@std@@@2@I@Z
_TEXT	SEGMENT
_this$ = -4						; size = 4
__Ptr$ = 8						; size = 4
___formal$ = 12						; size = 4
?deallocate@?$allocator@U_Node@?$_List_nod@PAVIMessageObserver@@V?$allocator@PAVIMessageObserver@@@std@@@std@@@std@@QAEXPAU_Node@?$_List_nod@PAVIMessageObserver@@V?$allocator@PAVIMessageObserver@@@std@@@2@I@Z PROC NEAR ; std::allocator<std::_List_nod<IMessageObserver *,std::allocator<IMessageObserver *> >::_Node>::deallocate, COMDAT
; _this$ = ecx

; 131  : 		{	// deallocate object at _Ptr, ignore size

  00000	55		 push	 ebp
  00001	8b ec		 mov	 ebp, esp
  00003	51		 push	 ecx
  00004	89 4d fc	 mov	 DWORD PTR _this$[ebp], ecx

; 132  : 		operator delete(_Ptr);

  00007	8b 45 08	 mov	 eax, DWORD PTR __Ptr$[ebp]
  0000a	50		 push	 eax
  0000b	e8 00 00 00 00	 call	 ??3@YAXPAX@Z		; operator delete
  00010	83 c4 04	 add	 esp, 4

; 133  : 		}

  00013	8b e5		 mov	 esp, ebp
  00015	5d		 pop	 ebp
  00016	c2 08 00	 ret	 8
?deallocate@?$allocator@U_Node@?$_List_nod@PAVIMessageObserver@@V?$allocator@PAVIMessageObserver@@@std@@@std@@@std@@QAEXPAU_Node@?$_List_nod@PAVIMessageObserver@@V?$allocator@PAVIMessageObserver@@@std@@@2@I@Z ENDP ; std::allocator<std::_List_nod<IMessageObserver *,std::allocator<IMessageObserver *> >::_Node>::deallocate
_TEXT	ENDS
PUBLIC	??$_Allocate@U_Node@?$_List_nod@PAVIMessageObserver@@V?$allocator@PAVIMessageObserver@@@std@@@std@@@std@@YAPAU_Node@?$_List_nod@PAVIMessageObserver@@V?$allocator@PAVIMessageObserver@@@std@@@0@IPAU120@@Z ; std::_Allocate<std::_List_nod<IMessageObserver *,std::allocator<IMessageObserver *> >::_Node>
; Function compile flags: /Odt
;	COMDAT ?allocate@?$allocator@U_Node@?$_List_nod@PAVIMessageObserver@@V?$allocator@PAVIMessageObserver@@@std@@@std@@@std@@QAEPAU_Node@?$_List_nod@PAVIMessageObserver@@V?$allocator@PAVIMessageObserver@@@std@@@2@I@Z
_TEXT	SEGMENT
_this$ = -4						; size = 4
__Count$ = 8						; size = 4
?allocate@?$allocator@U_Node@?$_List_nod@PAVIMessageObserver@@V?$allocator@PAVIMessageObserver@@@std@@@std@@@std@@QAEPAU_Node@?$_List_nod@PAVIMessageObserver@@V?$allocator@PAVIMessageObserver@@@std@@@2@I@Z PROC NEAR ; std::allocator<std::_List_nod<IMessageObserver *,std::allocator<IMessageObserver *> >::_Node>::allocate, COMDAT
; _this$ = ecx

; 136  : 		{	// allocate array of _Count elements

  00000	55		 push	 ebp
  00001	8b ec		 mov	 ebp, esp
  00003	51		 push	 ecx
  00004	89 4d fc	 mov	 DWORD PTR _this$[ebp], ecx

; 137  : 		return (_Allocate(_Count, (pointer)0));

  00007	6a 00		 push	 0
  00009	8b 45 08	 mov	 eax, DWORD PTR __Count$[ebp]
  0000c	50		 push	 eax
  0000d	e8 00 00 00 00	 call	 ??$_Allocate@U_Node@?$_List_nod@PAVIMessageObserver@@V?$allocator@PAVIMessageObserver@@@std@@@std@@@std@@YAPAU_Node@?$_List_nod@PAVIMessageObserver@@V?$allocator@PAVIMessageObserver@@@std@@@0@IPAU120@@Z ; std::_Allocate<std::_List_nod<IMessageObserver *,std::allocator<IMessageObserver *> >::_Node>
  00012	83 c4 08	 add	 esp, 8

; 138  : 		}

  00015	8b e5		 mov	 esp, ebp
  00017	5d		 pop	 ebp
  00018	c2 04 00	 ret	 4
?allocate@?$allocator@U_Node@?$_List_nod@PAVIMessageObserver@@V?$allocator@PAVIMessageObserver@@@std@@@std@@@std@@QAEPAU_Node@?$_List_nod@PAVIMessageObserver@@V?$allocator@PAVIMessageObserver@@@std@@@2@I@Z ENDP ; std::allocator<std::_List_nod<IMessageObserver *,std::allocator<IMessageObserver *> >::_Node>::allocate
_TEXT	ENDS
PUBLIC	??$_Construct@PAU_Node@?$_List_nod@PAVIMessageObserver@@V?$allocator@PAVIMessageObserver@@@std@@@std@@PAU123@@std@@YAXPAPAU_Node@?$_List_nod@PAVIMessageObserver@@V?$allocator@PAVIMessageObserver@@@std@@@0@ABQAU120@@Z ; std::_Construct<std::_List_nod<IMessageObserver *,std::allocator<IMessageObserver *> >::_Node *,std::_List_nod<IMessageObserver *,std::allocator<IMessageObserver *> >::_Node *>
; Function compile flags: /Odt
;	COMDAT ?construct@?$allocator@PAU_Node@?$_List_nod@PAVIMessageObserver@@V?$allocator@PAVIMessageObserver@@@std@@@std@@@std@@QAEXPAPAU_Node@?$_List_nod@PAVIMessageObserver@@V?$allocator@PAVIMessageObserver@@@std@@@2@ABQAU342@@Z
_TEXT	SEGMENT
_this$ = -4						; size = 4
__Ptr$ = 8						; size = 4
__Val$ = 12						; size = 4
?construct@?$allocator@PAU_Node@?$_List_nod@PAVIMessageObserver@@V?$allocator@PAVIMessageObserver@@@std@@@std@@@std@@QAEXPAPAU_Node@?$_List_nod@PAVIMessageObserver@@V?$allocator@PAVIMessageObserver@@@std@@@2@ABQAU342@@Z PROC NEAR ; std::allocator<std::_List_nod<IMessageObserver *,std::allocator<IMessageObserver *> >::_Node *>::construct, COMDAT
; _this$ = ecx

; 146  : 		{	// construct object at _Ptr with value _Val

  00000	55		 push	 ebp
  00001	8b ec		 mov	 ebp, esp
  00003	51		 push	 ecx
  00004	89 4d fc	 mov	 DWORD PTR _this$[ebp], ecx

; 147  : 		_Construct(_Ptr, _Val);

  00007	8b 45 0c	 mov	 eax, DWORD PTR __Val$[ebp]
  0000a	50		 push	 eax
  0000b	8b 4d 08	 mov	 ecx, DWORD PTR __Ptr$[ebp]
  0000e	51		 push	 ecx
  0000f	e8 00 00 00 00	 call	 ??$_Construct@PAU_Node@?$_List_nod@PAVIMessageObserver@@V?$allocator@PAVIMessageObserver@@@std@@@std@@PAU123@@std@@YAXPAPAU_Node@?$_List_nod@PAVIMessageObserver@@V?$allocator@PAVIMessageObserver@@@std@@@0@ABQAU120@@Z ; std::_Construct<std::_List_nod<IMessageObserver *,std::allocator<IMessageObserver *> >::_Node *,std::_List_nod<IMessageObserver *,std::allocator<IMessageObserver *> >::_Node *>
  00014	83 c4 08	 add	 esp, 8

; 148  : 		}

  00017	8b e5		 mov	 esp, ebp
  00019	5d		 pop	 ebp
  0001a	c2 08 00	 ret	 8
?construct@?$allocator@PAU_Node@?$_List_nod@PAVIMessageObserver@@V?$allocator@PAVIMessageObserver@@@std@@@std@@@std@@QAEXPAPAU_Node@?$_List_nod@PAVIMessageObserver@@V?$allocator@PAVIMessageObserver@@@std@@@2@ABQAU342@@Z ENDP ; std::allocator<std::_List_nod<IMessageObserver *,std::allocator<IMessageObserver *> >::_Node *>::construct
_TEXT	ENDS
PUBLIC	??$_Destroy@PAU_Node@?$_List_nod@PAVIMessageObserver@@V?$allocator@PAVIMessageObserver@@@std@@@std@@@std@@YAXPAPAU_Node@?$_List_nod@PAVIMessageObserver@@V?$allocator@PAVIMessageObserver@@@std@@@0@@Z ; std::_Destroy<std::_List_nod<IMessageObserver *,std::allocator<IMessageObserver *> >::_Node *>
; Function compile flags: /Odt
;	COMDAT ?destroy@?$allocator@PAU_Node@?$_List_nod@PAVIMessageObserver@@V?$allocator@PAVIMessageObserver@@@std@@@std@@@std@@QAEXPAPAU_Node@?$_List_nod@PAVIMessageObserver@@V?$allocator@PAVIMessageObserver@@@std@@@2@@Z
_TEXT	SEGMENT
_this$ = -4						; size = 4
__Ptr$ = 8						; size = 4
?destroy@?$allocator@PAU_Node@?$_List_nod@PAVIMessageObserver@@V?$allocator@PAVIMessageObserver@@@std@@@std@@@std@@QAEXPAPAU_Node@?$_List_nod@PAVIMessageObserver@@V?$allocator@PAVIMessageObserver@@@std@@@2@@Z PROC NEAR ; std::allocator<std::_List_nod<IMessageObserver *,std::allocator<IMessageObserver *> >::_Node *>::destroy, COMDAT
; _this$ = ecx

; 151  : 		{	// destroy object at _Ptr

  00000	55		 push	 ebp
  00001	8b ec		 mov	 ebp, esp
  00003	51		 push	 ecx
  00004	89 4d fc	 mov	 DWORD PTR _this$[ebp], ecx

; 152  : 		_Destroy(_Ptr);

  00007	8b 45 08	 mov	 eax, DWORD PTR __Ptr$[ebp]
  0000a	50		 push	 eax
  0000b	e8 00 00 00 00	 call	 ??$_Destroy@PAU_Node@?$_List_nod@PAVIMessageObserver@@V?$allocator@PAVIMessageObserver@@@std@@@std@@@std@@YAXPAPAU_Node@?$_List_nod@PAVIMessageObserver@@V?$allocator@PAVIMessageObserver@@@std@@@0@@Z ; std::_Destroy<std::_List_nod<IMessageObserver *,std::allocator<IMessageObserver *> >::_Node *>
  00010	83 c4 04	 add	 esp, 4

; 153  : 		}

  00013	8b e5		 mov	 esp, ebp
  00015	5d		 pop	 ebp
  00016	c2 04 00	 ret	 4
?destroy@?$allocator@PAU_Node@?$_List_nod@PAVIMessageObserver@@V?$allocator@PAVIMessageObserver@@@std@@@std@@@std@@QAEXPAPAU_Node@?$_List_nod@PAVIMessageObserver@@V?$allocator@PAVIMessageObserver@@@std@@@2@@Z ENDP ; std::allocator<std::_List_nod<IMessageObserver *,std::allocator<IMessageObserver *> >::_Node *>::destroy
; Function compile flags: /Odt
; File d:\program files (x86)\microsoft visual studio .net 2003\vc7\include\list
_TEXT	ENDS
;	COMDAT ??0const_iterator@?$list@PAVIMessageObserver@@V?$allocator@PAVIMessageObserver@@@std@@@std@@QAE@PAU_Node@?$_List_nod@PAVIMessageObserver@@V?$allocator@PAVIMessageObserver@@@std@@@2@@Z
_TEXT	SEGMENT
_this$ = -4						; size = 4
__Pnode$ = 8						; size = 4
??0const_iterator@?$list@PAVIMessageObserver@@V?$allocator@PAVIMessageObserver@@@std@@@std@@QAE@PAU_Node@?$_List_nod@PAVIMessageObserver@@V?$allocator@PAVIMessageObserver@@@std@@@2@@Z PROC NEAR ; std::list<IMessageObserver *,std::allocator<IMessageObserver *> >::const_iterator::const_iterator, COMDAT
; _this$ = ecx

; 156  : 			{	// construct with node pointer _Pnode

  00000	55		 push	 ebp
  00001	8b ec		 mov	 ebp, esp
  00003	51		 push	 ecx
  00004	89 4d fc	 mov	 DWORD PTR _this$[ebp], ecx
  00007	8b 45 fc	 mov	 eax, DWORD PTR _this$[ebp]
  0000a	8b 4d 08	 mov	 ecx, DWORD PTR __Pnode$[ebp]
  0000d	89 08		 mov	 DWORD PTR [eax], ecx

; 157  : 			}

  0000f	8b 45 fc	 mov	 eax, DWORD PTR _this$[ebp]
  00012	8b e5		 mov	 esp, ebp
  00014	5d		 pop	 ebp
  00015	c2 04 00	 ret	 4
??0const_iterator@?$list@PAVIMessageObserver@@V?$allocator@PAVIMessageObserver@@@std@@@std@@QAE@PAU_Node@?$_List_nod@PAVIMessageObserver@@V?$allocator@PAVIMessageObserver@@@std@@@2@@Z ENDP ; std::list<IMessageObserver *,std::allocator<IMessageObserver *> >::const_iterator::const_iterator
; Function compile flags: /Odt
_TEXT	ENDS
;	COMDAT ??Econst_iterator@?$list@PAVIMessageObserver@@V?$allocator@PAVIMessageObserver@@@std@@@std@@QAEAAV012@XZ
_TEXT	SEGMENT
_this$ = -4						; size = 4
??Econst_iterator@?$list@PAVIMessageObserver@@V?$allocator@PAVIMessageObserver@@@std@@@std@@QAEAAV012@XZ PROC NEAR ; std::list<IMessageObserver *,std::allocator<IMessageObserver *> >::const_iterator::operator++, COMDAT
; _this$ = ecx

; 170  : 			{	// preincrement

  00000	55		 push	 ebp
  00001	8b ec		 mov	 ebp, esp
  00003	51		 push	 ecx
  00004	89 4d fc	 mov	 DWORD PTR _this$[ebp], ecx

; 171  : 			_Ptr = _Nextnode(_Ptr);

  00007	8b 45 fc	 mov	 eax, DWORD PTR _this$[ebp]
  0000a	8b 08		 mov	 ecx, DWORD PTR [eax]
  0000c	51		 push	 ecx
  0000d	e8 00 00 00 00	 call	 ?_Nextnode@?$list@PAVIMessageObserver@@V?$allocator@PAVIMessageObserver@@@std@@@std@@KAAAPAU_Node@?$_List_nod@PAVIMessageObserver@@V?$allocator@PAVIMessageObserver@@@std@@@2@PAU342@@Z ; std::list<IMessageObserver *,std::allocator<IMessageObserver *> >::_Nextnode
  00012	83 c4 04	 add	 esp, 4
  00015	8b 55 fc	 mov	 edx, DWORD PTR _this$[ebp]
  00018	8b 00		 mov	 eax, DWORD PTR [eax]
  0001a	89 02		 mov	 DWORD PTR [edx], eax

; 172  : 			return (*this);

  0001c	8b 45 fc	 mov	 eax, DWORD PTR _this$[ebp]

; 173  : 			}

  0001f	8b e5		 mov	 esp, ebp
  00021	5d		 pop	 ebp
  00022	c3		 ret	 0
??Econst_iterator@?$list@PAVIMessageObserver@@V?$allocator@PAVIMessageObserver@@@std@@@std@@QAEAAV012@XZ ENDP ; std::list<IMessageObserver *,std::allocator<IMessageObserver *> >::const_iterator::operator++
_TEXT	ENDS
PUBLIC	??$?0PAVIMessageObserver@@@?$allocator@U_Node@?$_List_nod@PAVIMessageObserver@@V?$allocator@PAVIMessageObserver@@@std@@@std@@@std@@QAE@ABV?$allocator@PAVIMessageObserver@@@1@@Z ; std::allocator<std::_List_nod<IMessageObserver *,std::allocator<IMessageObserver *> >::_Node>::allocator<std::_List_nod<IMessageObserver *,std::allocator<IMessageObserver *> >::_Node><IMessageObserver *>
; Function compile flags: /Odt
;	COMDAT ??0?$_List_nod@PAVIMessageObserver@@V?$allocator@PAVIMessageObserver@@@std@@@std@@IAE@V?$allocator@PAVIMessageObserver@@@1@@Z
_TEXT	SEGMENT
_this$ = -4						; size = 4
__Al$ = 8						; size = 1
??0?$_List_nod@PAVIMessageObserver@@V?$allocator@PAVIMessageObserver@@@std@@@std@@IAE@V?$allocator@PAVIMessageObserver@@@1@@Z PROC NEAR ; std::_List_nod<IMessageObserver *,std::allocator<IMessageObserver *> >::_List_nod<IMessageObserver *,std::allocator<IMessageObserver *> >, COMDAT
; _this$ = ecx

; 44   : 		{	// construct allocator from _Al

  00000	55		 push	 ebp
  00001	8b ec		 mov	 ebp, esp
  00003	51		 push	 ecx
  00004	89 4d fc	 mov	 DWORD PTR _this$[ebp], ecx
  00007	8d 45 08	 lea	 eax, DWORD PTR __Al$[ebp]
  0000a	50		 push	 eax
  0000b	8b 4d fc	 mov	 ecx, DWORD PTR _this$[ebp]
  0000e	e8 00 00 00 00	 call	 ??$?0PAVIMessageObserver@@@?$allocator@U_Node@?$_List_nod@PAVIMessageObserver@@V?$allocator@PAVIMessageObserver@@@std@@@std@@@std@@QAE@ABV?$allocator@PAVIMessageObserver@@@1@@Z ; std::allocator<std::_List_nod<IMessageObserver *,std::allocator<IMessageObserver *> >::_Node>::allocator<std::_List_nod<IMessageObserver *,std::allocator<IMessageObserver *> >::_Node><IMessageObserver *>

; 45   : 		}

  00013	8b 45 fc	 mov	 eax, DWORD PTR _this$[ebp]
  00016	8b e5		 mov	 esp, ebp
  00018	5d		 pop	 ebp
  00019	c2 04 00	 ret	 4
??0?$_List_nod@PAVIMessageObserver@@V?$allocator@PAVIMessageObserver@@@std@@@std@@IAE@V?$allocator@PAVIMessageObserver@@@1@@Z ENDP ; std::_List_nod<IMessageObserver *,std::allocator<IMessageObserver *> >::_List_nod<IMessageObserver *,std::allocator<IMessageObserver *> >
_TEXT	ENDS
PUBLIC	??$_Destroy@U_Node@?$_List_nod@PAVIMessageObserver@@V?$allocator@PAVIMessageObserver@@@std@@@std@@@std@@YAXPAU_Node@?$_List_nod@PAVIMessageObserver@@V?$allocator@PAVIMessageObserver@@@std@@@0@@Z ; std::_Destroy<std::_List_nod<IMessageObserver *,std::allocator<IMessageObserver *> >::_Node>
; Function compile flags: /Odt
; File d:\program files (x86)\microsoft visual studio .net 2003\vc7\include\xmemory
;	COMDAT ?destroy@?$allocator@U_Node@?$_List_nod@PAVIMessageObserver@@V?$allocator@PAVIMessageObserver@@@std@@@std@@@std@@QAEXPAU_Node@?$_List_nod@PAVIMessageObserver@@V?$allocator@PAVIMessageObserver@@@std@@@2@@Z
_TEXT	SEGMENT
_this$ = -4						; size = 4
__Ptr$ = 8						; size = 4
?destroy@?$allocator@U_Node@?$_List_nod@PAVIMessageObserver@@V?$allocator@PAVIMessageObserver@@@std@@@std@@@std@@QAEXPAU_Node@?$_List_nod@PAVIMessageObserver@@V?$allocator@PAVIMessageObserver@@@std@@@2@@Z PROC NEAR ; std::allocator<std::_List_nod<IMessageObserver *,std::allocator<IMessageObserver *> >::_Node>::destroy, COMDAT
; _this$ = ecx

; 151  : 		{	// destroy object at _Ptr

  00000	55		 push	 ebp
  00001	8b ec		 mov	 ebp, esp
  00003	51		 push	 ecx
  00004	89 4d fc	 mov	 DWORD PTR _this$[ebp], ecx

; 152  : 		_Destroy(_Ptr);

  00007	8b 45 08	 mov	 eax, DWORD PTR __Ptr$[ebp]
  0000a	50		 push	 eax
  0000b	e8 00 00 00 00	 call	 ??$_Destroy@U_Node@?$_List_nod@PAVIMessageObserver@@V?$allocator@PAVIMessageObserver@@@std@@@std@@@std@@YAXPAU_Node@?$_List_nod@PAVIMessageObserver@@V?$allocator@PAVIMessageObserver@@@std@@@0@@Z ; std::_Destroy<std::_List_nod<IMessageObserver *,std::allocator<IMessageObserver *> >::_Node>
  00010	83 c4 04	 add	 esp, 4

; 153  : 		}

  00013	8b e5		 mov	 esp, ebp
  00015	5d		 pop	 ebp
  00016	c2 04 00	 ret	 4
?destroy@?$allocator@U_Node@?$_List_nod@PAVIMessageObserver@@V?$allocator@PAVIMessageObserver@@@std@@@std@@@std@@QAEXPAU_Node@?$_List_nod@PAVIMessageObserver@@V?$allocator@PAVIMessageObserver@@@std@@@2@@Z ENDP ; std::allocator<std::_List_nod<IMessageObserver *,std::allocator<IMessageObserver *> >::_Node>::destroy
; Function compile flags: /Odt
_TEXT	ENDS
;	COMDAT ??$?0PAVIMessageObserver@@@?$allocator@PAU_Node@?$_List_nod@PAVIMessageObserver@@V?$allocator@PAVIMessageObserver@@@std@@@std@@@std@@QAE@ABV?$allocator@PAVIMessageObserver@@@1@@Z
_TEXT	SEGMENT
_this$ = -4						; size = 4
___formal$ = 8						; size = 4
??$?0PAVIMessageObserver@@@?$allocator@PAU_Node@?$_List_nod@PAVIMessageObserver@@V?$allocator@PAVIMessageObserver@@@std@@@std@@@std@@QAE@ABV?$allocator@PAVIMessageObserver@@@1@@Z PROC NEAR ; std::allocator<std::_List_nod<IMessageObserver *,std::allocator<IMessageObserver *> >::_Node *>::allocator<std::_List_nod<IMessageObserver *,std::allocator<IMessageObserver *> >::_Node *><IMessageObserver *>, COMDAT
; _this$ = ecx

; 120  : 		allocator(const allocator<_Other>&)

  00000	55		 push	 ebp
  00001	8b ec		 mov	 ebp, esp
  00003	51		 push	 ecx
  00004	89 4d fc	 mov	 DWORD PTR _this$[ebp], ecx

; 121  : 		{	// construct from a related allocator (do nothing)
; 122  : 		}

  00007	8b 45 fc	 mov	 eax, DWORD PTR _this$[ebp]
  0000a	8b e5		 mov	 esp, ebp
  0000c	5d		 pop	 ebp
  0000d	c2 04 00	 ret	 4
??$?0PAVIMessageObserver@@@?$allocator@PAU_Node@?$_List_nod@PAVIMessageObserver@@V?$allocator@PAVIMessageObserver@@@std@@@std@@@std@@QAE@ABV?$allocator@PAVIMessageObserver@@@1@@Z ENDP ; std::allocator<std::_List_nod<IMessageObserver *,std::allocator<IMessageObserver *> >::_Node *>::allocator<std::_List_nod<IMessageObserver *,std::allocator<IMessageObserver *> >::_Node *><IMessageObserver *>
_TEXT	ENDS
EXTRN	??2@YAPAXI@Z:NEAR				; operator new
; Function compile flags: /Odt
;	COMDAT ??$_Allocate@U_Node@?$_List_nod@PAVIMessageObserver@@V?$allocator@PAVIMessageObserver@@@std@@@std@@@std@@YAPAU_Node@?$_List_nod@PAVIMessageObserver@@V?$allocator@PAVIMessageObserver@@@std@@@0@IPAU120@@Z
_TEXT	SEGMENT
__Count$ = 8						; size = 4
___formal$ = 12						; size = 4
??$_Allocate@U_Node@?$_List_nod@PAVIMessageObserver@@V?$allocator@PAVIMessageObserver@@@std@@@std@@@std@@YAPAU_Node@?$_List_nod@PAVIMessageObserver@@V?$allocator@PAVIMessageObserver@@@std@@@0@IPAU120@@Z PROC NEAR ; std::_Allocate<std::_List_nod<IMessageObserver *,std::allocator<IMessageObserver *> >::_Node>, COMDAT

; 33   : 	{	// allocate storage for _Count elements of type _Ty

  00000	55		 push	 ebp
  00001	8b ec		 mov	 ebp, esp

; 34   : 	return ((_Ty _FARQ *)operator new(_Count * sizeof (_Ty)));

  00003	8b 45 08	 mov	 eax, DWORD PTR __Count$[ebp]
  00006	6b c0 0c	 imul	 eax, 12			; 0000000cH
  00009	50		 push	 eax
  0000a	e8 00 00 00 00	 call	 ??2@YAPAXI@Z		; operator new
  0000f	83 c4 04	 add	 esp, 4

; 35   : 	}

  00012	5d		 pop	 ebp
  00013	c3		 ret	 0
??$_Allocate@U_Node@?$_List_nod@PAVIMessageObserver@@V?$allocator@PAVIMessageObserver@@@std@@@std@@@std@@YAPAU_Node@?$_List_nod@PAVIMessageObserver@@V?$allocator@PAVIMessageObserver@@@std@@@0@IPAU120@@Z ENDP ; std::_Allocate<std::_List_nod<IMessageObserver *,std::allocator<IMessageObserver *> >::_Node>
_TEXT	ENDS
PUBLIC	??2@YAPAXIPAX@Z					; operator new
; Function compile flags: /Odt
;	COMDAT ??$_Construct@PAU_Node@?$_List_nod@PAVIMessageObserver@@V?$allocator@PAVIMessageObserver@@@std@@@std@@PAU123@@std@@YAXPAPAU_Node@?$_List_nod@PAVIMessageObserver@@V?$allocator@PAVIMessageObserver@@@std@@@0@ABQAU120@@Z
_TEXT	SEGMENT
tv68 = -8						; size = 4
$T210522 = -4						; size = 4
__Ptr$ = 8						; size = 4
__Val$ = 12						; size = 4
??$_Construct@PAU_Node@?$_List_nod@PAVIMessageObserver@@V?$allocator@PAVIMessageObserver@@@std@@@std@@PAU123@@std@@YAXPAPAU_Node@?$_List_nod@PAVIMessageObserver@@V?$allocator@PAVIMessageObserver@@@std@@@0@ABQAU120@@Z PROC NEAR ; std::_Construct<std::_List_nod<IMessageObserver *,std::allocator<IMessageObserver *> >::_Node *,std::_List_nod<IMessageObserver *,std::allocator<IMessageObserver *> >::_Node *>, COMDAT

; 41   : 	{	// construct object at _Ptr with value _Val

  00000	55		 push	 ebp
  00001	8b ec		 mov	 ebp, esp
  00003	83 ec 08	 sub	 esp, 8

; 42   : 	new ((void _FARQ *)_Ptr) _T1(_Val);

  00006	8b 45 08	 mov	 eax, DWORD PTR __Ptr$[ebp]
  00009	50		 push	 eax
  0000a	6a 04		 push	 4
  0000c	e8 00 00 00 00	 call	 ??2@YAPAXIPAX@Z		; operator new
  00011	83 c4 08	 add	 esp, 8
  00014	89 45 fc	 mov	 DWORD PTR $T210522[ebp], eax
  00017	83 7d fc 00	 cmp	 DWORD PTR $T210522[ebp], 0
  0001b	74 12		 je	 SHORT $L210523
  0001d	8b 4d fc	 mov	 ecx, DWORD PTR $T210522[ebp]
  00020	8b 55 0c	 mov	 edx, DWORD PTR __Val$[ebp]
  00023	8b 02		 mov	 eax, DWORD PTR [edx]
  00025	89 01		 mov	 DWORD PTR [ecx], eax
  00027	8b 4d fc	 mov	 ecx, DWORD PTR $T210522[ebp]
  0002a	89 4d f8	 mov	 DWORD PTR tv68[ebp], ecx
  0002d	eb 07		 jmp	 SHORT $L209031
$L210523:
  0002f	c7 45 f8 00 00
	00 00		 mov	 DWORD PTR tv68[ebp], 0
$L209031:

; 43   : 	}

  00036	8b e5		 mov	 esp, ebp
  00038	5d		 pop	 ebp
  00039	c3		 ret	 0
??$_Construct@PAU_Node@?$_List_nod@PAVIMessageObserver@@V?$allocator@PAVIMessageObserver@@@std@@@std@@PAU123@@std@@YAXPAPAU_Node@?$_List_nod@PAVIMessageObserver@@V?$allocator@PAVIMessageObserver@@@std@@@0@ABQAU120@@Z ENDP ; std::_Construct<std::_List_nod<IMessageObserver *,std::allocator<IMessageObserver *> >::_Node *,std::_List_nod<IMessageObserver *,std::allocator<IMessageObserver *> >::_Node *>
; Function compile flags: /Odt
; File d:\program files (x86)\microsoft visual studio .net 2003\vc7\include\new.h
_TEXT	ENDS
;	COMDAT ??2@YAPAXIPAX@Z
_TEXT	SEGMENT
___formal$ = 8						; size = 4
__P$ = 12						; size = 4
??2@YAPAXIPAX@Z PROC NEAR				; operator new, COMDAT

; 109  :         {return (_P); }

  00000	55		 push	 ebp
  00001	8b ec		 mov	 ebp, esp
  00003	8b 45 0c	 mov	 eax, DWORD PTR __P$[ebp]
  00006	5d		 pop	 ebp
  00007	c3		 ret	 0
??2@YAPAXIPAX@Z ENDP					; operator new
; Function compile flags: /Odt
; File d:\program files (x86)\microsoft visual studio .net 2003\vc7\include\xmemory
_TEXT	ENDS
;	COMDAT ??$_Destroy@PAU_Node@?$_List_nod@PAVIMessageObserver@@V?$allocator@PAVIMessageObserver@@@std@@@std@@@std@@YAXPAPAU_Node@?$_List_nod@PAVIMessageObserver@@V?$allocator@PAVIMessageObserver@@@std@@@0@@Z
_TEXT	SEGMENT
__Ptr$ = 8						; size = 4
??$_Destroy@PAU_Node@?$_List_nod@PAVIMessageObserver@@V?$allocator@PAVIMessageObserver@@@std@@@std@@@std@@YAXPAPAU_Node@?$_List_nod@PAVIMessageObserver@@V?$allocator@PAVIMessageObserver@@@std@@@0@@Z PROC NEAR ; std::_Destroy<std::_List_nod<IMessageObserver *,std::allocator<IMessageObserver *> >::_Node *>, COMDAT

; 48   : 	{	// destroy object at _Ptr

  00000	55		 push	 ebp
  00001	8b ec		 mov	 ebp, esp

; 49   : 	_DESTRUCTOR(_Ty, _Ptr);
; 50   : 	}

  00003	5d		 pop	 ebp
  00004	c3		 ret	 0
??$_Destroy@PAU_Node@?$_List_nod@PAVIMessageObserver@@V?$allocator@PAVIMessageObserver@@@std@@@std@@@std@@YAXPAPAU_Node@?$_List_nod@PAVIMessageObserver@@V?$allocator@PAVIMessageObserver@@@std@@@0@@Z ENDP ; std::_Destroy<std::_List_nod<IMessageObserver *,std::allocator<IMessageObserver *> >::_Node *>
; Function compile flags: /Odt
_TEXT	ENDS
;	COMDAT ??$?0PAVIMessageObserver@@@?$allocator@U_Node@?$_List_nod@PAVIMessageObserver@@V?$allocator@PAVIMessageObserver@@@std@@@std@@@std@@QAE@ABV?$allocator@PAVIMessageObserver@@@1@@Z
_TEXT	SEGMENT
_this$ = -4						; size = 4
___formal$ = 8						; size = 4
??$?0PAVIMessageObserver@@@?$allocator@U_Node@?$_List_nod@PAVIMessageObserver@@V?$allocator@PAVIMessageObserver@@@std@@@std@@@std@@QAE@ABV?$allocator@PAVIMessageObserver@@@1@@Z PROC NEAR ; std::allocator<std::_List_nod<IMessageObserver *,std::allocator<IMessageObserver *> >::_Node>::allocator<std::_List_nod<IMessageObserver *,std::allocator<IMessageObserver *> >::_Node><IMessageObserver *>, COMDAT
; _this$ = ecx

; 120  : 		allocator(const allocator<_Other>&)

  00000	55		 push	 ebp
  00001	8b ec		 mov	 ebp, esp
  00003	51		 push	 ecx
  00004	89 4d fc	 mov	 DWORD PTR _this$[ebp], ecx

; 121  : 		{	// construct from a related allocator (do nothing)
; 122  : 		}

  00007	8b 45 fc	 mov	 eax, DWORD PTR _this$[ebp]
  0000a	8b e5		 mov	 esp, ebp
  0000c	5d		 pop	 ebp
  0000d	c2 04 00	 ret	 4
??$?0PAVIMessageObserver@@@?$allocator@U_Node@?$_List_nod@PAVIMessageObserver@@V?$allocator@PAVIMessageObserver@@@std@@@std@@@std@@QAE@ABV?$allocator@PAVIMessageObserver@@@1@@Z ENDP ; std::allocator<std::_List_nod<IMessageObserver *,std::allocator<IMessageObserver *> >::_Node>::allocator<std::_List_nod<IMessageObserver *,std::allocator<IMessageObserver *> >::_Node><IMessageObserver *>
; Function compile flags: /Odt
_TEXT	ENDS
;	COMDAT ??$_Destroy@U_Node@?$_List_nod@PAVIMessageObserver@@V?$allocator@PAVIMessageObserver@@@std@@@std@@@std@@YAXPAU_Node@?$_List_nod@PAVIMessageObserver@@V?$allocator@PAVIMessageObserver@@@std@@@0@@Z
_TEXT	SEGMENT
__Ptr$ = 8						; size = 4
??$_Destroy@U_Node@?$_List_nod@PAVIMessageObserver@@V?$allocator@PAVIMessageObserver@@@std@@@std@@@std@@YAXPAU_Node@?$_List_nod@PAVIMessageObserver@@V?$allocator@PAVIMessageObserver@@@std@@@0@@Z PROC NEAR ; std::_Destroy<std::_List_nod<IMessageObserver *,std::allocator<IMessageObserver *> >::_Node>, COMDAT

; 48   : 	{	// destroy object at _Ptr

  00000	55		 push	 ebp
  00001	8b ec		 mov	 ebp, esp

; 49   : 	_DESTRUCTOR(_Ty, _Ptr);
; 50   : 	}

  00003	5d		 pop	 ebp
  00004	c3		 ret	 0
??$_Destroy@U_Node@?$_List_nod@PAVIMessageObserver@@V?$allocator@PAVIMessageObserver@@@std@@@std@@@std@@YAXPAU_Node@?$_List_nod@PAVIMessageObserver@@V?$allocator@PAVIMessageObserver@@@std@@@0@@Z ENDP ; std::_Destroy<std::_List_nod<IMessageObserver *,std::allocator<IMessageObserver *> >::_Node>
; Function compile flags: /Odt
_TEXT	ENDS
;	COMDAT ??_9@$BBFE@AE
_TEXT	SEGMENT
??_9@$BBFE@AE PROC NEAR					; `vcall', COMDAT
  00000	8b 01		 mov	 eax, DWORD PTR [ecx]
  00002	ff a0 54 01 00
	00		 jmp	 DWORD PTR [eax+340]
??_9@$BBFE@AE ENDP					; `vcall'
; Function compile flags: /Odt
_TEXT	ENDS
;	COMDAT ??_9@$BBFI@AE
_TEXT	SEGMENT
??_9@$BBFI@AE PROC NEAR					; `vcall', COMDAT
  00000	8b 01		 mov	 eax, DWORD PTR [ecx]
  00002	ff a0 58 01 00
	00		 jmp	 DWORD PTR [eax+344]
??_9@$BBFI@AE ENDP					; `vcall'
; Function compile flags: /Odt
_TEXT	ENDS
;	COMDAT ??_ECPlayBoxDlg@@WHI@AEPAXI@Z
_TEXT	SEGMENT
??_ECPlayBoxDlg@@WHI@AEPAXI@Z PROC NEAR			; [thunk]:CPlayBoxDlg::`vector deleting destructor', COMDAT
  00000	83 e9 78	 sub	 ecx, 120		; 00000078H
  00003	e9 00 00 00 00	 jmp	 ??_ECPlayBoxDlg@@UAEPAXI@Z
??_ECPlayBoxDlg@@WHI@AEPAXI@Z ENDP			; [thunk]:CPlayBoxDlg::`vector deleting destructor'
; Function compile flags: /Odt
_TEXT	ENDS
;	COMDAT ??_ECPlayBoxDlg@@WHM@AEPAXI@Z
_TEXT	SEGMENT
??_ECPlayBoxDlg@@WHM@AEPAXI@Z PROC NEAR			; [thunk]:CPlayBoxDlg::`vector deleting destructor', COMDAT
  00000	83 e9 7c	 sub	 ecx, 124		; 0000007cH
  00003	e9 00 00 00 00	 jmp	 ??_ECPlayBoxDlg@@UAEPAXI@Z
??_ECPlayBoxDlg@@WHM@AEPAXI@Z ENDP			; [thunk]:CPlayBoxDlg::`vector deleting destructor'
; Function compile flags: /Odt
; File d:\program files (x86)\microsoft visual studio .net 2003\vc7\atlmfc\include\afx.inl
_TEXT	ENDS
;	COMDAT ?Serialize@CObject@@UAEXAAVCArchive@@@Z
_TEXT	SEGMENT
_this$ = -4						; size = 4
___formal$ = 8						; size = 4
?Serialize@CObject@@UAEXAAVCArchive@@@Z PROC NEAR	; CObject::Serialize, COMDAT
; _this$ = ecx

; 25   : 	{ /* CObject does not serialize anything by default */ }

  00000	55		 push	 ebp
  00001	8b ec		 mov	 ebp, esp
  00003	51		 push	 ecx
  00004	89 4d fc	 mov	 DWORD PTR _this$[ebp], ecx
  00007	8b e5		 mov	 esp, ebp
  00009	5d		 pop	 ebp
  0000a	c2 04 00	 ret	 4
?Serialize@CObject@@UAEXAAVCArchive@@@Z ENDP		; CObject::Serialize
; Function compile flags: /Odt
_TEXT	ENDS
;	COMDAT ??3CObject@@SGXPAX@Z
_TEXT	SEGMENT
_p$ = 8							; size = 4
??3CObject@@SGXPAX@Z PROC NEAR				; CObject::operator delete, COMDAT

; 31   : 	{ ::operator delete(p); }

  00000	55		 push	 ebp
  00001	8b ec		 mov	 ebp, esp
  00003	8b 45 08	 mov	 eax, DWORD PTR _p$[ebp]
  00006	50		 push	 eax
  00007	e8 00 00 00 00	 call	 ??3@YAXPAX@Z		; operator delete
  0000c	83 c4 04	 add	 esp, 4
  0000f	5d		 pop	 ebp
  00010	c2 04 00	 ret	 4
??3CObject@@SGXPAX@Z ENDP				; CObject::operator delete
; Function compile flags: /Odt
_TEXT	ENDS
;	COMDAT ??2CObject@@SGPAXI@Z
_TEXT	SEGMENT
_nSize$ = 8						; size = 4
??2CObject@@SGPAXI@Z PROC NEAR				; CObject::operator new, COMDAT

; 37   : 	{ return ::operator new(nSize); }

  00000	55		 push	 ebp
  00001	8b ec		 mov	 ebp, esp
  00003	8b 45 08	 mov	 eax, DWORD PTR _nSize$[ebp]
  00006	50		 push	 eax
  00007	e8 00 00 00 00	 call	 ??2@YAPAXI@Z		; operator new
  0000c	83 c4 04	 add	 esp, 4
  0000f	5d		 pop	 ebp
  00010	c2 04 00	 ret	 4
??2CObject@@SGPAXI@Z ENDP				; CObject::operator new
; Function compile flags: /Odt
_TEXT	ENDS
;	COMDAT ?AssertValid@CObject@@UBEXXZ
_TEXT	SEGMENT
_this$ = -4						; size = 4
?AssertValid@CObject@@UBEXXZ PROC NEAR			; CObject::AssertValid, COMDAT
; _this$ = ecx

; 41   : 	{ /* no asserts in release builds */ }

  00000	55		 push	 ebp
  00001	8b ec		 mov	 ebp, esp
  00003	51		 push	 ecx
  00004	89 4d fc	 mov	 DWORD PTR _this$[ebp], ecx
  00007	8b e5		 mov	 esp, ebp
  00009	5d		 pop	 ebp
  0000a	c3		 ret	 0
?AssertValid@CObject@@UBEXXZ ENDP			; CObject::AssertValid
; Function compile flags: /Odt
_TEXT	ENDS
;	COMDAT ?Dump@CObject@@UBEXAAVCDumpContext@@@Z
_TEXT	SEGMENT
_this$ = -4						; size = 4
___formal$ = 8						; size = 4
?Dump@CObject@@UBEXAAVCDumpContext@@@Z PROC NEAR	; CObject::Dump, COMDAT
; _this$ = ecx

; 43   : 	{ /* no dumping in release builds */ }

  00000	55		 push	 ebp
  00001	8b ec		 mov	 ebp, esp
  00003	51		 push	 ecx
  00004	89 4d fc	 mov	 DWORD PTR _this$[ebp], ecx
  00007	8b e5		 mov	 esp, ebp
  00009	5d		 pop	 ebp
  0000a	c2 04 00	 ret	 4
?Dump@CObject@@UBEXAAVCDumpContext@@@Z ENDP		; CObject::Dump
_TEXT	ENDS
EXTRN	?AfxGetModuleState@@YGPAVAFX_MODULE_STATE@@XZ:NEAR ; AfxGetModuleState
; Function compile flags: /Odt
; File d:\program files (x86)\microsoft visual studio .net 2003\vc7\atlmfc\include\afxwin1.inl
;	COMDAT ?AfxGetApp@@YGPAVCWinApp@@XZ
_TEXT	SEGMENT
?AfxGetApp@@YGPAVCWinApp@@XZ PROC NEAR			; AfxGetApp, COMDAT

; 21   : 	{ return afxCurrentWinApp; }

  00000	55		 push	 ebp
  00001	8b ec		 mov	 ebp, esp
  00003	e8 00 00 00 00	 call	 ?AfxGetModuleState@@YGPAVAFX_MODULE_STATE@@XZ ; AfxGetModuleState
  00008	8b 40 04	 mov	 eax, DWORD PTR [eax+4]
  0000b	5d		 pop	 ebp
  0000c	c3		 ret	 0
?AfxGetApp@@YGPAVCWinApp@@XZ ENDP			; AfxGetApp
_TEXT	ENDS
PUBLIC	??_R0?AVCGdiObject@@@8				; CGdiObject `RTTI Type Descriptor'
PUBLIC	??_R1A@?0A@A@CGdiObject@@8			; CGdiObject::`RTTI Base Class Descriptor at (0,-1,0,0)'
PUBLIC	??_R4CBrush@@6B@				; CBrush::`RTTI Complete Object Locator'
PUBLIC	??_R0?AVCBrush@@@8				; CBrush `RTTI Type Descriptor'
PUBLIC	??_R3CBrush@@8					; CBrush::`RTTI Class Hierarchy Descriptor'
PUBLIC	??_R2CBrush@@8					; CBrush::`RTTI Base Class Array'
PUBLIC	??_R1A@?0A@A@CBrush@@8				; CBrush::`RTTI Base Class Descriptor at (0,-1,0,0)'
PUBLIC	??1CGdiObject@@UAE@XZ				; CGdiObject::~CGdiObject
PUBLIC	??_7CBrush@@6B@					; CBrush::`vftable'
PUBLIC	??_GCBrush@@UAEPAXI@Z				; CBrush::`scalar deleting destructor'
EXTRN	?GetRuntimeClass@CBrush@@UBEPAUCRuntimeClass@@XZ:NEAR ; CBrush::GetRuntimeClass
EXTRN	??_ECBrush@@UAEPAXI@Z:NEAR			; CBrush::`vector deleting destructor'
;	COMDAT ??_7CBrush@@6B@
CONST	SEGMENT
??_7CBrush@@6B@ DD FLAT:??_R4CBrush@@6B@		; CBrush::`vftable'
	DD	FLAT:?GetRuntimeClass@CBrush@@UBEPAUCRuntimeClass@@XZ
	DD	FLAT:??_ECBrush@@UAEPAXI@Z
	DD	FLAT:?Serialize@CObject@@UAEXAAVCArchive@@@Z
	DD	FLAT:?AssertValid@CObject@@UBEXXZ
	DD	FLAT:?Dump@CObject@@UBEXAAVCDumpContext@@@Z
CONST	ENDS
;	COMDAT ??_R4CBrush@@6B@
rdata$r	SEGMENT
??_R4CBrush@@6B@ DD 00H					; CBrush::`RTTI Complete Object Locator'
	DD	00H
	DD	00H
	DD	FLAT:??_R0?AVCBrush@@@8
	DD	FLAT:??_R3CBrush@@8
rdata$r	ENDS
;	COMDAT ??_R0?AVCBrush@@@8
_DATA	SEGMENT
??_R0?AVCBrush@@@8 DD FLAT:??_7type_info@@6B@		; CBrush `RTTI Type Descriptor'
	DD	00H
	DB	'.?AVCBrush@@', 00H
_DATA	ENDS
;	COMDAT ??_R3CBrush@@8
rdata$r	SEGMENT
??_R3CBrush@@8 DD 00H					; CBrush::`RTTI Class Hierarchy Descriptor'
	DD	00H
	DD	03H
	DD	FLAT:??_R2CBrush@@8
rdata$r	ENDS
;	COMDAT ??_R2CBrush@@8
rdata$r	SEGMENT
??_R2CBrush@@8 DD FLAT:??_R1A@?0A@A@CBrush@@8		; CBrush::`RTTI Base Class Array'
	DD	FLAT:??_R1A@?0A@A@CGdiObject@@8
	DD	FLAT:??_R1A@?0A@A@CObject@@8
rdata$r	ENDS
;	COMDAT ??_R1A@?0A@A@CBrush@@8
rdata$r	SEGMENT
??_R1A@?0A@A@CBrush@@8 DD FLAT:??_R0?AVCBrush@@@8	; CBrush::`RTTI Base Class Descriptor at (0,-1,0,0)'
	DD	02H
	DD	00H
	DD	0ffffffffH
	DD	00H
	DD	00H
rdata$r	ENDS
;	COMDAT ??_R1A@?0A@A@CGdiObject@@8
rdata$r	SEGMENT
??_R1A@?0A@A@CGdiObject@@8 DD FLAT:??_R0?AVCGdiObject@@@8 ; CGdiObject::`RTTI Base Class Descriptor at (0,-1,0,0)'
	DD	01H
	DD	00H
	DD	0ffffffffH
	DD	00H
	DD	00H
rdata$r	ENDS
;	COMDAT ??_R0?AVCGdiObject@@@8
_DATA	SEGMENT
??_R0?AVCGdiObject@@@8 DD FLAT:??_7type_info@@6B@	; CGdiObject `RTTI Type Descriptor'
	DD	00H
	DB	'.?AVCGdiObject@@', 00H
; Function compile flags: /Odt
_DATA	ENDS
;	COMDAT ??1CBrush@@UAE@XZ
_TEXT	SEGMENT
_this$ = -4						; size = 4
??1CBrush@@UAE@XZ PROC NEAR				; CBrush::~CBrush, COMDAT
; _this$ = ecx

; 130  : 	{ }

  00000	55		 push	 ebp
  00001	8b ec		 mov	 ebp, esp
  00003	51		 push	 ecx
  00004	89 4d fc	 mov	 DWORD PTR _this$[ebp], ecx
  00007	8b 45 fc	 mov	 eax, DWORD PTR _this$[ebp]
  0000a	c7 00 00 00 00
	00		 mov	 DWORD PTR [eax], OFFSET FLAT:??_7CBrush@@6B@
  00010	8b 4d fc	 mov	 ecx, DWORD PTR _this$[ebp]
  00013	e8 00 00 00 00	 call	 ??1CGdiObject@@UAE@XZ	; CGdiObject::~CGdiObject
  00018	8b e5		 mov	 esp, ebp
  0001a	5d		 pop	 ebp
  0001b	c3		 ret	 0
??1CBrush@@UAE@XZ ENDP					; CBrush::~CBrush
_TEXT	ENDS
PUBLIC	??_R4CGdiObject@@6B@				; CGdiObject::`RTTI Complete Object Locator'
PUBLIC	??_R3CGdiObject@@8				; CGdiObject::`RTTI Class Hierarchy Descriptor'
PUBLIC	??_R2CGdiObject@@8				; CGdiObject::`RTTI Base Class Array'
PUBLIC	??1CObject@@UAE@XZ				; CObject::~CObject
PUBLIC	??_7CGdiObject@@6B@				; CGdiObject::`vftable'
PUBLIC	??_GCGdiObject@@UAEPAXI@Z			; CGdiObject::`scalar deleting destructor'
EXTRN	?GetRuntimeClass@CGdiObject@@UBEPAUCRuntimeClass@@XZ:NEAR ; CGdiObject::GetRuntimeClass
EXTRN	?DeleteObject@CGdiObject@@QAEHXZ:NEAR		; CGdiObject::DeleteObject
EXTRN	??_ECGdiObject@@UAEPAXI@Z:NEAR			; CGdiObject::`vector deleting destructor'
;	COMDAT xdata$x
xdata$x	SEGMENT
$T210562 DD	0ffffffffH
	DD	FLAT:$L210558
$T210560 DD	019930520H
	DD	01H
	DD	FLAT:$T210562
	DD	2 DUP(00H)
	DD	2 DUP(00H)
xdata$x	ENDS
;	COMDAT ??_7CGdiObject@@6B@
CONST	SEGMENT
??_7CGdiObject@@6B@ DD FLAT:??_R4CGdiObject@@6B@	; CGdiObject::`vftable'
	DD	FLAT:?GetRuntimeClass@CGdiObject@@UBEPAUCRuntimeClass@@XZ
	DD	FLAT:??_ECGdiObject@@UAEPAXI@Z
	DD	FLAT:?Serialize@CObject@@UAEXAAVCArchive@@@Z
	DD	FLAT:?AssertValid@CObject@@UBEXXZ
	DD	FLAT:?Dump@CObject@@UBEXAAVCDumpContext@@@Z
CONST	ENDS
;	COMDAT ??_R4CGdiObject@@6B@
rdata$r	SEGMENT
??_R4CGdiObject@@6B@ DD 00H				; CGdiObject::`RTTI Complete Object Locator'
	DD	00H
	DD	00H
	DD	FLAT:??_R0?AVCGdiObject@@@8
	DD	FLAT:??_R3CGdiObject@@8
rdata$r	ENDS
;	COMDAT ??_R3CGdiObject@@8
rdata$r	SEGMENT
??_R3CGdiObject@@8 DD 00H				; CGdiObject::`RTTI Class Hierarchy Descriptor'
	DD	00H
	DD	02H
	DD	FLAT:??_R2CGdiObject@@8
rdata$r	ENDS
;	COMDAT ??_R2CGdiObject@@8
rdata$r	SEGMENT
??_R2CGdiObject@@8 DD FLAT:??_R1A@?0A@A@CGdiObject@@8	; CGdiObject::`RTTI Base Class Array'
	DD	FLAT:??_R1A@?0A@A@CObject@@8
; Function compile flags: /Odt
rdata$r	ENDS
;	COMDAT ??1CGdiObject@@UAE@XZ
_TEXT	SEGMENT
_this$ = -16						; size = 4
__$EHRec$ = -12						; size = 12
??1CGdiObject@@UAE@XZ PROC NEAR				; CGdiObject::~CGdiObject, COMDAT
; _this$ = ecx

; 84   : 	{ DeleteObject(); }

  00000	55		 push	 ebp
  00001	8b ec		 mov	 ebp, esp
  00003	6a ff		 push	 -1
  00005	68 00 00 00 00	 push	 __ehhandler$??1CGdiObject@@UAE@XZ
  0000a	64 a1 00 00 00
	00		 mov	 eax, DWORD PTR fs:__except_list
  00010	50		 push	 eax
  00011	64 89 25 00 00
	00 00		 mov	 DWORD PTR fs:__except_list, esp
  00018	51		 push	 ecx
  00019	89 4d f0	 mov	 DWORD PTR _this$[ebp], ecx
  0001c	8b 45 f0	 mov	 eax, DWORD PTR _this$[ebp]
  0001f	c7 00 00 00 00
	00		 mov	 DWORD PTR [eax], OFFSET FLAT:??_7CGdiObject@@6B@
  00025	c7 45 fc 00 00
	00 00		 mov	 DWORD PTR __$EHRec$[ebp+8], 0
  0002c	8b 4d f0	 mov	 ecx, DWORD PTR _this$[ebp]
  0002f	e8 00 00 00 00	 call	 ?DeleteObject@CGdiObject@@QAEHXZ ; CGdiObject::DeleteObject
  00034	c7 45 fc ff ff
	ff ff		 mov	 DWORD PTR __$EHRec$[ebp+8], -1
  0003b	8b 4d f0	 mov	 ecx, DWORD PTR _this$[ebp]
  0003e	e8 00 00 00 00	 call	 ??1CObject@@UAE@XZ	; CObject::~CObject
  00043	8b 4d f4	 mov	 ecx, DWORD PTR __$EHRec$[ebp]
  00046	64 89 0d 00 00
	00 00		 mov	 DWORD PTR fs:__except_list, ecx
  0004d	8b e5		 mov	 esp, ebp
  0004f	5d		 pop	 ebp
  00050	c3		 ret	 0
_TEXT	ENDS
;	COMDAT text$x
text$x	SEGMENT
$L210558:
  00000	8b 4d f0	 mov	 ecx, DWORD PTR _this$[ebp]
  00003	e9 00 00 00 00	 jmp	 ??1CObject@@UAE@XZ	; CObject::~CObject
__ehhandler$??1CGdiObject@@UAE@XZ:
  00008	b8 00 00 00 00	 mov	 eax, OFFSET FLAT:$T210560
  0000d	e9 00 00 00 00	 jmp	 ___CxxFrameHandler
text$x	ENDS
??1CGdiObject@@UAE@XZ ENDP				; CGdiObject::~CGdiObject
; Function compile flags: /Odt
; File d:\program files (x86)\microsoft visual studio .net 2003\vc7\atlmfc\include\afx.inl
;	COMDAT ??1CObject@@UAE@XZ
_TEXT	SEGMENT
_this$ = -4						; size = 4
??1CObject@@UAE@XZ PROC NEAR				; CObject::~CObject, COMDAT
; _this$ = ecx

; 23   : 	{ }

  00000	55		 push	 ebp
  00001	8b ec		 mov	 ebp, esp
  00003	51		 push	 ecx
  00004	89 4d fc	 mov	 DWORD PTR _this$[ebp], ecx
  00007	8b e5		 mov	 esp, ebp
  00009	5d		 pop	 ebp
  0000a	c3		 ret	 0
??1CObject@@UAE@XZ ENDP					; CObject::~CObject
; Function compile flags: /Odt
_TEXT	ENDS
;	COMDAT ??_GCGdiObject@@UAEPAXI@Z
_TEXT	SEGMENT
_this$ = -4						; size = 4
___flags$ = 8						; size = 4
??_GCGdiObject@@UAEPAXI@Z PROC NEAR			; CGdiObject::`scalar deleting destructor', COMDAT
; _this$ = ecx
  00000	55		 push	 ebp
  00001	8b ec		 mov	 ebp, esp
  00003	51		 push	 ecx
  00004	89 4d fc	 mov	 DWORD PTR _this$[ebp], ecx
  00007	8b 4d fc	 mov	 ecx, DWORD PTR _this$[ebp]
  0000a	e8 00 00 00 00	 call	 ??1CGdiObject@@UAE@XZ	; CGdiObject::~CGdiObject
  0000f	8b 45 08	 mov	 eax, DWORD PTR ___flags$[ebp]
  00012	83 e0 01	 and	 eax, 1
  00015	74 09		 je	 SHORT $L41495
  00017	8b 4d fc	 mov	 ecx, DWORD PTR _this$[ebp]
  0001a	51		 push	 ecx
  0001b	e8 00 00 00 00	 call	 ??3CObject@@SGXPAX@Z	; CObject::operator delete
$L41495:
  00020	8b 45 fc	 mov	 eax, DWORD PTR _this$[ebp]
  00023	8b e5		 mov	 esp, ebp
  00025	5d		 pop	 ebp
  00026	c2 04 00	 ret	 4
??_GCGdiObject@@UAEPAXI@Z ENDP				; CGdiObject::`scalar deleting destructor'
; Function compile flags: /Odt
_TEXT	ENDS
;	COMDAT ??_GCBrush@@UAEPAXI@Z
_TEXT	SEGMENT
_this$ = -4						; size = 4
___flags$ = 8						; size = 4
??_GCBrush@@UAEPAXI@Z PROC NEAR				; CBrush::`scalar deleting destructor', COMDAT
; _this$ = ecx
  00000	55		 push	 ebp
  00001	8b ec		 mov	 ebp, esp
  00003	51		 push	 ecx
  00004	89 4d fc	 mov	 DWORD PTR _this$[ebp], ecx
  00007	8b 4d fc	 mov	 ecx, DWORD PTR _this$[ebp]
  0000a	e8 00 00 00 00	 call	 ??1CBrush@@UAE@XZ	; CBrush::~CBrush
  0000f	8b 45 08	 mov	 eax, DWORD PTR ___flags$[ebp]
  00012	83 e0 01	 and	 eax, 1
  00015	74 09		 je	 SHORT $L41589
  00017	8b 4d fc	 mov	 ecx, DWORD PTR _this$[ebp]
  0001a	51		 push	 ecx
  0001b	e8 00 00 00 00	 call	 ??3CObject@@SGXPAX@Z	; CObject::operator delete
$L41589:
  00020	8b 45 fc	 mov	 eax, DWORD PTR _this$[ebp]
  00023	8b e5		 mov	 esp, ebp
  00025	5d		 pop	 ebp
  00026	c2 04 00	 ret	 4
??_GCBrush@@UAEPAXI@Z ENDP				; CBrush::`scalar deleting destructor'
_TEXT	ENDS
PUBLIC	??_R4CBitmap@@6B@				; CBitmap::`RTTI Complete Object Locator'
PUBLIC	??_R0?AVCBitmap@@@8				; CBitmap `RTTI Type Descriptor'
PUBLIC	??_R3CBitmap@@8					; CBitmap::`RTTI Class Hierarchy Descriptor'
PUBLIC	??_R2CBitmap@@8					; CBitmap::`RTTI Base Class Array'
PUBLIC	??_R1A@?0A@A@CBitmap@@8				; CBitmap::`RTTI Base Class Descriptor at (0,-1,0,0)'
PUBLIC	??0CGdiObject@@QAE@XZ				; CGdiObject::CGdiObject
PUBLIC	??_7CBitmap@@6B@				; CBitmap::`vftable'
PUBLIC	??_GCBitmap@@UAEPAXI@Z				; CBitmap::`scalar deleting destructor'
EXTRN	?GetRuntimeClass@CBitmap@@UBEPAUCRuntimeClass@@XZ:NEAR ; CBitmap::GetRuntimeClass
EXTRN	??_ECBitmap@@UAEPAXI@Z:NEAR			; CBitmap::`vector deleting destructor'
;	COMDAT ??_7CBitmap@@6B@
; File d:\program files (x86)\microsoft visual studio .net 2003\vc7\atlmfc\include\afxwin1.inl
CONST	SEGMENT
??_7CBitmap@@6B@ DD FLAT:??_R4CBitmap@@6B@		; CBitmap::`vftable'
	DD	FLAT:?GetRuntimeClass@CBitmap@@UBEPAUCRuntimeClass@@XZ
	DD	FLAT:??_ECBitmap@@UAEPAXI@Z
	DD	FLAT:?Serialize@CObject@@UAEXAAVCArchive@@@Z
	DD	FLAT:?AssertValid@CObject@@UBEXXZ
	DD	FLAT:?Dump@CObject@@UBEXAAVCDumpContext@@@Z
CONST	ENDS
;	COMDAT ??_R4CBitmap@@6B@
rdata$r	SEGMENT
??_R4CBitmap@@6B@ DD 00H				; CBitmap::`RTTI Complete Object Locator'
	DD	00H
	DD	00H
	DD	FLAT:??_R0?AVCBitmap@@@8
	DD	FLAT:??_R3CBitmap@@8
rdata$r	ENDS
;	COMDAT ??_R0?AVCBitmap@@@8
_DATA	SEGMENT
??_R0?AVCBitmap@@@8 DD FLAT:??_7type_info@@6B@		; CBitmap `RTTI Type Descriptor'
	DD	00H
	DB	'.?AVCBitmap@@', 00H
_DATA	ENDS
;	COMDAT ??_R3CBitmap@@8
rdata$r	SEGMENT
??_R3CBitmap@@8 DD 00H					; CBitmap::`RTTI Class Hierarchy Descriptor'
	DD	00H
	DD	03H
	DD	FLAT:??_R2CBitmap@@8
rdata$r	ENDS
;	COMDAT ??_R2CBitmap@@8
rdata$r	SEGMENT
??_R2CBitmap@@8 DD FLAT:??_R1A@?0A@A@CBitmap@@8		; CBitmap::`RTTI Base Class Array'
	DD	FLAT:??_R1A@?0A@A@CGdiObject@@8
	DD	FLAT:??_R1A@?0A@A@CObject@@8
rdata$r	ENDS
;	COMDAT ??_R1A@?0A@A@CBitmap@@8
rdata$r	SEGMENT
??_R1A@?0A@A@CBitmap@@8 DD FLAT:??_R0?AVCBitmap@@@8	; CBitmap::`RTTI Base Class Descriptor at (0,-1,0,0)'
	DD	02H
	DD	00H
	DD	0ffffffffH
	DD	00H
	DD	00H
; Function compile flags: /Odt
rdata$r	ENDS
;	COMDAT ??0CBitmap@@QAE@XZ
_TEXT	SEGMENT
_this$ = -4						; size = 4
??0CBitmap@@QAE@XZ PROC NEAR				; CBitmap::CBitmap, COMDAT
; _this$ = ecx

; 177  : 	{ }

  00000	55		 push	 ebp
  00001	8b ec		 mov	 ebp, esp
  00003	51		 push	 ecx
  00004	89 4d fc	 mov	 DWORD PTR _this$[ebp], ecx
  00007	8b 4d fc	 mov	 ecx, DWORD PTR _this$[ebp]
  0000a	e8 00 00 00 00	 call	 ??0CGdiObject@@QAE@XZ	; CGdiObject::CGdiObject
  0000f	8b 45 fc	 mov	 eax, DWORD PTR _this$[ebp]
  00012	c7 00 00 00 00
	00		 mov	 DWORD PTR [eax], OFFSET FLAT:??_7CBitmap@@6B@
  00018	8b 45 fc	 mov	 eax, DWORD PTR _this$[ebp]
  0001b	8b e5		 mov	 esp, ebp
  0001d	5d		 pop	 ebp
  0001e	c3		 ret	 0
??0CBitmap@@QAE@XZ ENDP					; CBitmap::CBitmap
_TEXT	ENDS
PUBLIC	??0CObject@@IAE@XZ				; CObject::CObject
; Function compile flags: /Odt
;	COMDAT ??0CGdiObject@@QAE@XZ
_TEXT	SEGMENT
_this$ = -4						; size = 4
??0CGdiObject@@QAE@XZ PROC NEAR				; CGdiObject::CGdiObject, COMDAT
; _this$ = ecx

; 82   : 	{ m_hObject = NULL; }

  00000	55		 push	 ebp
  00001	8b ec		 mov	 ebp, esp
  00003	51		 push	 ecx
  00004	89 4d fc	 mov	 DWORD PTR _this$[ebp], ecx
  00007	8b 4d fc	 mov	 ecx, DWORD PTR _this$[ebp]
  0000a	e8 00 00 00 00	 call	 ??0CObject@@IAE@XZ	; CObject::CObject
  0000f	8b 45 fc	 mov	 eax, DWORD PTR _this$[ebp]
  00012	c7 00 00 00 00
	00		 mov	 DWORD PTR [eax], OFFSET FLAT:??_7CGdiObject@@6B@
  00018	8b 4d fc	 mov	 ecx, DWORD PTR _this$[ebp]
  0001b	c7 41 04 00 00
	00 00		 mov	 DWORD PTR [ecx+4], 0
  00022	8b 45 fc	 mov	 eax, DWORD PTR _this$[ebp]
  00025	8b e5		 mov	 esp, ebp
  00027	5d		 pop	 ebp
  00028	c3		 ret	 0
??0CGdiObject@@QAE@XZ ENDP				; CGdiObject::CGdiObject
; Function compile flags: /Odt
; File d:\program files (x86)\microsoft visual studio .net 2003\vc7\atlmfc\include\afx.inl
_TEXT	ENDS
;	COMDAT ??0CObject@@IAE@XZ
_TEXT	SEGMENT
_this$ = -4						; size = 4
??0CObject@@IAE@XZ PROC NEAR				; CObject::CObject, COMDAT
; _this$ = ecx

; 21   : 	{ }

  00000	55		 push	 ebp
  00001	8b ec		 mov	 ebp, esp
  00003	51		 push	 ecx
  00004	89 4d fc	 mov	 DWORD PTR _this$[ebp], ecx
  00007	8b 45 fc	 mov	 eax, DWORD PTR _this$[ebp]
  0000a	8b e5		 mov	 esp, ebp
  0000c	5d		 pop	 ebp
  0000d	c3		 ret	 0
??0CObject@@IAE@XZ ENDP					; CObject::CObject
; Function compile flags: /Odt
_TEXT	ENDS
;	COMDAT ??_GCBitmap@@UAEPAXI@Z
_TEXT	SEGMENT
_this$ = -4						; size = 4
___flags$ = 8						; size = 4
??_GCBitmap@@UAEPAXI@Z PROC NEAR			; CBitmap::`scalar deleting destructor', COMDAT
; _this$ = ecx
  00000	55		 push	 ebp
  00001	8b ec		 mov	 ebp, esp
  00003	51		 push	 ecx
  00004	89 4d fc	 mov	 DWORD PTR _this$[ebp], ecx
  00007	8b 4d fc	 mov	 ecx, DWORD PTR _this$[ebp]
  0000a	e8 00 00 00 00	 call	 ??1CBitmap@@UAE@XZ	; CBitmap::~CBitmap
  0000f	8b 45 08	 mov	 eax, DWORD PTR ___flags$[ebp]
  00012	83 e0 01	 and	 eax, 1
  00015	74 09		 je	 SHORT $L41685
  00017	8b 4d fc	 mov	 ecx, DWORD PTR _this$[ebp]
  0001a	51		 push	 ecx
  0001b	e8 00 00 00 00	 call	 ??3CObject@@SGXPAX@Z	; CObject::operator delete
$L41685:
  00020	8b 45 fc	 mov	 eax, DWORD PTR _this$[ebp]
  00023	8b e5		 mov	 esp, ebp
  00025	5d		 pop	 ebp
  00026	c2 04 00	 ret	 4
??_GCBitmap@@UAEPAXI@Z ENDP				; CBitmap::`scalar deleting destructor'
; Function compile flags: /Odt
; File d:\program files (x86)\microsoft visual studio .net 2003\vc7\atlmfc\include\afxwin1.inl
_TEXT	ENDS
;	COMDAT ??1CBitmap@@UAE@XZ
_TEXT	SEGMENT
_this$ = -4						; size = 4
??1CBitmap@@UAE@XZ PROC NEAR				; CBitmap::~CBitmap, COMDAT
; _this$ = ecx

; 179  : 	{ }

  00000	55		 push	 ebp
  00001	8b ec		 mov	 ebp, esp
  00003	51		 push	 ecx
  00004	89 4d fc	 mov	 DWORD PTR _this$[ebp], ecx
  00007	8b 45 fc	 mov	 eax, DWORD PTR _this$[ebp]
  0000a	c7 00 00 00 00
	00		 mov	 DWORD PTR [eax], OFFSET FLAT:??_7CBitmap@@6B@
  00010	8b 4d fc	 mov	 ecx, DWORD PTR _this$[ebp]
  00013	e8 00 00 00 00	 call	 ??1CGdiObject@@UAE@XZ	; CGdiObject::~CGdiObject
  00018	8b e5		 mov	 esp, ebp
  0001a	5d		 pop	 ebp
  0001b	c3		 ret	 0
??1CBitmap@@UAE@XZ ENDP					; CBitmap::~CBitmap
_TEXT	ENDS
EXTRN	?Attach@CGdiObject@@QAEHPAX@Z:NEAR		; CGdiObject::Attach
EXTRN	?AfxFindResourceHandle@@YGPAUHINSTANCE__@@PBD0@Z:NEAR ; AfxFindResourceHandle
EXTRN	__imp__LoadBitmapA@8:NEAR
; Function compile flags: /Odt
;	COMDAT ?LoadBitmapA@CBitmap@@QAEHI@Z
_TEXT	SEGMENT
_this$ = -4						; size = 4
_nIDResource$ = 8					; size = 4
?LoadBitmapA@CBitmap@@QAEHI@Z PROC NEAR			; CBitmap::LoadBitmapA, COMDAT
; _this$ = ecx

; 212  : 	{ return Attach(::LoadBitmap(AfxFindResourceHandle(

  00000	55		 push	 ebp
  00001	8b ec		 mov	 ebp, esp
  00003	51		 push	 ecx
  00004	89 4d fc	 mov	 DWORD PTR _this$[ebp], ecx

; 213  : 		MAKEINTRESOURCE(nIDResource), RT_BITMAP), MAKEINTRESOURCE(nIDResource))); }

  00007	0f b7 45 08	 movzx	 eax, WORD PTR _nIDResource$[ebp]
  0000b	50		 push	 eax
  0000c	6a 02		 push	 2
  0000e	0f b7 4d 08	 movzx	 ecx, WORD PTR _nIDResource$[ebp]
  00012	51		 push	 ecx
  00013	e8 00 00 00 00	 call	 ?AfxFindResourceHandle@@YGPAUHINSTANCE__@@PBD0@Z ; AfxFindResourceHandle
  00018	50		 push	 eax
  00019	ff 15 00 00 00
	00		 call	 DWORD PTR __imp__LoadBitmapA@8
  0001f	50		 push	 eax
  00020	8b 4d fc	 mov	 ecx, DWORD PTR _this$[ebp]
  00023	e8 00 00 00 00	 call	 ?Attach@CGdiObject@@QAEHPAX@Z ; CGdiObject::Attach
  00028	8b e5		 mov	 esp, ebp
  0002a	5d		 pop	 ebp
  0002b	c2 04 00	 ret	 4
?LoadBitmapA@CBitmap@@QAEHI@Z ENDP			; CBitmap::LoadBitmapA
; Function compile flags: /Odt
_TEXT	ENDS
;	COMDAT ?GetSafeHdc@CDC@@QBEPAUHDC__@@XZ
_TEXT	SEGMENT
tv66 = -8						; size = 4
_this$ = -4						; size = 4
?GetSafeHdc@CDC@@QBEPAUHDC__@@XZ PROC NEAR		; CDC::GetSafeHdc, COMDAT
; _this$ = ecx

; 316  : 	{ return this == NULL ? NULL : m_hDC; }

  00000	55		 push	 ebp
  00001	8b ec		 mov	 ebp, esp
  00003	83 ec 08	 sub	 esp, 8
  00006	89 4d fc	 mov	 DWORD PTR _this$[ebp], ecx
  00009	83 7d fc 00	 cmp	 DWORD PTR _this$[ebp], 0
  0000d	75 09		 jne	 SHORT $L210588
  0000f	c7 45 f8 00 00
	00 00		 mov	 DWORD PTR tv66[ebp], 0
  00016	eb 09		 jmp	 SHORT $L210589
$L210588:
  00018	8b 45 fc	 mov	 eax, DWORD PTR _this$[ebp]
  0001b	8b 48 04	 mov	 ecx, DWORD PTR [eax+4]
  0001e	89 4d f8	 mov	 DWORD PTR tv66[ebp], ecx
$L210589:
  00021	8b 45 f8	 mov	 eax, DWORD PTR tv66[ebp]
  00024	8b e5		 mov	 esp, ebp
  00026	5d		 pop	 ebp
  00027	c3		 ret	 0
?GetSafeHdc@CDC@@QBEPAUHDC__@@XZ ENDP			; CDC::GetSafeHdc
_TEXT	ENDS
EXTRN	__imp__DrawIcon@16:NEAR
; Function compile flags: /Odt
;	COMDAT ?DrawIcon@CDC@@QAEHHHPAUHICON__@@@Z
_TEXT	SEGMENT
_this$ = -4						; size = 4
_x$ = 8							; size = 4
_y$ = 12						; size = 4
_hIcon$ = 16						; size = 4
?DrawIcon@CDC@@QAEHHHPAUHICON__@@@Z PROC NEAR		; CDC::DrawIcon, COMDAT
; _this$ = ecx

; 478  : 	{ ASSERT(m_hDC != NULL); return ::DrawIcon(m_hDC, x, y, hIcon); }

  00000	55		 push	 ebp
  00001	8b ec		 mov	 ebp, esp
  00003	51		 push	 ecx
  00004	89 4d fc	 mov	 DWORD PTR _this$[ebp], ecx
  00007	8b 45 10	 mov	 eax, DWORD PTR _hIcon$[ebp]
  0000a	50		 push	 eax
  0000b	8b 4d 0c	 mov	 ecx, DWORD PTR _y$[ebp]
  0000e	51		 push	 ecx
  0000f	8b 55 08	 mov	 edx, DWORD PTR _x$[ebp]
  00012	52		 push	 edx
  00013	8b 45 fc	 mov	 eax, DWORD PTR _this$[ebp]
  00016	8b 48 04	 mov	 ecx, DWORD PTR [eax+4]
  00019	51		 push	 ecx
  0001a	ff 15 00 00 00
	00		 call	 DWORD PTR __imp__DrawIcon@16
  00020	8b e5		 mov	 esp, ebp
  00022	5d		 pop	 ebp
  00023	c2 0c 00	 ret	 12			; 0000000cH
?DrawIcon@CDC@@QAEHHHPAUHICON__@@@Z ENDP		; CDC::DrawIcon
_TEXT	ENDS
EXTRN	__imp__PatBlt@24:NEAR
; Function compile flags: /Odt
;	COMDAT ?PatBlt@CDC@@QAEHHHHHK@Z
_TEXT	SEGMENT
_this$ = -4						; size = 4
_x$ = 8							; size = 4
_y$ = 12						; size = 4
_nWidth$ = 16						; size = 4
_nHeight$ = 20						; size = 4
_dwRop$ = 24						; size = 4
?PatBlt@CDC@@QAEHHHHHK@Z PROC NEAR			; CDC::PatBlt, COMDAT
; _this$ = ecx

; 545  : 	{ ASSERT(m_hDC != NULL); return ::PatBlt(m_hDC, x, y, nWidth, nHeight, dwRop); }

  00000	55		 push	 ebp
  00001	8b ec		 mov	 ebp, esp
  00003	51		 push	 ecx
  00004	89 4d fc	 mov	 DWORD PTR _this$[ebp], ecx
  00007	8b 45 18	 mov	 eax, DWORD PTR _dwRop$[ebp]
  0000a	50		 push	 eax
  0000b	8b 4d 14	 mov	 ecx, DWORD PTR _nHeight$[ebp]
  0000e	51		 push	 ecx
  0000f	8b 55 10	 mov	 edx, DWORD PTR _nWidth$[ebp]
  00012	52		 push	 edx
  00013	8b 45 0c	 mov	 eax, DWORD PTR _y$[ebp]
  00016	50		 push	 eax
  00017	8b 4d 08	 mov	 ecx, DWORD PTR _x$[ebp]
  0001a	51		 push	 ecx
  0001b	8b 55 fc	 mov	 edx, DWORD PTR _this$[ebp]
  0001e	8b 42 04	 mov	 eax, DWORD PTR [edx+4]
  00021	50		 push	 eax
  00022	ff 15 00 00 00
	00		 call	 DWORD PTR __imp__PatBlt@24
  00028	8b e5		 mov	 esp, ebp
  0002a	5d		 pop	 ebp
  0002b	c2 14 00	 ret	 20			; 00000014H
?PatBlt@CDC@@QAEHHHHHK@Z ENDP				; CDC::PatBlt
_TEXT	ENDS
EXTRN	__imp__EnableMenuItem@12:NEAR
; Function compile flags: /Odt
;	COMDAT ?EnableMenuItem@CMenu@@QAEIII@Z
_TEXT	SEGMENT
_this$ = -4						; size = 4
_nIDEnableItem$ = 8					; size = 4
_nEnable$ = 12						; size = 4
?EnableMenuItem@CMenu@@QAEIII@Z PROC NEAR		; CMenu::EnableMenuItem, COMDAT
; _this$ = ecx

; 855  : 	{ ASSERT(::IsMenu(m_hMenu)); return ::EnableMenuItem(m_hMenu, nIDEnableItem, nEnable); }

  00000	55		 push	 ebp
  00001	8b ec		 mov	 ebp, esp
  00003	51		 push	 ecx
  00004	89 4d fc	 mov	 DWORD PTR _this$[ebp], ecx
  00007	8b 45 0c	 mov	 eax, DWORD PTR _nEnable$[ebp]
  0000a	50		 push	 eax
  0000b	8b 4d 08	 mov	 ecx, DWORD PTR _nIDEnableItem$[ebp]
  0000e	51		 push	 ecx
  0000f	8b 55 fc	 mov	 edx, DWORD PTR _this$[ebp]
  00012	8b 42 04	 mov	 eax, DWORD PTR [edx+4]
  00015	50		 push	 eax
  00016	ff 15 00 00 00
	00		 call	 DWORD PTR __imp__EnableMenuItem@12
  0001c	8b e5		 mov	 esp, ebp
  0001e	5d		 pop	 ebp
  0001f	c2 08 00	 ret	 8
?EnableMenuItem@CMenu@@QAEIII@Z ENDP			; CMenu::EnableMenuItem
; Function compile flags: /Odt
; File d:\program files (x86)\microsoft visual studio .net 2003\vc7\atlmfc\include\afxwin2.inl
_TEXT	ENDS
;	COMDAT ?GetSafeHwnd@CWnd@@QBEPAUHWND__@@XZ
_TEXT	SEGMENT
tv66 = -8						; size = 4
_this$ = -4						; size = 4
?GetSafeHwnd@CWnd@@QBEPAUHWND__@@XZ PROC NEAR		; CWnd::GetSafeHwnd, COMDAT
; _this$ = ecx

; 27   : 	{ return this == NULL ? NULL : m_hWnd; }

  00000	55		 push	 ebp
  00001	8b ec		 mov	 ebp, esp
  00003	83 ec 08	 sub	 esp, 8
  00006	89 4d fc	 mov	 DWORD PTR _this$[ebp], ecx
  00009	83 7d fc 00	 cmp	 DWORD PTR _this$[ebp], 0
  0000d	75 09		 jne	 SHORT $L210598
  0000f	c7 45 f8 00 00
	00 00		 mov	 DWORD PTR tv66[ebp], 0
  00016	eb 09		 jmp	 SHORT $L210599
$L210598:
  00018	8b 45 fc	 mov	 eax, DWORD PTR _this$[ebp]
  0001b	8b 48 20	 mov	 ecx, DWORD PTR [eax+32]
  0001e	89 4d f8	 mov	 DWORD PTR tv66[ebp], ecx
$L210599:
  00021	8b 45 f8	 mov	 eax, DWORD PTR tv66[ebp]
  00024	8b e5		 mov	 esp, ebp
  00026	5d		 pop	 ebp
  00027	c3		 ret	 0
?GetSafeHwnd@CWnd@@QBEPAUHWND__@@XZ ENDP		; CWnd::GetSafeHwnd
; Function compile flags: /Odt
_TEXT	ENDS
;	COMDAT ?SendMessageA@CWnd@@QAEJIIJ@Z
_TEXT	SEGMENT
_this$ = -4						; size = 4
_message$ = 8						; size = 4
_wParam$ = 12						; size = 4
_lParam$ = 16						; size = 4
?SendMessageA@CWnd@@QAEJIIJ@Z PROC NEAR			; CWnd::SendMessageA, COMDAT
; _this$ = ecx

; 44   : 	{ ASSERT(::IsWindow(m_hWnd)); return ::SendMessage(m_hWnd, message, wParam, lParam); }

  00000	55		 push	 ebp
  00001	8b ec		 mov	 ebp, esp
  00003	51		 push	 ecx
  00004	89 4d fc	 mov	 DWORD PTR _this$[ebp], ecx
  00007	8b 45 10	 mov	 eax, DWORD PTR _lParam$[ebp]
  0000a	50		 push	 eax
  0000b	8b 4d 0c	 mov	 ecx, DWORD PTR _wParam$[ebp]
  0000e	51		 push	 ecx
  0000f	8b 55 08	 mov	 edx, DWORD PTR _message$[ebp]
  00012	52		 push	 edx
  00013	8b 45 fc	 mov	 eax, DWORD PTR _this$[ebp]
  00016	8b 48 20	 mov	 ecx, DWORD PTR [eax+32]
  00019	51		 push	 ecx
  0001a	ff 15 00 00 00
	00		 call	 DWORD PTR __imp__SendMessageA@16
  00020	8b e5		 mov	 esp, ebp
  00022	5d		 pop	 ebp
  00023	c2 0c 00	 ret	 12			; 0000000cH
?SendMessageA@CWnd@@QAEJIIJ@Z ENDP			; CWnd::SendMessageA
; Function compile flags: /Odt
_TEXT	ENDS
;	COMDAT ?PostMessageA@CWnd@@QAEHIIJ@Z
_TEXT	SEGMENT
_this$ = -4						; size = 4
_message$ = 8						; size = 4
_wParam$ = 12						; size = 4
_lParam$ = 16						; size = 4
?PostMessageA@CWnd@@QAEHIIJ@Z PROC NEAR			; CWnd::PostMessageA, COMDAT
; _this$ = ecx

; 46   : 	{ ASSERT(::IsWindow(m_hWnd)); return ::PostMessage(m_hWnd, message, wParam, lParam); }

  00000	55		 push	 ebp
  00001	8b ec		 mov	 ebp, esp
  00003	51		 push	 ecx
  00004	89 4d fc	 mov	 DWORD PTR _this$[ebp], ecx
  00007	8b 45 10	 mov	 eax, DWORD PTR _lParam$[ebp]
  0000a	50		 push	 eax
  0000b	8b 4d 0c	 mov	 ecx, DWORD PTR _wParam$[ebp]
  0000e	51		 push	 ecx
  0000f	8b 55 08	 mov	 edx, DWORD PTR _message$[ebp]
  00012	52		 push	 edx
  00013	8b 45 fc	 mov	 eax, DWORD PTR _this$[ebp]
  00016	8b 48 20	 mov	 ecx, DWORD PTR [eax+32]
  00019	51		 push	 ecx
  0001a	ff 15 00 00 00
	00		 call	 DWORD PTR __imp__PostMessageA@16
  00020	8b e5		 mov	 esp, ebp
  00022	5d		 pop	 ebp
  00023	c2 0c 00	 ret	 12			; 0000000cH
?PostMessageA@CWnd@@QAEHIIJ@Z ENDP			; CWnd::PostMessageA
_TEXT	ENDS
EXTRN	?FromHandle@CMenu@@SGPAV1@PAUHMENU__@@@Z:NEAR	; CMenu::FromHandle
EXTRN	__imp__GetSystemMenu@8:NEAR
; Function compile flags: /Odt
;	COMDAT ?GetSystemMenu@CWnd@@QBEPAVCMenu@@H@Z
_TEXT	SEGMENT
_this$ = -4						; size = 4
_bRevert$ = 8						; size = 4
?GetSystemMenu@CWnd@@QBEPAVCMenu@@H@Z PROC NEAR		; CWnd::GetSystemMenu, COMDAT
; _this$ = ecx

; 71   : 	{ ASSERT(::IsWindow(m_hWnd)); return CMenu::FromHandle(::GetSystemMenu(m_hWnd, bRevert)); }

  00000	55		 push	 ebp
  00001	8b ec		 mov	 ebp, esp
  00003	51		 push	 ecx
  00004	89 4d fc	 mov	 DWORD PTR _this$[ebp], ecx
  00007	8b 45 08	 mov	 eax, DWORD PTR _bRevert$[ebp]
  0000a	50		 push	 eax
  0000b	8b 4d fc	 mov	 ecx, DWORD PTR _this$[ebp]
  0000e	8b 51 20	 mov	 edx, DWORD PTR [ecx+32]
  00011	52		 push	 edx
  00012	ff 15 00 00 00
	00		 call	 DWORD PTR __imp__GetSystemMenu@8
  00018	50		 push	 eax
  00019	e8 00 00 00 00	 call	 ?FromHandle@CMenu@@SGPAV1@PAUHMENU__@@@Z ; CMenu::FromHandle
  0001e	8b e5		 mov	 esp, ebp
  00020	5d		 pop	 ebp
  00021	c2 04 00	 ret	 4
?GetSystemMenu@CWnd@@QBEPAVCMenu@@H@Z ENDP		; CWnd::GetSystemMenu
_TEXT	ENDS
EXTRN	__imp__IsIconic@4:NEAR
; Function compile flags: /Odt
;	COMDAT ?IsIconic@CWnd@@QBEHXZ
_TEXT	SEGMENT
_this$ = -4						; size = 4
?IsIconic@CWnd@@QBEHXZ PROC NEAR			; CWnd::IsIconic, COMDAT
; _this$ = ecx

; 81   : 	{ ASSERT(::IsWindow(m_hWnd)); return ::IsIconic(m_hWnd); }

  00000	55		 push	 ebp
  00001	8b ec		 mov	 ebp, esp
  00003	51		 push	 ecx
  00004	89 4d fc	 mov	 DWORD PTR _this$[ebp], ecx
  00007	8b 45 fc	 mov	 eax, DWORD PTR _this$[ebp]
  0000a	8b 48 20	 mov	 ecx, DWORD PTR [eax+32]
  0000d	51		 push	 ecx
  0000e	ff 15 00 00 00
	00		 call	 DWORD PTR __imp__IsIconic@4
  00014	8b e5		 mov	 esp, ebp
  00016	5d		 pop	 ebp
  00017	c3		 ret	 0
?IsIconic@CWnd@@QBEHXZ ENDP				; CWnd::IsIconic
_TEXT	ENDS
EXTRN	?MoveWindow@CWnd@@QAEXHHHHH@Z:NEAR		; CWnd::MoveWindow
; Function compile flags: /Odt
;	COMDAT ?MoveWindow@CWnd@@QAEXPBUtagRECT@@H@Z
_TEXT	SEGMENT
_this$ = -4						; size = 4
_lpRect$ = 8						; size = 4
_bRepaint$ = 12						; size = 4
?MoveWindow@CWnd@@QAEXPBUtagRECT@@H@Z PROC NEAR		; CWnd::MoveWindow, COMDAT
; _this$ = ecx

; 89   : 	{ MoveWindow(lpRect->left, lpRect->top, lpRect->right - lpRect->left,

  00000	55		 push	 ebp
  00001	8b ec		 mov	 ebp, esp
  00003	51		 push	 ecx
  00004	89 4d fc	 mov	 DWORD PTR _this$[ebp], ecx

; 90   : 		lpRect->bottom - lpRect->top, bRepaint); }

  00007	8b 45 0c	 mov	 eax, DWORD PTR _bRepaint$[ebp]
  0000a	50		 push	 eax
  0000b	8b 4d 08	 mov	 ecx, DWORD PTR _lpRect$[ebp]
  0000e	8b 55 08	 mov	 edx, DWORD PTR _lpRect$[ebp]
  00011	8b 41 0c	 mov	 eax, DWORD PTR [ecx+12]
  00014	2b 42 04	 sub	 eax, DWORD PTR [edx+4]
  00017	50		 push	 eax
  00018	8b 4d 08	 mov	 ecx, DWORD PTR _lpRect$[ebp]
  0001b	8b 55 08	 mov	 edx, DWORD PTR _lpRect$[ebp]
  0001e	8b 41 08	 mov	 eax, DWORD PTR [ecx+8]
  00021	2b 02		 sub	 eax, DWORD PTR [edx]
  00023	50		 push	 eax
  00024	8b 4d 08	 mov	 ecx, DWORD PTR _lpRect$[ebp]
  00027	8b 51 04	 mov	 edx, DWORD PTR [ecx+4]
  0002a	52		 push	 edx
  0002b	8b 45 08	 mov	 eax, DWORD PTR _lpRect$[ebp]
  0002e	8b 08		 mov	 ecx, DWORD PTR [eax]
  00030	51		 push	 ecx
  00031	8b 4d fc	 mov	 ecx, DWORD PTR _this$[ebp]
  00034	e8 00 00 00 00	 call	 ?MoveWindow@CWnd@@QAEXHHHHH@Z ; CWnd::MoveWindow
  00039	8b e5		 mov	 esp, ebp
  0003b	5d		 pop	 ebp
  0003c	c2 08 00	 ret	 8
?MoveWindow@CWnd@@QAEXPBUtagRECT@@H@Z ENDP		; CWnd::MoveWindow
_TEXT	ENDS
EXTRN	__imp__GetWindowRect@8:NEAR
; Function compile flags: /Odt
;	COMDAT ?GetWindowRect@CWnd@@QBEXPAUtagRECT@@@Z
_TEXT	SEGMENT
_this$ = -4						; size = 4
_lpRect$ = 8						; size = 4
?GetWindowRect@CWnd@@QBEXPAUtagRECT@@@Z PROC NEAR	; CWnd::GetWindowRect, COMDAT
; _this$ = ecx

; 105  : 	{ ASSERT(::IsWindow(m_hWnd)); ::GetWindowRect(m_hWnd, lpRect); }

  00000	55		 push	 ebp
  00001	8b ec		 mov	 ebp, esp
  00003	51		 push	 ecx
  00004	89 4d fc	 mov	 DWORD PTR _this$[ebp], ecx
  00007	8b 45 08	 mov	 eax, DWORD PTR _lpRect$[ebp]
  0000a	50		 push	 eax
  0000b	8b 4d fc	 mov	 ecx, DWORD PTR _this$[ebp]
  0000e	8b 51 20	 mov	 edx, DWORD PTR [ecx+32]
  00011	52		 push	 edx
  00012	ff 15 00 00 00
	00		 call	 DWORD PTR __imp__GetWindowRect@8
  00018	8b e5		 mov	 esp, ebp
  0001a	5d		 pop	 ebp
  0001b	c2 04 00	 ret	 4
?GetWindowRect@CWnd@@QBEXPAUtagRECT@@@Z ENDP		; CWnd::GetWindowRect
_TEXT	ENDS
EXTRN	__imp__GetClientRect@8:NEAR
; Function compile flags: /Odt
;	COMDAT ?GetClientRect@CWnd@@QBEXPAUtagRECT@@@Z
_TEXT	SEGMENT
_this$ = -4						; size = 4
_lpRect$ = 8						; size = 4
?GetClientRect@CWnd@@QBEXPAUtagRECT@@@Z PROC NEAR	; CWnd::GetClientRect, COMDAT
; _this$ = ecx

; 107  : 	{ ASSERT(::IsWindow(m_hWnd)); ::GetClientRect(m_hWnd, lpRect); }

  00000	55		 push	 ebp
  00001	8b ec		 mov	 ebp, esp
  00003	51		 push	 ecx
  00004	89 4d fc	 mov	 DWORD PTR _this$[ebp], ecx
  00007	8b 45 08	 mov	 eax, DWORD PTR _lpRect$[ebp]
  0000a	50		 push	 eax
  0000b	8b 4d fc	 mov	 ecx, DWORD PTR _this$[ebp]
  0000e	8b 51 20	 mov	 edx, DWORD PTR [ecx+32]
  00011	52		 push	 edx
  00012	ff 15 00 00 00
	00		 call	 DWORD PTR __imp__GetClientRect@8
  00018	8b e5		 mov	 esp, ebp
  0001a	5d		 pop	 ebp
  0001b	c2 04 00	 ret	 4
?GetClientRect@CWnd@@QBEXPAUtagRECT@@@Z ENDP		; CWnd::GetClientRect
_TEXT	ENDS
EXTRN	__imp__ClientToScreen@8:NEAR
; Function compile flags: /Odt
;	COMDAT ?ClientToScreen@CWnd@@QBEXPAUtagPOINT@@@Z
_TEXT	SEGMENT
_this$ = -4						; size = 4
_lpPoint$ = 8						; size = 4
?ClientToScreen@CWnd@@QBEXPAUtagPOINT@@@Z PROC NEAR	; CWnd::ClientToScreen, COMDAT
; _this$ = ecx

; 113  : 	{ ASSERT(::IsWindow(m_hWnd)); ::ClientToScreen(m_hWnd, lpPoint); }

  00000	55		 push	 ebp
  00001	8b ec		 mov	 ebp, esp
  00003	51		 push	 ecx
  00004	89 4d fc	 mov	 DWORD PTR _this$[ebp], ecx
  00007	8b 45 08	 mov	 eax, DWORD PTR _lpPoint$[ebp]
  0000a	50		 push	 eax
  0000b	8b 4d fc	 mov	 ecx, DWORD PTR _this$[ebp]
  0000e	8b 51 20	 mov	 edx, DWORD PTR [ecx+32]
  00011	52		 push	 edx
  00012	ff 15 00 00 00
	00		 call	 DWORD PTR __imp__ClientToScreen@8
  00018	8b e5		 mov	 esp, ebp
  0001a	5d		 pop	 ebp
  0001b	c2 04 00	 ret	 4
?ClientToScreen@CWnd@@QBEXPAUtagPOINT@@@Z ENDP		; CWnd::ClientToScreen
_TEXT	ENDS
EXTRN	?FromHandle@CDC@@SGPAV1@PAUHDC__@@@Z:NEAR	; CDC::FromHandle
EXTRN	__imp__GetDC@4:NEAR
; Function compile flags: /Odt
;	COMDAT ?GetDC@CWnd@@QAEPAVCDC@@XZ
_TEXT	SEGMENT
_this$ = -4						; size = 4
?GetDC@CWnd@@QAEPAVCDC@@XZ PROC NEAR			; CWnd::GetDC, COMDAT
; _this$ = ecx

; 121  : 	{ ASSERT(::IsWindow(m_hWnd)); return CDC::FromHandle(::GetDC(m_hWnd)); }

  00000	55		 push	 ebp
  00001	8b ec		 mov	 ebp, esp
  00003	51		 push	 ecx
  00004	89 4d fc	 mov	 DWORD PTR _this$[ebp], ecx
  00007	8b 45 fc	 mov	 eax, DWORD PTR _this$[ebp]
  0000a	8b 48 20	 mov	 ecx, DWORD PTR [eax+32]
  0000d	51		 push	 ecx
  0000e	ff 15 00 00 00
	00		 call	 DWORD PTR __imp__GetDC@4
  00014	50		 push	 eax
  00015	e8 00 00 00 00	 call	 ?FromHandle@CDC@@SGPAV1@PAUHDC__@@@Z ; CDC::FromHandle
  0001a	8b e5		 mov	 esp, ebp
  0001c	5d		 pop	 ebp
  0001d	c3		 ret	 0
?GetDC@CWnd@@QAEPAVCDC@@XZ ENDP				; CWnd::GetDC
_TEXT	ENDS
EXTRN	__imp__ReleaseDC@8:NEAR
; Function compile flags: /Odt
;	COMDAT ?ReleaseDC@CWnd@@QAEHPAVCDC@@@Z
_TEXT	SEGMENT
_this$ = -4						; size = 4
_pDC$ = 8						; size = 4
?ReleaseDC@CWnd@@QAEHPAVCDC@@@Z PROC NEAR		; CWnd::ReleaseDC, COMDAT
; _this$ = ecx

; 125  : 	{ ASSERT(::IsWindow(m_hWnd)); return ::ReleaseDC(m_hWnd, pDC->m_hDC); }

  00000	55		 push	 ebp
  00001	8b ec		 mov	 ebp, esp
  00003	51		 push	 ecx
  00004	89 4d fc	 mov	 DWORD PTR _this$[ebp], ecx
  00007	8b 45 08	 mov	 eax, DWORD PTR _pDC$[ebp]
  0000a	8b 48 04	 mov	 ecx, DWORD PTR [eax+4]
  0000d	51		 push	 ecx
  0000e	8b 55 fc	 mov	 edx, DWORD PTR _this$[ebp]
  00011	8b 42 20	 mov	 eax, DWORD PTR [edx+32]
  00014	50		 push	 eax
  00015	ff 15 00 00 00
	00		 call	 DWORD PTR __imp__ReleaseDC@8
  0001b	8b e5		 mov	 esp, ebp
  0001d	5d		 pop	 ebp
  0001e	c2 04 00	 ret	 4
?ReleaseDC@CWnd@@QAEHPAVCDC@@@Z ENDP			; CWnd::ReleaseDC
_TEXT	ENDS
EXTRN	__imp__IsWindowVisible@4:NEAR
; Function compile flags: /Odt
;	COMDAT ?IsWindowVisible@CWnd@@QBEHXZ
_TEXT	SEGMENT
_this$ = -4						; size = 4
?IsWindowVisible@CWnd@@QBEHXZ PROC NEAR			; CWnd::IsWindowVisible, COMDAT
; _this$ = ecx

; 149  : 	{ ASSERT(::IsWindow(m_hWnd)); return ::IsWindowVisible(m_hWnd); }

  00000	55		 push	 ebp
  00001	8b ec		 mov	 ebp, esp
  00003	51		 push	 ecx
  00004	89 4d fc	 mov	 DWORD PTR _this$[ebp], ecx
  00007	8b 45 fc	 mov	 eax, DWORD PTR _this$[ebp]
  0000a	8b 48 20	 mov	 ecx, DWORD PTR [eax+32]
  0000d	51		 push	 ecx
  0000e	ff 15 00 00 00
	00		 call	 DWORD PTR __imp__IsWindowVisible@4
  00014	8b e5		 mov	 esp, ebp
  00016	5d		 pop	 ebp
  00017	c3		 ret	 0
?IsWindowVisible@CWnd@@QBEHXZ ENDP			; CWnd::IsWindowVisible
_TEXT	ENDS
PUBLIC	?GetSafeHandle@CGdiObject@@QBEPAXXZ		; CGdiObject::GetSafeHandle
EXTRN	__imp__RedrawWindow@16:NEAR
; Function compile flags: /Odt
;	COMDAT ?RedrawWindow@CWnd@@QAEHPBUtagRECT@@PAVCRgn@@I@Z
_TEXT	SEGMENT
_this$ = -4						; size = 4
_lpRectUpdate$ = 8					; size = 4
_prgnUpdate$ = 12					; size = 4
_flags$ = 16						; size = 4
?RedrawWindow@CWnd@@QAEHPBUtagRECT@@PAVCRgn@@I@Z PROC NEAR ; CWnd::RedrawWindow, COMDAT
; _this$ = ecx

; 172  : 	{ ASSERT(::IsWindow(m_hWnd)); return ::RedrawWindow(m_hWnd, lpRectUpdate, (HRGN)prgnUpdate->GetSafeHandle(), flags); }

  00000	55		 push	 ebp
  00001	8b ec		 mov	 ebp, esp
  00003	51		 push	 ecx
  00004	89 4d fc	 mov	 DWORD PTR _this$[ebp], ecx
  00007	8b 45 10	 mov	 eax, DWORD PTR _flags$[ebp]
  0000a	50		 push	 eax
  0000b	8b 4d 0c	 mov	 ecx, DWORD PTR _prgnUpdate$[ebp]
  0000e	e8 00 00 00 00	 call	 ?GetSafeHandle@CGdiObject@@QBEPAXXZ ; CGdiObject::GetSafeHandle
  00013	50		 push	 eax
  00014	8b 4d 08	 mov	 ecx, DWORD PTR _lpRectUpdate$[ebp]
  00017	51		 push	 ecx
  00018	8b 55 fc	 mov	 edx, DWORD PTR _this$[ebp]
  0001b	8b 42 20	 mov	 eax, DWORD PTR [edx+32]
  0001e	50		 push	 eax
  0001f	ff 15 00 00 00
	00		 call	 DWORD PTR __imp__RedrawWindow@16
  00025	8b e5		 mov	 esp, ebp
  00027	5d		 pop	 ebp
  00028	c2 0c 00	 ret	 12			; 0000000cH
?RedrawWindow@CWnd@@QAEHPBUtagRECT@@PAVCRgn@@I@Z ENDP	; CWnd::RedrawWindow
; Function compile flags: /Odt
; File d:\program files (x86)\microsoft visual studio .net 2003\vc7\atlmfc\include\afxwin1.inl
_TEXT	ENDS
;	COMDAT ?GetSafeHandle@CGdiObject@@QBEPAXXZ
_TEXT	SEGMENT
tv66 = -8						; size = 4
_this$ = -4						; size = 4
?GetSafeHandle@CGdiObject@@QBEPAXXZ PROC NEAR		; CGdiObject::GetSafeHandle, COMDAT
; _this$ = ecx

; 80   : 	{ return this == NULL ? NULL : m_hObject; }

  00000	55		 push	 ebp
  00001	8b ec		 mov	 ebp, esp
  00003	83 ec 08	 sub	 esp, 8
  00006	89 4d fc	 mov	 DWORD PTR _this$[ebp], ecx
  00009	83 7d fc 00	 cmp	 DWORD PTR _this$[ebp], 0
  0000d	75 09		 jne	 SHORT $L210626
  0000f	c7 45 f8 00 00
	00 00		 mov	 DWORD PTR tv66[ebp], 0
  00016	eb 09		 jmp	 SHORT $L210627
$L210626:
  00018	8b 45 fc	 mov	 eax, DWORD PTR _this$[ebp]
  0001b	8b 48 04	 mov	 ecx, DWORD PTR [eax+4]
  0001e	89 4d f8	 mov	 DWORD PTR tv66[ebp], ecx
$L210627:
  00021	8b 45 f8	 mov	 eax, DWORD PTR tv66[ebp]
  00024	8b e5		 mov	 esp, ebp
  00026	5d		 pop	 ebp
  00027	c3		 ret	 0
?GetSafeHandle@CGdiObject@@QBEPAXXZ ENDP		; CGdiObject::GetSafeHandle
_TEXT	ENDS
EXTRN	__imp__KillTimer@8:NEAR
; Function compile flags: /Odt
; File d:\program files (x86)\microsoft visual studio .net 2003\vc7\atlmfc\include\afxwin2.inl
;	COMDAT ?KillTimer@CWnd@@QAEHI@Z
_TEXT	SEGMENT
_this$ = -4						; size = 4
_nIDEvent$ = 8						; size = 4
?KillTimer@CWnd@@QAEHI@Z PROC NEAR			; CWnd::KillTimer, COMDAT
; _this$ = ecx

; 185  : 	{ ASSERT(::IsWindow(m_hWnd)); return ::KillTimer(m_hWnd, nIDEvent); }

  00000	55		 push	 ebp
  00001	8b ec		 mov	 ebp, esp
  00003	51		 push	 ecx
  00004	89 4d fc	 mov	 DWORD PTR _this$[ebp], ecx
  00007	8b 45 08	 mov	 eax, DWORD PTR _nIDEvent$[ebp]
  0000a	50		 push	 eax
  0000b	8b 4d fc	 mov	 ecx, DWORD PTR _this$[ebp]
  0000e	8b 51 20	 mov	 edx, DWORD PTR [ecx+32]
  00011	52		 push	 edx
  00012	ff 15 00 00 00
	00		 call	 DWORD PTR __imp__KillTimer@8
  00018	8b e5		 mov	 esp, ebp
  0001a	5d		 pop	 ebp
  0001b	c2 04 00	 ret	 4
?KillTimer@CWnd@@QAEHI@Z ENDP				; CWnd::KillTimer
_TEXT	ENDS
EXTRN	?FromHandle@CWnd@@SGPAV1@PAUHWND__@@@Z:NEAR	; CWnd::FromHandle
EXTRN	__imp__GetCapture@0:NEAR
; Function compile flags: /Odt
;	COMDAT ?GetCapture@CWnd@@SGPAV1@XZ
_TEXT	SEGMENT
?GetCapture@CWnd@@SGPAV1@XZ PROC NEAR			; CWnd::GetCapture, COMDAT

; 197  : 	{ return CWnd::FromHandle(::GetCapture()); }

  00000	55		 push	 ebp
  00001	8b ec		 mov	 ebp, esp
  00003	ff 15 00 00 00
	00		 call	 DWORD PTR __imp__GetCapture@0
  00009	50		 push	 eax
  0000a	e8 00 00 00 00	 call	 ?FromHandle@CWnd@@SGPAV1@PAUHWND__@@@Z ; CWnd::FromHandle
  0000f	5d		 pop	 ebp
  00010	c3		 ret	 0
?GetCapture@CWnd@@SGPAV1@XZ ENDP			; CWnd::GetCapture
_TEXT	ENDS
EXTRN	__imp__SetCapture@4:NEAR
; Function compile flags: /Odt
;	COMDAT ?SetCapture@CWnd@@QAEPAV1@XZ
_TEXT	SEGMENT
_this$ = -4						; size = 4
?SetCapture@CWnd@@QAEPAV1@XZ PROC NEAR			; CWnd::SetCapture, COMDAT
; _this$ = ecx

; 199  : 	{ ASSERT(::IsWindow(m_hWnd)); return CWnd::FromHandle(::SetCapture(m_hWnd)); }

  00000	55		 push	 ebp
  00001	8b ec		 mov	 ebp, esp
  00003	51		 push	 ecx
  00004	89 4d fc	 mov	 DWORD PTR _this$[ebp], ecx
  00007	8b 45 fc	 mov	 eax, DWORD PTR _this$[ebp]
  0000a	8b 48 20	 mov	 ecx, DWORD PTR [eax+32]
  0000d	51		 push	 ecx
  0000e	ff 15 00 00 00
	00		 call	 DWORD PTR __imp__SetCapture@4
  00014	50		 push	 eax
  00015	e8 00 00 00 00	 call	 ?FromHandle@CWnd@@SGPAV1@PAUHWND__@@@Z ; CWnd::FromHandle
  0001a	8b e5		 mov	 esp, ebp
  0001c	5d		 pop	 ebp
  0001d	c3		 ret	 0
?SetCapture@CWnd@@QAEPAV1@XZ ENDP			; CWnd::SetCapture
_TEXT	ENDS
EXTRN	__imp__GetParent@4:NEAR
; Function compile flags: /Odt
;	COMDAT ?GetParent@CWnd@@QBEPAV1@XZ
_TEXT	SEGMENT
_this$ = -4						; size = 4
?GetParent@CWnd@@QBEPAV1@XZ PROC NEAR			; CWnd::GetParent, COMDAT
; _this$ = ecx

; 282  : 	{ ASSERT(::IsWindow(m_hWnd)); return CWnd::FromHandle(::GetParent(m_hWnd)); }

  00000	55		 push	 ebp
  00001	8b ec		 mov	 ebp, esp
  00003	51		 push	 ecx
  00004	89 4d fc	 mov	 DWORD PTR _this$[ebp], ecx
  00007	8b 45 fc	 mov	 eax, DWORD PTR _this$[ebp]
  0000a	8b 48 20	 mov	 ecx, DWORD PTR [eax+32]
  0000d	51		 push	 ecx
  0000e	ff 15 00 00 00
	00		 call	 DWORD PTR __imp__GetParent@4
  00014	50		 push	 eax
  00015	e8 00 00 00 00	 call	 ?FromHandle@CWnd@@SGPAV1@PAUHWND__@@@Z ; CWnd::FromHandle
  0001a	8b e5		 mov	 esp, ebp
  0001c	5d		 pop	 ebp
  0001d	c3		 ret	 0
?GetParent@CWnd@@QBEPAV1@XZ ENDP			; CWnd::GetParent
; Function compile flags: /Odt
_TEXT	ENDS
;	COMDAT ?SetIcon@CWnd@@QAEPAUHICON__@@PAU2@H@Z
_TEXT	SEGMENT
_this$ = -4						; size = 4
_hIcon$ = 8						; size = 4
_bBigIcon$ = 12						; size = 4
?SetIcon@CWnd@@QAEPAUHICON__@@PAU2@H@Z PROC NEAR	; CWnd::SetIcon, COMDAT
; _this$ = ecx

; 326  : 	{ ASSERT(::IsWindow(m_hWnd)); return (HICON)::SendMessage(m_hWnd, WM_SETICON, bBigIcon, (LPARAM)hIcon); }

  00000	55		 push	 ebp
  00001	8b ec		 mov	 ebp, esp
  00003	51		 push	 ecx
  00004	89 4d fc	 mov	 DWORD PTR _this$[ebp], ecx
  00007	8b 45 08	 mov	 eax, DWORD PTR _hIcon$[ebp]
  0000a	50		 push	 eax
  0000b	8b 4d 0c	 mov	 ecx, DWORD PTR _bBigIcon$[ebp]
  0000e	51		 push	 ecx
  0000f	68 80 00 00 00	 push	 128			; 00000080H
  00014	8b 55 fc	 mov	 edx, DWORD PTR _this$[ebp]
  00017	8b 42 20	 mov	 eax, DWORD PTR [edx+32]
  0001a	50		 push	 eax
  0001b	ff 15 00 00 00
	00		 call	 DWORD PTR __imp__SendMessageA@16
  00021	8b e5		 mov	 esp, ebp
  00023	5d		 pop	 ebp
  00024	c2 08 00	 ret	 8
?SetIcon@CWnd@@QAEPAUHICON__@@PAU2@H@Z ENDP		; CWnd::SetIcon
_TEXT	ENDS
EXTRN	?Default@CWnd@@IAEJXZ:NEAR			; CWnd::Default
; Function compile flags: /Odt
;	COMDAT ?OnClose@CWnd@@IAEXXZ
_TEXT	SEGMENT
_this$ = -4						; size = 4
?OnClose@CWnd@@IAEXXZ PROC NEAR				; CWnd::OnClose, COMDAT
; _this$ = ecx

; 354  : 	{ Default(); }

  00000	55		 push	 ebp
  00001	8b ec		 mov	 ebp, esp
  00003	51		 push	 ecx
  00004	89 4d fc	 mov	 DWORD PTR _this$[ebp], ecx
  00007	8b 4d fc	 mov	 ecx, DWORD PTR _this$[ebp]
  0000a	e8 00 00 00 00	 call	 ?Default@CWnd@@IAEJXZ	; CWnd::Default
  0000f	8b e5		 mov	 esp, ebp
  00011	5d		 pop	 ebp
  00012	c3		 ret	 0
?OnClose@CWnd@@IAEXXZ ENDP				; CWnd::OnClose
; Function compile flags: /Odt
_TEXT	ENDS
;	COMDAT ?OnGetMinMaxInfo@CWnd@@IAEXPAUtagMINMAXINFO@@@Z
_TEXT	SEGMENT
_this$ = -4						; size = 4
___formal$ = 8						; size = 4
?OnGetMinMaxInfo@CWnd@@IAEXPAUtagMINMAXINFO@@@Z PROC NEAR ; CWnd::OnGetMinMaxInfo, COMDAT
; _this$ = ecx

; 368  : 	{ Default(); }

  00000	55		 push	 ebp
  00001	8b ec		 mov	 ebp, esp
  00003	51		 push	 ecx
  00004	89 4d fc	 mov	 DWORD PTR _this$[ebp], ecx
  00007	8b 4d fc	 mov	 ecx, DWORD PTR _this$[ebp]
  0000a	e8 00 00 00 00	 call	 ?Default@CWnd@@IAEJXZ	; CWnd::Default
  0000f	8b e5		 mov	 esp, ebp
  00011	5d		 pop	 ebp
  00012	c2 04 00	 ret	 4
?OnGetMinMaxInfo@CWnd@@IAEXPAUtagMINMAXINFO@@@Z ENDP	; CWnd::OnGetMinMaxInfo
; Function compile flags: /Odt
_TEXT	ENDS
;	COMDAT ?OnMove@CWnd@@IAEXHH@Z
_TEXT	SEGMENT
_this$ = -4						; size = 4
___formal$ = 8						; size = 4
___formal$ = 12						; size = 4
?OnMove@CWnd@@IAEXHH@Z PROC NEAR			; CWnd::OnMove, COMDAT
; _this$ = ecx

; 378  : 	{ Default(); }

  00000	55		 push	 ebp
  00001	8b ec		 mov	 ebp, esp
  00003	51		 push	 ecx
  00004	89 4d fc	 mov	 DWORD PTR _this$[ebp], ecx
  00007	8b 4d fc	 mov	 ecx, DWORD PTR _this$[ebp]
  0000a	e8 00 00 00 00	 call	 ?Default@CWnd@@IAEJXZ	; CWnd::Default
  0000f	8b e5		 mov	 esp, ebp
  00011	5d		 pop	 ebp
  00012	c2 08 00	 ret	 8
?OnMove@CWnd@@IAEXHH@Z ENDP				; CWnd::OnMove
; Function compile flags: /Odt
_TEXT	ENDS
;	COMDAT ?OnQueryEndSession@CWnd@@IAEHXZ
_TEXT	SEGMENT
_this$ = -4						; size = 4
?OnQueryEndSession@CWnd@@IAEHXZ PROC NEAR		; CWnd::OnQueryEndSession, COMDAT
; _this$ = ecx

; 382  : 	{ return (BOOL)Default(); }

  00000	55		 push	 ebp
  00001	8b ec		 mov	 ebp, esp
  00003	51		 push	 ecx
  00004	89 4d fc	 mov	 DWORD PTR _this$[ebp], ecx
  00007	8b 4d fc	 mov	 ecx, DWORD PTR _this$[ebp]
  0000a	e8 00 00 00 00	 call	 ?Default@CWnd@@IAEJXZ	; CWnd::Default
  0000f	8b e5		 mov	 esp, ebp
  00011	5d		 pop	 ebp
  00012	c3		 ret	 0
?OnQueryEndSession@CWnd@@IAEHXZ ENDP			; CWnd::OnQueryEndSession
; Function compile flags: /Odt
_TEXT	ENDS
;	COMDAT ?OnShowWindow@CWnd@@IAEXHI@Z
_TEXT	SEGMENT
_this$ = -4						; size = 4
___formal$ = 8						; size = 4
___formal$ = 12						; size = 4
?OnShowWindow@CWnd@@IAEXHI@Z PROC NEAR			; CWnd::OnShowWindow, COMDAT
; _this$ = ecx

; 390  : 	{ Default(); }

  00000	55		 push	 ebp
  00001	8b ec		 mov	 ebp, esp
  00003	51		 push	 ecx
  00004	89 4d fc	 mov	 DWORD PTR _this$[ebp], ecx
  00007	8b 4d fc	 mov	 ecx, DWORD PTR _this$[ebp]
  0000a	e8 00 00 00 00	 call	 ?Default@CWnd@@IAEJXZ	; CWnd::Default
  0000f	8b e5		 mov	 esp, ebp
  00011	5d		 pop	 ebp
  00012	c2 08 00	 ret	 8
?OnShowWindow@CWnd@@IAEXHI@Z ENDP			; CWnd::OnShowWindow
; Function compile flags: /Odt
_TEXT	ENDS
;	COMDAT ?OnSize@CWnd@@IAEXIHH@Z
_TEXT	SEGMENT
_this$ = -4						; size = 4
___formal$ = 8						; size = 4
___formal$ = 12						; size = 4
___formal$ = 16						; size = 4
?OnSize@CWnd@@IAEXIHH@Z PROC NEAR			; CWnd::OnSize, COMDAT
; _this$ = ecx

; 392  : 	{ Default(); }

  00000	55		 push	 ebp
  00001	8b ec		 mov	 ebp, esp
  00003	51		 push	 ecx
  00004	89 4d fc	 mov	 DWORD PTR _this$[ebp], ecx
  00007	8b 4d fc	 mov	 ecx, DWORD PTR _this$[ebp]
  0000a	e8 00 00 00 00	 call	 ?Default@CWnd@@IAEJXZ	; CWnd::Default
  0000f	8b e5		 mov	 esp, ebp
  00011	5d		 pop	 ebp
  00012	c2 0c 00	 ret	 12			; 0000000cH
?OnSize@CWnd@@IAEXIHH@Z ENDP				; CWnd::OnSize
; Function compile flags: /Odt
_TEXT	ENDS
;	COMDAT ?OnSysCommand@CWnd@@IAEXIJ@Z
_TEXT	SEGMENT
_this$ = -4						; size = 4
___formal$ = 8						; size = 4
___formal$ = 12						; size = 4
?OnSysCommand@CWnd@@IAEXIJ@Z PROC NEAR			; CWnd::OnSysCommand, COMDAT
; _this$ = ecx

; 436  : 	{ Default(); }

  00000	55		 push	 ebp
  00001	8b ec		 mov	 ebp, esp
  00003	51		 push	 ecx
  00004	89 4d fc	 mov	 DWORD PTR _this$[ebp], ecx
  00007	8b 4d fc	 mov	 ecx, DWORD PTR _this$[ebp]
  0000a	e8 00 00 00 00	 call	 ?Default@CWnd@@IAEJXZ	; CWnd::Default
  0000f	8b e5		 mov	 esp, ebp
  00011	5d		 pop	 ebp
  00012	c2 08 00	 ret	 8
?OnSysCommand@CWnd@@IAEXIJ@Z ENDP			; CWnd::OnSysCommand
; Function compile flags: /Odt
_TEXT	ENDS
;	COMDAT ?OnLButtonDown@CWnd@@IAEXIVCPoint@@@Z
_TEXT	SEGMENT
_this$ = -4						; size = 4
___formal$ = 8						; size = 4
___formal$ = 12						; size = 8
?OnLButtonDown@CWnd@@IAEXIVCPoint@@@Z PROC NEAR		; CWnd::OnLButtonDown, COMDAT
; _this$ = ecx

; 464  : 	{ Default(); }

  00000	55		 push	 ebp
  00001	8b ec		 mov	 ebp, esp
  00003	51		 push	 ecx
  00004	89 4d fc	 mov	 DWORD PTR _this$[ebp], ecx
  00007	8b 4d fc	 mov	 ecx, DWORD PTR _this$[ebp]
  0000a	e8 00 00 00 00	 call	 ?Default@CWnd@@IAEJXZ	; CWnd::Default
  0000f	8b e5		 mov	 esp, ebp
  00011	5d		 pop	 ebp
  00012	c2 0c 00	 ret	 12			; 0000000cH
?OnLButtonDown@CWnd@@IAEXIVCPoint@@@Z ENDP		; CWnd::OnLButtonDown
; Function compile flags: /Odt
_TEXT	ENDS
;	COMDAT ?OnMouseMove@CWnd@@IAEXIVCPoint@@@Z
_TEXT	SEGMENT
_this$ = -4						; size = 4
___formal$ = 8						; size = 4
___formal$ = 12						; size = 8
?OnMouseMove@CWnd@@IAEXIVCPoint@@@Z PROC NEAR		; CWnd::OnMouseMove, COMDAT
; _this$ = ecx

; 476  : 	{ Default(); }

  00000	55		 push	 ebp
  00001	8b ec		 mov	 ebp, esp
  00003	51		 push	 ecx
  00004	89 4d fc	 mov	 DWORD PTR _this$[ebp], ecx
  00007	8b 4d fc	 mov	 ecx, DWORD PTR _this$[ebp]
  0000a	e8 00 00 00 00	 call	 ?Default@CWnd@@IAEJXZ	; CWnd::Default
  0000f	8b e5		 mov	 esp, ebp
  00011	5d		 pop	 ebp
  00012	c2 0c 00	 ret	 12			; 0000000cH
?OnMouseMove@CWnd@@IAEXIVCPoint@@@Z ENDP		; CWnd::OnMouseMove
; Function compile flags: /Odt
_TEXT	ENDS
;	COMDAT ?OnTimer@CWnd@@IAEXI@Z
_TEXT	SEGMENT
_this$ = -4						; size = 4
___formal$ = 8						; size = 4
?OnTimer@CWnd@@IAEXI@Z PROC NEAR			; CWnd::OnTimer, COMDAT
; _this$ = ecx

; 488  : 	{ Default(); }

  00000	55		 push	 ebp
  00001	8b ec		 mov	 ebp, esp
  00003	51		 push	 ecx
  00004	89 4d fc	 mov	 DWORD PTR _this$[ebp], ecx
  00007	8b 4d fc	 mov	 ecx, DWORD PTR _this$[ebp]
  0000a	e8 00 00 00 00	 call	 ?Default@CWnd@@IAEJXZ	; CWnd::Default
  0000f	8b e5		 mov	 esp, ebp
  00011	5d		 pop	 ebp
  00012	c2 04 00	 ret	 4
?OnTimer@CWnd@@IAEXI@Z ENDP				; CWnd::OnTimer
; Function compile flags: /Odt
_TEXT	ENDS
;	COMDAT ?DoDataExchange@CWnd@@MAEXPAVCDataExchange@@@Z
_TEXT	SEGMENT
_this$ = -4						; size = 4
___formal$ = 8						; size = 4
?DoDataExchange@CWnd@@MAEXPAVCDataExchange@@@Z PROC NEAR ; CWnd::DoDataExchange, COMDAT
; _this$ = ecx

; 545  : 	{ } // default does nothing

  00000	55		 push	 ebp
  00001	8b ec		 mov	 ebp, esp
  00003	51		 push	 ecx
  00004	89 4d fc	 mov	 DWORD PTR _this$[ebp], ecx
  00007	8b e5		 mov	 esp, ebp
  00009	5d		 pop	 ebp
  0000a	c2 04 00	 ret	 4
?DoDataExchange@CWnd@@MAEXPAVCDataExchange@@@Z ENDP	; CWnd::DoDataExchange
_TEXT	ENDS
EXTRN	__imp__EnableWindow@8:NEAR
; Function compile flags: /Odt
;	COMDAT ?BeginModalState@CWnd@@UAEXXZ
_TEXT	SEGMENT
_this$ = -4						; size = 4
?BeginModalState@CWnd@@UAEXXZ PROC NEAR			; CWnd::BeginModalState, COMDAT
; _this$ = ecx

; 549  : 	{ ::EnableWindow(m_hWnd, FALSE); }

  00000	55		 push	 ebp
  00001	8b ec		 mov	 ebp, esp
  00003	51		 push	 ecx
  00004	89 4d fc	 mov	 DWORD PTR _this$[ebp], ecx
  00007	6a 00		 push	 0
  00009	8b 45 fc	 mov	 eax, DWORD PTR _this$[ebp]
  0000c	8b 48 20	 mov	 ecx, DWORD PTR [eax+32]
  0000f	51		 push	 ecx
  00010	ff 15 00 00 00
	00		 call	 DWORD PTR __imp__EnableWindow@8
  00016	8b e5		 mov	 esp, ebp
  00018	5d		 pop	 ebp
  00019	c3		 ret	 0
?BeginModalState@CWnd@@UAEXXZ ENDP			; CWnd::BeginModalState
; Function compile flags: /Odt
_TEXT	ENDS
;	COMDAT ?EndModalState@CWnd@@UAEXXZ
_TEXT	SEGMENT
_this$ = -4						; size = 4
?EndModalState@CWnd@@UAEXXZ PROC NEAR			; CWnd::EndModalState, COMDAT
; _this$ = ecx

; 551  : 	{ ::EnableWindow(m_hWnd, TRUE); }

  00000	55		 push	 ebp
  00001	8b ec		 mov	 ebp, esp
  00003	51		 push	 ecx
  00004	89 4d fc	 mov	 DWORD PTR _this$[ebp], ecx
  00007	6a 01		 push	 1
  00009	8b 45 fc	 mov	 eax, DWORD PTR _this$[ebp]
  0000c	8b 48 20	 mov	 ecx, DWORD PTR [eax+32]
  0000f	51		 push	 ecx
  00010	ff 15 00 00 00
	00		 call	 DWORD PTR __imp__EnableWindow@8
  00016	8b e5		 mov	 esp, ebp
  00018	5d		 pop	 ebp
  00019	c3		 ret	 0
?EndModalState@CWnd@@UAEXXZ ENDP			; CWnd::EndModalState
; Function compile flags: /Odt
_TEXT	ENDS
;	COMDAT ?Create@CDialog@@UAEHIPAVCWnd@@@Z
_TEXT	SEGMENT
_this$ = -4						; size = 4
_nIDTemplate$ = 8					; size = 4
_pParentWnd$ = 12					; size = 4
?Create@CDialog@@UAEHIPAVCWnd@@@Z PROC NEAR		; CDialog::Create, COMDAT
; _this$ = ecx

; 569  : 	{ return Create(MAKEINTRESOURCE(nIDTemplate), pParentWnd); }

  00000	55		 push	 ebp
  00001	8b ec		 mov	 ebp, esp
  00003	51		 push	 ecx
  00004	89 4d fc	 mov	 DWORD PTR _this$[ebp], ecx
  00007	8b 45 0c	 mov	 eax, DWORD PTR _pParentWnd$[ebp]
  0000a	50		 push	 eax
  0000b	0f b7 4d 08	 movzx	 ecx, WORD PTR _nIDTemplate$[ebp]
  0000f	51		 push	 ecx
  00010	8b 55 fc	 mov	 edx, DWORD PTR _this$[ebp]
  00013	8b 02		 mov	 eax, DWORD PTR [edx]
  00015	8b 4d fc	 mov	 ecx, DWORD PTR _this$[ebp]
  00018	ff 90 3c 01 00
	00		 call	 DWORD PTR [eax+316]
  0001e	8b e5		 mov	 esp, ebp
  00020	5d		 pop	 ebp
  00021	c2 08 00	 ret	 8
?Create@CDialog@@UAEHIPAVCWnd@@@Z ENDP			; CDialog::Create
_TEXT	ENDS
EXTRN	__imp__LoadIconA@8:NEAR
; Function compile flags: /Odt
;	COMDAT ?LoadIconA@CWinApp@@QBEPAUHICON__@@I@Z
_TEXT	SEGMENT
_this$ = -4						; size = 4
_nIDResource$ = 8					; size = 4
?LoadIconA@CWinApp@@QBEPAUHICON__@@I@Z PROC NEAR	; CWinApp::LoadIconA, COMDAT
; _this$ = ecx

; 1014 : 	{ return ::LoadIcon(AfxFindResourceHandle(MAKEINTRESOURCE(nIDResource),

  00000	55		 push	 ebp
  00001	8b ec		 mov	 ebp, esp
  00003	51		 push	 ecx
  00004	89 4d fc	 mov	 DWORD PTR _this$[ebp], ecx

; 1015 : 		RT_GROUP_ICON), MAKEINTRESOURCE(nIDResource)); }

  00007	0f b7 45 08	 movzx	 eax, WORD PTR _nIDResource$[ebp]
  0000b	50		 push	 eax
  0000c	6a 0e		 push	 14			; 0000000eH
  0000e	0f b7 4d 08	 movzx	 ecx, WORD PTR _nIDResource$[ebp]
  00012	51		 push	 ecx
  00013	e8 00 00 00 00	 call	 ?AfxFindResourceHandle@@YGPAUHINSTANCE__@@PBD0@Z ; AfxFindResourceHandle
  00018	50		 push	 eax
  00019	ff 15 00 00 00
	00		 call	 DWORD PTR __imp__LoadIconA@8
  0001f	8b e5		 mov	 esp, ebp
  00021	5d		 pop	 ebp
  00022	c2 04 00	 ret	 4
?LoadIconA@CWinApp@@QBEPAUHICON__@@I@Z ENDP		; CWinApp::LoadIconA
; Function compile flags: /Odt
; File d:\boxgit\playbox\playbox\dev\prj\playbox\src\core\imessageobserver.h
_TEXT	ENDS
;	COMDAT ??1IMessageObserver@@UAE@XZ
_TEXT	SEGMENT
_this$ = -4						; size = 4
??1IMessageObserver@@UAE@XZ PROC NEAR			; IMessageObserver::~IMessageObserver, COMDAT
; _this$ = ecx

; 16   : 	virtual ~IMessageObserver(){};

  00000	55		 push	 ebp
  00001	8b ec		 mov	 ebp, esp
  00003	51		 push	 ecx
  00004	89 4d fc	 mov	 DWORD PTR _this$[ebp], ecx
  00007	8b 45 fc	 mov	 eax, DWORD PTR _this$[ebp]
  0000a	c7 00 00 00 00
	00		 mov	 DWORD PTR [eax], OFFSET FLAT:??_7IMessageObserver@@6B@
  00010	8b e5		 mov	 esp, ebp
  00012	5d		 pop	 ebp
  00013	c3		 ret	 0
??1IMessageObserver@@UAE@XZ ENDP			; IMessageObserver::~IMessageObserver
; Function compile flags: /Odt
_TEXT	ENDS
;	COMDAT ??_GIMessageObserver@@UAEPAXI@Z
_TEXT	SEGMENT
_this$ = -4						; size = 4
___flags$ = 8						; size = 4
??_GIMessageObserver@@UAEPAXI@Z PROC NEAR		; IMessageObserver::`scalar deleting destructor', COMDAT
; _this$ = ecx
  00000	55		 push	 ebp
  00001	8b ec		 mov	 ebp, esp
  00003	51		 push	 ecx
  00004	89 4d fc	 mov	 DWORD PTR _this$[ebp], ecx
  00007	8b 4d fc	 mov	 ecx, DWORD PTR _this$[ebp]
  0000a	e8 00 00 00 00	 call	 ??1IMessageObserver@@UAE@XZ ; IMessageObserver::~IMessageObserver
  0000f	8b 45 08	 mov	 eax, DWORD PTR ___flags$[ebp]
  00012	83 e0 01	 and	 eax, 1
  00015	74 0c		 je	 SHORT $L109524
  00017	8b 4d fc	 mov	 ecx, DWORD PTR _this$[ebp]
  0001a	51		 push	 ecx
  0001b	e8 00 00 00 00	 call	 ??3@YAXPAX@Z		; operator delete
  00020	83 c4 04	 add	 esp, 4
$L109524:
  00023	8b 45 fc	 mov	 eax, DWORD PTR _this$[ebp]
  00026	8b e5		 mov	 esp, ebp
  00028	5d		 pop	 ebp
  00029	c2 04 00	 ret	 4
??_GIMessageObserver@@UAEPAXI@Z ENDP			; IMessageObserver::`scalar deleting destructor'
; Function compile flags: /Odt
; File d:\program files (x86)\microsoft visual studio .net 2003\vc7\atlmfc\include\atlalloc.h
_TEXT	ENDS
;	COMDAT ??0?$CAtlSafeAllocBufferManager@VCCRTAllocator@ATL@@@_ATL_SAFE_ALLOCA_IMPL@ATL@@QAE@XZ
_TEXT	SEGMENT
_this$ = -4						; size = 4
??0?$CAtlSafeAllocBufferManager@VCCRTAllocator@ATL@@@_ATL_SAFE_ALLOCA_IMPL@ATL@@QAE@XZ PROC NEAR ; ATL::_ATL_SAFE_ALLOCA_IMPL::CAtlSafeAllocBufferManager<ATL::CCRTAllocator>::CAtlSafeAllocBufferManager<ATL::CCRTAllocator>, COMDAT
; _this$ = ecx

; 373  : 	CAtlSafeAllocBufferManager() : m_pHead(NULL) {};

  00000	55		 push	 ebp
  00001	8b ec		 mov	 ebp, esp
  00003	51		 push	 ecx
  00004	89 4d fc	 mov	 DWORD PTR _this$[ebp], ecx
  00007	8b 45 fc	 mov	 eax, DWORD PTR _this$[ebp]
  0000a	c7 00 00 00 00
	00		 mov	 DWORD PTR [eax], 0
  00010	8b 45 fc	 mov	 eax, DWORD PTR _this$[ebp]
  00013	8b e5		 mov	 esp, ebp
  00015	5d		 pop	 ebp
  00016	c3		 ret	 0
??0?$CAtlSafeAllocBufferManager@VCCRTAllocator@ATL@@@_ATL_SAFE_ALLOCA_IMPL@ATL@@QAE@XZ ENDP ; ATL::_ATL_SAFE_ALLOCA_IMPL::CAtlSafeAllocBufferManager<ATL::CCRTAllocator>::CAtlSafeAllocBufferManager<ATL::CCRTAllocator>
_TEXT	ENDS
PUBLIC	?GetData@CAtlSafeAllocBufferNode@?$CAtlSafeAllocBufferManager@VCCRTAllocator@ATL@@@_ATL_SAFE_ALLOCA_IMPL@ATL@@QAEPAXXZ ; ATL::_ATL_SAFE_ALLOCA_IMPL::CAtlSafeAllocBufferManager<ATL::CCRTAllocator>::CAtlSafeAllocBufferNode::GetData
PUBLIC	?Allocate@CCRTAllocator@ATL@@SAPAXI@Z		; ATL::CCRTAllocator::Allocate
; Function compile flags: /Odt
;	COMDAT ?Allocate@?$CAtlSafeAllocBufferManager@VCCRTAllocator@ATL@@@_ATL_SAFE_ALLOCA_IMPL@ATL@@QAEPAXK@Z
_TEXT	SEGMENT
_this$ = -8						; size = 4
_p$ = -4						; size = 4
_nRequestedSize$ = 8					; size = 4
?Allocate@?$CAtlSafeAllocBufferManager@VCCRTAllocator@ATL@@@_ATL_SAFE_ALLOCA_IMPL@ATL@@QAEPAXK@Z PROC NEAR ; ATL::_ATL_SAFE_ALLOCA_IMPL::CAtlSafeAllocBufferManager<ATL::CCRTAllocator>::Allocate, COMDAT
; _this$ = ecx

; 375  : 	{

  00000	55		 push	 ebp
  00001	8b ec		 mov	 ebp, esp
  00003	83 ec 08	 sub	 esp, 8
  00006	89 4d f8	 mov	 DWORD PTR _this$[ebp], ecx

; 376  : 		CAtlSafeAllocBufferNode *p = (CAtlSafeAllocBufferNode*)Allocator::Allocate(nRequestedSize + sizeof(CAtlSafeAllocBufferNode));

  00009	8b 45 08	 mov	 eax, DWORD PTR _nRequestedSize$[ebp]
  0000c	83 c0 08	 add	 eax, 8
  0000f	50		 push	 eax
  00010	e8 00 00 00 00	 call	 ?Allocate@CCRTAllocator@ATL@@SAPAXI@Z ; ATL::CCRTAllocator::Allocate
  00015	83 c4 04	 add	 esp, 4
  00018	89 45 fc	 mov	 DWORD PTR _p$[ebp], eax

; 377  : 		if (p == NULL)

  0001b	83 7d fc 00	 cmp	 DWORD PTR _p$[ebp], 0
  0001f	75 04		 jne	 SHORT $L191833

; 378  : 			return NULL;

  00021	33 c0		 xor	 eax, eax
  00023	eb 1a		 jmp	 SHORT $L191820
$L191833:

; 379  : 		
; 380  : 		// Add buffer to the list
; 381  : 		p->m_pNext = m_pHead;

  00025	8b 4d fc	 mov	 ecx, DWORD PTR _p$[ebp]
  00028	8b 55 f8	 mov	 edx, DWORD PTR _this$[ebp]
  0002b	8b 02		 mov	 eax, DWORD PTR [edx]
  0002d	89 01		 mov	 DWORD PTR [ecx], eax

; 382  : 		m_pHead = p;

  0002f	8b 4d f8	 mov	 ecx, DWORD PTR _this$[ebp]
  00032	8b 55 fc	 mov	 edx, DWORD PTR _p$[ebp]
  00035	89 11		 mov	 DWORD PTR [ecx], edx

; 383  : 		
; 384  : 		return p->GetData();

  00037	8b 4d fc	 mov	 ecx, DWORD PTR _p$[ebp]
  0003a	e8 00 00 00 00	 call	 ?GetData@CAtlSafeAllocBufferNode@?$CAtlSafeAllocBufferManager@VCCRTAllocator@ATL@@@_ATL_SAFE_ALLOCA_IMPL@ATL@@QAEPAXXZ ; ATL::_ATL_SAFE_ALLOCA_IMPL::CAtlSafeAllocBufferManager<ATL::CCRTAllocator>::CAtlSafeAllocBufferNode::GetData
$L191820:

; 385  : 	}

  0003f	8b e5		 mov	 esp, ebp
  00041	5d		 pop	 ebp
  00042	c2 04 00	 ret	 4
?Allocate@?$CAtlSafeAllocBufferManager@VCCRTAllocator@ATL@@@_ATL_SAFE_ALLOCA_IMPL@ATL@@QAEPAXK@Z ENDP ; ATL::_ATL_SAFE_ALLOCA_IMPL::CAtlSafeAllocBufferManager<ATL::CCRTAllocator>::Allocate
_TEXT	ENDS
EXTRN	__imp__malloc:NEAR
; Function compile flags: /Odt
;	COMDAT ?Allocate@CCRTAllocator@ATL@@SAPAXI@Z
_TEXT	SEGMENT
_nBytes$ = 8						; size = 4
?Allocate@CCRTAllocator@ATL@@SAPAXI@Z PROC NEAR		; ATL::CCRTAllocator::Allocate, COMDAT

; 30   : 	{

  00000	55		 push	 ebp
  00001	8b ec		 mov	 ebp, esp

; 31   : 		return malloc(nBytes);

  00003	8b 45 08	 mov	 eax, DWORD PTR _nBytes$[ebp]
  00006	50		 push	 eax
  00007	ff 15 00 00 00
	00		 call	 DWORD PTR __imp__malloc
  0000d	83 c4 04	 add	 esp, 4

; 32   : 	}

  00010	5d		 pop	 ebp
  00011	c3		 ret	 0
?Allocate@CCRTAllocator@ATL@@SAPAXI@Z ENDP		; ATL::CCRTAllocator::Allocate
_TEXT	ENDS
PUBLIC	?Free@CCRTAllocator@ATL@@SAXPAX@Z		; ATL::CCRTAllocator::Free
; Function compile flags: /Odt
;	COMDAT ??1?$CAtlSafeAllocBufferManager@VCCRTAllocator@ATL@@@_ATL_SAFE_ALLOCA_IMPL@ATL@@QAE@XZ
_TEXT	SEGMENT
_this$ = -8						; size = 4
_p$191839 = -4						; size = 4
??1?$CAtlSafeAllocBufferManager@VCCRTAllocator@ATL@@@_ATL_SAFE_ALLOCA_IMPL@ATL@@QAE@XZ PROC NEAR ; ATL::_ATL_SAFE_ALLOCA_IMPL::CAtlSafeAllocBufferManager<ATL::CCRTAllocator>::~CAtlSafeAllocBufferManager<ATL::CCRTAllocator>, COMDAT
; _this$ = ecx

; 387  : 	{

  00000	55		 push	 ebp
  00001	8b ec		 mov	 ebp, esp
  00003	83 ec 08	 sub	 esp, 8
  00006	89 4d f8	 mov	 DWORD PTR _this$[ebp], ecx
$L191837:

; 388  : 		// Walk the list and free the buffers
; 389  : 		while (m_pHead != NULL)

  00009	8b 45 f8	 mov	 eax, DWORD PTR _this$[ebp]
  0000c	83 38 00	 cmp	 DWORD PTR [eax], 0
  0000f	74 22		 je	 SHORT $L191835

; 390  : 		{
; 391  : 			CAtlSafeAllocBufferNode* p = m_pHead;

  00011	8b 4d f8	 mov	 ecx, DWORD PTR _this$[ebp]
  00014	8b 11		 mov	 edx, DWORD PTR [ecx]
  00016	89 55 fc	 mov	 DWORD PTR _p$191839[ebp], edx

; 392  : 			m_pHead = m_pHead->m_pNext;

  00019	8b 45 f8	 mov	 eax, DWORD PTR _this$[ebp]
  0001c	8b 08		 mov	 ecx, DWORD PTR [eax]
  0001e	8b 55 f8	 mov	 edx, DWORD PTR _this$[ebp]
  00021	8b 01		 mov	 eax, DWORD PTR [ecx]
  00023	89 02		 mov	 DWORD PTR [edx], eax

; 393  : 			Allocator::Free(p);

  00025	8b 4d fc	 mov	 ecx, DWORD PTR _p$191839[ebp]
  00028	51		 push	 ecx
  00029	e8 00 00 00 00	 call	 ?Free@CCRTAllocator@ATL@@SAXPAX@Z ; ATL::CCRTAllocator::Free
  0002e	83 c4 04	 add	 esp, 4

; 394  : 		}

  00031	eb d6		 jmp	 SHORT $L191837
$L191835:

; 395  : 	}

  00033	8b e5		 mov	 esp, ebp
  00035	5d		 pop	 ebp
  00036	c3		 ret	 0
??1?$CAtlSafeAllocBufferManager@VCCRTAllocator@ATL@@@_ATL_SAFE_ALLOCA_IMPL@ATL@@QAE@XZ ENDP ; ATL::_ATL_SAFE_ALLOCA_IMPL::CAtlSafeAllocBufferManager<ATL::CCRTAllocator>::~CAtlSafeAllocBufferManager<ATL::CCRTAllocator>
_TEXT	ENDS
EXTRN	__imp__free:NEAR
; Function compile flags: /Odt
;	COMDAT ?Free@CCRTAllocator@ATL@@SAXPAX@Z
_TEXT	SEGMENT
_p$ = 8							; size = 4
?Free@CCRTAllocator@ATL@@SAXPAX@Z PROC NEAR		; ATL::CCRTAllocator::Free, COMDAT

; 35   : 	{

  00000	55		 push	 ebp
  00001	8b ec		 mov	 ebp, esp

; 36   : 		free(p);

  00003	8b 45 08	 mov	 eax, DWORD PTR _p$[ebp]
  00006	50		 push	 eax
  00007	ff 15 00 00 00
	00		 call	 DWORD PTR __imp__free
  0000d	83 c4 04	 add	 esp, 4

; 37   : 	}

  00010	5d		 pop	 ebp
  00011	c3		 ret	 0
?Free@CCRTAllocator@ATL@@SAXPAX@Z ENDP			; ATL::CCRTAllocator::Free
; Function compile flags: /Odt
_TEXT	ENDS
;	COMDAT ??0?$CTempBuffer@D$0IA@VCCRTAllocator@ATL@@@ATL@@QAE@XZ
_TEXT	SEGMENT
_this$ = -4						; size = 4
??0?$CTempBuffer@D$0IA@VCCRTAllocator@ATL@@@ATL@@QAE@XZ PROC NEAR ; ATL::CTempBuffer<char,128,ATL::CCRTAllocator>::CTempBuffer<char,128,ATL::CCRTAllocator>, COMDAT
; _this$ = ecx

; 216  : 	{

  00000	55		 push	 ebp
  00001	8b ec		 mov	 ebp, esp
  00003	51		 push	 ecx
  00004	89 4d fc	 mov	 DWORD PTR _this$[ebp], ecx
  00007	8b 45 fc	 mov	 eax, DWORD PTR _this$[ebp]
  0000a	c7 00 00 00 00
	00		 mov	 DWORD PTR [eax], 0

; 217  : 	}

  00010	8b 45 fc	 mov	 eax, DWORD PTR _this$[ebp]
  00013	8b e5		 mov	 esp, ebp
  00015	5d		 pop	 ebp
  00016	c3		 ret	 0
??0?$CTempBuffer@D$0IA@VCCRTAllocator@ATL@@@ATL@@QAE@XZ ENDP ; ATL::CTempBuffer<char,128,ATL::CCRTAllocator>::CTempBuffer<char,128,ATL::CCRTAllocator>
_TEXT	ENDS
PUBLIC	?FreeHeap@?$CTempBuffer@D$0IA@VCCRTAllocator@ATL@@@ATL@@AAEXXZ ; ATL::CTempBuffer<char,128,ATL::CCRTAllocator>::FreeHeap
; Function compile flags: /Odt
;	COMDAT ??1?$CTempBuffer@D$0IA@VCCRTAllocator@ATL@@@ATL@@QAE@XZ
_TEXT	SEGMENT
_this$ = -4						; size = 4
??1?$CTempBuffer@D$0IA@VCCRTAllocator@ATL@@@ATL@@QAE@XZ PROC NEAR ; ATL::CTempBuffer<char,128,ATL::CCRTAllocator>::~CTempBuffer<char,128,ATL::CCRTAllocator>, COMDAT
; _this$ = ecx

; 225  : 	{

  00000	55		 push	 ebp
  00001	8b ec		 mov	 ebp, esp
  00003	51		 push	 ecx
  00004	89 4d fc	 mov	 DWORD PTR _this$[ebp], ecx

; 226  : 		if( m_p != reinterpret_cast< T* >( m_abFixedBuffer ) )

  00007	8b 45 fc	 mov	 eax, DWORD PTR _this$[ebp]
  0000a	83 c0 04	 add	 eax, 4
  0000d	8b 4d fc	 mov	 ecx, DWORD PTR _this$[ebp]
  00010	39 01		 cmp	 DWORD PTR [ecx], eax
  00012	74 08		 je	 SHORT $L191843

; 227  : 		{
; 228  : 			FreeHeap();

  00014	8b 4d fc	 mov	 ecx, DWORD PTR _this$[ebp]
  00017	e8 00 00 00 00	 call	 ?FreeHeap@?$CTempBuffer@D$0IA@VCCRTAllocator@ATL@@@ATL@@AAEXXZ ; ATL::CTempBuffer<char,128,ATL::CCRTAllocator>::FreeHeap
$L191843:

; 229  : 		}
; 230  : 	}

  0001c	8b e5		 mov	 esp, ebp
  0001e	5d		 pop	 ebp
  0001f	c3		 ret	 0
??1?$CTempBuffer@D$0IA@VCCRTAllocator@ATL@@@ATL@@QAE@XZ ENDP ; ATL::CTempBuffer<char,128,ATL::CCRTAllocator>::~CTempBuffer<char,128,ATL::CCRTAllocator>
; Function compile flags: /Odt
_TEXT	ENDS
;	COMDAT ??B?$CTempBuffer@D$0IA@VCCRTAllocator@ATL@@@ATL@@QBEPADXZ
_TEXT	SEGMENT
_this$ = -4						; size = 4
??B?$CTempBuffer@D$0IA@VCCRTAllocator@ATL@@@ATL@@QBEPADXZ PROC NEAR ; ATL::CTempBuffer<char,128,ATL::CCRTAllocator>::operator char *, COMDAT
; _this$ = ecx

; 233  : 	{

  00000	55		 push	 ebp
  00001	8b ec		 mov	 ebp, esp
  00003	51		 push	 ecx
  00004	89 4d fc	 mov	 DWORD PTR _this$[ebp], ecx

; 234  : 		return( m_p );

  00007	8b 45 fc	 mov	 eax, DWORD PTR _this$[ebp]
  0000a	8b 00		 mov	 eax, DWORD PTR [eax]

; 235  : 	}

  0000c	8b e5		 mov	 esp, ebp
  0000e	5d		 pop	 ebp
  0000f	c3		 ret	 0
??B?$CTempBuffer@D$0IA@VCCRTAllocator@ATL@@@ATL@@QBEPADXZ ENDP ; ATL::CTempBuffer<char,128,ATL::CCRTAllocator>::operator char *
_TEXT	ENDS
PUBLIC	?AllocateBytes@?$CTempBuffer@D$0IA@VCCRTAllocator@ATL@@@ATL@@QAEPADI@Z ; ATL::CTempBuffer<char,128,ATL::CCRTAllocator>::AllocateBytes
; Function compile flags: /Odt
;	COMDAT ?Allocate@?$CTempBuffer@D$0IA@VCCRTAllocator@ATL@@@ATL@@QAEPADI@Z
_TEXT	SEGMENT
_this$ = -4						; size = 4
_nElements$ = 8						; size = 4
?Allocate@?$CTempBuffer@D$0IA@VCCRTAllocator@ATL@@@ATL@@QAEPADI@Z PROC NEAR ; ATL::CTempBuffer<char,128,ATL::CCRTAllocator>::Allocate, COMDAT
; _this$ = ecx

; 243  : 	{

  00000	55		 push	 ebp
  00001	8b ec		 mov	 ebp, esp
  00003	51		 push	 ecx
  00004	89 4d fc	 mov	 DWORD PTR _this$[ebp], ecx

; 244  : 		return( AllocateBytes( nElements*sizeof( T ) ) );

  00007	8b 45 08	 mov	 eax, DWORD PTR _nElements$[ebp]
  0000a	50		 push	 eax
  0000b	8b 4d fc	 mov	 ecx, DWORD PTR _this$[ebp]
  0000e	e8 00 00 00 00	 call	 ?AllocateBytes@?$CTempBuffer@D$0IA@VCCRTAllocator@ATL@@@ATL@@QAEPADI@Z ; ATL::CTempBuffer<char,128,ATL::CCRTAllocator>::AllocateBytes

; 245  : 	}

  00013	8b e5		 mov	 esp, ebp
  00015	5d		 pop	 ebp
  00016	c2 04 00	 ret	 4
?Allocate@?$CTempBuffer@D$0IA@VCCRTAllocator@ATL@@@ATL@@QAEPADI@Z ENDP ; ATL::CTempBuffer<char,128,ATL::CCRTAllocator>::Allocate
_TEXT	ENDS
PUBLIC	?Init@?$CW2AEX@$0IA@@ATL@@AAEXPB_WI@Z		; ATL::CW2AEX<128>::Init
; Function compile flags: /Odt
; File d:\program files (x86)\microsoft visual studio .net 2003\vc7\atlmfc\include\atlconv.h
;	COMDAT ??0?$CW2AEX@$0IA@@ATL@@QAE@PB_W@Z
_TEXT	SEGMENT
_this$ = -4						; size = 4
_psz$ = 8						; size = 4
??0?$CW2AEX@$0IA@@ATL@@QAE@PB_W@Z PROC NEAR		; ATL::CW2AEX<128>::CW2AEX<128>, COMDAT
; _this$ = ecx

; 419  : 	{

  00000	55		 push	 ebp
  00001	8b ec		 mov	 ebp, esp
  00003	51		 push	 ecx
  00004	89 4d fc	 mov	 DWORD PTR _this$[ebp], ecx
  00007	8b 45 fc	 mov	 eax, DWORD PTR _this$[ebp]
  0000a	83 c0 04	 add	 eax, 4
  0000d	8b 4d fc	 mov	 ecx, DWORD PTR _this$[ebp]
  00010	89 01		 mov	 DWORD PTR [ecx], eax

; 420  : 		Init( psz, _AtlGetConversionACP() );

  00012	e8 00 00 00 00	 call	 ?_AtlGetConversionACP@ATL@@YGIXZ ; ATL::_AtlGetConversionACP
  00017	50		 push	 eax
  00018	8b 55 08	 mov	 edx, DWORD PTR _psz$[ebp]
  0001b	52		 push	 edx
  0001c	8b 4d fc	 mov	 ecx, DWORD PTR _this$[ebp]
  0001f	e8 00 00 00 00	 call	 ?Init@?$CW2AEX@$0IA@@ATL@@AAEXPB_WI@Z ; ATL::CW2AEX<128>::Init

; 421  : 	}

  00024	8b 45 fc	 mov	 eax, DWORD PTR _this$[ebp]
  00027	8b e5		 mov	 esp, ebp
  00029	5d		 pop	 ebp
  0002a	c2 04 00	 ret	 4
??0?$CW2AEX@$0IA@@ATL@@QAE@PB_W@Z ENDP			; ATL::CW2AEX<128>::CW2AEX<128>
; Function compile flags: /Odt
_TEXT	ENDS
;	COMDAT ??1?$CW2AEX@$0IA@@ATL@@QAE@XZ
_TEXT	SEGMENT
_this$ = -4						; size = 4
??1?$CW2AEX@$0IA@@ATL@@QAE@XZ PROC NEAR			; ATL::CW2AEX<128>::~CW2AEX<128>, COMDAT
; _this$ = ecx

; 428  : 	{

  00000	55		 push	 ebp
  00001	8b ec		 mov	 ebp, esp
  00003	51		 push	 ecx
  00004	89 4d fc	 mov	 DWORD PTR _this$[ebp], ecx

; 429  : 		if( m_psz != m_szBuffer )

  00007	8b 45 fc	 mov	 eax, DWORD PTR _this$[ebp]
  0000a	83 c0 04	 add	 eax, 4
  0000d	8b 4d fc	 mov	 ecx, DWORD PTR _this$[ebp]
  00010	39 01		 cmp	 DWORD PTR [ecx], eax
  00012	74 0f		 je	 SHORT $L191854

; 430  : 		{
; 431  : 			free( m_psz );

  00014	8b 55 fc	 mov	 edx, DWORD PTR _this$[ebp]
  00017	8b 02		 mov	 eax, DWORD PTR [edx]
  00019	50		 push	 eax
  0001a	ff 15 00 00 00
	00		 call	 DWORD PTR __imp__free
  00020	83 c4 04	 add	 esp, 4
$L191854:

; 432  : 		}
; 433  : 	}

  00023	8b e5		 mov	 esp, ebp
  00025	5d		 pop	 ebp
  00026	c3		 ret	 0
??1?$CW2AEX@$0IA@@ATL@@QAE@XZ ENDP			; ATL::CW2AEX<128>::~CW2AEX<128>
; Function compile flags: /Odt
_TEXT	ENDS
;	COMDAT ??B?$CW2AEX@$0IA@@ATL@@QBEPADXZ
_TEXT	SEGMENT
_this$ = -4						; size = 4
??B?$CW2AEX@$0IA@@ATL@@QBEPADXZ PROC NEAR		; ATL::CW2AEX<128>::operator char *, COMDAT
; _this$ = ecx

; 436  : 	{

  00000	55		 push	 ebp
  00001	8b ec		 mov	 ebp, esp
  00003	51		 push	 ecx
  00004	89 4d fc	 mov	 DWORD PTR _this$[ebp], ecx

; 437  : 		return( m_psz );

  00007	8b 45 fc	 mov	 eax, DWORD PTR _this$[ebp]
  0000a	8b 00		 mov	 eax, DWORD PTR [eax]

; 438  : 	}

  0000c	8b e5		 mov	 esp, ebp
  0000e	5d		 pop	 ebp
  0000f	c3		 ret	 0
??B?$CW2AEX@$0IA@@ATL@@QBEPADXZ ENDP			; ATL::CW2AEX<128>::operator char *
_TEXT	ENDS
PUBLIC	?AllocateHeap@?$CTempBuffer@D$0IA@VCCRTAllocator@ATL@@@ATL@@AAEXI@Z ; ATL::CTempBuffer<char,128,ATL::CCRTAllocator>::AllocateHeap
; Function compile flags: /Odt
; File d:\program files (x86)\microsoft visual studio .net 2003\vc7\atlmfc\include\atlalloc.h
;	COMDAT ?AllocateBytes@?$CTempBuffer@D$0IA@VCCRTAllocator@ATL@@@ATL@@QAEPADI@Z
_TEXT	SEGMENT
_this$ = -4						; size = 4
_nBytes$ = 8						; size = 4
?AllocateBytes@?$CTempBuffer@D$0IA@VCCRTAllocator@ATL@@@ATL@@QAEPADI@Z PROC NEAR ; ATL::CTempBuffer<char,128,ATL::CCRTAllocator>::AllocateBytes, COMDAT
; _this$ = ecx

; 276  : 	{

  00000	55		 push	 ebp
  00001	8b ec		 mov	 ebp, esp
  00003	51		 push	 ecx
  00004	89 4d fc	 mov	 DWORD PTR _this$[ebp], ecx

; 277  : 		ATLASSERT( m_p == NULL );
; 278  : 		if( nBytes > t_nFixedBytes )

  00007	81 7d 08 80 00
	00 00		 cmp	 DWORD PTR _nBytes$[ebp], 128 ; 00000080H
  0000e	76 0e		 jbe	 SHORT $L193612

; 279  : 		{
; 280  : 			AllocateHeap( nBytes );

  00010	8b 45 08	 mov	 eax, DWORD PTR _nBytes$[ebp]
  00013	50		 push	 eax
  00014	8b 4d fc	 mov	 ecx, DWORD PTR _this$[ebp]
  00017	e8 00 00 00 00	 call	 ?AllocateHeap@?$CTempBuffer@D$0IA@VCCRTAllocator@ATL@@@ATL@@AAEXI@Z ; ATL::CTempBuffer<char,128,ATL::CCRTAllocator>::AllocateHeap

; 281  : 		}
; 282  : 		else

  0001c	eb 0b		 jmp	 SHORT $L193613
$L193612:

; 283  : 		{
; 284  : 			m_p = reinterpret_cast< T* >( m_abFixedBuffer );

  0001e	8b 4d fc	 mov	 ecx, DWORD PTR _this$[ebp]
  00021	83 c1 04	 add	 ecx, 4
  00024	8b 55 fc	 mov	 edx, DWORD PTR _this$[ebp]
  00027	89 0a		 mov	 DWORD PTR [edx], ecx
$L193613:

; 285  : 		}
; 286  : 
; 287  : 		return( m_p );

  00029	8b 45 fc	 mov	 eax, DWORD PTR _this$[ebp]
  0002c	8b 00		 mov	 eax, DWORD PTR [eax]

; 288  : 	}

  0002e	8b e5		 mov	 esp, ebp
  00030	5d		 pop	 ebp
  00031	c2 04 00	 ret	 4
?AllocateBytes@?$CTempBuffer@D$0IA@VCCRTAllocator@ATL@@@ATL@@QAEPADI@Z ENDP ; ATL::CTempBuffer<char,128,ATL::CCRTAllocator>::AllocateBytes
; Function compile flags: /Odt
_TEXT	ENDS
;	COMDAT ?FreeHeap@?$CTempBuffer@D$0IA@VCCRTAllocator@ATL@@@ATL@@AAEXXZ
_TEXT	SEGMENT
_this$ = -4						; size = 4
?FreeHeap@?$CTempBuffer@D$0IA@VCCRTAllocator@ATL@@@ATL@@AAEXXZ PROC NEAR ; ATL::CTempBuffer<char,128,ATL::CCRTAllocator>::FreeHeap, COMDAT
; _this$ = ecx

; 312  : 	{

  00000	55		 push	 ebp
  00001	8b ec		 mov	 ebp, esp
  00003	51		 push	 ecx
  00004	89 4d fc	 mov	 DWORD PTR _this$[ebp], ecx

; 313  : 		Allocator::Free( m_p );

  00007	8b 45 fc	 mov	 eax, DWORD PTR _this$[ebp]
  0000a	8b 08		 mov	 ecx, DWORD PTR [eax]
  0000c	51		 push	 ecx
  0000d	e8 00 00 00 00	 call	 ?Free@CCRTAllocator@ATL@@SAXPAX@Z ; ATL::CCRTAllocator::Free
  00012	83 c4 04	 add	 esp, 4

; 314  : 	}

  00015	8b e5		 mov	 esp, ebp
  00017	5d		 pop	 ebp
  00018	c3		 ret	 0
?FreeHeap@?$CTempBuffer@D$0IA@VCCRTAllocator@ATL@@@ATL@@AAEXXZ ENDP ; ATL::CTempBuffer<char,128,ATL::CCRTAllocator>::FreeHeap
_TEXT	ENDS
PUBLIC	?AtlThrowLastWin32@ATL@@YGXXZ			; ATL::AtlThrowLastWin32
; Function compile flags: /Odt
; File d:\program files (x86)\microsoft visual studio .net 2003\vc7\atlmfc\include\atlconv.h
;	COMDAT ?Init@?$CW2AEX@$0IA@@ATL@@AAEXPB_WI@Z
_TEXT	SEGMENT
_this$ = -12						; size = 4
_nLengthW$ = -8						; size = 4
_nLengthA$ = -4						; size = 4
_psz$ = 8						; size = 4
_nCodePage$ = 12					; size = 4
?Init@?$CW2AEX@$0IA@@ATL@@AAEXPB_WI@Z PROC NEAR		; ATL::CW2AEX<128>::Init, COMDAT
; _this$ = ecx

; 442  : 	{

  00000	55		 push	 ebp
  00001	8b ec		 mov	 ebp, esp
  00003	83 ec 0c	 sub	 esp, 12			; 0000000cH
  00006	89 4d f4	 mov	 DWORD PTR _this$[ebp], ecx

; 443  : 		if (psz == NULL)

  00009	83 7d 08 00	 cmp	 DWORD PTR _psz$[ebp], 0
  0000d	75 0b		 jne	 SHORT $L193619

; 444  : 		{
; 445  : 			m_psz = NULL;

  0000f	8b 45 f4	 mov	 eax, DWORD PTR _this$[ebp]
  00012	c7 00 00 00 00
	00		 mov	 DWORD PTR [eax], 0

; 446  : 			return;

  00018	eb 70		 jmp	 SHORT $L210701
$L193619:

; 447  : 		}
; 448  : 		int nLengthW = lstrlenW( psz )+1;

  0001a	8b 4d 08	 mov	 ecx, DWORD PTR _psz$[ebp]
  0001d	51		 push	 ecx
  0001e	ff 15 00 00 00
	00		 call	 DWORD PTR __imp__lstrlenW@4
  00024	83 c0 01	 add	 eax, 1
  00027	89 45 f8	 mov	 DWORD PTR _nLengthW$[ebp], eax

; 449  : 		int nLengthA = nLengthW*2;

  0002a	8b 55 f8	 mov	 edx, DWORD PTR _nLengthW$[ebp]
  0002d	d1 e2		 shl	 edx, 1
  0002f	89 55 fc	 mov	 DWORD PTR _nLengthA$[ebp], edx

; 450  : 
; 451  : 		if( nLengthA > t_nBufferLength )

  00032	81 7d fc 80 00
	00 00		 cmp	 DWORD PTR _nLengthA$[ebp], 128 ; 00000080H
  00039	7e 24		 jle	 SHORT $L193622

; 452  : 		{
; 453  : 			m_psz = static_cast< LPSTR >( malloc( nLengthA*sizeof( char ) ) );

  0003b	8b 45 fc	 mov	 eax, DWORD PTR _nLengthA$[ebp]
  0003e	50		 push	 eax
  0003f	ff 15 00 00 00
	00		 call	 DWORD PTR __imp__malloc
  00045	83 c4 04	 add	 esp, 4
  00048	8b 4d f4	 mov	 ecx, DWORD PTR _this$[ebp]
  0004b	89 01		 mov	 DWORD PTR [ecx], eax

; 454  : 			if (m_psz == NULL)

  0004d	8b 55 f4	 mov	 edx, DWORD PTR _this$[ebp]
  00050	83 3a 00	 cmp	 DWORD PTR [edx], 0
  00053	75 0a		 jne	 SHORT $L193622

; 455  : 			{
; 456  : 				AtlThrow( E_OUTOFMEMORY );

  00055	68 0e 00 07 80	 push	 -2147024882		; 8007000eH
  0005a	e8 00 00 00 00	 call	 ?AtlThrow@ATL@@YGXJ@Z	; ATL::AtlThrow
$L193622:

; 457  : 			}
; 458  : 		}
; 459  : 
; 460  : 		if (::WideCharToMultiByte( nCodePage, 0, psz, nLengthW, m_psz, nLengthA, NULL, NULL ) == 0)

  0005f	6a 00		 push	 0
  00061	6a 00		 push	 0
  00063	8b 45 fc	 mov	 eax, DWORD PTR _nLengthA$[ebp]
  00066	50		 push	 eax
  00067	8b 4d f4	 mov	 ecx, DWORD PTR _this$[ebp]
  0006a	8b 11		 mov	 edx, DWORD PTR [ecx]
  0006c	52		 push	 edx
  0006d	8b 45 f8	 mov	 eax, DWORD PTR _nLengthW$[ebp]
  00070	50		 push	 eax
  00071	8b 4d 08	 mov	 ecx, DWORD PTR _psz$[ebp]
  00074	51		 push	 ecx
  00075	6a 00		 push	 0
  00077	8b 55 0c	 mov	 edx, DWORD PTR _nCodePage$[ebp]
  0007a	52		 push	 edx
  0007b	ff 15 00 00 00
	00		 call	 DWORD PTR __imp__WideCharToMultiByte@32
  00081	85 c0		 test	 eax, eax
  00083	75 05		 jne	 SHORT $L210701

; 461  : 		{
; 462  : 			AtlThrowLastWin32();

  00085	e8 00 00 00 00	 call	 ?AtlThrowLastWin32@ATL@@YGXXZ ; ATL::AtlThrowLastWin32
$L210701:

; 463  : 		}
; 464  : 	}

  0008a	8b e5		 mov	 esp, ebp
  0008c	5d		 pop	 ebp
  0008d	c2 08 00	 ret	 8
?Init@?$CW2AEX@$0IA@@ATL@@AAEXPB_WI@Z ENDP		; ATL::CW2AEX<128>::Init
_TEXT	ENDS
EXTRN	__imp__GetLastError@0:NEAR
; Function compile flags: /Odt
; File d:\program files (x86)\microsoft visual studio .net 2003\vc7\atlmfc\include\atlexcept.h
;	COMDAT ?AtlThrowLastWin32@ATL@@YGXXZ
_TEXT	SEGMENT
tv69 = -8						; size = 4
_dwError$ = -4						; size = 4
?AtlThrowLastWin32@ATL@@YGXXZ PROC NEAR			; ATL::AtlThrowLastWin32, COMDAT

; 80   : {

  00000	55		 push	 ebp
  00001	8b ec		 mov	 ebp, esp
  00003	83 ec 08	 sub	 esp, 8

; 81   : 	DWORD dwError = ::GetLastError();

  00006	ff 15 00 00 00
	00		 call	 DWORD PTR __imp__GetLastError@0
  0000c	89 45 fc	 mov	 DWORD PTR _dwError$[ebp], eax

; 82   : 	AtlThrow( HRESULT_FROM_WIN32( dwError ) );

  0000f	83 7d fc 00	 cmp	 DWORD PTR _dwError$[ebp], 0
  00013	7f 08		 jg	 SHORT $L210704
  00015	8b 45 fc	 mov	 eax, DWORD PTR _dwError$[ebp]
  00018	89 45 f8	 mov	 DWORD PTR tv69[ebp], eax
  0001b	eb 18		 jmp	 SHORT $L210705
$L210704:
  0001d	8b 4d fc	 mov	 ecx, DWORD PTR _dwError$[ebp]
  00020	81 e1 ff ff 00
	00		 and	 ecx, 65535		; 0000ffffH
  00026	81 c9 00 00 07
	00		 or	 ecx, 458752		; 00070000H
  0002c	81 c9 00 00 00
	80		 or	 ecx, -2147483648	; 80000000H
  00032	89 4d f8	 mov	 DWORD PTR tv69[ebp], ecx
$L210705:
  00035	8b 55 f8	 mov	 edx, DWORD PTR tv69[ebp]
  00038	52		 push	 edx
  00039	e8 00 00 00 00	 call	 ?AtlThrow@ATL@@YGXJ@Z	; ATL::AtlThrow
$L210703:

; 83   : }

  0003e	8b e5		 mov	 esp, ebp
  00040	5d		 pop	 ebp
  00041	c3		 ret	 0
?AtlThrowLastWin32@ATL@@YGXXZ ENDP			; ATL::AtlThrowLastWin32
; Function compile flags: /Odt
; File d:\program files (x86)\microsoft visual studio .net 2003\vc7\atlmfc\include\atlalloc.h
_TEXT	ENDS
;	COMDAT ?GetData@CAtlSafeAllocBufferNode@?$CAtlSafeAllocBufferManager@VCCRTAllocator@ATL@@@_ATL_SAFE_ALLOCA_IMPL@ATL@@QAEPAXXZ
_TEXT	SEGMENT
_this$ = -4						; size = 4
?GetData@CAtlSafeAllocBufferNode@?$CAtlSafeAllocBufferManager@VCCRTAllocator@ATL@@@_ATL_SAFE_ALLOCA_IMPL@ATL@@QAEPAXXZ PROC NEAR ; ATL::_ATL_SAFE_ALLOCA_IMPL::CAtlSafeAllocBufferManager<ATL::CCRTAllocator>::CAtlSafeAllocBufferNode::GetData, COMDAT
; _this$ = ecx

; 365  : 		{

  00000	55		 push	 ebp
  00001	8b ec		 mov	 ebp, esp
  00003	51		 push	 ecx
  00004	89 4d fc	 mov	 DWORD PTR _this$[ebp], ecx

; 366  : 			return (this + 1);

  00007	8b 45 fc	 mov	 eax, DWORD PTR _this$[ebp]
  0000a	83 c0 08	 add	 eax, 8

; 367  : 		}

  0000d	8b e5		 mov	 esp, ebp
  0000f	5d		 pop	 ebp
  00010	c3		 ret	 0
?GetData@CAtlSafeAllocBufferNode@?$CAtlSafeAllocBufferManager@VCCRTAllocator@ATL@@@_ATL_SAFE_ALLOCA_IMPL@ATL@@QAEPAXXZ ENDP ; ATL::_ATL_SAFE_ALLOCA_IMPL::CAtlSafeAllocBufferManager<ATL::CCRTAllocator>::CAtlSafeAllocBufferNode::GetData
; Function compile flags: /Odt
_TEXT	ENDS
;	COMDAT ?AllocateHeap@?$CTempBuffer@D$0IA@VCCRTAllocator@ATL@@@ATL@@AAEXI@Z
_TEXT	SEGMENT
_this$ = -8						; size = 4
_p$ = -4						; size = 4
_nBytes$ = 8						; size = 4
?AllocateHeap@?$CTempBuffer@D$0IA@VCCRTAllocator@ATL@@@ATL@@AAEXI@Z PROC NEAR ; ATL::CTempBuffer<char,128,ATL::CCRTAllocator>::AllocateHeap, COMDAT
; _this$ = ecx

; 292  : 	{

  00000	55		 push	 ebp
  00001	8b ec		 mov	 ebp, esp
  00003	83 ec 08	 sub	 esp, 8
  00006	89 4d f8	 mov	 DWORD PTR _this$[ebp], ecx

; 293  : 		T* p = static_cast< T* >( Allocator::Allocate( nBytes ) );

  00009	8b 45 08	 mov	 eax, DWORD PTR _nBytes$[ebp]
  0000c	50		 push	 eax
  0000d	e8 00 00 00 00	 call	 ?Allocate@CCRTAllocator@ATL@@SAPAXI@Z ; ATL::CCRTAllocator::Allocate
  00012	83 c4 04	 add	 esp, 4
  00015	89 45 fc	 mov	 DWORD PTR _p$[ebp], eax

; 294  : 		if( p == NULL )

  00018	83 7d fc 00	 cmp	 DWORD PTR _p$[ebp], 0
  0001c	75 0a		 jne	 SHORT $L194985

; 295  : 		{
; 296  : 			AtlThrow( E_OUTOFMEMORY );

  0001e	68 0e 00 07 80	 push	 -2147024882		; 8007000eH
  00023	e8 00 00 00 00	 call	 ?AtlThrow@ATL@@YGXJ@Z	; ATL::AtlThrow
$L194985:

; 297  : 		}
; 298  : 		m_p = p;

  00028	8b 4d f8	 mov	 ecx, DWORD PTR _this$[ebp]
  0002b	8b 55 fc	 mov	 edx, DWORD PTR _p$[ebp]
  0002e	89 11		 mov	 DWORD PTR [ecx], edx
$L210709:

; 299  : 	}

  00030	8b e5		 mov	 esp, ebp
  00032	5d		 pop	 ebp
  00033	c2 04 00	 ret	 4
?AllocateHeap@?$CTempBuffer@D$0IA@VCCRTAllocator@ATL@@@ATL@@AAEXI@Z ENDP ; ATL::CTempBuffer<char,128,ATL::CCRTAllocator>::AllocateHeap
_TEXT	ENDS
CRT$XCU	SEGMENT
_$S6	DD	FLAT:_$E5
; Function compile flags: /Odt
; File d:\boxgit\playbox\playbox\dev\prj\playbox\src\appconfig\config\configlayoutdef.h
CRT$XCU	ENDS
;	COMDAT _$E5
text$yc	SEGMENT
_$E5	PROC NEAR					; COMDAT

; 17   : 	CONF_LAYOUT_NORMAL,		TYPE_CONFIG_BOOL,

  00000	55		 push	 ebp
  00001	8b ec		 mov	 ebp, esp
  00003	a1 00 00 00 00	 mov	 eax, DWORD PTR _CONF_LAYOUT_NORMAL
  00008	a3 00 00 00 00	 mov	 DWORD PTR _CONF_LAYOUT, eax
  0000d	8b 0d 00 00 00
	00		 mov	 ecx, DWORD PTR _TYPE_CONFIG_BOOL
  00013	89 0d 04 00 00
	00		 mov	 DWORD PTR _CONF_LAYOUT+4, ecx

; 18   : 	CONF_LAYOUT_X_POS,		TYPE_CONFIG_INT,

  00019	8b 15 00 00 00
	00		 mov	 edx, DWORD PTR _CONF_LAYOUT_X_POS
  0001f	89 15 08 00 00
	00		 mov	 DWORD PTR _CONF_LAYOUT+8, edx
  00025	a1 00 00 00 00	 mov	 eax, DWORD PTR _TYPE_CONFIG_INT
  0002a	a3 0c 00 00 00	 mov	 DWORD PTR _CONF_LAYOUT+12, eax

; 19   : 	CONF_LAYOUT_Y_POS,		TYPE_CONFIG_INT,

  0002f	8b 0d 00 00 00
	00		 mov	 ecx, DWORD PTR _CONF_LAYOUT_Y_POS
  00035	89 0d 10 00 00
	00		 mov	 DWORD PTR _CONF_LAYOUT+16, ecx
  0003b	8b 15 00 00 00
	00		 mov	 edx, DWORD PTR _TYPE_CONFIG_INT
  00041	89 15 14 00 00
	00		 mov	 DWORD PTR _CONF_LAYOUT+20, edx

; 20   : 	CONF_LAYOUT_WIDTH,		TYPE_CONFIG_INT,

  00047	a1 00 00 00 00	 mov	 eax, DWORD PTR _CONF_LAYOUT_WIDTH
  0004c	a3 18 00 00 00	 mov	 DWORD PTR _CONF_LAYOUT+24, eax
  00051	8b 0d 00 00 00
	00		 mov	 ecx, DWORD PTR _TYPE_CONFIG_INT
  00057	89 0d 1c 00 00
	00		 mov	 DWORD PTR _CONF_LAYOUT+28, ecx

; 21   : 	CONF_LAYOUT_HEIGHT,		TYPE_CONFIG_INT,

  0005d	8b 15 00 00 00
	00		 mov	 edx, DWORD PTR _CONF_LAYOUT_HEIGHT
  00063	89 15 20 00 00
	00		 mov	 DWORD PTR _CONF_LAYOUT+32, edx
  00069	a1 00 00 00 00	 mov	 eax, DWORD PTR _TYPE_CONFIG_INT
  0006e	a3 24 00 00 00	 mov	 DWORD PTR _CONF_LAYOUT+36, eax

; 22   : 	CONF_LAYOUT_MIN_WIDTH,  TYPE_CONFIG_INT,

  00073	8b 0d 00 00 00
	00		 mov	 ecx, DWORD PTR _CONF_LAYOUT_MIN_WIDTH
  00079	89 0d 28 00 00
	00		 mov	 DWORD PTR _CONF_LAYOUT+40, ecx
  0007f	8b 15 00 00 00
	00		 mov	 edx, DWORD PTR _TYPE_CONFIG_INT
  00085	89 15 2c 00 00
	00		 mov	 DWORD PTR _CONF_LAYOUT+44, edx

; 23   : 	CONF_LAYOUT_MIN_HEIGHT, TYPE_CONFIG_INT

  0008b	a1 00 00 00 00	 mov	 eax, DWORD PTR _CONF_LAYOUT_MIN_HEIGHT
  00090	a3 30 00 00 00	 mov	 DWORD PTR _CONF_LAYOUT+48, eax

; 24   : };

  00095	8b 0d 00 00 00
	00		 mov	 ecx, DWORD PTR _TYPE_CONFIG_INT
  0009b	89 0d 34 00 00
	00		 mov	 DWORD PTR _CONF_LAYOUT+52, ecx
  000a1	5d		 pop	 ebp
  000a2	c3		 ret	 0
_$E5	ENDP
text$yc	ENDS
CRT$XCU	SEGMENT
_$S8	DD	FLAT:_$E7
; Function compile flags: /Odt
; File d:\boxgit\playbox\playbox\dev\prj\playbox\src\appconfig\config\configappdef.h
CRT$XCU	ENDS
;	COMDAT _$E7
text$yc	SEGMENT
_$E7	PROC NEAR					; COMDAT

; 19   : 	CONF_APP_SWF_PATH,			TYPE_CONFIG_STR,

  00000	55		 push	 ebp
  00001	8b ec		 mov	 ebp, esp
  00003	a1 00 00 00 00	 mov	 eax, DWORD PTR _CONF_APP_SWF_PATH
  00008	a3 00 00 00 00	 mov	 DWORD PTR _CONF_APP, eax
  0000d	8b 0d 00 00 00
	00		 mov	 ecx, DWORD PTR _TYPE_CONFIG_STR
  00013	89 0d 04 00 00
	00		 mov	 DWORD PTR _CONF_APP+4, ecx

; 20   : 	CONF_APP_MAINWND_HOLD,		TYPE_CONFIG_BOOL,

  00019	8b 15 00 00 00
	00		 mov	 edx, DWORD PTR _CONF_APP_MAINWND_HOLD
  0001f	89 15 08 00 00
	00		 mov	 DWORD PTR _CONF_APP+8, edx
  00025	a1 00 00 00 00	 mov	 eax, DWORD PTR _TYPE_CONFIG_BOOL
  0002a	a3 0c 00 00 00	 mov	 DWORD PTR _CONF_APP+12, eax

; 21   : 	CONF_APP_RUN_COUNT,			TYPE_CONFIG_INT,

  0002f	8b 0d 00 00 00
	00		 mov	 ecx, DWORD PTR _CONF_APP_RUN_COUNT
  00035	89 0d 10 00 00
	00		 mov	 DWORD PTR _CONF_APP+16, ecx
  0003b	8b 15 00 00 00
	00		 mov	 edx, DWORD PTR _TYPE_CONFIG_INT
  00041	89 15 14 00 00
	00		 mov	 DWORD PTR _CONF_APP+20, edx

; 22   : 	CONF_APP_PLAYED_GAME,		TYPE_CONFIG_INT,

  00047	a1 00 00 00 00	 mov	 eax, DWORD PTR _CONF_APP_PLAYED_GAME
  0004c	a3 18 00 00 00	 mov	 DWORD PTR _CONF_APP+24, eax
  00051	8b 0d 00 00 00
	00		 mov	 ecx, DWORD PTR _TYPE_CONFIG_INT
  00057	89 0d 1c 00 00
	00		 mov	 DWORD PTR _CONF_APP+28, ecx

; 23   : 	CONF_APP_PLAYED_PC_GAME,	TYPE_CONFIG_INT,

  0005d	8b 15 00 00 00
	00		 mov	 edx, DWORD PTR _CONF_APP_PLAYED_PC_GAME
  00063	89 15 20 00 00
	00		 mov	 DWORD PTR _CONF_APP+32, edx
  00069	a1 00 00 00 00	 mov	 eax, DWORD PTR _TYPE_CONFIG_INT
  0006e	a3 24 00 00 00	 mov	 DWORD PTR _CONF_APP+36, eax

; 24   : 	CONF_APP_PLAYED_ICON_SIZE,	TYPE_CONFIG_INT, //panelicon0,1,2

  00073	8b 0d 00 00 00
	00		 mov	 ecx, DWORD PTR _CONF_APP_PLAYED_ICON_SIZE
  00079	89 0d 28 00 00
	00		 mov	 DWORD PTR _CONF_APP+40, ecx
  0007f	8b 15 00 00 00
	00		 mov	 edx, DWORD PTR _TYPE_CONFIG_INT
  00085	89 15 2c 00 00
	00		 mov	 DWORD PTR _CONF_APP+44, edx

; 25   : 	CONF_APP_PIC_SAVE_PATH,		TYPE_CONFIG_STR

  0008b	a1 00 00 00 00	 mov	 eax, DWORD PTR _CONF_APP_PIC_SAVE_PATH
  00090	a3 30 00 00 00	 mov	 DWORD PTR _CONF_APP+48, eax

; 26   : };

  00095	8b 0d 00 00 00
	00		 mov	 ecx, DWORD PTR _TYPE_CONFIG_STR
  0009b	89 0d 34 00 00
	00		 mov	 DWORD PTR _CONF_APP+52, ecx
  000a1	5d		 pop	 ebp
  000a2	c3		 ret	 0
_$E7	ENDP
text$yc	ENDS
CRT$XCU	SEGMENT
_$S10	DD	FLAT:_$E9
; Function compile flags: /Odt
; File d:\boxgit\playbox\playbox\dev\prj\playbox\src\appconfig\config\configsettingdef.h
CRT$XCU	ENDS
;	COMDAT _$E9
text$yc	SEGMENT
_$E9	PROC NEAR					; COMDAT

; 25   : 	CONF_SETTING_SKIN_IDX,				TYPE_CONFIG_STR,

  00000	55		 push	 ebp
  00001	8b ec		 mov	 ebp, esp
  00003	a1 00 00 00 00	 mov	 eax, DWORD PTR _CONF_SETTING_SKIN_IDX
  00008	a3 00 00 00 00	 mov	 DWORD PTR _CONF_SETTING, eax
  0000d	8b 0d 00 00 00
	00		 mov	 ecx, DWORD PTR _TYPE_CONFIG_STR
  00013	89 0d 04 00 00
	00		 mov	 DWORD PTR _CONF_SETTING+4, ecx

; 26   : 	CONF_SETTING_CONFIG_MAIN_PAGE,		TYPE_CONFIG_STR,

  00019	8b 15 00 00 00
	00		 mov	 edx, DWORD PTR _CONF_SETTING_CONFIG_MAIN_PAGE
  0001f	89 15 08 00 00
	00		 mov	 DWORD PTR _CONF_SETTING+8, edx
  00025	a1 00 00 00 00	 mov	 eax, DWORD PTR _TYPE_CONFIG_STR
  0002a	a3 0c 00 00 00	 mov	 DWORD PTR _CONF_SETTING+12, eax

; 27   : 	CONF_SETTING_CONFIG_PROBLEM_REPORT,	TYPE_CONFIG_STR,

  0002f	8b 0d 00 00 00
	00		 mov	 ecx, DWORD PTR _CONF_SETTING_CONFIG_PROBLEM_REPORT
  00035	89 0d 10 00 00
	00		 mov	 DWORD PTR _CONF_SETTING+16, ecx
  0003b	8b 15 00 00 00
	00		 mov	 edx, DWORD PTR _TYPE_CONFIG_STR
  00041	89 15 14 00 00
	00		 mov	 DWORD PTR _CONF_SETTING+20, edx

; 28   : 	CONF_SETTING_CONFIG_HOME_PAGE,		TYPE_CONFIG_STR,

  00047	a1 00 00 00 00	 mov	 eax, DWORD PTR _CONF_SETTING_CONFIG_HOME_PAGE
  0004c	a3 18 00 00 00	 mov	 DWORD PTR _CONF_SETTING+24, eax
  00051	8b 0d 00 00 00
	00		 mov	 ecx, DWORD PTR _TYPE_CONFIG_STR
  00057	89 0d 1c 00 00
	00		 mov	 DWORD PTR _CONF_SETTING+28, ecx

; 29   : 	CONF_SETTING_CONFIG_IFASKEXIT,		TYPE_CONFIG_BOOL,

  0005d	8b 15 00 00 00
	00		 mov	 edx, DWORD PTR _CONF_SETTING_CONFIG_IFASKEXIT
  00063	89 15 20 00 00
	00		 mov	 DWORD PTR _CONF_SETTING+32, edx
  00069	a1 00 00 00 00	 mov	 eax, DWORD PTR _TYPE_CONFIG_BOOL
  0006e	a3 24 00 00 00	 mov	 DWORD PTR _CONF_SETTING+36, eax

; 30   : 	CONF_SETTING_CONFIG_EXITCHOICE,		TYPE_CONFIG_BOOL,

  00073	8b 0d 00 00 00
	00		 mov	 ecx, DWORD PTR _CONF_SETTING_CONFIG_EXITCHOICE
  00079	89 0d 28 00 00
	00		 mov	 DWORD PTR _CONF_SETTING+40, ecx
  0007f	8b 15 00 00 00
	00		 mov	 edx, DWORD PTR _TYPE_CONFIG_BOOL
  00085	89 15 2c 00 00
	00		 mov	 DWORD PTR _CONF_SETTING+44, edx

; 31   : 	CONF_SETTING_LOGIN_USER_NAME,		TYPE_CONFIG_STR,

  0008b	a1 00 00 00 00	 mov	 eax, DWORD PTR _CONF_SETTING_LOGIN_USER_NAME
  00090	a3 30 00 00 00	 mov	 DWORD PTR _CONF_SETTING+48, eax
  00095	8b 0d 00 00 00
	00		 mov	 ecx, DWORD PTR _TYPE_CONFIG_STR
  0009b	89 0d 34 00 00
	00		 mov	 DWORD PTR _CONF_SETTING+52, ecx

; 32   : 	CONF_SETTING_LOGIN_PASSWORD,		TYPE_CONFIG_STR,

  000a1	8b 15 00 00 00
	00		 mov	 edx, DWORD PTR _CONF_SETTING_LOGIN_PASSWORD
  000a7	89 15 38 00 00
	00		 mov	 DWORD PTR _CONF_SETTING+56, edx
  000ad	a1 00 00 00 00	 mov	 eax, DWORD PTR _TYPE_CONFIG_STR
  000b2	a3 3c 00 00 00	 mov	 DWORD PTR _CONF_SETTING+60, eax

; 33   : 	CONF_SETTING_NETID,					TYPE_CONFIG_STR,

  000b7	8b 0d 00 00 00
	00		 mov	 ecx, DWORD PTR _CONF_SETTING_NETID
  000bd	89 0d 40 00 00
	00		 mov	 DWORD PTR _CONF_SETTING+64, ecx
  000c3	8b 15 00 00 00
	00		 mov	 edx, DWORD PTR _TYPE_CONFIG_STR
  000c9	89 15 44 00 00
	00		 mov	 DWORD PTR _CONF_SETTING+68, edx

; 34   : 	CONF_SETTING_COLOR,					TYPE_CONFIG_INT,

  000cf	a1 00 00 00 00	 mov	 eax, DWORD PTR _CONF_SETTING_COLOR
  000d4	a3 48 00 00 00	 mov	 DWORD PTR _CONF_SETTING+72, eax
  000d9	8b 0d 00 00 00
	00		 mov	 ecx, DWORD PTR _TYPE_CONFIG_INT
  000df	89 0d 4c 00 00
	00		 mov	 DWORD PTR _CONF_SETTING+76, ecx

; 35   : 	CONF_SETTING_LIGHT,					TYPE_CONFIG_INT,

  000e5	8b 15 00 00 00
	00		 mov	 edx, DWORD PTR _CONF_SETTING_LIGHT
  000eb	89 15 50 00 00
	00		 mov	 DWORD PTR _CONF_SETTING+80, edx
  000f1	a1 00 00 00 00	 mov	 eax, DWORD PTR _TYPE_CONFIG_INT
  000f6	a3 54 00 00 00	 mov	 DWORD PTR _CONF_SETTING+84, eax

; 36   : 	CONF_SETTING_COLOR_BTN_INDEX,		TYPE_CONFIG_INT,

  000fb	8b 0d 00 00 00
	00		 mov	 ecx, DWORD PTR _CONF_SETTING_COLOR_BTN_INDEX
  00101	89 0d 58 00 00
	00		 mov	 DWORD PTR _CONF_SETTING+88, ecx
  00107	8b 15 00 00 00
	00		 mov	 edx, DWORD PTR _TYPE_CONFIG_INT
  0010d	89 15 5c 00 00
	00		 mov	 DWORD PTR _CONF_SETTING+92, edx

; 37   : 	CONF_SETTING_COLOR_USER,			TYPE_CONFIG_INT,

  00113	a1 00 00 00 00	 mov	 eax, DWORD PTR _CONF_SETTING_COLOR_USER
  00118	a3 60 00 00 00	 mov	 DWORD PTR _CONF_SETTING+96, eax
  0011d	8b 0d 00 00 00
	00		 mov	 ecx, DWORD PTR _TYPE_CONFIG_INT
  00123	89 0d 64 00 00
	00		 mov	 DWORD PTR _CONF_SETTING+100, ecx

; 38   : 	CONF_SETTING_FIRST_TIME_CHANGESKIN, TYPE_CONFIG_BOOL

  00129	8b 15 00 00 00
	00		 mov	 edx, DWORD PTR _CONF_SETTING_FIRST_TIME_CHANGESKIN
  0012f	89 15 68 00 00
	00		 mov	 DWORD PTR _CONF_SETTING+104, edx

; 39   : };

  00135	a1 00 00 00 00	 mov	 eax, DWORD PTR _TYPE_CONFIG_BOOL
  0013a	a3 6c 00 00 00	 mov	 DWORD PTR _CONF_SETTING+108, eax
  0013f	5d		 pop	 ebp
  00140	c3		 ret	 0
_$E9	ENDP
text$yc	ENDS
_BSS	SEGMENT
_CONF_LAYOUT DD	0eH DUP (?)
_CONF_APP DD	0eH DUP (?)
_CONF_SETTING DD 01cH DUP (?)
_BSS	ENDS
END
