; Listing generated by Microsoft (R) Optimizing Compiler Version 13.10.3077 

	TITLE	.\src\module\PlayedGamePanel\PlayedGameWnd.cpp
	.386P
include listing.inc
if @Version gt 510
.model FLAT
else
_TEXT	SEGMENT PARA USE32 PUBLIC 'CODE'
_TEXT	ENDS
_DATA	SEGMENT DWORD USE32 PUBLIC 'DATA'
_DATA	ENDS
CONST	SEGMENT DWORD USE32 PUBLIC 'CONST'
CONST	ENDS
_BSS	SEGMENT DWORD USE32 PUBLIC 'BSS'
_BSS	ENDS
$$SYMBOLS	SEGMENT BYTE USE32 'DEBSYM'
$$SYMBOLS	ENDS
$$TYPES	SEGMENT BYTE USE32 'DEBTYP'
$$TYPES	ENDS
_TLS	SEGMENT DWORD USE32 PUBLIC 'TLS'
_TLS	ENDS
;	COMDAT ??_C@_0BD@OLBABOEK@vector?$DMT?$DO?5too?5long?$AA@
CONST	SEGMENT DWORD USE32 PUBLIC 'CONST'
CONST	ENDS
rdata$r	SEGMENT DWORD USE32 PUBLIC 'CONST'
rdata$r	ENDS
xdata$x	SEGMENT DWORD USE32 PUBLIC 'CONST'
xdata$x	ENDS
text$AFX_COL1	SEGMENT PARA USE32 PUBLIC ''
text$AFX_COL1	ENDS
text$yc	SEGMENT PARA USE32 PUBLIC 'CODE'
text$yc	ENDS
CRT$XCA	SEGMENT DWORD USE32 PUBLIC 'DATA'
CRT$XCA	ENDS
CRT$XCU	SEGMENT DWORD USE32 PUBLIC 'DATA'
CRT$XCU	ENDS
CRT$XCL	SEGMENT DWORD USE32 PUBLIC 'DATA'
CRT$XCL	ENDS
CRT$XCC	SEGMENT DWORD USE32 PUBLIC 'DATA'
CRT$XCC	ENDS
CRT$XCZ	SEGMENT DWORD USE32 PUBLIC 'DATA'
CRT$XCZ	ENDS
text$yd	SEGMENT PARA USE32 PUBLIC 'CODE'
text$yd	ENDS
ATL$__m	SEGMENT DWORD USE32 PUBLIC ''
ATL$__m	ENDS
ATL$__z	SEGMENT DWORD USE32 PUBLIC ''
ATL$__z	ENDS
ATL$__a	SEGMENT DWORD USE32 PUBLIC ''
ATL$__a	ENDS
;	COMDAT ?Unlock@CSyncObject@@UAEHJPAJ@Z
_TEXT	SEGMENT PARA USE32 PUBLIC 'CODE'
_TEXT	ENDS
;	COMDAT ?Init@CCriticalSection@@AAEHXZ
_TEXT	SEGMENT PARA USE32 PUBLIC 'CODE'
_TEXT	ENDS
;	COMDAT ??_GCCriticalSection@@UAEPAXI@Z
_TEXT	SEGMENT PARA USE32 PUBLIC 'CODE'
_TEXT	ENDS
;	COMDAT ??1CCriticalSection@@UAE@XZ
_TEXT	SEGMENT PARA USE32 PUBLIC 'CODE'
_TEXT	ENDS
;	COMDAT ?Lock@CCriticalSection@@QAEHXZ
_TEXT	SEGMENT PARA USE32 PUBLIC 'CODE'
_TEXT	ENDS
;	COMDAT ?Lock@CCriticalSection@@UAEHK@Z
_TEXT	SEGMENT PARA USE32 PUBLIC 'CODE'
_TEXT	ENDS
;	COMDAT ?Unlock@CCriticalSection@@UAEHXZ
_TEXT	SEGMENT PARA USE32 PUBLIC 'CODE'
_TEXT	ENDS
;	COMDAT ??1_tagLMCItemInfo@@QAE@XZ
_TEXT	SEGMENT PARA USE32 PUBLIC 'CODE'
_TEXT	ENDS
;	COMDAT ??1BCMenuMemDC@@UAE@XZ
_TEXT	SEGMENT PARA USE32 PUBLIC 'CODE'
_TEXT	ENDS
;	COMDAT ??_GBCMenuMemDC@@UAEPAXI@Z
_TEXT	SEGMENT PARA USE32 PUBLIC 'CODE'
_TEXT	ENDS
;	COMDAT ??1CShowMenu@@QAE@XZ
_TEXT	SEGMENT PARA USE32 PUBLIC 'CODE'
_TEXT	ENDS
;	COMDAT ?IQQItemChangeOb_CountChange@IQQItemCountChangeObserver@@UAEXI@Z
_TEXT	SEGMENT PARA USE32 PUBLIC 'CODE'
_TEXT	ENDS
;	COMDAT ??1CGdiPlusBitmap@@UAE@XZ
_TEXT	SEGMENT PARA USE32 PUBLIC 'CODE'
_TEXT	ENDS
;	COMDAT ?Empty@CGdiPlusBitmap@@QAEXXZ
_TEXT	SEGMENT PARA USE32 PUBLIC 'CODE'
_TEXT	ENDS
;	COMDAT ?Load@CGdiPlusBitmap@@QAE_NPB_W@Z
_TEXT	SEGMENT PARA USE32 PUBLIC 'CODE'
_TEXT	ENDS
;	COMDAT ??_GCGdiPlusBitmap@@UAEPAXI@Z
_TEXT	SEGMENT PARA USE32 PUBLIC 'CODE'
_TEXT	ENDS
;	COMDAT ??1IData@@MAE@XZ
_TEXT	SEGMENT PARA USE32 PUBLIC 'CODE'
_TEXT	ENDS
;	COMDAT ?DataAppStart@IData@@UAEXXZ
_TEXT	SEGMENT PARA USE32 PUBLIC 'CODE'
_TEXT	ENDS
;	COMDAT ?DataAppExit@IData@@UAEXXZ
_TEXT	SEGMENT PARA USE32 PUBLIC 'CODE'
_TEXT	ENDS
;	COMDAT ??_GIData@@MAEPAXI@Z
_TEXT	SEGMENT PARA USE32 PUBLIC 'CODE'
_TEXT	ENDS
;	COMDAT ??0OneLocalGame@@QAE@XZ
_TEXT	SEGMENT PARA USE32 PUBLIC 'CODE'
_TEXT	ENDS
;	COMDAT ?clear@OneLocalGame@@QAEXXZ
_TEXT	SEGMENT PARA USE32 PUBLIC 'CODE'
_TEXT	ENDS
;	COMDAT _$E5
text$yc	SEGMENT PARA USE32 PUBLIC 'CODE'
text$yc	ENDS
;	COMDAT _$E7
text$yc	SEGMENT PARA USE32 PUBLIC 'CODE'
text$yc	ENDS
;	COMDAT ??_GPlayedGameWnd@@UAEPAXI@Z
_TEXT	SEGMENT PARA USE32 PUBLIC 'CODE'
_TEXT	ENDS
;	COMDAT ??0IQQItemCountChangeObserver@@QAE@XZ
_TEXT	SEGMENT PARA USE32 PUBLIC 'CODE'
_TEXT	ENDS
;	COMDAT ??1IQQItemCountChangeObserver@@UAE@XZ
_TEXT	SEGMENT PARA USE32 PUBLIC 'CODE'
_TEXT	ENDS
;	COMDAT ??_GIQQItemCountChangeObserver@@UAEPAXI@Z
_TEXT	SEGMENT PARA USE32 PUBLIC 'CODE'
_TEXT	ENDS
;	COMDAT ??0IMessageObserver@@QAE@XZ
_TEXT	SEGMENT PARA USE32 PUBLIC 'CODE'
_TEXT	ENDS
;	COMDAT ??_GCShowMenu@@QAEPAXI@Z
_TEXT	SEGMENT PARA USE32 PUBLIC 'CODE'
_TEXT	ENDS
;	COMDAT ??0_tagLMCItemInfo@@QAE@ABU0@@Z
_TEXT	SEGMENT PARA USE32 PUBLIC 'CODE'
_TEXT	ENDS
;	COMDAT ??0TAB_ITEM@@QAE@XZ
_TEXT	SEGMENT PARA USE32 PUBLIC 'CODE'
_TEXT	ENDS
;	COMDAT ??1TAB_ITEM@@QAE@XZ
_TEXT	SEGMENT PARA USE32 PUBLIC 'CODE'
_TEXT	ENDS
;	COMDAT ??1OneLocalGame@@QAE@XZ
_TEXT	SEGMENT PARA USE32 PUBLIC 'CODE'
_TEXT	ENDS
;	COMDAT ??B?$CComPtrBase@UITypeInfo2@@@ATL@@QBEPAUITypeInfo2@@XZ
_TEXT	SEGMENT PARA USE32 PUBLIC 'CODE'
_TEXT	ENDS
;	COMDAT ?equal@?$istreambuf_iterator@DU?$char_traits@D@std@@@std@@QBE_NABV12@@Z
_TEXT	SEGMENT PARA USE32 PUBLIC 'CODE'
_TEXT	ENDS
;	COMDAT ?equal@?$istreambuf_iterator@_WU?$char_traits@_W@std@@@std@@QBE_NABV12@@Z
_TEXT	SEGMENT PARA USE32 PUBLIC 'CODE'
_TEXT	ENDS
;	COMDAT ??A?$vector@U_tagLMCItemInfo@@V?$allocator@U_tagLMCItemInfo@@@std@@@std@@QAEAAU_tagLMCItemInfo@@I@Z
_TEXT	SEGMENT PARA USE32 PUBLIC 'CODE'
_TEXT	ENDS
;	COMDAT ??0?$vector@UOneLocalGame@@V?$allocator@UOneLocalGame@@@std@@@std@@QAE@XZ
_TEXT	SEGMENT PARA USE32 PUBLIC 'CODE'
_TEXT	ENDS
;	COMDAT ??1?$vector@UOneLocalGame@@V?$allocator@UOneLocalGame@@@std@@@std@@QAE@XZ
_TEXT	SEGMENT PARA USE32 PUBLIC 'CODE'
_TEXT	ENDS
;	COMDAT ?begin@?$vector@UOneLocalGame@@V?$allocator@UOneLocalGame@@@std@@@std@@QAE?AViterator@12@XZ
_TEXT	SEGMENT PARA USE32 PUBLIC 'CODE'
_TEXT	ENDS
;	COMDAT ?end@?$vector@UOneLocalGame@@V?$allocator@UOneLocalGame@@@std@@@std@@QAE?AViterator@12@XZ
_TEXT	SEGMENT PARA USE32 PUBLIC 'CODE'
_TEXT	ENDS
;	COMDAT ??0?$vector@HV?$allocator@H@std@@@std@@QAE@XZ
_TEXT	SEGMENT PARA USE32 PUBLIC 'CODE'
_TEXT	ENDS
;	COMDAT ??1?$vector@HV?$allocator@H@std@@@std@@QAE@XZ
_TEXT	SEGMENT PARA USE32 PUBLIC 'CODE'
_TEXT	ENDS
;	COMDAT ??4?$vector@HV?$allocator@H@std@@@std@@QAEAAV01@ABV01@@Z
_TEXT	SEGMENT PARA USE32 PUBLIC 'CODE'
_TEXT	ENDS
;	COMDAT ?size@?$vector@HV?$allocator@H@std@@@std@@QBEIXZ
_TEXT	SEGMENT PARA USE32 PUBLIC 'CODE'
_TEXT	ENDS
;	COMDAT ??A?$vector@HV?$allocator@H@std@@@std@@QAEAAHI@Z
_TEXT	SEGMENT PARA USE32 PUBLIC 'CODE'
_TEXT	ENDS
;	COMDAT ??0?$vector@V?$basic_string@DU?$char_traits@D@std@@V?$allocator@D@2@@std@@V?$allocator@V?$basic_string@DU?$char_traits@D@std@@V?$allocator@D@2@@std@@@2@@std@@QAE@XZ
_TEXT	SEGMENT PARA USE32 PUBLIC 'CODE'
_TEXT	ENDS
;	COMDAT ??1?$vector@V?$basic_string@DU?$char_traits@D@std@@V?$allocator@D@2@@std@@V?$allocator@V?$basic_string@DU?$char_traits@D@std@@V?$allocator@D@2@@std@@@2@@std@@QAE@XZ
_TEXT	SEGMENT PARA USE32 PUBLIC 'CODE'
_TEXT	ENDS
;	COMDAT ?begin@?$vector@V?$basic_string@DU?$char_traits@D@std@@V?$allocator@D@2@@std@@V?$allocator@V?$basic_string@DU?$char_traits@D@std@@V?$allocator@D@2@@std@@@2@@std@@QAE?AViterator@12@XZ
_TEXT	SEGMENT PARA USE32 PUBLIC 'CODE'
_TEXT	ENDS
;	COMDAT ?end@?$vector@V?$basic_string@DU?$char_traits@D@std@@V?$allocator@D@2@@std@@V?$allocator@V?$basic_string@DU?$char_traits@D@std@@V?$allocator@D@2@@std@@@2@@std@@QAE?AViterator@12@XZ
_TEXT	SEGMENT PARA USE32 PUBLIC 'CODE'
_TEXT	ENDS
;	COMDAT ?push_back@?$vector@V?$basic_string@DU?$char_traits@D@std@@V?$allocator@D@2@@std@@V?$allocator@V?$basic_string@DU?$char_traits@D@std@@V?$allocator@D@2@@std@@@2@@std@@QAEXABV?$basic_string@DU?$char_traits@D@std@@V?$allocator@D@2@@2@@Z
_TEXT	SEGMENT PARA USE32 PUBLIC 'CODE'
_TEXT	ENDS
;	COMDAT ?clear@?$vector@V?$basic_string@DU?$char_traits@D@std@@V?$allocator@D@2@@std@@V?$allocator@V?$basic_string@DU?$char_traits@D@std@@V?$allocator@D@2@@std@@@2@@std@@QAEXXZ
_TEXT	SEGMENT PARA USE32 PUBLIC 'CODE'
_TEXT	ENDS
;	COMDAT ??Diterator@?$vector@V?$basic_string@DU?$char_traits@D@std@@V?$allocator@D@2@@std@@V?$allocator@V?$basic_string@DU?$char_traits@D@std@@V?$allocator@D@2@@std@@@2@@std@@QBEAAV?$basic_string@DU?$char_traits@D@std@@V?$allocator@D@2@@2@XZ
_TEXT	SEGMENT PARA USE32 PUBLIC 'CODE'
_TEXT	ENDS
;	COMDAT ??Eiterator@?$vector@V?$basic_string@DU?$char_traits@D@std@@V?$allocator@D@2@@std@@V?$allocator@V?$basic_string@DU?$char_traits@D@std@@V?$allocator@D@2@@std@@@2@@std@@QAE?AV012@H@Z
_TEXT	SEGMENT PARA USE32 PUBLIC 'CODE'
_TEXT	ENDS
;	COMDAT ??9const_iterator@?$vector@V?$basic_string@DU?$char_traits@D@std@@V?$allocator@D@2@@std@@V?$allocator@V?$basic_string@DU?$char_traits@D@std@@V?$allocator@D@2@@std@@@2@@std@@QBE_NABV012@@Z
_TEXT	SEGMENT PARA USE32 PUBLIC 'CODE'
_TEXT	ENDS
;	COMDAT ??Citerator@?$vector@UOneLocalGame@@V?$allocator@UOneLocalGame@@@std@@@std@@QBEPAUOneLocalGame@@XZ
_TEXT	SEGMENT PARA USE32 PUBLIC 'CODE'
_TEXT	ENDS
;	COMDAT ??Eiterator@?$vector@UOneLocalGame@@V?$allocator@UOneLocalGame@@@std@@@std@@QAE?AV012@H@Z
_TEXT	SEGMENT PARA USE32 PUBLIC 'CODE'
_TEXT	ENDS
;	COMDAT ??9const_iterator@?$vector@UOneLocalGame@@V?$allocator@UOneLocalGame@@@std@@@std@@QBE_NABV012@@Z
_TEXT	SEGMENT PARA USE32 PUBLIC 'CODE'
_TEXT	ENDS
;	COMDAT ?StringFindCharRev@?$ChTraitsCRT@D@ATL@@SAPBDPBDD@Z
_TEXT	SEGMENT PARA USE32 PUBLIC 'CODE'
_TEXT	ENDS
;	COMDAT ??0?$allocator@V?$basic_string@DU?$char_traits@D@std@@V?$allocator@D@2@@std@@@std@@QAE@XZ
_TEXT	SEGMENT PARA USE32 PUBLIC 'CODE'
_TEXT	ENDS
;	COMDAT ?begin@?$vector@U_tagLMCItemInfo@@V?$allocator@U_tagLMCItemInfo@@@std@@@std@@QAE?AViterator@12@XZ
_TEXT	SEGMENT PARA USE32 PUBLIC 'CODE'
_TEXT	ENDS
;	COMDAT ?_Buy@?$vector@UOneLocalGame@@V?$allocator@UOneLocalGame@@@std@@@std@@IAE_NI@Z
_TEXT	SEGMENT PARA USE32 PUBLIC 'CODE'
_TEXT	ENDS
;	COMDAT ?_Tidy@?$vector@UOneLocalGame@@V?$allocator@UOneLocalGame@@@std@@@std@@IAEXXZ
_TEXT	SEGMENT PARA USE32 PUBLIC 'CODE'
_TEXT	ENDS
;	COMDAT ??0?$_Vector_val@UOneLocalGame@@V?$allocator@UOneLocalGame@@@std@@@std@@IAE@V?$allocator@UOneLocalGame@@@1@@Z
_TEXT	SEGMENT PARA USE32 PUBLIC 'CODE'
_TEXT	ENDS
;	COMDAT ??0?$allocator@UOneLocalGame@@@std@@QAE@XZ
_TEXT	SEGMENT PARA USE32 PUBLIC 'CODE'
_TEXT	ENDS
;	COMDAT ?capacity@?$vector@HV?$allocator@H@std@@@std@@QBEIXZ
_TEXT	SEGMENT PARA USE32 PUBLIC 'CODE'
_TEXT	ENDS
;	COMDAT ?begin@?$vector@HV?$allocator@H@std@@@std@@QAE?AViterator@12@XZ
_TEXT	SEGMENT PARA USE32 PUBLIC 'CODE'
_TEXT	ENDS
;	COMDAT ?clear@?$vector@HV?$allocator@H@std@@@std@@QAEXXZ
_TEXT	SEGMENT PARA USE32 PUBLIC 'CODE'
_TEXT	ENDS
;	COMDAT ?_Buy@?$vector@HV?$allocator@H@std@@@std@@IAE_NI@Z
_TEXT	SEGMENT PARA USE32 PUBLIC 'CODE'
_TEXT	ENDS
;	COMDAT ?_Destroy@?$vector@HV?$allocator@H@std@@@std@@IAEXPAH0@Z
_TEXT	SEGMENT PARA USE32 PUBLIC 'CODE'
_TEXT	ENDS
;	COMDAT ?_Tidy@?$vector@HV?$allocator@H@std@@@std@@IAEXXZ
_TEXT	SEGMENT PARA USE32 PUBLIC 'CODE'
_TEXT	ENDS
;	COMDAT ??0?$_Vector_val@HV?$allocator@H@std@@@std@@IAE@V?$allocator@H@1@@Z
_TEXT	SEGMENT PARA USE32 PUBLIC 'CODE'
_TEXT	ENDS
;	COMDAT ??0?$allocator@H@std@@QAE@XZ
_TEXT	SEGMENT PARA USE32 PUBLIC 'CODE'
_TEXT	ENDS
;	COMDAT ?deallocate@?$allocator@H@std@@QAEXPAHI@Z
_TEXT	SEGMENT PARA USE32 PUBLIC 'CODE'
_TEXT	ENDS
;	COMDAT ?capacity@?$vector@V?$basic_string@DU?$char_traits@D@std@@V?$allocator@D@2@@std@@V?$allocator@V?$basic_string@DU?$char_traits@D@std@@V?$allocator@D@2@@std@@@2@@std@@QBEIXZ
_TEXT	SEGMENT PARA USE32 PUBLIC 'CODE'
_TEXT	ENDS
;	COMDAT ?size@?$vector@V?$basic_string@DU?$char_traits@D@std@@V?$allocator@D@2@@std@@V?$allocator@V?$basic_string@DU?$char_traits@D@std@@V?$allocator@D@2@@std@@@2@@std@@QBEIXZ
_TEXT	SEGMENT PARA USE32 PUBLIC 'CODE'
_TEXT	ENDS
;	COMDAT ?insert@?$vector@V?$basic_string@DU?$char_traits@D@std@@V?$allocator@D@2@@std@@V?$allocator@V?$basic_string@DU?$char_traits@D@std@@V?$allocator@D@2@@std@@@2@@std@@QAE?AViterator@12@V312@ABV?$basic_string@DU?$char_traits@D@std@@V?$allocator@D@2@@2@@Z
_TEXT	SEGMENT PARA USE32 PUBLIC 'CODE'
_TEXT	ENDS
;	COMDAT ?_Buy@?$vector@V?$basic_string@DU?$char_traits@D@std@@V?$allocator@D@2@@std@@V?$allocator@V?$basic_string@DU?$char_traits@D@std@@V?$allocator@D@2@@std@@@2@@std@@IAE_NI@Z
_TEXT	SEGMENT PARA USE32 PUBLIC 'CODE'
_TEXT	ENDS
;	COMDAT ?_Tidy@?$vector@V?$basic_string@DU?$char_traits@D@std@@V?$allocator@D@2@@std@@V?$allocator@V?$basic_string@DU?$char_traits@D@std@@V?$allocator@D@2@@std@@@2@@std@@IAEXXZ
_TEXT	SEGMENT PARA USE32 PUBLIC 'CODE'
_TEXT	ENDS
;	COMDAT ?_Ufill@?$vector@V?$basic_string@DU?$char_traits@D@std@@V?$allocator@D@2@@std@@V?$allocator@V?$basic_string@DU?$char_traits@D@std@@V?$allocator@D@2@@std@@@2@@std@@IAEPAV?$basic_string@DU?$char_traits@D@std@@V?$allocator@D@2@@2@PAV32@IABV32@@Z
_TEXT	SEGMENT PARA USE32 PUBLIC 'CODE'
_TEXT	ENDS
;	COMDAT ??0?$_Vector_val@V?$basic_string@DU?$char_traits@D@std@@V?$allocator@D@2@@std@@V?$allocator@V?$basic_string@DU?$char_traits@D@std@@V?$allocator@D@2@@std@@@2@@std@@IAE@V?$allocator@V?$basic_string@DU?$char_traits@D@std@@V?$allocator@D@2@@std@@@1@@Z
_TEXT	SEGMENT PARA USE32 PUBLIC 'CODE'
_TEXT	ENDS
;	COMDAT ??0iterator@?$vector@V?$basic_string@DU?$char_traits@D@std@@V?$allocator@D@2@@std@@V?$allocator@V?$basic_string@DU?$char_traits@D@std@@V?$allocator@D@2@@std@@@2@@std@@QAE@PAV?$basic_string@DU?$char_traits@D@std@@V?$allocator@D@2@@2@@Z
_TEXT	SEGMENT PARA USE32 PUBLIC 'CODE'
_TEXT	ENDS
;	COMDAT ??Eiterator@?$vector@V?$basic_string@DU?$char_traits@D@std@@V?$allocator@D@2@@std@@V?$allocator@V?$basic_string@DU?$char_traits@D@std@@V?$allocator@D@2@@std@@@2@@std@@QAEAAV012@XZ
_TEXT	SEGMENT PARA USE32 PUBLIC 'CODE'
_TEXT	ENDS
;	COMDAT ??Dconst_iterator@?$vector@V?$basic_string@DU?$char_traits@D@std@@V?$allocator@D@2@@std@@V?$allocator@V?$basic_string@DU?$char_traits@D@std@@V?$allocator@D@2@@std@@@2@@std@@QBEABV?$basic_string@DU?$char_traits@D@std@@V?$allocator@D@2@@2@XZ
_TEXT	SEGMENT PARA USE32 PUBLIC 'CODE'
_TEXT	ENDS
;	COMDAT ??8const_iterator@?$vector@V?$basic_string@DU?$char_traits@D@std@@V?$allocator@D@2@@std@@V?$allocator@V?$basic_string@DU?$char_traits@D@std@@V?$allocator@D@2@@std@@@2@@std@@QBE_NABV012@@Z
_TEXT	SEGMENT PARA USE32 PUBLIC 'CODE'
_TEXT	ENDS
;	COMDAT ??0iterator@?$vector@UOneLocalGame@@V?$allocator@UOneLocalGame@@@std@@@std@@QAE@PAUOneLocalGame@@@Z
_TEXT	SEGMENT PARA USE32 PUBLIC 'CODE'
_TEXT	ENDS
;	COMDAT ??Diterator@?$vector@UOneLocalGame@@V?$allocator@UOneLocalGame@@@std@@@std@@QBEAAUOneLocalGame@@XZ
_TEXT	SEGMENT PARA USE32 PUBLIC 'CODE'
_TEXT	ENDS
;	COMDAT ??Eiterator@?$vector@UOneLocalGame@@V?$allocator@UOneLocalGame@@@std@@@std@@QAEAAV012@XZ
_TEXT	SEGMENT PARA USE32 PUBLIC 'CODE'
_TEXT	ENDS
;	COMDAT ??8const_iterator@?$vector@UOneLocalGame@@V?$allocator@UOneLocalGame@@@std@@@std@@QBE_NABV012@@Z
_TEXT	SEGMENT PARA USE32 PUBLIC 'CODE'
_TEXT	ENDS
;	COMDAT ??Diterator@?$vector@U_tagLMCItemInfo@@V?$allocator@U_tagLMCItemInfo@@@std@@@std@@QBEAAU_tagLMCItemInfo@@XZ
_TEXT	SEGMENT PARA USE32 PUBLIC 'CODE'
_TEXT	ENDS
;	COMDAT ??Hiterator@?$vector@U_tagLMCItemInfo@@V?$allocator@U_tagLMCItemInfo@@@std@@@std@@QBE?AV012@H@Z
_TEXT	SEGMENT PARA USE32 PUBLIC 'CODE'
_TEXT	ENDS
;	COMDAT ??Diterator@?$vector@HV?$allocator@H@std@@@std@@QBEAAHXZ
_TEXT	SEGMENT PARA USE32 PUBLIC 'CODE'
_TEXT	ENDS
;	COMDAT ??Hiterator@?$vector@HV?$allocator@H@std@@@std@@QBE?AV012@H@Z
_TEXT	SEGMENT PARA USE32 PUBLIC 'CODE'
_TEXT	ENDS
;	COMDAT ??0?$allocator@V?$basic_string@DU?$char_traits@D@std@@V?$allocator@D@2@@std@@@std@@QAE@ABV01@@Z
_TEXT	SEGMENT PARA USE32 PUBLIC 'CODE'
_TEXT	ENDS
;	COMDAT ?deallocate@?$allocator@V?$basic_string@DU?$char_traits@D@std@@V?$allocator@D@2@@std@@@std@@QAEXPAV?$basic_string@DU?$char_traits@D@std@@V?$allocator@D@2@@2@I@Z
_TEXT	SEGMENT PARA USE32 PUBLIC 'CODE'
_TEXT	ENDS
;	COMDAT ?allocate@?$allocator@V?$basic_string@DU?$char_traits@D@std@@V?$allocator@D@2@@std@@@std@@QAEPAV?$basic_string@DU?$char_traits@D@std@@V?$allocator@D@2@@2@I@Z
_TEXT	SEGMENT PARA USE32 PUBLIC 'CODE'
_TEXT	ENDS
;	COMDAT ??0iterator@?$basic_string@DU?$char_traits@D@std@@V?$allocator@D@2@@std@@QAE@PAD@Z
_TEXT	SEGMENT PARA USE32 PUBLIC 'CODE'
_TEXT	ENDS
;	COMDAT ?max_size@?$vector@UOneLocalGame@@V?$allocator@UOneLocalGame@@@std@@@std@@QBEIXZ
_TEXT	SEGMENT PARA USE32 PUBLIC 'CODE'
_TEXT	ENDS
;	COMDAT ?_Destroy@?$vector@UOneLocalGame@@V?$allocator@UOneLocalGame@@@std@@@std@@IAEXPAUOneLocalGame@@0@Z
_TEXT	SEGMENT PARA USE32 PUBLIC 'CODE'
_TEXT	ENDS
;	COMDAT ?_Xlen@?$vector@UOneLocalGame@@V?$allocator@UOneLocalGame@@@std@@@std@@IBEXXZ
_TEXT	SEGMENT PARA USE32 PUBLIC 'CODE'
_TEXT	ENDS
;	COMDAT ??0?$allocator@UOneLocalGame@@@std@@QAE@ABV01@@Z
_TEXT	SEGMENT PARA USE32 PUBLIC 'CODE'
_TEXT	ENDS
;	COMDAT ?deallocate@?$allocator@UOneLocalGame@@@std@@QAEXPAUOneLocalGame@@I@Z
_TEXT	SEGMENT PARA USE32 PUBLIC 'CODE'
_TEXT	ENDS
;	COMDAT ?allocate@?$allocator@UOneLocalGame@@@std@@QAEPAUOneLocalGame@@I@Z
_TEXT	SEGMENT PARA USE32 PUBLIC 'CODE'
_TEXT	ENDS
;	COMDAT ?max_size@?$vector@HV?$allocator@H@std@@@std@@QBEIXZ
_TEXT	SEGMENT PARA USE32 PUBLIC 'CODE'
_TEXT	ENDS
;	COMDAT ?_Xlen@?$vector@HV?$allocator@H@std@@@std@@IBEXXZ
_TEXT	SEGMENT PARA USE32 PUBLIC 'CODE'
_TEXT	ENDS
;	COMDAT ??0?$allocator@H@std@@QAE@ABV01@@Z
_TEXT	SEGMENT PARA USE32 PUBLIC 'CODE'
_TEXT	ENDS
;	COMDAT ?allocate@?$allocator@H@std@@QAEPAHI@Z
_TEXT	SEGMENT PARA USE32 PUBLIC 'CODE'
_TEXT	ENDS
;	COMDAT ?max_size@?$vector@V?$basic_string@DU?$char_traits@D@std@@V?$allocator@D@2@@std@@V?$allocator@V?$basic_string@DU?$char_traits@D@std@@V?$allocator@D@2@@std@@@2@@std@@QBEIXZ
_TEXT	SEGMENT PARA USE32 PUBLIC 'CODE'
_TEXT	ENDS
;	COMDAT ?_Destroy@?$vector@V?$basic_string@DU?$char_traits@D@std@@V?$allocator@D@2@@std@@V?$allocator@V?$basic_string@DU?$char_traits@D@std@@V?$allocator@D@2@@std@@@2@@std@@IAEXPAV?$basic_string@DU?$char_traits@D@std@@V?$allocator@D@2@@2@0@Z
_TEXT	SEGMENT PARA USE32 PUBLIC 'CODE'
_TEXT	ENDS
;	COMDAT ?_Insert_n@?$vector@V?$basic_string@DU?$char_traits@D@std@@V?$allocator@D@2@@std@@V?$allocator@V?$basic_string@DU?$char_traits@D@std@@V?$allocator@D@2@@std@@@2@@std@@IAEXViterator@12@IABV?$basic_string@DU?$char_traits@D@std@@V?$allocator@D@2@@2@@Z
_TEXT	SEGMENT PARA USE32 PUBLIC 'CODE'
_TEXT	ENDS
;	COMDAT ?_Xlen@?$vector@V?$basic_string@DU?$char_traits@D@std@@V?$allocator@D@2@@std@@V?$allocator@V?$basic_string@DU?$char_traits@D@std@@V?$allocator@D@2@@std@@@2@@std@@IBEXXZ
_TEXT	SEGMENT PARA USE32 PUBLIC 'CODE'
_TEXT	ENDS
;	COMDAT ??Hiterator@?$vector@V?$basic_string@DU?$char_traits@D@std@@V?$allocator@D@2@@std@@V?$allocator@V?$basic_string@DU?$char_traits@D@std@@V?$allocator@D@2@@std@@@2@@std@@QBE?AV012@H@Z
_TEXT	SEGMENT PARA USE32 PUBLIC 'CODE'
_TEXT	ENDS
;	COMDAT ??Giterator@?$vector@V?$basic_string@DU?$char_traits@D@std@@V?$allocator@D@2@@std@@V?$allocator@V?$basic_string@DU?$char_traits@D@std@@V?$allocator@D@2@@std@@@2@@std@@QBEHABVconst_iterator@12@@Z
_TEXT	SEGMENT PARA USE32 PUBLIC 'CODE'
_TEXT	ENDS
;	COMDAT ??0const_iterator@?$vector@V?$basic_string@DU?$char_traits@D@std@@V?$allocator@D@2@@std@@V?$allocator@V?$basic_string@DU?$char_traits@D@std@@V?$allocator@D@2@@std@@@2@@std@@QAE@PAV?$basic_string@DU?$char_traits@D@std@@V?$allocator@D@2@@2@@Z
_TEXT	SEGMENT PARA USE32 PUBLIC 'CODE'
_TEXT	ENDS
;	COMDAT ??0const_iterator@?$vector@UOneLocalGame@@V?$allocator@UOneLocalGame@@@std@@@std@@QAE@PAUOneLocalGame@@@Z
_TEXT	SEGMENT PARA USE32 PUBLIC 'CODE'
_TEXT	ENDS
;	COMDAT ??Dconst_iterator@?$vector@UOneLocalGame@@V?$allocator@UOneLocalGame@@@std@@@std@@QBEABUOneLocalGame@@XZ
_TEXT	SEGMENT PARA USE32 PUBLIC 'CODE'
_TEXT	ENDS
;	COMDAT ??0iterator@?$vector@U_tagLMCItemInfo@@V?$allocator@U_tagLMCItemInfo@@@std@@@std@@QAE@PAU_tagLMCItemInfo@@@Z
_TEXT	SEGMENT PARA USE32 PUBLIC 'CODE'
_TEXT	ENDS
;	COMDAT ??Yiterator@?$vector@U_tagLMCItemInfo@@V?$allocator@U_tagLMCItemInfo@@@std@@@std@@QAEAAV012@H@Z
_TEXT	SEGMENT PARA USE32 PUBLIC 'CODE'
_TEXT	ENDS
;	COMDAT ??Dconst_iterator@?$vector@U_tagLMCItemInfo@@V?$allocator@U_tagLMCItemInfo@@@std@@@std@@QBEABU_tagLMCItemInfo@@XZ
_TEXT	SEGMENT PARA USE32 PUBLIC 'CODE'
_TEXT	ENDS
;	COMDAT ??0iterator@?$vector@HV?$allocator@H@std@@@std@@QAE@PAH@Z
_TEXT	SEGMENT PARA USE32 PUBLIC 'CODE'
_TEXT	ENDS
;	COMDAT ??Yiterator@?$vector@HV?$allocator@H@std@@@std@@QAEAAV012@H@Z
_TEXT	SEGMENT PARA USE32 PUBLIC 'CODE'
_TEXT	ENDS
;	COMDAT ??Dconst_iterator@?$vector@HV?$allocator@H@std@@@std@@QBEABHXZ
_TEXT	SEGMENT PARA USE32 PUBLIC 'CODE'
_TEXT	ENDS
;	COMDAT ??0length_error@std@@QAE@ABV01@@Z
_TEXT	SEGMENT PARA USE32 PUBLIC 'CODE'
_TEXT	ENDS
;	COMDAT ?max_size@?$allocator@V?$basic_string@DU?$char_traits@D@std@@V?$allocator@D@2@@std@@@std@@QBEIXZ
_TEXT	SEGMENT PARA USE32 PUBLIC 'CODE'
_TEXT	ENDS
;	COMDAT ??0const_iterator@?$basic_string@DU?$char_traits@D@std@@V?$allocator@D@2@@std@@QAE@PBD@Z
_TEXT	SEGMENT PARA USE32 PUBLIC 'CODE'
_TEXT	ENDS
;	COMDAT ??Gconst_iterator@?$basic_string@DU?$char_traits@D@std@@V?$allocator@D@2@@std@@QBEHABV012@@Z
_TEXT	SEGMENT PARA USE32 PUBLIC 'CODE'
_TEXT	ENDS
;	COMDAT ?max_size@?$allocator@UOneLocalGame@@@std@@QBEIXZ
_TEXT	SEGMENT PARA USE32 PUBLIC 'CODE'
_TEXT	ENDS
;	COMDAT ?max_size@?$allocator@H@std@@QBEIXZ
_TEXT	SEGMENT PARA USE32 PUBLIC 'CODE'
_TEXT	ENDS
;	COMDAT ??Yiterator@?$vector@V?$basic_string@DU?$char_traits@D@std@@V?$allocator@D@2@@std@@V?$allocator@V?$basic_string@DU?$char_traits@D@std@@V?$allocator@D@2@@std@@@2@@std@@QAEAAV012@H@Z
_TEXT	SEGMENT PARA USE32 PUBLIC 'CODE'
_TEXT	ENDS
;	COMDAT ??Gconst_iterator@?$vector@V?$basic_string@DU?$char_traits@D@std@@V?$allocator@D@2@@std@@V?$allocator@V?$basic_string@DU?$char_traits@D@std@@V?$allocator@D@2@@std@@@2@@std@@QBEHABV012@@Z
_TEXT	SEGMENT PARA USE32 PUBLIC 'CODE'
_TEXT	ENDS
;	COMDAT ??0const_iterator@?$vector@U_tagLMCItemInfo@@V?$allocator@U_tagLMCItemInfo@@@std@@@std@@QAE@PAU_tagLMCItemInfo@@@Z
_TEXT	SEGMENT PARA USE32 PUBLIC 'CODE'
_TEXT	ENDS
;	COMDAT ??0const_iterator@?$vector@HV?$allocator@H@std@@@std@@QAE@PAH@Z
_TEXT	SEGMENT PARA USE32 PUBLIC 'CODE'
_TEXT	ENDS
;	COMDAT ?Unlock@?$CComCritSecLock@VCComCriticalSection@ATL@@@ATL@@QAEXXZ
_TEXT	SEGMENT PARA USE32 PUBLIC 'CODE'
_TEXT	ENDS
;	COMDAT ??1?$CArray@HAAH@@UAE@XZ
_TEXT	SEGMENT PARA USE32 PUBLIC 'CODE'
_TEXT	ENDS
;	COMDAT ?Serialize@?$CArray@HAAH@@UAEXAAVCArchive@@@Z
_TEXT	SEGMENT PARA USE32 PUBLIC 'CODE'
_TEXT	ENDS
;	COMDAT ??$copy@PAHPAH@std@@YAPAHPAH00@Z
_TEXT	SEGMENT PARA USE32 PUBLIC 'CODE'
_TEXT	ENDS
;	COMDAT ??$_Ucopy@PAH@?$vector@HV?$allocator@H@std@@@std@@IAEPAHPAH00@Z
_TEXT	SEGMENT PARA USE32 PUBLIC 'CODE'
_TEXT	ENDS
;	COMDAT ??$_Destroy_range@HV?$allocator@H@std@@@std@@YAXPAH0AAV?$allocator@H@0@@Z
_TEXT	SEGMENT PARA USE32 PUBLIC 'CODE'
_TEXT	ENDS
;	COMDAT ??$_Uninitialized_fill_n@PAV?$basic_string@DU?$char_traits@D@std@@V?$allocator@D@2@@std@@IV12@V?$allocator@V?$basic_string@DU?$char_traits@D@std@@V?$allocator@D@2@@std@@@2@@std@@YAXPAV?$basic_string@DU?$char_traits@D@std@@V?$allocator@D@2@@0@IABV10@AAV?$allocator@V?$basic_string@DU?$char_traits@D@std@@V?$allocator@D@2@@std@@@0@@Z
_TEXT	SEGMENT PARA USE32 PUBLIC 'CODE'
_TEXT	ENDS
;	COMDAT ??$_Maklocstr@D@std@@YAPADPBDPADABU_Cvtvec@@@Z
_TEXT	SEGMENT PARA USE32 PUBLIC 'CODE'
_TEXT	ENDS
;	COMDAT ??$_Allocate@V?$basic_string@DU?$char_traits@D@std@@V?$allocator@D@2@@std@@@std@@YAPAV?$basic_string@DU?$char_traits@D@std@@V?$allocator@D@2@@0@IPAV10@@Z
_TEXT	SEGMENT PARA USE32 PUBLIC 'CODE'
_TEXT	ENDS
;	COMDAT ??$_Destroy_range@UOneLocalGame@@V?$allocator@UOneLocalGame@@@std@@@std@@YAXPAUOneLocalGame@@0AAV?$allocator@UOneLocalGame@@@0@@Z
_TEXT	SEGMENT PARA USE32 PUBLIC 'CODE'
_TEXT	ENDS
;	COMDAT ??$_Allocate@UOneLocalGame@@@std@@YAPAUOneLocalGame@@IPAU1@@Z
_TEXT	SEGMENT PARA USE32 PUBLIC 'CODE'
_TEXT	ENDS
;	COMDAT ??$_Allocate@H@std@@YAPAHIPAH@Z
_TEXT	SEGMENT PARA USE32 PUBLIC 'CODE'
_TEXT	ENDS
;	COMDAT ??$_Destroy_range@V?$basic_string@DU?$char_traits@D@std@@V?$allocator@D@2@@std@@V?$allocator@V?$basic_string@DU?$char_traits@D@std@@V?$allocator@D@2@@std@@@2@@std@@YAXPAV?$basic_string@DU?$char_traits@D@std@@V?$allocator@D@2@@0@0AAV?$allocator@V?$basic_string@DU?$char_traits@D@std@@V?$allocator@D@2@@std@@@0@@Z
_TEXT	SEGMENT PARA USE32 PUBLIC 'CODE'
_TEXT	ENDS
;	COMDAT ??$_Ucopy@PAV?$basic_string@DU?$char_traits@D@std@@V?$allocator@D@2@@std@@@?$vector@V?$basic_string@DU?$char_traits@D@std@@V?$allocator@D@2@@std@@V?$allocator@V?$basic_string@DU?$char_traits@D@std@@V?$allocator@D@2@@std@@@2@@std@@IAEPAV?$basic_string@DU?$char_traits@D@std@@V?$allocator@D@2@@1@PAV21@00@Z
_TEXT	SEGMENT PARA USE32 PUBLIC 'CODE'
_TEXT	ENDS
;	COMDAT ??$fill@PAV?$basic_string@DU?$char_traits@D@std@@V?$allocator@D@2@@std@@V12@@std@@YAXPAV?$basic_string@DU?$char_traits@D@std@@V?$allocator@D@2@@0@0ABV10@@Z
_TEXT	SEGMENT PARA USE32 PUBLIC 'CODE'
_TEXT	ENDS
;	COMDAT ??$copy_backward@PAV?$basic_string@DU?$char_traits@D@std@@V?$allocator@D@2@@std@@PAV12@@std@@YAPAV?$basic_string@DU?$char_traits@D@std@@V?$allocator@D@2@@0@PAV10@00@Z
_TEXT	SEGMENT PARA USE32 PUBLIC 'CODE'
_TEXT	ENDS
;	COMDAT ??_G?$CArray@HAAH@@UAEPAXI@Z
_TEXT	SEGMENT PARA USE32 PUBLIC 'CODE'
_TEXT	ENDS
;	COMDAT ?SetSize@?$CArray@HAAH@@QAEXHH@Z
_TEXT	SEGMENT PARA USE32 PUBLIC 'CODE'
_TEXT	ENDS
;	COMDAT ??$SerializeElements@H@@YGXAAVCArchive@@PAHH@Z
_TEXT	SEGMENT PARA USE32 PUBLIC 'CODE'
_TEXT	ENDS
;	COMDAT ??$_Copy_opt@PAHPAH@std@@YAPAHPAH00U_Scalar_ptr_iterator_tag@0@@Z
_TEXT	SEGMENT PARA USE32 PUBLIC 'CODE'
_TEXT	ENDS
;	COMDAT ??$_Uninitialized_copy@PAHPAHV?$allocator@H@std@@@std@@YAPAHPAH00AAV?$allocator@H@0@@Z
_TEXT	SEGMENT PARA USE32 PUBLIC 'CODE'
_TEXT	ENDS
;	COMDAT ??$_Destroy_range@HV?$allocator@H@std@@@std@@YAXPAH0AAV?$allocator@H@0@U_Scalar_ptr_iterator_tag@0@@Z
_TEXT	SEGMENT PARA USE32 PUBLIC 'CODE'
_TEXT	ENDS
;	COMDAT ??$_Ptr_cat@PAV?$basic_string@DU?$char_traits@D@std@@V?$allocator@D@2@@std@@PAV12@@std@@YA?AU_Nonscalar_ptr_iterator_tag@0@AAPAV?$basic_string@DU?$char_traits@D@std@@V?$allocator@D@2@@0@0@Z
_TEXT	SEGMENT PARA USE32 PUBLIC 'CODE'
_TEXT	ENDS
;	COMDAT ??$_Uninit_fill_n@PAV?$basic_string@DU?$char_traits@D@std@@V?$allocator@D@2@@std@@IV12@V?$allocator@V?$basic_string@DU?$char_traits@D@std@@V?$allocator@D@2@@std@@@2@@std@@YAXPAV?$basic_string@DU?$char_traits@D@std@@V?$allocator@D@2@@0@IABV10@AAV?$allocator@V?$basic_string@DU?$char_traits@D@std@@V?$allocator@D@2@@std@@@0@U_Nonscalar_ptr_iterator_tag@0@@Z
_TEXT	SEGMENT PARA USE32 PUBLIC 'CODE'
_TEXT	ENDS
;	COMDAT ??$_Ptr_cat@PAUOneLocalGame@@PAU1@@std@@YA?AU_Nonscalar_ptr_iterator_tag@0@AAPAUOneLocalGame@@0@Z
_TEXT	SEGMENT PARA USE32 PUBLIC 'CODE'
_TEXT	ENDS
;	COMDAT ??$_Destroy_range@UOneLocalGame@@V?$allocator@UOneLocalGame@@@std@@@std@@YAXPAUOneLocalGame@@0AAV?$allocator@UOneLocalGame@@@0@U_Nonscalar_ptr_iterator_tag@0@@Z
_TEXT	SEGMENT PARA USE32 PUBLIC 'CODE'
_TEXT	ENDS
;	COMDAT ??$_Destroy_range@V?$basic_string@DU?$char_traits@D@std@@V?$allocator@D@2@@std@@V?$allocator@V?$basic_string@DU?$char_traits@D@std@@V?$allocator@D@2@@std@@@2@@std@@YAXPAV?$basic_string@DU?$char_traits@D@std@@V?$allocator@D@2@@0@0AAV?$allocator@V?$basic_string@DU?$char_traits@D@std@@V?$allocator@D@2@@std@@@0@U_Nonscalar_ptr_iterator_tag@0@@Z
_TEXT	SEGMENT PARA USE32 PUBLIC 'CODE'
_TEXT	ENDS
;	COMDAT ??$_Uninitialized_copy@PAV?$basic_string@DU?$char_traits@D@std@@V?$allocator@D@2@@std@@PAV12@V?$allocator@V?$basic_string@DU?$char_traits@D@std@@V?$allocator@D@2@@std@@@2@@std@@YAPAV?$basic_string@DU?$char_traits@D@std@@V?$allocator@D@2@@0@PAV10@00AAV?$allocator@V?$basic_string@DU?$char_traits@D@std@@V?$allocator@D@2@@std@@@0@@Z
_TEXT	SEGMENT PARA USE32 PUBLIC 'CODE'
_TEXT	ENDS
;	COMDAT ??$_Copy_backward_opt@PAV?$basic_string@DU?$char_traits@D@std@@V?$allocator@D@2@@std@@PAV12@@std@@YAPAV?$basic_string@DU?$char_traits@D@std@@V?$allocator@D@2@@0@PAV10@00U_Nonscalar_ptr_iterator_tag@0@@Z
_TEXT	SEGMENT PARA USE32 PUBLIC 'CODE'
_TEXT	ENDS
;	COMDAT ?construct@?$allocator@V?$basic_string@DU?$char_traits@D@std@@V?$allocator@D@2@@std@@@std@@QAEXPAV?$basic_string@DU?$char_traits@D@std@@V?$allocator@D@2@@2@ABV32@@Z
_TEXT	SEGMENT PARA USE32 PUBLIC 'CODE'
_TEXT	ENDS
;	COMDAT ?destroy@?$allocator@V?$basic_string@DU?$char_traits@D@std@@V?$allocator@D@2@@std@@@std@@QAEXPAV?$basic_string@DU?$char_traits@D@std@@V?$allocator@D@2@@2@@Z
_TEXT	SEGMENT PARA USE32 PUBLIC 'CODE'
_TEXT	ENDS
;	COMDAT ?destroy@?$allocator@UOneLocalGame@@@std@@QAEXPAUOneLocalGame@@@Z
_TEXT	SEGMENT PARA USE32 PUBLIC 'CODE'
_TEXT	ENDS
;	COMDAT ??$_Uninit_copy@HH@std@@YAPAHPAH00AAV?$allocator@H@0@U_Scalar_ptr_iterator_tag@0@@Z
_TEXT	SEGMENT PARA USE32 PUBLIC 'CODE'
_TEXT	ENDS
;	COMDAT ??$_Uninit_copy@PAV?$basic_string@DU?$char_traits@D@std@@V?$allocator@D@2@@std@@PAV12@V?$allocator@V?$basic_string@DU?$char_traits@D@std@@V?$allocator@D@2@@std@@@2@@std@@YAPAV?$basic_string@DU?$char_traits@D@std@@V?$allocator@D@2@@0@PAV10@00AAV?$allocator@V?$basic_string@DU?$char_traits@D@std@@V?$allocator@D@2@@std@@@0@U_Nonscalar_ptr_iterator_tag@0@@Z
_TEXT	SEGMENT PARA USE32 PUBLIC 'CODE'
_TEXT	ENDS
;	COMDAT ??$_Construct@V?$basic_string@DU?$char_traits@D@std@@V?$allocator@D@2@@std@@V12@@std@@YAXPAV?$basic_string@DU?$char_traits@D@std@@V?$allocator@D@2@@0@ABV10@@Z
_TEXT	SEGMENT PARA USE32 PUBLIC 'CODE'
_TEXT	ENDS
;	COMDAT ??$_Destroy@V?$basic_string@DU?$char_traits@D@std@@V?$allocator@D@2@@std@@@std@@YAXPAV?$basic_string@DU?$char_traits@D@std@@V?$allocator@D@2@@0@@Z
_TEXT	SEGMENT PARA USE32 PUBLIC 'CODE'
_TEXT	ENDS
;	COMDAT ??$_Destroy@UOneLocalGame@@@std@@YAXPAUOneLocalGame@@@Z
_TEXT	SEGMENT PARA USE32 PUBLIC 'CODE'
_TEXT	ENDS
;	COMDAT ??_G?$basic_string@DU?$char_traits@D@std@@V?$allocator@D@2@@std@@QAEPAXI@Z
_TEXT	SEGMENT PARA USE32 PUBLIC 'CODE'
_TEXT	ENDS
;	COMDAT ??_GOneLocalGame@@QAEPAXI@Z
_TEXT	SEGMENT PARA USE32 PUBLIC 'CODE'
_TEXT	ENDS
;	COMDAT ??_EPlayedGameWnd@@WBHM@AEPAXI@Z
_TEXT	SEGMENT PARA USE32 PUBLIC 'CODE'
_TEXT	ENDS
;	COMDAT ??_R3IData@@8
rdata$r	SEGMENT DWORD USE32 PUBLIC 'CONST'
rdata$r	ENDS
;	COMDAT ??_R3CCriticalSection@@8
rdata$r	SEGMENT DWORD USE32 PUBLIC 'CONST'
rdata$r	ENDS
;	COMDAT ??_R3BCMenuMemDC@@8
rdata$r	SEGMENT DWORD USE32 PUBLIC 'CONST'
rdata$r	ENDS
;	COMDAT ??_R3CGdiPlusBitmap@@8
rdata$r	SEGMENT DWORD USE32 PUBLIC 'CONST'
rdata$r	ENDS
;	COMDAT ??_R3PlayedGameWnd@@8
rdata$r	SEGMENT DWORD USE32 PUBLIC 'CONST'
rdata$r	ENDS
;	COMDAT ??_R3IQQItemCountChangeObserver@@8
rdata$r	SEGMENT DWORD USE32 PUBLIC 'CONST'
rdata$r	ENDS
;	COMDAT ??_R3?$CArray@HAAH@@8
rdata$r	SEGMENT DWORD USE32 PUBLIC 'CONST'
rdata$r	ENDS
;	COMDAT ??_R3?$numpunct@_W@std@@8
rdata$r	SEGMENT DWORD USE32 PUBLIC 'CONST'
rdata$r	ENDS
;	COMDAT ??_R3?$numpunct@D@std@@8
rdata$r	SEGMENT DWORD USE32 PUBLIC 'CONST'
rdata$r	ENDS
;	COMDAT ??_R2IData@@8
rdata$r	SEGMENT DWORD USE32 PUBLIC 'CONST'
rdata$r	ENDS
;	COMDAT ??_R2CCriticalSection@@8
rdata$r	SEGMENT DWORD USE32 PUBLIC 'CONST'
rdata$r	ENDS
;	COMDAT ??_R2BCMenuMemDC@@8
rdata$r	SEGMENT DWORD USE32 PUBLIC 'CONST'
rdata$r	ENDS
;	COMDAT ??_R2CGdiPlusBitmap@@8
rdata$r	SEGMENT DWORD USE32 PUBLIC 'CONST'
rdata$r	ENDS
;	COMDAT ??_R2PlayedGameWnd@@8
rdata$r	SEGMENT DWORD USE32 PUBLIC 'CONST'
rdata$r	ENDS
;	COMDAT ??_R2IQQItemCountChangeObserver@@8
rdata$r	SEGMENT DWORD USE32 PUBLIC 'CONST'
rdata$r	ENDS
;	COMDAT ??_R2?$CArray@HAAH@@8
rdata$r	SEGMENT DWORD USE32 PUBLIC 'CONST'
rdata$r	ENDS
;	COMDAT ??_R2?$numpunct@_W@std@@8
rdata$r	SEGMENT DWORD USE32 PUBLIC 'CONST'
rdata$r	ENDS
;	COMDAT ??_R2?$numpunct@D@std@@8
rdata$r	SEGMENT DWORD USE32 PUBLIC 'CONST'
rdata$r	ENDS
;	COMDAT ??_R1A@?0A@A@IData@@8
rdata$r	SEGMENT DWORD USE32 PUBLIC 'CONST'
rdata$r	ENDS
;	COMDAT ??_R1A@?0A@A@CSyncObject@@8
rdata$r	SEGMENT DWORD USE32 PUBLIC 'CONST'
rdata$r	ENDS
;	COMDAT ??_R1A@?0A@A@CCriticalSection@@8
rdata$r	SEGMENT DWORD USE32 PUBLIC 'CONST'
rdata$r	ENDS
;	COMDAT ??_R1A@?0A@A@CDC@@8
rdata$r	SEGMENT DWORD USE32 PUBLIC 'CONST'
rdata$r	ENDS
;	COMDAT ??_R0?AVCDC@@@8
_DATA	SEGMENT DWORD USE32 PUBLIC 'DATA'
_DATA	ENDS
;	COMDAT ??_R1A@?0A@A@BCMenuMemDC@@8
rdata$r	SEGMENT DWORD USE32 PUBLIC 'CONST'
rdata$r	ENDS
;	COMDAT ??_R1A@?0A@A@CGdiPlusBitmap@@8
rdata$r	SEGMENT DWORD USE32 PUBLIC 'CONST'
rdata$r	ENDS
;	COMDAT ??_R1BHM@?0A@A@IMessageObserver@@8
rdata$r	SEGMENT DWORD USE32 PUBLIC 'CONST'
rdata$r	ENDS
;	COMDAT ??_R1BHM@?0A@A@IQQItemCountChangeObserver@@8
rdata$r	SEGMENT DWORD USE32 PUBLIC 'CONST'
rdata$r	ENDS
;	COMDAT ??_R1A@?0A@A@CCmdTarget@@8
rdata$r	SEGMENT DWORD USE32 PUBLIC 'CONST'
rdata$r	ENDS
;	COMDAT ??_R0?AVCCmdTarget@@@8
_DATA	SEGMENT DWORD USE32 PUBLIC 'DATA'
_DATA	ENDS
;	COMDAT ??_R1A@?0A@A@CWnd@@8
rdata$r	SEGMENT DWORD USE32 PUBLIC 'CONST'
rdata$r	ENDS
;	COMDAT ??_R0?AVCWnd@@@8
_DATA	SEGMENT DWORD USE32 PUBLIC 'DATA'
_DATA	ENDS
;	COMDAT ??_R1A@?0A@A@CLocalMusicCoverList@@8
rdata$r	SEGMENT DWORD USE32 PUBLIC 'CONST'
rdata$r	ENDS
;	COMDAT ??_R1A@?0A@A@PlayedGameWnd@@8
rdata$r	SEGMENT DWORD USE32 PUBLIC 'CONST'
rdata$r	ENDS
;	COMDAT ??_R1A@?0A@A@IMessageObserver@@8
rdata$r	SEGMENT DWORD USE32 PUBLIC 'CONST'
rdata$r	ENDS
;	COMDAT ??_R1A@?0A@A@IQQItemCountChangeObserver@@8
rdata$r	SEGMENT DWORD USE32 PUBLIC 'CONST'
rdata$r	ENDS
;	COMDAT ??_R1A@?0A@A@CObject@@8
rdata$r	SEGMENT DWORD USE32 PUBLIC 'CONST'
rdata$r	ENDS
;	COMDAT ??_R0?AVCObject@@@8
_DATA	SEGMENT DWORD USE32 PUBLIC 'DATA'
_DATA	ENDS
;	COMDAT ??_R1A@?0A@A@?$CArray@HAAH@@8
rdata$r	SEGMENT DWORD USE32 PUBLIC 'CONST'
rdata$r	ENDS
;	COMDAT ??_R1A@?0A@A@?$numpunct@_W@std@@8
rdata$r	SEGMENT DWORD USE32 PUBLIC 'CONST'
rdata$r	ENDS
;	COMDAT ??_R1A@?0A@A@facet@locale@std@@8
rdata$r	SEGMENT DWORD USE32 PUBLIC 'CONST'
rdata$r	ENDS
;	COMDAT ??_R0?AVfacet@locale@std@@@8
_DATA	SEGMENT DWORD USE32 PUBLIC 'DATA'
_DATA	ENDS
;	COMDAT ??_R1A@?0A@A@?$numpunct@D@std@@8
rdata$r	SEGMENT DWORD USE32 PUBLIC 'CONST'
rdata$r	ENDS
;	COMDAT ??_R0?AVIData@@@8
_DATA	SEGMENT DWORD USE32 PUBLIC 'DATA'
_DATA	ENDS
;	COMDAT ??_R0?AVCSyncObject@@@8
_DATA	SEGMENT DWORD USE32 PUBLIC 'DATA'
_DATA	ENDS
;	COMDAT ??_R0?AVCCriticalSection@@@8
_DATA	SEGMENT DWORD USE32 PUBLIC 'DATA'
_DATA	ENDS
;	COMDAT ??_R0?AVBCMenuMemDC@@@8
_DATA	SEGMENT DWORD USE32 PUBLIC 'DATA'
_DATA	ENDS
;	COMDAT ??_R0?AVCGdiPlusBitmap@@@8
_DATA	SEGMENT DWORD USE32 PUBLIC 'DATA'
_DATA	ENDS
;	COMDAT ??_R0?AVIMessageObserver@@@8
_DATA	SEGMENT DWORD USE32 PUBLIC 'DATA'
_DATA	ENDS
;	COMDAT ??_R0?AVCLocalMusicCoverList@@@8
_DATA	SEGMENT DWORD USE32 PUBLIC 'DATA'
_DATA	ENDS
;	COMDAT ??_R0?AVPlayedGameWnd@@@8
_DATA	SEGMENT DWORD USE32 PUBLIC 'DATA'
_DATA	ENDS
;	COMDAT ??_R0?AVIQQItemCountChangeObserver@@@8
_DATA	SEGMENT DWORD USE32 PUBLIC 'DATA'
_DATA	ENDS
;	COMDAT ??_R0?AV?$CArray@HAAH@@@8
_DATA	SEGMENT DWORD USE32 PUBLIC 'DATA'
_DATA	ENDS
;	COMDAT ??_R0?AV?$numpunct@_W@std@@@8
_DATA	SEGMENT DWORD USE32 PUBLIC 'DATA'
_DATA	ENDS
;	COMDAT ??_R0?AV?$numpunct@D@std@@@8
_DATA	SEGMENT DWORD USE32 PUBLIC 'DATA'
_DATA	ENDS
;	COMDAT ??_R4IData@@6B@
rdata$r	SEGMENT DWORD USE32 PUBLIC 'CONST'
rdata$r	ENDS
;	COMDAT ??_R4CCriticalSection@@6B@
rdata$r	SEGMENT DWORD USE32 PUBLIC 'CONST'
rdata$r	ENDS
;	COMDAT ?Escape@CDC@@UAEHHHPBDPAX@Z
_TEXT	SEGMENT PARA USE32 PUBLIC 'CODE'
_TEXT	ENDS
;	COMDAT ?GrayStringA@CDC@@UAEHPAVCBrush@@P6GHPAUHDC__@@JH@ZJHHHHH@Z
_TEXT	SEGMENT PARA USE32 PUBLIC 'CODE'
_TEXT	ENDS
;	COMDAT ?GetSafeHandle@CGdiObject@@QBEPAXXZ
_TEXT	SEGMENT PARA USE32 PUBLIC 'CODE'
_TEXT	ENDS
;	COMDAT ?DrawTextExA@CDC@@UAEHPADHPAUtagRECT@@IPAUtagDRAWTEXTPARAMS@@@Z
_TEXT	SEGMENT PARA USE32 PUBLIC 'CODE'
_TEXT	ENDS
;	COMDAT ?DrawTextA@CDC@@UAEHPBDHPAUtagRECT@@I@Z
_TEXT	SEGMENT PARA USE32 PUBLIC 'CODE'
_TEXT	ENDS
;	COMDAT ?TabbedTextOutA@CDC@@UAE?AVCSize@@HHPBDHHPAHH@Z
_TEXT	SEGMENT PARA USE32 PUBLIC 'CODE'
_TEXT	ENDS
;	COMDAT ??0CSize@@QAE@K@Z
_TEXT	SEGMENT PARA USE32 PUBLIC 'CODE'
_TEXT	ENDS
;	COMDAT ?ExtTextOutA@CDC@@UAEHHHIPBUtagRECT@@PBDIPAH@Z
_TEXT	SEGMENT PARA USE32 PUBLIC 'CODE'
_TEXT	ENDS
;	COMDAT ?TextOutA@CDC@@UAEHHHPBDH@Z
_TEXT	SEGMENT PARA USE32 PUBLIC 'CODE'
_TEXT	ENDS
;	COMDAT ?RectVisible@CDC@@UBEHPBUtagRECT@@@Z
_TEXT	SEGMENT PARA USE32 PUBLIC 'CODE'
_TEXT	ENDS
;	COMDAT ?PtVisible@CDC@@UBEHHH@Z
_TEXT	SEGMENT PARA USE32 PUBLIC 'CODE'
_TEXT	ENDS
;	COMDAT ??_R4BCMenuMemDC@@6B@
rdata$r	SEGMENT DWORD USE32 PUBLIC 'CONST'
rdata$r	ENDS
;	COMDAT ??_R4CGdiPlusBitmap@@6B@
rdata$r	SEGMENT DWORD USE32 PUBLIC 'CONST'
rdata$r	ENDS
;	COMDAT ??_R4PlayedGameWnd@@6BIQQItemCountChangeObserver@@@
rdata$r	SEGMENT DWORD USE32 PUBLIC 'CONST'
rdata$r	ENDS
;	COMDAT ?EndModalState@CWnd@@UAEXXZ
_TEXT	SEGMENT PARA USE32 PUBLIC 'CODE'
_TEXT	ENDS
;	COMDAT ?BeginModalState@CWnd@@UAEXXZ
_TEXT	SEGMENT PARA USE32 PUBLIC 'CODE'
_TEXT	ENDS
;	COMDAT ?DoDataExchange@CWnd@@MAEXPAVCDataExchange@@@Z
_TEXT	SEGMENT PARA USE32 PUBLIC 'CODE'
_TEXT	ENDS
;	COMDAT ??_R4PlayedGameWnd@@6BCLocalMusicCoverList@@@
rdata$r	SEGMENT DWORD USE32 PUBLIC 'CONST'
rdata$r	ENDS
;	COMDAT ??_R4IQQItemCountChangeObserver@@6B@
rdata$r	SEGMENT DWORD USE32 PUBLIC 'CONST'
rdata$r	ENDS
;	COMDAT ?Dump@CObject@@UBEXAAVCDumpContext@@@Z
_TEXT	SEGMENT PARA USE32 PUBLIC 'CODE'
_TEXT	ENDS
;	COMDAT ?AssertValid@CObject@@UBEXXZ
_TEXT	SEGMENT PARA USE32 PUBLIC 'CODE'
_TEXT	ENDS
;	COMDAT ??_R4?$CArray@HAAH@@6B@
rdata$r	SEGMENT DWORD USE32 PUBLIC 'CONST'
rdata$r	ENDS
;	COMDAT ??0?$allocator@_W@std@@QAE@XZ
_TEXT	SEGMENT PARA USE32 PUBLIC 'CODE'
_TEXT	ENDS
;	COMDAT ??_G?$numpunct@_W@std@@MAEPAXI@Z
_TEXT	SEGMENT PARA USE32 PUBLIC 'CODE'
_TEXT	ENDS
;	COMDAT ??_R4?$numpunct@_W@std@@6B@
rdata$r	SEGMENT DWORD USE32 PUBLIC 'CONST'
rdata$r	ENDS
;	COMDAT ??_G?$numpunct@D@std@@MAEPAXI@Z
_TEXT	SEGMENT PARA USE32 PUBLIC 'CODE'
_TEXT	ENDS
;	COMDAT ??_R4?$numpunct@D@std@@6B@
rdata$r	SEGMENT DWORD USE32 PUBLIC 'CONST'
rdata$r	ENDS
;	COMDAT ??3@YAXPAX0@Z
_TEXT	SEGMENT PARA USE32 PUBLIC 'CODE'
_TEXT	ENDS
;	COMDAT ??2@YAPAXIPAX@Z
_TEXT	SEGMENT PARA USE32 PUBLIC 'CODE'
_TEXT	ENDS
;	COMDAT ?_Ptr_cat@std@@YA?AU_Scalar_ptr_iterator_tag@1@PAH0@Z
_TEXT	SEGMENT PARA USE32 PUBLIC 'CODE'
_TEXT	ENDS
;	COMDAT ?IsStoring@CArchive@@QBEHXZ
_TEXT	SEGMENT PARA USE32 PUBLIC 'CODE'
_TEXT	ENDS
;	COMDAT ?Serialize@CObject@@UAEXAAVCArchive@@@Z
_TEXT	SEGMENT PARA USE32 PUBLIC 'CODE'
_TEXT	ENDS
;	COMDAT ??1CObject@@UAE@XZ
_TEXT	SEGMENT PARA USE32 PUBLIC 'CODE'
_TEXT	ENDS
;	COMDAT ??_7?$CArray@HAAH@@6B@
CONST	SEGMENT DWORD USE32 PUBLIC 'CONST'
CONST	ENDS
;	COMDAT ?_Psave@?$_Facetptr@V?$numpunct@_W@std@@@std@@2PBVfacet@locale@2@B
_DATA	SEGMENT DWORD USE32 PUBLIC 'DATA'
_DATA	ENDS
;	COMDAT ?_Psave@?$_Facetptr@V?$numpunct@D@std@@@std@@2PBVfacet@locale@2@B
_DATA	SEGMENT DWORD USE32 PUBLIC 'DATA'
_DATA	ENDS
;	COMDAT ?Unlock@CComCriticalSection@ATL@@QAEJXZ
_TEXT	SEGMENT PARA USE32 PUBLIC 'CODE'
_TEXT	ENDS
;	COMDAT ?_Psave@?$_Facetptr@V?$ctype@_W@std@@@std@@2PBVfacet@locale@2@B
_DATA	SEGMENT DWORD USE32 PUBLIC 'DATA'
_DATA	ENDS
;	COMDAT ?_Psave@?$_Facetptr@V?$ctype@D@std@@@std@@2PBVfacet@locale@2@B
_DATA	SEGMENT DWORD USE32 PUBLIC 'DATA'
_DATA	ENDS
;	COMDAT ??_7length_error@std@@6B@
CONST	SEGMENT DWORD USE32 PUBLIC 'CONST'
CONST	ENDS
;	COMDAT ??_R4length_error@std@@6B@
rdata$r	SEGMENT DWORD USE32 PUBLIC 'CONST'
rdata$r	ENDS
;	COMDAT ??_R3length_error@std@@8
rdata$r	SEGMENT DWORD USE32 PUBLIC 'CONST'
rdata$r	ENDS
;	COMDAT ??_R2length_error@std@@8
rdata$r	SEGMENT DWORD USE32 PUBLIC 'CONST'
rdata$r	ENDS
;	COMDAT ??_R1A@?0A@A@length_error@std@@8
rdata$r	SEGMENT DWORD USE32 PUBLIC 'CONST'
rdata$r	ENDS
;	COMDAT ??_R1A@?0A@A@logic_error@std@@8
rdata$r	SEGMENT DWORD USE32 PUBLIC 'CONST'
rdata$r	ENDS
;	COMDAT ??_R0?AVlogic_error@std@@@8
_DATA	SEGMENT DWORD USE32 PUBLIC 'DATA'
_DATA	ENDS
;	COMDAT ??_R1A@?0A@A@exception@@8
rdata$r	SEGMENT DWORD USE32 PUBLIC 'CONST'
rdata$r	ENDS
;	COMDAT ??_R0?AVexception@@@8
_DATA	SEGMENT DWORD USE32 PUBLIC 'DATA'
_DATA	ENDS
;	COMDAT ??_Glength_error@std@@UAEPAXI@Z
_TEXT	SEGMENT PARA USE32 PUBLIC 'CODE'
_TEXT	ENDS
;	COMDAT ?what@logic_error@std@@UBEPBDXZ
_TEXT	SEGMENT PARA USE32 PUBLIC 'CODE'
_TEXT	ENDS
;	COMDAT ??1logic_error@std@@UAE@XZ
_TEXT	SEGMENT PARA USE32 PUBLIC 'CODE'
_TEXT	ENDS
;	COMDAT ??_7logic_error@std@@6B@
CONST	SEGMENT DWORD USE32 PUBLIC 'CONST'
CONST	ENDS
;	COMDAT ??_R4logic_error@std@@6B@
rdata$r	SEGMENT DWORD USE32 PUBLIC 'CONST'
rdata$r	ENDS
;	COMDAT ??_R3logic_error@std@@8
rdata$r	SEGMENT DWORD USE32 PUBLIC 'CONST'
rdata$r	ENDS
;	COMDAT ??_R2logic_error@std@@8
rdata$r	SEGMENT DWORD USE32 PUBLIC 'CONST'
rdata$r	ENDS
;	COMDAT ??_Glogic_error@std@@UAEPAXI@Z
_TEXT	SEGMENT PARA USE32 PUBLIC 'CODE'
_TEXT	ENDS
;	COMDAT ??0logic_error@std@@QAE@ABV01@@Z
_TEXT	SEGMENT PARA USE32 PUBLIC 'CODE'
_TEXT	ENDS
;	COMDAT __CTA3?AVlength_error@std@@
xdata$x	SEGMENT DWORD USE32 PUBLIC 'CONST'
xdata$x	ENDS
;	COMDAT ??1length_error@std@@UAE@XZ
_TEXT	SEGMENT PARA USE32 PUBLIC 'CODE'
_TEXT	ENDS
;	COMDAT __CT??_R0?AVexception@@@8??0exception@@QAE@ABV0@@Z12
xdata$x	SEGMENT DWORD USE32 PUBLIC 'CONST'
xdata$x	ENDS
;	COMDAT __CT??_R0?AVlogic_error@std@@@8??0logic_error@std@@QAE@ABV01@@Z40
xdata$x	SEGMENT DWORD USE32 PUBLIC 'CONST'
xdata$x	ENDS
;	COMDAT __CT??_R0?AVlength_error@std@@@8??0length_error@std@@QAE@ABV01@@Z40
xdata$x	SEGMENT DWORD USE32 PUBLIC 'CONST'
xdata$x	ENDS
;	COMDAT ??_R0?AVlength_error@std@@@8
_DATA	SEGMENT DWORD USE32 PUBLIC 'DATA'
_DATA	ENDS
;	COMDAT __TI3?AVlength_error@std@@
xdata$x	SEGMENT DWORD USE32 PUBLIC 'CONST'
xdata$x	ENDS
;	COMDAT ??0length_error@std@@QAE@ABV?$basic_string@DU?$char_traits@D@std@@V?$allocator@D@2@@1@@Z
_TEXT	SEGMENT PARA USE32 PUBLIC 'CODE'
_TEXT	ENDS
;	COMDAT ??0logic_error@std@@QAE@ABV?$basic_string@DU?$char_traits@D@std@@V?$allocator@D@2@@1@@Z
_TEXT	SEGMENT PARA USE32 PUBLIC 'CODE'
_TEXT	ENDS
;	COMDAT ??$_Maklocchr@_W@std@@YA_WDPA_WABU_Cvtvec@@@Z
_TEXT	SEGMENT PARA USE32 PUBLIC 'CODE'
_TEXT	ENDS
;	COMDAT ??$_Maklocstr@_W@std@@YAPA_WPBDPA_WABU_Cvtvec@@@Z
_TEXT	SEGMENT PARA USE32 PUBLIC 'CODE'
_TEXT	ENDS
;	COMDAT ??$_Maklocchr@D@std@@YADDPADABU_Cvtvec@@@Z
_TEXT	SEGMENT PARA USE32 PUBLIC 'CODE'
_TEXT	ENDS
;	COMDAT ??_C@_04LOAJBDKD@true?$AA@
CONST	SEGMENT DWORD USE32 PUBLIC 'CONST'
CONST	ENDS
;	COMDAT ??_C@_05LAPONLG@false?$AA@
CONST	SEGMENT DWORD USE32 PUBLIC 'CONST'
CONST	ENDS
;	COMDAT _wmemcpy
_TEXT	SEGMENT PARA USE32 PUBLIC 'CODE'
_TEXT	ENDS
;	COMDAT ?max_size@?$allocator@_W@std@@QBEIXZ
_TEXT	SEGMENT PARA USE32 PUBLIC 'CODE'
_TEXT	ENDS
;	COMDAT ?allocate@?$allocator@_W@std@@QAEPA_WI@Z
_TEXT	SEGMENT PARA USE32 PUBLIC 'CODE'
_TEXT	ENDS
;	COMDAT ??$_Allocate@_W@std@@YAPA_WIPA_W@Z
_TEXT	SEGMENT PARA USE32 PUBLIC 'CODE'
_TEXT	ENDS
;	COMDAT ?data@CStringData@ATL@@QAEPAXXZ
_TEXT	SEGMENT PARA USE32 PUBLIC 'CODE'
_TEXT	ENDS
;	COMDAT ??_C@_01GFHCPBMG@C?$AA@
CONST	SEGMENT DWORD USE32 PUBLIC 'CONST'
CONST	ENDS
;	COMDAT ?max_size@?$allocator@D@std@@QBEIXZ
_TEXT	SEGMENT PARA USE32 PUBLIC 'CODE'
_TEXT	ENDS
;	COMDAT ?allocate@?$allocator@D@std@@QAEPADI@Z
_TEXT	SEGMENT PARA USE32 PUBLIC 'CODE'
_TEXT	ENDS
;	COMDAT ??$_Allocate@D@std@@YAPADIPAD@Z
_TEXT	SEGMENT PARA USE32 PUBLIC 'CODE'
_TEXT	ENDS
;	COMDAT ?deallocate@?$allocator@D@std@@QAEXPADI@Z
_TEXT	SEGMENT PARA USE32 PUBLIC 'CODE'
_TEXT	ENDS
;	COMDAT ?Format@?$ChTraitsCRT@D@ATL@@SAHPADPBD0@Z
_TEXT	SEGMENT PARA USE32 PUBLIC 'CODE'
_TEXT	ENDS
;	COMDAT ?IsShared@CStringData@ATL@@QBE_NXZ
_TEXT	SEGMENT PARA USE32 PUBLIC 'CODE'
_TEXT	ENDS
;	COMDAT ?Release@CStringData@ATL@@QAEXXZ
_TEXT	SEGMENT PARA USE32 PUBLIC 'CODE'
_TEXT	ENDS
;	COMDAT ?GetFormattedLength@?$ChTraitsCRT@D@ATL@@SAHPBDPAD@Z
_TEXT	SEGMENT PARA USE32 PUBLIC 'CODE'
_TEXT	ENDS
;	COMDAT ?AtlThrow@ATL@@YGXJ@Z
_TEXT	SEGMENT PARA USE32 PUBLIC 'CODE'
_TEXT	ENDS
;	COMDAT ?_Peek@?$istreambuf_iterator@_WU?$char_traits@_W@std@@@std@@AAE_WXZ
_TEXT	SEGMENT PARA USE32 PUBLIC 'CODE'
_TEXT	ENDS
;	COMDAT ?_Peek@?$istreambuf_iterator@DU?$char_traits@D@std@@@std@@AAEDXZ
_TEXT	SEGMENT PARA USE32 PUBLIC 'CODE'
_TEXT	ENDS
;	COMDAT ??$use_facet@V?$ctype@_W@std@@@std@@YAABV?$ctype@_W@0@ABVlocale@0@@Z
_TEXT	SEGMENT PARA USE32 PUBLIC 'CODE'
_TEXT	ENDS
;	COMDAT ??_S?$ctype@_W@std@@6B@
CONST	SEGMENT DWORD USE32 PUBLIC 'CONST'
CONST	ENDS
;	COMDAT ??_R4?$ctype@_W@std@@6B@
rdata$r	SEGMENT DWORD USE32 PUBLIC 'CONST'
rdata$r	ENDS
;	COMDAT ??_R0?AV?$ctype@_W@std@@@8
_DATA	SEGMENT DWORD USE32 PUBLIC 'DATA'
_DATA	ENDS
;	COMDAT ??_R3?$ctype@_W@std@@8
rdata$r	SEGMENT DWORD USE32 PUBLIC 'CONST'
rdata$r	ENDS
;	COMDAT ??_R2?$ctype@_W@std@@8
rdata$r	SEGMENT DWORD USE32 PUBLIC 'CONST'
rdata$r	ENDS
;	COMDAT ??_R1A@?0A@A@?$ctype@_W@std@@8
rdata$r	SEGMENT DWORD USE32 PUBLIC 'CONST'
rdata$r	ENDS
;	COMDAT ??_R1A@?0A@A@ctype_base@std@@8
rdata$r	SEGMENT DWORD USE32 PUBLIC 'CONST'
rdata$r	ENDS
;	COMDAT ??_R0?AUctype_base@std@@@8
_DATA	SEGMENT DWORD USE32 PUBLIC 'DATA'
_DATA	ENDS
;	COMDAT ??_G?$ctype@_W@std@@MAEPAXI@Z
_TEXT	SEGMENT PARA USE32 PUBLIC 'CODE'
_TEXT	ENDS
;	COMDAT ??_C@_08EPJLHIJG@bad?5cast?$AA@
CONST	SEGMENT DWORD USE32 PUBLIC 'CONST'
CONST	ENDS
;	COMDAT __TI2?AVbad_cast@@
xdata$x	SEGMENT DWORD USE32 PUBLIC 'CONST'
xdata$x	ENDS
;	COMDAT __CTA2?AVbad_cast@@
xdata$x	SEGMENT DWORD USE32 PUBLIC 'CONST'
xdata$x	ENDS
;	COMDAT __CT??_R0?AVbad_cast@@@8??0bad_cast@@QAE@ABV0@@Z12
xdata$x	SEGMENT DWORD USE32 PUBLIC 'CONST'
xdata$x	ENDS
;	COMDAT ??_R0?AVbad_cast@@@8
_DATA	SEGMENT DWORD USE32 PUBLIC 'DATA'
_DATA	ENDS
;	COMDAT ??$use_facet@V?$ctype@D@std@@@std@@YAABV?$ctype@D@0@ABVlocale@0@@Z
_TEXT	SEGMENT PARA USE32 PUBLIC 'CODE'
_TEXT	ENDS
;	COMDAT ??_S?$ctype@D@std@@6B@
CONST	SEGMENT DWORD USE32 PUBLIC 'CONST'
CONST	ENDS
;	COMDAT ??_R4?$ctype@D@std@@6B@
rdata$r	SEGMENT DWORD USE32 PUBLIC 'CONST'
rdata$r	ENDS
;	COMDAT ??_R0?AV?$ctype@D@std@@@8
_DATA	SEGMENT DWORD USE32 PUBLIC 'DATA'
_DATA	ENDS
;	COMDAT ??_R3?$ctype@D@std@@8
rdata$r	SEGMENT DWORD USE32 PUBLIC 'CONST'
rdata$r	ENDS
;	COMDAT ??_R2?$ctype@D@std@@8
rdata$r	SEGMENT DWORD USE32 PUBLIC 'CONST'
rdata$r	ENDS
;	COMDAT ??_R1A@?0A@A@?$ctype@D@std@@8
rdata$r	SEGMENT DWORD USE32 PUBLIC 'CONST'
rdata$r	ENDS
;	COMDAT ??_G?$ctype@D@std@@MAEPAXI@Z
_TEXT	SEGMENT PARA USE32 PUBLIC 'CODE'
_TEXT	ENDS
;	COMDAT ??_S?$numpunct@_W@std@@6B@
CONST	SEGMENT DWORD USE32 PUBLIC 'CONST'
CONST	ENDS
;	COMDAT ??_S?$numpunct@D@std@@6B@
CONST	SEGMENT DWORD USE32 PUBLIC 'CONST'
CONST	ENDS
;	COMDAT _wmemmove
_TEXT	SEGMENT PARA USE32 PUBLIC 'CODE'
_TEXT	ENDS
;	COMDAT ?deallocate@?$allocator@_W@std@@QAEXPA_WI@Z
_TEXT	SEGMENT PARA USE32 PUBLIC 'CODE'
_TEXT	ENDS
;	COMDAT ??0?$allocator@_W@std@@QAE@ABV01@@Z
_TEXT	SEGMENT PARA USE32 PUBLIC 'CODE'
_TEXT	ENDS
;	COMDAT ??9CPoint@@QBEHUtagPOINT@@@Z
_TEXT	SEGMENT PARA USE32 PUBLIC 'CODE'
_TEXT	ENDS
;	COMDAT ??0CPoint@@QAE@HH@Z
_TEXT	SEGMENT PARA USE32 PUBLIC 'CODE'
_TEXT	ENDS
;	COMDAT ?SetRect@CRect@@QAEXHHHH@Z
_TEXT	SEGMENT PARA USE32 PUBLIC 'CODE'
_TEXT	ENDS
;	COMDAT ?ipreon@?7??OnMouseMove@PlayedGameWnd@@IAEXIVCPoint@@@Z@4HA
_DATA	SEGMENT DWORD USE32 PUBLIC 'DATA'
_DATA	ENDS
;	COMDAT ?PtInRect@CRect@@QBEHUtagPOINT@@@Z
_TEXT	SEGMENT PARA USE32 PUBLIC 'CODE'
_TEXT	ENDS
;	COMDAT ?RedrawWindow@CWnd@@QAEHPBUtagRECT@@PAVCRgn@@I@Z
_TEXT	SEGMENT PARA USE32 PUBLIC 'CODE'
_TEXT	ENDS
;	COMDAT ?ipreITem@?7??OnMouseMove@PlayedGameWnd@@IAEXIVCPoint@@@Z@4HA
_DATA	SEGMENT DWORD USE32 PUBLIC 'DATA'
_DATA	ENDS
;	COMDAT ?IsRectNull@CRect@@QBEHXZ
_TEXT	SEGMENT PARA USE32 PUBLIC 'CODE'
_TEXT	ENDS
;	COMDAT ?rcPre@?7??OnMouseMove@PlayedGameWnd@@IAEXIVCPoint@@@Z@4VCRect@@A
_BSS	SEGMENT DWORD USE32 PUBLIC 'BSS'
_BSS	ENDS
;	COMDAT ?$S9@?7??OnMouseMove@PlayedGameWnd@@IAEXIVCPoint@@@Z@4IA
_BSS	SEGMENT DWORD USE32 PUBLIC 'BSS'
_BSS	ENDS
;	COMDAT ?DrawImage@Graphics@Gdiplus@@QAE?AW4Status@2@PAVImage@2@ABVRect@2@@Z
_TEXT	SEGMENT PARA USE32 PUBLIC 'CODE'
_TEXT	ENDS
;	COMDAT ?DrawImage@Graphics@Gdiplus@@QAE?AW4Status@2@PAVImage@2@HHHH@Z
_TEXT	SEGMENT PARA USE32 PUBLIC 'CODE'
_TEXT	ENDS
;	COMDAT ?SetStatus@Graphics@Gdiplus@@IBE?AW4Status@2@W432@@Z
_TEXT	SEGMENT PARA USE32 PUBLIC 'CODE'
_TEXT	ENDS
;	COMDAT ??1Graphics@Gdiplus@@QAE@XZ
_TEXT	SEGMENT PARA USE32 PUBLIC 'CODE'
_TEXT	ENDS
;	COMDAT ?GetDC@CWnd@@QAEPAVCDC@@XZ
_TEXT	SEGMENT PARA USE32 PUBLIC 'CODE'
_TEXT	ENDS
;	COMDAT ??0Graphics@Gdiplus@@QAE@PAUHDC__@@@Z
_TEXT	SEGMENT PARA USE32 PUBLIC 'CODE'
_TEXT	ENDS
;	COMDAT ?SetNativeGraphics@Graphics@Gdiplus@@IAEXPAVGpGraphics@2@@Z
_TEXT	SEGMENT PARA USE32 PUBLIC 'CODE'
_TEXT	ENDS
;	COMDAT ?pImageOver@?1??DrawPlayBtn@PlayedGameWnd@@IAEXVCRect@@H@Z@4PAVImage@Gdiplus@@A
_DATA	SEGMENT DWORD USE32 PUBLIC 'DATA'
_DATA	ENDS
;	COMDAT ?Clone@Image@Gdiplus@@UAEPAV12@XZ
_TEXT	SEGMENT PARA USE32 PUBLIC 'CODE'
_TEXT	ENDS
;	COMDAT ?SetStatus@Image@Gdiplus@@IBE?AW4Status@2@W432@@Z
_TEXT	SEGMENT PARA USE32 PUBLIC 'CODE'
_TEXT	ENDS
;	COMDAT ??2GdiplusBase@Gdiplus@@SAPAXI@Z
_TEXT	SEGMENT PARA USE32 PUBLIC 'CODE'
_TEXT	ENDS
;	COMDAT ??3GdiplusBase@Gdiplus@@SAXPAX@Z
_TEXT	SEGMENT PARA USE32 PUBLIC 'CODE'
_TEXT	ENDS
;	COMDAT ??0Image@Gdiplus@@IAE@PAVGpImage@1@W4Status@1@@Z
_TEXT	SEGMENT PARA USE32 PUBLIC 'CODE'
_TEXT	ENDS
;	COMDAT ??_7Image@Gdiplus@@6B@
CONST	SEGMENT DWORD USE32 PUBLIC 'CONST'
CONST	ENDS
;	COMDAT ??_R4Image@Gdiplus@@6B@
rdata$r	SEGMENT DWORD USE32 PUBLIC 'CONST'
rdata$r	ENDS
;	COMDAT ??_R0?AVImage@Gdiplus@@@8
_DATA	SEGMENT DWORD USE32 PUBLIC 'DATA'
_DATA	ENDS
;	COMDAT ??_R3Image@Gdiplus@@8
rdata$r	SEGMENT DWORD USE32 PUBLIC 'CONST'
rdata$r	ENDS
;	COMDAT ??_R2Image@Gdiplus@@8
rdata$r	SEGMENT DWORD USE32 PUBLIC 'CONST'
rdata$r	ENDS
;	COMDAT ??_R1A@?0A@A@Image@Gdiplus@@8
rdata$r	SEGMENT DWORD USE32 PUBLIC 'CONST'
rdata$r	ENDS
;	COMDAT ??_R13?0A@A@GdiplusBase@Gdiplus@@8
rdata$r	SEGMENT DWORD USE32 PUBLIC 'CONST'
rdata$r	ENDS
;	COMDAT ??_R0?AVGdiplusBase@Gdiplus@@@8
_DATA	SEGMENT DWORD USE32 PUBLIC 'DATA'
_DATA	ENDS
;	COMDAT ??_GImage@Gdiplus@@UAEPAXI@Z
_TEXT	SEGMENT PARA USE32 PUBLIC 'CODE'
_TEXT	ENDS
;	COMDAT ?SetNativeImage@Image@Gdiplus@@IAEXPAVGpImage@2@@Z
_TEXT	SEGMENT PARA USE32 PUBLIC 'CODE'
_TEXT	ENDS
;	COMDAT ?pImageNormal@?1??DrawPlayBtn@PlayedGameWnd@@IAEXVCRect@@H@Z@4PAVImage@Gdiplus@@A
_DATA	SEGMENT DWORD USE32 PUBLIC 'DATA'
_DATA	ENDS
;	COMDAT ??1Image@Gdiplus@@UAE@XZ
_TEXT	SEGMENT PARA USE32 PUBLIC 'CODE'
_TEXT	ENDS
;	COMDAT ?AtlA2WHelper@@YGPA_WPA_WPBDHI@Z
_TEXT	SEGMENT PARA USE32 PUBLIC 'CODE'
_TEXT	ENDS
;	COMDAT ??0Image@Gdiplus@@QAE@PB_WH@Z
_TEXT	SEGMENT PARA USE32 PUBLIC 'CODE'
_TEXT	ENDS
;	COMDAT ?_AtlGetConversionACP@ATL@@YGIXZ
_TEXT	SEGMENT PARA USE32 PUBLIC 'CODE'
_TEXT	ENDS
;	COMDAT ?g_pfnGetThreadACP@ATL@@3P6GIXZA
_DATA	SEGMENT DWORD USE32 PUBLIC 'DATA'
_DATA	ENDS
;	COMDAT ?_AtlGetThreadACPThunk@ATL@@YGIXZ
_TEXT	SEGMENT PARA USE32 PUBLIC 'CODE'
_TEXT	ENDS
;	COMDAT ?_AtlGetThreadACPReal@ATL@@YGIXZ
_TEXT	SEGMENT PARA USE32 PUBLIC 'CODE'
_TEXT	ENDS
;	COMDAT ?_AtlGetThreadACPFake@ATL@@YGIXZ
_TEXT	SEGMENT PARA USE32 PUBLIC 'CODE'
_TEXT	ENDS
;	COMDAT ?InterlockedExchangePointer@@YGPAXPAPAXPAX@Z
_TEXT	SEGMENT PARA USE32 PUBLIC 'CODE'
_TEXT	ENDS
;	COMDAT ?IsLocked@CStringData@ATL@@QBE_NXZ
_TEXT	SEGMENT PARA USE32 PUBLIC 'CODE'
_TEXT	ENDS
;	COMDAT ?AddRef@CStringData@ATL@@QAEXXZ
_TEXT	SEGMENT PARA USE32 PUBLIC 'CODE'
_TEXT	ENDS
;	COMDAT ?blInit@?1??DrawPlayBtn@PlayedGameWnd@@IAEXVCRect@@H@Z@4HA
_DATA	SEGMENT DWORD USE32 PUBLIC 'DATA'
_DATA	ENDS
;	COMDAT ??0Rect@Gdiplus@@QAE@HHHH@Z
_TEXT	SEGMENT PARA USE32 PUBLIC 'CODE'
_TEXT	ENDS
;	COMDAT ?GetSafeHwnd@CWnd@@QBEPAUHWND__@@XZ
_TEXT	SEGMENT PARA USE32 PUBLIC 'CODE'
_TEXT	ENDS
;	COMDAT ??0CRect@@QAE@HHHH@Z
_TEXT	SEGMENT PARA USE32 PUBLIC 'CODE'
_TEXT	ENDS
;	COMDAT ?GetDefaultManager@?$StrTraitMFC_DLL@DV?$ChTraitsCRT@D@ATL@@@@SAPAUIAtlStringMgr@ATL@@XZ
_TEXT	SEGMENT PARA USE32 PUBLIC 'CODE'
_TEXT	ENDS
;	COMDAT ?FindStringResourceInstance@?$StrTraitMFC_DLL@DV?$ChTraitsCRT@D@ATL@@@@SAPAUHINSTANCE__@@I@Z
_TEXT	SEGMENT PARA USE32 PUBLIC 'CODE'
_TEXT	ENDS
;	COMDAT ?AtlGetStringResourceImage@ATL@@YAPBUATLSTRINGRESOURCEIMAGE@1@PAUHINSTANCE__@@I@Z
_TEXT	SEGMENT PARA USE32 PUBLIC 'CODE'
_TEXT	ENDS
;	COMDAT ?_AtlGetStringResourceImage@ATL@@YAPBUATLSTRINGRESOURCEIMAGE@1@PAUHINSTANCE__@@PAUHRSRC__@@I@Z
_TEXT	SEGMENT PARA USE32 PUBLIC 'CODE'
_TEXT	ENDS
;	COMDAT ?GetBaseTypeLength@?$ChTraitsCRT@D@ATL@@SAHPB_WH@Z
_TEXT	SEGMENT PARA USE32 PUBLIC 'CODE'
_TEXT	ENDS
;	COMDAT ?ConvertToBaseType@?$ChTraitsCRT@D@ATL@@SAXPADHPB_WH@Z
_TEXT	SEGMENT PARA USE32 PUBLIC 'CODE'
_TEXT	ENDS
;	COMDAT ?OnLButtonDblClk@CWnd@@IAEXIVCPoint@@@Z
_TEXT	SEGMENT PARA USE32 PUBLIC 'CODE'
_TEXT	ENDS
;	COMDAT ??$?HDU?$char_traits@D@std@@V?$allocator@D@1@@std@@YA?AV?$basic_string@DU?$char_traits@D@std@@V?$allocator@D@2@@0@ABV10@0@Z
_TEXT	SEGMENT PARA USE32 PUBLIC 'CODE'
_TEXT	ENDS
;	COMDAT ??$?HDU?$char_traits@D@std@@V?$allocator@D@1@@std@@YA?AV?$basic_string@DU?$char_traits@D@std@@V?$allocator@D@2@@0@ABV10@PBD@Z
_TEXT	SEGMENT PARA USE32 PUBLIC 'CODE'
_TEXT	ENDS
;	COMDAT ??0?$allocator@D@std@@QAE@ABV01@@Z
_TEXT	SEGMENT PARA USE32 PUBLIC 'CODE'
_TEXT	ENDS
;	COMDAT ?bPrompted@?1??OnCommand@PlayedGameWnd@@MAEHIJ@Z@4HA
_DATA	SEGMENT DWORD USE32 PUBLIC 'DATA'
_DATA	ENDS
;	COMDAT ?ClientToScreen@CWnd@@QBEXPAUtagPOINT@@@Z
_TEXT	SEGMENT PARA USE32 PUBLIC 'CODE'
_TEXT	ENDS
;	COMDAT ?_messageEntries@PlayedGameWnd@@0QBUAFX_MSGMAP_ENTRY@@B
CONST	SEGMENT DWORD USE32 PUBLIC 'CONST'
CONST	ENDS
;	COMDAT ?messageMap@PlayedGameWnd@@1UAFX_MSGMAP@@B
CONST	SEGMENT DWORD USE32 PUBLIC 'CONST'
CONST	ENDS
;	COMDAT ??_7IMessageObserver@@6B@
CONST	SEGMENT DWORD USE32 PUBLIC 'CONST'
CONST	ENDS
;	COMDAT ??_R4IMessageObserver@@6B@
rdata$r	SEGMENT DWORD USE32 PUBLIC 'CONST'
rdata$r	ENDS
;	COMDAT ??_R3IMessageObserver@@8
rdata$r	SEGMENT DWORD USE32 PUBLIC 'CONST'
rdata$r	ENDS
;	COMDAT ??_R2IMessageObserver@@8
rdata$r	SEGMENT DWORD USE32 PUBLIC 'CONST'
rdata$r	ENDS
;	COMDAT ??_GIMessageObserver@@UAEPAXI@Z
_TEXT	SEGMENT PARA USE32 PUBLIC 'CODE'
_TEXT	ENDS
;	COMDAT ??_7IQQItemCountChangeObserver@@6B@
CONST	SEGMENT DWORD USE32 PUBLIC 'CONST'
CONST	ENDS
;	COMDAT ??1IMessageObserver@@UAE@XZ
_TEXT	SEGMENT PARA USE32 PUBLIC 'CODE'
_TEXT	ENDS
;	COMDAT ??0?$allocator@D@std@@QAE@XZ
_TEXT	SEGMENT PARA USE32 PUBLIC 'CODE'
_TEXT	ENDS
;	COMDAT ??_7PlayedGameWnd@@6BIQQItemCountChangeObserver@@@
CONST	SEGMENT DWORD USE32 PUBLIC 'CONST'
CONST	ENDS
;	COMDAT ??_7PlayedGameWnd@@6BCLocalMusicCoverList@@@
CONST	SEGMENT DWORD USE32 PUBLIC 'CONST'
CONST	ENDS
;	COMDAT ?classPlayedGameWnd@PlayedGameWnd@@2UCRuntimeClass@@B
CONST	SEGMENT DWORD USE32 PUBLIC 'CONST'
CONST	ENDS
;	COMDAT ??_7IData@@6B@
CONST	SEGMENT DWORD USE32 PUBLIC 'CONST'
CONST	ENDS
;	COMDAT ?GetLastStatus@Image@Gdiplus@@QBE?AW4Status@2@XZ
_TEXT	SEGMENT PARA USE32 PUBLIC 'CODE'
_TEXT	ENDS
;	COMDAT ?FromFile@Bitmap@Gdiplus@@SAPAV12@PB_WH@Z
_TEXT	SEGMENT PARA USE32 PUBLIC 'CODE'
_TEXT	ENDS
;	COMDAT ??0Bitmap@Gdiplus@@QAE@PB_WH@Z
_TEXT	SEGMENT PARA USE32 PUBLIC 'CODE'
_TEXT	ENDS
;	COMDAT ??0Image@Gdiplus@@IAE@XZ
_TEXT	SEGMENT PARA USE32 PUBLIC 'CODE'
_TEXT	ENDS
;	COMDAT ??_7Bitmap@Gdiplus@@6B@
CONST	SEGMENT DWORD USE32 PUBLIC 'CONST'
CONST	ENDS
;	COMDAT ??_R4Bitmap@Gdiplus@@6B@
rdata$r	SEGMENT DWORD USE32 PUBLIC 'CONST'
rdata$r	ENDS
;	COMDAT ??_R0?AVBitmap@Gdiplus@@@8
_DATA	SEGMENT DWORD USE32 PUBLIC 'DATA'
_DATA	ENDS
;	COMDAT ??_R3Bitmap@Gdiplus@@8
rdata$r	SEGMENT DWORD USE32 PUBLIC 'CONST'
rdata$r	ENDS
;	COMDAT ??_R2Bitmap@Gdiplus@@8
rdata$r	SEGMENT DWORD USE32 PUBLIC 'CONST'
rdata$r	ENDS
;	COMDAT ??_R1A@?0A@A@Bitmap@Gdiplus@@8
rdata$r	SEGMENT DWORD USE32 PUBLIC 'CONST'
rdata$r	ENDS
;	COMDAT ??_GBitmap@Gdiplus@@UAEPAXI@Z
_TEXT	SEGMENT PARA USE32 PUBLIC 'CODE'
_TEXT	ENDS
;	COMDAT ??1Bitmap@Gdiplus@@UAE@XZ
_TEXT	SEGMENT PARA USE32 PUBLIC 'CODE'
_TEXT	ENDS
;	COMDAT ??_7CGdiPlusBitmap@@6B@
CONST	SEGMENT DWORD USE32 PUBLIC 'CONST'
CONST	ENDS
;	COMDAT ?BitBlt@CDC@@QAEHHHHHPAV1@HHK@Z
_TEXT	SEGMENT PARA USE32 PUBLIC 'CODE'
_TEXT	ENDS
;	COMDAT ?GetSafeHdc@CDC@@QBEPAUHDC__@@XZ
_TEXT	SEGMENT PARA USE32 PUBLIC 'CODE'
_TEXT	ENDS
;	COMDAT ?SelectObject@CDC@@QAEPAVCBitmap@@PAV2@@Z
_TEXT	SEGMENT PARA USE32 PUBLIC 'CODE'
_TEXT	ENDS
;	COMDAT ?Width@CRect@@QBEHXZ
_TEXT	SEGMENT PARA USE32 PUBLIC 'CODE'
_TEXT	ENDS
;	COMDAT ?Height@CRect@@QBEHXZ
_TEXT	SEGMENT PARA USE32 PUBLIC 'CODE'
_TEXT	ENDS
;	COMDAT ?CreateCompatibleBitmap@CBitmap@@QAEHPAVCDC@@HH@Z
_TEXT	SEGMENT PARA USE32 PUBLIC 'CODE'
_TEXT	ENDS
;	COMDAT ?CreateCompatibleDC@CDC@@QAEHPAV1@@Z
_TEXT	SEGMENT PARA USE32 PUBLIC 'CODE'
_TEXT	ENDS
;	COMDAT ?IsPrinting@CDC@@QBEHXZ
_TEXT	SEGMENT PARA USE32 PUBLIC 'CODE'
_TEXT	ENDS
;	COMDAT ?CopyRect@CRect@@QAEXPBUtagRECT@@@Z
_TEXT	SEGMENT PARA USE32 PUBLIC 'CODE'
_TEXT	ENDS
;	COMDAT ??0CRect@@QAE@XZ
_TEXT	SEGMENT PARA USE32 PUBLIC 'CODE'
_TEXT	ENDS
;	COMDAT ??1CBitmap@@UAE@XZ
_TEXT	SEGMENT PARA USE32 PUBLIC 'CODE'
_TEXT	ENDS
;	COMDAT ??_7CBitmap@@6B@
CONST	SEGMENT DWORD USE32 PUBLIC 'CONST'
CONST	ENDS
;	COMDAT ??_R4CBitmap@@6B@
rdata$r	SEGMENT DWORD USE32 PUBLIC 'CONST'
rdata$r	ENDS
;	COMDAT ??_R0?AVCBitmap@@@8
_DATA	SEGMENT DWORD USE32 PUBLIC 'DATA'
_DATA	ENDS
;	COMDAT ??_R3CBitmap@@8
rdata$r	SEGMENT DWORD USE32 PUBLIC 'CONST'
rdata$r	ENDS
;	COMDAT ??_R2CBitmap@@8
rdata$r	SEGMENT DWORD USE32 PUBLIC 'CONST'
rdata$r	ENDS
;	COMDAT ??_R1A@?0A@A@CBitmap@@8
rdata$r	SEGMENT DWORD USE32 PUBLIC 'CONST'
rdata$r	ENDS
;	COMDAT ??_R1A@?0A@A@CGdiObject@@8
rdata$r	SEGMENT DWORD USE32 PUBLIC 'CONST'
rdata$r	ENDS
;	COMDAT ??_R0?AVCGdiObject@@@8
_DATA	SEGMENT DWORD USE32 PUBLIC 'DATA'
_DATA	ENDS
;	COMDAT ??_GCBitmap@@UAEPAXI@Z
_TEXT	SEGMENT PARA USE32 PUBLIC 'CODE'
_TEXT	ENDS
;	COMDAT ??1CGdiObject@@UAE@XZ
_TEXT	SEGMENT PARA USE32 PUBLIC 'CODE'
_TEXT	ENDS
;	COMDAT ??_7CGdiObject@@6B@
CONST	SEGMENT DWORD USE32 PUBLIC 'CONST'
CONST	ENDS
;	COMDAT ??_R4CGdiObject@@6B@
rdata$r	SEGMENT DWORD USE32 PUBLIC 'CONST'
rdata$r	ENDS
;	COMDAT ??_R3CGdiObject@@8
rdata$r	SEGMENT DWORD USE32 PUBLIC 'CONST'
rdata$r	ENDS
;	COMDAT ??_R2CGdiObject@@8
rdata$r	SEGMENT DWORD USE32 PUBLIC 'CONST'
rdata$r	ENDS
;	COMDAT ??_GCGdiObject@@UAEPAXI@Z
_TEXT	SEGMENT PARA USE32 PUBLIC 'CODE'
_TEXT	ENDS
;	COMDAT ??0CBitmap@@QAE@XZ
_TEXT	SEGMENT PARA USE32 PUBLIC 'CODE'
_TEXT	ENDS
;	COMDAT ??0CGdiObject@@QAE@XZ
_TEXT	SEGMENT PARA USE32 PUBLIC 'CODE'
_TEXT	ENDS
;	COMDAT ??0CObject@@IAE@XZ
_TEXT	SEGMENT PARA USE32 PUBLIC 'CODE'
_TEXT	ENDS
;	COMDAT ??_7BCMenuMemDC@@6B@
CONST	SEGMENT DWORD USE32 PUBLIC 'CONST'
CONST	ENDS
;	COMDAT ??3CObject@@SGXPAX@Z
_TEXT	SEGMENT PARA USE32 PUBLIC 'CODE'
_TEXT	ENDS
;	COMDAT ??_7CCriticalSection@@6B@
CONST	SEGMENT DWORD USE32 PUBLIC 'CONST'
CONST	ENDS
sxdata	SEGMENT DWORD USE32 'SXDATA'
sxdata	ENDS
FLAT	GROUP _DATA, CONST, _BSS
	ASSUME	CS: FLAT, DS: FLAT, SS: FLAT
endif

INCLUDELIB MSVCRT
INCLUDELIB OLDNAMES

PUBLIC	?classPlayedGameWnd@PlayedGameWnd@@2UCRuntimeClass@@B ; PlayedGameWnd::classPlayedGameWnd
PUBLIC	?_messageEntries@PlayedGameWnd@@0QBUAFX_MSGMAP_ENTRY@@B ; PlayedGameWnd::_messageEntries
PUBLIC	?messageMap@PlayedGameWnd@@1UAFX_MSGMAP@@B	; PlayedGameWnd::messageMap
PUBLIC	?OnShowWindow@PlayedGameWnd@@IAEXHI@Z		; PlayedGameWnd::OnShowWindow
PUBLIC	?OnRButtonUp@PlayedGameWnd@@IAEXIVCPoint@@@Z	; PlayedGameWnd::OnRButtonUp
PUBLIC	?OnLButtonDblClk@PlayedGameWnd@@IAEXIVCPoint@@@Z ; PlayedGameWnd::OnLButtonDblClk
PUBLIC	?OnCreate@PlayedGameWnd@@IAEHPAUtagCREATESTRUCTA@@@Z ; PlayedGameWnd::OnCreate
PUBLIC	?OnKeyDown@PlayedGameWnd@@IAEXIII@Z		; PlayedGameWnd::OnKeyDown
PUBLIC	?OnMouseMove@PlayedGameWnd@@IAEXIVCPoint@@@Z	; PlayedGameWnd::OnMouseMove
PUBLIC	?OnMouseLeave@PlayedGameWnd@@IAEJIJ@Z		; PlayedGameWnd::OnMouseLeave
PUBLIC	?OnLButtonDown@PlayedGameWnd@@IAEXIVCPoint@@@Z	; PlayedGameWnd::OnLButtonDown
PUBLIC	?OnLButtonUp@PlayedGameWnd@@IAEXIVCPoint@@@Z	; PlayedGameWnd::OnLButtonUp
PUBLIC	?OnDestroy@PlayedGameWnd@@QAEXXZ		; PlayedGameWnd::OnDestroy
PUBLIC	?OnMouseWheel@PlayedGameWnd@@QAEHIFVCPoint@@@Z	; PlayedGameWnd::OnMouseWheel
PUBLIC	?g_pfnGetThreadACP@ATL@@3P6GIXZA		; ATL::g_pfnGetThreadACP
PUBLIC	?_AtlGetThreadACPThunk@ATL@@YGIXZ		; ATL::_AtlGetThreadACPThunk
EXTRN	?GetThisClass@CLocalMusicCoverList@@SGPAUCRuntimeClass@@XZ:NEAR ; CLocalMusicCoverList::GetThisClass
EXTRN	?GetThisMessageMap@CLocalMusicCoverList@@KGPBUAFX_MSGMAP@@XZ:NEAR ; CLocalMusicCoverList::GetThisMessageMap
CONST	SEGMENT
$SG202246 DB	'int', 00H
CONST	ENDS
_DATA	SEGMENT
_TYPE_CONFIG_INT DD FLAT:$SG202246
_DATA	ENDS
CONST	SEGMENT
$SG202248 DB	'str', 00H
CONST	ENDS
_DATA	SEGMENT
_TYPE_CONFIG_STR DD FLAT:$SG202248
_DATA	ENDS
CONST	SEGMENT
$SG202250 DB	'double', 00H
CONST	ENDS
_DATA	SEGMENT
_TYPE_CONFIG_DOUBLE DD FLAT:$SG202250
_DATA	ENDS
CONST	SEGMENT
	ORG $+1
$SG202252 DB	'bool', 00H
CONST	ENDS
_DATA	SEGMENT
_TYPE_CONFIG_BOOL DD FLAT:$SG202252
_DATA	ENDS
CONST	SEGMENT
	ORG $+3
$SG202254 DB	'sepint', 00H
CONST	ENDS
_DATA	SEGMENT
_TYPE_CONFIG_INT_HASSEP DD FLAT:$SG202254
_DATA	ENDS
CONST	SEGMENT
	ORG $+1
$SG202256 DB	'sepstr', 00H
CONST	ENDS
_DATA	SEGMENT
_TYPE_CONFIG_STR_HASSEP DD FLAT:$SG202256
_DATA	ENDS
CONST	SEGMENT
	ORG $+1
$SG202258 DB	'sepdouble', 00H
CONST	ENDS
_DATA	SEGMENT
_TYPE_CONFIG_DOUBLE_HASSEP DD FLAT:$SG202258
_DATA	ENDS
CONST	SEGMENT
	ORG $+2
$SG202260 DB	'sepbool', 00H
CONST	ENDS
_DATA	SEGMENT
_TYPE_CONFIG_BOOL_HASSEP DD FLAT:$SG202260
_DATA	ENDS
CONST	SEGMENT
$SG202262 DB	'Setting', 00H
CONST	ENDS
_DATA	SEGMENT
_CONF_SETTING_MODULE_NAME DD FLAT:$SG202262
_DATA	ENDS
CONST	SEGMENT
$SG202264 DB	'skin', 00H
CONST	ENDS
_DATA	SEGMENT
_CONF_SETTING_SKIN_IDX DD FLAT:$SG202264
_DATA	ENDS
CONST	SEGMENT
	ORG $+3
$SG202266 DB	'MainPage', 00H
CONST	ENDS
_DATA	SEGMENT
_CONF_SETTING_CONFIG_MAIN_PAGE DD FLAT:$SG202266
_DATA	ENDS
CONST	SEGMENT
	ORG $+3
$SG202268 DB	'ProblemReport', 00H
CONST	ENDS
_DATA	SEGMENT
_CONF_SETTING_CONFIG_PROBLEM_REPORT DD FLAT:$SG202268
_DATA	ENDS
CONST	SEGMENT
	ORG $+2
$SG202270 DB	'HomePage', 00H
CONST	ENDS
_DATA	SEGMENT
_CONF_SETTING_CONFIG_HOME_PAGE DD FLAT:$SG202270
_DATA	ENDS
CONST	SEGMENT
	ORG $+3
$SG202272 DB	'askexit', 00H
CONST	ENDS
_DATA	SEGMENT
_CONF_SETTING_CONFIG_IFASKEXIT DD FLAT:$SG202272
_DATA	ENDS
CONST	SEGMENT
$SG202274 DB	'exitchoice', 00H
CONST	ENDS
_DATA	SEGMENT
_CONF_SETTING_CONFIG_EXITCHOICE DD FLAT:$SG202274
_DATA	ENDS
CONST	SEGMENT
	ORG $+1
$SG202276 DB	'UN', 00H
CONST	ENDS
_DATA	SEGMENT
_CONF_SETTING_LOGIN_USER_NAME DD FLAT:$SG202276
_DATA	ENDS
CONST	SEGMENT
	ORG $+1
$SG202278 DB	'PW', 00H
CONST	ENDS
_DATA	SEGMENT
_CONF_SETTING_LOGIN_PASSWORD DD FLAT:$SG202278
_DATA	ENDS
CONST	SEGMENT
	ORG $+1
$SG202280 DB	'NetID', 00H
CONST	ENDS
_DATA	SEGMENT
_CONF_SETTING_NETID DD FLAT:$SG202280
_DATA	ENDS
CONST	SEGMENT
	ORG $+2
$SG202282 DB	'ChangeColorValue', 00H
CONST	ENDS
_DATA	SEGMENT
_CONF_SETTING_COLOR DD FLAT:$SG202282
_DATA	ENDS
CONST	SEGMENT
	ORG $+3
$SG202284 DB	'changeColorLight', 00H
CONST	ENDS
_DATA	SEGMENT
_CONF_SETTING_LIGHT DD FLAT:$SG202284
_DATA	ENDS
CONST	SEGMENT
	ORG $+3
$SG202286 DB	'ColorIndex', 00H
CONST	ENDS
_DATA	SEGMENT
_CONF_SETTING_COLOR_BTN_INDEX DD FLAT:$SG202286
_DATA	ENDS
CONST	SEGMENT
	ORG $+1
$SG202288 DB	'ColorUser', 00H
CONST	ENDS
_DATA	SEGMENT
_CONF_SETTING_COLOR_USER DD FLAT:$SG202288
_DATA	ENDS
CONST	SEGMENT
	ORG $+2
$SG202290 DB	'FirstTimeChangeSkin', 00H
CONST	ENDS
_DATA	SEGMENT
_CONF_SETTING_FIRST_TIME_CHANGESKIN DD FLAT:$SG202290
_DATA	ENDS
CONST	SEGMENT
$SG202297 DB	'App', 00H
CONST	ENDS
_DATA	SEGMENT
_CONF_APP_MODULE_NAME DD FLAT:$SG202297
_DATA	ENDS
CONST	SEGMENT
$SG202299 DB	'SwfPath', 00H
CONST	ENDS
_DATA	SEGMENT
_CONF_APP_SWF_PATH DD FLAT:$SG202299
_DATA	ENDS
CONST	SEGMENT
$SG202301 DB	'MainWndHold', 00H
CONST	ENDS
_DATA	SEGMENT
_CONF_APP_MAINWND_HOLD DD FLAT:$SG202301
_DATA	ENDS
CONST	SEGMENT
$SG202303 DB	'RunCount', 00H
CONST	ENDS
_DATA	SEGMENT
_CONF_APP_RUN_COUNT DD FLAT:$SG202303
_DATA	ENDS
CONST	SEGMENT
	ORG $+3
$SG202305 DB	'PlayedGame', 00H
CONST	ENDS
_DATA	SEGMENT
_CONF_APP_PLAYED_GAME DD FLAT:$SG202305
_DATA	ENDS
CONST	SEGMENT
	ORG $+1
$SG202307 DB	'playedPcGame', 00H
CONST	ENDS
_DATA	SEGMENT
_CONF_APP_PLAYED_PC_GAME DD FLAT:$SG202307
_DATA	ENDS
CONST	SEGMENT
	ORG $+3
$SG202309 DB	'PlayedIconSize', 00H
CONST	ENDS
_DATA	SEGMENT
_CONF_APP_PLAYED_ICON_SIZE DD FLAT:$SG202309
_DATA	ENDS
CONST	SEGMENT
	ORG $+1
$SG202311 DB	'PictureSavePath', 00H
CONST	ENDS
_DATA	SEGMENT
_CONF_APP_PIC_SAVE_PATH DD FLAT:$SG202311
_DATA	ENDS
CONST	SEGMENT
$SG202316 DB	'PlayedGameWnd', 00H
CONST	ENDS
;	COMDAT ?classPlayedGameWnd@PlayedGameWnd@@2UCRuntimeClass@@B
CONST	SEGMENT
?classPlayedGameWnd@PlayedGameWnd@@2UCRuntimeClass@@B DD FLAT:$SG202316 ; PlayedGameWnd::classPlayedGameWnd
	DD	025cH
	DD	0ffffH
	DD	00H
	DD	FLAT:?GetThisClass@CLocalMusicCoverList@@SGPAUCRuntimeClass@@XZ
	DD	00H
	DD	00H
CONST	ENDS
CONST	SEGMENT
	ORG $+2
$SG202328 DB	'-1', 00H
$SG202329 DB	00H
CONST	ENDS
;	COMDAT ?_messageEntries@PlayedGameWnd@@0QBUAFX_MSGMAP_ENTRY@@B
CONST	SEGMENT
?_messageEntries@PlayedGameWnd@@0QBUAFX_MSGMAP_ENTRY@@B DD 018H ; PlayedGameWnd::_messageEntries
	DD	00H
	DD	00H
	DD	00H
	DD	012H
	DD	FLAT:?OnShowWindow@PlayedGameWnd@@IAEXHI@Z
	DD	0205H
	DD	00H
	DD	00H
	DD	00H
	DD	032H
	DD	FLAT:?OnRButtonUp@PlayedGameWnd@@IAEXIVCPoint@@@Z
	DD	0203H
	DD	00H
	DD	00H
	DD	00H
	DD	032H
	DD	FLAT:?OnLButtonDblClk@PlayedGameWnd@@IAEXIVCPoint@@@Z
	DD	01H
	DD	00H
	DD	00H
	DD	00H
	DD	0dH
	DD	FLAT:?OnCreate@PlayedGameWnd@@IAEHPAUtagCREATESTRUCTA@@@Z
	DD	0100H
	DD	00H
	DD	00H
	DD	00H
	DD	015H
	DD	FLAT:?OnKeyDown@PlayedGameWnd@@IAEXIII@Z
	DD	0200H
	DD	00H
	DD	00H
	DD	00H
	DD	032H
	DD	FLAT:?OnMouseMove@PlayedGameWnd@@IAEXIVCPoint@@@Z
	DD	02a3H
	DD	00H
	DD	00H
	DD	00H
	DD	0eH
	DD	FLAT:?OnMouseLeave@PlayedGameWnd@@IAEJIJ@Z
	DD	0201H
	DD	00H
	DD	00H
	DD	00H
	DD	032H
	DD	FLAT:?OnLButtonDown@PlayedGameWnd@@IAEXIVCPoint@@@Z
	DD	0202H
	DD	00H
	DD	00H
	DD	00H
	DD	032H
	DD	FLAT:?OnLButtonUp@PlayedGameWnd@@IAEXIVCPoint@@@Z
	DD	02H
	DD	00H
	DD	00H
	DD	00H
	DD	010H
	DD	FLAT:?OnDestroy@PlayedGameWnd@@QAEXXZ
	DD	020aH
	DD	00H
	DD	00H
	DD	00H
	DD	034H
	DD	FLAT:?OnMouseWheel@PlayedGameWnd@@QAEHIFVCPoint@@@Z
	DD	00H
	DD	00H
	DD	00H
	DD	00H
	DD	00H
	DD	00H
CONST	ENDS
;	COMDAT ?messageMap@PlayedGameWnd@@1UAFX_MSGMAP@@B
CONST	SEGMENT
?messageMap@PlayedGameWnd@@1UAFX_MSGMAP@@B DD FLAT:?GetThisMessageMap@CLocalMusicCoverList@@KGPBUAFX_MSGMAP@@XZ ; PlayedGameWnd::messageMap
	DD	FLAT:?_messageEntries@PlayedGameWnd@@0QBUAFX_MSGMAP_ENTRY@@B
CONST	ENDS
CONST	SEGMENT
$SG202466 DB	0d0H, 0a1H, 0b1H, 0a6H, 0b1H, 0b4H, 0d3H, 0ceH, 0cfH, 0b7H
	DB	0baH, 0d0H, 00H
	ORG $+3
$SG202467 DB	0c4H, 0faH, 0c8H, 0b7H, 0b6H, 0a8H, 0d2H, 0aaH, 0c9H, 0beH
	DB	0b3H, 0fdH, 0cbH, 0f9H, 0d1H, 0a1H, 0d3H, 0ceH, 0cfH, 0b7H, 0c2H
	DB	0f0H, 0a3H, 0bfH, 00H
	ORG $+3
$SG203057 DB	0aH, 00H
	ORG $+2
$SG203058 DB	'name=', 00H
	ORG $+2
$SG203059 DB	0aH, 00H
	ORG $+2
$SG203060 DB	'id=', 00H
$SG203061 DB	'method=playswfgame', 0aH, 0aH, 00H
$SG203209 DB	00H
	ORG $+2
$SG203210 DB	'tooltips_class32', 00H
	ORG $+3
$SG203260 DB	'\CoverPlayNormal.png', 00H
	ORG $+3
$SG203261 DB	'\CoverPlayOver.png', 00H
	ORG $+1
$SG203314 DB	0c3H, 0fbH, 0b3H, 0c6H, ': %s$#', 0d3H, 0ceH, 0cfH, 0b7H, 0bcH
	DB	0f2H, 0bdH, 0e9H, ':%s', 00H
	ORG $+2
$SG203316 DB	0c3H, 0fbH, 0b3H, 0c6H, ': %s', 00H
CONST	ENDS
;	COMDAT ?g_pfnGetThreadACP@ATL@@3P6GIXZA
_DATA	SEGMENT
?g_pfnGetThreadACP@ATL@@3P6GIXZA DD FLAT:?_AtlGetThreadACPThunk@ATL@@YGIXZ ; ATL::g_pfnGetThreadACP
_DATA	ENDS
CONST	SEGMENT
	ORG $+3
_ID_MESSAGE_QQ_ITEM_CHANGE DD 0eH
_ID_DATA_TABBAR DD 07H
_ID_DATA_LOCALGAME DD 0aH
CONST	ENDS
PUBLIC	?GetThisClass@PlayedGameWnd@@SGPAUCRuntimeClass@@XZ ; PlayedGameWnd::GetThisClass
; Function compile flags: /Odt
; File d:\boxgit\playbox\playbox\dev\prj\playbox\src\module\playedgamepanel\playedgamewnd.cpp
_TEXT	SEGMENT
?GetThisClass@PlayedGameWnd@@SGPAUCRuntimeClass@@XZ PROC NEAR ; PlayedGameWnd::GetThisClass

; 15   : IMPLEMENT_DYNAMIC(PlayedGameWnd, CLocalMusicCoverList)

  00000	55		 push	 ebp
  00001	8b ec		 mov	 ebp, esp
  00003	b8 00 00 00 00	 mov	 eax, OFFSET FLAT:?classPlayedGameWnd@PlayedGameWnd@@2UCRuntimeClass@@B ; PlayedGameWnd::classPlayedGameWnd
  00008	5d		 pop	 ebp
  00009	c3		 ret	 0
?GetThisClass@PlayedGameWnd@@SGPAUCRuntimeClass@@XZ ENDP ; PlayedGameWnd::GetThisClass
_TEXT	ENDS
PUBLIC	?GetRuntimeClass@PlayedGameWnd@@UBEPAUCRuntimeClass@@XZ ; PlayedGameWnd::GetRuntimeClass
; Function compile flags: /Odt
_TEXT	SEGMENT
_this$ = -4						; size = 4
?GetRuntimeClass@PlayedGameWnd@@UBEPAUCRuntimeClass@@XZ PROC NEAR ; PlayedGameWnd::GetRuntimeClass
; _this$ = ecx

; 15   : IMPLEMENT_DYNAMIC(PlayedGameWnd, CLocalMusicCoverList)

  00010	55		 push	 ebp
  00011	8b ec		 mov	 ebp, esp
  00013	51		 push	 ecx
  00014	89 4d fc	 mov	 DWORD PTR _this$[ebp], ecx
  00017	b8 00 00 00 00	 mov	 eax, OFFSET FLAT:?classPlayedGameWnd@PlayedGameWnd@@2UCRuntimeClass@@B ; PlayedGameWnd::classPlayedGameWnd
  0001c	8b e5		 mov	 esp, ebp
  0001e	5d		 pop	 ebp
  0001f	c3		 ret	 0
?GetRuntimeClass@PlayedGameWnd@@UBEPAUCRuntimeClass@@XZ ENDP ; PlayedGameWnd::GetRuntimeClass
_TEXT	ENDS
PUBLIC	??_R4PlayedGameWnd@@6BCLocalMusicCoverList@@@	; PlayedGameWnd::`RTTI Complete Object Locator'
PUBLIC	??_R0?AVPlayedGameWnd@@@8			; PlayedGameWnd `RTTI Type Descriptor'
PUBLIC	??_R3PlayedGameWnd@@8				; PlayedGameWnd::`RTTI Class Hierarchy Descriptor'
PUBLIC	??_R2PlayedGameWnd@@8				; PlayedGameWnd::`RTTI Base Class Array'
PUBLIC	??_R1A@?0A@A@PlayedGameWnd@@8			; PlayedGameWnd::`RTTI Base Class Descriptor at (0,-1,0,0)'
PUBLIC	??_R1A@?0A@A@CLocalMusicCoverList@@8		; CLocalMusicCoverList::`RTTI Base Class Descriptor at (0,-1,0,0)'
PUBLIC	??_R0?AVCLocalMusicCoverList@@@8		; CLocalMusicCoverList `RTTI Type Descriptor'
PUBLIC	??_R1BHM@?0A@A@IQQItemCountChangeObserver@@8	; IQQItemCountChangeObserver::`RTTI Base Class Descriptor at (380,-1,0,0)'
PUBLIC	??_R1BHM@?0A@A@IMessageObserver@@8		; IMessageObserver::`RTTI Base Class Descriptor at (380,-1,0,0)'
PUBLIC	??_EPlayedGameWnd@@WBHM@AEPAXI@Z		; [thunk]:PlayedGameWnd::`vector deleting destructor'
PUBLIC	??_R4PlayedGameWnd@@6BIQQItemCountChangeObserver@@@ ; PlayedGameWnd::`RTTI Complete Object Locator'
PUBLIC	??0PlayedGameWnd@@QAE@XZ			; PlayedGameWnd::PlayedGameWnd
PUBLIC	?GetMessageMap@PlayedGameWnd@@MBEPBUAFX_MSGMAP@@XZ ; PlayedGameWnd::GetMessageMap
PUBLIC	?OnCommand@PlayedGameWnd@@MAEHIJ@Z		; PlayedGameWnd::OnCommand
PUBLIC	?IQQItemChangeOb_CountChange@PlayedGameWnd@@UAEXI@Z ; PlayedGameWnd::IQQItemChangeOb_CountChange
PUBLIC	??_7PlayedGameWnd@@6BCLocalMusicCoverList@@@	; PlayedGameWnd::`vftable'
PUBLIC	??_7PlayedGameWnd@@6BIQQItemCountChangeObserver@@@ ; PlayedGameWnd::`vftable'
PUBLIC	??_GPlayedGameWnd@@UAEPAXI@Z			; PlayedGameWnd::`scalar deleting destructor'
PUBLIC	??_R1A@?0A@A@CObject@@8				; CObject::`RTTI Base Class Descriptor at (0,-1,0,0)'
PUBLIC	??_R0?AVCObject@@@8				; CObject `RTTI Type Descriptor'
PUBLIC	??_R1A@?0A@A@CWnd@@8				; CWnd::`RTTI Base Class Descriptor at (0,-1,0,0)'
PUBLIC	??_R0?AVCWnd@@@8				; CWnd `RTTI Type Descriptor'
PUBLIC	??_R1A@?0A@A@CCmdTarget@@8			; CCmdTarget::`RTTI Base Class Descriptor at (0,-1,0,0)'
PUBLIC	??_R0?AVCCmdTarget@@@8				; CCmdTarget `RTTI Type Descriptor'
PUBLIC	??_R0?AVIMessageObserver@@@8			; IMessageObserver `RTTI Type Descriptor'
PUBLIC	?Serialize@CObject@@UAEXAAVCArchive@@@Z		; CObject::Serialize
PUBLIC	?AssertValid@CObject@@UBEXXZ			; CObject::AssertValid
PUBLIC	?Dump@CObject@@UBEXAAVCDumpContext@@@Z		; CObject::Dump
PUBLIC	??0IQQItemCountChangeObserver@@QAE@XZ		; IQQItemCountChangeObserver::IQQItemCountChangeObserver
PUBLIC	??1IQQItemCountChangeObserver@@UAE@XZ		; IQQItemCountChangeObserver::~IQQItemCountChangeObserver
PUBLIC	?DoDataExchange@CWnd@@MAEXPAVCDataExchange@@@Z	; CWnd::DoDataExchange
PUBLIC	?BeginModalState@CWnd@@UAEXXZ			; CWnd::BeginModalState
PUBLIC	?EndModalState@CWnd@@UAEXXZ			; CWnd::EndModalState
PUBLIC	??_R0?AVIQQItemCountChangeObserver@@@8		; IQQItemCountChangeObserver `RTTI Type Descriptor'
EXTRN	?CreateControlContainer@CWnd@@MAEHPAPAVCOleControlContainer@@@Z:NEAR ; CWnd::CreateControlContainer
EXTRN	?CreateControlSite@CWnd@@MAEHPAVCOleControlContainer@@PAPAVCOleControlSite@@IABU_GUID@@@Z:NEAR ; CWnd::CreateControlSite
EXTRN	?SetOccDialogInfo@CWnd@@MAEHPAU_AFX_OCC_DIALOG_INFO@@@Z:NEAR ; CWnd::SetOccDialogInfo
EXTRN	?PreTranslateMessage@CLocalMusicCoverList@@UAEHPAUtagMSG@@@Z:NEAR ; CLocalMusicCoverList::PreTranslateMessage
EXTRN	?OnToolHitTest@CWnd@@UBEHVCPoint@@PAUtagTOOLINFOA@@@Z:NEAR ; CWnd::OnToolHitTest
EXTRN	??_EPlayedGameWnd@@UAEPAXI@Z:NEAR		; PlayedGameWnd::`vector deleting destructor'
EXTRN	?GetScrollBarCtrl@CWnd@@UBEPAVCScrollBar@@H@Z:NEAR ; CWnd::GetScrollBarCtrl
EXTRN	?WinHelpA@CWnd@@UAEXKI@Z:NEAR			; CWnd::WinHelpA
EXTRN	?HtmlHelpA@CWnd@@UAEXKI@Z:NEAR			; CWnd::HtmlHelpA
EXTRN	?WinHelpInternal@CWnd@@UAEXKI@Z:NEAR		; CWnd::WinHelpInternal
EXTRN	?ContinueModal@CWnd@@UAEHXZ:NEAR		; CWnd::ContinueModal
EXTRN	?EndModalLoop@CWnd@@UAEXH@Z:NEAR		; CWnd::EndModalLoop
EXTRN	?GetInterfaceMap@CWnd@@MBEPBUAFX_INTERFACEMAP@@XZ:NEAR ; CWnd::GetInterfaceMap
EXTRN	?EnsureStdObj@CWnd@@UAEJXZ:NEAR			; CWnd::EnsureStdObj
EXTRN	?get_accParent@CWnd@@UAEJPAPAUIDispatch@@@Z:NEAR ; CWnd::get_accParent
EXTRN	?get_accChildCount@CWnd@@UAEJPAJ@Z:NEAR		; CWnd::get_accChildCount
EXTRN	?OnCmdMsg@CCmdTarget@@UAEHIHPAXPAUAFX_CMDHANDLERINFO@@@Z:NEAR ; CCmdTarget::OnCmdMsg
EXTRN	?get_accChild@CWnd@@UAEJUtagVARIANT@@PAPAUIDispatch@@@Z:NEAR ; CWnd::get_accChild
EXTRN	?IsInvokeAllowed@CCmdTarget@@UAEHJ@Z:NEAR	; CCmdTarget::IsInvokeAllowed
EXTRN	?get_accName@CWnd@@UAEJUtagVARIANT@@PAPA_W@Z:NEAR ; CWnd::get_accName
EXTRN	?get_accValue@CWnd@@UAEJUtagVARIANT@@PAPA_W@Z:NEAR ; CWnd::get_accValue
EXTRN	?get_accDescription@CWnd@@UAEJUtagVARIANT@@PAPA_W@Z:NEAR ; CWnd::get_accDescription
EXTRN	?GetDispatchIID@CCmdTarget@@UAEHPAU_GUID@@@Z:NEAR ; CCmdTarget::GetDispatchIID
EXTRN	?GetTypeInfoCount@CCmdTarget@@UAEIXZ:NEAR	; CCmdTarget::GetTypeInfoCount
EXTRN	?GetTypeLibCache@CCmdTarget@@UAEPAVCTypeLibCache@@XZ:NEAR ; CCmdTarget::GetTypeLibCache
EXTRN	?get_accRole@CWnd@@UAEJUtagVARIANT@@PAU2@@Z:NEAR ; CWnd::get_accRole
EXTRN	?GetTypeLib@CCmdTarget@@UAEJKPAPAUITypeLib@@@Z:NEAR ; CCmdTarget::GetTypeLib
EXTRN	?get_accState@CWnd@@UAEJUtagVARIANT@@PAU2@@Z:NEAR ; CWnd::get_accState
EXTRN	?get_accHelp@CWnd@@UAEJUtagVARIANT@@PAPA_W@Z:NEAR ; CWnd::get_accHelp
EXTRN	?get_accHelpTopic@CWnd@@UAEJPAPA_WUtagVARIANT@@PAJ@Z:NEAR ; CWnd::get_accHelpTopic
EXTRN	?get_accKeyboardShortcut@CWnd@@UAEJUtagVARIANT@@PAPA_W@Z:NEAR ; CWnd::get_accKeyboardShortcut
EXTRN	?get_accFocus@CWnd@@UAEJPAUtagVARIANT@@@Z:NEAR	; CWnd::get_accFocus
EXTRN	?get_accSelection@CWnd@@UAEJPAUtagVARIANT@@@Z:NEAR ; CWnd::get_accSelection
EXTRN	?get_accDefaultAction@CWnd@@UAEJUtagVARIANT@@PAPA_W@Z:NEAR ; CWnd::get_accDefaultAction
EXTRN	?GetCommandMap@CCmdTarget@@MBEPBUAFX_OLECMDMAP@@XZ:NEAR ; CCmdTarget::GetCommandMap
EXTRN	?accSelect@CWnd@@UAEJJUtagVARIANT@@@Z:NEAR	; CWnd::accSelect
EXTRN	?accLocation@CWnd@@UAEJPAJ000UtagVARIANT@@@Z:NEAR ; CWnd::accLocation
EXTRN	?GetDispatchMap@CCmdTarget@@MBEPBUAFX_DISPMAP@@XZ:NEAR ; CCmdTarget::GetDispatchMap
EXTRN	?accNavigate@CWnd@@UAEJJUtagVARIANT@@PAU2@@Z:NEAR ; CWnd::accNavigate
EXTRN	?accHitTest@CWnd@@UAEJJJPAUtagVARIANT@@@Z:NEAR	; CWnd::accHitTest
EXTRN	?GetConnectionMap@CCmdTarget@@MBEPBUAFX_CONNECTIONMAP@@XZ:NEAR ; CCmdTarget::GetConnectionMap
EXTRN	?accDoDefaultAction@CWnd@@UAEJUtagVARIANT@@@Z:NEAR ; CWnd::accDoDefaultAction
EXTRN	?put_accName@CWnd@@UAEJUtagVARIANT@@PA_W@Z:NEAR	; CWnd::put_accName
EXTRN	?put_accValue@CWnd@@UAEJUtagVARIANT@@PA_W@Z:NEAR ; CWnd::put_accValue
EXTRN	?SetProxy@CWnd@@UAEJPAUIAccessibleProxy@@@Z:NEAR ; CWnd::SetProxy
EXTRN	??0CLocalMusicCoverList@@QAE@XZ:NEAR		; CLocalMusicCoverList::CLocalMusicCoverList
EXTRN	??1CLocalMusicCoverList@@UAE@XZ:NEAR		; CLocalMusicCoverList::~CLocalMusicCoverList
EXTRN	?CreateAccessibleProxy@CWnd@@UAEJIJPAJ@Z:NEAR	; CWnd::CreateAccessibleProxy
EXTRN	?GetEventSinkMap@CCmdTarget@@MBEPBUAFX_EVENTSINKMAP@@XZ:NEAR ; CCmdTarget::GetEventSinkMap
EXTRN	?Create@CLocalMusicCoverList@@UAEHPBD0KABUtagRECT@@PAVCWnd@@IPAUCCreateContext@@@Z:NEAR ; CLocalMusicCoverList::Create
EXTRN	?OnCreateAggregates@CCmdTarget@@UAEHXZ:NEAR	; CCmdTarget::OnCreateAggregates
EXTRN	?GetInterfaceHook@CCmdTarget@@UAEPAUIUnknown@@PBX@Z:NEAR ; CCmdTarget::GetInterfaceHook
EXTRN	?OnNotify@CWnd@@MAEHIJPAJ@Z:NEAR		; CWnd::OnNotify
EXTRN	?OnMoveDraging@CLocalMusicCoverList@@UAEXXZ:NEAR ; CLocalMusicCoverList::OnMoveDraging
EXTRN	?OnEndDrag@CLocalMusicCoverList@@UAEXXZ:NEAR	; CLocalMusicCoverList::OnEndDrag
EXTRN	?GetExtraConnectionPoints@CCmdTarget@@MAEHPAVCPtrArray@@@Z:NEAR ; CCmdTarget::GetExtraConnectionPoints
EXTRN	?GetConnectionHook@CCmdTarget@@MAEPAUIConnectionPoint@@ABU_GUID@@@Z:NEAR ; CCmdTarget::GetConnectionHook
EXTRN	__except_list:DWORD
EXTRN	___CxxFrameHandler:NEAR
EXTRN	??0CCWToolTips@@QAE@XZ:NEAR			; CCWToolTips::CCWToolTips
EXTRN	??1CCWToolTips@@UAE@XZ:NEAR			; CCWToolTips::~CCWToolTips
EXTRN	?PreSubclassWindow@CWnd@@UAEXXZ:NEAR		; CWnd::PreSubclassWindow
EXTRN	?CreateEx@CWnd@@UAEHKPBD0KHHHHPAUHWND__@@PAUHMENU__@@PAX@Z:NEAR ; CWnd::CreateEx
EXTRN	?CreateEx@CWnd@@UAEHKPBD0KABUtagRECT@@PAV1@IPAX@Z:NEAR ; CWnd::CreateEx
EXTRN	__imp_??0?$basic_string@DU?$char_traits@D@std@@V?$allocator@D@2@@std@@QAE@PBD@Z:NEAR
EXTRN	?DestroyWindow@CWnd@@UAEHXZ:NEAR		; CWnd::DestroyWindow
EXTRN	?PreCreateWindow@CWnd@@UAEHAAUtagCREATESTRUCTA@@@Z:NEAR ; CWnd::PreCreateWindow
EXTRN	?CalcWindowRect@CWnd@@UAEXPAUtagRECT@@I@Z:NEAR	; CWnd::CalcWindowRect
EXTRN	__imp_??1?$basic_string@DU?$char_traits@D@std@@V?$allocator@D@2@@std@@QAE@XZ:NEAR
EXTRN	?GetSuperWndProcAddr@CWnd@@MAEPAP6GJPAUHWND__@@IIJ@ZXZ:NEAR ; CWnd::GetSuperWndProcAddr
EXTRN	??_7type_info@@6B@:QWORD			; type_info::`vftable'
EXTRN	?OnAmbientProperty@CWnd@@UAEHPAVCOleControlSite@@JPAUtagVARIANT@@@Z:NEAR ; CWnd::OnAmbientProperty
EXTRN	?WindowProc@CWnd@@MAEJIIJ@Z:NEAR		; CWnd::WindowProc
EXTRN	?OnWndMsg@CWnd@@MAEHIIJPAJ@Z:NEAR		; CWnd::OnWndMsg
EXTRN	?DefWindowProcA@CWnd@@MAEJIIJ@Z:NEAR		; CWnd::DefWindowProcA
EXTRN	?PostNcDestroy@CWnd@@MAEXXZ:NEAR		; CWnd::PostNcDestroy
EXTRN	?OnChildNotify@CWnd@@MAEHIIJPAJ@Z:NEAR		; CWnd::OnChildNotify
EXTRN	?AfxGetMessageManager@@YAPAVIMessageManager@@XZ:NEAR ; AfxGetMessageManager
EXTRN	?CheckAutoCenter@CWnd@@UAEHXZ:NEAR		; CWnd::CheckAutoCenter
EXTRN	?IsFrameWnd@CWnd@@UBEHXZ:NEAR			; CWnd::IsFrameWnd
EXTRN	?OnFinalRelease@CWnd@@UAEXXZ:NEAR		; CWnd::OnFinalRelease
xdata$x	SEGMENT
$T205605 DD	0ffffffffH
	DD	FLAT:$L205594
	DD	00H
	DD	FLAT:$L205595
	DD	01H
	DD	FLAT:$L205596
	DD	02H
	DD	FLAT:$L205597
	DD	03H
	DD	FLAT:$L205598
$T205602 DD	019930520H
	DD	05H
	DD	FLAT:$T205605
	DD	2 DUP(00H)
	DD	2 DUP(00H)
xdata$x	ENDS
;	COMDAT ??_7PlayedGameWnd@@6BCLocalMusicCoverList@@@
CONST	SEGMENT
??_7PlayedGameWnd@@6BCLocalMusicCoverList@@@ DD FLAT:??_R4PlayedGameWnd@@6BCLocalMusicCoverList@@@ ; PlayedGameWnd::`vftable'
	DD	FLAT:?GetRuntimeClass@PlayedGameWnd@@UBEPAUCRuntimeClass@@XZ
	DD	FLAT:??_EPlayedGameWnd@@UAEPAXI@Z
	DD	FLAT:?Serialize@CObject@@UAEXAAVCArchive@@@Z
	DD	FLAT:?AssertValid@CObject@@UBEXXZ
	DD	FLAT:?Dump@CObject@@UBEXAAVCDumpContext@@@Z
	DD	FLAT:?OnCmdMsg@CCmdTarget@@UAEHIHPAXPAUAFX_CMDHANDLERINFO@@@Z
	DD	FLAT:?OnFinalRelease@CWnd@@UAEXXZ
	DD	FLAT:?IsInvokeAllowed@CCmdTarget@@UAEHJ@Z
	DD	FLAT:?GetDispatchIID@CCmdTarget@@UAEHPAU_GUID@@@Z
	DD	FLAT:?GetTypeInfoCount@CCmdTarget@@UAEIXZ
	DD	FLAT:?GetTypeLibCache@CCmdTarget@@UAEPAVCTypeLibCache@@XZ
	DD	FLAT:?GetTypeLib@CCmdTarget@@UAEJKPAPAUITypeLib@@@Z
	DD	FLAT:?GetMessageMap@PlayedGameWnd@@MBEPBUAFX_MSGMAP@@XZ
	DD	FLAT:?GetCommandMap@CCmdTarget@@MBEPBUAFX_OLECMDMAP@@XZ
	DD	FLAT:?GetDispatchMap@CCmdTarget@@MBEPBUAFX_DISPMAP@@XZ
	DD	FLAT:?GetConnectionMap@CCmdTarget@@MBEPBUAFX_CONNECTIONMAP@@XZ
	DD	FLAT:?GetInterfaceMap@CWnd@@MBEPBUAFX_INTERFACEMAP@@XZ
	DD	FLAT:?GetEventSinkMap@CCmdTarget@@MBEPBUAFX_EVENTSINKMAP@@XZ
	DD	FLAT:?OnCreateAggregates@CCmdTarget@@UAEHXZ
	DD	FLAT:?GetInterfaceHook@CCmdTarget@@UAEPAUIUnknown@@PBX@Z
	DD	FLAT:?GetExtraConnectionPoints@CCmdTarget@@MAEHPAVCPtrArray@@@Z
	DD	FLAT:?GetConnectionHook@CCmdTarget@@MAEPAUIConnectionPoint@@ABU_GUID@@@Z
	DD	FLAT:?PreSubclassWindow@CWnd@@UAEXXZ
	DD	FLAT:?Create@CLocalMusicCoverList@@UAEHPBD0KABUtagRECT@@PAVCWnd@@IPAUCCreateContext@@@Z
	DD	FLAT:?CreateEx@CWnd@@UAEHKPBD0KABUtagRECT@@PAV1@IPAX@Z
	DD	FLAT:?CreateEx@CWnd@@UAEHKPBD0KHHHHPAUHWND__@@PAUHMENU__@@PAX@Z
	DD	FLAT:?DestroyWindow@CWnd@@UAEHXZ
	DD	FLAT:?PreCreateWindow@CWnd@@UAEHAAUtagCREATESTRUCTA@@@Z
	DD	FLAT:?CalcWindowRect@CWnd@@UAEXPAUtagRECT@@I@Z
	DD	FLAT:?OnToolHitTest@CWnd@@UBEHVCPoint@@PAUtagTOOLINFOA@@@Z
	DD	FLAT:?GetScrollBarCtrl@CWnd@@UBEPAVCScrollBar@@H@Z
	DD	FLAT:?WinHelpA@CWnd@@UAEXKI@Z
	DD	FLAT:?HtmlHelpA@CWnd@@UAEXKI@Z
	DD	FLAT:?WinHelpInternal@CWnd@@UAEXKI@Z
	DD	FLAT:?ContinueModal@CWnd@@UAEHXZ
	DD	FLAT:?EndModalLoop@CWnd@@UAEXH@Z
	DD	FLAT:?EnsureStdObj@CWnd@@UAEJXZ
	DD	FLAT:?get_accParent@CWnd@@UAEJPAPAUIDispatch@@@Z
	DD	FLAT:?get_accChildCount@CWnd@@UAEJPAJ@Z
	DD	FLAT:?get_accChild@CWnd@@UAEJUtagVARIANT@@PAPAUIDispatch@@@Z
	DD	FLAT:?get_accName@CWnd@@UAEJUtagVARIANT@@PAPA_W@Z
	DD	FLAT:?get_accValue@CWnd@@UAEJUtagVARIANT@@PAPA_W@Z
	DD	FLAT:?get_accDescription@CWnd@@UAEJUtagVARIANT@@PAPA_W@Z
	DD	FLAT:?get_accRole@CWnd@@UAEJUtagVARIANT@@PAU2@@Z
	DD	FLAT:?get_accState@CWnd@@UAEJUtagVARIANT@@PAU2@@Z
	DD	FLAT:?get_accHelp@CWnd@@UAEJUtagVARIANT@@PAPA_W@Z
	DD	FLAT:?get_accHelpTopic@CWnd@@UAEJPAPA_WUtagVARIANT@@PAJ@Z
	DD	FLAT:?get_accKeyboardShortcut@CWnd@@UAEJUtagVARIANT@@PAPA_W@Z
	DD	FLAT:?get_accFocus@CWnd@@UAEJPAUtagVARIANT@@@Z
	DD	FLAT:?get_accSelection@CWnd@@UAEJPAUtagVARIANT@@@Z
	DD	FLAT:?get_accDefaultAction@CWnd@@UAEJUtagVARIANT@@PAPA_W@Z
	DD	FLAT:?accSelect@CWnd@@UAEJJUtagVARIANT@@@Z
	DD	FLAT:?accLocation@CWnd@@UAEJPAJ000UtagVARIANT@@@Z
	DD	FLAT:?accNavigate@CWnd@@UAEJJUtagVARIANT@@PAU2@@Z
	DD	FLAT:?accHitTest@CWnd@@UAEJJJPAUtagVARIANT@@@Z
	DD	FLAT:?accDoDefaultAction@CWnd@@UAEJUtagVARIANT@@@Z
	DD	FLAT:?put_accName@CWnd@@UAEJUtagVARIANT@@PA_W@Z
	DD	FLAT:?put_accValue@CWnd@@UAEJUtagVARIANT@@PA_W@Z
	DD	FLAT:?SetProxy@CWnd@@UAEJPAUIAccessibleProxy@@@Z
	DD	FLAT:?CreateAccessibleProxy@CWnd@@UAEJIJPAJ@Z
	DD	FLAT:?OnCommand@PlayedGameWnd@@MAEHIJ@Z
	DD	FLAT:?OnNotify@CWnd@@MAEHIJPAJ@Z
	DD	FLAT:?GetSuperWndProcAddr@CWnd@@MAEPAP6GJPAUHWND__@@IIJ@ZXZ
	DD	FLAT:?DoDataExchange@CWnd@@MAEXPAVCDataExchange@@@Z
	DD	FLAT:?BeginModalState@CWnd@@UAEXXZ
	DD	FLAT:?EndModalState@CWnd@@UAEXXZ
	DD	FLAT:?PreTranslateMessage@CLocalMusicCoverList@@UAEHPAUtagMSG@@@Z
	DD	FLAT:?OnAmbientProperty@CWnd@@UAEHPAVCOleControlSite@@JPAUtagVARIANT@@@Z
	DD	FLAT:?WindowProc@CWnd@@MAEJIIJ@Z
	DD	FLAT:?OnWndMsg@CWnd@@MAEHIIJPAJ@Z
	DD	FLAT:?DefWindowProcA@CWnd@@MAEJIIJ@Z
	DD	FLAT:?PostNcDestroy@CWnd@@MAEXXZ
	DD	FLAT:?OnChildNotify@CWnd@@MAEHIIJPAJ@Z
	DD	FLAT:?CheckAutoCenter@CWnd@@UAEHXZ
	DD	FLAT:?IsFrameWnd@CWnd@@UBEHXZ
	DD	FLAT:?CreateControlContainer@CWnd@@MAEHPAPAVCOleControlContainer@@@Z
	DD	FLAT:?CreateControlSite@CWnd@@MAEHPAVCOleControlContainer@@PAPAVCOleControlSite@@IABU_GUID@@@Z
	DD	FLAT:?SetOccDialogInfo@CWnd@@MAEHPAU_AFX_OCC_DIALOG_INFO@@@Z
	DD	FLAT:?OnMoveDraging@CLocalMusicCoverList@@UAEXXZ
	DD	FLAT:?OnEndDrag@CLocalMusicCoverList@@UAEXXZ
CONST	ENDS
;	COMDAT ??_7PlayedGameWnd@@6BIQQItemCountChangeObserver@@@
CONST	SEGMENT
??_7PlayedGameWnd@@6BIQQItemCountChangeObserver@@@ DD FLAT:??_R4PlayedGameWnd@@6BIQQItemCountChangeObserver@@@ ; PlayedGameWnd::`vftable'
	DD	FLAT:??_EPlayedGameWnd@@WBHM@AEPAXI@Z
	DD	FLAT:?IQQItemChangeOb_CountChange@PlayedGameWnd@@UAEXI@Z
CONST	ENDS
;	COMDAT ??_R4PlayedGameWnd@@6BCLocalMusicCoverList@@@
rdata$r	SEGMENT
??_R4PlayedGameWnd@@6BCLocalMusicCoverList@@@ DD 00H	; PlayedGameWnd::`RTTI Complete Object Locator'
	DD	00H
	DD	00H
	DD	FLAT:??_R0?AVPlayedGameWnd@@@8
	DD	FLAT:??_R3PlayedGameWnd@@8
rdata$r	ENDS
;	COMDAT ??_R0?AVPlayedGameWnd@@@8
_DATA	SEGMENT
??_R0?AVPlayedGameWnd@@@8 DD FLAT:??_7type_info@@6B@	; PlayedGameWnd `RTTI Type Descriptor'
	DD	00H
	DB	'.?AVPlayedGameWnd@@', 00H
_DATA	ENDS
;	COMDAT ??_R3PlayedGameWnd@@8
rdata$r	SEGMENT
??_R3PlayedGameWnd@@8 DD 00H				; PlayedGameWnd::`RTTI Class Hierarchy Descriptor'
	DD	01H
	DD	07H
	DD	FLAT:??_R2PlayedGameWnd@@8
rdata$r	ENDS
;	COMDAT ??_R2PlayedGameWnd@@8
rdata$r	SEGMENT
??_R2PlayedGameWnd@@8 DD FLAT:??_R1A@?0A@A@PlayedGameWnd@@8 ; PlayedGameWnd::`RTTI Base Class Array'
	DD	FLAT:??_R1A@?0A@A@CLocalMusicCoverList@@8
	DD	FLAT:??_R1A@?0A@A@CWnd@@8
	DD	FLAT:??_R1A@?0A@A@CCmdTarget@@8
	DD	FLAT:??_R1A@?0A@A@CObject@@8
	DD	FLAT:??_R1BHM@?0A@A@IQQItemCountChangeObserver@@8
	DD	FLAT:??_R1BHM@?0A@A@IMessageObserver@@8
rdata$r	ENDS
;	COMDAT ??_R1A@?0A@A@PlayedGameWnd@@8
rdata$r	SEGMENT
??_R1A@?0A@A@PlayedGameWnd@@8 DD FLAT:??_R0?AVPlayedGameWnd@@@8 ; PlayedGameWnd::`RTTI Base Class Descriptor at (0,-1,0,0)'
	DD	06H
	DD	00H
	DD	0ffffffffH
	DD	00H
	DD	00H
rdata$r	ENDS
;	COMDAT ??_R1A@?0A@A@CLocalMusicCoverList@@8
rdata$r	SEGMENT
??_R1A@?0A@A@CLocalMusicCoverList@@8 DD FLAT:??_R0?AVCLocalMusicCoverList@@@8 ; CLocalMusicCoverList::`RTTI Base Class Descriptor at (0,-1,0,0)'
	DD	03H
	DD	00H
	DD	0ffffffffH
	DD	00H
	DD	00H
rdata$r	ENDS
;	COMDAT ??_R0?AVCLocalMusicCoverList@@@8
_DATA	SEGMENT
??_R0?AVCLocalMusicCoverList@@@8 DD FLAT:??_7type_info@@6B@ ; CLocalMusicCoverList `RTTI Type Descriptor'
	DD	00H
	DB	'.?AVCLocalMusicCoverList@@', 00H
_DATA	ENDS
;	COMDAT ??_R1A@?0A@A@CWnd@@8
rdata$r	SEGMENT
??_R1A@?0A@A@CWnd@@8 DD FLAT:??_R0?AVCWnd@@@8		; CWnd::`RTTI Base Class Descriptor at (0,-1,0,0)'
	DD	02H
	DD	00H
	DD	0ffffffffH
	DD	00H
	DD	00H
rdata$r	ENDS
;	COMDAT ??_R0?AVCWnd@@@8
_DATA	SEGMENT
??_R0?AVCWnd@@@8 DD FLAT:??_7type_info@@6B@		; CWnd `RTTI Type Descriptor'
	DD	00H
	DB	'.?AVCWnd@@', 00H
_DATA	ENDS
;	COMDAT ??_R1A@?0A@A@CCmdTarget@@8
rdata$r	SEGMENT
??_R1A@?0A@A@CCmdTarget@@8 DD FLAT:??_R0?AVCCmdTarget@@@8 ; CCmdTarget::`RTTI Base Class Descriptor at (0,-1,0,0)'
	DD	01H
	DD	00H
	DD	0ffffffffH
	DD	00H
	DD	00H
rdata$r	ENDS
;	COMDAT ??_R0?AVCCmdTarget@@@8
_DATA	SEGMENT
??_R0?AVCCmdTarget@@@8 DD FLAT:??_7type_info@@6B@	; CCmdTarget `RTTI Type Descriptor'
	DD	00H
	DB	'.?AVCCmdTarget@@', 00H
_DATA	ENDS
;	COMDAT ??_R1A@?0A@A@CObject@@8
rdata$r	SEGMENT
??_R1A@?0A@A@CObject@@8 DD FLAT:??_R0?AVCObject@@@8	; CObject::`RTTI Base Class Descriptor at (0,-1,0,0)'
	DD	00H
	DD	00H
	DD	0ffffffffH
	DD	00H
	DD	00H
rdata$r	ENDS
;	COMDAT ??_R0?AVCObject@@@8
_DATA	SEGMENT
??_R0?AVCObject@@@8 DD FLAT:??_7type_info@@6B@		; CObject `RTTI Type Descriptor'
	DD	00H
	DB	'.?AVCObject@@', 00H
_DATA	ENDS
;	COMDAT ??_R1BHM@?0A@A@IQQItemCountChangeObserver@@8
rdata$r	SEGMENT
??_R1BHM@?0A@A@IQQItemCountChangeObserver@@8 DD FLAT:??_R0?AVIQQItemCountChangeObserver@@@8 ; IQQItemCountChangeObserver::`RTTI Base Class Descriptor at (380,-1,0,0)'
	DD	01H
	DD	017cH
	DD	0ffffffffH
	DD	00H
	DD	00H
rdata$r	ENDS
;	COMDAT ??_R0?AVIQQItemCountChangeObserver@@@8
_DATA	SEGMENT
??_R0?AVIQQItemCountChangeObserver@@@8 DD FLAT:??_7type_info@@6B@ ; IQQItemCountChangeObserver `RTTI Type Descriptor'
	DD	00H
	DB	'.?AVIQQItemCountChangeObserver@@', 00H
_DATA	ENDS
;	COMDAT ??_R1BHM@?0A@A@IMessageObserver@@8
rdata$r	SEGMENT
??_R1BHM@?0A@A@IMessageObserver@@8 DD FLAT:??_R0?AVIMessageObserver@@@8 ; IMessageObserver::`RTTI Base Class Descriptor at (380,-1,0,0)'
	DD	00H
	DD	017cH
	DD	0ffffffffH
	DD	00H
	DD	00H
rdata$r	ENDS
;	COMDAT ??_R0?AVIMessageObserver@@@8
_DATA	SEGMENT
??_R0?AVIMessageObserver@@@8 DD FLAT:??_7type_info@@6B@	; IMessageObserver `RTTI Type Descriptor'
	DD	00H
	DB	'.?AVIMessageObserver@@', 00H
	ORG $-31
	DD	FLAT:??_7type_info@@6B@
	DD	00H
	DB	'.?AVIMessageObserver@@', 00H
_DATA	ENDS
;	COMDAT ??_R4PlayedGameWnd@@6BIQQItemCountChangeObserver@@@
rdata$r	SEGMENT
??_R4PlayedGameWnd@@6BIQQItemCountChangeObserver@@@ DD 00H ; PlayedGameWnd::`RTTI Complete Object Locator'
	DD	017cH
	DD	00H
	DD	FLAT:??_R0?AVPlayedGameWnd@@@8
	DD	FLAT:??_R3PlayedGameWnd@@8
; Function compile flags: /Odt
rdata$r	ENDS
_TEXT	SEGMENT
tv135 = -24						; size = 4
tv141 = -20						; size = 4
_this$ = -16						; size = 4
__$EHRec$ = -12						; size = 12
??0PlayedGameWnd@@QAE@XZ PROC NEAR			; PlayedGameWnd::PlayedGameWnd
; _this$ = ecx

; 22   : {

  00020	55		 push	 ebp
  00021	8b ec		 mov	 ebp, esp
  00023	6a ff		 push	 -1
  00025	68 00 00 00 00	 push	 __ehhandler$??0PlayedGameWnd@@QAE@XZ
  0002a	64 a1 00 00 00
	00		 mov	 eax, DWORD PTR fs:__except_list
  00030	50		 push	 eax
  00031	64 89 25 00 00
	00 00		 mov	 DWORD PTR fs:__except_list, esp
  00038	83 ec 0c	 sub	 esp, 12			; 0000000cH
  0003b	89 4d f0	 mov	 DWORD PTR _this$[ebp], ecx
  0003e	8b 4d f0	 mov	 ecx, DWORD PTR _this$[ebp]
  00041	e8 00 00 00 00	 call	 ??0CLocalMusicCoverList@@QAE@XZ ; CLocalMusicCoverList::CLocalMusicCoverList
  00046	c7 45 fc 00 00
	00 00		 mov	 DWORD PTR __$EHRec$[ebp+8], 0
  0004d	8b 4d f0	 mov	 ecx, DWORD PTR _this$[ebp]
  00050	81 c1 7c 01 00
	00		 add	 ecx, 380		; 0000017cH
  00056	e8 00 00 00 00	 call	 ??0IQQItemCountChangeObserver@@QAE@XZ
  0005b	c6 45 fc 01	 mov	 BYTE PTR __$EHRec$[ebp+8], 1
  0005f	8b 45 f0	 mov	 eax, DWORD PTR _this$[ebp]
  00062	c7 00 00 00 00
	00		 mov	 DWORD PTR [eax], OFFSET FLAT:??_7PlayedGameWnd@@6BCLocalMusicCoverList@@@
  00068	8b 4d f0	 mov	 ecx, DWORD PTR _this$[ebp]
  0006b	c7 81 7c 01 00
	00 00 00 00 00	 mov	 DWORD PTR [ecx+380], OFFSET FLAT:??_7PlayedGameWnd@@6BIQQItemCountChangeObserver@@@
  00075	8b 4d f0	 mov	 ecx, DWORD PTR _this$[ebp]
  00078	81 c1 84 01 00
	00		 add	 ecx, 388		; 00000184H
  0007e	e8 00 00 00 00	 call	 ??0CCWToolTips@@QAE@XZ	; CCWToolTips::CCWToolTips
  00083	c6 45 fc 02	 mov	 BYTE PTR __$EHRec$[ebp+8], 2
  00087	8b 55 f0	 mov	 edx, DWORD PTR _this$[ebp]
  0008a	c7 82 18 02 00
	00 ff ff ff ff	 mov	 DWORD PTR [edx+536], -1
  00094	68 00 00 00 00	 push	 OFFSET FLAT:$SG202328
  00099	8b 4d f0	 mov	 ecx, DWORD PTR _this$[ebp]
  0009c	81 c1 20 02 00
	00		 add	 ecx, 544		; 00000220H
  000a2	ff 15 00 00 00
	00		 call	 DWORD PTR __imp_??0?$basic_string@DU?$char_traits@D@std@@V?$allocator@D@2@@std@@QAE@PBD@Z
  000a8	c6 45 fc 03	 mov	 BYTE PTR __$EHRec$[ebp+8], 3
  000ac	68 00 00 00 00	 push	 OFFSET FLAT:$SG202329
  000b1	8b 4d f0	 mov	 ecx, DWORD PTR _this$[ebp]
  000b4	81 c1 3c 02 00
	00		 add	 ecx, 572		; 0000023cH
  000ba	ff 15 00 00 00
	00		 call	 DWORD PTR __imp_??0?$basic_string@DU?$char_traits@D@std@@V?$allocator@D@2@@std@@QAE@PBD@Z
  000c0	c6 45 fc 04	 mov	 BYTE PTR __$EHRec$[ebp+8], 4
  000c4	8b 45 f0	 mov	 eax, DWORD PTR _this$[ebp]
  000c7	c7 80 58 02 00
	00 ff ff ff ff	 mov	 DWORD PTR [eax+600], -1

; 23   : 	m_bTrackMouse = false;

  000d1	8b 4d f0	 mov	 ecx, DWORD PTR _this$[ebp]
  000d4	c6 81 14 02 00
	00 00		 mov	 BYTE PTR [ecx+532], 0

; 24   : 	AfxGetMessageManager()->AttachMessage( ID_MESSAGE_QQ_ITEM_CHANGE,(IQQItemCountChangeObserver*)this );

  000db	83 7d f0 00	 cmp	 DWORD PTR _this$[ebp], 0
  000df	74 0e		 je	 SHORT $L205592
  000e1	8b 55 f0	 mov	 edx, DWORD PTR _this$[ebp]
  000e4	81 c2 7c 01 00
	00		 add	 edx, 380		; 0000017cH
  000ea	89 55 ec	 mov	 DWORD PTR tv141[ebp], edx
  000ed	eb 07		 jmp	 SHORT $L205593
$L205592:
  000ef	c7 45 ec 00 00
	00 00		 mov	 DWORD PTR tv141[ebp], 0
$L205593:
  000f6	e8 00 00 00 00	 call	 ?AfxGetMessageManager@@YAPAVIMessageManager@@XZ ; AfxGetMessageManager
  000fb	89 45 e8	 mov	 DWORD PTR tv135[ebp], eax
  000fe	6a 02		 push	 2
  00100	8b 45 ec	 mov	 eax, DWORD PTR tv141[ebp]
  00103	50		 push	 eax
  00104	68 00 00 00 00	 push	 OFFSET FLAT:_ID_MESSAGE_QQ_ITEM_CHANGE
  00109	8b 4d e8	 mov	 ecx, DWORD PTR tv135[ebp]
  0010c	8b 11		 mov	 edx, DWORD PTR [ecx]
  0010e	8b 4d e8	 mov	 ecx, DWORD PTR tv135[ebp]
  00111	ff 52 04	 call	 DWORD PTR [edx+4]

; 25   : }

  00114	c7 45 fc ff ff
	ff ff		 mov	 DWORD PTR __$EHRec$[ebp+8], -1
  0011b	8b 45 f0	 mov	 eax, DWORD PTR _this$[ebp]
  0011e	8b 4d f4	 mov	 ecx, DWORD PTR __$EHRec$[ebp]
  00121	64 89 0d 00 00
	00 00		 mov	 DWORD PTR fs:__except_list, ecx
  00128	8b e5		 mov	 esp, ebp
  0012a	5d		 pop	 ebp
  0012b	c3		 ret	 0
_TEXT	ENDS
text$x	SEGMENT
$L205594:
  00000	8b 4d f0	 mov	 ecx, DWORD PTR _this$[ebp]
  00003	e9 00 00 00 00	 jmp	 ??1CLocalMusicCoverList@@UAE@XZ ; CLocalMusicCoverList::~CLocalMusicCoverList
$L205595:
  00008	8b 4d f0	 mov	 ecx, DWORD PTR _this$[ebp]
  0000b	81 c1 7c 01 00
	00		 add	 ecx, 380		; 0000017cH
  00011	e9 00 00 00 00	 jmp	 ??1IQQItemCountChangeObserver@@UAE@XZ
$L205596:
  00016	8b 4d f0	 mov	 ecx, DWORD PTR _this$[ebp]
  00019	81 c1 84 01 00
	00		 add	 ecx, 388		; 00000184H
  0001f	e9 00 00 00 00	 jmp	 ??1CCWToolTips@@UAE@XZ	; CCWToolTips::~CCWToolTips
$L205597:
  00024	8b 4d f0	 mov	 ecx, DWORD PTR _this$[ebp]
  00027	81 c1 20 02 00
	00		 add	 ecx, 544		; 00000220H
  0002d	ff 25 00 00 00
	00		 jmp	 DWORD PTR __imp_??1?$basic_string@DU?$char_traits@D@std@@V?$allocator@D@2@@std@@QAE@XZ
$L205598:
  00033	8b 4d f0	 mov	 ecx, DWORD PTR _this$[ebp]
  00036	81 c1 3c 02 00
	00		 add	 ecx, 572		; 0000023cH
  0003c	ff 25 00 00 00
	00		 jmp	 DWORD PTR __imp_??1?$basic_string@DU?$char_traits@D@std@@V?$allocator@D@2@@std@@QAE@XZ
__ehhandler$??0PlayedGameWnd@@QAE@XZ:
  00042	b8 00 00 00 00	 mov	 eax, OFFSET FLAT:$T205602
  00047	e9 00 00 00 00	 jmp	 ___CxxFrameHandler
text$x	ENDS
??0PlayedGameWnd@@QAE@XZ ENDP				; PlayedGameWnd::PlayedGameWnd
PUBLIC	??1PlayedGameWnd@@UAE@XZ			; PlayedGameWnd::~PlayedGameWnd
PUBLIC	??3CObject@@SGXPAX@Z				; CObject::operator delete
; Function compile flags: /Odt
;	COMDAT ??_GPlayedGameWnd@@UAEPAXI@Z
_TEXT	SEGMENT
_this$ = -4						; size = 4
___flags$ = 8						; size = 4
??_GPlayedGameWnd@@UAEPAXI@Z PROC NEAR			; PlayedGameWnd::`scalar deleting destructor', COMDAT
; _this$ = ecx
  00000	55		 push	 ebp
  00001	8b ec		 mov	 ebp, esp
  00003	51		 push	 ecx
  00004	89 4d fc	 mov	 DWORD PTR _this$[ebp], ecx
  00007	8b 4d fc	 mov	 ecx, DWORD PTR _this$[ebp]
  0000a	e8 00 00 00 00	 call	 ??1PlayedGameWnd@@UAE@XZ ; PlayedGameWnd::~PlayedGameWnd
  0000f	8b 45 08	 mov	 eax, DWORD PTR ___flags$[ebp]
  00012	83 e0 01	 and	 eax, 1
  00015	74 09		 je	 SHORT $L202334
  00017	8b 4d fc	 mov	 ecx, DWORD PTR _this$[ebp]
  0001a	51		 push	 ecx
  0001b	e8 00 00 00 00	 call	 ??3CObject@@SGXPAX@Z	; CObject::operator delete
$L202334:
  00020	8b 45 fc	 mov	 eax, DWORD PTR _this$[ebp]
  00023	8b e5		 mov	 esp, ebp
  00025	5d		 pop	 ebp
  00026	c2 04 00	 ret	 4
??_GPlayedGameWnd@@UAEPAXI@Z ENDP			; PlayedGameWnd::`scalar deleting destructor'
_TEXT	ENDS
PUBLIC	??_R3IQQItemCountChangeObserver@@8		; IQQItemCountChangeObserver::`RTTI Class Hierarchy Descriptor'
PUBLIC	??_R2IQQItemCountChangeObserver@@8		; IQQItemCountChangeObserver::`RTTI Base Class Array'
PUBLIC	??_R1A@?0A@A@IQQItemCountChangeObserver@@8	; IQQItemCountChangeObserver::`RTTI Base Class Descriptor at (0,-1,0,0)'
PUBLIC	??_R1A@?0A@A@IMessageObserver@@8		; IMessageObserver::`RTTI Base Class Descriptor at (0,-1,0,0)'
PUBLIC	?IQQItemChangeOb_CountChange@IQQItemCountChangeObserver@@UAEXI@Z ; IQQItemCountChangeObserver::IQQItemChangeOb_CountChange
PUBLIC	??_7IQQItemCountChangeObserver@@6B@		; IQQItemCountChangeObserver::`vftable'
PUBLIC	??_GIQQItemCountChangeObserver@@UAEPAXI@Z	; IQQItemCountChangeObserver::`scalar deleting destructor'
PUBLIC	??0IMessageObserver@@QAE@XZ			; IMessageObserver::IMessageObserver
PUBLIC	??_R4IQQItemCountChangeObserver@@6B@		; IQQItemCountChangeObserver::`RTTI Complete Object Locator'
EXTRN	??_EIQQItemCountChangeObserver@@UAEPAXI@Z:NEAR	; IQQItemCountChangeObserver::`vector deleting destructor'
;	COMDAT ??_7IQQItemCountChangeObserver@@6B@
CONST	SEGMENT
??_7IQQItemCountChangeObserver@@6B@ DD FLAT:??_R4IQQItemCountChangeObserver@@6B@ ; IQQItemCountChangeObserver::`vftable'
	DD	FLAT:??_EIQQItemCountChangeObserver@@UAEPAXI@Z
	DD	FLAT:?IQQItemChangeOb_CountChange@IQQItemCountChangeObserver@@UAEXI@Z
CONST	ENDS
;	COMDAT ??_R4IQQItemCountChangeObserver@@6B@
rdata$r	SEGMENT
??_R4IQQItemCountChangeObserver@@6B@ DD 00H		; IQQItemCountChangeObserver::`RTTI Complete Object Locator'
	DD	00H
	DD	00H
	DD	FLAT:??_R0?AVIQQItemCountChangeObserver@@@8
	DD	FLAT:??_R3IQQItemCountChangeObserver@@8
rdata$r	ENDS
;	COMDAT ??_R3IQQItemCountChangeObserver@@8
rdata$r	SEGMENT
??_R3IQQItemCountChangeObserver@@8 DD 00H		; IQQItemCountChangeObserver::`RTTI Class Hierarchy Descriptor'
	DD	00H
	DD	02H
	DD	FLAT:??_R2IQQItemCountChangeObserver@@8
rdata$r	ENDS
;	COMDAT ??_R2IQQItemCountChangeObserver@@8
rdata$r	SEGMENT
??_R2IQQItemCountChangeObserver@@8 DD FLAT:??_R1A@?0A@A@IQQItemCountChangeObserver@@8 ; IQQItemCountChangeObserver::`RTTI Base Class Array'
	DD	FLAT:??_R1A@?0A@A@IMessageObserver@@8
rdata$r	ENDS
;	COMDAT ??_R1A@?0A@A@IQQItemCountChangeObserver@@8
rdata$r	SEGMENT
??_R1A@?0A@A@IQQItemCountChangeObserver@@8 DD FLAT:??_R0?AVIQQItemCountChangeObserver@@@8 ; IQQItemCountChangeObserver::`RTTI Base Class Descriptor at (0,-1,0,0)'
	DD	01H
	DD	00H
	DD	0ffffffffH
	DD	00H
	DD	00H
rdata$r	ENDS
;	COMDAT ??_R1A@?0A@A@IMessageObserver@@8
rdata$r	SEGMENT
??_R1A@?0A@A@IMessageObserver@@8 DD FLAT:??_R0?AVIMessageObserver@@@8 ; IMessageObserver::`RTTI Base Class Descriptor at (0,-1,0,0)'
	DD	00H
	DD	00H
	DD	0ffffffffH
	DD	00H
	DD	00H
; Function compile flags: /Odt
rdata$r	ENDS
;	COMDAT ??0IQQItemCountChangeObserver@@QAE@XZ
_TEXT	SEGMENT
_this$ = -4						; size = 4
??0IQQItemCountChangeObserver@@QAE@XZ PROC NEAR		; IQQItemCountChangeObserver::IQQItemCountChangeObserver, COMDAT
; _this$ = ecx
  00000	55		 push	 ebp
  00001	8b ec		 mov	 ebp, esp
  00003	51		 push	 ecx
  00004	89 4d fc	 mov	 DWORD PTR _this$[ebp], ecx
  00007	8b 4d fc	 mov	 ecx, DWORD PTR _this$[ebp]
  0000a	e8 00 00 00 00	 call	 ??0IMessageObserver@@QAE@XZ
  0000f	8b 45 fc	 mov	 eax, DWORD PTR _this$[ebp]
  00012	c7 00 00 00 00
	00		 mov	 DWORD PTR [eax], OFFSET FLAT:??_7IQQItemCountChangeObserver@@6B@
  00018	8b 45 fc	 mov	 eax, DWORD PTR _this$[ebp]
  0001b	8b e5		 mov	 esp, ebp
  0001d	5d		 pop	 ebp
  0001e	c3		 ret	 0
??0IQQItemCountChangeObserver@@QAE@XZ ENDP		; IQQItemCountChangeObserver::IQQItemCountChangeObserver
; Function compile flags: /Odt
; File d:\boxgit\playbox\playbox\dev\prj\playbox\src\datainterface\iqqitemcountchangeobserver.h
_TEXT	ENDS
;	COMDAT ?IQQItemChangeOb_CountChange@IQQItemCountChangeObserver@@UAEXI@Z
_TEXT	SEGMENT
_this$ = -4						; size = 4
_iNewCount$ = 8						; size = 4
?IQQItemChangeOb_CountChange@IQQItemCountChangeObserver@@UAEXI@Z PROC NEAR ; IQQItemCountChangeObserver::IQQItemChangeOb_CountChange, COMDAT
; _this$ = ecx

; 9    : 	virtual void IQQItemChangeOb_CountChange( unsigned int iNewCount ){};

  00000	55		 push	 ebp
  00001	8b ec		 mov	 ebp, esp
  00003	51		 push	 ecx
  00004	89 4d fc	 mov	 DWORD PTR _this$[ebp], ecx
  00007	8b e5		 mov	 esp, ebp
  00009	5d		 pop	 ebp
  0000a	c2 04 00	 ret	 4
?IQQItemChangeOb_CountChange@IQQItemCountChangeObserver@@UAEXI@Z ENDP ; IQQItemCountChangeObserver::IQQItemChangeOb_CountChange
_TEXT	ENDS
PUBLIC	??1IMessageObserver@@UAE@XZ			; IMessageObserver::~IMessageObserver
; Function compile flags: /Odt
;	COMDAT ??1IQQItemCountChangeObserver@@UAE@XZ
_TEXT	SEGMENT
_this$ = -4						; size = 4
??1IQQItemCountChangeObserver@@UAE@XZ PROC NEAR		; IQQItemCountChangeObserver::~IQQItemCountChangeObserver, COMDAT
; _this$ = ecx
  00000	55		 push	 ebp
  00001	8b ec		 mov	 ebp, esp
  00003	51		 push	 ecx
  00004	89 4d fc	 mov	 DWORD PTR _this$[ebp], ecx
  00007	8b 4d fc	 mov	 ecx, DWORD PTR _this$[ebp]
  0000a	e8 00 00 00 00	 call	 ??1IMessageObserver@@UAE@XZ ; IMessageObserver::~IMessageObserver
  0000f	8b e5		 mov	 esp, ebp
  00011	5d		 pop	 ebp
  00012	c3		 ret	 0
??1IQQItemCountChangeObserver@@UAE@XZ ENDP		; IQQItemCountChangeObserver::~IQQItemCountChangeObserver
_TEXT	ENDS
EXTRN	??3@YAXPAX@Z:NEAR				; operator delete
; Function compile flags: /Odt
;	COMDAT ??_GIQQItemCountChangeObserver@@UAEPAXI@Z
_TEXT	SEGMENT
_this$ = -4						; size = 4
___flags$ = 8						; size = 4
??_GIQQItemCountChangeObserver@@UAEPAXI@Z PROC NEAR	; IQQItemCountChangeObserver::`scalar deleting destructor', COMDAT
; _this$ = ecx
  00000	55		 push	 ebp
  00001	8b ec		 mov	 ebp, esp
  00003	51		 push	 ecx
  00004	89 4d fc	 mov	 DWORD PTR _this$[ebp], ecx
  00007	8b 4d fc	 mov	 ecx, DWORD PTR _this$[ebp]
  0000a	e8 00 00 00 00	 call	 ??1IQQItemCountChangeObserver@@UAE@XZ
  0000f	8b 45 08	 mov	 eax, DWORD PTR ___flags$[ebp]
  00012	83 e0 01	 and	 eax, 1
  00015	74 0c		 je	 SHORT $L202342
  00017	8b 4d fc	 mov	 ecx, DWORD PTR _this$[ebp]
  0001a	51		 push	 ecx
  0001b	e8 00 00 00 00	 call	 ??3@YAXPAX@Z		; operator delete
  00020	83 c4 04	 add	 esp, 4
$L202342:
  00023	8b 45 fc	 mov	 eax, DWORD PTR _this$[ebp]
  00026	8b e5		 mov	 esp, ebp
  00028	5d		 pop	 ebp
  00029	c2 04 00	 ret	 4
??_GIQQItemCountChangeObserver@@UAEPAXI@Z ENDP		; IQQItemCountChangeObserver::`scalar deleting destructor'
_TEXT	ENDS
PUBLIC	??_R4IMessageObserver@@6B@			; IMessageObserver::`RTTI Complete Object Locator'
PUBLIC	??_R3IMessageObserver@@8			; IMessageObserver::`RTTI Class Hierarchy Descriptor'
PUBLIC	??_R2IMessageObserver@@8			; IMessageObserver::`RTTI Base Class Array'
PUBLIC	??_7IMessageObserver@@6B@			; IMessageObserver::`vftable'
PUBLIC	??_GIMessageObserver@@UAEPAXI@Z			; IMessageObserver::`scalar deleting destructor'
EXTRN	??_EIMessageObserver@@UAEPAXI@Z:NEAR		; IMessageObserver::`vector deleting destructor'
;	COMDAT ??_7IMessageObserver@@6B@
CONST	SEGMENT
??_7IMessageObserver@@6B@ DD FLAT:??_R4IMessageObserver@@6B@ ; IMessageObserver::`vftable'
	DD	FLAT:??_EIMessageObserver@@UAEPAXI@Z
CONST	ENDS
;	COMDAT ??_R4IMessageObserver@@6B@
rdata$r	SEGMENT
??_R4IMessageObserver@@6B@ DD 00H			; IMessageObserver::`RTTI Complete Object Locator'
	DD	00H
	DD	00H
	DD	FLAT:??_R0?AVIMessageObserver@@@8
	DD	FLAT:??_R3IMessageObserver@@8
rdata$r	ENDS
;	COMDAT ??_R3IMessageObserver@@8
rdata$r	SEGMENT
??_R3IMessageObserver@@8 DD 00H				; IMessageObserver::`RTTI Class Hierarchy Descriptor'
	DD	00H
	DD	01H
	DD	FLAT:??_R2IMessageObserver@@8
rdata$r	ENDS
;	COMDAT ??_R2IMessageObserver@@8
rdata$r	SEGMENT
??_R2IMessageObserver@@8 DD FLAT:??_R1A@?0A@A@IMessageObserver@@8 ; IMessageObserver::`RTTI Base Class Array'
; Function compile flags: /Odt
rdata$r	ENDS
;	COMDAT ??0IMessageObserver@@QAE@XZ
_TEXT	SEGMENT
_this$ = -4						; size = 4
??0IMessageObserver@@QAE@XZ PROC NEAR			; IMessageObserver::IMessageObserver, COMDAT
; _this$ = ecx
  00000	55		 push	 ebp
  00001	8b ec		 mov	 ebp, esp
  00003	51		 push	 ecx
  00004	89 4d fc	 mov	 DWORD PTR _this$[ebp], ecx
  00007	8b 45 fc	 mov	 eax, DWORD PTR _this$[ebp]
  0000a	c7 00 00 00 00
	00		 mov	 DWORD PTR [eax], OFFSET FLAT:??_7IMessageObserver@@6B@
  00010	8b 45 fc	 mov	 eax, DWORD PTR _this$[ebp]
  00013	8b e5		 mov	 esp, ebp
  00015	5d		 pop	 ebp
  00016	c3		 ret	 0
??0IMessageObserver@@QAE@XZ ENDP			; IMessageObserver::IMessageObserver
_TEXT	ENDS
xdata$x	SEGMENT
$T205635 DD	0ffffffffH
	DD	FLAT:$L205625
	DD	00H
	DD	FLAT:$L205628
	DD	01H
	DD	FLAT:$L205629
	DD	02H
	DD	FLAT:$L205630
	DD	03H
	DD	FLAT:$L205631
$T205633 DD	019930520H
	DD	05H
	DD	FLAT:$T205635
	DD	2 DUP(00H)
	DD	2 DUP(00H)
; Function compile flags: /Odt
; File d:\boxgit\playbox\playbox\dev\prj\playbox\src\module\playedgamepanel\playedgamewnd.cpp
xdata$x	ENDS
_TEXT	SEGMENT
tv68 = -28						; size = 4
tv84 = -24						; size = 4
tv89 = -20						; size = 4
_this$ = -16						; size = 4
__$EHRec$ = -12						; size = 12
??1PlayedGameWnd@@UAE@XZ PROC NEAR			; PlayedGameWnd::~PlayedGameWnd
; _this$ = ecx

; 28   : {

  00130	55		 push	 ebp
  00131	8b ec		 mov	 ebp, esp
  00133	6a ff		 push	 -1
  00135	68 00 00 00 00	 push	 __ehhandler$??1PlayedGameWnd@@UAE@XZ
  0013a	64 a1 00 00 00
	00		 mov	 eax, DWORD PTR fs:__except_list
  00140	50		 push	 eax
  00141	64 89 25 00 00
	00 00		 mov	 DWORD PTR fs:__except_list, esp
  00148	83 ec 10	 sub	 esp, 16			; 00000010H
  0014b	89 4d f0	 mov	 DWORD PTR _this$[ebp], ecx
  0014e	8b 45 f0	 mov	 eax, DWORD PTR _this$[ebp]
  00151	c7 00 00 00 00
	00		 mov	 DWORD PTR [eax], OFFSET FLAT:??_7PlayedGameWnd@@6BCLocalMusicCoverList@@@
  00157	8b 4d f0	 mov	 ecx, DWORD PTR _this$[ebp]
  0015a	c7 81 7c 01 00
	00 00 00 00 00	 mov	 DWORD PTR [ecx+380], OFFSET FLAT:??_7PlayedGameWnd@@6BIQQItemCountChangeObserver@@@
  00164	c7 45 fc 04 00
	00 00		 mov	 DWORD PTR __$EHRec$[ebp+8], 4

; 29   : 	AfxGetMessageManager()->DetachMessage( ID_MESSAGE_QQ_ITEM_CHANGE,(IQQItemCountChangeObserver*)this );

  0016b	83 7d f0 00	 cmp	 DWORD PTR _this$[ebp], 0
  0016f	74 0e		 je	 SHORT $L205623
  00171	8b 55 f0	 mov	 edx, DWORD PTR _this$[ebp]
  00174	81 c2 7c 01 00
	00		 add	 edx, 380		; 0000017cH
  0017a	89 55 ec	 mov	 DWORD PTR tv89[ebp], edx
  0017d	eb 07		 jmp	 SHORT $L205624
$L205623:
  0017f	c7 45 ec 00 00
	00 00		 mov	 DWORD PTR tv89[ebp], 0
$L205624:
  00186	e8 00 00 00 00	 call	 ?AfxGetMessageManager@@YAPAVIMessageManager@@XZ ; AfxGetMessageManager
  0018b	89 45 e8	 mov	 DWORD PTR tv84[ebp], eax
  0018e	8b 45 ec	 mov	 eax, DWORD PTR tv89[ebp]
  00191	50		 push	 eax
  00192	68 00 00 00 00	 push	 OFFSET FLAT:_ID_MESSAGE_QQ_ITEM_CHANGE
  00197	8b 4d e8	 mov	 ecx, DWORD PTR tv84[ebp]
  0019a	8b 11		 mov	 edx, DWORD PTR [ecx]
  0019c	8b 4d e8	 mov	 ecx, DWORD PTR tv84[ebp]
  0019f	ff 52 08	 call	 DWORD PTR [edx+8]

; 30   : }

  001a2	c6 45 fc 03	 mov	 BYTE PTR __$EHRec$[ebp+8], 3
  001a6	8b 4d f0	 mov	 ecx, DWORD PTR _this$[ebp]
  001a9	81 c1 3c 02 00
	00		 add	 ecx, 572		; 0000023cH
  001af	ff 15 00 00 00
	00		 call	 DWORD PTR __imp_??1?$basic_string@DU?$char_traits@D@std@@V?$allocator@D@2@@std@@QAE@XZ
  001b5	c6 45 fc 02	 mov	 BYTE PTR __$EHRec$[ebp+8], 2
  001b9	8b 4d f0	 mov	 ecx, DWORD PTR _this$[ebp]
  001bc	81 c1 20 02 00
	00		 add	 ecx, 544		; 00000220H
  001c2	ff 15 00 00 00
	00		 call	 DWORD PTR __imp_??1?$basic_string@DU?$char_traits@D@std@@V?$allocator@D@2@@std@@QAE@XZ
  001c8	c6 45 fc 01	 mov	 BYTE PTR __$EHRec$[ebp+8], 1
  001cc	8b 4d f0	 mov	 ecx, DWORD PTR _this$[ebp]
  001cf	81 c1 84 01 00
	00		 add	 ecx, 388		; 00000184H
  001d5	e8 00 00 00 00	 call	 ??1CCWToolTips@@UAE@XZ	; CCWToolTips::~CCWToolTips
  001da	c6 45 fc 00	 mov	 BYTE PTR __$EHRec$[ebp+8], 0
  001de	83 7d f0 00	 cmp	 DWORD PTR _this$[ebp], 0
  001e2	74 0d		 je	 SHORT $L205621
  001e4	8b 45 f0	 mov	 eax, DWORD PTR _this$[ebp]
  001e7	05 7c 01 00 00	 add	 eax, 380		; 0000017cH
  001ec	89 45 e4	 mov	 DWORD PTR tv68[ebp], eax
  001ef	eb 07		 jmp	 SHORT $L205622
$L205621:
  001f1	c7 45 e4 00 00
	00 00		 mov	 DWORD PTR tv68[ebp], 0
$L205622:
  001f8	8b 4d e4	 mov	 ecx, DWORD PTR tv68[ebp]
  001fb	e8 00 00 00 00	 call	 ??1IQQItemCountChangeObserver@@UAE@XZ
  00200	c7 45 fc ff ff
	ff ff		 mov	 DWORD PTR __$EHRec$[ebp+8], -1
  00207	8b 4d f0	 mov	 ecx, DWORD PTR _this$[ebp]
  0020a	e8 00 00 00 00	 call	 ??1CLocalMusicCoverList@@UAE@XZ ; CLocalMusicCoverList::~CLocalMusicCoverList
  0020f	8b 4d f4	 mov	 ecx, DWORD PTR __$EHRec$[ebp]
  00212	64 89 0d 00 00
	00 00		 mov	 DWORD PTR fs:__except_list, ecx
  00219	8b e5		 mov	 esp, ebp
  0021b	5d		 pop	 ebp
  0021c	c3		 ret	 0
_TEXT	ENDS
text$x	SEGMENT
$L205625:
  0004c	8b 4d f0	 mov	 ecx, DWORD PTR _this$[ebp]
  0004f	e9 00 00 00 00	 jmp	 ??1CLocalMusicCoverList@@UAE@XZ ; CLocalMusicCoverList::~CLocalMusicCoverList
$L205628:
  00054	83 7d f0 00	 cmp	 DWORD PTR _this$[ebp], 0
  00058	0f 84 10 00 00
	00		 je	 $L205626
  0005e	8b 45 f0	 mov	 eax, DWORD PTR _this$[ebp]
  00061	05 7c 01 00 00	 add	 eax, 380		; 0000017cH
  00066	89 45 e4	 mov	 DWORD PTR tv68[ebp], eax
  00069	e9 07 00 00 00	 jmp	 $L205627
$L205626:
  0006e	c7 45 e4 00 00
	00 00		 mov	 DWORD PTR tv68[ebp], 0
$L205627:
  00075	8b 4d e4	 mov	 ecx, DWORD PTR tv68[ebp]
  00078	e9 00 00 00 00	 jmp	 ??1IQQItemCountChangeObserver@@UAE@XZ
$L205629:
  0007d	8b 4d f0	 mov	 ecx, DWORD PTR _this$[ebp]
  00080	81 c1 84 01 00
	00		 add	 ecx, 388		; 00000184H
  00086	e9 00 00 00 00	 jmp	 ??1CCWToolTips@@UAE@XZ	; CCWToolTips::~CCWToolTips
$L205630:
  0008b	8b 4d f0	 mov	 ecx, DWORD PTR _this$[ebp]
  0008e	81 c1 20 02 00
	00		 add	 ecx, 544		; 00000220H
  00094	ff 25 00 00 00
	00		 jmp	 DWORD PTR __imp_??1?$basic_string@DU?$char_traits@D@std@@V?$allocator@D@2@@std@@QAE@XZ
$L205631:
  0009a	8b 4d f0	 mov	 ecx, DWORD PTR _this$[ebp]
  0009d	81 c1 3c 02 00
	00		 add	 ecx, 572		; 0000023cH
  000a3	ff 25 00 00 00
	00		 jmp	 DWORD PTR __imp_??1?$basic_string@DU?$char_traits@D@std@@V?$allocator@D@2@@std@@QAE@XZ
__ehhandler$??1PlayedGameWnd@@UAE@XZ:
  000a9	b8 00 00 00 00	 mov	 eax, OFFSET FLAT:$T205633
  000ae	e9 00 00 00 00	 jmp	 ___CxxFrameHandler
text$x	ENDS
??1PlayedGameWnd@@UAE@XZ ENDP				; PlayedGameWnd::~PlayedGameWnd
PUBLIC	?InterlockedExchangePointer@@YGPAXPAPAXPAX@Z	; InterlockedExchangePointer
PUBLIC	?_AtlGetThreadACPFake@ATL@@YGIXZ		; ATL::_AtlGetThreadACPFake
PUBLIC	?_AtlGetThreadACPReal@ATL@@YGIXZ		; ATL::_AtlGetThreadACPReal
EXTRN	__imp__GetVersionExA@4:NEAR
EXTRN	___security_cookie:DWORD
EXTRN	@__security_check_cookie@4:NEAR
; Function compile flags: /Odt
; File d:\program files (x86)\microsoft visual studio .net 2003\vc7\atlmfc\include\atlconv.h
;	COMDAT ?_AtlGetThreadACPThunk@ATL@@YGIXZ
_TEXT	SEGMENT
_pfnGetThreadACP$ = -164				; size = 4
_ver$ = -160						; size = 148
__$ArrayPad$ = -4					; size = 4
__$ReturnAddr$ = 4					; size = 4
?_AtlGetThreadACPThunk@ATL@@YGIXZ PROC NEAR		; ATL::_AtlGetThreadACPThunk, COMDAT

; 134  : {

  00000	55		 push	 ebp
  00001	8b ec		 mov	 ebp, esp
  00003	81 ec a4 00 00
	00		 sub	 esp, 164		; 000000a4H
  00009	a1 00 00 00 00	 mov	 eax, DWORD PTR ___security_cookie
  0000e	89 45 fc	 mov	 DWORD PTR __$ArrayPad$[ebp], eax

; 135  : 	OSVERSIONINFO ver;
; 136  : 	ATLGETTHREADACP pfnGetThreadACP;
; 137  : 
; 138  : 	ver.dwOSVersionInfoSize = sizeof( ver );

  00011	c7 85 60 ff ff
	ff 94 00 00 00	 mov	 DWORD PTR _ver$[ebp], 148 ; 00000094H

; 139  : 	::GetVersionEx( &ver );

  0001b	8d 85 60 ff ff
	ff		 lea	 eax, DWORD PTR _ver$[ebp]
  00021	50		 push	 eax
  00022	ff 15 00 00 00
	00		 call	 DWORD PTR __imp__GetVersionExA@4

; 140  : 	if( (ver.dwPlatformId == VER_PLATFORM_WIN32_NT) && (ver.dwMajorVersion >= 5) )

  00028	83 bd 70 ff ff
	ff 02		 cmp	 DWORD PTR _ver$[ebp+16], 2
  0002f	75 15		 jne	 SHORT $L24173
  00031	83 bd 64 ff ff
	ff 05		 cmp	 DWORD PTR _ver$[ebp+4], 5
  00038	72 0c		 jb	 SHORT $L24173

; 141  : 	{
; 142  : 		// On Win2K, CP_THREAD_ACP is supported
; 143  : 		pfnGetThreadACP = _AtlGetThreadACPReal;

  0003a	c7 85 5c ff ff
	ff 00 00 00 00	 mov	 DWORD PTR _pfnGetThreadACP$[ebp], OFFSET FLAT:?_AtlGetThreadACPReal@ATL@@YGIXZ ; ATL::_AtlGetThreadACPReal

; 144  : 	}
; 145  : 	else

  00044	eb 0a		 jmp	 SHORT $L24174
$L24173:

; 146  : 	{
; 147  : 		pfnGetThreadACP = _AtlGetThreadACPFake;

  00046	c7 85 5c ff ff
	ff 00 00 00 00	 mov	 DWORD PTR _pfnGetThreadACP$[ebp], OFFSET FLAT:?_AtlGetThreadACPFake@ATL@@YGIXZ ; ATL::_AtlGetThreadACPFake
$L24174:

; 148  : 	}
; 149  : 	InterlockedExchangePointer( reinterpret_cast< void** >(&g_pfnGetThreadACP), pfnGetThreadACP );

  00050	8b 8d 5c ff ff
	ff		 mov	 ecx, DWORD PTR _pfnGetThreadACP$[ebp]
  00056	51		 push	 ecx
  00057	68 00 00 00 00	 push	 OFFSET FLAT:?g_pfnGetThreadACP@ATL@@3P6GIXZA ; ATL::g_pfnGetThreadACP
  0005c	e8 00 00 00 00	 call	 ?InterlockedExchangePointer@@YGPAXPAPAXPAX@Z ; InterlockedExchangePointer

; 150  : 
; 151  : 	return( g_pfnGetThreadACP() );

  00061	ff 15 00 00 00
	00		 call	 DWORD PTR ?g_pfnGetThreadACP@ATL@@3P6GIXZA ; ATL::g_pfnGetThreadACP

; 152  : }

  00067	8b 4d fc	 mov	 ecx, DWORD PTR __$ArrayPad$[ebp]
  0006a	e8 00 00 00 00	 call	 @__security_check_cookie@4
  0006f	8b e5		 mov	 esp, ebp
  00071	5d		 pop	 ebp
  00072	c3		 ret	 0
?_AtlGetThreadACPThunk@ATL@@YGIXZ ENDP			; ATL::_AtlGetThreadACPThunk
_TEXT	ENDS
EXTRN	__imp__InterlockedExchange@8:NEAR
; Function compile flags: /Odt
;	COMDAT ?InterlockedExchangePointer@@YGPAXPAPAXPAX@Z
_TEXT	SEGMENT
_pp$ = 8						; size = 4
_pNew$ = 12						; size = 4
?InterlockedExchangePointer@@YGPAXPAPAXPAX@Z PROC NEAR	; InterlockedExchangePointer, COMDAT

; 91   : {

  00000	55		 push	 ebp
  00001	8b ec		 mov	 ebp, esp

; 92   : 	return( reinterpret_cast<void*>(static_cast<LONG_PTR>(::InterlockedExchange(reinterpret_cast<LONG*>(pp), static_cast<LONG>(reinterpret_cast<LONG_PTR>(pNew))))) );

  00003	8b 45 0c	 mov	 eax, DWORD PTR _pNew$[ebp]
  00006	50		 push	 eax
  00007	8b 4d 08	 mov	 ecx, DWORD PTR _pp$[ebp]
  0000a	51		 push	 ecx
  0000b	ff 15 00 00 00
	00		 call	 DWORD PTR __imp__InterlockedExchange@8

; 93   : }

  00011	5d		 pop	 ebp
  00012	c2 08 00	 ret	 8
?InterlockedExchangePointer@@YGPAXPAPAXPAX@Z ENDP	; InterlockedExchangePointer
_TEXT	ENDS
EXTRN	__imp__GetACP@0:NEAR
EXTRN	__imp__GetLocaleInfoA@16:NEAR
EXTRN	__imp__GetThreadLocale@0:NEAR
; Function compile flags: /Odt
;	COMDAT ?_AtlGetThreadACPFake@ATL@@YGIXZ
_TEXT	SEGMENT
_pch$24161 = -24					; size = 4
_lcidThread$ = -20					; size = 4
_szACP$ = -16						; size = 7
__$ArrayPad$ = -8					; size = 4
_nACP$ = -4						; size = 4
__$ReturnAddr$ = 4					; size = 4
?_AtlGetThreadACPFake@ATL@@YGIXZ PROC NEAR		; ATL::_AtlGetThreadACPFake, COMDAT

; 101  : {

  00000	55		 push	 ebp
  00001	8b ec		 mov	 ebp, esp
  00003	83 ec 18	 sub	 esp, 24			; 00000018H
  00006	a1 00 00 00 00	 mov	 eax, DWORD PTR ___security_cookie
  0000b	89 45 f8	 mov	 DWORD PTR __$ArrayPad$[ebp], eax

; 102  : 	UINT nACP = 0;

  0000e	c7 45 fc 00 00
	00 00		 mov	 DWORD PTR _nACP$[ebp], 0

; 103  : 
; 104  : 	LCID lcidThread = ::GetThreadLocale();

  00015	ff 15 00 00 00
	00		 call	 DWORD PTR __imp__GetThreadLocale@0
  0001b	89 45 ec	 mov	 DWORD PTR _lcidThread$[ebp], eax

; 105  : 
; 106  : 	char szACP[7];
; 107  : 	// GetLocaleInfoA will fail for a Unicode-only LCID, but those are only supported on 
; 108  : 	// Windows 2000.  Since Windows 2000 supports CP_THREAD_ACP, this code path is never
; 109  : 	// executed on Windows 2000.
; 110  : 	if (::GetLocaleInfoA(lcidThread, LOCALE_IDEFAULTANSICODEPAGE, szACP, 7) != 0)

  0001e	6a 07		 push	 7
  00020	8d 45 f0	 lea	 eax, DWORD PTR _szACP$[ebp]
  00023	50		 push	 eax
  00024	68 04 10 00 00	 push	 4100			; 00001004H
  00029	8b 4d ec	 mov	 ecx, DWORD PTR _lcidThread$[ebp]
  0002c	51		 push	 ecx
  0002d	ff 15 00 00 00
	00		 call	 DWORD PTR __imp__GetLocaleInfoA@16
  00033	85 c0		 test	 eax, eax
  00035	74 34		 je	 SHORT $L24160

; 111  : 	{
; 112  : 		char* pch = szACP;

  00037	8d 55 f0	 lea	 edx, DWORD PTR _szACP$[ebp]
  0003a	89 55 e8	 mov	 DWORD PTR _pch$24161[ebp], edx
$L24163:

; 113  : 		while (*pch != '\0')

  0003d	8b 45 e8	 mov	 eax, DWORD PTR _pch$24161[ebp]
  00040	0f be 08	 movsx	 ecx, BYTE PTR [eax]
  00043	85 c9		 test	 ecx, ecx
  00045	74 24		 je	 SHORT $L24160

; 114  : 		{
; 115  : 			nACP *= 10;

  00047	8b 55 fc	 mov	 edx, DWORD PTR _nACP$[ebp]
  0004a	6b d2 0a	 imul	 edx, 10			; 0000000aH
  0004d	89 55 fc	 mov	 DWORD PTR _nACP$[ebp], edx

; 116  : 			nACP += *pch++ - '0';

  00050	8b 45 e8	 mov	 eax, DWORD PTR _pch$24161[ebp]
  00053	0f be 08	 movsx	 ecx, BYTE PTR [eax]
  00056	8b 55 fc	 mov	 edx, DWORD PTR _nACP$[ebp]
  00059	8d 44 0a d0	 lea	 eax, DWORD PTR [edx+ecx-48]
  0005d	89 45 fc	 mov	 DWORD PTR _nACP$[ebp], eax
  00060	8b 4d e8	 mov	 ecx, DWORD PTR _pch$24161[ebp]
  00063	83 c1 01	 add	 ecx, 1
  00066	89 4d e8	 mov	 DWORD PTR _pch$24161[ebp], ecx

; 117  : 		}

  00069	eb d2		 jmp	 SHORT $L24163
$L24160:

; 118  : 	}
; 119  : 	// Use the Default ANSI Code Page if we were unable to get the thread ACP or if one does not exist.
; 120  : 	if (nACP == 0)

  0006b	83 7d fc 00	 cmp	 DWORD PTR _nACP$[ebp], 0
  0006f	75 09		 jne	 SHORT $L24165

; 121  : 		nACP = ::GetACP();

  00071	ff 15 00 00 00
	00		 call	 DWORD PTR __imp__GetACP@0
  00077	89 45 fc	 mov	 DWORD PTR _nACP$[ebp], eax
$L24165:

; 122  : 
; 123  : 	return nACP;

  0007a	8b 45 fc	 mov	 eax, DWORD PTR _nACP$[ebp]

; 124  : }

  0007d	8b 4d f8	 mov	 ecx, DWORD PTR __$ArrayPad$[ebp]
  00080	e8 00 00 00 00	 call	 @__security_check_cookie@4
  00085	8b e5		 mov	 esp, ebp
  00087	5d		 pop	 ebp
  00088	c3		 ret	 0
?_AtlGetThreadACPFake@ATL@@YGIXZ ENDP			; ATL::_AtlGetThreadACPFake
; Function compile flags: /Odt
_TEXT	ENDS
;	COMDAT ?_AtlGetThreadACPReal@ATL@@YGIXZ
_TEXT	SEGMENT
?_AtlGetThreadACPReal@ATL@@YGIXZ PROC NEAR		; ATL::_AtlGetThreadACPReal, COMDAT

; 127  : {

  00000	55		 push	 ebp
  00001	8b ec		 mov	 ebp, esp

; 128  : 	return( CP_THREAD_ACP );

  00003	b8 03 00 00 00	 mov	 eax, 3

; 129  : }

  00008	5d		 pop	 ebp
  00009	c3		 ret	 0
?_AtlGetThreadACPReal@ATL@@YGIXZ ENDP			; ATL::_AtlGetThreadACPReal
_TEXT	ENDS
PUBLIC	?GetThisMessageMap@PlayedGameWnd@@KGPBUAFX_MSGMAP@@XZ ; PlayedGameWnd::GetThisMessageMap
; Function compile flags: /Odt
; File d:\boxgit\playbox\playbox\dev\prj\playbox\src\module\playedgamepanel\playedgamewnd.cpp
_TEXT	SEGMENT
?GetThisMessageMap@PlayedGameWnd@@KGPBUAFX_MSGMAP@@XZ PROC NEAR ; PlayedGameWnd::GetThisMessageMap

; 32   : BEGIN_MESSAGE_MAP(PlayedGameWnd, CLocalMusicCoverList)

  00220	55		 push	 ebp
  00221	8b ec		 mov	 ebp, esp
  00223	b8 00 00 00 00	 mov	 eax, OFFSET FLAT:?messageMap@PlayedGameWnd@@1UAFX_MSGMAP@@B ; PlayedGameWnd::messageMap
  00228	5d		 pop	 ebp
  00229	c3		 ret	 0
?GetThisMessageMap@PlayedGameWnd@@KGPBUAFX_MSGMAP@@XZ ENDP ; PlayedGameWnd::GetThisMessageMap
; Function compile flags: /Odt
_this$ = -4						; size = 4
?GetMessageMap@PlayedGameWnd@@MBEPBUAFX_MSGMAP@@XZ PROC NEAR ; PlayedGameWnd::GetMessageMap
; _this$ = ecx

; 32   : BEGIN_MESSAGE_MAP(PlayedGameWnd, CLocalMusicCoverList)

  00230	55		 push	 ebp
  00231	8b ec		 mov	 ebp, esp
  00233	51		 push	 ecx
  00234	89 4d fc	 mov	 DWORD PTR _this$[ebp], ecx
  00237	b8 00 00 00 00	 mov	 eax, OFFSET FLAT:?messageMap@PlayedGameWnd@@1UAFX_MSGMAP@@B ; PlayedGameWnd::messageMap
  0023c	8b e5		 mov	 esp, ebp
  0023e	5d		 pop	 ebp
  0023f	c3		 ret	 0
?GetMessageMap@PlayedGameWnd@@MBEPBUAFX_MSGMAP@@XZ ENDP	; PlayedGameWnd::GetMessageMap
_TEXT	ENDS
PUBLIC	?ReGetData@PlayedGameWnd@@IAEHXZ		; PlayedGameWnd::ReGetData
EXTRN	?OnShowWindow@CLocalMusicCoverList@@QAEXHI@Z:NEAR ; CLocalMusicCoverList::OnShowWindow
; Function compile flags: /Odt
_TEXT	SEGMENT
_this$ = -4						; size = 4
_bShow$ = 8						; size = 4
_nStatus$ = 12						; size = 4
?OnShowWindow@PlayedGameWnd@@IAEXHI@Z PROC NEAR		; PlayedGameWnd::OnShowWindow
; _this$ = ecx

; 47   : {

  00240	55		 push	 ebp
  00241	8b ec		 mov	 ebp, esp
  00243	51		 push	 ecx
  00244	89 4d fc	 mov	 DWORD PTR _this$[ebp], ecx

; 48   : 	if (bShow)

  00247	83 7d 08 00	 cmp	 DWORD PTR _bShow$[ebp], 0
  0024b	74 08		 je	 SHORT $L202426

; 49   : 	{
; 50   : 		ReGetData();

  0024d	8b 4d fc	 mov	 ecx, DWORD PTR _this$[ebp]
  00250	e8 00 00 00 00	 call	 ?ReGetData@PlayedGameWnd@@IAEHXZ ; PlayedGameWnd::ReGetData
$L202426:

; 51   : 	}
; 52   : 	__super::OnShowWindow(bShow, nStatus);

  00255	8b 45 0c	 mov	 eax, DWORD PTR _nStatus$[ebp]
  00258	50		 push	 eax
  00259	8b 4d 08	 mov	 ecx, DWORD PTR _bShow$[ebp]
  0025c	51		 push	 ecx
  0025d	8b 4d fc	 mov	 ecx, DWORD PTR _this$[ebp]
  00260	e8 00 00 00 00	 call	 ?OnShowWindow@CLocalMusicCoverList@@QAEXHI@Z ; CLocalMusicCoverList::OnShowWindow

; 53   : }

  00265	8b e5		 mov	 esp, ebp
  00267	5d		 pop	 ebp
  00268	c2 08 00	 ret	 8
?OnShowWindow@PlayedGameWnd@@IAEXHI@Z ENDP		; PlayedGameWnd::OnShowWindow
_TEXT	ENDS
PUBLIC	?ClientToScreen@CWnd@@QBEXPAUtagPOINT@@@Z	; CWnd::ClientToScreen
PUBLIC	??_GCShowMenu@@QAEPAXI@Z			; CShowMenu::`scalar deleting destructor'
EXTRN	?OnRButtonUp@CLocalMusicCoverList@@QAEXIVCPoint@@@Z:NEAR ; CLocalMusicCoverList::OnRButtonUp
EXTRN	??2@YAPAXI@Z:NEAR				; operator new
EXTRN	?HitTest@CLocalMusicCoverList@@IAEHAAHVCPoint@@@Z:NEAR ; CLocalMusicCoverList::HitTest
EXTRN	??0CShowMenu@@QAE@PAVCWnd@@KK@Z:NEAR		; CShowMenu::CShowMenu
EXTRN	?DisableItem@CShowMenu@@QAEXK@Z:NEAR		; CShowMenu::DisableItem
EXTRN	?ShowMenu@CShowMenu@@QAEXABVCPoint@@@Z:NEAR	; CShowMenu::ShowMenu
xdata$x	SEGMENT
$T205666 DD	0ffffffffH
	DD	FLAT:$L205662
$T205664 DD	019930520H
	DD	01H
	DD	FLAT:$T205666
	DD	2 DUP(00H)
	DD	2 DUP(00H)
; Function compile flags: /Odt
xdata$x	ENDS
_TEXT	SEGMENT
tv131 = -40						; size = 4
tv78 = -36						; size = 4
_this$ = -32						; size = 4
$T205659 = -28						; size = 4
$T205658 = -24						; size = 4
$T205655 = -20						; size = 4
$T205654 = -16						; size = 4
__$EHRec$ = -12						; size = 12
_nFlags$ = 8						; size = 4
_point$ = 12						; size = 8
?OnRButtonUp@PlayedGameWnd@@IAEXIVCPoint@@@Z PROC NEAR	; PlayedGameWnd::OnRButtonUp
; _this$ = ecx

; 56   : {

  00270	55		 push	 ebp
  00271	8b ec		 mov	 ebp, esp
  00273	6a ff		 push	 -1
  00275	68 00 00 00 00	 push	 __ehhandler$?OnRButtonUp@PlayedGameWnd@@IAEXIVCPoint@@@Z
  0027a	64 a1 00 00 00
	00		 mov	 eax, DWORD PTR fs:__except_list
  00280	50		 push	 eax
  00281	64 89 25 00 00
	00 00		 mov	 DWORD PTR fs:__except_list, esp
  00288	83 ec 1c	 sub	 esp, 28			; 0000001cH
  0028b	89 4d e0	 mov	 DWORD PTR _this$[ebp], ecx

; 57   : 	__super::OnRButtonUp(nFlags, point);

  0028e	8b 45 10	 mov	 eax, DWORD PTR _point$[ebp+4]
  00291	50		 push	 eax
  00292	8b 4d 0c	 mov	 ecx, DWORD PTR _point$[ebp]
  00295	51		 push	 ecx
  00296	8b 55 08	 mov	 edx, DWORD PTR _nFlags$[ebp]
  00299	52		 push	 edx
  0029a	8b 4d e0	 mov	 ecx, DWORD PTR _this$[ebp]
  0029d	e8 00 00 00 00	 call	 ?OnRButtonUp@CLocalMusicCoverList@@QAEXIVCPoint@@@Z ; CLocalMusicCoverList::OnRButtonUp

; 58   : 
; 59   : 	m_pMenu = new CShowMenu(this,IDR_MENU_COVERLIST);

  002a2	6a 6c		 push	 108			; 0000006cH
  002a4	e8 00 00 00 00	 call	 ??2@YAPAXI@Z		; operator new
  002a9	83 c4 04	 add	 esp, 4
  002ac	89 45 ec	 mov	 DWORD PTR $T205655[ebp], eax
  002af	c7 45 fc 00 00
	00 00		 mov	 DWORD PTR __$EHRec$[ebp+8], 0
  002b6	83 7d ec 00	 cmp	 DWORD PTR $T205655[ebp], 0
  002ba	74 18		 je	 SHORT $L205656
  002bc	6a 00		 push	 0
  002be	68 8c 00 00 00	 push	 140			; 0000008cH
  002c3	8b 45 e0	 mov	 eax, DWORD PTR _this$[ebp]
  002c6	50		 push	 eax
  002c7	8b 4d ec	 mov	 ecx, DWORD PTR $T205655[ebp]
  002ca	e8 00 00 00 00	 call	 ??0CShowMenu@@QAE@PAVCWnd@@KK@Z ; CShowMenu::CShowMenu
  002cf	89 45 dc	 mov	 DWORD PTR tv78[ebp], eax
  002d2	eb 07		 jmp	 SHORT $L205657
$L205656:
  002d4	c7 45 dc 00 00
	00 00		 mov	 DWORD PTR tv78[ebp], 0
$L205657:
  002db	8b 4d dc	 mov	 ecx, DWORD PTR tv78[ebp]
  002de	89 4d f0	 mov	 DWORD PTR $T205654[ebp], ecx
  002e1	c7 45 fc ff ff
	ff ff		 mov	 DWORD PTR __$EHRec$[ebp+8], -1
  002e8	8b 55 e0	 mov	 edx, DWORD PTR _this$[ebp]
  002eb	8b 45 f0	 mov	 eax, DWORD PTR $T205654[ebp]
  002ee	89 82 80 01 00
	00		 mov	 DWORD PTR [edx+384], eax

; 60   : 	if( !HitTest(m_iMouseDownItem,point) )

  002f4	8b 4d 10	 mov	 ecx, DWORD PTR _point$[ebp+4]
  002f7	51		 push	 ecx
  002f8	8b 55 0c	 mov	 edx, DWORD PTR _point$[ebp]
  002fb	52		 push	 edx
  002fc	8b 45 e0	 mov	 eax, DWORD PTR _this$[ebp]
  002ff	05 18 02 00 00	 add	 eax, 536		; 00000218H
  00304	50		 push	 eax
  00305	8b 4d e0	 mov	 ecx, DWORD PTR _this$[ebp]
  00308	e8 00 00 00 00	 call	 ?HitTest@CLocalMusicCoverList@@IAEHAAHVCPoint@@@Z ; CLocalMusicCoverList::HitTest
  0030d	85 c0		 test	 eax, eax
  0030f	75 13		 jne	 SHORT $L202436

; 61   : 	{
; 62   :         //
; 63   : 		m_pMenu->DisableItem( ID_CL_DELFROMDISK );		

  00311	68 0a 80 00 00	 push	 32778			; 0000800aH
  00316	8b 4d e0	 mov	 ecx, DWORD PTR _this$[ebp]
  00319	8b 89 80 01 00
	00		 mov	 ecx, DWORD PTR [ecx+384]
  0031f	e8 00 00 00 00	 call	 ?DisableItem@CShowMenu@@QAEXK@Z ; CShowMenu::DisableItem
$L202436:

; 64   : 	}
; 65   : 	ClientToScreen(&point);

  00324	8d 55 0c	 lea	 edx, DWORD PTR _point$[ebp]
  00327	52		 push	 edx
  00328	8b 4d e0	 mov	 ecx, DWORD PTR _this$[ebp]
  0032b	e8 00 00 00 00	 call	 ?ClientToScreen@CWnd@@QBEXPAUtagPOINT@@@Z ; CWnd::ClientToScreen

; 66   : 	m_pMenu->ShowMenu(point);

  00330	8d 45 0c	 lea	 eax, DWORD PTR _point$[ebp]
  00333	50		 push	 eax
  00334	8b 4d e0	 mov	 ecx, DWORD PTR _this$[ebp]
  00337	8b 89 80 01 00
	00		 mov	 ecx, DWORD PTR [ecx+384]
  0033d	e8 00 00 00 00	 call	 ?ShowMenu@CShowMenu@@QAEXABVCPoint@@@Z ; CShowMenu::ShowMenu

; 67   : 	delete m_pMenu;

  00342	8b 55 e0	 mov	 edx, DWORD PTR _this$[ebp]
  00345	8b 82 80 01 00
	00		 mov	 eax, DWORD PTR [edx+384]
  0034b	89 45 e4	 mov	 DWORD PTR $T205659[ebp], eax
  0034e	8b 4d e4	 mov	 ecx, DWORD PTR $T205659[ebp]
  00351	89 4d e8	 mov	 DWORD PTR $T205658[ebp], ecx
  00354	83 7d e8 00	 cmp	 DWORD PTR $T205658[ebp], 0
  00358	74 0f		 je	 SHORT $L205660
  0035a	6a 01		 push	 1
  0035c	8b 4d e8	 mov	 ecx, DWORD PTR $T205658[ebp]
  0035f	e8 00 00 00 00	 call	 ??_GCShowMenu@@QAEPAXI@Z
  00364	89 45 d8	 mov	 DWORD PTR tv131[ebp], eax
  00367	eb 07		 jmp	 SHORT $L205661
$L205660:
  00369	c7 45 d8 00 00
	00 00		 mov	 DWORD PTR tv131[ebp], 0
$L205661:

; 68   : 	m_pMenu = NULL;

  00370	8b 55 e0	 mov	 edx, DWORD PTR _this$[ebp]
  00373	c7 82 80 01 00
	00 00 00 00 00	 mov	 DWORD PTR [edx+384], 0

; 69   : }

  0037d	8b 4d f4	 mov	 ecx, DWORD PTR __$EHRec$[ebp]
  00380	64 89 0d 00 00
	00 00		 mov	 DWORD PTR fs:__except_list, ecx
  00387	8b e5		 mov	 esp, ebp
  00389	5d		 pop	 ebp
  0038a	c2 0c 00	 ret	 12			; 0000000cH
_TEXT	ENDS
text$x	SEGMENT
$L205662:
  000b3	8b 45 ec	 mov	 eax, DWORD PTR $T205655[ebp]
  000b6	50		 push	 eax
  000b7	e8 00 00 00 00	 call	 ??3@YAXPAX@Z		; operator delete
  000bc	59		 pop	 ecx
  000bd	c3		 ret	 0
__ehhandler$?OnRButtonUp@PlayedGameWnd@@IAEXIVCPoint@@@Z:
  000be	b8 00 00 00 00	 mov	 eax, OFFSET FLAT:$T205664
  000c3	e9 00 00 00 00	 jmp	 ___CxxFrameHandler
text$x	ENDS
?OnRButtonUp@PlayedGameWnd@@IAEXIVCPoint@@@Z ENDP	; PlayedGameWnd::OnRButtonUp
PUBLIC	??1CShowMenu@@QAE@XZ				; CShowMenu::~CShowMenu
; Function compile flags: /Odt
;	COMDAT ??_GCShowMenu@@QAEPAXI@Z
_TEXT	SEGMENT
_this$ = -4						; size = 4
___flags$ = 8						; size = 4
??_GCShowMenu@@QAEPAXI@Z PROC NEAR			; CShowMenu::`scalar deleting destructor', COMDAT
; _this$ = ecx
  00000	55		 push	 ebp
  00001	8b ec		 mov	 ebp, esp
  00003	51		 push	 ecx
  00004	89 4d fc	 mov	 DWORD PTR _this$[ebp], ecx
  00007	8b 4d fc	 mov	 ecx, DWORD PTR _this$[ebp]
  0000a	e8 00 00 00 00	 call	 ??1CShowMenu@@QAE@XZ	; CShowMenu::~CShowMenu
  0000f	8b 45 08	 mov	 eax, DWORD PTR ___flags$[ebp]
  00012	83 e0 01	 and	 eax, 1
  00015	74 0c		 je	 SHORT $L202442
  00017	8b 4d fc	 mov	 ecx, DWORD PTR _this$[ebp]
  0001a	51		 push	 ecx
  0001b	e8 00 00 00 00	 call	 ??3@YAXPAX@Z		; operator delete
  00020	83 c4 04	 add	 esp, 4
$L202442:
  00023	8b 45 fc	 mov	 eax, DWORD PTR _this$[ebp]
  00026	8b e5		 mov	 esp, ebp
  00028	5d		 pop	 ebp
  00029	c2 04 00	 ret	 4
??_GCShowMenu@@QAEPAXI@Z ENDP				; CShowMenu::`scalar deleting destructor'
_TEXT	ENDS
EXTRN	??1BCMenu@@UAE@XZ:NEAR				; BCMenu::~BCMenu
; Function compile flags: /Odt
; File d:\boxgit\playbox\playbox\dev\prj\playbox\src\gui\util\showmenu.h
;	COMDAT ??1CShowMenu@@QAE@XZ
_TEXT	SEGMENT
_this$ = -4						; size = 4
??1CShowMenu@@QAE@XZ PROC NEAR				; CShowMenu::~CShowMenu, COMDAT
; _this$ = ecx

; 11   : 	~CShowMenu(){};

  00000	55		 push	 ebp
  00001	8b ec		 mov	 ebp, esp
  00003	51		 push	 ecx
  00004	89 4d fc	 mov	 DWORD PTR _this$[ebp], ecx
  00007	8b 4d fc	 mov	 ecx, DWORD PTR _this$[ebp]
  0000a	e8 00 00 00 00	 call	 ??1BCMenu@@UAE@XZ	; BCMenu::~BCMenu
  0000f	8b e5		 mov	 esp, ebp
  00011	5d		 pop	 ebp
  00012	c3		 ret	 0
??1CShowMenu@@QAE@XZ ENDP				; CShowMenu::~CShowMenu
_TEXT	ENDS
PUBLIC	??0?$vector@V?$basic_string@DU?$char_traits@D@std@@V?$allocator@D@2@@std@@V?$allocator@V?$basic_string@DU?$char_traits@D@std@@V?$allocator@D@2@@std@@@2@@std@@QAE@XZ ; std::vector<std::basic_string<char,std::char_traits<char>,std::allocator<char> >,std::allocator<std::basic_string<char,std::char_traits<char>,std::allocator<char> > > >::vector<std::basic_string<char,std::char_traits<char>,std::allocator<char> >,std::allocator<std::basic_string<char,std::char_traits<char>,std::allocator<char> > > >
PUBLIC	??1?$vector@V?$basic_string@DU?$char_traits@D@std@@V?$allocator@D@2@@std@@V?$allocator@V?$basic_string@DU?$char_traits@D@std@@V?$allocator@D@2@@std@@@2@@std@@QAE@XZ ; std::vector<std::basic_string<char,std::char_traits<char>,std::allocator<char> >,std::allocator<std::basic_string<char,std::char_traits<char>,std::allocator<char> > > >::~vector<std::basic_string<char,std::char_traits<char>,std::allocator<char> >,std::allocator<std::basic_string<char,std::char_traits<char>,std::allocator<char> > > >
PUBLIC	?begin@?$vector@V?$basic_string@DU?$char_traits@D@std@@V?$allocator@D@2@@std@@V?$allocator@V?$basic_string@DU?$char_traits@D@std@@V?$allocator@D@2@@std@@@2@@std@@QAE?AViterator@12@XZ ; std::vector<std::basic_string<char,std::char_traits<char>,std::allocator<char> >,std::allocator<std::basic_string<char,std::char_traits<char>,std::allocator<char> > > >::begin
PUBLIC	?end@?$vector@V?$basic_string@DU?$char_traits@D@std@@V?$allocator@D@2@@std@@V?$allocator@V?$basic_string@DU?$char_traits@D@std@@V?$allocator@D@2@@std@@@2@@std@@QAE?AViterator@12@XZ ; std::vector<std::basic_string<char,std::char_traits<char>,std::allocator<char> >,std::allocator<std::basic_string<char,std::char_traits<char>,std::allocator<char> > > >::end
PUBLIC	?push_back@?$vector@V?$basic_string@DU?$char_traits@D@std@@V?$allocator@D@2@@std@@V?$allocator@V?$basic_string@DU?$char_traits@D@std@@V?$allocator@D@2@@std@@@2@@std@@QAEXABV?$basic_string@DU?$char_traits@D@std@@V?$allocator@D@2@@2@@Z ; std::vector<std::basic_string<char,std::char_traits<char>,std::allocator<char> >,std::allocator<std::basic_string<char,std::char_traits<char>,std::allocator<char> > > >::push_back
PUBLIC	?clear@?$vector@V?$basic_string@DU?$char_traits@D@std@@V?$allocator@D@2@@std@@V?$allocator@V?$basic_string@DU?$char_traits@D@std@@V?$allocator@D@2@@std@@@2@@std@@QAEXXZ ; std::vector<std::basic_string<char,std::char_traits<char>,std::allocator<char> >,std::allocator<std::basic_string<char,std::char_traits<char>,std::allocator<char> > > >::clear
PUBLIC	??9const_iterator@?$vector@V?$basic_string@DU?$char_traits@D@std@@V?$allocator@D@2@@std@@V?$allocator@V?$basic_string@DU?$char_traits@D@std@@V?$allocator@D@2@@std@@@2@@std@@QBE_NABV012@@Z ; std::vector<std::basic_string<char,std::char_traits<char>,std::allocator<char> >,std::allocator<std::basic_string<char,std::char_traits<char>,std::allocator<char> > > >::const_iterator::operator!=
PUBLIC	??Diterator@?$vector@V?$basic_string@DU?$char_traits@D@std@@V?$allocator@D@2@@std@@V?$allocator@V?$basic_string@DU?$char_traits@D@std@@V?$allocator@D@2@@std@@@2@@std@@QBEAAV?$basic_string@DU?$char_traits@D@std@@V?$allocator@D@2@@2@XZ ; std::vector<std::basic_string<char,std::char_traits<char>,std::allocator<char> >,std::allocator<std::basic_string<char,std::char_traits<char>,std::allocator<char> > > >::iterator::operator*
PUBLIC	??Eiterator@?$vector@V?$basic_string@DU?$char_traits@D@std@@V?$allocator@D@2@@std@@V?$allocator@V?$basic_string@DU?$char_traits@D@std@@V?$allocator@D@2@@std@@@2@@std@@QAE?AV012@H@Z ; std::vector<std::basic_string<char,std::char_traits<char>,std::allocator<char> >,std::allocator<std::basic_string<char,std::char_traits<char>,std::allocator<char> > > >::iterator::operator++
PUBLIC	??A?$vector@U_tagLMCItemInfo@@V?$allocator@U_tagLMCItemInfo@@@std@@@std@@QAEAAU_tagLMCItemInfo@@I@Z ; std::vector<_tagLMCItemInfo,std::allocator<_tagLMCItemInfo> >::operator[]
PUBLIC	??0?$vector@HV?$allocator@H@std@@@std@@QAE@XZ	; std::vector<int,std::allocator<int> >::vector<int,std::allocator<int> >
PUBLIC	??1?$vector@HV?$allocator@H@std@@@std@@QAE@XZ	; std::vector<int,std::allocator<int> >::~vector<int,std::allocator<int> >
PUBLIC	??4?$vector@HV?$allocator@H@std@@@std@@QAEAAV01@ABV01@@Z ; std::vector<int,std::allocator<int> >::operator=
PUBLIC	?size@?$vector@HV?$allocator@H@std@@@std@@QBEIXZ ; std::vector<int,std::allocator<int> >::size
PUBLIC	??A?$vector@HV?$allocator@H@std@@@std@@QAEAAHI@Z ; std::vector<int,std::allocator<int> >::operator[]
EXTRN	__imp__MessageBoxA@16:NEAR
EXTRN	?OnCommand@CWnd@@MAEHIJ@Z:NEAR			; CWnd::OnCommand
EXTRN	?SetImgState@CLocalMusicCoverList@@QAEXW4LMCImgState@@@Z:NEAR ; CLocalMusicCoverList::SetImgState
EXTRN	?GetSelectItem@CLocalMusicCoverList@@QAE?AV?$vector@HV?$allocator@H@std@@@std@@XZ:NEAR ; CLocalMusicCoverList::GetSelectItem
EXTRN	?OnMemoryDraw@CLocalMusicCoverList@@IAEXH@Z:NEAR ; CLocalMusicCoverList::OnMemoryDraw
EXTRN	?UpdateList@CLocalMusicCoverList@@IAEXXZ:NEAR	; CLocalMusicCoverList::UpdateList
EXTRN	__imp_??0?$basic_string@DU?$char_traits@D@std@@V?$allocator@D@2@@std@@QAE@ABV01@@Z:NEAR
EXTRN	?AfxGetDataManager2@@YAPAVIDataManager@@XZ:NEAR	; AfxGetDataManager2
EXTRN	?AfxGetMainWindow@@YAPAVCWnd@@XZ:NEAR		; AfxGetMainWindow
;	COMDAT ?bPrompted@?1??OnCommand@PlayedGameWnd@@MAEHIJ@Z@4HA
; File d:\boxgit\playbox\playbox\dev\prj\playbox\src\module\playedgamepanel\playedgamewnd.cpp
_BSS	SEGMENT
?bPrompted@?1??OnCommand@PlayedGameWnd@@MAEHIJ@Z@4HA DD 01H DUP (?) ; `PlayedGameWnd::OnCommand'::`2'::bPrompted
_BSS	ENDS
xdata$x	SEGMENT
$T205688 DD	0ffffffffH
	DD	FLAT:$L205678
	DD	00H
	DD	FLAT:$L205679
	DD	00H
	DD	FLAT:$L205680
	DD	02H
	DD	FLAT:$L205681
	DD	02H
	DD	FLAT:$L205682
$T205684 DD	019930520H
	DD	05H
	DD	FLAT:$T205688
	DD	2 DUP(00H)
	DD	2 DUP(00H)
; Function compile flags: /Odt
xdata$x	ENDS
_TEXT	SEGMENT
tv169 = -156						; size = 4
tv163 = -152						; size = 4
tv204 = -148						; size = 4
tv135 = -144						; size = 4
tv200 = -140						; size = 4
tv86 = -136						; size = 4
tv69 = -132						; size = 4
_this$ = -128						; size = 4
$T205677 = -124						; size = 4
$T205676 = -120						; size = 4
$T205675 = -116						; size = 4
$T205674 = -112						; size = 16
_it$203028 = -96					; size = 4
_strGID$202911 = -92					; size = 28
__$ArrayPad$ = -64					; size = 4
_i$202907 = -60						; size = 4
_nRet$202465 = -56					; size = 4
_rv$202906 = -52					; size = 16
_vAlbum$202711 = -36					; size = 16
_lowWord$ = -20						; size = 2
_hiWord$ = -16						; size = 2
__$EHRec$ = -12						; size = 12
__$ReturnAddr$ = 4					; size = 4
_wParam$ = 8						; size = 4
_lParam$ = 12						; size = 4
?OnCommand@PlayedGameWnd@@MAEHIJ@Z PROC NEAR		; PlayedGameWnd::OnCommand
; _this$ = ecx

; 72   : {

  00390	55		 push	 ebp
  00391	8b ec		 mov	 ebp, esp
  00393	6a ff		 push	 -1
  00395	68 00 00 00 00	 push	 __ehhandler$?OnCommand@PlayedGameWnd@@MAEHIJ@Z
  0039a	64 a1 00 00 00
	00		 mov	 eax, DWORD PTR fs:__except_list
  003a0	50		 push	 eax
  003a1	64 89 25 00 00
	00 00		 mov	 DWORD PTR fs:__except_list, esp
  003a8	81 ec 90 00 00
	00		 sub	 esp, 144		; 00000090H
  003ae	a1 00 00 00 00	 mov	 eax, DWORD PTR ___security_cookie
  003b3	89 45 c0	 mov	 DWORD PTR __$ArrayPad$[ebp], eax
  003b6	89 4d 80	 mov	 DWORD PTR _this$[ebp], ecx

; 73   : 	static BOOL bPrompted = FALSE;
; 74   : 
; 75   : 	WORD lowWord	= LOWORD( wParam );

  003b9	8b 45 08	 mov	 eax, DWORD PTR _wParam$[ebp]
  003bc	25 ff ff 00 00	 and	 eax, 65535		; 0000ffffH
  003c1	66 89 45 ec	 mov	 WORD PTR _lowWord$[ebp], ax

; 76   : 	WORD hiWord		= HIWORD( wParam );

  003c5	8b 4d 08	 mov	 ecx, DWORD PTR _wParam$[ebp]
  003c8	c1 e9 10	 shr	 ecx, 16			; 00000010H
  003cb	66 89 4d f0	 mov	 WORD PTR _hiWord$[ebp], cx

; 77   : 	switch( lowWord )

  003cf	0f b7 55 ec	 movzx	 edx, WORD PTR _lowWord$[ebp]
  003d3	89 95 7c ff ff
	ff		 mov	 DWORD PTR tv69[ebp], edx
  003d9	8b 85 7c ff ff
	ff		 mov	 eax, DWORD PTR tv69[ebp]
  003df	2d 04 80 00 00	 sub	 eax, 32772		; 00008004H
  003e4	89 85 7c ff ff
	ff		 mov	 DWORD PTR tv69[ebp], eax
  003ea	83 bd 7c ff ff
	ff 06		 cmp	 DWORD PTR tv69[ebp], 6
  003f1	0f 87 0e 02 00
	00		 ja	 $L202457
  003f7	8b 8d 7c ff ff
	ff		 mov	 ecx, DWORD PTR tv69[ebp]
  003fd	ff 24 8d 00 00
	00 00		 jmp	 DWORD PTR $L205687[ecx*4]
$L202460:

; 78   : 	{
; 79   : 	case ID_CL_LARGEICON: // 
; 80   : 		SetImgState(LMCI_Big);

  00404	6a 02		 push	 2
  00406	8b 4d 80	 mov	 ecx, DWORD PTR _this$[ebp]
  00409	e8 00 00 00 00	 call	 ?SetImgState@CLocalMusicCoverList@@QAEXW4LMCImgState@@@Z ; CLocalMusicCoverList::SetImgState

; 81   : 		break;

  0040e	e9 f2 01 00 00	 jmp	 $L202457
$L202461:

; 82   : 	case ID_CL_MIDICON: // 
; 83   : 		SetImgState(LMCI_Middle);

  00413	6a 01		 push	 1
  00415	8b 4d 80	 mov	 ecx, DWORD PTR _this$[ebp]
  00418	e8 00 00 00 00	 call	 ?SetImgState@CLocalMusicCoverList@@QAEXW4LMCImgState@@@Z ; CLocalMusicCoverList::SetImgState

; 84   : 		break;

  0041d	e9 e3 01 00 00	 jmp	 $L202457
$L202462:

; 85   : 	case ID_CL_SMALLICON: // 
; 86   : 		SetImgState(LMCI_Small);

  00422	6a 00		 push	 0
  00424	8b 4d 80	 mov	 ecx, DWORD PTR _this$[ebp]
  00427	e8 00 00 00 00	 call	 ?SetImgState@CLocalMusicCoverList@@QAEXW4LMCImgState@@@Z ; CLocalMusicCoverList::SetImgState

; 87   : 		break;

  0042c	e9 d4 01 00 00	 jmp	 $L202457
$L202463:

; 88   : 	case ID_CL_DELFROMDISK: // 
; 89   : 		{
; 90   : 			if (!bPrompted)

  00431	83 3d 00 00 00
	00 00		 cmp	 DWORD PTR ?bPrompted@?1??OnCommand@PlayedGameWnd@@MAEHIJ@Z@4HA, 0
  00438	75 33		 jne	 SHORT $L202464

; 91   : 			{
; 92   : 				bPrompted = TRUE;

  0043a	c7 05 00 00 00
	00 01 00 00 00	 mov	 DWORD PTR ?bPrompted@?1??OnCommand@PlayedGameWnd@@MAEHIJ@Z@4HA, 1

; 93   : // 				int nRet = AfxMessageBox ("", MB_OKCANCEL);
; 94   : 				int nRet = ::MessageBox (AfxGetMainWindow ()->m_hWnd, "",
; 95   : 					"", MB_OKCANCEL);

  00444	6a 01		 push	 1
  00446	68 00 00 00 00	 push	 OFFSET FLAT:$SG202466
  0044b	68 00 00 00 00	 push	 OFFSET FLAT:$SG202467
  00450	e8 00 00 00 00	 call	 ?AfxGetMainWindow@@YAPAVCWnd@@XZ ; AfxGetMainWindow
  00455	8b 50 20	 mov	 edx, DWORD PTR [eax+32]
  00458	52		 push	 edx
  00459	ff 15 00 00 00
	00		 call	 DWORD PTR __imp__MessageBoxA@16
  0045f	89 45 c8	 mov	 DWORD PTR _nRet$202465[ebp], eax

; 96   : 				if (nRet == IDCANCEL)

  00462	83 7d c8 02	 cmp	 DWORD PTR _nRet$202465[ebp], 2
  00466	75 05		 jne	 SHORT $L202464

; 97   : 					break;

  00468	e9 98 01 00 00	 jmp	 $L202457
$L202464:

; 98   : 			}
; 99   : 			vector<int> vAlbum;

  0046d	8d 4d dc	 lea	 ecx, DWORD PTR _vAlbum$202711[ebp]
  00470	e8 00 00 00 00	 call	 ??0?$vector@HV?$allocator@H@std@@@std@@QAE@XZ ; std::vector<int,std::allocator<int> >::vector<int,std::allocator<int> >
  00475	c7 45 fc 00 00
	00 00		 mov	 DWORD PTR __$EHRec$[ebp+8], 0

; 100  : 			vAlbum = GetSelectItem();

  0047c	8d 45 90	 lea	 eax, DWORD PTR $T205674[ebp]
  0047f	50		 push	 eax
  00480	8b 4d 80	 mov	 ecx, DWORD PTR _this$[ebp]
  00483	e8 00 00 00 00	 call	 ?GetSelectItem@CLocalMusicCoverList@@QAE?AV?$vector@HV?$allocator@H@std@@@std@@XZ ; CLocalMusicCoverList::GetSelectItem
  00488	89 85 78 ff ff
	ff		 mov	 DWORD PTR tv86[ebp], eax
  0048e	8b 8d 78 ff ff
	ff		 mov	 ecx, DWORD PTR tv86[ebp]
  00494	89 8d 74 ff ff
	ff		 mov	 DWORD PTR tv200[ebp], ecx
  0049a	c6 45 fc 01	 mov	 BYTE PTR __$EHRec$[ebp+8], 1
  0049e	8b 95 74 ff ff
	ff		 mov	 edx, DWORD PTR tv200[ebp]
  004a4	52		 push	 edx
  004a5	8d 4d dc	 lea	 ecx, DWORD PTR _vAlbum$202711[ebp]
  004a8	e8 00 00 00 00	 call	 ??4?$vector@HV?$allocator@H@std@@@std@@QAEAAV01@ABV01@@Z ; std::vector<int,std::allocator<int> >::operator=
  004ad	c6 45 fc 00	 mov	 BYTE PTR __$EHRec$[ebp+8], 0
  004b1	8d 4d 90	 lea	 ecx, DWORD PTR $T205674[ebp]
  004b4	e8 00 00 00 00	 call	 ??1?$vector@HV?$allocator@H@std@@@std@@QAE@XZ ; std::vector<int,std::allocator<int> >::~vector<int,std::allocator<int> >

; 101  : 			RidVector rv;

  004b9	8d 4d cc	 lea	 ecx, DWORD PTR _rv$202906[ebp]
  004bc	e8 00 00 00 00	 call	 ??0?$vector@V?$basic_string@DU?$char_traits@D@std@@V?$allocator@D@2@@std@@V?$allocator@V?$basic_string@DU?$char_traits@D@std@@V?$allocator@D@2@@std@@@2@@std@@QAE@XZ ; std::vector<std::basic_string<char,std::char_traits<char>,std::allocator<char> >,std::allocator<std::basic_string<char,std::char_traits<char>,std::allocator<char> > > >::vector<std::basic_string<char,std::char_traits<char>,std::allocator<char> >,std::allocator<std::basic_string<char,std::char_traits<char>,std::allocator<char> > > >
  004c1	c6 45 fc 02	 mov	 BYTE PTR __$EHRec$[ebp+8], 2

; 102  : 			for (int i=0;i<vAlbum.size();i++)

  004c5	c7 45 c4 00 00
	00 00		 mov	 DWORD PTR _i$202907[ebp], 0
  004cc	eb 09		 jmp	 SHORT $L202908
$L202909:
  004ce	8b 45 c4	 mov	 eax, DWORD PTR _i$202907[ebp]
  004d1	83 c0 01	 add	 eax, 1
  004d4	89 45 c4	 mov	 DWORD PTR _i$202907[ebp], eax
$L202908:
  004d7	8d 4d dc	 lea	 ecx, DWORD PTR _vAlbum$202711[ebp]
  004da	e8 00 00 00 00	 call	 ?size@?$vector@HV?$allocator@H@std@@@std@@QBEIXZ ; std::vector<int,std::allocator<int> >::size
  004df	39 45 c4	 cmp	 DWORD PTR _i$202907[ebp], eax
  004e2	73 46		 jae	 SHORT $L202910

; 103  : 			{
; 104  : 				string strGID = m_DataMgr.m_vItem[vAlbum[i]].strGID;

  004e4	8b 4d c4	 mov	 ecx, DWORD PTR _i$202907[ebp]
  004e7	51		 push	 ecx
  004e8	8d 4d dc	 lea	 ecx, DWORD PTR _vAlbum$202711[ebp]
  004eb	e8 00 00 00 00	 call	 ??A?$vector@HV?$allocator@H@std@@@std@@QAEAAHI@Z ; std::vector<int,std::allocator<int> >::operator[]
  004f0	8b 10		 mov	 edx, DWORD PTR [eax]
  004f2	52		 push	 edx
  004f3	8b 4d 80	 mov	 ecx, DWORD PTR _this$[ebp]
  004f6	81 c1 68 01 00
	00		 add	 ecx, 360		; 00000168H
  004fc	e8 00 00 00 00	 call	 ??A?$vector@U_tagLMCItemInfo@@V?$allocator@U_tagLMCItemInfo@@@std@@@std@@QAEAAU_tagLMCItemInfo@@I@Z ; std::vector<_tagLMCItemInfo,std::allocator<_tagLMCItemInfo> >::operator[]
  00501	50		 push	 eax
  00502	8d 4d a4	 lea	 ecx, DWORD PTR _strGID$202911[ebp]
  00505	ff 15 00 00 00
	00		 call	 DWORD PTR __imp_??0?$basic_string@DU?$char_traits@D@std@@V?$allocator@D@2@@std@@QAE@ABV01@@Z
  0050b	c6 45 fc 03	 mov	 BYTE PTR __$EHRec$[ebp+8], 3

; 105  : 				rv.push_back (strGID);

  0050f	8d 45 a4	 lea	 eax, DWORD PTR _strGID$202911[ebp]
  00512	50		 push	 eax
  00513	8d 4d cc	 lea	 ecx, DWORD PTR _rv$202906[ebp]
  00516	e8 00 00 00 00	 call	 ?push_back@?$vector@V?$basic_string@DU?$char_traits@D@std@@V?$allocator@D@2@@std@@V?$allocator@V?$basic_string@DU?$char_traits@D@std@@V?$allocator@D@2@@std@@@2@@std@@QAEXABV?$basic_string@DU?$char_traits@D@std@@V?$allocator@D@2@@2@@Z ; std::vector<std::basic_string<char,std::char_traits<char>,std::allocator<char> >,std::allocator<std::basic_string<char,std::char_traits<char>,std::allocator<char> > > >::push_back

; 106  : 			}

  0051b	c6 45 fc 02	 mov	 BYTE PTR __$EHRec$[ebp+8], 2
  0051f	8d 4d a4	 lea	 ecx, DWORD PTR _strGID$202911[ebp]
  00522	ff 15 00 00 00
	00		 call	 DWORD PTR __imp_??1?$basic_string@DU?$char_traits@D@std@@V?$allocator@D@2@@std@@QAE@XZ
  00528	eb a4		 jmp	 SHORT $L202909
$L202910:

; 107  : 
; 108  : 			for (RidVector::iterator it = rv.begin (); it != rv.end (); it++)

  0052a	8d 4d a0	 lea	 ecx, DWORD PTR _it$203028[ebp]
  0052d	51		 push	 ecx
  0052e	8d 4d cc	 lea	 ecx, DWORD PTR _rv$202906[ebp]
  00531	e8 00 00 00 00	 call	 ?begin@?$vector@V?$basic_string@DU?$char_traits@D@std@@V?$allocator@D@2@@std@@V?$allocator@V?$basic_string@DU?$char_traits@D@std@@V?$allocator@D@2@@std@@@2@@std@@QAE?AViterator@12@XZ ; std::vector<std::basic_string<char,std::char_traits<char>,std::allocator<char> >,std::allocator<std::basic_string<char,std::char_traits<char>,std::allocator<char> > > >::begin
  00536	eb 0e		 jmp	 SHORT $L203032
$L203033:
  00538	6a 00		 push	 0
  0053a	8d 55 8c	 lea	 edx, DWORD PTR $T205675[ebp]
  0053d	52		 push	 edx
  0053e	8d 4d a0	 lea	 ecx, DWORD PTR _it$203028[ebp]
  00541	e8 00 00 00 00	 call	 ??Eiterator@?$vector@V?$basic_string@DU?$char_traits@D@std@@V?$allocator@D@2@@std@@V?$allocator@V?$basic_string@DU?$char_traits@D@std@@V?$allocator@D@2@@std@@@2@@std@@QAE?AV012@H@Z ; std::vector<std::basic_string<char,std::char_traits<char>,std::allocator<char> >,std::allocator<std::basic_string<char,std::char_traits<char>,std::allocator<char> > > >::iterator::operator++
$L203032:
  00546	8d 45 88	 lea	 eax, DWORD PTR $T205676[ebp]
  00549	50		 push	 eax
  0054a	8d 4d cc	 lea	 ecx, DWORD PTR _rv$202906[ebp]
  0054d	e8 00 00 00 00	 call	 ?end@?$vector@V?$basic_string@DU?$char_traits@D@std@@V?$allocator@D@2@@std@@V?$allocator@V?$basic_string@DU?$char_traits@D@std@@V?$allocator@D@2@@std@@@2@@std@@QAE?AViterator@12@XZ ; std::vector<std::basic_string<char,std::char_traits<char>,std::allocator<char> >,std::allocator<std::basic_string<char,std::char_traits<char>,std::allocator<char> > > >::end
  00552	50		 push	 eax
  00553	8d 4d a0	 lea	 ecx, DWORD PTR _it$203028[ebp]
  00556	e8 00 00 00 00	 call	 ??9const_iterator@?$vector@V?$basic_string@DU?$char_traits@D@std@@V?$allocator@D@2@@std@@V?$allocator@V?$basic_string@DU?$char_traits@D@std@@V?$allocator@D@2@@std@@@2@@std@@QBE_NABV012@@Z ; std::vector<std::basic_string<char,std::char_traits<char>,std::allocator<char> >,std::allocator<std::basic_string<char,std::char_traits<char>,std::allocator<char> > > >::const_iterator::operator!=
  0055b	0f b6 c8	 movzx	 ecx, al
  0055e	85 c9		 test	 ecx, ecx
  00560	74 6e		 je	 SHORT $L203034

; 109  : 			{
; 110  : 				GLOBAL_LOCALGAME->ILocalGameData_DelGame(*it);

  00562	8d 4d a0	 lea	 ecx, DWORD PTR _it$203028[ebp]
  00565	e8 00 00 00 00	 call	 ??Diterator@?$vector@V?$basic_string@DU?$char_traits@D@std@@V?$allocator@D@2@@std@@V?$allocator@V?$basic_string@DU?$char_traits@D@std@@V?$allocator@D@2@@std@@@2@@std@@QBEAAV?$basic_string@DU?$char_traits@D@std@@V?$allocator@D@2@@2@XZ ; std::vector<std::basic_string<char,std::char_traits<char>,std::allocator<char> >,std::allocator<std::basic_string<char,std::char_traits<char>,std::allocator<char> > > >::iterator::operator*
  0056a	83 ec 1c	 sub	 esp, 28			; 0000001cH
  0056d	8b cc		 mov	 ecx, esp
  0056f	89 65 84	 mov	 DWORD PTR $T205677[ebp], esp
  00572	50		 push	 eax
  00573	ff 15 00 00 00
	00		 call	 DWORD PTR __imp_??0?$basic_string@DU?$char_traits@D@std@@V?$allocator@D@2@@std@@QAE@ABV01@@Z
  00579	89 85 70 ff ff
	ff		 mov	 DWORD PTR tv135[ebp], eax
  0057f	8b 95 70 ff ff
	ff		 mov	 edx, DWORD PTR tv135[ebp]
  00585	89 95 6c ff ff
	ff		 mov	 DWORD PTR tv204[ebp], edx
  0058b	c6 45 fc 04	 mov	 BYTE PTR __$EHRec$[ebp+8], 4
  0058f	e8 00 00 00 00	 call	 ?AfxGetDataManager2@@YAPAVIDataManager@@XZ ; AfxGetDataManager2
  00594	89 85 68 ff ff
	ff		 mov	 DWORD PTR tv163[ebp], eax
  0059a	68 00 00 00 00	 push	 OFFSET FLAT:_ID_DATA_LOCALGAME
  0059f	8b 85 68 ff ff
	ff		 mov	 eax, DWORD PTR tv163[ebp]
  005a5	8b 10		 mov	 edx, DWORD PTR [eax]
  005a7	8b 8d 68 ff ff
	ff		 mov	 ecx, DWORD PTR tv163[ebp]
  005ad	ff 52 0c	 call	 DWORD PTR [edx+12]
  005b0	89 85 64 ff ff
	ff		 mov	 DWORD PTR tv169[ebp], eax
  005b6	8b 85 64 ff ff
	ff		 mov	 eax, DWORD PTR tv169[ebp]
  005bc	8b 10		 mov	 edx, DWORD PTR [eax]
  005be	c6 45 fc 02	 mov	 BYTE PTR __$EHRec$[ebp+8], 2
  005c2	8b 8d 64 ff ff
	ff		 mov	 ecx, DWORD PTR tv169[ebp]
  005c8	ff 52 14	 call	 DWORD PTR [edx+20]

; 111  : 			}

  005cb	e9 68 ff ff ff	 jmp	 $L203033
$L203034:

; 112  : 
; 113  : 			rv.clear ();

  005d0	8d 4d cc	 lea	 ecx, DWORD PTR _rv$202906[ebp]
  005d3	e8 00 00 00 00	 call	 ?clear@?$vector@V?$basic_string@DU?$char_traits@D@std@@V?$allocator@D@2@@std@@V?$allocator@V?$basic_string@DU?$char_traits@D@std@@V?$allocator@D@2@@std@@@2@@std@@QAEXXZ ; std::vector<std::basic_string<char,std::char_traits<char>,std::allocator<char> >,std::allocator<std::basic_string<char,std::char_traits<char>,std::allocator<char> > > >::clear

; 114  : 
; 115  : 			UpdateList();

  005d8	8b 4d 80	 mov	 ecx, DWORD PTR _this$[ebp]
  005db	e8 00 00 00 00	 call	 ?UpdateList@CLocalMusicCoverList@@IAEXXZ ; CLocalMusicCoverList::UpdateList

; 116  : 			OnMemoryDraw();

  005e0	6a 01		 push	 1
  005e2	8b 4d 80	 mov	 ecx, DWORD PTR _this$[ebp]
  005e5	e8 00 00 00 00	 call	 ?OnMemoryDraw@CLocalMusicCoverList@@IAEXH@Z ; CLocalMusicCoverList::OnMemoryDraw

; 117  : 		}

  005ea	c6 45 fc 00	 mov	 BYTE PTR __$EHRec$[ebp+8], 0
  005ee	8d 4d cc	 lea	 ecx, DWORD PTR _rv$202906[ebp]
  005f1	e8 00 00 00 00	 call	 ??1?$vector@V?$basic_string@DU?$char_traits@D@std@@V?$allocator@D@2@@std@@V?$allocator@V?$basic_string@DU?$char_traits@D@std@@V?$allocator@D@2@@std@@@2@@std@@QAE@XZ ; std::vector<std::basic_string<char,std::char_traits<char>,std::allocator<char> >,std::allocator<std::basic_string<char,std::char_traits<char>,std::allocator<char> > > >::~vector<std::basic_string<char,std::char_traits<char>,std::allocator<char> >,std::allocator<std::basic_string<char,std::char_traits<char>,std::allocator<char> > > >
  005f6	c7 45 fc ff ff
	ff ff		 mov	 DWORD PTR __$EHRec$[ebp+8], -1
  005fd	8d 4d dc	 lea	 ecx, DWORD PTR _vAlbum$202711[ebp]
  00600	e8 00 00 00 00	 call	 ??1?$vector@HV?$allocator@H@std@@@std@@QAE@XZ ; std::vector<int,std::allocator<int> >::~vector<int,std::allocator<int> >
$L202457:

; 118  : 		break;
; 119  : 	default:
; 120  : 		break;
; 121  : 	}
; 122  : 	return __super::OnCommand(wParam, lParam);

  00605	8b 45 0c	 mov	 eax, DWORD PTR _lParam$[ebp]
  00608	50		 push	 eax
  00609	8b 4d 08	 mov	 ecx, DWORD PTR _wParam$[ebp]
  0060c	51		 push	 ecx
  0060d	8b 4d 80	 mov	 ecx, DWORD PTR _this$[ebp]
  00610	e8 00 00 00 00	 call	 ?OnCommand@CWnd@@MAEHIJ@Z ; CWnd::OnCommand

; 123  : }

  00615	8b 4d f4	 mov	 ecx, DWORD PTR __$EHRec$[ebp]
  00618	64 89 0d 00 00
	00 00		 mov	 DWORD PTR fs:__except_list, ecx
  0061f	8b 4d c0	 mov	 ecx, DWORD PTR __$ArrayPad$[ebp]
  00622	e8 00 00 00 00	 call	 @__security_check_cookie@4
  00627	8b e5		 mov	 esp, ebp
  00629	5d		 pop	 ebp
  0062a	c2 08 00	 ret	 8
$L205687:
  0062d	00 00 00 00	 DD	 $L202460
  00631	00 00 00 00	 DD	 $L202457
  00635	00 00 00 00	 DD	 $L202461
  00639	00 00 00 00	 DD	 $L202457
  0063d	00 00 00 00	 DD	 $L202462
  00641	00 00 00 00	 DD	 $L202457
  00645	00 00 00 00	 DD	 $L202463
_TEXT	ENDS
text$x	SEGMENT
$L205678:
  000c8	8d 4d dc	 lea	 ecx, DWORD PTR _vAlbum$202711[ebp]
  000cb	e9 00 00 00 00	 jmp	 ??1?$vector@HV?$allocator@H@std@@@std@@QAE@XZ ; std::vector<int,std::allocator<int> >::~vector<int,std::allocator<int> >
$L205679:
  000d0	8d 4d 90	 lea	 ecx, DWORD PTR $T205674[ebp]
  000d3	e9 00 00 00 00	 jmp	 ??1?$vector@HV?$allocator@H@std@@@std@@QAE@XZ ; std::vector<int,std::allocator<int> >::~vector<int,std::allocator<int> >
$L205680:
  000d8	8d 4d cc	 lea	 ecx, DWORD PTR _rv$202906[ebp]
  000db	e9 00 00 00 00	 jmp	 ??1?$vector@V?$basic_string@DU?$char_traits@D@std@@V?$allocator@D@2@@std@@V?$allocator@V?$basic_string@DU?$char_traits@D@std@@V?$allocator@D@2@@std@@@2@@std@@QAE@XZ ; std::vector<std::basic_string<char,std::char_traits<char>,std::allocator<char> >,std::allocator<std::basic_string<char,std::char_traits<char>,std::allocator<char> > > >::~vector<std::basic_string<char,std::char_traits<char>,std::allocator<char> >,std::allocator<std::basic_string<char,std::char_traits<char>,std::allocator<char> > > >
$L205681:
  000e0	8d 4d a4	 lea	 ecx, DWORD PTR _strGID$202911[ebp]
  000e3	ff 25 00 00 00
	00		 jmp	 DWORD PTR __imp_??1?$basic_string@DU?$char_traits@D@std@@V?$allocator@D@2@@std@@QAE@XZ
$L205682:
  000e9	8b 4d 84	 mov	 ecx, DWORD PTR $T205677[ebp]
  000ec	ff 25 00 00 00
	00		 jmp	 DWORD PTR __imp_??1?$basic_string@DU?$char_traits@D@std@@V?$allocator@D@2@@std@@QAE@XZ
__ehhandler$?OnCommand@PlayedGameWnd@@MAEHIJ@Z:
  000f2	b8 00 00 00 00	 mov	 eax, OFFSET FLAT:$T205684
  000f7	e9 00 00 00 00	 jmp	 ___CxxFrameHandler
text$x	ENDS
?OnCommand@PlayedGameWnd@@MAEHIJ@Z ENDP			; PlayedGameWnd::OnCommand
PUBLIC	??1_tagLMCItemInfo@@QAE@XZ			; _tagLMCItemInfo::~_tagLMCItemInfo
PUBLIC	??0_tagLMCItemInfo@@QAE@ABU0@@Z			; _tagLMCItemInfo::_tagLMCItemInfo
PUBLIC	??$?HDU?$char_traits@D@std@@V?$allocator@D@1@@std@@YA?AV?$basic_string@DU?$char_traits@D@std@@V?$allocator@D@2@@0@ABV10@0@Z ; std::operator+<char,std::char_traits<char>,std::allocator<char> >
PUBLIC	??$?HDU?$char_traits@D@std@@V?$allocator@D@1@@std@@YA?AV?$basic_string@DU?$char_traits@D@std@@V?$allocator@D@2@@0@ABV10@PBD@Z ; std::operator+<char,std::char_traits<char>,std::allocator<char> >
PUBLIC	?OnLButtonDblClk@CWnd@@IAEXIVCPoint@@@Z		; CWnd::OnLButtonDblClk
PUBLIC	??0TAB_ITEM@@QAE@XZ				; TAB_ITEM::TAB_ITEM
PUBLIC	??1TAB_ITEM@@QAE@XZ				; TAB_ITEM::~TAB_ITEM
EXTRN	__imp_??B?$CSimpleStringT@D$00@ATL@@QBEPBDXZ:NEAR
EXTRN	__imp_??4?$basic_string@DU?$char_traits@D@std@@V?$allocator@D@2@@std@@QAEAAV01@ABV01@@Z:NEAR
xdata$x	SEGMENT
$T205715 DD	0ffffffffH
	DD	FLAT:$L205700
	DD	00H
	DD	FLAT:$L205701
	DD	01H
	DD	FLAT:$L205702
	DD	02H
	DD	FLAT:$L205703
	DD	02H
	DD	FLAT:$L205704
	DD	04H
	DD	FLAT:$L205705
	DD	05H
	DD	FLAT:$L205706
	DD	06H
	DD	FLAT:$L205707
	DD	07H
	DD	FLAT:$L205708
	DD	08H
	DD	FLAT:$L205709
	DD	09H
	DD	FLAT:$L205710
$T205712 DD	019930520H
	DD	0bH
	DD	FLAT:$T205715
	DD	2 DUP(00H)
	DD	2 DUP(00H)
; Function compile flags: /Odt
xdata$x	ENDS
_TEXT	SEGMENT
tv178 = -464						; size = 4
tv172 = -460						; size = 4
tv203 = -456						; size = 4
tv208 = -452						; size = 4
tv201 = -448						; size = 4
tv207 = -444						; size = 4
tv199 = -440						; size = 4
tv206 = -436						; size = 4
tv197 = -432						; size = 4
tv205 = -428						; size = 4
tv195 = -424						; size = 4
tv204 = -420						; size = 4
tv193 = -416						; size = 4
tv65 = -412						; size = 4
tv191 = -408						; size = 4
tv72 = -404						; size = 4
tv189 = -400						; size = 4
tv84 = -396						; size = 4
_this$ = -392						; size = 4
$T205699 = -388						; size = 28
$T205698 = -360						; size = 28
$T205697 = -332						; size = 28
$T205696 = -304						; size = 28
$T205695 = -276						; size = 28
$T205694 = -248						; size = 28
$T205693 = -220						; size = 28
$T205692 = -192						; size = 28
_ii$203047 = -164					; size = 68
_tItem$203048 = -92					; size = 60
__$ArrayPad$ = -32					; size = 4
_vSel$ = -28						; size = 16
__$EHRec$ = -12						; size = 12
__$ReturnAddr$ = 4					; size = 4
_nFlags$ = 8						; size = 4
_point$ = 12						; size = 8
?OnLButtonDblClk@PlayedGameWnd@@IAEXIVCPoint@@@Z PROC NEAR ; PlayedGameWnd::OnLButtonDblClk
; _this$ = ecx

; 126  : {

  00650	55		 push	 ebp
  00651	8b ec		 mov	 ebp, esp
  00653	6a ff		 push	 -1
  00655	68 00 00 00 00	 push	 __ehhandler$?OnLButtonDblClk@PlayedGameWnd@@IAEXIVCPoint@@@Z
  0065a	64 a1 00 00 00
	00		 mov	 eax, DWORD PTR fs:__except_list
  00660	50		 push	 eax
  00661	64 89 25 00 00
	00 00		 mov	 DWORD PTR fs:__except_list, esp
  00668	81 ec c4 01 00
	00		 sub	 esp, 452		; 000001c4H
  0066e	a1 00 00 00 00	 mov	 eax, DWORD PTR ___security_cookie
  00673	89 45 e0	 mov	 DWORD PTR __$ArrayPad$[ebp], eax
  00676	89 8d 78 fe ff
	ff		 mov	 DWORD PTR _this$[ebp], ecx

; 127  : 	vector<int> vSel = GetSelectItem();

  0067c	8d 45 e4	 lea	 eax, DWORD PTR _vSel$[ebp]
  0067f	50		 push	 eax
  00680	8b 8d 78 fe ff
	ff		 mov	 ecx, DWORD PTR _this$[ebp]
  00686	e8 00 00 00 00	 call	 ?GetSelectItem@CLocalMusicCoverList@@QAE?AV?$vector@HV?$allocator@H@std@@@std@@XZ ; CLocalMusicCoverList::GetSelectItem
  0068b	c7 45 fc 00 00
	00 00		 mov	 DWORD PTR __$EHRec$[ebp+8], 0

; 128  : 	if ( vSel.size() > 0 )

  00692	8d 4d e4	 lea	 ecx, DWORD PTR _vSel$[ebp]
  00695	e8 00 00 00 00	 call	 ?size@?$vector@HV?$allocator@H@std@@@std@@QBEIXZ ; std::vector<int,std::allocator<int> >::size
  0069a	85 c0		 test	 eax, eax
  0069c	0f 86 b2 02 00
	00		 jbe	 $L203046

; 129  : 	{
; 130  : 		LMC_ItemInfo ii = m_DataMgr.m_vItem[vSel[0]];

  006a2	6a 00		 push	 0
  006a4	8d 4d e4	 lea	 ecx, DWORD PTR _vSel$[ebp]
  006a7	e8 00 00 00 00	 call	 ??A?$vector@HV?$allocator@H@std@@@std@@QAEAAHI@Z ; std::vector<int,std::allocator<int> >::operator[]
  006ac	8b 08		 mov	 ecx, DWORD PTR [eax]
  006ae	51		 push	 ecx
  006af	8b 8d 78 fe ff
	ff		 mov	 ecx, DWORD PTR _this$[ebp]
  006b5	81 c1 68 01 00
	00		 add	 ecx, 360		; 00000168H
  006bb	e8 00 00 00 00	 call	 ??A?$vector@U_tagLMCItemInfo@@V?$allocator@U_tagLMCItemInfo@@@std@@@std@@QAEAAU_tagLMCItemInfo@@I@Z ; std::vector<_tagLMCItemInfo,std::allocator<_tagLMCItemInfo> >::operator[]
  006c0	50		 push	 eax
  006c1	8d 8d 5c ff ff
	ff		 lea	 ecx, DWORD PTR _ii$203047[ebp]
  006c7	e8 00 00 00 00	 call	 ??0_tagLMCItemInfo@@QAE@ABU0@@Z
  006cc	c6 45 fc 01	 mov	 BYTE PTR __$EHRec$[ebp+8], 1

; 131  : 
; 132  : 		TAB_ITEM tItem;

  006d0	8d 4d a4	 lea	 ecx, DWORD PTR _tItem$203048[ebp]
  006d3	e8 00 00 00 00	 call	 ??0TAB_ITEM@@QAE@XZ
  006d8	c6 45 fc 02	 mov	 BYTE PTR __$EHRec$[ebp+8], 2

; 133  : 		tItem.eumType = TAB_GAME;

  006dc	c7 45 c0 03 00
	00 00		 mov	 DWORD PTR _tItem$203048[ebp+28], 3

; 134  : 		tItem.strName = string(ii.strItemName);

  006e3	8d 4d 84	 lea	 ecx, DWORD PTR _ii$203047[ebp+40]
  006e6	ff 15 00 00 00
	00		 call	 DWORD PTR __imp_??B?$CSimpleStringT@D$00@ATL@@QBEPBDXZ
  006ec	50		 push	 eax
  006ed	8d 8d 40 ff ff
	ff		 lea	 ecx, DWORD PTR $T205692[ebp]
  006f3	ff 15 00 00 00
	00		 call	 DWORD PTR __imp_??0?$basic_string@DU?$char_traits@D@std@@V?$allocator@D@2@@std@@QAE@PBD@Z
  006f9	89 85 74 fe ff
	ff		 mov	 DWORD PTR tv84[ebp], eax
  006ff	8b 95 74 fe ff
	ff		 mov	 edx, DWORD PTR tv84[ebp]
  00705	89 95 70 fe ff
	ff		 mov	 DWORD PTR tv189[ebp], edx
  0070b	c6 45 fc 03	 mov	 BYTE PTR __$EHRec$[ebp+8], 3
  0070f	8b 85 70 fe ff
	ff		 mov	 eax, DWORD PTR tv189[ebp]
  00715	50		 push	 eax
  00716	8d 4d a4	 lea	 ecx, DWORD PTR _tItem$203048[ebp]
  00719	ff 15 00 00 00
	00		 call	 DWORD PTR __imp_??4?$basic_string@DU?$char_traits@D@std@@V?$allocator@D@2@@std@@QAEAAV01@ABV01@@Z
  0071f	c6 45 fc 02	 mov	 BYTE PTR __$EHRec$[ebp+8], 2
  00723	8d 8d 40 ff ff
	ff		 lea	 ecx, DWORD PTR $T205692[ebp]
  00729	ff 15 00 00 00
	00		 call	 DWORD PTR __imp_??1?$basic_string@DU?$char_traits@D@std@@V?$allocator@D@2@@std@@QAE@XZ

; 135  : 		tItem.strParam = string("method=playswfgame\n\n") + "id=" + ii.strGID + "\n"
; 136  : 			+ "name=" + tItem.strName + "\n";

  0072f	68 00 00 00 00	 push	 OFFSET FLAT:$SG203061
  00734	8d 8d 24 ff ff
	ff		 lea	 ecx, DWORD PTR $T205693[ebp]
  0073a	ff 15 00 00 00
	00		 call	 DWORD PTR __imp_??0?$basic_string@DU?$char_traits@D@std@@V?$allocator@D@2@@std@@QAE@PBD@Z
  00740	89 85 6c fe ff
	ff		 mov	 DWORD PTR tv72[ebp], eax
  00746	8b 8d 6c fe ff
	ff		 mov	 ecx, DWORD PTR tv72[ebp]
  0074c	89 8d 68 fe ff
	ff		 mov	 DWORD PTR tv191[ebp], ecx
  00752	c6 45 fc 04	 mov	 BYTE PTR __$EHRec$[ebp+8], 4
  00756	68 00 00 00 00	 push	 OFFSET FLAT:$SG203060
  0075b	8b 95 68 fe ff
	ff		 mov	 edx, DWORD PTR tv191[ebp]
  00761	52		 push	 edx
  00762	8d 85 08 ff ff
	ff		 lea	 eax, DWORD PTR $T205694[ebp]
  00768	50		 push	 eax
  00769	e8 00 00 00 00	 call	 ??$?HDU?$char_traits@D@std@@V?$allocator@D@1@@std@@YA?AV?$basic_string@DU?$char_traits@D@std@@V?$allocator@D@2@@0@ABV10@PBD@Z ; std::operator+<char,std::char_traits<char>,std::allocator<char> >
  0076e	83 c4 0c	 add	 esp, 12			; 0000000cH
  00771	89 85 64 fe ff
	ff		 mov	 DWORD PTR tv65[ebp], eax
  00777	8b 8d 64 fe ff
	ff		 mov	 ecx, DWORD PTR tv65[ebp]
  0077d	89 8d 60 fe ff
	ff		 mov	 DWORD PTR tv193[ebp], ecx
  00783	c6 45 fc 05	 mov	 BYTE PTR __$EHRec$[ebp+8], 5
  00787	8d 95 5c ff ff
	ff		 lea	 edx, DWORD PTR _ii$203047[ebp]
  0078d	52		 push	 edx
  0078e	8b 85 60 fe ff
	ff		 mov	 eax, DWORD PTR tv193[ebp]
  00794	50		 push	 eax
  00795	8d 8d ec fe ff
	ff		 lea	 ecx, DWORD PTR $T205695[ebp]
  0079b	51		 push	 ecx
  0079c	e8 00 00 00 00	 call	 ??$?HDU?$char_traits@D@std@@V?$allocator@D@1@@std@@YA?AV?$basic_string@DU?$char_traits@D@std@@V?$allocator@D@2@@0@ABV10@0@Z ; std::operator+<char,std::char_traits<char>,std::allocator<char> >
  007a1	83 c4 0c	 add	 esp, 12			; 0000000cH
  007a4	89 85 5c fe ff
	ff		 mov	 DWORD PTR tv204[ebp], eax
  007aa	8b 95 5c fe ff
	ff		 mov	 edx, DWORD PTR tv204[ebp]
  007b0	89 95 58 fe ff
	ff		 mov	 DWORD PTR tv195[ebp], edx
  007b6	c6 45 fc 06	 mov	 BYTE PTR __$EHRec$[ebp+8], 6
  007ba	68 00 00 00 00	 push	 OFFSET FLAT:$SG203059
  007bf	8b 85 58 fe ff
	ff		 mov	 eax, DWORD PTR tv195[ebp]
  007c5	50		 push	 eax
  007c6	8d 8d d0 fe ff
	ff		 lea	 ecx, DWORD PTR $T205696[ebp]
  007cc	51		 push	 ecx
  007cd	e8 00 00 00 00	 call	 ??$?HDU?$char_traits@D@std@@V?$allocator@D@1@@std@@YA?AV?$basic_string@DU?$char_traits@D@std@@V?$allocator@D@2@@0@ABV10@PBD@Z ; std::operator+<char,std::char_traits<char>,std::allocator<char> >
  007d2	83 c4 0c	 add	 esp, 12			; 0000000cH
  007d5	89 85 54 fe ff
	ff		 mov	 DWORD PTR tv205[ebp], eax
  007db	8b 95 54 fe ff
	ff		 mov	 edx, DWORD PTR tv205[ebp]
  007e1	89 95 50 fe ff
	ff		 mov	 DWORD PTR tv197[ebp], edx
  007e7	c6 45 fc 07	 mov	 BYTE PTR __$EHRec$[ebp+8], 7
  007eb	68 00 00 00 00	 push	 OFFSET FLAT:$SG203058
  007f0	8b 85 50 fe ff
	ff		 mov	 eax, DWORD PTR tv197[ebp]
  007f6	50		 push	 eax
  007f7	8d 8d b4 fe ff
	ff		 lea	 ecx, DWORD PTR $T205697[ebp]
  007fd	51		 push	 ecx
  007fe	e8 00 00 00 00	 call	 ??$?HDU?$char_traits@D@std@@V?$allocator@D@1@@std@@YA?AV?$basic_string@DU?$char_traits@D@std@@V?$allocator@D@2@@0@ABV10@PBD@Z ; std::operator+<char,std::char_traits<char>,std::allocator<char> >
  00803	83 c4 0c	 add	 esp, 12			; 0000000cH
  00806	89 85 4c fe ff
	ff		 mov	 DWORD PTR tv206[ebp], eax
  0080c	8b 95 4c fe ff
	ff		 mov	 edx, DWORD PTR tv206[ebp]
  00812	89 95 48 fe ff
	ff		 mov	 DWORD PTR tv199[ebp], edx
  00818	c6 45 fc 08	 mov	 BYTE PTR __$EHRec$[ebp+8], 8
  0081c	8d 45 a4	 lea	 eax, DWORD PTR _tItem$203048[ebp]
  0081f	50		 push	 eax
  00820	8b 8d 48 fe ff
	ff		 mov	 ecx, DWORD PTR tv199[ebp]
  00826	51		 push	 ecx
  00827	8d 95 98 fe ff
	ff		 lea	 edx, DWORD PTR $T205698[ebp]
  0082d	52		 push	 edx
  0082e	e8 00 00 00 00	 call	 ??$?HDU?$char_traits@D@std@@V?$allocator@D@1@@std@@YA?AV?$basic_string@DU?$char_traits@D@std@@V?$allocator@D@2@@0@ABV10@0@Z ; std::operator+<char,std::char_traits<char>,std::allocator<char> >
  00833	83 c4 0c	 add	 esp, 12			; 0000000cH
  00836	89 85 44 fe ff
	ff		 mov	 DWORD PTR tv207[ebp], eax
  0083c	8b 85 44 fe ff
	ff		 mov	 eax, DWORD PTR tv207[ebp]
  00842	89 85 40 fe ff
	ff		 mov	 DWORD PTR tv201[ebp], eax
  00848	c6 45 fc 09	 mov	 BYTE PTR __$EHRec$[ebp+8], 9
  0084c	68 00 00 00 00	 push	 OFFSET FLAT:$SG203057
  00851	8b 8d 40 fe ff
	ff		 mov	 ecx, DWORD PTR tv201[ebp]
  00857	51		 push	 ecx
  00858	8d 95 7c fe ff
	ff		 lea	 edx, DWORD PTR $T205699[ebp]
  0085e	52		 push	 edx
  0085f	e8 00 00 00 00	 call	 ??$?HDU?$char_traits@D@std@@V?$allocator@D@1@@std@@YA?AV?$basic_string@DU?$char_traits@D@std@@V?$allocator@D@2@@0@ABV10@PBD@Z ; std::operator+<char,std::char_traits<char>,std::allocator<char> >
  00864	83 c4 0c	 add	 esp, 12			; 0000000cH
  00867	89 85 3c fe ff
	ff		 mov	 DWORD PTR tv208[ebp], eax
  0086d	8b 85 3c fe ff
	ff		 mov	 eax, DWORD PTR tv208[ebp]
  00873	89 85 38 fe ff
	ff		 mov	 DWORD PTR tv203[ebp], eax
  00879	c6 45 fc 0a	 mov	 BYTE PTR __$EHRec$[ebp+8], 10 ; 0000000aH
  0087d	8b 8d 38 fe ff
	ff		 mov	 ecx, DWORD PTR tv203[ebp]
  00883	51		 push	 ecx
  00884	8d 4d c4	 lea	 ecx, DWORD PTR _tItem$203048[ebp+32]
  00887	ff 15 00 00 00
	00		 call	 DWORD PTR __imp_??4?$basic_string@DU?$char_traits@D@std@@V?$allocator@D@2@@std@@QAEAAV01@ABV01@@Z
  0088d	c6 45 fc 09	 mov	 BYTE PTR __$EHRec$[ebp+8], 9
  00891	8d 8d 7c fe ff
	ff		 lea	 ecx, DWORD PTR $T205699[ebp]
  00897	ff 15 00 00 00
	00		 call	 DWORD PTR __imp_??1?$basic_string@DU?$char_traits@D@std@@V?$allocator@D@2@@std@@QAE@XZ
  0089d	c6 45 fc 08	 mov	 BYTE PTR __$EHRec$[ebp+8], 8
  008a1	8d 8d 98 fe ff
	ff		 lea	 ecx, DWORD PTR $T205698[ebp]
  008a7	ff 15 00 00 00
	00		 call	 DWORD PTR __imp_??1?$basic_string@DU?$char_traits@D@std@@V?$allocator@D@2@@std@@QAE@XZ
  008ad	c6 45 fc 07	 mov	 BYTE PTR __$EHRec$[ebp+8], 7
  008b1	8d 8d b4 fe ff
	ff		 lea	 ecx, DWORD PTR $T205697[ebp]
  008b7	ff 15 00 00 00
	00		 call	 DWORD PTR __imp_??1?$basic_string@DU?$char_traits@D@std@@V?$allocator@D@2@@std@@QAE@XZ
  008bd	c6 45 fc 06	 mov	 BYTE PTR __$EHRec$[ebp+8], 6
  008c1	8d 8d d0 fe ff
	ff		 lea	 ecx, DWORD PTR $T205696[ebp]
  008c7	ff 15 00 00 00
	00		 call	 DWORD PTR __imp_??1?$basic_string@DU?$char_traits@D@std@@V?$allocator@D@2@@std@@QAE@XZ
  008cd	c6 45 fc 05	 mov	 BYTE PTR __$EHRec$[ebp+8], 5
  008d1	8d 8d ec fe ff
	ff		 lea	 ecx, DWORD PTR $T205695[ebp]
  008d7	ff 15 00 00 00
	00		 call	 DWORD PTR __imp_??1?$basic_string@DU?$char_traits@D@std@@V?$allocator@D@2@@std@@QAE@XZ
  008dd	c6 45 fc 04	 mov	 BYTE PTR __$EHRec$[ebp+8], 4
  008e1	8d 8d 08 ff ff
	ff		 lea	 ecx, DWORD PTR $T205694[ebp]
  008e7	ff 15 00 00 00
	00		 call	 DWORD PTR __imp_??1?$basic_string@DU?$char_traits@D@std@@V?$allocator@D@2@@std@@QAE@XZ
  008ed	c6 45 fc 02	 mov	 BYTE PTR __$EHRec$[ebp+8], 2
  008f1	8d 8d 24 ff ff
	ff		 lea	 ecx, DWORD PTR $T205693[ebp]
  008f7	ff 15 00 00 00
	00		 call	 DWORD PTR __imp_??1?$basic_string@DU?$char_traits@D@std@@V?$allocator@D@2@@std@@QAE@XZ

; 137  : 
; 138  : 		GLOBAL_TABBARDATA->ITabBar_ChangeTab(tItem);

  008fd	e8 00 00 00 00	 call	 ?AfxGetDataManager2@@YAPAVIDataManager@@XZ ; AfxGetDataManager2
  00902	89 85 34 fe ff
	ff		 mov	 DWORD PTR tv172[ebp], eax
  00908	68 00 00 00 00	 push	 OFFSET FLAT:_ID_DATA_TABBAR
  0090d	8b 95 34 fe ff
	ff		 mov	 edx, DWORD PTR tv172[ebp]
  00913	8b 02		 mov	 eax, DWORD PTR [edx]
  00915	8b 8d 34 fe ff
	ff		 mov	 ecx, DWORD PTR tv172[ebp]
  0091b	ff 50 0c	 call	 DWORD PTR [eax+12]
  0091e	89 85 30 fe ff
	ff		 mov	 DWORD PTR tv178[ebp], eax
  00924	8d 4d a4	 lea	 ecx, DWORD PTR _tItem$203048[ebp]
  00927	51		 push	 ecx
  00928	8b 95 30 fe ff
	ff		 mov	 edx, DWORD PTR tv178[ebp]
  0092e	8b 02		 mov	 eax, DWORD PTR [edx]
  00930	8b 8d 30 fe ff
	ff		 mov	 ecx, DWORD PTR tv178[ebp]
  00936	ff 50 0c	 call	 DWORD PTR [eax+12]

; 139  : 
; 140  : 		//OnMemoryDraw ();
; 141  : 	}

  00939	c6 45 fc 01	 mov	 BYTE PTR __$EHRec$[ebp+8], 1
  0093d	8d 4d a4	 lea	 ecx, DWORD PTR _tItem$203048[ebp]
  00940	e8 00 00 00 00	 call	 ??1TAB_ITEM@@QAE@XZ
  00945	c6 45 fc 00	 mov	 BYTE PTR __$EHRec$[ebp+8], 0
  00949	8d 8d 5c ff ff
	ff		 lea	 ecx, DWORD PTR _ii$203047[ebp]
  0094f	e8 00 00 00 00	 call	 ??1_tagLMCItemInfo@@QAE@XZ
$L203046:

; 142  : 
; 143  : 	__super::OnLButtonDblClk(nFlags, point);

  00954	8b 4d 10	 mov	 ecx, DWORD PTR _point$[ebp+4]
  00957	51		 push	 ecx
  00958	8b 55 0c	 mov	 edx, DWORD PTR _point$[ebp]
  0095b	52		 push	 edx
  0095c	8b 45 08	 mov	 eax, DWORD PTR _nFlags$[ebp]
  0095f	50		 push	 eax
  00960	8b 8d 78 fe ff
	ff		 mov	 ecx, DWORD PTR _this$[ebp]
  00966	e8 00 00 00 00	 call	 ?OnLButtonDblClk@CWnd@@IAEXIVCPoint@@@Z ; CWnd::OnLButtonDblClk

; 144  : }

  0096b	c7 45 fc ff ff
	ff ff		 mov	 DWORD PTR __$EHRec$[ebp+8], -1
  00972	8d 4d e4	 lea	 ecx, DWORD PTR _vSel$[ebp]
  00975	e8 00 00 00 00	 call	 ??1?$vector@HV?$allocator@H@std@@@std@@QAE@XZ ; std::vector<int,std::allocator<int> >::~vector<int,std::allocator<int> >
  0097a	8b 4d f4	 mov	 ecx, DWORD PTR __$EHRec$[ebp]
  0097d	64 89 0d 00 00
	00 00		 mov	 DWORD PTR fs:__except_list, ecx
  00984	8b 4d e0	 mov	 ecx, DWORD PTR __$ArrayPad$[ebp]
  00987	e8 00 00 00 00	 call	 @__security_check_cookie@4
  0098c	8b e5		 mov	 esp, ebp
  0098e	5d		 pop	 ebp
  0098f	c2 0c 00	 ret	 12			; 0000000cH
_TEXT	ENDS
text$x	SEGMENT
$L205700:
  000fc	8d 4d e4	 lea	 ecx, DWORD PTR _vSel$[ebp]
  000ff	e9 00 00 00 00	 jmp	 ??1?$vector@HV?$allocator@H@std@@@std@@QAE@XZ ; std::vector<int,std::allocator<int> >::~vector<int,std::allocator<int> >
$L205701:
  00104	8d 8d 5c ff ff
	ff		 lea	 ecx, DWORD PTR _ii$203047[ebp]
  0010a	e9 00 00 00 00	 jmp	 ??1_tagLMCItemInfo@@QAE@XZ
$L205702:
  0010f	8d 4d a4	 lea	 ecx, DWORD PTR _tItem$203048[ebp]
  00112	e9 00 00 00 00	 jmp	 ??1TAB_ITEM@@QAE@XZ
$L205703:
  00117	8d 8d 40 ff ff
	ff		 lea	 ecx, DWORD PTR $T205692[ebp]
  0011d	ff 25 00 00 00
	00		 jmp	 DWORD PTR __imp_??1?$basic_string@DU?$char_traits@D@std@@V?$allocator@D@2@@std@@QAE@XZ
$L205704:
  00123	8d 8d 24 ff ff
	ff		 lea	 ecx, DWORD PTR $T205693[ebp]
  00129	ff 25 00 00 00
	00		 jmp	 DWORD PTR __imp_??1?$basic_string@DU?$char_traits@D@std@@V?$allocator@D@2@@std@@QAE@XZ
$L205705:
  0012f	8d 8d 08 ff ff
	ff		 lea	 ecx, DWORD PTR $T205694[ebp]
  00135	ff 25 00 00 00
	00		 jmp	 DWORD PTR __imp_??1?$basic_string@DU?$char_traits@D@std@@V?$allocator@D@2@@std@@QAE@XZ
$L205706:
  0013b	8d 8d ec fe ff
	ff		 lea	 ecx, DWORD PTR $T205695[ebp]
  00141	ff 25 00 00 00
	00		 jmp	 DWORD PTR __imp_??1?$basic_string@DU?$char_traits@D@std@@V?$allocator@D@2@@std@@QAE@XZ
$L205707:
  00147	8d 8d d0 fe ff
	ff		 lea	 ecx, DWORD PTR $T205696[ebp]
  0014d	ff 25 00 00 00
	00		 jmp	 DWORD PTR __imp_??1?$basic_string@DU?$char_traits@D@std@@V?$allocator@D@2@@std@@QAE@XZ
$L205708:
  00153	8d 8d b4 fe ff
	ff		 lea	 ecx, DWORD PTR $T205697[ebp]
  00159	ff 25 00 00 00
	00		 jmp	 DWORD PTR __imp_??1?$basic_string@DU?$char_traits@D@std@@V?$allocator@D@2@@std@@QAE@XZ
$L205709:
  0015f	8d 8d 98 fe ff
	ff		 lea	 ecx, DWORD PTR $T205698[ebp]
  00165	ff 25 00 00 00
	00		 jmp	 DWORD PTR __imp_??1?$basic_string@DU?$char_traits@D@std@@V?$allocator@D@2@@std@@QAE@XZ
$L205710:
  0016b	8d 8d 7c fe ff
	ff		 lea	 ecx, DWORD PTR $T205699[ebp]
  00171	ff 25 00 00 00
	00		 jmp	 DWORD PTR __imp_??1?$basic_string@DU?$char_traits@D@std@@V?$allocator@D@2@@std@@QAE@XZ
__ehhandler$?OnLButtonDblClk@PlayedGameWnd@@IAEXIVCPoint@@@Z:
  00177	b8 00 00 00 00	 mov	 eax, OFFSET FLAT:$T205712
  0017c	e9 00 00 00 00	 jmp	 ___CxxFrameHandler
text$x	ENDS
?OnLButtonDblClk@PlayedGameWnd@@IAEXIVCPoint@@@Z ENDP	; PlayedGameWnd::OnLButtonDblClk
EXTRN	__imp_??1?$CStringT@DV?$StrTraitMFC_DLL@DV?$ChTraitsCRT@D@ATL@@@@@ATL@@QAE@XZ:NEAR
; Function compile flags: /Odt
;	COMDAT ??1_tagLMCItemInfo@@QAE@XZ
_TEXT	SEGMENT
_this$ = -4						; size = 4
??1_tagLMCItemInfo@@QAE@XZ PROC NEAR			; _tagLMCItemInfo::~_tagLMCItemInfo, COMDAT
; _this$ = ecx
  00000	55		 push	 ebp
  00001	8b ec		 mov	 ebp, esp
  00003	51		 push	 ecx
  00004	89 4d fc	 mov	 DWORD PTR _this$[ebp], ecx
  00007	8b 4d fc	 mov	 ecx, DWORD PTR _this$[ebp]
  0000a	83 c1 30	 add	 ecx, 48			; 00000030H
  0000d	ff 15 00 00 00
	00		 call	 DWORD PTR __imp_??1?$CStringT@DV?$StrTraitMFC_DLL@DV?$ChTraitsCRT@D@ATL@@@@@ATL@@QAE@XZ
  00013	8b 4d fc	 mov	 ecx, DWORD PTR _this$[ebp]
  00016	83 c1 2c	 add	 ecx, 44			; 0000002cH
  00019	ff 15 00 00 00
	00		 call	 DWORD PTR __imp_??1?$CStringT@DV?$StrTraitMFC_DLL@DV?$ChTraitsCRT@D@ATL@@@@@ATL@@QAE@XZ
  0001f	8b 4d fc	 mov	 ecx, DWORD PTR _this$[ebp]
  00022	83 c1 28	 add	 ecx, 40			; 00000028H
  00025	ff 15 00 00 00
	00		 call	 DWORD PTR __imp_??1?$CStringT@DV?$StrTraitMFC_DLL@DV?$ChTraitsCRT@D@ATL@@@@@ATL@@QAE@XZ
  0002b	8b 4d fc	 mov	 ecx, DWORD PTR _this$[ebp]
  0002e	ff 15 00 00 00
	00		 call	 DWORD PTR __imp_??1?$basic_string@DU?$char_traits@D@std@@V?$allocator@D@2@@std@@QAE@XZ
  00034	8b e5		 mov	 esp, ebp
  00036	5d		 pop	 ebp
  00037	c3		 ret	 0
??1_tagLMCItemInfo@@QAE@XZ ENDP				; _tagLMCItemInfo::~_tagLMCItemInfo
_TEXT	ENDS
EXTRN	__imp_??0?$CStringT@DV?$StrTraitMFC_DLL@DV?$ChTraitsCRT@D@ATL@@@@@ATL@@QAE@ABV01@@Z:NEAR
;	COMDAT xdata$x
xdata$x	SEGMENT
$T205730 DD	0ffffffffH
	DD	FLAT:$L205723
	DD	00H
	DD	FLAT:$L205724
	DD	01H
	DD	FLAT:$L205725
$T205728 DD	019930520H
	DD	03H
	DD	FLAT:$T205730
	DD	2 DUP(00H)
	DD	2 DUP(00H)
; Function compile flags: /Odt
xdata$x	ENDS
;	COMDAT ??0_tagLMCItemInfo@@QAE@ABU0@@Z
_TEXT	SEGMENT
_this$ = -16						; size = 4
__$EHRec$ = -12						; size = 12
___that$ = 8						; size = 4
??0_tagLMCItemInfo@@QAE@ABU0@@Z PROC NEAR		; _tagLMCItemInfo::_tagLMCItemInfo, COMDAT
; _this$ = ecx
  00000	55		 push	 ebp
  00001	8b ec		 mov	 ebp, esp
  00003	6a ff		 push	 -1
  00005	68 00 00 00 00	 push	 __ehhandler$??0_tagLMCItemInfo@@QAE@ABU0@@Z
  0000a	64 a1 00 00 00
	00		 mov	 eax, DWORD PTR fs:__except_list
  00010	50		 push	 eax
  00011	64 89 25 00 00
	00 00		 mov	 DWORD PTR fs:__except_list, esp
  00018	51		 push	 ecx
  00019	89 4d f0	 mov	 DWORD PTR _this$[ebp], ecx
  0001c	8b 45 08	 mov	 eax, DWORD PTR ___that$[ebp]
  0001f	50		 push	 eax
  00020	8b 4d f0	 mov	 ecx, DWORD PTR _this$[ebp]
  00023	ff 15 00 00 00
	00		 call	 DWORD PTR __imp_??0?$basic_string@DU?$char_traits@D@std@@V?$allocator@D@2@@std@@QAE@ABV01@@Z
  00029	c7 45 fc 00 00
	00 00		 mov	 DWORD PTR __$EHRec$[ebp+8], 0
  00030	8b 4d f0	 mov	 ecx, DWORD PTR _this$[ebp]
  00033	8b 55 08	 mov	 edx, DWORD PTR ___that$[ebp]
  00036	8b 42 1c	 mov	 eax, DWORD PTR [edx+28]
  00039	89 41 1c	 mov	 DWORD PTR [ecx+28], eax
  0003c	8b 4d f0	 mov	 ecx, DWORD PTR _this$[ebp]
  0003f	8b 55 08	 mov	 edx, DWORD PTR ___that$[ebp]
  00042	8b 42 20	 mov	 eax, DWORD PTR [edx+32]
  00045	89 41 20	 mov	 DWORD PTR [ecx+32], eax
  00048	8b 4d f0	 mov	 ecx, DWORD PTR _this$[ebp]
  0004b	8b 55 08	 mov	 edx, DWORD PTR ___that$[ebp]
  0004e	8b 42 24	 mov	 eax, DWORD PTR [edx+36]
  00051	89 41 24	 mov	 DWORD PTR [ecx+36], eax
  00054	8b 4d 08	 mov	 ecx, DWORD PTR ___that$[ebp]
  00057	83 c1 28	 add	 ecx, 40			; 00000028H
  0005a	51		 push	 ecx
  0005b	8b 4d f0	 mov	 ecx, DWORD PTR _this$[ebp]
  0005e	83 c1 28	 add	 ecx, 40			; 00000028H
  00061	ff 15 00 00 00
	00		 call	 DWORD PTR __imp_??0?$CStringT@DV?$StrTraitMFC_DLL@DV?$ChTraitsCRT@D@ATL@@@@@ATL@@QAE@ABV01@@Z
  00067	c6 45 fc 01	 mov	 BYTE PTR __$EHRec$[ebp+8], 1
  0006b	8b 55 08	 mov	 edx, DWORD PTR ___that$[ebp]
  0006e	83 c2 2c	 add	 edx, 44			; 0000002cH
  00071	52		 push	 edx
  00072	8b 4d f0	 mov	 ecx, DWORD PTR _this$[ebp]
  00075	83 c1 2c	 add	 ecx, 44			; 0000002cH
  00078	ff 15 00 00 00
	00		 call	 DWORD PTR __imp_??0?$CStringT@DV?$StrTraitMFC_DLL@DV?$ChTraitsCRT@D@ATL@@@@@ATL@@QAE@ABV01@@Z
  0007e	c6 45 fc 02	 mov	 BYTE PTR __$EHRec$[ebp+8], 2
  00082	8b 45 08	 mov	 eax, DWORD PTR ___that$[ebp]
  00085	83 c0 30	 add	 eax, 48			; 00000030H
  00088	50		 push	 eax
  00089	8b 4d f0	 mov	 ecx, DWORD PTR _this$[ebp]
  0008c	83 c1 30	 add	 ecx, 48			; 00000030H
  0008f	ff 15 00 00 00
	00		 call	 DWORD PTR __imp_??0?$CStringT@DV?$StrTraitMFC_DLL@DV?$ChTraitsCRT@D@ATL@@@@@ATL@@QAE@ABV01@@Z
  00095	8b 4d 08	 mov	 ecx, DWORD PTR ___that$[ebp]
  00098	83 c1 34	 add	 ecx, 52			; 00000034H
  0009b	8b 55 f0	 mov	 edx, DWORD PTR _this$[ebp]
  0009e	83 c2 34	 add	 edx, 52			; 00000034H
  000a1	8b 01		 mov	 eax, DWORD PTR [ecx]
  000a3	89 02		 mov	 DWORD PTR [edx], eax
  000a5	8b 41 04	 mov	 eax, DWORD PTR [ecx+4]
  000a8	89 42 04	 mov	 DWORD PTR [edx+4], eax
  000ab	8b 41 08	 mov	 eax, DWORD PTR [ecx+8]
  000ae	89 42 08	 mov	 DWORD PTR [edx+8], eax
  000b1	8b 49 0c	 mov	 ecx, DWORD PTR [ecx+12]
  000b4	89 4a 0c	 mov	 DWORD PTR [edx+12], ecx
  000b7	c7 45 fc ff ff
	ff ff		 mov	 DWORD PTR __$EHRec$[ebp+8], -1
  000be	8b 45 f0	 mov	 eax, DWORD PTR _this$[ebp]
  000c1	8b 4d f4	 mov	 ecx, DWORD PTR __$EHRec$[ebp]
  000c4	64 89 0d 00 00
	00 00		 mov	 DWORD PTR fs:__except_list, ecx
  000cb	8b e5		 mov	 esp, ebp
  000cd	5d		 pop	 ebp
  000ce	c2 04 00	 ret	 4
_TEXT	ENDS
;	COMDAT text$x
text$x	SEGMENT
$L205723:
  00000	8b 4d f0	 mov	 ecx, DWORD PTR _this$[ebp]
  00003	ff 25 00 00 00
	00		 jmp	 DWORD PTR __imp_??1?$basic_string@DU?$char_traits@D@std@@V?$allocator@D@2@@std@@QAE@XZ
$L205724:
  00009	8b 4d f0	 mov	 ecx, DWORD PTR _this$[ebp]
  0000c	83 c1 28	 add	 ecx, 40			; 00000028H
  0000f	ff 25 00 00 00
	00		 jmp	 DWORD PTR __imp_??1?$CStringT@DV?$StrTraitMFC_DLL@DV?$ChTraitsCRT@D@ATL@@@@@ATL@@QAE@XZ
$L205725:
  00015	8b 4d f0	 mov	 ecx, DWORD PTR _this$[ebp]
  00018	83 c1 2c	 add	 ecx, 44			; 0000002cH
  0001b	ff 25 00 00 00
	00		 jmp	 DWORD PTR __imp_??1?$CStringT@DV?$StrTraitMFC_DLL@DV?$ChTraitsCRT@D@ATL@@@@@ATL@@QAE@XZ
__ehhandler$??0_tagLMCItemInfo@@QAE@ABU0@@Z:
  00021	b8 00 00 00 00	 mov	 eax, OFFSET FLAT:$T205728
  00026	e9 00 00 00 00	 jmp	 ___CxxFrameHandler
text$x	ENDS
??0_tagLMCItemInfo@@QAE@ABU0@@Z ENDP			; _tagLMCItemInfo::_tagLMCItemInfo
EXTRN	__imp_??0?$basic_string@DU?$char_traits@D@std@@V?$allocator@D@2@@std@@QAE@XZ:NEAR
;	COMDAT xdata$x
xdata$x	SEGMENT
$T205740 DD	0ffffffffH
	DD	FLAT:$L205735
$T205738 DD	019930520H
	DD	01H
	DD	FLAT:$T205740
	DD	2 DUP(00H)
	DD	2 DUP(00H)
; Function compile flags: /Odt
xdata$x	ENDS
;	COMDAT ??0TAB_ITEM@@QAE@XZ
_TEXT	SEGMENT
_this$ = -16						; size = 4
__$EHRec$ = -12						; size = 12
??0TAB_ITEM@@QAE@XZ PROC NEAR				; TAB_ITEM::TAB_ITEM, COMDAT
; _this$ = ecx
  00000	55		 push	 ebp
  00001	8b ec		 mov	 ebp, esp
  00003	6a ff		 push	 -1
  00005	68 00 00 00 00	 push	 __ehhandler$??0TAB_ITEM@@QAE@XZ
  0000a	64 a1 00 00 00
	00		 mov	 eax, DWORD PTR fs:__except_list
  00010	50		 push	 eax
  00011	64 89 25 00 00
	00 00		 mov	 DWORD PTR fs:__except_list, esp
  00018	51		 push	 ecx
  00019	89 4d f0	 mov	 DWORD PTR _this$[ebp], ecx
  0001c	8b 4d f0	 mov	 ecx, DWORD PTR _this$[ebp]
  0001f	ff 15 00 00 00
	00		 call	 DWORD PTR __imp_??0?$basic_string@DU?$char_traits@D@std@@V?$allocator@D@2@@std@@QAE@XZ
  00025	c7 45 fc 00 00
	00 00		 mov	 DWORD PTR __$EHRec$[ebp+8], 0
  0002c	8b 4d f0	 mov	 ecx, DWORD PTR _this$[ebp]
  0002f	83 c1 20	 add	 ecx, 32			; 00000020H
  00032	ff 15 00 00 00
	00		 call	 DWORD PTR __imp_??0?$basic_string@DU?$char_traits@D@std@@V?$allocator@D@2@@std@@QAE@XZ
  00038	c7 45 fc ff ff
	ff ff		 mov	 DWORD PTR __$EHRec$[ebp+8], -1
  0003f	8b 45 f0	 mov	 eax, DWORD PTR _this$[ebp]
  00042	8b 4d f4	 mov	 ecx, DWORD PTR __$EHRec$[ebp]
  00045	64 89 0d 00 00
	00 00		 mov	 DWORD PTR fs:__except_list, ecx
  0004c	8b e5		 mov	 esp, ebp
  0004e	5d		 pop	 ebp
  0004f	c3		 ret	 0
_TEXT	ENDS
;	COMDAT text$x
text$x	SEGMENT
$L205735:
  00000	8b 4d f0	 mov	 ecx, DWORD PTR _this$[ebp]
  00003	ff 25 00 00 00
	00		 jmp	 DWORD PTR __imp_??1?$basic_string@DU?$char_traits@D@std@@V?$allocator@D@2@@std@@QAE@XZ
__ehhandler$??0TAB_ITEM@@QAE@XZ:
  00009	b8 00 00 00 00	 mov	 eax, OFFSET FLAT:$T205738
  0000e	e9 00 00 00 00	 jmp	 ___CxxFrameHandler
text$x	ENDS
??0TAB_ITEM@@QAE@XZ ENDP				; TAB_ITEM::TAB_ITEM
;	COMDAT xdata$x
xdata$x	SEGMENT
$T205750 DD	0ffffffffH
	DD	FLAT:$L205745
$T205748 DD	019930520H
	DD	01H
	DD	FLAT:$T205750
	DD	2 DUP(00H)
	DD	2 DUP(00H)
; Function compile flags: /Odt
xdata$x	ENDS
;	COMDAT ??1TAB_ITEM@@QAE@XZ
_TEXT	SEGMENT
_this$ = -16						; size = 4
__$EHRec$ = -12						; size = 12
??1TAB_ITEM@@QAE@XZ PROC NEAR				; TAB_ITEM::~TAB_ITEM, COMDAT
; _this$ = ecx
  00000	55		 push	 ebp
  00001	8b ec		 mov	 ebp, esp
  00003	6a ff		 push	 -1
  00005	68 00 00 00 00	 push	 __ehhandler$??1TAB_ITEM@@QAE@XZ
  0000a	64 a1 00 00 00
	00		 mov	 eax, DWORD PTR fs:__except_list
  00010	50		 push	 eax
  00011	64 89 25 00 00
	00 00		 mov	 DWORD PTR fs:__except_list, esp
  00018	51		 push	 ecx
  00019	89 4d f0	 mov	 DWORD PTR _this$[ebp], ecx
  0001c	c7 45 fc 00 00
	00 00		 mov	 DWORD PTR __$EHRec$[ebp+8], 0
  00023	8b 4d f0	 mov	 ecx, DWORD PTR _this$[ebp]
  00026	83 c1 20	 add	 ecx, 32			; 00000020H
  00029	ff 15 00 00 00
	00		 call	 DWORD PTR __imp_??1?$basic_string@DU?$char_traits@D@std@@V?$allocator@D@2@@std@@QAE@XZ
  0002f	c7 45 fc ff ff
	ff ff		 mov	 DWORD PTR __$EHRec$[ebp+8], -1
  00036	8b 4d f0	 mov	 ecx, DWORD PTR _this$[ebp]
  00039	ff 15 00 00 00
	00		 call	 DWORD PTR __imp_??1?$basic_string@DU?$char_traits@D@std@@V?$allocator@D@2@@std@@QAE@XZ
  0003f	8b 4d f4	 mov	 ecx, DWORD PTR __$EHRec$[ebp]
  00042	64 89 0d 00 00
	00 00		 mov	 DWORD PTR fs:__except_list, ecx
  00049	8b e5		 mov	 esp, ebp
  0004b	5d		 pop	 ebp
  0004c	c3		 ret	 0
_TEXT	ENDS
;	COMDAT text$x
text$x	SEGMENT
$L205745:
  00000	8b 4d f0	 mov	 ecx, DWORD PTR _this$[ebp]
  00003	ff 25 00 00 00
	00		 jmp	 DWORD PTR __imp_??1?$basic_string@DU?$char_traits@D@std@@V?$allocator@D@2@@std@@QAE@XZ
__ehhandler$??1TAB_ITEM@@QAE@XZ:
  00009	b8 00 00 00 00	 mov	 eax, OFFSET FLAT:$T205748
  0000e	e9 00 00 00 00	 jmp	 ___CxxFrameHandler
text$x	ENDS
??1TAB_ITEM@@QAE@XZ ENDP				; TAB_ITEM::~TAB_ITEM
PUBLIC	??9const_iterator@?$vector@UOneLocalGame@@V?$allocator@UOneLocalGame@@@std@@@std@@QBE_NABV012@@Z ; std::vector<OneLocalGame,std::allocator<OneLocalGame> >::const_iterator::operator!=
PUBLIC	??Citerator@?$vector@UOneLocalGame@@V?$allocator@UOneLocalGame@@@std@@@std@@QBEPAUOneLocalGame@@XZ ; std::vector<OneLocalGame,std::allocator<OneLocalGame> >::iterator::operator->
PUBLIC	??Eiterator@?$vector@UOneLocalGame@@V?$allocator@UOneLocalGame@@@std@@@std@@QAE?AV012@H@Z ; std::vector<OneLocalGame,std::allocator<OneLocalGame> >::iterator::operator++
PUBLIC	??0?$vector@UOneLocalGame@@V?$allocator@UOneLocalGame@@@std@@@std@@QAE@XZ ; std::vector<OneLocalGame,std::allocator<OneLocalGame> >::vector<OneLocalGame,std::allocator<OneLocalGame> >
PUBLIC	??1?$vector@UOneLocalGame@@V?$allocator@UOneLocalGame@@@std@@@std@@QAE@XZ ; std::vector<OneLocalGame,std::allocator<OneLocalGame> >::~vector<OneLocalGame,std::allocator<OneLocalGame> >
PUBLIC	?begin@?$vector@UOneLocalGame@@V?$allocator@UOneLocalGame@@@std@@@std@@QAE?AViterator@12@XZ ; std::vector<OneLocalGame,std::allocator<OneLocalGame> >::begin
PUBLIC	?end@?$vector@UOneLocalGame@@V?$allocator@UOneLocalGame@@@std@@@std@@QAE?AViterator@12@XZ ; std::vector<OneLocalGame,std::allocator<OneLocalGame> >::end
EXTRN	__imp_?c_str@?$basic_string@DU?$char_traits@D@std@@V?$allocator@D@2@@std@@QBEPBDXZ:NEAR
EXTRN	__imp_??0?$CStringT@DV?$StrTraitMFC_DLL@DV?$ChTraitsCRT@D@ATL@@@@@ATL@@QAE@XZ:NEAR
EXTRN	__imp_??0?$CStringT@DV?$StrTraitMFC_DLL@DV?$ChTraitsCRT@D@ATL@@@@@ATL@@QAE@PBD@Z:NEAR
EXTRN	?ClearData@CLMCDataMgr@@QAEXXZ:NEAR		; CLMCDataMgr::ClearData
EXTRN	?InsertItem@CLocalMusicCoverList@@QAEHPBDV?$CStringT@DV?$StrTraitMFC_DLL@DV?$ChTraitsCRT@D@ATL@@@@@ATL@@1V?$basic_string@DU?$char_traits@D@std@@V?$allocator@D@2@@std@@H@Z:NEAR ; CLocalMusicCoverList::InsertItem
xdata$x	SEGMENT
$T205769 DD	0ffffffffH
	DD	FLAT:$L205761
	DD	00H
	DD	FLAT:$L205762
	DD	01H
	DD	FLAT:$L205763
	DD	02H
	DD	FLAT:$L205764
	DD	03H
	DD	FLAT:$L205765
$T205767 DD	019930520H
	DD	05H
	DD	FLAT:$T205769
	DD	2 DUP(00H)
	DD	2 DUP(00H)
; Function compile flags: /Odt
xdata$x	ENDS
_TEXT	SEGMENT
tv197 = -96						; size = 4
tv199 = -92						; size = 4
tv194 = -88						; size = 4
tv67 = -84						; size = 4
tv191 = -80						; size = 4
tv95 = -76						; size = 4
tv77 = -72						; size = 4
tv71 = -68						; size = 4
_this$ = -64						; size = 4
$T205760 = -60						; size = 4
$T205759 = -56						; size = 4
$T205758 = -52						; size = 4
$T205757 = -48						; size = 4
$T205756 = -44						; size = 4
$T205755 = -40						; size = 4
_strDetail$203198 = -36					; size = 4
_it1$203191 = -32					; size = 4
_lgl$ = -28						; size = 16
__$EHRec$ = -12						; size = 12
?ReGetData@PlayedGameWnd@@IAEHXZ PROC NEAR		; PlayedGameWnd::ReGetData
; _this$ = ecx

; 147  : {

  009a0	55		 push	 ebp
  009a1	8b ec		 mov	 ebp, esp
  009a3	6a ff		 push	 -1
  009a5	68 00 00 00 00	 push	 __ehhandler$?ReGetData@PlayedGameWnd@@IAEHXZ
  009aa	64 a1 00 00 00
	00		 mov	 eax, DWORD PTR fs:__except_list
  009b0	50		 push	 eax
  009b1	64 89 25 00 00
	00 00		 mov	 DWORD PTR fs:__except_list, esp
  009b8	83 ec 54	 sub	 esp, 84			; 00000054H
  009bb	89 4d c0	 mov	 DWORD PTR _this$[ebp], ecx

; 148  : 	m_DataMgr.ClearData();

  009be	8b 4d c0	 mov	 ecx, DWORD PTR _this$[ebp]
  009c1	81 c1 68 01 00
	00		 add	 ecx, 360		; 00000168H
  009c7	e8 00 00 00 00	 call	 ?ClearData@CLMCDataMgr@@QAEXXZ ; CLMCDataMgr::ClearData

; 149  : 
; 150  : 	LocalGameList lgl;

  009cc	8d 4d e4	 lea	 ecx, DWORD PTR _lgl$[ebp]
  009cf	e8 00 00 00 00	 call	 ??0?$vector@UOneLocalGame@@V?$allocator@UOneLocalGame@@@std@@@std@@QAE@XZ ; std::vector<OneLocalGame,std::allocator<OneLocalGame> >::vector<OneLocalGame,std::allocator<OneLocalGame> >
  009d4	c7 45 fc 00 00
	00 00		 mov	 DWORD PTR __$EHRec$[ebp+8], 0

; 151  : 	GLOBAL_LOCALGAME->ILocalGameData_GetAllGame( lgl );

  009db	e8 00 00 00 00	 call	 ?AfxGetDataManager2@@YAPAVIDataManager@@XZ ; AfxGetDataManager2
  009e0	89 45 bc	 mov	 DWORD PTR tv71[ebp], eax
  009e3	68 00 00 00 00	 push	 OFFSET FLAT:_ID_DATA_LOCALGAME
  009e8	8b 45 bc	 mov	 eax, DWORD PTR tv71[ebp]
  009eb	8b 10		 mov	 edx, DWORD PTR [eax]
  009ed	8b 4d bc	 mov	 ecx, DWORD PTR tv71[ebp]
  009f0	ff 52 0c	 call	 DWORD PTR [edx+12]
  009f3	89 45 b8	 mov	 DWORD PTR tv77[ebp], eax
  009f6	8d 45 e4	 lea	 eax, DWORD PTR _lgl$[ebp]
  009f9	50		 push	 eax
  009fa	8b 4d b8	 mov	 ecx, DWORD PTR tv77[ebp]
  009fd	8b 11		 mov	 edx, DWORD PTR [ecx]
  009ff	8b 4d b8	 mov	 ecx, DWORD PTR tv77[ebp]
  00a02	ff 52 18	 call	 DWORD PTR [edx+24]

; 152  : 	for( LocalGameList::iterator it1 = lgl.begin(); it1 != lgl.end(); it1++ )

  00a05	8d 45 e0	 lea	 eax, DWORD PTR _it1$203191[ebp]
  00a08	50		 push	 eax
  00a09	8d 4d e4	 lea	 ecx, DWORD PTR _lgl$[ebp]
  00a0c	e8 00 00 00 00	 call	 ?begin@?$vector@UOneLocalGame@@V?$allocator@UOneLocalGame@@@std@@@std@@QAE?AViterator@12@XZ ; std::vector<OneLocalGame,std::allocator<OneLocalGame> >::begin
  00a11	eb 0e		 jmp	 SHORT $L203195
$L203196:
  00a13	6a 00		 push	 0
  00a15	8d 4d d8	 lea	 ecx, DWORD PTR $T205755[ebp]
  00a18	51		 push	 ecx
  00a19	8d 4d e0	 lea	 ecx, DWORD PTR _it1$203191[ebp]
  00a1c	e8 00 00 00 00	 call	 ??Eiterator@?$vector@UOneLocalGame@@V?$allocator@UOneLocalGame@@@std@@@std@@QAE?AV012@H@Z ; std::vector<OneLocalGame,std::allocator<OneLocalGame> >::iterator::operator++
$L203195:
  00a21	8d 55 d4	 lea	 edx, DWORD PTR $T205756[ebp]
  00a24	52		 push	 edx
  00a25	8d 4d e4	 lea	 ecx, DWORD PTR _lgl$[ebp]
  00a28	e8 00 00 00 00	 call	 ?end@?$vector@UOneLocalGame@@V?$allocator@UOneLocalGame@@@std@@@std@@QAE?AViterator@12@XZ ; std::vector<OneLocalGame,std::allocator<OneLocalGame> >::end
  00a2d	50		 push	 eax
  00a2e	8d 4d e0	 lea	 ecx, DWORD PTR _it1$203191[ebp]
  00a31	e8 00 00 00 00	 call	 ??9const_iterator@?$vector@UOneLocalGame@@V?$allocator@UOneLocalGame@@@std@@@std@@QBE_NABV012@@Z ; std::vector<OneLocalGame,std::allocator<OneLocalGame> >::const_iterator::operator!=
  00a36	0f b6 c0	 movzx	 eax, al
  00a39	85 c0		 test	 eax, eax
  00a3b	0f 84 af 00 00
	00		 je	 $L203197

; 153  : 	{
; 154  : 		CString strDetail;

  00a41	8d 4d dc	 lea	 ecx, DWORD PTR _strDetail$203198[ebp]
  00a44	ff 15 00 00 00
	00		 call	 DWORD PTR __imp_??0?$CStringT@DV?$StrTraitMFC_DLL@DV?$ChTraitsCRT@D@ATL@@@@@ATL@@QAE@XZ
  00a4a	c6 45 fc 01	 mov	 BYTE PTR __$EHRec$[ebp+8], 1

; 155  : 		InsertItem( it1->strPicPath.c_str(), 
; 156  : 			it1->strName.c_str(), strDetail, it1->strID, FALSE );

  00a4e	6a 00		 push	 0
  00a50	8d 4d e0	 lea	 ecx, DWORD PTR _it1$203191[ebp]
  00a53	e8 00 00 00 00	 call	 ??Citerator@?$vector@UOneLocalGame@@V?$allocator@UOneLocalGame@@@std@@@std@@QBEPAUOneLocalGame@@XZ ; std::vector<OneLocalGame,std::allocator<OneLocalGame> >::iterator::operator->
  00a58	83 ec 1c	 sub	 esp, 28			; 0000001cH
  00a5b	8b cc		 mov	 ecx, esp
  00a5d	89 65 d0	 mov	 DWORD PTR $T205757[ebp], esp
  00a60	50		 push	 eax
  00a61	ff 15 00 00 00
	00		 call	 DWORD PTR __imp_??0?$basic_string@DU?$char_traits@D@std@@V?$allocator@D@2@@std@@QAE@ABV01@@Z
  00a67	89 45 b4	 mov	 DWORD PTR tv95[ebp], eax
  00a6a	8b 4d b4	 mov	 ecx, DWORD PTR tv95[ebp]
  00a6d	89 4d b0	 mov	 DWORD PTR tv191[ebp], ecx
  00a70	c6 45 fc 02	 mov	 BYTE PTR __$EHRec$[ebp+8], 2
  00a74	51		 push	 ecx
  00a75	8b cc		 mov	 ecx, esp
  00a77	89 65 cc	 mov	 DWORD PTR $T205758[ebp], esp
  00a7a	8d 55 dc	 lea	 edx, DWORD PTR _strDetail$203198[ebp]
  00a7d	52		 push	 edx
  00a7e	ff 15 00 00 00
	00		 call	 DWORD PTR __imp_??0?$CStringT@DV?$StrTraitMFC_DLL@DV?$ChTraitsCRT@D@ATL@@@@@ATL@@QAE@ABV01@@Z
  00a84	89 45 ac	 mov	 DWORD PTR tv67[ebp], eax
  00a87	8b 45 ac	 mov	 eax, DWORD PTR tv67[ebp]
  00a8a	89 45 a8	 mov	 DWORD PTR tv194[ebp], eax
  00a8d	c6 45 fc 03	 mov	 BYTE PTR __$EHRec$[ebp+8], 3
  00a91	8d 4d e0	 lea	 ecx, DWORD PTR _it1$203191[ebp]
  00a94	e8 00 00 00 00	 call	 ??Citerator@?$vector@UOneLocalGame@@V?$allocator@UOneLocalGame@@@std@@@std@@QBEPAUOneLocalGame@@XZ ; std::vector<OneLocalGame,std::allocator<OneLocalGame> >::iterator::operator->
  00a99	83 c0 1c	 add	 eax, 28			; 0000001cH
  00a9c	8b c8		 mov	 ecx, eax
  00a9e	ff 15 00 00 00
	00		 call	 DWORD PTR __imp_?c_str@?$basic_string@DU?$char_traits@D@std@@V?$allocator@D@2@@std@@QBEPBDXZ
  00aa4	51		 push	 ecx
  00aa5	8b cc		 mov	 ecx, esp
  00aa7	89 65 c8	 mov	 DWORD PTR $T205759[ebp], esp
  00aaa	50		 push	 eax
  00aab	ff 15 00 00 00
	00		 call	 DWORD PTR __imp_??0?$CStringT@DV?$StrTraitMFC_DLL@DV?$ChTraitsCRT@D@ATL@@@@@ATL@@QAE@PBD@Z
  00ab1	89 45 a4	 mov	 DWORD PTR tv199[ebp], eax
  00ab4	8b 4d a4	 mov	 ecx, DWORD PTR tv199[ebp]
  00ab7	89 4d a0	 mov	 DWORD PTR tv197[ebp], ecx
  00aba	c6 45 fc 04	 mov	 BYTE PTR __$EHRec$[ebp+8], 4
  00abe	8d 4d e0	 lea	 ecx, DWORD PTR _it1$203191[ebp]
  00ac1	e8 00 00 00 00	 call	 ??Citerator@?$vector@UOneLocalGame@@V?$allocator@UOneLocalGame@@@std@@@std@@QBEPAUOneLocalGame@@XZ ; std::vector<OneLocalGame,std::allocator<OneLocalGame> >::iterator::operator->
  00ac6	83 c0 54	 add	 eax, 84			; 00000054H
  00ac9	8b c8		 mov	 ecx, eax
  00acb	ff 15 00 00 00
	00		 call	 DWORD PTR __imp_?c_str@?$basic_string@DU?$char_traits@D@std@@V?$allocator@D@2@@std@@QBEPBDXZ
  00ad1	50		 push	 eax
  00ad2	c6 45 fc 01	 mov	 BYTE PTR __$EHRec$[ebp+8], 1
  00ad6	8b 4d c0	 mov	 ecx, DWORD PTR _this$[ebp]
  00ad9	e8 00 00 00 00	 call	 ?InsertItem@CLocalMusicCoverList@@QAEHPBDV?$CStringT@DV?$StrTraitMFC_DLL@DV?$ChTraitsCRT@D@ATL@@@@@ATL@@1V?$basic_string@DU?$char_traits@D@std@@V?$allocator@D@2@@std@@H@Z ; CLocalMusicCoverList::InsertItem

; 157  : 	}

  00ade	c6 45 fc 00	 mov	 BYTE PTR __$EHRec$[ebp+8], 0
  00ae2	8d 4d dc	 lea	 ecx, DWORD PTR _strDetail$203198[ebp]
  00ae5	ff 15 00 00 00
	00		 call	 DWORD PTR __imp_??1?$CStringT@DV?$StrTraitMFC_DLL@DV?$ChTraitsCRT@D@ATL@@@@@ATL@@QAE@XZ
  00aeb	e9 23 ff ff ff	 jmp	 $L203196
$L203197:

; 158  : 	UpdateList();

  00af0	8b 4d c0	 mov	 ecx, DWORD PTR _this$[ebp]
  00af3	e8 00 00 00 00	 call	 ?UpdateList@CLocalMusicCoverList@@IAEXXZ ; CLocalMusicCoverList::UpdateList

; 159  : 	OnMemoryDraw();

  00af8	6a 01		 push	 1
  00afa	8b 4d c0	 mov	 ecx, DWORD PTR _this$[ebp]
  00afd	e8 00 00 00 00	 call	 ?OnMemoryDraw@CLocalMusicCoverList@@IAEXH@Z ; CLocalMusicCoverList::OnMemoryDraw

; 160  : 	return 10;

  00b02	c7 45 c4 0a 00
	00 00		 mov	 DWORD PTR $T205760[ebp], 10 ; 0000000aH
  00b09	c7 45 fc ff ff
	ff ff		 mov	 DWORD PTR __$EHRec$[ebp+8], -1
  00b10	8d 4d e4	 lea	 ecx, DWORD PTR _lgl$[ebp]
  00b13	e8 00 00 00 00	 call	 ??1?$vector@UOneLocalGame@@V?$allocator@UOneLocalGame@@@std@@@std@@QAE@XZ ; std::vector<OneLocalGame,std::allocator<OneLocalGame> >::~vector<OneLocalGame,std::allocator<OneLocalGame> >
  00b18	8b 45 c4	 mov	 eax, DWORD PTR $T205760[ebp]

; 161  : }

  00b1b	8b 4d f4	 mov	 ecx, DWORD PTR __$EHRec$[ebp]
  00b1e	64 89 0d 00 00
	00 00		 mov	 DWORD PTR fs:__except_list, ecx
  00b25	8b e5		 mov	 esp, ebp
  00b27	5d		 pop	 ebp
  00b28	c3		 ret	 0
_TEXT	ENDS
text$x	SEGMENT
$L205761:
  00181	8d 4d e4	 lea	 ecx, DWORD PTR _lgl$[ebp]
  00184	e9 00 00 00 00	 jmp	 ??1?$vector@UOneLocalGame@@V?$allocator@UOneLocalGame@@@std@@@std@@QAE@XZ ; std::vector<OneLocalGame,std::allocator<OneLocalGame> >::~vector<OneLocalGame,std::allocator<OneLocalGame> >
$L205762:
  00189	8d 4d dc	 lea	 ecx, DWORD PTR _strDetail$203198[ebp]
  0018c	ff 25 00 00 00
	00		 jmp	 DWORD PTR __imp_??1?$CStringT@DV?$StrTraitMFC_DLL@DV?$ChTraitsCRT@D@ATL@@@@@ATL@@QAE@XZ
$L205763:
  00192	8b 4d d0	 mov	 ecx, DWORD PTR $T205757[ebp]
  00195	ff 25 00 00 00
	00		 jmp	 DWORD PTR __imp_??1?$basic_string@DU?$char_traits@D@std@@V?$allocator@D@2@@std@@QAE@XZ
$L205764:
  0019b	8b 4d cc	 mov	 ecx, DWORD PTR $T205758[ebp]
  0019e	ff 25 00 00 00
	00		 jmp	 DWORD PTR __imp_??1?$CStringT@DV?$StrTraitMFC_DLL@DV?$ChTraitsCRT@D@ATL@@@@@ATL@@QAE@XZ
$L205765:
  001a4	8b 4d c8	 mov	 ecx, DWORD PTR $T205759[ebp]
  001a7	ff 25 00 00 00
	00		 jmp	 DWORD PTR __imp_??1?$CStringT@DV?$StrTraitMFC_DLL@DV?$ChTraitsCRT@D@ATL@@@@@ATL@@QAE@XZ
__ehhandler$?ReGetData@PlayedGameWnd@@IAEHXZ:
  001ad	b8 00 00 00 00	 mov	 eax, OFFSET FLAT:$T205767
  001b2	e9 00 00 00 00	 jmp	 ___CxxFrameHandler
text$x	ENDS
?ReGetData@PlayedGameWnd@@IAEHXZ ENDP			; PlayedGameWnd::ReGetData
PUBLIC	??0CRect@@QAE@HHHH@Z				; CRect::CRect
PUBLIC	?GetSafeHwnd@CWnd@@QBEPAUHWND__@@XZ		; CWnd::GetSafeHwnd
EXTRN	?OnCreate@CLocalMusicCoverList@@IAEHPAUtagCREATESTRUCTA@@@Z:NEAR ; CLocalMusicCoverList::OnCreate
; Function compile flags: /Odt
_TEXT	SEGMENT
_this$ = -20						; size = 4
$T205771 = -16						; size = 16
_lpCreateStruct$ = 8					; size = 4
?OnCreate@PlayedGameWnd@@IAEHPAUtagCREATESTRUCTA@@@Z PROC NEAR ; PlayedGameWnd::OnCreate
; _this$ = ecx

; 164  : {

  00b30	55		 push	 ebp
  00b31	8b ec		 mov	 ebp, esp
  00b33	83 ec 14	 sub	 esp, 20			; 00000014H
  00b36	89 4d ec	 mov	 DWORD PTR _this$[ebp], ecx

; 165  : 	if (__super::OnCreate(lpCreateStruct) == -1)

  00b39	8b 45 08	 mov	 eax, DWORD PTR _lpCreateStruct$[ebp]
  00b3c	50		 push	 eax
  00b3d	8b 4d ec	 mov	 ecx, DWORD PTR _this$[ebp]
  00b40	e8 00 00 00 00	 call	 ?OnCreate@CLocalMusicCoverList@@IAEHPAUtagCREATESTRUCTA@@@Z ; CLocalMusicCoverList::OnCreate
  00b45	83 f8 ff	 cmp	 eax, -1
  00b48	75 05		 jne	 SHORT $L203207

; 166  : 		return -1;

  00b4a	83 c8 ff	 or	 eax, -1
  00b4d	eb 69		 jmp	 SHORT $L203206
$L203207:

; 167  : 
; 168  : 	m_tootip.m_pClientWnd = this;

  00b4f	8b 4d ec	 mov	 ecx, DWORD PTR _this$[ebp]
  00b52	8b 55 ec	 mov	 edx, DWORD PTR _this$[ebp]
  00b55	89 91 e4 01 00
	00		 mov	 DWORD PTR [ecx+484], edx

; 169  : 	m_tootip.CreateEx(WS_EX_TOOLWINDOW|WS_EX_TOPMOST,TOOLTIPS_CLASS,"",0,CRect(0,0,0,0),NULL,0);

  00b5b	6a 00		 push	 0
  00b5d	6a 00		 push	 0
  00b5f	6a 00		 push	 0
  00b61	6a 00		 push	 0
  00b63	6a 00		 push	 0
  00b65	6a 00		 push	 0
  00b67	6a 00		 push	 0
  00b69	8d 4d f0	 lea	 ecx, DWORD PTR $T205771[ebp]
  00b6c	e8 00 00 00 00	 call	 ??0CRect@@QAE@HHHH@Z	; CRect::CRect
  00b71	50		 push	 eax
  00b72	6a 00		 push	 0
  00b74	68 00 00 00 00	 push	 OFFSET FLAT:$SG203209
  00b79	68 00 00 00 00	 push	 OFFSET FLAT:$SG203210
  00b7e	68 88 00 00 00	 push	 136			; 00000088H
  00b83	8b 4d ec	 mov	 ecx, DWORD PTR _this$[ebp]
  00b86	81 c1 84 01 00
	00		 add	 ecx, 388		; 00000184H
  00b8c	8b 45 ec	 mov	 eax, DWORD PTR _this$[ebp]
  00b8f	8b 90 84 01 00
	00		 mov	 edx, DWORD PTR [eax+388]
  00b95	ff 52 60	 call	 DWORD PTR [edx+96]

; 170  : 	m_tootip.m_hParent = GetSafeHwnd();

  00b98	8b 4d ec	 mov	 ecx, DWORD PTR _this$[ebp]
  00b9b	e8 00 00 00 00	 call	 ?GetSafeHwnd@CWnd@@QBEPAUHWND__@@XZ ; CWnd::GetSafeHwnd
  00ba0	8b 4d ec	 mov	 ecx, DWORD PTR _this$[ebp]
  00ba3	89 81 0c 02 00
	00		 mov	 DWORD PTR [ecx+524], eax

; 171  : 	m_tootip.m_clrBK = RGB(255, 255, 225);	

  00ba9	8b 55 ec	 mov	 edx, DWORD PTR _this$[ebp]
  00bac	c7 82 e0 01 00
	00 ff ff e1 00	 mov	 DWORD PTR [edx+480], 14811135 ; 00e1ffffH

; 172  : 
; 173  : 	return 0;

  00bb6	33 c0		 xor	 eax, eax
$L203206:

; 174  : }

  00bb8	8b e5		 mov	 esp, ebp
  00bba	5d		 pop	 ebp
  00bbb	c2 04 00	 ret	 4
?OnCreate@PlayedGameWnd@@IAEHPAUtagCREATESTRUCTA@@@Z ENDP ; PlayedGameWnd::OnCreate
_TEXT	ENDS
EXTRN	?OnKeyDown@CLocalMusicCoverList@@QAEXIII@Z:NEAR	; CLocalMusicCoverList::OnKeyDown
EXTRN	?GetItemInfoByIndex@CLocalMusicCoverList@@QAE?AU_tagLMCItemInfo@@H@Z:NEAR ; CLocalMusicCoverList::GetItemInfoByIndex
xdata$x	SEGMENT
$T205785 DD	0ffffffffH
	DD	FLAT:$L205777
	DD	00H
	DD	FLAT:$L205778
	DD	01H
	DD	FLAT:$L205779
	DD	01H
	DD	FLAT:$L205780
$T205782 DD	019930520H
	DD	04H
	DD	FLAT:$T205785
	DD	2 DUP(00H)
	DD	2 DUP(00H)
; Function compile flags: /Odt
xdata$x	ENDS
_TEXT	SEGMENT
tv139 = -160						; size = 4
tv133 = -156						; size = 4
tv170 = -152						; size = 4
tv77 = -148						; size = 4
_this$ = -144						; size = 4
$T205776 = -140						; size = 4
$T205775 = -136						; size = 4
$T205774 = -132						; size = 4
_it$203234 = -128					; size = 4
_ii$203232 = -124					; size = 68
__$ArrayPad$ = -52					; size = 4
_rv$203228 = -48					; size = 16
_vItem$203225 = -32					; size = 16
_i$203227 = -16						; size = 4
__$EHRec$ = -12						; size = 12
__$ReturnAddr$ = 4					; size = 4
_nChar$ = 8						; size = 4
_nRepCnt$ = 12						; size = 4
_nFlags$ = 16						; size = 4
?OnKeyDown@PlayedGameWnd@@IAEXIII@Z PROC NEAR		; PlayedGameWnd::OnKeyDown
; _this$ = ecx

; 177  : {

  00bc0	55		 push	 ebp
  00bc1	8b ec		 mov	 ebp, esp
  00bc3	6a ff		 push	 -1
  00bc5	68 00 00 00 00	 push	 __ehhandler$?OnKeyDown@PlayedGameWnd@@IAEXIII@Z
  00bca	64 a1 00 00 00
	00		 mov	 eax, DWORD PTR fs:__except_list
  00bd0	50		 push	 eax
  00bd1	64 89 25 00 00
	00 00		 mov	 DWORD PTR fs:__except_list, esp
  00bd8	81 ec 94 00 00
	00		 sub	 esp, 148		; 00000094H
  00bde	a1 00 00 00 00	 mov	 eax, DWORD PTR ___security_cookie
  00be3	89 45 cc	 mov	 DWORD PTR __$ArrayPad$[ebp], eax
  00be6	89 8d 70 ff ff
	ff		 mov	 DWORD PTR _this$[ebp], ecx

; 178  : 	if (nChar==VK_DELETE)

  00bec	83 7d 08 2e	 cmp	 DWORD PTR _nChar$[ebp], 46 ; 0000002eH
  00bf0	0f 85 67 01 00
	00		 jne	 $L203223

; 179  : 	{
; 180  : 		vector<int> vItem = GetSelectItem();

  00bf6	8d 45 e0	 lea	 eax, DWORD PTR _vItem$203225[ebp]
  00bf9	50		 push	 eax
  00bfa	8b 8d 70 ff ff
	ff		 mov	 ecx, DWORD PTR _this$[ebp]
  00c00	e8 00 00 00 00	 call	 ?GetSelectItem@CLocalMusicCoverList@@QAE?AV?$vector@HV?$allocator@H@std@@@std@@XZ ; CLocalMusicCoverList::GetSelectItem
  00c05	c7 45 fc 00 00
	00 00		 mov	 DWORD PTR __$EHRec$[ebp+8], 0

; 181  : 		int i = 0;

  00c0c	c7 45 f0 00 00
	00 00		 mov	 DWORD PTR _i$203227[ebp], 0

; 182  : 		RidVector rv;

  00c13	8d 4d d0	 lea	 ecx, DWORD PTR _rv$203228[ebp]
  00c16	e8 00 00 00 00	 call	 ??0?$vector@V?$basic_string@DU?$char_traits@D@std@@V?$allocator@D@2@@std@@V?$allocator@V?$basic_string@DU?$char_traits@D@std@@V?$allocator@D@2@@std@@@2@@std@@QAE@XZ ; std::vector<std::basic_string<char,std::char_traits<char>,std::allocator<char> >,std::allocator<std::basic_string<char,std::char_traits<char>,std::allocator<char> > > >::vector<std::basic_string<char,std::char_traits<char>,std::allocator<char> >,std::allocator<std::basic_string<char,std::char_traits<char>,std::allocator<char> > > >
  00c1b	c6 45 fc 01	 mov	 BYTE PTR __$EHRec$[ebp+8], 1

; 183  : 
; 184  : 		for( ; i<vItem.size(); i++  )

  00c1f	eb 09		 jmp	 SHORT $L203229
$L203230:
  00c21	8b 4d f0	 mov	 ecx, DWORD PTR _i$203227[ebp]
  00c24	83 c1 01	 add	 ecx, 1
  00c27	89 4d f0	 mov	 DWORD PTR _i$203227[ebp], ecx
$L203229:
  00c2a	8d 4d e0	 lea	 ecx, DWORD PTR _vItem$203225[ebp]
  00c2d	e8 00 00 00 00	 call	 ?size@?$vector@HV?$allocator@H@std@@@std@@QBEIXZ ; std::vector<int,std::allocator<int> >::size
  00c32	39 45 f0	 cmp	 DWORD PTR _i$203227[ebp], eax
  00c35	73 3c		 jae	 SHORT $L203231

; 185  : 		{
; 186  : 			LMC_ItemInfo ii = GetItemInfoByIndex( vItem[i] );

  00c37	8b 55 f0	 mov	 edx, DWORD PTR _i$203227[ebp]
  00c3a	52		 push	 edx
  00c3b	8d 4d e0	 lea	 ecx, DWORD PTR _vItem$203225[ebp]
  00c3e	e8 00 00 00 00	 call	 ??A?$vector@HV?$allocator@H@std@@@std@@QAEAAHI@Z ; std::vector<int,std::allocator<int> >::operator[]
  00c43	8b 00		 mov	 eax, DWORD PTR [eax]
  00c45	50		 push	 eax
  00c46	8d 4d 84	 lea	 ecx, DWORD PTR _ii$203232[ebp]
  00c49	51		 push	 ecx
  00c4a	8b 8d 70 ff ff
	ff		 mov	 ecx, DWORD PTR _this$[ebp]
  00c50	e8 00 00 00 00	 call	 ?GetItemInfoByIndex@CLocalMusicCoverList@@QAE?AU_tagLMCItemInfo@@H@Z ; CLocalMusicCoverList::GetItemInfoByIndex
  00c55	c6 45 fc 02	 mov	 BYTE PTR __$EHRec$[ebp+8], 2

; 187  : 			rv.push_back (ii.strGID);

  00c59	8d 55 84	 lea	 edx, DWORD PTR _ii$203232[ebp]
  00c5c	52		 push	 edx
  00c5d	8d 4d d0	 lea	 ecx, DWORD PTR _rv$203228[ebp]
  00c60	e8 00 00 00 00	 call	 ?push_back@?$vector@V?$basic_string@DU?$char_traits@D@std@@V?$allocator@D@2@@std@@V?$allocator@V?$basic_string@DU?$char_traits@D@std@@V?$allocator@D@2@@std@@@2@@std@@QAEXABV?$basic_string@DU?$char_traits@D@std@@V?$allocator@D@2@@2@@Z ; std::vector<std::basic_string<char,std::char_traits<char>,std::allocator<char> >,std::allocator<std::basic_string<char,std::char_traits<char>,std::allocator<char> > > >::push_back

; 188  : // 			GLOBAL_LOCALGAME->ILocalGameData_DelGame( ii.strGID );
; 189  : 		}

  00c65	c6 45 fc 01	 mov	 BYTE PTR __$EHRec$[ebp+8], 1
  00c69	8d 4d 84	 lea	 ecx, DWORD PTR _ii$203232[ebp]
  00c6c	e8 00 00 00 00	 call	 ??1_tagLMCItemInfo@@QAE@XZ
  00c71	eb ae		 jmp	 SHORT $L203230
$L203231:

; 190  : 
; 191  : 		for (RidVector::iterator it = rv.begin (); it != rv.end (); it++)

  00c73	8d 45 80	 lea	 eax, DWORD PTR _it$203234[ebp]
  00c76	50		 push	 eax
  00c77	8d 4d d0	 lea	 ecx, DWORD PTR _rv$203228[ebp]
  00c7a	e8 00 00 00 00	 call	 ?begin@?$vector@V?$basic_string@DU?$char_traits@D@std@@V?$allocator@D@2@@std@@V?$allocator@V?$basic_string@DU?$char_traits@D@std@@V?$allocator@D@2@@std@@@2@@std@@QAE?AViterator@12@XZ ; std::vector<std::basic_string<char,std::char_traits<char>,std::allocator<char> >,std::allocator<std::basic_string<char,std::char_traits<char>,std::allocator<char> > > >::begin
  00c7f	eb 11		 jmp	 SHORT $L203238
$L203239:
  00c81	6a 00		 push	 0
  00c83	8d 8d 7c ff ff
	ff		 lea	 ecx, DWORD PTR $T205774[ebp]
  00c89	51		 push	 ecx
  00c8a	8d 4d 80	 lea	 ecx, DWORD PTR _it$203234[ebp]
  00c8d	e8 00 00 00 00	 call	 ??Eiterator@?$vector@V?$basic_string@DU?$char_traits@D@std@@V?$allocator@D@2@@std@@V?$allocator@V?$basic_string@DU?$char_traits@D@std@@V?$allocator@D@2@@std@@@2@@std@@QAE?AV012@H@Z ; std::vector<std::basic_string<char,std::char_traits<char>,std::allocator<char> >,std::allocator<std::basic_string<char,std::char_traits<char>,std::allocator<char> > > >::iterator::operator++
$L203238:
  00c92	8d 95 78 ff ff
	ff		 lea	 edx, DWORD PTR $T205775[ebp]
  00c98	52		 push	 edx
  00c99	8d 4d d0	 lea	 ecx, DWORD PTR _rv$203228[ebp]
  00c9c	e8 00 00 00 00	 call	 ?end@?$vector@V?$basic_string@DU?$char_traits@D@std@@V?$allocator@D@2@@std@@V?$allocator@V?$basic_string@DU?$char_traits@D@std@@V?$allocator@D@2@@std@@@2@@std@@QAE?AViterator@12@XZ ; std::vector<std::basic_string<char,std::char_traits<char>,std::allocator<char> >,std::allocator<std::basic_string<char,std::char_traits<char>,std::allocator<char> > > >::end
  00ca1	50		 push	 eax
  00ca2	8d 4d 80	 lea	 ecx, DWORD PTR _it$203234[ebp]
  00ca5	e8 00 00 00 00	 call	 ??9const_iterator@?$vector@V?$basic_string@DU?$char_traits@D@std@@V?$allocator@D@2@@std@@V?$allocator@V?$basic_string@DU?$char_traits@D@std@@V?$allocator@D@2@@std@@@2@@std@@QBE_NABV012@@Z ; std::vector<std::basic_string<char,std::char_traits<char>,std::allocator<char> >,std::allocator<std::basic_string<char,std::char_traits<char>,std::allocator<char> > > >::const_iterator::operator!=
  00caa	0f b6 c0	 movzx	 eax, al
  00cad	85 c0		 test	 eax, eax
  00caf	74 71		 je	 SHORT $L203240

; 192  : 		{
; 193  : 			GLOBAL_LOCALGAME->ILocalGameData_DelGame(*it);

  00cb1	8d 4d 80	 lea	 ecx, DWORD PTR _it$203234[ebp]
  00cb4	e8 00 00 00 00	 call	 ??Diterator@?$vector@V?$basic_string@DU?$char_traits@D@std@@V?$allocator@D@2@@std@@V?$allocator@V?$basic_string@DU?$char_traits@D@std@@V?$allocator@D@2@@std@@@2@@std@@QBEAAV?$basic_string@DU?$char_traits@D@std@@V?$allocator@D@2@@2@XZ ; std::vector<std::basic_string<char,std::char_traits<char>,std::allocator<char> >,std::allocator<std::basic_string<char,std::char_traits<char>,std::allocator<char> > > >::iterator::operator*
  00cb9	83 ec 1c	 sub	 esp, 28			; 0000001cH
  00cbc	8b cc		 mov	 ecx, esp
  00cbe	89 a5 74 ff ff
	ff		 mov	 DWORD PTR $T205776[ebp], esp
  00cc4	50		 push	 eax
  00cc5	ff 15 00 00 00
	00		 call	 DWORD PTR __imp_??0?$basic_string@DU?$char_traits@D@std@@V?$allocator@D@2@@std@@QAE@ABV01@@Z
  00ccb	89 85 6c ff ff
	ff		 mov	 DWORD PTR tv77[ebp], eax
  00cd1	8b 8d 6c ff ff
	ff		 mov	 ecx, DWORD PTR tv77[ebp]
  00cd7	89 8d 68 ff ff
	ff		 mov	 DWORD PTR tv170[ebp], ecx
  00cdd	c6 45 fc 03	 mov	 BYTE PTR __$EHRec$[ebp+8], 3
  00ce1	e8 00 00 00 00	 call	 ?AfxGetDataManager2@@YAPAVIDataManager@@XZ ; AfxGetDataManager2
  00ce6	89 85 64 ff ff
	ff		 mov	 DWORD PTR tv133[ebp], eax
  00cec	68 00 00 00 00	 push	 OFFSET FLAT:_ID_DATA_LOCALGAME
  00cf1	8b 95 64 ff ff
	ff		 mov	 edx, DWORD PTR tv133[ebp]
  00cf7	8b 02		 mov	 eax, DWORD PTR [edx]
  00cf9	8b 8d 64 ff ff
	ff		 mov	 ecx, DWORD PTR tv133[ebp]
  00cff	ff 50 0c	 call	 DWORD PTR [eax+12]
  00d02	89 85 60 ff ff
	ff		 mov	 DWORD PTR tv139[ebp], eax
  00d08	8b 8d 60 ff ff
	ff		 mov	 ecx, DWORD PTR tv139[ebp]
  00d0e	8b 11		 mov	 edx, DWORD PTR [ecx]
  00d10	c6 45 fc 01	 mov	 BYTE PTR __$EHRec$[ebp+8], 1
  00d14	8b 8d 60 ff ff
	ff		 mov	 ecx, DWORD PTR tv139[ebp]
  00d1a	ff 52 14	 call	 DWORD PTR [edx+20]

; 194  : 		}

  00d1d	e9 5f ff ff ff	 jmp	 $L203239
$L203240:

; 195  : 
; 196  : 		rv.clear ();

  00d22	8d 4d d0	 lea	 ecx, DWORD PTR _rv$203228[ebp]
  00d25	e8 00 00 00 00	 call	 ?clear@?$vector@V?$basic_string@DU?$char_traits@D@std@@V?$allocator@D@2@@std@@V?$allocator@V?$basic_string@DU?$char_traits@D@std@@V?$allocator@D@2@@std@@@2@@std@@QAEXXZ ; std::vector<std::basic_string<char,std::char_traits<char>,std::allocator<char> >,std::allocator<std::basic_string<char,std::char_traits<char>,std::allocator<char> > > >::clear

; 197  : 
; 198  : 		UpdateList();

  00d2a	8b 8d 70 ff ff
	ff		 mov	 ecx, DWORD PTR _this$[ebp]
  00d30	e8 00 00 00 00	 call	 ?UpdateList@CLocalMusicCoverList@@IAEXXZ ; CLocalMusicCoverList::UpdateList

; 199  : 		OnMemoryDraw();

  00d35	6a 01		 push	 1
  00d37	8b 8d 70 ff ff
	ff		 mov	 ecx, DWORD PTR _this$[ebp]
  00d3d	e8 00 00 00 00	 call	 ?OnMemoryDraw@CLocalMusicCoverList@@IAEXH@Z ; CLocalMusicCoverList::OnMemoryDraw

; 200  : 
; 201  : // 		if( i > 0 ) //
; 202  : // 		{
; 203  : // 			ReGetData();
; 204  : // 		}		
; 205  : 	}

  00d42	c6 45 fc 00	 mov	 BYTE PTR __$EHRec$[ebp+8], 0
  00d46	8d 4d d0	 lea	 ecx, DWORD PTR _rv$203228[ebp]
  00d49	e8 00 00 00 00	 call	 ??1?$vector@V?$basic_string@DU?$char_traits@D@std@@V?$allocator@D@2@@std@@V?$allocator@V?$basic_string@DU?$char_traits@D@std@@V?$allocator@D@2@@std@@@2@@std@@QAE@XZ ; std::vector<std::basic_string<char,std::char_traits<char>,std::allocator<char> >,std::allocator<std::basic_string<char,std::char_traits<char>,std::allocator<char> > > >::~vector<std::basic_string<char,std::char_traits<char>,std::allocator<char> >,std::allocator<std::basic_string<char,std::char_traits<char>,std::allocator<char> > > >
  00d4e	c7 45 fc ff ff
	ff ff		 mov	 DWORD PTR __$EHRec$[ebp+8], -1
  00d55	8d 4d e0	 lea	 ecx, DWORD PTR _vItem$203225[ebp]
  00d58	e8 00 00 00 00	 call	 ??1?$vector@HV?$allocator@H@std@@@std@@QAE@XZ ; std::vector<int,std::allocator<int> >::~vector<int,std::allocator<int> >
$L203223:

; 206  : 	__super::OnKeyDown(nChar, nRepCnt, nFlags);

  00d5d	8b 45 10	 mov	 eax, DWORD PTR _nFlags$[ebp]
  00d60	50		 push	 eax
  00d61	8b 4d 0c	 mov	 ecx, DWORD PTR _nRepCnt$[ebp]
  00d64	51		 push	 ecx
  00d65	8b 55 08	 mov	 edx, DWORD PTR _nChar$[ebp]
  00d68	52		 push	 edx
  00d69	8b 8d 70 ff ff
	ff		 mov	 ecx, DWORD PTR _this$[ebp]
  00d6f	e8 00 00 00 00	 call	 ?OnKeyDown@CLocalMusicCoverList@@QAEXIII@Z ; CLocalMusicCoverList::OnKeyDown

; 207  : }

  00d74	8b 4d f4	 mov	 ecx, DWORD PTR __$EHRec$[ebp]
  00d77	64 89 0d 00 00
	00 00		 mov	 DWORD PTR fs:__except_list, ecx
  00d7e	8b 4d cc	 mov	 ecx, DWORD PTR __$ArrayPad$[ebp]
  00d81	e8 00 00 00 00	 call	 @__security_check_cookie@4
  00d86	8b e5		 mov	 esp, ebp
  00d88	5d		 pop	 ebp
  00d89	c2 0c 00	 ret	 12			; 0000000cH
_TEXT	ENDS
text$x	SEGMENT
$L205777:
  001b7	8d 4d e0	 lea	 ecx, DWORD PTR _vItem$203225[ebp]
  001ba	e9 00 00 00 00	 jmp	 ??1?$vector@HV?$allocator@H@std@@@std@@QAE@XZ ; std::vector<int,std::allocator<int> >::~vector<int,std::allocator<int> >
$L205778:
  001bf	8d 4d d0	 lea	 ecx, DWORD PTR _rv$203228[ebp]
  001c2	e9 00 00 00 00	 jmp	 ??1?$vector@V?$basic_string@DU?$char_traits@D@std@@V?$allocator@D@2@@std@@V?$allocator@V?$basic_string@DU?$char_traits@D@std@@V?$allocator@D@2@@std@@@2@@std@@QAE@XZ ; std::vector<std::basic_string<char,std::char_traits<char>,std::allocator<char> >,std::allocator<std::basic_string<char,std::char_traits<char>,std::allocator<char> > > >::~vector<std::basic_string<char,std::char_traits<char>,std::allocator<char> >,std::allocator<std::basic_string<char,std::char_traits<char>,std::allocator<char> > > >
$L205779:
  001c7	8d 4d 84	 lea	 ecx, DWORD PTR _ii$203232[ebp]
  001ca	e9 00 00 00 00	 jmp	 ??1_tagLMCItemInfo@@QAE@XZ
$L205780:
  001cf	8b 8d 74 ff ff
	ff		 mov	 ecx, DWORD PTR $T205776[ebp]
  001d5	ff 25 00 00 00
	00		 jmp	 DWORD PTR __imp_??1?$basic_string@DU?$char_traits@D@std@@V?$allocator@D@2@@std@@QAE@XZ
__ehhandler$?OnKeyDown@PlayedGameWnd@@IAEXIII@Z:
  001db	b8 00 00 00 00	 mov	 eax, OFFSET FLAT:$T205782
  001e0	e9 00 00 00 00	 jmp	 ___CxxFrameHandler
text$x	ENDS
?OnKeyDown@PlayedGameWnd@@IAEXIII@Z ENDP		; PlayedGameWnd::OnKeyDown
PUBLIC	?GetDC@CWnd@@QAEPAVCDC@@XZ			; CWnd::GetDC
PUBLIC	?DrawPlayBtn@PlayedGameWnd@@IAEXVCRect@@H@Z	; PlayedGameWnd::DrawPlayBtn
PUBLIC	?Width@CRect@@QBEHXZ				; CRect::Width
PUBLIC	?Height@CRect@@QBEHXZ				; CRect::Height
PUBLIC	??0Rect@Gdiplus@@QAE@HHHH@Z			; Gdiplus::Rect::Rect
PUBLIC	?DrawImage@Graphics@Gdiplus@@QAE?AW4Status@2@PAVImage@2@ABVRect@2@@Z ; Gdiplus::Graphics::DrawImage
PUBLIC	?_AtlGetConversionACP@ATL@@YGIXZ		; ATL::_AtlGetConversionACP
PUBLIC	??0Image@Gdiplus@@QAE@PB_WH@Z			; Gdiplus::Image::Image
PUBLIC	??1Image@Gdiplus@@UAE@XZ			; Gdiplus::Image::~Image
PUBLIC	?Clone@Image@Gdiplus@@UAEPAV12@XZ		; Gdiplus::Image::Clone
PUBLIC	?AtlA2WHelper@@YGPA_WPA_WPBDHI@Z		; AtlA2WHelper
PUBLIC	??0Graphics@Gdiplus@@QAE@PAUHDC__@@@Z		; Gdiplus::Graphics::Graphics
PUBLIC	??1Graphics@Gdiplus@@QAE@XZ			; Gdiplus::Graphics::~Graphics
EXTRN	__imp_?GetBuffer@?$CSimpleStringT@D$00@ATL@@QAEPADXZ:NEAR
EXTRN	__imp__lstrlenA@4:NEAR
EXTRN	__imp_??4?$CStringT@DV?$StrTraitMFC_DLL@DV?$ChTraitsCRT@D@ATL@@@@@ATL@@QAEAAV01@ABV01@@Z:NEAR
EXTRN	__imp_??Y?$CStringT@DV?$StrTraitMFC_DLL@DV?$ChTraitsCRT@D@ATL@@@@@ATL@@QAEAAV01@PBD@Z:NEAR
EXTRN	__imp_?ReverseFind@?$CStringT@DV?$StrTraitMFC_DLL@DV?$ChTraitsCRT@D@ATL@@@@@ATL@@QBEHD@Z:NEAR
EXTRN	__imp_?Mid@?$CStringT@DV?$StrTraitMFC_DLL@DV?$ChTraitsCRT@D@ATL@@@@@ATL@@QBE?AV12@HH@Z:NEAR
EXTRN	__imp__GetModuleFileNameA@12:NEAR
EXTRN	__alloca_probe:NEAR
;	COMDAT ?pImageNormal@?1??DrawPlayBtn@PlayedGameWnd@@IAEXVCRect@@H@Z@4PAVImage@Gdiplus@@A
_BSS	SEGMENT
?pImageNormal@?1??DrawPlayBtn@PlayedGameWnd@@IAEXVCRect@@H@Z@4PAVImage@Gdiplus@@A DD 01H DUP (?) ; `PlayedGameWnd::DrawPlayBtn'::`2'::pImageNormal
_BSS	ENDS
;	COMDAT ?pImageOver@?1??DrawPlayBtn@PlayedGameWnd@@IAEXVCRect@@H@Z@4PAVImage@Gdiplus@@A
_BSS	SEGMENT
?pImageOver@?1??DrawPlayBtn@PlayedGameWnd@@IAEXVCRect@@H@Z@4PAVImage@Gdiplus@@A DD 01H DUP (?) ; `PlayedGameWnd::DrawPlayBtn'::`2'::pImageOver
_BSS	ENDS
xdata$x	SEGMENT
$T205804 DD	0ffffffffH
	DD	FLAT:$L205793
	DD	00H
	DD	FLAT:$L205794
	DD	00H
	DD	FLAT:$L205795
	DD	02H
	DD	FLAT:$L205796
	DD	03H
	DD	FLAT:$L205797
	DD	0ffffffffH
	DD	FLAT:$L205798
$T205800 DD	019930520H
	DD	06H
	DD	FLAT:$T205804
	DD	2 DUP(00H)
	DD	2 DUP(00H)
xdata$x	ENDS
;	COMDAT ?blInit@?1??DrawPlayBtn@PlayedGameWnd@@IAEXVCRect@@H@Z@4HA
_DATA	SEGMENT
?blInit@?1??DrawPlayBtn@PlayedGameWnd@@IAEXVCRect@@H@Z@4HA DD 01H ; `PlayedGameWnd::DrawPlayBtn'::`2'::blInit
; Function compile flags: /Odt
_DATA	ENDS
_TEXT	SEGMENT
tv174 = -392						; size = 4
tv178 = -388						; size = 4
tv151 = -384						; size = 4
tv155 = -380						; size = 4
tv199 = -376						; size = 4
tv81 = -372						; size = 4
_this$ = -368						; size = 4
$T205788 = -364						; size = 4
_imgOver$203269 = -360					; size = 16
__lpa$203265 = -344					; size = 4
__acp$203263 = -340					; size = 4
_szPlaybtnOver$203259 = -336				; size = 4
_path_tmp$203256 = -332					; size = 260
__$ArrayPad$ = -68					; size = 4
__convert$203262 = -60					; size = 4
_img$203267 = -56					; size = 16
_szPlaybtnNormal$203257 = -40				; size = 4
_gc$ = -36						; size = 8
_rcImg$ = -28						; size = 16
__$EHRec$ = -12						; size = 12
__$ReturnAddr$ = 4					; size = 4
_rc$ = 8						; size = 16
_blNormal$ = 24						; size = 4
?DrawPlayBtn@PlayedGameWnd@@IAEXVCRect@@H@Z PROC NEAR	; PlayedGameWnd::DrawPlayBtn
; _this$ = ecx

; 210  : {

  00d90	55		 push	 ebp
  00d91	8b ec		 mov	 ebp, esp
  00d93	6a ff		 push	 -1
  00d95	68 00 00 00 00	 push	 __ehhandler$?DrawPlayBtn@PlayedGameWnd@@IAEXVCRect@@H@Z
  00d9a	64 a1 00 00 00
	00		 mov	 eax, DWORD PTR fs:__except_list
  00da0	50		 push	 eax
  00da1	64 89 25 00 00
	00 00		 mov	 DWORD PTR fs:__except_list, esp
  00da8	81 ec 7c 01 00
	00		 sub	 esp, 380		; 0000017cH
  00dae	a1 00 00 00 00	 mov	 eax, DWORD PTR ___security_cookie
  00db3	89 45 bc	 mov	 DWORD PTR __$ArrayPad$[ebp], eax
  00db6	57		 push	 edi
  00db7	89 8d 90 fe ff
	ff		 mov	 DWORD PTR _this$[ebp], ecx

; 211  : 	Rect rcImg(rc.left, rc.top,rc.Width(),rc.Height());

  00dbd	8d 4d 08	 lea	 ecx, DWORD PTR _rc$[ebp]
  00dc0	e8 00 00 00 00	 call	 ?Height@CRect@@QBEHXZ	; CRect::Height
  00dc5	50		 push	 eax
  00dc6	8d 4d 08	 lea	 ecx, DWORD PTR _rc$[ebp]
  00dc9	e8 00 00 00 00	 call	 ?Width@CRect@@QBEHXZ	; CRect::Width
  00dce	50		 push	 eax
  00dcf	8b 45 0c	 mov	 eax, DWORD PTR _rc$[ebp+4]
  00dd2	50		 push	 eax
  00dd3	8b 4d 08	 mov	 ecx, DWORD PTR _rc$[ebp]
  00dd6	51		 push	 ecx
  00dd7	8d 4d e4	 lea	 ecx, DWORD PTR _rcImg$[ebp]
  00dda	e8 00 00 00 00	 call	 ??0Rect@Gdiplus@@QAE@HHHH@Z ; Gdiplus::Rect::Rect

; 212  : 	static BOOL blInit=TRUE;
; 213  : 	static Image* pImageNormal = NULL;
; 214  : 	static Image* pImageOver = NULL;
; 215  : 	if (blInit)

  00ddf	83 3d 00 00 00
	00 00		 cmp	 DWORD PTR ?blInit@?1??DrawPlayBtn@PlayedGameWnd@@IAEXVCRect@@H@Z@4HA, 0
  00de6	0f 84 4a 02 00
	00		 je	 $L203255

; 216  : 	{
; 217  : 		blInit=FALSE;

  00dec	c7 05 00 00 00
	00 00 00 00 00	 mov	 DWORD PTR ?blInit@?1??DrawPlayBtn@PlayedGameWnd@@IAEXVCRect@@H@Z@4HA, 0

; 218  : 		TCHAR path_tmp[MAX_PATH]={0};

  00df6	c6 85 b4 fe ff
	ff 00		 mov	 BYTE PTR _path_tmp$203256[ebp], 0
  00dfd	b9 40 00 00 00	 mov	 ecx, 64			; 00000040H
  00e02	33 c0		 xor	 eax, eax
  00e04	8d bd b5 fe ff
	ff		 lea	 edi, DWORD PTR _path_tmp$203256[ebp+1]
  00e0a	f3 ab		 rep stosd
  00e0c	66 ab		 stosw
  00e0e	aa		 stosb

; 219  : 		::GetModuleFileName(NULL,path_tmp,MAX_PATH);

  00e0f	68 04 01 00 00	 push	 260			; 00000104H
  00e14	8d 95 b4 fe ff
	ff		 lea	 edx, DWORD PTR _path_tmp$203256[ebp]
  00e1a	52		 push	 edx
  00e1b	6a 00		 push	 0
  00e1d	ff 15 00 00 00
	00		 call	 DWORD PTR __imp__GetModuleFileNameA@12

; 220  : 		CString szPlaybtnNormal(path_tmp);

  00e23	8d 85 b4 fe ff
	ff		 lea	 eax, DWORD PTR _path_tmp$203256[ebp]
  00e29	50		 push	 eax
  00e2a	8d 4d d8	 lea	 ecx, DWORD PTR _szPlaybtnNormal$203257[ebp]
  00e2d	ff 15 00 00 00
	00		 call	 DWORD PTR __imp_??0?$CStringT@DV?$StrTraitMFC_DLL@DV?$ChTraitsCRT@D@ATL@@@@@ATL@@QAE@PBD@Z
  00e33	c7 45 fc 00 00
	00 00		 mov	 DWORD PTR __$EHRec$[ebp+8], 0

; 221  : 		szPlaybtnNormal=szPlaybtnNormal.Mid(0,szPlaybtnNormal.ReverseFind('\\'));

  00e3a	6a 5c		 push	 92			; 0000005cH
  00e3c	8d 4d d8	 lea	 ecx, DWORD PTR _szPlaybtnNormal$203257[ebp]
  00e3f	ff 15 00 00 00
	00		 call	 DWORD PTR __imp_?ReverseFind@?$CStringT@DV?$StrTraitMFC_DLL@DV?$ChTraitsCRT@D@ATL@@@@@ATL@@QBEHD@Z
  00e45	50		 push	 eax
  00e46	6a 00		 push	 0
  00e48	8d 8d 94 fe ff
	ff		 lea	 ecx, DWORD PTR $T205788[ebp]
  00e4e	51		 push	 ecx
  00e4f	8d 4d d8	 lea	 ecx, DWORD PTR _szPlaybtnNormal$203257[ebp]
  00e52	ff 15 00 00 00
	00		 call	 DWORD PTR __imp_?Mid@?$CStringT@DV?$StrTraitMFC_DLL@DV?$ChTraitsCRT@D@ATL@@@@@ATL@@QBE?AV12@HH@Z
  00e58	89 85 8c fe ff
	ff		 mov	 DWORD PTR tv81[ebp], eax
  00e5e	8b 95 8c fe ff
	ff		 mov	 edx, DWORD PTR tv81[ebp]
  00e64	89 95 88 fe ff
	ff		 mov	 DWORD PTR tv199[ebp], edx
  00e6a	c6 45 fc 01	 mov	 BYTE PTR __$EHRec$[ebp+8], 1
  00e6e	8b 85 88 fe ff
	ff		 mov	 eax, DWORD PTR tv199[ebp]
  00e74	50		 push	 eax
  00e75	8d 4d d8	 lea	 ecx, DWORD PTR _szPlaybtnNormal$203257[ebp]
  00e78	ff 15 00 00 00
	00		 call	 DWORD PTR __imp_??4?$CStringT@DV?$StrTraitMFC_DLL@DV?$ChTraitsCRT@D@ATL@@@@@ATL@@QAEAAV01@ABV01@@Z
  00e7e	c6 45 fc 00	 mov	 BYTE PTR __$EHRec$[ebp+8], 0
  00e82	8d 8d 94 fe ff
	ff		 lea	 ecx, DWORD PTR $T205788[ebp]
  00e88	ff 15 00 00 00
	00		 call	 DWORD PTR __imp_??1?$CStringT@DV?$StrTraitMFC_DLL@DV?$ChTraitsCRT@D@ATL@@@@@ATL@@QAE@XZ

; 222  : 		CString szPlaybtnOver = szPlaybtnNormal;

  00e8e	8d 4d d8	 lea	 ecx, DWORD PTR _szPlaybtnNormal$203257[ebp]
  00e91	51		 push	 ecx
  00e92	8d 8d b0 fe ff
	ff		 lea	 ecx, DWORD PTR _szPlaybtnOver$203259[ebp]
  00e98	ff 15 00 00 00
	00		 call	 DWORD PTR __imp_??0?$CStringT@DV?$StrTraitMFC_DLL@DV?$ChTraitsCRT@D@ATL@@@@@ATL@@QAE@ABV01@@Z
  00e9e	c6 45 fc 02	 mov	 BYTE PTR __$EHRec$[ebp+8], 2

; 223  : 		szPlaybtnNormal+="\\CoverPlayNormal.png";

  00ea2	68 00 00 00 00	 push	 OFFSET FLAT:$SG203260
  00ea7	8d 4d d8	 lea	 ecx, DWORD PTR _szPlaybtnNormal$203257[ebp]
  00eaa	ff 15 00 00 00
	00		 call	 DWORD PTR __imp_??Y?$CStringT@DV?$StrTraitMFC_DLL@DV?$ChTraitsCRT@D@ATL@@@@@ATL@@QAEAAV01@PBD@Z

; 224  : 		szPlaybtnOver += "\\CoverPlayOver.png";

  00eb0	68 00 00 00 00	 push	 OFFSET FLAT:$SG203261
  00eb5	8d 8d b0 fe ff
	ff		 lea	 ecx, DWORD PTR _szPlaybtnOver$203259[ebp]
  00ebb	ff 15 00 00 00
	00		 call	 DWORD PTR __imp_??Y?$CStringT@DV?$StrTraitMFC_DLL@DV?$ChTraitsCRT@D@ATL@@@@@ATL@@QAEAAV01@PBD@Z

; 225  : 		USES_CONVERSION;

  00ec1	e8 00 00 00 00	 call	 ?_AtlGetConversionACP@ATL@@YGIXZ ; ATL::_AtlGetConversionACP
  00ec6	89 85 ac fe ff
	ff		 mov	 DWORD PTR __acp$203263[ebp], eax

; 226  : 		Image img(A2W(szPlaybtnNormal.GetBuffer()),FALSE );

  00ecc	8d 4d d8	 lea	 ecx, DWORD PTR _szPlaybtnNormal$203257[ebp]
  00ecf	ff 15 00 00 00
	00		 call	 DWORD PTR __imp_?GetBuffer@?$CSimpleStringT@D$00@ATL@@QAEPADXZ
  00ed5	89 85 a8 fe ff
	ff		 mov	 DWORD PTR __lpa$203265[ebp], eax
  00edb	83 bd a8 fe ff
	ff 00		 cmp	 DWORD PTR __lpa$203265[ebp], 0
  00ee2	75 0c		 jne	 SHORT $L205789
  00ee4	c7 85 84 fe ff
	ff 00 00 00 00	 mov	 DWORD PTR tv155[ebp], 0
  00eee	eb 4d		 jmp	 SHORT $L205790
$L205789:
  00ef0	8b 95 a8 fe ff
	ff		 mov	 edx, DWORD PTR __lpa$203265[ebp]
  00ef6	52		 push	 edx
  00ef7	ff 15 00 00 00
	00		 call	 DWORD PTR __imp__lstrlenA@4
  00efd	83 c0 01	 add	 eax, 1
  00f00	89 45 c4	 mov	 DWORD PTR __convert$203262[ebp], eax
  00f03	8b 45 c4	 mov	 eax, DWORD PTR __convert$203262[ebp]
  00f06	d1 e0		 shl	 eax, 1
  00f08	83 c0 03	 add	 eax, 3
  00f0b	83 e0 fc	 and	 eax, -4			; fffffffcH
  00f0e	e8 00 00 00 00	 call	 __alloca_probe
  00f13	89 a5 80 fe ff
	ff		 mov	 DWORD PTR tv151[ebp], esp
  00f19	8b 85 ac fe ff
	ff		 mov	 eax, DWORD PTR __acp$203263[ebp]
  00f1f	50		 push	 eax
  00f20	8b 4d c4	 mov	 ecx, DWORD PTR __convert$203262[ebp]
  00f23	51		 push	 ecx
  00f24	8b 95 a8 fe ff
	ff		 mov	 edx, DWORD PTR __lpa$203265[ebp]
  00f2a	52		 push	 edx
  00f2b	8b 85 80 fe ff
	ff		 mov	 eax, DWORD PTR tv151[ebp]
  00f31	50		 push	 eax
  00f32	e8 00 00 00 00	 call	 ?AtlA2WHelper@@YGPA_WPA_WPBDHI@Z ; AtlA2WHelper
  00f37	89 85 84 fe ff
	ff		 mov	 DWORD PTR tv155[ebp], eax
$L205790:
  00f3d	6a 00		 push	 0
  00f3f	8b 8d 84 fe ff
	ff		 mov	 ecx, DWORD PTR tv155[ebp]
  00f45	51		 push	 ecx
  00f46	8d 4d c8	 lea	 ecx, DWORD PTR _img$203267[ebp]
  00f49	e8 00 00 00 00	 call	 ??0Image@Gdiplus@@QAE@PB_WH@Z ; Gdiplus::Image::Image
  00f4e	c6 45 fc 03	 mov	 BYTE PTR __$EHRec$[ebp+8], 3

; 227  : 		pImageNormal=img.Clone();

  00f52	8d 4d c8	 lea	 ecx, DWORD PTR _img$203267[ebp]
  00f55	e8 00 00 00 00	 call	 ?Clone@Image@Gdiplus@@UAEPAV12@XZ ; Gdiplus::Image::Clone
  00f5a	a3 00 00 00 00	 mov	 DWORD PTR ?pImageNormal@?1??DrawPlayBtn@PlayedGameWnd@@IAEXVCRect@@H@Z@4PAVImage@Gdiplus@@A, eax

; 228  : 		Image imgOver(A2W(szPlaybtnOver.GetBuffer()));

  00f5f	8d 8d b0 fe ff
	ff		 lea	 ecx, DWORD PTR _szPlaybtnOver$203259[ebp]
  00f65	ff 15 00 00 00
	00		 call	 DWORD PTR __imp_?GetBuffer@?$CSimpleStringT@D$00@ATL@@QAEPADXZ
  00f6b	89 85 a8 fe ff
	ff		 mov	 DWORD PTR __lpa$203265[ebp], eax
  00f71	83 bd a8 fe ff
	ff 00		 cmp	 DWORD PTR __lpa$203265[ebp], 0
  00f78	75 0c		 jne	 SHORT $L205791
  00f7a	c7 85 7c fe ff
	ff 00 00 00 00	 mov	 DWORD PTR tv178[ebp], 0
  00f84	eb 4d		 jmp	 SHORT $L205792
$L205791:
  00f86	8b 95 a8 fe ff
	ff		 mov	 edx, DWORD PTR __lpa$203265[ebp]
  00f8c	52		 push	 edx
  00f8d	ff 15 00 00 00
	00		 call	 DWORD PTR __imp__lstrlenA@4
  00f93	83 c0 01	 add	 eax, 1
  00f96	89 45 c4	 mov	 DWORD PTR __convert$203262[ebp], eax
  00f99	8b 45 c4	 mov	 eax, DWORD PTR __convert$203262[ebp]
  00f9c	d1 e0		 shl	 eax, 1
  00f9e	83 c0 03	 add	 eax, 3
  00fa1	83 e0 fc	 and	 eax, -4			; fffffffcH
  00fa4	e8 00 00 00 00	 call	 __alloca_probe
  00fa9	89 a5 78 fe ff
	ff		 mov	 DWORD PTR tv174[ebp], esp
  00faf	8b 85 ac fe ff
	ff		 mov	 eax, DWORD PTR __acp$203263[ebp]
  00fb5	50		 push	 eax
  00fb6	8b 4d c4	 mov	 ecx, DWORD PTR __convert$203262[ebp]
  00fb9	51		 push	 ecx
  00fba	8b 95 a8 fe ff
	ff		 mov	 edx, DWORD PTR __lpa$203265[ebp]
  00fc0	52		 push	 edx
  00fc1	8b 85 78 fe ff
	ff		 mov	 eax, DWORD PTR tv174[ebp]
  00fc7	50		 push	 eax
  00fc8	e8 00 00 00 00	 call	 ?AtlA2WHelper@@YGPA_WPA_WPBDHI@Z ; AtlA2WHelper
  00fcd	89 85 7c fe ff
	ff		 mov	 DWORD PTR tv178[ebp], eax
$L205792:
  00fd3	6a 00		 push	 0
  00fd5	8b 8d 7c fe ff
	ff		 mov	 ecx, DWORD PTR tv178[ebp]
  00fdb	51		 push	 ecx
  00fdc	8d 8d 98 fe ff
	ff		 lea	 ecx, DWORD PTR _imgOver$203269[ebp]
  00fe2	e8 00 00 00 00	 call	 ??0Image@Gdiplus@@QAE@PB_WH@Z ; Gdiplus::Image::Image
  00fe7	c6 45 fc 04	 mov	 BYTE PTR __$EHRec$[ebp+8], 4

; 229  : 		pImageOver = imgOver.Clone();

  00feb	8d 8d 98 fe ff
	ff		 lea	 ecx, DWORD PTR _imgOver$203269[ebp]
  00ff1	e8 00 00 00 00	 call	 ?Clone@Image@Gdiplus@@UAEPAV12@XZ ; Gdiplus::Image::Clone
  00ff6	a3 00 00 00 00	 mov	 DWORD PTR ?pImageOver@?1??DrawPlayBtn@PlayedGameWnd@@IAEXVCRect@@H@Z@4PAVImage@Gdiplus@@A, eax

; 230  : 	}

  00ffb	c6 45 fc 03	 mov	 BYTE PTR __$EHRec$[ebp+8], 3
  00fff	8d 8d 98 fe ff
	ff		 lea	 ecx, DWORD PTR _imgOver$203269[ebp]
  01005	e8 00 00 00 00	 call	 ??1Image@Gdiplus@@UAE@XZ ; Gdiplus::Image::~Image
  0100a	c6 45 fc 02	 mov	 BYTE PTR __$EHRec$[ebp+8], 2
  0100e	8d 4d c8	 lea	 ecx, DWORD PTR _img$203267[ebp]
  01011	e8 00 00 00 00	 call	 ??1Image@Gdiplus@@UAE@XZ ; Gdiplus::Image::~Image
  01016	c6 45 fc 00	 mov	 BYTE PTR __$EHRec$[ebp+8], 0
  0101a	8d 8d b0 fe ff
	ff		 lea	 ecx, DWORD PTR _szPlaybtnOver$203259[ebp]
  01020	ff 15 00 00 00
	00		 call	 DWORD PTR __imp_??1?$CStringT@DV?$StrTraitMFC_DLL@DV?$ChTraitsCRT@D@ATL@@@@@ATL@@QAE@XZ
  01026	c7 45 fc ff ff
	ff ff		 mov	 DWORD PTR __$EHRec$[ebp+8], -1
  0102d	8d 4d d8	 lea	 ecx, DWORD PTR _szPlaybtnNormal$203257[ebp]
  01030	ff 15 00 00 00
	00		 call	 DWORD PTR __imp_??1?$CStringT@DV?$StrTraitMFC_DLL@DV?$ChTraitsCRT@D@ATL@@@@@ATL@@QAE@XZ
$L203255:

; 231  : 	Graphics gc(GetDC()->m_hDC);

  01036	8b 8d 90 fe ff
	ff		 mov	 ecx, DWORD PTR _this$[ebp]
  0103c	e8 00 00 00 00	 call	 ?GetDC@CWnd@@QAEPAVCDC@@XZ ; CWnd::GetDC
  01041	8b 50 04	 mov	 edx, DWORD PTR [eax+4]
  01044	52		 push	 edx
  01045	8d 4d dc	 lea	 ecx, DWORD PTR _gc$[ebp]
  01048	e8 00 00 00 00	 call	 ??0Graphics@Gdiplus@@QAE@PAUHDC__@@@Z ; Gdiplus::Graphics::Graphics
  0104d	c7 45 fc 05 00
	00 00		 mov	 DWORD PTR __$EHRec$[ebp+8], 5

; 232  : 	if (blNormal)

  01054	83 7d 18 00	 cmp	 DWORD PTR _blNormal$[ebp], 0
  01058	74 15		 je	 SHORT $L203271

; 233  : 		gc.DrawImage(pImageNormal,rcImg);

  0105a	8d 45 e4	 lea	 eax, DWORD PTR _rcImg$[ebp]
  0105d	50		 push	 eax
  0105e	8b 0d 00 00 00
	00		 mov	 ecx, DWORD PTR ?pImageNormal@?1??DrawPlayBtn@PlayedGameWnd@@IAEXVCRect@@H@Z@4PAVImage@Gdiplus@@A
  01064	51		 push	 ecx
  01065	8d 4d dc	 lea	 ecx, DWORD PTR _gc$[ebp]
  01068	e8 00 00 00 00	 call	 ?DrawImage@Graphics@Gdiplus@@QAE?AW4Status@2@PAVImage@2@ABVRect@2@@Z ; Gdiplus::Graphics::DrawImage

; 234  : 	else

  0106d	eb 12		 jmp	 SHORT $L203272
$L203271:

; 235  : 		gc.DrawImage(pImageOver,rcImg);

  0106f	8d 55 e4	 lea	 edx, DWORD PTR _rcImg$[ebp]
  01072	52		 push	 edx
  01073	a1 00 00 00 00	 mov	 eax, DWORD PTR ?pImageOver@?1??DrawPlayBtn@PlayedGameWnd@@IAEXVCRect@@H@Z@4PAVImage@Gdiplus@@A
  01078	50		 push	 eax
  01079	8d 4d dc	 lea	 ecx, DWORD PTR _gc$[ebp]
  0107c	e8 00 00 00 00	 call	 ?DrawImage@Graphics@Gdiplus@@QAE?AW4Status@2@PAVImage@2@ABVRect@2@@Z ; Gdiplus::Graphics::DrawImage
$L203272:

; 236  : }

  01081	c7 45 fc ff ff
	ff ff		 mov	 DWORD PTR __$EHRec$[ebp+8], -1
  01088	8d 4d dc	 lea	 ecx, DWORD PTR _gc$[ebp]
  0108b	e8 00 00 00 00	 call	 ??1Graphics@Gdiplus@@QAE@XZ ; Gdiplus::Graphics::~Graphics
  01090	8d a5 74 fe ff
	ff		 lea	 esp, DWORD PTR [ebp-396]
  01096	8b 4d f4	 mov	 ecx, DWORD PTR __$EHRec$[ebp]
  01099	64 89 0d 00 00
	00 00		 mov	 DWORD PTR fs:__except_list, ecx
  010a0	8b 4d bc	 mov	 ecx, DWORD PTR __$ArrayPad$[ebp]
  010a3	e8 00 00 00 00	 call	 @__security_check_cookie@4
  010a8	5f		 pop	 edi
  010a9	8b e5		 mov	 esp, ebp
  010ab	5d		 pop	 ebp
  010ac	c2 14 00	 ret	 20			; 00000014H
_TEXT	ENDS
text$x	SEGMENT
$L205793:
  001e5	8d 4d d8	 lea	 ecx, DWORD PTR _szPlaybtnNormal$203257[ebp]
  001e8	ff 25 00 00 00
	00		 jmp	 DWORD PTR __imp_??1?$CStringT@DV?$StrTraitMFC_DLL@DV?$ChTraitsCRT@D@ATL@@@@@ATL@@QAE@XZ
$L205794:
  001ee	8d 8d 94 fe ff
	ff		 lea	 ecx, DWORD PTR $T205788[ebp]
  001f4	ff 25 00 00 00
	00		 jmp	 DWORD PTR __imp_??1?$CStringT@DV?$StrTraitMFC_DLL@DV?$ChTraitsCRT@D@ATL@@@@@ATL@@QAE@XZ
$L205795:
  001fa	8d 8d b0 fe ff
	ff		 lea	 ecx, DWORD PTR _szPlaybtnOver$203259[ebp]
  00200	ff 25 00 00 00
	00		 jmp	 DWORD PTR __imp_??1?$CStringT@DV?$StrTraitMFC_DLL@DV?$ChTraitsCRT@D@ATL@@@@@ATL@@QAE@XZ
$L205796:
  00206	8d 4d c8	 lea	 ecx, DWORD PTR _img$203267[ebp]
  00209	e9 00 00 00 00	 jmp	 ??1Image@Gdiplus@@UAE@XZ ; Gdiplus::Image::~Image
$L205797:
  0020e	8d 8d 98 fe ff
	ff		 lea	 ecx, DWORD PTR _imgOver$203269[ebp]
  00214	e9 00 00 00 00	 jmp	 ??1Image@Gdiplus@@UAE@XZ ; Gdiplus::Image::~Image
$L205798:
  00219	8d 4d dc	 lea	 ecx, DWORD PTR _gc$[ebp]
  0021c	e9 00 00 00 00	 jmp	 ??1Graphics@Gdiplus@@QAE@XZ ; Gdiplus::Graphics::~Graphics
__ehhandler$?DrawPlayBtn@PlayedGameWnd@@IAEXVCRect@@H@Z:
  00221	b8 00 00 00 00	 mov	 eax, OFFSET FLAT:$T205800
  00226	e9 00 00 00 00	 jmp	 ___CxxFrameHandler
text$x	ENDS
?DrawPlayBtn@PlayedGameWnd@@IAEXVCRect@@H@Z ENDP	; PlayedGameWnd::DrawPlayBtn
; Function compile flags: /Odt
; File d:\program files (x86)\microsoft visual studio .net 2003\vc7\atlmfc\include\atlconv.h
;	COMDAT ?_AtlGetConversionACP@ATL@@YGIXZ
_TEXT	SEGMENT
?_AtlGetConversionACP@ATL@@YGIXZ PROC NEAR		; ATL::_AtlGetConversionACP, COMDAT

; 157  : {

  00000	55		 push	 ebp
  00001	8b ec		 mov	 ebp, esp

; 158  : 	return( g_pfnGetThreadACP() );

  00003	ff 15 00 00 00
	00		 call	 DWORD PTR ?g_pfnGetThreadACP@ATL@@3P6GIXZA ; ATL::g_pfnGetThreadACP

; 159  : }

  00009	5d		 pop	 ebp
  0000a	c3		 ret	 0
?_AtlGetConversionACP@ATL@@YGIXZ ENDP			; ATL::_AtlGetConversionACP
_TEXT	ENDS
EXTRN	__imp__MultiByteToWideChar@24:NEAR
; Function compile flags: /Odt
;	COMDAT ?AtlA2WHelper@@YGPA_WPA_WPBDHI@Z
_TEXT	SEGMENT
_ret$ = -4						; size = 4
_lpw$ = 8						; size = 4
_lpa$ = 12						; size = 4
_nChars$ = 16						; size = 4
_acp$ = 20						; size = 4
?AtlA2WHelper@@YGPA_WPA_WPBDHI@Z PROC NEAR		; AtlA2WHelper, COMDAT

; 554  : {

  00000	55		 push	 ebp
  00001	8b ec		 mov	 ebp, esp
  00003	51		 push	 ecx

; 555  : 	ATLASSERT(lpa != NULL);
; 556  : 	ATLASSERT(lpw != NULL);
; 557  : 	if (lpw == NULL || lpa == NULL)

  00004	83 7d 08 00	 cmp	 DWORD PTR _lpw$[ebp], 0
  00008	74 06		 je	 SHORT $L24306
  0000a	83 7d 0c 00	 cmp	 DWORD PTR _lpa$[ebp], 0
  0000e	75 04		 jne	 SHORT $L24305
$L24306:

; 558  : 		return NULL;

  00010	33 c0		 xor	 eax, eax
  00012	eb 32		 jmp	 SHORT $L24302
$L24305:

; 559  : 	// verify that no illegal character present
; 560  : 	// since lpw was allocated based on the size of lpa
; 561  : 	// don't worry about the number of chars
; 562  : 	lpw[0] = '\0';

  00014	8b 45 08	 mov	 eax, DWORD PTR _lpw$[ebp]
  00017	66 c7 00 00 00	 mov	 WORD PTR [eax], 0

; 563  : 	int ret = MultiByteToWideChar(acp, 0, lpa, -1, lpw, nChars);

  0001c	8b 4d 10	 mov	 ecx, DWORD PTR _nChars$[ebp]
  0001f	51		 push	 ecx
  00020	8b 55 08	 mov	 edx, DWORD PTR _lpw$[ebp]
  00023	52		 push	 edx
  00024	6a ff		 push	 -1
  00026	8b 45 0c	 mov	 eax, DWORD PTR _lpa$[ebp]
  00029	50		 push	 eax
  0002a	6a 00		 push	 0
  0002c	8b 4d 14	 mov	 ecx, DWORD PTR _acp$[ebp]
  0002f	51		 push	 ecx
  00030	ff 15 00 00 00
	00		 call	 DWORD PTR __imp__MultiByteToWideChar@24
  00036	89 45 fc	 mov	 DWORD PTR _ret$[ebp], eax

; 564  : 	if(ret == 0)

  00039	83 7d fc 00	 cmp	 DWORD PTR _ret$[ebp], 0
  0003d	75 04		 jne	 SHORT $L24308

; 565  : 	{
; 566  : 		ATLASSERT(FALSE);
; 567  : 		return NULL;

  0003f	33 c0		 xor	 eax, eax
  00041	eb 03		 jmp	 SHORT $L24302
$L24308:

; 568  : 	}		
; 569  : 	return lpw;

  00043	8b 45 08	 mov	 eax, DWORD PTR _lpw$[ebp]
$L24302:

; 570  : }

  00046	8b e5		 mov	 esp, ebp
  00048	5d		 pop	 ebp
  00049	c2 10 00	 ret	 16			; 00000010H
?AtlA2WHelper@@YGPA_WPA_WPBDHI@Z ENDP			; AtlA2WHelper
_TEXT	ENDS
PUBLIC	??0CPoint@@QAE@HH@Z				; CPoint::CPoint
PUBLIC	?RedrawWindow@CWnd@@QAEHPBUtagRECT@@PAVCRgn@@I@Z ; CWnd::RedrawWindow
PUBLIC	??9CPoint@@QBEHUtagPOINT@@@Z			; CPoint::operator!=
PUBLIC	?IsRectNull@CRect@@QBEHXZ			; CRect::IsRectNull
PUBLIC	?PtInRect@CRect@@QBEHUtagPOINT@@@Z		; CRect::PtInRect
PUBLIC	?SetRect@CRect@@QAEXHHHH@Z			; CRect::SetRect
PUBLIC	??0OneLocalGame@@QAE@XZ				; OneLocalGame::OneLocalGame
PUBLIC	??1OneLocalGame@@QAE@XZ				; OneLocalGame::~OneLocalGame
EXTRN	?OnMouseMove@CLocalMusicCoverList@@QAEXIVCPoint@@@Z:NEAR ; CLocalMusicCoverList::OnMouseMove
EXTRN	__imp_?Format@?$CStringT@DV?$StrTraitMFC_DLL@DV?$ChTraitsCRT@D@ATL@@@@@ATL@@QAAXPBDZZ:NEAR
EXTRN	__imp__GetCursorPos@4:NEAR
EXTRN	_memset:NEAR
EXTRN	__imp___TrackMouseEvent@4:NEAR
EXTRN	?ShowToolTips@CCWToolTips@@QAEXV?$CStringT@DV?$StrTraitMFC_DLL@DV?$ChTraitsCRT@D@ATL@@@@@ATL@@VCPoint@@H@Z:NEAR ; CCWToolTips::ShowToolTips
EXTRN	?HideTooTips@CCWToolTips@@QAEXXZ:NEAR		; CCWToolTips::HideTooTips
EXTRN	__imp_??4?$basic_string@DU?$char_traits@D@std@@V?$allocator@D@2@@std@@QAEAAV01@PBD@Z:NEAR
;	COMDAT ?rcPre@?7??OnMouseMove@PlayedGameWnd@@IAEXIVCPoint@@@Z@4VCRect@@A
; File d:\boxgit\playbox\playbox\dev\prj\playbox\src\module\playedgamepanel\playedgamewnd.cpp
_BSS	SEGMENT
?rcPre@?7??OnMouseMove@PlayedGameWnd@@IAEXIVCPoint@@@Z@4VCRect@@A DB 010H DUP (?) ; `PlayedGameWnd::OnMouseMove'::`8'::rcPre
_BSS	ENDS
;	COMDAT ?$S9@?7??OnMouseMove@PlayedGameWnd@@IAEXIVCPoint@@@Z@4IA
_BSS	SEGMENT
?$S9@?7??OnMouseMove@PlayedGameWnd@@IAEXIVCPoint@@@Z@4IA DD 01H DUP (?) ; `PlayedGameWnd::OnMouseMove'::`8'::$S9
_BSS	ENDS
xdata$x	SEGMENT
$T205829 DD	0ffffffffH
	DD	FLAT:$L205819
	DD	00H
	DD	FLAT:$L205820
	DD	01H
	DD	FLAT:$L205821
	DD	02H
	DD	FLAT:$L205822
	DD	03H
	DD	FLAT:$L205823
$T205826 DD	019930520H
	DD	05H
	DD	FLAT:$T205829
	DD	2 DUP(00H)
	DD	2 DUP(00H)
xdata$x	ENDS
;	COMDAT ?ipreITem@?7??OnMouseMove@PlayedGameWnd@@IAEXIVCPoint@@@Z@4HA
_DATA	SEGMENT
?ipreITem@?7??OnMouseMove@PlayedGameWnd@@IAEXIVCPoint@@@Z@4HA DD 0ffffffffH ; `PlayedGameWnd::OnMouseMove'::`8'::ipreITem
_DATA	ENDS
;	COMDAT ?ipreon@?7??OnMouseMove@PlayedGameWnd@@IAEXIVCPoint@@@Z@4HA
_DATA	SEGMENT
?ipreon@?7??OnMouseMove@PlayedGameWnd@@IAEXIVCPoint@@@Z@4HA DD 0ffffffffH ; `PlayedGameWnd::OnMouseMove'::`8'::ipreon
; Function compile flags: /Odt
_DATA	ENDS
_TEXT	SEGMENT
tv346 = -372						; size = 4
tv342 = -365						; size = 1
tv260 = -364						; size = 4
tv222 = -360						; size = 4
tv341 = -356						; size = 4
tv211 = -352						; size = 4
_this$ = -348						; size = 4
$T205817 = -344						; size = 4
$T205816 = -340						; size = 8
$T205815 = -332						; size = 4
$T205814 = -328						; size = 8
$T205813 = -320						; size = 8
_info$203307 = -312					; size = 4
_og$203309 = -308					; size = 144
_gc$203295 = -164					; size = 8
_ii$203308 = -156					; size = 68
__$ArrayPad$ = -84					; size = 4
_rcImg$203297 = -80					; size = 16
_pt$203317 = -64					; size = 8
_rc$203296 = -56					; size = 16
_ihitarea$203298 = -40					; size = 4
_tme$203279 = -36					; size = 16
_blHitTest$ = -20					; size = 4
_iItem$ = -16						; size = 4
__$EHRec$ = -12						; size = 12
__$ReturnAddr$ = 4					; size = 4
_nFlags$ = 8						; size = 4
_point$ = 12						; size = 8
?OnMouseMove@PlayedGameWnd@@IAEXIVCPoint@@@Z PROC NEAR	; PlayedGameWnd::OnMouseMove
; _this$ = ecx

; 239  : {

  010b0	55		 push	 ebp
  010b1	8b ec		 mov	 ebp, esp
  010b3	6a ff		 push	 -1
  010b5	68 00 00 00 00	 push	 __ehhandler$?OnMouseMove@PlayedGameWnd@@IAEXIVCPoint@@@Z
  010ba	64 a1 00 00 00
	00		 mov	 eax, DWORD PTR fs:__except_list
  010c0	50		 push	 eax
  010c1	64 89 25 00 00
	00 00		 mov	 DWORD PTR fs:__except_list, esp
  010c8	81 ec 68 01 00
	00		 sub	 esp, 360		; 00000168H
  010ce	a1 00 00 00 00	 mov	 eax, DWORD PTR ___security_cookie
  010d3	89 45 ac	 mov	 DWORD PTR __$ArrayPad$[ebp], eax
  010d6	89 8d a4 fe ff
	ff		 mov	 DWORD PTR _this$[ebp], ecx

; 240  : 	if (!m_bTrackMouse)

  010dc	8b 85 a4 fe ff
	ff		 mov	 eax, DWORD PTR _this$[ebp]
  010e2	0f b6 88 14 02
	00 00		 movzx	 ecx, BYTE PTR [eax+532]
  010e9	85 c9		 test	 ecx, ecx
  010eb	75 31		 jne	 SHORT $L203278

; 241  : 	{
; 242  : 		TRACKMOUSEEVENT tme;
; 243  : 		tme.cbSize = sizeof(tme);

  010ed	c7 45 dc 10 00
	00 00		 mov	 DWORD PTR _tme$203279[ebp], 16 ; 00000010H

; 244  : 		tme.hwndTrack = m_hWnd;

  010f4	8b 95 a4 fe ff
	ff		 mov	 edx, DWORD PTR _this$[ebp]
  010fa	8b 42 20	 mov	 eax, DWORD PTR [edx+32]
  010fd	89 45 e4	 mov	 DWORD PTR _tme$203279[ebp+8], eax

; 245  : 		tme.dwFlags = TME_LEAVE;

  01100	c7 45 e0 02 00
	00 00		 mov	 DWORD PTR _tme$203279[ebp+4], 2

; 246  : 		_TrackMouseEvent(&tme);

  01107	8d 4d dc	 lea	 ecx, DWORD PTR _tme$203279[ebp]
  0110a	51		 push	 ecx
  0110b	ff 15 00 00 00
	00		 call	 DWORD PTR __imp___TrackMouseEvent@4

; 247  : 		m_bTrackMouse = TRUE;

  01111	8b 95 a4 fe ff
	ff		 mov	 edx, DWORD PTR _this$[ebp]
  01117	c6 82 14 02 00
	00 01		 mov	 BYTE PTR [edx+532], 1
$L203278:

; 248  : 	}
; 249  : 
; 250  : 	if (m_blDrag||m_blTracker)

  0111e	8b 85 a4 fe ff
	ff		 mov	 eax, DWORD PTR _this$[ebp]
  01124	83 b8 78 01 00
	00 00		 cmp	 DWORD PTR [eax+376], 0
  0112b	75 0f		 jne	 SHORT $L203281
  0112d	8b 8d a4 fe ff
	ff		 mov	 ecx, DWORD PTR _this$[ebp]
  01133	83 b9 64 01 00
	00 00		 cmp	 DWORD PTR [ecx+356], 0
  0113a	74 1c		 je	 SHORT $L203280
$L203281:

; 251  : 	{
; 252  : 		return __super::OnMouseMove(nFlags,point);

  0113c	8b 55 10	 mov	 edx, DWORD PTR _point$[ebp+4]
  0113f	52		 push	 edx
  01140	8b 45 0c	 mov	 eax, DWORD PTR _point$[ebp]
  01143	50		 push	 eax
  01144	8b 4d 08	 mov	 ecx, DWORD PTR _nFlags$[ebp]
  01147	51		 push	 ecx
  01148	8b 8d a4 fe ff
	ff		 mov	 ecx, DWORD PTR _this$[ebp]
  0114e	e8 00 00 00 00	 call	 ?OnMouseMove@CLocalMusicCoverList@@QAEXIVCPoint@@@Z ; CLocalMusicCoverList::OnMouseMove
  01153	e9 c2 04 00 00	 jmp	 $L203277
$L203280:

; 253  : 	}
; 254  : 
; 255  : 	static CRect rcPre(0,0,0,0);	

  01158	8b 15 00 00 00
	00		 mov	 edx, DWORD PTR ?$S9@?7??OnMouseMove@PlayedGameWnd@@IAEXIVCPoint@@@Z@4IA
  0115e	83 e2 01	 and	 edx, 1
  01161	75 1f		 jne	 SHORT $L203286
  01163	a1 00 00 00 00	 mov	 eax, DWORD PTR ?$S9@?7??OnMouseMove@PlayedGameWnd@@IAEXIVCPoint@@@Z@4IA
  01168	83 c8 01	 or	 eax, 1
  0116b	a3 00 00 00 00	 mov	 DWORD PTR ?$S9@?7??OnMouseMove@PlayedGameWnd@@IAEXIVCPoint@@@Z@4IA, eax
  01170	6a 00		 push	 0
  01172	6a 00		 push	 0
  01174	6a 00		 push	 0
  01176	6a 00		 push	 0
  01178	b9 00 00 00 00	 mov	 ecx, OFFSET FLAT:?rcPre@?7??OnMouseMove@PlayedGameWnd@@IAEXIVCPoint@@@Z@4VCRect@@A
  0117d	e8 00 00 00 00	 call	 ??0CRect@@QAE@HHHH@Z	; CRect::CRect
$L203286:

; 256  : 	int iItem;	
; 257  : 	BOOL blHitTest=HitTest(iItem,point);

  01182	8b 4d 10	 mov	 ecx, DWORD PTR _point$[ebp+4]
  01185	51		 push	 ecx
  01186	8b 55 0c	 mov	 edx, DWORD PTR _point$[ebp]
  01189	52		 push	 edx
  0118a	8d 45 f0	 lea	 eax, DWORD PTR _iItem$[ebp]
  0118d	50		 push	 eax
  0118e	8b 8d a4 fe ff
	ff		 mov	 ecx, DWORD PTR _this$[ebp]
  01194	e8 00 00 00 00	 call	 ?HitTest@CLocalMusicCoverList@@IAEHAAHVCPoint@@@Z ; CLocalMusicCoverList::HitTest
  01199	89 45 ec	 mov	 DWORD PTR _blHitTest$[ebp], eax

; 258  : 	static int ipreITem = -1;
; 259  : 	static int ipreon = -1;
; 260  : 	if (blHitTest)

  0119c	83 7d ec 00	 cmp	 DWORD PTR _blHitTest$[ebp], 0
  011a0	0f 84 18 04 00
	00		 je	 $L203293

; 261  : 	{
; 262  :  		if (!rcPre.IsRectNull()&&ipreITem!=iItem)

  011a6	b9 00 00 00 00	 mov	 ecx, OFFSET FLAT:?rcPre@?7??OnMouseMove@PlayedGameWnd@@IAEXIVCPoint@@@Z@4VCRect@@A
  011ab	e8 00 00 00 00	 call	 ?IsRectNull@CRect@@QBEHXZ ; CRect::IsRectNull
  011b0	85 c0		 test	 eax, eax
  011b2	75 22		 jne	 SHORT $L203294
  011b4	8b 0d 00 00 00
	00		 mov	 ecx, DWORD PTR ?ipreITem@?7??OnMouseMove@PlayedGameWnd@@IAEXIVCPoint@@@Z@4HA
  011ba	3b 4d f0	 cmp	 ecx, DWORD PTR _iItem$[ebp]
  011bd	74 17		 je	 SHORT $L203294

; 263  :  			RedrawWindow(&rcPre);

  011bf	68 05 01 00 00	 push	 261			; 00000105H
  011c4	6a 00		 push	 0
  011c6	68 00 00 00 00	 push	 OFFSET FLAT:?rcPre@?7??OnMouseMove@PlayedGameWnd@@IAEXIVCPoint@@@Z@4VCRect@@A
  011cb	8b 8d a4 fe ff
	ff		 mov	 ecx, DWORD PTR _this$[ebp]
  011d1	e8 00 00 00 00	 call	 ?RedrawWindow@CWnd@@QAEHPBUtagRECT@@PAVCRgn@@I@Z ; CWnd::RedrawWindow
$L203294:

; 264  : 
; 265  : 		Graphics gc(GetDC()->m_hDC);

  011d6	8b 8d a4 fe ff
	ff		 mov	 ecx, DWORD PTR _this$[ebp]
  011dc	e8 00 00 00 00	 call	 ?GetDC@CWnd@@QAEPAVCDC@@XZ ; CWnd::GetDC
  011e1	8b 50 04	 mov	 edx, DWORD PTR [eax+4]
  011e4	52		 push	 edx
  011e5	8d 8d 5c ff ff
	ff		 lea	 ecx, DWORD PTR _gc$203295[ebp]
  011eb	e8 00 00 00 00	 call	 ??0Graphics@Gdiplus@@QAE@PAUHDC__@@@Z ; Gdiplus::Graphics::Graphics
  011f0	c7 45 fc 00 00
	00 00		 mov	 DWORD PTR __$EHRec$[ebp+8], 0

; 266  : 		Rect rc(m_DataMgr.m_vItem[iItem].rc.right-32,m_DataMgr.m_vItem[iItem].rc.bottom-32,26,26);

  011f7	6a 1a		 push	 26			; 0000001aH
  011f9	6a 1a		 push	 26			; 0000001aH
  011fb	8b 45 f0	 mov	 eax, DWORD PTR _iItem$[ebp]
  011fe	50		 push	 eax
  011ff	8b 8d a4 fe ff
	ff		 mov	 ecx, DWORD PTR _this$[ebp]
  01205	81 c1 68 01 00
	00		 add	 ecx, 360		; 00000168H
  0120b	e8 00 00 00 00	 call	 ??A?$vector@U_tagLMCItemInfo@@V?$allocator@U_tagLMCItemInfo@@@std@@@std@@QAEAAU_tagLMCItemInfo@@I@Z ; std::vector<_tagLMCItemInfo,std::allocator<_tagLMCItemInfo> >::operator[]
  01210	8b 48 40	 mov	 ecx, DWORD PTR [eax+64]
  01213	83 e9 20	 sub	 ecx, 32			; 00000020H
  01216	51		 push	 ecx
  01217	8b 55 f0	 mov	 edx, DWORD PTR _iItem$[ebp]
  0121a	52		 push	 edx
  0121b	8b 8d a4 fe ff
	ff		 mov	 ecx, DWORD PTR _this$[ebp]
  01221	81 c1 68 01 00
	00		 add	 ecx, 360		; 00000168H
  01227	e8 00 00 00 00	 call	 ??A?$vector@U_tagLMCItemInfo@@V?$allocator@U_tagLMCItemInfo@@@std@@@std@@QAEAAU_tagLMCItemInfo@@I@Z ; std::vector<_tagLMCItemInfo,std::allocator<_tagLMCItemInfo> >::operator[]
  0122c	8b 40 3c	 mov	 eax, DWORD PTR [eax+60]
  0122f	83 e8 20	 sub	 eax, 32			; 00000020H
  01232	50		 push	 eax
  01233	8d 4d c8	 lea	 ecx, DWORD PTR _rc$203296[ebp]
  01236	e8 00 00 00 00	 call	 ??0Rect@Gdiplus@@QAE@HHHH@Z ; Gdiplus::Rect::Rect

; 267  : 		CRect rcImg(rc.X,rc.Y,rc.Width+rc.X,rc.Height+rc.Y);

  0123b	8b 4d d4	 mov	 ecx, DWORD PTR _rc$203296[ebp+12]
  0123e	03 4d cc	 add	 ecx, DWORD PTR _rc$203296[ebp+4]
  01241	51		 push	 ecx
  01242	8b 55 d0	 mov	 edx, DWORD PTR _rc$203296[ebp+8]
  01245	03 55 c8	 add	 edx, DWORD PTR _rc$203296[ebp]
  01248	52		 push	 edx
  01249	8b 45 cc	 mov	 eax, DWORD PTR _rc$203296[ebp+4]
  0124c	50		 push	 eax
  0124d	8b 4d c8	 mov	 ecx, DWORD PTR _rc$203296[ebp]
  01250	51		 push	 ecx
  01251	8d 4d b0	 lea	 ecx, DWORD PTR _rcImg$203297[ebp]
  01254	e8 00 00 00 00	 call	 ??0CRect@@QAE@HHHH@Z	; CRect::CRect

; 268  : 		int ihitarea=-1;

  01259	c7 45 d8 ff ff
	ff ff		 mov	 DWORD PTR _ihitarea$203298[ebp], -1

; 269  : 		if (rcImg.PtInRect(point))

  01260	8b 55 0c	 mov	 edx, DWORD PTR _point$[ebp]
  01263	89 95 c0 fe ff
	ff		 mov	 DWORD PTR $T205813[ebp], edx
  01269	8b 45 10	 mov	 eax, DWORD PTR _point$[ebp+4]
  0126c	89 85 c4 fe ff
	ff		 mov	 DWORD PTR $T205813[ebp+4], eax
  01272	8b 8d c4 fe ff
	ff		 mov	 ecx, DWORD PTR $T205813[ebp+4]
  01278	51		 push	 ecx
  01279	8b 95 c0 fe ff
	ff		 mov	 edx, DWORD PTR $T205813[ebp]
  0127f	52		 push	 edx
  01280	8d 4d b0	 lea	 ecx, DWORD PTR _rcImg$203297[ebp]
  01283	e8 00 00 00 00	 call	 ?PtInRect@CRect@@QBEHUtagPOINT@@@Z ; CRect::PtInRect
  01288	85 c0		 test	 eax, eax
  0128a	74 09		 je	 SHORT $L203300

; 270  : 		{
; 271  : 			ihitarea = 1;

  0128c	c7 45 d8 01 00
	00 00		 mov	 DWORD PTR _ihitarea$203298[ebp], 1

; 272  : 		}
; 273  : 		else

  01293	eb 07		 jmp	 SHORT $L203301
$L203300:

; 274  : 		{
; 275  : 			ihitarea = 2;

  01295	c7 45 d8 02 00
	00 00		 mov	 DWORD PTR _ihitarea$203298[ebp], 2
$L203301:

; 276  : 		}
; 277  : 
; 278  : 		if (iItem!=ipreITem ||ihitarea!=ipreon)

  0129c	8b 45 f0	 mov	 eax, DWORD PTR _iItem$[ebp]
  0129f	3b 05 00 00 00
	00		 cmp	 eax, DWORD PTR ?ipreITem@?7??OnMouseMove@PlayedGameWnd@@IAEXIVCPoint@@@Z@4HA
  012a5	75 0f		 jne	 SHORT $L203303
  012a7	8b 4d d8	 mov	 ecx, DWORD PTR _ihitarea$203298[ebp]
  012aa	3b 0d 00 00 00
	00		 cmp	 ecx, DWORD PTR ?ipreon@?7??OnMouseMove@PlayedGameWnd@@IAEXIVCPoint@@@Z@4HA
  012b0	0f 84 c2 00 00
	00		 je	 $L203302
$L203303:

; 279  : 		{
; 280  : 			if (rcImg.PtInRect(point) )

  012b6	8b 55 0c	 mov	 edx, DWORD PTR _point$[ebp]
  012b9	89 95 b8 fe ff
	ff		 mov	 DWORD PTR $T205814[ebp], edx
  012bf	8b 45 10	 mov	 eax, DWORD PTR _point$[ebp+4]
  012c2	89 85 bc fe ff
	ff		 mov	 DWORD PTR $T205814[ebp+4], eax
  012c8	8b 8d bc fe ff
	ff		 mov	 ecx, DWORD PTR $T205814[ebp+4]
  012ce	51		 push	 ecx
  012cf	8b 95 b8 fe ff
	ff		 mov	 edx, DWORD PTR $T205814[ebp]
  012d5	52		 push	 edx
  012d6	8d 4d b0	 lea	 ecx, DWORD PTR _rcImg$203297[ebp]
  012d9	e8 00 00 00 00	 call	 ?PtInRect@CRect@@QBEHUtagPOINT@@@Z ; CRect::PtInRect
  012de	85 c0		 test	 eax, eax
  012e0	74 4c		 je	 SHORT $L203305

; 281  : 			{
; 282  : 				RedrawWindow(&rcPre);

  012e2	68 05 01 00 00	 push	 261			; 00000105H
  012e7	6a 00		 push	 0
  012e9	68 00 00 00 00	 push	 OFFSET FLAT:?rcPre@?7??OnMouseMove@PlayedGameWnd@@IAEXIVCPoint@@@Z@4VCRect@@A
  012ee	8b 8d a4 fe ff
	ff		 mov	 ecx, DWORD PTR _this$[ebp]
  012f4	e8 00 00 00 00	 call	 ?RedrawWindow@CWnd@@QAEHPBUtagRECT@@PAVCRgn@@I@Z ; CWnd::RedrawWindow

; 283  : 				ipreon = 1;

  012f9	c7 05 00 00 00
	00 01 00 00 00	 mov	 DWORD PTR ?ipreon@?7??OnMouseMove@PlayedGameWnd@@IAEXIVCPoint@@@Z@4HA, 1

; 284  : 				DrawPlayBtn(rcImg,FALSE);

  01303	6a 00		 push	 0
  01305	83 ec 10	 sub	 esp, 16			; 00000010H
  01308	8b c4		 mov	 eax, esp
  0130a	8b 4d b0	 mov	 ecx, DWORD PTR _rcImg$203297[ebp]
  0130d	89 08		 mov	 DWORD PTR [eax], ecx
  0130f	8b 55 b4	 mov	 edx, DWORD PTR _rcImg$203297[ebp+4]
  01312	89 50 04	 mov	 DWORD PTR [eax+4], edx
  01315	8b 4d b8	 mov	 ecx, DWORD PTR _rcImg$203297[ebp+8]
  01318	89 48 08	 mov	 DWORD PTR [eax+8], ecx
  0131b	8b 55 bc	 mov	 edx, DWORD PTR _rcImg$203297[ebp+12]
  0131e	89 50 0c	 mov	 DWORD PTR [eax+12], edx
  01321	8b 8d a4 fe ff
	ff		 mov	 ecx, DWORD PTR _this$[ebp]
  01327	e8 00 00 00 00	 call	 ?DrawPlayBtn@PlayedGameWnd@@IAEXVCRect@@H@Z ; PlayedGameWnd::DrawPlayBtn

; 285  : 			}
; 286  : 			else 

  0132c	eb 4a		 jmp	 SHORT $L203302
$L203305:

; 287  : 			{
; 288  : 				RedrawWindow(&rcPre);

  0132e	68 05 01 00 00	 push	 261			; 00000105H
  01333	6a 00		 push	 0
  01335	68 00 00 00 00	 push	 OFFSET FLAT:?rcPre@?7??OnMouseMove@PlayedGameWnd@@IAEXIVCPoint@@@Z@4VCRect@@A
  0133a	8b 8d a4 fe ff
	ff		 mov	 ecx, DWORD PTR _this$[ebp]
  01340	e8 00 00 00 00	 call	 ?RedrawWindow@CWnd@@QAEHPBUtagRECT@@PAVCRgn@@I@Z ; CWnd::RedrawWindow

; 289  : 				ipreon = 2; 

  01345	c7 05 00 00 00
	00 02 00 00 00	 mov	 DWORD PTR ?ipreon@?7??OnMouseMove@PlayedGameWnd@@IAEXIVCPoint@@@Z@4HA, 2

; 290  : 				DrawPlayBtn(rcImg,TRUE);

  0134f	6a 01		 push	 1
  01351	83 ec 10	 sub	 esp, 16			; 00000010H
  01354	8b c4		 mov	 eax, esp
  01356	8b 4d b0	 mov	 ecx, DWORD PTR _rcImg$203297[ebp]
  01359	89 08		 mov	 DWORD PTR [eax], ecx
  0135b	8b 55 b4	 mov	 edx, DWORD PTR _rcImg$203297[ebp+4]
  0135e	89 50 04	 mov	 DWORD PTR [eax+4], edx
  01361	8b 4d b8	 mov	 ecx, DWORD PTR _rcImg$203297[ebp+8]
  01364	89 48 08	 mov	 DWORD PTR [eax+8], ecx
  01367	8b 55 bc	 mov	 edx, DWORD PTR _rcImg$203297[ebp+12]
  0136a	89 50 0c	 mov	 DWORD PTR [eax+12], edx
  0136d	8b 8d a4 fe ff
	ff		 mov	 ecx, DWORD PTR _this$[ebp]
  01373	e8 00 00 00 00	 call	 ?DrawPlayBtn@PlayedGameWnd@@IAEXVCRect@@H@Z ; PlayedGameWnd::DrawPlayBtn
$L203302:

; 291  : 			}
; 292  : 		}
; 293  : 
; 294  : 		rcPre.SetRect(rc.X,rc.Y,rc.X+rc.Width,rc.Y+rc.Height);

  01378	8b 45 cc	 mov	 eax, DWORD PTR _rc$203296[ebp+4]
  0137b	03 45 d4	 add	 eax, DWORD PTR _rc$203296[ebp+12]
  0137e	50		 push	 eax
  0137f	8b 4d c8	 mov	 ecx, DWORD PTR _rc$203296[ebp]
  01382	03 4d d0	 add	 ecx, DWORD PTR _rc$203296[ebp+8]
  01385	51		 push	 ecx
  01386	8b 55 cc	 mov	 edx, DWORD PTR _rc$203296[ebp+4]
  01389	52		 push	 edx
  0138a	8b 45 c8	 mov	 eax, DWORD PTR _rc$203296[ebp]
  0138d	50		 push	 eax
  0138e	b9 00 00 00 00	 mov	 ecx, OFFSET FLAT:?rcPre@?7??OnMouseMove@PlayedGameWnd@@IAEXIVCPoint@@@Z@4VCRect@@A
  01393	e8 00 00 00 00	 call	 ?SetRect@CRect@@QAEXHHHH@Z ; CRect::SetRect

; 295  : 		m_iMovePreItem=iItem;

  01398	8b 8d a4 fe ff
	ff		 mov	 ecx, DWORD PTR _this$[ebp]
  0139e	8b 55 f0	 mov	 edx, DWORD PTR _iItem$[ebp]
  013a1	89 91 58 02 00
	00		 mov	 DWORD PTR [ecx+600], edx

; 296  : 		ipreITem = iItem;

  013a7	8b 45 f0	 mov	 eax, DWORD PTR _iItem$[ebp]
  013aa	a3 00 00 00 00	 mov	 DWORD PTR ?ipreITem@?7??OnMouseMove@PlayedGameWnd@@IAEXIVCPoint@@@Z@4HA, eax

; 297  : 		//tooltips
; 298  : 		CString info;

  013af	8d 8d c8 fe ff
	ff		 lea	 ecx, DWORD PTR _info$203307[ebp]
  013b5	ff 15 00 00 00
	00		 call	 DWORD PTR __imp_??0?$CStringT@DV?$StrTraitMFC_DLL@DV?$ChTraitsCRT@D@ATL@@@@@ATL@@QAE@XZ
  013bb	c6 45 fc 01	 mov	 BYTE PTR __$EHRec$[ebp+8], 1

; 299  : 		LMC_ItemInfo ii = m_DataMgr.m_vItem[iItem];

  013bf	8b 4d f0	 mov	 ecx, DWORD PTR _iItem$[ebp]
  013c2	51		 push	 ecx
  013c3	8b 8d a4 fe ff
	ff		 mov	 ecx, DWORD PTR _this$[ebp]
  013c9	81 c1 68 01 00
	00		 add	 ecx, 360		; 00000168H
  013cf	e8 00 00 00 00	 call	 ??A?$vector@U_tagLMCItemInfo@@V?$allocator@U_tagLMCItemInfo@@@std@@@std@@QAEAAU_tagLMCItemInfo@@I@Z ; std::vector<_tagLMCItemInfo,std::allocator<_tagLMCItemInfo> >::operator[]
  013d4	50		 push	 eax
  013d5	8d 8d 64 ff ff
	ff		 lea	 ecx, DWORD PTR _ii$203308[ebp]
  013db	e8 00 00 00 00	 call	 ??0_tagLMCItemInfo@@QAE@ABU0@@Z
  013e0	c6 45 fc 02	 mov	 BYTE PTR __$EHRec$[ebp+8], 2

; 300  : 
; 301  : 		OneLocalGame og;

  013e4	8d 8d cc fe ff
	ff		 lea	 ecx, DWORD PTR _og$203309[ebp]
  013ea	e8 00 00 00 00	 call	 ??0OneLocalGame@@QAE@XZ	; OneLocalGame::OneLocalGame
  013ef	c6 45 fc 03	 mov	 BYTE PTR __$EHRec$[ebp+8], 3

; 302  : 		memset (&og, 0, sizeof (OneLocalGame));

  013f3	68 90 00 00 00	 push	 144			; 00000090H
  013f8	6a 00		 push	 0
  013fa	8d 95 cc fe ff
	ff		 lea	 edx, DWORD PTR _og$203309[ebp]
  01400	52		 push	 edx
  01401	e8 00 00 00 00	 call	 _memset
  01406	83 c4 0c	 add	 esp, 12			; 0000000cH

; 303  : 		og.strName = ii.strItemName;

  01409	8d 4d 8c	 lea	 ecx, DWORD PTR _ii$203308[ebp+40]
  0140c	ff 15 00 00 00
	00		 call	 DWORD PTR __imp_??B?$CSimpleStringT@D$00@ATL@@QBEPBDXZ
  01412	50		 push	 eax
  01413	8d 8d e8 fe ff
	ff		 lea	 ecx, DWORD PTR _og$203309[ebp+28]
  01419	ff 15 00 00 00
	00		 call	 DWORD PTR __imp_??4?$basic_string@DU?$char_traits@D@std@@V?$allocator@D@2@@std@@QAEAAV01@PBD@Z

; 304  : 
; 305  : 		if( GLOBAL_LOCALGAME->ILocalGameData_GetGameByID( ii.strGID, og ) )

  0141f	8d 85 cc fe ff
	ff		 lea	 eax, DWORD PTR _og$203309[ebp]
  01425	50		 push	 eax
  01426	83 ec 1c	 sub	 esp, 28			; 0000001cH
  01429	8b cc		 mov	 ecx, esp
  0142b	89 a5 b4 fe ff
	ff		 mov	 DWORD PTR $T205815[ebp], esp
  01431	8d 95 64 ff ff
	ff		 lea	 edx, DWORD PTR _ii$203308[ebp]
  01437	52		 push	 edx
  01438	ff 15 00 00 00
	00		 call	 DWORD PTR __imp_??0?$basic_string@DU?$char_traits@D@std@@V?$allocator@D@2@@std@@QAE@ABV01@@Z
  0143e	89 85 a0 fe ff
	ff		 mov	 DWORD PTR tv211[ebp], eax
  01444	8b 85 a0 fe ff
	ff		 mov	 eax, DWORD PTR tv211[ebp]
  0144a	89 85 9c fe ff
	ff		 mov	 DWORD PTR tv341[ebp], eax
  01450	c6 45 fc 04	 mov	 BYTE PTR __$EHRec$[ebp+8], 4
  01454	e8 00 00 00 00	 call	 ?AfxGetDataManager2@@YAPAVIDataManager@@XZ ; AfxGetDataManager2
  01459	89 85 98 fe ff
	ff		 mov	 DWORD PTR tv222[ebp], eax
  0145f	68 00 00 00 00	 push	 OFFSET FLAT:_ID_DATA_LOCALGAME
  01464	8b 8d 98 fe ff
	ff		 mov	 ecx, DWORD PTR tv222[ebp]
  0146a	8b 11		 mov	 edx, DWORD PTR [ecx]
  0146c	8b 8d 98 fe ff
	ff		 mov	 ecx, DWORD PTR tv222[ebp]
  01472	ff 52 0c	 call	 DWORD PTR [edx+12]
  01475	89 85 94 fe ff
	ff		 mov	 DWORD PTR tv260[ebp], eax
  0147b	8b 85 94 fe ff
	ff		 mov	 eax, DWORD PTR tv260[ebp]
  01481	8b 10		 mov	 edx, DWORD PTR [eax]
  01483	c6 45 fc 03	 mov	 BYTE PTR __$EHRec$[ebp+8], 3
  01487	8b 8d 94 fe ff
	ff		 mov	 ecx, DWORD PTR tv260[ebp]
  0148d	ff 52 0c	 call	 DWORD PTR [edx+12]
  01490	88 85 93 fe ff
	ff		 mov	 BYTE PTR tv342[ebp], al
  01496	0f b6 85 93 fe
	ff ff		 movzx	 eax, BYTE PTR tv342[ebp]
  0149d	85 c0		 test	 eax, eax
  0149f	74 31		 je	 SHORT $L203313

; 306  : 		{
; 307  : 			info.Format(": %s$#:%s", og.strName.c_str(), og.strIntro.c_str() );

  014a1	8d 8d 3c ff ff
	ff		 lea	 ecx, DWORD PTR _og$203309[ebp+112]
  014a7	ff 15 00 00 00
	00		 call	 DWORD PTR __imp_?c_str@?$basic_string@DU?$char_traits@D@std@@V?$allocator@D@2@@std@@QBEPBDXZ
  014ad	50		 push	 eax
  014ae	8d 8d e8 fe ff
	ff		 lea	 ecx, DWORD PTR _og$203309[ebp+28]
  014b4	ff 15 00 00 00
	00		 call	 DWORD PTR __imp_?c_str@?$basic_string@DU?$char_traits@D@std@@V?$allocator@D@2@@std@@QBEPBDXZ
  014ba	50		 push	 eax
  014bb	68 00 00 00 00	 push	 OFFSET FLAT:$SG203314
  014c0	8d 8d c8 fe ff
	ff		 lea	 ecx, DWORD PTR _info$203307[ebp]
  014c6	51		 push	 ecx
  014c7	ff 15 00 00 00
	00		 call	 DWORD PTR __imp_?Format@?$CStringT@DV?$StrTraitMFC_DLL@DV?$ChTraitsCRT@D@ATL@@@@@ATL@@QAAXPBDZZ
  014cd	83 c4 10	 add	 esp, 16			; 00000010H

; 308  : 		}else

  014d0	eb 19		 jmp	 SHORT $L203315
$L203313:

; 309  : 		{
; 310  : 			info.Format(": %s", ii.strItemName );

  014d2	8b 55 8c	 mov	 edx, DWORD PTR _ii$203308[ebp+40]
  014d5	52		 push	 edx
  014d6	68 00 00 00 00	 push	 OFFSET FLAT:$SG203316
  014db	8d 85 c8 fe ff
	ff		 lea	 eax, DWORD PTR _info$203307[ebp]
  014e1	50		 push	 eax
  014e2	ff 15 00 00 00
	00		 call	 DWORD PTR __imp_?Format@?$CStringT@DV?$StrTraitMFC_DLL@DV?$ChTraitsCRT@D@ATL@@@@@ATL@@QAAXPBDZZ
  014e8	83 c4 0c	 add	 esp, 12			; 0000000cH
$L203315:

; 311  : 		}
; 312  : 		//ii.strGID
; 313  : 		CPoint pt(0,0);

  014eb	6a 00		 push	 0
  014ed	6a 00		 push	 0
  014ef	8d 4d c0	 lea	 ecx, DWORD PTR _pt$203317[ebp]
  014f2	e8 00 00 00 00	 call	 ??0CPoint@@QAE@HH@Z	; CPoint::CPoint

; 314  : 		GetCursorPos(&pt);

  014f7	8d 4d c0	 lea	 ecx, DWORD PTR _pt$203317[ebp]
  014fa	51		 push	 ecx
  014fb	ff 15 00 00 00
	00		 call	 DWORD PTR __imp__GetCursorPos@4

; 315  : 		if( m_tootip.m_lastPoint != pt )

  01501	8b 55 c0	 mov	 edx, DWORD PTR _pt$203317[ebp]
  01504	89 95 ac fe ff
	ff		 mov	 DWORD PTR $T205816[ebp], edx
  0150a	8b 45 c4	 mov	 eax, DWORD PTR _pt$203317[ebp+4]
  0150d	89 85 b0 fe ff
	ff		 mov	 DWORD PTR $T205816[ebp+4], eax
  01513	8b 8d b0 fe ff
	ff		 mov	 ecx, DWORD PTR $T205816[ebp+4]
  01519	51		 push	 ecx
  0151a	8b 95 ac fe ff
	ff		 mov	 edx, DWORD PTR $T205816[ebp]
  01520	52		 push	 edx
  01521	8b 8d a4 fe ff
	ff		 mov	 ecx, DWORD PTR _this$[ebp]
  01527	81 c1 ec 01 00
	00		 add	 ecx, 492		; 000001ecH
  0152d	e8 00 00 00 00	 call	 ??9CPoint@@QBEHUtagPOINT@@@Z ; CPoint::operator!=
  01532	85 c0		 test	 eax, eax
  01534	74 11		 je	 SHORT $L203319

; 316  : 		{
; 317  : 			m_tootip.HideTooTips();

  01536	8b 8d a4 fe ff
	ff		 mov	 ecx, DWORD PTR _this$[ebp]
  0153c	81 c1 84 01 00
	00		 add	 ecx, 388		; 00000184H
  01542	e8 00 00 00 00	 call	 ?HideTooTips@CCWToolTips@@QAEXXZ ; CCWToolTips::HideTooTips
$L203319:

; 318  : 		}
; 319  : 		m_tootip.ShowToolTips( info,pt);

  01547	6a 00		 push	 0
  01549	8b 45 c4	 mov	 eax, DWORD PTR _pt$203317[ebp+4]
  0154c	50		 push	 eax
  0154d	8b 4d c0	 mov	 ecx, DWORD PTR _pt$203317[ebp]
  01550	51		 push	 ecx
  01551	51		 push	 ecx
  01552	8b cc		 mov	 ecx, esp
  01554	89 a5 a8 fe ff
	ff		 mov	 DWORD PTR $T205817[ebp], esp
  0155a	8d 95 c8 fe ff
	ff		 lea	 edx, DWORD PTR _info$203307[ebp]
  01560	52		 push	 edx
  01561	ff 15 00 00 00
	00		 call	 DWORD PTR __imp_??0?$CStringT@DV?$StrTraitMFC_DLL@DV?$ChTraitsCRT@D@ATL@@@@@ATL@@QAE@ABV01@@Z
  01567	89 85 8c fe ff
	ff		 mov	 DWORD PTR tv346[ebp], eax
  0156d	8b 8d a4 fe ff
	ff		 mov	 ecx, DWORD PTR _this$[ebp]
  01573	81 c1 84 01 00
	00		 add	 ecx, 388		; 00000184H
  01579	e8 00 00 00 00	 call	 ?ShowToolTips@CCWToolTips@@QAEXV?$CStringT@DV?$StrTraitMFC_DLL@DV?$ChTraitsCRT@D@ATL@@@@@ATL@@VCPoint@@H@Z ; CCWToolTips::ShowToolTips

; 320  : 	}

  0157e	c6 45 fc 02	 mov	 BYTE PTR __$EHRec$[ebp+8], 2
  01582	8d 8d cc fe ff
	ff		 lea	 ecx, DWORD PTR _og$203309[ebp]
  01588	e8 00 00 00 00	 call	 ??1OneLocalGame@@QAE@XZ
  0158d	c6 45 fc 01	 mov	 BYTE PTR __$EHRec$[ebp+8], 1
  01591	8d 8d 64 ff ff
	ff		 lea	 ecx, DWORD PTR _ii$203308[ebp]
  01597	e8 00 00 00 00	 call	 ??1_tagLMCItemInfo@@QAE@XZ
  0159c	c6 45 fc 00	 mov	 BYTE PTR __$EHRec$[ebp+8], 0
  015a0	8d 8d c8 fe ff
	ff		 lea	 ecx, DWORD PTR _info$203307[ebp]
  015a6	ff 15 00 00 00
	00		 call	 DWORD PTR __imp_??1?$CStringT@DV?$StrTraitMFC_DLL@DV?$ChTraitsCRT@D@ATL@@@@@ATL@@QAE@XZ
  015ac	c7 45 fc ff ff
	ff ff		 mov	 DWORD PTR __$EHRec$[ebp+8], -1
  015b3	8d 8d 5c ff ff
	ff		 lea	 ecx, DWORD PTR _gc$203295[ebp]
  015b9	e8 00 00 00 00	 call	 ??1Graphics@Gdiplus@@QAE@XZ ; Gdiplus::Graphics::~Graphics
$L203293:

; 321  : 	if (!blHitTest)

  015be	83 7d ec 00	 cmp	 DWORD PTR _blHitTest$[ebp], 0
  015c2	75 3f		 jne	 SHORT $L203321

; 322  : 	{
; 323  : 		if (!rcPre.IsRectNull())

