; Listing generated by Microsoft (R) Optimizing Compiler Version 13.10.3077 

	TITLE	.\src\LayoutMgr\ChangeColor\ScrollBarEx.cpp
	.386P
include listing.inc
if @Version gt 510
.model FLAT
else
_TEXT	SEGMENT PARA USE32 PUBLIC 'CODE'
_TEXT	ENDS
_DATA	SEGMENT DWORD USE32 PUBLIC 'DATA'
_DATA	ENDS
CONST	SEGMENT DWORD USE32 PUBLIC 'CONST'
CONST	ENDS
_BSS	SEGMENT DWORD USE32 PUBLIC 'BSS'
_BSS	ENDS
$$SYMBOLS	SEGMENT BYTE USE32 'DEBSYM'
$$SYMBOLS	ENDS
$$TYPES	SEGMENT BYTE USE32 'DEBTYP'
$$TYPES	ENDS
_TLS	SEGMENT DWORD USE32 PUBLIC 'TLS'
_TLS	ENDS
rdata$r	SEGMENT DWORD USE32 PUBLIC 'CONST'
rdata$r	ENDS
xdata$x	SEGMENT DWORD USE32 PUBLIC 'CONST'
xdata$x	ENDS
text$AFX_COL1	SEGMENT PARA USE32 PUBLIC ''
text$AFX_COL1	ENDS
text$yc	SEGMENT PARA USE32 PUBLIC 'CODE'
text$yc	ENDS
CRT$XCA	SEGMENT DWORD USE32 PUBLIC 'DATA'
CRT$XCA	ENDS
CRT$XCU	SEGMENT DWORD USE32 PUBLIC 'DATA'
CRT$XCU	ENDS
CRT$XCL	SEGMENT DWORD USE32 PUBLIC 'DATA'
CRT$XCL	ENDS
CRT$XCC	SEGMENT DWORD USE32 PUBLIC 'DATA'
CRT$XCC	ENDS
CRT$XCZ	SEGMENT DWORD USE32 PUBLIC 'DATA'
CRT$XCZ	ENDS
text$yd	SEGMENT PARA USE32 PUBLIC 'CODE'
text$yd	ENDS
ATL$__m	SEGMENT DWORD USE32 PUBLIC ''
ATL$__m	ENDS
ATL$__z	SEGMENT DWORD USE32 PUBLIC ''
ATL$__z	ENDS
ATL$__a	SEGMENT DWORD USE32 PUBLIC ''
ATL$__a	ENDS
;	COMDAT ??1DIBINFO@@UAE@XZ
_TEXT	SEGMENT PARA USE32 PUBLIC 'CODE'
_TEXT	ENDS
;	COMDAT ??_GDIBINFO@@UAEPAXI@Z
_TEXT	SEGMENT PARA USE32 PUBLIC 'CODE'
_TEXT	ENDS
;	COMDAT ??0BaseColor@@QAE@XZ
_TEXT	SEGMENT PARA USE32 PUBLIC 'CODE'
_TEXT	ENDS
;	COMDAT ??1BaseColor@@QAE@XZ
_TEXT	SEGMENT PARA USE32 PUBLIC 'CODE'
_TEXT	ENDS
;	COMDAT ??_GBaseColor@@QAEPAXI@Z
_TEXT	SEGMENT PARA USE32 PUBLIC 'CODE'
_TEXT	ENDS
;	COMDAT ??_GCScrollBarEx@@UAEPAXI@Z
_TEXT	SEGMENT PARA USE32 PUBLIC 'CODE'
_TEXT	ENDS
;	COMDAT ??B?$CComPtrBase@UITypeInfo2@@@ATL@@QBEPAUITypeInfo2@@XZ
_TEXT	SEGMENT PARA USE32 PUBLIC 'CODE'
_TEXT	ENDS
;	COMDAT ?equal@?$istreambuf_iterator@DU?$char_traits@D@std@@@std@@QBE_NABV12@@Z
_TEXT	SEGMENT PARA USE32 PUBLIC 'CODE'
_TEXT	ENDS
;	COMDAT ?equal@?$istreambuf_iterator@_WU?$char_traits@_W@std@@@std@@QBE_NABV12@@Z
_TEXT	SEGMENT PARA USE32 PUBLIC 'CODE'
_TEXT	ENDS
;	COMDAT ?StringCompare@?$ChTraitsCRT@D@ATL@@SAHPBD0@Z
_TEXT	SEGMENT PARA USE32 PUBLIC 'CODE'
_TEXT	ENDS
;	COMDAT ?Unlock@?$CComCritSecLock@VCComCriticalSection@ATL@@@ATL@@QAEXXZ
_TEXT	SEGMENT PARA USE32 PUBLIC 'CODE'
_TEXT	ENDS
;	COMDAT ??$_Maklocstr@D@std@@YAPADPBDPADABU_Cvtvec@@@Z
_TEXT	SEGMENT PARA USE32 PUBLIC 'CODE'
_TEXT	ENDS
;	COMDAT ??_R3CScrollBarEx@@8
rdata$r	SEGMENT DWORD USE32 PUBLIC 'CONST'
rdata$r	ENDS
;	COMDAT ??_R3DIBINFO@@8
rdata$r	SEGMENT DWORD USE32 PUBLIC 'CONST'
rdata$r	ENDS
;	COMDAT ??_R3?$numpunct@_W@std@@8
rdata$r	SEGMENT DWORD USE32 PUBLIC 'CONST'
rdata$r	ENDS
;	COMDAT ??_R3?$numpunct@D@std@@8
rdata$r	SEGMENT DWORD USE32 PUBLIC 'CONST'
rdata$r	ENDS
;	COMDAT ??_R2CScrollBarEx@@8
rdata$r	SEGMENT DWORD USE32 PUBLIC 'CONST'
rdata$r	ENDS
;	COMDAT ??_R2DIBINFO@@8
rdata$r	SEGMENT DWORD USE32 PUBLIC 'CONST'
rdata$r	ENDS
;	COMDAT ??_R2?$numpunct@_W@std@@8
rdata$r	SEGMENT DWORD USE32 PUBLIC 'CONST'
rdata$r	ENDS
;	COMDAT ??_R2?$numpunct@D@std@@8
rdata$r	SEGMENT DWORD USE32 PUBLIC 'CONST'
rdata$r	ENDS
;	COMDAT ??_R1A@?0A@A@CObject@@8
rdata$r	SEGMENT DWORD USE32 PUBLIC 'CONST'
rdata$r	ENDS
;	COMDAT ??_R0?AVCObject@@@8
_DATA	SEGMENT DWORD USE32 PUBLIC 'DATA'
_DATA	ENDS
;	COMDAT ??_R1A@?0A@A@CCmdTarget@@8
rdata$r	SEGMENT DWORD USE32 PUBLIC 'CONST'
rdata$r	ENDS
;	COMDAT ??_R0?AVCCmdTarget@@@8
_DATA	SEGMENT DWORD USE32 PUBLIC 'DATA'
_DATA	ENDS
;	COMDAT ??_R1A@?0A@A@CWnd@@8
rdata$r	SEGMENT DWORD USE32 PUBLIC 'CONST'
rdata$r	ENDS
;	COMDAT ??_R0?AVCWnd@@@8
_DATA	SEGMENT DWORD USE32 PUBLIC 'DATA'
_DATA	ENDS
;	COMDAT ??_R1A@?0A@A@CStatic@@8
rdata$r	SEGMENT DWORD USE32 PUBLIC 'CONST'
rdata$r	ENDS
;	COMDAT ??_R0?AVCStatic@@@8
_DATA	SEGMENT DWORD USE32 PUBLIC 'DATA'
_DATA	ENDS
;	COMDAT ??_R1A@?0A@A@CScrollBarEx@@8
rdata$r	SEGMENT DWORD USE32 PUBLIC 'CONST'
rdata$r	ENDS
;	COMDAT ??_R1A@?0A@A@DIBINFO@@8
rdata$r	SEGMENT DWORD USE32 PUBLIC 'CONST'
rdata$r	ENDS
;	COMDAT ??_R1A@?0A@A@?$numpunct@_W@std@@8
rdata$r	SEGMENT DWORD USE32 PUBLIC 'CONST'
rdata$r	ENDS
;	COMDAT ??_R1A@?0A@A@facet@locale@std@@8
rdata$r	SEGMENT DWORD USE32 PUBLIC 'CONST'
rdata$r	ENDS
;	COMDAT ??_R0?AVfacet@locale@std@@@8
_DATA	SEGMENT DWORD USE32 PUBLIC 'DATA'
_DATA	ENDS
;	COMDAT ??_R1A@?0A@A@?$numpunct@D@std@@8
rdata$r	SEGMENT DWORD USE32 PUBLIC 'CONST'
rdata$r	ENDS
;	COMDAT ??_R0?AVCScrollBarEx@@@8
_DATA	SEGMENT DWORD USE32 PUBLIC 'DATA'
_DATA	ENDS
;	COMDAT ??_R0?AVDIBINFO@@@8
_DATA	SEGMENT DWORD USE32 PUBLIC 'DATA'
_DATA	ENDS
;	COMDAT ??_R0?AV?$numpunct@_W@std@@@8
_DATA	SEGMENT DWORD USE32 PUBLIC 'DATA'
_DATA	ENDS
;	COMDAT ??_R0?AV?$numpunct@D@std@@@8
_DATA	SEGMENT DWORD USE32 PUBLIC 'DATA'
_DATA	ENDS
;	COMDAT ?EndModalState@CWnd@@UAEXXZ
_TEXT	SEGMENT PARA USE32 PUBLIC 'CODE'
_TEXT	ENDS
;	COMDAT ?BeginModalState@CWnd@@UAEXXZ
_TEXT	SEGMENT PARA USE32 PUBLIC 'CODE'
_TEXT	ENDS
;	COMDAT ?DoDataExchange@CWnd@@MAEXPAVCDataExchange@@@Z
_TEXT	SEGMENT PARA USE32 PUBLIC 'CODE'
_TEXT	ENDS
;	COMDAT ?Dump@CObject@@UBEXAAVCDumpContext@@@Z
_TEXT	SEGMENT PARA USE32 PUBLIC 'CODE'
_TEXT	ENDS
;	COMDAT ?AssertValid@CObject@@UBEXXZ
_TEXT	SEGMENT PARA USE32 PUBLIC 'CODE'
_TEXT	ENDS
;	COMDAT ?Serialize@CObject@@UAEXAAVCArchive@@@Z
_TEXT	SEGMENT PARA USE32 PUBLIC 'CODE'
_TEXT	ENDS
;	COMDAT ??_R4CScrollBarEx@@6B@
rdata$r	SEGMENT DWORD USE32 PUBLIC 'CONST'
rdata$r	ENDS
;	COMDAT ??_R4DIBINFO@@6B@
rdata$r	SEGMENT DWORD USE32 PUBLIC 'CONST'
rdata$r	ENDS
;	COMDAT ??0?$allocator@_W@std@@QAE@XZ
_TEXT	SEGMENT PARA USE32 PUBLIC 'CODE'
_TEXT	ENDS
;	COMDAT ??0?$allocator@D@std@@QAE@ABV01@@Z
_TEXT	SEGMENT PARA USE32 PUBLIC 'CODE'
_TEXT	ENDS
;	COMDAT ??0?$allocator@D@std@@QAE@XZ
_TEXT	SEGMENT PARA USE32 PUBLIC 'CODE'
_TEXT	ENDS
;	COMDAT ?deallocate@?$allocator@D@std@@QAEXPADI@Z
_TEXT	SEGMENT PARA USE32 PUBLIC 'CODE'
_TEXT	ENDS
;	COMDAT ?max_size@?$allocator@D@std@@QBEIXZ
_TEXT	SEGMENT PARA USE32 PUBLIC 'CODE'
_TEXT	ENDS
;	COMDAT ?allocate@?$allocator@D@std@@QAEPADI@Z
_TEXT	SEGMENT PARA USE32 PUBLIC 'CODE'
_TEXT	ENDS
;	COMDAT ??$_Allocate@D@std@@YAPADIPAD@Z
_TEXT	SEGMENT PARA USE32 PUBLIC 'CODE'
_TEXT	ENDS
;	COMDAT ??_G?$numpunct@_W@std@@MAEPAXI@Z
_TEXT	SEGMENT PARA USE32 PUBLIC 'CODE'
_TEXT	ENDS
;	COMDAT ??_R4?$numpunct@_W@std@@6B@
rdata$r	SEGMENT DWORD USE32 PUBLIC 'CONST'
rdata$r	ENDS
;	COMDAT ??_G?$numpunct@D@std@@MAEPAXI@Z
_TEXT	SEGMENT PARA USE32 PUBLIC 'CODE'
_TEXT	ENDS
;	COMDAT ??_R4?$numpunct@D@std@@6B@
rdata$r	SEGMENT DWORD USE32 PUBLIC 'CONST'
rdata$r	ENDS
;	COMDAT ?_Psave@?$_Facetptr@V?$numpunct@_W@std@@@std@@2PBVfacet@locale@2@B
_DATA	SEGMENT DWORD USE32 PUBLIC 'DATA'
_DATA	ENDS
;	COMDAT ?_Psave@?$_Facetptr@V?$numpunct@D@std@@@std@@2PBVfacet@locale@2@B
_DATA	SEGMENT DWORD USE32 PUBLIC 'DATA'
_DATA	ENDS
;	COMDAT ?Unlock@CComCriticalSection@ATL@@QAEJXZ
_TEXT	SEGMENT PARA USE32 PUBLIC 'CODE'
_TEXT	ENDS
;	COMDAT ?_Psave@?$_Facetptr@V?$ctype@_W@std@@@std@@2PBVfacet@locale@2@B
_DATA	SEGMENT DWORD USE32 PUBLIC 'DATA'
_DATA	ENDS
;	COMDAT ?_Psave@?$_Facetptr@V?$ctype@D@std@@@std@@2PBVfacet@locale@2@B
_DATA	SEGMENT DWORD USE32 PUBLIC 'DATA'
_DATA	ENDS
;	COMDAT ??$_Maklocchr@_W@std@@YA_WDPA_WABU_Cvtvec@@@Z
_TEXT	SEGMENT PARA USE32 PUBLIC 'CODE'
_TEXT	ENDS
;	COMDAT ??$_Maklocstr@_W@std@@YAPA_WPBDPA_WABU_Cvtvec@@@Z
_TEXT	SEGMENT PARA USE32 PUBLIC 'CODE'
_TEXT	ENDS
;	COMDAT ??$_Maklocchr@D@std@@YADDPADABU_Cvtvec@@@Z
_TEXT	SEGMENT PARA USE32 PUBLIC 'CODE'
_TEXT	ENDS
;	COMDAT ??_C@_04LOAJBDKD@true?$AA@
CONST	SEGMENT DWORD USE32 PUBLIC 'CONST'
CONST	ENDS
;	COMDAT ??_C@_05LAPONLG@false?$AA@
CONST	SEGMENT DWORD USE32 PUBLIC 'CONST'
CONST	ENDS
;	COMDAT _wmemcpy
_TEXT	SEGMENT PARA USE32 PUBLIC 'CODE'
_TEXT	ENDS
;	COMDAT ?max_size@?$allocator@_W@std@@QBEIXZ
_TEXT	SEGMENT PARA USE32 PUBLIC 'CODE'
_TEXT	ENDS
;	COMDAT ?allocate@?$allocator@_W@std@@QAEPA_WI@Z
_TEXT	SEGMENT PARA USE32 PUBLIC 'CODE'
_TEXT	ENDS
;	COMDAT ??$_Allocate@_W@std@@YAPA_WIPA_W@Z
_TEXT	SEGMENT PARA USE32 PUBLIC 'CODE'
_TEXT	ENDS
;	COMDAT ??_C@_01GFHCPBMG@C?$AA@
CONST	SEGMENT DWORD USE32 PUBLIC 'CONST'
CONST	ENDS
;	COMDAT ?_Peek@?$istreambuf_iterator@_WU?$char_traits@_W@std@@@std@@AAE_WXZ
_TEXT	SEGMENT PARA USE32 PUBLIC 'CODE'
_TEXT	ENDS
;	COMDAT ?_Peek@?$istreambuf_iterator@DU?$char_traits@D@std@@@std@@AAEDXZ
_TEXT	SEGMENT PARA USE32 PUBLIC 'CODE'
_TEXT	ENDS
;	COMDAT ??$use_facet@V?$ctype@_W@std@@@std@@YAABV?$ctype@_W@0@ABVlocale@0@@Z
_TEXT	SEGMENT PARA USE32 PUBLIC 'CODE'
_TEXT	ENDS
;	COMDAT ??_S?$ctype@_W@std@@6B@
CONST	SEGMENT DWORD USE32 PUBLIC 'CONST'
CONST	ENDS
;	COMDAT ??_R4?$ctype@_W@std@@6B@
rdata$r	SEGMENT DWORD USE32 PUBLIC 'CONST'
rdata$r	ENDS
;	COMDAT ??_R0?AV?$ctype@_W@std@@@8
_DATA	SEGMENT DWORD USE32 PUBLIC 'DATA'
_DATA	ENDS
;	COMDAT ??_R3?$ctype@_W@std@@8
rdata$r	SEGMENT DWORD USE32 PUBLIC 'CONST'
rdata$r	ENDS
;	COMDAT ??_R2?$ctype@_W@std@@8
rdata$r	SEGMENT DWORD USE32 PUBLIC 'CONST'
rdata$r	ENDS
;	COMDAT ??_R1A@?0A@A@?$ctype@_W@std@@8
rdata$r	SEGMENT DWORD USE32 PUBLIC 'CONST'
rdata$r	ENDS
;	COMDAT ??_R1A@?0A@A@ctype_base@std@@8
rdata$r	SEGMENT DWORD USE32 PUBLIC 'CONST'
rdata$r	ENDS
;	COMDAT ??_R0?AUctype_base@std@@@8
_DATA	SEGMENT DWORD USE32 PUBLIC 'DATA'
_DATA	ENDS
;	COMDAT ??_G?$ctype@_W@std@@MAEPAXI@Z
_TEXT	SEGMENT PARA USE32 PUBLIC 'CODE'
_TEXT	ENDS
;	COMDAT ??_C@_08EPJLHIJG@bad?5cast?$AA@
CONST	SEGMENT DWORD USE32 PUBLIC 'CONST'
CONST	ENDS
;	COMDAT __TI2?AVbad_cast@@
xdata$x	SEGMENT DWORD USE32 PUBLIC 'CONST'
xdata$x	ENDS
;	COMDAT __CTA2?AVbad_cast@@
xdata$x	SEGMENT DWORD USE32 PUBLIC 'CONST'
xdata$x	ENDS
;	COMDAT __CT??_R0?AVbad_cast@@@8??0bad_cast@@QAE@ABV0@@Z12
xdata$x	SEGMENT DWORD USE32 PUBLIC 'CONST'
xdata$x	ENDS
;	COMDAT ??_R0?AVbad_cast@@@8
_DATA	SEGMENT DWORD USE32 PUBLIC 'DATA'
_DATA	ENDS
;	COMDAT __CT??_R0?AVexception@@@8??0exception@@QAE@ABV0@@Z12
xdata$x	SEGMENT DWORD USE32 PUBLIC 'CONST'
xdata$x	ENDS
;	COMDAT ??_R0?AVexception@@@8
_DATA	SEGMENT DWORD USE32 PUBLIC 'DATA'
_DATA	ENDS
;	COMDAT ??$use_facet@V?$ctype@D@std@@@std@@YAABV?$ctype@D@0@ABVlocale@0@@Z
_TEXT	SEGMENT PARA USE32 PUBLIC 'CODE'
_TEXT	ENDS
;	COMDAT ??_S?$ctype@D@std@@6B@
CONST	SEGMENT DWORD USE32 PUBLIC 'CONST'
CONST	ENDS
;	COMDAT ??_R4?$ctype@D@std@@6B@
rdata$r	SEGMENT DWORD USE32 PUBLIC 'CONST'
rdata$r	ENDS
;	COMDAT ??_R0?AV?$ctype@D@std@@@8
_DATA	SEGMENT DWORD USE32 PUBLIC 'DATA'
_DATA	ENDS
;	COMDAT ??_R3?$ctype@D@std@@8
rdata$r	SEGMENT DWORD USE32 PUBLIC 'CONST'
rdata$r	ENDS
;	COMDAT ??_R2?$ctype@D@std@@8
rdata$r	SEGMENT DWORD USE32 PUBLIC 'CONST'
rdata$r	ENDS
;	COMDAT ??_R1A@?0A@A@?$ctype@D@std@@8
rdata$r	SEGMENT DWORD USE32 PUBLIC 'CONST'
rdata$r	ENDS
;	COMDAT ??_G?$ctype@D@std@@MAEPAXI@Z
_TEXT	SEGMENT PARA USE32 PUBLIC 'CODE'
_TEXT	ENDS
;	COMDAT ??_S?$numpunct@_W@std@@6B@
CONST	SEGMENT DWORD USE32 PUBLIC 'CONST'
CONST	ENDS
;	COMDAT ??_S?$numpunct@D@std@@6B@
CONST	SEGMENT DWORD USE32 PUBLIC 'CONST'
CONST	ENDS
;	COMDAT _wmemmove
_TEXT	SEGMENT PARA USE32 PUBLIC 'CODE'
_TEXT	ENDS
;	COMDAT ?deallocate@?$allocator@_W@std@@QAEXPA_WI@Z
_TEXT	SEGMENT PARA USE32 PUBLIC 'CODE'
_TEXT	ENDS
;	COMDAT ??0?$allocator@_W@std@@QAE@ABV01@@Z
_TEXT	SEGMENT PARA USE32 PUBLIC 'CODE'
_TEXT	ENDS
;	COMDAT ?OnCreate@CWnd@@IAEHPAUtagCREATESTRUCTA@@@Z
_TEXT	SEGMENT PARA USE32 PUBLIC 'CODE'
_TEXT	ENDS
;	COMDAT ?RedrawWindow@CWnd@@QAEHPBUtagRECT@@PAVCRgn@@I@Z
_TEXT	SEGMENT PARA USE32 PUBLIC 'CODE'
_TEXT	ENDS
;	COMDAT ?GetSafeHandle@CGdiObject@@QBEPAXXZ
_TEXT	SEGMENT PARA USE32 PUBLIC 'CODE'
_TEXT	ENDS
;	COMDAT ??BCDC@@QBEPAUHDC__@@XZ
_TEXT	SEGMENT PARA USE32 PUBLIC 'CODE'
_TEXT	ENDS
;	COMDAT ??1CMemDC@@UAE@XZ
_TEXT	SEGMENT PARA USE32 PUBLIC 'CODE'
_TEXT	ENDS
;	COMDAT ??_7CMemDC@@6B@
CONST	SEGMENT DWORD USE32 PUBLIC 'CONST'
CONST	ENDS
;	COMDAT ??_R4CMemDC@@6B@
rdata$r	SEGMENT DWORD USE32 PUBLIC 'CONST'
rdata$r	ENDS
;	COMDAT ??_R0?AVCMemDC@@@8
_DATA	SEGMENT DWORD USE32 PUBLIC 'DATA'
_DATA	ENDS
;	COMDAT ??_R3CMemDC@@8
rdata$r	SEGMENT DWORD USE32 PUBLIC 'CONST'
rdata$r	ENDS
;	COMDAT ??_R2CMemDC@@8
rdata$r	SEGMENT DWORD USE32 PUBLIC 'CONST'
rdata$r	ENDS
;	COMDAT ??_R1A@?0A@A@CMemDC@@8
rdata$r	SEGMENT DWORD USE32 PUBLIC 'CONST'
rdata$r	ENDS
;	COMDAT ??_R1A@?0A@A@CDC@@8
rdata$r	SEGMENT DWORD USE32 PUBLIC 'CONST'
rdata$r	ENDS
;	COMDAT ??_R0?AVCDC@@@8
_DATA	SEGMENT DWORD USE32 PUBLIC 'DATA'
_DATA	ENDS
;	COMDAT ??_GCMemDC@@UAEPAXI@Z
_TEXT	SEGMENT PARA USE32 PUBLIC 'CODE'
_TEXT	ENDS
;	COMDAT ?PtVisible@CDC@@UBEHHH@Z
_TEXT	SEGMENT PARA USE32 PUBLIC 'CODE'
_TEXT	ENDS
;	COMDAT ?RectVisible@CDC@@UBEHPBUtagRECT@@@Z
_TEXT	SEGMENT PARA USE32 PUBLIC 'CODE'
_TEXT	ENDS
;	COMDAT ?TextOutA@CDC@@UAEHHHPBDH@Z
_TEXT	SEGMENT PARA USE32 PUBLIC 'CODE'
_TEXT	ENDS
;	COMDAT ?ExtTextOutA@CDC@@UAEHHHIPBUtagRECT@@PBDIPAH@Z
_TEXT	SEGMENT PARA USE32 PUBLIC 'CODE'
_TEXT	ENDS
;	COMDAT ?TabbedTextOutA@CDC@@UAE?AVCSize@@HHPBDHHPAHH@Z
_TEXT	SEGMENT PARA USE32 PUBLIC 'CODE'
_TEXT	ENDS
;	COMDAT ??0CSize@@QAE@K@Z
_TEXT	SEGMENT PARA USE32 PUBLIC 'CODE'
_TEXT	ENDS
;	COMDAT ?DrawTextA@CDC@@UAEHPBDHPAUtagRECT@@I@Z
_TEXT	SEGMENT PARA USE32 PUBLIC 'CODE'
_TEXT	ENDS
;	COMDAT ?DrawTextExA@CDC@@UAEHPADHPAUtagRECT@@IPAUtagDRAWTEXTPARAMS@@@Z
_TEXT	SEGMENT PARA USE32 PUBLIC 'CODE'
_TEXT	ENDS
;	COMDAT ?GrayStringA@CDC@@UAEHPAVCBrush@@P6GHPAUHDC__@@JH@ZJHHHHH@Z
_TEXT	SEGMENT PARA USE32 PUBLIC 'CODE'
_TEXT	ENDS
;	COMDAT ?Escape@CDC@@UAEHHHPBDPAX@Z
_TEXT	SEGMENT PARA USE32 PUBLIC 'CODE'
_TEXT	ENDS
;	COMDAT ?BitBlt@CDC@@QAEHHHHHPAV1@HHK@Z
_TEXT	SEGMENT PARA USE32 PUBLIC 'CODE'
_TEXT	ENDS
;	COMDAT ?GetSafeHdc@CDC@@QBEPAUHDC__@@XZ
_TEXT	SEGMENT PARA USE32 PUBLIC 'CODE'
_TEXT	ENDS
;	COMDAT ?Height@CRect@@QBEHXZ
_TEXT	SEGMENT PARA USE32 PUBLIC 'CODE'
_TEXT	ENDS
;	COMDAT ?Width@CRect@@QBEHXZ
_TEXT	SEGMENT PARA USE32 PUBLIC 'CODE'
_TEXT	ENDS
;	COMDAT ?SelectObject@CDC@@QAEPAVCBitmap@@PAV2@@Z
_TEXT	SEGMENT PARA USE32 PUBLIC 'CODE'
_TEXT	ENDS
;	COMDAT ??0CRect@@QAE@PBUtagRECT@@@Z
_TEXT	SEGMENT PARA USE32 PUBLIC 'CODE'
_TEXT	ENDS
;	COMDAT ??0CMemDC@@QAE@PAVCDC@@ABVCRect@@@Z
_TEXT	SEGMENT PARA USE32 PUBLIC 'CODE'
_TEXT	ENDS
;	COMDAT ?CreateCompatibleDC@CDC@@QAEHPAV1@@Z
_TEXT	SEGMENT PARA USE32 PUBLIC 'CODE'
_TEXT	ENDS
;	COMDAT ??2CObject@@SGPAXI@Z
_TEXT	SEGMENT PARA USE32 PUBLIC 'CODE'
_TEXT	ENDS
;	COMDAT ??0CBitmap@@QAE@XZ
_TEXT	SEGMENT PARA USE32 PUBLIC 'CODE'
_TEXT	ENDS
;	COMDAT ??0CGdiObject@@QAE@XZ
_TEXT	SEGMENT PARA USE32 PUBLIC 'CODE'
_TEXT	ENDS
;	COMDAT ??0CObject@@IAE@XZ
_TEXT	SEGMENT PARA USE32 PUBLIC 'CODE'
_TEXT	ENDS
;	COMDAT ??1CObject@@UAE@XZ
_TEXT	SEGMENT PARA USE32 PUBLIC 'CODE'
_TEXT	ENDS
;	COMDAT ??_7CGdiObject@@6B@
CONST	SEGMENT DWORD USE32 PUBLIC 'CONST'
CONST	ENDS
;	COMDAT ??_R4CGdiObject@@6B@
rdata$r	SEGMENT DWORD USE32 PUBLIC 'CONST'
rdata$r	ENDS
;	COMDAT ??_R0?AVCGdiObject@@@8
_DATA	SEGMENT DWORD USE32 PUBLIC 'DATA'
_DATA	ENDS
;	COMDAT ??_R3CGdiObject@@8
rdata$r	SEGMENT DWORD USE32 PUBLIC 'CONST'
rdata$r	ENDS
;	COMDAT ??_R2CGdiObject@@8
rdata$r	SEGMENT DWORD USE32 PUBLIC 'CONST'
rdata$r	ENDS
;	COMDAT ??_R1A@?0A@A@CGdiObject@@8
rdata$r	SEGMENT DWORD USE32 PUBLIC 'CONST'
rdata$r	ENDS
;	COMDAT ??_GCGdiObject@@UAEPAXI@Z
_TEXT	SEGMENT PARA USE32 PUBLIC 'CODE'
_TEXT	ENDS
;	COMDAT ??1CGdiObject@@UAE@XZ
_TEXT	SEGMENT PARA USE32 PUBLIC 'CODE'
_TEXT	ENDS
;	COMDAT ??_7CBitmap@@6B@
CONST	SEGMENT DWORD USE32 PUBLIC 'CONST'
CONST	ENDS
;	COMDAT ??_R4CBitmap@@6B@
rdata$r	SEGMENT DWORD USE32 PUBLIC 'CONST'
rdata$r	ENDS
;	COMDAT ??_R0?AVCBitmap@@@8
_DATA	SEGMENT DWORD USE32 PUBLIC 'DATA'
_DATA	ENDS
;	COMDAT ??_R3CBitmap@@8
rdata$r	SEGMENT DWORD USE32 PUBLIC 'CONST'
rdata$r	ENDS
;	COMDAT ??_R2CBitmap@@8
rdata$r	SEGMENT DWORD USE32 PUBLIC 'CONST'
rdata$r	ENDS
;	COMDAT ??_R1A@?0A@A@CBitmap@@8
rdata$r	SEGMENT DWORD USE32 PUBLIC 'CONST'
rdata$r	ENDS
;	COMDAT ??_GCBitmap@@UAEPAXI@Z
_TEXT	SEGMENT PARA USE32 PUBLIC 'CODE'
_TEXT	ENDS
;	COMDAT ??1CBitmap@@UAE@XZ
_TEXT	SEGMENT PARA USE32 PUBLIC 'CODE'
_TEXT	ENDS
;	COMDAT ?CreateCompatibleBitmap@CBitmap@@QAEHPAVCDC@@HH@Z
_TEXT	SEGMENT PARA USE32 PUBLIC 'CODE'
_TEXT	ENDS
;	COMDAT ??BCRect@@QAEPAUtagRECT@@XZ
_TEXT	SEGMENT PARA USE32 PUBLIC 'CODE'
_TEXT	ENDS
;	COMDAT ?MoveWindow@CWnd@@QAEXPBUtagRECT@@H@Z
_TEXT	SEGMENT PARA USE32 PUBLIC 'CODE'
_TEXT	ENDS
;	COMDAT ?IsWindowVisible@CWnd@@QBEHXZ
_TEXT	SEGMENT PARA USE32 PUBLIC 'CODE'
_TEXT	ENDS
;	COMDAT ?Release@CStringData@ATL@@QAEXXZ
_TEXT	SEGMENT PARA USE32 PUBLIC 'CODE'
_TEXT	ENDS
;	COMDAT ?data@CStringData@ATL@@QAEPAXXZ
_TEXT	SEGMENT PARA USE32 PUBLIC 'CODE'
_TEXT	ENDS
;	COMDAT ?GetDefaultManager@?$StrTraitMFC_DLL@DV?$ChTraitsCRT@D@ATL@@@@SAPAUIAtlStringMgr@ATL@@XZ
_TEXT	SEGMENT PARA USE32 PUBLIC 'CODE'
_TEXT	ENDS
;	COMDAT ?FindStringResourceInstance@?$StrTraitMFC_DLL@DV?$ChTraitsCRT@D@ATL@@@@SAPAUHINSTANCE__@@I@Z
_TEXT	SEGMENT PARA USE32 PUBLIC 'CODE'
_TEXT	ENDS
;	COMDAT ?AtlGetStringResourceImage@ATL@@YAPBUATLSTRINGRESOURCEIMAGE@1@PAUHINSTANCE__@@I@Z
_TEXT	SEGMENT PARA USE32 PUBLIC 'CODE'
_TEXT	ENDS
;	COMDAT ?_AtlGetStringResourceImage@ATL@@YAPBUATLSTRINGRESOURCEIMAGE@1@PAUHINSTANCE__@@PAUHRSRC__@@I@Z
_TEXT	SEGMENT PARA USE32 PUBLIC 'CODE'
_TEXT	ENDS
;	COMDAT ?GetBaseTypeLength@?$ChTraitsCRT@D@ATL@@SAHPB_WH@Z
_TEXT	SEGMENT PARA USE32 PUBLIC 'CODE'
_TEXT	ENDS
;	COMDAT ?_AtlGetConversionACP@ATL@@YGIXZ
_TEXT	SEGMENT PARA USE32 PUBLIC 'CODE'
_TEXT	ENDS
;	COMDAT ?g_pfnGetThreadACP@ATL@@3P6GIXZA
_DATA	SEGMENT DWORD USE32 PUBLIC 'DATA'
_DATA	ENDS
;	COMDAT ?_AtlGetThreadACPThunk@ATL@@YGIXZ
_TEXT	SEGMENT PARA USE32 PUBLIC 'CODE'
_TEXT	ENDS
;	COMDAT ?_AtlGetThreadACPReal@ATL@@YGIXZ
_TEXT	SEGMENT PARA USE32 PUBLIC 'CODE'
_TEXT	ENDS
;	COMDAT ?_AtlGetThreadACPFake@ATL@@YGIXZ
_TEXT	SEGMENT PARA USE32 PUBLIC 'CODE'
_TEXT	ENDS
;	COMDAT ?InterlockedExchangePointer@@YGPAXPAPAXPAX@Z
_TEXT	SEGMENT PARA USE32 PUBLIC 'CODE'
_TEXT	ENDS
;	COMDAT ?IsShared@CStringData@ATL@@QBE_NXZ
_TEXT	SEGMENT PARA USE32 PUBLIC 'CODE'
_TEXT	ENDS
;	COMDAT ?AtlThrow@ATL@@YGXJ@Z
_TEXT	SEGMENT PARA USE32 PUBLIC 'CODE'
_TEXT	ENDS
;	COMDAT ?ConvertToBaseType@?$ChTraitsCRT@D@ATL@@SAXPADHPB_WH@Z
_TEXT	SEGMENT PARA USE32 PUBLIC 'CODE'
_TEXT	ENDS
;	COMDAT ?IsLocked@CStringData@ATL@@QBE_NXZ
_TEXT	SEGMENT PARA USE32 PUBLIC 'CODE'
_TEXT	ENDS
;	COMDAT ?GetParent@CWnd@@QBEPAV1@XZ
_TEXT	SEGMENT PARA USE32 PUBLIC 'CODE'
_TEXT	ENDS
;	COMDAT ?GetWindowRect@CWnd@@QBEXPAUtagRECT@@@Z
_TEXT	SEGMENT PARA USE32 PUBLIC 'CODE'
_TEXT	ENDS
;	COMDAT ??0CRect@@QAE@XZ
_TEXT	SEGMENT PARA USE32 PUBLIC 'CODE'
_TEXT	ENDS
;	COMDAT ?SendMessageA@CWnd@@QAEJIIJ@Z
_TEXT	SEGMENT PARA USE32 PUBLIC 'CODE'
_TEXT	ENDS
;	COMDAT ?ScreenToClient@CWnd@@QBEXPAUtagPOINT@@@Z
_TEXT	SEGMENT PARA USE32 PUBLIC 'CODE'
_TEXT	ENDS
;	COMDAT ?OnMouseMove@CWnd@@IAEXIVCPoint@@@Z
_TEXT	SEGMENT PARA USE32 PUBLIC 'CODE'
_TEXT	ENDS
;	COMDAT ?OnLButtonUp@CWnd@@IAEXIVCPoint@@@Z
_TEXT	SEGMENT PARA USE32 PUBLIC 'CODE'
_TEXT	ENDS
;	COMDAT ?GetCapture@CWnd@@SGPAV1@XZ
_TEXT	SEGMENT PARA USE32 PUBLIC 'CODE'
_TEXT	ENDS
;	COMDAT ?KillTimer@CWnd@@QAEHI@Z
_TEXT	SEGMENT PARA USE32 PUBLIC 'CODE'
_TEXT	ENDS
;	COMDAT ?OnLButtonDown@CWnd@@IAEXIVCPoint@@@Z
_TEXT	SEGMENT PARA USE32 PUBLIC 'CODE'
_TEXT	ENDS
;	COMDAT ?SetTimer@CWnd@@QAEIIIP6GXPAUHWND__@@IIK@Z@Z
_TEXT	SEGMENT PARA USE32 PUBLIC 'CODE'
_TEXT	ENDS
;	COMDAT ??GCPoint@@QBE?AVCSize@@UtagPOINT@@@Z
_TEXT	SEGMENT PARA USE32 PUBLIC 'CODE'
_TEXT	ENDS
;	COMDAT ??0CSize@@QAE@HH@Z
_TEXT	SEGMENT PARA USE32 PUBLIC 'CODE'
_TEXT	ENDS
;	COMDAT ??0CPoint@@QAE@UtagSIZE@@@Z
_TEXT	SEGMENT PARA USE32 PUBLIC 'CODE'
_TEXT	ENDS
;	COMDAT ?SetCapture@CWnd@@QAEPAV1@XZ
_TEXT	SEGMENT PARA USE32 PUBLIC 'CODE'
_TEXT	ENDS
;	COMDAT ?Invalidate@CWnd@@QAEXH@Z
_TEXT	SEGMENT PARA USE32 PUBLIC 'CODE'
_TEXT	ENDS
;	COMDAT ?GetSafeHwnd@CWnd@@QBEPAUHWND__@@XZ
_TEXT	SEGMENT PARA USE32 PUBLIC 'CODE'
_TEXT	ENDS
;	COMDAT ?_messageEntries@CScrollBarEx@@0QBUAFX_MSGMAP_ENTRY@@B
CONST	SEGMENT DWORD USE32 PUBLIC 'CONST'
CONST	ENDS
;	COMDAT ?messageMap@CScrollBarEx@@1UAFX_MSGMAP@@B
CONST	SEGMENT DWORD USE32 PUBLIC 'CONST'
CONST	ENDS
;	COMDAT ??3CObject@@SGXPAX@Z
_TEXT	SEGMENT PARA USE32 PUBLIC 'CODE'
_TEXT	ENDS
;	COMDAT ??0CPoint@@QAE@XZ
_TEXT	SEGMENT PARA USE32 PUBLIC 'CODE'
_TEXT	ENDS
;	COMDAT ??_7CScrollBarEx@@6B@
CONST	SEGMENT DWORD USE32 PUBLIC 'CONST'
CONST	ENDS
;	COMDAT ??0CStatic@@QAE@XZ
_TEXT	SEGMENT PARA USE32 PUBLIC 'CODE'
_TEXT	ENDS
;	COMDAT ??_7CStatic@@6B@
CONST	SEGMENT DWORD USE32 PUBLIC 'CONST'
CONST	ENDS
;	COMDAT ??_R4CStatic@@6B@
rdata$r	SEGMENT DWORD USE32 PUBLIC 'CONST'
rdata$r	ENDS
;	COMDAT ??_R3CStatic@@8
rdata$r	SEGMENT DWORD USE32 PUBLIC 'CONST'
rdata$r	ENDS
;	COMDAT ??_R2CStatic@@8
rdata$r	SEGMENT DWORD USE32 PUBLIC 'CONST'
rdata$r	ENDS
;	COMDAT ??_GCStatic@@UAEPAXI@Z
_TEXT	SEGMENT PARA USE32 PUBLIC 'CODE'
_TEXT	ENDS
;	COMDAT ??_7DIBINFO@@6B@
CONST	SEGMENT DWORD USE32 PUBLIC 'CONST'
CONST	ENDS
sxdata	SEGMENT DWORD USE32 'SXDATA'
sxdata	ENDS
FLAT	GROUP _DATA, CONST, _BSS
	ASSUME	CS: FLAT, DS: FLAT, SS: FLAT
endif

INCLUDELIB MSVCRT
INCLUDELIB OLDNAMES

PUBLIC	?g_pfnGetThreadACP@ATL@@3P6GIXZA		; ATL::g_pfnGetThreadACP
PUBLIC	?_AtlGetThreadACPThunk@ATL@@YGIXZ		; ATL::_AtlGetThreadACPThunk
PUBLIC	?OnLButtonDown@CScrollBarEx@@IAEXIVCPoint@@@Z	; CScrollBarEx::OnLButtonDown
PUBLIC	?OnLButtonDblClk@CScrollBarEx@@IAEXIVCPoint@@@Z	; CScrollBarEx::OnLButtonDblClk
PUBLIC	?OnLButtonUp@CScrollBarEx@@IAEXIVCPoint@@@Z	; CScrollBarEx::OnLButtonUp
PUBLIC	?OnMouseMove@CScrollBarEx@@IAEXIVCPoint@@@Z	; CScrollBarEx::OnMouseMove
PUBLIC	?OnTimer@CScrollBarEx@@IAEXI@Z			; CScrollBarEx::OnTimer
PUBLIC	?OnDlgMouseWheel@CScrollBarEx@@IAEJIJ@Z		; CScrollBarEx::OnDlgMouseWheel
PUBLIC	?OnMouseLeave@CScrollBarEx@@IAEJIJ@Z		; CScrollBarEx::OnMouseLeave
PUBLIC	?_messageEntries@CScrollBarEx@@0QBUAFX_MSGMAP_ENTRY@@B ; CScrollBarEx::_messageEntries
PUBLIC	?messageMap@CScrollBarEx@@1UAFX_MSGMAP@@B	; CScrollBarEx::messageMap
PUBLIC	?OnCreate@CScrollBarEx@@QAEHPAUtagCREATESTRUCTA@@@Z ; CScrollBarEx::OnCreate
EXTRN	?GetThisMessageMap@CWnd@@KGPBUAFX_MSGMAP@@XZ:NEAR ; CWnd::GetThisMessageMap
;	COMDAT ?_messageEntries@CScrollBarEx@@0QBUAFX_MSGMAP_ENTRY@@B
CONST	SEGMENT
?_messageEntries@CScrollBarEx@@0QBUAFX_MSGMAP_ENTRY@@B DD 0201H ; CScrollBarEx::_messageEntries
	DD	00H
	DD	00H
	DD	00H
	DD	032H
	DD	FLAT:?OnLButtonDown@CScrollBarEx@@IAEXIVCPoint@@@Z
	DD	0203H
	DD	00H
	DD	00H
	DD	00H
	DD	032H
	DD	FLAT:?OnLButtonDblClk@CScrollBarEx@@IAEXIVCPoint@@@Z
	DD	0202H
	DD	00H
	DD	00H
	DD	00H
	DD	032H
	DD	FLAT:?OnLButtonUp@CScrollBarEx@@IAEXIVCPoint@@@Z
	DD	0200H
	DD	00H
	DD	00H
	DD	00H
	DD	032H
	DD	FLAT:?OnMouseMove@CScrollBarEx@@IAEXIVCPoint@@@Z
	DD	0113H
	DD	00H
	DD	00H
	DD	00H
	DD	011H
	DD	FLAT:?OnTimer@CScrollBarEx@@IAEXI@Z
	DD	02a3H
	DD	00H
	DD	00H
	DD	00H
	DD	0eH
	DD	FLAT:?OnMouseLeave@CScrollBarEx@@IAEJIJ@Z
	DD	07e8H
	DD	00H
	DD	00H
	DD	00H
	DD	0eH
	DD	FLAT:?OnDlgMouseWheel@CScrollBarEx@@IAEJIJ@Z
	DD	01H
	DD	00H
	DD	00H
	DD	00H
	DD	0dH
	DD	FLAT:?OnCreate@CScrollBarEx@@QAEHPAUtagCREATESTRUCTA@@@Z
	DD	00H
	DD	00H
	DD	00H
	DD	00H
	DD	00H
	DD	00H
CONST	ENDS
;	COMDAT ?messageMap@CScrollBarEx@@1UAFX_MSGMAP@@B
CONST	SEGMENT
?messageMap@CScrollBarEx@@1UAFX_MSGMAP@@B DD FLAT:?GetThisMessageMap@CWnd@@KGPBUAFX_MSGMAP@@XZ ; CScrollBarEx::messageMap
	DD	FLAT:?_messageEntries@CScrollBarEx@@0QBUAFX_MSGMAP_ENTRY@@B
CONST	ENDS
CONST	SEGMENT
$SG198027 DB	'SysListView32', 00H
	ORG $+2
$SG198068 DB	'SysListView32', 00H
	ORG $+2
$SG198260 DB	'AfxFrameOrView80ud', 00H
	ORG $+1
$SG198261 DB	'AfxFrameOrView70d', 00H
	ORG $+2
$SG198262 DB	'AfxFrameOrView80u', 00H
	ORG $+2
$SG198263 DB	'AfxFrameOrView70', 00H
CONST	ENDS
;	COMDAT ?g_pfnGetThreadACP@ATL@@3P6GIXZA
_DATA	SEGMENT
?g_pfnGetThreadACP@ATL@@3P6GIXZA DD FLAT:?_AtlGetThreadACPThunk@ATL@@YGIXZ ; ATL::g_pfnGetThreadACP
_DATA	ENDS
PUBLIC	??0CPoint@@QAE@XZ				; CPoint::CPoint
PUBLIC	??_R4CScrollBarEx@@6B@				; CScrollBarEx::`RTTI Complete Object Locator'
PUBLIC	??_R0?AVCScrollBarEx@@@8			; CScrollBarEx `RTTI Type Descriptor'
PUBLIC	??_R3CScrollBarEx@@8				; CScrollBarEx::`RTTI Class Hierarchy Descriptor'
PUBLIC	??_R2CScrollBarEx@@8				; CScrollBarEx::`RTTI Base Class Array'
PUBLIC	??_R1A@?0A@A@CScrollBarEx@@8			; CScrollBarEx::`RTTI Base Class Descriptor at (0,-1,0,0)'
PUBLIC	??_R1A@?0A@A@CObject@@8				; CObject::`RTTI Base Class Descriptor at (0,-1,0,0)'
PUBLIC	??_R0?AVCObject@@@8				; CObject `RTTI Type Descriptor'
PUBLIC	??0CStatic@@QAE@XZ				; CStatic::CStatic
PUBLIC	??_R1A@?0A@A@CWnd@@8				; CWnd::`RTTI Base Class Descriptor at (0,-1,0,0)'
PUBLIC	??_R0?AVCWnd@@@8				; CWnd `RTTI Type Descriptor'
PUBLIC	??_R1A@?0A@A@CCmdTarget@@8			; CCmdTarget::`RTTI Base Class Descriptor at (0,-1,0,0)'
PUBLIC	??_R0?AVCCmdTarget@@@8				; CCmdTarget `RTTI Type Descriptor'
PUBLIC	?Serialize@CObject@@UAEXAAVCArchive@@@Z		; CObject::Serialize
PUBLIC	?AssertValid@CObject@@UBEXXZ			; CObject::AssertValid
PUBLIC	?Dump@CObject@@UBEXAAVCDumpContext@@@Z		; CObject::Dump
PUBLIC	??_R0?AVCStatic@@@8				; CStatic `RTTI Type Descriptor'
PUBLIC	??_R1A@?0A@A@CStatic@@8				; CStatic::`RTTI Base Class Descriptor at (0,-1,0,0)'
PUBLIC	?PreSubclassWindow@CScrollBarEx@@MAEXXZ		; CScrollBarEx::PreSubclassWindow
PUBLIC	?GetMessageMap@CScrollBarEx@@MBEPBUAFX_MSGMAP@@XZ ; CScrollBarEx::GetMessageMap
PUBLIC	??0CScrollBarEx@@QAE@XZ				; CScrollBarEx::CScrollBarEx
PUBLIC	??_7CScrollBarEx@@6B@				; CScrollBarEx::`vftable'
PUBLIC	??_GCScrollBarEx@@UAEPAXI@Z			; CScrollBarEx::`scalar deleting destructor'
PUBLIC	?DoDataExchange@CWnd@@MAEXPAVCDataExchange@@@Z	; CWnd::DoDataExchange
PUBLIC	?BeginModalState@CWnd@@UAEXXZ			; CWnd::BeginModalState
PUBLIC	?EndModalState@CWnd@@UAEXXZ			; CWnd::EndModalState
EXTRN	?CreateControlContainer@CWnd@@MAEHPAPAVCOleControlContainer@@@Z:NEAR ; CWnd::CreateControlContainer
EXTRN	?CreateControlSite@CWnd@@MAEHPAVCOleControlContainer@@PAPAVCOleControlSite@@IABU_GUID@@@Z:NEAR ; CWnd::CreateControlSite
EXTRN	?SetOccDialogInfo@CWnd@@MAEHPAU_AFX_OCC_DIALOG_INFO@@@Z:NEAR ; CWnd::SetOccDialogInfo
EXTRN	?OnToolHitTest@CWnd@@UBEHVCPoint@@PAUtagTOOLINFOA@@@Z:NEAR ; CWnd::OnToolHitTest
EXTRN	?GetRuntimeClass@CStatic@@UBEPAUCRuntimeClass@@XZ:NEAR ; CStatic::GetRuntimeClass
EXTRN	?Create@CStatic@@UAEHPBDKABUtagRECT@@PAVCWnd@@I@Z:NEAR ; CStatic::Create
EXTRN	?GetScrollBarCtrl@CWnd@@UBEPAVCScrollBar@@H@Z:NEAR ; CWnd::GetScrollBarCtrl
EXTRN	?DrawItem@CStatic@@UAEXPAUtagDRAWITEMSTRUCT@@@Z:NEAR ; CStatic::DrawItem
EXTRN	?OnChildNotify@CStatic@@MAEHIIJPAJ@Z:NEAR	; CStatic::OnChildNotify
EXTRN	?WinHelpA@CWnd@@UAEXKI@Z:NEAR			; CWnd::WinHelpA
EXTRN	?HtmlHelpA@CWnd@@UAEXKI@Z:NEAR			; CWnd::HtmlHelpA
EXTRN	?WinHelpInternal@CWnd@@UAEXKI@Z:NEAR		; CWnd::WinHelpInternal
EXTRN	?ContinueModal@CWnd@@UAEHXZ:NEAR		; CWnd::ContinueModal
EXTRN	?EndModalLoop@CWnd@@UAEXH@Z:NEAR		; CWnd::EndModalLoop
EXTRN	?GetInterfaceMap@CWnd@@MBEPBUAFX_INTERFACEMAP@@XZ:NEAR ; CWnd::GetInterfaceMap
EXTRN	?EnsureStdObj@CWnd@@UAEJXZ:NEAR			; CWnd::EnsureStdObj
EXTRN	?get_accParent@CWnd@@UAEJPAPAUIDispatch@@@Z:NEAR ; CWnd::get_accParent
EXTRN	?get_accChildCount@CWnd@@UAEJPAJ@Z:NEAR		; CWnd::get_accChildCount
EXTRN	?OnCmdMsg@CCmdTarget@@UAEHIHPAXPAUAFX_CMDHANDLERINFO@@@Z:NEAR ; CCmdTarget::OnCmdMsg
EXTRN	?get_accChild@CWnd@@UAEJUtagVARIANT@@PAPAUIDispatch@@@Z:NEAR ; CWnd::get_accChild
EXTRN	?IsInvokeAllowed@CCmdTarget@@UAEHJ@Z:NEAR	; CCmdTarget::IsInvokeAllowed
EXTRN	?get_accName@CWnd@@UAEJUtagVARIANT@@PAPA_W@Z:NEAR ; CWnd::get_accName
EXTRN	?get_accValue@CWnd@@UAEJUtagVARIANT@@PAPA_W@Z:NEAR ; CWnd::get_accValue
EXTRN	?get_accDescription@CWnd@@UAEJUtagVARIANT@@PAPA_W@Z:NEAR ; CWnd::get_accDescription
EXTRN	?GetDispatchIID@CCmdTarget@@UAEHPAU_GUID@@@Z:NEAR ; CCmdTarget::GetDispatchIID
EXTRN	?GetTypeInfoCount@CCmdTarget@@UAEIXZ:NEAR	; CCmdTarget::GetTypeInfoCount
EXTRN	?GetTypeLibCache@CCmdTarget@@UAEPAVCTypeLibCache@@XZ:NEAR ; CCmdTarget::GetTypeLibCache
EXTRN	?get_accRole@CWnd@@UAEJUtagVARIANT@@PAU2@@Z:NEAR ; CWnd::get_accRole
EXTRN	?GetTypeLib@CCmdTarget@@UAEJKPAPAUITypeLib@@@Z:NEAR ; CCmdTarget::GetTypeLib
EXTRN	?get_accState@CWnd@@UAEJUtagVARIANT@@PAU2@@Z:NEAR ; CWnd::get_accState
EXTRN	?get_accHelp@CWnd@@UAEJUtagVARIANT@@PAPA_W@Z:NEAR ; CWnd::get_accHelp
EXTRN	?get_accHelpTopic@CWnd@@UAEJPAPA_WUtagVARIANT@@PAJ@Z:NEAR ; CWnd::get_accHelpTopic
EXTRN	?get_accKeyboardShortcut@CWnd@@UAEJUtagVARIANT@@PAPA_W@Z:NEAR ; CWnd::get_accKeyboardShortcut
EXTRN	?get_accFocus@CWnd@@UAEJPAUtagVARIANT@@@Z:NEAR	; CWnd::get_accFocus
EXTRN	?get_accSelection@CWnd@@UAEJPAUtagVARIANT@@@Z:NEAR ; CWnd::get_accSelection
EXTRN	?get_accDefaultAction@CWnd@@UAEJUtagVARIANT@@PAPA_W@Z:NEAR ; CWnd::get_accDefaultAction
EXTRN	?GetCommandMap@CCmdTarget@@MBEPBUAFX_OLECMDMAP@@XZ:NEAR ; CCmdTarget::GetCommandMap
EXTRN	?accSelect@CWnd@@UAEJJUtagVARIANT@@@Z:NEAR	; CWnd::accSelect
EXTRN	?accLocation@CWnd@@UAEJPAJ000UtagVARIANT@@@Z:NEAR ; CWnd::accLocation
EXTRN	?GetDispatchMap@CCmdTarget@@MBEPBUAFX_DISPMAP@@XZ:NEAR ; CCmdTarget::GetDispatchMap
EXTRN	?accNavigate@CWnd@@UAEJJUtagVARIANT@@PAU2@@Z:NEAR ; CWnd::accNavigate
EXTRN	?accHitTest@CWnd@@UAEJJJPAUtagVARIANT@@@Z:NEAR	; CWnd::accHitTest
EXTRN	?GetConnectionMap@CCmdTarget@@MBEPBUAFX_CONNECTIONMAP@@XZ:NEAR ; CCmdTarget::GetConnectionMap
EXTRN	?accDoDefaultAction@CWnd@@UAEJUtagVARIANT@@@Z:NEAR ; CWnd::accDoDefaultAction
EXTRN	?put_accName@CWnd@@UAEJUtagVARIANT@@PA_W@Z:NEAR	; CWnd::put_accName
EXTRN	?put_accValue@CWnd@@UAEJUtagVARIANT@@PA_W@Z:NEAR ; CWnd::put_accValue
EXTRN	?SetProxy@CWnd@@UAEJPAUIAccessibleProxy@@@Z:NEAR ; CWnd::SetProxy
EXTRN	?CreateAccessibleProxy@CWnd@@UAEJIJPAJ@Z:NEAR	; CWnd::CreateAccessibleProxy
EXTRN	?GetEventSinkMap@CCmdTarget@@MBEPBUAFX_EVENTSINKMAP@@XZ:NEAR ; CCmdTarget::GetEventSinkMap
EXTRN	?OnCreateAggregates@CCmdTarget@@UAEHXZ:NEAR	; CCmdTarget::OnCreateAggregates
EXTRN	?OnCommand@CWnd@@MAEHIJ@Z:NEAR			; CWnd::OnCommand
EXTRN	?GetInterfaceHook@CCmdTarget@@UAEPAUIUnknown@@PBX@Z:NEAR ; CCmdTarget::GetInterfaceHook
EXTRN	?OnNotify@CWnd@@MAEHIJPAJ@Z:NEAR		; CWnd::OnNotify
EXTRN	?GetExtraConnectionPoints@CCmdTarget@@MAEHPAVCPtrArray@@@Z:NEAR ; CCmdTarget::GetExtraConnectionPoints
EXTRN	?GetConnectionHook@CCmdTarget@@MAEPAUIConnectionPoint@@ABU_GUID@@@Z:NEAR ; CCmdTarget::GetConnectionHook
EXTRN	_memset:NEAR
EXTRN	?Create@CWnd@@UAEHPBD0KABUtagRECT@@PAV1@IPAUCCreateContext@@@Z:NEAR ; CWnd::Create
EXTRN	?CreateEx@CWnd@@UAEHKPBD0KHHHHPAUHWND__@@PAUHMENU__@@PAX@Z:NEAR ; CWnd::CreateEx
EXTRN	?CreateEx@CWnd@@UAEHKPBD0KABUtagRECT@@PAV1@IPAX@Z:NEAR ; CWnd::CreateEx
EXTRN	??_ECScrollBarEx@@UAEPAXI@Z:NEAR		; CScrollBarEx::`vector deleting destructor'
EXTRN	?DestroyWindow@CWnd@@UAEHXZ:NEAR		; CWnd::DestroyWindow
EXTRN	__imp__GetSystemMetrics@4:NEAR
EXTRN	?PreCreateWindow@CWnd@@UAEHAAUtagCREATESTRUCTA@@@Z:NEAR ; CWnd::PreCreateWindow
EXTRN	?CalcWindowRect@CWnd@@UAEXPAUtagRECT@@I@Z:NEAR	; CWnd::CalcWindowRect
EXTRN	?GetSuperWndProcAddr@CWnd@@MAEPAP6GJPAUHWND__@@IIJ@ZXZ:NEAR ; CWnd::GetSuperWndProcAddr
EXTRN	??_7type_info@@6B@:QWORD			; type_info::`vftable'
EXTRN	?PreTranslateMessage@CWnd@@UAEHPAUtagMSG@@@Z:NEAR ; CWnd::PreTranslateMessage
EXTRN	?OnAmbientProperty@CWnd@@UAEHPAVCOleControlSite@@JPAUtagVARIANT@@@Z:NEAR ; CWnd::OnAmbientProperty
EXTRN	?WindowProc@CWnd@@MAEJIIJ@Z:NEAR		; CWnd::WindowProc
EXTRN	?OnWndMsg@CWnd@@MAEHIIJPAJ@Z:NEAR		; CWnd::OnWndMsg
EXTRN	?DefWindowProcA@CWnd@@MAEJIIJ@Z:NEAR		; CWnd::DefWindowProcA
EXTRN	?PostNcDestroy@CWnd@@MAEXXZ:NEAR		; CWnd::PostNcDestroy
EXTRN	?CheckAutoCenter@CWnd@@UAEHXZ:NEAR		; CWnd::CheckAutoCenter
EXTRN	?IsFrameWnd@CWnd@@UBEHXZ:NEAR			; CWnd::IsFrameWnd
EXTRN	?OnFinalRelease@CWnd@@UAEXXZ:NEAR		; CWnd::OnFinalRelease
;	COMDAT ??_7CScrollBarEx@@6B@
; File d:\boxgit\playbox\playbox\dev\prj\playbox\src\layoutmgr\changecolor\scrollbarex.cpp
CONST	SEGMENT
??_7CScrollBarEx@@6B@ DD FLAT:??_R4CScrollBarEx@@6B@	; CScrollBarEx::`vftable'
	DD	FLAT:?GetRuntimeClass@CStatic@@UBEPAUCRuntimeClass@@XZ
	DD	FLAT:??_ECScrollBarEx@@UAEPAXI@Z
	DD	FLAT:?Serialize@CObject@@UAEXAAVCArchive@@@Z
	DD	FLAT:?AssertValid@CObject@@UBEXXZ
	DD	FLAT:?Dump@CObject@@UBEXAAVCDumpContext@@@Z
	DD	FLAT:?OnCmdMsg@CCmdTarget@@UAEHIHPAXPAUAFX_CMDHANDLERINFO@@@Z
	DD	FLAT:?OnFinalRelease@CWnd@@UAEXXZ
	DD	FLAT:?IsInvokeAllowed@CCmdTarget@@UAEHJ@Z
	DD	FLAT:?GetDispatchIID@CCmdTarget@@UAEHPAU_GUID@@@Z
	DD	FLAT:?GetTypeInfoCount@CCmdTarget@@UAEIXZ
	DD	FLAT:?GetTypeLibCache@CCmdTarget@@UAEPAVCTypeLibCache@@XZ
	DD	FLAT:?GetTypeLib@CCmdTarget@@UAEJKPAPAUITypeLib@@@Z
	DD	FLAT:?GetMessageMap@CScrollBarEx@@MBEPBUAFX_MSGMAP@@XZ
	DD	FLAT:?GetCommandMap@CCmdTarget@@MBEPBUAFX_OLECMDMAP@@XZ
	DD	FLAT:?GetDispatchMap@CCmdTarget@@MBEPBUAFX_DISPMAP@@XZ
	DD	FLAT:?GetConnectionMap@CCmdTarget@@MBEPBUAFX_CONNECTIONMAP@@XZ
	DD	FLAT:?GetInterfaceMap@CWnd@@MBEPBUAFX_INTERFACEMAP@@XZ
	DD	FLAT:?GetEventSinkMap@CCmdTarget@@MBEPBUAFX_EVENTSINKMAP@@XZ
	DD	FLAT:?OnCreateAggregates@CCmdTarget@@UAEHXZ
	DD	FLAT:?GetInterfaceHook@CCmdTarget@@UAEPAUIUnknown@@PBX@Z
	DD	FLAT:?GetExtraConnectionPoints@CCmdTarget@@MAEHPAVCPtrArray@@@Z
	DD	FLAT:?GetConnectionHook@CCmdTarget@@MAEPAUIConnectionPoint@@ABU_GUID@@@Z
	DD	FLAT:?PreSubclassWindow@CScrollBarEx@@MAEXXZ
	DD	FLAT:?Create@CWnd@@UAEHPBD0KABUtagRECT@@PAV1@IPAUCCreateContext@@@Z
	DD	FLAT:?CreateEx@CWnd@@UAEHKPBD0KABUtagRECT@@PAV1@IPAX@Z
	DD	FLAT:?CreateEx@CWnd@@UAEHKPBD0KHHHHPAUHWND__@@PAUHMENU__@@PAX@Z
	DD	FLAT:?DestroyWindow@CWnd@@UAEHXZ
	DD	FLAT:?PreCreateWindow@CWnd@@UAEHAAUtagCREATESTRUCTA@@@Z
	DD	FLAT:?CalcWindowRect@CWnd@@UAEXPAUtagRECT@@I@Z
	DD	FLAT:?OnToolHitTest@CWnd@@UBEHVCPoint@@PAUtagTOOLINFOA@@@Z
	DD	FLAT:?GetScrollBarCtrl@CWnd@@UBEPAVCScrollBar@@H@Z
	DD	FLAT:?WinHelpA@CWnd@@UAEXKI@Z
	DD	FLAT:?HtmlHelpA@CWnd@@UAEXKI@Z
	DD	FLAT:?WinHelpInternal@CWnd@@UAEXKI@Z
	DD	FLAT:?ContinueModal@CWnd@@UAEHXZ
	DD	FLAT:?EndModalLoop@CWnd@@UAEXH@Z
	DD	FLAT:?EnsureStdObj@CWnd@@UAEJXZ
	DD	FLAT:?get_accParent@CWnd@@UAEJPAPAUIDispatch@@@Z
	DD	FLAT:?get_accChildCount@CWnd@@UAEJPAJ@Z
	DD	FLAT:?get_accChild@CWnd@@UAEJUtagVARIANT@@PAPAUIDispatch@@@Z
	DD	FLAT:?get_accName@CWnd@@UAEJUtagVARIANT@@PAPA_W@Z
	DD	FLAT:?get_accValue@CWnd@@UAEJUtagVARIANT@@PAPA_W@Z
	DD	FLAT:?get_accDescription@CWnd@@UAEJUtagVARIANT@@PAPA_W@Z
	DD	FLAT:?get_accRole@CWnd@@UAEJUtagVARIANT@@PAU2@@Z
	DD	FLAT:?get_accState@CWnd@@UAEJUtagVARIANT@@PAU2@@Z
	DD	FLAT:?get_accHelp@CWnd@@UAEJUtagVARIANT@@PAPA_W@Z
	DD	FLAT:?get_accHelpTopic@CWnd@@UAEJPAPA_WUtagVARIANT@@PAJ@Z
	DD	FLAT:?get_accKeyboardShortcut@CWnd@@UAEJUtagVARIANT@@PAPA_W@Z
	DD	FLAT:?get_accFocus@CWnd@@UAEJPAUtagVARIANT@@@Z
	DD	FLAT:?get_accSelection@CWnd@@UAEJPAUtagVARIANT@@@Z
	DD	FLAT:?get_accDefaultAction@CWnd@@UAEJUtagVARIANT@@PAPA_W@Z
	DD	FLAT:?accSelect@CWnd@@UAEJJUtagVARIANT@@@Z
	DD	FLAT:?accLocation@CWnd@@UAEJPAJ000UtagVARIANT@@@Z
	DD	FLAT:?accNavigate@CWnd@@UAEJJUtagVARIANT@@PAU2@@Z
	DD	FLAT:?accHitTest@CWnd@@UAEJJJPAUtagVARIANT@@@Z
	DD	FLAT:?accDoDefaultAction@CWnd@@UAEJUtagVARIANT@@@Z
	DD	FLAT:?put_accName@CWnd@@UAEJUtagVARIANT@@PA_W@Z
	DD	FLAT:?put_accValue@CWnd@@UAEJUtagVARIANT@@PA_W@Z
	DD	FLAT:?SetProxy@CWnd@@UAEJPAUIAccessibleProxy@@@Z
	DD	FLAT:?CreateAccessibleProxy@CWnd@@UAEJIJPAJ@Z
	DD	FLAT:?OnCommand@CWnd@@MAEHIJ@Z
	DD	FLAT:?OnNotify@CWnd@@MAEHIJPAJ@Z
	DD	FLAT:?GetSuperWndProcAddr@CWnd@@MAEPAP6GJPAUHWND__@@IIJ@ZXZ
	DD	FLAT:?DoDataExchange@CWnd@@MAEXPAVCDataExchange@@@Z
	DD	FLAT:?BeginModalState@CWnd@@UAEXXZ
	DD	FLAT:?EndModalState@CWnd@@UAEXXZ
	DD	FLAT:?PreTranslateMessage@CWnd@@UAEHPAUtagMSG@@@Z
	DD	FLAT:?OnAmbientProperty@CWnd@@UAEHPAVCOleControlSite@@JPAUtagVARIANT@@@Z
	DD	FLAT:?WindowProc@CWnd@@MAEJIIJ@Z
	DD	FLAT:?OnWndMsg@CWnd@@MAEHIIJPAJ@Z
	DD	FLAT:?DefWindowProcA@CWnd@@MAEJIIJ@Z
	DD	FLAT:?PostNcDestroy@CWnd@@MAEXXZ
	DD	FLAT:?OnChildNotify@CStatic@@MAEHIIJPAJ@Z
	DD	FLAT:?CheckAutoCenter@CWnd@@UAEHXZ
	DD	FLAT:?IsFrameWnd@CWnd@@UBEHXZ
	DD	FLAT:?CreateControlContainer@CWnd@@MAEHPAPAVCOleControlContainer@@@Z
	DD	FLAT:?CreateControlSite@CWnd@@MAEHPAVCOleControlContainer@@PAPAVCOleControlSite@@IABU_GUID@@@Z
	DD	FLAT:?SetOccDialogInfo@CWnd@@MAEHPAU_AFX_OCC_DIALOG_INFO@@@Z
	DD	FLAT:?Create@CStatic@@UAEHPBDKABUtagRECT@@PAVCWnd@@I@Z
	DD	FLAT:?DrawItem@CStatic@@UAEXPAUtagDRAWITEMSTRUCT@@@Z
CONST	ENDS
;	COMDAT ??_R4CScrollBarEx@@6B@
rdata$r	SEGMENT
??_R4CScrollBarEx@@6B@ DD 00H				; CScrollBarEx::`RTTI Complete Object Locator'
	DD	00H
	DD	00H
	DD	FLAT:??_R0?AVCScrollBarEx@@@8
	DD	FLAT:??_R3CScrollBarEx@@8
rdata$r	ENDS
;	COMDAT ??_R0?AVCScrollBarEx@@@8
_DATA	SEGMENT
??_R0?AVCScrollBarEx@@@8 DD FLAT:??_7type_info@@6B@	; CScrollBarEx `RTTI Type Descriptor'
	DD	00H
	DB	'.?AVCScrollBarEx@@', 00H
_DATA	ENDS
;	COMDAT ??_R3CScrollBarEx@@8
rdata$r	SEGMENT
??_R3CScrollBarEx@@8 DD 00H				; CScrollBarEx::`RTTI Class Hierarchy Descriptor'
	DD	00H
	DD	05H
	DD	FLAT:??_R2CScrollBarEx@@8
rdata$r	ENDS
;	COMDAT ??_R2CScrollBarEx@@8
rdata$r	SEGMENT
??_R2CScrollBarEx@@8 DD FLAT:??_R1A@?0A@A@CScrollBarEx@@8 ; CScrollBarEx::`RTTI Base Class Array'
	DD	FLAT:??_R1A@?0A@A@CStatic@@8
	DD	FLAT:??_R1A@?0A@A@CWnd@@8
	DD	FLAT:??_R1A@?0A@A@CCmdTarget@@8
	DD	FLAT:??_R1A@?0A@A@CObject@@8
rdata$r	ENDS
;	COMDAT ??_R1A@?0A@A@CScrollBarEx@@8
rdata$r	SEGMENT
??_R1A@?0A@A@CScrollBarEx@@8 DD FLAT:??_R0?AVCScrollBarEx@@@8 ; CScrollBarEx::`RTTI Base Class Descriptor at (0,-1,0,0)'
	DD	04H
	DD	00H
	DD	0ffffffffH
	DD	00H
	DD	00H
rdata$r	ENDS
;	COMDAT ??_R1A@?0A@A@CStatic@@8
rdata$r	SEGMENT
??_R1A@?0A@A@CStatic@@8 DD FLAT:??_R0?AVCStatic@@@8	; CStatic::`RTTI Base Class Descriptor at (0,-1,0,0)'
	DD	03H
	DD	00H
	DD	0ffffffffH
	DD	00H
	DD	00H
rdata$r	ENDS
;	COMDAT ??_R0?AVCStatic@@@8
_DATA	SEGMENT
??_R0?AVCStatic@@@8 DD FLAT:??_7type_info@@6B@		; CStatic `RTTI Type Descriptor'
	DD	00H
	DB	'.?AVCStatic@@', 00H
_DATA	ENDS
;	COMDAT ??_R1A@?0A@A@CWnd@@8
rdata$r	SEGMENT
??_R1A@?0A@A@CWnd@@8 DD FLAT:??_R0?AVCWnd@@@8		; CWnd::`RTTI Base Class Descriptor at (0,-1,0,0)'
	DD	02H
	DD	00H
	DD	0ffffffffH
	DD	00H
	DD	00H
rdata$r	ENDS
;	COMDAT ??_R0?AVCWnd@@@8
_DATA	SEGMENT
??_R0?AVCWnd@@@8 DD FLAT:??_7type_info@@6B@		; CWnd `RTTI Type Descriptor'
	DD	00H
	DB	'.?AVCWnd@@', 00H
_DATA	ENDS
;	COMDAT ??_R1A@?0A@A@CCmdTarget@@8
rdata$r	SEGMENT
??_R1A@?0A@A@CCmdTarget@@8 DD FLAT:??_R0?AVCCmdTarget@@@8 ; CCmdTarget::`RTTI Base Class Descriptor at (0,-1,0,0)'
	DD	01H
	DD	00H
	DD	0ffffffffH
	DD	00H
	DD	00H
rdata$r	ENDS
;	COMDAT ??_R0?AVCCmdTarget@@@8
_DATA	SEGMENT
??_R0?AVCCmdTarget@@@8 DD FLAT:??_7type_info@@6B@	; CCmdTarget `RTTI Type Descriptor'
	DD	00H
	DB	'.?AVCCmdTarget@@', 00H
_DATA	ENDS
;	COMDAT ??_R1A@?0A@A@CObject@@8
rdata$r	SEGMENT
??_R1A@?0A@A@CObject@@8 DD FLAT:??_R0?AVCObject@@@8	; CObject::`RTTI Base Class Descriptor at (0,-1,0,0)'
	DD	00H
	DD	00H
	DD	0ffffffffH
	DD	00H
	DD	00H
rdata$r	ENDS
;	COMDAT ??_R0?AVCObject@@@8
_DATA	SEGMENT
??_R0?AVCObject@@@8 DD FLAT:??_7type_info@@6B@		; CObject `RTTI Type Descriptor'
	DD	00H
	DB	'.?AVCObject@@', 00H
; Function compile flags: /Odt
_DATA	ENDS
_TEXT	SEGMENT
_this$ = -4						; size = 4
??0CScrollBarEx@@QAE@XZ PROC NEAR			; CScrollBarEx::CScrollBarEx
; _this$ = ecx

; 17   : {

  00000	55		 push	 ebp
  00001	8b ec		 mov	 ebp, esp
  00003	51		 push	 ecx
  00004	89 4d fc	 mov	 DWORD PTR _this$[ebp], ecx
  00007	8b 4d fc	 mov	 ecx, DWORD PTR _this$[ebp]
  0000a	e8 00 00 00 00	 call	 ??0CStatic@@QAE@XZ	; CStatic::CStatic
  0000f	8b 45 fc	 mov	 eax, DWORD PTR _this$[ebp]
  00012	c7 00 00 00 00
	00		 mov	 DWORD PTR [eax], OFFSET FLAT:??_7CScrollBarEx@@6B@
  00018	8b 4d fc	 mov	 ecx, DWORD PTR _this$[ebp]
  0001b	81 c1 a8 00 00
	00		 add	 ecx, 168		; 000000a8H
  00021	e8 00 00 00 00	 call	 ??0CPoint@@QAE@XZ	; CPoint::CPoint

; 18   : 	mpWnd = NULL;

  00026	8b 4d fc	 mov	 ecx, DWORD PTR _this$[ebp]
  00029	c7 41 54 00 00
	00 00		 mov	 DWORD PTR [ecx+84], 0

; 19   : 	mScrollOrientation = esoVertical;

  00030	8b 55 fc	 mov	 edx, DWORD PTR _this$[ebp]
  00033	c7 82 80 00 00
	00 01 00 00 00	 mov	 DWORD PTR [edx+128], 1

; 20   : 	mbEnabled = false;

  0003d	8b 45 fc	 mov	 eax, DWORD PTR _this$[ebp]
  00040	c6 80 98 00 00
	00 00		 mov	 BYTE PTR [eax+152], 0

; 21   : 	mbTrackLeave = false;

  00047	8b 4d fc	 mov	 ecx, DWORD PTR _this$[ebp]
  0004a	c6 81 99 00 00
	00 00		 mov	 BYTE PTR [ecx+153], 0

; 22   : 	mbLButtonDown = false;

  00051	8b 55 fc	 mov	 edx, DWORD PTR _this$[ebp]
  00054	c6 82 9a 00 00
	00 00		 mov	 BYTE PTR [edx+154], 0

; 23   : 	mbUpArrowDown = false;

  0005b	8b 45 fc	 mov	 eax, DWORD PTR _this$[ebp]
  0005e	c6 80 9b 00 00
	00 00		 mov	 BYTE PTR [eax+155], 0

; 24   : 	mbDownArrowDown = false;

  00065	8b 4d fc	 mov	 ecx, DWORD PTR _this$[ebp]
  00068	c6 81 9c 00 00
	00 00		 mov	 BYTE PTR [ecx+156], 0

; 25   : 	mbThumbDown = false;

  0006f	8b 55 fc	 mov	 edx, DWORD PTR _this$[ebp]
  00072	c6 82 9d 00 00
	00 00		 mov	 BYTE PTR [edx+157], 0

; 26   : 	mbThumbSpaceDown = false;

  00079	8b 45 fc	 mov	 eax, DWORD PTR _this$[ebp]
  0007c	c6 80 9e 00 00
	00 00		 mov	 BYTE PTR [eax+158], 0

; 27   : 	miLastHitTest = HTNOWHERE;

  00083	8b 4d fc	 mov	 ecx, DWORD PTR _this$[ebp]
  00086	c7 81 a0 00 00
	00 00 00 00 00	 mov	 DWORD PTR [ecx+160], 0

; 28   : 	miLButtonDownHitTest = HTNOWHERE;

  00090	8b 55 fc	 mov	 edx, DWORD PTR _this$[ebp]
  00093	c7 82 a4 00 00
	00 00 00 00 00	 mov	 DWORD PTR [edx+164], 0

; 29   : 	miButtonSize = GetSystemMetrics(SM_CXHTHUMB);

  0009d	6a 0a		 push	 10			; 0000000aH
  0009f	ff 15 00 00 00
	00		 call	 DWORD PTR __imp__GetSystemMetrics@4
  000a5	8b 4d fc	 mov	 ecx, DWORD PTR _this$[ebp]
  000a8	89 81 94 00 00
	00		 mov	 DWORD PTR [ecx+148], eax

; 30   : 	ZeroMemory(&mScrollInfo, sizeof(mScrollInfo));

  000ae	6a 1c		 push	 28			; 0000001cH
  000b0	6a 00		 push	 0
  000b2	8b 55 fc	 mov	 edx, DWORD PTR _this$[ebp]
  000b5	83 c2 64	 add	 edx, 100		; 00000064H
  000b8	52		 push	 edx
  000b9	e8 00 00 00 00	 call	 _memset
  000be	83 c4 0c	 add	 esp, 12			; 0000000cH

; 31   : 	mScrollInfo.cbSize = sizeof(mScrollInfo);

  000c1	8b 45 fc	 mov	 eax, DWORD PTR _this$[ebp]
  000c4	c7 40 64 1c 00
	00 00		 mov	 DWORD PTR [eax+100], 28	; 0000001cH

; 32   : 
; 33   : 	mrcClient.left = 0;

  000cb	8b 4d fc	 mov	 ecx, DWORD PTR _this$[ebp]
  000ce	c7 81 84 00 00
	00 00 00 00 00	 mov	 DWORD PTR [ecx+132], 0

; 34   : 	mrcClient.top = 0;

  000d8	8b 55 fc	 mov	 edx, DWORD PTR _this$[ebp]
  000db	c7 82 88 00 00
	00 00 00 00 00	 mov	 DWORD PTR [edx+136], 0

; 35   : 	mrcClient.right = 0;

  000e5	8b 45 fc	 mov	 eax, DWORD PTR _this$[ebp]
  000e8	c7 80 8c 00 00
	00 00 00 00 00	 mov	 DWORD PTR [eax+140], 0

; 36   : 	mrcClient.bottom = 0;

  000f2	8b 4d fc	 mov	 ecx, DWORD PTR _this$[ebp]
  000f5	c7 81 90 00 00
	00 00 00 00 00	 mov	 DWORD PTR [ecx+144], 0

; 37   : 
; 38   : 
; 39   : 	/*mcolNormal1 = gWndColor.getColor(SCROLLBAR_CTROL)->colNormal1 ;
; 40   : 	mcolNormal2 = gWndColor.getColor(SCROLLBAR_CTROL)->colNormal2;
; 41   : 	mcolEnter1 = gWndColor.getColor(SCROLLBAR_CTROL)->colEnter1;
; 42   : 	mcolEnter2 = gWndColor.getColor(SCROLLBAR_CTROL)->colEnter2;
; 43   : 	mcolDown1 = gWndColor.getColor(SCROLLBAR_CTROL)->colDown1;
; 44   : 	mcolDown2 = gWndColor.getColor(SCROLLBAR_CTROL)->colDown2;
; 45   : 	mcolFrame1 = gWndColor.getColor(SCROLLBAR_CTROL)->structColBase->colFrame1;
; 46   : 	mcolFrame2 = gWndColor.getColor(SCROLLBAR_CTROL)->structColBase->colFrame2;
; 47   : 	mcolBtn1 = gWndColor.getColor(SCROLLBAR_CTROL)->colDisable1;
; 48   : 	mcolBtn2 = gWndColor.getColor(SCROLLBAR_CTROL)->colDisable2;
; 49   : 	mcolFont = gWndColor.getColor(SCROLLBAR_CTROL)->structColBase->colFont ;
; 50   : 	mcolBK = gWndColor.getColor(SCROLLBAR_CTROL)->structColBase->colBK;*/
; 51   : 
; 52   : 	misDlg = FALSE;

  000ff	8b 55 fc	 mov	 edx, DWORD PTR _this$[ebp]
  00102	c7 82 e0 00 00
	00 00 00 00 00	 mov	 DWORD PTR [edx+224], 0

; 53   : //	mPointOffsetSum = 0;
; 54   : }

  0010c	8b 45 fc	 mov	 eax, DWORD PTR _this$[ebp]
  0010f	8b e5		 mov	 esp, ebp
  00111	5d		 pop	 ebp
  00112	c3		 ret	 0
??0CScrollBarEx@@QAE@XZ ENDP				; CScrollBarEx::CScrollBarEx
_TEXT	ENDS
PUBLIC	??3CObject@@SGXPAX@Z				; CObject::operator delete
PUBLIC	??1CScrollBarEx@@UAE@XZ				; CScrollBarEx::~CScrollBarEx
; Function compile flags: /Odt
;	COMDAT ??_GCScrollBarEx@@UAEPAXI@Z
_TEXT	SEGMENT
_this$ = -4						; size = 4
___flags$ = 8						; size = 4
??_GCScrollBarEx@@UAEPAXI@Z PROC NEAR			; CScrollBarEx::`scalar deleting destructor', COMDAT
; _this$ = ecx
  00000	55		 push	 ebp
  00001	8b ec		 mov	 ebp, esp
  00003	51		 push	 ecx
  00004	89 4d fc	 mov	 DWORD PTR _this$[ebp], ecx
  00007	8b 4d fc	 mov	 ecx, DWORD PTR _this$[ebp]
  0000a	e8 00 00 00 00	 call	 ??1CScrollBarEx@@UAE@XZ	; CScrollBarEx::~CScrollBarEx
  0000f	8b 45 08	 mov	 eax, DWORD PTR ___flags$[ebp]
  00012	83 e0 01	 and	 eax, 1
  00015	74 09		 je	 SHORT $L197844
  00017	8b 4d fc	 mov	 ecx, DWORD PTR _this$[ebp]
  0001a	51		 push	 ecx
  0001b	e8 00 00 00 00	 call	 ??3CObject@@SGXPAX@Z	; CObject::operator delete
$L197844:
  00020	8b 45 fc	 mov	 eax, DWORD PTR _this$[ebp]
  00023	8b e5		 mov	 esp, ebp
  00025	5d		 pop	 ebp
  00026	c2 04 00	 ret	 4
??_GCScrollBarEx@@UAEPAXI@Z ENDP			; CScrollBarEx::`scalar deleting destructor'
_TEXT	ENDS
EXTRN	??1CStatic@@UAE@XZ:NEAR				; CStatic::~CStatic
; Function compile flags: /Odt
_TEXT	SEGMENT
_this$ = -4						; size = 4
??1CScrollBarEx@@UAE@XZ PROC NEAR			; CScrollBarEx::~CScrollBarEx
; _this$ = ecx

; 57   : {

  00120	55		 push	 ebp
  00121	8b ec		 mov	 ebp, esp
  00123	51		 push	 ecx
  00124	89 4d fc	 mov	 DWORD PTR _this$[ebp], ecx
  00127	8b 45 fc	 mov	 eax, DWORD PTR _this$[ebp]
  0012a	c7 00 00 00 00
	00		 mov	 DWORD PTR [eax], OFFSET FLAT:??_7CScrollBarEx@@6B@

; 58   : }

  00130	8b 4d fc	 mov	 ecx, DWORD PTR _this$[ebp]
  00133	e8 00 00 00 00	 call	 ??1CStatic@@UAE@XZ	; CStatic::~CStatic
  00138	8b e5		 mov	 esp, ebp
  0013a	5d		 pop	 ebp
  0013b	c3		 ret	 0
??1CScrollBarEx@@UAE@XZ ENDP				; CScrollBarEx::~CScrollBarEx
_TEXT	ENDS
PUBLIC	?GetThisMessageMap@CScrollBarEx@@KGPBUAFX_MSGMAP@@XZ ; CScrollBarEx::GetThisMessageMap
; Function compile flags: /Odt
_TEXT	SEGMENT
?GetThisMessageMap@CScrollBarEx@@KGPBUAFX_MSGMAP@@XZ PROC NEAR ; CScrollBarEx::GetThisMessageMap

; 60   : BEGIN_MESSAGE_MAP(CScrollBarEx, CStatic)

  00140	55		 push	 ebp
  00141	8b ec		 mov	 ebp, esp
  00143	b8 00 00 00 00	 mov	 eax, OFFSET FLAT:?messageMap@CScrollBarEx@@1UAFX_MSGMAP@@B ; CScrollBarEx::messageMap
  00148	5d		 pop	 ebp
  00149	c3		 ret	 0
?GetThisMessageMap@CScrollBarEx@@KGPBUAFX_MSGMAP@@XZ ENDP ; CScrollBarEx::GetThisMessageMap
; Function compile flags: /Odt
_this$ = -4						; size = 4
?GetMessageMap@CScrollBarEx@@MBEPBUAFX_MSGMAP@@XZ PROC NEAR ; CScrollBarEx::GetMessageMap
; _this$ = ecx

; 60   : BEGIN_MESSAGE_MAP(CScrollBarEx, CStatic)

  00150	55		 push	 ebp
  00151	8b ec		 mov	 ebp, esp
  00153	51		 push	 ecx
  00154	89 4d fc	 mov	 DWORD PTR _this$[ebp], ecx
  00157	b8 00 00 00 00	 mov	 eax, OFFSET FLAT:?messageMap@CScrollBarEx@@1UAFX_MSGMAP@@B ; CScrollBarEx::messageMap
  0015c	8b e5		 mov	 esp, ebp
  0015e	5d		 pop	 ebp
  0015f	c3		 ret	 0
?GetMessageMap@CScrollBarEx@@MBEPBUAFX_MSGMAP@@XZ ENDP	; CScrollBarEx::GetMessageMap
_TEXT	ENDS
PUBLIC	?GetSafeHwnd@CWnd@@QBEPAUHWND__@@XZ		; CWnd::GetSafeHwnd
PUBLIC	?SelfProc@CScrollBarEx@@KGJPAUHWND__@@IIJ@Z	; CScrollBarEx::SelfProc
EXTRN	__imp__SetWindowLongA@12:NEAR
EXTRN	?ModifyStyle@CWnd@@QAEHKKI@Z:NEAR		; CWnd::ModifyStyle
EXTRN	?PreSubclassWindow@CWnd@@UAEXXZ:NEAR		; CWnd::PreSubclassWindow
; Function compile flags: /Odt
_TEXT	SEGMENT
_this$ = -4						; size = 4
?PreSubclassWindow@CScrollBarEx@@MAEXXZ PROC NEAR	; CScrollBarEx::PreSubclassWindow
; _this$ = ecx

; 85   : {

  00160	55		 push	 ebp
  00161	8b ec		 mov	 ebp, esp
  00163	51		 push	 ecx
  00164	89 4d fc	 mov	 DWORD PTR _this$[ebp], ecx

; 86   : 	ModifyStyle(0, SS_NOTIFY);	//使static控件能响应鼠标消息

  00167	6a 00		 push	 0
  00169	68 00 01 00 00	 push	 256			; 00000100H
  0016e	6a 00		 push	 0
  00170	8b 4d fc	 mov	 ecx, DWORD PTR _this$[ebp]
  00173	e8 00 00 00 00	 call	 ?ModifyStyle@CWnd@@QAEHKKI@Z ; CWnd::ModifyStyle

; 87   : 	mWndProc = (WNDPROC)SetWindowLong(this->GetSafeHwnd(), GWL_WNDPROC, (LONG)SelfProc);

  00178	68 00 00 00 00	 push	 OFFSET FLAT:?SelfProc@CScrollBarEx@@KGJPAUHWND__@@IIJ@Z ; CScrollBarEx::SelfProc
  0017d	6a fc		 push	 -4			; fffffffcH
  0017f	8b 4d fc	 mov	 ecx, DWORD PTR _this$[ebp]
  00182	e8 00 00 00 00	 call	 ?GetSafeHwnd@CWnd@@QBEPAUHWND__@@XZ ; CWnd::GetSafeHwnd
  00187	50		 push	 eax
  00188	ff 15 00 00 00
	00		 call	 DWORD PTR __imp__SetWindowLongA@12
  0018e	8b 4d fc	 mov	 ecx, DWORD PTR _this$[ebp]
  00191	89 41 58	 mov	 DWORD PTR [ecx+88], eax

; 88   : 	CStatic::PreSubclassWindow();

  00194	8b 4d fc	 mov	 ecx, DWORD PTR _this$[ebp]
  00197	e8 00 00 00 00	 call	 ?PreSubclassWindow@CWnd@@UAEXXZ ; CWnd::PreSubclassWindow

; 89   : }

  0019c	8b e5		 mov	 esp, ebp
  0019e	5d		 pop	 ebp
  0019f	c3		 ret	 0
?PreSubclassWindow@CScrollBarEx@@MAEXXZ ENDP		; CScrollBarEx::PreSubclassWindow
_TEXT	ENDS
PUBLIC	?Invalidate@CWnd@@QAEXH@Z			; CWnd::Invalidate
PUBLIC	?Draw@CScrollBarEx@@AAEXPAUHWND__@@PAUHDC__@@@Z	; CScrollBarEx::Draw
EXTRN	__imp__CallWindowProcA@20:NEAR
EXTRN	__imp__BeginPaint@8:NEAR
EXTRN	__imp__EndPaint@8:NEAR
EXTRN	___security_cookie:DWORD
EXTRN	@__security_check_cookie@4:NEAR
EXTRN	?FromHandle@CWnd@@SGPAV1@PAUHWND__@@@Z:NEAR	; CWnd::FromHandle
; Function compile flags: /Odt
_TEXT	SEGMENT
tv67 = -88						; size = 4
_lpThis$ = -84						; size = 4
_lReturn$ = -80						; size = 4
_hDC$ = -76						; size = 4
_ps$ = -72						; size = 64
__$ArrayPad$ = -4					; size = 4
__$ReturnAddr$ = 4					; size = 4
_hWnd$ = 8						; size = 4
_uMsg$ = 12						; size = 4
_wParam$ = 16						; size = 4
_lParam$ = 20						; size = 4
?SelfProc@CScrollBarEx@@KGJPAUHWND__@@IIJ@Z PROC NEAR	; CScrollBarEx::SelfProc

; 92   : {

  001a0	55		 push	 ebp
  001a1	8b ec		 mov	 ebp, esp
  001a3	83 ec 58	 sub	 esp, 88			; 00000058H
  001a6	a1 00 00 00 00	 mov	 eax, DWORD PTR ___security_cookie
  001ab	89 45 fc	 mov	 DWORD PTR __$ArrayPad$[ebp], eax

; 93   : 	LONG lReturn = 0;

  001ae	c7 45 b0 00 00
	00 00		 mov	 DWORD PTR _lReturn$[ebp], 0

; 94   : 	CScrollBarEx* lpThis = NULL;

  001b5	c7 45 ac 00 00
	00 00		 mov	 DWORD PTR _lpThis$[ebp], 0

; 95   : 	lpThis = (CScrollBarEx*)CWnd::FromHandle(hWnd);

  001bc	8b 45 08	 mov	 eax, DWORD PTR _hWnd$[ebp]
  001bf	50		 push	 eax
  001c0	e8 00 00 00 00	 call	 ?FromHandle@CWnd@@SGPAV1@PAUHWND__@@@Z ; CWnd::FromHandle
  001c5	89 45 ac	 mov	 DWORD PTR _lpThis$[ebp], eax

; 96   : 	if (lpThis == NULL)

  001c8	83 7d ac 00	 cmp	 DWORD PTR _lpThis$[ebp], 0
  001cc	75 05		 jne	 SHORT $L197906

; 97   : 		return lReturn;

  001ce	8b 45 b0	 mov	 eax, DWORD PTR _lReturn$[ebp]
  001d1	eb 74		 jmp	 SHORT $L197902
$L197906:

; 98   : 
; 99   : 	PAINTSTRUCT ps; 
; 100  : 	HDC hDC; 
; 101  : 	switch (uMsg)

  001d3	8b 4d 0c	 mov	 ecx, DWORD PTR _uMsg$[ebp]
  001d6	89 4d a8	 mov	 DWORD PTR tv67[ebp], ecx
  001d9	83 7d a8 0a	 cmp	 DWORD PTR tv67[ebp], 10	; 0000000aH
  001dd	74 3b		 je	 SHORT $L197914
  001df	83 7d a8 0f	 cmp	 DWORD PTR tv67[ebp], 15	; 0000000fH
  001e3	74 02		 je	 SHORT $L197913
  001e5	eb 3d		 jmp	 SHORT $L197910
$L197913:

; 102  : 	{
; 103  : 	case WM_PAINT:
; 104  : 		{
; 105  : 			hDC = ::BeginPaint(hWnd, &ps);

  001e7	8d 55 b8	 lea	 edx, DWORD PTR _ps$[ebp]
  001ea	52		 push	 edx
  001eb	8b 45 08	 mov	 eax, DWORD PTR _hWnd$[ebp]
  001ee	50		 push	 eax
  001ef	ff 15 00 00 00
	00		 call	 DWORD PTR __imp__BeginPaint@8
  001f5	89 45 b4	 mov	 DWORD PTR _hDC$[ebp], eax

; 106  : 			lpThis->Draw(hWnd, hDC);

  001f8	8b 4d b4	 mov	 ecx, DWORD PTR _hDC$[ebp]
  001fb	51		 push	 ecx
  001fc	8b 55 08	 mov	 edx, DWORD PTR _hWnd$[ebp]
  001ff	52		 push	 edx
  00200	8b 4d ac	 mov	 ecx, DWORD PTR _lpThis$[ebp]
  00203	e8 00 00 00 00	 call	 ?Draw@CScrollBarEx@@AAEXPAUHWND__@@PAUHDC__@@@Z ; CScrollBarEx::Draw

; 107  : 			::EndPaint(hWnd, &ps);

  00208	8d 45 b8	 lea	 eax, DWORD PTR _ps$[ebp]
  0020b	50		 push	 eax
  0020c	8b 4d 08	 mov	 ecx, DWORD PTR _hWnd$[ebp]
  0020f	51		 push	 ecx
  00210	ff 15 00 00 00
	00		 call	 DWORD PTR __imp__EndPaint@8

; 108  : 			return 0L;

  00216	33 c0		 xor	 eax, eax
  00218	eb 2d		 jmp	 SHORT $L197902
$L197914:

; 109  : 		}
; 110  : 		break;
; 111  : 	case WM_ENABLE:
; 112  : 		lpThis->Invalidate();

  0021a	6a 01		 push	 1
  0021c	8b 4d ac	 mov	 ecx, DWORD PTR _lpThis$[ebp]
  0021f	e8 00 00 00 00	 call	 ?Invalidate@CWnd@@QAEXH@Z ; CWnd::Invalidate
$L197910:

; 113  : 		break;
; 114  : 	}
; 115  : 	// 调用原来的回调函数
; 116  : 	lReturn = (LONG)CallWindowProc(lpThis->mWndProc, hWnd, uMsg, wParam, lParam);

  00224	8b 55 14	 mov	 edx, DWORD PTR _lParam$[ebp]
  00227	52		 push	 edx
  00228	8b 45 10	 mov	 eax, DWORD PTR _wParam$[ebp]
  0022b	50		 push	 eax
  0022c	8b 4d 0c	 mov	 ecx, DWORD PTR _uMsg$[ebp]
  0022f	51		 push	 ecx
  00230	8b 55 08	 mov	 edx, DWORD PTR _hWnd$[ebp]
  00233	52		 push	 edx
  00234	8b 45 ac	 mov	 eax, DWORD PTR _lpThis$[ebp]
  00237	8b 48 58	 mov	 ecx, DWORD PTR [eax+88]
  0023a	51		 push	 ecx
  0023b	ff 15 00 00 00
	00		 call	 DWORD PTR __imp__CallWindowProcA@20
  00241	89 45 b0	 mov	 DWORD PTR _lReturn$[ebp], eax

; 117  : 	return lReturn;

  00244	8b 45 b0	 mov	 eax, DWORD PTR _lReturn$[ebp]
$L197902:

; 118  : }

  00247	8b 4d fc	 mov	 ecx, DWORD PTR __$ArrayPad$[ebp]
  0024a	e8 00 00 00 00	 call	 @__security_check_cookie@4
  0024f	8b e5		 mov	 esp, ebp
  00251	5d		 pop	 ebp
  00252	c2 10 00	 ret	 16			; 00000010H
?SelfProc@CScrollBarEx@@KGJPAUHWND__@@IIJ@Z ENDP	; CScrollBarEx::SelfProc
_TEXT	ENDS
PUBLIC	??0CPoint@@QAE@UtagSIZE@@@Z			; CPoint::CPoint
PUBLIC	??GCPoint@@QBE?AVCSize@@UtagPOINT@@@Z		; CPoint::operator-
PUBLIC	?SetTimer@CWnd@@QAEIIIP6GXPAUHWND__@@IIK@Z@Z	; CWnd::SetTimer
PUBLIC	?SetCapture@CWnd@@QAEPAV1@XZ			; CWnd::SetCapture
PUBLIC	?HitTest@CScrollBarEx@@AAEIVCPoint@@@Z		; CScrollBarEx::HitTest
PUBLIC	?OnLButtonDown@CWnd@@IAEXIVCPoint@@@Z		; CWnd::OnLButtonDown
PUBLIC	?GetRect@CScrollBarEx@@AAE?AUtagRECT@@I@Z	; CScrollBarEx::GetRect
; Function compile flags: /Odt
_TEXT	SEGMENT
_this$ = -132						; size = 4
$T199316 = -128						; size = 8
$T199315 = -120						; size = 8
$T199314 = -112						; size = 8
$T199313 = -104						; size = 8
$T199312 = -96						; size = 8
$T199311 = -88						; size = 8
$T199310 = -80						; size = 8
$T199309 = -72						; size = 8
_lrcThumb$197947 = -64					; size = 16
_lPointCenter$197949 = -48				; size = 8
_mrcThmb$197940 = -40					; size = 16
_lrcThumb$197923 = -24					; size = 16
_lPointCenter$197925 = -8				; size = 8
_aiFlags$ = 8						; size = 4
_aPoint$ = 12						; size = 8
?OnLButtonDown@CScrollBarEx@@IAEXIVCPoint@@@Z PROC NEAR	; CScrollBarEx::OnLButtonDown
; _this$ = ecx

; 121  : {

  00260	55		 push	 ebp
  00261	8b ec		 mov	 ebp, esp
  00263	81 ec 84 00 00
	00		 sub	 esp, 132		; 00000084H
  00269	89 8d 7c ff ff
	ff		 mov	 DWORD PTR _this$[ebp], ecx

; 122  : 	if( TRUE == misDlg )

  0026f	8b 85 7c ff ff
	ff		 mov	 eax, DWORD PTR _this$[ebp]
  00275	83 b8 e0 00 00
	00 01		 cmp	 DWORD PTR [eax+224], 1
  0027c	0f 85 a5 01 00
	00		 jne	 $L197921

; 123  : 	{
; 124  : 		mbLButtonDown = true;

  00282	8b 8d 7c ff ff
	ff		 mov	 ecx, DWORD PTR _this$[ebp]
  00288	c6 81 9a 00 00
	00 01		 mov	 BYTE PTR [ecx+154], 1

; 125  : 		SetCapture();

  0028f	8b 8d 7c ff ff
	ff		 mov	 ecx, DWORD PTR _this$[ebp]
  00295	e8 00 00 00 00	 call	 ?SetCapture@CWnd@@QAEPAV1@XZ ; CWnd::SetCapture

; 126  : 		Invalidate();

  0029a	6a 01		 push	 1
  0029c	8b 8d 7c ff ff
	ff		 mov	 ecx, DWORD PTR _this$[ebp]
  002a2	e8 00 00 00 00	 call	 ?Invalidate@CWnd@@QAEXH@Z ; CWnd::Invalidate

; 127  : 		miLButtonDownHitTest = HitTest(aPoint);

  002a7	8b 55 10	 mov	 edx, DWORD PTR _aPoint$[ebp+4]
  002aa	52		 push	 edx
  002ab	8b 45 0c	 mov	 eax, DWORD PTR _aPoint$[ebp]
  002ae	50		 push	 eax
  002af	8b 8d 7c ff ff
	ff		 mov	 ecx, DWORD PTR _this$[ebp]
  002b5	e8 00 00 00 00	 call	 ?HitTest@CScrollBarEx@@AAEIVCPoint@@@Z ; CScrollBarEx::HitTest
  002ba	8b 8d 7c ff ff
	ff		 mov	 ecx, DWORD PTR _this$[ebp]
  002c0	89 81 a4 00 00
	00		 mov	 DWORD PTR [ecx+164], eax

; 128  : 
; 129  : 		if (miLButtonDownHitTest == HT_THUMB)

  002c6	8b 95 7c ff ff
	ff		 mov	 edx, DWORD PTR _this$[ebp]
  002cc	83 ba a4 00 00
	00 68		 cmp	 DWORD PTR [edx+164], 104 ; 00000068H
  002d3	0f 85 a0 00 00
	00		 jne	 $L197922

; 130  : 		{
; 131  : 			mbThumbDown = true;

  002d9	8b 85 7c ff ff
	ff		 mov	 eax, DWORD PTR _this$[ebp]
  002df	c6 80 9d 00 00
	00 01		 mov	 BYTE PTR [eax+157], 1

; 132  : 
; 133  : 			RECT lrcThumb = GetRect(HT_THUMB);

  002e6	6a 68		 push	 104			; 00000068H
  002e8	8d 4d e8	 lea	 ecx, DWORD PTR _lrcThumb$197923[ebp]
  002eb	51		 push	 ecx
  002ec	8b 8d 7c ff ff
	ff		 mov	 ecx, DWORD PTR _this$[ebp]
  002f2	e8 00 00 00 00	 call	 ?GetRect@CScrollBarEx@@AAE?AUtagRECT@@I@Z ; CScrollBarEx::GetRect

; 134  : 			CPoint lPointCenter;

  002f7	8d 4d f8	 lea	 ecx, DWORD PTR _lPointCenter$197925[ebp]
  002fa	e8 00 00 00 00	 call	 ??0CPoint@@QAE@XZ	; CPoint::CPoint

; 135  : 			lPointCenter.x = lrcThumb.left + (lrcThumb.right - lrcThumb.left) / 2;

  002ff	8b 45 f0	 mov	 eax, DWORD PTR _lrcThumb$197923[ebp+8]
  00302	2b 45 e8	 sub	 eax, DWORD PTR _lrcThumb$197923[ebp]
  00305	99		 cdq
  00306	2b c2		 sub	 eax, edx
  00308	d1 f8		 sar	 eax, 1
  0030a	03 45 e8	 add	 eax, DWORD PTR _lrcThumb$197923[ebp]
  0030d	89 45 f8	 mov	 DWORD PTR _lPointCenter$197925[ebp], eax

; 136  : 			lPointCenter.y = lrcThumb.top + (lrcThumb.bottom - lrcThumb.top) / 2;

  00310	8b 45 f4	 mov	 eax, DWORD PTR _lrcThumb$197923[ebp+12]
  00313	2b 45 ec	 sub	 eax, DWORD PTR _lrcThumb$197923[ebp+4]
  00316	99		 cdq
  00317	2b c2		 sub	 eax, edx
  00319	d1 f8		 sar	 eax, 1
  0031b	03 45 ec	 add	 eax, DWORD PTR _lrcThumb$197923[ebp+4]
  0031e	89 45 fc	 mov	 DWORD PTR _lPointCenter$197925[ebp+4], eax

; 137  : 			mPointDragOffset = aPoint - lPointCenter;

  00321	8b 55 f8	 mov	 edx, DWORD PTR _lPointCenter$197925[ebp]
  00324	89 55 a8	 mov	 DWORD PTR $T199311[ebp], edx
  00327	8b 45 fc	 mov	 eax, DWORD PTR _lPointCenter$197925[ebp+4]
  0032a	89 45 ac	 mov	 DWORD PTR $T199311[ebp+4], eax
  0032d	8b 4d ac	 mov	 ecx, DWORD PTR $T199311[ebp+4]
  00330	51		 push	 ecx
  00331	8b 55 a8	 mov	 edx, DWORD PTR $T199311[ebp]
  00334	52		 push	 edx
  00335	8d 45 a0	 lea	 eax, DWORD PTR $T199312[ebp]
  00338	50		 push	 eax
  00339	8d 4d 0c	 lea	 ecx, DWORD PTR _aPoint$[ebp]
  0033c	e8 00 00 00 00	 call	 ??GCPoint@@QBE?AVCSize@@UtagPOINT@@@Z ; CPoint::operator-
  00341	8b 08		 mov	 ecx, DWORD PTR [eax]
  00343	8b 50 04	 mov	 edx, DWORD PTR [eax+4]
  00346	89 4d b0	 mov	 DWORD PTR $T199310[ebp], ecx
  00349	89 55 b4	 mov	 DWORD PTR $T199310[ebp+4], edx
  0034c	8b 45 b4	 mov	 eax, DWORD PTR $T199310[ebp+4]
  0034f	50		 push	 eax
  00350	8b 4d b0	 mov	 ecx, DWORD PTR $T199310[ebp]
  00353	51		 push	 ecx
  00354	8d 4d b8	 lea	 ecx, DWORD PTR $T199309[ebp]
  00357	e8 00 00 00 00	 call	 ??0CPoint@@QAE@UtagSIZE@@@Z ; CPoint::CPoint
  0035c	8b 95 7c ff ff
	ff		 mov	 edx, DWORD PTR _this$[ebp]
  00362	8b 45 b8	 mov	 eax, DWORD PTR $T199309[ebp]
  00365	89 82 a8 00 00
	00		 mov	 DWORD PTR [edx+168], eax
  0036b	8b 4d bc	 mov	 ecx, DWORD PTR $T199309[ebp+4]
  0036e	89 8a ac 00 00
	00		 mov	 DWORD PTR [edx+172], ecx

; 138  : 			//mPointMoveOffset = aPoint ;
; 139  : 			
; 140  : 			
; 141  : 		}
; 142  : 		else if (miLButtonDownHitTest == HT_THUMB_SPACE)

  00374	e9 a9 00 00 00	 jmp	 $L197930
$L197922:
  00379	8b 95 7c ff ff
	ff		 mov	 edx, DWORD PTR _this$[ebp]
  0037f	83 ba a4 00 00
	00 69		 cmp	 DWORD PTR [edx+164], 105 ; 00000069H
  00386	75 20		 jne	 SHORT $L197931

; 143  : 		{
; 144  : 			mbThumbSpaceDown = true;

  00388	8b 85 7c ff ff
	ff		 mov	 eax, DWORD PTR _this$[ebp]
  0038e	c6 80 9e 00 00
	00 01		 mov	 BYTE PTR [eax+158], 1

; 145  : 			SetTimer(102, 30, NULL);

  00395	6a 00		 push	 0
  00397	6a 1e		 push	 30			; 0000001eH
  00399	6a 66		 push	 102			; 00000066H
  0039b	8b 8d 7c ff ff
	ff		 mov	 ecx, DWORD PTR _this$[ebp]
  003a1	e8 00 00 00 00	 call	 ?SetTimer@CWnd@@QAEIIIP6GXPAUHWND__@@IIK@Z@Z ; CWnd::SetTimer

; 146  : 		}
; 147  : 		else if (miLButtonDownHitTest == HT_LEFTARROW || miLButtonDownHitTest == HT_UPARROW)

  003a6	eb 7a		 jmp	 SHORT $L197930
$L197931:
  003a8	8b 8d 7c ff ff
	ff		 mov	 ecx, DWORD PTR _this$[ebp]
  003ae	83 b9 a4 00 00
	00 66		 cmp	 DWORD PTR [ecx+164], 102 ; 00000066H
  003b5	74 0f		 je	 SHORT $L197934
  003b7	8b 95 7c ff ff
	ff		 mov	 edx, DWORD PTR _this$[ebp]
  003bd	83 ba a4 00 00
	00 64		 cmp	 DWORD PTR [edx+164], 100 ; 00000064H
  003c4	75 20		 jne	 SHORT $L197933
$L197934:

; 148  : 		{
; 149  : 			mbUpArrowDown = true;

  003c6	8b 85 7c ff ff
	ff		 mov	 eax, DWORD PTR _this$[ebp]
  003cc	c6 80 9b 00 00
	00 01		 mov	 BYTE PTR [eax+155], 1

; 150  : 			SetTimer(102, 60, NULL);

  003d3	6a 00		 push	 0
  003d5	6a 3c		 push	 60			; 0000003cH
  003d7	6a 66		 push	 102			; 00000066H
  003d9	8b 8d 7c ff ff
	ff		 mov	 ecx, DWORD PTR _this$[ebp]
  003df	e8 00 00 00 00	 call	 ?SetTimer@CWnd@@QAEIIIP6GXPAUHWND__@@IIK@Z@Z ; CWnd::SetTimer

; 151  : 		}
; 152  : 		else if (miLButtonDownHitTest == HT_RIGHTARROW || miLButtonDownHitTest == HT_DOWNARROW)

  003e4	eb 3c		 jmp	 SHORT $L197930
$L197933:
  003e6	8b 8d 7c ff ff
	ff		 mov	 ecx, DWORD PTR _this$[ebp]
  003ec	83 b9 a4 00 00
	00 67		 cmp	 DWORD PTR [ecx+164], 103 ; 00000067H
  003f3	74 0f		 je	 SHORT $L197937
  003f5	8b 95 7c ff ff
	ff		 mov	 edx, DWORD PTR _this$[ebp]
  003fb	83 ba a4 00 00
	00 65		 cmp	 DWORD PTR [edx+164], 101 ; 00000065H
  00402	75 1e		 jne	 SHORT $L197930
$L197937:

; 153  : 		{
; 154  : 			mbDownArrowDown = true;

  00404	8b 85 7c ff ff
	ff		 mov	 eax, DWORD PTR _this$[ebp]
  0040a	c6 80 9c 00 00
	00 01		 mov	 BYTE PTR [eax+156], 1

; 155  : 			SetTimer(102, 60, NULL);

  00411	6a 00		 push	 0
  00413	6a 3c		 push	 60			; 0000003cH
  00415	6a 66		 push	 102			; 00000066H
  00417	8b 8d 7c ff ff
	ff		 mov	 ecx, DWORD PTR _this$[ebp]
  0041d	e8 00 00 00 00	 call	 ?SetTimer@CWnd@@QAEIIIP6GXPAUHWND__@@IIK@Z@Z ; CWnd::SetTimer
$L197930:

; 156  : 		}
; 157  : 	}
; 158  : 	else

  00422	e9 0e 02 00 00	 jmp	 $L197938
$L197921:

; 159  : 	{
; 160  : 
; 161  : 	
; 162  : 		mbLButtonDown = true;

  00427	8b 8d 7c ff ff
	ff		 mov	 ecx, DWORD PTR _this$[ebp]
  0042d	c6 81 9a 00 00
	00 01		 mov	 BYTE PTR [ecx+154], 1

; 163  : 		miLButtonDownHitTest = HitTest(aPoint);

  00434	8b 55 10	 mov	 edx, DWORD PTR _aPoint$[ebp+4]
  00437	52		 push	 edx
  00438	8b 45 0c	 mov	 eax, DWORD PTR _aPoint$[ebp]
  0043b	50		 push	 eax
  0043c	8b 8d 7c ff ff
	ff		 mov	 ecx, DWORD PTR _this$[ebp]
  00442	e8 00 00 00 00	 call	 ?HitTest@CScrollBarEx@@AAEIVCPoint@@@Z ; CScrollBarEx::HitTest
  00447	8b 8d 7c ff ff
	ff		 mov	 ecx, DWORD PTR _this$[ebp]
  0044d	89 81 a4 00 00
	00		 mov	 DWORD PTR [ecx+164], eax

; 164  : 
; 165  : 		//当返回为HT_THUMB_SPACE的时候需要做判断并返回有效结果
; 166  : 
; 167  : 		if (miLButtonDownHitTest==HT_THUMB_SPACE)

  00453	8b 95 7c ff ff
	ff		 mov	 edx, DWORD PTR _this$[ebp]
  00459	83 ba a4 00 00
	00 69		 cmp	 DWORD PTR [edx+164], 105 ; 00000069H
  00460	75 5f		 jne	 SHORT $L197939

; 168  : 		{
; 169  : 			RECT mrcThmb = GetRect(HT_THUMB);

  00462	6a 68		 push	 104			; 00000068H
  00464	8d 45 d8	 lea	 eax, DWORD PTR _mrcThmb$197940[ebp]
  00467	50		 push	 eax
  00468	8b 8d 7c ff ff
	ff		 mov	 ecx, DWORD PTR _this$[ebp]
  0046e	e8 00 00 00 00	 call	 ?GetRect@CScrollBarEx@@AAE?AUtagRECT@@I@Z ; CScrollBarEx::GetRect

; 170  : 			if ((mScrollOrientation == esoVertical && (aPoint.x <= mrcThmb.left ||	aPoint.x >= mrcThmb.right))
; 171  : 				||
; 172  : 				(mScrollOrientation != esoVertical && (aPoint.y <= mrcThmb.top  ||	aPoint.y >= mrcThmb.bottom)))

  00473	8b 8d 7c ff ff
	ff		 mov	 ecx, DWORD PTR _this$[ebp]
  00479	83 b9 80 00 00
	00 01		 cmp	 DWORD PTR [ecx+128], 1
  00480	75 10		 jne	 SHORT $L197944
  00482	8b 55 0c	 mov	 edx, DWORD PTR _aPoint$[ebp]
  00485	3b 55 d8	 cmp	 edx, DWORD PTR _mrcThmb$197940[ebp]
  00488	7e 27		 jle	 SHORT $L197943
  0048a	8b 45 0c	 mov	 eax, DWORD PTR _aPoint$[ebp]
  0048d	3b 45 e0	 cmp	 eax, DWORD PTR _mrcThmb$197940[ebp+8]
  00490	7d 1f		 jge	 SHORT $L197943
$L197944:
  00492	8b 8d 7c ff ff
	ff		 mov	 ecx, DWORD PTR _this$[ebp]
  00498	83 b9 80 00 00
	00 01		 cmp	 DWORD PTR [ecx+128], 1
  0049f	74 20		 je	 SHORT $L197939
  004a1	8b 55 10	 mov	 edx, DWORD PTR _aPoint$[ebp+4]
  004a4	3b 55 dc	 cmp	 edx, DWORD PTR _mrcThmb$197940[ebp+4]
  004a7	7e 08		 jle	 SHORT $L197943
  004a9	8b 45 10	 mov	 eax, DWORD PTR _aPoint$[ebp+4]
  004ac	3b 45 e4	 cmp	 eax, DWORD PTR _mrcThmb$197940[ebp+12]
  004af	7c 10		 jl	 SHORT $L197939
$L197943:

; 173  : 			{
; 174  : 				miLButtonDownHitTest = HTNOWHERE ;

  004b1	8b 8d 7c ff ff
	ff		 mov	 ecx, DWORD PTR _this$[ebp]
  004b7	c7 81 a4 00 00
	00 00 00 00 00	 mov	 DWORD PTR [ecx+164], 0
$L197939:

; 175  : 			}
; 176  : 
; 177  : 		}
; 178  : 
; 179  : 
; 180  : 		
; 181  : 		///////////////////////////////////////////////////////////////
; 182  : 
; 183  : 		SetCapture();

  004c1	8b 8d 7c ff ff
	ff		 mov	 ecx, DWORD PTR _this$[ebp]
  004c7	e8 00 00 00 00	 call	 ?SetCapture@CWnd@@QAEPAV1@XZ ; CWnd::SetCapture

; 184  : 		Invalidate();

  004cc	6a 01		 push	 1
  004ce	8b 8d 7c ff ff
	ff		 mov	 ecx, DWORD PTR _this$[ebp]
  004d4	e8 00 00 00 00	 call	 ?Invalidate@CWnd@@QAEXH@Z ; CWnd::Invalidate

; 185  : 
; 186  : 		if (miLButtonDownHitTest == HT_THUMB)

  004d9	8b 95 7c ff ff
	ff		 mov	 edx, DWORD PTR _this$[ebp]
  004df	83 ba a4 00 00
	00 68		 cmp	 DWORD PTR [edx+164], 104 ; 00000068H
  004e6	0f 85 a0 00 00
	00		 jne	 $L197946

; 187  : 		{
; 188  : 			RECT lrcThumb = GetRect(HT_THUMB);

  004ec	6a 68		 push	 104			; 00000068H
  004ee	8d 45 c0	 lea	 eax, DWORD PTR _lrcThumb$197947[ebp]
  004f1	50		 push	 eax
  004f2	8b 8d 7c ff ff
	ff		 mov	 ecx, DWORD PTR _this$[ebp]
  004f8	e8 00 00 00 00	 call	 ?GetRect@CScrollBarEx@@AAE?AUtagRECT@@I@Z ; CScrollBarEx::GetRect

; 189  : 			CPoint lPointCenter;

  004fd	8d 4d d0	 lea	 ecx, DWORD PTR _lPointCenter$197949[ebp]
  00500	e8 00 00 00 00	 call	 ??0CPoint@@QAE@XZ	; CPoint::CPoint

; 190  : 			//偏移值的计算
; 191  : 			lPointCenter.x = lrcThumb.left + (lrcThumb.right - lrcThumb.left) / 2;

  00505	8b 45 c8	 mov	 eax, DWORD PTR _lrcThumb$197947[ebp+8]
  00508	2b 45 c0	 sub	 eax, DWORD PTR _lrcThumb$197947[ebp]
  0050b	99		 cdq
  0050c	2b c2		 sub	 eax, edx
  0050e	d1 f8		 sar	 eax, 1
  00510	03 45 c0	 add	 eax, DWORD PTR _lrcThumb$197947[ebp]
  00513	89 45 d0	 mov	 DWORD PTR _lPointCenter$197949[ebp], eax

; 192  : 			lPointCenter.y = lrcThumb.top + (lrcThumb.bottom - lrcThumb.top) / 2;

  00516	8b 45 cc	 mov	 eax, DWORD PTR _lrcThumb$197947[ebp+12]
  00519	2b 45 c4	 sub	 eax, DWORD PTR _lrcThumb$197947[ebp+4]
  0051c	99		 cdq
  0051d	2b c2		 sub	 eax, edx
  0051f	d1 f8		 sar	 eax, 1
  00521	03 45 c4	 add	 eax, DWORD PTR _lrcThumb$197947[ebp+4]
  00524	89 45 d4	 mov	 DWORD PTR _lPointCenter$197949[ebp+4], eax

; 193  : 
; 194  : 			mPointDragOffset = aPoint - lPointCenter;

  00527	8b 4d d0	 mov	 ecx, DWORD PTR _lPointCenter$197949[ebp]
  0052a	89 4d 88	 mov	 DWORD PTR $T199315[ebp], ecx
  0052d	8b 55 d4	 mov	 edx, DWORD PTR _lPointCenter$197949[ebp+4]
  00530	89 55 8c	 mov	 DWORD PTR $T199315[ebp+4], edx
  00533	8b 45 8c	 mov	 eax, DWORD PTR $T199315[ebp+4]
  00536	50		 push	 eax
  00537	8b 4d 88	 mov	 ecx, DWORD PTR $T199315[ebp]
  0053a	51		 push	 ecx
  0053b	8d 55 80	 lea	 edx, DWORD PTR $T199316[ebp]
  0053e	52		 push	 edx
  0053f	8d 4d 0c	 lea	 ecx, DWORD PTR _aPoint$[ebp]
  00542	e8 00 00 00 00	 call	 ??GCPoint@@QBE?AVCSize@@UtagPOINT@@@Z ; CPoint::operator-
  00547	8b 08		 mov	 ecx, DWORD PTR [eax]
  00549	8b 50 04	 mov	 edx, DWORD PTR [eax+4]
  0054c	89 4d 90	 mov	 DWORD PTR $T199314[ebp], ecx
  0054f	89 55 94	 mov	 DWORD PTR $T199314[ebp+4], edx
  00552	8b 45 94	 mov	 eax, DWORD PTR $T199314[ebp+4]
  00555	50		 push	 eax
  00556	8b 4d 90	 mov	 ecx, DWORD PTR $T199314[ebp]
  00559	51		 push	 ecx
  0055a	8d 4d 98	 lea	 ecx, DWORD PTR $T199313[ebp]
  0055d	e8 00 00 00 00	 call	 ??0CPoint@@QAE@UtagSIZE@@@Z ; CPoint::CPoint
  00562	8b 95 7c ff ff
	ff		 mov	 edx, DWORD PTR _this$[ebp]
  00568	8b 45 98	 mov	 eax, DWORD PTR $T199313[ebp]
  0056b	89 82 a8 00 00
	00		 mov	 DWORD PTR [edx+168], eax
  00571	8b 4d 9c	 mov	 ecx, DWORD PTR $T199313[ebp+4]
  00574	89 8a ac 00 00
	00		 mov	 DWORD PTR [edx+172], ecx

; 195  : 			mbThumbDown = true;

  0057a	8b 95 7c ff ff
	ff		 mov	 edx, DWORD PTR _this$[ebp]
  00580	c6 82 9d 00 00
	00 01		 mov	 BYTE PTR [edx+157], 1

; 196  : 		}
; 197  : 		else if (miLButtonDownHitTest == HT_THUMB_SPACE)

  00587	e9 a9 00 00 00	 jmp	 $L197938
$L197946:
  0058c	8b 85 7c ff ff
	ff		 mov	 eax, DWORD PTR _this$[ebp]
  00592	83 b8 a4 00 00
	00 69		 cmp	 DWORD PTR [eax+164], 105 ; 00000069H
  00599	75 20		 jne	 SHORT $L197955

; 198  : 		{
; 199  : 			SetTimer(101, 60, NULL);

  0059b	6a 00		 push	 0
  0059d	6a 3c		 push	 60			; 0000003cH
  0059f	6a 65		 push	 101			; 00000065H
  005a1	8b 8d 7c ff ff
	ff		 mov	 ecx, DWORD PTR _this$[ebp]
  005a7	e8 00 00 00 00	 call	 ?SetTimer@CWnd@@QAEIIIP6GXPAUHWND__@@IIK@Z@Z ; CWnd::SetTimer

; 200  : 			mbThumbSpaceDown = true;

  005ac	8b 8d 7c ff ff
	ff		 mov	 ecx, DWORD PTR _this$[ebp]
  005b2	c6 81 9e 00 00
	00 01		 mov	 BYTE PTR [ecx+158], 1

; 201  : 		}
; 202  : 		else if (miLButtonDownHitTest == HT_LEFTARROW || miLButtonDownHitTest == HT_UPARROW)

  005b9	eb 7a		 jmp	 SHORT $L197938
$L197955:
  005bb	8b 95 7c ff ff
	ff		 mov	 edx, DWORD PTR _this$[ebp]
  005c1	83 ba a4 00 00
	00 66		 cmp	 DWORD PTR [edx+164], 102 ; 00000066H
  005c8	74 0f		 je	 SHORT $L197958
  005ca	8b 85 7c ff ff
	ff		 mov	 eax, DWORD PTR _this$[ebp]
  005d0	83 b8 a4 00 00
	00 64		 cmp	 DWORD PTR [eax+164], 100 ; 00000064H
  005d7	75 20		 jne	 SHORT $L197957
$L197958:

; 203  : 		{
; 204  : 			SetTimer(101, 60, NULL);

  005d9	6a 00		 push	 0
  005db	6a 3c		 push	 60			; 0000003cH
  005dd	6a 65		 push	 101			; 00000065H
  005df	8b 8d 7c ff ff
	ff		 mov	 ecx, DWORD PTR _this$[ebp]
  005e5	e8 00 00 00 00	 call	 ?SetTimer@CWnd@@QAEIIIP6GXPAUHWND__@@IIK@Z@Z ; CWnd::SetTimer

; 205  : 			mbUpArrowDown = true;

  005ea	8b 8d 7c ff ff
	ff		 mov	 ecx, DWORD PTR _this$[ebp]
  005f0	c6 81 9b 00 00
	00 01		 mov	 BYTE PTR [ecx+155], 1

; 206  : 		}
; 207  : 		else if (miLButtonDownHitTest == HT_RIGHTARROW || miLButtonDownHitTest == HT_DOWNARROW)

  005f7	eb 3c		 jmp	 SHORT $L197938
$L197957:
  005f9	8b 95 7c ff ff
	ff		 mov	 edx, DWORD PTR _this$[ebp]
  005ff	83 ba a4 00 00
	00 67		 cmp	 DWORD PTR [edx+164], 103 ; 00000067H
  00606	74 0f		 je	 SHORT $L197961
  00608	8b 85 7c ff ff
	ff		 mov	 eax, DWORD PTR _this$[ebp]
  0060e	83 b8 a4 00 00
	00 65		 cmp	 DWORD PTR [eax+164], 101 ; 00000065H
  00615	75 1e		 jne	 SHORT $L197938
$L197961:

; 208  : 		{
; 209  : 			SetTimer(101, 60, NULL);

  00617	6a 00		 push	 0
  00619	6a 3c		 push	 60			; 0000003cH
  0061b	6a 65		 push	 101			; 00000065H
  0061d	8b 8d 7c ff ff
	ff		 mov	 ecx, DWORD PTR _this$[ebp]
  00623	e8 00 00 00 00	 call	 ?SetTimer@CWnd@@QAEIIIP6GXPAUHWND__@@IIK@Z@Z ; CWnd::SetTimer

; 210  : 			mbDownArrowDown = true;

  00628	8b 8d 7c ff ff
	ff		 mov	 ecx, DWORD PTR _this$[ebp]
  0062e	c6 81 9c 00 00
	00 01		 mov	 BYTE PTR [ecx+156], 1
$L197938:

; 211  : 		}
; 212  : 
; 213  : 	}
; 214  : 	CStatic::OnLButtonDown(aiFlags, aPoint);

  00635	8b 55 10	 mov	 edx, DWORD PTR _aPoint$[ebp+4]
  00638	52		 push	 edx
  00639	8b 45 0c	 mov	 eax, DWORD PTR _aPoint$[ebp]
  0063c	50		 push	 eax
  0063d	8b 4d 08	 mov	 ecx, DWORD PTR _aiFlags$[ebp]
  00640	51		 push	 ecx
  00641	8b 8d 7c ff ff
	ff		 mov	 ecx, DWORD PTR _this$[ebp]
  00647	e8 00 00 00 00	 call	 ?OnLButtonDown@CWnd@@IAEXIVCPoint@@@Z ; CWnd::OnLButtonDown

; 215  : }

  0064c	8b e5		 mov	 esp, ebp
  0064e	5d		 pop	 ebp
  0064f	c2 0c 00	 ret	 12			; 0000000cH
?OnLButtonDown@CScrollBarEx@@IAEXIVCPoint@@@Z ENDP	; CScrollBarEx::OnLButtonDown
; Function compile flags: /Odt
_this$ = -4						; size = 4
_aiFlags$ = 8						; size = 4
_aPoint$ = 12						; size = 8
?OnLButtonDblClk@CScrollBarEx@@IAEXIVCPoint@@@Z PROC NEAR ; CScrollBarEx::OnLButtonDblClk
; _this$ = ecx

; 218  : {

  00660	55		 push	 ebp
  00661	8b ec		 mov	 ebp, esp
  00663	51		 push	 ecx
  00664	89 4d fc	 mov	 DWORD PTR _this$[ebp], ecx

; 219  : 	OnLButtonDown(aiFlags, aPoint);

  00667	8b 45 10	 mov	 eax, DWORD PTR _aPoint$[ebp+4]
  0066a	50		 push	 eax
  0066b	8b 4d 0c	 mov	 ecx, DWORD PTR _aPoint$[ebp]
  0066e	51		 push	 ecx
  0066f	8b 55 08	 mov	 edx, DWORD PTR _aiFlags$[ebp]
  00672	52		 push	 edx
  00673	8b 4d fc	 mov	 ecx, DWORD PTR _this$[ebp]
  00676	e8 00 00 00 00	 call	 ?OnLButtonDown@CScrollBarEx@@IAEXIVCPoint@@@Z ; CScrollBarEx::OnLButtonDown

; 220  : }

  0067b	8b e5		 mov	 esp, ebp
  0067d	5d		 pop	 ebp
  0067e	c2 0c 00	 ret	 12			; 0000000cH
?OnLButtonDblClk@CScrollBarEx@@IAEXIVCPoint@@@Z ENDP	; CScrollBarEx::OnLButtonDblClk
_TEXT	ENDS
PUBLIC	?KillTimer@CWnd@@QAEHI@Z			; CWnd::KillTimer
PUBLIC	?GetCapture@CWnd@@SGPAV1@XZ			; CWnd::GetCapture
PUBLIC	?OnLButtonUp@CWnd@@IAEXIVCPoint@@@Z		; CWnd::OnLButtonUp
EXTRN	__imp__ReleaseCapture@0:NEAR
; Function compile flags: /Odt
_TEXT	SEGMENT
_this$ = -4						; size = 4
_aiFlags$ = 8						; size = 4
_aPoint$ = 12						; size = 8
?OnLButtonUp@CScrollBarEx@@IAEXIVCPoint@@@Z PROC NEAR	; CScrollBarEx::OnLButtonUp
; _this$ = ecx

; 223  : {

  00690	55		 push	 ebp
  00691	8b ec		 mov	 ebp, esp
  00693	51		 push	 ecx
  00694	89 4d fc	 mov	 DWORD PTR _this$[ebp], ecx

; 224  : 	if(TRUE == misDlg)

  00697	8b 45 fc	 mov	 eax, DWORD PTR _this$[ebp]
  0069a	83 b8 e0 00 00
	00 01		 cmp	 DWORD PTR [eax+224], 1
  006a1	0f 85 a0 00 00
	00		 jne	 $L197972

; 225  : 	{
; 226  : 		if(true == mbThumbSpaceDown||true == mbUpArrowDown|| true ==mbDownArrowDown)

  006a7	8b 4d fc	 mov	 ecx, DWORD PTR _this$[ebp]
  006aa	0f b6 91 9e 00
	00 00		 movzx	 edx, BYTE PTR [ecx+158]
  006b1	83 fa 01	 cmp	 edx, 1
  006b4	74 1e		 je	 SHORT $L197974
  006b6	8b 45 fc	 mov	 eax, DWORD PTR _this$[ebp]
  006b9	0f b6 88 9b 00
	00 00		 movzx	 ecx, BYTE PTR [eax+155]
  006c0	83 f9 01	 cmp	 ecx, 1
  006c3	74 0f		 je	 SHORT $L197974
  006c5	8b 55 fc	 mov	 edx, DWORD PTR _this$[ebp]
  006c8	0f b6 82 9c 00
	00 00		 movzx	 eax, BYTE PTR [edx+156]
  006cf	83 f8 01	 cmp	 eax, 1
  006d2	75 0a		 jne	 SHORT $L197973
$L197974:

; 227  : 		KillTimer(102);

  006d4	6a 66		 push	 102			; 00000066H
  006d6	8b 4d fc	 mov	 ecx, DWORD PTR _this$[ebp]
  006d9	e8 00 00 00 00	 call	 ?KillTimer@CWnd@@QAEHI@Z ; CWnd::KillTimer
$L197973:

; 228  : 		miLButtonDownHitTest = HTNOWHERE;

  006de	8b 4d fc	 mov	 ecx, DWORD PTR _this$[ebp]
  006e1	c7 81 a4 00 00
	00 00 00 00 00	 mov	 DWORD PTR [ecx+164], 0

; 229  : 		if ( mbLButtonDown && GetCapture() == this )

  006eb	8b 55 fc	 mov	 edx, DWORD PTR _this$[ebp]
  006ee	0f b6 82 9a 00
	00 00		 movzx	 eax, BYTE PTR [edx+154]
  006f5	85 c0		 test	 eax, eax
  006f7	74 4c		 je	 SHORT $L197975
  006f9	e8 00 00 00 00	 call	 ?GetCapture@CWnd@@SGPAV1@XZ ; CWnd::GetCapture
  006fe	3b 45 fc	 cmp	 eax, DWORD PTR _this$[ebp]
  00701	75 42		 jne	 SHORT $L197975

; 230  : 		{
; 231  : 			ReleaseCapture();

  00703	ff 15 00 00 00
	00		 call	 DWORD PTR __imp__ReleaseCapture@0

; 232  : 			mbLButtonDown = false;

  00709	8b 4d fc	 mov	 ecx, DWORD PTR _this$[ebp]
  0070c	c6 81 9a 00 00
	00 00		 mov	 BYTE PTR [ecx+154], 0

; 233  : 			mbUpArrowDown = false;

  00713	8b 55 fc	 mov	 edx, DWORD PTR _this$[ebp]
  00716	c6 82 9b 00 00
	00 00		 mov	 BYTE PTR [edx+155], 0

; 234  : 			mbDownArrowDown = false;

  0071d	8b 45 fc	 mov	 eax, DWORD PTR _this$[ebp]
  00720	c6 80 9c 00 00
	00 00		 mov	 BYTE PTR [eax+156], 0

; 235  : 			mbThumbDown = false;

  00727	8b 4d fc	 mov	 ecx, DWORD PTR _this$[ebp]
  0072a	c6 81 9d 00 00
	00 00		 mov	 BYTE PTR [ecx+157], 0

; 236  : 			mbThumbSpaceDown = false;

  00731	8b 55 fc	 mov	 edx, DWORD PTR _this$[ebp]
  00734	c6 82 9e 00 00
	00 00		 mov	 BYTE PTR [edx+158], 0

; 237  : 			Invalidate();

  0073b	6a 01		 push	 1
  0073d	8b 4d fc	 mov	 ecx, DWORD PTR _this$[ebp]
  00740	e8 00 00 00 00	 call	 ?Invalidate@CWnd@@QAEXH@Z ; CWnd::Invalidate
$L197975:

; 238  : 		}
; 239  : 	}
; 240  : 	else

  00745	eb 71		 jmp	 SHORT $L197976
$L197972:

; 241  : 	{
; 242  : 		KillTimer(101);

  00747	6a 65		 push	 101			; 00000065H
  00749	8b 4d fc	 mov	 ecx, DWORD PTR _this$[ebp]
  0074c	e8 00 00 00 00	 call	 ?KillTimer@CWnd@@QAEHI@Z ; CWnd::KillTimer

; 243  : 		miLButtonDownHitTest = HTNOWHERE;

  00751	8b 45 fc	 mov	 eax, DWORD PTR _this$[ebp]
  00754	c7 80 a4 00 00
	00 00 00 00 00	 mov	 DWORD PTR [eax+164], 0

; 244  : 
; 245  : 		if (mbLButtonDown && GetCapture() == this)

  0075e	8b 4d fc	 mov	 ecx, DWORD PTR _this$[ebp]
  00761	0f b6 91 9a 00
	00 00		 movzx	 edx, BYTE PTR [ecx+154]
  00768	85 d2		 test	 edx, edx
  0076a	74 4c		 je	 SHORT $L197976
  0076c	e8 00 00 00 00	 call	 ?GetCapture@CWnd@@SGPAV1@XZ ; CWnd::GetCapture
  00771	3b 45 fc	 cmp	 eax, DWORD PTR _this$[ebp]
  00774	75 42		 jne	 SHORT $L197976

; 246  : 		{
; 247  : 			ReleaseCapture();

  00776	ff 15 00 00 00
	00		 call	 DWORD PTR __imp__ReleaseCapture@0

; 248  : 			mbLButtonDown = false;

  0077c	8b 45 fc	 mov	 eax, DWORD PTR _this$[ebp]
  0077f	c6 80 9a 00 00
	00 00		 mov	 BYTE PTR [eax+154], 0

; 249  : 			mbUpArrowDown = false;

  00786	8b 4d fc	 mov	 ecx, DWORD PTR _this$[ebp]
  00789	c6 81 9b 00 00
	00 00		 mov	 BYTE PTR [ecx+155], 0

; 250  : 			mbDownArrowDown = false;

  00790	8b 55 fc	 mov	 edx, DWORD PTR _this$[ebp]
  00793	c6 82 9c 00 00
	00 00		 mov	 BYTE PTR [edx+156], 0

; 251  : 			mbThumbDown = false;

  0079a	8b 45 fc	 mov	 eax, DWORD PTR _this$[ebp]
  0079d	c6 80 9d 00 00
	00 00		 mov	 BYTE PTR [eax+157], 0

; 252  : 			mbThumbSpaceDown = false;

  007a4	8b 4d fc	 mov	 ecx, DWORD PTR _this$[ebp]
  007a7	c6 81 9e 00 00
	00 00		 mov	 BYTE PTR [ecx+158], 0

; 253  : 			Invalidate();

  007ae	6a 01		 push	 1
  007b0	8b 4d fc	 mov	 ecx, DWORD PTR _this$[ebp]
  007b3	e8 00 00 00 00	 call	 ?Invalidate@CWnd@@QAEXH@Z ; CWnd::Invalidate
$L197976:

; 254  : 		}
; 255  : 
; 256  : 		/*CWnd* lpParent = GetParent();
; 257  : 		if(lpParent != NULL)
; 258  : 			lpParent->Invalidate();*/
; 259  : 	}
; 260  : 	
; 261  : 	CStatic::OnLButtonUp(aiFlags, aPoint);

  007b8	8b 55 10	 mov	 edx, DWORD PTR _aPoint$[ebp+4]
  007bb	52		 push	 edx
  007bc	8b 45 0c	 mov	 eax, DWORD PTR _aPoint$[ebp]
  007bf	50		 push	 eax
  007c0	8b 4d 08	 mov	 ecx, DWORD PTR _aiFlags$[ebp]
  007c3	51		 push	 ecx
  007c4	8b 4d fc	 mov	 ecx, DWORD PTR _this$[ebp]
  007c7	e8 00 00 00 00	 call	 ?OnLButtonUp@CWnd@@IAEXIVCPoint@@@Z ; CWnd::OnLButtonUp

; 262  : }

  007cc	8b e5		 mov	 esp, ebp
  007ce	5d		 pop	 ebp
  007cf	c2 0c 00	 ret	 12			; 0000000cH
?OnLButtonUp@CScrollBarEx@@IAEXIVCPoint@@@Z ENDP	; CScrollBarEx::OnLButtonUp
_TEXT	ENDS
PUBLIC	?MoveThumb@CScrollBarEx@@AAEXVCPoint@@@Z	; CScrollBarEx::MoveThumb
PUBLIC	?OnMouseMove@CWnd@@IAEXIVCPoint@@@Z		; CWnd::OnMouseMove
EXTRN	__imp___TrackMouseEvent@4:NEAR
; Function compile flags: /Odt
_TEXT	SEGMENT
_this$ = -24						; size = 4
_tme$197987 = -20					; size = 16
_liHitTest$197988 = -4					; size = 4
_aiFlags$ = 8						; size = 4
_aPoint$ = 12						; size = 8
?OnMouseMove@CScrollBarEx@@IAEXIVCPoint@@@Z PROC NEAR	; CScrollBarEx::OnMouseMove
; _this$ = ecx

; 265  : {

  007e0	55		 push	 ebp
  007e1	8b ec		 mov	 ebp, esp
  007e3	83 ec 18	 sub	 esp, 24			; 00000018H
  007e6	89 4d e8	 mov	 DWORD PTR _this$[ebp], ecx

; 266  : 	
; 267  : 
; 268  : 
; 269  : 	
; 270  : 	if( TRUE == misDlg )

  007e9	8b 45 e8	 mov	 eax, DWORD PTR _this$[ebp]
  007ec	83 b8 e0 00 00
	00 01		 cmp	 DWORD PTR [eax+224], 1
  007f3	75 2a		 jne	 SHORT $L197983

; 271  : 	{
; 272  : 		//LOG_TRACE(3,true,"CULScrollBar_1",itoa(aPoint.y,string,10));
; 273  : 		if (miLButtonDownHitTest == HT_THUMB)

  007f5	8b 4d e8	 mov	 ecx, DWORD PTR _this$[ebp]
  007f8	83 b9 a4 00 00
	00 68		 cmp	 DWORD PTR [ecx+164], 104 ; 00000068H
  007ff	75 19		 jne	 SHORT $L197984

; 274  : 		{
; 275  : 			//char string[10];
; 276  : 			//char string1[10];
; 277  : 			MoveThumb(mPointDragOffset);

  00801	8b 55 e8	 mov	 edx, DWORD PTR _this$[ebp]
  00804	8b 82 ac 00 00
	00		 mov	 eax, DWORD PTR [edx+172]
  0080a	50		 push	 eax
  0080b	8b 8a a8 00 00
	00		 mov	 ecx, DWORD PTR [edx+168]
  00811	51		 push	 ecx
  00812	8b 4d e8	 mov	 ecx, DWORD PTR _this$[ebp]
  00815	e8 00 00 00 00	 call	 ?MoveThumb@CScrollBarEx@@AAEXVCPoint@@@Z ; CScrollBarEx::MoveThumb
$L197984:

; 278  : 			//int ly = aPoint.y-mPointMoveOffset.y;
; 279  : 			//mPointMoveOffset.y =  aPoint.y;
; 280  : 			//mPointOffsetSum += ly;
; 281  : 			//LOG_TRACE(3,true,"CULScrollBar_2",itoa(ly,string,10));
; 282  : 			//LOG_TRACE(3,true,"CULScrollBar_3",itoa(mPointOffsetSum,string1,10));
; 283  : 			
; 284  : 		}
; 285  : 	}
; 286  : 	else

  0081a	e9 8b 00 00 00	 jmp	 $L197985
$L197983:

; 287  : 	{
; 288  : 		if (!mbTrackLeave)

  0081f	8b 55 e8	 mov	 edx, DWORD PTR _this$[ebp]
  00822	0f b6 82 99 00
	00 00		 movzx	 eax, BYTE PTR [edx+153]
  00829	85 c0		 test	 eax, eax
  0082b	75 2d		 jne	 SHORT $L197986

; 289  : 		{
; 290  : 			TRACKMOUSEEVENT tme;
; 291  : 			tme.cbSize = sizeof(tme);

  0082d	c7 45 ec 10 00
	00 00		 mov	 DWORD PTR _tme$197987[ebp], 16 ; 00000010H

; 292  : 			tme.hwndTrack = this->GetSafeHwnd();

  00834	8b 4d e8	 mov	 ecx, DWORD PTR _this$[ebp]
  00837	e8 00 00 00 00	 call	 ?GetSafeHwnd@CWnd@@QBEPAUHWND__@@XZ ; CWnd::GetSafeHwnd
  0083c	89 45 f4	 mov	 DWORD PTR _tme$197987[ebp+8], eax

; 293  : 			tme.dwFlags = TME_LEAVE;

  0083f	c7 45 f0 02 00
	00 00		 mov	 DWORD PTR _tme$197987[ebp+4], 2

; 294  : 			_TrackMouseEvent(&tme);

  00846	8d 4d ec	 lea	 ecx, DWORD PTR _tme$197987[ebp]
  00849	51		 push	 ecx
  0084a	ff 15 00 00 00
	00		 call	 DWORD PTR __imp___TrackMouseEvent@4

; 295  : 			mbTrackLeave = TRUE;

  00850	8b 55 e8	 mov	 edx, DWORD PTR _this$[ebp]
  00853	c6 82 99 00 00
	00 01		 mov	 BYTE PTR [edx+153], 1
$L197986:

; 296  : 		}
; 297  : 
; 298  : 		UINT liHitTest = HitTest(aPoint);

  0085a	8b 45 10	 mov	 eax, DWORD PTR _aPoint$[ebp+4]
  0085d	50		 push	 eax
  0085e	8b 4d 0c	 mov	 ecx, DWORD PTR _aPoint$[ebp]
  00861	51		 push	 ecx
  00862	8b 4d e8	 mov	 ecx, DWORD PTR _this$[ebp]
  00865	e8 00 00 00 00	 call	 ?HitTest@CScrollBarEx@@AAEIVCPoint@@@Z ; CScrollBarEx::HitTest
  0086a	89 45 fc	 mov	 DWORD PTR _liHitTest$197988[ebp], eax

; 299  : 		if (miLastHitTest != liHitTest)

  0086d	8b 55 e8	 mov	 edx, DWORD PTR _this$[ebp]
  00870	8b 82 a0 00 00
	00		 mov	 eax, DWORD PTR [edx+160]
  00876	3b 45 fc	 cmp	 eax, DWORD PTR _liHitTest$197988[ebp]
  00879	74 0a		 je	 SHORT $L197989

; 300  : 			Invalidate();

  0087b	6a 01		 push	 1
  0087d	8b 4d e8	 mov	 ecx, DWORD PTR _this$[ebp]
  00880	e8 00 00 00 00	 call	 ?Invalidate@CWnd@@QAEXH@Z ; CWnd::Invalidate
$L197989:

; 301  : 
; 302  : 		if (miLButtonDownHitTest == HT_THUMB)

  00885	8b 4d e8	 mov	 ecx, DWORD PTR _this$[ebp]
  00888	83 b9 a4 00 00
	00 68		 cmp	 DWORD PTR [ecx+164], 104 ; 00000068H
  0088f	75 19		 jne	 SHORT $L197985

; 303  : 			MoveThumb(mPointDragOffset);

  00891	8b 55 e8	 mov	 edx, DWORD PTR _this$[ebp]
  00894	8b 82 ac 00 00
	00		 mov	 eax, DWORD PTR [edx+172]
  0089a	50		 push	 eax
  0089b	8b 8a a8 00 00
	00		 mov	 ecx, DWORD PTR [edx+168]
  008a1	51		 push	 ecx
  008a2	8b 4d e8	 mov	 ecx, DWORD PTR _this$[ebp]
  008a5	e8 00 00 00 00	 call	 ?MoveThumb@CScrollBarEx@@AAEXVCPoint@@@Z ; CScrollBarEx::MoveThumb
$L197985:

; 304  : 	}
; 305  : 
; 306  : 	CStatic::OnMouseMove(aiFlags, aPoint);

  008aa	8b 55 10	 mov	 edx, DWORD PTR _aPoint$[ebp+4]
  008ad	52		 push	 edx
  008ae	8b 45 0c	 mov	 eax, DWORD PTR _aPoint$[ebp]
  008b1	50		 push	 eax
  008b2	8b 4d 08	 mov	 ecx, DWORD PTR _aiFlags$[ebp]
  008b5	51		 push	 ecx
  008b6	8b 4d e8	 mov	 ecx, DWORD PTR _this$[ebp]
  008b9	e8 00 00 00 00	 call	 ?OnMouseMove@CWnd@@IAEXIVCPoint@@@Z ; CWnd::OnMouseMove

; 307  : }

  008be	8b e5		 mov	 esp, ebp
  008c0	5d		 pop	 ebp
  008c1	c2 0c 00	 ret	 12			; 0000000cH
?OnMouseMove@CScrollBarEx@@IAEXIVCPoint@@@Z ENDP	; CScrollBarEx::OnMouseMove
_TEXT	ENDS
PUBLIC	?HitTest@CScrollBarEx@@AAEIXZ			; CScrollBarEx::HitTest
; Function compile flags: /Odt
_TEXT	SEGMENT
_this$ = -8						; size = 4
_liHitTest$197997 = -4					; size = 4
_wParam$ = 8						; size = 4
_lParam$ = 12						; size = 4
?OnMouseLeave@CScrollBarEx@@IAEJIJ@Z PROC NEAR		; CScrollBarEx::OnMouseLeave
; _this$ = ecx

; 310  : {

  008d0	55		 push	 ebp
  008d1	8b ec		 mov	 ebp, esp
  008d3	83 ec 08	 sub	 esp, 8
  008d6	89 4d f8	 mov	 DWORD PTR _this$[ebp], ecx

; 311  : 	if (mbTrackLeave)

  008d9	8b 45 f8	 mov	 eax, DWORD PTR _this$[ebp]
  008dc	0f b6 88 99 00
	00 00		 movzx	 ecx, BYTE PTR [eax+153]
  008e3	85 c9		 test	 ecx, ecx
  008e5	74 2c		 je	 SHORT $L197996

; 312  : 	{
; 313  : 		mbTrackLeave = FALSE; 

  008e7	8b 55 f8	 mov	 edx, DWORD PTR _this$[ebp]
  008ea	c6 82 99 00 00
	00 00		 mov	 BYTE PTR [edx+153], 0

; 314  : 		miLastHitTest = HTNOWHERE;

  008f1	8b 45 f8	 mov	 eax, DWORD PTR _this$[ebp]
  008f4	c7 80 a0 00 00
	00 00 00 00 00	 mov	 DWORD PTR [eax+160], 0

; 315  : 		UINT liHitTest = HitTest();

  008fe	8b 4d f8	 mov	 ecx, DWORD PTR _this$[ebp]
  00901	e8 00 00 00 00	 call	 ?HitTest@CScrollBarEx@@AAEIXZ ; CScrollBarEx::HitTest
  00906	89 45 fc	 mov	 DWORD PTR _liHitTest$197997[ebp], eax

; 316  : 		Invalidate();

  00909	6a 01		 push	 1
  0090b	8b 4d f8	 mov	 ecx, DWORD PTR _this$[ebp]
  0090e	e8 00 00 00 00	 call	 ?Invalidate@CWnd@@QAEXH@Z ; CWnd::Invalidate
$L197996:

; 317  : 	}
; 318  : 	return 0;

  00913	33 c0		 xor	 eax, eax

; 319  : }

  00915	8b e5		 mov	 esp, ebp
  00917	5d		 pop	 ebp
  00918	c2 08 00	 ret	 8
?OnMouseLeave@CScrollBarEx@@IAEJIJ@Z ENDP		; CScrollBarEx::OnMouseLeave
_TEXT	ENDS
PUBLIC	?ScreenToClient@CWnd@@QBEXPAUtagPOINT@@@Z	; CWnd::ScreenToClient
PUBLIC	__real@3fe0000000000000
PUBLIC	__real@0000000000000000
PUBLIC	?NotifyControlWnd@CScrollBarEx@@AAEXIH@Z	; CScrollBarEx::NotifyControlWnd
PUBLIC	?SetScrollInfo@CScrollBarEx@@QAEHPAUtagSCROLLINFO@@H@Z ; CScrollBarEx::SetScrollInfo
EXTRN	__imp__lstrcmpiA@8:NEAR
EXTRN	?GetScrollInfo@CWnd@@QAEHHPAUtagSCROLLINFO@@I@Z:NEAR ; CWnd::GetScrollInfo
EXTRN	?GetScrollLimit@CWnd@@QAEHH@Z:NEAR		; CWnd::GetScrollLimit
EXTRN	__imp__GetCursorPos@4:NEAR
EXTRN	__ftol2:NEAR
EXTRN	__fltused:NEAR
EXTRN	__imp__GetClassNameA@12:NEAR
;	COMDAT __real@3fe0000000000000
CONST	SEGMENT
__real@3fe0000000000000 DQ 03fe0000000000000r	; 0.5
CONST	ENDS
;	COMDAT __real@0000000000000000
CONST	SEGMENT
__real@0000000000000000 DQ 00000000000000000r	; 0
; Function compile flags: /Odt
CONST	ENDS
_TEXT	SEGMENT
tv384 = -404						; size = 4
tv346 = -400						; size = 4
tv333 = -396						; size = 8
_this$ = -388						; size = 4
_liTimes$198064 = -384					; size = 4
_liTimes$198023 = -380					; size = 4
_lPointCursor$ = -376					; size = 8
_liCursorPos$ = -368					; size = 4
_liPos$ = -364						; size = 4
_liTrackWidth$ = -360					; size = 4
_si$ = -356						; size = 28
_szTemp$ = -328						; size = 260
__$ArrayPad$ = -60					; size = 4
_lrcThumb$ = -56					; size = 16
_ldbTrackArea$ = -40					; size = 8
_liTrackHeight$ = -32					; size = 4
_liThumbHeight$ = -28					; size = 4
_ldbTrackLength$ = -24					; size = 8
_liThumbWidth$ = -12					; size = 4
_ldbTempPos$ = -8					; size = 8
__$ReturnAddr$ = 4					; size = 4
_aPointOffset$ = 8					; size = 8
?MoveThumb@CScrollBarEx@@AAEXVCPoint@@@Z PROC NEAR	; CScrollBarEx::MoveThumb
; _this$ = ecx

; 328  : {

  00920	55		 push	 ebp
  00921	8b ec		 mov	 ebp, esp
  00923	81 ec 94 01 00
	00		 sub	 esp, 404		; 00000194H
  00929	a1 00 00 00 00	 mov	 eax, DWORD PTR ___security_cookie
  0092e	89 45 c4	 mov	 DWORD PTR __$ArrayPad$[ebp], eax
  00931	89 8d 7c fe ff
	ff		 mov	 DWORD PTR _this$[ebp], ecx

; 329  : 	//取得当前鼠标坐标
; 330  : 	CPoint lPointCursor;

  00937	8d 8d 88 fe ff
	ff		 lea	 ecx, DWORD PTR _lPointCursor$[ebp]
  0093d	e8 00 00 00 00	 call	 ??0CPoint@@QAE@XZ	; CPoint::CPoint

; 331  : 	GetCursorPos(&lPointCursor);

  00942	8d 85 88 fe ff
	ff		 lea	 eax, DWORD PTR _lPointCursor$[ebp]
  00948	50		 push	 eax
  00949	ff 15 00 00 00
	00		 call	 DWORD PTR __imp__GetCursorPos@4

; 332  : 	ScreenToClient(&lPointCursor);

  0094f	8d 8d 88 fe ff
	ff		 lea	 ecx, DWORD PTR _lPointCursor$[ebp]
  00955	51		 push	 ecx
  00956	8b 8d 7c fe ff
	ff		 mov	 ecx, DWORD PTR _this$[ebp]
  0095c	e8 00 00 00 00	 call	 ?ScreenToClient@CWnd@@QBEXPAUtagPOINT@@@Z ; CWnd::ScreenToClient

; 333  : 
; 334  : 	RECT lrcThumb = GetRect(HT_THUMB);

  00961	6a 68		 push	 104			; 00000068H
  00963	8d 55 c8	 lea	 edx, DWORD PTR _lrcThumb$[ebp]
  00966	52		 push	 edx
  00967	8b 8d 7c fe ff
	ff		 mov	 ecx, DWORD PTR _this$[ebp]
  0096d	e8 00 00 00 00	 call	 ?GetRect@CScrollBarEx@@AAE?AUtagRECT@@I@Z ; CScrollBarEx::GetRect

; 335  : 	int liCursorPos = 0;	//当前鼠标坐标

  00972	c7 85 90 fe ff
	ff 00 00 00 00	 mov	 DWORD PTR _liCursorPos$[ebp], 0

; 336  : 	int liPos = 0;			//当前鼠标对应的滚动条位置Postion

  0097c	c7 85 94 fe ff
	ff 00 00 00 00	 mov	 DWORD PTR _liPos$[ebp], 0

; 337  : 	int liTrackHeight = mrcClient.bottom - mrcClient.top - miButtonSize * 2 - 1;	//滑轨高度

  00986	8b 85 7c fe ff
	ff		 mov	 eax, DWORD PTR _this$[ebp]
  0098c	8b 8d 7c fe ff
	ff		 mov	 ecx, DWORD PTR _this$[ebp]
  00992	8b 90 90 00 00
	00		 mov	 edx, DWORD PTR [eax+144]
  00998	2b 91 88 00 00
	00		 sub	 edx, DWORD PTR [ecx+136]
  0099e	8b 85 7c fe ff
	ff		 mov	 eax, DWORD PTR _this$[ebp]
  009a4	8b 88 94 00 00
	00		 mov	 ecx, DWORD PTR [eax+148]
  009aa	d1 e1		 shl	 ecx, 1
  009ac	2b d1		 sub	 edx, ecx
  009ae	83 ea 01	 sub	 edx, 1
  009b1	89 55 e0	 mov	 DWORD PTR _liTrackHeight$[ebp], edx

; 338  : 	int liTrackWidth = mrcClient.right - mrcClient.left - miButtonSize * 2 - 1;		//滑轨宽度

  009b4	8b 95 7c fe ff
	ff		 mov	 edx, DWORD PTR _this$[ebp]
  009ba	8b 85 7c fe ff
	ff		 mov	 eax, DWORD PTR _this$[ebp]
  009c0	8b 8a 8c 00 00
	00		 mov	 ecx, DWORD PTR [edx+140]
  009c6	2b 88 84 00 00
	00		 sub	 ecx, DWORD PTR [eax+132]
  009cc	8b 95 7c fe ff
	ff		 mov	 edx, DWORD PTR _this$[ebp]
  009d2	8b 82 94 00 00
	00		 mov	 eax, DWORD PTR [edx+148]
  009d8	d1 e0		 shl	 eax, 1
  009da	2b c8		 sub	 ecx, eax
  009dc	83 e9 01	 sub	 ecx, 1
  009df	89 8d 98 fe ff
	ff		 mov	 DWORD PTR _liTrackWidth$[ebp], ecx

; 339  : 	int liThumbHeight = lrcThumb.bottom - lrcThumb.top;		//滑块高度

  009e5	8b 4d d4	 mov	 ecx, DWORD PTR _lrcThumb$[ebp+12]
  009e8	2b 4d cc	 sub	 ecx, DWORD PTR _lrcThumb$[ebp+4]
  009eb	89 4d e4	 mov	 DWORD PTR _liThumbHeight$[ebp], ecx

; 340  : 	int liThumbWidth = lrcThumb.right - lrcThumb.left;		//滑块宽度

  009ee	8b 55 d0	 mov	 edx, DWORD PTR _lrcThumb$[ebp+8]
  009f1	2b 55 c8	 sub	 edx, DWORD PTR _lrcThumb$[ebp]
  009f4	89 55 f4	 mov	 DWORD PTR _liThumbWidth$[ebp], edx

; 341  : 	double ldbTrackArea = mScrollInfo.nMax - mScrollInfo.nMin - mScrollInfo.nPage + 0.5;		//滑块区域(相对于Position)

  009f7	8b 85 7c fe ff
	ff		 mov	 eax, DWORD PTR _this$[ebp]
  009fd	8b 8d 7c fe ff
	ff		 mov	 ecx, DWORD PTR _this$[ebp]
  00a03	8b 50 70	 mov	 edx, DWORD PTR [eax+112]
  00a06	2b 51 6c	 sub	 edx, DWORD PTR [ecx+108]
  00a09	8b 85 7c fe ff
	ff		 mov	 eax, DWORD PTR _this$[ebp]
  00a0f	2b 50 74	 sub	 edx, DWORD PTR [eax+116]
  00a12	89 95 74 fe ff
	ff		 mov	 DWORD PTR tv333[ebp], edx
  00a18	c7 85 78 fe ff
	ff 00 00 00 00	 mov	 DWORD PTR tv333[ebp+4], 0
  00a22	df ad 74 fe ff
	ff		 fild	 QWORD PTR tv333[ebp]
  00a28	dc 05 00 00 00
	00		 fadd	 QWORD PTR __real@3fe0000000000000
  00a2e	dd 5d d8	 fstp	 QWORD PTR _ldbTrackArea$[ebp]

; 342  : 	double ldbTrackLength = 0.00;		//滑轨长度

  00a31	dd 05 00 00 00
	00		 fld	 QWORD PTR __real@0000000000000000
  00a37	dd 5d e8	 fstp	 QWORD PTR _ldbTrackLength$[ebp]

; 343  : 	double ldbTempPos = 0.00;

  00a3a	dd 05 00 00 00
	00		 fld	 QWORD PTR __real@0000000000000000
  00a40	dd 5d f8	 fstp	 QWORD PTR _ldbTempPos$[ebp]

; 344  : 
; 345  : 	SCROLLINFO si;
; 346  : 	si.cbSize = sizeof(si);

  00a43	c7 85 9c fe ff
	ff 1c 00 00 00	 mov	 DWORD PTR _si$[ebp], 28	; 0000001cH

; 347  : 	si.fMask = SIF_RANGE;

  00a4d	c7 85 a0 fe ff
	ff 01 00 00 00	 mov	 DWORD PTR _si$[ebp+4], 1

; 348  : 	if (mpWnd == NULL)

  00a57	8b 8d 7c fe ff
	ff		 mov	 ecx, DWORD PTR _this$[ebp]
  00a5d	83 79 54 00	 cmp	 DWORD PTR [ecx+84], 0
  00a61	75 05		 jne	 SHORT $L198015

; 349  : 		return;

  00a63	e9 8d 03 00 00	 jmp	 $L198001
$L198015:

; 350  : 
; 351  : 	//取得父控件类名
; 352  : 	char szTemp[MAX_PATH];
; 353  : #if _MSC_VER   <   1400
; 354  : 	GetClassName(mpWnd->GetSafeHwnd(), (LPTSTR)szTemp, sizeof(szTemp));

  00a68	68 04 01 00 00	 push	 260			; 00000104H
  00a6d	8d 95 b8 fe ff
	ff		 lea	 edx, DWORD PTR _szTemp$[ebp]
  00a73	52		 push	 edx
  00a74	8b 85 7c fe ff
	ff		 mov	 eax, DWORD PTR _this$[ebp]
  00a7a	8b 48 54	 mov	 ecx, DWORD PTR [eax+84]
  00a7d	e8 00 00 00 00	 call	 ?GetSafeHwnd@CWnd@@QBEPAUHWND__@@XZ ; CWnd::GetSafeHwnd
  00a82	50		 push	 eax
  00a83	ff 15 00 00 00
	00		 call	 DWORD PTR __imp__GetClassNameA@12

; 355  : #else
; 356  : 	GetClassName(mpWnd->GetSafeHwnd(), T2W((LPTSTR)szTemp), sizeof(szTemp));
; 357  : #endif
; 358  : 
; 359  : 	if (mScrollOrientation == esoVertical)

  00a89	8b 8d 7c fe ff
	ff		 mov	 ecx, DWORD PTR _this$[ebp]
  00a8f	83 b9 80 00 00
	00 01		 cmp	 DWORD PTR [ecx+128], 1
  00a96	0f 85 b5 01 00
	00		 jne	 $L198018

; 360  : 	{
; 361  : 		mpWnd->GetScrollInfo(SB_VERT, &si);

  00a9c	6a 17		 push	 23			; 00000017H
  00a9e	8d 95 9c fe ff
	ff		 lea	 edx, DWORD PTR _si$[ebp]
  00aa4	52		 push	 edx
  00aa5	6a 01		 push	 1
  00aa7	8b 85 7c fe ff
	ff		 mov	 eax, DWORD PTR _this$[ebp]
  00aad	8b 48 54	 mov	 ecx, DWORD PTR [eax+84]
  00ab0	e8 00 00 00 00	 call	 ?GetScrollInfo@CWnd@@QAEHHPAUtagSCROLLINFO@@I@Z ; CWnd::GetScrollInfo

; 362  : 		ldbTrackLength = liTrackHeight - liThumbHeight;

  00ab5	8b 4d e0	 mov	 ecx, DWORD PTR _liTrackHeight$[ebp]
  00ab8	2b 4d e4	 sub	 ecx, DWORD PTR _liThumbHeight$[ebp]
  00abb	89 8d 70 fe ff
	ff		 mov	 DWORD PTR tv346[ebp], ecx
  00ac1	db 85 70 fe ff
	ff		 fild	 DWORD PTR tv346[ebp]
  00ac7	dd 5d e8	 fstp	 QWORD PTR _ldbTrackLength$[ebp]

; 363  : 		liCursorPos = lPointCursor.y - miButtonSize - aPointOffset.y - liThumbHeight / 2;

  00aca	8b 95 7c fe ff
	ff		 mov	 edx, DWORD PTR _this$[ebp]
  00ad0	8b 8d 8c fe ff
	ff		 mov	 ecx, DWORD PTR _lPointCursor$[ebp+4]
  00ad6	2b 8a 94 00 00
	00		 sub	 ecx, DWORD PTR [edx+148]
  00adc	2b 4d 0c	 sub	 ecx, DWORD PTR _aPointOffset$[ebp+4]
  00adf	8b 45 e4	 mov	 eax, DWORD PTR _liThumbHeight$[ebp]
  00ae2	99		 cdq
  00ae3	2b c2		 sub	 eax, edx
  00ae5	d1 f8		 sar	 eax, 1
  00ae7	2b c8		 sub	 ecx, eax
  00ae9	89 8d 90 fe ff
	ff		 mov	 DWORD PTR _liCursorPos$[ebp], ecx

; 364  : 		ldbTempPos = (double)liCursorPos * (ldbTrackArea / ldbTrackLength);

  00aef	db 85 90 fe ff
	ff		 fild	 DWORD PTR _liCursorPos$[ebp]
  00af5	dd 45 d8	 fld	 QWORD PTR _ldbTrackArea$[ebp]
  00af8	dc 75 e8	 fdiv	 QWORD PTR _ldbTrackLength$[ebp]
  00afb	de c9		 fmulp	 ST(1), ST(0)
  00afd	dd 55 f8	 fst	 QWORD PTR _ldbTempPos$[ebp]

; 365  : 		liPos = (int)ldbTempPos;

  00b00	e8 00 00 00 00	 call	 __ftol2
  00b05	89 85 94 fe ff
	ff		 mov	 DWORD PTR _liPos$[ebp], eax

; 366  : 		ldbTempPos -= (double)liPos;

  00b0b	db 85 94 fe ff
	ff		 fild	 DWORD PTR _liPos$[ebp]
  00b11	dc 6d f8	 fsubr	 QWORD PTR _ldbTempPos$[ebp]
  00b14	dd 5d f8	 fstp	 QWORD PTR _ldbTempPos$[ebp]

; 367  : 		if (ldbTempPos > 0)

  00b17	dd 45 f8	 fld	 QWORD PTR _ldbTempPos$[ebp]
  00b1a	dc 1d 00 00 00
	00		 fcomp	 QWORD PTR __real@0000000000000000
  00b20	df e0		 fnstsw	 ax
  00b22	f6 c4 41	 test	 ah, 65			; 00000041H
  00b25	75 0f		 jne	 SHORT $L198022

; 368  : 			liPos ++;

  00b27	8b 95 94 fe ff
	ff		 mov	 edx, DWORD PTR _liPos$[ebp]
  00b2d	83 c2 01	 add	 edx, 1
  00b30	89 95 94 fe ff
	ff		 mov	 DWORD PTR _liPos$[ebp], edx
$L198022:

; 369  : 		int liTimes = 0;

  00b36	c7 85 84 fe ff
	ff 00 00 00 00	 mov	 DWORD PTR _liTimes$198023[ebp], 0

; 370  : 
; 371  : 		if (liPos >= mScrollInfo.nMin && liPos <= mpWnd->GetScrollLimit(SB_VERT))

  00b40	8b 85 7c fe ff
	ff		 mov	 eax, DWORD PTR _this$[ebp]
  00b46	8b 8d 94 fe ff
	ff		 mov	 ecx, DWORD PTR _liPos$[ebp]
  00b4c	3b 48 6c	 cmp	 ecx, DWORD PTR [eax+108]
  00b4f	7c 64		 jl	 SHORT $L198024
  00b51	6a 01		 push	 1
  00b53	8b 95 7c fe ff
	ff		 mov	 edx, DWORD PTR _this$[ebp]
  00b59	8b 4a 54	 mov	 ecx, DWORD PTR [edx+84]
  00b5c	e8 00 00 00 00	 call	 ?GetScrollLimit@CWnd@@QAEHH@Z ; CWnd::GetScrollLimit
  00b61	39 85 94 fe ff
	ff		 cmp	 DWORD PTR _liPos$[ebp], eax
  00b67	7f 4c		 jg	 SHORT $L198024

; 372  : 		{
; 373  : 			#if _MSC_VER   <   1400
; 374  : 			if (lstrcmpi( (LPTSTR)szTemp, _T("SysListView32")) == 0)		//ListCtrl单独处理

  00b69	68 00 00 00 00	 push	 OFFSET FLAT:$SG198027
  00b6e	8d 85 b8 fe ff
	ff		 lea	 eax, DWORD PTR _szTemp$[ebp]
  00b74	50		 push	 eax
  00b75	ff 15 00 00 00
	00		 call	 DWORD PTR __imp__lstrcmpiA@8
  00b7b	85 c0		 test	 eax, eax
  00b7d	75 02		 jne	 SHORT $L198026

; 375  : 			#else
; 376  : 			if (lstrcmpi(T2W((LPTSTR)szTemp), _T("SysListView32")) == 0)
; 377  :             #endif
; 378  : 			{
; 379  : 				/*bool lbDirDown = mScrollInfo.nPos < liPos;
; 380  : 				CSize lSize;
; 381  : 				lSize.cx = 0;
; 382  : 				lSize.cy = (liPos - mScrollInfo.nPos) * 13;
; 383  : 				if (IS_ODD(lSize.cy))
; 384  : 					lSize.cy ++;
; 385  : 				((CULListView*)mpWnd)->Scroll(lSize);*/
; 386  : 			}
; 387  : 			else

  00b7f	eb 26		 jmp	 SHORT $L198028
$L198026:

; 388  : 			//{ 
; 389  : 			    #if _MSC_VER   <   1400
; 390  : 				NotifyControlWnd(WM_VSCROLL, (int)MAKELPARAM(SB_THUMBTRACK, liPos));

  00b81	8b 8d 94 fe ff
	ff		 mov	 ecx, DWORD PTR _liPos$[ebp]
  00b87	81 e1 ff ff 00
	00		 and	 ecx, 65535		; 0000ffffH
  00b8d	0f b7 d1	 movzx	 edx, cx
  00b90	c1 e2 10	 shl	 edx, 16			; 00000010H
  00b93	83 ca 05	 or	 edx, 5
  00b96	52		 push	 edx
  00b97	68 15 01 00 00	 push	 277			; 00000115H
  00b9c	8b 8d 7c fe ff
	ff		 mov	 ecx, DWORD PTR _this$[ebp]
  00ba2	e8 00 00 00 00	 call	 ?NotifyControlWnd@CScrollBarEx@@AAEXIH@Z ; CScrollBarEx::NotifyControlWnd
$L198028:

; 391  : 			    #else
; 392  : 				NotifyControlWnd(WM_VSCROLL, (int)MAKELPARAM(SB_THUMBTRACK, liPos));
; 393  :                 #endif
; 394  : 				//char string[10]; 
; 395  : 				//LOG_TRACE(3,true,"CULScrollBar_2",itoa(liPos,string,10));
; 396  : 			//}
; 397  : 			si.nPos = liPos;

  00ba7	8b 85 94 fe ff
	ff		 mov	 eax, DWORD PTR _liPos$[ebp]
  00bad	89 85 b0 fe ff
	ff		 mov	 DWORD PTR _si$[ebp+20], eax

; 398  : 		}
; 399  : 		else if (liPos < mScrollInfo.nMin)

  00bb3	eb 74		 jmp	 SHORT $L198038
$L198024:
  00bb5	8b 8d 7c fe ff
	ff		 mov	 ecx, DWORD PTR _this$[ebp]
  00bbb	8b 95 94 fe ff
	ff		 mov	 edx, DWORD PTR _liPos$[ebp]
  00bc1	3b 51 6c	 cmp	 edx, DWORD PTR [ecx+108]
  00bc4	7d 23		 jge	 SHORT $L198039

; 400  : 		{
; 401  : 			NotifyControlWnd(WM_VSCROLL, MAKELPARAM(SB_TOP, 0));

  00bc6	6a 06		 push	 6
  00bc8	68 15 01 00 00	 push	 277			; 00000115H
  00bcd	8b 8d 7c fe ff
	ff		 mov	 ecx, DWORD PTR _this$[ebp]
  00bd3	e8 00 00 00 00	 call	 ?NotifyControlWnd@CScrollBarEx@@AAEXIH@Z ; CScrollBarEx::NotifyControlWnd

; 402  : 			si.nPos = mScrollInfo.nMin;

  00bd8	8b 85 7c fe ff
	ff		 mov	 eax, DWORD PTR _this$[ebp]
  00bde	8b 48 6c	 mov	 ecx, DWORD PTR [eax+108]
  00be1	89 8d b0 fe ff
	ff		 mov	 DWORD PTR _si$[ebp+20], ecx

; 403  : 		}
; 404  : 		else if (liPos > mpWnd->GetScrollLimit(SB_VERT))

  00be7	eb 40		 jmp	 SHORT $L198038
$L198039:
  00be9	6a 01		 push	 1
  00beb	8b 95 7c fe ff
	ff		 mov	 edx, DWORD PTR _this$[ebp]
  00bf1	8b 4a 54	 mov	 ecx, DWORD PTR [edx+84]
  00bf4	e8 00 00 00 00	 call	 ?GetScrollLimit@CWnd@@QAEHH@Z ; CWnd::GetScrollLimit
  00bf9	39 85 94 fe ff
	ff		 cmp	 DWORD PTR _liPos$[ebp], eax
  00bff	7e 28		 jle	 SHORT $L198038

; 405  : 		{
; 406  : 			NotifyControlWnd(WM_VSCROLL, MAKELPARAM(SB_BOTTOM, 0));

  00c01	6a 07		 push	 7
  00c03	68 15 01 00 00	 push	 277			; 00000115H
  00c08	8b 8d 7c fe ff
	ff		 mov	 ecx, DWORD PTR _this$[ebp]
  00c0e	e8 00 00 00 00	 call	 ?NotifyControlWnd@CScrollBarEx@@AAEXIH@Z ; CScrollBarEx::NotifyControlWnd

; 407  : 			si.nPos = mpWnd->GetScrollLimit(SB_VERT);

  00c13	6a 01		 push	 1
  00c15	8b 85 7c fe ff
	ff		 mov	 eax, DWORD PTR _this$[ebp]
  00c1b	8b 48 54	 mov	 ecx, DWORD PTR [eax+84]
  00c1e	e8 00 00 00 00	 call	 ?GetScrollLimit@CWnd@@QAEHH@Z ; CWnd::GetScrollLimit
  00c23	89 85 b0 fe ff
	ff		 mov	 DWORD PTR _si$[ebp+20], eax
$L198038:

; 408  : 		}
; 409  : 		//更新滚动条信息
; 410  : 		if (false == misDlg)

  00c29	8b 8d 7c fe ff
	ff		 mov	 ecx, DWORD PTR _this$[ebp]
  00c2f	83 b9 e0 00 00
	00 00		 cmp	 DWORD PTR [ecx+224], 0
  00c36	75 14		 jne	 SHORT $L198058

; 411  : 		{
; 412  : 				SetScrollInfo(&si);

  00c38	6a 01		 push	 1
  00c3a	8d 95 9c fe ff
	ff		 lea	 edx, DWORD PTR _si$[ebp]
  00c40	52		 push	 edx
  00c41	8b 8d 7c fe ff
	ff		 mov	 ecx, DWORD PTR _this$[ebp]
  00c47	e8 00 00 00 00	 call	 ?SetScrollInfo@CScrollBarEx@@QAEHPAUtagSCROLLINFO@@H@Z ; CScrollBarEx::SetScrollInfo
$L198058:

; 413  : 		}	
; 414  : 	}
; 415  : 	else

  00c4c	e9 a4 01 00 00	 jmp	 $L198001
$L198018:

; 416  : 	{
; 417  : 		mpWnd->GetScrollInfo(SB_HORZ, &si);

  00c51	6a 17		 push	 23			; 00000017H
  00c53	8d 85 9c fe ff
	ff		 lea	 eax, DWORD PTR _si$[ebp]
  00c59	50		 push	 eax
  00c5a	6a 00		 push	 0
  00c5c	8b 8d 7c fe ff
	ff		 mov	 ecx, DWORD PTR _this$[ebp]
  00c62	8b 49 54	 mov	 ecx, DWORD PTR [ecx+84]
  00c65	e8 00 00 00 00	 call	 ?GetScrollInfo@CWnd@@QAEHHPAUtagSCROLLINFO@@I@Z ; CWnd::GetScrollInfo

; 418  : 		ldbTrackLength = liTrackWidth - liThumbWidth;

  00c6a	8b 95 98 fe ff
	ff		 mov	 edx, DWORD PTR _liTrackWidth$[ebp]
  00c70	2b 55 f4	 sub	 edx, DWORD PTR _liThumbWidth$[ebp]
  00c73	89 95 6c fe ff
	ff		 mov	 DWORD PTR tv384[ebp], edx
  00c79	db 85 6c fe ff
	ff		 fild	 DWORD PTR tv384[ebp]
  00c7f	dd 5d e8	 fstp	 QWORD PTR _ldbTrackLength$[ebp]

; 419  : 		liCursorPos = lPointCursor.x - miButtonSize - aPointOffset.x - liThumbWidth / 2;

  00c82	8b 85 7c fe ff
	ff		 mov	 eax, DWORD PTR _this$[ebp]
  00c88	8b 8d 88 fe ff
	ff		 mov	 ecx, DWORD PTR _lPointCursor$[ebp]
  00c8e	2b 88 94 00 00
	00		 sub	 ecx, DWORD PTR [eax+148]
  00c94	2b 4d 08	 sub	 ecx, DWORD PTR _aPointOffset$[ebp]
  00c97	8b 45 f4	 mov	 eax, DWORD PTR _liThumbWidth$[ebp]
  00c9a	99		 cdq
  00c9b	2b c2		 sub	 eax, edx
  00c9d	d1 f8		 sar	 eax, 1
  00c9f	2b c8		 sub	 ecx, eax
  00ca1	89 8d 90 fe ff
	ff		 mov	 DWORD PTR _liCursorPos$[ebp], ecx

; 420  : 		ldbTempPos = (double)liCursorPos * (ldbTrackArea / ldbTrackLength);

  00ca7	db 85 90 fe ff
	ff		 fild	 DWORD PTR _liCursorPos$[ebp]
  00cad	dd 45 d8	 fld	 QWORD PTR _ldbTrackArea$[ebp]
  00cb0	dc 75 e8	 fdiv	 QWORD PTR _ldbTrackLength$[ebp]
  00cb3	de c9		 fmulp	 ST(1), ST(0)
  00cb5	dd 55 f8	 fst	 QWORD PTR _ldbTempPos$[ebp]

; 421  : 		liPos = (int)ldbTempPos;

  00cb8	e8 00 00 00 00	 call	 __ftol2
  00cbd	89 85 94 fe ff
	ff		 mov	 DWORD PTR _liPos$[ebp], eax

; 422  : 		ldbTempPos -= (double)liPos;

  00cc3	db 85 94 fe ff
	ff		 fild	 DWORD PTR _liPos$[ebp]
  00cc9	dc 6d f8	 fsubr	 QWORD PTR _ldbTempPos$[ebp]
  00ccc	dd 5d f8	 fstp	 QWORD PTR _ldbTempPos$[ebp]

; 423  : 		if (ldbTempPos > 0)

  00ccf	dd 45 f8	 fld	 QWORD PTR _ldbTempPos$[ebp]
  00cd2	dc 1d 00 00 00
	00		 fcomp	 QWORD PTR __real@0000000000000000
  00cd8	df e0		 fnstsw	 ax
  00cda	f6 c4 41	 test	 ah, 65			; 00000041H
  00cdd	75 0f		 jne	 SHORT $L198063

; 424  : 			liPos ++;

  00cdf	8b 95 94 fe ff
	ff		 mov	 edx, DWORD PTR _liPos$[ebp]
  00ce5	83 c2 01	 add	 edx, 1
  00ce8	89 95 94 fe ff
	ff		 mov	 DWORD PTR _liPos$[ebp], edx
$L198063:

; 425  : 		int liTimes = 0;

  00cee	c7 85 80 fe ff
	ff 00 00 00 00	 mov	 DWORD PTR _liTimes$198064[ebp], 0

; 426  : 
; 427  : 		if (liPos >= mScrollInfo.nMin && liPos <= mpWnd->GetScrollLimit(SB_HORZ))

  00cf8	8b 85 7c fe ff
	ff		 mov	 eax, DWORD PTR _this$[ebp]
  00cfe	8b 8d 94 fe ff
	ff		 mov	 ecx, DWORD PTR _liPos$[ebp]
  00d04	3b 48 6c	 cmp	 ecx, DWORD PTR [eax+108]
  00d07	7c 64		 jl	 SHORT $L198065
  00d09	6a 00		 push	 0
  00d0b	8b 95 7c fe ff
	ff		 mov	 edx, DWORD PTR _this$[ebp]
  00d11	8b 4a 54	 mov	 ecx, DWORD PTR [edx+84]
  00d14	e8 00 00 00 00	 call	 ?GetScrollLimit@CWnd@@QAEHH@Z ; CWnd::GetScrollLimit
  00d19	39 85 94 fe ff
	ff		 cmp	 DWORD PTR _liPos$[ebp], eax
  00d1f	7f 4c		 jg	 SHORT $L198065

; 428  : 		{
; 429  : 			#if _MSC_VER   <   1400
; 430  : 			if (lstrcmpi( (LPTSTR)szTemp, _T("SysListView32")) == 0)		//ListCtrl单独处理

  00d21	68 00 00 00 00	 push	 OFFSET FLAT:$SG198068
  00d26	8d 85 b8 fe ff
	ff		 lea	 eax, DWORD PTR _szTemp$[ebp]
  00d2c	50		 push	 eax
  00d2d	ff 15 00 00 00
	00		 call	 DWORD PTR __imp__lstrcmpiA@8
  00d33	85 c0		 test	 eax, eax
  00d35	75 02		 jne	 SHORT $L198067

; 431  : 			#else
; 432  : 			if (lstrcmpi(T2W((LPTSTR)szTemp), _T("SysListView32")) == 0)
; 433  : 			#endif
; 434  : 			{
; 435  : 				/*bool lbDirDown = mScrollInfo.nPos < liPos;
; 436  : 				CSize lSize;
; 437  : 				lSize.cx = (liPos - mScrollInfo.nPos);
; 438  : 				lSize.cy = 0;
; 439  : 				((CULListView*)mpWnd)->Scroll(lSize);*/
; 440  : 			}
; 441  : 			else

  00d37	eb 26		 jmp	 SHORT $L198069
$L198067:

; 442  : 				NotifyControlWnd(WM_HSCROLL, (int)MAKELPARAM(SB_THUMBTRACK, liPos));

  00d39	8b 8d 94 fe ff
	ff		 mov	 ecx, DWORD PTR _liPos$[ebp]
  00d3f	81 e1 ff ff 00
	00		 and	 ecx, 65535		; 0000ffffH
  00d45	0f b7 d1	 movzx	 edx, cx
  00d48	c1 e2 10	 shl	 edx, 16			; 00000010H
  00d4b	83 ca 05	 or	 edx, 5
  00d4e	52		 push	 edx
  00d4f	68 14 01 00 00	 push	 276			; 00000114H
  00d54	8b 8d 7c fe ff
	ff		 mov	 ecx, DWORD PTR _this$[ebp]
  00d5a	e8 00 00 00 00	 call	 ?NotifyControlWnd@CScrollBarEx@@AAEXIH@Z ; CScrollBarEx::NotifyControlWnd
$L198069:

; 443  : 			si.nPos = liPos;

  00d5f	8b 85 94 fe ff
	ff		 mov	 eax, DWORD PTR _liPos$[ebp]
  00d65	89 85 b0 fe ff
	ff		 mov	 DWORD PTR _si$[ebp+20], eax

; 444  : 		}
; 445  : 		else if (liPos < mScrollInfo.nMin)

  00d6b	eb 74		 jmp	 SHORT $L198079
$L198065:
  00d6d	8b 8d 7c fe ff
	ff		 mov	 ecx, DWORD PTR _this$[ebp]
  00d73	8b 95 94 fe ff
	ff		 mov	 edx, DWORD PTR _liPos$[ebp]
  00d79	3b 51 6c	 cmp	 edx, DWORD PTR [ecx+108]
  00d7c	7d 23		 jge	 SHORT $L198080

; 446  : 		{
; 447  : 			NotifyControlWnd(WM_HSCROLL, (int)MAKELPARAM(SB_TOP, 0));

  00d7e	6a 06		 push	 6
  00d80	68 14 01 00 00	 push	 276			; 00000114H
  00d85	8b 8d 7c fe ff
	ff		 mov	 ecx, DWORD PTR _this$[ebp]
  00d8b	e8 00 00 00 00	 call	 ?NotifyControlWnd@CScrollBarEx@@AAEXIH@Z ; CScrollBarEx::NotifyControlWnd

; 448  : 			si.nPos = mScrollInfo.nMin;

  00d90	8b 85 7c fe ff
	ff		 mov	 eax, DWORD PTR _this$[ebp]
  00d96	8b 48 6c	 mov	 ecx, DWORD PTR [eax+108]
  00d99	89 8d b0 fe ff
	ff		 mov	 DWORD PTR _si$[ebp+20], ecx

; 449  : 		}
; 450  : 		else if (liPos > mpWnd->GetScrollLimit(SB_HORZ))

  00d9f	eb 40		 jmp	 SHORT $L198079
$L198080:
  00da1	6a 00		 push	 0
  00da3	8b 95 7c fe ff
	ff		 mov	 edx, DWORD PTR _this$[ebp]
  00da9	8b 4a 54	 mov	 ecx, DWORD PTR [edx+84]
  00dac	e8 00 00 00 00	 call	 ?GetScrollLimit@CWnd@@QAEHH@Z ; CWnd::GetScrollLimit
  00db1	39 85 94 fe ff
	ff		 cmp	 DWORD PTR _liPos$[ebp], eax
  00db7	7e 28		 jle	 SHORT $L198079

; 451  : 		{
; 452  : 			NotifyControlWnd(WM_HSCROLL, (int)MAKELPARAM(SB_BOTTOM, 0));

  00db9	6a 07		 push	 7
  00dbb	68 14 01 00 00	 push	 276			; 00000114H
  00dc0	8b 8d 7c fe ff
	ff		 mov	 ecx, DWORD PTR _this$[ebp]
  00dc6	e8 00 00 00 00	 call	 ?NotifyControlWnd@CScrollBarEx@@AAEXIH@Z ; CScrollBarEx::NotifyControlWnd

; 453  : 			si.nPos = mpWnd->GetScrollLimit(SB_HORZ);

  00dcb	6a 00		 push	 0
  00dcd	8b 85 7c fe ff
	ff		 mov	 eax, DWORD PTR _this$[ebp]
  00dd3	8b 48 54	 mov	 ecx, DWORD PTR [eax+84]
  00dd6	e8 00 00 00 00	 call	 ?GetScrollLimit@CWnd@@QAEHH@Z ; CWnd::GetScrollLimit
  00ddb	89 85 b0 fe ff
	ff		 mov	 DWORD PTR _si$[ebp+20], eax
$L198079:

; 454  : 		}
; 455  : 		//更新滚动条信息
; 456  : 		SetScrollInfo(&si);

  00de1	6a 01		 push	 1
  00de3	8d 8d 9c fe ff
	ff		 lea	 ecx, DWORD PTR _si$[ebp]
  00de9	51		 push	 ecx
  00dea	8b 8d 7c fe ff
	ff		 mov	 ecx, DWORD PTR _this$[ebp]
  00df0	e8 00 00 00 00	 call	 ?SetScrollInfo@CScrollBarEx@@QAEHPAUtagSCROLLINFO@@H@Z ; CScrollBarEx::SetScrollInfo
$L198001:

; 457  : 	}
; 458  : }

  00df5	8b 4d c4	 mov	 ecx, DWORD PTR __$ArrayPad$[ebp]
  00df8	e8 00 00 00 00	 call	 @__security_check_cookie@4
  00dfd	8b e5		 mov	 esp, ebp
  00dff	5d		 pop	 ebp
  00e00	c2 08 00	 ret	 8
?MoveThumb@CScrollBarEx@@AAEXVCPoint@@@Z ENDP		; CScrollBarEx::MoveThumb
_TEXT	ENDS
PUBLIC	?TrackSpace@CScrollBarEx@@AAEXXZ		; CScrollBarEx::TrackSpace
PUBLIC	?UpdateScrollBar@CScrollBarEx@@QAEXXZ		; CScrollBarEx::UpdateScrollBar
; Function compile flags: /Odt
_TEXT	SEGMENT
_this$ = -88						; size = 4
$T199332 = -84						; size = 16
$T199331 = -68						; size = 16
_bDirDown$198125 = -52					; size = 4
_bDirDown$198113 = -48					; size = 4
_lPointCursor$ = -44					; size = 8
_liMaxTimes$ = -36					; size = 4
_lrcThumb$ = -32					; size = 16
_lPointCenter$ = -16					; size = 8
_liTimes$ = -8						; size = 4
_liStep$ = -4						; size = 4
?TrackSpace@CScrollBarEx@@AAEXXZ PROC NEAR		; CScrollBarEx::TrackSpace
; _this$ = ecx

; 467  : {

  00e10	55		 push	 ebp
  00e11	8b ec		 mov	 ebp, esp
  00e13	83 ec 58	 sub	 esp, 88			; 00000058H
  00e16	89 4d a8	 mov	 DWORD PTR _this$[ebp], ecx

; 468  : 	CPoint lPointCursor;

  00e19	8d 4d d4	 lea	 ecx, DWORD PTR _lPointCursor$[ebp]
  00e1c	e8 00 00 00 00	 call	 ??0CPoint@@QAE@XZ	; CPoint::CPoint

; 469  : 	GetCursorPos(&lPointCursor);

  00e21	8d 45 d4	 lea	 eax, DWORD PTR _lPointCursor$[ebp]
  00e24	50		 push	 eax
  00e25	ff 15 00 00 00
	00		 call	 DWORD PTR __imp__GetCursorPos@4

; 470  : 	ScreenToClient(&lPointCursor);

  00e2b	8d 4d d4	 lea	 ecx, DWORD PTR _lPointCursor$[ebp]
  00e2e	51		 push	 ecx
  00e2f	8b 4d a8	 mov	 ecx, DWORD PTR _this$[ebp]
  00e32	e8 00 00 00 00	 call	 ?ScreenToClient@CWnd@@QBEXPAUtagPOINT@@@Z ; CWnd::ScreenToClient

; 471  : 
; 472  : 	RECT lrcThumb = GetRect(HT_THUMB);

  00e37	6a 68		 push	 104			; 00000068H
  00e39	8d 55 e0	 lea	 edx, DWORD PTR _lrcThumb$[ebp]
  00e3c	52		 push	 edx
  00e3d	8b 4d a8	 mov	 ecx, DWORD PTR _this$[ebp]
  00e40	e8 00 00 00 00	 call	 ?GetRect@CScrollBarEx@@AAE?AUtagRECT@@I@Z ; CScrollBarEx::GetRect

; 473  : 	CPoint lPointCenter;

  00e45	8d 4d f0	 lea	 ecx, DWORD PTR _lPointCenter$[ebp]
  00e48	e8 00 00 00 00	 call	 ??0CPoint@@QAE@XZ	; CPoint::CPoint

; 474  : 
; 475  : 	int liMaxTimes = mScrollInfo.nPage;

  00e4d	8b 45 a8	 mov	 eax, DWORD PTR _this$[ebp]
  00e50	8b 48 74	 mov	 ecx, DWORD PTR [eax+116]
  00e53	89 4d dc	 mov	 DWORD PTR _liMaxTimes$[ebp], ecx

; 476  : 	int liTimes = 0;

  00e56	c7 45 f8 00 00
	00 00		 mov	 DWORD PTR _liTimes$[ebp], 0

; 477  : 	int liStep = 1;

  00e5d	c7 45 fc 01 00
	00 00		 mov	 DWORD PTR _liStep$[ebp], 1

; 478  : 	if (mScrollOrientation == esoVertical)

  00e64	8b 55 a8	 mov	 edx, DWORD PTR _this$[ebp]
  00e67	83 ba 80 00 00
	00 01		 cmp	 DWORD PTR [edx+128], 1
  00e6e	0f 85 82 00 00
	00		 jne	 $L198111

; 479  : 	{
; 480  : 		lrcThumb = GetRect(HT_THUMB);

  00e74	6a 68		 push	 104			; 00000068H
  00e76	8d 45 bc	 lea	 eax, DWORD PTR $T199331[ebp]
  00e79	50		 push	 eax
  00e7a	8b 4d a8	 mov	 ecx, DWORD PTR _this$[ebp]
  00e7d	e8 00 00 00 00	 call	 ?GetRect@CScrollBarEx@@AAE?AUtagRECT@@I@Z ; CScrollBarEx::GetRect
  00e82	8b 08		 mov	 ecx, DWORD PTR [eax]
  00e84	89 4d e0	 mov	 DWORD PTR _lrcThumb$[ebp], ecx
  00e87	8b 50 04	 mov	 edx, DWORD PTR [eax+4]
  00e8a	89 55 e4	 mov	 DWORD PTR _lrcThumb$[ebp+4], edx
  00e8d	8b 48 08	 mov	 ecx, DWORD PTR [eax+8]
  00e90	89 4d e8	 mov	 DWORD PTR _lrcThumb$[ebp+8], ecx
  00e93	8b 50 0c	 mov	 edx, DWORD PTR [eax+12]
  00e96	89 55 ec	 mov	 DWORD PTR _lrcThumb$[ebp+12], edx

; 481  : 		lPointCenter.x = lrcThumb.left + (lrcThumb.right - lrcThumb.left) / 2;

  00e99	8b 45 e8	 mov	 eax, DWORD PTR _lrcThumb$[ebp+8]
  00e9c	2b 45 e0	 sub	 eax, DWORD PTR _lrcThumb$[ebp]
  00e9f	99		 cdq
  00ea0	2b c2		 sub	 eax, edx
  00ea2	d1 f8		 sar	 eax, 1
  00ea4	03 45 e0	 add	 eax, DWORD PTR _lrcThumb$[ebp]
  00ea7	89 45 f0	 mov	 DWORD PTR _lPointCenter$[ebp], eax

; 482  : 		lPointCenter.y = lrcThumb.top + (lrcThumb.bottom - lrcThumb.top) / 2;

  00eaa	8b 45 ec	 mov	 eax, DWORD PTR _lrcThumb$[ebp+12]
  00ead	2b 45 e4	 sub	 eax, DWORD PTR _lrcThumb$[ebp+4]
  00eb0	99		 cdq
  00eb1	2b c2		 sub	 eax, edx
  00eb3	d1 f8		 sar	 eax, 1
  00eb5	03 45 e4	 add	 eax, DWORD PTR _lrcThumb$[ebp+4]
  00eb8	89 45 f4	 mov	 DWORD PTR _lPointCenter$[ebp+4], eax

; 483  : 
; 484  : 		BOOL bDirDown = lPointCursor.y > lPointCenter.y;

  00ebb	8b 45 d8	 mov	 eax, DWORD PTR _lPointCursor$[ebp+4]
  00ebe	33 c9		 xor	 ecx, ecx
  00ec0	3b 45 f4	 cmp	 eax, DWORD PTR _lPointCenter$[ebp+4]
  00ec3	0f 9f c1	 setg	 cl
  00ec6	89 4d d0	 mov	 DWORD PTR _bDirDown$198113[ebp], ecx

; 485  : 		NotifyControlWnd(WM_VSCROLL, (int)MAKEWPARAM(bDirDown?SB_PAGEDOWN:SB_PAGEUP, 0));

  00ec9	33 d2		 xor	 edx, edx
  00ecb	83 7d d0 00	 cmp	 DWORD PTR _bDirDown$198113[ebp], 0
  00ecf	0f 95 c2	 setne	 dl
  00ed2	83 c2 02	 add	 edx, 2
  00ed5	81 e2 ff ff 00
	00		 and	 edx, 65535		; 0000ffffH
  00edb	0f b7 c2	 movzx	 eax, dx
  00ede	50		 push	 eax
  00edf	68 15 01 00 00	 push	 277			; 00000115H
  00ee4	8b 4d a8	 mov	 ecx, DWORD PTR _this$[ebp]
  00ee7	e8 00 00 00 00	 call	 ?NotifyControlWnd@CScrollBarEx@@AAEXIH@Z ; CScrollBarEx::NotifyControlWnd

; 486  : 		UpdateScrollBar();

  00eec	8b 4d a8	 mov	 ecx, DWORD PTR _this$[ebp]
  00eef	e8 00 00 00 00	 call	 ?UpdateScrollBar@CScrollBarEx@@QAEXXZ ; CScrollBarEx::UpdateScrollBar

; 487  : 	}
; 488  : 	else//移动下面的滑块

  00ef4	eb 7f		 jmp	 SHORT $L198103
$L198111:

; 489  : 	{
; 490  : 
; 491  : 		lrcThumb = GetRect(HT_THUMB);

  00ef6	6a 68		 push	 104			; 00000068H
  00ef8	8d 4d ac	 lea	 ecx, DWORD PTR $T199332[ebp]
  00efb	51		 push	 ecx
  00efc	8b 4d a8	 mov	 ecx, DWORD PTR _this$[ebp]
  00eff	e8 00 00 00 00	 call	 ?GetRect@CScrollBarEx@@AAE?AUtagRECT@@I@Z ; CScrollBarEx::GetRect
  00f04	8b 10		 mov	 edx, DWORD PTR [eax]
  00f06	89 55 e0	 mov	 DWORD PTR _lrcThumb$[ebp], edx
  00f09	8b 48 04	 mov	 ecx, DWORD PTR [eax+4]
  00f0c	89 4d e4	 mov	 DWORD PTR _lrcThumb$[ebp+4], ecx
  00f0f	8b 50 08	 mov	 edx, DWORD PTR [eax+8]
  00f12	89 55 e8	 mov	 DWORD PTR _lrcThumb$[ebp+8], edx
  00f15	8b 40 0c	 mov	 eax, DWORD PTR [eax+12]
  00f18	89 45 ec	 mov	 DWORD PTR _lrcThumb$[ebp+12], eax

; 492  : 		lPointCenter.x = lrcThumb.left + (lrcThumb.right - lrcThumb.left) / 2;

  00f1b	8b 45 e8	 mov	 eax, DWORD PTR _lrcThumb$[ebp+8]
  00f1e	2b 45 e0	 sub	 eax, DWORD PTR _lrcThumb$[ebp]
  00f21	99		 cdq
  00f22	2b c2		 sub	 eax, edx
  00f24	d1 f8		 sar	 eax, 1
  00f26	03 45 e0	 add	 eax, DWORD PTR _lrcThumb$[ebp]
  00f29	89 45 f0	 mov	 DWORD PTR _lPointCenter$[ebp], eax

; 493  : 		lPointCenter.y = lrcThumb.top + (lrcThumb.bottom - lrcThumb.top) / 2;

  00f2c	8b 45 ec	 mov	 eax, DWORD PTR _lrcThumb$[ebp+12]
  00f2f	2b 45 e4	 sub	 eax, DWORD PTR _lrcThumb$[ebp+4]
  00f32	99		 cdq
  00f33	2b c2		 sub	 eax, edx
  00f35	d1 f8		 sar	 eax, 1
  00f37	03 45 e4	 add	 eax, DWORD PTR _lrcThumb$[ebp+4]
  00f3a	89 45 f4	 mov	 DWORD PTR _lPointCenter$[ebp+4], eax

; 494  : 
; 495  : 		BOOL bDirDown = lPointCursor.x > lPointCenter.x;

  00f3d	8b 4d d4	 mov	 ecx, DWORD PTR _lPointCursor$[ebp]
  00f40	33 d2		 xor	 edx, edx
  00f42	3b 4d f0	 cmp	 ecx, DWORD PTR _lPointCenter$[ebp]
  00f45	0f 9f c2	 setg	 dl
  00f48	89 55 cc	 mov	 DWORD PTR _bDirDown$198125[ebp], edx

; 496  : 		//
; 497  : 		NotifyControlWnd(WM_HSCROLL, (int)MAKEWPARAM(bDirDown?SB_PAGEDOWN:SB_PAGEUP, 0));

  00f4b	33 c0		 xor	 eax, eax
  00f4d	83 7d cc 00	 cmp	 DWORD PTR _bDirDown$198125[ebp], 0
  00f51	0f 95 c0	 setne	 al
  00f54	83 c0 02	 add	 eax, 2
  00f57	25 ff ff 00 00	 and	 eax, 65535		; 0000ffffH
  00f5c	0f b7 c8	 movzx	 ecx, ax
  00f5f	51		 push	 ecx
  00f60	68 14 01 00 00	 push	 276			; 00000114H
  00f65	8b 4d a8	 mov	 ecx, DWORD PTR _this$[ebp]
  00f68	e8 00 00 00 00	 call	 ?NotifyControlWnd@CScrollBarEx@@AAEXIH@Z ; CScrollBarEx::NotifyControlWnd

; 498  : 		UpdateScrollBar();

  00f6d	8b 4d a8	 mov	 ecx, DWORD PTR _this$[ebp]
  00f70	e8 00 00 00 00	 call	 ?UpdateScrollBar@CScrollBarEx@@QAEXXZ ; CScrollBarEx::UpdateScrollBar
$L198103:

; 499  : 	}
; 500  : }

  00f75	8b e5		 mov	 esp, ebp
  00f77	5d		 pop	 ebp
  00f78	c3		 ret	 0
?TrackSpace@CScrollBarEx@@AAEXXZ ENDP			; CScrollBarEx::TrackSpace
; Function compile flags: /Odt
_this$ = -52						; size = 4
_liValue$198189 = -48					; size = 4
_liHitTest$198187 = -44					; size = 4
_lPointCursor$198161 = -40				; size = 8
_lrcThumb$198163 = -32					; size = 16
_lPointCenter$198162 = -16				; size = 8
_bDirDown$198165 = -8					; size = 4
_liHitTest$198140 = -4					; size = 4
_aiIDEvent$ = 8						; size = 4
?OnTimer@CScrollBarEx@@IAEXI@Z PROC NEAR		; CScrollBarEx::OnTimer
; _this$ = ecx

; 503  : {

  00f80	55		 push	 ebp
  00f81	8b ec		 mov	 ebp, esp
  00f83	83 ec 34	 sub	 esp, 52			; 00000034H
  00f86	89 4d cc	 mov	 DWORD PTR _this$[ebp], ecx

; 504  : 	if (aiIDEvent == 102)

  00f89	83 7d 08 66	 cmp	 DWORD PTR _aiIDEvent$[ebp], 102 ; 00000066H
  00f8d	0f 85 d2 00 00
	00		 jne	 $L198139

; 505  : 	{
; 506  : 		UINT liHitTest = HitTest();

  00f93	8b 4d cc	 mov	 ecx, DWORD PTR _this$[ebp]
  00f96	e8 00 00 00 00	 call	 ?HitTest@CScrollBarEx@@AAEIXZ ; CScrollBarEx::HitTest
  00f9b	89 45 fc	 mov	 DWORD PTR _liHitTest$198140[ebp], eax

; 507  : 		if (miLButtonDownHitTest == liHitTest)

  00f9e	8b 45 cc	 mov	 eax, DWORD PTR _this$[ebp]
  00fa1	8b 88 a4 00 00
	00		 mov	 ecx, DWORD PTR [eax+164]
  00fa7	3b 4d fc	 cmp	 ecx, DWORD PTR _liHitTest$198140[ebp]
  00faa	0f 85 b5 00 00
	00		 jne	 $L198139

; 508  : 		{
; 509  : 			if(liHitTest == HT_DOWNARROW)

  00fb0	83 7d fc 65	 cmp	 DWORD PTR _liHitTest$198140[ebp], 101 ; 00000065H
  00fb4	75 0f		 jne	 SHORT $L198142

; 510  : 			{
; 511  : 				NotifyControlWnd(WM_VSCROLL, MAKEWPARAM(SB_LINEDOWN, 0));

  00fb6	6a 01		 push	 1
  00fb8	68 15 01 00 00	 push	 277			; 00000115H
  00fbd	8b 4d cc	 mov	 ecx, DWORD PTR _this$[ebp]
  00fc0	e8 00 00 00 00	 call	 ?NotifyControlWnd@CScrollBarEx@@AAEXIH@Z ; CScrollBarEx::NotifyControlWnd
$L198142:

; 512  : 			}
; 513  : 			if (liHitTest == HT_UPARROW)

  00fc5	83 7d fc 64	 cmp	 DWORD PTR _liHitTest$198140[ebp], 100 ; 00000064H
  00fc9	75 0f		 jne	 SHORT $L198151

; 514  : 			{
; 515  : 				NotifyControlWnd(WM_VSCROLL, MAKEWPARAM(SB_LINEUP, 0));

  00fcb	6a 00		 push	 0
  00fcd	68 15 01 00 00	 push	 277			; 00000115H
  00fd2	8b 4d cc	 mov	 ecx, DWORD PTR _this$[ebp]
  00fd5	e8 00 00 00 00	 call	 ?NotifyControlWnd@CScrollBarEx@@AAEXIH@Z ; CScrollBarEx::NotifyControlWnd
$L198151:

; 516  : 			}
; 517  : 			if(liHitTest == HT_THUMB_SPACE)

  00fda	83 7d fc 69	 cmp	 DWORD PTR _liHitTest$198140[ebp], 105 ; 00000069H
  00fde	0f 85 81 00 00
	00		 jne	 $L198139

; 518  : 			{
; 519  : 				CPoint lPointCursor;

  00fe4	8d 4d d8	 lea	 ecx, DWORD PTR _lPointCursor$198161[ebp]
  00fe7	e8 00 00 00 00	 call	 ??0CPoint@@QAE@XZ	; CPoint::CPoint

; 520  : 				CPoint lPointCenter;

  00fec	8d 4d f0	 lea	 ecx, DWORD PTR _lPointCenter$198162[ebp]
  00fef	e8 00 00 00 00	 call	 ??0CPoint@@QAE@XZ	; CPoint::CPoint

; 521  : 
; 522  : 				GetCursorPos(&lPointCursor);

  00ff4	8d 55 d8	 lea	 edx, DWORD PTR _lPointCursor$198161[ebp]
  00ff7	52		 push	 edx
  00ff8	ff 15 00 00 00
	00		 call	 DWORD PTR __imp__GetCursorPos@4

; 523  : 				ScreenToClient(&lPointCursor);

  00ffe	8d 45 d8	 lea	 eax, DWORD PTR _lPointCursor$198161[ebp]
  01001	50		 push	 eax
  01002	8b 4d cc	 mov	 ecx, DWORD PTR _this$[ebp]
  01005	e8 00 00 00 00	 call	 ?ScreenToClient@CWnd@@QBEXPAUtagPOINT@@@Z ; CWnd::ScreenToClient

; 524  : 
; 525  : 				RECT lrcThumb = GetRect(HT_THUMB);

  0100a	6a 68		 push	 104			; 00000068H
  0100c	8d 4d e0	 lea	 ecx, DWORD PTR _lrcThumb$198163[ebp]
  0100f	51		 push	 ecx
  01010	8b 4d cc	 mov	 ecx, DWORD PTR _this$[ebp]
  01013	e8 00 00 00 00	 call	 ?GetRect@CScrollBarEx@@AAE?AUtagRECT@@I@Z ; CScrollBarEx::GetRect

; 526  : 				lPointCenter.y = lrcThumb.top +  (lrcThumb.bottom - lrcThumb.top) / 2;

  01018	8b 45 ec	 mov	 eax, DWORD PTR _lrcThumb$198163[ebp+12]
  0101b	2b 45 e4	 sub	 eax, DWORD PTR _lrcThumb$198163[ebp+4]
  0101e	99		 cdq
  0101f	2b c2		 sub	 eax, edx
  01021	d1 f8		 sar	 eax, 1
  01023	03 45 e4	 add	 eax, DWORD PTR _lrcThumb$198163[ebp+4]
  01026	89 45 f4	 mov	 DWORD PTR _lPointCenter$198162[ebp+4], eax

; 527  : 
; 528  : 				BOOL bDirDown = lPointCursor.y > lPointCenter.y;

  01029	8b 55 dc	 mov	 edx, DWORD PTR _lPointCursor$198161[ebp+4]
  0102c	33 c0		 xor	 eax, eax
  0102e	3b 55 f4	 cmp	 edx, DWORD PTR _lPointCenter$198162[ebp+4]
  01031	0f 9f c0	 setg	 al
  01034	89 45 f8	 mov	 DWORD PTR _bDirDown$198165[ebp], eax

; 529  : 				if(lPointCursor.y > lPointCenter.y)

  01037	8b 4d dc	 mov	 ecx, DWORD PTR _lPointCursor$198161[ebp+4]
  0103a	3b 4d f4	 cmp	 ecx, DWORD PTR _lPointCenter$198162[ebp+4]
  0103d	7e 0f		 jle	 SHORT $L198166

; 530  : 				{
; 531  : 					NotifyControlWnd(WM_VSCROLL, (int)MAKEWPARAM(SB_PAGEDOWN, 0));

  0103f	6a 03		 push	 3
  01041	68 15 01 00 00	 push	 277			; 00000115H
  01046	8b 4d cc	 mov	 ecx, DWORD PTR _this$[ebp]
  01049	e8 00 00 00 00	 call	 ?NotifyControlWnd@CScrollBarEx@@AAEXIH@Z ; CScrollBarEx::NotifyControlWnd
$L198166:

; 532  : 				}
; 533  : 				if (lPointCursor.y < lPointCenter.y)

  0104e	8b 55 dc	 mov	 edx, DWORD PTR _lPointCursor$198161[ebp+4]
  01051	3b 55 f4	 cmp	 edx, DWORD PTR _lPointCenter$198162[ebp+4]
  01054	7d 0f		 jge	 SHORT $L198139

; 534  : 				{
; 535  : 					NotifyControlWnd(WM_VSCROLL, (int)MAKEWPARAM(SB_PAGEUP, 0));

  01056	6a 02		 push	 2
  01058	68 15 01 00 00	 push	 277			; 00000115H
  0105d	8b 4d cc	 mov	 ecx, DWORD PTR _this$[ebp]
  01060	e8 00 00 00 00	 call	 ?NotifyControlWnd@CScrollBarEx@@AAEXIH@Z ; CScrollBarEx::NotifyControlWnd
$L198139:

; 536  : 				}
; 537  : 			}
; 538  : 		}
; 539  : 		
; 540  : 	}
; 541  : 	if (aiIDEvent == 101)

  01065	83 7d 08 65	 cmp	 DWORD PTR _aiIDEvent$[ebp], 101 ; 00000065H
  01069	0f 85 f8 00 00
	00		 jne	 $L198138

; 542  : 	{
; 543  : 		UINT liHitTest = HitTest();

  0106f	8b 4d cc	 mov	 ecx, DWORD PTR _this$[ebp]
  01072	e8 00 00 00 00	 call	 ?HitTest@CScrollBarEx@@AAEIXZ ; CScrollBarEx::HitTest
  01077	89 45 d4	 mov	 DWORD PTR _liHitTest$198187[ebp], eax

; 544  : 		if (miLButtonDownHitTest == liHitTest)

  0107a	8b 45 cc	 mov	 eax, DWORD PTR _this$[ebp]
  0107d	8b 88 a4 00 00
	00		 mov	 ecx, DWORD PTR [eax+164]
  01083	3b 4d d4	 cmp	 ecx, DWORD PTR _liHitTest$198187[ebp]
  01086	0f 85 db 00 00
	00		 jne	 $L198138

; 545  : 		{
; 546  : 			int liValue = SB_LINEDOWN;

  0108c	c7 45 d0 01 00
	00 00		 mov	 DWORD PTR _liValue$198189[ebp], 1

; 547  : 
; 548  : 			if (mScrollOrientation == esoVertical)

  01093	8b 55 cc	 mov	 edx, DWORD PTR _this$[ebp]
  01096	83 ba 80 00 00
	00 01		 cmp	 DWORD PTR [edx+128], 1
  0109d	75 61		 jne	 SHORT $L198190

; 549  : 			{
; 550  : 				if (liHitTest == HT_UPARROW)

  0109f	83 7d d4 64	 cmp	 DWORD PTR _liHitTest$198187[ebp], 100 ; 00000064H
  010a3	75 22		 jne	 SHORT $L198191

; 551  : 				{
; 552  : 					liValue = SB_LINEUP;

  010a5	c7 45 d0 00 00
	00 00		 mov	 DWORD PTR _liValue$198189[ebp], 0

; 553  : 					NotifyControlWnd(WM_VSCROLL, (int)MAKEWPARAM(liValue, 0));

  010ac	8b 45 d0	 mov	 eax, DWORD PTR _liValue$198189[ebp]
  010af	25 ff ff 00 00	 and	 eax, 65535		; 0000ffffH
  010b4	0f b7 c8	 movzx	 ecx, ax
  010b7	51		 push	 ecx
  010b8	68 15 01 00 00	 push	 277			; 00000115H
  010bd	8b 4d cc	 mov	 ecx, DWORD PTR _this$[ebp]
  010c0	e8 00 00 00 00	 call	 ?NotifyControlWnd@CScrollBarEx@@AAEXIH@Z ; CScrollBarEx::NotifyControlWnd

; 554  : 				}
; 555  : 				else if(liHitTest == HT_DOWNARROW)

  010c5	eb 37		 jmp	 SHORT $L198201
$L198191:
  010c7	83 7d d4 65	 cmp	 DWORD PTR _liHitTest$198187[ebp], 101 ; 00000065H
  010cb	75 23		 jne	 SHORT $L198202

; 556  : 				{
; 557  : 					liValue = SB_LINEDOWN;

  010cd	c7 45 d0 01 00
	00 00		 mov	 DWORD PTR _liValue$198189[ebp], 1

; 558  : 					NotifyControlWnd(WM_VSCROLL, (int)MAKEWPARAM(liValue, 0));

  010d4	8b 55 d0	 mov	 edx, DWORD PTR _liValue$198189[ebp]
  010d7	81 e2 ff ff 00
	00		 and	 edx, 65535		; 0000ffffH
  010dd	0f b7 c2	 movzx	 eax, dx
  010e0	50		 push	 eax
  010e1	68 15 01 00 00	 push	 277			; 00000115H
  010e6	8b 4d cc	 mov	 ecx, DWORD PTR _this$[ebp]
  010e9	e8 00 00 00 00	 call	 ?NotifyControlWnd@CScrollBarEx@@AAEXIH@Z ; CScrollBarEx::NotifyControlWnd

; 559  : 				}
; 560  : 				else if(liHitTest == HT_THUMB_SPACE)

  010ee	eb 0e		 jmp	 SHORT $L198201
$L198202:
  010f0	83 7d d4 69	 cmp	 DWORD PTR _liHitTest$198187[ebp], 105 ; 00000069H
  010f4	75 08		 jne	 SHORT $L198201

; 561  : 				{
; 562  : 					TrackSpace();

  010f6	8b 4d cc	 mov	 ecx, DWORD PTR _this$[ebp]
  010f9	e8 00 00 00 00	 call	 ?TrackSpace@CScrollBarEx@@AAEXXZ ; CScrollBarEx::TrackSpace
$L198201:

; 563  : 				}
; 564  : 			}
; 565  : 			else

  010fe	eb 5f		 jmp	 SHORT $L198214
$L198190:

; 566  : 			{
; 567  : 				if (liHitTest == HT_LEFTARROW)

  01100	83 7d d4 66	 cmp	 DWORD PTR _liHitTest$198187[ebp], 102 ; 00000066H
  01104	75 23		 jne	 SHORT $L198215

; 568  : 				{
; 569  : 					liValue = SB_LINEUP;

  01106	c7 45 d0 00 00
	00 00		 mov	 DWORD PTR _liValue$198189[ebp], 0

; 570  : 					NotifyControlWnd(WM_HSCROLL, (int)MAKEWPARAM(liValue, 0));

  0110d	8b 4d d0	 mov	 ecx, DWORD PTR _liValue$198189[ebp]
  01110	81 e1 ff ff 00
	00		 and	 ecx, 65535		; 0000ffffH
  01116	0f b7 d1	 movzx	 edx, cx
  01119	52		 push	 edx
  0111a	68 14 01 00 00	 push	 276			; 00000114H
  0111f	8b 4d cc	 mov	 ecx, DWORD PTR _this$[ebp]
  01122	e8 00 00 00 00	 call	 ?NotifyControlWnd@CScrollBarEx@@AAEXIH@Z ; CScrollBarEx::NotifyControlWnd

; 571  : 				}
; 572  : 				else if(liHitTest == HT_RIGHTARROW)

  01127	eb 36		 jmp	 SHORT $L198214
$L198215:
  01129	83 7d d4 67	 cmp	 DWORD PTR _liHitTest$198187[ebp], 103 ; 00000067H
  0112d	75 22		 jne	 SHORT $L198226

; 573  : 				{
; 574  : 					liValue = SB_LINEDOWN;

  0112f	c7 45 d0 01 00
	00 00		 mov	 DWORD PTR _liValue$198189[ebp], 1

; 575  : 					NotifyControlWnd(WM_HSCROLL, (int)MAKEWPARAM(liValue, 0));

  01136	8b 45 d0	 mov	 eax, DWORD PTR _liValue$198189[ebp]
  01139	25 ff ff 00 00	 and	 eax, 65535		; 0000ffffH
  0113e	0f b7 c8	 movzx	 ecx, ax
  01141	51		 push	 ecx
  01142	68 14 01 00 00	 push	 276			; 00000114H
  01147	8b 4d cc	 mov	 ecx, DWORD PTR _this$[ebp]
  0114a	e8 00 00 00 00	 call	 ?NotifyControlWnd@CScrollBarEx@@AAEXIH@Z ; CScrollBarEx::NotifyControlWnd

; 576  : 				}
; 577  : 				else if(liHitTest == HT_THUMB_SPACE)

  0114f	eb 0e		 jmp	 SHORT $L198214
$L198226:
  01151	83 7d d4 69	 cmp	 DWORD PTR _liHitTest$198187[ebp], 105 ; 00000069H
  01155	75 08		 jne	 SHORT $L198214

; 578  : 				{
; 579  : 					TrackSpace();

  01157	8b 4d cc	 mov	 ecx, DWORD PTR _this$[ebp]
  0115a	e8 00 00 00 00	 call	 ?TrackSpace@CScrollBarEx@@AAEXXZ ; CScrollBarEx::TrackSpace
$L198214:

; 580  : 				}
; 581  : 			}
; 582  : 			UpdateScrollBar();

  0115f	8b 4d cc	 mov	 ecx, DWORD PTR _this$[ebp]
  01162	e8 00 00 00 00	 call	 ?UpdateScrollBar@CScrollBarEx@@QAEXXZ ; CScrollBarEx::UpdateScrollBar
$L198138:

; 583  : 		}
; 584  : 	}
; 585  : }

  01167	8b e5		 mov	 esp, ebp
  01169	5d		 pop	 ebp
  0116a	c2 04 00	 ret	 4
?OnTimer@CScrollBarEx@@IAEXI@Z ENDP			; CScrollBarEx::OnTimer
_TEXT	ENDS
PUBLIC	?InterlockedExchangePointer@@YGPAXPAPAXPAX@Z	; InterlockedExchangePointer
PUBLIC	?_AtlGetThreadACPFake@ATL@@YGIXZ		; ATL::_AtlGetThreadACPFake
PUBLIC	?_AtlGetThreadACPReal@ATL@@YGIXZ		; ATL::_AtlGetThreadACPReal
EXTRN	__imp__GetVersionExA@4:NEAR
; Function compile flags: /Odt
; File d:\program files (x86)\microsoft visual studio .net 2003\vc7\atlmfc\include\atlconv.h
;	COMDAT ?_AtlGetThreadACPThunk@ATL@@YGIXZ
_TEXT	SEGMENT
_pfnGetThreadACP$ = -164				; size = 4
_ver$ = -160						; size = 148
__$ArrayPad$ = -4					; size = 4
__$ReturnAddr$ = 4					; size = 4
?_AtlGetThreadACPThunk@ATL@@YGIXZ PROC NEAR		; ATL::_AtlGetThreadACPThunk, COMDAT

; 134  : {

  00000	55		 push	 ebp
  00001	8b ec		 mov	 ebp, esp
  00003	81 ec a4 00 00
	00		 sub	 esp, 164		; 000000a4H
  00009	a1 00 00 00 00	 mov	 eax, DWORD PTR ___security_cookie
  0000e	89 45 fc	 mov	 DWORD PTR __$ArrayPad$[ebp], eax

; 135  : 	OSVERSIONINFO ver;
; 136  : 	ATLGETTHREADACP pfnGetThreadACP;
; 137  : 
; 138  : 	ver.dwOSVersionInfoSize = sizeof( ver );

  00011	c7 85 60 ff ff
	ff 94 00 00 00	 mov	 DWORD PTR _ver$[ebp], 148 ; 00000094H

; 139  : 	::GetVersionEx( &ver );

  0001b	8d 85 60 ff ff
	ff		 lea	 eax, DWORD PTR _ver$[ebp]
  00021	50		 push	 eax
  00022	ff 15 00 00 00
	00		 call	 DWORD PTR __imp__GetVersionExA@4

; 140  : 	if( (ver.dwPlatformId == VER_PLATFORM_WIN32_NT) && (ver.dwMajorVersion >= 5) )

  00028	83 bd 70 ff ff
	ff 02		 cmp	 DWORD PTR _ver$[ebp+16], 2
  0002f	75 15		 jne	 SHORT $L24173
  00031	83 bd 64 ff ff
	ff 05		 cmp	 DWORD PTR _ver$[ebp+4], 5
  00038	72 0c		 jb	 SHORT $L24173

; 141  : 	{
; 142  : 		// On Win2K, CP_THREAD_ACP is supported
; 143  : 		pfnGetThreadACP = _AtlGetThreadACPReal;

  0003a	c7 85 5c ff ff
	ff 00 00 00 00	 mov	 DWORD PTR _pfnGetThreadACP$[ebp], OFFSET FLAT:?_AtlGetThreadACPReal@ATL@@YGIXZ ; ATL::_AtlGetThreadACPReal

; 144  : 	}
; 145  : 	else

  00044	eb 0a		 jmp	 SHORT $L24174
$L24173:

; 146  : 	{
; 147  : 		pfnGetThreadACP = _AtlGetThreadACPFake;

  00046	c7 85 5c ff ff
	ff 00 00 00 00	 mov	 DWORD PTR _pfnGetThreadACP$[ebp], OFFSET FLAT:?_AtlGetThreadACPFake@ATL@@YGIXZ ; ATL::_AtlGetThreadACPFake
$L24174:

; 148  : 	}
; 149  : 	InterlockedExchangePointer( reinterpret_cast< void** >(&g_pfnGetThreadACP), pfnGetThreadACP );

  00050	8b 8d 5c ff ff
	ff		 mov	 ecx, DWORD PTR _pfnGetThreadACP$[ebp]
  00056	51		 push	 ecx
  00057	68 00 00 00 00	 push	 OFFSET FLAT:?g_pfnGetThreadACP@ATL@@3P6GIXZA ; ATL::g_pfnGetThreadACP
  0005c	e8 00 00 00 00	 call	 ?InterlockedExchangePointer@@YGPAXPAPAXPAX@Z ; InterlockedExchangePointer

; 150  : 
; 151  : 	return( g_pfnGetThreadACP() );

  00061	ff 15 00 00 00
	00		 call	 DWORD PTR ?g_pfnGetThreadACP@ATL@@3P6GIXZA ; ATL::g_pfnGetThreadACP

; 152  : }

  00067	8b 4d fc	 mov	 ecx, DWORD PTR __$ArrayPad$[ebp]
  0006a	e8 00 00 00 00	 call	 @__security_check_cookie@4
  0006f	8b e5		 mov	 esp, ebp
  00071	5d		 pop	 ebp
  00072	c3		 ret	 0
?_AtlGetThreadACPThunk@ATL@@YGIXZ ENDP			; ATL::_AtlGetThreadACPThunk
_TEXT	ENDS
EXTRN	__imp__InterlockedExchange@8:NEAR
; Function compile flags: /Odt
;	COMDAT ?InterlockedExchangePointer@@YGPAXPAPAXPAX@Z
_TEXT	SEGMENT
_pp$ = 8						; size = 4
_pNew$ = 12						; size = 4
?InterlockedExchangePointer@@YGPAXPAPAXPAX@Z PROC NEAR	; InterlockedExchangePointer, COMDAT

; 91   : {

  00000	55		 push	 ebp
  00001	8b ec		 mov	 ebp, esp

; 92   : 	return( reinterpret_cast<void*>(static_cast<LONG_PTR>(::InterlockedExchange(reinterpret_cast<LONG*>(pp), static_cast<LONG>(reinterpret_cast<LONG_PTR>(pNew))))) );

  00003	8b 45 0c	 mov	 eax, DWORD PTR _pNew$[ebp]
  00006	50		 push	 eax
  00007	8b 4d 08	 mov	 ecx, DWORD PTR _pp$[ebp]
  0000a	51		 push	 ecx
  0000b	ff 15 00 00 00
	00		 call	 DWORD PTR __imp__InterlockedExchange@8

; 93   : }

  00011	5d		 pop	 ebp
  00012	c2 08 00	 ret	 8
?InterlockedExchangePointer@@YGPAXPAPAXPAX@Z ENDP	; InterlockedExchangePointer
_TEXT	ENDS
EXTRN	__imp__GetACP@0:NEAR
EXTRN	__imp__GetLocaleInfoA@16:NEAR
EXTRN	__imp__GetThreadLocale@0:NEAR
; Function compile flags: /Odt
;	COMDAT ?_AtlGetThreadACPFake@ATL@@YGIXZ
_TEXT	SEGMENT
_pch$24161 = -24					; size = 4
_lcidThread$ = -20					; size = 4
_szACP$ = -16						; size = 7
__$ArrayPad$ = -8					; size = 4
_nACP$ = -4						; size = 4
__$ReturnAddr$ = 4					; size = 4
?_AtlGetThreadACPFake@ATL@@YGIXZ PROC NEAR		; ATL::_AtlGetThreadACPFake, COMDAT

; 101  : {

  00000	55		 push	 ebp
  00001	8b ec		 mov	 ebp, esp
  00003	83 ec 18	 sub	 esp, 24			; 00000018H
  00006	a1 00 00 00 00	 mov	 eax, DWORD PTR ___security_cookie
  0000b	89 45 f8	 mov	 DWORD PTR __$ArrayPad$[ebp], eax

; 102  : 	UINT nACP = 0;

  0000e	c7 45 fc 00 00
	00 00		 mov	 DWORD PTR _nACP$[ebp], 0

; 103  : 
; 104  : 	LCID lcidThread = ::GetThreadLocale();

  00015	ff 15 00 00 00
	00		 call	 DWORD PTR __imp__GetThreadLocale@0
  0001b	89 45 ec	 mov	 DWORD PTR _lcidThread$[ebp], eax

; 105  : 
; 106  : 	char szACP[7];
; 107  : 	// GetLocaleInfoA will fail for a Unicode-only LCID, but those are only supported on 
; 108  : 	// Windows 2000.  Since Windows 2000 supports CP_THREAD_ACP, this code path is never
; 109  : 	// executed on Windows 2000.
; 110  : 	if (::GetLocaleInfoA(lcidThread, LOCALE_IDEFAULTANSICODEPAGE, szACP, 7) != 0)

  0001e	6a 07		 push	 7
  00020	8d 45 f0	 lea	 eax, DWORD PTR _szACP$[ebp]
  00023	50		 push	 eax
  00024	68 04 10 00 00	 push	 4100			; 00001004H
  00029	8b 4d ec	 mov	 ecx, DWORD PTR _lcidThread$[ebp]
  0002c	51		 push	 ecx
  0002d	ff 15 00 00 00
	00		 call	 DWORD PTR __imp__GetLocaleInfoA@16
  00033	85 c0		 test	 eax, eax
  00035	74 34		 je	 SHORT $L24160

; 111  : 	{
; 112  : 		char* pch = szACP;

  00037	8d 55 f0	 lea	 edx, DWORD PTR _szACP$[ebp]
  0003a	89 55 e8	 mov	 DWORD PTR _pch$24161[ebp], edx
$L24163:

; 113  : 		while (*pch != '\0')

  0003d	8b 45 e8	 mov	 eax, DWORD PTR _pch$24161[ebp]
  00040	0f be 08	 movsx	 ecx, BYTE PTR [eax]
  00043	85 c9		 test	 ecx, ecx
  00045	74 24		 je	 SHORT $L24160

; 114  : 		{
; 115  : 			nACP *= 10;

  00047	8b 55 fc	 mov	 edx, DWORD PTR _nACP$[ebp]
  0004a	6b d2 0a	 imul	 edx, 10			; 0000000aH
  0004d	89 55 fc	 mov	 DWORD PTR _nACP$[ebp], edx

; 116  : 			nACP += *pch++ - '0';

  00050	8b 45 e8	 mov	 eax, DWORD PTR _pch$24161[ebp]
  00053	0f be 08	 movsx	 ecx, BYTE PTR [eax]
  00056	8b 55 fc	 mov	 edx, DWORD PTR _nACP$[ebp]
  00059	8d 44 0a d0	 lea	 eax, DWORD PTR [edx+ecx-48]
  0005d	89 45 fc	 mov	 DWORD PTR _nACP$[ebp], eax
  00060	8b 4d e8	 mov	 ecx, DWORD PTR _pch$24161[ebp]
  00063	83 c1 01	 add	 ecx, 1
  00066	89 4d e8	 mov	 DWORD PTR _pch$24161[ebp], ecx

; 117  : 		}

  00069	eb d2		 jmp	 SHORT $L24163
$L24160:

; 118  : 	}
; 119  : 	// Use the Default ANSI Code Page if we were unable to get the thread ACP or if one does not exist.
; 120  : 	if (nACP == 0)

  0006b	83 7d fc 00	 cmp	 DWORD PTR _nACP$[ebp], 0
  0006f	75 09		 jne	 SHORT $L24165

; 121  : 		nACP = ::GetACP();

  00071	ff 15 00 00 00
	00		 call	 DWORD PTR __imp__GetACP@0
  00077	89 45 fc	 mov	 DWORD PTR _nACP$[ebp], eax
$L24165:

; 122  : 
; 123  : 	return nACP;

  0007a	8b 45 fc	 mov	 eax, DWORD PTR _nACP$[ebp]

; 124  : }

  0007d	8b 4d f8	 mov	 ecx, DWORD PTR __$ArrayPad$[ebp]
  00080	e8 00 00 00 00	 call	 @__security_check_cookie@4
  00085	8b e5		 mov	 esp, ebp
  00087	5d		 pop	 ebp
  00088	c3		 ret	 0
?_AtlGetThreadACPFake@ATL@@YGIXZ ENDP			; ATL::_AtlGetThreadACPFake
; Function compile flags: /Odt
_TEXT	ENDS
;	COMDAT ?_AtlGetThreadACPReal@ATL@@YGIXZ
_TEXT	SEGMENT
?_AtlGetThreadACPReal@ATL@@YGIXZ PROC NEAR		; ATL::_AtlGetThreadACPReal, COMDAT

; 127  : {

  00000	55		 push	 ebp
  00001	8b ec		 mov	 ebp, esp

; 128  : 	return( CP_THREAD_ACP );

  00003	b8 03 00 00 00	 mov	 eax, 3

; 129  : }

  00008	5d		 pop	 ebp
  00009	c3		 ret	 0
?_AtlGetThreadACPReal@ATL@@YGIXZ ENDP			; ATL::_AtlGetThreadACPReal
_TEXT	ENDS
PUBLIC	?SendMessageA@CWnd@@QAEJIIJ@Z			; CWnd::SendMessageA
; Function compile flags: /Odt
; File d:\boxgit\playbox\playbox\dev\prj\playbox\src\layoutmgr\changecolor\scrollbarex.cpp
_TEXT	SEGMENT
_this$ = -4						; size = 4
_aiMsg$ = 8						; size = 4
_aiValue$ = 12						; size = 4
?NotifyControlWnd@CScrollBarEx@@AAEXIH@Z PROC NEAR	; CScrollBarEx::NotifyControlWnd
; _this$ = ecx

; 595  : {

  01170	55		 push	 ebp
  01171	8b ec		 mov	 ebp, esp
  01173	51		 push	 ecx
  01174	89 4d fc	 mov	 DWORD PTR _this$[ebp], ecx

; 596  : 	if (mpWnd)

  01177	8b 45 fc	 mov	 eax, DWORD PTR _this$[ebp]
  0117a	83 78 54 00	 cmp	 DWORD PTR [eax+84], 0
  0117e	74 15		 je	 SHORT $L198242

; 597  : 		mpWnd->SendMessage(aiMsg, aiValue, 0);

  01180	6a 00		 push	 0
  01182	8b 4d 0c	 mov	 ecx, DWORD PTR _aiValue$[ebp]
  01185	51		 push	 ecx
  01186	8b 55 08	 mov	 edx, DWORD PTR _aiMsg$[ebp]
  01189	52		 push	 edx
  0118a	8b 45 fc	 mov	 eax, DWORD PTR _this$[ebp]
  0118d	8b 48 54	 mov	 ecx, DWORD PTR [eax+84]
  01190	e8 00 00 00 00	 call	 ?SendMessageA@CWnd@@QAEJIIJ@Z ; CWnd::SendMessageA
$L198242:

; 598  : }

  01195	8b e5		 mov	 esp, ebp
  01197	5d		 pop	 ebp
  01198	c2 08 00	 ret	 8
?NotifyControlWnd@CScrollBarEx@@AAEXIH@Z ENDP		; CScrollBarEx::NotifyControlWnd
_TEXT	ENDS
PUBLIC	?SetControlWnd@CScrollBarEx@@QAEXPAVCWnd@@@Z	; CScrollBarEx::SetControlWnd
; Function compile flags: /Odt
_TEXT	SEGMENT
_this$ = -4						; size = 4
_apWnd$ = 8						; size = 4
?SetControlWnd@CScrollBarEx@@QAEXPAVCWnd@@@Z PROC NEAR	; CScrollBarEx::SetControlWnd
; _this$ = ecx

; 607  : {

  011a0	55		 push	 ebp
  011a1	8b ec		 mov	 ebp, esp
  011a3	51		 push	 ecx
  011a4	89 4d fc	 mov	 DWORD PTR _this$[ebp], ecx

; 608  : 	mpWnd = apWnd;

  011a7	8b 45 fc	 mov	 eax, DWORD PTR _this$[ebp]
  011aa	8b 4d 08	 mov	 ecx, DWORD PTR _apWnd$[ebp]
  011ad	89 48 54	 mov	 DWORD PTR [eax+84], ecx

; 609  : }

  011b0	8b e5		 mov	 esp, ebp
  011b2	5d		 pop	 ebp
  011b3	c2 04 00	 ret	 4
?SetControlWnd@CScrollBarEx@@QAEXPAVCWnd@@@Z ENDP	; CScrollBarEx::SetControlWnd
_TEXT	ENDS
PUBLIC	?GetWindowRect@CWnd@@QBEXPAUtagRECT@@@Z		; CWnd::GetWindowRect
PUBLIC	?IsWindowVisible@CWnd@@QBEHXZ			; CWnd::IsWindowVisible
PUBLIC	??0CRect@@QAE@XZ				; CRect::CRect
PUBLIC	??BCRect@@QAEPAUtagRECT@@XZ			; CRect::operator tagRECT *
PUBLIC	?GetParent@CWnd@@QBEPAV1@XZ			; CWnd::GetParent
PUBLIC	?SetPosition@CScrollBarEx@@QAEXXZ		; CScrollBarEx::SetPosition
PUBLIC	?MoveWindow@CWnd@@QAEXPBUtagRECT@@H@Z		; CWnd::MoveWindow
EXTRN	?ScreenToClient@CWnd@@QBEXPAUtagRECT@@@Z:NEAR	; CWnd::ScreenToClient
EXTRN	?ShowWindow@CWnd@@QAEHH@Z:NEAR			; CWnd::ShowWindow
EXTRN	__imp_??0?$CStringT@DV?$StrTraitMFC_DLL@DV?$ChTraitsCRT@D@ATL@@@@@ATL@@QAE@PBD@Z:NEAR
EXTRN	__imp_??1?$CStringT@DV?$StrTraitMFC_DLL@DV?$ChTraitsCRT@D@ATL@@@@@ATL@@QAE@XZ:NEAR
EXTRN	__imp_?Compare@?$CStringT@DV?$StrTraitMFC_DLL@DV?$ChTraitsCRT@D@ATL@@@@@ATL@@QBEHPBD@Z:NEAR
EXTRN	__except_list:DWORD
EXTRN	___CxxFrameHandler:NEAR
EXTRN	__imp__GetWindowLongA@8:NEAR
EXTRN	?GetStyle@CWnd@@QBEKXZ:NEAR			; CWnd::GetStyle
EXTRN	?SetWindowPos@CWnd@@QAEHPBV1@HHHHI@Z:NEAR	; CWnd::SetWindowPos
xdata$x	SEGMENT
$T199358 DD	0ffffffffH
	DD	FLAT:$L199350
$T199354 DD	019930520H
	DD	01H
	DD	FLAT:$T199358
	DD	2 DUP(00H)
	DD	2 DUP(00H)
; Function compile flags: /Odt
xdata$x	ENDS
_TEXT	SEGMENT
_this$ = -144						; size = 4
_lrcWindow$ = -140					; size = 16
_lpParent$ = -124					; size = 4
_liBorderWidth$ = -120					; size = 4
_lbHorizontal$ = -113					; size = 1
_liRightBottomSpaceSize$ = -112				; size = 4
_dwStyles$ = -108					; size = 4
_lExStyle$ = -104					; size = 4
_lrcHorizontalBar$ = -100				; size = 16
_lbVertical$ = -81					; size = 1
_liHorizontalSpaceSize$ = -80				; size = 4
_liBorderHeight$ = -76					; size = 4
_lrcVerticleBar$ = -72					; size = 16
_szBuf$ = -56						; size = 32
__$ArrayPad$ = -24					; size = 4
_lstr$ = -20						; size = 4
_liVerticleSpaceSize$ = -16				; size = 4
__$EHRec$ = -12						; size = 12
__$ReturnAddr$ = 4					; size = 4
?SetPosition@CScrollBarEx@@QAEXXZ PROC NEAR		; CScrollBarEx::SetPosition
; _this$ = ecx

; 618  : {

  011c0	55		 push	 ebp
  011c1	8b ec		 mov	 ebp, esp
  011c3	6a ff		 push	 -1
  011c5	68 00 00 00 00	 push	 __ehhandler$?SetPosition@CScrollBarEx@@QAEXXZ
  011ca	64 a1 00 00 00
	00		 mov	 eax, DWORD PTR fs:__except_list
  011d0	50		 push	 eax
  011d1	64 89 25 00 00
	00 00		 mov	 DWORD PTR fs:__except_list, esp
  011d8	81 ec 84 00 00
	00		 sub	 esp, 132		; 00000084H
  011de	a1 00 00 00 00	 mov	 eax, DWORD PTR ___security_cookie
  011e3	89 45 e8	 mov	 DWORD PTR __$ArrayPad$[ebp], eax
  011e6	89 8d 70 ff ff
	ff		 mov	 DWORD PTR _this$[ebp], ecx

; 619  : 	if (mpWnd == NULL)

  011ec	8b 85 70 ff ff
	ff		 mov	 eax, DWORD PTR _this$[ebp]
  011f2	83 78 54 00	 cmp	 DWORD PTR [eax+84], 0
  011f6	75 05		 jne	 SHORT $L198251

; 620  : 		return;

  011f8	e9 5e 03 00 00	 jmp	 $L198250
$L198251:

; 621  : 
; 622  : 	CRect lrcWindow;

  011fd	8d 8d 74 ff ff
	ff		 lea	 ecx, DWORD PTR _lrcWindow$[ebp]
  01203	e8 00 00 00 00	 call	 ??0CRect@@QAE@XZ	; CRect::CRect

; 623  : 	mpWnd->GetWindowRect(&lrcWindow);

  01208	8d 8d 74 ff ff
	ff		 lea	 ecx, DWORD PTR _lrcWindow$[ebp]
  0120e	51		 push	 ecx
  0120f	8b 95 70 ff ff
	ff		 mov	 edx, DWORD PTR _this$[ebp]
  01215	8b 4a 54	 mov	 ecx, DWORD PTR [edx+84]
  01218	e8 00 00 00 00	 call	 ?GetWindowRect@CWnd@@QBEXPAUtagRECT@@@Z ; CWnd::GetWindowRect

; 624  : 	CWnd* lpParent = NULL;

  0121d	c7 45 84 00 00
	00 00		 mov	 DWORD PTR _lpParent$[ebp], 0

; 625  : 	lpParent = GetParent();

  01224	8b 8d 70 ff ff
	ff		 mov	 ecx, DWORD PTR _this$[ebp]
  0122a	e8 00 00 00 00	 call	 ?GetParent@CWnd@@QBEPAV1@XZ ; CWnd::GetParent
  0122f	89 45 84	 mov	 DWORD PTR _lpParent$[ebp], eax

; 626  : 	if (lpParent == NULL)

  01232	83 7d 84 00	 cmp	 DWORD PTR _lpParent$[ebp], 0
  01236	75 05		 jne	 SHORT $L198254

; 627  : 		return;

  01238	e9 1e 03 00 00	 jmp	 $L198250
$L198254:

; 628  :    
; 629  : 
; 630  : 	TCHAR   szBuf[32];  
; 631  : 	GetClassName(mpWnd->m_hWnd,   szBuf,   sizeof(szBuf)/sizeof(TCHAR))  ;

  0123d	6a 20		 push	 32			; 00000020H
  0123f	8d 45 c8	 lea	 eax, DWORD PTR _szBuf$[ebp]
  01242	50		 push	 eax
  01243	8b 8d 70 ff ff
	ff		 mov	 ecx, DWORD PTR _this$[ebp]
  01249	8b 51 54	 mov	 edx, DWORD PTR [ecx+84]
  0124c	8b 42 20	 mov	 eax, DWORD PTR [edx+32]
  0124f	50		 push	 eax
  01250	ff 15 00 00 00
	00		 call	 DWORD PTR __imp__GetClassNameA@12

; 632  :     CString lstr = szBuf;

  01256	8d 4d c8	 lea	 ecx, DWORD PTR _szBuf$[ebp]
  01259	51		 push	 ecx
  0125a	8d 4d ec	 lea	 ecx, DWORD PTR _lstr$[ebp]
  0125d	ff 15 00 00 00
	00		 call	 DWORD PTR __imp_??0?$CStringT@DV?$StrTraitMFC_DLL@DV?$ChTraitsCRT@D@ATL@@@@@ATL@@QAE@PBD@Z
  01263	c7 45 fc 00 00
	00 00		 mov	 DWORD PTR __$EHRec$[ebp+8], 0

; 633  : 	if( ( 0 == lstr.Compare( "AfxFrameOrView80ud")) || (0 ==  lstr.Compare( "AfxFrameOrView70d") ) ||
; 634  : 		( 0 == lstr.Compare( "AfxFrameOrView80u")) || (0 ==  lstr.Compare( "AfxFrameOrView70") ) )

  0126a	68 00 00 00 00	 push	 OFFSET FLAT:$SG198260
  0126f	8d 4d ec	 lea	 ecx, DWORD PTR _lstr$[ebp]
  01272	ff 15 00 00 00
	00		 call	 DWORD PTR __imp_?Compare@?$CStringT@DV?$StrTraitMFC_DLL@DV?$ChTraitsCRT@D@ATL@@@@@ATL@@QBEHPBD@Z
  01278	85 c0		 test	 eax, eax
  0127a	74 36		 je	 SHORT $L198259
  0127c	68 00 00 00 00	 push	 OFFSET FLAT:$SG198261
  01281	8d 4d ec	 lea	 ecx, DWORD PTR _lstr$[ebp]
  01284	ff 15 00 00 00
	00		 call	 DWORD PTR __imp_?Compare@?$CStringT@DV?$StrTraitMFC_DLL@DV?$ChTraitsCRT@D@ATL@@@@@ATL@@QBEHPBD@Z
  0128a	85 c0		 test	 eax, eax
  0128c	74 24		 je	 SHORT $L198259
  0128e	68 00 00 00 00	 push	 OFFSET FLAT:$SG198262
  01293	8d 4d ec	 lea	 ecx, DWORD PTR _lstr$[ebp]
  01296	ff 15 00 00 00
	00		 call	 DWORD PTR __imp_?Compare@?$CStringT@DV?$StrTraitMFC_DLL@DV?$ChTraitsCRT@D@ATL@@@@@ATL@@QBEHPBD@Z
  0129c	85 c0		 test	 eax, eax
  0129e	74 12		 je	 SHORT $L198259
  012a0	68 00 00 00 00	 push	 OFFSET FLAT:$SG198263
  012a5	8d 4d ec	 lea	 ecx, DWORD PTR _lstr$[ebp]
  012a8	ff 15 00 00 00
	00		 call	 DWORD PTR __imp_?Compare@?$CStringT@DV?$StrTraitMFC_DLL@DV?$ChTraitsCRT@D@ATL@@@@@ATL@@QBEHPBD@Z
  012ae	85 c0		 test	 eax, eax
  012b0	75 29		 jne	 SHORT $L198258
$L198259:

; 635  : 	{
; 636  : 		misDlg = TRUE;

  012b2	8b 95 70 ff ff
	ff		 mov	 edx, DWORD PTR _this$[ebp]
  012b8	c7 82 e0 00 00
	00 01 00 00 00	 mov	 DWORD PTR [edx+224], 1

; 637  : 		mpWnd->ModifyStyle(NULL, WS_CLIPSIBLINGS);

  012c2	6a 00		 push	 0
  012c4	68 00 00 00 04	 push	 67108864		; 04000000H
  012c9	6a 00		 push	 0
  012cb	8b 85 70 ff ff
	ff		 mov	 eax, DWORD PTR _this$[ebp]
  012d1	8b 48 54	 mov	 ecx, DWORD PTR [eax+84]
  012d4	e8 00 00 00 00	 call	 ?ModifyStyle@CWnd@@QAEHKKI@Z ; CWnd::ModifyStyle

; 638  : 
; 639  : 	}
; 640  : 	else

  012d9	eb 17		 jmp	 SHORT $L198264
$L198258:

; 641  : 	{
; 642  : 		mpWnd->ModifyStyle(NULL, WS_CLIPCHILDREN | WS_CLIPSIBLINGS);

  012db	6a 00		 push	 0
  012dd	68 00 00 00 06	 push	 100663296		; 06000000H
  012e2	6a 00		 push	 0
  012e4	8b 8d 70 ff ff
	ff		 mov	 ecx, DWORD PTR _this$[ebp]
  012ea	8b 49 54	 mov	 ecx, DWORD PTR [ecx+84]
  012ed	e8 00 00 00 00	 call	 ?ModifyStyle@CWnd@@QAEHKKI@Z ; CWnd::ModifyStyle
$L198264:

; 643  : 	}
; 644  : 	
; 645  : 	mpWnd->SetWindowPos(this, 0, 0, 0, 0, SWP_NOSIZE | SWP_NOMOVE | SWP_NOACTIVATE);

  012f2	6a 13		 push	 19			; 00000013H
  012f4	6a 00		 push	 0
  012f6	6a 00		 push	 0
  012f8	6a 00		 push	 0
  012fa	6a 00		 push	 0
  012fc	8b 95 70 ff ff
	ff		 mov	 edx, DWORD PTR _this$[ebp]
  01302	52		 push	 edx
  01303	8b 85 70 ff ff
	ff		 mov	 eax, DWORD PTR _this$[ebp]
  01309	8b 48 54	 mov	 ecx, DWORD PTR [eax+84]
  0130c	e8 00 00 00 00	 call	 ?SetWindowPos@CWnd@@QAEHPBV1@HHHHI@Z ; CWnd::SetWindowPos

; 646  : 	
; 647  : 	//取得边框的高度和宽度
; 648  : 	LONG lExStyle = GetWindowLong(mpWnd->GetSafeHwnd(), GWL_EXSTYLE);

  01311	6a ec		 push	 -20			; ffffffecH
  01313	8b 8d 70 ff ff
	ff		 mov	 ecx, DWORD PTR _this$[ebp]
  01319	8b 49 54	 mov	 ecx, DWORD PTR [ecx+84]
  0131c	e8 00 00 00 00	 call	 ?GetSafeHwnd@CWnd@@QBEPAUHWND__@@XZ ; CWnd::GetSafeHwnd
  01321	50		 push	 eax
  01322	ff 15 00 00 00
	00		 call	 DWORD PTR __imp__GetWindowLongA@8
  01328	89 45 98	 mov	 DWORD PTR _lExStyle$[ebp], eax

; 649  : 	int liBorderHeight = 0;

  0132b	c7 45 b4 00 00
	00 00		 mov	 DWORD PTR _liBorderHeight$[ebp], 0

; 650  : 	int liBorderWidth = 0;

  01332	c7 45 88 00 00
	00 00		 mov	 DWORD PTR _liBorderWidth$[ebp], 0

; 651  : 	if (lExStyle & WS_EX_CLIENTEDGE)

  01339	8b 55 98	 mov	 edx, DWORD PTR _lExStyle$[ebp]
  0133c	81 e2 00 02 00
	00		 and	 edx, 512		; 00000200H
  01342	74 16		 je	 SHORT $L198268

; 652  : 	{
; 653  : 		liBorderHeight = GetSystemMetrics(SM_CYEDGE);

  01344	6a 2e		 push	 46			; 0000002eH
  01346	ff 15 00 00 00
	00		 call	 DWORD PTR __imp__GetSystemMetrics@4
  0134c	89 45 b4	 mov	 DWORD PTR _liBorderHeight$[ebp], eax

; 654  : 		liBorderWidth = GetSystemMetrics(SM_CXEDGE);

  0134f	6a 2d		 push	 45			; 0000002dH
  01351	ff 15 00 00 00
	00		 call	 DWORD PTR __imp__GetSystemMetrics@4
  01357	89 45 88	 mov	 DWORD PTR _liBorderWidth$[ebp], eax
$L198268:

; 655  : 	}
; 656  : 
; 657  : 	//取得绝对坐标区域
; 658  : 	lpParent->ScreenToClient(&lrcWindow);

  0135a	8d 85 74 ff ff
	ff		 lea	 eax, DWORD PTR _lrcWindow$[ebp]
  01360	50		 push	 eax
  01361	8b 4d 84	 mov	 ecx, DWORD PTR _lpParent$[ebp]
  01364	e8 00 00 00 00	 call	 ?ScreenToClient@CWnd@@QBEXPAUtagRECT@@@Z ; CWnd::ScreenToClient

; 659  : 
; 660  : 	//取得滚动条显示状态
; 661  : 	DWORD dwStyles = mpWnd->GetStyle();

  01369	8b 8d 70 ff ff
	ff		 mov	 ecx, DWORD PTR _this$[ebp]
  0136f	8b 49 54	 mov	 ecx, DWORD PTR [ecx+84]
  01372	e8 00 00 00 00	 call	 ?GetStyle@CWnd@@QBEKXZ	; CWnd::GetStyle
  01377	89 45 94	 mov	 DWORD PTR _dwStyles$[ebp], eax

; 662  : 	bool lbVertical, lbHorizontal;
; 663  : 	if (dwStyles & WS_VSCROLL)

  0137a	8b 55 94	 mov	 edx, DWORD PTR _dwStyles$[ebp]
  0137d	81 e2 00 00 20
	00		 and	 edx, 2097152		; 00200000H
  01383	74 06		 je	 SHORT $L198272

; 664  : 		lbVertical = true;

  01385	c6 45 af 01	 mov	 BYTE PTR _lbVertical$[ebp], 1

; 665  : 	else

  01389	eb 04		 jmp	 SHORT $L198273
$L198272:

; 666  : 		lbVertical = false;

  0138b	c6 45 af 00	 mov	 BYTE PTR _lbVertical$[ebp], 0
$L198273:

; 667  : 
; 668  : 	if (dwStyles & WS_HSCROLL)

  0138f	8b 45 94	 mov	 eax, DWORD PTR _dwStyles$[ebp]
  01392	25 00 00 10 00	 and	 eax, 1048576		; 00100000H
  01397	74 06		 je	 SHORT $L198274

; 669  : 		lbHorizontal = true;

  01399	c6 45 8f 01	 mov	 BYTE PTR _lbHorizontal$[ebp], 1

; 670  : 	else

  0139d	eb 04		 jmp	 SHORT $L198275
$L198274:

; 671  : 		lbHorizontal = false;

  0139f	c6 45 8f 00	 mov	 BYTE PTR _lbHorizontal$[ebp], 0
$L198275:

; 672  : 
; 673  : 	//取得滚动条空白区域大小
; 674  : 	int liVerticleSpaceSize = 0;

  013a3	c7 45 f0 00 00
	00 00		 mov	 DWORD PTR _liVerticleSpaceSize$[ebp], 0

; 675  : 	int liHorizontalSpaceSize = 0;

  013aa	c7 45 b0 00 00
	00 00		 mov	 DWORD PTR _liHorizontalSpaceSize$[ebp], 0

; 676  : 	int liRightBottomSpaceSize = 0;

  013b1	c7 45 90 00 00
	00 00		 mov	 DWORD PTR _liRightBottomSpaceSize$[ebp], 0

; 677  : 	if (lbVertical)

  013b8	0f b6 4d af	 movzx	 ecx, BYTE PTR _lbVertical$[ebp]
  013bc	85 c9		 test	 ecx, ecx
  013be	74 11		 je	 SHORT $L198279

; 678  : 		liHorizontalSpaceSize = miButtonSize;

  013c0	8b 95 70 ff ff
	ff		 mov	 edx, DWORD PTR _this$[ebp]
  013c6	8b 82 94 00 00
	00		 mov	 eax, DWORD PTR [edx+148]
  013cc	89 45 b0	 mov	 DWORD PTR _liHorizontalSpaceSize$[ebp], eax

; 679  : 	else

  013cf	eb 07		 jmp	 SHORT $L198280
$L198279:

; 680  : 		liHorizontalSpaceSize = 0;

  013d1	c7 45 b0 00 00
	00 00		 mov	 DWORD PTR _liHorizontalSpaceSize$[ebp], 0
$L198280:

; 681  : 	if (lbHorizontal)

  013d8	0f b6 4d 8f	 movzx	 ecx, BYTE PTR _lbHorizontal$[ebp]
  013dc	85 c9		 test	 ecx, ecx
  013de	74 11		 je	 SHORT $L198281

; 682  : 		liVerticleSpaceSize = miButtonSize;

  013e0	8b 95 70 ff ff
	ff		 mov	 edx, DWORD PTR _this$[ebp]
  013e6	8b 82 94 00 00
	00		 mov	 eax, DWORD PTR [edx+148]
  013ec	89 45 f0	 mov	 DWORD PTR _liVerticleSpaceSize$[ebp], eax

; 683  : 	else

  013ef	eb 07		 jmp	 SHORT $L198282
$L198281:

; 684  : 		liVerticleSpaceSize = 0;

  013f1	c7 45 f0 00 00
	00 00		 mov	 DWORD PTR _liVerticleSpaceSize$[ebp], 0
$L198282:

; 685  : 	if (lbVertical && lbHorizontal)

  013f8	0f b6 4d af	 movzx	 ecx, BYTE PTR _lbVertical$[ebp]
  013fc	85 c9		 test	 ecx, ecx
  013fe	74 0f		 je	 SHORT $L198283
  01400	0f b6 55 8f	 movzx	 edx, BYTE PTR _lbHorizontal$[ebp]
  01404	85 d2		 test	 edx, edx
  01406	74 07		 je	 SHORT $L198283

; 686  : 		liRightBottomSpaceSize = 1;

  01408	c7 45 90 01 00
	00 00		 mov	 DWORD PTR _liRightBottomSpaceSize$[ebp], 1
$L198283:

; 687  : 
; 688  : 	//设置纵向滚动条和横向滚动条的区域
; 689  : 	CRect lrcVerticleBar, lrcHorizontalBar;

  0140f	8d 4d b8	 lea	 ecx, DWORD PTR _lrcVerticleBar$[ebp]
  01412	e8 00 00 00 00	 call	 ??0CRect@@QAE@XZ	; CRect::CRect
  01417	8d 4d 9c	 lea	 ecx, DWORD PTR _lrcHorizontalBar$[ebp]
  0141a	e8 00 00 00 00	 call	 ??0CRect@@QAE@XZ	; CRect::CRect

; 690  : 	if (mScrollOrientation == esoVertical)

  0141f	8b 85 70 ff ff
	ff		 mov	 eax, DWORD PTR _this$[ebp]
  01425	83 b8 80 00 00
	00 01		 cmp	 DWORD PTR [eax+128], 1
  0142c	0f 85 8a 00 00
	00		 jne	 $L198286

; 691  : 	{
; 692  : 		lrcVerticleBar.left = lrcWindow.right - liHorizontalSpaceSize - liBorderWidth;

  01432	8b 8d 7c ff ff
	ff		 mov	 ecx, DWORD PTR _lrcWindow$[ebp+8]
  01438	2b 4d b0	 sub	 ecx, DWORD PTR _liHorizontalSpaceSize$[ebp]
  0143b	2b 4d 88	 sub	 ecx, DWORD PTR _liBorderWidth$[ebp]
  0143e	89 4d b8	 mov	 DWORD PTR _lrcVerticleBar$[ebp], ecx

; 693  : 		lrcVerticleBar.top = lrcWindow.top + liBorderHeight;

  01441	8b 95 78 ff ff
	ff		 mov	 edx, DWORD PTR _lrcWindow$[ebp+4]
  01447	03 55 b4	 add	 edx, DWORD PTR _liBorderHeight$[ebp]
  0144a	89 55 bc	 mov	 DWORD PTR _lrcVerticleBar$[ebp+4], edx

; 694  : 		lrcVerticleBar.right = lrcWindow.right - liBorderWidth;

  0144d	8b 85 7c ff ff
	ff		 mov	 eax, DWORD PTR _lrcWindow$[ebp+8]
  01453	2b 45 88	 sub	 eax, DWORD PTR _liBorderWidth$[ebp]
  01456	89 45 c0	 mov	 DWORD PTR _lrcVerticleBar$[ebp+8], eax

; 695  : 		lrcVerticleBar.bottom = lrcWindow.bottom - liVerticleSpaceSize - liBorderHeight - liRightBottomSpaceSize + 1;

  01459	8b 4d 80	 mov	 ecx, DWORD PTR _lrcWindow$[ebp+12]
  0145c	2b 4d f0	 sub	 ecx, DWORD PTR _liVerticleSpaceSize$[ebp]
  0145f	2b 4d b4	 sub	 ecx, DWORD PTR _liBorderHeight$[ebp]
  01462	2b 4d 90	 sub	 ecx, DWORD PTR _liRightBottomSpaceSize$[ebp]
  01465	83 c1 01	 add	 ecx, 1
  01468	89 4d c4	 mov	 DWORD PTR _lrcVerticleBar$[ebp+12], ecx

; 696  : 		if (lbVertical)

  0146b	0f b6 55 af	 movzx	 edx, BYTE PTR _lbVertical$[ebp]
  0146f	85 d2		 test	 edx, edx
  01471	74 21		 je	 SHORT $L198287

; 697  : 		{
; 698  : 			if (mpWnd->IsWindowVisible())

  01473	8b 85 70 ff ff
	ff		 mov	 eax, DWORD PTR _this$[ebp]
  01479	8b 48 54	 mov	 ecx, DWORD PTR [eax+84]
  0147c	e8 00 00 00 00	 call	 ?IsWindowVisible@CWnd@@QBEHXZ ; CWnd::IsWindowVisible
  01481	85 c0		 test	 eax, eax
  01483	74 0d		 je	 SHORT $L198288

; 699  : 				ShowWindow(SW_SHOW);

  01485	6a 05		 push	 5
  01487	8b 8d 70 ff ff
	ff		 mov	 ecx, DWORD PTR _this$[ebp]
  0148d	e8 00 00 00 00	 call	 ?ShowWindow@CWnd@@QAEHH@Z ; CWnd::ShowWindow
$L198288:

; 700  : 		}
; 701  : 		else

  01492	eb 0d		 jmp	 SHORT $L198289
$L198287:

; 702  : 			ShowWindow(SW_HIDE);

  01494	6a 00		 push	 0
  01496	8b 8d 70 ff ff
	ff		 mov	 ecx, DWORD PTR _this$[ebp]
  0149c	e8 00 00 00 00	 call	 ?ShowWindow@CWnd@@QAEHH@Z ; CWnd::ShowWindow
$L198289:

; 703  : 		MoveWindow(lrcVerticleBar);

  014a1	6a 01		 push	 1
  014a3	8d 4d b8	 lea	 ecx, DWORD PTR _lrcVerticleBar$[ebp]
  014a6	e8 00 00 00 00	 call	 ??BCRect@@QAEPAUtagRECT@@XZ ; CRect::operator tagRECT *
  014ab	50		 push	 eax
  014ac	8b 8d 70 ff ff
	ff		 mov	 ecx, DWORD PTR _this$[ebp]
  014b2	e8 00 00 00 00	 call	 ?MoveWindow@CWnd@@QAEXPBUtagRECT@@H@Z ; CWnd::MoveWindow

; 704  : 	}
; 705  : 	else

  014b7	e9 82 00 00 00	 jmp	 $L198290
$L198286:

; 706  : 	{
; 707  : 		lrcHorizontalBar.left = lrcWindow.left + liBorderWidth;

  014bc	8b 8d 74 ff ff
	ff		 mov	 ecx, DWORD PTR _lrcWindow$[ebp]
  014c2	03 4d 88	 add	 ecx, DWORD PTR _liBorderWidth$[ebp]
  014c5	89 4d 9c	 mov	 DWORD PTR _lrcHorizontalBar$[ebp], ecx

; 708  : 		lrcHorizontalBar.top = lrcWindow.bottom - liVerticleSpaceSize - liBorderHeight;

  014c8	8b 55 80	 mov	 edx, DWORD PTR _lrcWindow$[ebp+12]
  014cb	2b 55 f0	 sub	 edx, DWORD PTR _liVerticleSpaceSize$[ebp]
  014ce	2b 55 b4	 sub	 edx, DWORD PTR _liBorderHeight$[ebp]
  014d1	89 55 a0	 mov	 DWORD PTR _lrcHorizontalBar$[ebp+4], edx

; 709  : 		lrcHorizontalBar.right = lrcWindow.right - liHorizontalSpaceSize - liBorderWidth - liRightBottomSpaceSize + 1;

  014d4	8b 85 7c ff ff
	ff		 mov	 eax, DWORD PTR _lrcWindow$[ebp+8]
  014da	2b 45 b0	 sub	 eax, DWORD PTR _liHorizontalSpaceSize$[ebp]
  014dd	2b 45 88	 sub	 eax, DWORD PTR _liBorderWidth$[ebp]
  014e0	2b 45 90	 sub	 eax, DWORD PTR _liRightBottomSpaceSize$[ebp]
  014e3	83 c0 01	 add	 eax, 1
  014e6	89 45 a4	 mov	 DWORD PTR _lrcHorizontalBar$[ebp+8], eax

; 710  : 		lrcHorizontalBar.bottom = lrcWindow.bottom - liBorderHeight;

  014e9	8b 4d 80	 mov	 ecx, DWORD PTR _lrcWindow$[ebp+12]
  014ec	2b 4d b4	 sub	 ecx, DWORD PTR _liBorderHeight$[ebp]
  014ef	89 4d a8	 mov	 DWORD PTR _lrcHorizontalBar$[ebp+12], ecx

; 711  : 		if (lbHorizontal)

  014f2	0f b6 55 8f	 movzx	 edx, BYTE PTR _lbHorizontal$[ebp]
  014f6	85 d2		 test	 edx, edx
  014f8	74 21		 je	 SHORT $L198291

; 712  : 		{
; 713  : 			if (mpWnd->IsWindowVisible())

  014fa	8b 85 70 ff ff
	ff		 mov	 eax, DWORD PTR _this$[ebp]
  01500	8b 48 54	 mov	 ecx, DWORD PTR [eax+84]
  01503	e8 00 00 00 00	 call	 ?IsWindowVisible@CWnd@@QBEHXZ ; CWnd::IsWindowVisible
  01508	85 c0		 test	 eax, eax
  0150a	74 0d		 je	 SHORT $L198292

; 714  : 				ShowWindow(SW_SHOW);

  0150c	6a 05		 push	 5
  0150e	8b 8d 70 ff ff
	ff		 mov	 ecx, DWORD PTR _this$[ebp]
  01514	e8 00 00 00 00	 call	 ?ShowWindow@CWnd@@QAEHH@Z ; CWnd::ShowWindow
$L198292:

; 715  : 		}
; 716  : 		else

  01519	eb 0d		 jmp	 SHORT $L198293
$L198291:

; 717  : 			ShowWindow(SW_HIDE);

  0151b	6a 00		 push	 0
  0151d	8b 8d 70 ff ff
	ff		 mov	 ecx, DWORD PTR _this$[ebp]
  01523	e8 00 00 00 00	 call	 ?ShowWindow@CWnd@@QAEHH@Z ; CWnd::ShowWindow
$L198293:

; 718  : 		MoveWindow(lrcHorizontalBar);

  01528	6a 01		 push	 1
  0152a	8d 4d 9c	 lea	 ecx, DWORD PTR _lrcHorizontalBar$[ebp]
  0152d	e8 00 00 00 00	 call	 ??BCRect@@QAEPAUtagRECT@@XZ ; CRect::operator tagRECT *
  01532	50		 push	 eax
  01533	8b 8d 70 ff ff
	ff		 mov	 ecx, DWORD PTR _this$[ebp]
  01539	e8 00 00 00 00	 call	 ?MoveWindow@CWnd@@QAEXPBUtagRECT@@H@Z ; CWnd::MoveWindow
$L198290:

; 719  : 	}
; 720  : 	Invalidate();

  0153e	6a 01		 push	 1
  01540	8b 8d 70 ff ff
	ff		 mov	 ecx, DWORD PTR _this$[ebp]
  01546	e8 00 00 00 00	 call	 ?Invalidate@CWnd@@QAEXH@Z ; CWnd::Invalidate

; 721  : }

  0154b	c7 45 fc ff ff
	ff ff		 mov	 DWORD PTR __$EHRec$[ebp+8], -1
  01552	8d 4d ec	 lea	 ecx, DWORD PTR _lstr$[ebp]
  01555	ff 15 00 00 00
	00		 call	 DWORD PTR __imp_??1?$CStringT@DV?$StrTraitMFC_DLL@DV?$ChTraitsCRT@D@ATL@@@@@ATL@@QAE@XZ
$L198250:
  0155b	8b 4d f4	 mov	 ecx, DWORD PTR __$EHRec$[ebp]
  0155e	64 89 0d 00 00
	00 00		 mov	 DWORD PTR fs:__except_list, ecx
  01565	8b 4d e8	 mov	 ecx, DWORD PTR __$ArrayPad$[ebp]
  01568	e8 00 00 00 00	 call	 @__security_check_cookie@4
  0156d	8b e5		 mov	 esp, ebp
  0156f	5d		 pop	 ebp
  01570	c3		 ret	 0
_TEXT	ENDS
text$x	SEGMENT
$L199350:
  00000	8d 4d ec	 lea	 ecx, DWORD PTR _lstr$[ebp]
  00003	ff 25 00 00 00
	00		 jmp	 DWORD PTR __imp_??1?$CStringT@DV?$StrTraitMFC_DLL@DV?$ChTraitsCRT@D@ATL@@@@@ATL@@QAE@XZ
__ehhandler$?SetPosition@CScrollBarEx@@QAEXXZ:
  00009	b8 00 00 00 00	 mov	 eax, OFFSET FLAT:$T199354
  0000e	e9 00 00 00 00	 jmp	 ___CxxFrameHandler
text$x	ENDS
?SetPosition@CScrollBarEx@@QAEXXZ ENDP			; CScrollBarEx::SetPosition
; Function compile flags: /Odt
_TEXT	SEGMENT
_this$ = -32						; size = 4
_si$ = -28						; size = 28
?UpdateScrollBar@CScrollBarEx@@QAEXXZ PROC NEAR		; CScrollBarEx::UpdateScrollBar
; _this$ = ecx

; 730  : {

  01580	55		 push	 ebp
  01581	8b ec		 mov	 ebp, esp
  01583	83 ec 20	 sub	 esp, 32			; 00000020H
  01586	89 4d e0	 mov	 DWORD PTR _this$[ebp], ecx

; 731  : 	SCROLLINFO si;
; 732  : 	si.cbSize = sizeof(si);

  01589	c7 45 e4 1c 00
	00 00		 mov	 DWORD PTR _si$[ebp], 28	; 0000001cH

; 733  : 	si.fMask = SIF_ALL;

  01590	c7 45 e8 17 00
	00 00		 mov	 DWORD PTR _si$[ebp+4], 23 ; 00000017H

; 734  : 	if (mpWnd == NULL)

  01597	8b 45 e0	 mov	 eax, DWORD PTR _this$[ebp]
  0159a	83 78 54 00	 cmp	 DWORD PTR [eax+84], 0
  0159e	75 02		 jne	 SHORT $L198298

; 735  : 		return;

  015a0	eb 5e		 jmp	 SHORT $L198296
$L198298:

; 736  : 
; 737  : 	if (mScrollOrientation == esoVertical)

  015a2	8b 4d e0	 mov	 ecx, DWORD PTR _this$[ebp]
  015a5	83 b9 80 00 00
	00 01		 cmp	 DWORD PTR [ecx+128], 1
  015ac	75 15		 jne	 SHORT $L198299

; 738  : 		mpWnd->GetScrollInfo(SB_VERT, &si);

  015ae	6a 17		 push	 23			; 00000017H
  015b0	8d 55 e4	 lea	 edx, DWORD PTR _si$[ebp]
  015b3	52		 push	 edx
  015b4	6a 01		 push	 1
  015b6	8b 45 e0	 mov	 eax, DWORD PTR _this$[ebp]
  015b9	8b 48 54	 mov	 ecx, DWORD PTR [eax+84]
  015bc	e8 00 00 00 00	 call	 ?GetScrollInfo@CWnd@@QAEHHPAUtagSCROLLINFO@@I@Z ; CWnd::GetScrollInfo

; 739  : 	else

  015c1	eb 13		 jmp	 SHORT $L198300
$L198299:

; 740  : 		mpWnd->GetScrollInfo(SB_HORZ, &si);

  015c3	6a 17		 push	 23			; 00000017H
  015c5	8d 4d e4	 lea	 ecx, DWORD PTR _si$[ebp]
  015c8	51		 push	 ecx
  015c9	6a 00		 push	 0
  015cb	8b 55 e0	 mov	 edx, DWORD PTR _this$[ebp]
  015ce	8b 4a 54	 mov	 ecx, DWORD PTR [edx+84]
  015d1	e8 00 00 00 00	 call	 ?GetScrollInfo@CWnd@@QAEHHPAUtagSCROLLINFO@@I@Z ; CWnd::GetScrollInfo
$L198300:

; 741  : 
; 742  : 	if (si.nMax <= 1)	//此时设置为禁用

  015d6	83 7d f0 01	 cmp	 DWORD PTR _si$[ebp+12], 1
  015da	7f 0c		 jg	 SHORT $L198301

; 743  : 		mbEnabled = false;

  015dc	8b 45 e0	 mov	 eax, DWORD PTR _this$[ebp]
  015df	c6 80 98 00 00
	00 00		 mov	 BYTE PTR [eax+152], 0

; 744  : 	else

  015e6	eb 0a		 jmp	 SHORT $L198302
$L198301:

; 745  : 		mbEnabled = true;

  015e8	8b 4d e0	 mov	 ecx, DWORD PTR _this$[ebp]
  015eb	c6 81 98 00 00
	00 01		 mov	 BYTE PTR [ecx+152], 1
$L198302:

; 746  : 
; 747  : 	SetScrollInfo(&si);

  015f2	6a 01		 push	 1
  015f4	8d 55 e4	 lea	 edx, DWORD PTR _si$[ebp]
  015f7	52		 push	 edx
  015f8	8b 4d e0	 mov	 ecx, DWORD PTR _this$[ebp]
  015fb	e8 00 00 00 00	 call	 ?SetScrollInfo@CScrollBarEx@@QAEHPAUtagSCROLLINFO@@H@Z ; CScrollBarEx::SetScrollInfo
$L198296:

; 748  : }

  01600	8b e5		 mov	 esp, ebp
  01602	5d		 pop	 ebp
  01603	c3		 ret	 0
?UpdateScrollBar@CScrollBarEx@@QAEXXZ ENDP		; CScrollBarEx::UpdateScrollBar
_TEXT	ENDS
PUBLIC	?DrawLeftBtn@CScrollBarEx@@AAEXPAUHDC__@@UtagRECT@@@Z ; CScrollBarEx::DrawLeftBtn
PUBLIC	?DrawRightBtn@CScrollBarEx@@AAEXPAUHDC__@@UtagRECT@@@Z ; CScrollBarEx::DrawRightBtn
PUBLIC	?DrawUpBtn@CScrollBarEx@@AAEXPAUHDC__@@UtagRECT@@@Z ; CScrollBarEx::DrawUpBtn
PUBLIC	?DrawDownBtn@CScrollBarEx@@AAEXPAUHDC__@@UtagRECT@@@Z ; CScrollBarEx::DrawDownBtn
PUBLIC	?DrawThumb@CScrollBarEx@@AAEXPAUHDC__@@UtagRECT@@@Z ; CScrollBarEx::DrawThumb
PUBLIC	?DrawThumbSpace@CScrollBarEx@@AAEXPAUHDC__@@UtagRECT@@@Z ; CScrollBarEx::DrawThumbSpace
EXTRN	__imp__GetWindowRect@8:NEAR
; Function compile flags: /Odt
_TEXT	SEGMENT
_this$ = -100						; size = 4
$T199367 = -96						; size = 16
$T199366 = -80						; size = 16
$T199365 = -64						; size = 16
$T199364 = -48						; size = 16
$T199363 = -32						; size = 16
$T199362 = -16						; size = 16
_hWnd$ = 8						; size = 4
_hDC$ = 12						; size = 4
?Draw@CScrollBarEx@@AAEXPAUHWND__@@PAUHDC__@@@Z PROC NEAR ; CScrollBarEx::Draw
; _this$ = ecx

; 758  : {

  01610	55		 push	 ebp
  01611	8b ec		 mov	 ebp, esp
  01613	83 ec 64	 sub	 esp, 100		; 00000064H
  01616	89 4d 9c	 mov	 DWORD PTR _this$[ebp], ecx

; 759  : 	::GetWindowRect(hWnd, &mrcClient);

  01619	8b 45 9c	 mov	 eax, DWORD PTR _this$[ebp]
  0161c	05 84 00 00 00	 add	 eax, 132		; 00000084H
  01621	50		 push	 eax
  01622	8b 4d 08	 mov	 ecx, DWORD PTR _hWnd$[ebp]
  01625	51		 push	 ecx
  01626	ff 15 00 00 00
	00		 call	 DWORD PTR __imp__GetWindowRect@8

; 760  : 	ScreenToClient(&mrcClient);

  0162c	8b 55 9c	 mov	 edx, DWORD PTR _this$[ebp]
  0162f	81 c2 84 00 00
	00		 add	 edx, 132		; 00000084H
  01635	52		 push	 edx
  01636	8b 4d 9c	 mov	 ecx, DWORD PTR _this$[ebp]
  01639	e8 00 00 00 00	 call	 ?ScreenToClient@CWnd@@QBEXPAUtagRECT@@@Z ; CWnd::ScreenToClient

; 761  : 
; 762  : 	DrawThumbSpace(hDC, GetRect(HT_THUMB_SPACE));

  0163e	6a 69		 push	 105			; 00000069H
  01640	8d 45 f0	 lea	 eax, DWORD PTR $T199362[ebp]
  01643	50		 push	 eax
  01644	8b 4d 9c	 mov	 ecx, DWORD PTR _this$[ebp]
  01647	e8 00 00 00 00	 call	 ?GetRect@CScrollBarEx@@AAE?AUtagRECT@@I@Z ; CScrollBarEx::GetRect
  0164c	83 ec 10	 sub	 esp, 16			; 00000010H
  0164f	8b cc		 mov	 ecx, esp
  01651	8b 10		 mov	 edx, DWORD PTR [eax]
  01653	89 11		 mov	 DWORD PTR [ecx], edx
  01655	8b 50 04	 mov	 edx, DWORD PTR [eax+4]
  01658	89 51 04	 mov	 DWORD PTR [ecx+4], edx
  0165b	8b 50 08	 mov	 edx, DWORD PTR [eax+8]
  0165e	89 51 08	 mov	 DWORD PTR [ecx+8], edx
  01661	8b 40 0c	 mov	 eax, DWORD PTR [eax+12]
  01664	89 41 0c	 mov	 DWORD PTR [ecx+12], eax
  01667	8b 4d 0c	 mov	 ecx, DWORD PTR _hDC$[ebp]
  0166a	51		 push	 ecx
  0166b	8b 4d 9c	 mov	 ecx, DWORD PTR _this$[ebp]
  0166e	e8 00 00 00 00	 call	 ?DrawThumbSpace@CScrollBarEx@@AAEXPAUHDC__@@UtagRECT@@@Z ; CScrollBarEx::DrawThumbSpace

; 763  : 	DrawThumb(hDC, GetRect(HT_THUMB));

  01673	6a 68		 push	 104			; 00000068H
  01675	8d 55 e0	 lea	 edx, DWORD PTR $T199363[ebp]
  01678	52		 push	 edx
  01679	8b 4d 9c	 mov	 ecx, DWORD PTR _this$[ebp]
  0167c	e8 00 00 00 00	 call	 ?GetRect@CScrollBarEx@@AAE?AUtagRECT@@I@Z ; CScrollBarEx::GetRect
  01681	83 ec 10	 sub	 esp, 16			; 00000010H
  01684	8b cc		 mov	 ecx, esp
  01686	8b 10		 mov	 edx, DWORD PTR [eax]
  01688	89 11		 mov	 DWORD PTR [ecx], edx
  0168a	8b 50 04	 mov	 edx, DWORD PTR [eax+4]
  0168d	89 51 04	 mov	 DWORD PTR [ecx+4], edx
  01690	8b 50 08	 mov	 edx, DWORD PTR [eax+8]
  01693	89 51 08	 mov	 DWORD PTR [ecx+8], edx
  01696	8b 40 0c	 mov	 eax, DWORD PTR [eax+12]
  01699	89 41 0c	 mov	 DWORD PTR [ecx+12], eax
  0169c	8b 4d 0c	 mov	 ecx, DWORD PTR _hDC$[ebp]
  0169f	51		 push	 ecx
  016a0	8b 4d 9c	 mov	 ecx, DWORD PTR _this$[ebp]
  016a3	e8 00 00 00 00	 call	 ?DrawThumb@CScrollBarEx@@AAEXPAUHDC__@@UtagRECT@@@Z ; CScrollBarEx::DrawThumb

; 764  : 
; 765  : 	if (mScrollOrientation == esoVertical)

  016a8	8b 55 9c	 mov	 edx, DWORD PTR _this$[ebp]
  016ab	83 ba 80 00 00
	00 01		 cmp	 DWORD PTR [edx+128], 1
  016b2	75 6c		 jne	 SHORT $L198310

; 766  : 	{
; 767  : 		DrawUpBtn(hDC, GetRect(HT_UPARROW));

  016b4	6a 64		 push	 100			; 00000064H
  016b6	8d 45 d0	 lea	 eax, DWORD PTR $T199364[ebp]
  016b9	50		 push	 eax
  016ba	8b 4d 9c	 mov	 ecx, DWORD PTR _this$[ebp]
  016bd	e8 00 00 00 00	 call	 ?GetRect@CScrollBarEx@@AAE?AUtagRECT@@I@Z ; CScrollBarEx::GetRect
  016c2	83 ec 10	 sub	 esp, 16			; 00000010H
  016c5	8b cc		 mov	 ecx, esp
  016c7	8b 10		 mov	 edx, DWORD PTR [eax]
  016c9	89 11		 mov	 DWORD PTR [ecx], edx
  016cb	8b 50 04	 mov	 edx, DWORD PTR [eax+4]
  016ce	89 51 04	 mov	 DWORD PTR [ecx+4], edx
  016d1	8b 50 08	 mov	 edx, DWORD PTR [eax+8]
  016d4	89 51 08	 mov	 DWORD PTR [ecx+8], edx
  016d7	8b 40 0c	 mov	 eax, DWORD PTR [eax+12]
  016da	89 41 0c	 mov	 DWORD PTR [ecx+12], eax
  016dd	8b 4d 0c	 mov	 ecx, DWORD PTR _hDC$[ebp]
  016e0	51		 push	 ecx
  016e1	8b 4d 9c	 mov	 ecx, DWORD PTR _this$[ebp]
  016e4	e8 00 00 00 00	 call	 ?DrawUpBtn@CScrollBarEx@@AAEXPAUHDC__@@UtagRECT@@@Z ; CScrollBarEx::DrawUpBtn

; 768  : 		DrawDownBtn(hDC, GetRect(HT_DOWNARROW));

  016e9	6a 65		 push	 101			; 00000065H
  016eb	8d 55 c0	 lea	 edx, DWORD PTR $T199365[ebp]
  016ee	52		 push	 edx
  016ef	8b 4d 9c	 mov	 ecx, DWORD PTR _this$[ebp]
  016f2	e8 00 00 00 00	 call	 ?GetRect@CScrollBarEx@@AAE?AUtagRECT@@I@Z ; CScrollBarEx::GetRect
  016f7	83 ec 10	 sub	 esp, 16			; 00000010H
  016fa	8b cc		 mov	 ecx, esp
  016fc	8b 10		 mov	 edx, DWORD PTR [eax]
  016fe	89 11		 mov	 DWORD PTR [ecx], edx
  01700	8b 50 04	 mov	 edx, DWORD PTR [eax+4]
  01703	89 51 04	 mov	 DWORD PTR [ecx+4], edx
  01706	8b 50 08	 mov	 edx, DWORD PTR [eax+8]
  01709	89 51 08	 mov	 DWORD PTR [ecx+8], edx
  0170c	8b 40 0c	 mov	 eax, DWORD PTR [eax+12]
  0170f	89 41 0c	 mov	 DWORD PTR [ecx+12], eax
  01712	8b 4d 0c	 mov	 ecx, DWORD PTR _hDC$[ebp]
  01715	51		 push	 ecx
  01716	8b 4d 9c	 mov	 ecx, DWORD PTR _this$[ebp]
  01719	e8 00 00 00 00	 call	 ?DrawDownBtn@CScrollBarEx@@AAEXPAUHDC__@@UtagRECT@@@Z ; CScrollBarEx::DrawDownBtn

; 769  : 	}
; 770  : 	else

  0171e	eb 6a		 jmp	 SHORT $L198307
$L198310:

; 771  : 	{
; 772  : 		DrawLeftBtn(hDC, GetRect(HT_LEFTARROW));

  01720	6a 66		 push	 102			; 00000066H
  01722	8d 55 b0	 lea	 edx, DWORD PTR $T199366[ebp]
  01725	52		 push	 edx
  01726	8b 4d 9c	 mov	 ecx, DWORD PTR _this$[ebp]
  01729	e8 00 00 00 00	 call	 ?GetRect@CScrollBarEx@@AAE?AUtagRECT@@I@Z ; CScrollBarEx::GetRect
  0172e	83 ec 10	 sub	 esp, 16			; 00000010H
  01731	8b cc		 mov	 ecx, esp
  01733	8b 10		 mov	 edx, DWORD PTR [eax]
  01735	89 11		 mov	 DWORD PTR [ecx], edx
  01737	8b 50 04	 mov	 edx, DWORD PTR [eax+4]
  0173a	89 51 04	 mov	 DWORD PTR [ecx+4], edx
  0173d	8b 50 08	 mov	 edx, DWORD PTR [eax+8]
  01740	89 51 08	 mov	 DWORD PTR [ecx+8], edx
  01743	8b 40 0c	 mov	 eax, DWORD PTR [eax+12]
  01746	89 41 0c	 mov	 DWORD PTR [ecx+12], eax
  01749	8b 4d 0c	 mov	 ecx, DWORD PTR _hDC$[ebp]
  0174c	51		 push	 ecx
  0174d	8b 4d 9c	 mov	 ecx, DWORD PTR _this$[ebp]
  01750	e8 00 00 00 00	 call	 ?DrawLeftBtn@CScrollBarEx@@AAEXPAUHDC__@@UtagRECT@@@Z ; CScrollBarEx::DrawLeftBtn

; 773  : 		DrawRightBtn(hDC, GetRect(HT_RIGHTARROW));

  01755	6a 67		 push	 103			; 00000067H
  01757	8d 55 a0	 lea	 edx, DWORD PTR $T199367[ebp]
  0175a	52		 push	 edx
  0175b	8b 4d 9c	 mov	 ecx, DWORD PTR _this$[ebp]
  0175e	e8 00 00 00 00	 call	 ?GetRect@CScrollBarEx@@AAE?AUtagRECT@@I@Z ; CScrollBarEx::GetRect
  01763	83 ec 10	 sub	 esp, 16			; 00000010H
  01766	8b cc		 mov	 ecx, esp
  01768	8b 10		 mov	 edx, DWORD PTR [eax]
  0176a	89 11		 mov	 DWORD PTR [ecx], edx
  0176c	8b 50 04	 mov	 edx, DWORD PTR [eax+4]
  0176f	89 51 04	 mov	 DWORD PTR [ecx+4], edx
  01772	8b 50 08	 mov	 edx, DWORD PTR [eax+8]
  01775	89 51 08	 mov	 DWORD PTR [ecx+8], edx
  01778	8b 40 0c	 mov	 eax, DWORD PTR [eax+12]
  0177b	89 41 0c	 mov	 DWORD PTR [ecx+12], eax
  0177e	8b 4d 0c	 mov	 ecx, DWORD PTR _hDC$[ebp]
  01781	51		 push	 ecx
  01782	8b 4d 9c	 mov	 ecx, DWORD PTR _this$[ebp]
  01785	e8 00 00 00 00	 call	 ?DrawRightBtn@CScrollBarEx@@AAEXPAUHDC__@@UtagRECT@@@Z ; CScrollBarEx::DrawRightBtn
$L198307:

; 774  : 	}
; 775  : 
; 776  : 
; 777  : 	
; 778  : }

  0178a	8b e5		 mov	 esp, ebp
  0178c	5d		 pop	 ebp
  0178d	c2 08 00	 ret	 8
?Draw@CScrollBarEx@@AAEXPAUHWND__@@PAUHDC__@@@Z ENDP	; CScrollBarEx::Draw
_TEXT	ENDS
PUBLIC	?DrawHighlightFace@CScrollBarEx@@AAEXPAUHDC__@@UtagRECT@@H@Z ; CScrollBarEx::DrawHighlightFace
PUBLIC	?DrawDownFace@CScrollBarEx@@AAEXPAUHDC__@@UtagRECT@@H@Z ; CScrollBarEx::DrawDownFace
PUBLIC	?DrawNormalFace@CScrollBarEx@@AAEXPAUHDC__@@UtagRECT@@H@Z ; CScrollBarEx::DrawNormalFace
; Function compile flags: /Odt
_TEXT	SEGMENT
_this$ = -4						; size = 4
_hDC$ = 8						; size = 4
_aRect$ = 12						; size = 16
?DrawLeftBtn@CScrollBarEx@@AAEXPAUHDC__@@UtagRECT@@@Z PROC NEAR ; CScrollBarEx::DrawLeftBtn
; _this$ = ecx

; 788  : {

  01790	55		 push	 ebp
  01791	8b ec		 mov	 ebp, esp
  01793	51		 push	 ecx
  01794	89 4d fc	 mov	 DWORD PTR _this$[ebp], ecx

; 789  : 	miLastHitTest = HitTest();

  01797	8b 4d fc	 mov	 ecx, DWORD PTR _this$[ebp]
  0179a	e8 00 00 00 00	 call	 ?HitTest@CScrollBarEx@@AAEIXZ ; CScrollBarEx::HitTest
  0179f	8b 4d fc	 mov	 ecx, DWORD PTR _this$[ebp]
  017a2	89 81 a0 00 00
	00		 mov	 DWORD PTR [ecx+160], eax

; 790  : 
; 791  : 	if (miLastHitTest == HT_LEFTARROW && !mbLButtonDown)		//高亮

  017a8	8b 55 fc	 mov	 edx, DWORD PTR _this$[ebp]
  017ab	83 ba a0 00 00
	00 66		 cmp	 DWORD PTR [edx+160], 102 ; 00000066H
  017b2	75 3a		 jne	 SHORT $L198321
  017b4	8b 45 fc	 mov	 eax, DWORD PTR _this$[ebp]
  017b7	0f b6 88 9a 00
	00 00		 movzx	 ecx, BYTE PTR [eax+154]
  017be	85 c9		 test	 ecx, ecx
  017c0	75 2c		 jne	 SHORT $L198321

; 792  : 		DrawHighlightFace(hDC, aRect, 0);

  017c2	6a 00		 push	 0
  017c4	83 ec 10	 sub	 esp, 16			; 00000010H
  017c7	8b d4		 mov	 edx, esp
  017c9	8b 45 0c	 mov	 eax, DWORD PTR _aRect$[ebp]
  017cc	89 02		 mov	 DWORD PTR [edx], eax
  017ce	8b 4d 10	 mov	 ecx, DWORD PTR _aRect$[ebp+4]
  017d1	89 4a 04	 mov	 DWORD PTR [edx+4], ecx
  017d4	8b 45 14	 mov	 eax, DWORD PTR _aRect$[ebp+8]
  017d7	89 42 08	 mov	 DWORD PTR [edx+8], eax
  017da	8b 4d 18	 mov	 ecx, DWORD PTR _aRect$[ebp+12]
  017dd	89 4a 0c	 mov	 DWORD PTR [edx+12], ecx
  017e0	8b 55 08	 mov	 edx, DWORD PTR _hDC$[ebp]
  017e3	52		 push	 edx
  017e4	8b 4d fc	 mov	 ecx, DWORD PTR _this$[ebp]
  017e7	e8 00 00 00 00	 call	 ?DrawHighlightFace@CScrollBarEx@@AAEXPAUHDC__@@UtagRECT@@H@Z ; CScrollBarEx::DrawHighlightFace

; 793  : 	else if (miLastHitTest == HT_LEFTARROW && mbUpArrowDown)	//按下

  017ec	eb 70		 jmp	 SHORT $L198320
$L198321:
  017ee	8b 45 fc	 mov	 eax, DWORD PTR _this$[ebp]
  017f1	83 b8 a0 00 00
	00 66		 cmp	 DWORD PTR [eax+160], 102 ; 00000066H
  017f8	75 3a		 jne	 SHORT $L198323
  017fa	8b 4d fc	 mov	 ecx, DWORD PTR _this$[ebp]
  017fd	0f b6 91 9b 00
	00 00		 movzx	 edx, BYTE PTR [ecx+155]
  01804	85 d2		 test	 edx, edx
  01806	74 2c		 je	 SHORT $L198323

; 794  : 		DrawDownFace(hDC, aRect, 0);

  01808	6a 00		 push	 0
  0180a	83 ec 10	 sub	 esp, 16			; 00000010H
  0180d	8b c4		 mov	 eax, esp
  0180f	8b 4d 0c	 mov	 ecx, DWORD PTR _aRect$[ebp]
  01812	89 08		 mov	 DWORD PTR [eax], ecx
  01814	8b 55 10	 mov	 edx, DWORD PTR _aRect$[ebp+4]
  01817	89 50 04	 mov	 DWORD PTR [eax+4], edx
  0181a	8b 4d 14	 mov	 ecx, DWORD PTR _aRect$[ebp+8]
  0181d	89 48 08	 mov	 DWORD PTR [eax+8], ecx
  01820	8b 55 18	 mov	 edx, DWORD PTR _aRect$[ebp+12]
  01823	89 50 0c	 mov	 DWORD PTR [eax+12], edx
  01826	8b 45 08	 mov	 eax, DWORD PTR _hDC$[ebp]
  01829	50		 push	 eax
  0182a	8b 4d fc	 mov	 ecx, DWORD PTR _this$[ebp]
  0182d	e8 00 00 00 00	 call	 ?DrawDownFace@CScrollBarEx@@AAEXPAUHDC__@@UtagRECT@@H@Z ; CScrollBarEx::DrawDownFace

; 795  : 	else	//默认

  01832	eb 2a		 jmp	 SHORT $L198320
$L198323:

; 796  : 		DrawNormalFace(hDC, aRect, 0);

  01834	6a 00		 push	 0
  01836	83 ec 10	 sub	 esp, 16			; 00000010H
  01839	8b cc		 mov	 ecx, esp
  0183b	8b 55 0c	 mov	 edx, DWORD PTR _aRect$[ebp]
  0183e	89 11		 mov	 DWORD PTR [ecx], edx
  01840	8b 45 10	 mov	 eax, DWORD PTR _aRect$[ebp+4]
  01843	89 41 04	 mov	 DWORD PTR [ecx+4], eax
  01846	8b 55 14	 mov	 edx, DWORD PTR _aRect$[ebp+8]
  01849	89 51 08	 mov	 DWORD PTR [ecx+8], edx
  0184c	8b 45 18	 mov	 eax, DWORD PTR _aRect$[ebp+12]
  0184f	89 41 0c	 mov	 DWORD PTR [ecx+12], eax
  01852	8b 4d 08	 mov	 ecx, DWORD PTR _hDC$[ebp]
  01855	51		 push	 ecx
  01856	8b 4d fc	 mov	 ecx, DWORD PTR _this$[ebp]
  01859	e8 00 00 00 00	 call	 ?DrawNormalFace@CScrollBarEx@@AAEXPAUHDC__@@UtagRECT@@H@Z ; CScrollBarEx::DrawNormalFace
$L198320:

; 797  : }

  0185e	8b e5		 mov	 esp, ebp
  01860	5d		 pop	 ebp
  01861	c2 14 00	 ret	 20			; 00000014H
?DrawLeftBtn@CScrollBarEx@@AAEXPAUHDC__@@UtagRECT@@@Z ENDP ; CScrollBarEx::DrawLeftBtn
; Function compile flags: /Odt
_this$ = -4						; size = 4
_hDC$ = 8						; size = 4
_aRect$ = 12						; size = 16
?DrawRightBtn@CScrollBarEx@@AAEXPAUHDC__@@UtagRECT@@@Z PROC NEAR ; CScrollBarEx::DrawRightBtn
; _this$ = ecx

; 807  : {

  01870	55		 push	 ebp
  01871	8b ec		 mov	 ebp, esp
  01873	51		 push	 ecx
  01874	89 4d fc	 mov	 DWORD PTR _this$[ebp], ecx

; 808  : 	miLastHitTest = HitTest();

  01877	8b 4d fc	 mov	 ecx, DWORD PTR _this$[ebp]
  0187a	e8 00 00 00 00	 call	 ?HitTest@CScrollBarEx@@AAEIXZ ; CScrollBarEx::HitTest
  0187f	8b 4d fc	 mov	 ecx, DWORD PTR _this$[ebp]
  01882	89 81 a0 00 00
	00		 mov	 DWORD PTR [ecx+160], eax

; 809  : 
; 810  : 	if (miLastHitTest == HT_RIGHTARROW && !mbLButtonDown)		//高亮

  01888	8b 55 fc	 mov	 edx, DWORD PTR _this$[ebp]
  0188b	83 ba a0 00 00
	00 67		 cmp	 DWORD PTR [edx+160], 103 ; 00000067H
  01892	75 3a		 jne	 SHORT $L198330
  01894	8b 45 fc	 mov	 eax, DWORD PTR _this$[ebp]
  01897	0f b6 88 9a 00
	00 00		 movzx	 ecx, BYTE PTR [eax+154]
  0189e	85 c9		 test	 ecx, ecx
  018a0	75 2c		 jne	 SHORT $L198330

; 811  : 		DrawHighlightFace(hDC, aRect, 1);

  018a2	6a 01		 push	 1
  018a4	83 ec 10	 sub	 esp, 16			; 00000010H
  018a7	8b d4		 mov	 edx, esp
  018a9	8b 45 0c	 mov	 eax, DWORD PTR _aRect$[ebp]
  018ac	89 02		 mov	 DWORD PTR [edx], eax
  018ae	8b 4d 10	 mov	 ecx, DWORD PTR _aRect$[ebp+4]
  018b1	89 4a 04	 mov	 DWORD PTR [edx+4], ecx
  018b4	8b 45 14	 mov	 eax, DWORD PTR _aRect$[ebp+8]
  018b7	89 42 08	 mov	 DWORD PTR [edx+8], eax
  018ba	8b 4d 18	 mov	 ecx, DWORD PTR _aRect$[ebp+12]
  018bd	89 4a 0c	 mov	 DWORD PTR [edx+12], ecx
  018c0	8b 55 08	 mov	 edx, DWORD PTR _hDC$[ebp]
  018c3	52		 push	 edx
  018c4	8b 4d fc	 mov	 ecx, DWORD PTR _this$[ebp]
  018c7	e8 00 00 00 00	 call	 ?DrawHighlightFace@CScrollBarEx@@AAEXPAUHDC__@@UtagRECT@@H@Z ; CScrollBarEx::DrawHighlightFace

; 812  : 	else if (miLastHitTest == HT_RIGHTARROW && mbDownArrowDown)	//按下

  018cc	eb 70		 jmp	 SHORT $L198329
$L198330:
  018ce	8b 45 fc	 mov	 eax, DWORD PTR _this$[ebp]
  018d1	83 b8 a0 00 00
	00 67		 cmp	 DWORD PTR [eax+160], 103 ; 00000067H
  018d8	75 3a		 jne	 SHORT $L198332
  018da	8b 4d fc	 mov	 ecx, DWORD PTR _this$[ebp]
  018dd	0f b6 91 9c 00
	00 00		 movzx	 edx, BYTE PTR [ecx+156]
  018e4	85 d2		 test	 edx, edx
  018e6	74 2c		 je	 SHORT $L198332

; 813  : 		DrawDownFace(hDC, aRect, 1);

  018e8	6a 01		 push	 1
  018ea	83 ec 10	 sub	 esp, 16			; 00000010H
  018ed	8b c4		 mov	 eax, esp
  018ef	8b 4d 0c	 mov	 ecx, DWORD PTR _aRect$[ebp]
  018f2	89 08		 mov	 DWORD PTR [eax], ecx
  018f4	8b 55 10	 mov	 edx, DWORD PTR _aRect$[ebp+4]
  018f7	89 50 04	 mov	 DWORD PTR [eax+4], edx
  018fa	8b 4d 14	 mov	 ecx, DWORD PTR _aRect$[ebp+8]
  018fd	89 48 08	 mov	 DWORD PTR [eax+8], ecx
  01900	8b 55 18	 mov	 edx, DWORD PTR _aRect$[ebp+12]
  01903	89 50 0c	 mov	 DWORD PTR [eax+12], edx
  01906	8b 45 08	 mov	 eax, DWORD PTR _hDC$[ebp]
  01909	50		 push	 eax
  0190a	8b 4d fc	 mov	 ecx, DWORD PTR _this$[ebp]
  0190d	e8 00 00 00 00	 call	 ?DrawDownFace@CScrollBarEx@@AAEXPAUHDC__@@UtagRECT@@H@Z ; CScrollBarEx::DrawDownFace

; 814  : 	else	//默认

  01912	eb 2a		 jmp	 SHORT $L198329
$L198332:

; 815  : 		DrawNormalFace(hDC, aRect, 1);

  01914	6a 01		 push	 1
  01916	83 ec 10	 sub	 esp, 16			; 00000010H
  01919	8b cc		 mov	 ecx, esp
  0191b	8b 55 0c	 mov	 edx, DWORD PTR _aRect$[ebp]
  0191e	89 11		 mov	 DWORD PTR [ecx], edx
  01920	8b 45 10	 mov	 eax, DWORD PTR _aRect$[ebp+4]
  01923	89 41 04	 mov	 DWORD PTR [ecx+4], eax
  01926	8b 55 14	 mov	 edx, DWORD PTR _aRect$[ebp+8]
  01929	89 51 08	 mov	 DWORD PTR [ecx+8], edx
  0192c	8b 45 18	 mov	 eax, DWORD PTR _aRect$[ebp+12]
  0192f	89 41 0c	 mov	 DWORD PTR [ecx+12], eax
  01932	8b 4d 08	 mov	 ecx, DWORD PTR _hDC$[ebp]
  01935	51		 push	 ecx
  01936	8b 4d fc	 mov	 ecx, DWORD PTR _this$[ebp]
  01939	e8 00 00 00 00	 call	 ?DrawNormalFace@CScrollBarEx@@AAEXPAUHDC__@@UtagRECT@@H@Z ; CScrollBarEx::DrawNormalFace
$L198329:

; 816  : }

  0193e	8b e5		 mov	 esp, ebp
  01940	5d		 pop	 ebp
  01941	c2 14 00	 ret	 20			; 00000014H
?DrawRightBtn@CScrollBarEx@@AAEXPAUHDC__@@UtagRECT@@@Z ENDP ; CScrollBarEx::DrawRightBtn
_TEXT	ENDS
EXTRN	?DrawLine@CBitMapOperate@@UAEXPAUHDC__@@KMHHHHH@Z:NEAR ; CBitMapOperate::DrawLine
EXTRN	?gBitMapOperate@@3VCBitMapOperate@@A:BYTE	; gBitMapOperate
; Function compile flags: /Odt
_TEXT	SEGMENT
_this$ = -4						; size = 4
_hDC$ = 8						; size = 4
_aRect$ = 12						; size = 16
?DrawUpBtn@CScrollBarEx@@AAEXPAUHDC__@@UtagRECT@@@Z PROC NEAR ; CScrollBarEx::DrawUpBtn
; _this$ = ecx

; 826  : {

  01950	55		 push	 ebp
  01951	8b ec		 mov	 ebp, esp
  01953	51		 push	 ecx
  01954	89 4d fc	 mov	 DWORD PTR _this$[ebp], ecx

; 827  : 	miLastHitTest = HitTest();

  01957	8b 4d fc	 mov	 ecx, DWORD PTR _this$[ebp]
  0195a	e8 00 00 00 00	 call	 ?HitTest@CScrollBarEx@@AAEIXZ ; CScrollBarEx::HitTest
  0195f	8b 4d fc	 mov	 ecx, DWORD PTR _this$[ebp]
  01962	89 81 a0 00 00
	00		 mov	 DWORD PTR [ecx+160], eax

; 828  : 
; 829  : 	gBitMapOperate.DrawLine(hDC,RGB(255,255,255),1,aRect.left-2,aRect.top-2,aRect.right+1,aRect.top-2,false);

  01968	6a 00		 push	 0
  0196a	8b 55 10	 mov	 edx, DWORD PTR _aRect$[ebp+4]
  0196d	83 ea 02	 sub	 edx, 2
  01970	52		 push	 edx
  01971	8b 45 14	 mov	 eax, DWORD PTR _aRect$[ebp+8]
  01974	83 c0 01	 add	 eax, 1
  01977	50		 push	 eax
  01978	8b 4d 10	 mov	 ecx, DWORD PTR _aRect$[ebp+4]
  0197b	83 e9 02	 sub	 ecx, 2
  0197e	51		 push	 ecx
  0197f	8b 55 0c	 mov	 edx, DWORD PTR _aRect$[ebp]
  01982	83 ea 02	 sub	 edx, 2
  01985	52		 push	 edx
  01986	68 00 00 80 3f	 push	 1065353216		; 3f800000H
  0198b	68 ff ff ff 00	 push	 16777215		; 00ffffffH
  01990	8b 45 08	 mov	 eax, DWORD PTR _hDC$[ebp]
  01993	50		 push	 eax
  01994	b9 00 00 00 00	 mov	 ecx, OFFSET FLAT:?gBitMapOperate@@3VCBitMapOperate@@A
  01999	e8 00 00 00 00	 call	 ?DrawLine@CBitMapOperate@@UAEXPAUHDC__@@KMHHHHH@Z ; CBitMapOperate::DrawLine

; 830  : 	gBitMapOperate.DrawLine(hDC,RGB(255,255,255),1,aRect.left-2,aRect.top-2,aRect.left-2,aRect.bottom+1,false);

  0199e	6a 00		 push	 0
  019a0	8b 4d 18	 mov	 ecx, DWORD PTR _aRect$[ebp+12]
  019a3	83 c1 01	 add	 ecx, 1
  019a6	51		 push	 ecx
  019a7	8b 55 0c	 mov	 edx, DWORD PTR _aRect$[ebp]
  019aa	83 ea 02	 sub	 edx, 2
  019ad	52		 push	 edx
  019ae	8b 45 10	 mov	 eax, DWORD PTR _aRect$[ebp+4]
  019b1	83 e8 02	 sub	 eax, 2
  019b4	50		 push	 eax
  019b5	8b 4d 0c	 mov	 ecx, DWORD PTR _aRect$[ebp]
  019b8	83 e9 02	 sub	 ecx, 2
  019bb	51		 push	 ecx
  019bc	68 00 00 80 3f	 push	 1065353216		; 3f800000H
  019c1	68 ff ff ff 00	 push	 16777215		; 00ffffffH
  019c6	8b 55 08	 mov	 edx, DWORD PTR _hDC$[ebp]
  019c9	52		 push	 edx
  019ca	b9 00 00 00 00	 mov	 ecx, OFFSET FLAT:?gBitMapOperate@@3VCBitMapOperate@@A
  019cf	e8 00 00 00 00	 call	 ?DrawLine@CBitMapOperate@@UAEXPAUHDC__@@KMHHHHH@Z ; CBitMapOperate::DrawLine

; 831  : 	gBitMapOperate.DrawLine(hDC,RGB(255,255,255),1,aRect.right+1,aRect.top-2,aRect.right+1,aRect.bottom+1,false);

  019d4	6a 00		 push	 0
  019d6	8b 45 18	 mov	 eax, DWORD PTR _aRect$[ebp+12]
  019d9	83 c0 01	 add	 eax, 1
  019dc	50		 push	 eax
  019dd	8b 4d 14	 mov	 ecx, DWORD PTR _aRect$[ebp+8]
  019e0	83 c1 01	 add	 ecx, 1
  019e3	51		 push	 ecx
  019e4	8b 55 10	 mov	 edx, DWORD PTR _aRect$[ebp+4]
  019e7	83 ea 02	 sub	 edx, 2
  019ea	52		 push	 edx
  019eb	8b 45 14	 mov	 eax, DWORD PTR _aRect$[ebp+8]
  019ee	83 c0 01	 add	 eax, 1
  019f1	50		 push	 eax
  019f2	68 00 00 80 3f	 push	 1065353216		; 3f800000H
  019f7	68 ff ff ff 00	 push	 16777215		; 00ffffffH
  019fc	8b 4d 08	 mov	 ecx, DWORD PTR _hDC$[ebp]
  019ff	51		 push	 ecx
  01a00	b9 00 00 00 00	 mov	 ecx, OFFSET FLAT:?gBitMapOperate@@3VCBitMapOperate@@A
  01a05	e8 00 00 00 00	 call	 ?DrawLine@CBitMapOperate@@UAEXPAUHDC__@@KMHHHHH@Z ; CBitMapOperate::DrawLine

; 832  : 		if (miLastHitTest == HT_UPARROW && !mbLButtonDown)		//高亮

  01a0a	8b 55 fc	 mov	 edx, DWORD PTR _this$[ebp]
  01a0d	83 ba a0 00 00
	00 64		 cmp	 DWORD PTR [edx+160], 100 ; 00000064H
  01a14	75 3a		 jne	 SHORT $L198357
  01a16	8b 45 fc	 mov	 eax, DWORD PTR _this$[ebp]
  01a19	0f b6 88 9a 00
	00 00		 movzx	 ecx, BYTE PTR [eax+154]
  01a20	85 c9		 test	 ecx, ecx
  01a22	75 2c		 jne	 SHORT $L198357

; 833  : 		DrawHighlightFace(hDC, aRect, 2);

  01a24	6a 02		 push	 2
  01a26	83 ec 10	 sub	 esp, 16			; 00000010H
  01a29	8b d4		 mov	 edx, esp
  01a2b	8b 45 0c	 mov	 eax, DWORD PTR _aRect$[ebp]
  01a2e	89 02		 mov	 DWORD PTR [edx], eax
  01a30	8b 4d 10	 mov	 ecx, DWORD PTR _aRect$[ebp+4]
  01a33	89 4a 04	 mov	 DWORD PTR [edx+4], ecx
  01a36	8b 45 14	 mov	 eax, DWORD PTR _aRect$[ebp+8]
  01a39	89 42 08	 mov	 DWORD PTR [edx+8], eax
  01a3c	8b 4d 18	 mov	 ecx, DWORD PTR _aRect$[ebp+12]
  01a3f	89 4a 0c	 mov	 DWORD PTR [edx+12], ecx
  01a42	8b 55 08	 mov	 edx, DWORD PTR _hDC$[ebp]
  01a45	52		 push	 edx
  01a46	8b 4d fc	 mov	 ecx, DWORD PTR _this$[ebp]
  01a49	e8 00 00 00 00	 call	 ?DrawHighlightFace@CScrollBarEx@@AAEXPAUHDC__@@UtagRECT@@H@Z ; CScrollBarEx::DrawHighlightFace

; 834  : 	else if (miLastHitTest == HT_UPARROW && mbUpArrowDown)	//按下

  01a4e	eb 70		 jmp	 SHORT $L198338
$L198357:
  01a50	8b 45 fc	 mov	 eax, DWORD PTR _this$[ebp]
  01a53	83 b8 a0 00 00
	00 64		 cmp	 DWORD PTR [eax+160], 100 ; 00000064H
  01a5a	75 3a		 jne	 SHORT $L198359
  01a5c	8b 4d fc	 mov	 ecx, DWORD PTR _this$[ebp]
  01a5f	0f b6 91 9b 00
	00 00		 movzx	 edx, BYTE PTR [ecx+155]
  01a66	85 d2		 test	 edx, edx
  01a68	74 2c		 je	 SHORT $L198359

; 835  : 		DrawDownFace(hDC, aRect, 2);

  01a6a	6a 02		 push	 2
  01a6c	83 ec 10	 sub	 esp, 16			; 00000010H
  01a6f	8b c4		 mov	 eax, esp
  01a71	8b 4d 0c	 mov	 ecx, DWORD PTR _aRect$[ebp]
  01a74	89 08		 mov	 DWORD PTR [eax], ecx
  01a76	8b 55 10	 mov	 edx, DWORD PTR _aRect$[ebp+4]
  01a79	89 50 04	 mov	 DWORD PTR [eax+4], edx
  01a7c	8b 4d 14	 mov	 ecx, DWORD PTR _aRect$[ebp+8]
  01a7f	89 48 08	 mov	 DWORD PTR [eax+8], ecx
  01a82	8b 55 18	 mov	 edx, DWORD PTR _aRect$[ebp+12]
  01a85	89 50 0c	 mov	 DWORD PTR [eax+12], edx
  01a88	8b 45 08	 mov	 eax, DWORD PTR _hDC$[ebp]
  01a8b	50		 push	 eax
  01a8c	8b 4d fc	 mov	 ecx, DWORD PTR _this$[ebp]
  01a8f	e8 00 00 00 00	 call	 ?DrawDownFace@CScrollBarEx@@AAEXPAUHDC__@@UtagRECT@@H@Z ; CScrollBarEx::DrawDownFace

; 836  : 	else	//默认

  01a94	eb 2a		 jmp	 SHORT $L198338
$L198359:

; 837  : 		DrawNormalFace(hDC, aRect, 2);

  01a96	6a 02		 push	 2
  01a98	83 ec 10	 sub	 esp, 16			; 00000010H
  01a9b	8b cc		 mov	 ecx, esp
  01a9d	8b 55 0c	 mov	 edx, DWORD PTR _aRect$[ebp]
  01aa0	89 11		 mov	 DWORD PTR [ecx], edx
  01aa2	8b 45 10	 mov	 eax, DWORD PTR _aRect$[ebp+4]
  01aa5	89 41 04	 mov	 DWORD PTR [ecx+4], eax
  01aa8	8b 55 14	 mov	 edx, DWORD PTR _aRect$[ebp+8]
  01aab	89 51 08	 mov	 DWORD PTR [ecx+8], edx
  01aae	8b 45 18	 mov	 eax, DWORD PTR _aRect$[ebp+12]
  01ab1	89 41 0c	 mov	 DWORD PTR [ecx+12], eax
  01ab4	8b 4d 08	 mov	 ecx, DWORD PTR _hDC$[ebp]
  01ab7	51		 push	 ecx
  01ab8	8b 4d fc	 mov	 ecx, DWORD PTR _this$[ebp]
  01abb	e8 00 00 00 00	 call	 ?DrawNormalFace@CScrollBarEx@@AAEXPAUHDC__@@UtagRECT@@H@Z ; CScrollBarEx::DrawNormalFace
$L198338:

; 838  : }

  01ac0	8b e5		 mov	 esp, ebp
  01ac2	5d		 pop	 ebp
  01ac3	c2 14 00	 ret	 20			; 00000014H
?DrawUpBtn@CScrollBarEx@@AAEXPAUHDC__@@UtagRECT@@@Z ENDP ; CScrollBarEx::DrawUpBtn
; Function compile flags: /Odt
_this$ = -4						; size = 4
_hDC$ = 8						; size = 4
_aRect$ = 12						; size = 16
?DrawDownBtn@CScrollBarEx@@AAEXPAUHDC__@@UtagRECT@@@Z PROC NEAR ; CScrollBarEx::DrawDownBtn
; _this$ = ecx

; 848  : {

  01ad0	55		 push	 ebp
  01ad1	8b ec		 mov	 ebp, esp
  01ad3	51		 push	 ecx
  01ad4	89 4d fc	 mov	 DWORD PTR _this$[ebp], ecx

; 849  : 	miLastHitTest = HitTest();

  01ad7	8b 4d fc	 mov	 ecx, DWORD PTR _this$[ebp]
  01ada	e8 00 00 00 00	 call	 ?HitTest@CScrollBarEx@@AAEIXZ ; CScrollBarEx::HitTest
  01adf	8b 4d fc	 mov	 ecx, DWORD PTR _this$[ebp]
  01ae2	89 81 a0 00 00
	00		 mov	 DWORD PTR [ecx+160], eax

; 850  : 
; 851  : 	gBitMapOperate.DrawLine(hDC,RGB(255,255,255),1,aRect.left-2,aRect.bottom+1,aRect.right+2,aRect.bottom+1,false);

  01ae8	6a 00		 push	 0
  01aea	8b 55 18	 mov	 edx, DWORD PTR _aRect$[ebp+12]
  01aed	83 c2 01	 add	 edx, 1
  01af0	52		 push	 edx
  01af1	8b 45 14	 mov	 eax, DWORD PTR _aRect$[ebp+8]
  01af4	83 c0 02	 add	 eax, 2
  01af7	50		 push	 eax
  01af8	8b 4d 18	 mov	 ecx, DWORD PTR _aRect$[ebp+12]
  01afb	83 c1 01	 add	 ecx, 1
  01afe	51		 push	 ecx
  01aff	8b 55 0c	 mov	 edx, DWORD PTR _aRect$[ebp]
  01b02	83 ea 02	 sub	 edx, 2
  01b05	52		 push	 edx
  01b06	68 00 00 80 3f	 push	 1065353216		; 3f800000H
  01b0b	68 ff ff ff 00	 push	 16777215		; 00ffffffH
  01b10	8b 45 08	 mov	 eax, DWORD PTR _hDC$[ebp]
  01b13	50		 push	 eax
  01b14	b9 00 00 00 00	 mov	 ecx, OFFSET FLAT:?gBitMapOperate@@3VCBitMapOperate@@A
  01b19	e8 00 00 00 00	 call	 ?DrawLine@CBitMapOperate@@UAEXPAUHDC__@@KMHHHHH@Z ; CBitMapOperate::DrawLine

; 852  : 	gBitMapOperate.DrawLine(hDC,RGB(255,255,255),1,aRect.left-2,aRect.top-2,aRect.left-2,aRect.bottom+1,false);

  01b1e	6a 00		 push	 0
  01b20	8b 4d 18	 mov	 ecx, DWORD PTR _aRect$[ebp+12]
  01b23	83 c1 01	 add	 ecx, 1
  01b26	51		 push	 ecx
  01b27	8b 55 0c	 mov	 edx, DWORD PTR _aRect$[ebp]
  01b2a	83 ea 02	 sub	 edx, 2
  01b2d	52		 push	 edx
  01b2e	8b 45 10	 mov	 eax, DWORD PTR _aRect$[ebp+4]
  01b31	83 e8 02	 sub	 eax, 2
  01b34	50		 push	 eax
  01b35	8b 4d 0c	 mov	 ecx, DWORD PTR _aRect$[ebp]
  01b38	83 e9 02	 sub	 ecx, 2
  01b3b	51		 push	 ecx
  01b3c	68 00 00 80 3f	 push	 1065353216		; 3f800000H
  01b41	68 ff ff ff 00	 push	 16777215		; 00ffffffH
  01b46	8b 55 08	 mov	 edx, DWORD PTR _hDC$[ebp]
  01b49	52		 push	 edx
  01b4a	b9 00 00 00 00	 mov	 ecx, OFFSET FLAT:?gBitMapOperate@@3VCBitMapOperate@@A
  01b4f	e8 00 00 00 00	 call	 ?DrawLine@CBitMapOperate@@UAEXPAUHDC__@@KMHHHHH@Z ; CBitMapOperate::DrawLine

; 853  : 	gBitMapOperate.DrawLine(hDC,RGB(255,255,255),1,aRect.right+1,aRect.top-2,aRect.right+1,aRect.bottom+1,false);

  01b54	6a 00		 push	 0
  01b56	8b 45 18	 mov	 eax, DWORD PTR _aRect$[ebp+12]
  01b59	83 c0 01	 add	 eax, 1
  01b5c	50		 push	 eax
  01b5d	8b 4d 14	 mov	 ecx, DWORD PTR _aRect$[ebp+8]
  01b60	83 c1 01	 add	 ecx, 1
  01b63	51		 push	 ecx
  01b64	8b 55 10	 mov	 edx, DWORD PTR _aRect$[ebp+4]
  01b67	83 ea 02	 sub	 edx, 2
  01b6a	52		 push	 edx
  01b6b	8b 45 14	 mov	 eax, DWORD PTR _aRect$[ebp+8]
  01b6e	83 c0 01	 add	 eax, 1
  01b71	50		 push	 eax
  01b72	68 00 00 80 3f	 push	 1065353216		; 3f800000H
  01b77	68 ff ff ff 00	 push	 16777215		; 00ffffffH
  01b7c	8b 4d 08	 mov	 ecx, DWORD PTR _hDC$[ebp]
  01b7f	51		 push	 ecx
  01b80	b9 00 00 00 00	 mov	 ecx, OFFSET FLAT:?gBitMapOperate@@3VCBitMapOperate@@A
  01b85	e8 00 00 00 00	 call	 ?DrawLine@CBitMapOperate@@UAEXPAUHDC__@@KMHHHHH@Z ; CBitMapOperate::DrawLine

; 854  : 		if (miLastHitTest == HT_DOWNARROW && !mbLButtonDown)		//高亮

  01b8a	8b 55 fc	 mov	 edx, DWORD PTR _this$[ebp]
  01b8d	83 ba a0 00 00
	00 65		 cmp	 DWORD PTR [edx+160], 101 ; 00000065H
  01b94	75 3a		 jne	 SHORT $L198384
  01b96	8b 45 fc	 mov	 eax, DWORD PTR _this$[ebp]
  01b99	0f b6 88 9a 00
	00 00		 movzx	 ecx, BYTE PTR [eax+154]
  01ba0	85 c9		 test	 ecx, ecx
  01ba2	75 2c		 jne	 SHORT $L198384

; 855  : 		DrawHighlightFace(hDC, aRect, 3);

  01ba4	6a 03		 push	 3
  01ba6	83 ec 10	 sub	 esp, 16			; 00000010H
  01ba9	8b d4		 mov	 edx, esp
  01bab	8b 45 0c	 mov	 eax, DWORD PTR _aRect$[ebp]
  01bae	89 02		 mov	 DWORD PTR [edx], eax
  01bb0	8b 4d 10	 mov	 ecx, DWORD PTR _aRect$[ebp+4]
  01bb3	89 4a 04	 mov	 DWORD PTR [edx+4], ecx
  01bb6	8b 45 14	 mov	 eax, DWORD PTR _aRect$[ebp+8]
  01bb9	89 42 08	 mov	 DWORD PTR [edx+8], eax
  01bbc	8b 4d 18	 mov	 ecx, DWORD PTR _aRect$[ebp+12]
  01bbf	89 4a 0c	 mov	 DWORD PTR [edx+12], ecx
  01bc2	8b 55 08	 mov	 edx, DWORD PTR _hDC$[ebp]
  01bc5	52		 push	 edx
  01bc6	8b 4d fc	 mov	 ecx, DWORD PTR _this$[ebp]
  01bc9	e8 00 00 00 00	 call	 ?DrawHighlightFace@CScrollBarEx@@AAEXPAUHDC__@@UtagRECT@@H@Z ; CScrollBarEx::DrawHighlightFace

; 856  : 	else if (miLastHitTest == HT_DOWNARROW && mbDownArrowDown)	//按下

  01bce	eb 70		 jmp	 SHORT $L198365
$L198384:
  01bd0	8b 45 fc	 mov	 eax, DWORD PTR _this$[ebp]
  01bd3	83 b8 a0 00 00
	00 65		 cmp	 DWORD PTR [eax+160], 101 ; 00000065H
  01bda	75 3a		 jne	 SHORT $L198386
  01bdc	8b 4d fc	 mov	 ecx, DWORD PTR _this$[ebp]
  01bdf	0f b6 91 9c 00
	00 00		 movzx	 edx, BYTE PTR [ecx+156]
  01be6	85 d2		 test	 edx, edx
  01be8	74 2c		 je	 SHORT $L198386

; 857  : 		DrawDownFace(hDC, aRect, 3);

  01bea	6a 03		 push	 3
  01bec	83 ec 10	 sub	 esp, 16			; 00000010H
  01bef	8b c4		 mov	 eax, esp
  01bf1	8b 4d 0c	 mov	 ecx, DWORD PTR _aRect$[ebp]
  01bf4	89 08		 mov	 DWORD PTR [eax], ecx
  01bf6	8b 55 10	 mov	 edx, DWORD PTR _aRect$[ebp+4]
  01bf9	89 50 04	 mov	 DWORD PTR [eax+4], edx
  01bfc	8b 4d 14	 mov	 ecx, DWORD PTR _aRect$[ebp+8]
  01bff	89 48 08	 mov	 DWORD PTR [eax+8], ecx
  01c02	8b 55 18	 mov	 edx, DWORD PTR _aRect$[ebp+12]
  01c05	89 50 0c	 mov	 DWORD PTR [eax+12], edx
  01c08	8b 45 08	 mov	 eax, DWORD PTR _hDC$[ebp]
  01c0b	50		 push	 eax
  01c0c	8b 4d fc	 mov	 ecx, DWORD PTR _this$[ebp]
  01c0f	e8 00 00 00 00	 call	 ?DrawDownFace@CScrollBarEx@@AAEXPAUHDC__@@UtagRECT@@H@Z ; CScrollBarEx::DrawDownFace

; 858  : 	else	//默认

  01c14	eb 2a		 jmp	 SHORT $L198365
$L198386:

; 859  : 		DrawNormalFace(hDC, aRect, 3);

  01c16	6a 03		 push	 3
  01c18	83 ec 10	 sub	 esp, 16			; 00000010H
  01c1b	8b cc		 mov	 ecx, esp
  01c1d	8b 55 0c	 mov	 edx, DWORD PTR _aRect$[ebp]
  01c20	89 11		 mov	 DWORD PTR [ecx], edx
  01c22	8b 45 10	 mov	 eax, DWORD PTR _aRect$[ebp+4]
  01c25	89 41 04	 mov	 DWORD PTR [ecx+4], eax
  01c28	8b 55 14	 mov	 edx, DWORD PTR _aRect$[ebp+8]
  01c2b	89 51 08	 mov	 DWORD PTR [ecx+8], edx
  01c2e	8b 45 18	 mov	 eax, DWORD PTR _aRect$[ebp+12]
  01c31	89 41 0c	 mov	 DWORD PTR [ecx+12], eax
  01c34	8b 4d 08	 mov	 ecx, DWORD PTR _hDC$[ebp]
  01c37	51		 push	 ecx
  01c38	8b 4d fc	 mov	 ecx, DWORD PTR _this$[ebp]
  01c3b	e8 00 00 00 00	 call	 ?DrawNormalFace@CScrollBarEx@@AAEXPAUHDC__@@UtagRECT@@H@Z ; CScrollBarEx::DrawNormalFace
$L198365:

; 860  : }

  01c40	8b e5		 mov	 esp, ebp
  01c42	5d		 pop	 ebp
  01c43	c2 14 00	 ret	 20			; 00000014H
?DrawDownBtn@CScrollBarEx@@AAEXPAUHDC__@@UtagRECT@@@Z ENDP ; CScrollBarEx::DrawDownBtn
; Function compile flags: /Odt
_this$ = -20						; size = 4
_lrcBK$ = -16						; size = 16
_hDC$ = 8						; size = 4
_aRect$ = 12						; size = 16
?DrawThumb@CScrollBarEx@@AAEXPAUHDC__@@UtagRECT@@@Z PROC NEAR ; CScrollBarEx::DrawThumb
; _this$ = ecx

; 870  : {	

  01c50	55		 push	 ebp
  01c51	8b ec		 mov	 ebp, esp
  01c53	83 ec 14	 sub	 esp, 20			; 00000014H
  01c56	89 4d ec	 mov	 DWORD PTR _this$[ebp], ecx

; 871  : 	miLastHitTest = HitTest();

  01c59	8b 4d ec	 mov	 ecx, DWORD PTR _this$[ebp]
  01c5c	e8 00 00 00 00	 call	 ?HitTest@CScrollBarEx@@AAEIXZ ; CScrollBarEx::HitTest
  01c61	8b 4d ec	 mov	 ecx, DWORD PTR _this$[ebp]
  01c64	89 81 a0 00 00
	00		 mov	 DWORD PTR [ecx+160], eax

; 872  : 	RECT lrcBK = aRect;

  01c6a	8b 55 0c	 mov	 edx, DWORD PTR _aRect$[ebp]
  01c6d	89 55 f0	 mov	 DWORD PTR _lrcBK$[ebp], edx
  01c70	8b 45 10	 mov	 eax, DWORD PTR _aRect$[ebp+4]
  01c73	89 45 f4	 mov	 DWORD PTR _lrcBK$[ebp+4], eax
  01c76	8b 4d 14	 mov	 ecx, DWORD PTR _aRect$[ebp+8]
  01c79	89 4d f8	 mov	 DWORD PTR _lrcBK$[ebp+8], ecx
  01c7c	8b 55 18	 mov	 edx, DWORD PTR _aRect$[ebp+12]
  01c7f	89 55 fc	 mov	 DWORD PTR _lrcBK$[ebp+12], edx

; 873  : 	if (mScrollOrientation == esoVertical)

  01c82	8b 45 ec	 mov	 eax, DWORD PTR _this$[ebp]
  01c85	83 b8 80 00 00
	00 01		 cmp	 DWORD PTR [eax+128], 1
  01c8c	75 66		 jne	 SHORT $L198394

; 874  : 	{
; 875  : 		gBitMapOperate.DrawLine(hDC,RGB(255,255,255),1,aRect.right+1,aRect.top-2,aRect.right+1,aRect.bottom,false);

  01c8e	6a 00		 push	 0
  01c90	8b 4d 18	 mov	 ecx, DWORD PTR _aRect$[ebp+12]
  01c93	51		 push	 ecx
  01c94	8b 55 14	 mov	 edx, DWORD PTR _aRect$[ebp+8]
  01c97	83 c2 01	 add	 edx, 1
  01c9a	52		 push	 edx
  01c9b	8b 45 10	 mov	 eax, DWORD PTR _aRect$[ebp+4]
  01c9e	83 e8 02	 sub	 eax, 2
  01ca1	50		 push	 eax
  01ca2	8b 4d 14	 mov	 ecx, DWORD PTR _aRect$[ebp+8]
  01ca5	83 c1 01	 add	 ecx, 1
  01ca8	51		 push	 ecx
  01ca9	68 00 00 80 3f	 push	 1065353216		; 3f800000H
  01cae	68 ff ff ff 00	 push	 16777215		; 00ffffffH
  01cb3	8b 55 08	 mov	 edx, DWORD PTR _hDC$[ebp]
  01cb6	52		 push	 edx
  01cb7	b9 00 00 00 00	 mov	 ecx, OFFSET FLAT:?gBitMapOperate@@3VCBitMapOperate@@A
  01cbc	e8 00 00 00 00	 call	 ?DrawLine@CBitMapOperate@@UAEXPAUHDC__@@KMHHHHH@Z ; CBitMapOperate::DrawLine

; 876  : 		gBitMapOperate.DrawLine(hDC,RGB(255,255,255),1,aRect.left-2,aRect.top-1,aRect.left-2,aRect.bottom,false);

  01cc1	6a 00		 push	 0
  01cc3	8b 45 18	 mov	 eax, DWORD PTR _aRect$[ebp+12]
  01cc6	50		 push	 eax
  01cc7	8b 4d 0c	 mov	 ecx, DWORD PTR _aRect$[ebp]
  01cca	83 e9 02	 sub	 ecx, 2
  01ccd	51		 push	 ecx
  01cce	8b 55 10	 mov	 edx, DWORD PTR _aRect$[ebp+4]
  01cd1	83 ea 01	 sub	 edx, 1
  01cd4	52		 push	 edx
  01cd5	8b 45 0c	 mov	 eax, DWORD PTR _aRect$[ebp]
  01cd8	83 e8 02	 sub	 eax, 2
  01cdb	50		 push	 eax
  01cdc	68 00 00 80 3f	 push	 1065353216		; 3f800000H
  01ce1	68 ff ff ff 00	 push	 16777215		; 00ffffffH
  01ce6	8b 4d 08	 mov	 ecx, DWORD PTR _hDC$[ebp]
  01ce9	51		 push	 ecx
  01cea	b9 00 00 00 00	 mov	 ecx, OFFSET FLAT:?gBitMapOperate@@3VCBitMapOperate@@A
  01cef	e8 00 00 00 00	 call	 ?DrawLine@CBitMapOperate@@UAEXPAUHDC__@@KMHHHHH@Z ; CBitMapOperate::DrawLine
$L198394:

; 877  : 	}
; 878  : 
; 879  : 	if (miLastHitTest == HT_THUMB && !mbLButtonDown)		//高亮

  01cf4	8b 55 ec	 mov	 edx, DWORD PTR _this$[ebp]
  01cf7	83 ba a0 00 00
	00 68		 cmp	 DWORD PTR [edx+160], 104 ; 00000068H
  01cfe	75 3d		 jne	 SHORT $L198407
  01d00	8b 45 ec	 mov	 eax, DWORD PTR _this$[ebp]
  01d03	0f b6 88 9a 00
	00 00		 movzx	 ecx, BYTE PTR [eax+154]
  01d0a	85 c9		 test	 ecx, ecx
  01d0c	75 2f		 jne	 SHORT $L198407

; 880  : 		DrawHighlightFace(hDC, aRect, 4);

  01d0e	6a 04		 push	 4
  01d10	83 ec 10	 sub	 esp, 16			; 00000010H
  01d13	8b d4		 mov	 edx, esp
  01d15	8b 45 0c	 mov	 eax, DWORD PTR _aRect$[ebp]
  01d18	89 02		 mov	 DWORD PTR [edx], eax
  01d1a	8b 4d 10	 mov	 ecx, DWORD PTR _aRect$[ebp+4]
  01d1d	89 4a 04	 mov	 DWORD PTR [edx+4], ecx
  01d20	8b 45 14	 mov	 eax, DWORD PTR _aRect$[ebp+8]
  01d23	89 42 08	 mov	 DWORD PTR [edx+8], eax
  01d26	8b 4d 18	 mov	 ecx, DWORD PTR _aRect$[ebp+12]
  01d29	89 4a 0c	 mov	 DWORD PTR [edx+12], ecx
  01d2c	8b 55 08	 mov	 edx, DWORD PTR _hDC$[ebp]
  01d2f	52		 push	 edx
  01d30	8b 4d ec	 mov	 ecx, DWORD PTR _this$[ebp]
  01d33	e8 00 00 00 00	 call	 ?DrawHighlightFace@CScrollBarEx@@AAEXPAUHDC__@@UtagRECT@@H@Z ; CScrollBarEx::DrawHighlightFace

; 881  : 	else if (miLastHitTest != HT_LEFTARROW &&

  01d38	e9 ae 00 00 00	 jmp	 $L198392
$L198407:

; 882  : 		miLastHitTest != HT_RIGHTARROW &&
; 883  : 		miLastHitTest != HT_UPARROW &&
; 884  : 		miLastHitTest != HT_DOWNARROW &&
; 885  : 		miLastHitTest != HT_THUMB_SPACE &&
; 886  : 		mbThumbDown)	//按下

  01d3d	8b 45 ec	 mov	 eax, DWORD PTR _this$[ebp]
  01d40	83 b8 a0 00 00
	00 66		 cmp	 DWORD PTR [eax+160], 102 ; 00000066H
  01d47	74 6a		 je	 SHORT $L198409
  01d49	8b 4d ec	 mov	 ecx, DWORD PTR _this$[ebp]
  01d4c	83 b9 a0 00 00
	00 67		 cmp	 DWORD PTR [ecx+160], 103 ; 00000067H
  01d53	74 5e		 je	 SHORT $L198409
  01d55	8b 55 ec	 mov	 edx, DWORD PTR _this$[ebp]
  01d58	83 ba a0 00 00
	00 64		 cmp	 DWORD PTR [edx+160], 100 ; 00000064H
  01d5f	74 52		 je	 SHORT $L198409
  01d61	8b 45 ec	 mov	 eax, DWORD PTR _this$[ebp]
  01d64	83 b8 a0 00 00
	00 65		 cmp	 DWORD PTR [eax+160], 101 ; 00000065H
  01d6b	74 46		 je	 SHORT $L198409
  01d6d	8b 4d ec	 mov	 ecx, DWORD PTR _this$[ebp]
  01d70	83 b9 a0 00 00
	00 69		 cmp	 DWORD PTR [ecx+160], 105 ; 00000069H
  01d77	74 3a		 je	 SHORT $L198409
  01d79	8b 55 ec	 mov	 edx, DWORD PTR _this$[ebp]
  01d7c	0f b6 82 9d 00
	00 00		 movzx	 eax, BYTE PTR [edx+157]
  01d83	85 c0		 test	 eax, eax
  01d85	74 2c		 je	 SHORT $L198409

; 887  : 		DrawDownFace(hDC, aRect, 4);

  01d87	6a 04		 push	 4
  01d89	83 ec 10	 sub	 esp, 16			; 00000010H
  01d8c	8b cc		 mov	 ecx, esp
  01d8e	8b 55 0c	 mov	 edx, DWORD PTR _aRect$[ebp]
  01d91	89 11		 mov	 DWORD PTR [ecx], edx
  01d93	8b 45 10	 mov	 eax, DWORD PTR _aRect$[ebp+4]
  01d96	89 41 04	 mov	 DWORD PTR [ecx+4], eax
  01d99	8b 55 14	 mov	 edx, DWORD PTR _aRect$[ebp+8]
  01d9c	89 51 08	 mov	 DWORD PTR [ecx+8], edx
  01d9f	8b 45 18	 mov	 eax, DWORD PTR _aRect$[ebp+12]
  01da2	89 41 0c	 mov	 DWORD PTR [ecx+12], eax
  01da5	8b 4d 08	 mov	 ecx, DWORD PTR _hDC$[ebp]
  01da8	51		 push	 ecx
  01da9	8b 4d ec	 mov	 ecx, DWORD PTR _this$[ebp]
  01dac	e8 00 00 00 00	 call	 ?DrawDownFace@CScrollBarEx@@AAEXPAUHDC__@@UtagRECT@@H@Z ; CScrollBarEx::DrawDownFace

; 888  : 	else if(!mbThumbDown)	//默认

  01db1	eb 38		 jmp	 SHORT $L198392
$L198409:
  01db3	8b 55 ec	 mov	 edx, DWORD PTR _this$[ebp]
  01db6	0f b6 82 9d 00
	00 00		 movzx	 eax, BYTE PTR [edx+157]
  01dbd	85 c0		 test	 eax, eax
  01dbf	75 2a		 jne	 SHORT $L198392

; 889  : 		DrawNormalFace(hDC, aRect, 4);

  01dc1	6a 04		 push	 4
  01dc3	83 ec 10	 sub	 esp, 16			; 00000010H
  01dc6	8b cc		 mov	 ecx, esp
  01dc8	8b 55 0c	 mov	 edx, DWORD PTR _aRect$[ebp]
  01dcb	89 11		 mov	 DWORD PTR [ecx], edx
  01dcd	8b 45 10	 mov	 eax, DWORD PTR _aRect$[ebp+4]
  01dd0	89 41 04	 mov	 DWORD PTR [ecx+4], eax
  01dd3	8b 55 14	 mov	 edx, DWORD PTR _aRect$[ebp+8]
  01dd6	89 51 08	 mov	 DWORD PTR [ecx+8], edx
  01dd9	8b 45 18	 mov	 eax, DWORD PTR _aRect$[ebp+12]
  01ddc	89 41 0c	 mov	 DWORD PTR [ecx+12], eax
  01ddf	8b 4d 08	 mov	 ecx, DWORD PTR _hDC$[ebp]
  01de2	51		 push	 ecx
  01de3	8b 4d ec	 mov	 ecx, DWORD PTR _this$[ebp]
  01de6	e8 00 00 00 00	 call	 ?DrawNormalFace@CScrollBarEx@@AAEXPAUHDC__@@UtagRECT@@H@Z ; CScrollBarEx::DrawNormalFace
$L198392:

; 890  : }

  01deb	8b e5		 mov	 esp, ebp
  01ded	5d		 pop	 ebp
  01dee	c2 14 00	 ret	 20			; 00000014H
?DrawThumb@CScrollBarEx@@AAEXPAUHDC__@@UtagRECT@@@Z ENDP ; CScrollBarEx::DrawThumb
_TEXT	ENDS
EXTRN	?FillRectangle@CBitMapOperate@@UAEXPAUHDC__@@UtagRECT@@KH@Z:NEAR ; CBitMapOperate::FillRectangle
; Function compile flags: /Odt
_TEXT	SEGMENT
_this$ = -84						; size = 4
$T199374 = -80						; size = 16
_lrcSpaceBegin$ = -64					; size = 16
_lrcBK$ = -48						; size = 16
_lrcThumb$ = -32					; size = 16
_lrcSpaceEnd$ = -16					; size = 16
_hDC$ = 8						; size = 4
_aRect$ = 12						; size = 16
?DrawThumbSpace@CScrollBarEx@@AAEXPAUHDC__@@UtagRECT@@@Z PROC NEAR ; CScrollBarEx::DrawThumbSpace
; _this$ = ecx

; 900  : {

  01e00	55		 push	 ebp
  01e01	8b ec		 mov	 ebp, esp
  01e03	83 ec 54	 sub	 esp, 84			; 00000054H
  01e06	89 4d ac	 mov	 DWORD PTR _this$[ebp], ecx

; 901  : 	RECT lrcSpaceBegin, lrcSpaceEnd, lrcThumb, lrcBK;
; 902  : 	lrcThumb = GetRect(HT_THUMB);

  01e09	6a 68		 push	 104			; 00000068H
  01e0b	8d 45 b0	 lea	 eax, DWORD PTR $T199374[ebp]
  01e0e	50		 push	 eax
  01e0f	8b 4d ac	 mov	 ecx, DWORD PTR _this$[ebp]
  01e12	e8 00 00 00 00	 call	 ?GetRect@CScrollBarEx@@AAE?AUtagRECT@@I@Z ; CScrollBarEx::GetRect
  01e17	8b 08		 mov	 ecx, DWORD PTR [eax]
  01e19	89 4d e0	 mov	 DWORD PTR _lrcThumb$[ebp], ecx
  01e1c	8b 50 04	 mov	 edx, DWORD PTR [eax+4]
  01e1f	89 55 e4	 mov	 DWORD PTR _lrcThumb$[ebp+4], edx
  01e22	8b 48 08	 mov	 ecx, DWORD PTR [eax+8]
  01e25	89 4d e8	 mov	 DWORD PTR _lrcThumb$[ebp+8], ecx
  01e28	8b 50 0c	 mov	 edx, DWORD PTR [eax+12]
  01e2b	89 55 ec	 mov	 DWORD PTR _lrcThumb$[ebp+12], edx

; 903  : 	lrcSpaceBegin = lrcSpaceEnd = lrcBK = aRect;

  01e2e	8b 45 0c	 mov	 eax, DWORD PTR _aRect$[ebp]
  01e31	89 45 d0	 mov	 DWORD PTR _lrcBK$[ebp], eax
  01e34	8b 4d 10	 mov	 ecx, DWORD PTR _aRect$[ebp+4]
  01e37	89 4d d4	 mov	 DWORD PTR _lrcBK$[ebp+4], ecx
  01e3a	8b 55 14	 mov	 edx, DWORD PTR _aRect$[ebp+8]
  01e3d	89 55 d8	 mov	 DWORD PTR _lrcBK$[ebp+8], edx
  01e40	8b 45 18	 mov	 eax, DWORD PTR _aRect$[ebp+12]
  01e43	89 45 dc	 mov	 DWORD PTR _lrcBK$[ebp+12], eax
  01e46	8b 4d d0	 mov	 ecx, DWORD PTR _lrcBK$[ebp]
  01e49	89 4d f0	 mov	 DWORD PTR _lrcSpaceEnd$[ebp], ecx
  01e4c	8b 55 d4	 mov	 edx, DWORD PTR _lrcBK$[ebp+4]
  01e4f	89 55 f4	 mov	 DWORD PTR _lrcSpaceEnd$[ebp+4], edx
  01e52	8b 45 d8	 mov	 eax, DWORD PTR _lrcBK$[ebp+8]
  01e55	89 45 f8	 mov	 DWORD PTR _lrcSpaceEnd$[ebp+8], eax
  01e58	8b 4d dc	 mov	 ecx, DWORD PTR _lrcBK$[ebp+12]
  01e5b	89 4d fc	 mov	 DWORD PTR _lrcSpaceEnd$[ebp+12], ecx
  01e5e	8b 55 f0	 mov	 edx, DWORD PTR _lrcSpaceEnd$[ebp]
  01e61	89 55 c0	 mov	 DWORD PTR _lrcSpaceBegin$[ebp], edx
  01e64	8b 45 f4	 mov	 eax, DWORD PTR _lrcSpaceEnd$[ebp+4]
  01e67	89 45 c4	 mov	 DWORD PTR _lrcSpaceBegin$[ebp+4], eax
  01e6a	8b 4d f8	 mov	 ecx, DWORD PTR _lrcSpaceEnd$[ebp+8]
  01e6d	89 4d c8	 mov	 DWORD PTR _lrcSpaceBegin$[ebp+8], ecx
  01e70	8b 55 fc	 mov	 edx, DWORD PTR _lrcSpaceEnd$[ebp+12]
  01e73	89 55 cc	 mov	 DWORD PTR _lrcSpaceBegin$[ebp+12], edx

; 904  : 	lrcBK.left -=1; 

  01e76	8b 45 d0	 mov	 eax, DWORD PTR _lrcBK$[ebp]
  01e79	83 e8 01	 sub	 eax, 1
  01e7c	89 45 d0	 mov	 DWORD PTR _lrcBK$[ebp], eax

; 905  : 	lrcBK.right+= 1;

  01e7f	8b 4d d8	 mov	 ecx, DWORD PTR _lrcBK$[ebp+8]
  01e82	83 c1 01	 add	 ecx, 1
  01e85	89 4d d8	 mov	 DWORD PTR _lrcBK$[ebp+8], ecx

; 906  : 	if (mScrollOrientation == esoVertical)

  01e88	8b 55 ac	 mov	 edx, DWORD PTR _this$[ebp]
  01e8b	83 ba 80 00 00
	00 01		 cmp	 DWORD PTR [edx+128], 1
  01e92	0f 85 39 01 00
	00		 jne	 $L198422

; 907  : 	{
; 908  : 		lrcSpaceBegin.bottom = lrcThumb.top-1;

  01e98	8b 45 e4	 mov	 eax, DWORD PTR _lrcThumb$[ebp+4]
  01e9b	83 e8 01	 sub	 eax, 1
  01e9e	89 45 cc	 mov	 DWORD PTR _lrcSpaceBegin$[ebp+12], eax

; 909  : 	//	if (lrcThumb.bottom > 0)
; 910  : 		//	lrcSpaceEnd.top = lrcThumb.bottom;
; 911  : 	//	else
; 912  : 		//	lrcSpaceEnd.top = miButtonSize;
; 913  : 		lrcSpaceEnd.top = lrcThumb.bottom+1;

  01ea1	8b 4d ec	 mov	 ecx, DWORD PTR _lrcThumb$[ebp+12]
  01ea4	83 c1 01	 add	 ecx, 1
  01ea7	89 4d f4	 mov	 DWORD PTR _lrcSpaceEnd$[ebp+4], ecx

; 914  : 
; 915  : 		//gBitMapOperate.FillRectangle(hDC, lrcBK, RGB(255,0,255), FALSE);
; 916  : 		gBitMapOperate.DrawLine(hDC,RGB(255,255,255),1,lrcSpaceBegin.left-1,lrcSpaceBegin.top,lrcSpaceBegin.left-1,lrcSpaceBegin.bottom-1,false);

  01eaa	6a 00		 push	 0
  01eac	8b 55 cc	 mov	 edx, DWORD PTR _lrcSpaceBegin$[ebp+12]
  01eaf	83 ea 01	 sub	 edx, 1
  01eb2	52		 push	 edx
  01eb3	8b 45 c0	 mov	 eax, DWORD PTR _lrcSpaceBegin$[ebp]
  01eb6	83 e8 01	 sub	 eax, 1
  01eb9	50		 push	 eax
  01eba	8b 4d c4	 mov	 ecx, DWORD PTR _lrcSpaceBegin$[ebp+4]
  01ebd	51		 push	 ecx
  01ebe	8b 55 c0	 mov	 edx, DWORD PTR _lrcSpaceBegin$[ebp]
  01ec1	83 ea 01	 sub	 edx, 1
  01ec4	52		 push	 edx
  01ec5	68 00 00 80 3f	 push	 1065353216		; 3f800000H
  01eca	68 ff ff ff 00	 push	 16777215		; 00ffffffH
  01ecf	8b 45 08	 mov	 eax, DWORD PTR _hDC$[ebp]
  01ed2	50		 push	 eax
  01ed3	b9 00 00 00 00	 mov	 ecx, OFFSET FLAT:?gBitMapOperate@@3VCBitMapOperate@@A
  01ed8	e8 00 00 00 00	 call	 ?DrawLine@CBitMapOperate@@UAEXPAUHDC__@@KMHHHHH@Z ; CBitMapOperate::DrawLine

; 917  : 		gBitMapOperate.DrawLine(hDC,RGB(255,255,255),1,lrcSpaceBegin.right,lrcSpaceBegin.top,lrcSpaceBegin.right,lrcSpaceBegin.bottom-1,false);

  01edd	6a 00		 push	 0
  01edf	8b 4d cc	 mov	 ecx, DWORD PTR _lrcSpaceBegin$[ebp+12]
  01ee2	83 e9 01	 sub	 ecx, 1
  01ee5	51		 push	 ecx
  01ee6	8b 55 c8	 mov	 edx, DWORD PTR _lrcSpaceBegin$[ebp+8]
  01ee9	52		 push	 edx
  01eea	8b 45 c4	 mov	 eax, DWORD PTR _lrcSpaceBegin$[ebp+4]
  01eed	50		 push	 eax
  01eee	8b 4d c8	 mov	 ecx, DWORD PTR _lrcSpaceBegin$[ebp+8]
  01ef1	51		 push	 ecx
  01ef2	68 00 00 80 3f	 push	 1065353216		; 3f800000H
  01ef7	68 ff ff ff 00	 push	 16777215		; 00ffffffH
  01efc	8b 55 08	 mov	 edx, DWORD PTR _hDC$[ebp]
  01eff	52		 push	 edx
  01f00	b9 00 00 00 00	 mov	 ecx, OFFSET FLAT:?gBitMapOperate@@3VCBitMapOperate@@A
  01f05	e8 00 00 00 00	 call	 ?DrawLine@CBitMapOperate@@UAEXPAUHDC__@@KMHHHHH@Z ; CBitMapOperate::DrawLine

; 918  : 		gBitMapOperate.FillRectangle(hDC, lrcSpaceBegin, 0xf5f5f5, FALSE);

  01f0a	6a 00		 push	 0
  01f0c	68 f5 f5 f5 00	 push	 16119285		; 00f5f5f5H
  01f11	83 ec 10	 sub	 esp, 16			; 00000010H
  01f14	8b c4		 mov	 eax, esp
  01f16	8b 4d c0	 mov	 ecx, DWORD PTR _lrcSpaceBegin$[ebp]
  01f19	89 08		 mov	 DWORD PTR [eax], ecx
  01f1b	8b 55 c4	 mov	 edx, DWORD PTR _lrcSpaceBegin$[ebp+4]
  01f1e	89 50 04	 mov	 DWORD PTR [eax+4], edx
  01f21	8b 4d c8	 mov	 ecx, DWORD PTR _lrcSpaceBegin$[ebp+8]
  01f24	89 48 08	 mov	 DWORD PTR [eax+8], ecx
  01f27	8b 55 cc	 mov	 edx, DWORD PTR _lrcSpaceBegin$[ebp+12]
  01f2a	89 50 0c	 mov	 DWORD PTR [eax+12], edx
  01f2d	8b 45 08	 mov	 eax, DWORD PTR _hDC$[ebp]
  01f30	50		 push	 eax
  01f31	b9 00 00 00 00	 mov	 ecx, OFFSET FLAT:?gBitMapOperate@@3VCBitMapOperate@@A
  01f36	e8 00 00 00 00	 call	 ?FillRectangle@CBitMapOperate@@UAEXPAUHDC__@@UtagRECT@@KH@Z ; CBitMapOperate::FillRectangle

; 919  : 		gBitMapOperate.DrawLine(hDC,RGB(255,255,255),1,lrcSpaceEnd.left-1,lrcSpaceEnd.top,lrcSpaceEnd.left-1,lrcSpaceEnd.bottom-1,false);

  01f3b	6a 00		 push	 0
  01f3d	8b 4d fc	 mov	 ecx, DWORD PTR _lrcSpaceEnd$[ebp+12]
  01f40	83 e9 01	 sub	 ecx, 1
  01f43	51		 push	 ecx
  01f44	8b 55 f0	 mov	 edx, DWORD PTR _lrcSpaceEnd$[ebp]
  01f47	83 ea 01	 sub	 edx, 1
  01f4a	52		 push	 edx
  01f4b	8b 45 f4	 mov	 eax, DWORD PTR _lrcSpaceEnd$[ebp+4]
  01f4e	50		 push	 eax
  01f4f	8b 4d f0	 mov	 ecx, DWORD PTR _lrcSpaceEnd$[ebp]
  01f52	83 e9 01	 sub	 ecx, 1
  01f55	51		 push	 ecx
  01f56	68 00 00 80 3f	 push	 1065353216		; 3f800000H
  01f5b	68 ff ff ff 00	 push	 16777215		; 00ffffffH
  01f60	8b 55 08	 mov	 edx, DWORD PTR _hDC$[ebp]
  01f63	52		 push	 edx
  01f64	b9 00 00 00 00	 mov	 ecx, OFFSET FLAT:?gBitMapOperate@@3VCBitMapOperate@@A
  01f69	e8 00 00 00 00	 call	 ?DrawLine@CBitMapOperate@@UAEXPAUHDC__@@KMHHHHH@Z ; CBitMapOperate::DrawLine

; 920  : 		gBitMapOperate.DrawLine(hDC,RGB(255,255,255),1,lrcSpaceEnd.right,lrcSpaceEnd.top,lrcSpaceEnd.right,lrcSpaceEnd.bottom-1,false);

  01f6e	6a 00		 push	 0
  01f70	8b 45 fc	 mov	 eax, DWORD PTR _lrcSpaceEnd$[ebp+12]
  01f73	83 e8 01	 sub	 eax, 1
  01f76	50		 push	 eax
  01f77	8b 4d f8	 mov	 ecx, DWORD PTR _lrcSpaceEnd$[ebp+8]
  01f7a	51		 push	 ecx
  01f7b	8b 55 f4	 mov	 edx, DWORD PTR _lrcSpaceEnd$[ebp+4]
  01f7e	52		 push	 edx
  01f7f	8b 45 f8	 mov	 eax, DWORD PTR _lrcSpaceEnd$[ebp+8]
  01f82	50		 push	 eax
  01f83	68 00 00 80 3f	 push	 1065353216		; 3f800000H
  01f88	68 ff ff ff 00	 push	 16777215		; 00ffffffH
  01f8d	8b 4d 08	 mov	 ecx, DWORD PTR _hDC$[ebp]
  01f90	51		 push	 ecx
  01f91	b9 00 00 00 00	 mov	 ecx, OFFSET FLAT:?gBitMapOperate@@3VCBitMapOperate@@A
  01f96	e8 00 00 00 00	 call	 ?DrawLine@CBitMapOperate@@UAEXPAUHDC__@@KMHHHHH@Z ; CBitMapOperate::DrawLine

; 921  : 		gBitMapOperate.FillRectangle(hDC, lrcSpaceEnd,   0xf5f5f5, FALSE);

  01f9b	6a 00		 push	 0
  01f9d	68 f5 f5 f5 00	 push	 16119285		; 00f5f5f5H
  01fa2	83 ec 10	 sub	 esp, 16			; 00000010H
  01fa5	8b d4		 mov	 edx, esp
  01fa7	8b 45 f0	 mov	 eax, DWORD PTR _lrcSpaceEnd$[ebp]
  01faa	89 02		 mov	 DWORD PTR [edx], eax
  01fac	8b 4d f4	 mov	 ecx, DWORD PTR _lrcSpaceEnd$[ebp+4]
  01faf	89 4a 04	 mov	 DWORD PTR [edx+4], ecx
  01fb2	8b 45 f8	 mov	 eax, DWORD PTR _lrcSpaceEnd$[ebp+8]
  01fb5	89 42 08	 mov	 DWORD PTR [edx+8], eax
  01fb8	8b 4d fc	 mov	 ecx, DWORD PTR _lrcSpaceEnd$[ebp+12]
  01fbb	89 4a 0c	 mov	 DWORD PTR [edx+12], ecx
  01fbe	8b 55 08	 mov	 edx, DWORD PTR _hDC$[ebp]
  01fc1	52		 push	 edx
  01fc2	b9 00 00 00 00	 mov	 ecx, OFFSET FLAT:?gBitMapOperate@@3VCBitMapOperate@@A
  01fc7	e8 00 00 00 00	 call	 ?FillRectangle@CBitMapOperate@@UAEXPAUHDC__@@UtagRECT@@KH@Z ; CBitMapOperate::FillRectangle

; 922  : 	}
; 923  : 	else

  01fcc	e9 82 00 00 00	 jmp	 $L198416
$L198422:

; 924  : 	{
; 925  : 		lrcSpaceBegin.right = lrcThumb.left;

  01fd1	8b 45 e0	 mov	 eax, DWORD PTR _lrcThumb$[ebp]
  01fd4	89 45 c8	 mov	 DWORD PTR _lrcSpaceBegin$[ebp+8], eax

; 926  : 		if (lrcThumb.right > 0)

  01fd7	83 7d e8 00	 cmp	 DWORD PTR _lrcThumb$[ebp+8], 0
  01fdb	7e 08		 jle	 SHORT $L198448

; 927  : 			lrcSpaceEnd.left = lrcThumb.right;

  01fdd	8b 4d e8	 mov	 ecx, DWORD PTR _lrcThumb$[ebp+8]
  01fe0	89 4d f0	 mov	 DWORD PTR _lrcSpaceEnd$[ebp], ecx

; 928  : 		else

  01fe3	eb 0c		 jmp	 SHORT $L198449
$L198448:

; 929  : 			lrcSpaceEnd.left = miButtonSize;

  01fe5	8b 55 ac	 mov	 edx, DWORD PTR _this$[ebp]
  01fe8	8b 82 94 00 00
	00		 mov	 eax, DWORD PTR [edx+148]
  01fee	89 45 f0	 mov	 DWORD PTR _lrcSpaceEnd$[ebp], eax
$L198449:

; 930  : 		gBitMapOperate.FillRectangle(hDC, lrcSpaceBegin, RGB(241, 241, 241), FALSE);

  01ff1	6a 00		 push	 0
  01ff3	68 f1 f1 f1 00	 push	 15856113		; 00f1f1f1H
  01ff8	83 ec 10	 sub	 esp, 16			; 00000010H
  01ffb	8b cc		 mov	 ecx, esp
  01ffd	8b 55 c0	 mov	 edx, DWORD PTR _lrcSpaceBegin$[ebp]
  02000	89 11		 mov	 DWORD PTR [ecx], edx
  02002	8b 45 c4	 mov	 eax, DWORD PTR _lrcSpaceBegin$[ebp+4]
  02005	89 41 04	 mov	 DWORD PTR [ecx+4], eax
  02008	8b 55 c8	 mov	 edx, DWORD PTR _lrcSpaceBegin$[ebp+8]
  0200b	89 51 08	 mov	 DWORD PTR [ecx+8], edx
  0200e	8b 45 cc	 mov	 eax, DWORD PTR _lrcSpaceBegin$[ebp+12]
  02011	89 41 0c	 mov	 DWORD PTR [ecx+12], eax
  02014	8b 4d 08	 mov	 ecx, DWORD PTR _hDC$[ebp]
  02017	51		 push	 ecx
  02018	b9 00 00 00 00	 mov	 ecx, OFFSET FLAT:?gBitMapOperate@@3VCBitMapOperate@@A
  0201d	e8 00 00 00 00	 call	 ?FillRectangle@CBitMapOperate@@UAEXPAUHDC__@@UtagRECT@@KH@Z ; CBitMapOperate::FillRectangle

; 931  : 		gBitMapOperate.FillRectangle(hDC, lrcSpaceEnd, RGB(241, 241, 241), FALSE);

  02022	6a 00		 push	 0
  02024	68 f1 f1 f1 00	 push	 15856113		; 00f1f1f1H
  02029	83 ec 10	 sub	 esp, 16			; 00000010H
  0202c	8b d4		 mov	 edx, esp
  0202e	8b 45 f0	 mov	 eax, DWORD PTR _lrcSpaceEnd$[ebp]
  02031	89 02		 mov	 DWORD PTR [edx], eax
  02033	8b 4d f4	 mov	 ecx, DWORD PTR _lrcSpaceEnd$[ebp+4]
  02036	89 4a 04	 mov	 DWORD PTR [edx+4], ecx
  02039	8b 45 f8	 mov	 eax, DWORD PTR _lrcSpaceEnd$[ebp+8]
  0203c	89 42 08	 mov	 DWORD PTR [edx+8], eax
  0203f	8b 4d fc	 mov	 ecx, DWORD PTR _lrcSpaceEnd$[ebp+12]
  02042	89 4a 0c	 mov	 DWORD PTR [edx+12], ecx
  02045	8b 55 08	 mov	 edx, DWORD PTR _hDC$[ebp]
  02048	52		 push	 edx
  02049	b9 00 00 00 00	 mov	 ecx, OFFSET FLAT:?gBitMapOperate@@3VCBitMapOperate@@A
  0204e	e8 00 00 00 00	 call	 ?FillRectangle@CBitMapOperate@@UAEXPAUHDC__@@UtagRECT@@KH@Z ; CBitMapOperate::FillRectangle
$L198416:

; 932  : 	}
; 933  : }

  02053	8b e5		 mov	 esp, ebp
  02055	5d		 pop	 ebp
  02056	c2 14 00	 ret	 20			; 00000014H
?DrawThumbSpace@CScrollBarEx@@AAEXPAUHDC__@@UtagRECT@@@Z ENDP ; CScrollBarEx::DrawThumbSpace
_TEXT	ENDS
PUBLIC	??BCDC@@QBEPAUHDC__@@XZ				; CDC::operator HDC__ *
PUBLIC	??0CRect@@QAE@PBUtagRECT@@@Z			; CRect::CRect
PUBLIC	??0CMemDC@@QAE@PAVCDC@@ABVCRect@@@Z		; CMemDC::CMemDC
PUBLIC	??1CMemDC@@UAE@XZ				; CMemDC::~CMemDC
EXTRN	?FillRectangle@CBitMapOperate@@UAEXPAUHDC__@@UtagRECT@@KKW4ENUM_DrawOrientation@1@HI@Z:NEAR ; CBitMapOperate::FillRectangle
EXTRN	?FromHandle@CDC@@SGPAV1@PAUHDC__@@@Z:NEAR	; CDC::FromHandle
EXTRN	__imp__SetPixel@16:NEAR
EXTRN	__imp__InflateRect@12:NEAR
xdata$x	SEGMENT
$T199392 DD	0ffffffffH
	DD	FLAT:$L199382
	DD	0ffffffffH
	DD	FLAT:$L199383
	DD	0ffffffffH
	DD	FLAT:$L199384
	DD	0ffffffffH
	DD	FLAT:$L199385
	DD	0ffffffffH
	DD	FLAT:$L199386
	DD	0ffffffffH
	DD	FLAT:$L199387
$T199389 DD	019930520H
	DD	06H
	DD	FLAT:$T199392
	DD	2 DUP(00H)
	DD	2 DUP(00H)
; Function compile flags: /Odt
xdata$x	ENDS
_TEXT	SEGMENT
tv67 = -436						; size = 4
_this$ = -432						; size = 4
$T199381 = -428						; size = 16
$T199380 = -412						; size = 16
$T199379 = -396						; size = 16
$T199378 = -380						; size = 16
$T199377 = -364						; size = 16
$T199376 = -348						; size = 16
_liLift$198498 = -332					; size = 4
_lDC$198495 = -328					; size = 44
_liLift$198493 = -284					; size = 4
_lDC$198490 = -280					; size = 44
_lDC$198486 = -236					; size = 44
_lDC$198483 = -192					; size = 44
_lDC$198480 = -148					; size = 44
_lDC$198477 = -104					; size = 44
_lre3$ = -60						; size = 16
_lre2$ = -44						; size = 16
_lre1$ = -28						; size = 16
__$EHRec$ = -12						; size = 12
_hDC$ = 8						; size = 4
_aRect$ = 12						; size = 16
_aiType$ = 28						; size = 4
?DrawHighlightFace@CScrollBarEx@@AAEXPAUHDC__@@UtagRECT@@H@Z PROC NEAR ; CScrollBarEx::DrawHighlightFace
; _this$ = ecx

; 944  : {

  02060	55		 push	 ebp
  02061	8b ec		 mov	 ebp, esp
  02063	6a ff		 push	 -1
  02065	68 00 00 00 00	 push	 __ehhandler$?DrawHighlightFace@CScrollBarEx@@AAEXPAUHDC__@@UtagRECT@@H@Z
  0206a	64 a1 00 00 00
	00		 mov	 eax, DWORD PTR fs:__except_list
  02070	50		 push	 eax
  02071	64 89 25 00 00
	00 00		 mov	 DWORD PTR fs:__except_list, esp
  02078	81 ec a8 01 00
	00		 sub	 esp, 424		; 000001a8H
  0207e	89 8d 50 fe ff
	ff		 mov	 DWORD PTR _this$[ebp], ecx

; 945  : 	if (!mbEnabled)

  02084	8b 85 50 fe ff
	ff		 mov	 eax, DWORD PTR _this$[ebp]
  0208a	0f b6 88 98 00
	00 00		 movzx	 ecx, BYTE PTR [eax+152]
  02091	85 c9		 test	 ecx, ecx
  02093	75 05		 jne	 SHORT $L198468

; 946  : 		return;

  02095	e9 9b 11 00 00	 jmp	 $L198467
$L198468:

; 947  : 	InflateRect(&aRect, 1, 1);

  0209a	6a 01		 push	 1
  0209c	6a 01		 push	 1
  0209e	8d 55 0c	 lea	 edx, DWORD PTR _aRect$[ebp]
  020a1	52		 push	 edx
  020a2	ff 15 00 00 00
	00		 call	 DWORD PTR __imp__InflateRect@12

; 948  : 	RECT lre1 = aRect;

  020a8	8b 45 0c	 mov	 eax, DWORD PTR _aRect$[ebp]
  020ab	89 45 e4	 mov	 DWORD PTR _lre1$[ebp], eax
  020ae	8b 4d 10	 mov	 ecx, DWORD PTR _aRect$[ebp+4]
  020b1	89 4d e8	 mov	 DWORD PTR _lre1$[ebp+4], ecx
  020b4	8b 55 14	 mov	 edx, DWORD PTR _aRect$[ebp+8]
  020b7	89 55 ec	 mov	 DWORD PTR _lre1$[ebp+8], edx
  020ba	8b 45 18	 mov	 eax, DWORD PTR _aRect$[ebp+12]
  020bd	89 45 f0	 mov	 DWORD PTR _lre1$[ebp+12], eax

; 949  : 	InflateRect(&aRect, -1, -1);

  020c0	6a ff		 push	 -1
  020c2	6a ff		 push	 -1
  020c4	8d 4d 0c	 lea	 ecx, DWORD PTR _aRect$[ebp]
  020c7	51		 push	 ecx
  020c8	ff 15 00 00 00
	00		 call	 DWORD PTR __imp__InflateRect@12

; 950  : 	RECT lre2 = aRect;

  020ce	8b 55 0c	 mov	 edx, DWORD PTR _aRect$[ebp]
  020d1	89 55 d4	 mov	 DWORD PTR _lre2$[ebp], edx
  020d4	8b 45 10	 mov	 eax, DWORD PTR _aRect$[ebp+4]
  020d7	89 45 d8	 mov	 DWORD PTR _lre2$[ebp+4], eax
  020da	8b 4d 14	 mov	 ecx, DWORD PTR _aRect$[ebp+8]
  020dd	89 4d dc	 mov	 DWORD PTR _lre2$[ebp+8], ecx
  020e0	8b 55 18	 mov	 edx, DWORD PTR _aRect$[ebp+12]
  020e3	89 55 e0	 mov	 DWORD PTR _lre2$[ebp+12], edx

; 951  : 	InflateRect(&aRect, -1, -1);

  020e6	6a ff		 push	 -1
  020e8	6a ff		 push	 -1
  020ea	8d 45 0c	 lea	 eax, DWORD PTR _aRect$[ebp]
  020ed	50		 push	 eax
  020ee	ff 15 00 00 00
	00		 call	 DWORD PTR __imp__InflateRect@12

; 952  : 	RECT lre3 = aRect;

  020f4	8b 4d 0c	 mov	 ecx, DWORD PTR _aRect$[ebp]
  020f7	89 4d c4	 mov	 DWORD PTR _lre3$[ebp], ecx
  020fa	8b 55 10	 mov	 edx, DWORD PTR _aRect$[ebp+4]
  020fd	89 55 c8	 mov	 DWORD PTR _lre3$[ebp+4], edx
  02100	8b 45 14	 mov	 eax, DWORD PTR _aRect$[ebp+8]
  02103	89 45 cc	 mov	 DWORD PTR _lre3$[ebp+8], eax
  02106	8b 4d 18	 mov	 ecx, DWORD PTR _aRect$[ebp+12]
  02109	89 4d d0	 mov	 DWORD PTR _lre3$[ebp+12], ecx

; 953  : 
; 954  : 	switch(aiType)

  0210c	8b 55 1c	 mov	 edx, DWORD PTR _aiType$[ebp]
  0210f	89 95 4c fe ff
	ff		 mov	 DWORD PTR tv67[ebp], edx
  02115	83 bd 4c fe ff
	ff 04		 cmp	 DWORD PTR tv67[ebp], 4
  0211c	0f 87 13 11 00
	00		 ja	 $L198467
  02122	8b 85 4c fe ff
	ff		 mov	 eax, DWORD PTR tv67[ebp]
  02128	ff 24 85 00 00
	00 00		 jmp	 DWORD PTR $L199391[eax*4]
$L198476:

; 955  : 	{
; 956  : 	case 0:		//左箭头
; 957  : 		{
; 958  : 			CMemDC lDC(CDC::FromHandle(hDC), &lre1);

  0212f	8d 4d e4	 lea	 ecx, DWORD PTR _lre1$[ebp]
  02132	51		 push	 ecx
  02133	8d 8d a4 fe ff
	ff		 lea	 ecx, DWORD PTR $T199376[ebp]
  02139	e8 00 00 00 00	 call	 ??0CRect@@QAE@PBUtagRECT@@@Z ; CRect::CRect
  0213e	8d 95 a4 fe ff
	ff		 lea	 edx, DWORD PTR $T199376[ebp]
  02144	52		 push	 edx
  02145	8b 45 08	 mov	 eax, DWORD PTR _hDC$[ebp]
  02148	50		 push	 eax
  02149	e8 00 00 00 00	 call	 ?FromHandle@CDC@@SGPAV1@PAUHDC__@@@Z ; CDC::FromHandle
  0214e	50		 push	 eax
  0214f	8d 4d 98	 lea	 ecx, DWORD PTR _lDC$198477[ebp]
  02152	e8 00 00 00 00	 call	 ??0CMemDC@@QAE@PAVCDC@@ABVCRect@@@Z ; CMemDC::CMemDC
  02157	c7 45 fc 00 00
	00 00		 mov	 DWORD PTR __$EHRec$[ebp+8], 0

; 959  : 			gBitMapOperate.FillRectangle(lDC, lre1, mcolFrame1, FALSE);

  0215e	6a 00		 push	 0
  02160	8b 8d 50 fe ff
	ff		 mov	 ecx, DWORD PTR _this$[ebp]
  02166	8b 91 c8 00 00
	00		 mov	 edx, DWORD PTR [ecx+200]
  0216c	52		 push	 edx
  0216d	83 ec 10	 sub	 esp, 16			; 00000010H
  02170	8b c4		 mov	 eax, esp
  02172	8b 4d e4	 mov	 ecx, DWORD PTR _lre1$[ebp]
  02175	89 08		 mov	 DWORD PTR [eax], ecx
  02177	8b 55 e8	 mov	 edx, DWORD PTR _lre1$[ebp+4]
  0217a	89 50 04	 mov	 DWORD PTR [eax+4], edx
  0217d	8b 4d ec	 mov	 ecx, DWORD PTR _lre1$[ebp+8]
  02180	89 48 08	 mov	 DWORD PTR [eax+8], ecx
  02183	8b 55 f0	 mov	 edx, DWORD PTR _lre1$[ebp+12]
  02186	89 50 0c	 mov	 DWORD PTR [eax+12], edx
  02189	8d 4d 98	 lea	 ecx, DWORD PTR _lDC$198477[ebp]
  0218c	e8 00 00 00 00	 call	 ??BCDC@@QBEPAUHDC__@@XZ	; CDC::operator HDC__ *
  02191	50		 push	 eax
  02192	b9 00 00 00 00	 mov	 ecx, OFFSET FLAT:?gBitMapOperate@@3VCBitMapOperate@@A
  02197	e8 00 00 00 00	 call	 ?FillRectangle@CBitMapOperate@@UAEXPAUHDC__@@UtagRECT@@KH@Z ; CBitMapOperate::FillRectangle

; 960  : 			gBitMapOperate.FillRectangle(lDC, lre2, mcolFrame2, FALSE);

  0219c	6a 00		 push	 0
  0219e	8b 85 50 fe ff
	ff		 mov	 eax, DWORD PTR _this$[ebp]
  021a4	8b 88 cc 00 00
	00		 mov	 ecx, DWORD PTR [eax+204]
  021aa	51		 push	 ecx
  021ab	83 ec 10	 sub	 esp, 16			; 00000010H
  021ae	8b d4		 mov	 edx, esp
  021b0	8b 45 d4	 mov	 eax, DWORD PTR _lre2$[ebp]
  021b3	89 02		 mov	 DWORD PTR [edx], eax
  021b5	8b 4d d8	 mov	 ecx, DWORD PTR _lre2$[ebp+4]
  021b8	89 4a 04	 mov	 DWORD PTR [edx+4], ecx
  021bb	8b 45 dc	 mov	 eax, DWORD PTR _lre2$[ebp+8]
  021be	89 42 08	 mov	 DWORD PTR [edx+8], eax
  021c1	8b 4d e0	 mov	 ecx, DWORD PTR _lre2$[ebp+12]
  021c4	89 4a 0c	 mov	 DWORD PTR [edx+12], ecx
  021c7	8d 4d 98	 lea	 ecx, DWORD PTR _lDC$198477[ebp]
  021ca	e8 00 00 00 00	 call	 ??BCDC@@QBEPAUHDC__@@XZ	; CDC::operator HDC__ *
  021cf	50		 push	 eax
  021d0	b9 00 00 00 00	 mov	 ecx, OFFSET FLAT:?gBitMapOperate@@3VCBitMapOperate@@A
  021d5	e8 00 00 00 00	 call	 ?FillRectangle@CBitMapOperate@@UAEXPAUHDC__@@UtagRECT@@KH@Z ; CBitMapOperate::FillRectangle

; 961  : 			gBitMapOperate.FillRectangle(lDC, lre3, mcolBtn1,mcolBtn2,gBitMapOperate.edoVertical,FALSE);

  021da	6a 01		 push	 1
  021dc	6a 00		 push	 0
  021de	6a 01		 push	 1
  021e0	8b 95 50 fe ff
	ff		 mov	 edx, DWORD PTR _this$[ebp]
  021e6	8b 82 d4 00 00
	00		 mov	 eax, DWORD PTR [edx+212]
  021ec	50		 push	 eax
  021ed	8b 8d 50 fe ff
	ff		 mov	 ecx, DWORD PTR _this$[ebp]
  021f3	8b 91 d0 00 00
	00		 mov	 edx, DWORD PTR [ecx+208]
  021f9	52		 push	 edx
  021fa	83 ec 10	 sub	 esp, 16			; 00000010H
  021fd	8b c4		 mov	 eax, esp
  021ff	8b 4d c4	 mov	 ecx, DWORD PTR _lre3$[ebp]
  02202	89 08		 mov	 DWORD PTR [eax], ecx
  02204	8b 55 c8	 mov	 edx, DWORD PTR _lre3$[ebp+4]
  02207	89 50 04	 mov	 DWORD PTR [eax+4], edx
  0220a	8b 4d cc	 mov	 ecx, DWORD PTR _lre3$[ebp+8]
  0220d	89 48 08	 mov	 DWORD PTR [eax+8], ecx
  02210	8b 55 d0	 mov	 edx, DWORD PTR _lre3$[ebp+12]
  02213	89 50 0c	 mov	 DWORD PTR [eax+12], edx
  02216	8d 4d 98	 lea	 ecx, DWORD PTR _lDC$198477[ebp]
  02219	e8 00 00 00 00	 call	 ??BCDC@@QBEPAUHDC__@@XZ	; CDC::operator HDC__ *
  0221e	50		 push	 eax
  0221f	b9 00 00 00 00	 mov	 ecx, OFFSET FLAT:?gBitMapOperate@@3VCBitMapOperate@@A
  02224	e8 00 00 00 00	 call	 ?FillRectangle@CBitMapOperate@@UAEXPAUHDC__@@UtagRECT@@KKW4ENUM_DrawOrientation@1@HI@Z ; CBitMapOperate::FillRectangle

; 962  : 			SetPixel(lDC,lre1.left,lre1.top, mcolNormal1);

  02229	8b 85 50 fe ff
	ff		 mov	 eax, DWORD PTR _this$[ebp]
  0222f	8b 88 b0 00 00
	00		 mov	 ecx, DWORD PTR [eax+176]
  02235	51		 push	 ecx
  02236	8b 55 e8	 mov	 edx, DWORD PTR _lre1$[ebp+4]
  02239	52		 push	 edx
  0223a	8b 45 e4	 mov	 eax, DWORD PTR _lre1$[ebp]
  0223d	50		 push	 eax
  0223e	8d 4d 98	 lea	 ecx, DWORD PTR _lDC$198477[ebp]
  02241	e8 00 00 00 00	 call	 ??BCDC@@QBEPAUHDC__@@XZ	; CDC::operator HDC__ *
  02246	50		 push	 eax
  02247	ff 15 00 00 00
	00		 call	 DWORD PTR __imp__SetPixel@16

; 963  : 			SetPixel(lDC,lre1.right -1,lre1.top, mcolNormal1);

  0224d	8b 8d 50 fe ff
	ff		 mov	 ecx, DWORD PTR _this$[ebp]
  02253	8b 91 b0 00 00
	00		 mov	 edx, DWORD PTR [ecx+176]
  02259	52		 push	 edx
  0225a	8b 45 e8	 mov	 eax, DWORD PTR _lre1$[ebp+4]
  0225d	50		 push	 eax
  0225e	8b 4d ec	 mov	 ecx, DWORD PTR _lre1$[ebp+8]
  02261	83 e9 01	 sub	 ecx, 1
  02264	51		 push	 ecx
  02265	8d 4d 98	 lea	 ecx, DWORD PTR _lDC$198477[ebp]
  02268	e8 00 00 00 00	 call	 ??BCDC@@QBEPAUHDC__@@XZ	; CDC::operator HDC__ *
  0226d	50		 push	 eax
  0226e	ff 15 00 00 00
	00		 call	 DWORD PTR __imp__SetPixel@16

; 964  : 			SetPixel(lDC,lre1.right -1,lre1.bottom-1, mcolNormal1);

  02274	8b 95 50 fe ff
	ff		 mov	 edx, DWORD PTR _this$[ebp]
  0227a	8b 82 b0 00 00
	00		 mov	 eax, DWORD PTR [edx+176]
  02280	50		 push	 eax
  02281	8b 4d f0	 mov	 ecx, DWORD PTR _lre1$[ebp+12]
  02284	83 e9 01	 sub	 ecx, 1
  02287	51		 push	 ecx
  02288	8b 55 ec	 mov	 edx, DWORD PTR _lre1$[ebp+8]
  0228b	83 ea 01	 sub	 edx, 1
  0228e	52		 push	 edx
  0228f	8d 4d 98	 lea	 ecx, DWORD PTR _lDC$198477[ebp]
  02292	e8 00 00 00 00	 call	 ??BCDC@@QBEPAUHDC__@@XZ	; CDC::operator HDC__ *
  02297	50		 push	 eax
  02298	ff 15 00 00 00
	00		 call	 DWORD PTR __imp__SetPixel@16

; 965  : 			SetPixel(lDC,lre1.left,lre1.bottom-1, mcolNormal1);

  0229e	8b 85 50 fe ff
	ff		 mov	 eax, DWORD PTR _this$[ebp]
  022a4	8b 88 b0 00 00
	00		 mov	 ecx, DWORD PTR [eax+176]
  022aa	51		 push	 ecx
  022ab	8b 55 f0	 mov	 edx, DWORD PTR _lre1$[ebp+12]
  022ae	83 ea 01	 sub	 edx, 1
  022b1	52		 push	 edx
  022b2	8b 45 e4	 mov	 eax, DWORD PTR _lre1$[ebp]
  022b5	50		 push	 eax
  022b6	8d 4d 98	 lea	 ecx, DWORD PTR _lDC$198477[ebp]
  022b9	e8 00 00 00 00	 call	 ??BCDC@@QBEPAUHDC__@@XZ	; CDC::operator HDC__ *
  022be	50		 push	 eax
  022bf	ff 15 00 00 00
	00		 call	 DWORD PTR __imp__SetPixel@16

; 966  : 
; 967  : 			gBitMapOperate.DrawLine(lDC, mcolFont, 1,  lre2.left+6, lre2.top+4, lre2.left+4, lre2.top+6, FALSE);

  022c5	6a 00		 push	 0
  022c7	8b 4d d8	 mov	 ecx, DWORD PTR _lre2$[ebp+4]
  022ca	83 c1 06	 add	 ecx, 6
  022cd	51		 push	 ecx
  022ce	8b 55 d4	 mov	 edx, DWORD PTR _lre2$[ebp]
  022d1	83 c2 04	 add	 edx, 4
  022d4	52		 push	 edx
  022d5	8b 45 d8	 mov	 eax, DWORD PTR _lre2$[ebp+4]
  022d8	83 c0 04	 add	 eax, 4
  022db	50		 push	 eax
  022dc	8b 4d d4	 mov	 ecx, DWORD PTR _lre2$[ebp]
  022df	83 c1 06	 add	 ecx, 6
  022e2	51		 push	 ecx
  022e3	68 00 00 80 3f	 push	 1065353216		; 3f800000H
  022e8	8b 95 50 fe ff
	ff		 mov	 edx, DWORD PTR _this$[ebp]
  022ee	8b 82 d8 00 00
	00		 mov	 eax, DWORD PTR [edx+216]
  022f4	50		 push	 eax
  022f5	8d 4d 98	 lea	 ecx, DWORD PTR _lDC$198477[ebp]
  022f8	e8 00 00 00 00	 call	 ??BCDC@@QBEPAUHDC__@@XZ	; CDC::operator HDC__ *
  022fd	50		 push	 eax
  022fe	b9 00 00 00 00	 mov	 ecx, OFFSET FLAT:?gBitMapOperate@@3VCBitMapOperate@@A
  02303	e8 00 00 00 00	 call	 ?DrawLine@CBitMapOperate@@UAEXPAUHDC__@@KMHHHHH@Z ; CBitMapOperate::DrawLine

; 968  : 			gBitMapOperate.DrawLine(lDC, mcolFont, 1,  lre2.left+4, lre2.top+6, lre2.left+7, lre2.top+9, FALSE);

  02308	6a 00		 push	 0
  0230a	8b 4d d8	 mov	 ecx, DWORD PTR _lre2$[ebp+4]
  0230d	83 c1 09	 add	 ecx, 9
  02310	51		 push	 ecx
  02311	8b 55 d4	 mov	 edx, DWORD PTR _lre2$[ebp]
  02314	83 c2 07	 add	 edx, 7
  02317	52		 push	 edx
  02318	8b 45 d8	 mov	 eax, DWORD PTR _lre2$[ebp+4]
  0231b	83 c0 06	 add	 eax, 6
  0231e	50		 push	 eax
  0231f	8b 4d d4	 mov	 ecx, DWORD PTR _lre2$[ebp]
  02322	83 c1 04	 add	 ecx, 4
  02325	51		 push	 ecx
  02326	68 00 00 80 3f	 push	 1065353216		; 3f800000H
  0232b	8b 95 50 fe ff
	ff		 mov	 edx, DWORD PTR _this$[ebp]
  02331	8b 82 d8 00 00
	00		 mov	 eax, DWORD PTR [edx+216]
  02337	50		 push	 eax
  02338	8d 4d 98	 lea	 ecx, DWORD PTR _lDC$198477[ebp]
  0233b	e8 00 00 00 00	 call	 ??BCDC@@QBEPAUHDC__@@XZ	; CDC::operator HDC__ *
  02340	50		 push	 eax
  02341	b9 00 00 00 00	 mov	 ecx, OFFSET FLAT:?gBitMapOperate@@3VCBitMapOperate@@A
  02346	e8 00 00 00 00	 call	 ?DrawLine@CBitMapOperate@@UAEXPAUHDC__@@KMHHHHH@Z ; CBitMapOperate::DrawLine

; 969  : 			gBitMapOperate.DrawLine(lDC, mcolFont, 1,  lre2.left+6, lre2.top+3, lre2.left+3, lre2.top+6, FALSE);

  0234b	6a 00		 push	 0
  0234d	8b 4d d8	 mov	 ecx, DWORD PTR _lre2$[ebp+4]
  02350	83 c1 06	 add	 ecx, 6
  02353	51		 push	 ecx
  02354	8b 55 d4	 mov	 edx, DWORD PTR _lre2$[ebp]
  02357	83 c2 03	 add	 edx, 3
  0235a	52		 push	 edx
  0235b	8b 45 d8	 mov	 eax, DWORD PTR _lre2$[ebp+4]
  0235e	83 c0 03	 add	 eax, 3
  02361	50		 push	 eax
  02362	8b 4d d4	 mov	 ecx, DWORD PTR _lre2$[ebp]
  02365	83 c1 06	 add	 ecx, 6
  02368	51		 push	 ecx
  02369	68 00 00 80 3f	 push	 1065353216		; 3f800000H
  0236e	8b 95 50 fe ff
	ff		 mov	 edx, DWORD PTR _this$[ebp]
  02374	8b 82 d8 00 00
	00		 mov	 eax, DWORD PTR [edx+216]
  0237a	50		 push	 eax
  0237b	8d 4d 98	 lea	 ecx, DWORD PTR _lDC$198477[ebp]
  0237e	e8 00 00 00 00	 call	 ??BCDC@@QBEPAUHDC__@@XZ	; CDC::operator HDC__ *
  02383	50		 push	 eax
  02384	b9 00 00 00 00	 mov	 ecx, OFFSET FLAT:?gBitMapOperate@@3VCBitMapOperate@@A
  02389	e8 00 00 00 00	 call	 ?DrawLine@CBitMapOperate@@UAEXPAUHDC__@@KMHHHHH@Z ; CBitMapOperate::DrawLine

; 970  : 			gBitMapOperate.DrawLine(lDC, mcolFont, 1,  lre2.left+3, lre2.top+6, lre2.left+7, lre2.top+10, FALSE);

  0238e	6a 00		 push	 0
  02390	8b 4d d8	 mov	 ecx, DWORD PTR _lre2$[ebp+4]
  02393	83 c1 0a	 add	 ecx, 10			; 0000000aH
  02396	51		 push	 ecx
  02397	8b 55 d4	 mov	 edx, DWORD PTR _lre2$[ebp]
  0239a	83 c2 07	 add	 edx, 7
  0239d	52		 push	 edx
  0239e	8b 45 d8	 mov	 eax, DWORD PTR _lre2$[ebp+4]
  023a1	83 c0 06	 add	 eax, 6
  023a4	50		 push	 eax
  023a5	8b 4d d4	 mov	 ecx, DWORD PTR _lre2$[ebp]
  023a8	83 c1 03	 add	 ecx, 3
  023ab	51		 push	 ecx
  023ac	68 00 00 80 3f	 push	 1065353216		; 3f800000H
  023b1	8b 95 50 fe ff
	ff		 mov	 edx, DWORD PTR _this$[ebp]
  023b7	8b 82 d8 00 00
	00		 mov	 eax, DWORD PTR [edx+216]
  023bd	50		 push	 eax
  023be	8d 4d 98	 lea	 ecx, DWORD PTR _lDC$198477[ebp]
  023c1	e8 00 00 00 00	 call	 ??BCDC@@QBEPAUHDC__@@XZ	; CDC::operator HDC__ *
  023c6	50		 push	 eax
  023c7	b9 00 00 00 00	 mov	 ecx, OFFSET FLAT:?gBitMapOperate@@3VCBitMapOperate@@A
  023cc	e8 00 00 00 00	 call	 ?DrawLine@CBitMapOperate@@UAEXPAUHDC__@@KMHHHHH@Z ; CBitMapOperate::DrawLine

; 971  : 
; 972  : 		}

  023d1	c7 45 fc ff ff
	ff ff		 mov	 DWORD PTR __$EHRec$[ebp+8], -1
  023d8	8d 4d 98	 lea	 ecx, DWORD PTR _lDC$198477[ebp]
  023db	e8 00 00 00 00	 call	 ??1CMemDC@@UAE@XZ	; CMemDC::~CMemDC

; 973  : 		break;

  023e0	e9 50 0e 00 00	 jmp	 $L198467
$L198479:

; 974  : 	case 1:		//右箭头
; 975  : 		{
; 976  : 			CMemDC lDC(CDC::FromHandle(hDC), &lre1);

  023e5	8d 4d e4	 lea	 ecx, DWORD PTR _lre1$[ebp]
  023e8	51		 push	 ecx
  023e9	8d 8d 94 fe ff
	ff		 lea	 ecx, DWORD PTR $T199377[ebp]
  023ef	e8 00 00 00 00	 call	 ??0CRect@@QAE@PBUtagRECT@@@Z ; CRect::CRect
  023f4	8d 95 94 fe ff
	ff		 lea	 edx, DWORD PTR $T199377[ebp]
  023fa	52		 push	 edx
  023fb	8b 45 08	 mov	 eax, DWORD PTR _hDC$[ebp]
  023fe	50		 push	 eax
  023ff	e8 00 00 00 00	 call	 ?FromHandle@CDC@@SGPAV1@PAUHDC__@@@Z ; CDC::FromHandle
  02404	50		 push	 eax
  02405	8d 8d 6c ff ff
	ff		 lea	 ecx, DWORD PTR _lDC$198480[ebp]
  0240b	e8 00 00 00 00	 call	 ??0CMemDC@@QAE@PAVCDC@@ABVCRect@@@Z ; CMemDC::CMemDC
  02410	c7 45 fc 01 00
	00 00		 mov	 DWORD PTR __$EHRec$[ebp+8], 1

; 977  : 			gBitMapOperate.FillRectangle(lDC, lre1, mcolFrame1, FALSE);

  02417	6a 00		 push	 0
  02419	8b 8d 50 fe ff
	ff		 mov	 ecx, DWORD PTR _this$[ebp]
  0241f	8b 91 c8 00 00
	00		 mov	 edx, DWORD PTR [ecx+200]
  02425	52		 push	 edx
  02426	83 ec 10	 sub	 esp, 16			; 00000010H
  02429	8b c4		 mov	 eax, esp
  0242b	8b 4d e4	 mov	 ecx, DWORD PTR _lre1$[ebp]
  0242e	89 08		 mov	 DWORD PTR [eax], ecx
  02430	8b 55 e8	 mov	 edx, DWORD PTR _lre1$[ebp+4]
  02433	89 50 04	 mov	 DWORD PTR [eax+4], edx
  02436	8b 4d ec	 mov	 ecx, DWORD PTR _lre1$[ebp+8]
  02439	89 48 08	 mov	 DWORD PTR [eax+8], ecx
  0243c	8b 55 f0	 mov	 edx, DWORD PTR _lre1$[ebp+12]
  0243f	89 50 0c	 mov	 DWORD PTR [eax+12], edx
  02442	8d 8d 6c ff ff
	ff		 lea	 ecx, DWORD PTR _lDC$198480[ebp]
  02448	e8 00 00 00 00	 call	 ??BCDC@@QBEPAUHDC__@@XZ	; CDC::operator HDC__ *
  0244d	50		 push	 eax
  0244e	b9 00 00 00 00	 mov	 ecx, OFFSET FLAT:?gBitMapOperate@@3VCBitMapOperate@@A
  02453	e8 00 00 00 00	 call	 ?FillRectangle@CBitMapOperate@@UAEXPAUHDC__@@UtagRECT@@KH@Z ; CBitMapOperate::FillRectangle

; 978  : 			gBitMapOperate.FillRectangle(lDC, lre2, mcolFrame2, FALSE);

  02458	6a 00		 push	 0
  0245a	8b 85 50 fe ff
	ff		 mov	 eax, DWORD PTR _this$[ebp]
  02460	8b 88 cc 00 00
	00		 mov	 ecx, DWORD PTR [eax+204]
  02466	51		 push	 ecx
  02467	83 ec 10	 sub	 esp, 16			; 00000010H
  0246a	8b d4		 mov	 edx, esp
  0246c	8b 45 d4	 mov	 eax, DWORD PTR _lre2$[ebp]
  0246f	89 02		 mov	 DWORD PTR [edx], eax
  02471	8b 4d d8	 mov	 ecx, DWORD PTR _lre2$[ebp+4]
  02474	89 4a 04	 mov	 DWORD PTR [edx+4], ecx
  02477	8b 45 dc	 mov	 eax, DWORD PTR _lre2$[ebp+8]
  0247a	89 42 08	 mov	 DWORD PTR [edx+8], eax
  0247d	8b 4d e0	 mov	 ecx, DWORD PTR _lre2$[ebp+12]
  02480	89 4a 0c	 mov	 DWORD PTR [edx+12], ecx
  02483	8d 8d 6c ff ff
	ff		 lea	 ecx, DWORD PTR _lDC$198480[ebp]
  02489	e8 00 00 00 00	 call	 ??BCDC@@QBEPAUHDC__@@XZ	; CDC::operator HDC__ *
  0248e	50		 push	 eax
  0248f	b9 00 00 00 00	 mov	 ecx, OFFSET FLAT:?gBitMapOperate@@3VCBitMapOperate@@A
  02494	e8 00 00 00 00	 call	 ?FillRectangle@CBitMapOperate@@UAEXPAUHDC__@@UtagRECT@@KH@Z ; CBitMapOperate::FillRectangle

; 979  : 			gBitMapOperate.FillRectangle(lDC, lre3, mcolBtn2,mcolBtn1,gBitMapOperate.edoVertical,FALSE);

  02499	6a 01		 push	 1
  0249b	6a 00		 push	 0
  0249d	6a 01		 push	 1
  0249f	8b 95 50 fe ff
	ff		 mov	 edx, DWORD PTR _this$[ebp]
  024a5	8b 82 d0 00 00
	00		 mov	 eax, DWORD PTR [edx+208]
  024ab	50		 push	 eax
  024ac	8b 8d 50 fe ff
	ff		 mov	 ecx, DWORD PTR _this$[ebp]
  024b2	8b 91 d4 00 00
	00		 mov	 edx, DWORD PTR [ecx+212]
  024b8	52		 push	 edx
  024b9	83 ec 10	 sub	 esp, 16			; 00000010H
  024bc	8b c4		 mov	 eax, esp
  024be	8b 4d c4	 mov	 ecx, DWORD PTR _lre3$[ebp]
  024c1	89 08		 mov	 DWORD PTR [eax], ecx
  024c3	8b 55 c8	 mov	 edx, DWORD PTR _lre3$[ebp+4]
  024c6	89 50 04	 mov	 DWORD PTR [eax+4], edx
  024c9	8b 4d cc	 mov	 ecx, DWORD PTR _lre3$[ebp+8]
  024cc	89 48 08	 mov	 DWORD PTR [eax+8], ecx
  024cf	8b 55 d0	 mov	 edx, DWORD PTR _lre3$[ebp+12]
  024d2	89 50 0c	 mov	 DWORD PTR [eax+12], edx
  024d5	8d 8d 6c ff ff
	ff		 lea	 ecx, DWORD PTR _lDC$198480[ebp]
  024db	e8 00 00 00 00	 call	 ??BCDC@@QBEPAUHDC__@@XZ	; CDC::operator HDC__ *
  024e0	50		 push	 eax
  024e1	b9 00 00 00 00	 mov	 ecx, OFFSET FLAT:?gBitMapOperate@@3VCBitMapOperate@@A
  024e6	e8 00 00 00 00	 call	 ?FillRectangle@CBitMapOperate@@UAEXPAUHDC__@@UtagRECT@@KKW4ENUM_DrawOrientation@1@HI@Z ; CBitMapOperate::FillRectangle

; 980  : 			SetPixel(lDC,lre1.left,lre1.top, mcolNormal1);

  024eb	8b 85 50 fe ff
	ff		 mov	 eax, DWORD PTR _this$[ebp]
  024f1	8b 88 b0 00 00
	00		 mov	 ecx, DWORD PTR [eax+176]
  024f7	51		 push	 ecx
  024f8	8b 55 e8	 mov	 edx, DWORD PTR _lre1$[ebp+4]
  024fb	52		 push	 edx
  024fc	8b 45 e4	 mov	 eax, DWORD PTR _lre1$[ebp]
  024ff	50		 push	 eax
  02500	8d 8d 6c ff ff
	ff		 lea	 ecx, DWORD PTR _lDC$198480[ebp]
  02506	e8 00 00 00 00	 call	 ??BCDC@@QBEPAUHDC__@@XZ	; CDC::operator HDC__ *
  0250b	50		 push	 eax
  0250c	ff 15 00 00 00
	00		 call	 DWORD PTR __imp__SetPixel@16

; 981  : 			SetPixel(lDC,lre1.right -1,lre1.top, mcolNormal1);

  02512	8b 8d 50 fe ff
	ff		 mov	 ecx, DWORD PTR _this$[ebp]
  02518	8b 91 b0 00 00
	00		 mov	 edx, DWORD PTR [ecx+176]
  0251e	52		 push	 edx
  0251f	8b 45 e8	 mov	 eax, DWORD PTR _lre1$[ebp+4]
  02522	50		 push	 eax
  02523	8b 4d ec	 mov	 ecx, DWORD PTR _lre1$[ebp+8]
  02526	83 e9 01	 sub	 ecx, 1
  02529	51		 push	 ecx
  0252a	8d 8d 6c ff ff
	ff		 lea	 ecx, DWORD PTR _lDC$198480[ebp]
  02530	e8 00 00 00 00	 call	 ??BCDC@@QBEPAUHDC__@@XZ	; CDC::operator HDC__ *
  02535	50		 push	 eax
  02536	ff 15 00 00 00
	00		 call	 DWORD PTR __imp__SetPixel@16

; 982  : 			SetPixel(lDC,lre1.right -1,lre1.bottom-1, mcolNormal1);

  0253c	8b 95 50 fe ff
	ff		 mov	 edx, DWORD PTR _this$[ebp]
  02542	8b 82 b0 00 00
	00		 mov	 eax, DWORD PTR [edx+176]
  02548	50		 push	 eax
  02549	8b 4d f0	 mov	 ecx, DWORD PTR _lre1$[ebp+12]
  0254c	83 e9 01	 sub	 ecx, 1
  0254f	51		 push	 ecx
  02550	8b 55 ec	 mov	 edx, DWORD PTR _lre1$[ebp+8]
  02553	83 ea 01	 sub	 edx, 1
  02556	52		 push	 edx
  02557	8d 8d 6c ff ff
	ff		 lea	 ecx, DWORD PTR _lDC$198480[ebp]
  0255d	e8 00 00 00 00	 call	 ??BCDC@@QBEPAUHDC__@@XZ	; CDC::operator HDC__ *
  02562	50		 push	 eax
  02563	ff 15 00 00 00
	00		 call	 DWORD PTR __imp__SetPixel@16

; 983  : 			SetPixel(lDC,lre1.left,lre1.bottom-1, mcolNormal1);

  02569	8b 85 50 fe ff
	ff		 mov	 eax, DWORD PTR _this$[ebp]
  0256f	8b 88 b0 00 00
	00		 mov	 ecx, DWORD PTR [eax+176]
  02575	51		 push	 ecx
  02576	8b 55 f0	 mov	 edx, DWORD PTR _lre1$[ebp+12]
  02579	83 ea 01	 sub	 edx, 1
  0257c	52		 push	 edx
  0257d	8b 45 e4	 mov	 eax, DWORD PTR _lre1$[ebp]
  02580	50		 push	 eax
  02581	8d 8d 6c ff ff
	ff		 lea	 ecx, DWORD PTR _lDC$198480[ebp]
  02587	e8 00 00 00 00	 call	 ??BCDC@@QBEPAUHDC__@@XZ	; CDC::operator HDC__ *
  0258c	50		 push	 eax
  0258d	ff 15 00 00 00
	00		 call	 DWORD PTR __imp__SetPixel@16

; 984  : 
; 985  : 			gBitMapOperate.DrawLine(lDC, mcolFont, 1,  lre2.left+6, lre2.top+4, lre2.left+8, lre2.top+6, FALSE);

  02593	6a 00		 push	 0
  02595	8b 4d d8	 mov	 ecx, DWORD PTR _lre2$[ebp+4]
  02598	83 c1 06	 add	 ecx, 6
  0259b	51		 push	 ecx
  0259c	8b 55 d4	 mov	 edx, DWORD PTR _lre2$[ebp]
  0259f	83 c2 08	 add	 edx, 8
  025a2	52		 push	 edx
  025a3	8b 45 d8	 mov	 eax, DWORD PTR _lre2$[ebp+4]
  025a6	83 c0 04	 add	 eax, 4
  025a9	50		 push	 eax
  025aa	8b 4d d4	 mov	 ecx, DWORD PTR _lre2$[ebp]
  025ad	83 c1 06	 add	 ecx, 6
  025b0	51		 push	 ecx
  025b1	68 00 00 80 3f	 push	 1065353216		; 3f800000H
  025b6	8b 95 50 fe ff
	ff		 mov	 edx, DWORD PTR _this$[ebp]
  025bc	8b 82 d8 00 00
	00		 mov	 eax, DWORD PTR [edx+216]
  025c2	50		 push	 eax
  025c3	8d 8d 6c ff ff
	ff		 lea	 ecx, DWORD PTR _lDC$198480[ebp]
  025c9	e8 00 00 00 00	 call	 ??BCDC@@QBEPAUHDC__@@XZ	; CDC::operator HDC__ *
  025ce	50		 push	 eax
  025cf	b9 00 00 00 00	 mov	 ecx, OFFSET FLAT:?gBitMapOperate@@3VCBitMapOperate@@A
  025d4	e8 00 00 00 00	 call	 ?DrawLine@CBitMapOperate@@UAEXPAUHDC__@@KMHHHHH@Z ; CBitMapOperate::DrawLine

; 986  : 			gBitMapOperate.DrawLine(lDC, mcolFont, 1,  lre2.left+8, lre2.top+6, lre2.left+5, lre2.top+9, FALSE);

  025d9	6a 00		 push	 0
  025db	8b 4d d8	 mov	 ecx, DWORD PTR _lre2$[ebp+4]
  025de	83 c1 09	 add	 ecx, 9
  025e1	51		 push	 ecx
  025e2	8b 55 d4	 mov	 edx, DWORD PTR _lre2$[ebp]
  025e5	83 c2 05	 add	 edx, 5
  025e8	52		 push	 edx
  025e9	8b 45 d8	 mov	 eax, DWORD PTR _lre2$[ebp+4]
  025ec	83 c0 06	 add	 eax, 6
  025ef	50		 push	 eax
  025f0	8b 4d d4	 mov	 ecx, DWORD PTR _lre2$[ebp]
  025f3	83 c1 08	 add	 ecx, 8
  025f6	51		 push	 ecx
  025f7	68 00 00 80 3f	 push	 1065353216		; 3f800000H
  025fc	8b 95 50 fe ff
	ff		 mov	 edx, DWORD PTR _this$[ebp]
  02602	8b 82 d8 00 00
	00		 mov	 eax, DWORD PTR [edx+216]
  02608	50		 push	 eax
  02609	8d 8d 6c ff ff
	ff		 lea	 ecx, DWORD PTR _lDC$198480[ebp]
  0260f	e8 00 00 00 00	 call	 ??BCDC@@QBEPAUHDC__@@XZ	; CDC::operator HDC__ *
  02614	50		 push	 eax
  02615	b9 00 00 00 00	 mov	 ecx, OFFSET FLAT:?gBitMapOperate@@3VCBitMapOperate@@A
  0261a	e8 00 00 00 00	 call	 ?DrawLine@CBitMapOperate@@UAEXPAUHDC__@@KMHHHHH@Z ; CBitMapOperate::DrawLine

; 987  : 			gBitMapOperate.DrawLine(lDC, mcolFont, 1,  lre2.left+6, lre2.top+3, lre2.left+9, lre2.top+6, FALSE);

  0261f	6a 00		 push	 0
  02621	8b 4d d8	 mov	 ecx, DWORD PTR _lre2$[ebp+4]
  02624	83 c1 06	 add	 ecx, 6
  02627	51		 push	 ecx
  02628	8b 55 d4	 mov	 edx, DWORD PTR _lre2$[ebp]
  0262b	83 c2 09	 add	 edx, 9
  0262e	52		 push	 edx
  0262f	8b 45 d8	 mov	 eax, DWORD PTR _lre2$[ebp+4]
  02632	83 c0 03	 add	 eax, 3
  02635	50		 push	 eax
  02636	8b 4d d4	 mov	 ecx, DWORD PTR _lre2$[ebp]
  02639	83 c1 06	 add	 ecx, 6
  0263c	51		 push	 ecx
  0263d	68 00 00 80 3f	 push	 1065353216		; 3f800000H
  02642	8b 95 50 fe ff
	ff		 mov	 edx, DWORD PTR _this$[ebp]
  02648	8b 82 d8 00 00
	00		 mov	 eax, DWORD PTR [edx+216]
  0264e	50		 push	 eax
  0264f	8d 8d 6c ff ff
	ff		 lea	 ecx, DWORD PTR _lDC$198480[ebp]
  02655	e8 00 00 00 00	 call	 ??BCDC@@QBEPAUHDC__@@XZ	; CDC::operator HDC__ *
  0265a	50		 push	 eax
  0265b	b9 00 00 00 00	 mov	 ecx, OFFSET FLAT:?gBitMapOperate@@3VCBitMapOperate@@A
  02660	e8 00 00 00 00	 call	 ?DrawLine@CBitMapOperate@@UAEXPAUHDC__@@KMHHHHH@Z ; CBitMapOperate::DrawLine

; 988  : 			gBitMapOperate.DrawLine(lDC, mcolFont, 1,  lre2.left+9, lre2.top+6, lre2.left+5, lre2.top+10, FALSE);

  02665	6a 00		 push	 0
  02667	8b 4d d8	 mov	 ecx, DWORD PTR _lre2$[ebp+4]
  0266a	83 c1 0a	 add	 ecx, 10			; 0000000aH
  0266d	51		 push	 ecx
  0266e	8b 55 d4	 mov	 edx, DWORD PTR _lre2$[ebp]
  02671	83 c2 05	 add	 edx, 5
  02674	52		 push	 edx
  02675	8b 45 d8	 mov	 eax, DWORD PTR _lre2$[ebp+4]
  02678	83 c0 06	 add	 eax, 6
  0267b	50		 push	 eax
  0267c	8b 4d d4	 mov	 ecx, DWORD PTR _lre2$[ebp]
  0267f	83 c1 09	 add	 ecx, 9
  02682	51		 push	 ecx
  02683	68 00 00 80 3f	 push	 1065353216		; 3f800000H
  02688	8b 95 50 fe ff
	ff		 mov	 edx, DWORD PTR _this$[ebp]
  0268e	8b 82 d8 00 00
	00		 mov	 eax, DWORD PTR [edx+216]
  02694	50		 push	 eax
  02695	8d 8d 6c ff ff
	ff		 lea	 ecx, DWORD PTR _lDC$198480[ebp]
  0269b	e8 00 00 00 00	 call	 ??BCDC@@QBEPAUHDC__@@XZ	; CDC::operator HDC__ *
  026a0	50		 push	 eax
  026a1	b9 00 00 00 00	 mov	 ecx, OFFSET FLAT:?gBitMapOperate@@3VCBitMapOperate@@A
  026a6	e8 00 00 00 00	 call	 ?DrawLine@CBitMapOperate@@UAEXPAUHDC__@@KMHHHHH@Z ; CBitMapOperate::DrawLine

; 989  : 		}

  026ab	c7 45 fc ff ff
	ff ff		 mov	 DWORD PTR __$EHRec$[ebp+8], -1
  026b2	8d 8d 6c ff ff
	ff		 lea	 ecx, DWORD PTR _lDC$198480[ebp]
  026b8	e8 00 00 00 00	 call	 ??1CMemDC@@UAE@XZ	; CMemDC::~CMemDC

; 990  : 		break;

  026bd	e9 73 0b 00 00	 jmp	 $L198467
$L198482:

; 991  : 	case 2:		//上箭头
; 992  : 		{
; 993  : 
; 994  : 			CMemDC lDC(CDC::FromHandle(hDC), &lre1);

  026c2	8d 4d e4	 lea	 ecx, DWORD PTR _lre1$[ebp]
  026c5	51		 push	 ecx
  026c6	8d 8d 84 fe ff
	ff		 lea	 ecx, DWORD PTR $T199378[ebp]
  026cc	e8 00 00 00 00	 call	 ??0CRect@@QAE@PBUtagRECT@@@Z ; CRect::CRect
  026d1	8d 95 84 fe ff
	ff		 lea	 edx, DWORD PTR $T199378[ebp]
  026d7	52		 push	 edx
  026d8	8b 45 08	 mov	 eax, DWORD PTR _hDC$[ebp]
  026db	50		 push	 eax
  026dc	e8 00 00 00 00	 call	 ?FromHandle@CDC@@SGPAV1@PAUHDC__@@@Z ; CDC::FromHandle
  026e1	50		 push	 eax
  026e2	8d 8d 40 ff ff
	ff		 lea	 ecx, DWORD PTR _lDC$198483[ebp]
  026e8	e8 00 00 00 00	 call	 ??0CMemDC@@QAE@PAVCDC@@ABVCRect@@@Z ; CMemDC::CMemDC
  026ed	c7 45 fc 02 00
	00 00		 mov	 DWORD PTR __$EHRec$[ebp+8], 2

; 995  : 			gBitMapOperate.FillRectangle(lDC, lre1, mcolFrame1, FALSE);

  026f4	6a 00		 push	 0
  026f6	8b 8d 50 fe ff
	ff		 mov	 ecx, DWORD PTR _this$[ebp]
  026fc	8b 91 c8 00 00
	00		 mov	 edx, DWORD PTR [ecx+200]
  02702	52		 push	 edx
  02703	83 ec 10	 sub	 esp, 16			; 00000010H
  02706	8b c4		 mov	 eax, esp
  02708	8b 4d e4	 mov	 ecx, DWORD PTR _lre1$[ebp]
  0270b	89 08		 mov	 DWORD PTR [eax], ecx
  0270d	8b 55 e8	 mov	 edx, DWORD PTR _lre1$[ebp+4]
  02710	89 50 04	 mov	 DWORD PTR [eax+4], edx
  02713	8b 4d ec	 mov	 ecx, DWORD PTR _lre1$[ebp+8]
  02716	89 48 08	 mov	 DWORD PTR [eax+8], ecx
  02719	8b 55 f0	 mov	 edx, DWORD PTR _lre1$[ebp+12]
  0271c	89 50 0c	 mov	 DWORD PTR [eax+12], edx
  0271f	8d 8d 40 ff ff
	ff		 lea	 ecx, DWORD PTR _lDC$198483[ebp]
  02725	e8 00 00 00 00	 call	 ??BCDC@@QBEPAUHDC__@@XZ	; CDC::operator HDC__ *
  0272a	50		 push	 eax
  0272b	b9 00 00 00 00	 mov	 ecx, OFFSET FLAT:?gBitMapOperate@@3VCBitMapOperate@@A
  02730	e8 00 00 00 00	 call	 ?FillRectangle@CBitMapOperate@@UAEXPAUHDC__@@UtagRECT@@KH@Z ; CBitMapOperate::FillRectangle

; 996  : 			gBitMapOperate.FillRectangle(lDC, lre2, mcolFrame2, FALSE);

  02735	6a 00		 push	 0
  02737	8b 85 50 fe ff
	ff		 mov	 eax, DWORD PTR _this$[ebp]
  0273d	8b 88 cc 00 00
	00		 mov	 ecx, DWORD PTR [eax+204]
  02743	51		 push	 ecx
  02744	83 ec 10	 sub	 esp, 16			; 00000010H
  02747	8b d4		 mov	 edx, esp
  02749	8b 45 d4	 mov	 eax, DWORD PTR _lre2$[ebp]
  0274c	89 02		 mov	 DWORD PTR [edx], eax
  0274e	8b 4d d8	 mov	 ecx, DWORD PTR _lre2$[ebp+4]
  02751	89 4a 04	 mov	 DWORD PTR [edx+4], ecx
  02754	8b 45 dc	 mov	 eax, DWORD PTR _lre2$[ebp+8]
  02757	89 42 08	 mov	 DWORD PTR [edx+8], eax
  0275a	8b 4d e0	 mov	 ecx, DWORD PTR _lre2$[ebp+12]
  0275d	89 4a 0c	 mov	 DWORD PTR [edx+12], ecx
  02760	8d 8d 40 ff ff
	ff		 lea	 ecx, DWORD PTR _lDC$198483[ebp]
  02766	e8 00 00 00 00	 call	 ??BCDC@@QBEPAUHDC__@@XZ	; CDC::operator HDC__ *
  0276b	50		 push	 eax
  0276c	b9 00 00 00 00	 mov	 ecx, OFFSET FLAT:?gBitMapOperate@@3VCBitMapOperate@@A
  02771	e8 00 00 00 00	 call	 ?FillRectangle@CBitMapOperate@@UAEXPAUHDC__@@UtagRECT@@KH@Z ; CBitMapOperate::FillRectangle

; 997  : 			gBitMapOperate.FillRectangle(lDC, lre3, mcolBtn1,mcolBtn2,gBitMapOperate.edoVertical,FALSE);

  02776	6a 01		 push	 1
  02778	6a 00		 push	 0
  0277a	6a 01		 push	 1
  0277c	8b 95 50 fe ff
	ff		 mov	 edx, DWORD PTR _this$[ebp]
  02782	8b 82 d4 00 00
	00		 mov	 eax, DWORD PTR [edx+212]
  02788	50		 push	 eax
  02789	8b 8d 50 fe ff
	ff		 mov	 ecx, DWORD PTR _this$[ebp]
  0278f	8b 91 d0 00 00
	00		 mov	 edx, DWORD PTR [ecx+208]
  02795	52		 push	 edx
  02796	83 ec 10	 sub	 esp, 16			; 00000010H
  02799	8b c4		 mov	 eax, esp
  0279b	8b 4d c4	 mov	 ecx, DWORD PTR _lre3$[ebp]
  0279e	89 08		 mov	 DWORD PTR [eax], ecx
  027a0	8b 55 c8	 mov	 edx, DWORD PTR _lre3$[ebp+4]
  027a3	89 50 04	 mov	 DWORD PTR [eax+4], edx
  027a6	8b 4d cc	 mov	 ecx, DWORD PTR _lre3$[ebp+8]
  027a9	89 48 08	 mov	 DWORD PTR [eax+8], ecx
  027ac	8b 55 d0	 mov	 edx, DWORD PTR _lre3$[ebp+12]
  027af	89 50 0c	 mov	 DWORD PTR [eax+12], edx
  027b2	8d 8d 40 ff ff
	ff		 lea	 ecx, DWORD PTR _lDC$198483[ebp]
  027b8	e8 00 00 00 00	 call	 ??BCDC@@QBEPAUHDC__@@XZ	; CDC::operator HDC__ *
  027bd	50		 push	 eax
  027be	b9 00 00 00 00	 mov	 ecx, OFFSET FLAT:?gBitMapOperate@@3VCBitMapOperate@@A
  027c3	e8 00 00 00 00	 call	 ?FillRectangle@CBitMapOperate@@UAEXPAUHDC__@@UtagRECT@@KKW4ENUM_DrawOrientation@1@HI@Z ; CBitMapOperate::FillRectangle

; 998  : 			SetPixel(lDC,lre1.left,lre1.top, mcolNormal1);

  027c8	8b 85 50 fe ff
	ff		 mov	 eax, DWORD PTR _this$[ebp]
  027ce	8b 88 b0 00 00
	00		 mov	 ecx, DWORD PTR [eax+176]
  027d4	51		 push	 ecx
  027d5	8b 55 e8	 mov	 edx, DWORD PTR _lre1$[ebp+4]
  027d8	52		 push	 edx
  027d9	8b 45 e4	 mov	 eax, DWORD PTR _lre1$[ebp]
  027dc	50		 push	 eax
  027dd	8d 8d 40 ff ff
	ff		 lea	 ecx, DWORD PTR _lDC$198483[ebp]
  027e3	e8 00 00 00 00	 call	 ??BCDC@@QBEPAUHDC__@@XZ	; CDC::operator HDC__ *
  027e8	50		 push	 eax
  027e9	ff 15 00 00 00
	00		 call	 DWORD PTR __imp__SetPixel@16

; 999  : 			SetPixel(lDC,lre1.right -1,lre1.top, mcolNormal1);

  027ef	8b 8d 50 fe ff
	ff		 mov	 ecx, DWORD PTR _this$[ebp]
  027f5	8b 91 b0 00 00
	00		 mov	 edx, DWORD PTR [ecx+176]
  027fb	52		 push	 edx
  027fc	8b 45 e8	 mov	 eax, DWORD PTR _lre1$[ebp+4]
  027ff	50		 push	 eax
  02800	8b 4d ec	 mov	 ecx, DWORD PTR _lre1$[ebp+8]
  02803	83 e9 01	 sub	 ecx, 1
  02806	51		 push	 ecx
  02807	8d 8d 40 ff ff
	ff		 lea	 ecx, DWORD PTR _lDC$198483[ebp]
  0280d	e8 00 00 00 00	 call	 ??BCDC@@QBEPAUHDC__@@XZ	; CDC::operator HDC__ *
  02812	50		 push	 eax
  02813	ff 15 00 00 00
	00		 call	 DWORD PTR __imp__SetPixel@16

; 1000 : 			SetPixel(lDC,lre1.right -1,lre1.bottom-1, mcolNormal1);

  02819	8b 95 50 fe ff
	ff		 mov	 edx, DWORD PTR _this$[ebp]
  0281f	8b 82 b0 00 00
	00		 mov	 eax, DWORD PTR [edx+176]
  02825	50		 push	 eax
  02826	8b 4d f0	 mov	 ecx, DWORD PTR _lre1$[ebp+12]
  02829	83 e9 01	 sub	 ecx, 1
  0282c	51		 push	 ecx
  0282d	8b 55 ec	 mov	 edx, DWORD PTR _lre1$[ebp+8]
  02830	83 ea 01	 sub	 edx, 1
  02833	52		 push	 edx
  02834	8d 8d 40 ff ff
	ff		 lea	 ecx, DWORD PTR _lDC$198483[ebp]
  0283a	e8 00 00 00 00	 call	 ??BCDC@@QBEPAUHDC__@@XZ	; CDC::operator HDC__ *
  0283f	50		 push	 eax
  02840	ff 15 00 00 00
	00		 call	 DWORD PTR __imp__SetPixel@16

; 1001 : 			SetPixel(lDC,lre1.left,lre1.bottom-1, mcolNormal1);

  02846	8b 85 50 fe ff
	ff		 mov	 eax, DWORD PTR _this$[ebp]
  0284c	8b 88 b0 00 00
	00		 mov	 ecx, DWORD PTR [eax+176]
  02852	51		 push	 ecx
  02853	8b 55 f0	 mov	 edx, DWORD PTR _lre1$[ebp+12]
  02856	83 ea 01	 sub	 edx, 1
  02859	52		 push	 edx
  0285a	8b 45 e4	 mov	 eax, DWORD PTR _lre1$[ebp]
  0285d	50		 push	 eax
  0285e	8d 8d 40 ff ff
	ff		 lea	 ecx, DWORD PTR _lDC$198483[ebp]
  02864	e8 00 00 00 00	 call	 ??BCDC@@QBEPAUHDC__@@XZ	; CDC::operator HDC__ *
  02869	50		 push	 eax
  0286a	ff 15 00 00 00
	00		 call	 DWORD PTR __imp__SetPixel@16

; 1002 : 
; 1003 : 			lre2.left = lre2.left -1;

  02870	8b 4d d4	 mov	 ecx, DWORD PTR _lre2$[ebp]
  02873	83 e9 01	 sub	 ecx, 1
  02876	89 4d d4	 mov	 DWORD PTR _lre2$[ebp], ecx

; 1004 : 			lre2.top = lre2.top -1;

  02879	8b 55 d8	 mov	 edx, DWORD PTR _lre2$[ebp+4]
  0287c	83 ea 01	 sub	 edx, 1
  0287f	89 55 d8	 mov	 DWORD PTR _lre2$[ebp+4], edx

; 1005 : 			gBitMapOperate.DrawLine(lDC, mcolFont, 1,  lre2.left+5, lre2.top+7, lre2.left+7, lre2.top+5, FALSE);

  02882	6a 00		 push	 0
  02884	8b 45 d8	 mov	 eax, DWORD PTR _lre2$[ebp+4]
  02887	83 c0 05	 add	 eax, 5
  0288a	50		 push	 eax
  0288b	8b 4d d4	 mov	 ecx, DWORD PTR _lre2$[ebp]
  0288e	83 c1 07	 add	 ecx, 7
  02891	51		 push	 ecx
  02892	8b 55 d8	 mov	 edx, DWORD PTR _lre2$[ebp+4]
  02895	83 c2 07	 add	 edx, 7
  02898	52		 push	 edx
  02899	8b 45 d4	 mov	 eax, DWORD PTR _lre2$[ebp]
  0289c	83 c0 05	 add	 eax, 5
  0289f	50		 push	 eax
  028a0	68 00 00 80 3f	 push	 1065353216		; 3f800000H
  028a5	8b 8d 50 fe ff
	ff		 mov	 ecx, DWORD PTR _this$[ebp]
  028ab	8b 91 d8 00 00
	00		 mov	 edx, DWORD PTR [ecx+216]
  028b1	52		 push	 edx
  028b2	8d 8d 40 ff ff
	ff		 lea	 ecx, DWORD PTR _lDC$198483[ebp]
  028b8	e8 00 00 00 00	 call	 ??BCDC@@QBEPAUHDC__@@XZ	; CDC::operator HDC__ *
  028bd	50		 push	 eax
  028be	b9 00 00 00 00	 mov	 ecx, OFFSET FLAT:?gBitMapOperate@@3VCBitMapOperate@@A
  028c3	e8 00 00 00 00	 call	 ?DrawLine@CBitMapOperate@@UAEXPAUHDC__@@KMHHHHH@Z ; CBitMapOperate::DrawLine

; 1006 : 			gBitMapOperate.DrawLine(lDC, mcolFont, 1,  lre2.left+7, lre2.top+5, lre2.left+10, lre2.top+8, FALSE);

  028c8	6a 00		 push	 0
  028ca	8b 45 d8	 mov	 eax, DWORD PTR _lre2$[ebp+4]
  028cd	83 c0 08	 add	 eax, 8
  028d0	50		 push	 eax
  028d1	8b 4d d4	 mov	 ecx, DWORD PTR _lre2$[ebp]
  028d4	83 c1 0a	 add	 ecx, 10			; 0000000aH
  028d7	51		 push	 ecx
  028d8	8b 55 d8	 mov	 edx, DWORD PTR _lre2$[ebp+4]
  028db	83 c2 05	 add	 edx, 5
  028de	52		 push	 edx
  028df	8b 45 d4	 mov	 eax, DWORD PTR _lre2$[ebp]
  028e2	83 c0 07	 add	 eax, 7
  028e5	50		 push	 eax
  028e6	68 00 00 80 3f	 push	 1065353216		; 3f800000H
  028eb	8b 8d 50 fe ff
	ff		 mov	 ecx, DWORD PTR _this$[ebp]
  028f1	8b 91 d8 00 00
	00		 mov	 edx, DWORD PTR [ecx+216]
  028f7	52		 push	 edx
  028f8	8d 8d 40 ff ff
	ff		 lea	 ecx, DWORD PTR _lDC$198483[ebp]
  028fe	e8 00 00 00 00	 call	 ??BCDC@@QBEPAUHDC__@@XZ	; CDC::operator HDC__ *
  02903	50		 push	 eax
  02904	b9 00 00 00 00	 mov	 ecx, OFFSET FLAT:?gBitMapOperate@@3VCBitMapOperate@@A
  02909	e8 00 00 00 00	 call	 ?DrawLine@CBitMapOperate@@UAEXPAUHDC__@@KMHHHHH@Z ; CBitMapOperate::DrawLine

; 1007 : 			gBitMapOperate.DrawLine(lDC, mcolFont, 1,  lre2.left+4, lre2.top+7, lre2.left+7, lre2.top+4, FALSE);

  0290e	6a 00		 push	 0
  02910	8b 45 d8	 mov	 eax, DWORD PTR _lre2$[ebp+4]
  02913	83 c0 04	 add	 eax, 4
  02916	50		 push	 eax
  02917	8b 4d d4	 mov	 ecx, DWORD PTR _lre2$[ebp]
  0291a	83 c1 07	 add	 ecx, 7
  0291d	51		 push	 ecx
  0291e	8b 55 d8	 mov	 edx, DWORD PTR _lre2$[ebp+4]
  02921	83 c2 07	 add	 edx, 7
  02924	52		 push	 edx
  02925	8b 45 d4	 mov	 eax, DWORD PTR _lre2$[ebp]
  02928	83 c0 04	 add	 eax, 4
  0292b	50		 push	 eax
  0292c	68 00 00 80 3f	 push	 1065353216		; 3f800000H
  02931	8b 8d 50 fe ff
	ff		 mov	 ecx, DWORD PTR _this$[ebp]
  02937	8b 91 d8 00 00
	00		 mov	 edx, DWORD PTR [ecx+216]
  0293d	52		 push	 edx
  0293e	8d 8d 40 ff ff
	ff		 lea	 ecx, DWORD PTR _lDC$198483[ebp]
  02944	e8 00 00 00 00	 call	 ??BCDC@@QBEPAUHDC__@@XZ	; CDC::operator HDC__ *
  02949	50		 push	 eax
  0294a	b9 00 00 00 00	 mov	 ecx, OFFSET FLAT:?gBitMapOperate@@3VCBitMapOperate@@A
  0294f	e8 00 00 00 00	 call	 ?DrawLine@CBitMapOperate@@UAEXPAUHDC__@@KMHHHHH@Z ; CBitMapOperate::DrawLine

; 1008 : 			gBitMapOperate.DrawLine(lDC, mcolFont, 1,  lre2.left+7, lre2.top+4, lre2.left+11, lre2.top+8, FALSE);

  02954	6a 00		 push	 0
  02956	8b 45 d8	 mov	 eax, DWORD PTR _lre2$[ebp+4]
  02959	83 c0 08	 add	 eax, 8
  0295c	50		 push	 eax
  0295d	8b 4d d4	 mov	 ecx, DWORD PTR _lre2$[ebp]
  02960	83 c1 0b	 add	 ecx, 11			; 0000000bH
  02963	51		 push	 ecx
  02964	8b 55 d8	 mov	 edx, DWORD PTR _lre2$[ebp+4]
  02967	83 c2 04	 add	 edx, 4
  0296a	52		 push	 edx
  0296b	8b 45 d4	 mov	 eax, DWORD PTR _lre2$[ebp]
  0296e	83 c0 07	 add	 eax, 7
  02971	50		 push	 eax
  02972	68 00 00 80 3f	 push	 1065353216		; 3f800000H
  02977	8b 8d 50 fe ff
	ff		 mov	 ecx, DWORD PTR _this$[ebp]
  0297d	8b 91 d8 00 00
	00		 mov	 edx, DWORD PTR [ecx+216]
  02983	52		 push	 edx
  02984	8d 8d 40 ff ff
	ff		 lea	 ecx, DWORD PTR _lDC$198483[ebp]
  0298a	e8 00 00 00 00	 call	 ??BCDC@@QBEPAUHDC__@@XZ	; CDC::operator HDC__ *
  0298f	50		 push	 eax
  02990	b9 00 00 00 00	 mov	 ecx, OFFSET FLAT:?gBitMapOperate@@3VCBitMapOperate@@A
  02995	e8 00 00 00 00	 call	 ?DrawLine@CBitMapOperate@@UAEXPAUHDC__@@KMHHHHH@Z ; CBitMapOperate::DrawLine

; 1009 : 
; 1010 : 		}

  0299a	c7 45 fc ff ff
	ff ff		 mov	 DWORD PTR __$EHRec$[ebp+8], -1
  029a1	8d 8d 40 ff ff
	ff		 lea	 ecx, DWORD PTR _lDC$198483[ebp]
  029a7	e8 00 00 00 00	 call	 ??1CMemDC@@UAE@XZ	; CMemDC::~CMemDC

; 1011 : 		break;

  029ac	e9 84 08 00 00	 jmp	 $L198467
$L198485:

; 1012 : 	case 3:		//下箭头
; 1013 : 		{
; 1014 : 			CMemDC lDC(CDC::FromHandle(hDC), &lre1);

  029b1	8d 45 e4	 lea	 eax, DWORD PTR _lre1$[ebp]
  029b4	50		 push	 eax
  029b5	8d 8d 74 fe ff
	ff		 lea	 ecx, DWORD PTR $T199379[ebp]
  029bb	e8 00 00 00 00	 call	 ??0CRect@@QAE@PBUtagRECT@@@Z ; CRect::CRect
  029c0	8d 8d 74 fe ff
	ff		 lea	 ecx, DWORD PTR $T199379[ebp]
  029c6	51		 push	 ecx
  029c7	8b 55 08	 mov	 edx, DWORD PTR _hDC$[ebp]
  029ca	52		 push	 edx
  029cb	e8 00 00 00 00	 call	 ?FromHandle@CDC@@SGPAV1@PAUHDC__@@@Z ; CDC::FromHandle
  029d0	50		 push	 eax
  029d1	8d 8d 14 ff ff
	ff		 lea	 ecx, DWORD PTR _lDC$198486[ebp]
  029d7	e8 00 00 00 00	 call	 ??0CMemDC@@QAE@PAVCDC@@ABVCRect@@@Z ; CMemDC::CMemDC
  029dc	c7 45 fc 03 00
	00 00		 mov	 DWORD PTR __$EHRec$[ebp+8], 3

