; Listing generated by Microsoft (R) Optimizing Compiler Version 13.10.3077 

	TITLE	.\src\AppConfig\config\SetBaseCtrls\SetBaseStatic.cpp
	.386P
include listing.inc
if @Version gt 510
.model FLAT
else
_TEXT	SEGMENT PARA USE32 PUBLIC 'CODE'
_TEXT	ENDS
_DATA	SEGMENT DWORD USE32 PUBLIC 'DATA'
_DATA	ENDS
CONST	SEGMENT DWORD USE32 PUBLIC 'CONST'
CONST	ENDS
_BSS	SEGMENT DWORD USE32 PUBLIC 'BSS'
_BSS	ENDS
$$SYMBOLS	SEGMENT BYTE USE32 'DEBSYM'
$$SYMBOLS	ENDS
$$TYPES	SEGMENT BYTE USE32 'DEBTYP'
$$TYPES	ENDS
_TLS	SEGMENT DWORD USE32 PUBLIC 'TLS'
_TLS	ENDS
rdata$r	SEGMENT DWORD USE32 PUBLIC 'CONST'
rdata$r	ENDS
xdata$x	SEGMENT DWORD USE32 PUBLIC 'CONST'
xdata$x	ENDS
text$AFX_COL1	SEGMENT PARA USE32 PUBLIC ''
text$AFX_COL1	ENDS
text$yc	SEGMENT PARA USE32 PUBLIC 'CODE'
text$yc	ENDS
CRT$XCA	SEGMENT DWORD USE32 PUBLIC 'DATA'
CRT$XCA	ENDS
CRT$XCU	SEGMENT DWORD USE32 PUBLIC 'DATA'
CRT$XCU	ENDS
CRT$XCL	SEGMENT DWORD USE32 PUBLIC 'DATA'
CRT$XCL	ENDS
CRT$XCC	SEGMENT DWORD USE32 PUBLIC 'DATA'
CRT$XCC	ENDS
CRT$XCZ	SEGMENT DWORD USE32 PUBLIC 'DATA'
CRT$XCZ	ENDS
text$yd	SEGMENT PARA USE32 PUBLIC 'CODE'
text$yd	ENDS
ATL$__m	SEGMENT DWORD USE32 PUBLIC ''
ATL$__m	ENDS
ATL$__z	SEGMENT DWORD USE32 PUBLIC ''
ATL$__z	ENDS
ATL$__a	SEGMENT DWORD USE32 PUBLIC ''
ATL$__a	ENDS
;	COMDAT ??_GSetBaseStatic@@UAEPAXI@Z
_TEXT	SEGMENT PARA USE32 PUBLIC 'CODE'
_TEXT	ENDS
;	COMDAT ??B?$CComPtrBase@UITypeInfo2@@@ATL@@QBEPAUITypeInfo2@@XZ
_TEXT	SEGMENT PARA USE32 PUBLIC 'CODE'
_TEXT	ENDS
;	COMDAT ?equal@?$istreambuf_iterator@DU?$char_traits@D@std@@@std@@QBE_NABV12@@Z
_TEXT	SEGMENT PARA USE32 PUBLIC 'CODE'
_TEXT	ENDS
;	COMDAT ?equal@?$istreambuf_iterator@_WU?$char_traits@_W@std@@@std@@QBE_NABV12@@Z
_TEXT	SEGMENT PARA USE32 PUBLIC 'CODE'
_TEXT	ENDS
;	COMDAT ?Unlock@?$CComCritSecLock@VCComCriticalSection@ATL@@@ATL@@QAEXXZ
_TEXT	SEGMENT PARA USE32 PUBLIC 'CODE'
_TEXT	ENDS
;	COMDAT ??$_Maklocstr@D@std@@YAPADPBDPADABU_Cvtvec@@@Z
_TEXT	SEGMENT PARA USE32 PUBLIC 'CODE'
_TEXT	ENDS
;	COMDAT ??_R3SetBaseStatic@@8
rdata$r	SEGMENT DWORD USE32 PUBLIC 'CONST'
rdata$r	ENDS
;	COMDAT ??_R3?$numpunct@_W@std@@8
rdata$r	SEGMENT DWORD USE32 PUBLIC 'CONST'
rdata$r	ENDS
;	COMDAT ??_R3?$numpunct@D@std@@8
rdata$r	SEGMENT DWORD USE32 PUBLIC 'CONST'
rdata$r	ENDS
;	COMDAT ??_R2SetBaseStatic@@8
rdata$r	SEGMENT DWORD USE32 PUBLIC 'CONST'
rdata$r	ENDS
;	COMDAT ??_R2?$numpunct@_W@std@@8
rdata$r	SEGMENT DWORD USE32 PUBLIC 'CONST'
rdata$r	ENDS
;	COMDAT ??_R2?$numpunct@D@std@@8
rdata$r	SEGMENT DWORD USE32 PUBLIC 'CONST'
rdata$r	ENDS
;	COMDAT ??_R1A@?0A@A@CObject@@8
rdata$r	SEGMENT DWORD USE32 PUBLIC 'CONST'
rdata$r	ENDS
;	COMDAT ??_R0?AVCObject@@@8
_DATA	SEGMENT DWORD USE32 PUBLIC 'DATA'
_DATA	ENDS
;	COMDAT ??_R1A@?0A@A@CCmdTarget@@8
rdata$r	SEGMENT DWORD USE32 PUBLIC 'CONST'
rdata$r	ENDS
;	COMDAT ??_R0?AVCCmdTarget@@@8
_DATA	SEGMENT DWORD USE32 PUBLIC 'DATA'
_DATA	ENDS
;	COMDAT ??_R1A@?0A@A@CWnd@@8
rdata$r	SEGMENT DWORD USE32 PUBLIC 'CONST'
rdata$r	ENDS
;	COMDAT ??_R0?AVCWnd@@@8
_DATA	SEGMENT DWORD USE32 PUBLIC 'DATA'
_DATA	ENDS
;	COMDAT ??_R1A@?0A@A@CStatic@@8
rdata$r	SEGMENT DWORD USE32 PUBLIC 'CONST'
rdata$r	ENDS
;	COMDAT ??_R0?AVCStatic@@@8
_DATA	SEGMENT DWORD USE32 PUBLIC 'DATA'
_DATA	ENDS
;	COMDAT ??_R1A@?0A@A@SetBaseStatic@@8
rdata$r	SEGMENT DWORD USE32 PUBLIC 'CONST'
rdata$r	ENDS
;	COMDAT ??_R1A@?0A@A@?$numpunct@_W@std@@8
rdata$r	SEGMENT DWORD USE32 PUBLIC 'CONST'
rdata$r	ENDS
;	COMDAT ??_R1A@?0A@A@facet@locale@std@@8
rdata$r	SEGMENT DWORD USE32 PUBLIC 'CONST'
rdata$r	ENDS
;	COMDAT ??_R0?AVfacet@locale@std@@@8
_DATA	SEGMENT DWORD USE32 PUBLIC 'DATA'
_DATA	ENDS
;	COMDAT ??_R1A@?0A@A@?$numpunct@D@std@@8
rdata$r	SEGMENT DWORD USE32 PUBLIC 'CONST'
rdata$r	ENDS
;	COMDAT ??_R0?AVSetBaseStatic@@@8
_DATA	SEGMENT DWORD USE32 PUBLIC 'DATA'
_DATA	ENDS
;	COMDAT ??_R0?AV?$numpunct@_W@std@@@8
_DATA	SEGMENT DWORD USE32 PUBLIC 'DATA'
_DATA	ENDS
;	COMDAT ??_R0?AV?$numpunct@D@std@@@8
_DATA	SEGMENT DWORD USE32 PUBLIC 'DATA'
_DATA	ENDS
;	COMDAT ?EndModalState@CWnd@@UAEXXZ
_TEXT	SEGMENT PARA USE32 PUBLIC 'CODE'
_TEXT	ENDS
;	COMDAT ?BeginModalState@CWnd@@UAEXXZ
_TEXT	SEGMENT PARA USE32 PUBLIC 'CODE'
_TEXT	ENDS
;	COMDAT ?DoDataExchange@CWnd@@MAEXPAVCDataExchange@@@Z
_TEXT	SEGMENT PARA USE32 PUBLIC 'CODE'
_TEXT	ENDS
;	COMDAT ?Dump@CObject@@UBEXAAVCDumpContext@@@Z
_TEXT	SEGMENT PARA USE32 PUBLIC 'CODE'
_TEXT	ENDS
;	COMDAT ?AssertValid@CObject@@UBEXXZ
_TEXT	SEGMENT PARA USE32 PUBLIC 'CODE'
_TEXT	ENDS
;	COMDAT ?Serialize@CObject@@UAEXAAVCArchive@@@Z
_TEXT	SEGMENT PARA USE32 PUBLIC 'CODE'
_TEXT	ENDS
;	COMDAT ??_R4SetBaseStatic@@6B@
rdata$r	SEGMENT DWORD USE32 PUBLIC 'CONST'
rdata$r	ENDS
;	COMDAT ??0?$allocator@_W@std@@QAE@XZ
_TEXT	SEGMENT PARA USE32 PUBLIC 'CODE'
_TEXT	ENDS
;	COMDAT ??0?$allocator@D@std@@QAE@ABV01@@Z
_TEXT	SEGMENT PARA USE32 PUBLIC 'CODE'
_TEXT	ENDS
;	COMDAT ??0?$allocator@D@std@@QAE@XZ
_TEXT	SEGMENT PARA USE32 PUBLIC 'CODE'
_TEXT	ENDS
;	COMDAT ?deallocate@?$allocator@D@std@@QAEXPADI@Z
_TEXT	SEGMENT PARA USE32 PUBLIC 'CODE'
_TEXT	ENDS
;	COMDAT ?max_size@?$allocator@D@std@@QBEIXZ
_TEXT	SEGMENT PARA USE32 PUBLIC 'CODE'
_TEXT	ENDS
;	COMDAT ?allocate@?$allocator@D@std@@QAEPADI@Z
_TEXT	SEGMENT PARA USE32 PUBLIC 'CODE'
_TEXT	ENDS
;	COMDAT ??$_Allocate@D@std@@YAPADIPAD@Z
_TEXT	SEGMENT PARA USE32 PUBLIC 'CODE'
_TEXT	ENDS
;	COMDAT ??_G?$numpunct@_W@std@@MAEPAXI@Z
_TEXT	SEGMENT PARA USE32 PUBLIC 'CODE'
_TEXT	ENDS
;	COMDAT ??_R4?$numpunct@_W@std@@6B@
rdata$r	SEGMENT DWORD USE32 PUBLIC 'CONST'
rdata$r	ENDS
;	COMDAT ??_G?$numpunct@D@std@@MAEPAXI@Z
_TEXT	SEGMENT PARA USE32 PUBLIC 'CODE'
_TEXT	ENDS
;	COMDAT ??_R4?$numpunct@D@std@@6B@
rdata$r	SEGMENT DWORD USE32 PUBLIC 'CONST'
rdata$r	ENDS
;	COMDAT ?_Psave@?$_Facetptr@V?$numpunct@_W@std@@@std@@2PBVfacet@locale@2@B
_DATA	SEGMENT DWORD USE32 PUBLIC 'DATA'
_DATA	ENDS
;	COMDAT ?_Psave@?$_Facetptr@V?$numpunct@D@std@@@std@@2PBVfacet@locale@2@B
_DATA	SEGMENT DWORD USE32 PUBLIC 'DATA'
_DATA	ENDS
;	COMDAT ?Unlock@CComCriticalSection@ATL@@QAEJXZ
_TEXT	SEGMENT PARA USE32 PUBLIC 'CODE'
_TEXT	ENDS
;	COMDAT ?_Psave@?$_Facetptr@V?$ctype@_W@std@@@std@@2PBVfacet@locale@2@B
_DATA	SEGMENT DWORD USE32 PUBLIC 'DATA'
_DATA	ENDS
;	COMDAT ?_Psave@?$_Facetptr@V?$ctype@D@std@@@std@@2PBVfacet@locale@2@B
_DATA	SEGMENT DWORD USE32 PUBLIC 'DATA'
_DATA	ENDS
;	COMDAT ??$_Maklocchr@_W@std@@YA_WDPA_WABU_Cvtvec@@@Z
_TEXT	SEGMENT PARA USE32 PUBLIC 'CODE'
_TEXT	ENDS
;	COMDAT ??$_Maklocstr@_W@std@@YAPA_WPBDPA_WABU_Cvtvec@@@Z
_TEXT	SEGMENT PARA USE32 PUBLIC 'CODE'
_TEXT	ENDS
;	COMDAT ??$_Maklocchr@D@std@@YADDPADABU_Cvtvec@@@Z
_TEXT	SEGMENT PARA USE32 PUBLIC 'CODE'
_TEXT	ENDS
;	COMDAT ??_C@_04LOAJBDKD@true?$AA@
CONST	SEGMENT DWORD USE32 PUBLIC 'CONST'
CONST	ENDS
;	COMDAT ??_C@_05LAPONLG@false?$AA@
CONST	SEGMENT DWORD USE32 PUBLIC 'CONST'
CONST	ENDS
;	COMDAT _wmemcpy
_TEXT	SEGMENT PARA USE32 PUBLIC 'CODE'
_TEXT	ENDS
;	COMDAT ?max_size@?$allocator@_W@std@@QBEIXZ
_TEXT	SEGMENT PARA USE32 PUBLIC 'CODE'
_TEXT	ENDS
;	COMDAT ?allocate@?$allocator@_W@std@@QAEPA_WI@Z
_TEXT	SEGMENT PARA USE32 PUBLIC 'CODE'
_TEXT	ENDS
;	COMDAT ??$_Allocate@_W@std@@YAPA_WIPA_W@Z
_TEXT	SEGMENT PARA USE32 PUBLIC 'CODE'
_TEXT	ENDS
;	COMDAT ??_C@_01GFHCPBMG@C?$AA@
CONST	SEGMENT DWORD USE32 PUBLIC 'CONST'
CONST	ENDS
;	COMDAT ?_Peek@?$istreambuf_iterator@_WU?$char_traits@_W@std@@@std@@AAE_WXZ
_TEXT	SEGMENT PARA USE32 PUBLIC 'CODE'
_TEXT	ENDS
;	COMDAT ?_Peek@?$istreambuf_iterator@DU?$char_traits@D@std@@@std@@AAEDXZ
_TEXT	SEGMENT PARA USE32 PUBLIC 'CODE'
_TEXT	ENDS
;	COMDAT ??$use_facet@V?$ctype@_W@std@@@std@@YAABV?$ctype@_W@0@ABVlocale@0@@Z
_TEXT	SEGMENT PARA USE32 PUBLIC 'CODE'
_TEXT	ENDS
;	COMDAT ??_S?$ctype@_W@std@@6B@
CONST	SEGMENT DWORD USE32 PUBLIC 'CONST'
CONST	ENDS
;	COMDAT ??_R4?$ctype@_W@std@@6B@
rdata$r	SEGMENT DWORD USE32 PUBLIC 'CONST'
rdata$r	ENDS
;	COMDAT ??_R0?AV?$ctype@_W@std@@@8
_DATA	SEGMENT DWORD USE32 PUBLIC 'DATA'
_DATA	ENDS
;	COMDAT ??_R3?$ctype@_W@std@@8
rdata$r	SEGMENT DWORD USE32 PUBLIC 'CONST'
rdata$r	ENDS
;	COMDAT ??_R2?$ctype@_W@std@@8
rdata$r	SEGMENT DWORD USE32 PUBLIC 'CONST'
rdata$r	ENDS
;	COMDAT ??_R1A@?0A@A@?$ctype@_W@std@@8
rdata$r	SEGMENT DWORD USE32 PUBLIC 'CONST'
rdata$r	ENDS
;	COMDAT ??_R1A@?0A@A@ctype_base@std@@8
rdata$r	SEGMENT DWORD USE32 PUBLIC 'CONST'
rdata$r	ENDS
;	COMDAT ??_R0?AUctype_base@std@@@8
_DATA	SEGMENT DWORD USE32 PUBLIC 'DATA'
_DATA	ENDS
;	COMDAT ??_G?$ctype@_W@std@@MAEPAXI@Z
_TEXT	SEGMENT PARA USE32 PUBLIC 'CODE'
_TEXT	ENDS
;	COMDAT ??_C@_08EPJLHIJG@bad?5cast?$AA@
CONST	SEGMENT DWORD USE32 PUBLIC 'CONST'
CONST	ENDS
;	COMDAT __TI2?AVbad_cast@@
xdata$x	SEGMENT DWORD USE32 PUBLIC 'CONST'
xdata$x	ENDS
;	COMDAT __CTA2?AVbad_cast@@
xdata$x	SEGMENT DWORD USE32 PUBLIC 'CONST'
xdata$x	ENDS
;	COMDAT __CT??_R0?AVbad_cast@@@8??0bad_cast@@QAE@ABV0@@Z12
xdata$x	SEGMENT DWORD USE32 PUBLIC 'CONST'
xdata$x	ENDS
;	COMDAT ??_R0?AVbad_cast@@@8
_DATA	SEGMENT DWORD USE32 PUBLIC 'DATA'
_DATA	ENDS
;	COMDAT __CT??_R0?AVexception@@@8??0exception@@QAE@ABV0@@Z12
xdata$x	SEGMENT DWORD USE32 PUBLIC 'CONST'
xdata$x	ENDS
;	COMDAT ??_R0?AVexception@@@8
_DATA	SEGMENT DWORD USE32 PUBLIC 'DATA'
_DATA	ENDS
;	COMDAT ??$use_facet@V?$ctype@D@std@@@std@@YAABV?$ctype@D@0@ABVlocale@0@@Z
_TEXT	SEGMENT PARA USE32 PUBLIC 'CODE'
_TEXT	ENDS
;	COMDAT ??_S?$ctype@D@std@@6B@
CONST	SEGMENT DWORD USE32 PUBLIC 'CONST'
CONST	ENDS
;	COMDAT ??_R4?$ctype@D@std@@6B@
rdata$r	SEGMENT DWORD USE32 PUBLIC 'CONST'
rdata$r	ENDS
;	COMDAT ??_R0?AV?$ctype@D@std@@@8
_DATA	SEGMENT DWORD USE32 PUBLIC 'DATA'
_DATA	ENDS
;	COMDAT ??_R3?$ctype@D@std@@8
rdata$r	SEGMENT DWORD USE32 PUBLIC 'CONST'
rdata$r	ENDS
;	COMDAT ??_R2?$ctype@D@std@@8
rdata$r	SEGMENT DWORD USE32 PUBLIC 'CONST'
rdata$r	ENDS
;	COMDAT ??_R1A@?0A@A@?$ctype@D@std@@8
rdata$r	SEGMENT DWORD USE32 PUBLIC 'CONST'
rdata$r	ENDS
;	COMDAT ??_G?$ctype@D@std@@MAEPAXI@Z
_TEXT	SEGMENT PARA USE32 PUBLIC 'CODE'
_TEXT	ENDS
;	COMDAT ??_S?$numpunct@_W@std@@6B@
CONST	SEGMENT DWORD USE32 PUBLIC 'CONST'
CONST	ENDS
;	COMDAT ??_S?$numpunct@D@std@@6B@
CONST	SEGMENT DWORD USE32 PUBLIC 'CONST'
CONST	ENDS
;	COMDAT _wmemmove
_TEXT	SEGMENT PARA USE32 PUBLIC 'CODE'
_TEXT	ENDS
;	COMDAT ?deallocate@?$allocator@_W@std@@QAEXPA_WI@Z
_TEXT	SEGMENT PARA USE32 PUBLIC 'CODE'
_TEXT	ENDS
;	COMDAT ??0?$allocator@_W@std@@QAE@ABV01@@Z
_TEXT	SEGMENT PARA USE32 PUBLIC 'CODE'
_TEXT	ENDS
;	COMDAT ?UpdateWindow@CWnd@@QAEXXZ
_TEXT	SEGMENT PARA USE32 PUBLIC 'CODE'
_TEXT	ENDS
;	COMDAT ?InvalidateRect@CWnd@@QAEXPBUtagRECT@@H@Z
_TEXT	SEGMENT PARA USE32 PUBLIC 'CODE'
_TEXT	ENDS
;	COMDAT ?GetParent@CWnd@@QBEPAV1@XZ
_TEXT	SEGMENT PARA USE32 PUBLIC 'CODE'
_TEXT	ENDS
;	COMDAT ?GetWindowRect@CWnd@@QBEXPAUtagRECT@@@Z
_TEXT	SEGMENT PARA USE32 PUBLIC 'CODE'
_TEXT	ENDS
;	COMDAT ??0CRect@@QAE@XZ
_TEXT	SEGMENT PARA USE32 PUBLIC 'CODE'
_TEXT	ENDS
;	COMDAT ?CreateFontIndirectA@CFont@@QAEHPBUtagLOGFONTA@@@Z
_TEXT	SEGMENT PARA USE32 PUBLIC 'CODE'
_TEXT	ENDS
;	COMDAT ??1CFont@@UAE@XZ
_TEXT	SEGMENT PARA USE32 PUBLIC 'CODE'
_TEXT	ENDS
;	COMDAT ??_7CFont@@6B@
CONST	SEGMENT DWORD USE32 PUBLIC 'CONST'
CONST	ENDS
;	COMDAT ??_R4CFont@@6B@
rdata$r	SEGMENT DWORD USE32 PUBLIC 'CONST'
rdata$r	ENDS
;	COMDAT ??_R0?AVCFont@@@8
_DATA	SEGMENT DWORD USE32 PUBLIC 'DATA'
_DATA	ENDS
;	COMDAT ??_R3CFont@@8
rdata$r	SEGMENT DWORD USE32 PUBLIC 'CONST'
rdata$r	ENDS
;	COMDAT ??_R2CFont@@8
rdata$r	SEGMENT DWORD USE32 PUBLIC 'CONST'
rdata$r	ENDS
;	COMDAT ??_R1A@?0A@A@CFont@@8
rdata$r	SEGMENT DWORD USE32 PUBLIC 'CONST'
rdata$r	ENDS
;	COMDAT ??_R1A@?0A@A@CGdiObject@@8
rdata$r	SEGMENT DWORD USE32 PUBLIC 'CONST'
rdata$r	ENDS
;	COMDAT ??_R0?AVCGdiObject@@@8
_DATA	SEGMENT DWORD USE32 PUBLIC 'DATA'
_DATA	ENDS
;	COMDAT ??_GCFont@@UAEPAXI@Z
_TEXT	SEGMENT PARA USE32 PUBLIC 'CODE'
_TEXT	ENDS
;	COMDAT ??1CGdiObject@@UAE@XZ
_TEXT	SEGMENT PARA USE32 PUBLIC 'CODE'
_TEXT	ENDS
;	COMDAT ??_7CGdiObject@@6B@
CONST	SEGMENT DWORD USE32 PUBLIC 'CONST'
CONST	ENDS
;	COMDAT ??_R4CGdiObject@@6B@
rdata$r	SEGMENT DWORD USE32 PUBLIC 'CONST'
rdata$r	ENDS
;	COMDAT ??_R3CGdiObject@@8
rdata$r	SEGMENT DWORD USE32 PUBLIC 'CONST'
rdata$r	ENDS
;	COMDAT ??_R2CGdiObject@@8
rdata$r	SEGMENT DWORD USE32 PUBLIC 'CONST'
rdata$r	ENDS
;	COMDAT ??_GCGdiObject@@UAEPAXI@Z
_TEXT	SEGMENT PARA USE32 PUBLIC 'CODE'
_TEXT	ENDS
;	COMDAT ??1CObject@@UAE@XZ
_TEXT	SEGMENT PARA USE32 PUBLIC 'CODE'
_TEXT	ENDS
;	COMDAT ??0CFont@@QAE@XZ
_TEXT	SEGMENT PARA USE32 PUBLIC 'CODE'
_TEXT	ENDS
;	COMDAT ??0CGdiObject@@QAE@XZ
_TEXT	SEGMENT PARA USE32 PUBLIC 'CODE'
_TEXT	ENDS
;	COMDAT ??0CObject@@IAE@XZ
_TEXT	SEGMENT PARA USE32 PUBLIC 'CODE'
_TEXT	ENDS
;	COMDAT ?Release@CStringData@ATL@@QAEXXZ
_TEXT	SEGMENT PARA USE32 PUBLIC 'CODE'
_TEXT	ENDS
;	COMDAT ?data@CStringData@ATL@@QAEPAXXZ
_TEXT	SEGMENT PARA USE32 PUBLIC 'CODE'
_TEXT	ENDS
;	COMDAT ?GetDefaultManager@?$StrTraitMFC_DLL@DV?$ChTraitsCRT@D@ATL@@@@SAPAUIAtlStringMgr@ATL@@XZ
_TEXT	SEGMENT PARA USE32 PUBLIC 'CODE'
_TEXT	ENDS
;	COMDAT ?GetClientRect@CWnd@@QBEXPAUtagRECT@@@Z
_TEXT	SEGMENT PARA USE32 PUBLIC 'CODE'
_TEXT	ENDS
;	COMDAT ?_messageEntries@SetBaseStatic@@0QBUAFX_MSGMAP_ENTRY@@B
CONST	SEGMENT DWORD USE32 PUBLIC 'CONST'
CONST	ENDS
;	COMDAT ?messageMap@SetBaseStatic@@1UAFX_MSGMAP@@B
CONST	SEGMENT DWORD USE32 PUBLIC 'CONST'
CONST	ENDS
;	COMDAT ??3CObject@@SGXPAX@Z
_TEXT	SEGMENT PARA USE32 PUBLIC 'CODE'
_TEXT	ENDS
;	COMDAT ??_7SetBaseStatic@@6B@
CONST	SEGMENT DWORD USE32 PUBLIC 'CONST'
CONST	ENDS
;	COMDAT ??0CStatic@@QAE@XZ
_TEXT	SEGMENT PARA USE32 PUBLIC 'CODE'
_TEXT	ENDS
;	COMDAT ??_7CStatic@@6B@
CONST	SEGMENT DWORD USE32 PUBLIC 'CONST'
CONST	ENDS
;	COMDAT ??_R4CStatic@@6B@
rdata$r	SEGMENT DWORD USE32 PUBLIC 'CONST'
rdata$r	ENDS
;	COMDAT ??_R3CStatic@@8
rdata$r	SEGMENT DWORD USE32 PUBLIC 'CONST'
rdata$r	ENDS
;	COMDAT ??_R2CStatic@@8
rdata$r	SEGMENT DWORD USE32 PUBLIC 'CONST'
rdata$r	ENDS
;	COMDAT ??_GCStatic@@UAEPAXI@Z
_TEXT	SEGMENT PARA USE32 PUBLIC 'CODE'
_TEXT	ENDS
;	COMDAT ?classSetBaseStatic@SetBaseStatic@@2UCRuntimeClass@@B
CONST	SEGMENT DWORD USE32 PUBLIC 'CONST'
CONST	ENDS
sxdata	SEGMENT DWORD USE32 'SXDATA'
sxdata	ENDS
FLAT	GROUP _DATA, CONST, _BSS
	ASSUME	CS: FLAT, DS: FLAT, SS: FLAT
endif

INCLUDELIB MSVCRT
INCLUDELIB OLDNAMES

PUBLIC	?classSetBaseStatic@SetBaseStatic@@2UCRuntimeClass@@B ; SetBaseStatic::classSetBaseStatic
PUBLIC	?_messageEntries@SetBaseStatic@@0QBUAFX_MSGMAP_ENTRY@@B ; SetBaseStatic::_messageEntries
PUBLIC	?messageMap@SetBaseStatic@@1UAFX_MSGMAP@@B	; SetBaseStatic::messageMap
EXTRN	?GetThisMessageMap@CWnd@@KGPBUAFX_MSGMAP@@XZ:NEAR ; CWnd::GetThisMessageMap
EXTRN	?GetThisClass@CStatic@@SGPAUCRuntimeClass@@XZ:NEAR ; CStatic::GetThisClass
CONST	SEGMENT
$SG197399 DB	'SetBaseStatic', 00H
CONST	ENDS
;	COMDAT ?classSetBaseStatic@SetBaseStatic@@2UCRuntimeClass@@B
CONST	SEGMENT
?classSetBaseStatic@SetBaseStatic@@2UCRuntimeClass@@B DD FLAT:$SG197399 ; SetBaseStatic::classSetBaseStatic
	DD	064H
	DD	0ffffH
	DD	00H
	DD	FLAT:?GetThisClass@CStatic@@SGPAUCRuntimeClass@@XZ
	DD	00H
	DD	00H
CONST	ENDS
;	COMDAT ?_messageEntries@SetBaseStatic@@0QBUAFX_MSGMAP_ENTRY@@B
CONST	SEGMENT
?_messageEntries@SetBaseStatic@@0QBUAFX_MSGMAP_ENTRY@@B DD 00H ; SetBaseStatic::_messageEntries
	DD	00H
	DD	00H
	DD	00H
	DD	00H
	DD	00H
CONST	ENDS
;	COMDAT ?messageMap@SetBaseStatic@@1UAFX_MSGMAP@@B
CONST	SEGMENT
?messageMap@SetBaseStatic@@1UAFX_MSGMAP@@B DD FLAT:?GetThisMessageMap@CWnd@@KGPBUAFX_MSGMAP@@XZ ; SetBaseStatic::messageMap
	DD	FLAT:?_messageEntries@SetBaseStatic@@0QBUAFX_MSGMAP_ENTRY@@B
CONST	ENDS
CONST	SEGMENT
	ORG $+2
$SG197438 DB	0cbH, 0ceH, 0ccH, 0e5H, 00H
CONST	ENDS
PUBLIC	?GetThisClass@SetBaseStatic@@SGPAUCRuntimeClass@@XZ ; SetBaseStatic::GetThisClass
; Function compile flags: /Odt
; File d:\boxgit\playbox\playbox\dev\prj\playbox\src\appconfig\config\setbasectrls\setbasestatic.cpp
_TEXT	SEGMENT
?GetThisClass@SetBaseStatic@@SGPAUCRuntimeClass@@XZ PROC NEAR ; SetBaseStatic::GetThisClass

; 4    : IMPLEMENT_DYNAMIC(SetBaseStatic, CStatic)

  00000	55		 push	 ebp
  00001	8b ec		 mov	 ebp, esp
  00003	b8 00 00 00 00	 mov	 eax, OFFSET FLAT:?classSetBaseStatic@SetBaseStatic@@2UCRuntimeClass@@B ; SetBaseStatic::classSetBaseStatic
  00008	5d		 pop	 ebp
  00009	c3		 ret	 0
?GetThisClass@SetBaseStatic@@SGPAUCRuntimeClass@@XZ ENDP ; SetBaseStatic::GetThisClass
_TEXT	ENDS
PUBLIC	?GetRuntimeClass@SetBaseStatic@@UBEPAUCRuntimeClass@@XZ ; SetBaseStatic::GetRuntimeClass
; Function compile flags: /Odt
_TEXT	SEGMENT
_this$ = -4						; size = 4
?GetRuntimeClass@SetBaseStatic@@UBEPAUCRuntimeClass@@XZ PROC NEAR ; SetBaseStatic::GetRuntimeClass
; _this$ = ecx

; 4    : IMPLEMENT_DYNAMIC(SetBaseStatic, CStatic)

  00010	55		 push	 ebp
  00011	8b ec		 mov	 ebp, esp
  00013	51		 push	 ecx
  00014	89 4d fc	 mov	 DWORD PTR _this$[ebp], ecx
  00017	b8 00 00 00 00	 mov	 eax, OFFSET FLAT:?classSetBaseStatic@SetBaseStatic@@2UCRuntimeClass@@B ; SetBaseStatic::classSetBaseStatic
  0001c	8b e5		 mov	 esp, ebp
  0001e	5d		 pop	 ebp
  0001f	c3		 ret	 0
?GetRuntimeClass@SetBaseStatic@@UBEPAUCRuntimeClass@@XZ ENDP ; SetBaseStatic::GetRuntimeClass
_TEXT	ENDS
PUBLIC	??_R1A@?0A@A@CObject@@8				; CObject::`RTTI Base Class Descriptor at (0,-1,0,0)'
PUBLIC	??_R0?AVCObject@@@8				; CObject `RTTI Type Descriptor'
PUBLIC	??0CStatic@@QAE@XZ				; CStatic::CStatic
PUBLIC	??_R1A@?0A@A@CWnd@@8				; CWnd::`RTTI Base Class Descriptor at (0,-1,0,0)'
PUBLIC	??_R0?AVCWnd@@@8				; CWnd `RTTI Type Descriptor'
PUBLIC	??_R1A@?0A@A@CCmdTarget@@8			; CCmdTarget::`RTTI Base Class Descriptor at (0,-1,0,0)'
PUBLIC	??_R0?AVCCmdTarget@@@8				; CCmdTarget `RTTI Type Descriptor'
PUBLIC	?Serialize@CObject@@UAEXAAVCArchive@@@Z		; CObject::Serialize
PUBLIC	?AssertValid@CObject@@UBEXXZ			; CObject::AssertValid
PUBLIC	?Dump@CObject@@UBEXAAVCDumpContext@@@Z		; CObject::Dump
PUBLIC	??_R0?AVCStatic@@@8				; CStatic `RTTI Type Descriptor'
PUBLIC	??_R1A@?0A@A@CStatic@@8				; CStatic::`RTTI Base Class Descriptor at (0,-1,0,0)'
PUBLIC	??0SetBaseStatic@@QAE@XZ			; SetBaseStatic::SetBaseStatic
PUBLIC	?GetMessageMap@SetBaseStatic@@MBEPBUAFX_MSGMAP@@XZ ; SetBaseStatic::GetMessageMap
PUBLIC	??_7SetBaseStatic@@6B@				; SetBaseStatic::`vftable'
PUBLIC	??_GSetBaseStatic@@UAEPAXI@Z			; SetBaseStatic::`scalar deleting destructor'
PUBLIC	?DoDataExchange@CWnd@@MAEXPAVCDataExchange@@@Z	; CWnd::DoDataExchange
PUBLIC	?BeginModalState@CWnd@@UAEXXZ			; CWnd::BeginModalState
PUBLIC	?EndModalState@CWnd@@UAEXXZ			; CWnd::EndModalState
PUBLIC	??_R4SetBaseStatic@@6B@				; SetBaseStatic::`RTTI Complete Object Locator'
PUBLIC	??_R0?AVSetBaseStatic@@@8			; SetBaseStatic `RTTI Type Descriptor'
PUBLIC	??_R3SetBaseStatic@@8				; SetBaseStatic::`RTTI Class Hierarchy Descriptor'
PUBLIC	??_R2SetBaseStatic@@8				; SetBaseStatic::`RTTI Base Class Array'
PUBLIC	??_R1A@?0A@A@SetBaseStatic@@8			; SetBaseStatic::`RTTI Base Class Descriptor at (0,-1,0,0)'
EXTRN	?CreateControlContainer@CWnd@@MAEHPAPAVCOleControlContainer@@@Z:NEAR ; CWnd::CreateControlContainer
EXTRN	?CreateControlSite@CWnd@@MAEHPAVCOleControlContainer@@PAPAVCOleControlSite@@IABU_GUID@@@Z:NEAR ; CWnd::CreateControlSite
EXTRN	?SetOccDialogInfo@CWnd@@MAEHPAU_AFX_OCC_DIALOG_INFO@@@Z:NEAR ; CWnd::SetOccDialogInfo
EXTRN	?OnToolHitTest@CWnd@@UBEHVCPoint@@PAUtagTOOLINFOA@@@Z:NEAR ; CWnd::OnToolHitTest
EXTRN	?Create@CStatic@@UAEHPBDKABUtagRECT@@PAVCWnd@@I@Z:NEAR ; CStatic::Create
EXTRN	?GetScrollBarCtrl@CWnd@@UBEPAVCScrollBar@@H@Z:NEAR ; CWnd::GetScrollBarCtrl
EXTRN	?DrawItem@CStatic@@UAEXPAUtagDRAWITEMSTRUCT@@@Z:NEAR ; CStatic::DrawItem
EXTRN	?OnChildNotify@CStatic@@MAEHIIJPAJ@Z:NEAR	; CStatic::OnChildNotify
EXTRN	?WinHelpA@CWnd@@UAEXKI@Z:NEAR			; CWnd::WinHelpA
EXTRN	?HtmlHelpA@CWnd@@UAEXKI@Z:NEAR			; CWnd::HtmlHelpA
EXTRN	?WinHelpInternal@CWnd@@UAEXKI@Z:NEAR		; CWnd::WinHelpInternal
EXTRN	?ContinueModal@CWnd@@UAEHXZ:NEAR		; CWnd::ContinueModal
EXTRN	?EndModalLoop@CWnd@@UAEXH@Z:NEAR		; CWnd::EndModalLoop
EXTRN	?GetInterfaceMap@CWnd@@MBEPBUAFX_INTERFACEMAP@@XZ:NEAR ; CWnd::GetInterfaceMap
EXTRN	?EnsureStdObj@CWnd@@UAEJXZ:NEAR			; CWnd::EnsureStdObj
EXTRN	?get_accParent@CWnd@@UAEJPAPAUIDispatch@@@Z:NEAR ; CWnd::get_accParent
EXTRN	?get_accChildCount@CWnd@@UAEJPAJ@Z:NEAR		; CWnd::get_accChildCount
EXTRN	?OnCmdMsg@CCmdTarget@@UAEHIHPAXPAUAFX_CMDHANDLERINFO@@@Z:NEAR ; CCmdTarget::OnCmdMsg
EXTRN	?get_accChild@CWnd@@UAEJUtagVARIANT@@PAPAUIDispatch@@@Z:NEAR ; CWnd::get_accChild
EXTRN	?IsInvokeAllowed@CCmdTarget@@UAEHJ@Z:NEAR	; CCmdTarget::IsInvokeAllowed
EXTRN	?get_accName@CWnd@@UAEJUtagVARIANT@@PAPA_W@Z:NEAR ; CWnd::get_accName
EXTRN	?get_accValue@CWnd@@UAEJUtagVARIANT@@PAPA_W@Z:NEAR ; CWnd::get_accValue
EXTRN	?get_accDescription@CWnd@@UAEJUtagVARIANT@@PAPA_W@Z:NEAR ; CWnd::get_accDescription
EXTRN	?GetDispatchIID@CCmdTarget@@UAEHPAU_GUID@@@Z:NEAR ; CCmdTarget::GetDispatchIID
EXTRN	?GetTypeInfoCount@CCmdTarget@@UAEIXZ:NEAR	; CCmdTarget::GetTypeInfoCount
EXTRN	?GetTypeLibCache@CCmdTarget@@UAEPAVCTypeLibCache@@XZ:NEAR ; CCmdTarget::GetTypeLibCache
EXTRN	?get_accRole@CWnd@@UAEJUtagVARIANT@@PAU2@@Z:NEAR ; CWnd::get_accRole
EXTRN	?GetTypeLib@CCmdTarget@@UAEJKPAPAUITypeLib@@@Z:NEAR ; CCmdTarget::GetTypeLib
EXTRN	?get_accState@CWnd@@UAEJUtagVARIANT@@PAU2@@Z:NEAR ; CWnd::get_accState
EXTRN	?get_accHelp@CWnd@@UAEJUtagVARIANT@@PAPA_W@Z:NEAR ; CWnd::get_accHelp
EXTRN	?get_accHelpTopic@CWnd@@UAEJPAPA_WUtagVARIANT@@PAJ@Z:NEAR ; CWnd::get_accHelpTopic
EXTRN	?get_accKeyboardShortcut@CWnd@@UAEJUtagVARIANT@@PAPA_W@Z:NEAR ; CWnd::get_accKeyboardShortcut
EXTRN	?get_accFocus@CWnd@@UAEJPAUtagVARIANT@@@Z:NEAR	; CWnd::get_accFocus
EXTRN	?get_accSelection@CWnd@@UAEJPAUtagVARIANT@@@Z:NEAR ; CWnd::get_accSelection
EXTRN	?get_accDefaultAction@CWnd@@UAEJUtagVARIANT@@PAPA_W@Z:NEAR ; CWnd::get_accDefaultAction
EXTRN	?GetCommandMap@CCmdTarget@@MBEPBUAFX_OLECMDMAP@@XZ:NEAR ; CCmdTarget::GetCommandMap
EXTRN	?accSelect@CWnd@@UAEJJUtagVARIANT@@@Z:NEAR	; CWnd::accSelect
EXTRN	?accLocation@CWnd@@UAEJPAJ000UtagVARIANT@@@Z:NEAR ; CWnd::accLocation
EXTRN	?GetDispatchMap@CCmdTarget@@MBEPBUAFX_DISPMAP@@XZ:NEAR ; CCmdTarget::GetDispatchMap
EXTRN	?accNavigate@CWnd@@UAEJJUtagVARIANT@@PAU2@@Z:NEAR ; CWnd::accNavigate
EXTRN	?accHitTest@CWnd@@UAEJJJPAUtagVARIANT@@@Z:NEAR	; CWnd::accHitTest
EXTRN	?GetConnectionMap@CCmdTarget@@MBEPBUAFX_CONNECTIONMAP@@XZ:NEAR ; CCmdTarget::GetConnectionMap
EXTRN	?accDoDefaultAction@CWnd@@UAEJUtagVARIANT@@@Z:NEAR ; CWnd::accDoDefaultAction
EXTRN	?put_accName@CWnd@@UAEJUtagVARIANT@@PA_W@Z:NEAR	; CWnd::put_accName
EXTRN	?put_accValue@CWnd@@UAEJUtagVARIANT@@PA_W@Z:NEAR ; CWnd::put_accValue
EXTRN	?SetProxy@CWnd@@UAEJPAUIAccessibleProxy@@@Z:NEAR ; CWnd::SetProxy
EXTRN	?CreateAccessibleProxy@CWnd@@UAEJIJPAJ@Z:NEAR	; CWnd::CreateAccessibleProxy
EXTRN	?GetEventSinkMap@CCmdTarget@@MBEPBUAFX_EVENTSINKMAP@@XZ:NEAR ; CCmdTarget::GetEventSinkMap
EXTRN	?OnCreateAggregates@CCmdTarget@@UAEHXZ:NEAR	; CCmdTarget::OnCreateAggregates
EXTRN	?OnCommand@CWnd@@MAEHIJ@Z:NEAR			; CWnd::OnCommand
EXTRN	?GetInterfaceHook@CCmdTarget@@UAEPAUIUnknown@@PBX@Z:NEAR ; CCmdTarget::GetInterfaceHook
EXTRN	?OnNotify@CWnd@@MAEHIJPAJ@Z:NEAR		; CWnd::OnNotify
EXTRN	?GetExtraConnectionPoints@CCmdTarget@@MAEHPAVCPtrArray@@@Z:NEAR ; CCmdTarget::GetExtraConnectionPoints
EXTRN	?GetConnectionHook@CCmdTarget@@MAEPAUIConnectionPoint@@ABU_GUID@@@Z:NEAR ; CCmdTarget::GetConnectionHook
EXTRN	??_ESetBaseStatic@@UAEPAXI@Z:NEAR		; SetBaseStatic::`vector deleting destructor'
EXTRN	?PreSubclassWindow@CWnd@@UAEXXZ:NEAR		; CWnd::PreSubclassWindow
EXTRN	?Create@CWnd@@UAEHPBD0KABUtagRECT@@PAV1@IPAUCCreateContext@@@Z:NEAR ; CWnd::Create
EXTRN	?CreateEx@CWnd@@UAEHKPBD0KHHHHPAUHWND__@@PAUHMENU__@@PAX@Z:NEAR ; CWnd::CreateEx
EXTRN	?CreateEx@CWnd@@UAEHKPBD0KABUtagRECT@@PAV1@IPAX@Z:NEAR ; CWnd::CreateEx
EXTRN	?DestroyWindow@CWnd@@UAEHXZ:NEAR		; CWnd::DestroyWindow
EXTRN	?PreCreateWindow@CWnd@@UAEHAAUtagCREATESTRUCTA@@@Z:NEAR ; CWnd::PreCreateWindow
EXTRN	?CalcWindowRect@CWnd@@UAEXPAUtagRECT@@I@Z:NEAR	; CWnd::CalcWindowRect
EXTRN	?GetSuperWndProcAddr@CWnd@@MAEPAP6GJPAUHWND__@@IIJ@ZXZ:NEAR ; CWnd::GetSuperWndProcAddr
EXTRN	??_7type_info@@6B@:QWORD			; type_info::`vftable'
EXTRN	?PreTranslateMessage@CWnd@@UAEHPAUtagMSG@@@Z:NEAR ; CWnd::PreTranslateMessage
EXTRN	?OnAmbientProperty@CWnd@@UAEHPAVCOleControlSite@@JPAUtagVARIANT@@@Z:NEAR ; CWnd::OnAmbientProperty
EXTRN	?WindowProc@CWnd@@MAEJIIJ@Z:NEAR		; CWnd::WindowProc
EXTRN	?OnWndMsg@CWnd@@MAEHIIJPAJ@Z:NEAR		; CWnd::OnWndMsg
EXTRN	?DefWindowProcA@CWnd@@MAEJIIJ@Z:NEAR		; CWnd::DefWindowProcA
EXTRN	?PostNcDestroy@CWnd@@MAEXXZ:NEAR		; CWnd::PostNcDestroy
EXTRN	?CheckAutoCenter@CWnd@@UAEHXZ:NEAR		; CWnd::CheckAutoCenter
EXTRN	?IsFrameWnd@CWnd@@UBEHXZ:NEAR			; CWnd::IsFrameWnd
EXTRN	?OnFinalRelease@CWnd@@UAEXXZ:NEAR		; CWnd::OnFinalRelease
;	COMDAT ??_7SetBaseStatic@@6B@
CONST	SEGMENT
??_7SetBaseStatic@@6B@ DD FLAT:??_R4SetBaseStatic@@6B@	; SetBaseStatic::`vftable'
	DD	FLAT:?GetRuntimeClass@SetBaseStatic@@UBEPAUCRuntimeClass@@XZ
	DD	FLAT:??_ESetBaseStatic@@UAEPAXI@Z
	DD	FLAT:?Serialize@CObject@@UAEXAAVCArchive@@@Z
	DD	FLAT:?AssertValid@CObject@@UBEXXZ
	DD	FLAT:?Dump@CObject@@UBEXAAVCDumpContext@@@Z
	DD	FLAT:?OnCmdMsg@CCmdTarget@@UAEHIHPAXPAUAFX_CMDHANDLERINFO@@@Z
	DD	FLAT:?OnFinalRelease@CWnd@@UAEXXZ
	DD	FLAT:?IsInvokeAllowed@CCmdTarget@@UAEHJ@Z
	DD	FLAT:?GetDispatchIID@CCmdTarget@@UAEHPAU_GUID@@@Z
	DD	FLAT:?GetTypeInfoCount@CCmdTarget@@UAEIXZ
	DD	FLAT:?GetTypeLibCache@CCmdTarget@@UAEPAVCTypeLibCache@@XZ
	DD	FLAT:?GetTypeLib@CCmdTarget@@UAEJKPAPAUITypeLib@@@Z
	DD	FLAT:?GetMessageMap@SetBaseStatic@@MBEPBUAFX_MSGMAP@@XZ
	DD	FLAT:?GetCommandMap@CCmdTarget@@MBEPBUAFX_OLECMDMAP@@XZ
	DD	FLAT:?GetDispatchMap@CCmdTarget@@MBEPBUAFX_DISPMAP@@XZ
	DD	FLAT:?GetConnectionMap@CCmdTarget@@MBEPBUAFX_CONNECTIONMAP@@XZ
	DD	FLAT:?GetInterfaceMap@CWnd@@MBEPBUAFX_INTERFACEMAP@@XZ
	DD	FLAT:?GetEventSinkMap@CCmdTarget@@MBEPBUAFX_EVENTSINKMAP@@XZ
	DD	FLAT:?OnCreateAggregates@CCmdTarget@@UAEHXZ
	DD	FLAT:?GetInterfaceHook@CCmdTarget@@UAEPAUIUnknown@@PBX@Z
	DD	FLAT:?GetExtraConnectionPoints@CCmdTarget@@MAEHPAVCPtrArray@@@Z
	DD	FLAT:?GetConnectionHook@CCmdTarget@@MAEPAUIConnectionPoint@@ABU_GUID@@@Z
	DD	FLAT:?PreSubclassWindow@CWnd@@UAEXXZ
	DD	FLAT:?Create@CWnd@@UAEHPBD0KABUtagRECT@@PAV1@IPAUCCreateContext@@@Z
	DD	FLAT:?CreateEx@CWnd@@UAEHKPBD0KABUtagRECT@@PAV1@IPAX@Z
	DD	FLAT:?CreateEx@CWnd@@UAEHKPBD0KHHHHPAUHWND__@@PAUHMENU__@@PAX@Z
	DD	FLAT:?DestroyWindow@CWnd@@UAEHXZ
	DD	FLAT:?PreCreateWindow@CWnd@@UAEHAAUtagCREATESTRUCTA@@@Z
	DD	FLAT:?CalcWindowRect@CWnd@@UAEXPAUtagRECT@@I@Z
	DD	FLAT:?OnToolHitTest@CWnd@@UBEHVCPoint@@PAUtagTOOLINFOA@@@Z
	DD	FLAT:?GetScrollBarCtrl@CWnd@@UBEPAVCScrollBar@@H@Z
	DD	FLAT:?WinHelpA@CWnd@@UAEXKI@Z
	DD	FLAT:?HtmlHelpA@CWnd@@UAEXKI@Z
	DD	FLAT:?WinHelpInternal@CWnd@@UAEXKI@Z
	DD	FLAT:?ContinueModal@CWnd@@UAEHXZ
	DD	FLAT:?EndModalLoop@CWnd@@UAEXH@Z
	DD	FLAT:?EnsureStdObj@CWnd@@UAEJXZ
	DD	FLAT:?get_accParent@CWnd@@UAEJPAPAUIDispatch@@@Z
	DD	FLAT:?get_accChildCount@CWnd@@UAEJPAJ@Z
	DD	FLAT:?get_accChild@CWnd@@UAEJUtagVARIANT@@PAPAUIDispatch@@@Z
	DD	FLAT:?get_accName@CWnd@@UAEJUtagVARIANT@@PAPA_W@Z
	DD	FLAT:?get_accValue@CWnd@@UAEJUtagVARIANT@@PAPA_W@Z
	DD	FLAT:?get_accDescription@CWnd@@UAEJUtagVARIANT@@PAPA_W@Z
	DD	FLAT:?get_accRole@CWnd@@UAEJUtagVARIANT@@PAU2@@Z
	DD	FLAT:?get_accState@CWnd@@UAEJUtagVARIANT@@PAU2@@Z
	DD	FLAT:?get_accHelp@CWnd@@UAEJUtagVARIANT@@PAPA_W@Z
	DD	FLAT:?get_accHelpTopic@CWnd@@UAEJPAPA_WUtagVARIANT@@PAJ@Z
	DD	FLAT:?get_accKeyboardShortcut@CWnd@@UAEJUtagVARIANT@@PAPA_W@Z
	DD	FLAT:?get_accFocus@CWnd@@UAEJPAUtagVARIANT@@@Z
	DD	FLAT:?get_accSelection@CWnd@@UAEJPAUtagVARIANT@@@Z
	DD	FLAT:?get_accDefaultAction@CWnd@@UAEJUtagVARIANT@@PAPA_W@Z
	DD	FLAT:?accSelect@CWnd@@UAEJJUtagVARIANT@@@Z
	DD	FLAT:?accLocation@CWnd@@UAEJPAJ000UtagVARIANT@@@Z
	DD	FLAT:?accNavigate@CWnd@@UAEJJUtagVARIANT@@PAU2@@Z
	DD	FLAT:?accHitTest@CWnd@@UAEJJJPAUtagVARIANT@@@Z
	DD	FLAT:?accDoDefaultAction@CWnd@@UAEJUtagVARIANT@@@Z
	DD	FLAT:?put_accName@CWnd@@UAEJUtagVARIANT@@PA_W@Z
	DD	FLAT:?put_accValue@CWnd@@UAEJUtagVARIANT@@PA_W@Z
	DD	FLAT:?SetProxy@CWnd@@UAEJPAUIAccessibleProxy@@@Z
	DD	FLAT:?CreateAccessibleProxy@CWnd@@UAEJIJPAJ@Z
	DD	FLAT:?OnCommand@CWnd@@MAEHIJ@Z
	DD	FLAT:?OnNotify@CWnd@@MAEHIJPAJ@Z
	DD	FLAT:?GetSuperWndProcAddr@CWnd@@MAEPAP6GJPAUHWND__@@IIJ@ZXZ
	DD	FLAT:?DoDataExchange@CWnd@@MAEXPAVCDataExchange@@@Z
	DD	FLAT:?BeginModalState@CWnd@@UAEXXZ
	DD	FLAT:?EndModalState@CWnd@@UAEXXZ
	DD	FLAT:?PreTranslateMessage@CWnd@@UAEHPAUtagMSG@@@Z
	DD	FLAT:?OnAmbientProperty@CWnd@@UAEHPAVCOleControlSite@@JPAUtagVARIANT@@@Z
	DD	FLAT:?WindowProc@CWnd@@MAEJIIJ@Z
	DD	FLAT:?OnWndMsg@CWnd@@MAEHIIJPAJ@Z
	DD	FLAT:?DefWindowProcA@CWnd@@MAEJIIJ@Z
	DD	FLAT:?PostNcDestroy@CWnd@@MAEXXZ
	DD	FLAT:?OnChildNotify@CStatic@@MAEHIIJPAJ@Z
	DD	FLAT:?CheckAutoCenter@CWnd@@UAEHXZ
	DD	FLAT:?IsFrameWnd@CWnd@@UBEHXZ
	DD	FLAT:?CreateControlContainer@CWnd@@MAEHPAPAVCOleControlContainer@@@Z
	DD	FLAT:?CreateControlSite@CWnd@@MAEHPAVCOleControlContainer@@PAPAVCOleControlSite@@IABU_GUID@@@Z
	DD	FLAT:?SetOccDialogInfo@CWnd@@MAEHPAU_AFX_OCC_DIALOG_INFO@@@Z
	DD	FLAT:?Create@CStatic@@UAEHPBDKABUtagRECT@@PAVCWnd@@I@Z
	DD	FLAT:?DrawItem@CStatic@@UAEXPAUtagDRAWITEMSTRUCT@@@Z
CONST	ENDS
;	COMDAT ??_R4SetBaseStatic@@6B@
rdata$r	SEGMENT
??_R4SetBaseStatic@@6B@ DD 00H				; SetBaseStatic::`RTTI Complete Object Locator'
	DD	00H
	DD	00H
	DD	FLAT:??_R0?AVSetBaseStatic@@@8
	DD	FLAT:??_R3SetBaseStatic@@8
rdata$r	ENDS
;	COMDAT ??_R0?AVSetBaseStatic@@@8
_DATA	SEGMENT
??_R0?AVSetBaseStatic@@@8 DD FLAT:??_7type_info@@6B@	; SetBaseStatic `RTTI Type Descriptor'
	DD	00H
	DB	'.?AVSetBaseStatic@@', 00H
_DATA	ENDS
;	COMDAT ??_R3SetBaseStatic@@8
rdata$r	SEGMENT
??_R3SetBaseStatic@@8 DD 00H				; SetBaseStatic::`RTTI Class Hierarchy Descriptor'
	DD	00H
	DD	05H
	DD	FLAT:??_R2SetBaseStatic@@8
rdata$r	ENDS
;	COMDAT ??_R2SetBaseStatic@@8
rdata$r	SEGMENT
??_R2SetBaseStatic@@8 DD FLAT:??_R1A@?0A@A@SetBaseStatic@@8 ; SetBaseStatic::`RTTI Base Class Array'
	DD	FLAT:??_R1A@?0A@A@CStatic@@8
	DD	FLAT:??_R1A@?0A@A@CWnd@@8
	DD	FLAT:??_R1A@?0A@A@CCmdTarget@@8
	DD	FLAT:??_R1A@?0A@A@CObject@@8
rdata$r	ENDS
;	COMDAT ??_R1A@?0A@A@SetBaseStatic@@8
rdata$r	SEGMENT
??_R1A@?0A@A@SetBaseStatic@@8 DD FLAT:??_R0?AVSetBaseStatic@@@8 ; SetBaseStatic::`RTTI Base Class Descriptor at (0,-1,0,0)'
	DD	04H
	DD	00H
	DD	0ffffffffH
	DD	00H
	DD	00H
rdata$r	ENDS
;	COMDAT ??_R1A@?0A@A@CStatic@@8
rdata$r	SEGMENT
??_R1A@?0A@A@CStatic@@8 DD FLAT:??_R0?AVCStatic@@@8	; CStatic::`RTTI Base Class Descriptor at (0,-1,0,0)'
	DD	03H
	DD	00H
	DD	0ffffffffH
	DD	00H
	DD	00H
rdata$r	ENDS
;	COMDAT ??_R0?AVCStatic@@@8
_DATA	SEGMENT
??_R0?AVCStatic@@@8 DD FLAT:??_7type_info@@6B@		; CStatic `RTTI Type Descriptor'
	DD	00H
	DB	'.?AVCStatic@@', 00H
_DATA	ENDS
;	COMDAT ??_R1A@?0A@A@CWnd@@8
rdata$r	SEGMENT
??_R1A@?0A@A@CWnd@@8 DD FLAT:??_R0?AVCWnd@@@8		; CWnd::`RTTI Base Class Descriptor at (0,-1,0,0)'
	DD	02H
	DD	00H
	DD	0ffffffffH
	DD	00H
	DD	00H
rdata$r	ENDS
;	COMDAT ??_R0?AVCWnd@@@8
_DATA	SEGMENT
??_R0?AVCWnd@@@8 DD FLAT:??_7type_info@@6B@		; CWnd `RTTI Type Descriptor'
	DD	00H
	DB	'.?AVCWnd@@', 00H
_DATA	ENDS
;	COMDAT ??_R1A@?0A@A@CCmdTarget@@8
rdata$r	SEGMENT
??_R1A@?0A@A@CCmdTarget@@8 DD FLAT:??_R0?AVCCmdTarget@@@8 ; CCmdTarget::`RTTI Base Class Descriptor at (0,-1,0,0)'
	DD	01H
	DD	00H
	DD	0ffffffffH
	DD	00H
	DD	00H
rdata$r	ENDS
;	COMDAT ??_R0?AVCCmdTarget@@@8
_DATA	SEGMENT
??_R0?AVCCmdTarget@@@8 DD FLAT:??_7type_info@@6B@	; CCmdTarget `RTTI Type Descriptor'
	DD	00H
	DB	'.?AVCCmdTarget@@', 00H
_DATA	ENDS
;	COMDAT ??_R1A@?0A@A@CObject@@8
rdata$r	SEGMENT
??_R1A@?0A@A@CObject@@8 DD FLAT:??_R0?AVCObject@@@8	; CObject::`RTTI Base Class Descriptor at (0,-1,0,0)'
	DD	00H
	DD	00H
	DD	0ffffffffH
	DD	00H
	DD	00H
rdata$r	ENDS
;	COMDAT ??_R0?AVCObject@@@8
_DATA	SEGMENT
??_R0?AVCObject@@@8 DD FLAT:??_7type_info@@6B@		; CObject `RTTI Type Descriptor'
	DD	00H
	DB	'.?AVCObject@@', 00H
; Function compile flags: /Odt
_DATA	ENDS
_TEXT	SEGMENT
_this$ = -4						; size = 4
??0SetBaseStatic@@QAE@XZ PROC NEAR			; SetBaseStatic::SetBaseStatic
; _this$ = ecx

; 6    : {

  00020	55		 push	 ebp
  00021	8b ec		 mov	 ebp, esp
  00023	51		 push	 ecx
  00024	89 4d fc	 mov	 DWORD PTR _this$[ebp], ecx
  00027	8b 4d fc	 mov	 ecx, DWORD PTR _this$[ebp]
  0002a	e8 00 00 00 00	 call	 ??0CStatic@@QAE@XZ	; CStatic::CStatic
  0002f	8b 45 fc	 mov	 eax, DWORD PTR _this$[ebp]
  00032	c7 00 00 00 00
	00		 mov	 DWORD PTR [eax], OFFSET FLAT:??_7SetBaseStatic@@6B@

; 7    : 	m_bTrans = false;

  00038	8b 4d fc	 mov	 ecx, DWORD PTR _this$[ebp]
  0003b	c7 41 5c 00 00
	00 00		 mov	 DWORD PTR [ecx+92], 0

; 8    : 	m_FontSize = 12;

  00042	8b 55 fc	 mov	 edx, DWORD PTR _this$[ebp]
  00045	c7 42 58 0c 00
	00 00		 mov	 DWORD PTR [edx+88], 12	; 0000000cH

; 9    : 	m_TextColor = RGB(0,0,0);

  0004c	8b 45 fc	 mov	 eax, DWORD PTR _this$[ebp]
  0004f	c7 40 54 00 00
	00 00		 mov	 DWORD PTR [eax+84], 0

; 10   : 	m_bBold = false;

  00056	8b 4d fc	 mov	 ecx, DWORD PTR _this$[ebp]
  00059	c7 41 60 00 00
	00 00		 mov	 DWORD PTR [ecx+96], 0

; 11   : }

  00060	8b 45 fc	 mov	 eax, DWORD PTR _this$[ebp]
  00063	8b e5		 mov	 esp, ebp
  00065	5d		 pop	 ebp
  00066	c3		 ret	 0
??0SetBaseStatic@@QAE@XZ ENDP				; SetBaseStatic::SetBaseStatic
_TEXT	ENDS
PUBLIC	??3CObject@@SGXPAX@Z				; CObject::operator delete
PUBLIC	??1SetBaseStatic@@UAE@XZ			; SetBaseStatic::~SetBaseStatic
; Function compile flags: /Odt
;	COMDAT ??_GSetBaseStatic@@UAEPAXI@Z
_TEXT	SEGMENT
_this$ = -4						; size = 4
___flags$ = 8						; size = 4
??_GSetBaseStatic@@UAEPAXI@Z PROC NEAR			; SetBaseStatic::`scalar deleting destructor', COMDAT
; _this$ = ecx
  00000	55		 push	 ebp
  00001	8b ec		 mov	 ebp, esp
  00003	51		 push	 ecx
  00004	89 4d fc	 mov	 DWORD PTR _this$[ebp], ecx
  00007	8b 4d fc	 mov	 ecx, DWORD PTR _this$[ebp]
  0000a	e8 00 00 00 00	 call	 ??1SetBaseStatic@@UAE@XZ ; SetBaseStatic::~SetBaseStatic
  0000f	8b 45 08	 mov	 eax, DWORD PTR ___flags$[ebp]
  00012	83 e0 01	 and	 eax, 1
  00015	74 09		 je	 SHORT $L197420
  00017	8b 4d fc	 mov	 ecx, DWORD PTR _this$[ebp]
  0001a	51		 push	 ecx
  0001b	e8 00 00 00 00	 call	 ??3CObject@@SGXPAX@Z	; CObject::operator delete
$L197420:
  00020	8b 45 fc	 mov	 eax, DWORD PTR _this$[ebp]
  00023	8b e5		 mov	 esp, ebp
  00025	5d		 pop	 ebp
  00026	c2 04 00	 ret	 4
??_GSetBaseStatic@@UAEPAXI@Z ENDP			; SetBaseStatic::`scalar deleting destructor'
_TEXT	ENDS
EXTRN	??1CStatic@@UAE@XZ:NEAR				; CStatic::~CStatic
; Function compile flags: /Odt
_TEXT	SEGMENT
_this$ = -4						; size = 4
??1SetBaseStatic@@UAE@XZ PROC NEAR			; SetBaseStatic::~SetBaseStatic
; _this$ = ecx

; 14   : {

  00070	55		 push	 ebp
  00071	8b ec		 mov	 ebp, esp
  00073	51		 push	 ecx
  00074	89 4d fc	 mov	 DWORD PTR _this$[ebp], ecx
  00077	8b 45 fc	 mov	 eax, DWORD PTR _this$[ebp]
  0007a	c7 00 00 00 00
	00		 mov	 DWORD PTR [eax], OFFSET FLAT:??_7SetBaseStatic@@6B@

; 15   : }

  00080	8b 4d fc	 mov	 ecx, DWORD PTR _this$[ebp]
  00083	e8 00 00 00 00	 call	 ??1CStatic@@UAE@XZ	; CStatic::~CStatic
  00088	8b e5		 mov	 esp, ebp
  0008a	5d		 pop	 ebp
  0008b	c3		 ret	 0
??1SetBaseStatic@@UAE@XZ ENDP				; SetBaseStatic::~SetBaseStatic
_TEXT	ENDS
PUBLIC	?GetThisMessageMap@SetBaseStatic@@KGPBUAFX_MSGMAP@@XZ ; SetBaseStatic::GetThisMessageMap
; Function compile flags: /Odt
_TEXT	SEGMENT
?GetThisMessageMap@SetBaseStatic@@KGPBUAFX_MSGMAP@@XZ PROC NEAR ; SetBaseStatic::GetThisMessageMap

; 17   : BEGIN_MESSAGE_MAP(SetBaseStatic, CStatic)

  00090	55		 push	 ebp
  00091	8b ec		 mov	 ebp, esp
  00093	b8 00 00 00 00	 mov	 eax, OFFSET FLAT:?messageMap@SetBaseStatic@@1UAFX_MSGMAP@@B ; SetBaseStatic::messageMap
  00098	5d		 pop	 ebp
  00099	c3		 ret	 0
?GetThisMessageMap@SetBaseStatic@@KGPBUAFX_MSGMAP@@XZ ENDP ; SetBaseStatic::GetThisMessageMap
; Function compile flags: /Odt
_this$ = -4						; size = 4
?GetMessageMap@SetBaseStatic@@MBEPBUAFX_MSGMAP@@XZ PROC NEAR ; SetBaseStatic::GetMessageMap
; _this$ = ecx

; 17   : BEGIN_MESSAGE_MAP(SetBaseStatic, CStatic)

  000a0	55		 push	 ebp
  000a1	8b ec		 mov	 ebp, esp
  000a3	51		 push	 ecx
  000a4	89 4d fc	 mov	 DWORD PTR _this$[ebp], ecx
  000a7	b8 00 00 00 00	 mov	 eax, OFFSET FLAT:?messageMap@SetBaseStatic@@1UAFX_MSGMAP@@B ; SetBaseStatic::messageMap
  000ac	8b e5		 mov	 esp, ebp
  000ae	5d		 pop	 ebp
  000af	c3		 ret	 0
?GetMessageMap@SetBaseStatic@@MBEPBUAFX_MSGMAP@@XZ ENDP	; SetBaseStatic::GetMessageMap
_TEXT	ENDS
PUBLIC	?GetClientRect@CWnd@@QBEXPAUtagRECT@@@Z		; CWnd::GetClientRect
PUBLIC	?OnPaint@SetBaseStatic@@IAEXXZ			; SetBaseStatic::OnPaint
PUBLIC	??0CFont@@QAE@XZ				; CFont::CFont
PUBLIC	?CreateFontIndirectA@CFont@@QAEHPBUtagLOGFONTA@@@Z ; CFont::CreateFontIndirectA
PUBLIC	??1CFont@@UAE@XZ				; CFont::~CFont
EXTRN	?SelectObject@CDC@@UAEPAVCFont@@PAV2@@Z:NEAR	; CDC::SelectObject
EXTRN	__imp_??B?$CSimpleStringT@D$00@ATL@@QBEPBDXZ:NEAR
EXTRN	?SetBkMode@CDC@@QAEHH@Z:NEAR			; CDC::SetBkMode
EXTRN	__imp_?GetLength@?$CSimpleStringT@D$00@ATL@@QBEHXZ:NEAR
EXTRN	?SetTextColor@CDC@@UAEKK@Z:NEAR			; CDC::SetTextColor
EXTRN	__imp_??0?$CStringT@DV?$StrTraitMFC_DLL@DV?$ChTraitsCRT@D@ATL@@@@@ATL@@QAE@XZ:NEAR
EXTRN	__imp__DrawTextA@20:NEAR
EXTRN	__imp_??1?$CStringT@DV?$StrTraitMFC_DLL@DV?$ChTraitsCRT@D@ATL@@@@@ATL@@QAE@XZ:NEAR
EXTRN	__except_list:DWORD
EXTRN	___security_cookie:DWORD
EXTRN	@__security_check_cookie@4:NEAR
EXTRN	___CxxFrameHandler:NEAR
EXTRN	?OnPaint@CWnd@@IAEXXZ:NEAR			; CWnd::OnPaint
EXTRN	?DeleteObject@CGdiObject@@QAEHXZ:NEAR		; CGdiObject::DeleteObject
EXTRN	_memset:NEAR
EXTRN	_strcpy:NEAR
EXTRN	??0CPaintDC@@QAE@PAVCWnd@@@Z:NEAR		; CPaintDC::CPaintDC
EXTRN	??1CPaintDC@@UAE@XZ:NEAR			; CPaintDC::~CPaintDC
EXTRN	?GetWindowTextA@CWnd@@QBEXAAV?$CStringT@DV?$StrTraitMFC_DLL@DV?$ChTraitsCRT@D@ATL@@@@@ATL@@@Z:NEAR ; CWnd::GetWindowTextA
xdata$x	SEGMENT
$T197966 DD	0ffffffffH
	DD	FLAT:$L197954
	DD	00H
	DD	FLAT:$L197955
	DD	01H
	DD	FLAT:$L197956
$T197960 DD	019930520H
	DD	03H
	DD	FLAT:$T197966
	DD	2 DUP(00H)
	DD	2 DUP(00H)
; Function compile flags: /Odt
xdata$x	ENDS
_TEXT	SEGMENT
_this$ = -200						; size = 4
_oldFont$197440 = -196					; size = 4
_font$197439 = -192					; size = 8
_lf$197437 = -184					; size = 60
_dc$197434 = -124					; size = 84
__$ArrayPad$ = -36					; size = 4
_rect$197435 = -32					; size = 16
_strContent$197436 = -16				; size = 4
__$EHRec$ = -12						; size = 12
__$ReturnAddr$ = 4					; size = 4
?OnPaint@SetBaseStatic@@IAEXXZ PROC NEAR		; SetBaseStatic::OnPaint
; _this$ = ecx

; 24   : {

  000b0	55		 push	 ebp
  000b1	8b ec		 mov	 ebp, esp
  000b3	6a ff		 push	 -1
  000b5	68 00 00 00 00	 push	 __ehhandler$?OnPaint@SetBaseStatic@@IAEXXZ
  000ba	64 a1 00 00 00
	00		 mov	 eax, DWORD PTR fs:__except_list
  000c0	50		 push	 eax
  000c1	64 89 25 00 00
	00 00		 mov	 DWORD PTR fs:__except_list, esp
  000c8	81 ec bc 00 00
	00		 sub	 esp, 188		; 000000bcH
  000ce	a1 00 00 00 00	 mov	 eax, DWORD PTR ___security_cookie
  000d3	89 45 dc	 mov	 DWORD PTR __$ArrayPad$[ebp], eax
  000d6	89 8d 38 ff ff
	ff		 mov	 DWORD PTR _this$[ebp], ecx

; 25   : 	if(m_bTrans)

  000dc	8b 85 38 ff ff
	ff		 mov	 eax, DWORD PTR _this$[ebp]
  000e2	83 78 5c 00	 cmp	 DWORD PTR [eax+92], 0
  000e6	0f 84 91 01 00
	00		 je	 $L197433

; 26   : 	{
; 27   : 		CPaintDC dc(this);

  000ec	8b 8d 38 ff ff
	ff		 mov	 ecx, DWORD PTR _this$[ebp]
  000f2	51		 push	 ecx
  000f3	8d 4d 84	 lea	 ecx, DWORD PTR _dc$197434[ebp]
  000f6	e8 00 00 00 00	 call	 ??0CPaintDC@@QAE@PAVCWnd@@@Z ; CPaintDC::CPaintDC
  000fb	c7 45 fc 00 00
	00 00		 mov	 DWORD PTR __$EHRec$[ebp+8], 0

; 28   : 		RECT rect;
; 29   : 		GetClientRect(&rect);			// get clip region

  00102	8d 55 e0	 lea	 edx, DWORD PTR _rect$197435[ebp]
  00105	52		 push	 edx
  00106	8b 8d 38 ff ff
	ff		 mov	 ecx, DWORD PTR _this$[ebp]
  0010c	e8 00 00 00 00	 call	 ?GetClientRect@CWnd@@QBEXPAUtagRECT@@@Z ; CWnd::GetClientRect

; 30   : 		dc.SetBkMode(TRANSPARENT);		// preserve background

  00111	6a 01		 push	 1
  00113	8d 4d 84	 lea	 ecx, DWORD PTR _dc$197434[ebp]
  00116	e8 00 00 00 00	 call	 ?SetBkMode@CDC@@QAEHH@Z	; CDC::SetBkMode

; 31   : 		dc.SetTextColor(m_TextColor);

  0011b	8b 85 38 ff ff
	ff		 mov	 eax, DWORD PTR _this$[ebp]
  00121	8b 48 54	 mov	 ecx, DWORD PTR [eax+84]
  00124	51		 push	 ecx
  00125	8d 4d 84	 lea	 ecx, DWORD PTR _dc$197434[ebp]
  00128	e8 00 00 00 00	 call	 ?SetTextColor@CDC@@UAEKK@Z ; CDC::SetTextColor

; 32   : 
; 33   : 		CString strContent ;

  0012d	8d 4d f0	 lea	 ecx, DWORD PTR _strContent$197436[ebp]
  00130	ff 15 00 00 00
	00		 call	 DWORD PTR __imp_??0?$CStringT@DV?$StrTraitMFC_DLL@DV?$ChTraitsCRT@D@ATL@@@@@ATL@@QAE@XZ
  00136	c6 45 fc 01	 mov	 BYTE PTR __$EHRec$[ebp+8], 1

; 34   : 		GetWindowText(strContent);

  0013a	8d 55 f0	 lea	 edx, DWORD PTR _strContent$197436[ebp]
  0013d	52		 push	 edx
  0013e	8b 8d 38 ff ff
	ff		 mov	 ecx, DWORD PTR _this$[ebp]
  00144	e8 00 00 00 00	 call	 ?GetWindowTextA@CWnd@@QBEXAAV?$CStringT@DV?$StrTraitMFC_DLL@DV?$ChTraitsCRT@D@ATL@@@@@ATL@@@Z ; CWnd::GetWindowTextA

; 35   : 
; 36   : 		LOGFONT  lf;
; 37   : 		ZeroMemory(&lf,sizeof(lf));

  00149	6a 3c		 push	 60			; 0000003cH
  0014b	6a 00		 push	 0
  0014d	8d 85 48 ff ff
	ff		 lea	 eax, DWORD PTR _lf$197437[ebp]
  00153	50		 push	 eax
  00154	e8 00 00 00 00	 call	 _memset
  00159	83 c4 0c	 add	 esp, 12			; 0000000cH

; 38   : 
; 39   : 		lf.lfHeight = m_FontSize; /*-MulDiv(m_FontSize,GetDeviceCaps(dc.m_hDC,LOGPIXELSY),72);*/

  0015c	8b 8d 38 ff ff
	ff		 mov	 ecx, DWORD PTR _this$[ebp]
  00162	8b 51 58	 mov	 edx, DWORD PTR [ecx+88]
  00165	89 95 48 ff ff
	ff		 mov	 DWORD PTR _lf$197437[ebp], edx

; 40   : 		lf.lfWeight = (m_bBold)?FW_BOLD:FW_NORMAL;

  0016b	8b 85 38 ff ff
	ff		 mov	 eax, DWORD PTR _this$[ebp]
  00171	8b 48 60	 mov	 ecx, DWORD PTR [eax+96]
  00174	f7 d9		 neg	 ecx
  00176	1b c9		 sbb	 ecx, ecx
  00178	81 e1 2c 01 00
	00		 and	 ecx, 300		; 0000012cH
  0017e	81 c1 90 01 00
	00		 add	 ecx, 400		; 00000190H
  00184	89 8d 58 ff ff
	ff		 mov	 DWORD PTR _lf$197437[ebp+16], ecx

; 41   : 		lf.lfWidth = 0;

  0018a	c7 85 4c ff ff
	ff 00 00 00 00	 mov	 DWORD PTR _lf$197437[ebp+4], 0

; 42   : 		lf.lfCharSet = GB2312_CHARSET;

  00194	c6 85 5f ff ff
	ff 86		 mov	 BYTE PTR _lf$197437[ebp+23], 134 ; 00000086H

; 43   : 		lf.lfStrikeOut = FALSE;

  0019b	c6 85 5e ff ff
	ff 00		 mov	 BYTE PTR _lf$197437[ebp+22], 0

; 44   : 		//	lf.lfCharSet= 0;
; 45   : 		lf.lfOutPrecision = OUT_DEFAULT_PRECIS;

  001a2	c6 85 60 ff ff
	ff 00		 mov	 BYTE PTR _lf$197437[ebp+24], 0

; 46   : 		lf.lfClipPrecision = CLIP_DEFAULT_PRECIS;

  001a9	c6 85 61 ff ff
	ff 00		 mov	 BYTE PTR _lf$197437[ebp+25], 0

; 47   : 		lf.lfQuality = DEFAULT_QUALITY;

  001b0	c6 85 62 ff ff
	ff 00		 mov	 BYTE PTR _lf$197437[ebp+26], 0

; 48   : 		lf.lfPitchAndFamily = FF_DONTCARE | DEFAULT_PITCH;

  001b7	c6 85 63 ff ff
	ff 00		 mov	 BYTE PTR _lf$197437[ebp+27], 0

; 49   : 		lf.lfUnderline = false;

  001be	c6 85 5d ff ff
	ff 00		 mov	 BYTE PTR _lf$197437[ebp+21], 0

; 50   : 		strcpy(lf.lfFaceName, "ו");

  001c5	68 00 00 00 00	 push	 OFFSET FLAT:$SG197438
  001ca	8d 95 64 ff ff
	ff		 lea	 edx, DWORD PTR _lf$197437[ebp+28]
  001d0	52		 push	 edx
  001d1	e8 00 00 00 00	 call	 _strcpy
  001d6	83 c4 08	 add	 esp, 8

; 51   : 
; 52   : 		CFont font;

  001d9	8d 8d 40 ff ff
	ff		 lea	 ecx, DWORD PTR _font$197439[ebp]
  001df	e8 00 00 00 00	 call	 ??0CFont@@QAE@XZ	; CFont::CFont
  001e4	c6 45 fc 02	 mov	 BYTE PTR __$EHRec$[ebp+8], 2

; 53   : 		font.CreateFontIndirect(&lf);

  001e8	8d 85 48 ff ff
	ff		 lea	 eax, DWORD PTR _lf$197437[ebp]
  001ee	50		 push	 eax
  001ef	8d 8d 40 ff ff
	ff		 lea	 ecx, DWORD PTR _font$197439[ebp]
  001f5	e8 00 00 00 00	 call	 ?CreateFontIndirectA@CFont@@QAEHPBUtagLOGFONTA@@@Z ; CFont::CreateFontIndirectA

; 54   : 		CFont* oldFont = (CFont*)dc.SelectObject(&font);

  001fa	8d 8d 40 ff ff
	ff		 lea	 ecx, DWORD PTR _font$197439[ebp]
  00200	51		 push	 ecx
  00201	8d 4d 84	 lea	 ecx, DWORD PTR _dc$197434[ebp]
  00204	e8 00 00 00 00	 call	 ?SelectObject@CDC@@UAEPAVCFont@@PAV2@@Z ; CDC::SelectObject
  00209	89 85 3c ff ff
	ff		 mov	 DWORD PTR _oldFont$197440[ebp], eax

; 55   : 
; 56   : 
; 57   : 		::DrawText(
; 58   : 			dc.m_hDC,
; 59   : 			strContent,
; 60   : 			strContent.GetLength(),
; 61   : 			&rect,
; 62   : 			DT_SINGLELINE|DT_END_ELLIPSIS|DT_NOPREFIX/*|DT_EXTERNALLEADING|DT_WORDBREAK|DT_END_ELLIPSIS|DT_EDITCONTROL*/
; 63   : 			);

  0020f	68 20 88 00 00	 push	 34848			; 00008820H
  00214	8d 55 e0	 lea	 edx, DWORD PTR _rect$197435[ebp]
  00217	52		 push	 edx
  00218	8d 4d f0	 lea	 ecx, DWORD PTR _strContent$197436[ebp]
  0021b	ff 15 00 00 00
	00		 call	 DWORD PTR __imp_?GetLength@?$CSimpleStringT@D$00@ATL@@QBEHXZ
  00221	50		 push	 eax
  00222	8d 4d f0	 lea	 ecx, DWORD PTR _strContent$197436[ebp]
  00225	ff 15 00 00 00
	00		 call	 DWORD PTR __imp_??B?$CSimpleStringT@D$00@ATL@@QBEPBDXZ
  0022b	50		 push	 eax
  0022c	8b 45 88	 mov	 eax, DWORD PTR _dc$197434[ebp+4]
  0022f	50		 push	 eax
  00230	ff 15 00 00 00
	00		 call	 DWORD PTR __imp__DrawTextA@20

; 64   : 
; 65   : 		//dc.SetTextColor(ltempColor);
; 66   : 		dc.SelectObject(oldFont);

  00236	8b 8d 3c ff ff
	ff		 mov	 ecx, DWORD PTR _oldFont$197440[ebp]
  0023c	51		 push	 ecx
  0023d	8d 4d 84	 lea	 ecx, DWORD PTR _dc$197434[ebp]
  00240	e8 00 00 00 00	 call	 ?SelectObject@CDC@@UAEPAVCFont@@PAV2@@Z ; CDC::SelectObject

; 67   : 		font.DeleteObject();

  00245	8d 8d 40 ff ff
	ff		 lea	 ecx, DWORD PTR _font$197439[ebp]
  0024b	e8 00 00 00 00	 call	 ?DeleteObject@CGdiObject@@QAEHXZ ; CGdiObject::DeleteObject

; 68   : 	}

  00250	c6 45 fc 01	 mov	 BYTE PTR __$EHRec$[ebp+8], 1
  00254	8d 8d 40 ff ff
	ff		 lea	 ecx, DWORD PTR _font$197439[ebp]
  0025a	e8 00 00 00 00	 call	 ??1CFont@@UAE@XZ	; CFont::~CFont
  0025f	c6 45 fc 00	 mov	 BYTE PTR __$EHRec$[ebp+8], 0
  00263	8d 4d f0	 lea	 ecx, DWORD PTR _strContent$197436[ebp]
  00266	ff 15 00 00 00
	00		 call	 DWORD PTR __imp_??1?$CStringT@DV?$StrTraitMFC_DLL@DV?$ChTraitsCRT@D@ATL@@@@@ATL@@QAE@XZ
  0026c	c7 45 fc ff ff
	ff ff		 mov	 DWORD PTR __$EHRec$[ebp+8], -1
  00273	8d 4d 84	 lea	 ecx, DWORD PTR _dc$197434[ebp]
  00276	e8 00 00 00 00	 call	 ??1CPaintDC@@UAE@XZ	; CPaintDC::~CPaintDC

; 69   : 	else

  0027b	eb 0b		 jmp	 SHORT $L197432
$L197433:

; 70   : 	{
; 71   : 		CStatic::OnPaint();

  0027d	8b 8d 38 ff ff
	ff		 mov	 ecx, DWORD PTR _this$[ebp]
  00283	e8 00 00 00 00	 call	 ?OnPaint@CWnd@@IAEXXZ	; CWnd::OnPaint
$L197432:

; 72   : 	}
; 73   : 
; 74   : }

  00288	8b 4d f4	 mov	 ecx, DWORD PTR __$EHRec$[ebp]
  0028b	64 89 0d 00 00
	00 00		 mov	 DWORD PTR fs:__except_list, ecx
  00292	8b 4d dc	 mov	 ecx, DWORD PTR __$ArrayPad$[ebp]
  00295	e8 00 00 00 00	 call	 @__security_check_cookie@4
  0029a	8b e5		 mov	 esp, ebp
  0029c	5d		 pop	 ebp
  0029d	c3		 ret	 0
_TEXT	ENDS
text$x	SEGMENT
$L197954:
  00000	8d 4d 84	 lea	 ecx, DWORD PTR _dc$197434[ebp]
  00003	e9 00 00 00 00	 jmp	 ??1CPaintDC@@UAE@XZ	; CPaintDC::~CPaintDC
$L197955:
  00008	8d 4d f0	 lea	 ecx, DWORD PTR _strContent$197436[ebp]
  0000b	ff 25 00 00 00
	00		 jmp	 DWORD PTR __imp_??1?$CStringT@DV?$StrTraitMFC_DLL@DV?$ChTraitsCRT@D@ATL@@@@@ATL@@QAE@XZ
$L197956:
  00011	8d 8d 40 ff ff
	ff		 lea	 ecx, DWORD PTR _font$197439[ebp]
  00017	e9 00 00 00 00	 jmp	 ??1CFont@@UAE@XZ	; CFont::~CFont
__ehhandler$?OnPaint@SetBaseStatic@@IAEXXZ:
  0001c	b8 00 00 00 00	 mov	 eax, OFFSET FLAT:$T197960
  00021	e9 00 00 00 00	 jmp	 ___CxxFrameHandler
text$x	ENDS
?OnPaint@SetBaseStatic@@IAEXXZ ENDP			; SetBaseStatic::OnPaint
PUBLIC	?GetWindowRect@CWnd@@QBEXPAUtagRECT@@@Z		; CWnd::GetWindowRect
PUBLIC	?UpdateWindow@CWnd@@QAEXXZ			; CWnd::UpdateWindow
PUBLIC	?InvalidateRect@CWnd@@QAEXPBUtagRECT@@H@Z	; CWnd::InvalidateRect
PUBLIC	??0CRect@@QAE@XZ				; CRect::CRect
PUBLIC	?GetParent@CWnd@@QBEPAV1@XZ			; CWnd::GetParent
PUBLIC	?OnSetText@SetBaseStatic@@IAEJIJ@Z		; SetBaseStatic::OnSetText
EXTRN	?ScreenToClient@CWnd@@QBEXPAUtagRECT@@@Z:NEAR	; CWnd::ScreenToClient
EXTRN	?Default@CWnd@@IAEJXZ:NEAR			; CWnd::Default
; Function compile flags: /Odt
_TEXT	SEGMENT
_this$ = -24						; size = 4
_Rect$197450 = -20					; size = 16
_Result$ = -4						; size = 4
_wParam$ = 8						; size = 4
_lParam$ = 12						; size = 4
?OnSetText@SetBaseStatic@@IAEJIJ@Z PROC NEAR		; SetBaseStatic::OnSetText
; _this$ = ecx

; 77   : {

  002a0	55		 push	 ebp
  002a1	8b ec		 mov	 ebp, esp
  002a3	83 ec 18	 sub	 esp, 24			; 00000018H
  002a6	89 4d e8	 mov	 DWORD PTR _this$[ebp], ecx

; 78   : 	LRESULT Result = Default();

  002a9	8b 4d e8	 mov	 ecx, DWORD PTR _this$[ebp]
  002ac	e8 00 00 00 00	 call	 ?Default@CWnd@@IAEJXZ	; CWnd::Default
  002b1	89 45 fc	 mov	 DWORD PTR _Result$[ebp], eax

; 79   : 	if(m_bTrans)

  002b4	8b 45 e8	 mov	 eax, DWORD PTR _this$[ebp]
  002b7	83 78 5c 00	 cmp	 DWORD PTR [eax+92], 0
  002bb	74 4b		 je	 SHORT $L197449

; 80   : 	{
; 81   : 		CRect Rect;

  002bd	8d 4d ec	 lea	 ecx, DWORD PTR _Rect$197450[ebp]
  002c0	e8 00 00 00 00	 call	 ??0CRect@@QAE@XZ	; CRect::CRect

; 82   : 		GetWindowRect(&Rect);

  002c5	8d 4d ec	 lea	 ecx, DWORD PTR _Rect$197450[ebp]
  002c8	51		 push	 ecx
  002c9	8b 4d e8	 mov	 ecx, DWORD PTR _this$[ebp]
  002cc	e8 00 00 00 00	 call	 ?GetWindowRect@CWnd@@QBEXPAUtagRECT@@@Z ; CWnd::GetWindowRect

; 83   : 		GetParent()->ScreenToClient(&Rect);

  002d1	8d 55 ec	 lea	 edx, DWORD PTR _Rect$197450[ebp]
  002d4	52		 push	 edx
  002d5	8b 4d e8	 mov	 ecx, DWORD PTR _this$[ebp]
  002d8	e8 00 00 00 00	 call	 ?GetParent@CWnd@@QBEPAV1@XZ ; CWnd::GetParent
  002dd	8b c8		 mov	 ecx, eax
  002df	e8 00 00 00 00	 call	 ?ScreenToClient@CWnd@@QBEXPAUtagRECT@@@Z ; CWnd::ScreenToClient

; 84   : 		GetParent()->InvalidateRect(&Rect);

  002e4	6a 01		 push	 1
  002e6	8d 45 ec	 lea	 eax, DWORD PTR _Rect$197450[ebp]
  002e9	50		 push	 eax
  002ea	8b 4d e8	 mov	 ecx, DWORD PTR _this$[ebp]
  002ed	e8 00 00 00 00	 call	 ?GetParent@CWnd@@QBEPAV1@XZ ; CWnd::GetParent
  002f2	8b c8		 mov	 ecx, eax
  002f4	e8 00 00 00 00	 call	 ?InvalidateRect@CWnd@@QAEXPBUtagRECT@@H@Z ; CWnd::InvalidateRect

; 85   : 		GetParent()->UpdateWindow();

  002f9	8b 4d e8	 mov	 ecx, DWORD PTR _this$[ebp]
  002fc	e8 00 00 00 00	 call	 ?GetParent@CWnd@@QBEPAV1@XZ ; CWnd::GetParent
  00301	8b c8		 mov	 ecx, eax
  00303	e8 00 00 00 00	 call	 ?UpdateWindow@CWnd@@QAEXXZ ; CWnd::UpdateWindow
$L197449:

; 86   : 	}
; 87   : 	return Result;

  00308	8b 45 fc	 mov	 eax, DWORD PTR _Result$[ebp]

; 88   : }

  0030b	8b e5		 mov	 esp, ebp
  0030d	5d		 pop	 ebp
  0030e	c2 08 00	 ret	 8
?OnSetText@SetBaseStatic@@IAEJIJ@Z ENDP			; SetBaseStatic::OnSetText
_TEXT	ENDS
PUBLIC	?CtlColor@SetBaseStatic@@IAEPAUHBRUSH__@@PAVCDC@@I@Z ; SetBaseStatic::CtlColor
EXTRN	__imp__CreateSolidBrush@4:NEAR
EXTRN	__imp__GetStockObject@4:NEAR
; Function compile flags: /Odt
_TEXT	SEGMENT
_this$ = -4						; size = 4
_pDC$ = 8						; size = 4
_nCtlColor$ = 12					; size = 4
?CtlColor@SetBaseStatic@@IAEPAUHBRUSH__@@PAVCDC@@I@Z PROC NEAR ; SetBaseStatic::CtlColor
; _this$ = ecx

; 91   : {

  00320	55		 push	 ebp
  00321	8b ec		 mov	 ebp, esp
  00323	51		 push	 ecx
  00324	89 4d fc	 mov	 DWORD PTR _this$[ebp], ecx

; 92   : 	if(m_bTrans)

  00327	8b 45 fc	 mov	 eax, DWORD PTR _this$[ebp]
  0032a	83 78 5c 00	 cmp	 DWORD PTR [eax+92], 0
  0032e	74 14		 je	 SHORT $L197456

; 93   : 	{
; 94   : 		pDC->SetBkMode(TRANSPARENT);

  00330	6a 01		 push	 1
  00332	8b 4d 08	 mov	 ecx, DWORD PTR _pDC$[ebp]
  00335	e8 00 00 00 00	 call	 ?SetBkMode@CDC@@QAEHH@Z	; CDC::SetBkMode

; 95   : 		return (HBRUSH)GetStockObject(NULL_BRUSH);

  0033a	6a 05		 push	 5
  0033c	ff 15 00 00 00
	00		 call	 DWORD PTR __imp__GetStockObject@4
  00342	eb 25		 jmp	 SHORT $L197455
$L197456:

; 96   : 	}
; 97   : 	else
; 98   : 	{
; 99   : 		pDC->SetBkMode( TRANSPARENT );

  00344	6a 01		 push	 1
  00346	8b 4d 08	 mov	 ecx, DWORD PTR _pDC$[ebp]
  00349	e8 00 00 00 00	 call	 ?SetBkMode@CDC@@QAEHH@Z	; CDC::SetBkMode

; 100  : 		pDC->SetBkColor( RGB(255,255,255) );

  0034e	68 ff ff ff 00	 push	 16777215		; 00ffffffH
  00353	8b 4d 08	 mov	 ecx, DWORD PTR _pDC$[ebp]
  00356	8b 11		 mov	 edx, DWORD PTR [ecx]
  00358	8b 4d 08	 mov	 ecx, DWORD PTR _pDC$[ebp]
  0035b	ff 52 34	 call	 DWORD PTR [edx+52]

; 101  : 		return ::CreateSolidBrush( RGB(255,255,255) );

  0035e	68 ff ff ff 00	 push	 16777215		; 00ffffffH
  00363	ff 15 00 00 00
	00		 call	 DWORD PTR __imp__CreateSolidBrush@4
$L197455:

; 102  : 	}
; 103  : }

  00369	8b e5		 mov	 esp, ebp
  0036b	5d		 pop	 ebp
  0036c	c2 08 00	 ret	 8
?CtlColor@SetBaseStatic@@IAEPAUHBRUSH__@@PAVCDC@@I@Z ENDP ; SetBaseStatic::CtlColor
_TEXT	ENDS
PUBLIC	?OnEraseBkgnd@SetBaseStatic@@IAEHPAVCDC@@@Z	; SetBaseStatic::OnEraseBkgnd
; Function compile flags: /Odt
_TEXT	SEGMENT
_this$ = -4						; size = 4
_pDC$ = 8						; size = 4
?OnEraseBkgnd@SetBaseStatic@@IAEHPAVCDC@@@Z PROC NEAR	; SetBaseStatic::OnEraseBkgnd
; _this$ = ecx

; 106  : {

  00370	55		 push	 ebp
  00371	8b ec		 mov	 ebp, esp
  00373	51		 push	 ecx
  00374	89 4d fc	 mov	 DWORD PTR _this$[ebp], ecx

; 107  : 	return TRUE;

  00377	b8 01 00 00 00	 mov	 eax, 1

; 108  : }

  0037c	8b e5		 mov	 esp, ebp
  0037e	5d		 pop	 ebp
  0037f	c2 04 00	 ret	 4
?OnEraseBkgnd@SetBaseStatic@@IAEHPAVCDC@@@Z ENDP	; SetBaseStatic::OnEraseBkgnd
; Function compile flags: /Odt
; File d:\program files (x86)\microsoft visual studio .net 2003\vc7\atlmfc\include\atltypes.inl
_TEXT	ENDS
;	COMDAT ??0CRect@@QAE@XZ
_TEXT	SEGMENT
_this$ = -4						; size = 4
??0CRect@@QAE@XZ PROC NEAR				; CRect::CRect, COMDAT
; _this$ = ecx

; 110  : 	{ /* random filled */ }

  00000	55		 push	 ebp
  00001	8b ec		 mov	 ebp, esp
  00003	51		 push	 ecx
  00004	89 4d fc	 mov	 DWORD PTR _this$[ebp], ecx
  00007	8b 45 fc	 mov	 eax, DWORD PTR _this$[ebp]
  0000a	8b e5		 mov	 esp, ebp
  0000c	5d		 pop	 ebp
  0000d	c3		 ret	 0
??0CRect@@QAE@XZ ENDP					; CRect::CRect
; Function compile flags: /Odt
; File d:\program files (x86)\microsoft visual studio .net 2003\vc7\atlmfc\include\afx.inl
_TEXT	ENDS
;	COMDAT ?Serialize@CObject@@UAEXAAVCArchive@@@Z
_TEXT	SEGMENT
_this$ = -4						; size = 4
___formal$ = 8						; size = 4
?Serialize@CObject@@UAEXAAVCArchive@@@Z PROC NEAR	; CObject::Serialize, COMDAT
; _this$ = ecx

; 25   : 	{ /* CObject does not serialize anything by default */ }

  00000	55		 push	 ebp
  00001	8b ec		 mov	 ebp, esp
  00003	51		 push	 ecx
  00004	89 4d fc	 mov	 DWORD PTR _this$[ebp], ecx
  00007	8b e5		 mov	 esp, ebp
  00009	5d		 pop	 ebp
  0000a	c2 04 00	 ret	 4
?Serialize@CObject@@UAEXAAVCArchive@@@Z ENDP		; CObject::Serialize
_TEXT	ENDS
EXTRN	??3@YAXPAX@Z:NEAR				; operator delete
; Function compile flags: /Odt
;	COMDAT ??3CObject@@SGXPAX@Z
_TEXT	SEGMENT
_p$ = 8							; size = 4
??3CObject@@SGXPAX@Z PROC NEAR				; CObject::operator delete, COMDAT

; 31   : 	{ ::operator delete(p); }

  00000	55		 push	 ebp
  00001	8b ec		 mov	 ebp, esp
  00003	8b 45 08	 mov	 eax, DWORD PTR _p$[ebp]
  00006	50		 push	 eax
  00007	e8 00 00 00 00	 call	 ??3@YAXPAX@Z		; operator delete
  0000c	83 c4 04	 add	 esp, 4
  0000f	5d		 pop	 ebp
  00010	c2 04 00	 ret	 4
??3CObject@@SGXPAX@Z ENDP				; CObject::operator delete
; Function compile flags: /Odt
_TEXT	ENDS
;	COMDAT ?AssertValid@CObject@@UBEXXZ
_TEXT	SEGMENT
_this$ = -4						; size = 4
?AssertValid@CObject@@UBEXXZ PROC NEAR			; CObject::AssertValid, COMDAT
; _this$ = ecx

; 41   : 	{ /* no asserts in release builds */ }

  00000	55		 push	 ebp
  00001	8b ec		 mov	 ebp, esp
  00003	51		 push	 ecx
  00004	89 4d fc	 mov	 DWORD PTR _this$[ebp], ecx
  00007	8b e5		 mov	 esp, ebp
  00009	5d		 pop	 ebp
  0000a	c3		 ret	 0
?AssertValid@CObject@@UBEXXZ ENDP			; CObject::AssertValid
; Function compile flags: /Odt
_TEXT	ENDS
;	COMDAT ?Dump@CObject@@UBEXAAVCDumpContext@@@Z
_TEXT	SEGMENT
_this$ = -4						; size = 4
___formal$ = 8						; size = 4
?Dump@CObject@@UBEXAAVCDumpContext@@@Z PROC NEAR	; CObject::Dump, COMDAT
; _this$ = ecx

; 43   : 	{ /* no dumping in release builds */ }

  00000	55		 push	 ebp
  00001	8b ec		 mov	 ebp, esp
  00003	51		 push	 ecx
  00004	89 4d fc	 mov	 DWORD PTR _this$[ebp], ecx
  00007	8b e5		 mov	 esp, ebp
  00009	5d		 pop	 ebp
  0000a	c2 04 00	 ret	 4
?Dump@CObject@@UBEXAAVCDumpContext@@@Z ENDP		; CObject::Dump
_TEXT	ENDS
PUBLIC	??_R0?AVCGdiObject@@@8				; CGdiObject `RTTI Type Descriptor'
PUBLIC	??_R1A@?0A@A@CGdiObject@@8			; CGdiObject::`RTTI Base Class Descriptor at (0,-1,0,0)'
PUBLIC	??_R4CFont@@6B@					; CFont::`RTTI Complete Object Locator'
PUBLIC	??_R0?AVCFont@@@8				; CFont `RTTI Type Descriptor'
PUBLIC	??_R3CFont@@8					; CFont::`RTTI Class Hierarchy Descriptor'
PUBLIC	??_R2CFont@@8					; CFont::`RTTI Base Class Array'
PUBLIC	??_R1A@?0A@A@CFont@@8				; CFont::`RTTI Base Class Descriptor at (0,-1,0,0)'
PUBLIC	??0CGdiObject@@QAE@XZ				; CGdiObject::CGdiObject
PUBLIC	??_7CFont@@6B@					; CFont::`vftable'
PUBLIC	??_GCFont@@UAEPAXI@Z				; CFont::`scalar deleting destructor'
EXTRN	?GetRuntimeClass@CFont@@UBEPAUCRuntimeClass@@XZ:NEAR ; CFont::GetRuntimeClass
EXTRN	??_ECFont@@UAEPAXI@Z:NEAR			; CFont::`vector deleting destructor'
;	COMDAT ??_7CFont@@6B@
; File d:\program files (x86)\microsoft visual studio .net 2003\vc7\atlmfc\include\afxwin1.inl
CONST	SEGMENT
??_7CFont@@6B@ DD FLAT:??_R4CFont@@6B@			; CFont::`vftable'
	DD	FLAT:?GetRuntimeClass@CFont@@UBEPAUCRuntimeClass@@XZ
	DD	FLAT:??_ECFont@@UAEPAXI@Z
	DD	FLAT:?Serialize@CObject@@UAEXAAVCArchive@@@Z
	DD	FLAT:?AssertValid@CObject@@UBEXXZ
	DD	FLAT:?Dump@CObject@@UBEXAAVCDumpContext@@@Z
CONST	ENDS
;	COMDAT ??_R4CFont@@6B@
rdata$r	SEGMENT
??_R4CFont@@6B@ DD 00H					; CFont::`RTTI Complete Object Locator'
	DD	00H
	DD	00H
	DD	FLAT:??_R0?AVCFont@@@8
	DD	FLAT:??_R3CFont@@8
rdata$r	ENDS
;	COMDAT ??_R0?AVCFont@@@8
_DATA	SEGMENT
??_R0?AVCFont@@@8 DD FLAT:??_7type_info@@6B@		; CFont `RTTI Type Descriptor'
	DD	00H
	DB	'.?AVCFont@@', 00H
_DATA	ENDS
;	COMDAT ??_R3CFont@@8
rdata$r	SEGMENT
??_R3CFont@@8 DD 00H					; CFont::`RTTI Class Hierarchy Descriptor'
	DD	00H
	DD	03H
	DD	FLAT:??_R2CFont@@8
rdata$r	ENDS
;	COMDAT ??_R2CFont@@8
rdata$r	SEGMENT
??_R2CFont@@8 DD FLAT:??_R1A@?0A@A@CFont@@8		; CFont::`RTTI Base Class Array'
	DD	FLAT:??_R1A@?0A@A@CGdiObject@@8
	DD	FLAT:??_R1A@?0A@A@CObject@@8
rdata$r	ENDS
;	COMDAT ??_R1A@?0A@A@CFont@@8
rdata$r	SEGMENT
??_R1A@?0A@A@CFont@@8 DD FLAT:??_R0?AVCFont@@@8		; CFont::`RTTI Base Class Descriptor at (0,-1,0,0)'
	DD	02H
	DD	00H
	DD	0ffffffffH
	DD	00H
	DD	00H
rdata$r	ENDS
;	COMDAT ??_R1A@?0A@A@CGdiObject@@8
rdata$r	SEGMENT
??_R1A@?0A@A@CGdiObject@@8 DD FLAT:??_R0?AVCGdiObject@@@8 ; CGdiObject::`RTTI Base Class Descriptor at (0,-1,0,0)'
	DD	01H
	DD	00H
	DD	0ffffffffH
	DD	00H
	DD	00H
rdata$r	ENDS
;	COMDAT ??_R0?AVCGdiObject@@@8
_DATA	SEGMENT
??_R0?AVCGdiObject@@@8 DD FLAT:??_7type_info@@6B@	; CGdiObject `RTTI Type Descriptor'
	DD	00H
	DB	'.?AVCGdiObject@@', 00H
; Function compile flags: /Odt
_DATA	ENDS
;	COMDAT ??0CFont@@QAE@XZ
_TEXT	SEGMENT
_this$ = -4						; size = 4
??0CFont@@QAE@XZ PROC NEAR				; CFont::CFont, COMDAT
; _this$ = ecx

; 153  : 	{ }

  00000	55		 push	 ebp
  00001	8b ec		 mov	 ebp, esp
  00003	51		 push	 ecx
  00004	89 4d fc	 mov	 DWORD PTR _this$[ebp], ecx
  00007	8b 4d fc	 mov	 ecx, DWORD PTR _this$[ebp]
  0000a	e8 00 00 00 00	 call	 ??0CGdiObject@@QAE@XZ	; CGdiObject::CGdiObject
  0000f	8b 45 fc	 mov	 eax, DWORD PTR _this$[ebp]
  00012	c7 00 00 00 00
	00		 mov	 DWORD PTR [eax], OFFSET FLAT:??_7CFont@@6B@
  00018	8b 45 fc	 mov	 eax, DWORD PTR _this$[ebp]
  0001b	8b e5		 mov	 esp, ebp
  0001d	5d		 pop	 ebp
  0001e	c3		 ret	 0
??0CFont@@QAE@XZ ENDP					; CFont::CFont
_TEXT	ENDS
PUBLIC	??_R4CGdiObject@@6B@				; CGdiObject::`RTTI Complete Object Locator'
PUBLIC	??_R3CGdiObject@@8				; CGdiObject::`RTTI Class Hierarchy Descriptor'
PUBLIC	??_R2CGdiObject@@8				; CGdiObject::`RTTI Base Class Array'
PUBLIC	??0CObject@@IAE@XZ				; CObject::CObject
PUBLIC	??_7CGdiObject@@6B@				; CGdiObject::`vftable'
PUBLIC	??_GCGdiObject@@UAEPAXI@Z			; CGdiObject::`scalar deleting destructor'
EXTRN	?GetRuntimeClass@CGdiObject@@UBEPAUCRuntimeClass@@XZ:NEAR ; CGdiObject::GetRuntimeClass
EXTRN	??_ECGdiObject@@UAEPAXI@Z:NEAR			; CGdiObject::`vector deleting destructor'
;	COMDAT ??_7CGdiObject@@6B@
CONST	SEGMENT
??_7CGdiObject@@6B@ DD FLAT:??_R4CGdiObject@@6B@	; CGdiObject::`vftable'
	DD	FLAT:?GetRuntimeClass@CGdiObject@@UBEPAUCRuntimeClass@@XZ
	DD	FLAT:??_ECGdiObject@@UAEPAXI@Z
	DD	FLAT:?Serialize@CObject@@UAEXAAVCArchive@@@Z
	DD	FLAT:?AssertValid@CObject@@UBEXXZ
	DD	FLAT:?Dump@CObject@@UBEXAAVCDumpContext@@@Z
CONST	ENDS
;	COMDAT ??_R4CGdiObject@@6B@
rdata$r	SEGMENT
??_R4CGdiObject@@6B@ DD 00H				; CGdiObject::`RTTI Complete Object Locator'
	DD	00H
	DD	00H
	DD	FLAT:??_R0?AVCGdiObject@@@8
	DD	FLAT:??_R3CGdiObject@@8
rdata$r	ENDS
;	COMDAT ??_R3CGdiObject@@8
rdata$r	SEGMENT
??_R3CGdiObject@@8 DD 00H				; CGdiObject::`RTTI Class Hierarchy Descriptor'
	DD	00H
	DD	02H
	DD	FLAT:??_R2CGdiObject@@8
rdata$r	ENDS
;	COMDAT ??_R2CGdiObject@@8
rdata$r	SEGMENT
??_R2CGdiObject@@8 DD FLAT:??_R1A@?0A@A@CGdiObject@@8	; CGdiObject::`RTTI Base Class Array'
	DD	FLAT:??_R1A@?0A@A@CObject@@8
; Function compile flags: /Odt
rdata$r	ENDS
;	COMDAT ??0CGdiObject@@QAE@XZ
_TEXT	SEGMENT
_this$ = -4						; size = 4
??0CGdiObject@@QAE@XZ PROC NEAR				; CGdiObject::CGdiObject, COMDAT
; _this$ = ecx

; 82   : 	{ m_hObject = NULL; }

  00000	55		 push	 ebp
  00001	8b ec		 mov	 ebp, esp
  00003	51		 push	 ecx
  00004	89 4d fc	 mov	 DWORD PTR _this$[ebp], ecx
  00007	8b 4d fc	 mov	 ecx, DWORD PTR _this$[ebp]
  0000a	e8 00 00 00 00	 call	 ??0CObject@@IAE@XZ	; CObject::CObject
  0000f	8b 45 fc	 mov	 eax, DWORD PTR _this$[ebp]
  00012	c7 00 00 00 00
	00		 mov	 DWORD PTR [eax], OFFSET FLAT:??_7CGdiObject@@6B@
  00018	8b 4d fc	 mov	 ecx, DWORD PTR _this$[ebp]
  0001b	c7 41 04 00 00
	00 00		 mov	 DWORD PTR [ecx+4], 0
  00022	8b 45 fc	 mov	 eax, DWORD PTR _this$[ebp]
  00025	8b e5		 mov	 esp, ebp
  00027	5d		 pop	 ebp
  00028	c3		 ret	 0
??0CGdiObject@@QAE@XZ ENDP				; CGdiObject::CGdiObject
; Function compile flags: /Odt
; File d:\program files (x86)\microsoft visual studio .net 2003\vc7\atlmfc\include\afx.inl
_TEXT	ENDS
;	COMDAT ??0CObject@@IAE@XZ
_TEXT	SEGMENT
_this$ = -4						; size = 4
??0CObject@@IAE@XZ PROC NEAR				; CObject::CObject, COMDAT
; _this$ = ecx

; 21   : 	{ }

  00000	55		 push	 ebp
  00001	8b ec		 mov	 ebp, esp
  00003	51		 push	 ecx
  00004	89 4d fc	 mov	 DWORD PTR _this$[ebp], ecx
  00007	8b 45 fc	 mov	 eax, DWORD PTR _this$[ebp]
  0000a	8b e5		 mov	 esp, ebp
  0000c	5d		 pop	 ebp
  0000d	c3		 ret	 0
??0CObject@@IAE@XZ ENDP					; CObject::CObject
_TEXT	ENDS
PUBLIC	??1CGdiObject@@UAE@XZ				; CGdiObject::~CGdiObject
; Function compile flags: /Odt
;	COMDAT ??_GCGdiObject@@UAEPAXI@Z
_TEXT	SEGMENT
_this$ = -4						; size = 4
___flags$ = 8						; size = 4
??_GCGdiObject@@UAEPAXI@Z PROC NEAR			; CGdiObject::`scalar deleting destructor', COMDAT
; _this$ = ecx
  00000	55		 push	 ebp
  00001	8b ec		 mov	 ebp, esp
  00003	51		 push	 ecx
  00004	89 4d fc	 mov	 DWORD PTR _this$[ebp], ecx
  00007	8b 4d fc	 mov	 ecx, DWORD PTR _this$[ebp]
  0000a	e8 00 00 00 00	 call	 ??1CGdiObject@@UAE@XZ	; CGdiObject::~CGdiObject
  0000f	8b 45 08	 mov	 eax, DWORD PTR ___flags$[ebp]
  00012	83 e0 01	 and	 eax, 1
  00015	74 09		 je	 SHORT $L41495
  00017	8b 4d fc	 mov	 ecx, DWORD PTR _this$[ebp]
  0001a	51		 push	 ecx
  0001b	e8 00 00 00 00	 call	 ??3CObject@@SGXPAX@Z	; CObject::operator delete
$L41495:
  00020	8b 45 fc	 mov	 eax, DWORD PTR _this$[ebp]
  00023	8b e5		 mov	 esp, ebp
  00025	5d		 pop	 ebp
  00026	c2 04 00	 ret	 4
??_GCGdiObject@@UAEPAXI@Z ENDP				; CGdiObject::`scalar deleting destructor'
_TEXT	ENDS
PUBLIC	??1CObject@@UAE@XZ				; CObject::~CObject
;	COMDAT xdata$x
; File d:\program files (x86)\microsoft visual studio .net 2003\vc7\atlmfc\include\afxwin1.inl
xdata$x	SEGMENT
$T197996 DD	0ffffffffH
	DD	FLAT:$L197992
$T197994 DD	019930520H
	DD	01H
	DD	FLAT:$T197996
	DD	2 DUP(00H)
	DD	2 DUP(00H)
; Function compile flags: /Odt
xdata$x	ENDS
;	COMDAT ??1CGdiObject@@UAE@XZ
_TEXT	SEGMENT
_this$ = -16						; size = 4
__$EHRec$ = -12						; size = 12
??1CGdiObject@@UAE@XZ PROC NEAR				; CGdiObject::~CGdiObject, COMDAT
; _this$ = ecx

; 84   : 	{ DeleteObject(); }

  00000	55		 push	 ebp
  00001	8b ec		 mov	 ebp, esp
  00003	6a ff		 push	 -1
  00005	68 00 00 00 00	 push	 __ehhandler$??1CGdiObject@@UAE@XZ
  0000a	64 a1 00 00 00
	00		 mov	 eax, DWORD PTR fs:__except_list
  00010	50		 push	 eax
  00011	64 89 25 00 00
	00 00		 mov	 DWORD PTR fs:__except_list, esp
  00018	51		 push	 ecx
  00019	89 4d f0	 mov	 DWORD PTR _this$[ebp], ecx
  0001c	8b 45 f0	 mov	 eax, DWORD PTR _this$[ebp]
  0001f	c7 00 00 00 00
	00		 mov	 DWORD PTR [eax], OFFSET FLAT:??_7CGdiObject@@6B@
  00025	c7 45 fc 00 00
	00 00		 mov	 DWORD PTR __$EHRec$[ebp+8], 0
  0002c	8b 4d f0	 mov	 ecx, DWORD PTR _this$[ebp]
  0002f	e8 00 00 00 00	 call	 ?DeleteObject@CGdiObject@@QAEHXZ ; CGdiObject::DeleteObject
  00034	c7 45 fc ff ff
	ff ff		 mov	 DWORD PTR __$EHRec$[ebp+8], -1
  0003b	8b 4d f0	 mov	 ecx, DWORD PTR _this$[ebp]
  0003e	e8 00 00 00 00	 call	 ??1CObject@@UAE@XZ	; CObject::~CObject
  00043	8b 4d f4	 mov	 ecx, DWORD PTR __$EHRec$[ebp]
  00046	64 89 0d 00 00
	00 00		 mov	 DWORD PTR fs:__except_list, ecx
  0004d	8b e5		 mov	 esp, ebp
  0004f	5d		 pop	 ebp
  00050	c3		 ret	 0
_TEXT	ENDS
;	COMDAT text$x
text$x	SEGMENT
$L197992:
  00000	8b 4d f0	 mov	 ecx, DWORD PTR _this$[ebp]
  00003	e9 00 00 00 00	 jmp	 ??1CObject@@UAE@XZ	; CObject::~CObject
__ehhandler$??1CGdiObject@@UAE@XZ:
  00008	b8 00 00 00 00	 mov	 eax, OFFSET FLAT:$T197994
  0000d	e9 00 00 00 00	 jmp	 ___CxxFrameHandler
text$x	ENDS
??1CGdiObject@@UAE@XZ ENDP				; CGdiObject::~CGdiObject
; Function compile flags: /Odt
; File d:\program files (x86)\microsoft visual studio .net 2003\vc7\atlmfc\include\afx.inl
;	COMDAT ??1CObject@@UAE@XZ
_TEXT	SEGMENT
_this$ = -4						; size = 4
??1CObject@@UAE@XZ PROC NEAR				; CObject::~CObject, COMDAT
; _this$ = ecx

; 23   : 	{ }

  00000	55		 push	 ebp
  00001	8b ec		 mov	 ebp, esp
  00003	51		 push	 ecx
  00004	89 4d fc	 mov	 DWORD PTR _this$[ebp], ecx
  00007	8b e5		 mov	 esp, ebp
  00009	5d		 pop	 ebp
  0000a	c3		 ret	 0
??1CObject@@UAE@XZ ENDP					; CObject::~CObject
; Function compile flags: /Odt
_TEXT	ENDS
;	COMDAT ??_GCFont@@UAEPAXI@Z
_TEXT	SEGMENT
_this$ = -4						; size = 4
___flags$ = 8						; size = 4
??_GCFont@@UAEPAXI@Z PROC NEAR				; CFont::`scalar deleting destructor', COMDAT
; _this$ = ecx
  00000	55		 push	 ebp
  00001	8b ec		 mov	 ebp, esp
  00003	51		 push	 ecx
  00004	89 4d fc	 mov	 DWORD PTR _this$[ebp], ecx
  00007	8b 4d fc	 mov	 ecx, DWORD PTR _this$[ebp]
  0000a	e8 00 00 00 00	 call	 ??1CFont@@UAE@XZ	; CFont::~CFont
  0000f	8b 45 08	 mov	 eax, DWORD PTR ___flags$[ebp]
  00012	83 e0 01	 and	 eax, 1
  00015	74 09		 je	 SHORT $L41640
  00017	8b 4d fc	 mov	 ecx, DWORD PTR _this$[ebp]
  0001a	51		 push	 ecx
  0001b	e8 00 00 00 00	 call	 ??3CObject@@SGXPAX@Z	; CObject::operator delete
$L41640:
  00020	8b 45 fc	 mov	 eax, DWORD PTR _this$[ebp]
  00023	8b e5		 mov	 esp, ebp
  00025	5d		 pop	 ebp
  00026	c2 04 00	 ret	 4
??_GCFont@@UAEPAXI@Z ENDP				; CFont::`scalar deleting destructor'
; Function compile flags: /Odt
; File d:\program files (x86)\microsoft visual studio .net 2003\vc7\atlmfc\include\afxwin1.inl
_TEXT	ENDS
;	COMDAT ??1CFont@@UAE@XZ
_TEXT	SEGMENT
_this$ = -4						; size = 4
??1CFont@@UAE@XZ PROC NEAR				; CFont::~CFont, COMDAT
; _this$ = ecx

; 155  : 	{ }

  00000	55		 push	 ebp
  00001	8b ec		 mov	 ebp, esp
  00003	51		 push	 ecx
  00004	89 4d fc	 mov	 DWORD PTR _this$[ebp], ecx
  00007	8b 45 fc	 mov	 eax, DWORD PTR _this$[ebp]
  0000a	c7 00 00 00 00
	00		 mov	 DWORD PTR [eax], OFFSET FLAT:??_7CFont@@6B@
  00010	8b 4d fc	 mov	 ecx, DWORD PTR _this$[ebp]
  00013	e8 00 00 00 00	 call	 ??1CGdiObject@@UAE@XZ	; CGdiObject::~CGdiObject
  00018	8b e5		 mov	 esp, ebp
  0001a	5d		 pop	 ebp
  0001b	c3		 ret	 0
??1CFont@@UAE@XZ ENDP					; CFont::~CFont
_TEXT	ENDS
EXTRN	__imp__CreateFontIndirectA@4:NEAR
EXTRN	?Attach@CGdiObject@@QAEHPAX@Z:NEAR		; CGdiObject::Attach
; Function compile flags: /Odt
;	COMDAT ?CreateFontIndirectA@CFont@@QAEHPBUtagLOGFONTA@@@Z
_TEXT	SEGMENT
_this$ = -4						; size = 4
_lpLogFont$ = 8						; size = 4
?CreateFontIndirectA@CFont@@QAEHPBUtagLOGFONTA@@@Z PROC NEAR ; CFont::CreateFontIndirectA, COMDAT
; _this$ = ecx

; 157  : 	{ return Attach(::CreateFontIndirect(lpLogFont)); }

  00000	55		 push	 ebp
  00001	8b ec		 mov	 ebp, esp
  00003	51		 push	 ecx
  00004	89 4d fc	 mov	 DWORD PTR _this$[ebp], ecx
  00007	8b 45 08	 mov	 eax, DWORD PTR _lpLogFont$[ebp]
  0000a	50		 push	 eax
  0000b	ff 15 00 00 00
	00		 call	 DWORD PTR __imp__CreateFontIndirectA@4
  00011	50		 push	 eax
  00012	8b 4d fc	 mov	 ecx, DWORD PTR _this$[ebp]
  00015	e8 00 00 00 00	 call	 ?Attach@CGdiObject@@QAEHPAX@Z ; CGdiObject::Attach
  0001a	8b e5		 mov	 esp, ebp
  0001c	5d		 pop	 ebp
  0001d	c2 04 00	 ret	 4
?CreateFontIndirectA@CFont@@QAEHPBUtagLOGFONTA@@@Z ENDP	; CFont::CreateFontIndirectA
_TEXT	ENDS
EXTRN	__imp__GetWindowRect@8:NEAR
; Function compile flags: /Odt
; File d:\program files (x86)\microsoft visual studio .net 2003\vc7\atlmfc\include\afxwin2.inl
;	COMDAT ?GetWindowRect@CWnd@@QBEXPAUtagRECT@@@Z
_TEXT	SEGMENT
_this$ = -4						; size = 4
_lpRect$ = 8						; size = 4
?GetWindowRect@CWnd@@QBEXPAUtagRECT@@@Z PROC NEAR	; CWnd::GetWindowRect, COMDAT
; _this$ = ecx

; 105  : 	{ ASSERT(::IsWindow(m_hWnd)); ::GetWindowRect(m_hWnd, lpRect); }

  00000	55		 push	 ebp
  00001	8b ec		 mov	 ebp, esp
  00003	51		 push	 ecx
  00004	89 4d fc	 mov	 DWORD PTR _this$[ebp], ecx
  00007	8b 45 08	 mov	 eax, DWORD PTR _lpRect$[ebp]
  0000a	50		 push	 eax
  0000b	8b 4d fc	 mov	 ecx, DWORD PTR _this$[ebp]
  0000e	8b 51 20	 mov	 edx, DWORD PTR [ecx+32]
  00011	52		 push	 edx
  00012	ff 15 00 00 00
	00		 call	 DWORD PTR __imp__GetWindowRect@8
  00018	8b e5		 mov	 esp, ebp
  0001a	5d		 pop	 ebp
  0001b	c2 04 00	 ret	 4
?GetWindowRect@CWnd@@QBEXPAUtagRECT@@@Z ENDP		; CWnd::GetWindowRect
_TEXT	ENDS
EXTRN	__imp__GetClientRect@8:NEAR
; Function compile flags: /Odt
;	COMDAT ?GetClientRect@CWnd@@QBEXPAUtagRECT@@@Z
_TEXT	SEGMENT
_this$ = -4						; size = 4
_lpRect$ = 8						; size = 4
?GetClientRect@CWnd@@QBEXPAUtagRECT@@@Z PROC NEAR	; CWnd::GetClientRect, COMDAT
; _this$ = ecx

; 107  : 	{ ASSERT(::IsWindow(m_hWnd)); ::GetClientRect(m_hWnd, lpRect); }

  00000	55		 push	 ebp
  00001	8b ec		 mov	 ebp, esp
  00003	51		 push	 ecx
  00004	89 4d fc	 mov	 DWORD PTR _this$[ebp], ecx
  00007	8b 45 08	 mov	 eax, DWORD PTR _lpRect$[ebp]
  0000a	50		 push	 eax
  0000b	8b 4d fc	 mov	 ecx, DWORD PTR _this$[ebp]
  0000e	8b 51 20	 mov	 edx, DWORD PTR [ecx+32]
  00011	52		 push	 edx
  00012	ff 15 00 00 00
	00		 call	 DWORD PTR __imp__GetClientRect@8
  00018	8b e5		 mov	 esp, ebp
  0001a	5d		 pop	 ebp
  0001b	c2 04 00	 ret	 4
?GetClientRect@CWnd@@QBEXPAUtagRECT@@@Z ENDP		; CWnd::GetClientRect
_TEXT	ENDS
EXTRN	__imp__UpdateWindow@4:NEAR
; Function compile flags: /Odt
;	COMDAT ?UpdateWindow@CWnd@@QAEXXZ
_TEXT	SEGMENT
_this$ = -4						; size = 4
?UpdateWindow@CWnd@@QAEXXZ PROC NEAR			; CWnd::UpdateWindow, COMDAT
; _this$ = ecx

; 127  : 	{ ASSERT(::IsWindow(m_hWnd)); ::UpdateWindow(m_hWnd); }

  00000	55		 push	 ebp
  00001	8b ec		 mov	 ebp, esp
  00003	51		 push	 ecx
  00004	89 4d fc	 mov	 DWORD PTR _this$[ebp], ecx
  00007	8b 45 fc	 mov	 eax, DWORD PTR _this$[ebp]
  0000a	8b 48 20	 mov	 ecx, DWORD PTR [eax+32]
  0000d	51		 push	 ecx
  0000e	ff 15 00 00 00
	00		 call	 DWORD PTR __imp__UpdateWindow@4
  00014	8b e5		 mov	 esp, ebp
  00016	5d		 pop	 ebp
  00017	c3		 ret	 0
?UpdateWindow@CWnd@@QAEXXZ ENDP				; CWnd::UpdateWindow
_TEXT	ENDS
EXTRN	__imp__InvalidateRect@12:NEAR
; Function compile flags: /Odt
;	COMDAT ?InvalidateRect@CWnd@@QAEXPBUtagRECT@@H@Z
_TEXT	SEGMENT
_this$ = -4						; size = 4
_lpRect$ = 8						; size = 4
_bErase$ = 12						; size = 4
?InvalidateRect@CWnd@@QAEXPBUtagRECT@@H@Z PROC NEAR	; CWnd::InvalidateRect, COMDAT
; _this$ = ecx

; 137  : 	{ ASSERT(::IsWindow(m_hWnd)); ::InvalidateRect(m_hWnd, lpRect, bErase); }

  00000	55		 push	 ebp
  00001	8b ec		 mov	 ebp, esp
  00003	51		 push	 ecx
  00004	89 4d fc	 mov	 DWORD PTR _this$[ebp], ecx
  00007	8b 45 0c	 mov	 eax, DWORD PTR _bErase$[ebp]
  0000a	50		 push	 eax
  0000b	8b 4d 08	 mov	 ecx, DWORD PTR _lpRect$[ebp]
  0000e	51		 push	 ecx
  0000f	8b 55 fc	 mov	 edx, DWORD PTR _this$[ebp]
  00012	8b 42 20	 mov	 eax, DWORD PTR [edx+32]
  00015	50		 push	 eax
  00016	ff 15 00 00 00
	00		 call	 DWORD PTR __imp__InvalidateRect@12
  0001c	8b e5		 mov	 esp, ebp
  0001e	5d		 pop	 ebp
  0001f	c2 08 00	 ret	 8
?InvalidateRect@CWnd@@QAEXPBUtagRECT@@H@Z ENDP		; CWnd::InvalidateRect
_TEXT	ENDS
EXTRN	__imp__GetParent@4:NEAR
EXTRN	?FromHandle@CWnd@@SGPAV1@PAUHWND__@@@Z:NEAR	; CWnd::FromHandle
; Function compile flags: /Odt
;	COMDAT ?GetParent@CWnd@@QBEPAV1@XZ
_TEXT	SEGMENT
_this$ = -4						; size = 4
?GetParent@CWnd@@QBEPAV1@XZ PROC NEAR			; CWnd::GetParent, COMDAT
; _this$ = ecx

; 282  : 	{ ASSERT(::IsWindow(m_hWnd)); return CWnd::FromHandle(::GetParent(m_hWnd)); }

  00000	55		 push	 ebp
  00001	8b ec		 mov	 ebp, esp
  00003	51		 push	 ecx
  00004	89 4d fc	 mov	 DWORD PTR _this$[ebp], ecx
  00007	8b 45 fc	 mov	 eax, DWORD PTR _this$[ebp]
  0000a	8b 48 20	 mov	 ecx, DWORD PTR [eax+32]
  0000d	51		 push	 ecx
  0000e	ff 15 00 00 00
	00		 call	 DWORD PTR __imp__GetParent@4
  00014	50		 push	 eax
  00015	e8 00 00 00 00	 call	 ?FromHandle@CWnd@@SGPAV1@PAUHWND__@@@Z ; CWnd::FromHandle
  0001a	8b e5		 mov	 esp, ebp
  0001c	5d		 pop	 ebp
  0001d	c3		 ret	 0
?GetParent@CWnd@@QBEPAV1@XZ ENDP			; CWnd::GetParent
; Function compile flags: /Odt
_TEXT	ENDS
;	COMDAT ?DoDataExchange@CWnd@@MAEXPAVCDataExchange@@@Z
_TEXT	SEGMENT
_this$ = -4						; size = 4
___formal$ = 8						; size = 4
?DoDataExchange@CWnd@@MAEXPAVCDataExchange@@@Z PROC NEAR ; CWnd::DoDataExchange, COMDAT
; _this$ = ecx

; 545  : 	{ } // default does nothing

  00000	55		 push	 ebp
  00001	8b ec		 mov	 ebp, esp
  00003	51		 push	 ecx
  00004	89 4d fc	 mov	 DWORD PTR _this$[ebp], ecx
  00007	8b e5		 mov	 esp, ebp
  00009	5d		 pop	 ebp
  0000a	c2 04 00	 ret	 4
?DoDataExchange@CWnd@@MAEXPAVCDataExchange@@@Z ENDP	; CWnd::DoDataExchange
_TEXT	ENDS
EXTRN	__imp__EnableWindow@8:NEAR
; Function compile flags: /Odt
;	COMDAT ?BeginModalState@CWnd@@UAEXXZ
_TEXT	SEGMENT
_this$ = -4						; size = 4
?BeginModalState@CWnd@@UAEXXZ PROC NEAR			; CWnd::BeginModalState, COMDAT
; _this$ = ecx

; 549  : 	{ ::EnableWindow(m_hWnd, FALSE); }

  00000	55		 push	 ebp
  00001	8b ec		 mov	 ebp, esp
  00003	51		 push	 ecx
  00004	89 4d fc	 mov	 DWORD PTR _this$[ebp], ecx
  00007	6a 00		 push	 0
  00009	8b 45 fc	 mov	 eax, DWORD PTR _this$[ebp]
  0000c	8b 48 20	 mov	 ecx, DWORD PTR [eax+32]
  0000f	51		 push	 ecx
  00010	ff 15 00 00 00
	00		 call	 DWORD PTR __imp__EnableWindow@8
  00016	8b e5		 mov	 esp, ebp
  00018	5d		 pop	 ebp
  00019	c3		 ret	 0
?BeginModalState@CWnd@@UAEXXZ ENDP			; CWnd::BeginModalState
; Function compile flags: /Odt
_TEXT	ENDS
;	COMDAT ?EndModalState@CWnd@@UAEXXZ
_TEXT	SEGMENT
_this$ = -4						; size = 4
?EndModalState@CWnd@@UAEXXZ PROC NEAR			; CWnd::EndModalState, COMDAT
; _this$ = ecx

; 551  : 	{ ::EnableWindow(m_hWnd, TRUE); }

  00000	55		 push	 ebp
  00001	8b ec		 mov	 ebp, esp
  00003	51		 push	 ecx
  00004	89 4d fc	 mov	 DWORD PTR _this$[ebp], ecx
  00007	6a 01		 push	 1
  00009	8b 45 fc	 mov	 eax, DWORD PTR _this$[ebp]
  0000c	8b 48 20	 mov	 ecx, DWORD PTR [eax+32]
  0000f	51		 push	 ecx
  00010	ff 15 00 00 00
	00		 call	 DWORD PTR __imp__EnableWindow@8
  00016	8b e5		 mov	 esp, ebp
  00018	5d		 pop	 ebp
  00019	c3		 ret	 0
?EndModalState@CWnd@@UAEXXZ ENDP			; CWnd::EndModalState
_TEXT	ENDS
PUBLIC	??_7CStatic@@6B@				; CStatic::`vftable'
PUBLIC	??_GCStatic@@UAEPAXI@Z				; CStatic::`scalar deleting destructor'
PUBLIC	??_R4CStatic@@6B@				; CStatic::`RTTI Complete Object Locator'
PUBLIC	??_R3CStatic@@8					; CStatic::`RTTI Class Hierarchy Descriptor'
PUBLIC	??_R2CStatic@@8					; CStatic::`RTTI Base Class Array'
EXTRN	?GetMessageMap@CWnd@@MBEPBUAFX_MSGMAP@@XZ:NEAR	; CWnd::GetMessageMap
EXTRN	?GetRuntimeClass@CStatic@@UBEPAUCRuntimeClass@@XZ:NEAR ; CStatic::GetRuntimeClass
EXTRN	??_ECStatic@@UAEPAXI@Z:NEAR			; CStatic::`vector deleting destructor'
EXTRN	??0CWnd@@QAE@XZ:NEAR				; CWnd::CWnd
;	COMDAT ??_7CStatic@@6B@
CONST	SEGMENT
??_7CStatic@@6B@ DD FLAT:??_R4CStatic@@6B@		; CStatic::`vftable'
	DD	FLAT:?GetRuntimeClass@CStatic@@UBEPAUCRuntimeClass@@XZ
	DD	FLAT:??_ECStatic@@UAEPAXI@Z
	DD	FLAT:?Serialize@CObject@@UAEXAAVCArchive@@@Z
	DD	FLAT:?AssertValid@CObject@@UBEXXZ
	DD	FLAT:?Dump@CObject@@UBEXAAVCDumpContext@@@Z
	DD	FLAT:?OnCmdMsg@CCmdTarget@@UAEHIHPAXPAUAFX_CMDHANDLERINFO@@@Z
	DD	FLAT:?OnFinalRelease@CWnd@@UAEXXZ
	DD	FLAT:?IsInvokeAllowed@CCmdTarget@@UAEHJ@Z
	DD	FLAT:?GetDispatchIID@CCmdTarget@@UAEHPAU_GUID@@@Z
	DD	FLAT:?GetTypeInfoCount@CCmdTarget@@UAEIXZ
	DD	FLAT:?GetTypeLibCache@CCmdTarget@@UAEPAVCTypeLibCache@@XZ
	DD	FLAT:?GetTypeLib@CCmdTarget@@UAEJKPAPAUITypeLib@@@Z
	DD	FLAT:?GetMessageMap@CWnd@@MBEPBUAFX_MSGMAP@@XZ
	DD	FLAT:?GetCommandMap@CCmdTarget@@MBEPBUAFX_OLECMDMAP@@XZ
	DD	FLAT:?GetDispatchMap@CCmdTarget@@MBEPBUAFX_DISPMAP@@XZ
	DD	FLAT:?GetConnectionMap@CCmdTarget@@MBEPBUAFX_CONNECTIONMAP@@XZ
	DD	FLAT:?GetInterfaceMap@CWnd@@MBEPBUAFX_INTERFACEMAP@@XZ
	DD	FLAT:?GetEventSinkMap@CCmdTarget@@MBEPBUAFX_EVENTSINKMAP@@XZ
	DD	FLAT:?OnCreateAggregates@CCmdTarget@@UAEHXZ
	DD	FLAT:?GetInterfaceHook@CCmdTarget@@UAEPAUIUnknown@@PBX@Z
	DD	FLAT:?GetExtraConnectionPoints@CCmdTarget@@MAEHPAVCPtrArray@@@Z
	DD	FLAT:?GetConnectionHook@CCmdTarget@@MAEPAUIConnectionPoint@@ABU_GUID@@@Z
	DD	FLAT:?PreSubclassWindow@CWnd@@UAEXXZ
	DD	FLAT:?Create@CWnd@@UAEHPBD0KABUtagRECT@@PAV1@IPAUCCreateContext@@@Z
	DD	FLAT:?CreateEx@CWnd@@UAEHKPBD0KABUtagRECT@@PAV1@IPAX@Z
	DD	FLAT:?CreateEx@CWnd@@UAEHKPBD0KHHHHPAUHWND__@@PAUHMENU__@@PAX@Z
	DD	FLAT:?DestroyWindow@CWnd@@UAEHXZ
	DD	FLAT:?PreCreateWindow@CWnd@@UAEHAAUtagCREATESTRUCTA@@@Z
	DD	FLAT:?CalcWindowRect@CWnd@@UAEXPAUtagRECT@@I@Z
	DD	FLAT:?OnToolHitTest@CWnd@@UBEHVCPoint@@PAUtagTOOLINFOA@@@Z
	DD	FLAT:?GetScrollBarCtrl@CWnd@@UBEPAVCScrollBar@@H@Z
	DD	FLAT:?WinHelpA@CWnd@@UAEXKI@Z
	DD	FLAT:?HtmlHelpA@CWnd@@UAEXKI@Z
	DD	FLAT:?WinHelpInternal@CWnd@@UAEXKI@Z
	DD	FLAT:?ContinueModal@CWnd@@UAEHXZ
	DD	FLAT:?EndModalLoop@CWnd@@UAEXH@Z
	DD	FLAT:?EnsureStdObj@CWnd@@UAEJXZ
	DD	FLAT:?get_accParent@CWnd@@UAEJPAPAUIDispatch@@@Z
	DD	FLAT:?get_accChildCount@CWnd@@UAEJPAJ@Z
	DD	FLAT:?get_accChild@CWnd@@UAEJUtagVARIANT@@PAPAUIDispatch@@@Z
	DD	FLAT:?get_accName@CWnd@@UAEJUtagVARIANT@@PAPA_W@Z
	DD	FLAT:?get_accValue@CWnd@@UAEJUtagVARIANT@@PAPA_W@Z
	DD	FLAT:?get_accDescription@CWnd@@UAEJUtagVARIANT@@PAPA_W@Z
	DD	FLAT:?get_accRole@CWnd@@UAEJUtagVARIANT@@PAU2@@Z
	DD	FLAT:?get_accState@CWnd@@UAEJUtagVARIANT@@PAU2@@Z
	DD	FLAT:?get_accHelp@CWnd@@UAEJUtagVARIANT@@PAPA_W@Z
	DD	FLAT:?get_accHelpTopic@CWnd@@UAEJPAPA_WUtagVARIANT@@PAJ@Z
	DD	FLAT:?get_accKeyboardShortcut@CWnd@@UAEJUtagVARIANT@@PAPA_W@Z
	DD	FLAT:?get_accFocus@CWnd@@UAEJPAUtagVARIANT@@@Z
	DD	FLAT:?get_accSelection@CWnd@@UAEJPAUtagVARIANT@@@Z
	DD	FLAT:?get_accDefaultAction@CWnd@@UAEJUtagVARIANT@@PAPA_W@Z
	DD	FLAT:?accSelect@CWnd@@UAEJJUtagVARIANT@@@Z
	DD	FLAT:?accLocation@CWnd@@UAEJPAJ000UtagVARIANT@@@Z
	DD	FLAT:?accNavigate@CWnd@@UAEJJUtagVARIANT@@PAU2@@Z
	DD	FLAT:?accHitTest@CWnd@@UAEJJJPAUtagVARIANT@@@Z
	DD	FLAT:?accDoDefaultAction@CWnd@@UAEJUtagVARIANT@@@Z
	DD	FLAT:?put_accName@CWnd@@UAEJUtagVARIANT@@PA_W@Z
	DD	FLAT:?put_accValue@CWnd@@UAEJUtagVARIANT@@PA_W@Z
	DD	FLAT:?SetProxy@CWnd@@UAEJPAUIAccessibleProxy@@@Z
	DD	FLAT:?CreateAccessibleProxy@CWnd@@UAEJIJPAJ@Z
	DD	FLAT:?OnCommand@CWnd@@MAEHIJ@Z
	DD	FLAT:?OnNotify@CWnd@@MAEHIJPAJ@Z
	DD	FLAT:?GetSuperWndProcAddr@CWnd@@MAEPAP6GJPAUHWND__@@IIJ@ZXZ
	DD	FLAT:?DoDataExchange@CWnd@@MAEXPAVCDataExchange@@@Z
	DD	FLAT:?BeginModalState@CWnd@@UAEXXZ
	DD	FLAT:?EndModalState@CWnd@@UAEXXZ
	DD	FLAT:?PreTranslateMessage@CWnd@@UAEHPAUtagMSG@@@Z
	DD	FLAT:?OnAmbientProperty@CWnd@@UAEHPAVCOleControlSite@@JPAUtagVARIANT@@@Z
	DD	FLAT:?WindowProc@CWnd@@MAEJIIJ@Z
	DD	FLAT:?OnWndMsg@CWnd@@MAEHIIJPAJ@Z
	DD	FLAT:?DefWindowProcA@CWnd@@MAEJIIJ@Z
	DD	FLAT:?PostNcDestroy@CWnd@@MAEXXZ
	DD	FLAT:?OnChildNotify@CStatic@@MAEHIIJPAJ@Z
	DD	FLAT:?CheckAutoCenter@CWnd@@UAEHXZ
	DD	FLAT:?IsFrameWnd@CWnd@@UBEHXZ
	DD	FLAT:?CreateControlContainer@CWnd@@MAEHPAPAVCOleControlContainer@@@Z
	DD	FLAT:?CreateControlSite@CWnd@@MAEHPAVCOleControlContainer@@PAPAVCOleControlSite@@IABU_GUID@@@Z
	DD	FLAT:?SetOccDialogInfo@CWnd@@MAEHPAU_AFX_OCC_DIALOG_INFO@@@Z
	DD	FLAT:?Create@CStatic@@UAEHPBDKABUtagRECT@@PAVCWnd@@I@Z
	DD	FLAT:?DrawItem@CStatic@@UAEXPAUtagDRAWITEMSTRUCT@@@Z
CONST	ENDS
;	COMDAT ??_R4CStatic@@6B@
rdata$r	SEGMENT
??_R4CStatic@@6B@ DD 00H				; CStatic::`RTTI Complete Object Locator'
	DD	00H
	DD	00H
	DD	FLAT:??_R0?AVCStatic@@@8
	DD	FLAT:??_R3CStatic@@8
rdata$r	ENDS
;	COMDAT ??_R3CStatic@@8
rdata$r	SEGMENT
??_R3CStatic@@8 DD 00H					; CStatic::`RTTI Class Hierarchy Descriptor'
	DD	00H
	DD	04H
	DD	FLAT:??_R2CStatic@@8
rdata$r	ENDS
;	COMDAT ??_R2CStatic@@8
rdata$r	SEGMENT
??_R2CStatic@@8 DD FLAT:??_R1A@?0A@A@CStatic@@8		; CStatic::`RTTI Base Class Array'
	DD	FLAT:??_R1A@?0A@A@CWnd@@8
	DD	FLAT:??_R1A@?0A@A@CCmdTarget@@8
	DD	FLAT:??_R1A@?0A@A@CObject@@8
; Function compile flags: /Odt
rdata$r	ENDS
;	COMDAT ??0CStatic@@QAE@XZ
_TEXT	SEGMENT
_this$ = -4						; size = 4
??0CStatic@@QAE@XZ PROC NEAR				; CStatic::CStatic, COMDAT
; _this$ = ecx

; 588  : 	{ }

  00000	55		 push	 ebp
  00001	8b ec		 mov	 ebp, esp
  00003	51		 push	 ecx
  00004	89 4d fc	 mov	 DWORD PTR _this$[ebp], ecx
  00007	8b 4d fc	 mov	 ecx, DWORD PTR _this$[ebp]
  0000a	e8 00 00 00 00	 call	 ??0CWnd@@QAE@XZ		; CWnd::CWnd
  0000f	8b 45 fc	 mov	 eax, DWORD PTR _this$[ebp]
  00012	c7 00 00 00 00
	00		 mov	 DWORD PTR [eax], OFFSET FLAT:??_7CStatic@@6B@
  00018	8b 45 fc	 mov	 eax, DWORD PTR _this$[ebp]
  0001b	8b e5		 mov	 esp, ebp
  0001d	5d		 pop	 ebp
  0001e	c3		 ret	 0
??0CStatic@@QAE@XZ ENDP					; CStatic::CStatic
; Function compile flags: /Odt
_TEXT	ENDS
;	COMDAT ??_GCStatic@@UAEPAXI@Z
_TEXT	SEGMENT
_this$ = -4						; size = 4
___flags$ = 8						; size = 4
??_GCStatic@@UAEPAXI@Z PROC NEAR			; CStatic::`scalar deleting destructor', COMDAT
; _this$ = ecx
  00000	55		 push	 ebp
  00001	8b ec		 mov	 ebp, esp
  00003	51		 push	 ecx
  00004	89 4d fc	 mov	 DWORD PTR _this$[ebp], ecx
  00007	8b 4d fc	 mov	 ecx, DWORD PTR _this$[ebp]
  0000a	e8 00 00 00 00	 call	 ??1CStatic@@UAE@XZ	; CStatic::~CStatic
  0000f	8b 45 08	 mov	 eax, DWORD PTR ___flags$[ebp]
  00012	83 e0 01	 and	 eax, 1
  00015	74 09		 je	 SHORT $L44524
  00017	8b 4d fc	 mov	 ecx, DWORD PTR _this$[ebp]
  0001a	51		 push	 ecx
  0001b	e8 00 00 00 00	 call	 ??3CObject@@SGXPAX@Z	; CObject::operator delete
$L44524:
  00020	8b 45 fc	 mov	 eax, DWORD PTR _this$[ebp]
  00023	8b e5		 mov	 esp, ebp
  00025	5d		 pop	 ebp
  00026	c2 04 00	 ret	 4
??_GCStatic@@UAEPAXI@Z ENDP				; CStatic::`scalar deleting destructor'
_TEXT	ENDS
END
