; Listing generated by Microsoft (R) Optimizing Compiler Version 13.10.3077 

	TITLE	.\src\Gui\CommonControl\SkinButton2.cpp
	.386P
include listing.inc
if @Version gt 510
.model FLAT
else
_TEXT	SEGMENT PARA USE32 PUBLIC 'CODE'
_TEXT	ENDS
_DATA	SEGMENT DWORD USE32 PUBLIC 'DATA'
_DATA	ENDS
CONST	SEGMENT DWORD USE32 PUBLIC 'CONST'
CONST	ENDS
_BSS	SEGMENT DWORD USE32 PUBLIC 'BSS'
_BSS	ENDS
$$SYMBOLS	SEGMENT BYTE USE32 'DEBSYM'
$$SYMBOLS	ENDS
$$TYPES	SEGMENT BYTE USE32 'DEBTYP'
$$TYPES	ENDS
_TLS	SEGMENT DWORD USE32 PUBLIC 'TLS'
_TLS	ENDS
rdata$r	SEGMENT DWORD USE32 PUBLIC 'CONST'
rdata$r	ENDS
xdata$x	SEGMENT DWORD USE32 PUBLIC 'CONST'
xdata$x	ENDS
text$AFX_COL1	SEGMENT PARA USE32 PUBLIC ''
text$AFX_COL1	ENDS
text$yc	SEGMENT PARA USE32 PUBLIC 'CODE'
text$yc	ENDS
CRT$XCA	SEGMENT DWORD USE32 PUBLIC 'DATA'
CRT$XCA	ENDS
CRT$XCU	SEGMENT DWORD USE32 PUBLIC 'DATA'
CRT$XCU	ENDS
CRT$XCL	SEGMENT DWORD USE32 PUBLIC 'DATA'
CRT$XCL	ENDS
CRT$XCC	SEGMENT DWORD USE32 PUBLIC 'DATA'
CRT$XCC	ENDS
CRT$XCZ	SEGMENT DWORD USE32 PUBLIC 'DATA'
CRT$XCZ	ENDS
text$yd	SEGMENT PARA USE32 PUBLIC 'CODE'
text$yd	ENDS
ATL$__m	SEGMENT DWORD USE32 PUBLIC ''
ATL$__m	ENDS
ATL$__z	SEGMENT DWORD USE32 PUBLIC ''
ATL$__z	ENDS
ATL$__a	SEGMENT DWORD USE32 PUBLIC ''
ATL$__a	ENDS
;	COMDAT ??0CGdiPlusBitmap@@QAE@XZ
_TEXT	SEGMENT PARA USE32 PUBLIC 'CODE'
_TEXT	ENDS
;	COMDAT ??1CGdiPlusBitmap@@UAE@XZ
_TEXT	SEGMENT PARA USE32 PUBLIC 'CODE'
_TEXT	ENDS
;	COMDAT ?Empty@CGdiPlusBitmap@@QAEXXZ
_TEXT	SEGMENT PARA USE32 PUBLIC 'CODE'
_TEXT	ENDS
;	COMDAT ?Load@CGdiPlusBitmap@@QAE_NPB_W@Z
_TEXT	SEGMENT PARA USE32 PUBLIC 'CODE'
_TEXT	ENDS
;	COMDAT ??BCGdiPlusBitmap@@QBEPAVBitmap@Gdiplus@@XZ
_TEXT	SEGMENT PARA USE32 PUBLIC 'CODE'
_TEXT	ENDS
;	COMDAT ??_GCGdiPlusBitmap@@UAEPAXI@Z
_TEXT	SEGMENT PARA USE32 PUBLIC 'CODE'
_TEXT	ENDS
;	COMDAT ??_GCSkinButton2@@UAEPAXI@Z
_TEXT	SEGMENT PARA USE32 PUBLIC 'CODE'
_TEXT	ENDS
;	COMDAT ??_GFont@Gdiplus@@QAEPAXI@Z
_TEXT	SEGMENT PARA USE32 PUBLIC 'CODE'
_TEXT	ENDS
;	COMDAT ??B?$CComPtrBase@UITypeInfo2@@@ATL@@QBEPAUITypeInfo2@@XZ
_TEXT	SEGMENT PARA USE32 PUBLIC 'CODE'
_TEXT	ENDS
;	COMDAT ?equal@?$istreambuf_iterator@DU?$char_traits@D@std@@@std@@QBE_NABV12@@Z
_TEXT	SEGMENT PARA USE32 PUBLIC 'CODE'
_TEXT	ENDS
;	COMDAT ?equal@?$istreambuf_iterator@_WU?$char_traits@_W@std@@@std@@QBE_NABV12@@Z
_TEXT	SEGMENT PARA USE32 PUBLIC 'CODE'
_TEXT	ENDS
;	COMDAT ?Unlock@?$CComCritSecLock@VCComCriticalSection@ATL@@@ATL@@QAEXXZ
_TEXT	SEGMENT PARA USE32 PUBLIC 'CODE'
_TEXT	ENDS
;	COMDAT ??$_Maklocstr@D@std@@YAPADPBDPADABU_Cvtvec@@@Z
_TEXT	SEGMENT PARA USE32 PUBLIC 'CODE'
_TEXT	ENDS
;	COMDAT ??_R3CGdiPlusBitmap@@8
rdata$r	SEGMENT DWORD USE32 PUBLIC 'CONST'
rdata$r	ENDS
;	COMDAT ??_R3CSkinButton2@@8
rdata$r	SEGMENT DWORD USE32 PUBLIC 'CONST'
rdata$r	ENDS
;	COMDAT ??_R3?$numpunct@_W@std@@8
rdata$r	SEGMENT DWORD USE32 PUBLIC 'CONST'
rdata$r	ENDS
;	COMDAT ??_R3?$numpunct@D@std@@8
rdata$r	SEGMENT DWORD USE32 PUBLIC 'CONST'
rdata$r	ENDS
;	COMDAT ??_R2CGdiPlusBitmap@@8
rdata$r	SEGMENT DWORD USE32 PUBLIC 'CONST'
rdata$r	ENDS
;	COMDAT ??_R2CSkinButton2@@8
rdata$r	SEGMENT DWORD USE32 PUBLIC 'CONST'
rdata$r	ENDS
;	COMDAT ??_R2?$numpunct@_W@std@@8
rdata$r	SEGMENT DWORD USE32 PUBLIC 'CONST'
rdata$r	ENDS
;	COMDAT ??_R2?$numpunct@D@std@@8
rdata$r	SEGMENT DWORD USE32 PUBLIC 'CONST'
rdata$r	ENDS
;	COMDAT ??_R1A@?0A@A@CGdiPlusBitmap@@8
rdata$r	SEGMENT DWORD USE32 PUBLIC 'CONST'
rdata$r	ENDS
;	COMDAT ??_R1A@?0A@A@CObject@@8
rdata$r	SEGMENT DWORD USE32 PUBLIC 'CONST'
rdata$r	ENDS
;	COMDAT ??_R0?AVCObject@@@8
_DATA	SEGMENT DWORD USE32 PUBLIC 'DATA'
_DATA	ENDS
;	COMDAT ??_R1A@?0A@A@CCmdTarget@@8
rdata$r	SEGMENT DWORD USE32 PUBLIC 'CONST'
rdata$r	ENDS
;	COMDAT ??_R0?AVCCmdTarget@@@8
_DATA	SEGMENT DWORD USE32 PUBLIC 'DATA'
_DATA	ENDS
;	COMDAT ??_R1A@?0A@A@CWnd@@8
rdata$r	SEGMENT DWORD USE32 PUBLIC 'CONST'
rdata$r	ENDS
;	COMDAT ??_R0?AVCWnd@@@8
_DATA	SEGMENT DWORD USE32 PUBLIC 'DATA'
_DATA	ENDS
;	COMDAT ??_R1A@?0A@A@CButton@@8
rdata$r	SEGMENT DWORD USE32 PUBLIC 'CONST'
rdata$r	ENDS
;	COMDAT ??_R0?AVCButton@@@8
_DATA	SEGMENT DWORD USE32 PUBLIC 'DATA'
_DATA	ENDS
;	COMDAT ??_R1A@?0A@A@CSkinButton2@@8
rdata$r	SEGMENT DWORD USE32 PUBLIC 'CONST'
rdata$r	ENDS
;	COMDAT ??_R1A@?0A@A@?$numpunct@_W@std@@8
rdata$r	SEGMENT DWORD USE32 PUBLIC 'CONST'
rdata$r	ENDS
;	COMDAT ??_R1A@?0A@A@facet@locale@std@@8
rdata$r	SEGMENT DWORD USE32 PUBLIC 'CONST'
rdata$r	ENDS
;	COMDAT ??_R0?AVfacet@locale@std@@@8
_DATA	SEGMENT DWORD USE32 PUBLIC 'DATA'
_DATA	ENDS
;	COMDAT ??_R1A@?0A@A@?$numpunct@D@std@@8
rdata$r	SEGMENT DWORD USE32 PUBLIC 'CONST'
rdata$r	ENDS
;	COMDAT ??_R0?AVCGdiPlusBitmap@@@8
_DATA	SEGMENT DWORD USE32 PUBLIC 'DATA'
_DATA	ENDS
;	COMDAT ??_R0?AVCSkinButton2@@@8
_DATA	SEGMENT DWORD USE32 PUBLIC 'DATA'
_DATA	ENDS
;	COMDAT ??_R0?AV?$numpunct@_W@std@@@8
_DATA	SEGMENT DWORD USE32 PUBLIC 'DATA'
_DATA	ENDS
;	COMDAT ??_R0?AV?$numpunct@D@std@@@8
_DATA	SEGMENT DWORD USE32 PUBLIC 'DATA'
_DATA	ENDS
;	COMDAT ??_R4CGdiPlusBitmap@@6B@
rdata$r	SEGMENT DWORD USE32 PUBLIC 'CONST'
rdata$r	ENDS
;	COMDAT ?EndModalState@CWnd@@UAEXXZ
_TEXT	SEGMENT PARA USE32 PUBLIC 'CODE'
_TEXT	ENDS
;	COMDAT ?BeginModalState@CWnd@@UAEXXZ
_TEXT	SEGMENT PARA USE32 PUBLIC 'CODE'
_TEXT	ENDS
;	COMDAT ?DoDataExchange@CWnd@@MAEXPAVCDataExchange@@@Z
_TEXT	SEGMENT PARA USE32 PUBLIC 'CODE'
_TEXT	ENDS
;	COMDAT ?Dump@CObject@@UBEXAAVCDumpContext@@@Z
_TEXT	SEGMENT PARA USE32 PUBLIC 'CODE'
_TEXT	ENDS
;	COMDAT ?AssertValid@CObject@@UBEXXZ
_TEXT	SEGMENT PARA USE32 PUBLIC 'CODE'
_TEXT	ENDS
;	COMDAT ?Serialize@CObject@@UAEXAAVCArchive@@@Z
_TEXT	SEGMENT PARA USE32 PUBLIC 'CODE'
_TEXT	ENDS
;	COMDAT ??_R4CSkinButton2@@6B@
rdata$r	SEGMENT DWORD USE32 PUBLIC 'CONST'
rdata$r	ENDS
;	COMDAT ??0?$allocator@_W@std@@QAE@XZ
_TEXT	SEGMENT PARA USE32 PUBLIC 'CODE'
_TEXT	ENDS
;	COMDAT ??0?$allocator@D@std@@QAE@ABV01@@Z
_TEXT	SEGMENT PARA USE32 PUBLIC 'CODE'
_TEXT	ENDS
;	COMDAT ??0?$allocator@D@std@@QAE@XZ
_TEXT	SEGMENT PARA USE32 PUBLIC 'CODE'
_TEXT	ENDS
;	COMDAT ?deallocate@?$allocator@D@std@@QAEXPADI@Z
_TEXT	SEGMENT PARA USE32 PUBLIC 'CODE'
_TEXT	ENDS
;	COMDAT ?max_size@?$allocator@D@std@@QBEIXZ
_TEXT	SEGMENT PARA USE32 PUBLIC 'CODE'
_TEXT	ENDS
;	COMDAT ?allocate@?$allocator@D@std@@QAEPADI@Z
_TEXT	SEGMENT PARA USE32 PUBLIC 'CODE'
_TEXT	ENDS
;	COMDAT ??$_Allocate@D@std@@YAPADIPAD@Z
_TEXT	SEGMENT PARA USE32 PUBLIC 'CODE'
_TEXT	ENDS
;	COMDAT ??_G?$numpunct@_W@std@@MAEPAXI@Z
_TEXT	SEGMENT PARA USE32 PUBLIC 'CODE'
_TEXT	ENDS
;	COMDAT ??_R4?$numpunct@_W@std@@6B@
rdata$r	SEGMENT DWORD USE32 PUBLIC 'CONST'
rdata$r	ENDS
;	COMDAT ??_G?$numpunct@D@std@@MAEPAXI@Z
_TEXT	SEGMENT PARA USE32 PUBLIC 'CODE'
_TEXT	ENDS
;	COMDAT ??_R4?$numpunct@D@std@@6B@
rdata$r	SEGMENT DWORD USE32 PUBLIC 'CONST'
rdata$r	ENDS
;	COMDAT ?_Psave@?$_Facetptr@V?$numpunct@_W@std@@@std@@2PBVfacet@locale@2@B
_DATA	SEGMENT DWORD USE32 PUBLIC 'DATA'
_DATA	ENDS
;	COMDAT ?_Psave@?$_Facetptr@V?$numpunct@D@std@@@std@@2PBVfacet@locale@2@B
_DATA	SEGMENT DWORD USE32 PUBLIC 'DATA'
_DATA	ENDS
;	COMDAT ?Unlock@CComCriticalSection@ATL@@QAEJXZ
_TEXT	SEGMENT PARA USE32 PUBLIC 'CODE'
_TEXT	ENDS
;	COMDAT ?_Psave@?$_Facetptr@V?$ctype@_W@std@@@std@@2PBVfacet@locale@2@B
_DATA	SEGMENT DWORD USE32 PUBLIC 'DATA'
_DATA	ENDS
;	COMDAT ?_Psave@?$_Facetptr@V?$ctype@D@std@@@std@@2PBVfacet@locale@2@B
_DATA	SEGMENT DWORD USE32 PUBLIC 'DATA'
_DATA	ENDS
;	COMDAT ??$_Maklocchr@_W@std@@YA_WDPA_WABU_Cvtvec@@@Z
_TEXT	SEGMENT PARA USE32 PUBLIC 'CODE'
_TEXT	ENDS
;	COMDAT ??$_Maklocstr@_W@std@@YAPA_WPBDPA_WABU_Cvtvec@@@Z
_TEXT	SEGMENT PARA USE32 PUBLIC 'CODE'
_TEXT	ENDS
;	COMDAT ??$_Maklocchr@D@std@@YADDPADABU_Cvtvec@@@Z
_TEXT	SEGMENT PARA USE32 PUBLIC 'CODE'
_TEXT	ENDS
;	COMDAT ??_C@_04LOAJBDKD@true?$AA@
CONST	SEGMENT DWORD USE32 PUBLIC 'CONST'
CONST	ENDS
;	COMDAT ??_C@_05LAPONLG@false?$AA@
CONST	SEGMENT DWORD USE32 PUBLIC 'CONST'
CONST	ENDS
;	COMDAT _wmemcpy
_TEXT	SEGMENT PARA USE32 PUBLIC 'CODE'
_TEXT	ENDS
;	COMDAT ?max_size@?$allocator@_W@std@@QBEIXZ
_TEXT	SEGMENT PARA USE32 PUBLIC 'CODE'
_TEXT	ENDS
;	COMDAT ?allocate@?$allocator@_W@std@@QAEPA_WI@Z
_TEXT	SEGMENT PARA USE32 PUBLIC 'CODE'
_TEXT	ENDS
;	COMDAT ??$_Allocate@_W@std@@YAPA_WIPA_W@Z
_TEXT	SEGMENT PARA USE32 PUBLIC 'CODE'
_TEXT	ENDS
;	COMDAT ??_C@_01GFHCPBMG@C?$AA@
CONST	SEGMENT DWORD USE32 PUBLIC 'CONST'
CONST	ENDS
;	COMDAT ?_Peek@?$istreambuf_iterator@_WU?$char_traits@_W@std@@@std@@AAE_WXZ
_TEXT	SEGMENT PARA USE32 PUBLIC 'CODE'
_TEXT	ENDS
;	COMDAT ?_Peek@?$istreambuf_iterator@DU?$char_traits@D@std@@@std@@AAEDXZ
_TEXT	SEGMENT PARA USE32 PUBLIC 'CODE'
_TEXT	ENDS
;	COMDAT ??$use_facet@V?$ctype@_W@std@@@std@@YAABV?$ctype@_W@0@ABVlocale@0@@Z
_TEXT	SEGMENT PARA USE32 PUBLIC 'CODE'
_TEXT	ENDS
;	COMDAT ??_S?$ctype@_W@std@@6B@
CONST	SEGMENT DWORD USE32 PUBLIC 'CONST'
CONST	ENDS
;	COMDAT ??_R4?$ctype@_W@std@@6B@
rdata$r	SEGMENT DWORD USE32 PUBLIC 'CONST'
rdata$r	ENDS
;	COMDAT ??_R0?AV?$ctype@_W@std@@@8
_DATA	SEGMENT DWORD USE32 PUBLIC 'DATA'
_DATA	ENDS
;	COMDAT ??_R3?$ctype@_W@std@@8
rdata$r	SEGMENT DWORD USE32 PUBLIC 'CONST'
rdata$r	ENDS
;	COMDAT ??_R2?$ctype@_W@std@@8
rdata$r	SEGMENT DWORD USE32 PUBLIC 'CONST'
rdata$r	ENDS
;	COMDAT ??_R1A@?0A@A@?$ctype@_W@std@@8
rdata$r	SEGMENT DWORD USE32 PUBLIC 'CONST'
rdata$r	ENDS
;	COMDAT ??_R1A@?0A@A@ctype_base@std@@8
rdata$r	SEGMENT DWORD USE32 PUBLIC 'CONST'
rdata$r	ENDS
;	COMDAT ??_R0?AUctype_base@std@@@8
_DATA	SEGMENT DWORD USE32 PUBLIC 'DATA'
_DATA	ENDS
;	COMDAT ??_G?$ctype@_W@std@@MAEPAXI@Z
_TEXT	SEGMENT PARA USE32 PUBLIC 'CODE'
_TEXT	ENDS
;	COMDAT ??_C@_08EPJLHIJG@bad?5cast?$AA@
CONST	SEGMENT DWORD USE32 PUBLIC 'CONST'
CONST	ENDS
;	COMDAT __TI2?AVbad_cast@@
xdata$x	SEGMENT DWORD USE32 PUBLIC 'CONST'
xdata$x	ENDS
;	COMDAT __CTA2?AVbad_cast@@
xdata$x	SEGMENT DWORD USE32 PUBLIC 'CONST'
xdata$x	ENDS
;	COMDAT __CT??_R0?AVbad_cast@@@8??0bad_cast@@QAE@ABV0@@Z12
xdata$x	SEGMENT DWORD USE32 PUBLIC 'CONST'
xdata$x	ENDS
;	COMDAT ??_R0?AVbad_cast@@@8
_DATA	SEGMENT DWORD USE32 PUBLIC 'DATA'
_DATA	ENDS
;	COMDAT __CT??_R0?AVexception@@@8??0exception@@QAE@ABV0@@Z12
xdata$x	SEGMENT DWORD USE32 PUBLIC 'CONST'
xdata$x	ENDS
;	COMDAT ??_R0?AVexception@@@8
_DATA	SEGMENT DWORD USE32 PUBLIC 'DATA'
_DATA	ENDS
;	COMDAT ??$use_facet@V?$ctype@D@std@@@std@@YAABV?$ctype@D@0@ABVlocale@0@@Z
_TEXT	SEGMENT PARA USE32 PUBLIC 'CODE'
_TEXT	ENDS
;	COMDAT ??_S?$ctype@D@std@@6B@
CONST	SEGMENT DWORD USE32 PUBLIC 'CONST'
CONST	ENDS
;	COMDAT ??_R4?$ctype@D@std@@6B@
rdata$r	SEGMENT DWORD USE32 PUBLIC 'CONST'
rdata$r	ENDS
;	COMDAT ??_R0?AV?$ctype@D@std@@@8
_DATA	SEGMENT DWORD USE32 PUBLIC 'DATA'
_DATA	ENDS
;	COMDAT ??_R3?$ctype@D@std@@8
rdata$r	SEGMENT DWORD USE32 PUBLIC 'CONST'
rdata$r	ENDS
;	COMDAT ??_R2?$ctype@D@std@@8
rdata$r	SEGMENT DWORD USE32 PUBLIC 'CONST'
rdata$r	ENDS
;	COMDAT ??_R1A@?0A@A@?$ctype@D@std@@8
rdata$r	SEGMENT DWORD USE32 PUBLIC 'CONST'
rdata$r	ENDS
;	COMDAT ??_G?$ctype@D@std@@MAEPAXI@Z
_TEXT	SEGMENT PARA USE32 PUBLIC 'CODE'
_TEXT	ENDS
;	COMDAT ??_S?$numpunct@_W@std@@6B@
CONST	SEGMENT DWORD USE32 PUBLIC 'CONST'
CONST	ENDS
;	COMDAT ??_S?$numpunct@D@std@@6B@
CONST	SEGMENT DWORD USE32 PUBLIC 'CONST'
CONST	ENDS
;	COMDAT _wmemmove
_TEXT	SEGMENT PARA USE32 PUBLIC 'CODE'
_TEXT	ENDS
;	COMDAT ?deallocate@?$allocator@_W@std@@QAEXPA_WI@Z
_TEXT	SEGMENT PARA USE32 PUBLIC 'CODE'
_TEXT	ENDS
;	COMDAT ??0?$allocator@_W@std@@QAE@ABV01@@Z
_TEXT	SEGMENT PARA USE32 PUBLIC 'CODE'
_TEXT	ENDS
;	COMDAT ??0CSize@@QAE@HH@Z
_TEXT	SEGMENT PARA USE32 PUBLIC 'CODE'
_TEXT	ENDS
;	COMDAT ??2CObject@@SGPAXI@Z
_TEXT	SEGMENT PARA USE32 PUBLIC 'CODE'
_TEXT	ENDS
;	COMDAT ?Activate@CToolTipCtrl@@QAEXH@Z
_TEXT	SEGMENT PARA USE32 PUBLIC 'CODE'
_TEXT	ENDS
;	COMDAT ?SetDelayTime@CToolTipCtrl@@QAEXI@Z
_TEXT	SEGMENT PARA USE32 PUBLIC 'CODE'
_TEXT	ENDS
;	COMDAT ?GetToolCount@CToolTipCtrl@@QBEHXZ
_TEXT	SEGMENT PARA USE32 PUBLIC 'CODE'
_TEXT	ENDS
;	COMDAT ?RelayEvent@CToolTipCtrl@@QAEXPAUtagMSG@@@Z
_TEXT	SEGMENT PARA USE32 PUBLIC 'CODE'
_TEXT	ENDS
;	COMDAT ?IsLocked@CStringData@ATL@@QBE_NXZ
_TEXT	SEGMENT PARA USE32 PUBLIC 'CODE'
_TEXT	ENDS
;	COMDAT ?AtlThrow@ATL@@YGXJ@Z
_TEXT	SEGMENT PARA USE32 PUBLIC 'CODE'
_TEXT	ENDS
;	COMDAT ?IsShared@CStringData@ATL@@QBE_NXZ
_TEXT	SEGMENT PARA USE32 PUBLIC 'CODE'
_TEXT	ENDS
;	COMDAT ?data@CStringData@ATL@@QAEPAXXZ
_TEXT	SEGMENT PARA USE32 PUBLIC 'CODE'
_TEXT	ENDS
;	COMDAT ?AddRef@CStringData@ATL@@QAEXXZ
_TEXT	SEGMENT PARA USE32 PUBLIC 'CODE'
_TEXT	ENDS
;	COMDAT ?Release@CStringData@ATL@@QAEXXZ
_TEXT	SEGMENT PARA USE32 PUBLIC 'CODE'
_TEXT	ENDS
;	COMDAT ?DrawArc@Graphics@Gdiplus@@QAE?AW4Status@2@PBVPen@2@ABVRectF@2@MM@Z
_TEXT	SEGMENT PARA USE32 PUBLIC 'CODE'
_TEXT	ENDS
;	COMDAT ?DrawArc@Graphics@Gdiplus@@QAE?AW4Status@2@PBVPen@2@MMMMMM@Z
_TEXT	SEGMENT PARA USE32 PUBLIC 'CODE'
_TEXT	ENDS
;	COMDAT ?SetStatus@Graphics@Gdiplus@@IBE?AW4Status@2@W432@@Z
_TEXT	SEGMENT PARA USE32 PUBLIC 'CODE'
_TEXT	ENDS
;	COMDAT ??0Color@Gdiplus@@QAE@K@Z
_TEXT	SEGMENT PARA USE32 PUBLIC 'CODE'
_TEXT	ENDS
;	COMDAT ?Inflate@RectF@Gdiplus@@QAEXMM@Z
_TEXT	SEGMENT PARA USE32 PUBLIC 'CODE'
_TEXT	ENDS
;	COMDAT ?FillRectangle@Graphics@Gdiplus@@QAE?AW4Status@2@PBVBrush@2@ABVRectF@2@@Z
_TEXT	SEGMENT PARA USE32 PUBLIC 'CODE'
_TEXT	ENDS
;	COMDAT ?FillRectangle@Graphics@Gdiplus@@QAE?AW4Status@2@PBVBrush@2@MMMM@Z
_TEXT	SEGMENT PARA USE32 PUBLIC 'CODE'
_TEXT	ENDS
;	COMDAT ??1LinearGradientBrush@Gdiplus@@UAE@XZ
_TEXT	SEGMENT PARA USE32 PUBLIC 'CODE'
_TEXT	ENDS
;	COMDAT ??1Brush@Gdiplus@@UAE@XZ
_TEXT	SEGMENT PARA USE32 PUBLIC 'CODE'
_TEXT	ENDS
;	COMDAT ??_7Brush@Gdiplus@@6B@
CONST	SEGMENT DWORD USE32 PUBLIC 'CONST'
CONST	ENDS
;	COMDAT ??_R4Brush@Gdiplus@@6B@
rdata$r	SEGMENT DWORD USE32 PUBLIC 'CONST'
rdata$r	ENDS
;	COMDAT ??_R0?AVBrush@Gdiplus@@@8
_DATA	SEGMENT DWORD USE32 PUBLIC 'DATA'
_DATA	ENDS
;	COMDAT ??_R3Brush@Gdiplus@@8
rdata$r	SEGMENT DWORD USE32 PUBLIC 'CONST'
rdata$r	ENDS
;	COMDAT ??_R2Brush@Gdiplus@@8
rdata$r	SEGMENT DWORD USE32 PUBLIC 'CONST'
rdata$r	ENDS
;	COMDAT ??_R1A@?0A@A@Brush@Gdiplus@@8
rdata$r	SEGMENT DWORD USE32 PUBLIC 'CONST'
rdata$r	ENDS
;	COMDAT ??_R13?0A@A@GdiplusBase@Gdiplus@@8
rdata$r	SEGMENT DWORD USE32 PUBLIC 'CONST'
rdata$r	ENDS
;	COMDAT ??_R0?AVGdiplusBase@Gdiplus@@@8
_DATA	SEGMENT DWORD USE32 PUBLIC 'DATA'
_DATA	ENDS
;	COMDAT ??_GBrush@Gdiplus@@UAEPAXI@Z
_TEXT	SEGMENT PARA USE32 PUBLIC 'CODE'
_TEXT	ENDS
;	COMDAT ?Clone@Brush@Gdiplus@@UBEPAV12@XZ
_TEXT	SEGMENT PARA USE32 PUBLIC 'CODE'
_TEXT	ENDS
;	COMDAT ?SetStatus@Brush@Gdiplus@@IBE?AW4Status@2@W432@@Z
_TEXT	SEGMENT PARA USE32 PUBLIC 'CODE'
_TEXT	ENDS
;	COMDAT ??0Brush@Gdiplus@@IAE@PAVGpBrush@1@W4Status@1@@Z
_TEXT	SEGMENT PARA USE32 PUBLIC 'CODE'
_TEXT	ENDS
;	COMDAT ?SetNativeBrush@Brush@Gdiplus@@IAEXPAVGpBrush@2@@Z
_TEXT	SEGMENT PARA USE32 PUBLIC 'CODE'
_TEXT	ENDS
;	COMDAT ??0LinearGradientBrush@Gdiplus@@QAE@ABVRectF@1@ABVColor@1@1W4LinearGradientMode@1@@Z
_TEXT	SEGMENT PARA USE32 PUBLIC 'CODE'
_TEXT	ENDS
;	COMDAT ??0Brush@Gdiplus@@IAE@XZ
_TEXT	SEGMENT PARA USE32 PUBLIC 'CODE'
_TEXT	ENDS
;	COMDAT ??_7LinearGradientBrush@Gdiplus@@6B@
CONST	SEGMENT DWORD USE32 PUBLIC 'CONST'
CONST	ENDS
;	COMDAT ??_R4LinearGradientBrush@Gdiplus@@6B@
rdata$r	SEGMENT DWORD USE32 PUBLIC 'CONST'
rdata$r	ENDS
;	COMDAT ??_R0?AVLinearGradientBrush@Gdiplus@@@8
_DATA	SEGMENT DWORD USE32 PUBLIC 'DATA'
_DATA	ENDS
;	COMDAT ??_R3LinearGradientBrush@Gdiplus@@8
rdata$r	SEGMENT DWORD USE32 PUBLIC 'CONST'
rdata$r	ENDS
;	COMDAT ??_R2LinearGradientBrush@Gdiplus@@8
rdata$r	SEGMENT DWORD USE32 PUBLIC 'CONST'
rdata$r	ENDS
;	COMDAT ??_R1A@?0A@A@LinearGradientBrush@Gdiplus@@8
rdata$r	SEGMENT DWORD USE32 PUBLIC 'CONST'
rdata$r	ENDS
;	COMDAT ??_GLinearGradientBrush@Gdiplus@@UAEPAXI@Z
_TEXT	SEGMENT PARA USE32 PUBLIC 'CODE'
_TEXT	ENDS
;	COMDAT ?GetValue@Color@Gdiplus@@QBEKXZ
_TEXT	SEGMENT PARA USE32 PUBLIC 'CODE'
_TEXT	ENDS
;	COMDAT ?SetColor@Pen@Gdiplus@@QAE?AW4Status@2@ABVColor@2@@Z
_TEXT	SEGMENT PARA USE32 PUBLIC 'CODE'
_TEXT	ENDS
;	COMDAT ?SetStatus@Pen@Gdiplus@@IBE?AW4Status@2@W432@@Z
_TEXT	SEGMENT PARA USE32 PUBLIC 'CODE'
_TEXT	ENDS
;	COMDAT ?GetA@Color@Gdiplus@@QBEEXZ
_TEXT	SEGMENT PARA USE32 PUBLIC 'CODE'
_TEXT	ENDS
;	COMDAT ?GetAlpha@Color@Gdiplus@@QBEEXZ
_TEXT	SEGMENT PARA USE32 PUBLIC 'CODE'
_TEXT	ENDS
;	COMDAT ?GetR@Color@Gdiplus@@QBEEXZ
_TEXT	SEGMENT PARA USE32 PUBLIC 'CODE'
_TEXT	ENDS
;	COMDAT ?GetRed@Color@Gdiplus@@QBEEXZ
_TEXT	SEGMENT PARA USE32 PUBLIC 'CODE'
_TEXT	ENDS
;	COMDAT ?GetG@Color@Gdiplus@@QBEEXZ
_TEXT	SEGMENT PARA USE32 PUBLIC 'CODE'
_TEXT	ENDS
;	COMDAT ?GetGreen@Color@Gdiplus@@QBEEXZ
_TEXT	SEGMENT PARA USE32 PUBLIC 'CODE'
_TEXT	ENDS
;	COMDAT ?GetB@Color@Gdiplus@@QBEEXZ
_TEXT	SEGMENT PARA USE32 PUBLIC 'CODE'
_TEXT	ENDS
;	COMDAT ?GetBlue@Color@Gdiplus@@QBEEXZ
_TEXT	SEGMENT PARA USE32 PUBLIC 'CODE'
_TEXT	ENDS
;	COMDAT ?GetColor@Pen@Gdiplus@@QBE?AW4Status@2@PAVColor@2@@Z
_TEXT	SEGMENT PARA USE32 PUBLIC 'CODE'
_TEXT	ENDS
;	COMDAT ?GetPenType@Pen@Gdiplus@@QBE?AW4PenType@2@XZ
_TEXT	SEGMENT PARA USE32 PUBLIC 'CODE'
_TEXT	ENDS
;	COMDAT ?DrawLine@Graphics@Gdiplus@@QAE?AW4Status@2@PBVPen@2@HHHH@Z
_TEXT	SEGMENT PARA USE32 PUBLIC 'CODE'
_TEXT	ENDS
;	COMDAT ??1Pen@Gdiplus@@QAE@XZ
_TEXT	SEGMENT PARA USE32 PUBLIC 'CODE'
_TEXT	ENDS
;	COMDAT ??0Pen@Gdiplus@@QAE@ABVColor@1@M@Z
_TEXT	SEGMENT PARA USE32 PUBLIC 'CODE'
_TEXT	ENDS
;	COMDAT ?SetColorMatrix@ImageAttributes@Gdiplus@@QAE?AW4Status@2@PBUColorMatrix@2@W4ColorMatrixFlags@2@W4ColorAdjustType@2@@Z
_TEXT	SEGMENT PARA USE32 PUBLIC 'CODE'
_TEXT	ENDS
;	COMDAT ?SetStatus@ImageAttributes@Gdiplus@@IBE?AW4Status@2@W432@@Z
_TEXT	SEGMENT PARA USE32 PUBLIC 'CODE'
_TEXT	ENDS
;	COMDAT ??1ImageAttributes@Gdiplus@@QAE@XZ
_TEXT	SEGMENT PARA USE32 PUBLIC 'CODE'
_TEXT	ENDS
;	COMDAT ??0ImageAttributes@Gdiplus@@QAE@XZ
_TEXT	SEGMENT PARA USE32 PUBLIC 'CODE'
_TEXT	ENDS
;	COMDAT ?DrawImage@Graphics@Gdiplus@@QAE?AW4Status@2@PAVImage@2@ABVRectF@2@@Z
_TEXT	SEGMENT PARA USE32 PUBLIC 'CODE'
_TEXT	ENDS
;	COMDAT ?DrawImage@Graphics@Gdiplus@@QAE?AW4Status@2@PAVImage@2@MMMM@Z
_TEXT	SEGMENT PARA USE32 PUBLIC 'CODE'
_TEXT	ENDS
;	COMDAT ?GetWidth@Image@Gdiplus@@QAEIXZ
_TEXT	SEGMENT PARA USE32 PUBLIC 'CODE'
_TEXT	ENDS
;	COMDAT ?SetStatus@Image@Gdiplus@@IBE?AW4Status@2@W432@@Z
_TEXT	SEGMENT PARA USE32 PUBLIC 'CODE'
_TEXT	ENDS
;	COMDAT ?GetHeight@Image@Gdiplus@@QAEIXZ
_TEXT	SEGMENT PARA USE32 PUBLIC 'CODE'
_TEXT	ENDS
;	COMDAT ?DrawImage@Graphics@Gdiplus@@QAE?AW4Status@2@PAVImage@2@ABVRectF@2@MMMMW4Unit@2@PBVImageAttributes@2@P6GHPAX@Z4@Z
_TEXT	SEGMENT PARA USE32 PUBLIC 'CODE'
_TEXT	ENDS
;	COMDAT ??1SolidBrush@Gdiplus@@UAE@XZ
_TEXT	SEGMENT PARA USE32 PUBLIC 'CODE'
_TEXT	ENDS
;	COMDAT ??0Color@Gdiplus@@QAE@EEEE@Z
_TEXT	SEGMENT PARA USE32 PUBLIC 'CODE'
_TEXT	ENDS
;	COMDAT ??0SolidBrush@Gdiplus@@QAE@ABVColor@1@@Z
_TEXT	SEGMENT PARA USE32 PUBLIC 'CODE'
_TEXT	ENDS
;	COMDAT ??_7SolidBrush@Gdiplus@@6B@
CONST	SEGMENT DWORD USE32 PUBLIC 'CONST'
CONST	ENDS
;	COMDAT ??_R4SolidBrush@Gdiplus@@6B@
rdata$r	SEGMENT DWORD USE32 PUBLIC 'CONST'
rdata$r	ENDS
;	COMDAT ??_R0?AVSolidBrush@Gdiplus@@@8
_DATA	SEGMENT DWORD USE32 PUBLIC 'DATA'
_DATA	ENDS
;	COMDAT ??_R3SolidBrush@Gdiplus@@8
rdata$r	SEGMENT DWORD USE32 PUBLIC 'CONST'
rdata$r	ENDS
;	COMDAT ??_R2SolidBrush@Gdiplus@@8
rdata$r	SEGMENT DWORD USE32 PUBLIC 'CONST'
rdata$r	ENDS
;	COMDAT ??_R1A@?0A@A@SolidBrush@Gdiplus@@8
rdata$r	SEGMENT DWORD USE32 PUBLIC 'CONST'
rdata$r	ENDS
;	COMDAT ??_GSolidBrush@Gdiplus@@UAEPAXI@Z
_TEXT	SEGMENT PARA USE32 PUBLIC 'CODE'
_TEXT	ENDS
;	COMDAT ?DrawString@Graphics@Gdiplus@@QAE?AW4Status@2@PB_WHPBVFont@2@ABVRectF@2@PBVStringFormat@2@PBVBrush@2@@Z
_TEXT	SEGMENT PARA USE32 PUBLIC 'CODE'
_TEXT	ENDS
;	COMDAT ??0RectF@Gdiplus@@QAE@XZ
_TEXT	SEGMENT PARA USE32 PUBLIC 'CODE'
_TEXT	ENDS
;	COMDAT ?SetAlignment@StringFormat@Gdiplus@@QAE?AW4Status@2@W4StringAlignment@2@@Z
_TEXT	SEGMENT PARA USE32 PUBLIC 'CODE'
_TEXT	ENDS
;	COMDAT ?SetStatus@StringFormat@Gdiplus@@IBE?AW4Status@2@W432@@Z
_TEXT	SEGMENT PARA USE32 PUBLIC 'CODE'
_TEXT	ENDS
;	COMDAT ??1StringFormat@Gdiplus@@QAE@XZ
_TEXT	SEGMENT PARA USE32 PUBLIC 'CODE'
_TEXT	ENDS
;	COMDAT ??0StringFormat@Gdiplus@@QAE@HG@Z
_TEXT	SEGMENT PARA USE32 PUBLIC 'CODE'
_TEXT	ENDS
;	COMDAT ??0RectF@Gdiplus@@QAE@MMMM@Z
_TEXT	SEGMENT PARA USE32 PUBLIC 'CODE'
_TEXT	ENDS
;	COMDAT ?FromImage@Graphics@Gdiplus@@SAPAV12@PAVImage@2@@Z
_TEXT	SEGMENT PARA USE32 PUBLIC 'CODE'
_TEXT	ENDS
;	COMDAT ??0Graphics@Gdiplus@@QAE@PAVImage@1@@Z
_TEXT	SEGMENT PARA USE32 PUBLIC 'CODE'
_TEXT	ENDS
;	COMDAT ?SetNativeGraphics@Graphics@Gdiplus@@IAEXPAVGpGraphics@2@@Z
_TEXT	SEGMENT PARA USE32 PUBLIC 'CODE'
_TEXT	ENDS
;	COMDAT ??1Bitmap@Gdiplus@@UAE@XZ
_TEXT	SEGMENT PARA USE32 PUBLIC 'CODE'
_TEXT	ENDS
;	COMDAT ??1Image@Gdiplus@@UAE@XZ
_TEXT	SEGMENT PARA USE32 PUBLIC 'CODE'
_TEXT	ENDS
;	COMDAT ??_7Image@Gdiplus@@6B@
CONST	SEGMENT DWORD USE32 PUBLIC 'CONST'
CONST	ENDS
;	COMDAT ??_R4Image@Gdiplus@@6B@
rdata$r	SEGMENT DWORD USE32 PUBLIC 'CONST'
rdata$r	ENDS
;	COMDAT ??_R0?AVImage@Gdiplus@@@8
_DATA	SEGMENT DWORD USE32 PUBLIC 'DATA'
_DATA	ENDS
;	COMDAT ??_R3Image@Gdiplus@@8
rdata$r	SEGMENT DWORD USE32 PUBLIC 'CONST'
rdata$r	ENDS
;	COMDAT ??_R2Image@Gdiplus@@8
rdata$r	SEGMENT DWORD USE32 PUBLIC 'CONST'
rdata$r	ENDS
;	COMDAT ??_R1A@?0A@A@Image@Gdiplus@@8
rdata$r	SEGMENT DWORD USE32 PUBLIC 'CONST'
rdata$r	ENDS
;	COMDAT ??_GImage@Gdiplus@@UAEPAXI@Z
_TEXT	SEGMENT PARA USE32 PUBLIC 'CODE'
_TEXT	ENDS
;	COMDAT ?Clone@Image@Gdiplus@@UAEPAV12@XZ
_TEXT	SEGMENT PARA USE32 PUBLIC 'CODE'
_TEXT	ENDS
;	COMDAT ??0Image@Gdiplus@@IAE@PAVGpImage@1@W4Status@1@@Z
_TEXT	SEGMENT PARA USE32 PUBLIC 'CODE'
_TEXT	ENDS
;	COMDAT ?SetNativeImage@Image@Gdiplus@@IAEXPAVGpImage@2@@Z
_TEXT	SEGMENT PARA USE32 PUBLIC 'CODE'
_TEXT	ENDS
;	COMDAT ??0Bitmap@Gdiplus@@QAE@HHPAVGraphics@1@@Z
_TEXT	SEGMENT PARA USE32 PUBLIC 'CODE'
_TEXT	ENDS
;	COMDAT ??0Image@Gdiplus@@IAE@XZ
_TEXT	SEGMENT PARA USE32 PUBLIC 'CODE'
_TEXT	ENDS
;	COMDAT ??_7Bitmap@Gdiplus@@6B@
CONST	SEGMENT DWORD USE32 PUBLIC 'CONST'
CONST	ENDS
;	COMDAT ??_R4Bitmap@Gdiplus@@6B@
rdata$r	SEGMENT DWORD USE32 PUBLIC 'CONST'
rdata$r	ENDS
;	COMDAT ??_R0?AVBitmap@Gdiplus@@@8
_DATA	SEGMENT DWORD USE32 PUBLIC 'DATA'
_DATA	ENDS
;	COMDAT ??_R3Bitmap@Gdiplus@@8
rdata$r	SEGMENT DWORD USE32 PUBLIC 'CONST'
rdata$r	ENDS
;	COMDAT ??_R2Bitmap@Gdiplus@@8
rdata$r	SEGMENT DWORD USE32 PUBLIC 'CONST'
rdata$r	ENDS
;	COMDAT ??_R1A@?0A@A@Bitmap@Gdiplus@@8
rdata$r	SEGMENT DWORD USE32 PUBLIC 'CONST'
rdata$r	ENDS
;	COMDAT ??_GBitmap@Gdiplus@@UAEPAXI@Z
_TEXT	SEGMENT PARA USE32 PUBLIC 'CODE'
_TEXT	ENDS
;	COMDAT ??1Graphics@Gdiplus@@QAE@XZ
_TEXT	SEGMENT PARA USE32 PUBLIC 'CODE'
_TEXT	ENDS
;	COMDAT ??CCMemDC@@QAEPAV0@XZ
_TEXT	SEGMENT PARA USE32 PUBLIC 'CODE'
_TEXT	ENDS
;	COMDAT ??0Graphics@Gdiplus@@QAE@PAUHDC__@@@Z
_TEXT	SEGMENT PARA USE32 PUBLIC 'CODE'
_TEXT	ENDS
;	COMDAT ??1CMemDC@@UAE@XZ
_TEXT	SEGMENT PARA USE32 PUBLIC 'CODE'
_TEXT	ENDS
;	COMDAT ??_7CMemDC@@6B@
CONST	SEGMENT DWORD USE32 PUBLIC 'CONST'
CONST	ENDS
;	COMDAT ??_R4CMemDC@@6B@
rdata$r	SEGMENT DWORD USE32 PUBLIC 'CONST'
rdata$r	ENDS
;	COMDAT ??_R0?AVCMemDC@@@8
_DATA	SEGMENT DWORD USE32 PUBLIC 'DATA'
_DATA	ENDS
;	COMDAT ??_R3CMemDC@@8
rdata$r	SEGMENT DWORD USE32 PUBLIC 'CONST'
rdata$r	ENDS
;	COMDAT ??_R2CMemDC@@8
rdata$r	SEGMENT DWORD USE32 PUBLIC 'CONST'
rdata$r	ENDS
;	COMDAT ??_R1A@?0A@A@CMemDC@@8
rdata$r	SEGMENT DWORD USE32 PUBLIC 'CONST'
rdata$r	ENDS
;	COMDAT ??_R1A@?0A@A@CDC@@8
rdata$r	SEGMENT DWORD USE32 PUBLIC 'CONST'
rdata$r	ENDS
;	COMDAT ??_R0?AVCDC@@@8
_DATA	SEGMENT DWORD USE32 PUBLIC 'DATA'
_DATA	ENDS
;	COMDAT ??_GCMemDC@@UAEPAXI@Z
_TEXT	SEGMENT PARA USE32 PUBLIC 'CODE'
_TEXT	ENDS
;	COMDAT ?PtVisible@CDC@@UBEHHH@Z
_TEXT	SEGMENT PARA USE32 PUBLIC 'CODE'
_TEXT	ENDS
;	COMDAT ?RectVisible@CDC@@UBEHPBUtagRECT@@@Z
_TEXT	SEGMENT PARA USE32 PUBLIC 'CODE'
_TEXT	ENDS
;	COMDAT ?TextOutA@CDC@@UAEHHHPBDH@Z
_TEXT	SEGMENT PARA USE32 PUBLIC 'CODE'
_TEXT	ENDS
;	COMDAT ?ExtTextOutA@CDC@@UAEHHHIPBUtagRECT@@PBDIPAH@Z
_TEXT	SEGMENT PARA USE32 PUBLIC 'CODE'
_TEXT	ENDS
;	COMDAT ?TabbedTextOutA@CDC@@UAE?AVCSize@@HHPBDHHPAHH@Z
_TEXT	SEGMENT PARA USE32 PUBLIC 'CODE'
_TEXT	ENDS
;	COMDAT ??0CSize@@QAE@K@Z
_TEXT	SEGMENT PARA USE32 PUBLIC 'CODE'
_TEXT	ENDS
;	COMDAT ?DrawTextA@CDC@@UAEHPBDHPAUtagRECT@@I@Z
_TEXT	SEGMENT PARA USE32 PUBLIC 'CODE'
_TEXT	ENDS
;	COMDAT ?DrawTextExA@CDC@@UAEHPADHPAUtagRECT@@IPAUtagDRAWTEXTPARAMS@@@Z
_TEXT	SEGMENT PARA USE32 PUBLIC 'CODE'
_TEXT	ENDS
;	COMDAT ?GrayStringA@CDC@@UAEHPAVCBrush@@P6GHPAUHDC__@@JH@ZJHHHHH@Z
_TEXT	SEGMENT PARA USE32 PUBLIC 'CODE'
_TEXT	ENDS
;	COMDAT ?GetSafeHandle@CGdiObject@@QBEPAXXZ
_TEXT	SEGMENT PARA USE32 PUBLIC 'CODE'
_TEXT	ENDS
;	COMDAT ?Escape@CDC@@UAEHHHPBDPAX@Z
_TEXT	SEGMENT PARA USE32 PUBLIC 'CODE'
_TEXT	ENDS
;	COMDAT ??0CMemDC@@QAE@PAVCDC@@ABVCRect@@@Z
_TEXT	SEGMENT PARA USE32 PUBLIC 'CODE'
_TEXT	ENDS
;	COMDAT ?OnLButtonUp@CWnd@@IAEXIVCPoint@@@Z
_TEXT	SEGMENT PARA USE32 PUBLIC 'CODE'
_TEXT	ENDS
;	COMDAT ?OnLButtonDown@CWnd@@IAEXIVCPoint@@@Z
_TEXT	SEGMENT PARA USE32 PUBLIC 'CODE'
_TEXT	ENDS
;	COMDAT ?SetCapture@CWnd@@QAEPAV1@XZ
_TEXT	SEGMENT PARA USE32 PUBLIC 'CODE'
_TEXT	ENDS
;	COMDAT ?Update@CToolTipCtrl@@QAEXXZ
_TEXT	SEGMENT PARA USE32 PUBLIC 'CODE'
_TEXT	ENDS
;	COMDAT ?OnMouseMove@CWnd@@IAEXIVCPoint@@@Z
_TEXT	SEGMENT PARA USE32 PUBLIC 'CODE'
_TEXT	ENDS
;	COMDAT ?PtInRect@CRect@@QBEHUtagPOINT@@@Z
_TEXT	SEGMENT PARA USE32 PUBLIC 'CODE'
_TEXT	ENDS
;	COMDAT ?ClientToScreen@CWnd@@QBEXPAUtagPOINT@@@Z
_TEXT	SEGMENT PARA USE32 PUBLIC 'CODE'
_TEXT	ENDS
;	COMDAT ?BitBlt@CDC@@QAEHHHHHPAV1@HHK@Z
_TEXT	SEGMENT PARA USE32 PUBLIC 'CODE'
_TEXT	ENDS
;	COMDAT ?GetSafeHdc@CDC@@QBEPAUHDC__@@XZ
_TEXT	SEGMENT PARA USE32 PUBLIC 'CODE'
_TEXT	ENDS
;	COMDAT ?SelectObject@CDC@@QAEPAVCBitmap@@PAV2@@Z
_TEXT	SEGMENT PARA USE32 PUBLIC 'CODE'
_TEXT	ENDS
;	COMDAT ?Width@CRect@@QBEHXZ
_TEXT	SEGMENT PARA USE32 PUBLIC 'CODE'
_TEXT	ENDS
;	COMDAT ?Height@CRect@@QBEHXZ
_TEXT	SEGMENT PARA USE32 PUBLIC 'CODE'
_TEXT	ENDS
;	COMDAT ?CreateCompatibleBitmap@CBitmap@@QAEHPAVCDC@@HH@Z
_TEXT	SEGMENT PARA USE32 PUBLIC 'CODE'
_TEXT	ENDS
;	COMDAT ?CreateCompatibleDC@CDC@@QAEHPAV1@@Z
_TEXT	SEGMENT PARA USE32 PUBLIC 'CODE'
_TEXT	ENDS
;	COMDAT ?GetWindowRect@CWnd@@QBEXPAUtagRECT@@@Z
_TEXT	SEGMENT PARA USE32 PUBLIC 'CODE'
_TEXT	ENDS
;	COMDAT ??BCRect@@QAEPAUtagRECT@@XZ
_TEXT	SEGMENT PARA USE32 PUBLIC 'CODE'
_TEXT	ENDS
;	COMDAT ?GetClientRect@CWnd@@QBEXPAUtagRECT@@@Z
_TEXT	SEGMENT PARA USE32 PUBLIC 'CODE'
_TEXT	ENDS
;	COMDAT ??1CBitmap@@UAE@XZ
_TEXT	SEGMENT PARA USE32 PUBLIC 'CODE'
_TEXT	ENDS
;	COMDAT ??_7CBitmap@@6B@
CONST	SEGMENT DWORD USE32 PUBLIC 'CONST'
CONST	ENDS
;	COMDAT ??_R4CBitmap@@6B@
rdata$r	SEGMENT DWORD USE32 PUBLIC 'CONST'
rdata$r	ENDS
;	COMDAT ??_R0?AVCBitmap@@@8
_DATA	SEGMENT DWORD USE32 PUBLIC 'DATA'
_DATA	ENDS
;	COMDAT ??_R3CBitmap@@8
rdata$r	SEGMENT DWORD USE32 PUBLIC 'CONST'
rdata$r	ENDS
;	COMDAT ??_R2CBitmap@@8
rdata$r	SEGMENT DWORD USE32 PUBLIC 'CONST'
rdata$r	ENDS
;	COMDAT ??_R1A@?0A@A@CBitmap@@8
rdata$r	SEGMENT DWORD USE32 PUBLIC 'CONST'
rdata$r	ENDS
;	COMDAT ??_R1A@?0A@A@CGdiObject@@8
rdata$r	SEGMENT DWORD USE32 PUBLIC 'CONST'
rdata$r	ENDS
;	COMDAT ??_R0?AVCGdiObject@@@8
_DATA	SEGMENT DWORD USE32 PUBLIC 'DATA'
_DATA	ENDS
;	COMDAT ??_GCBitmap@@UAEPAXI@Z
_TEXT	SEGMENT PARA USE32 PUBLIC 'CODE'
_TEXT	ENDS
;	COMDAT ??1CGdiObject@@UAE@XZ
_TEXT	SEGMENT PARA USE32 PUBLIC 'CODE'
_TEXT	ENDS
;	COMDAT ??_7CGdiObject@@6B@
CONST	SEGMENT DWORD USE32 PUBLIC 'CONST'
CONST	ENDS
;	COMDAT ??_R4CGdiObject@@6B@
rdata$r	SEGMENT DWORD USE32 PUBLIC 'CONST'
rdata$r	ENDS
;	COMDAT ??_R3CGdiObject@@8
rdata$r	SEGMENT DWORD USE32 PUBLIC 'CONST'
rdata$r	ENDS
;	COMDAT ??_R2CGdiObject@@8
rdata$r	SEGMENT DWORD USE32 PUBLIC 'CONST'
rdata$r	ENDS
;	COMDAT ??_GCGdiObject@@UAEPAXI@Z
_TEXT	SEGMENT PARA USE32 PUBLIC 'CODE'
_TEXT	ENDS
;	COMDAT ??1CObject@@UAE@XZ
_TEXT	SEGMENT PARA USE32 PUBLIC 'CODE'
_TEXT	ENDS
;	COMDAT ??0CBitmap@@QAE@XZ
_TEXT	SEGMENT PARA USE32 PUBLIC 'CODE'
_TEXT	ENDS
;	COMDAT ??0CGdiObject@@QAE@XZ
_TEXT	SEGMENT PARA USE32 PUBLIC 'CODE'
_TEXT	ENDS
;	COMDAT ??0CObject@@IAE@XZ
_TEXT	SEGMENT PARA USE32 PUBLIC 'CODE'
_TEXT	ENDS
;	COMDAT ?Invalidate@CWnd@@QAEXH@Z
_TEXT	SEGMENT PARA USE32 PUBLIC 'CODE'
_TEXT	ENDS
;	COMDAT ?GetParent@CWnd@@QBEPAV1@XZ
_TEXT	SEGMENT PARA USE32 PUBLIC 'CODE'
_TEXT	ENDS
;	COMDAT ?InvalidateRect@CWnd@@QAEXPBUtagRECT@@H@Z
_TEXT	SEGMENT PARA USE32 PUBLIC 'CODE'
_TEXT	ENDS
;	COMDAT ?RedrawWindow@CWnd@@QAEHPBUtagRECT@@PAVCRgn@@I@Z
_TEXT	SEGMENT PARA USE32 PUBLIC 'CODE'
_TEXT	ENDS
;	COMDAT ?OnCreate@CWnd@@IAEHPAUtagCREATESTRUCTA@@@Z
_TEXT	SEGMENT PARA USE32 PUBLIC 'CODE'
_TEXT	ENDS
;	COMDAT ?_messageEntries@CSkinButton2@@0QBUAFX_MSGMAP_ENTRY@@B
CONST	SEGMENT DWORD USE32 PUBLIC 'CONST'
CONST	ENDS
;	COMDAT ?messageMap@CSkinButton2@@1UAFX_MSGMAP@@B
CONST	SEGMENT DWORD USE32 PUBLIC 'CONST'
CONST	ENDS
;	COMDAT ??1Font@Gdiplus@@QAE@XZ
_TEXT	SEGMENT PARA USE32 PUBLIC 'CODE'
_TEXT	ENDS
;	COMDAT ??3CObject@@SGXPAX@Z
_TEXT	SEGMENT PARA USE32 PUBLIC 'CODE'
_TEXT	ENDS
;	COMDAT ??0Font@Gdiplus@@QAE@PBVFontFamily@1@MHW4Unit@1@@Z
_TEXT	SEGMENT PARA USE32 PUBLIC 'CODE'
_TEXT	ENDS
;	COMDAT ?SetNativeFont@Font@Gdiplus@@IAEXPAVGpFont@2@@Z
_TEXT	SEGMENT PARA USE32 PUBLIC 'CODE'
_TEXT	ENDS
;	COMDAT ??3GdiplusBase@Gdiplus@@SAXPAX@Z
_TEXT	SEGMENT PARA USE32 PUBLIC 'CODE'
_TEXT	ENDS
;	COMDAT ??2GdiplusBase@Gdiplus@@SAPAXI@Z
_TEXT	SEGMENT PARA USE32 PUBLIC 'CODE'
_TEXT	ENDS
;	COMDAT ??1FontFamily@Gdiplus@@QAE@XZ
_TEXT	SEGMENT PARA USE32 PUBLIC 'CODE'
_TEXT	ENDS
;	COMDAT ??0FontFamily@Gdiplus@@QAE@PB_WPBVFontCollection@1@@Z
_TEXT	SEGMENT PARA USE32 PUBLIC 'CODE'
_TEXT	ENDS
;	COMDAT ?MakeARGB@Color@Gdiplus@@SAKEEEE@Z
_TEXT	SEGMENT PARA USE32 PUBLIC 'CODE'
_TEXT	ENDS
;	COMDAT ?SetValue@Color@Gdiplus@@QAEXK@Z
_TEXT	SEGMENT PARA USE32 PUBLIC 'CODE'
_TEXT	ENDS
;	COMDAT ??0Color@Gdiplus@@QAE@XZ
_TEXT	SEGMENT PARA USE32 PUBLIC 'CODE'
_TEXT	ENDS
;	COMDAT ?GetDefaultManager@?$StrTraitMFC_DLL@DV?$ChTraitsCRT@D@ATL@@@@SAPAUIAtlStringMgr@ATL@@XZ
_TEXT	SEGMENT PARA USE32 PUBLIC 'CODE'
_TEXT	ENDS
;	COMDAT ??0CRect@@QAE@XZ
_TEXT	SEGMENT PARA USE32 PUBLIC 'CODE'
_TEXT	ENDS
;	COMDAT ??_7CSkinButton2@@6B@
CONST	SEGMENT DWORD USE32 PUBLIC 'CONST'
CONST	ENDS
;	COMDAT ??0CButton@@QAE@XZ
_TEXT	SEGMENT PARA USE32 PUBLIC 'CODE'
_TEXT	ENDS
;	COMDAT ??_7CButton@@6B@
CONST	SEGMENT DWORD USE32 PUBLIC 'CONST'
CONST	ENDS
;	COMDAT ??_R4CButton@@6B@
rdata$r	SEGMENT DWORD USE32 PUBLIC 'CONST'
rdata$r	ENDS
;	COMDAT ??_R3CButton@@8
rdata$r	SEGMENT DWORD USE32 PUBLIC 'CONST'
rdata$r	ENDS
;	COMDAT ??_R2CButton@@8
rdata$r	SEGMENT DWORD USE32 PUBLIC 'CONST'
rdata$r	ENDS
;	COMDAT ??_GCButton@@UAEPAXI@Z
_TEXT	SEGMENT PARA USE32 PUBLIC 'CODE'
_TEXT	ENDS
;	COMDAT ?classCSkinButton2@CSkinButton2@@2UCRuntimeClass@@B
CONST	SEGMENT DWORD USE32 PUBLIC 'CONST'
CONST	ENDS
;	COMDAT ?GetLastStatus@Image@Gdiplus@@QBE?AW4Status@2@XZ
_TEXT	SEGMENT PARA USE32 PUBLIC 'CODE'
_TEXT	ENDS
;	COMDAT ?FromFile@Bitmap@Gdiplus@@SAPAV12@PB_WH@Z
_TEXT	SEGMENT PARA USE32 PUBLIC 'CODE'
_TEXT	ENDS
;	COMDAT ??0Bitmap@Gdiplus@@QAE@PB_WH@Z
_TEXT	SEGMENT PARA USE32 PUBLIC 'CODE'
_TEXT	ENDS
;	COMDAT ??_7CGdiPlusBitmap@@6B@
CONST	SEGMENT DWORD USE32 PUBLIC 'CONST'
CONST	ENDS
sxdata	SEGMENT DWORD USE32 'SXDATA'
sxdata	ENDS
FLAT	GROUP _DATA, CONST, _BSS
	ASSUME	CS: FLAT, DS: FLAT, SS: FLAT
endif

INCLUDELIB MSVCRT
INCLUDELIB OLDNAMES

PUBLIC	?classCSkinButton2@CSkinButton2@@2UCRuntimeClass@@B ; CSkinButton2::classCSkinButton2
PUBLIC	?_messageEntries@CSkinButton2@@0QBUAFX_MSGMAP_ENTRY@@B ; CSkinButton2::_messageEntries
PUBLIC	?messageMap@CSkinButton2@@1UAFX_MSGMAP@@B	; CSkinButton2::messageMap
PUBLIC	?OnCreate@CSkinButton2@@QAEHPAUtagCREATESTRUCTA@@@Z ; CSkinButton2::OnCreate
PUBLIC	?OnEraseBkgnd@CSkinButton2@@QAEHPAVCDC@@@Z	; CSkinButton2::OnEraseBkgnd
PUBLIC	?OnMouseMove@CSkinButton2@@QAEXIVCPoint@@@Z	; CSkinButton2::OnMouseMove
PUBLIC	?OnMouseLeave@CSkinButton2@@QAEJIJ@Z		; CSkinButton2::OnMouseLeave
PUBLIC	?OnMouseHover@CSkinButton2@@QAEJIJ@Z		; CSkinButton2::OnMouseHover
PUBLIC	?OnLButtonDown@CSkinButton2@@QAEXIVCPoint@@@Z	; CSkinButton2::OnLButtonDown
PUBLIC	?OnLButtonUp@CSkinButton2@@QAEXIVCPoint@@@Z	; CSkinButton2::OnLButtonUp
EXTRN	?GetThisMessageMap@CWnd@@KGPBUAFX_MSGMAP@@XZ:NEAR ; CWnd::GetThisMessageMap
EXTRN	?GetThisClass@CButton@@SGPAUCRuntimeClass@@XZ:NEAR ; CButton::GetThisClass
CONST	SEGMENT
$SG197545 DB	'CSkinButton2', 00H
CONST	ENDS
;	COMDAT ?classCSkinButton2@CSkinButton2@@2UCRuntimeClass@@B
CONST	SEGMENT
?classCSkinButton2@CSkinButton2@@2UCRuntimeClass@@B DD FLAT:$SG197545 ; CSkinButton2::classCSkinButton2
	DD	0188H
	DD	0ffffH
	DD	00H
	DD	FLAT:?GetThisClass@CButton@@SGPAUCRuntimeClass@@XZ
	DD	00H
	DD	00H
CONST	ENDS
CONST	SEGMENT
	ORG $+3
$SG197562 DB	08bH, '[SO', 00H, 00H
CONST	ENDS
;	COMDAT ?_messageEntries@CSkinButton2@@0QBUAFX_MSGMAP_ENTRY@@B
CONST	SEGMENT
?_messageEntries@CSkinButton2@@0QBUAFX_MSGMAP_ENTRY@@B DD 01H ; CSkinButton2::_messageEntries
	DD	00H
	DD	00H
	DD	00H
	DD	0dH
	DD	FLAT:?OnCreate@CSkinButton2@@QAEHPAUtagCREATESTRUCTA@@@Z
	DD	014H
	DD	00H
	DD	00H
	DD	00H
	DD	01H
	DD	FLAT:?OnEraseBkgnd@CSkinButton2@@QAEHPAVCDC@@@Z
	DD	0200H
	DD	00H
	DD	00H
	DD	00H
	DD	032H
	DD	FLAT:?OnMouseMove@CSkinButton2@@QAEXIVCPoint@@@Z
	DD	02a3H
	DD	00H
	DD	00H
	DD	00H
	DD	0eH
	DD	FLAT:?OnMouseLeave@CSkinButton2@@QAEJIJ@Z
	DD	02a1H
	DD	00H
	DD	00H
	DD	00H
	DD	0eH
	DD	FLAT:?OnMouseHover@CSkinButton2@@QAEJIJ@Z
	DD	0201H
	DD	00H
	DD	00H
	DD	00H
	DD	032H
	DD	FLAT:?OnLButtonDown@CSkinButton2@@QAEXIVCPoint@@@Z
	DD	0202H
	DD	00H
	DD	00H
	DD	00H
	DD	032H
	DD	FLAT:?OnLButtonUp@CSkinButton2@@QAEXIVCPoint@@@Z
	DD	00H
	DD	00H
	DD	00H
	DD	00H
	DD	00H
	DD	00H
CONST	ENDS
;	COMDAT ?messageMap@CSkinButton2@@1UAFX_MSGMAP@@B
CONST	SEGMENT
?messageMap@CSkinButton2@@1UAFX_MSGMAP@@B DD FLAT:?GetThisMessageMap@CWnd@@KGPBUAFX_MSGMAP@@XZ ; CSkinButton2::messageMap
	DD	FLAT:?_messageEntries@CSkinButton2@@0QBUAFX_MSGMAP_ENTRY@@B
CONST	ENDS
PUBLIC	?GetThisClass@CSkinButton2@@SGPAUCRuntimeClass@@XZ ; CSkinButton2::GetThisClass
; Function compile flags: /Odt
; File d:\boxgit\playbox\playbox\dev\prj\playbox\src\gui\commoncontrol\skinbutton2.cpp
_TEXT	SEGMENT
?GetThisClass@CSkinButton2@@SGPAUCRuntimeClass@@XZ PROC NEAR ; CSkinButton2::GetThisClass

; 6    : IMPLEMENT_DYNAMIC(CSkinButton2, CButton)

  00000	55		 push	 ebp
  00001	8b ec		 mov	 ebp, esp
  00003	b8 00 00 00 00	 mov	 eax, OFFSET FLAT:?classCSkinButton2@CSkinButton2@@2UCRuntimeClass@@B ; CSkinButton2::classCSkinButton2
  00008	5d		 pop	 ebp
  00009	c3		 ret	 0
?GetThisClass@CSkinButton2@@SGPAUCRuntimeClass@@XZ ENDP	; CSkinButton2::GetThisClass
_TEXT	ENDS
PUBLIC	?GetRuntimeClass@CSkinButton2@@UBEPAUCRuntimeClass@@XZ ; CSkinButton2::GetRuntimeClass
; Function compile flags: /Odt
_TEXT	SEGMENT
_this$ = -4						; size = 4
?GetRuntimeClass@CSkinButton2@@UBEPAUCRuntimeClass@@XZ PROC NEAR ; CSkinButton2::GetRuntimeClass
; _this$ = ecx

; 6    : IMPLEMENT_DYNAMIC(CSkinButton2, CButton)

  00010	55		 push	 ebp
  00011	8b ec		 mov	 ebp, esp
  00013	51		 push	 ecx
  00014	89 4d fc	 mov	 DWORD PTR _this$[ebp], ecx
  00017	b8 00 00 00 00	 mov	 eax, OFFSET FLAT:?classCSkinButton2@CSkinButton2@@2UCRuntimeClass@@B ; CSkinButton2::classCSkinButton2
  0001c	8b e5		 mov	 esp, ebp
  0001e	5d		 pop	 ebp
  0001f	c3		 ret	 0
?GetRuntimeClass@CSkinButton2@@UBEPAUCRuntimeClass@@XZ ENDP ; CSkinButton2::GetRuntimeClass
_TEXT	ENDS
PUBLIC	??0CRect@@QAE@XZ				; CRect::CRect
PUBLIC	??_R1A@?0A@A@CObject@@8				; CObject::`RTTI Base Class Descriptor at (0,-1,0,0)'
PUBLIC	??_R0?AVCObject@@@8				; CObject `RTTI Type Descriptor'
PUBLIC	??0CButton@@QAE@XZ				; CButton::CButton
PUBLIC	??_R1A@?0A@A@CWnd@@8				; CWnd::`RTTI Base Class Descriptor at (0,-1,0,0)'
PUBLIC	??_R0?AVCWnd@@@8				; CWnd `RTTI Type Descriptor'
PUBLIC	??_R1A@?0A@A@CCmdTarget@@8			; CCmdTarget::`RTTI Base Class Descriptor at (0,-1,0,0)'
PUBLIC	??_R0?AVCCmdTarget@@@8				; CCmdTarget `RTTI Type Descriptor'
PUBLIC	??3GdiplusBase@Gdiplus@@SAXPAX@Z		; Gdiplus::GdiplusBase::operator delete
PUBLIC	??2GdiplusBase@Gdiplus@@SAPAXI@Z		; Gdiplus::GdiplusBase::operator new
PUBLIC	?Serialize@CObject@@UAEXAAVCArchive@@@Z		; CObject::Serialize
PUBLIC	?AssertValid@CObject@@UBEXXZ			; CObject::AssertValid
PUBLIC	?Dump@CObject@@UBEXAAVCDumpContext@@@Z		; CObject::Dump
PUBLIC	??_R4CSkinButton2@@6B@				; CSkinButton2::`RTTI Complete Object Locator'
PUBLIC	??_R0?AVCSkinButton2@@@8			; CSkinButton2 `RTTI Type Descriptor'
PUBLIC	??_R3CSkinButton2@@8				; CSkinButton2::`RTTI Class Hierarchy Descriptor'
PUBLIC	??_R2CSkinButton2@@8				; CSkinButton2::`RTTI Base Class Array'
PUBLIC	??_R1A@?0A@A@CSkinButton2@@8			; CSkinButton2::`RTTI Base Class Descriptor at (0,-1,0,0)'
PUBLIC	??_R1A@?0A@A@CButton@@8				; CButton::`RTTI Base Class Descriptor at (0,-1,0,0)'
PUBLIC	??_R0?AVCButton@@@8				; CButton `RTTI Type Descriptor'
PUBLIC	??0FontFamily@Gdiplus@@QAE@PB_WPBVFontCollection@1@@Z ; Gdiplus::FontFamily::FontFamily
PUBLIC	??1FontFamily@Gdiplus@@QAE@XZ			; Gdiplus::FontFamily::~FontFamily
PUBLIC	??0Font@Gdiplus@@QAE@PBVFontFamily@1@MHW4Unit@1@@Z ; Gdiplus::Font::Font
PUBLIC	??0Color@Gdiplus@@QAE@XZ			; Gdiplus::Color::Color
PUBLIC	?SetValue@Color@Gdiplus@@QAEXK@Z		; Gdiplus::Color::SetValue
PUBLIC	?MakeARGB@Color@Gdiplus@@SAKEEEE@Z		; Gdiplus::Color::MakeARGB
PUBLIC	??0CSkinButton2@@QAE@XZ				; CSkinButton2::CSkinButton2
PUBLIC	?GetMessageMap@CSkinButton2@@MBEPBUAFX_MSGMAP@@XZ ; CSkinButton2::GetMessageMap
PUBLIC	?DrawItem@CSkinButton2@@UAEXPAUtagDRAWITEMSTRUCT@@@Z ; CSkinButton2::DrawItem
PUBLIC	?PreSubclassWindow@CSkinButton2@@MAEXXZ		; CSkinButton2::PreSubclassWindow
PUBLIC	?PreTranslateMessage@CSkinButton2@@UAEHPAUtagMSG@@@Z ; CSkinButton2::PreTranslateMessage
PUBLIC	??_7CSkinButton2@@6B@				; CSkinButton2::`vftable'
PUBLIC	??_GCSkinButton2@@UAEPAXI@Z			; CSkinButton2::`scalar deleting destructor'
PUBLIC	?DoDataExchange@CWnd@@MAEXPAVCDataExchange@@@Z	; CWnd::DoDataExchange
PUBLIC	?BeginModalState@CWnd@@UAEXXZ			; CWnd::BeginModalState
PUBLIC	?EndModalState@CWnd@@UAEXXZ			; CWnd::EndModalState
EXTRN	??0CDC@@QAE@XZ:NEAR				; CDC::CDC
EXTRN	?CreateControlContainer@CWnd@@MAEHPAPAVCOleControlContainer@@@Z:NEAR ; CWnd::CreateControlContainer
EXTRN	?CreateControlSite@CWnd@@MAEHPAVCOleControlContainer@@PAPAVCOleControlSite@@IABU_GUID@@@Z:NEAR ; CWnd::CreateControlSite
EXTRN	?SetOccDialogInfo@CWnd@@MAEHPAU_AFX_OCC_DIALOG_INFO@@@Z:NEAR ; CWnd::SetOccDialogInfo
EXTRN	?OnToolHitTest@CWnd@@UBEHVCPoint@@PAUtagTOOLINFOA@@@Z:NEAR ; CWnd::OnToolHitTest
EXTRN	__imp_??0?$CStringT@DV?$StrTraitMFC_DLL@DV?$ChTraitsCRT@D@ATL@@@@@ATL@@QAE@XZ:NEAR
EXTRN	?GetScrollBarCtrl@CWnd@@UBEPAVCScrollBar@@H@Z:NEAR ; CWnd::GetScrollBarCtrl
EXTRN	__imp_??1?$CStringT@DV?$StrTraitMFC_DLL@DV?$ChTraitsCRT@D@ATL@@@@@ATL@@QAE@XZ:NEAR
EXTRN	?Create@CButton@@UAEHPBDKABUtagRECT@@PAVCWnd@@I@Z:NEAR ; CButton::Create
EXTRN	??1CButton@@UAE@XZ:NEAR				; CButton::~CButton
EXTRN	?OnChildNotify@CButton@@MAEHIIJPAJ@Z:NEAR	; CButton::OnChildNotify
EXTRN	?WinHelpA@CWnd@@UAEXKI@Z:NEAR			; CWnd::WinHelpA
EXTRN	?HtmlHelpA@CWnd@@UAEXKI@Z:NEAR			; CWnd::HtmlHelpA
EXTRN	?WinHelpInternal@CWnd@@UAEXKI@Z:NEAR		; CWnd::WinHelpInternal
EXTRN	?ContinueModal@CWnd@@UAEHXZ:NEAR		; CWnd::ContinueModal
EXTRN	?EndModalLoop@CWnd@@UAEXH@Z:NEAR		; CWnd::EndModalLoop
EXTRN	?GetInterfaceMap@CWnd@@MBEPBUAFX_INTERFACEMAP@@XZ:NEAR ; CWnd::GetInterfaceMap
EXTRN	?EnsureStdObj@CWnd@@UAEJXZ:NEAR			; CWnd::EnsureStdObj
EXTRN	?get_accParent@CWnd@@UAEJPAPAUIDispatch@@@Z:NEAR ; CWnd::get_accParent
EXTRN	?get_accChildCount@CWnd@@UAEJPAJ@Z:NEAR		; CWnd::get_accChildCount
EXTRN	?OnCmdMsg@CCmdTarget@@UAEHIHPAXPAUAFX_CMDHANDLERINFO@@@Z:NEAR ; CCmdTarget::OnCmdMsg
EXTRN	?get_accChild@CWnd@@UAEJUtagVARIANT@@PAPAUIDispatch@@@Z:NEAR ; CWnd::get_accChild
EXTRN	?IsInvokeAllowed@CCmdTarget@@UAEHJ@Z:NEAR	; CCmdTarget::IsInvokeAllowed
EXTRN	?get_accName@CWnd@@UAEJUtagVARIANT@@PAPA_W@Z:NEAR ; CWnd::get_accName
EXTRN	?get_accValue@CWnd@@UAEJUtagVARIANT@@PAPA_W@Z:NEAR ; CWnd::get_accValue
EXTRN	?get_accDescription@CWnd@@UAEJUtagVARIANT@@PAPA_W@Z:NEAR ; CWnd::get_accDescription
EXTRN	?GetDispatchIID@CCmdTarget@@UAEHPAU_GUID@@@Z:NEAR ; CCmdTarget::GetDispatchIID
EXTRN	?GetTypeInfoCount@CCmdTarget@@UAEIXZ:NEAR	; CCmdTarget::GetTypeInfoCount
EXTRN	?GetTypeLibCache@CCmdTarget@@UAEPAVCTypeLibCache@@XZ:NEAR ; CCmdTarget::GetTypeLibCache
EXTRN	?get_accRole@CWnd@@UAEJUtagVARIANT@@PAU2@@Z:NEAR ; CWnd::get_accRole
EXTRN	?GetTypeLib@CCmdTarget@@UAEJKPAPAUITypeLib@@@Z:NEAR ; CCmdTarget::GetTypeLib
EXTRN	?get_accState@CWnd@@UAEJUtagVARIANT@@PAU2@@Z:NEAR ; CWnd::get_accState
EXTRN	?get_accHelp@CWnd@@UAEJUtagVARIANT@@PAPA_W@Z:NEAR ; CWnd::get_accHelp
EXTRN	?get_accHelpTopic@CWnd@@UAEJPAPA_WUtagVARIANT@@PAJ@Z:NEAR ; CWnd::get_accHelpTopic
EXTRN	?get_accKeyboardShortcut@CWnd@@UAEJUtagVARIANT@@PAPA_W@Z:NEAR ; CWnd::get_accKeyboardShortcut
EXTRN	?get_accFocus@CWnd@@UAEJPAUtagVARIANT@@@Z:NEAR	; CWnd::get_accFocus
EXTRN	?get_accSelection@CWnd@@UAEJPAUtagVARIANT@@@Z:NEAR ; CWnd::get_accSelection
EXTRN	?get_accDefaultAction@CWnd@@UAEJUtagVARIANT@@PAPA_W@Z:NEAR ; CWnd::get_accDefaultAction
EXTRN	?GetCommandMap@CCmdTarget@@MBEPBUAFX_OLECMDMAP@@XZ:NEAR ; CCmdTarget::GetCommandMap
EXTRN	?accSelect@CWnd@@UAEJJUtagVARIANT@@@Z:NEAR	; CWnd::accSelect
EXTRN	?accLocation@CWnd@@UAEJPAJ000UtagVARIANT@@@Z:NEAR ; CWnd::accLocation
EXTRN	?GetDispatchMap@CCmdTarget@@MBEPBUAFX_DISPMAP@@XZ:NEAR ; CCmdTarget::GetDispatchMap
EXTRN	?accNavigate@CWnd@@UAEJJUtagVARIANT@@PAU2@@Z:NEAR ; CWnd::accNavigate
EXTRN	?accHitTest@CWnd@@UAEJJJPAUtagVARIANT@@@Z:NEAR	; CWnd::accHitTest
EXTRN	?GetConnectionMap@CCmdTarget@@MBEPBUAFX_CONNECTIONMAP@@XZ:NEAR ; CCmdTarget::GetConnectionMap
EXTRN	?accDoDefaultAction@CWnd@@UAEJUtagVARIANT@@@Z:NEAR ; CWnd::accDoDefaultAction
EXTRN	?put_accName@CWnd@@UAEJUtagVARIANT@@PA_W@Z:NEAR	; CWnd::put_accName
EXTRN	?put_accValue@CWnd@@UAEJUtagVARIANT@@PA_W@Z:NEAR ; CWnd::put_accValue
EXTRN	?SetProxy@CWnd@@UAEJPAUIAccessibleProxy@@@Z:NEAR ; CWnd::SetProxy
EXTRN	?CreateAccessibleProxy@CWnd@@UAEJIJPAJ@Z:NEAR	; CWnd::CreateAccessibleProxy
EXTRN	?GetEventSinkMap@CCmdTarget@@MBEPBUAFX_EVENTSINKMAP@@XZ:NEAR ; CCmdTarget::GetEventSinkMap
EXTRN	?OnCreateAggregates@CCmdTarget@@UAEHXZ:NEAR	; CCmdTarget::OnCreateAggregates
EXTRN	?OnCommand@CWnd@@MAEHIJ@Z:NEAR			; CWnd::OnCommand
EXTRN	?GetInterfaceHook@CCmdTarget@@UAEPAUIUnknown@@PBX@Z:NEAR ; CCmdTarget::GetInterfaceHook
EXTRN	?OnNotify@CWnd@@MAEHIJPAJ@Z:NEAR		; CWnd::OnNotify
EXTRN	?GetExtraConnectionPoints@CCmdTarget@@MAEHPAVCPtrArray@@@Z:NEAR ; CCmdTarget::GetExtraConnectionPoints
EXTRN	?GetConnectionHook@CCmdTarget@@MAEPAUIConnectionPoint@@ABU_GUID@@@Z:NEAR ; CCmdTarget::GetConnectionHook
EXTRN	_memcpy:NEAR
EXTRN	??1CDC@@UAE@XZ:NEAR				; CDC::~CDC
EXTRN	?Create@CWnd@@UAEHPBD0KABUtagRECT@@PAV1@IPAUCCreateContext@@@Z:NEAR ; CWnd::Create
EXTRN	?CreateEx@CWnd@@UAEHKPBD0KHHHHPAUHWND__@@PAUHMENU__@@PAX@Z:NEAR ; CWnd::CreateEx
EXTRN	?CreateEx@CWnd@@UAEHKPBD0KABUtagRECT@@PAV1@IPAX@Z:NEAR ; CWnd::CreateEx
EXTRN	?DestroyWindow@CWnd@@UAEHXZ:NEAR		; CWnd::DestroyWindow
EXTRN	?PreCreateWindow@CWnd@@UAEHAAUtagCREATESTRUCTA@@@Z:NEAR ; CWnd::PreCreateWindow
EXTRN	?CalcWindowRect@CWnd@@UAEXPAUtagRECT@@I@Z:NEAR	; CWnd::CalcWindowRect
EXTRN	??_ECSkinButton2@@UAEPAXI@Z:NEAR		; CSkinButton2::`vector deleting destructor'
EXTRN	?GetSuperWndProcAddr@CWnd@@MAEPAP6GJPAUHWND__@@IIJ@ZXZ:NEAR ; CWnd::GetSuperWndProcAddr
EXTRN	??_7type_info@@6B@:QWORD			; type_info::`vftable'
EXTRN	?OnAmbientProperty@CWnd@@UAEHPAVCOleControlSite@@JPAUtagVARIANT@@@Z:NEAR ; CWnd::OnAmbientProperty
EXTRN	?WindowProc@CWnd@@MAEJIIJ@Z:NEAR		; CWnd::WindowProc
EXTRN	?OnWndMsg@CWnd@@MAEHIIJPAJ@Z:NEAR		; CWnd::OnWndMsg
EXTRN	?DefWindowProcA@CWnd@@MAEJIIJ@Z:NEAR		; CWnd::DefWindowProcA
EXTRN	?PostNcDestroy@CWnd@@MAEXXZ:NEAR		; CWnd::PostNcDestroy
EXTRN	?CheckAutoCenter@CWnd@@UAEHXZ:NEAR		; CWnd::CheckAutoCenter
EXTRN	__except_list:DWORD
EXTRN	?IsFrameWnd@CWnd@@UBEHXZ:NEAR			; CWnd::IsFrameWnd
EXTRN	__fltused:NEAR
EXTRN	?OnFinalRelease@CWnd@@UAEXXZ:NEAR		; CWnd::OnFinalRelease
EXTRN	___CxxFrameHandler:NEAR
xdata$x	SEGMENT
$T198647 DD	0ffffffffH
	DD	FLAT:$L198634
	DD	00H
	DD	FLAT:$L198635
	DD	01H
	DD	FLAT:$L198636
	DD	02H
	DD	FLAT:$L198637
	DD	03H
	DD	FLAT:$L198638
	DD	04H
	DD	FLAT:$L198639
$T198643 DD	019930520H
	DD	06H
	DD	FLAT:$T198647
	DD	2 DUP(00H)
	DD	2 DUP(00H)
xdata$x	ENDS
;	COMDAT ??_7CSkinButton2@@6B@
CONST	SEGMENT
??_7CSkinButton2@@6B@ DD FLAT:??_R4CSkinButton2@@6B@	; CSkinButton2::`vftable'
	DD	FLAT:?GetRuntimeClass@CSkinButton2@@UBEPAUCRuntimeClass@@XZ
	DD	FLAT:??_ECSkinButton2@@UAEPAXI@Z
	DD	FLAT:?Serialize@CObject@@UAEXAAVCArchive@@@Z
	DD	FLAT:?AssertValid@CObject@@UBEXXZ
	DD	FLAT:?Dump@CObject@@UBEXAAVCDumpContext@@@Z
	DD	FLAT:?OnCmdMsg@CCmdTarget@@UAEHIHPAXPAUAFX_CMDHANDLERINFO@@@Z
	DD	FLAT:?OnFinalRelease@CWnd@@UAEXXZ
	DD	FLAT:?IsInvokeAllowed@CCmdTarget@@UAEHJ@Z
	DD	FLAT:?GetDispatchIID@CCmdTarget@@UAEHPAU_GUID@@@Z
	DD	FLAT:?GetTypeInfoCount@CCmdTarget@@UAEIXZ
	DD	FLAT:?GetTypeLibCache@CCmdTarget@@UAEPAVCTypeLibCache@@XZ
	DD	FLAT:?GetTypeLib@CCmdTarget@@UAEJKPAPAUITypeLib@@@Z
	DD	FLAT:?GetMessageMap@CSkinButton2@@MBEPBUAFX_MSGMAP@@XZ
	DD	FLAT:?GetCommandMap@CCmdTarget@@MBEPBUAFX_OLECMDMAP@@XZ
	DD	FLAT:?GetDispatchMap@CCmdTarget@@MBEPBUAFX_DISPMAP@@XZ
	DD	FLAT:?GetConnectionMap@CCmdTarget@@MBEPBUAFX_CONNECTIONMAP@@XZ
	DD	FLAT:?GetInterfaceMap@CWnd@@MBEPBUAFX_INTERFACEMAP@@XZ
	DD	FLAT:?GetEventSinkMap@CCmdTarget@@MBEPBUAFX_EVENTSINKMAP@@XZ
	DD	FLAT:?OnCreateAggregates@CCmdTarget@@UAEHXZ
	DD	FLAT:?GetInterfaceHook@CCmdTarget@@UAEPAUIUnknown@@PBX@Z
	DD	FLAT:?GetExtraConnectionPoints@CCmdTarget@@MAEHPAVCPtrArray@@@Z
	DD	FLAT:?GetConnectionHook@CCmdTarget@@MAEPAUIConnectionPoint@@ABU_GUID@@@Z
	DD	FLAT:?PreSubclassWindow@CSkinButton2@@MAEXXZ
	DD	FLAT:?Create@CWnd@@UAEHPBD0KABUtagRECT@@PAV1@IPAUCCreateContext@@@Z
	DD	FLAT:?CreateEx@CWnd@@UAEHKPBD0KABUtagRECT@@PAV1@IPAX@Z
	DD	FLAT:?CreateEx@CWnd@@UAEHKPBD0KHHHHPAUHWND__@@PAUHMENU__@@PAX@Z
	DD	FLAT:?DestroyWindow@CWnd@@UAEHXZ
	DD	FLAT:?PreCreateWindow@CWnd@@UAEHAAUtagCREATESTRUCTA@@@Z
	DD	FLAT:?CalcWindowRect@CWnd@@UAEXPAUtagRECT@@I@Z
	DD	FLAT:?OnToolHitTest@CWnd@@UBEHVCPoint@@PAUtagTOOLINFOA@@@Z
	DD	FLAT:?GetScrollBarCtrl@CWnd@@UBEPAVCScrollBar@@H@Z
	DD	FLAT:?WinHelpA@CWnd@@UAEXKI@Z
	DD	FLAT:?HtmlHelpA@CWnd@@UAEXKI@Z
	DD	FLAT:?WinHelpInternal@CWnd@@UAEXKI@Z
	DD	FLAT:?ContinueModal@CWnd@@UAEHXZ
	DD	FLAT:?EndModalLoop@CWnd@@UAEXH@Z
	DD	FLAT:?EnsureStdObj@CWnd@@UAEJXZ
	DD	FLAT:?get_accParent@CWnd@@UAEJPAPAUIDispatch@@@Z
	DD	FLAT:?get_accChildCount@CWnd@@UAEJPAJ@Z
	DD	FLAT:?get_accChild@CWnd@@UAEJUtagVARIANT@@PAPAUIDispatch@@@Z
	DD	FLAT:?get_accName@CWnd@@UAEJUtagVARIANT@@PAPA_W@Z
	DD	FLAT:?get_accValue@CWnd@@UAEJUtagVARIANT@@PAPA_W@Z
	DD	FLAT:?get_accDescription@CWnd@@UAEJUtagVARIANT@@PAPA_W@Z
	DD	FLAT:?get_accRole@CWnd@@UAEJUtagVARIANT@@PAU2@@Z
	DD	FLAT:?get_accState@CWnd@@UAEJUtagVARIANT@@PAU2@@Z
	DD	FLAT:?get_accHelp@CWnd@@UAEJUtagVARIANT@@PAPA_W@Z
	DD	FLAT:?get_accHelpTopic@CWnd@@UAEJPAPA_WUtagVARIANT@@PAJ@Z
	DD	FLAT:?get_accKeyboardShortcut@CWnd@@UAEJUtagVARIANT@@PAPA_W@Z
	DD	FLAT:?get_accFocus@CWnd@@UAEJPAUtagVARIANT@@@Z
	DD	FLAT:?get_accSelection@CWnd@@UAEJPAUtagVARIANT@@@Z
	DD	FLAT:?get_accDefaultAction@CWnd@@UAEJUtagVARIANT@@PAPA_W@Z
	DD	FLAT:?accSelect@CWnd@@UAEJJUtagVARIANT@@@Z
	DD	FLAT:?accLocation@CWnd@@UAEJPAJ000UtagVARIANT@@@Z
	DD	FLAT:?accNavigate@CWnd@@UAEJJUtagVARIANT@@PAU2@@Z
	DD	FLAT:?accHitTest@CWnd@@UAEJJJPAUtagVARIANT@@@Z
	DD	FLAT:?accDoDefaultAction@CWnd@@UAEJUtagVARIANT@@@Z
	DD	FLAT:?put_accName@CWnd@@UAEJUtagVARIANT@@PA_W@Z
	DD	FLAT:?put_accValue@CWnd@@UAEJUtagVARIANT@@PA_W@Z
	DD	FLAT:?SetProxy@CWnd@@UAEJPAUIAccessibleProxy@@@Z
	DD	FLAT:?CreateAccessibleProxy@CWnd@@UAEJIJPAJ@Z
	DD	FLAT:?OnCommand@CWnd@@MAEHIJ@Z
	DD	FLAT:?OnNotify@CWnd@@MAEHIJPAJ@Z
	DD	FLAT:?GetSuperWndProcAddr@CWnd@@MAEPAP6GJPAUHWND__@@IIJ@ZXZ
	DD	FLAT:?DoDataExchange@CWnd@@MAEXPAVCDataExchange@@@Z
	DD	FLAT:?BeginModalState@CWnd@@UAEXXZ
	DD	FLAT:?EndModalState@CWnd@@UAEXXZ
	DD	FLAT:?PreTranslateMessage@CSkinButton2@@UAEHPAUtagMSG@@@Z
	DD	FLAT:?OnAmbientProperty@CWnd@@UAEHPAVCOleControlSite@@JPAUtagVARIANT@@@Z
	DD	FLAT:?WindowProc@CWnd@@MAEJIIJ@Z
	DD	FLAT:?OnWndMsg@CWnd@@MAEHIIJPAJ@Z
	DD	FLAT:?DefWindowProcA@CWnd@@MAEJIIJ@Z
	DD	FLAT:?PostNcDestroy@CWnd@@MAEXXZ
	DD	FLAT:?OnChildNotify@CButton@@MAEHIIJPAJ@Z
	DD	FLAT:?CheckAutoCenter@CWnd@@UAEHXZ
	DD	FLAT:?IsFrameWnd@CWnd@@UBEHXZ
	DD	FLAT:?CreateControlContainer@CWnd@@MAEHPAPAVCOleControlContainer@@@Z
	DD	FLAT:?CreateControlSite@CWnd@@MAEHPAVCOleControlContainer@@PAPAVCOleControlSite@@IABU_GUID@@@Z
	DD	FLAT:?SetOccDialogInfo@CWnd@@MAEHPAU_AFX_OCC_DIALOG_INFO@@@Z
	DD	FLAT:?Create@CButton@@UAEHPBDKABUtagRECT@@PAVCWnd@@I@Z
	DD	FLAT:?DrawItem@CSkinButton2@@UAEXPAUtagDRAWITEMSTRUCT@@@Z
CONST	ENDS
;	COMDAT ??_R4CSkinButton2@@6B@
rdata$r	SEGMENT
??_R4CSkinButton2@@6B@ DD 00H				; CSkinButton2::`RTTI Complete Object Locator'
	DD	00H
	DD	00H
	DD	FLAT:??_R0?AVCSkinButton2@@@8
	DD	FLAT:??_R3CSkinButton2@@8
rdata$r	ENDS
;	COMDAT ??_R0?AVCSkinButton2@@@8
_DATA	SEGMENT
??_R0?AVCSkinButton2@@@8 DD FLAT:??_7type_info@@6B@	; CSkinButton2 `RTTI Type Descriptor'
	DD	00H
	DB	'.?AVCSkinButton2@@', 00H
_DATA	ENDS
;	COMDAT ??_R3CSkinButton2@@8
rdata$r	SEGMENT
??_R3CSkinButton2@@8 DD 00H				; CSkinButton2::`RTTI Class Hierarchy Descriptor'
	DD	00H
	DD	05H
	DD	FLAT:??_R2CSkinButton2@@8
rdata$r	ENDS
;	COMDAT ??_R2CSkinButton2@@8
rdata$r	SEGMENT
??_R2CSkinButton2@@8 DD FLAT:??_R1A@?0A@A@CSkinButton2@@8 ; CSkinButton2::`RTTI Base Class Array'
	DD	FLAT:??_R1A@?0A@A@CButton@@8
	DD	FLAT:??_R1A@?0A@A@CWnd@@8
	DD	FLAT:??_R1A@?0A@A@CCmdTarget@@8
	DD	FLAT:??_R1A@?0A@A@CObject@@8
rdata$r	ENDS
;	COMDAT ??_R1A@?0A@A@CSkinButton2@@8
rdata$r	SEGMENT
??_R1A@?0A@A@CSkinButton2@@8 DD FLAT:??_R0?AVCSkinButton2@@@8 ; CSkinButton2::`RTTI Base Class Descriptor at (0,-1,0,0)'
	DD	04H
	DD	00H
	DD	0ffffffffH
	DD	00H
	DD	00H
rdata$r	ENDS
;	COMDAT ??_R1A@?0A@A@CButton@@8
rdata$r	SEGMENT
??_R1A@?0A@A@CButton@@8 DD FLAT:??_R0?AVCButton@@@8	; CButton::`RTTI Base Class Descriptor at (0,-1,0,0)'
	DD	03H
	DD	00H
	DD	0ffffffffH
	DD	00H
	DD	00H
rdata$r	ENDS
;	COMDAT ??_R0?AVCButton@@@8
_DATA	SEGMENT
??_R0?AVCButton@@@8 DD FLAT:??_7type_info@@6B@		; CButton `RTTI Type Descriptor'
	DD	00H
	DB	'.?AVCButton@@', 00H
_DATA	ENDS
;	COMDAT ??_R1A@?0A@A@CWnd@@8
rdata$r	SEGMENT
??_R1A@?0A@A@CWnd@@8 DD FLAT:??_R0?AVCWnd@@@8		; CWnd::`RTTI Base Class Descriptor at (0,-1,0,0)'
	DD	02H
	DD	00H
	DD	0ffffffffH
	DD	00H
	DD	00H
rdata$r	ENDS
;	COMDAT ??_R0?AVCWnd@@@8
_DATA	SEGMENT
??_R0?AVCWnd@@@8 DD FLAT:??_7type_info@@6B@		; CWnd `RTTI Type Descriptor'
	DD	00H
	DB	'.?AVCWnd@@', 00H
_DATA	ENDS
;	COMDAT ??_R1A@?0A@A@CCmdTarget@@8
rdata$r	SEGMENT
??_R1A@?0A@A@CCmdTarget@@8 DD FLAT:??_R0?AVCCmdTarget@@@8 ; CCmdTarget::`RTTI Base Class Descriptor at (0,-1,0,0)'
	DD	01H
	DD	00H
	DD	0ffffffffH
	DD	00H
	DD	00H
rdata$r	ENDS
;	COMDAT ??_R0?AVCCmdTarget@@@8
_DATA	SEGMENT
??_R0?AVCCmdTarget@@@8 DD FLAT:??_7type_info@@6B@	; CCmdTarget `RTTI Type Descriptor'
	DD	00H
	DB	'.?AVCCmdTarget@@', 00H
_DATA	ENDS
;	COMDAT ??_R1A@?0A@A@CObject@@8
rdata$r	SEGMENT
??_R1A@?0A@A@CObject@@8 DD FLAT:??_R0?AVCObject@@@8	; CObject::`RTTI Base Class Descriptor at (0,-1,0,0)'
	DD	00H
	DD	00H
	DD	0ffffffffH
	DD	00H
	DD	00H
rdata$r	ENDS
;	COMDAT ??_R0?AVCObject@@@8
_DATA	SEGMENT
??_R0?AVCObject@@@8 DD FLAT:??_7type_info@@6B@		; CObject `RTTI Type Descriptor'
	DD	00H
	DB	'.?AVCObject@@', 00H
; Function compile flags: /Odt
_DATA	ENDS
_TEXT	SEGMENT
tv305 = -252						; size = 4
tv384 = -248						; size = 8
_this$ = -240						; size = 4
$T198631 = -236						; size = 4
$T198630 = -232						; size = 4
_fontFamily$ = -228					; size = 8
_ma$ = -220						; size = 100
_ma2$ = -116						; size = 100
__$EHRec$ = -12						; size = 12
??0CSkinButton2@@QAE@XZ PROC NEAR			; CSkinButton2::CSkinButton2
; _this$ = ecx

; 19   : {

  00020	55		 push	 ebp
  00021	8b ec		 mov	 ebp, esp
  00023	6a ff		 push	 -1
  00025	68 00 00 00 00	 push	 __ehhandler$??0CSkinButton2@@QAE@XZ
  0002a	64 a1 00 00 00
	00		 mov	 eax, DWORD PTR fs:__except_list
  00030	50		 push	 eax
  00031	64 89 25 00 00
	00 00		 mov	 DWORD PTR fs:__except_list, esp
  00038	81 ec f0 00 00
	00		 sub	 esp, 240		; 000000f0H
  0003e	89 8d 10 ff ff
	ff		 mov	 DWORD PTR _this$[ebp], ecx
  00044	8b 8d 10 ff ff
	ff		 mov	 ecx, DWORD PTR _this$[ebp]
  0004a	e8 00 00 00 00	 call	 ??0CButton@@QAE@XZ	; CButton::CButton
  0004f	c7 45 fc 00 00
	00 00		 mov	 DWORD PTR __$EHRec$[ebp+8], 0
  00056	8b 85 10 ff ff
	ff		 mov	 eax, DWORD PTR _this$[ebp]
  0005c	c7 00 00 00 00
	00		 mov	 DWORD PTR [eax], OFFSET FLAT:??_7CSkinButton2@@6B@
  00062	8b 8d 10 ff ff
	ff		 mov	 ecx, DWORD PTR _this$[ebp]
  00068	c7 41 54 00 00
	00 00		 mov	 DWORD PTR [ecx+84], 0
  0006f	8b 95 10 ff ff
	ff		 mov	 edx, DWORD PTR _this$[ebp]
  00075	c7 42 5c 01 00
	00 00		 mov	 DWORD PTR [edx+92], 1
  0007c	8b 8d 10 ff ff
	ff		 mov	 ecx, DWORD PTR _this$[ebp]
  00082	83 c1 60	 add	 ecx, 96			; 00000060H
  00085	e8 00 00 00 00	 call	 ??0CRect@@QAE@XZ	; CRect::CRect
  0008a	8b 85 10 ff ff
	ff		 mov	 eax, DWORD PTR _this$[ebp]
  00090	c7 40 70 00 00
	00 00		 mov	 DWORD PTR [eax+112], 0
  00097	8b 8d 10 ff ff
	ff		 mov	 ecx, DWORD PTR _this$[ebp]
  0009d	c7 41 74 00 00
	00 00		 mov	 DWORD PTR [ecx+116], 0
  000a4	8b 8d 10 ff ff
	ff		 mov	 ecx, DWORD PTR _this$[ebp]
  000aa	83 c1 78	 add	 ecx, 120		; 00000078H
  000ad	ff 15 00 00 00
	00		 call	 DWORD PTR __imp_??0?$CStringT@DV?$StrTraitMFC_DLL@DV?$ChTraitsCRT@D@ATL@@@@@ATL@@QAE@XZ
  000b3	c6 45 fc 01	 mov	 BYTE PTR __$EHRec$[ebp+8], 1
  000b7	8b 95 10 ff ff
	ff		 mov	 edx, DWORD PTR _this$[ebp]
  000bd	c7 42 7c 00 00
	00 00		 mov	 DWORD PTR [edx+124], 0
  000c4	8b 85 10 ff ff
	ff		 mov	 eax, DWORD PTR _this$[ebp]
  000ca	c7 80 80 00 00
	00 00 00 00 00	 mov	 DWORD PTR [eax+128], 0
  000d4	8b 8d 10 ff ff
	ff		 mov	 ecx, DWORD PTR _this$[ebp]
  000da	c7 81 84 00 00
	00 00 00 00 00	 mov	 DWORD PTR [ecx+132], 0
  000e4	8b 95 10 ff ff
	ff		 mov	 edx, DWORD PTR _this$[ebp]
  000ea	c7 82 88 00 00
	00 00 00 00 00	 mov	 DWORD PTR [edx+136], 0
  000f4	8b 8d 10 ff ff
	ff		 mov	 ecx, DWORD PTR _this$[ebp]
  000fa	81 c1 8c 00 00
	00		 add	 ecx, 140		; 0000008cH
  00100	e8 00 00 00 00	 call	 ??0CDC@@QAE@XZ		; CDC::CDC
  00105	c6 45 fc 02	 mov	 BYTE PTR __$EHRec$[ebp+8], 2
  00109	8b 8d 10 ff ff
	ff		 mov	 ecx, DWORD PTR _this$[ebp]
  0010f	81 c1 64 01 00
	00		 add	 ecx, 356		; 00000164H
  00115	ff 15 00 00 00
	00		 call	 DWORD PTR __imp_??0?$CStringT@DV?$StrTraitMFC_DLL@DV?$ChTraitsCRT@D@ATL@@@@@ATL@@QAE@XZ
  0011b	c6 45 fc 03	 mov	 BYTE PTR __$EHRec$[ebp+8], 3
  0011f	8b 85 10 ff ff
	ff		 mov	 eax, DWORD PTR _this$[ebp]
  00125	c7 80 68 01 00
	00 0c 00 00 00	 mov	 DWORD PTR [eax+360], 12	; 0000000cH
  0012f	8b 8d 10 ff ff
	ff		 mov	 ecx, DWORD PTR _this$[ebp]
  00135	81 c1 6c 01 00
	00		 add	 ecx, 364		; 0000016cH
  0013b	e8 00 00 00 00	 call	 ??0Color@Gdiplus@@QAE@XZ ; Gdiplus::Color::Color
  00140	8b 8d 10 ff ff
	ff		 mov	 ecx, DWORD PTR _this$[ebp]
  00146	81 c1 70 01 00
	00		 add	 ecx, 368		; 00000170H
  0014c	e8 00 00 00 00	 call	 ??0Color@Gdiplus@@QAE@XZ ; Gdiplus::Color::Color
  00151	8b 8d 10 ff ff
	ff		 mov	 ecx, DWORD PTR _this$[ebp]
  00157	81 c1 74 01 00
	00		 add	 ecx, 372		; 00000174H
  0015d	e8 00 00 00 00	 call	 ??0Color@Gdiplus@@QAE@XZ ; Gdiplus::Color::Color
  00162	8b 8d 10 ff ff
	ff		 mov	 ecx, DWORD PTR _this$[ebp]
  00168	81 c1 78 01 00
	00		 add	 ecx, 376		; 00000178H
  0016e	e8 00 00 00 00	 call	 ??0Color@Gdiplus@@QAE@XZ ; Gdiplus::Color::Color
  00173	8b 8d 10 ff ff
	ff		 mov	 ecx, DWORD PTR _this$[ebp]
  00179	81 c1 7c 01 00
	00		 add	 ecx, 380		; 0000017cH
  0017f	e8 00 00 00 00	 call	 ??0Color@Gdiplus@@QAE@XZ ; Gdiplus::Color::Color
  00184	8b 8d 10 ff ff
	ff		 mov	 ecx, DWORD PTR _this$[ebp]
  0018a	c7 81 84 01 00
	00 00 00 00 00	 mov	 DWORD PTR [ecx+388], 0

; 20   : 	ColorMatrix  ma = {
; 21   : 		1.00f, 0.00f, 0.00f, 0.00f, 0.00f,

  00194	c7 85 24 ff ff
	ff 00 00 80 3f	 mov	 DWORD PTR _ma$[ebp], 1065353216 ; 3f800000H
  0019e	c7 85 28 ff ff
	ff 00 00 00 00	 mov	 DWORD PTR _ma$[ebp+4], 0
  001a8	c7 85 2c ff ff
	ff 00 00 00 00	 mov	 DWORD PTR _ma$[ebp+8], 0
  001b2	c7 85 30 ff ff
	ff 00 00 00 00	 mov	 DWORD PTR _ma$[ebp+12], 0
  001bc	c7 85 34 ff ff
	ff 00 00 00 00	 mov	 DWORD PTR _ma$[ebp+16], 0

; 22   : 
; 23   : 			0.00f, 1.00f, 0.00f, 0.00f, 0.00f,

  001c6	c7 85 38 ff ff
	ff 00 00 00 00	 mov	 DWORD PTR _ma$[ebp+20], 0
  001d0	c7 85 3c ff ff
	ff 00 00 80 3f	 mov	 DWORD PTR _ma$[ebp+24], 1065353216 ; 3f800000H
  001da	c7 85 40 ff ff
	ff 00 00 00 00	 mov	 DWORD PTR _ma$[ebp+28], 0
  001e4	c7 85 44 ff ff
	ff 00 00 00 00	 mov	 DWORD PTR _ma$[ebp+32], 0
  001ee	c7 85 48 ff ff
	ff 00 00 00 00	 mov	 DWORD PTR _ma$[ebp+36], 0

; 24   : 
; 25   : 			0.00f, 0.00f, 1.00f, 0.00f, 0.00f,

  001f8	c7 85 4c ff ff
	ff 00 00 00 00	 mov	 DWORD PTR _ma$[ebp+40], 0
  00202	c7 85 50 ff ff
	ff 00 00 00 00	 mov	 DWORD PTR _ma$[ebp+44], 0
  0020c	c7 85 54 ff ff
	ff 00 00 80 3f	 mov	 DWORD PTR _ma$[ebp+48], 1065353216 ; 3f800000H
  00216	c7 85 58 ff ff
	ff 00 00 00 00	 mov	 DWORD PTR _ma$[ebp+52], 0
  00220	c7 85 5c ff ff
	ff 00 00 00 00	 mov	 DWORD PTR _ma$[ebp+56], 0

; 26   : 
; 27   : 			0.00f, 0.00f, 0.00f, 1.00f, 0.00f,

  0022a	c7 85 60 ff ff
	ff 00 00 00 00	 mov	 DWORD PTR _ma$[ebp+60], 0
  00234	c7 85 64 ff ff
	ff 00 00 00 00	 mov	 DWORD PTR _ma$[ebp+64], 0
  0023e	c7 85 68 ff ff
	ff 00 00 00 00	 mov	 DWORD PTR _ma$[ebp+68], 0
  00248	c7 85 6c ff ff
	ff 00 00 80 3f	 mov	 DWORD PTR _ma$[ebp+72], 1065353216 ; 3f800000H
  00252	c7 85 70 ff ff
	ff 00 00 00 00	 mov	 DWORD PTR _ma$[ebp+76], 0

; 28   : 
; 29   : 			0.15f, 0.15f, 0.15f, 0.00f, 1.00f	};

  0025c	c7 85 74 ff ff
	ff 9a 99 19 3e	 mov	 DWORD PTR _ma$[ebp+80], 1041865114 ; 3e19999aH
  00266	c7 85 78 ff ff
	ff 9a 99 19 3e	 mov	 DWORD PTR _ma$[ebp+84], 1041865114 ; 3e19999aH
  00270	c7 85 7c ff ff
	ff 9a 99 19 3e	 mov	 DWORD PTR _ma$[ebp+88], 1041865114 ; 3e19999aH
  0027a	c7 45 80 00 00
	00 00		 mov	 DWORD PTR _ma$[ebp+92], 0
  00281	c7 45 84 00 00
	80 3f		 mov	 DWORD PTR _ma$[ebp+96], 1065353216 ; 3f800000H

; 30   : 	memcpy( &m_LightMat, &ma,  sizeof( ColorMatrix ) );

  00288	6a 64		 push	 100			; 00000064H
  0028a	8d 95 24 ff ff
	ff		 lea	 edx, DWORD PTR _ma$[ebp]
  00290	52		 push	 edx
  00291	8b 85 10 ff ff
	ff		 mov	 eax, DWORD PTR _this$[ebp]
  00297	05 9c 00 00 00	 add	 eax, 156		; 0000009cH
  0029c	50		 push	 eax
  0029d	e8 00 00 00 00	 call	 _memcpy
  002a2	83 c4 0c	 add	 esp, 12			; 0000000cH

; 31   : 
; 32   : 	ColorMatrix ma2 = {
; 33   : 			0.40f, 0.40f, 0.40f, 0.00f, 0.00f,

  002a5	c7 45 8c cd cc
	cc 3e		 mov	 DWORD PTR _ma2$[ebp], 1053609165 ; 3ecccccdH
  002ac	c7 45 90 cd cc
	cc 3e		 mov	 DWORD PTR _ma2$[ebp+4], 1053609165 ; 3ecccccdH
  002b3	c7 45 94 cd cc
	cc 3e		 mov	 DWORD PTR _ma2$[ebp+8], 1053609165 ; 3ecccccdH
  002ba	c7 45 98 00 00
	00 00		 mov	 DWORD PTR _ma2$[ebp+12], 0
  002c1	c7 45 9c 00 00
	00 00		 mov	 DWORD PTR _ma2$[ebp+16], 0

; 34   : 
; 35   : 				0.50f, 0.50f, 0.50f, 0.00f, 0.00f,

  002c8	c7 45 a0 00 00
	00 3f		 mov	 DWORD PTR _ma2$[ebp+20], 1056964608 ; 3f000000H
  002cf	c7 45 a4 00 00
	00 3f		 mov	 DWORD PTR _ma2$[ebp+24], 1056964608 ; 3f000000H
  002d6	c7 45 a8 00 00
	00 3f		 mov	 DWORD PTR _ma2$[ebp+28], 1056964608 ; 3f000000H
  002dd	c7 45 ac 00 00
	00 00		 mov	 DWORD PTR _ma2$[ebp+32], 0
  002e4	c7 45 b0 00 00
	00 00		 mov	 DWORD PTR _ma2$[ebp+36], 0

; 36   : 
; 37   : 				0.10f, 0.10f, 0.10f, 0.00f, 0.00f,

  002eb	c7 45 b4 cd cc
	cc 3d		 mov	 DWORD PTR _ma2$[ebp+40], 1036831949 ; 3dcccccdH
  002f2	c7 45 b8 cd cc
	cc 3d		 mov	 DWORD PTR _ma2$[ebp+44], 1036831949 ; 3dcccccdH
  002f9	c7 45 bc cd cc
	cc 3d		 mov	 DWORD PTR _ma2$[ebp+48], 1036831949 ; 3dcccccdH
  00300	c7 45 c0 00 00
	00 00		 mov	 DWORD PTR _ma2$[ebp+52], 0
  00307	c7 45 c4 00 00
	00 00		 mov	 DWORD PTR _ma2$[ebp+56], 0

; 38   : 
; 39   : 				0.00f, 0.00f, 0.00f, 1.00f, 0.00f,

  0030e	c7 45 c8 00 00
	00 00		 mov	 DWORD PTR _ma2$[ebp+60], 0
  00315	c7 45 cc 00 00
	00 00		 mov	 DWORD PTR _ma2$[ebp+64], 0
  0031c	c7 45 d0 00 00
	00 00		 mov	 DWORD PTR _ma2$[ebp+68], 0
  00323	c7 45 d4 00 00
	80 3f		 mov	 DWORD PTR _ma2$[ebp+72], 1065353216 ; 3f800000H
  0032a	c7 45 d8 00 00
	00 00		 mov	 DWORD PTR _ma2$[ebp+76], 0

; 40   : 
; 41   : 				0.00f, 0.00f, 0.00f, 0.00f, 1.00f	};

  00331	c7 45 dc 00 00
	00 00		 mov	 DWORD PTR _ma2$[ebp+80], 0
  00338	c7 45 e0 00 00
	00 00		 mov	 DWORD PTR _ma2$[ebp+84], 0
  0033f	c7 45 e4 00 00
	00 00		 mov	 DWORD PTR _ma2$[ebp+88], 0
  00346	c7 45 e8 00 00
	00 00		 mov	 DWORD PTR _ma2$[ebp+92], 0
  0034d	c7 45 ec 00 00
	80 3f		 mov	 DWORD PTR _ma2$[ebp+96], 1065353216 ; 3f800000H

; 42   : 
; 43   : 	::memcpy( &m_GrayMat, &ma2, sizeof( ColorMatrix ) );

  00354	6a 64		 push	 100			; 00000064H
  00356	8d 4d 8c	 lea	 ecx, DWORD PTR _ma2$[ebp]
  00359	51		 push	 ecx
  0035a	8b 95 10 ff ff
	ff		 mov	 edx, DWORD PTR _this$[ebp]
  00360	81 c2 00 01 00
	00		 add	 edx, 256		; 00000100H
  00366	52		 push	 edx
  00367	e8 00 00 00 00	 call	 _memcpy
  0036c	83 c4 0c	 add	 esp, 12			; 0000000cH

; 44   : 
; 45   : 	m_colFrame1.SetValue( Gdiplus::Color::MakeARGB(50,0,0,0) );

  0036f	6a 00		 push	 0
  00371	6a 00		 push	 0
  00373	6a 00		 push	 0
  00375	6a 32		 push	 50			; 00000032H
  00377	e8 00 00 00 00	 call	 ?MakeARGB@Color@Gdiplus@@SAKEEEE@Z ; Gdiplus::Color::MakeARGB
  0037c	83 c4 10	 add	 esp, 16			; 00000010H
  0037f	50		 push	 eax
  00380	8b 8d 10 ff ff
	ff		 mov	 ecx, DWORD PTR _this$[ebp]
  00386	81 c1 70 01 00
	00		 add	 ecx, 368		; 00000170H
  0038c	e8 00 00 00 00	 call	 ?SetValue@Color@Gdiplus@@QAEXK@Z ; Gdiplus::Color::SetValue

; 46   : 	m_colFrame2.SetValue( Gdiplus::Color::MakeARGB(200,255,255,255)  );

  00391	68 ff 00 00 00	 push	 255			; 000000ffH
  00396	68 ff 00 00 00	 push	 255			; 000000ffH
  0039b	68 ff 00 00 00	 push	 255			; 000000ffH
  003a0	68 c8 00 00 00	 push	 200			; 000000c8H
  003a5	e8 00 00 00 00	 call	 ?MakeARGB@Color@Gdiplus@@SAKEEEE@Z ; Gdiplus::Color::MakeARGB
  003aa	83 c4 10	 add	 esp, 16			; 00000010H
  003ad	50		 push	 eax
  003ae	8b 8d 10 ff ff
	ff		 mov	 ecx, DWORD PTR _this$[ebp]
  003b4	81 c1 74 01 00
	00		 add	 ecx, 372		; 00000174H
  003ba	e8 00 00 00 00	 call	 ?SetValue@Color@Gdiplus@@QAEXK@Z ; Gdiplus::Color::SetValue

; 47   : 	m_colBrush2.SetValue( Gdiplus::Color::MakeARGB(80,255,255,255)  );

  003bf	68 ff 00 00 00	 push	 255			; 000000ffH
  003c4	68 ff 00 00 00	 push	 255			; 000000ffH
  003c9	68 ff 00 00 00	 push	 255			; 000000ffH
  003ce	6a 50		 push	 80			; 00000050H
  003d0	e8 00 00 00 00	 call	 ?MakeARGB@Color@Gdiplus@@SAKEEEE@Z ; Gdiplus::Color::MakeARGB
  003d5	83 c4 10	 add	 esp, 16			; 00000010H
  003d8	50		 push	 eax
  003d9	8b 8d 10 ff ff
	ff		 mov	 ecx, DWORD PTR _this$[ebp]
  003df	81 c1 7c 01 00
	00		 add	 ecx, 380		; 0000017cH
  003e5	e8 00 00 00 00	 call	 ?SetValue@Color@Gdiplus@@QAEXK@Z ; Gdiplus::Color::SetValue

; 48   : 	m_colBrush1.SetValue( Gdiplus::Color::MakeARGB(100,255,255,255)  );

  003ea	68 ff 00 00 00	 push	 255			; 000000ffH
  003ef	68 ff 00 00 00	 push	 255			; 000000ffH
  003f4	68 ff 00 00 00	 push	 255			; 000000ffH
  003f9	6a 64		 push	 100			; 00000064H
  003fb	e8 00 00 00 00	 call	 ?MakeARGB@Color@Gdiplus@@SAKEEEE@Z ; Gdiplus::Color::MakeARGB
  00400	83 c4 10	 add	 esp, 16			; 00000010H
  00403	50		 push	 eax
  00404	8b 8d 10 ff ff
	ff		 mov	 ecx, DWORD PTR _this$[ebp]
  0040a	81 c1 78 01 00
	00		 add	 ecx, 376		; 00000178H
  00410	e8 00 00 00 00	 call	 ?SetValue@Color@Gdiplus@@QAEXK@Z ; Gdiplus::Color::SetValue

; 49   : 	m_colBK.SetValue( Gdiplus::Color::MakeARGB(255,255,255,255) );

  00415	68 ff 00 00 00	 push	 255			; 000000ffH
  0041a	68 ff 00 00 00	 push	 255			; 000000ffH
  0041f	68 ff 00 00 00	 push	 255			; 000000ffH
  00424	68 ff 00 00 00	 push	 255			; 000000ffH
  00429	e8 00 00 00 00	 call	 ?MakeARGB@Color@Gdiplus@@SAKEEEE@Z ; Gdiplus::Color::MakeARGB
  0042e	83 c4 10	 add	 esp, 16			; 00000010H
  00431	50		 push	 eax
  00432	8b 8d 10 ff ff
	ff		 mov	 ecx, DWORD PTR _this$[ebp]
  00438	81 c1 6c 01 00
	00		 add	 ecx, 364		; 0000016cH
  0043e	e8 00 00 00 00	 call	 ?SetValue@Color@Gdiplus@@QAEXK@Z ; Gdiplus::Color::SetValue

; 50   : 	FontFamily fontFamily(L"");

  00443	6a 00		 push	 0
  00445	68 00 00 00 00	 push	 OFFSET FLAT:$SG197562
  0044a	8d 8d 1c ff ff
	ff		 lea	 ecx, DWORD PTR _fontFamily$[ebp]
  00450	e8 00 00 00 00	 call	 ??0FontFamily@Gdiplus@@QAE@PB_WPBVFontCollection@1@@Z ; Gdiplus::FontFamily::FontFamily
  00455	c6 45 fc 04	 mov	 BYTE PTR __$EHRec$[ebp+8], 4

; 51   : 	mp_font = new Gdiplus::Font( &fontFamily,m_nWidth, Gdiplus::FontStyleRegular, Gdiplus::UnitPixel);

  00459	6a 08		 push	 8
  0045b	e8 00 00 00 00	 call	 ??2GdiplusBase@Gdiplus@@SAPAXI@Z ; Gdiplus::GdiplusBase::operator new
  00460	83 c4 04	 add	 esp, 4
  00463	89 85 14 ff ff
	ff		 mov	 DWORD PTR $T198631[ebp], eax
  00469	c6 45 fc 05	 mov	 BYTE PTR __$EHRec$[ebp+8], 5
  0046d	83 bd 14 ff ff
	ff 00		 cmp	 DWORD PTR $T198631[ebp], 0
  00474	74 44		 je	 SHORT $L198632
  00476	6a 02		 push	 2
  00478	6a 00		 push	 0
  0047a	8b 85 10 ff ff
	ff		 mov	 eax, DWORD PTR _this$[ebp]
  00480	8b 88 68 01 00
	00		 mov	 ecx, DWORD PTR [eax+360]
  00486	89 8d 08 ff ff
	ff		 mov	 DWORD PTR tv384[ebp], ecx
  0048c	c7 85 0c ff ff
	ff 00 00 00 00	 mov	 DWORD PTR tv384[ebp+4], 0
  00496	df ad 08 ff ff
	ff		 fild	 QWORD PTR tv384[ebp]
  0049c	51		 push	 ecx
  0049d	d9 1c 24	 fstp	 DWORD PTR [esp]
  004a0	8d 95 1c ff ff
	ff		 lea	 edx, DWORD PTR _fontFamily$[ebp]
  004a6	52		 push	 edx
  004a7	8b 8d 14 ff ff
	ff		 mov	 ecx, DWORD PTR $T198631[ebp]
  004ad	e8 00 00 00 00	 call	 ??0Font@Gdiplus@@QAE@PBVFontFamily@1@MHW4Unit@1@@Z ; Gdiplus::Font::Font
  004b2	89 85 04 ff ff
	ff		 mov	 DWORD PTR tv305[ebp], eax
  004b8	eb 0a		 jmp	 SHORT $L198633
$L198632:
  004ba	c7 85 04 ff ff
	ff 00 00 00 00	 mov	 DWORD PTR tv305[ebp], 0
$L198633:
  004c4	8b 85 04 ff ff
	ff		 mov	 eax, DWORD PTR tv305[ebp]
  004ca	89 85 18 ff ff
	ff		 mov	 DWORD PTR $T198630[ebp], eax
  004d0	c6 45 fc 04	 mov	 BYTE PTR __$EHRec$[ebp+8], 4
  004d4	8b 8d 10 ff ff
	ff		 mov	 ecx, DWORD PTR _this$[ebp]
  004da	8b 95 18 ff ff
	ff		 mov	 edx, DWORD PTR $T198630[ebp]
  004e0	89 91 80 01 00
	00		 mov	 DWORD PTR [ecx+384], edx

; 52   : 	m_pToolTip = NULL;

  004e6	8b 85 10 ff ff
	ff		 mov	 eax, DWORD PTR _this$[ebp]
  004ec	c7 40 74 00 00
	00 00		 mov	 DWORD PTR [eax+116], 0

; 53   : 	m_enmuDrawType = TOP_ARC;

  004f3	8b 8d 10 ff ff
	ff		 mov	 ecx, DWORD PTR _this$[ebp]
  004f9	c7 41 54 01 00
	00 00		 mov	 DWORD PTR [ecx+84], 1

; 54   : }

  00500	c6 45 fc 03	 mov	 BYTE PTR __$EHRec$[ebp+8], 3
  00504	8d 8d 1c ff ff
	ff		 lea	 ecx, DWORD PTR _fontFamily$[ebp]
  0050a	e8 00 00 00 00	 call	 ??1FontFamily@Gdiplus@@QAE@XZ ; Gdiplus::FontFamily::~FontFamily
  0050f	c7 45 fc ff ff
	ff ff		 mov	 DWORD PTR __$EHRec$[ebp+8], -1
  00516	8b 85 10 ff ff
	ff		 mov	 eax, DWORD PTR _this$[ebp]
  0051c	8b 4d f4	 mov	 ecx, DWORD PTR __$EHRec$[ebp]
  0051f	64 89 0d 00 00
	00 00		 mov	 DWORD PTR fs:__except_list, ecx
  00526	8b e5		 mov	 esp, ebp
  00528	5d		 pop	 ebp
  00529	c3		 ret	 0
_TEXT	ENDS
text$x	SEGMENT
$L198634:
  00000	8b 8d 10 ff ff
	ff		 mov	 ecx, DWORD PTR _this$[ebp]
  00006	e9 00 00 00 00	 jmp	 ??1CButton@@UAE@XZ	; CButton::~CButton
$L198635:
  0000b	8b 8d 10 ff ff
	ff		 mov	 ecx, DWORD PTR _this$[ebp]
  00011	83 c1 78	 add	 ecx, 120		; 00000078H
  00014	ff 25 00 00 00
	00		 jmp	 DWORD PTR __imp_??1?$CStringT@DV?$StrTraitMFC_DLL@DV?$ChTraitsCRT@D@ATL@@@@@ATL@@QAE@XZ
$L198636:
  0001a	8b 8d 10 ff ff
	ff		 mov	 ecx, DWORD PTR _this$[ebp]
  00020	81 c1 8c 00 00
	00		 add	 ecx, 140		; 0000008cH
  00026	e9 00 00 00 00	 jmp	 ??1CDC@@UAE@XZ		; CDC::~CDC
$L198637:
  0002b	8b 8d 10 ff ff
	ff		 mov	 ecx, DWORD PTR _this$[ebp]
  00031	81 c1 64 01 00
	00		 add	 ecx, 356		; 00000164H
  00037	ff 25 00 00 00
	00		 jmp	 DWORD PTR __imp_??1?$CStringT@DV?$StrTraitMFC_DLL@DV?$ChTraitsCRT@D@ATL@@@@@ATL@@QAE@XZ
$L198638:
  0003d	8d 8d 1c ff ff
	ff		 lea	 ecx, DWORD PTR _fontFamily$[ebp]
  00043	e9 00 00 00 00	 jmp	 ??1FontFamily@Gdiplus@@QAE@XZ ; Gdiplus::FontFamily::~FontFamily
$L198639:
  00048	8b 85 14 ff ff
	ff		 mov	 eax, DWORD PTR $T198631[ebp]
  0004e	50		 push	 eax
  0004f	e8 00 00 00 00	 call	 ??3GdiplusBase@Gdiplus@@SAXPAX@Z ; Gdiplus::GdiplusBase::operator delete
  00054	59		 pop	 ecx
  00055	c3		 ret	 0
__ehhandler$??0CSkinButton2@@QAE@XZ:
  00056	b8 00 00 00 00	 mov	 eax, OFFSET FLAT:$T198643
  0005b	e9 00 00 00 00	 jmp	 ___CxxFrameHandler
text$x	ENDS
??0CSkinButton2@@QAE@XZ ENDP				; CSkinButton2::CSkinButton2
PUBLIC	??3CObject@@SGXPAX@Z				; CObject::operator delete
PUBLIC	??1CSkinButton2@@UAE@XZ				; CSkinButton2::~CSkinButton2
; Function compile flags: /Odt
;	COMDAT ??_GCSkinButton2@@UAEPAXI@Z
_TEXT	SEGMENT
_this$ = -4						; size = 4
___flags$ = 8						; size = 4
??_GCSkinButton2@@UAEPAXI@Z PROC NEAR			; CSkinButton2::`scalar deleting destructor', COMDAT
; _this$ = ecx
  00000	55		 push	 ebp
  00001	8b ec		 mov	 ebp, esp
  00003	51		 push	 ecx
  00004	89 4d fc	 mov	 DWORD PTR _this$[ebp], ecx
  00007	8b 4d fc	 mov	 ecx, DWORD PTR _this$[ebp]
  0000a	e8 00 00 00 00	 call	 ??1CSkinButton2@@UAE@XZ	; CSkinButton2::~CSkinButton2
  0000f	8b 45 08	 mov	 eax, DWORD PTR ___flags$[ebp]
  00012	83 e0 01	 and	 eax, 1
  00015	74 09		 je	 SHORT $L197570
  00017	8b 4d fc	 mov	 ecx, DWORD PTR _this$[ebp]
  0001a	51		 push	 ecx
  0001b	e8 00 00 00 00	 call	 ??3CObject@@SGXPAX@Z	; CObject::operator delete
$L197570:
  00020	8b 45 fc	 mov	 eax, DWORD PTR _this$[ebp]
  00023	8b e5		 mov	 esp, ebp
  00025	5d		 pop	 ebp
  00026	c2 04 00	 ret	 4
??_GCSkinButton2@@UAEPAXI@Z ENDP			; CSkinButton2::`scalar deleting destructor'
_TEXT	ENDS
PUBLIC	??_GFont@Gdiplus@@QAEPAXI@Z			; Gdiplus::Font::`scalar deleting destructor'
xdata$x	SEGMENT
$T198671 DD	0ffffffffH
	DD	FLAT:$L198664
	DD	00H
	DD	FLAT:$L198665
	DD	01H
	DD	FLAT:$L198666
	DD	02H
	DD	FLAT:$L198667
$T198669 DD	019930520H
	DD	04H
	DD	FLAT:$T198671
	DD	2 DUP(00H)
	DD	2 DUP(00H)
; Function compile flags: /Odt
xdata$x	ENDS
_TEXT	SEGMENT
tv134 = -52						; size = 4
tv128 = -48						; size = 4
tv86 = -44						; size = 4
_this$ = -40						; size = 4
$T198661 = -36						; size = 4
$T198660 = -32						; size = 4
$T198657 = -28						; size = 4
$T198656 = -24						; size = 4
$T198653 = -20						; size = 4
$T198652 = -16						; size = 4
__$EHRec$ = -12						; size = 12
??1CSkinButton2@@UAE@XZ PROC NEAR			; CSkinButton2::~CSkinButton2
; _this$ = ecx

; 57   : {

  00530	55		 push	 ebp
  00531	8b ec		 mov	 ebp, esp
  00533	6a ff		 push	 -1
  00535	68 00 00 00 00	 push	 __ehhandler$??1CSkinButton2@@UAE@XZ
  0053a	64 a1 00 00 00
	00		 mov	 eax, DWORD PTR fs:__except_list
  00540	50		 push	 eax
  00541	64 89 25 00 00
	00 00		 mov	 DWORD PTR fs:__except_list, esp
  00548	83 ec 28	 sub	 esp, 40			; 00000028H
  0054b	89 4d d8	 mov	 DWORD PTR _this$[ebp], ecx
  0054e	8b 45 d8	 mov	 eax, DWORD PTR _this$[ebp]
  00551	c7 00 00 00 00
	00		 mov	 DWORD PTR [eax], OFFSET FLAT:??_7CSkinButton2@@6B@
  00557	c7 45 fc 03 00
	00 00		 mov	 DWORD PTR __$EHRec$[ebp+8], 3

; 58   : 	if(m_pToolTip)	delete m_pToolTip;

  0055e	8b 4d d8	 mov	 ecx, DWORD PTR _this$[ebp]
  00561	83 79 74 00	 cmp	 DWORD PTR [ecx+116], 0
  00565	74 2e		 je	 SHORT $L197574
  00567	8b 55 d8	 mov	 edx, DWORD PTR _this$[ebp]
  0056a	8b 42 74	 mov	 eax, DWORD PTR [edx+116]
  0056d	89 45 ec	 mov	 DWORD PTR $T198653[ebp], eax
  00570	8b 4d ec	 mov	 ecx, DWORD PTR $T198653[ebp]
  00573	89 4d f0	 mov	 DWORD PTR $T198652[ebp], ecx
  00576	83 7d f0 00	 cmp	 DWORD PTR $T198652[ebp], 0
  0057a	74 12		 je	 SHORT $L198654
  0057c	6a 01		 push	 1
  0057e	8b 55 f0	 mov	 edx, DWORD PTR $T198652[ebp]
  00581	8b 02		 mov	 eax, DWORD PTR [edx]
  00583	8b 4d f0	 mov	 ecx, DWORD PTR $T198652[ebp]
  00586	ff 50 04	 call	 DWORD PTR [eax+4]
  00589	89 45 d4	 mov	 DWORD PTR tv86[ebp], eax
  0058c	eb 07		 jmp	 SHORT $L197574
$L198654:
  0058e	c7 45 d4 00 00
	00 00		 mov	 DWORD PTR tv86[ebp], 0
$L197574:

; 59   : 	if(m_pPngImage) delete m_pPngImage;

  00595	8b 4d d8	 mov	 ecx, DWORD PTR _this$[ebp]
  00598	83 79 7c 00	 cmp	 DWORD PTR [ecx+124], 0
  0059c	74 2d		 je	 SHORT $L197577
  0059e	8b 55 d8	 mov	 edx, DWORD PTR _this$[ebp]
  005a1	8b 42 7c	 mov	 eax, DWORD PTR [edx+124]
  005a4	89 45 e4	 mov	 DWORD PTR $T198657[ebp], eax
  005a7	8b 4d e4	 mov	 ecx, DWORD PTR $T198657[ebp]
  005aa	89 4d e8	 mov	 DWORD PTR $T198656[ebp], ecx
  005ad	83 7d e8 00	 cmp	 DWORD PTR $T198656[ebp], 0
  005b1	74 11		 je	 SHORT $L198658
  005b3	6a 01		 push	 1
  005b5	8b 55 e8	 mov	 edx, DWORD PTR $T198656[ebp]
  005b8	8b 02		 mov	 eax, DWORD PTR [edx]
  005ba	8b 4d e8	 mov	 ecx, DWORD PTR $T198656[ebp]
  005bd	ff 10		 call	 DWORD PTR [eax]
  005bf	89 45 d0	 mov	 DWORD PTR tv128[ebp], eax
  005c2	eb 07		 jmp	 SHORT $L197577
$L198658:
  005c4	c7 45 d0 00 00
	00 00		 mov	 DWORD PTR tv128[ebp], 0
$L197577:

; 60   : 	delete mp_font;

  005cb	8b 4d d8	 mov	 ecx, DWORD PTR _this$[ebp]
  005ce	8b 91 80 01 00
	00		 mov	 edx, DWORD PTR [ecx+384]
  005d4	89 55 dc	 mov	 DWORD PTR $T198661[ebp], edx
  005d7	8b 45 dc	 mov	 eax, DWORD PTR $T198661[ebp]
  005da	89 45 e0	 mov	 DWORD PTR $T198660[ebp], eax
  005dd	83 7d e0 00	 cmp	 DWORD PTR $T198660[ebp], 0
  005e1	74 0f		 je	 SHORT $L198662
  005e3	6a 01		 push	 1
  005e5	8b 4d e0	 mov	 ecx, DWORD PTR $T198660[ebp]
  005e8	e8 00 00 00 00	 call	 ??_GFont@Gdiplus@@QAEPAXI@Z
  005ed	89 45 cc	 mov	 DWORD PTR tv134[ebp], eax
  005f0	eb 07		 jmp	 SHORT $L197573
$L198662:
  005f2	c7 45 cc 00 00
	00 00		 mov	 DWORD PTR tv134[ebp], 0
$L197573:

; 61   : }

  005f9	c6 45 fc 02	 mov	 BYTE PTR __$EHRec$[ebp+8], 2
  005fd	8b 4d d8	 mov	 ecx, DWORD PTR _this$[ebp]
  00600	81 c1 64 01 00
	00		 add	 ecx, 356		; 00000164H
  00606	ff 15 00 00 00
	00		 call	 DWORD PTR __imp_??1?$CStringT@DV?$StrTraitMFC_DLL@DV?$ChTraitsCRT@D@ATL@@@@@ATL@@QAE@XZ
  0060c	c6 45 fc 01	 mov	 BYTE PTR __$EHRec$[ebp+8], 1
  00610	8b 4d d8	 mov	 ecx, DWORD PTR _this$[ebp]
  00613	81 c1 8c 00 00
	00		 add	 ecx, 140		; 0000008cH
  00619	e8 00 00 00 00	 call	 ??1CDC@@UAE@XZ		; CDC::~CDC
  0061e	c6 45 fc 00	 mov	 BYTE PTR __$EHRec$[ebp+8], 0
  00622	8b 4d d8	 mov	 ecx, DWORD PTR _this$[ebp]
  00625	83 c1 78	 add	 ecx, 120		; 00000078H
  00628	ff 15 00 00 00
	00		 call	 DWORD PTR __imp_??1?$CStringT@DV?$StrTraitMFC_DLL@DV?$ChTraitsCRT@D@ATL@@@@@ATL@@QAE@XZ
  0062e	c7 45 fc ff ff
	ff ff		 mov	 DWORD PTR __$EHRec$[ebp+8], -1
  00635	8b 4d d8	 mov	 ecx, DWORD PTR _this$[ebp]
  00638	e8 00 00 00 00	 call	 ??1CButton@@UAE@XZ	; CButton::~CButton
  0063d	8b 4d f4	 mov	 ecx, DWORD PTR __$EHRec$[ebp]
  00640	64 89 0d 00 00
	00 00		 mov	 DWORD PTR fs:__except_list, ecx
  00647	8b e5		 mov	 esp, ebp
  00649	5d		 pop	 ebp
  0064a	c3		 ret	 0
_TEXT	ENDS
text$x	SEGMENT
$L198664:
  00060	8b 4d d8	 mov	 ecx, DWORD PTR _this$[ebp]
  00063	e9 00 00 00 00	 jmp	 ??1CButton@@UAE@XZ	; CButton::~CButton
$L198665:
  00068	8b 4d d8	 mov	 ecx, DWORD PTR _this$[ebp]
  0006b	83 c1 78	 add	 ecx, 120		; 00000078H
  0006e	ff 25 00 00 00
	00		 jmp	 DWORD PTR __imp_??1?$CStringT@DV?$StrTraitMFC_DLL@DV?$ChTraitsCRT@D@ATL@@@@@ATL@@QAE@XZ
$L198666:
  00074	8b 4d d8	 mov	 ecx, DWORD PTR _this$[ebp]
  00077	81 c1 8c 00 00
	00		 add	 ecx, 140		; 0000008cH
  0007d	e9 00 00 00 00	 jmp	 ??1CDC@@UAE@XZ		; CDC::~CDC
$L198667:
  00082	8b 4d d8	 mov	 ecx, DWORD PTR _this$[ebp]
  00085	81 c1 64 01 00
	00		 add	 ecx, 356		; 00000164H
  0008b	ff 25 00 00 00
	00		 jmp	 DWORD PTR __imp_??1?$CStringT@DV?$StrTraitMFC_DLL@DV?$ChTraitsCRT@D@ATL@@@@@ATL@@QAE@XZ
__ehhandler$??1CSkinButton2@@UAE@XZ:
  00091	b8 00 00 00 00	 mov	 eax, OFFSET FLAT:$T198669
  00096	e9 00 00 00 00	 jmp	 ___CxxFrameHandler
text$x	ENDS
??1CSkinButton2@@UAE@XZ ENDP				; CSkinButton2::~CSkinButton2
PUBLIC	??1Font@Gdiplus@@QAE@XZ				; Gdiplus::Font::~Font
; Function compile flags: /Odt
;	COMDAT ??_GFont@Gdiplus@@QAEPAXI@Z
_TEXT	SEGMENT
_this$ = -4						; size = 4
___flags$ = 8						; size = 4
??_GFont@Gdiplus@@QAEPAXI@Z PROC NEAR			; Gdiplus::Font::`scalar deleting destructor', COMDAT
; _this$ = ecx
  00000	55		 push	 ebp
  00001	8b ec		 mov	 ebp, esp
  00003	51		 push	 ecx
  00004	89 4d fc	 mov	 DWORD PTR _this$[ebp], ecx
  00007	8b 4d fc	 mov	 ecx, DWORD PTR _this$[ebp]
  0000a	e8 00 00 00 00	 call	 ??1Font@Gdiplus@@QAE@XZ	; Gdiplus::Font::~Font
  0000f	8b 45 08	 mov	 eax, DWORD PTR ___flags$[ebp]
  00012	83 e0 01	 and	 eax, 1
  00015	74 0c		 je	 SHORT $L197585
  00017	8b 4d fc	 mov	 ecx, DWORD PTR _this$[ebp]
  0001a	51		 push	 ecx
  0001b	e8 00 00 00 00	 call	 ??3GdiplusBase@Gdiplus@@SAXPAX@Z ; Gdiplus::GdiplusBase::operator delete
  00020	83 c4 04	 add	 esp, 4
$L197585:
  00023	8b 45 fc	 mov	 eax, DWORD PTR _this$[ebp]
  00026	8b e5		 mov	 esp, ebp
  00028	5d		 pop	 ebp
  00029	c2 04 00	 ret	 4
??_GFont@Gdiplus@@QAEPAXI@Z ENDP			; Gdiplus::Font::`scalar deleting destructor'
_TEXT	ENDS
PUBLIC	?GetThisMessageMap@CSkinButton2@@KGPBUAFX_MSGMAP@@XZ ; CSkinButton2::GetThisMessageMap
; Function compile flags: /Odt
_TEXT	SEGMENT
?GetThisMessageMap@CSkinButton2@@KGPBUAFX_MSGMAP@@XZ PROC NEAR ; CSkinButton2::GetThisMessageMap

; 63   : BEGIN_MESSAGE_MAP(CSkinButton2, CButton)

  00650	55		 push	 ebp
  00651	8b ec		 mov	 ebp, esp
  00653	b8 00 00 00 00	 mov	 eax, OFFSET FLAT:?messageMap@CSkinButton2@@1UAFX_MSGMAP@@B ; CSkinButton2::messageMap
  00658	5d		 pop	 ebp
  00659	c3		 ret	 0
?GetThisMessageMap@CSkinButton2@@KGPBUAFX_MSGMAP@@XZ ENDP ; CSkinButton2::GetThisMessageMap
; Function compile flags: /Odt
_this$ = -4						; size = 4
?GetMessageMap@CSkinButton2@@MBEPBUAFX_MSGMAP@@XZ PROC NEAR ; CSkinButton2::GetMessageMap
; _this$ = ecx

; 63   : BEGIN_MESSAGE_MAP(CSkinButton2, CButton)

  00660	55		 push	 ebp
  00661	8b ec		 mov	 ebp, esp
  00663	51		 push	 ecx
  00664	89 4d fc	 mov	 DWORD PTR _this$[ebp], ecx
  00667	b8 00 00 00 00	 mov	 eax, OFFSET FLAT:?messageMap@CSkinButton2@@1UAFX_MSGMAP@@B ; CSkinButton2::messageMap
  0066c	8b e5		 mov	 esp, ebp
  0066e	5d		 pop	 ebp
  0066f	c3		 ret	 0
?GetMessageMap@CSkinButton2@@MBEPBUAFX_MSGMAP@@XZ ENDP	; CSkinButton2::GetMessageMap
_TEXT	ENDS
PUBLIC	?OnCreate@CWnd@@IAEHPAUtagCREATESTRUCTA@@@Z	; CWnd::OnCreate
; Function compile flags: /Odt
_TEXT	SEGMENT
_this$ = -4						; size = 4
_lpCreateStruct$ = 8					; size = 4
?OnCreate@CSkinButton2@@QAEHPAUtagCREATESTRUCTA@@@Z PROC NEAR ; CSkinButton2::OnCreate
; _this$ = ecx

; 77   : {

  00670	55		 push	 ebp
  00671	8b ec		 mov	 ebp, esp
  00673	51		 push	 ecx
  00674	89 4d fc	 mov	 DWORD PTR _this$[ebp], ecx

; 78   : 	if (CButton::OnCreate(lpCreateStruct) == -1)

  00677	8b 45 08	 mov	 eax, DWORD PTR _lpCreateStruct$[ebp]
  0067a	50		 push	 eax
  0067b	8b 4d fc	 mov	 ecx, DWORD PTR _this$[ebp]
  0067e	e8 00 00 00 00	 call	 ?OnCreate@CWnd@@IAEHPAUtagCREATESTRUCTA@@@Z ; CWnd::OnCreate
  00683	83 f8 ff	 cmp	 eax, -1
  00686	75 05		 jne	 SHORT $L197629

; 79   : 		return -1;

  00688	83 c8 ff	 or	 eax, -1
  0068b	eb 02		 jmp	 SHORT $L197628
$L197629:

; 80   : 
; 81   : 	return 0;

  0068d	33 c0		 xor	 eax, eax
$L197628:

; 82   : }

  0068f	8b e5		 mov	 esp, ebp
  00691	5d		 pop	 ebp
  00692	c2 04 00	 ret	 4
?OnCreate@CSkinButton2@@QAEHPAUtagCREATESTRUCTA@@@Z ENDP ; CSkinButton2::OnCreate
_TEXT	ENDS
PUBLIC	?InvalidateRect@CWnd@@QAEXPBUtagRECT@@H@Z	; CWnd::InvalidateRect
PUBLIC	?RedrawWindow@CWnd@@QAEHPBUtagRECT@@PAVCRgn@@I@Z ; CWnd::RedrawWindow
PUBLIC	?GetParent@CWnd@@QBEPAV1@XZ			; CWnd::GetParent
PUBLIC	?SetCheck@CSkinButton2@@QAEXH@Z			; CSkinButton2::SetCheck
EXTRN	?GetWindowRectInParentCoordinates@CGdiEx@@QAEHPAUHWND__@@PAUtagRECT@@@Z:NEAR ; CGdiEx::GetWindowRectInParentCoordinates
EXTRN	?gGdiExOperate@@3VCGdiEx@@A:DWORD		; gGdiExOperate
; Function compile flags: /Odt
_TEXT	SEGMENT
_this$ = -20						; size = 4
_rect$ = -16						; size = 16
_nCheck$ = 8						; size = 4
?SetCheck@CSkinButton2@@QAEXH@Z PROC NEAR		; CSkinButton2::SetCheck
; _this$ = ecx

; 84   : {

  006a0	55		 push	 ebp
  006a1	8b ec		 mov	 ebp, esp
  006a3	83 ec 14	 sub	 esp, 20			; 00000014H
  006a6	89 4d ec	 mov	 DWORD PTR _this$[ebp], ecx

; 85   : 	m_bSelected = BOOL(nCheck);

  006a9	8b 45 ec	 mov	 eax, DWORD PTR _this$[ebp]
  006ac	8b 4d 08	 mov	 ecx, DWORD PTR _nCheck$[ebp]
  006af	89 88 84 00 00
	00		 mov	 DWORD PTR [eax+132], ecx

; 86   : 	if( !m_bSelected )

  006b5	8b 55 ec	 mov	 edx, DWORD PTR _this$[ebp]
  006b8	83 ba 84 00 00
	00 00		 cmp	 DWORD PTR [edx+132], 0
  006bf	75 0d		 jne	 SHORT $L197634

; 87   : 	{
; 88   : 		m_bMouseDown = false;

  006c1	8b 45 ec	 mov	 eax, DWORD PTR _this$[ebp]
  006c4	c7 80 88 00 00
	00 00 00 00 00	 mov	 DWORD PTR [eax+136], 0
$L197634:

; 89   : 	}
; 90   : 	this->RedrawWindow(NULL, NULL, RDW_INVALIDATE | RDW_UPDATENOW | RDW_ERASE | RDW_ALLCHILDREN);

  006ce	68 85 01 00 00	 push	 389			; 00000185H
  006d3	6a 00		 push	 0
  006d5	6a 00		 push	 0
  006d7	8b 4d ec	 mov	 ecx, DWORD PTR _this$[ebp]
  006da	e8 00 00 00 00	 call	 ?RedrawWindow@CWnd@@QAEHPBUtagRECT@@PAVCRgn@@I@Z ; CWnd::RedrawWindow

; 91   : 
; 92   : 	CRect rect;

  006df	8d 4d f0	 lea	 ecx, DWORD PTR _rect$[ebp]
  006e2	e8 00 00 00 00	 call	 ??0CRect@@QAE@XZ	; CRect::CRect

; 93   : 	gGdiExOperate.GetWindowRectInParentCoordinates( this->m_hWnd, &rect );

  006e7	8d 4d f0	 lea	 ecx, DWORD PTR _rect$[ebp]
  006ea	51		 push	 ecx
  006eb	8b 55 ec	 mov	 edx, DWORD PTR _this$[ebp]
  006ee	8b 42 20	 mov	 eax, DWORD PTR [edx+32]
  006f1	50		 push	 eax
  006f2	b9 00 00 00 00	 mov	 ecx, OFFSET FLAT:?gGdiExOperate@@3VCGdiEx@@A ; gGdiExOperate
  006f7	e8 00 00 00 00	 call	 ?GetWindowRectInParentCoordinates@CGdiEx@@QAEHPAUHWND__@@PAUtagRECT@@@Z ; CGdiEx::GetWindowRectInParentCoordinates

; 94   : 	this->GetParent()->InvalidateRect( &rect, TRUE );

  006fc	6a 01		 push	 1
  006fe	8d 4d f0	 lea	 ecx, DWORD PTR _rect$[ebp]
  00701	51		 push	 ecx
  00702	8b 4d ec	 mov	 ecx, DWORD PTR _this$[ebp]
  00705	e8 00 00 00 00	 call	 ?GetParent@CWnd@@QBEPAV1@XZ ; CWnd::GetParent
  0070a	8b c8		 mov	 ecx, eax
  0070c	e8 00 00 00 00	 call	 ?InvalidateRect@CWnd@@QAEXPBUtagRECT@@H@Z ; CWnd::InvalidateRect

; 95   : }

  00711	8b e5		 mov	 esp, ebp
  00713	5d		 pop	 ebp
  00714	c2 04 00	 ret	 4
?SetCheck@CSkinButton2@@QAEXH@Z ENDP			; CSkinButton2::SetCheck
_TEXT	ENDS
PUBLIC	?GetCheck@CSkinButton2@@QBEHXZ			; CSkinButton2::GetCheck
; Function compile flags: /Odt
_TEXT	SEGMENT
_this$ = -4						; size = 4
?GetCheck@CSkinButton2@@QBEHXZ PROC NEAR		; CSkinButton2::GetCheck
; _this$ = ecx

; 97   : {

  00720	55		 push	 ebp
  00721	8b ec		 mov	 ebp, esp
  00723	51		 push	 ecx
  00724	89 4d fc	 mov	 DWORD PTR _this$[ebp], ecx

; 98   : 	return (int)m_bSelected;

  00727	8b 45 fc	 mov	 eax, DWORD PTR _this$[ebp]
  0072a	8b 80 84 00 00
	00		 mov	 eax, DWORD PTR [eax+132]

; 99   : }

  00730	8b e5		 mov	 esp, ebp
  00732	5d		 pop	 ebp
  00733	c3		 ret	 0
?GetCheck@CSkinButton2@@QBEHXZ ENDP			; CSkinButton2::GetCheck
_TEXT	ENDS
PUBLIC	?Invalidate@CWnd@@QAEXH@Z			; CWnd::Invalidate
PUBLIC	??0CGdiPlusBitmap@@QAE@XZ			; CGdiPlusBitmap::CGdiPlusBitmap
PUBLIC	?Load@CGdiPlusBitmap@@QAE_NPB_W@Z		; CGdiPlusBitmap::Load
PUBLIC	?SetSkin@CSkinButton2@@QAEHV?$CStringT@DV?$StrTraitMFC_DLL@DV?$ChTraitsCRT@D@ATL@@@@@ATL@@H@Z ; CSkinButton2::SetSkin
EXTRN	___security_cookie:DWORD
EXTRN	@__security_check_cookie@4:NEAR
EXTRN	__imp_??B?$CSimpleStringT@D$00@ATL@@QBEPBDXZ:NEAR
EXTRN	??2@YAPAXI@Z:NEAR				; operator new
EXTRN	??3@YAXPAX@Z:NEAR				; operator delete
EXTRN	__imp__MultiByteToWideChar@24:NEAR
xdata$x	SEGMENT
$T198698 DD	0ffffffffH
	DD	FLAT:$L198690
	DD	00H
	DD	FLAT:$L198691
$T198693 DD	019930520H
	DD	02H
	DD	FLAT:$T198698
	DD	2 DUP(00H)
	DD	2 DUP(00H)
; Function compile flags: /Odt
xdata$x	ENDS
_TEXT	SEGMENT
tv83 = -572						; size = 4
tv74 = -568						; size = 4
_this$ = -564						; size = 4
$T198689 = -560						; size = 4
$T198686 = -556						; size = 4
$T198685 = -552						; size = 4
$T198682 = -548						; size = 4
$T198681 = -544						; size = 4
_wFile$ = -540						; size = 520
__$ArrayPad$ = -20					; size = 4
_bReturn$ = -13						; size = 1
__$EHRec$ = -12						; size = 12
__$ReturnAddr$ = 4					; size = 4
_str$ = 8						; size = 4
_bDisable$ = 12						; size = 4
?SetSkin@CSkinButton2@@QAEHV?$CStringT@DV?$StrTraitMFC_DLL@DV?$ChTraitsCRT@D@ATL@@@@@ATL@@H@Z PROC NEAR ; CSkinButton2::SetSkin
; _this$ = ecx

; 101  : {

  00740	55		 push	 ebp
  00741	8b ec		 mov	 ebp, esp
  00743	6a ff		 push	 -1
  00745	68 00 00 00 00	 push	 __ehhandler$?SetSkin@CSkinButton2@@QAEHV?$CStringT@DV?$StrTraitMFC_DLL@DV?$ChTraitsCRT@D@ATL@@@@@ATL@@H@Z
  0074a	64 a1 00 00 00
	00		 mov	 eax, DWORD PTR fs:__except_list
  00750	50		 push	 eax
  00751	64 89 25 00 00
	00 00		 mov	 DWORD PTR fs:__except_list, esp
  00758	81 ec 30 02 00
	00		 sub	 esp, 560		; 00000230H
  0075e	a1 00 00 00 00	 mov	 eax, DWORD PTR ___security_cookie
  00763	89 45 ec	 mov	 DWORD PTR __$ArrayPad$[ebp], eax
  00766	89 8d cc fd ff
	ff		 mov	 DWORD PTR _this$[ebp], ecx
  0076c	c7 45 fc 00 00
	00 00		 mov	 DWORD PTR __$EHRec$[ebp+8], 0

; 102  : 	if( m_pPngImage != NULL )

  00773	8b 85 cc fd ff
	ff		 mov	 eax, DWORD PTR _this$[ebp]
  00779	83 78 7c 00	 cmp	 DWORD PTR [eax+124], 0
  0077d	74 48		 je	 SHORT $L197645

; 103  : 		delete m_pPngImage;

  0077f	8b 8d cc fd ff
	ff		 mov	 ecx, DWORD PTR _this$[ebp]
  00785	8b 51 7c	 mov	 edx, DWORD PTR [ecx+124]
  00788	89 95 dc fd ff
	ff		 mov	 DWORD PTR $T198682[ebp], edx
  0078e	8b 85 dc fd ff
	ff		 mov	 eax, DWORD PTR $T198682[ebp]
  00794	89 85 e0 fd ff
	ff		 mov	 DWORD PTR $T198681[ebp], eax
  0079a	83 bd e0 fd ff
	ff 00		 cmp	 DWORD PTR $T198681[ebp], 0
  007a1	74 1a		 je	 SHORT $L198683
  007a3	6a 01		 push	 1
  007a5	8b 8d e0 fd ff
	ff		 mov	 ecx, DWORD PTR $T198681[ebp]
  007ab	8b 11		 mov	 edx, DWORD PTR [ecx]
  007ad	8b 8d e0 fd ff
	ff		 mov	 ecx, DWORD PTR $T198681[ebp]
  007b3	ff 12		 call	 DWORD PTR [edx]
  007b5	89 85 c8 fd ff
	ff		 mov	 DWORD PTR tv74[ebp], eax
  007bb	eb 0a		 jmp	 SHORT $L197645
$L198683:
  007bd	c7 85 c8 fd ff
	ff 00 00 00 00	 mov	 DWORD PTR tv74[ebp], 0
$L197645:

; 104  : 	m_pPngImage = new CGdiPlusBitmap;

  007c7	6a 08		 push	 8
  007c9	e8 00 00 00 00	 call	 ??2@YAPAXI@Z		; operator new
  007ce	83 c4 04	 add	 esp, 4
  007d1	89 85 d4 fd ff
	ff		 mov	 DWORD PTR $T198686[ebp], eax
  007d7	c6 45 fc 01	 mov	 BYTE PTR __$EHRec$[ebp+8], 1
  007db	83 bd d4 fd ff
	ff 00		 cmp	 DWORD PTR $T198686[ebp], 0
  007e2	74 13		 je	 SHORT $L198687
  007e4	8b 8d d4 fd ff
	ff		 mov	 ecx, DWORD PTR $T198686[ebp]
  007ea	e8 00 00 00 00	 call	 ??0CGdiPlusBitmap@@QAE@XZ ; CGdiPlusBitmap::CGdiPlusBitmap
  007ef	89 85 c4 fd ff
	ff		 mov	 DWORD PTR tv83[ebp], eax
  007f5	eb 0a		 jmp	 SHORT $L198688
$L198687:
  007f7	c7 85 c4 fd ff
	ff 00 00 00 00	 mov	 DWORD PTR tv83[ebp], 0
$L198688:
  00801	8b 85 c4 fd ff
	ff		 mov	 eax, DWORD PTR tv83[ebp]
  00807	89 85 d8 fd ff
	ff		 mov	 DWORD PTR $T198685[ebp], eax
  0080d	c6 45 fc 00	 mov	 BYTE PTR __$EHRec$[ebp+8], 0
  00811	8b 8d cc fd ff
	ff		 mov	 ecx, DWORD PTR _this$[ebp]
  00817	8b 95 d8 fd ff
	ff		 mov	 edx, DWORD PTR $T198685[ebp]
  0081d	89 51 7c	 mov	 DWORD PTR [ecx+124], edx

; 105  : 
; 106  : 	WCHAR   wFile[MAX_PATH];   
; 107  : #ifndef   UNICODE   
; 108  : 	MultiByteToWideChar(CP_ACP,   0,   LPCTSTR(str),   -1,   wFile,   MAX_PATH);   

  00820	68 04 01 00 00	 push	 260			; 00000104H
  00825	8d 85 e4 fd ff
	ff		 lea	 eax, DWORD PTR _wFile$[ebp]
  0082b	50		 push	 eax
  0082c	6a ff		 push	 -1
  0082e	8d 4d 08	 lea	 ecx, DWORD PTR _str$[ebp]
  00831	ff 15 00 00 00
	00		 call	 DWORD PTR __imp_??B?$CSimpleStringT@D$00@ATL@@QBEPBDXZ
  00837	50		 push	 eax
  00838	6a 00		 push	 0
  0083a	6a 00		 push	 0
  0083c	ff 15 00 00 00
	00		 call	 DWORD PTR __imp__MultiByteToWideChar@24

; 109  : #else   
; 110  : 	lstrcpy(wFile,   szFile);   
; 111  : #endif   
; 112  : 	bool bReturn = m_pPngImage->Load( wFile );

  00842	8d 8d e4 fd ff
	ff		 lea	 ecx, DWORD PTR _wFile$[ebp]
  00848	51		 push	 ecx
  00849	8b 95 cc fd ff
	ff		 mov	 edx, DWORD PTR _this$[ebp]
  0084f	8b 4a 7c	 mov	 ecx, DWORD PTR [edx+124]
  00852	e8 00 00 00 00	 call	 ?Load@CGdiPlusBitmap@@QAE_NPB_W@Z ; CGdiPlusBitmap::Load
  00857	88 45 f3	 mov	 BYTE PTR _bReturn$[ebp], al

; 113  : 	if( bReturn ) this->Invalidate();

  0085a	0f b6 45 f3	 movzx	 eax, BYTE PTR _bReturn$[ebp]
  0085e	85 c0		 test	 eax, eax
  00860	74 0d		 je	 SHORT $L197654
  00862	6a 01		 push	 1
  00864	8b 8d cc fd ff
	ff		 mov	 ecx, DWORD PTR _this$[ebp]
  0086a	e8 00 00 00 00	 call	 ?Invalidate@CWnd@@QAEXH@Z ; CWnd::Invalidate
$L197654:

; 114  : 
; 115  : 	m_bDisable = bDisable;

  0086f	8b 8d cc fd ff
	ff		 mov	 ecx, DWORD PTR _this$[ebp]
  00875	8b 55 0c	 mov	 edx, DWORD PTR _bDisable$[ebp]
  00878	89 91 84 01 00
	00		 mov	 DWORD PTR [ecx+388], edx

; 116  : 	return bReturn;

  0087e	0f b6 45 f3	 movzx	 eax, BYTE PTR _bReturn$[ebp]
  00882	89 85 d0 fd ff
	ff		 mov	 DWORD PTR $T198689[ebp], eax
  00888	c7 45 fc ff ff
	ff ff		 mov	 DWORD PTR __$EHRec$[ebp+8], -1
  0088f	8d 4d 08	 lea	 ecx, DWORD PTR _str$[ebp]
  00892	ff 15 00 00 00
	00		 call	 DWORD PTR __imp_??1?$CStringT@DV?$StrTraitMFC_DLL@DV?$ChTraitsCRT@D@ATL@@@@@ATL@@QAE@XZ
  00898	8b 85 d0 fd ff
	ff		 mov	 eax, DWORD PTR $T198689[ebp]

; 117  : }

  0089e	8b 4d f4	 mov	 ecx, DWORD PTR __$EHRec$[ebp]
  008a1	64 89 0d 00 00
	00 00		 mov	 DWORD PTR fs:__except_list, ecx
  008a8	8b 4d ec	 mov	 ecx, DWORD PTR __$ArrayPad$[ebp]
  008ab	e8 00 00 00 00	 call	 @__security_check_cookie@4
  008b0	8b e5		 mov	 esp, ebp
  008b2	5d		 pop	 ebp
  008b3	c2 08 00	 ret	 8
_TEXT	ENDS
text$x	SEGMENT
$L198690:
  0009b	8d 4d 08	 lea	 ecx, DWORD PTR _str$[ebp]
  0009e	ff 25 00 00 00
	00		 jmp	 DWORD PTR __imp_??1?$CStringT@DV?$StrTraitMFC_DLL@DV?$ChTraitsCRT@D@ATL@@@@@ATL@@QAE@XZ
$L198691:
  000a4	8b 85 d4 fd ff
	ff		 mov	 eax, DWORD PTR $T198686[ebp]
  000aa	50		 push	 eax
  000ab	e8 00 00 00 00	 call	 ??3@YAXPAX@Z		; operator delete
  000b0	59		 pop	 ecx
  000b1	c3		 ret	 0
__ehhandler$?SetSkin@CSkinButton2@@QAEHV?$CStringT@DV?$StrTraitMFC_DLL@DV?$ChTraitsCRT@D@ATL@@@@@ATL@@H@Z:
  000b2	b8 00 00 00 00	 mov	 eax, OFFSET FLAT:$T198693
  000b7	e9 00 00 00 00	 jmp	 ___CxxFrameHandler
text$x	ENDS
?SetSkin@CSkinButton2@@QAEHV?$CStringT@DV?$StrTraitMFC_DLL@DV?$ChTraitsCRT@D@ATL@@@@@ATL@@H@Z ENDP ; CSkinButton2::SetSkin
PUBLIC	??_R4CGdiPlusBitmap@@6B@			; CGdiPlusBitmap::`RTTI Complete Object Locator'
PUBLIC	??_R0?AVCGdiPlusBitmap@@@8			; CGdiPlusBitmap `RTTI Type Descriptor'
PUBLIC	??_R3CGdiPlusBitmap@@8				; CGdiPlusBitmap::`RTTI Class Hierarchy Descriptor'
PUBLIC	??_R2CGdiPlusBitmap@@8				; CGdiPlusBitmap::`RTTI Base Class Array'
PUBLIC	??_R1A@?0A@A@CGdiPlusBitmap@@8			; CGdiPlusBitmap::`RTTI Base Class Descriptor at (0,-1,0,0)'
PUBLIC	??_7CGdiPlusBitmap@@6B@				; CGdiPlusBitmap::`vftable'
PUBLIC	??_GCGdiPlusBitmap@@UAEPAXI@Z			; CGdiPlusBitmap::`scalar deleting destructor'
EXTRN	??_ECGdiPlusBitmap@@UAEPAXI@Z:NEAR		; CGdiPlusBitmap::`vector deleting destructor'
;	COMDAT ??_7CGdiPlusBitmap@@6B@
; File d:\boxgit\playbox\playbox\dev\prj\playbox\src\gui\commoncontrol\skinbutton2.h
CONST	SEGMENT
??_7CGdiPlusBitmap@@6B@ DD FLAT:??_R4CGdiPlusBitmap@@6B@ ; CGdiPlusBitmap::`vftable'
	DD	FLAT:??_ECGdiPlusBitmap@@UAEPAXI@Z
CONST	ENDS
;	COMDAT ??_R4CGdiPlusBitmap@@6B@
rdata$r	SEGMENT
??_R4CGdiPlusBitmap@@6B@ DD 00H				; CGdiPlusBitmap::`RTTI Complete Object Locator'
	DD	00H
	DD	00H
	DD	FLAT:??_R0?AVCGdiPlusBitmap@@@8
	DD	FLAT:??_R3CGdiPlusBitmap@@8
rdata$r	ENDS
;	COMDAT ??_R0?AVCGdiPlusBitmap@@@8
_DATA	SEGMENT
??_R0?AVCGdiPlusBitmap@@@8 DD FLAT:??_7type_info@@6B@	; CGdiPlusBitmap `RTTI Type Descriptor'
	DD	00H
	DB	'.?AVCGdiPlusBitmap@@', 00H
_DATA	ENDS
;	COMDAT ??_R3CGdiPlusBitmap@@8
rdata$r	SEGMENT
??_R3CGdiPlusBitmap@@8 DD 00H				; CGdiPlusBitmap::`RTTI Class Hierarchy Descriptor'
	DD	00H
	DD	01H
	DD	FLAT:??_R2CGdiPlusBitmap@@8
rdata$r	ENDS
;	COMDAT ??_R2CGdiPlusBitmap@@8
rdata$r	SEGMENT
??_R2CGdiPlusBitmap@@8 DD FLAT:??_R1A@?0A@A@CGdiPlusBitmap@@8 ; CGdiPlusBitmap::`RTTI Base Class Array'
rdata$r	ENDS
;	COMDAT ??_R1A@?0A@A@CGdiPlusBitmap@@8
rdata$r	SEGMENT
??_R1A@?0A@A@CGdiPlusBitmap@@8 DD FLAT:??_R0?AVCGdiPlusBitmap@@@8 ; CGdiPlusBitmap::`RTTI Base Class Descriptor at (0,-1,0,0)'
	DD	00H
	DD	00H
	DD	0ffffffffH
	DD	00H
	DD	00H
; Function compile flags: /Odt
rdata$r	ENDS
;	COMDAT ??0CGdiPlusBitmap@@QAE@XZ
_TEXT	SEGMENT
_this$ = -4						; size = 4
??0CGdiPlusBitmap@@QAE@XZ PROC NEAR			; CGdiPlusBitmap::CGdiPlusBitmap, COMDAT
; _this$ = ecx

; 13   : 	CGdiPlusBitmap()							{ m_pBitmap = NULL; }

  00000	55		 push	 ebp
  00001	8b ec		 mov	 ebp, esp
  00003	51		 push	 ecx
  00004	89 4d fc	 mov	 DWORD PTR _this$[ebp], ecx
  00007	8b 45 fc	 mov	 eax, DWORD PTR _this$[ebp]
  0000a	c7 00 00 00 00
	00		 mov	 DWORD PTR [eax], OFFSET FLAT:??_7CGdiPlusBitmap@@6B@
  00010	8b 4d fc	 mov	 ecx, DWORD PTR _this$[ebp]
  00013	c7 41 04 00 00
	00 00		 mov	 DWORD PTR [ecx+4], 0
  0001a	8b 45 fc	 mov	 eax, DWORD PTR _this$[ebp]
  0001d	8b e5		 mov	 esp, ebp
  0001f	5d		 pop	 ebp
  00020	c3		 ret	 0
??0CGdiPlusBitmap@@QAE@XZ ENDP				; CGdiPlusBitmap::CGdiPlusBitmap
_TEXT	ENDS
PUBLIC	?GetLastStatus@Image@Gdiplus@@QBE?AW4Status@2@XZ ; Gdiplus::Image::GetLastStatus
PUBLIC	?FromFile@Bitmap@Gdiplus@@SAPAV12@PB_WH@Z	; Gdiplus::Bitmap::FromFile
PUBLIC	?Empty@CGdiPlusBitmap@@QAEXXZ			; CGdiPlusBitmap::Empty
; Function compile flags: /Odt
;	COMDAT ?Load@CGdiPlusBitmap@@QAE_NPB_W@Z
_TEXT	SEGMENT
_this$ = -4						; size = 4
_pFile$ = 8						; size = 4
?Load@CGdiPlusBitmap@@QAE_NPB_W@Z PROC NEAR		; CGdiPlusBitmap::Load, COMDAT
; _this$ = ecx

; 20   : 	{

  00000	55		 push	 ebp
  00001	8b ec		 mov	 ebp, esp
  00003	51		 push	 ecx
  00004	89 4d fc	 mov	 DWORD PTR _this$[ebp], ecx

; 21   : 		
; 22   : 		Empty();

  00007	8b 4d fc	 mov	 ecx, DWORD PTR _this$[ebp]
  0000a	e8 00 00 00 00	 call	 ?Empty@CGdiPlusBitmap@@QAEXXZ ; CGdiPlusBitmap::Empty

; 23   : 		m_pBitmap = Gdiplus::Bitmap::FromFile(pFile);

  0000f	6a 00		 push	 0
  00011	8b 45 08	 mov	 eax, DWORD PTR _pFile$[ebp]
  00014	50		 push	 eax
  00015	e8 00 00 00 00	 call	 ?FromFile@Bitmap@Gdiplus@@SAPAV12@PB_WH@Z ; Gdiplus::Bitmap::FromFile
  0001a	83 c4 08	 add	 esp, 8
  0001d	8b 4d fc	 mov	 ecx, DWORD PTR _this$[ebp]
  00020	89 41 04	 mov	 DWORD PTR [ecx+4], eax

; 24   : 		return m_pBitmap->GetLastStatus() == Gdiplus::Ok;

  00023	8b 55 fc	 mov	 edx, DWORD PTR _this$[ebp]
  00026	8b 4a 04	 mov	 ecx, DWORD PTR [edx+4]
  00029	e8 00 00 00 00	 call	 ?GetLastStatus@Image@Gdiplus@@QBE?AW4Status@2@XZ ; Gdiplus::Image::GetLastStatus
  0002e	f7 d8		 neg	 eax
  00030	1b c0		 sbb	 eax, eax
  00032	40		 inc	 eax

; 25   : 	}

  00033	8b e5		 mov	 esp, ebp
  00035	5d		 pop	 ebp
  00036	c2 04 00	 ret	 4
?Load@CGdiPlusBitmap@@QAE_NPB_W@Z ENDP			; CGdiPlusBitmap::Load
; Function compile flags: /Odt
_TEXT	ENDS
;	COMDAT ?Empty@CGdiPlusBitmap@@QAEXXZ
_TEXT	SEGMENT
tv71 = -16						; size = 4
_this$ = -12						; size = 4
$T198705 = -8						; size = 4
$T198704 = -4						; size = 4
?Empty@CGdiPlusBitmap@@QAEXXZ PROC NEAR			; CGdiPlusBitmap::Empty, COMDAT
; _this$ = ecx

; 17   : 	void Empty()								{ delete m_pBitmap; m_pBitmap = NULL; }

  00000	55		 push	 ebp
  00001	8b ec		 mov	 ebp, esp
  00003	83 ec 10	 sub	 esp, 16			; 00000010H
  00006	89 4d f4	 mov	 DWORD PTR _this$[ebp], ecx
  00009	8b 45 f4	 mov	 eax, DWORD PTR _this$[ebp]
  0000c	8b 48 04	 mov	 ecx, DWORD PTR [eax+4]
  0000f	89 4d f8	 mov	 DWORD PTR $T198705[ebp], ecx
  00012	8b 55 f8	 mov	 edx, DWORD PTR $T198705[ebp]
  00015	89 55 fc	 mov	 DWORD PTR $T198704[ebp], edx
  00018	83 7d fc 00	 cmp	 DWORD PTR $T198704[ebp], 0
  0001c	74 11		 je	 SHORT $L198706
  0001e	6a 01		 push	 1
  00020	8b 45 fc	 mov	 eax, DWORD PTR $T198704[ebp]
  00023	8b 10		 mov	 edx, DWORD PTR [eax]
  00025	8b 4d fc	 mov	 ecx, DWORD PTR $T198704[ebp]
  00028	ff 12		 call	 DWORD PTR [edx]
  0002a	89 45 f0	 mov	 DWORD PTR tv71[ebp], eax
  0002d	eb 07		 jmp	 SHORT $L198707
$L198706:
  0002f	c7 45 f0 00 00
	00 00		 mov	 DWORD PTR tv71[ebp], 0
$L198707:
  00036	8b 45 f4	 mov	 eax, DWORD PTR _this$[ebp]
  00039	c7 40 04 00 00
	00 00		 mov	 DWORD PTR [eax+4], 0
  00040	8b e5		 mov	 esp, ebp
  00042	5d		 pop	 ebp
  00043	c3		 ret	 0
?Empty@CGdiPlusBitmap@@QAEXXZ ENDP			; CGdiPlusBitmap::Empty
_TEXT	ENDS
PUBLIC	??1CGdiPlusBitmap@@UAE@XZ			; CGdiPlusBitmap::~CGdiPlusBitmap
; Function compile flags: /Odt
;	COMDAT ??_GCGdiPlusBitmap@@UAEPAXI@Z
_TEXT	SEGMENT
_this$ = -4						; size = 4
___flags$ = 8						; size = 4
??_GCGdiPlusBitmap@@UAEPAXI@Z PROC NEAR			; CGdiPlusBitmap::`scalar deleting destructor', COMDAT
; _this$ = ecx
  00000	55		 push	 ebp
  00001	8b ec		 mov	 ebp, esp
  00003	51		 push	 ecx
  00004	89 4d fc	 mov	 DWORD PTR _this$[ebp], ecx
  00007	8b 4d fc	 mov	 ecx, DWORD PTR _this$[ebp]
  0000a	e8 00 00 00 00	 call	 ??1CGdiPlusBitmap@@UAE@XZ ; CGdiPlusBitmap::~CGdiPlusBitmap
  0000f	8b 45 08	 mov	 eax, DWORD PTR ___flags$[ebp]
  00012	83 e0 01	 and	 eax, 1
  00015	74 0c		 je	 SHORT $L197405
  00017	8b 4d fc	 mov	 ecx, DWORD PTR _this$[ebp]
  0001a	51		 push	 ecx
  0001b	e8 00 00 00 00	 call	 ??3@YAXPAX@Z		; operator delete
  00020	83 c4 04	 add	 esp, 4
$L197405:
  00023	8b 45 fc	 mov	 eax, DWORD PTR _this$[ebp]
  00026	8b e5		 mov	 esp, ebp
  00028	5d		 pop	 ebp
  00029	c2 04 00	 ret	 4
??_GCGdiPlusBitmap@@UAEPAXI@Z ENDP			; CGdiPlusBitmap::`scalar deleting destructor'
; Function compile flags: /Odt
_TEXT	ENDS
;	COMDAT ??1CGdiPlusBitmap@@UAE@XZ
_TEXT	SEGMENT
_this$ = -4						; size = 4
??1CGdiPlusBitmap@@UAE@XZ PROC NEAR			; CGdiPlusBitmap::~CGdiPlusBitmap, COMDAT
; _this$ = ecx

; 15   : 	virtual ~CGdiPlusBitmap()					{ Empty(); }

  00000	55		 push	 ebp
  00001	8b ec		 mov	 ebp, esp
  00003	51		 push	 ecx
  00004	89 4d fc	 mov	 DWORD PTR _this$[ebp], ecx
  00007	8b 45 fc	 mov	 eax, DWORD PTR _this$[ebp]
  0000a	c7 00 00 00 00
	00		 mov	 DWORD PTR [eax], OFFSET FLAT:??_7CGdiPlusBitmap@@6B@
  00010	8b 4d fc	 mov	 ecx, DWORD PTR _this$[ebp]
  00013	e8 00 00 00 00	 call	 ?Empty@CGdiPlusBitmap@@QAEXXZ ; CGdiPlusBitmap::Empty
  00018	8b e5		 mov	 esp, ebp
  0001a	5d		 pop	 ebp
  0001b	c3		 ret	 0
??1CGdiPlusBitmap@@UAE@XZ ENDP				; CGdiPlusBitmap::~CGdiPlusBitmap
_TEXT	ENDS
PUBLIC	?GetWindowRect@CWnd@@QBEXPAUtagRECT@@@Z		; CWnd::GetWindowRect
PUBLIC	?GetClientRect@CWnd@@QBEXPAUtagRECT@@@Z		; CWnd::GetClientRect
PUBLIC	?CreateCompatibleDC@CDC@@QAEHPAV1@@Z		; CDC::CreateCompatibleDC
PUBLIC	?SelectObject@CDC@@QAEPAVCBitmap@@PAV2@@Z	; CDC::SelectObject
PUBLIC	?Width@CRect@@QBEHXZ				; CRect::Width
PUBLIC	?Height@CRect@@QBEHXZ				; CRect::Height
PUBLIC	??BCRect@@QAEPAUtagRECT@@XZ			; CRect::operator tagRECT *
PUBLIC	?BitBlt@CDC@@QAEHHHHHPAV1@HHK@Z			; CDC::BitBlt
PUBLIC	?SetBkGround@CSkinButton2@@QAEXPAVCDC@@@Z	; CSkinButton2::SetBkGround
PUBLIC	??0CBitmap@@QAE@XZ				; CBitmap::CBitmap
PUBLIC	?CreateCompatibleBitmap@CBitmap@@QAEHPAVCDC@@HH@Z ; CBitmap::CreateCompatibleBitmap
PUBLIC	??1CBitmap@@UAE@XZ				; CBitmap::~CBitmap
EXTRN	?ScreenToClient@CWnd@@QBEXPAUtagRECT@@@Z:NEAR	; CWnd::ScreenToClient
EXTRN	?DeleteDC@CDC@@QAEHXZ:NEAR			; CDC::DeleteDC
EXTRN	?DeleteObject@CGdiObject@@QAEHXZ:NEAR		; CGdiObject::DeleteObject
xdata$x	SEGMENT
$T198718 DD	0ffffffffH
	DD	FLAT:$L198714
$T198716 DD	019930520H
	DD	01H
	DD	FLAT:$T198718
	DD	2 DUP(00H)
	DD	2 DUP(00H)
; Function compile flags: /Odt
; File d:\boxgit\playbox\playbox\dev\prj\playbox\src\gui\commoncontrol\skinbutton2.cpp
xdata$x	ENDS
_TEXT	SEGMENT
_this$ = -60						; size = 4
_rectS$ = -56						; size = 16
_bmp$ = -40						; size = 8
_rect$ = -32						; size = 16
_pOldBitmap$ = -16					; size = 4
__$EHRec$ = -12						; size = 12
_pDC$ = 8						; size = 4
?SetBkGround@CSkinButton2@@QAEXPAVCDC@@@Z PROC NEAR	; CSkinButton2::SetBkGround
; _this$ = ecx

; 119  : {

  008c0	55		 push	 ebp
  008c1	8b ec		 mov	 ebp, esp
  008c3	6a ff		 push	 -1
  008c5	68 00 00 00 00	 push	 __ehhandler$?SetBkGround@CSkinButton2@@QAEXPAVCDC@@@Z
  008ca	64 a1 00 00 00
	00		 mov	 eax, DWORD PTR fs:__except_list
  008d0	50		 push	 eax
  008d1	64 89 25 00 00
	00 00		 mov	 DWORD PTR fs:__except_list, esp
  008d8	83 ec 30	 sub	 esp, 48			; 00000030H
  008db	89 4d c4	 mov	 DWORD PTR _this$[ebp], ecx

; 120  : 	CRect rect, rectS;

  008de	8d 4d e0	 lea	 ecx, DWORD PTR _rect$[ebp]
  008e1	e8 00 00 00 00	 call	 ??0CRect@@QAE@XZ	; CRect::CRect
  008e6	8d 4d c8	 lea	 ecx, DWORD PTR _rectS$[ebp]
  008e9	e8 00 00 00 00	 call	 ??0CRect@@QAE@XZ	; CRect::CRect

; 121  : 	CBitmap bmp, *pOldBitmap;

  008ee	8d 4d d8	 lea	 ecx, DWORD PTR _bmp$[ebp]
  008f1	e8 00 00 00 00	 call	 ??0CBitmap@@QAE@XZ	; CBitmap::CBitmap
  008f6	c7 45 fc 00 00
	00 00		 mov	 DWORD PTR __$EHRec$[ebp+8], 0

; 122  : 
; 123  : 	GetClientRect(rect);

  008fd	8d 4d e0	 lea	 ecx, DWORD PTR _rect$[ebp]
  00900	e8 00 00 00 00	 call	 ??BCRect@@QAEPAUtagRECT@@XZ ; CRect::operator tagRECT *
  00905	50		 push	 eax
  00906	8b 4d c4	 mov	 ecx, DWORD PTR _this$[ebp]
  00909	e8 00 00 00 00	 call	 ?GetClientRect@CWnd@@QBEXPAUtagRECT@@@Z ; CWnd::GetClientRect

; 124  : 	GetWindowRect(rectS);

  0090e	8d 4d c8	 lea	 ecx, DWORD PTR _rectS$[ebp]
  00911	e8 00 00 00 00	 call	 ??BCRect@@QAEPAUtagRECT@@XZ ; CRect::operator tagRECT *
  00916	50		 push	 eax
  00917	8b 4d c4	 mov	 ecx, DWORD PTR _this$[ebp]
  0091a	e8 00 00 00 00	 call	 ?GetWindowRect@CWnd@@QBEXPAUtagRECT@@@Z ; CWnd::GetWindowRect

; 125  : 	GetParent()->ScreenToClient(rectS);

  0091f	8d 4d c8	 lea	 ecx, DWORD PTR _rectS$[ebp]
  00922	e8 00 00 00 00	 call	 ??BCRect@@QAEPAUtagRECT@@XZ ; CRect::operator tagRECT *
  00927	50		 push	 eax
  00928	8b 4d c4	 mov	 ecx, DWORD PTR _this$[ebp]
  0092b	e8 00 00 00 00	 call	 ?GetParent@CWnd@@QBEPAV1@XZ ; CWnd::GetParent
  00930	8b c8		 mov	 ecx, eax
  00932	e8 00 00 00 00	 call	 ?ScreenToClient@CWnd@@QBEXPAUtagRECT@@@Z ; CWnd::ScreenToClient

; 126  : 
; 127  : 	m_dcBk.DeleteDC();

  00937	8b 4d c4	 mov	 ecx, DWORD PTR _this$[ebp]
  0093a	81 c1 8c 00 00
	00		 add	 ecx, 140		; 0000008cH
  00940	e8 00 00 00 00	 call	 ?DeleteDC@CDC@@QAEHXZ	; CDC::DeleteDC

; 128  : 
; 129  : 	m_dcBk.CreateCompatibleDC(pDC);

  00945	8b 45 08	 mov	 eax, DWORD PTR _pDC$[ebp]
  00948	50		 push	 eax
  00949	8b 4d c4	 mov	 ecx, DWORD PTR _this$[ebp]
  0094c	81 c1 8c 00 00
	00		 add	 ecx, 140		; 0000008cH
  00952	e8 00 00 00 00	 call	 ?CreateCompatibleDC@CDC@@QAEHPAV1@@Z ; CDC::CreateCompatibleDC

; 130  : 	bmp.CreateCompatibleBitmap(pDC, rect.Width(), rect.Height());

  00957	8d 4d e0	 lea	 ecx, DWORD PTR _rect$[ebp]
  0095a	e8 00 00 00 00	 call	 ?Height@CRect@@QBEHXZ	; CRect::Height
  0095f	50		 push	 eax
  00960	8d 4d e0	 lea	 ecx, DWORD PTR _rect$[ebp]
  00963	e8 00 00 00 00	 call	 ?Width@CRect@@QBEHXZ	; CRect::Width
  00968	50		 push	 eax
  00969	8b 4d 08	 mov	 ecx, DWORD PTR _pDC$[ebp]
  0096c	51		 push	 ecx
  0096d	8d 4d d8	 lea	 ecx, DWORD PTR _bmp$[ebp]
  00970	e8 00 00 00 00	 call	 ?CreateCompatibleBitmap@CBitmap@@QAEHPAVCDC@@HH@Z ; CBitmap::CreateCompatibleBitmap

; 131  : 	pOldBitmap = m_dcBk.SelectObject(&bmp);

  00975	8d 55 d8	 lea	 edx, DWORD PTR _bmp$[ebp]
  00978	52		 push	 edx
  00979	8b 4d c4	 mov	 ecx, DWORD PTR _this$[ebp]
  0097c	81 c1 8c 00 00
	00		 add	 ecx, 140		; 0000008cH
  00982	e8 00 00 00 00	 call	 ?SelectObject@CDC@@QAEPAVCBitmap@@PAV2@@Z ; CDC::SelectObject
  00987	89 45 f0	 mov	 DWORD PTR _pOldBitmap$[ebp], eax

; 132  : 	m_dcBk.BitBlt(0, 0, rect.Width(), rect.Height(), pDC, rectS.left, rectS.top, SRCCOPY);

  0098a	68 20 00 cc 00	 push	 13369376		; 00cc0020H
  0098f	8b 45 cc	 mov	 eax, DWORD PTR _rectS$[ebp+4]
  00992	50		 push	 eax
  00993	8b 4d c8	 mov	 ecx, DWORD PTR _rectS$[ebp]
  00996	51		 push	 ecx
  00997	8b 55 08	 mov	 edx, DWORD PTR _pDC$[ebp]
  0099a	52		 push	 edx
  0099b	8d 4d e0	 lea	 ecx, DWORD PTR _rect$[ebp]
  0099e	e8 00 00 00 00	 call	 ?Height@CRect@@QBEHXZ	; CRect::Height
  009a3	50		 push	 eax
  009a4	8d 4d e0	 lea	 ecx, DWORD PTR _rect$[ebp]
  009a7	e8 00 00 00 00	 call	 ?Width@CRect@@QBEHXZ	; CRect::Width
  009ac	50		 push	 eax
  009ad	6a 00		 push	 0
  009af	6a 00		 push	 0
  009b1	8b 4d c4	 mov	 ecx, DWORD PTR _this$[ebp]
  009b4	81 c1 8c 00 00
	00		 add	 ecx, 140		; 0000008cH
  009ba	e8 00 00 00 00	 call	 ?BitBlt@CDC@@QAEHHHHHPAV1@HHK@Z ; CDC::BitBlt

; 133  : 	bmp.DeleteObject();

  009bf	8d 4d d8	 lea	 ecx, DWORD PTR _bmp$[ebp]
  009c2	e8 00 00 00 00	 call	 ?DeleteObject@CGdiObject@@QAEHXZ ; CGdiObject::DeleteObject

; 134  : 	Invalidate(true);

  009c7	6a 01		 push	 1
  009c9	8b 4d c4	 mov	 ecx, DWORD PTR _this$[ebp]
  009cc	e8 00 00 00 00	 call	 ?Invalidate@CWnd@@QAEXH@Z ; CWnd::Invalidate

; 135  : }

  009d1	c7 45 fc ff ff
	ff ff		 mov	 DWORD PTR __$EHRec$[ebp+8], -1
  009d8	8d 4d d8	 lea	 ecx, DWORD PTR _bmp$[ebp]
  009db	e8 00 00 00 00	 call	 ??1CBitmap@@UAE@XZ	; CBitmap::~CBitmap
  009e0	8b 4d f4	 mov	 ecx, DWORD PTR __$EHRec$[ebp]
  009e3	64 89 0d 00 00
	00 00		 mov	 DWORD PTR fs:__except_list, ecx
  009ea	8b e5		 mov	 esp, ebp
  009ec	5d		 pop	 ebp
  009ed	c2 04 00	 ret	 4
_TEXT	ENDS
text$x	SEGMENT
$L198714:
  000bc	8d 4d d8	 lea	 ecx, DWORD PTR _bmp$[ebp]
  000bf	e9 00 00 00 00	 jmp	 ??1CBitmap@@UAE@XZ	; CBitmap::~CBitmap
__ehhandler$?SetBkGround@CSkinButton2@@QAEXPAVCDC@@@Z:
  000c4	b8 00 00 00 00	 mov	 eax, OFFSET FLAT:$T198716
  000c9	e9 00 00 00 00	 jmp	 ___CxxFrameHandler
text$x	ENDS
?SetBkGround@CSkinButton2@@QAEXPAVCDC@@@Z ENDP		; CSkinButton2::SetBkGround
; Function compile flags: /Odt
_TEXT	SEGMENT
_this$ = -4						; size = 4
_pDC$ = 8						; size = 4
?OnEraseBkgnd@CSkinButton2@@QAEHPAVCDC@@@Z PROC NEAR	; CSkinButton2::OnEraseBkgnd
; _this$ = ecx

; 137  : {

  009f0	55		 push	 ebp
  009f1	8b ec		 mov	 ebp, esp
  009f3	51		 push	 ecx
  009f4	89 4d fc	 mov	 DWORD PTR _this$[ebp], ecx

; 138  : 	// TODO: /
; 139  : 
; 140  : 	return TRUE;//CButton::OnEraseBkgnd(pDC);

  009f7	b8 01 00 00 00	 mov	 eax, 1

; 141  : }

  009fc	8b e5		 mov	 esp, ebp
  009fe	5d		 pop	 ebp
  009ff	c2 04 00	 ret	 4
?OnEraseBkgnd@CSkinButton2@@QAEHPAVCDC@@@Z ENDP		; CSkinButton2::OnEraseBkgnd
_TEXT	ENDS
PUBLIC	?ClientToScreen@CWnd@@QBEXPAUtagPOINT@@@Z	; CWnd::ClientToScreen
PUBLIC	?SendMouseMessageToParent@CSkinButton2@@QAEXIIVCPoint@@@Z ; CSkinButton2::SendMouseMessageToParent
EXTRN	__imp__SendMessageA@16:NEAR
EXTRN	__imp__ScreenToClient@8:NEAR
; Function compile flags: /Odt
_TEXT	SEGMENT
_this$ = -12						; size = 4
_wParam$ = -8						; size = 4
_lParam$ = -4						; size = 4
_msg$ = 8						; size = 4
_nFlags$ = 12						; size = 4
_point$ = 16						; size = 8
?SendMouseMessageToParent@CSkinButton2@@QAEXIIVCPoint@@@Z PROC NEAR ; CSkinButton2::SendMouseMessageToParent
; _this$ = ecx

; 144  : {

  00a10	55		 push	 ebp
  00a11	8b ec		 mov	 ebp, esp
  00a13	83 ec 0c	 sub	 esp, 12			; 0000000cH
  00a16	89 4d f4	 mov	 DWORD PTR _this$[ebp], ecx

; 145  : 	WPARAM wParam;
; 146  : 	LPARAM lParam;
; 147  : 
; 148  : 	ClientToScreen( &point);

  00a19	8d 45 10	 lea	 eax, DWORD PTR _point$[ebp]
  00a1c	50		 push	 eax
  00a1d	8b 4d f4	 mov	 ecx, DWORD PTR _this$[ebp]
  00a20	e8 00 00 00 00	 call	 ?ClientToScreen@CWnd@@QBEXPAUtagPOINT@@@Z ; CWnd::ClientToScreen

; 149  : 	::ScreenToClient( GetParent()->m_hWnd,&point );

  00a25	8d 4d 10	 lea	 ecx, DWORD PTR _point$[ebp]
  00a28	51		 push	 ecx
  00a29	8b 4d f4	 mov	 ecx, DWORD PTR _this$[ebp]
  00a2c	e8 00 00 00 00	 call	 ?GetParent@CWnd@@QBEPAV1@XZ ; CWnd::GetParent
  00a31	8b 50 20	 mov	 edx, DWORD PTR [eax+32]
  00a34	52		 push	 edx
  00a35	ff 15 00 00 00
	00		 call	 DWORD PTR __imp__ScreenToClient@8

; 150  : 
; 151  : 	wParam = nFlags;

  00a3b	8b 45 0c	 mov	 eax, DWORD PTR _nFlags$[ebp]
  00a3e	89 45 f8	 mov	 DWORD PTR _wParam$[ebp], eax

; 152  : 	lParam = (WORD)point.x;

  00a41	0f b7 4d 10	 movzx	 ecx, WORD PTR _point$[ebp]
  00a45	89 4d fc	 mov	 DWORD PTR _lParam$[ebp], ecx

; 153  : 	lParam += ((WORD)point.y) << 16;		

  00a48	0f b7 55 14	 movzx	 edx, WORD PTR _point$[ebp+4]
  00a4c	c1 e2 10	 shl	 edx, 16			; 00000010H
  00a4f	03 55 fc	 add	 edx, DWORD PTR _lParam$[ebp]
  00a52	89 55 fc	 mov	 DWORD PTR _lParam$[ebp], edx

; 154  : 	::SendMessage(this->GetParent()->m_hWnd,msg, wParam,lParam );	

  00a55	8b 45 fc	 mov	 eax, DWORD PTR _lParam$[ebp]
  00a58	50		 push	 eax
  00a59	8b 4d f8	 mov	 ecx, DWORD PTR _wParam$[ebp]
  00a5c	51		 push	 ecx
  00a5d	8b 55 08	 mov	 edx, DWORD PTR _msg$[ebp]
  00a60	52		 push	 edx
  00a61	8b 4d f4	 mov	 ecx, DWORD PTR _this$[ebp]
  00a64	e8 00 00 00 00	 call	 ?GetParent@CWnd@@QBEPAV1@XZ ; CWnd::GetParent
  00a69	8b 40 20	 mov	 eax, DWORD PTR [eax+32]
  00a6c	50		 push	 eax
  00a6d	ff 15 00 00 00
	00		 call	 DWORD PTR __imp__SendMessageA@16

; 155  : }

  00a73	8b e5		 mov	 esp, ebp
  00a75	5d		 pop	 ebp
  00a76	c2 10 00	 ret	 16			; 00000010H
?SendMouseMessageToParent@CSkinButton2@@QAEXIIVCPoint@@@Z ENDP ; CSkinButton2::SendMouseMessageToParent
_TEXT	ENDS
EXTRN	?ModifyStyle@CWnd@@QAEHKKI@Z:NEAR		; CWnd::ModifyStyle
EXTRN	?PreSubclassWindow@CWnd@@UAEXXZ:NEAR		; CWnd::PreSubclassWindow
; Function compile flags: /Odt
_TEXT	SEGMENT
_this$ = -4						; size = 4
?PreSubclassWindow@CSkinButton2@@MAEXXZ PROC NEAR	; CSkinButton2::PreSubclassWindow
; _this$ = ecx

; 158  : {

  00a80	55		 push	 ebp
  00a81	8b ec		 mov	 ebp, esp
  00a83	51		 push	 ecx
  00a84	89 4d fc	 mov	 DWORD PTR _this$[ebp], ecx

; 159  : 	ModifyStyle(0, BS_OWNERDRAW);

  00a87	6a 00		 push	 0
  00a89	6a 0b		 push	 11			; 0000000bH
  00a8b	6a 00		 push	 0
  00a8d	8b 4d fc	 mov	 ecx, DWORD PTR _this$[ebp]
  00a90	e8 00 00 00 00	 call	 ?ModifyStyle@CWnd@@QAEHKKI@Z ; CWnd::ModifyStyle

; 160  : 
; 161  : 	CButton::PreSubclassWindow();

  00a95	8b 4d fc	 mov	 ecx, DWORD PTR _this$[ebp]
  00a98	e8 00 00 00 00	 call	 ?PreSubclassWindow@CWnd@@UAEXXZ ; CWnd::PreSubclassWindow

; 162  : }

  00a9d	8b e5		 mov	 esp, ebp
  00a9f	5d		 pop	 ebp
  00aa0	c3		 ret	 0
?PreSubclassWindow@CSkinButton2@@MAEXXZ ENDP		; CSkinButton2::PreSubclassWindow
_TEXT	ENDS
PUBLIC	?PtInRect@CRect@@QBEHUtagPOINT@@@Z		; CRect::PtInRect
PUBLIC	?OnMouseMove@CWnd@@IAEXIVCPoint@@@Z		; CWnd::OnMouseMove
EXTRN	?IsWindowEnabled@CWnd@@QBEHXZ:NEAR		; CWnd::IsWindowEnabled
EXTRN	__imp__SetCursor@4:NEAR
EXTRN	__imp___TrackMouseEvent@4:NEAR
EXTRN	__imp__LoadCursorA@8:NEAR
; Function compile flags: /Odt
_TEXT	SEGMENT
_this$ = -28						; size = 4
$T198723 = -24						; size = 8
_tme$197694 = -16					; size = 16
_nFlags$ = 8						; size = 4
_point$ = 12						; size = 8
?OnMouseMove@CSkinButton2@@QAEXIVCPoint@@@Z PROC NEAR	; CSkinButton2::OnMouseMove
; _this$ = ecx

; 164  : {

  00ab0	55		 push	 ebp
  00ab1	8b ec		 mov	 ebp, esp
  00ab3	83 ec 1c	 sub	 esp, 28			; 0000001cH
  00ab6	89 4d e4	 mov	 DWORD PTR _this$[ebp], ecx

; 165  : 	if(m_bUseResponseRect && !m_rcResponse.PtInRect(point))

  00ab9	8b 45 e4	 mov	 eax, DWORD PTR _this$[ebp]
  00abc	83 78 70 00	 cmp	 DWORD PTR [eax+112], 0
  00ac0	74 41		 je	 SHORT $L197688
  00ac2	8b 4d 0c	 mov	 ecx, DWORD PTR _point$[ebp]
  00ac5	89 4d e8	 mov	 DWORD PTR $T198723[ebp], ecx
  00ac8	8b 55 10	 mov	 edx, DWORD PTR _point$[ebp+4]
  00acb	89 55 ec	 mov	 DWORD PTR $T198723[ebp+4], edx
  00ace	8b 45 ec	 mov	 eax, DWORD PTR $T198723[ebp+4]
  00ad1	50		 push	 eax
  00ad2	8b 4d e8	 mov	 ecx, DWORD PTR $T198723[ebp]
  00ad5	51		 push	 ecx
  00ad6	8b 4d e4	 mov	 ecx, DWORD PTR _this$[ebp]
  00ad9	83 c1 60	 add	 ecx, 96			; 00000060H
  00adc	e8 00 00 00 00	 call	 ?PtInRect@CRect@@QBEHUtagPOINT@@@Z ; CRect::PtInRect
  00ae1	85 c0		 test	 eax, eax
  00ae3	75 1e		 jne	 SHORT $L197688

; 166  : 	{
; 167  : 		//CButton::OnMouseMove(nFlags, point);
; 168  : 		SendMouseMessageToParent(WM_MOUSEMOVE, nFlags, point);

  00ae5	8b 55 10	 mov	 edx, DWORD PTR _point$[ebp+4]
  00ae8	52		 push	 edx
  00ae9	8b 45 0c	 mov	 eax, DWORD PTR _point$[ebp]
  00aec	50		 push	 eax
  00aed	8b 4d 08	 mov	 ecx, DWORD PTR _nFlags$[ebp]
  00af0	51		 push	 ecx
  00af1	68 00 02 00 00	 push	 512			; 00000200H
  00af6	8b 4d e4	 mov	 ecx, DWORD PTR _this$[ebp]
  00af9	e8 00 00 00 00	 call	 ?SendMouseMessageToParent@CSkinButton2@@QAEXIIVCPoint@@@Z ; CSkinButton2::SendMouseMessageToParent

; 169  : 		return;

  00afe	e9 86 00 00 00	 jmp	 $L197686
$L197688:

; 170  : 	}
; 171  : 	if( !m_bSelected && IsWindowEnabled()&&m_bHandMouse )

  00b03	8b 55 e4	 mov	 edx, DWORD PTR _this$[ebp]
  00b06	83 ba 84 00 00
	00 00		 cmp	 DWORD PTR [edx+132], 0
  00b0d	75 29		 jne	 SHORT $L197689
  00b0f	8b 4d e4	 mov	 ecx, DWORD PTR _this$[ebp]
  00b12	e8 00 00 00 00	 call	 ?IsWindowEnabled@CWnd@@QBEHXZ ; CWnd::IsWindowEnabled
  00b17	85 c0		 test	 eax, eax
  00b19	74 1d		 je	 SHORT $L197689
  00b1b	8b 45 e4	 mov	 eax, DWORD PTR _this$[ebp]
  00b1e	83 78 5c 00	 cmp	 DWORD PTR [eax+92], 0
  00b22	74 14		 je	 SHORT $L197689

; 172  : 	{
; 173  : #ifndef IDC_HAND
; 174  : #define IDC_HAND            MAKEINTRESOURCE(32649)
; 175  : #endif
; 176  : 		::SetCursor(::LoadCursor(NULL, IDC_HAND));

  00b24	68 89 7f 00 00	 push	 32649			; 00007f89H
  00b29	6a 00		 push	 0
  00b2b	ff 15 00 00 00
	00		 call	 DWORD PTR __imp__LoadCursorA@8
  00b31	50		 push	 eax
  00b32	ff 15 00 00 00
	00		 call	 DWORD PTR __imp__SetCursor@4
$L197689:

; 177  : 	}
; 178  : 
; 179  : 	if (!m_bMouseOnButton) 

  00b38	8b 4d e4	 mov	 ecx, DWORD PTR _this$[ebp]
  00b3b	83 b9 80 00 00
	00 00		 cmp	 DWORD PTR [ecx+128], 0
  00b42	75 31		 jne	 SHORT $L197693

; 180  : 	{ 
; 181  : 		TRACKMOUSEEVENT   tme; 
; 182  : 		tme.cbSize   =   sizeof(tme); 

  00b44	c7 45 f0 10 00
	00 00		 mov	 DWORD PTR _tme$197694[ebp], 16 ; 00000010H

; 183  : 		tme.hwndTrack   =   m_hWnd; 

  00b4b	8b 55 e4	 mov	 edx, DWORD PTR _this$[ebp]
  00b4e	8b 42 20	 mov	 eax, DWORD PTR [edx+32]
  00b51	89 45 f8	 mov	 DWORD PTR _tme$197694[ebp+8], eax

; 184  : 		tme.dwFlags   =   TME_LEAVE   |   TME_HOVER; 

  00b54	c7 45 f4 03 00
	00 00		 mov	 DWORD PTR _tme$197694[ebp+4], 3

; 185  : 		tme.dwHoverTime   =   1; 

  00b5b	c7 45 fc 01 00
	00 00		 mov	 DWORD PTR _tme$197694[ebp+12], 1

; 186  : 		m_bMouseOnButton   =   _TrackMouseEvent(&tme); 

  00b62	8d 4d f0	 lea	 ecx, DWORD PTR _tme$197694[ebp]
  00b65	51		 push	 ecx
  00b66	ff 15 00 00 00
	00		 call	 DWORD PTR __imp___TrackMouseEvent@4
  00b6c	8b 55 e4	 mov	 edx, DWORD PTR _this$[ebp]
  00b6f	89 82 80 00 00
	00		 mov	 DWORD PTR [edx+128], eax
$L197693:

; 187  : 	} 
; 188  : 	CButton::OnMouseMove(nFlags, point);

  00b75	8b 45 10	 mov	 eax, DWORD PTR _point$[ebp+4]
  00b78	50		 push	 eax
  00b79	8b 4d 0c	 mov	 ecx, DWORD PTR _point$[ebp]
  00b7c	51		 push	 ecx
  00b7d	8b 55 08	 mov	 edx, DWORD PTR _nFlags$[ebp]
  00b80	52		 push	 edx
  00b81	8b 4d e4	 mov	 ecx, DWORD PTR _this$[ebp]
  00b84	e8 00 00 00 00	 call	 ?OnMouseMove@CWnd@@IAEXIVCPoint@@@Z ; CWnd::OnMouseMove
$L197686:

; 189  : }

  00b89	8b e5		 mov	 esp, ebp
  00b8b	5d		 pop	 ebp
  00b8c	c2 0c 00	 ret	 12			; 0000000cH
?OnMouseMove@CSkinButton2@@QAEXIVCPoint@@@Z ENDP	; CSkinButton2::OnMouseMove
_TEXT	ENDS
PUBLIC	?SetToolTipText@CSkinButton2@@QAEXV?$CStringT@DV?$StrTraitMFC_DLL@DV?$ChTraitsCRT@D@ATL@@@@@ATL@@H@Z ; CSkinButton2::SetToolTipText
PUBLIC	?DeleteToolTip@CSkinButton2@@QAEXXZ		; CSkinButton2::DeleteToolTip
PUBLIC	?Update@CToolTipCtrl@@QAEXXZ			; CToolTipCtrl::Update
EXTRN	__imp_??0?$CStringT@DV?$StrTraitMFC_DLL@DV?$ChTraitsCRT@D@ATL@@@@@ATL@@QAE@ABV01@@Z:NEAR
EXTRN	__imp__IsWindow@4:NEAR
; Function compile flags: /Odt
_TEXT	SEGMENT
tv129 = -12						; size = 4
_this$ = -8						; size = 4
$T198725 = -4						; size = 4
_wParam$ = 8						; size = 4
_lParam$ = 12						; size = 4
?OnMouseHover@CSkinButton2@@QAEJIJ@Z PROC NEAR		; CSkinButton2::OnMouseHover
; _this$ = ecx

; 191  : { 	

  00b90	55		 push	 ebp
  00b91	8b ec		 mov	 ebp, esp
  00b93	83 ec 0c	 sub	 esp, 12			; 0000000cH
  00b96	89 4d f8	 mov	 DWORD PTR _this$[ebp], ecx

; 192  : 	m_bMouseOnButton = TRUE;

  00b99	8b 45 f8	 mov	 eax, DWORD PTR _this$[ebp]
  00b9c	c7 80 80 00 00
	00 01 00 00 00	 mov	 DWORD PTR [eax+128], 1

; 193  : 	this->Invalidate();

  00ba6	6a 01		 push	 1
  00ba8	8b 4d f8	 mov	 ecx, DWORD PTR _this$[ebp]
  00bab	e8 00 00 00 00	 call	 ?Invalidate@CWnd@@QAEXH@Z ; CWnd::Invalidate

; 194  : 
; 195  : 	DeleteToolTip();

  00bb0	8b 4d f8	 mov	 ecx, DWORD PTR _this$[ebp]
  00bb3	e8 00 00 00 00	 call	 ?DeleteToolTip@CSkinButton2@@QAEXXZ ; CSkinButton2::DeleteToolTip

; 196  : 
; 197  : 	SetToolTipText(m_tooltext);

  00bb8	6a 01		 push	 1
  00bba	8b 4d f8	 mov	 ecx, DWORD PTR _this$[ebp]
  00bbd	83 c1 78	 add	 ecx, 120		; 00000078H
  00bc0	51		 push	 ecx
  00bc1	8b d4		 mov	 edx, esp
  00bc3	89 65 fc	 mov	 DWORD PTR $T198725[ebp], esp
  00bc6	51		 push	 ecx
  00bc7	8b ca		 mov	 ecx, edx
  00bc9	ff 15 00 00 00
	00		 call	 DWORD PTR __imp_??0?$CStringT@DV?$StrTraitMFC_DLL@DV?$ChTraitsCRT@D@ATL@@@@@ATL@@QAE@ABV01@@Z
  00bcf	89 45 f4	 mov	 DWORD PTR tv129[ebp], eax
  00bd2	8b 4d f8	 mov	 ecx, DWORD PTR _this$[ebp]
  00bd5	e8 00 00 00 00	 call	 ?SetToolTipText@CSkinButton2@@QAEXV?$CStringT@DV?$StrTraitMFC_DLL@DV?$ChTraitsCRT@D@ATL@@@@@ATL@@H@Z ; CSkinButton2::SetToolTipText

; 198  : 
; 199  : 	if (m_pToolTip != NULL)

  00bda	8b 45 f8	 mov	 eax, DWORD PTR _this$[ebp]
  00bdd	83 78 74 00	 cmp	 DWORD PTR [eax+116], 0
  00be1	74 1f		 je	 SHORT $L197701

; 200  : 	{
; 201  : 		if (::IsWindow(m_pToolTip->m_hWnd))

  00be3	8b 4d f8	 mov	 ecx, DWORD PTR _this$[ebp]
  00be6	8b 51 74	 mov	 edx, DWORD PTR [ecx+116]
  00be9	8b 42 20	 mov	 eax, DWORD PTR [edx+32]
  00bec	50		 push	 eax
  00bed	ff 15 00 00 00
	00		 call	 DWORD PTR __imp__IsWindow@4
  00bf3	85 c0		 test	 eax, eax
  00bf5	74 0b		 je	 SHORT $L197701

; 202  : 		{
; 203  : 		m_pToolTip->Update();

  00bf7	8b 4d f8	 mov	 ecx, DWORD PTR _this$[ebp]
  00bfa	8b 49 74	 mov	 ecx, DWORD PTR [ecx+116]
  00bfd	e8 00 00 00 00	 call	 ?Update@CToolTipCtrl@@QAEXXZ ; CToolTipCtrl::Update
$L197701:

; 204  : 		}
; 205  : 	}
; 206  : 	return 1;

  00c02	b8 01 00 00 00	 mov	 eax, 1

; 207  : } 

  00c07	8b e5		 mov	 esp, ebp
  00c09	5d		 pop	 ebp
  00c0a	c2 08 00	 ret	 8
?OnMouseHover@CSkinButton2@@QAEJIJ@Z ENDP		; CSkinButton2::OnMouseHover
; Function compile flags: /Odt
_this$ = -4						; size = 4
_wParam$ = 8						; size = 4
_lParam$ = 12						; size = 4
?OnMouseLeave@CSkinButton2@@QAEJIJ@Z PROC NEAR		; CSkinButton2::OnMouseLeave
; _this$ = ecx

; 209  : { 	

  00c10	55		 push	 ebp
  00c11	8b ec		 mov	 ebp, esp
  00c13	51		 push	 ecx
  00c14	89 4d fc	 mov	 DWORD PTR _this$[ebp], ecx

; 210  : 	m_bMouseOnButton = FALSE;

  00c17	8b 45 fc	 mov	 eax, DWORD PTR _this$[ebp]
  00c1a	c7 80 80 00 00
	00 00 00 00 00	 mov	 DWORD PTR [eax+128], 0

; 211  : 	this->Invalidate();

  00c24	6a 01		 push	 1
  00c26	8b 4d fc	 mov	 ecx, DWORD PTR _this$[ebp]
  00c29	e8 00 00 00 00	 call	 ?Invalidate@CWnd@@QAEXH@Z ; CWnd::Invalidate

; 212  : 	return 1;

  00c2e	b8 01 00 00 00	 mov	 eax, 1

; 213  : }

  00c33	8b e5		 mov	 esp, ebp
  00c35	5d		 pop	 ebp
  00c36	c2 08 00	 ret	 8
?OnMouseLeave@CSkinButton2@@QAEJIJ@Z ENDP		; CSkinButton2::OnMouseLeave
_TEXT	ENDS
PUBLIC	?SetCapture@CWnd@@QAEPAV1@XZ			; CWnd::SetCapture
PUBLIC	?OnLButtonDown@CWnd@@IAEXIVCPoint@@@Z		; CWnd::OnLButtonDown
; Function compile flags: /Odt
_TEXT	SEGMENT
_this$ = -12						; size = 4
$T198729 = -8						; size = 8
_nFlags$ = 8						; size = 4
_point$ = 12						; size = 8
?OnLButtonDown@CSkinButton2@@QAEXIVCPoint@@@Z PROC NEAR	; CSkinButton2::OnLButtonDown
; _this$ = ecx

; 215  : {

  00c40	55		 push	 ebp
  00c41	8b ec		 mov	 ebp, esp
  00c43	83 ec 0c	 sub	 esp, 12			; 0000000cH
  00c46	89 4d f4	 mov	 DWORD PTR _this$[ebp], ecx

; 216  : 	// TODO: /
; 217  : 	if(m_bUseResponseRect && !m_rcResponse.PtInRect(point))

  00c49	8b 45 f4	 mov	 eax, DWORD PTR _this$[ebp]
  00c4c	83 78 70 00	 cmp	 DWORD PTR [eax+112], 0
  00c50	74 3e		 je	 SHORT $L197714
  00c52	8b 4d 0c	 mov	 ecx, DWORD PTR _point$[ebp]
  00c55	89 4d f8	 mov	 DWORD PTR $T198729[ebp], ecx
  00c58	8b 55 10	 mov	 edx, DWORD PTR _point$[ebp+4]
  00c5b	89 55 fc	 mov	 DWORD PTR $T198729[ebp+4], edx
  00c5e	8b 45 fc	 mov	 eax, DWORD PTR $T198729[ebp+4]
  00c61	50		 push	 eax
  00c62	8b 4d f8	 mov	 ecx, DWORD PTR $T198729[ebp]
  00c65	51		 push	 ecx
  00c66	8b 4d f4	 mov	 ecx, DWORD PTR _this$[ebp]
  00c69	83 c1 60	 add	 ecx, 96			; 00000060H
  00c6c	e8 00 00 00 00	 call	 ?PtInRect@CRect@@QBEHUtagPOINT@@@Z ; CRect::PtInRect
  00c71	85 c0		 test	 eax, eax
  00c73	75 1b		 jne	 SHORT $L197714

; 218  : 	{
; 219  : 		//CButton::OnMouseMove(nFlags, point);
; 220  : 		SendMouseMessageToParent(WM_LBUTTONDOWN, nFlags, point);

  00c75	8b 55 10	 mov	 edx, DWORD PTR _point$[ebp+4]
  00c78	52		 push	 edx
  00c79	8b 45 0c	 mov	 eax, DWORD PTR _point$[ebp]
  00c7c	50		 push	 eax
  00c7d	8b 4d 08	 mov	 ecx, DWORD PTR _nFlags$[ebp]
  00c80	51		 push	 ecx
  00c81	68 01 02 00 00	 push	 513			; 00000201H
  00c86	8b 4d f4	 mov	 ecx, DWORD PTR _this$[ebp]
  00c89	e8 00 00 00 00	 call	 ?SendMouseMessageToParent@CSkinButton2@@QAEXIIVCPoint@@@Z ; CSkinButton2::SendMouseMessageToParent

; 221  : 		return;

  00c8e	eb 37		 jmp	 SHORT $L197712
$L197714:

; 222  : 	}
; 223  : 
; 224  : 	if( m_bSelected )

  00c90	8b 55 f4	 mov	 edx, DWORD PTR _this$[ebp]
  00c93	83 ba 84 00 00
	00 00		 cmp	 DWORD PTR [edx+132], 0
  00c9a	74 0a		 je	 SHORT $L197715

; 225  : 	{
; 226  : 		this->SetCapture();

  00c9c	8b 4d f4	 mov	 ecx, DWORD PTR _this$[ebp]
  00c9f	e8 00 00 00 00	 call	 ?SetCapture@CWnd@@QAEPAV1@XZ ; CWnd::SetCapture

; 227  : 		return ;

  00ca4	eb 21		 jmp	 SHORT $L197712
$L197715:

; 228  : 	}
; 229  : 	m_bMouseDown = TRUE;

  00ca6	8b 45 f4	 mov	 eax, DWORD PTR _this$[ebp]
  00ca9	c7 80 88 00 00
	00 01 00 00 00	 mov	 DWORD PTR [eax+136], 1

; 230  : 	CButton::OnLButtonDown(nFlags, point);

  00cb3	8b 4d 10	 mov	 ecx, DWORD PTR _point$[ebp+4]
  00cb6	51		 push	 ecx
  00cb7	8b 55 0c	 mov	 edx, DWORD PTR _point$[ebp]
  00cba	52		 push	 edx
  00cbb	8b 45 08	 mov	 eax, DWORD PTR _nFlags$[ebp]
  00cbe	50		 push	 eax
  00cbf	8b 4d f4	 mov	 ecx, DWORD PTR _this$[ebp]
  00cc2	e8 00 00 00 00	 call	 ?OnLButtonDown@CWnd@@IAEXIVCPoint@@@Z ; CWnd::OnLButtonDown
$L197712:

; 231  : }

  00cc7	8b e5		 mov	 esp, ebp
  00cc9	5d		 pop	 ebp
  00cca	c2 0c 00	 ret	 12			; 0000000cH
?OnLButtonDown@CSkinButton2@@QAEXIVCPoint@@@Z ENDP	; CSkinButton2::OnLButtonDown
_TEXT	ENDS
PUBLIC	?OnLButtonUp@CWnd@@IAEXIVCPoint@@@Z		; CWnd::OnLButtonUp
EXTRN	__imp__ReleaseCapture@0:NEAR
; Function compile flags: /Odt
_TEXT	SEGMENT
_this$ = -12						; size = 4
$T198731 = -8						; size = 8
_nFlags$ = 8						; size = 4
_point$ = 12						; size = 8
?OnLButtonUp@CSkinButton2@@QAEXIVCPoint@@@Z PROC NEAR	; CSkinButton2::OnLButtonUp
; _this$ = ecx

; 234  : {

  00cd0	55		 push	 ebp
  00cd1	8b ec		 mov	 ebp, esp
  00cd3	83 ec 0c	 sub	 esp, 12			; 0000000cH
  00cd6	89 4d f4	 mov	 DWORD PTR _this$[ebp], ecx

; 235  : 	// TODO: /
; 236  : 	if(m_bUseResponseRect && !m_rcResponse.PtInRect(point))

  00cd9	8b 45 f4	 mov	 eax, DWORD PTR _this$[ebp]
  00cdc	83 78 70 00	 cmp	 DWORD PTR [eax+112], 0
  00ce0	74 44		 je	 SHORT $L197722
  00ce2	8b 4d 0c	 mov	 ecx, DWORD PTR _point$[ebp]
  00ce5	89 4d f8	 mov	 DWORD PTR $T198731[ebp], ecx
  00ce8	8b 55 10	 mov	 edx, DWORD PTR _point$[ebp+4]
  00ceb	89 55 fc	 mov	 DWORD PTR $T198731[ebp+4], edx
  00cee	8b 45 fc	 mov	 eax, DWORD PTR $T198731[ebp+4]
  00cf1	50		 push	 eax
  00cf2	8b 4d f8	 mov	 ecx, DWORD PTR $T198731[ebp]
  00cf5	51		 push	 ecx
  00cf6	8b 4d f4	 mov	 ecx, DWORD PTR _this$[ebp]
  00cf9	83 c1 60	 add	 ecx, 96			; 00000060H
  00cfc	e8 00 00 00 00	 call	 ?PtInRect@CRect@@QBEHUtagPOINT@@@Z ; CRect::PtInRect
  00d01	85 c0		 test	 eax, eax
  00d03	75 21		 jne	 SHORT $L197722

; 237  : 	{
; 238  : 		//CButton::OnMouseMove(nFlags, point);
; 239  : 		::ReleaseCapture();

  00d05	ff 15 00 00 00
	00		 call	 DWORD PTR __imp__ReleaseCapture@0

; 240  : 		SendMouseMessageToParent(WM_LBUTTONUP, nFlags, point);

  00d0b	8b 55 10	 mov	 edx, DWORD PTR _point$[ebp+4]
  00d0e	52		 push	 edx
  00d0f	8b 45 0c	 mov	 eax, DWORD PTR _point$[ebp]
  00d12	50		 push	 eax
  00d13	8b 4d 08	 mov	 ecx, DWORD PTR _nFlags$[ebp]
  00d16	51		 push	 ecx
  00d17	68 02 02 00 00	 push	 514			; 00000202H
  00d1c	8b 4d f4	 mov	 ecx, DWORD PTR _this$[ebp]
  00d1f	e8 00 00 00 00	 call	 ?SendMouseMessageToParent@CSkinButton2@@QAEXIIVCPoint@@@Z ; CSkinButton2::SendMouseMessageToParent

; 241  : 		return;

  00d24	eb 35		 jmp	 SHORT $L197720
$L197722:

; 242  : 	}
; 243  : 
; 244  : 	if( m_bSelected )

  00d26	8b 55 f4	 mov	 edx, DWORD PTR _this$[ebp]
  00d29	83 ba 84 00 00
	00 00		 cmp	 DWORD PTR [edx+132], 0
  00d30	74 08		 je	 SHORT $L197723

; 245  : 	{
; 246  : 		::ReleaseCapture();

  00d32	ff 15 00 00 00
	00		 call	 DWORD PTR __imp__ReleaseCapture@0

; 247  : 		return ;

  00d38	eb 21		 jmp	 SHORT $L197720
$L197723:

; 248  : 	}
; 249  : 	m_bMouseDown = FALSE;

  00d3a	8b 45 f4	 mov	 eax, DWORD PTR _this$[ebp]
  00d3d	c7 80 88 00 00
	00 00 00 00 00	 mov	 DWORD PTR [eax+136], 0

; 250  : 	CButton::OnLButtonUp(nFlags, point);

  00d47	8b 4d 10	 mov	 ecx, DWORD PTR _point$[ebp+4]
  00d4a	51		 push	 ecx
  00d4b	8b 55 0c	 mov	 edx, DWORD PTR _point$[ebp]
  00d4e	52		 push	 edx
  00d4f	8b 45 08	 mov	 eax, DWORD PTR _nFlags$[ebp]
  00d52	50		 push	 eax
  00d53	8b 4d f4	 mov	 ecx, DWORD PTR _this$[ebp]
  00d56	e8 00 00 00 00	 call	 ?OnLButtonUp@CWnd@@IAEXIVCPoint@@@Z ; CWnd::OnLButtonUp
$L197720:

; 251  : }

  00d5b	8b e5		 mov	 esp, ebp
  00d5d	5d		 pop	 ebp
  00d5e	c2 0c 00	 ret	 12			; 0000000cH
?OnLButtonUp@CSkinButton2@@QAEXIVCPoint@@@Z ENDP	; CSkinButton2::OnLButtonUp
_TEXT	ENDS
PUBLIC	__real@40000000
PUBLIC	__real@3f800000
PUBLIC	??0RectF@Gdiplus@@QAE@XZ			; Gdiplus::RectF::RectF
PUBLIC	??0RectF@Gdiplus@@QAE@MMMM@Z			; Gdiplus::RectF::RectF
PUBLIC	??0CMemDC@@QAE@PAVCDC@@ABVCRect@@@Z		; CMemDC::CMemDC
PUBLIC	??1CMemDC@@UAE@XZ				; CMemDC::~CMemDC
PUBLIC	??CCMemDC@@QAEPAV0@XZ				; CMemDC::operator->
PUBLIC	?DrawString@Graphics@Gdiplus@@QAE?AW4Status@2@PB_WHPBVFont@2@ABVRectF@2@PBVStringFormat@2@PBVBrush@2@@Z ; Gdiplus::Graphics::DrawString
PUBLIC	?DrawImage@Graphics@Gdiplus@@QAE?AW4Status@2@PAVImage@2@ABVRectF@2@MMMMW4Unit@2@PBVImageAttributes@2@P6GHPAX@Z4@Z ; Gdiplus::Graphics::DrawImage
PUBLIC	??0Color@Gdiplus@@QAE@EEEE@Z			; Gdiplus::Color::Color
PUBLIC	??0StringFormat@Gdiplus@@QAE@HG@Z		; Gdiplus::StringFormat::StringFormat
PUBLIC	??1StringFormat@Gdiplus@@QAE@XZ			; Gdiplus::StringFormat::~StringFormat
PUBLIC	?SetAlignment@StringFormat@Gdiplus@@QAE?AW4Status@2@W4StringAlignment@2@@Z ; Gdiplus::StringFormat::SetAlignment
PUBLIC	?GetWidth@Image@Gdiplus@@QAEIXZ			; Gdiplus::Image::GetWidth
PUBLIC	?GetHeight@Image@Gdiplus@@QAEIXZ		; Gdiplus::Image::GetHeight
PUBLIC	??0Bitmap@Gdiplus@@QAE@HHPAVGraphics@1@@Z	; Gdiplus::Bitmap::Bitmap
PUBLIC	??1Bitmap@Gdiplus@@UAE@XZ			; Gdiplus::Bitmap::~Bitmap
PUBLIC	?DrawImage@CSkinButton2@@AAEXAAVGraphics@Gdiplus@@W4BTN_DRAW_HUE@1@@Z ; CSkinButton2::DrawImage
PUBLIC	?DrawFrame@CSkinButton2@@AAEXAAVGraphics@Gdiplus@@AAVCRect@@@Z ; CSkinButton2::DrawFrame
PUBLIC	??0SolidBrush@Gdiplus@@QAE@ABVColor@1@@Z	; Gdiplus::SolidBrush::SolidBrush
PUBLIC	??1SolidBrush@Gdiplus@@UAE@XZ			; Gdiplus::SolidBrush::~SolidBrush
PUBLIC	?FromImage@Graphics@Gdiplus@@SAPAV12@PAVImage@2@@Z ; Gdiplus::Graphics::FromImage
PUBLIC	??0Graphics@Gdiplus@@QAE@PAUHDC__@@@Z		; Gdiplus::Graphics::Graphics
PUBLIC	??1Graphics@Gdiplus@@QAE@XZ			; Gdiplus::Graphics::~Graphics
EXTRN	?FromHandle@CDC@@SGPAV1@PAUHDC__@@@Z:NEAR	; CDC::FromHandle
EXTRN	__imp_?GetLength@?$CSimpleStringT@D$00@ATL@@QBEHXZ:NEAR
EXTRN	??0CClientDC@@QAE@PAVCWnd@@@Z:NEAR		; CClientDC::CClientDC
EXTRN	??1CClientDC@@UAE@XZ:NEAR			; CClientDC::~CClientDC
xdata$x	SEGMENT
$T198754 DD	0ffffffffH
	DD	FLAT:$L198738
	DD	00H
	DD	FLAT:$L198739
	DD	01H
	DD	FLAT:$L198740
	DD	02H
	DD	FLAT:$L198741
	DD	02H
	DD	FLAT:$L198742
	DD	04H
	DD	FLAT:$L198743
	DD	05H
	DD	FLAT:$L198744
	DD	05H
	DD	FLAT:$L198745
$T198747 DD	019930520H
	DD	08H
	DD	FLAT:$T198754
	DD	2 DUP(00H)
	DD	2 DUP(00H)
xdata$x	ENDS
;	COMDAT __real@40000000
CONST	SEGMENT
__real@40000000 DD 040000000r			; 2
CONST	ENDS
;	COMDAT __real@3f800000
CONST	SEGMENT
__real@3f800000 DD 03f800000r			; 1
; Function compile flags: /Odt
CONST	ENDS
_TEXT	SEGMENT
tv416 = -2372						; size = 4
tv254 = -2368						; size = 4
tv535 = -2364						; size = 8
tv531 = -2356						; size = 8
tv414 = -2348						; size = 4
tv288 = -2344						; size = 4
tv516 = -2340						; size = 8
tv510 = -2332						; size = 8
tv502 = -2324						; size = 8
tv496 = -2316						; size = 8
tv485 = -2308						; size = 4
tv483 = -2304						; size = 4
_this$ = -2300						; size = 4
$T198737 = -2296					; size = 4
$T198736 = -2292					; size = 12
$T198735 = -2280					; size = 4
$T198734 = -2276					; size = 12
_Ptext$197759 = -2264					; size = 4
_rectText$197763 = -2260				; size = 16
_format$197762 = -2244					; size = 8
_rectBack$197764 = -2236				; size = 16
_bmpText$197758 = -2220					; size = 16
_wFile$197761 = -2204					; size = 2048
__$ArrayPad$ = -152					; size = 4
_rc$197760 = -148					; size = 16
_rect1$197735 = -132					; size = 16
_clDC$197736 = -116					; size = 20
_lState$ = -96						; size = 4
_pDC$ = -92						; size = 44
_bmp$ = -48						; size = 8
_graphics$ = -40					; size = 8
_rect$ = -32						; size = 16
_pOldBitmap$ = -16					; size = 4
__$EHRec$ = -12						; size = 12
__$ReturnAddr$ = 4					; size = 4
_lpDrawItemStruct$ = 8					; size = 4
?DrawItem@CSkinButton2@@UAEXPAUtagDRAWITEMSTRUCT@@@Z PROC NEAR ; CSkinButton2::DrawItem
; _this$ = ecx

; 254  : {	

  00d70	55		 push	 ebp
  00d71	8b ec		 mov	 ebp, esp
  00d73	6a ff		 push	 -1
  00d75	68 00 00 00 00	 push	 __ehhandler$?DrawItem@CSkinButton2@@UAEXPAUtagDRAWITEMSTRUCT@@@Z
  00d7a	64 a1 00 00 00
	00		 mov	 eax, DWORD PTR fs:__except_list
  00d80	50		 push	 eax
  00d81	64 89 25 00 00
	00 00		 mov	 DWORD PTR fs:__except_list, esp
  00d88	81 ec 38 09 00
	00		 sub	 esp, 2360		; 00000938H
  00d8e	a1 00 00 00 00	 mov	 eax, DWORD PTR ___security_cookie
  00d93	89 85 68 ff ff
	ff		 mov	 DWORD PTR __$ArrayPad$[ebp], eax
  00d99	89 8d 04 f7 ff
	ff		 mov	 DWORD PTR _this$[ebp], ecx

; 255  : 	UINT lState = lpDrawItemStruct->itemState;	

  00d9f	8b 45 08	 mov	 eax, DWORD PTR _lpDrawItemStruct$[ebp]
  00da2	8b 48 10	 mov	 ecx, DWORD PTR [eax+16]
  00da5	89 4d a0	 mov	 DWORD PTR _lState$[ebp], ecx

; 256  : 
; 257  : 	CRect rect;

  00da8	8d 4d e0	 lea	 ecx, DWORD PTR _rect$[ebp]
  00dab	e8 00 00 00 00	 call	 ??0CRect@@QAE@XZ	; CRect::CRect

; 258  : 	GetClientRect(rect);

  00db0	8d 4d e0	 lea	 ecx, DWORD PTR _rect$[ebp]
  00db3	e8 00 00 00 00	 call	 ??BCRect@@QAEPAUtagRECT@@XZ ; CRect::operator tagRECT *
  00db8	50		 push	 eax
  00db9	8b 8d 04 f7 ff
	ff		 mov	 ecx, DWORD PTR _this$[ebp]
  00dbf	e8 00 00 00 00	 call	 ?GetClientRect@CWnd@@QBEXPAUtagRECT@@@Z ; CWnd::GetClientRect

; 259  : 
; 260  : 	CMemDC pDC( CDC::FromHandle(lpDrawItemStruct->hDC), rect);

  00dc4	8d 55 e0	 lea	 edx, DWORD PTR _rect$[ebp]
  00dc7	52		 push	 edx
  00dc8	8b 45 08	 mov	 eax, DWORD PTR _lpDrawItemStruct$[ebp]
  00dcb	8b 48 18	 mov	 ecx, DWORD PTR [eax+24]
  00dce	51		 push	 ecx
  00dcf	e8 00 00 00 00	 call	 ?FromHandle@CDC@@SGPAV1@PAUHDC__@@@Z ; CDC::FromHandle
  00dd4	50		 push	 eax
  00dd5	8d 4d a4	 lea	 ecx, DWORD PTR _pDC$[ebp]
  00dd8	e8 00 00 00 00	 call	 ??0CMemDC@@QAE@PAVCDC@@ABVCRect@@@Z ; CMemDC::CMemDC
  00ddd	c7 45 fc 00 00
	00 00		 mov	 DWORD PTR __$EHRec$[ebp+8], 0

; 261  : 	Gdiplus::Graphics graphics(pDC->m_hDC);

  00de4	8d 4d a4	 lea	 ecx, DWORD PTR _pDC$[ebp]
  00de7	e8 00 00 00 00	 call	 ??CCMemDC@@QAEPAV0@XZ	; CMemDC::operator->
  00dec	8b 50 04	 mov	 edx, DWORD PTR [eax+4]
  00def	52		 push	 edx
  00df0	8d 4d d8	 lea	 ecx, DWORD PTR _graphics$[ebp]
  00df3	e8 00 00 00 00	 call	 ??0Graphics@Gdiplus@@QAE@PAUHDC__@@@Z ; Gdiplus::Graphics::Graphics
  00df8	c6 45 fc 01	 mov	 BYTE PTR __$EHRec$[ebp+8], 1

; 262  : 
; 263  : 	// get background
; 264  : 	CBitmap bmp, *pOldBitmap;

  00dfc	8d 4d d0	 lea	 ecx, DWORD PTR _bmp$[ebp]
  00dff	e8 00 00 00 00	 call	 ??0CBitmap@@QAE@XZ	; CBitmap::CBitmap
  00e04	c6 45 fc 02	 mov	 BYTE PTR __$EHRec$[ebp+8], 2

; 265  : 	if (m_dcBk.m_hDC == NULL)

  00e08	8b 85 04 f7 ff
	ff		 mov	 eax, DWORD PTR _this$[ebp]
  00e0e	83 b8 90 00 00
	00 00		 cmp	 DWORD PTR [eax+144], 0
  00e15	0f 85 f2 00 00
	00		 jne	 $L197734

; 266  : 	{
; 267  : 		CRect rect1;

  00e1b	8d 8d 7c ff ff
	ff		 lea	 ecx, DWORD PTR _rect1$197735[ebp]
  00e21	e8 00 00 00 00	 call	 ??0CRect@@QAE@XZ	; CRect::CRect

; 268  : 		CClientDC clDC(GetParent());

  00e26	8b 8d 04 f7 ff
	ff		 mov	 ecx, DWORD PTR _this$[ebp]
  00e2c	e8 00 00 00 00	 call	 ?GetParent@CWnd@@QBEPAV1@XZ ; CWnd::GetParent
  00e31	50		 push	 eax
  00e32	8d 4d 8c	 lea	 ecx, DWORD PTR _clDC$197736[ebp]
  00e35	e8 00 00 00 00	 call	 ??0CClientDC@@QAE@PAVCWnd@@@Z ; CClientDC::CClientDC
  00e3a	c6 45 fc 03	 mov	 BYTE PTR __$EHRec$[ebp+8], 3

; 269  : 		GetWindowRect(rect1);

  00e3e	8d 8d 7c ff ff
	ff		 lea	 ecx, DWORD PTR _rect1$197735[ebp]
  00e44	e8 00 00 00 00	 call	 ??BCRect@@QAEPAUtagRECT@@XZ ; CRect::operator tagRECT *
  00e49	50		 push	 eax
  00e4a	8b 8d 04 f7 ff
	ff		 mov	 ecx, DWORD PTR _this$[ebp]
  00e50	e8 00 00 00 00	 call	 ?GetWindowRect@CWnd@@QBEXPAUtagRECT@@@Z ; CWnd::GetWindowRect

; 270  : 		GetParent()->ScreenToClient(rect1);

  00e55	8d 8d 7c ff ff
	ff		 lea	 ecx, DWORD PTR _rect1$197735[ebp]
  00e5b	e8 00 00 00 00	 call	 ??BCRect@@QAEPAUtagRECT@@XZ ; CRect::operator tagRECT *
  00e60	50		 push	 eax
  00e61	8b 8d 04 f7 ff
	ff		 mov	 ecx, DWORD PTR _this$[ebp]
  00e67	e8 00 00 00 00	 call	 ?GetParent@CWnd@@QBEPAV1@XZ ; CWnd::GetParent
  00e6c	8b c8		 mov	 ecx, eax
  00e6e	e8 00 00 00 00	 call	 ?ScreenToClient@CWnd@@QBEXPAUtagRECT@@@Z ; CWnd::ScreenToClient

; 271  : 
; 272  : 		m_dcBk.CreateCompatibleDC(&clDC);

  00e73	8d 4d 8c	 lea	 ecx, DWORD PTR _clDC$197736[ebp]
  00e76	51		 push	 ecx
  00e77	8b 8d 04 f7 ff
	ff		 mov	 ecx, DWORD PTR _this$[ebp]
  00e7d	81 c1 8c 00 00
	00		 add	 ecx, 140		; 0000008cH
  00e83	e8 00 00 00 00	 call	 ?CreateCompatibleDC@CDC@@QAEHPAV1@@Z ; CDC::CreateCompatibleDC

; 273  : 		bmp.CreateCompatibleBitmap(&clDC, rect.Width(), rect.Height());

  00e88	8d 4d e0	 lea	 ecx, DWORD PTR _rect$[ebp]
  00e8b	e8 00 00 00 00	 call	 ?Height@CRect@@QBEHXZ	; CRect::Height
  00e90	50		 push	 eax
  00e91	8d 4d e0	 lea	 ecx, DWORD PTR _rect$[ebp]
  00e94	e8 00 00 00 00	 call	 ?Width@CRect@@QBEHXZ	; CRect::Width
  00e99	50		 push	 eax
  00e9a	8d 55 8c	 lea	 edx, DWORD PTR _clDC$197736[ebp]
  00e9d	52		 push	 edx
  00e9e	8d 4d d0	 lea	 ecx, DWORD PTR _bmp$[ebp]
  00ea1	e8 00 00 00 00	 call	 ?CreateCompatibleBitmap@CBitmap@@QAEHPAVCDC@@HH@Z ; CBitmap::CreateCompatibleBitmap

; 274  : 		pOldBitmap = m_dcBk.SelectObject(&bmp);

  00ea6	8d 45 d0	 lea	 eax, DWORD PTR _bmp$[ebp]
  00ea9	50		 push	 eax
  00eaa	8b 8d 04 f7 ff
	ff		 mov	 ecx, DWORD PTR _this$[ebp]
  00eb0	81 c1 8c 00 00
	00		 add	 ecx, 140		; 0000008cH
  00eb6	e8 00 00 00 00	 call	 ?SelectObject@CDC@@QAEPAVCBitmap@@PAV2@@Z ; CDC::SelectObject
  00ebb	89 45 f0	 mov	 DWORD PTR _pOldBitmap$[ebp], eax

; 275  : 		m_dcBk.BitBlt(0, 0, rect.Width(), rect.Height(), &clDC, rect1.left, rect1.top, SRCCOPY);

  00ebe	68 20 00 cc 00	 push	 13369376		; 00cc0020H
  00ec3	8b 4d 80	 mov	 ecx, DWORD PTR _rect1$197735[ebp+4]
  00ec6	51		 push	 ecx
  00ec7	8b 95 7c ff ff
	ff		 mov	 edx, DWORD PTR _rect1$197735[ebp]
  00ecd	52		 push	 edx
  00ece	8d 45 8c	 lea	 eax, DWORD PTR _clDC$197736[ebp]
  00ed1	50		 push	 eax
  00ed2	8d 4d e0	 lea	 ecx, DWORD PTR _rect$[ebp]
  00ed5	e8 00 00 00 00	 call	 ?Height@CRect@@QBEHXZ	; CRect::Height
  00eda	50		 push	 eax
  00edb	8d 4d e0	 lea	 ecx, DWORD PTR _rect$[ebp]
  00ede	e8 00 00 00 00	 call	 ?Width@CRect@@QBEHXZ	; CRect::Width
  00ee3	50		 push	 eax
  00ee4	6a 00		 push	 0
  00ee6	6a 00		 push	 0
  00ee8	8b 8d 04 f7 ff
	ff		 mov	 ecx, DWORD PTR _this$[ebp]
  00eee	81 c1 8c 00 00
	00		 add	 ecx, 140		; 0000008cH
  00ef4	e8 00 00 00 00	 call	 ?BitBlt@CDC@@QAEHHHHHPAV1@HHK@Z ; CDC::BitBlt

; 276  : 		bmp.DeleteObject();

  00ef9	8d 4d d0	 lea	 ecx, DWORD PTR _bmp$[ebp]
  00efc	e8 00 00 00 00	 call	 ?DeleteObject@CGdiObject@@QAEHXZ ; CGdiObject::DeleteObject

; 277  : 	}

  00f01	c6 45 fc 02	 mov	 BYTE PTR __$EHRec$[ebp+8], 2
  00f05	8d 4d 8c	 lea	 ecx, DWORD PTR _clDC$197736[ebp]
  00f08	e8 00 00 00 00	 call	 ??1CClientDC@@UAE@XZ	; CClientDC::~CClientDC
$L197734:

; 278  : 	// paint backGround
; 279  : 
; 280  : 	pDC->BitBlt(0, 0, rect.Width(), rect.Height(), &m_dcBk, 0, 0, SRCCOPY);

  00f0d	68 20 00 cc 00	 push	 13369376		; 00cc0020H
  00f12	6a 00		 push	 0
  00f14	6a 00		 push	 0
  00f16	8b 8d 04 f7 ff
	ff		 mov	 ecx, DWORD PTR _this$[ebp]
  00f1c	81 c1 8c 00 00
	00		 add	 ecx, 140		; 0000008cH
  00f22	51		 push	 ecx
  00f23	8d 4d e0	 lea	 ecx, DWORD PTR _rect$[ebp]
  00f26	e8 00 00 00 00	 call	 ?Height@CRect@@QBEHXZ	; CRect::Height
  00f2b	50		 push	 eax
  00f2c	8d 4d e0	 lea	 ecx, DWORD PTR _rect$[ebp]
  00f2f	e8 00 00 00 00	 call	 ?Width@CRect@@QBEHXZ	; CRect::Width
  00f34	50		 push	 eax
  00f35	6a 00		 push	 0
  00f37	6a 00		 push	 0
  00f39	8d 4d a4	 lea	 ecx, DWORD PTR _pDC$[ebp]
  00f3c	e8 00 00 00 00	 call	 ??CCMemDC@@QAEPAV0@XZ	; CMemDC::operator->
  00f41	8b c8		 mov	 ecx, eax
  00f43	e8 00 00 00 00	 call	 ?BitBlt@CDC@@QAEHHHHHPAV1@HHK@Z ; CDC::BitBlt

; 281  : 
; 282  : 	if( m_bDisable )

  00f48	8b 95 04 f7 ff
	ff		 mov	 edx, DWORD PTR _this$[ebp]
  00f4e	83 ba 84 01 00
	00 00		 cmp	 DWORD PTR [edx+388], 0
  00f55	74 16		 je	 SHORT $L197739

; 283  : 	{
; 284  : 		DrawImage(graphics);

  00f57	6a 00		 push	 0
  00f59	8d 45 d8	 lea	 eax, DWORD PTR _graphics$[ebp]
  00f5c	50		 push	 eax
  00f5d	8b 8d 04 f7 ff
	ff		 mov	 ecx, DWORD PTR _this$[ebp]
  00f63	e8 00 00 00 00	 call	 ?DrawImage@CSkinButton2@@AAEXAAVGraphics@Gdiplus@@W4BTN_DRAW_HUE@1@@Z ; CSkinButton2::DrawImage

; 285  : 	}
; 286  : 	else

  00f68	e9 59 01 00 00	 jmp	 $L197740
$L197739:

; 287  : 	{
; 288  : 		if (lState & ODS_DISABLED)

  00f6d	8b 4d a0	 mov	 ecx, DWORD PTR _lState$[ebp]
  00f70	83 e1 04	 and	 ecx, 4
  00f73	74 16		 je	 SHORT $L197741

; 289  : 		{
; 290  : 			DrawImage(graphics, DRAW_GRAY);

  00f75	6a 02		 push	 2
  00f77	8d 55 d8	 lea	 edx, DWORD PTR _graphics$[ebp]
  00f7a	52		 push	 edx
  00f7b	8b 8d 04 f7 ff
	ff		 mov	 ecx, DWORD PTR _this$[ebp]
  00f81	e8 00 00 00 00	 call	 ?DrawImage@CSkinButton2@@AAEXAAVGraphics@Gdiplus@@W4BTN_DRAW_HUE@1@@Z ; CSkinButton2::DrawImage

; 291  : 		}
; 292  : 		else

  00f86	e9 3b 01 00 00	 jmp	 $L197740
$L197741:

; 293  : 		{
; 294  : 			if (m_bSelected )

  00f8b	8b 85 04 f7 ff
	ff		 mov	 eax, DWORD PTR _this$[ebp]
  00f91	83 b8 84 00 00
	00 00		 cmp	 DWORD PTR [eax+132], 0
  00f98	74 29		 je	 SHORT $L197743

; 295  : 			{
; 296  : 				DrawFrame(graphics,rect );

  00f9a	8d 4d e0	 lea	 ecx, DWORD PTR _rect$[ebp]
  00f9d	51		 push	 ecx
  00f9e	8d 55 d8	 lea	 edx, DWORD PTR _graphics$[ebp]
  00fa1	52		 push	 edx
  00fa2	8b 8d 04 f7 ff
	ff		 mov	 ecx, DWORD PTR _this$[ebp]
  00fa8	e8 00 00 00 00	 call	 ?DrawFrame@CSkinButton2@@AAEXAAVGraphics@Gdiplus@@AAVCRect@@@Z ; CSkinButton2::DrawFrame

; 297  : 				DrawImage(graphics, DRAW_LIGHT);

  00fad	6a 01		 push	 1
  00faf	8d 45 d8	 lea	 eax, DWORD PTR _graphics$[ebp]
  00fb2	50		 push	 eax
  00fb3	8b 8d 04 f7 ff
	ff		 mov	 ecx, DWORD PTR _this$[ebp]
  00fb9	e8 00 00 00 00	 call	 ?DrawImage@CSkinButton2@@AAEXAAVGraphics@Gdiplus@@W4BTN_DRAW_HUE@1@@Z ; CSkinButton2::DrawImage

; 298  : 			}
; 299  : 			else

  00fbe	e9 03 01 00 00	 jmp	 $L197740
$L197743:

; 300  : 			{
; 301  : 				if (lState & ODS_SELECTED)

  00fc3	8b 4d a0	 mov	 ecx, DWORD PTR _lState$[ebp]
  00fc6	83 e1 01	 and	 ecx, 1
  00fc9	74 35		 je	 SHORT $L197745

; 302  : 				{
; 303  : 					DrawFrame(graphics,rect );

  00fcb	8d 55 e0	 lea	 edx, DWORD PTR _rect$[ebp]
  00fce	52		 push	 edx
  00fcf	8d 45 d8	 lea	 eax, DWORD PTR _graphics$[ebp]
  00fd2	50		 push	 eax
  00fd3	8b 8d 04 f7 ff
	ff		 mov	 ecx, DWORD PTR _this$[ebp]
  00fd9	e8 00 00 00 00	 call	 ?DrawFrame@CSkinButton2@@AAEXAAVGraphics@Gdiplus@@AAVCRect@@@Z ; CSkinButton2::DrawFrame

; 304  : 					if( m_enmuDrawType != NO_FRAME_SELECT )

  00fde	8b 8d 04 f7 ff
	ff		 mov	 ecx, DWORD PTR _this$[ebp]
  00fe4	83 79 54 10	 cmp	 DWORD PTR [ecx+84], 16	; 00000010H
  00fe8	74 11		 je	 SHORT $L197746

; 305  : 					{
; 306  : 						DrawImage(graphics, DRAW_LIGHT);

  00fea	6a 01		 push	 1
  00fec	8d 55 d8	 lea	 edx, DWORD PTR _graphics$[ebp]
  00fef	52		 push	 edx
  00ff0	8b 8d 04 f7 ff
	ff		 mov	 ecx, DWORD PTR _this$[ebp]
  00ff6	e8 00 00 00 00	 call	 ?DrawImage@CSkinButton2@@AAEXAAVGraphics@Gdiplus@@W4BTN_DRAW_HUE@1@@Z ; CSkinButton2::DrawImage
$L197746:

; 307  : 					}
; 308  : 				}
; 309  : 				else if (m_bMouseOnButton)

  00ffb	e9 c6 00 00 00	 jmp	 $L197740
$L197745:
  01000	8b 85 04 f7 ff
	ff		 mov	 eax, DWORD PTR _this$[ebp]
  01006	83 b8 80 00 00
	00 00		 cmp	 DWORD PTR [eax+128], 0
  0100d	74 35		 je	 SHORT $L197748

; 310  : 				{
; 311  : 					DrawFrame(graphics,rect );

  0100f	8d 4d e0	 lea	 ecx, DWORD PTR _rect$[ebp]
  01012	51		 push	 ecx
  01013	8d 55 d8	 lea	 edx, DWORD PTR _graphics$[ebp]
  01016	52		 push	 edx
  01017	8b 8d 04 f7 ff
	ff		 mov	 ecx, DWORD PTR _this$[ebp]
  0101d	e8 00 00 00 00	 call	 ?DrawFrame@CSkinButton2@@AAEXAAVGraphics@Gdiplus@@AAVCRect@@@Z ; CSkinButton2::DrawFrame

; 312  : 					if( m_enmuDrawType != NO_FRAME_SELECT )

  01022	8b 85 04 f7 ff
	ff		 mov	 eax, DWORD PTR _this$[ebp]
  01028	83 78 54 10	 cmp	 DWORD PTR [eax+84], 16	; 00000010H
  0102c	74 11		 je	 SHORT $L197749

; 313  : 					{
; 314  : 						DrawImage(graphics,DRAW_LIGHT);

  0102e	6a 01		 push	 1
  01030	8d 4d d8	 lea	 ecx, DWORD PTR _graphics$[ebp]
  01033	51		 push	 ecx
  01034	8b 8d 04 f7 ff
	ff		 mov	 ecx, DWORD PTR _this$[ebp]
  0103a	e8 00 00 00 00	 call	 ?DrawImage@CSkinButton2@@AAEXAAVGraphics@Gdiplus@@W4BTN_DRAW_HUE@1@@Z ; CSkinButton2::DrawImage
$L197749:

; 315  : 					}	
; 316  : 				}
; 317  : 				else if (lState & ODS_FOCUS)

  0103f	e9 82 00 00 00	 jmp	 $L197740
$L197748:
  01044	8b 55 a0	 mov	 edx, DWORD PTR _lState$[ebp]
  01047	83 e2 10	 and	 edx, 16			; 00000010H
  0104a	74 3e		 je	 SHORT $L197751

; 318  : 				{				
; 319  : 					if( m_enmuDrawType == NO_FRAME_SELECT )

  0104c	8b 85 04 f7 ff
	ff		 mov	 eax, DWORD PTR _this$[ebp]
  01052	83 78 54 10	 cmp	 DWORD PTR [eax+84], 16	; 00000010H
  01056	75 13		 jne	 SHORT $L197752

; 320  : 					{
; 321  : 						DrawFrame(graphics,rect );

  01058	8d 4d e0	 lea	 ecx, DWORD PTR _rect$[ebp]
  0105b	51		 push	 ecx
  0105c	8d 55 d8	 lea	 edx, DWORD PTR _graphics$[ebp]
  0105f	52		 push	 edx
  01060	8b 8d 04 f7 ff
	ff		 mov	 ecx, DWORD PTR _this$[ebp]
  01066	e8 00 00 00 00	 call	 ?DrawFrame@CSkinButton2@@AAEXAAVGraphics@Gdiplus@@AAVCRect@@@Z ; CSkinButton2::DrawFrame
$L197752:

; 322  : 					}
; 323  : 					if( m_enmuDrawType != NO_FRAME_SELECT )

  0106b	8b 85 04 f7 ff
	ff		 mov	 eax, DWORD PTR _this$[ebp]
  01071	83 78 54 10	 cmp	 DWORD PTR [eax+84], 16	; 00000010H
  01075	74 11		 je	 SHORT $L197753

; 324  : 					{
; 325  : 						DrawImage(graphics);

  01077	6a 00		 push	 0
  01079	8d 4d d8	 lea	 ecx, DWORD PTR _graphics$[ebp]
  0107c	51		 push	 ecx
  0107d	8b 8d 04 f7 ff
	ff		 mov	 ecx, DWORD PTR _this$[ebp]
  01083	e8 00 00 00 00	 call	 ?DrawImage@CSkinButton2@@AAEXAAVGraphics@Gdiplus@@W4BTN_DRAW_HUE@1@@Z ; CSkinButton2::DrawImage
$L197753:

; 326  : 					}
; 327  : 				}
; 328  : 				else

  01088	eb 3c		 jmp	 SHORT $L197740
$L197751:

; 329  : 				{
; 330  : 					if( m_enmuDrawType == NO_FRAME_SELECT )

  0108a	8b 95 04 f7 ff
	ff		 mov	 edx, DWORD PTR _this$[ebp]
  01090	83 7a 54 10	 cmp	 DWORD PTR [edx+84], 16	; 00000010H
  01094	75 13		 jne	 SHORT $L197755

; 331  : 					{
; 332  : 						DrawFrame(graphics,rect );

  01096	8d 45 e0	 lea	 eax, DWORD PTR _rect$[ebp]
  01099	50		 push	 eax
  0109a	8d 4d d8	 lea	 ecx, DWORD PTR _graphics$[ebp]
  0109d	51		 push	 ecx
  0109e	8b 8d 04 f7 ff
	ff		 mov	 ecx, DWORD PTR _this$[ebp]
  010a4	e8 00 00 00 00	 call	 ?DrawFrame@CSkinButton2@@AAEXAAVGraphics@Gdiplus@@AAVCRect@@@Z ; CSkinButton2::DrawFrame
$L197755:

; 333  : 					}
; 334  : 					if( m_enmuDrawType != NO_FRAME_SELECT )

  010a9	8b 95 04 f7 ff
	ff		 mov	 edx, DWORD PTR _this$[ebp]
  010af	83 7a 54 10	 cmp	 DWORD PTR [edx+84], 16	; 00000010H
  010b3	74 11		 je	 SHORT $L197740

; 335  : 					{
; 336  : 						DrawImage(graphics);

  010b5	6a 00		 push	 0
  010b7	8d 45 d8	 lea	 eax, DWORD PTR _graphics$[ebp]
  010ba	50		 push	 eax
  010bb	8b 8d 04 f7 ff
	ff		 mov	 ecx, DWORD PTR _this$[ebp]
  010c1	e8 00 00 00 00	 call	 ?DrawImage@CSkinButton2@@AAEXAAVGraphics@Gdiplus@@W4BTN_DRAW_HUE@1@@Z ; CSkinButton2::DrawImage
$L197740:

; 337  : 					}
; 338  : 				}
; 339  : 			}
; 340  : 			//graphics
; 341  : 		}
; 342  : 	}
; 343  : 
; 344  : 	if( m_strText.GetLength() > 0 && m_pPngImage == NULL )

  010c6	8b 8d 04 f7 ff
	ff		 mov	 ecx, DWORD PTR _this$[ebp]
  010cc	81 c1 64 01 00
	00		 add	 ecx, 356		; 00000164H
  010d2	ff 15 00 00 00
	00		 call	 DWORD PTR __imp_?GetLength@?$CSimpleStringT@D$00@ATL@@QBEHXZ
  010d8	85 c0		 test	 eax, eax
  010da	0f 8e a5 03 00
	00		 jle	 $L197757
  010e0	8b 8d 04 f7 ff
	ff		 mov	 ecx, DWORD PTR _this$[ebp]
  010e6	83 79 7c 00	 cmp	 DWORD PTR [ecx+124], 0
  010ea	0f 85 95 03 00
	00		 jne	 $L197757

; 345  : 	{
; 346  : 		Gdiplus::Bitmap bmpText( rect.Width(), rect.Height(), &graphics );

  010f0	8d 55 d8	 lea	 edx, DWORD PTR _graphics$[ebp]
  010f3	52		 push	 edx
  010f4	8d 4d e0	 lea	 ecx, DWORD PTR _rect$[ebp]
  010f7	e8 00 00 00 00	 call	 ?Height@CRect@@QBEHXZ	; CRect::Height
  010fc	50		 push	 eax
  010fd	8d 4d e0	 lea	 ecx, DWORD PTR _rect$[ebp]
  01100	e8 00 00 00 00	 call	 ?Width@CRect@@QBEHXZ	; CRect::Width
  01105	50		 push	 eax
  01106	8d 8d 54 f7 ff
	ff		 lea	 ecx, DWORD PTR _bmpText$197758[ebp]
  0110c	e8 00 00 00 00	 call	 ??0Bitmap@Gdiplus@@QAE@HHPAVGraphics@1@@Z ; Gdiplus::Bitmap::Bitmap
  01111	c6 45 fc 04	 mov	 BYTE PTR __$EHRec$[ebp+8], 4

; 347  : 		Graphics* Ptext=Graphics::FromImage(&bmpText);

  01115	8d 85 54 f7 ff
	ff		 lea	 eax, DWORD PTR _bmpText$197758[ebp]
  0111b	50		 push	 eax
  0111c	e8 00 00 00 00	 call	 ?FromImage@Graphics@Gdiplus@@SAPAV12@PAVImage@2@@Z ; Gdiplus::Graphics::FromImage
  01121	83 c4 04	 add	 esp, 4
  01124	89 85 28 f7 ff
	ff		 mov	 DWORD PTR _Ptext$197759[ebp], eax

; 348  : 		//	Ptext->SetTextRenderingHint(Gdiplus::TextRenderingHintAntiAlias);
; 349  : 
; 350  : 		//Matrix mx(0.25f,0,0,0.25f,1,1);
; 351  : 		//Ptext->SetTransform(&mx);
; 352  : 
; 353  : 		Gdiplus::RectF rc( rect.left, rect.top, rect.Width(), rect.Height() );

  0112a	8d 4d e0	 lea	 ecx, DWORD PTR _rect$[ebp]
  0112d	e8 00 00 00 00	 call	 ?Height@CRect@@QBEHXZ	; CRect::Height
  01132	89 85 00 f7 ff
	ff		 mov	 DWORD PTR tv483[ebp], eax
  01138	db 85 00 f7 ff
	ff		 fild	 DWORD PTR tv483[ebp]
  0113e	51		 push	 ecx
  0113f	d9 1c 24	 fstp	 DWORD PTR [esp]
  01142	8d 4d e0	 lea	 ecx, DWORD PTR _rect$[ebp]
  01145	e8 00 00 00 00	 call	 ?Width@CRect@@QBEHXZ	; CRect::Width
  0114a	89 85 fc f6 ff
	ff		 mov	 DWORD PTR tv485[ebp], eax
  01150	db 85 fc f6 ff
	ff		 fild	 DWORD PTR tv485[ebp]
  01156	51		 push	 ecx
  01157	d9 1c 24	 fstp	 DWORD PTR [esp]
  0115a	db 45 e4	 fild	 DWORD PTR _rect$[ebp+4]
  0115d	51		 push	 ecx
  0115e	d9 1c 24	 fstp	 DWORD PTR [esp]
  01161	db 45 e0	 fild	 DWORD PTR _rect$[ebp]
  01164	51		 push	 ecx
  01165	d9 1c 24	 fstp	 DWORD PTR [esp]
  01168	8d 8d 6c ff ff
	ff		 lea	 ecx, DWORD PTR _rc$197760[ebp]
  0116e	e8 00 00 00 00	 call	 ??0RectF@Gdiplus@@QAE@MMMM@Z ; Gdiplus::RectF::RectF

; 354  : 
; 355  : 		WCHAR   wFile[1024];   
; 356  : #ifndef   UNICODE   
; 357  : 		MultiByteToWideChar(CP_ACP,   0,   LPCTSTR(m_strText),   -1,   wFile,  1024 );   

  01173	68 00 04 00 00	 push	 1024			; 00000400H
  01178	8d 8d 64 f7 ff
	ff		 lea	 ecx, DWORD PTR _wFile$197761[ebp]
  0117e	51		 push	 ecx
  0117f	6a ff		 push	 -1
  01181	8b 8d 04 f7 ff
	ff		 mov	 ecx, DWORD PTR _this$[ebp]
  01187	81 c1 64 01 00
	00		 add	 ecx, 356		; 00000164H
  0118d	ff 15 00 00 00
	00		 call	 DWORD PTR __imp_??B?$CSimpleStringT@D$00@ATL@@QBEPBDXZ
  01193	50		 push	 eax
  01194	6a 00		 push	 0
  01196	6a 00		 push	 0
  01198	ff 15 00 00 00
	00		 call	 DWORD PTR __imp__MultiByteToWideChar@24

; 358  : #else   
; 359  : 		lstrcpy(wFile,   szFile);   
; 360  : #endif 
; 361  : 
; 362  : 		StringFormat format;

  0119e	6a 00		 push	 0
  011a0	6a 00		 push	 0
  011a2	8d 8d 3c f7 ff
	ff		 lea	 ecx, DWORD PTR _format$197762[ebp]
  011a8	e8 00 00 00 00	 call	 ??0StringFormat@Gdiplus@@QAE@HG@Z ; Gdiplus::StringFormat::StringFormat
  011ad	c6 45 fc 05	 mov	 BYTE PTR __$EHRec$[ebp+8], 5

; 363  : 		format.SetAlignment( StringAlignmentCenter );

  011b1	6a 01		 push	 1
  011b3	8d 8d 3c f7 ff
	ff		 lea	 ecx, DWORD PTR _format$197762[ebp]
  011b9	e8 00 00 00 00	 call	 ?SetAlignment@StringFormat@Gdiplus@@QAE?AW4Status@2@W4StringAlignment@2@@Z ; Gdiplus::StringFormat::SetAlignment

; 364  : 
; 365  : 		Gdiplus::RectF rectText, rectBack;

  011be	8d 8d 2c f7 ff
	ff		 lea	 ecx, DWORD PTR _rectText$197763[ebp]
  011c4	e8 00 00 00 00	 call	 ??0RectF@Gdiplus@@QAE@XZ ; Gdiplus::RectF::RectF
  011c9	8d 8d 44 f7 ff
	ff		 lea	 ecx, DWORD PTR _rectBack$197764[ebp]
  011cf	e8 00 00 00 00	 call	 ??0RectF@Gdiplus@@QAE@XZ ; Gdiplus::RectF::RectF

; 366  : 		rectText.X = rc.X;

  011d4	8b 95 6c ff ff
	ff		 mov	 edx, DWORD PTR _rc$197760[ebp]
  011da	89 95 2c f7 ff
	ff		 mov	 DWORD PTR _rectText$197763[ebp], edx

; 367  : 		rectText.Y = rc.Y+ ( rc.Height-m_nWidth)/2;

  011e0	8b 85 04 f7 ff
	ff		 mov	 eax, DWORD PTR _this$[ebp]
  011e6	8b 88 68 01 00
	00		 mov	 ecx, DWORD PTR [eax+360]
  011ec	89 8d f4 f6 ff
	ff		 mov	 DWORD PTR tv496[ebp], ecx
  011f2	c7 85 f8 f6 ff
	ff 00 00 00 00	 mov	 DWORD PTR tv496[ebp+4], 0
  011fc	df ad f4 f6 ff
	ff		 fild	 QWORD PTR tv496[ebp]
  01202	d8 ad 78 ff ff
	ff		 fsubr	 DWORD PTR _rc$197760[ebp+12]
  01208	d8 35 00 00 00
	00		 fdiv	 DWORD PTR __real@40000000
  0120e	d8 85 70 ff ff
	ff		 fadd	 DWORD PTR _rc$197760[ebp+4]
  01214	d9 9d 30 f7 ff
	ff		 fstp	 DWORD PTR _rectText$197763[ebp+4]

; 368  : 		rectText.Width = rc.Width;

  0121a	8b 95 74 ff ff
	ff		 mov	 edx, DWORD PTR _rc$197760[ebp+8]
  01220	89 95 34 f7 ff
	ff		 mov	 DWORD PTR _rectText$197763[ebp+8], edx

; 369  : 		rectText.Height = m_nWidth + rc.Height/2;

  01226	8b 85 04 f7 ff
	ff		 mov	 eax, DWORD PTR _this$[ebp]
  0122c	8b 88 68 01 00
	00		 mov	 ecx, DWORD PTR [eax+360]
  01232	89 8d ec f6 ff
	ff		 mov	 DWORD PTR tv502[ebp], ecx
  01238	c7 85 f0 f6 ff
	ff 00 00 00 00	 mov	 DWORD PTR tv502[ebp+4], 0
  01242	df ad ec f6 ff
	ff		 fild	 QWORD PTR tv502[ebp]
  01248	d9 85 78 ff ff
	ff		 fld	 DWORD PTR _rc$197760[ebp+12]
  0124e	d8 35 00 00 00
	00		 fdiv	 DWORD PTR __real@40000000
  01254	de c1		 faddp	 ST(1), ST(0)
  01256	d9 9d 38 f7 ff
	ff		 fstp	 DWORD PTR _rectText$197763[ebp+12]

; 370  : 
; 371  : 		rectBack.X = rc.X+2;

  0125c	d9 85 6c ff ff
	ff		 fld	 DWORD PTR _rc$197760[ebp]
  01262	d8 05 00 00 00
	00		 fadd	 DWORD PTR __real@40000000
  01268	d9 9d 44 f7 ff
	ff		 fstp	 DWORD PTR _rectBack$197764[ebp]

; 372  : 		rectBack.Y = rc.Y+1+ ( rc.Height-m_nWidth)/2;

  0126e	d9 85 70 ff ff
	ff		 fld	 DWORD PTR _rc$197760[ebp+4]
  01274	d8 05 00 00 00
	00		 fadd	 DWORD PTR __real@3f800000
  0127a	8b 95 04 f7 ff
	ff		 mov	 edx, DWORD PTR _this$[ebp]
  01280	8b 82 68 01 00
	00		 mov	 eax, DWORD PTR [edx+360]
  01286	89 85 e4 f6 ff
	ff		 mov	 DWORD PTR tv510[ebp], eax
  0128c	c7 85 e8 f6 ff
	ff 00 00 00 00	 mov	 DWORD PTR tv510[ebp+4], 0
  01296	df ad e4 f6 ff
	ff		 fild	 QWORD PTR tv510[ebp]
  0129c	d8 ad 78 ff ff
	ff		 fsubr	 DWORD PTR _rc$197760[ebp+12]
  012a2	d8 35 00 00 00
	00		 fdiv	 DWORD PTR __real@40000000
  012a8	de c1		 faddp	 ST(1), ST(0)
  012aa	d9 9d 48 f7 ff
	ff		 fstp	 DWORD PTR _rectBack$197764[ebp+4]

; 373  : 		rectBack.Width = rc.Width-2;

  012b0	d9 85 74 ff ff
	ff		 fld	 DWORD PTR _rc$197760[ebp+8]
  012b6	d8 25 00 00 00
	00		 fsub	 DWORD PTR __real@40000000
  012bc	d9 9d 4c f7 ff
	ff		 fstp	 DWORD PTR _rectBack$197764[ebp+8]

; 374  : 		rectBack.Height = m_nWidth + rc.Height/2-1;

  012c2	8b 8d 04 f7 ff
	ff		 mov	 ecx, DWORD PTR _this$[ebp]
  012c8	8b 91 68 01 00
	00		 mov	 edx, DWORD PTR [ecx+360]
  012ce	89 95 dc f6 ff
	ff		 mov	 DWORD PTR tv516[ebp], edx
  012d4	c7 85 e0 f6 ff
	ff 00 00 00 00	 mov	 DWORD PTR tv516[ebp+4], 0
  012de	df ad dc f6 ff
	ff		 fild	 QWORD PTR tv516[ebp]
  012e4	d9 85 78 ff ff
	ff		 fld	 DWORD PTR _rc$197760[ebp+12]
  012ea	d8 35 00 00 00
	00		 fdiv	 DWORD PTR __real@40000000
  012f0	de c1		 faddp	 ST(1), ST(0)
  012f2	d8 25 00 00 00
	00		 fsub	 DWORD PTR __real@3f800000
  012f8	d9 9d 50 f7 ff
	ff		 fstp	 DWORD PTR _rectBack$197764[ebp+12]

; 375  : 
; 376  : 		Ptext->DrawString( wFile,-1 ,mp_font,rectBack,&format,&SolidBrush(Color(100,0,0,0)) );

  012fe	6a 00		 push	 0
  01300	6a 00		 push	 0
  01302	6a 00		 push	 0
  01304	6a 64		 push	 100			; 00000064H
  01306	8d 8d 18 f7 ff
	ff		 lea	 ecx, DWORD PTR $T198735[ebp]
  0130c	e8 00 00 00 00	 call	 ??0Color@Gdiplus@@QAE@EEEE@Z ; Gdiplus::Color::Color
  01311	50		 push	 eax
  01312	8d 8d 1c f7 ff
	ff		 lea	 ecx, DWORD PTR $T198734[ebp]
  01318	e8 00 00 00 00	 call	 ??0SolidBrush@Gdiplus@@QAE@ABVColor@1@@Z ; Gdiplus::SolidBrush::SolidBrush
  0131d	89 85 d8 f6 ff
	ff		 mov	 DWORD PTR tv288[ebp], eax
  01323	8b 85 d8 f6 ff
	ff		 mov	 eax, DWORD PTR tv288[ebp]
  01329	89 85 d4 f6 ff
	ff		 mov	 DWORD PTR tv414[ebp], eax
  0132f	c6 45 fc 06	 mov	 BYTE PTR __$EHRec$[ebp+8], 6
  01333	8b 8d d4 f6 ff
	ff		 mov	 ecx, DWORD PTR tv414[ebp]
  01339	51		 push	 ecx
  0133a	8d 95 3c f7 ff
	ff		 lea	 edx, DWORD PTR _format$197762[ebp]
  01340	52		 push	 edx
  01341	8d 85 44 f7 ff
	ff		 lea	 eax, DWORD PTR _rectBack$197764[ebp]
  01347	50		 push	 eax
  01348	8b 8d 04 f7 ff
	ff		 mov	 ecx, DWORD PTR _this$[ebp]
  0134e	8b 91 80 01 00
	00		 mov	 edx, DWORD PTR [ecx+384]
  01354	52		 push	 edx
  01355	6a ff		 push	 -1
  01357	8d 85 64 f7 ff
	ff		 lea	 eax, DWORD PTR _wFile$197761[ebp]
  0135d	50		 push	 eax
  0135e	8b 8d 28 f7 ff
	ff		 mov	 ecx, DWORD PTR _Ptext$197759[ebp]
  01364	e8 00 00 00 00	 call	 ?DrawString@Graphics@Gdiplus@@QAE?AW4Status@2@PB_WHPBVFont@2@ABVRectF@2@PBVStringFormat@2@PBVBrush@2@@Z ; Gdiplus::Graphics::DrawString
  01369	c6 45 fc 05	 mov	 BYTE PTR __$EHRec$[ebp+8], 5
  0136d	8d 8d 1c f7 ff
	ff		 lea	 ecx, DWORD PTR $T198734[ebp]
  01373	e8 00 00 00 00	 call	 ??1SolidBrush@Gdiplus@@UAE@XZ

; 377  : 		//graphics.SetInterpolationMode( Gdiplus::InterpolationModeHighQualityBicubic);
; 378  : 		//graphics.SetTextRenderingHint(  Gdiplus::TextRenderingHintAntiAlias);
; 379  : 		graphics.DrawImage(&bmpText,rc,0,0,bmpText.GetWidth(),bmpText.GetHeight(),UnitPixel);

  01378	6a 00		 push	 0
  0137a	6a 00		 push	 0
  0137c	6a 00		 push	 0
  0137e	6a 02		 push	 2
  01380	8d 8d 54 f7 ff
	ff		 lea	 ecx, DWORD PTR _bmpText$197758[ebp]
  01386	e8 00 00 00 00	 call	 ?GetHeight@Image@Gdiplus@@QAEIXZ ; Gdiplus::Image::GetHeight
  0138b	89 85 cc f6 ff
	ff		 mov	 DWORD PTR tv531[ebp], eax
  01391	c7 85 d0 f6 ff
	ff 00 00 00 00	 mov	 DWORD PTR tv531[ebp+4], 0
  0139b	df ad cc f6 ff
	ff		 fild	 QWORD PTR tv531[ebp]
  013a1	51		 push	 ecx
  013a2	d9 1c 24	 fstp	 DWORD PTR [esp]
  013a5	8d 8d 54 f7 ff
	ff		 lea	 ecx, DWORD PTR _bmpText$197758[ebp]
  013ab	e8 00 00 00 00	 call	 ?GetWidth@Image@Gdiplus@@QAEIXZ ; Gdiplus::Image::GetWidth
  013b0	89 85 c4 f6 ff
	ff		 mov	 DWORD PTR tv535[ebp], eax
  013b6	c7 85 c8 f6 ff
	ff 00 00 00 00	 mov	 DWORD PTR tv535[ebp+4], 0
  013c0	df ad c4 f6 ff
	ff		 fild	 QWORD PTR tv535[ebp]
  013c6	51		 push	 ecx
  013c7	d9 1c 24	 fstp	 DWORD PTR [esp]
  013ca	6a 00		 push	 0
  013cc	6a 00		 push	 0
  013ce	8d 8d 6c ff ff
	ff		 lea	 ecx, DWORD PTR _rc$197760[ebp]
  013d4	51		 push	 ecx
  013d5	8d 95 54 f7 ff
	ff		 lea	 edx, DWORD PTR _bmpText$197758[ebp]
  013db	52		 push	 edx
  013dc	8d 4d d8	 lea	 ecx, DWORD PTR _graphics$[ebp]
  013df	e8 00 00 00 00	 call	 ?DrawImage@Graphics@Gdiplus@@QAE?AW4Status@2@PAVImage@2@ABVRectF@2@MMMMW4Unit@2@PBVImageAttributes@2@P6GHPAX@Z4@Z ; Gdiplus::Graphics::DrawImage

; 380  : 		graphics.DrawString(wFile,-1,mp_font,rectText,&format,&SolidBrush(Color(255,255,255,255)));

  013e4	68 ff 00 00 00	 push	 255			; 000000ffH
  013e9	68 ff 00 00 00	 push	 255			; 000000ffH
  013ee	68 ff 00 00 00	 push	 255			; 000000ffH
  013f3	68 ff 00 00 00	 push	 255			; 000000ffH
  013f8	8d 8d 08 f7 ff
	ff		 lea	 ecx, DWORD PTR $T198737[ebp]
  013fe	e8 00 00 00 00	 call	 ??0Color@Gdiplus@@QAE@EEEE@Z ; Gdiplus::Color::Color
  01403	50		 push	 eax
  01404	8d 8d 0c f7 ff
	ff		 lea	 ecx, DWORD PTR $T198736[ebp]
  0140a	e8 00 00 00 00	 call	 ??0SolidBrush@Gdiplus@@QAE@ABVColor@1@@Z ; Gdiplus::SolidBrush::SolidBrush
  0140f	89 85 c0 f6 ff
	ff		 mov	 DWORD PTR tv254[ebp], eax
  01415	8b 85 c0 f6 ff
	ff		 mov	 eax, DWORD PTR tv254[ebp]
  0141b	89 85 bc f6 ff
	ff		 mov	 DWORD PTR tv416[ebp], eax
  01421	c6 45 fc 07	 mov	 BYTE PTR __$EHRec$[ebp+8], 7
  01425	8b 8d bc f6 ff
	ff		 mov	 ecx, DWORD PTR tv416[ebp]
  0142b	51		 push	 ecx
  0142c	8d 95 3c f7 ff
	ff		 lea	 edx, DWORD PTR _format$197762[ebp]
  01432	52		 push	 edx
  01433	8d 85 2c f7 ff
	ff		 lea	 eax, DWORD PTR _rectText$197763[ebp]
  01439	50		 push	 eax
  0143a	8b 8d 04 f7 ff
	ff		 mov	 ecx, DWORD PTR _this$[ebp]
  01440	8b 91 80 01 00
	00		 mov	 edx, DWORD PTR [ecx+384]
  01446	52		 push	 edx
  01447	6a ff		 push	 -1
  01449	8d 85 64 f7 ff
	ff		 lea	 eax, DWORD PTR _wFile$197761[ebp]
  0144f	50		 push	 eax
  01450	8d 4d d8	 lea	 ecx, DWORD PTR _graphics$[ebp]
  01453	e8 00 00 00 00	 call	 ?DrawString@Graphics@Gdiplus@@QAE?AW4Status@2@PB_WHPBVFont@2@ABVRectF@2@PBVStringFormat@2@PBVBrush@2@@Z ; Gdiplus::Graphics::DrawString
  01458	c6 45 fc 05	 mov	 BYTE PTR __$EHRec$[ebp+8], 5
  0145c	8d 8d 0c f7 ff
	ff		 lea	 ecx, DWORD PTR $T198736[ebp]
  01462	e8 00 00 00 00	 call	 ??1SolidBrush@Gdiplus@@UAE@XZ

; 381  : 	}

  01467	c6 45 fc 04	 mov	 BYTE PTR __$EHRec$[ebp+8], 4
  0146b	8d 8d 3c f7 ff
	ff		 lea	 ecx, DWORD PTR _format$197762[ebp]
  01471	e8 00 00 00 00	 call	 ??1StringFormat@Gdiplus@@QAE@XZ ; Gdiplus::StringFormat::~StringFormat
  01476	c6 45 fc 02	 mov	 BYTE PTR __$EHRec$[ebp+8], 2
  0147a	8d 8d 54 f7 ff
	ff		 lea	 ecx, DWORD PTR _bmpText$197758[ebp]
  01480	e8 00 00 00 00	 call	 ??1Bitmap@Gdiplus@@UAE@XZ
$L197757:

; 382  : }

  01485	c6 45 fc 01	 mov	 BYTE PTR __$EHRec$[ebp+8], 1
  01489	8d 4d d0	 lea	 ecx, DWORD PTR _bmp$[ebp]
  0148c	e8 00 00 00 00	 call	 ??1CBitmap@@UAE@XZ	; CBitmap::~CBitmap
  01491	c6 45 fc 00	 mov	 BYTE PTR __$EHRec$[ebp+8], 0
  01495	8d 4d d8	 lea	 ecx, DWORD PTR _graphics$[ebp]
  01498	e8 00 00 00 00	 call	 ??1Graphics@Gdiplus@@QAE@XZ ; Gdiplus::Graphics::~Graphics
  0149d	c7 45 fc ff ff
	ff ff		 mov	 DWORD PTR __$EHRec$[ebp+8], -1
  014a4	8d 4d a4	 lea	 ecx, DWORD PTR _pDC$[ebp]
  014a7	e8 00 00 00 00	 call	 ??1CMemDC@@UAE@XZ	; CMemDC::~CMemDC
  014ac	8b 4d f4	 mov	 ecx, DWORD PTR __$EHRec$[ebp]
  014af	64 89 0d 00 00
	00 00		 mov	 DWORD PTR fs:__except_list, ecx
  014b6	8b 8d 68 ff ff
	ff		 mov	 ecx, DWORD PTR __$ArrayPad$[ebp]
  014bc	e8 00 00 00 00	 call	 @__security_check_cookie@4
  014c1	8b e5		 mov	 esp, ebp
  014c3	5d		 pop	 ebp
  014c4	c2 04 00	 ret	 4
_TEXT	ENDS
text$x	SEGMENT
$L198738:
  000ce	8d 4d a4	 lea	 ecx, DWORD PTR _pDC$[ebp]
  000d1	e9 00 00 00 00	 jmp	 ??1CMemDC@@UAE@XZ	; CMemDC::~CMemDC
$L198739:
  000d6	8d 4d d8	 lea	 ecx, DWORD PTR _graphics$[ebp]
  000d9	e9 00 00 00 00	 jmp	 ??1Graphics@Gdiplus@@QAE@XZ ; Gdiplus::Graphics::~Graphics
$L198740:
  000de	8d 4d d0	 lea	 ecx, DWORD PTR _bmp$[ebp]
  000e1	e9 00 00 00 00	 jmp	 ??1CBitmap@@UAE@XZ	; CBitmap::~CBitmap
$L198741:
  000e6	8d 4d 8c	 lea	 ecx, DWORD PTR _clDC$197736[ebp]
  000e9	e9 00 00 00 00	 jmp	 ??1CClientDC@@UAE@XZ	; CClientDC::~CClientDC
$L198742:
  000ee	8d 8d 54 f7 ff
	ff		 lea	 ecx, DWORD PTR _bmpText$197758[ebp]
  000f4	e9 00 00 00 00	 jmp	 ??1Bitmap@Gdiplus@@UAE@XZ
$L198743:
  000f9	8d 8d 3c f7 ff
	ff		 lea	 ecx, DWORD PTR _format$197762[ebp]
  000ff	e9 00 00 00 00	 jmp	 ??1StringFormat@Gdiplus@@QAE@XZ ; Gdiplus::StringFormat::~StringFormat
$L198744:
  00104	8d 8d 1c f7 ff
	ff		 lea	 ecx, DWORD PTR $T198734[ebp]
  0010a	e9 00 00 00 00	 jmp	 ??1SolidBrush@Gdiplus@@UAE@XZ
$L198745:
  0010f	8d 8d 0c f7 ff
	ff		 lea	 ecx, DWORD PTR $T198736[ebp]
  00115	e9 00 00 00 00	 jmp	 ??1SolidBrush@Gdiplus@@UAE@XZ
__ehhandler$?DrawItem@CSkinButton2@@UAEXPAUtagDRAWITEMSTRUCT@@@Z:
  0011a	b8 00 00 00 00	 mov	 eax, OFFSET FLAT:$T198747
  0011f	e9 00 00 00 00	 jmp	 ___CxxFrameHandler
text$x	ENDS
?DrawItem@CSkinButton2@@UAEXPAUtagDRAWITEMSTRUCT@@@Z ENDP ; CSkinButton2::DrawItem
PUBLIC	?DrawImage@Graphics@Gdiplus@@QAE?AW4Status@2@PAVImage@2@ABVRectF@2@@Z ; Gdiplus::Graphics::DrawImage
PUBLIC	??0ImageAttributes@Gdiplus@@QAE@XZ		; Gdiplus::ImageAttributes::ImageAttributes
PUBLIC	??1ImageAttributes@Gdiplus@@QAE@XZ		; Gdiplus::ImageAttributes::~ImageAttributes
PUBLIC	?SetColorMatrix@ImageAttributes@Gdiplus@@QAE?AW4Status@2@PBUColorMatrix@2@W4ColorMatrixFlags@2@W4ColorAdjustType@2@@Z ; Gdiplus::ImageAttributes::SetColorMatrix
PUBLIC	??BCGdiPlusBitmap@@QBEPAVBitmap@Gdiplus@@XZ	; CGdiPlusBitmap::operator Gdiplus::Bitmap *
xdata$x	SEGMENT
$T198761 DD	0ffffffffH
	DD	FLAT:$L198756
	DD	0ffffffffH
	DD	FLAT:$L198757
$T198759 DD	019930520H
	DD	02H
	DD	FLAT:$T198761
	DD	2 DUP(00H)
	DD	2 DUP(00H)
; Function compile flags: /Odt
xdata$x	ENDS
_TEXT	SEGMENT
tv295 = -128						; size = 8
tv290 = -120						; size = 8
tv272 = -112						; size = 8
tv267 = -104						; size = 8
tv256 = -96						; size = 8
tv251 = -88						; size = 8
_this$ = -80						; size = 4
_grect$197786 = -76					; size = 16
_ia$197785 = -60					; size = 8
_grect$197781 = -52					; size = 16
_ia$197780 = -36					; size = 8
_grect$197776 = -28					; size = 16
__$EHRec$ = -12						; size = 12
_gdi$ = 8						; size = 4
_hue$ = 12						; size = 4
?DrawImage@CSkinButton2@@AAEXAAVGraphics@Gdiplus@@W4BTN_DRAW_HUE@1@@Z PROC NEAR ; CSkinButton2::DrawImage
; _this$ = ecx

; 385  : {

  014d0	55		 push	 ebp
  014d1	8b ec		 mov	 ebp, esp
  014d3	6a ff		 push	 -1
  014d5	68 00 00 00 00	 push	 __ehhandler$?DrawImage@CSkinButton2@@AAEXAAVGraphics@Gdiplus@@W4BTN_DRAW_HUE@1@@Z
  014da	64 a1 00 00 00
	00		 mov	 eax, DWORD PTR fs:__except_list
  014e0	50		 push	 eax
  014e1	64 89 25 00 00
	00 00		 mov	 DWORD PTR fs:__except_list, esp
  014e8	83 ec 74	 sub	 esp, 116		; 00000074H
  014eb	89 4d b0	 mov	 DWORD PTR _this$[ebp], ecx

; 386  : 	if(hue == DRAW_NORMAL)

  014ee	83 7d 0c 00	 cmp	 DWORD PTR _hue$[ebp], 0
  014f2	0f 85 84 00 00
	00		 jne	 $L197774

; 387  : 	{
; 388  : 		if( m_pPngImage && m_pPngImage->m_pBitmap )

  014f8	8b 45 b0	 mov	 eax, DWORD PTR _this$[ebp]
  014fb	83 78 7c 00	 cmp	 DWORD PTR [eax+124], 0
  014ff	74 76		 je	 SHORT $L197775
  01501	8b 4d b0	 mov	 ecx, DWORD PTR _this$[ebp]
  01504	8b 51 7c	 mov	 edx, DWORD PTR [ecx+124]
  01507	83 7a 04 00	 cmp	 DWORD PTR [edx+4], 0
  0150b	74 6a		 je	 SHORT $L197775

; 389  : 		{
; 390  : 			RectF grect; grect.X=0, grect.Y=0; grect.Width = m_pPngImage->m_pBitmap->GetWidth(); grect.Height = m_pPngImage->m_pBitmap->GetHeight();

  0150d	8d 4d e4	 lea	 ecx, DWORD PTR _grect$197776[ebp]
  01510	e8 00 00 00 00	 call	 ??0RectF@Gdiplus@@QAE@XZ ; Gdiplus::RectF::RectF
  01515	c7 45 e4 00 00
	00 00		 mov	 DWORD PTR _grect$197776[ebp], 0
  0151c	c7 45 e8 00 00
	00 00		 mov	 DWORD PTR _grect$197776[ebp+4], 0
  01523	8b 45 b0	 mov	 eax, DWORD PTR _this$[ebp]
  01526	8b 48 7c	 mov	 ecx, DWORD PTR [eax+124]
  01529	8b 49 04	 mov	 ecx, DWORD PTR [ecx+4]
  0152c	e8 00 00 00 00	 call	 ?GetWidth@Image@Gdiplus@@QAEIXZ ; Gdiplus::Image::GetWidth
  01531	89 45 a8	 mov	 DWORD PTR tv251[ebp], eax
  01534	c7 45 ac 00 00
	00 00		 mov	 DWORD PTR tv251[ebp+4], 0
  0153b	df 6d a8	 fild	 QWORD PTR tv251[ebp]
  0153e	d9 5d ec	 fstp	 DWORD PTR _grect$197776[ebp+8]
  01541	8b 55 b0	 mov	 edx, DWORD PTR _this$[ebp]
  01544	8b 42 7c	 mov	 eax, DWORD PTR [edx+124]
  01547	8b 48 04	 mov	 ecx, DWORD PTR [eax+4]
  0154a	e8 00 00 00 00	 call	 ?GetHeight@Image@Gdiplus@@QAEIXZ ; Gdiplus::Image::GetHeight
  0154f	89 45 a0	 mov	 DWORD PTR tv256[ebp], eax
  01552	c7 45 a4 00 00
	00 00		 mov	 DWORD PTR tv256[ebp+4], 0
  01559	df 6d a0	 fild	 QWORD PTR tv256[ebp]
  0155c	d9 5d f0	 fstp	 DWORD PTR _grect$197776[ebp+12]

; 391  : 			gdi.DrawImage(*m_pPngImage,grect );

  0155f	8d 4d e4	 lea	 ecx, DWORD PTR _grect$197776[ebp]
  01562	51		 push	 ecx
  01563	8b 55 b0	 mov	 edx, DWORD PTR _this$[ebp]
  01566	8b 4a 7c	 mov	 ecx, DWORD PTR [edx+124]
  01569	e8 00 00 00 00	 call	 ??BCGdiPlusBitmap@@QBEPAVBitmap@Gdiplus@@XZ ; CGdiPlusBitmap::operator Gdiplus::Bitmap *
  0156e	50		 push	 eax
  0156f	8b 4d 08	 mov	 ecx, DWORD PTR _gdi$[ebp]
  01572	e8 00 00 00 00	 call	 ?DrawImage@Graphics@Gdiplus@@QAE?AW4Status@2@PAVImage@2@ABVRectF@2@@Z ; Gdiplus::Graphics::DrawImage
$L197775:

; 392  : 		}
; 393  : 	}
; 394  : 	else if(hue == DRAW_LIGHT)

  01577	e9 ba 01 00 00	 jmp	 $L197773
$L197774:
  0157c	83 7d 0c 01	 cmp	 DWORD PTR _hue$[ebp], 1
  01580	0f 85 d5 00 00
	00		 jne	 $L197778

; 395  : 	{
; 396  : 		if( m_pPngImage && m_pPngImage->m_pBitmap )

  01586	8b 45 b0	 mov	 eax, DWORD PTR _this$[ebp]
  01589	83 78 7c 00	 cmp	 DWORD PTR [eax+124], 0
  0158d	0f 84 c3 00 00
	00		 je	 $L197779
  01593	8b 4d b0	 mov	 ecx, DWORD PTR _this$[ebp]
  01596	8b 51 7c	 mov	 edx, DWORD PTR [ecx+124]
  01599	83 7a 04 00	 cmp	 DWORD PTR [edx+4], 0
  0159d	0f 84 b3 00 00
	00		 je	 $L197779

; 397  : 		{
; 398  : 			ImageAttributes ia;

  015a3	8d 4d dc	 lea	 ecx, DWORD PTR _ia$197780[ebp]
  015a6	e8 00 00 00 00	 call	 ??0ImageAttributes@Gdiplus@@QAE@XZ ; Gdiplus::ImageAttributes::ImageAttributes
  015ab	c7 45 fc 00 00
	00 00		 mov	 DWORD PTR __$EHRec$[ebp+8], 0

; 399  : 			ia.SetColorMatrix(&m_LightMat);

  015b2	6a 00		 push	 0
  015b4	6a 00		 push	 0
  015b6	8b 45 b0	 mov	 eax, DWORD PTR _this$[ebp]
  015b9	05 9c 00 00 00	 add	 eax, 156		; 0000009cH
  015be	50		 push	 eax
  015bf	8d 4d dc	 lea	 ecx, DWORD PTR _ia$197780[ebp]
  015c2	e8 00 00 00 00	 call	 ?SetColorMatrix@ImageAttributes@Gdiplus@@QAE?AW4Status@2@PBUColorMatrix@2@W4ColorMatrixFlags@2@W4ColorAdjustType@2@@Z ; Gdiplus::ImageAttributes::SetColorMatrix

; 400  : 			RectF grect; grect.X=0, grect.Y=0; grect.Width = m_pPngImage->m_pBitmap->GetWidth(); grect.Height = m_pPngImage->m_pBitmap->GetHeight();

  015c7	8d 4d cc	 lea	 ecx, DWORD PTR _grect$197781[ebp]
  015ca	e8 00 00 00 00	 call	 ??0RectF@Gdiplus@@QAE@XZ ; Gdiplus::RectF::RectF
  015cf	c7 45 cc 00 00
	00 00		 mov	 DWORD PTR _grect$197781[ebp], 0
  015d6	c7 45 d0 00 00
	00 00		 mov	 DWORD PTR _grect$197781[ebp+4], 0
  015dd	8b 4d b0	 mov	 ecx, DWORD PTR _this$[ebp]
  015e0	8b 51 7c	 mov	 edx, DWORD PTR [ecx+124]
  015e3	8b 4a 04	 mov	 ecx, DWORD PTR [edx+4]
  015e6	e8 00 00 00 00	 call	 ?GetWidth@Image@Gdiplus@@QAEIXZ ; Gdiplus::Image::GetWidth
  015eb	89 45 98	 mov	 DWORD PTR tv267[ebp], eax
  015ee	c7 45 9c 00 00
	00 00		 mov	 DWORD PTR tv267[ebp+4], 0
  015f5	df 6d 98	 fild	 QWORD PTR tv267[ebp]
  015f8	d9 5d d4	 fstp	 DWORD PTR _grect$197781[ebp+8]
  015fb	8b 45 b0	 mov	 eax, DWORD PTR _this$[ebp]
  015fe	8b 48 7c	 mov	 ecx, DWORD PTR [eax+124]
  01601	8b 49 04	 mov	 ecx, DWORD PTR [ecx+4]
  01604	e8 00 00 00 00	 call	 ?GetHeight@Image@Gdiplus@@QAEIXZ ; Gdiplus::Image::GetHeight
  01609	89 45 90	 mov	 DWORD PTR tv272[ebp], eax
  0160c	c7 45 94 00 00
	00 00		 mov	 DWORD PTR tv272[ebp+4], 0
  01613	df 6d 90	 fild	 QWORD PTR tv272[ebp]
  01616	d9 5d d8	 fstp	 DWORD PTR _grect$197781[ebp+12]

; 401  : 			gdi.DrawImage(*m_pPngImage, grect, 0, 0, grect.Width, grect.Height, UnitPixel, &ia);

  01619	6a 00		 push	 0
  0161b	6a 00		 push	 0
  0161d	8d 55 dc	 lea	 edx, DWORD PTR _ia$197780[ebp]
  01620	52		 push	 edx
  01621	6a 02		 push	 2
  01623	8b 45 d8	 mov	 eax, DWORD PTR _grect$197781[ebp+12]
  01626	50		 push	 eax
  01627	8b 4d d4	 mov	 ecx, DWORD PTR _grect$197781[ebp+8]
  0162a	51		 push	 ecx
  0162b	6a 00		 push	 0
  0162d	6a 00		 push	 0
  0162f	8d 55 cc	 lea	 edx, DWORD PTR _grect$197781[ebp]
  01632	52		 push	 edx
  01633	8b 45 b0	 mov	 eax, DWORD PTR _this$[ebp]
  01636	8b 48 7c	 mov	 ecx, DWORD PTR [eax+124]
  01639	e8 00 00 00 00	 call	 ??BCGdiPlusBitmap@@QBEPAVBitmap@Gdiplus@@XZ ; CGdiPlusBitmap::operator Gdiplus::Bitmap *
  0163e	50		 push	 eax
  0163f	8b 4d 08	 mov	 ecx, DWORD PTR _gdi$[ebp]
  01642	e8 00 00 00 00	 call	 ?DrawImage@Graphics@Gdiplus@@QAE?AW4Status@2@PAVImage@2@ABVRectF@2@MMMMW4Unit@2@PBVImageAttributes@2@P6GHPAX@Z4@Z ; Gdiplus::Graphics::DrawImage

; 402  : 		}

  01647	c7 45 fc ff ff
	ff ff		 mov	 DWORD PTR __$EHRec$[ebp+8], -1
  0164e	8d 4d dc	 lea	 ecx, DWORD PTR _ia$197780[ebp]
  01651	e8 00 00 00 00	 call	 ??1ImageAttributes@Gdiplus@@QAE@XZ ; Gdiplus::ImageAttributes::~ImageAttributes
$L197779:

; 403  : 	}
; 404  : 	else if(hue == DRAW_GRAY )

  01656	e9 db 00 00 00	 jmp	 $L197773
$L197778:
  0165b	83 7d 0c 02	 cmp	 DWORD PTR _hue$[ebp], 2
  0165f	0f 85 d1 00 00
	00		 jne	 $L197773

; 405  : 	{
; 406  : 		if( m_pPngImage && m_pPngImage->m_pBitmap )

  01665	8b 4d b0	 mov	 ecx, DWORD PTR _this$[ebp]
  01668	83 79 7c 00	 cmp	 DWORD PTR [ecx+124], 0
  0166c	0f 84 c4 00 00
	00		 je	 $L197773
  01672	8b 55 b0	 mov	 edx, DWORD PTR _this$[ebp]
  01675	8b 42 7c	 mov	 eax, DWORD PTR [edx+124]
  01678	83 78 04 00	 cmp	 DWORD PTR [eax+4], 0
  0167c	0f 84 b4 00 00
	00		 je	 $L197773

; 407  : 		{
; 408  : 			ImageAttributes ia;

  01682	8d 4d c4	 lea	 ecx, DWORD PTR _ia$197785[ebp]
  01685	e8 00 00 00 00	 call	 ??0ImageAttributes@Gdiplus@@QAE@XZ ; Gdiplus::ImageAttributes::ImageAttributes
  0168a	c7 45 fc 01 00
	00 00		 mov	 DWORD PTR __$EHRec$[ebp+8], 1

; 409  : 			ia.SetColorMatrix(&m_GrayMat);

  01691	6a 00		 push	 0
  01693	6a 00		 push	 0
  01695	8b 4d b0	 mov	 ecx, DWORD PTR _this$[ebp]
  01698	81 c1 00 01 00
	00		 add	 ecx, 256		; 00000100H
  0169e	51		 push	 ecx
  0169f	8d 4d c4	 lea	 ecx, DWORD PTR _ia$197785[ebp]
  016a2	e8 00 00 00 00	 call	 ?SetColorMatrix@ImageAttributes@Gdiplus@@QAE?AW4Status@2@PBUColorMatrix@2@W4ColorMatrixFlags@2@W4ColorAdjustType@2@@Z ; Gdiplus::ImageAttributes::SetColorMatrix

; 410  : 			RectF grect; grect.X=0, grect.Y=0; grect.Width = m_pPngImage->m_pBitmap->GetWidth(); grect.Height = m_pPngImage->m_pBitmap->GetHeight();

  016a7	8d 4d b4	 lea	 ecx, DWORD PTR _grect$197786[ebp]
  016aa	e8 00 00 00 00	 call	 ??0RectF@Gdiplus@@QAE@XZ ; Gdiplus::RectF::RectF
  016af	c7 45 b4 00 00
	00 00		 mov	 DWORD PTR _grect$197786[ebp], 0
  016b6	c7 45 b8 00 00
	00 00		 mov	 DWORD PTR _grect$197786[ebp+4], 0
  016bd	8b 55 b0	 mov	 edx, DWORD PTR _this$[ebp]
  016c0	8b 42 7c	 mov	 eax, DWORD PTR [edx+124]
  016c3	8b 48 04	 mov	 ecx, DWORD PTR [eax+4]
  016c6	e8 00 00 00 00	 call	 ?GetWidth@Image@Gdiplus@@QAEIXZ ; Gdiplus::Image::GetWidth
  016cb	89 45 88	 mov	 DWORD PTR tv290[ebp], eax
  016ce	c7 45 8c 00 00
	00 00		 mov	 DWORD PTR tv290[ebp+4], 0
  016d5	df 6d 88	 fild	 QWORD PTR tv290[ebp]
  016d8	d9 5d bc	 fstp	 DWORD PTR _grect$197786[ebp+8]
  016db	8b 4d b0	 mov	 ecx, DWORD PTR _this$[ebp]
  016de	8b 51 7c	 mov	 edx, DWORD PTR [ecx+124]
  016e1	8b 4a 04	 mov	 ecx, DWORD PTR [edx+4]
  016e4	e8 00 00 00 00	 call	 ?GetHeight@Image@Gdiplus@@QAEIXZ ; Gdiplus::Image::GetHeight
  016e9	89 45 80	 mov	 DWORD PTR tv295[ebp], eax
  016ec	c7 45 84 00 00
	00 00		 mov	 DWORD PTR tv295[ebp+4], 0
  016f3	df 6d 80	 fild	 QWORD PTR tv295[ebp]
  016f6	d9 5d c0	 fstp	 DWORD PTR _grect$197786[ebp+12]

; 411  : 			gdi.DrawImage(*m_pPngImage, grect, 0, 0, grect.Width, grect.Height, UnitPixel, &ia);

  016f9	6a 00		 push	 0
  016fb	6a 00		 push	 0
  016fd	8d 45 c4	 lea	 eax, DWORD PTR _ia$197785[ebp]
  01700	50		 push	 eax
  01701	6a 02		 push	 2
  01703	8b 4d c0	 mov	 ecx, DWORD PTR _grect$197786[ebp+12]
  01706	51		 push	 ecx
  01707	8b 55 bc	 mov	 edx, DWORD PTR _grect$197786[ebp+8]
  0170a	52		 push	 edx
  0170b	6a 00		 push	 0
  0170d	6a 00		 push	 0
  0170f	8d 45 b4	 lea	 eax, DWORD PTR _grect$197786[ebp]
  01712	50		 push	 eax
  01713	8b 4d b0	 mov	 ecx, DWORD PTR _this$[ebp]
  01716	8b 49 7c	 mov	 ecx, DWORD PTR [ecx+124]
  01719	e8 00 00 00 00	 call	 ??BCGdiPlusBitmap@@QBEPAVBitmap@Gdiplus@@XZ ; CGdiPlusBitmap::operator Gdiplus::Bitmap *
  0171e	50		 push	 eax
  0171f	8b 4d 08	 mov	 ecx, DWORD PTR _gdi$[ebp]
  01722	e8 00 00 00 00	 call	 ?DrawImage@Graphics@Gdiplus@@QAE?AW4Status@2@PAVImage@2@ABVRectF@2@MMMMW4Unit@2@PBVImageAttributes@2@P6GHPAX@Z4@Z ; Gdiplus::Graphics::DrawImage

; 412  : 		}

  01727	c7 45 fc ff ff
	ff ff		 mov	 DWORD PTR __$EHRec$[ebp+8], -1
  0172e	8d 4d c4	 lea	 ecx, DWORD PTR _ia$197785[ebp]
  01731	e8 00 00 00 00	 call	 ??1ImageAttributes@Gdiplus@@QAE@XZ ; Gdiplus::ImageAttributes::~ImageAttributes
$L197773:

; 413  : 	}
; 414  : }

  01736	8b 4d f4	 mov	 ecx, DWORD PTR __$EHRec$[ebp]
  01739	64 89 0d 00 00
	00 00		 mov	 DWORD PTR fs:__except_list, ecx
  01740	8b e5		 mov	 esp, ebp
  01742	5d		 pop	 ebp
  01743	c2 08 00	 ret	 8
_TEXT	ENDS
text$x	SEGMENT
$L198756:
  00124	8d 4d dc	 lea	 ecx, DWORD PTR _ia$197780[ebp]
  00127	e9 00 00 00 00	 jmp	 ??1ImageAttributes@Gdiplus@@QAE@XZ ; Gdiplus::ImageAttributes::~ImageAttributes
$L198757:
  0012c	8d 4d c4	 lea	 ecx, DWORD PTR _ia$197785[ebp]
  0012f	e9 00 00 00 00	 jmp	 ??1ImageAttributes@Gdiplus@@QAE@XZ ; Gdiplus::ImageAttributes::~ImageAttributes
__ehhandler$?DrawImage@CSkinButton2@@AAEXAAVGraphics@Gdiplus@@W4BTN_DRAW_HUE@1@@Z:
  00134	b8 00 00 00 00	 mov	 eax, OFFSET FLAT:$T198759
  00139	e9 00 00 00 00	 jmp	 ___CxxFrameHandler
text$x	ENDS
?DrawImage@CSkinButton2@@AAEXAAVGraphics@Gdiplus@@W4BTN_DRAW_HUE@1@@Z ENDP ; CSkinButton2::DrawImage
; Function compile flags: /Odt
; File d:\boxgit\playbox\playbox\dev\prj\playbox\src\gui\commoncontrol\skinbutton2.h
;	COMDAT ??BCGdiPlusBitmap@@QBEPAVBitmap@Gdiplus@@XZ
_TEXT	SEGMENT
_this$ = -4						; size = 4
??BCGdiPlusBitmap@@QBEPAVBitmap@Gdiplus@@XZ PROC NEAR	; CGdiPlusBitmap::operator Gdiplus::Bitmap *, COMDAT
; _this$ = ecx

; 27   : 	operator Gdiplus::Bitmap*() const			{ return m_pBitmap; }

  00000	55		 push	 ebp
  00001	8b ec		 mov	 ebp, esp
  00003	51		 push	 ecx
  00004	89 4d fc	 mov	 DWORD PTR _this$[ebp], ecx
  00007	8b 45 fc	 mov	 eax, DWORD PTR _this$[ebp]
  0000a	8b 40 04	 mov	 eax, DWORD PTR [eax+4]
  0000d	8b e5		 mov	 esp, ebp
  0000f	5d		 pop	 ebp
  00010	c3		 ret	 0
??BCGdiPlusBitmap@@QBEPAVBitmap@Gdiplus@@XZ ENDP	; CGdiPlusBitmap::operator Gdiplus::Bitmap *
_TEXT	ENDS
PUBLIC	??0LinearGradientBrush@Gdiplus@@QAE@ABVRectF@1@ABVColor@1@1W4LinearGradientMode@1@@Z ; Gdiplus::LinearGradientBrush::LinearGradientBrush
PUBLIC	?DrawLine@Graphics@Gdiplus@@QAE?AW4Status@2@PBVPen@2@HHHH@Z ; Gdiplus::Graphics::DrawLine
PUBLIC	?DrawArc@Graphics@Gdiplus@@QAE?AW4Status@2@PBVPen@2@ABVRectF@2@MM@Z ; Gdiplus::Graphics::DrawArc
PUBLIC	??1LinearGradientBrush@Gdiplus@@UAE@XZ		; Gdiplus::LinearGradientBrush::~LinearGradientBrush
PUBLIC	?Inflate@RectF@Gdiplus@@QAEXMM@Z		; Gdiplus::RectF::Inflate
PUBLIC	?FillRectangle@Graphics@Gdiplus@@QAE?AW4Status@2@PBVBrush@2@ABVRectF@2@@Z ; Gdiplus::Graphics::FillRectangle
PUBLIC	??0Pen@Gdiplus@@QAE@ABVColor@1@M@Z		; Gdiplus::Pen::Pen
PUBLIC	??1Pen@Gdiplus@@QAE@XZ				; Gdiplus::Pen::~Pen
PUBLIC	?SetColor@Pen@Gdiplus@@QAE?AW4Status@2@ABVColor@2@@Z ; Gdiplus::Pen::SetColor
PUBLIC	?GetColor@Pen@Gdiplus@@QBE?AW4Status@2@PAVColor@2@@Z ; Gdiplus::Pen::GetColor
PUBLIC	??0Color@Gdiplus@@QAE@K@Z			; Gdiplus::Color::Color
PUBLIC	?GetA@Color@Gdiplus@@QBEEXZ			; Gdiplus::Color::GetA
PUBLIC	?GetR@Color@Gdiplus@@QBEEXZ			; Gdiplus::Color::GetR
PUBLIC	?GetG@Color@Gdiplus@@QBEEXZ			; Gdiplus::Color::GetG
PUBLIC	?GetB@Color@Gdiplus@@QBEEXZ			; Gdiplus::Color::GetB
EXTRN	__imp__InflateRect@12:NEAR
xdata$x	SEGMENT
$T198784 DD	0ffffffffH
	DD	FLAT:$L198765
	DD	00H
	DD	FLAT:$L198766
	DD	01H
	DD	FLAT:$L198767
	DD	02H
	DD	FLAT:$L198768
	DD	01H
	DD	FLAT:$L198769
	DD	01H
	DD	FLAT:$L198770
	DD	0ffffffffH
	DD	FLAT:$L198771
	DD	06H
	DD	FLAT:$L198772
	DD	07H
	DD	FLAT:$L198773
	DD	08H
	DD	FLAT:$L198774
	DD	07H
	DD	FLAT:$L198775
	DD	0aH
	DD	FLAT:$L198776
	DD	0ffffffffH
	DD	FLAT:$L198777
	DD	0cH
	DD	FLAT:$L198778
	DD	0cH
	DD	FLAT:$L198779
	DD	0cH
	DD	FLAT:$L198780
$T198782 DD	019930520H
	DD	010H
	DD	FLAT:$T198784
	DD	2 DUP(00H)
	DD	2 DUP(00H)
; Function compile flags: /Odt
; File d:\boxgit\playbox\playbox\dev\prj\playbox\src\gui\commoncontrol\skinbutton2.cpp
xdata$x	ENDS
_TEXT	SEGMENT
tv1598 = -492						; size = 4
tv1596 = -488						; size = 4
tv1578 = -484						; size = 4
tv1576 = -480						; size = 4
tv1563 = -476						; size = 4
tv1551 = -472						; size = 4
tv1472 = -468						; size = 4
tv1465 = -464						; size = 4
tv1463 = -460						; size = 4
tv1445 = -456						; size = 4
tv1443 = -452						; size = 4
tv1280 = -448						; size = 4
tv1278 = -444						; size = 4
tv1260 = -440						; size = 4
tv1258 = -436						; size = 4
_this$ = -432						; size = 4
_brush$197846 = -428					; size = 12
_rc$197845 = -416					; size = 16
_colBrush1$197841 = -400				; size = 4
_brush$197843 = -396					; size = 12
_colBrush2$197842 = -384				; size = 4
_rc$197840 = -380					; size = 16
_rectLeftTop2$197835 = -364				; size = 16
_rectRightTop2$197836 = -348				; size = 16
_pen2$197834 = -332					; size = 8
_rect2$197832 = -324					; size = 16
_rectRightTop$197838 = -308				; size = 16
_rectLeftTop$197837 = -292				; size = 16
_pen1$197831 = -276					; size = 8
_colpix2$197821 = -268					; size = 4
_penPix2$197822 = -264					; size = 8
_pen2$197818 = -256					; size = 8
_rect2$197816 = -248					; size = 16
_colBlack2$197827 = -232				; size = 4
_brush2$197829 = -228					; size = 12
_penPix1$197815 = -216					; size = 8
_brush$197825 = -208					; size = 12
_rect3$197823 = -196					; size = 16
_colBlack1$197826 = -180				; size = 4
_colpix$197814 = -176					; size = 4
_pen1$197813 = -172					; size = 8
_rc$197824 = -164					; size = 16
_rc1$197828 = -148					; size = 16
_brush$197810 = -132					; size = 12
_rc$197809 = -120					; size = 16
_colBrush1$197805 = -104				; size = 4
_brush$197807 = -100					; size = 12
_colBrush2$197806 = -88					; size = 4
_rc$197804 = -84					; size = 16
_colpix2$197801 = -68					; size = 4
_penPix2$197802 = -64					; size = 8
_pen2$197798 = -56					; size = 8
_rect2$197796 = -48					; size = 16
_penPix1$197795 = -32					; size = 8
_colpix$197794 = -24					; size = 4
_pen1$197793 = -20					; size = 8
__$EHRec$ = -12						; size = 12
_gdi$ = 8						; size = 4
_rect$ = 12						; size = 4
?DrawFrame@CSkinButton2@@AAEXAAVGraphics@Gdiplus@@AAVCRect@@@Z PROC NEAR ; CSkinButton2::DrawFrame
; _this$ = ecx

; 416  : {

  01750	55		 push	 ebp
  01751	8b ec		 mov	 ebp, esp
  01753	6a ff		 push	 -1
  01755	68 00 00 00 00	 push	 __ehhandler$?DrawFrame@CSkinButton2@@AAEXAAVGraphics@Gdiplus@@AAVCRect@@@Z
  0175a	64 a1 00 00 00
	00		 mov	 eax, DWORD PTR fs:__except_list
  01760	50		 push	 eax
  01761	64 89 25 00 00
	00 00		 mov	 DWORD PTR fs:__except_list, esp
  01768	81 ec e0 01 00
	00		 sub	 esp, 480		; 000001e0H
  0176e	89 8d 50 fe ff
	ff		 mov	 DWORD PTR _this$[ebp], ecx

; 417  : 	if( m_enmuDrawType == NO_FRAME )

  01774	8b 85 50 fe ff
	ff		 mov	 eax, DWORD PTR _this$[ebp]
  0177a	83 78 54 00	 cmp	 DWORD PTR [eax+84], 0
  0177e	0f 85 e5 05 00
	00		 jne	 $L197792

; 418  : 	{
; 419  : 		Gdiplus::Pen pen1( m_colFrame1 );

  01784	68 00 00 80 3f	 push	 1065353216		; 3f800000H
  01789	8b 8d 50 fe ff
	ff		 mov	 ecx, DWORD PTR _this$[ebp]
  0178f	81 c1 70 01 00
	00		 add	 ecx, 368		; 00000170H
  01795	51		 push	 ecx
  01796	8d 4d ec	 lea	 ecx, DWORD PTR _pen1$197793[ebp]
  01799	e8 00 00 00 00	 call	 ??0Pen@Gdiplus@@QAE@ABVColor@1@M@Z ; Gdiplus::Pen::Pen
  0179e	c7 45 fc 00 00
	00 00		 mov	 DWORD PTR __$EHRec$[ebp+8], 0

; 420  : 		gdi.DrawLine( &pen1, rect.left+1, rect.top, rect.right-2, rect.top );

  017a5	8b 55 0c	 mov	 edx, DWORD PTR _rect$[ebp]
  017a8	8b 42 04	 mov	 eax, DWORD PTR [edx+4]
  017ab	50		 push	 eax
  017ac	8b 4d 0c	 mov	 ecx, DWORD PTR _rect$[ebp]
  017af	8b 51 08	 mov	 edx, DWORD PTR [ecx+8]
  017b2	83 ea 02	 sub	 edx, 2
  017b5	52		 push	 edx
  017b6	8b 45 0c	 mov	 eax, DWORD PTR _rect$[ebp]
  017b9	8b 48 04	 mov	 ecx, DWORD PTR [eax+4]
  017bc	51		 push	 ecx
  017bd	8b 55 0c	 mov	 edx, DWORD PTR _rect$[ebp]
  017c0	8b 02		 mov	 eax, DWORD PTR [edx]
  017c2	83 c0 01	 add	 eax, 1
  017c5	50		 push	 eax
  017c6	8d 4d ec	 lea	 ecx, DWORD PTR _pen1$197793[ebp]
  017c9	51		 push	 ecx
  017ca	8b 4d 08	 mov	 ecx, DWORD PTR _gdi$[ebp]
  017cd	e8 00 00 00 00	 call	 ?DrawLine@Graphics@Gdiplus@@QAE?AW4Status@2@PBVPen@2@HHHH@Z ; Gdiplus::Graphics::DrawLine

; 421  : 		gdi.DrawLine( &pen1, rect.left+1, rect.bottom-1, rect.right-2, rect.bottom-1 );

  017d2	8b 55 0c	 mov	 edx, DWORD PTR _rect$[ebp]
  017d5	8b 42 0c	 mov	 eax, DWORD PTR [edx+12]
  017d8	83 e8 01	 sub	 eax, 1
  017db	50		 push	 eax
  017dc	8b 4d 0c	 mov	 ecx, DWORD PTR _rect$[ebp]
  017df	8b 51 08	 mov	 edx, DWORD PTR [ecx+8]
  017e2	83 ea 02	 sub	 edx, 2
  017e5	52		 push	 edx
  017e6	8b 45 0c	 mov	 eax, DWORD PTR _rect$[ebp]
  017e9	8b 48 0c	 mov	 ecx, DWORD PTR [eax+12]
  017ec	83 e9 01	 sub	 ecx, 1
  017ef	51		 push	 ecx
  017f0	8b 55 0c	 mov	 edx, DWORD PTR _rect$[ebp]
  017f3	8b 02		 mov	 eax, DWORD PTR [edx]
  017f5	83 c0 01	 add	 eax, 1
  017f8	50		 push	 eax
  017f9	8d 4d ec	 lea	 ecx, DWORD PTR _pen1$197793[ebp]
  017fc	51		 push	 ecx
  017fd	8b 4d 08	 mov	 ecx, DWORD PTR _gdi$[ebp]
  01800	e8 00 00 00 00	 call	 ?DrawLine@Graphics@Gdiplus@@QAE?AW4Status@2@PBVPen@2@HHHH@Z ; Gdiplus::Graphics::DrawLine

; 422  : 		gdi.DrawLine( &pen1, rect.left, rect.top+1, rect.left, rect.bottom-2 );

  01805	8b 55 0c	 mov	 edx, DWORD PTR _rect$[ebp]
  01808	8b 42 0c	 mov	 eax, DWORD PTR [edx+12]
  0180b	83 e8 02	 sub	 eax, 2
  0180e	50		 push	 eax
  0180f	8b 4d 0c	 mov	 ecx, DWORD PTR _rect$[ebp]
  01812	8b 11		 mov	 edx, DWORD PTR [ecx]
  01814	52		 push	 edx
  01815	8b 45 0c	 mov	 eax, DWORD PTR _rect$[ebp]
  01818	8b 48 04	 mov	 ecx, DWORD PTR [eax+4]
  0181b	83 c1 01	 add	 ecx, 1
  0181e	51		 push	 ecx
  0181f	8b 55 0c	 mov	 edx, DWORD PTR _rect$[ebp]
  01822	8b 02		 mov	 eax, DWORD PTR [edx]
  01824	50		 push	 eax
  01825	8d 4d ec	 lea	 ecx, DWORD PTR _pen1$197793[ebp]
  01828	51		 push	 ecx
  01829	8b 4d 08	 mov	 ecx, DWORD PTR _gdi$[ebp]
  0182c	e8 00 00 00 00	 call	 ?DrawLine@Graphics@Gdiplus@@QAE?AW4Status@2@PBVPen@2@HHHH@Z ; Gdiplus::Graphics::DrawLine

; 423  : 		gdi.DrawLine( &pen1, rect.right-1, rect.top+1, rect.right-1, rect.bottom-2 );

  01831	8b 55 0c	 mov	 edx, DWORD PTR _rect$[ebp]
  01834	8b 42 0c	 mov	 eax, DWORD PTR [edx+12]
  01837	83 e8 02	 sub	 eax, 2
  0183a	50		 push	 eax
  0183b	8b 4d 0c	 mov	 ecx, DWORD PTR _rect$[ebp]
  0183e	8b 51 08	 mov	 edx, DWORD PTR [ecx+8]
  01841	83 ea 01	 sub	 edx, 1
  01844	52		 push	 edx
  01845	8b 45 0c	 mov	 eax, DWORD PTR _rect$[ebp]
  01848	8b 48 04	 mov	 ecx, DWORD PTR [eax+4]
  0184b	83 c1 01	 add	 ecx, 1
  0184e	51		 push	 ecx
  0184f	8b 55 0c	 mov	 edx, DWORD PTR _rect$[ebp]
  01852	8b 42 08	 mov	 eax, DWORD PTR [edx+8]
  01855	83 e8 01	 sub	 eax, 1
  01858	50		 push	 eax
  01859	8d 4d ec	 lea	 ecx, DWORD PTR _pen1$197793[ebp]
  0185c	51		 push	 ecx
  0185d	8b 4d 08	 mov	 ecx, DWORD PTR _gdi$[ebp]
  01860	e8 00 00 00 00	 call	 ?DrawLine@Graphics@Gdiplus@@QAE?AW4Status@2@PBVPen@2@HHHH@Z ; Gdiplus::Graphics::DrawLine

; 424  : 
; 425  : 		Gdiplus::Color colpix;

  01865	8d 4d e8	 lea	 ecx, DWORD PTR _colpix$197794[ebp]
  01868	e8 00 00 00 00	 call	 ??0Color@Gdiplus@@QAE@XZ ; Gdiplus::Color::Color

; 426  : 		pen1.GetColor( &colpix );

  0186d	8d 55 e8	 lea	 edx, DWORD PTR _colpix$197794[ebp]
  01870	52		 push	 edx
  01871	8d 4d ec	 lea	 ecx, DWORD PTR _pen1$197793[ebp]
  01874	e8 00 00 00 00	 call	 ?GetColor@Pen@Gdiplus@@QBE?AW4Status@2@PAVColor@2@@Z ; Gdiplus::Pen::GetColor

; 427  : 		colpix.SetValue( Gdiplus::Color::MakeARGB(colpix.GetA()/2,colpix.GetR(),colpix.GetG(),colpix.GetB() ) );

  01879	8d 4d e8	 lea	 ecx, DWORD PTR _colpix$197794[ebp]
  0187c	e8 00 00 00 00	 call	 ?GetB@Color@Gdiplus@@QBEEXZ ; Gdiplus::Color::GetB
  01881	50		 push	 eax
  01882	8d 4d e8	 lea	 ecx, DWORD PTR _colpix$197794[ebp]
  01885	e8 00 00 00 00	 call	 ?GetG@Color@Gdiplus@@QBEEXZ ; Gdiplus::Color::GetG
  0188a	50		 push	 eax
  0188b	8d 4d e8	 lea	 ecx, DWORD PTR _colpix$197794[ebp]
  0188e	e8 00 00 00 00	 call	 ?GetR@Color@Gdiplus@@QBEEXZ ; Gdiplus::Color::GetR
  01893	50		 push	 eax
  01894	8d 4d e8	 lea	 ecx, DWORD PTR _colpix$197794[ebp]
  01897	e8 00 00 00 00	 call	 ?GetA@Color@Gdiplus@@QBEEXZ ; Gdiplus::Color::GetA
  0189c	0f b6 c0	 movzx	 eax, al
  0189f	99		 cdq
  018a0	2b c2		 sub	 eax, edx
  018a2	d1 f8		 sar	 eax, 1
  018a4	50		 push	 eax
  018a5	e8 00 00 00 00	 call	 ?MakeARGB@Color@Gdiplus@@SAKEEEE@Z ; Gdiplus::Color::MakeARGB
  018aa	83 c4 10	 add	 esp, 16			; 00000010H
  018ad	50		 push	 eax
  018ae	8d 4d e8	 lea	 ecx, DWORD PTR _colpix$197794[ebp]
  018b1	e8 00 00 00 00	 call	 ?SetValue@Color@Gdiplus@@QAEXK@Z ; Gdiplus::Color::SetValue

; 428  : 		Gdiplus::Pen penPix1( colpix );

  018b6	68 00 00 80 3f	 push	 1065353216		; 3f800000H
  018bb	8d 45 e8	 lea	 eax, DWORD PTR _colpix$197794[ebp]
  018be	50		 push	 eax
  018bf	8d 4d e0	 lea	 ecx, DWORD PTR _penPix1$197795[ebp]
  018c2	e8 00 00 00 00	 call	 ??0Pen@Gdiplus@@QAE@ABVColor@1@M@Z ; Gdiplus::Pen::Pen
  018c7	c6 45 fc 01	 mov	 BYTE PTR __$EHRec$[ebp+8], 1

; 429  : 		gdi.DrawLine( &penPix1, rect.left, rect.top, rect.left+1, rect.top );

  018cb	8b 4d 0c	 mov	 ecx, DWORD PTR _rect$[ebp]
  018ce	8b 51 04	 mov	 edx, DWORD PTR [ecx+4]
  018d1	52		 push	 edx
  018d2	8b 45 0c	 mov	 eax, DWORD PTR _rect$[ebp]
  018d5	8b 08		 mov	 ecx, DWORD PTR [eax]
  018d7	83 c1 01	 add	 ecx, 1
  018da	51		 push	 ecx
  018db	8b 55 0c	 mov	 edx, DWORD PTR _rect$[ebp]
  018de	8b 42 04	 mov	 eax, DWORD PTR [edx+4]
  018e1	50		 push	 eax
  018e2	8b 4d 0c	 mov	 ecx, DWORD PTR _rect$[ebp]
  018e5	8b 11		 mov	 edx, DWORD PTR [ecx]
  018e7	52		 push	 edx
  018e8	8d 45 e0	 lea	 eax, DWORD PTR _penPix1$197795[ebp]
  018eb	50		 push	 eax
  018ec	8b 4d 08	 mov	 ecx, DWORD PTR _gdi$[ebp]
  018ef	e8 00 00 00 00	 call	 ?DrawLine@Graphics@Gdiplus@@QAE?AW4Status@2@PBVPen@2@HHHH@Z ; Gdiplus::Graphics::DrawLine

; 430  : 		gdi.DrawLine( &penPix1, rect.right-1, rect.top, rect.right-1, rect.top+1 );

  018f4	8b 4d 0c	 mov	 ecx, DWORD PTR _rect$[ebp]
  018f7	8b 51 04	 mov	 edx, DWORD PTR [ecx+4]
  018fa	83 c2 01	 add	 edx, 1
  018fd	52		 push	 edx
  018fe	8b 45 0c	 mov	 eax, DWORD PTR _rect$[ebp]
  01901	8b 48 08	 mov	 ecx, DWORD PTR [eax+8]
  01904	83 e9 01	 sub	 ecx, 1
  01907	51		 push	 ecx
  01908	8b 55 0c	 mov	 edx, DWORD PTR _rect$[ebp]
  0190b	8b 42 04	 mov	 eax, DWORD PTR [edx+4]
  0190e	50		 push	 eax
  0190f	8b 4d 0c	 mov	 ecx, DWORD PTR _rect$[ebp]
  01912	8b 51 08	 mov	 edx, DWORD PTR [ecx+8]
  01915	83 ea 01	 sub	 edx, 1
  01918	52		 push	 edx
  01919	8d 45 e0	 lea	 eax, DWORD PTR _penPix1$197795[ebp]
  0191c	50		 push	 eax
  0191d	8b 4d 08	 mov	 ecx, DWORD PTR _gdi$[ebp]
  01920	e8 00 00 00 00	 call	 ?DrawLine@Graphics@Gdiplus@@QAE?AW4Status@2@PBVPen@2@HHHH@Z ; Gdiplus::Graphics::DrawLine

; 431  : 		gdi.DrawLine( &penPix1, rect.right-1, rect.bottom-1, rect.right-2, rect.bottom-1 );

  01925	8b 4d 0c	 mov	 ecx, DWORD PTR _rect$[ebp]
  01928	8b 51 0c	 mov	 edx, DWORD PTR [ecx+12]
  0192b	83 ea 01	 sub	 edx, 1
  0192e	52		 push	 edx
  0192f	8b 45 0c	 mov	 eax, DWORD PTR _rect$[ebp]
  01932	8b 48 08	 mov	 ecx, DWORD PTR [eax+8]
  01935	83 e9 02	 sub	 ecx, 2
  01938	51		 push	 ecx
  01939	8b 55 0c	 mov	 edx, DWORD PTR _rect$[ebp]
  0193c	8b 42 0c	 mov	 eax, DWORD PTR [edx+12]
  0193f	83 e8 01	 sub	 eax, 1
  01942	50		 push	 eax
  01943	8b 4d 0c	 mov	 ecx, DWORD PTR _rect$[ebp]
  01946	8b 51 08	 mov	 edx, DWORD PTR [ecx+8]
  01949	83 ea 01	 sub	 edx, 1
  0194c	52		 push	 edx
  0194d	8d 45 e0	 lea	 eax, DWORD PTR _penPix1$197795[ebp]
  01950	50		 push	 eax
  01951	8b 4d 08	 mov	 ecx, DWORD PTR _gdi$[ebp]
  01954	e8 00 00 00 00	 call	 ?DrawLine@Graphics@Gdiplus@@QAE?AW4Status@2@PBVPen@2@HHHH@Z ; Gdiplus::Graphics::DrawLine

; 432  : 		gdi.DrawLine( &penPix1, rect.left,  rect.bottom-1, rect.left+1,  rect.bottom-1 );

  01959	8b 4d 0c	 mov	 ecx, DWORD PTR _rect$[ebp]
  0195c	8b 51 0c	 mov	 edx, DWORD PTR [ecx+12]
  0195f	83 ea 01	 sub	 edx, 1
  01962	52		 push	 edx
  01963	8b 45 0c	 mov	 eax, DWORD PTR _rect$[ebp]
  01966	8b 08		 mov	 ecx, DWORD PTR [eax]
  01968	83 c1 01	 add	 ecx, 1
  0196b	51		 push	 ecx
  0196c	8b 55 0c	 mov	 edx, DWORD PTR _rect$[ebp]
  0196f	8b 42 0c	 mov	 eax, DWORD PTR [edx+12]
  01972	83 e8 01	 sub	 eax, 1
  01975	50		 push	 eax
  01976	8b 4d 0c	 mov	 ecx, DWORD PTR _rect$[ebp]
  01979	8b 11		 mov	 edx, DWORD PTR [ecx]
  0197b	52		 push	 edx
  0197c	8d 45 e0	 lea	 eax, DWORD PTR _penPix1$197795[ebp]
  0197f	50		 push	 eax
  01980	8b 4d 08	 mov	 ecx, DWORD PTR _gdi$[ebp]
  01983	e8 00 00 00 00	 call	 ?DrawLine@Graphics@Gdiplus@@QAE?AW4Status@2@PBVPen@2@HHHH@Z ; Gdiplus::Graphics::DrawLine

; 433  : 
; 434  : 		CRect rect2 = rect;

  01988	8b 4d 0c	 mov	 ecx, DWORD PTR _rect$[ebp]
  0198b	8b 11		 mov	 edx, DWORD PTR [ecx]
  0198d	89 55 d0	 mov	 DWORD PTR _rect2$197796[ebp], edx
  01990	8b 41 04	 mov	 eax, DWORD PTR [ecx+4]
  01993	89 45 d4	 mov	 DWORD PTR _rect2$197796[ebp+4], eax
  01996	8b 51 08	 mov	 edx, DWORD PTR [ecx+8]
  01999	89 55 d8	 mov	 DWORD PTR _rect2$197796[ebp+8], edx
  0199c	8b 41 0c	 mov	 eax, DWORD PTR [ecx+12]
  0199f	89 45 dc	 mov	 DWORD PTR _rect2$197796[ebp+12], eax

; 435  : 		::InflateRect( &rect2, -1,-1 );

  019a2	6a ff		 push	 -1
  019a4	6a ff		 push	 -1
  019a6	8d 4d d0	 lea	 ecx, DWORD PTR _rect2$197796[ebp]
  019a9	51		 push	 ecx
  019aa	ff 15 00 00 00
	00		 call	 DWORD PTR __imp__InflateRect@12

; 436  : 		if( !m_bMouseDown )

  019b0	8b 95 50 fe ff
	ff		 mov	 edx, DWORD PTR _this$[ebp]
  019b6	83 ba 88 00 00
	00 00		 cmp	 DWORD PTR [edx+136], 0
  019bd	0f 85 fa 01 00
	00		 jne	 $L197797

; 437  : 		{
; 438  : 			Gdiplus::Pen pen2(m_colFrame2);

  019c3	68 00 00 80 3f	 push	 1065353216		; 3f800000H
  019c8	8b 85 50 fe ff
	ff		 mov	 eax, DWORD PTR _this$[ebp]
  019ce	05 74 01 00 00	 add	 eax, 372		; 00000174H
  019d3	50		 push	 eax
  019d4	8d 4d c8	 lea	 ecx, DWORD PTR _pen2$197798[ebp]
  019d7	e8 00 00 00 00	 call	 ??0Pen@Gdiplus@@QAE@ABVColor@1@M@Z ; Gdiplus::Pen::Pen
  019dc	c6 45 fc 02	 mov	 BYTE PTR __$EHRec$[ebp+8], 2

; 439  : 			if( m_bMouseDown )

  019e0	8b 8d 50 fe ff
	ff		 mov	 ecx, DWORD PTR _this$[ebp]
  019e6	83 b9 88 00 00
	00 00		 cmp	 DWORD PTR [ecx+136], 0
  019ed	74 17		 je	 SHORT $L197799

; 440  : 				pen2.SetColor(m_colFrame1);

  019ef	8b 95 50 fe ff
	ff		 mov	 edx, DWORD PTR _this$[ebp]
  019f5	81 c2 70 01 00
	00		 add	 edx, 368		; 00000170H
  019fb	52		 push	 edx
  019fc	8d 4d c8	 lea	 ecx, DWORD PTR _pen2$197798[ebp]
  019ff	e8 00 00 00 00	 call	 ?SetColor@Pen@Gdiplus@@QAE?AW4Status@2@ABVColor@2@@Z ; Gdiplus::Pen::SetColor

; 441  : 			else

  01a04	eb 14		 jmp	 SHORT $L197800
$L197799:

; 442  : 				pen2.SetColor(m_colFrame2);

  01a06	8b 85 50 fe ff
	ff		 mov	 eax, DWORD PTR _this$[ebp]
  01a0c	05 74 01 00 00	 add	 eax, 372		; 00000174H
  01a11	50		 push	 eax
  01a12	8d 4d c8	 lea	 ecx, DWORD PTR _pen2$197798[ebp]
  01a15	e8 00 00 00 00	 call	 ?SetColor@Pen@Gdiplus@@QAE?AW4Status@2@ABVColor@2@@Z ; Gdiplus::Pen::SetColor
$L197800:

; 443  : 
; 444  : 			gdi.DrawLine( &pen2, rect2.left+1, rect2.top, rect2.right-2, rect2.top );

  01a1a	8b 4d d4	 mov	 ecx, DWORD PTR _rect2$197796[ebp+4]
  01a1d	51		 push	 ecx
  01a1e	8b 55 d8	 mov	 edx, DWORD PTR _rect2$197796[ebp+8]
  01a21	83 ea 02	 sub	 edx, 2
  01a24	52		 push	 edx
  01a25	8b 45 d4	 mov	 eax, DWORD PTR _rect2$197796[ebp+4]
  01a28	50		 push	 eax
  01a29	8b 4d d0	 mov	 ecx, DWORD PTR _rect2$197796[ebp]
  01a2c	83 c1 01	 add	 ecx, 1
  01a2f	51		 push	 ecx
  01a30	8d 55 c8	 lea	 edx, DWORD PTR _pen2$197798[ebp]
  01a33	52		 push	 edx
  01a34	8b 4d 08	 mov	 ecx, DWORD PTR _gdi$[ebp]
  01a37	e8 00 00 00 00	 call	 ?DrawLine@Graphics@Gdiplus@@QAE?AW4Status@2@PBVPen@2@HHHH@Z ; Gdiplus::Graphics::DrawLine

; 445  : 			gdi.DrawLine( &pen2, rect2.left+1, rect2.bottom-1, rect2.right-2, rect2.bottom-1 );

  01a3c	8b 45 dc	 mov	 eax, DWORD PTR _rect2$197796[ebp+12]
  01a3f	83 e8 01	 sub	 eax, 1
  01a42	50		 push	 eax
  01a43	8b 4d d8	 mov	 ecx, DWORD PTR _rect2$197796[ebp+8]
  01a46	83 e9 02	 sub	 ecx, 2
  01a49	51		 push	 ecx
  01a4a	8b 55 dc	 mov	 edx, DWORD PTR _rect2$197796[ebp+12]
  01a4d	83 ea 01	 sub	 edx, 1
  01a50	52		 push	 edx
  01a51	8b 45 d0	 mov	 eax, DWORD PTR _rect2$197796[ebp]
  01a54	83 c0 01	 add	 eax, 1
  01a57	50		 push	 eax
  01a58	8d 4d c8	 lea	 ecx, DWORD PTR _pen2$197798[ebp]
  01a5b	51		 push	 ecx
  01a5c	8b 4d 08	 mov	 ecx, DWORD PTR _gdi$[ebp]
  01a5f	e8 00 00 00 00	 call	 ?DrawLine@Graphics@Gdiplus@@QAE?AW4Status@2@PBVPen@2@HHHH@Z ; Gdiplus::Graphics::DrawLine

; 446  : 			gdi.DrawLine( &pen2, rect2.left, rect2.top+1, rect2.left, rect2.bottom-2 );

  01a64	8b 55 dc	 mov	 edx, DWORD PTR _rect2$197796[ebp+12]
  01a67	83 ea 02	 sub	 edx, 2
  01a6a	52		 push	 edx
  01a6b	8b 45 d0	 mov	 eax, DWORD PTR _rect2$197796[ebp]
  01a6e	50		 push	 eax
  01a6f	8b 4d d4	 mov	 ecx, DWORD PTR _rect2$197796[ebp+4]
  01a72	83 c1 01	 add	 ecx, 1
  01a75	51		 push	 ecx
  01a76	8b 55 d0	 mov	 edx, DWORD PTR _rect2$197796[ebp]
  01a79	52		 push	 edx
  01a7a	8d 45 c8	 lea	 eax, DWORD PTR _pen2$197798[ebp]
  01a7d	50		 push	 eax
  01a7e	8b 4d 08	 mov	 ecx, DWORD PTR _gdi$[ebp]
  01a81	e8 00 00 00 00	 call	 ?DrawLine@Graphics@Gdiplus@@QAE?AW4Status@2@PBVPen@2@HHHH@Z ; Gdiplus::Graphics::DrawLine

; 447  : 			gdi.DrawLine( &pen2, rect2.right-1, rect2.top+1, rect2.right-1, rect2.bottom-2 );

  01a86	8b 4d dc	 mov	 ecx, DWORD PTR _rect2$197796[ebp+12]
  01a89	83 e9 02	 sub	 ecx, 2
  01a8c	51		 push	 ecx
  01a8d	8b 55 d8	 mov	 edx, DWORD PTR _rect2$197796[ebp+8]
  01a90	83 ea 01	 sub	 edx, 1
  01a93	52		 push	 edx
  01a94	8b 45 d4	 mov	 eax, DWORD PTR _rect2$197796[ebp+4]
  01a97	83 c0 01	 add	 eax, 1
  01a9a	50		 push	 eax
  01a9b	8b 4d d8	 mov	 ecx, DWORD PTR _rect2$197796[ebp+8]
  01a9e	83 e9 01	 sub	 ecx, 1
  01aa1	51		 push	 ecx
  01aa2	8d 55 c8	 lea	 edx, DWORD PTR _pen2$197798[ebp]
  01aa5	52		 push	 edx
  01aa6	8b 4d 08	 mov	 ecx, DWORD PTR _gdi$[ebp]
  01aa9	e8 00 00 00 00	 call	 ?DrawLine@Graphics@Gdiplus@@QAE?AW4Status@2@PBVPen@2@HHHH@Z ; Gdiplus::Graphics::DrawLine

; 448  : 
; 449  : 			Gdiplus::Color colpix2;

  01aae	8d 4d bc	 lea	 ecx, DWORD PTR _colpix2$197801[ebp]
  01ab1	e8 00 00 00 00	 call	 ??0Color@Gdiplus@@QAE@XZ ; Gdiplus::Color::Color

; 450  : 			pen2.GetColor( &colpix2 );

  01ab6	8d 45 bc	 lea	 eax, DWORD PTR _colpix2$197801[ebp]
  01ab9	50		 push	 eax
  01aba	8d 4d c8	 lea	 ecx, DWORD PTR _pen2$197798[ebp]
  01abd	e8 00 00 00 00	 call	 ?GetColor@Pen@Gdiplus@@QBE?AW4Status@2@PAVColor@2@@Z ; Gdiplus::Pen::GetColor

; 451  : 			colpix2.SetValue( Gdiplus::Color::MakeARGB(colpix2.GetA()/2,colpix2.GetR(),colpix2.GetG(),colpix2.GetB() ) );

  01ac2	8d 4d bc	 lea	 ecx, DWORD PTR _colpix2$197801[ebp]
  01ac5	e8 00 00 00 00	 call	 ?GetB@Color@Gdiplus@@QBEEXZ ; Gdiplus::Color::GetB
  01aca	50		 push	 eax
  01acb	8d 4d bc	 lea	 ecx, DWORD PTR _colpix2$197801[ebp]
  01ace	e8 00 00 00 00	 call	 ?GetG@Color@Gdiplus@@QBEEXZ ; Gdiplus::Color::GetG
  01ad3	50		 push	 eax
  01ad4	8d 4d bc	 lea	 ecx, DWORD PTR _colpix2$197801[ebp]
  01ad7	e8 00 00 00 00	 call	 ?GetR@Color@Gdiplus@@QBEEXZ ; Gdiplus::Color::GetR
  01adc	50		 push	 eax
  01add	8d 4d bc	 lea	 ecx, DWORD PTR _colpix2$197801[ebp]
  01ae0	e8 00 00 00 00	 call	 ?GetA@Color@Gdiplus@@QBEEXZ ; Gdiplus::Color::GetA
  01ae5	0f b6 c0	 movzx	 eax, al
  01ae8	99		 cdq
  01ae9	2b c2		 sub	 eax, edx
  01aeb	d1 f8		 sar	 eax, 1
  01aed	50		 push	 eax
  01aee	e8 00 00 00 00	 call	 ?MakeARGB@Color@Gdiplus@@SAKEEEE@Z ; Gdiplus::Color::MakeARGB
  01af3	83 c4 10	 add	 esp, 16			; 00000010H
  01af6	50		 push	 eax
  01af7	8d 4d bc	 lea	 ecx, DWORD PTR _colpix2$197801[ebp]
  01afa	e8 00 00 00 00	 call	 ?SetValue@Color@Gdiplus@@QAEXK@Z ; Gdiplus::Color::SetValue

; 452  : 			Gdiplus::Pen penPix2( colpix2 );

  01aff	68 00 00 80 3f	 push	 1065353216		; 3f800000H
  01b04	8d 4d bc	 lea	 ecx, DWORD PTR _colpix2$197801[ebp]
  01b07	51		 push	 ecx
  01b08	8d 4d c0	 lea	 ecx, DWORD PTR _penPix2$197802[ebp]
  01b0b	e8 00 00 00 00	 call	 ??0Pen@Gdiplus@@QAE@ABVColor@1@M@Z ; Gdiplus::Pen::Pen
  01b10	c6 45 fc 03	 mov	 BYTE PTR __$EHRec$[ebp+8], 3

; 453  : 			gdi.DrawLine( &penPix2, rect2.left, rect2.top, rect2.left+1, rect2.top );

  01b14	8b 55 d4	 mov	 edx, DWORD PTR _rect2$197796[ebp+4]
  01b17	52		 push	 edx
  01b18	8b 45 d0	 mov	 eax, DWORD PTR _rect2$197796[ebp]
  01b1b	83 c0 01	 add	 eax, 1
  01b1e	50		 push	 eax
  01b1f	8b 4d d4	 mov	 ecx, DWORD PTR _rect2$197796[ebp+4]
  01b22	51		 push	 ecx
  01b23	8b 55 d0	 mov	 edx, DWORD PTR _rect2$197796[ebp]
  01b26	52		 push	 edx
  01b27	8d 45 c0	 lea	 eax, DWORD PTR _penPix2$197802[ebp]
  01b2a	50		 push	 eax
  01b2b	8b 4d 08	 mov	 ecx, DWORD PTR _gdi$[ebp]
  01b2e	e8 00 00 00 00	 call	 ?DrawLine@Graphics@Gdiplus@@QAE?AW4Status@2@PBVPen@2@HHHH@Z ; Gdiplus::Graphics::DrawLine

; 454  : 			gdi.DrawLine( &penPix2, rect2.right-1, rect2.top, rect2.right-1, rect2.top+1 );

  01b33	8b 4d d4	 mov	 ecx, DWORD PTR _rect2$197796[ebp+4]
  01b36	83 c1 01	 add	 ecx, 1
  01b39	51		 push	 ecx
  01b3a	8b 55 d8	 mov	 edx, DWORD PTR _rect2$197796[ebp+8]
  01b3d	83 ea 01	 sub	 edx, 1
  01b40	52		 push	 edx
  01b41	8b 45 d4	 mov	 eax, DWORD PTR _rect2$197796[ebp+4]
  01b44	50		 push	 eax
  01b45	8b 4d d8	 mov	 ecx, DWORD PTR _rect2$197796[ebp+8]
  01b48	83 e9 01	 sub	 ecx, 1
  01b4b	51		 push	 ecx
  01b4c	8d 55 c0	 lea	 edx, DWORD PTR _penPix2$197802[ebp]
  01b4f	52		 push	 edx
  01b50	8b 4d 08	 mov	 ecx, DWORD PTR _gdi$[ebp]
  01b53	e8 00 00 00 00	 call	 ?DrawLine@Graphics@Gdiplus@@QAE?AW4Status@2@PBVPen@2@HHHH@Z ; Gdiplus::Graphics::DrawLine

; 455  : 			gdi.DrawLine( &penPix2, rect2.right-1, rect2.bottom-1, rect2.right-2, rect2.bottom-1 );

  01b58	8b 45 dc	 mov	 eax, DWORD PTR _rect2$197796[ebp+12]
  01b5b	83 e8 01	 sub	 eax, 1
  01b5e	50		 push	 eax
  01b5f	8b 4d d8	 mov	 ecx, DWORD PTR _rect2$197796[ebp+8]
  01b62	83 e9 02	 sub	 ecx, 2
  01b65	51		 push	 ecx
  01b66	8b 55 dc	 mov	 edx, DWORD PTR _rect2$197796[ebp+12]
  01b69	83 ea 01	 sub	 edx, 1
  01b6c	52		 push	 edx
  01b6d	8b 45 d8	 mov	 eax, DWORD PTR _rect2$197796[ebp+8]
  01b70	83 e8 01	 sub	 eax, 1
  01b73	50		 push	 eax
  01b74	8d 4d c0	 lea	 ecx, DWORD PTR _penPix2$197802[ebp]
  01b77	51		 push	 ecx
  01b78	8b 4d 08	 mov	 ecx, DWORD PTR _gdi$[ebp]
  01b7b	e8 00 00 00 00	 call	 ?DrawLine@Graphics@Gdiplus@@QAE?AW4Status@2@PBVPen@2@HHHH@Z ; Gdiplus::Graphics::DrawLine

; 456  : 			gdi.DrawLine( &penPix2, rect2.left,  rect2.bottom-1, rect2.left+1,  rect2.bottom-1 );

  01b80	8b 55 dc	 mov	 edx, DWORD PTR _rect2$197796[ebp+12]
  01b83	83 ea 01	 sub	 edx, 1
  01b86	52		 push	 edx
  01b87	8b 45 d0	 mov	 eax, DWORD PTR _rect2$197796[ebp]
  01b8a	83 c0 01	 add	 eax, 1
  01b8d	50		 push	 eax
  01b8e	8b 4d dc	 mov	 ecx, DWORD PTR _rect2$197796[ebp+12]
  01b91	83 e9 01	 sub	 ecx, 1
  01b94	51		 push	 ecx
  01b95	8b 55 d0	 mov	 edx, DWORD PTR _rect2$197796[ebp]
  01b98	52		 push	 edx
  01b99	8d 45 c0	 lea	 eax, DWORD PTR _penPix2$197802[ebp]
  01b9c	50		 push	 eax
  01b9d	8b 4d 08	 mov	 ecx, DWORD PTR _gdi$[ebp]
  01ba0	e8 00 00 00 00	 call	 ?DrawLine@Graphics@Gdiplus@@QAE?AW4Status@2@PBVPen@2@HHHH@Z ; Gdiplus::Graphics::DrawLine

; 457  : 		}

  01ba5	c6 45 fc 02	 mov	 BYTE PTR __$EHRec$[ebp+8], 2
  01ba9	8d 4d c0	 lea	 ecx, DWORD PTR _penPix2$197802[ebp]
  01bac	e8 00 00 00 00	 call	 ??1Pen@Gdiplus@@QAE@XZ	; Gdiplus::Pen::~Pen
  01bb1	c6 45 fc 01	 mov	 BYTE PTR __$EHRec$[ebp+8], 1
  01bb5	8d 4d c8	 lea	 ecx, DWORD PTR _pen2$197798[ebp]
  01bb8	e8 00 00 00 00	 call	 ??1Pen@Gdiplus@@QAE@XZ	; Gdiplus::Pen::~Pen
$L197797:

; 458  : 
; 459  : 		if( m_bMouseDown )

  01bbd	8b 8d 50 fe ff
	ff		 mov	 ecx, DWORD PTR _this$[ebp]
  01bc3	83 b9 88 00 00
	00 00		 cmp	 DWORD PTR [ecx+136], 0
  01bca	0f 84 cb 00 00
	00		 je	 $L197803

; 460  : 		{
; 461  : 			Gdiplus::RectF rc( rect2.left, rect2.top, rect2.Width(), rect2.Height()/3 );

  01bd0	8d 4d d0	 lea	 ecx, DWORD PTR _rect2$197796[ebp]
  01bd3	e8 00 00 00 00	 call	 ?Height@CRect@@QBEHXZ	; CRect::Height
  01bd8	99		 cdq
  01bd9	b9 03 00 00 00	 mov	 ecx, 3
  01bde	f7 f9		 idiv	 ecx
  01be0	89 85 4c fe ff
	ff		 mov	 DWORD PTR tv1258[ebp], eax
  01be6	db 85 4c fe ff
	ff		 fild	 DWORD PTR tv1258[ebp]
  01bec	51		 push	 ecx
  01bed	d9 1c 24	 fstp	 DWORD PTR [esp]
  01bf0	8d 4d d0	 lea	 ecx, DWORD PTR _rect2$197796[ebp]
  01bf3	e8 00 00 00 00	 call	 ?Width@CRect@@QBEHXZ	; CRect::Width
  01bf8	89 85 48 fe ff
	ff		 mov	 DWORD PTR tv1260[ebp], eax
  01bfe	db 85 48 fe ff
	ff		 fild	 DWORD PTR tv1260[ebp]
  01c04	51		 push	 ecx
  01c05	d9 1c 24	 fstp	 DWORD PTR [esp]
  01c08	db 45 d4	 fild	 DWORD PTR _rect2$197796[ebp+4]
  01c0b	51		 push	 ecx
  01c0c	d9 1c 24	 fstp	 DWORD PTR [esp]
  01c0f	db 45 d0	 fild	 DWORD PTR _rect2$197796[ebp]
  01c12	51		 push	 ecx
  01c13	d9 1c 24	 fstp	 DWORD PTR [esp]
  01c16	8d 4d ac	 lea	 ecx, DWORD PTR _rc$197804[ebp]
  01c19	e8 00 00 00 00	 call	 ??0RectF@Gdiplus@@QAE@MMMM@Z ; Gdiplus::RectF::RectF

; 462  : 			Gdiplus::Color colBrush1,colBrush2;

  01c1e	8d 4d 98	 lea	 ecx, DWORD PTR _colBrush1$197805[ebp]
  01c21	e8 00 00 00 00	 call	 ??0Color@Gdiplus@@QAE@XZ ; Gdiplus::Color::Color
  01c26	8d 4d a8	 lea	 ecx, DWORD PTR _colBrush2$197806[ebp]
  01c29	e8 00 00 00 00	 call	 ??0Color@Gdiplus@@QAE@XZ ; Gdiplus::Color::Color

; 463  : 			colBrush1.SetValue( Gdiplus::Color::MakeARGB(15,1,1,1)  );

  01c2e	6a 01		 push	 1
  01c30	6a 01		 push	 1
  01c32	6a 01		 push	 1
  01c34	6a 0f		 push	 15			; 0000000fH
  01c36	e8 00 00 00 00	 call	 ?MakeARGB@Color@Gdiplus@@SAKEEEE@Z ; Gdiplus::Color::MakeARGB
  01c3b	83 c4 10	 add	 esp, 16			; 00000010H
  01c3e	50		 push	 eax
  01c3f	8d 4d 98	 lea	 ecx, DWORD PTR _colBrush1$197805[ebp]
  01c42	e8 00 00 00 00	 call	 ?SetValue@Color@Gdiplus@@QAEXK@Z ; Gdiplus::Color::SetValue

; 464  : 			colBrush2.SetValue( Gdiplus::Color::MakeARGB(0,1,1,1)  );

  01c47	6a 01		 push	 1
  01c49	6a 01		 push	 1
  01c4b	6a 01		 push	 1
  01c4d	6a 00		 push	 0
  01c4f	e8 00 00 00 00	 call	 ?MakeARGB@Color@Gdiplus@@SAKEEEE@Z ; Gdiplus::Color::MakeARGB
  01c54	83 c4 10	 add	 esp, 16			; 00000010H
  01c57	50		 push	 eax
  01c58	8d 4d a8	 lea	 ecx, DWORD PTR _colBrush2$197806[ebp]
  01c5b	e8 00 00 00 00	 call	 ?SetValue@Color@Gdiplus@@QAEXK@Z ; Gdiplus::Color::SetValue

; 465  : 
; 466  : 			LinearGradientBrush brush( rc, colBrush1, colBrush2,LinearGradientModeVertical );

  01c60	6a 01		 push	 1
  01c62	8d 55 a8	 lea	 edx, DWORD PTR _colBrush2$197806[ebp]
  01c65	52		 push	 edx
  01c66	8d 45 98	 lea	 eax, DWORD PTR _colBrush1$197805[ebp]
  01c69	50		 push	 eax
  01c6a	8d 4d ac	 lea	 ecx, DWORD PTR _rc$197804[ebp]
  01c6d	51		 push	 ecx
  01c6e	8d 4d 9c	 lea	 ecx, DWORD PTR _brush$197807[ebp]
  01c71	e8 00 00 00 00	 call	 ??0LinearGradientBrush@Gdiplus@@QAE@ABVRectF@1@ABVColor@1@1W4LinearGradientMode@1@@Z ; Gdiplus::LinearGradientBrush::LinearGradientBrush
  01c76	c6 45 fc 04	 mov	 BYTE PTR __$EHRec$[ebp+8], 4

; 467  : 			gdi.FillRectangle( &brush, rc );

  01c7a	8d 55 ac	 lea	 edx, DWORD PTR _rc$197804[ebp]
  01c7d	52		 push	 edx
  01c7e	8d 45 9c	 lea	 eax, DWORD PTR _brush$197807[ebp]
  01c81	50		 push	 eax
  01c82	8b 4d 08	 mov	 ecx, DWORD PTR _gdi$[ebp]
  01c85	e8 00 00 00 00	 call	 ?FillRectangle@Graphics@Gdiplus@@QAE?AW4Status@2@PBVBrush@2@ABVRectF@2@@Z ; Gdiplus::Graphics::FillRectangle

; 468  : 		}

  01c8a	c6 45 fc 01	 mov	 BYTE PTR __$EHRec$[ebp+8], 1
  01c8e	8d 4d 9c	 lea	 ecx, DWORD PTR _brush$197807[ebp]
  01c91	e8 00 00 00 00	 call	 ??1LinearGradientBrush@Gdiplus@@UAE@XZ

; 469  : 		else

  01c96	e9 ae 00 00 00	 jmp	 $L197808
$L197803:

; 470  : 		{
; 471  : 			Gdiplus::RectF rc( rect2.left, rect2.top, rect2.Width(), rect2.Height()/2 );

  01c9b	8d 4d d0	 lea	 ecx, DWORD PTR _rect2$197796[ebp]
  01c9e	e8 00 00 00 00	 call	 ?Height@CRect@@QBEHXZ	; CRect::Height
  01ca3	99		 cdq
  01ca4	2b c2		 sub	 eax, edx
  01ca6	d1 f8		 sar	 eax, 1
  01ca8	89 85 44 fe ff
	ff		 mov	 DWORD PTR tv1278[ebp], eax
  01cae	db 85 44 fe ff
	ff		 fild	 DWORD PTR tv1278[ebp]
  01cb4	51		 push	 ecx
  01cb5	d9 1c 24	 fstp	 DWORD PTR [esp]
  01cb8	8d 4d d0	 lea	 ecx, DWORD PTR _rect2$197796[ebp]
  01cbb	e8 00 00 00 00	 call	 ?Width@CRect@@QBEHXZ	; CRect::Width
  01cc0	89 85 40 fe ff
	ff		 mov	 DWORD PTR tv1280[ebp], eax
  01cc6	db 85 40 fe ff
	ff		 fild	 DWORD PTR tv1280[ebp]
  01ccc	51		 push	 ecx
  01ccd	d9 1c 24	 fstp	 DWORD PTR [esp]
  01cd0	db 45 d4	 fild	 DWORD PTR _rect2$197796[ebp+4]
  01cd3	51		 push	 ecx
  01cd4	d9 1c 24	 fstp	 DWORD PTR [esp]
  01cd7	db 45 d0	 fild	 DWORD PTR _rect2$197796[ebp]
  01cda	51		 push	 ecx
  01cdb	d9 1c 24	 fstp	 DWORD PTR [esp]
  01cde	8d 4d 88	 lea	 ecx, DWORD PTR _rc$197809[ebp]
  01ce1	e8 00 00 00 00	 call	 ??0RectF@Gdiplus@@QAE@MMMM@Z ; Gdiplus::RectF::RectF

; 472  : 			rc.Inflate(-1,-1);

  01ce6	68 00 00 80 bf	 push	 -1082130432		; bf800000H
  01ceb	68 00 00 80 bf	 push	 -1082130432		; bf800000H
  01cf0	8d 4d 88	 lea	 ecx, DWORD PTR _rc$197809[ebp]
  01cf3	e8 00 00 00 00	 call	 ?Inflate@RectF@Gdiplus@@QAEXMM@Z ; Gdiplus::RectF::Inflate

; 473  : 			LinearGradientBrush brush( rc, m_colBrush1, m_colBrush2,LinearGradientModeVertical );

  01cf8	6a 01		 push	 1
  01cfa	8b 8d 50 fe ff
	ff		 mov	 ecx, DWORD PTR _this$[ebp]
  01d00	81 c1 7c 01 00
	00		 add	 ecx, 380		; 0000017cH
  01d06	51		 push	 ecx
  01d07	8b 95 50 fe ff
	ff		 mov	 edx, DWORD PTR _this$[ebp]
  01d0d	81 c2 78 01 00
	00		 add	 edx, 376		; 00000178H
  01d13	52		 push	 edx
  01d14	8d 45 88	 lea	 eax, DWORD PTR _rc$197809[ebp]
  01d17	50		 push	 eax
  01d18	8d 8d 7c ff ff
	ff		 lea	 ecx, DWORD PTR _brush$197810[ebp]
  01d1e	e8 00 00 00 00	 call	 ??0LinearGradientBrush@Gdiplus@@QAE@ABVRectF@1@ABVColor@1@1W4LinearGradientMode@1@@Z ; Gdiplus::LinearGradientBrush::LinearGradientBrush
  01d23	c6 45 fc 05	 mov	 BYTE PTR __$EHRec$[ebp+8], 5

; 474  : 			gdi.FillRectangle( &brush, rc );

  01d27	8d 4d 88	 lea	 ecx, DWORD PTR _rc$197809[ebp]
  01d2a	51		 push	 ecx
  01d2b	8d 95 7c ff ff
	ff		 lea	 edx, DWORD PTR _brush$197810[ebp]
  01d31	52		 push	 edx
  01d32	8b 4d 08	 mov	 ecx, DWORD PTR _gdi$[ebp]
  01d35	e8 00 00 00 00	 call	 ?FillRectangle@Graphics@Gdiplus@@QAE?AW4Status@2@PBVBrush@2@ABVRectF@2@@Z ; Gdiplus::Graphics::FillRectangle

; 475  : 		}

  01d3a	c6 45 fc 01	 mov	 BYTE PTR __$EHRec$[ebp+8], 1
  01d3e	8d 8d 7c ff ff
	ff		 lea	 ecx, DWORD PTR _brush$197810[ebp]
  01d44	e8 00 00 00 00	 call	 ??1LinearGradientBrush@Gdiplus@@UAE@XZ
$L197808:

; 476  : 
; 477  : 		return;

  01d49	c6 45 fc 00	 mov	 BYTE PTR __$EHRec$[ebp+8], 0
  01d4d	8d 4d e0	 lea	 ecx, DWORD PTR _penPix1$197795[ebp]
  01d50	e8 00 00 00 00	 call	 ??1Pen@Gdiplus@@QAE@XZ	; Gdiplus::Pen::~Pen
  01d55	c7 45 fc ff ff
	ff ff		 mov	 DWORD PTR __$EHRec$[ebp+8], -1
  01d5c	8d 4d ec	 lea	 ecx, DWORD PTR _pen1$197793[ebp]
  01d5f	e8 00 00 00 00	 call	 ??1Pen@Gdiplus@@QAE@XZ	; Gdiplus::Pen::~Pen
  01d64	e9 e1 0c 00 00	 jmp	 $L197791
$L197792:

; 478  : 	}
; 479  : 	else if( m_enmuDrawType == NO_FRAME_SELECT )

  01d69	8b 85 50 fe ff
	ff		 mov	 eax, DWORD PTR _this$[ebp]
  01d6f	83 78 54 10	 cmp	 DWORD PTR [eax+84], 16	; 00000010H
  01d73	0f 85 31 07 00
	00		 jne	 $L197811

; 480  : 	{
; 481  : 		Gdiplus::Pen pen1( m_colFrame1 );

  01d79	68 00 00 80 3f	 push	 1065353216		; 3f800000H
  01d7e	8b 8d 50 fe ff
	ff		 mov	 ecx, DWORD PTR _this$[ebp]
  01d84	81 c1 70 01 00
	00		 add	 ecx, 368		; 00000170H
  01d8a	51		 push	 ecx
  01d8b	8d 8d 54 ff ff
	ff		 lea	 ecx, DWORD PTR _pen1$197813[ebp]
  01d91	e8 00 00 00 00	 call	 ??0Pen@Gdiplus@@QAE@ABVColor@1@M@Z ; Gdiplus::Pen::Pen
  01d96	c7 45 fc 06 00
	00 00		 mov	 DWORD PTR __$EHRec$[ebp+8], 6

; 482  : 		gdi.DrawLine( &pen1, rect.left+1, rect.top, rect.right-2, rect.top );

  01d9d	8b 55 0c	 mov	 edx, DWORD PTR _rect$[ebp]
  01da0	8b 42 04	 mov	 eax, DWORD PTR [edx+4]
  01da3	50		 push	 eax
  01da4	8b 4d 0c	 mov	 ecx, DWORD PTR _rect$[ebp]
  01da7	8b 51 08	 mov	 edx, DWORD PTR [ecx+8]
  01daa	83 ea 02	 sub	 edx, 2
  01dad	52		 push	 edx
  01dae	8b 45 0c	 mov	 eax, DWORD PTR _rect$[ebp]
  01db1	8b 48 04	 mov	 ecx, DWORD PTR [eax+4]
  01db4	51		 push	 ecx
  01db5	8b 55 0c	 mov	 edx, DWORD PTR _rect$[ebp]
  01db8	8b 02		 mov	 eax, DWORD PTR [edx]
  01dba	83 c0 01	 add	 eax, 1
  01dbd	50		 push	 eax
  01dbe	8d 8d 54 ff ff
	ff		 lea	 ecx, DWORD PTR _pen1$197813[ebp]
  01dc4	51		 push	 ecx
  01dc5	8b 4d 08	 mov	 ecx, DWORD PTR _gdi$[ebp]
  01dc8	e8 00 00 00 00	 call	 ?DrawLine@Graphics@Gdiplus@@QAE?AW4Status@2@PBVPen@2@HHHH@Z ; Gdiplus::Graphics::DrawLine

; 483  : 		gdi.DrawLine( &pen1, rect.left+1, rect.bottom-1, rect.right-2, rect.bottom-1 );

  01dcd	8b 55 0c	 mov	 edx, DWORD PTR _rect$[ebp]
  01dd0	8b 42 0c	 mov	 eax, DWORD PTR [edx+12]
  01dd3	83 e8 01	 sub	 eax, 1
  01dd6	50		 push	 eax
  01dd7	8b 4d 0c	 mov	 ecx, DWORD PTR _rect$[ebp]
  01dda	8b 51 08	 mov	 edx, DWORD PTR [ecx+8]
  01ddd	83 ea 02	 sub	 edx, 2
  01de0	52		 push	 edx
  01de1	8b 45 0c	 mov	 eax, DWORD PTR _rect$[ebp]
  01de4	8b 48 0c	 mov	 ecx, DWORD PTR [eax+12]
  01de7	83 e9 01	 sub	 ecx, 1
  01dea	51		 push	 ecx
  01deb	8b 55 0c	 mov	 edx, DWORD PTR _rect$[ebp]
  01dee	8b 02		 mov	 eax, DWORD PTR [edx]
  01df0	83 c0 01	 add	 eax, 1
  01df3	50		 push	 eax
  01df4	8d 8d 54 ff ff
	ff		 lea	 ecx, DWORD PTR _pen1$197813[ebp]
  01dfa	51		 push	 ecx
  01dfb	8b 4d 08	 mov	 ecx, DWORD PTR _gdi$[ebp]
  01dfe	e8 00 00 00 00	 call	 ?DrawLine@Graphics@Gdiplus@@QAE?AW4Status@2@PBVPen@2@HHHH@Z ; Gdiplus::Graphics::DrawLine

; 484  : 		gdi.DrawLine( &pen1, rect.left, rect.top+1, rect.left, rect.bottom-2 );

  01e03	8b 55 0c	 mov	 edx, DWORD PTR _rect$[ebp]
  01e06	8b 42 0c	 mov	 eax, DWORD PTR [edx+12]
  01e09	83 e8 02	 sub	 eax, 2
  01e0c	50		 push	 eax
  01e0d	8b 4d 0c	 mov	 ecx, DWORD PTR _rect$[ebp]
  01e10	8b 11		 mov	 edx, DWORD PTR [ecx]
  01e12	52		 push	 edx
  01e13	8b 45 0c	 mov	 eax, DWORD PTR _rect$[ebp]
  01e16	8b 48 04	 mov	 ecx, DWORD PTR [eax+4]
  01e19	83 c1 01	 add	 ecx, 1
  01e1c	51		 push	 ecx
  01e1d	8b 55 0c	 mov	 edx, DWORD PTR _rect$[ebp]
  01e20	8b 02		 mov	 eax, DWORD PTR [edx]
  01e22	50		 push	 eax
  01e23	8d 8d 54 ff ff
	ff		 lea	 ecx, DWORD PTR _pen1$197813[ebp]
  01e29	51		 push	 ecx
  01e2a	8b 4d 08	 mov	 ecx, DWORD PTR _gdi$[ebp]
  01e2d	e8 00 00 00 00	 call	 ?DrawLine@Graphics@Gdiplus@@QAE?AW4Status@2@PBVPen@2@HHHH@Z ; Gdiplus::Graphics::DrawLine

; 485  : 		gdi.DrawLine( &pen1, rect.right-1, rect.top+1, rect.right-1, rect.bottom-2 );

  01e32	8b 55 0c	 mov	 edx, DWORD PTR _rect$[ebp]
  01e35	8b 42 0c	 mov	 eax, DWORD PTR [edx+12]
  01e38	83 e8 02	 sub	 eax, 2
  01e3b	50		 push	 eax
  01e3c	8b 4d 0c	 mov	 ecx, DWORD PTR _rect$[ebp]
  01e3f	8b 51 08	 mov	 edx, DWORD PTR [ecx+8]
  01e42	83 ea 01	 sub	 edx, 1
  01e45	52		 push	 edx
  01e46	8b 45 0c	 mov	 eax, DWORD PTR _rect$[ebp]
  01e49	8b 48 04	 mov	 ecx, DWORD PTR [eax+4]
  01e4c	83 c1 01	 add	 ecx, 1
  01e4f	51		 push	 ecx
  01e50	8b 55 0c	 mov	 edx, DWORD PTR _rect$[ebp]
  01e53	8b 42 08	 mov	 eax, DWORD PTR [edx+8]
  01e56	83 e8 01	 sub	 eax, 1
  01e59	50		 push	 eax
  01e5a	8d 8d 54 ff ff
	ff		 lea	 ecx, DWORD PTR _pen1$197813[ebp]
  01e60	51		 push	 ecx
  01e61	8b 4d 08	 mov	 ecx, DWORD PTR _gdi$[ebp]
  01e64	e8 00 00 00 00	 call	 ?DrawLine@Graphics@Gdiplus@@QAE?AW4Status@2@PBVPen@2@HHHH@Z ; Gdiplus::Graphics::DrawLine

; 486  : 
; 487  : 		Gdiplus::Color colpix;

  01e69	8d 8d 50 ff ff
	ff		 lea	 ecx, DWORD PTR _colpix$197814[ebp]
  01e6f	e8 00 00 00 00	 call	 ??0Color@Gdiplus@@QAE@XZ ; Gdiplus::Color::Color

; 488  : 		pen1.GetColor( &colpix );

  01e74	8d 95 50 ff ff
	ff		 lea	 edx, DWORD PTR _colpix$197814[ebp]
  01e7a	52		 push	 edx
  01e7b	8d 8d 54 ff ff
	ff		 lea	 ecx, DWORD PTR _pen1$197813[ebp]
  01e81	e8 00 00 00 00	 call	 ?GetColor@Pen@Gdiplus@@QBE?AW4Status@2@PAVColor@2@@Z ; Gdiplus::Pen::GetColor

; 489  : 		colpix.SetValue( Gdiplus::Color::MakeARGB(colpix.GetA()/2,colpix.GetR(),colpix.GetG(),colpix.GetB() ) );

  01e86	8d 8d 50 ff ff
	ff		 lea	 ecx, DWORD PTR _colpix$197814[ebp]
  01e8c	e8 00 00 00 00	 call	 ?GetB@Color@Gdiplus@@QBEEXZ ; Gdiplus::Color::GetB
  01e91	50		 push	 eax
  01e92	8d 8d 50 ff ff
	ff		 lea	 ecx, DWORD PTR _colpix$197814[ebp]
  01e98	e8 00 00 00 00	 call	 ?GetG@Color@Gdiplus@@QBEEXZ ; Gdiplus::Color::GetG
  01e9d	50		 push	 eax
  01e9e	8d 8d 50 ff ff
	ff		 lea	 ecx, DWORD PTR _colpix$197814[ebp]
  01ea4	e8 00 00 00 00	 call	 ?GetR@Color@Gdiplus@@QBEEXZ ; Gdiplus::Color::GetR
  01ea9	50		 push	 eax
  01eaa	8d 8d 50 ff ff
	ff		 lea	 ecx, DWORD PTR _colpix$197814[ebp]
  01eb0	e8 00 00 00 00	 call	 ?GetA@Color@Gdiplus@@QBEEXZ ; Gdiplus::Color::GetA
  01eb5	0f b6 c0	 movzx	 eax, al
  01eb8	99		 cdq
  01eb9	2b c2		 sub	 eax, edx
  01ebb	d1 f8		 sar	 eax, 1
  01ebd	50		 push	 eax
  01ebe	e8 00 00 00 00	 call	 ?MakeARGB@Color@Gdiplus@@SAKEEEE@Z ; Gdiplus::Color::MakeARGB
  01ec3	83 c4 10	 add	 esp, 16			; 00000010H
  01ec6	50		 push	 eax
  01ec7	8d 8d 50 ff ff
	ff		 lea	 ecx, DWORD PTR _colpix$197814[ebp]
  01ecd	e8 00 00 00 00	 call	 ?SetValue@Color@Gdiplus@@QAEXK@Z ; Gdiplus::Color::SetValue

; 490  : 		Gdiplus::Pen penPix1( colpix );

  01ed2	68 00 00 80 3f	 push	 1065353216		; 3f800000H
  01ed7	8d 85 50 ff ff
	ff		 lea	 eax, DWORD PTR _colpix$197814[ebp]
  01edd	50		 push	 eax
  01ede	8d 8d 28 ff ff
	ff		 lea	 ecx, DWORD PTR _penPix1$197815[ebp]
  01ee4	e8 00 00 00 00	 call	 ??0Pen@Gdiplus@@QAE@ABVColor@1@M@Z ; Gdiplus::Pen::Pen
  01ee9	c6 45 fc 07	 mov	 BYTE PTR __$EHRec$[ebp+8], 7

; 491  : 		gdi.DrawLine( &penPix1, rect.left, rect.top, rect.left+1, rect.top );

  01eed	8b 4d 0c	 mov	 ecx, DWORD PTR _rect$[ebp]
  01ef0	8b 51 04	 mov	 edx, DWORD PTR [ecx+4]
  01ef3	52		 push	 edx
  01ef4	8b 45 0c	 mov	 eax, DWORD PTR _rect$[ebp]
  01ef7	8b 08		 mov	 ecx, DWORD PTR [eax]
  01ef9	83 c1 01	 add	 ecx, 1
  01efc	51		 push	 ecx
  01efd	8b 55 0c	 mov	 edx, DWORD PTR _rect$[ebp]
  01f00	8b 42 04	 mov	 eax, DWORD PTR [edx+4]
  01f03	50		 push	 eax
  01f04	8b 4d 0c	 mov	 ecx, DWORD PTR _rect$[ebp]
  01f07	8b 11		 mov	 edx, DWORD PTR [ecx]
  01f09	52		 push	 edx
  01f0a	8d 85 28 ff ff
	ff		 lea	 eax, DWORD PTR _penPix1$197815[ebp]
  01f10	50		 push	 eax
  01f11	8b 4d 08	 mov	 ecx, DWORD PTR _gdi$[ebp]
  01f14	e8 00 00 00 00	 call	 ?DrawLine@Graphics@Gdiplus@@QAE?AW4Status@2@PBVPen@2@HHHH@Z ; Gdiplus::Graphics::DrawLine

; 492  : 		gdi.DrawLine( &penPix1, rect.right-1, rect.top, rect.right-1, rect.top+1 );

  01f19	8b 4d 0c	 mov	 ecx, DWORD PTR _rect$[ebp]
  01f1c	8b 51 04	 mov	 edx, DWORD PTR [ecx+4]
  01f1f	83 c2 01	 add	 edx, 1
  01f22	52		 push	 edx
  01f23	8b 45 0c	 mov	 eax, DWORD PTR _rect$[ebp]
  01f26	8b 48 08	 mov	 ecx, DWORD PTR [eax+8]
  01f29	83 e9 01	 sub	 ecx, 1
  01f2c	51		 push	 ecx
  01f2d	8b 55 0c	 mov	 edx, DWORD PTR _rect$[ebp]
  01f30	8b 42 04	 mov	 eax, DWORD PTR [edx+4]
  01f33	50		 push	 eax
  01f34	8b 4d 0c	 mov	 ecx, DWORD PTR _rect$[ebp]
  01f37	8b 51 08	 mov	 edx, DWORD PTR [ecx+8]
  01f3a	83 ea 01	 sub	 edx, 1
  01f3d	52		 push	 edx
  01f3e	8d 85 28 ff ff
	ff		 lea	 eax, DWORD PTR _penPix1$197815[ebp]
  01f44	50		 push	 eax
  01f45	8b 4d 08	 mov	 ecx, DWORD PTR _gdi$[ebp]
  01f48	e8 00 00 00 00	 call	 ?DrawLine@Graphics@Gdiplus@@QAE?AW4Status@2@PBVPen@2@HHHH@Z ; Gdiplus::Graphics::DrawLine

; 493  : 		gdi.DrawLine( &penPix1, rect.right-1, rect.bottom-1, rect.right-2, rect.bottom-1 );

  01f4d	8b 4d 0c	 mov	 ecx, DWORD PTR _rect$[ebp]
  01f50	8b 51 0c	 mov	 edx, DWORD PTR [ecx+12]
  01f53	83 ea 01	 sub	 edx, 1
  01f56	52		 push	 edx
  01f57	8b 45 0c	 mov	 eax, DWORD PTR _rect$[ebp]
  01f5a	8b 48 08	 mov	 ecx, DWORD PTR [eax+8]
  01f5d	83 e9 02	 sub	 ecx, 2
  01f60	51		 push	 ecx
  01f61	8b 55 0c	 mov	 edx, DWORD PTR _rect$[ebp]
  01f64	8b 42 0c	 mov	 eax, DWORD PTR [edx+12]
  01f67	83 e8 01	 sub	 eax, 1
  01f6a	50		 push	 eax
  01f6b	8b 4d 0c	 mov	 ecx, DWORD PTR _rect$[ebp]
  01f6e	8b 51 08	 mov	 edx, DWORD PTR [ecx+8]
  01f71	83 ea 01	 sub	 edx, 1
  01f74	52		 push	 edx
  01f75	8d 85 28 ff ff
	ff		 lea	 eax, DWORD PTR _penPix1$197815[ebp]
  01f7b	50		 push	 eax
  01f7c	8b 4d 08	 mov	 ecx, DWORD PTR _gdi$[ebp]
  01f7f	e8 00 00 00 00	 call	 ?DrawLine@Graphics@Gdiplus@@QAE?AW4Status@2@PBVPen@2@HHHH@Z ; Gdiplus::Graphics::DrawLine

; 494  : 		gdi.DrawLine( &penPix1, rect.left,  rect.bottom-1, rect.left+1,  rect.bottom-1 );

  01f84	8b 4d 0c	 mov	 ecx, DWORD PTR _rect$[ebp]
  01f87	8b 51 0c	 mov	 edx, DWORD PTR [ecx+12]
  01f8a	83 ea 01	 sub	 edx, 1
  01f8d	52		 push	 edx
  01f8e	8b 45 0c	 mov	 eax, DWORD PTR _rect$[ebp]
  01f91	8b 08		 mov	 ecx, DWORD PTR [eax]
  01f93	83 c1 01	 add	 ecx, 1
  01f96	51		 push	 ecx
  01f97	8b 55 0c	 mov	 edx, DWORD PTR _rect$[ebp]
  01f9a	8b 42 0c	 mov	 eax, DWORD PTR [edx+12]
  01f9d	83 e8 01	 sub	 eax, 1
  01fa0	50		 push	 eax
  01fa1	8b 4d 0c	 mov	 ecx, DWORD PTR _rect$[ebp]
  01fa4	8b 11		 mov	 edx, DWORD PTR [ecx]
  01fa6	52		 push	 edx
  01fa7	8d 85 28 ff ff
	ff		 lea	 eax, DWORD PTR _penPix1$197815[ebp]
  01fad	50		 push	 eax
  01fae	8b 4d 08	 mov	 ecx, DWORD PTR _gdi$[ebp]
  01fb1	e8 00 00 00 00	 call	 ?DrawLine@Graphics@Gdiplus@@QAE?AW4Status@2@PBVPen@2@HHHH@Z ; Gdiplus::Graphics::DrawLine

; 495  : 
; 496  : 		CRect rect2 = rect;

  01fb6	8b 4d 0c	 mov	 ecx, DWORD PTR _rect$[ebp]
  01fb9	8b 11		 mov	 edx, DWORD PTR [ecx]
  01fbb	89 95 08 ff ff
	ff		 mov	 DWORD PTR _rect2$197816[ebp], edx
  01fc1	8b 41 04	 mov	 eax, DWORD PTR [ecx+4]
  01fc4	89 85 0c ff ff
	ff		 mov	 DWORD PTR _rect2$197816[ebp+4], eax
  01fca	8b 51 08	 mov	 edx, DWORD PTR [ecx+8]
  01fcd	89 95 10 ff ff
	ff		 mov	 DWORD PTR _rect2$197816[ebp+8], edx
  01fd3	8b 41 0c	 mov	 eax, DWORD PTR [ecx+12]
  01fd6	89 85 14 ff ff
	ff		 mov	 DWORD PTR _rect2$197816[ebp+12], eax

; 497  : 		::InflateRect( &rect2, -1,-1 );

  01fdc	6a ff		 push	 -1
  01fde	6a ff		 push	 -1
  01fe0	8d 8d 08 ff ff
	ff		 lea	 ecx, DWORD PTR _rect2$197816[ebp]
  01fe6	51		 push	 ecx
  01fe7	ff 15 00 00 00
	00		 call	 DWORD PTR __imp__InflateRect@12

; 498  : 		if( !m_bMouseDown )

  01fed	8b 95 50 fe ff
	ff		 mov	 edx, DWORD PTR _this$[ebp]
  01ff3	83 ba 88 00 00
	00 00		 cmp	 DWORD PTR [edx+136], 0
  01ffa	0f 85 9f 02 00
	00		 jne	 $L197817

; 499  : 		{
; 500  : 			Gdiplus::Pen pen2(m_colFrame2);

  02000	68 00 00 80 3f	 push	 1065353216		; 3f800000H
  02005	8b 85 50 fe ff
	ff		 mov	 eax, DWORD PTR _this$[ebp]
  0200b	05 74 01 00 00	 add	 eax, 372		; 00000174H
  02010	50		 push	 eax
  02011	8d 8d 00 ff ff
	ff		 lea	 ecx, DWORD PTR _pen2$197818[ebp]
  02017	e8 00 00 00 00	 call	 ??0Pen@Gdiplus@@QAE@ABVColor@1@M@Z ; Gdiplus::Pen::Pen
  0201c	c6 45 fc 08	 mov	 BYTE PTR __$EHRec$[ebp+8], 8

; 501  : 			if( m_bMouseDown )

  02020	8b 8d 50 fe ff
	ff		 mov	 ecx, DWORD PTR _this$[ebp]
  02026	83 b9 88 00 00
	00 00		 cmp	 DWORD PTR [ecx+136], 0
  0202d	74 1a		 je	 SHORT $L197819

; 502  : 				pen2.SetColor(m_colFrame1);

  0202f	8b 95 50 fe ff
	ff		 mov	 edx, DWORD PTR _this$[ebp]
  02035	81 c2 70 01 00
	00		 add	 edx, 368		; 00000170H
  0203b	52		 push	 edx
  0203c	8d 8d 00 ff ff
	ff		 lea	 ecx, DWORD PTR _pen2$197818[ebp]
  02042	e8 00 00 00 00	 call	 ?SetColor@Pen@Gdiplus@@QAE?AW4Status@2@ABVColor@2@@Z ; Gdiplus::Pen::SetColor

; 503  : 			else

  02047	eb 17		 jmp	 SHORT $L197820
$L197819:

; 504  : 				pen2.SetColor(m_colFrame2);

  02049	8b 85 50 fe ff
	ff		 mov	 eax, DWORD PTR _this$[ebp]
  0204f	05 74 01 00 00	 add	 eax, 372		; 00000174H
  02054	50		 push	 eax
  02055	8d 8d 00 ff ff
	ff		 lea	 ecx, DWORD PTR _pen2$197818[ebp]
  0205b	e8 00 00 00 00	 call	 ?SetColor@Pen@Gdiplus@@QAE?AW4Status@2@ABVColor@2@@Z ; Gdiplus::Pen::SetColor
$L197820:

; 505  : 
; 506  : 			gdi.DrawLine( &pen2, rect2.left+1, rect2.top, rect2.right-2, rect2.top );

  02060	8b 8d 0c ff ff
	ff		 mov	 ecx, DWORD PTR _rect2$197816[ebp+4]
  02066	51		 push	 ecx
  02067	8b 95 10 ff ff
	ff		 mov	 edx, DWORD PTR _rect2$197816[ebp+8]
  0206d	83 ea 02	 sub	 edx, 2
  02070	52		 push	 edx
  02071	8b 85 0c ff ff
	ff		 mov	 eax, DWORD PTR _rect2$197816[ebp+4]
  02077	50		 push	 eax
  02078	8b 8d 08 ff ff
	ff		 mov	 ecx, DWORD PTR _rect2$197816[ebp]
  0207e	83 c1 01	 add	 ecx, 1
  02081	51		 push	 ecx
  02082	8d 95 00 ff ff
	ff		 lea	 edx, DWORD PTR _pen2$197818[ebp]
  02088	52		 push	 edx
  02089	8b 4d 08	 mov	 ecx, DWORD PTR _gdi$[ebp]
  0208c	e8 00 00 00 00	 call	 ?DrawLine@Graphics@Gdiplus@@QAE?AW4Status@2@PBVPen@2@HHHH@Z ; Gdiplus::Graphics::DrawLine

; 507  : 			gdi.DrawLine( &pen2, rect2.left+1, rect2.bottom-1, rect2.right-2, rect2.bottom-1 );

  02091	8b 85 14 ff ff
	ff		 mov	 eax, DWORD PTR _rect2$197816[ebp+12]
  02097	83 e8 01	 sub	 eax, 1
  0209a	50		 push	 eax
  0209b	8b 8d 10 ff ff
	ff		 mov	 ecx, DWORD PTR _rect2$197816[ebp+8]
  020a1	83 e9 02	 sub	 ecx, 2
  020a4	51		 push	 ecx
  020a5	8b 95 14 ff ff
	ff		 mov	 edx, DWORD PTR _rect2$197816[ebp+12]
  020ab	83 ea 01	 sub	 edx, 1
  020ae	52		 push	 edx
  020af	8b 85 08 ff ff
	ff		 mov	 eax, DWORD PTR _rect2$197816[ebp]
  020b5	83 c0 01	 add	 eax, 1
  020b8	50		 push	 eax
  020b9	8d 8d 00 ff ff
	ff		 lea	 ecx, DWORD PTR _pen2$197818[ebp]
  020bf	51		 push	 ecx
  020c0	8b 4d 08	 mov	 ecx, DWORD PTR _gdi$[ebp]
  020c3	e8 00 00 00 00	 call	 ?DrawLine@Graphics@Gdiplus@@QAE?AW4Status@2@PBVPen@2@HHHH@Z ; Gdiplus::Graphics::DrawLine

; 508  : 			gdi.DrawLine( &pen2, rect2.left, rect2.top+1, rect2.left, rect2.bottom-2 );

  020c8	8b 95 14 ff ff
	ff		 mov	 edx, DWORD PTR _rect2$197816[ebp+12]
  020ce	83 ea 02	 sub	 edx, 2
  020d1	52		 push	 edx
  020d2	8b 85 08 ff ff
	ff		 mov	 eax, DWORD PTR _rect2$197816[ebp]
  020d8	50		 push	 eax
  020d9	8b 8d 0c ff ff
	ff		 mov	 ecx, DWORD PTR _rect2$197816[ebp+4]
  020df	83 c1 01	 add	 ecx, 1
  020e2	51		 push	 ecx
  020e3	8b 95 08 ff ff
	ff		 mov	 edx, DWORD PTR _rect2$197816[ebp]
  020e9	52		 push	 edx
  020ea	8d 85 00 ff ff
	ff		 lea	 eax, DWORD PTR _pen2$197818[ebp]
  020f0	50		 push	 eax
  020f1	8b 4d 08	 mov	 ecx, DWORD PTR _gdi$[ebp]
  020f4	e8 00 00 00 00	 call	 ?DrawLine@Graphics@Gdiplus@@QAE?AW4Status@2@PBVPen@2@HHHH@Z ; Gdiplus::Graphics::DrawLine

; 509  : 			gdi.DrawLine( &pen2, rect2.right-1, rect2.top+1, rect2.right-1, rect2.bottom-2 );

  020f9	8b 8d 14 ff ff
	ff		 mov	 ecx, DWORD PTR _rect2$197816[ebp+12]
  020ff	83 e9 02	 sub	 ecx, 2
  02102	51		 push	 ecx
  02103	8b 95 10 ff ff
	ff		 mov	 edx, DWORD PTR _rect2$197816[ebp+8]
  02109	83 ea 01	 sub	 edx, 1
  0210c	52		 push	 edx
  0210d	8b 85 0c ff ff
	ff		 mov	 eax, DWORD PTR _rect2$197816[ebp+4]
  02113	83 c0 01	 add	 eax, 1
  02116	50		 push	 eax
  02117	8b 8d 10 ff ff
	ff		 mov	 ecx, DWORD PTR _rect2$197816[ebp+8]
  0211d	83 e9 01	 sub	 ecx, 1
  02120	51		 push	 ecx
  02121	8d 95 00 ff ff
	ff		 lea	 edx, DWORD PTR _pen2$197818[ebp]
  02127	52		 push	 edx
  02128	8b 4d 08	 mov	 ecx, DWORD PTR _gdi$[ebp]
  0212b	e8 00 00 00 00	 call	 ?DrawLine@Graphics@Gdiplus@@QAE?AW4Status@2@PBVPen@2@HHHH@Z ; Gdiplus::Graphics::DrawLine

; 510  : 
; 511  : 			Gdiplus::Color colpix2;

  02130	8d 8d f4 fe ff
	ff		 lea	 ecx, DWORD PTR _colpix2$197821[ebp]
  02136	e8 00 00 00 00	 call	 ??0Color@Gdiplus@@QAE@XZ ; Gdiplus::Color::Color

; 512  : 			pen2.GetColor( &colpix2 );

  0213b	8d 85 f4 fe ff
	ff		 lea	 eax, DWORD PTR _colpix2$197821[ebp]
  02141	50		 push	 eax
  02142	8d 8d 00 ff ff
	ff		 lea	 ecx, DWORD PTR _pen2$197818[ebp]
  02148	e8 00 00 00 00	 call	 ?GetColor@Pen@Gdiplus@@QBE?AW4Status@2@PAVColor@2@@Z ; Gdiplus::Pen::GetColor

; 513  : 			colpix2.SetValue( Gdiplus::Color::MakeARGB(colpix2.GetA()/2,colpix2.GetR(),colpix2.GetG(),colpix2.GetB() ) );

  0214d	8d 8d f4 fe ff
	ff		 lea	 ecx, DWORD PTR _colpix2$197821[ebp]
  02153	e8 00 00 00 00	 call	 ?GetB@Color@Gdiplus@@QBEEXZ ; Gdiplus::Color::GetB
  02158	50		 push	 eax
  02159	8d 8d f4 fe ff
	ff		 lea	 ecx, DWORD PTR _colpix2$197821[ebp]
  0215f	e8 00 00 00 00	 call	 ?GetG@Color@Gdiplus@@QBEEXZ ; Gdiplus::Color::GetG
  02164	50		 push	 eax
  02165	8d 8d f4 fe ff
	ff		 lea	 ecx, DWORD PTR _colpix2$197821[ebp]
  0216b	e8 00 00 00 00	 call	 ?GetR@Color@Gdiplus@@QBEEXZ ; Gdiplus::Color::GetR
  02170	50		 push	 eax
  02171	8d 8d f4 fe ff
	ff		 lea	 ecx, DWORD PTR _colpix2$197821[ebp]
  02177	e8 00 00 00 00	 call	 ?GetA@Color@Gdiplus@@QBEEXZ ; Gdiplus::Color::GetA
  0217c	0f b6 c0	 movzx	 eax, al
  0217f	99		 cdq
  02180	2b c2		 sub	 eax, edx
  02182	d1 f8		 sar	 eax, 1
  02184	50		 push	 eax
  02185	e8 00 00 00 00	 call	 ?MakeARGB@Color@Gdiplus@@SAKEEEE@Z ; Gdiplus::Color::MakeARGB
  0218a	83 c4 10	 add	 esp, 16			; 00000010H
  0218d	50		 push	 eax
  0218e	8d 8d f4 fe ff
	ff		 lea	 ecx, DWORD PTR _colpix2$197821[ebp]
  02194	e8 00 00 00 00	 call	 ?SetValue@Color@Gdiplus@@QAEXK@Z ; Gdiplus::Color::SetValue

; 514  : 			Gdiplus::Pen penPix2( colpix2 );

  02199	68 00 00 80 3f	 push	 1065353216		; 3f800000H
  0219e	8d 8d f4 fe ff
	ff		 lea	 ecx, DWORD PTR _colpix2$197821[ebp]
  021a4	51		 push	 ecx
  021a5	8d 8d f8 fe ff
	ff		 lea	 ecx, DWORD PTR _penPix2$197822[ebp]
  021ab	e8 00 00 00 00	 call	 ??0Pen@Gdiplus@@QAE@ABVColor@1@M@Z ; Gdiplus::Pen::Pen
  021b0	c6 45 fc 09	 mov	 BYTE PTR __$EHRec$[ebp+8], 9

; 515  : 			gdi.DrawLine( &penPix2, rect2.left, rect2.top, rect2.left+1, rect2.top );

  021b4	8b 95 0c ff ff
	ff		 mov	 edx, DWORD PTR _rect2$197816[ebp+4]
  021ba	52		 push	 edx
  021bb	8b 85 08 ff ff
	ff		 mov	 eax, DWORD PTR _rect2$197816[ebp]
  021c1	83 c0 01	 add	 eax, 1
  021c4	50		 push	 eax
  021c5	8b 8d 0c ff ff
	ff		 mov	 ecx, DWORD PTR _rect2$197816[ebp+4]
  021cb	51		 push	 ecx
  021cc	8b 95 08 ff ff
	ff		 mov	 edx, DWORD PTR _rect2$197816[ebp]
  021d2	52		 push	 edx
  021d3	8d 85 f8 fe ff
	ff		 lea	 eax, DWORD PTR _penPix2$197822[ebp]
  021d9	50		 push	 eax
  021da	8b 4d 08	 mov	 ecx, DWORD PTR _gdi$[ebp]
  021dd	e8 00 00 00 00	 call	 ?DrawLine@Graphics@Gdiplus@@QAE?AW4Status@2@PBVPen@2@HHHH@Z ; Gdiplus::Graphics::DrawLine

; 516  : 			gdi.DrawLine( &penPix2, rect2.right-1, rect2.top, rect2.right-1, rect2.top+1 );

  021e2	8b 8d 0c ff ff
	ff		 mov	 ecx, DWORD PTR _rect2$197816[ebp+4]
  021e8	83 c1 01	 add	 ecx, 1
  021eb	51		 push	 ecx
  021ec	8b 95 10 ff ff
	ff		 mov	 edx, DWORD PTR _rect2$197816[ebp+8]
  021f2	83 ea 01	 sub	 edx, 1
  021f5	52		 push	 edx
  021f6	8b 85 0c ff ff
	ff		 mov	 eax, DWORD PTR _rect2$197816[ebp+4]
  021fc	50		 push	 eax
  021fd	8b 8d 10 ff ff
	ff		 mov	 ecx, DWORD PTR _rect2$197816[ebp+8]
  02203	83 e9 01	 sub	 ecx, 1
  02206	51		 push	 ecx
  02207	8d 95 f8 fe ff
	ff		 lea	 edx, DWORD PTR _penPix2$197822[ebp]
  0220d	52		 push	 edx
  0220e	8b 4d 08	 mov	 ecx, DWORD PTR _gdi$[ebp]
  02211	e8 00 00 00 00	 call	 ?DrawLine@Graphics@Gdiplus@@QAE?AW4Status@2@PBVPen@2@HHHH@Z ; Gdiplus::Graphics::DrawLine

; 517  : 			gdi.DrawLine( &penPix2, rect2.right-1, rect2.bottom-1, rect2.right-2, rect2.bottom-1 );

  02216	8b 85 14 ff ff
	ff		 mov	 eax, DWORD PTR _rect2$197816[ebp+12]
  0221c	83 e8 01	 sub	 eax, 1
  0221f	50		 push	 eax
  02220	8b 8d 10 ff ff
	ff		 mov	 ecx, DWORD PTR _rect2$197816[ebp+8]
  02226	83 e9 02	 sub	 ecx, 2
  02229	51		 push	 ecx
  0222a	8b 95 14 ff ff
	ff		 mov	 edx, DWORD PTR _rect2$197816[ebp+12]
  02230	83 ea 01	 sub	 edx, 1
  02233	52		 push	 edx
  02234	8b 85 10 ff ff
	ff		 mov	 eax, DWORD PTR _rect2$197816[ebp+8]
  0223a	83 e8 01	 sub	 eax, 1
  0223d	50		 push	 eax
  0223e	8d 8d f8 fe ff
	ff		 lea	 ecx, DWORD PTR _penPix2$197822[ebp]
  02244	51		 push	 ecx
  02245	8b 4d 08	 mov	 ecx, DWORD PTR _gdi$[ebp]
  02248	e8 00 00 00 00	 call	 ?DrawLine@Graphics@Gdiplus@@QAE?AW4Status@2@PBVPen@2@HHHH@Z ; Gdiplus::Graphics::DrawLine

; 518  : 			gdi.DrawLine( &penPix2, rect2.left,  rect2.bottom-1, rect2.left+1,  rect2.bottom-1 );

  0224d	8b 95 14 ff ff
	ff		 mov	 edx, DWORD PTR _rect2$197816[ebp+12]
  02253	83 ea 01	 sub	 edx, 1
  02256	52		 push	 edx
  02257	8b 85 08 ff ff
	ff		 mov	 eax, DWORD PTR _rect2$197816[ebp]
  0225d	83 c0 01	 add	 eax, 1
  02260	50		 push	 eax
  02261	8b 8d 14 ff ff
	ff		 mov	 ecx, DWORD PTR _rect2$197816[ebp+12]
  02267	83 e9 01	 sub	 ecx, 1
  0226a	51		 push	 ecx
  0226b	8b 95 08 ff ff
	ff		 mov	 edx, DWORD PTR _rect2$197816[ebp]
  02271	52		 push	 edx
  02272	8d 85 f8 fe ff
	ff		 lea	 eax, DWORD PTR _penPix2$197822[ebp]
  02278	50		 push	 eax
  02279	8b 4d 08	 mov	 ecx, DWORD PTR _gdi$[ebp]
  0227c	e8 00 00 00 00	 call	 ?DrawLine@Graphics@Gdiplus@@QAE?AW4Status@2@PBVPen@2@HHHH@Z ; Gdiplus::Graphics::DrawLine

; 519  : 		}

  02281	c6 45 fc 08	 mov	 BYTE PTR __$EHRec$[ebp+8], 8
  02285	8d 8d f8 fe ff
	ff		 lea	 ecx, DWORD PTR _penPix2$197822[ebp]
  0228b	e8 00 00 00 00	 call	 ??1Pen@Gdiplus@@QAE@XZ	; Gdiplus::Pen::~Pen
  02290	c6 45 fc 07	 mov	 BYTE PTR __$EHRec$[ebp+8], 7
  02294	8d 8d 00 ff ff
	ff		 lea	 ecx, DWORD PTR _pen2$197818[ebp]
  0229a	e8 00 00 00 00	 call	 ??1Pen@Gdiplus@@QAE@XZ	; Gdiplus::Pen::~Pen
$L197817:

; 520  : 
; 521  : 	/*	if( m_bMouseDown )
; 522  : 		{
; 523  : 			Gdiplus::RectF rc( rect2.left, rect2.top, rect2.Width(), rect2.Height()/3 );
; 524  : 			Gdiplus::Color colBrush1,colBrush2;
; 525  : 			colBrush1.SetValue( Gdiplus::Color::MakeARGB(15,1,1,1)  );
; 526  : 			colBrush2.SetValue( Gdiplus::Color::MakeARGB(0,1,1,1)  );
; 527  : 
; 528  : 			LinearGradientBrush brush( rc, colBrush1, colBrush2,LinearGradientModeVertical );
; 529  : 			gdi.FillRectangle( &brush, rc );
; 530  : 		}
; 531  : 		else
; 532  : 		{
; 533  : 			Gdiplus::RectF rc( rect2.left, rect2.top, rect2.Width(), rect2.Height()/2 );
; 534  : 			rc.Inflate(-1,-1);
; 535  : 			LinearGradientBrush brush( rc, m_colBrush1, m_colBrush2,LinearGradientModeVertical );
; 536  : 			gdi.FillRectangle( &brush, rc );
; 537  : 		}*/
; 538  : 
; 539  : 		CRect rect3 = rect2;

  0229f	8b 8d 08 ff ff
	ff		 mov	 ecx, DWORD PTR _rect2$197816[ebp]
  022a5	89 8d 3c ff ff
	ff		 mov	 DWORD PTR _rect3$197823[ebp], ecx
  022ab	8b 95 0c ff ff
	ff		 mov	 edx, DWORD PTR _rect2$197816[ebp+4]
  022b1	89 95 40 ff ff
	ff		 mov	 DWORD PTR _rect3$197823[ebp+4], edx
  022b7	8b 85 10 ff ff
	ff		 mov	 eax, DWORD PTR _rect2$197816[ebp+8]
  022bd	89 85 44 ff ff
	ff		 mov	 DWORD PTR _rect3$197823[ebp+8], eax
  022c3	8b 8d 14 ff ff
	ff		 mov	 ecx, DWORD PTR _rect2$197816[ebp+12]
  022c9	89 8d 48 ff ff
	ff		 mov	 DWORD PTR _rect3$197823[ebp+12], ecx

; 540  : 		::InflateRect( &rect3, -1,-1 );

  022cf	6a ff		 push	 -1
  022d1	6a ff		 push	 -1
  022d3	8d 95 3c ff ff
	ff		 lea	 edx, DWORD PTR _rect3$197823[ebp]
  022d9	52		 push	 edx
  022da	ff 15 00 00 00
	00		 call	 DWORD PTR __imp__InflateRect@12

; 541  : 		Gdiplus::RectF rc( rect3.left, rect3.top, rect3.Width(), rect3.Height() );

  022e0	8d 8d 3c ff ff
	ff		 lea	 ecx, DWORD PTR _rect3$197823[ebp]
  022e6	e8 00 00 00 00	 call	 ?Height@CRect@@QBEHXZ	; CRect::Height
  022eb	89 85 3c fe ff
	ff		 mov	 DWORD PTR tv1443[ebp], eax
  022f1	db 85 3c fe ff
	ff		 fild	 DWORD PTR tv1443[ebp]
  022f7	51		 push	 ecx
  022f8	d9 1c 24	 fstp	 DWORD PTR [esp]
  022fb	8d 8d 3c ff ff
	ff		 lea	 ecx, DWORD PTR _rect3$197823[ebp]
  02301	e8 00 00 00 00	 call	 ?Width@CRect@@QBEHXZ	; CRect::Width
  02306	89 85 38 fe ff
	ff		 mov	 DWORD PTR tv1445[ebp], eax
  0230c	db 85 38 fe ff
	ff		 fild	 DWORD PTR tv1445[ebp]
  02312	51		 push	 ecx
  02313	d9 1c 24	 fstp	 DWORD PTR [esp]
  02316	db 85 40 ff ff
	ff		 fild	 DWORD PTR _rect3$197823[ebp+4]
  0231c	51		 push	 ecx
  0231d	d9 1c 24	 fstp	 DWORD PTR [esp]
  02320	db 85 3c ff ff
	ff		 fild	 DWORD PTR _rect3$197823[ebp]
  02326	51		 push	 ecx
  02327	d9 1c 24	 fstp	 DWORD PTR [esp]
  0232a	8d 8d 5c ff ff
	ff		 lea	 ecx, DWORD PTR _rc$197824[ebp]
  02330	e8 00 00 00 00	 call	 ??0RectF@Gdiplus@@QAE@MMMM@Z ; Gdiplus::RectF::RectF

; 542  : 		LinearGradientBrush brush( rc, m_colBK, m_colBK,LinearGradientModeVertical );

  02335	6a 01		 push	 1
  02337	8b 85 50 fe ff
	ff		 mov	 eax, DWORD PTR _this$[ebp]
  0233d	05 6c 01 00 00	 add	 eax, 364		; 0000016cH
  02342	50		 push	 eax
  02343	8b 8d 50 fe ff
	ff		 mov	 ecx, DWORD PTR _this$[ebp]
  02349	81 c1 6c 01 00
	00		 add	 ecx, 364		; 0000016cH
  0234f	51		 push	 ecx
  02350	8d 95 5c ff ff
	ff		 lea	 edx, DWORD PTR _rc$197824[ebp]
  02356	52		 push	 edx
  02357	8d 8d 30 ff ff
	ff		 lea	 ecx, DWORD PTR _brush$197825[ebp]
  0235d	e8 00 00 00 00	 call	 ??0LinearGradientBrush@Gdiplus@@QAE@ABVRectF@1@ABVColor@1@1W4LinearGradientMode@1@@Z ; Gdiplus::LinearGradientBrush::LinearGradientBrush
  02362	c6 45 fc 0a	 mov	 BYTE PTR __$EHRec$[ebp+8], 10 ; 0000000aH

; 543  : 		gdi.FillRectangle( &brush, rc );

  02366	8d 85 5c ff ff
	ff		 lea	 eax, DWORD PTR _rc$197824[ebp]
  0236c	50		 push	 eax
  0236d	8d 8d 30 ff ff
	ff		 lea	 ecx, DWORD PTR _brush$197825[ebp]
  02373	51		 push	 ecx
  02374	8b 4d 08	 mov	 ecx, DWORD PTR _gdi$[ebp]
  02377	e8 00 00 00 00	 call	 ?FillRectangle@Graphics@Gdiplus@@QAE?AW4Status@2@PBVBrush@2@ABVRectF@2@@Z ; Gdiplus::Graphics::FillRectangle

; 544  : 
; 545  : 		Gdiplus::Color colBlack1 = Gdiplus::Color::MakeARGB(30,50,50,50);

  0237c	6a 32		 push	 50			; 00000032H
  0237e	6a 32		 push	 50			; 00000032H
  02380	6a 32		 push	 50			; 00000032H
  02382	6a 1e		 push	 30			; 0000001eH
  02384	e8 00 00 00 00	 call	 ?MakeARGB@Color@Gdiplus@@SAKEEEE@Z ; Gdiplus::Color::MakeARGB
  02389	83 c4 10	 add	 esp, 16			; 00000010H
  0238c	50		 push	 eax
  0238d	8d 8d 4c ff ff
	ff		 lea	 ecx, DWORD PTR _colBlack1$197826[ebp]
  02393	e8 00 00 00 00	 call	 ??0Color@Gdiplus@@QAE@K@Z ; Gdiplus::Color::Color

; 546  : 		Gdiplus::Color colBlack2 = Gdiplus::Color::MakeARGB(15,50,50,50);

  02398	6a 32		 push	 50			; 00000032H
  0239a	6a 32		 push	 50			; 00000032H
  0239c	6a 32		 push	 50			; 00000032H
  0239e	6a 0f		 push	 15			; 0000000fH
  023a0	e8 00 00 00 00	 call	 ?MakeARGB@Color@Gdiplus@@SAKEEEE@Z ; Gdiplus::Color::MakeARGB
  023a5	83 c4 10	 add	 esp, 16			; 00000010H
  023a8	50		 push	 eax
  023a9	8d 8d 18 ff ff
	ff		 lea	 ecx, DWORD PTR _colBlack2$197827[ebp]
  023af	e8 00 00 00 00	 call	 ??0Color@Gdiplus@@QAE@K@Z ; Gdiplus::Color::Color

; 547  : 	    Gdiplus::RectF rc1( rect3.left, rect3.top+rect3.Height()/2, rect3.Width(), rect3.Height()/2 );

  023b4	8d 8d 3c ff ff
	ff		 lea	 ecx, DWORD PTR _rect3$197823[ebp]
  023ba	e8 00 00 00 00	 call	 ?Height@CRect@@QBEHXZ	; CRect::Height
  023bf	99		 cdq
  023c0	2b c2		 sub	 eax, edx
  023c2	d1 f8		 sar	 eax, 1
  023c4	89 85 34 fe ff
	ff		 mov	 DWORD PTR tv1463[ebp], eax
  023ca	db 85 34 fe ff
	ff		 fild	 DWORD PTR tv1463[ebp]
  023d0	51		 push	 ecx
  023d1	d9 1c 24	 fstp	 DWORD PTR [esp]
  023d4	8d 8d 3c ff ff
	ff		 lea	 ecx, DWORD PTR _rect3$197823[ebp]
  023da	e8 00 00 00 00	 call	 ?Width@CRect@@QBEHXZ	; CRect::Width
  023df	89 85 30 fe ff
	ff		 mov	 DWORD PTR tv1465[ebp], eax
  023e5	db 85 30 fe ff
	ff		 fild	 DWORD PTR tv1465[ebp]
  023eb	51		 push	 ecx
  023ec	d9 1c 24	 fstp	 DWORD PTR [esp]
  023ef	8d 8d 3c ff ff
	ff		 lea	 ecx, DWORD PTR _rect3$197823[ebp]
  023f5	e8 00 00 00 00	 call	 ?Height@CRect@@QBEHXZ	; CRect::Height
  023fa	99		 cdq
  023fb	2b c2		 sub	 eax, edx
  023fd	d1 f8		 sar	 eax, 1
  023ff	03 85 40 ff ff
	ff		 add	 eax, DWORD PTR _rect3$197823[ebp+4]
  02405	89 85 2c fe ff
	ff		 mov	 DWORD PTR tv1472[ebp], eax
  0240b	db 85 2c fe ff
	ff		 fild	 DWORD PTR tv1472[ebp]
  02411	51		 push	 ecx
  02412	d9 1c 24	 fstp	 DWORD PTR [esp]
  02415	db 85 3c ff ff
	ff		 fild	 DWORD PTR _rect3$197823[ebp]
  0241b	51		 push	 ecx
  0241c	d9 1c 24	 fstp	 DWORD PTR [esp]
  0241f	8d 8d 6c ff ff
	ff		 lea	 ecx, DWORD PTR _rc1$197828[ebp]
  02425	e8 00 00 00 00	 call	 ??0RectF@Gdiplus@@QAE@MMMM@Z ; Gdiplus::RectF::RectF

; 548  : 		LinearGradientBrush brush2( rc1, colBlack1, colBlack2,LinearGradientModeVertical );

  0242a	6a 01		 push	 1
  0242c	8d 95 18 ff ff
	ff		 lea	 edx, DWORD PTR _colBlack2$197827[ebp]
  02432	52		 push	 edx
  02433	8d 85 4c ff ff
	ff		 lea	 eax, DWORD PTR _colBlack1$197826[ebp]
  02439	50		 push	 eax
  0243a	8d 8d 6c ff ff
	ff		 lea	 ecx, DWORD PTR _rc1$197828[ebp]
  02440	51		 push	 ecx
  02441	8d 8d 1c ff ff
	ff		 lea	 ecx, DWORD PTR _brush2$197829[ebp]
  02447	e8 00 00 00 00	 call	 ??0LinearGradientBrush@Gdiplus@@QAE@ABVRectF@1@ABVColor@1@1W4LinearGradientMode@1@@Z ; Gdiplus::LinearGradientBrush::LinearGradientBrush
  0244c	c6 45 fc 0b	 mov	 BYTE PTR __$EHRec$[ebp+8], 11 ; 0000000bH

; 549  : 		gdi.FillRectangle( &brush2, rc1 );

  02450	8d 95 6c ff ff
	ff		 lea	 edx, DWORD PTR _rc1$197828[ebp]
  02456	52		 push	 edx
  02457	8d 85 1c ff ff
	ff		 lea	 eax, DWORD PTR _brush2$197829[ebp]
  0245d	50		 push	 eax
  0245e	8b 4d 08	 mov	 ecx, DWORD PTR _gdi$[ebp]
  02461	e8 00 00 00 00	 call	 ?FillRectangle@Graphics@Gdiplus@@QAE?AW4Status@2@PBVBrush@2@ABVRectF@2@@Z ; Gdiplus::Graphics::FillRectangle

; 550  : 		return;

  02466	c6 45 fc 0a	 mov	 BYTE PTR __$EHRec$[ebp+8], 10 ; 0000000aH
  0246a	8d 8d 1c ff ff
	ff		 lea	 ecx, DWORD PTR _brush2$197829[ebp]
  02470	e8 00 00 00 00	 call	 ??1LinearGradientBrush@Gdiplus@@UAE@XZ
  02475	c6 45 fc 07	 mov	 BYTE PTR __$EHRec$[ebp+8], 7
  02479	8d 8d 30 ff ff
	ff		 lea	 ecx, DWORD PTR _brush$197825[ebp]
  0247f	e8 00 00 00 00	 call	 ??1LinearGradientBrush@Gdiplus@@UAE@XZ
  02484	c6 45 fc 06	 mov	 BYTE PTR __$EHRec$[ebp+8], 6
  02488	8d 8d 28 ff ff
	ff		 lea	 ecx, DWORD PTR _penPix1$197815[ebp]
  0248e	e8 00 00 00 00	 call	 ??1Pen@Gdiplus@@QAE@XZ	; Gdiplus::Pen::~Pen
  02493	c7 45 fc ff ff
	ff ff		 mov	 DWORD PTR __$EHRec$[ebp+8], -1
  0249a	8d 8d 54 ff ff
	ff		 lea	 ecx, DWORD PTR _pen1$197813[ebp]
  024a0	e8 00 00 00 00	 call	 ??1Pen@Gdiplus@@QAE@XZ	; Gdiplus::Pen::~Pen
  024a5	e9 a0 05 00 00	 jmp	 $L197791
$L197811:

; 551  : 	}
; 552  : 	if( m_enmuDrawType == TOP_ARC )

  024aa	8b 8d 50 fe ff
	ff		 mov	 ecx, DWORD PTR _this$[ebp]
  024b0	83 79 54 01	 cmp	 DWORD PTR [ecx+84], 1
  024b4	0f 85 90 05 00
	00		 jne	 $L197791

; 553  : 	{
; 554  : 		Gdiplus::Pen pen1( m_colFrame1 );

  024ba	68 00 00 80 3f	 push	 1065353216		; 3f800000H
  024bf	8b 95 50 fe ff
	ff		 mov	 edx, DWORD PTR _this$[ebp]
  024c5	81 c2 70 01 00
	00		 add	 edx, 368		; 00000170H
  024cb	52		 push	 edx
  024cc	8d 8d ec fe ff
	ff		 lea	 ecx, DWORD PTR _pen1$197831[ebp]
  024d2	e8 00 00 00 00	 call	 ??0Pen@Gdiplus@@QAE@ABVColor@1@M@Z ; Gdiplus::Pen::Pen
  024d7	c7 45 fc 0c 00
	00 00		 mov	 DWORD PTR __$EHRec$[ebp+8], 12 ; 0000000cH

; 555  : 		gdi.DrawLine( &pen1, rect.left+5, rect.top, rect.right-7, rect.top );

  024de	8b 45 0c	 mov	 eax, DWORD PTR _rect$[ebp]
  024e1	8b 48 04	 mov	 ecx, DWORD PTR [eax+4]
  024e4	51		 push	 ecx
  024e5	8b 55 0c	 mov	 edx, DWORD PTR _rect$[ebp]
  024e8	8b 42 08	 mov	 eax, DWORD PTR [edx+8]
  024eb	83 e8 07	 sub	 eax, 7
  024ee	50		 push	 eax
  024ef	8b 4d 0c	 mov	 ecx, DWORD PTR _rect$[ebp]
  024f2	8b 51 04	 mov	 edx, DWORD PTR [ecx+4]
  024f5	52		 push	 edx
  024f6	8b 45 0c	 mov	 eax, DWORD PTR _rect$[ebp]
  024f9	8b 08		 mov	 ecx, DWORD PTR [eax]
  024fb	83 c1 05	 add	 ecx, 5
  024fe	51		 push	 ecx
  024ff	8d 95 ec fe ff
	ff		 lea	 edx, DWORD PTR _pen1$197831[ebp]
  02505	52		 push	 edx
  02506	8b 4d 08	 mov	 ecx, DWORD PTR _gdi$[ebp]
  02509	e8 00 00 00 00	 call	 ?DrawLine@Graphics@Gdiplus@@QAE?AW4Status@2@PBVPen@2@HHHH@Z ; Gdiplus::Graphics::DrawLine

; 556  : 		gdi.DrawLine( &pen1, rect.left, rect.bottom-1, rect.right, rect.bottom-1 );

  0250e	8b 45 0c	 mov	 eax, DWORD PTR _rect$[ebp]
  02511	8b 48 0c	 mov	 ecx, DWORD PTR [eax+12]
  02514	83 e9 01	 sub	 ecx, 1
  02517	51		 push	 ecx
  02518	8b 55 0c	 mov	 edx, DWORD PTR _rect$[ebp]
  0251b	8b 42 08	 mov	 eax, DWORD PTR [edx+8]
  0251e	50		 push	 eax
  0251f	8b 4d 0c	 mov	 ecx, DWORD PTR _rect$[ebp]
  02522	8b 51 0c	 mov	 edx, DWORD PTR [ecx+12]
  02525	83 ea 01	 sub	 edx, 1
  02528	52		 push	 edx
  02529	8b 45 0c	 mov	 eax, DWORD PTR _rect$[ebp]
  0252c	8b 08		 mov	 ecx, DWORD PTR [eax]
  0252e	51		 push	 ecx
  0252f	8d 95 ec fe ff
	ff		 lea	 edx, DWORD PTR _pen1$197831[ebp]
  02535	52		 push	 edx
  02536	8b 4d 08	 mov	 ecx, DWORD PTR _gdi$[ebp]
  02539	e8 00 00 00 00	 call	 ?DrawLine@Graphics@Gdiplus@@QAE?AW4Status@2@PBVPen@2@HHHH@Z ; Gdiplus::Graphics::DrawLine

; 557  : 		gdi.DrawLine( &pen1, rect.left, rect.top+5, rect.left, rect.bottom-2 );

  0253e	8b 45 0c	 mov	 eax, DWORD PTR _rect$[ebp]
  02541	8b 48 0c	 mov	 ecx, DWORD PTR [eax+12]
  02544	83 e9 02	 sub	 ecx, 2
  02547	51		 push	 ecx
  02548	8b 55 0c	 mov	 edx, DWORD PTR _rect$[ebp]
  0254b	8b 02		 mov	 eax, DWORD PTR [edx]
  0254d	50		 push	 eax
  0254e	8b 4d 0c	 mov	 ecx, DWORD PTR _rect$[ebp]
  02551	8b 51 04	 mov	 edx, DWORD PTR [ecx+4]
  02554	83 c2 05	 add	 edx, 5
  02557	52		 push	 edx
  02558	8b 45 0c	 mov	 eax, DWORD PTR _rect$[ebp]
  0255b	8b 08		 mov	 ecx, DWORD PTR [eax]
  0255d	51		 push	 ecx
  0255e	8d 95 ec fe ff
	ff		 lea	 edx, DWORD PTR _pen1$197831[ebp]
  02564	52		 push	 edx
  02565	8b 4d 08	 mov	 ecx, DWORD PTR _gdi$[ebp]
  02568	e8 00 00 00 00	 call	 ?DrawLine@Graphics@Gdiplus@@QAE?AW4Status@2@PBVPen@2@HHHH@Z ; Gdiplus::Graphics::DrawLine

; 558  : 		gdi.DrawLine( &pen1, rect.right-1, rect.top+5, rect.right-1, rect.bottom-2 );

  0256d	8b 45 0c	 mov	 eax, DWORD PTR _rect$[ebp]
  02570	8b 48 0c	 mov	 ecx, DWORD PTR [eax+12]
  02573	83 e9 02	 sub	 ecx, 2
  02576	51		 push	 ecx
  02577	8b 55 0c	 mov	 edx, DWORD PTR _rect$[ebp]
  0257a	8b 42 08	 mov	 eax, DWORD PTR [edx+8]
  0257d	83 e8 01	 sub	 eax, 1
  02580	50		 push	 eax
  02581	8b 4d 0c	 mov	 ecx, DWORD PTR _rect$[ebp]
  02584	8b 51 04	 mov	 edx, DWORD PTR [ecx+4]
  02587	83 c2 05	 add	 edx, 5
  0258a	52		 push	 edx
  0258b	8b 45 0c	 mov	 eax, DWORD PTR _rect$[ebp]
  0258e	8b 48 08	 mov	 ecx, DWORD PTR [eax+8]
  02591	83 e9 01	 sub	 ecx, 1
  02594	51		 push	 ecx
  02595	8d 95 ec fe ff
	ff		 lea	 edx, DWORD PTR _pen1$197831[ebp]
  0259b	52		 push	 edx
  0259c	8b 4d 08	 mov	 ecx, DWORD PTR _gdi$[ebp]
  0259f	e8 00 00 00 00	 call	 ?DrawLine@Graphics@Gdiplus@@QAE?AW4Status@2@PBVPen@2@HHHH@Z ; Gdiplus::Graphics::DrawLine

; 559  : 
; 560  : 		CRect rect2 = rect;

  025a4	8b 45 0c	 mov	 eax, DWORD PTR _rect$[ebp]
  025a7	8b 08		 mov	 ecx, DWORD PTR [eax]
  025a9	89 8d bc fe ff
	ff		 mov	 DWORD PTR _rect2$197832[ebp], ecx
  025af	8b 50 04	 mov	 edx, DWORD PTR [eax+4]
  025b2	89 95 c0 fe ff
	ff		 mov	 DWORD PTR _rect2$197832[ebp+4], edx
  025b8	8b 48 08	 mov	 ecx, DWORD PTR [eax+8]
  025bb	89 8d c4 fe ff
	ff		 mov	 DWORD PTR _rect2$197832[ebp+8], ecx
  025c1	8b 50 0c	 mov	 edx, DWORD PTR [eax+12]
  025c4	89 95 c8 fe ff
	ff		 mov	 DWORD PTR _rect2$197832[ebp+12], edx

; 561  : 		::InflateRect( &rect2, -1,-1 );

  025ca	6a ff		 push	 -1
  025cc	6a ff		 push	 -1
  025ce	8d 85 bc fe ff
	ff		 lea	 eax, DWORD PTR _rect2$197832[ebp]
  025d4	50		 push	 eax
  025d5	ff 15 00 00 00
	00		 call	 DWORD PTR __imp__InflateRect@12

; 562  : 		if( !m_bMouseDown )

  025db	8b 8d 50 fe ff
	ff		 mov	 ecx, DWORD PTR _this$[ebp]
  025e1	83 b9 88 00 00
	00 00		 cmp	 DWORD PTR [ecx+136], 0
  025e8	0f 85 ba 01 00
	00		 jne	 $L197833

; 563  : 		{
; 564  : 			Gdiplus::Pen pen2(m_colFrame2);

  025ee	68 00 00 80 3f	 push	 1065353216		; 3f800000H
  025f3	8b 95 50 fe ff
	ff		 mov	 edx, DWORD PTR _this$[ebp]
  025f9	81 c2 74 01 00
	00		 add	 edx, 372		; 00000174H
  025ff	52		 push	 edx
  02600	8d 8d b4 fe ff
	ff		 lea	 ecx, DWORD PTR _pen2$197834[ebp]
  02606	e8 00 00 00 00	 call	 ??0Pen@Gdiplus@@QAE@ABVColor@1@M@Z ; Gdiplus::Pen::Pen
  0260b	c6 45 fc 0d	 mov	 BYTE PTR __$EHRec$[ebp+8], 13 ; 0000000dH

; 565  : 			gdi.DrawLine( &pen2, rect2.left+4, rect2.top, rect2.right-5, rect2.top );

  0260f	8b 85 c0 fe ff
	ff		 mov	 eax, DWORD PTR _rect2$197832[ebp+4]
  02615	50		 push	 eax
  02616	8b 8d c4 fe ff
	ff		 mov	 ecx, DWORD PTR _rect2$197832[ebp+8]
  0261c	83 e9 05	 sub	 ecx, 5
  0261f	51		 push	 ecx
  02620	8b 95 c0 fe ff
	ff		 mov	 edx, DWORD PTR _rect2$197832[ebp+4]
  02626	52		 push	 edx
  02627	8b 85 bc fe ff
	ff		 mov	 eax, DWORD PTR _rect2$197832[ebp]
  0262d	83 c0 04	 add	 eax, 4
  02630	50		 push	 eax
  02631	8d 8d b4 fe ff
	ff		 lea	 ecx, DWORD PTR _pen2$197834[ebp]
  02637	51		 push	 ecx
  02638	8b 4d 08	 mov	 ecx, DWORD PTR _gdi$[ebp]
  0263b	e8 00 00 00 00	 call	 ?DrawLine@Graphics@Gdiplus@@QAE?AW4Status@2@PBVPen@2@HHHH@Z ; Gdiplus::Graphics::DrawLine

; 566  : 			gdi.DrawLine( &pen2, rect2.left, rect2.bottom-1, rect2.right-1, rect2.bottom-1 );

  02640	8b 95 c8 fe ff
	ff		 mov	 edx, DWORD PTR _rect2$197832[ebp+12]
  02646	83 ea 01	 sub	 edx, 1
  02649	52		 push	 edx
  0264a	8b 85 c4 fe ff
	ff		 mov	 eax, DWORD PTR _rect2$197832[ebp+8]
  02650	83 e8 01	 sub	 eax, 1
  02653	50		 push	 eax
  02654	8b 8d c8 fe ff
	ff		 mov	 ecx, DWORD PTR _rect2$197832[ebp+12]
  0265a	83 e9 01	 sub	 ecx, 1
  0265d	51		 push	 ecx
  0265e	8b 95 bc fe ff
	ff		 mov	 edx, DWORD PTR _rect2$197832[ebp]
  02664	52		 push	 edx
  02665	8d 85 b4 fe ff
	ff		 lea	 eax, DWORD PTR _pen2$197834[ebp]
  0266b	50		 push	 eax
  0266c	8b 4d 08	 mov	 ecx, DWORD PTR _gdi$[ebp]
  0266f	e8 00 00 00 00	 call	 ?DrawLine@Graphics@Gdiplus@@QAE?AW4Status@2@PBVPen@2@HHHH@Z ; Gdiplus::Graphics::DrawLine

; 567  : 			gdi.DrawLine( &pen2, rect2.left, rect2.top+4, rect2.left, rect2.bottom-2 );

  02674	8b 8d c8 fe ff
	ff		 mov	 ecx, DWORD PTR _rect2$197832[ebp+12]
  0267a	83 e9 02	 sub	 ecx, 2
  0267d	51		 push	 ecx
  0267e	8b 95 bc fe ff
	ff		 mov	 edx, DWORD PTR _rect2$197832[ebp]
  02684	52		 push	 edx
  02685	8b 85 c0 fe ff
	ff		 mov	 eax, DWORD PTR _rect2$197832[ebp+4]
  0268b	83 c0 04	 add	 eax, 4
  0268e	50		 push	 eax
  0268f	8b 8d bc fe ff
	ff		 mov	 ecx, DWORD PTR _rect2$197832[ebp]
  02695	51		 push	 ecx
  02696	8d 95 b4 fe ff
	ff		 lea	 edx, DWORD PTR _pen2$197834[ebp]
  0269c	52		 push	 edx
  0269d	8b 4d 08	 mov	 ecx, DWORD PTR _gdi$[ebp]
  026a0	e8 00 00 00 00	 call	 ?DrawLine@Graphics@Gdiplus@@QAE?AW4Status@2@PBVPen@2@HHHH@Z ; Gdiplus::Graphics::DrawLine

; 568  : 			gdi.DrawLine( &pen2, rect2.right-1, rect2.top+4, rect2.right-1, rect2.bottom-2 );

  026a5	8b 85 c8 fe ff
	ff		 mov	 eax, DWORD PTR _rect2$197832[ebp+12]
  026ab	83 e8 02	 sub	 eax, 2
  026ae	50		 push	 eax
  026af	8b 8d c4 fe ff
	ff		 mov	 ecx, DWORD PTR _rect2$197832[ebp+8]
  026b5	83 e9 01	 sub	 ecx, 1
  026b8	51		 push	 ecx
  026b9	8b 95 c0 fe ff
	ff		 mov	 edx, DWORD PTR _rect2$197832[ebp+4]
  026bf	83 c2 04	 add	 edx, 4
  026c2	52		 push	 edx
  026c3	8b 85 c4 fe ff
	ff		 mov	 eax, DWORD PTR _rect2$197832[ebp+8]
  026c9	83 e8 01	 sub	 eax, 1
  026cc	50		 push	 eax
  026cd	8d 8d b4 fe ff
	ff		 lea	 ecx, DWORD PTR _pen2$197834[ebp]
  026d3	51		 push	 ecx
  026d4	8b 4d 08	 mov	 ecx, DWORD PTR _gdi$[ebp]
  026d7	e8 00 00 00 00	 call	 ?DrawLine@Graphics@Gdiplus@@QAE?AW4Status@2@PBVPen@2@HHHH@Z ; Gdiplus::Graphics::DrawLine

; 569  : 
; 570  : 			Gdiplus::RectF rectLeftTop2;

  026dc	8d 8d 94 fe ff
	ff		 lea	 ecx, DWORD PTR _rectLeftTop2$197835[ebp]
  026e2	e8 00 00 00 00	 call	 ??0RectF@Gdiplus@@QAE@XZ ; Gdiplus::RectF::RectF

; 571  : 			rectLeftTop2.X = rect2.left;

  026e7	db 85 bc fe ff
	ff		 fild	 DWORD PTR _rect2$197832[ebp]
  026ed	d9 9d 94 fe ff
	ff		 fstp	 DWORD PTR _rectLeftTop2$197835[ebp]

; 572  : 			rectLeftTop2.Y  = rect2.top;

  026f3	db 85 c0 fe ff
	ff		 fild	 DWORD PTR _rect2$197832[ebp+4]
  026f9	d9 9d 98 fe ff
	ff		 fstp	 DWORD PTR _rectLeftTop2$197835[ebp+4]

; 573  : 			rectLeftTop2.Width = 6;

  026ff	c7 85 9c fe ff
	ff 00 00 c0 40	 mov	 DWORD PTR _rectLeftTop2$197835[ebp+8], 1086324736 ; 40c00000H

; 574  : 			rectLeftTop2.Height  = 6;

  02709	c7 85 a0 fe ff
	ff 00 00 c0 40	 mov	 DWORD PTR _rectLeftTop2$197835[ebp+12], 1086324736 ; 40c00000H

; 575  : 			gdi.DrawArc(  &pen2, rectLeftTop2,180,90 );

  02713	68 00 00 b4 42	 push	 1119092736		; 42b40000H
  02718	68 00 00 34 43	 push	 1127481344		; 43340000H
  0271d	8d 95 94 fe ff
	ff		 lea	 edx, DWORD PTR _rectLeftTop2$197835[ebp]
  02723	52		 push	 edx
  02724	8d 85 b4 fe ff
	ff		 lea	 eax, DWORD PTR _pen2$197834[ebp]
  0272a	50		 push	 eax
  0272b	8b 4d 08	 mov	 ecx, DWORD PTR _gdi$[ebp]
  0272e	e8 00 00 00 00	 call	 ?DrawArc@Graphics@Gdiplus@@QAE?AW4Status@2@PBVPen@2@ABVRectF@2@MM@Z ; Gdiplus::Graphics::DrawArc

; 576  : 
; 577  : 			Gdiplus::RectF rectRightTop2;

  02733	8d 8d a4 fe ff
	ff		 lea	 ecx, DWORD PTR _rectRightTop2$197836[ebp]
  02739	e8 00 00 00 00	 call	 ??0RectF@Gdiplus@@QAE@XZ ; Gdiplus::RectF::RectF

; 578  : 			rectRightTop2.X = rect2.right-7;

  0273e	8b 8d c4 fe ff
	ff		 mov	 ecx, DWORD PTR _rect2$197832[ebp+8]
  02744	83 e9 07	 sub	 ecx, 7
  02747	89 8d 28 fe ff
	ff		 mov	 DWORD PTR tv1551[ebp], ecx
  0274d	db 85 28 fe ff
	ff		 fild	 DWORD PTR tv1551[ebp]
  02753	d9 9d a4 fe ff
	ff		 fstp	 DWORD PTR _rectRightTop2$197836[ebp]

; 579  : 			rectRightTop2.Y  = rect2.top;

  02759	db 85 c0 fe ff
	ff		 fild	 DWORD PTR _rect2$197832[ebp+4]
  0275f	d9 9d a8 fe ff
	ff		 fstp	 DWORD PTR _rectRightTop2$197836[ebp+4]

; 580  : 			rectRightTop2.Width = 6;

  02765	c7 85 ac fe ff
	ff 00 00 c0 40	 mov	 DWORD PTR _rectRightTop2$197836[ebp+8], 1086324736 ; 40c00000H

; 581  : 			rectRightTop2.Height  = 6;

  0276f	c7 85 b0 fe ff
	ff 00 00 c0 40	 mov	 DWORD PTR _rectRightTop2$197836[ebp+12], 1086324736 ; 40c00000H

; 582  : 			gdi.DrawArc(  &pen2, rectRightTop2,270,90 );

  02779	68 00 00 b4 42	 push	 1119092736		; 42b40000H
  0277e	68 00 00 87 43	 push	 1132920832		; 43870000H
  02783	8d 95 a4 fe ff
	ff		 lea	 edx, DWORD PTR _rectRightTop2$197836[ebp]
  02789	52		 push	 edx
  0278a	8d 85 b4 fe ff
	ff		 lea	 eax, DWORD PTR _pen2$197834[ebp]
  02790	50		 push	 eax
  02791	8b 4d 08	 mov	 ecx, DWORD PTR _gdi$[ebp]
  02794	e8 00 00 00 00	 call	 ?DrawArc@Graphics@Gdiplus@@QAE?AW4Status@2@PBVPen@2@ABVRectF@2@MM@Z ; Gdiplus::Graphics::DrawArc

; 583  : 		}

  02799	c6 45 fc 0c	 mov	 BYTE PTR __$EHRec$[ebp+8], 12 ; 0000000cH
  0279d	8d 8d b4 fe ff
	ff		 lea	 ecx, DWORD PTR _pen2$197834[ebp]
  027a3	e8 00 00 00 00	 call	 ??1Pen@Gdiplus@@QAE@XZ	; Gdiplus::Pen::~Pen
$L197833:

; 584  : 
; 585  : 		Gdiplus::RectF rectLeftTop;

  027a8	8d 8d dc fe ff
	ff		 lea	 ecx, DWORD PTR _rectLeftTop$197837[ebp]
  027ae	e8 00 00 00 00	 call	 ??0RectF@Gdiplus@@QAE@XZ ; Gdiplus::RectF::RectF

; 586  : 		rectLeftTop.X = rect.left;

  027b3	8b 4d 0c	 mov	 ecx, DWORD PTR _rect$[ebp]
  027b6	db 01		 fild	 DWORD PTR [ecx]
  027b8	d9 9d dc fe ff
	ff		 fstp	 DWORD PTR _rectLeftTop$197837[ebp]

; 587  : 		rectLeftTop.Y  = rect.top;

  027be	8b 55 0c	 mov	 edx, DWORD PTR _rect$[ebp]
  027c1	db 42 04	 fild	 DWORD PTR [edx+4]
  027c4	d9 9d e0 fe ff
	ff		 fstp	 DWORD PTR _rectLeftTop$197837[ebp+4]

; 588  : 		rectLeftTop.Width = 9;

  027ca	c7 85 e4 fe ff
	ff 00 00 10 41	 mov	 DWORD PTR _rectLeftTop$197837[ebp+8], 1091567616 ; 41100000H

; 589  : 		rectLeftTop.Height  = 9;

  027d4	c7 85 e8 fe ff
	ff 00 00 10 41	 mov	 DWORD PTR _rectLeftTop$197837[ebp+12], 1091567616 ; 41100000H

; 590  : 		gdi.DrawArc(  &pen1, rectLeftTop,180,90 );

  027de	68 00 00 b4 42	 push	 1119092736		; 42b40000H
  027e3	68 00 00 34 43	 push	 1127481344		; 43340000H
  027e8	8d 85 dc fe ff
	ff		 lea	 eax, DWORD PTR _rectLeftTop$197837[ebp]
  027ee	50		 push	 eax
  027ef	8d 8d ec fe ff
	ff		 lea	 ecx, DWORD PTR _pen1$197831[ebp]
  027f5	51		 push	 ecx
  027f6	8b 4d 08	 mov	 ecx, DWORD PTR _gdi$[ebp]
  027f9	e8 00 00 00 00	 call	 ?DrawArc@Graphics@Gdiplus@@QAE?AW4Status@2@PBVPen@2@ABVRectF@2@MM@Z ; Gdiplus::Graphics::DrawArc

; 591  : 
; 592  : 		Gdiplus::RectF rectRightTop;

  027fe	8d 8d cc fe ff
	ff		 lea	 ecx, DWORD PTR _rectRightTop$197838[ebp]
  02804	e8 00 00 00 00	 call	 ??0RectF@Gdiplus@@QAE@XZ ; Gdiplus::RectF::RectF

; 593  : 		rectRightTop.X = rect.right-10;

  02809	8b 55 0c	 mov	 edx, DWORD PTR _rect$[ebp]
  0280c	8b 42 08	 mov	 eax, DWORD PTR [edx+8]
  0280f	83 e8 0a	 sub	 eax, 10			; 0000000aH
  02812	89 85 24 fe ff
	ff		 mov	 DWORD PTR tv1563[ebp], eax
  02818	db 85 24 fe ff
	ff		 fild	 DWORD PTR tv1563[ebp]
  0281e	d9 9d cc fe ff
	ff		 fstp	 DWORD PTR _rectRightTop$197838[ebp]
