; Listing generated by Microsoft (R) Optimizing Compiler Version 13.10.3077 

	TITLE	.\src\LayoutMgr\ChangeColor\SkinBotton.cpp
	.386P
include listing.inc
if @Version gt 510
.model FLAT
else
_TEXT	SEGMENT PARA USE32 PUBLIC 'CODE'
_TEXT	ENDS
_DATA	SEGMENT DWORD USE32 PUBLIC 'DATA'
_DATA	ENDS
CONST	SEGMENT DWORD USE32 PUBLIC 'CONST'
CONST	ENDS
_BSS	SEGMENT DWORD USE32 PUBLIC 'BSS'
_BSS	ENDS
$$SYMBOLS	SEGMENT BYTE USE32 'DEBSYM'
$$SYMBOLS	ENDS
$$TYPES	SEGMENT BYTE USE32 'DEBTYP'
$$TYPES	ENDS
_TLS	SEGMENT DWORD USE32 PUBLIC 'TLS'
_TLS	ENDS
rdata$r	SEGMENT DWORD USE32 PUBLIC 'CONST'
rdata$r	ENDS
xdata$x	SEGMENT DWORD USE32 PUBLIC 'CONST'
xdata$x	ENDS
text$AFX_COL1	SEGMENT PARA USE32 PUBLIC ''
text$AFX_COL1	ENDS
text$yc	SEGMENT PARA USE32 PUBLIC 'CODE'
text$yc	ENDS
CRT$XCA	SEGMENT DWORD USE32 PUBLIC 'DATA'
CRT$XCA	ENDS
CRT$XCU	SEGMENT DWORD USE32 PUBLIC 'DATA'
CRT$XCU	ENDS
CRT$XCL	SEGMENT DWORD USE32 PUBLIC 'DATA'
CRT$XCL	ENDS
CRT$XCC	SEGMENT DWORD USE32 PUBLIC 'DATA'
CRT$XCC	ENDS
CRT$XCZ	SEGMENT DWORD USE32 PUBLIC 'DATA'
CRT$XCZ	ENDS
text$yd	SEGMENT PARA USE32 PUBLIC 'CODE'
text$yd	ENDS
ATL$__m	SEGMENT DWORD USE32 PUBLIC ''
ATL$__m	ENDS
ATL$__z	SEGMENT DWORD USE32 PUBLIC ''
ATL$__z	ENDS
ATL$__a	SEGMENT DWORD USE32 PUBLIC ''
ATL$__a	ENDS
;	COMDAT ??0CGdiPlusBitmap@CSkinButton@@QAE@XZ
_TEXT	SEGMENT PARA USE32 PUBLIC 'CODE'
_TEXT	ENDS
;	COMDAT ??1CGdiPlusBitmap@CSkinButton@@UAE@XZ
_TEXT	SEGMENT PARA USE32 PUBLIC 'CODE'
_TEXT	ENDS
;	COMDAT ?Empty@CGdiPlusBitmap@CSkinButton@@QAEXXZ
_TEXT	SEGMENT PARA USE32 PUBLIC 'CODE'
_TEXT	ENDS
;	COMDAT ?Load@CGdiPlusBitmap@CSkinButton@@QAE_NPB_W@Z
_TEXT	SEGMENT PARA USE32 PUBLIC 'CODE'
_TEXT	ENDS
;	COMDAT ??BCGdiPlusBitmap@CSkinButton@@QBEPAVBitmap@Gdiplus@@XZ
_TEXT	SEGMENT PARA USE32 PUBLIC 'CODE'
_TEXT	ENDS
;	COMDAT ?GetText@CSkinButton@@QBE?AV?$CStringT@DV?$StrTraitMFC_DLL@DV?$ChTraitsCRT@D@ATL@@@@@ATL@@XZ
_TEXT	SEGMENT PARA USE32 PUBLIC 'CODE'
_TEXT	ENDS
;	COMDAT ?SetPngHoverSkin@CSkinButton@@UAEHV?$CStringT@DV?$StrTraitMFC_DLL@DV?$ChTraitsCRT@D@ATL@@@@@ATL@@@Z
_TEXT	SEGMENT PARA USE32 PUBLIC 'CODE'
_TEXT	ENDS
;	COMDAT ?SetPngFrame@CSkinButton@@UAEHV?$CStringT@DV?$StrTraitMFC_DLL@DV?$ChTraitsCRT@D@ATL@@@@@ATL@@@Z
_TEXT	SEGMENT PARA USE32 PUBLIC 'CODE'
_TEXT	ENDS
;	COMDAT ?IsClickPng@CSkinButton@@UAEHXZ
_TEXT	SEGMENT PARA USE32 PUBLIC 'CODE'
_TEXT	ENDS
;	COMDAT ?SetClickPng@CSkinButton@@UAEXH@Z
_TEXT	SEGMENT PARA USE32 PUBLIC 'CODE'
_TEXT	ENDS
;	COMDAT ??_GCGdiPlusBitmap@CSkinButton@@UAEPAXI@Z
_TEXT	SEGMENT PARA USE32 PUBLIC 'CODE'
_TEXT	ENDS
;	COMDAT ??1DIBINFO@@UAE@XZ
_TEXT	SEGMENT PARA USE32 PUBLIC 'CODE'
_TEXT	ENDS
;	COMDAT ??_GDIBINFO@@UAEPAXI@Z
_TEXT	SEGMENT PARA USE32 PUBLIC 'CODE'
_TEXT	ENDS
;	COMDAT ??0BaseColor@@QAE@XZ
_TEXT	SEGMENT PARA USE32 PUBLIC 'CODE'
_TEXT	ENDS
;	COMDAT ??1BaseColor@@QAE@XZ
_TEXT	SEGMENT PARA USE32 PUBLIC 'CODE'
_TEXT	ENDS
;	COMDAT ??_GBaseColor@@QAEPAXI@Z
_TEXT	SEGMENT PARA USE32 PUBLIC 'CODE'
_TEXT	ENDS
;	COMDAT ??_GCSkinButton@@UAEPAXI@Z
_TEXT	SEGMENT PARA USE32 PUBLIC 'CODE'
_TEXT	ENDS
;	COMDAT ??_GCButtonDraw@@UAEPAXI@Z
_TEXT	SEGMENT PARA USE32 PUBLIC 'CODE'
_TEXT	ENDS
;	COMDAT ??B?$CComPtrBase@UITypeInfo2@@@ATL@@QBEPAUITypeInfo2@@XZ
_TEXT	SEGMENT PARA USE32 PUBLIC 'CODE'
_TEXT	ENDS
;	COMDAT ?equal@?$istreambuf_iterator@DU?$char_traits@D@std@@@std@@QBE_NABV12@@Z
_TEXT	SEGMENT PARA USE32 PUBLIC 'CODE'
_TEXT	ENDS
;	COMDAT ?equal@?$istreambuf_iterator@_WU?$char_traits@_W@std@@@std@@QBE_NABV12@@Z
_TEXT	SEGMENT PARA USE32 PUBLIC 'CODE'
_TEXT	ENDS
;	COMDAT ?CharNextA@?$ChTraitsCRT@D@ATL@@SAPADPBD@Z
_TEXT	SEGMENT PARA USE32 PUBLIC 'CODE'
_TEXT	ENDS
;	COMDAT ?IsSpace@?$ChTraitsCRT@D@ATL@@SAHD@Z
_TEXT	SEGMENT PARA USE32 PUBLIC 'CODE'
_TEXT	ENDS
;	COMDAT ?Unlock@?$CComCritSecLock@VCComCriticalSection@ATL@@@ATL@@QAEXXZ
_TEXT	SEGMENT PARA USE32 PUBLIC 'CODE'
_TEXT	ENDS
;	COMDAT ??$_Maklocstr@D@std@@YAPADPBDPADABU_Cvtvec@@@Z
_TEXT	SEGMENT PARA USE32 PUBLIC 'CODE'
_TEXT	ENDS
;	COMDAT ??_R3CButtonDraw@@8
rdata$r	SEGMENT DWORD USE32 PUBLIC 'CONST'
rdata$r	ENDS
;	COMDAT ??_R3DIBINFO@@8
rdata$r	SEGMENT DWORD USE32 PUBLIC 'CONST'
rdata$r	ENDS
;	COMDAT ??_R3CGdiPlusBitmap@CSkinButton@@8
rdata$r	SEGMENT DWORD USE32 PUBLIC 'CONST'
rdata$r	ENDS
;	COMDAT ??_R3CSkinButton@@8
rdata$r	SEGMENT DWORD USE32 PUBLIC 'CONST'
rdata$r	ENDS
;	COMDAT ??_R3?$numpunct@_W@std@@8
rdata$r	SEGMENT DWORD USE32 PUBLIC 'CONST'
rdata$r	ENDS
;	COMDAT ??_R3?$numpunct@D@std@@8
rdata$r	SEGMENT DWORD USE32 PUBLIC 'CONST'
rdata$r	ENDS
;	COMDAT ??_R2CButtonDraw@@8
rdata$r	SEGMENT DWORD USE32 PUBLIC 'CONST'
rdata$r	ENDS
;	COMDAT ??_R2DIBINFO@@8
rdata$r	SEGMENT DWORD USE32 PUBLIC 'CONST'
rdata$r	ENDS
;	COMDAT ??_R2CGdiPlusBitmap@CSkinButton@@8
rdata$r	SEGMENT DWORD USE32 PUBLIC 'CONST'
rdata$r	ENDS
;	COMDAT ??_R2CSkinButton@@8
rdata$r	SEGMENT DWORD USE32 PUBLIC 'CONST'
rdata$r	ENDS
;	COMDAT ??_R2?$numpunct@_W@std@@8
rdata$r	SEGMENT DWORD USE32 PUBLIC 'CONST'
rdata$r	ENDS
;	COMDAT ??_R2?$numpunct@D@std@@8
rdata$r	SEGMENT DWORD USE32 PUBLIC 'CONST'
rdata$r	ENDS
;	COMDAT ??_R1A@?0A@A@CButtonDraw@@8
rdata$r	SEGMENT DWORD USE32 PUBLIC 'CONST'
rdata$r	ENDS
;	COMDAT ??_R1A@?0A@A@DIBINFO@@8
rdata$r	SEGMENT DWORD USE32 PUBLIC 'CONST'
rdata$r	ENDS
;	COMDAT ??_R1A@?0A@A@CGdiPlusBitmap@CSkinButton@@8
rdata$r	SEGMENT DWORD USE32 PUBLIC 'CONST'
rdata$r	ENDS
;	COMDAT ??_R1A@?0A@A@CObject@@8
rdata$r	SEGMENT DWORD USE32 PUBLIC 'CONST'
rdata$r	ENDS
;	COMDAT ??_R0?AVCObject@@@8
_DATA	SEGMENT DWORD USE32 PUBLIC 'DATA'
_DATA	ENDS
;	COMDAT ??_R1A@?0A@A@CCmdTarget@@8
rdata$r	SEGMENT DWORD USE32 PUBLIC 'CONST'
rdata$r	ENDS
;	COMDAT ??_R0?AVCCmdTarget@@@8
_DATA	SEGMENT DWORD USE32 PUBLIC 'DATA'
_DATA	ENDS
;	COMDAT ??_R1A@?0A@A@CWnd@@8
rdata$r	SEGMENT DWORD USE32 PUBLIC 'CONST'
rdata$r	ENDS
;	COMDAT ??_R0?AVCWnd@@@8
_DATA	SEGMENT DWORD USE32 PUBLIC 'DATA'
_DATA	ENDS
;	COMDAT ??_R1A@?0A@A@CButton@@8
rdata$r	SEGMENT DWORD USE32 PUBLIC 'CONST'
rdata$r	ENDS
;	COMDAT ??_R0?AVCButton@@@8
_DATA	SEGMENT DWORD USE32 PUBLIC 'DATA'
_DATA	ENDS
;	COMDAT ??_R1A@?0A@A@CSkinButton@@8
rdata$r	SEGMENT DWORD USE32 PUBLIC 'CONST'
rdata$r	ENDS
;	COMDAT ??_R1A@?0A@A@?$numpunct@_W@std@@8
rdata$r	SEGMENT DWORD USE32 PUBLIC 'CONST'
rdata$r	ENDS
;	COMDAT ??_R1A@?0A@A@facet@locale@std@@8
rdata$r	SEGMENT DWORD USE32 PUBLIC 'CONST'
rdata$r	ENDS
;	COMDAT ??_R0?AVfacet@locale@std@@@8
_DATA	SEGMENT DWORD USE32 PUBLIC 'DATA'
_DATA	ENDS
;	COMDAT ??_R1A@?0A@A@?$numpunct@D@std@@8
rdata$r	SEGMENT DWORD USE32 PUBLIC 'CONST'
rdata$r	ENDS
;	COMDAT ??_R0?AVCButtonDraw@@@8
_DATA	SEGMENT DWORD USE32 PUBLIC 'DATA'
_DATA	ENDS
;	COMDAT ??_R0?AVDIBINFO@@@8
_DATA	SEGMENT DWORD USE32 PUBLIC 'DATA'
_DATA	ENDS
;	COMDAT ??_R0?AVCGdiPlusBitmap@CSkinButton@@@8
_DATA	SEGMENT DWORD USE32 PUBLIC 'DATA'
_DATA	ENDS
;	COMDAT ??_R0?AVCSkinButton@@@8
_DATA	SEGMENT DWORD USE32 PUBLIC 'DATA'
_DATA	ENDS
;	COMDAT ??_R0?AV?$numpunct@_W@std@@@8
_DATA	SEGMENT DWORD USE32 PUBLIC 'DATA'
_DATA	ENDS
;	COMDAT ??_R0?AV?$numpunct@D@std@@@8
_DATA	SEGMENT DWORD USE32 PUBLIC 'DATA'
_DATA	ENDS
;	COMDAT ??_R4CButtonDraw@@6B@
rdata$r	SEGMENT DWORD USE32 PUBLIC 'CONST'
rdata$r	ENDS
;	COMDAT ??_R4DIBINFO@@6B@
rdata$r	SEGMENT DWORD USE32 PUBLIC 'CONST'
rdata$r	ENDS
;	COMDAT ??_R4CGdiPlusBitmap@CSkinButton@@6B@
rdata$r	SEGMENT DWORD USE32 PUBLIC 'CONST'
rdata$r	ENDS
;	COMDAT ?EndModalState@CWnd@@UAEXXZ
_TEXT	SEGMENT PARA USE32 PUBLIC 'CODE'
_TEXT	ENDS
;	COMDAT ?BeginModalState@CWnd@@UAEXXZ
_TEXT	SEGMENT PARA USE32 PUBLIC 'CODE'
_TEXT	ENDS
;	COMDAT ?DoDataExchange@CWnd@@MAEXPAVCDataExchange@@@Z
_TEXT	SEGMENT PARA USE32 PUBLIC 'CODE'
_TEXT	ENDS
;	COMDAT ?Dump@CObject@@UBEXAAVCDumpContext@@@Z
_TEXT	SEGMENT PARA USE32 PUBLIC 'CODE'
_TEXT	ENDS
;	COMDAT ?AssertValid@CObject@@UBEXXZ
_TEXT	SEGMENT PARA USE32 PUBLIC 'CODE'
_TEXT	ENDS
;	COMDAT ?Serialize@CObject@@UAEXAAVCArchive@@@Z
_TEXT	SEGMENT PARA USE32 PUBLIC 'CODE'
_TEXT	ENDS
;	COMDAT ??_R4CSkinButton@@6B@
rdata$r	SEGMENT DWORD USE32 PUBLIC 'CONST'
rdata$r	ENDS
;	COMDAT ??0?$allocator@_W@std@@QAE@XZ
_TEXT	SEGMENT PARA USE32 PUBLIC 'CODE'
_TEXT	ENDS
;	COMDAT ??0?$allocator@D@std@@QAE@ABV01@@Z
_TEXT	SEGMENT PARA USE32 PUBLIC 'CODE'
_TEXT	ENDS
;	COMDAT ??0?$allocator@D@std@@QAE@XZ
_TEXT	SEGMENT PARA USE32 PUBLIC 'CODE'
_TEXT	ENDS
;	COMDAT ?deallocate@?$allocator@D@std@@QAEXPADI@Z
_TEXT	SEGMENT PARA USE32 PUBLIC 'CODE'
_TEXT	ENDS
;	COMDAT ?max_size@?$allocator@D@std@@QBEIXZ
_TEXT	SEGMENT PARA USE32 PUBLIC 'CODE'
_TEXT	ENDS
;	COMDAT ?allocate@?$allocator@D@std@@QAEPADI@Z
_TEXT	SEGMENT PARA USE32 PUBLIC 'CODE'
_TEXT	ENDS
;	COMDAT ??$_Allocate@D@std@@YAPADIPAD@Z
_TEXT	SEGMENT PARA USE32 PUBLIC 'CODE'
_TEXT	ENDS
;	COMDAT ??_G?$numpunct@_W@std@@MAEPAXI@Z
_TEXT	SEGMENT PARA USE32 PUBLIC 'CODE'
_TEXT	ENDS
;	COMDAT ??_R4?$numpunct@_W@std@@6B@
rdata$r	SEGMENT DWORD USE32 PUBLIC 'CONST'
rdata$r	ENDS
;	COMDAT ??_G?$numpunct@D@std@@MAEPAXI@Z
_TEXT	SEGMENT PARA USE32 PUBLIC 'CODE'
_TEXT	ENDS
;	COMDAT ??_R4?$numpunct@D@std@@6B@
rdata$r	SEGMENT DWORD USE32 PUBLIC 'CONST'
rdata$r	ENDS
;	COMDAT ?_Psave@?$_Facetptr@V?$numpunct@_W@std@@@std@@2PBVfacet@locale@2@B
_DATA	SEGMENT DWORD USE32 PUBLIC 'DATA'
_DATA	ENDS
;	COMDAT ?_Psave@?$_Facetptr@V?$numpunct@D@std@@@std@@2PBVfacet@locale@2@B
_DATA	SEGMENT DWORD USE32 PUBLIC 'DATA'
_DATA	ENDS
;	COMDAT ?Unlock@CComCriticalSection@ATL@@QAEJXZ
_TEXT	SEGMENT PARA USE32 PUBLIC 'CODE'
_TEXT	ENDS
;	COMDAT ?_Psave@?$_Facetptr@V?$ctype@_W@std@@@std@@2PBVfacet@locale@2@B
_DATA	SEGMENT DWORD USE32 PUBLIC 'DATA'
_DATA	ENDS
;	COMDAT ?_Psave@?$_Facetptr@V?$ctype@D@std@@@std@@2PBVfacet@locale@2@B
_DATA	SEGMENT DWORD USE32 PUBLIC 'DATA'
_DATA	ENDS
;	COMDAT ??$_Maklocchr@_W@std@@YA_WDPA_WABU_Cvtvec@@@Z
_TEXT	SEGMENT PARA USE32 PUBLIC 'CODE'
_TEXT	ENDS
;	COMDAT ??$_Maklocstr@_W@std@@YAPA_WPBDPA_WABU_Cvtvec@@@Z
_TEXT	SEGMENT PARA USE32 PUBLIC 'CODE'
_TEXT	ENDS
;	COMDAT ??$_Maklocchr@D@std@@YADDPADABU_Cvtvec@@@Z
_TEXT	SEGMENT PARA USE32 PUBLIC 'CODE'
_TEXT	ENDS
;	COMDAT ??_C@_04LOAJBDKD@true?$AA@
CONST	SEGMENT DWORD USE32 PUBLIC 'CONST'
CONST	ENDS
;	COMDAT ??_C@_05LAPONLG@false?$AA@
CONST	SEGMENT DWORD USE32 PUBLIC 'CONST'
CONST	ENDS
;	COMDAT _wmemcpy
_TEXT	SEGMENT PARA USE32 PUBLIC 'CODE'
_TEXT	ENDS
;	COMDAT ?max_size@?$allocator@_W@std@@QBEIXZ
_TEXT	SEGMENT PARA USE32 PUBLIC 'CODE'
_TEXT	ENDS
;	COMDAT ?allocate@?$allocator@_W@std@@QAEPA_WI@Z
_TEXT	SEGMENT PARA USE32 PUBLIC 'CODE'
_TEXT	ENDS
;	COMDAT ??$_Allocate@_W@std@@YAPA_WIPA_W@Z
_TEXT	SEGMENT PARA USE32 PUBLIC 'CODE'
_TEXT	ENDS
;	COMDAT ??_C@_01GFHCPBMG@C?$AA@
CONST	SEGMENT DWORD USE32 PUBLIC 'CONST'
CONST	ENDS
;	COMDAT ?AtlThrow@ATL@@YGXJ@Z
_TEXT	SEGMENT PARA USE32 PUBLIC 'CODE'
_TEXT	ENDS
;	COMDAT ?IsShared@CStringData@ATL@@QBE_NXZ
_TEXT	SEGMENT PARA USE32 PUBLIC 'CODE'
_TEXT	ENDS
;	COMDAT ?data@CStringData@ATL@@QAEPAXXZ
_TEXT	SEGMENT PARA USE32 PUBLIC 'CODE'
_TEXT	ENDS
;	COMDAT ?Release@CStringData@ATL@@QAEXXZ
_TEXT	SEGMENT PARA USE32 PUBLIC 'CODE'
_TEXT	ENDS
;	COMDAT ?_Peek@?$istreambuf_iterator@_WU?$char_traits@_W@std@@@std@@AAE_WXZ
_TEXT	SEGMENT PARA USE32 PUBLIC 'CODE'
_TEXT	ENDS
;	COMDAT ?_Peek@?$istreambuf_iterator@DU?$char_traits@D@std@@@std@@AAEDXZ
_TEXT	SEGMENT PARA USE32 PUBLIC 'CODE'
_TEXT	ENDS
;	COMDAT ??$use_facet@V?$ctype@_W@std@@@std@@YAABV?$ctype@_W@0@ABVlocale@0@@Z
_TEXT	SEGMENT PARA USE32 PUBLIC 'CODE'
_TEXT	ENDS
;	COMDAT ??_S?$ctype@_W@std@@6B@
CONST	SEGMENT DWORD USE32 PUBLIC 'CONST'
CONST	ENDS
;	COMDAT ??_R4?$ctype@_W@std@@6B@
rdata$r	SEGMENT DWORD USE32 PUBLIC 'CONST'
rdata$r	ENDS
;	COMDAT ??_R0?AV?$ctype@_W@std@@@8
_DATA	SEGMENT DWORD USE32 PUBLIC 'DATA'
_DATA	ENDS
;	COMDAT ??_R3?$ctype@_W@std@@8
rdata$r	SEGMENT DWORD USE32 PUBLIC 'CONST'
rdata$r	ENDS
;	COMDAT ??_R2?$ctype@_W@std@@8
rdata$r	SEGMENT DWORD USE32 PUBLIC 'CONST'
rdata$r	ENDS
;	COMDAT ??_R1A@?0A@A@?$ctype@_W@std@@8
rdata$r	SEGMENT DWORD USE32 PUBLIC 'CONST'
rdata$r	ENDS
;	COMDAT ??_R1A@?0A@A@ctype_base@std@@8
rdata$r	SEGMENT DWORD USE32 PUBLIC 'CONST'
rdata$r	ENDS
;	COMDAT ??_R0?AUctype_base@std@@@8
_DATA	SEGMENT DWORD USE32 PUBLIC 'DATA'
_DATA	ENDS
;	COMDAT ??_G?$ctype@_W@std@@MAEPAXI@Z
_TEXT	SEGMENT PARA USE32 PUBLIC 'CODE'
_TEXT	ENDS
;	COMDAT ??_C@_08EPJLHIJG@bad?5cast?$AA@
CONST	SEGMENT DWORD USE32 PUBLIC 'CONST'
CONST	ENDS
;	COMDAT __TI2?AVbad_cast@@
xdata$x	SEGMENT DWORD USE32 PUBLIC 'CONST'
xdata$x	ENDS
;	COMDAT __CTA2?AVbad_cast@@
xdata$x	SEGMENT DWORD USE32 PUBLIC 'CONST'
xdata$x	ENDS
;	COMDAT __CT??_R0?AVbad_cast@@@8??0bad_cast@@QAE@ABV0@@Z12
xdata$x	SEGMENT DWORD USE32 PUBLIC 'CONST'
xdata$x	ENDS
;	COMDAT ??_R0?AVbad_cast@@@8
_DATA	SEGMENT DWORD USE32 PUBLIC 'DATA'
_DATA	ENDS
;	COMDAT __CT??_R0?AVexception@@@8??0exception@@QAE@ABV0@@Z12
xdata$x	SEGMENT DWORD USE32 PUBLIC 'CONST'
xdata$x	ENDS
;	COMDAT ??_R0?AVexception@@@8
_DATA	SEGMENT DWORD USE32 PUBLIC 'DATA'
_DATA	ENDS
;	COMDAT ??$use_facet@V?$ctype@D@std@@@std@@YAABV?$ctype@D@0@ABVlocale@0@@Z
_TEXT	SEGMENT PARA USE32 PUBLIC 'CODE'
_TEXT	ENDS
;	COMDAT ??_S?$ctype@D@std@@6B@
CONST	SEGMENT DWORD USE32 PUBLIC 'CONST'
CONST	ENDS
;	COMDAT ??_R4?$ctype@D@std@@6B@
rdata$r	SEGMENT DWORD USE32 PUBLIC 'CONST'
rdata$r	ENDS
;	COMDAT ??_R0?AV?$ctype@D@std@@@8
_DATA	SEGMENT DWORD USE32 PUBLIC 'DATA'
_DATA	ENDS
;	COMDAT ??_R3?$ctype@D@std@@8
rdata$r	SEGMENT DWORD USE32 PUBLIC 'CONST'
rdata$r	ENDS
;	COMDAT ??_R2?$ctype@D@std@@8
rdata$r	SEGMENT DWORD USE32 PUBLIC 'CONST'
rdata$r	ENDS
;	COMDAT ??_R1A@?0A@A@?$ctype@D@std@@8
rdata$r	SEGMENT DWORD USE32 PUBLIC 'CONST'
rdata$r	ENDS
;	COMDAT ??_G?$ctype@D@std@@MAEPAXI@Z
_TEXT	SEGMENT PARA USE32 PUBLIC 'CODE'
_TEXT	ENDS
;	COMDAT ??_S?$numpunct@_W@std@@6B@
CONST	SEGMENT DWORD USE32 PUBLIC 'CONST'
CONST	ENDS
;	COMDAT ??_S?$numpunct@D@std@@6B@
CONST	SEGMENT DWORD USE32 PUBLIC 'CONST'
CONST	ENDS
;	COMDAT _wmemmove
_TEXT	SEGMENT PARA USE32 PUBLIC 'CODE'
_TEXT	ENDS
;	COMDAT ?deallocate@?$allocator@_W@std@@QAEXPA_WI@Z
_TEXT	SEGMENT PARA USE32 PUBLIC 'CODE'
_TEXT	ENDS
;	COMDAT ??0?$allocator@_W@std@@QAE@ABV01@@Z
_TEXT	SEGMENT PARA USE32 PUBLIC 'CODE'
_TEXT	ENDS
;	COMDAT ?DrawImage@Graphics@Gdiplus@@QAE?AW4Status@2@PAVImage@2@ABVRectF@2@@Z
_TEXT	SEGMENT PARA USE32 PUBLIC 'CODE'
_TEXT	ENDS
;	COMDAT ?DrawImage@Graphics@Gdiplus@@QAE?AW4Status@2@PAVImage@2@MMMM@Z
_TEXT	SEGMENT PARA USE32 PUBLIC 'CODE'
_TEXT	ENDS
;	COMDAT ?SetStatus@Graphics@Gdiplus@@IBE?AW4Status@2@W432@@Z
_TEXT	SEGMENT PARA USE32 PUBLIC 'CODE'
_TEXT	ENDS
;	COMDAT ?GetHeight@Image@Gdiplus@@QAEIXZ
_TEXT	SEGMENT PARA USE32 PUBLIC 'CODE'
_TEXT	ENDS
;	COMDAT ?SetStatus@Image@Gdiplus@@IBE?AW4Status@2@W432@@Z
_TEXT	SEGMENT PARA USE32 PUBLIC 'CODE'
_TEXT	ENDS
;	COMDAT ?GetWidth@Image@Gdiplus@@QAEIXZ
_TEXT	SEGMENT PARA USE32 PUBLIC 'CODE'
_TEXT	ENDS
;	COMDAT ??0RectF@Gdiplus@@QAE@XZ
_TEXT	SEGMENT PARA USE32 PUBLIC 'CODE'
_TEXT	ENDS
;	COMDAT ?FillPolygon@Graphics@Gdiplus@@QAE?AW4Status@2@PBVBrush@2@PBVPointF@2@HW4FillMode@2@@Z
_TEXT	SEGMENT PARA USE32 PUBLIC 'CODE'
_TEXT	ENDS
;	COMDAT ??1LinearGradientBrush@Gdiplus@@UAE@XZ
_TEXT	SEGMENT PARA USE32 PUBLIC 'CODE'
_TEXT	ENDS
;	COMDAT ??1Brush@Gdiplus@@UAE@XZ
_TEXT	SEGMENT PARA USE32 PUBLIC 'CODE'
_TEXT	ENDS
;	COMDAT ??_7Brush@Gdiplus@@6B@
CONST	SEGMENT DWORD USE32 PUBLIC 'CONST'
CONST	ENDS
;	COMDAT ??_R4Brush@Gdiplus@@6B@
rdata$r	SEGMENT DWORD USE32 PUBLIC 'CONST'
rdata$r	ENDS
;	COMDAT ??_R0?AVBrush@Gdiplus@@@8
_DATA	SEGMENT DWORD USE32 PUBLIC 'DATA'
_DATA	ENDS
;	COMDAT ??_R3Brush@Gdiplus@@8
rdata$r	SEGMENT DWORD USE32 PUBLIC 'CONST'
rdata$r	ENDS
;	COMDAT ??_R2Brush@Gdiplus@@8
rdata$r	SEGMENT DWORD USE32 PUBLIC 'CONST'
rdata$r	ENDS
;	COMDAT ??_R1A@?0A@A@Brush@Gdiplus@@8
rdata$r	SEGMENT DWORD USE32 PUBLIC 'CONST'
rdata$r	ENDS
;	COMDAT ??_R13?0A@A@GdiplusBase@Gdiplus@@8
rdata$r	SEGMENT DWORD USE32 PUBLIC 'CONST'
rdata$r	ENDS
;	COMDAT ??_R0?AVGdiplusBase@Gdiplus@@@8
_DATA	SEGMENT DWORD USE32 PUBLIC 'DATA'
_DATA	ENDS
;	COMDAT ??_GBrush@Gdiplus@@UAEPAXI@Z
_TEXT	SEGMENT PARA USE32 PUBLIC 'CODE'
_TEXT	ENDS
;	COMDAT ??3GdiplusBase@Gdiplus@@SAXPAX@Z
_TEXT	SEGMENT PARA USE32 PUBLIC 'CODE'
_TEXT	ENDS
;	COMDAT ?Clone@Brush@Gdiplus@@UBEPAV12@XZ
_TEXT	SEGMENT PARA USE32 PUBLIC 'CODE'
_TEXT	ENDS
;	COMDAT ?SetStatus@Brush@Gdiplus@@IBE?AW4Status@2@W432@@Z
_TEXT	SEGMENT PARA USE32 PUBLIC 'CODE'
_TEXT	ENDS
;	COMDAT ??2GdiplusBase@Gdiplus@@SAPAXI@Z
_TEXT	SEGMENT PARA USE32 PUBLIC 'CODE'
_TEXT	ENDS
;	COMDAT ??0Brush@Gdiplus@@IAE@PAVGpBrush@1@W4Status@1@@Z
_TEXT	SEGMENT PARA USE32 PUBLIC 'CODE'
_TEXT	ENDS
;	COMDAT ?SetNativeBrush@Brush@Gdiplus@@IAEXPAVGpBrush@2@@Z
_TEXT	SEGMENT PARA USE32 PUBLIC 'CODE'
_TEXT	ENDS
;	COMDAT ??0LinearGradientBrush@Gdiplus@@QAE@ABVRectF@1@ABVColor@1@1W4LinearGradientMode@1@@Z
_TEXT	SEGMENT PARA USE32 PUBLIC 'CODE'
_TEXT	ENDS
;	COMDAT ??0Brush@Gdiplus@@IAE@XZ
_TEXT	SEGMENT PARA USE32 PUBLIC 'CODE'
_TEXT	ENDS
;	COMDAT ??_7LinearGradientBrush@Gdiplus@@6B@
CONST	SEGMENT DWORD USE32 PUBLIC 'CONST'
CONST	ENDS
;	COMDAT ??_R4LinearGradientBrush@Gdiplus@@6B@
rdata$r	SEGMENT DWORD USE32 PUBLIC 'CONST'
rdata$r	ENDS
;	COMDAT ??_R0?AVLinearGradientBrush@Gdiplus@@@8
_DATA	SEGMENT DWORD USE32 PUBLIC 'DATA'
_DATA	ENDS
;	COMDAT ??_R3LinearGradientBrush@Gdiplus@@8
rdata$r	SEGMENT DWORD USE32 PUBLIC 'CONST'
rdata$r	ENDS
;	COMDAT ??_R2LinearGradientBrush@Gdiplus@@8
rdata$r	SEGMENT DWORD USE32 PUBLIC 'CONST'
rdata$r	ENDS
;	COMDAT ??_R1A@?0A@A@LinearGradientBrush@Gdiplus@@8
rdata$r	SEGMENT DWORD USE32 PUBLIC 'CONST'
rdata$r	ENDS
;	COMDAT ??_GLinearGradientBrush@Gdiplus@@UAEPAXI@Z
_TEXT	SEGMENT PARA USE32 PUBLIC 'CODE'
_TEXT	ENDS
;	COMDAT ?GetValue@Color@Gdiplus@@QBEKXZ
_TEXT	SEGMENT PARA USE32 PUBLIC 'CODE'
_TEXT	ENDS
;	COMDAT ??0PointF@Gdiplus@@QAE@ABV01@@Z
_TEXT	SEGMENT PARA USE32 PUBLIC 'CODE'
_TEXT	ENDS
;	COMDAT ??0PointF@Gdiplus@@QAE@MM@Z
_TEXT	SEGMENT PARA USE32 PUBLIC 'CODE'
_TEXT	ENDS
;	COMDAT ?Width@CRect@@QBEHXZ
_TEXT	SEGMENT PARA USE32 PUBLIC 'CODE'
_TEXT	ENDS
;	COMDAT ?Height@CRect@@QBEHXZ
_TEXT	SEGMENT PARA USE32 PUBLIC 'CODE'
_TEXT	ENDS
;	COMDAT ??0RectF@Gdiplus@@QAE@MMMM@Z
_TEXT	SEGMENT PARA USE32 PUBLIC 'CODE'
_TEXT	ENDS
;	COMDAT ?SetSmoothingMode@Graphics@Gdiplus@@QAE?AW4Status@2@W4SmoothingMode@2@@Z
_TEXT	SEGMENT PARA USE32 PUBLIC 'CODE'
_TEXT	ENDS
;	COMDAT ?UpdateWindow@CWnd@@QAEXXZ
_TEXT	SEGMENT PARA USE32 PUBLIC 'CODE'
_TEXT	ENDS
;	COMDAT ?GetWindowRect@CWnd@@QBEXPAUtagRECT@@@Z
_TEXT	SEGMENT PARA USE32 PUBLIC 'CODE'
_TEXT	ENDS
;	COMDAT ?RelayEvent@CToolTipCtrl@@QAEXPAUtagMSG@@@Z
_TEXT	SEGMENT PARA USE32 PUBLIC 'CODE'
_TEXT	ENDS
;	COMDAT ?SetMaxTipWidth@CToolTipCtrl@@QAEHH@Z
_TEXT	SEGMENT PARA USE32 PUBLIC 'CODE'
_TEXT	ENDS
;	COMDAT ?Activate@CToolTipCtrl@@QAEXH@Z
_TEXT	SEGMENT PARA USE32 PUBLIC 'CODE'
_TEXT	ENDS
;	COMDAT ??0CPoint@@QAE@HH@Z
_TEXT	SEGMENT PARA USE32 PUBLIC 'CODE'
_TEXT	ENDS
;	COMDAT ?Draw@CImageList@@QAEHPAVCDC@@HUtagPOINT@@I@Z
_TEXT	SEGMENT PARA USE32 PUBLIC 'CODE'
_TEXT	ENDS
;	COMDAT ?GetSafeHdc@CDC@@QBEPAUHDC__@@XZ
_TEXT	SEGMENT PARA USE32 PUBLIC 'CODE'
_TEXT	ENDS
;	COMDAT ?Add@CImageList@@QAEHPAVCBitmap@@K@Z
_TEXT	SEGMENT PARA USE32 PUBLIC 'CODE'
_TEXT	ENDS
;	COMDAT ?GetSafeHandle@CGdiObject@@QBEPAXXZ
_TEXT	SEGMENT PARA USE32 PUBLIC 'CODE'
_TEXT	ENDS
;	COMDAT ?GetBitmapDimension@CBitmap@@QBE?AVCSize@@XZ
_TEXT	SEGMENT PARA USE32 PUBLIC 'CODE'
_TEXT	ENDS
;	COMDAT ??0CSize@@QAE@UtagSIZE@@@Z
_TEXT	SEGMENT PARA USE32 PUBLIC 'CODE'
_TEXT	ENDS
;	COMDAT ??0CRect@@QAE@HHHH@Z
_TEXT	SEGMENT PARA USE32 PUBLIC 'CODE'
_TEXT	ENDS
;	COMDAT ??BCRect@@QAEPAUtagRECT@@XZ
_TEXT	SEGMENT PARA USE32 PUBLIC 'CODE'
_TEXT	ENDS
;	COMDAT ?CreateFontIndirectA@CFont@@QAEHPBUtagLOGFONTA@@@Z
_TEXT	SEGMENT PARA USE32 PUBLIC 'CODE'
_TEXT	ENDS
;	COMDAT ??1CFont@@UAE@XZ
_TEXT	SEGMENT PARA USE32 PUBLIC 'CODE'
_TEXT	ENDS
;	COMDAT ??_7CFont@@6B@
CONST	SEGMENT DWORD USE32 PUBLIC 'CONST'
CONST	ENDS
;	COMDAT ??_R4CFont@@6B@
rdata$r	SEGMENT DWORD USE32 PUBLIC 'CONST'
rdata$r	ENDS
;	COMDAT ??_R0?AVCFont@@@8
_DATA	SEGMENT DWORD USE32 PUBLIC 'DATA'
_DATA	ENDS
;	COMDAT ??_R3CFont@@8
rdata$r	SEGMENT DWORD USE32 PUBLIC 'CONST'
rdata$r	ENDS
;	COMDAT ??_R2CFont@@8
rdata$r	SEGMENT DWORD USE32 PUBLIC 'CONST'
rdata$r	ENDS
;	COMDAT ??_R1A@?0A@A@CFont@@8
rdata$r	SEGMENT DWORD USE32 PUBLIC 'CONST'
rdata$r	ENDS
;	COMDAT ??_R1A@?0A@A@CGdiObject@@8
rdata$r	SEGMENT DWORD USE32 PUBLIC 'CONST'
rdata$r	ENDS
;	COMDAT ??_R0?AVCGdiObject@@@8
_DATA	SEGMENT DWORD USE32 PUBLIC 'DATA'
_DATA	ENDS
;	COMDAT ??_GCFont@@UAEPAXI@Z
_TEXT	SEGMENT PARA USE32 PUBLIC 'CODE'
_TEXT	ENDS
;	COMDAT ??1CGdiObject@@UAE@XZ
_TEXT	SEGMENT PARA USE32 PUBLIC 'CODE'
_TEXT	ENDS
;	COMDAT ??_7CGdiObject@@6B@
CONST	SEGMENT DWORD USE32 PUBLIC 'CONST'
CONST	ENDS
;	COMDAT ??_R4CGdiObject@@6B@
rdata$r	SEGMENT DWORD USE32 PUBLIC 'CONST'
rdata$r	ENDS
;	COMDAT ??_R3CGdiObject@@8
rdata$r	SEGMENT DWORD USE32 PUBLIC 'CONST'
rdata$r	ENDS
;	COMDAT ??_R2CGdiObject@@8
rdata$r	SEGMENT DWORD USE32 PUBLIC 'CONST'
rdata$r	ENDS
;	COMDAT ??_GCGdiObject@@UAEPAXI@Z
_TEXT	SEGMENT PARA USE32 PUBLIC 'CODE'
_TEXT	ENDS
;	COMDAT ??1CObject@@UAE@XZ
_TEXT	SEGMENT PARA USE32 PUBLIC 'CODE'
_TEXT	ENDS
;	COMDAT ??0CFont@@QAE@XZ
_TEXT	SEGMENT PARA USE32 PUBLIC 'CODE'
_TEXT	ENDS
;	COMDAT ??0CGdiObject@@QAE@XZ
_TEXT	SEGMENT PARA USE32 PUBLIC 'CODE'
_TEXT	ENDS
;	COMDAT ??0CObject@@IAE@XZ
_TEXT	SEGMENT PARA USE32 PUBLIC 'CODE'
_TEXT	ENDS
;	COMDAT ?MakeARGB@Color@Gdiplus@@SAKEEEE@Z
_TEXT	SEGMENT PARA USE32 PUBLIC 'CODE'
_TEXT	ENDS
;	COMDAT ?SetValue@Color@Gdiplus@@QAEXK@Z
_TEXT	SEGMENT PARA USE32 PUBLIC 'CODE'
_TEXT	ENDS
;	COMDAT ??0Color@Gdiplus@@QAE@XZ
_TEXT	SEGMENT PARA USE32 PUBLIC 'CODE'
_TEXT	ENDS
;	COMDAT ??_7CButtonDraw@@6B@
CONST	SEGMENT DWORD USE32 PUBLIC 'CONST'
CONST	ENDS
;	COMDAT ??1CBrush@@UAE@XZ
_TEXT	SEGMENT PARA USE32 PUBLIC 'CODE'
_TEXT	ENDS
;	COMDAT ??_7CBrush@@6B@
CONST	SEGMENT DWORD USE32 PUBLIC 'CONST'
CONST	ENDS
;	COMDAT ??_R4CBrush@@6B@
rdata$r	SEGMENT DWORD USE32 PUBLIC 'CONST'
rdata$r	ENDS
;	COMDAT ??_R0?AVCBrush@@@8
_DATA	SEGMENT DWORD USE32 PUBLIC 'DATA'
_DATA	ENDS
;	COMDAT ??_R3CBrush@@8
rdata$r	SEGMENT DWORD USE32 PUBLIC 'CONST'
rdata$r	ENDS
;	COMDAT ??_R2CBrush@@8
rdata$r	SEGMENT DWORD USE32 PUBLIC 'CONST'
rdata$r	ENDS
;	COMDAT ??_R1A@?0A@A@CBrush@@8
rdata$r	SEGMENT DWORD USE32 PUBLIC 'CONST'
rdata$r	ENDS
;	COMDAT ??_GCBrush@@UAEPAXI@Z
_TEXT	SEGMENT PARA USE32 PUBLIC 'CODE'
_TEXT	ENDS
;	COMDAT ?FillRect@CDC@@QAEXPBUtagRECT@@PAVCBrush@@@Z
_TEXT	SEGMENT PARA USE32 PUBLIC 'CODE'
_TEXT	ENDS
;	COMDAT ?GetClientRect@CWnd@@QBEXPAUtagRECT@@@Z
_TEXT	SEGMENT PARA USE32 PUBLIC 'CODE'
_TEXT	ENDS
;	COMDAT ??0CRect@@QAE@XZ
_TEXT	SEGMENT PARA USE32 PUBLIC 'CODE'
_TEXT	ENDS
;	COMDAT ?OnLButtonUp@CWnd@@IAEXIVCPoint@@@Z
_TEXT	SEGMENT PARA USE32 PUBLIC 'CODE'
_TEXT	ENDS
;	COMDAT ?OnLButtonDown@CWnd@@IAEXIVCPoint@@@Z
_TEXT	SEGMENT PARA USE32 PUBLIC 'CODE'
_TEXT	ENDS
;	COMDAT ?OnMouseMove@CWnd@@IAEXIVCPoint@@@Z
_TEXT	SEGMENT PARA USE32 PUBLIC 'CODE'
_TEXT	ENDS
;	COMDAT ?Invalidate@CWnd@@QAEXH@Z
_TEXT	SEGMENT PARA USE32 PUBLIC 'CODE'
_TEXT	ENDS
;	COMDAT ??1Graphics@Gdiplus@@QAE@XZ
_TEXT	SEGMENT PARA USE32 PUBLIC 'CODE'
_TEXT	ENDS
;	COMDAT ??0Graphics@Gdiplus@@QAE@PAUHDC__@@@Z
_TEXT	SEGMENT PARA USE32 PUBLIC 'CODE'
_TEXT	ENDS
;	COMDAT ?SetNativeGraphics@Graphics@Gdiplus@@IAEXPAVGpGraphics@2@@Z
_TEXT	SEGMENT PARA USE32 PUBLIC 'CODE'
_TEXT	ENDS
;	COMDAT ?_messageEntries@CSkinButton@@0QBUAFX_MSGMAP_ENTRY@@B
CONST	SEGMENT DWORD USE32 PUBLIC 'CONST'
CONST	ENDS
;	COMDAT ?messageMap@CSkinButton@@1UAFX_MSGMAP@@B
CONST	SEGMENT DWORD USE32 PUBLIC 'CONST'
CONST	ENDS
;	COMDAT ??3CObject@@SGXPAX@Z
_TEXT	SEGMENT PARA USE32 PUBLIC 'CODE'
_TEXT	ENDS
;	COMDAT ?GetDefaultManager@?$StrTraitMFC_DLL@DV?$ChTraitsCRT@D@ATL@@@@SAPAUIAtlStringMgr@ATL@@XZ
_TEXT	SEGMENT PARA USE32 PUBLIC 'CODE'
_TEXT	ENDS
;	COMDAT ??_7CSkinButton@@6B@
CONST	SEGMENT DWORD USE32 PUBLIC 'CONST'
CONST	ENDS
;	COMDAT ??0CButton@@QAE@XZ
_TEXT	SEGMENT PARA USE32 PUBLIC 'CODE'
_TEXT	ENDS
;	COMDAT ??_7CButton@@6B@
CONST	SEGMENT DWORD USE32 PUBLIC 'CONST'
CONST	ENDS
;	COMDAT ??_R4CButton@@6B@
rdata$r	SEGMENT DWORD USE32 PUBLIC 'CONST'
rdata$r	ENDS
;	COMDAT ??_R3CButton@@8
rdata$r	SEGMENT DWORD USE32 PUBLIC 'CONST'
rdata$r	ENDS
;	COMDAT ??_R2CButton@@8
rdata$r	SEGMENT DWORD USE32 PUBLIC 'CONST'
rdata$r	ENDS
;	COMDAT ??_GCButton@@UAEPAXI@Z
_TEXT	SEGMENT PARA USE32 PUBLIC 'CODE'
_TEXT	ENDS
;	COMDAT ?classCSkinButton@CSkinButton@@2UCRuntimeClass@@B
CONST	SEGMENT DWORD USE32 PUBLIC 'CONST'
CONST	ENDS
;	COMDAT ??_7DIBINFO@@6B@
CONST	SEGMENT DWORD USE32 PUBLIC 'CONST'
CONST	ENDS
;	COMDAT ?FindStringResourceInstance@?$StrTraitMFC_DLL@DV?$ChTraitsCRT@D@ATL@@@@SAPAUHINSTANCE__@@I@Z
_TEXT	SEGMENT PARA USE32 PUBLIC 'CODE'
_TEXT	ENDS
;	COMDAT ?AtlGetStringResourceImage@ATL@@YAPBUATLSTRINGRESOURCEIMAGE@1@PAUHINSTANCE__@@I@Z
_TEXT	SEGMENT PARA USE32 PUBLIC 'CODE'
_TEXT	ENDS
;	COMDAT ?_AtlGetStringResourceImage@ATL@@YAPBUATLSTRINGRESOURCEIMAGE@1@PAUHINSTANCE__@@PAUHRSRC__@@I@Z
_TEXT	SEGMENT PARA USE32 PUBLIC 'CODE'
_TEXT	ENDS
;	COMDAT ?GetBaseTypeLength@?$ChTraitsCRT@D@ATL@@SAHPB_WH@Z
_TEXT	SEGMENT PARA USE32 PUBLIC 'CODE'
_TEXT	ENDS
;	COMDAT ?_AtlGetConversionACP@ATL@@YGIXZ
_TEXT	SEGMENT PARA USE32 PUBLIC 'CODE'
_TEXT	ENDS
;	COMDAT ?g_pfnGetThreadACP@ATL@@3P6GIXZA
_DATA	SEGMENT DWORD USE32 PUBLIC 'DATA'
_DATA	ENDS
;	COMDAT ?_AtlGetThreadACPThunk@ATL@@YGIXZ
_TEXT	SEGMENT PARA USE32 PUBLIC 'CODE'
_TEXT	ENDS
;	COMDAT ?_AtlGetThreadACPReal@ATL@@YGIXZ
_TEXT	SEGMENT PARA USE32 PUBLIC 'CODE'
_TEXT	ENDS
;	COMDAT ?_AtlGetThreadACPFake@ATL@@YGIXZ
_TEXT	SEGMENT PARA USE32 PUBLIC 'CODE'
_TEXT	ENDS
;	COMDAT ?InterlockedExchangePointer@@YGPAXPAPAXPAX@Z
_TEXT	SEGMENT PARA USE32 PUBLIC 'CODE'
_TEXT	ENDS
;	COMDAT ?ConvertToBaseType@?$ChTraitsCRT@D@ATL@@SAXPADHPB_WH@Z
_TEXT	SEGMENT PARA USE32 PUBLIC 'CODE'
_TEXT	ENDS
;	COMDAT ?IsLocked@CStringData@ATL@@QBE_NXZ
_TEXT	SEGMENT PARA USE32 PUBLIC 'CODE'
_TEXT	ENDS
;	COMDAT ?AddRef@CStringData@ATL@@QAEXXZ
_TEXT	SEGMENT PARA USE32 PUBLIC 'CODE'
_TEXT	ENDS
;	COMDAT ?GetLastStatus@Image@Gdiplus@@QBE?AW4Status@2@XZ
_TEXT	SEGMENT PARA USE32 PUBLIC 'CODE'
_TEXT	ENDS
;	COMDAT ?FromFile@Bitmap@Gdiplus@@SAPAV12@PB_WH@Z
_TEXT	SEGMENT PARA USE32 PUBLIC 'CODE'
_TEXT	ENDS
;	COMDAT ??0Bitmap@Gdiplus@@QAE@PB_WH@Z
_TEXT	SEGMENT PARA USE32 PUBLIC 'CODE'
_TEXT	ENDS
;	COMDAT ??0Image@Gdiplus@@IAE@XZ
_TEXT	SEGMENT PARA USE32 PUBLIC 'CODE'
_TEXT	ENDS
;	COMDAT ??_7Image@Gdiplus@@6B@
CONST	SEGMENT DWORD USE32 PUBLIC 'CONST'
CONST	ENDS
;	COMDAT ??_R4Image@Gdiplus@@6B@
rdata$r	SEGMENT DWORD USE32 PUBLIC 'CONST'
rdata$r	ENDS
;	COMDAT ??_R0?AVImage@Gdiplus@@@8
_DATA	SEGMENT DWORD USE32 PUBLIC 'DATA'
_DATA	ENDS
;	COMDAT ??_R3Image@Gdiplus@@8
rdata$r	SEGMENT DWORD USE32 PUBLIC 'CONST'
rdata$r	ENDS
;	COMDAT ??_R2Image@Gdiplus@@8
rdata$r	SEGMENT DWORD USE32 PUBLIC 'CONST'
rdata$r	ENDS
;	COMDAT ??_R1A@?0A@A@Image@Gdiplus@@8
rdata$r	SEGMENT DWORD USE32 PUBLIC 'CONST'
rdata$r	ENDS
;	COMDAT ??_GImage@Gdiplus@@UAEPAXI@Z
_TEXT	SEGMENT PARA USE32 PUBLIC 'CODE'
_TEXT	ENDS
;	COMDAT ?Clone@Image@Gdiplus@@UAEPAV12@XZ
_TEXT	SEGMENT PARA USE32 PUBLIC 'CODE'
_TEXT	ENDS
;	COMDAT ??0Image@Gdiplus@@IAE@PAVGpImage@1@W4Status@1@@Z
_TEXT	SEGMENT PARA USE32 PUBLIC 'CODE'
_TEXT	ENDS
;	COMDAT ??1Image@Gdiplus@@UAE@XZ
_TEXT	SEGMENT PARA USE32 PUBLIC 'CODE'
_TEXT	ENDS
;	COMDAT ??_7Bitmap@Gdiplus@@6B@
CONST	SEGMENT DWORD USE32 PUBLIC 'CONST'
CONST	ENDS
;	COMDAT ??_R4Bitmap@Gdiplus@@6B@
rdata$r	SEGMENT DWORD USE32 PUBLIC 'CONST'
rdata$r	ENDS
;	COMDAT ??_R0?AVBitmap@Gdiplus@@@8
_DATA	SEGMENT DWORD USE32 PUBLIC 'DATA'
_DATA	ENDS
;	COMDAT ??_R3Bitmap@Gdiplus@@8
rdata$r	SEGMENT DWORD USE32 PUBLIC 'CONST'
rdata$r	ENDS
;	COMDAT ??_R2Bitmap@Gdiplus@@8
rdata$r	SEGMENT DWORD USE32 PUBLIC 'CONST'
rdata$r	ENDS
;	COMDAT ??_R1A@?0A@A@Bitmap@Gdiplus@@8
rdata$r	SEGMENT DWORD USE32 PUBLIC 'CONST'
rdata$r	ENDS
;	COMDAT ??_GBitmap@Gdiplus@@UAEPAXI@Z
_TEXT	SEGMENT PARA USE32 PUBLIC 'CODE'
_TEXT	ENDS
;	COMDAT ??1Bitmap@Gdiplus@@UAE@XZ
_TEXT	SEGMENT PARA USE32 PUBLIC 'CODE'
_TEXT	ENDS
;	COMDAT ?SetNativeImage@Image@Gdiplus@@IAEXPAVGpImage@2@@Z
_TEXT	SEGMENT PARA USE32 PUBLIC 'CODE'
_TEXT	ENDS
;	COMDAT ??_7CGdiPlusBitmap@CSkinButton@@6B@
CONST	SEGMENT DWORD USE32 PUBLIC 'CONST'
CONST	ENDS
sxdata	SEGMENT DWORD USE32 'SXDATA'
sxdata	ENDS
FLAT	GROUP _DATA, CONST, _BSS
	ASSUME	CS: FLAT, DS: FLAT, SS: FLAT
endif

INCLUDELIB MSVCRT
INCLUDELIB OLDNAMES

PUBLIC	?g_pfnGetThreadACP@ATL@@3P6GIXZA		; ATL::g_pfnGetThreadACP
PUBLIC	?_AtlGetThreadACPThunk@ATL@@YGIXZ		; ATL::_AtlGetThreadACPThunk
PUBLIC	?classCSkinButton@CSkinButton@@2UCRuntimeClass@@B ; CSkinButton::classCSkinButton
PUBLIC	?OnMouseMove@CSkinButton@@QAEXIVCPoint@@@Z	; CSkinButton::OnMouseMove
PUBLIC	?OnLButtonDown@CSkinButton@@QAEXIVCPoint@@@Z	; CSkinButton::OnLButtonDown
PUBLIC	?OnLButtonUp@CSkinButton@@QAEXIVCPoint@@@Z	; CSkinButton::OnLButtonUp
PUBLIC	?OnEraseBkgnd@CSkinButton@@QAEHPAVCDC@@@Z	; CSkinButton::OnEraseBkgnd
PUBLIC	?OnMouseLeave@CSkinButton@@IAEJIJ@Z		; CSkinButton::OnMouseLeave
PUBLIC	?OnMouseHover@CSkinButton@@IAEJIJ@Z		; CSkinButton::OnMouseHover
PUBLIC	?_messageEntries@CSkinButton@@0QBUAFX_MSGMAP_ENTRY@@B ; CSkinButton::_messageEntries
PUBLIC	?messageMap@CSkinButton@@1UAFX_MSGMAP@@B	; CSkinButton::messageMap
PUBLIC	?OnDestroy@CSkinButton@@AAEXXZ			; CSkinButton::OnDestroy
EXTRN	?GetThisMessageMap@CWnd@@KGPBUAFX_MSGMAP@@XZ:NEAR ; CWnd::GetThisMessageMap
EXTRN	?GetThisClass@CButton@@SGPAUCRuntimeClass@@XZ:NEAR ; CButton::GetThisClass
CONST	SEGMENT
$SG198021 DB	'CSkinButton', 00H
CONST	ENDS
;	COMDAT ?classCSkinButton@CSkinButton@@2UCRuntimeClass@@B
CONST	SEGMENT
?classCSkinButton@CSkinButton@@2UCRuntimeClass@@B DD FLAT:$SG198021 ; CSkinButton::classCSkinButton
	DD	0130H
	DD	0ffffH
	DD	00H
	DD	FLAT:?GetThisClass@CButton@@SGPAUCRuntimeClass@@XZ
	DD	00H
	DD	00H
CONST	ENDS
CONST	SEGMENT
$SG198033 DB	00H
CONST	ENDS
;	COMDAT ?_messageEntries@CSkinButton@@0QBUAFX_MSGMAP_ENTRY@@B
CONST	SEGMENT
?_messageEntries@CSkinButton@@0QBUAFX_MSGMAP_ENTRY@@B DD 0200H ; CSkinButton::_messageEntries
	DD	00H
	DD	00H
	DD	00H
	DD	032H
	DD	FLAT:?OnMouseMove@CSkinButton@@QAEXIVCPoint@@@Z
	DD	0201H
	DD	00H
	DD	00H
	DD	00H
	DD	032H
	DD	FLAT:?OnLButtonDown@CSkinButton@@QAEXIVCPoint@@@Z
	DD	0202H
	DD	00H
	DD	00H
	DD	00H
	DD	032H
	DD	FLAT:?OnLButtonUp@CSkinButton@@QAEXIVCPoint@@@Z
	DD	014H
	DD	00H
	DD	00H
	DD	00H
	DD	01H
	DD	FLAT:?OnEraseBkgnd@CSkinButton@@QAEHPAVCDC@@@Z
	DD	02H
	DD	00H
	DD	00H
	DD	00H
	DD	010H
	DD	FLAT:?OnDestroy@CSkinButton@@AAEXXZ
	DD	02a3H
	DD	00H
	DD	00H
	DD	00H
	DD	0eH
	DD	FLAT:?OnMouseLeave@CSkinButton@@IAEJIJ@Z
	DD	02a1H
	DD	00H
	DD	00H
	DD	00H
	DD	0eH
	DD	FLAT:?OnMouseHover@CSkinButton@@IAEJIJ@Z
	DD	00H
	DD	00H
	DD	00H
	DD	00H
	DD	00H
	DD	00H
CONST	ENDS
;	COMDAT ?messageMap@CSkinButton@@1UAFX_MSGMAP@@B
CONST	SEGMENT
?messageMap@CSkinButton@@1UAFX_MSGMAP@@B DD FLAT:?GetThisMessageMap@CWnd@@KGPBUAFX_MSGMAP@@XZ ; CSkinButton::messageMap
	DD	FLAT:?_messageEntries@CSkinButton@@0QBUAFX_MSGMAP_ENTRY@@B
CONST	ENDS
;	COMDAT ?g_pfnGetThreadACP@ATL@@3P6GIXZA
_DATA	SEGMENT
?g_pfnGetThreadACP@ATL@@3P6GIXZA DD FLAT:?_AtlGetThreadACPThunk@ATL@@YGIXZ ; ATL::g_pfnGetThreadACP
_DATA	ENDS
PUBLIC	?GetThisClass@CSkinButton@@SGPAUCRuntimeClass@@XZ ; CSkinButton::GetThisClass
; Function compile flags: /Odt
; File d:\boxgit\playbox\playbox\dev\prj\playbox\src\layoutmgr\changecolor\skinbotton.cpp
_TEXT	SEGMENT
?GetThisClass@CSkinButton@@SGPAUCRuntimeClass@@XZ PROC NEAR ; CSkinButton::GetThisClass

; 18   : IMPLEMENT_DYNAMIC(CSkinButton, CButton)

  00000	55		 push	 ebp
  00001	8b ec		 mov	 ebp, esp
  00003	b8 00 00 00 00	 mov	 eax, OFFSET FLAT:?classCSkinButton@CSkinButton@@2UCRuntimeClass@@B ; CSkinButton::classCSkinButton
  00008	5d		 pop	 ebp
  00009	c3		 ret	 0
?GetThisClass@CSkinButton@@SGPAUCRuntimeClass@@XZ ENDP	; CSkinButton::GetThisClass
_TEXT	ENDS
PUBLIC	?GetRuntimeClass@CSkinButton@@UBEPAUCRuntimeClass@@XZ ; CSkinButton::GetRuntimeClass
; Function compile flags: /Odt
_TEXT	SEGMENT
_this$ = -4						; size = 4
?GetRuntimeClass@CSkinButton@@UBEPAUCRuntimeClass@@XZ PROC NEAR ; CSkinButton::GetRuntimeClass
; _this$ = ecx

; 18   : IMPLEMENT_DYNAMIC(CSkinButton, CButton)

  00010	55		 push	 ebp
  00011	8b ec		 mov	 ebp, esp
  00013	51		 push	 ecx
  00014	89 4d fc	 mov	 DWORD PTR _this$[ebp], ecx
  00017	b8 00 00 00 00	 mov	 eax, OFFSET FLAT:?classCSkinButton@CSkinButton@@2UCRuntimeClass@@B ; CSkinButton::classCSkinButton
  0001c	8b e5		 mov	 esp, ebp
  0001e	5d		 pop	 ebp
  0001f	c3		 ret	 0
?GetRuntimeClass@CSkinButton@@UBEPAUCRuntimeClass@@XZ ENDP ; CSkinButton::GetRuntimeClass
_TEXT	ENDS
PUBLIC	??_R1A@?0A@A@CObject@@8				; CObject::`RTTI Base Class Descriptor at (0,-1,0,0)'
PUBLIC	??_R0?AVCObject@@@8				; CObject `RTTI Type Descriptor'
PUBLIC	??0CButton@@QAE@XZ				; CButton::CButton
PUBLIC	??_R1A@?0A@A@CWnd@@8				; CWnd::`RTTI Base Class Descriptor at (0,-1,0,0)'
PUBLIC	??_R0?AVCWnd@@@8				; CWnd `RTTI Type Descriptor'
PUBLIC	??_R1A@?0A@A@CCmdTarget@@8			; CCmdTarget::`RTTI Base Class Descriptor at (0,-1,0,0)'
PUBLIC	??_R0?AVCCmdTarget@@@8				; CCmdTarget `RTTI Type Descriptor'
PUBLIC	?Serialize@CObject@@UAEXAAVCArchive@@@Z		; CObject::Serialize
PUBLIC	?AssertValid@CObject@@UBEXXZ			; CObject::AssertValid
PUBLIC	?Dump@CObject@@UBEXAAVCDumpContext@@@Z		; CObject::Dump
PUBLIC	??_R1A@?0A@A@CButton@@8				; CButton::`RTTI Base Class Descriptor at (0,-1,0,0)'
PUBLIC	??_R0?AVCButton@@@8				; CButton `RTTI Type Descriptor'
PUBLIC	??0CButtonDraw@@QAE@XZ				; CButtonDraw::CButtonDraw
PUBLIC	??1CButtonDraw@@UAE@XZ				; CButtonDraw::~CButtonDraw
PUBLIC	??0CSkinButton@@QAE@XZ				; CSkinButton::CSkinButton
PUBLIC	?SetPngHoverSkin@CSkinButton@@UAEHV?$CStringT@DV?$StrTraitMFC_DLL@DV?$ChTraitsCRT@D@ATL@@@@@ATL@@@Z ; CSkinButton::SetPngHoverSkin
PUBLIC	?SetPngFrame@CSkinButton@@UAEHV?$CStringT@DV?$StrTraitMFC_DLL@DV?$ChTraitsCRT@D@ATL@@@@@ATL@@@Z ; CSkinButton::SetPngFrame
PUBLIC	?IsClickPng@CSkinButton@@UAEHXZ			; CSkinButton::IsClickPng
PUBLIC	?SetClickPng@CSkinButton@@UAEXH@Z		; CSkinButton::SetClickPng
PUBLIC	?DoDataExchange@CWnd@@MAEXPAVCDataExchange@@@Z	; CWnd::DoDataExchange
PUBLIC	?BeginModalState@CWnd@@UAEXXZ			; CWnd::BeginModalState
PUBLIC	?EndModalState@CWnd@@UAEXXZ			; CWnd::EndModalState
PUBLIC	?DrawItem@CSkinButton@@MAEXPAUtagDRAWITEMSTRUCT@@@Z ; CSkinButton::DrawItem
PUBLIC	?GetMessageMap@CSkinButton@@MBEPBUAFX_MSGMAP@@XZ ; CSkinButton::GetMessageMap
PUBLIC	??_7CSkinButton@@6B@				; CSkinButton::`vftable'
PUBLIC	??_GCSkinButton@@UAEPAXI@Z			; CSkinButton::`scalar deleting destructor'
PUBLIC	??_R4CSkinButton@@6B@				; CSkinButton::`RTTI Complete Object Locator'
PUBLIC	??_R0?AVCSkinButton@@@8				; CSkinButton `RTTI Type Descriptor'
PUBLIC	??_R3CSkinButton@@8				; CSkinButton::`RTTI Class Hierarchy Descriptor'
PUBLIC	??_R2CSkinButton@@8				; CSkinButton::`RTTI Base Class Array'
PUBLIC	??_R1A@?0A@A@CSkinButton@@8			; CSkinButton::`RTTI Base Class Descriptor at (0,-1,0,0)'
EXTRN	?CreateControlContainer@CWnd@@MAEHPAPAVCOleControlContainer@@@Z:NEAR ; CWnd::CreateControlContainer
EXTRN	?CreateControlSite@CWnd@@MAEHPAVCOleControlContainer@@PAPAVCOleControlSite@@IABU_GUID@@@Z:NEAR ; CWnd::CreateControlSite
EXTRN	?SetOccDialogInfo@CWnd@@MAEHPAU_AFX_OCC_DIALOG_INFO@@@Z:NEAR ; CWnd::SetOccDialogInfo
EXTRN	?OnToolHitTest@CWnd@@UBEHVCPoint@@PAUtagTOOLINFOA@@@Z:NEAR ; CWnd::OnToolHitTest
EXTRN	__imp_??0?$CStringT@DV?$StrTraitMFC_DLL@DV?$ChTraitsCRT@D@ATL@@@@@ATL@@QAE@XZ:NEAR
EXTRN	?GetScrollBarCtrl@CWnd@@UBEPAVCScrollBar@@H@Z:NEAR ; CWnd::GetScrollBarCtrl
EXTRN	__imp_??1?$CStringT@DV?$StrTraitMFC_DLL@DV?$ChTraitsCRT@D@ATL@@@@@ATL@@QAE@XZ:NEAR
EXTRN	?Create@CButton@@UAEHPBDKABUtagRECT@@PAVCWnd@@I@Z:NEAR ; CButton::Create
EXTRN	??1CButton@@UAE@XZ:NEAR				; CButton::~CButton
EXTRN	?OnChildNotify@CButton@@MAEHIIJPAJ@Z:NEAR	; CButton::OnChildNotify
EXTRN	?WinHelpA@CWnd@@UAEXKI@Z:NEAR			; CWnd::WinHelpA
EXTRN	?HtmlHelpA@CWnd@@UAEXKI@Z:NEAR			; CWnd::HtmlHelpA
EXTRN	?WinHelpInternal@CWnd@@UAEXKI@Z:NEAR		; CWnd::WinHelpInternal
EXTRN	?ContinueModal@CWnd@@UAEHXZ:NEAR		; CWnd::ContinueModal
EXTRN	?EndModalLoop@CWnd@@UAEXH@Z:NEAR		; CWnd::EndModalLoop
EXTRN	?GetInterfaceMap@CWnd@@MBEPBUAFX_INTERFACEMAP@@XZ:NEAR ; CWnd::GetInterfaceMap
EXTRN	?EnsureStdObj@CWnd@@UAEJXZ:NEAR			; CWnd::EnsureStdObj
EXTRN	?get_accParent@CWnd@@UAEJPAPAUIDispatch@@@Z:NEAR ; CWnd::get_accParent
EXTRN	?get_accChildCount@CWnd@@UAEJPAJ@Z:NEAR		; CWnd::get_accChildCount
EXTRN	?OnCmdMsg@CCmdTarget@@UAEHIHPAXPAUAFX_CMDHANDLERINFO@@@Z:NEAR ; CCmdTarget::OnCmdMsg
EXTRN	?get_accChild@CWnd@@UAEJUtagVARIANT@@PAPAUIDispatch@@@Z:NEAR ; CWnd::get_accChild
EXTRN	?IsInvokeAllowed@CCmdTarget@@UAEHJ@Z:NEAR	; CCmdTarget::IsInvokeAllowed
EXTRN	?get_accName@CWnd@@UAEJUtagVARIANT@@PAPA_W@Z:NEAR ; CWnd::get_accName
EXTRN	?get_accValue@CWnd@@UAEJUtagVARIANT@@PAPA_W@Z:NEAR ; CWnd::get_accValue
EXTRN	?get_accDescription@CWnd@@UAEJUtagVARIANT@@PAPA_W@Z:NEAR ; CWnd::get_accDescription
EXTRN	?GetDispatchIID@CCmdTarget@@UAEHPAU_GUID@@@Z:NEAR ; CCmdTarget::GetDispatchIID
EXTRN	?GetTypeInfoCount@CCmdTarget@@UAEIXZ:NEAR	; CCmdTarget::GetTypeInfoCount
EXTRN	?GetTypeLibCache@CCmdTarget@@UAEPAVCTypeLibCache@@XZ:NEAR ; CCmdTarget::GetTypeLibCache
EXTRN	?get_accRole@CWnd@@UAEJUtagVARIANT@@PAU2@@Z:NEAR ; CWnd::get_accRole
EXTRN	__except_list:DWORD
EXTRN	___CxxFrameHandler:NEAR
EXTRN	?GetTypeLib@CCmdTarget@@UAEJKPAPAUITypeLib@@@Z:NEAR ; CCmdTarget::GetTypeLib
EXTRN	?get_accState@CWnd@@UAEJUtagVARIANT@@PAU2@@Z:NEAR ; CWnd::get_accState
EXTRN	?get_accHelp@CWnd@@UAEJUtagVARIANT@@PAPA_W@Z:NEAR ; CWnd::get_accHelp
EXTRN	?get_accHelpTopic@CWnd@@UAEJPAPA_WUtagVARIANT@@PAJ@Z:NEAR ; CWnd::get_accHelpTopic
EXTRN	?get_accKeyboardShortcut@CWnd@@UAEJUtagVARIANT@@PAPA_W@Z:NEAR ; CWnd::get_accKeyboardShortcut
EXTRN	?get_accFocus@CWnd@@UAEJPAUtagVARIANT@@@Z:NEAR	; CWnd::get_accFocus
EXTRN	?get_accSelection@CWnd@@UAEJPAUtagVARIANT@@@Z:NEAR ; CWnd::get_accSelection
EXTRN	?get_accDefaultAction@CWnd@@UAEJUtagVARIANT@@PAPA_W@Z:NEAR ; CWnd::get_accDefaultAction
EXTRN	?GetCommandMap@CCmdTarget@@MBEPBUAFX_OLECMDMAP@@XZ:NEAR ; CCmdTarget::GetCommandMap
EXTRN	?accSelect@CWnd@@UAEJJUtagVARIANT@@@Z:NEAR	; CWnd::accSelect
EXTRN	?accLocation@CWnd@@UAEJPAJ000UtagVARIANT@@@Z:NEAR ; CWnd::accLocation
EXTRN	?GetDispatchMap@CCmdTarget@@MBEPBUAFX_DISPMAP@@XZ:NEAR ; CCmdTarget::GetDispatchMap
EXTRN	?accNavigate@CWnd@@UAEJJUtagVARIANT@@PAU2@@Z:NEAR ; CWnd::accNavigate
EXTRN	?accHitTest@CWnd@@UAEJJJPAUtagVARIANT@@@Z:NEAR	; CWnd::accHitTest
EXTRN	?GetConnectionMap@CCmdTarget@@MBEPBUAFX_CONNECTIONMAP@@XZ:NEAR ; CCmdTarget::GetConnectionMap
EXTRN	?accDoDefaultAction@CWnd@@UAEJUtagVARIANT@@@Z:NEAR ; CWnd::accDoDefaultAction
EXTRN	?put_accName@CWnd@@UAEJUtagVARIANT@@PA_W@Z:NEAR	; CWnd::put_accName
EXTRN	?put_accValue@CWnd@@UAEJUtagVARIANT@@PA_W@Z:NEAR ; CWnd::put_accValue
EXTRN	?SetProxy@CWnd@@UAEJPAUIAccessibleProxy@@@Z:NEAR ; CWnd::SetProxy
EXTRN	?CreateAccessibleProxy@CWnd@@UAEJIJPAJ@Z:NEAR	; CWnd::CreateAccessibleProxy
EXTRN	?GetEventSinkMap@CCmdTarget@@MBEPBUAFX_EVENTSINKMAP@@XZ:NEAR ; CCmdTarget::GetEventSinkMap
EXTRN	?OnCreateAggregates@CCmdTarget@@UAEHXZ:NEAR	; CCmdTarget::OnCreateAggregates
EXTRN	?OnCommand@CWnd@@MAEHIJ@Z:NEAR			; CWnd::OnCommand
EXTRN	?GetInterfaceHook@CCmdTarget@@UAEPAUIUnknown@@PBX@Z:NEAR ; CCmdTarget::GetInterfaceHook
EXTRN	?OnNotify@CWnd@@MAEHIJPAJ@Z:NEAR		; CWnd::OnNotify
EXTRN	?GetExtraConnectionPoints@CCmdTarget@@MAEHPAVCPtrArray@@@Z:NEAR ; CCmdTarget::GetExtraConnectionPoints
EXTRN	?GetConnectionHook@CCmdTarget@@MAEPAUIConnectionPoint@@ABU_GUID@@@Z:NEAR ; CCmdTarget::GetConnectionHook
EXTRN	?PreSubclassWindow@CWnd@@UAEXXZ:NEAR		; CWnd::PreSubclassWindow
EXTRN	??0CToolTipCtrl@@QAE@XZ:NEAR			; CToolTipCtrl::CToolTipCtrl
EXTRN	?Create@CWnd@@UAEHPBD0KABUtagRECT@@PAV1@IPAUCCreateContext@@@Z:NEAR ; CWnd::Create
EXTRN	__imp_??0?$basic_string@DU?$char_traits@D@std@@V?$allocator@D@2@@std@@QAE@XZ:NEAR
EXTRN	?CreateEx@CWnd@@UAEHKPBD0KHHHHPAUHWND__@@PAUHMENU__@@PAX@Z:NEAR ; CWnd::CreateEx
EXTRN	?CreateEx@CWnd@@UAEHKPBD0KABUtagRECT@@PAV1@IPAX@Z:NEAR ; CWnd::CreateEx
EXTRN	?DestroyWindow@CWnd@@UAEHXZ:NEAR		; CWnd::DestroyWindow
EXTRN	?PreCreateWindow@CWnd@@UAEHAAUtagCREATESTRUCTA@@@Z:NEAR ; CWnd::PreCreateWindow
EXTRN	?CalcWindowRect@CWnd@@UAEXPAUtagRECT@@I@Z:NEAR	; CWnd::CalcWindowRect
EXTRN	__imp_??1?$basic_string@DU?$char_traits@D@std@@V?$allocator@D@2@@std@@QAE@XZ:NEAR
EXTRN	__imp_??4?$basic_string@DU?$char_traits@D@std@@V?$allocator@D@2@@std@@QAEAAV01@PBD@Z:NEAR
EXTRN	??1CToolTipCtrl@@UAE@XZ:NEAR			; CToolTipCtrl::~CToolTipCtrl
EXTRN	?GetSuperWndProcAddr@CWnd@@MAEPAP6GJPAUHWND__@@IIJ@ZXZ:NEAR ; CWnd::GetSuperWndProcAddr
EXTRN	??_7type_info@@6B@:QWORD			; type_info::`vftable'
EXTRN	?PreTranslateMessage@CWnd@@UAEHPAUtagMSG@@@Z:NEAR ; CWnd::PreTranslateMessage
EXTRN	?OnAmbientProperty@CWnd@@UAEHPAVCOleControlSite@@JPAUtagVARIANT@@@Z:NEAR ; CWnd::OnAmbientProperty
EXTRN	?WindowProc@CWnd@@MAEJIIJ@Z:NEAR		; CWnd::WindowProc
EXTRN	?OnWndMsg@CWnd@@MAEHIIJPAJ@Z:NEAR		; CWnd::OnWndMsg
EXTRN	?DefWindowProcA@CWnd@@MAEJIIJ@Z:NEAR		; CWnd::DefWindowProcA
EXTRN	?PostNcDestroy@CWnd@@MAEXXZ:NEAR		; CWnd::PostNcDestroy
EXTRN	??_ECSkinButton@@UAEPAXI@Z:NEAR			; CSkinButton::`vector deleting destructor'
EXTRN	?CheckAutoCenter@CWnd@@UAEHXZ:NEAR		; CWnd::CheckAutoCenter
EXTRN	?IsFrameWnd@CWnd@@UBEHXZ:NEAR			; CWnd::IsFrameWnd
EXTRN	?OnFinalRelease@CWnd@@UAEXXZ:NEAR		; CWnd::OnFinalRelease
xdata$x	SEGMENT
$T199213 DD	0ffffffffH
	DD	FLAT:$L199201
	DD	00H
	DD	FLAT:$L199202
	DD	01H
	DD	FLAT:$L199203
	DD	02H
	DD	FLAT:$L199204
	DD	03H
	DD	FLAT:$L199205
	DD	04H
	DD	FLAT:$L199206
$T199210 DD	019930520H
	DD	06H
	DD	FLAT:$T199213
	DD	2 DUP(00H)
	DD	2 DUP(00H)
xdata$x	ENDS
;	COMDAT ??_7CSkinButton@@6B@
CONST	SEGMENT
??_7CSkinButton@@6B@ DD FLAT:??_R4CSkinButton@@6B@	; CSkinButton::`vftable'
	DD	FLAT:?GetRuntimeClass@CSkinButton@@UBEPAUCRuntimeClass@@XZ
	DD	FLAT:??_ECSkinButton@@UAEPAXI@Z
	DD	FLAT:?Serialize@CObject@@UAEXAAVCArchive@@@Z
	DD	FLAT:?AssertValid@CObject@@UBEXXZ
	DD	FLAT:?Dump@CObject@@UBEXAAVCDumpContext@@@Z
	DD	FLAT:?OnCmdMsg@CCmdTarget@@UAEHIHPAXPAUAFX_CMDHANDLERINFO@@@Z
	DD	FLAT:?OnFinalRelease@CWnd@@UAEXXZ
	DD	FLAT:?IsInvokeAllowed@CCmdTarget@@UAEHJ@Z
	DD	FLAT:?GetDispatchIID@CCmdTarget@@UAEHPAU_GUID@@@Z
	DD	FLAT:?GetTypeInfoCount@CCmdTarget@@UAEIXZ
	DD	FLAT:?GetTypeLibCache@CCmdTarget@@UAEPAVCTypeLibCache@@XZ
	DD	FLAT:?GetTypeLib@CCmdTarget@@UAEJKPAPAUITypeLib@@@Z
	DD	FLAT:?GetMessageMap@CSkinButton@@MBEPBUAFX_MSGMAP@@XZ
	DD	FLAT:?GetCommandMap@CCmdTarget@@MBEPBUAFX_OLECMDMAP@@XZ
	DD	FLAT:?GetDispatchMap@CCmdTarget@@MBEPBUAFX_DISPMAP@@XZ
	DD	FLAT:?GetConnectionMap@CCmdTarget@@MBEPBUAFX_CONNECTIONMAP@@XZ
	DD	FLAT:?GetInterfaceMap@CWnd@@MBEPBUAFX_INTERFACEMAP@@XZ
	DD	FLAT:?GetEventSinkMap@CCmdTarget@@MBEPBUAFX_EVENTSINKMAP@@XZ
	DD	FLAT:?OnCreateAggregates@CCmdTarget@@UAEHXZ
	DD	FLAT:?GetInterfaceHook@CCmdTarget@@UAEPAUIUnknown@@PBX@Z
	DD	FLAT:?GetExtraConnectionPoints@CCmdTarget@@MAEHPAVCPtrArray@@@Z
	DD	FLAT:?GetConnectionHook@CCmdTarget@@MAEPAUIConnectionPoint@@ABU_GUID@@@Z
	DD	FLAT:?PreSubclassWindow@CWnd@@UAEXXZ
	DD	FLAT:?Create@CWnd@@UAEHPBD0KABUtagRECT@@PAV1@IPAUCCreateContext@@@Z
	DD	FLAT:?CreateEx@CWnd@@UAEHKPBD0KABUtagRECT@@PAV1@IPAX@Z
	DD	FLAT:?CreateEx@CWnd@@UAEHKPBD0KHHHHPAUHWND__@@PAUHMENU__@@PAX@Z
	DD	FLAT:?DestroyWindow@CWnd@@UAEHXZ
	DD	FLAT:?PreCreateWindow@CWnd@@UAEHAAUtagCREATESTRUCTA@@@Z
	DD	FLAT:?CalcWindowRect@CWnd@@UAEXPAUtagRECT@@I@Z
	DD	FLAT:?OnToolHitTest@CWnd@@UBEHVCPoint@@PAUtagTOOLINFOA@@@Z
	DD	FLAT:?GetScrollBarCtrl@CWnd@@UBEPAVCScrollBar@@H@Z
	DD	FLAT:?WinHelpA@CWnd@@UAEXKI@Z
	DD	FLAT:?HtmlHelpA@CWnd@@UAEXKI@Z
	DD	FLAT:?WinHelpInternal@CWnd@@UAEXKI@Z
	DD	FLAT:?ContinueModal@CWnd@@UAEHXZ
	DD	FLAT:?EndModalLoop@CWnd@@UAEXH@Z
	DD	FLAT:?EnsureStdObj@CWnd@@UAEJXZ
	DD	FLAT:?get_accParent@CWnd@@UAEJPAPAUIDispatch@@@Z
	DD	FLAT:?get_accChildCount@CWnd@@UAEJPAJ@Z
	DD	FLAT:?get_accChild@CWnd@@UAEJUtagVARIANT@@PAPAUIDispatch@@@Z
	DD	FLAT:?get_accName@CWnd@@UAEJUtagVARIANT@@PAPA_W@Z
	DD	FLAT:?get_accValue@CWnd@@UAEJUtagVARIANT@@PAPA_W@Z
	DD	FLAT:?get_accDescription@CWnd@@UAEJUtagVARIANT@@PAPA_W@Z
	DD	FLAT:?get_accRole@CWnd@@UAEJUtagVARIANT@@PAU2@@Z
	DD	FLAT:?get_accState@CWnd@@UAEJUtagVARIANT@@PAU2@@Z
	DD	FLAT:?get_accHelp@CWnd@@UAEJUtagVARIANT@@PAPA_W@Z
	DD	FLAT:?get_accHelpTopic@CWnd@@UAEJPAPA_WUtagVARIANT@@PAJ@Z
	DD	FLAT:?get_accKeyboardShortcut@CWnd@@UAEJUtagVARIANT@@PAPA_W@Z
	DD	FLAT:?get_accFocus@CWnd@@UAEJPAUtagVARIANT@@@Z
	DD	FLAT:?get_accSelection@CWnd@@UAEJPAUtagVARIANT@@@Z
	DD	FLAT:?get_accDefaultAction@CWnd@@UAEJUtagVARIANT@@PAPA_W@Z
	DD	FLAT:?accSelect@CWnd@@UAEJJUtagVARIANT@@@Z
	DD	FLAT:?accLocation@CWnd@@UAEJPAJ000UtagVARIANT@@@Z
	DD	FLAT:?accNavigate@CWnd@@UAEJJUtagVARIANT@@PAU2@@Z
	DD	FLAT:?accHitTest@CWnd@@UAEJJJPAUtagVARIANT@@@Z
	DD	FLAT:?accDoDefaultAction@CWnd@@UAEJUtagVARIANT@@@Z
	DD	FLAT:?put_accName@CWnd@@UAEJUtagVARIANT@@PA_W@Z
	DD	FLAT:?put_accValue@CWnd@@UAEJUtagVARIANT@@PA_W@Z
	DD	FLAT:?SetProxy@CWnd@@UAEJPAUIAccessibleProxy@@@Z
	DD	FLAT:?CreateAccessibleProxy@CWnd@@UAEJIJPAJ@Z
	DD	FLAT:?OnCommand@CWnd@@MAEHIJ@Z
	DD	FLAT:?OnNotify@CWnd@@MAEHIJPAJ@Z
	DD	FLAT:?GetSuperWndProcAddr@CWnd@@MAEPAP6GJPAUHWND__@@IIJ@ZXZ
	DD	FLAT:?DoDataExchange@CWnd@@MAEXPAVCDataExchange@@@Z
	DD	FLAT:?BeginModalState@CWnd@@UAEXXZ
	DD	FLAT:?EndModalState@CWnd@@UAEXXZ
	DD	FLAT:?PreTranslateMessage@CWnd@@UAEHPAUtagMSG@@@Z
	DD	FLAT:?OnAmbientProperty@CWnd@@UAEHPAVCOleControlSite@@JPAUtagVARIANT@@@Z
	DD	FLAT:?WindowProc@CWnd@@MAEJIIJ@Z
	DD	FLAT:?OnWndMsg@CWnd@@MAEHIIJPAJ@Z
	DD	FLAT:?DefWindowProcA@CWnd@@MAEJIIJ@Z
	DD	FLAT:?PostNcDestroy@CWnd@@MAEXXZ
	DD	FLAT:?OnChildNotify@CButton@@MAEHIIJPAJ@Z
	DD	FLAT:?CheckAutoCenter@CWnd@@UAEHXZ
	DD	FLAT:?IsFrameWnd@CWnd@@UBEHXZ
	DD	FLAT:?CreateControlContainer@CWnd@@MAEHPAPAVCOleControlContainer@@@Z
	DD	FLAT:?CreateControlSite@CWnd@@MAEHPAVCOleControlContainer@@PAPAVCOleControlSite@@IABU_GUID@@@Z
	DD	FLAT:?SetOccDialogInfo@CWnd@@MAEHPAU_AFX_OCC_DIALOG_INFO@@@Z
	DD	FLAT:?Create@CButton@@UAEHPBDKABUtagRECT@@PAVCWnd@@I@Z
	DD	FLAT:?DrawItem@CSkinButton@@MAEXPAUtagDRAWITEMSTRUCT@@@Z
	DD	FLAT:?SetPngHoverSkin@CSkinButton@@UAEHV?$CStringT@DV?$StrTraitMFC_DLL@DV?$ChTraitsCRT@D@ATL@@@@@ATL@@@Z
	DD	FLAT:?SetPngFrame@CSkinButton@@UAEHV?$CStringT@DV?$StrTraitMFC_DLL@DV?$ChTraitsCRT@D@ATL@@@@@ATL@@@Z
	DD	FLAT:?IsClickPng@CSkinButton@@UAEHXZ
	DD	FLAT:?SetClickPng@CSkinButton@@UAEXH@Z
CONST	ENDS
;	COMDAT ??_R4CSkinButton@@6B@
rdata$r	SEGMENT
??_R4CSkinButton@@6B@ DD 00H				; CSkinButton::`RTTI Complete Object Locator'
	DD	00H
	DD	00H
	DD	FLAT:??_R0?AVCSkinButton@@@8
	DD	FLAT:??_R3CSkinButton@@8
rdata$r	ENDS
;	COMDAT ??_R0?AVCSkinButton@@@8
_DATA	SEGMENT
??_R0?AVCSkinButton@@@8 DD FLAT:??_7type_info@@6B@	; CSkinButton `RTTI Type Descriptor'
	DD	00H
	DB	'.?AVCSkinButton@@', 00H
_DATA	ENDS
;	COMDAT ??_R3CSkinButton@@8
rdata$r	SEGMENT
??_R3CSkinButton@@8 DD 00H				; CSkinButton::`RTTI Class Hierarchy Descriptor'
	DD	00H
	DD	05H
	DD	FLAT:??_R2CSkinButton@@8
rdata$r	ENDS
;	COMDAT ??_R2CSkinButton@@8
rdata$r	SEGMENT
??_R2CSkinButton@@8 DD FLAT:??_R1A@?0A@A@CSkinButton@@8	; CSkinButton::`RTTI Base Class Array'
	DD	FLAT:??_R1A@?0A@A@CButton@@8
	DD	FLAT:??_R1A@?0A@A@CWnd@@8
	DD	FLAT:??_R1A@?0A@A@CCmdTarget@@8
	DD	FLAT:??_R1A@?0A@A@CObject@@8
rdata$r	ENDS
;	COMDAT ??_R1A@?0A@A@CSkinButton@@8
rdata$r	SEGMENT
??_R1A@?0A@A@CSkinButton@@8 DD FLAT:??_R0?AVCSkinButton@@@8 ; CSkinButton::`RTTI Base Class Descriptor at (0,-1,0,0)'
	DD	04H
	DD	00H
	DD	0ffffffffH
	DD	00H
	DD	00H
rdata$r	ENDS
;	COMDAT ??_R1A@?0A@A@CButton@@8
rdata$r	SEGMENT
??_R1A@?0A@A@CButton@@8 DD FLAT:??_R0?AVCButton@@@8	; CButton::`RTTI Base Class Descriptor at (0,-1,0,0)'
	DD	03H
	DD	00H
	DD	0ffffffffH
	DD	00H
	DD	00H
rdata$r	ENDS
;	COMDAT ??_R0?AVCButton@@@8
_DATA	SEGMENT
??_R0?AVCButton@@@8 DD FLAT:??_7type_info@@6B@		; CButton `RTTI Type Descriptor'
	DD	00H
	DB	'.?AVCButton@@', 00H
_DATA	ENDS
;	COMDAT ??_R1A@?0A@A@CWnd@@8
rdata$r	SEGMENT
??_R1A@?0A@A@CWnd@@8 DD FLAT:??_R0?AVCWnd@@@8		; CWnd::`RTTI Base Class Descriptor at (0,-1,0,0)'
	DD	02H
	DD	00H
	DD	0ffffffffH
	DD	00H
	DD	00H
rdata$r	ENDS
;	COMDAT ??_R0?AVCWnd@@@8
_DATA	SEGMENT
??_R0?AVCWnd@@@8 DD FLAT:??_7type_info@@6B@		; CWnd `RTTI Type Descriptor'
	DD	00H
	DB	'.?AVCWnd@@', 00H
_DATA	ENDS
;	COMDAT ??_R1A@?0A@A@CCmdTarget@@8
rdata$r	SEGMENT
??_R1A@?0A@A@CCmdTarget@@8 DD FLAT:??_R0?AVCCmdTarget@@@8 ; CCmdTarget::`RTTI Base Class Descriptor at (0,-1,0,0)'
	DD	01H
	DD	00H
	DD	0ffffffffH
	DD	00H
	DD	00H
rdata$r	ENDS
;	COMDAT ??_R0?AVCCmdTarget@@@8
_DATA	SEGMENT
??_R0?AVCCmdTarget@@@8 DD FLAT:??_7type_info@@6B@	; CCmdTarget `RTTI Type Descriptor'
	DD	00H
	DB	'.?AVCCmdTarget@@', 00H
_DATA	ENDS
;	COMDAT ??_R1A@?0A@A@CObject@@8
rdata$r	SEGMENT
??_R1A@?0A@A@CObject@@8 DD FLAT:??_R0?AVCObject@@@8	; CObject::`RTTI Base Class Descriptor at (0,-1,0,0)'
	DD	00H
	DD	00H
	DD	0ffffffffH
	DD	00H
	DD	00H
rdata$r	ENDS
;	COMDAT ??_R0?AVCObject@@@8
_DATA	SEGMENT
??_R0?AVCObject@@@8 DD FLAT:??_7type_info@@6B@		; CObject `RTTI Type Descriptor'
	DD	00H
	DB	'.?AVCObject@@', 00H
; Function compile flags: /Odt
_DATA	ENDS
_TEXT	SEGMENT
_this$ = -16						; size = 4
__$EHRec$ = -12						; size = 12
??0CSkinButton@@QAE@XZ PROC NEAR			; CSkinButton::CSkinButton
; _this$ = ecx

; 21   : {

  00020	55		 push	 ebp
  00021	8b ec		 mov	 ebp, esp
  00023	6a ff		 push	 -1
  00025	68 00 00 00 00	 push	 __ehhandler$??0CSkinButton@@QAE@XZ
  0002a	64 a1 00 00 00
	00		 mov	 eax, DWORD PTR fs:__except_list
  00030	50		 push	 eax
  00031	64 89 25 00 00
	00 00		 mov	 DWORD PTR fs:__except_list, esp
  00038	51		 push	 ecx
  00039	89 4d f0	 mov	 DWORD PTR _this$[ebp], ecx
  0003c	8b 4d f0	 mov	 ecx, DWORD PTR _this$[ebp]
  0003f	e8 00 00 00 00	 call	 ??0CButton@@QAE@XZ	; CButton::CButton
  00044	c7 45 fc 00 00
	00 00		 mov	 DWORD PTR __$EHRec$[ebp+8], 0
  0004b	8b 45 f0	 mov	 eax, DWORD PTR _this$[ebp]
  0004e	c7 00 00 00 00
	00		 mov	 DWORD PTR [eax], OFFSET FLAT:??_7CSkinButton@@6B@
  00054	8b 4d f0	 mov	 ecx, DWORD PTR _this$[ebp]
  00057	83 c1 58	 add	 ecx, 88			; 00000058H
  0005a	e8 00 00 00 00	 call	 ??0CButtonDraw@@QAE@XZ	; CButtonDraw::CButtonDraw
  0005f	c6 45 fc 01	 mov	 BYTE PTR __$EHRec$[ebp+8], 1
  00063	8b 4d f0	 mov	 ecx, DWORD PTR _this$[ebp]
  00066	83 c1 70	 add	 ecx, 112		; 00000070H
  00069	e8 00 00 00 00	 call	 ??0CToolTipCtrl@@QAE@XZ	; CToolTipCtrl::CToolTipCtrl
  0006e	c6 45 fc 02	 mov	 BYTE PTR __$EHRec$[ebp+8], 2
  00072	8b 4d f0	 mov	 ecx, DWORD PTR _this$[ebp]
  00075	81 c1 e0 00 00
	00		 add	 ecx, 224		; 000000e0H
  0007b	ff 15 00 00 00
	00		 call	 DWORD PTR __imp_??0?$CStringT@DV?$StrTraitMFC_DLL@DV?$ChTraitsCRT@D@ATL@@@@@ATL@@QAE@XZ
  00081	c6 45 fc 03	 mov	 BYTE PTR __$EHRec$[ebp+8], 3
  00085	8b 4d f0	 mov	 ecx, DWORD PTR _this$[ebp]
  00088	81 c1 fc 00 00
	00		 add	 ecx, 252		; 000000fcH
  0008e	ff 15 00 00 00
	00		 call	 DWORD PTR __imp_??0?$basic_string@DU?$char_traits@D@std@@V?$allocator@D@2@@std@@QAE@XZ
  00094	c6 45 fc 04	 mov	 BYTE PTR __$EHRec$[ebp+8], 4
  00098	8b 4d f0	 mov	 ecx, DWORD PTR _this$[ebp]
  0009b	81 c1 18 01 00
	00		 add	 ecx, 280		; 00000118H
  000a1	ff 15 00 00 00
	00		 call	 DWORD PTR __imp_??0?$CStringT@DV?$StrTraitMFC_DLL@DV?$ChTraitsCRT@D@ATL@@@@@ATL@@QAE@XZ
  000a7	c6 45 fc 05	 mov	 BYTE PTR __$EHRec$[ebp+8], 5

; 22   : 	m_BitMap = NULL;

  000ab	8b 4d f0	 mov	 ecx, DWORD PTR _this$[ebp]
  000ae	c7 41 6c 00 00
	00 00		 mov	 DWORD PTR [ecx+108], 0

; 23   : 	mbMouseOnButton = false;

  000b5	8b 55 f0	 mov	 edx, DWORD PTR _this$[ebp]
  000b8	c7 82 f8 00 00
	00 00 00 00 00	 mov	 DWORD PTR [edx+248], 0

; 24   : 	m_bottonType =    0;

  000c2	8b 45 f0	 mov	 eax, DWORD PTR _this$[ebp]
  000c5	c7 80 24 01 00
	00 00 00 00 00	 mov	 DWORD PTR [eax+292], 0

; 25   : 	m_pbtnEventListerner = 0;

  000cf	8b 4d f0	 mov	 ecx, DWORD PTR _this$[ebp]
  000d2	c7 81 2c 01 00
	00 00 00 00 00	 mov	 DWORD PTR [ecx+300], 0

; 26   : 	//m_SkinBitMapIndex = "";
; 27   : 	this->m_strSkinPath = "";

  000dc	68 00 00 00 00	 push	 OFFSET FLAT:$SG198033
  000e1	8b 4d f0	 mov	 ecx, DWORD PTR _this$[ebp]
  000e4	81 c1 fc 00 00
	00		 add	 ecx, 252		; 000000fcH
  000ea	ff 15 00 00 00
	00		 call	 DWORD PTR __imp_??4?$basic_string@DU?$char_traits@D@std@@V?$allocator@D@2@@std@@QAEAAV01@PBD@Z

; 28   : 	m_bshowTip = true;

  000f0	8b 55 f0	 mov	 edx, DWORD PTR _this$[ebp]
  000f3	c6 82 f1 00 00
	00 01		 mov	 BYTE PTR [edx+241], 1

; 29   : 	m_pPngImage = NULL;

  000fa	8b 45 f0	 mov	 eax, DWORD PTR _this$[ebp]
  000fd	c7 80 28 01 00
	00 00 00 00 00	 mov	 DWORD PTR [eax+296], 0

; 30   : 	m_bSelected = false;

  00107	8b 4d f0	 mov	 ecx, DWORD PTR _this$[ebp]
  0010a	c6 81 f0 00 00
	00 00		 mov	 BYTE PTR [ecx+240], 0

; 31   : 	m_bEraseBK = false;

  00111	8b 55 f0	 mov	 edx, DWORD PTR _this$[ebp]
  00114	c6 42 54 00	 mov	 BYTE PTR [edx+84], 0

; 32   : }

  00118	c7 45 fc ff ff
	ff ff		 mov	 DWORD PTR __$EHRec$[ebp+8], -1
  0011f	8b 45 f0	 mov	 eax, DWORD PTR _this$[ebp]
  00122	8b 4d f4	 mov	 ecx, DWORD PTR __$EHRec$[ebp]
  00125	64 89 0d 00 00
	00 00		 mov	 DWORD PTR fs:__except_list, ecx
  0012c	8b e5		 mov	 esp, ebp
  0012e	5d		 pop	 ebp
  0012f	c3		 ret	 0
_TEXT	ENDS
text$x	SEGMENT
$L199201:
  00000	8b 4d f0	 mov	 ecx, DWORD PTR _this$[ebp]
  00003	e9 00 00 00 00	 jmp	 ??1CButton@@UAE@XZ	; CButton::~CButton
$L199202:
  00008	8b 4d f0	 mov	 ecx, DWORD PTR _this$[ebp]
  0000b	83 c1 58	 add	 ecx, 88			; 00000058H
  0000e	e9 00 00 00 00	 jmp	 ??1CButtonDraw@@UAE@XZ	; CButtonDraw::~CButtonDraw
$L199203:
  00013	8b 4d f0	 mov	 ecx, DWORD PTR _this$[ebp]
  00016	83 c1 70	 add	 ecx, 112		; 00000070H
  00019	e9 00 00 00 00	 jmp	 ??1CToolTipCtrl@@UAE@XZ	; CToolTipCtrl::~CToolTipCtrl
$L199204:
  0001e	8b 4d f0	 mov	 ecx, DWORD PTR _this$[ebp]
  00021	81 c1 e0 00 00
	00		 add	 ecx, 224		; 000000e0H
  00027	ff 25 00 00 00
	00		 jmp	 DWORD PTR __imp_??1?$CStringT@DV?$StrTraitMFC_DLL@DV?$ChTraitsCRT@D@ATL@@@@@ATL@@QAE@XZ
$L199205:
  0002d	8b 4d f0	 mov	 ecx, DWORD PTR _this$[ebp]
  00030	81 c1 fc 00 00
	00		 add	 ecx, 252		; 000000fcH
  00036	ff 25 00 00 00
	00		 jmp	 DWORD PTR __imp_??1?$basic_string@DU?$char_traits@D@std@@V?$allocator@D@2@@std@@QAE@XZ
$L199206:
  0003c	8b 4d f0	 mov	 ecx, DWORD PTR _this$[ebp]
  0003f	81 c1 18 01 00
	00		 add	 ecx, 280		; 00000118H
  00045	ff 25 00 00 00
	00		 jmp	 DWORD PTR __imp_??1?$CStringT@DV?$StrTraitMFC_DLL@DV?$ChTraitsCRT@D@ATL@@@@@ATL@@QAE@XZ
__ehhandler$??0CSkinButton@@QAE@XZ:
  0004b	b8 00 00 00 00	 mov	 eax, OFFSET FLAT:$T199210
  00050	e9 00 00 00 00	 jmp	 ___CxxFrameHandler
text$x	ENDS
??0CSkinButton@@QAE@XZ ENDP				; CSkinButton::CSkinButton
; Function compile flags: /Odt
; File d:\boxgit\playbox\playbox\dev\prj\playbox\src\layoutmgr\changecolor\skinbotton.h
;	COMDAT ?SetPngHoverSkin@CSkinButton@@UAEHV?$CStringT@DV?$StrTraitMFC_DLL@DV?$ChTraitsCRT@D@ATL@@@@@ATL@@@Z
_TEXT	SEGMENT
_this$ = -8						; size = 4
$T199216 = -4						; size = 4
_str$ = 8						; size = 4
?SetPngHoverSkin@CSkinButton@@UAEHV?$CStringT@DV?$StrTraitMFC_DLL@DV?$ChTraitsCRT@D@ATL@@@@@ATL@@@Z PROC NEAR ; CSkinButton::SetPngHoverSkin, COMDAT
; _this$ = ecx

; 122  : 	virtual BOOL SetPngHoverSkin(CString str){return TRUE;}

  00000	55		 push	 ebp
  00001	8b ec		 mov	 ebp, esp
  00003	83 ec 08	 sub	 esp, 8
  00006	89 4d f8	 mov	 DWORD PTR _this$[ebp], ecx
  00009	c7 45 fc 01 00
	00 00		 mov	 DWORD PTR $T199216[ebp], 1
  00010	8d 4d 08	 lea	 ecx, DWORD PTR _str$[ebp]
  00013	ff 15 00 00 00
	00		 call	 DWORD PTR __imp_??1?$CStringT@DV?$StrTraitMFC_DLL@DV?$ChTraitsCRT@D@ATL@@@@@ATL@@QAE@XZ
  00019	8b 45 fc	 mov	 eax, DWORD PTR $T199216[ebp]
  0001c	8b e5		 mov	 esp, ebp
  0001e	5d		 pop	 ebp
  0001f	c2 04 00	 ret	 4
?SetPngHoverSkin@CSkinButton@@UAEHV?$CStringT@DV?$StrTraitMFC_DLL@DV?$ChTraitsCRT@D@ATL@@@@@ATL@@@Z ENDP ; CSkinButton::SetPngHoverSkin
; Function compile flags: /Odt
_TEXT	ENDS
;	COMDAT ?SetPngFrame@CSkinButton@@UAEHV?$CStringT@DV?$StrTraitMFC_DLL@DV?$ChTraitsCRT@D@ATL@@@@@ATL@@@Z
_TEXT	SEGMENT
_this$ = -8						; size = 4
$T199220 = -4						; size = 4
_str$ = 8						; size = 4
?SetPngFrame@CSkinButton@@UAEHV?$CStringT@DV?$StrTraitMFC_DLL@DV?$ChTraitsCRT@D@ATL@@@@@ATL@@@Z PROC NEAR ; CSkinButton::SetPngFrame, COMDAT
; _this$ = ecx

; 123  : 	virtual BOOL SetPngFrame(CString str){return TRUE;}

  00000	55		 push	 ebp
  00001	8b ec		 mov	 ebp, esp
  00003	83 ec 08	 sub	 esp, 8
  00006	89 4d f8	 mov	 DWORD PTR _this$[ebp], ecx
  00009	c7 45 fc 01 00
	00 00		 mov	 DWORD PTR $T199220[ebp], 1
  00010	8d 4d 08	 lea	 ecx, DWORD PTR _str$[ebp]
  00013	ff 15 00 00 00
	00		 call	 DWORD PTR __imp_??1?$CStringT@DV?$StrTraitMFC_DLL@DV?$ChTraitsCRT@D@ATL@@@@@ATL@@QAE@XZ
  00019	8b 45 fc	 mov	 eax, DWORD PTR $T199220[ebp]
  0001c	8b e5		 mov	 esp, ebp
  0001e	5d		 pop	 ebp
  0001f	c2 04 00	 ret	 4
?SetPngFrame@CSkinButton@@UAEHV?$CStringT@DV?$StrTraitMFC_DLL@DV?$ChTraitsCRT@D@ATL@@@@@ATL@@@Z ENDP ; CSkinButton::SetPngFrame
; Function compile flags: /Odt
_TEXT	ENDS
;	COMDAT ?IsClickPng@CSkinButton@@UAEHXZ
_TEXT	SEGMENT
_this$ = -4						; size = 4
?IsClickPng@CSkinButton@@UAEHXZ PROC NEAR		; CSkinButton::IsClickPng, COMDAT
; _this$ = ecx

; 124  : 	virtual BOOL IsClickPng(){return FALSE;}

  00000	55		 push	 ebp
  00001	8b ec		 mov	 ebp, esp
  00003	51		 push	 ecx
  00004	89 4d fc	 mov	 DWORD PTR _this$[ebp], ecx
  00007	33 c0		 xor	 eax, eax
  00009	8b e5		 mov	 esp, ebp
  0000b	5d		 pop	 ebp
  0000c	c3		 ret	 0
?IsClickPng@CSkinButton@@UAEHXZ ENDP			; CSkinButton::IsClickPng
; Function compile flags: /Odt
_TEXT	ENDS
;	COMDAT ?SetClickPng@CSkinButton@@UAEXH@Z
_TEXT	SEGMENT
_this$ = -4						; size = 4
_bclick$ = 8						; size = 4
?SetClickPng@CSkinButton@@UAEXH@Z PROC NEAR		; CSkinButton::SetClickPng, COMDAT
; _this$ = ecx

; 125  : 	virtual void SetClickPng(BOOL bclick){}

  00000	55		 push	 ebp
  00001	8b ec		 mov	 ebp, esp
  00003	51		 push	 ecx
  00004	89 4d fc	 mov	 DWORD PTR _this$[ebp], ecx
  00007	8b e5		 mov	 esp, ebp
  00009	5d		 pop	 ebp
  0000a	c2 04 00	 ret	 4
?SetClickPng@CSkinButton@@UAEXH@Z ENDP			; CSkinButton::SetClickPng
_TEXT	ENDS
PUBLIC	??3CObject@@SGXPAX@Z				; CObject::operator delete
PUBLIC	??1CSkinButton@@UAE@XZ				; CSkinButton::~CSkinButton
; Function compile flags: /Odt
;	COMDAT ??_GCSkinButton@@UAEPAXI@Z
_TEXT	SEGMENT
_this$ = -4						; size = 4
___flags$ = 8						; size = 4
??_GCSkinButton@@UAEPAXI@Z PROC NEAR			; CSkinButton::`scalar deleting destructor', COMDAT
; _this$ = ecx
  00000	55		 push	 ebp
  00001	8b ec		 mov	 ebp, esp
  00003	51		 push	 ecx
  00004	89 4d fc	 mov	 DWORD PTR _this$[ebp], ecx
  00007	8b 4d fc	 mov	 ecx, DWORD PTR _this$[ebp]
  0000a	e8 00 00 00 00	 call	 ??1CSkinButton@@UAE@XZ	; CSkinButton::~CSkinButton
  0000f	8b 45 08	 mov	 eax, DWORD PTR ___flags$[ebp]
  00012	83 e0 01	 and	 eax, 1
  00015	74 09		 je	 SHORT $L198037
  00017	8b 4d fc	 mov	 ecx, DWORD PTR _this$[ebp]
  0001a	51		 push	 ecx
  0001b	e8 00 00 00 00	 call	 ??3CObject@@SGXPAX@Z	; CObject::operator delete
$L198037:
  00020	8b 45 fc	 mov	 eax, DWORD PTR _this$[ebp]
  00023	8b e5		 mov	 esp, ebp
  00025	5d		 pop	 ebp
  00026	c2 04 00	 ret	 4
??_GCSkinButton@@UAEPAXI@Z ENDP				; CSkinButton::`scalar deleting destructor'
_TEXT	ENDS
xdata$x	SEGMENT
$T199243 DD	0ffffffffH
	DD	FLAT:$L199234
	DD	00H
	DD	FLAT:$L199235
	DD	01H
	DD	FLAT:$L199236
	DD	02H
	DD	FLAT:$L199237
	DD	03H
	DD	FLAT:$L199238
	DD	04H
	DD	FLAT:$L199239
$T199241 DD	019930520H
	DD	06H
	DD	FLAT:$T199243
	DD	2 DUP(00H)
	DD	2 DUP(00H)
; Function compile flags: /Odt
; File d:\boxgit\playbox\playbox\dev\prj\playbox\src\layoutmgr\changecolor\skinbotton.cpp
xdata$x	ENDS
_TEXT	SEGMENT
tv94 = -28						; size = 4
_this$ = -24						; size = 4
$T199231 = -20						; size = 4
$T199230 = -16						; size = 4
__$EHRec$ = -12						; size = 12
??1CSkinButton@@UAE@XZ PROC NEAR			; CSkinButton::~CSkinButton
; _this$ = ecx

; 35   : {

  00130	55		 push	 ebp
  00131	8b ec		 mov	 ebp, esp
  00133	6a ff		 push	 -1
  00135	68 00 00 00 00	 push	 __ehhandler$??1CSkinButton@@UAE@XZ
  0013a	64 a1 00 00 00
	00		 mov	 eax, DWORD PTR fs:__except_list
  00140	50		 push	 eax
  00141	64 89 25 00 00
	00 00		 mov	 DWORD PTR fs:__except_list, esp
  00148	83 ec 10	 sub	 esp, 16			; 00000010H
  0014b	89 4d e8	 mov	 DWORD PTR _this$[ebp], ecx
  0014e	8b 45 e8	 mov	 eax, DWORD PTR _this$[ebp]
  00151	c7 00 00 00 00
	00		 mov	 DWORD PTR [eax], OFFSET FLAT:??_7CSkinButton@@6B@
  00157	c7 45 fc 05 00
	00 00		 mov	 DWORD PTR __$EHRec$[ebp+8], 5

; 36   : 	if(m_pPngImage) delete m_pPngImage;

  0015e	8b 4d e8	 mov	 ecx, DWORD PTR _this$[ebp]
  00161	83 b9 28 01 00
	00 00		 cmp	 DWORD PTR [ecx+296], 0
  00168	74 30		 je	 SHORT $L198040
  0016a	8b 55 e8	 mov	 edx, DWORD PTR _this$[ebp]
  0016d	8b 82 28 01 00
	00		 mov	 eax, DWORD PTR [edx+296]
  00173	89 45 ec	 mov	 DWORD PTR $T199231[ebp], eax
  00176	8b 4d ec	 mov	 ecx, DWORD PTR $T199231[ebp]
  00179	89 4d f0	 mov	 DWORD PTR $T199230[ebp], ecx
  0017c	83 7d f0 00	 cmp	 DWORD PTR $T199230[ebp], 0
  00180	74 11		 je	 SHORT $L199232
  00182	6a 01		 push	 1
  00184	8b 55 f0	 mov	 edx, DWORD PTR $T199230[ebp]
  00187	8b 02		 mov	 eax, DWORD PTR [edx]
  00189	8b 4d f0	 mov	 ecx, DWORD PTR $T199230[ebp]
  0018c	ff 10		 call	 DWORD PTR [eax]
  0018e	89 45 e4	 mov	 DWORD PTR tv94[ebp], eax
  00191	eb 07		 jmp	 SHORT $L198040
$L199232:
  00193	c7 45 e4 00 00
	00 00		 mov	 DWORD PTR tv94[ebp], 0
$L198040:

; 37   : }

  0019a	c6 45 fc 04	 mov	 BYTE PTR __$EHRec$[ebp+8], 4
  0019e	8b 4d e8	 mov	 ecx, DWORD PTR _this$[ebp]
  001a1	81 c1 18 01 00
	00		 add	 ecx, 280		; 00000118H
  001a7	ff 15 00 00 00
	00		 call	 DWORD PTR __imp_??1?$CStringT@DV?$StrTraitMFC_DLL@DV?$ChTraitsCRT@D@ATL@@@@@ATL@@QAE@XZ
  001ad	c6 45 fc 03	 mov	 BYTE PTR __$EHRec$[ebp+8], 3
  001b1	8b 4d e8	 mov	 ecx, DWORD PTR _this$[ebp]
  001b4	81 c1 fc 00 00
	00		 add	 ecx, 252		; 000000fcH
  001ba	ff 15 00 00 00
	00		 call	 DWORD PTR __imp_??1?$basic_string@DU?$char_traits@D@std@@V?$allocator@D@2@@std@@QAE@XZ
  001c0	c6 45 fc 02	 mov	 BYTE PTR __$EHRec$[ebp+8], 2
  001c4	8b 4d e8	 mov	 ecx, DWORD PTR _this$[ebp]
  001c7	81 c1 e0 00 00
	00		 add	 ecx, 224		; 000000e0H
  001cd	ff 15 00 00 00
	00		 call	 DWORD PTR __imp_??1?$CStringT@DV?$StrTraitMFC_DLL@DV?$ChTraitsCRT@D@ATL@@@@@ATL@@QAE@XZ
  001d3	c6 45 fc 01	 mov	 BYTE PTR __$EHRec$[ebp+8], 1
  001d7	8b 4d e8	 mov	 ecx, DWORD PTR _this$[ebp]
  001da	83 c1 70	 add	 ecx, 112		; 00000070H
  001dd	e8 00 00 00 00	 call	 ??1CToolTipCtrl@@UAE@XZ	; CToolTipCtrl::~CToolTipCtrl
  001e2	c6 45 fc 00	 mov	 BYTE PTR __$EHRec$[ebp+8], 0
  001e6	8b 4d e8	 mov	 ecx, DWORD PTR _this$[ebp]
  001e9	83 c1 58	 add	 ecx, 88			; 00000058H
  001ec	e8 00 00 00 00	 call	 ??1CButtonDraw@@UAE@XZ	; CButtonDraw::~CButtonDraw
  001f1	c7 45 fc ff ff
	ff ff		 mov	 DWORD PTR __$EHRec$[ebp+8], -1
  001f8	8b 4d e8	 mov	 ecx, DWORD PTR _this$[ebp]
  001fb	e8 00 00 00 00	 call	 ??1CButton@@UAE@XZ	; CButton::~CButton
  00200	8b 4d f4	 mov	 ecx, DWORD PTR __$EHRec$[ebp]
  00203	64 89 0d 00 00
	00 00		 mov	 DWORD PTR fs:__except_list, ecx
  0020a	8b e5		 mov	 esp, ebp
  0020c	5d		 pop	 ebp
  0020d	c3		 ret	 0
_TEXT	ENDS
text$x	SEGMENT
$L199234:
  00055	8b 4d e8	 mov	 ecx, DWORD PTR _this$[ebp]
  00058	e9 00 00 00 00	 jmp	 ??1CButton@@UAE@XZ	; CButton::~CButton
$L199235:
  0005d	8b 4d e8	 mov	 ecx, DWORD PTR _this$[ebp]
  00060	83 c1 58	 add	 ecx, 88			; 00000058H
  00063	e9 00 00 00 00	 jmp	 ??1CButtonDraw@@UAE@XZ	; CButtonDraw::~CButtonDraw
$L199236:
  00068	8b 4d e8	 mov	 ecx, DWORD PTR _this$[ebp]
  0006b	83 c1 70	 add	 ecx, 112		; 00000070H
  0006e	e9 00 00 00 00	 jmp	 ??1CToolTipCtrl@@UAE@XZ	; CToolTipCtrl::~CToolTipCtrl
$L199237:
  00073	8b 4d e8	 mov	 ecx, DWORD PTR _this$[ebp]
  00076	81 c1 e0 00 00
	00		 add	 ecx, 224		; 000000e0H
  0007c	ff 25 00 00 00
	00		 jmp	 DWORD PTR __imp_??1?$CStringT@DV?$StrTraitMFC_DLL@DV?$ChTraitsCRT@D@ATL@@@@@ATL@@QAE@XZ
$L199238:
  00082	8b 4d e8	 mov	 ecx, DWORD PTR _this$[ebp]
  00085	81 c1 fc 00 00
	00		 add	 ecx, 252		; 000000fcH
  0008b	ff 25 00 00 00
	00		 jmp	 DWORD PTR __imp_??1?$basic_string@DU?$char_traits@D@std@@V?$allocator@D@2@@std@@QAE@XZ
$L199239:
  00091	8b 4d e8	 mov	 ecx, DWORD PTR _this$[ebp]
  00094	81 c1 18 01 00
	00		 add	 ecx, 280		; 00000118H
  0009a	ff 25 00 00 00
	00		 jmp	 DWORD PTR __imp_??1?$CStringT@DV?$StrTraitMFC_DLL@DV?$ChTraitsCRT@D@ATL@@@@@ATL@@QAE@XZ
__ehhandler$??1CSkinButton@@UAE@XZ:
  000a0	b8 00 00 00 00	 mov	 eax, OFFSET FLAT:$T199241
  000a5	e9 00 00 00 00	 jmp	 ___CxxFrameHandler
text$x	ENDS
??1CSkinButton@@UAE@XZ ENDP				; CSkinButton::~CSkinButton
PUBLIC	?GetThisMessageMap@CSkinButton@@KGPBUAFX_MSGMAP@@XZ ; CSkinButton::GetThisMessageMap
; Function compile flags: /Odt
_TEXT	SEGMENT
?GetThisMessageMap@CSkinButton@@KGPBUAFX_MSGMAP@@XZ PROC NEAR ; CSkinButton::GetThisMessageMap

; 40   : BEGIN_MESSAGE_MAP(CSkinButton, CButton)

  00210	55		 push	 ebp
  00211	8b ec		 mov	 ebp, esp
  00213	b8 00 00 00 00	 mov	 eax, OFFSET FLAT:?messageMap@CSkinButton@@1UAFX_MSGMAP@@B ; CSkinButton::messageMap
  00218	5d		 pop	 ebp
  00219	c3		 ret	 0
?GetThisMessageMap@CSkinButton@@KGPBUAFX_MSGMAP@@XZ ENDP ; CSkinButton::GetThisMessageMap
; Function compile flags: /Odt
_this$ = -4						; size = 4
?GetMessageMap@CSkinButton@@MBEPBUAFX_MSGMAP@@XZ PROC NEAR ; CSkinButton::GetMessageMap
; _this$ = ecx

; 40   : BEGIN_MESSAGE_MAP(CSkinButton, CButton)

  00220	55		 push	 ebp
  00221	8b ec		 mov	 ebp, esp
  00223	51		 push	 ecx
  00224	89 4d fc	 mov	 DWORD PTR _this$[ebp], ecx
  00227	b8 00 00 00 00	 mov	 eax, OFFSET FLAT:?messageMap@CSkinButton@@1UAFX_MSGMAP@@B ; CSkinButton::messageMap
  0022c	8b e5		 mov	 esp, ebp
  0022e	5d		 pop	 ebp
  0022f	c3		 ret	 0
?GetMessageMap@CSkinButton@@MBEPBUAFX_MSGMAP@@XZ ENDP	; CSkinButton::GetMessageMap
_TEXT	ENDS
PUBLIC	?DrawButton@CButtonDraw@@QAEXPAVCWnd@@PAUtagDRAWITEMSTRUCT@@HHAAV?$CStringT@DV?$StrTraitMFC_DLL@DV?$ChTraitsCRT@D@ATL@@@@@ATL@@KKPAVCBitmap@@@Z ; CButtonDraw::DrawButton
PUBLIC	?GetText@CSkinButton@@QBE?AV?$CStringT@DV?$StrTraitMFC_DLL@DV?$ChTraitsCRT@D@ATL@@@@@ATL@@XZ ; CSkinButton::GetText
PUBLIC	?DrawImage@CSkinButton@@QAEXAAVGraphics@Gdiplus@@@Z ; CSkinButton::DrawImage
PUBLIC	??0Graphics@Gdiplus@@QAE@PAUHDC__@@@Z		; Gdiplus::Graphics::Graphics
PUBLIC	??1Graphics@Gdiplus@@QAE@XZ			; Gdiplus::Graphics::~Graphics
EXTRN	__imp_?Trim@?$CStringT@DV?$StrTraitMFC_DLL@DV?$ChTraitsCRT@D@ATL@@@@@ATL@@QAEAAV12@XZ:NEAR
xdata$x	SEGMENT
$T199252 DD	0ffffffffH
	DD	FLAT:$L199247
	DD	00H
	DD	FLAT:$L199248
$T199250 DD	019930520H
	DD	02H
	DD	FLAT:$T199252
	DD	2 DUP(00H)
	DD	2 DUP(00H)
; Function compile flags: /Odt
xdata$x	ENDS
_TEXT	SEGMENT
_this$ = -28						; size = 4
_graphics$198091 = -24					; size = 8
_lstrTitle$ = -16					; size = 4
__$EHRec$ = -12						; size = 12
_lpDrawItemStruct$ = 8					; size = 4
?DrawItem@CSkinButton@@MAEXPAUtagDRAWITEMSTRUCT@@@Z PROC NEAR ; CSkinButton::DrawItem
; _this$ = ecx

; 57   : {

  00230	55		 push	 ebp
  00231	8b ec		 mov	 ebp, esp
  00233	6a ff		 push	 -1
  00235	68 00 00 00 00	 push	 __ehhandler$?DrawItem@CSkinButton@@MAEXPAUtagDRAWITEMSTRUCT@@@Z
  0023a	64 a1 00 00 00
	00		 mov	 eax, DWORD PTR fs:__except_list
  00240	50		 push	 eax
  00241	64 89 25 00 00
	00 00		 mov	 DWORD PTR fs:__except_list, esp
  00248	83 ec 10	 sub	 esp, 16			; 00000010H
  0024b	89 4d e4	 mov	 DWORD PTR _this$[ebp], ecx

; 58   : 
; 59   : 	ASSERT(lpDrawItemStruct != NULL);
; 60   : 	CString lstrTitle = GetText();

  0024e	8d 45 f0	 lea	 eax, DWORD PTR _lstrTitle$[ebp]
  00251	50		 push	 eax
  00252	8b 4d e4	 mov	 ecx, DWORD PTR _this$[ebp]
  00255	e8 00 00 00 00	 call	 ?GetText@CSkinButton@@QBE?AV?$CStringT@DV?$StrTraitMFC_DLL@DV?$ChTraitsCRT@D@ATL@@@@@ATL@@XZ ; CSkinButton::GetText
  0025a	c7 45 fc 00 00
	00 00		 mov	 DWORD PTR __$EHRec$[ebp+8], 0

; 61   : 	lstrTitle.Trim();

  00261	8d 4d f0	 lea	 ecx, DWORD PTR _lstrTitle$[ebp]
  00264	ff 15 00 00 00
	00		 call	 DWORD PTR __imp_?Trim@?$CStringT@DV?$StrTraitMFC_DLL@DV?$ChTraitsCRT@D@ATL@@@@@ATL@@QAEAAV12@XZ

; 62   : 	m_ButtonDraw.DrawButton(this, lpDrawItemStruct,m_bottonType, mbMouseOnButton,lstrTitle, m_colBegain, m_colEnd,m_BitMap);

  0026a	8b 4d e4	 mov	 ecx, DWORD PTR _this$[ebp]
  0026d	8b 51 6c	 mov	 edx, DWORD PTR [ecx+108]
  00270	52		 push	 edx
  00271	8b 45 e4	 mov	 eax, DWORD PTR _this$[ebp]
  00274	8b 88 20 01 00
	00		 mov	 ecx, DWORD PTR [eax+288]
  0027a	51		 push	 ecx
  0027b	8b 55 e4	 mov	 edx, DWORD PTR _this$[ebp]
  0027e	8b 82 1c 01 00
	00		 mov	 eax, DWORD PTR [edx+284]
  00284	50		 push	 eax
  00285	8d 4d f0	 lea	 ecx, DWORD PTR _lstrTitle$[ebp]
  00288	51		 push	 ecx
  00289	8b 55 e4	 mov	 edx, DWORD PTR _this$[ebp]
  0028c	8b 82 f8 00 00
	00		 mov	 eax, DWORD PTR [edx+248]
  00292	50		 push	 eax
  00293	8b 4d e4	 mov	 ecx, DWORD PTR _this$[ebp]
  00296	8b 91 24 01 00
	00		 mov	 edx, DWORD PTR [ecx+292]
  0029c	52		 push	 edx
  0029d	8b 45 08	 mov	 eax, DWORD PTR _lpDrawItemStruct$[ebp]
  002a0	50		 push	 eax
  002a1	8b 4d e4	 mov	 ecx, DWORD PTR _this$[ebp]
  002a4	51		 push	 ecx
  002a5	8b 4d e4	 mov	 ecx, DWORD PTR _this$[ebp]
  002a8	83 c1 58	 add	 ecx, 88			; 00000058H
  002ab	e8 00 00 00 00	 call	 ?DrawButton@CButtonDraw@@QAEXPAVCWnd@@PAUtagDRAWITEMSTRUCT@@HHAAV?$CStringT@DV?$StrTraitMFC_DLL@DV?$ChTraitsCRT@D@ATL@@@@@ATL@@KKPAVCBitmap@@@Z ; CButtonDraw::DrawButton

; 63   : 
; 64   : 	if( m_pPngImage && m_pPngImage->m_pBitmap && m_bSelected ) 

  002b0	8b 55 e4	 mov	 edx, DWORD PTR _this$[ebp]
  002b3	83 ba 28 01 00
	00 00		 cmp	 DWORD PTR [edx+296], 0
  002ba	74 48		 je	 SHORT $L198090
  002bc	8b 45 e4	 mov	 eax, DWORD PTR _this$[ebp]
  002bf	8b 88 28 01 00
	00		 mov	 ecx, DWORD PTR [eax+296]
  002c5	83 79 04 00	 cmp	 DWORD PTR [ecx+4], 0
  002c9	74 39		 je	 SHORT $L198090
  002cb	8b 55 e4	 mov	 edx, DWORD PTR _this$[ebp]
  002ce	0f b6 82 f0 00
	00 00		 movzx	 eax, BYTE PTR [edx+240]
  002d5	85 c0		 test	 eax, eax
  002d7	74 2b		 je	 SHORT $L198090

; 65   : 	{
; 66   : 		Gdiplus::Graphics graphics(lpDrawItemStruct->hDC);

  002d9	8b 4d 08	 mov	 ecx, DWORD PTR _lpDrawItemStruct$[ebp]
  002dc	8b 51 18	 mov	 edx, DWORD PTR [ecx+24]
  002df	52		 push	 edx
  002e0	8d 4d e8	 lea	 ecx, DWORD PTR _graphics$198091[ebp]
  002e3	e8 00 00 00 00	 call	 ??0Graphics@Gdiplus@@QAE@PAUHDC__@@@Z ; Gdiplus::Graphics::Graphics
  002e8	c6 45 fc 01	 mov	 BYTE PTR __$EHRec$[ebp+8], 1

; 67   : 		DrawImage(graphics);

  002ec	8d 45 e8	 lea	 eax, DWORD PTR _graphics$198091[ebp]
  002ef	50		 push	 eax
  002f0	8b 4d e4	 mov	 ecx, DWORD PTR _this$[ebp]
  002f3	e8 00 00 00 00	 call	 ?DrawImage@CSkinButton@@QAEXAAVGraphics@Gdiplus@@@Z ; CSkinButton::DrawImage

; 68   : 	}

  002f8	c6 45 fc 00	 mov	 BYTE PTR __$EHRec$[ebp+8], 0
  002fc	8d 4d e8	 lea	 ecx, DWORD PTR _graphics$198091[ebp]
  002ff	e8 00 00 00 00	 call	 ??1Graphics@Gdiplus@@QAE@XZ ; Gdiplus::Graphics::~Graphics
$L198090:

; 69   : }

  00304	c7 45 fc ff ff
	ff ff		 mov	 DWORD PTR __$EHRec$[ebp+8], -1
  0030b	8d 4d f0	 lea	 ecx, DWORD PTR _lstrTitle$[ebp]
  0030e	ff 15 00 00 00
	00		 call	 DWORD PTR __imp_??1?$CStringT@DV?$StrTraitMFC_DLL@DV?$ChTraitsCRT@D@ATL@@@@@ATL@@QAE@XZ
  00314	8b 4d f4	 mov	 ecx, DWORD PTR __$EHRec$[ebp]
  00317	64 89 0d 00 00
	00 00		 mov	 DWORD PTR fs:__except_list, ecx
  0031e	8b e5		 mov	 esp, ebp
  00320	5d		 pop	 ebp
  00321	c2 04 00	 ret	 4
_TEXT	ENDS
text$x	SEGMENT
$L199247:
  000aa	8d 4d f0	 lea	 ecx, DWORD PTR _lstrTitle$[ebp]
  000ad	ff 25 00 00 00
	00		 jmp	 DWORD PTR __imp_??1?$CStringT@DV?$StrTraitMFC_DLL@DV?$ChTraitsCRT@D@ATL@@@@@ATL@@QAE@XZ
$L199248:
  000b3	8d 4d e8	 lea	 ecx, DWORD PTR _graphics$198091[ebp]
  000b6	e9 00 00 00 00	 jmp	 ??1Graphics@Gdiplus@@QAE@XZ ; Gdiplus::Graphics::~Graphics
__ehhandler$?DrawItem@CSkinButton@@MAEXPAUtagDRAWITEMSTRUCT@@@Z:
  000bb	b8 00 00 00 00	 mov	 eax, OFFSET FLAT:$T199250
  000c0	e9 00 00 00 00	 jmp	 ___CxxFrameHandler
text$x	ENDS
?DrawItem@CSkinButton@@MAEXPAUtagDRAWITEMSTRUCT@@@Z ENDP ; CSkinButton::DrawItem
EXTRN	__imp_??0?$CStringT@DV?$StrTraitMFC_DLL@DV?$ChTraitsCRT@D@ATL@@@@@ATL@@QAE@ABV01@@Z:NEAR
; Function compile flags: /Odt
; File d:\boxgit\playbox\playbox\dev\prj\playbox\src\layoutmgr\changecolor\skinbotton.h
;	COMDAT ?GetText@CSkinButton@@QBE?AV?$CStringT@DV?$StrTraitMFC_DLL@DV?$ChTraitsCRT@D@ATL@@@@@ATL@@XZ
_TEXT	SEGMENT
_this$ = -8						; size = 4
$T199255 = -4						; size = 4
___$ReturnUdt$ = 8					; size = 4
?GetText@CSkinButton@@QBE?AV?$CStringT@DV?$StrTraitMFC_DLL@DV?$ChTraitsCRT@D@ATL@@@@@ATL@@XZ PROC NEAR ; CSkinButton::GetText, COMDAT
; _this$ = ecx

; 110  : 	CString GetText()const { return m_string; }

  00000	55		 push	 ebp
  00001	8b ec		 mov	 ebp, esp
  00003	83 ec 08	 sub	 esp, 8
  00006	89 4d f8	 mov	 DWORD PTR _this$[ebp], ecx
  00009	c7 45 fc 00 00
	00 00		 mov	 DWORD PTR $T199255[ebp], 0
  00010	8b 45 f8	 mov	 eax, DWORD PTR _this$[ebp]
  00013	05 18 01 00 00	 add	 eax, 280		; 00000118H
  00018	50		 push	 eax
  00019	8b 4d 08	 mov	 ecx, DWORD PTR ___$ReturnUdt$[ebp]
  0001c	ff 15 00 00 00
	00		 call	 DWORD PTR __imp_??0?$CStringT@DV?$StrTraitMFC_DLL@DV?$ChTraitsCRT@D@ATL@@@@@ATL@@QAE@ABV01@@Z
  00022	8b 4d fc	 mov	 ecx, DWORD PTR $T199255[ebp]
  00025	83 c9 01	 or	 ecx, 1
  00028	89 4d fc	 mov	 DWORD PTR $T199255[ebp], ecx
  0002b	8b 45 08	 mov	 eax, DWORD PTR ___$ReturnUdt$[ebp]
  0002e	8b e5		 mov	 esp, ebp
  00030	5d		 pop	 ebp
  00031	c2 04 00	 ret	 4
?GetText@CSkinButton@@QBE?AV?$CStringT@DV?$StrTraitMFC_DLL@DV?$ChTraitsCRT@D@ATL@@@@@ATL@@XZ ENDP ; CSkinButton::GetText
_TEXT	ENDS
PUBLIC	?Invalidate@CWnd@@QAEXH@Z			; CWnd::Invalidate
; Function compile flags: /Odt
; File d:\boxgit\playbox\playbox\dev\prj\playbox\src\layoutmgr\changecolor\skinbotton.cpp
_TEXT	SEGMENT
_this$ = -4						; size = 4
_wParam$ = 8						; size = 4
_lParam$ = 12						; size = 4
?OnMouseHover@CSkinButton@@IAEJIJ@Z PROC NEAR		; CSkinButton::OnMouseHover
; _this$ = ecx

; 71   : { 	

  00330	55		 push	 ebp
  00331	8b ec		 mov	 ebp, esp
  00333	51		 push	 ecx
  00334	89 4d fc	 mov	 DWORD PTR _this$[ebp], ecx

; 72   : 	mbMouseOnButton = true;

  00337	8b 45 fc	 mov	 eax, DWORD PTR _this$[ebp]
  0033a	c7 80 f8 00 00
	00 01 00 00 00	 mov	 DWORD PTR [eax+248], 1

; 73   : 	this->Invalidate();

  00344	6a 01		 push	 1
  00346	8b 4d fc	 mov	 ecx, DWORD PTR _this$[ebp]
  00349	e8 00 00 00 00	 call	 ?Invalidate@CWnd@@QAEXH@Z ; CWnd::Invalidate

; 74   : 
; 75   : 	TRACE("OnBtn\n");
; 76   : 	return 1;

  0034e	b8 01 00 00 00	 mov	 eax, 1

; 77   : } 

  00353	8b e5		 mov	 esp, ebp
  00355	5d		 pop	 ebp
  00356	c2 08 00	 ret	 8
?OnMouseHover@CSkinButton@@IAEJIJ@Z ENDP		; CSkinButton::OnMouseHover
; Function compile flags: /Odt
_this$ = -4						; size = 4
_wParam$ = 8						; size = 4
_lParam$ = 12						; size = 4
?OnMouseLeave@CSkinButton@@IAEJIJ@Z PROC NEAR		; CSkinButton::OnMouseLeave
; _this$ = ecx

; 79   : { 	

  00360	55		 push	 ebp
  00361	8b ec		 mov	 ebp, esp
  00363	51		 push	 ecx
  00364	89 4d fc	 mov	 DWORD PTR _this$[ebp], ecx

; 80   : 	mbMouseOnButton = false;

  00367	8b 45 fc	 mov	 eax, DWORD PTR _this$[ebp]
  0036a	c7 80 f8 00 00
	00 00 00 00 00	 mov	 DWORD PTR [eax+248], 0

; 81   : 	this->Invalidate();

  00374	6a 01		 push	 1
  00376	8b 4d fc	 mov	 ecx, DWORD PTR _this$[ebp]
  00379	e8 00 00 00 00	 call	 ?Invalidate@CWnd@@QAEXH@Z ; CWnd::Invalidate

; 82   : 	TRACE("LeaveBtn\n");
; 83   : 	return 1;

  0037e	b8 01 00 00 00	 mov	 eax, 1

; 84   : }

  00383	8b e5		 mov	 esp, ebp
  00385	5d		 pop	 ebp
  00386	c2 08 00	 ret	 8
?OnMouseLeave@CSkinButton@@IAEJIJ@Z ENDP		; CSkinButton::OnMouseLeave
_TEXT	ENDS
PUBLIC	?OnMouseMove@CWnd@@IAEXIVCPoint@@@Z		; CWnd::OnMouseMove
PUBLIC	?RelayEvent@CSkinButton@@QAEXIIJ@Z		; CSkinButton::RelayEvent
EXTRN	__imp__SetCursor@4:NEAR
EXTRN	__imp___TrackMouseEvent@4:NEAR
EXTRN	__imp__LoadCursorA@8:NEAR
; Function compile flags: /Odt
_TEXT	SEGMENT
_this$ = -20						; size = 4
_tme$198122 = -16					; size = 16
_nFlags$ = 8						; size = 4
_point$ = 12						; size = 8
?OnMouseMove@CSkinButton@@QAEXIVCPoint@@@Z PROC NEAR	; CSkinButton::OnMouseMove
; _this$ = ecx

; 86   : {

  00390	55		 push	 ebp
  00391	8b ec		 mov	 ebp, esp
  00393	83 ec 14	 sub	 esp, 20			; 00000014H
  00396	89 4d ec	 mov	 DWORD PTR _this$[ebp], ecx

; 87   : 	if(m_bshowTip)

  00399	8b 45 ec	 mov	 eax, DWORD PTR _this$[ebp]
  0039c	0f b6 88 f1 00
	00 00		 movzx	 ecx, BYTE PTR [eax+241]
  003a3	85 c9		 test	 ecx, ecx
  003a5	74 3f		 je	 SHORT $L198107

; 88   : 	{
; 89   : 		RelayEvent(WM_MOUSEMOVE,(WPARAM)nFlags,MAKELPARAM(LOWORD(point.x),LOWORD(point.y)));

  003a7	8b 55 0c	 mov	 edx, DWORD PTR _point$[ebp]
  003aa	81 e2 ff ff 00
	00		 and	 edx, 65535		; 0000ffffH
  003b0	0f b7 c2	 movzx	 eax, dx
  003b3	25 ff ff 00 00	 and	 eax, 65535		; 0000ffffH
  003b8	0f b7 c8	 movzx	 ecx, ax
  003bb	8b 55 10	 mov	 edx, DWORD PTR _point$[ebp+4]
  003be	81 e2 ff ff 00
	00		 and	 edx, 65535		; 0000ffffH
  003c4	0f b7 c2	 movzx	 eax, dx
  003c7	25 ff ff 00 00	 and	 eax, 65535		; 0000ffffH
  003cc	0f b7 d0	 movzx	 edx, ax
  003cf	c1 e2 10	 shl	 edx, 16			; 00000010H
  003d2	0b ca		 or	 ecx, edx
  003d4	51		 push	 ecx
  003d5	8b 45 08	 mov	 eax, DWORD PTR _nFlags$[ebp]
  003d8	50		 push	 eax
  003d9	68 00 02 00 00	 push	 512			; 00000200H
  003de	8b 4d ec	 mov	 ecx, DWORD PTR _this$[ebp]
  003e1	e8 00 00 00 00	 call	 ?RelayEvent@CSkinButton@@QAEXIIJ@Z ; CSkinButton::RelayEvent
$L198107:

; 90   : 	}
; 91   : 	CButton::OnMouseMove(nFlags, point);

  003e6	8b 4d 10	 mov	 ecx, DWORD PTR _point$[ebp+4]
  003e9	51		 push	 ecx
  003ea	8b 55 0c	 mov	 edx, DWORD PTR _point$[ebp]
  003ed	52		 push	 edx
  003ee	8b 45 08	 mov	 eax, DWORD PTR _nFlags$[ebp]
  003f1	50		 push	 eax
  003f2	8b 4d ec	 mov	 ecx, DWORD PTR _this$[ebp]
  003f5	e8 00 00 00 00	 call	 ?OnMouseMove@CWnd@@IAEXIVCPoint@@@Z ; CWnd::OnMouseMove

; 92   : 	if   (!mbMouseOnButton) 

  003fa	8b 4d ec	 mov	 ecx, DWORD PTR _this$[ebp]
  003fd	83 b9 f8 00 00
	00 00		 cmp	 DWORD PTR [ecx+248], 0
  00404	75 33		 jne	 SHORT $L198121

; 93   : 	{ 
; 94   : 		TRACKMOUSEEVENT   tme; 
; 95   : 		tme.cbSize   =   sizeof(tme); 

  00406	c7 45 f0 10 00
	00 00		 mov	 DWORD PTR _tme$198122[ebp], 16 ; 00000010H

; 96   : 		tme.hwndTrack   =   m_hWnd; 

  0040d	8b 55 ec	 mov	 edx, DWORD PTR _this$[ebp]
  00410	8b 42 20	 mov	 eax, DWORD PTR [edx+32]
  00413	89 45 f8	 mov	 DWORD PTR _tme$198122[ebp+8], eax

; 97   : 		tme.dwFlags   =   TME_LEAVE   |   TME_HOVER; 

  00416	c7 45 f4 03 00
	00 00		 mov	 DWORD PTR _tme$198122[ebp+4], 3

; 98   : 		tme.dwHoverTime   =   1; 

  0041d	c7 45 fc 01 00
	00 00		 mov	 DWORD PTR _tme$198122[ebp+12], 1

; 99   : 		mbMouseOnButton   =   _TrackMouseEvent(&tme); 

  00424	8d 4d f0	 lea	 ecx, DWORD PTR _tme$198122[ebp]
  00427	51		 push	 ecx
  00428	ff 15 00 00 00
	00		 call	 DWORD PTR __imp___TrackMouseEvent@4
  0042e	8b 55 ec	 mov	 edx, DWORD PTR _this$[ebp]
  00431	89 82 f8 00 00
	00		 mov	 DWORD PTR [edx+248], eax

; 100  : 
; 101  : 		TRACE("MouseMove\n");
; 102  : 	} 
; 103  : 	else

  00437	eb 14		 jmp	 SHORT $L198106
$L198121:

; 104  : 	{
; 105  : #ifndef IDC_HAND
; 106  : #define IDC_HAND            MAKEINTRESOURCE(32649)
; 107  : #endif
; 108  : 		::SetCursor(::LoadCursor(NULL, IDC_HAND));

  00439	68 89 7f 00 00	 push	 32649			; 00007f89H
  0043e	6a 00		 push	 0
  00440	ff 15 00 00 00
	00		 call	 DWORD PTR __imp__LoadCursorA@8
  00446	50		 push	 eax
  00447	ff 15 00 00 00
	00		 call	 DWORD PTR __imp__SetCursor@4
$L198106:

; 109  : 	}
; 110  : }

  0044d	8b e5		 mov	 esp, ebp
  0044f	5d		 pop	 ebp
  00450	c2 0c 00	 ret	 12			; 0000000cH
?OnMouseMove@CSkinButton@@QAEXIVCPoint@@@Z ENDP		; CSkinButton::OnMouseMove
_TEXT	ENDS
PUBLIC	?OnLButtonDown@CWnd@@IAEXIVCPoint@@@Z		; CWnd::OnLButtonDown
; Function compile flags: /Odt
_TEXT	SEGMENT
_this$ = -4						; size = 4
_nFlags$ = 8						; size = 4
_point$ = 12						; size = 8
?OnLButtonDown@CSkinButton@@QAEXIVCPoint@@@Z PROC NEAR	; CSkinButton::OnLButtonDown
; _this$ = ecx

; 113  : {

  00460	55		 push	 ebp
  00461	8b ec		 mov	 ebp, esp
  00463	51		 push	 ecx
  00464	89 4d fc	 mov	 DWORD PTR _this$[ebp], ecx

; 114  : 	RelayEvent(WM_LBUTTONDOWN,(WPARAM)nFlags,MAKELPARAM(LOWORD(point.x),LOWORD(point.y)));

  00467	8b 45 0c	 mov	 eax, DWORD PTR _point$[ebp]
  0046a	25 ff ff 00 00	 and	 eax, 65535		; 0000ffffH
  0046f	0f b7 c8	 movzx	 ecx, ax
  00472	81 e1 ff ff 00
	00		 and	 ecx, 65535		; 0000ffffH
  00478	0f b7 d1	 movzx	 edx, cx
  0047b	8b 45 10	 mov	 eax, DWORD PTR _point$[ebp+4]
  0047e	25 ff ff 00 00	 and	 eax, 65535		; 0000ffffH
  00483	0f b7 c8	 movzx	 ecx, ax
  00486	81 e1 ff ff 00
	00		 and	 ecx, 65535		; 0000ffffH
  0048c	0f b7 c1	 movzx	 eax, cx
  0048f	c1 e0 10	 shl	 eax, 16			; 00000010H
  00492	0b d0		 or	 edx, eax
  00494	52		 push	 edx
  00495	8b 4d 08	 mov	 ecx, DWORD PTR _nFlags$[ebp]
  00498	51		 push	 ecx
  00499	68 01 02 00 00	 push	 513			; 00000201H
  0049e	8b 4d fc	 mov	 ecx, DWORD PTR _this$[ebp]
  004a1	e8 00 00 00 00	 call	 ?RelayEvent@CSkinButton@@QAEXIIJ@Z ; CSkinButton::RelayEvent

; 115  : 	CButton::OnLButtonDown(nFlags, point);

  004a6	8b 55 10	 mov	 edx, DWORD PTR _point$[ebp+4]
  004a9	52		 push	 edx
  004aa	8b 45 0c	 mov	 eax, DWORD PTR _point$[ebp]
  004ad	50		 push	 eax
  004ae	8b 4d 08	 mov	 ecx, DWORD PTR _nFlags$[ebp]
  004b1	51		 push	 ecx
  004b2	8b 4d fc	 mov	 ecx, DWORD PTR _this$[ebp]
  004b5	e8 00 00 00 00	 call	 ?OnLButtonDown@CWnd@@IAEXIVCPoint@@@Z ; CWnd::OnLButtonDown

; 116  : 	if( NULL != m_pbtnEventListerner )

  004ba	8b 55 fc	 mov	 edx, DWORD PTR _this$[ebp]
  004bd	83 ba 2c 01 00
	00 00		 cmp	 DWORD PTR [edx+300], 0
  004c4	74 1a		 je	 SHORT $L198131

; 117  : 	{
; 118  : 		this->m_pbtnEventListerner->OnCliekButton(this);

  004c6	8b 45 fc	 mov	 eax, DWORD PTR _this$[ebp]
  004c9	50		 push	 eax
  004ca	8b 4d fc	 mov	 ecx, DWORD PTR _this$[ebp]
  004cd	8b 91 2c 01 00
	00		 mov	 edx, DWORD PTR [ecx+300]
  004d3	8b 45 fc	 mov	 eax, DWORD PTR _this$[ebp]
  004d6	8b 88 2c 01 00
	00		 mov	 ecx, DWORD PTR [eax+300]
  004dc	8b 12		 mov	 edx, DWORD PTR [edx]
  004de	ff 12		 call	 DWORD PTR [edx]
$L198131:

; 119  : 	}
; 120  : 	//	::PostMessage(GetParent()->GetSafeHwnd(), MSG_BTN_MOUSEDOWN,::GetWindowLong(this->m_hWnd,GWL_ID ),0 );
; 121  : }

  004e0	8b e5		 mov	 esp, ebp
  004e2	5d		 pop	 ebp
  004e3	c2 0c 00	 ret	 12			; 0000000cH
?OnLButtonDown@CSkinButton@@QAEXIVCPoint@@@Z ENDP	; CSkinButton::OnLButtonDown
_TEXT	ENDS
PUBLIC	?OnLButtonUp@CWnd@@IAEXIVCPoint@@@Z		; CWnd::OnLButtonUp
; Function compile flags: /Odt
_TEXT	SEGMENT
_this$ = -4						; size = 4
_nFlags$ = 8						; size = 4
_point$ = 12						; size = 8
?OnLButtonUp@CSkinButton@@QAEXIVCPoint@@@Z PROC NEAR	; CSkinButton::OnLButtonUp
; _this$ = ecx

; 124  : {

  004f0	55		 push	 ebp
  004f1	8b ec		 mov	 ebp, esp
  004f3	51		 push	 ecx
  004f4	89 4d fc	 mov	 DWORD PTR _this$[ebp], ecx

; 125  : 	RelayEvent(WM_LBUTTONUP,(WPARAM)nFlags,MAKELPARAM(LOWORD(point.x),LOWORD(point.y)));

  004f7	8b 45 0c	 mov	 eax, DWORD PTR _point$[ebp]
  004fa	25 ff ff 00 00	 and	 eax, 65535		; 0000ffffH
  004ff	0f b7 c8	 movzx	 ecx, ax
  00502	81 e1 ff ff 00
	00		 and	 ecx, 65535		; 0000ffffH
  00508	0f b7 d1	 movzx	 edx, cx
  0050b	8b 45 10	 mov	 eax, DWORD PTR _point$[ebp+4]
  0050e	25 ff ff 00 00	 and	 eax, 65535		; 0000ffffH
  00513	0f b7 c8	 movzx	 ecx, ax
  00516	81 e1 ff ff 00
	00		 and	 ecx, 65535		; 0000ffffH
  0051c	0f b7 c1	 movzx	 eax, cx
  0051f	c1 e0 10	 shl	 eax, 16			; 00000010H
  00522	0b d0		 or	 edx, eax
  00524	52		 push	 edx
  00525	8b 4d 08	 mov	 ecx, DWORD PTR _nFlags$[ebp]
  00528	51		 push	 ecx
  00529	68 02 02 00 00	 push	 514			; 00000202H
  0052e	8b 4d fc	 mov	 ecx, DWORD PTR _this$[ebp]
  00531	e8 00 00 00 00	 call	 ?RelayEvent@CSkinButton@@QAEXIIJ@Z ; CSkinButton::RelayEvent

; 126  : 	CButton::OnLButtonUp(nFlags, point);

  00536	8b 55 10	 mov	 edx, DWORD PTR _point$[ebp+4]
  00539	52		 push	 edx
  0053a	8b 45 0c	 mov	 eax, DWORD PTR _point$[ebp]
  0053d	50		 push	 eax
  0053e	8b 4d 08	 mov	 ecx, DWORD PTR _nFlags$[ebp]
  00541	51		 push	 ecx
  00542	8b 4d fc	 mov	 ecx, DWORD PTR _this$[ebp]
  00545	e8 00 00 00 00	 call	 ?OnLButtonUp@CWnd@@IAEXIVCPoint@@@Z ; CWnd::OnLButtonUp

; 127  : }

  0054a	8b e5		 mov	 esp, ebp
  0054c	5d		 pop	 ebp
  0054d	c2 0c 00	 ret	 12			; 0000000cH
?OnLButtonUp@CSkinButton@@QAEXIVCPoint@@@Z ENDP		; CSkinButton::OnLButtonUp
_TEXT	ENDS
PUBLIC	?GetClientRect@CWnd@@QBEXPAUtagRECT@@@Z		; CWnd::GetClientRect
PUBLIC	??0CRect@@QAE@XZ				; CRect::CRect
PUBLIC	?FillRect@CDC@@QAEXPBUtagRECT@@PAVCBrush@@@Z	; CDC::FillRect
PUBLIC	??1CBrush@@UAE@XZ				; CBrush::~CBrush
EXTRN	??0CBrush@@QAE@K@Z:NEAR				; CBrush::CBrush
xdata$x	SEGMENT
$T199269 DD	0ffffffffH
	DD	FLAT:$L199265
$T199267 DD	019930520H
	DD	01H
	DD	FLAT:$T199269
	DD	2 DUP(00H)
	DD	2 DUP(00H)
; Function compile flags: /Odt
xdata$x	ENDS
_TEXT	SEGMENT
tv79 = -48						; size = 4
tv80 = -44						; size = 4
_this$ = -40						; size = 4
$T199264 = -36						; size = 8
_rc$198169 = -28					; size = 16
__$EHRec$ = -12						; size = 12
_pDC$ = 8						; size = 4
?OnEraseBkgnd@CSkinButton@@QAEHPAVCDC@@@Z PROC NEAR	; CSkinButton::OnEraseBkgnd
; _this$ = ecx

; 130  : {

  00550	55		 push	 ebp
  00551	8b ec		 mov	 ebp, esp
  00553	6a ff		 push	 -1
  00555	68 00 00 00 00	 push	 __ehhandler$?OnEraseBkgnd@CSkinButton@@QAEHPAVCDC@@@Z
  0055a	64 a1 00 00 00
	00		 mov	 eax, DWORD PTR fs:__except_list
  00560	50		 push	 eax
  00561	64 89 25 00 00
	00 00		 mov	 DWORD PTR fs:__except_list, esp
  00568	83 ec 24	 sub	 esp, 36			; 00000024H
  0056b	89 4d d8	 mov	 DWORD PTR _this$[ebp], ecx

; 131  : 
; 132  : 	if( m_bEraseBK )

  0056e	8b 45 d8	 mov	 eax, DWORD PTR _this$[ebp]
  00571	0f b6 48 54	 movzx	 ecx, BYTE PTR [eax+84]
  00575	85 c9		 test	 ecx, ecx
  00577	74 50		 je	 SHORT $L198168

; 133  : 	{
; 134  : 		CRect rc;

  00579	8d 4d e4	 lea	 ecx, DWORD PTR _rc$198169[ebp]
  0057c	e8 00 00 00 00	 call	 ??0CRect@@QAE@XZ	; CRect::CRect

; 135  : 		this->GetClientRect( &rc );

  00581	8d 55 e4	 lea	 edx, DWORD PTR _rc$198169[ebp]
  00584	52		 push	 edx
  00585	8b 4d d8	 mov	 ecx, DWORD PTR _this$[ebp]
  00588	e8 00 00 00 00	 call	 ?GetClientRect@CWnd@@QBEXPAUtagRECT@@@Z ; CWnd::GetClientRect

; 136  : 		pDC->FillRect( &rc, &CBrush( RGB(255,255,255) ) );

  0058d	68 ff ff ff 00	 push	 16777215		; 00ffffffH
  00592	8d 4d dc	 lea	 ecx, DWORD PTR $T199264[ebp]
  00595	e8 00 00 00 00	 call	 ??0CBrush@@QAE@K@Z	; CBrush::CBrush
  0059a	89 45 d4	 mov	 DWORD PTR tv80[ebp], eax
  0059d	8b 45 d4	 mov	 eax, DWORD PTR tv80[ebp]
  005a0	89 45 d0	 mov	 DWORD PTR tv79[ebp], eax
  005a3	c7 45 fc 00 00
	00 00		 mov	 DWORD PTR __$EHRec$[ebp+8], 0
  005aa	8b 4d d0	 mov	 ecx, DWORD PTR tv79[ebp]
  005ad	51		 push	 ecx
  005ae	8d 55 e4	 lea	 edx, DWORD PTR _rc$198169[ebp]
  005b1	52		 push	 edx
  005b2	8b 4d 08	 mov	 ecx, DWORD PTR _pDC$[ebp]
  005b5	e8 00 00 00 00	 call	 ?FillRect@CDC@@QAEXPBUtagRECT@@PAVCBrush@@@Z ; CDC::FillRect
  005ba	c7 45 fc ff ff
	ff ff		 mov	 DWORD PTR __$EHRec$[ebp+8], -1
  005c1	8d 4d dc	 lea	 ecx, DWORD PTR $T199264[ebp]
  005c4	e8 00 00 00 00	 call	 ??1CBrush@@UAE@XZ	; CBrush::~CBrush
$L198168:

; 137  : 		
; 138  : 	}
; 139  : 	return true;

  005c9	b8 01 00 00 00	 mov	 eax, 1

; 140  : }

  005ce	8b 4d f4	 mov	 ecx, DWORD PTR __$EHRec$[ebp]
  005d1	64 89 0d 00 00
	00 00		 mov	 DWORD PTR fs:__except_list, ecx
  005d8	8b e5		 mov	 esp, ebp
  005da	5d		 pop	 ebp
  005db	c2 04 00	 ret	 4
_TEXT	ENDS
text$x	SEGMENT
$L199265:
  000c5	8d 4d dc	 lea	 ecx, DWORD PTR $T199264[ebp]
  000c8	e9 00 00 00 00	 jmp	 ??1CBrush@@UAE@XZ	; CBrush::~CBrush
__ehhandler$?OnEraseBkgnd@CSkinButton@@QAEHPAVCDC@@@Z:
  000cd	b8 00 00 00 00	 mov	 eax, OFFSET FLAT:$T199267
  000d2	e9 00 00 00 00	 jmp	 ___CxxFrameHandler
text$x	ENDS
?OnEraseBkgnd@CSkinButton@@QAEHPAVCDC@@@Z ENDP		; CSkinButton::OnEraseBkgnd
PUBLIC	??_R3CButtonDraw@@8				; CButtonDraw::`RTTI Class Hierarchy Descriptor'
PUBLIC	??_R2CButtonDraw@@8				; CButtonDraw::`RTTI Base Class Array'
PUBLIC	??_R1A@?0A@A@CButtonDraw@@8			; CButtonDraw::`RTTI Base Class Descriptor at (0,-1,0,0)'
PUBLIC	??0Color@Gdiplus@@QAE@XZ			; Gdiplus::Color::Color
PUBLIC	?SetValue@Color@Gdiplus@@QAEXK@Z		; Gdiplus::Color::SetValue
PUBLIC	?MakeARGB@Color@Gdiplus@@SAKEEEE@Z		; Gdiplus::Color::MakeARGB
PUBLIC	??_7CButtonDraw@@6B@				; CButtonDraw::`vftable'
PUBLIC	??_GCButtonDraw@@UAEPAXI@Z			; CButtonDraw::`scalar deleting destructor'
PUBLIC	??_R4CButtonDraw@@6B@				; CButtonDraw::`RTTI Complete Object Locator'
PUBLIC	??_R0?AVCButtonDraw@@@8				; CButtonDraw `RTTI Type Descriptor'
EXTRN	??_ECButtonDraw@@UAEPAXI@Z:NEAR			; CButtonDraw::`vector deleting destructor'
;	COMDAT ??_7CButtonDraw@@6B@
CONST	SEGMENT
??_7CButtonDraw@@6B@ DD FLAT:??_R4CButtonDraw@@6B@	; CButtonDraw::`vftable'
	DD	FLAT:??_ECButtonDraw@@UAEPAXI@Z
CONST	ENDS
;	COMDAT ??_R4CButtonDraw@@6B@
rdata$r	SEGMENT
??_R4CButtonDraw@@6B@ DD 00H				; CButtonDraw::`RTTI Complete Object Locator'
	DD	00H
	DD	00H
	DD	FLAT:??_R0?AVCButtonDraw@@@8
	DD	FLAT:??_R3CButtonDraw@@8
rdata$r	ENDS
;	COMDAT ??_R0?AVCButtonDraw@@@8
_DATA	SEGMENT
??_R0?AVCButtonDraw@@@8 DD FLAT:??_7type_info@@6B@	; CButtonDraw `RTTI Type Descriptor'
	DD	00H
	DB	'.?AVCButtonDraw@@', 00H
_DATA	ENDS
;	COMDAT ??_R3CButtonDraw@@8
rdata$r	SEGMENT
??_R3CButtonDraw@@8 DD 00H				; CButtonDraw::`RTTI Class Hierarchy Descriptor'
	DD	00H
	DD	01H
	DD	FLAT:??_R2CButtonDraw@@8
rdata$r	ENDS
;	COMDAT ??_R2CButtonDraw@@8
rdata$r	SEGMENT
??_R2CButtonDraw@@8 DD FLAT:??_R1A@?0A@A@CButtonDraw@@8	; CButtonDraw::`RTTI Base Class Array'
rdata$r	ENDS
;	COMDAT ??_R1A@?0A@A@CButtonDraw@@8
rdata$r	SEGMENT
??_R1A@?0A@A@CButtonDraw@@8 DD FLAT:??_R0?AVCButtonDraw@@@8 ; CButtonDraw::`RTTI Base Class Descriptor at (0,-1,0,0)'
	DD	00H
	DD	00H
	DD	0ffffffffH
	DD	00H
	DD	00H
; Function compile flags: /Odt
rdata$r	ENDS
_TEXT	SEGMENT
_this$ = -4						; size = 4
??0CButtonDraw@@QAE@XZ PROC NEAR			; CButtonDraw::CButtonDraw
; _this$ = ecx

; 144  : {

  005e0	55		 push	 ebp
  005e1	8b ec		 mov	 ebp, esp
  005e3	51		 push	 ecx
  005e4	89 4d fc	 mov	 DWORD PTR _this$[ebp], ecx
  005e7	8b 45 fc	 mov	 eax, DWORD PTR _this$[ebp]
  005ea	c7 00 00 00 00
	00		 mov	 DWORD PTR [eax], OFFSET FLAT:??_7CButtonDraw@@6B@
  005f0	8b 4d fc	 mov	 ecx, DWORD PTR _this$[ebp]
  005f3	83 c1 04	 add	 ecx, 4
  005f6	e8 00 00 00 00	 call	 ??0Color@Gdiplus@@QAE@XZ ; Gdiplus::Color::Color
  005fb	8b 4d fc	 mov	 ecx, DWORD PTR _this$[ebp]
  005fe	83 c1 08	 add	 ecx, 8
  00601	e8 00 00 00 00	 call	 ??0Color@Gdiplus@@QAE@XZ ; Gdiplus::Color::Color
  00606	8b 4d fc	 mov	 ecx, DWORD PTR _this$[ebp]
  00609	83 c1 0c	 add	 ecx, 12			; 0000000cH
  0060c	e8 00 00 00 00	 call	 ??0Color@Gdiplus@@QAE@XZ ; Gdiplus::Color::Color
  00611	8b 4d fc	 mov	 ecx, DWORD PTR _this$[ebp]
  00614	83 c1 10	 add	 ecx, 16			; 00000010H
  00617	e8 00 00 00 00	 call	 ??0Color@Gdiplus@@QAE@XZ ; Gdiplus::Color::Color

; 145  : 	m_colShadow.SetValue( Gdiplus::Color::MakeARGB(60,100,100,100) );

  0061c	6a 64		 push	 100			; 00000064H
  0061e	6a 64		 push	 100			; 00000064H
  00620	6a 64		 push	 100			; 00000064H
  00622	6a 3c		 push	 60			; 0000003cH
  00624	e8 00 00 00 00	 call	 ?MakeARGB@Color@Gdiplus@@SAKEEEE@Z ; Gdiplus::Color::MakeARGB
  00629	83 c4 10	 add	 esp, 16			; 00000010H
  0062c	50		 push	 eax
  0062d	8b 4d fc	 mov	 ecx, DWORD PTR _this$[ebp]
  00630	83 c1 08	 add	 ecx, 8
  00633	e8 00 00 00 00	 call	 ?SetValue@Color@Gdiplus@@QAEXK@Z ; Gdiplus::Color::SetValue

; 146  : 	m_colShadow2.SetValue( Gdiplus::Color::MakeARGB(20,100,100,100) );

  00638	6a 64		 push	 100			; 00000064H
  0063a	6a 64		 push	 100			; 00000064H
  0063c	6a 64		 push	 100			; 00000064H
  0063e	6a 14		 push	 20			; 00000014H
  00640	e8 00 00 00 00	 call	 ?MakeARGB@Color@Gdiplus@@SAKEEEE@Z ; Gdiplus::Color::MakeARGB
  00645	83 c4 10	 add	 esp, 16			; 00000010H
  00648	50		 push	 eax
  00649	8b 4d fc	 mov	 ecx, DWORD PTR _this$[ebp]
  0064c	83 c1 0c	 add	 ecx, 12			; 0000000cH
  0064f	e8 00 00 00 00	 call	 ?SetValue@Color@Gdiplus@@QAEXK@Z ; Gdiplus::Color::SetValue

; 147  : 	m_colShadow3.SetValue( Gdiplus::Color::MakeARGB(50,100,100,100) );

  00654	6a 64		 push	 100			; 00000064H
  00656	6a 64		 push	 100			; 00000064H
  00658	6a 64		 push	 100			; 00000064H
  0065a	6a 32		 push	 50			; 00000032H
  0065c	e8 00 00 00 00	 call	 ?MakeARGB@Color@Gdiplus@@SAKEEEE@Z ; Gdiplus::Color::MakeARGB
  00661	83 c4 10	 add	 esp, 16			; 00000010H
  00664	50		 push	 eax
  00665	8b 4d fc	 mov	 ecx, DWORD PTR _this$[ebp]
  00668	83 c1 10	 add	 ecx, 16			; 00000010H
  0066b	e8 00 00 00 00	 call	 ?SetValue@Color@Gdiplus@@QAEXK@Z ; Gdiplus::Color::SetValue

; 148  : 	m_colBK.SetValue( Gdiplus::Color::MakeARGB(255,255,255,255) );

  00670	68 ff 00 00 00	 push	 255			; 000000ffH
  00675	68 ff 00 00 00	 push	 255			; 000000ffH
  0067a	68 ff 00 00 00	 push	 255			; 000000ffH
  0067f	68 ff 00 00 00	 push	 255			; 000000ffH
  00684	e8 00 00 00 00	 call	 ?MakeARGB@Color@Gdiplus@@SAKEEEE@Z ; Gdiplus::Color::MakeARGB
  00689	83 c4 10	 add	 esp, 16			; 00000010H
  0068c	50		 push	 eax
  0068d	8b 4d fc	 mov	 ecx, DWORD PTR _this$[ebp]
  00690	83 c1 04	 add	 ecx, 4
  00693	e8 00 00 00 00	 call	 ?SetValue@Color@Gdiplus@@QAEXK@Z ; Gdiplus::Color::SetValue

; 149  : }

  00698	8b 45 fc	 mov	 eax, DWORD PTR _this$[ebp]
  0069b	8b e5		 mov	 esp, ebp
  0069d	5d		 pop	 ebp
  0069e	c3		 ret	 0
??0CButtonDraw@@QAE@XZ ENDP				; CButtonDraw::CButtonDraw
_TEXT	ENDS
EXTRN	??3@YAXPAX@Z:NEAR				; operator delete
; Function compile flags: /Odt
;	COMDAT ??_GCButtonDraw@@UAEPAXI@Z
_TEXT	SEGMENT
_this$ = -4						; size = 4
___flags$ = 8						; size = 4
??_GCButtonDraw@@UAEPAXI@Z PROC NEAR			; CButtonDraw::`scalar deleting destructor', COMDAT
; _this$ = ecx
  00000	55		 push	 ebp
  00001	8b ec		 mov	 ebp, esp
  00003	51		 push	 ecx
  00004	89 4d fc	 mov	 DWORD PTR _this$[ebp], ecx
  00007	8b 4d fc	 mov	 ecx, DWORD PTR _this$[ebp]
  0000a	e8 00 00 00 00	 call	 ??1CButtonDraw@@UAE@XZ	; CButtonDraw::~CButtonDraw
  0000f	8b 45 08	 mov	 eax, DWORD PTR ___flags$[ebp]
  00012	83 e0 01	 and	 eax, 1
  00015	74 0c		 je	 SHORT $L198183
  00017	8b 4d fc	 mov	 ecx, DWORD PTR _this$[ebp]
  0001a	51		 push	 ecx
  0001b	e8 00 00 00 00	 call	 ??3@YAXPAX@Z		; operator delete
  00020	83 c4 04	 add	 esp, 4
$L198183:
  00023	8b 45 fc	 mov	 eax, DWORD PTR _this$[ebp]
  00026	8b e5		 mov	 esp, ebp
  00028	5d		 pop	 ebp
  00029	c2 04 00	 ret	 4
??_GCButtonDraw@@UAEPAXI@Z ENDP				; CButtonDraw::`scalar deleting destructor'
; Function compile flags: /Odt
_TEXT	ENDS
_TEXT	SEGMENT
_this$ = -4						; size = 4
??1CButtonDraw@@UAE@XZ PROC NEAR			; CButtonDraw::~CButtonDraw
; _this$ = ecx

; 151  : {

  006a0	55		 push	 ebp
  006a1	8b ec		 mov	 ebp, esp
  006a3	51		 push	 ecx
  006a4	89 4d fc	 mov	 DWORD PTR _this$[ebp], ecx
  006a7	8b 45 fc	 mov	 eax, DWORD PTR _this$[ebp]
  006aa	c7 00 00 00 00
	00		 mov	 DWORD PTR [eax], OFFSET FLAT:??_7CButtonDraw@@6B@

; 152  : }

  006b0	8b e5		 mov	 esp, ebp
  006b2	5d		 pop	 ebp
  006b3	c3		 ret	 0
??1CButtonDraw@@UAE@XZ ENDP				; CButtonDraw::~CButtonDraw
_TEXT	ENDS
PUBLIC	??0CRect@@QAE@HHHH@Z				; CRect::CRect
PUBLIC	??BCRect@@QAEPAUtagRECT@@XZ			; CRect::operator tagRECT *
PUBLIC	?DrawSkinEnter@CButtonDraw@@IAEXAAPAUHDC__@@AAUtagRECT@@AAV?$CStringT@DV?$StrTraitMFC_DLL@DV?$ChTraitsCRT@D@ATL@@@@@ATL@@PAVCBitmap@@@Z ; CButtonDraw::DrawSkinEnter
PUBLIC	?DrawSkinNormal@CButtonDraw@@IAEXAAPAUHDC__@@AAUtagRECT@@AAV?$CStringT@DV?$StrTraitMFC_DLL@DV?$ChTraitsCRT@D@ATL@@@@@ATL@@PAVCBitmap@@@Z ; CButtonDraw::DrawSkinNormal
PUBLIC	?DrawColorEnter@CButtonDraw@@IAEXAAPAUHDC__@@AAUtagRECT@@AAV?$CStringT@DV?$StrTraitMFC_DLL@DV?$ChTraitsCRT@D@ATL@@@@@ATL@@AAK3@Z ; CButtonDraw::DrawColorEnter
PUBLIC	?DrawColorNormal@CButtonDraw@@IAEXAAPAUHDC__@@AAUtagRECT@@AAV?$CStringT@DV?$StrTraitMFC_DLL@DV?$ChTraitsCRT@D@ATL@@@@@ATL@@AAK3@Z ; CButtonDraw::DrawColorNormal
PUBLIC	??0CFont@@QAE@XZ				; CFont::CFont
PUBLIC	?CreateFontIndirectA@CFont@@QAEHPBUtagLOGFONTA@@@Z ; CFont::CreateFontIndirectA
PUBLIC	?DrawColorNoTextEnter@CButtonDraw@@IAEXAAPAUHDC__@@AAUtagRECT@@AAV?$CStringT@DV?$StrTraitMFC_DLL@DV?$ChTraitsCRT@D@ATL@@@@@ATL@@AAK3@Z ; CButtonDraw::DrawColorNoTextEnter
PUBLIC	?DrawColorNoTextNormal@CButtonDraw@@IAEXAAPAUHDC__@@AAUtagRECT@@AAV?$CStringT@DV?$StrTraitMFC_DLL@DV?$ChTraitsCRT@D@ATL@@@@@ATL@@AAK3@Z ; CButtonDraw::DrawColorNoTextNormal
PUBLIC	?DrawDefaultButtonNormal@CButtonDraw@@IAEXAAPAUHDC__@@AAUtagRECT@@AAV?$CStringT@DV?$StrTraitMFC_DLL@DV?$ChTraitsCRT@D@ATL@@@@@ATL@@@Z ; CButtonDraw::DrawDefaultButtonNormal
PUBLIC	?DrawDefaultButtonEnter@CButtonDraw@@IAEXAAPAUHDC__@@AAUtagRECT@@AAV?$CStringT@DV?$StrTraitMFC_DLL@DV?$ChTraitsCRT@D@ATL@@@@@ATL@@@Z ; CButtonDraw::DrawDefaultButtonEnter
PUBLIC	?DrawExitButtonNormal@CButtonDraw@@IAEXAAPAUHDC__@@AAUtagRECT@@@Z ; CButtonDraw::DrawExitButtonNormal
PUBLIC	?DrawExitButtonEnter@CButtonDraw@@IAEXAAPAUHDC__@@AAUtagRECT@@@Z ; CButtonDraw::DrawExitButtonEnter
PUBLIC	??1CFont@@UAE@XZ				; CFont::~CFont
EXTRN	?FromHandle@CDC@@SGPAV1@PAUHDC__@@@Z:NEAR	; CDC::FromHandle
EXTRN	__imp_??B?$CSimpleStringT@D$00@ATL@@QBEPBDXZ:NEAR
EXTRN	__imp_?GetLength@?$CSimpleStringT@D$00@ATL@@QBEHXZ:NEAR
EXTRN	__imp__SetBkMode@8:NEAR
EXTRN	__imp__DrawTextA@20:NEAR
EXTRN	?getColor@CWndColorMgr@@QAEPAUCtrColBase@@I@Z:NEAR ; CWndColorMgr::getColor
EXTRN	?gWndColor@@3VCWndColorMgr@@A:DWORD		; gWndColor
EXTRN	___security_cookie:DWORD
EXTRN	@__security_check_cookie@4:NEAR
EXTRN	__imp__GetTextAlign@4:NEAR
EXTRN	_memset:NEAR
xdata$x	SEGMENT
$T199285 DD	0ffffffffH
	DD	FLAT:$L199278
$T199280 DD	019930520H
	DD	01H
	DD	FLAT:$T199285
	DD	2 DUP(00H)
	DD	2 DUP(00H)
; Function compile flags: /Odt
xdata$x	ENDS
_TEXT	SEGMENT
_this$ = -156						; size = 4
$T199277 = -152						; size = 16
$T199276 = -136						; size = 16
_oldFont$ = -120					; size = 4
_font$ = -116						; size = 8
_lf$ = -108						; size = 60
__$ArrayPad$ = -48					; size = 4
_bSelect$ = -41						; size = 1
_lState$ = -40						; size = 4
_liAlign$ = -36						; size = 4
_lrect$ = -32						; size = 16
_lpDC$ = -16						; size = 4
__$EHRec$ = -12						; size = 12
__$ReturnAddr$ = 4					; size = 4
_apWnd$ = 8						; size = 4
_lpDrawItemStruct$ = 12					; size = 4
_m_bottonType$ = 16					; size = 4
_abMouseOnButton$ = 20					; size = 4
_astrTitle$ = 24					; size = 4
_acolBegain$ = 28					; size = 4
_acolEnd$ = 32						; size = 4
_aBitMap$ = 36						; size = 4
?DrawButton@CButtonDraw@@QAEXPAVCWnd@@PAUtagDRAWITEMSTRUCT@@HHAAV?$CStringT@DV?$StrTraitMFC_DLL@DV?$ChTraitsCRT@D@ATL@@@@@ATL@@KKPAVCBitmap@@@Z PROC NEAR ; CButtonDraw::DrawButton
; _this$ = ecx

; 155  : {

  006c0	55		 push	 ebp
  006c1	8b ec		 mov	 ebp, esp
  006c3	6a ff		 push	 -1
  006c5	68 00 00 00 00	 push	 __ehhandler$?DrawButton@CButtonDraw@@QAEXPAVCWnd@@PAUtagDRAWITEMSTRUCT@@HHAAV?$CStringT@DV?$StrTraitMFC_DLL@DV?$ChTraitsCRT@D@ATL@@@@@ATL@@KKPAVCBitmap@@@Z
  006ca	64 a1 00 00 00
	00		 mov	 eax, DWORD PTR fs:__except_list
  006d0	50		 push	 eax
  006d1	64 89 25 00 00
	00 00		 mov	 DWORD PTR fs:__except_list, esp
  006d8	81 ec 90 00 00
	00		 sub	 esp, 144		; 00000090H
  006de	a1 00 00 00 00	 mov	 eax, DWORD PTR ___security_cookie
  006e3	89 45 d0	 mov	 DWORD PTR __$ArrayPad$[ebp], eax
  006e6	89 8d 64 ff ff
	ff		 mov	 DWORD PTR _this$[ebp], ecx

; 156  : 	RECT lrect = lpDrawItemStruct->rcItem;

  006ec	8b 45 0c	 mov	 eax, DWORD PTR _lpDrawItemStruct$[ebp]
  006ef	83 c0 1c	 add	 eax, 28			; 0000001cH
  006f2	8b 08		 mov	 ecx, DWORD PTR [eax]
  006f4	89 4d e0	 mov	 DWORD PTR _lrect$[ebp], ecx
  006f7	8b 50 04	 mov	 edx, DWORD PTR [eax+4]
  006fa	89 55 e4	 mov	 DWORD PTR _lrect$[ebp+4], edx
  006fd	8b 48 08	 mov	 ecx, DWORD PTR [eax+8]
  00700	89 4d e8	 mov	 DWORD PTR _lrect$[ebp+8], ecx
  00703	8b 50 0c	 mov	 edx, DWORD PTR [eax+12]
  00706	89 55 ec	 mov	 DWORD PTR _lrect$[ebp+12], edx

; 157  : 
; 158  : 	UINT liAlign = GetTextAlign(lpDrawItemStruct->hDC);

  00709	8b 45 0c	 mov	 eax, DWORD PTR _lpDrawItemStruct$[ebp]
  0070c	8b 48 18	 mov	 ecx, DWORD PTR [eax+24]
  0070f	51		 push	 ecx
  00710	ff 15 00 00 00
	00		 call	 DWORD PTR __imp__GetTextAlign@4
  00716	89 45 dc	 mov	 DWORD PTR _liAlign$[ebp], eax

; 159  : 
; 160  : 
; 161  : 	CDC* lpDC = NULL;

  00719	c7 45 f0 00 00
	00 00		 mov	 DWORD PTR _lpDC$[ebp], 0

; 162  : 	lpDC = CDC::FromHandle(lpDrawItemStruct->hDC);

  00720	8b 55 0c	 mov	 edx, DWORD PTR _lpDrawItemStruct$[ebp]
  00723	8b 42 18	 mov	 eax, DWORD PTR [edx+24]
  00726	50		 push	 eax
  00727	e8 00 00 00 00	 call	 ?FromHandle@CDC@@SGPAV1@PAUHDC__@@@Z ; CDC::FromHandle
  0072c	89 45 f0	 mov	 DWORD PTR _lpDC$[ebp], eax

; 163  : 
; 164  : 	//lpDC->FillSolidRect(&lrect, RGB(255,255,255));
; 165  : 
; 166  : 	lpDC->SetTextColor(gWndColor.getColor(COLOL_CTROL)->structColBase->colFont);

  0072f	6a 05		 push	 5
  00731	b9 00 00 00 00	 mov	 ecx, OFFSET FLAT:?gWndColor@@3VCWndColorMgr@@A ; gWndColor
  00736	e8 00 00 00 00	 call	 ?getColor@CWndColorMgr@@QAEPAUCtrColBase@@I@Z ; CWndColorMgr::getColor
  0073b	8b 08		 mov	 ecx, DWORD PTR [eax]
  0073d	8b 51 0c	 mov	 edx, DWORD PTR [ecx+12]
  00740	52		 push	 edx
  00741	8b 45 f0	 mov	 eax, DWORD PTR _lpDC$[ebp]
  00744	8b 10		 mov	 edx, DWORD PTR [eax]
  00746	8b 4d f0	 mov	 ecx, DWORD PTR _lpDC$[ebp]
  00749	ff 52 38	 call	 DWORD PTR [edx+56]

; 167  : 
; 168  : 	UINT lState = lpDrawItemStruct->itemState;	

  0074c	8b 45 0c	 mov	 eax, DWORD PTR _lpDrawItemStruct$[ebp]
  0074f	8b 48 10	 mov	 ecx, DWORD PTR [eax+16]
  00752	89 4d d8	 mov	 DWORD PTR _lState$[ebp], ecx

; 169  : 	bool bSelect= ((CSkinButton*)apWnd)->m_bSelected;

  00755	8b 55 08	 mov	 edx, DWORD PTR _apWnd$[ebp]
  00758	8a 82 f0 00 00
	00		 mov	 al, BYTE PTR [edx+240]
  0075e	88 45 d7	 mov	 BYTE PTR _bSelect$[ebp], al

; 170  : 
; 171  : 	if( !(lState & ODS_DISABLED))

  00761	8b 4d d8	 mov	 ecx, DWORD PTR _lState$[ebp]
  00764	83 e1 04	 and	 ecx, 4
  00767	0f 85 49 03 00
	00		 jne	 $L198204

; 172  : 	{
; 173  : 		if (lState & ODS_SELECTED || bSelect )

  0076d	8b 55 d8	 mov	 edx, DWORD PTR _lState$[ebp]
  00770	83 e2 01	 and	 edx, 1
  00773	75 0c		 jne	 SHORT $L198206
  00775	0f b6 45 d7	 movzx	 eax, BYTE PTR _bSelect$[ebp]
  00779	85 c0		 test	 eax, eax
  0077b	0f 84 c0 00 00
	00		 je	 $L198205
$L198206:

; 174  : 		{
; 175  : 			// NORMAL 
; 176  : 			if( CSkinButton::COLLOR_BOTTON == m_bottonType)

  00781	83 7d 10 01	 cmp	 DWORD PTR _m_bottonType$[ebp], 1
  00785	75 27		 jne	 SHORT $L198207

; 177  : 			{
; 178  : 				DrawColorNormal( lpDrawItemStruct->hDC,lrect,astrTitle,acolBegain,acolEnd);

  00787	8d 4d 20	 lea	 ecx, DWORD PTR _acolEnd$[ebp]
  0078a	51		 push	 ecx
  0078b	8d 55 1c	 lea	 edx, DWORD PTR _acolBegain$[ebp]
  0078e	52		 push	 edx
  0078f	8b 45 18	 mov	 eax, DWORD PTR _astrTitle$[ebp]
  00792	50		 push	 eax
  00793	8d 4d e0	 lea	 ecx, DWORD PTR _lrect$[ebp]
  00796	51		 push	 ecx
  00797	8b 55 0c	 mov	 edx, DWORD PTR _lpDrawItemStruct$[ebp]
  0079a	83 c2 18	 add	 edx, 24			; 00000018H
  0079d	52		 push	 edx
  0079e	8b 8d 64 ff ff
	ff		 mov	 ecx, DWORD PTR _this$[ebp]
  007a4	e8 00 00 00 00	 call	 ?DrawColorNormal@CButtonDraw@@IAEXAAPAUHDC__@@AAUtagRECT@@AAV?$CStringT@DV?$StrTraitMFC_DLL@DV?$ChTraitsCRT@D@ATL@@@@@ATL@@AAK3@Z ; CButtonDraw::DrawColorNormal

; 179  : 			}
; 180  : 			else if( CSkinButton::SKIN_BOTTON == m_bottonType)

  007a9	e9 8e 00 00 00	 jmp	 $L198208
$L198207:
  007ae	83 7d 10 00	 cmp	 DWORD PTR _m_bottonType$[ebp], 0
  007b2	75 20		 jne	 SHORT $L198209

; 181  : 			{
; 182  : 				DrawSkinEnter( lpDrawItemStruct->hDC,lrect,astrTitle,aBitMap);

  007b4	8b 45 24	 mov	 eax, DWORD PTR _aBitMap$[ebp]
  007b7	50		 push	 eax
  007b8	8b 4d 18	 mov	 ecx, DWORD PTR _astrTitle$[ebp]
  007bb	51		 push	 ecx
  007bc	8d 55 e0	 lea	 edx, DWORD PTR _lrect$[ebp]
  007bf	52		 push	 edx
  007c0	8b 45 0c	 mov	 eax, DWORD PTR _lpDrawItemStruct$[ebp]
  007c3	83 c0 18	 add	 eax, 24			; 00000018H
  007c6	50		 push	 eax
  007c7	8b 8d 64 ff ff
	ff		 mov	 ecx, DWORD PTR _this$[ebp]
  007cd	e8 00 00 00 00	 call	 ?DrawSkinEnter@CButtonDraw@@IAEXAAPAUHDC__@@AAUtagRECT@@AAV?$CStringT@DV?$StrTraitMFC_DLL@DV?$ChTraitsCRT@D@ATL@@@@@ATL@@PAVCBitmap@@@Z ; CButtonDraw::DrawSkinEnter

; 183  : 			}
; 184  : 			else if( CSkinButton::DEFAULT_BOTTON == m_bottonType)

  007d2	eb 68		 jmp	 SHORT $L198208
$L198209:
  007d4	83 7d 10 02	 cmp	 DWORD PTR _m_bottonType$[ebp], 2
  007d8	75 1c		 jne	 SHORT $L198211

; 185  : 			{
; 186  : 				DrawDefaultButtonNormal( lpDrawItemStruct->hDC,lrect,astrTitle);

  007da	8b 4d 18	 mov	 ecx, DWORD PTR _astrTitle$[ebp]
  007dd	51		 push	 ecx
  007de	8d 55 e0	 lea	 edx, DWORD PTR _lrect$[ebp]
  007e1	52		 push	 edx
  007e2	8b 45 0c	 mov	 eax, DWORD PTR _lpDrawItemStruct$[ebp]
  007e5	83 c0 18	 add	 eax, 24			; 00000018H
  007e8	50		 push	 eax
  007e9	8b 8d 64 ff ff
	ff		 mov	 ecx, DWORD PTR _this$[ebp]
  007ef	e8 00 00 00 00	 call	 ?DrawDefaultButtonNormal@CButtonDraw@@IAEXAAPAUHDC__@@AAUtagRECT@@AAV?$CStringT@DV?$StrTraitMFC_DLL@DV?$ChTraitsCRT@D@ATL@@@@@ATL@@@Z ; CButtonDraw::DrawDefaultButtonNormal

; 187  : 			}
; 188  : 			else if( CSkinButton::CLOSE_BOTTON == m_bottonType )

  007f4	eb 46		 jmp	 SHORT $L198208
$L198211:
  007f6	83 7d 10 03	 cmp	 DWORD PTR _m_bottonType$[ebp], 3
  007fa	75 18		 jne	 SHORT $L198213

; 189  : 			{
; 190  : 				DrawExitButtonNormal( lpDrawItemStruct->hDC,lrect );

  007fc	8d 4d e0	 lea	 ecx, DWORD PTR _lrect$[ebp]
  007ff	51		 push	 ecx
  00800	8b 55 0c	 mov	 edx, DWORD PTR _lpDrawItemStruct$[ebp]
  00803	83 c2 18	 add	 edx, 24			; 00000018H
  00806	52		 push	 edx
  00807	8b 8d 64 ff ff
	ff		 mov	 ecx, DWORD PTR _this$[ebp]
  0080d	e8 00 00 00 00	 call	 ?DrawExitButtonNormal@CButtonDraw@@IAEXAAPAUHDC__@@AAUtagRECT@@@Z ; CButtonDraw::DrawExitButtonNormal

; 191  : 			}
; 192  : 			else if( CSkinButton::COLOR_NOTEXT_BOTTON == m_bottonType )

  00812	eb 28		 jmp	 SHORT $L198208
$L198213:
  00814	83 7d 10 04	 cmp	 DWORD PTR _m_bottonType$[ebp], 4
  00818	75 22		 jne	 SHORT $L198208

; 193  : 			{
; 194  : 				DrawColorNoTextNormal( lpDrawItemStruct->hDC,lrect,astrTitle,acolBegain,acolEnd);

  0081a	8d 45 20	 lea	 eax, DWORD PTR _acolEnd$[ebp]
  0081d	50		 push	 eax
  0081e	8d 4d 1c	 lea	 ecx, DWORD PTR _acolBegain$[ebp]
  00821	51		 push	 ecx
  00822	8b 55 18	 mov	 edx, DWORD PTR _astrTitle$[ebp]
  00825	52		 push	 edx
  00826	8d 45 e0	 lea	 eax, DWORD PTR _lrect$[ebp]
  00829	50		 push	 eax
  0082a	8b 4d 0c	 mov	 ecx, DWORD PTR _lpDrawItemStruct$[ebp]
  0082d	83 c1 18	 add	 ecx, 24			; 00000018H
  00830	51		 push	 ecx
  00831	8b 8d 64 ff ff
	ff		 mov	 ecx, DWORD PTR _this$[ebp]
  00837	e8 00 00 00 00	 call	 ?DrawColorNoTextNormal@CButtonDraw@@IAEXAAPAUHDC__@@AAUtagRECT@@AAV?$CStringT@DV?$StrTraitMFC_DLL@DV?$ChTraitsCRT@D@ATL@@@@@ATL@@AAK3@Z ; CButtonDraw::DrawColorNoTextNormal
$L198208:

; 195  : 			}
; 196  : 		}
; 197  : 		else if (abMouseOnButton)

  0083c	e9 73 02 00 00	 jmp	 $L198216
$L198205:
  00841	83 7d 14 00	 cmp	 DWORD PTR _abMouseOnButton$[ebp], 0
  00845	0f 84 e2 00 00
	00		 je	 $L198217

; 198  : 		{
; 199  : 			if( CSkinButton::COLLOR_BOTTON == m_bottonType)

  0084b	83 7d 10 01	 cmp	 DWORD PTR _m_bottonType$[ebp], 1
  0084f	75 49		 jne	 SHORT $L198218

; 200  : 			{
; 201  : 				DrawColorNormal( lpDrawItemStruct->hDC,lrect,astrTitle,acolBegain,acolEnd);

  00851	8d 55 20	 lea	 edx, DWORD PTR _acolEnd$[ebp]
  00854	52		 push	 edx
  00855	8d 45 1c	 lea	 eax, DWORD PTR _acolBegain$[ebp]
  00858	50		 push	 eax
  00859	8b 4d 18	 mov	 ecx, DWORD PTR _astrTitle$[ebp]
  0085c	51		 push	 ecx
  0085d	8d 55 e0	 lea	 edx, DWORD PTR _lrect$[ebp]
  00860	52		 push	 edx
  00861	8b 45 0c	 mov	 eax, DWORD PTR _lpDrawItemStruct$[ebp]
  00864	83 c0 18	 add	 eax, 24			; 00000018H
  00867	50		 push	 eax
  00868	8b 8d 64 ff ff
	ff		 mov	 ecx, DWORD PTR _this$[ebp]
  0086e	e8 00 00 00 00	 call	 ?DrawColorNormal@CButtonDraw@@IAEXAAPAUHDC__@@AAUtagRECT@@AAV?$CStringT@DV?$StrTraitMFC_DLL@DV?$ChTraitsCRT@D@ATL@@@@@ATL@@AAK3@Z ; CButtonDraw::DrawColorNormal

; 202  : 				DrawColorEnter( lpDrawItemStruct->hDC,lrect,astrTitle,acolBegain,acolEnd);

  00873	8d 4d 20	 lea	 ecx, DWORD PTR _acolEnd$[ebp]
  00876	51		 push	 ecx
  00877	8d 55 1c	 lea	 edx, DWORD PTR _acolBegain$[ebp]
  0087a	52		 push	 edx
  0087b	8b 45 18	 mov	 eax, DWORD PTR _astrTitle$[ebp]
  0087e	50		 push	 eax
  0087f	8d 4d e0	 lea	 ecx, DWORD PTR _lrect$[ebp]
  00882	51		 push	 ecx
  00883	8b 55 0c	 mov	 edx, DWORD PTR _lpDrawItemStruct$[ebp]
  00886	83 c2 18	 add	 edx, 24			; 00000018H
  00889	52		 push	 edx
  0088a	8b 8d 64 ff ff
	ff		 mov	 ecx, DWORD PTR _this$[ebp]
  00890	e8 00 00 00 00	 call	 ?DrawColorEnter@CButtonDraw@@IAEXAAPAUHDC__@@AAUtagRECT@@AAV?$CStringT@DV?$StrTraitMFC_DLL@DV?$ChTraitsCRT@D@ATL@@@@@ATL@@AAK3@Z ; CButtonDraw::DrawColorEnter

; 203  : 			}
; 204  : 			else if( CSkinButton::SKIN_BOTTON == m_bottonType)

  00895	e9 8e 00 00 00	 jmp	 $L198219
$L198218:
  0089a	83 7d 10 00	 cmp	 DWORD PTR _m_bottonType$[ebp], 0
  0089e	75 20		 jne	 SHORT $L198220

; 205  : 			{
; 206  : 				//DrawSkinNormal( lpDrawItemStruct->hDC,lrect,astrTitle,aBitMap);
; 207  : 				DrawSkinEnter( lpDrawItemStruct->hDC,lrect,astrTitle,aBitMap);

  008a0	8b 45 24	 mov	 eax, DWORD PTR _aBitMap$[ebp]
  008a3	50		 push	 eax
  008a4	8b 4d 18	 mov	 ecx, DWORD PTR _astrTitle$[ebp]
  008a7	51		 push	 ecx
  008a8	8d 55 e0	 lea	 edx, DWORD PTR _lrect$[ebp]
  008ab	52		 push	 edx
  008ac	8b 45 0c	 mov	 eax, DWORD PTR _lpDrawItemStruct$[ebp]
  008af	83 c0 18	 add	 eax, 24			; 00000018H
  008b2	50		 push	 eax
  008b3	8b 8d 64 ff ff
	ff		 mov	 ecx, DWORD PTR _this$[ebp]
  008b9	e8 00 00 00 00	 call	 ?DrawSkinEnter@CButtonDraw@@IAEXAAPAUHDC__@@AAUtagRECT@@AAV?$CStringT@DV?$StrTraitMFC_DLL@DV?$ChTraitsCRT@D@ATL@@@@@ATL@@PAVCBitmap@@@Z ; CButtonDraw::DrawSkinEnter

; 208  : 			}
; 209  : 			else if( CSkinButton::DEFAULT_BOTTON == m_bottonType)

  008be	eb 68		 jmp	 SHORT $L198219
$L198220:
  008c0	83 7d 10 02	 cmp	 DWORD PTR _m_bottonType$[ebp], 2
  008c4	75 1c		 jne	 SHORT $L198222

; 210  : 			{
; 211  : 				DrawDefaultButtonEnter( lpDrawItemStruct->hDC,lrect,astrTitle);

  008c6	8b 4d 18	 mov	 ecx, DWORD PTR _astrTitle$[ebp]
  008c9	51		 push	 ecx
  008ca	8d 55 e0	 lea	 edx, DWORD PTR _lrect$[ebp]
  008cd	52		 push	 edx
  008ce	8b 45 0c	 mov	 eax, DWORD PTR _lpDrawItemStruct$[ebp]
  008d1	83 c0 18	 add	 eax, 24			; 00000018H
  008d4	50		 push	 eax
  008d5	8b 8d 64 ff ff
	ff		 mov	 ecx, DWORD PTR _this$[ebp]
  008db	e8 00 00 00 00	 call	 ?DrawDefaultButtonEnter@CButtonDraw@@IAEXAAPAUHDC__@@AAUtagRECT@@AAV?$CStringT@DV?$StrTraitMFC_DLL@DV?$ChTraitsCRT@D@ATL@@@@@ATL@@@Z ; CButtonDraw::DrawDefaultButtonEnter

; 212  : 			}
; 213  : 			else if( CSkinButton::CLOSE_BOTTON == m_bottonType )

  008e0	eb 46		 jmp	 SHORT $L198219
$L198222:
  008e2	83 7d 10 03	 cmp	 DWORD PTR _m_bottonType$[ebp], 3
  008e6	75 18		 jne	 SHORT $L198224

; 214  : 			{
; 215  : 				DrawExitButtonEnter( lpDrawItemStruct->hDC,lrect);

  008e8	8d 4d e0	 lea	 ecx, DWORD PTR _lrect$[ebp]
  008eb	51		 push	 ecx
  008ec	8b 55 0c	 mov	 edx, DWORD PTR _lpDrawItemStruct$[ebp]
  008ef	83 c2 18	 add	 edx, 24			; 00000018H
  008f2	52		 push	 edx
  008f3	8b 8d 64 ff ff
	ff		 mov	 ecx, DWORD PTR _this$[ebp]
  008f9	e8 00 00 00 00	 call	 ?DrawExitButtonEnter@CButtonDraw@@IAEXAAPAUHDC__@@AAUtagRECT@@@Z ; CButtonDraw::DrawExitButtonEnter

; 216  : 			}
; 217  : 			else if( CSkinButton::COLOR_NOTEXT_BOTTON == m_bottonType )

  008fe	eb 28		 jmp	 SHORT $L198219
$L198224:
  00900	83 7d 10 04	 cmp	 DWORD PTR _m_bottonType$[ebp], 4
  00904	75 22		 jne	 SHORT $L198219

; 218  : 			{
; 219  : 				DrawColorNoTextEnter( lpDrawItemStruct->hDC,lrect,astrTitle,acolBegain,acolEnd );

  00906	8d 45 20	 lea	 eax, DWORD PTR _acolEnd$[ebp]
  00909	50		 push	 eax
  0090a	8d 4d 1c	 lea	 ecx, DWORD PTR _acolBegain$[ebp]
  0090d	51		 push	 ecx
  0090e	8b 55 18	 mov	 edx, DWORD PTR _astrTitle$[ebp]
  00911	52		 push	 edx
  00912	8d 45 e0	 lea	 eax, DWORD PTR _lrect$[ebp]
  00915	50		 push	 eax
  00916	8b 4d 0c	 mov	 ecx, DWORD PTR _lpDrawItemStruct$[ebp]
  00919	83 c1 18	 add	 ecx, 24			; 00000018H
  0091c	51		 push	 ecx
  0091d	8b 8d 64 ff ff
	ff		 mov	 ecx, DWORD PTR _this$[ebp]
  00923	e8 00 00 00 00	 call	 ?DrawColorNoTextEnter@CButtonDraw@@IAEXAAPAUHDC__@@AAUtagRECT@@AAV?$CStringT@DV?$StrTraitMFC_DLL@DV?$ChTraitsCRT@D@ATL@@@@@ATL@@AAK3@Z ; CButtonDraw::DrawColorNoTextEnter
$L198219:

; 220  : 			}
; 221  : 		}
; 222  : 		else if (lState & ODS_FOCUS)

  00928	e9 87 01 00 00	 jmp	 $L198216
$L198217:
  0092d	8b 55 d8	 mov	 edx, DWORD PTR _lState$[ebp]
  00930	83 e2 10	 and	 edx, 16			; 00000010H
  00933	0f 84 c0 00 00
	00		 je	 $L198228

; 223  : 		{
; 224  : 			//Focused
; 225  : 			if( CSkinButton::COLLOR_BOTTON == m_bottonType)

  00939	83 7d 10 01	 cmp	 DWORD PTR _m_bottonType$[ebp], 1
  0093d	75 27		 jne	 SHORT $L198229

; 226  : 			{
; 227  : 				DrawColorNormal( lpDrawItemStruct->hDC,lrect,astrTitle,acolBegain,acolEnd);

  0093f	8d 45 20	 lea	 eax, DWORD PTR _acolEnd$[ebp]
  00942	50		 push	 eax
  00943	8d 4d 1c	 lea	 ecx, DWORD PTR _acolBegain$[ebp]
  00946	51		 push	 ecx
  00947	8b 55 18	 mov	 edx, DWORD PTR _astrTitle$[ebp]
  0094a	52		 push	 edx
  0094b	8d 45 e0	 lea	 eax, DWORD PTR _lrect$[ebp]
  0094e	50		 push	 eax
  0094f	8b 4d 0c	 mov	 ecx, DWORD PTR _lpDrawItemStruct$[ebp]
  00952	83 c1 18	 add	 ecx, 24			; 00000018H
  00955	51		 push	 ecx
  00956	8b 8d 64 ff ff
	ff		 mov	 ecx, DWORD PTR _this$[ebp]
  0095c	e8 00 00 00 00	 call	 ?DrawColorNormal@CButtonDraw@@IAEXAAPAUHDC__@@AAUtagRECT@@AAV?$CStringT@DV?$StrTraitMFC_DLL@DV?$ChTraitsCRT@D@ATL@@@@@ATL@@AAK3@Z ; CButtonDraw::DrawColorNormal

; 228  : 			}
; 229  : 			else if( CSkinButton::SKIN_BOTTON == m_bottonType)

  00961	e9 8e 00 00 00	 jmp	 $L198230
$L198229:
  00966	83 7d 10 00	 cmp	 DWORD PTR _m_bottonType$[ebp], 0
  0096a	75 20		 jne	 SHORT $L198231

; 230  : 			{
; 231  : 				DrawSkinNormal( lpDrawItemStruct->hDC,lrect,astrTitle,aBitMap);

  0096c	8b 55 24	 mov	 edx, DWORD PTR _aBitMap$[ebp]
  0096f	52		 push	 edx
  00970	8b 45 18	 mov	 eax, DWORD PTR _astrTitle$[ebp]
  00973	50		 push	 eax
  00974	8d 4d e0	 lea	 ecx, DWORD PTR _lrect$[ebp]
  00977	51		 push	 ecx
  00978	8b 55 0c	 mov	 edx, DWORD PTR _lpDrawItemStruct$[ebp]
  0097b	83 c2 18	 add	 edx, 24			; 00000018H
  0097e	52		 push	 edx
  0097f	8b 8d 64 ff ff
	ff		 mov	 ecx, DWORD PTR _this$[ebp]
  00985	e8 00 00 00 00	 call	 ?DrawSkinNormal@CButtonDraw@@IAEXAAPAUHDC__@@AAUtagRECT@@AAV?$CStringT@DV?$StrTraitMFC_DLL@DV?$ChTraitsCRT@D@ATL@@@@@ATL@@PAVCBitmap@@@Z ; CButtonDraw::DrawSkinNormal

; 232  : 			}
; 233  : 			else if( CSkinButton::DEFAULT_BOTTON == m_bottonType)

  0098a	eb 68		 jmp	 SHORT $L198230
$L198231:
  0098c	83 7d 10 02	 cmp	 DWORD PTR _m_bottonType$[ebp], 2
  00990	75 1c		 jne	 SHORT $L198233

; 234  : 			{
; 235  : 				DrawDefaultButtonNormal( lpDrawItemStruct->hDC,lrect,astrTitle);

  00992	8b 45 18	 mov	 eax, DWORD PTR _astrTitle$[ebp]
  00995	50		 push	 eax
  00996	8d 4d e0	 lea	 ecx, DWORD PTR _lrect$[ebp]
  00999	51		 push	 ecx
  0099a	8b 55 0c	 mov	 edx, DWORD PTR _lpDrawItemStruct$[ebp]
  0099d	83 c2 18	 add	 edx, 24			; 00000018H
  009a0	52		 push	 edx
  009a1	8b 8d 64 ff ff
	ff		 mov	 ecx, DWORD PTR _this$[ebp]
  009a7	e8 00 00 00 00	 call	 ?DrawDefaultButtonNormal@CButtonDraw@@IAEXAAPAUHDC__@@AAUtagRECT@@AAV?$CStringT@DV?$StrTraitMFC_DLL@DV?$ChTraitsCRT@D@ATL@@@@@ATL@@@Z ; CButtonDraw::DrawDefaultButtonNormal

; 236  : 			}
; 237  : 			else if( CSkinButton::CLOSE_BOTTON == m_bottonType )

  009ac	eb 46		 jmp	 SHORT $L198230
$L198233:
  009ae	83 7d 10 03	 cmp	 DWORD PTR _m_bottonType$[ebp], 3
  009b2	75 18		 jne	 SHORT $L198235

; 238  : 			{
; 239  : 				DrawExitButtonNormal( lpDrawItemStruct->hDC,lrect );

  009b4	8d 45 e0	 lea	 eax, DWORD PTR _lrect$[ebp]
  009b7	50		 push	 eax
  009b8	8b 4d 0c	 mov	 ecx, DWORD PTR _lpDrawItemStruct$[ebp]
  009bb	83 c1 18	 add	 ecx, 24			; 00000018H
  009be	51		 push	 ecx
  009bf	8b 8d 64 ff ff
	ff		 mov	 ecx, DWORD PTR _this$[ebp]
  009c5	e8 00 00 00 00	 call	 ?DrawExitButtonNormal@CButtonDraw@@IAEXAAPAUHDC__@@AAUtagRECT@@@Z ; CButtonDraw::DrawExitButtonNormal

; 240  : 			}
; 241  : 			else if( CSkinButton::COLOR_NOTEXT_BOTTON == m_bottonType )

  009ca	eb 28		 jmp	 SHORT $L198230
$L198235:
  009cc	83 7d 10 04	 cmp	 DWORD PTR _m_bottonType$[ebp], 4
  009d0	75 22		 jne	 SHORT $L198230

; 242  : 			{
; 243  : 				DrawColorNoTextNormal( lpDrawItemStruct->hDC,lrect,astrTitle,acolBegain,acolEnd );

  009d2	8d 55 20	 lea	 edx, DWORD PTR _acolEnd$[ebp]
  009d5	52		 push	 edx
  009d6	8d 45 1c	 lea	 eax, DWORD PTR _acolBegain$[ebp]
  009d9	50		 push	 eax
  009da	8b 4d 18	 mov	 ecx, DWORD PTR _astrTitle$[ebp]
  009dd	51		 push	 ecx
  009de	8d 55 e0	 lea	 edx, DWORD PTR _lrect$[ebp]
  009e1	52		 push	 edx
  009e2	8b 45 0c	 mov	 eax, DWORD PTR _lpDrawItemStruct$[ebp]
  009e5	83 c0 18	 add	 eax, 24			; 00000018H
  009e8	50		 push	 eax
  009e9	8b 8d 64 ff ff
	ff		 mov	 ecx, DWORD PTR _this$[ebp]
  009ef	e8 00 00 00 00	 call	 ?DrawColorNoTextNormal@CButtonDraw@@IAEXAAPAUHDC__@@AAUtagRECT@@AAV?$CStringT@DV?$StrTraitMFC_DLL@DV?$ChTraitsCRT@D@ATL@@@@@ATL@@AAK3@Z ; CButtonDraw::DrawColorNoTextNormal
$L198230:

; 244  : 			}
; 245  : 		}
; 246  : 		else

  009f4	e9 bb 00 00 00	 jmp	 $L198216
$L198228:

; 247  : 		{
; 248  : 			if( CSkinButton::COLLOR_BOTTON == m_bottonType)

  009f9	83 7d 10 01	 cmp	 DWORD PTR _m_bottonType$[ebp], 1
  009fd	75 27		 jne	 SHORT $L198239

; 249  : 			{
; 250  : 				DrawColorNormal( lpDrawItemStruct->hDC,lrect,astrTitle,acolBegain,acolEnd);

  009ff	8d 4d 20	 lea	 ecx, DWORD PTR _acolEnd$[ebp]
  00a02	51		 push	 ecx
  00a03	8d 55 1c	 lea	 edx, DWORD PTR _acolBegain$[ebp]
  00a06	52		 push	 edx
  00a07	8b 45 18	 mov	 eax, DWORD PTR _astrTitle$[ebp]
  00a0a	50		 push	 eax
  00a0b	8d 4d e0	 lea	 ecx, DWORD PTR _lrect$[ebp]
  00a0e	51		 push	 ecx
  00a0f	8b 55 0c	 mov	 edx, DWORD PTR _lpDrawItemStruct$[ebp]
  00a12	83 c2 18	 add	 edx, 24			; 00000018H
  00a15	52		 push	 edx
  00a16	8b 8d 64 ff ff
	ff		 mov	 ecx, DWORD PTR _this$[ebp]
  00a1c	e8 00 00 00 00	 call	 ?DrawColorNormal@CButtonDraw@@IAEXAAPAUHDC__@@AAUtagRECT@@AAV?$CStringT@DV?$StrTraitMFC_DLL@DV?$ChTraitsCRT@D@ATL@@@@@ATL@@AAK3@Z ; CButtonDraw::DrawColorNormal

; 251  : 			}
; 252  : 			else if( CSkinButton::SKIN_BOTTON == m_bottonType)

  00a21	e9 8e 00 00 00	 jmp	 $L198216
$L198239:
  00a26	83 7d 10 00	 cmp	 DWORD PTR _m_bottonType$[ebp], 0
  00a2a	75 20		 jne	 SHORT $L198241

; 253  : 			{
; 254  : 				DrawSkinNormal( lpDrawItemStruct->hDC,lrect,astrTitle,aBitMap);

  00a2c	8b 45 24	 mov	 eax, DWORD PTR _aBitMap$[ebp]
  00a2f	50		 push	 eax
  00a30	8b 4d 18	 mov	 ecx, DWORD PTR _astrTitle$[ebp]
  00a33	51		 push	 ecx
  00a34	8d 55 e0	 lea	 edx, DWORD PTR _lrect$[ebp]
  00a37	52		 push	 edx
  00a38	8b 45 0c	 mov	 eax, DWORD PTR _lpDrawItemStruct$[ebp]
  00a3b	83 c0 18	 add	 eax, 24			; 00000018H
  00a3e	50		 push	 eax
  00a3f	8b 8d 64 ff ff
	ff		 mov	 ecx, DWORD PTR _this$[ebp]
  00a45	e8 00 00 00 00	 call	 ?DrawSkinNormal@CButtonDraw@@IAEXAAPAUHDC__@@AAUtagRECT@@AAV?$CStringT@DV?$StrTraitMFC_DLL@DV?$ChTraitsCRT@D@ATL@@@@@ATL@@PAVCBitmap@@@Z ; CButtonDraw::DrawSkinNormal

; 255  : 			}
; 256  : 			else if( CSkinButton::DEFAULT_BOTTON == m_bottonType)

  00a4a	eb 68		 jmp	 SHORT $L198216
$L198241:
  00a4c	83 7d 10 02	 cmp	 DWORD PTR _m_bottonType$[ebp], 2
  00a50	75 1c		 jne	 SHORT $L198243

; 257  : 			{
; 258  : 				DrawDefaultButtonNormal( lpDrawItemStruct->hDC,lrect,astrTitle);

  00a52	8b 4d 18	 mov	 ecx, DWORD PTR _astrTitle$[ebp]
  00a55	51		 push	 ecx
  00a56	8d 55 e0	 lea	 edx, DWORD PTR _lrect$[ebp]
  00a59	52		 push	 edx
  00a5a	8b 45 0c	 mov	 eax, DWORD PTR _lpDrawItemStruct$[ebp]
  00a5d	83 c0 18	 add	 eax, 24			; 00000018H
  00a60	50		 push	 eax
  00a61	8b 8d 64 ff ff
	ff		 mov	 ecx, DWORD PTR _this$[ebp]
  00a67	e8 00 00 00 00	 call	 ?DrawDefaultButtonNormal@CButtonDraw@@IAEXAAPAUHDC__@@AAUtagRECT@@AAV?$CStringT@DV?$StrTraitMFC_DLL@DV?$ChTraitsCRT@D@ATL@@@@@ATL@@@Z ; CButtonDraw::DrawDefaultButtonNormal

; 259  : 			}
; 260  : 			else if( CSkinButton::CLOSE_BOTTON == m_bottonType )

  00a6c	eb 46		 jmp	 SHORT $L198216
$L198243:
  00a6e	83 7d 10 03	 cmp	 DWORD PTR _m_bottonType$[ebp], 3
  00a72	75 18		 jne	 SHORT $L198245

; 261  : 			{
; 262  : 				DrawExitButtonNormal( lpDrawItemStruct->hDC,lrect );

  00a74	8d 4d e0	 lea	 ecx, DWORD PTR _lrect$[ebp]
  00a77	51		 push	 ecx
  00a78	8b 55 0c	 mov	 edx, DWORD PTR _lpDrawItemStruct$[ebp]
  00a7b	83 c2 18	 add	 edx, 24			; 00000018H
  00a7e	52		 push	 edx
  00a7f	8b 8d 64 ff ff
	ff		 mov	 ecx, DWORD PTR _this$[ebp]
  00a85	e8 00 00 00 00	 call	 ?DrawExitButtonNormal@CButtonDraw@@IAEXAAPAUHDC__@@AAUtagRECT@@@Z ; CButtonDraw::DrawExitButtonNormal

; 263  : 			}
; 264  : 			else if( CSkinButton::COLOR_NOTEXT_BOTTON == m_bottonType )

  00a8a	eb 28		 jmp	 SHORT $L198216
$L198245:
  00a8c	83 7d 10 04	 cmp	 DWORD PTR _m_bottonType$[ebp], 4
  00a90	75 22		 jne	 SHORT $L198216

; 265  : 			{
; 266  : 				DrawColorNoTextNormal( lpDrawItemStruct->hDC,lrect,astrTitle,acolBegain,acolEnd );

  00a92	8d 45 20	 lea	 eax, DWORD PTR _acolEnd$[ebp]
  00a95	50		 push	 eax
  00a96	8d 4d 1c	 lea	 ecx, DWORD PTR _acolBegain$[ebp]
  00a99	51		 push	 ecx
  00a9a	8b 55 18	 mov	 edx, DWORD PTR _astrTitle$[ebp]
  00a9d	52		 push	 edx
  00a9e	8d 45 e0	 lea	 eax, DWORD PTR _lrect$[ebp]
  00aa1	50		 push	 eax
  00aa2	8b 4d 0c	 mov	 ecx, DWORD PTR _lpDrawItemStruct$[ebp]
  00aa5	83 c1 18	 add	 ecx, 24			; 00000018H
  00aa8	51		 push	 ecx
  00aa9	8b 8d 64 ff ff
	ff		 mov	 ecx, DWORD PTR _this$[ebp]
  00aaf	e8 00 00 00 00	 call	 ?DrawColorNoTextNormal@CButtonDraw@@IAEXAAPAUHDC__@@AAUtagRECT@@AAV?$CStringT@DV?$StrTraitMFC_DLL@DV?$ChTraitsCRT@D@ATL@@@@@ATL@@AAK3@Z ; CButtonDraw::DrawColorNoTextNormal
$L198216:

; 267  : 			}
; 268  : 		}
; 269  : 	}
; 270  : 	else

  00ab4	eb 24		 jmp	 SHORT $L198248
$L198204:

; 271  : 	{
; 272  : 		if( CSkinButton::SKIN_BOTTON == m_bottonType )

  00ab6	83 7d 10 00	 cmp	 DWORD PTR _m_bottonType$[ebp], 0
  00aba	75 1e		 jne	 SHORT $L198248

; 273  : 		{
; 274  : 			DrawSkinNormal( lpDrawItemStruct->hDC,lrect,astrTitle,aBitMap);

  00abc	8b 55 24	 mov	 edx, DWORD PTR _aBitMap$[ebp]
  00abf	52		 push	 edx
  00ac0	8b 45 18	 mov	 eax, DWORD PTR _astrTitle$[ebp]
  00ac3	50		 push	 eax
  00ac4	8d 4d e0	 lea	 ecx, DWORD PTR _lrect$[ebp]
  00ac7	51		 push	 ecx
  00ac8	8b 55 0c	 mov	 edx, DWORD PTR _lpDrawItemStruct$[ebp]
  00acb	83 c2 18	 add	 edx, 24			; 00000018H
  00ace	52		 push	 edx
  00acf	8b 8d 64 ff ff
	ff		 mov	 ecx, DWORD PTR _this$[ebp]
  00ad5	e8 00 00 00 00	 call	 ?DrawSkinNormal@CButtonDraw@@IAEXAAPAUHDC__@@AAUtagRECT@@AAV?$CStringT@DV?$StrTraitMFC_DLL@DV?$ChTraitsCRT@D@ATL@@@@@ATL@@PAVCBitmap@@@Z ; CButtonDraw::DrawSkinNormal
$L198248:

; 275  : 		}
; 276  : 	}
; 277  : 
; 278  : 
; 279  : 	// draw text
; 280  : 	SetBkMode(lpDrawItemStruct->hDC, TRANSPARENT);

  00ada	6a 01		 push	 1
  00adc	8b 45 0c	 mov	 eax, DWORD PTR _lpDrawItemStruct$[ebp]
  00adf	8b 48 18	 mov	 ecx, DWORD PTR [eax+24]
  00ae2	51		 push	 ecx
  00ae3	ff 15 00 00 00
	00		 call	 DWORD PTR __imp__SetBkMode@8

; 281  : 	LOGFONT  lf;
; 282  : 	ZeroMemory(&lf,sizeof(lf));

  00ae9	6a 3c		 push	 60			; 0000003cH
  00aeb	6a 00		 push	 0
  00aed	8d 55 94	 lea	 edx, DWORD PTR _lf$[ebp]
  00af0	52		 push	 edx
  00af1	e8 00 00 00 00	 call	 _memset
  00af6	83 c4 0c	 add	 esp, 12			; 0000000cH

; 283  : 	lf.lfHeight=-12;//-MulDiv(9,GetDeviceCaps(lpDC->m_hDC,LOGPIXELSY),72);

  00af9	c7 45 94 f4 ff
	ff ff		 mov	 DWORD PTR _lf$[ebp], -12 ; fffffff4H

; 284  : 	lf.lfWeight=FW_NORMAL;

  00b00	c7 45 a4 90 01
	00 00		 mov	 DWORD PTR _lf$[ebp+16], 400 ; 00000190H

; 285  : 	lf.lfCharSet=GB2312_CHARSET;

  00b07	c6 45 ab 86	 mov	 BYTE PTR _lf$[ebp+23], 134 ; 00000086H

; 286  : 	lf.lfOutPrecision=OUT_DEFAULT_PRECIS;

  00b0b	c6 45 ac 00	 mov	 BYTE PTR _lf$[ebp+24], 0

; 287  : 	lf.lfClipPrecision=CLIP_DEFAULT_PRECIS;

  00b0f	c6 45 ad 00	 mov	 BYTE PTR _lf$[ebp+25], 0

; 288  : 	lf.lfQuality=DEFAULT_QUALITY;

  00b13	c6 45 ae 00	 mov	 BYTE PTR _lf$[ebp+26], 0

; 289  : 	lf.lfPitchAndFamily=FF_DONTCARE | DEFAULT_PITCH;

  00b17	c6 45 af 00	 mov	 BYTE PTR _lf$[ebp+27], 0

; 290  : 	CFont font;

  00b1b	8d 4d 8c	 lea	 ecx, DWORD PTR _font$[ebp]
  00b1e	e8 00 00 00 00	 call	 ??0CFont@@QAE@XZ	; CFont::CFont
  00b23	c7 45 fc 00 00
	00 00		 mov	 DWORD PTR __$EHRec$[ebp+8], 0

; 291  : 	font.CreateFontIndirect(&lf);

  00b2a	8d 45 94	 lea	 eax, DWORD PTR _lf$[ebp]
  00b2d	50		 push	 eax
  00b2e	8d 4d 8c	 lea	 ecx, DWORD PTR _font$[ebp]
  00b31	e8 00 00 00 00	 call	 ?CreateFontIndirectA@CFont@@QAEHPBUtagLOGFONTA@@@Z ; CFont::CreateFontIndirectA

; 292  : 
; 293  : 	CFont * oldFont = lpDC->SelectObject(&font);

  00b36	8d 4d 8c	 lea	 ecx, DWORD PTR _font$[ebp]
  00b39	51		 push	 ecx
  00b3a	8b 55 f0	 mov	 edx, DWORD PTR _lpDC$[ebp]
  00b3d	8b 02		 mov	 eax, DWORD PTR [edx]
  00b3f	8b 4d f0	 mov	 ecx, DWORD PTR _lpDC$[ebp]
  00b42	ff 50 30	 call	 DWORD PTR [eax+48]
  00b45	89 45 88	 mov	 DWORD PTR _oldFont$[ebp], eax

; 294  : 	if( CSkinButton::COLLOR_BOTTON == m_bottonType)

  00b48	83 7d 10 01	 cmp	 DWORD PTR _m_bottonType$[ebp], 1
  00b4c	75 4e		 jne	 SHORT $L198253

; 295  : 	{
; 296  : 		DrawText(
; 297  : 			lpDrawItemStruct->hDC,
; 298  : 			astrTitle,
; 299  : 			astrTitle.GetLength(),
; 300  : 			CRect(
; 301  : 			lrect.left, 
; 302  : 			lrect.top+LEFT_Y_TEXT_SPACE, 
; 303  : 			lrect.right,
; 304  : 			lrect.top+LEFT_Y_TEXT_SPACE+TEXT_WIDTH
; 305  : 			),
; 306  : 			DT_CENTER | DT_VCENTER | DT_SINGLELINE /*| DT_END_ELLIPSIS*/
; 307  : 			);

  00b4e	6a 25		 push	 37			; 00000025H
  00b50	8b 4d e4	 mov	 ecx, DWORD PTR _lrect$[ebp+4]
  00b53	83 c1 2f	 add	 ecx, 47			; 0000002fH
  00b56	51		 push	 ecx
  00b57	8b 55 e8	 mov	 edx, DWORD PTR _lrect$[ebp+8]
  00b5a	52		 push	 edx
  00b5b	8b 45 e4	 mov	 eax, DWORD PTR _lrect$[ebp+4]
  00b5e	83 c0 14	 add	 eax, 20			; 00000014H
  00b61	50		 push	 eax
  00b62	8b 4d e0	 mov	 ecx, DWORD PTR _lrect$[ebp]
  00b65	51		 push	 ecx
  00b66	8d 8d 78 ff ff
	ff		 lea	 ecx, DWORD PTR $T199276[ebp]
  00b6c	e8 00 00 00 00	 call	 ??0CRect@@QAE@HHHH@Z	; CRect::CRect
  00b71	8b c8		 mov	 ecx, eax
  00b73	e8 00 00 00 00	 call	 ??BCRect@@QAEPAUtagRECT@@XZ ; CRect::operator tagRECT *
  00b78	50		 push	 eax
  00b79	8b 4d 18	 mov	 ecx, DWORD PTR _astrTitle$[ebp]
  00b7c	ff 15 00 00 00
	00		 call	 DWORD PTR __imp_?GetLength@?$CSimpleStringT@D$00@ATL@@QBEHXZ
  00b82	50		 push	 eax
  00b83	8b 4d 18	 mov	 ecx, DWORD PTR _astrTitle$[ebp]
  00b86	ff 15 00 00 00
	00		 call	 DWORD PTR __imp_??B?$CSimpleStringT@D$00@ATL@@QBEPBDXZ
  00b8c	50		 push	 eax
  00b8d	8b 55 0c	 mov	 edx, DWORD PTR _lpDrawItemStruct$[ebp]
  00b90	8b 42 18	 mov	 eax, DWORD PTR [edx+24]
  00b93	50		 push	 eax
  00b94	ff 15 00 00 00
	00		 call	 DWORD PTR __imp__DrawTextA@20

; 308  : 	}
; 309  : 	else if( CSkinButton::SKIN_BOTTON == m_bottonType)

  00b9a	eb 70		 jmp	 SHORT $L198255
$L198253:
  00b9c	83 7d 10 00	 cmp	 DWORD PTR _m_bottonType$[ebp], 0
  00ba0	75 02		 jne	 SHORT $L198256

; 310  : 	{
; 311  : 		/*DrawText(
; 312  : 		lpDrawItemStruct->hDC,
; 313  : 		astrTitle,
; 314  : 		astrTitle.GetLength(),
; 315  : 		CRect(
; 316  : 		lrect.left, 
; 317  : 		lrect.bottom - TEXT_WIDTH,
; 318  : 		lrect.right,
; 319  : 		lrect.bottom
; 320  : 		),
; 321  : 		DT_CENTER | DT_VCENTER | DT_SINGLELINE
; 322  : 		);*/
; 323  : 	}
; 324  : 	else if( CSkinButton::DEFAULT_BOTTON == m_bottonType)

  00ba2	eb 68		 jmp	 SHORT $L198255
$L198256:
  00ba4	83 7d 10 02	 cmp	 DWORD PTR _m_bottonType$[ebp], 2
  00ba8	75 62		 jne	 SHORT $L198255

; 325  : 	{
; 326  : 		lpDC->SetTextColor(gWndColor.getColor(TABLE_CTROL)->structColBase->colFrame1);

  00baa	6a 02		 push	 2
  00bac	b9 00 00 00 00	 mov	 ecx, OFFSET FLAT:?gWndColor@@3VCWndColorMgr@@A ; gWndColor
  00bb1	e8 00 00 00 00	 call	 ?getColor@CWndColorMgr@@QAEPAUCtrColBase@@I@Z ; CWndColorMgr::getColor
  00bb6	8b 08		 mov	 ecx, DWORD PTR [eax]
  00bb8	8b 11		 mov	 edx, DWORD PTR [ecx]
  00bba	52		 push	 edx
  00bbb	8b 45 f0	 mov	 eax, DWORD PTR _lpDC$[ebp]
  00bbe	8b 10		 mov	 edx, DWORD PTR [eax]
  00bc0	8b 4d f0	 mov	 ecx, DWORD PTR _lpDC$[ebp]
  00bc3	ff 52 38	 call	 DWORD PTR [edx+56]

; 327  : 		DrawText(
; 328  : 			lpDrawItemStruct->hDC,
; 329  : 			astrTitle,
; 330  : 			astrTitle.GetLength(),
; 331  : 			CRect(
; 332  : 			lrect.left, 
; 333  : 			lrect.top,
; 334  : 			lrect.right,
; 335  : 			lrect.bottom
; 336  : 			),
; 337  : 			DT_CENTER | DT_VCENTER | DT_SINGLELINE  
; 338  : 			);

  00bc6	6a 25		 push	 37			; 00000025H
  00bc8	8b 45 ec	 mov	 eax, DWORD PTR _lrect$[ebp+12]
  00bcb	50		 push	 eax
  00bcc	8b 4d e8	 mov	 ecx, DWORD PTR _lrect$[ebp+8]
  00bcf	51		 push	 ecx
  00bd0	8b 55 e4	 mov	 edx, DWORD PTR _lrect$[ebp+4]
  00bd3	52		 push	 edx
  00bd4	8b 45 e0	 mov	 eax, DWORD PTR _lrect$[ebp]
  00bd7	50		 push	 eax
  00bd8	8d 8d 68 ff ff
	ff		 lea	 ecx, DWORD PTR $T199277[ebp]
  00bde	e8 00 00 00 00	 call	 ??0CRect@@QAE@HHHH@Z	; CRect::CRect
  00be3	8b c8		 mov	 ecx, eax
  00be5	e8 00 00 00 00	 call	 ??BCRect@@QAEPAUtagRECT@@XZ ; CRect::operator tagRECT *
  00bea	50		 push	 eax
  00beb	8b 4d 18	 mov	 ecx, DWORD PTR _astrTitle$[ebp]
  00bee	ff 15 00 00 00
	00		 call	 DWORD PTR __imp_?GetLength@?$CSimpleStringT@D$00@ATL@@QBEHXZ
  00bf4	50		 push	 eax
  00bf5	8b 4d 18	 mov	 ecx, DWORD PTR _astrTitle$[ebp]
  00bf8	ff 15 00 00 00
	00		 call	 DWORD PTR __imp_??B?$CSimpleStringT@D$00@ATL@@QBEPBDXZ
  00bfe	50		 push	 eax
  00bff	8b 4d 0c	 mov	 ecx, DWORD PTR _lpDrawItemStruct$[ebp]
  00c02	8b 51 18	 mov	 edx, DWORD PTR [ecx+24]
  00c05	52		 push	 edx
  00c06	ff 15 00 00 00
	00		 call	 DWORD PTR __imp__DrawTextA@20
$L198255:

; 339  : 	}
; 340  : 	lpDC->SelectObject(oldFont);

  00c0c	8b 45 88	 mov	 eax, DWORD PTR _oldFont$[ebp]
  00c0f	50		 push	 eax
  00c10	8b 4d f0	 mov	 ecx, DWORD PTR _lpDC$[ebp]
  00c13	8b 11		 mov	 edx, DWORD PTR [ecx]
  00c15	8b 4d f0	 mov	 ecx, DWORD PTR _lpDC$[ebp]
  00c18	ff 52 30	 call	 DWORD PTR [edx+48]

; 341  : }

  00c1b	c7 45 fc ff ff
	ff ff		 mov	 DWORD PTR __$EHRec$[ebp+8], -1
  00c22	8d 4d 8c	 lea	 ecx, DWORD PTR _font$[ebp]
  00c25	e8 00 00 00 00	 call	 ??1CFont@@UAE@XZ	; CFont::~CFont
  00c2a	8b 4d f4	 mov	 ecx, DWORD PTR __$EHRec$[ebp]
  00c2d	64 89 0d 00 00
	00 00		 mov	 DWORD PTR fs:__except_list, ecx
  00c34	8b 4d d0	 mov	 ecx, DWORD PTR __$ArrayPad$[ebp]
  00c37	e8 00 00 00 00	 call	 @__security_check_cookie@4
  00c3c	8b e5		 mov	 esp, ebp
  00c3e	5d		 pop	 ebp
  00c3f	c2 20 00	 ret	 32			; 00000020H
_TEXT	ENDS
text$x	SEGMENT
$L199278:
  000d7	8d 4d 8c	 lea	 ecx, DWORD PTR _font$[ebp]
  000da	e9 00 00 00 00	 jmp	 ??1CFont@@UAE@XZ	; CFont::~CFont
__ehhandler$?DrawButton@CButtonDraw@@QAEXPAVCWnd@@PAUtagDRAWITEMSTRUCT@@HHAAV?$CStringT@DV?$StrTraitMFC_DLL@DV?$ChTraitsCRT@D@ATL@@@@@ATL@@KKPAVCBitmap@@@Z:
  000df	b8 00 00 00 00	 mov	 eax, OFFSET FLAT:$T199280
  000e4	e9 00 00 00 00	 jmp	 ___CxxFrameHandler
text$x	ENDS
?DrawButton@CButtonDraw@@QAEXPAVCWnd@@PAUtagDRAWITEMSTRUCT@@HHAAV?$CStringT@DV?$StrTraitMFC_DLL@DV?$ChTraitsCRT@D@ATL@@@@@ATL@@KKPAVCBitmap@@@Z ENDP ; CButtonDraw::DrawButton
PUBLIC	?InterlockedExchangePointer@@YGPAXPAPAXPAX@Z	; InterlockedExchangePointer
PUBLIC	?_AtlGetThreadACPFake@ATL@@YGIXZ		; ATL::_AtlGetThreadACPFake
PUBLIC	?_AtlGetThreadACPReal@ATL@@YGIXZ		; ATL::_AtlGetThreadACPReal
EXTRN	__imp__GetVersionExA@4:NEAR
; Function compile flags: /Odt
; File d:\program files (x86)\microsoft visual studio .net 2003\vc7\atlmfc\include\atlconv.h
;	COMDAT ?_AtlGetThreadACPThunk@ATL@@YGIXZ
_TEXT	SEGMENT
_pfnGetThreadACP$ = -164				; size = 4
_ver$ = -160						; size = 148
__$ArrayPad$ = -4					; size = 4
__$ReturnAddr$ = 4					; size = 4
?_AtlGetThreadACPThunk@ATL@@YGIXZ PROC NEAR		; ATL::_AtlGetThreadACPThunk, COMDAT

; 134  : {

  00000	55		 push	 ebp
  00001	8b ec		 mov	 ebp, esp
  00003	81 ec a4 00 00
	00		 sub	 esp, 164		; 000000a4H
  00009	a1 00 00 00 00	 mov	 eax, DWORD PTR ___security_cookie
  0000e	89 45 fc	 mov	 DWORD PTR __$ArrayPad$[ebp], eax

; 135  : 	OSVERSIONINFO ver;
; 136  : 	ATLGETTHREADACP pfnGetThreadACP;
; 137  : 
; 138  : 	ver.dwOSVersionInfoSize = sizeof( ver );

  00011	c7 85 60 ff ff
	ff 94 00 00 00	 mov	 DWORD PTR _ver$[ebp], 148 ; 00000094H

; 139  : 	::GetVersionEx( &ver );

  0001b	8d 85 60 ff ff
	ff		 lea	 eax, DWORD PTR _ver$[ebp]
  00021	50		 push	 eax
  00022	ff 15 00 00 00
	00		 call	 DWORD PTR __imp__GetVersionExA@4

; 140  : 	if( (ver.dwPlatformId == VER_PLATFORM_WIN32_NT) && (ver.dwMajorVersion >= 5) )

  00028	83 bd 70 ff ff
	ff 02		 cmp	 DWORD PTR _ver$[ebp+16], 2
  0002f	75 15		 jne	 SHORT $L24173
  00031	83 bd 64 ff ff
	ff 05		 cmp	 DWORD PTR _ver$[ebp+4], 5
  00038	72 0c		 jb	 SHORT $L24173

; 141  : 	{
; 142  : 		// On Win2K, CP_THREAD_ACP is supported
; 143  : 		pfnGetThreadACP = _AtlGetThreadACPReal;

  0003a	c7 85 5c ff ff
	ff 00 00 00 00	 mov	 DWORD PTR _pfnGetThreadACP$[ebp], OFFSET FLAT:?_AtlGetThreadACPReal@ATL@@YGIXZ ; ATL::_AtlGetThreadACPReal

; 144  : 	}
; 145  : 	else

  00044	eb 0a		 jmp	 SHORT $L24174
$L24173:

; 146  : 	{
; 147  : 		pfnGetThreadACP = _AtlGetThreadACPFake;

  00046	c7 85 5c ff ff
	ff 00 00 00 00	 mov	 DWORD PTR _pfnGetThreadACP$[ebp], OFFSET FLAT:?_AtlGetThreadACPFake@ATL@@YGIXZ ; ATL::_AtlGetThreadACPFake
$L24174:

; 148  : 	}
; 149  : 	InterlockedExchangePointer( reinterpret_cast< void** >(&g_pfnGetThreadACP), pfnGetThreadACP );

  00050	8b 8d 5c ff ff
	ff		 mov	 ecx, DWORD PTR _pfnGetThreadACP$[ebp]
  00056	51		 push	 ecx
  00057	68 00 00 00 00	 push	 OFFSET FLAT:?g_pfnGetThreadACP@ATL@@3P6GIXZA ; ATL::g_pfnGetThreadACP
  0005c	e8 00 00 00 00	 call	 ?InterlockedExchangePointer@@YGPAXPAPAXPAX@Z ; InterlockedExchangePointer

; 150  : 
; 151  : 	return( g_pfnGetThreadACP() );

  00061	ff 15 00 00 00
	00		 call	 DWORD PTR ?g_pfnGetThreadACP@ATL@@3P6GIXZA ; ATL::g_pfnGetThreadACP

; 152  : }

  00067	8b 4d fc	 mov	 ecx, DWORD PTR __$ArrayPad$[ebp]
  0006a	e8 00 00 00 00	 call	 @__security_check_cookie@4
  0006f	8b e5		 mov	 esp, ebp
  00071	5d		 pop	 ebp
  00072	c3		 ret	 0
?_AtlGetThreadACPThunk@ATL@@YGIXZ ENDP			; ATL::_AtlGetThreadACPThunk
_TEXT	ENDS
EXTRN	__imp__InterlockedExchange@8:NEAR
; Function compile flags: /Odt
;	COMDAT ?InterlockedExchangePointer@@YGPAXPAPAXPAX@Z
_TEXT	SEGMENT
_pp$ = 8						; size = 4
_pNew$ = 12						; size = 4
?InterlockedExchangePointer@@YGPAXPAPAXPAX@Z PROC NEAR	; InterlockedExchangePointer, COMDAT

; 91   : {

  00000	55		 push	 ebp
  00001	8b ec		 mov	 ebp, esp

; 92   : 	return( reinterpret_cast<void*>(static_cast<LONG_PTR>(::InterlockedExchange(reinterpret_cast<LONG*>(pp), static_cast<LONG>(reinterpret_cast<LONG_PTR>(pNew))))) );

  00003	8b 45 0c	 mov	 eax, DWORD PTR _pNew$[ebp]
  00006	50		 push	 eax
  00007	8b 4d 08	 mov	 ecx, DWORD PTR _pp$[ebp]
  0000a	51		 push	 ecx
  0000b	ff 15 00 00 00
	00		 call	 DWORD PTR __imp__InterlockedExchange@8

; 93   : }

  00011	5d		 pop	 ebp
  00012	c2 08 00	 ret	 8
?InterlockedExchangePointer@@YGPAXPAPAXPAX@Z ENDP	; InterlockedExchangePointer
_TEXT	ENDS
EXTRN	__imp__GetACP@0:NEAR
EXTRN	__imp__GetLocaleInfoA@16:NEAR
EXTRN	__imp__GetThreadLocale@0:NEAR
; Function compile flags: /Odt
;	COMDAT ?_AtlGetThreadACPFake@ATL@@YGIXZ
_TEXT	SEGMENT
_pch$24161 = -24					; size = 4
_lcidThread$ = -20					; size = 4
_szACP$ = -16						; size = 7
__$ArrayPad$ = -8					; size = 4
_nACP$ = -4						; size = 4
__$ReturnAddr$ = 4					; size = 4
?_AtlGetThreadACPFake@ATL@@YGIXZ PROC NEAR		; ATL::_AtlGetThreadACPFake, COMDAT

; 101  : {

  00000	55		 push	 ebp
  00001	8b ec		 mov	 ebp, esp
  00003	83 ec 18	 sub	 esp, 24			; 00000018H
  00006	a1 00 00 00 00	 mov	 eax, DWORD PTR ___security_cookie
  0000b	89 45 f8	 mov	 DWORD PTR __$ArrayPad$[ebp], eax

; 102  : 	UINT nACP = 0;

  0000e	c7 45 fc 00 00
	00 00		 mov	 DWORD PTR _nACP$[ebp], 0

; 103  : 
; 104  : 	LCID lcidThread = ::GetThreadLocale();

  00015	ff 15 00 00 00
	00		 call	 DWORD PTR __imp__GetThreadLocale@0
  0001b	89 45 ec	 mov	 DWORD PTR _lcidThread$[ebp], eax

; 105  : 
; 106  : 	char szACP[7];
; 107  : 	// GetLocaleInfoA will fail for a Unicode-only LCID, but those are only supported on 
; 108  : 	// Windows 2000.  Since Windows 2000 supports CP_THREAD_ACP, this code path is never
; 109  : 	// executed on Windows 2000.
; 110  : 	if (::GetLocaleInfoA(lcidThread, LOCALE_IDEFAULTANSICODEPAGE, szACP, 7) != 0)

  0001e	6a 07		 push	 7
  00020	8d 45 f0	 lea	 eax, DWORD PTR _szACP$[ebp]
  00023	50		 push	 eax
  00024	68 04 10 00 00	 push	 4100			; 00001004H
  00029	8b 4d ec	 mov	 ecx, DWORD PTR _lcidThread$[ebp]
  0002c	51		 push	 ecx
  0002d	ff 15 00 00 00
	00		 call	 DWORD PTR __imp__GetLocaleInfoA@16
  00033	85 c0		 test	 eax, eax
  00035	74 34		 je	 SHORT $L24160

; 111  : 	{
; 112  : 		char* pch = szACP;

  00037	8d 55 f0	 lea	 edx, DWORD PTR _szACP$[ebp]
  0003a	89 55 e8	 mov	 DWORD PTR _pch$24161[ebp], edx
$L24163:

; 113  : 		while (*pch != '\0')

  0003d	8b 45 e8	 mov	 eax, DWORD PTR _pch$24161[ebp]
  00040	0f be 08	 movsx	 ecx, BYTE PTR [eax]
  00043	85 c9		 test	 ecx, ecx
  00045	74 24		 je	 SHORT $L24160

; 114  : 		{
; 115  : 			nACP *= 10;

  00047	8b 55 fc	 mov	 edx, DWORD PTR _nACP$[ebp]
  0004a	6b d2 0a	 imul	 edx, 10			; 0000000aH
  0004d	89 55 fc	 mov	 DWORD PTR _nACP$[ebp], edx

; 116  : 			nACP += *pch++ - '0';

  00050	8b 45 e8	 mov	 eax, DWORD PTR _pch$24161[ebp]
  00053	0f be 08	 movsx	 ecx, BYTE PTR [eax]
  00056	8b 55 fc	 mov	 edx, DWORD PTR _nACP$[ebp]
  00059	8d 44 0a d0	 lea	 eax, DWORD PTR [edx+ecx-48]
  0005d	89 45 fc	 mov	 DWORD PTR _nACP$[ebp], eax
  00060	8b 4d e8	 mov	 ecx, DWORD PTR _pch$24161[ebp]
  00063	83 c1 01	 add	 ecx, 1
  00066	89 4d e8	 mov	 DWORD PTR _pch$24161[ebp], ecx

; 117  : 		}

  00069	eb d2		 jmp	 SHORT $L24163
$L24160:

; 118  : 	}
; 119  : 	// Use the Default ANSI Code Page if we were unable to get the thread ACP or if one does not exist.
; 120  : 	if (nACP == 0)

  0006b	83 7d fc 00	 cmp	 DWORD PTR _nACP$[ebp], 0
  0006f	75 09		 jne	 SHORT $L24165

; 121  : 		nACP = ::GetACP();

  00071	ff 15 00 00 00
	00		 call	 DWORD PTR __imp__GetACP@0
  00077	89 45 fc	 mov	 DWORD PTR _nACP$[ebp], eax
$L24165:

; 122  : 
; 123  : 	return nACP;

  0007a	8b 45 fc	 mov	 eax, DWORD PTR _nACP$[ebp]

; 124  : }

  0007d	8b 4d f8	 mov	 ecx, DWORD PTR __$ArrayPad$[ebp]
  00080	e8 00 00 00 00	 call	 @__security_check_cookie@4
  00085	8b e5		 mov	 esp, ebp
  00087	5d		 pop	 ebp
  00088	c3		 ret	 0
?_AtlGetThreadACPFake@ATL@@YGIXZ ENDP			; ATL::_AtlGetThreadACPFake
; Function compile flags: /Odt
_TEXT	ENDS
;	COMDAT ?_AtlGetThreadACPReal@ATL@@YGIXZ
_TEXT	SEGMENT
?_AtlGetThreadACPReal@ATL@@YGIXZ PROC NEAR		; ATL::_AtlGetThreadACPReal, COMDAT

; 127  : {

  00000	55		 push	 ebp
  00001	8b ec		 mov	 ebp, esp

; 128  : 	return( CP_THREAD_ACP );

  00003	b8 03 00 00 00	 mov	 eax, 3

; 129  : }

  00008	5d		 pop	 ebp
  00009	c3		 ret	 0
?_AtlGetThreadACPReal@ATL@@YGIXZ ENDP			; ATL::_AtlGetThreadACPReal
_TEXT	ENDS
PUBLIC	??0CPoint@@QAE@HH@Z				; CPoint::CPoint
PUBLIC	?Add@CImageList@@QAEHPAVCBitmap@@K@Z		; CImageList::Add
PUBLIC	?Draw@CImageList@@QAEHPAVCDC@@HUtagPOINT@@I@Z	; CImageList::Draw
PUBLIC	?DrawBmpShade@CButtonDraw@@IAEXPAVCDC@@AAVCRect@@@Z ; CButtonDraw::DrawBmpShade
PUBLIC	?GetBitmapDimension@CBitmap@@QBE?AVCSize@@XZ	; CBitmap::GetBitmapDimension
EXTRN	??0CImageList@@QAE@XZ:NEAR			; CImageList::CImageList
EXTRN	?Create@CImageList@@QAEHHHIHH@Z:NEAR		; CImageList::Create
EXTRN	?DeleteImageList@CImageList@@QAEHXZ:NEAR	; CImageList::DeleteImageList
EXTRN	??1CImageList@@UAE@XZ:NEAR			; CImageList::~CImageList
EXTRN	__imp__CreateSolidBrush@4:NEAR
EXTRN	__imp__DeleteObject@4:NEAR
EXTRN	__imp__FrameRect@12:NEAR
EXTRN	__imp__InflateRect@12:NEAR
xdata$x	SEGMENT
$T199309 DD	0ffffffffH
	DD	FLAT:$L199305
$T199307 DD	019930520H
	DD	01H
	DD	FLAT:$T199309
	DD	2 DUP(00H)
	DD	2 DUP(00H)
; Function compile flags: /Odt
; File d:\boxgit\playbox\playbox\dev\prj\playbox\src\layoutmgr\changecolor\skinbotton.cpp
xdata$x	ENDS
_TEXT	SEGMENT
tv81 = -112						; size = 4
tv76 = -108						; size = 4
_this$ = -104						; size = 4
$T199304 = -100						; size = 8
$T199303 = -92						; size = 8
_m_Image$ = -84						; size = 8
_hHandle$ = -76						; size = 4
_lisrcHight$ = -72					; size = 4
_lisrcWidth$ = -68					; size = 4
_lsize$ = -64						; size = 8
_nY$ = -56						; size = 4
_lrcFrame$ = -52					; size = 16
_hbru$ = -36						; size = 4
_nX$ = -32						; size = 4
_rect$ = -28						; size = 16
__$EHRec$ = -12						; size = 12
_aHDC$ = 8						; size = 4
_aRect$ = 12						; size = 4
_astr$ = 16						; size = 4
_aBitMap$ = 20						; size = 4
?DrawSkinEnter@CButtonDraw@@IAEXAAPAUHDC__@@AAUtagRECT@@AAV?$CStringT@DV?$StrTraitMFC_DLL@DV?$ChTraitsCRT@D@ATL@@@@@ATL@@PAVCBitmap@@@Z PROC NEAR ; CButtonDraw::DrawSkinEnter
; _this$ = ecx

; 355  : {

  00c50	55		 push	 ebp
  00c51	8b ec		 mov	 ebp, esp
  00c53	6a ff		 push	 -1
  00c55	68 00 00 00 00	 push	 __ehhandler$?DrawSkinEnter@CButtonDraw@@IAEXAAPAUHDC__@@AAUtagRECT@@AAV?$CStringT@DV?$StrTraitMFC_DLL@DV?$ChTraitsCRT@D@ATL@@@@@ATL@@PAVCBitmap@@@Z
  00c5a	64 a1 00 00 00
	00		 mov	 eax, DWORD PTR fs:__except_list
  00c60	50		 push	 eax
  00c61	64 89 25 00 00
	00 00		 mov	 DWORD PTR fs:__except_list, esp
  00c68	83 ec 64	 sub	 esp, 100		; 00000064H
  00c6b	89 4d 98	 mov	 DWORD PTR _this$[ebp], ecx

; 356  : 	if( NULL == aBitMap) return ;

  00c6e	83 7d 14 00	 cmp	 DWORD PTR _aBitMap$[ebp], 0
  00c72	75 05		 jne	 SHORT $L198267
  00c74	e9 f1 01 00 00	 jmp	 $L198266
$L198267:

; 357  : 	CSize lsize = aBitMap->GetBitmapDimension();

  00c79	8d 45 c0	 lea	 eax, DWORD PTR _lsize$[ebp]
  00c7c	50		 push	 eax
  00c7d	8b 4d 14	 mov	 ecx, DWORD PTR _aBitMap$[ebp]
  00c80	e8 00 00 00 00	 call	 ?GetBitmapDimension@CBitmap@@QBE?AVCSize@@XZ ; CBitmap::GetBitmapDimension

; 358  : 
; 359  : 	int lisrcHight = aRect.bottom - aRect.top;

  00c85	8b 4d 0c	 mov	 ecx, DWORD PTR _aRect$[ebp]
  00c88	8b 55 0c	 mov	 edx, DWORD PTR _aRect$[ebp]
  00c8b	8b 41 0c	 mov	 eax, DWORD PTR [ecx+12]
  00c8e	2b 42 04	 sub	 eax, DWORD PTR [edx+4]
  00c91	89 45 b8	 mov	 DWORD PTR _lisrcHight$[ebp], eax

; 360  : 	int lisrcWidth = aRect.right  - aRect.left; 

  00c94	8b 4d 0c	 mov	 ecx, DWORD PTR _aRect$[ebp]
  00c97	8b 55 0c	 mov	 edx, DWORD PTR _aRect$[ebp]
  00c9a	8b 41 08	 mov	 eax, DWORD PTR [ecx+8]
  00c9d	2b 02		 sub	 eax, DWORD PTR [edx]
  00c9f	89 45 bc	 mov	 DWORD PTR _lisrcWidth$[ebp], eax

; 361  : 
; 362  : 	int nX = (lisrcWidth-lsize.cx)>4? (lisrcWidth-lsize.cx)/2:2;

  00ca2	8b 4d bc	 mov	 ecx, DWORD PTR _lisrcWidth$[ebp]
  00ca5	2b 4d c0	 sub	 ecx, DWORD PTR _lsize$[ebp]
  00ca8	83 f9 04	 cmp	 ecx, 4
  00cab	7e 10		 jle	 SHORT $L199299
  00cad	8b 45 bc	 mov	 eax, DWORD PTR _lisrcWidth$[ebp]
  00cb0	2b 45 c0	 sub	 eax, DWORD PTR _lsize$[ebp]
  00cb3	99		 cdq
  00cb4	2b c2		 sub	 eax, edx
  00cb6	d1 f8		 sar	 eax, 1
  00cb8	89 45 94	 mov	 DWORD PTR tv76[ebp], eax
  00cbb	eb 07		 jmp	 SHORT $L199300
$L199299:
  00cbd	c7 45 94 02 00
	00 00		 mov	 DWORD PTR tv76[ebp], 2
$L199300:
  00cc4	8b 55 94	 mov	 edx, DWORD PTR tv76[ebp]
  00cc7	89 55 e0	 mov	 DWORD PTR _nX$[ebp], edx

; 363  : 	int nY = (lisrcHight-lsize.cy)>4? (lisrcHight-lsize.cy)/2:2;

  00cca	8b 45 b8	 mov	 eax, DWORD PTR _lisrcHight$[ebp]
  00ccd	2b 45 c4	 sub	 eax, DWORD PTR _lsize$[ebp+4]
  00cd0	83 f8 04	 cmp	 eax, 4
  00cd3	7e 10		 jle	 SHORT $L199301
  00cd5	8b 45 b8	 mov	 eax, DWORD PTR _lisrcHight$[ebp]
  00cd8	2b 45 c4	 sub	 eax, DWORD PTR _lsize$[ebp+4]
  00cdb	99		 cdq
  00cdc	2b c2		 sub	 eax, edx
  00cde	d1 f8		 sar	 eax, 1
  00ce0	89 45 90	 mov	 DWORD PTR tv81[ebp], eax
  00ce3	eb 07		 jmp	 SHORT $L199302
$L199301:
  00ce5	c7 45 90 02 00
	00 00		 mov	 DWORD PTR tv81[ebp], 2
$L199302:
  00cec	8b 4d 90	 mov	 ecx, DWORD PTR tv81[ebp]
  00cef	89 4d c8	 mov	 DWORD PTR _nY$[ebp], ecx

; 364  : 	CImageList  m_Image;

  00cf2	8d 4d ac	 lea	 ecx, DWORD PTR _m_Image$[ebp]
  00cf5	e8 00 00 00 00	 call	 ??0CImageList@@QAE@XZ	; CImageList::CImageList
  00cfa	c7 45 fc 00 00
	00 00		 mov	 DWORD PTR __$EHRec$[ebp+8], 0

; 365  : 	m_Image.Create(lsize.cx,lsize.cy,ILC_COLOR24|ILC_MASK,1,1);

  00d01	6a 01		 push	 1
  00d03	6a 01		 push	 1
  00d05	6a 19		 push	 25			; 00000019H
  00d07	8b 55 c4	 mov	 edx, DWORD PTR _lsize$[ebp+4]
  00d0a	52		 push	 edx
  00d0b	8b 45 c0	 mov	 eax, DWORD PTR _lsize$[ebp]
  00d0e	50		 push	 eax
  00d0f	8d 4d ac	 lea	 ecx, DWORD PTR _m_Image$[ebp]
  00d12	e8 00 00 00 00	 call	 ?Create@CImageList@@QAEHHHIHH@Z ; CImageList::Create

; 366  : 	m_Image.Add( aBitMap ,0xff00ff);

  00d17	68 ff 00 ff 00	 push	 16711935		; 00ff00ffH
  00d1c	8b 4d 14	 mov	 ecx, DWORD PTR _aBitMap$[ebp]
  00d1f	51		 push	 ecx
  00d20	8d 4d ac	 lea	 ecx, DWORD PTR _m_Image$[ebp]
  00d23	e8 00 00 00 00	 call	 ?Add@CImageList@@QAEHPAVCBitmap@@K@Z ; CImageList::Add

; 367  : 	m_Image.Draw( CDC::FromHandle(aHDC),0,CPoint(nX,nY),ILD_NORMAL);

  00d28	8b 55 c8	 mov	 edx, DWORD PTR _nY$[ebp]
  00d2b	52		 push	 edx
  00d2c	8b 45 e0	 mov	 eax, DWORD PTR _nX$[ebp]
  00d2f	50		 push	 eax
  00d30	8d 4d 9c	 lea	 ecx, DWORD PTR $T199304[ebp]
  00d33	e8 00 00 00 00	 call	 ??0CPoint@@QAE@HH@Z	; CPoint::CPoint
  00d38	8b 08		 mov	 ecx, DWORD PTR [eax]
  00d3a	8b 50 04	 mov	 edx, DWORD PTR [eax+4]
  00d3d	89 4d a4	 mov	 DWORD PTR $T199303[ebp], ecx
  00d40	89 55 a8	 mov	 DWORD PTR $T199303[ebp+4], edx
  00d43	6a 00		 push	 0
  00d45	8b 45 a8	 mov	 eax, DWORD PTR $T199303[ebp+4]
  00d48	50		 push	 eax
  00d49	8b 4d a4	 mov	 ecx, DWORD PTR $T199303[ebp]
  00d4c	51		 push	 ecx
  00d4d	6a 00		 push	 0
  00d4f	8b 55 08	 mov	 edx, DWORD PTR _aHDC$[ebp]
  00d52	8b 02		 mov	 eax, DWORD PTR [edx]
  00d54	50		 push	 eax
  00d55	e8 00 00 00 00	 call	 ?FromHandle@CDC@@SGPAV1@PAUHDC__@@@Z ; CDC::FromHandle
  00d5a	50		 push	 eax
  00d5b	8d 4d ac	 lea	 ecx, DWORD PTR _m_Image$[ebp]
  00d5e	e8 00 00 00 00	 call	 ?Draw@CImageList@@QAEHPAVCDC@@HUtagPOINT@@I@Z ; CImageList::Draw

; 368  : 	m_Image.DeleteImageList();

  00d63	8d 4d ac	 lea	 ecx, DWORD PTR _m_Image$[ebp]
  00d66	e8 00 00 00 00	 call	 ?DeleteImageList@CImageList@@QAEHXZ ; CImageList::DeleteImageList

; 369  : 
; 370  : 	CRect lrcFrame(nX,nY,nX+lsize.cx, nY+lsize.cy);

  00d6b	8b 4d c8	 mov	 ecx, DWORD PTR _nY$[ebp]
  00d6e	03 4d c4	 add	 ecx, DWORD PTR _lsize$[ebp+4]
  00d71	51		 push	 ecx
  00d72	8b 55 e0	 mov	 edx, DWORD PTR _nX$[ebp]
  00d75	03 55 c0	 add	 edx, DWORD PTR _lsize$[ebp]
  00d78	52		 push	 edx
  00d79	8b 45 c8	 mov	 eax, DWORD PTR _nY$[ebp]
  00d7c	50		 push	 eax
  00d7d	8b 4d e0	 mov	 ecx, DWORD PTR _nX$[ebp]
  00d80	51		 push	 ecx
  00d81	8d 4d cc	 lea	 ecx, DWORD PTR _lrcFrame$[ebp]
  00d84	e8 00 00 00 00	 call	 ??0CRect@@QAE@HHHH@Z	; CRect::CRect

; 371  : 	HBRUSH hHandle = 0;

  00d89	c7 45 b4 00 00
	00 00		 mov	 DWORD PTR _hHandle$[ebp], 0

; 372  : 	hHandle = CreateSolidBrush(gWndColor.getColor(COLOL_CTROL)->structColBase->colFrame2);

  00d90	6a 05		 push	 5
  00d92	b9 00 00 00 00	 mov	 ecx, OFFSET FLAT:?gWndColor@@3VCWndColorMgr@@A ; gWndColor
  00d97	e8 00 00 00 00	 call	 ?getColor@CWndColorMgr@@QAEPAUCtrColBase@@I@Z ; CWndColorMgr::getColor
  00d9c	8b 10		 mov	 edx, DWORD PTR [eax]
  00d9e	8b 42 04	 mov	 eax, DWORD PTR [edx+4]
  00da1	50		 push	 eax
  00da2	ff 15 00 00 00
	00		 call	 DWORD PTR __imp__CreateSolidBrush@4
  00da8	89 45 b4	 mov	 DWORD PTR _hHandle$[ebp], eax

; 373  : 	//::InflateRect(&lrcFrame,1,1);
; 374  : 	FrameRect(aHDC, &lrcFrame,(HBRUSH)hHandle );

  00dab	8b 4d b4	 mov	 ecx, DWORD PTR _hHandle$[ebp]
  00dae	51		 push	 ecx
  00daf	8d 55 cc	 lea	 edx, DWORD PTR _lrcFrame$[ebp]
  00db2	52		 push	 edx
  00db3	8b 45 08	 mov	 eax, DWORD PTR _aHDC$[ebp]
  00db6	8b 08		 mov	 ecx, DWORD PTR [eax]
  00db8	51		 push	 ecx
  00db9	ff 15 00 00 00
	00		 call	 DWORD PTR __imp__FrameRect@12

; 375  : 	::InflateRect(&lrcFrame,-1,-1);

  00dbf	6a ff		 push	 -1
  00dc1	6a ff		 push	 -1
  00dc3	8d 55 cc	 lea	 edx, DWORD PTR _lrcFrame$[ebp]
  00dc6	52		 push	 edx
  00dc7	ff 15 00 00 00
	00		 call	 DWORD PTR __imp__InflateRect@12

; 376  : 	FrameRect(aHDC, &lrcFrame,(HBRUSH)hHandle );

  00dcd	8b 45 b4	 mov	 eax, DWORD PTR _hHandle$[ebp]
  00dd0	50		 push	 eax
  00dd1	8d 4d cc	 lea	 ecx, DWORD PTR _lrcFrame$[ebp]
  00dd4	51		 push	 ecx
  00dd5	8b 55 08	 mov	 edx, DWORD PTR _aHDC$[ebp]
  00dd8	8b 02		 mov	 eax, DWORD PTR [edx]
  00dda	50		 push	 eax
  00ddb	ff 15 00 00 00
	00		 call	 DWORD PTR __imp__FrameRect@12

; 377  : 	::InflateRect(&lrcFrame,-1,-1);

  00de1	6a ff		 push	 -1
  00de3	6a ff		 push	 -1
  00de5	8d 4d cc	 lea	 ecx, DWORD PTR _lrcFrame$[ebp]
  00de8	51		 push	 ecx
  00de9	ff 15 00 00 00
	00		 call	 DWORD PTR __imp__InflateRect@12

; 378  : 	HBRUSH hbru = CreateSolidBrush(RGB(255,255,255));

  00def	68 ff ff ff 00	 push	 16777215		; 00ffffffH
  00df4	ff 15 00 00 00
	00		 call	 DWORD PTR __imp__CreateSolidBrush@4
  00dfa	89 45 dc	 mov	 DWORD PTR _hbru$[ebp], eax

; 379  : 	FrameRect(aHDC, &lrcFrame,(HBRUSH)hbru );

  00dfd	8b 55 dc	 mov	 edx, DWORD PTR _hbru$[ebp]
  00e00	52		 push	 edx
  00e01	8d 45 cc	 lea	 eax, DWORD PTR _lrcFrame$[ebp]
  00e04	50		 push	 eax
  00e05	8b 4d 08	 mov	 ecx, DWORD PTR _aHDC$[ebp]
  00e08	8b 11		 mov	 edx, DWORD PTR [ecx]
  00e0a	52		 push	 edx
  00e0b	ff 15 00 00 00
	00		 call	 DWORD PTR __imp__FrameRect@12

; 380  : 	DeleteObject((HGDIOBJ)hHandle);

  00e11	8b 45 b4	 mov	 eax, DWORD PTR _hHandle$[ebp]
  00e14	50		 push	 eax
  00e15	ff 15 00 00 00
	00		 call	 DWORD PTR __imp__DeleteObject@4

; 381  : 	DeleteObject(hbru);

  00e1b	8b 4d dc	 mov	 ecx, DWORD PTR _hbru$[ebp]
  00e1e	51		 push	 ecx
  00e1f	ff 15 00 00 00
	00		 call	 DWORD PTR __imp__DeleteObject@4

; 382  : 
; 383  : 	CRect rect( nX, nY, nX+lsize.cx, nY+ lsize.cy );

  00e25	8b 55 c8	 mov	 edx, DWORD PTR _nY$[ebp]
  00e28	03 55 c4	 add	 edx, DWORD PTR _lsize$[ebp+4]
  00e2b	52		 push	 edx
  00e2c	8b 45 e0	 mov	 eax, DWORD PTR _nX$[ebp]
  00e2f	03 45 c0	 add	 eax, DWORD PTR _lsize$[ebp]
  00e32	50		 push	 eax
  00e33	8b 4d c8	 mov	 ecx, DWORD PTR _nY$[ebp]
  00e36	51		 push	 ecx
  00e37	8b 55 e0	 mov	 edx, DWORD PTR _nX$[ebp]
  00e3a	52		 push	 edx
  00e3b	8d 4d e4	 lea	 ecx, DWORD PTR _rect$[ebp]
  00e3e	e8 00 00 00 00	 call	 ??0CRect@@QAE@HHHH@Z	; CRect::CRect

; 384  : 	DrawBmpShade( CDC::FromHandle(aHDC), rect );

  00e43	8d 45 e4	 lea	 eax, DWORD PTR _rect$[ebp]
  00e46	50		 push	 eax
  00e47	8b 4d 08	 mov	 ecx, DWORD PTR _aHDC$[ebp]
  00e4a	8b 11		 mov	 edx, DWORD PTR [ecx]
  00e4c	52		 push	 edx
  00e4d	e8 00 00 00 00	 call	 ?FromHandle@CDC@@SGPAV1@PAUHDC__@@@Z ; CDC::FromHandle
  00e52	50		 push	 eax
  00e53	8b 4d 98	 mov	 ecx, DWORD PTR _this$[ebp]
  00e56	e8 00 00 00 00	 call	 ?DrawBmpShade@CButtonDraw@@IAEXPAVCDC@@AAVCRect@@@Z ; CButtonDraw::DrawBmpShade

; 385  : }

  00e5b	c7 45 fc ff ff
	ff ff		 mov	 DWORD PTR __$EHRec$[ebp+8], -1
  00e62	8d 4d ac	 lea	 ecx, DWORD PTR _m_Image$[ebp]
  00e65	e8 00 00 00 00	 call	 ??1CImageList@@UAE@XZ	; CImageList::~CImageList
$L198266:
  00e6a	8b 4d f4	 mov	 ecx, DWORD PTR __$EHRec$[ebp]
  00e6d	64 89 0d 00 00
	00 00		 mov	 DWORD PTR fs:__except_list, ecx
  00e74	8b e5		 mov	 esp, ebp
  00e76	5d		 pop	 ebp
  00e77	c2 10 00	 ret	 16			; 00000010H
_TEXT	ENDS
text$x	SEGMENT
$L199305:
  000e9	8d 4d ac	 lea	 ecx, DWORD PTR _m_Image$[ebp]
  000ec	e9 00 00 00 00	 jmp	 ??1CImageList@@UAE@XZ	; CImageList::~CImageList
__ehhandler$?DrawSkinEnter@CButtonDraw@@IAEXAAPAUHDC__@@AAUtagRECT@@AAV?$CStringT@DV?$StrTraitMFC_DLL@DV?$ChTraitsCRT@D@ATL@@@@@ATL@@PAVCBitmap@@@Z:
  000f1	b8 00 00 00 00	 mov	 eax, OFFSET FLAT:$T199307
  000f6	e9 00 00 00 00	 jmp	 ___CxxFrameHandler
text$x	ENDS
?DrawSkinEnter@CButtonDraw@@IAEXAAPAUHDC__@@AAUtagRECT@@AAV?$CStringT@DV?$StrTraitMFC_DLL@DV?$ChTraitsCRT@D@ATL@@@@@ATL@@PAVCBitmap@@@Z ENDP ; CButtonDraw::DrawSkinEnter
xdata$x	SEGMENT
$T199321 DD	0ffffffffH
	DD	FLAT:$L199317
$T199319 DD	019930520H
	DD	01H
	DD	FLAT:$T199321
	DD	2 DUP(00H)
	DD	2 DUP(00H)
; Function compile flags: /Odt
xdata$x	ENDS
_TEXT	SEGMENT
tv81 = -88						; size = 4
tv76 = -84						; size = 4
_this$ = -80						; size = 4
$T199316 = -76						; size = 8
$T199315 = -68						; size = 8
_m_Image$ = -60						; size = 8
_lisrcHight$ = -52					; size = 4
_lisrcWidth$ = -48					; size = 4
_lsize$ = -44						; size = 8
_nY$ = -36						; size = 4
_nX$ = -32						; size = 4
_rect$ = -28						; size = 16
__$EHRec$ = -12						; size = 12
_aHDC$ = 8						; size = 4
_aRect$ = 12						; size = 4
_astr$ = 16						; size = 4
_aBitMap$ = 20						; size = 4
?DrawSkinNormal@CButtonDraw@@IAEXAAPAUHDC__@@AAUtagRECT@@AAV?$CStringT@DV?$StrTraitMFC_DLL@DV?$ChTraitsCRT@D@ATL@@@@@ATL@@PAVCBitmap@@@Z PROC NEAR ; CButtonDraw::DrawSkinNormal
; _this$ = ecx

; 387  : {

  00e80	55		 push	 ebp
  00e81	8b ec		 mov	 ebp, esp
  00e83	6a ff		 push	 -1
  00e85	68 00 00 00 00	 push	 __ehhandler$?DrawSkinNormal@CButtonDraw@@IAEXAAPAUHDC__@@AAUtagRECT@@AAV?$CStringT@DV?$StrTraitMFC_DLL@DV?$ChTraitsCRT@D@ATL@@@@@ATL@@PAVCBitmap@@@Z
  00e8a	64 a1 00 00 00
	00		 mov	 eax, DWORD PTR fs:__except_list
  00e90	50		 push	 eax
  00e91	64 89 25 00 00
	00 00		 mov	 DWORD PTR fs:__except_list, esp
  00e98	83 ec 4c	 sub	 esp, 76			; 0000004cH
  00e9b	89 4d b0	 mov	 DWORD PTR _this$[ebp], ecx

; 388  : 	if( NULL == aBitMap) return ;

  00e9e	83 7d 14 00	 cmp	 DWORD PTR _aBitMap$[ebp], 0
  00ea2	75 05		 jne	 SHORT $L198298
  00ea4	e9 37 01 00 00	 jmp	 $L198297
$L198298:

; 389  : 	CSize lsize = aBitMap->GetBitmapDimension();

  00ea9	8d 45 d4	 lea	 eax, DWORD PTR _lsize$[ebp]
  00eac	50		 push	 eax
  00ead	8b 4d 14	 mov	 ecx, DWORD PTR _aBitMap$[ebp]
  00eb0	e8 00 00 00 00	 call	 ?GetBitmapDimension@CBitmap@@QBE?AVCSize@@XZ ; CBitmap::GetBitmapDimension

; 390  : 
; 391  : 	int lisrcHight = aRect.bottom - aRect.top;

  00eb5	8b 4d 0c	 mov	 ecx, DWORD PTR _aRect$[ebp]
  00eb8	8b 55 0c	 mov	 edx, DWORD PTR _aRect$[ebp]
  00ebb	8b 41 0c	 mov	 eax, DWORD PTR [ecx+12]
  00ebe	2b 42 04	 sub	 eax, DWORD PTR [edx+4]
  00ec1	89 45 cc	 mov	 DWORD PTR _lisrcHight$[ebp], eax

; 392  : 	int lisrcWidth = aRect.right  - aRect.left; 

  00ec4	8b 4d 0c	 mov	 ecx, DWORD PTR _aRect$[ebp]
  00ec7	8b 55 0c	 mov	 edx, DWORD PTR _aRect$[ebp]
  00eca	8b 41 08	 mov	 eax, DWORD PTR [ecx+8]
  00ecd	2b 02		 sub	 eax, DWORD PTR [edx]
  00ecf	89 45 d0	 mov	 DWORD PTR _lisrcWidth$[ebp], eax

; 393  : 
; 394  : 	int nX = (lisrcWidth-lsize.cx)>4? (lisrcWidth-lsize.cx)/2:2;

  00ed2	8b 4d d0	 mov	 ecx, DWORD PTR _lisrcWidth$[ebp]
  00ed5	2b 4d d4	 sub	 ecx, DWORD PTR _lsize$[ebp]
  00ed8	83 f9 04	 cmp	 ecx, 4
  00edb	7e 10		 jle	 SHORT $L199311
  00edd	8b 45 d0	 mov	 eax, DWORD PTR _lisrcWidth$[ebp]
  00ee0	2b 45 d4	 sub	 eax, DWORD PTR _lsize$[ebp]
  00ee3	99		 cdq
  00ee4	2b c2		 sub	 eax, edx
  00ee6	d1 f8		 sar	 eax, 1
  00ee8	89 45 ac	 mov	 DWORD PTR tv76[ebp], eax
  00eeb	eb 07		 jmp	 SHORT $L199312
$L199311:
  00eed	c7 45 ac 02 00
	00 00		 mov	 DWORD PTR tv76[ebp], 2
$L199312:
  00ef4	8b 55 ac	 mov	 edx, DWORD PTR tv76[ebp]
  00ef7	89 55 e0	 mov	 DWORD PTR _nX$[ebp], edx

; 395  : 	int nY = (lisrcHight-lsize.cy)>4? (lisrcHight-lsize.cy)/2:2;

  00efa	8b 45 cc	 mov	 eax, DWORD PTR _lisrcHight$[ebp]
  00efd	2b 45 d8	 sub	 eax, DWORD PTR _lsize$[ebp+4]
  00f00	83 f8 04	 cmp	 eax, 4
  00f03	7e 10		 jle	 SHORT $L199313
  00f05	8b 45 cc	 mov	 eax, DWORD PTR _lisrcHight$[ebp]
  00f08	2b 45 d8	 sub	 eax, DWORD PTR _lsize$[ebp+4]
  00f0b	99		 cdq
  00f0c	2b c2		 sub	 eax, edx
  00f0e	d1 f8		 sar	 eax, 1
  00f10	89 45 a8	 mov	 DWORD PTR tv81[ebp], eax
  00f13	eb 07		 jmp	 SHORT $L199314
$L199313:
  00f15	c7 45 a8 02 00
	00 00		 mov	 DWORD PTR tv81[ebp], 2
$L199314:
  00f1c	8b 4d a8	 mov	 ecx, DWORD PTR tv81[ebp]
  00f1f	89 4d dc	 mov	 DWORD PTR _nY$[ebp], ecx

; 396  : 
; 397  : 	CImageList  m_Image;

  00f22	8d 4d c4	 lea	 ecx, DWORD PTR _m_Image$[ebp]
  00f25	e8 00 00 00 00	 call	 ??0CImageList@@QAE@XZ	; CImageList::CImageList
  00f2a	c7 45 fc 00 00
	00 00		 mov	 DWORD PTR __$EHRec$[ebp+8], 0

; 398  : 	m_Image.Create(lsize.cx,lsize.cy,ILC_COLOR24|ILC_MASK,1,1);

  00f31	6a 01		 push	 1
  00f33	6a 01		 push	 1
  00f35	6a 19		 push	 25			; 00000019H
  00f37	8b 55 d8	 mov	 edx, DWORD PTR _lsize$[ebp+4]
  00f3a	52		 push	 edx
  00f3b	8b 45 d4	 mov	 eax, DWORD PTR _lsize$[ebp]
  00f3e	50		 push	 eax
  00f3f	8d 4d c4	 lea	 ecx, DWORD PTR _m_Image$[ebp]
  00f42	e8 00 00 00 00	 call	 ?Create@CImageList@@QAEHHHIHH@Z ; CImageList::Create

; 399  : 	m_Image.Add( aBitMap ,0xff00ff);

  00f47	68 ff 00 ff 00	 push	 16711935		; 00ff00ffH
  00f4c	8b 4d 14	 mov	 ecx, DWORD PTR _aBitMap$[ebp]
  00f4f	51		 push	 ecx
  00f50	8d 4d c4	 lea	 ecx, DWORD PTR _m_Image$[ebp]
  00f53	e8 00 00 00 00	 call	 ?Add@CImageList@@QAEHPAVCBitmap@@K@Z ; CImageList::Add

; 400  : 	m_Image.Draw( CDC::FromHandle(aHDC),0,CPoint(nX,nY),ILD_NORMAL);

  00f58	8b 55 dc	 mov	 edx, DWORD PTR _nY$[ebp]
  00f5b	52		 push	 edx
  00f5c	8b 45 e0	 mov	 eax, DWORD PTR _nX$[ebp]
  00f5f	50		 push	 eax
  00f60	8d 4d b4	 lea	 ecx, DWORD PTR $T199316[ebp]
  00f63	e8 00 00 00 00	 call	 ??0CPoint@@QAE@HH@Z	; CPoint::CPoint
  00f68	8b 08		 mov	 ecx, DWORD PTR [eax]
  00f6a	8b 50 04	 mov	 edx, DWORD PTR [eax+4]
  00f6d	89 4d bc	 mov	 DWORD PTR $T199315[ebp], ecx
  00f70	89 55 c0	 mov	 DWORD PTR $T199315[ebp+4], edx
  00f73	6a 00		 push	 0
  00f75	8b 45 c0	 mov	 eax, DWORD PTR $T199315[ebp+4]
  00f78	50		 push	 eax
  00f79	8b 4d bc	 mov	 ecx, DWORD PTR $T199315[ebp]
  00f7c	51		 push	 ecx
  00f7d	6a 00		 push	 0
  00f7f	8b 55 08	 mov	 edx, DWORD PTR _aHDC$[ebp]
  00f82	8b 02		 mov	 eax, DWORD PTR [edx]
  00f84	50		 push	 eax
  00f85	e8 00 00 00 00	 call	 ?FromHandle@CDC@@SGPAV1@PAUHDC__@@@Z ; CDC::FromHandle
  00f8a	50		 push	 eax
  00f8b	8d 4d c4	 lea	 ecx, DWORD PTR _m_Image$[ebp]
  00f8e	e8 00 00 00 00	 call	 ?Draw@CImageList@@QAEHPAVCDC@@HUtagPOINT@@I@Z ; CImageList::Draw

; 401  : 	m_Image.DeleteImageList();

  00f93	8d 4d c4	 lea	 ecx, DWORD PTR _m_Image$[ebp]
  00f96	e8 00 00 00 00	 call	 ?DeleteImageList@CImageList@@QAEHXZ ; CImageList::DeleteImageList

; 402  : 
; 403  : 
; 404  : 
; 405  : 	//CRect lrcFrame(nX,nY,nX+lsize.cx, nY+lsize.cy);
; 406  : 	//
; 407  : 	//HBRUSH hHandle = 0;
; 408  : 	//hHandle = CreateSolidBrush(gWndColor.getColor(COLOL_CTROL)->structColBase->colFrame1);
; 409  : 	////::InflateRect(&lrcFrame,1,1);
; 410  : 	//FrameRect(aHDC, &lrcFrame,(HBRUSH)hHandle );
; 411  : 	//::InflateRect(&lrcFrame,-1,-1);
; 412  : 	//FrameRect(aHDC, &lrcFrame,(HBRUSH)hHandle );
; 413  : 	//DeleteObject((HGDIOBJ)hHandle);
; 414  : 
; 415  : 	CRect rect( nX, nY, nX+lsize.cx, nY+ lsize.cy );

  00f9b	8b 4d dc	 mov	 ecx, DWORD PTR _nY$[ebp]
  00f9e	03 4d d8	 add	 ecx, DWORD PTR _lsize$[ebp+4]
  00fa1	51		 push	 ecx
  00fa2	8b 55 e0	 mov	 edx, DWORD PTR _nX$[ebp]
  00fa5	03 55 d4	 add	 edx, DWORD PTR _lsize$[ebp]
  00fa8	52		 push	 edx
  00fa9	8b 45 dc	 mov	 eax, DWORD PTR _nY$[ebp]
  00fac	50		 push	 eax
  00fad	8b 4d e0	 mov	 ecx, DWORD PTR _nX$[ebp]
  00fb0	51		 push	 ecx
  00fb1	8d 4d e4	 lea	 ecx, DWORD PTR _rect$[ebp]
  00fb4	e8 00 00 00 00	 call	 ??0CRect@@QAE@HHHH@Z	; CRect::CRect

; 416  : 	DrawBmpShade( CDC::FromHandle(aHDC), rect );

  00fb9	8d 55 e4	 lea	 edx, DWORD PTR _rect$[ebp]
  00fbc	52		 push	 edx
  00fbd	8b 45 08	 mov	 eax, DWORD PTR _aHDC$[ebp]
  00fc0	8b 08		 mov	 ecx, DWORD PTR [eax]
  00fc2	51		 push	 ecx
  00fc3	e8 00 00 00 00	 call	 ?FromHandle@CDC@@SGPAV1@PAUHDC__@@@Z ; CDC::FromHandle
  00fc8	50		 push	 eax
  00fc9	8b 4d b0	 mov	 ecx, DWORD PTR _this$[ebp]
  00fcc	e8 00 00 00 00	 call	 ?DrawBmpShade@CButtonDraw@@IAEXPAVCDC@@AAVCRect@@@Z ; CButtonDraw::DrawBmpShade

; 417  : }

  00fd1	c7 45 fc ff ff
	ff ff		 mov	 DWORD PTR __$EHRec$[ebp+8], -1
  00fd8	8d 4d c4	 lea	 ecx, DWORD PTR _m_Image$[ebp]
  00fdb	e8 00 00 00 00	 call	 ??1CImageList@@UAE@XZ	; CImageList::~CImageList
$L198297:
  00fe0	8b 4d f4	 mov	 ecx, DWORD PTR __$EHRec$[ebp]
  00fe3	64 89 0d 00 00
	00 00		 mov	 DWORD PTR fs:__except_list, ecx
  00fea	8b e5		 mov	 esp, ebp
  00fec	5d		 pop	 ebp
  00fed	c2 10 00	 ret	 16			; 00000010H
_TEXT	ENDS
text$x	SEGMENT
$L199317:
  000fb	8d 4d c4	 lea	 ecx, DWORD PTR _m_Image$[ebp]
  000fe	e9 00 00 00 00	 jmp	 ??1CImageList@@UAE@XZ	; CImageList::~CImageList
__ehhandler$?DrawSkinNormal@CButtonDraw@@IAEXAAPAUHDC__@@AAUtagRECT@@AAV?$CStringT@DV?$StrTraitMFC_DLL@DV?$ChTraitsCRT@D@ATL@@@@@ATL@@PAVCBitmap@@@Z:
  00103	b8 00 00 00 00	 mov	 eax, OFFSET FLAT:$T199319
  00108	e9 00 00 00 00	 jmp	 ___CxxFrameHandler
text$x	ENDS
?DrawSkinNormal@CButtonDraw@@IAEXAAPAUHDC__@@AAUtagRECT@@AAV?$CStringT@DV?$StrTraitMFC_DLL@DV?$ChTraitsCRT@D@ATL@@@@@ATL@@PAVCBitmap@@@Z ENDP ; CButtonDraw::DrawSkinNormal
; Function compile flags: /Odt
_TEXT	SEGMENT
_this$ = -4						; size = 4
_aHDC$ = 8						; size = 4
_aRect$ = 12						; size = 4
_astr$ = 16						; size = 4
_acolBegain$ = 20					; size = 4
_acolEnd$ = 24						; size = 4
?DrawColorEnter@CButtonDraw@@IAEXAAPAUHDC__@@AAUtagRECT@@AAV?$CStringT@DV?$StrTraitMFC_DLL@DV?$ChTraitsCRT@D@ATL@@@@@ATL@@AAK3@Z PROC NEAR ; CButtonDraw::DrawColorEnter
; _this$ = ecx

; 419  : {

  00ff0	55		 push	 ebp
  00ff1	8b ec		 mov	 ebp, esp
  00ff3	51		 push	 ecx
  00ff4	89 4d fc	 mov	 DWORD PTR _this$[ebp], ecx

; 420  : 	//HBRUSH hHandle = 0;
; 421  : 	//hHandle = CreateSolidBrush(acolBegain);
; 422  : 
; 423  : 	//RECT lrect = CRect(aRect.left+LEFT_X_COL_SPACE, aRect.top+LEFT_Y_COL_SPACE, aRect.left+LEFT_X_COL_SPACE+COL_HIGHT,aRect.top+LEFT_Y_COL_SPACE+COL_HIGHT);
; 424  : 
; 425  : 	//FrameRect(aHDC,&lrect,(HBRUSH)hHandle );
; 426  : 	//DeleteObject((HGDIOBJ)hHandle);
; 427  : 
; 428  : 	////InflateRect(&lrect,1,1);
; 429  : 	//hHandle = CreateSolidBrush(gWndColor.getColor(COLOL_CTROL)->structColBase->colFrame2 );
; 430  : 	//FrameRect(aHDC, &lrect,(HBRUSH)hHandle );
; 431  : 	//InflateRect(&lrect,-1,-1);
; 432  : 	//FrameRect(aHDC, &lrect,(HBRUSH)hHandle );
; 433  : 	//DeleteObject((HGDIOBJ)hHandle);
; 434  : }

  00ff7	8b e5		 mov	 esp, ebp
  00ff9	5d		 pop	 ebp
  00ffa	c2 14 00	 ret	 20			; 00000014H
?DrawColorEnter@CButtonDraw@@IAEXAAPAUHDC__@@AAUtagRECT@@AAV?$CStringT@DV?$StrTraitMFC_DLL@DV?$ChTraitsCRT@D@ATL@@@@@ATL@@AAK3@Z ENDP ; CButtonDraw::DrawColorEnter
; Function compile flags: /Odt
_this$ = -4						; size = 4
_aHDC$ = 8						; size = 4
_aRect$ = 12						; size = 4
_astr$ = 16						; size = 4
_acolBegain$ = 20					; size = 4
_acolEnd$ = 24						; size = 4
?DrawColorNormal@CButtonDraw@@IAEXAAPAUHDC__@@AAUtagRECT@@AAV?$CStringT@DV?$StrTraitMFC_DLL@DV?$ChTraitsCRT@D@ATL@@@@@ATL@@AAK3@Z PROC NEAR ; CButtonDraw::DrawColorNormal
; _this$ = ecx

; 436  : {

  01000	55		 push	 ebp
  01001	8b ec		 mov	 ebp, esp
  01003	51		 push	 ecx
  01004	89 4d fc	 mov	 DWORD PTR _this$[ebp], ecx

; 437  : 	//HBRUSH hHandle = 0;
; 438  : 	//hHandle = CreateSolidBrush(acolBegain);
; 439  : 
; 440  : 	//RECT lrect = CRect(aRect.left+LEFT_X_COL_SPACE, aRect.top+LEFT_Y_COL_SPACE, aRect.left+LEFT_X_COL_SPACE+COL_HIGHT,aRect.top+LEFT_Y_COL_SPACE+COL_HIGHT);
; 441  : 	//gBitMapOperate.FillRectangle(aHDC, lrect,acolBegain,acolEnd, gBitMapOperate.edoVertical,true,COL_HIGHT );
; 442  : 
; 443  : 	//FrameRect(aHDC,&lrect,(HBRUSH)hHandle );
; 444  : 	//DeleteObject((HGDIOBJ)hHandle);
; 445  : 
; 446  : 	////InflateRect(&lrect,1,1);
; 447  : 	//hHandle = CreateSolidBrush(gWndColor.getColor(COLOL_CTROL)->structColBase->colFrame1 );
; 448  : 	//FrameRect(aHDC, &lrect,(HBRUSH)hHandle );
; 449  : 	//InflateRect(&lrect,-1,-1);
; 450  : 	//FrameRect(aHDC, &lrect,(HBRUSH)hHandle );
; 451  : 	//DeleteObject((HGDIOBJ)hHandle);
; 452  : }

  01007	8b e5		 mov	 esp, ebp
  01009	5d		 pop	 ebp
  0100a	c2 14 00	 ret	 20			; 00000014H
?DrawColorNormal@CButtonDraw@@IAEXAAPAUHDC__@@AAUtagRECT@@AAV?$CStringT@DV?$StrTraitMFC_DLL@DV?$ChTraitsCRT@D@ATL@@@@@ATL@@AAK3@Z ENDP ; CButtonDraw::DrawColorNormal
; Function compile flags: /Odt
_this$ = -4						; size = 4
_aHDC$ = 8						; size = 4
_aRect$ = 12						; size = 4
_astr$ = 16						; size = 4
_acolBegain$ = 20					; size = 4
_acolEnd$ = 24						; size = 4
?DrawColorNoTextEnter@CButtonDraw@@IAEXAAPAUHDC__@@AAUtagRECT@@AAV?$CStringT@DV?$StrTraitMFC_DLL@DV?$ChTraitsCRT@D@ATL@@@@@ATL@@AAK3@Z PROC NEAR ; CButtonDraw::DrawColorNoTextEnter
; _this$ = ecx

; 454  : {

  01010	55		 push	 ebp
  01011	8b ec		 mov	 ebp, esp
  01013	51		 push	 ecx
  01014	89 4d fc	 mov	 DWORD PTR _this$[ebp], ecx

; 455  : 	//HBRUSH hHandle = 0;
; 456  : 	//hHandle = CreateSolidBrush(acolBegain);
; 457  : 
; 458  : 	//RECT lrect = CRect(aRect.left+LEFT_X_COL_NOTEXT_SPACE, aRect.top+LEFT_Y_COL_NOTEXT_SPACE, aRect.left+LEFT_X_COL_NOTEXT_SPACE+COL_HIGHT,aRect.top+LEFT_Y_COL_NOTEXT_SPACE+COL_HIGHT);
; 459  : 
; 460  : 	//FrameRect(aHDC,&lrect,(HBRUSH)hHandle );
; 461  : 	//DeleteObject((HGDIOBJ)hHandle);
; 462  : 
; 463  : 	////InflateRect(&lrect,1,1);
; 464  : 	//hHandle = CreateSolidBrush(gWndColor.getColor(COLOL_CTROL)->structColBase->colFrame2 );
; 465  : 	//FrameRect(aHDC, &lrect,(HBRUSH)hHandle );
; 466  : 	//InflateRect(&lrect,-1,-1);
; 467  : 	//FrameRect(aHDC, &lrect,(HBRUSH)hHandle );
; 468  : 	//DeleteObject((HGDIOBJ)hHandle);
; 469  : }

  01017	8b e5		 mov	 esp, ebp
  01019	5d		 pop	 ebp
  0101a	c2 14 00	 ret	 20			; 00000014H
?DrawColorNoTextEnter@CButtonDraw@@IAEXAAPAUHDC__@@AAUtagRECT@@AAV?$CStringT@DV?$StrTraitMFC_DLL@DV?$ChTraitsCRT@D@ATL@@@@@ATL@@AAK3@Z ENDP ; CButtonDraw::DrawColorNoTextEnter
; Function compile flags: /Odt
_this$ = -4						; size = 4
_aHDC$ = 8						; size = 4
_aRect$ = 12						; size = 4
_astr$ = 16						; size = 4
_acolBegain$ = 20					; size = 4
_acolEnd$ = 24						; size = 4
?DrawColorNoTextNormal@CButtonDraw@@IAEXAAPAUHDC__@@AAUtagRECT@@AAV?$CStringT@DV?$StrTraitMFC_DLL@DV?$ChTraitsCRT@D@ATL@@@@@ATL@@AAK3@Z PROC NEAR ; CButtonDraw::DrawColorNoTextNormal
; _this$ = ecx

; 471  : {

  01020	55		 push	 ebp
  01021	8b ec		 mov	 ebp, esp
  01023	51		 push	 ecx
  01024	89 4d fc	 mov	 DWORD PTR _this$[ebp], ecx

; 472  : 	//HBRUSH hHandle = 0;
; 473  : 	//hHandle = CreateSolidBrush(acolBegain);
; 474  : 
; 475  : 	//RECT lrect = CRect(aRect.left+LEFT_X_COL_NOTEXT_SPACE, aRect.top+LEFT_Y_COL_NOTEXT_SPACE, aRect.left+LEFT_X_COL_NOTEXT_SPACE+COL_HIGHT,aRect.top+LEFT_Y_COL_NOTEXT_SPACE+COL_HIGHT);
; 476  : 	//gBitMapOperate.FillRectangle(aHDC, lrect,acolBegain,acolEnd, gBitMapOperate.edoVertical,true,COL_HIGHT );
; 477  : 
; 478  : 	//FrameRect(aHDC,&lrect,(HBRUSH)hHandle );
; 479  : 	//DeleteObject((HGDIOBJ)hHandle);
; 480  : 
; 481  : 	////InflateRect(&lrect,1,1);
; 482  : 	//hHandle = CreateSolidBrush(gWndColor.getColor(COLOL_CTROL)->structColBase->colFrame1 );
; 483  : 	//FrameRect(aHDC, &lrect,(HBRUSH)hHandle );
; 484  : 	//InflateRect(&lrect,-1,-1);
; 485  : 	//FrameRect(aHDC, &lrect,(HBRUSH)hHandle );
; 486  : 	//DeleteObject((HGDIOBJ)hHandle);
; 487  : }

  01027	8b e5		 mov	 esp, ebp
  01029	5d		 pop	 ebp
  0102a	c2 14 00	 ret	 20			; 00000014H
?DrawColorNoTextNormal@CButtonDraw@@IAEXAAPAUHDC__@@AAUtagRECT@@AAV?$CStringT@DV?$StrTraitMFC_DLL@DV?$ChTraitsCRT@D@ATL@@@@@ATL@@AAK3@Z ENDP ; CButtonDraw::DrawColorNoTextNormal
; Function compile flags: /Odt
_this$ = -8						; size = 4
_hHandle$ = -4						; size = 4
_aHDC$ = 8						; size = 4
_aRect$ = 12						; size = 4
_astr$ = 16						; size = 4
?DrawDefaultButtonNormal@CButtonDraw@@IAEXAAPAUHDC__@@AAUtagRECT@@AAV?$CStringT@DV?$StrTraitMFC_DLL@DV?$ChTraitsCRT@D@ATL@@@@@ATL@@@Z PROC NEAR ; CButtonDraw::DrawDefaultButtonNormal
; _this$ = ecx

; 489  : {

  01030	55		 push	 ebp
  01031	8b ec		 mov	 ebp, esp
  01033	83 ec 08	 sub	 esp, 8
  01036	89 4d f8	 mov	 DWORD PTR _this$[ebp], ecx

; 490  : 	HBRUSH hHandle = 0;

  01039	c7 45 fc 00 00
	00 00		 mov	 DWORD PTR _hHandle$[ebp], 0

; 491  : 	hHandle = CreateSolidBrush( gWndColor.getColor(COLOL_CTROL)->structColBase->colFrame1 );

  01040	6a 05		 push	 5
  01042	b9 00 00 00 00	 mov	 ecx, OFFSET FLAT:?gWndColor@@3VCWndColorMgr@@A ; gWndColor
  01047	e8 00 00 00 00	 call	 ?getColor@CWndColorMgr@@QAEPAUCtrColBase@@I@Z ; CWndColorMgr::getColor
  0104c	8b 00		 mov	 eax, DWORD PTR [eax]
  0104e	8b 08		 mov	 ecx, DWORD PTR [eax]
  01050	51		 push	 ecx
  01051	ff 15 00 00 00
	00		 call	 DWORD PTR __imp__CreateSolidBrush@4
  01057	89 45 fc	 mov	 DWORD PTR _hHandle$[ebp], eax

; 492  : 	FrameRect(aHDC,&aRect,(HBRUSH)hHandle );

  0105a	8b 55 fc	 mov	 edx, DWORD PTR _hHandle$[ebp]
  0105d	52		 push	 edx
  0105e	8b 45 0c	 mov	 eax, DWORD PTR _aRect$[ebp]
  01061	50		 push	 eax
  01062	8b 4d 08	 mov	 ecx, DWORD PTR _aHDC$[ebp]
  01065	8b 11		 mov	 edx, DWORD PTR [ecx]
  01067	52		 push	 edx
  01068	ff 15 00 00 00
	00		 call	 DWORD PTR __imp__FrameRect@12

; 493  : 	DeleteObject((HGDIOBJ)hHandle);

  0106e	8b 45 fc	 mov	 eax, DWORD PTR _hHandle$[ebp]
  01071	50		 push	 eax
  01072	ff 15 00 00 00
	00		 call	 DWORD PTR __imp__DeleteObject@4

; 494  : }

  01078	8b e5		 mov	 esp, ebp
  0107a	5d		 pop	 ebp
  0107b	c2 0c 00	 ret	 12			; 0000000cH
?DrawDefaultButtonNormal@CButtonDraw@@IAEXAAPAUHDC__@@AAUtagRECT@@AAV?$CStringT@DV?$StrTraitMFC_DLL@DV?$ChTraitsCRT@D@ATL@@@@@ATL@@@Z ENDP ; CButtonDraw::DrawDefaultButtonNormal
; Function compile flags: /Odt
_this$ = -8						; size = 4
_hHandle$ = -4						; size = 4
_aHDC$ = 8						; size = 4
_aRect$ = 12						; size = 4
_astr$ = 16						; size = 4
?DrawDefaultButtonEnter@CButtonDraw@@IAEXAAPAUHDC__@@AAUtagRECT@@AAV?$CStringT@DV?$StrTraitMFC_DLL@DV?$ChTraitsCRT@D@ATL@@@@@ATL@@@Z PROC NEAR ; CButtonDraw::DrawDefaultButtonEnter
; _this$ = ecx

; 496  : {

  01080	55		 push	 ebp
  01081	8b ec		 mov	 ebp, esp
  01083	83 ec 08	 sub	 esp, 8
  01086	89 4d f8	 mov	 DWORD PTR _this$[ebp], ecx

; 497  : 	HBRUSH hHandle = 0;

  01089	c7 45 fc 00 00
	00 00		 mov	 DWORD PTR _hHandle$[ebp], 0

; 498  : 	hHandle = CreateSolidBrush( gWndColor.getColor(COLOL_CTROL)->structColBase->colFrame2 );

  01090	6a 05		 push	 5
  01092	b9 00 00 00 00	 mov	 ecx, OFFSET FLAT:?gWndColor@@3VCWndColorMgr@@A ; gWndColor
  01097	e8 00 00 00 00	 call	 ?getColor@CWndColorMgr@@QAEPAUCtrColBase@@I@Z ; CWndColorMgr::getColor
  0109c	8b 00		 mov	 eax, DWORD PTR [eax]
  0109e	8b 48 04	 mov	 ecx, DWORD PTR [eax+4]
  010a1	51		 push	 ecx
  010a2	ff 15 00 00 00
	00		 call	 DWORD PTR __imp__CreateSolidBrush@4
  010a8	89 45 fc	 mov	 DWORD PTR _hHandle$[ebp], eax

; 499  : 	FrameRect(aHDC,&aRect,(HBRUSH)hHandle );

  010ab	8b 55 fc	 mov	 edx, DWORD PTR _hHandle$[ebp]
  010ae	52		 push	 edx
  010af	8b 45 0c	 mov	 eax, DWORD PTR _aRect$[ebp]
  010b2	50		 push	 eax
  010b3	8b 4d 08	 mov	 ecx, DWORD PTR _aHDC$[ebp]
  010b6	8b 11		 mov	 edx, DWORD PTR [ecx]
  010b8	52		 push	 edx
  010b9	ff 15 00 00 00
	00		 call	 DWORD PTR __imp__FrameRect@12

; 500  : 	DeleteObject((HGDIOBJ)hHandle);

  010bf	8b 45 fc	 mov	 eax, DWORD PTR _hHandle$[ebp]
  010c2	50		 push	 eax
  010c3	ff 15 00 00 00
	00		 call	 DWORD PTR __imp__DeleteObject@4

; 501  : }

  010c9	8b e5		 mov	 esp, ebp
  010cb	5d		 pop	 ebp
  010cc	c2 0c 00	 ret	 12			; 0000000cH
?DrawDefaultButtonEnter@CButtonDraw@@IAEXAAPAUHDC__@@AAUtagRECT@@AAV?$CStringT@DV?$StrTraitMFC_DLL@DV?$ChTraitsCRT@D@ATL@@@@@ATL@@@Z ENDP ; CButtonDraw::DrawDefaultButtonEnter
_TEXT	ENDS
EXTRN	?DrawLine@CBitMapOperate@@UAEXPAUHDC__@@KMHHHHH@Z:NEAR ; CBitMapOperate::DrawLine
EXTRN	?gBitMapOperate@@3VCBitMapOperate@@A:BYTE	; gBitMapOperate
EXTRN	__fltused:NEAR
; Function compile flags: /Odt
_TEXT	SEGMENT
_this$ = -8						; size = 4
_hHandle$ = -4						; size = 4
_aHDC$ = 8						; size = 4
_aRect$ = 12						; size = 4
?DrawExitButtonNormal@CButtonDraw@@IAEXAAPAUHDC__@@AAUtagRECT@@@Z PROC NEAR ; CButtonDraw::DrawExitButtonNormal
; _this$ = ecx

; 504  : {	

  010d0	55		 push	 ebp
  010d1	8b ec		 mov	 ebp, esp
  010d3	83 ec 08	 sub	 esp, 8
  010d6	89 4d f8	 mov	 DWORD PTR _this$[ebp], ecx

; 505  : 	HBRUSH hHandle = 0;

  010d9	c7 45 fc 00 00
	00 00		 mov	 DWORD PTR _hHandle$[ebp], 0

; 506  : 	hHandle = CreateSolidBrush( gWndColor.getColor(TABLE_CTROL)->structColBase->colFrame1 );

  010e0	6a 02		 push	 2
  010e2	b9 00 00 00 00	 mov	 ecx, OFFSET FLAT:?gWndColor@@3VCWndColorMgr@@A ; gWndColor
  010e7	e8 00 00 00 00	 call	 ?getColor@CWndColorMgr@@QAEPAUCtrColBase@@I@Z ; CWndColorMgr::getColor
  010ec	8b 00		 mov	 eax, DWORD PTR [eax]
  010ee	8b 08		 mov	 ecx, DWORD PTR [eax]
  010f0	51		 push	 ecx
  010f1	ff 15 00 00 00
	00		 call	 DWORD PTR __imp__CreateSolidBrush@4
  010f7	89 45 fc	 mov	 DWORD PTR _hHandle$[ebp], eax

; 507  : 	FrameRect(aHDC,&aRect,(HBRUSH)hHandle );

  010fa	8b 55 fc	 mov	 edx, DWORD PTR _hHandle$[ebp]
  010fd	52		 push	 edx
  010fe	8b 45 0c	 mov	 eax, DWORD PTR _aRect$[ebp]
  01101	50		 push	 eax
  01102	8b 4d 08	 mov	 ecx, DWORD PTR _aHDC$[ebp]
  01105	8b 11		 mov	 edx, DWORD PTR [ecx]
  01107	52		 push	 edx
  01108	ff 15 00 00 00
	00		 call	 DWORD PTR __imp__FrameRect@12

; 508  : 	gBitMapOperate.DrawLine( aHDC, RGB(152, 152, 152), 2, aRect.left+8,aRect.top+8,aRect.left+15,aRect.top+15, true);

  0110e	6a 01		 push	 1
  01110	8b 45 0c	 mov	 eax, DWORD PTR _aRect$[ebp]
  01113	8b 48 04	 mov	 ecx, DWORD PTR [eax+4]
  01116	83 c1 0f	 add	 ecx, 15			; 0000000fH
  01119	51		 push	 ecx
  0111a	8b 55 0c	 mov	 edx, DWORD PTR _aRect$[ebp]
  0111d	8b 02		 mov	 eax, DWORD PTR [edx]
  0111f	83 c0 0f	 add	 eax, 15			; 0000000fH
  01122	50		 push	 eax
  01123	8b 4d 0c	 mov	 ecx, DWORD PTR _aRect$[ebp]
  01126	8b 51 04	 mov	 edx, DWORD PTR [ecx+4]
  01129	83 c2 08	 add	 edx, 8
  0112c	52		 push	 edx
  0112d	8b 45 0c	 mov	 eax, DWORD PTR _aRect$[ebp]
  01130	8b 08		 mov	 ecx, DWORD PTR [eax]
  01132	83 c1 08	 add	 ecx, 8
  01135	51		 push	 ecx
  01136	68 00 00 00 40	 push	 1073741824		; 40000000H
  0113b	68 98 98 98 00	 push	 10000536		; 00989898H
  01140	8b 55 08	 mov	 edx, DWORD PTR _aHDC$[ebp]
  01143	8b 02		 mov	 eax, DWORD PTR [edx]
  01145	50		 push	 eax
  01146	b9 00 00 00 00	 mov	 ecx, OFFSET FLAT:?gBitMapOperate@@3VCBitMapOperate@@A
  0114b	e8 00 00 00 00	 call	 ?DrawLine@CBitMapOperate@@UAEXPAUHDC__@@KMHHHHH@Z ; CBitMapOperate::DrawLine

; 509  : 	gBitMapOperate.DrawLine( aHDC, RGB(152, 152, 152), 2, aRect.left+8,aRect.top+15,aRect.left+15,aRect.top+8, true);

  01150	6a 01		 push	 1
  01152	8b 4d 0c	 mov	 ecx, DWORD PTR _aRect$[ebp]
  01155	8b 51 04	 mov	 edx, DWORD PTR [ecx+4]
  01158	83 c2 08	 add	 edx, 8
  0115b	52		 push	 edx
  0115c	8b 45 0c	 mov	 eax, DWORD PTR _aRect$[ebp]
  0115f	8b 08		 mov	 ecx, DWORD PTR [eax]
  01161	83 c1 0f	 add	 ecx, 15			; 0000000fH
  01164	51		 push	 ecx
  01165	8b 55 0c	 mov	 edx, DWORD PTR _aRect$[ebp]
  01168	8b 42 04	 mov	 eax, DWORD PTR [edx+4]
  0116b	83 c0 0f	 add	 eax, 15			; 0000000fH
  0116e	50		 push	 eax
  0116f	8b 4d 0c	 mov	 ecx, DWORD PTR _aRect$[ebp]
  01172	8b 11		 mov	 edx, DWORD PTR [ecx]
  01174	83 c2 08	 add	 edx, 8
  01177	52		 push	 edx
  01178	68 00 00 00 40	 push	 1073741824		; 40000000H
  0117d	68 98 98 98 00	 push	 10000536		; 00989898H
  01182	8b 45 08	 mov	 eax, DWORD PTR _aHDC$[ebp]
  01185	8b 08		 mov	 ecx, DWORD PTR [eax]
  01187	51		 push	 ecx
  01188	b9 00 00 00 00	 mov	 ecx, OFFSET FLAT:?gBitMapOperate@@3VCBitMapOperate@@A
  0118d	e8 00 00 00 00	 call	 ?DrawLine@CBitMapOperate@@UAEXPAUHDC__@@KMHHHHH@Z ; CBitMapOperate::DrawLine

; 510  : 	DeleteObject((HGDIOBJ)hHandle);

  01192	8b 55 fc	 mov	 edx, DWORD PTR _hHandle$[ebp]
  01195	52		 push	 edx
  01196	ff 15 00 00 00
	00		 call	 DWORD PTR __imp__DeleteObject@4

; 511  : }

  0119c	8b e5		 mov	 esp, ebp
  0119e	5d		 pop	 ebp
  0119f	c2 08 00	 ret	 8
?DrawExitButtonNormal@CButtonDraw@@IAEXAAPAUHDC__@@AAUtagRECT@@@Z ENDP ; CButtonDraw::DrawExitButtonNormal
; Function compile flags: /Odt
_this$ = -8						; size = 4
_hHandle$ = -4						; size = 4
_aHDC$ = 8						; size = 4
_aRect$ = 12						; size = 4
?DrawExitButtonEnter@CButtonDraw@@IAEXAAPAUHDC__@@AAUtagRECT@@@Z PROC NEAR ; CButtonDraw::DrawExitButtonEnter
; _this$ = ecx

; 514  : {

  011b0	55		 push	 ebp
  011b1	8b ec		 mov	 ebp, esp
  011b3	83 ec 08	 sub	 esp, 8
  011b6	89 4d f8	 mov	 DWORD PTR _this$[ebp], ecx

; 515  : 	HBRUSH hHandle = 0;

  011b9	c7 45 fc 00 00
	00 00		 mov	 DWORD PTR _hHandle$[ebp], 0

; 516  : 	hHandle = CreateSolidBrush( gWndColor.getColor(TABLE_CTROL)->structColBase->colFrame1 );

  011c0	6a 02		 push	 2
  011c2	b9 00 00 00 00	 mov	 ecx, OFFSET FLAT:?gWndColor@@3VCWndColorMgr@@A ; gWndColor
  011c7	e8 00 00 00 00	 call	 ?getColor@CWndColorMgr@@QAEPAUCtrColBase@@I@Z ; CWndColorMgr::getColor
  011cc	8b 00		 mov	 eax, DWORD PTR [eax]
  011ce	8b 08		 mov	 ecx, DWORD PTR [eax]
  011d0	51		 push	 ecx
  011d1	ff 15 00 00 00
	00		 call	 DWORD PTR __imp__CreateSolidBrush@4
  011d7	89 45 fc	 mov	 DWORD PTR _hHandle$[ebp], eax

; 517  : 	FrameRect(aHDC,&aRect,(HBRUSH)hHandle );

  011da	8b 55 fc	 mov	 edx, DWORD PTR _hHandle$[ebp]
  011dd	52		 push	 edx
  011de	8b 45 0c	 mov	 eax, DWORD PTR _aRect$[ebp]
  011e1	50		 push	 eax
  011e2	8b 4d 08	 mov	 ecx, DWORD PTR _aHDC$[ebp]
  011e5	8b 11		 mov	 edx, DWORD PTR [ecx]
  011e7	52		 push	 edx
  011e8	ff 15 00 00 00
	00		 call	 DWORD PTR __imp__FrameRect@12

; 518  : 	gBitMapOperate.DrawLine( aHDC, RGB(125, 125, 125), 2, aRect.left+8,aRect.top+8,aRect.left+15,aRect.top+15, true);

  011ee	6a 01		 push	 1
  011f0	8b 45 0c	 mov	 eax, DWORD PTR _aRect$[ebp]
  011f3	8b 48 04	 mov	 ecx, DWORD PTR [eax+4]
  011f6	83 c1 0f	 add	 ecx, 15			; 0000000fH
  011f9	51		 push	 ecx
  011fa	8b 55 0c	 mov	 edx, DWORD PTR _aRect$[ebp]
  011fd	8b 02		 mov	 eax, DWORD PTR [edx]
  011ff	83 c0 0f	 add	 eax, 15			; 0000000fH
  01202	50		 push	 eax
  01203	8b 4d 0c	 mov	 ecx, DWORD PTR _aRect$[ebp]
  01206	8b 51 04	 mov	 edx, DWORD PTR [ecx+4]
  01209	83 c2 08	 add	 edx, 8
  0120c	52		 push	 edx
  0120d	8b 45 0c	 mov	 eax, DWORD PTR _aRect$[ebp]
  01210	8b 08		 mov	 ecx, DWORD PTR [eax]
  01212	83 c1 08	 add	 ecx, 8
  01215	51		 push	 ecx
  01216	68 00 00 00 40	 push	 1073741824		; 40000000H
  0121b	68 7d 7d 7d 00	 push	 8224125			; 007d7d7dH
  01220	8b 55 08	 mov	 edx, DWORD PTR _aHDC$[ebp]
  01223	8b 02		 mov	 eax, DWORD PTR [edx]
  01225	50		 push	 eax
  01226	b9 00 00 00 00	 mov	 ecx, OFFSET FLAT:?gBitMapOperate@@3VCBitMapOperate@@A
  0122b	e8 00 00 00 00	 call	 ?DrawLine@CBitMapOperate@@UAEXPAUHDC__@@KMHHHHH@Z ; CBitMapOperate::DrawLine

; 519  : 	gBitMapOperate.DrawLine( aHDC, RGB(125, 125, 125), 2, aRect.left+8,aRect.top+15,aRect.left+15,aRect.top+8, true);

  01230	6a 01		 push	 1
  01232	8b 4d 0c	 mov	 ecx, DWORD PTR _aRect$[ebp]
  01235	8b 51 04	 mov	 edx, DWORD PTR [ecx+4]
  01238	83 c2 08	 add	 edx, 8
  0123b	52		 push	 edx
  0123c	8b 45 0c	 mov	 eax, DWORD PTR _aRect$[ebp]
  0123f	8b 08		 mov	 ecx, DWORD PTR [eax]
  01241	83 c1 0f	 add	 ecx, 15			; 0000000fH
  01244	51		 push	 ecx
  01245	8b 55 0c	 mov	 edx, DWORD PTR _aRect$[ebp]
  01248	8b 42 04	 mov	 eax, DWORD PTR [edx+4]
  0124b	83 c0 0f	 add	 eax, 15			; 0000000fH
  0124e	50		 push	 eax
  0124f	8b 4d 0c	 mov	 ecx, DWORD PTR _aRect$[ebp]
  01252	8b 11		 mov	 edx, DWORD PTR [ecx]
  01254	83 c2 08	 add	 edx, 8
  01257	52		 push	 edx
  01258	68 00 00 00 40	 push	 1073741824		; 40000000H
  0125d	68 7d 7d 7d 00	 push	 8224125			; 007d7d7dH
  01262	8b 45 08	 mov	 eax, DWORD PTR _aHDC$[ebp]
  01265	8b 08		 mov	 ecx, DWORD PTR [eax]
  01267	51		 push	 ecx
  01268	b9 00 00 00 00	 mov	 ecx, OFFSET FLAT:?gBitMapOperate@@3VCBitMapOperate@@A
  0126d	e8 00 00 00 00	 call	 ?DrawLine@CBitMapOperate@@UAEXPAUHDC__@@KMHHHHH@Z ; CBitMapOperate::DrawLine

; 520  : 	DeleteObject((HGDIOBJ)hHandle);

  01272	8b 55 fc	 mov	 edx, DWORD PTR _hHandle$[ebp]
  01275	52		 push	 edx
  01276	ff 15 00 00 00
	00		 call	 DWORD PTR __imp__DeleteObject@4

; 521  : }

  0127c	8b e5		 mov	 esp, ebp
  0127e	5d		 pop	 ebp
  0127f	c2 08 00	 ret	 8
?DrawExitButtonEnter@CButtonDraw@@IAEXAAPAUHDC__@@AAUtagRECT@@@Z ENDP ; CButtonDraw::DrawExitButtonEnter
_TEXT	ENDS
EXTRN	?OnDestroy@CWnd@@IAEXXZ:NEAR			; CWnd::OnDestroy
; Function compile flags: /Odt
_TEXT	SEGMENT
_this$ = -4						; size = 4
?OnDestroy@CSkinButton@@AAEXXZ PROC NEAR		; CSkinButton::OnDestroy
; _this$ = ecx

; 524  : {

  01290	55		 push	 ebp
  01291	8b ec		 mov	 ebp, esp
  01293	51		 push	 ecx
  01294	89 4d fc	 mov	 DWORD PTR _this$[ebp], ecx

; 525  : 	CButton::OnDestroy();

  01297	8b 4d fc	 mov	 ecx, DWORD PTR _this$[ebp]
  0129a	e8 00 00 00 00	 call	 ?OnDestroy@CWnd@@IAEXXZ	; CWnd::OnDestroy

; 526  : 
; 527  : 	//if(NULL != m_BitMap)
; 528  : 	//{
; 529  : 	//	m_BitMap->Detach();
; 530  : 	//	delete m_BitMap;
; 531  : 	//	m_BitMap = NULL;
; 532  : 	//}
; 533  : }

  0129f	8b e5		 mov	 esp, ebp
  012a1	5d		 pop	 ebp
  012a2	c3		 ret	 0
?OnDestroy@CSkinButton@@AAEXXZ ENDP			; CSkinButton::OnDestroy
_TEXT	ENDS
PUBLIC	?SetMaxTipWidth@CToolTipCtrl@@QAEHH@Z		; CToolTipCtrl::SetMaxTipWidth
PUBLIC	?Activate@CToolTipCtrl@@QAEXH@Z			; CToolTipCtrl::Activate
PUBLIC	?SetToolTipText@CSkinButton@@QAEXV?$CStringT@DV?$StrTraitMFC_DLL@DV?$ChTraitsCRT@D@ATL@@@@@ATL@@@Z ; CSkinButton::SetToolTipText
EXTRN	__imp_??4?$CStringT@DV?$StrTraitMFC_DLL@DV?$ChTraitsCRT@D@ATL@@@@@ATL@@QAEAAV01@ABV01@@Z:NEAR
EXTRN	?AddTool@CToolTipCtrl@@QAEHPAVCWnd@@PBDPBUtagRECT@@I@Z:NEAR ; CToolTipCtrl::AddTool
EXTRN	?UpdateTipText@CToolTipCtrl@@QAEXPBDPAVCWnd@@I@Z:NEAR ; CToolTipCtrl::UpdateTipText
xdata$x	SEGMENT
$T199337 DD	0ffffffffH
	DD	FLAT:$L199333
$T199335 DD	019930520H
	DD	01H
	DD	FLAT:$T199337
	DD	2 DUP(00H)
	DD	2 DUP(00H)
; Function compile flags: /Odt
xdata$x	ENDS
_TEXT	SEGMENT
_this$ = -16						; size = 4
__$EHRec$ = -12						; size = 12
_s$ = 8							; size = 4
?SetToolTipText@CSkinButton@@QAEXV?$CStringT@DV?$StrTraitMFC_DLL@DV?$ChTraitsCRT@D@ATL@@@@@ATL@@@Z PROC NEAR ; CSkinButton::SetToolTipText
; _this$ = ecx

; 535  : {

  012b0	55		 push	 ebp
  012b1	8b ec		 mov	 ebp, esp
  012b3	6a ff		 push	 -1
  012b5	68 00 00 00 00	 push	 __ehhandler$?SetToolTipText@CSkinButton@@QAEXV?$CStringT@DV?$StrTraitMFC_DLL@DV?$ChTraitsCRT@D@ATL@@@@@ATL@@@Z
  012ba	64 a1 00 00 00
	00		 mov	 eax, DWORD PTR fs:__except_list
  012c0	50		 push	 eax
  012c1	64 89 25 00 00
	00 00		 mov	 DWORD PTR fs:__except_list, esp
  012c8	51		 push	 ecx
  012c9	89 4d f0	 mov	 DWORD PTR _this$[ebp], ecx
  012cc	c7 45 fc 00 00
	00 00		 mov	 DWORD PTR __$EHRec$[ebp+8], 0

; 536  : 	m_strToolTip = s;

  012d3	8d 45 08	 lea	 eax, DWORD PTR _s$[ebp]
  012d6	50		 push	 eax
  012d7	8b 4d f0	 mov	 ecx, DWORD PTR _this$[ebp]
  012da	81 c1 e0 00 00
	00		 add	 ecx, 224		; 000000e0H
  012e0	ff 15 00 00 00
	00		 call	 DWORD PTR __imp_??4?$CStringT@DV?$StrTraitMFC_DLL@DV?$ChTraitsCRT@D@ATL@@@@@ATL@@QAEAAV01@ABV01@@Z

; 537  : 	if(m_tooltip.m_hWnd==NULL)

  012e6	8b 4d f0	 mov	 ecx, DWORD PTR _this$[ebp]
  012e9	83 b9 90 00 00
	00 00		 cmp	 DWORD PTR [ecx+144], 0
  012f0	75 4d		 jne	 SHORT $L198406

; 538  : 	{
; 539  : 		if(m_tooltip.Create(this,TTS_ALWAYSTIP|WS_POPUP|WS_EX_TOOLWINDOW ))	//first assignment

  012f2	68 81 00 00 80	 push	 -2147483519		; 80000081H
  012f7	8b 55 f0	 mov	 edx, DWORD PTR _this$[ebp]
  012fa	52		 push	 edx
  012fb	8b 4d f0	 mov	 ecx, DWORD PTR _this$[ebp]
  012fe	83 c1 70	 add	 ecx, 112		; 00000070H
  01301	8b 45 f0	 mov	 eax, DWORD PTR _this$[ebp]
  01304	8b 50 70	 mov	 edx, DWORD PTR [eax+112]
  01307	ff 92 38 01 00
	00		 call	 DWORD PTR [edx+312]
  0130d	85 c0		 test	 eax, eax
  0130f	74 2e		 je	 SHORT $L198406

; 540  : 		{
; 541  : 			if(m_tooltip.AddTool(this, (LPCTSTR)s))

  01311	6a 00		 push	 0
  01313	6a 00		 push	 0
  01315	8d 4d 08	 lea	 ecx, DWORD PTR _s$[ebp]
  01318	ff 15 00 00 00
	00		 call	 DWORD PTR __imp_??B?$CSimpleStringT@D$00@ATL@@QBEPBDXZ
  0131e	50		 push	 eax
  0131f	8b 45 f0	 mov	 eax, DWORD PTR _this$[ebp]
  01322	50		 push	 eax
  01323	8b 4d f0	 mov	 ecx, DWORD PTR _this$[ebp]
  01326	83 c1 70	 add	 ecx, 112		; 00000070H
  01329	e8 00 00 00 00	 call	 ?AddTool@CToolTipCtrl@@QAEHPAVCWnd@@PBDPBUtagRECT@@I@Z ; CToolTipCtrl::AddTool
  0132e	85 c0		 test	 eax, eax
  01330	74 0d		 je	 SHORT $L198406

; 542  : 				m_tooltip.Activate(1);

  01332	6a 01		 push	 1
  01334	8b 4d f0	 mov	 ecx, DWORD PTR _this$[ebp]
  01337	83 c1 70	 add	 ecx, 112		; 00000070H
  0133a	e8 00 00 00 00	 call	 ?Activate@CToolTipCtrl@@QAEXH@Z ; CToolTipCtrl::Activate
$L198406:

; 543  : 		}
; 544  : 	} 
; 545  : 	m_tooltip.SetMaxTipWidth(150);

  0133f	68 96 00 00 00	 push	 150			; 00000096H
  01344	8b 4d f0	 mov	 ecx, DWORD PTR _this$[ebp]
  01347	83 c1 70	 add	 ecx, 112		; 00000070H
  0134a	e8 00 00 00 00	 call	 ?SetMaxTipWidth@CToolTipCtrl@@QAEHH@Z ; CToolTipCtrl::SetMaxTipWidth

; 546  : 	m_tooltip.UpdateTipText((LPCTSTR)s,this);

  0134f	6a 00		 push	 0
  01351	8b 4d f0	 mov	 ecx, DWORD PTR _this$[ebp]
  01354	51		 push	 ecx
  01355	8d 4d 08	 lea	 ecx, DWORD PTR _s$[ebp]
  01358	ff 15 00 00 00
	00		 call	 DWORD PTR __imp_??B?$CSimpleStringT@D$00@ATL@@QBEPBDXZ
  0135e	50		 push	 eax
  0135f	8b 4d f0	 mov	 ecx, DWORD PTR _this$[ebp]
  01362	83 c1 70	 add	 ecx, 112		; 00000070H
  01365	e8 00 00 00 00	 call	 ?UpdateTipText@CToolTipCtrl@@QAEXPBDPAVCWnd@@I@Z ; CToolTipCtrl::UpdateTipText

; 547  : }

  0136a	c7 45 fc ff ff
	ff ff		 mov	 DWORD PTR __$EHRec$[ebp+8], -1
  01371	8d 4d 08	 lea	 ecx, DWORD PTR _s$[ebp]
  01374	ff 15 00 00 00
	00		 call	 DWORD PTR __imp_??1?$CStringT@DV?$StrTraitMFC_DLL@DV?$ChTraitsCRT@D@ATL@@@@@ATL@@QAE@XZ
  0137a	8b 4d f4	 mov	 ecx, DWORD PTR __$EHRec$[ebp]
  0137d	64 89 0d 00 00
	00 00		 mov	 DWORD PTR fs:__except_list, ecx
  01384	8b e5		 mov	 esp, ebp
  01386	5d		 pop	 ebp
  01387	c2 04 00	 ret	 4
_TEXT	ENDS
text$x	SEGMENT
$L199333:
  0010d	8d 4d 08	 lea	 ecx, DWORD PTR _s$[ebp]
  00110	ff 25 00 00 00
	00		 jmp	 DWORD PTR __imp_??1?$CStringT@DV?$StrTraitMFC_DLL@DV?$ChTraitsCRT@D@ATL@@@@@ATL@@QAE@XZ
__ehhandler$?SetToolTipText@CSkinButton@@QAEXV?$CStringT@DV?$StrTraitMFC_DLL@DV?$ChTraitsCRT@D@ATL@@@@@ATL@@@Z:
  00116	b8 00 00 00 00	 mov	 eax, OFFSET FLAT:$T199335
  0011b	e9 00 00 00 00	 jmp	 ___CxxFrameHandler
text$x	ENDS
?SetToolTipText@CSkinButton@@QAEXV?$CStringT@DV?$StrTraitMFC_DLL@DV?$ChTraitsCRT@D@ATL@@@@@ATL@@@Z ENDP ; CSkinButton::SetToolTipText
PUBLIC	?RelayEvent@CToolTipCtrl@@QAEXPAUtagMSG@@@Z	; CToolTipCtrl::RelayEvent
; Function compile flags: /Odt
_TEXT	SEGMENT
_this$ = -32						; size = 4
_msg$198418 = -28					; size = 28
_message$ = 8						; size = 4
_wParam$ = 12						; size = 4
_lParam$ = 16						; size = 4
?RelayEvent@CSkinButton@@QAEXIIJ@Z PROC NEAR		; CSkinButton::RelayEvent
; _this$ = ecx

; 549  : {

  01390	55		 push	 ebp
  01391	8b ec		 mov	 ebp, esp
  01393	83 ec 20	 sub	 esp, 32			; 00000020H
  01396	89 4d e0	 mov	 DWORD PTR _this$[ebp], ecx

; 550  : 	// This function will create a MSG structure, fill it in a pass it to
; 551  : 	// the ToolTip control, m_ttip.  Note that we ensure the point is in window
; 552  : 	// coordinates (relative to the control's window).
; 553  : 	if(NULL != m_tooltip.m_hWnd){

  01399	8b 45 e0	 mov	 eax, DWORD PTR _this$[ebp]
  0139c	83 b8 90 00 00
	00 00		 cmp	 DWORD PTR [eax+144], 0
  013a3	74 4b		 je	 SHORT $L198416

; 554  : 		MSG msg;
; 555  : 		msg.hwnd = m_hWnd;

  013a5	8b 4d e0	 mov	 ecx, DWORD PTR _this$[ebp]
  013a8	8b 51 20	 mov	 edx, DWORD PTR [ecx+32]
  013ab	89 55 e4	 mov	 DWORD PTR _msg$198418[ebp], edx

; 556  : 		msg.message = message;

  013ae	8b 45 08	 mov	 eax, DWORD PTR _message$[ebp]
  013b1	89 45 e8	 mov	 DWORD PTR _msg$198418[ebp+4], eax

; 557  : 		msg.wParam = wParam;

  013b4	8b 4d 0c	 mov	 ecx, DWORD PTR _wParam$[ebp]
  013b7	89 4d ec	 mov	 DWORD PTR _msg$198418[ebp+8], ecx

; 558  : 		msg.lParam = lParam;

  013ba	8b 55 10	 mov	 edx, DWORD PTR _lParam$[ebp]
  013bd	89 55 f0	 mov	 DWORD PTR _msg$198418[ebp+12], edx

; 559  : 		msg.time = 0;

  013c0	c7 45 f4 00 00
	00 00		 mov	 DWORD PTR _msg$198418[ebp+16], 0

; 560  : 		msg.pt.x = LOWORD(lParam);

  013c7	8b 45 10	 mov	 eax, DWORD PTR _lParam$[ebp]
  013ca	25 ff ff 00 00	 and	 eax, 65535		; 0000ffffH
  013cf	0f b7 c8	 movzx	 ecx, ax
  013d2	89 4d f8	 mov	 DWORD PTR _msg$198418[ebp+20], ecx

; 561  : 		msg.pt.y = HIWORD(lParam);

  013d5	8b 55 10	 mov	 edx, DWORD PTR _lParam$[ebp]
  013d8	c1 ea 10	 shr	 edx, 16			; 00000010H
  013db	0f b7 c2	 movzx	 eax, dx
  013de	89 45 fc	 mov	 DWORD PTR _msg$198418[ebp+24], eax

; 562  : 
; 563  : 		m_tooltip.RelayEvent(&msg);

  013e1	8d 4d e4	 lea	 ecx, DWORD PTR _msg$198418[ebp]
  013e4	51		 push	 ecx
  013e5	8b 4d e0	 mov	 ecx, DWORD PTR _this$[ebp]
  013e8	83 c1 70	 add	 ecx, 112		; 00000070H
  013eb	e8 00 00 00 00	 call	 ?RelayEvent@CToolTipCtrl@@QAEXPAUtagMSG@@@Z ; CToolTipCtrl::RelayEvent
$L198416:

; 564  : 	}
; 565  : }

  013f0	8b e5		 mov	 esp, ebp
  013f2	5d		 pop	 ebp
  013f3	c2 0c 00	 ret	 12			; 0000000cH
?RelayEvent@CSkinButton@@QAEXIIJ@Z ENDP			; CSkinButton::RelayEvent
_TEXT	ENDS
PUBLIC	?GetWindowRect@CWnd@@QBEXPAUtagRECT@@@Z		; CWnd::GetWindowRect
PUBLIC	?UpdateWindow@CWnd@@QAEXXZ			; CWnd::UpdateWindow
PUBLIC	?SetUseTip@CSkinButton@@QAEX_N@Z		; CSkinButton::SetUseTip
EXTRN	__imp__GetCursorPos@4:NEAR
EXTRN	__imp__PtInRect@12:NEAR
; Function compile flags: /Odt
_TEXT	SEGMENT
_this$ = -28						; size = 4
_rect$198428 = -24					; size = 16
_point$198429 = -8					; size = 8
_bshowTip$ = 8						; size = 1
?SetUseTip@CSkinButton@@QAEX_N@Z PROC NEAR		; CSkinButton::SetUseTip
; _this$ = ecx

; 567  : {

  01400	55		 push	 ebp
  01401	8b ec		 mov	 ebp, esp
  01403	83 ec 1c	 sub	 esp, 28			; 0000001cH
  01406	89 4d e4	 mov	 DWORD PTR _this$[ebp], ecx

; 568  : 	m_bshowTip=bshowTip ;

  01409	8b 45 e4	 mov	 eax, DWORD PTR _this$[ebp]
  0140c	8a 4d 08	 mov	 cl, BYTE PTR _bshowTip$[ebp]
  0140f	88 88 f1 00 00
	00		 mov	 BYTE PTR [eax+241], cl

; 569  : 	if(m_bshowTip)

  01415	8b 55 e4	 mov	 edx, DWORD PTR _this$[ebp]
  01418	0f b6 82 f1 00
	00 00		 movzx	 eax, BYTE PTR [edx+241]
  0141f	85 c0		 test	 eax, eax
  01421	74 3c		 je	 SHORT $L198426

; 570  : 	{
; 571  : 		CRect rect;

  01423	8d 4d e8	 lea	 ecx, DWORD PTR _rect$198428[ebp]
  01426	e8 00 00 00 00	 call	 ??0CRect@@QAE@XZ	; CRect::CRect

; 572  : 		this->GetWindowRect(&rect);

  0142b	8d 4d e8	 lea	 ecx, DWORD PTR _rect$198428[ebp]
  0142e	51		 push	 ecx
  0142f	8b 4d e4	 mov	 ecx, DWORD PTR _this$[ebp]
  01432	e8 00 00 00 00	 call	 ?GetWindowRect@CWnd@@QBEXPAUtagRECT@@@Z ; CWnd::GetWindowRect

; 573  : 		POINT point;
; 574  : 		::GetCursorPos(&point);

  01437	8d 55 f8	 lea	 edx, DWORD PTR _point$198429[ebp]
  0143a	52		 push	 edx
  0143b	ff 15 00 00 00
	00		 call	 DWORD PTR __imp__GetCursorPos@4

; 575  : 		if (::PtInRect( &rect, point ) )

  01441	8b 45 fc	 mov	 eax, DWORD PTR _point$198429[ebp+4]
  01444	50		 push	 eax
  01445	8b 4d f8	 mov	 ecx, DWORD PTR _point$198429[ebp]
  01448	51		 push	 ecx
  01449	8d 55 e8	 lea	 edx, DWORD PTR _rect$198428[ebp]
  0144c	52		 push	 edx
  0144d	ff 15 00 00 00
	00		 call	 DWORD PTR __imp__PtInRect@12
  01453	85 c0		 test	 eax, eax
  01455	74 08		 je	 SHORT $L198426

; 576  : 		{
; 577  : 			this->UpdateWindow();

  01457	8b 4d e4	 mov	 ecx, DWORD PTR _this$[ebp]
  0145a	e8 00 00 00 00	 call	 ?UpdateWindow@CWnd@@QAEXXZ ; CWnd::UpdateWindow
$L198426:

; 578  : 		}
; 579  : 	}
; 580  : }

  0145f	8b e5		 mov	 esp, ebp
  01461	5d		 pop	 ebp
  01462	c2 04 00	 ret	 4
?SetUseTip@CSkinButton@@QAEX_N@Z ENDP			; CSkinButton::SetUseTip
_TEXT	ENDS
PUBLIC	?SetSmoothingMode@Graphics@Gdiplus@@QAE?AW4Status@2@W4SmoothingMode@2@@Z ; Gdiplus::Graphics::SetSmoothingMode
PUBLIC	??0LinearGradientBrush@Gdiplus@@QAE@ABVRectF@1@ABVColor@1@1W4LinearGradientMode@1@@Z ; Gdiplus::LinearGradientBrush::LinearGradientBrush
PUBLIC	??0PointF@Gdiplus@@QAE@ABV01@@Z			; Gdiplus::PointF::PointF
PUBLIC	?Width@CRect@@QBEHXZ				; CRect::Width
PUBLIC	?Height@CRect@@QBEHXZ				; CRect::Height
PUBLIC	??0PointF@Gdiplus@@QAE@MM@Z			; Gdiplus::PointF::PointF
PUBLIC	??1LinearGradientBrush@Gdiplus@@UAE@XZ		; Gdiplus::LinearGradientBrush::~LinearGradientBrush
PUBLIC	??0RectF@Gdiplus@@QAE@MMMM@Z			; Gdiplus::RectF::RectF
PUBLIC	?FillPolygon@Graphics@Gdiplus@@QAE?AW4Status@2@PBVBrush@2@PBVPointF@2@HW4FillMode@2@@Z ; Gdiplus::Graphics::FillPolygon
xdata$x	SEGMENT
$T199349 DD	0ffffffffH
	DD	FLAT:$L199341
	DD	00H
	DD	FLAT:$L199342
	DD	01H
	DD	FLAT:$L199343
	DD	02H
	DD	FLAT:$L199344
	DD	03H
	DD	FLAT:$L199345
$T199347 DD	019930520H
	DD	05H
	DD	FLAT:$T199349
	DD	2 DUP(00H)
	DD	2 DUP(00H)
; Function compile flags: /Odt
xdata$x	ENDS
_TEXT	SEGMENT
tv384 = -292						; size = 4
tv382 = -288						; size = 4
tv378 = -284						; size = 4
tv376 = -280						; size = 4
tv372 = -276						; size = 4
tv367 = -272						; size = 4
tv343 = -268						; size = 4
tv338 = -264						; size = 4
tv336 = -260						; size = 4
tv331 = -256						; size = 4
tv325 = -252						; size = 4
tv323 = -248						; size = 4
tv317 = -244						; size = 4
tv313 = -240						; size = 4
_this$ = -236						; size = 4
_point4$ = -232						; size = 8
_point6$ = -224						; size = 8
_brush2$ = -216						; size = 12
_rc2$ = -204						; size = 16
_points$ = -188						; size = 32
_point1$ = -156						; size = 8
_pPoints$ = -148					; size = 4
_brush$ = -144						; size = 12
_brushBK$ = -132					; size = 12
_point2$ = -120						; size = 8
_point8$ = -112						; size = 8
_point3$ = -104						; size = 8
_points2$ = -96						; size = 32
_graphics$ = -64					; size = 8
_point7$ = -56						; size = 8
_rc1$ = -48						; size = 16
_point5$ = -32						; size = 8
_brushBK2$ = -24					; size = 12
__$EHRec$ = -12						; size = 12
_pDc$ = 8						; size = 4
_rcBmp$ = 12						; size = 4
?DrawBmpShade@CButtonDraw@@IAEXPAVCDC@@AAVCRect@@@Z PROC NEAR ; CButtonDraw::DrawBmpShade
; _this$ = ecx

; 582  : {

  01470	55		 push	 ebp
  01471	8b ec		 mov	 ebp, esp
  01473	6a ff		 push	 -1
  01475	68 00 00 00 00	 push	 __ehhandler$?DrawBmpShade@CButtonDraw@@IAEXPAVCDC@@AAVCRect@@@Z
  0147a	64 a1 00 00 00
	00		 mov	 eax, DWORD PTR fs:__except_list
  01480	50		 push	 eax
  01481	64 89 25 00 00
	00 00		 mov	 DWORD PTR fs:__except_list, esp
  01488	81 ec 18 01 00
	00		 sub	 esp, 280		; 00000118H
  0148e	89 8d 14 ff ff
	ff		 mov	 DWORD PTR _this$[ebp], ecx

; 583  : 	Gdiplus::Graphics graphics(pDc->m_hDC);

  01494	8b 45 08	 mov	 eax, DWORD PTR _pDc$[ebp]
  01497	8b 48 04	 mov	 ecx, DWORD PTR [eax+4]
  0149a	51		 push	 ecx
  0149b	8d 4d c0	 lea	 ecx, DWORD PTR _graphics$[ebp]
  0149e	e8 00 00 00 00	 call	 ??0Graphics@Gdiplus@@QAE@PAUHDC__@@@Z ; Gdiplus::Graphics::Graphics
  014a3	c7 45 fc 00 00
	00 00		 mov	 DWORD PTR __$EHRec$[ebp+8], 0

; 584  : 	graphics.SetSmoothingMode(SmoothingModeHighQuality);

  014aa	6a 02		 push	 2
  014ac	8d 4d c0	 lea	 ecx, DWORD PTR _graphics$[ebp]
  014af	e8 00 00 00 00	 call	 ?SetSmoothingMode@Graphics@Gdiplus@@QAE?AW4Status@2@W4SmoothingMode@2@@Z ; Gdiplus::Graphics::SetSmoothingMode

; 585  : 	Gdiplus::RectF rc1( rcBmp.right-1, rcBmp.top, 5, rcBmp.Height()+4 );

  014b4	8b 4d 0c	 mov	 ecx, DWORD PTR _rcBmp$[ebp]
  014b7	e8 00 00 00 00	 call	 ?Height@CRect@@QBEHXZ	; CRect::Height
  014bc	83 c0 04	 add	 eax, 4
  014bf	89 85 10 ff ff
	ff		 mov	 DWORD PTR tv313[ebp], eax
  014c5	db 85 10 ff ff
	ff		 fild	 DWORD PTR tv313[ebp]
  014cb	51		 push	 ecx
  014cc	d9 1c 24	 fstp	 DWORD PTR [esp]
  014cf	68 00 00 a0 40	 push	 1084227584		; 40a00000H
  014d4	8b 55 0c	 mov	 edx, DWORD PTR _rcBmp$[ebp]
  014d7	db 42 04	 fild	 DWORD PTR [edx+4]
  014da	51		 push	 ecx
  014db	d9 1c 24	 fstp	 DWORD PTR [esp]
  014de	8b 45 0c	 mov	 eax, DWORD PTR _rcBmp$[ebp]
  014e1	8b 48 08	 mov	 ecx, DWORD PTR [eax+8]
  014e4	83 e9 01	 sub	 ecx, 1
  014e7	89 8d 0c ff ff
	ff		 mov	 DWORD PTR tv317[ebp], ecx
  014ed	db 85 0c ff ff
	ff		 fild	 DWORD PTR tv317[ebp]
  014f3	51		 push	 ecx
  014f4	d9 1c 24	 fstp	 DWORD PTR [esp]
  014f7	8d 4d d0	 lea	 ecx, DWORD PTR _rc1$[ebp]
  014fa	e8 00 00 00 00	 call	 ??0RectF@Gdiplus@@QAE@MMMM@Z ; Gdiplus::RectF::RectF

; 586  : 	Gdiplus::RectF rc2( rcBmp.left, rcBmp.bottom-1, rcBmp.Width()+4, 5);

  014ff	68 00 00 a0 40	 push	 1084227584		; 40a00000H
  01504	8b 4d 0c	 mov	 ecx, DWORD PTR _rcBmp$[ebp]
  01507	e8 00 00 00 00	 call	 ?Width@CRect@@QBEHXZ	; CRect::Width
  0150c	83 c0 04	 add	 eax, 4
  0150f	89 85 08 ff ff
	ff		 mov	 DWORD PTR tv323[ebp], eax
  01515	db 85 08 ff ff
	ff		 fild	 DWORD PTR tv323[ebp]
  0151b	51		 push	 ecx
  0151c	d9 1c 24	 fstp	 DWORD PTR [esp]
  0151f	8b 55 0c	 mov	 edx, DWORD PTR _rcBmp$[ebp]
  01522	8b 42 0c	 mov	 eax, DWORD PTR [edx+12]
  01525	83 e8 01	 sub	 eax, 1
  01528	89 85 04 ff ff
	ff		 mov	 DWORD PTR tv325[ebp], eax
  0152e	db 85 04 ff ff
	ff		 fild	 DWORD PTR tv325[ebp]
  01534	51		 push	 ecx
  01535	d9 1c 24	 fstp	 DWORD PTR [esp]
  01538	8b 4d 0c	 mov	 ecx, DWORD PTR _rcBmp$[ebp]
  0153b	db 01		 fild	 DWORD PTR [ecx]
  0153d	51		 push	 ecx
  0153e	d9 1c 24	 fstp	 DWORD PTR [esp]
  01541	8d 8d 34 ff ff
	ff		 lea	 ecx, DWORD PTR _rc2$[ebp]
  01547	e8 00 00 00 00	 call	 ??0RectF@Gdiplus@@QAE@MMMM@Z ; Gdiplus::RectF::RectF

; 587  : 
; 588  : 	PointF point1(rcBmp.right,  rcBmp.top+1 );

  0154c	8b 55 0c	 mov	 edx, DWORD PTR _rcBmp$[ebp]
  0154f	8b 42 04	 mov	 eax, DWORD PTR [edx+4]
  01552	83 c0 01	 add	 eax, 1
  01555	89 85 00 ff ff
	ff		 mov	 DWORD PTR tv331[ebp], eax
  0155b	db 85 00 ff ff
	ff		 fild	 DWORD PTR tv331[ebp]
  01561	51		 push	 ecx
  01562	d9 1c 24	 fstp	 DWORD PTR [esp]
  01565	8b 4d 0c	 mov	 ecx, DWORD PTR _rcBmp$[ebp]
  01568	db 41 08	 fild	 DWORD PTR [ecx+8]
  0156b	51		 push	 ecx
  0156c	d9 1c 24	 fstp	 DWORD PTR [esp]
  0156f	8d 8d 64 ff ff
	ff		 lea	 ecx, DWORD PTR _point1$[ebp]
  01575	e8 00 00 00 00	 call	 ??0PointF@Gdiplus@@QAE@MM@Z ; Gdiplus::PointF::PointF

; 589  : 	PointF point2(rcBmp.right+4,  rcBmp.top+4);

  0157a	8b 55 0c	 mov	 edx, DWORD PTR _rcBmp$[ebp]
  0157d	8b 42 04	 mov	 eax, DWORD PTR [edx+4]
  01580	83 c0 04	 add	 eax, 4
  01583	89 85 fc fe ff
	ff		 mov	 DWORD PTR tv336[ebp], eax
  01589	db 85 fc fe ff
	ff		 fild	 DWORD PTR tv336[ebp]
  0158f	51		 push	 ecx
  01590	d9 1c 24	 fstp	 DWORD PTR [esp]
  01593	8b 4d 0c	 mov	 ecx, DWORD PTR _rcBmp$[ebp]
  01596	8b 51 08	 mov	 edx, DWORD PTR [ecx+8]
  01599	83 c2 04	 add	 edx, 4
  0159c	89 95 f8 fe ff
	ff		 mov	 DWORD PTR tv338[ebp], edx
  015a2	db 85 f8 fe ff
	ff		 fild	 DWORD PTR tv338[ebp]
  015a8	51		 push	 ecx
  015a9	d9 1c 24	 fstp	 DWORD PTR [esp]
  015ac	8d 4d 88	 lea	 ecx, DWORD PTR _point2$[ebp]
  015af	e8 00 00 00 00	 call	 ??0PointF@Gdiplus@@QAE@MM@Z ; Gdiplus::PointF::PointF

; 590  : 	PointF point3(rcBmp.right+4,  rcBmp.bottom);

  015b4	8b 45 0c	 mov	 eax, DWORD PTR _rcBmp$[ebp]
  015b7	db 40 0c	 fild	 DWORD PTR [eax+12]
  015ba	51		 push	 ecx
  015bb	d9 1c 24	 fstp	 DWORD PTR [esp]
  015be	8b 4d 0c	 mov	 ecx, DWORD PTR _rcBmp$[ebp]
  015c1	8b 51 08	 mov	 edx, DWORD PTR [ecx+8]
  015c4	83 c2 04	 add	 edx, 4
  015c7	89 95 f4 fe ff
	ff		 mov	 DWORD PTR tv343[ebp], edx
  015cd	db 85 f4 fe ff
	ff		 fild	 DWORD PTR tv343[ebp]
  015d3	51		 push	 ecx
  015d4	d9 1c 24	 fstp	 DWORD PTR [esp]
  015d7	8d 4d 98	 lea	 ecx, DWORD PTR _point3$[ebp]
  015da	e8 00 00 00 00	 call	 ??0PointF@Gdiplus@@QAE@MM@Z ; Gdiplus::PointF::PointF

; 591  : 	PointF point4(rcBmp.right,  rcBmp.bottom);

  015df	8b 45 0c	 mov	 eax, DWORD PTR _rcBmp$[ebp]
  015e2	db 40 0c	 fild	 DWORD PTR [eax+12]
  015e5	51		 push	 ecx
  015e6	d9 1c 24	 fstp	 DWORD PTR [esp]
  015e9	8b 4d 0c	 mov	 ecx, DWORD PTR _rcBmp$[ebp]
  015ec	db 41 08	 fild	 DWORD PTR [ecx+8]
  015ef	51		 push	 ecx
  015f0	d9 1c 24	 fstp	 DWORD PTR [esp]
  015f3	8d 8d 18 ff ff
	ff		 lea	 ecx, DWORD PTR _point4$[ebp]
  015f9	e8 00 00 00 00	 call	 ??0PointF@Gdiplus@@QAE@MM@Z ; Gdiplus::PointF::PointF

; 592  : 
; 593  : 	PointF points[4] = {point1, point2, point3, point4};

  015fe	8d 95 64 ff ff
	ff		 lea	 edx, DWORD PTR _point1$[ebp]
  01604	52		 push	 edx
  01605	8d 8d 44 ff ff
	ff		 lea	 ecx, DWORD PTR _points$[ebp]
  0160b	e8 00 00 00 00	 call	 ??0PointF@Gdiplus@@QAE@ABV01@@Z ; Gdiplus::PointF::PointF
  01610	8d 45 88	 lea	 eax, DWORD PTR _point2$[ebp]
  01613	50		 push	 eax
  01614	8d 8d 4c ff ff
	ff		 lea	 ecx, DWORD PTR _points$[ebp+8]
  0161a	e8 00 00 00 00	 call	 ??0PointF@Gdiplus@@QAE@ABV01@@Z ; Gdiplus::PointF::PointF
  0161f	8d 4d 98	 lea	 ecx, DWORD PTR _point3$[ebp]
  01622	51		 push	 ecx
  01623	8d 8d 54 ff ff
	ff		 lea	 ecx, DWORD PTR _points$[ebp+16]
  01629	e8 00 00 00 00	 call	 ??0PointF@Gdiplus@@QAE@ABV01@@Z ; Gdiplus::PointF::PointF
  0162e	8d 95 18 ff ff
	ff		 lea	 edx, DWORD PTR _point4$[ebp]
  01634	52		 push	 edx
  01635	8d 8d 5c ff ff
	ff		 lea	 ecx, DWORD PTR _points$[ebp+24]
  0163b	e8 00 00 00 00	 call	 ??0PointF@Gdiplus@@QAE@ABV01@@Z ; Gdiplus::PointF::PointF

; 594  : 	PointF* pPoints = points;

  01640	8d 85 44 ff ff
	ff		 lea	 eax, DWORD PTR _points$[ebp]
  01646	89 85 6c ff ff
	ff		 mov	 DWORD PTR _pPoints$[ebp], eax

; 595  : 
; 596  : 	LinearGradientBrush brushBK( rc1, m_colBK, m_colBK,LinearGradientModeHorizontal );

  0164c	6a 00		 push	 0
  0164e	8b 8d 14 ff ff
	ff		 mov	 ecx, DWORD PTR _this$[ebp]
  01654	83 c1 04	 add	 ecx, 4
  01657	51		 push	 ecx
  01658	8b 95 14 ff ff
	ff		 mov	 edx, DWORD PTR _this$[ebp]
  0165e	83 c2 04	 add	 edx, 4
  01661	52		 push	 edx
  01662	8d 45 d0	 lea	 eax, DWORD PTR _rc1$[ebp]
  01665	50		 push	 eax
  01666	8d 8d 7c ff ff
	ff		 lea	 ecx, DWORD PTR _brushBK$[ebp]
  0166c	e8 00 00 00 00	 call	 ??0LinearGradientBrush@Gdiplus@@QAE@ABVRectF@1@ABVColor@1@1W4LinearGradientMode@1@@Z ; Gdiplus::LinearGradientBrush::LinearGradientBrush
  01671	c6 45 fc 01	 mov	 BYTE PTR __$EHRec$[ebp+8], 1

; 597  : 	graphics.FillPolygon(&brushBK, pPoints,4,FillModeWinding );

  01675	6a 01		 push	 1
  01677	6a 04		 push	 4
  01679	8b 8d 6c ff ff
	ff		 mov	 ecx, DWORD PTR _pPoints$[ebp]
  0167f	51		 push	 ecx
  01680	8d 95 7c ff ff
	ff		 lea	 edx, DWORD PTR _brushBK$[ebp]
  01686	52		 push	 edx
  01687	8d 4d c0	 lea	 ecx, DWORD PTR _graphics$[ebp]
  0168a	e8 00 00 00 00	 call	 ?FillPolygon@Graphics@Gdiplus@@QAE?AW4Status@2@PBVBrush@2@PBVPointF@2@HW4FillMode@2@@Z ; Gdiplus::Graphics::FillPolygon

; 598  : 
; 599  : 	LinearGradientBrush brush( rc1, m_colShadow, m_colShadow2,LinearGradientModeHorizontal );

  0168f	6a 00		 push	 0
  01691	8b 85 14 ff ff
	ff		 mov	 eax, DWORD PTR _this$[ebp]
  01697	83 c0 0c	 add	 eax, 12			; 0000000cH
  0169a	50		 push	 eax
  0169b	8b 8d 14 ff ff
	ff		 mov	 ecx, DWORD PTR _this$[ebp]
  016a1	83 c1 08	 add	 ecx, 8
  016a4	51		 push	 ecx
  016a5	8d 55 d0	 lea	 edx, DWORD PTR _rc1$[ebp]
  016a8	52		 push	 edx
  016a9	8d 8d 70 ff ff
	ff		 lea	 ecx, DWORD PTR _brush$[ebp]
  016af	e8 00 00 00 00	 call	 ??0LinearGradientBrush@Gdiplus@@QAE@ABVRectF@1@ABVColor@1@1W4LinearGradientMode@1@@Z ; Gdiplus::LinearGradientBrush::LinearGradientBrush
  016b4	c6 45 fc 02	 mov	 BYTE PTR __$EHRec$[ebp+8], 2

; 600  : 	graphics.FillPolygon(&brush, pPoints,4,FillModeWinding );

  016b8	6a 01		 push	 1
  016ba	6a 04		 push	 4
  016bc	8b 85 6c ff ff
	ff		 mov	 eax, DWORD PTR _pPoints$[ebp]
  016c2	50		 push	 eax
  016c3	8d 8d 70 ff ff
	ff		 lea	 ecx, DWORD PTR _brush$[ebp]
  016c9	51		 push	 ecx
  016ca	8d 4d c0	 lea	 ecx, DWORD PTR _graphics$[ebp]
  016cd	e8 00 00 00 00	 call	 ?FillPolygon@Graphics@Gdiplus@@QAE?AW4Status@2@PBVBrush@2@PBVPointF@2@HW4FillMode@2@@Z ; Gdiplus::Graphics::FillPolygon

; 601  : 
; 602  : 	PointF point5(rcBmp.left+1,   rcBmp.bottom );

  016d2	8b 55 0c	 mov	 edx, DWORD PTR _rcBmp$[ebp]
  016d5	db 42 0c	 fild	 DWORD PTR [edx+12]
  016d8	51		 push	 ecx
  016d9	d9 1c 24	 fstp	 DWORD PTR [esp]
  016dc	8b 45 0c	 mov	 eax, DWORD PTR _rcBmp$[ebp]
  016df	8b 08		 mov	 ecx, DWORD PTR [eax]
  016e1	83 c1 01	 add	 ecx, 1
  016e4	89 8d f0 fe ff
	ff		 mov	 DWORD PTR tv367[ebp], ecx
  016ea	db 85 f0 fe ff
	ff		 fild	 DWORD PTR tv367[ebp]
  016f0	51		 push	 ecx
  016f1	d9 1c 24	 fstp	 DWORD PTR [esp]
  016f4	8d 4d e0	 lea	 ecx, DWORD PTR _point5$[ebp]
  016f7	e8 00 00 00 00	 call	 ??0PointF@Gdiplus@@QAE@MM@Z ; Gdiplus::PointF::PointF

; 603  : 	PointF point6(rcBmp.right+4,  rcBmp.bottom);

  016fc	8b 55 0c	 mov	 edx, DWORD PTR _rcBmp$[ebp]
  016ff	db 42 0c	 fild	 DWORD PTR [edx+12]
  01702	51		 push	 ecx
  01703	d9 1c 24	 fstp	 DWORD PTR [esp]
  01706	8b 45 0c	 mov	 eax, DWORD PTR _rcBmp$[ebp]
  01709	8b 48 08	 mov	 ecx, DWORD PTR [eax+8]
  0170c	83 c1 04	 add	 ecx, 4
  0170f	89 8d ec fe ff
	ff		 mov	 DWORD PTR tv372[ebp], ecx
  01715	db 85 ec fe ff
	ff		 fild	 DWORD PTR tv372[ebp]
  0171b	51		 push	 ecx
  0171c	d9 1c 24	 fstp	 DWORD PTR [esp]
  0171f	8d 8d 20 ff ff
	ff		 lea	 ecx, DWORD PTR _point6$[ebp]
  01725	e8 00 00 00 00	 call	 ??0PointF@Gdiplus@@QAE@MM@Z ; Gdiplus::PointF::PointF

; 604  : 	PointF point7(rcBmp.right+4,  rcBmp.bottom+3);

  0172a	8b 55 0c	 mov	 edx, DWORD PTR _rcBmp$[ebp]
  0172d	8b 42 0c	 mov	 eax, DWORD PTR [edx+12]
  01730	83 c0 03	 add	 eax, 3
  01733	89 85 e8 fe ff
	ff		 mov	 DWORD PTR tv376[ebp], eax
  01739	db 85 e8 fe ff
	ff		 fild	 DWORD PTR tv376[ebp]
  0173f	51		 push	 ecx
  01740	d9 1c 24	 fstp	 DWORD PTR [esp]
  01743	8b 4d 0c	 mov	 ecx, DWORD PTR _rcBmp$[ebp]
  01746	8b 51 08	 mov	 edx, DWORD PTR [ecx+8]
  01749	83 c2 04	 add	 edx, 4
  0174c	89 95 e4 fe ff
	ff		 mov	 DWORD PTR tv378[ebp], edx
  01752	db 85 e4 fe ff
	ff		 fild	 DWORD PTR tv378[ebp]
  01758	51		 push	 ecx
  01759	d9 1c 24	 fstp	 DWORD PTR [esp]
  0175c	8d 4d c8	 lea	 ecx, DWORD PTR _point7$[ebp]
  0175f	e8 00 00 00 00	 call	 ??0PointF@Gdiplus@@QAE@MM@Z ; Gdiplus::PointF::PointF

; 605  : 	PointF point8(rcBmp.left+4,    rcBmp.bottom+3);

  01764	8b 45 0c	 mov	 eax, DWORD PTR _rcBmp$[ebp]
  01767	8b 48 0c	 mov	 ecx, DWORD PTR [eax+12]
  0176a	83 c1 03	 add	 ecx, 3
  0176d	89 8d e0 fe ff
	ff		 mov	 DWORD PTR tv382[ebp], ecx
  01773	db 85 e0 fe ff
	ff		 fild	 DWORD PTR tv382[ebp]
  01779	51		 push	 ecx
  0177a	d9 1c 24	 fstp	 DWORD PTR [esp]
  0177d	8b 55 0c	 mov	 edx, DWORD PTR _rcBmp$[ebp]
  01780	8b 02		 mov	 eax, DWORD PTR [edx]
  01782	83 c0 04	 add	 eax, 4
  01785	89 85 dc fe ff
	ff		 mov	 DWORD PTR tv384[ebp], eax
  0178b	db 85 dc fe ff
	ff		 fild	 DWORD PTR tv384[ebp]
  01791	51		 push	 ecx
  01792	d9 1c 24	 fstp	 DWORD PTR [esp]
  01795	8d 4d 90	 lea	 ecx, DWORD PTR _point8$[ebp]
  01798	e8 00 00 00 00	 call	 ??0PointF@Gdiplus@@QAE@MM@Z ; Gdiplus::PointF::PointF

; 606  : 
; 607  : 
; 608  : 
; 609  : 
; 610  : 
; 611  : 	PointF points2[4] = {point5, point6, point7, point8};

  0179d	8d 4d e0	 lea	 ecx, DWORD PTR _point5$[ebp]
  017a0	51		 push	 ecx
  017a1	8d 4d a0	 lea	 ecx, DWORD PTR _points2$[ebp]
  017a4	e8 00 00 00 00	 call	 ??0PointF@Gdiplus@@QAE@ABV01@@Z ; Gdiplus::PointF::PointF
  017a9	8d 95 20 ff ff
	ff		 lea	 edx, DWORD PTR _point6$[ebp]
  017af	52		 push	 edx
  017b0	8d 4d a8	 lea	 ecx, DWORD PTR _points2$[ebp+8]
  017b3	e8 00 00 00 00	 call	 ??0PointF@Gdiplus@@QAE@ABV01@@Z ; Gdiplus::PointF::PointF
  017b8	8d 45 c8	 lea	 eax, DWORD PTR _point7$[ebp]
  017bb	50		 push	 eax
  017bc	8d 4d b0	 lea	 ecx, DWORD PTR _points2$[ebp+16]
  017bf	e8 00 00 00 00	 call	 ??0PointF@Gdiplus@@QAE@ABV01@@Z ; Gdiplus::PointF::PointF
  017c4	8d 4d 90	 lea	 ecx, DWORD PTR _point8$[ebp]
  017c7	51		 push	 ecx
  017c8	8d 4d b8	 lea	 ecx, DWORD PTR _points2$[ebp+24]
  017cb	e8 00 00 00 00	 call	 ??0PointF@Gdiplus@@QAE@ABV01@@Z ; Gdiplus::PointF::PointF

; 612  : 	pPoints = points2;

  017d0	8d 55 a0	 lea	 edx, DWORD PTR _points2$[ebp]
  017d3	89 95 6c ff ff
	ff		 mov	 DWORD PTR _pPoints$[ebp], edx

; 613  : 
; 614  : 	LinearGradientBrush brushBK2( rc2, m_colBK, m_colBK,LinearGradientModeVertical );

  017d9	6a 01		 push	 1
  017db	8b 85 14 ff ff
	ff		 mov	 eax, DWORD PTR _this$[ebp]
  017e1	83 c0 04	 add	 eax, 4
  017e4	50		 push	 eax
  017e5	8b 8d 14 ff ff
	ff		 mov	 ecx, DWORD PTR _this$[ebp]
  017eb	83 c1 04	 add	 ecx, 4
  017ee	51		 push	 ecx
  017ef	8d 95 34 ff ff
	ff		 lea	 edx, DWORD PTR _rc2$[ebp]
  017f5	52		 push	 edx
  017f6	8d 4d e8	 lea	 ecx, DWORD PTR _brushBK2$[ebp]
  017f9	e8 00 00 00 00	 call	 ??0LinearGradientBrush@Gdiplus@@QAE@ABVRectF@1@ABVColor@1@1W4LinearGradientMode@1@@Z ; Gdiplus::LinearGradientBrush::LinearGradientBrush
  017fe	c6 45 fc 03	 mov	 BYTE PTR __$EHRec$[ebp+8], 3

; 615  : 	graphics.FillPolygon(&brushBK2, pPoints,4,FillModeWinding );

  01802	6a 01		 push	 1
  01804	6a 04		 push	 4
  01806	8b 85 6c ff ff
	ff		 mov	 eax, DWORD PTR _pPoints$[ebp]
  0180c	50		 push	 eax
  0180d	8d 4d e8	 lea	 ecx, DWORD PTR _brushBK2$[ebp]
  01810	51		 push	 ecx
  01811	8d 4d c0	 lea	 ecx, DWORD PTR _graphics$[ebp]
  01814	e8 00 00 00 00	 call	 ?FillPolygon@Graphics@Gdiplus@@QAE?AW4Status@2@PBVBrush@2@PBVPointF@2@HW4FillMode@2@@Z ; Gdiplus::Graphics::FillPolygon

; 616  : 
; 617  : 	LinearGradientBrush   brush2( rc2, m_colShadow3, m_colShadow2,LinearGradientModeVertical );

  01819	6a 01		 push	 1
  0181b	8b 95 14 ff ff
	ff		 mov	 edx, DWORD PTR _this$[ebp]
  01821	83 c2 0c	 add	 edx, 12			; 0000000cH
  01824	52		 push	 edx
  01825	8b 85 14 ff ff
	ff		 mov	 eax, DWORD PTR _this$[ebp]
  0182b	83 c0 10	 add	 eax, 16			; 00000010H
  0182e	50		 push	 eax
  0182f	8d 8d 34 ff ff
	ff		 lea	 ecx, DWORD PTR _rc2$[ebp]
  01835	51		 push	 ecx
  01836	8d 8d 28 ff ff
	ff		 lea	 ecx, DWORD PTR _brush2$[ebp]
  0183c	e8 00 00 00 00	 call	 ??0LinearGradientBrush@Gdiplus@@QAE@ABVRectF@1@ABVColor@1@1W4LinearGradientMode@1@@Z ; Gdiplus::LinearGradientBrush::LinearGradientBrush
  01841	c6 45 fc 04	 mov	 BYTE PTR __$EHRec$[ebp+8], 4

; 618  : 	graphics.FillPolygon(&brush2, points2,4,FillModeWinding );

  01845	6a 01		 push	 1
  01847	6a 04		 push	 4
  01849	8d 55 a0	 lea	 edx, DWORD PTR _points2$[ebp]
  0184c	52		 push	 edx
  0184d	8d 85 28 ff ff
	ff		 lea	 eax, DWORD PTR _brush2$[ebp]
  01853	50		 push	 eax
  01854	8d 4d c0	 lea	 ecx, DWORD PTR _graphics$[ebp]
  01857	e8 00 00 00 00	 call	 ?FillPolygon@Graphics@Gdiplus@@QAE?AW4Status@2@PBVBrush@2@PBVPointF@2@HW4FillMode@2@@Z ; Gdiplus::Graphics::FillPolygon

; 619  : }

  0185c	c6 45 fc 03	 mov	 BYTE PTR __$EHRec$[ebp+8], 3
  01860	8d 8d 28 ff ff
	ff		 lea	 ecx, DWORD PTR _brush2$[ebp]
  01866	e8 00 00 00 00	 call	 ??1LinearGradientBrush@Gdiplus@@UAE@XZ
  0186b	c6 45 fc 02	 mov	 BYTE PTR __$EHRec$[ebp+8], 2
  0186f	8d 4d e8	 lea	 ecx, DWORD PTR _brushBK2$[ebp]
  01872	e8 00 00 00 00	 call	 ??1LinearGradientBrush@Gdiplus@@UAE@XZ
  01877	c6 45 fc 01	 mov	 BYTE PTR __$EHRec$[ebp+8], 1
  0187b	8d 8d 70 ff ff
	ff		 lea	 ecx, DWORD PTR _brush$[ebp]
  01881	e8 00 00 00 00	 call	 ??1LinearGradientBrush@Gdiplus@@UAE@XZ
  01886	c6 45 fc 00	 mov	 BYTE PTR __$EHRec$[ebp+8], 0
  0188a	8d 8d 7c ff ff
	ff		 lea	 ecx, DWORD PTR _brushBK$[ebp]
  01890	e8 00 00 00 00	 call	 ??1LinearGradientBrush@Gdiplus@@UAE@XZ
  01895	c7 45 fc ff ff
	ff ff		 mov	 DWORD PTR __$EHRec$[ebp+8], -1
  0189c	8d 4d c0	 lea	 ecx, DWORD PTR _graphics$[ebp]
  0189f	e8 00 00 00 00	 call	 ??1Graphics@Gdiplus@@QAE@XZ ; Gdiplus::Graphics::~Graphics
  018a4	8b 4d f4	 mov	 ecx, DWORD PTR __$EHRec$[ebp]
  018a7	64 89 0d 00 00
	00 00		 mov	 DWORD PTR fs:__except_list, ecx
  018ae	8b e5		 mov	 esp, ebp
  018b0	5d		 pop	 ebp
  018b1	c2 08 00	 ret	 8
_TEXT	ENDS
text$x	SEGMENT
$L199341:
  00120	8d 4d c0	 lea	 ecx, DWORD PTR _graphics$[ebp]
  00123	e9 00 00 00 00	 jmp	 ??1Graphics@Gdiplus@@QAE@XZ ; Gdiplus::Graphics::~Graphics
$L199342:
  00128	8d 8d 7c ff ff
	ff		 lea	 ecx, DWORD PTR _brushBK$[ebp]
  0012e	e9 00 00 00 00	 jmp	 ??1LinearGradientBrush@Gdiplus@@UAE@XZ
$L199343:
  00133	8d 8d 70 ff ff
	ff		 lea	 ecx, DWORD PTR _brush$[ebp]
  00139	e9 00 00 00 00	 jmp	 ??1LinearGradientBrush@Gdiplus@@UAE@XZ
$L199344:
  0013e	8d 4d e8	 lea	 ecx, DWORD PTR _brushBK2$[ebp]
  00141	e9 00 00 00 00	 jmp	 ??1LinearGradientBrush@Gdiplus@@UAE@XZ
$L199345:
  00146	8d 8d 28 ff ff
	ff		 lea	 ecx, DWORD PTR _brush2$[ebp]
  0014c	e9 00 00 00 00	 jmp	 ??1LinearGradientBrush@Gdiplus@@UAE@XZ
__ehhandler$?DrawBmpShade@CButtonDraw@@IAEXPAVCDC@@AAVCRect@@@Z:
  00151	b8 00 00 00 00	 mov	 eax, OFFSET FLAT:$T199347
  00156	e9 00 00 00 00	 jmp	 ___CxxFrameHandler
text$x	ENDS
?DrawBmpShade@CButtonDraw@@IAEXPAVCDC@@AAVCRect@@@Z ENDP ; CButtonDraw::DrawBmpShade
PUBLIC	??0CGdiPlusBitmap@CSkinButton@@QAE@XZ		; CSkinButton::CGdiPlusBitmap::CGdiPlusBitmap
PUBLIC	?Load@CGdiPlusBitmap@CSkinButton@@QAE_NPB_W@Z	; CSkinButton::CGdiPlusBitmap::Load
PUBLIC	?SetPngSkin@CSkinButton@@QAEHV?$CStringT@DV?$StrTraitMFC_DLL@DV?$ChTraitsCRT@D@ATL@@@@@ATL@@@Z ; CSkinButton::SetPngSkin
EXTRN	??2@YAPAXI@Z:NEAR				; operator new
EXTRN	__imp__MultiByteToWideChar@24:NEAR
xdata$x	SEGMENT
$T199367 DD	0ffffffffH
	DD	FLAT:$L199361
	DD	00H
	DD	FLAT:$L199362
$T199364 DD	019930520H
	DD	02H
	DD	FLAT:$T199367
	DD	2 DUP(00H)
	DD	2 DUP(00H)
; Function compile flags: /Odt
xdata$x	ENDS
_TEXT	SEGMENT
tv83 = -572						; size = 4
tv74 = -568						; size = 4
_this$ = -564						; size = 4
$T199360 = -560						; size = 4
$T199357 = -556						; size = 4
$T199356 = -552						; size = 4
$T199353 = -548						; size = 4
$T199352 = -544						; size = 4
_wFile$ = -540						; size = 520
__$ArrayPad$ = -20					; size = 4
_bReturn$ = -13						; size = 1
__$EHRec$ = -12						; size = 12
__$ReturnAddr$ = 4					; size = 4
_str$ = 8						; size = 4
?SetPngSkin@CSkinButton@@QAEHV?$CStringT@DV?$StrTraitMFC_DLL@DV?$ChTraitsCRT@D@ATL@@@@@ATL@@@Z PROC NEAR ; CSkinButton::SetPngSkin
; _this$ = ecx

; 622  : {

  018c0	55		 push	 ebp
  018c1	8b ec		 mov	 ebp, esp
  018c3	6a ff		 push	 -1
  018c5	68 00 00 00 00	 push	 __ehhandler$?SetPngSkin@CSkinButton@@QAEHV?$CStringT@DV?$StrTraitMFC_DLL@DV?$ChTraitsCRT@D@ATL@@@@@ATL@@@Z
  018ca	64 a1 00 00 00
	00		 mov	 eax, DWORD PTR fs:__except_list
  018d0	50		 push	 eax
  018d1	64 89 25 00 00
	00 00		 mov	 DWORD PTR fs:__except_list, esp
  018d8	81 ec 30 02 00
	00		 sub	 esp, 560		; 00000230H
  018de	a1 00 00 00 00	 mov	 eax, DWORD PTR ___security_cookie
  018e3	89 45 ec	 mov	 DWORD PTR __$ArrayPad$[ebp], eax
  018e6	89 8d cc fd ff
	ff		 mov	 DWORD PTR _this$[ebp], ecx
  018ec	c7 45 fc 00 00
	00 00		 mov	 DWORD PTR __$EHRec$[ebp+8], 0

; 623  : 	if( m_pPngImage != NULL )

  018f3	8b 85 cc fd ff
	ff		 mov	 eax, DWORD PTR _this$[ebp]
  018f9	83 b8 28 01 00
	00 00		 cmp	 DWORD PTR [eax+296], 0
  01900	74 4b		 je	 SHORT $L198458

; 624  : 		delete m_pPngImage;

  01902	8b 8d cc fd ff
	ff		 mov	 ecx, DWORD PTR _this$[ebp]
  01908	8b 91 28 01 00
	00		 mov	 edx, DWORD PTR [ecx+296]
  0190e	89 95 dc fd ff
	ff		 mov	 DWORD PTR $T199353[ebp], edx
  01914	8b 85 dc fd ff
	ff		 mov	 eax, DWORD PTR $T199353[ebp]
  0191a	89 85 e0 fd ff
	ff		 mov	 DWORD PTR $T199352[ebp], eax
  01920	83 bd e0 fd ff
	ff 00		 cmp	 DWORD PTR $T199352[ebp], 0
  01927	74 1a		 je	 SHORT $L199354
  01929	6a 01		 push	 1
  0192b	8b 8d e0 fd ff
	ff		 mov	 ecx, DWORD PTR $T199352[ebp]
  01931	8b 11		 mov	 edx, DWORD PTR [ecx]
  01933	8b 8d e0 fd ff
	ff		 mov	 ecx, DWORD PTR $T199352[ebp]
  01939	ff 12		 call	 DWORD PTR [edx]
  0193b	89 85 c8 fd ff
	ff		 mov	 DWORD PTR tv74[ebp], eax
  01941	eb 0a		 jmp	 SHORT $L198458
$L199354:
  01943	c7 85 c8 fd ff
	ff 00 00 00 00	 mov	 DWORD PTR tv74[ebp], 0
$L198458:

; 625  : 	m_pPngImage = new CGdiPlusBitmap;

  0194d	6a 08		 push	 8
  0194f	e8 00 00 00 00	 call	 ??2@YAPAXI@Z		; operator new
  01954	83 c4 04	 add	 esp, 4
  01957	89 85 d4 fd ff
	ff		 mov	 DWORD PTR $T199357[ebp], eax
  0195d	c6 45 fc 01	 mov	 BYTE PTR __$EHRec$[ebp+8], 1
  01961	83 bd d4 fd ff
	ff 00		 cmp	 DWORD PTR $T199357[ebp], 0
  01968	74 13		 je	 SHORT $L199358
  0196a	8b 8d d4 fd ff
	ff		 mov	 ecx, DWORD PTR $T199357[ebp]
  01970	e8 00 00 00 00	 call	 ??0CGdiPlusBitmap@CSkinButton@@QAE@XZ ; CSkinButton::CGdiPlusBitmap::CGdiPlusBitmap
  01975	89 85 c4 fd ff
	ff		 mov	 DWORD PTR tv83[ebp], eax
  0197b	eb 0a		 jmp	 SHORT $L199359
$L199358:
  0197d	c7 85 c4 fd ff
	ff 00 00 00 00	 mov	 DWORD PTR tv83[ebp], 0
$L199359:
  01987	8b 85 c4 fd ff
	ff		 mov	 eax, DWORD PTR tv83[ebp]
  0198d	89 85 d8 fd ff
	ff		 mov	 DWORD PTR $T199356[ebp], eax
  01993	c6 45 fc 00	 mov	 BYTE PTR __$EHRec$[ebp+8], 0
  01997	8b 8d cc fd ff
	ff		 mov	 ecx, DWORD PTR _this$[ebp]
  0199d	8b 95 d8 fd ff
	ff		 mov	 edx, DWORD PTR $T199356[ebp]
  019a3	89 91 28 01 00
	00		 mov	 DWORD PTR [ecx+296], edx

; 626  : 
; 627  : 	WCHAR   wFile[MAX_PATH];   
; 628  : #ifndef   UNICODE   
; 629  : 	MultiByteToWideChar(CP_ACP,   0,   LPCTSTR(str),   -1,   wFile,   MAX_PATH);   

  019a9	68 04 01 00 00	 push	 260			; 00000104H
  019ae	8d 85 e4 fd ff
	ff		 lea	 eax, DWORD PTR _wFile$[ebp]
  019b4	50		 push	 eax
  019b5	6a ff		 push	 -1
  019b7	8d 4d 08	 lea	 ecx, DWORD PTR _str$[ebp]
  019ba	ff 15 00 00 00
	00		 call	 DWORD PTR __imp_??B?$CSimpleStringT@D$00@ATL@@QBEPBDXZ
  019c0	50		 push	 eax
  019c1	6a 00		 push	 0
  019c3	6a 00		 push	 0
  019c5	ff 15 00 00 00
	00		 call	 DWORD PTR __imp__MultiByteToWideChar@24

; 630  : #else   
; 631  : 	lstrcpy(wFile,   szFile);   
; 632  : #endif   
; 633  : 	bool bReturn = m_pPngImage->Load( wFile );

  019cb	8d 8d e4 fd ff
	ff		 lea	 ecx, DWORD PTR _wFile$[ebp]
  019d1	51		 push	 ecx
  019d2	8b 95 cc fd ff
	ff		 mov	 edx, DWORD PTR _this$[ebp]
  019d8	8b 8a 28 01 00
	00		 mov	 ecx, DWORD PTR [edx+296]
  019de	e8 00 00 00 00	 call	 ?Load@CGdiPlusBitmap@CSkinButton@@QAE_NPB_W@Z ; CSkinButton::CGdiPlusBitmap::Load
  019e3	88 45 f3	 mov	 BYTE PTR _bReturn$[ebp], al

; 634  : 	if( bReturn ) this->Invalidate();

  019e6	0f b6 45 f3	 movzx	 eax, BYTE PTR _bReturn$[ebp]
  019ea	85 c0		 test	 eax, eax
  019ec	74 0d		 je	 SHORT $L198467
  019ee	6a 01		 push	 1
  019f0	8b 8d cc fd ff
	ff		 mov	 ecx, DWORD PTR _this$[ebp]
  019f6	e8 00 00 00 00	 call	 ?Invalidate@CWnd@@QAEXH@Z ; CWnd::Invalidate
$L198467:

; 635  : 
; 636  : 	return bReturn;

  019fb	0f b6 4d f3	 movzx	 ecx, BYTE PTR _bReturn$[ebp]
  019ff	89 8d d0 fd ff
	ff		 mov	 DWORD PTR $T199360[ebp], ecx
  01a05	c7 45 fc ff ff
	ff ff		 mov	 DWORD PTR __$EHRec$[ebp+8], -1
  01a0c	8d 4d 08	 lea	 ecx, DWORD PTR _str$[ebp]
  01a0f	ff 15 00 00 00
	00		 call	 DWORD PTR __imp_??1?$CStringT@DV?$StrTraitMFC_DLL@DV?$ChTraitsCRT@D@ATL@@@@@ATL@@QAE@XZ
  01a15	8b 85 d0 fd ff
	ff		 mov	 eax, DWORD PTR $T199360[ebp]

; 637  : }

  01a1b	8b 4d f4	 mov	 ecx, DWORD PTR __$EHRec$[ebp]
  01a1e	64 89 0d 00 00
	00 00		 mov	 DWORD PTR fs:__except_list, ecx
  01a25	8b 4d ec	 mov	 ecx, DWORD PTR __$ArrayPad$[ebp]
  01a28	e8 00 00 00 00	 call	 @__security_check_cookie@4
  01a2d	8b e5		 mov	 esp, ebp
  01a2f	5d		 pop	 ebp
  01a30	c2 04 00	 ret	 4
_TEXT	ENDS
text$x	SEGMENT
$L199361:
  0015b	8d 4d 08	 lea	 ecx, DWORD PTR _str$[ebp]
  0015e	ff 25 00 00 00
	00		 jmp	 DWORD PTR __imp_??1?$CStringT@DV?$StrTraitMFC_DLL@DV?$ChTraitsCRT@D@ATL@@@@@ATL@@QAE@XZ
$L199362:
  00164	8b 85 d4 fd ff
	ff		 mov	 eax, DWORD PTR $T199357[ebp]
  0016a	50		 push	 eax
  0016b	e8 00 00 00 00	 call	 ??3@YAXPAX@Z		; operator delete
  00170	59		 pop	 ecx
  00171	c3		 ret	 0
__ehhandler$?SetPngSkin@CSkinButton@@QAEHV?$CStringT@DV?$StrTraitMFC_DLL@DV?$ChTraitsCRT@D@ATL@@@@@ATL@@@Z:
  00172	b8 00 00 00 00	 mov	 eax, OFFSET FLAT:$T199364
  00177	e9 00 00 00 00	 jmp	 ___CxxFrameHandler
text$x	ENDS
?SetPngSkin@CSkinButton@@QAEHV?$CStringT@DV?$StrTraitMFC_DLL@DV?$ChTraitsCRT@D@ATL@@@@@ATL@@@Z ENDP ; CSkinButton::SetPngSkin
PUBLIC	??_7CGdiPlusBitmap@CSkinButton@@6B@		; CSkinButton::CGdiPlusBitmap::`vftable'
PUBLIC	??_GCGdiPlusBitmap@CSkinButton@@UAEPAXI@Z	; CSkinButton::CGdiPlusBitmap::`scalar deleting destructor'
PUBLIC	??_R4CGdiPlusBitmap@CSkinButton@@6B@		; CSkinButton::CGdiPlusBitmap::`RTTI Complete Object Locator'
PUBLIC	??_R0?AVCGdiPlusBitmap@CSkinButton@@@8		; CSkinButton::CGdiPlusBitmap `RTTI Type Descriptor'
PUBLIC	??_R3CGdiPlusBitmap@CSkinButton@@8		; CSkinButton::CGdiPlusBitmap::`RTTI Class Hierarchy Descriptor'
PUBLIC	??_R2CGdiPlusBitmap@CSkinButton@@8		; CSkinButton::CGdiPlusBitmap::`RTTI Base Class Array'
PUBLIC	??_R1A@?0A@A@CGdiPlusBitmap@CSkinButton@@8	; CSkinButton::CGdiPlusBitmap::`RTTI Base Class Descriptor at (0,-1,0,0)'
EXTRN	??_ECGdiPlusBitmap@CSkinButton@@UAEPAXI@Z:NEAR	; CSkinButton::CGdiPlusBitmap::`vector deleting destructor'
;	COMDAT ??_7CGdiPlusBitmap@CSkinButton@@6B@
; File d:\boxgit\playbox\playbox\dev\prj\playbox\src\layoutmgr\changecolor\skinbotton.h
CONST	SEGMENT
??_7CGdiPlusBitmap@CSkinButton@@6B@ DD FLAT:??_R4CGdiPlusBitmap@CSkinButton@@6B@ ; CSkinButton::CGdiPlusBitmap::`vftable'
	DD	FLAT:??_ECGdiPlusBitmap@CSkinButton@@UAEPAXI@Z
CONST	ENDS
;	COMDAT ??_R4CGdiPlusBitmap@CSkinButton@@6B@
rdata$r	SEGMENT
??_R4CGdiPlusBitmap@CSkinButton@@6B@ DD 00H		; CSkinButton::CGdiPlusBitmap::`RTTI Complete Object Locator'
	DD	00H
	DD	00H
	DD	FLAT:??_R0?AVCGdiPlusBitmap@CSkinButton@@@8
	DD	FLAT:??_R3CGdiPlusBitmap@CSkinButton@@8
rdata$r	ENDS
;	COMDAT ??_R0?AVCGdiPlusBitmap@CSkinButton@@@8
_DATA	SEGMENT
??_R0?AVCGdiPlusBitmap@CSkinButton@@@8 DD FLAT:??_7type_info@@6B@ ; CSkinButton::CGdiPlusBitmap `RTTI Type Descriptor'
	DD	00H
	DB	'.?AVCGdiPlusBitmap@CSkinButton@@', 00H
_DATA	ENDS
;	COMDAT ??_R3CGdiPlusBitmap@CSkinButton@@8
rdata$r	SEGMENT
??_R3CGdiPlusBitmap@CSkinButton@@8 DD 00H		; CSkinButton::CGdiPlusBitmap::`RTTI Class Hierarchy Descriptor'
	DD	00H
	DD	01H
	DD	FLAT:??_R2CGdiPlusBitmap@CSkinButton@@8
rdata$r	ENDS
;	COMDAT ??_R2CGdiPlusBitmap@CSkinButton@@8
rdata$r	SEGMENT
??_R2CGdiPlusBitmap@CSkinButton@@8 DD FLAT:??_R1A@?0A@A@CGdiPlusBitmap@CSkinButton@@8 ; CSkinButton::CGdiPlusBitmap::`RTTI Base Class Array'
rdata$r	ENDS
;	COMDAT ??_R1A@?0A@A@CGdiPlusBitmap@CSkinButton@@8
rdata$r	SEGMENT
??_R1A@?0A@A@CGdiPlusBitmap@CSkinButton@@8 DD FLAT:??_R0?AVCGdiPlusBitmap@CSkinButton@@@8 ; CSkinButton::CGdiPlusBitmap::`RTTI Base Class Descriptor at (0,-1,0,0)'
	DD	00H
	DD	00H
	DD	0ffffffffH
	DD	00H
	DD	00H
; Function compile flags: /Odt
rdata$r	ENDS
;	COMDAT ??0CGdiPlusBitmap@CSkinButton@@QAE@XZ
_TEXT	SEGMENT
_this$ = -4						; size = 4
??0CGdiPlusBitmap@CSkinButton@@QAE@XZ PROC NEAR		; CSkinButton::CGdiPlusBitmap::CGdiPlusBitmap, COMDAT
; _this$ = ecx

; 79   : 	CGdiPlusBitmap()							{ m_pBitmap = NULL; }

  00000	55		 push	 ebp
  00001	8b ec		 mov	 ebp, esp
  00003	51		 push	 ecx
  00004	89 4d fc	 mov	 DWORD PTR _this$[ebp], ecx
  00007	8b 45 fc	 mov	 eax, DWORD PTR _this$[ebp]
  0000a	c7 00 00 00 00
	00		 mov	 DWORD PTR [eax], OFFSET FLAT:??_7CGdiPlusBitmap@CSkinButton@@6B@
  00010	8b 4d fc	 mov	 ecx, DWORD PTR _this$[ebp]
  00013	c7 41 04 00 00
	00 00		 mov	 DWORD PTR [ecx+4], 0
  0001a	8b 45 fc	 mov	 eax, DWORD PTR _this$[ebp]
  0001d	8b e5		 mov	 esp, ebp
  0001f	5d		 pop	 ebp
  00020	c3		 ret	 0
??0CGdiPlusBitmap@CSkinButton@@QAE@XZ ENDP		; CSkinButton::CGdiPlusBitmap::CGdiPlusBitmap
_TEXT	ENDS
PUBLIC	?GetLastStatus@Image@Gdiplus@@QBE?AW4Status@2@XZ ; Gdiplus::Image::GetLastStatus
PUBLIC	?FromFile@Bitmap@Gdiplus@@SAPAV12@PB_WH@Z	; Gdiplus::Bitmap::FromFile
PUBLIC	?Empty@CGdiPlusBitmap@CSkinButton@@QAEXXZ	; CSkinButton::CGdiPlusBitmap::Empty
; Function compile flags: /Odt
;	COMDAT ?Load@CGdiPlusBitmap@CSkinButton@@QAE_NPB_W@Z
_TEXT	SEGMENT
_this$ = -4						; size = 4
_pFile$ = 8						; size = 4
?Load@CGdiPlusBitmap@CSkinButton@@QAE_NPB_W@Z PROC NEAR	; CSkinButton::CGdiPlusBitmap::Load, COMDAT
; _this$ = ecx

; 86   : 	{

  00000	55		 push	 ebp
  00001	8b ec		 mov	 ebp, esp
  00003	51		 push	 ecx
  00004	89 4d fc	 mov	 DWORD PTR _this$[ebp], ecx

; 87   : 		
; 88   : 		Empty();

  00007	8b 4d fc	 mov	 ecx, DWORD PTR _this$[ebp]
  0000a	e8 00 00 00 00	 call	 ?Empty@CGdiPlusBitmap@CSkinButton@@QAEXXZ ; CSkinButton::CGdiPlusBitmap::Empty

; 89   : 		m_pBitmap = Gdiplus::Bitmap::FromFile(pFile);

  0000f	6a 00		 push	 0
  00011	8b 45 08	 mov	 eax, DWORD PTR _pFile$[ebp]
  00014	50		 push	 eax
  00015	e8 00 00 00 00	 call	 ?FromFile@Bitmap@Gdiplus@@SAPAV12@PB_WH@Z ; Gdiplus::Bitmap::FromFile
  0001a	83 c4 08	 add	 esp, 8
  0001d	8b 4d fc	 mov	 ecx, DWORD PTR _this$[ebp]
  00020	89 41 04	 mov	 DWORD PTR [ecx+4], eax

; 90   : 		return m_pBitmap->GetLastStatus() == Gdiplus::Ok;

  00023	8b 55 fc	 mov	 edx, DWORD PTR _this$[ebp]
  00026	8b 4a 04	 mov	 ecx, DWORD PTR [edx+4]
  00029	e8 00 00 00 00	 call	 ?GetLastStatus@Image@Gdiplus@@QBE?AW4Status@2@XZ ; Gdiplus::Image::GetLastStatus
  0002e	f7 d8		 neg	 eax
  00030	1b c0		 sbb	 eax, eax
  00032	40		 inc	 eax

; 91   : 	}

  00033	8b e5		 mov	 esp, ebp
  00035	5d		 pop	 ebp
  00036	c2 04 00	 ret	 4
?Load@CGdiPlusBitmap@CSkinButton@@QAE_NPB_W@Z ENDP	; CSkinButton::CGdiPlusBitmap::Load
; Function compile flags: /Odt
_TEXT	ENDS
;	COMDAT ?Empty@CGdiPlusBitmap@CSkinButton@@QAEXXZ
_TEXT	SEGMENT
tv71 = -16						; size = 4
_this$ = -12						; size = 4
$T199374 = -8						; size = 4
$T199373 = -4						; size = 4
?Empty@CGdiPlusBitmap@CSkinButton@@QAEXXZ PROC NEAR	; CSkinButton::CGdiPlusBitmap::Empty, COMDAT
; _this$ = ecx

; 83   : 	void Empty()								{ delete m_pBitmap; m_pBitmap = NULL; }

  00000	55		 push	 ebp
  00001	8b ec		 mov	 ebp, esp
  00003	83 ec 10	 sub	 esp, 16			; 00000010H
  00006	89 4d f4	 mov	 DWORD PTR _this$[ebp], ecx
  00009	8b 45 f4	 mov	 eax, DWORD PTR _this$[ebp]
  0000c	8b 48 04	 mov	 ecx, DWORD PTR [eax+4]
  0000f	89 4d f8	 mov	 DWORD PTR $T199374[ebp], ecx
  00012	8b 55 f8	 mov	 edx, DWORD PTR $T199374[ebp]
  00015	89 55 fc	 mov	 DWORD PTR $T199373[ebp], edx
  00018	83 7d fc 00	 cmp	 DWORD PTR $T199373[ebp], 0
  0001c	74 11		 je	 SHORT $L199375
  0001e	6a 01		 push	 1
  00020	8b 45 fc	 mov	 eax, DWORD PTR $T199373[ebp]
  00023	8b 10		 mov	 edx, DWORD PTR [eax]
  00025	8b 4d fc	 mov	 ecx, DWORD PTR $T199373[ebp]
  00028	ff 12		 call	 DWORD PTR [edx]
  0002a	89 45 f0	 mov	 DWORD PTR tv71[ebp], eax
  0002d	eb 07		 jmp	 SHORT $L199376
$L199375:
  0002f	c7 45 f0 00 00
	00 00		 mov	 DWORD PTR tv71[ebp], 0
$L199376:
  00036	8b 45 f4	 mov	 eax, DWORD PTR _this$[ebp]
  00039	c7 40 04 00 00
	00 00		 mov	 DWORD PTR [eax+4], 0
  00040	8b e5		 mov	 esp, ebp
  00042	5d		 pop	 ebp
  00043	c3		 ret	 0
?Empty@CGdiPlusBitmap@CSkinButton@@QAEXXZ ENDP		; CSkinButton::CGdiPlusBitmap::Empty
_TEXT	ENDS
PUBLIC	??1CGdiPlusBitmap@CSkinButton@@UAE@XZ		; CSkinButton::CGdiPlusBitmap::~CGdiPlusBitmap
; Function compile flags: /Odt
;	COMDAT ??_GCGdiPlusBitmap@CSkinButton@@UAEPAXI@Z
_TEXT	SEGMENT
_this$ = -4						; size = 4
___flags$ = 8						; size = 4
??_GCGdiPlusBitmap@CSkinButton@@UAEPAXI@Z PROC NEAR	; CSkinButton::CGdiPlusBitmap::`scalar deleting destructor', COMDAT
; _this$ = ecx
  00000	55		 push	 ebp
  00001	8b ec		 mov	 ebp, esp
  00003	51		 push	 ecx
  00004	89 4d fc	 mov	 DWORD PTR _this$[ebp], ecx
  00007	8b 4d fc	 mov	 ecx, DWORD PTR _this$[ebp]
  0000a	e8 00 00 00 00	 call	 ??1CGdiPlusBitmap@CSkinButton@@UAE@XZ ; CSkinButton::CGdiPlusBitmap::~CGdiPlusBitmap
  0000f	8b 45 08	 mov	 eax, DWORD PTR ___flags$[ebp]
  00012	83 e0 01	 and	 eax, 1
  00015	74 0c		 je	 SHORT $L197649
  00017	8b 4d fc	 mov	 ecx, DWORD PTR _this$[ebp]
  0001a	51		 push	 ecx
  0001b	e8 00 00 00 00	 call	 ??3@YAXPAX@Z		; operator delete
  00020	83 c4 04	 add	 esp, 4
$L197649:
  00023	8b 45 fc	 mov	 eax, DWORD PTR _this$[ebp]
  00026	8b e5		 mov	 esp, ebp
  00028	5d		 pop	 ebp
  00029	c2 04 00	 ret	 4
??_GCGdiPlusBitmap@CSkinButton@@UAEPAXI@Z ENDP		; CSkinButton::CGdiPlusBitmap::`scalar deleting destructor'
; Function compile flags: /Odt
_TEXT	ENDS
;	COMDAT ??1CGdiPlusBitmap@CSkinButton@@UAE@XZ
_TEXT	SEGMENT
_this$ = -4						; size = 4
??1CGdiPlusBitmap@CSkinButton@@UAE@XZ PROC NEAR		; CSkinButton::CGdiPlusBitmap::~CGdiPlusBitmap, COMDAT
; _this$ = ecx

; 81   : 	virtual ~CGdiPlusBitmap()					{ Empty(); }

  00000	55		 push	 ebp
  00001	8b ec		 mov	 ebp, esp
  00003	51		 push	 ecx
  00004	89 4d fc	 mov	 DWORD PTR _this$[ebp], ecx
  00007	8b 45 fc	 mov	 eax, DWORD PTR _this$[ebp]
  0000a	c7 00 00 00 00
	00		 mov	 DWORD PTR [eax], OFFSET FLAT:??_7CGdiPlusBitmap@CSkinButton@@6B@
  00010	8b 4d fc	 mov	 ecx, DWORD PTR _this$[ebp]
  00013	e8 00 00 00 00	 call	 ?Empty@CGdiPlusBitmap@CSkinButton@@QAEXXZ ; CSkinButton::CGdiPlusBitmap::Empty
  00018	8b e5		 mov	 esp, ebp
  0001a	5d		 pop	 ebp
  0001b	c3		 ret	 0
??1CGdiPlusBitmap@CSkinButton@@UAE@XZ ENDP		; CSkinButton::CGdiPlusBitmap::~CGdiPlusBitmap
_TEXT	ENDS
PUBLIC	??0RectF@Gdiplus@@QAE@XZ			; Gdiplus::RectF::RectF
PUBLIC	?DrawImage@Graphics@Gdiplus@@QAE?AW4Status@2@PAVImage@2@ABVRectF@2@@Z ; Gdiplus::Graphics::DrawImage
PUBLIC	?GetWidth@Image@Gdiplus@@QAEIXZ			; Gdiplus::Image::GetWidth
PUBLIC	?GetHeight@Image@Gdiplus@@QAEIXZ		; Gdiplus::Image::GetHeight
PUBLIC	??BCGdiPlusBitmap@CSkinButton@@QBEPAVBitmap@Gdiplus@@XZ ; CSkinButton::CGdiPlusBitmap::operator Gdiplus::Bitmap *
; Function compile flags: /Odt
; File d:\boxgit\playbox\playbox\dev\prj\playbox\src\layoutmgr\changecolor\skinbotton.cpp
_TEXT	SEGMENT
tv152 = -60						; size = 8
tv147 = -52						; size = 8
tv142 = -44						; size = 8
_this$ = -36						; size = 4
_grect$198475 = -32					; size = 16
_rect$198474 = -16					; size = 16
_gdi$ = 8						; size = 4
?DrawImage@CSkinButton@@QAEXAAVGraphics@Gdiplus@@@Z PROC NEAR ; CSkinButton::DrawImage
; _this$ = ecx

; 639  : {

  01a40	55		 push	 ebp
  01a41	8b ec		 mov	 ebp, esp
  01a43	83 ec 3c	 sub	 esp, 60			; 0000003cH
  01a46	89 4d dc	 mov	 DWORD PTR _this$[ebp], ecx

; 640  : 	if( m_pPngImage && m_pPngImage->m_pBitmap )

  01a49	8b 45 dc	 mov	 eax, DWORD PTR _this$[ebp]
  01a4c	83 b8 28 01 00
	00 00		 cmp	 DWORD PTR [eax+296], 0
  01a53	0f 84 bc 00 00
	00		 je	 $L198472
  01a59	8b 4d dc	 mov	 ecx, DWORD PTR _this$[ebp]
  01a5c	8b 91 28 01 00
	00		 mov	 edx, DWORD PTR [ecx+296]
  01a62	83 7a 04 00	 cmp	 DWORD PTR [edx+4], 0
  01a66	0f 84 a9 00 00
	00		 je	 $L198472

; 641  : 	{
; 642  : 		CRect rect;

  01a6c	8d 4d f0	 lea	 ecx, DWORD PTR _rect$198474[ebp]
  01a6f	e8 00 00 00 00	 call	 ??0CRect@@QAE@XZ	; CRect::CRect

; 643  : 		this->GetClientRect(&rect);

  01a74	8d 45 f0	 lea	 eax, DWORD PTR _rect$198474[ebp]
  01a77	50		 push	 eax
  01a78	8b 4d dc	 mov	 ecx, DWORD PTR _this$[ebp]
  01a7b	e8 00 00 00 00	 call	 ?GetClientRect@CWnd@@QBEXPAUtagRECT@@@Z ; CWnd::GetClientRect

; 644  : 
; 645  : 		 
; 646  : 		
; 647  : 		RectF grect; grect.X=rect.right - m_pPngImage->m_pBitmap->GetWidth()-5, 

  01a80	8d 4d e0	 lea	 ecx, DWORD PTR _grect$198475[ebp]
  01a83	e8 00 00 00 00	 call	 ??0RectF@Gdiplus@@QAE@XZ ; Gdiplus::RectF::RectF

; 648  : 		grect.Y=2; grect.Width = m_pPngImage->m_pBitmap->GetWidth(); grect.Height = m_pPngImage->m_pBitmap->GetHeight();

  01a88	8b 4d dc	 mov	 ecx, DWORD PTR _this$[ebp]
  01a8b	8b 91 28 01 00
	00		 mov	 edx, DWORD PTR [ecx+296]
  01a91	8b 4a 04	 mov	 ecx, DWORD PTR [edx+4]
  01a94	e8 00 00 00 00	 call	 ?GetWidth@Image@Gdiplus@@QAEIXZ ; Gdiplus::Image::GetWidth
  01a99	8b 4d f8	 mov	 ecx, DWORD PTR _rect$198474[ebp+8]
  01a9c	2b c8		 sub	 ecx, eax
  01a9e	83 e9 05	 sub	 ecx, 5
  01aa1	89 4d d4	 mov	 DWORD PTR tv142[ebp], ecx
  01aa4	c7 45 d8 00 00
	00 00		 mov	 DWORD PTR tv142[ebp+4], 0
  01aab	df 6d d4	 fild	 QWORD PTR tv142[ebp]
  01aae	d9 5d e0	 fstp	 DWORD PTR _grect$198475[ebp]
  01ab1	c7 45 e4 00 00
	00 40		 mov	 DWORD PTR _grect$198475[ebp+4], 1073741824 ; 40000000H
  01ab8	8b 55 dc	 mov	 edx, DWORD PTR _this$[ebp]
  01abb	8b 82 28 01 00
	00		 mov	 eax, DWORD PTR [edx+296]
  01ac1	8b 48 04	 mov	 ecx, DWORD PTR [eax+4]
  01ac4	e8 00 00 00 00	 call	 ?GetWidth@Image@Gdiplus@@QAEIXZ ; Gdiplus::Image::GetWidth
  01ac9	89 45 cc	 mov	 DWORD PTR tv147[ebp], eax
  01acc	c7 45 d0 00 00
	00 00		 mov	 DWORD PTR tv147[ebp+4], 0
  01ad3	df 6d cc	 fild	 QWORD PTR tv147[ebp]
  01ad6	d9 5d e8	 fstp	 DWORD PTR _grect$198475[ebp+8]
  01ad9	8b 4d dc	 mov	 ecx, DWORD PTR _this$[ebp]
  01adc	8b 91 28 01 00
	00		 mov	 edx, DWORD PTR [ecx+296]
  01ae2	8b 4a 04	 mov	 ecx, DWORD PTR [edx+4]
  01ae5	e8 00 00 00 00	 call	 ?GetHeight@Image@Gdiplus@@QAEIXZ ; Gdiplus::Image::GetHeight
  01aea	89 45 c4	 mov	 DWORD PTR tv152[ebp], eax
  01aed	c7 45 c8 00 00
	00 00		 mov	 DWORD PTR tv152[ebp+4], 0
  01af4	df 6d c4	 fild	 QWORD PTR tv152[ebp]
  01af7	d9 5d ec	 fstp	 DWORD PTR _grect$198475[ebp+12]

; 649  : 		gdi.DrawImage(*m_pPngImage,grect );

  01afa	8d 45 e0	 lea	 eax, DWORD PTR _grect$198475[ebp]
  01afd	50		 push	 eax
  01afe	8b 4d dc	 mov	 ecx, DWORD PTR _this$[ebp]
  01b01	8b 89 28 01 00
	00		 mov	 ecx, DWORD PTR [ecx+296]
  01b07	e8 00 00 00 00	 call	 ??BCGdiPlusBitmap@CSkinButton@@QBEPAVBitmap@Gdiplus@@XZ ; CSkinButton::CGdiPlusBitmap::operator Gdiplus::Bitmap *
  01b0c	50		 push	 eax
  01b0d	8b 4d 08	 mov	 ecx, DWORD PTR _gdi$[ebp]
  01b10	e8 00 00 00 00	 call	 ?DrawImage@Graphics@Gdiplus@@QAE?AW4Status@2@PAVImage@2@ABVRectF@2@@Z ; Gdiplus::Graphics::DrawImage
$L198472:

; 650  : 	}
; 651  : }

  01b15	8b e5		 mov	 esp, ebp
  01b17	5d		 pop	 ebp
  01b18	c2 04 00	 ret	 4
?DrawImage@CSkinButton@@QAEXAAVGraphics@Gdiplus@@@Z ENDP ; CSkinButton::DrawImage
; Function compile flags: /Odt
; File d:\boxgit\playbox\playbox\dev\prj\playbox\src\layoutmgr\changecolor\skinbotton.h
_TEXT	ENDS
;	COMDAT ??BCGdiPlusBitmap@CSkinButton@@QBEPAVBitmap@Gdiplus@@XZ
_TEXT	SEGMENT
_this$ = -4						; size = 4
??BCGdiPlusBitmap@CSkinButton@@QBEPAVBitmap@Gdiplus@@XZ PROC NEAR ; CSkinButton::CGdiPlusBitmap::operator Gdiplus::Bitmap *, COMDAT
; _this$ = ecx

; 93   : 	operator Gdiplus::Bitmap*() const			{ return m_pBitmap; }

  00000	55		 push	 ebp
  00001	8b ec		 mov	 ebp, esp
  00003	51		 push	 ecx
  00004	89 4d fc	 mov	 DWORD PTR _this$[ebp], ecx
  00007	8b 45 fc	 mov	 eax, DWORD PTR _this$[ebp]
  0000a	8b 40 04	 mov	 eax, DWORD PTR [eax+4]
  0000d	8b e5		 mov	 esp, ebp
  0000f	5d		 pop	 ebp
  00010	c3		 ret	 0
??BCGdiPlusBitmap@CSkinButton@@QBEPAVBitmap@Gdiplus@@XZ ENDP ; CSkinButton::CGdiPlusBitmap::operator Gdiplus::Bitmap *
; Function compile flags: /Odt
; File d:\program files (x86)\microsoft visual studio .net 2003\vc7\atlmfc\include\atltypes.inl
_TEXT	ENDS
;	COMDAT ??0CPoint@@QAE@HH@Z
_TEXT	SEGMENT
_this$ = -4						; size = 4
_initX$ = 8						; size = 4
_initY$ = 12						; size = 4
??0CPoint@@QAE@HH@Z PROC NEAR				; CPoint::CPoint, COMDAT
; _this$ = ecx

; 63   : 	{ x = initX; y = initY; }

  00000	55		 push	 ebp
  00001	8b ec		 mov	 ebp, esp
  00003	51		 push	 ecx
  00004	89 4d fc	 mov	 DWORD PTR _this$[ebp], ecx
  00007	8b 45 fc	 mov	 eax, DWORD PTR _this$[ebp]
  0000a	8b 4d 08	 mov	 ecx, DWORD PTR _initX$[ebp]
  0000d	89 08		 mov	 DWORD PTR [eax], ecx
  0000f	8b 55 fc	 mov	 edx, DWORD PTR _this$[ebp]
  00012	8b 45 0c	 mov	 eax, DWORD PTR _initY$[ebp]
  00015	89 42 04	 mov	 DWORD PTR [edx+4], eax
  00018	8b 45 fc	 mov	 eax, DWORD PTR _this$[ebp]
  0001b	8b e5		 mov	 esp, ebp
  0001d	5d		 pop	 ebp
  0001e	c2 08 00	 ret	 8
??0CPoint@@QAE@HH@Z ENDP				; CPoint::CPoint
; Function compile flags: /Odt
_TEXT	ENDS
;	COMDAT ??0CRect@@QAE@XZ
_TEXT	SEGMENT
_this$ = -4						; size = 4
??0CRect@@QAE@XZ PROC NEAR				; CRect::CRect, COMDAT
; _this$ = ecx

; 110  : 	{ /* random filled */ }

  00000	55		 push	 ebp
  00001	8b ec		 mov	 ebp, esp
  00003	51		 push	 ecx
  00004	89 4d fc	 mov	 DWORD PTR _this$[ebp], ecx
  00007	8b 45 fc	 mov	 eax, DWORD PTR _this$[ebp]
  0000a	8b e5		 mov	 esp, ebp
  0000c	5d		 pop	 ebp
  0000d	c3		 ret	 0
??0CRect@@QAE@XZ ENDP					; CRect::CRect
; Function compile flags: /Odt
_TEXT	ENDS
;	COMDAT ??0CRect@@QAE@HHHH@Z
_TEXT	SEGMENT
_this$ = -4						; size = 4
_l$ = 8							; size = 4
_t$ = 12						; size = 4
_r$ = 16						; size = 4
_b$ = 20						; size = 4
??0CRect@@QAE@HHHH@Z PROC NEAR				; CRect::CRect, COMDAT
; _this$ = ecx

; 112  : 	{ left = l; top = t; right = r; bottom = b; }

  00000	55		 push	 ebp
  00001	8b ec		 mov	 ebp, esp
  00003	51		 push	 ecx
  00004	89 4d fc	 mov	 DWORD PTR _this$[ebp], ecx
  00007	8b 45 fc	 mov	 eax, DWORD PTR _this$[ebp]
  0000a	8b 4d 08	 mov	 ecx, DWORD PTR _l$[ebp]
  0000d	89 08		 mov	 DWORD PTR [eax], ecx
  0000f	8b 55 fc	 mov	 edx, DWORD PTR _this$[ebp]
  00012	8b 45 0c	 mov	 eax, DWORD PTR _t$[ebp]
  00015	89 42 04	 mov	 DWORD PTR [edx+4], eax
  00018	8b 4d fc	 mov	 ecx, DWORD PTR _this$[ebp]
  0001b	8b 55 10	 mov	 edx, DWORD PTR _r$[ebp]
  0001e	89 51 08	 mov	 DWORD PTR [ecx+8], edx
  00021	8b 45 fc	 mov	 eax, DWORD PTR _this$[ebp]
  00024	8b 4d 14	 mov	 ecx, DWORD PTR _b$[ebp]
  00027	89 48 0c	 mov	 DWORD PTR [eax+12], ecx
  0002a	8b 45 fc	 mov	 eax, DWORD PTR _this$[ebp]
  0002d	8b e5		 mov	 esp, ebp
  0002f	5d		 pop	 ebp
  00030	c2 10 00	 ret	 16			; 00000010H
??0CRect@@QAE@HHHH@Z ENDP				; CRect::CRect
; Function compile flags: /Odt
_TEXT	ENDS
;	COMDAT ?Width@CRect@@QBEHXZ
_TEXT	SEGMENT
_this$ = -4						; size = 4
?Width@CRect@@QBEHXZ PROC NEAR				; CRect::Width, COMDAT
; _this$ = ecx

; 123  : 	{ return right - left; }

  00000	55		 push	 ebp
  00001	8b ec		 mov	 ebp, esp
  00003	51		 push	 ecx
  00004	89 4d fc	 mov	 DWORD PTR _this$[ebp], ecx
  00007	8b 45 fc	 mov	 eax, DWORD PTR _this$[ebp]
  0000a	8b 4d fc	 mov	 ecx, DWORD PTR _this$[ebp]
  0000d	8b 40 08	 mov	 eax, DWORD PTR [eax+8]
  00010	2b 01		 sub	 eax, DWORD PTR [ecx]
  00012	8b e5		 mov	 esp, ebp
  00014	5d		 pop	 ebp
  00015	c3		 ret	 0
?Width@CRect@@QBEHXZ ENDP				; CRect::Width
; Function compile flags: /Odt
_TEXT	ENDS
;	COMDAT ?Height@CRect@@QBEHXZ
_TEXT	SEGMENT
_this$ = -4						; size = 4
?Height@CRect@@QBEHXZ PROC NEAR				; CRect::Height, COMDAT
; _this$ = ecx

; 125  : 	{ return bottom - top; }

  00000	55		 push	 ebp
  00001	8b ec		 mov	 ebp, esp
  00003	51		 push	 ecx
  00004	89 4d fc	 mov	 DWORD PTR _this$[ebp], ecx
  00007	8b 45 fc	 mov	 eax, DWORD PTR _this$[ebp]
  0000a	8b 4d fc	 mov	 ecx, DWORD PTR _this$[ebp]
  0000d	8b 40 0c	 mov	 eax, DWORD PTR [eax+12]
  00010	2b 41 04	 sub	 eax, DWORD PTR [ecx+4]
  00013	8b e5		 mov	 esp, ebp
  00015	5d		 pop	 ebp
  00016	c3		 ret	 0
?Height@CRect@@QBEHXZ ENDP				; CRect::Height
; Function compile flags: /Odt
_TEXT	ENDS
;	COMDAT ??BCRect@@QAEPAUtagRECT@@XZ
_TEXT	SEGMENT
_this$ = -4						; size = 4
??BCRect@@QAEPAUtagRECT@@XZ PROC NEAR			; CRect::operator tagRECT *, COMDAT
; _this$ = ecx

; 143  : 	{ return this; }

  00000	55		 push	 ebp
  00001	8b ec		 mov	 ebp, esp
  00003	51		 push	 ecx
  00004	89 4d fc	 mov	 DWORD PTR _this$[ebp], ecx
  00007	8b 45 fc	 mov	 eax, DWORD PTR _this$[ebp]
  0000a	8b e5		 mov	 esp, ebp
  0000c	5d		 pop	 ebp
  0000d	c3		 ret	 0
??BCRect@@QAEPAUtagRECT@@XZ ENDP			; CRect::operator tagRECT *
; Function compile flags: /Odt
; File d:\program files (x86)\microsoft visual studio .net 2003\vc7\atlmfc\include\afx.inl
_TEXT	ENDS
;	COMDAT ?Serialize@CObject@@UAEXAAVCArchive@@@Z
_TEXT	SEGMENT
_this$ = -4						; size = 4
___formal$ = 8						; size = 4
?Serialize@CObject@@UAEXAAVCArchive@@@Z PROC NEAR	; CObject::Serialize, COMDAT
; _this$ = ecx

; 25   : 	{ /* CObject does not serialize anything by default */ }

  00000	55		 push	 ebp
  00001	8b ec		 mov	 ebp, esp
  00003	51		 push	 ecx
  00004	89 4d fc	 mov	 DWORD PTR _this$[ebp], ecx
  00007	8b e5		 mov	 esp, ebp
  00009	5d		 pop	 ebp
  0000a	c2 04 00	 ret	 4
?Serialize@CObject@@UAEXAAVCArchive@@@Z ENDP		; CObject::Serialize
; Function compile flags: /Odt
_TEXT	ENDS
;	COMDAT ??3CObject@@SGXPAX@Z
_TEXT	SEGMENT
_p$ = 8							; size = 4
??3CObject@@SGXPAX@Z PROC NEAR				; CObject::operator delete, COMDAT

; 31   : 	{ ::operator delete(p); }

  00000	55		 push	 ebp
  00001	8b ec		 mov	 ebp, esp
  00003	8b 45 08	 mov	 eax, DWORD PTR _p$[ebp]
  00006	50		 push	 eax
  00007	e8 00 00 00 00	 call	 ??3@YAXPAX@Z		; operator delete
  0000c	83 c4 04	 add	 esp, 4
  0000f	5d		 pop	 ebp
  00010	c2 04 00	 ret	 4
??3CObject@@SGXPAX@Z ENDP				; CObject::operator delete
; Function compile flags: /Odt
_TEXT	ENDS
;	COMDAT ?AssertValid@CObject@@UBEXXZ
_TEXT	SEGMENT
_this$ = -4						; size = 4
?AssertValid@CObject@@UBEXXZ PROC NEAR			; CObject::AssertValid, COMDAT
; _this$ = ecx

; 41   : 	{ /* no asserts in release builds */ }

  00000	55		 push	 ebp
  00001	8b ec		 mov	 ebp, esp
  00003	51		 push	 ecx
  00004	89 4d fc	 mov	 DWORD PTR _this$[ebp], ecx
  00007	8b e5		 mov	 esp, ebp
  00009	5d		 pop	 ebp
  0000a	c3		 ret	 0
?AssertValid@CObject@@UBEXXZ ENDP			; CObject::AssertValid
; Function compile flags: /Odt
_TEXT	ENDS
;	COMDAT ?Dump@CObject@@UBEXAAVCDumpContext@@@Z
_TEXT	SEGMENT
_this$ = -4						; size = 4
___formal$ = 8						; size = 4
?Dump@CObject@@UBEXAAVCDumpContext@@@Z PROC NEAR	; CObject::Dump, COMDAT
; _this$ = ecx

; 43   : 	{ /* no dumping in release builds */ }

  00000	55		 push	 ebp
  00001	8b ec		 mov	 ebp, esp
  00003	51		 push	 ecx
  00004	89 4d fc	 mov	 DWORD PTR _this$[ebp], ecx
  00007	8b e5		 mov	 esp, ebp
  00009	5d		 pop	 ebp
  0000a	c2 04 00	 ret	 4
?Dump@CObject@@UBEXAAVCDumpContext@@@Z ENDP		; CObject::Dump
_TEXT	ENDS
PUBLIC	??_R0?AVCGdiObject@@@8				; CGdiObject `RTTI Type Descriptor'
PUBLIC	??_R1A@?0A@A@CGdiObject@@8			; CGdiObject::`RTTI Base Class Descriptor at (0,-1,0,0)'
PUBLIC	??_R4CBrush@@6B@				; CBrush::`RTTI Complete Object Locator'
PUBLIC	??_R0?AVCBrush@@@8				; CBrush `RTTI Type Descriptor'
PUBLIC	??_R3CBrush@@8					; CBrush::`RTTI Class Hierarchy Descriptor'
PUBLIC	??_R2CBrush@@8					; CBrush::`RTTI Base Class Array'
PUBLIC	??_R1A@?0A@A@CBrush@@8				; CBrush::`RTTI Base Class Descriptor at (0,-1,0,0)'
PUBLIC	??1CGdiObject@@UAE@XZ				; CGdiObject::~CGdiObject
PUBLIC	??_7CBrush@@6B@					; CBrush::`vftable'
PUBLIC	??_GCBrush@@UAEPAXI@Z				; CBrush::`scalar deleting destructor'
EXTRN	?GetRuntimeClass@CBrush@@UBEPAUCRuntimeClass@@XZ:NEAR ; CBrush::GetRuntimeClass
EXTRN	??_ECBrush@@UAEPAXI@Z:NEAR			; CBrush::`vector deleting destructor'
;	COMDAT ??_7CBrush@@6B@
; File d:\program files (x86)\microsoft visual studio .net 2003\vc7\atlmfc\include\afxwin1.inl
CONST	SEGMENT
??_7CBrush@@6B@ DD FLAT:??_R4CBrush@@6B@		; CBrush::`vftable'
	DD	FLAT:?GetRuntimeClass@CBrush@@UBEPAUCRuntimeClass@@XZ
	DD	FLAT:??_ECBrush@@UAEPAXI@Z
	DD	FLAT:?Serialize@CObject@@UAEXAAVCArchive@@@Z
	DD	FLAT:?AssertValid@CObject@@UBEXXZ
	DD	FLAT:?Dump@CObject@@UBEXAAVCDumpContext@@@Z
CONST	ENDS
;	COMDAT ??_R4CBrush@@6B@
rdata$r	SEGMENT
??_R4CBrush@@6B@ DD 00H					; CBrush::`RTTI Complete Object Locator'
	DD	00H
	DD	00H
	DD	FLAT:??_R0?AVCBrush@@@8
	DD	FLAT:??_R3CBrush@@8
rdata$r	ENDS
;	COMDAT ??_R0?AVCBrush@@@8
_DATA	SEGMENT
??_R0?AVCBrush@@@8 DD FLAT:??_7type_info@@6B@		; CBrush `RTTI Type Descriptor'
	DD	00H
	DB	'.?AVCBrush@@', 00H
_DATA	ENDS
;	COMDAT ??_R3CBrush@@8
rdata$r	SEGMENT
??_R3CBrush@@8 DD 00H					; CBrush::`RTTI Class Hierarchy Descriptor'
	DD	00H
	DD	03H
	DD	FLAT:??_R2CBrush@@8
rdata$r	ENDS
;	COMDAT ??_R2CBrush@@8
rdata$r	SEGMENT
??_R2CBrush@@8 DD FLAT:??_R1A@?0A@A@CBrush@@8		; CBrush::`RTTI Base Class Array'
	DD	FLAT:??_R1A@?0A@A@CGdiObject@@8
	DD	FLAT:??_R1A@?0A@A@CObject@@8
rdata$r	ENDS
;	COMDAT ??_R1A@?0A@A@CBrush@@8
rdata$r	SEGMENT
??_R1A@?0A@A@CBrush@@8 DD FLAT:??_R0?AVCBrush@@@8	; CBrush::`RTTI Base Class Descriptor at (0,-1,0,0)'
	DD	02H
	DD	00H
	DD	0ffffffffH
	DD	00H
	DD	00H
rdata$r	ENDS
;	COMDAT ??_R1A@?0A@A@CGdiObject@@8
rdata$r	SEGMENT
??_R1A@?0A@A@CGdiObject@@8 DD FLAT:??_R0?AVCGdiObject@@@8 ; CGdiObject::`RTTI Base Class Descriptor at (0,-1,0,0)'
	DD	01H
	DD	00H
	DD	0ffffffffH
	DD	00H
	DD	00H
rdata$r	ENDS
;	COMDAT ??_R0?AVCGdiObject@@@8
_DATA	SEGMENT
??_R0?AVCGdiObject@@@8 DD FLAT:??_7type_info@@6B@	; CGdiObject `RTTI Type Descriptor'
	DD	00H
	DB	'.?AVCGdiObject@@', 00H
; Function compile flags: /Odt
_DATA	ENDS
;	COMDAT ??1CBrush@@UAE@XZ
_TEXT	SEGMENT
_this$ = -4						; size = 4
??1CBrush@@UAE@XZ PROC NEAR				; CBrush::~CBrush, COMDAT
; _this$ = ecx

; 130  : 	{ }

  00000	55		 push	 ebp
  00001	8b ec		 mov	 ebp, esp
  00003	51		 push	 ecx
  00004	89 4d fc	 mov	 DWORD PTR _this$[ebp], ecx
  00007	8b 45 fc	 mov	 eax, DWORD PTR _this$[ebp]
  0000a	c7 00 00 00 00
	00		 mov	 DWORD PTR [eax], OFFSET FLAT:??_7CBrush@@6B@
  00010	8b 4d fc	 mov	 ecx, DWORD PTR _this$[ebp]
  00013	e8 00 00 00 00	 call	 ??1CGdiObject@@UAE@XZ	; CGdiObject::~CGdiObject
  00018	8b e5		 mov	 esp, ebp
  0001a	5d		 pop	 ebp
  0001b	c3		 ret	 0
??1CBrush@@UAE@XZ ENDP					; CBrush::~CBrush
_TEXT	ENDS
PUBLIC	??_R4CGdiObject@@6B@				; CGdiObject::`RTTI Complete Object Locator'
PUBLIC	??_R3CGdiObject@@8				; CGdiObject::`RTTI Class Hierarchy Descriptor'
PUBLIC	??_R2CGdiObject@@8				; CGdiObject::`RTTI Base Class Array'
PUBLIC	??1CObject@@UAE@XZ				; CObject::~CObject
PUBLIC	??_7CGdiObject@@6B@				; CGdiObject::`vftable'
PUBLIC	??_GCGdiObject@@UAEPAXI@Z			; CGdiObject::`scalar deleting destructor'
EXTRN	?GetRuntimeClass@CGdiObject@@UBEPAUCRuntimeClass@@XZ:NEAR ; CGdiObject::GetRuntimeClass
EXTRN	?DeleteObject@CGdiObject@@QAEHXZ:NEAR		; CGdiObject::DeleteObject
EXTRN	??_ECGdiObject@@UAEPAXI@Z:NEAR			; CGdiObject::`vector deleting destructor'
;	COMDAT xdata$x
xdata$x	SEGMENT
$T199413 DD	0ffffffffH
	DD	FLAT:$L199409
$T199411 DD	019930520H
	DD	01H
	DD	FLAT:$T199413
	DD	2 DUP(00H)
	DD	2 DUP(00H)
xdata$x	ENDS
;	COMDAT ??_7CGdiObject@@6B@
CONST	SEGMENT
??_7CGdiObject@@6B@ DD FLAT:??_R4CGdiObject@@6B@	; CGdiObject::`vftable'
	DD	FLAT:?GetRuntimeClass@CGdiObject@@UBEPAUCRuntimeClass@@XZ
	DD	FLAT:??_ECGdiObject@@UAEPAXI@Z
	DD	FLAT:?Serialize@CObject@@UAEXAAVCArchive@@@Z
	DD	FLAT:?AssertValid@CObject@@UBEXXZ
	DD	FLAT:?Dump@CObject@@UBEXAAVCDumpContext@@@Z
CONST	ENDS
;	COMDAT ??_R4CGdiObject@@6B@
rdata$r	SEGMENT
??_R4CGdiObject@@6B@ DD 00H				; CGdiObject::`RTTI Complete Object Locator'
	DD	00H
	DD	00H
	DD	FLAT:??_R0?AVCGdiObject@@@8
	DD	FLAT:??_R3CGdiObject@@8
rdata$r	ENDS
;	COMDAT ??_R3CGdiObject@@8
rdata$r	SEGMENT
??_R3CGdiObject@@8 DD 00H				; CGdiObject::`RTTI Class Hierarchy Descriptor'
	DD	00H
	DD	02H
	DD	FLAT:??_R2CGdiObject@@8
rdata$r	ENDS
;	COMDAT ??_R2CGdiObject@@8
rdata$r	SEGMENT
??_R2CGdiObject@@8 DD FLAT:??_R1A@?0A@A@CGdiObject@@8	; CGdiObject::`RTTI Base Class Array'
	DD	FLAT:??_R1A@?0A@A@CObject@@8
; Function compile flags: /Odt
rdata$r	ENDS
;	COMDAT ??1CGdiObject@@UAE@XZ
_TEXT	SEGMENT
_this$ = -16						; size = 4
__$EHRec$ = -12						; size = 12
??1CGdiObject@@UAE@XZ PROC NEAR				; CGdiObject::~CGdiObject, COMDAT
; _this$ = ecx

; 84   : 	{ DeleteObject(); }

  00000	55		 push	 ebp
  00001	8b ec		 mov	 ebp, esp
  00003	6a ff		 push	 -1
  00005	68 00 00 00 00	 push	 __ehhandler$??1CGdiObject@@UAE@XZ
  0000a	64 a1 00 00 00
	00		 mov	 eax, DWORD PTR fs:__except_list
  00010	50		 push	 eax
  00011	64 89 25 00 00
	00 00		 mov	 DWORD PTR fs:__except_list, esp
  00018	51		 push	 ecx
  00019	89 4d f0	 mov	 DWORD PTR _this$[ebp], ecx
  0001c	8b 45 f0	 mov	 eax, DWORD PTR _this$[ebp]
  0001f	c7 00 00 00 00
	00		 mov	 DWORD PTR [eax], OFFSET FLAT:??_7CGdiObject@@6B@
  00025	c7 45 fc 00 00
	00 00		 mov	 DWORD PTR __$EHRec$[ebp+8], 0
  0002c	8b 4d f0	 mov	 ecx, DWORD PTR _this$[ebp]
  0002f	e8 00 00 00 00	 call	 ?DeleteObject@CGdiObject@@QAEHXZ ; CGdiObject::DeleteObject
  00034	c7 45 fc ff ff
	ff ff		 mov	 DWORD PTR __$EHRec$[ebp+8], -1
  0003b	8b 4d f0	 mov	 ecx, DWORD PTR _this$[ebp]
  0003e	e8 00 00 00 00	 call	 ??1CObject@@UAE@XZ	; CObject::~CObject
  00043	8b 4d f4	 mov	 ecx, DWORD PTR __$EHRec$[ebp]
  00046	64 89 0d 00 00
	00 00		 mov	 DWORD PTR fs:__except_list, ecx
  0004d	8b e5		 mov	 esp, ebp
  0004f	5d		 pop	 ebp
  00050	c3		 ret	 0
_TEXT	ENDS
;	COMDAT text$x
text$x	SEGMENT
$L199409:
  00000	8b 4d f0	 mov	 ecx, DWORD PTR _this$[ebp]
  00003	e9 00 00 00 00	 jmp	 ??1CObject@@UAE@XZ	; CObject::~CObject
__ehhandler$??1CGdiObject@@UAE@XZ:
  00008	b8 00 00 00 00	 mov	 eax, OFFSET FLAT:$T199411
  0000d	e9 00 00 00 00	 jmp	 ___CxxFrameHandler
text$x	ENDS
??1CGdiObject@@UAE@XZ ENDP				; CGdiObject::~CGdiObject
; Function compile flags: /Odt
; File d:\program files (x86)\microsoft visual studio .net 2003\vc7\atlmfc\include\afx.inl
;	COMDAT ??1CObject@@UAE@XZ
_TEXT	SEGMENT
_this$ = -4						; size = 4
??1CObject@@UAE@XZ PROC NEAR				; CObject::~CObject, COMDAT
; _this$ = ecx

; 23   : 	{ }

  00000	55		 push	 ebp
  00001	8b ec		 mov	 ebp, esp
  00003	51		 push	 ecx
  00004	89 4d fc	 mov	 DWORD PTR _this$[ebp], ecx
  00007	8b e5		 mov	 esp, ebp
  00009	5d		 pop	 ebp
  0000a	c3		 ret	 0
??1CObject@@UAE@XZ ENDP					; CObject::~CObject
; Function compile flags: /Odt
_TEXT	ENDS
;	COMDAT ??_GCGdiObject@@UAEPAXI@Z
_TEXT	SEGMENT
_this$ = -4						; size = 4
___flags$ = 8						; size = 4
??_GCGdiObject@@UAEPAXI@Z PROC NEAR			; CGdiObject::`scalar deleting destructor', COMDAT
; _this$ = ecx
  00000	55		 push	 ebp
  00001	8b ec		 mov	 ebp, esp
  00003	51		 push	 ecx
  00004	89 4d fc	 mov	 DWORD PTR _this$[ebp], ecx
  00007	8b 4d fc	 mov	 ecx, DWORD PTR _this$[ebp]
  0000a	e8 00 00 00 00	 call	 ??1CGdiObject@@UAE@XZ	; CGdiObject::~CGdiObject
  0000f	8b 45 08	 mov	 eax, DWORD PTR ___flags$[ebp]
  00012	83 e0 01	 and	 eax, 1
  00015	74 09		 je	 SHORT $L41495
  00017	8b 4d fc	 mov	 ecx, DWORD PTR _this$[ebp]
  0001a	51		 push	 ecx
  0001b	e8 00 00 00 00	 call	 ??3CObject@@SGXPAX@Z	; CObject::operator delete
$L41495:
  00020	8b 45 fc	 mov	 eax, DWORD PTR _this$[ebp]
  00023	8b e5		 mov	 esp, ebp
  00025	5d		 pop	 ebp
  00026	c2 04 00	 ret	 4
??_GCGdiObject@@UAEPAXI@Z ENDP				; CGdiObject::`scalar deleting destructor'
; Function compile flags: /Odt
_TEXT	ENDS
;	COMDAT ??_GCBrush@@UAEPAXI@Z
_TEXT	SEGMENT
_this$ = -4						; size = 4
___flags$ = 8						; size = 4
??_GCBrush@@UAEPAXI@Z PROC NEAR				; CBrush::`scalar deleting destructor', COMDAT
; _this$ = ecx
  00000	55		 push	 ebp
  00001	8b ec		 mov	 ebp, esp
  00003	51		 push	 ecx
  00004	89 4d fc	 mov	 DWORD PTR _this$[ebp], ecx
  00007	8b 4d fc	 mov	 ecx, DWORD PTR _this$[ebp]
  0000a	e8 00 00 00 00	 call	 ??1CBrush@@UAE@XZ	; CBrush::~CBrush
  0000f	8b 45 08	 mov	 eax, DWORD PTR ___flags$[ebp]
  00012	83 e0 01	 and	 eax, 1
  00015	74 09		 je	 SHORT $L41589
  00017	8b 4d fc	 mov	 ecx, DWORD PTR _this$[ebp]
  0001a	51		 push	 ecx
  0001b	e8 00 00 00 00	 call	 ??3CObject@@SGXPAX@Z	; CObject::operator delete
$L41589:
  00020	8b 45 fc	 mov	 eax, DWORD PTR _this$[ebp]
  00023	8b e5		 mov	 esp, ebp
  00025	5d		 pop	 ebp
  00026	c2 04 00	 ret	 4
??_GCBrush@@UAEPAXI@Z ENDP				; CBrush::`scalar deleting destructor'
_TEXT	ENDS
PUBLIC	??_R4CFont@@6B@					; CFont::`RTTI Complete Object Locator'
PUBLIC	??_R0?AVCFont@@@8				; CFont `RTTI Type Descriptor'
PUBLIC	??_R3CFont@@8					; CFont::`RTTI Class Hierarchy Descriptor'
PUBLIC	??_R2CFont@@8					; CFont::`RTTI Base Class Array'
PUBLIC	??_R1A@?0A@A@CFont@@8				; CFont::`RTTI Base Class Descriptor at (0,-1,0,0)'
PUBLIC	??0CGdiObject@@QAE@XZ				; CGdiObject::CGdiObject
PUBLIC	??_7CFont@@6B@					; CFont::`vftable'
PUBLIC	??_GCFont@@UAEPAXI@Z				; CFont::`scalar deleting destructor'
EXTRN	?GetRuntimeClass@CFont@@UBEPAUCRuntimeClass@@XZ:NEAR ; CFont::GetRuntimeClass
EXTRN	??_ECFont@@UAEPAXI@Z:NEAR			; CFont::`vector deleting destructor'
;	COMDAT ??_7CFont@@6B@
; File d:\program files (x86)\microsoft visual studio .net 2003\vc7\atlmfc\include\afxwin1.inl
CONST	SEGMENT
??_7CFont@@6B@ DD FLAT:??_R4CFont@@6B@			; CFont::`vftable'
	DD	FLAT:?GetRuntimeClass@CFont@@UBEPAUCRuntimeClass@@XZ
	DD	FLAT:??_ECFont@@UAEPAXI@Z
	DD	FLAT:?Serialize@CObject@@UAEXAAVCArchive@@@Z
	DD	FLAT:?AssertValid@CObject@@UBEXXZ
	DD	FLAT:?Dump@CObject@@UBEXAAVCDumpContext@@@Z
CONST	ENDS
;	COMDAT ??_R4CFont@@6B@
rdata$r	SEGMENT
??_R4CFont@@6B@ DD 00H					; CFont::`RTTI Complete Object Locator'
	DD	00H
	DD	00H
	DD	FLAT:??_R0?AVCFont@@@8
	DD	FLAT:??_R3CFont@@8
rdata$r	ENDS
;	COMDAT ??_R0?AVCFont@@@8
_DATA	SEGMENT
??_R0?AVCFont@@@8 DD FLAT:??_7type_info@@6B@		; CFont `RTTI Type Descriptor'
	DD	00H
	DB	'.?AVCFont@@', 00H
_DATA	ENDS
;	COMDAT ??_R3CFont@@8
rdata$r	SEGMENT
??_R3CFont@@8 DD 00H					; CFont::`RTTI Class Hierarchy Descriptor'
	DD	00H
	DD	03H
	DD	FLAT:??_R2CFont@@8
rdata$r	ENDS
;	COMDAT ??_R2CFont@@8
rdata$r	SEGMENT
??_R2CFont@@8 DD FLAT:??_R1A@?0A@A@CFont@@8		; CFont::`RTTI Base Class Array'
	DD	FLAT:??_R1A@?0A@A@CGdiObject@@8
	DD	FLAT:??_R1A@?0A@A@CObject@@8
rdata$r	ENDS
;	COMDAT ??_R1A@?0A@A@CFont@@8
rdata$r	SEGMENT
??_R1A@?0A@A@CFont@@8 DD FLAT:??_R0?AVCFont@@@8		; CFont::`RTTI Base Class Descriptor at (0,-1,0,0)'
	DD	02H
	DD	00H
	DD	0ffffffffH
	DD	00H
	DD	00H
; Function compile flags: /Odt
rdata$r	ENDS
;	COMDAT ??0CFont@@QAE@XZ
_TEXT	SEGMENT
_this$ = -4						; size = 4
??0CFont@@QAE@XZ PROC NEAR				; CFont::CFont, COMDAT
; _this$ = ecx

; 153  : 	{ }

  00000	55		 push	 ebp
  00001	8b ec		 mov	 ebp, esp
  00003	51		 push	 ecx
  00004	89 4d fc	 mov	 DWORD PTR _this$[ebp], ecx
  00007	8b 4d fc	 mov	 ecx, DWORD PTR _this$[ebp]
  0000a	e8 00 00 00 00	 call	 ??0CGdiObject@@QAE@XZ	; CGdiObject::CGdiObject
  0000f	8b 45 fc	 mov	 eax, DWORD PTR _this$[ebp]
  00012	c7 00 00 00 00
