; Listing generated by Microsoft (R) Optimizing Compiler Version 13.10.3077 

	TITLE	.\src\LayoutMgr\ChangeColor\StaticTextEx.cpp
	.386P
include listing.inc
if @Version gt 510
.model FLAT
else
_TEXT	SEGMENT PARA USE32 PUBLIC 'CODE'
_TEXT	ENDS
_DATA	SEGMENT DWORD USE32 PUBLIC 'DATA'
_DATA	ENDS
CONST	SEGMENT DWORD USE32 PUBLIC 'CONST'
CONST	ENDS
_BSS	SEGMENT DWORD USE32 PUBLIC 'BSS'
_BSS	ENDS
$$SYMBOLS	SEGMENT BYTE USE32 'DEBSYM'
$$SYMBOLS	ENDS
$$TYPES	SEGMENT BYTE USE32 'DEBTYP'
$$TYPES	ENDS
_TLS	SEGMENT DWORD USE32 PUBLIC 'TLS'
_TLS	ENDS
rdata$r	SEGMENT DWORD USE32 PUBLIC 'CONST'
rdata$r	ENDS
xdata$x	SEGMENT DWORD USE32 PUBLIC 'CONST'
xdata$x	ENDS
text$AFX_COL1	SEGMENT PARA USE32 PUBLIC ''
text$AFX_COL1	ENDS
text$yc	SEGMENT PARA USE32 PUBLIC 'CODE'
text$yc	ENDS
CRT$XCA	SEGMENT DWORD USE32 PUBLIC 'DATA'
CRT$XCA	ENDS
CRT$XCU	SEGMENT DWORD USE32 PUBLIC 'DATA'
CRT$XCU	ENDS
CRT$XCL	SEGMENT DWORD USE32 PUBLIC 'DATA'
CRT$XCL	ENDS
CRT$XCC	SEGMENT DWORD USE32 PUBLIC 'DATA'
CRT$XCC	ENDS
CRT$XCZ	SEGMENT DWORD USE32 PUBLIC 'DATA'
CRT$XCZ	ENDS
text$yd	SEGMENT PARA USE32 PUBLIC 'CODE'
text$yd	ENDS
ATL$__m	SEGMENT DWORD USE32 PUBLIC ''
ATL$__m	ENDS
ATL$__z	SEGMENT DWORD USE32 PUBLIC ''
ATL$__z	ENDS
ATL$__a	SEGMENT DWORD USE32 PUBLIC ''
ATL$__a	ENDS
;	COMDAT ??1DIBINFO@@UAE@XZ
_TEXT	SEGMENT PARA USE32 PUBLIC 'CODE'
_TEXT	ENDS
;	COMDAT ??_GDIBINFO@@UAEPAXI@Z
_TEXT	SEGMENT PARA USE32 PUBLIC 'CODE'
_TEXT	ENDS
;	COMDAT ??_GCStaticText@@UAEPAXI@Z
_TEXT	SEGMENT PARA USE32 PUBLIC 'CODE'
_TEXT	ENDS
;	COMDAT ??HATL@@YA?AV?$CStringT@DV?$StrTraitMFC_DLL@DV?$ChTraitsCRT@D@ATL@@@@@0@PBDABV10@@Z
_TEXT	SEGMENT PARA USE32 PUBLIC 'CODE'
_TEXT	ENDS
;	COMDAT ??9ATL@@YA_NABV?$CStringT@DV?$StrTraitMFC_DLL@DV?$ChTraitsCRT@D@ATL@@@@@0@0@Z
_TEXT	SEGMENT PARA USE32 PUBLIC 'CODE'
_TEXT	ENDS
;	COMDAT ??B?$CComPtrBase@UITypeInfo2@@@ATL@@QBEPAUITypeInfo2@@XZ
_TEXT	SEGMENT PARA USE32 PUBLIC 'CODE'
_TEXT	ENDS
;	COMDAT ?equal@?$istreambuf_iterator@DU?$char_traits@D@std@@@std@@QBE_NABV12@@Z
_TEXT	SEGMENT PARA USE32 PUBLIC 'CODE'
_TEXT	ENDS
;	COMDAT ?equal@?$istreambuf_iterator@_WU?$char_traits@_W@std@@@std@@QBE_NABV12@@Z
_TEXT	SEGMENT PARA USE32 PUBLIC 'CODE'
_TEXT	ENDS
;	COMDAT ?StringFindString@?$ChTraitsCRT@D@ATL@@SAPBDPBD0@Z
_TEXT	SEGMENT PARA USE32 PUBLIC 'CODE'
_TEXT	ENDS
;	COMDAT ?StringCompare@?$ChTraitsCRT@D@ATL@@SAHPBD0@Z
_TEXT	SEGMENT PARA USE32 PUBLIC 'CODE'
_TEXT	ENDS
;	COMDAT ?Unlock@?$CComCritSecLock@VCComCriticalSection@ATL@@@ATL@@QAEXXZ
_TEXT	SEGMENT PARA USE32 PUBLIC 'CODE'
_TEXT	ENDS
;	COMDAT ??$_Maklocstr@D@std@@YAPADPBDPADABU_Cvtvec@@@Z
_TEXT	SEGMENT PARA USE32 PUBLIC 'CODE'
_TEXT	ENDS
;	COMDAT ??_R3CStaticText@@8
rdata$r	SEGMENT DWORD USE32 PUBLIC 'CONST'
rdata$r	ENDS
;	COMDAT ??_R3DIBINFO@@8
rdata$r	SEGMENT DWORD USE32 PUBLIC 'CONST'
rdata$r	ENDS
;	COMDAT ??_R3?$numpunct@_W@std@@8
rdata$r	SEGMENT DWORD USE32 PUBLIC 'CONST'
rdata$r	ENDS
;	COMDAT ??_R3?$numpunct@D@std@@8
rdata$r	SEGMENT DWORD USE32 PUBLIC 'CONST'
rdata$r	ENDS
;	COMDAT ??_R2CStaticText@@8
rdata$r	SEGMENT DWORD USE32 PUBLIC 'CONST'
rdata$r	ENDS
;	COMDAT ??_R2DIBINFO@@8
rdata$r	SEGMENT DWORD USE32 PUBLIC 'CONST'
rdata$r	ENDS
;	COMDAT ??_R2?$numpunct@_W@std@@8
rdata$r	SEGMENT DWORD USE32 PUBLIC 'CONST'
rdata$r	ENDS
;	COMDAT ??_R2?$numpunct@D@std@@8
rdata$r	SEGMENT DWORD USE32 PUBLIC 'CONST'
rdata$r	ENDS
;	COMDAT ??_R1A@?0A@A@CObject@@8
rdata$r	SEGMENT DWORD USE32 PUBLIC 'CONST'
rdata$r	ENDS
;	COMDAT ??_R0?AVCObject@@@8
_DATA	SEGMENT DWORD USE32 PUBLIC 'DATA'
_DATA	ENDS
;	COMDAT ??_R1A@?0A@A@CCmdTarget@@8
rdata$r	SEGMENT DWORD USE32 PUBLIC 'CONST'
rdata$r	ENDS
;	COMDAT ??_R0?AVCCmdTarget@@@8
_DATA	SEGMENT DWORD USE32 PUBLIC 'DATA'
_DATA	ENDS
;	COMDAT ??_R1A@?0A@A@CWnd@@8
rdata$r	SEGMENT DWORD USE32 PUBLIC 'CONST'
rdata$r	ENDS
;	COMDAT ??_R0?AVCWnd@@@8
_DATA	SEGMENT DWORD USE32 PUBLIC 'DATA'
_DATA	ENDS
;	COMDAT ??_R1A@?0A@A@CStatic@@8
rdata$r	SEGMENT DWORD USE32 PUBLIC 'CONST'
rdata$r	ENDS
;	COMDAT ??_R0?AVCStatic@@@8
_DATA	SEGMENT DWORD USE32 PUBLIC 'DATA'
_DATA	ENDS
;	COMDAT ??_R1A@?0A@A@CStaticText@@8
rdata$r	SEGMENT DWORD USE32 PUBLIC 'CONST'
rdata$r	ENDS
;	COMDAT ??_R1A@?0A@A@DIBINFO@@8
rdata$r	SEGMENT DWORD USE32 PUBLIC 'CONST'
rdata$r	ENDS
;	COMDAT ??_R1A@?0A@A@?$numpunct@_W@std@@8
rdata$r	SEGMENT DWORD USE32 PUBLIC 'CONST'
rdata$r	ENDS
;	COMDAT ??_R1A@?0A@A@facet@locale@std@@8
rdata$r	SEGMENT DWORD USE32 PUBLIC 'CONST'
rdata$r	ENDS
;	COMDAT ??_R0?AVfacet@locale@std@@@8
_DATA	SEGMENT DWORD USE32 PUBLIC 'DATA'
_DATA	ENDS
;	COMDAT ??_R1A@?0A@A@?$numpunct@D@std@@8
rdata$r	SEGMENT DWORD USE32 PUBLIC 'CONST'
rdata$r	ENDS
;	COMDAT ??_R0?AVCStaticText@@@8
_DATA	SEGMENT DWORD USE32 PUBLIC 'DATA'
_DATA	ENDS
;	COMDAT ??_R0?AVDIBINFO@@@8
_DATA	SEGMENT DWORD USE32 PUBLIC 'DATA'
_DATA	ENDS
;	COMDAT ??_R0?AV?$numpunct@_W@std@@@8
_DATA	SEGMENT DWORD USE32 PUBLIC 'DATA'
_DATA	ENDS
;	COMDAT ??_R0?AV?$numpunct@D@std@@@8
_DATA	SEGMENT DWORD USE32 PUBLIC 'DATA'
_DATA	ENDS
;	COMDAT ?EndModalState@CWnd@@UAEXXZ
_TEXT	SEGMENT PARA USE32 PUBLIC 'CODE'
_TEXT	ENDS
;	COMDAT ?BeginModalState@CWnd@@UAEXXZ
_TEXT	SEGMENT PARA USE32 PUBLIC 'CODE'
_TEXT	ENDS
;	COMDAT ?DoDataExchange@CWnd@@MAEXPAVCDataExchange@@@Z
_TEXT	SEGMENT PARA USE32 PUBLIC 'CODE'
_TEXT	ENDS
;	COMDAT ?Dump@CObject@@UBEXAAVCDumpContext@@@Z
_TEXT	SEGMENT PARA USE32 PUBLIC 'CODE'
_TEXT	ENDS
;	COMDAT ?AssertValid@CObject@@UBEXXZ
_TEXT	SEGMENT PARA USE32 PUBLIC 'CODE'
_TEXT	ENDS
;	COMDAT ?Serialize@CObject@@UAEXAAVCArchive@@@Z
_TEXT	SEGMENT PARA USE32 PUBLIC 'CODE'
_TEXT	ENDS
;	COMDAT ??_R4CStaticText@@6B@
rdata$r	SEGMENT DWORD USE32 PUBLIC 'CONST'
rdata$r	ENDS
;	COMDAT ??_R4DIBINFO@@6B@
rdata$r	SEGMENT DWORD USE32 PUBLIC 'CONST'
rdata$r	ENDS
;	COMDAT ??0?$allocator@_W@std@@QAE@XZ
_TEXT	SEGMENT PARA USE32 PUBLIC 'CODE'
_TEXT	ENDS
;	COMDAT ??_G?$numpunct@_W@std@@MAEPAXI@Z
_TEXT	SEGMENT PARA USE32 PUBLIC 'CODE'
_TEXT	ENDS
;	COMDAT ??_R4?$numpunct@_W@std@@6B@
rdata$r	SEGMENT DWORD USE32 PUBLIC 'CONST'
rdata$r	ENDS
;	COMDAT ??_G?$numpunct@D@std@@MAEPAXI@Z
_TEXT	SEGMENT PARA USE32 PUBLIC 'CODE'
_TEXT	ENDS
;	COMDAT ??_R4?$numpunct@D@std@@6B@
rdata$r	SEGMENT DWORD USE32 PUBLIC 'CONST'
rdata$r	ENDS
;	COMDAT ?_Psave@?$_Facetptr@V?$numpunct@_W@std@@@std@@2PBVfacet@locale@2@B
_DATA	SEGMENT DWORD USE32 PUBLIC 'DATA'
_DATA	ENDS
;	COMDAT ?_Psave@?$_Facetptr@V?$numpunct@D@std@@@std@@2PBVfacet@locale@2@B
_DATA	SEGMENT DWORD USE32 PUBLIC 'DATA'
_DATA	ENDS
;	COMDAT ?Unlock@CComCriticalSection@ATL@@QAEJXZ
_TEXT	SEGMENT PARA USE32 PUBLIC 'CODE'
_TEXT	ENDS
;	COMDAT ?_Psave@?$_Facetptr@V?$ctype@_W@std@@@std@@2PBVfacet@locale@2@B
_DATA	SEGMENT DWORD USE32 PUBLIC 'DATA'
_DATA	ENDS
;	COMDAT ?_Psave@?$_Facetptr@V?$ctype@D@std@@@std@@2PBVfacet@locale@2@B
_DATA	SEGMENT DWORD USE32 PUBLIC 'DATA'
_DATA	ENDS
;	COMDAT ??$_Maklocchr@_W@std@@YA_WDPA_WABU_Cvtvec@@@Z
_TEXT	SEGMENT PARA USE32 PUBLIC 'CODE'
_TEXT	ENDS
;	COMDAT ??$_Maklocstr@_W@std@@YAPA_WPBDPA_WABU_Cvtvec@@@Z
_TEXT	SEGMENT PARA USE32 PUBLIC 'CODE'
_TEXT	ENDS
;	COMDAT ??$_Maklocchr@D@std@@YADDPADABU_Cvtvec@@@Z
_TEXT	SEGMENT PARA USE32 PUBLIC 'CODE'
_TEXT	ENDS
;	COMDAT ??_C@_04LOAJBDKD@true?$AA@
CONST	SEGMENT DWORD USE32 PUBLIC 'CONST'
CONST	ENDS
;	COMDAT ??_C@_05LAPONLG@false?$AA@
CONST	SEGMENT DWORD USE32 PUBLIC 'CONST'
CONST	ENDS
;	COMDAT _wmemcpy
_TEXT	SEGMENT PARA USE32 PUBLIC 'CODE'
_TEXT	ENDS
;	COMDAT ?max_size@?$allocator@_W@std@@QBEIXZ
_TEXT	SEGMENT PARA USE32 PUBLIC 'CODE'
_TEXT	ENDS
;	COMDAT ?allocate@?$allocator@_W@std@@QAEPA_WI@Z
_TEXT	SEGMENT PARA USE32 PUBLIC 'CODE'
_TEXT	ENDS
;	COMDAT ??$_Allocate@_W@std@@YAPA_WIPA_W@Z
_TEXT	SEGMENT PARA USE32 PUBLIC 'CODE'
_TEXT	ENDS
;	COMDAT ??_C@_01GFHCPBMG@C?$AA@
CONST	SEGMENT DWORD USE32 PUBLIC 'CONST'
CONST	ENDS
;	COMDAT ?max_size@?$allocator@D@std@@QBEIXZ
_TEXT	SEGMENT PARA USE32 PUBLIC 'CODE'
_TEXT	ENDS
;	COMDAT ?allocate@?$allocator@D@std@@QAEPADI@Z
_TEXT	SEGMENT PARA USE32 PUBLIC 'CODE'
_TEXT	ENDS
;	COMDAT ??$_Allocate@D@std@@YAPADIPAD@Z
_TEXT	SEGMENT PARA USE32 PUBLIC 'CODE'
_TEXT	ENDS
;	COMDAT ?deallocate@?$allocator@D@std@@QAEXPADI@Z
_TEXT	SEGMENT PARA USE32 PUBLIC 'CODE'
_TEXT	ENDS
;	COMDAT ?Release@CStringData@ATL@@QAEXXZ
_TEXT	SEGMENT PARA USE32 PUBLIC 'CODE'
_TEXT	ENDS
;	COMDAT ?data@CStringData@ATL@@QAEPAXXZ
_TEXT	SEGMENT PARA USE32 PUBLIC 'CODE'
_TEXT	ENDS
;	COMDAT ?AtlThrow@ATL@@YGXJ@Z
_TEXT	SEGMENT PARA USE32 PUBLIC 'CODE'
_TEXT	ENDS
;	COMDAT ?IsShared@CStringData@ATL@@QBE_NXZ
_TEXT	SEGMENT PARA USE32 PUBLIC 'CODE'
_TEXT	ENDS
;	COMDAT ?_Peek@?$istreambuf_iterator@_WU?$char_traits@_W@std@@@std@@AAE_WXZ
_TEXT	SEGMENT PARA USE32 PUBLIC 'CODE'
_TEXT	ENDS
;	COMDAT ?_Peek@?$istreambuf_iterator@DU?$char_traits@D@std@@@std@@AAEDXZ
_TEXT	SEGMENT PARA USE32 PUBLIC 'CODE'
_TEXT	ENDS
;	COMDAT ??$use_facet@V?$ctype@_W@std@@@std@@YAABV?$ctype@_W@0@ABVlocale@0@@Z
_TEXT	SEGMENT PARA USE32 PUBLIC 'CODE'
_TEXT	ENDS
;	COMDAT ??_S?$ctype@_W@std@@6B@
CONST	SEGMENT DWORD USE32 PUBLIC 'CONST'
CONST	ENDS
;	COMDAT ??_R4?$ctype@_W@std@@6B@
rdata$r	SEGMENT DWORD USE32 PUBLIC 'CONST'
rdata$r	ENDS
;	COMDAT ??_R0?AV?$ctype@_W@std@@@8
_DATA	SEGMENT DWORD USE32 PUBLIC 'DATA'
_DATA	ENDS
;	COMDAT ??_R3?$ctype@_W@std@@8
rdata$r	SEGMENT DWORD USE32 PUBLIC 'CONST'
rdata$r	ENDS
;	COMDAT ??_R2?$ctype@_W@std@@8
rdata$r	SEGMENT DWORD USE32 PUBLIC 'CONST'
rdata$r	ENDS
;	COMDAT ??_R1A@?0A@A@?$ctype@_W@std@@8
rdata$r	SEGMENT DWORD USE32 PUBLIC 'CONST'
rdata$r	ENDS
;	COMDAT ??_R1A@?0A@A@ctype_base@std@@8
rdata$r	SEGMENT DWORD USE32 PUBLIC 'CONST'
rdata$r	ENDS
;	COMDAT ??_R0?AUctype_base@std@@@8
_DATA	SEGMENT DWORD USE32 PUBLIC 'DATA'
_DATA	ENDS
;	COMDAT ??_G?$ctype@_W@std@@MAEPAXI@Z
_TEXT	SEGMENT PARA USE32 PUBLIC 'CODE'
_TEXT	ENDS
;	COMDAT ??_C@_08EPJLHIJG@bad?5cast?$AA@
CONST	SEGMENT DWORD USE32 PUBLIC 'CONST'
CONST	ENDS
;	COMDAT __TI2?AVbad_cast@@
xdata$x	SEGMENT DWORD USE32 PUBLIC 'CONST'
xdata$x	ENDS
;	COMDAT __CTA2?AVbad_cast@@
xdata$x	SEGMENT DWORD USE32 PUBLIC 'CONST'
xdata$x	ENDS
;	COMDAT __CT??_R0?AVbad_cast@@@8??0bad_cast@@QAE@ABV0@@Z12
xdata$x	SEGMENT DWORD USE32 PUBLIC 'CONST'
xdata$x	ENDS
;	COMDAT ??_R0?AVbad_cast@@@8
_DATA	SEGMENT DWORD USE32 PUBLIC 'DATA'
_DATA	ENDS
;	COMDAT __CT??_R0?AVexception@@@8??0exception@@QAE@ABV0@@Z12
xdata$x	SEGMENT DWORD USE32 PUBLIC 'CONST'
xdata$x	ENDS
;	COMDAT ??_R0?AVexception@@@8
_DATA	SEGMENT DWORD USE32 PUBLIC 'DATA'
_DATA	ENDS
;	COMDAT ??$use_facet@V?$ctype@D@std@@@std@@YAABV?$ctype@D@0@ABVlocale@0@@Z
_TEXT	SEGMENT PARA USE32 PUBLIC 'CODE'
_TEXT	ENDS
;	COMDAT ??_S?$ctype@D@std@@6B@
CONST	SEGMENT DWORD USE32 PUBLIC 'CONST'
CONST	ENDS
;	COMDAT ??_R4?$ctype@D@std@@6B@
rdata$r	SEGMENT DWORD USE32 PUBLIC 'CONST'
rdata$r	ENDS
;	COMDAT ??_R0?AV?$ctype@D@std@@@8
_DATA	SEGMENT DWORD USE32 PUBLIC 'DATA'
_DATA	ENDS
;	COMDAT ??_R3?$ctype@D@std@@8
rdata$r	SEGMENT DWORD USE32 PUBLIC 'CONST'
rdata$r	ENDS
;	COMDAT ??_R2?$ctype@D@std@@8
rdata$r	SEGMENT DWORD USE32 PUBLIC 'CONST'
rdata$r	ENDS
;	COMDAT ??_R1A@?0A@A@?$ctype@D@std@@8
rdata$r	SEGMENT DWORD USE32 PUBLIC 'CONST'
rdata$r	ENDS
;	COMDAT ??_G?$ctype@D@std@@MAEPAXI@Z
_TEXT	SEGMENT PARA USE32 PUBLIC 'CODE'
_TEXT	ENDS
;	COMDAT ??_S?$numpunct@_W@std@@6B@
CONST	SEGMENT DWORD USE32 PUBLIC 'CONST'
CONST	ENDS
;	COMDAT ??_S?$numpunct@D@std@@6B@
CONST	SEGMENT DWORD USE32 PUBLIC 'CONST'
CONST	ENDS
;	COMDAT _wmemmove
_TEXT	SEGMENT PARA USE32 PUBLIC 'CODE'
_TEXT	ENDS
;	COMDAT ?deallocate@?$allocator@_W@std@@QAEXPA_WI@Z
_TEXT	SEGMENT PARA USE32 PUBLIC 'CODE'
_TEXT	ENDS
;	COMDAT ??0?$allocator@_W@std@@QAE@ABV01@@Z
_TEXT	SEGMENT PARA USE32 PUBLIC 'CODE'
_TEXT	ENDS
;	COMDAT ?OnLButtonUp@CWnd@@IAEXIVCPoint@@@Z
_TEXT	SEGMENT PARA USE32 PUBLIC 'CODE'
_TEXT	ENDS
;	COMDAT ?OnLButtonDown@CWnd@@IAEXIVCPoint@@@Z
_TEXT	SEGMENT PARA USE32 PUBLIC 'CODE'
_TEXT	ENDS
;	COMDAT ?OnMouseMove@CWnd@@IAEXIVCPoint@@@Z
_TEXT	SEGMENT PARA USE32 PUBLIC 'CODE'
_TEXT	ENDS
;	COMDAT ?PtInRect@CRect@@QBEHUtagPOINT@@@Z
_TEXT	SEGMENT PARA USE32 PUBLIC 'CODE'
_TEXT	ENDS
;	COMDAT ?GetWindowRect@CWnd@@QBEXPAUtagRECT@@@Z
_TEXT	SEGMENT PARA USE32 PUBLIC 'CODE'
_TEXT	ENDS
;	COMDAT ?SetCapture@CWnd@@QAEPAV1@XZ
_TEXT	SEGMENT PARA USE32 PUBLIC 'CODE'
_TEXT	ENDS
;	COMDAT ??0?$allocator@D@std@@QAE@ABV01@@Z
_TEXT	SEGMENT PARA USE32 PUBLIC 'CODE'
_TEXT	ENDS
;	COMDAT ??0?$allocator@D@std@@QAE@XZ
_TEXT	SEGMENT PARA USE32 PUBLIC 'CODE'
_TEXT	ENDS
;	COMDAT ?GetSafeHwnd@CWnd@@QBEPAUHWND__@@XZ
_TEXT	SEGMENT PARA USE32 PUBLIC 'CODE'
_TEXT	ENDS
;	COMDAT ?InvalidateRect@CWnd@@QAEXPBUtagRECT@@H@Z
_TEXT	SEGMENT PARA USE32 PUBLIC 'CODE'
_TEXT	ENDS
;	COMDAT ?GetParent@CWnd@@QBEPAV1@XZ
_TEXT	SEGMENT PARA USE32 PUBLIC 'CODE'
_TEXT	ENDS
;	COMDAT ??BCRect@@QAEPAUtagRECT@@XZ
_TEXT	SEGMENT PARA USE32 PUBLIC 'CODE'
_TEXT	ENDS
;	COMDAT ?GetClientRect@CWnd@@QBEXPAUtagRECT@@@Z
_TEXT	SEGMENT PARA USE32 PUBLIC 'CODE'
_TEXT	ENDS
;	COMDAT ??0CRect@@QAE@XZ
_TEXT	SEGMENT PARA USE32 PUBLIC 'CODE'
_TEXT	ENDS
;	COMDAT ?IsLocked@CStringData@ATL@@QBE_NXZ
_TEXT	SEGMENT PARA USE32 PUBLIC 'CODE'
_TEXT	ENDS
;	COMDAT ?AddRef@CStringData@ATL@@QAEXXZ
_TEXT	SEGMENT PARA USE32 PUBLIC 'CODE'
_TEXT	ENDS
;	COMDAT ?_messageEntries@CStaticText@@0QBUAFX_MSGMAP_ENTRY@@B
CONST	SEGMENT DWORD USE32 PUBLIC 'CONST'
CONST	ENDS
;	COMDAT ?messageMap@CStaticText@@1UAFX_MSGMAP@@B
CONST	SEGMENT DWORD USE32 PUBLIC 'CONST'
CONST	ENDS
;	COMDAT ??3CObject@@SGXPAX@Z
_TEXT	SEGMENT PARA USE32 PUBLIC 'CODE'
_TEXT	ENDS
;	COMDAT ?GetDefaultManager@?$StrTraitMFC_DLL@DV?$ChTraitsCRT@D@ATL@@@@SAPAUIAtlStringMgr@ATL@@XZ
_TEXT	SEGMENT PARA USE32 PUBLIC 'CODE'
_TEXT	ENDS
;	COMDAT ??_7CStaticText@@6B@
CONST	SEGMENT DWORD USE32 PUBLIC 'CONST'
CONST	ENDS
;	COMDAT ??0CStatic@@QAE@XZ
_TEXT	SEGMENT PARA USE32 PUBLIC 'CODE'
_TEXT	ENDS
;	COMDAT ??_7CStatic@@6B@
CONST	SEGMENT DWORD USE32 PUBLIC 'CONST'
CONST	ENDS
;	COMDAT ??_R4CStatic@@6B@
rdata$r	SEGMENT DWORD USE32 PUBLIC 'CONST'
rdata$r	ENDS
;	COMDAT ??_R3CStatic@@8
rdata$r	SEGMENT DWORD USE32 PUBLIC 'CONST'
rdata$r	ENDS
;	COMDAT ??_R2CStatic@@8
rdata$r	SEGMENT DWORD USE32 PUBLIC 'CONST'
rdata$r	ENDS
;	COMDAT ??_GCStatic@@UAEPAXI@Z
_TEXT	SEGMENT PARA USE32 PUBLIC 'CODE'
_TEXT	ENDS
;	COMDAT ??_7DIBINFO@@6B@
CONST	SEGMENT DWORD USE32 PUBLIC 'CONST'
CONST	ENDS
sxdata	SEGMENT DWORD USE32 'SXDATA'
sxdata	ENDS
FLAT	GROUP _DATA, CONST, _BSS
	ASSUME	CS: FLAT, DS: FLAT, SS: FLAT
endif

INCLUDELIB MSVCRT
INCLUDELIB OLDNAMES

PUBLIC	?OnEraseBkgnd@CStaticText@@IAEHPAVCDC@@@Z	; CStaticText::OnEraseBkgnd
PUBLIC	?CtlColor@CStaticText@@IAEPAUHBRUSH__@@PAVCDC@@I@Z ; CStaticText::CtlColor
PUBLIC	?OnMouseMove@CStaticText@@IAEXIVCPoint@@@Z	; CStaticText::OnMouseMove
PUBLIC	?OnLButtonDown@CStaticText@@IAEXIVCPoint@@@Z	; CStaticText::OnLButtonDown
PUBLIC	?OnLButtonUp@CStaticText@@IAEXIVCPoint@@@Z	; CStaticText::OnLButtonUp
PUBLIC	?_messageEntries@CStaticText@@0QBUAFX_MSGMAP_ENTRY@@B ; CStaticText::_messageEntries
PUBLIC	?messageMap@CStaticText@@1UAFX_MSGMAP@@B	; CStaticText::messageMap
PUBLIC	?OnSetText@CStaticText@@QAEJIJ@Z		; CStaticText::OnSetText
EXTRN	?GetThisMessageMap@CWnd@@KGPBUAFX_MSGMAP@@XZ:NEAR ; CWnd::GetThisMessageMap
CONST	SEGMENT
$SG197689 DB	00H
$SG197690 DB	00H
$SG197691 DB	00H
CONST	ENDS
;	COMDAT ?_messageEntries@CStaticText@@0QBUAFX_MSGMAP_ENTRY@@B
CONST	SEGMENT
?_messageEntries@CStaticText@@0QBUAFX_MSGMAP_ENTRY@@B DD 0bc19H ; CStaticText::_messageEntries
	DD	00H
	DD	00H
	DD	00H
	DD	09H
	DD	FLAT:?CtlColor@CStaticText@@IAEPAUHBRUSH__@@PAVCDC@@I@Z
	DD	0cH
	DD	00H
	DD	00H
	DD	00H
	DD	0eH
	DD	FLAT:?OnSetText@CStaticText@@QAEJIJ@Z
	DD	014H
	DD	00H
	DD	00H
	DD	00H
	DD	01H
	DD	FLAT:?OnEraseBkgnd@CStaticText@@IAEHPAVCDC@@@Z
	DD	0200H
	DD	00H
	DD	00H
	DD	00H
	DD	032H
	DD	FLAT:?OnMouseMove@CStaticText@@IAEXIVCPoint@@@Z
	DD	0201H
	DD	00H
	DD	00H
	DD	00H
	DD	032H
	DD	FLAT:?OnLButtonDown@CStaticText@@IAEXIVCPoint@@@Z
	DD	0202H
	DD	00H
	DD	00H
	DD	00H
	DD	032H
	DD	FLAT:?OnLButtonUp@CStaticText@@IAEXIVCPoint@@@Z
	DD	00H
	DD	00H
	DD	00H
	DD	00H
	DD	00H
	DD	00H
CONST	ENDS
;	COMDAT ?messageMap@CStaticText@@1UAFX_MSGMAP@@B
CONST	SEGMENT
?messageMap@CStaticText@@1UAFX_MSGMAP@@B DD FLAT:?GetThisMessageMap@CWnd@@KGPBUAFX_MSGMAP@@XZ ; CStaticText::messageMap
	DD	FLAT:?_messageEntries@CStaticText@@0QBUAFX_MSGMAP_ENTRY@@B
CONST	ENDS
CONST	SEGMENT
	ORG $+1
$SG197749 DB	'http', 00H
	ORG $+3
$SG197752 DB	'@', 00H
	ORG $+2
$SG197754 DB	'mailto:', 00H
$SG197756 DB	00H
	ORG $+3
$SG197970 DB	'open', 00H
CONST	ENDS
PUBLIC	??_R1A@?0A@A@CObject@@8				; CObject::`RTTI Base Class Descriptor at (0,-1,0,0)'
PUBLIC	??_R0?AVCObject@@@8				; CObject `RTTI Type Descriptor'
PUBLIC	??0CStatic@@QAE@XZ				; CStatic::CStatic
PUBLIC	??_R1A@?0A@A@CWnd@@8				; CWnd::`RTTI Base Class Descriptor at (0,-1,0,0)'
PUBLIC	??_R0?AVCWnd@@@8				; CWnd `RTTI Type Descriptor'
PUBLIC	??_R1A@?0A@A@CCmdTarget@@8			; CCmdTarget::`RTTI Base Class Descriptor at (0,-1,0,0)'
PUBLIC	??_R0?AVCCmdTarget@@@8				; CCmdTarget `RTTI Type Descriptor'
PUBLIC	?Serialize@CObject@@UAEXAAVCArchive@@@Z		; CObject::Serialize
PUBLIC	?AssertValid@CObject@@UBEXXZ			; CObject::AssertValid
PUBLIC	?Dump@CObject@@UBEXAAVCDumpContext@@@Z		; CObject::Dump
PUBLIC	??_R0?AVCStatic@@@8				; CStatic `RTTI Type Descriptor'
PUBLIC	??_R1A@?0A@A@CStatic@@8				; CStatic::`RTTI Base Class Descriptor at (0,-1,0,0)'
PUBLIC	??_R4CStaticText@@6B@				; CStaticText::`RTTI Complete Object Locator'
PUBLIC	??_R0?AVCStaticText@@@8				; CStaticText `RTTI Type Descriptor'
PUBLIC	??_R3CStaticText@@8				; CStaticText::`RTTI Class Hierarchy Descriptor'
PUBLIC	??_R2CStaticText@@8				; CStaticText::`RTTI Base Class Array'
PUBLIC	??_R1A@?0A@A@CStaticText@@8			; CStaticText::`RTTI Base Class Descriptor at (0,-1,0,0)'
PUBLIC	?PreSubclassWindow@CStaticText@@MAEXXZ		; CStaticText::PreSubclassWindow
PUBLIC	?GetMessageMap@CStaticText@@MBEPBUAFX_MSGMAP@@XZ ; CStaticText::GetMessageMap
PUBLIC	??0CStaticText@@QAE@XZ				; CStaticText::CStaticText
PUBLIC	??_7CStaticText@@6B@				; CStaticText::`vftable'
PUBLIC	??_GCStaticText@@UAEPAXI@Z			; CStaticText::`scalar deleting destructor'
PUBLIC	?DoDataExchange@CWnd@@MAEXPAVCDataExchange@@@Z	; CWnd::DoDataExchange
PUBLIC	?BeginModalState@CWnd@@UAEXXZ			; CWnd::BeginModalState
PUBLIC	?EndModalState@CWnd@@UAEXXZ			; CWnd::EndModalState
EXTRN	?CreateControlContainer@CWnd@@MAEHPAPAVCOleControlContainer@@@Z:NEAR ; CWnd::CreateControlContainer
EXTRN	?CreateControlSite@CWnd@@MAEHPAVCOleControlContainer@@PAPAVCOleControlSite@@IABU_GUID@@@Z:NEAR ; CWnd::CreateControlSite
EXTRN	?SetOccDialogInfo@CWnd@@MAEHPAU_AFX_OCC_DIALOG_INFO@@@Z:NEAR ; CWnd::SetOccDialogInfo
EXTRN	?OnToolHitTest@CWnd@@UBEHVCPoint@@PAUtagTOOLINFOA@@@Z:NEAR ; CWnd::OnToolHitTest
EXTRN	__imp_??0?$CStringT@DV?$StrTraitMFC_DLL@DV?$ChTraitsCRT@D@ATL@@@@@ATL@@QAE@XZ:NEAR
EXTRN	?GetRuntimeClass@CStatic@@UBEPAUCRuntimeClass@@XZ:NEAR ; CStatic::GetRuntimeClass
EXTRN	?Create@CStatic@@UAEHPBDKABUtagRECT@@PAVCWnd@@I@Z:NEAR ; CStatic::Create
EXTRN	?GetScrollBarCtrl@CWnd@@UBEPAVCScrollBar@@H@Z:NEAR ; CWnd::GetScrollBarCtrl
EXTRN	?DrawItem@CStatic@@UAEXPAUtagDRAWITEMSTRUCT@@@Z:NEAR ; CStatic::DrawItem
EXTRN	??1CStatic@@UAE@XZ:NEAR				; CStatic::~CStatic
EXTRN	__imp_??1?$CStringT@DV?$StrTraitMFC_DLL@DV?$ChTraitsCRT@D@ATL@@@@@ATL@@QAE@XZ:NEAR
EXTRN	?OnChildNotify@CStatic@@MAEHIIJPAJ@Z:NEAR	; CStatic::OnChildNotify
EXTRN	__imp_??4?$CStringT@DV?$StrTraitMFC_DLL@DV?$ChTraitsCRT@D@ATL@@@@@ATL@@QAEAAV01@PBD@Z:NEAR
EXTRN	?WinHelpA@CWnd@@UAEXKI@Z:NEAR			; CWnd::WinHelpA
EXTRN	?HtmlHelpA@CWnd@@UAEXKI@Z:NEAR			; CWnd::HtmlHelpA
EXTRN	?WinHelpInternal@CWnd@@UAEXKI@Z:NEAR		; CWnd::WinHelpInternal
EXTRN	?ContinueModal@CWnd@@UAEHXZ:NEAR		; CWnd::ContinueModal
EXTRN	?EndModalLoop@CWnd@@UAEXH@Z:NEAR		; CWnd::EndModalLoop
EXTRN	?GetInterfaceMap@CWnd@@MBEPBUAFX_INTERFACEMAP@@XZ:NEAR ; CWnd::GetInterfaceMap
EXTRN	?EnsureStdObj@CWnd@@UAEJXZ:NEAR			; CWnd::EnsureStdObj
EXTRN	?get_accParent@CWnd@@UAEJPAPAUIDispatch@@@Z:NEAR ; CWnd::get_accParent
EXTRN	?get_accChildCount@CWnd@@UAEJPAJ@Z:NEAR		; CWnd::get_accChildCount
EXTRN	?OnCmdMsg@CCmdTarget@@UAEHIHPAXPAUAFX_CMDHANDLERINFO@@@Z:NEAR ; CCmdTarget::OnCmdMsg
EXTRN	?get_accChild@CWnd@@UAEJUtagVARIANT@@PAPAUIDispatch@@@Z:NEAR ; CWnd::get_accChild
EXTRN	?IsInvokeAllowed@CCmdTarget@@UAEHJ@Z:NEAR	; CCmdTarget::IsInvokeAllowed
EXTRN	?get_accName@CWnd@@UAEJUtagVARIANT@@PAPA_W@Z:NEAR ; CWnd::get_accName
EXTRN	?get_accValue@CWnd@@UAEJUtagVARIANT@@PAPA_W@Z:NEAR ; CWnd::get_accValue
EXTRN	?get_accDescription@CWnd@@UAEJUtagVARIANT@@PAPA_W@Z:NEAR ; CWnd::get_accDescription
EXTRN	?GetDispatchIID@CCmdTarget@@UAEHPAU_GUID@@@Z:NEAR ; CCmdTarget::GetDispatchIID
EXTRN	?GetTypeInfoCount@CCmdTarget@@UAEIXZ:NEAR	; CCmdTarget::GetTypeInfoCount
EXTRN	?GetTypeLibCache@CCmdTarget@@UAEPAVCTypeLibCache@@XZ:NEAR ; CCmdTarget::GetTypeLibCache
EXTRN	?get_accRole@CWnd@@UAEJUtagVARIANT@@PAU2@@Z:NEAR ; CWnd::get_accRole
EXTRN	?GetTypeLib@CCmdTarget@@UAEJKPAPAUITypeLib@@@Z:NEAR ; CCmdTarget::GetTypeLib
EXTRN	?get_accState@CWnd@@UAEJUtagVARIANT@@PAU2@@Z:NEAR ; CWnd::get_accState
EXTRN	?get_accHelp@CWnd@@UAEJUtagVARIANT@@PAPA_W@Z:NEAR ; CWnd::get_accHelp
EXTRN	?get_accHelpTopic@CWnd@@UAEJPAPA_WUtagVARIANT@@PAJ@Z:NEAR ; CWnd::get_accHelpTopic
EXTRN	?get_accKeyboardShortcut@CWnd@@UAEJUtagVARIANT@@PAPA_W@Z:NEAR ; CWnd::get_accKeyboardShortcut
EXTRN	?get_accFocus@CWnd@@UAEJPAUtagVARIANT@@@Z:NEAR	; CWnd::get_accFocus
EXTRN	?get_accSelection@CWnd@@UAEJPAUtagVARIANT@@@Z:NEAR ; CWnd::get_accSelection
EXTRN	?get_accDefaultAction@CWnd@@UAEJUtagVARIANT@@PAPA_W@Z:NEAR ; CWnd::get_accDefaultAction
EXTRN	?GetCommandMap@CCmdTarget@@MBEPBUAFX_OLECMDMAP@@XZ:NEAR ; CCmdTarget::GetCommandMap
EXTRN	?accSelect@CWnd@@UAEJJUtagVARIANT@@@Z:NEAR	; CWnd::accSelect
EXTRN	?accLocation@CWnd@@UAEJPAJ000UtagVARIANT@@@Z:NEAR ; CWnd::accLocation
EXTRN	?GetDispatchMap@CCmdTarget@@MBEPBUAFX_DISPMAP@@XZ:NEAR ; CCmdTarget::GetDispatchMap
EXTRN	?accNavigate@CWnd@@UAEJJUtagVARIANT@@PAU2@@Z:NEAR ; CWnd::accNavigate
EXTRN	?accHitTest@CWnd@@UAEJJJPAUtagVARIANT@@@Z:NEAR	; CWnd::accHitTest
EXTRN	?GetConnectionMap@CCmdTarget@@MBEPBUAFX_CONNECTIONMAP@@XZ:NEAR ; CCmdTarget::GetConnectionMap
EXTRN	?accDoDefaultAction@CWnd@@UAEJUtagVARIANT@@@Z:NEAR ; CWnd::accDoDefaultAction
EXTRN	?put_accName@CWnd@@UAEJUtagVARIANT@@PA_W@Z:NEAR	; CWnd::put_accName
EXTRN	?put_accValue@CWnd@@UAEJUtagVARIANT@@PA_W@Z:NEAR ; CWnd::put_accValue
EXTRN	?SetProxy@CWnd@@UAEJPAUIAccessibleProxy@@@Z:NEAR ; CWnd::SetProxy
EXTRN	?CreateAccessibleProxy@CWnd@@UAEJIJPAJ@Z:NEAR	; CWnd::CreateAccessibleProxy
EXTRN	?GetEventSinkMap@CCmdTarget@@MBEPBUAFX_EVENTSINKMAP@@XZ:NEAR ; CCmdTarget::GetEventSinkMap
EXTRN	?OnCreateAggregates@CCmdTarget@@UAEHXZ:NEAR	; CCmdTarget::OnCreateAggregates
EXTRN	?OnCommand@CWnd@@MAEHIJ@Z:NEAR			; CWnd::OnCommand
EXTRN	?GetInterfaceHook@CCmdTarget@@UAEPAUIUnknown@@PBX@Z:NEAR ; CCmdTarget::GetInterfaceHook
EXTRN	?OnNotify@CWnd@@MAEHIJPAJ@Z:NEAR		; CWnd::OnNotify
EXTRN	?GetExtraConnectionPoints@CCmdTarget@@MAEHPAVCPtrArray@@@Z:NEAR ; CCmdTarget::GetExtraConnectionPoints
EXTRN	?GetConnectionHook@CCmdTarget@@MAEPAUIConnectionPoint@@ABU_GUID@@@Z:NEAR ; CCmdTarget::GetConnectionHook
EXTRN	?Create@CWnd@@UAEHPBD0KABUtagRECT@@PAV1@IPAUCCreateContext@@@Z:NEAR ; CWnd::Create
EXTRN	??_ECStaticText@@UAEPAXI@Z:NEAR			; CStaticText::`vector deleting destructor'
EXTRN	?CreateEx@CWnd@@UAEHKPBD0KHHHHPAUHWND__@@PAUHMENU__@@PAX@Z:NEAR ; CWnd::CreateEx
EXTRN	?CreateEx@CWnd@@UAEHKPBD0KABUtagRECT@@PAV1@IPAX@Z:NEAR ; CWnd::CreateEx
EXTRN	__except_list:DWORD
EXTRN	___CxxFrameHandler:NEAR
EXTRN	?DestroyWindow@CWnd@@UAEHXZ:NEAR		; CWnd::DestroyWindow
EXTRN	?PreCreateWindow@CWnd@@UAEHAAUtagCREATESTRUCTA@@@Z:NEAR ; CWnd::PreCreateWindow
EXTRN	?CalcWindowRect@CWnd@@UAEXPAUtagRECT@@I@Z:NEAR	; CWnd::CalcWindowRect
EXTRN	?GetSuperWndProcAddr@CWnd@@MAEPAP6GJPAUHWND__@@IIJ@ZXZ:NEAR ; CWnd::GetSuperWndProcAddr
EXTRN	??_7type_info@@6B@:QWORD			; type_info::`vftable'
EXTRN	?PreTranslateMessage@CWnd@@UAEHPAUtagMSG@@@Z:NEAR ; CWnd::PreTranslateMessage
EXTRN	?OnAmbientProperty@CWnd@@UAEHPAVCOleControlSite@@JPAUtagVARIANT@@@Z:NEAR ; CWnd::OnAmbientProperty
EXTRN	?WindowProc@CWnd@@MAEJIIJ@Z:NEAR		; CWnd::WindowProc
EXTRN	?OnWndMsg@CWnd@@MAEHIIJPAJ@Z:NEAR		; CWnd::OnWndMsg
EXTRN	?DefWindowProcA@CWnd@@MAEJIIJ@Z:NEAR		; CWnd::DefWindowProcA
EXTRN	?PostNcDestroy@CWnd@@MAEXXZ:NEAR		; CWnd::PostNcDestroy
EXTRN	?CheckAutoCenter@CWnd@@UAEHXZ:NEAR		; CWnd::CheckAutoCenter
EXTRN	?IsFrameWnd@CWnd@@UBEHXZ:NEAR			; CWnd::IsFrameWnd
EXTRN	?OnFinalRelease@CWnd@@UAEXXZ:NEAR		; CWnd::OnFinalRelease
xdata$x	SEGMENT
$T198539 DD	0ffffffffH
	DD	FLAT:$L198529
	DD	00H
	DD	FLAT:$L198530
	DD	01H
	DD	FLAT:$L198531
	DD	02H
	DD	FLAT:$L198532
$T198536 DD	019930520H
	DD	04H
	DD	FLAT:$T198539
	DD	2 DUP(00H)
	DD	2 DUP(00H)
xdata$x	ENDS
;	COMDAT ??_7CStaticText@@6B@
; File d:\boxgit\playbox\playbox\dev\prj\playbox\src\layoutmgr\changecolor\statictextex.cpp
CONST	SEGMENT
??_7CStaticText@@6B@ DD FLAT:??_R4CStaticText@@6B@	; CStaticText::`vftable'
	DD	FLAT:?GetRuntimeClass@CStatic@@UBEPAUCRuntimeClass@@XZ
	DD	FLAT:??_ECStaticText@@UAEPAXI@Z
	DD	FLAT:?Serialize@CObject@@UAEXAAVCArchive@@@Z
	DD	FLAT:?AssertValid@CObject@@UBEXXZ
	DD	FLAT:?Dump@CObject@@UBEXAAVCDumpContext@@@Z
	DD	FLAT:?OnCmdMsg@CCmdTarget@@UAEHIHPAXPAUAFX_CMDHANDLERINFO@@@Z
	DD	FLAT:?OnFinalRelease@CWnd@@UAEXXZ
	DD	FLAT:?IsInvokeAllowed@CCmdTarget@@UAEHJ@Z
	DD	FLAT:?GetDispatchIID@CCmdTarget@@UAEHPAU_GUID@@@Z
	DD	FLAT:?GetTypeInfoCount@CCmdTarget@@UAEIXZ
	DD	FLAT:?GetTypeLibCache@CCmdTarget@@UAEPAVCTypeLibCache@@XZ
	DD	FLAT:?GetTypeLib@CCmdTarget@@UAEJKPAPAUITypeLib@@@Z
	DD	FLAT:?GetMessageMap@CStaticText@@MBEPBUAFX_MSGMAP@@XZ
	DD	FLAT:?GetCommandMap@CCmdTarget@@MBEPBUAFX_OLECMDMAP@@XZ
	DD	FLAT:?GetDispatchMap@CCmdTarget@@MBEPBUAFX_DISPMAP@@XZ
	DD	FLAT:?GetConnectionMap@CCmdTarget@@MBEPBUAFX_CONNECTIONMAP@@XZ
	DD	FLAT:?GetInterfaceMap@CWnd@@MBEPBUAFX_INTERFACEMAP@@XZ
	DD	FLAT:?GetEventSinkMap@CCmdTarget@@MBEPBUAFX_EVENTSINKMAP@@XZ
	DD	FLAT:?OnCreateAggregates@CCmdTarget@@UAEHXZ
	DD	FLAT:?GetInterfaceHook@CCmdTarget@@UAEPAUIUnknown@@PBX@Z
	DD	FLAT:?GetExtraConnectionPoints@CCmdTarget@@MAEHPAVCPtrArray@@@Z
	DD	FLAT:?GetConnectionHook@CCmdTarget@@MAEPAUIConnectionPoint@@ABU_GUID@@@Z
	DD	FLAT:?PreSubclassWindow@CStaticText@@MAEXXZ
	DD	FLAT:?Create@CWnd@@UAEHPBD0KABUtagRECT@@PAV1@IPAUCCreateContext@@@Z
	DD	FLAT:?CreateEx@CWnd@@UAEHKPBD0KABUtagRECT@@PAV1@IPAX@Z
	DD	FLAT:?CreateEx@CWnd@@UAEHKPBD0KHHHHPAUHWND__@@PAUHMENU__@@PAX@Z
	DD	FLAT:?DestroyWindow@CWnd@@UAEHXZ
	DD	FLAT:?PreCreateWindow@CWnd@@UAEHAAUtagCREATESTRUCTA@@@Z
	DD	FLAT:?CalcWindowRect@CWnd@@UAEXPAUtagRECT@@I@Z
	DD	FLAT:?OnToolHitTest@CWnd@@UBEHVCPoint@@PAUtagTOOLINFOA@@@Z
	DD	FLAT:?GetScrollBarCtrl@CWnd@@UBEPAVCScrollBar@@H@Z
	DD	FLAT:?WinHelpA@CWnd@@UAEXKI@Z
	DD	FLAT:?HtmlHelpA@CWnd@@UAEXKI@Z
	DD	FLAT:?WinHelpInternal@CWnd@@UAEXKI@Z
	DD	FLAT:?ContinueModal@CWnd@@UAEHXZ
	DD	FLAT:?EndModalLoop@CWnd@@UAEXH@Z
	DD	FLAT:?EnsureStdObj@CWnd@@UAEJXZ
	DD	FLAT:?get_accParent@CWnd@@UAEJPAPAUIDispatch@@@Z
	DD	FLAT:?get_accChildCount@CWnd@@UAEJPAJ@Z
	DD	FLAT:?get_accChild@CWnd@@UAEJUtagVARIANT@@PAPAUIDispatch@@@Z
	DD	FLAT:?get_accName@CWnd@@UAEJUtagVARIANT@@PAPA_W@Z
	DD	FLAT:?get_accValue@CWnd@@UAEJUtagVARIANT@@PAPA_W@Z
	DD	FLAT:?get_accDescription@CWnd@@UAEJUtagVARIANT@@PAPA_W@Z
	DD	FLAT:?get_accRole@CWnd@@UAEJUtagVARIANT@@PAU2@@Z
	DD	FLAT:?get_accState@CWnd@@UAEJUtagVARIANT@@PAU2@@Z
	DD	FLAT:?get_accHelp@CWnd@@UAEJUtagVARIANT@@PAPA_W@Z
	DD	FLAT:?get_accHelpTopic@CWnd@@UAEJPAPA_WUtagVARIANT@@PAJ@Z
	DD	FLAT:?get_accKeyboardShortcut@CWnd@@UAEJUtagVARIANT@@PAPA_W@Z
	DD	FLAT:?get_accFocus@CWnd@@UAEJPAUtagVARIANT@@@Z
	DD	FLAT:?get_accSelection@CWnd@@UAEJPAUtagVARIANT@@@Z
	DD	FLAT:?get_accDefaultAction@CWnd@@UAEJUtagVARIANT@@PAPA_W@Z
	DD	FLAT:?accSelect@CWnd@@UAEJJUtagVARIANT@@@Z
	DD	FLAT:?accLocation@CWnd@@UAEJPAJ000UtagVARIANT@@@Z
	DD	FLAT:?accNavigate@CWnd@@UAEJJUtagVARIANT@@PAU2@@Z
	DD	FLAT:?accHitTest@CWnd@@UAEJJJPAUtagVARIANT@@@Z
	DD	FLAT:?accDoDefaultAction@CWnd@@UAEJUtagVARIANT@@@Z
	DD	FLAT:?put_accName@CWnd@@UAEJUtagVARIANT@@PA_W@Z
	DD	FLAT:?put_accValue@CWnd@@UAEJUtagVARIANT@@PA_W@Z
	DD	FLAT:?SetProxy@CWnd@@UAEJPAUIAccessibleProxy@@@Z
	DD	FLAT:?CreateAccessibleProxy@CWnd@@UAEJIJPAJ@Z
	DD	FLAT:?OnCommand@CWnd@@MAEHIJ@Z
	DD	FLAT:?OnNotify@CWnd@@MAEHIJPAJ@Z
	DD	FLAT:?GetSuperWndProcAddr@CWnd@@MAEPAP6GJPAUHWND__@@IIJ@ZXZ
	DD	FLAT:?DoDataExchange@CWnd@@MAEXPAVCDataExchange@@@Z
	DD	FLAT:?BeginModalState@CWnd@@UAEXXZ
	DD	FLAT:?EndModalState@CWnd@@UAEXXZ
	DD	FLAT:?PreTranslateMessage@CWnd@@UAEHPAUtagMSG@@@Z
	DD	FLAT:?OnAmbientProperty@CWnd@@UAEHPAVCOleControlSite@@JPAUtagVARIANT@@@Z
	DD	FLAT:?WindowProc@CWnd@@MAEJIIJ@Z
	DD	FLAT:?OnWndMsg@CWnd@@MAEHIIJPAJ@Z
	DD	FLAT:?DefWindowProcA@CWnd@@MAEJIIJ@Z
	DD	FLAT:?PostNcDestroy@CWnd@@MAEXXZ
	DD	FLAT:?OnChildNotify@CStatic@@MAEHIIJPAJ@Z
	DD	FLAT:?CheckAutoCenter@CWnd@@UAEHXZ
	DD	FLAT:?IsFrameWnd@CWnd@@UBEHXZ
	DD	FLAT:?CreateControlContainer@CWnd@@MAEHPAPAVCOleControlContainer@@@Z
	DD	FLAT:?CreateControlSite@CWnd@@MAEHPAVCOleControlContainer@@PAPAVCOleControlSite@@IABU_GUID@@@Z
	DD	FLAT:?SetOccDialogInfo@CWnd@@MAEHPAU_AFX_OCC_DIALOG_INFO@@@Z
	DD	FLAT:?Create@CStatic@@UAEHPBDKABUtagRECT@@PAVCWnd@@I@Z
	DD	FLAT:?DrawItem@CStatic@@UAEXPAUtagDRAWITEMSTRUCT@@@Z
CONST	ENDS
;	COMDAT ??_R4CStaticText@@6B@
rdata$r	SEGMENT
??_R4CStaticText@@6B@ DD 00H				; CStaticText::`RTTI Complete Object Locator'
	DD	00H
	DD	00H
	DD	FLAT:??_R0?AVCStaticText@@@8
	DD	FLAT:??_R3CStaticText@@8
rdata$r	ENDS
;	COMDAT ??_R0?AVCStaticText@@@8
_DATA	SEGMENT
??_R0?AVCStaticText@@@8 DD FLAT:??_7type_info@@6B@	; CStaticText `RTTI Type Descriptor'
	DD	00H
	DB	'.?AVCStaticText@@', 00H
_DATA	ENDS
;	COMDAT ??_R3CStaticText@@8
rdata$r	SEGMENT
??_R3CStaticText@@8 DD 00H				; CStaticText::`RTTI Class Hierarchy Descriptor'
	DD	00H
	DD	05H
	DD	FLAT:??_R2CStaticText@@8
rdata$r	ENDS
;	COMDAT ??_R2CStaticText@@8
rdata$r	SEGMENT
??_R2CStaticText@@8 DD FLAT:??_R1A@?0A@A@CStaticText@@8	; CStaticText::`RTTI Base Class Array'
	DD	FLAT:??_R1A@?0A@A@CStatic@@8
	DD	FLAT:??_R1A@?0A@A@CWnd@@8
	DD	FLAT:??_R1A@?0A@A@CCmdTarget@@8
	DD	FLAT:??_R1A@?0A@A@CObject@@8
rdata$r	ENDS
;	COMDAT ??_R1A@?0A@A@CStaticText@@8
rdata$r	SEGMENT
??_R1A@?0A@A@CStaticText@@8 DD FLAT:??_R0?AVCStaticText@@@8 ; CStaticText::`RTTI Base Class Descriptor at (0,-1,0,0)'
	DD	04H
	DD	00H
	DD	0ffffffffH
	DD	00H
	DD	00H
rdata$r	ENDS
;	COMDAT ??_R1A@?0A@A@CStatic@@8
rdata$r	SEGMENT
??_R1A@?0A@A@CStatic@@8 DD FLAT:??_R0?AVCStatic@@@8	; CStatic::`RTTI Base Class Descriptor at (0,-1,0,0)'
	DD	03H
	DD	00H
	DD	0ffffffffH
	DD	00H
	DD	00H
rdata$r	ENDS
;	COMDAT ??_R0?AVCStatic@@@8
_DATA	SEGMENT
??_R0?AVCStatic@@@8 DD FLAT:??_7type_info@@6B@		; CStatic `RTTI Type Descriptor'
	DD	00H
	DB	'.?AVCStatic@@', 00H
_DATA	ENDS
;	COMDAT ??_R1A@?0A@A@CWnd@@8
rdata$r	SEGMENT
??_R1A@?0A@A@CWnd@@8 DD FLAT:??_R0?AVCWnd@@@8		; CWnd::`RTTI Base Class Descriptor at (0,-1,0,0)'
	DD	02H
	DD	00H
	DD	0ffffffffH
	DD	00H
	DD	00H
rdata$r	ENDS
;	COMDAT ??_R0?AVCWnd@@@8
_DATA	SEGMENT
??_R0?AVCWnd@@@8 DD FLAT:??_7type_info@@6B@		; CWnd `RTTI Type Descriptor'
	DD	00H
	DB	'.?AVCWnd@@', 00H
_DATA	ENDS
;	COMDAT ??_R1A@?0A@A@CCmdTarget@@8
rdata$r	SEGMENT
??_R1A@?0A@A@CCmdTarget@@8 DD FLAT:??_R0?AVCCmdTarget@@@8 ; CCmdTarget::`RTTI Base Class Descriptor at (0,-1,0,0)'
	DD	01H
	DD	00H
	DD	0ffffffffH
	DD	00H
	DD	00H
rdata$r	ENDS
;	COMDAT ??_R0?AVCCmdTarget@@@8
_DATA	SEGMENT
??_R0?AVCCmdTarget@@@8 DD FLAT:??_7type_info@@6B@	; CCmdTarget `RTTI Type Descriptor'
	DD	00H
	DB	'.?AVCCmdTarget@@', 00H
_DATA	ENDS
;	COMDAT ??_R1A@?0A@A@CObject@@8
rdata$r	SEGMENT
??_R1A@?0A@A@CObject@@8 DD FLAT:??_R0?AVCObject@@@8	; CObject::`RTTI Base Class Descriptor at (0,-1,0,0)'
	DD	00H
	DD	00H
	DD	0ffffffffH
	DD	00H
	DD	00H
rdata$r	ENDS
;	COMDAT ??_R0?AVCObject@@@8
_DATA	SEGMENT
??_R0?AVCObject@@@8 DD FLAT:??_7type_info@@6B@		; CObject `RTTI Type Descriptor'
	DD	00H
	DB	'.?AVCObject@@', 00H
; Function compile flags: /Odt
_DATA	ENDS
_TEXT	SEGMENT
_this$ = -16						; size = 4
__$EHRec$ = -12						; size = 12
??0CStaticText@@QAE@XZ PROC NEAR			; CStaticText::CStaticText
; _this$ = ecx

; 12   : {

  00000	55		 push	 ebp
  00001	8b ec		 mov	 ebp, esp
  00003	6a ff		 push	 -1
  00005	68 00 00 00 00	 push	 __ehhandler$??0CStaticText@@QAE@XZ
  0000a	64 a1 00 00 00
	00		 mov	 eax, DWORD PTR fs:__except_list
  00010	50		 push	 eax
  00011	64 89 25 00 00
	00 00		 mov	 DWORD PTR fs:__except_list, esp
  00018	51		 push	 ecx
  00019	89 4d f0	 mov	 DWORD PTR _this$[ebp], ecx
  0001c	8b 4d f0	 mov	 ecx, DWORD PTR _this$[ebp]
  0001f	e8 00 00 00 00	 call	 ??0CStatic@@QAE@XZ	; CStatic::CStatic
  00024	c7 45 fc 00 00
	00 00		 mov	 DWORD PTR __$EHRec$[ebp+8], 0
  0002b	8b 45 f0	 mov	 eax, DWORD PTR _this$[ebp]
  0002e	c7 00 00 00 00
	00		 mov	 DWORD PTR [eax], OFFSET FLAT:??_7CStaticText@@6B@
  00034	8b 4d f0	 mov	 ecx, DWORD PTR _this$[ebp]
  00037	83 c1 70	 add	 ecx, 112		; 00000070H
  0003a	ff 15 00 00 00
	00		 call	 DWORD PTR __imp_??0?$CStringT@DV?$StrTraitMFC_DLL@DV?$ChTraitsCRT@D@ATL@@@@@ATL@@QAE@XZ
  00040	c6 45 fc 01	 mov	 BYTE PTR __$EHRec$[ebp+8], 1
  00044	8b 4d f0	 mov	 ecx, DWORD PTR _this$[ebp]
  00047	83 c1 74	 add	 ecx, 116		; 00000074H
  0004a	ff 15 00 00 00
	00		 call	 DWORD PTR __imp_??0?$CStringT@DV?$StrTraitMFC_DLL@DV?$ChTraitsCRT@D@ATL@@@@@ATL@@QAE@XZ
  00050	c6 45 fc 02	 mov	 BYTE PTR __$EHRec$[ebp+8], 2
  00054	8b 4d f0	 mov	 ecx, DWORD PTR _this$[ebp]
  00057	81 c1 9c 00 00
	00		 add	 ecx, 156		; 0000009cH
  0005d	ff 15 00 00 00
	00		 call	 DWORD PTR __imp_??0?$CStringT@DV?$StrTraitMFC_DLL@DV?$ChTraitsCRT@D@ATL@@@@@ATL@@QAE@XZ
  00063	c6 45 fc 03	 mov	 BYTE PTR __$EHRec$[ebp+8], 3

; 13   : 	mPaintStyle = epsNormal;

  00067	8b 4d f0	 mov	 ecx, DWORD PTR _this$[ebp]
  0006a	c7 41 68 00 00
	00 00		 mov	 DWORD PTR [ecx+104], 0

; 14   : 	mbSetText = false;

  00071	8b 55 f0	 mov	 edx, DWORD PTR _this$[ebp]
  00074	c6 42 6c 00	 mov	 BYTE PTR [edx+108], 0

; 15   : 	//mTextColor = RGB(20, 84, 156);
; 16   : 	mTextColor = RGB(0, 0, 0);

  00078	8b 45 f0	 mov	 eax, DWORD PTR _this$[ebp]
  0007b	c7 40 78 00 00
	00 00		 mov	 DWORD PTR [eax+120], 0

; 17   : 	mstrText = "";

  00082	68 00 00 00 00	 push	 OFFSET FLAT:$SG197689
  00087	8b 4d f0	 mov	 ecx, DWORD PTR _this$[ebp]
  0008a	83 c1 70	 add	 ecx, 112		; 00000070H
  0008d	ff 15 00 00 00
	00		 call	 DWORD PTR __imp_??4?$CStringT@DV?$StrTraitMFC_DLL@DV?$ChTraitsCRT@D@ATL@@@@@ATL@@QAEAAV01@PBD@Z

; 18   : 	miTextTop = 0;

  00093	8b 4d f0	 mov	 ecx, DWORD PTR _this$[ebp]
  00096	c7 81 84 00 00
	00 00 00 00 00	 mov	 DWORD PTR [ecx+132], 0

; 19   : 	mbCaptured = false;

  000a0	8b 55 f0	 mov	 edx, DWORD PTR _this$[ebp]
  000a3	c6 82 8c 00 00
	00 00		 mov	 BYTE PTR [edx+140], 0

; 20   : 	mbUrl = FALSE;

  000aa	8b 45 f0	 mov	 eax, DWORD PTR _this$[ebp]
  000ad	c6 80 8d 00 00
	00 00		 mov	 BYTE PTR [eax+141], 0

; 21   : 	mFormat = DT_LEFT | DT_VCENTER ;

  000b4	8b 4d f0	 mov	 ecx, DWORD PTR _this$[ebp]
  000b7	c7 81 90 00 00
	00 04 00 00 00	 mov	 DWORD PTR [ecx+144], 4

; 22   : 	mWidth  =FW_NORMAL;

  000c1	8b 55 f0	 mov	 edx, DWORD PTR _this$[ebp]
  000c4	c7 82 94 00 00
	00 90 01 00 00	 mov	 DWORD PTR [edx+148], 400 ; 00000190H

; 23   : 	mSize = 9;

  000ce	8b 45 f0	 mov	 eax, DWORD PTR _this$[ebp]
  000d1	c7 80 98 00 00
	00 09 00 00 00	 mov	 DWORD PTR [eax+152], 9

; 24   : 	mTextSet = GB2312_CHARSET;

  000db	8b 4d f0	 mov	 ecx, DWORD PTR _this$[ebp]
  000de	c7 41 7c 86 00
	00 00		 mov	 DWORD PTR [ecx+124], 134 ; 00000086H

; 25   : 	mLinkText = "";

  000e5	68 00 00 00 00	 push	 OFFSET FLAT:$SG197690
  000ea	8b 4d f0	 mov	 ecx, DWORD PTR _this$[ebp]
  000ed	83 c1 74	 add	 ecx, 116		; 00000074H
  000f0	ff 15 00 00 00
	00		 call	 DWORD PTR __imp_??4?$CStringT@DV?$StrTraitMFC_DLL@DV?$ChTraitsCRT@D@ATL@@@@@ATL@@QAEAAV01@PBD@Z

; 26   : 	m_fontName = "";

  000f6	68 00 00 00 00	 push	 OFFSET FLAT:$SG197691
  000fb	8b 4d f0	 mov	 ecx, DWORD PTR _this$[ebp]
  000fe	81 c1 9c 00 00
	00		 add	 ecx, 156		; 0000009cH
  00104	ff 15 00 00 00
	00		 call	 DWORD PTR __imp_??4?$CStringT@DV?$StrTraitMFC_DLL@DV?$ChTraitsCRT@D@ATL@@@@@ATL@@QAEAAV01@PBD@Z

; 27   : }

  0010a	c7 45 fc ff ff
	ff ff		 mov	 DWORD PTR __$EHRec$[ebp+8], -1
  00111	8b 45 f0	 mov	 eax, DWORD PTR _this$[ebp]
  00114	8b 4d f4	 mov	 ecx, DWORD PTR __$EHRec$[ebp]
  00117	64 89 0d 00 00
	00 00		 mov	 DWORD PTR fs:__except_list, ecx
  0011e	8b e5		 mov	 esp, ebp
  00120	5d		 pop	 ebp
  00121	c3		 ret	 0
_TEXT	ENDS
text$x	SEGMENT
$L198529:
  00000	8b 4d f0	 mov	 ecx, DWORD PTR _this$[ebp]
  00003	e9 00 00 00 00	 jmp	 ??1CStatic@@UAE@XZ	; CStatic::~CStatic
$L198530:
  00008	8b 4d f0	 mov	 ecx, DWORD PTR _this$[ebp]
  0000b	83 c1 70	 add	 ecx, 112		; 00000070H
  0000e	ff 25 00 00 00
	00		 jmp	 DWORD PTR __imp_??1?$CStringT@DV?$StrTraitMFC_DLL@DV?$ChTraitsCRT@D@ATL@@@@@ATL@@QAE@XZ
$L198531:
  00014	8b 4d f0	 mov	 ecx, DWORD PTR _this$[ebp]
  00017	83 c1 74	 add	 ecx, 116		; 00000074H
  0001a	ff 25 00 00 00
	00		 jmp	 DWORD PTR __imp_??1?$CStringT@DV?$StrTraitMFC_DLL@DV?$ChTraitsCRT@D@ATL@@@@@ATL@@QAE@XZ
$L198532:
  00020	8b 4d f0	 mov	 ecx, DWORD PTR _this$[ebp]
  00023	81 c1 9c 00 00
	00		 add	 ecx, 156		; 0000009cH
  00029	ff 25 00 00 00
	00		 jmp	 DWORD PTR __imp_??1?$CStringT@DV?$StrTraitMFC_DLL@DV?$ChTraitsCRT@D@ATL@@@@@ATL@@QAE@XZ
__ehhandler$??0CStaticText@@QAE@XZ:
  0002f	b8 00 00 00 00	 mov	 eax, OFFSET FLAT:$T198536
  00034	e9 00 00 00 00	 jmp	 ___CxxFrameHandler
text$x	ENDS
??0CStaticText@@QAE@XZ ENDP				; CStaticText::CStaticText
PUBLIC	??3CObject@@SGXPAX@Z				; CObject::operator delete
PUBLIC	??1CStaticText@@UAE@XZ				; CStaticText::~CStaticText
; Function compile flags: /Odt
;	COMDAT ??_GCStaticText@@UAEPAXI@Z
_TEXT	SEGMENT
_this$ = -4						; size = 4
___flags$ = 8						; size = 4
??_GCStaticText@@UAEPAXI@Z PROC NEAR			; CStaticText::`scalar deleting destructor', COMDAT
; _this$ = ecx
  00000	55		 push	 ebp
  00001	8b ec		 mov	 ebp, esp
  00003	51		 push	 ecx
  00004	89 4d fc	 mov	 DWORD PTR _this$[ebp], ecx
  00007	8b 4d fc	 mov	 ecx, DWORD PTR _this$[ebp]
  0000a	e8 00 00 00 00	 call	 ??1CStaticText@@UAE@XZ	; CStaticText::~CStaticText
  0000f	8b 45 08	 mov	 eax, DWORD PTR ___flags$[ebp]
  00012	83 e0 01	 and	 eax, 1
  00015	74 09		 je	 SHORT $L197695
  00017	8b 4d fc	 mov	 ecx, DWORD PTR _this$[ebp]
  0001a	51		 push	 ecx
  0001b	e8 00 00 00 00	 call	 ??3CObject@@SGXPAX@Z	; CObject::operator delete
$L197695:
  00020	8b 45 fc	 mov	 eax, DWORD PTR _this$[ebp]
  00023	8b e5		 mov	 esp, ebp
  00025	5d		 pop	 ebp
  00026	c2 04 00	 ret	 4
??_GCStaticText@@UAEPAXI@Z ENDP				; CStaticText::`scalar deleting destructor'
_TEXT	ENDS
EXTRN	__imp__DeleteObject@4:NEAR
; Function compile flags: /Odt
_TEXT	SEGMENT
_this$ = -4						; size = 4
??1CStaticText@@UAE@XZ PROC NEAR			; CStaticText::~CStaticText
; _this$ = ecx

; 30   : {

  00130	55		 push	 ebp
  00131	8b ec		 mov	 ebp, esp
  00133	51		 push	 ecx
  00134	89 4d fc	 mov	 DWORD PTR _this$[ebp], ecx
  00137	8b 45 fc	 mov	 eax, DWORD PTR _this$[ebp]
  0013a	c7 00 00 00 00
	00		 mov	 DWORD PTR [eax], OFFSET FLAT:??_7CStaticText@@6B@

; 31   : 	if(mhBrush)

  00140	8b 4d fc	 mov	 ecx, DWORD PTR _this$[ebp]
  00143	83 b9 80 00 00
	00 00		 cmp	 DWORD PTR [ecx+128], 0
  0014a	74 10		 je	 SHORT $L197698

; 32   : 		DeleteObject((HGDIOBJ)mhBrush);

  0014c	8b 55 fc	 mov	 edx, DWORD PTR _this$[ebp]
  0014f	8b 82 80 00 00
	00		 mov	 eax, DWORD PTR [edx+128]
  00155	50		 push	 eax
  00156	ff 15 00 00 00
	00		 call	 DWORD PTR __imp__DeleteObject@4
$L197698:

; 33   : }

  0015c	8b 4d fc	 mov	 ecx, DWORD PTR _this$[ebp]
  0015f	81 c1 9c 00 00
	00		 add	 ecx, 156		; 0000009cH
  00165	ff 15 00 00 00
	00		 call	 DWORD PTR __imp_??1?$CStringT@DV?$StrTraitMFC_DLL@DV?$ChTraitsCRT@D@ATL@@@@@ATL@@QAE@XZ
  0016b	8b 4d fc	 mov	 ecx, DWORD PTR _this$[ebp]
  0016e	83 c1 74	 add	 ecx, 116		; 00000074H
  00171	ff 15 00 00 00
	00		 call	 DWORD PTR __imp_??1?$CStringT@DV?$StrTraitMFC_DLL@DV?$ChTraitsCRT@D@ATL@@@@@ATL@@QAE@XZ
  00177	8b 4d fc	 mov	 ecx, DWORD PTR _this$[ebp]
  0017a	83 c1 70	 add	 ecx, 112		; 00000070H
  0017d	ff 15 00 00 00
	00		 call	 DWORD PTR __imp_??1?$CStringT@DV?$StrTraitMFC_DLL@DV?$ChTraitsCRT@D@ATL@@@@@ATL@@QAE@XZ
  00183	8b 4d fc	 mov	 ecx, DWORD PTR _this$[ebp]
  00186	e8 00 00 00 00	 call	 ??1CStatic@@UAE@XZ	; CStatic::~CStatic
  0018b	8b e5		 mov	 esp, ebp
  0018d	5d		 pop	 ebp
  0018e	c3		 ret	 0
??1CStaticText@@UAE@XZ ENDP				; CStaticText::~CStaticText
_TEXT	ENDS
PUBLIC	?GetThisMessageMap@CStaticText@@KGPBUAFX_MSGMAP@@XZ ; CStaticText::GetThisMessageMap
; Function compile flags: /Odt
_TEXT	SEGMENT
?GetThisMessageMap@CStaticText@@KGPBUAFX_MSGMAP@@XZ PROC NEAR ; CStaticText::GetThisMessageMap

; 35   : BEGIN_MESSAGE_MAP(CStaticText, CStatic) 

  00190	55		 push	 ebp
  00191	8b ec		 mov	 ebp, esp
  00193	b8 00 00 00 00	 mov	 eax, OFFSET FLAT:?messageMap@CStaticText@@1UAFX_MSGMAP@@B ; CStaticText::messageMap
  00198	5d		 pop	 ebp
  00199	c3		 ret	 0
?GetThisMessageMap@CStaticText@@KGPBUAFX_MSGMAP@@XZ ENDP ; CStaticText::GetThisMessageMap
; Function compile flags: /Odt
_this$ = -4						; size = 4
?GetMessageMap@CStaticText@@MBEPBUAFX_MSGMAP@@XZ PROC NEAR ; CStaticText::GetMessageMap
; _this$ = ecx

; 35   : BEGIN_MESSAGE_MAP(CStaticText, CStatic) 

  001a0	55		 push	 ebp
  001a1	8b ec		 mov	 ebp, esp
  001a3	51		 push	 ecx
  001a4	89 4d fc	 mov	 DWORD PTR _this$[ebp], ecx
  001a7	b8 00 00 00 00	 mov	 eax, OFFSET FLAT:?messageMap@CStaticText@@1UAFX_MSGMAP@@B ; CStaticText::messageMap
  001ac	8b e5		 mov	 esp, ebp
  001ae	5d		 pop	 ebp
  001af	c3		 ret	 0
?GetMessageMap@CStaticText@@MBEPBUAFX_MSGMAP@@XZ ENDP	; CStaticText::GetMessageMap
_TEXT	ENDS
EXTRN	?SetBkMode@CDC@@QAEHH@Z:NEAR			; CDC::SetBkMode
EXTRN	__imp__GetStockObject@4:NEAR
; Function compile flags: /Odt
_TEXT	SEGMENT
_this$ = -4						; size = 4
_pDC$ = 8						; size = 4
_nCtlColor$ = 12					; size = 4
?CtlColor@CStaticText@@IAEPAUHBRUSH__@@PAVCDC@@I@Z PROC NEAR ; CStaticText::CtlColor
; _this$ = ecx

; 52   : {

  001b0	55		 push	 ebp
  001b1	8b ec		 mov	 ebp, esp
  001b3	51		 push	 ecx
  001b4	89 4d fc	 mov	 DWORD PTR _this$[ebp], ecx

; 53   : 	if (mhBrush != NULL)

  001b7	8b 45 fc	 mov	 eax, DWORD PTR _this$[ebp]
  001ba	83 b8 80 00 00
	00 00		 cmp	 DWORD PTR [eax+128], 0
  001c1	74 10		 je	 SHORT $L197741

; 54   : 		DeleteObject((HGDIOBJ)mhBrush);

  001c3	8b 4d fc	 mov	 ecx, DWORD PTR _this$[ebp]
  001c6	8b 91 80 00 00
	00		 mov	 edx, DWORD PTR [ecx+128]
  001cc	52		 push	 edx
  001cd	ff 15 00 00 00
	00		 call	 DWORD PTR __imp__DeleteObject@4
$L197741:

; 55   : 
; 56   : 	mhBrush = (HBRUSH)GetStockObject(HOLLOW_BRUSH);

  001d3	6a 05		 push	 5
  001d5	ff 15 00 00 00
	00		 call	 DWORD PTR __imp__GetStockObject@4
  001db	8b 4d fc	 mov	 ecx, DWORD PTR _this$[ebp]
  001de	89 81 80 00 00
	00		 mov	 DWORD PTR [ecx+128], eax

; 57   : 	pDC->SetBkMode(TRANSPARENT);

  001e4	6a 01		 push	 1
  001e6	8b 4d 08	 mov	 ecx, DWORD PTR _pDC$[ebp]
  001e9	e8 00 00 00 00	 call	 ?SetBkMode@CDC@@QAEHH@Z	; CDC::SetBkMode

; 58   : 	return mhBrush;

  001ee	8b 55 fc	 mov	 edx, DWORD PTR _this$[ebp]
  001f1	8b 82 80 00 00
	00		 mov	 eax, DWORD PTR [edx+128]

; 59   : 
; 60   : }

  001f7	8b e5		 mov	 esp, ebp
  001f9	5d		 pop	 ebp
  001fa	c2 08 00	 ret	 8
?CtlColor@CStaticText@@IAEPAUHBRUSH__@@PAVCDC@@I@Z ENDP	; CStaticText::CtlColor
_TEXT	ENDS
PUBLIC	??HATL@@YA?AV?$CStringT@DV?$StrTraitMFC_DLL@DV?$ChTraitsCRT@D@ATL@@@@@0@PBDABV10@@Z ; ATL::operator+
PUBLIC	?SetLinkAddress@CStaticText@@QAEHV?$CStringT@DV?$StrTraitMFC_DLL@DV?$ChTraitsCRT@D@ATL@@@@@ATL@@@Z ; CStaticText::SetLinkAddress
EXTRN	__imp_??4?$CStringT@DV?$StrTraitMFC_DLL@DV?$ChTraitsCRT@D@ATL@@@@@ATL@@QAEAAV01@ABV01@@Z:NEAR
EXTRN	__imp_?Find@?$CStringT@DV?$StrTraitMFC_DLL@DV?$ChTraitsCRT@D@ATL@@@@@ATL@@QBEHPBDH@Z:NEAR
xdata$x	SEGMENT
$T198560 DD	0ffffffffH
	DD	FLAT:$L198555
	DD	00H
	DD	FLAT:$L198556
$T198558 DD	019930520H
	DD	02H
	DD	FLAT:$T198560
	DD	2 DUP(00H)
	DD	2 DUP(00H)
; Function compile flags: /Odt
xdata$x	ENDS
_TEXT	SEGMENT
tv93 = -36						; size = 4
tv128 = -32						; size = 4
_this$ = -28						; size = 4
$T198554 = -24						; size = 4
$T198553 = -20						; size = 4
$T198552 = -16						; size = 4
__$EHRec$ = -12						; size = 12
_linkaddress$ = 8					; size = 4
?SetLinkAddress@CStaticText@@QAEHV?$CStringT@DV?$StrTraitMFC_DLL@DV?$ChTraitsCRT@D@ATL@@@@@ATL@@@Z PROC NEAR ; CStaticText::SetLinkAddress
; _this$ = ecx

; 62   : {   

  00200	55		 push	 ebp
  00201	8b ec		 mov	 ebp, esp
  00203	6a ff		 push	 -1
  00205	68 00 00 00 00	 push	 __ehhandler$?SetLinkAddress@CStaticText@@QAEHV?$CStringT@DV?$StrTraitMFC_DLL@DV?$ChTraitsCRT@D@ATL@@@@@ATL@@@Z
  0020a	64 a1 00 00 00
	00		 mov	 eax, DWORD PTR fs:__except_list
  00210	50		 push	 eax
  00211	64 89 25 00 00
	00 00		 mov	 DWORD PTR fs:__except_list, esp
  00218	83 ec 18	 sub	 esp, 24			; 00000018H
  0021b	89 4d e4	 mov	 DWORD PTR _this$[ebp], ecx
  0021e	c7 45 fc 00 00
	00 00		 mov	 DWORD PTR __$EHRec$[ebp+8], 0

; 63   : 	mbUrl = TRUE;

  00225	8b 45 e4	 mov	 eax, DWORD PTR _this$[ebp]
  00228	c6 80 8d 00 00
	00 01		 mov	 BYTE PTR [eax+141], 1

; 64   : 	if (linkaddress.Find("http") != -1)								//验证地址的合法性

  0022f	6a 00		 push	 0
  00231	68 00 00 00 00	 push	 OFFSET FLAT:$SG197749
  00236	8d 4d 08	 lea	 ecx, DWORD PTR _linkaddress$[ebp]
  00239	ff 15 00 00 00
	00		 call	 DWORD PTR __imp_?Find@?$CStringT@DV?$StrTraitMFC_DLL@DV?$ChTraitsCRT@D@ATL@@@@@ATL@@QBEHPBDH@Z
  0023f	83 f8 ff	 cmp	 eax, -1
  00242	74 15		 je	 SHORT $L197748

; 65   : 		mLinkText = linkaddress;

  00244	8d 4d 08	 lea	 ecx, DWORD PTR _linkaddress$[ebp]
  00247	51		 push	 ecx
  00248	8b 4d e4	 mov	 ecx, DWORD PTR _this$[ebp]
  0024b	83 c1 74	 add	 ecx, 116		; 00000074H
  0024e	ff 15 00 00 00
	00		 call	 DWORD PTR __imp_??4?$CStringT@DV?$StrTraitMFC_DLL@DV?$ChTraitsCRT@D@ATL@@@@@ATL@@QAEAAV01@ABV01@@Z

; 66   : 	else if (linkaddress.Find("@") != -1)

  00254	e9 83 00 00 00	 jmp	 $L197750
$L197748:
  00259	6a 00		 push	 0
  0025b	68 00 00 00 00	 push	 OFFSET FLAT:$SG197752
  00260	8d 4d 08	 lea	 ecx, DWORD PTR _linkaddress$[ebp]
  00263	ff 15 00 00 00
	00		 call	 DWORD PTR __imp_?Find@?$CStringT@DV?$StrTraitMFC_DLL@DV?$ChTraitsCRT@D@ATL@@@@@ATL@@QBEHPBDH@Z
  00269	83 f8 ff	 cmp	 eax, -1
  0026c	74 41		 je	 SHORT $L197751

; 67   : 		mLinkText = "mailto:"+linkaddress;

  0026e	8d 55 08	 lea	 edx, DWORD PTR _linkaddress$[ebp]
  00271	52		 push	 edx
  00272	68 00 00 00 00	 push	 OFFSET FLAT:$SG197754
  00277	8d 45 f0	 lea	 eax, DWORD PTR $T198552[ebp]
  0027a	50		 push	 eax
  0027b	e8 00 00 00 00	 call	 ??HATL@@YA?AV?$CStringT@DV?$StrTraitMFC_DLL@DV?$ChTraitsCRT@D@ATL@@@@@0@PBDABV10@@Z ; ATL::operator+
  00280	83 c4 0c	 add	 esp, 12			; 0000000cH
  00283	89 45 e0	 mov	 DWORD PTR tv128[ebp], eax
  00286	8b 4d e0	 mov	 ecx, DWORD PTR tv128[ebp]
  00289	89 4d dc	 mov	 DWORD PTR tv93[ebp], ecx
  0028c	c6 45 fc 01	 mov	 BYTE PTR __$EHRec$[ebp+8], 1
  00290	8b 55 dc	 mov	 edx, DWORD PTR tv93[ebp]
  00293	52		 push	 edx
  00294	8b 4d e4	 mov	 ecx, DWORD PTR _this$[ebp]
  00297	83 c1 74	 add	 ecx, 116		; 00000074H
  0029a	ff 15 00 00 00
	00		 call	 DWORD PTR __imp_??4?$CStringT@DV?$StrTraitMFC_DLL@DV?$ChTraitsCRT@D@ATL@@@@@ATL@@QAEAAV01@ABV01@@Z
  002a0	c6 45 fc 00	 mov	 BYTE PTR __$EHRec$[ebp+8], 0
  002a4	8d 4d f0	 lea	 ecx, DWORD PTR $T198552[ebp]
  002a7	ff 15 00 00 00
	00		 call	 DWORD PTR __imp_??1?$CStringT@DV?$StrTraitMFC_DLL@DV?$ChTraitsCRT@D@ATL@@@@@ATL@@QAE@XZ

; 68   : 	else

  002ad	eb 2d		 jmp	 SHORT $L197750
$L197751:

; 69   : 	{
; 70   : 		mLinkText = "";

  002af	68 00 00 00 00	 push	 OFFSET FLAT:$SG197756
  002b4	8b 4d e4	 mov	 ecx, DWORD PTR _this$[ebp]
  002b7	83 c1 74	 add	 ecx, 116		; 00000074H
  002ba	ff 15 00 00 00
	00		 call	 DWORD PTR __imp_??4?$CStringT@DV?$StrTraitMFC_DLL@DV?$ChTraitsCRT@D@ATL@@@@@ATL@@QAEAAV01@PBD@Z

; 71   : 		return FALSE;

  002c0	c7 45 ec 00 00
	00 00		 mov	 DWORD PTR $T198553[ebp], 0
  002c7	c7 45 fc ff ff
	ff ff		 mov	 DWORD PTR __$EHRec$[ebp+8], -1
  002ce	8d 4d 08	 lea	 ecx, DWORD PTR _linkaddress$[ebp]
  002d1	ff 15 00 00 00
	00		 call	 DWORD PTR __imp_??1?$CStringT@DV?$StrTraitMFC_DLL@DV?$ChTraitsCRT@D@ATL@@@@@ATL@@QAE@XZ
  002d7	8b 45 ec	 mov	 eax, DWORD PTR $T198553[ebp]
  002da	eb 1a		 jmp	 SHORT $L197747
$L197750:

; 72   : 	}
; 73   : 	return TRUE;

  002dc	c7 45 e8 01 00
	00 00		 mov	 DWORD PTR $T198554[ebp], 1
  002e3	c7 45 fc ff ff
	ff ff		 mov	 DWORD PTR __$EHRec$[ebp+8], -1
  002ea	8d 4d 08	 lea	 ecx, DWORD PTR _linkaddress$[ebp]
  002ed	ff 15 00 00 00
	00		 call	 DWORD PTR __imp_??1?$CStringT@DV?$StrTraitMFC_DLL@DV?$ChTraitsCRT@D@ATL@@@@@ATL@@QAE@XZ
  002f3	8b 45 e8	 mov	 eax, DWORD PTR $T198554[ebp]
$L197747:

; 74   : }

  002f6	8b 4d f4	 mov	 ecx, DWORD PTR __$EHRec$[ebp]
  002f9	64 89 0d 00 00
	00 00		 mov	 DWORD PTR fs:__except_list, ecx
  00300	8b e5		 mov	 esp, ebp
  00302	5d		 pop	 ebp
  00303	c2 04 00	 ret	 4
_TEXT	ENDS
text$x	SEGMENT
$L198555:
  00039	8d 4d 08	 lea	 ecx, DWORD PTR _linkaddress$[ebp]
  0003c	ff 25 00 00 00
	00		 jmp	 DWORD PTR __imp_??1?$CStringT@DV?$StrTraitMFC_DLL@DV?$ChTraitsCRT@D@ATL@@@@@ATL@@QAE@XZ
$L198556:
  00042	8d 4d f0	 lea	 ecx, DWORD PTR $T198552[ebp]
  00045	ff 25 00 00 00
	00		 jmp	 DWORD PTR __imp_??1?$CStringT@DV?$StrTraitMFC_DLL@DV?$ChTraitsCRT@D@ATL@@@@@ATL@@QAE@XZ
__ehhandler$?SetLinkAddress@CStaticText@@QAEHV?$CStringT@DV?$StrTraitMFC_DLL@DV?$ChTraitsCRT@D@ATL@@@@@ATL@@@Z:
  0004b	b8 00 00 00 00	 mov	 eax, OFFSET FLAT:$T198558
  00050	e9 00 00 00 00	 jmp	 ___CxxFrameHandler
text$x	ENDS
?SetLinkAddress@CStaticText@@QAEHV?$CStringT@DV?$StrTraitMFC_DLL@DV?$ChTraitsCRT@D@ATL@@@@@ATL@@@Z ENDP ; CStaticText::SetLinkAddress
PUBLIC	?GetClientRect@CWnd@@QBEXPAUtagRECT@@@Z		; CWnd::GetClientRect
PUBLIC	?InvalidateRect@CWnd@@QAEXPBUtagRECT@@H@Z	; CWnd::InvalidateRect
PUBLIC	??0CRect@@QAE@XZ				; CRect::CRect
PUBLIC	??BCRect@@QAEPAUtagRECT@@XZ			; CRect::operator tagRECT *
PUBLIC	?GetParent@CWnd@@QBEPAV1@XZ			; CWnd::GetParent
PUBLIC	??9ATL@@YA_NABV?$CStringT@DV?$StrTraitMFC_DLL@DV?$ChTraitsCRT@D@ATL@@@@@0@0@Z ; ATL::operator!=
EXTRN	?ClientToScreen@CWnd@@QBEXPAUtagRECT@@@Z:NEAR	; CWnd::ClientToScreen
EXTRN	?ScreenToClient@CWnd@@QBEXPAUtagRECT@@@Z:NEAR	; CWnd::ScreenToClient
EXTRN	__imp_??0?$CStringT@DV?$StrTraitMFC_DLL@DV?$ChTraitsCRT@D@ATL@@@@@ATL@@QAE@ABV01@@Z:NEAR
xdata$x	SEGMENT
$T198567 DD	0ffffffffH
	DD	FLAT:$L198563
$T198565 DD	019930520H
	DD	01H
	DD	FLAT:$T198567
	DD	2 DUP(00H)
	DD	2 DUP(00H)
; Function compile flags: /Odt
xdata$x	ENDS
_TEXT	SEGMENT
_this$ = -44						; size = 4
$T198562 = -40						; size = 4
_lRect$197767 = -36					; size = 16
_lpWnd$197768 = -20					; size = 4
_lstrText$ = -16					; size = 4
__$EHRec$ = -12						; size = 12
_wParam$ = 8						; size = 4
_lParam$ = 12						; size = 4
?OnSetText@CStaticText@@QAEJIJ@Z PROC NEAR		; CStaticText::OnSetText
; _this$ = ecx

; 82   : {

  00310	55		 push	 ebp
  00311	8b ec		 mov	 ebp, esp
  00313	6a ff		 push	 -1
  00315	68 00 00 00 00	 push	 __ehhandler$?OnSetText@CStaticText@@QAEJIJ@Z
  0031a	64 a1 00 00 00
	00		 mov	 eax, DWORD PTR fs:__except_list
  00320	50		 push	 eax
  00321	64 89 25 00 00
	00 00		 mov	 DWORD PTR fs:__except_list, esp
  00328	83 ec 20	 sub	 esp, 32			; 00000020H
  0032b	89 4d d4	 mov	 DWORD PTR _this$[ebp], ecx

; 83   : 	CString lstrText = mstrText;

  0032e	8b 45 d4	 mov	 eax, DWORD PTR _this$[ebp]
  00331	83 c0 70	 add	 eax, 112		; 00000070H
  00334	50		 push	 eax
  00335	8d 4d f0	 lea	 ecx, DWORD PTR _lstrText$[ebp]
  00338	ff 15 00 00 00
	00		 call	 DWORD PTR __imp_??0?$CStringT@DV?$StrTraitMFC_DLL@DV?$ChTraitsCRT@D@ATL@@@@@ATL@@QAE@ABV01@@Z
  0033e	c7 45 fc 00 00
	00 00		 mov	 DWORD PTR __$EHRec$[ebp+8], 0

; 84   : 	mstrText = (LPCTSTR)lParam;

  00345	8b 4d 0c	 mov	 ecx, DWORD PTR _lParam$[ebp]
  00348	51		 push	 ecx
  00349	8b 4d d4	 mov	 ecx, DWORD PTR _this$[ebp]
  0034c	83 c1 70	 add	 ecx, 112		; 00000070H
  0034f	ff 15 00 00 00
	00		 call	 DWORD PTR __imp_??4?$CStringT@DV?$StrTraitMFC_DLL@DV?$ChTraitsCRT@D@ATL@@@@@ATL@@QAEAAV01@PBD@Z

; 85   : 	mbSetText = true;

  00355	8b 55 d4	 mov	 edx, DWORD PTR _this$[ebp]
  00358	c6 42 6c 01	 mov	 BYTE PTR [edx+108], 1

; 86   : 
; 87   : 	if (lstrText != mstrText)

  0035c	8b 45 d4	 mov	 eax, DWORD PTR _this$[ebp]
  0035f	83 c0 70	 add	 eax, 112		; 00000070H
  00362	50		 push	 eax
  00363	8d 4d f0	 lea	 ecx, DWORD PTR _lstrText$[ebp]
  00366	51		 push	 ecx
  00367	e8 00 00 00 00	 call	 ??9ATL@@YA_NABV?$CStringT@DV?$StrTraitMFC_DLL@DV?$ChTraitsCRT@D@ATL@@@@@0@0@Z ; ATL::operator!=
  0036c	83 c4 08	 add	 esp, 8
  0036f	0f b6 d0	 movzx	 edx, al
  00372	85 d2		 test	 edx, edx
  00374	74 56		 je	 SHORT $L197766

; 88   : 	{
; 89   : 		CRect lRect;

  00376	8d 4d dc	 lea	 ecx, DWORD PTR _lRect$197767[ebp]
  00379	e8 00 00 00 00	 call	 ??0CRect@@QAE@XZ	; CRect::CRect

; 90   : 		GetClientRect(lRect);

  0037e	8d 4d dc	 lea	 ecx, DWORD PTR _lRect$197767[ebp]
  00381	e8 00 00 00 00	 call	 ??BCRect@@QAEPAUtagRECT@@XZ ; CRect::operator tagRECT *
  00386	50		 push	 eax
  00387	8b 4d d4	 mov	 ecx, DWORD PTR _this$[ebp]
  0038a	e8 00 00 00 00	 call	 ?GetClientRect@CWnd@@QBEXPAUtagRECT@@@Z ; CWnd::GetClientRect

; 91   : 		ClientToScreen(&lRect);

  0038f	8d 45 dc	 lea	 eax, DWORD PTR _lRect$197767[ebp]
  00392	50		 push	 eax
  00393	8b 4d d4	 mov	 ecx, DWORD PTR _this$[ebp]
  00396	e8 00 00 00 00	 call	 ?ClientToScreen@CWnd@@QBEXPAUtagRECT@@@Z ; CWnd::ClientToScreen

; 92   : 
; 93   : 		CWnd* lpWnd = NULL;

  0039b	c7 45 ec 00 00
	00 00		 mov	 DWORD PTR _lpWnd$197768[ebp], 0

; 94   : 		lpWnd = GetParent();

  003a2	8b 4d d4	 mov	 ecx, DWORD PTR _this$[ebp]
  003a5	e8 00 00 00 00	 call	 ?GetParent@CWnd@@QBEPAV1@XZ ; CWnd::GetParent
  003aa	89 45 ec	 mov	 DWORD PTR _lpWnd$197768[ebp], eax

; 95   : 		lpWnd->ScreenToClient(&lRect);

  003ad	8d 4d dc	 lea	 ecx, DWORD PTR _lRect$197767[ebp]
  003b0	51		 push	 ecx
  003b1	8b 4d ec	 mov	 ecx, DWORD PTR _lpWnd$197768[ebp]
  003b4	e8 00 00 00 00	 call	 ?ScreenToClient@CWnd@@QBEXPAUtagRECT@@@Z ; CWnd::ScreenToClient

; 96   : 		lpWnd->InvalidateRect(lRect, FALSE);

  003b9	6a 00		 push	 0
  003bb	8d 4d dc	 lea	 ecx, DWORD PTR _lRect$197767[ebp]
  003be	e8 00 00 00 00	 call	 ??BCRect@@QAEPAUtagRECT@@XZ ; CRect::operator tagRECT *
  003c3	50		 push	 eax
  003c4	8b 4d ec	 mov	 ecx, DWORD PTR _lpWnd$197768[ebp]
  003c7	e8 00 00 00 00	 call	 ?InvalidateRect@CWnd@@QAEXPBUtagRECT@@H@Z ; CWnd::InvalidateRect
$L197766:

; 97   : 	}
; 98   : 
; 99   : 	return NULL;

  003cc	c7 45 d8 00 00
	00 00		 mov	 DWORD PTR $T198562[ebp], 0
  003d3	c7 45 fc ff ff
	ff ff		 mov	 DWORD PTR __$EHRec$[ebp+8], -1
  003da	8d 4d f0	 lea	 ecx, DWORD PTR _lstrText$[ebp]
  003dd	ff 15 00 00 00
	00		 call	 DWORD PTR __imp_??1?$CStringT@DV?$StrTraitMFC_DLL@DV?$ChTraitsCRT@D@ATL@@@@@ATL@@QAE@XZ
  003e3	8b 45 d8	 mov	 eax, DWORD PTR $T198562[ebp]

; 100  : }

  003e6	8b 4d f4	 mov	 ecx, DWORD PTR __$EHRec$[ebp]
  003e9	64 89 0d 00 00
	00 00		 mov	 DWORD PTR fs:__except_list, ecx
  003f0	8b e5		 mov	 esp, ebp
  003f2	5d		 pop	 ebp
  003f3	c2 08 00	 ret	 8
_TEXT	ENDS
text$x	SEGMENT
$L198563:
  00055	8d 4d f0	 lea	 ecx, DWORD PTR _lstrText$[ebp]
  00058	ff 25 00 00 00
	00		 jmp	 DWORD PTR __imp_??1?$CStringT@DV?$StrTraitMFC_DLL@DV?$ChTraitsCRT@D@ATL@@@@@ATL@@QAE@XZ
__ehhandler$?OnSetText@CStaticText@@QAEJIJ@Z:
  0005e	b8 00 00 00 00	 mov	 eax, OFFSET FLAT:$T198565
  00063	e9 00 00 00 00	 jmp	 ___CxxFrameHandler
text$x	ENDS
?OnSetText@CStaticText@@QAEJIJ@Z ENDP			; CStaticText::OnSetText
PUBLIC	?InvalidateBack@CStaticText@@AAEXXZ		; CStaticText::InvalidateBack
; Function compile flags: /Odt
_TEXT	SEGMENT
_this$ = -8						; size = 4
_lpWnd$ = -4						; size = 4
?InvalidateBack@CStaticText@@AAEXXZ PROC NEAR		; CStaticText::InvalidateBack
; _this$ = ecx

; 102  : {

  00400	55		 push	 ebp
  00401	8b ec		 mov	 ebp, esp
  00403	83 ec 08	 sub	 esp, 8
  00406	89 4d f8	 mov	 DWORD PTR _this$[ebp], ecx

; 103  : 	CWnd* lpWnd = NULL;

  00409	c7 45 fc 00 00
	00 00		 mov	 DWORD PTR _lpWnd$[ebp], 0

; 104  : 	lpWnd = GetParent();

  00410	8b 4d f8	 mov	 ecx, DWORD PTR _this$[ebp]
  00413	e8 00 00 00 00	 call	 ?GetParent@CWnd@@QBEPAV1@XZ ; CWnd::GetParent
  00418	89 45 fc	 mov	 DWORD PTR _lpWnd$[ebp], eax

; 105  : 	/*if (lpWnd && ::IsWindow(lpWnd->m_hWnd)  )
; 106  : 	{
; 107  : 	CRect lRect;
; 108  : 	GetClientRect(lRect);
; 109  : 	ClientToScreen(&lRect);
; 110  : 
; 111  : 	lpWnd->ScreenToClient(&lRect);
; 112  : 	lpWnd->InvalidateRect(lRect, FALSE);
; 113  : 	this->Invalidate(FALSE);
; 114  : 	}*/
; 115  : 
; 116  : }

  0041b	8b e5		 mov	 esp, ebp
  0041d	5d		 pop	 ebp
  0041e	c3		 ret	 0
?InvalidateBack@CStaticText@@AAEXXZ ENDP		; CStaticText::InvalidateBack
_TEXT	ENDS
PUBLIC	?SetGradient@CStaticText@@QAEXKK@Z		; CStaticText::SetGradient
; Function compile flags: /Odt
_TEXT	SEGMENT
_this$ = -4						; size = 4
_aBeginColor$ = 8					; size = 4
_aEndColor$ = 12					; size = 4
?SetGradient@CStaticText@@QAEXKK@Z PROC NEAR		; CStaticText::SetGradient
; _this$ = ecx

; 125  : {

  00420	55		 push	 ebp
  00421	8b ec		 mov	 ebp, esp
  00423	51		 push	 ecx
  00424	89 4d fc	 mov	 DWORD PTR _this$[ebp], ecx

; 126  : 	mPaintStyle = epsHGradient;

  00427	8b 45 fc	 mov	 eax, DWORD PTR _this$[ebp]
  0042a	c7 40 68 02 00
	00 00		 mov	 DWORD PTR [eax+104], 2

; 127  : 	mBeginColor = aBeginColor;

  00431	8b 4d fc	 mov	 ecx, DWORD PTR _this$[ebp]
  00434	8b 55 08	 mov	 edx, DWORD PTR _aBeginColor$[ebp]
  00437	89 51 5c	 mov	 DWORD PTR [ecx+92], edx

; 128  : 	mEndColor = aEndColor;

  0043a	8b 45 fc	 mov	 eax, DWORD PTR _this$[ebp]
  0043d	8b 4d 0c	 mov	 ecx, DWORD PTR _aEndColor$[ebp]
  00440	89 48 60	 mov	 DWORD PTR [eax+96], ecx

; 129  : 	InvalidateBack();

  00443	8b 4d fc	 mov	 ecx, DWORD PTR _this$[ebp]
  00446	e8 00 00 00 00	 call	 ?InvalidateBack@CStaticText@@AAEXXZ ; CStaticText::InvalidateBack

; 130  : }

  0044b	8b e5		 mov	 esp, ebp
  0044d	5d		 pop	 ebp
  0044e	c2 08 00	 ret	 8
?SetGradient@CStaticText@@QAEXKK@Z ENDP			; CStaticText::SetGradient
_TEXT	ENDS
PUBLIC	?SetVerticalGradient@CStaticText@@QAEXKK@Z	; CStaticText::SetVerticalGradient
; Function compile flags: /Odt
_TEXT	SEGMENT
_this$ = -4						; size = 4
_aBeginColor$ = 8					; size = 4
_aEndColor$ = 12					; size = 4
?SetVerticalGradient@CStaticText@@QAEXKK@Z PROC NEAR	; CStaticText::SetVerticalGradient
; _this$ = ecx

; 140  : {

  00460	55		 push	 ebp
  00461	8b ec		 mov	 ebp, esp
  00463	51		 push	 ecx
  00464	89 4d fc	 mov	 DWORD PTR _this$[ebp], ecx

; 141  : 	mPaintStyle = epsVGradient;

  00467	8b 45 fc	 mov	 eax, DWORD PTR _this$[ebp]
  0046a	c7 40 68 03 00
	00 00		 mov	 DWORD PTR [eax+104], 3

; 142  : 	mBeginColor = aBeginColor;

  00471	8b 4d fc	 mov	 ecx, DWORD PTR _this$[ebp]
  00474	8b 55 08	 mov	 edx, DWORD PTR _aBeginColor$[ebp]
  00477	89 51 5c	 mov	 DWORD PTR [ecx+92], edx

; 143  : 	mEndColor = aEndColor;

  0047a	8b 45 fc	 mov	 eax, DWORD PTR _this$[ebp]
  0047d	8b 4d 0c	 mov	 ecx, DWORD PTR _aEndColor$[ebp]
  00480	89 48 60	 mov	 DWORD PTR [eax+96], ecx

; 144  : 	InvalidateBack();

  00483	8b 4d fc	 mov	 ecx, DWORD PTR _this$[ebp]
  00486	e8 00 00 00 00	 call	 ?InvalidateBack@CStaticText@@AAEXXZ ; CStaticText::InvalidateBack

; 145  : }

  0048b	8b e5		 mov	 esp, ebp
  0048d	5d		 pop	 ebp
  0048e	c2 08 00	 ret	 8
?SetVerticalGradient@CStaticText@@QAEXKK@Z ENDP		; CStaticText::SetVerticalGradient
_TEXT	ENDS
PUBLIC	?SetOpaque@CStaticText@@QAEXK@Z			; CStaticText::SetOpaque
; Function compile flags: /Odt
_TEXT	SEGMENT
_this$ = -4						; size = 4
_aBackColor$ = 8					; size = 4
?SetOpaque@CStaticText@@QAEXK@Z PROC NEAR		; CStaticText::SetOpaque
; _this$ = ecx

; 154  : {

  004a0	55		 push	 ebp
  004a1	8b ec		 mov	 ebp, esp
  004a3	51		 push	 ecx
  004a4	89 4d fc	 mov	 DWORD PTR _this$[ebp], ecx

; 155  : 	mPaintStyle = epsOpaque;

  004a7	8b 45 fc	 mov	 eax, DWORD PTR _this$[ebp]
  004aa	c7 40 68 01 00
	00 00		 mov	 DWORD PTR [eax+104], 1

; 156  : 	mBackColor = aBackColor;

  004b1	8b 4d fc	 mov	 ecx, DWORD PTR _this$[ebp]
  004b4	8b 55 08	 mov	 edx, DWORD PTR _aBackColor$[ebp]
  004b7	89 51 58	 mov	 DWORD PTR [ecx+88], edx

; 157  : 	InvalidateBack();

  004ba	8b 4d fc	 mov	 ecx, DWORD PTR _this$[ebp]
  004bd	e8 00 00 00 00	 call	 ?InvalidateBack@CStaticText@@AAEXXZ ; CStaticText::InvalidateBack

; 158  : }

  004c2	8b e5		 mov	 esp, ebp
  004c4	5d		 pop	 ebp
  004c5	c2 04 00	 ret	 4
?SetOpaque@CStaticText@@QAEXK@Z ENDP			; CStaticText::SetOpaque
_TEXT	ENDS
PUBLIC	?SetToolBarBK@CStaticText@@QAEXK@Z		; CStaticText::SetToolBarBK
; Function compile flags: /Odt
_TEXT	SEGMENT
_this$ = -4						; size = 4
_aBorderColor$ = 8					; size = 4
?SetToolBarBK@CStaticText@@QAEXK@Z PROC NEAR		; CStaticText::SetToolBarBK
; _this$ = ecx

; 167  : {

  004d0	55		 push	 ebp
  004d1	8b ec		 mov	 ebp, esp
  004d3	51		 push	 ecx
  004d4	89 4d fc	 mov	 DWORD PTR _this$[ebp], ecx

; 168  : 	mPaintStyle = espToolBar;

  004d7	8b 45 fc	 mov	 eax, DWORD PTR _this$[ebp]
  004da	c7 40 68 04 00
	00 00		 mov	 DWORD PTR [eax+104], 4

; 169  : 	mBorderColor = aBorderColor;

  004e1	8b 4d fc	 mov	 ecx, DWORD PTR _this$[ebp]
  004e4	8b 55 08	 mov	 edx, DWORD PTR _aBorderColor$[ebp]
  004e7	89 51 64	 mov	 DWORD PTR [ecx+100], edx

; 170  : 	InvalidateBack();

  004ea	8b 4d fc	 mov	 ecx, DWORD PTR _this$[ebp]
  004ed	e8 00 00 00 00	 call	 ?InvalidateBack@CStaticText@@AAEXXZ ; CStaticText::InvalidateBack

; 171  : }

  004f2	8b e5		 mov	 esp, ebp
  004f4	5d		 pop	 ebp
  004f5	c2 04 00	 ret	 4
?SetToolBarBK@CStaticText@@QAEXK@Z ENDP			; CStaticText::SetToolBarBK
_TEXT	ENDS
PUBLIC	?SetNormal@CStaticText@@QAEXXZ			; CStaticText::SetNormal
; Function compile flags: /Odt
_TEXT	SEGMENT
_this$ = -4						; size = 4
?SetNormal@CStaticText@@QAEXXZ PROC NEAR		; CStaticText::SetNormal
; _this$ = ecx

; 180  : {

  00500	55		 push	 ebp
  00501	8b ec		 mov	 ebp, esp
  00503	51		 push	 ecx
  00504	89 4d fc	 mov	 DWORD PTR _this$[ebp], ecx

; 181  : 	mPaintStyle = epsNormal;

  00507	8b 45 fc	 mov	 eax, DWORD PTR _this$[ebp]
  0050a	c7 40 68 00 00
	00 00		 mov	 DWORD PTR [eax+104], 0

; 182  : 	InvalidateBack();

  00511	8b 4d fc	 mov	 ecx, DWORD PTR _this$[ebp]
  00514	e8 00 00 00 00	 call	 ?InvalidateBack@CStaticText@@AAEXXZ ; CStaticText::InvalidateBack

; 183  : }

  00519	8b e5		 mov	 esp, ebp
  0051b	5d		 pop	 ebp
  0051c	c3		 ret	 0
?SetNormal@CStaticText@@QAEXXZ ENDP			; CStaticText::SetNormal
_TEXT	ENDS
PUBLIC	?SetInfoHeader@CStaticText@@QAEXXZ		; CStaticText::SetInfoHeader
; Function compile flags: /Odt
_TEXT	SEGMENT
_this$ = -4						; size = 4
?SetInfoHeader@CStaticText@@QAEXXZ PROC NEAR		; CStaticText::SetInfoHeader
; _this$ = ecx

; 185  : {

  00520	55		 push	 ebp
  00521	8b ec		 mov	 ebp, esp
  00523	51		 push	 ecx
  00524	89 4d fc	 mov	 DWORD PTR _this$[ebp], ecx

; 186  : 	mPaintStyle = epsInfoHeader;

  00527	8b 45 fc	 mov	 eax, DWORD PTR _this$[ebp]
  0052a	c7 40 68 05 00
	00 00		 mov	 DWORD PTR [eax+104], 5

; 187  : 	//mBorderColor = aBorderColor;
; 188  : 	//mBackColor = aBackColor;
; 189  : 	InvalidateBack();

  00531	8b 4d fc	 mov	 ecx, DWORD PTR _this$[ebp]
  00534	e8 00 00 00 00	 call	 ?InvalidateBack@CStaticText@@AAEXXZ ; CStaticText::InvalidateBack

; 190  : }

  00539	8b e5		 mov	 esp, ebp
  0053b	5d		 pop	 ebp
  0053c	c3		 ret	 0
?SetInfoHeader@CStaticText@@QAEXXZ ENDP			; CStaticText::SetInfoHeader
_TEXT	ENDS
PUBLIC	?SetTextColor@CStaticText@@QAEXK@Z		; CStaticText::SetTextColor
; Function compile flags: /Odt
_TEXT	SEGMENT
_this$ = -4						; size = 4
_acolTextColor$ = 8					; size = 4
?SetTextColor@CStaticText@@QAEXK@Z PROC NEAR		; CStaticText::SetTextColor
; _this$ = ecx

; 192  : {

  00540	55		 push	 ebp
  00541	8b ec		 mov	 ebp, esp
  00543	51		 push	 ecx
  00544	89 4d fc	 mov	 DWORD PTR _this$[ebp], ecx

; 193  : 	mTextColor = acolTextColor;

  00547	8b 45 fc	 mov	 eax, DWORD PTR _this$[ebp]
  0054a	8b 4d 08	 mov	 ecx, DWORD PTR _acolTextColor$[ebp]
  0054d	89 48 78	 mov	 DWORD PTR [eax+120], ecx

; 194  : 	InvalidateBack();

  00550	8b 4d fc	 mov	 ecx, DWORD PTR _this$[ebp]
  00553	e8 00 00 00 00	 call	 ?InvalidateBack@CStaticText@@AAEXXZ ; CStaticText::InvalidateBack

; 195  : }

  00558	8b e5		 mov	 esp, ebp
  0055a	5d		 pop	 ebp
  0055b	c2 04 00	 ret	 4
?SetTextColor@CStaticText@@QAEXK@Z ENDP			; CStaticText::SetTextColor
_TEXT	ENDS
PUBLIC	?SetTextSize@CStaticText@@QAEXH@Z		; CStaticText::SetTextSize
; Function compile flags: /Odt
_TEXT	SEGMENT
_this$ = -4						; size = 4
_aiFontSize$ = 8					; size = 4
?SetTextSize@CStaticText@@QAEXH@Z PROC NEAR		; CStaticText::SetTextSize
; _this$ = ecx

; 198  : {

  00560	55		 push	 ebp
  00561	8b ec		 mov	 ebp, esp
  00563	51		 push	 ecx
  00564	89 4d fc	 mov	 DWORD PTR _this$[ebp], ecx

; 199  : 	mSize = aiFontSize;

  00567	8b 45 fc	 mov	 eax, DWORD PTR _this$[ebp]
  0056a	8b 4d 08	 mov	 ecx, DWORD PTR _aiFontSize$[ebp]
  0056d	89 88 98 00 00
	00		 mov	 DWORD PTR [eax+152], ecx

; 200  : 	InvalidateBack();

  00573	8b 4d fc	 mov	 ecx, DWORD PTR _this$[ebp]
  00576	e8 00 00 00 00	 call	 ?InvalidateBack@CStaticText@@AAEXXZ ; CStaticText::InvalidateBack

; 201  : }

  0057b	8b e5		 mov	 esp, ebp
  0057d	5d		 pop	 ebp
  0057e	c2 04 00	 ret	 4
?SetTextSize@CStaticText@@QAEXH@Z ENDP			; CStaticText::SetTextSize
_TEXT	ENDS
PUBLIC	?SetTextSet@CStaticText@@QAEXI@Z		; CStaticText::SetTextSet
; Function compile flags: /Odt
_TEXT	SEGMENT
_this$ = -4						; size = 4
_anTextSet$ = 8						; size = 4
?SetTextSet@CStaticText@@QAEXI@Z PROC NEAR		; CStaticText::SetTextSet
; _this$ = ecx

; 203  : {

  00590	55		 push	 ebp
  00591	8b ec		 mov	 ebp, esp
  00593	51		 push	 ecx
  00594	89 4d fc	 mov	 DWORD PTR _this$[ebp], ecx

; 204  : 	mTextSet = anTextSet;

  00597	8b 45 fc	 mov	 eax, DWORD PTR _this$[ebp]
  0059a	8b 4d 08	 mov	 ecx, DWORD PTR _anTextSet$[ebp]
  0059d	89 48 7c	 mov	 DWORD PTR [eax+124], ecx

; 205  : 	InvalidateBack();

  005a0	8b 4d fc	 mov	 ecx, DWORD PTR _this$[ebp]
  005a3	e8 00 00 00 00	 call	 ?InvalidateBack@CStaticText@@AAEXXZ ; CStaticText::InvalidateBack

; 206  : }

  005a8	8b e5		 mov	 esp, ebp
  005aa	5d		 pop	 ebp
  005ab	c2 04 00	 ret	 4
?SetTextSet@CStaticText@@QAEXI@Z ENDP			; CStaticText::SetTextSet
_TEXT	ENDS
PUBLIC	?SetFontBold@CStaticText@@QAEXJ@Z		; CStaticText::SetFontBold
; Function compile flags: /Odt
_TEXT	SEGMENT
_this$ = -4						; size = 4
_alBold$ = 8						; size = 4
?SetFontBold@CStaticText@@QAEXJ@Z PROC NEAR		; CStaticText::SetFontBold
; _this$ = ecx

; 208  : {

  005b0	55		 push	 ebp
  005b1	8b ec		 mov	 ebp, esp
  005b3	51		 push	 ecx
  005b4	89 4d fc	 mov	 DWORD PTR _this$[ebp], ecx

; 209  : 	mlBold = alBold;

  005b7	8b 45 fc	 mov	 eax, DWORD PTR _this$[ebp]
  005ba	8b 4d 08	 mov	 ecx, DWORD PTR _alBold$[ebp]
  005bd	89 88 88 00 00
	00		 mov	 DWORD PTR [eax+136], ecx

; 210  : 	InvalidateBack();

  005c3	8b 4d fc	 mov	 ecx, DWORD PTR _this$[ebp]
  005c6	e8 00 00 00 00	 call	 ?InvalidateBack@CStaticText@@AAEXXZ ; CStaticText::InvalidateBack

; 211  : }

  005cb	8b e5		 mov	 esp, ebp
  005cd	5d		 pop	 ebp
  005ce	c2 04 00	 ret	 4
?SetFontBold@CStaticText@@QAEXJ@Z ENDP			; CStaticText::SetFontBold
_TEXT	ENDS
PUBLIC	?SelfProc@CStaticText@@KGJPAUHWND__@@IIJ@Z	; CStaticText::SelfProc
PUBLIC	?DrawFace@CStaticText@@IAEXPAUHWND__@@PAUHDC__@@@Z ; CStaticText::DrawFace
EXTRN	__imp__DefWindowProcA@16:NEAR
EXTRN	__imp__CallWindowProcA@20:NEAR
EXTRN	__imp__BeginPaint@8:NEAR
EXTRN	__imp__EndPaint@8:NEAR
EXTRN	?FromHandle@CWnd@@SGPAV1@PAUHWND__@@@Z:NEAR	; CWnd::FromHandle
EXTRN	___security_cookie:DWORD
EXTRN	@__security_check_cookie@4:NEAR
; Function compile flags: /Odt
_TEXT	SEGMENT
tv67 = -88						; size = 4
_lpThis$ = -84						; size = 4
_lReturn$ = -80						; size = 4
_hDC$ = -76						; size = 4
_ps$ = -72						; size = 64
__$ArrayPad$ = -4					; size = 4
__$ReturnAddr$ = 4					; size = 4
_hWnd$ = 8						; size = 4
_uMsg$ = 12						; size = 4
_wParam$ = 16						; size = 4
_lParam$ = 20						; size = 4
?SelfProc@CStaticText@@KGJPAUHWND__@@IIJ@Z PROC NEAR	; CStaticText::SelfProc

; 214  : {

  005e0	55		 push	 ebp
  005e1	8b ec		 mov	 ebp, esp
  005e3	83 ec 58	 sub	 esp, 88			; 00000058H
  005e6	a1 00 00 00 00	 mov	 eax, DWORD PTR ___security_cookie
  005eb	89 45 fc	 mov	 DWORD PTR __$ArrayPad$[ebp], eax

; 215  : 	LONG lReturn = 0;

  005ee	c7 45 b0 00 00
	00 00		 mov	 DWORD PTR _lReturn$[ebp], 0

; 216  : 	CStaticText* lpThis = NULL;

  005f5	c7 45 ac 00 00
	00 00		 mov	 DWORD PTR _lpThis$[ebp], 0

; 217  : 	lpThis = (CStaticText*)CWnd::FromHandle(hWnd);

  005fc	8b 45 08	 mov	 eax, DWORD PTR _hWnd$[ebp]
  005ff	50		 push	 eax
  00600	e8 00 00 00 00	 call	 ?FromHandle@CWnd@@SGPAV1@PAUHWND__@@@Z ; CWnd::FromHandle
  00605	89 45 ac	 mov	 DWORD PTR _lpThis$[ebp], eax

; 218  : 	if (lpThis == NULL)

  00608	83 7d ac 00	 cmp	 DWORD PTR _lpThis$[ebp], 0
  0060c	75 08		 jne	 SHORT $L197823

; 219  : 		return lReturn;

  0060e	8b 45 b0	 mov	 eax, DWORD PTR _lReturn$[ebp]
  00611	e9 8b 00 00 00	 jmp	 $L197819
$L197823:

; 220  : 
; 221  : 	PAINTSTRUCT ps; 
; 222  : 	HDC hDC; 
; 223  : 
; 224  : 	switch (uMsg)

  00616	8b 4d 0c	 mov	 ecx, DWORD PTR _uMsg$[ebp]
  00619	89 4d a8	 mov	 DWORD PTR tv67[ebp], ecx
  0061c	83 7d a8 0f	 cmp	 DWORD PTR tv67[ebp], 15	; 0000000fH
  00620	74 0b		 je	 SHORT $L197830
  00622	81 7d a8 85 00
	00 00		 cmp	 DWORD PTR tv67[ebp], 133 ; 00000085H
  00629	74 4f		 je	 SHORT $L197832
  0062b	eb 51		 jmp	 SHORT $L197827
$L197830:

; 225  : 	{
; 226  : 
; 227  : 	case WM_PAINT:
; 228  : 		{
; 229  : 			hDC = ::BeginPaint(hWnd, &ps);

  0062d	8d 55 b8	 lea	 edx, DWORD PTR _ps$[ebp]
  00630	52		 push	 edx
  00631	8b 45 08	 mov	 eax, DWORD PTR _hWnd$[ebp]
  00634	50		 push	 eax
  00635	ff 15 00 00 00
	00		 call	 DWORD PTR __imp__BeginPaint@8
  0063b	89 45 b4	 mov	 DWORD PTR _hDC$[ebp], eax

; 230  : 			lReturn = (LONG)::DefWindowProc(hWnd, uMsg, wParam, lParam);

  0063e	8b 4d 14	 mov	 ecx, DWORD PTR _lParam$[ebp]
  00641	51		 push	 ecx
  00642	8b 55 10	 mov	 edx, DWORD PTR _wParam$[ebp]
  00645	52		 push	 edx
  00646	8b 45 0c	 mov	 eax, DWORD PTR _uMsg$[ebp]
  00649	50		 push	 eax
  0064a	8b 4d 08	 mov	 ecx, DWORD PTR _hWnd$[ebp]
  0064d	51		 push	 ecx
  0064e	ff 15 00 00 00
	00		 call	 DWORD PTR __imp__DefWindowProcA@16
  00654	89 45 b0	 mov	 DWORD PTR _lReturn$[ebp], eax

; 231  : 			lpThis->DrawFace(hWnd,hDC);

  00657	8b 55 b4	 mov	 edx, DWORD PTR _hDC$[ebp]
  0065a	52		 push	 edx
  0065b	8b 45 08	 mov	 eax, DWORD PTR _hWnd$[ebp]
  0065e	50		 push	 eax
  0065f	8b 4d ac	 mov	 ecx, DWORD PTR _lpThis$[ebp]
  00662	e8 00 00 00 00	 call	 ?DrawFace@CStaticText@@IAEXPAUHWND__@@PAUHDC__@@@Z ; CStaticText::DrawFace

; 232  : 			::EndPaint(hWnd,&ps);

  00667	8d 4d b8	 lea	 ecx, DWORD PTR _ps$[ebp]
  0066a	51		 push	 ecx
  0066b	8b 55 08	 mov	 edx, DWORD PTR _hWnd$[ebp]
  0066e	52		 push	 edx
  0066f	ff 15 00 00 00
	00		 call	 DWORD PTR __imp__EndPaint@8

; 233  : 			return lReturn;

  00675	8b 45 b0	 mov	 eax, DWORD PTR _lReturn$[ebp]
  00678	eb 27		 jmp	 SHORT $L197819
$L197832:

; 234  : 		}
; 235  : 	case WM_NCPAINT:
; 236  : 		{
; 237  : 			return 0L;

  0067a	33 c0		 xor	 eax, eax
  0067c	eb 23		 jmp	 SHORT $L197819
$L197827:

; 238  : 		}
; 239  : 	}
; 240  : 
; 241  : 	// 调用原来的回调函数
; 242  : 	lReturn = (LONG)CallWindowProc(lpThis->mWndProc, hWnd, uMsg, wParam, lParam);

  0067e	8b 45 14	 mov	 eax, DWORD PTR _lParam$[ebp]
  00681	50		 push	 eax
  00682	8b 4d 10	 mov	 ecx, DWORD PTR _wParam$[ebp]
  00685	51		 push	 ecx
  00686	8b 55 0c	 mov	 edx, DWORD PTR _uMsg$[ebp]
  00689	52		 push	 edx
  0068a	8b 45 08	 mov	 eax, DWORD PTR _hWnd$[ebp]
  0068d	50		 push	 eax
  0068e	8b 4d ac	 mov	 ecx, DWORD PTR _lpThis$[ebp]
  00691	8b 51 54	 mov	 edx, DWORD PTR [ecx+84]
  00694	52		 push	 edx
  00695	ff 15 00 00 00
	00		 call	 DWORD PTR __imp__CallWindowProcA@20
  0069b	89 45 b0	 mov	 DWORD PTR _lReturn$[ebp], eax

; 243  : 	return lReturn;

  0069e	8b 45 b0	 mov	 eax, DWORD PTR _lReturn$[ebp]
$L197819:

; 244  : }

  006a1	8b 4d fc	 mov	 ecx, DWORD PTR __$ArrayPad$[ebp]
  006a4	e8 00 00 00 00	 call	 @__security_check_cookie@4
  006a9	8b e5		 mov	 esp, ebp
  006ab	5d		 pop	 ebp
  006ac	c2 10 00	 ret	 16			; 00000010H
?SelfProc@CStaticText@@KGJPAUHWND__@@IIJ@Z ENDP		; CStaticText::SelfProc
_TEXT	ENDS
PUBLIC	?GetSafeHwnd@CWnd@@QBEPAUHWND__@@XZ		; CWnd::GetSafeHwnd
EXTRN	__imp__SetWindowLongA@12:NEAR
EXTRN	?ModifyStyle@CWnd@@QAEHKKI@Z:NEAR		; CWnd::ModifyStyle
EXTRN	?PreSubclassWindow@CWnd@@UAEXXZ:NEAR		; CWnd::PreSubclassWindow
; Function compile flags: /Odt
_TEXT	SEGMENT
_this$ = -4						; size = 4
?PreSubclassWindow@CStaticText@@MAEXXZ PROC NEAR	; CStaticText::PreSubclassWindow
; _this$ = ecx

; 247  : {

  006b0	55		 push	 ebp
  006b1	8b ec		 mov	 ebp, esp
  006b3	51		 push	 ecx
  006b4	89 4d fc	 mov	 DWORD PTR _this$[ebp], ecx

; 248  : 	mWndProc = (WNDPROC)SetWindowLong(this->GetSafeHwnd(), GWL_WNDPROC, (LONG)SelfProc);

  006b7	68 00 00 00 00	 push	 OFFSET FLAT:?SelfProc@CStaticText@@KGJPAUHWND__@@IIJ@Z ; CStaticText::SelfProc
  006bc	6a fc		 push	 -4			; fffffffcH
  006be	8b 4d fc	 mov	 ecx, DWORD PTR _this$[ebp]
  006c1	e8 00 00 00 00	 call	 ?GetSafeHwnd@CWnd@@QBEPAUHWND__@@XZ ; CWnd::GetSafeHwnd
  006c6	50		 push	 eax
  006c7	ff 15 00 00 00
	00		 call	 DWORD PTR __imp__SetWindowLongA@12
  006cd	8b 4d fc	 mov	 ecx, DWORD PTR _this$[ebp]
  006d0	89 41 54	 mov	 DWORD PTR [ecx+84], eax

; 249  : 	ModifyStyle(0,SS_NOTIFY);										//使static控件能响应鼠标消息

  006d3	6a 00		 push	 0
  006d5	68 00 01 00 00	 push	 256			; 00000100H
  006da	6a 00		 push	 0
  006dc	8b 4d fc	 mov	 ecx, DWORD PTR _this$[ebp]
  006df	e8 00 00 00 00	 call	 ?ModifyStyle@CWnd@@QAEHKKI@Z ; CWnd::ModifyStyle

; 250  : 	CStatic::PreSubclassWindow();

  006e4	8b 4d fc	 mov	 ecx, DWORD PTR _this$[ebp]
  006e7	e8 00 00 00 00	 call	 ?PreSubclassWindow@CWnd@@UAEXXZ ; CWnd::PreSubclassWindow

; 251  : }

  006ec	8b e5		 mov	 esp, ebp
  006ee	5d		 pop	 ebp
  006ef	c3		 ret	 0
?PreSubclassWindow@CStaticText@@MAEXXZ ENDP		; CStaticText::PreSubclassWindow
_TEXT	ENDS
EXTRN	?DrawLine@CBitMapOperate@@UAEXPAUHDC__@@KMHHHHH@Z:NEAR ; CBitMapOperate::DrawLine
EXTRN	?FromHandle@CDC@@SGPAV1@PAUHDC__@@@Z:NEAR	; CDC::FromHandle
EXTRN	?DrawTextA@CBitMapOperate@@UAEXPAVCDC@@V?$CStringT@DV?$StrTraitMFC_DLL@DV?$ChTraitsCRT@D@ATL@@@@@ATL@@KAAUtagRECT@@I_NIIIV?$basic_string@DU?$char_traits@D@std@@V?$allocator@D@2@@std@@@Z:NEAR ; CBitMapOperate::DrawTextA
EXTRN	?BrightColor@CBitMapOperate@@QAEKKM@Z:NEAR	; CBitMapOperate::BrightColor
EXTRN	?gBitMapOperate@@3VCBitMapOperate@@A:BYTE	; gBitMapOperate
EXTRN	__imp_??B?$CSimpleStringT@D$00@ATL@@QBEPBDXZ:NEAR
EXTRN	?IsWindowEnabled@CWnd@@QBEHXZ:NEAR		; CWnd::IsWindowEnabled
EXTRN	?GetStyle@CWnd@@QBEKXZ:NEAR			; CWnd::GetStyle
EXTRN	?GetExStyle@CWnd@@QBEKXZ:NEAR			; CWnd::GetExStyle
EXTRN	__imp_??0?$basic_string@DU?$char_traits@D@std@@V?$allocator@D@2@@std@@QAE@PBD@Z:NEAR
EXTRN	__imp_??1?$basic_string@DU?$char_traits@D@std@@V?$allocator@D@2@@std@@QAE@XZ:NEAR
EXTRN	__fltused:NEAR
EXTRN	?GetWindowTextA@CWnd@@QBEXAAV?$CStringT@DV?$StrTraitMFC_DLL@DV?$ChTraitsCRT@D@ATL@@@@@ATL@@@Z:NEAR ; CWnd::GetWindowTextA
EXTRN	?FillRectangle@CBitMapOperate@@UAEXPAUHDC__@@UtagRECT@@KKW4ENUM_DrawOrientation@1@HI@Z:NEAR ; CBitMapOperate::FillRectangle
EXTRN	?FillRectangle@CBitMapOperate@@UAEXPAUHDC__@@UtagRECT@@KH@Z:NEAR ; CBitMapOperate::FillRectangle
xdata$x	SEGMENT
$T198604 DD	0ffffffffH
	DD	FLAT:$L198594
	DD	00H
	DD	FLAT:$L198595
	DD	00H
	DD	FLAT:$L198597
$T198600 DD	019930520H
	DD	03H
	DD	FLAT:$T198604
	DD	2 DUP(00H)
	DD	2 DUP(00H)
; Function compile flags: /Odt
xdata$x	ENDS
_TEXT	SEGMENT
tv420 = -180						; size = 4
tv410 = -176						; size = 4
tv421 = -172						; size = 4
tv408 = -168						; size = 4
tv398 = -164						; size = 4
tv70 = -160						; size = 4
tv139 = -156						; size = 4
_this$ = -152						; size = 4
$T198593 = -148						; size = 4
$T198592 = -144						; size = 4
$T198591 = -140						; size = 4
$T198590 = -136						; size = 4
$T198589 = -132						; size = 16
$T198588 = -116						; size = 16
$T198587 = -100						; size = 16
$T198586 = -84						; size = 16
_lRect$197910 = -68					; size = 16
_dwExStyle$ = -52					; size = 4
_dwStyle$ = -48						; size = 4
_dwText$ = -44						; size = 4
_lrcClient$ = -40					; size = 16
_clTextColor$ = -24					; size = 4
_dc$ = -20						; size = 4
_lstrText$ = -16					; size = 4
__$EHRec$ = -12						; size = 12
_hwnd$ = 8						; size = 4
_hDC$ = 12						; size = 4
?DrawFace@CStaticText@@IAEXPAUHWND__@@PAUHDC__@@@Z PROC NEAR ; CStaticText::DrawFace
; _this$ = ecx

; 254  : {

  006f0	55		 push	 ebp
  006f1	8b ec		 mov	 ebp, esp
  006f3	6a ff		 push	 -1
  006f5	68 00 00 00 00	 push	 __ehhandler$?DrawFace@CStaticText@@IAEXPAUHWND__@@PAUHDC__@@@Z
  006fa	64 a1 00 00 00
	00		 mov	 eax, DWORD PTR fs:__except_list
  00700	50		 push	 eax
  00701	64 89 25 00 00
	00 00		 mov	 DWORD PTR fs:__except_list, esp
  00708	81 ec a8 00 00
	00		 sub	 esp, 168		; 000000a8H
  0070e	89 8d 68 ff ff
	ff		 mov	 DWORD PTR _this$[ebp], ecx

; 255  : 	CRect lrcClient;                               

  00714	8d 4d d8	 lea	 ecx, DWORD PTR _lrcClient$[ebp]
  00717	e8 00 00 00 00	 call	 ??0CRect@@QAE@XZ	; CRect::CRect

; 256  : 	GetClientRect(lrcClient);

  0071c	8d 4d d8	 lea	 ecx, DWORD PTR _lrcClient$[ebp]
  0071f	e8 00 00 00 00	 call	 ??BCRect@@QAEPAUtagRECT@@XZ ; CRect::operator tagRECT *
  00724	50		 push	 eax
  00725	8b 8d 68 ff ff
	ff		 mov	 ecx, DWORD PTR _this$[ebp]
  0072b	e8 00 00 00 00	 call	 ?GetClientRect@CWnd@@QBEXPAUtagRECT@@@Z ; CWnd::GetClientRect

; 257  : 
; 258  : 	//获取文本
; 259  : 	CString lstrText;

  00730	8d 4d f0	 lea	 ecx, DWORD PTR _lstrText$[ebp]
  00733	ff 15 00 00 00
	00		 call	 DWORD PTR __imp_??0?$CStringT@DV?$StrTraitMFC_DLL@DV?$ChTraitsCRT@D@ATL@@@@@ATL@@QAE@XZ
  00739	c7 45 fc 00 00
	00 00		 mov	 DWORD PTR __$EHRec$[ebp+8], 0

; 260  : 	if (mbSetText)

  00740	8b 85 68 ff ff
	ff		 mov	 eax, DWORD PTR _this$[ebp]
  00746	0f b6 48 6c	 movzx	 ecx, BYTE PTR [eax+108]
  0074a	85 c9		 test	 ecx, ecx
  0074c	74 15		 je	 SHORT $L197846

; 261  : 		lstrText = mstrText;

  0074e	8b 95 68 ff ff
	ff		 mov	 edx, DWORD PTR _this$[ebp]
  00754	83 c2 70	 add	 edx, 112		; 00000070H
  00757	52		 push	 edx
  00758	8d 4d f0	 lea	 ecx, DWORD PTR _lstrText$[ebp]
  0075b	ff 15 00 00 00
	00		 call	 DWORD PTR __imp_??4?$CStringT@DV?$StrTraitMFC_DLL@DV?$ChTraitsCRT@D@ATL@@@@@ATL@@QAEAAV01@ABV01@@Z

; 262  : 
; 263  : 	else

  00761	eb 0f		 jmp	 SHORT $L197847
$L197846:

; 264  : 		GetWindowText(lstrText);

  00763	8d 45 f0	 lea	 eax, DWORD PTR _lstrText$[ebp]
  00766	50		 push	 eax
  00767	8b 8d 68 ff ff
	ff		 mov	 ecx, DWORD PTR _this$[ebp]
  0076d	e8 00 00 00 00	 call	 ?GetWindowTextA@CWnd@@QBEXAAV?$CStringT@DV?$StrTraitMFC_DLL@DV?$ChTraitsCRT@D@ATL@@@@@ATL@@@Z ; CWnd::GetWindowTextA
$L197847:

; 265  : 
; 266  : 	//转换Static的风格给Text
; 267  : #define MAP_STYLE(src, dest) if (dwStyle & (src)) dwText |= (dest)
; 268  : #define NMAP_STYLE(src, dest) if (!(dwStyle & (src))) dwText |= (dest)
; 269  : 
; 270  : 	DWORD dwStyle = GetStyle(), dwText = 0;

  00772	8b 8d 68 ff ff
	ff		 mov	 ecx, DWORD PTR _this$[ebp]
  00778	e8 00 00 00 00	 call	 ?GetStyle@CWnd@@QBEKXZ	; CWnd::GetStyle
  0077d	89 45 d0	 mov	 DWORD PTR _dwStyle$[ebp], eax
  00780	c7 45 d4 00 00
	00 00		 mov	 DWORD PTR _dwText$[ebp], 0

; 271  : 
; 272  : 	MAP_STYLE(SS_RIGHT,			DT_RIGHT				  );

  00787	8b 4d d0	 mov	 ecx, DWORD PTR _dwStyle$[ebp]
  0078a	83 e1 02	 and	 ecx, 2
  0078d	74 09		 je	 SHORT $L197850
  0078f	8b 55 d4	 mov	 edx, DWORD PTR _dwText$[ebp]
  00792	83 ca 02	 or	 edx, 2
  00795	89 55 d4	 mov	 DWORD PTR _dwText$[ebp], edx
$L197850:

; 273  : 	MAP_STYLE(SS_CENTER,		DT_CENTER				  );

  00798	8b 45 d0	 mov	 eax, DWORD PTR _dwStyle$[ebp]
  0079b	83 e0 01	 and	 eax, 1
  0079e	74 09		 je	 SHORT $L197851
  007a0	8b 4d d4	 mov	 ecx, DWORD PTR _dwText$[ebp]
  007a3	83 c9 01	 or	 ecx, 1
  007a6	89 4d d4	 mov	 DWORD PTR _dwText$[ebp], ecx
$L197851:

; 274  : 	MAP_STYLE(SS_CENTERIMAGE,	DT_VCENTER | DT_SINGLELINE);

  007a9	8b 55 d0	 mov	 edx, DWORD PTR _dwStyle$[ebp]
  007ac	81 e2 00 02 00
	00		 and	 edx, 512		; 00000200H
  007b2	74 09		 je	 SHORT $L197852
  007b4	8b 45 d4	 mov	 eax, DWORD PTR _dwText$[ebp]
  007b7	83 c8 24	 or	 eax, 36			; 00000024H
  007ba	89 45 d4	 mov	 DWORD PTR _dwText$[ebp], eax
$L197852:

; 275  : 	MAP_STYLE(SS_NOPREFIX,		DT_NOPREFIX				  );

  007bd	8b 4d d0	 mov	 ecx, DWORD PTR _dwStyle$[ebp]
  007c0	81 e1 80 00 00
	00		 and	 ecx, 128		; 00000080H
  007c6	74 0c		 je	 SHORT $L197853
  007c8	8b 55 d4	 mov	 edx, DWORD PTR _dwText$[ebp]
  007cb	81 ca 00 08 00
	00		 or	 edx, 2048		; 00000800H
  007d1	89 55 d4	 mov	 DWORD PTR _dwText$[ebp], edx
$L197853:

; 276  : 	MAP_STYLE(SS_WORDELLIPSIS,	DT_WORD_ELLIPSIS		  );

  007d4	8b 45 d0	 mov	 eax, DWORD PTR _dwStyle$[ebp]
  007d7	25 00 c0 00 00	 and	 eax, 49152		; 0000c000H
  007dc	74 0c		 je	 SHORT $L197854
  007de	8b 4d d4	 mov	 ecx, DWORD PTR _dwText$[ebp]
  007e1	81 c9 00 00 04
	00		 or	 ecx, 262144		; 00040000H
  007e7	89 4d d4	 mov	 DWORD PTR _dwText$[ebp], ecx
$L197854:

; 277  : 	MAP_STYLE(SS_ENDELLIPSIS,	DT_END_ELLIPSIS			  );

  007ea	8b 55 d0	 mov	 edx, DWORD PTR _dwStyle$[ebp]
  007ed	81 e2 00 40 00
	00		 and	 edx, 16384		; 00004000H
  007f3	74 0b		 je	 SHORT $L197855
  007f5	8b 45 d4	 mov	 eax, DWORD PTR _dwText$[ebp]
  007f8	0d 00 80 00 00	 or	 eax, 32768		; 00008000H
  007fd	89 45 d4	 mov	 DWORD PTR _dwText$[ebp], eax
$L197855:

; 278  : 	MAP_STYLE(SS_PATHELLIPSIS,	DT_PATH_ELLIPSIS		  );

  00800	8b 4d d0	 mov	 ecx, DWORD PTR _dwStyle$[ebp]
  00803	81 e1 00 80 00
	00		 and	 ecx, 32768		; 00008000H
  00809	74 0c		 je	 SHORT $L197856
  0080b	8b 55 d4	 mov	 edx, DWORD PTR _dwText$[ebp]
  0080e	81 ca 00 40 00
	00		 or	 edx, 16384		; 00004000H
  00814	89 55 d4	 mov	 DWORD PTR _dwText$[ebp], edx
$L197856:

; 279  : 
; 280  : 	NMAP_STYLE(	SS_LEFTNOWORDWRAP |
; 281  : 		SS_CENTERIMAGE    |
; 282  : 		SS_WORDELLIPSIS   |
; 283  : 		SS_ENDELLIPSIS    |
; 284  : 		SS_PATHELLIPSIS, DT_WORDBREAK);

  00817	8b 45 d0	 mov	 eax, DWORD PTR _dwStyle$[ebp]
  0081a	25 0c c2 00 00	 and	 eax, 49676		; 0000c20cH
  0081f	75 09		 jne	 SHORT $L197857
  00821	8b 4d d4	 mov	 ecx, DWORD PTR _dwText$[ebp]
  00824	83 c9 10	 or	 ecx, 16			; 00000010H
  00827	89 4d d4	 mov	 DWORD PTR _dwText$[ebp], ecx
$L197857:

; 285  : 
; 286  : 	switch(mPaintStyle)

  0082a	8b 95 68 ff ff
	ff		 mov	 edx, DWORD PTR _this$[ebp]
  00830	8b 42 68	 mov	 eax, DWORD PTR [edx+104]
  00833	89 85 64 ff ff
	ff		 mov	 DWORD PTR tv139[ebp], eax
  00839	8b 8d 64 ff ff
	ff		 mov	 ecx, DWORD PTR tv139[ebp]
  0083f	83 e9 01	 sub	 ecx, 1
  00842	89 8d 64 ff ff
	ff		 mov	 DWORD PTR tv139[ebp], ecx
  00848	83 bd 64 ff ff
	ff 04		 cmp	 DWORD PTR tv139[ebp], 4
  0084f	0f 87 52 03 00
	00		 ja	 $L197859
  00855	8b 95 64 ff ff
	ff		 mov	 edx, DWORD PTR tv139[ebp]
  0085b	ff 24 95 00 00
	00 00		 jmp	 DWORD PTR $L198602[edx*4]
$L197863:

; 287  : 	{
; 288  : 	case epsNormal:
; 289  : 		break;
; 290  : 	case epsOpaque:
; 291  : 		gBitMapOperate.FillRectangle(hDC, lrcClient, mBackColor, FALSE);

  00862	8b 45 d8	 mov	 eax, DWORD PTR _lrcClient$[ebp]
  00865	89 45 ac	 mov	 DWORD PTR $T198586[ebp], eax
  00868	8b 4d dc	 mov	 ecx, DWORD PTR _lrcClient$[ebp+4]
  0086b	89 4d b0	 mov	 DWORD PTR $T198586[ebp+4], ecx
  0086e	8b 55 e0	 mov	 edx, DWORD PTR _lrcClient$[ebp+8]
  00871	89 55 b4	 mov	 DWORD PTR $T198586[ebp+8], edx
  00874	8b 45 e4	 mov	 eax, DWORD PTR _lrcClient$[ebp+12]
  00877	89 45 b8	 mov	 DWORD PTR $T198586[ebp+12], eax
  0087a	6a 00		 push	 0
  0087c	8b 8d 68 ff ff
	ff		 mov	 ecx, DWORD PTR _this$[ebp]
  00882	8b 51 58	 mov	 edx, DWORD PTR [ecx+88]
  00885	52		 push	 edx
  00886	83 ec 10	 sub	 esp, 16			; 00000010H
  00889	8b c4		 mov	 eax, esp
  0088b	8b 4d ac	 mov	 ecx, DWORD PTR $T198586[ebp]
  0088e	89 08		 mov	 DWORD PTR [eax], ecx
  00890	8b 55 b0	 mov	 edx, DWORD PTR $T198586[ebp+4]
  00893	89 50 04	 mov	 DWORD PTR [eax+4], edx
  00896	8b 4d b4	 mov	 ecx, DWORD PTR $T198586[ebp+8]
  00899	89 48 08	 mov	 DWORD PTR [eax+8], ecx
  0089c	8b 55 b8	 mov	 edx, DWORD PTR $T198586[ebp+12]
  0089f	89 50 0c	 mov	 DWORD PTR [eax+12], edx
  008a2	8b 45 0c	 mov	 eax, DWORD PTR _hDC$[ebp]
  008a5	50		 push	 eax
  008a6	b9 00 00 00 00	 mov	 ecx, OFFSET FLAT:?gBitMapOperate@@3VCBitMapOperate@@A
  008ab	e8 00 00 00 00	 call	 ?FillRectangle@CBitMapOperate@@UAEXPAUHDC__@@UtagRECT@@KH@Z ; CBitMapOperate::FillRectangle

; 292  : 		break;

  008b0	e9 f2 02 00 00	 jmp	 $L197859
$L197865:

; 293  : 	case epsHGradient:
; 294  : 		gBitMapOperate.FillRectangle(hDC, lrcClient, mBeginColor, mEndColor, gBitMapOperate.edoHorizontal, FALSE);

  008b5	8b 4d d8	 mov	 ecx, DWORD PTR _lrcClient$[ebp]
  008b8	89 4d 9c	 mov	 DWORD PTR $T198587[ebp], ecx
  008bb	8b 55 dc	 mov	 edx, DWORD PTR _lrcClient$[ebp+4]
  008be	89 55 a0	 mov	 DWORD PTR $T198587[ebp+4], edx
  008c1	8b 45 e0	 mov	 eax, DWORD PTR _lrcClient$[ebp+8]
  008c4	89 45 a4	 mov	 DWORD PTR $T198587[ebp+8], eax
  008c7	8b 4d e4	 mov	 ecx, DWORD PTR _lrcClient$[ebp+12]
  008ca	89 4d a8	 mov	 DWORD PTR $T198587[ebp+12], ecx
  008cd	6a 01		 push	 1
  008cf	6a 00		 push	 0
  008d1	6a 00		 push	 0
  008d3	8b 95 68 ff ff
	ff		 mov	 edx, DWORD PTR _this$[ebp]
  008d9	8b 42 60	 mov	 eax, DWORD PTR [edx+96]
  008dc	50		 push	 eax
  008dd	8b 8d 68 ff ff
	ff		 mov	 ecx, DWORD PTR _this$[ebp]
  008e3	8b 51 5c	 mov	 edx, DWORD PTR [ecx+92]
  008e6	52		 push	 edx
  008e7	83 ec 10	 sub	 esp, 16			; 00000010H
  008ea	8b c4		 mov	 eax, esp
  008ec	8b 4d 9c	 mov	 ecx, DWORD PTR $T198587[ebp]
  008ef	89 08		 mov	 DWORD PTR [eax], ecx
  008f1	8b 55 a0	 mov	 edx, DWORD PTR $T198587[ebp+4]
  008f4	89 50 04	 mov	 DWORD PTR [eax+4], edx
  008f7	8b 4d a4	 mov	 ecx, DWORD PTR $T198587[ebp+8]
  008fa	89 48 08	 mov	 DWORD PTR [eax+8], ecx
  008fd	8b 55 a8	 mov	 edx, DWORD PTR $T198587[ebp+12]
  00900	89 50 0c	 mov	 DWORD PTR [eax+12], edx
  00903	8b 45 0c	 mov	 eax, DWORD PTR _hDC$[ebp]
  00906	50		 push	 eax
  00907	b9 00 00 00 00	 mov	 ecx, OFFSET FLAT:?gBitMapOperate@@3VCBitMapOperate@@A
  0090c	e8 00 00 00 00	 call	 ?FillRectangle@CBitMapOperate@@UAEXPAUHDC__@@UtagRECT@@KKW4ENUM_DrawOrientation@1@HI@Z ; CBitMapOperate::FillRectangle

; 295  : 		break;

  00911	e9 91 02 00 00	 jmp	 $L197859
$L197867:

; 296  : 	case epsVGradient:
; 297  : 		gBitMapOperate.FillRectangle(hDC, lrcClient, mBeginColor, mEndColor, gBitMapOperate.edoVertical, FALSE);

  00916	8b 4d d8	 mov	 ecx, DWORD PTR _lrcClient$[ebp]
  00919	89 4d 8c	 mov	 DWORD PTR $T198588[ebp], ecx
  0091c	8b 55 dc	 mov	 edx, DWORD PTR _lrcClient$[ebp+4]
  0091f	89 55 90	 mov	 DWORD PTR $T198588[ebp+4], edx
  00922	8b 45 e0	 mov	 eax, DWORD PTR _lrcClient$[ebp+8]
  00925	89 45 94	 mov	 DWORD PTR $T198588[ebp+8], eax
  00928	8b 4d e4	 mov	 ecx, DWORD PTR _lrcClient$[ebp+12]
  0092b	89 4d 98	 mov	 DWORD PTR $T198588[ebp+12], ecx
  0092e	6a 01		 push	 1
  00930	6a 00		 push	 0
  00932	6a 01		 push	 1
  00934	8b 95 68 ff ff
	ff		 mov	 edx, DWORD PTR _this$[ebp]
  0093a	8b 42 60	 mov	 eax, DWORD PTR [edx+96]
  0093d	50		 push	 eax
  0093e	8b 8d 68 ff ff
	ff		 mov	 ecx, DWORD PTR _this$[ebp]
  00944	8b 51 5c	 mov	 edx, DWORD PTR [ecx+92]
  00947	52		 push	 edx
  00948	83 ec 10	 sub	 esp, 16			; 00000010H
  0094b	8b c4		 mov	 eax, esp
  0094d	8b 4d 8c	 mov	 ecx, DWORD PTR $T198588[ebp]
  00950	89 08		 mov	 DWORD PTR [eax], ecx
  00952	8b 55 90	 mov	 edx, DWORD PTR $T198588[ebp+4]
  00955	89 50 04	 mov	 DWORD PTR [eax+4], edx
  00958	8b 4d 94	 mov	 ecx, DWORD PTR $T198588[ebp+8]
  0095b	89 48 08	 mov	 DWORD PTR [eax+8], ecx
  0095e	8b 55 98	 mov	 edx, DWORD PTR $T198588[ebp+12]
  00961	89 50 0c	 mov	 DWORD PTR [eax+12], edx
  00964	8b 45 0c	 mov	 eax, DWORD PTR _hDC$[ebp]
  00967	50		 push	 eax
  00968	b9 00 00 00 00	 mov	 ecx, OFFSET FLAT:?gBitMapOperate@@3VCBitMapOperate@@A
  0096d	e8 00 00 00 00	 call	 ?FillRectangle@CBitMapOperate@@UAEXPAUHDC__@@UtagRECT@@KKW4ENUM_DrawOrientation@1@HI@Z ; CBitMapOperate::FillRectangle

; 298  : 		break;

  00972	e9 30 02 00 00	 jmp	 $L197859
$L197869:

; 299  : 	case espToolBar:
; 300  : 		{
; 301  : 			//上边
; 302  : 			gBitMapOperate.DrawLine(hDC, mBorderColor, 1, lrcClient.left, lrcClient.top, lrcClient.right - 1, lrcClient.top, FALSE);

  00977	6a 00		 push	 0
  00979	8b 4d dc	 mov	 ecx, DWORD PTR _lrcClient$[ebp+4]
  0097c	51		 push	 ecx
  0097d	8b 55 e0	 mov	 edx, DWORD PTR _lrcClient$[ebp+8]
  00980	83 ea 01	 sub	 edx, 1
  00983	52		 push	 edx
  00984	8b 45 dc	 mov	 eax, DWORD PTR _lrcClient$[ebp+4]
  00987	50		 push	 eax
  00988	8b 4d d8	 mov	 ecx, DWORD PTR _lrcClient$[ebp]
  0098b	51		 push	 ecx
  0098c	68 00 00 80 3f	 push	 1065353216		; 3f800000H
  00991	8b 95 68 ff ff
	ff		 mov	 edx, DWORD PTR _this$[ebp]
  00997	8b 42 64	 mov	 eax, DWORD PTR [edx+100]
  0099a	50		 push	 eax
  0099b	8b 4d 0c	 mov	 ecx, DWORD PTR _hDC$[ebp]
  0099e	51		 push	 ecx
  0099f	b9 00 00 00 00	 mov	 ecx, OFFSET FLAT:?gBitMapOperate@@3VCBitMapOperate@@A
  009a4	e8 00 00 00 00	 call	 ?DrawLine@CBitMapOperate@@UAEXPAUHDC__@@KMHHHHH@Z ; CBitMapOperate::DrawLine

; 303  : 			gBitMapOperate.DrawLine(hDC, RGB(255, 255, 255), 1, lrcClient.left, lrcClient.top + 1, lrcClient.right - 1, lrcClient.top + 1, FALSE);

  009a9	6a 00		 push	 0
  009ab	8b 55 dc	 mov	 edx, DWORD PTR _lrcClient$[ebp+4]
  009ae	83 c2 01	 add	 edx, 1
  009b1	52		 push	 edx
  009b2	8b 45 e0	 mov	 eax, DWORD PTR _lrcClient$[ebp+8]
  009b5	83 e8 01	 sub	 eax, 1
  009b8	50		 push	 eax
  009b9	8b 4d dc	 mov	 ecx, DWORD PTR _lrcClient$[ebp+4]
  009bc	83 c1 01	 add	 ecx, 1
  009bf	51		 push	 ecx
  009c0	8b 55 d8	 mov	 edx, DWORD PTR _lrcClient$[ebp]
  009c3	52		 push	 edx
  009c4	68 00 00 80 3f	 push	 1065353216		; 3f800000H
  009c9	68 ff ff ff 00	 push	 16777215		; 00ffffffH
  009ce	8b 45 0c	 mov	 eax, DWORD PTR _hDC$[ebp]
  009d1	50		 push	 eax
  009d2	b9 00 00 00 00	 mov	 ecx, OFFSET FLAT:?gBitMapOperate@@3VCBitMapOperate@@A
  009d7	e8 00 00 00 00	 call	 ?DrawLine@CBitMapOperate@@UAEXPAUHDC__@@KMHHHHH@Z ; CBitMapOperate::DrawLine

; 304  : 			//中间3个间隔
; 305  : 			gBitMapOperate.DrawLine(hDC, mBorderColor, 1, lrcClient.left + 56, lrcClient.top + 10, lrcClient.left + 56, lrcClient.top + 42, FALSE);

  009dc	6a 00		 push	 0
  009de	8b 4d dc	 mov	 ecx, DWORD PTR _lrcClient$[ebp+4]
  009e1	83 c1 2a	 add	 ecx, 42			; 0000002aH
  009e4	51		 push	 ecx
  009e5	8b 55 d8	 mov	 edx, DWORD PTR _lrcClient$[ebp]
  009e8	83 c2 38	 add	 edx, 56			; 00000038H
  009eb	52		 push	 edx
  009ec	8b 45 dc	 mov	 eax, DWORD PTR _lrcClient$[ebp+4]
  009ef	83 c0 0a	 add	 eax, 10			; 0000000aH
  009f2	50		 push	 eax
  009f3	8b 4d d8	 mov	 ecx, DWORD PTR _lrcClient$[ebp]
  009f6	83 c1 38	 add	 ecx, 56			; 00000038H
  009f9	51		 push	 ecx
  009fa	68 00 00 80 3f	 push	 1065353216		; 3f800000H
  009ff	8b 95 68 ff ff
	ff		 mov	 edx, DWORD PTR _this$[ebp]
  00a05	8b 42 64	 mov	 eax, DWORD PTR [edx+100]
  00a08	50		 push	 eax
  00a09	8b 4d 0c	 mov	 ecx, DWORD PTR _hDC$[ebp]
  00a0c	51		 push	 ecx
  00a0d	b9 00 00 00 00	 mov	 ecx, OFFSET FLAT:?gBitMapOperate@@3VCBitMapOperate@@A
  00a12	e8 00 00 00 00	 call	 ?DrawLine@CBitMapOperate@@UAEXPAUHDC__@@KMHHHHH@Z ; CBitMapOperate::DrawLine

; 306  : 			gBitMapOperate.DrawLine(hDC, RGB(255, 255, 255), 1, lrcClient.left + 57, lrcClient.top + 10, lrcClient.left + 57, lrcClient.top + 42, FALSE);

  00a17	6a 00		 push	 0
  00a19	8b 55 dc	 mov	 edx, DWORD PTR _lrcClient$[ebp+4]
  00a1c	83 c2 2a	 add	 edx, 42			; 0000002aH
  00a1f	52		 push	 edx
  00a20	8b 45 d8	 mov	 eax, DWORD PTR _lrcClient$[ebp]
  00a23	83 c0 39	 add	 eax, 57			; 00000039H
  00a26	50		 push	 eax
  00a27	8b 4d dc	 mov	 ecx, DWORD PTR _lrcClient$[ebp+4]
  00a2a	83 c1 0a	 add	 ecx, 10			; 0000000aH
  00a2d	51		 push	 ecx
  00a2e	8b 55 d8	 mov	 edx, DWORD PTR _lrcClient$[ebp]
  00a31	83 c2 39	 add	 edx, 57			; 00000039H
  00a34	52		 push	 edx
  00a35	68 00 00 80 3f	 push	 1065353216		; 3f800000H
  00a3a	68 ff ff ff 00	 push	 16777215		; 00ffffffH
  00a3f	8b 45 0c	 mov	 eax, DWORD PTR _hDC$[ebp]
  00a42	50		 push	 eax
  00a43	b9 00 00 00 00	 mov	 ecx, OFFSET FLAT:?gBitMapOperate@@3VCBitMapOperate@@A
  00a48	e8 00 00 00 00	 call	 ?DrawLine@CBitMapOperate@@UAEXPAUHDC__@@KMHHHHH@Z ; CBitMapOperate::DrawLine

; 307  : 			gBitMapOperate.DrawLine(hDC, mBorderColor, 1, lrcClient.left + 124, lrcClient.top + 10, lrcClient.left + 124, lrcClient.top + 42, FALSE);

  00a4d	6a 00		 push	 0
  00a4f	8b 4d dc	 mov	 ecx, DWORD PTR _lrcClient$[ebp+4]
  00a52	83 c1 2a	 add	 ecx, 42			; 0000002aH
  00a55	51		 push	 ecx
  00a56	8b 55 d8	 mov	 edx, DWORD PTR _lrcClient$[ebp]
  00a59	83 c2 7c	 add	 edx, 124		; 0000007cH
  00a5c	52		 push	 edx
  00a5d	8b 45 dc	 mov	 eax, DWORD PTR _lrcClient$[ebp+4]
  00a60	83 c0 0a	 add	 eax, 10			; 0000000aH
  00a63	50		 push	 eax
  00a64	8b 4d d8	 mov	 ecx, DWORD PTR _lrcClient$[ebp]
  00a67	83 c1 7c	 add	 ecx, 124		; 0000007cH
  00a6a	51		 push	 ecx
  00a6b	68 00 00 80 3f	 push	 1065353216		; 3f800000H
  00a70	8b 95 68 ff ff
	ff		 mov	 edx, DWORD PTR _this$[ebp]
  00a76	8b 42 64	 mov	 eax, DWORD PTR [edx+100]
  00a79	50		 push	 eax
  00a7a	8b 4d 0c	 mov	 ecx, DWORD PTR _hDC$[ebp]
  00a7d	51		 push	 ecx
  00a7e	b9 00 00 00 00	 mov	 ecx, OFFSET FLAT:?gBitMapOperate@@3VCBitMapOperate@@A
  00a83	e8 00 00 00 00	 call	 ?DrawLine@CBitMapOperate@@UAEXPAUHDC__@@KMHHHHH@Z ; CBitMapOperate::DrawLine

; 308  : 			gBitMapOperate.DrawLine(hDC, RGB(255, 255, 255), 1, lrcClient.left + 125, lrcClient.top + 10, lrcClient.left + 125, lrcClient.top + 42, FALSE);

  00a88	6a 00		 push	 0
  00a8a	8b 55 dc	 mov	 edx, DWORD PTR _lrcClient$[ebp+4]
  00a8d	83 c2 2a	 add	 edx, 42			; 0000002aH
  00a90	52		 push	 edx
  00a91	8b 45 d8	 mov	 eax, DWORD PTR _lrcClient$[ebp]
  00a94	83 c0 7d	 add	 eax, 125		; 0000007dH
  00a97	50		 push	 eax
  00a98	8b 4d dc	 mov	 ecx, DWORD PTR _lrcClient$[ebp+4]
  00a9b	83 c1 0a	 add	 ecx, 10			; 0000000aH
  00a9e	51		 push	 ecx
  00a9f	8b 55 d8	 mov	 edx, DWORD PTR _lrcClient$[ebp]
  00aa2	83 c2 7d	 add	 edx, 125		; 0000007dH
  00aa5	52		 push	 edx
  00aa6	68 00 00 80 3f	 push	 1065353216		; 3f800000H
  00aab	68 ff ff ff 00	 push	 16777215		; 00ffffffH
  00ab0	8b 45 0c	 mov	 eax, DWORD PTR _hDC$[ebp]
  00ab3	50		 push	 eax
  00ab4	b9 00 00 00 00	 mov	 ecx, OFFSET FLAT:?gBitMapOperate@@3VCBitMapOperate@@A
  00ab9	e8 00 00 00 00	 call	 ?DrawLine@CBitMapOperate@@UAEXPAUHDC__@@KMHHHHH@Z ; CBitMapOperate::DrawLine

; 309  : 			gBitMapOperate.DrawLine(hDC, mBorderColor, 1, lrcClient.left + 192, lrcClient.top + 10, lrcClient.left + 192, lrcClient.top + 42, FALSE);

  00abe	6a 00		 push	 0
  00ac0	8b 4d dc	 mov	 ecx, DWORD PTR _lrcClient$[ebp+4]
  00ac3	83 c1 2a	 add	 ecx, 42			; 0000002aH
  00ac6	51		 push	 ecx
  00ac7	8b 55 d8	 mov	 edx, DWORD PTR _lrcClient$[ebp]
  00aca	81 c2 c0 00 00
	00		 add	 edx, 192		; 000000c0H
  00ad0	52		 push	 edx
  00ad1	8b 45 dc	 mov	 eax, DWORD PTR _lrcClient$[ebp+4]
  00ad4	83 c0 0a	 add	 eax, 10			; 0000000aH
  00ad7	50		 push	 eax
  00ad8	8b 4d d8	 mov	 ecx, DWORD PTR _lrcClient$[ebp]
  00adb	81 c1 c0 00 00
	00		 add	 ecx, 192		; 000000c0H
  00ae1	51		 push	 ecx
  00ae2	68 00 00 80 3f	 push	 1065353216		; 3f800000H
  00ae7	8b 95 68 ff ff
	ff		 mov	 edx, DWORD PTR _this$[ebp]
  00aed	8b 42 64	 mov	 eax, DWORD PTR [edx+100]
  00af0	50		 push	 eax
  00af1	8b 4d 0c	 mov	 ecx, DWORD PTR _hDC$[ebp]
  00af4	51		 push	 ecx
  00af5	b9 00 00 00 00	 mov	 ecx, OFFSET FLAT:?gBitMapOperate@@3VCBitMapOperate@@A
  00afa	e8 00 00 00 00	 call	 ?DrawLine@CBitMapOperate@@UAEXPAUHDC__@@KMHHHHH@Z ; CBitMapOperate::DrawLine

; 310  : 			gBitMapOperate.DrawLine(hDC, RGB(255, 255, 255), 1, lrcClient.left + 193, lrcClient.top + 10, lrcClient.left + 193, lrcClient.top + 42, FALSE);

  00aff	6a 00		 push	 0
  00b01	8b 55 dc	 mov	 edx, DWORD PTR _lrcClient$[ebp+4]
  00b04	83 c2 2a	 add	 edx, 42			; 0000002aH
  00b07	52		 push	 edx
  00b08	8b 45 d8	 mov	 eax, DWORD PTR _lrcClient$[ebp]
  00b0b	05 c1 00 00 00	 add	 eax, 193		; 000000c1H
  00b10	50		 push	 eax
  00b11	8b 4d dc	 mov	 ecx, DWORD PTR _lrcClient$[ebp+4]
  00b14	83 c1 0a	 add	 ecx, 10			; 0000000aH
  00b17	51		 push	 ecx
  00b18	8b 55 d8	 mov	 edx, DWORD PTR _lrcClient$[ebp]
  00b1b	81 c2 c1 00 00
	00		 add	 edx, 193		; 000000c1H
  00b21	52		 push	 edx
  00b22	68 00 00 80 3f	 push	 1065353216		; 3f800000H
  00b27	68 ff ff ff 00	 push	 16777215		; 00ffffffH
  00b2c	8b 45 0c	 mov	 eax, DWORD PTR _hDC$[ebp]
  00b2f	50		 push	 eax
  00b30	b9 00 00 00 00	 mov	 ecx, OFFSET FLAT:?gBitMapOperate@@3VCBitMapOperate@@A
  00b35	e8 00 00 00 00	 call	 ?DrawLine@CBitMapOperate@@UAEXPAUHDC__@@KMHHHHH@Z ; CBitMapOperate::DrawLine

; 311  : 			return;

  00b3a	c7 45 fc ff ff
	ff ff		 mov	 DWORD PTR __$EHRec$[ebp+8], -1
  00b41	8d 4d f0	 lea	 ecx, DWORD PTR _lstrText$[ebp]
  00b44	ff 15 00 00 00
	00		 call	 DWORD PTR __imp_??1?$CStringT@DV?$StrTraitMFC_DLL@DV?$ChTraitsCRT@D@ATL@@@@@ATL@@QAE@XZ
  00b4a	e9 64 02 00 00	 jmp	 $L197843
$L197894:

; 312  : 		}
; 313  : 		break;
; 314  : 	case epsInfoHeader:
; 315  : 		{
; 316  : 			gBitMapOperate.FillRectangle(hDC,lrcClient,RGB(245,249,255),RGB(255,255,255),gBitMapOperate.edoVertical,false);

  00b4f	8b 4d d8	 mov	 ecx, DWORD PTR _lrcClient$[ebp]
  00b52	89 8d 7c ff ff
	ff		 mov	 DWORD PTR $T198589[ebp], ecx
  00b58	8b 55 dc	 mov	 edx, DWORD PTR _lrcClient$[ebp+4]
  00b5b	89 55 80	 mov	 DWORD PTR $T198589[ebp+4], edx
  00b5e	8b 45 e0	 mov	 eax, DWORD PTR _lrcClient$[ebp+8]
  00b61	89 45 84	 mov	 DWORD PTR $T198589[ebp+8], eax
  00b64	8b 4d e4	 mov	 ecx, DWORD PTR _lrcClient$[ebp+12]
  00b67	89 4d 88	 mov	 DWORD PTR $T198589[ebp+12], ecx
  00b6a	6a 01		 push	 1
  00b6c	6a 00		 push	 0
  00b6e	6a 01		 push	 1
  00b70	68 ff ff ff 00	 push	 16777215		; 00ffffffH
  00b75	68 f5 f9 ff 00	 push	 16775669		; 00fff9f5H
  00b7a	83 ec 10	 sub	 esp, 16			; 00000010H
  00b7d	8b d4		 mov	 edx, esp
  00b7f	8b 85 7c ff ff
	ff		 mov	 eax, DWORD PTR $T198589[ebp]
  00b85	89 02		 mov	 DWORD PTR [edx], eax
  00b87	8b 4d 80	 mov	 ecx, DWORD PTR $T198589[ebp+4]
  00b8a	89 4a 04	 mov	 DWORD PTR [edx+4], ecx
  00b8d	8b 45 84	 mov	 eax, DWORD PTR $T198589[ebp+8]
  00b90	89 42 08	 mov	 DWORD PTR [edx+8], eax
  00b93	8b 4d 88	 mov	 ecx, DWORD PTR $T198589[ebp+12]
  00b96	89 4a 0c	 mov	 DWORD PTR [edx+12], ecx
  00b99	8b 55 0c	 mov	 edx, DWORD PTR _hDC$[ebp]
  00b9c	52		 push	 edx
  00b9d	b9 00 00 00 00	 mov	 ecx, OFFSET FLAT:?gBitMapOperate@@3VCBitMapOperate@@A
  00ba2	e8 00 00 00 00	 call	 ?FillRectangle@CBitMapOperate@@UAEXPAUHDC__@@UtagRECT@@KKW4ENUM_DrawOrientation@1@HI@Z ; CBitMapOperate::FillRectangle
$L197859:

; 317  : 		}
; 318  : 		break;
; 319  : 	}
; 320  : 	DWORD dwExStyle = GetExStyle();

  00ba7	8b 8d 68 ff ff
	ff		 mov	 ecx, DWORD PTR _this$[ebp]
  00bad	e8 00 00 00 00	 call	 ?GetExStyle@CWnd@@QBEKXZ ; CWnd::GetExStyle
  00bb2	89 45 cc	 mov	 DWORD PTR _dwExStyle$[ebp], eax

; 321  : 	if (dwExStyle & WS_EX_CLIENTEDGE)

  00bb5	8b 45 cc	 mov	 eax, DWORD PTR _dwExStyle$[ebp]
  00bb8	25 00 02 00 00	 and	 eax, 512		; 00000200H
  00bbd	74 21		 je	 SHORT $L197909

; 322  : 	{
; 323  : 		CRect lRect = lrcClient;

  00bbf	8b 4d d8	 mov	 ecx, DWORD PTR _lrcClient$[ebp]
  00bc2	89 4d bc	 mov	 DWORD PTR _lRect$197910[ebp], ecx
  00bc5	8b 55 dc	 mov	 edx, DWORD PTR _lrcClient$[ebp+4]
  00bc8	89 55 c0	 mov	 DWORD PTR _lRect$197910[ebp+4], edx
  00bcb	8b 45 e0	 mov	 eax, DWORD PTR _lrcClient$[ebp+8]
  00bce	89 45 c4	 mov	 DWORD PTR _lRect$197910[ebp+8], eax
  00bd1	8b 4d e4	 mov	 ecx, DWORD PTR _lrcClient$[ebp+12]
  00bd4	89 4d c8	 mov	 DWORD PTR _lRect$197910[ebp+12], ecx

; 324  : 		lRect.bottom -= 1;

  00bd7	8b 55 c8	 mov	 edx, DWORD PTR _lRect$197910[ebp+12]
  00bda	83 ea 01	 sub	 edx, 1
  00bdd	89 55 c8	 mov	 DWORD PTR _lRect$197910[ebp+12], edx
$L197909:

; 325  : 
; 326  : 		//if (IsWindowEnabled())
; 327  : 		//	gGdiExOperate.FillRectangle(hDC, lRect, RGB(125, 189, 237), FALSE);
; 328  : 		//else
; 329  : 		//	gGdiExOperate.FillRectangle(hDC, lRect, BrightColor(0xc0c0c0, 0.36), FALSE);
; 330  : 	}
; 331  : 
; 332  : 	CDC* dc = CDC::FromHandle(hDC);

  00be0	8b 45 0c	 mov	 eax, DWORD PTR _hDC$[ebp]
  00be3	50		 push	 eax
  00be4	e8 00 00 00 00	 call	 ?FromHandle@CDC@@SGPAV1@PAUHDC__@@@Z ; CDC::FromHandle
  00be9	89 45 ec	 mov	 DWORD PTR _dc$[ebp], eax

; 333  : 
; 334  : 	//获取当前字体
; 335  : 	/*CFont *lpFont, *lpOldFont;
; 336  : 	CFont loUseFont;
; 337  : 	LOGFONT lolf;
; 338  : 	lpFont = GetFont();
; 339  : 
; 340  : 	COLORREF clTextColor = 0;
; 341  : 
; 342  : 	if (lpFont == NULL)
; 343  : 	{
; 344  : 	lpFont = GetParent()->GetFont();
; 345  : 	}*/
; 346  : 	//if (lpFont != NULL)
; 347  : 	//{
; 348  : 
; 349  : 	//	lpFont->GetLogFont(&lolf);
; 350  : 	//	if (miFontSize != 0)
; 351  : 	//	{
; 352  : 	//		lolf.lfHeight = miFontSize/* * 20*/;
; 353  : 	//	}
; 354  : 	//	if (mlBold != 0)
; 355  : 	//	{
; 356  : 	//		lolf.lfWeight = mlBold;
; 357  : 	//	}
; 358  : 	/*if(mbMouseOver == true&&mbUrl == true)
; 359  : 	{
; 360  : 	lolf.lfUnderline = true;
; 361  : 	clTextColor = RGB(0,44,133);
; 362  : 	}
; 363  : 	else
; 364  : 	{
; 365  : 	lolf.lfUnderline = false;
; 366  : 	clTextColor = mTextColor;
; 367  : 	}*/
; 368  : 	/*	loUseFont.CreateFontIndirect(&lolf);
; 369  : 	lpFont = &loUseFont;
; 370  : 	lpOldFont = dc->SelectObject(lpFont);*/
; 371  : 	//}
; 372  : 	COLORREF clTextColor = 0;

  00bec	c7 45 e8 00 00
	00 00		 mov	 DWORD PTR _clTextColor$[ebp], 0

; 373  : 	dc->SetBkMode(TRANSPARENT);					//设置背景透明

  00bf3	6a 01		 push	 1
  00bf5	8b 4d ec	 mov	 ecx, DWORD PTR _dc$[ebp]
  00bf8	e8 00 00 00 00	 call	 ?SetBkMode@CDC@@QAEHH@Z	; CDC::SetBkMode

; 374  : 	if (IsWindowEnabled())

  00bfd	8b 8d 68 ff ff
	ff		 mov	 ecx, DWORD PTR _this$[ebp]
  00c03	e8 00 00 00 00	 call	 ?IsWindowEnabled@CWnd@@QBEHXZ ; CWnd::IsWindowEnabled
  00c08	85 c0		 test	 eax, eax
  00c0a	74 11		 je	 SHORT $L197913

; 375  : 	{
; 376  : 		dc->SetTextColor(clTextColor);				//设置文字颜色

  00c0c	8b 4d e8	 mov	 ecx, DWORD PTR _clTextColor$[ebp]
  00c0f	51		 push	 ecx
  00c10	8b 55 ec	 mov	 edx, DWORD PTR _dc$[ebp]
  00c13	8b 02		 mov	 eax, DWORD PTR [edx]
  00c15	8b 4d ec	 mov	 ecx, DWORD PTR _dc$[ebp]
  00c18	ff 50 38	 call	 DWORD PTR [eax+56]

; 377  : 	}
; 378  : 	else

  00c1b	eb 20		 jmp	 SHORT $L197914
$L197913:

; 379  : 	{
; 380  : 		dc->SetTextColor(gBitMapOperate.BrightColor( RGB( 192,192,192), 0.40 ) );

  00c1d	68 cd cc cc 3e	 push	 1053609165		; 3ecccccdH
  00c22	68 c0 c0 c0 00	 push	 12632256		; 00c0c0c0H
  00c27	b9 00 00 00 00	 mov	 ecx, OFFSET FLAT:?gBitMapOperate@@3VCBitMapOperate@@A
  00c2c	e8 00 00 00 00	 call	 ?BrightColor@CBitMapOperate@@QAEKKM@Z ; CBitMapOperate::BrightColor
  00c31	50		 push	 eax
  00c32	8b 4d ec	 mov	 ecx, DWORD PTR _dc$[ebp]
  00c35	8b 11		 mov	 edx, DWORD PTR [ecx]
  00c37	8b 4d ec	 mov	 ecx, DWORD PTR _dc$[ebp]
  00c3a	ff 52 38	 call	 DWORD PTR [edx+56]
$L197914:

; 381  : 	}
; 382  : 
; 383  : 
; 384  : 	if(mbUrl)

  00c3d	8b 85 68 ff ff
	ff		 mov	 eax, DWORD PTR _this$[ebp]
  00c43	0f b6 88 8d 00
	00 00		 movzx	 ecx, BYTE PTR [eax+141]
  00c4a	85 c9		 test	 ecx, ecx
  00c4c	0f 84 ab 00 00
	00		 je	 $L197921

; 385  : 	{
; 386  : 		gBitMapOperate.DrawText( dc,lstrText,mTextColor,lrcClient,mFormat,true,mWidth,mSize,mTextSet,(string)m_fontName );

  00c52	8b 8d 68 ff ff
	ff		 mov	 ecx, DWORD PTR _this$[ebp]
  00c58	81 c1 9c 00 00
	00		 add	 ecx, 156		; 0000009cH
  00c5e	ff 15 00 00 00
	00		 call	 DWORD PTR __imp_??B?$CSimpleStringT@D$00@ATL@@QBEPBDXZ
  00c64	83 ec 1c	 sub	 esp, 28			; 0000001cH
  00c67	8b cc		 mov	 ecx, esp
  00c69	89 a5 78 ff ff
	ff		 mov	 DWORD PTR $T198590[ebp], esp
  00c6f	50		 push	 eax
  00c70	ff 15 00 00 00
	00		 call	 DWORD PTR __imp_??0?$basic_string@DU?$char_traits@D@std@@V?$allocator@D@2@@std@@QAE@PBD@Z
  00c76	89 85 60 ff ff
	ff		 mov	 DWORD PTR tv70[ebp], eax
  00c7c	8b 95 60 ff ff
	ff		 mov	 edx, DWORD PTR tv70[ebp]
  00c82	89 95 5c ff ff
	ff		 mov	 DWORD PTR tv398[ebp], edx
  00c88	c6 45 fc 01	 mov	 BYTE PTR __$EHRec$[ebp+8], 1
  00c8c	8b 85 68 ff ff
	ff		 mov	 eax, DWORD PTR _this$[ebp]
  00c92	8b 48 7c	 mov	 ecx, DWORD PTR [eax+124]
  00c95	51		 push	 ecx
  00c96	8b 95 68 ff ff
	ff		 mov	 edx, DWORD PTR _this$[ebp]
  00c9c	8b 82 98 00 00
	00		 mov	 eax, DWORD PTR [edx+152]
  00ca2	50		 push	 eax
  00ca3	8b 8d 68 ff ff
	ff		 mov	 ecx, DWORD PTR _this$[ebp]
  00ca9	8b 91 94 00 00
	00		 mov	 edx, DWORD PTR [ecx+148]
  00caf	52		 push	 edx
  00cb0	6a 01		 push	 1
  00cb2	8b 85 68 ff ff
	ff		 mov	 eax, DWORD PTR _this$[ebp]
  00cb8	8b 88 90 00 00
	00		 mov	 ecx, DWORD PTR [eax+144]
  00cbe	51		 push	 ecx
  00cbf	8d 55 d8	 lea	 edx, DWORD PTR _lrcClient$[ebp]
  00cc2	52		 push	 edx
  00cc3	8b 85 68 ff ff
	ff		 mov	 eax, DWORD PTR _this$[ebp]
  00cc9	8b 48 78	 mov	 ecx, DWORD PTR [eax+120]
  00ccc	51		 push	 ecx
  00ccd	51		 push	 ecx
  00cce	8b cc		 mov	 ecx, esp
  00cd0	89 a5 74 ff ff
	ff		 mov	 DWORD PTR $T198591[ebp], esp
  00cd6	8d 55 f0	 lea	 edx, DWORD PTR _lstrText$[ebp]
  00cd9	52		 push	 edx
  00cda	ff 15 00 00 00
	00		 call	 DWORD PTR __imp_??0?$CStringT@DV?$StrTraitMFC_DLL@DV?$ChTraitsCRT@D@ATL@@@@@ATL@@QAE@ABV01@@Z
  00ce0	89 85 58 ff ff
	ff		 mov	 DWORD PTR tv408[ebp], eax
  00ce6	8b 45 ec	 mov	 eax, DWORD PTR _dc$[ebp]
  00ce9	50		 push	 eax
  00cea	c6 45 fc 00	 mov	 BYTE PTR __$EHRec$[ebp+8], 0
  00cee	b9 00 00 00 00	 mov	 ecx, OFFSET FLAT:?gBitMapOperate@@3VCBitMapOperate@@A
  00cf3	e8 00 00 00 00	 call	 ?DrawTextA@CBitMapOperate@@UAEXPAVCDC@@V?$CStringT@DV?$StrTraitMFC_DLL@DV?$ChTraitsCRT@D@ATL@@@@@ATL@@KAAUtagRECT@@I_NIIIV?$basic_string@DU?$char_traits@D@std@@V?$allocator@D@2@@std@@@Z ; CBitMapOperate::DrawTextA

; 387  : 	}
; 388  : 	else

  00cf8	e9 a6 00 00 00	 jmp	 $L197926
$L197921:

; 389  : 	{
; 390  : 		gBitMapOperate.DrawText( dc,lstrText,mTextColor,lrcClient,mFormat,false,mWidth,mSize,mTextSet,(string)m_fontName );

  00cfd	8b 8d 68 ff ff
	ff		 mov	 ecx, DWORD PTR _this$[ebp]
  00d03	81 c1 9c 00 00
	00		 add	 ecx, 156		; 0000009cH
  00d09	ff 15 00 00 00
	00		 call	 DWORD PTR __imp_??B?$CSimpleStringT@D$00@ATL@@QBEPBDXZ
  00d0f	83 ec 1c	 sub	 esp, 28			; 0000001cH
  00d12	8b cc		 mov	 ecx, esp
  00d14	89 a5 70 ff ff
	ff		 mov	 DWORD PTR $T198592[ebp], esp
  00d1a	50		 push	 eax
  00d1b	ff 15 00 00 00
	00		 call	 DWORD PTR __imp_??0?$basic_string@DU?$char_traits@D@std@@V?$allocator@D@2@@std@@QAE@PBD@Z
  00d21	89 85 54 ff ff
	ff		 mov	 DWORD PTR tv421[ebp], eax
  00d27	8b 8d 54 ff ff
	ff		 mov	 ecx, DWORD PTR tv421[ebp]
  00d2d	89 8d 50 ff ff
	ff		 mov	 DWORD PTR tv410[ebp], ecx
  00d33	c6 45 fc 02	 mov	 BYTE PTR __$EHRec$[ebp+8], 2
  00d37	8b 95 68 ff ff
	ff		 mov	 edx, DWORD PTR _this$[ebp]
  00d3d	8b 42 7c	 mov	 eax, DWORD PTR [edx+124]
  00d40	50		 push	 eax
  00d41	8b 8d 68 ff ff
	ff		 mov	 ecx, DWORD PTR _this$[ebp]
  00d47	8b 91 98 00 00
	00		 mov	 edx, DWORD PTR [ecx+152]
  00d4d	52		 push	 edx
  00d4e	8b 85 68 ff ff
	ff		 mov	 eax, DWORD PTR _this$[ebp]
  00d54	8b 88 94 00 00
	00		 mov	 ecx, DWORD PTR [eax+148]
  00d5a	51		 push	 ecx
  00d5b	6a 00		 push	 0
  00d5d	8b 95 68 ff ff
	ff		 mov	 edx, DWORD PTR _this$[ebp]
  00d63	8b 82 90 00 00
	00		 mov	 eax, DWORD PTR [edx+144]
  00d69	50		 push	 eax
  00d6a	8d 4d d8	 lea	 ecx, DWORD PTR _lrcClient$[ebp]
  00d6d	51		 push	 ecx
  00d6e	8b 95 68 ff ff
	ff		 mov	 edx, DWORD PTR _this$[ebp]
  00d74	8b 42 78	 mov	 eax, DWORD PTR [edx+120]
  00d77	50		 push	 eax
  00d78	51		 push	 ecx
  00d79	8b cc		 mov	 ecx, esp
  00d7b	89 a5 6c ff ff
	ff		 mov	 DWORD PTR $T198593[ebp], esp
  00d81	8d 55 f0	 lea	 edx, DWORD PTR _lstrText$[ebp]
  00d84	52		 push	 edx
  00d85	ff 15 00 00 00
	00		 call	 DWORD PTR __imp_??0?$CStringT@DV?$StrTraitMFC_DLL@DV?$ChTraitsCRT@D@ATL@@@@@ATL@@QAE@ABV01@@Z
  00d8b	89 85 4c ff ff
	ff		 mov	 DWORD PTR tv420[ebp], eax
  00d91	8b 45 ec	 mov	 eax, DWORD PTR _dc$[ebp]
  00d94	50		 push	 eax
  00d95	c6 45 fc 00	 mov	 BYTE PTR __$EHRec$[ebp+8], 0
  00d99	b9 00 00 00 00	 mov	 ecx, OFFSET FLAT:?gBitMapOperate@@3VCBitMapOperate@@A
  00d9e	e8 00 00 00 00	 call	 ?DrawTextA@CBitMapOperate@@UAEXPAVCDC@@V?$CStringT@DV?$StrTraitMFC_DLL@DV?$ChTraitsCRT@D@ATL@@@@@ATL@@KAAUtagRECT@@I_NIIIV?$basic_string@DU?$char_traits@D@std@@V?$allocator@D@2@@std@@@Z ; CBitMapOperate::DrawTextA
$L197926:

; 391  : 	}
; 392  : 
; 393  : }

  00da3	c7 45 fc ff ff
	ff ff		 mov	 DWORD PTR __$EHRec$[ebp+8], -1
  00daa	8d 4d f0	 lea	 ecx, DWORD PTR _lstrText$[ebp]
  00dad	ff 15 00 00 00
	00		 call	 DWORD PTR __imp_??1?$CStringT@DV?$StrTraitMFC_DLL@DV?$ChTraitsCRT@D@ATL@@@@@ATL@@QAE@XZ
$L197843:
  00db3	8b 4d f4	 mov	 ecx, DWORD PTR __$EHRec$[ebp]
  00db6	64 89 0d 00 00
	00 00		 mov	 DWORD PTR fs:__except_list, ecx
  00dbd	8b e5		 mov	 esp, ebp
  00dbf	5d		 pop	 ebp
  00dc0	c2 08 00	 ret	 8
$L198602:
  00dc3	00 00 00 00	 DD	 $L197863
  00dc7	00 00 00 00	 DD	 $L197865
  00dcb	00 00 00 00	 DD	 $L197867
  00dcf	00 00 00 00	 DD	 $L197869
  00dd3	00 00 00 00	 DD	 $L197894
_TEXT	ENDS
text$x	SEGMENT
$L198594:
  00068	8d 4d f0	 lea	 ecx, DWORD PTR _lstrText$[ebp]
  0006b	ff 25 00 00 00
	00		 jmp	 DWORD PTR __imp_??1?$CStringT@DV?$StrTraitMFC_DLL@DV?$ChTraitsCRT@D@ATL@@@@@ATL@@QAE@XZ
$L198595:
  00071	8b 8d 78 ff ff
	ff		 mov	 ecx, DWORD PTR $T198590[ebp]
  00077	ff 25 00 00 00
	00		 jmp	 DWORD PTR __imp_??1?$basic_string@DU?$char_traits@D@std@@V?$allocator@D@2@@std@@QAE@XZ
$L198597:
  0007d	8b 8d 70 ff ff
	ff		 mov	 ecx, DWORD PTR $T198592[ebp]
  00083	ff 25 00 00 00
	00		 jmp	 DWORD PTR __imp_??1?$basic_string@DU?$char_traits@D@std@@V?$allocator@D@2@@std@@QAE@XZ
__ehhandler$?DrawFace@CStaticText@@IAEXPAUHWND__@@PAUHDC__@@@Z:
  00089	b8 00 00 00 00	 mov	 eax, OFFSET FLAT:$T198600
  0008e	e9 00 00 00 00	 jmp	 ___CxxFrameHandler
text$x	ENDS
?DrawFace@CStaticText@@IAEXPAUHWND__@@PAUHDC__@@@Z ENDP	; CStaticText::DrawFace
PUBLIC	?EnableWindow@CStaticText@@QAEHH@Z		; CStaticText::EnableWindow
EXTRN	?EnableWindow@CWnd@@QAEHH@Z:NEAR		; CWnd::EnableWindow
; Function compile flags: /Odt
_TEXT	SEGMENT
_this$ = -4						; size = 4
_aValue$ = 8						; size = 4
?EnableWindow@CStaticText@@QAEHH@Z PROC NEAR		; CStaticText::EnableWindow
; _this$ = ecx

; 396  : {

  00de0	55		 push	 ebp
  00de1	8b ec		 mov	 ebp, esp
  00de3	51		 push	 ecx
  00de4	89 4d fc	 mov	 DWORD PTR _this$[ebp], ecx

; 397  : 	InvalidateBack();

  00de7	8b 4d fc	 mov	 ecx, DWORD PTR _this$[ebp]
  00dea	e8 00 00 00 00	 call	 ?InvalidateBack@CStaticText@@AAEXXZ ; CStaticText::InvalidateBack

; 398  : 	return CStatic::EnableWindow(aValue);

  00def	8b 45 08	 mov	 eax, DWORD PTR _aValue$[ebp]
  00df2	50		 push	 eax
  00df3	8b 4d fc	 mov	 ecx, DWORD PTR _this$[ebp]
  00df6	e8 00 00 00 00	 call	 ?EnableWindow@CWnd@@QAEHH@Z ; CWnd::EnableWindow

; 399  : 
; 400  : }

  00dfb	8b e5		 mov	 esp, ebp
  00dfd	5d		 pop	 ebp
  00dfe	c2 04 00	 ret	 4
?EnableWindow@CStaticText@@QAEHH@Z ENDP			; CStaticText::EnableWindow
; Function compile flags: /Odt
_this$ = -4						; size = 4
_pDC$ = 8						; size = 4
?OnEraseBkgnd@CStaticText@@IAEHPAVCDC@@@Z PROC NEAR	; CStaticText::OnEraseBkgnd
; _this$ = ecx

; 403  : {

  00e10	55		 push	 ebp
  00e11	8b ec		 mov	 ebp, esp
  00e13	51		 push	 ecx
  00e14	89 4d fc	 mov	 DWORD PTR _this$[ebp], ecx

; 404  : 	return TRUE;

  00e17	b8 01 00 00 00	 mov	 eax, 1

; 405  : }

  00e1c	8b e5		 mov	 esp, ebp
  00e1e	5d		 pop	 ebp
  00e1f	c2 04 00	 ret	 4
?OnEraseBkgnd@CStaticText@@IAEHPAVCDC@@@Z ENDP		; CStaticText::OnEraseBkgnd
_TEXT	ENDS
PUBLIC	?SetTextTop@CStaticText@@QAEXH@Z		; CStaticText::SetTextTop
; Function compile flags: /Odt
_TEXT	SEGMENT
_this$ = -4						; size = 4
_aiValue$ = 8						; size = 4
?SetTextTop@CStaticText@@QAEXH@Z PROC NEAR		; CStaticText::SetTextTop
; _this$ = ecx

; 408  : {

  00e30	55		 push	 ebp
  00e31	8b ec		 mov	 ebp, esp
  00e33	51		 push	 ecx
  00e34	89 4d fc	 mov	 DWORD PTR _this$[ebp], ecx

; 409  : 	miTextTop = aiValue;

  00e37	8b 45 fc	 mov	 eax, DWORD PTR _this$[ebp]
  00e3a	8b 4d 08	 mov	 ecx, DWORD PTR _aiValue$[ebp]
  00e3d	89 88 84 00 00
	00		 mov	 DWORD PTR [eax+132], ecx

; 410  : 	InvalidateBack();

  00e43	8b 4d fc	 mov	 ecx, DWORD PTR _this$[ebp]
  00e46	e8 00 00 00 00	 call	 ?InvalidateBack@CStaticText@@AAEXXZ ; CStaticText::InvalidateBack

; 411  : }

  00e4b	8b e5		 mov	 esp, ebp
  00e4d	5d		 pop	 ebp
  00e4e	c2 04 00	 ret	 4
?SetTextTop@CStaticText@@QAEXH@Z ENDP			; CStaticText::SetTextTop
_TEXT	ENDS
PUBLIC	?GetWindowRect@CWnd@@QBEXPAUtagRECT@@@Z		; CWnd::GetWindowRect
PUBLIC	?SetCapture@CWnd@@QAEPAV1@XZ			; CWnd::SetCapture
PUBLIC	?PtInRect@CRect@@QBEHUtagPOINT@@@Z		; CRect::PtInRect
PUBLIC	?MouseLeave@CStaticText@@AAEXXZ			; CStaticText::MouseLeave
PUBLIC	?MouseEnter@CStaticText@@AAEXXZ			; CStaticText::MouseEnter
PUBLIC	?OnMouseMove@CWnd@@IAEXIVCPoint@@@Z		; CWnd::OnMouseMove
EXTRN	__imp__SetCursor@4:NEAR
EXTRN	__imp__GetCursorPos@4:NEAR
EXTRN	__imp__ReleaseCapture@0:NEAR
EXTRN	__imp__LoadCursorA@8:NEAR
; Function compile flags: /Odt
_TEXT	SEGMENT
_this$ = -28						; size = 4
_mpoint$ = -24						; size = 8
_rect$ = -16						; size = 16
_nFlags$ = 8						; size = 4
_point$ = 12						; size = 8
?OnMouseMove@CStaticText@@IAEXIVCPoint@@@Z PROC NEAR	; CStaticText::OnMouseMove
; _this$ = ecx

; 414  : {

  00e60	55		 push	 ebp
  00e61	8b ec		 mov	 ebp, esp
  00e63	83 ec 1c	 sub	 esp, 28			; 0000001cH
  00e66	89 4d e4	 mov	 DWORD PTR _this$[ebp], ecx

; 415  : 	SetCapture();													//捕捉鼠标

  00e69	8b 4d e4	 mov	 ecx, DWORD PTR _this$[ebp]
  00e6c	e8 00 00 00 00	 call	 ?SetCapture@CWnd@@QAEPAV1@XZ ; CWnd::SetCapture

; 416  : #ifndef IDC_HAND
; 417  : #define IDC_HAND            MAKEINTRESOURCE(32649)
; 418  : #endif
; 419  : 	if(mbUrl)

  00e71	8b 45 e4	 mov	 eax, DWORD PTR _this$[ebp]
  00e74	0f b6 88 8d 00
	00 00		 movzx	 ecx, BYTE PTR [eax+141]
  00e7b	85 c9		 test	 ecx, ecx
  00e7d	74 14		 je	 SHORT $L197948

; 420  : 		::SetCursor(::LoadCursor(NULL, IDC_HAND));

  00e7f	68 89 7f 00 00	 push	 32649			; 00007f89H
  00e84	6a 00		 push	 0
  00e86	ff 15 00 00 00
	00		 call	 DWORD PTR __imp__LoadCursorA@8
  00e8c	50		 push	 eax
  00e8d	ff 15 00 00 00
	00		 call	 DWORD PTR __imp__SetCursor@4
$L197948:

; 421  : 	POINT mpoint;   
; 422  : 	GetCursorPos(&mpoint);											//取得当前鼠标位置

  00e93	8d 55 e8	 lea	 edx, DWORD PTR _mpoint$[ebp]
  00e96	52		 push	 edx
  00e97	ff 15 00 00 00
	00		 call	 DWORD PTR __imp__GetCursorPos@4

; 423  : 	CRect rect;

  00e9d	8d 4d f0	 lea	 ecx, DWORD PTR _rect$[ebp]
  00ea0	e8 00 00 00 00	 call	 ??0CRect@@QAE@XZ	; CRect::CRect

; 424  : 	GetWindowRect(&rect);											//取得控件的窗口大小

  00ea5	8d 45 f0	 lea	 eax, DWORD PTR _rect$[ebp]
  00ea8	50		 push	 eax
  00ea9	8b 4d e4	 mov	 ecx, DWORD PTR _this$[ebp]
  00eac	e8 00 00 00 00	 call	 ?GetWindowRect@CWnd@@QBEXPAUtagRECT@@@Z ; CWnd::GetWindowRect

; 425  : 
; 426  : 	if (!rect.PtInRect(mpoint))										//判断鼠标是否在控件的窗口内

  00eb1	8b 4d ec	 mov	 ecx, DWORD PTR _mpoint$[ebp+4]
  00eb4	51		 push	 ecx
  00eb5	8b 55 e8	 mov	 edx, DWORD PTR _mpoint$[ebp]
  00eb8	52		 push	 edx
  00eb9	8d 4d f0	 lea	 ecx, DWORD PTR _rect$[ebp]
  00ebc	e8 00 00 00 00	 call	 ?PtInRect@CRect@@QBEHUtagPOINT@@@Z ; CRect::PtInRect
  00ec1	85 c0		 test	 eax, eax
  00ec3	75 1a		 jne	 SHORT $L197954

; 427  : 	{																//鼠标不在控件的窗口内
; 428  : 		mbCaptured = FALSE;

  00ec5	8b 45 e4	 mov	 eax, DWORD PTR _this$[ebp]
  00ec8	c6 80 8c 00 00
	00 00		 mov	 BYTE PTR [eax+140], 0

; 429  : 		ReleaseCapture();											//释放鼠标捕捉

  00ecf	ff 15 00 00 00
	00		 call	 DWORD PTR __imp__ReleaseCapture@0

; 430  : 		MouseLeave();												//调用mouseleave()函数

  00ed5	8b 4d e4	 mov	 ecx, DWORD PTR _this$[ebp]
  00ed8	e8 00 00 00 00	 call	 ?MouseLeave@CStaticText@@AAEXXZ ; CStaticText::MouseLeave

; 431  : 		return;

  00edd	eb 3a		 jmp	 SHORT $L197947
$L197954:

; 432  : 	}
; 433  : 
; 434  : 	//如果鼠标在窗口内且已经被捕捉则返回
; 435  : 	if (!mbCaptured)

  00edf	8b 4d e4	 mov	 ecx, DWORD PTR _this$[ebp]
  00ee2	0f b6 91 8c 00
	00 00		 movzx	 edx, BYTE PTR [ecx+140]
  00ee9	85 d2		 test	 edx, edx
  00eeb	75 2c		 jne	 SHORT $L197947

; 436  : 	{
; 437  : 		mbCaptured = TRUE;

  00eed	8b 45 e4	 mov	 eax, DWORD PTR _this$[ebp]
  00ef0	c6 80 8c 00 00
	00 01		 mov	 BYTE PTR [eax+140], 1

; 438  : 		MouseEnter();												//调用MouseEnter()函数

  00ef7	8b 4d e4	 mov	 ecx, DWORD PTR _this$[ebp]
  00efa	e8 00 00 00 00	 call	 ?MouseEnter@CStaticText@@AAEXXZ ; CStaticText::MouseEnter

; 439  : 		ReleaseCapture();											//释放鼠标捕捉

  00eff	ff 15 00 00 00
	00		 call	 DWORD PTR __imp__ReleaseCapture@0

; 440  : 		CStatic::OnMouseMove(nFlags, point);						//调用基类响应函数

  00f05	8b 4d 10	 mov	 ecx, DWORD PTR _point$[ebp+4]
  00f08	51		 push	 ecx
  00f09	8b 55 0c	 mov	 edx, DWORD PTR _point$[ebp]
  00f0c	52		 push	 edx
  00f0d	8b 45 08	 mov	 eax, DWORD PTR _nFlags$[ebp]
  00f10	50		 push	 eax
  00f11	8b 4d e4	 mov	 ecx, DWORD PTR _this$[ebp]
  00f14	e8 00 00 00 00	 call	 ?OnMouseMove@CWnd@@IAEXIVCPoint@@@Z ; CWnd::OnMouseMove
$L197947:

; 441  : 	}
; 442  : }

  00f19	8b e5		 mov	 esp, ebp
  00f1b	5d		 pop	 ebp
  00f1c	c2 0c 00	 ret	 12			; 0000000cH
?OnMouseMove@CStaticText@@IAEXIVCPoint@@@Z ENDP		; CStaticText::OnMouseMove
; Function compile flags: /Odt
_this$ = -4						; size = 4
?MouseLeave@CStaticText@@AAEXXZ PROC NEAR		; CStaticText::MouseLeave
; _this$ = ecx

; 444  : {

  00f20	55		 push	 ebp
  00f21	8b ec		 mov	 ebp, esp
  00f23	51		 push	 ecx
  00f24	89 4d fc	 mov	 DWORD PTR _this$[ebp], ecx

; 445  : 	mbMouseOver = false;

  00f27	8b 45 fc	 mov	 eax, DWORD PTR _this$[ebp]
  00f2a	c6 80 8e 00 00
	00 00		 mov	 BYTE PTR [eax+142], 0

; 446  : 	//InvalidateBack();
; 447  : }

  00f31	8b e5		 mov	 esp, ebp
  00f33	5d		 pop	 ebp
  00f34	c3		 ret	 0
?MouseLeave@CStaticText@@AAEXXZ ENDP			; CStaticText::MouseLeave
; Function compile flags: /Odt
_this$ = -4						; size = 4
?MouseEnter@CStaticText@@AAEXXZ PROC NEAR		; CStaticText::MouseEnter
; _this$ = ecx

; 449  : {

  00f40	55		 push	 ebp
  00f41	8b ec		 mov	 ebp, esp
  00f43	51		 push	 ecx
  00f44	89 4d fc	 mov	 DWORD PTR _this$[ebp], ecx

; 450  : 	mbMouseOver = true;												//调用MouseEnter()函数

  00f47	8b 45 fc	 mov	 eax, DWORD PTR _this$[ebp]
  00f4a	c6 80 8e 00 00
	00 01		 mov	 BYTE PTR [eax+142], 1

; 451  : 	InvalidateBack();

  00f51	8b 4d fc	 mov	 ecx, DWORD PTR _this$[ebp]
  00f54	e8 00 00 00 00	 call	 ?InvalidateBack@CStaticText@@AAEXXZ ; CStaticText::InvalidateBack

; 452  : }

  00f59	8b e5		 mov	 esp, ebp
  00f5b	5d		 pop	 ebp
  00f5c	c3		 ret	 0
?MouseEnter@CStaticText@@AAEXXZ ENDP			; CStaticText::MouseEnter
_TEXT	ENDS
PUBLIC	?OnLButtonDown@CWnd@@IAEXIVCPoint@@@Z		; CWnd::OnLButtonDown
EXTRN	__imp_?GetLength@?$CSimpleStringT@D$00@ATL@@QBEHXZ:NEAR
EXTRN	__imp__PostMessageA@16:NEAR
EXTRN	__imp__ShellExecuteA@24:NEAR
EXTRN	__imp__GetWindowLongA@8:NEAR
; Function compile flags: /Odt
_TEXT	SEGMENT
_this$ = -8						; size = 4
_lhParent$ = -4						; size = 4
_nFlags$ = 8						; size = 4
_point$ = 12						; size = 8
?OnLButtonDown@CStaticText@@IAEXIVCPoint@@@Z PROC NEAR	; CStaticText::OnLButtonDown
; _this$ = ecx

; 457  : {

  00f60	55		 push	 ebp
  00f61	8b ec		 mov	 ebp, esp
  00f63	83 ec 08	 sub	 esp, 8
  00f66	89 4d f8	 mov	 DWORD PTR _this$[ebp], ecx

; 458  : 	// TODO: 在此添加消息处理程序代码和/或调用默认值
; 459  : 
; 460  : 	HWND lhParent = NULL;

  00f69	c7 45 fc 00 00
	00 00		 mov	 DWORD PTR _lhParent$[ebp], 0

; 461  : 	if (GetParent() != NULL)

  00f70	8b 4d f8	 mov	 ecx, DWORD PTR _this$[ebp]
  00f73	e8 00 00 00 00	 call	 ?GetParent@CWnd@@QBEPAV1@XZ ; CWnd::GetParent
  00f78	85 c0		 test	 eax, eax
  00f7a	74 12		 je	 SHORT $L197968

; 462  : 	{
; 463  : 		lhParent = GetParent()->GetSafeHwnd();

  00f7c	8b 4d f8	 mov	 ecx, DWORD PTR _this$[ebp]
  00f7f	e8 00 00 00 00	 call	 ?GetParent@CWnd@@QBEPAV1@XZ ; CWnd::GetParent
  00f84	8b c8		 mov	 ecx, eax
  00f86	e8 00 00 00 00	 call	 ?GetSafeHwnd@CWnd@@QBEPAUHWND__@@XZ ; CWnd::GetSafeHwnd
  00f8b	89 45 fc	 mov	 DWORD PTR _lhParent$[ebp], eax
$L197968:

; 464  : 	}
; 465  : 	::PostMessage(lhParent, MSG_LABEL_MOUSEDOWN,::GetWindowLong(this->m_hWnd,GWL_ID ),0);

  00f8e	6a 00		 push	 0
  00f90	6a f4		 push	 -12			; fffffff4H
  00f92	8b 45 f8	 mov	 eax, DWORD PTR _this$[ebp]
  00f95	8b 48 20	 mov	 ecx, DWORD PTR [eax+32]
  00f98	51		 push	 ecx
  00f99	ff 15 00 00 00
	00		 call	 DWORD PTR __imp__GetWindowLongA@8
  00f9f	50		 push	 eax
  00fa0	68 21 4e 00 00	 push	 20001			; 00004e21H
  00fa5	8b 55 fc	 mov	 edx, DWORD PTR _lhParent$[ebp]
  00fa8	52		 push	 edx
  00fa9	ff 15 00 00 00
	00		 call	 DWORD PTR __imp__PostMessageA@16

; 466  : 
; 467  : 	if (mLinkText.GetLength() != 0 )											

  00faf	8b 4d f8	 mov	 ecx, DWORD PTR _this$[ebp]
  00fb2	83 c1 74	 add	 ecx, 116		; 00000074H
  00fb5	ff 15 00 00 00
	00		 call	 DWORD PTR __imp_?GetLength@?$CSimpleStringT@D$00@ATL@@QBEHXZ
  00fbb	85 c0		 test	 eax, eax
  00fbd	74 20		 je	 SHORT $L197969

; 468  : 		ShellExecute(NULL, "open", mLinkText,NULL, NULL, SW_SHOWNORMAL);  

  00fbf	6a 01		 push	 1
  00fc1	6a 00		 push	 0
  00fc3	6a 00		 push	 0
  00fc5	8b 4d f8	 mov	 ecx, DWORD PTR _this$[ebp]
  00fc8	83 c1 74	 add	 ecx, 116		; 00000074H
  00fcb	ff 15 00 00 00
	00		 call	 DWORD PTR __imp_??B?$CSimpleStringT@D$00@ATL@@QBEPBDXZ
  00fd1	50		 push	 eax
  00fd2	68 00 00 00 00	 push	 OFFSET FLAT:$SG197970
  00fd7	6a 00		 push	 0
  00fd9	ff 15 00 00 00
	00		 call	 DWORD PTR __imp__ShellExecuteA@24
$L197969:

; 469  : 	CStatic::OnLButtonDown(nFlags, point);

  00fdf	8b 45 10	 mov	 eax, DWORD PTR _point$[ebp+4]
  00fe2	50		 push	 eax
  00fe3	8b 4d 0c	 mov	 ecx, DWORD PTR _point$[ebp]
  00fe6	51		 push	 ecx
  00fe7	8b 55 08	 mov	 edx, DWORD PTR _nFlags$[ebp]
  00fea	52		 push	 edx
  00feb	8b 4d f8	 mov	 ecx, DWORD PTR _this$[ebp]
  00fee	e8 00 00 00 00	 call	 ?OnLButtonDown@CWnd@@IAEXIVCPoint@@@Z ; CWnd::OnLButtonDown

; 470  : }

  00ff3	8b e5		 mov	 esp, ebp
  00ff5	5d		 pop	 ebp
  00ff6	c2 0c 00	 ret	 12			; 0000000cH
?OnLButtonDown@CStaticText@@IAEXIVCPoint@@@Z ENDP	; CStaticText::OnLButtonDown
_TEXT	ENDS
PUBLIC	?OnLButtonUp@CWnd@@IAEXIVCPoint@@@Z		; CWnd::OnLButtonUp
; Function compile flags: /Odt
_TEXT	SEGMENT
_this$ = -8						; size = 4
_lhParent$ = -4						; size = 4
_nFlags$ = 8						; size = 4
_point$ = 12						; size = 8
?OnLButtonUp@CStaticText@@IAEXIVCPoint@@@Z PROC NEAR	; CStaticText::OnLButtonUp
; _this$ = ecx

; 474  : {

  01000	55		 push	 ebp
  01001	8b ec		 mov	 ebp, esp
  01003	83 ec 08	 sub	 esp, 8
  01006	89 4d f8	 mov	 DWORD PTR _this$[ebp], ecx

; 475  : 	// TODO: 在此添加消息处理程序代码和/或调用默认值
; 476  : 
; 477  : 	HWND lhParent = NULL;

  01009	c7 45 fc 00 00
	00 00		 mov	 DWORD PTR _lhParent$[ebp], 0

; 478  : 	if (GetParent() != NULL)

  01010	8b 4d f8	 mov	 ecx, DWORD PTR _this$[ebp]
  01013	e8 00 00 00 00	 call	 ?GetParent@CWnd@@QBEPAV1@XZ ; CWnd::GetParent
  01018	85 c0		 test	 eax, eax
  0101a	74 12		 je	 SHORT $L197977

; 479  : 	{
; 480  : 		lhParent = GetParent()->GetSafeHwnd();

  0101c	8b 4d f8	 mov	 ecx, DWORD PTR _this$[ebp]
  0101f	e8 00 00 00 00	 call	 ?GetParent@CWnd@@QBEPAV1@XZ ; CWnd::GetParent
  01024	8b c8		 mov	 ecx, eax
  01026	e8 00 00 00 00	 call	 ?GetSafeHwnd@CWnd@@QBEPAUHWND__@@XZ ; CWnd::GetSafeHwnd
  0102b	89 45 fc	 mov	 DWORD PTR _lhParent$[ebp], eax
$L197977:

; 481  : 	}
; 482  : 	::PostMessage(lhParent, MSG_LABEL_MOUSEUP,0,0);

  0102e	6a 00		 push	 0
  01030	6a 00		 push	 0
  01032	68 22 4e 00 00	 push	 20002			; 00004e22H
  01037	8b 45 fc	 mov	 eax, DWORD PTR _lhParent$[ebp]
  0103a	50		 push	 eax
  0103b	ff 15 00 00 00
	00		 call	 DWORD PTR __imp__PostMessageA@16

; 483  : 
; 484  : 	
; 485  : 
; 486  : 	CStatic::OnLButtonUp(nFlags, point);

  01041	8b 4d 10	 mov	 ecx, DWORD PTR _point$[ebp+4]
  01044	51		 push	 ecx
  01045	8b 55 0c	 mov	 edx, DWORD PTR _point$[ebp]
  01048	52		 push	 edx
  01049	8b 45 08	 mov	 eax, DWORD PTR _nFlags$[ebp]
  0104c	50		 push	 eax
  0104d	8b 4d f8	 mov	 ecx, DWORD PTR _this$[ebp]
  01050	e8 00 00 00 00	 call	 ?OnLButtonUp@CWnd@@IAEXIVCPoint@@@Z ; CWnd::OnLButtonUp

; 487  : }

  01055	8b e5		 mov	 esp, ebp
  01057	5d		 pop	 ebp
  01058	c2 0c 00	 ret	 12			; 0000000cH
?OnLButtonUp@CStaticText@@IAEXIVCPoint@@@Z ENDP		; CStaticText::OnLButtonUp
_TEXT	ENDS
PUBLIC	?SetTextFormat@CStaticText@@QAEXI@Z		; CStaticText::SetTextFormat
; Function compile flags: /Odt
_TEXT	SEGMENT
_this$ = -4						; size = 4
_anFormat$ = 8						; size = 4
?SetTextFormat@CStaticText@@QAEXI@Z PROC NEAR		; CStaticText::SetTextFormat
; _this$ = ecx

; 489  : {

  01060	55		 push	 ebp
  01061	8b ec		 mov	 ebp, esp
  01063	51		 push	 ecx
  01064	89 4d fc	 mov	 DWORD PTR _this$[ebp], ecx

; 490  : 	mFormat = anFormat;

  01067	8b 45 fc	 mov	 eax, DWORD PTR _this$[ebp]
  0106a	8b 4d 08	 mov	 ecx, DWORD PTR _anFormat$[ebp]
  0106d	89 88 90 00 00
	00		 mov	 DWORD PTR [eax+144], ecx

; 491  : }

  01073	8b e5		 mov	 esp, ebp
  01075	5d		 pop	 ebp
  01076	c2 04 00	 ret	 4
?SetTextFormat@CStaticText@@QAEXI@Z ENDP		; CStaticText::SetTextFormat
_TEXT	ENDS
PUBLIC	?SetTextWidth@CStaticText@@QAEXI@Z		; CStaticText::SetTextWidth
; Function compile flags: /Odt
_TEXT	SEGMENT
_this$ = -4						; size = 4
_anWidth$ = 8						; size = 4
?SetTextWidth@CStaticText@@QAEXI@Z PROC NEAR		; CStaticText::SetTextWidth
; _this$ = ecx

; 493  : {

  01080	55		 push	 ebp
  01081	8b ec		 mov	 ebp, esp
  01083	51		 push	 ecx
  01084	89 4d fc	 mov	 DWORD PTR _this$[ebp], ecx

; 494  : 	mWidth = anWidth;

  01087	8b 45 fc	 mov	 eax, DWORD PTR _this$[ebp]
  0108a	8b 4d 08	 mov	 ecx, DWORD PTR _anWidth$[ebp]
  0108d	89 88 94 00 00
	00		 mov	 DWORD PTR [eax+148], ecx

; 495  : }

  01093	8b e5		 mov	 esp, ebp
  01095	5d		 pop	 ebp
  01096	c2 04 00	 ret	 4
?SetTextWidth@CStaticText@@QAEXI@Z ENDP			; CStaticText::SetTextWidth
_TEXT	ENDS
EXTRN	__imp_?GetManager@?$CSimpleStringT@D$00@ATL@@QBEPAUIAtlStringMgr@2@XZ:NEAR
EXTRN	__imp_?StringLength@?$CSimpleStringT@D$00@ATL@@SAHPBD@Z:NEAR
EXTRN	__imp_?Concatenate@?$CSimpleStringT@D$00@ATL@@KAXAAV12@PBDH1H@Z:NEAR
EXTRN	__imp_??0?$CStringT@DV?$StrTraitMFC_DLL@DV?$ChTraitsCRT@D@ATL@@@@@ATL@@QAE@PAUIAtlStringMgr@1@@Z:NEAR
;	COMDAT xdata$x
; File d:\program files (x86)\microsoft visual studio .net 2003\vc7\atlmfc\include\cstringt.h
xdata$x	SEGMENT
$T198623 DD	0ffffffffH
	DD	FLAT:$L198616
$T198621 DD	019930520H
	DD	01H
	DD	FLAT:$T198623
	DD	2 DUP(00H)
	DD	2 DUP(00H)
; Function compile flags: /Odt
xdata$x	ENDS
;	COMDAT ??HATL@@YA?AV?$CStringT@DV?$StrTraitMFC_DLL@DV?$ChTraitsCRT@D@ATL@@@@@0@PBDABV10@@Z
_TEXT	SEGMENT
$T198618 = -20						; size = 4
_strResult$ = -16					; size = 4
__$EHRec$ = -12						; size = 12
___$ReturnUdt$ = 8					; size = 4
_psz1$ = 12						; size = 4
_str2$ = 16						; size = 4
??HATL@@YA?AV?$CStringT@DV?$StrTraitMFC_DLL@DV?$ChTraitsCRT@D@ATL@@@@@0@PBDABV10@@Z PROC NEAR ; ATL::operator+, COMDAT

; 2032 : 	{

  00000	55		 push	 ebp
  00001	8b ec		 mov	 ebp, esp
  00003	6a ff		 push	 -1
  00005	68 00 00 00 00	 push	 __ehhandler$??HATL@@YA?AV?$CStringT@DV?$StrTraitMFC_DLL@DV?$ChTraitsCRT@D@ATL@@@@@0@PBDABV10@@Z
  0000a	64 a1 00 00 00
	00		 mov	 eax, DWORD PTR fs:__except_list
  00010	50		 push	 eax
  00011	64 89 25 00 00
	00 00		 mov	 DWORD PTR fs:__except_list, esp
  00018	83 ec 08	 sub	 esp, 8
  0001b	c7 45 ec 00 00
	00 00		 mov	 DWORD PTR $T198618[ebp], 0

; 2033 : 		CStringT strResult( str2.GetManager() );

  00022	8b 4d 10	 mov	 ecx, DWORD PTR _str2$[ebp]
  00025	ff 15 00 00 00
	00		 call	 DWORD PTR __imp_?GetManager@?$CSimpleStringT@D$00@ATL@@QBEPAUIAtlStringMgr@2@XZ
  0002b	50		 push	 eax
  0002c	8d 4d f0	 lea	 ecx, DWORD PTR _strResult$[ebp]
  0002f	ff 15 00 00 00
	00		 call	 DWORD PTR __imp_??0?$CStringT@DV?$StrTraitMFC_DLL@DV?$ChTraitsCRT@D@ATL@@@@@ATL@@QAE@PAUIAtlStringMgr@1@@Z
  00035	c7 45 fc 00 00
	00 00		 mov	 DWORD PTR __$EHRec$[ebp+8], 0

; 2034 : 
; 2035 : 		Concatenate( strResult, psz1, StringLength( psz1 ), str2, str2.GetLength() );

  0003c	8b 4d 10	 mov	 ecx, DWORD PTR _str2$[ebp]
  0003f	ff 15 00 00 00
	00		 call	 DWORD PTR __imp_?GetLength@?$CSimpleStringT@D$00@ATL@@QBEHXZ
  00045	50		 push	 eax
  00046	8b 4d 10	 mov	 ecx, DWORD PTR _str2$[ebp]
  00049	ff 15 00 00 00
	00		 call	 DWORD PTR __imp_??B?$CSimpleStringT@D$00@ATL@@QBEPBDXZ
  0004f	50		 push	 eax
  00050	8b 45 0c	 mov	 eax, DWORD PTR _psz1$[ebp]
  00053	50		 push	 eax
  00054	ff 15 00 00 00
	00		 call	 DWORD PTR __imp_?StringLength@?$CSimpleStringT@D$00@ATL@@SAHPBD@Z
  0005a	83 c4 04	 add	 esp, 4
  0005d	50		 push	 eax
  0005e	8b 4d 0c	 mov	 ecx, DWORD PTR _psz1$[ebp]
  00061	51		 push	 ecx
  00062	8d 55 f0	 lea	 edx, DWORD PTR _strResult$[ebp]
  00065	52		 push	 edx
  00066	ff 15 00 00 00
	00		 call	 DWORD PTR __imp_?Concatenate@?$CSimpleStringT@D$00@ATL@@KAXAAV12@PBDH1H@Z
  0006c	83 c4 14	 add	 esp, 20			; 00000014H

; 2036 : 
; 2037 : 		return( strResult );

  0006f	8d 45 f0	 lea	 eax, DWORD PTR _strResult$[ebp]
  00072	50		 push	 eax
  00073	8b 4d 08	 mov	 ecx, DWORD PTR ___$ReturnUdt$[ebp]
  00076	ff 15 00 00 00
	00		 call	 DWORD PTR __imp_??0?$CStringT@DV?$StrTraitMFC_DLL@DV?$ChTraitsCRT@D@ATL@@@@@ATL@@QAE@ABV01@@Z
  0007c	8b 4d ec	 mov	 ecx, DWORD PTR $T198618[ebp]
  0007f	83 c9 01	 or	 ecx, 1
  00082	89 4d ec	 mov	 DWORD PTR $T198618[ebp], ecx
  00085	c7 45 fc ff ff
	ff ff		 mov	 DWORD PTR __$EHRec$[ebp+8], -1
  0008c	8d 4d f0	 lea	 ecx, DWORD PTR _strResult$[ebp]
  0008f	ff 15 00 00 00
	00		 call	 DWORD PTR __imp_??1?$CStringT@DV?$StrTraitMFC_DLL@DV?$ChTraitsCRT@D@ATL@@@@@ATL@@QAE@XZ
  00095	8b 45 08	 mov	 eax, DWORD PTR ___$ReturnUdt$[ebp]

; 2038 : 	}

  00098	8b 4d f4	 mov	 ecx, DWORD PTR __$EHRec$[ebp]
  0009b	64 89 0d 00 00
	00 00		 mov	 DWORD PTR fs:__except_list, ecx
  000a2	8b e5		 mov	 esp, ebp
  000a4	5d		 pop	 ebp
  000a5	c3		 ret	 0
_TEXT	ENDS
;	COMDAT text$x
text$x	SEGMENT
$L198616:
  00000	8d 4d f0	 lea	 ecx, DWORD PTR _strResult$[ebp]
  00003	ff 25 00 00 00
	00		 jmp	 DWORD PTR __imp_??1?$CStringT@DV?$StrTraitMFC_DLL@DV?$ChTraitsCRT@D@ATL@@@@@ATL@@QAE@XZ
__ehhandler$??HATL@@YA?AV?$CStringT@DV?$StrTraitMFC_DLL@DV?$ChTraitsCRT@D@ATL@@@@@0@PBDABV10@@Z:
  00009	b8 00 00 00 00	 mov	 eax, OFFSET FLAT:$T198621
  0000e	e9 00 00 00 00	 jmp	 ___CxxFrameHandler
text$x	ENDS
??HATL@@YA?AV?$CStringT@DV?$StrTraitMFC_DLL@DV?$ChTraitsCRT@D@ATL@@@@@0@PBDABV10@@Z ENDP ; ATL::operator+
EXTRN	__imp_?Compare@?$CStringT@DV?$StrTraitMFC_DLL@DV?$ChTraitsCRT@D@ATL@@@@@ATL@@QBEHPBD@Z:NEAR
; Function compile flags: /Odt
;	COMDAT ??9ATL@@YA_NABV?$CStringT@DV?$StrTraitMFC_DLL@DV?$ChTraitsCRT@D@ATL@@@@@0@0@Z
_TEXT	SEGMENT
_str1$ = 8						; size = 4
_str2$ = 12						; size = 4
??9ATL@@YA_NABV?$CStringT@DV?$StrTraitMFC_DLL@DV?$ChTraitsCRT@D@ATL@@@@@0@0@Z PROC NEAR ; ATL::operator!=, COMDAT

; 2115 : 	{

  00000	55		 push	 ebp
  00001	8b ec		 mov	 ebp, esp

; 2116 : 		return( str1.Compare( str2 ) != 0 );

  00003	8b 4d 0c	 mov	 ecx, DWORD PTR _str2$[ebp]
  00006	ff 15 00 00 00
	00		 call	 DWORD PTR __imp_??B?$CSimpleStringT@D$00@ATL@@QBEPBDXZ
  0000c	50		 push	 eax
  0000d	8b 4d 08	 mov	 ecx, DWORD PTR _str1$[ebp]
  00010	ff 15 00 00 00
	00		 call	 DWORD PTR __imp_?Compare@?$CStringT@DV?$StrTraitMFC_DLL@DV?$ChTraitsCRT@D@ATL@@@@@ATL@@QBEHPBD@Z
  00016	f7 d8		 neg	 eax
  00018	1b c0		 sbb	 eax, eax
  0001a	f7 d8		 neg	 eax

; 2117 : 	}

  0001c	5d		 pop	 ebp
  0001d	c3		 ret	 0
??9ATL@@YA_NABV?$CStringT@DV?$StrTraitMFC_DLL@DV?$ChTraitsCRT@D@ATL@@@@@0@0@Z ENDP ; ATL::operator!=
; Function compile flags: /Odt
; File d:\program files (x86)\microsoft visual studio .net 2003\vc7\atlmfc\include\atltypes.inl
_TEXT	ENDS
;	COMDAT ??0CRect@@QAE@XZ
_TEXT	SEGMENT
_this$ = -4						; size = 4
??0CRect@@QAE@XZ PROC NEAR				; CRect::CRect, COMDAT
; _this$ = ecx

; 110  : 	{ /* random filled */ }

  00000	55		 push	 ebp
  00001	8b ec		 mov	 ebp, esp
  00003	51		 push	 ecx
  00004	89 4d fc	 mov	 DWORD PTR _this$[ebp], ecx
  00007	8b 45 fc	 mov	 eax, DWORD PTR _this$[ebp]
  0000a	8b e5		 mov	 esp, ebp
  0000c	5d		 pop	 ebp
  0000d	c3		 ret	 0
??0CRect@@QAE@XZ ENDP					; CRect::CRect
; Function compile flags: /Odt
_TEXT	ENDS
;	COMDAT ??BCRect@@QAEPAUtagRECT@@XZ
_TEXT	SEGMENT
_this$ = -4						; size = 4
??BCRect@@QAEPAUtagRECT@@XZ PROC NEAR			; CRect::operator tagRECT *, COMDAT
; _this$ = ecx

; 143  : 	{ return this; }

  00000	55		 push	 ebp
  00001	8b ec		 mov	 ebp, esp
  00003	51		 push	 ecx
  00004	89 4d fc	 mov	 DWORD PTR _this$[ebp], ecx
  00007	8b 45 fc	 mov	 eax, DWORD PTR _this$[ebp]
  0000a	8b e5		 mov	 esp, ebp
  0000c	5d		 pop	 ebp
  0000d	c3		 ret	 0
??BCRect@@QAEPAUtagRECT@@XZ ENDP			; CRect::operator tagRECT *
_TEXT	ENDS
EXTRN	__imp__PtInRect@12:NEAR
; Function compile flags: /Odt
;	COMDAT ?PtInRect@CRect@@QBEHUtagPOINT@@@Z
_TEXT	SEGMENT
_this$ = -4						; size = 4
_point$ = 8						; size = 8
?PtInRect@CRect@@QBEHUtagPOINT@@@Z PROC NEAR		; CRect::PtInRect, COMDAT
; _this$ = ecx

; 151  : 	{ return ::PtInRect(this, point); }

  00000	55		 push	 ebp
  00001	8b ec		 mov	 ebp, esp
  00003	51		 push	 ecx
  00004	89 4d fc	 mov	 DWORD PTR _this$[ebp], ecx
  00007	8b 45 0c	 mov	 eax, DWORD PTR _point$[ebp+4]
  0000a	50		 push	 eax
  0000b	8b 4d 08	 mov	 ecx, DWORD PTR _point$[ebp]
  0000e	51		 push	 ecx
  0000f	8b 55 fc	 mov	 edx, DWORD PTR _this$[ebp]
  00012	52		 push	 edx
  00013	ff 15 00 00 00
	00		 call	 DWORD PTR __imp__PtInRect@12
  00019	8b e5		 mov	 esp, ebp
  0001b	5d		 pop	 ebp
  0001c	c2 08 00	 ret	 8
?PtInRect@CRect@@QBEHUtagPOINT@@@Z ENDP			; CRect::PtInRect
; Function compile flags: /Odt
; File d:\program files (x86)\microsoft visual studio .net 2003\vc7\atlmfc\include\afx.inl
_TEXT	ENDS
;	COMDAT ?Serialize@CObject@@UAEXAAVCArchive@@@Z
_TEXT	SEGMENT
_this$ = -4						; size = 4
___formal$ = 8						; size = 4
?Serialize@CObject@@UAEXAAVCArchive@@@Z PROC NEAR	; CObject::Serialize, COMDAT
; _this$ = ecx

; 25   : 	{ /* CObject does not serialize anything by default */ }

  00000	55		 push	 ebp
  00001	8b ec		 mov	 ebp, esp
  00003	51		 push	 ecx
  00004	89 4d fc	 mov	 DWORD PTR _this$[ebp], ecx
  00007	8b e5		 mov	 esp, ebp
  00009	5d		 pop	 ebp
  0000a	c2 04 00	 ret	 4
?Serialize@CObject@@UAEXAAVCArchive@@@Z ENDP		; CObject::Serialize
_TEXT	ENDS
EXTRN	??3@YAXPAX@Z:NEAR				; operator delete
; Function compile flags: /Odt
;	COMDAT ??3CObject@@SGXPAX@Z
_TEXT	SEGMENT
_p$ = 8							; size = 4
??3CObject@@SGXPAX@Z PROC NEAR				; CObject::operator delete, COMDAT

; 31   : 	{ ::operator delete(p); }

  00000	55		 push	 ebp
  00001	8b ec		 mov	 ebp, esp
  00003	8b 45 08	 mov	 eax, DWORD PTR _p$[ebp]
  00006	50		 push	 eax
  00007	e8 00 00 00 00	 call	 ??3@YAXPAX@Z		; operator delete
  0000c	83 c4 04	 add	 esp, 4
  0000f	5d		 pop	 ebp
  00010	c2 04 00	 ret	 4
??3CObject@@SGXPAX@Z ENDP				; CObject::operator delete
; Function compile flags: /Odt
_TEXT	ENDS
;	COMDAT ?AssertValid@CObject@@UBEXXZ
_TEXT	SEGMENT
_this$ = -4						; size = 4
?AssertValid@CObject@@UBEXXZ PROC NEAR			; CObject::AssertValid, COMDAT
; _this$ = ecx

; 41   : 	{ /* no asserts in release builds */ }

  00000	55		 push	 ebp
  00001	8b ec		 mov	 ebp, esp
  00003	51		 push	 ecx
  00004	89 4d fc	 mov	 DWORD PTR _this$[ebp], ecx
  00007	8b e5		 mov	 esp, ebp
  00009	5d		 pop	 ebp
  0000a	c3		 ret	 0
?AssertValid@CObject@@UBEXXZ ENDP			; CObject::AssertValid
; Function compile flags: /Odt
_TEXT	ENDS
;	COMDAT ?Dump@CObject@@UBEXAAVCDumpContext@@@Z
_TEXT	SEGMENT
_this$ = -4						; size = 4
___formal$ = 8						; size = 4
?Dump@CObject@@UBEXAAVCDumpContext@@@Z PROC NEAR	; CObject::Dump, COMDAT
; _this$ = ecx

; 43   : 	{ /* no dumping in release builds */ }

  00000	55		 push	 ebp
  00001	8b ec		 mov	 ebp, esp
  00003	51		 push	 ecx
  00004	89 4d fc	 mov	 DWORD PTR _this$[ebp], ecx
  00007	8b e5		 mov	 esp, ebp
  00009	5d		 pop	 ebp
  0000a	c2 04 00	 ret	 4
?Dump@CObject@@UBEXAAVCDumpContext@@@Z ENDP		; CObject::Dump
; Function compile flags: /Odt
; File d:\program files (x86)\microsoft visual studio .net 2003\vc7\atlmfc\include\afxwin2.inl
_TEXT	ENDS
;	COMDAT ?GetSafeHwnd@CWnd@@QBEPAUHWND__@@XZ
_TEXT	SEGMENT
tv66 = -8						; size = 4
_this$ = -4						; size = 4
?GetSafeHwnd@CWnd@@QBEPAUHWND__@@XZ PROC NEAR		; CWnd::GetSafeHwnd, COMDAT
; _this$ = ecx

; 27   : 	{ return this == NULL ? NULL : m_hWnd; }

  00000	55		 push	 ebp
  00001	8b ec		 mov	 ebp, esp
  00003	83 ec 08	 sub	 esp, 8
  00006	89 4d fc	 mov	 DWORD PTR _this$[ebp], ecx
  00009	83 7d fc 00	 cmp	 DWORD PTR _this$[ebp], 0
  0000d	75 09		 jne	 SHORT $L198644
  0000f	c7 45 f8 00 00
	00 00		 mov	 DWORD PTR tv66[ebp], 0
  00016	eb 09		 jmp	 SHORT $L198645
$L198644:
  00018	8b 45 fc	 mov	 eax, DWORD PTR _this$[ebp]
  0001b	8b 48 20	 mov	 ecx, DWORD PTR [eax+32]
  0001e	89 4d f8	 mov	 DWORD PTR tv66[ebp], ecx
$L198645:
  00021	8b 45 f8	 mov	 eax, DWORD PTR tv66[ebp]
  00024	8b e5		 mov	 esp, ebp
  00026	5d		 pop	 ebp
  00027	c3		 ret	 0
?GetSafeHwnd@CWnd@@QBEPAUHWND__@@XZ ENDP		; CWnd::GetSafeHwnd
_TEXT	ENDS
EXTRN	__imp__GetWindowRect@8:NEAR
; Function compile flags: /Odt
;	COMDAT ?GetWindowRect@CWnd@@QBEXPAUtagRECT@@@Z
_TEXT	SEGMENT
_this$ = -4						; size = 4
_lpRect$ = 8						; size = 4
?GetWindowRect@CWnd@@QBEXPAUtagRECT@@@Z PROC NEAR	; CWnd::GetWindowRect, COMDAT
; _this$ = ecx

; 105  : 	{ ASSERT(::IsWindow(m_hWnd)); ::GetWindowRect(m_hWnd, lpRect); }

  00000	55		 push	 ebp
  00001	8b ec		 mov	 ebp, esp
  00003	51		 push	 ecx
  00004	89 4d fc	 mov	 DWORD PTR _this$[ebp], ecx
  00007	8b 45 08	 mov	 eax, DWORD PTR _lpRect$[ebp]
  0000a	50		 push	 eax
  0000b	8b 4d fc	 mov	 ecx, DWORD PTR _this$[ebp]
  0000e	8b 51 20	 mov	 edx, DWORD PTR [ecx+32]
  00011	52		 push	 edx
  00012	ff 15 00 00 00
	00		 call	 DWORD PTR __imp__GetWindowRect@8
  00018	8b e5		 mov	 esp, ebp
  0001a	5d		 pop	 ebp
  0001b	c2 04 00	 ret	 4
?GetWindowRect@CWnd@@QBEXPAUtagRECT@@@Z ENDP		; CWnd::GetWindowRect
_TEXT	ENDS
EXTRN	__imp__GetClientRect@8:NEAR
; Function compile flags: /Odt
;	COMDAT ?GetClientRect@CWnd@@QBEXPAUtagRECT@@@Z
_TEXT	SEGMENT
_this$ = -4						; size = 4
_lpRect$ = 8						; size = 4
?GetClientRect@CWnd@@QBEXPAUtagRECT@@@Z PROC NEAR	; CWnd::GetClientRect, COMDAT
; _this$ = ecx

; 107  : 	{ ASSERT(::IsWindow(m_hWnd)); ::GetClientRect(m_hWnd, lpRect); }

  00000	55		 push	 ebp
  00001	8b ec		 mov	 ebp, esp
  00003	51		 push	 ecx
  00004	89 4d fc	 mov	 DWORD PTR _this$[ebp], ecx
  00007	8b 45 08	 mov	 eax, DWORD PTR _lpRect$[ebp]
  0000a	50		 push	 eax
  0000b	8b 4d fc	 mov	 ecx, DWORD PTR _this$[ebp]
  0000e	8b 51 20	 mov	 edx, DWORD PTR [ecx+32]
  00011	52		 push	 edx
  00012	ff 15 00 00 00
	00		 call	 DWORD PTR __imp__GetClientRect@8
  00018	8b e5		 mov	 esp, ebp
  0001a	5d		 pop	 ebp
  0001b	c2 04 00	 ret	 4
?GetClientRect@CWnd@@QBEXPAUtagRECT@@@Z ENDP		; CWnd::GetClientRect
_TEXT	ENDS
EXTRN	__imp__InvalidateRect@12:NEAR
; Function compile flags: /Odt
;	COMDAT ?InvalidateRect@CWnd@@QAEXPBUtagRECT@@H@Z
_TEXT	SEGMENT
_this$ = -4						; size = 4
_lpRect$ = 8						; size = 4
_bErase$ = 12						; size = 4
?InvalidateRect@CWnd@@QAEXPBUtagRECT@@H@Z PROC NEAR	; CWnd::InvalidateRect, COMDAT
; _this$ = ecx

; 137  : 	{ ASSERT(::IsWindow(m_hWnd)); ::InvalidateRect(m_hWnd, lpRect, bErase); }

  00000	55		 push	 ebp
  00001	8b ec		 mov	 ebp, esp
  00003	51		 push	 ecx
  00004	89 4d fc	 mov	 DWORD PTR _this$[ebp], ecx
  00007	8b 45 0c	 mov	 eax, DWORD PTR _bErase$[ebp]
  0000a	50		 push	 eax
  0000b	8b 4d 08	 mov	 ecx, DWORD PTR _lpRect$[ebp]
  0000e	51		 push	 ecx
  0000f	8b 55 fc	 mov	 edx, DWORD PTR _this$[ebp]
  00012	8b 42 20	 mov	 eax, DWORD PTR [edx+32]
  00015	50		 push	 eax
  00016	ff 15 00 00 00
	00		 call	 DWORD PTR __imp__InvalidateRect@12
  0001c	8b e5		 mov	 esp, ebp
  0001e	5d		 pop	 ebp
  0001f	c2 08 00	 ret	 8
?InvalidateRect@CWnd@@QAEXPBUtagRECT@@H@Z ENDP		; CWnd::InvalidateRect
_TEXT	ENDS
EXTRN	__imp__SetCapture@4:NEAR
; Function compile flags: /Odt
;	COMDAT ?SetCapture@CWnd@@QAEPAV1@XZ
_TEXT	SEGMENT
_this$ = -4						; size = 4
?SetCapture@CWnd@@QAEPAV1@XZ PROC NEAR			; CWnd::SetCapture, COMDAT
; _this$ = ecx

; 199  : 	{ ASSERT(::IsWindow(m_hWnd)); return CWnd::FromHandle(::SetCapture(m_hWnd)); }

  00000	55		 push	 ebp
  00001	8b ec		 mov	 ebp, esp
  00003	51		 push	 ecx
  00004	89 4d fc	 mov	 DWORD PTR _this$[ebp], ecx
  00007	8b 45 fc	 mov	 eax, DWORD PTR _this$[ebp]
  0000a	8b 48 20	 mov	 ecx, DWORD PTR [eax+32]
  0000d	51		 push	 ecx
  0000e	ff 15 00 00 00
	00		 call	 DWORD PTR __imp__SetCapture@4
  00014	50		 push	 eax
  00015	e8 00 00 00 00	 call	 ?FromHandle@CWnd@@SGPAV1@PAUHWND__@@@Z ; CWnd::FromHandle
  0001a	8b e5		 mov	 esp, ebp
  0001c	5d		 pop	 ebp
  0001d	c3		 ret	 0
?SetCapture@CWnd@@QAEPAV1@XZ ENDP			; CWnd::SetCapture
_TEXT	ENDS
EXTRN	__imp__GetParent@4:NEAR
; Function compile flags: /Odt
;	COMDAT ?GetParent@CWnd@@QBEPAV1@XZ
_TEXT	SEGMENT
_this$ = -4						; size = 4
?GetParent@CWnd@@QBEPAV1@XZ PROC NEAR			; CWnd::GetParent, COMDAT
; _this$ = ecx

; 282  : 	{ ASSERT(::IsWindow(m_hWnd)); return CWnd::FromHandle(::GetParent(m_hWnd)); }

  00000	55		 push	 ebp
  00001	8b ec		 mov	 ebp, esp
  00003	51		 push	 ecx
  00004	89 4d fc	 mov	 DWORD PTR _this$[ebp], ecx
  00007	8b 45 fc	 mov	 eax, DWORD PTR _this$[ebp]
  0000a	8b 48 20	 mov	 ecx, DWORD PTR [eax+32]
  0000d	51		 push	 ecx
  0000e	ff 15 00 00 00
	00		 call	 DWORD PTR __imp__GetParent@4
  00014	50		 push	 eax
  00015	e8 00 00 00 00	 call	 ?FromHandle@CWnd@@SGPAV1@PAUHWND__@@@Z ; CWnd::FromHandle
  0001a	8b e5		 mov	 esp, ebp
  0001c	5d		 pop	 ebp
  0001d	c3		 ret	 0
?GetParent@CWnd@@QBEPAV1@XZ ENDP			; CWnd::GetParent
_TEXT	ENDS
EXTRN	?Default@CWnd@@IAEJXZ:NEAR			; CWnd::Default
; Function compile flags: /Odt
;	COMDAT ?OnLButtonDown@CWnd@@IAEXIVCPoint@@@Z
_TEXT	SEGMENT
_this$ = -4						; size = 4
___formal$ = 8						; size = 4
___formal$ = 12						; size = 8
?OnLButtonDown@CWnd@@IAEXIVCPoint@@@Z PROC NEAR		; CWnd::OnLButtonDown, COMDAT
; _this$ = ecx

; 464  : 	{ Default(); }

  00000	55		 push	 ebp
  00001	8b ec		 mov	 ebp, esp
  00003	51		 push	 ecx
  00004	89 4d fc	 mov	 DWORD PTR _this$[ebp], ecx
  00007	8b 4d fc	 mov	 ecx, DWORD PTR _this$[ebp]
  0000a	e8 00 00 00 00	 call	 ?Default@CWnd@@IAEJXZ	; CWnd::Default
  0000f	8b e5		 mov	 esp, ebp
  00011	5d		 pop	 ebp
  00012	c2 0c 00	 ret	 12			; 0000000cH
?OnLButtonDown@CWnd@@IAEXIVCPoint@@@Z ENDP		; CWnd::OnLButtonDown
; Function compile flags: /Odt
_TEXT	ENDS
;	COMDAT ?OnLButtonUp@CWnd@@IAEXIVCPoint@@@Z
_TEXT	SEGMENT
_this$ = -4						; size = 4
___formal$ = 8						; size = 4
___formal$ = 12						; size = 8
?OnLButtonUp@CWnd@@IAEXIVCPoint@@@Z PROC NEAR		; CWnd::OnLButtonUp, COMDAT
; _this$ = ecx

; 466  : 	{ Default(); }

  00000	55		 push	 ebp
  00001	8b ec		 mov	 ebp, esp
  00003	51		 push	 ecx
  00004	89 4d fc	 mov	 DWORD PTR _this$[ebp], ecx
  00007	8b 4d fc	 mov	 ecx, DWORD PTR _this$[ebp]
  0000a	e8 00 00 00 00	 call	 ?Default@CWnd@@IAEJXZ	; CWnd::Default
  0000f	8b e5		 mov	 esp, ebp
  00011	5d		 pop	 ebp
  00012	c2 0c 00	 ret	 12			; 0000000cH
?OnLButtonUp@CWnd@@IAEXIVCPoint@@@Z ENDP		; CWnd::OnLButtonUp
; Function compile flags: /Odt
_TEXT	ENDS
;	COMDAT ?OnMouseMove@CWnd@@IAEXIVCPoint@@@Z
_TEXT	SEGMENT
_this$ = -4						; size = 4
___formal$ = 8						; size = 4
___formal$ = 12						; size = 8
?OnMouseMove@CWnd@@IAEXIVCPoint@@@Z PROC NEAR		; CWnd::OnMouseMove, COMDAT
; _this$ = ecx

; 476  : 	{ Default(); }

  00000	55		 push	 ebp
  00001	8b ec		 mov	 ebp, esp
  00003	51		 push	 ecx
  00004	89 4d fc	 mov	 DWORD PTR _this$[ebp], ecx
  00007	8b 4d fc	 mov	 ecx, DWORD PTR _this$[ebp]
  0000a	e8 00 00 00 00	 call	 ?Default@CWnd@@IAEJXZ	; CWnd::Default
  0000f	8b e5		 mov	 esp, ebp
  00011	5d		 pop	 ebp
  00012	c2 0c 00	 ret	 12			; 0000000cH
?OnMouseMove@CWnd@@IAEXIVCPoint@@@Z ENDP		; CWnd::OnMouseMove
; Function compile flags: /Odt
_TEXT	ENDS
;	COMDAT ?DoDataExchange@CWnd@@MAEXPAVCDataExchange@@@Z
_TEXT	SEGMENT
_this$ = -4						; size = 4
___formal$ = 8						; size = 4
?DoDataExchange@CWnd@@MAEXPAVCDataExchange@@@Z PROC NEAR ; CWnd::DoDataExchange, COMDAT
; _this$ = ecx

; 545  : 	{ } // default does nothing

  00000	55		 push	 ebp
  00001	8b ec		 mov	 ebp, esp
  00003	51		 push	 ecx
  00004	89 4d fc	 mov	 DWORD PTR _this$[ebp], ecx
  00007	8b e5		 mov	 esp, ebp
  00009	5d		 pop	 ebp
  0000a	c2 04 00	 ret	 4
?DoDataExchange@CWnd@@MAEXPAVCDataExchange@@@Z ENDP	; CWnd::DoDataExchange
_TEXT	ENDS
EXTRN	__imp__EnableWindow@8:NEAR
; Function compile flags: /Odt
;	COMDAT ?BeginModalState@CWnd@@UAEXXZ
_TEXT	SEGMENT
_this$ = -4						; size = 4
?BeginModalState@CWnd@@UAEXXZ PROC NEAR			; CWnd::BeginModalState, COMDAT
; _this$ = ecx

; 549  : 	{ ::EnableWindow(m_hWnd, FALSE); }

  00000	55		 push	 ebp
  00001	8b ec		 mov	 ebp, esp
  00003	51		 push	 ecx
  00004	89 4d fc	 mov	 DWORD PTR _this$[ebp], ecx
  00007	6a 00		 push	 0
  00009	8b 45 fc	 mov	 eax, DWORD PTR _this$[ebp]
  0000c	8b 48 20	 mov	 ecx, DWORD PTR [eax+32]
  0000f	51		 push	 ecx
  00010	ff 15 00 00 00
	00		 call	 DWORD PTR __imp__EnableWindow@8
  00016	8b e5		 mov	 esp, ebp
  00018	5d		 pop	 ebp
  00019	c3		 ret	 0
?BeginModalState@CWnd@@UAEXXZ ENDP			; CWnd::BeginModalState
; Function compile flags: /Odt
_TEXT	ENDS
;	COMDAT ?EndModalState@CWnd@@UAEXXZ
_TEXT	SEGMENT
_this$ = -4						; size = 4
?EndModalState@CWnd@@UAEXXZ PROC NEAR			; CWnd::EndModalState, COMDAT
; _this$ = ecx

; 551  : 	{ ::EnableWindow(m_hWnd, TRUE); }

  00000	55		 push	 ebp
  00001	8b ec		 mov	 ebp, esp
  00003	51		 push	 ecx
  00004	89 4d fc	 mov	 DWORD PTR _this$[ebp], ecx
  00007	6a 01		 push	 1
  00009	8b 45 fc	 mov	 eax, DWORD PTR _this$[ebp]
  0000c	8b 48 20	 mov	 ecx, DWORD PTR [eax+32]
  0000f	51		 push	 ecx
  00010	ff 15 00 00 00
	00		 call	 DWORD PTR __imp__EnableWindow@8
  00016	8b e5		 mov	 esp, ebp
  00018	5d		 pop	 ebp
  00019	c3		 ret	 0
?EndModalState@CWnd@@UAEXXZ ENDP			; CWnd::EndModalState
_TEXT	ENDS
PUBLIC	??_7CStatic@@6B@				; CStatic::`vftable'
PUBLIC	??_GCStatic@@UAEPAXI@Z				; CStatic::`scalar deleting destructor'
PUBLIC	??_R4CStatic@@6B@				; CStatic::`RTTI Complete Object Locator'
PUBLIC	??_R3CStatic@@8					; CStatic::`RTTI Class Hierarchy Descriptor'
PUBLIC	??_R2CStatic@@8					; CStatic::`RTTI Base Class Array'
EXTRN	?GetMessageMap@CWnd@@MBEPBUAFX_MSGMAP@@XZ:NEAR	; CWnd::GetMessageMap
EXTRN	??_ECStatic@@UAEPAXI@Z:NEAR			; CStatic::`vector deleting destructor'
EXTRN	??0CWnd@@QAE@XZ:NEAR				; CWnd::CWnd
;	COMDAT ??_7CStatic@@6B@
CONST	SEGMENT
??_7CStatic@@6B@ DD FLAT:??_R4CStatic@@6B@		; CStatic::`vftable'
	DD	FLAT:?GetRuntimeClass@CStatic@@UBEPAUCRuntimeClass@@XZ
	DD	FLAT:??_ECStatic@@UAEPAXI@Z
	DD	FLAT:?Serialize@CObject@@UAEXAAVCArchive@@@Z
	DD	FLAT:?AssertValid@CObject@@UBEXXZ
	DD	FLAT:?Dump@CObject@@UBEXAAVCDumpContext@@@Z
	DD	FLAT:?OnCmdMsg@CCmdTarget@@UAEHIHPAXPAUAFX_CMDHANDLERINFO@@@Z
	DD	FLAT:?OnFinalRelease@CWnd@@UAEXXZ
	DD	FLAT:?IsInvokeAllowed@CCmdTarget@@UAEHJ@Z
	DD	FLAT:?GetDispatchIID@CCmdTarget@@UAEHPAU_GUID@@@Z
	DD	FLAT:?GetTypeInfoCount@CCmdTarget@@UAEIXZ
	DD	FLAT:?GetTypeLibCache@CCmdTarget@@UAEPAVCTypeLibCache@@XZ
	DD	FLAT:?GetTypeLib@CCmdTarget@@UAEJKPAPAUITypeLib@@@Z
	DD	FLAT:?GetMessageMap@CWnd@@MBEPBUAFX_MSGMAP@@XZ
	DD	FLAT:?GetCommandMap@CCmdTarget@@MBEPBUAFX_OLECMDMAP@@XZ
	DD	FLAT:?GetDispatchMap@CCmdTarget@@MBEPBUAFX_DISPMAP@@XZ
	DD	FLAT:?GetConnectionMap@CCmdTarget@@MBEPBUAFX_CONNECTIONMAP@@XZ
	DD	FLAT:?GetInterfaceMap@CWnd@@MBEPBUAFX_INTERFACEMAP@@XZ
	DD	FLAT:?GetEventSinkMap@CCmdTarget@@MBEPBUAFX_EVENTSINKMAP@@XZ
	DD	FLAT:?OnCreateAggregates@CCmdTarget@@UAEHXZ
	DD	FLAT:?GetInterfaceHook@CCmdTarget@@UAEPAUIUnknown@@PBX@Z
	DD	FLAT:?GetExtraConnectionPoints@CCmdTarget@@MAEHPAVCPtrArray@@@Z
	DD	FLAT:?GetConnectionHook@CCmdTarget@@MAEPAUIConnectionPoint@@ABU_GUID@@@Z
	DD	FLAT:?PreSubclassWindow@CWnd@@UAEXXZ
	DD	FLAT:?Create@CWnd@@UAEHPBD0KABUtagRECT@@PAV1@IPAUCCreateContext@@@Z
	DD	FLAT:?CreateEx@CWnd@@UAEHKPBD0KABUtagRECT@@PAV1@IPAX@Z
	DD	FLAT:?CreateEx@CWnd@@UAEHKPBD0KHHHHPAUHWND__@@PAUHMENU__@@PAX@Z
	DD	FLAT:?DestroyWindow@CWnd@@UAEHXZ
	DD	FLAT:?PreCreateWindow@CWnd@@UAEHAAUtagCREATESTRUCTA@@@Z
	DD	FLAT:?CalcWindowRect@CWnd@@UAEXPAUtagRECT@@I@Z
	DD	FLAT:?OnToolHitTest@CWnd@@UBEHVCPoint@@PAUtagTOOLINFOA@@@Z
	DD	FLAT:?GetScrollBarCtrl@CWnd@@UBEPAVCScrollBar@@H@Z
	DD	FLAT:?WinHelpA@CWnd@@UAEXKI@Z
	DD	FLAT:?HtmlHelpA@CWnd@@UAEXKI@Z
	DD	FLAT:?WinHelpInternal@CWnd@@UAEXKI@Z
	DD	FLAT:?ContinueModal@CWnd@@UAEHXZ
	DD	FLAT:?EndModalLoop@CWnd@@UAEXH@Z
	DD	FLAT:?EnsureStdObj@CWnd@@UAEJXZ
	DD	FLAT:?get_accParent@CWnd@@UAEJPAPAUIDispatch@@@Z
	DD	FLAT:?get_accChildCount@CWnd@@UAEJPAJ@Z
	DD	FLAT:?get_accChild@CWnd@@UAEJUtagVARIANT@@PAPAUIDispatch@@@Z
	DD	FLAT:?get_accName@CWnd@@UAEJUtagVARIANT@@PAPA_W@Z
	DD	FLAT:?get_accValue@CWnd@@UAEJUtagVARIANT@@PAPA_W@Z
	DD	FLAT:?get_accDescription@CWnd@@UAEJUtagVARIANT@@PAPA_W@Z
	DD	FLAT:?get_accRole@CWnd@@UAEJUtagVARIANT@@PAU2@@Z
	DD	FLAT:?get_accState@CWnd@@UAEJUtagVARIANT@@PAU2@@Z
	DD	FLAT:?get_accHelp@CWnd@@UAEJUtagVARIANT@@PAPA_W@Z
	DD	FLAT:?get_accHelpTopic@CWnd@@UAEJPAPA_WUtagVARIANT@@PAJ@Z
	DD	FLAT:?get_accKeyboardShortcut@CWnd@@UAEJUtagVARIANT@@PAPA_W@Z
	DD	FLAT:?get_accFocus@CWnd@@UAEJPAUtagVARIANT@@@Z
	DD	FLAT:?get_accSelection@CWnd@@UAEJPAUtagVARIANT@@@Z
	DD	FLAT:?get_accDefaultAction@CWnd@@UAEJUtagVARIANT@@PAPA_W@Z
	DD	FLAT:?accSelect@CWnd@@UAEJJUtagVARIANT@@@Z
	DD	FLAT:?accLocation@CWnd@@UAEJPAJ000UtagVARIANT@@@Z
	DD	FLAT:?accNavigate@CWnd@@UAEJJUtagVARIANT@@PAU2@@Z
	DD	FLAT:?accHitTest@CWnd@@UAEJJJPAUtagVARIANT@@@Z
	DD	FLAT:?accDoDefaultAction@CWnd@@UAEJUtagVARIANT@@@Z
	DD	FLAT:?put_accName@CWnd@@UAEJUtagVARIANT@@PA_W@Z
	DD	FLAT:?put_accValue@CWnd@@UAEJUtagVARIANT@@PA_W@Z
	DD	FLAT:?SetProxy@CWnd@@UAEJPAUIAccessibleProxy@@@Z
	DD	FLAT:?CreateAccessibleProxy@CWnd@@UAEJIJPAJ@Z
	DD	FLAT:?OnCommand@CWnd@@MAEHIJ@Z
	DD	FLAT:?OnNotify@CWnd@@MAEHIJPAJ@Z
	DD	FLAT:?GetSuperWndProcAddr@CWnd@@MAEPAP6GJPAUHWND__@@IIJ@ZXZ
	DD	FLAT:?DoDataExchange@CWnd@@MAEXPAVCDataExchange@@@Z
	DD	FLAT:?BeginModalState@CWnd@@UAEXXZ
	DD	FLAT:?EndModalState@CWnd@@UAEXXZ
	DD	FLAT:?PreTranslateMessage@CWnd@@UAEHPAUtagMSG@@@Z
	DD	FLAT:?OnAmbientProperty@CWnd@@UAEHPAVCOleControlSite@@JPAUtagVARIANT@@@Z
	DD	FLAT:?WindowProc@CWnd@@MAEJIIJ@Z
	DD	FLAT:?OnWndMsg@CWnd@@MAEHIIJPAJ@Z
	DD	FLAT:?DefWindowProcA@CWnd@@MAEJIIJ@Z
	DD	FLAT:?PostNcDestroy@CWnd@@MAEXXZ
	DD	FLAT:?OnChildNotify@CStatic@@MAEHIIJPAJ@Z
	DD	FLAT:?CheckAutoCenter@CWnd@@UAEHXZ
	DD	FLAT:?IsFrameWnd@CWnd@@UBEHXZ
	DD	FLAT:?CreateControlContainer@CWnd@@MAEHPAPAVCOleControlContainer@@@Z
	DD	FLAT:?CreateControlSite@CWnd@@MAEHPAVCOleControlContainer@@PAPAVCOleControlSite@@IABU_GUID@@@Z
	DD	FLAT:?SetOccDialogInfo@CWnd@@MAEHPAU_AFX_OCC_DIALOG_INFO@@@Z
	DD	FLAT:?Create@CStatic@@UAEHPBDKABUtagRECT@@PAVCWnd@@I@Z
	DD	FLAT:?DrawItem@CStatic@@UAEXPAUtagDRAWITEMSTRUCT@@@Z
CONST	ENDS
;	COMDAT ??_R4CStatic@@6B@
rdata$r	SEGMENT
??_R4CStatic@@6B@ DD 00H				; CStatic::`RTTI Complete Object Locator'
	DD	00H
	DD	00H
	DD	FLAT:??_R0?AVCStatic@@@8
	DD	FLAT:??_R3CStatic@@8
rdata$r	ENDS
;	COMDAT ??_R3CStatic@@8
rdata$r	SEGMENT
??_R3CStatic@@8 DD 00H					; CStatic::`RTTI Class Hierarchy Descriptor'
	DD	00H
	DD	04H
	DD	FLAT:??_R2CStatic@@8
rdata$r	ENDS
;	COMDAT ??_R2CStatic@@8
rdata$r	SEGMENT
??_R2CStatic@@8 DD FLAT:??_R1A@?0A@A@CStatic@@8		; CStatic::`RTTI Base Class Array'
	DD	FLAT:??_R1A@?0A@A@CWnd@@8
	DD	FLAT:??_R1A@?0A@A@CCmdTarget@@8
	DD	FLAT:??_R1A@?0A@A@CObject@@8
; Function compile flags: /Odt
rdata$r	ENDS
;	COMDAT ??0CStatic@@QAE@XZ
_TEXT	SEGMENT
_this$ = -4						; size = 4
??0CStatic@@QAE@XZ PROC NEAR				; CStatic::CStatic, COMDAT
; _this$ = ecx

; 588  : 	{ }

  00000	55		 push	 ebp
  00001	8b ec		 mov	 ebp, esp
  00003	51		 push	 ecx
  00004	89 4d fc	 mov	 DWORD PTR _this$[ebp], ecx
  00007	8b 4d fc	 mov	 ecx, DWORD PTR _this$[ebp]
  0000a	e8 00 00 00 00	 call	 ??0CWnd@@QAE@XZ		; CWnd::CWnd
  0000f	8b 45 fc	 mov	 eax, DWORD PTR _this$[ebp]
  00012	c7 00 00 00 00
	00		 mov	 DWORD PTR [eax], OFFSET FLAT:??_7CStatic@@6B@
  00018	8b 45 fc	 mov	 eax, DWORD PTR _this$[ebp]
  0001b	8b e5		 mov	 esp, ebp
  0001d	5d		 pop	 ebp
  0001e	c3		 ret	 0
??0CStatic@@QAE@XZ ENDP					; CStatic::CStatic
; Function compile flags: /Odt
_TEXT	ENDS
;	COMDAT ??_GCStatic@@UAEPAXI@Z
_TEXT	SEGMENT
_this$ = -4						; size = 4
___flags$ = 8						; size = 4
??_GCStatic@@UAEPAXI@Z PROC NEAR			; CStatic::`scalar deleting destructor', COMDAT
; _this$ = ecx
  00000	55		 push	 ebp
  00001	8b ec		 mov	 ebp, esp
  00003	51		 push	 ecx
  00004	89 4d fc	 mov	 DWORD PTR _this$[ebp], ecx
  00007	8b 4d fc	 mov	 ecx, DWORD PTR _this$[ebp]
  0000a	e8 00 00 00 00	 call	 ??1CStatic@@UAE@XZ	; CStatic::~CStatic
  0000f	8b 45 08	 mov	 eax, DWORD PTR ___flags$[ebp]
  00012	83 e0 01	 and	 eax, 1
  00015	74 09		 je	 SHORT $L44524
  00017	8b 4d fc	 mov	 ecx, DWORD PTR _this$[ebp]
  0001a	51		 push	 ecx
  0001b	e8 00 00 00 00	 call	 ??3CObject@@SGXPAX@Z	; CObject::operator delete
$L44524:
  00020	8b 45 fc	 mov	 eax, DWORD PTR _this$[ebp]
  00023	8b e5		 mov	 esp, ebp
  00025	5d		 pop	 ebp
  00026	c2 04 00	 ret	 4
??_GCStatic@@UAEPAXI@Z ENDP				; CStatic::`scalar deleting destructor'
_TEXT	ENDS
END
