; Listing generated by Microsoft (R) Optimizing Compiler Version 13.10.3077 

	TITLE	.\src\LayoutMgr\ChangeColor\SubLabel.cpp
	.386P
include listing.inc
if @Version gt 510
.model FLAT
else
_TEXT	SEGMENT PARA USE32 PUBLIC 'CODE'
_TEXT	ENDS
_DATA	SEGMENT DWORD USE32 PUBLIC 'DATA'
_DATA	ENDS
CONST	SEGMENT DWORD USE32 PUBLIC 'CONST'
CONST	ENDS
_BSS	SEGMENT DWORD USE32 PUBLIC 'BSS'
_BSS	ENDS
$$SYMBOLS	SEGMENT BYTE USE32 'DEBSYM'
$$SYMBOLS	ENDS
$$TYPES	SEGMENT BYTE USE32 'DEBTYP'
$$TYPES	ENDS
_TLS	SEGMENT DWORD USE32 PUBLIC 'TLS'
_TLS	ENDS
rdata$r	SEGMENT DWORD USE32 PUBLIC 'CONST'
rdata$r	ENDS
xdata$x	SEGMENT DWORD USE32 PUBLIC 'CONST'
xdata$x	ENDS
text$AFX_COL1	SEGMENT PARA USE32 PUBLIC ''
text$AFX_COL1	ENDS
text$yc	SEGMENT PARA USE32 PUBLIC 'CODE'
text$yc	ENDS
CRT$XCA	SEGMENT DWORD USE32 PUBLIC 'DATA'
CRT$XCA	ENDS
CRT$XCU	SEGMENT DWORD USE32 PUBLIC 'DATA'
CRT$XCU	ENDS
CRT$XCL	SEGMENT DWORD USE32 PUBLIC 'DATA'
CRT$XCL	ENDS
CRT$XCC	SEGMENT DWORD USE32 PUBLIC 'DATA'
CRT$XCC	ENDS
CRT$XCZ	SEGMENT DWORD USE32 PUBLIC 'DATA'
CRT$XCZ	ENDS
text$yd	SEGMENT PARA USE32 PUBLIC 'CODE'
text$yd	ENDS
ATL$__m	SEGMENT DWORD USE32 PUBLIC ''
ATL$__m	ENDS
ATL$__z	SEGMENT DWORD USE32 PUBLIC ''
ATL$__z	ENDS
ATL$__a	SEGMENT DWORD USE32 PUBLIC ''
ATL$__a	ENDS
;	COMDAT ??0BaseColor@@QAE@XZ
_TEXT	SEGMENT PARA USE32 PUBLIC 'CODE'
_TEXT	ENDS
;	COMDAT ??1BaseColor@@QAE@XZ
_TEXT	SEGMENT PARA USE32 PUBLIC 'CODE'
_TEXT	ENDS
;	COMDAT ??_GBaseColor@@QAEPAXI@Z
_TEXT	SEGMENT PARA USE32 PUBLIC 'CODE'
_TEXT	ENDS
;	COMDAT ??_GCSubLabel@@UAEPAXI@Z
_TEXT	SEGMENT PARA USE32 PUBLIC 'CODE'
_TEXT	ENDS
;	COMDAT ??9ATL@@YA_NABV?$CStringT@DV?$StrTraitMFC_DLL@DV?$ChTraitsCRT@D@ATL@@@@@0@PBD@Z
_TEXT	SEGMENT PARA USE32 PUBLIC 'CODE'
_TEXT	ENDS
;	COMDAT ??B?$CComPtrBase@UITypeInfo2@@@ATL@@QBEPAUITypeInfo2@@XZ
_TEXT	SEGMENT PARA USE32 PUBLIC 'CODE'
_TEXT	ENDS
;	COMDAT ?equal@?$istreambuf_iterator@DU?$char_traits@D@std@@@std@@QBE_NABV12@@Z
_TEXT	SEGMENT PARA USE32 PUBLIC 'CODE'
_TEXT	ENDS
;	COMDAT ?equal@?$istreambuf_iterator@_WU?$char_traits@_W@std@@@std@@QBE_NABV12@@Z
_TEXT	SEGMENT PARA USE32 PUBLIC 'CODE'
_TEXT	ENDS
;	COMDAT ?StringCompare@?$ChTraitsCRT@D@ATL@@SAHPBD0@Z
_TEXT	SEGMENT PARA USE32 PUBLIC 'CODE'
_TEXT	ENDS
;	COMDAT ?Unlock@?$CComCritSecLock@VCComCriticalSection@ATL@@@ATL@@QAEXXZ
_TEXT	SEGMENT PARA USE32 PUBLIC 'CODE'
_TEXT	ENDS
;	COMDAT ??$_Maklocstr@D@std@@YAPADPBDPADABU_Cvtvec@@@Z
_TEXT	SEGMENT PARA USE32 PUBLIC 'CODE'
_TEXT	ENDS
;	COMDAT ??_R3CSubLabel@@8
rdata$r	SEGMENT DWORD USE32 PUBLIC 'CONST'
rdata$r	ENDS
;	COMDAT ??_R3?$numpunct@_W@std@@8
rdata$r	SEGMENT DWORD USE32 PUBLIC 'CONST'
rdata$r	ENDS
;	COMDAT ??_R3?$numpunct@D@std@@8
rdata$r	SEGMENT DWORD USE32 PUBLIC 'CONST'
rdata$r	ENDS
;	COMDAT ??_R2CSubLabel@@8
rdata$r	SEGMENT DWORD USE32 PUBLIC 'CONST'
rdata$r	ENDS
;	COMDAT ??_R2?$numpunct@_W@std@@8
rdata$r	SEGMENT DWORD USE32 PUBLIC 'CONST'
rdata$r	ENDS
;	COMDAT ??_R2?$numpunct@D@std@@8
rdata$r	SEGMENT DWORD USE32 PUBLIC 'CONST'
rdata$r	ENDS
;	COMDAT ??_R1A@?0A@A@CObject@@8
rdata$r	SEGMENT DWORD USE32 PUBLIC 'CONST'
rdata$r	ENDS
;	COMDAT ??_R0?AVCObject@@@8
_DATA	SEGMENT DWORD USE32 PUBLIC 'DATA'
_DATA	ENDS
;	COMDAT ??_R1A@?0A@A@CCmdTarget@@8
rdata$r	SEGMENT DWORD USE32 PUBLIC 'CONST'
rdata$r	ENDS
;	COMDAT ??_R0?AVCCmdTarget@@@8
_DATA	SEGMENT DWORD USE32 PUBLIC 'DATA'
_DATA	ENDS
;	COMDAT ??_R1A@?0A@A@CWnd@@8
rdata$r	SEGMENT DWORD USE32 PUBLIC 'CONST'
rdata$r	ENDS
;	COMDAT ??_R0?AVCWnd@@@8
_DATA	SEGMENT DWORD USE32 PUBLIC 'DATA'
_DATA	ENDS
;	COMDAT ??_R1A@?0A@A@CStatic@@8
rdata$r	SEGMENT DWORD USE32 PUBLIC 'CONST'
rdata$r	ENDS
;	COMDAT ??_R0?AVCStatic@@@8
_DATA	SEGMENT DWORD USE32 PUBLIC 'DATA'
_DATA	ENDS
;	COMDAT ??_R1A@?0A@A@CSubLabel@@8
rdata$r	SEGMENT DWORD USE32 PUBLIC 'CONST'
rdata$r	ENDS
;	COMDAT ??_R1A@?0A@A@?$numpunct@_W@std@@8
rdata$r	SEGMENT DWORD USE32 PUBLIC 'CONST'
rdata$r	ENDS
;	COMDAT ??_R1A@?0A@A@facet@locale@std@@8
rdata$r	SEGMENT DWORD USE32 PUBLIC 'CONST'
rdata$r	ENDS
;	COMDAT ??_R0?AVfacet@locale@std@@@8
_DATA	SEGMENT DWORD USE32 PUBLIC 'DATA'
_DATA	ENDS
;	COMDAT ??_R1A@?0A@A@?$numpunct@D@std@@8
rdata$r	SEGMENT DWORD USE32 PUBLIC 'CONST'
rdata$r	ENDS
;	COMDAT ??_R0?AVCSubLabel@@@8
_DATA	SEGMENT DWORD USE32 PUBLIC 'DATA'
_DATA	ENDS
;	COMDAT ??_R0?AV?$numpunct@_W@std@@@8
_DATA	SEGMENT DWORD USE32 PUBLIC 'DATA'
_DATA	ENDS
;	COMDAT ??_R0?AV?$numpunct@D@std@@@8
_DATA	SEGMENT DWORD USE32 PUBLIC 'DATA'
_DATA	ENDS
;	COMDAT ?EndModalState@CWnd@@UAEXXZ
_TEXT	SEGMENT PARA USE32 PUBLIC 'CODE'
_TEXT	ENDS
;	COMDAT ?BeginModalState@CWnd@@UAEXXZ
_TEXT	SEGMENT PARA USE32 PUBLIC 'CODE'
_TEXT	ENDS
;	COMDAT ?DoDataExchange@CWnd@@MAEXPAVCDataExchange@@@Z
_TEXT	SEGMENT PARA USE32 PUBLIC 'CODE'
_TEXT	ENDS
;	COMDAT ?Dump@CObject@@UBEXAAVCDumpContext@@@Z
_TEXT	SEGMENT PARA USE32 PUBLIC 'CODE'
_TEXT	ENDS
;	COMDAT ?AssertValid@CObject@@UBEXXZ
_TEXT	SEGMENT PARA USE32 PUBLIC 'CODE'
_TEXT	ENDS
;	COMDAT ?Serialize@CObject@@UAEXAAVCArchive@@@Z
_TEXT	SEGMENT PARA USE32 PUBLIC 'CODE'
_TEXT	ENDS
;	COMDAT ??_R4CSubLabel@@6B@
rdata$r	SEGMENT DWORD USE32 PUBLIC 'CONST'
rdata$r	ENDS
;	COMDAT ??0?$allocator@_W@std@@QAE@XZ
_TEXT	SEGMENT PARA USE32 PUBLIC 'CODE'
_TEXT	ENDS
;	COMDAT ??0?$allocator@D@std@@QAE@ABV01@@Z
_TEXT	SEGMENT PARA USE32 PUBLIC 'CODE'
_TEXT	ENDS
;	COMDAT ??0?$allocator@D@std@@QAE@XZ
_TEXT	SEGMENT PARA USE32 PUBLIC 'CODE'
_TEXT	ENDS
;	COMDAT ?deallocate@?$allocator@D@std@@QAEXPADI@Z
_TEXT	SEGMENT PARA USE32 PUBLIC 'CODE'
_TEXT	ENDS
;	COMDAT ?max_size@?$allocator@D@std@@QBEIXZ
_TEXT	SEGMENT PARA USE32 PUBLIC 'CODE'
_TEXT	ENDS
;	COMDAT ?allocate@?$allocator@D@std@@QAEPADI@Z
_TEXT	SEGMENT PARA USE32 PUBLIC 'CODE'
_TEXT	ENDS
;	COMDAT ??$_Allocate@D@std@@YAPADIPAD@Z
_TEXT	SEGMENT PARA USE32 PUBLIC 'CODE'
_TEXT	ENDS
;	COMDAT ??_G?$numpunct@_W@std@@MAEPAXI@Z
_TEXT	SEGMENT PARA USE32 PUBLIC 'CODE'
_TEXT	ENDS
;	COMDAT ??_R4?$numpunct@_W@std@@6B@
rdata$r	SEGMENT DWORD USE32 PUBLIC 'CONST'
rdata$r	ENDS
;	COMDAT ??_G?$numpunct@D@std@@MAEPAXI@Z
_TEXT	SEGMENT PARA USE32 PUBLIC 'CODE'
_TEXT	ENDS
;	COMDAT ??_R4?$numpunct@D@std@@6B@
rdata$r	SEGMENT DWORD USE32 PUBLIC 'CONST'
rdata$r	ENDS
;	COMDAT ?_Psave@?$_Facetptr@V?$numpunct@_W@std@@@std@@2PBVfacet@locale@2@B
_DATA	SEGMENT DWORD USE32 PUBLIC 'DATA'
_DATA	ENDS
;	COMDAT ?_Psave@?$_Facetptr@V?$numpunct@D@std@@@std@@2PBVfacet@locale@2@B
_DATA	SEGMENT DWORD USE32 PUBLIC 'DATA'
_DATA	ENDS
;	COMDAT ?Unlock@CComCriticalSection@ATL@@QAEJXZ
_TEXT	SEGMENT PARA USE32 PUBLIC 'CODE'
_TEXT	ENDS
;	COMDAT ?_Psave@?$_Facetptr@V?$ctype@_W@std@@@std@@2PBVfacet@locale@2@B
_DATA	SEGMENT DWORD USE32 PUBLIC 'DATA'
_DATA	ENDS
;	COMDAT ?_Psave@?$_Facetptr@V?$ctype@D@std@@@std@@2PBVfacet@locale@2@B
_DATA	SEGMENT DWORD USE32 PUBLIC 'DATA'
_DATA	ENDS
;	COMDAT ??$_Maklocchr@_W@std@@YA_WDPA_WABU_Cvtvec@@@Z
_TEXT	SEGMENT PARA USE32 PUBLIC 'CODE'
_TEXT	ENDS
;	COMDAT ??$_Maklocstr@_W@std@@YAPA_WPBDPA_WABU_Cvtvec@@@Z
_TEXT	SEGMENT PARA USE32 PUBLIC 'CODE'
_TEXT	ENDS
;	COMDAT ??$_Maklocchr@D@std@@YADDPADABU_Cvtvec@@@Z
_TEXT	SEGMENT PARA USE32 PUBLIC 'CODE'
_TEXT	ENDS
;	COMDAT ??_C@_04LOAJBDKD@true?$AA@
CONST	SEGMENT DWORD USE32 PUBLIC 'CONST'
CONST	ENDS
;	COMDAT ??_C@_05LAPONLG@false?$AA@
CONST	SEGMENT DWORD USE32 PUBLIC 'CONST'
CONST	ENDS
;	COMDAT _wmemcpy
_TEXT	SEGMENT PARA USE32 PUBLIC 'CODE'
_TEXT	ENDS
;	COMDAT ?max_size@?$allocator@_W@std@@QBEIXZ
_TEXT	SEGMENT PARA USE32 PUBLIC 'CODE'
_TEXT	ENDS
;	COMDAT ?allocate@?$allocator@_W@std@@QAEPA_WI@Z
_TEXT	SEGMENT PARA USE32 PUBLIC 'CODE'
_TEXT	ENDS
;	COMDAT ??$_Allocate@_W@std@@YAPA_WIPA_W@Z
_TEXT	SEGMENT PARA USE32 PUBLIC 'CODE'
_TEXT	ENDS
;	COMDAT ??_C@_01GFHCPBMG@C?$AA@
CONST	SEGMENT DWORD USE32 PUBLIC 'CONST'
CONST	ENDS
;	COMDAT ?_Peek@?$istreambuf_iterator@_WU?$char_traits@_W@std@@@std@@AAE_WXZ
_TEXT	SEGMENT PARA USE32 PUBLIC 'CODE'
_TEXT	ENDS
;	COMDAT ?_Peek@?$istreambuf_iterator@DU?$char_traits@D@std@@@std@@AAEDXZ
_TEXT	SEGMENT PARA USE32 PUBLIC 'CODE'
_TEXT	ENDS
;	COMDAT ??$use_facet@V?$ctype@_W@std@@@std@@YAABV?$ctype@_W@0@ABVlocale@0@@Z
_TEXT	SEGMENT PARA USE32 PUBLIC 'CODE'
_TEXT	ENDS
;	COMDAT ??_S?$ctype@_W@std@@6B@
CONST	SEGMENT DWORD USE32 PUBLIC 'CONST'
CONST	ENDS
;	COMDAT ??_R4?$ctype@_W@std@@6B@
rdata$r	SEGMENT DWORD USE32 PUBLIC 'CONST'
rdata$r	ENDS
;	COMDAT ??_R0?AV?$ctype@_W@std@@@8
_DATA	SEGMENT DWORD USE32 PUBLIC 'DATA'
_DATA	ENDS
;	COMDAT ??_R3?$ctype@_W@std@@8
rdata$r	SEGMENT DWORD USE32 PUBLIC 'CONST'
rdata$r	ENDS
;	COMDAT ??_R2?$ctype@_W@std@@8
rdata$r	SEGMENT DWORD USE32 PUBLIC 'CONST'
rdata$r	ENDS
;	COMDAT ??_R1A@?0A@A@?$ctype@_W@std@@8
rdata$r	SEGMENT DWORD USE32 PUBLIC 'CONST'
rdata$r	ENDS
;	COMDAT ??_R1A@?0A@A@ctype_base@std@@8
rdata$r	SEGMENT DWORD USE32 PUBLIC 'CONST'
rdata$r	ENDS
;	COMDAT ??_R0?AUctype_base@std@@@8
_DATA	SEGMENT DWORD USE32 PUBLIC 'DATA'
_DATA	ENDS
;	COMDAT ??_G?$ctype@_W@std@@MAEPAXI@Z
_TEXT	SEGMENT PARA USE32 PUBLIC 'CODE'
_TEXT	ENDS
;	COMDAT ??_C@_08EPJLHIJG@bad?5cast?$AA@
CONST	SEGMENT DWORD USE32 PUBLIC 'CONST'
CONST	ENDS
;	COMDAT __TI2?AVbad_cast@@
xdata$x	SEGMENT DWORD USE32 PUBLIC 'CONST'
xdata$x	ENDS
;	COMDAT __CTA2?AVbad_cast@@
xdata$x	SEGMENT DWORD USE32 PUBLIC 'CONST'
xdata$x	ENDS
;	COMDAT __CT??_R0?AVbad_cast@@@8??0bad_cast@@QAE@ABV0@@Z12
xdata$x	SEGMENT DWORD USE32 PUBLIC 'CONST'
xdata$x	ENDS
;	COMDAT ??_R0?AVbad_cast@@@8
_DATA	SEGMENT DWORD USE32 PUBLIC 'DATA'
_DATA	ENDS
;	COMDAT __CT??_R0?AVexception@@@8??0exception@@QAE@ABV0@@Z12
xdata$x	SEGMENT DWORD USE32 PUBLIC 'CONST'
xdata$x	ENDS
;	COMDAT ??_R0?AVexception@@@8
_DATA	SEGMENT DWORD USE32 PUBLIC 'DATA'
_DATA	ENDS
;	COMDAT ??$use_facet@V?$ctype@D@std@@@std@@YAABV?$ctype@D@0@ABVlocale@0@@Z
_TEXT	SEGMENT PARA USE32 PUBLIC 'CODE'
_TEXT	ENDS
;	COMDAT ??_S?$ctype@D@std@@6B@
CONST	SEGMENT DWORD USE32 PUBLIC 'CONST'
CONST	ENDS
;	COMDAT ??_R4?$ctype@D@std@@6B@
rdata$r	SEGMENT DWORD USE32 PUBLIC 'CONST'
rdata$r	ENDS
;	COMDAT ??_R0?AV?$ctype@D@std@@@8
_DATA	SEGMENT DWORD USE32 PUBLIC 'DATA'
_DATA	ENDS
;	COMDAT ??_R3?$ctype@D@std@@8
rdata$r	SEGMENT DWORD USE32 PUBLIC 'CONST'
rdata$r	ENDS
;	COMDAT ??_R2?$ctype@D@std@@8
rdata$r	SEGMENT DWORD USE32 PUBLIC 'CONST'
rdata$r	ENDS
;	COMDAT ??_R1A@?0A@A@?$ctype@D@std@@8
rdata$r	SEGMENT DWORD USE32 PUBLIC 'CONST'
rdata$r	ENDS
;	COMDAT ??_G?$ctype@D@std@@MAEPAXI@Z
_TEXT	SEGMENT PARA USE32 PUBLIC 'CODE'
_TEXT	ENDS
;	COMDAT ??_S?$numpunct@_W@std@@6B@
CONST	SEGMENT DWORD USE32 PUBLIC 'CONST'
CONST	ENDS
;	COMDAT ??_S?$numpunct@D@std@@6B@
CONST	SEGMENT DWORD USE32 PUBLIC 'CONST'
CONST	ENDS
;	COMDAT _wmemmove
_TEXT	SEGMENT PARA USE32 PUBLIC 'CODE'
_TEXT	ENDS
;	COMDAT ?deallocate@?$allocator@_W@std@@QAEXPA_WI@Z
_TEXT	SEGMENT PARA USE32 PUBLIC 'CODE'
_TEXT	ENDS
;	COMDAT ??0?$allocator@_W@std@@QAE@ABV01@@Z
_TEXT	SEGMENT PARA USE32 PUBLIC 'CODE'
_TEXT	ENDS
;	COMDAT ?IsLocked@CStringData@ATL@@QBE_NXZ
_TEXT	SEGMENT PARA USE32 PUBLIC 'CODE'
_TEXT	ENDS
;	COMDAT ?AtlThrow@ATL@@YGXJ@Z
_TEXT	SEGMENT PARA USE32 PUBLIC 'CODE'
_TEXT	ENDS
;	COMDAT ?IsShared@CStringData@ATL@@QBE_NXZ
_TEXT	SEGMENT PARA USE32 PUBLIC 'CODE'
_TEXT	ENDS
;	COMDAT ?data@CStringData@ATL@@QAEPAXXZ
_TEXT	SEGMENT PARA USE32 PUBLIC 'CODE'
_TEXT	ENDS
;	COMDAT ?AddRef@CStringData@ATL@@QAEXXZ
_TEXT	SEGMENT PARA USE32 PUBLIC 'CODE'
_TEXT	ENDS
;	COMDAT ?Release@CStringData@ATL@@QAEXXZ
_TEXT	SEGMENT PARA USE32 PUBLIC 'CODE'
_TEXT	ENDS
;	COMDAT ?SelectObject@CDC@@QAEPAXPAX@Z
_TEXT	SEGMENT PARA USE32 PUBLIC 'CODE'
_TEXT	ENDS
;	COMDAT ?DrawTextA@CDC@@QAEHABV?$CStringT@DV?$StrTraitMFC_DLL@DV?$ChTraitsCRT@D@ATL@@@@@ATL@@PAUtagRECT@@I@Z
_TEXT	SEGMENT PARA USE32 PUBLIC 'CODE'
_TEXT	ENDS
;	COMDAT ?DeflateRect@CRect@@QAEXHHHH@Z
_TEXT	SEGMENT PARA USE32 PUBLIC 'CODE'
_TEXT	ENDS
;	COMDAT ??BCRect@@QAEPAUtagRECT@@XZ
_TEXT	SEGMENT PARA USE32 PUBLIC 'CODE'
_TEXT	ENDS
;	COMDAT ??1CBrush@@UAE@XZ
_TEXT	SEGMENT PARA USE32 PUBLIC 'CODE'
_TEXT	ENDS
;	COMDAT ??_7CBrush@@6B@
CONST	SEGMENT DWORD USE32 PUBLIC 'CONST'
CONST	ENDS
;	COMDAT ??_R4CBrush@@6B@
rdata$r	SEGMENT DWORD USE32 PUBLIC 'CONST'
rdata$r	ENDS
;	COMDAT ??_R0?AVCBrush@@@8
_DATA	SEGMENT DWORD USE32 PUBLIC 'DATA'
_DATA	ENDS
;	COMDAT ??_R3CBrush@@8
rdata$r	SEGMENT DWORD USE32 PUBLIC 'CONST'
rdata$r	ENDS
;	COMDAT ??_R2CBrush@@8
rdata$r	SEGMENT DWORD USE32 PUBLIC 'CONST'
rdata$r	ENDS
;	COMDAT ??_R1A@?0A@A@CBrush@@8
rdata$r	SEGMENT DWORD USE32 PUBLIC 'CONST'
rdata$r	ENDS
;	COMDAT ??_R1A@?0A@A@CGdiObject@@8
rdata$r	SEGMENT DWORD USE32 PUBLIC 'CONST'
rdata$r	ENDS
;	COMDAT ??_R0?AVCGdiObject@@@8
_DATA	SEGMENT DWORD USE32 PUBLIC 'DATA'
_DATA	ENDS
;	COMDAT ??_GCBrush@@UAEPAXI@Z
_TEXT	SEGMENT PARA USE32 PUBLIC 'CODE'
_TEXT	ENDS
;	COMDAT ??1CGdiObject@@UAE@XZ
_TEXT	SEGMENT PARA USE32 PUBLIC 'CODE'
_TEXT	ENDS
;	COMDAT ??_7CGdiObject@@6B@
CONST	SEGMENT DWORD USE32 PUBLIC 'CONST'
CONST	ENDS
;	COMDAT ??_R4CGdiObject@@6B@
rdata$r	SEGMENT DWORD USE32 PUBLIC 'CONST'
rdata$r	ENDS
;	COMDAT ??_R3CGdiObject@@8
rdata$r	SEGMENT DWORD USE32 PUBLIC 'CONST'
rdata$r	ENDS
;	COMDAT ??_R2CGdiObject@@8
rdata$r	SEGMENT DWORD USE32 PUBLIC 'CONST'
rdata$r	ENDS
;	COMDAT ??_GCGdiObject@@UAEPAXI@Z
_TEXT	SEGMENT PARA USE32 PUBLIC 'CODE'
_TEXT	ENDS
;	COMDAT ??1CObject@@UAE@XZ
_TEXT	SEGMENT PARA USE32 PUBLIC 'CODE'
_TEXT	ENDS
;	COMDAT ?FillRect@CDC@@QAEXPBUtagRECT@@PAVCBrush@@@Z
_TEXT	SEGMENT PARA USE32 PUBLIC 'CODE'
_TEXT	ENDS
;	COMDAT ?GetSafeHandle@CGdiObject@@QBEPAXXZ
_TEXT	SEGMENT PARA USE32 PUBLIC 'CODE'
_TEXT	ENDS
;	COMDAT ?GetClientRect@CWnd@@QBEXPAUtagRECT@@@Z
_TEXT	SEGMENT PARA USE32 PUBLIC 'CODE'
_TEXT	ENDS
;	COMDAT ??0CRect@@QAE@XZ
_TEXT	SEGMENT PARA USE32 PUBLIC 'CODE'
_TEXT	ENDS
;	COMDAT ?CreateFontA@CFont@@QAEHHHHHHEEEEEEEEPBD@Z
_TEXT	SEGMENT PARA USE32 PUBLIC 'CODE'
_TEXT	ENDS
;	COMDAT ?_messageEntries@CSubLabel@@0QBUAFX_MSGMAP_ENTRY@@B
CONST	SEGMENT DWORD USE32 PUBLIC 'CONST'
CONST	ENDS
;	COMDAT ?messageMap@CSubLabel@@1UAFX_MSGMAP@@B
CONST	SEGMENT DWORD USE32 PUBLIC 'CONST'
CONST	ENDS
;	COMDAT ??0CFont@@QAE@XZ
_TEXT	SEGMENT PARA USE32 PUBLIC 'CODE'
_TEXT	ENDS
;	COMDAT ??0CGdiObject@@QAE@XZ
_TEXT	SEGMENT PARA USE32 PUBLIC 'CODE'
_TEXT	ENDS
;	COMDAT ??0CObject@@IAE@XZ
_TEXT	SEGMENT PARA USE32 PUBLIC 'CODE'
_TEXT	ENDS
;	COMDAT ??_7CFont@@6B@
CONST	SEGMENT DWORD USE32 PUBLIC 'CONST'
CONST	ENDS
;	COMDAT ??_R4CFont@@6B@
rdata$r	SEGMENT DWORD USE32 PUBLIC 'CONST'
rdata$r	ENDS
;	COMDAT ??_R0?AVCFont@@@8
_DATA	SEGMENT DWORD USE32 PUBLIC 'DATA'
_DATA	ENDS
;	COMDAT ??_R3CFont@@8
rdata$r	SEGMENT DWORD USE32 PUBLIC 'CONST'
rdata$r	ENDS
;	COMDAT ??_R2CFont@@8
rdata$r	SEGMENT DWORD USE32 PUBLIC 'CONST'
rdata$r	ENDS
;	COMDAT ??_R1A@?0A@A@CFont@@8
rdata$r	SEGMENT DWORD USE32 PUBLIC 'CONST'
rdata$r	ENDS
;	COMDAT ??_GCFont@@UAEPAXI@Z
_TEXT	SEGMENT PARA USE32 PUBLIC 'CODE'
_TEXT	ENDS
;	COMDAT ??1CFont@@UAE@XZ
_TEXT	SEGMENT PARA USE32 PUBLIC 'CODE'
_TEXT	ENDS
;	COMDAT ??3CObject@@SGXPAX@Z
_TEXT	SEGMENT PARA USE32 PUBLIC 'CODE'
_TEXT	ENDS
;	COMDAT ??2CObject@@SGPAXI@Z
_TEXT	SEGMENT PARA USE32 PUBLIC 'CODE'
_TEXT	ENDS
;	COMDAT ?GetDefaultManager@?$StrTraitMFC_DLL@DV?$ChTraitsCRT@D@ATL@@@@SAPAUIAtlStringMgr@ATL@@XZ
_TEXT	SEGMENT PARA USE32 PUBLIC 'CODE'
_TEXT	ENDS
;	COMDAT ??_7CSubLabel@@6B@
CONST	SEGMENT DWORD USE32 PUBLIC 'CONST'
CONST	ENDS
;	COMDAT ??0CStatic@@QAE@XZ
_TEXT	SEGMENT PARA USE32 PUBLIC 'CODE'
_TEXT	ENDS
;	COMDAT ??_7CStatic@@6B@
CONST	SEGMENT DWORD USE32 PUBLIC 'CONST'
CONST	ENDS
;	COMDAT ??_R4CStatic@@6B@
rdata$r	SEGMENT DWORD USE32 PUBLIC 'CONST'
rdata$r	ENDS
;	COMDAT ??_R3CStatic@@8
rdata$r	SEGMENT DWORD USE32 PUBLIC 'CONST'
rdata$r	ENDS
;	COMDAT ??_R2CStatic@@8
rdata$r	SEGMENT DWORD USE32 PUBLIC 'CONST'
rdata$r	ENDS
;	COMDAT ??_GCStatic@@UAEPAXI@Z
_TEXT	SEGMENT PARA USE32 PUBLIC 'CODE'
_TEXT	ENDS
sxdata	SEGMENT DWORD USE32 'SXDATA'
sxdata	ENDS
FLAT	GROUP _DATA, CONST, _BSS
	ASSUME	CS: FLAT, DS: FLAT, SS: FLAT
endif

INCLUDELIB MSVCRT
INCLUDELIB OLDNAMES

PUBLIC	?_messageEntries@CSubLabel@@0QBUAFX_MSGMAP_ENTRY@@B ; CSubLabel::_messageEntries
PUBLIC	?messageMap@CSubLabel@@1UAFX_MSGMAP@@B		; CSubLabel::messageMap
PUBLIC	?OnCreate@CSubLabel@@QAEHPAUtagCREATESTRUCTA@@@Z ; CSubLabel::OnCreate
PUBLIC	?OnPaint@CSubLabel@@QAEXXZ			; CSubLabel::OnPaint
EXTRN	?GetThisMessageMap@CWnd@@KGPBUAFX_MSGMAP@@XZ:NEAR ; CWnd::GetThisMessageMap
CONST	SEGMENT
$SG197513 DB	00H
CONST	ENDS
;	COMDAT ?_messageEntries@CSubLabel@@0QBUAFX_MSGMAP_ENTRY@@B
CONST	SEGMENT
?_messageEntries@CSubLabel@@0QBUAFX_MSGMAP_ENTRY@@B DD 01H ; CSubLabel::_messageEntries
	DD	00H
	DD	00H
	DD	00H
	DD	0dH
	DD	FLAT:?OnCreate@CSubLabel@@QAEHPAUtagCREATESTRUCTA@@@Z
	DD	0fH
	DD	00H
	DD	00H
	DD	00H
	DD	010H
	DD	FLAT:?OnPaint@CSubLabel@@QAEXXZ
	DD	00H
	DD	00H
	DD	00H
	DD	00H
	DD	00H
	DD	00H
CONST	ENDS
;	COMDAT ?messageMap@CSubLabel@@1UAFX_MSGMAP@@B
CONST	SEGMENT
?messageMap@CSubLabel@@1UAFX_MSGMAP@@B DD FLAT:?GetThisMessageMap@CWnd@@KGPBUAFX_MSGMAP@@XZ ; CSubLabel::messageMap
	DD	FLAT:?_messageEntries@CSubLabel@@0QBUAFX_MSGMAP_ENTRY@@B
CONST	ENDS
CONST	SEGMENT
	ORG $+3
$SG197546 DB	0cbH, 0ceH, 0ccH, 0e5H, 00H
$SG197569 DB	00H
CONST	ENDS
PUBLIC	??_R4CSubLabel@@6B@				; CSubLabel::`RTTI Complete Object Locator'
PUBLIC	??_R0?AVCSubLabel@@@8				; CSubLabel `RTTI Type Descriptor'
PUBLIC	??_R3CSubLabel@@8				; CSubLabel::`RTTI Class Hierarchy Descriptor'
PUBLIC	??_R2CSubLabel@@8				; CSubLabel::`RTTI Base Class Array'
PUBLIC	??_R1A@?0A@A@CSubLabel@@8			; CSubLabel::`RTTI Base Class Descriptor at (0,-1,0,0)'
PUBLIC	??_R1A@?0A@A@CObject@@8				; CObject::`RTTI Base Class Descriptor at (0,-1,0,0)'
PUBLIC	??_R0?AVCObject@@@8				; CObject `RTTI Type Descriptor'
PUBLIC	??0CStatic@@QAE@XZ				; CStatic::CStatic
PUBLIC	??_R1A@?0A@A@CWnd@@8				; CWnd::`RTTI Base Class Descriptor at (0,-1,0,0)'
PUBLIC	??_R0?AVCWnd@@@8				; CWnd `RTTI Type Descriptor'
PUBLIC	??_R1A@?0A@A@CCmdTarget@@8			; CCmdTarget::`RTTI Base Class Descriptor at (0,-1,0,0)'
PUBLIC	??_R0?AVCCmdTarget@@@8				; CCmdTarget `RTTI Type Descriptor'
PUBLIC	??2CObject@@SGPAXI@Z				; CObject::operator new
PUBLIC	??3CObject@@SGXPAX@Z				; CObject::operator delete
PUBLIC	?Serialize@CObject@@UAEXAAVCArchive@@@Z		; CObject::Serialize
PUBLIC	?AssertValid@CObject@@UBEXXZ			; CObject::AssertValid
PUBLIC	?Dump@CObject@@UBEXAAVCDumpContext@@@Z		; CObject::Dump
PUBLIC	??_R0?AVCStatic@@@8				; CStatic `RTTI Type Descriptor'
PUBLIC	??_R1A@?0A@A@CStatic@@8				; CStatic::`RTTI Base Class Descriptor at (0,-1,0,0)'
PUBLIC	??0CSubLabel@@QAE@XZ				; CSubLabel::CSubLabel
PUBLIC	?GetMessageMap@CSubLabel@@MBEPBUAFX_MSGMAP@@XZ	; CSubLabel::GetMessageMap
PUBLIC	??_7CSubLabel@@6B@				; CSubLabel::`vftable'
PUBLIC	??_GCSubLabel@@UAEPAXI@Z			; CSubLabel::`scalar deleting destructor'
PUBLIC	??0CFont@@QAE@XZ				; CFont::CFont
PUBLIC	?DoDataExchange@CWnd@@MAEXPAVCDataExchange@@@Z	; CWnd::DoDataExchange
PUBLIC	?BeginModalState@CWnd@@UAEXXZ			; CWnd::BeginModalState
PUBLIC	?EndModalState@CWnd@@UAEXXZ			; CWnd::EndModalState
EXTRN	?CreateControlContainer@CWnd@@MAEHPAPAVCOleControlContainer@@@Z:NEAR ; CWnd::CreateControlContainer
EXTRN	?CreateControlSite@CWnd@@MAEHPAVCOleControlContainer@@PAPAVCOleControlSite@@IABU_GUID@@@Z:NEAR ; CWnd::CreateControlSite
EXTRN	?SetOccDialogInfo@CWnd@@MAEHPAU_AFX_OCC_DIALOG_INFO@@@Z:NEAR ; CWnd::SetOccDialogInfo
EXTRN	?OnToolHitTest@CWnd@@UBEHVCPoint@@PAUtagTOOLINFOA@@@Z:NEAR ; CWnd::OnToolHitTest
EXTRN	__imp_??0?$CStringT@DV?$StrTraitMFC_DLL@DV?$ChTraitsCRT@D@ATL@@@@@ATL@@QAE@XZ:NEAR
EXTRN	?GetRuntimeClass@CStatic@@UBEPAUCRuntimeClass@@XZ:NEAR ; CStatic::GetRuntimeClass
EXTRN	?Create@CStatic@@UAEHPBDKABUtagRECT@@PAVCWnd@@I@Z:NEAR ; CStatic::Create
EXTRN	?GetScrollBarCtrl@CWnd@@UBEPAVCScrollBar@@H@Z:NEAR ; CWnd::GetScrollBarCtrl
EXTRN	?DrawItem@CStatic@@UAEXPAUtagDRAWITEMSTRUCT@@@Z:NEAR ; CStatic::DrawItem
EXTRN	??1CStatic@@UAE@XZ:NEAR				; CStatic::~CStatic
EXTRN	__imp_??1?$CStringT@DV?$StrTraitMFC_DLL@DV?$ChTraitsCRT@D@ATL@@@@@ATL@@QAE@XZ:NEAR
EXTRN	?OnChildNotify@CStatic@@MAEHIIJPAJ@Z:NEAR	; CStatic::OnChildNotify
EXTRN	__imp_??4?$CStringT@DV?$StrTraitMFC_DLL@DV?$ChTraitsCRT@D@ATL@@@@@ATL@@QAEAAV01@PBD@Z:NEAR
EXTRN	?WinHelpA@CWnd@@UAEXKI@Z:NEAR			; CWnd::WinHelpA
EXTRN	?HtmlHelpA@CWnd@@UAEXKI@Z:NEAR			; CWnd::HtmlHelpA
EXTRN	?WinHelpInternal@CWnd@@UAEXKI@Z:NEAR		; CWnd::WinHelpInternal
EXTRN	?ContinueModal@CWnd@@UAEHXZ:NEAR		; CWnd::ContinueModal
EXTRN	?EndModalLoop@CWnd@@UAEXH@Z:NEAR		; CWnd::EndModalLoop
EXTRN	?GetInterfaceMap@CWnd@@MBEPBUAFX_INTERFACEMAP@@XZ:NEAR ; CWnd::GetInterfaceMap
EXTRN	__except_list:DWORD
EXTRN	___CxxFrameHandler:NEAR
EXTRN	?EnsureStdObj@CWnd@@UAEJXZ:NEAR			; CWnd::EnsureStdObj
EXTRN	?get_accParent@CWnd@@UAEJPAPAUIDispatch@@@Z:NEAR ; CWnd::get_accParent
EXTRN	?get_accChildCount@CWnd@@UAEJPAJ@Z:NEAR		; CWnd::get_accChildCount
EXTRN	?OnCmdMsg@CCmdTarget@@UAEHIHPAXPAUAFX_CMDHANDLERINFO@@@Z:NEAR ; CCmdTarget::OnCmdMsg
EXTRN	?get_accChild@CWnd@@UAEJUtagVARIANT@@PAPAUIDispatch@@@Z:NEAR ; CWnd::get_accChild
EXTRN	?IsInvokeAllowed@CCmdTarget@@UAEHJ@Z:NEAR	; CCmdTarget::IsInvokeAllowed
EXTRN	?get_accName@CWnd@@UAEJUtagVARIANT@@PAPA_W@Z:NEAR ; CWnd::get_accName
EXTRN	?get_accValue@CWnd@@UAEJUtagVARIANT@@PAPA_W@Z:NEAR ; CWnd::get_accValue
EXTRN	?get_accDescription@CWnd@@UAEJUtagVARIANT@@PAPA_W@Z:NEAR ; CWnd::get_accDescription
EXTRN	?GetDispatchIID@CCmdTarget@@UAEHPAU_GUID@@@Z:NEAR ; CCmdTarget::GetDispatchIID
EXTRN	?GetTypeInfoCount@CCmdTarget@@UAEIXZ:NEAR	; CCmdTarget::GetTypeInfoCount
EXTRN	?GetTypeLibCache@CCmdTarget@@UAEPAVCTypeLibCache@@XZ:NEAR ; CCmdTarget::GetTypeLibCache
EXTRN	?get_accRole@CWnd@@UAEJUtagVARIANT@@PAU2@@Z:NEAR ; CWnd::get_accRole
EXTRN	?GetTypeLib@CCmdTarget@@UAEJKPAPAUITypeLib@@@Z:NEAR ; CCmdTarget::GetTypeLib
EXTRN	?get_accState@CWnd@@UAEJUtagVARIANT@@PAU2@@Z:NEAR ; CWnd::get_accState
EXTRN	?get_accHelp@CWnd@@UAEJUtagVARIANT@@PAPA_W@Z:NEAR ; CWnd::get_accHelp
EXTRN	?get_accHelpTopic@CWnd@@UAEJPAPA_WUtagVARIANT@@PAJ@Z:NEAR ; CWnd::get_accHelpTopic
EXTRN	?get_accKeyboardShortcut@CWnd@@UAEJUtagVARIANT@@PAPA_W@Z:NEAR ; CWnd::get_accKeyboardShortcut
EXTRN	?get_accFocus@CWnd@@UAEJPAUtagVARIANT@@@Z:NEAR	; CWnd::get_accFocus
EXTRN	?get_accSelection@CWnd@@UAEJPAUtagVARIANT@@@Z:NEAR ; CWnd::get_accSelection
EXTRN	?get_accDefaultAction@CWnd@@UAEJUtagVARIANT@@PAPA_W@Z:NEAR ; CWnd::get_accDefaultAction
EXTRN	?GetCommandMap@CCmdTarget@@MBEPBUAFX_OLECMDMAP@@XZ:NEAR ; CCmdTarget::GetCommandMap
EXTRN	?accSelect@CWnd@@UAEJJUtagVARIANT@@@Z:NEAR	; CWnd::accSelect
EXTRN	?accLocation@CWnd@@UAEJPAJ000UtagVARIANT@@@Z:NEAR ; CWnd::accLocation
EXTRN	?GetDispatchMap@CCmdTarget@@MBEPBUAFX_DISPMAP@@XZ:NEAR ; CCmdTarget::GetDispatchMap
EXTRN	?accNavigate@CWnd@@UAEJJUtagVARIANT@@PAU2@@Z:NEAR ; CWnd::accNavigate
EXTRN	?accHitTest@CWnd@@UAEJJJPAUtagVARIANT@@@Z:NEAR	; CWnd::accHitTest
EXTRN	?GetConnectionMap@CCmdTarget@@MBEPBUAFX_CONNECTIONMAP@@XZ:NEAR ; CCmdTarget::GetConnectionMap
EXTRN	?accDoDefaultAction@CWnd@@UAEJUtagVARIANT@@@Z:NEAR ; CWnd::accDoDefaultAction
EXTRN	?put_accName@CWnd@@UAEJUtagVARIANT@@PA_W@Z:NEAR	; CWnd::put_accName
EXTRN	?put_accValue@CWnd@@UAEJUtagVARIANT@@PA_W@Z:NEAR ; CWnd::put_accValue
EXTRN	?SetProxy@CWnd@@UAEJPAUIAccessibleProxy@@@Z:NEAR ; CWnd::SetProxy
EXTRN	?CreateAccessibleProxy@CWnd@@UAEJIJPAJ@Z:NEAR	; CWnd::CreateAccessibleProxy
EXTRN	?GetEventSinkMap@CCmdTarget@@MBEPBUAFX_EVENTSINKMAP@@XZ:NEAR ; CCmdTarget::GetEventSinkMap
EXTRN	?OnCreateAggregates@CCmdTarget@@UAEHXZ:NEAR	; CCmdTarget::OnCreateAggregates
EXTRN	?OnCommand@CWnd@@MAEHIJ@Z:NEAR			; CWnd::OnCommand
EXTRN	?GetInterfaceHook@CCmdTarget@@UAEPAUIUnknown@@PBX@Z:NEAR ; CCmdTarget::GetInterfaceHook
EXTRN	?OnNotify@CWnd@@MAEHIJPAJ@Z:NEAR		; CWnd::OnNotify
EXTRN	?GetExtraConnectionPoints@CCmdTarget@@MAEHPAVCPtrArray@@@Z:NEAR ; CCmdTarget::GetExtraConnectionPoints
EXTRN	?GetConnectionHook@CCmdTarget@@MAEPAUIConnectionPoint@@ABU_GUID@@@Z:NEAR ; CCmdTarget::GetConnectionHook
EXTRN	??_ECSubLabel@@UAEPAXI@Z:NEAR			; CSubLabel::`vector deleting destructor'
EXTRN	?PreSubclassWindow@CWnd@@UAEXXZ:NEAR		; CWnd::PreSubclassWindow
EXTRN	?Create@CWnd@@UAEHPBD0KABUtagRECT@@PAV1@IPAUCCreateContext@@@Z:NEAR ; CWnd::Create
EXTRN	?CreateEx@CWnd@@UAEHKPBD0KHHHHPAUHWND__@@PAUHMENU__@@PAX@Z:NEAR ; CWnd::CreateEx
EXTRN	?CreateEx@CWnd@@UAEHKPBD0KABUtagRECT@@PAV1@IPAX@Z:NEAR ; CWnd::CreateEx
EXTRN	?DestroyWindow@CWnd@@UAEHXZ:NEAR		; CWnd::DestroyWindow
EXTRN	?PreCreateWindow@CWnd@@UAEHAAUtagCREATESTRUCTA@@@Z:NEAR ; CWnd::PreCreateWindow
EXTRN	?CalcWindowRect@CWnd@@UAEXPAUtagRECT@@I@Z:NEAR	; CWnd::CalcWindowRect
EXTRN	?GetSuperWndProcAddr@CWnd@@MAEPAP6GJPAUHWND__@@IIJ@ZXZ:NEAR ; CWnd::GetSuperWndProcAddr
EXTRN	??_7type_info@@6B@:QWORD			; type_info::`vftable'
EXTRN	?PreTranslateMessage@CWnd@@UAEHPAUtagMSG@@@Z:NEAR ; CWnd::PreTranslateMessage
EXTRN	?OnAmbientProperty@CWnd@@UAEHPAVCOleControlSite@@JPAUtagVARIANT@@@Z:NEAR ; CWnd::OnAmbientProperty
EXTRN	?WindowProc@CWnd@@MAEJIIJ@Z:NEAR		; CWnd::WindowProc
EXTRN	?OnWndMsg@CWnd@@MAEHIIJPAJ@Z:NEAR		; CWnd::OnWndMsg
EXTRN	?DefWindowProcA@CWnd@@MAEJIIJ@Z:NEAR		; CWnd::DefWindowProcA
EXTRN	?PostNcDestroy@CWnd@@MAEXXZ:NEAR		; CWnd::PostNcDestroy
EXTRN	?CheckAutoCenter@CWnd@@UAEHXZ:NEAR		; CWnd::CheckAutoCenter
EXTRN	?IsFrameWnd@CWnd@@UBEHXZ:NEAR			; CWnd::IsFrameWnd
EXTRN	?OnFinalRelease@CWnd@@UAEXXZ:NEAR		; CWnd::OnFinalRelease
xdata$x	SEGMENT
$T198102 DD	0ffffffffH
	DD	FLAT:$L198093
	DD	00H
	DD	FLAT:$L198094
	DD	01H
	DD	FLAT:$L198095
$T198099 DD	019930520H
	DD	03H
	DD	FLAT:$T198102
	DD	2 DUP(00H)
	DD	2 DUP(00H)
xdata$x	ENDS
;	COMDAT ??_7CSubLabel@@6B@
; File d:\boxgit\playbox\playbox\dev\prj\playbox\src\layoutmgr\changecolor\sublabel.cpp
CONST	SEGMENT
??_7CSubLabel@@6B@ DD FLAT:??_R4CSubLabel@@6B@		; CSubLabel::`vftable'
	DD	FLAT:?GetRuntimeClass@CStatic@@UBEPAUCRuntimeClass@@XZ
	DD	FLAT:??_ECSubLabel@@UAEPAXI@Z
	DD	FLAT:?Serialize@CObject@@UAEXAAVCArchive@@@Z
	DD	FLAT:?AssertValid@CObject@@UBEXXZ
	DD	FLAT:?Dump@CObject@@UBEXAAVCDumpContext@@@Z
	DD	FLAT:?OnCmdMsg@CCmdTarget@@UAEHIHPAXPAUAFX_CMDHANDLERINFO@@@Z
	DD	FLAT:?OnFinalRelease@CWnd@@UAEXXZ
	DD	FLAT:?IsInvokeAllowed@CCmdTarget@@UAEHJ@Z
	DD	FLAT:?GetDispatchIID@CCmdTarget@@UAEHPAU_GUID@@@Z
	DD	FLAT:?GetTypeInfoCount@CCmdTarget@@UAEIXZ
	DD	FLAT:?GetTypeLibCache@CCmdTarget@@UAEPAVCTypeLibCache@@XZ
	DD	FLAT:?GetTypeLib@CCmdTarget@@UAEJKPAPAUITypeLib@@@Z
	DD	FLAT:?GetMessageMap@CSubLabel@@MBEPBUAFX_MSGMAP@@XZ
	DD	FLAT:?GetCommandMap@CCmdTarget@@MBEPBUAFX_OLECMDMAP@@XZ
	DD	FLAT:?GetDispatchMap@CCmdTarget@@MBEPBUAFX_DISPMAP@@XZ
	DD	FLAT:?GetConnectionMap@CCmdTarget@@MBEPBUAFX_CONNECTIONMAP@@XZ
	DD	FLAT:?GetInterfaceMap@CWnd@@MBEPBUAFX_INTERFACEMAP@@XZ
	DD	FLAT:?GetEventSinkMap@CCmdTarget@@MBEPBUAFX_EVENTSINKMAP@@XZ
	DD	FLAT:?OnCreateAggregates@CCmdTarget@@UAEHXZ
	DD	FLAT:?GetInterfaceHook@CCmdTarget@@UAEPAUIUnknown@@PBX@Z
	DD	FLAT:?GetExtraConnectionPoints@CCmdTarget@@MAEHPAVCPtrArray@@@Z
	DD	FLAT:?GetConnectionHook@CCmdTarget@@MAEPAUIConnectionPoint@@ABU_GUID@@@Z
	DD	FLAT:?PreSubclassWindow@CWnd@@UAEXXZ
	DD	FLAT:?Create@CWnd@@UAEHPBD0KABUtagRECT@@PAV1@IPAUCCreateContext@@@Z
	DD	FLAT:?CreateEx@CWnd@@UAEHKPBD0KABUtagRECT@@PAV1@IPAX@Z
	DD	FLAT:?CreateEx@CWnd@@UAEHKPBD0KHHHHPAUHWND__@@PAUHMENU__@@PAX@Z
	DD	FLAT:?DestroyWindow@CWnd@@UAEHXZ
	DD	FLAT:?PreCreateWindow@CWnd@@UAEHAAUtagCREATESTRUCTA@@@Z
	DD	FLAT:?CalcWindowRect@CWnd@@UAEXPAUtagRECT@@I@Z
	DD	FLAT:?OnToolHitTest@CWnd@@UBEHVCPoint@@PAUtagTOOLINFOA@@@Z
	DD	FLAT:?GetScrollBarCtrl@CWnd@@UBEPAVCScrollBar@@H@Z
	DD	FLAT:?WinHelpA@CWnd@@UAEXKI@Z
	DD	FLAT:?HtmlHelpA@CWnd@@UAEXKI@Z
	DD	FLAT:?WinHelpInternal@CWnd@@UAEXKI@Z
	DD	FLAT:?ContinueModal@CWnd@@UAEHXZ
	DD	FLAT:?EndModalLoop@CWnd@@UAEXH@Z
	DD	FLAT:?EnsureStdObj@CWnd@@UAEJXZ
	DD	FLAT:?get_accParent@CWnd@@UAEJPAPAUIDispatch@@@Z
	DD	FLAT:?get_accChildCount@CWnd@@UAEJPAJ@Z
	DD	FLAT:?get_accChild@CWnd@@UAEJUtagVARIANT@@PAPAUIDispatch@@@Z
	DD	FLAT:?get_accName@CWnd@@UAEJUtagVARIANT@@PAPA_W@Z
	DD	FLAT:?get_accValue@CWnd@@UAEJUtagVARIANT@@PAPA_W@Z
	DD	FLAT:?get_accDescription@CWnd@@UAEJUtagVARIANT@@PAPA_W@Z
	DD	FLAT:?get_accRole@CWnd@@UAEJUtagVARIANT@@PAU2@@Z
	DD	FLAT:?get_accState@CWnd@@UAEJUtagVARIANT@@PAU2@@Z
	DD	FLAT:?get_accHelp@CWnd@@UAEJUtagVARIANT@@PAPA_W@Z
	DD	FLAT:?get_accHelpTopic@CWnd@@UAEJPAPA_WUtagVARIANT@@PAJ@Z
	DD	FLAT:?get_accKeyboardShortcut@CWnd@@UAEJUtagVARIANT@@PAPA_W@Z
	DD	FLAT:?get_accFocus@CWnd@@UAEJPAUtagVARIANT@@@Z
	DD	FLAT:?get_accSelection@CWnd@@UAEJPAUtagVARIANT@@@Z
	DD	FLAT:?get_accDefaultAction@CWnd@@UAEJUtagVARIANT@@PAPA_W@Z
	DD	FLAT:?accSelect@CWnd@@UAEJJUtagVARIANT@@@Z
	DD	FLAT:?accLocation@CWnd@@UAEJPAJ000UtagVARIANT@@@Z
	DD	FLAT:?accNavigate@CWnd@@UAEJJUtagVARIANT@@PAU2@@Z
	DD	FLAT:?accHitTest@CWnd@@UAEJJJPAUtagVARIANT@@@Z
	DD	FLAT:?accDoDefaultAction@CWnd@@UAEJUtagVARIANT@@@Z
	DD	FLAT:?put_accName@CWnd@@UAEJUtagVARIANT@@PA_W@Z
	DD	FLAT:?put_accValue@CWnd@@UAEJUtagVARIANT@@PA_W@Z
	DD	FLAT:?SetProxy@CWnd@@UAEJPAUIAccessibleProxy@@@Z
	DD	FLAT:?CreateAccessibleProxy@CWnd@@UAEJIJPAJ@Z
	DD	FLAT:?OnCommand@CWnd@@MAEHIJ@Z
	DD	FLAT:?OnNotify@CWnd@@MAEHIJPAJ@Z
	DD	FLAT:?GetSuperWndProcAddr@CWnd@@MAEPAP6GJPAUHWND__@@IIJ@ZXZ
	DD	FLAT:?DoDataExchange@CWnd@@MAEXPAVCDataExchange@@@Z
	DD	FLAT:?BeginModalState@CWnd@@UAEXXZ
	DD	FLAT:?EndModalState@CWnd@@UAEXXZ
	DD	FLAT:?PreTranslateMessage@CWnd@@UAEHPAUtagMSG@@@Z
	DD	FLAT:?OnAmbientProperty@CWnd@@UAEHPAVCOleControlSite@@JPAUtagVARIANT@@@Z
	DD	FLAT:?WindowProc@CWnd@@MAEJIIJ@Z
	DD	FLAT:?OnWndMsg@CWnd@@MAEHIIJPAJ@Z
	DD	FLAT:?DefWindowProcA@CWnd@@MAEJIIJ@Z
	DD	FLAT:?PostNcDestroy@CWnd@@MAEXXZ
	DD	FLAT:?OnChildNotify@CStatic@@MAEHIIJPAJ@Z
	DD	FLAT:?CheckAutoCenter@CWnd@@UAEHXZ
	DD	FLAT:?IsFrameWnd@CWnd@@UBEHXZ
	DD	FLAT:?CreateControlContainer@CWnd@@MAEHPAPAVCOleControlContainer@@@Z
	DD	FLAT:?CreateControlSite@CWnd@@MAEHPAVCOleControlContainer@@PAPAVCOleControlSite@@IABU_GUID@@@Z
	DD	FLAT:?SetOccDialogInfo@CWnd@@MAEHPAU_AFX_OCC_DIALOG_INFO@@@Z
	DD	FLAT:?Create@CStatic@@UAEHPBDKABUtagRECT@@PAVCWnd@@I@Z
	DD	FLAT:?DrawItem@CStatic@@UAEXPAUtagDRAWITEMSTRUCT@@@Z
CONST	ENDS
;	COMDAT ??_R4CSubLabel@@6B@
rdata$r	SEGMENT
??_R4CSubLabel@@6B@ DD 00H				; CSubLabel::`RTTI Complete Object Locator'
	DD	00H
	DD	00H
	DD	FLAT:??_R0?AVCSubLabel@@@8
	DD	FLAT:??_R3CSubLabel@@8
rdata$r	ENDS
;	COMDAT ??_R0?AVCSubLabel@@@8
_DATA	SEGMENT
??_R0?AVCSubLabel@@@8 DD FLAT:??_7type_info@@6B@	; CSubLabel `RTTI Type Descriptor'
	DD	00H
	DB	'.?AVCSubLabel@@', 00H
_DATA	ENDS
;	COMDAT ??_R3CSubLabel@@8
rdata$r	SEGMENT
??_R3CSubLabel@@8 DD 00H				; CSubLabel::`RTTI Class Hierarchy Descriptor'
	DD	00H
	DD	05H
	DD	FLAT:??_R2CSubLabel@@8
rdata$r	ENDS
;	COMDAT ??_R2CSubLabel@@8
rdata$r	SEGMENT
??_R2CSubLabel@@8 DD FLAT:??_R1A@?0A@A@CSubLabel@@8	; CSubLabel::`RTTI Base Class Array'
	DD	FLAT:??_R1A@?0A@A@CStatic@@8
	DD	FLAT:??_R1A@?0A@A@CWnd@@8
	DD	FLAT:??_R1A@?0A@A@CCmdTarget@@8
	DD	FLAT:??_R1A@?0A@A@CObject@@8
rdata$r	ENDS
;	COMDAT ??_R1A@?0A@A@CSubLabel@@8
rdata$r	SEGMENT
??_R1A@?0A@A@CSubLabel@@8 DD FLAT:??_R0?AVCSubLabel@@@8	; CSubLabel::`RTTI Base Class Descriptor at (0,-1,0,0)'
	DD	04H
	DD	00H
	DD	0ffffffffH
	DD	00H
	DD	00H
rdata$r	ENDS
;	COMDAT ??_R1A@?0A@A@CStatic@@8
rdata$r	SEGMENT
??_R1A@?0A@A@CStatic@@8 DD FLAT:??_R0?AVCStatic@@@8	; CStatic::`RTTI Base Class Descriptor at (0,-1,0,0)'
	DD	03H
	DD	00H
	DD	0ffffffffH
	DD	00H
	DD	00H
rdata$r	ENDS
;	COMDAT ??_R0?AVCStatic@@@8
_DATA	SEGMENT
??_R0?AVCStatic@@@8 DD FLAT:??_7type_info@@6B@		; CStatic `RTTI Type Descriptor'
	DD	00H
	DB	'.?AVCStatic@@', 00H
_DATA	ENDS
;	COMDAT ??_R1A@?0A@A@CWnd@@8
rdata$r	SEGMENT
??_R1A@?0A@A@CWnd@@8 DD FLAT:??_R0?AVCWnd@@@8		; CWnd::`RTTI Base Class Descriptor at (0,-1,0,0)'
	DD	02H
	DD	00H
	DD	0ffffffffH
	DD	00H
	DD	00H
rdata$r	ENDS
;	COMDAT ??_R0?AVCWnd@@@8
_DATA	SEGMENT
??_R0?AVCWnd@@@8 DD FLAT:??_7type_info@@6B@		; CWnd `RTTI Type Descriptor'
	DD	00H
	DB	'.?AVCWnd@@', 00H
_DATA	ENDS
;	COMDAT ??_R1A@?0A@A@CCmdTarget@@8
rdata$r	SEGMENT
??_R1A@?0A@A@CCmdTarget@@8 DD FLAT:??_R0?AVCCmdTarget@@@8 ; CCmdTarget::`RTTI Base Class Descriptor at (0,-1,0,0)'
	DD	01H
	DD	00H
	DD	0ffffffffH
	DD	00H
	DD	00H
rdata$r	ENDS
;	COMDAT ??_R0?AVCCmdTarget@@@8
_DATA	SEGMENT
??_R0?AVCCmdTarget@@@8 DD FLAT:??_7type_info@@6B@	; CCmdTarget `RTTI Type Descriptor'
	DD	00H
	DB	'.?AVCCmdTarget@@', 00H
_DATA	ENDS
;	COMDAT ??_R1A@?0A@A@CObject@@8
rdata$r	SEGMENT
??_R1A@?0A@A@CObject@@8 DD FLAT:??_R0?AVCObject@@@8	; CObject::`RTTI Base Class Descriptor at (0,-1,0,0)'
	DD	00H
	DD	00H
	DD	0ffffffffH
	DD	00H
	DD	00H
rdata$r	ENDS
;	COMDAT ??_R0?AVCObject@@@8
_DATA	SEGMENT
??_R0?AVCObject@@@8 DD FLAT:??_7type_info@@6B@		; CObject `RTTI Type Descriptor'
	DD	00H
	DB	'.?AVCObject@@', 00H
; Function compile flags: /Odt
_DATA	ENDS
_TEXT	SEGMENT
tv86 = -28						; size = 4
_this$ = -24						; size = 4
$T198090 = -20						; size = 4
$T198089 = -16						; size = 4
__$EHRec$ = -12						; size = 12
??0CSubLabel@@QAE@XZ PROC NEAR				; CSubLabel::CSubLabel
; _this$ = ecx

; 8    : {

  00000	55		 push	 ebp
  00001	8b ec		 mov	 ebp, esp
  00003	6a ff		 push	 -1
  00005	68 00 00 00 00	 push	 __ehhandler$??0CSubLabel@@QAE@XZ
  0000a	64 a1 00 00 00
	00		 mov	 eax, DWORD PTR fs:__except_list
  00010	50		 push	 eax
  00011	64 89 25 00 00
	00 00		 mov	 DWORD PTR fs:__except_list, esp
  00018	83 ec 10	 sub	 esp, 16			; 00000010H
  0001b	89 4d e8	 mov	 DWORD PTR _this$[ebp], ecx
  0001e	8b 4d e8	 mov	 ecx, DWORD PTR _this$[ebp]
  00021	e8 00 00 00 00	 call	 ??0CStatic@@QAE@XZ	; CStatic::CStatic
  00026	c7 45 fc 00 00
	00 00		 mov	 DWORD PTR __$EHRec$[ebp+8], 0
  0002d	8b 45 e8	 mov	 eax, DWORD PTR _this$[ebp]
  00030	c7 00 00 00 00
	00		 mov	 DWORD PTR [eax], OFFSET FLAT:??_7CSubLabel@@6B@
  00036	8b 4d e8	 mov	 ecx, DWORD PTR _this$[ebp]
  00039	83 c1 58	 add	 ecx, 88			; 00000058H
  0003c	ff 15 00 00 00
	00		 call	 DWORD PTR __imp_??0?$CStringT@DV?$StrTraitMFC_DLL@DV?$ChTraitsCRT@D@ATL@@@@@ATL@@QAE@XZ
  00042	c6 45 fc 01	 mov	 BYTE PTR __$EHRec$[ebp+8], 1

; 9    : 	m_textstr = "";

  00046	68 00 00 00 00	 push	 OFFSET FLAT:$SG197513
  0004b	8b 4d e8	 mov	 ecx, DWORD PTR _this$[ebp]
  0004e	83 c1 58	 add	 ecx, 88			; 00000058H
  00051	ff 15 00 00 00
	00		 call	 DWORD PTR __imp_??4?$CStringT@DV?$StrTraitMFC_DLL@DV?$ChTraitsCRT@D@ATL@@@@@ATL@@QAEAAV01@PBD@Z

; 10   : 	m_bselect = FALSE;

  00057	8b 4d e8	 mov	 ecx, DWORD PTR _this$[ebp]
  0005a	c7 41 5c 00 00
	00 00		 mov	 DWORD PTR [ecx+92], 0

; 11   : 	m_Fontstatic=new   CFont;

  00061	6a 08		 push	 8
  00063	e8 00 00 00 00	 call	 ??2CObject@@SGPAXI@Z	; CObject::operator new
  00068	89 45 ec	 mov	 DWORD PTR $T198090[ebp], eax
  0006b	c6 45 fc 02	 mov	 BYTE PTR __$EHRec$[ebp+8], 2
  0006f	83 7d ec 00	 cmp	 DWORD PTR $T198090[ebp], 0
  00073	74 0d		 je	 SHORT $L198091
  00075	8b 4d ec	 mov	 ecx, DWORD PTR $T198090[ebp]
  00078	e8 00 00 00 00	 call	 ??0CFont@@QAE@XZ	; CFont::CFont
  0007d	89 45 e4	 mov	 DWORD PTR tv86[ebp], eax
  00080	eb 07		 jmp	 SHORT $L198092
$L198091:
  00082	c7 45 e4 00 00
	00 00		 mov	 DWORD PTR tv86[ebp], 0
$L198092:
  00089	8b 55 e4	 mov	 edx, DWORD PTR tv86[ebp]
  0008c	89 55 f0	 mov	 DWORD PTR $T198089[ebp], edx
  0008f	c6 45 fc 01	 mov	 BYTE PTR __$EHRec$[ebp+8], 1
  00093	8b 45 e8	 mov	 eax, DWORD PTR _this$[ebp]
  00096	8b 4d f0	 mov	 ecx, DWORD PTR $T198089[ebp]
  00099	89 48 54	 mov	 DWORD PTR [eax+84], ecx

; 12   : }

  0009c	c7 45 fc ff ff
	ff ff		 mov	 DWORD PTR __$EHRec$[ebp+8], -1
  000a3	8b 45 e8	 mov	 eax, DWORD PTR _this$[ebp]
  000a6	8b 4d f4	 mov	 ecx, DWORD PTR __$EHRec$[ebp]
  000a9	64 89 0d 00 00
	00 00		 mov	 DWORD PTR fs:__except_list, ecx
  000b0	8b e5		 mov	 esp, ebp
  000b2	5d		 pop	 ebp
  000b3	c3		 ret	 0
_TEXT	ENDS
text$x	SEGMENT
$L198093:
  00000	8b 4d e8	 mov	 ecx, DWORD PTR _this$[ebp]
  00003	e9 00 00 00 00	 jmp	 ??1CStatic@@UAE@XZ	; CStatic::~CStatic
$L198094:
  00008	8b 4d e8	 mov	 ecx, DWORD PTR _this$[ebp]
  0000b	83 c1 58	 add	 ecx, 88			; 00000058H
  0000e	ff 25 00 00 00
	00		 jmp	 DWORD PTR __imp_??1?$CStringT@DV?$StrTraitMFC_DLL@DV?$ChTraitsCRT@D@ATL@@@@@ATL@@QAE@XZ
$L198095:
  00014	8b 45 ec	 mov	 eax, DWORD PTR $T198090[ebp]
  00017	50		 push	 eax
  00018	e8 00 00 00 00	 call	 ??3CObject@@SGXPAX@Z	; CObject::operator delete
  0001d	c3		 ret	 0
__ehhandler$??0CSubLabel@@QAE@XZ:
  0001e	b8 00 00 00 00	 mov	 eax, OFFSET FLAT:$T198099
  00023	e9 00 00 00 00	 jmp	 ___CxxFrameHandler
text$x	ENDS
??0CSubLabel@@QAE@XZ ENDP				; CSubLabel::CSubLabel
PUBLIC	??1CSubLabel@@UAE@XZ				; CSubLabel::~CSubLabel
; Function compile flags: /Odt
;	COMDAT ??_GCSubLabel@@UAEPAXI@Z
_TEXT	SEGMENT
_this$ = -4						; size = 4
___flags$ = 8						; size = 4
??_GCSubLabel@@UAEPAXI@Z PROC NEAR			; CSubLabel::`scalar deleting destructor', COMDAT
; _this$ = ecx
  00000	55		 push	 ebp
  00001	8b ec		 mov	 ebp, esp
  00003	51		 push	 ecx
  00004	89 4d fc	 mov	 DWORD PTR _this$[ebp], ecx
  00007	8b 4d fc	 mov	 ecx, DWORD PTR _this$[ebp]
  0000a	e8 00 00 00 00	 call	 ??1CSubLabel@@UAE@XZ	; CSubLabel::~CSubLabel
  0000f	8b 45 08	 mov	 eax, DWORD PTR ___flags$[ebp]
  00012	83 e0 01	 and	 eax, 1
  00015	74 09		 je	 SHORT $L197521
  00017	8b 4d fc	 mov	 ecx, DWORD PTR _this$[ebp]
  0001a	51		 push	 ecx
  0001b	e8 00 00 00 00	 call	 ??3CObject@@SGXPAX@Z	; CObject::operator delete
$L197521:
  00020	8b 45 fc	 mov	 eax, DWORD PTR _this$[ebp]
  00023	8b e5		 mov	 esp, ebp
  00025	5d		 pop	 ebp
  00026	c2 04 00	 ret	 4
??_GCSubLabel@@UAEPAXI@Z ENDP				; CSubLabel::`scalar deleting destructor'
_TEXT	ENDS
EXTRN	?DeleteObject@CGdiObject@@QAEHXZ:NEAR		; CGdiObject::DeleteObject
xdata$x	SEGMENT
$T198116 DD	0ffffffffH
	DD	FLAT:$L198111
	DD	00H
	DD	FLAT:$L198112
$T198114 DD	019930520H
	DD	02H
	DD	FLAT:$T198116
	DD	2 DUP(00H)
	DD	2 DUP(00H)
; Function compile flags: /Odt
xdata$x	ENDS
_TEXT	SEGMENT
tv82 = -28						; size = 4
_this$ = -24						; size = 4
$T198108 = -20						; size = 4
$T198107 = -16						; size = 4
__$EHRec$ = -12						; size = 12
??1CSubLabel@@UAE@XZ PROC NEAR				; CSubLabel::~CSubLabel
; _this$ = ecx

; 15   : {

  000c0	55		 push	 ebp
  000c1	8b ec		 mov	 ebp, esp
  000c3	6a ff		 push	 -1
  000c5	68 00 00 00 00	 push	 __ehhandler$??1CSubLabel@@UAE@XZ
  000ca	64 a1 00 00 00
	00		 mov	 eax, DWORD PTR fs:__except_list
  000d0	50		 push	 eax
  000d1	64 89 25 00 00
	00 00		 mov	 DWORD PTR fs:__except_list, esp
  000d8	83 ec 10	 sub	 esp, 16			; 00000010H
  000db	89 4d e8	 mov	 DWORD PTR _this$[ebp], ecx
  000de	8b 45 e8	 mov	 eax, DWORD PTR _this$[ebp]
  000e1	c7 00 00 00 00
	00		 mov	 DWORD PTR [eax], OFFSET FLAT:??_7CSubLabel@@6B@
  000e7	c7 45 fc 01 00
	00 00		 mov	 DWORD PTR __$EHRec$[ebp+8], 1

; 16   : 	if(m_Fontstatic->m_hObject!=NULL)

  000ee	8b 4d e8	 mov	 ecx, DWORD PTR _this$[ebp]
  000f1	8b 51 54	 mov	 edx, DWORD PTR [ecx+84]
  000f4	83 7a 04 00	 cmp	 DWORD PTR [edx+4], 0
  000f8	74 0b		 je	 SHORT $L197525

; 17   : 		m_Fontstatic->DeleteObject();

  000fa	8b 45 e8	 mov	 eax, DWORD PTR _this$[ebp]
  000fd	8b 48 54	 mov	 ecx, DWORD PTR [eax+84]
  00100	e8 00 00 00 00	 call	 ?DeleteObject@CGdiObject@@QAEHXZ ; CGdiObject::DeleteObject
$L197525:

; 18   : 	delete m_Fontstatic;

  00105	8b 4d e8	 mov	 ecx, DWORD PTR _this$[ebp]
  00108	8b 51 54	 mov	 edx, DWORD PTR [ecx+84]
  0010b	89 55 ec	 mov	 DWORD PTR $T198108[ebp], edx
  0010e	8b 45 ec	 mov	 eax, DWORD PTR $T198108[ebp]
  00111	89 45 f0	 mov	 DWORD PTR $T198107[ebp], eax
  00114	83 7d f0 00	 cmp	 DWORD PTR $T198107[ebp], 0
  00118	74 12		 je	 SHORT $L198109
  0011a	6a 01		 push	 1
  0011c	8b 4d f0	 mov	 ecx, DWORD PTR $T198107[ebp]
  0011f	8b 11		 mov	 edx, DWORD PTR [ecx]
  00121	8b 4d f0	 mov	 ecx, DWORD PTR $T198107[ebp]
  00124	ff 52 04	 call	 DWORD PTR [edx+4]
  00127	89 45 e4	 mov	 DWORD PTR tv82[ebp], eax
  0012a	eb 07		 jmp	 SHORT $L197524
$L198109:
  0012c	c7 45 e4 00 00
	00 00		 mov	 DWORD PTR tv82[ebp], 0
$L197524:

; 19   : }

  00133	c6 45 fc 00	 mov	 BYTE PTR __$EHRec$[ebp+8], 0
  00137	8b 4d e8	 mov	 ecx, DWORD PTR _this$[ebp]
  0013a	83 c1 58	 add	 ecx, 88			; 00000058H
  0013d	ff 15 00 00 00
	00		 call	 DWORD PTR __imp_??1?$CStringT@DV?$StrTraitMFC_DLL@DV?$ChTraitsCRT@D@ATL@@@@@ATL@@QAE@XZ
  00143	c7 45 fc ff ff
	ff ff		 mov	 DWORD PTR __$EHRec$[ebp+8], -1
  0014a	8b 4d e8	 mov	 ecx, DWORD PTR _this$[ebp]
  0014d	e8 00 00 00 00	 call	 ??1CStatic@@UAE@XZ	; CStatic::~CStatic
  00152	8b 4d f4	 mov	 ecx, DWORD PTR __$EHRec$[ebp]
  00155	64 89 0d 00 00
	00 00		 mov	 DWORD PTR fs:__except_list, ecx
  0015c	8b e5		 mov	 esp, ebp
  0015e	5d		 pop	 ebp
  0015f	c3		 ret	 0
_TEXT	ENDS
text$x	SEGMENT
$L198111:
  00028	8b 4d e8	 mov	 ecx, DWORD PTR _this$[ebp]
  0002b	e9 00 00 00 00	 jmp	 ??1CStatic@@UAE@XZ	; CStatic::~CStatic
$L198112:
  00030	8b 4d e8	 mov	 ecx, DWORD PTR _this$[ebp]
  00033	83 c1 58	 add	 ecx, 88			; 00000058H
  00036	ff 25 00 00 00
	00		 jmp	 DWORD PTR __imp_??1?$CStringT@DV?$StrTraitMFC_DLL@DV?$ChTraitsCRT@D@ATL@@@@@ATL@@QAE@XZ
__ehhandler$??1CSubLabel@@UAE@XZ:
  0003c	b8 00 00 00 00	 mov	 eax, OFFSET FLAT:$T198114
  00041	e9 00 00 00 00	 jmp	 ___CxxFrameHandler
text$x	ENDS
??1CSubLabel@@UAE@XZ ENDP				; CSubLabel::~CSubLabel
PUBLIC	?GetThisMessageMap@CSubLabel@@KGPBUAFX_MSGMAP@@XZ ; CSubLabel::GetThisMessageMap
; Function compile flags: /Odt
_TEXT	SEGMENT
?GetThisMessageMap@CSubLabel@@KGPBUAFX_MSGMAP@@XZ PROC NEAR ; CSubLabel::GetThisMessageMap

; 21   : BEGIN_MESSAGE_MAP(CSubLabel, CStatic)

  00160	55		 push	 ebp
  00161	8b ec		 mov	 ebp, esp
  00163	b8 00 00 00 00	 mov	 eax, OFFSET FLAT:?messageMap@CSubLabel@@1UAFX_MSGMAP@@B ; CSubLabel::messageMap
  00168	5d		 pop	 ebp
  00169	c3		 ret	 0
?GetThisMessageMap@CSubLabel@@KGPBUAFX_MSGMAP@@XZ ENDP	; CSubLabel::GetThisMessageMap
; Function compile flags: /Odt
_this$ = -4						; size = 4
?GetMessageMap@CSubLabel@@MBEPBUAFX_MSGMAP@@XZ PROC NEAR ; CSubLabel::GetMessageMap
; _this$ = ecx

; 21   : BEGIN_MESSAGE_MAP(CSubLabel, CStatic)

  00170	55		 push	 ebp
  00171	8b ec		 mov	 ebp, esp
  00173	51		 push	 ecx
  00174	89 4d fc	 mov	 DWORD PTR _this$[ebp], ecx
  00177	b8 00 00 00 00	 mov	 eax, OFFSET FLAT:?messageMap@CSubLabel@@1UAFX_MSGMAP@@B ; CSubLabel::messageMap
  0017c	8b e5		 mov	 esp, ebp
  0017e	5d		 pop	 ebp
  0017f	c3		 ret	 0
?GetMessageMap@CSubLabel@@MBEPBUAFX_MSGMAP@@XZ ENDP	; CSubLabel::GetMessageMap
_TEXT	ENDS
PUBLIC	?CreateFontA@CFont@@QAEHHHHHHEEEEEEEEPBD@Z	; CFont::CreateFontA
; Function compile flags: /Odt
_TEXT	SEGMENT
_this$ = -4						; size = 4
_lpCreateStruct$ = 8					; size = 4
?OnCreate@CSubLabel@@QAEHPAUtagCREATESTRUCTA@@@Z PROC NEAR ; CSubLabel::OnCreate
; _this$ = ecx

; 27   : {

  00180	55		 push	 ebp
  00181	8b ec		 mov	 ebp, esp
  00183	51		 push	 ecx
  00184	89 4d fc	 mov	 DWORD PTR _this$[ebp], ecx

; 28   : 	
; 29   : 	m_Fontstatic->CreateFont(12,0,0,0,400,FALSE,FALSE,0,DEFAULT_CHARSET,
; 30   : 		OUT_DEFAULT_PRECIS,CLIP_DEFAULT_PRECIS,DEFAULT_QUALITY,DEFAULT_PITCH|FF_MODERN,_T("ו"));     

  00187	68 00 00 00 00	 push	 OFFSET FLAT:$SG197546
  0018c	6a 30		 push	 48			; 00000030H
  0018e	6a 00		 push	 0
  00190	6a 00		 push	 0
  00192	6a 00		 push	 0
  00194	6a 01		 push	 1
  00196	6a 00		 push	 0
  00198	6a 00		 push	 0
  0019a	6a 00		 push	 0
  0019c	68 90 01 00 00	 push	 400			; 00000190H
  001a1	6a 00		 push	 0
  001a3	6a 00		 push	 0
  001a5	6a 00		 push	 0
  001a7	6a 0c		 push	 12			; 0000000cH
  001a9	8b 45 fc	 mov	 eax, DWORD PTR _this$[ebp]
  001ac	8b 48 54	 mov	 ecx, DWORD PTR [eax+84]
  001af	e8 00 00 00 00	 call	 ?CreateFontA@CFont@@QAEHHHHHHEEEEEEEEPBD@Z ; CFont::CreateFontA

; 31   : 	return 0;

  001b4	33 c0		 xor	 eax, eax

; 32   : }

  001b6	8b e5		 mov	 esp, ebp
  001b8	5d		 pop	 ebp
  001b9	c2 04 00	 ret	 4
?OnCreate@CSubLabel@@QAEHPAUtagCREATESTRUCTA@@@Z ENDP	; CSubLabel::OnCreate
_TEXT	ENDS
PUBLIC	?GetClientRect@CWnd@@QBEXPAUtagRECT@@@Z		; CWnd::GetClientRect
PUBLIC	??0CRect@@QAE@XZ				; CRect::CRect
PUBLIC	??BCRect@@QAEPAUtagRECT@@XZ			; CRect::operator tagRECT *
PUBLIC	?DeflateRect@CRect@@QAEXHHHH@Z			; CRect::DeflateRect
PUBLIC	?FillRect@CDC@@QAEXPBUtagRECT@@PAVCBrush@@@Z	; CDC::FillRect
PUBLIC	??9ATL@@YA_NABV?$CStringT@DV?$StrTraitMFC_DLL@DV?$ChTraitsCRT@D@ATL@@@@@0@PBD@Z ; ATL::operator!=
PUBLIC	?DrawTextA@CDC@@QAEHABV?$CStringT@DV?$StrTraitMFC_DLL@DV?$ChTraitsCRT@D@ATL@@@@@ATL@@PAUtagRECT@@I@Z ; CDC::DrawTextA
PUBLIC	??1CBrush@@UAE@XZ				; CBrush::~CBrush
PUBLIC	?SelectObject@CDC@@QAEPAXPAX@Z			; CDC::SelectObject
EXTRN	?SelectObject@CDC@@UAEPAVCFont@@PAV2@@Z:NEAR	; CDC::SelectObject
EXTRN	?SetTextColor@CDC@@UAEKK@Z:NEAR			; CDC::SetTextColor
EXTRN	___security_cookie:DWORD
EXTRN	@__security_check_cookie@4:NEAR
EXTRN	??0CBrush@@QAE@K@Z:NEAR				; CBrush::CBrush
EXTRN	??0CPaintDC@@QAE@PAVCWnd@@@Z:NEAR		; CPaintDC::CPaintDC
EXTRN	??1CPaintDC@@UAE@XZ:NEAR			; CPaintDC::~CPaintDC
EXTRN	?getColor@CWndColorMgr@@QAEPAUCtrColBase@@I@Z:NEAR ; CWndColorMgr::getColor
EXTRN	?gWndColor@@3VCWndColorMgr@@A:DWORD		; gWndColor
xdata$x	SEGMENT
$T198131 DD	0ffffffffH
	DD	FLAT:$L198123
	DD	00H
	DD	FLAT:$L198124
$T198126 DD	019930520H
	DD	02H
	DD	FLAT:$T198131
	DD	2 DUP(00H)
	DD	2 DUP(00H)
; Function compile flags: /Odt
xdata$x	ENDS
_TEXT	SEGMENT
tv149 = -148						; size = 4
tv65 = -144						; size = 4
_this$ = -140						; size = 4
$T198122 = -136						; size = 8
_oldobj$ = -128						; size = 4
_dc$ = -124						; size = 84
__$ArrayPad$ = -32					; size = 4
_rc$ = -28						; size = 16
__$EHRec$ = -12						; size = 12
__$ReturnAddr$ = 4					; size = 4
?OnPaint@CSubLabel@@QAEXXZ PROC NEAR			; CSubLabel::OnPaint
; _this$ = ecx

; 35   : {

  001c0	55		 push	 ebp
  001c1	8b ec		 mov	 ebp, esp
  001c3	6a ff		 push	 -1
  001c5	68 00 00 00 00	 push	 __ehhandler$?OnPaint@CSubLabel@@QAEXXZ
  001ca	64 a1 00 00 00
	00		 mov	 eax, DWORD PTR fs:__except_list
  001d0	50		 push	 eax
  001d1	64 89 25 00 00
	00 00		 mov	 DWORD PTR fs:__except_list, esp
  001d8	81 ec 88 00 00
	00		 sub	 esp, 136		; 00000088H
  001de	a1 00 00 00 00	 mov	 eax, DWORD PTR ___security_cookie
  001e3	89 45 e0	 mov	 DWORD PTR __$ArrayPad$[ebp], eax
  001e6	89 8d 74 ff ff
	ff		 mov	 DWORD PTR _this$[ebp], ecx

; 36   : 	CPaintDC dc(this); // device context for painting

  001ec	8b 85 74 ff ff
	ff		 mov	 eax, DWORD PTR _this$[ebp]
  001f2	50		 push	 eax
  001f3	8d 4d 84	 lea	 ecx, DWORD PTR _dc$[ebp]
  001f6	e8 00 00 00 00	 call	 ??0CPaintDC@@QAE@PAVCWnd@@@Z ; CPaintDC::CPaintDC
  001fb	c7 45 fc 00 00
	00 00		 mov	 DWORD PTR __$EHRec$[ebp+8], 0

; 37   : 	CRect rc;

  00202	8d 4d e4	 lea	 ecx, DWORD PTR _rc$[ebp]
  00205	e8 00 00 00 00	 call	 ??0CRect@@QAE@XZ	; CRect::CRect

; 38   : 	GetClientRect(&rc);

  0020a	8d 4d e4	 lea	 ecx, DWORD PTR _rc$[ebp]
  0020d	51		 push	 ecx
  0020e	8b 8d 74 ff ff
	ff		 mov	 ecx, DWORD PTR _this$[ebp]
  00214	e8 00 00 00 00	 call	 ?GetClientRect@CWnd@@QBEXPAUtagRECT@@@Z ; CWnd::GetClientRect

; 39   : 	dc.FillRect(rc,&CBrush(RGB(255,255,255)));

  00219	68 ff ff ff 00	 push	 16777215		; 00ffffffH
  0021e	8d 8d 78 ff ff
	ff		 lea	 ecx, DWORD PTR $T198122[ebp]
  00224	e8 00 00 00 00	 call	 ??0CBrush@@QAE@K@Z	; CBrush::CBrush
  00229	89 85 70 ff ff
	ff		 mov	 DWORD PTR tv65[ebp], eax
  0022f	8b 95 70 ff ff
	ff		 mov	 edx, DWORD PTR tv65[ebp]
  00235	89 95 6c ff ff
	ff		 mov	 DWORD PTR tv149[ebp], edx
  0023b	c6 45 fc 01	 mov	 BYTE PTR __$EHRec$[ebp+8], 1
  0023f	8b 85 6c ff ff
	ff		 mov	 eax, DWORD PTR tv149[ebp]
  00245	50		 push	 eax
  00246	8d 4d e4	 lea	 ecx, DWORD PTR _rc$[ebp]
  00249	e8 00 00 00 00	 call	 ??BCRect@@QAEPAUtagRECT@@XZ ; CRect::operator tagRECT *
  0024e	50		 push	 eax
  0024f	8d 4d 84	 lea	 ecx, DWORD PTR _dc$[ebp]
  00252	e8 00 00 00 00	 call	 ?FillRect@CDC@@QAEXPBUtagRECT@@PAVCBrush@@@Z ; CDC::FillRect
  00257	c6 45 fc 00	 mov	 BYTE PTR __$EHRec$[ebp+8], 0
  0025b	8d 8d 78 ff ff
	ff		 lea	 ecx, DWORD PTR $T198122[ebp]
  00261	e8 00 00 00 00	 call	 ??1CBrush@@UAE@XZ	; CBrush::~CBrush

; 40   : 	HGDIOBJ oldobj = dc.SelectObject(m_Fontstatic);

  00266	8b 8d 74 ff ff
	ff		 mov	 ecx, DWORD PTR _this$[ebp]
  0026c	8b 51 54	 mov	 edx, DWORD PTR [ecx+84]
  0026f	52		 push	 edx
  00270	8d 4d 84	 lea	 ecx, DWORD PTR _dc$[ebp]
  00273	e8 00 00 00 00	 call	 ?SelectObject@CDC@@UAEPAVCFont@@PAV2@@Z ; CDC::SelectObject
  00278	89 45 80	 mov	 DWORD PTR _oldobj$[ebp], eax

; 41   : 	rc.DeflateRect(3,0,3,0);

  0027b	6a 00		 push	 0
  0027d	6a 03		 push	 3
  0027f	6a 00		 push	 0
  00281	6a 03		 push	 3
  00283	8d 4d e4	 lea	 ecx, DWORD PTR _rc$[ebp]
  00286	e8 00 00 00 00	 call	 ?DeflateRect@CRect@@QAEXHHHH@Z ; CRect::DeflateRect

; 42   : 	if(m_bselect)

  0028b	8b 85 74 ff ff
	ff		 mov	 eax, DWORD PTR _this$[ebp]
  00291	83 78 5c 00	 cmp	 DWORD PTR [eax+92], 0
  00295	74 1c		 je	 SHORT $L197560

; 43   : 	{
; 44   : 		dc.SetTextColor(gWndColor.getColor(COLOL_CTROL)->structColBase->colFrame2);

  00297	6a 05		 push	 5
  00299	b9 00 00 00 00	 mov	 ecx, OFFSET FLAT:?gWndColor@@3VCWndColorMgr@@A ; gWndColor
  0029e	e8 00 00 00 00	 call	 ?getColor@CWndColorMgr@@QAEPAUCtrColBase@@I@Z ; CWndColorMgr::getColor
  002a3	8b 08		 mov	 ecx, DWORD PTR [eax]
  002a5	8b 51 04	 mov	 edx, DWORD PTR [ecx+4]
  002a8	52		 push	 edx
  002a9	8d 4d 84	 lea	 ecx, DWORD PTR _dc$[ebp]
  002ac	e8 00 00 00 00	 call	 ?SetTextColor@CDC@@UAEKK@Z ; CDC::SetTextColor

; 45   : 	}
; 46   : 	else

  002b1	eb 0d		 jmp	 SHORT $L197561
$L197560:

; 47   : 		dc.SetTextColor(RGB(0x85,0x85,0x85));

  002b3	68 85 85 85 00	 push	 8750469			; 00858585H
  002b8	8d 4d 84	 lea	 ecx, DWORD PTR _dc$[ebp]
  002bb	e8 00 00 00 00	 call	 ?SetTextColor@CDC@@UAEKK@Z ; CDC::SetTextColor
$L197561:

; 48   : 	if(m_textstr != "")

  002c0	68 00 00 00 00	 push	 OFFSET FLAT:$SG197569
  002c5	8b 85 74 ff ff
	ff		 mov	 eax, DWORD PTR _this$[ebp]
  002cb	83 c0 58	 add	 eax, 88			; 00000058H
  002ce	50		 push	 eax
  002cf	e8 00 00 00 00	 call	 ??9ATL@@YA_NABV?$CStringT@DV?$StrTraitMFC_DLL@DV?$ChTraitsCRT@D@ATL@@@@@0@PBD@Z ; ATL::operator!=
  002d4	83 c4 08	 add	 esp, 8
  002d7	0f b6 c8	 movzx	 ecx, al
  002da	85 c9		 test	 ecx, ecx
  002dc	74 20		 je	 SHORT $L197568

; 49   : 		dc.DrawText(m_textstr,rc,DT_CENTER|DT_VCENTER|DT_END_ELLIPSIS);

  002de	68 05 80 00 00	 push	 32773			; 00008005H
  002e3	8d 4d e4	 lea	 ecx, DWORD PTR _rc$[ebp]
  002e6	e8 00 00 00 00	 call	 ??BCRect@@QAEPAUtagRECT@@XZ ; CRect::operator tagRECT *
  002eb	50		 push	 eax
  002ec	8b 95 74 ff ff
	ff		 mov	 edx, DWORD PTR _this$[ebp]
  002f2	83 c2 58	 add	 edx, 88			; 00000058H
  002f5	52		 push	 edx
  002f6	8d 4d 84	 lea	 ecx, DWORD PTR _dc$[ebp]
  002f9	e8 00 00 00 00	 call	 ?DrawTextA@CDC@@QAEHABV?$CStringT@DV?$StrTraitMFC_DLL@DV?$ChTraitsCRT@D@ATL@@@@@ATL@@PAUtagRECT@@I@Z ; CDC::DrawTextA
$L197568:

; 50   : 	dc.SelectObject(oldobj);

  002fe	8b 45 80	 mov	 eax, DWORD PTR _oldobj$[ebp]
  00301	50		 push	 eax
  00302	8d 4d 84	 lea	 ecx, DWORD PTR _dc$[ebp]
  00305	e8 00 00 00 00	 call	 ?SelectObject@CDC@@QAEPAXPAX@Z ; CDC::SelectObject

; 51   : 
; 52   : }

  0030a	c7 45 fc ff ff
	ff ff		 mov	 DWORD PTR __$EHRec$[ebp+8], -1
  00311	8d 4d 84	 lea	 ecx, DWORD PTR _dc$[ebp]
  00314	e8 00 00 00 00	 call	 ??1CPaintDC@@UAE@XZ	; CPaintDC::~CPaintDC
  00319	8b 4d f4	 mov	 ecx, DWORD PTR __$EHRec$[ebp]
  0031c	64 89 0d 00 00
	00 00		 mov	 DWORD PTR fs:__except_list, ecx
  00323	8b 4d e0	 mov	 ecx, DWORD PTR __$ArrayPad$[ebp]
  00326	e8 00 00 00 00	 call	 @__security_check_cookie@4
  0032b	8b e5		 mov	 esp, ebp
  0032d	5d		 pop	 ebp
  0032e	c3		 ret	 0
_TEXT	ENDS
text$x	SEGMENT
$L198123:
  00046	8d 4d 84	 lea	 ecx, DWORD PTR _dc$[ebp]
  00049	e9 00 00 00 00	 jmp	 ??1CPaintDC@@UAE@XZ	; CPaintDC::~CPaintDC
$L198124:
  0004e	8d 8d 78 ff ff
	ff		 lea	 ecx, DWORD PTR $T198122[ebp]
  00054	e9 00 00 00 00	 jmp	 ??1CBrush@@UAE@XZ	; CBrush::~CBrush
__ehhandler$?OnPaint@CSubLabel@@QAEXXZ:
  00059	b8 00 00 00 00	 mov	 eax, OFFSET FLAT:$T198126
  0005e	e9 00 00 00 00	 jmp	 ___CxxFrameHandler
text$x	ENDS
?OnPaint@CSubLabel@@QAEXXZ ENDP				; CSubLabel::OnPaint
PUBLIC	?SetText@CSubLabel@@QAEXV?$CStringT@DV?$StrTraitMFC_DLL@DV?$ChTraitsCRT@D@ATL@@@@@ATL@@@Z ; CSubLabel::SetText
EXTRN	__imp_??4?$CStringT@DV?$StrTraitMFC_DLL@DV?$ChTraitsCRT@D@ATL@@@@@ATL@@QAEAAV01@ABV01@@Z:NEAR
xdata$x	SEGMENT
$T198137 DD	0ffffffffH
	DD	FLAT:$L198133
$T198135 DD	019930520H
	DD	01H
	DD	FLAT:$T198137
	DD	2 DUP(00H)
	DD	2 DUP(00H)
; Function compile flags: /Odt
xdata$x	ENDS
_TEXT	SEGMENT
_this$ = -16						; size = 4
__$EHRec$ = -12						; size = 12
_str$ = 8						; size = 4
?SetText@CSubLabel@@QAEXV?$CStringT@DV?$StrTraitMFC_DLL@DV?$ChTraitsCRT@D@ATL@@@@@ATL@@@Z PROC NEAR ; CSubLabel::SetText
; _this$ = ecx

; 55   : {

  00330	55		 push	 ebp
  00331	8b ec		 mov	 ebp, esp
  00333	6a ff		 push	 -1
  00335	68 00 00 00 00	 push	 __ehhandler$?SetText@CSubLabel@@QAEXV?$CStringT@DV?$StrTraitMFC_DLL@DV?$ChTraitsCRT@D@ATL@@@@@ATL@@@Z
  0033a	64 a1 00 00 00
	00		 mov	 eax, DWORD PTR fs:__except_list
  00340	50		 push	 eax
  00341	64 89 25 00 00
	00 00		 mov	 DWORD PTR fs:__except_list, esp
  00348	51		 push	 ecx
  00349	89 4d f0	 mov	 DWORD PTR _this$[ebp], ecx
  0034c	c7 45 fc 00 00
	00 00		 mov	 DWORD PTR __$EHRec$[ebp+8], 0

; 56   : 	m_textstr = str;

  00353	8d 45 08	 lea	 eax, DWORD PTR _str$[ebp]
  00356	50		 push	 eax
  00357	8b 4d f0	 mov	 ecx, DWORD PTR _this$[ebp]
  0035a	83 c1 58	 add	 ecx, 88			; 00000058H
  0035d	ff 15 00 00 00
	00		 call	 DWORD PTR __imp_??4?$CStringT@DV?$StrTraitMFC_DLL@DV?$ChTraitsCRT@D@ATL@@@@@ATL@@QAEAAV01@ABV01@@Z

; 57   : }

  00363	c7 45 fc ff ff
	ff ff		 mov	 DWORD PTR __$EHRec$[ebp+8], -1
  0036a	8d 4d 08	 lea	 ecx, DWORD PTR _str$[ebp]
  0036d	ff 15 00 00 00
	00		 call	 DWORD PTR __imp_??1?$CStringT@DV?$StrTraitMFC_DLL@DV?$ChTraitsCRT@D@ATL@@@@@ATL@@QAE@XZ
  00373	8b 4d f4	 mov	 ecx, DWORD PTR __$EHRec$[ebp]
  00376	64 89 0d 00 00
	00 00		 mov	 DWORD PTR fs:__except_list, ecx
  0037d	8b e5		 mov	 esp, ebp
  0037f	5d		 pop	 ebp
  00380	c2 04 00	 ret	 4
_TEXT	ENDS
text$x	SEGMENT
$L198133:
  00063	8d 4d 08	 lea	 ecx, DWORD PTR _str$[ebp]
  00066	ff 25 00 00 00
	00		 jmp	 DWORD PTR __imp_??1?$CStringT@DV?$StrTraitMFC_DLL@DV?$ChTraitsCRT@D@ATL@@@@@ATL@@QAE@XZ
__ehhandler$?SetText@CSubLabel@@QAEXV?$CStringT@DV?$StrTraitMFC_DLL@DV?$ChTraitsCRT@D@ATL@@@@@ATL@@@Z:
  0006c	b8 00 00 00 00	 mov	 eax, OFFSET FLAT:$T198135
  00071	e9 00 00 00 00	 jmp	 ___CxxFrameHandler
text$x	ENDS
?SetText@CSubLabel@@QAEXV?$CStringT@DV?$StrTraitMFC_DLL@DV?$ChTraitsCRT@D@ATL@@@@@ATL@@@Z ENDP ; CSubLabel::SetText
PUBLIC	?SetSelect@CSubLabel@@QAEXH@Z			; CSubLabel::SetSelect
; Function compile flags: /Odt
_TEXT	SEGMENT
_this$ = -4						; size = 4
_bsel$ = 8						; size = 4
?SetSelect@CSubLabel@@QAEXH@Z PROC NEAR			; CSubLabel::SetSelect
; _this$ = ecx

; 60   : {

  00390	55		 push	 ebp
  00391	8b ec		 mov	 ebp, esp
  00393	51		 push	 ecx
  00394	89 4d fc	 mov	 DWORD PTR _this$[ebp], ecx

; 61   : 	m_bselect = bsel;

  00397	8b 45 fc	 mov	 eax, DWORD PTR _this$[ebp]
  0039a	8b 4d 08	 mov	 ecx, DWORD PTR _bsel$[ebp]
  0039d	89 48 5c	 mov	 DWORD PTR [eax+92], ecx

; 62   : }

  003a0	8b e5		 mov	 esp, ebp
  003a2	5d		 pop	 ebp
  003a3	c2 04 00	 ret	 4
?SetSelect@CSubLabel@@QAEXH@Z ENDP			; CSubLabel::SetSelect
_TEXT	ENDS
EXTRN	__imp_?Compare@?$CStringT@DV?$StrTraitMFC_DLL@DV?$ChTraitsCRT@D@ATL@@@@@ATL@@QBEHPBD@Z:NEAR
; Function compile flags: /Odt
; File d:\program files (x86)\microsoft visual studio .net 2003\vc7\atlmfc\include\cstringt.h
;	COMDAT ??9ATL@@YA_NABV?$CStringT@DV?$StrTraitMFC_DLL@DV?$ChTraitsCRT@D@ATL@@@@@0@PBD@Z
_TEXT	SEGMENT
_str1$ = 8						; size = 4
_psz2$ = 12						; size = 4
??9ATL@@YA_NABV?$CStringT@DV?$StrTraitMFC_DLL@DV?$ChTraitsCRT@D@ATL@@@@@0@PBD@Z PROC NEAR ; ATL::operator!=, COMDAT

; 2121 : 	{

  00000	55		 push	 ebp
  00001	8b ec		 mov	 ebp, esp

; 2122 : 		return( str1.Compare( psz2 ) != 0 );

  00003	8b 45 0c	 mov	 eax, DWORD PTR _psz2$[ebp]
  00006	50		 push	 eax
  00007	8b 4d 08	 mov	 ecx, DWORD PTR _str1$[ebp]
  0000a	ff 15 00 00 00
	00		 call	 DWORD PTR __imp_?Compare@?$CStringT@DV?$StrTraitMFC_DLL@DV?$ChTraitsCRT@D@ATL@@@@@ATL@@QBEHPBD@Z
  00010	f7 d8		 neg	 eax
  00012	1b c0		 sbb	 eax, eax
  00014	f7 d8		 neg	 eax

; 2123 : 	}

  00016	5d		 pop	 ebp
  00017	c3		 ret	 0
??9ATL@@YA_NABV?$CStringT@DV?$StrTraitMFC_DLL@DV?$ChTraitsCRT@D@ATL@@@@@0@PBD@Z ENDP ; ATL::operator!=
; Function compile flags: /Odt
; File d:\program files (x86)\microsoft visual studio .net 2003\vc7\atlmfc\include\atltypes.inl
_TEXT	ENDS
;	COMDAT ??0CRect@@QAE@XZ
_TEXT	SEGMENT
_this$ = -4						; size = 4
??0CRect@@QAE@XZ PROC NEAR				; CRect::CRect, COMDAT
; _this$ = ecx

; 110  : 	{ /* random filled */ }

  00000	55		 push	 ebp
  00001	8b ec		 mov	 ebp, esp
  00003	51		 push	 ecx
  00004	89 4d fc	 mov	 DWORD PTR _this$[ebp], ecx
  00007	8b 45 fc	 mov	 eax, DWORD PTR _this$[ebp]
  0000a	8b e5		 mov	 esp, ebp
  0000c	5d		 pop	 ebp
  0000d	c3		 ret	 0
??0CRect@@QAE@XZ ENDP					; CRect::CRect
; Function compile flags: /Odt
_TEXT	ENDS
;	COMDAT ??BCRect@@QAEPAUtagRECT@@XZ
_TEXT	SEGMENT
_this$ = -4						; size = 4
??BCRect@@QAEPAUtagRECT@@XZ PROC NEAR			; CRect::operator tagRECT *, COMDAT
; _this$ = ecx

; 143  : 	{ return this; }

  00000	55		 push	 ebp
  00001	8b ec		 mov	 ebp, esp
  00003	51		 push	 ecx
  00004	89 4d fc	 mov	 DWORD PTR _this$[ebp], ecx
  00007	8b 45 fc	 mov	 eax, DWORD PTR _this$[ebp]
  0000a	8b e5		 mov	 esp, ebp
  0000c	5d		 pop	 ebp
  0000d	c3		 ret	 0
??BCRect@@QAEPAUtagRECT@@XZ ENDP			; CRect::operator tagRECT *
; Function compile flags: /Odt
_TEXT	ENDS
;	COMDAT ?DeflateRect@CRect@@QAEXHHHH@Z
_TEXT	SEGMENT
_this$ = -4						; size = 4
_l$ = 8							; size = 4
_t$ = 12						; size = 4
_r$ = 16						; size = 4
_b$ = 20						; size = 4
?DeflateRect@CRect@@QAEXHHHH@Z PROC NEAR		; CRect::DeflateRect, COMDAT
; _this$ = ecx

; 267  : 	{

  00000	55		 push	 ebp
  00001	8b ec		 mov	 ebp, esp
  00003	51		 push	 ecx
  00004	89 4d fc	 mov	 DWORD PTR _this$[ebp], ecx

; 268  : 		left += l;		top += t;

  00007	8b 45 fc	 mov	 eax, DWORD PTR _this$[ebp]
  0000a	8b 08		 mov	 ecx, DWORD PTR [eax]
  0000c	03 4d 08	 add	 ecx, DWORD PTR _l$[ebp]
  0000f	8b 55 fc	 mov	 edx, DWORD PTR _this$[ebp]
  00012	89 0a		 mov	 DWORD PTR [edx], ecx
  00014	8b 45 fc	 mov	 eax, DWORD PTR _this$[ebp]
  00017	8b 48 04	 mov	 ecx, DWORD PTR [eax+4]
  0001a	03 4d 0c	 add	 ecx, DWORD PTR _t$[ebp]
  0001d	8b 55 fc	 mov	 edx, DWORD PTR _this$[ebp]
  00020	89 4a 04	 mov	 DWORD PTR [edx+4], ecx

; 269  : 		right -= r;		bottom -= b;

  00023	8b 45 fc	 mov	 eax, DWORD PTR _this$[ebp]
  00026	8b 48 08	 mov	 ecx, DWORD PTR [eax+8]
  00029	2b 4d 10	 sub	 ecx, DWORD PTR _r$[ebp]
  0002c	8b 55 fc	 mov	 edx, DWORD PTR _this$[ebp]
  0002f	89 4a 08	 mov	 DWORD PTR [edx+8], ecx
  00032	8b 45 fc	 mov	 eax, DWORD PTR _this$[ebp]
  00035	8b 48 0c	 mov	 ecx, DWORD PTR [eax+12]
  00038	2b 4d 14	 sub	 ecx, DWORD PTR _b$[ebp]
  0003b	8b 55 fc	 mov	 edx, DWORD PTR _this$[ebp]
  0003e	89 4a 0c	 mov	 DWORD PTR [edx+12], ecx

; 270  : 	}

  00041	8b e5		 mov	 esp, ebp
  00043	5d		 pop	 ebp
  00044	c2 10 00	 ret	 16			; 00000010H
?DeflateRect@CRect@@QAEXHHHH@Z ENDP			; CRect::DeflateRect
; Function compile flags: /Odt
; File d:\program files (x86)\microsoft visual studio .net 2003\vc7\atlmfc\include\afx.inl
_TEXT	ENDS
;	COMDAT ?Serialize@CObject@@UAEXAAVCArchive@@@Z
_TEXT	SEGMENT
_this$ = -4						; size = 4
___formal$ = 8						; size = 4
?Serialize@CObject@@UAEXAAVCArchive@@@Z PROC NEAR	; CObject::Serialize, COMDAT
; _this$ = ecx

; 25   : 	{ /* CObject does not serialize anything by default */ }

  00000	55		 push	 ebp
  00001	8b ec		 mov	 ebp, esp
  00003	51		 push	 ecx
  00004	89 4d fc	 mov	 DWORD PTR _this$[ebp], ecx
  00007	8b e5		 mov	 esp, ebp
  00009	5d		 pop	 ebp
  0000a	c2 04 00	 ret	 4
?Serialize@CObject@@UAEXAAVCArchive@@@Z ENDP		; CObject::Serialize
_TEXT	ENDS
EXTRN	??3@YAXPAX@Z:NEAR				; operator delete
; Function compile flags: /Odt
;	COMDAT ??3CObject@@SGXPAX@Z
_TEXT	SEGMENT
_p$ = 8							; size = 4
??3CObject@@SGXPAX@Z PROC NEAR				; CObject::operator delete, COMDAT

; 31   : 	{ ::operator delete(p); }

  00000	55		 push	 ebp
  00001	8b ec		 mov	 ebp, esp
  00003	8b 45 08	 mov	 eax, DWORD PTR _p$[ebp]
  00006	50		 push	 eax
  00007	e8 00 00 00 00	 call	 ??3@YAXPAX@Z		; operator delete
  0000c	83 c4 04	 add	 esp, 4
  0000f	5d		 pop	 ebp
  00010	c2 04 00	 ret	 4
??3CObject@@SGXPAX@Z ENDP				; CObject::operator delete
_TEXT	ENDS
EXTRN	??2@YAPAXI@Z:NEAR				; operator new
; Function compile flags: /Odt
;	COMDAT ??2CObject@@SGPAXI@Z
_TEXT	SEGMENT
_nSize$ = 8						; size = 4
??2CObject@@SGPAXI@Z PROC NEAR				; CObject::operator new, COMDAT

; 37   : 	{ return ::operator new(nSize); }

  00000	55		 push	 ebp
  00001	8b ec		 mov	 ebp, esp
  00003	8b 45 08	 mov	 eax, DWORD PTR _nSize$[ebp]
  00006	50		 push	 eax
  00007	e8 00 00 00 00	 call	 ??2@YAPAXI@Z		; operator new
  0000c	83 c4 04	 add	 esp, 4
  0000f	5d		 pop	 ebp
  00010	c2 04 00	 ret	 4
??2CObject@@SGPAXI@Z ENDP				; CObject::operator new
; Function compile flags: /Odt
_TEXT	ENDS
;	COMDAT ?AssertValid@CObject@@UBEXXZ
_TEXT	SEGMENT
_this$ = -4						; size = 4
?AssertValid@CObject@@UBEXXZ PROC NEAR			; CObject::AssertValid, COMDAT
; _this$ = ecx

; 41   : 	{ /* no asserts in release builds */ }

  00000	55		 push	 ebp
  00001	8b ec		 mov	 ebp, esp
  00003	51		 push	 ecx
  00004	89 4d fc	 mov	 DWORD PTR _this$[ebp], ecx
  00007	8b e5		 mov	 esp, ebp
  00009	5d		 pop	 ebp
  0000a	c3		 ret	 0
?AssertValid@CObject@@UBEXXZ ENDP			; CObject::AssertValid
; Function compile flags: /Odt
_TEXT	ENDS
;	COMDAT ?Dump@CObject@@UBEXAAVCDumpContext@@@Z
_TEXT	SEGMENT
_this$ = -4						; size = 4
___formal$ = 8						; size = 4
?Dump@CObject@@UBEXAAVCDumpContext@@@Z PROC NEAR	; CObject::Dump, COMDAT
; _this$ = ecx

; 43   : 	{ /* no dumping in release builds */ }

  00000	55		 push	 ebp
  00001	8b ec		 mov	 ebp, esp
  00003	51		 push	 ecx
  00004	89 4d fc	 mov	 DWORD PTR _this$[ebp], ecx
  00007	8b e5		 mov	 esp, ebp
  00009	5d		 pop	 ebp
  0000a	c2 04 00	 ret	 4
?Dump@CObject@@UBEXAAVCDumpContext@@@Z ENDP		; CObject::Dump
_TEXT	ENDS
PUBLIC	??_R0?AVCGdiObject@@@8				; CGdiObject `RTTI Type Descriptor'
PUBLIC	??_R1A@?0A@A@CGdiObject@@8			; CGdiObject::`RTTI Base Class Descriptor at (0,-1,0,0)'
PUBLIC	??_R4CBrush@@6B@				; CBrush::`RTTI Complete Object Locator'
PUBLIC	??_R0?AVCBrush@@@8				; CBrush `RTTI Type Descriptor'
PUBLIC	??_R3CBrush@@8					; CBrush::`RTTI Class Hierarchy Descriptor'
PUBLIC	??_R2CBrush@@8					; CBrush::`RTTI Base Class Array'
PUBLIC	??_R1A@?0A@A@CBrush@@8				; CBrush::`RTTI Base Class Descriptor at (0,-1,0,0)'
PUBLIC	??1CGdiObject@@UAE@XZ				; CGdiObject::~CGdiObject
PUBLIC	??_7CBrush@@6B@					; CBrush::`vftable'
PUBLIC	??_GCBrush@@UAEPAXI@Z				; CBrush::`scalar deleting destructor'
EXTRN	?GetRuntimeClass@CBrush@@UBEPAUCRuntimeClass@@XZ:NEAR ; CBrush::GetRuntimeClass
EXTRN	??_ECBrush@@UAEPAXI@Z:NEAR			; CBrush::`vector deleting destructor'
;	COMDAT ??_7CBrush@@6B@
; File d:\program files (x86)\microsoft visual studio .net 2003\vc7\atlmfc\include\afxwin1.inl
CONST	SEGMENT
??_7CBrush@@6B@ DD FLAT:??_R4CBrush@@6B@		; CBrush::`vftable'
	DD	FLAT:?GetRuntimeClass@CBrush@@UBEPAUCRuntimeClass@@XZ
	DD	FLAT:??_ECBrush@@UAEPAXI@Z
	DD	FLAT:?Serialize@CObject@@UAEXAAVCArchive@@@Z
	DD	FLAT:?AssertValid@CObject@@UBEXXZ
	DD	FLAT:?Dump@CObject@@UBEXAAVCDumpContext@@@Z
CONST	ENDS
;	COMDAT ??_R4CBrush@@6B@
rdata$r	SEGMENT
??_R4CBrush@@6B@ DD 00H					; CBrush::`RTTI Complete Object Locator'
	DD	00H
	DD	00H
	DD	FLAT:??_R0?AVCBrush@@@8
	DD	FLAT:??_R3CBrush@@8
rdata$r	ENDS
;	COMDAT ??_R0?AVCBrush@@@8
_DATA	SEGMENT
??_R0?AVCBrush@@@8 DD FLAT:??_7type_info@@6B@		; CBrush `RTTI Type Descriptor'
	DD	00H
	DB	'.?AVCBrush@@', 00H
_DATA	ENDS
;	COMDAT ??_R3CBrush@@8
rdata$r	SEGMENT
??_R3CBrush@@8 DD 00H					; CBrush::`RTTI Class Hierarchy Descriptor'
	DD	00H
	DD	03H
	DD	FLAT:??_R2CBrush@@8
rdata$r	ENDS
;	COMDAT ??_R2CBrush@@8
rdata$r	SEGMENT
??_R2CBrush@@8 DD FLAT:??_R1A@?0A@A@CBrush@@8		; CBrush::`RTTI Base Class Array'
	DD	FLAT:??_R1A@?0A@A@CGdiObject@@8
	DD	FLAT:??_R1A@?0A@A@CObject@@8
rdata$r	ENDS
;	COMDAT ??_R1A@?0A@A@CBrush@@8
rdata$r	SEGMENT
??_R1A@?0A@A@CBrush@@8 DD FLAT:??_R0?AVCBrush@@@8	; CBrush::`RTTI Base Class Descriptor at (0,-1,0,0)'
	DD	02H
	DD	00H
	DD	0ffffffffH
	DD	00H
	DD	00H
rdata$r	ENDS
;	COMDAT ??_R1A@?0A@A@CGdiObject@@8
rdata$r	SEGMENT
??_R1A@?0A@A@CGdiObject@@8 DD FLAT:??_R0?AVCGdiObject@@@8 ; CGdiObject::`RTTI Base Class Descriptor at (0,-1,0,0)'
	DD	01H
	DD	00H
	DD	0ffffffffH
	DD	00H
	DD	00H
rdata$r	ENDS
;	COMDAT ??_R0?AVCGdiObject@@@8
_DATA	SEGMENT
??_R0?AVCGdiObject@@@8 DD FLAT:??_7type_info@@6B@	; CGdiObject `RTTI Type Descriptor'
	DD	00H
	DB	'.?AVCGdiObject@@', 00H
; Function compile flags: /Odt
_DATA	ENDS
;	COMDAT ??1CBrush@@UAE@XZ
_TEXT	SEGMENT
_this$ = -4						; size = 4
??1CBrush@@UAE@XZ PROC NEAR				; CBrush::~CBrush, COMDAT
; _this$ = ecx

; 130  : 	{ }

  00000	55		 push	 ebp
  00001	8b ec		 mov	 ebp, esp
  00003	51		 push	 ecx
  00004	89 4d fc	 mov	 DWORD PTR _this$[ebp], ecx
  00007	8b 45 fc	 mov	 eax, DWORD PTR _this$[ebp]
  0000a	c7 00 00 00 00
	00		 mov	 DWORD PTR [eax], OFFSET FLAT:??_7CBrush@@6B@
  00010	8b 4d fc	 mov	 ecx, DWORD PTR _this$[ebp]
  00013	e8 00 00 00 00	 call	 ??1CGdiObject@@UAE@XZ	; CGdiObject::~CGdiObject
  00018	8b e5		 mov	 esp, ebp
  0001a	5d		 pop	 ebp
  0001b	c3		 ret	 0
??1CBrush@@UAE@XZ ENDP					; CBrush::~CBrush
_TEXT	ENDS
PUBLIC	??_R4CGdiObject@@6B@				; CGdiObject::`RTTI Complete Object Locator'
PUBLIC	??_R3CGdiObject@@8				; CGdiObject::`RTTI Class Hierarchy Descriptor'
PUBLIC	??_R2CGdiObject@@8				; CGdiObject::`RTTI Base Class Array'
PUBLIC	??1CObject@@UAE@XZ				; CObject::~CObject
PUBLIC	??_7CGdiObject@@6B@				; CGdiObject::`vftable'
PUBLIC	??_GCGdiObject@@UAEPAXI@Z			; CGdiObject::`scalar deleting destructor'
EXTRN	?GetRuntimeClass@CGdiObject@@UBEPAUCRuntimeClass@@XZ:NEAR ; CGdiObject::GetRuntimeClass
EXTRN	??_ECGdiObject@@UAEPAXI@Z:NEAR			; CGdiObject::`vector deleting destructor'
;	COMDAT xdata$x
xdata$x	SEGMENT
$T198165 DD	0ffffffffH
	DD	FLAT:$L198161
$T198163 DD	019930520H
	DD	01H
	DD	FLAT:$T198165
	DD	2 DUP(00H)
	DD	2 DUP(00H)
xdata$x	ENDS
;	COMDAT ??_7CGdiObject@@6B@
CONST	SEGMENT
??_7CGdiObject@@6B@ DD FLAT:??_R4CGdiObject@@6B@	; CGdiObject::`vftable'
	DD	FLAT:?GetRuntimeClass@CGdiObject@@UBEPAUCRuntimeClass@@XZ
	DD	FLAT:??_ECGdiObject@@UAEPAXI@Z
	DD	FLAT:?Serialize@CObject@@UAEXAAVCArchive@@@Z
	DD	FLAT:?AssertValid@CObject@@UBEXXZ
	DD	FLAT:?Dump@CObject@@UBEXAAVCDumpContext@@@Z
CONST	ENDS
;	COMDAT ??_R4CGdiObject@@6B@
rdata$r	SEGMENT
??_R4CGdiObject@@6B@ DD 00H				; CGdiObject::`RTTI Complete Object Locator'
	DD	00H
	DD	00H
	DD	FLAT:??_R0?AVCGdiObject@@@8
	DD	FLAT:??_R3CGdiObject@@8
rdata$r	ENDS
;	COMDAT ??_R3CGdiObject@@8
rdata$r	SEGMENT
??_R3CGdiObject@@8 DD 00H				; CGdiObject::`RTTI Class Hierarchy Descriptor'
	DD	00H
	DD	02H
	DD	FLAT:??_R2CGdiObject@@8
rdata$r	ENDS
;	COMDAT ??_R2CGdiObject@@8
rdata$r	SEGMENT
??_R2CGdiObject@@8 DD FLAT:??_R1A@?0A@A@CGdiObject@@8	; CGdiObject::`RTTI Base Class Array'
	DD	FLAT:??_R1A@?0A@A@CObject@@8
; Function compile flags: /Odt
rdata$r	ENDS
;	COMDAT ??1CGdiObject@@UAE@XZ
_TEXT	SEGMENT
_this$ = -16						; size = 4
__$EHRec$ = -12						; size = 12
??1CGdiObject@@UAE@XZ PROC NEAR				; CGdiObject::~CGdiObject, COMDAT
; _this$ = ecx

; 84   : 	{ DeleteObject(); }

  00000	55		 push	 ebp
  00001	8b ec		 mov	 ebp, esp
  00003	6a ff		 push	 -1
  00005	68 00 00 00 00	 push	 __ehhandler$??1CGdiObject@@UAE@XZ
  0000a	64 a1 00 00 00
	00		 mov	 eax, DWORD PTR fs:__except_list
  00010	50		 push	 eax
  00011	64 89 25 00 00
	00 00		 mov	 DWORD PTR fs:__except_list, esp
  00018	51		 push	 ecx
  00019	89 4d f0	 mov	 DWORD PTR _this$[ebp], ecx
  0001c	8b 45 f0	 mov	 eax, DWORD PTR _this$[ebp]
  0001f	c7 00 00 00 00
	00		 mov	 DWORD PTR [eax], OFFSET FLAT:??_7CGdiObject@@6B@
  00025	c7 45 fc 00 00
	00 00		 mov	 DWORD PTR __$EHRec$[ebp+8], 0
  0002c	8b 4d f0	 mov	 ecx, DWORD PTR _this$[ebp]
  0002f	e8 00 00 00 00	 call	 ?DeleteObject@CGdiObject@@QAEHXZ ; CGdiObject::DeleteObject
  00034	c7 45 fc ff ff
	ff ff		 mov	 DWORD PTR __$EHRec$[ebp+8], -1
  0003b	8b 4d f0	 mov	 ecx, DWORD PTR _this$[ebp]
  0003e	e8 00 00 00 00	 call	 ??1CObject@@UAE@XZ	; CObject::~CObject
  00043	8b 4d f4	 mov	 ecx, DWORD PTR __$EHRec$[ebp]
  00046	64 89 0d 00 00
	00 00		 mov	 DWORD PTR fs:__except_list, ecx
  0004d	8b e5		 mov	 esp, ebp
  0004f	5d		 pop	 ebp
  00050	c3		 ret	 0
_TEXT	ENDS
;	COMDAT text$x
text$x	SEGMENT
$L198161:
  00000	8b 4d f0	 mov	 ecx, DWORD PTR _this$[ebp]
  00003	e9 00 00 00 00	 jmp	 ??1CObject@@UAE@XZ	; CObject::~CObject
__ehhandler$??1CGdiObject@@UAE@XZ:
  00008	b8 00 00 00 00	 mov	 eax, OFFSET FLAT:$T198163
  0000d	e9 00 00 00 00	 jmp	 ___CxxFrameHandler
text$x	ENDS
??1CGdiObject@@UAE@XZ ENDP				; CGdiObject::~CGdiObject
; Function compile flags: /Odt
; File d:\program files (x86)\microsoft visual studio .net 2003\vc7\atlmfc\include\afx.inl
;	COMDAT ??1CObject@@UAE@XZ
_TEXT	SEGMENT
_this$ = -4						; size = 4
??1CObject@@UAE@XZ PROC NEAR				; CObject::~CObject, COMDAT
; _this$ = ecx

; 23   : 	{ }

  00000	55		 push	 ebp
  00001	8b ec		 mov	 ebp, esp
  00003	51		 push	 ecx
  00004	89 4d fc	 mov	 DWORD PTR _this$[ebp], ecx
  00007	8b e5		 mov	 esp, ebp
  00009	5d		 pop	 ebp
  0000a	c3		 ret	 0
??1CObject@@UAE@XZ ENDP					; CObject::~CObject
; Function compile flags: /Odt
_TEXT	ENDS
;	COMDAT ??_GCGdiObject@@UAEPAXI@Z
_TEXT	SEGMENT
_this$ = -4						; size = 4
___flags$ = 8						; size = 4
??_GCGdiObject@@UAEPAXI@Z PROC NEAR			; CGdiObject::`scalar deleting destructor', COMDAT
; _this$ = ecx
  00000	55		 push	 ebp
  00001	8b ec		 mov	 ebp, esp
  00003	51		 push	 ecx
  00004	89 4d fc	 mov	 DWORD PTR _this$[ebp], ecx
  00007	8b 4d fc	 mov	 ecx, DWORD PTR _this$[ebp]
  0000a	e8 00 00 00 00	 call	 ??1CGdiObject@@UAE@XZ	; CGdiObject::~CGdiObject
  0000f	8b 45 08	 mov	 eax, DWORD PTR ___flags$[ebp]
  00012	83 e0 01	 and	 eax, 1
  00015	74 09		 je	 SHORT $L41495
  00017	8b 4d fc	 mov	 ecx, DWORD PTR _this$[ebp]
  0001a	51		 push	 ecx
  0001b	e8 00 00 00 00	 call	 ??3CObject@@SGXPAX@Z	; CObject::operator delete
$L41495:
  00020	8b 45 fc	 mov	 eax, DWORD PTR _this$[ebp]
  00023	8b e5		 mov	 esp, ebp
  00025	5d		 pop	 ebp
  00026	c2 04 00	 ret	 4
??_GCGdiObject@@UAEPAXI@Z ENDP				; CGdiObject::`scalar deleting destructor'
; Function compile flags: /Odt
_TEXT	ENDS
;	COMDAT ??_GCBrush@@UAEPAXI@Z
_TEXT	SEGMENT
_this$ = -4						; size = 4
___flags$ = 8						; size = 4
??_GCBrush@@UAEPAXI@Z PROC NEAR				; CBrush::`scalar deleting destructor', COMDAT
; _this$ = ecx
  00000	55		 push	 ebp
  00001	8b ec		 mov	 ebp, esp
  00003	51		 push	 ecx
  00004	89 4d fc	 mov	 DWORD PTR _this$[ebp], ecx
  00007	8b 4d fc	 mov	 ecx, DWORD PTR _this$[ebp]
  0000a	e8 00 00 00 00	 call	 ??1CBrush@@UAE@XZ	; CBrush::~CBrush
  0000f	8b 45 08	 mov	 eax, DWORD PTR ___flags$[ebp]
  00012	83 e0 01	 and	 eax, 1
  00015	74 09		 je	 SHORT $L41589
  00017	8b 4d fc	 mov	 ecx, DWORD PTR _this$[ebp]
  0001a	51		 push	 ecx
  0001b	e8 00 00 00 00	 call	 ??3CObject@@SGXPAX@Z	; CObject::operator delete
$L41589:
  00020	8b 45 fc	 mov	 eax, DWORD PTR _this$[ebp]
  00023	8b e5		 mov	 esp, ebp
  00025	5d		 pop	 ebp
  00026	c2 04 00	 ret	 4
??_GCBrush@@UAEPAXI@Z ENDP				; CBrush::`scalar deleting destructor'
_TEXT	ENDS
PUBLIC	??_R4CFont@@6B@					; CFont::`RTTI Complete Object Locator'
PUBLIC	??_R0?AVCFont@@@8				; CFont `RTTI Type Descriptor'
PUBLIC	??_R3CFont@@8					; CFont::`RTTI Class Hierarchy Descriptor'
PUBLIC	??_R2CFont@@8					; CFont::`RTTI Base Class Array'
PUBLIC	??_R1A@?0A@A@CFont@@8				; CFont::`RTTI Base Class Descriptor at (0,-1,0,0)'
PUBLIC	??0CGdiObject@@QAE@XZ				; CGdiObject::CGdiObject
PUBLIC	??_7CFont@@6B@					; CFont::`vftable'
PUBLIC	??_GCFont@@UAEPAXI@Z				; CFont::`scalar deleting destructor'
EXTRN	?GetRuntimeClass@CFont@@UBEPAUCRuntimeClass@@XZ:NEAR ; CFont::GetRuntimeClass
EXTRN	??_ECFont@@UAEPAXI@Z:NEAR			; CFont::`vector deleting destructor'
;	COMDAT ??_7CFont@@6B@
; File d:\program files (x86)\microsoft visual studio .net 2003\vc7\atlmfc\include\afxwin1.inl
CONST	SEGMENT
??_7CFont@@6B@ DD FLAT:??_R4CFont@@6B@			; CFont::`vftable'
	DD	FLAT:?GetRuntimeClass@CFont@@UBEPAUCRuntimeClass@@XZ
	DD	FLAT:??_ECFont@@UAEPAXI@Z
	DD	FLAT:?Serialize@CObject@@UAEXAAVCArchive@@@Z
	DD	FLAT:?AssertValid@CObject@@UBEXXZ
	DD	FLAT:?Dump@CObject@@UBEXAAVCDumpContext@@@Z
CONST	ENDS
;	COMDAT ??_R4CFont@@6B@
rdata$r	SEGMENT
??_R4CFont@@6B@ DD 00H					; CFont::`RTTI Complete Object Locator'
	DD	00H
	DD	00H
	DD	FLAT:??_R0?AVCFont@@@8
	DD	FLAT:??_R3CFont@@8
rdata$r	ENDS
;	COMDAT ??_R0?AVCFont@@@8
_DATA	SEGMENT
??_R0?AVCFont@@@8 DD FLAT:??_7type_info@@6B@		; CFont `RTTI Type Descriptor'
	DD	00H
	DB	'.?AVCFont@@', 00H
_DATA	ENDS
;	COMDAT ??_R3CFont@@8
rdata$r	SEGMENT
??_R3CFont@@8 DD 00H					; CFont::`RTTI Class Hierarchy Descriptor'
	DD	00H
	DD	03H
	DD	FLAT:??_R2CFont@@8
rdata$r	ENDS
;	COMDAT ??_R2CFont@@8
rdata$r	SEGMENT
??_R2CFont@@8 DD FLAT:??_R1A@?0A@A@CFont@@8		; CFont::`RTTI Base Class Array'
	DD	FLAT:??_R1A@?0A@A@CGdiObject@@8
	DD	FLAT:??_R1A@?0A@A@CObject@@8
rdata$r	ENDS
;	COMDAT ??_R1A@?0A@A@CFont@@8
rdata$r	SEGMENT
??_R1A@?0A@A@CFont@@8 DD FLAT:??_R0?AVCFont@@@8		; CFont::`RTTI Base Class Descriptor at (0,-1,0,0)'
	DD	02H
	DD	00H
	DD	0ffffffffH
	DD	00H
	DD	00H
; Function compile flags: /Odt
rdata$r	ENDS
;	COMDAT ??0CFont@@QAE@XZ
_TEXT	SEGMENT
_this$ = -4						; size = 4
??0CFont@@QAE@XZ PROC NEAR				; CFont::CFont, COMDAT
; _this$ = ecx

; 153  : 	{ }

  00000	55		 push	 ebp
  00001	8b ec		 mov	 ebp, esp
  00003	51		 push	 ecx
  00004	89 4d fc	 mov	 DWORD PTR _this$[ebp], ecx
  00007	8b 4d fc	 mov	 ecx, DWORD PTR _this$[ebp]
  0000a	e8 00 00 00 00	 call	 ??0CGdiObject@@QAE@XZ	; CGdiObject::CGdiObject
  0000f	8b 45 fc	 mov	 eax, DWORD PTR _this$[ebp]
  00012	c7 00 00 00 00
	00		 mov	 DWORD PTR [eax], OFFSET FLAT:??_7CFont@@6B@
  00018	8b 45 fc	 mov	 eax, DWORD PTR _this$[ebp]
  0001b	8b e5		 mov	 esp, ebp
  0001d	5d		 pop	 ebp
  0001e	c3		 ret	 0
??0CFont@@QAE@XZ ENDP					; CFont::CFont
_TEXT	ENDS
PUBLIC	??0CObject@@IAE@XZ				; CObject::CObject
; Function compile flags: /Odt
;	COMDAT ??0CGdiObject@@QAE@XZ
_TEXT	SEGMENT
_this$ = -4						; size = 4
??0CGdiObject@@QAE@XZ PROC NEAR				; CGdiObject::CGdiObject, COMDAT
; _this$ = ecx

; 82   : 	{ m_hObject = NULL; }

  00000	55		 push	 ebp
  00001	8b ec		 mov	 ebp, esp
  00003	51		 push	 ecx
  00004	89 4d fc	 mov	 DWORD PTR _this$[ebp], ecx
  00007	8b 4d fc	 mov	 ecx, DWORD PTR _this$[ebp]
  0000a	e8 00 00 00 00	 call	 ??0CObject@@IAE@XZ	; CObject::CObject
  0000f	8b 45 fc	 mov	 eax, DWORD PTR _this$[ebp]
  00012	c7 00 00 00 00
	00		 mov	 DWORD PTR [eax], OFFSET FLAT:??_7CGdiObject@@6B@
  00018	8b 4d fc	 mov	 ecx, DWORD PTR _this$[ebp]
  0001b	c7 41 04 00 00
	00 00		 mov	 DWORD PTR [ecx+4], 0
  00022	8b 45 fc	 mov	 eax, DWORD PTR _this$[ebp]
  00025	8b e5		 mov	 esp, ebp
  00027	5d		 pop	 ebp
  00028	c3		 ret	 0
??0CGdiObject@@QAE@XZ ENDP				; CGdiObject::CGdiObject
; Function compile flags: /Odt
; File d:\program files (x86)\microsoft visual studio .net 2003\vc7\atlmfc\include\afx.inl
_TEXT	ENDS
;	COMDAT ??0CObject@@IAE@XZ
_TEXT	SEGMENT
_this$ = -4						; size = 4
??0CObject@@IAE@XZ PROC NEAR				; CObject::CObject, COMDAT
; _this$ = ecx

; 21   : 	{ }

  00000	55		 push	 ebp
  00001	8b ec		 mov	 ebp, esp
  00003	51		 push	 ecx
  00004	89 4d fc	 mov	 DWORD PTR _this$[ebp], ecx
  00007	8b 45 fc	 mov	 eax, DWORD PTR _this$[ebp]
  0000a	8b e5		 mov	 esp, ebp
  0000c	5d		 pop	 ebp
  0000d	c3		 ret	 0
??0CObject@@IAE@XZ ENDP					; CObject::CObject
_TEXT	ENDS
PUBLIC	??1CFont@@UAE@XZ				; CFont::~CFont
; Function compile flags: /Odt
;	COMDAT ??_GCFont@@UAEPAXI@Z
_TEXT	SEGMENT
_this$ = -4						; size = 4
___flags$ = 8						; size = 4
??_GCFont@@UAEPAXI@Z PROC NEAR				; CFont::`scalar deleting destructor', COMDAT
; _this$ = ecx
  00000	55		 push	 ebp
  00001	8b ec		 mov	 ebp, esp
  00003	51		 push	 ecx
  00004	89 4d fc	 mov	 DWORD PTR _this$[ebp], ecx
  00007	8b 4d fc	 mov	 ecx, DWORD PTR _this$[ebp]
  0000a	e8 00 00 00 00	 call	 ??1CFont@@UAE@XZ	; CFont::~CFont
  0000f	8b 45 08	 mov	 eax, DWORD PTR ___flags$[ebp]
  00012	83 e0 01	 and	 eax, 1
  00015	74 09		 je	 SHORT $L41640
  00017	8b 4d fc	 mov	 ecx, DWORD PTR _this$[ebp]
  0001a	51		 push	 ecx
  0001b	e8 00 00 00 00	 call	 ??3CObject@@SGXPAX@Z	; CObject::operator delete
$L41640:
  00020	8b 45 fc	 mov	 eax, DWORD PTR _this$[ebp]
  00023	8b e5		 mov	 esp, ebp
  00025	5d		 pop	 ebp
  00026	c2 04 00	 ret	 4
??_GCFont@@UAEPAXI@Z ENDP				; CFont::`scalar deleting destructor'
; Function compile flags: /Odt
; File d:\program files (x86)\microsoft visual studio .net 2003\vc7\atlmfc\include\afxwin1.inl
_TEXT	ENDS
;	COMDAT ??1CFont@@UAE@XZ
_TEXT	SEGMENT
_this$ = -4						; size = 4
??1CFont@@UAE@XZ PROC NEAR				; CFont::~CFont, COMDAT
; _this$ = ecx

; 155  : 	{ }

  00000	55		 push	 ebp
  00001	8b ec		 mov	 ebp, esp
  00003	51		 push	 ecx
  00004	89 4d fc	 mov	 DWORD PTR _this$[ebp], ecx
  00007	8b 45 fc	 mov	 eax, DWORD PTR _this$[ebp]
  0000a	c7 00 00 00 00
	00		 mov	 DWORD PTR [eax], OFFSET FLAT:??_7CFont@@6B@
  00010	8b 4d fc	 mov	 ecx, DWORD PTR _this$[ebp]
  00013	e8 00 00 00 00	 call	 ??1CGdiObject@@UAE@XZ	; CGdiObject::~CGdiObject
  00018	8b e5		 mov	 esp, ebp
  0001a	5d		 pop	 ebp
  0001b	c3		 ret	 0
??1CFont@@UAE@XZ ENDP					; CFont::~CFont
_TEXT	ENDS
EXTRN	__imp__CreateFontA@56:NEAR
EXTRN	?Attach@CGdiObject@@QAEHPAX@Z:NEAR		; CGdiObject::Attach
; Function compile flags: /Odt
;	COMDAT ?CreateFontA@CFont@@QAEHHHHHHEEEEEEEEPBD@Z
_TEXT	SEGMENT
_this$ = -4						; size = 4
_nHeight$ = 8						; size = 4
_nWidth$ = 12						; size = 4
_nEscapement$ = 16					; size = 4
_nOrientation$ = 20					; size = 4
_nWeight$ = 24						; size = 4
_bItalic$ = 28						; size = 1
_bUnderline$ = 32					; size = 1
_cStrikeOut$ = 36					; size = 1
_nCharSet$ = 40						; size = 1
_nOutPrecision$ = 44					; size = 1
_nClipPrecision$ = 48					; size = 1
_nQuality$ = 52						; size = 1
_nPitchAndFamily$ = 56					; size = 1
_lpszFacename$ = 60					; size = 4
?CreateFontA@CFont@@QAEHHHHHHEEEEEEEEPBD@Z PROC NEAR	; CFont::CreateFontA, COMDAT
; _this$ = ecx

; 163  : 	{ return Attach(::CreateFont(nHeight, nWidth, nEscapement,

  00000	55		 push	 ebp
  00001	8b ec		 mov	 ebp, esp
  00003	51		 push	 ecx
  00004	89 4d fc	 mov	 DWORD PTR _this$[ebp], ecx

; 164  : 		nOrientation, nWeight, bItalic, bUnderline, cStrikeOut,
; 165  : 		nCharSet, nOutPrecision, nClipPrecision, nQuality,
; 166  : 		nPitchAndFamily, lpszFacename)); }

  00007	8b 45 3c	 mov	 eax, DWORD PTR _lpszFacename$[ebp]
  0000a	50		 push	 eax
  0000b	0f b6 4d 38	 movzx	 ecx, BYTE PTR _nPitchAndFamily$[ebp]
  0000f	51		 push	 ecx
  00010	0f b6 55 34	 movzx	 edx, BYTE PTR _nQuality$[ebp]
  00014	52		 push	 edx
  00015	0f b6 45 30	 movzx	 eax, BYTE PTR _nClipPrecision$[ebp]
  00019	50		 push	 eax
  0001a	0f b6 4d 2c	 movzx	 ecx, BYTE PTR _nOutPrecision$[ebp]
  0001e	51		 push	 ecx
  0001f	0f b6 55 28	 movzx	 edx, BYTE PTR _nCharSet$[ebp]
  00023	52		 push	 edx
  00024	0f b6 45 24	 movzx	 eax, BYTE PTR _cStrikeOut$[ebp]
  00028	50		 push	 eax
  00029	0f b6 4d 20	 movzx	 ecx, BYTE PTR _bUnderline$[ebp]
  0002d	51		 push	 ecx
  0002e	0f b6 55 1c	 movzx	 edx, BYTE PTR _bItalic$[ebp]
  00032	52		 push	 edx
  00033	8b 45 18	 mov	 eax, DWORD PTR _nWeight$[ebp]
  00036	50		 push	 eax
  00037	8b 4d 14	 mov	 ecx, DWORD PTR _nOrientation$[ebp]
  0003a	51		 push	 ecx
  0003b	8b 55 10	 mov	 edx, DWORD PTR _nEscapement$[ebp]
  0003e	52		 push	 edx
  0003f	8b 45 0c	 mov	 eax, DWORD PTR _nWidth$[ebp]
  00042	50		 push	 eax
  00043	8b 4d 08	 mov	 ecx, DWORD PTR _nHeight$[ebp]
  00046	51		 push	 ecx
  00047	ff 15 00 00 00
	00		 call	 DWORD PTR __imp__CreateFontA@56
  0004d	50		 push	 eax
  0004e	8b 4d fc	 mov	 ecx, DWORD PTR _this$[ebp]
  00051	e8 00 00 00 00	 call	 ?Attach@CGdiObject@@QAEHPAX@Z ; CGdiObject::Attach
  00056	8b e5		 mov	 esp, ebp
  00058	5d		 pop	 ebp
  00059	c2 38 00	 ret	 56			; 00000038H
?CreateFontA@CFont@@QAEHHHHHHEEEEEEEEPBD@Z ENDP		; CFont::CreateFontA
_TEXT	ENDS
EXTRN	__imp__SelectObject@8:NEAR
; Function compile flags: /Odt
;	COMDAT ?SelectObject@CDC@@QAEPAXPAX@Z
_TEXT	SEGMENT
tv69 = -8						; size = 4
_this$ = -4						; size = 4
_hObject$ = 8						; size = 4
?SelectObject@CDC@@QAEPAXPAX@Z PROC NEAR		; CDC::SelectObject, COMDAT
; _this$ = ecx

; 365  : 	{ ASSERT(m_hDC == m_hAttribDC); // ASSERT a simple CDC object

  00000	55		 push	 ebp
  00001	8b ec		 mov	 ebp, esp
  00003	83 ec 08	 sub	 esp, 8
  00006	89 4d fc	 mov	 DWORD PTR _this$[ebp], ecx

; 366  : 		return (hObject != NULL) ? ::SelectObject(m_hDC, hObject) : NULL; }

  00009	83 7d 08 00	 cmp	 DWORD PTR _hObject$[ebp], 0
  0000d	74 16		 je	 SHORT $L198191
  0000f	8b 45 08	 mov	 eax, DWORD PTR _hObject$[ebp]
  00012	50		 push	 eax
  00013	8b 4d fc	 mov	 ecx, DWORD PTR _this$[ebp]
  00016	8b 51 04	 mov	 edx, DWORD PTR [ecx+4]
  00019	52		 push	 edx
  0001a	ff 15 00 00 00
	00		 call	 DWORD PTR __imp__SelectObject@8
  00020	89 45 f8	 mov	 DWORD PTR tv69[ebp], eax
  00023	eb 07		 jmp	 SHORT $L198192
$L198191:
  00025	c7 45 f8 00 00
	00 00		 mov	 DWORD PTR tv69[ebp], 0
$L198192:
  0002c	8b 45 f8	 mov	 eax, DWORD PTR tv69[ebp]
  0002f	8b e5		 mov	 esp, ebp
  00031	5d		 pop	 ebp
  00032	c2 04 00	 ret	 4
?SelectObject@CDC@@QAEPAXPAX@Z ENDP			; CDC::SelectObject
_TEXT	ENDS
PUBLIC	?GetSafeHandle@CGdiObject@@QBEPAXXZ		; CGdiObject::GetSafeHandle
EXTRN	__imp__FillRect@12:NEAR
; Function compile flags: /Odt
;	COMDAT ?FillRect@CDC@@QAEXPBUtagRECT@@PAVCBrush@@@Z
_TEXT	SEGMENT
_this$ = -4						; size = 4
_lpRect$ = 8						; size = 4
_pBrush$ = 12						; size = 4
?FillRect@CDC@@QAEXPBUtagRECT@@PAVCBrush@@@Z PROC NEAR	; CDC::FillRect, COMDAT
; _this$ = ecx

; 472  : 	{ ASSERT(m_hDC != NULL); ::FillRect(m_hDC, lpRect, (HBRUSH)pBrush->GetSafeHandle()); }

  00000	55		 push	 ebp
  00001	8b ec		 mov	 ebp, esp
  00003	51		 push	 ecx
  00004	89 4d fc	 mov	 DWORD PTR _this$[ebp], ecx
  00007	8b 4d 0c	 mov	 ecx, DWORD PTR _pBrush$[ebp]
  0000a	e8 00 00 00 00	 call	 ?GetSafeHandle@CGdiObject@@QBEPAXXZ ; CGdiObject::GetSafeHandle
  0000f	50		 push	 eax
  00010	8b 45 08	 mov	 eax, DWORD PTR _lpRect$[ebp]
  00013	50		 push	 eax
  00014	8b 4d fc	 mov	 ecx, DWORD PTR _this$[ebp]
  00017	8b 51 04	 mov	 edx, DWORD PTR [ecx+4]
  0001a	52		 push	 edx
  0001b	ff 15 00 00 00
	00		 call	 DWORD PTR __imp__FillRect@12
  00021	8b e5		 mov	 esp, ebp
  00023	5d		 pop	 ebp
  00024	c2 08 00	 ret	 8
?FillRect@CDC@@QAEXPBUtagRECT@@PAVCBrush@@@Z ENDP	; CDC::FillRect
; Function compile flags: /Odt
_TEXT	ENDS
;	COMDAT ?GetSafeHandle@CGdiObject@@QBEPAXXZ
_TEXT	SEGMENT
tv66 = -8						; size = 4
_this$ = -4						; size = 4
?GetSafeHandle@CGdiObject@@QBEPAXXZ PROC NEAR		; CGdiObject::GetSafeHandle, COMDAT
; _this$ = ecx

; 80   : 	{ return this == NULL ? NULL : m_hObject; }

  00000	55		 push	 ebp
  00001	8b ec		 mov	 ebp, esp
  00003	83 ec 08	 sub	 esp, 8
  00006	89 4d fc	 mov	 DWORD PTR _this$[ebp], ecx
  00009	83 7d fc 00	 cmp	 DWORD PTR _this$[ebp], 0
  0000d	75 09		 jne	 SHORT $L198197
  0000f	c7 45 f8 00 00
	00 00		 mov	 DWORD PTR tv66[ebp], 0
  00016	eb 09		 jmp	 SHORT $L198198
$L198197:
  00018	8b 45 fc	 mov	 eax, DWORD PTR _this$[ebp]
  0001b	8b 48 04	 mov	 ecx, DWORD PTR [eax+4]
  0001e	89 4d f8	 mov	 DWORD PTR tv66[ebp], ecx
$L198198:
  00021	8b 45 f8	 mov	 eax, DWORD PTR tv66[ebp]
  00024	8b e5		 mov	 esp, ebp
  00026	5d		 pop	 ebp
  00027	c3		 ret	 0
?GetSafeHandle@CGdiObject@@QBEPAXXZ ENDP		; CGdiObject::GetSafeHandle
_TEXT	ENDS
EXTRN	__imp_??B?$CSimpleStringT@D$00@ATL@@QBEPBDXZ:NEAR
EXTRN	__imp_?GetLength@?$CSimpleStringT@D$00@ATL@@QBEHXZ:NEAR
; Function compile flags: /Odt
;	COMDAT ?DrawTextA@CDC@@QAEHABV?$CStringT@DV?$StrTraitMFC_DLL@DV?$ChTraitsCRT@D@ATL@@@@@ATL@@PAUtagRECT@@I@Z
_TEXT	SEGMENT
_this$ = -4						; size = 4
_str$ = 8						; size = 4
_lpRect$ = 12						; size = 4
_nFormat$ = 16						; size = 4
?DrawTextA@CDC@@QAEHABV?$CStringT@DV?$StrTraitMFC_DLL@DV?$ChTraitsCRT@D@ATL@@@@@ATL@@PAUtagRECT@@I@Z PROC NEAR ; CDC::DrawTextA, COMDAT
; _this$ = ecx

; 592  : 	{ ASSERT(m_hDC != NULL);

  00000	55		 push	 ebp
  00001	8b ec		 mov	 ebp, esp
  00003	51		 push	 ecx
  00004	89 4d fc	 mov	 DWORD PTR _this$[ebp], ecx

; 593  : 		// these flags would modify the string
; 594  : 		ASSERT((nFormat & (DT_END_ELLIPSIS | DT_MODIFYSTRING)) != (DT_END_ELLIPSIS | DT_MODIFYSTRING));
; 595  : 		ASSERT((nFormat & (DT_PATH_ELLIPSIS | DT_MODIFYSTRING)) != (DT_PATH_ELLIPSIS | DT_MODIFYSTRING));
; 596  : 		return DrawText((LPCTSTR)str, (int)str.GetLength(), lpRect, nFormat); }

  00007	8b 45 10	 mov	 eax, DWORD PTR _nFormat$[ebp]
  0000a	50		 push	 eax
  0000b	8b 4d 0c	 mov	 ecx, DWORD PTR _lpRect$[ebp]
  0000e	51		 push	 ecx
  0000f	8b 4d 08	 mov	 ecx, DWORD PTR _str$[ebp]
  00012	ff 15 00 00 00
	00		 call	 DWORD PTR __imp_?GetLength@?$CSimpleStringT@D$00@ATL@@QBEHXZ
  00018	50		 push	 eax
  00019	8b 4d 08	 mov	 ecx, DWORD PTR _str$[ebp]
  0001c	ff 15 00 00 00
	00		 call	 DWORD PTR __imp_??B?$CSimpleStringT@D$00@ATL@@QBEPBDXZ
  00022	50		 push	 eax
  00023	8b 55 fc	 mov	 edx, DWORD PTR _this$[ebp]
  00026	8b 02		 mov	 eax, DWORD PTR [edx]
  00028	8b 4d fc	 mov	 ecx, DWORD PTR _this$[ebp]
  0002b	ff 50 70	 call	 DWORD PTR [eax+112]
  0002e	8b e5		 mov	 esp, ebp
  00030	5d		 pop	 ebp
  00031	c2 0c 00	 ret	 12			; 0000000cH
?DrawTextA@CDC@@QAEHABV?$CStringT@DV?$StrTraitMFC_DLL@DV?$ChTraitsCRT@D@ATL@@@@@ATL@@PAUtagRECT@@I@Z ENDP ; CDC::DrawTextA
_TEXT	ENDS
EXTRN	__imp__GetClientRect@8:NEAR
; Function compile flags: /Odt
; File d:\program files (x86)\microsoft visual studio .net 2003\vc7\atlmfc\include\afxwin2.inl
;	COMDAT ?GetClientRect@CWnd@@QBEXPAUtagRECT@@@Z
_TEXT	SEGMENT
_this$ = -4						; size = 4
_lpRect$ = 8						; size = 4
?GetClientRect@CWnd@@QBEXPAUtagRECT@@@Z PROC NEAR	; CWnd::GetClientRect, COMDAT
; _this$ = ecx

; 107  : 	{ ASSERT(::IsWindow(m_hWnd)); ::GetClientRect(m_hWnd, lpRect); }

  00000	55		 push	 ebp
  00001	8b ec		 mov	 ebp, esp
  00003	51		 push	 ecx
  00004	89 4d fc	 mov	 DWORD PTR _this$[ebp], ecx
  00007	8b 45 08	 mov	 eax, DWORD PTR _lpRect$[ebp]
  0000a	50		 push	 eax
  0000b	8b 4d fc	 mov	 ecx, DWORD PTR _this$[ebp]
  0000e	8b 51 20	 mov	 edx, DWORD PTR [ecx+32]
  00011	52		 push	 edx
  00012	ff 15 00 00 00
	00		 call	 DWORD PTR __imp__GetClientRect@8
  00018	8b e5		 mov	 esp, ebp
  0001a	5d		 pop	 ebp
  0001b	c2 04 00	 ret	 4
?GetClientRect@CWnd@@QBEXPAUtagRECT@@@Z ENDP		; CWnd::GetClientRect
; Function compile flags: /Odt
_TEXT	ENDS
;	COMDAT ?DoDataExchange@CWnd@@MAEXPAVCDataExchange@@@Z
_TEXT	SEGMENT
_this$ = -4						; size = 4
___formal$ = 8						; size = 4
?DoDataExchange@CWnd@@MAEXPAVCDataExchange@@@Z PROC NEAR ; CWnd::DoDataExchange, COMDAT
; _this$ = ecx

; 545  : 	{ } // default does nothing

  00000	55		 push	 ebp
  00001	8b ec		 mov	 ebp, esp
  00003	51		 push	 ecx
  00004	89 4d fc	 mov	 DWORD PTR _this$[ebp], ecx
  00007	8b e5		 mov	 esp, ebp
  00009	5d		 pop	 ebp
  0000a	c2 04 00	 ret	 4
?DoDataExchange@CWnd@@MAEXPAVCDataExchange@@@Z ENDP	; CWnd::DoDataExchange
_TEXT	ENDS
EXTRN	__imp__EnableWindow@8:NEAR
; Function compile flags: /Odt
;	COMDAT ?BeginModalState@CWnd@@UAEXXZ
_TEXT	SEGMENT
_this$ = -4						; size = 4
?BeginModalState@CWnd@@UAEXXZ PROC NEAR			; CWnd::BeginModalState, COMDAT
; _this$ = ecx

; 549  : 	{ ::EnableWindow(m_hWnd, FALSE); }

  00000	55		 push	 ebp
  00001	8b ec		 mov	 ebp, esp
  00003	51		 push	 ecx
  00004	89 4d fc	 mov	 DWORD PTR _this$[ebp], ecx
  00007	6a 00		 push	 0
  00009	8b 45 fc	 mov	 eax, DWORD PTR _this$[ebp]
  0000c	8b 48 20	 mov	 ecx, DWORD PTR [eax+32]
  0000f	51		 push	 ecx
  00010	ff 15 00 00 00
	00		 call	 DWORD PTR __imp__EnableWindow@8
  00016	8b e5		 mov	 esp, ebp
  00018	5d		 pop	 ebp
  00019	c3		 ret	 0
?BeginModalState@CWnd@@UAEXXZ ENDP			; CWnd::BeginModalState
; Function compile flags: /Odt
_TEXT	ENDS
;	COMDAT ?EndModalState@CWnd@@UAEXXZ
_TEXT	SEGMENT
_this$ = -4						; size = 4
?EndModalState@CWnd@@UAEXXZ PROC NEAR			; CWnd::EndModalState, COMDAT
; _this$ = ecx

; 551  : 	{ ::EnableWindow(m_hWnd, TRUE); }

  00000	55		 push	 ebp
  00001	8b ec		 mov	 ebp, esp
  00003	51		 push	 ecx
  00004	89 4d fc	 mov	 DWORD PTR _this$[ebp], ecx
  00007	6a 01		 push	 1
  00009	8b 45 fc	 mov	 eax, DWORD PTR _this$[ebp]
  0000c	8b 48 20	 mov	 ecx, DWORD PTR [eax+32]
  0000f	51		 push	 ecx
  00010	ff 15 00 00 00
	00		 call	 DWORD PTR __imp__EnableWindow@8
  00016	8b e5		 mov	 esp, ebp
  00018	5d		 pop	 ebp
  00019	c3		 ret	 0
?EndModalState@CWnd@@UAEXXZ ENDP			; CWnd::EndModalState
_TEXT	ENDS
PUBLIC	??_7CStatic@@6B@				; CStatic::`vftable'
PUBLIC	??_GCStatic@@UAEPAXI@Z				; CStatic::`scalar deleting destructor'
PUBLIC	??_R4CStatic@@6B@				; CStatic::`RTTI Complete Object Locator'
PUBLIC	??_R3CStatic@@8					; CStatic::`RTTI Class Hierarchy Descriptor'
PUBLIC	??_R2CStatic@@8					; CStatic::`RTTI Base Class Array'
EXTRN	?GetMessageMap@CWnd@@MBEPBUAFX_MSGMAP@@XZ:NEAR	; CWnd::GetMessageMap
EXTRN	??_ECStatic@@UAEPAXI@Z:NEAR			; CStatic::`vector deleting destructor'
EXTRN	??0CWnd@@QAE@XZ:NEAR				; CWnd::CWnd
;	COMDAT ??_7CStatic@@6B@
CONST	SEGMENT
??_7CStatic@@6B@ DD FLAT:??_R4CStatic@@6B@		; CStatic::`vftable'
	DD	FLAT:?GetRuntimeClass@CStatic@@UBEPAUCRuntimeClass@@XZ
	DD	FLAT:??_ECStatic@@UAEPAXI@Z
	DD	FLAT:?Serialize@CObject@@UAEXAAVCArchive@@@Z
	DD	FLAT:?AssertValid@CObject@@UBEXXZ
	DD	FLAT:?Dump@CObject@@UBEXAAVCDumpContext@@@Z
	DD	FLAT:?OnCmdMsg@CCmdTarget@@UAEHIHPAXPAUAFX_CMDHANDLERINFO@@@Z
	DD	FLAT:?OnFinalRelease@CWnd@@UAEXXZ
	DD	FLAT:?IsInvokeAllowed@CCmdTarget@@UAEHJ@Z
	DD	FLAT:?GetDispatchIID@CCmdTarget@@UAEHPAU_GUID@@@Z
	DD	FLAT:?GetTypeInfoCount@CCmdTarget@@UAEIXZ
	DD	FLAT:?GetTypeLibCache@CCmdTarget@@UAEPAVCTypeLibCache@@XZ
	DD	FLAT:?GetTypeLib@CCmdTarget@@UAEJKPAPAUITypeLib@@@Z
	DD	FLAT:?GetMessageMap@CWnd@@MBEPBUAFX_MSGMAP@@XZ
	DD	FLAT:?GetCommandMap@CCmdTarget@@MBEPBUAFX_OLECMDMAP@@XZ
	DD	FLAT:?GetDispatchMap@CCmdTarget@@MBEPBUAFX_DISPMAP@@XZ
	DD	FLAT:?GetConnectionMap@CCmdTarget@@MBEPBUAFX_CONNECTIONMAP@@XZ
	DD	FLAT:?GetInterfaceMap@CWnd@@MBEPBUAFX_INTERFACEMAP@@XZ
	DD	FLAT:?GetEventSinkMap@CCmdTarget@@MBEPBUAFX_EVENTSINKMAP@@XZ
	DD	FLAT:?OnCreateAggregates@CCmdTarget@@UAEHXZ
	DD	FLAT:?GetInterfaceHook@CCmdTarget@@UAEPAUIUnknown@@PBX@Z
	DD	FLAT:?GetExtraConnectionPoints@CCmdTarget@@MAEHPAVCPtrArray@@@Z
	DD	FLAT:?GetConnectionHook@CCmdTarget@@MAEPAUIConnectionPoint@@ABU_GUID@@@Z
	DD	FLAT:?PreSubclassWindow@CWnd@@UAEXXZ
	DD	FLAT:?Create@CWnd@@UAEHPBD0KABUtagRECT@@PAV1@IPAUCCreateContext@@@Z
	DD	FLAT:?CreateEx@CWnd@@UAEHKPBD0KABUtagRECT@@PAV1@IPAX@Z
	DD	FLAT:?CreateEx@CWnd@@UAEHKPBD0KHHHHPAUHWND__@@PAUHMENU__@@PAX@Z
	DD	FLAT:?DestroyWindow@CWnd@@UAEHXZ
	DD	FLAT:?PreCreateWindow@CWnd@@UAEHAAUtagCREATESTRUCTA@@@Z
	DD	FLAT:?CalcWindowRect@CWnd@@UAEXPAUtagRECT@@I@Z
	DD	FLAT:?OnToolHitTest@CWnd@@UBEHVCPoint@@PAUtagTOOLINFOA@@@Z
	DD	FLAT:?GetScrollBarCtrl@CWnd@@UBEPAVCScrollBar@@H@Z
	DD	FLAT:?WinHelpA@CWnd@@UAEXKI@Z
	DD	FLAT:?HtmlHelpA@CWnd@@UAEXKI@Z
	DD	FLAT:?WinHelpInternal@CWnd@@UAEXKI@Z
	DD	FLAT:?ContinueModal@CWnd@@UAEHXZ
	DD	FLAT:?EndModalLoop@CWnd@@UAEXH@Z
	DD	FLAT:?EnsureStdObj@CWnd@@UAEJXZ
	DD	FLAT:?get_accParent@CWnd@@UAEJPAPAUIDispatch@@@Z
	DD	FLAT:?get_accChildCount@CWnd@@UAEJPAJ@Z
	DD	FLAT:?get_accChild@CWnd@@UAEJUtagVARIANT@@PAPAUIDispatch@@@Z
	DD	FLAT:?get_accName@CWnd@@UAEJUtagVARIANT@@PAPA_W@Z
	DD	FLAT:?get_accValue@CWnd@@UAEJUtagVARIANT@@PAPA_W@Z
	DD	FLAT:?get_accDescription@CWnd@@UAEJUtagVARIANT@@PAPA_W@Z
	DD	FLAT:?get_accRole@CWnd@@UAEJUtagVARIANT@@PAU2@@Z
	DD	FLAT:?get_accState@CWnd@@UAEJUtagVARIANT@@PAU2@@Z
	DD	FLAT:?get_accHelp@CWnd@@UAEJUtagVARIANT@@PAPA_W@Z
	DD	FLAT:?get_accHelpTopic@CWnd@@UAEJPAPA_WUtagVARIANT@@PAJ@Z
	DD	FLAT:?get_accKeyboardShortcut@CWnd@@UAEJUtagVARIANT@@PAPA_W@Z
	DD	FLAT:?get_accFocus@CWnd@@UAEJPAUtagVARIANT@@@Z
	DD	FLAT:?get_accSelection@CWnd@@UAEJPAUtagVARIANT@@@Z
	DD	FLAT:?get_accDefaultAction@CWnd@@UAEJUtagVARIANT@@PAPA_W@Z
	DD	FLAT:?accSelect@CWnd@@UAEJJUtagVARIANT@@@Z
	DD	FLAT:?accLocation@CWnd@@UAEJPAJ000UtagVARIANT@@@Z
	DD	FLAT:?accNavigate@CWnd@@UAEJJUtagVARIANT@@PAU2@@Z
	DD	FLAT:?accHitTest@CWnd@@UAEJJJPAUtagVARIANT@@@Z
	DD	FLAT:?accDoDefaultAction@CWnd@@UAEJUtagVARIANT@@@Z
	DD	FLAT:?put_accName@CWnd@@UAEJUtagVARIANT@@PA_W@Z
	DD	FLAT:?put_accValue@CWnd@@UAEJUtagVARIANT@@PA_W@Z
	DD	FLAT:?SetProxy@CWnd@@UAEJPAUIAccessibleProxy@@@Z
	DD	FLAT:?CreateAccessibleProxy@CWnd@@UAEJIJPAJ@Z
	DD	FLAT:?OnCommand@CWnd@@MAEHIJ@Z
	DD	FLAT:?OnNotify@CWnd@@MAEHIJPAJ@Z
	DD	FLAT:?GetSuperWndProcAddr@CWnd@@MAEPAP6GJPAUHWND__@@IIJ@ZXZ
	DD	FLAT:?DoDataExchange@CWnd@@MAEXPAVCDataExchange@@@Z
	DD	FLAT:?BeginModalState@CWnd@@UAEXXZ
	DD	FLAT:?EndModalState@CWnd@@UAEXXZ
	DD	FLAT:?PreTranslateMessage@CWnd@@UAEHPAUtagMSG@@@Z
	DD	FLAT:?OnAmbientProperty@CWnd@@UAEHPAVCOleControlSite@@JPAUtagVARIANT@@@Z
	DD	FLAT:?WindowProc@CWnd@@MAEJIIJ@Z
	DD	FLAT:?OnWndMsg@CWnd@@MAEHIIJPAJ@Z
	DD	FLAT:?DefWindowProcA@CWnd@@MAEJIIJ@Z
	DD	FLAT:?PostNcDestroy@CWnd@@MAEXXZ
	DD	FLAT:?OnChildNotify@CStatic@@MAEHIIJPAJ@Z
	DD	FLAT:?CheckAutoCenter@CWnd@@UAEHXZ
	DD	FLAT:?IsFrameWnd@CWnd@@UBEHXZ
	DD	FLAT:?CreateControlContainer@CWnd@@MAEHPAPAVCOleControlContainer@@@Z
	DD	FLAT:?CreateControlSite@CWnd@@MAEHPAVCOleControlContainer@@PAPAVCOleControlSite@@IABU_GUID@@@Z
	DD	FLAT:?SetOccDialogInfo@CWnd@@MAEHPAU_AFX_OCC_DIALOG_INFO@@@Z
	DD	FLAT:?Create@CStatic@@UAEHPBDKABUtagRECT@@PAVCWnd@@I@Z
	DD	FLAT:?DrawItem@CStatic@@UAEXPAUtagDRAWITEMSTRUCT@@@Z
CONST	ENDS
;	COMDAT ??_R4CStatic@@6B@
rdata$r	SEGMENT
??_R4CStatic@@6B@ DD 00H				; CStatic::`RTTI Complete Object Locator'
	DD	00H
	DD	00H
	DD	FLAT:??_R0?AVCStatic@@@8
	DD	FLAT:??_R3CStatic@@8
rdata$r	ENDS
;	COMDAT ??_R3CStatic@@8
rdata$r	SEGMENT
??_R3CStatic@@8 DD 00H					; CStatic::`RTTI Class Hierarchy Descriptor'
	DD	00H
	DD	04H
	DD	FLAT:??_R2CStatic@@8
rdata$r	ENDS
;	COMDAT ??_R2CStatic@@8
rdata$r	SEGMENT
??_R2CStatic@@8 DD FLAT:??_R1A@?0A@A@CStatic@@8		; CStatic::`RTTI Base Class Array'
	DD	FLAT:??_R1A@?0A@A@CWnd@@8
	DD	FLAT:??_R1A@?0A@A@CCmdTarget@@8
	DD	FLAT:??_R1A@?0A@A@CObject@@8
; Function compile flags: /Odt
rdata$r	ENDS
;	COMDAT ??0CStatic@@QAE@XZ
_TEXT	SEGMENT
_this$ = -4						; size = 4
??0CStatic@@QAE@XZ PROC NEAR				; CStatic::CStatic, COMDAT
; _this$ = ecx

; 588  : 	{ }

  00000	55		 push	 ebp
  00001	8b ec		 mov	 ebp, esp
  00003	51		 push	 ecx
  00004	89 4d fc	 mov	 DWORD PTR _this$[ebp], ecx
  00007	8b 4d fc	 mov	 ecx, DWORD PTR _this$[ebp]
  0000a	e8 00 00 00 00	 call	 ??0CWnd@@QAE@XZ		; CWnd::CWnd
  0000f	8b 45 fc	 mov	 eax, DWORD PTR _this$[ebp]
  00012	c7 00 00 00 00
	00		 mov	 DWORD PTR [eax], OFFSET FLAT:??_7CStatic@@6B@
  00018	8b 45 fc	 mov	 eax, DWORD PTR _this$[ebp]
  0001b	8b e5		 mov	 esp, ebp
  0001d	5d		 pop	 ebp
  0001e	c3		 ret	 0
??0CStatic@@QAE@XZ ENDP					; CStatic::CStatic
; Function compile flags: /Odt
_TEXT	ENDS
;	COMDAT ??_GCStatic@@UAEPAXI@Z
_TEXT	SEGMENT
_this$ = -4						; size = 4
___flags$ = 8						; size = 4
??_GCStatic@@UAEPAXI@Z PROC NEAR			; CStatic::`scalar deleting destructor', COMDAT
; _this$ = ecx
  00000	55		 push	 ebp
  00001	8b ec		 mov	 ebp, esp
  00003	51		 push	 ecx
  00004	89 4d fc	 mov	 DWORD PTR _this$[ebp], ecx
  00007	8b 4d fc	 mov	 ecx, DWORD PTR _this$[ebp]
  0000a	e8 00 00 00 00	 call	 ??1CStatic@@UAE@XZ	; CStatic::~CStatic
  0000f	8b 45 08	 mov	 eax, DWORD PTR ___flags$[ebp]
  00012	83 e0 01	 and	 eax, 1
  00015	74 09		 je	 SHORT $L44524
  00017	8b 4d fc	 mov	 ecx, DWORD PTR _this$[ebp]
  0001a	51		 push	 ecx
  0001b	e8 00 00 00 00	 call	 ??3CObject@@SGXPAX@Z	; CObject::operator delete
$L44524:
  00020	8b 45 fc	 mov	 eax, DWORD PTR _this$[ebp]
  00023	8b e5		 mov	 esp, ebp
  00025	5d		 pop	 ebp
  00026	c2 04 00	 ret	 4
??_GCStatic@@UAEPAXI@Z ENDP				; CStatic::`scalar deleting destructor'
_TEXT	ENDS
END
