; Listing generated by Microsoft (R) Optimizing Compiler Version 13.10.3077 

	TITLE	.\src\LayoutMgr\ChangeColor\SubSkinButton.cpp
	.386P
include listing.inc
if @Version gt 510
.model FLAT
else
_TEXT	SEGMENT PARA USE32 PUBLIC 'CODE'
_TEXT	ENDS
_DATA	SEGMENT DWORD USE32 PUBLIC 'DATA'
_DATA	ENDS
CONST	SEGMENT DWORD USE32 PUBLIC 'CONST'
CONST	ENDS
_BSS	SEGMENT DWORD USE32 PUBLIC 'BSS'
_BSS	ENDS
$$SYMBOLS	SEGMENT BYTE USE32 'DEBSYM'
$$SYMBOLS	ENDS
$$TYPES	SEGMENT BYTE USE32 'DEBTYP'
$$TYPES	ENDS
_TLS	SEGMENT DWORD USE32 PUBLIC 'TLS'
_TLS	ENDS
rdata$r	SEGMENT DWORD USE32 PUBLIC 'CONST'
rdata$r	ENDS
xdata$x	SEGMENT DWORD USE32 PUBLIC 'CONST'
xdata$x	ENDS
text$AFX_COL1	SEGMENT PARA USE32 PUBLIC ''
text$AFX_COL1	ENDS
text$yc	SEGMENT PARA USE32 PUBLIC 'CODE'
text$yc	ENDS
CRT$XCA	SEGMENT DWORD USE32 PUBLIC 'DATA'
CRT$XCA	ENDS
CRT$XCU	SEGMENT DWORD USE32 PUBLIC 'DATA'
CRT$XCU	ENDS
CRT$XCL	SEGMENT DWORD USE32 PUBLIC 'DATA'
CRT$XCL	ENDS
CRT$XCC	SEGMENT DWORD USE32 PUBLIC 'DATA'
CRT$XCC	ENDS
CRT$XCZ	SEGMENT DWORD USE32 PUBLIC 'DATA'
CRT$XCZ	ENDS
text$yd	SEGMENT PARA USE32 PUBLIC 'CODE'
text$yd	ENDS
ATL$__m	SEGMENT DWORD USE32 PUBLIC ''
ATL$__m	ENDS
ATL$__z	SEGMENT DWORD USE32 PUBLIC ''
ATL$__z	ENDS
ATL$__a	SEGMENT DWORD USE32 PUBLIC ''
ATL$__a	ENDS
;	COMDAT ??0CGdiPlusBitmap@CSkinButton@@QAE@XZ
_TEXT	SEGMENT PARA USE32 PUBLIC 'CODE'
_TEXT	ENDS
;	COMDAT ??1CGdiPlusBitmap@CSkinButton@@UAE@XZ
_TEXT	SEGMENT PARA USE32 PUBLIC 'CODE'
_TEXT	ENDS
;	COMDAT ?Empty@CGdiPlusBitmap@CSkinButton@@QAEXXZ
_TEXT	SEGMENT PARA USE32 PUBLIC 'CODE'
_TEXT	ENDS
;	COMDAT ?Load@CGdiPlusBitmap@CSkinButton@@QAE_NPB_W@Z
_TEXT	SEGMENT PARA USE32 PUBLIC 'CODE'
_TEXT	ENDS
;	COMDAT ??BCGdiPlusBitmap@CSkinButton@@QBEPAVBitmap@Gdiplus@@XZ
_TEXT	SEGMENT PARA USE32 PUBLIC 'CODE'
_TEXT	ENDS
;	COMDAT ?GetText@CSkinButton@@QBE?AV?$CStringT@DV?$StrTraitMFC_DLL@DV?$ChTraitsCRT@D@ATL@@@@@ATL@@XZ
_TEXT	SEGMENT PARA USE32 PUBLIC 'CODE'
_TEXT	ENDS
;	COMDAT ??_GCGdiPlusBitmap@CSkinButton@@UAEPAXI@Z
_TEXT	SEGMENT PARA USE32 PUBLIC 'CODE'
_TEXT	ENDS
;	COMDAT ??0BaseColor@@QAE@XZ
_TEXT	SEGMENT PARA USE32 PUBLIC 'CODE'
_TEXT	ENDS
;	COMDAT ??1BaseColor@@QAE@XZ
_TEXT	SEGMENT PARA USE32 PUBLIC 'CODE'
_TEXT	ENDS
;	COMDAT ??_GBaseColor@@QAEPAXI@Z
_TEXT	SEGMENT PARA USE32 PUBLIC 'CODE'
_TEXT	ENDS
;	COMDAT ??1CGdiPlusBitmap@@UAE@XZ
_TEXT	SEGMENT PARA USE32 PUBLIC 'CODE'
_TEXT	ENDS
;	COMDAT ?Empty@CGdiPlusBitmap@@QAEXXZ
_TEXT	SEGMENT PARA USE32 PUBLIC 'CODE'
_TEXT	ENDS
;	COMDAT ?Load@CGdiPlusBitmap@@QAE_NPB_W@Z
_TEXT	SEGMENT PARA USE32 PUBLIC 'CODE'
_TEXT	ENDS
;	COMDAT ??_GCGdiPlusBitmap@@UAEPAXI@Z
_TEXT	SEGMENT PARA USE32 PUBLIC 'CODE'
_TEXT	ENDS
;	COMDAT ??1BCMenuMemDC@@UAE@XZ
_TEXT	SEGMENT PARA USE32 PUBLIC 'CODE'
_TEXT	ENDS
;	COMDAT ??_GBCMenuMemDC@@UAEPAXI@Z
_TEXT	SEGMENT PARA USE32 PUBLIC 'CODE'
_TEXT	ENDS
;	COMDAT ??_GCSubSkinButton@@UAEPAXI@Z
_TEXT	SEGMENT PARA USE32 PUBLIC 'CODE'
_TEXT	ENDS
;	COMDAT ??HATL@@YA?AV?$CStringT@DV?$StrTraitMFC_DLL@DV?$ChTraitsCRT@D@ATL@@@@@0@ABV10@PBD@Z
_TEXT	SEGMENT PARA USE32 PUBLIC 'CODE'
_TEXT	ENDS
;	COMDAT ??HATL@@YA?AV?$CStringT@DV?$StrTraitMFC_DLL@DV?$ChTraitsCRT@D@ATL@@@@@0@PBDABV10@@Z
_TEXT	SEGMENT PARA USE32 PUBLIC 'CODE'
_TEXT	ENDS
;	COMDAT ??8ATL@@YA_NABV?$CStringT@DV?$StrTraitMFC_DLL@DV?$ChTraitsCRT@D@ATL@@@@@0@PBD@Z
_TEXT	SEGMENT PARA USE32 PUBLIC 'CODE'
_TEXT	ENDS
;	COMDAT ??9ATL@@YA_NABV?$CStringT@DV?$StrTraitMFC_DLL@DV?$ChTraitsCRT@D@ATL@@@@@0@PBD@Z
_TEXT	SEGMENT PARA USE32 PUBLIC 'CODE'
_TEXT	ENDS
;	COMDAT ??B?$CComPtrBase@UITypeInfo2@@@ATL@@QBEPAUITypeInfo2@@XZ
_TEXT	SEGMENT PARA USE32 PUBLIC 'CODE'
_TEXT	ENDS
;	COMDAT ?equal@?$istreambuf_iterator@DU?$char_traits@D@std@@@std@@QBE_NABV12@@Z
_TEXT	SEGMENT PARA USE32 PUBLIC 'CODE'
_TEXT	ENDS
;	COMDAT ?equal@?$istreambuf_iterator@_WU?$char_traits@_W@std@@@std@@QBE_NABV12@@Z
_TEXT	SEGMENT PARA USE32 PUBLIC 'CODE'
_TEXT	ENDS
;	COMDAT ?CharNextA@?$ChTraitsCRT@D@ATL@@SAPADPBD@Z
_TEXT	SEGMENT PARA USE32 PUBLIC 'CODE'
_TEXT	ENDS
;	COMDAT ?IsSpace@?$ChTraitsCRT@D@ATL@@SAHD@Z
_TEXT	SEGMENT PARA USE32 PUBLIC 'CODE'
_TEXT	ENDS
;	COMDAT ?StringCompare@?$ChTraitsCRT@D@ATL@@SAHPBD0@Z
_TEXT	SEGMENT PARA USE32 PUBLIC 'CODE'
_TEXT	ENDS
;	COMDAT ?Unlock@?$CComCritSecLock@VCComCriticalSection@ATL@@@ATL@@QAEXXZ
_TEXT	SEGMENT PARA USE32 PUBLIC 'CODE'
_TEXT	ENDS
;	COMDAT ??1?$CArray@HAAH@@UAE@XZ
_TEXT	SEGMENT PARA USE32 PUBLIC 'CODE'
_TEXT	ENDS
;	COMDAT ?Serialize@?$CArray@HAAH@@UAEXAAVCArchive@@@Z
_TEXT	SEGMENT PARA USE32 PUBLIC 'CODE'
_TEXT	ENDS
;	COMDAT ??$_Maklocstr@D@std@@YAPADPBDPADABU_Cvtvec@@@Z
_TEXT	SEGMENT PARA USE32 PUBLIC 'CODE'
_TEXT	ENDS
;	COMDAT ??_G?$CArray@HAAH@@UAEPAXI@Z
_TEXT	SEGMENT PARA USE32 PUBLIC 'CODE'
_TEXT	ENDS
;	COMDAT ?SetSize@?$CArray@HAAH@@QAEXHH@Z
_TEXT	SEGMENT PARA USE32 PUBLIC 'CODE'
_TEXT	ENDS
;	COMDAT ??$SerializeElements@H@@YGXAAVCArchive@@PAHH@Z
_TEXT	SEGMENT PARA USE32 PUBLIC 'CODE'
_TEXT	ENDS
;	COMDAT ??_R3CGdiPlusBitmap@@8
rdata$r	SEGMENT DWORD USE32 PUBLIC 'CONST'
rdata$r	ENDS
;	COMDAT ??_R3?$CArray@HAAH@@8
rdata$r	SEGMENT DWORD USE32 PUBLIC 'CONST'
rdata$r	ENDS
;	COMDAT ??_R3BCMenuMemDC@@8
rdata$r	SEGMENT DWORD USE32 PUBLIC 'CONST'
rdata$r	ENDS
;	COMDAT ??_R3CGdiPlusBitmap@CSkinButton@@8
rdata$r	SEGMENT DWORD USE32 PUBLIC 'CONST'
rdata$r	ENDS
;	COMDAT ??_R3CSubSkinButton@@8
rdata$r	SEGMENT DWORD USE32 PUBLIC 'CONST'
rdata$r	ENDS
;	COMDAT ??_R3?$numpunct@_W@std@@8
rdata$r	SEGMENT DWORD USE32 PUBLIC 'CONST'
rdata$r	ENDS
;	COMDAT ??_R3?$numpunct@D@std@@8
rdata$r	SEGMENT DWORD USE32 PUBLIC 'CONST'
rdata$r	ENDS
;	COMDAT ??_R2CGdiPlusBitmap@@8
rdata$r	SEGMENT DWORD USE32 PUBLIC 'CONST'
rdata$r	ENDS
;	COMDAT ??_R2?$CArray@HAAH@@8
rdata$r	SEGMENT DWORD USE32 PUBLIC 'CONST'
rdata$r	ENDS
;	COMDAT ??_R2BCMenuMemDC@@8
rdata$r	SEGMENT DWORD USE32 PUBLIC 'CONST'
rdata$r	ENDS
;	COMDAT ??_R2CGdiPlusBitmap@CSkinButton@@8
rdata$r	SEGMENT DWORD USE32 PUBLIC 'CONST'
rdata$r	ENDS
;	COMDAT ??_R2CSubSkinButton@@8
rdata$r	SEGMENT DWORD USE32 PUBLIC 'CONST'
rdata$r	ENDS
;	COMDAT ??_R2?$numpunct@_W@std@@8
rdata$r	SEGMENT DWORD USE32 PUBLIC 'CONST'
rdata$r	ENDS
;	COMDAT ??_R2?$numpunct@D@std@@8
rdata$r	SEGMENT DWORD USE32 PUBLIC 'CONST'
rdata$r	ENDS
;	COMDAT ??_R1A@?0A@A@CGdiPlusBitmap@@8
rdata$r	SEGMENT DWORD USE32 PUBLIC 'CONST'
rdata$r	ENDS
;	COMDAT ??_R1A@?0A@A@?$CArray@HAAH@@8
rdata$r	SEGMENT DWORD USE32 PUBLIC 'CONST'
rdata$r	ENDS
;	COMDAT ??_R1A@?0A@A@CDC@@8
rdata$r	SEGMENT DWORD USE32 PUBLIC 'CONST'
rdata$r	ENDS
;	COMDAT ??_R0?AVCDC@@@8
_DATA	SEGMENT DWORD USE32 PUBLIC 'DATA'
_DATA	ENDS
;	COMDAT ??_R1A@?0A@A@BCMenuMemDC@@8
rdata$r	SEGMENT DWORD USE32 PUBLIC 'CONST'
rdata$r	ENDS
;	COMDAT ??_R1A@?0A@A@CGdiPlusBitmap@CSkinButton@@8
rdata$r	SEGMENT DWORD USE32 PUBLIC 'CONST'
rdata$r	ENDS
;	COMDAT ??_R1A@?0A@A@CObject@@8
rdata$r	SEGMENT DWORD USE32 PUBLIC 'CONST'
rdata$r	ENDS
;	COMDAT ??_R0?AVCObject@@@8
_DATA	SEGMENT DWORD USE32 PUBLIC 'DATA'
_DATA	ENDS
;	COMDAT ??_R1A@?0A@A@CCmdTarget@@8
rdata$r	SEGMENT DWORD USE32 PUBLIC 'CONST'
rdata$r	ENDS
;	COMDAT ??_R0?AVCCmdTarget@@@8
_DATA	SEGMENT DWORD USE32 PUBLIC 'DATA'
_DATA	ENDS
;	COMDAT ??_R1A@?0A@A@CWnd@@8
rdata$r	SEGMENT DWORD USE32 PUBLIC 'CONST'
rdata$r	ENDS
;	COMDAT ??_R0?AVCWnd@@@8
_DATA	SEGMENT DWORD USE32 PUBLIC 'DATA'
_DATA	ENDS
;	COMDAT ??_R1A@?0A@A@CButton@@8
rdata$r	SEGMENT DWORD USE32 PUBLIC 'CONST'
rdata$r	ENDS
;	COMDAT ??_R0?AVCButton@@@8
_DATA	SEGMENT DWORD USE32 PUBLIC 'DATA'
_DATA	ENDS
;	COMDAT ??_R1A@?0A@A@CSkinButton@@8
rdata$r	SEGMENT DWORD USE32 PUBLIC 'CONST'
rdata$r	ENDS
;	COMDAT ??_R1A@?0A@A@CSubSkinButton@@8
rdata$r	SEGMENT DWORD USE32 PUBLIC 'CONST'
rdata$r	ENDS
;	COMDAT ??_R1A@?0A@A@?$numpunct@_W@std@@8
rdata$r	SEGMENT DWORD USE32 PUBLIC 'CONST'
rdata$r	ENDS
;	COMDAT ??_R1A@?0A@A@facet@locale@std@@8
rdata$r	SEGMENT DWORD USE32 PUBLIC 'CONST'
rdata$r	ENDS
;	COMDAT ??_R0?AVfacet@locale@std@@@8
_DATA	SEGMENT DWORD USE32 PUBLIC 'DATA'
_DATA	ENDS
;	COMDAT ??_R1A@?0A@A@?$numpunct@D@std@@8
rdata$r	SEGMENT DWORD USE32 PUBLIC 'CONST'
rdata$r	ENDS
;	COMDAT ??_R0?AVCGdiPlusBitmap@@@8
_DATA	SEGMENT DWORD USE32 PUBLIC 'DATA'
_DATA	ENDS
;	COMDAT ??_R0?AV?$CArray@HAAH@@@8
_DATA	SEGMENT DWORD USE32 PUBLIC 'DATA'
_DATA	ENDS
;	COMDAT ??_R0?AVBCMenuMemDC@@@8
_DATA	SEGMENT DWORD USE32 PUBLIC 'DATA'
_DATA	ENDS
;	COMDAT ??_R0?AVCGdiPlusBitmap@CSkinButton@@@8
_DATA	SEGMENT DWORD USE32 PUBLIC 'DATA'
_DATA	ENDS
;	COMDAT ??_R0?AVCSkinButton@@@8
_DATA	SEGMENT DWORD USE32 PUBLIC 'DATA'
_DATA	ENDS
;	COMDAT ??_R0?AVCSubSkinButton@@@8
_DATA	SEGMENT DWORD USE32 PUBLIC 'DATA'
_DATA	ENDS
;	COMDAT ??_R0?AV?$numpunct@_W@std@@@8
_DATA	SEGMENT DWORD USE32 PUBLIC 'DATA'
_DATA	ENDS
;	COMDAT ??_R0?AV?$numpunct@D@std@@@8
_DATA	SEGMENT DWORD USE32 PUBLIC 'DATA'
_DATA	ENDS
;	COMDAT ??_R4CGdiPlusBitmap@@6B@
rdata$r	SEGMENT DWORD USE32 PUBLIC 'CONST'
rdata$r	ENDS
;	COMDAT ??_R4?$CArray@HAAH@@6B@
rdata$r	SEGMENT DWORD USE32 PUBLIC 'CONST'
rdata$r	ENDS
;	COMDAT ?Escape@CDC@@UAEHHHPBDPAX@Z
_TEXT	SEGMENT PARA USE32 PUBLIC 'CODE'
_TEXT	ENDS
;	COMDAT ?GrayStringA@CDC@@UAEHPAVCBrush@@P6GHPAUHDC__@@JH@ZJHHHHH@Z
_TEXT	SEGMENT PARA USE32 PUBLIC 'CODE'
_TEXT	ENDS
;	COMDAT ?GetSafeHandle@CGdiObject@@QBEPAXXZ
_TEXT	SEGMENT PARA USE32 PUBLIC 'CODE'
_TEXT	ENDS
;	COMDAT ?DrawTextExA@CDC@@UAEHPADHPAUtagRECT@@IPAUtagDRAWTEXTPARAMS@@@Z
_TEXT	SEGMENT PARA USE32 PUBLIC 'CODE'
_TEXT	ENDS
;	COMDAT ?DrawTextA@CDC@@UAEHPBDHPAUtagRECT@@I@Z
_TEXT	SEGMENT PARA USE32 PUBLIC 'CODE'
_TEXT	ENDS
;	COMDAT ?TabbedTextOutA@CDC@@UAE?AVCSize@@HHPBDHHPAHH@Z
_TEXT	SEGMENT PARA USE32 PUBLIC 'CODE'
_TEXT	ENDS
;	COMDAT ??0CSize@@QAE@K@Z
_TEXT	SEGMENT PARA USE32 PUBLIC 'CODE'
_TEXT	ENDS
;	COMDAT ?ExtTextOutA@CDC@@UAEHHHIPBUtagRECT@@PBDIPAH@Z
_TEXT	SEGMENT PARA USE32 PUBLIC 'CODE'
_TEXT	ENDS
;	COMDAT ?TextOutA@CDC@@UAEHHHPBDH@Z
_TEXT	SEGMENT PARA USE32 PUBLIC 'CODE'
_TEXT	ENDS
;	COMDAT ?RectVisible@CDC@@UBEHPBUtagRECT@@@Z
_TEXT	SEGMENT PARA USE32 PUBLIC 'CODE'
_TEXT	ENDS
;	COMDAT ?PtVisible@CDC@@UBEHHH@Z
_TEXT	SEGMENT PARA USE32 PUBLIC 'CODE'
_TEXT	ENDS
;	COMDAT ??_R4BCMenuMemDC@@6B@
rdata$r	SEGMENT DWORD USE32 PUBLIC 'CONST'
rdata$r	ENDS
;	COMDAT ??_R4CGdiPlusBitmap@CSkinButton@@6B@
rdata$r	SEGMENT DWORD USE32 PUBLIC 'CONST'
rdata$r	ENDS
;	COMDAT ?EndModalState@CWnd@@UAEXXZ
_TEXT	SEGMENT PARA USE32 PUBLIC 'CODE'
_TEXT	ENDS
;	COMDAT ?BeginModalState@CWnd@@UAEXXZ
_TEXT	SEGMENT PARA USE32 PUBLIC 'CODE'
_TEXT	ENDS
;	COMDAT ?DoDataExchange@CWnd@@MAEXPAVCDataExchange@@@Z
_TEXT	SEGMENT PARA USE32 PUBLIC 'CODE'
_TEXT	ENDS
;	COMDAT ?Dump@CObject@@UBEXAAVCDumpContext@@@Z
_TEXT	SEGMENT PARA USE32 PUBLIC 'CODE'
_TEXT	ENDS
;	COMDAT ?AssertValid@CObject@@UBEXXZ
_TEXT	SEGMENT PARA USE32 PUBLIC 'CODE'
_TEXT	ENDS
;	COMDAT ??_R4CSubSkinButton@@6B@
rdata$r	SEGMENT DWORD USE32 PUBLIC 'CONST'
rdata$r	ENDS
;	COMDAT ??0?$allocator@_W@std@@QAE@XZ
_TEXT	SEGMENT PARA USE32 PUBLIC 'CODE'
_TEXT	ENDS
;	COMDAT ??_G?$numpunct@_W@std@@MAEPAXI@Z
_TEXT	SEGMENT PARA USE32 PUBLIC 'CODE'
_TEXT	ENDS
;	COMDAT ??_R4?$numpunct@_W@std@@6B@
rdata$r	SEGMENT DWORD USE32 PUBLIC 'CONST'
rdata$r	ENDS
;	COMDAT ??_G?$numpunct@D@std@@MAEPAXI@Z
_TEXT	SEGMENT PARA USE32 PUBLIC 'CODE'
_TEXT	ENDS
;	COMDAT ??_R4?$numpunct@D@std@@6B@
rdata$r	SEGMENT DWORD USE32 PUBLIC 'CONST'
rdata$r	ENDS
;	COMDAT ??2@YAPAXIPAX@Z
_TEXT	SEGMENT PARA USE32 PUBLIC 'CODE'
_TEXT	ENDS
;	COMDAT ?IsStoring@CArchive@@QBEHXZ
_TEXT	SEGMENT PARA USE32 PUBLIC 'CODE'
_TEXT	ENDS
;	COMDAT ?Serialize@CObject@@UAEXAAVCArchive@@@Z
_TEXT	SEGMENT PARA USE32 PUBLIC 'CODE'
_TEXT	ENDS
;	COMDAT ??1CObject@@UAE@XZ
_TEXT	SEGMENT PARA USE32 PUBLIC 'CODE'
_TEXT	ENDS
;	COMDAT ??_7?$CArray@HAAH@@6B@
CONST	SEGMENT DWORD USE32 PUBLIC 'CONST'
CONST	ENDS
;	COMDAT ?_Psave@?$_Facetptr@V?$numpunct@_W@std@@@std@@2PBVfacet@locale@2@B
_DATA	SEGMENT DWORD USE32 PUBLIC 'DATA'
_DATA	ENDS
;	COMDAT ?_Psave@?$_Facetptr@V?$numpunct@D@std@@@std@@2PBVfacet@locale@2@B
_DATA	SEGMENT DWORD USE32 PUBLIC 'DATA'
_DATA	ENDS
;	COMDAT ?Unlock@CComCriticalSection@ATL@@QAEJXZ
_TEXT	SEGMENT PARA USE32 PUBLIC 'CODE'
_TEXT	ENDS
;	COMDAT ?_Psave@?$_Facetptr@V?$ctype@_W@std@@@std@@2PBVfacet@locale@2@B
_DATA	SEGMENT DWORD USE32 PUBLIC 'DATA'
_DATA	ENDS
;	COMDAT ?_Psave@?$_Facetptr@V?$ctype@D@std@@@std@@2PBVfacet@locale@2@B
_DATA	SEGMENT DWORD USE32 PUBLIC 'DATA'
_DATA	ENDS
;	COMDAT ??$_Maklocchr@_W@std@@YA_WDPA_WABU_Cvtvec@@@Z
_TEXT	SEGMENT PARA USE32 PUBLIC 'CODE'
_TEXT	ENDS
;	COMDAT ??$_Maklocstr@_W@std@@YAPA_WPBDPA_WABU_Cvtvec@@@Z
_TEXT	SEGMENT PARA USE32 PUBLIC 'CODE'
_TEXT	ENDS
;	COMDAT ??$_Maklocchr@D@std@@YADDPADABU_Cvtvec@@@Z
_TEXT	SEGMENT PARA USE32 PUBLIC 'CODE'
_TEXT	ENDS
;	COMDAT ??_C@_04LOAJBDKD@true?$AA@
CONST	SEGMENT DWORD USE32 PUBLIC 'CONST'
CONST	ENDS
;	COMDAT ??_C@_05LAPONLG@false?$AA@
CONST	SEGMENT DWORD USE32 PUBLIC 'CONST'
CONST	ENDS
;	COMDAT _wmemcpy
_TEXT	SEGMENT PARA USE32 PUBLIC 'CODE'
_TEXT	ENDS
;	COMDAT ?max_size@?$allocator@_W@std@@QBEIXZ
_TEXT	SEGMENT PARA USE32 PUBLIC 'CODE'
_TEXT	ENDS
;	COMDAT ?allocate@?$allocator@_W@std@@QAEPA_WI@Z
_TEXT	SEGMENT PARA USE32 PUBLIC 'CODE'
_TEXT	ENDS
;	COMDAT ??$_Allocate@_W@std@@YAPA_WIPA_W@Z
_TEXT	SEGMENT PARA USE32 PUBLIC 'CODE'
_TEXT	ENDS
;	COMDAT ?data@CStringData@ATL@@QAEPAXXZ
_TEXT	SEGMENT PARA USE32 PUBLIC 'CODE'
_TEXT	ENDS
;	COMDAT ?AtlThrow@ATL@@YGXJ@Z
_TEXT	SEGMENT PARA USE32 PUBLIC 'CODE'
_TEXT	ENDS
;	COMDAT ??_C@_01GFHCPBMG@C?$AA@
CONST	SEGMENT DWORD USE32 PUBLIC 'CONST'
CONST	ENDS
;	COMDAT ?max_size@?$allocator@D@std@@QBEIXZ
_TEXT	SEGMENT PARA USE32 PUBLIC 'CODE'
_TEXT	ENDS
;	COMDAT ?allocate@?$allocator@D@std@@QAEPADI@Z
_TEXT	SEGMENT PARA USE32 PUBLIC 'CODE'
_TEXT	ENDS
;	COMDAT ??$_Allocate@D@std@@YAPADIPAD@Z
_TEXT	SEGMENT PARA USE32 PUBLIC 'CODE'
_TEXT	ENDS
;	COMDAT ?deallocate@?$allocator@D@std@@QAEXPADI@Z
_TEXT	SEGMENT PARA USE32 PUBLIC 'CODE'
_TEXT	ENDS
;	COMDAT ?Release@CStringData@ATL@@QAEXXZ
_TEXT	SEGMENT PARA USE32 PUBLIC 'CODE'
_TEXT	ENDS
;	COMDAT ?IsShared@CStringData@ATL@@QBE_NXZ
_TEXT	SEGMENT PARA USE32 PUBLIC 'CODE'
_TEXT	ENDS
;	COMDAT ?_Peek@?$istreambuf_iterator@_WU?$char_traits@_W@std@@@std@@AAE_WXZ
_TEXT	SEGMENT PARA USE32 PUBLIC 'CODE'
_TEXT	ENDS
;	COMDAT ?_Peek@?$istreambuf_iterator@DU?$char_traits@D@std@@@std@@AAEDXZ
_TEXT	SEGMENT PARA USE32 PUBLIC 'CODE'
_TEXT	ENDS
;	COMDAT ??$use_facet@V?$ctype@_W@std@@@std@@YAABV?$ctype@_W@0@ABVlocale@0@@Z
_TEXT	SEGMENT PARA USE32 PUBLIC 'CODE'
_TEXT	ENDS
;	COMDAT ??_S?$ctype@_W@std@@6B@
CONST	SEGMENT DWORD USE32 PUBLIC 'CONST'
CONST	ENDS
;	COMDAT ??_R4?$ctype@_W@std@@6B@
rdata$r	SEGMENT DWORD USE32 PUBLIC 'CONST'
rdata$r	ENDS
;	COMDAT ??_R0?AV?$ctype@_W@std@@@8
_DATA	SEGMENT DWORD USE32 PUBLIC 'DATA'
_DATA	ENDS
;	COMDAT ??_R3?$ctype@_W@std@@8
rdata$r	SEGMENT DWORD USE32 PUBLIC 'CONST'
rdata$r	ENDS
;	COMDAT ??_R2?$ctype@_W@std@@8
rdata$r	SEGMENT DWORD USE32 PUBLIC 'CONST'
rdata$r	ENDS
;	COMDAT ??_R1A@?0A@A@?$ctype@_W@std@@8
rdata$r	SEGMENT DWORD USE32 PUBLIC 'CONST'
rdata$r	ENDS
;	COMDAT ??_R1A@?0A@A@ctype_base@std@@8
rdata$r	SEGMENT DWORD USE32 PUBLIC 'CONST'
rdata$r	ENDS
;	COMDAT ??_R0?AUctype_base@std@@@8
_DATA	SEGMENT DWORD USE32 PUBLIC 'DATA'
_DATA	ENDS
;	COMDAT ??_G?$ctype@_W@std@@MAEPAXI@Z
_TEXT	SEGMENT PARA USE32 PUBLIC 'CODE'
_TEXT	ENDS
;	COMDAT ??_C@_08EPJLHIJG@bad?5cast?$AA@
CONST	SEGMENT DWORD USE32 PUBLIC 'CONST'
CONST	ENDS
;	COMDAT __TI2?AVbad_cast@@
xdata$x	SEGMENT DWORD USE32 PUBLIC 'CONST'
xdata$x	ENDS
;	COMDAT __CTA2?AVbad_cast@@
xdata$x	SEGMENT DWORD USE32 PUBLIC 'CONST'
xdata$x	ENDS
;	COMDAT __CT??_R0?AVbad_cast@@@8??0bad_cast@@QAE@ABV0@@Z12
xdata$x	SEGMENT DWORD USE32 PUBLIC 'CONST'
xdata$x	ENDS
;	COMDAT ??_R0?AVbad_cast@@@8
_DATA	SEGMENT DWORD USE32 PUBLIC 'DATA'
_DATA	ENDS
;	COMDAT __CT??_R0?AVexception@@@8??0exception@@QAE@ABV0@@Z12
xdata$x	SEGMENT DWORD USE32 PUBLIC 'CONST'
xdata$x	ENDS
;	COMDAT ??_R0?AVexception@@@8
_DATA	SEGMENT DWORD USE32 PUBLIC 'DATA'
_DATA	ENDS
;	COMDAT ??$use_facet@V?$ctype@D@std@@@std@@YAABV?$ctype@D@0@ABVlocale@0@@Z
_TEXT	SEGMENT PARA USE32 PUBLIC 'CODE'
_TEXT	ENDS
;	COMDAT ??_S?$ctype@D@std@@6B@
CONST	SEGMENT DWORD USE32 PUBLIC 'CONST'
CONST	ENDS
;	COMDAT ??_R4?$ctype@D@std@@6B@
rdata$r	SEGMENT DWORD USE32 PUBLIC 'CONST'
rdata$r	ENDS
;	COMDAT ??_R0?AV?$ctype@D@std@@@8
_DATA	SEGMENT DWORD USE32 PUBLIC 'DATA'
_DATA	ENDS
;	COMDAT ??_R3?$ctype@D@std@@8
rdata$r	SEGMENT DWORD USE32 PUBLIC 'CONST'
rdata$r	ENDS
;	COMDAT ??_R2?$ctype@D@std@@8
rdata$r	SEGMENT DWORD USE32 PUBLIC 'CONST'
rdata$r	ENDS
;	COMDAT ??_R1A@?0A@A@?$ctype@D@std@@8
rdata$r	SEGMENT DWORD USE32 PUBLIC 'CONST'
rdata$r	ENDS
;	COMDAT ??_G?$ctype@D@std@@MAEPAXI@Z
_TEXT	SEGMENT PARA USE32 PUBLIC 'CODE'
_TEXT	ENDS
;	COMDAT ??_S?$numpunct@_W@std@@6B@
CONST	SEGMENT DWORD USE32 PUBLIC 'CONST'
CONST	ENDS
;	COMDAT ??_S?$numpunct@D@std@@6B@
CONST	SEGMENT DWORD USE32 PUBLIC 'CONST'
CONST	ENDS
;	COMDAT _wmemmove
_TEXT	SEGMENT PARA USE32 PUBLIC 'CODE'
_TEXT	ENDS
;	COMDAT ?deallocate@?$allocator@_W@std@@QAEXPA_WI@Z
_TEXT	SEGMENT PARA USE32 PUBLIC 'CODE'
_TEXT	ENDS
;	COMDAT ??0?$allocator@_W@std@@QAE@ABV01@@Z
_TEXT	SEGMENT PARA USE32 PUBLIC 'CODE'
_TEXT	ENDS
;	COMDAT ??0CPoint@@QAE@J@Z
_TEXT	SEGMENT PARA USE32 PUBLIC 'CODE'
_TEXT	ENDS
;	COMDAT ?OnRButtonDown@CWnd@@IAEXIVCPoint@@@Z
_TEXT	SEGMENT PARA USE32 PUBLIC 'CODE'
_TEXT	ENDS
;	COMDAT ?KillTimer@CWnd@@QAEHI@Z
_TEXT	SEGMENT PARA USE32 PUBLIC 'CODE'
_TEXT	ENDS
;	COMDAT ?DrawImage@Graphics@Gdiplus@@QAE?AW4Status@2@PAVImage@2@ABVRectF@2@@Z
_TEXT	SEGMENT PARA USE32 PUBLIC 'CODE'
_TEXT	ENDS
;	COMDAT ?DrawImage@Graphics@Gdiplus@@QAE?AW4Status@2@PAVImage@2@MMMM@Z
_TEXT	SEGMENT PARA USE32 PUBLIC 'CODE'
_TEXT	ENDS
;	COMDAT ?SetStatus@Graphics@Gdiplus@@IBE?AW4Status@2@W432@@Z
_TEXT	SEGMENT PARA USE32 PUBLIC 'CODE'
_TEXT	ENDS
;	COMDAT ?PtInRect@CRect@@QBEHUtagPOINT@@@Z
_TEXT	SEGMENT PARA USE32 PUBLIC 'CODE'
_TEXT	ENDS
;	COMDAT ?ScreenToClient@CWnd@@QBEXPAUtagPOINT@@@Z
_TEXT	SEGMENT PARA USE32 PUBLIC 'CODE'
_TEXT	ENDS
;	COMDAT ??0CPoint@@QAE@XZ
_TEXT	SEGMENT PARA USE32 PUBLIC 'CODE'
_TEXT	ENDS
;	COMDAT ?DrawImage@Graphics@Gdiplus@@QAE?AW4Status@2@PAVImage@2@ABVRect@2@HHHHW4Unit@2@PBVImageAttributes@2@P6GHPAX@Z4@Z
_TEXT	SEGMENT PARA USE32 PUBLIC 'CODE'
_TEXT	ENDS
;	COMDAT ??0Rect@Gdiplus@@QAE@HHHH@Z
_TEXT	SEGMENT PARA USE32 PUBLIC 'CODE'
_TEXT	ENDS
;	COMDAT ??0RectF@Gdiplus@@QAE@XZ
_TEXT	SEGMENT PARA USE32 PUBLIC 'CODE'
_TEXT	ENDS
;	COMDAT ?Invalidate@CWnd@@QAEXH@Z
_TEXT	SEGMENT PARA USE32 PUBLIC 'CODE'
_TEXT	ENDS
;	COMDAT ?ReleaseHDC@Graphics@Gdiplus@@QAEXPAUHDC__@@@Z
_TEXT	SEGMENT PARA USE32 PUBLIC 'CODE'
_TEXT	ENDS
;	COMDAT ?InflateRect@CRect@@QAEXHHHH@Z
_TEXT	SEGMENT PARA USE32 PUBLIC 'CODE'
_TEXT	ENDS
;	COMDAT ??0CRect@@QAE@HHHH@Z
_TEXT	SEGMENT PARA USE32 PUBLIC 'CODE'
_TEXT	ENDS
;	COMDAT ?GetBitmapDimension@CBitmap@@QBE?AVCSize@@XZ
_TEXT	SEGMENT PARA USE32 PUBLIC 'CODE'
_TEXT	ENDS
;	COMDAT ??0CSize@@QAE@UtagSIZE@@@Z
_TEXT	SEGMENT PARA USE32 PUBLIC 'CODE'
_TEXT	ENDS
;	COMDAT ??1Graphics@Gdiplus@@QAE@XZ
_TEXT	SEGMENT PARA USE32 PUBLIC 'CODE'
_TEXT	ENDS
;	COMDAT ??0Graphics@Gdiplus@@QAE@PAUHDC__@@@Z
_TEXT	SEGMENT PARA USE32 PUBLIC 'CODE'
_TEXT	ENDS
;	COMDAT ?SetNativeGraphics@Graphics@Gdiplus@@IAEXPAVGpGraphics@2@@Z
_TEXT	SEGMENT PARA USE32 PUBLIC 'CODE'
_TEXT	ENDS
;	COMDAT ??0?$allocator@D@std@@QAE@ABV01@@Z
_TEXT	SEGMENT PARA USE32 PUBLIC 'CODE'
_TEXT	ENDS
;	COMDAT ??0?$allocator@D@std@@QAE@XZ
_TEXT	SEGMENT PARA USE32 PUBLIC 'CODE'
_TEXT	ENDS
;	COMDAT ?GetWidth@Image@Gdiplus@@QAEIXZ
_TEXT	SEGMENT PARA USE32 PUBLIC 'CODE'
_TEXT	ENDS
;	COMDAT ?SetStatus@Image@Gdiplus@@IBE?AW4Status@2@W432@@Z
_TEXT	SEGMENT PARA USE32 PUBLIC 'CODE'
_TEXT	ENDS
;	COMDAT ?GetHeight@Image@Gdiplus@@QAEIXZ
_TEXT	SEGMENT PARA USE32 PUBLIC 'CODE'
_TEXT	ENDS
;	COMDAT ?SetRect@CRect@@QAEXHHHH@Z
_TEXT	SEGMENT PARA USE32 PUBLIC 'CODE'
_TEXT	ENDS
;	COMDAT ?GetClientRect@CWnd@@QBEXPAUtagRECT@@@Z
_TEXT	SEGMENT PARA USE32 PUBLIC 'CODE'
_TEXT	ENDS
;	COMDAT ?GetDefaultManager@?$StrTraitMFC_DLL@DV?$ChTraitsCRT@D@ATL@@@@SAPAUIAtlStringMgr@ATL@@XZ
_TEXT	SEGMENT PARA USE32 PUBLIC 'CODE'
_TEXT	ENDS
;	COMDAT ??_7CSubSkinButton@@6B@
CONST	SEGMENT DWORD USE32 PUBLIC 'CONST'
CONST	ENDS
;	COMDAT ?_messageEntries@CSubSkinButton@@0QBUAFX_MSGMAP_ENTRY@@B
CONST	SEGMENT DWORD USE32 PUBLIC 'CONST'
CONST	ENDS
;	COMDAT ?messageMap@CSubSkinButton@@1UAFX_MSGMAP@@B
CONST	SEGMENT DWORD USE32 PUBLIC 'CONST'
CONST	ENDS
;	COMDAT ??3CObject@@SGXPAX@Z
_TEXT	SEGMENT PARA USE32 PUBLIC 'CODE'
_TEXT	ENDS
;	COMDAT ?BitBlt@CDC@@QAEHHHHHPAV1@HHK@Z
_TEXT	SEGMENT PARA USE32 PUBLIC 'CODE'
_TEXT	ENDS
;	COMDAT ?GetSafeHdc@CDC@@QBEPAUHDC__@@XZ
_TEXT	SEGMENT PARA USE32 PUBLIC 'CODE'
_TEXT	ENDS
;	COMDAT ?SelectObject@CDC@@QAEPAVCBitmap@@PAV2@@Z
_TEXT	SEGMENT PARA USE32 PUBLIC 'CODE'
_TEXT	ENDS
;	COMDAT ?Width@CRect@@QBEHXZ
_TEXT	SEGMENT PARA USE32 PUBLIC 'CODE'
_TEXT	ENDS
;	COMDAT ?Height@CRect@@QBEHXZ
_TEXT	SEGMENT PARA USE32 PUBLIC 'CODE'
_TEXT	ENDS
;	COMDAT ?CreateCompatibleBitmap@CBitmap@@QAEHPAVCDC@@HH@Z
_TEXT	SEGMENT PARA USE32 PUBLIC 'CODE'
_TEXT	ENDS
;	COMDAT ?CreateCompatibleDC@CDC@@QAEHPAV1@@Z
_TEXT	SEGMENT PARA USE32 PUBLIC 'CODE'
_TEXT	ENDS
;	COMDAT ?IsPrinting@CDC@@QBEHXZ
_TEXT	SEGMENT PARA USE32 PUBLIC 'CODE'
_TEXT	ENDS
;	COMDAT ?CopyRect@CRect@@QAEXPBUtagRECT@@@Z
_TEXT	SEGMENT PARA USE32 PUBLIC 'CODE'
_TEXT	ENDS
;	COMDAT ??0CRect@@QAE@XZ
_TEXT	SEGMENT PARA USE32 PUBLIC 'CODE'
_TEXT	ENDS
;	COMDAT ??1CBitmap@@UAE@XZ
_TEXT	SEGMENT PARA USE32 PUBLIC 'CODE'
_TEXT	ENDS
;	COMDAT ??_7CBitmap@@6B@
CONST	SEGMENT DWORD USE32 PUBLIC 'CONST'
CONST	ENDS
;	COMDAT ??_R4CBitmap@@6B@
rdata$r	SEGMENT DWORD USE32 PUBLIC 'CONST'
rdata$r	ENDS
;	COMDAT ??_R0?AVCBitmap@@@8
_DATA	SEGMENT DWORD USE32 PUBLIC 'DATA'
_DATA	ENDS
;	COMDAT ??_R3CBitmap@@8
rdata$r	SEGMENT DWORD USE32 PUBLIC 'CONST'
rdata$r	ENDS
;	COMDAT ??_R2CBitmap@@8
rdata$r	SEGMENT DWORD USE32 PUBLIC 'CONST'
rdata$r	ENDS
;	COMDAT ??_R1A@?0A@A@CBitmap@@8
rdata$r	SEGMENT DWORD USE32 PUBLIC 'CONST'
rdata$r	ENDS
;	COMDAT ??_R1A@?0A@A@CGdiObject@@8
rdata$r	SEGMENT DWORD USE32 PUBLIC 'CONST'
rdata$r	ENDS
;	COMDAT ??_R0?AVCGdiObject@@@8
_DATA	SEGMENT DWORD USE32 PUBLIC 'DATA'
_DATA	ENDS
;	COMDAT ??_GCBitmap@@UAEPAXI@Z
_TEXT	SEGMENT PARA USE32 PUBLIC 'CODE'
_TEXT	ENDS
;	COMDAT ??1CGdiObject@@UAE@XZ
_TEXT	SEGMENT PARA USE32 PUBLIC 'CODE'
_TEXT	ENDS
;	COMDAT ??_7CGdiObject@@6B@
CONST	SEGMENT DWORD USE32 PUBLIC 'CONST'
CONST	ENDS
;	COMDAT ??_R4CGdiObject@@6B@
rdata$r	SEGMENT DWORD USE32 PUBLIC 'CONST'
rdata$r	ENDS
;	COMDAT ??_R3CGdiObject@@8
rdata$r	SEGMENT DWORD USE32 PUBLIC 'CONST'
rdata$r	ENDS
;	COMDAT ??_R2CGdiObject@@8
rdata$r	SEGMENT DWORD USE32 PUBLIC 'CONST'
rdata$r	ENDS
;	COMDAT ??_GCGdiObject@@UAEPAXI@Z
_TEXT	SEGMENT PARA USE32 PUBLIC 'CODE'
_TEXT	ENDS
;	COMDAT ??0CBitmap@@QAE@XZ
_TEXT	SEGMENT PARA USE32 PUBLIC 'CODE'
_TEXT	ENDS
;	COMDAT ??0CGdiObject@@QAE@XZ
_TEXT	SEGMENT PARA USE32 PUBLIC 'CODE'
_TEXT	ENDS
;	COMDAT ??0CObject@@IAE@XZ
_TEXT	SEGMENT PARA USE32 PUBLIC 'CODE'
_TEXT	ENDS
;	COMDAT ??_7BCMenuMemDC@@6B@
CONST	SEGMENT DWORD USE32 PUBLIC 'CONST'
CONST	ENDS
;	COMDAT ??_7CGdiPlusBitmap@@6B@
CONST	SEGMENT DWORD USE32 PUBLIC 'CONST'
CONST	ENDS
;	COMDAT ?FindStringResourceInstance@?$StrTraitMFC_DLL@DV?$ChTraitsCRT@D@ATL@@@@SAPAUHINSTANCE__@@I@Z
_TEXT	SEGMENT PARA USE32 PUBLIC 'CODE'
_TEXT	ENDS
;	COMDAT ?AtlGetStringResourceImage@ATL@@YAPBUATLSTRINGRESOURCEIMAGE@1@PAUHINSTANCE__@@I@Z
_TEXT	SEGMENT PARA USE32 PUBLIC 'CODE'
_TEXT	ENDS
;	COMDAT ?_AtlGetStringResourceImage@ATL@@YAPBUATLSTRINGRESOURCEIMAGE@1@PAUHINSTANCE__@@PAUHRSRC__@@I@Z
_TEXT	SEGMENT PARA USE32 PUBLIC 'CODE'
_TEXT	ENDS
;	COMDAT ?GetBaseTypeLength@?$ChTraitsCRT@D@ATL@@SAHPB_WH@Z
_TEXT	SEGMENT PARA USE32 PUBLIC 'CODE'
_TEXT	ENDS
;	COMDAT ?_AtlGetConversionACP@ATL@@YGIXZ
_TEXT	SEGMENT PARA USE32 PUBLIC 'CODE'
_TEXT	ENDS
;	COMDAT ?g_pfnGetThreadACP@ATL@@3P6GIXZA
_DATA	SEGMENT DWORD USE32 PUBLIC 'DATA'
_DATA	ENDS
;	COMDAT ?_AtlGetThreadACPThunk@ATL@@YGIXZ
_TEXT	SEGMENT PARA USE32 PUBLIC 'CODE'
_TEXT	ENDS
;	COMDAT ?_AtlGetThreadACPReal@ATL@@YGIXZ
_TEXT	SEGMENT PARA USE32 PUBLIC 'CODE'
_TEXT	ENDS
;	COMDAT ?_AtlGetThreadACPFake@ATL@@YGIXZ
_TEXT	SEGMENT PARA USE32 PUBLIC 'CODE'
_TEXT	ENDS
;	COMDAT ?InterlockedExchangePointer@@YGPAXPAPAXPAX@Z
_TEXT	SEGMENT PARA USE32 PUBLIC 'CODE'
_TEXT	ENDS
;	COMDAT ?ConvertToBaseType@?$ChTraitsCRT@D@ATL@@SAXPADHPB_WH@Z
_TEXT	SEGMENT PARA USE32 PUBLIC 'CODE'
_TEXT	ENDS
;	COMDAT ?IsLocked@CStringData@ATL@@QBE_NXZ
_TEXT	SEGMENT PARA USE32 PUBLIC 'CODE'
_TEXT	ENDS
;	COMDAT ?AddRef@CStringData@ATL@@QAEXXZ
_TEXT	SEGMENT PARA USE32 PUBLIC 'CODE'
_TEXT	ENDS
;	COMDAT ?GetLastStatus@Image@Gdiplus@@QBE?AW4Status@2@XZ
_TEXT	SEGMENT PARA USE32 PUBLIC 'CODE'
_TEXT	ENDS
;	COMDAT ?FromFile@Bitmap@Gdiplus@@SAPAV12@PB_WH@Z
_TEXT	SEGMENT PARA USE32 PUBLIC 'CODE'
_TEXT	ENDS
;	COMDAT ??2GdiplusBase@Gdiplus@@SAPAXI@Z
_TEXT	SEGMENT PARA USE32 PUBLIC 'CODE'
_TEXT	ENDS
;	COMDAT ??3GdiplusBase@Gdiplus@@SAXPAX@Z
_TEXT	SEGMENT PARA USE32 PUBLIC 'CODE'
_TEXT	ENDS
;	COMDAT ??0Bitmap@Gdiplus@@QAE@PB_WH@Z
_TEXT	SEGMENT PARA USE32 PUBLIC 'CODE'
_TEXT	ENDS
;	COMDAT ??0Image@Gdiplus@@IAE@XZ
_TEXT	SEGMENT PARA USE32 PUBLIC 'CODE'
_TEXT	ENDS
;	COMDAT ??_7Image@Gdiplus@@6B@
CONST	SEGMENT DWORD USE32 PUBLIC 'CONST'
CONST	ENDS
;	COMDAT ??_R4Image@Gdiplus@@6B@
rdata$r	SEGMENT DWORD USE32 PUBLIC 'CONST'
rdata$r	ENDS
;	COMDAT ??_R0?AVImage@Gdiplus@@@8
_DATA	SEGMENT DWORD USE32 PUBLIC 'DATA'
_DATA	ENDS
;	COMDAT ??_R3Image@Gdiplus@@8
rdata$r	SEGMENT DWORD USE32 PUBLIC 'CONST'
rdata$r	ENDS
;	COMDAT ??_R2Image@Gdiplus@@8
rdata$r	SEGMENT DWORD USE32 PUBLIC 'CONST'
rdata$r	ENDS
;	COMDAT ??_R1A@?0A@A@Image@Gdiplus@@8
rdata$r	SEGMENT DWORD USE32 PUBLIC 'CONST'
rdata$r	ENDS
;	COMDAT ??_R13?0A@A@GdiplusBase@Gdiplus@@8
rdata$r	SEGMENT DWORD USE32 PUBLIC 'CONST'
rdata$r	ENDS
;	COMDAT ??_R0?AVGdiplusBase@Gdiplus@@@8
_DATA	SEGMENT DWORD USE32 PUBLIC 'DATA'
_DATA	ENDS
;	COMDAT ??_GImage@Gdiplus@@UAEPAXI@Z
_TEXT	SEGMENT PARA USE32 PUBLIC 'CODE'
_TEXT	ENDS
;	COMDAT ?Clone@Image@Gdiplus@@UAEPAV12@XZ
_TEXT	SEGMENT PARA USE32 PUBLIC 'CODE'
_TEXT	ENDS
;	COMDAT ??0Image@Gdiplus@@IAE@PAVGpImage@1@W4Status@1@@Z
_TEXT	SEGMENT PARA USE32 PUBLIC 'CODE'
_TEXT	ENDS
;	COMDAT ??1Image@Gdiplus@@UAE@XZ
_TEXT	SEGMENT PARA USE32 PUBLIC 'CODE'
_TEXT	ENDS
;	COMDAT ??_7Bitmap@Gdiplus@@6B@
CONST	SEGMENT DWORD USE32 PUBLIC 'CONST'
CONST	ENDS
;	COMDAT ??_R4Bitmap@Gdiplus@@6B@
rdata$r	SEGMENT DWORD USE32 PUBLIC 'CONST'
rdata$r	ENDS
;	COMDAT ??_R0?AVBitmap@Gdiplus@@@8
_DATA	SEGMENT DWORD USE32 PUBLIC 'DATA'
_DATA	ENDS
;	COMDAT ??_R3Bitmap@Gdiplus@@8
rdata$r	SEGMENT DWORD USE32 PUBLIC 'CONST'
rdata$r	ENDS
;	COMDAT ??_R2Bitmap@Gdiplus@@8
rdata$r	SEGMENT DWORD USE32 PUBLIC 'CONST'
rdata$r	ENDS
;	COMDAT ??_R1A@?0A@A@Bitmap@Gdiplus@@8
rdata$r	SEGMENT DWORD USE32 PUBLIC 'CONST'
rdata$r	ENDS
;	COMDAT ??_GBitmap@Gdiplus@@UAEPAXI@Z
_TEXT	SEGMENT PARA USE32 PUBLIC 'CODE'
_TEXT	ENDS
;	COMDAT ??1Bitmap@Gdiplus@@UAE@XZ
_TEXT	SEGMENT PARA USE32 PUBLIC 'CODE'
_TEXT	ENDS
;	COMDAT ?SetNativeImage@Image@Gdiplus@@IAEXPAVGpImage@2@@Z
_TEXT	SEGMENT PARA USE32 PUBLIC 'CODE'
_TEXT	ENDS
;	COMDAT ??_7CGdiPlusBitmap@CSkinButton@@6B@
CONST	SEGMENT DWORD USE32 PUBLIC 'CONST'
CONST	ENDS
sxdata	SEGMENT DWORD USE32 'SXDATA'
sxdata	ENDS
FLAT	GROUP _DATA, CONST, _BSS
	ASSUME	CS: FLAT, DS: FLAT, SS: FLAT
endif

INCLUDELIB MSVCRT
INCLUDELIB OLDNAMES

PUBLIC	?OnLButtonDown@CSubSkinButton@@QAEXIVCPoint@@@Z	; CSubSkinButton::OnLButtonDown
PUBLIC	?OnMouseMove@CSubSkinButton@@QAEXIVCPoint@@@Z	; CSubSkinButton::OnMouseMove
PUBLIC	?OnMouseLeave@CSubSkinButton@@QAEJIJ@Z		; CSubSkinButton::OnMouseLeave
PUBLIC	?_messageEntries@CSubSkinButton@@0QBUAFX_MSGMAP_ENTRY@@B ; CSubSkinButton::_messageEntries
PUBLIC	?messageMap@CSubSkinButton@@1UAFX_MSGMAP@@B	; CSubSkinButton::messageMap
PUBLIC	?OnRButtonDown@CSubSkinButton@@IAEXIVCPoint@@@Z	; CSubSkinButton::OnRButtonDown
PUBLIC	?OnApplySkin@CSubSkinButton@@IAEXXZ		; CSubSkinButton::OnApplySkin
PUBLIC	?OnDeleteSkin@CSubSkinButton@@IAEXXZ		; CSubSkinButton::OnDeleteSkin
PUBLIC	?OnMoreSkin@CSubSkinButton@@IAEXXZ		; CSubSkinButton::OnMoreSkin
PUBLIC	?g_pfnGetThreadACP@ATL@@3P6GIXZA		; ATL::g_pfnGetThreadACP
PUBLIC	?_AtlGetThreadACPThunk@ATL@@YGIXZ		; ATL::_AtlGetThreadACPThunk
EXTRN	?GetThisMessageMap@CSkinButton@@KGPBUAFX_MSGMAP@@XZ:NEAR ; CSkinButton::GetThisMessageMap
;	COMDAT ?_messageEntries@CSubSkinButton@@0QBUAFX_MSGMAP_ENTRY@@B
CONST	SEGMENT
?_messageEntries@CSubSkinButton@@0QBUAFX_MSGMAP_ENTRY@@B DD 0201H ; CSubSkinButton::_messageEntries
	DD	00H
	DD	00H
	DD	00H
	DD	032H
	DD	FLAT:?OnLButtonDown@CSubSkinButton@@QAEXIVCPoint@@@Z
	DD	0200H
	DD	00H
	DD	00H
	DD	00H
	DD	032H
	DD	FLAT:?OnMouseMove@CSubSkinButton@@QAEXIVCPoint@@@Z
	DD	0111H
	DD	00H
	DD	06eH
	DD	06eH
	DD	035H
	DD	FLAT:?OnApplySkin@CSubSkinButton@@IAEXXZ
	DD	0111H
	DD	00H
	DD	06fH
	DD	06fH
	DD	035H
	DD	FLAT:?OnDeleteSkin@CSubSkinButton@@IAEXXZ
	DD	0111H
	DD	00H
	DD	070H
	DD	070H
	DD	035H
	DD	FLAT:?OnMoreSkin@CSubSkinButton@@IAEXXZ
	DD	02a3H
	DD	00H
	DD	00H
	DD	00H
	DD	0eH
	DD	FLAT:?OnMouseLeave@CSubSkinButton@@QAEJIJ@Z
	DD	0204H
	DD	00H
	DD	00H
	DD	00H
	DD	032H
	DD	FLAT:?OnRButtonDown@CSubSkinButton@@IAEXIVCPoint@@@Z
	DD	00H
	DD	00H
	DD	00H
	DD	00H
	DD	00H
	DD	00H
CONST	ENDS
;	COMDAT ?messageMap@CSubSkinButton@@1UAFX_MSGMAP@@B
CONST	SEGMENT
?messageMap@CSubSkinButton@@1UAFX_MSGMAP@@B DD FLAT:?GetThisMessageMap@CSkinButton@@KGPBUAFX_MSGMAP@@XZ ; CSubSkinButton::messageMap
	DD	FLAT:?_messageEntries@CSubSkinButton@@0QBUAFX_MSGMAP_ENTRY@@B
CONST	ENDS
CONST	SEGMENT
$SG198842 DB	'1', 00H
	ORG $+2
$SG198846 DB	'BTN:DELETE_BTN_', 00H
$SG198847 DB	'USRCLK', 00H
	ORG $+1
$SG198858 DB	'1', 00H
	ORG $+2
$SG198933 DB	'Normal.png', 00H
	ORG $+1
$SG198937 DB	'Over.png', 00H
	ORG $+3
$SG198941 DB	'Down.png', 00H
	ORG $+3
$SG198991 DB	0c9H, 0beH, 0b3H, 0fdH, 00H
	ORG $+3
$SG198993 DB	0c9H, 0beH, 0b3H, 0fdH, 00H
	ORG $+3
$SG198996 DB	0c9H, 0beH, 0b3H, 0fdH, 00H
	ORG $+3
$SG199025 DB	'BTN:DELETE_MENU_', 00H
	ORG $+3
$SG199026 DB	'USRCLK', 00H
	ORG $+1
$SG199033 DB	'BTN:DOWN_MORE_MENU', 00H
	ORG $+1
$SG199034 DB	'USRCLK', 00H
	ORG $+1
$SG199035 DB	'http://www.kuwo.cn/skin/', 00H
	ORG $+3
$SG199036 DB	'iexplore', 00H
	ORG $+3
$SG199037 DB	'open', 00H
CONST	ENDS
;	COMDAT ?g_pfnGetThreadACP@ATL@@3P6GIXZA
_DATA	SEGMENT
?g_pfnGetThreadACP@ATL@@3P6GIXZA DD FLAT:?_AtlGetThreadACPThunk@ATL@@YGIXZ ; ATL::g_pfnGetThreadACP
_DATA	ENDS
PUBLIC	?GetThisMessageMap@CSubSkinButton@@KGPBUAFX_MSGMAP@@XZ ; CSubSkinButton::GetThisMessageMap
; Function compile flags: /Odt
; File d:\boxgit\playbox\playbox\dev\prj\playbox\src\layoutmgr\changecolor\subskinbutton.cpp
_TEXT	SEGMENT
?GetThisMessageMap@CSubSkinButton@@KGPBUAFX_MSGMAP@@XZ PROC NEAR ; CSubSkinButton::GetThisMessageMap

; 10   : BEGIN_MESSAGE_MAP(CSubSkinButton,CSkinButton)

  00000	55		 push	 ebp
  00001	8b ec		 mov	 ebp, esp
  00003	b8 00 00 00 00	 mov	 eax, OFFSET FLAT:?messageMap@CSubSkinButton@@1UAFX_MSGMAP@@B ; CSubSkinButton::messageMap
  00008	5d		 pop	 ebp
  00009	c3		 ret	 0
?GetThisMessageMap@CSubSkinButton@@KGPBUAFX_MSGMAP@@XZ ENDP ; CSubSkinButton::GetThisMessageMap
_TEXT	ENDS
PUBLIC	?GetMessageMap@CSubSkinButton@@MBEPBUAFX_MSGMAP@@XZ ; CSubSkinButton::GetMessageMap
; Function compile flags: /Odt
_TEXT	SEGMENT
_this$ = -4						; size = 4
?GetMessageMap@CSubSkinButton@@MBEPBUAFX_MSGMAP@@XZ PROC NEAR ; CSubSkinButton::GetMessageMap
; _this$ = ecx

; 10   : BEGIN_MESSAGE_MAP(CSubSkinButton,CSkinButton)

  00010	55		 push	 ebp
  00011	8b ec		 mov	 ebp, esp
  00013	51		 push	 ecx
  00014	89 4d fc	 mov	 DWORD PTR _this$[ebp], ecx
  00017	b8 00 00 00 00	 mov	 eax, OFFSET FLAT:?messageMap@CSubSkinButton@@1UAFX_MSGMAP@@B ; CSubSkinButton::messageMap
  0001c	8b e5		 mov	 esp, ebp
  0001e	5d		 pop	 ebp
  0001f	c3		 ret	 0
?GetMessageMap@CSubSkinButton@@MBEPBUAFX_MSGMAP@@XZ ENDP ; CSubSkinButton::GetMessageMap
_TEXT	ENDS
PUBLIC	?DrawItem@CSubSkinButton@@MAEXPAUtagDRAWITEMSTRUCT@@@Z ; CSubSkinButton::DrawItem
PUBLIC	??0CSubSkinButton@@QAE@XZ			; CSubSkinButton::CSubSkinButton
PUBLIC	?SetPngHoverSkin@CSubSkinButton@@UAEHV?$CStringT@DV?$StrTraitMFC_DLL@DV?$ChTraitsCRT@D@ATL@@@@@ATL@@@Z ; CSubSkinButton::SetPngHoverSkin
PUBLIC	?SetPngFrame@CSubSkinButton@@UAEHV?$CStringT@DV?$StrTraitMFC_DLL@DV?$ChTraitsCRT@D@ATL@@@@@ATL@@@Z ; CSubSkinButton::SetPngFrame
PUBLIC	?IsClickPng@CSubSkinButton@@UAEHXZ		; CSubSkinButton::IsClickPng
PUBLIC	?SetClickPng@CSubSkinButton@@UAEXH@Z		; CSubSkinButton::SetClickPng
PUBLIC	??_7CSubSkinButton@@6B@				; CSubSkinButton::`vftable'
PUBLIC	??_GCSubSkinButton@@UAEPAXI@Z			; CSubSkinButton::`scalar deleting destructor'
PUBLIC	??_R1A@?0A@A@CObject@@8				; CObject::`RTTI Base Class Descriptor at (0,-1,0,0)'
PUBLIC	??_R0?AVCObject@@@8				; CObject `RTTI Type Descriptor'
PUBLIC	??_R1A@?0A@A@CWnd@@8				; CWnd::`RTTI Base Class Descriptor at (0,-1,0,0)'
PUBLIC	??_R0?AVCWnd@@@8				; CWnd `RTTI Type Descriptor'
PUBLIC	??_R1A@?0A@A@CCmdTarget@@8			; CCmdTarget::`RTTI Base Class Descriptor at (0,-1,0,0)'
PUBLIC	??_R0?AVCCmdTarget@@@8				; CCmdTarget `RTTI Type Descriptor'
PUBLIC	?Serialize@CObject@@UAEXAAVCArchive@@@Z		; CObject::Serialize
PUBLIC	?AssertValid@CObject@@UBEXXZ			; CObject::AssertValid
PUBLIC	?Dump@CObject@@UBEXAAVCDumpContext@@@Z		; CObject::Dump
PUBLIC	??_R1A@?0A@A@CButton@@8				; CButton::`RTTI Base Class Descriptor at (0,-1,0,0)'
PUBLIC	??_R0?AVCButton@@@8				; CButton `RTTI Type Descriptor'
PUBLIC	??_R4CSubSkinButton@@6B@			; CSubSkinButton::`RTTI Complete Object Locator'
PUBLIC	??_R0?AVCSubSkinButton@@@8			; CSubSkinButton `RTTI Type Descriptor'
PUBLIC	??_R3CSubSkinButton@@8				; CSubSkinButton::`RTTI Class Hierarchy Descriptor'
PUBLIC	??_R2CSubSkinButton@@8				; CSubSkinButton::`RTTI Base Class Array'
PUBLIC	??_R1A@?0A@A@CSubSkinButton@@8			; CSubSkinButton::`RTTI Base Class Descriptor at (0,-1,0,0)'
PUBLIC	??_R1A@?0A@A@CSkinButton@@8			; CSkinButton::`RTTI Base Class Descriptor at (0,-1,0,0)'
PUBLIC	??_R0?AVCSkinButton@@@8				; CSkinButton `RTTI Type Descriptor'
PUBLIC	?DoDataExchange@CWnd@@MAEXPAVCDataExchange@@@Z	; CWnd::DoDataExchange
PUBLIC	?BeginModalState@CWnd@@UAEXXZ			; CWnd::BeginModalState
PUBLIC	?EndModalState@CWnd@@UAEXXZ			; CWnd::EndModalState
EXTRN	?CreateControlContainer@CWnd@@MAEHPAPAVCOleControlContainer@@@Z:NEAR ; CWnd::CreateControlContainer
EXTRN	?CreateControlSite@CWnd@@MAEHPAVCOleControlContainer@@PAPAVCOleControlSite@@IABU_GUID@@@Z:NEAR ; CWnd::CreateControlSite
EXTRN	?SetOccDialogInfo@CWnd@@MAEHPAU_AFX_OCC_DIALOG_INFO@@@Z:NEAR ; CWnd::SetOccDialogInfo
EXTRN	??_ECSubSkinButton@@UAEPAXI@Z:NEAR		; CSubSkinButton::`vector deleting destructor'
EXTRN	?OnToolHitTest@CWnd@@UBEHVCPoint@@PAUtagTOOLINFOA@@@Z:NEAR ; CWnd::OnToolHitTest
EXTRN	__imp_??0?$CStringT@DV?$StrTraitMFC_DLL@DV?$ChTraitsCRT@D@ATL@@@@@ATL@@QAE@XZ:NEAR
EXTRN	?GetScrollBarCtrl@CWnd@@UBEPAVCScrollBar@@H@Z:NEAR ; CWnd::GetScrollBarCtrl
EXTRN	?Create@CButton@@UAEHPBDKABUtagRECT@@PAVCWnd@@I@Z:NEAR ; CButton::Create
EXTRN	?OnChildNotify@CButton@@MAEHIIJPAJ@Z:NEAR	; CButton::OnChildNotify
EXTRN	?WinHelpA@CWnd@@UAEXKI@Z:NEAR			; CWnd::WinHelpA
EXTRN	?HtmlHelpA@CWnd@@UAEXKI@Z:NEAR			; CWnd::HtmlHelpA
EXTRN	?WinHelpInternal@CWnd@@UAEXKI@Z:NEAR		; CWnd::WinHelpInternal
EXTRN	?ContinueModal@CWnd@@UAEHXZ:NEAR		; CWnd::ContinueModal
EXTRN	?EndModalLoop@CWnd@@UAEXH@Z:NEAR		; CWnd::EndModalLoop
EXTRN	?GetInterfaceMap@CWnd@@MBEPBUAFX_INTERFACEMAP@@XZ:NEAR ; CWnd::GetInterfaceMap
EXTRN	?EnsureStdObj@CWnd@@UAEJXZ:NEAR			; CWnd::EnsureStdObj
EXTRN	?get_accParent@CWnd@@UAEJPAPAUIDispatch@@@Z:NEAR ; CWnd::get_accParent
EXTRN	?get_accChildCount@CWnd@@UAEJPAJ@Z:NEAR		; CWnd::get_accChildCount
EXTRN	?OnCmdMsg@CCmdTarget@@UAEHIHPAXPAUAFX_CMDHANDLERINFO@@@Z:NEAR ; CCmdTarget::OnCmdMsg
EXTRN	?get_accChild@CWnd@@UAEJUtagVARIANT@@PAPAUIDispatch@@@Z:NEAR ; CWnd::get_accChild
EXTRN	?IsInvokeAllowed@CCmdTarget@@UAEHJ@Z:NEAR	; CCmdTarget::IsInvokeAllowed
EXTRN	?get_accName@CWnd@@UAEJUtagVARIANT@@PAPA_W@Z:NEAR ; CWnd::get_accName
EXTRN	?get_accValue@CWnd@@UAEJUtagVARIANT@@PAPA_W@Z:NEAR ; CWnd::get_accValue
EXTRN	?get_accDescription@CWnd@@UAEJUtagVARIANT@@PAPA_W@Z:NEAR ; CWnd::get_accDescription
EXTRN	?GetDispatchIID@CCmdTarget@@UAEHPAU_GUID@@@Z:NEAR ; CCmdTarget::GetDispatchIID
EXTRN	?GetTypeInfoCount@CCmdTarget@@UAEIXZ:NEAR	; CCmdTarget::GetTypeInfoCount
EXTRN	?GetTypeLibCache@CCmdTarget@@UAEPAVCTypeLibCache@@XZ:NEAR ; CCmdTarget::GetTypeLibCache
EXTRN	?get_accRole@CWnd@@UAEJUtagVARIANT@@PAU2@@Z:NEAR ; CWnd::get_accRole
EXTRN	?GetTypeLib@CCmdTarget@@UAEJKPAPAUITypeLib@@@Z:NEAR ; CCmdTarget::GetTypeLib
EXTRN	?get_accState@CWnd@@UAEJUtagVARIANT@@PAU2@@Z:NEAR ; CWnd::get_accState
EXTRN	?get_accHelp@CWnd@@UAEJUtagVARIANT@@PAPA_W@Z:NEAR ; CWnd::get_accHelp
EXTRN	?get_accHelpTopic@CWnd@@UAEJPAPA_WUtagVARIANT@@PAJ@Z:NEAR ; CWnd::get_accHelpTopic
EXTRN	?get_accKeyboardShortcut@CWnd@@UAEJUtagVARIANT@@PAPA_W@Z:NEAR ; CWnd::get_accKeyboardShortcut
EXTRN	?get_accFocus@CWnd@@UAEJPAUtagVARIANT@@@Z:NEAR	; CWnd::get_accFocus
EXTRN	?get_accSelection@CWnd@@UAEJPAUtagVARIANT@@@Z:NEAR ; CWnd::get_accSelection
EXTRN	?get_accDefaultAction@CWnd@@UAEJUtagVARIANT@@PAPA_W@Z:NEAR ; CWnd::get_accDefaultAction
EXTRN	?GetCommandMap@CCmdTarget@@MBEPBUAFX_OLECMDMAP@@XZ:NEAR ; CCmdTarget::GetCommandMap
EXTRN	?accSelect@CWnd@@UAEJJUtagVARIANT@@@Z:NEAR	; CWnd::accSelect
EXTRN	?accLocation@CWnd@@UAEJPAJ000UtagVARIANT@@@Z:NEAR ; CWnd::accLocation
EXTRN	?GetDispatchMap@CCmdTarget@@MBEPBUAFX_DISPMAP@@XZ:NEAR ; CCmdTarget::GetDispatchMap
EXTRN	?accNavigate@CWnd@@UAEJJUtagVARIANT@@PAU2@@Z:NEAR ; CWnd::accNavigate
EXTRN	?accHitTest@CWnd@@UAEJJJPAUtagVARIANT@@@Z:NEAR	; CWnd::accHitTest
EXTRN	?GetConnectionMap@CCmdTarget@@MBEPBUAFX_CONNECTIONMAP@@XZ:NEAR ; CCmdTarget::GetConnectionMap
EXTRN	?accDoDefaultAction@CWnd@@UAEJUtagVARIANT@@@Z:NEAR ; CWnd::accDoDefaultAction
EXTRN	?put_accName@CWnd@@UAEJUtagVARIANT@@PA_W@Z:NEAR	; CWnd::put_accName
EXTRN	?put_accValue@CWnd@@UAEJUtagVARIANT@@PA_W@Z:NEAR ; CWnd::put_accValue
EXTRN	?SetProxy@CWnd@@UAEJPAUIAccessibleProxy@@@Z:NEAR ; CWnd::SetProxy
EXTRN	?CreateAccessibleProxy@CWnd@@UAEJIJPAJ@Z:NEAR	; CWnd::CreateAccessibleProxy
EXTRN	?GetEventSinkMap@CCmdTarget@@MBEPBUAFX_EVENTSINKMAP@@XZ:NEAR ; CCmdTarget::GetEventSinkMap
EXTRN	?OnCreateAggregates@CCmdTarget@@UAEHXZ:NEAR	; CCmdTarget::OnCreateAggregates
EXTRN	?OnCommand@CWnd@@MAEHIJ@Z:NEAR			; CWnd::OnCommand
EXTRN	?GetInterfaceHook@CCmdTarget@@UAEPAUIUnknown@@PBX@Z:NEAR ; CCmdTarget::GetInterfaceHook
EXTRN	?OnNotify@CWnd@@MAEHIJPAJ@Z:NEAR		; CWnd::OnNotify
EXTRN	?GetExtraConnectionPoints@CCmdTarget@@MAEHPAVCPtrArray@@@Z:NEAR ; CCmdTarget::GetExtraConnectionPoints
EXTRN	?GetConnectionHook@CCmdTarget@@MAEPAUIConnectionPoint@@ABU_GUID@@@Z:NEAR ; CCmdTarget::GetConnectionHook
EXTRN	?PreSubclassWindow@CWnd@@UAEXXZ:NEAR		; CWnd::PreSubclassWindow
EXTRN	?Create@CWnd@@UAEHPBD0KABUtagRECT@@PAV1@IPAUCCreateContext@@@Z:NEAR ; CWnd::Create
EXTRN	?GetRuntimeClass@CSkinButton@@UBEPAUCRuntimeClass@@XZ:NEAR ; CSkinButton::GetRuntimeClass
EXTRN	?CreateEx@CWnd@@UAEHKPBD0KHHHHPAUHWND__@@PAUHMENU__@@PAX@Z:NEAR ; CWnd::CreateEx
EXTRN	?CreateEx@CWnd@@UAEHKPBD0KABUtagRECT@@PAV1@IPAX@Z:NEAR ; CWnd::CreateEx
EXTRN	??0CSkinButton@@QAE@XZ:NEAR			; CSkinButton::CSkinButton
EXTRN	?DestroyWindow@CWnd@@UAEHXZ:NEAR		; CWnd::DestroyWindow
EXTRN	?PreCreateWindow@CWnd@@UAEHAAUtagCREATESTRUCTA@@@Z:NEAR ; CWnd::PreCreateWindow
EXTRN	?CalcWindowRect@CWnd@@UAEXPAUtagRECT@@I@Z:NEAR	; CWnd::CalcWindowRect
EXTRN	?GetSuperWndProcAddr@CWnd@@MAEPAP6GJPAUHWND__@@IIJ@ZXZ:NEAR ; CWnd::GetSuperWndProcAddr
EXTRN	??_7type_info@@6B@:QWORD			; type_info::`vftable'
EXTRN	?PreTranslateMessage@CWnd@@UAEHPAUtagMSG@@@Z:NEAR ; CWnd::PreTranslateMessage
EXTRN	?OnAmbientProperty@CWnd@@UAEHPAVCOleControlSite@@JPAUtagVARIANT@@@Z:NEAR ; CWnd::OnAmbientProperty
EXTRN	?WindowProc@CWnd@@MAEJIIJ@Z:NEAR		; CWnd::WindowProc
EXTRN	?OnWndMsg@CWnd@@MAEHIIJPAJ@Z:NEAR		; CWnd::OnWndMsg
EXTRN	?DefWindowProcA@CWnd@@MAEJIIJ@Z:NEAR		; CWnd::DefWindowProcA
EXTRN	?PostNcDestroy@CWnd@@MAEXXZ:NEAR		; CWnd::PostNcDestroy
EXTRN	?CheckAutoCenter@CWnd@@UAEHXZ:NEAR		; CWnd::CheckAutoCenter
EXTRN	?IsFrameWnd@CWnd@@UBEHXZ:NEAR			; CWnd::IsFrameWnd
EXTRN	?OnFinalRelease@CWnd@@UAEXXZ:NEAR		; CWnd::OnFinalRelease
;	COMDAT ??_7CSubSkinButton@@6B@
CONST	SEGMENT
??_7CSubSkinButton@@6B@ DD FLAT:??_R4CSubSkinButton@@6B@ ; CSubSkinButton::`vftable'
	DD	FLAT:?GetRuntimeClass@CSkinButton@@UBEPAUCRuntimeClass@@XZ
	DD	FLAT:??_ECSubSkinButton@@UAEPAXI@Z
	DD	FLAT:?Serialize@CObject@@UAEXAAVCArchive@@@Z
	DD	FLAT:?AssertValid@CObject@@UBEXXZ
	DD	FLAT:?Dump@CObject@@UBEXAAVCDumpContext@@@Z
	DD	FLAT:?OnCmdMsg@CCmdTarget@@UAEHIHPAXPAUAFX_CMDHANDLERINFO@@@Z
	DD	FLAT:?OnFinalRelease@CWnd@@UAEXXZ
	DD	FLAT:?IsInvokeAllowed@CCmdTarget@@UAEHJ@Z
	DD	FLAT:?GetDispatchIID@CCmdTarget@@UAEHPAU_GUID@@@Z
	DD	FLAT:?GetTypeInfoCount@CCmdTarget@@UAEIXZ
	DD	FLAT:?GetTypeLibCache@CCmdTarget@@UAEPAVCTypeLibCache@@XZ
	DD	FLAT:?GetTypeLib@CCmdTarget@@UAEJKPAPAUITypeLib@@@Z
	DD	FLAT:?GetMessageMap@CSubSkinButton@@MBEPBUAFX_MSGMAP@@XZ
	DD	FLAT:?GetCommandMap@CCmdTarget@@MBEPBUAFX_OLECMDMAP@@XZ
	DD	FLAT:?GetDispatchMap@CCmdTarget@@MBEPBUAFX_DISPMAP@@XZ
	DD	FLAT:?GetConnectionMap@CCmdTarget@@MBEPBUAFX_CONNECTIONMAP@@XZ
	DD	FLAT:?GetInterfaceMap@CWnd@@MBEPBUAFX_INTERFACEMAP@@XZ
	DD	FLAT:?GetEventSinkMap@CCmdTarget@@MBEPBUAFX_EVENTSINKMAP@@XZ
	DD	FLAT:?OnCreateAggregates@CCmdTarget@@UAEHXZ
	DD	FLAT:?GetInterfaceHook@CCmdTarget@@UAEPAUIUnknown@@PBX@Z
	DD	FLAT:?GetExtraConnectionPoints@CCmdTarget@@MAEHPAVCPtrArray@@@Z
	DD	FLAT:?GetConnectionHook@CCmdTarget@@MAEPAUIConnectionPoint@@ABU_GUID@@@Z
	DD	FLAT:?PreSubclassWindow@CWnd@@UAEXXZ
	DD	FLAT:?Create@CWnd@@UAEHPBD0KABUtagRECT@@PAV1@IPAUCCreateContext@@@Z
	DD	FLAT:?CreateEx@CWnd@@UAEHKPBD0KABUtagRECT@@PAV1@IPAX@Z
	DD	FLAT:?CreateEx@CWnd@@UAEHKPBD0KHHHHPAUHWND__@@PAUHMENU__@@PAX@Z
	DD	FLAT:?DestroyWindow@CWnd@@UAEHXZ
	DD	FLAT:?PreCreateWindow@CWnd@@UAEHAAUtagCREATESTRUCTA@@@Z
	DD	FLAT:?CalcWindowRect@CWnd@@UAEXPAUtagRECT@@I@Z
	DD	FLAT:?OnToolHitTest@CWnd@@UBEHVCPoint@@PAUtagTOOLINFOA@@@Z
	DD	FLAT:?GetScrollBarCtrl@CWnd@@UBEPAVCScrollBar@@H@Z
	DD	FLAT:?WinHelpA@CWnd@@UAEXKI@Z
	DD	FLAT:?HtmlHelpA@CWnd@@UAEXKI@Z
	DD	FLAT:?WinHelpInternal@CWnd@@UAEXKI@Z
	DD	FLAT:?ContinueModal@CWnd@@UAEHXZ
	DD	FLAT:?EndModalLoop@CWnd@@UAEXH@Z
	DD	FLAT:?EnsureStdObj@CWnd@@UAEJXZ
	DD	FLAT:?get_accParent@CWnd@@UAEJPAPAUIDispatch@@@Z
	DD	FLAT:?get_accChildCount@CWnd@@UAEJPAJ@Z
	DD	FLAT:?get_accChild@CWnd@@UAEJUtagVARIANT@@PAPAUIDispatch@@@Z
	DD	FLAT:?get_accName@CWnd@@UAEJUtagVARIANT@@PAPA_W@Z
	DD	FLAT:?get_accValue@CWnd@@UAEJUtagVARIANT@@PAPA_W@Z
	DD	FLAT:?get_accDescription@CWnd@@UAEJUtagVARIANT@@PAPA_W@Z
	DD	FLAT:?get_accRole@CWnd@@UAEJUtagVARIANT@@PAU2@@Z
	DD	FLAT:?get_accState@CWnd@@UAEJUtagVARIANT@@PAU2@@Z
	DD	FLAT:?get_accHelp@CWnd@@UAEJUtagVARIANT@@PAPA_W@Z
	DD	FLAT:?get_accHelpTopic@CWnd@@UAEJPAPA_WUtagVARIANT@@PAJ@Z
	DD	FLAT:?get_accKeyboardShortcut@CWnd@@UAEJUtagVARIANT@@PAPA_W@Z
	DD	FLAT:?get_accFocus@CWnd@@UAEJPAUtagVARIANT@@@Z
	DD	FLAT:?get_accSelection@CWnd@@UAEJPAUtagVARIANT@@@Z
	DD	FLAT:?get_accDefaultAction@CWnd@@UAEJUtagVARIANT@@PAPA_W@Z
	DD	FLAT:?accSelect@CWnd@@UAEJJUtagVARIANT@@@Z
	DD	FLAT:?accLocation@CWnd@@UAEJPAJ000UtagVARIANT@@@Z
	DD	FLAT:?accNavigate@CWnd@@UAEJJUtagVARIANT@@PAU2@@Z
	DD	FLAT:?accHitTest@CWnd@@UAEJJJPAUtagVARIANT@@@Z
	DD	FLAT:?accDoDefaultAction@CWnd@@UAEJUtagVARIANT@@@Z
	DD	FLAT:?put_accName@CWnd@@UAEJUtagVARIANT@@PA_W@Z
	DD	FLAT:?put_accValue@CWnd@@UAEJUtagVARIANT@@PA_W@Z
	DD	FLAT:?SetProxy@CWnd@@UAEJPAUIAccessibleProxy@@@Z
	DD	FLAT:?CreateAccessibleProxy@CWnd@@UAEJIJPAJ@Z
	DD	FLAT:?OnCommand@CWnd@@MAEHIJ@Z
	DD	FLAT:?OnNotify@CWnd@@MAEHIJPAJ@Z
	DD	FLAT:?GetSuperWndProcAddr@CWnd@@MAEPAP6GJPAUHWND__@@IIJ@ZXZ
	DD	FLAT:?DoDataExchange@CWnd@@MAEXPAVCDataExchange@@@Z
	DD	FLAT:?BeginModalState@CWnd@@UAEXXZ
	DD	FLAT:?EndModalState@CWnd@@UAEXXZ
	DD	FLAT:?PreTranslateMessage@CWnd@@UAEHPAUtagMSG@@@Z
	DD	FLAT:?OnAmbientProperty@CWnd@@UAEHPAVCOleControlSite@@JPAUtagVARIANT@@@Z
	DD	FLAT:?WindowProc@CWnd@@MAEJIIJ@Z
	DD	FLAT:?OnWndMsg@CWnd@@MAEHIIJPAJ@Z
	DD	FLAT:?DefWindowProcA@CWnd@@MAEJIIJ@Z
	DD	FLAT:?PostNcDestroy@CWnd@@MAEXXZ
	DD	FLAT:?OnChildNotify@CButton@@MAEHIIJPAJ@Z
	DD	FLAT:?CheckAutoCenter@CWnd@@UAEHXZ
	DD	FLAT:?IsFrameWnd@CWnd@@UBEHXZ
	DD	FLAT:?CreateControlContainer@CWnd@@MAEHPAPAVCOleControlContainer@@@Z
	DD	FLAT:?CreateControlSite@CWnd@@MAEHPAVCOleControlContainer@@PAPAVCOleControlSite@@IABU_GUID@@@Z
	DD	FLAT:?SetOccDialogInfo@CWnd@@MAEHPAU_AFX_OCC_DIALOG_INFO@@@Z
	DD	FLAT:?Create@CButton@@UAEHPBDKABUtagRECT@@PAVCWnd@@I@Z
	DD	FLAT:?DrawItem@CSubSkinButton@@MAEXPAUtagDRAWITEMSTRUCT@@@Z
	DD	FLAT:?SetPngHoverSkin@CSubSkinButton@@UAEHV?$CStringT@DV?$StrTraitMFC_DLL@DV?$ChTraitsCRT@D@ATL@@@@@ATL@@@Z
	DD	FLAT:?SetPngFrame@CSubSkinButton@@UAEHV?$CStringT@DV?$StrTraitMFC_DLL@DV?$ChTraitsCRT@D@ATL@@@@@ATL@@@Z
	DD	FLAT:?IsClickPng@CSubSkinButton@@UAEHXZ
	DD	FLAT:?SetClickPng@CSubSkinButton@@UAEXH@Z
CONST	ENDS
;	COMDAT ??_R4CSubSkinButton@@6B@
rdata$r	SEGMENT
??_R4CSubSkinButton@@6B@ DD 00H				; CSubSkinButton::`RTTI Complete Object Locator'
	DD	00H
	DD	00H
	DD	FLAT:??_R0?AVCSubSkinButton@@@8
	DD	FLAT:??_R3CSubSkinButton@@8
rdata$r	ENDS
;	COMDAT ??_R0?AVCSubSkinButton@@@8
_DATA	SEGMENT
??_R0?AVCSubSkinButton@@@8 DD FLAT:??_7type_info@@6B@	; CSubSkinButton `RTTI Type Descriptor'
	DD	00H
	DB	'.?AVCSubSkinButton@@', 00H
_DATA	ENDS
;	COMDAT ??_R3CSubSkinButton@@8
rdata$r	SEGMENT
??_R3CSubSkinButton@@8 DD 00H				; CSubSkinButton::`RTTI Class Hierarchy Descriptor'
	DD	00H
	DD	06H
	DD	FLAT:??_R2CSubSkinButton@@8
rdata$r	ENDS
;	COMDAT ??_R2CSubSkinButton@@8
rdata$r	SEGMENT
??_R2CSubSkinButton@@8 DD FLAT:??_R1A@?0A@A@CSubSkinButton@@8 ; CSubSkinButton::`RTTI Base Class Array'
	DD	FLAT:??_R1A@?0A@A@CSkinButton@@8
	DD	FLAT:??_R1A@?0A@A@CButton@@8
	DD	FLAT:??_R1A@?0A@A@CWnd@@8
	DD	FLAT:??_R1A@?0A@A@CCmdTarget@@8
	DD	FLAT:??_R1A@?0A@A@CObject@@8
rdata$r	ENDS
;	COMDAT ??_R1A@?0A@A@CSubSkinButton@@8
rdata$r	SEGMENT
??_R1A@?0A@A@CSubSkinButton@@8 DD FLAT:??_R0?AVCSubSkinButton@@@8 ; CSubSkinButton::`RTTI Base Class Descriptor at (0,-1,0,0)'
	DD	05H
	DD	00H
	DD	0ffffffffH
	DD	00H
	DD	00H
rdata$r	ENDS
;	COMDAT ??_R1A@?0A@A@CSkinButton@@8
rdata$r	SEGMENT
??_R1A@?0A@A@CSkinButton@@8 DD FLAT:??_R0?AVCSkinButton@@@8 ; CSkinButton::`RTTI Base Class Descriptor at (0,-1,0,0)'
	DD	04H
	DD	00H
	DD	0ffffffffH
	DD	00H
	DD	00H
rdata$r	ENDS
;	COMDAT ??_R0?AVCSkinButton@@@8
_DATA	SEGMENT
??_R0?AVCSkinButton@@@8 DD FLAT:??_7type_info@@6B@	; CSkinButton `RTTI Type Descriptor'
	DD	00H
	DB	'.?AVCSkinButton@@', 00H
_DATA	ENDS
;	COMDAT ??_R1A@?0A@A@CButton@@8
rdata$r	SEGMENT
??_R1A@?0A@A@CButton@@8 DD FLAT:??_R0?AVCButton@@@8	; CButton::`RTTI Base Class Descriptor at (0,-1,0,0)'
	DD	03H
	DD	00H
	DD	0ffffffffH
	DD	00H
	DD	00H
rdata$r	ENDS
;	COMDAT ??_R0?AVCButton@@@8
_DATA	SEGMENT
??_R0?AVCButton@@@8 DD FLAT:??_7type_info@@6B@		; CButton `RTTI Type Descriptor'
	DD	00H
	DB	'.?AVCButton@@', 00H
_DATA	ENDS
;	COMDAT ??_R1A@?0A@A@CWnd@@8
rdata$r	SEGMENT
??_R1A@?0A@A@CWnd@@8 DD FLAT:??_R0?AVCWnd@@@8		; CWnd::`RTTI Base Class Descriptor at (0,-1,0,0)'
	DD	02H
	DD	00H
	DD	0ffffffffH
	DD	00H
	DD	00H
rdata$r	ENDS
;	COMDAT ??_R0?AVCWnd@@@8
_DATA	SEGMENT
??_R0?AVCWnd@@@8 DD FLAT:??_7type_info@@6B@		; CWnd `RTTI Type Descriptor'
	DD	00H
	DB	'.?AVCWnd@@', 00H
_DATA	ENDS
;	COMDAT ??_R1A@?0A@A@CCmdTarget@@8
rdata$r	SEGMENT
??_R1A@?0A@A@CCmdTarget@@8 DD FLAT:??_R0?AVCCmdTarget@@@8 ; CCmdTarget::`RTTI Base Class Descriptor at (0,-1,0,0)'
	DD	01H
	DD	00H
	DD	0ffffffffH
	DD	00H
	DD	00H
rdata$r	ENDS
;	COMDAT ??_R0?AVCCmdTarget@@@8
_DATA	SEGMENT
??_R0?AVCCmdTarget@@@8 DD FLAT:??_7type_info@@6B@	; CCmdTarget `RTTI Type Descriptor'
	DD	00H
	DB	'.?AVCCmdTarget@@', 00H
_DATA	ENDS
;	COMDAT ??_R1A@?0A@A@CObject@@8
rdata$r	SEGMENT
??_R1A@?0A@A@CObject@@8 DD FLAT:??_R0?AVCObject@@@8	; CObject::`RTTI Base Class Descriptor at (0,-1,0,0)'
	DD	00H
	DD	00H
	DD	0ffffffffH
	DD	00H
	DD	00H
rdata$r	ENDS
;	COMDAT ??_R0?AVCObject@@@8
_DATA	SEGMENT
??_R0?AVCObject@@@8 DD FLAT:??_7type_info@@6B@		; CObject `RTTI Type Descriptor'
	DD	00H
	DB	'.?AVCObject@@', 00H
; Function compile flags: /Odt
_DATA	ENDS
_TEXT	SEGMENT
_this$ = -4						; size = 4
??0CSubSkinButton@@QAE@XZ PROC NEAR			; CSubSkinButton::CSubSkinButton
; _this$ = ecx

; 21   : {

  00020	55		 push	 ebp
  00021	8b ec		 mov	 ebp, esp
  00023	51		 push	 ecx
  00024	89 4d fc	 mov	 DWORD PTR _this$[ebp], ecx
  00027	8b 4d fc	 mov	 ecx, DWORD PTR _this$[ebp]
  0002a	e8 00 00 00 00	 call	 ??0CSkinButton@@QAE@XZ	; CSkinButton::CSkinButton
  0002f	8b 45 fc	 mov	 eax, DWORD PTR _this$[ebp]
  00032	c7 00 00 00 00
	00		 mov	 DWORD PTR [eax], OFFSET FLAT:??_7CSubSkinButton@@6B@
  00038	8b 4d fc	 mov	 ecx, DWORD PTR _this$[ebp]
  0003b	81 c1 4c 01 00
	00		 add	 ecx, 332		; 0000014cH
  00041	ff 15 00 00 00
	00		 call	 DWORD PTR __imp_??0?$CStringT@DV?$StrTraitMFC_DLL@DV?$ChTraitsCRT@D@ATL@@@@@ATL@@QAE@XZ

; 22   : 	//m_pPngHoverImage = NULL;
; 23   : 	m_pPngDeleteDown = NULL;

  00047	8b 4d fc	 mov	 ecx, DWORD PTR _this$[ebp]
  0004a	c7 81 34 01 00
	00 00 00 00 00	 mov	 DWORD PTR [ecx+308], 0

; 24   : 	m_pPngDeleteOver = NULL;

  00054	8b 55 fc	 mov	 edx, DWORD PTR _this$[ebp]
  00057	c7 82 38 01 00
	00 00 00 00 00	 mov	 DWORD PTR [edx+312], 0

; 25   : 	m_pPngDeleteNormal = NULL;

  00061	8b 45 fc	 mov	 eax, DWORD PTR _this$[ebp]
  00064	c7 80 3c 01 00
	00 00 00 00 00	 mov	 DWORD PTR [eax+316], 0

; 26   : 
; 27   : 	m_pPngFrame = NULL;

  0006e	8b 4d fc	 mov	 ecx, DWORD PTR _this$[ebp]
  00071	c7 81 40 01 00
	00 00 00 00 00	 mov	 DWORD PTR [ecx+320], 0

; 28   : 	m_bClickPng = 0;

  0007b	8b 55 fc	 mov	 edx, DWORD PTR _this$[ebp]
  0007e	c7 82 44 01 00
	00 00 00 00 00	 mov	 DWORD PTR [edx+324], 0

; 29   : 	m_bShowDel = FALSE;

  00088	8b 45 fc	 mov	 eax, DWORD PTR _this$[ebp]
  0008b	c7 80 48 01 00
	00 00 00 00 00	 mov	 DWORD PTR [eax+328], 0

; 30   : }

  00095	8b 45 fc	 mov	 eax, DWORD PTR _this$[ebp]
  00098	8b e5		 mov	 esp, ebp
  0009a	5d		 pop	 ebp
  0009b	c3		 ret	 0
??0CSubSkinButton@@QAE@XZ ENDP				; CSubSkinButton::CSubSkinButton
_TEXT	ENDS
PUBLIC	??1CSubSkinButton@@UAE@XZ			; CSubSkinButton::~CSubSkinButton
PUBLIC	??3CObject@@SGXPAX@Z				; CObject::operator delete
; Function compile flags: /Odt
;	COMDAT ??_GCSubSkinButton@@UAEPAXI@Z
_TEXT	SEGMENT
_this$ = -4						; size = 4
___flags$ = 8						; size = 4
??_GCSubSkinButton@@UAEPAXI@Z PROC NEAR			; CSubSkinButton::`scalar deleting destructor', COMDAT
; _this$ = ecx
  00000	55		 push	 ebp
  00001	8b ec		 mov	 ebp, esp
  00003	51		 push	 ecx
  00004	89 4d fc	 mov	 DWORD PTR _this$[ebp], ecx
  00007	8b 4d fc	 mov	 ecx, DWORD PTR _this$[ebp]
  0000a	e8 00 00 00 00	 call	 ??1CSubSkinButton@@UAE@XZ ; CSubSkinButton::~CSubSkinButton
  0000f	8b 45 08	 mov	 eax, DWORD PTR ___flags$[ebp]
  00012	83 e0 01	 and	 eax, 1
  00015	74 09		 je	 SHORT $L198816
  00017	8b 4d fc	 mov	 ecx, DWORD PTR _this$[ebp]
  0001a	51		 push	 ecx
  0001b	e8 00 00 00 00	 call	 ??3CObject@@SGXPAX@Z	; CObject::operator delete
$L198816:
  00020	8b 45 fc	 mov	 eax, DWORD PTR _this$[ebp]
  00023	8b e5		 mov	 esp, ebp
  00025	5d		 pop	 ebp
  00026	c2 04 00	 ret	 4
??_GCSubSkinButton@@UAEPAXI@Z ENDP			; CSubSkinButton::`scalar deleting destructor'
_TEXT	ENDS
EXTRN	__imp_??1?$CStringT@DV?$StrTraitMFC_DLL@DV?$ChTraitsCRT@D@ATL@@@@@ATL@@QAE@XZ:NEAR
EXTRN	__except_list:DWORD
EXTRN	___CxxFrameHandler:NEAR
EXTRN	??1CSkinButton@@UAE@XZ:NEAR			; CSkinButton::~CSkinButton
xdata$x	SEGMENT
$T199980 DD	0ffffffffH
	DD	FLAT:$L199972
	DD	00H
	DD	FLAT:$L199973
$T199977 DD	019930520H
	DD	02H
	DD	FLAT:$T199980
	DD	2 DUP(00H)
	DD	2 DUP(00H)
; Function compile flags: /Odt
xdata$x	ENDS
_TEXT	SEGMENT
tv140 = -64						; size = 4
tv130 = -60						; size = 4
tv88 = -56						; size = 4
tv78 = -52						; size = 4
_this$ = -48						; size = 4
$T199969 = -44						; size = 4
$T199968 = -40						; size = 4
$T199965 = -36						; size = 4
$T199964 = -32						; size = 4
$T199961 = -28						; size = 4
$T199960 = -24						; size = 4
$T199957 = -20						; size = 4
$T199956 = -16						; size = 4
__$EHRec$ = -12						; size = 12
??1CSubSkinButton@@UAE@XZ PROC NEAR			; CSubSkinButton::~CSubSkinButton
; _this$ = ecx

; 33   : {

  000a0	55		 push	 ebp
  000a1	8b ec		 mov	 ebp, esp
  000a3	6a ff		 push	 -1
  000a5	68 00 00 00 00	 push	 __ehhandler$??1CSubSkinButton@@UAE@XZ
  000aa	64 a1 00 00 00
	00		 mov	 eax, DWORD PTR fs:__except_list
  000b0	50		 push	 eax
  000b1	64 89 25 00 00
	00 00		 mov	 DWORD PTR fs:__except_list, esp
  000b8	83 ec 34	 sub	 esp, 52			; 00000034H
  000bb	89 4d d0	 mov	 DWORD PTR _this$[ebp], ecx
  000be	8b 45 d0	 mov	 eax, DWORD PTR _this$[ebp]
  000c1	c7 00 00 00 00
	00		 mov	 DWORD PTR [eax], OFFSET FLAT:??_7CSubSkinButton@@6B@
  000c7	c7 45 fc 01 00
	00 00		 mov	 DWORD PTR __$EHRec$[ebp+8], 1

; 34   : 	//if(m_pPngHoverImage) delete m_pPngHoverImage;
; 35   : 	if(m_pPngDeleteDown) delete m_pPngDeleteDown;

  000ce	8b 4d d0	 mov	 ecx, DWORD PTR _this$[ebp]
  000d1	83 b9 34 01 00
	00 00		 cmp	 DWORD PTR [ecx+308], 0
  000d8	74 30		 je	 SHORT $L198820
  000da	8b 55 d0	 mov	 edx, DWORD PTR _this$[ebp]
  000dd	8b 82 34 01 00
	00		 mov	 eax, DWORD PTR [edx+308]
  000e3	89 45 ec	 mov	 DWORD PTR $T199957[ebp], eax
  000e6	8b 4d ec	 mov	 ecx, DWORD PTR $T199957[ebp]
  000e9	89 4d f0	 mov	 DWORD PTR $T199956[ebp], ecx
  000ec	83 7d f0 00	 cmp	 DWORD PTR $T199956[ebp], 0
  000f0	74 11		 je	 SHORT $L199958
  000f2	6a 01		 push	 1
  000f4	8b 55 f0	 mov	 edx, DWORD PTR $T199956[ebp]
  000f7	8b 02		 mov	 eax, DWORD PTR [edx]
  000f9	8b 4d f0	 mov	 ecx, DWORD PTR $T199956[ebp]
  000fc	ff 10		 call	 DWORD PTR [eax]
  000fe	89 45 cc	 mov	 DWORD PTR tv78[ebp], eax
  00101	eb 07		 jmp	 SHORT $L198820
$L199958:
  00103	c7 45 cc 00 00
	00 00		 mov	 DWORD PTR tv78[ebp], 0
$L198820:

; 36   : 	if(m_pPngDeleteOver) delete m_pPngDeleteOver;

  0010a	8b 4d d0	 mov	 ecx, DWORD PTR _this$[ebp]
  0010d	83 b9 38 01 00
	00 00		 cmp	 DWORD PTR [ecx+312], 0
  00114	74 30		 je	 SHORT $L198823
  00116	8b 55 d0	 mov	 edx, DWORD PTR _this$[ebp]
  00119	8b 82 38 01 00
	00		 mov	 eax, DWORD PTR [edx+312]
  0011f	89 45 e4	 mov	 DWORD PTR $T199961[ebp], eax
  00122	8b 4d e4	 mov	 ecx, DWORD PTR $T199961[ebp]
  00125	89 4d e8	 mov	 DWORD PTR $T199960[ebp], ecx
  00128	83 7d e8 00	 cmp	 DWORD PTR $T199960[ebp], 0
  0012c	74 11		 je	 SHORT $L199962
  0012e	6a 01		 push	 1
  00130	8b 55 e8	 mov	 edx, DWORD PTR $T199960[ebp]
  00133	8b 02		 mov	 eax, DWORD PTR [edx]
  00135	8b 4d e8	 mov	 ecx, DWORD PTR $T199960[ebp]
  00138	ff 10		 call	 DWORD PTR [eax]
  0013a	89 45 c8	 mov	 DWORD PTR tv88[ebp], eax
  0013d	eb 07		 jmp	 SHORT $L198823
$L199962:
  0013f	c7 45 c8 00 00
	00 00		 mov	 DWORD PTR tv88[ebp], 0
$L198823:

; 37   : 	if(m_pPngDeleteNormal) delete m_pPngDeleteNormal;

  00146	8b 4d d0	 mov	 ecx, DWORD PTR _this$[ebp]
  00149	83 b9 3c 01 00
	00 00		 cmp	 DWORD PTR [ecx+316], 0
  00150	74 30		 je	 SHORT $L198826
  00152	8b 55 d0	 mov	 edx, DWORD PTR _this$[ebp]
  00155	8b 82 3c 01 00
	00		 mov	 eax, DWORD PTR [edx+316]
  0015b	89 45 dc	 mov	 DWORD PTR $T199965[ebp], eax
  0015e	8b 4d dc	 mov	 ecx, DWORD PTR $T199965[ebp]
  00161	89 4d e0	 mov	 DWORD PTR $T199964[ebp], ecx
  00164	83 7d e0 00	 cmp	 DWORD PTR $T199964[ebp], 0
  00168	74 11		 je	 SHORT $L199966
  0016a	6a 01		 push	 1
  0016c	8b 55 e0	 mov	 edx, DWORD PTR $T199964[ebp]
  0016f	8b 02		 mov	 eax, DWORD PTR [edx]
  00171	8b 4d e0	 mov	 ecx, DWORD PTR $T199964[ebp]
  00174	ff 10		 call	 DWORD PTR [eax]
  00176	89 45 c4	 mov	 DWORD PTR tv130[ebp], eax
  00179	eb 07		 jmp	 SHORT $L198826
$L199966:
  0017b	c7 45 c4 00 00
	00 00		 mov	 DWORD PTR tv130[ebp], 0
$L198826:

; 38   : 	if(m_pPngFrame) delete m_pPngFrame;

  00182	8b 4d d0	 mov	 ecx, DWORD PTR _this$[ebp]
  00185	83 b9 40 01 00
	00 00		 cmp	 DWORD PTR [ecx+320], 0
  0018c	74 30		 je	 SHORT $L198819
  0018e	8b 55 d0	 mov	 edx, DWORD PTR _this$[ebp]
  00191	8b 82 40 01 00
	00		 mov	 eax, DWORD PTR [edx+320]
  00197	89 45 d4	 mov	 DWORD PTR $T199969[ebp], eax
  0019a	8b 4d d4	 mov	 ecx, DWORD PTR $T199969[ebp]
  0019d	89 4d d8	 mov	 DWORD PTR $T199968[ebp], ecx
  001a0	83 7d d8 00	 cmp	 DWORD PTR $T199968[ebp], 0
  001a4	74 11		 je	 SHORT $L199970
  001a6	6a 01		 push	 1
  001a8	8b 55 d8	 mov	 edx, DWORD PTR $T199968[ebp]
  001ab	8b 02		 mov	 eax, DWORD PTR [edx]
  001ad	8b 4d d8	 mov	 ecx, DWORD PTR $T199968[ebp]
  001b0	ff 10		 call	 DWORD PTR [eax]
  001b2	89 45 c0	 mov	 DWORD PTR tv140[ebp], eax
  001b5	eb 07		 jmp	 SHORT $L198819
$L199970:
  001b7	c7 45 c0 00 00
	00 00		 mov	 DWORD PTR tv140[ebp], 0
$L198819:

; 39   : }

  001be	c6 45 fc 00	 mov	 BYTE PTR __$EHRec$[ebp+8], 0
  001c2	8b 4d d0	 mov	 ecx, DWORD PTR _this$[ebp]
  001c5	81 c1 4c 01 00
	00		 add	 ecx, 332		; 0000014cH
  001cb	ff 15 00 00 00
	00		 call	 DWORD PTR __imp_??1?$CStringT@DV?$StrTraitMFC_DLL@DV?$ChTraitsCRT@D@ATL@@@@@ATL@@QAE@XZ
  001d1	c7 45 fc ff ff
	ff ff		 mov	 DWORD PTR __$EHRec$[ebp+8], -1
  001d8	8b 4d d0	 mov	 ecx, DWORD PTR _this$[ebp]
  001db	e8 00 00 00 00	 call	 ??1CSkinButton@@UAE@XZ	; CSkinButton::~CSkinButton
  001e0	8b 4d f4	 mov	 ecx, DWORD PTR __$EHRec$[ebp]
  001e3	64 89 0d 00 00
	00 00		 mov	 DWORD PTR fs:__except_list, ecx
  001ea	8b e5		 mov	 esp, ebp
  001ec	5d		 pop	 ebp
  001ed	c3		 ret	 0
_TEXT	ENDS
text$x	SEGMENT
$L199972:
  00000	8b 4d d0	 mov	 ecx, DWORD PTR _this$[ebp]
  00003	e9 00 00 00 00	 jmp	 ??1CSkinButton@@UAE@XZ	; CSkinButton::~CSkinButton
$L199973:
  00008	8b 4d d0	 mov	 ecx, DWORD PTR _this$[ebp]
  0000b	81 c1 4c 01 00
	00		 add	 ecx, 332		; 0000014cH
  00011	ff 25 00 00 00
	00		 jmp	 DWORD PTR __imp_??1?$CStringT@DV?$StrTraitMFC_DLL@DV?$ChTraitsCRT@D@ATL@@@@@ATL@@QAE@XZ
__ehhandler$??1CSubSkinButton@@UAE@XZ:
  00017	b8 00 00 00 00	 mov	 eax, OFFSET FLAT:$T199977
  0001c	e9 00 00 00 00	 jmp	 ___CxxFrameHandler
text$x	ENDS
??1CSubSkinButton@@UAE@XZ ENDP				; CSubSkinButton::~CSubSkinButton
PUBLIC	?GetClientRect@CWnd@@QBEXPAUtagRECT@@@Z		; CWnd::GetClientRect
PUBLIC	??0CRect@@QAE@XZ				; CRect::CRect
PUBLIC	?SetRect@CRect@@QAEXHHHH@Z			; CRect::SetRect
PUBLIC	??HATL@@YA?AV?$CStringT@DV?$StrTraitMFC_DLL@DV?$ChTraitsCRT@D@ATL@@@@@0@PBDABV10@@Z ; ATL::operator+
PUBLIC	?GetWidth@Image@Gdiplus@@QAEIXZ			; Gdiplus::Image::GetWidth
PUBLIC	?GetHeight@Image@Gdiplus@@QAEIXZ		; Gdiplus::Image::GetHeight
EXTRN	__imp_??B?$CSimpleStringT@D$00@ATL@@QBEPBDXZ:NEAR
EXTRN	__imp_?LogUserActMsg@@YAXABV?$basic_string@DU?$char_traits@D@std@@V?$allocator@D@2@@std@@0@Z:NEAR
EXTRN	__imp__PtInRect@12:NEAR
EXTRN	_strcmp:NEAR
EXTRN	__imp_??0?$basic_string@DU?$char_traits@D@std@@V?$allocator@D@2@@std@@QAE@PBD@Z:NEAR
EXTRN	__imp_??1?$basic_string@DU?$char_traits@D@std@@V?$allocator@D@2@@std@@QAE@XZ:NEAR
EXTRN	?OnLButtonDown@CSkinButton@@QAEXIVCPoint@@@Z:NEAR ; CSkinButton::OnLButtonDown
xdata$x	SEGMENT
$T199993 DD	0ffffffffH
	DD	FLAT:$L199987
	DD	00H
	DD	FLAT:$L199988
	DD	01H
	DD	FLAT:$L199989
$T199991 DD	019930520H
	DD	03H
	DD	FLAT:$T199993
	DD	2 DUP(00H)
	DD	2 DUP(00H)
; Function compile flags: /Odt
xdata$x	ENDS
_TEXT	SEGMENT
tv160 = -132						; size = 4
tv161 = -128						; size = 4
tv158 = -124						; size = 4
tv149 = -120						; size = 4
_this$ = -116						; size = 4
$T199986 = -112						; size = 28
$T199985 = -84						; size = 4
$T199984 = -80						; size = 28
$T199983 = -52						; size = 8
_rc$ = -44						; size = 16
_delrc$ = -28						; size = 16
__$EHRec$ = -12						; size = 12
_nFlags$ = 8						; size = 4
_point$ = 12						; size = 8
?OnLButtonDown@CSubSkinButton@@QAEXIVCPoint@@@Z PROC NEAR ; CSubSkinButton::OnLButtonDown
; _this$ = ecx

; 42   : {

  001f0	55		 push	 ebp
  001f1	8b ec		 mov	 ebp, esp
  001f3	6a ff		 push	 -1
  001f5	68 00 00 00 00	 push	 __ehhandler$?OnLButtonDown@CSubSkinButton@@QAEXIVCPoint@@@Z
  001fa	64 a1 00 00 00
	00		 mov	 eax, DWORD PTR fs:__except_list
  00200	50		 push	 eax
  00201	64 89 25 00 00
	00 00		 mov	 DWORD PTR fs:__except_list, esp
  00208	83 ec 78	 sub	 esp, 120		; 00000078H
  0020b	89 4d 8c	 mov	 DWORD PTR _this$[ebp], ecx

; 43   : 	CRect rc;

  0020e	8d 4d d4	 lea	 ecx, DWORD PTR _rc$[ebp]
  00211	e8 00 00 00 00	 call	 ??0CRect@@QAE@XZ	; CRect::CRect

; 44   : 	GetClientRect(&rc);

  00216	8d 45 d4	 lea	 eax, DWORD PTR _rc$[ebp]
  00219	50		 push	 eax
  0021a	8b 4d 8c	 mov	 ecx, DWORD PTR _this$[ebp]
  0021d	e8 00 00 00 00	 call	 ?GetClientRect@CWnd@@QBEXPAUtagRECT@@@Z ; CWnd::GetClientRect

; 45   : 	CRect delrc;

  00222	8d 4d e4	 lea	 ecx, DWORD PTR _delrc$[ebp]
  00225	e8 00 00 00 00	 call	 ??0CRect@@QAE@XZ	; CRect::CRect

; 46   : 
; 47   : 	if(m_pPngDeleteNormal)

  0022a	8b 4d 8c	 mov	 ecx, DWORD PTR _this$[ebp]
  0022d	83 b9 3c 01 00
	00 00		 cmp	 DWORD PTR [ecx+316], 0
  00234	0f 84 36 01 00
	00		 je	 $L198839

; 48   : 	{
; 49   : 		delrc.SetRect(rc.right-m_pPngDeleteNormal->m_pBitmap->GetWidth()-5,2,rc.right+2,2+m_pPngDeleteNormal->m_pBitmap->GetHeight());

  0023a	8b 55 8c	 mov	 edx, DWORD PTR _this$[ebp]
  0023d	8b 82 3c 01 00
	00		 mov	 eax, DWORD PTR [edx+316]
  00243	8b 48 04	 mov	 ecx, DWORD PTR [eax+4]
  00246	e8 00 00 00 00	 call	 ?GetHeight@Image@Gdiplus@@QAEIXZ ; Gdiplus::Image::GetHeight
  0024b	83 c0 02	 add	 eax, 2
  0024e	50		 push	 eax
  0024f	8b 4d dc	 mov	 ecx, DWORD PTR _rc$[ebp+8]
  00252	83 c1 02	 add	 ecx, 2
  00255	51		 push	 ecx
  00256	6a 02		 push	 2
  00258	8b 55 8c	 mov	 edx, DWORD PTR _this$[ebp]
  0025b	8b 82 3c 01 00
	00		 mov	 eax, DWORD PTR [edx+316]
  00261	8b 48 04	 mov	 ecx, DWORD PTR [eax+4]
  00264	e8 00 00 00 00	 call	 ?GetWidth@Image@Gdiplus@@QAEIXZ ; Gdiplus::Image::GetWidth
  00269	8b 4d dc	 mov	 ecx, DWORD PTR _rc$[ebp+8]
  0026c	2b c8		 sub	 ecx, eax
  0026e	83 e9 05	 sub	 ecx, 5
  00271	51		 push	 ecx
  00272	8d 4d e4	 lea	 ecx, DWORD PTR _delrc$[ebp]
  00275	e8 00 00 00 00	 call	 ?SetRect@CRect@@QAEXHHHH@Z ; CRect::SetRect

; 50   : 		if(PtInRect(&delrc,point)&& strcmp(m_string,"1"))//&&m_bShowDel

  0027a	8b 55 0c	 mov	 edx, DWORD PTR _point$[ebp]
  0027d	89 55 cc	 mov	 DWORD PTR $T199983[ebp], edx
  00280	8b 45 10	 mov	 eax, DWORD PTR _point$[ebp+4]
  00283	89 45 d0	 mov	 DWORD PTR $T199983[ebp+4], eax
  00286	8b 4d d0	 mov	 ecx, DWORD PTR $T199983[ebp+4]
  00289	51		 push	 ecx
  0028a	8b 55 cc	 mov	 edx, DWORD PTR $T199983[ebp]
  0028d	52		 push	 edx
  0028e	8d 45 e4	 lea	 eax, DWORD PTR _delrc$[ebp]
  00291	50		 push	 eax
  00292	ff 15 00 00 00
	00		 call	 DWORD PTR __imp__PtInRect@12
  00298	85 c0		 test	 eax, eax
  0029a	0f 84 d0 00 00
	00		 je	 $L198839
  002a0	68 00 00 00 00	 push	 OFFSET FLAT:$SG198842
  002a5	8b 4d 8c	 mov	 ecx, DWORD PTR _this$[ebp]
  002a8	81 c1 18 01 00
	00		 add	 ecx, 280		; 00000118H
  002ae	ff 15 00 00 00
	00		 call	 DWORD PTR __imp_??B?$CSimpleStringT@D$00@ATL@@QBEPBDXZ
  002b4	50		 push	 eax
  002b5	e8 00 00 00 00	 call	 _strcmp
  002ba	83 c4 08	 add	 esp, 8
  002bd	85 c0		 test	 eax, eax
  002bf	0f 84 ab 00 00
	00		 je	 $L198839

; 51   : 		{
; 52   : 			m_bClickPng = 1;

  002c5	8b 4d 8c	 mov	 ecx, DWORD PTR _this$[ebp]
  002c8	c7 81 44 01 00
	00 01 00 00 00	 mov	 DWORD PTR [ecx+324], 1

; 53   : 			LogUserActMsg(STR_USER_CLICK, string("BTN:DELETE_BTN_"+m_string));

  002d2	68 00 00 00 00	 push	 OFFSET FLAT:$SG198847
  002d7	8d 4d 90	 lea	 ecx, DWORD PTR $T199986[ebp]
  002da	ff 15 00 00 00
	00		 call	 DWORD PTR __imp_??0?$basic_string@DU?$char_traits@D@std@@V?$allocator@D@2@@std@@QAE@PBD@Z
  002e0	c7 45 fc 00 00
	00 00		 mov	 DWORD PTR __$EHRec$[ebp+8], 0
  002e7	8b 55 8c	 mov	 edx, DWORD PTR _this$[ebp]
  002ea	81 c2 18 01 00
	00		 add	 edx, 280		; 00000118H
  002f0	52		 push	 edx
  002f1	68 00 00 00 00	 push	 OFFSET FLAT:$SG198846
  002f6	8d 45 ac	 lea	 eax, DWORD PTR $T199985[ebp]
  002f9	50		 push	 eax
  002fa	e8 00 00 00 00	 call	 ??HATL@@YA?AV?$CStringT@DV?$StrTraitMFC_DLL@DV?$ChTraitsCRT@D@ATL@@@@@0@PBDABV10@@Z ; ATL::operator+
  002ff	83 c4 0c	 add	 esp, 12			; 0000000cH
  00302	89 45 88	 mov	 DWORD PTR tv149[ebp], eax
  00305	8b 4d 88	 mov	 ecx, DWORD PTR tv149[ebp]
  00308	89 4d 84	 mov	 DWORD PTR tv158[ebp], ecx
  0030b	c6 45 fc 01	 mov	 BYTE PTR __$EHRec$[ebp+8], 1
  0030f	8b 4d 84	 mov	 ecx, DWORD PTR tv158[ebp]
  00312	ff 15 00 00 00
	00		 call	 DWORD PTR __imp_??B?$CSimpleStringT@D$00@ATL@@QBEPBDXZ
  00318	50		 push	 eax
  00319	8d 4d b0	 lea	 ecx, DWORD PTR $T199984[ebp]
  0031c	ff 15 00 00 00
	00		 call	 DWORD PTR __imp_??0?$basic_string@DU?$char_traits@D@std@@V?$allocator@D@2@@std@@QAE@PBD@Z
  00322	89 45 80	 mov	 DWORD PTR tv161[ebp], eax
  00325	8b 55 80	 mov	 edx, DWORD PTR tv161[ebp]
  00328	89 95 7c ff ff
	ff		 mov	 DWORD PTR tv160[ebp], edx
  0032e	c6 45 fc 02	 mov	 BYTE PTR __$EHRec$[ebp+8], 2
  00332	8b 85 7c ff ff
	ff		 mov	 eax, DWORD PTR tv160[ebp]
  00338	50		 push	 eax
  00339	8d 4d 90	 lea	 ecx, DWORD PTR $T199986[ebp]
  0033c	51		 push	 ecx
  0033d	ff 15 00 00 00
	00		 call	 DWORD PTR __imp_?LogUserActMsg@@YAXABV?$basic_string@DU?$char_traits@D@std@@V?$allocator@D@2@@std@@0@Z
  00343	83 c4 08	 add	 esp, 8
  00346	c6 45 fc 01	 mov	 BYTE PTR __$EHRec$[ebp+8], 1
  0034a	8d 4d b0	 lea	 ecx, DWORD PTR $T199984[ebp]
  0034d	ff 15 00 00 00
	00		 call	 DWORD PTR __imp_??1?$basic_string@DU?$char_traits@D@std@@V?$allocator@D@2@@std@@QAE@XZ
  00353	c6 45 fc 00	 mov	 BYTE PTR __$EHRec$[ebp+8], 0
  00357	8d 4d ac	 lea	 ecx, DWORD PTR $T199985[ebp]
  0035a	ff 15 00 00 00
	00		 call	 DWORD PTR __imp_??1?$CStringT@DV?$StrTraitMFC_DLL@DV?$ChTraitsCRT@D@ATL@@@@@ATL@@QAE@XZ
  00360	c7 45 fc ff ff
	ff ff		 mov	 DWORD PTR __$EHRec$[ebp+8], -1
  00367	8d 4d 90	 lea	 ecx, DWORD PTR $T199986[ebp]
  0036a	ff 15 00 00 00
	00		 call	 DWORD PTR __imp_??1?$basic_string@DU?$char_traits@D@std@@V?$allocator@D@2@@std@@QAE@XZ
$L198839:

; 54   : 		}
; 55   : 	}
; 56   : 	CSkinButton::OnLButtonDown(nFlags, point);

  00370	8b 55 10	 mov	 edx, DWORD PTR _point$[ebp+4]
  00373	52		 push	 edx
  00374	8b 45 0c	 mov	 eax, DWORD PTR _point$[ebp]
  00377	50		 push	 eax
  00378	8b 4d 08	 mov	 ecx, DWORD PTR _nFlags$[ebp]
  0037b	51		 push	 ecx
  0037c	8b 4d 8c	 mov	 ecx, DWORD PTR _this$[ebp]
  0037f	e8 00 00 00 00	 call	 ?OnLButtonDown@CSkinButton@@QAEXIVCPoint@@@Z ; CSkinButton::OnLButtonDown

; 57   : }

  00384	8b 4d f4	 mov	 ecx, DWORD PTR __$EHRec$[ebp]
  00387	64 89 0d 00 00
	00 00		 mov	 DWORD PTR fs:__except_list, ecx
  0038e	8b e5		 mov	 esp, ebp
  00390	5d		 pop	 ebp
  00391	c2 0c 00	 ret	 12			; 0000000cH
_TEXT	ENDS
text$x	SEGMENT
$L199987:
  00021	8d 4d 90	 lea	 ecx, DWORD PTR $T199986[ebp]
  00024	ff 25 00 00 00
	00		 jmp	 DWORD PTR __imp_??1?$basic_string@DU?$char_traits@D@std@@V?$allocator@D@2@@std@@QAE@XZ
$L199988:
  0002a	8d 4d ac	 lea	 ecx, DWORD PTR $T199985[ebp]
  0002d	ff 25 00 00 00
	00		 jmp	 DWORD PTR __imp_??1?$CStringT@DV?$StrTraitMFC_DLL@DV?$ChTraitsCRT@D@ATL@@@@@ATL@@QAE@XZ
$L199989:
  00033	8d 4d b0	 lea	 ecx, DWORD PTR $T199984[ebp]
  00036	ff 25 00 00 00
	00		 jmp	 DWORD PTR __imp_??1?$basic_string@DU?$char_traits@D@std@@V?$allocator@D@2@@std@@QAE@XZ
__ehhandler$?OnLButtonDown@CSubSkinButton@@QAEXIVCPoint@@@Z:
  0003c	b8 00 00 00 00	 mov	 eax, OFFSET FLAT:$T199991
  00041	e9 00 00 00 00	 jmp	 ___CxxFrameHandler
text$x	ENDS
?OnLButtonDown@CSubSkinButton@@QAEXIVCPoint@@@Z ENDP	; CSubSkinButton::OnLButtonDown
PUBLIC	?DrawHoverImage@CSubSkinButton@@IAEXAAVGraphics@Gdiplus@@@Z ; CSubSkinButton::DrawHoverImage
PUBLIC	?DrawBtnFrame@CSubSkinButton@@IAEXAAVGraphics@Gdiplus@@@Z ; CSubSkinButton::DrawBtnFrame
PUBLIC	??0CRect@@QAE@HHHH@Z				; CRect::CRect
PUBLIC	?InflateRect@CRect@@QAEXHHHH@Z			; CRect::InflateRect
PUBLIC	?GetBitmapDimension@CBitmap@@QBE?AVCSize@@XZ	; CBitmap::GetBitmapDimension
PUBLIC	?GetText@CSkinButton@@QBE?AV?$CStringT@DV?$StrTraitMFC_DLL@DV?$ChTraitsCRT@D@ATL@@@@@ATL@@XZ ; CSkinButton::GetText
PUBLIC	??0Graphics@Gdiplus@@QAE@PAUHDC__@@@Z		; Gdiplus::Graphics::Graphics
PUBLIC	??1Graphics@Gdiplus@@QAE@XZ			; Gdiplus::Graphics::~Graphics
PUBLIC	?ReleaseHDC@Graphics@Gdiplus@@QAEXPAUHDC__@@@Z	; Gdiplus::Graphics::ReleaseHDC
EXTRN	__imp_?Trim@?$CStringT@DV?$StrTraitMFC_DLL@DV?$ChTraitsCRT@D@ATL@@@@@ATL@@QAEAAV12@XZ:NEAR
EXTRN	__imp__CreateSolidBrush@4:NEAR
EXTRN	__imp__DeleteObject@4:NEAR
EXTRN	__imp__FrameRect@12:NEAR
EXTRN	__imp__InflateRect@12:NEAR
EXTRN	?DrawButton@CButtonDraw@@QAEXPAVCWnd@@PAUtagDRAWITEMSTRUCT@@HHAAV?$CStringT@DV?$StrTraitMFC_DLL@DV?$ChTraitsCRT@D@ATL@@@@@ATL@@KKPAVCBitmap@@@Z:NEAR ; CButtonDraw::DrawButton
xdata$x	SEGMENT
$T200004 DD	0ffffffffH
	DD	FLAT:$L199999
	DD	00H
	DD	FLAT:$L200000
$T200002 DD	019930520H
	DD	02H
	DD	FLAT:$T200004
	DD	2 DUP(00H)
	DD	2 DUP(00H)
; Function compile flags: /Odt
xdata$x	ENDS
_TEXT	SEGMENT
tv164 = -100						; size = 4
tv159 = -96						; size = 4
_this$ = -92						; size = 4
_hHandle$198868 = -88					; size = 4
_lisrcHight$198863 = -84				; size = 4
_lisrcWidth$198864 = -80				; size = 4
_lsize$198860 = -76					; size = 8
_nY$198866 = -68					; size = 4
_lrcFrame$198867 = -64					; size = 16
_hbru2$198877 = -48					; size = 4
_nX$198865 = -44					; size = 4
_aRect$198862 = -40					; size = 16
_lstrTitle$ = -24					; size = 4
_graphics$ = -20					; size = 8
__$EHRec$ = -12						; size = 12
_lpDrawItemStruct$ = 8					; size = 4
?DrawItem@CSubSkinButton@@MAEXPAUtagDRAWITEMSTRUCT@@@Z PROC NEAR ; CSubSkinButton::DrawItem
; _this$ = ecx

; 60   : {

  003a0	55		 push	 ebp
  003a1	8b ec		 mov	 ebp, esp
  003a3	6a ff		 push	 -1
  003a5	68 00 00 00 00	 push	 __ehhandler$?DrawItem@CSubSkinButton@@MAEXPAUtagDRAWITEMSTRUCT@@@Z
  003aa	64 a1 00 00 00
	00		 mov	 eax, DWORD PTR fs:__except_list
  003b0	50		 push	 eax
  003b1	64 89 25 00 00
	00 00		 mov	 DWORD PTR fs:__except_list, esp
  003b8	83 ec 58	 sub	 esp, 88			; 00000058H
  003bb	89 4d a4	 mov	 DWORD PTR _this$[ebp], ecx

; 61   : 	ASSERT(lpDrawItemStruct != NULL);
; 62   : 	CString lstrTitle = GetText();

  003be	8d 45 e8	 lea	 eax, DWORD PTR _lstrTitle$[ebp]
  003c1	50		 push	 eax
  003c2	8b 4d a4	 mov	 ecx, DWORD PTR _this$[ebp]
  003c5	e8 00 00 00 00	 call	 ?GetText@CSkinButton@@QBE?AV?$CStringT@DV?$StrTraitMFC_DLL@DV?$ChTraitsCRT@D@ATL@@@@@ATL@@XZ ; CSkinButton::GetText
  003ca	c7 45 fc 00 00
	00 00		 mov	 DWORD PTR __$EHRec$[ebp+8], 0

; 63   : 	lstrTitle.Trim();

  003d1	8d 4d e8	 lea	 ecx, DWORD PTR _lstrTitle$[ebp]
  003d4	ff 15 00 00 00
	00		 call	 DWORD PTR __imp_?Trim@?$CStringT@DV?$StrTraitMFC_DLL@DV?$ChTraitsCRT@D@ATL@@@@@ATL@@QAEAAV12@XZ

; 64   : 	m_ButtonDraw.DrawButton(this, lpDrawItemStruct,m_bottonType, mbMouseOnButton,lstrTitle, m_colBegain, m_colEnd,m_BitMap);

  003da	8b 4d a4	 mov	 ecx, DWORD PTR _this$[ebp]
  003dd	8b 51 6c	 mov	 edx, DWORD PTR [ecx+108]
  003e0	52		 push	 edx
  003e1	8b 45 a4	 mov	 eax, DWORD PTR _this$[ebp]
  003e4	8b 88 20 01 00
	00		 mov	 ecx, DWORD PTR [eax+288]
  003ea	51		 push	 ecx
  003eb	8b 55 a4	 mov	 edx, DWORD PTR _this$[ebp]
  003ee	8b 82 1c 01 00
	00		 mov	 eax, DWORD PTR [edx+284]
  003f4	50		 push	 eax
  003f5	8d 4d e8	 lea	 ecx, DWORD PTR _lstrTitle$[ebp]
  003f8	51		 push	 ecx
  003f9	8b 55 a4	 mov	 edx, DWORD PTR _this$[ebp]
  003fc	8b 82 f8 00 00
	00		 mov	 eax, DWORD PTR [edx+248]
  00402	50		 push	 eax
  00403	8b 4d a4	 mov	 ecx, DWORD PTR _this$[ebp]
  00406	8b 91 24 01 00
	00		 mov	 edx, DWORD PTR [ecx+292]
  0040c	52		 push	 edx
  0040d	8b 45 08	 mov	 eax, DWORD PTR _lpDrawItemStruct$[ebp]
  00410	50		 push	 eax
  00411	8b 4d a4	 mov	 ecx, DWORD PTR _this$[ebp]
  00414	51		 push	 ecx
  00415	8b 4d a4	 mov	 ecx, DWORD PTR _this$[ebp]
  00418	83 c1 58	 add	 ecx, 88			; 00000058H
  0041b	e8 00 00 00 00	 call	 ?DrawButton@CButtonDraw@@QAEXPAVCWnd@@PAUtagDRAWITEMSTRUCT@@HHAAV?$CStringT@DV?$StrTraitMFC_DLL@DV?$ChTraitsCRT@D@ATL@@@@@ATL@@KKPAVCBitmap@@@Z ; CButtonDraw::DrawButton

; 65   : 
; 66   : 	Gdiplus::Graphics graphics(lpDrawItemStruct->hDC);

  00420	8b 55 08	 mov	 edx, DWORD PTR _lpDrawItemStruct$[ebp]
  00423	8b 42 18	 mov	 eax, DWORD PTR [edx+24]
  00426	50		 push	 eax
  00427	8d 4d ec	 lea	 ecx, DWORD PTR _graphics$[ebp]
  0042a	e8 00 00 00 00	 call	 ??0Graphics@Gdiplus@@QAE@PAUHDC__@@@Z ; Gdiplus::Graphics::Graphics
  0042f	c6 45 fc 01	 mov	 BYTE PTR __$EHRec$[ebp+8], 1

; 67   : 
; 68   : 	if(!mbMouseOnButton && !m_bSelected)

  00433	8b 4d a4	 mov	 ecx, DWORD PTR _this$[ebp]
  00436	83 b9 f8 00 00
	00 00		 cmp	 DWORD PTR [ecx+248], 0
  0043d	75 1a		 jne	 SHORT $L198856
  0043f	8b 55 a4	 mov	 edx, DWORD PTR _this$[ebp]
  00442	0f b6 82 f0 00
	00 00		 movzx	 eax, BYTE PTR [edx+240]
  00449	85 c0		 test	 eax, eax
  0044b	75 0c		 jne	 SHORT $L198856

; 69   : 		DrawBtnFrame(graphics);

  0044d	8d 4d ec	 lea	 ecx, DWORD PTR _graphics$[ebp]
  00450	51		 push	 ecx
  00451	8b 4d a4	 mov	 ecx, DWORD PTR _this$[ebp]
  00454	e8 00 00 00 00	 call	 ?DrawBtnFrame@CSubSkinButton@@IAEXAAVGraphics@Gdiplus@@@Z ; CSubSkinButton::DrawBtnFrame
$L198856:

; 70   : 
; 71   : 	if(mbMouseOnButton && strcmp(m_string,"1")) //&&m_bShowDel

  00459	8b 55 a4	 mov	 edx, DWORD PTR _this$[ebp]
  0045c	83 ba f8 00 00
	00 00		 cmp	 DWORD PTR [edx+248], 0
  00463	74 2d		 je	 SHORT $L198857
  00465	68 00 00 00 00	 push	 OFFSET FLAT:$SG198858
  0046a	8b 4d a4	 mov	 ecx, DWORD PTR _this$[ebp]
  0046d	81 c1 18 01 00
	00		 add	 ecx, 280		; 00000118H
  00473	ff 15 00 00 00
	00		 call	 DWORD PTR __imp_??B?$CSimpleStringT@D$00@ATL@@QBEPBDXZ
  00479	50		 push	 eax
  0047a	e8 00 00 00 00	 call	 _strcmp
  0047f	83 c4 08	 add	 esp, 8
  00482	85 c0		 test	 eax, eax
  00484	74 0c		 je	 SHORT $L198857

; 72   : 	{
; 73   : 		DrawHoverImage(graphics);

  00486	8d 45 ec	 lea	 eax, DWORD PTR _graphics$[ebp]
  00489	50		 push	 eax
  0048a	8b 4d a4	 mov	 ecx, DWORD PTR _this$[ebp]
  0048d	e8 00 00 00 00	 call	 ?DrawHoverImage@CSubSkinButton@@IAEXAAVGraphics@Gdiplus@@@Z ; CSubSkinButton::DrawHoverImage
$L198857:

; 74   : 	}
; 75   : 
; 76   : 	if( m_pPngImage && m_pPngImage->m_pBitmap && m_bSelected ) 

  00492	8b 4d a4	 mov	 ecx, DWORD PTR _this$[ebp]
  00495	83 b9 28 01 00
	00 00		 cmp	 DWORD PTR [ecx+296], 0
  0049c	0f 84 73 01 00
	00		 je	 $L198859
  004a2	8b 55 a4	 mov	 edx, DWORD PTR _this$[ebp]
  004a5	8b 82 28 01 00
	00		 mov	 eax, DWORD PTR [edx+296]
  004ab	83 78 04 00	 cmp	 DWORD PTR [eax+4], 0
  004af	0f 84 60 01 00
	00		 je	 $L198859
  004b5	8b 4d a4	 mov	 ecx, DWORD PTR _this$[ebp]
  004b8	0f b6 91 f0 00
	00 00		 movzx	 edx, BYTE PTR [ecx+240]
  004bf	85 d2		 test	 edx, edx
  004c1	0f 84 4e 01 00
	00		 je	 $L198859

; 77   : 	{
; 78   : 		CSize lsize = m_BitMap->GetBitmapDimension();

  004c7	8d 45 b4	 lea	 eax, DWORD PTR _lsize$198860[ebp]
  004ca	50		 push	 eax
  004cb	8b 4d a4	 mov	 ecx, DWORD PTR _this$[ebp]
  004ce	8b 49 6c	 mov	 ecx, DWORD PTR [ecx+108]
  004d1	e8 00 00 00 00	 call	 ?GetBitmapDimension@CBitmap@@QBE?AVCSize@@XZ ; CBitmap::GetBitmapDimension

; 79   : 
; 80   : 		RECT aRect = lpDrawItemStruct->rcItem;

  004d6	8b 55 08	 mov	 edx, DWORD PTR _lpDrawItemStruct$[ebp]
  004d9	83 c2 1c	 add	 edx, 28			; 0000001cH
  004dc	8b 02		 mov	 eax, DWORD PTR [edx]
  004de	89 45 d8	 mov	 DWORD PTR _aRect$198862[ebp], eax
  004e1	8b 4a 04	 mov	 ecx, DWORD PTR [edx+4]
  004e4	89 4d dc	 mov	 DWORD PTR _aRect$198862[ebp+4], ecx
  004e7	8b 42 08	 mov	 eax, DWORD PTR [edx+8]
  004ea	89 45 e0	 mov	 DWORD PTR _aRect$198862[ebp+8], eax
  004ed	8b 4a 0c	 mov	 ecx, DWORD PTR [edx+12]
  004f0	89 4d e4	 mov	 DWORD PTR _aRect$198862[ebp+12], ecx

; 81   : 
; 82   : 		int lisrcHight = aRect.bottom - aRect.top;

  004f3	8b 55 e4	 mov	 edx, DWORD PTR _aRect$198862[ebp+12]
  004f6	2b 55 dc	 sub	 edx, DWORD PTR _aRect$198862[ebp+4]
  004f9	89 55 ac	 mov	 DWORD PTR _lisrcHight$198863[ebp], edx

; 83   : 		int lisrcWidth = aRect.right  - aRect.left; 

  004fc	8b 45 e0	 mov	 eax, DWORD PTR _aRect$198862[ebp+8]
  004ff	2b 45 d8	 sub	 eax, DWORD PTR _aRect$198862[ebp]
  00502	89 45 b0	 mov	 DWORD PTR _lisrcWidth$198864[ebp], eax

; 84   : 
; 85   : 		int nX = (lisrcWidth-lsize.cx)>4? (lisrcWidth-lsize.cx)/2:2;

  00505	8b 4d b0	 mov	 ecx, DWORD PTR _lisrcWidth$198864[ebp]
  00508	2b 4d b4	 sub	 ecx, DWORD PTR _lsize$198860[ebp]
  0050b	83 f9 04	 cmp	 ecx, 4
  0050e	7e 10		 jle	 SHORT $L199995
  00510	8b 45 b0	 mov	 eax, DWORD PTR _lisrcWidth$198864[ebp]
  00513	2b 45 b4	 sub	 eax, DWORD PTR _lsize$198860[ebp]
  00516	99		 cdq
  00517	2b c2		 sub	 eax, edx
  00519	d1 f8		 sar	 eax, 1
  0051b	89 45 a0	 mov	 DWORD PTR tv159[ebp], eax
  0051e	eb 07		 jmp	 SHORT $L199996
$L199995:
  00520	c7 45 a0 02 00
	00 00		 mov	 DWORD PTR tv159[ebp], 2
$L199996:
  00527	8b 55 a0	 mov	 edx, DWORD PTR tv159[ebp]
  0052a	89 55 d4	 mov	 DWORD PTR _nX$198865[ebp], edx

; 86   : 		int nY = (lisrcHight-lsize.cy)>4? (lisrcHight-lsize.cy)/2:2;

  0052d	8b 45 ac	 mov	 eax, DWORD PTR _lisrcHight$198863[ebp]
  00530	2b 45 b8	 sub	 eax, DWORD PTR _lsize$198860[ebp+4]
  00533	83 f8 04	 cmp	 eax, 4
  00536	7e 10		 jle	 SHORT $L199997
  00538	8b 45 ac	 mov	 eax, DWORD PTR _lisrcHight$198863[ebp]
  0053b	2b 45 b8	 sub	 eax, DWORD PTR _lsize$198860[ebp+4]
  0053e	99		 cdq
  0053f	2b c2		 sub	 eax, edx
  00541	d1 f8		 sar	 eax, 1
  00543	89 45 9c	 mov	 DWORD PTR tv164[ebp], eax
  00546	eb 07		 jmp	 SHORT $L199998
$L199997:
  00548	c7 45 9c 02 00
	00 00		 mov	 DWORD PTR tv164[ebp], 2
$L199998:
  0054f	8b 4d 9c	 mov	 ecx, DWORD PTR tv164[ebp]
  00552	89 4d bc	 mov	 DWORD PTR _nY$198866[ebp], ecx

; 87   : 		CRect lrcFrame(nX,nY,nX+lsize.cx, nY+lsize.cy);

  00555	8b 55 bc	 mov	 edx, DWORD PTR _nY$198866[ebp]
  00558	03 55 b8	 add	 edx, DWORD PTR _lsize$198860[ebp+4]
  0055b	52		 push	 edx
  0055c	8b 45 d4	 mov	 eax, DWORD PTR _nX$198865[ebp]
  0055f	03 45 b4	 add	 eax, DWORD PTR _lsize$198860[ebp]
  00562	50		 push	 eax
  00563	8b 4d bc	 mov	 ecx, DWORD PTR _nY$198866[ebp]
  00566	51		 push	 ecx
  00567	8b 55 d4	 mov	 edx, DWORD PTR _nX$198865[ebp]
  0056a	52		 push	 edx
  0056b	8d 4d c0	 lea	 ecx, DWORD PTR _lrcFrame$198867[ebp]
  0056e	e8 00 00 00 00	 call	 ??0CRect@@QAE@HHHH@Z	; CRect::CRect

; 88   : 		HBRUSH hHandle = 0;

  00573	c7 45 a8 00 00
	00 00		 mov	 DWORD PTR _hHandle$198868[ebp], 0

; 89   : 		lrcFrame.InflateRect(1,1,1,1);

  0057a	6a 01		 push	 1
  0057c	6a 01		 push	 1
  0057e	6a 01		 push	 1
  00580	6a 01		 push	 1
  00582	8d 4d c0	 lea	 ecx, DWORD PTR _lrcFrame$198867[ebp]
  00585	e8 00 00 00 00	 call	 ?InflateRect@CRect@@QAEXHHHH@Z ; CRect::InflateRect

; 90   : 		hHandle = CreateSolidBrush(RGB(255,106,0));//(gWndColor.getColor(COLOL_CTROL)->structColBase->colFrame2);

  0058a	68 ff 6a 00 00	 push	 27391			; 00006affH
  0058f	ff 15 00 00 00
	00		 call	 DWORD PTR __imp__CreateSolidBrush@4
  00595	89 45 a8	 mov	 DWORD PTR _hHandle$198868[ebp], eax

; 91   : 		//::InflateRect(&lrcFrame,1,1);
; 92   : 		FrameRect(lpDrawItemStruct->hDC, &lrcFrame,(HBRUSH)hHandle );

  00598	8b 45 a8	 mov	 eax, DWORD PTR _hHandle$198868[ebp]
  0059b	50		 push	 eax
  0059c	8d 4d c0	 lea	 ecx, DWORD PTR _lrcFrame$198867[ebp]
  0059f	51		 push	 ecx
  005a0	8b 55 08	 mov	 edx, DWORD PTR _lpDrawItemStruct$[ebp]
  005a3	8b 42 18	 mov	 eax, DWORD PTR [edx+24]
  005a6	50		 push	 eax
  005a7	ff 15 00 00 00
	00		 call	 DWORD PTR __imp__FrameRect@12

; 93   : 		::InflateRect(&lrcFrame,-1,-1);

  005ad	6a ff		 push	 -1
  005af	6a ff		 push	 -1
  005b1	8d 4d c0	 lea	 ecx, DWORD PTR _lrcFrame$198867[ebp]
  005b4	51		 push	 ecx
  005b5	ff 15 00 00 00
	00		 call	 DWORD PTR __imp__InflateRect@12

; 94   : 		FrameRect(lpDrawItemStruct->hDC, &lrcFrame,(HBRUSH)hHandle );

  005bb	8b 55 a8	 mov	 edx, DWORD PTR _hHandle$198868[ebp]
  005be	52		 push	 edx
  005bf	8d 45 c0	 lea	 eax, DWORD PTR _lrcFrame$198867[ebp]
  005c2	50		 push	 eax
  005c3	8b 4d 08	 mov	 ecx, DWORD PTR _lpDrawItemStruct$[ebp]
  005c6	8b 51 18	 mov	 edx, DWORD PTR [ecx+24]
  005c9	52		 push	 edx
  005ca	ff 15 00 00 00
	00		 call	 DWORD PTR __imp__FrameRect@12

; 95   : 		::InflateRect(&lrcFrame,-2,-2);

  005d0	6a fe		 push	 -2			; fffffffeH
  005d2	6a fe		 push	 -2			; fffffffeH
  005d4	8d 45 c0	 lea	 eax, DWORD PTR _lrcFrame$198867[ebp]
  005d7	50		 push	 eax
  005d8	ff 15 00 00 00
	00		 call	 DWORD PTR __imp__InflateRect@12

; 96   : 		HBRUSH hbru2 = CreateSolidBrush(RGB(255,255,255));

  005de	68 ff ff ff 00	 push	 16777215		; 00ffffffH
  005e3	ff 15 00 00 00
	00		 call	 DWORD PTR __imp__CreateSolidBrush@4
  005e9	89 45 d0	 mov	 DWORD PTR _hbru2$198877[ebp], eax

; 97   : 		FrameRect(lpDrawItemStruct->hDC, &lrcFrame,hbru2 );

  005ec	8b 4d d0	 mov	 ecx, DWORD PTR _hbru2$198877[ebp]
  005ef	51		 push	 ecx
  005f0	8d 55 c0	 lea	 edx, DWORD PTR _lrcFrame$198867[ebp]
  005f3	52		 push	 edx
  005f4	8b 45 08	 mov	 eax, DWORD PTR _lpDrawItemStruct$[ebp]
  005f7	8b 48 18	 mov	 ecx, DWORD PTR [eax+24]
  005fa	51		 push	 ecx
  005fb	ff 15 00 00 00
	00		 call	 DWORD PTR __imp__FrameRect@12

; 98   : 		DeleteObject((HGDIOBJ)hHandle);

  00601	8b 55 a8	 mov	 edx, DWORD PTR _hHandle$198868[ebp]
  00604	52		 push	 edx
  00605	ff 15 00 00 00
	00		 call	 DWORD PTR __imp__DeleteObject@4

; 99   : 		DeleteObject(hbru2);

  0060b	8b 45 d0	 mov	 eax, DWORD PTR _hbru2$198877[ebp]
  0060e	50		 push	 eax
  0060f	ff 15 00 00 00
	00		 call	 DWORD PTR __imp__DeleteObject@4
$L198859:

; 100  : 	}	
; 101  : 	graphics.ReleaseHDC(lpDrawItemStruct->hDC);

  00615	8b 4d 08	 mov	 ecx, DWORD PTR _lpDrawItemStruct$[ebp]
  00618	8b 51 18	 mov	 edx, DWORD PTR [ecx+24]
  0061b	52		 push	 edx
  0061c	8d 4d ec	 lea	 ecx, DWORD PTR _graphics$[ebp]
  0061f	e8 00 00 00 00	 call	 ?ReleaseHDC@Graphics@Gdiplus@@QAEXPAUHDC__@@@Z ; Gdiplus::Graphics::ReleaseHDC

; 102  : }

  00624	c6 45 fc 00	 mov	 BYTE PTR __$EHRec$[ebp+8], 0
  00628	8d 4d ec	 lea	 ecx, DWORD PTR _graphics$[ebp]
  0062b	e8 00 00 00 00	 call	 ??1Graphics@Gdiplus@@QAE@XZ ; Gdiplus::Graphics::~Graphics
  00630	c7 45 fc ff ff
	ff ff		 mov	 DWORD PTR __$EHRec$[ebp+8], -1
  00637	8d 4d e8	 lea	 ecx, DWORD PTR _lstrTitle$[ebp]
  0063a	ff 15 00 00 00
	00		 call	 DWORD PTR __imp_??1?$CStringT@DV?$StrTraitMFC_DLL@DV?$ChTraitsCRT@D@ATL@@@@@ATL@@QAE@XZ
  00640	8b 4d f4	 mov	 ecx, DWORD PTR __$EHRec$[ebp]
  00643	64 89 0d 00 00
	00 00		 mov	 DWORD PTR fs:__except_list, ecx
  0064a	8b e5		 mov	 esp, ebp
  0064c	5d		 pop	 ebp
  0064d	c2 04 00	 ret	 4
_TEXT	ENDS
text$x	SEGMENT
$L199999:
  00046	8d 4d e8	 lea	 ecx, DWORD PTR _lstrTitle$[ebp]
  00049	ff 25 00 00 00
	00		 jmp	 DWORD PTR __imp_??1?$CStringT@DV?$StrTraitMFC_DLL@DV?$ChTraitsCRT@D@ATL@@@@@ATL@@QAE@XZ
$L200000:
  0004f	8d 4d ec	 lea	 ecx, DWORD PTR _graphics$[ebp]
  00052	e9 00 00 00 00	 jmp	 ??1Graphics@Gdiplus@@QAE@XZ ; Gdiplus::Graphics::~Graphics
__ehhandler$?DrawItem@CSubSkinButton@@MAEXPAUtagDRAWITEMSTRUCT@@@Z:
  00057	b8 00 00 00 00	 mov	 eax, OFFSET FLAT:$T200002
  0005c	e9 00 00 00 00	 jmp	 ___CxxFrameHandler
text$x	ENDS
?DrawItem@CSubSkinButton@@MAEXPAUtagDRAWITEMSTRUCT@@@Z ENDP ; CSubSkinButton::DrawItem
EXTRN	__imp_??0?$CStringT@DV?$StrTraitMFC_DLL@DV?$ChTraitsCRT@D@ATL@@@@@ATL@@QAE@ABV01@@Z:NEAR
; Function compile flags: /Odt
; File d:\boxgit\playbox\playbox\dev\prj\playbox\src\layoutmgr\changecolor\skinbotton.h
;	COMDAT ?GetText@CSkinButton@@QBE?AV?$CStringT@DV?$StrTraitMFC_DLL@DV?$ChTraitsCRT@D@ATL@@@@@ATL@@XZ
_TEXT	SEGMENT
_this$ = -8						; size = 4
$T200007 = -4						; size = 4
___$ReturnUdt$ = 8					; size = 4
?GetText@CSkinButton@@QBE?AV?$CStringT@DV?$StrTraitMFC_DLL@DV?$ChTraitsCRT@D@ATL@@@@@ATL@@XZ PROC NEAR ; CSkinButton::GetText, COMDAT
; _this$ = ecx

; 110  : 	CString GetText()const { return m_string; }

  00000	55		 push	 ebp
  00001	8b ec		 mov	 ebp, esp
  00003	83 ec 08	 sub	 esp, 8
  00006	89 4d f8	 mov	 DWORD PTR _this$[ebp], ecx
  00009	c7 45 fc 00 00
	00 00		 mov	 DWORD PTR $T200007[ebp], 0
  00010	8b 45 f8	 mov	 eax, DWORD PTR _this$[ebp]
  00013	05 18 01 00 00	 add	 eax, 280		; 00000118H
  00018	50		 push	 eax
  00019	8b 4d 08	 mov	 ecx, DWORD PTR ___$ReturnUdt$[ebp]
  0001c	ff 15 00 00 00
	00		 call	 DWORD PTR __imp_??0?$CStringT@DV?$StrTraitMFC_DLL@DV?$ChTraitsCRT@D@ATL@@@@@ATL@@QAE@ABV01@@Z
  00022	8b 4d fc	 mov	 ecx, DWORD PTR $T200007[ebp]
  00025	83 c9 01	 or	 ecx, 1
  00028	89 4d fc	 mov	 DWORD PTR $T200007[ebp], ecx
  0002b	8b 45 08	 mov	 eax, DWORD PTR ___$ReturnUdt$[ebp]
  0002e	8b e5		 mov	 esp, ebp
  00030	5d		 pop	 ebp
  00031	c2 04 00	 ret	 4
?GetText@CSkinButton@@QBE?AV?$CStringT@DV?$StrTraitMFC_DLL@DV?$ChTraitsCRT@D@ATL@@@@@ATL@@XZ ENDP ; CSkinButton::GetText
_TEXT	ENDS
PUBLIC	?InterlockedExchangePointer@@YGPAXPAPAXPAX@Z	; InterlockedExchangePointer
PUBLIC	?_AtlGetThreadACPFake@ATL@@YGIXZ		; ATL::_AtlGetThreadACPFake
PUBLIC	?_AtlGetThreadACPReal@ATL@@YGIXZ		; ATL::_AtlGetThreadACPReal
EXTRN	___security_cookie:DWORD
EXTRN	@__security_check_cookie@4:NEAR
EXTRN	__imp__GetVersionExA@4:NEAR
; Function compile flags: /Odt
; File d:\program files (x86)\microsoft visual studio .net 2003\vc7\atlmfc\include\atlconv.h
;	COMDAT ?_AtlGetThreadACPThunk@ATL@@YGIXZ
_TEXT	SEGMENT
_pfnGetThreadACP$ = -164				; size = 4
_ver$ = -160						; size = 148
__$ArrayPad$ = -4					; size = 4
__$ReturnAddr$ = 4					; size = 4
?_AtlGetThreadACPThunk@ATL@@YGIXZ PROC NEAR		; ATL::_AtlGetThreadACPThunk, COMDAT

; 134  : {

  00000	55		 push	 ebp
  00001	8b ec		 mov	 ebp, esp
  00003	81 ec a4 00 00
	00		 sub	 esp, 164		; 000000a4H
  00009	a1 00 00 00 00	 mov	 eax, DWORD PTR ___security_cookie
  0000e	89 45 fc	 mov	 DWORD PTR __$ArrayPad$[ebp], eax

; 135  : 	OSVERSIONINFO ver;
; 136  : 	ATLGETTHREADACP pfnGetThreadACP;
; 137  : 
; 138  : 	ver.dwOSVersionInfoSize = sizeof( ver );

  00011	c7 85 60 ff ff
	ff 94 00 00 00	 mov	 DWORD PTR _ver$[ebp], 148 ; 00000094H

; 139  : 	::GetVersionEx( &ver );

  0001b	8d 85 60 ff ff
	ff		 lea	 eax, DWORD PTR _ver$[ebp]
  00021	50		 push	 eax
  00022	ff 15 00 00 00
	00		 call	 DWORD PTR __imp__GetVersionExA@4

; 140  : 	if( (ver.dwPlatformId == VER_PLATFORM_WIN32_NT) && (ver.dwMajorVersion >= 5) )

  00028	83 bd 70 ff ff
	ff 02		 cmp	 DWORD PTR _ver$[ebp+16], 2
  0002f	75 15		 jne	 SHORT $L24173
  00031	83 bd 64 ff ff
	ff 05		 cmp	 DWORD PTR _ver$[ebp+4], 5
  00038	72 0c		 jb	 SHORT $L24173

; 141  : 	{
; 142  : 		// On Win2K, CP_THREAD_ACP is supported
; 143  : 		pfnGetThreadACP = _AtlGetThreadACPReal;

  0003a	c7 85 5c ff ff
	ff 00 00 00 00	 mov	 DWORD PTR _pfnGetThreadACP$[ebp], OFFSET FLAT:?_AtlGetThreadACPReal@ATL@@YGIXZ ; ATL::_AtlGetThreadACPReal

; 144  : 	}
; 145  : 	else

  00044	eb 0a		 jmp	 SHORT $L24174
$L24173:

; 146  : 	{
; 147  : 		pfnGetThreadACP = _AtlGetThreadACPFake;

  00046	c7 85 5c ff ff
	ff 00 00 00 00	 mov	 DWORD PTR _pfnGetThreadACP$[ebp], OFFSET FLAT:?_AtlGetThreadACPFake@ATL@@YGIXZ ; ATL::_AtlGetThreadACPFake
$L24174:

; 148  : 	}
; 149  : 	InterlockedExchangePointer( reinterpret_cast< void** >(&g_pfnGetThreadACP), pfnGetThreadACP );

  00050	8b 8d 5c ff ff
	ff		 mov	 ecx, DWORD PTR _pfnGetThreadACP$[ebp]
  00056	51		 push	 ecx
  00057	68 00 00 00 00	 push	 OFFSET FLAT:?g_pfnGetThreadACP@ATL@@3P6GIXZA ; ATL::g_pfnGetThreadACP
  0005c	e8 00 00 00 00	 call	 ?InterlockedExchangePointer@@YGPAXPAPAXPAX@Z ; InterlockedExchangePointer

; 150  : 
; 151  : 	return( g_pfnGetThreadACP() );

  00061	ff 15 00 00 00
	00		 call	 DWORD PTR ?g_pfnGetThreadACP@ATL@@3P6GIXZA ; ATL::g_pfnGetThreadACP

; 152  : }

  00067	8b 4d fc	 mov	 ecx, DWORD PTR __$ArrayPad$[ebp]
  0006a	e8 00 00 00 00	 call	 @__security_check_cookie@4
  0006f	8b e5		 mov	 esp, ebp
  00071	5d		 pop	 ebp
  00072	c3		 ret	 0
?_AtlGetThreadACPThunk@ATL@@YGIXZ ENDP			; ATL::_AtlGetThreadACPThunk
_TEXT	ENDS
EXTRN	__imp__InterlockedExchange@8:NEAR
; Function compile flags: /Odt
;	COMDAT ?InterlockedExchangePointer@@YGPAXPAPAXPAX@Z
_TEXT	SEGMENT
_pp$ = 8						; size = 4
_pNew$ = 12						; size = 4
?InterlockedExchangePointer@@YGPAXPAPAXPAX@Z PROC NEAR	; InterlockedExchangePointer, COMDAT

; 91   : {

  00000	55		 push	 ebp
  00001	8b ec		 mov	 ebp, esp

; 92   : 	return( reinterpret_cast<void*>(static_cast<LONG_PTR>(::InterlockedExchange(reinterpret_cast<LONG*>(pp), static_cast<LONG>(reinterpret_cast<LONG_PTR>(pNew))))) );

  00003	8b 45 0c	 mov	 eax, DWORD PTR _pNew$[ebp]
  00006	50		 push	 eax
  00007	8b 4d 08	 mov	 ecx, DWORD PTR _pp$[ebp]
  0000a	51		 push	 ecx
  0000b	ff 15 00 00 00
	00		 call	 DWORD PTR __imp__InterlockedExchange@8

; 93   : }

  00011	5d		 pop	 ebp
  00012	c2 08 00	 ret	 8
?InterlockedExchangePointer@@YGPAXPAPAXPAX@Z ENDP	; InterlockedExchangePointer
_TEXT	ENDS
EXTRN	__imp__GetACP@0:NEAR
EXTRN	__imp__GetLocaleInfoA@16:NEAR
EXTRN	__imp__GetThreadLocale@0:NEAR
; Function compile flags: /Odt
;	COMDAT ?_AtlGetThreadACPFake@ATL@@YGIXZ
_TEXT	SEGMENT
_pch$24161 = -24					; size = 4
_lcidThread$ = -20					; size = 4
_szACP$ = -16						; size = 7
__$ArrayPad$ = -8					; size = 4
_nACP$ = -4						; size = 4
__$ReturnAddr$ = 4					; size = 4
?_AtlGetThreadACPFake@ATL@@YGIXZ PROC NEAR		; ATL::_AtlGetThreadACPFake, COMDAT

; 101  : {

  00000	55		 push	 ebp
  00001	8b ec		 mov	 ebp, esp
  00003	83 ec 18	 sub	 esp, 24			; 00000018H
  00006	a1 00 00 00 00	 mov	 eax, DWORD PTR ___security_cookie
  0000b	89 45 f8	 mov	 DWORD PTR __$ArrayPad$[ebp], eax

; 102  : 	UINT nACP = 0;

  0000e	c7 45 fc 00 00
	00 00		 mov	 DWORD PTR _nACP$[ebp], 0

; 103  : 
; 104  : 	LCID lcidThread = ::GetThreadLocale();

  00015	ff 15 00 00 00
	00		 call	 DWORD PTR __imp__GetThreadLocale@0
  0001b	89 45 ec	 mov	 DWORD PTR _lcidThread$[ebp], eax

; 105  : 
; 106  : 	char szACP[7];
; 107  : 	// GetLocaleInfoA will fail for a Unicode-only LCID, but those are only supported on 
; 108  : 	// Windows 2000.  Since Windows 2000 supports CP_THREAD_ACP, this code path is never
; 109  : 	// executed on Windows 2000.
; 110  : 	if (::GetLocaleInfoA(lcidThread, LOCALE_IDEFAULTANSICODEPAGE, szACP, 7) != 0)

  0001e	6a 07		 push	 7
  00020	8d 45 f0	 lea	 eax, DWORD PTR _szACP$[ebp]
  00023	50		 push	 eax
  00024	68 04 10 00 00	 push	 4100			; 00001004H
  00029	8b 4d ec	 mov	 ecx, DWORD PTR _lcidThread$[ebp]
  0002c	51		 push	 ecx
  0002d	ff 15 00 00 00
	00		 call	 DWORD PTR __imp__GetLocaleInfoA@16
  00033	85 c0		 test	 eax, eax
  00035	74 34		 je	 SHORT $L24160

; 111  : 	{
; 112  : 		char* pch = szACP;

  00037	8d 55 f0	 lea	 edx, DWORD PTR _szACP$[ebp]
  0003a	89 55 e8	 mov	 DWORD PTR _pch$24161[ebp], edx
$L24163:

; 113  : 		while (*pch != '\0')

  0003d	8b 45 e8	 mov	 eax, DWORD PTR _pch$24161[ebp]
  00040	0f be 08	 movsx	 ecx, BYTE PTR [eax]
  00043	85 c9		 test	 ecx, ecx
  00045	74 24		 je	 SHORT $L24160

; 114  : 		{
; 115  : 			nACP *= 10;

  00047	8b 55 fc	 mov	 edx, DWORD PTR _nACP$[ebp]
  0004a	6b d2 0a	 imul	 edx, 10			; 0000000aH
  0004d	89 55 fc	 mov	 DWORD PTR _nACP$[ebp], edx

; 116  : 			nACP += *pch++ - '0';

  00050	8b 45 e8	 mov	 eax, DWORD PTR _pch$24161[ebp]
  00053	0f be 08	 movsx	 ecx, BYTE PTR [eax]
  00056	8b 55 fc	 mov	 edx, DWORD PTR _nACP$[ebp]
  00059	8d 44 0a d0	 lea	 eax, DWORD PTR [edx+ecx-48]
  0005d	89 45 fc	 mov	 DWORD PTR _nACP$[ebp], eax
  00060	8b 4d e8	 mov	 ecx, DWORD PTR _pch$24161[ebp]
  00063	83 c1 01	 add	 ecx, 1
  00066	89 4d e8	 mov	 DWORD PTR _pch$24161[ebp], ecx

; 117  : 		}

  00069	eb d2		 jmp	 SHORT $L24163
$L24160:

; 118  : 	}
; 119  : 	// Use the Default ANSI Code Page if we were unable to get the thread ACP or if one does not exist.
; 120  : 	if (nACP == 0)

  0006b	83 7d fc 00	 cmp	 DWORD PTR _nACP$[ebp], 0
  0006f	75 09		 jne	 SHORT $L24165

; 121  : 		nACP = ::GetACP();

  00071	ff 15 00 00 00
	00		 call	 DWORD PTR __imp__GetACP@0
  00077	89 45 fc	 mov	 DWORD PTR _nACP$[ebp], eax
$L24165:

; 122  : 
; 123  : 	return nACP;

  0007a	8b 45 fc	 mov	 eax, DWORD PTR _nACP$[ebp]

; 124  : }

  0007d	8b 4d f8	 mov	 ecx, DWORD PTR __$ArrayPad$[ebp]
  00080	e8 00 00 00 00	 call	 @__security_check_cookie@4
  00085	8b e5		 mov	 esp, ebp
  00087	5d		 pop	 ebp
  00088	c3		 ret	 0
?_AtlGetThreadACPFake@ATL@@YGIXZ ENDP			; ATL::_AtlGetThreadACPFake
; Function compile flags: /Odt
_TEXT	ENDS
;	COMDAT ?_AtlGetThreadACPReal@ATL@@YGIXZ
_TEXT	SEGMENT
?_AtlGetThreadACPReal@ATL@@YGIXZ PROC NEAR		; ATL::_AtlGetThreadACPReal, COMDAT

; 127  : {

  00000	55		 push	 ebp
  00001	8b ec		 mov	 ebp, esp

; 128  : 	return( CP_THREAD_ACP );

  00003	b8 03 00 00 00	 mov	 eax, 3

; 129  : }

  00008	5d		 pop	 ebp
  00009	c3		 ret	 0
?_AtlGetThreadACPReal@ATL@@YGIXZ ENDP			; ATL::_AtlGetThreadACPReal
_TEXT	ENDS
PUBLIC	?Invalidate@CWnd@@QAEXH@Z			; CWnd::Invalidate
PUBLIC	??0CGdiPlusBitmap@CSkinButton@@QAE@XZ		; CSkinButton::CGdiPlusBitmap::CGdiPlusBitmap
PUBLIC	?Load@CGdiPlusBitmap@CSkinButton@@QAE_NPB_W@Z	; CSkinButton::CGdiPlusBitmap::Load
EXTRN	??2@YAPAXI@Z:NEAR				; operator new
EXTRN	??3@YAXPAX@Z:NEAR				; operator delete
EXTRN	__imp__MultiByteToWideChar@24:NEAR
xdata$x	SEGMENT
$T200041 DD	0ffffffffH
	DD	FLAT:$L200035
	DD	00H
	DD	FLAT:$L200036
$T200038 DD	019930520H
	DD	02H
	DD	FLAT:$T200041
	DD	2 DUP(00H)
	DD	2 DUP(00H)
; Function compile flags: /Odt
; File d:\boxgit\playbox\playbox\dev\prj\playbox\src\layoutmgr\changecolor\subskinbutton.cpp
xdata$x	ENDS
_TEXT	SEGMENT
tv83 = -572						; size = 4
tv74 = -568						; size = 4
_this$ = -564						; size = 4
$T200034 = -560						; size = 4
$T200031 = -556						; size = 4
$T200030 = -552						; size = 4
$T200027 = -548						; size = 4
$T200026 = -544						; size = 4
_wFile$ = -540						; size = 520
__$ArrayPad$ = -20					; size = 4
_bReturn$ = -13						; size = 1
__$EHRec$ = -12						; size = 12
__$ReturnAddr$ = 4					; size = 4
_str$ = 8						; size = 4
?SetPngFrame@CSubSkinButton@@UAEHV?$CStringT@DV?$StrTraitMFC_DLL@DV?$ChTraitsCRT@D@ATL@@@@@ATL@@@Z PROC NEAR ; CSubSkinButton::SetPngFrame
; _this$ = ecx

; 105  : {

  00650	55		 push	 ebp
  00651	8b ec		 mov	 ebp, esp
  00653	6a ff		 push	 -1
  00655	68 00 00 00 00	 push	 __ehhandler$?SetPngFrame@CSubSkinButton@@UAEHV?$CStringT@DV?$StrTraitMFC_DLL@DV?$ChTraitsCRT@D@ATL@@@@@ATL@@@Z
  0065a	64 a1 00 00 00
	00		 mov	 eax, DWORD PTR fs:__except_list
  00660	50		 push	 eax
  00661	64 89 25 00 00
	00 00		 mov	 DWORD PTR fs:__except_list, esp
  00668	81 ec 30 02 00
	00		 sub	 esp, 560		; 00000230H
  0066e	a1 00 00 00 00	 mov	 eax, DWORD PTR ___security_cookie
  00673	89 45 ec	 mov	 DWORD PTR __$ArrayPad$[ebp], eax
  00676	89 8d cc fd ff
	ff		 mov	 DWORD PTR _this$[ebp], ecx
  0067c	c7 45 fc 00 00
	00 00		 mov	 DWORD PTR __$EHRec$[ebp+8], 0

; 106  : 	if(m_pPngImage != NULL)

  00683	8b 85 cc fd ff
	ff		 mov	 eax, DWORD PTR _this$[ebp]
  00689	83 b8 28 01 00
	00 00		 cmp	 DWORD PTR [eax+296], 0
  00690	74 4b		 je	 SHORT $L198889

; 107  : 		delete m_pPngFrame;

  00692	8b 8d cc fd ff
	ff		 mov	 ecx, DWORD PTR _this$[ebp]
  00698	8b 91 40 01 00
	00		 mov	 edx, DWORD PTR [ecx+320]
  0069e	89 95 dc fd ff
	ff		 mov	 DWORD PTR $T200027[ebp], edx
  006a4	8b 85 dc fd ff
	ff		 mov	 eax, DWORD PTR $T200027[ebp]
  006aa	89 85 e0 fd ff
	ff		 mov	 DWORD PTR $T200026[ebp], eax
  006b0	83 bd e0 fd ff
	ff 00		 cmp	 DWORD PTR $T200026[ebp], 0
  006b7	74 1a		 je	 SHORT $L200028
  006b9	6a 01		 push	 1
  006bb	8b 8d e0 fd ff
	ff		 mov	 ecx, DWORD PTR $T200026[ebp]
  006c1	8b 11		 mov	 edx, DWORD PTR [ecx]
  006c3	8b 8d e0 fd ff
	ff		 mov	 ecx, DWORD PTR $T200026[ebp]
  006c9	ff 12		 call	 DWORD PTR [edx]
  006cb	89 85 c8 fd ff
	ff		 mov	 DWORD PTR tv74[ebp], eax
  006d1	eb 0a		 jmp	 SHORT $L198889
$L200028:
  006d3	c7 85 c8 fd ff
	ff 00 00 00 00	 mov	 DWORD PTR tv74[ebp], 0
$L198889:

; 108  : 	m_pPngFrame = new CGdiPlusBitmap;

  006dd	6a 08		 push	 8
  006df	e8 00 00 00 00	 call	 ??2@YAPAXI@Z		; operator new
  006e4	83 c4 04	 add	 esp, 4
  006e7	89 85 d4 fd ff
	ff		 mov	 DWORD PTR $T200031[ebp], eax
  006ed	c6 45 fc 01	 mov	 BYTE PTR __$EHRec$[ebp+8], 1
  006f1	83 bd d4 fd ff
	ff 00		 cmp	 DWORD PTR $T200031[ebp], 0
  006f8	74 13		 je	 SHORT $L200032
  006fa	8b 8d d4 fd ff
	ff		 mov	 ecx, DWORD PTR $T200031[ebp]
  00700	e8 00 00 00 00	 call	 ??0CGdiPlusBitmap@CSkinButton@@QAE@XZ ; CSkinButton::CGdiPlusBitmap::CGdiPlusBitmap
  00705	89 85 c4 fd ff
	ff		 mov	 DWORD PTR tv83[ebp], eax
  0070b	eb 0a		 jmp	 SHORT $L200033
$L200032:
  0070d	c7 85 c4 fd ff
	ff 00 00 00 00	 mov	 DWORD PTR tv83[ebp], 0
$L200033:
  00717	8b 85 c4 fd ff
	ff		 mov	 eax, DWORD PTR tv83[ebp]
  0071d	89 85 d8 fd ff
	ff		 mov	 DWORD PTR $T200030[ebp], eax
  00723	c6 45 fc 00	 mov	 BYTE PTR __$EHRec$[ebp+8], 0
  00727	8b 8d cc fd ff
	ff		 mov	 ecx, DWORD PTR _this$[ebp]
  0072d	8b 95 d8 fd ff
	ff		 mov	 edx, DWORD PTR $T200030[ebp]
  00733	89 91 40 01 00
	00		 mov	 DWORD PTR [ecx+320], edx

; 109  : 
; 110  : 	WCHAR   wFile[MAX_PATH];   
; 111  : #ifndef   UNICODE   
; 112  : 	MultiByteToWideChar(CP_ACP,   0,   LPCTSTR(str),   -1,   wFile,   MAX_PATH);   

  00739	68 04 01 00 00	 push	 260			; 00000104H
  0073e	8d 85 e4 fd ff
	ff		 lea	 eax, DWORD PTR _wFile$[ebp]
  00744	50		 push	 eax
  00745	6a ff		 push	 -1
  00747	8d 4d 08	 lea	 ecx, DWORD PTR _str$[ebp]
  0074a	ff 15 00 00 00
	00		 call	 DWORD PTR __imp_??B?$CSimpleStringT@D$00@ATL@@QBEPBDXZ
  00750	50		 push	 eax
  00751	6a 00		 push	 0
  00753	6a 00		 push	 0
  00755	ff 15 00 00 00
	00		 call	 DWORD PTR __imp__MultiByteToWideChar@24

; 113  : #else   
; 114  : 	lstrcpy(wFile,   szFile);   
; 115  : #endif   
; 116  : 	bool bReturn = m_pPngFrame->Load( wFile );

  0075b	8d 8d e4 fd ff
	ff		 lea	 ecx, DWORD PTR _wFile$[ebp]
  00761	51		 push	 ecx
  00762	8b 95 cc fd ff
	ff		 mov	 edx, DWORD PTR _this$[ebp]
  00768	8b 8a 40 01 00
	00		 mov	 ecx, DWORD PTR [edx+320]
  0076e	e8 00 00 00 00	 call	 ?Load@CGdiPlusBitmap@CSkinButton@@QAE_NPB_W@Z ; CSkinButton::CGdiPlusBitmap::Load
  00773	88 45 f3	 mov	 BYTE PTR _bReturn$[ebp], al

; 117  : 	if( bReturn ) this->Invalidate();

  00776	0f b6 45 f3	 movzx	 eax, BYTE PTR _bReturn$[ebp]
  0077a	85 c0		 test	 eax, eax
  0077c	74 0d		 je	 SHORT $L198898
  0077e	6a 01		 push	 1
  00780	8b 8d cc fd ff
	ff		 mov	 ecx, DWORD PTR _this$[ebp]
  00786	e8 00 00 00 00	 call	 ?Invalidate@CWnd@@QAEXH@Z ; CWnd::Invalidate
$L198898:

; 118  : 
; 119  : 	return bReturn;

  0078b	0f b6 4d f3	 movzx	 ecx, BYTE PTR _bReturn$[ebp]
  0078f	89 8d d0 fd ff
	ff		 mov	 DWORD PTR $T200034[ebp], ecx
  00795	c7 45 fc ff ff
	ff ff		 mov	 DWORD PTR __$EHRec$[ebp+8], -1
  0079c	8d 4d 08	 lea	 ecx, DWORD PTR _str$[ebp]
  0079f	ff 15 00 00 00
	00		 call	 DWORD PTR __imp_??1?$CStringT@DV?$StrTraitMFC_DLL@DV?$ChTraitsCRT@D@ATL@@@@@ATL@@QAE@XZ
  007a5	8b 85 d0 fd ff
	ff		 mov	 eax, DWORD PTR $T200034[ebp]

; 120  : }

  007ab	8b 4d f4	 mov	 ecx, DWORD PTR __$EHRec$[ebp]
  007ae	64 89 0d 00 00
	00 00		 mov	 DWORD PTR fs:__except_list, ecx
  007b5	8b 4d ec	 mov	 ecx, DWORD PTR __$ArrayPad$[ebp]
  007b8	e8 00 00 00 00	 call	 @__security_check_cookie@4
  007bd	8b e5		 mov	 esp, ebp
  007bf	5d		 pop	 ebp
  007c0	c2 04 00	 ret	 4
_TEXT	ENDS
text$x	SEGMENT
$L200035:
  00061	8d 4d 08	 lea	 ecx, DWORD PTR _str$[ebp]
  00064	ff 25 00 00 00
	00		 jmp	 DWORD PTR __imp_??1?$CStringT@DV?$StrTraitMFC_DLL@DV?$ChTraitsCRT@D@ATL@@@@@ATL@@QAE@XZ
$L200036:
  0006a	8b 85 d4 fd ff
	ff		 mov	 eax, DWORD PTR $T200031[ebp]
  00070	50		 push	 eax
  00071	e8 00 00 00 00	 call	 ??3@YAXPAX@Z		; operator delete
  00076	59		 pop	 ecx
  00077	c3		 ret	 0
__ehhandler$?SetPngFrame@CSubSkinButton@@UAEHV?$CStringT@DV?$StrTraitMFC_DLL@DV?$ChTraitsCRT@D@ATL@@@@@ATL@@@Z:
  00078	b8 00 00 00 00	 mov	 eax, OFFSET FLAT:$T200038
  0007d	e9 00 00 00 00	 jmp	 ___CxxFrameHandler
text$x	ENDS
?SetPngFrame@CSubSkinButton@@UAEHV?$CStringT@DV?$StrTraitMFC_DLL@DV?$ChTraitsCRT@D@ATL@@@@@ATL@@@Z ENDP ; CSubSkinButton::SetPngFrame
PUBLIC	??_R4CGdiPlusBitmap@CSkinButton@@6B@		; CSkinButton::CGdiPlusBitmap::`RTTI Complete Object Locator'
PUBLIC	??_R0?AVCGdiPlusBitmap@CSkinButton@@@8		; CSkinButton::CGdiPlusBitmap `RTTI Type Descriptor'
PUBLIC	??_R3CGdiPlusBitmap@CSkinButton@@8		; CSkinButton::CGdiPlusBitmap::`RTTI Class Hierarchy Descriptor'
PUBLIC	??_R2CGdiPlusBitmap@CSkinButton@@8		; CSkinButton::CGdiPlusBitmap::`RTTI Base Class Array'
PUBLIC	??_R1A@?0A@A@CGdiPlusBitmap@CSkinButton@@8	; CSkinButton::CGdiPlusBitmap::`RTTI Base Class Descriptor at (0,-1,0,0)'
PUBLIC	??_7CGdiPlusBitmap@CSkinButton@@6B@		; CSkinButton::CGdiPlusBitmap::`vftable'
PUBLIC	??_GCGdiPlusBitmap@CSkinButton@@UAEPAXI@Z	; CSkinButton::CGdiPlusBitmap::`scalar deleting destructor'
EXTRN	??_ECGdiPlusBitmap@CSkinButton@@UAEPAXI@Z:NEAR	; CSkinButton::CGdiPlusBitmap::`vector deleting destructor'
;	COMDAT ??_7CGdiPlusBitmap@CSkinButton@@6B@
; File d:\boxgit\playbox\playbox\dev\prj\playbox\src\layoutmgr\changecolor\skinbotton.h
CONST	SEGMENT
??_7CGdiPlusBitmap@CSkinButton@@6B@ DD FLAT:??_R4CGdiPlusBitmap@CSkinButton@@6B@ ; CSkinButton::CGdiPlusBitmap::`vftable'
	DD	FLAT:??_ECGdiPlusBitmap@CSkinButton@@UAEPAXI@Z
CONST	ENDS
;	COMDAT ??_R4CGdiPlusBitmap@CSkinButton@@6B@
rdata$r	SEGMENT
??_R4CGdiPlusBitmap@CSkinButton@@6B@ DD 00H		; CSkinButton::CGdiPlusBitmap::`RTTI Complete Object Locator'
	DD	00H
	DD	00H
	DD	FLAT:??_R0?AVCGdiPlusBitmap@CSkinButton@@@8
	DD	FLAT:??_R3CGdiPlusBitmap@CSkinButton@@8
rdata$r	ENDS
;	COMDAT ??_R0?AVCGdiPlusBitmap@CSkinButton@@@8
_DATA	SEGMENT
??_R0?AVCGdiPlusBitmap@CSkinButton@@@8 DD FLAT:??_7type_info@@6B@ ; CSkinButton::CGdiPlusBitmap `RTTI Type Descriptor'
	DD	00H
	DB	'.?AVCGdiPlusBitmap@CSkinButton@@', 00H
_DATA	ENDS
;	COMDAT ??_R3CGdiPlusBitmap@CSkinButton@@8
rdata$r	SEGMENT
??_R3CGdiPlusBitmap@CSkinButton@@8 DD 00H		; CSkinButton::CGdiPlusBitmap::`RTTI Class Hierarchy Descriptor'
	DD	00H
	DD	01H
	DD	FLAT:??_R2CGdiPlusBitmap@CSkinButton@@8
rdata$r	ENDS
;	COMDAT ??_R2CGdiPlusBitmap@CSkinButton@@8
rdata$r	SEGMENT
??_R2CGdiPlusBitmap@CSkinButton@@8 DD FLAT:??_R1A@?0A@A@CGdiPlusBitmap@CSkinButton@@8 ; CSkinButton::CGdiPlusBitmap::`RTTI Base Class Array'
rdata$r	ENDS
;	COMDAT ??_R1A@?0A@A@CGdiPlusBitmap@CSkinButton@@8
rdata$r	SEGMENT
??_R1A@?0A@A@CGdiPlusBitmap@CSkinButton@@8 DD FLAT:??_R0?AVCGdiPlusBitmap@CSkinButton@@@8 ; CSkinButton::CGdiPlusBitmap::`RTTI Base Class Descriptor at (0,-1,0,0)'
	DD	00H
	DD	00H
	DD	0ffffffffH
	DD	00H
	DD	00H
; Function compile flags: /Odt
rdata$r	ENDS
;	COMDAT ??0CGdiPlusBitmap@CSkinButton@@QAE@XZ
_TEXT	SEGMENT
_this$ = -4						; size = 4
??0CGdiPlusBitmap@CSkinButton@@QAE@XZ PROC NEAR		; CSkinButton::CGdiPlusBitmap::CGdiPlusBitmap, COMDAT
; _this$ = ecx

; 79   : 	CGdiPlusBitmap()							{ m_pBitmap = NULL; }

  00000	55		 push	 ebp
  00001	8b ec		 mov	 ebp, esp
  00003	51		 push	 ecx
  00004	89 4d fc	 mov	 DWORD PTR _this$[ebp], ecx
  00007	8b 45 fc	 mov	 eax, DWORD PTR _this$[ebp]
  0000a	c7 00 00 00 00
	00		 mov	 DWORD PTR [eax], OFFSET FLAT:??_7CGdiPlusBitmap@CSkinButton@@6B@
  00010	8b 4d fc	 mov	 ecx, DWORD PTR _this$[ebp]
  00013	c7 41 04 00 00
	00 00		 mov	 DWORD PTR [ecx+4], 0
  0001a	8b 45 fc	 mov	 eax, DWORD PTR _this$[ebp]
  0001d	8b e5		 mov	 esp, ebp
  0001f	5d		 pop	 ebp
  00020	c3		 ret	 0
??0CGdiPlusBitmap@CSkinButton@@QAE@XZ ENDP		; CSkinButton::CGdiPlusBitmap::CGdiPlusBitmap
_TEXT	ENDS
PUBLIC	?GetLastStatus@Image@Gdiplus@@QBE?AW4Status@2@XZ ; Gdiplus::Image::GetLastStatus
PUBLIC	?FromFile@Bitmap@Gdiplus@@SAPAV12@PB_WH@Z	; Gdiplus::Bitmap::FromFile
PUBLIC	?Empty@CGdiPlusBitmap@CSkinButton@@QAEXXZ	; CSkinButton::CGdiPlusBitmap::Empty
; Function compile flags: /Odt
;	COMDAT ?Load@CGdiPlusBitmap@CSkinButton@@QAE_NPB_W@Z
_TEXT	SEGMENT
_this$ = -4						; size = 4
_pFile$ = 8						; size = 4
?Load@CGdiPlusBitmap@CSkinButton@@QAE_NPB_W@Z PROC NEAR	; CSkinButton::CGdiPlusBitmap::Load, COMDAT
; _this$ = ecx

; 86   : 	{

  00000	55		 push	 ebp
  00001	8b ec		 mov	 ebp, esp
  00003	51		 push	 ecx
  00004	89 4d fc	 mov	 DWORD PTR _this$[ebp], ecx

; 87   : 		
; 88   : 		Empty();

  00007	8b 4d fc	 mov	 ecx, DWORD PTR _this$[ebp]
  0000a	e8 00 00 00 00	 call	 ?Empty@CGdiPlusBitmap@CSkinButton@@QAEXXZ ; CSkinButton::CGdiPlusBitmap::Empty

; 89   : 		m_pBitmap = Gdiplus::Bitmap::FromFile(pFile);

  0000f	6a 00		 push	 0
  00011	8b 45 08	 mov	 eax, DWORD PTR _pFile$[ebp]
  00014	50		 push	 eax
  00015	e8 00 00 00 00	 call	 ?FromFile@Bitmap@Gdiplus@@SAPAV12@PB_WH@Z ; Gdiplus::Bitmap::FromFile
  0001a	83 c4 08	 add	 esp, 8
  0001d	8b 4d fc	 mov	 ecx, DWORD PTR _this$[ebp]
  00020	89 41 04	 mov	 DWORD PTR [ecx+4], eax

; 90   : 		return m_pBitmap->GetLastStatus() == Gdiplus::Ok;

  00023	8b 55 fc	 mov	 edx, DWORD PTR _this$[ebp]
  00026	8b 4a 04	 mov	 ecx, DWORD PTR [edx+4]
  00029	e8 00 00 00 00	 call	 ?GetLastStatus@Image@Gdiplus@@QBE?AW4Status@2@XZ ; Gdiplus::Image::GetLastStatus
  0002e	f7 d8		 neg	 eax
  00030	1b c0		 sbb	 eax, eax
  00032	40		 inc	 eax

; 91   : 	}

  00033	8b e5		 mov	 esp, ebp
  00035	5d		 pop	 ebp
  00036	c2 04 00	 ret	 4
?Load@CGdiPlusBitmap@CSkinButton@@QAE_NPB_W@Z ENDP	; CSkinButton::CGdiPlusBitmap::Load
; Function compile flags: /Odt
_TEXT	ENDS
;	COMDAT ?Empty@CGdiPlusBitmap@CSkinButton@@QAEXXZ
_TEXT	SEGMENT
tv71 = -16						; size = 4
_this$ = -12						; size = 4
$T200048 = -8						; size = 4
$T200047 = -4						; size = 4
?Empty@CGdiPlusBitmap@CSkinButton@@QAEXXZ PROC NEAR	; CSkinButton::CGdiPlusBitmap::Empty, COMDAT
; _this$ = ecx

; 83   : 	void Empty()								{ delete m_pBitmap; m_pBitmap = NULL; }

  00000	55		 push	 ebp
  00001	8b ec		 mov	 ebp, esp
  00003	83 ec 10	 sub	 esp, 16			; 00000010H
  00006	89 4d f4	 mov	 DWORD PTR _this$[ebp], ecx
  00009	8b 45 f4	 mov	 eax, DWORD PTR _this$[ebp]
  0000c	8b 48 04	 mov	 ecx, DWORD PTR [eax+4]
  0000f	89 4d f8	 mov	 DWORD PTR $T200048[ebp], ecx
  00012	8b 55 f8	 mov	 edx, DWORD PTR $T200048[ebp]
  00015	89 55 fc	 mov	 DWORD PTR $T200047[ebp], edx
  00018	83 7d fc 00	 cmp	 DWORD PTR $T200047[ebp], 0
  0001c	74 11		 je	 SHORT $L200049
  0001e	6a 01		 push	 1
  00020	8b 45 fc	 mov	 eax, DWORD PTR $T200047[ebp]
  00023	8b 10		 mov	 edx, DWORD PTR [eax]
  00025	8b 4d fc	 mov	 ecx, DWORD PTR $T200047[ebp]
  00028	ff 12		 call	 DWORD PTR [edx]
  0002a	89 45 f0	 mov	 DWORD PTR tv71[ebp], eax
  0002d	eb 07		 jmp	 SHORT $L200050
$L200049:
  0002f	c7 45 f0 00 00
	00 00		 mov	 DWORD PTR tv71[ebp], 0
$L200050:
  00036	8b 45 f4	 mov	 eax, DWORD PTR _this$[ebp]
  00039	c7 40 04 00 00
	00 00		 mov	 DWORD PTR [eax+4], 0
  00040	8b e5		 mov	 esp, ebp
  00042	5d		 pop	 ebp
  00043	c3		 ret	 0
?Empty@CGdiPlusBitmap@CSkinButton@@QAEXXZ ENDP		; CSkinButton::CGdiPlusBitmap::Empty
_TEXT	ENDS
PUBLIC	??1CGdiPlusBitmap@CSkinButton@@UAE@XZ		; CSkinButton::CGdiPlusBitmap::~CGdiPlusBitmap
; Function compile flags: /Odt
;	COMDAT ??_GCGdiPlusBitmap@CSkinButton@@UAEPAXI@Z
_TEXT	SEGMENT
_this$ = -4						; size = 4
___flags$ = 8						; size = 4
??_GCGdiPlusBitmap@CSkinButton@@UAEPAXI@Z PROC NEAR	; CSkinButton::CGdiPlusBitmap::`scalar deleting destructor', COMDAT
; _this$ = ecx
  00000	55		 push	 ebp
  00001	8b ec		 mov	 ebp, esp
  00003	51		 push	 ecx
  00004	89 4d fc	 mov	 DWORD PTR _this$[ebp], ecx
  00007	8b 4d fc	 mov	 ecx, DWORD PTR _this$[ebp]
  0000a	e8 00 00 00 00	 call	 ??1CGdiPlusBitmap@CSkinButton@@UAE@XZ ; CSkinButton::CGdiPlusBitmap::~CGdiPlusBitmap
  0000f	8b 45 08	 mov	 eax, DWORD PTR ___flags$[ebp]
  00012	83 e0 01	 and	 eax, 1
  00015	74 0c		 je	 SHORT $L197650
  00017	8b 4d fc	 mov	 ecx, DWORD PTR _this$[ebp]
  0001a	51		 push	 ecx
  0001b	e8 00 00 00 00	 call	 ??3@YAXPAX@Z		; operator delete
  00020	83 c4 04	 add	 esp, 4
$L197650:
  00023	8b 45 fc	 mov	 eax, DWORD PTR _this$[ebp]
  00026	8b e5		 mov	 esp, ebp
  00028	5d		 pop	 ebp
  00029	c2 04 00	 ret	 4
??_GCGdiPlusBitmap@CSkinButton@@UAEPAXI@Z ENDP		; CSkinButton::CGdiPlusBitmap::`scalar deleting destructor'
; Function compile flags: /Odt
_TEXT	ENDS
;	COMDAT ??1CGdiPlusBitmap@CSkinButton@@UAE@XZ
_TEXT	SEGMENT
_this$ = -4						; size = 4
??1CGdiPlusBitmap@CSkinButton@@UAE@XZ PROC NEAR		; CSkinButton::CGdiPlusBitmap::~CGdiPlusBitmap, COMDAT
; _this$ = ecx

; 81   : 	virtual ~CGdiPlusBitmap()					{ Empty(); }

  00000	55		 push	 ebp
  00001	8b ec		 mov	 ebp, esp
  00003	51		 push	 ecx
  00004	89 4d fc	 mov	 DWORD PTR _this$[ebp], ecx
  00007	8b 45 fc	 mov	 eax, DWORD PTR _this$[ebp]
  0000a	c7 00 00 00 00
	00		 mov	 DWORD PTR [eax], OFFSET FLAT:??_7CGdiPlusBitmap@CSkinButton@@6B@
  00010	8b 4d fc	 mov	 ecx, DWORD PTR _this$[ebp]
  00013	e8 00 00 00 00	 call	 ?Empty@CGdiPlusBitmap@CSkinButton@@QAEXXZ ; CSkinButton::CGdiPlusBitmap::Empty
  00018	8b e5		 mov	 esp, ebp
  0001a	5d		 pop	 ebp
  0001b	c3		 ret	 0
??1CGdiPlusBitmap@CSkinButton@@UAE@XZ ENDP		; CSkinButton::CGdiPlusBitmap::~CGdiPlusBitmap
_TEXT	ENDS
PUBLIC	?CreatePngBitmap@CSubSkinButton@@AAEPAVCGdiPlusBitmap@CSkinButton@@V?$CStringT@DV?$StrTraitMFC_DLL@DV?$ChTraitsCRT@D@ATL@@@@@ATL@@@Z ; CSubSkinButton::CreatePngBitmap
xdata$x	SEGMENT
$T200074 DD	0ffffffffH
	DD	FLAT:$L200068
	DD	00H
	DD	FLAT:$L200069
$T200071 DD	019930520H
	DD	02H
	DD	FLAT:$T200074
	DD	2 DUP(00H)
	DD	2 DUP(00H)
; Function compile flags: /Odt
; File d:\boxgit\playbox\playbox\dev\prj\playbox\src\layoutmgr\changecolor\subskinbutton.cpp
xdata$x	ENDS
_TEXT	SEGMENT
tv93 = -580						; size = 4
tv72 = -576						; size = 4
_this$ = -572						; size = 4
$T200067 = -568						; size = 4
$T200064 = -564						; size = 4
$T200063 = -560						; size = 4
$T200062 = -556						; size = 4
$T200059 = -552						; size = 4
$T200058 = -548						; size = 4
_pPng$ = -544						; size = 4
_wFile$ = -540						; size = 520
__$ArrayPad$ = -20					; size = 4
_bReturn$ = -13						; size = 1
__$EHRec$ = -12						; size = 12
__$ReturnAddr$ = 4					; size = 4
_str$ = 8						; size = 4
?CreatePngBitmap@CSubSkinButton@@AAEPAVCGdiPlusBitmap@CSkinButton@@V?$CStringT@DV?$StrTraitMFC_DLL@DV?$ChTraitsCRT@D@ATL@@@@@ATL@@@Z PROC NEAR ; CSubSkinButton::CreatePngBitmap
; _this$ = ecx

; 123  : {

  007d0	55		 push	 ebp
  007d1	8b ec		 mov	 ebp, esp
  007d3	6a ff		 push	 -1
  007d5	68 00 00 00 00	 push	 __ehhandler$?CreatePngBitmap@CSubSkinButton@@AAEPAVCGdiPlusBitmap@CSkinButton@@V?$CStringT@DV?$StrTraitMFC_DLL@DV?$ChTraitsCRT@D@ATL@@@@@ATL@@@Z
  007da	64 a1 00 00 00
	00		 mov	 eax, DWORD PTR fs:__except_list
  007e0	50		 push	 eax
  007e1	64 89 25 00 00
	00 00		 mov	 DWORD PTR fs:__except_list, esp
  007e8	81 ec 38 02 00
	00		 sub	 esp, 568		; 00000238H
  007ee	a1 00 00 00 00	 mov	 eax, DWORD PTR ___security_cookie
  007f3	89 45 ec	 mov	 DWORD PTR __$ArrayPad$[ebp], eax
  007f6	89 8d c4 fd ff
	ff		 mov	 DWORD PTR _this$[ebp], ecx
  007fc	c7 45 fc 00 00
	00 00		 mov	 DWORD PTR __$EHRec$[ebp+8], 0

; 124  : 	WCHAR   wFile[MAX_PATH];  
; 125  : 	CGdiPlusBitmap *pPng = new CGdiPlusBitmap;

  00803	6a 08		 push	 8
  00805	e8 00 00 00 00	 call	 ??2@YAPAXI@Z		; operator new
  0080a	83 c4 04	 add	 esp, 4
  0080d	89 85 d8 fd ff
	ff		 mov	 DWORD PTR $T200059[ebp], eax
  00813	c6 45 fc 01	 mov	 BYTE PTR __$EHRec$[ebp+8], 1
  00817	83 bd d8 fd ff
	ff 00		 cmp	 DWORD PTR $T200059[ebp], 0
  0081e	74 13		 je	 SHORT $L200060
  00820	8b 8d d8 fd ff
	ff		 mov	 ecx, DWORD PTR $T200059[ebp]
  00826	e8 00 00 00 00	 call	 ??0CGdiPlusBitmap@CSkinButton@@QAE@XZ ; CSkinButton::CGdiPlusBitmap::CGdiPlusBitmap
  0082b	89 85 c0 fd ff
	ff		 mov	 DWORD PTR tv72[ebp], eax
  00831	eb 0a		 jmp	 SHORT $L200061
$L200060:
  00833	c7 85 c0 fd ff
	ff 00 00 00 00	 mov	 DWORD PTR tv72[ebp], 0
$L200061:
  0083d	8b 85 c0 fd ff
	ff		 mov	 eax, DWORD PTR tv72[ebp]
  00843	89 85 dc fd ff
	ff		 mov	 DWORD PTR $T200058[ebp], eax
  00849	c6 45 fc 00	 mov	 BYTE PTR __$EHRec$[ebp+8], 0
  0084d	8b 8d dc fd ff
	ff		 mov	 ecx, DWORD PTR $T200058[ebp]
  00853	89 8d e0 fd ff
	ff		 mov	 DWORD PTR _pPng$[ebp], ecx

; 126  : #ifndef   UNICODE   
; 127  : 	MultiByteToWideChar(CP_ACP,   0,   LPCTSTR(str),   -1,   wFile,   MAX_PATH);   

  00859	68 04 01 00 00	 push	 260			; 00000104H
  0085e	8d 95 e4 fd ff
	ff		 lea	 edx, DWORD PTR _wFile$[ebp]
  00864	52		 push	 edx
  00865	6a ff		 push	 -1
  00867	8d 4d 08	 lea	 ecx, DWORD PTR _str$[ebp]
  0086a	ff 15 00 00 00
	00		 call	 DWORD PTR __imp_??B?$CSimpleStringT@D$00@ATL@@QBEPBDXZ
  00870	50		 push	 eax
  00871	6a 00		 push	 0
  00873	6a 00		 push	 0
  00875	ff 15 00 00 00
	00		 call	 DWORD PTR __imp__MultiByteToWideChar@24

; 128  : #else   
; 129  : 	lstrcpy(wFile,   szFile);   
; 130  : #endif   
; 131  : 	bool bReturn = pPng->Load( wFile );

  0087b	8d 85 e4 fd ff
	ff		 lea	 eax, DWORD PTR _wFile$[ebp]
  00881	50		 push	 eax
  00882	8b 8d e0 fd ff
	ff		 mov	 ecx, DWORD PTR _pPng$[ebp]
  00888	e8 00 00 00 00	 call	 ?Load@CGdiPlusBitmap@CSkinButton@@QAE_NPB_W@Z ; CSkinButton::CGdiPlusBitmap::Load
  0088d	88 45 f3	 mov	 BYTE PTR _bReturn$[ebp], al

; 132  : 	if( bReturn ) 

  00890	0f b6 4d f3	 movzx	 ecx, BYTE PTR _bReturn$[ebp]
  00894	85 c9		 test	 ecx, ecx
  00896	74 31		 je	 SHORT $L198911

; 133  : 	{
; 134  : 		Invalidate();

  00898	6a 01		 push	 1
  0089a	8b 8d c4 fd ff
	ff		 mov	 ecx, DWORD PTR _this$[ebp]
  008a0	e8 00 00 00 00	 call	 ?Invalidate@CWnd@@QAEXH@Z ; CWnd::Invalidate

; 135  : 		return pPng;

  008a5	8b 95 e0 fd ff
	ff		 mov	 edx, DWORD PTR _pPng$[ebp]
  008ab	89 95 d4 fd ff
	ff		 mov	 DWORD PTR $T200062[ebp], edx
  008b1	c7 45 fc ff ff
	ff ff		 mov	 DWORD PTR __$EHRec$[ebp+8], -1
  008b8	8d 4d 08	 lea	 ecx, DWORD PTR _str$[ebp]
  008bb	ff 15 00 00 00
	00		 call	 DWORD PTR __imp_??1?$CStringT@DV?$StrTraitMFC_DLL@DV?$ChTraitsCRT@D@ATL@@@@@ATL@@QAE@XZ
  008c1	8b 85 d4 fd ff
	ff		 mov	 eax, DWORD PTR $T200062[ebp]
  008c7	eb 65		 jmp	 SHORT $L198903
$L198911:

; 136  : 	}else
; 137  : 	{
; 138  : 		delete pPng;

  008c9	8b 85 e0 fd ff
	ff		 mov	 eax, DWORD PTR _pPng$[ebp]
  008cf	89 85 cc fd ff
	ff		 mov	 DWORD PTR $T200064[ebp], eax
  008d5	8b 8d cc fd ff
	ff		 mov	 ecx, DWORD PTR $T200064[ebp]
  008db	89 8d d0 fd ff
	ff		 mov	 DWORD PTR $T200063[ebp], ecx
  008e1	83 bd d0 fd ff
	ff 00		 cmp	 DWORD PTR $T200063[ebp], 0
  008e8	74 1a		 je	 SHORT $L200065
  008ea	6a 01		 push	 1
  008ec	8b 95 d0 fd ff
	ff		 mov	 edx, DWORD PTR $T200063[ebp]
  008f2	8b 02		 mov	 eax, DWORD PTR [edx]
  008f4	8b 8d d0 fd ff
	ff		 mov	 ecx, DWORD PTR $T200063[ebp]
  008fa	ff 10		 call	 DWORD PTR [eax]
  008fc	89 85 bc fd ff
	ff		 mov	 DWORD PTR tv93[ebp], eax
  00902	eb 0a		 jmp	 SHORT $L200066
$L200065:
  00904	c7 85 bc fd ff
	ff 00 00 00 00	 mov	 DWORD PTR tv93[ebp], 0
$L200066:

; 139  : 		return NULL;

  0090e	c7 85 c8 fd ff
	ff 00 00 00 00	 mov	 DWORD PTR $T200067[ebp], 0
  00918	c7 45 fc ff ff
	ff ff		 mov	 DWORD PTR __$EHRec$[ebp+8], -1
  0091f	8d 4d 08	 lea	 ecx, DWORD PTR _str$[ebp]
  00922	ff 15 00 00 00
	00		 call	 DWORD PTR __imp_??1?$CStringT@DV?$StrTraitMFC_DLL@DV?$ChTraitsCRT@D@ATL@@@@@ATL@@QAE@XZ
  00928	8b 85 c8 fd ff
	ff		 mov	 eax, DWORD PTR $T200067[ebp]
$L198903:

; 140  : 	}
; 141  : }

  0092e	8b 4d f4	 mov	 ecx, DWORD PTR __$EHRec$[ebp]
  00931	64 89 0d 00 00
	00 00		 mov	 DWORD PTR fs:__except_list, ecx
  00938	8b 4d ec	 mov	 ecx, DWORD PTR __$ArrayPad$[ebp]
  0093b	e8 00 00 00 00	 call	 @__security_check_cookie@4
  00940	8b e5		 mov	 esp, ebp
  00942	5d		 pop	 ebp
  00943	c2 04 00	 ret	 4
_TEXT	ENDS
text$x	SEGMENT
$L200068:
  00082	8d 4d 08	 lea	 ecx, DWORD PTR _str$[ebp]
  00085	ff 25 00 00 00
	00		 jmp	 DWORD PTR __imp_??1?$CStringT@DV?$StrTraitMFC_DLL@DV?$ChTraitsCRT@D@ATL@@@@@ATL@@QAE@XZ
$L200069:
  0008b	8b 85 d8 fd ff
	ff		 mov	 eax, DWORD PTR $T200059[ebp]
  00091	50		 push	 eax
  00092	e8 00 00 00 00	 call	 ??3@YAXPAX@Z		; operator delete
  00097	59		 pop	 ecx
  00098	c3		 ret	 0
__ehhandler$?CreatePngBitmap@CSubSkinButton@@AAEPAVCGdiPlusBitmap@CSkinButton@@V?$CStringT@DV?$StrTraitMFC_DLL@DV?$ChTraitsCRT@D@ATL@@@@@ATL@@@Z:
  00099	b8 00 00 00 00	 mov	 eax, OFFSET FLAT:$T200071
  0009e	e9 00 00 00 00	 jmp	 ___CxxFrameHandler
text$x	ENDS
?CreatePngBitmap@CSubSkinButton@@AAEPAVCGdiPlusBitmap@CSkinButton@@V?$CStringT@DV?$StrTraitMFC_DLL@DV?$ChTraitsCRT@D@ATL@@@@@ATL@@@Z ENDP ; CSubSkinButton::CreatePngBitmap
PUBLIC	??HATL@@YA?AV?$CStringT@DV?$StrTraitMFC_DLL@DV?$ChTraitsCRT@D@ATL@@@@@0@ABV10@PBD@Z ; ATL::operator+
EXTRN	__imp_?GetLength@?$CSimpleStringT@D$00@ATL@@QBEHXZ:NEAR
EXTRN	__imp_??4?$CStringT@DV?$StrTraitMFC_DLL@DV?$ChTraitsCRT@D@ATL@@@@@ATL@@QAEAAV01@ABV01@@Z:NEAR
EXTRN	__imp_?Mid@?$CStringT@DV?$StrTraitMFC_DLL@DV?$ChTraitsCRT@D@ATL@@@@@ATL@@QBE?AV12@HH@Z:NEAR
xdata$x	SEGMENT
$T200110 DD	0ffffffffH
	DD	FLAT:$L200097
	DD	00H
	DD	FLAT:$L200098
	DD	01H
	DD	FLAT:$L200099
	DD	00H
	DD	FLAT:$L200099
	DD	03H
	DD	FLAT:$L200101
	DD	04H
	DD	FLAT:$L200102
	DD	03H
	DD	FLAT:$L200104
	DD	06H
	DD	FLAT:$L200105
$T200108 DD	019930520H
	DD	08H
	DD	FLAT:$T200110
	DD	2 DUP(00H)
	DD	2 DUP(00H)
; Function compile flags: /Odt
xdata$x	ENDS
_TEXT	SEGMENT
tv249 = -156						; size = 4
tv248 = -152						; size = 4
tv246 = -148						; size = 4
tv255 = -144						; size = 4
tv244 = -140						; size = 4
tv254 = -136						; size = 4
tv242 = -132						; size = 4
tv241 = -128						; size = 4
tv239 = -124						; size = 4
tv253 = -120						; size = 4
tv237 = -116						; size = 4
tv95 = -112						; size = 4
tv235 = -108						; size = 4
tv234 = -104						; size = 4
tv231 = -100						; size = 4
tv252 = -96						; size = 4
tv94 = -92						; size = 4
tv84 = -88						; size = 4
tv74 = -84						; size = 4
_this$ = -80						; size = 4
$T200096 = -76						; size = 4
$T200095 = -72						; size = 4
$T200094 = -68						; size = 4
$T200093 = -64						; size = 4
$T200092 = -60						; size = 4
$T200091 = -56						; size = 4
$T200090 = -52						; size = 4
$T200089 = -48						; size = 4
$T200088 = -44						; size = 4
$T200085 = -40						; size = 4
$T200084 = -36						; size = 4
$T200081 = -32						; size = 4
$T200080 = -28						; size = 4
$T200077 = -24						; size = 4
$T200076 = -20						; size = 4
_path$ = -16						; size = 4
__$EHRec$ = -12						; size = 12
_str$ = 8						; size = 4
?SetPngHoverSkin@CSubSkinButton@@UAEHV?$CStringT@DV?$StrTraitMFC_DLL@DV?$ChTraitsCRT@D@ATL@@@@@ATL@@@Z PROC NEAR ; CSubSkinButton::SetPngHoverSkin
; _this$ = ecx

; 144  : {

  00950	55		 push	 ebp
  00951	8b ec		 mov	 ebp, esp
  00953	6a ff		 push	 -1
  00955	68 00 00 00 00	 push	 __ehhandler$?SetPngHoverSkin@CSubSkinButton@@UAEHV?$CStringT@DV?$StrTraitMFC_DLL@DV?$ChTraitsCRT@D@ATL@@@@@ATL@@@Z
  0095a	64 a1 00 00 00
	00		 mov	 eax, DWORD PTR fs:__except_list
  00960	50		 push	 eax
  00961	64 89 25 00 00
	00 00		 mov	 DWORD PTR fs:__except_list, esp
  00968	81 ec 90 00 00
	00		 sub	 esp, 144		; 00000090H
  0096e	89 4d b0	 mov	 DWORD PTR _this$[ebp], ecx
  00971	c7 45 fc 00 00
	00 00		 mov	 DWORD PTR __$EHRec$[ebp+8], 0

; 145  : 	if( m_pPngDeleteNormal != NULL )

  00978	8b 45 b0	 mov	 eax, DWORD PTR _this$[ebp]
  0097b	83 b8 3c 01 00
	00 00		 cmp	 DWORD PTR [eax+316], 0
  00982	74 30		 je	 SHORT $L198921

; 146  : 		delete m_pPngDeleteNormal;

  00984	8b 4d b0	 mov	 ecx, DWORD PTR _this$[ebp]
  00987	8b 91 3c 01 00
	00		 mov	 edx, DWORD PTR [ecx+316]
  0098d	89 55 e8	 mov	 DWORD PTR $T200077[ebp], edx
  00990	8b 45 e8	 mov	 eax, DWORD PTR $T200077[ebp]
  00993	89 45 ec	 mov	 DWORD PTR $T200076[ebp], eax
  00996	83 7d ec 00	 cmp	 DWORD PTR $T200076[ebp], 0
  0099a	74 11		 je	 SHORT $L200078
  0099c	6a 01		 push	 1
  0099e	8b 4d ec	 mov	 ecx, DWORD PTR $T200076[ebp]
  009a1	8b 11		 mov	 edx, DWORD PTR [ecx]
  009a3	8b 4d ec	 mov	 ecx, DWORD PTR $T200076[ebp]
  009a6	ff 12		 call	 DWORD PTR [edx]
  009a8	89 45 ac	 mov	 DWORD PTR tv74[ebp], eax
  009ab	eb 07		 jmp	 SHORT $L198921
$L200078:
  009ad	c7 45 ac 00 00
	00 00		 mov	 DWORD PTR tv74[ebp], 0
$L198921:

; 147  : 	if( m_pPngDeleteOver != NULL )

  009b4	8b 45 b0	 mov	 eax, DWORD PTR _this$[ebp]
  009b7	83 b8 38 01 00
	00 00		 cmp	 DWORD PTR [eax+312], 0
  009be	74 30		 je	 SHORT $L198924

; 148  : 		delete m_pPngDeleteOver;

  009c0	8b 4d b0	 mov	 ecx, DWORD PTR _this$[ebp]
  009c3	8b 91 38 01 00
	00		 mov	 edx, DWORD PTR [ecx+312]
  009c9	89 55 e0	 mov	 DWORD PTR $T200081[ebp], edx
  009cc	8b 45 e0	 mov	 eax, DWORD PTR $T200081[ebp]
  009cf	89 45 e4	 mov	 DWORD PTR $T200080[ebp], eax
  009d2	83 7d e4 00	 cmp	 DWORD PTR $T200080[ebp], 0
  009d6	74 11		 je	 SHORT $L200082
  009d8	6a 01		 push	 1
  009da	8b 4d e4	 mov	 ecx, DWORD PTR $T200080[ebp]
  009dd	8b 11		 mov	 edx, DWORD PTR [ecx]
  009df	8b 4d e4	 mov	 ecx, DWORD PTR $T200080[ebp]
  009e2	ff 12		 call	 DWORD PTR [edx]
  009e4	89 45 a8	 mov	 DWORD PTR tv84[ebp], eax
  009e7	eb 07		 jmp	 SHORT $L198924
$L200082:
  009e9	c7 45 a8 00 00
	00 00		 mov	 DWORD PTR tv84[ebp], 0
$L198924:

; 149  : 	if( m_pPngDeleteDown != NULL )

  009f0	8b 45 b0	 mov	 eax, DWORD PTR _this$[ebp]
  009f3	83 b8 34 01 00
	00 00		 cmp	 DWORD PTR [eax+308], 0
  009fa	74 30		 je	 SHORT $L198927

; 150  : 		delete m_pPngDeleteDown;

  009fc	8b 4d b0	 mov	 ecx, DWORD PTR _this$[ebp]
  009ff	8b 91 34 01 00
	00		 mov	 edx, DWORD PTR [ecx+308]
  00a05	89 55 d8	 mov	 DWORD PTR $T200085[ebp], edx
  00a08	8b 45 d8	 mov	 eax, DWORD PTR $T200085[ebp]
  00a0b	89 45 dc	 mov	 DWORD PTR $T200084[ebp], eax
  00a0e	83 7d dc 00	 cmp	 DWORD PTR $T200084[ebp], 0
  00a12	74 11		 je	 SHORT $L200086
  00a14	6a 01		 push	 1
  00a16	8b 4d dc	 mov	 ecx, DWORD PTR $T200084[ebp]
  00a19	8b 11		 mov	 edx, DWORD PTR [ecx]
  00a1b	8b 4d dc	 mov	 ecx, DWORD PTR $T200084[ebp]
  00a1e	ff 12		 call	 DWORD PTR [edx]
  00a20	89 45 a4	 mov	 DWORD PTR tv94[ebp], eax
  00a23	eb 07		 jmp	 SHORT $L198927
$L200086:
  00a25	c7 45 a4 00 00
	00 00		 mov	 DWORD PTR tv94[ebp], 0
$L198927:

; 151  : 
; 152  : 	CString path = str.Mid(0, str.GetLength() - 4) + "Normal.png";

  00a2c	8d 4d 08	 lea	 ecx, DWORD PTR _str$[ebp]
  00a2f	ff 15 00 00 00
	00		 call	 DWORD PTR __imp_?GetLength@?$CSimpleStringT@D$00@ATL@@QBEHXZ
  00a35	83 e8 04	 sub	 eax, 4
  00a38	50		 push	 eax
  00a39	6a 00		 push	 0
  00a3b	8d 45 d4	 lea	 eax, DWORD PTR $T200088[ebp]
  00a3e	50		 push	 eax
  00a3f	8d 4d 08	 lea	 ecx, DWORD PTR _str$[ebp]
  00a42	ff 15 00 00 00
	00		 call	 DWORD PTR __imp_?Mid@?$CStringT@DV?$StrTraitMFC_DLL@DV?$ChTraitsCRT@D@ATL@@@@@ATL@@QBE?AV12@HH@Z
  00a48	89 45 a0	 mov	 DWORD PTR tv252[ebp], eax
  00a4b	8b 4d a0	 mov	 ecx, DWORD PTR tv252[ebp]
  00a4e	89 4d 9c	 mov	 DWORD PTR tv231[ebp], ecx
  00a51	c6 45 fc 01	 mov	 BYTE PTR __$EHRec$[ebp+8], 1
  00a55	68 00 00 00 00	 push	 OFFSET FLAT:$SG198933
  00a5a	8b 55 9c	 mov	 edx, DWORD PTR tv231[ebp]
  00a5d	52		 push	 edx
  00a5e	8d 45 f0	 lea	 eax, DWORD PTR _path$[ebp]
  00a61	50		 push	 eax
  00a62	e8 00 00 00 00	 call	 ??HATL@@YA?AV?$CStringT@DV?$StrTraitMFC_DLL@DV?$ChTraitsCRT@D@ATL@@@@@0@ABV10@PBD@Z ; ATL::operator+
  00a67	83 c4 0c	 add	 esp, 12			; 0000000cH
  00a6a	c6 45 fc 03	 mov	 BYTE PTR __$EHRec$[ebp+8], 3
  00a6e	8d 4d d4	 lea	 ecx, DWORD PTR $T200088[ebp]
  00a71	ff 15 00 00 00
	00		 call	 DWORD PTR __imp_??1?$CStringT@DV?$StrTraitMFC_DLL@DV?$ChTraitsCRT@D@ATL@@@@@ATL@@QAE@XZ

; 153  : 	m_pPngDeleteNormal = CreatePngBitmap(path);

  00a77	51		 push	 ecx
  00a78	8b cc		 mov	 ecx, esp
  00a7a	89 65 d0	 mov	 DWORD PTR $T200089[ebp], esp
  00a7d	8d 55 f0	 lea	 edx, DWORD PTR _path$[ebp]
  00a80	52		 push	 edx
  00a81	ff 15 00 00 00
	00		 call	 DWORD PTR __imp_??0?$CStringT@DV?$StrTraitMFC_DLL@DV?$ChTraitsCRT@D@ATL@@@@@ATL@@QAE@ABV01@@Z
  00a87	89 45 98	 mov	 DWORD PTR tv234[ebp], eax
  00a8a	8b 4d b0	 mov	 ecx, DWORD PTR _this$[ebp]
  00a8d	e8 00 00 00 00	 call	 ?CreatePngBitmap@CSubSkinButton@@AAEPAVCGdiPlusBitmap@CSkinButton@@V?$CStringT@DV?$StrTraitMFC_DLL@DV?$ChTraitsCRT@D@ATL@@@@@ATL@@@Z ; CSubSkinButton::CreatePngBitmap
  00a92	89 45 94	 mov	 DWORD PTR tv235[ebp], eax
  00a95	8b 45 b0	 mov	 eax, DWORD PTR _this$[ebp]
  00a98	8b 4d 94	 mov	 ecx, DWORD PTR tv235[ebp]
  00a9b	89 88 3c 01 00
	00		 mov	 DWORD PTR [eax+316], ecx

; 154  : 
; 155  : 	path = str.Mid(0, str.GetLength() - 4) + "Over.png";

  00aa1	8d 4d 08	 lea	 ecx, DWORD PTR _str$[ebp]
  00aa4	ff 15 00 00 00
	00		 call	 DWORD PTR __imp_?GetLength@?$CSimpleStringT@D$00@ATL@@QBEHXZ
  00aaa	83 e8 04	 sub	 eax, 4
  00aad	50		 push	 eax
  00aae	6a 00		 push	 0
  00ab0	8d 55 cc	 lea	 edx, DWORD PTR $T200090[ebp]
  00ab3	52		 push	 edx
  00ab4	8d 4d 08	 lea	 ecx, DWORD PTR _str$[ebp]
  00ab7	ff 15 00 00 00
	00		 call	 DWORD PTR __imp_?Mid@?$CStringT@DV?$StrTraitMFC_DLL@DV?$ChTraitsCRT@D@ATL@@@@@ATL@@QBE?AV12@HH@Z
  00abd	89 45 90	 mov	 DWORD PTR tv95[ebp], eax
  00ac0	8b 45 90	 mov	 eax, DWORD PTR tv95[ebp]
  00ac3	89 45 8c	 mov	 DWORD PTR tv237[ebp], eax
  00ac6	c6 45 fc 04	 mov	 BYTE PTR __$EHRec$[ebp+8], 4
  00aca	68 00 00 00 00	 push	 OFFSET FLAT:$SG198937
  00acf	8b 4d 8c	 mov	 ecx, DWORD PTR tv237[ebp]
  00ad2	51		 push	 ecx
  00ad3	8d 55 c8	 lea	 edx, DWORD PTR $T200091[ebp]
  00ad6	52		 push	 edx
  00ad7	e8 00 00 00 00	 call	 ??HATL@@YA?AV?$CStringT@DV?$StrTraitMFC_DLL@DV?$ChTraitsCRT@D@ATL@@@@@0@ABV10@PBD@Z ; ATL::operator+
  00adc	83 c4 0c	 add	 esp, 12			; 0000000cH
  00adf	89 45 88	 mov	 DWORD PTR tv253[ebp], eax
  00ae2	8b 45 88	 mov	 eax, DWORD PTR tv253[ebp]
  00ae5	89 45 84	 mov	 DWORD PTR tv239[ebp], eax
  00ae8	c6 45 fc 05	 mov	 BYTE PTR __$EHRec$[ebp+8], 5
  00aec	8b 4d 84	 mov	 ecx, DWORD PTR tv239[ebp]
  00aef	51		 push	 ecx
  00af0	8d 4d f0	 lea	 ecx, DWORD PTR _path$[ebp]
  00af3	ff 15 00 00 00
	00		 call	 DWORD PTR __imp_??4?$CStringT@DV?$StrTraitMFC_DLL@DV?$ChTraitsCRT@D@ATL@@@@@ATL@@QAEAAV01@ABV01@@Z
  00af9	c6 45 fc 04	 mov	 BYTE PTR __$EHRec$[ebp+8], 4
  00afd	8d 4d c8	 lea	 ecx, DWORD PTR $T200091[ebp]
  00b00	ff 15 00 00 00
	00		 call	 DWORD PTR __imp_??1?$CStringT@DV?$StrTraitMFC_DLL@DV?$ChTraitsCRT@D@ATL@@@@@ATL@@QAE@XZ
  00b06	c6 45 fc 03	 mov	 BYTE PTR __$EHRec$[ebp+8], 3
  00b0a	8d 4d cc	 lea	 ecx, DWORD PTR $T200090[ebp]
  00b0d	ff 15 00 00 00
	00		 call	 DWORD PTR __imp_??1?$CStringT@DV?$StrTraitMFC_DLL@DV?$ChTraitsCRT@D@ATL@@@@@ATL@@QAE@XZ

; 156  : 	m_pPngDeleteOver = CreatePngBitmap(path);

  00b13	51		 push	 ecx
  00b14	8b cc		 mov	 ecx, esp
  00b16	89 65 c4	 mov	 DWORD PTR $T200092[ebp], esp
  00b19	8d 55 f0	 lea	 edx, DWORD PTR _path$[ebp]
  00b1c	52		 push	 edx
  00b1d	ff 15 00 00 00
	00		 call	 DWORD PTR __imp_??0?$CStringT@DV?$StrTraitMFC_DLL@DV?$ChTraitsCRT@D@ATL@@@@@ATL@@QAE@ABV01@@Z
  00b23	89 45 80	 mov	 DWORD PTR tv241[ebp], eax
  00b26	8b 4d b0	 mov	 ecx, DWORD PTR _this$[ebp]
  00b29	e8 00 00 00 00	 call	 ?CreatePngBitmap@CSubSkinButton@@AAEPAVCGdiPlusBitmap@CSkinButton@@V?$CStringT@DV?$StrTraitMFC_DLL@DV?$ChTraitsCRT@D@ATL@@@@@ATL@@@Z ; CSubSkinButton::CreatePngBitmap
  00b2e	89 85 7c ff ff
	ff		 mov	 DWORD PTR tv242[ebp], eax
  00b34	8b 45 b0	 mov	 eax, DWORD PTR _this$[ebp]
  00b37	8b 8d 7c ff ff
	ff		 mov	 ecx, DWORD PTR tv242[ebp]
  00b3d	89 88 38 01 00
	00		 mov	 DWORD PTR [eax+312], ecx

; 157  : 
; 158  : 	path = str.Mid(0, str.GetLength() - 4) + "Down.png";

  00b43	8d 4d 08	 lea	 ecx, DWORD PTR _str$[ebp]
  00b46	ff 15 00 00 00
	00		 call	 DWORD PTR __imp_?GetLength@?$CSimpleStringT@D$00@ATL@@QBEHXZ
  00b4c	83 e8 04	 sub	 eax, 4
  00b4f	50		 push	 eax
  00b50	6a 00		 push	 0
  00b52	8d 55 c0	 lea	 edx, DWORD PTR $T200093[ebp]
  00b55	52		 push	 edx
  00b56	8d 4d 08	 lea	 ecx, DWORD PTR _str$[ebp]
  00b59	ff 15 00 00 00
	00		 call	 DWORD PTR __imp_?Mid@?$CStringT@DV?$StrTraitMFC_DLL@DV?$ChTraitsCRT@D@ATL@@@@@ATL@@QBE?AV12@HH@Z
  00b5f	89 85 78 ff ff
	ff		 mov	 DWORD PTR tv254[ebp], eax
  00b65	8b 85 78 ff ff
	ff		 mov	 eax, DWORD PTR tv254[ebp]
  00b6b	89 85 74 ff ff
	ff		 mov	 DWORD PTR tv244[ebp], eax
  00b71	c6 45 fc 06	 mov	 BYTE PTR __$EHRec$[ebp+8], 6
  00b75	68 00 00 00 00	 push	 OFFSET FLAT:$SG198941
  00b7a	8b 8d 74 ff ff
	ff		 mov	 ecx, DWORD PTR tv244[ebp]
  00b80	51		 push	 ecx
  00b81	8d 55 bc	 lea	 edx, DWORD PTR $T200094[ebp]
  00b84	52		 push	 edx
  00b85	e8 00 00 00 00	 call	 ??HATL@@YA?AV?$CStringT@DV?$StrTraitMFC_DLL@DV?$ChTraitsCRT@D@ATL@@@@@0@ABV10@PBD@Z ; ATL::operator+
  00b8a	83 c4 0c	 add	 esp, 12			; 0000000cH
  00b8d	89 85 70 ff ff
	ff		 mov	 DWORD PTR tv255[ebp], eax
  00b93	8b 85 70 ff ff
	ff		 mov	 eax, DWORD PTR tv255[ebp]
  00b99	89 85 6c ff ff
	ff		 mov	 DWORD PTR tv246[ebp], eax
  00b9f	c6 45 fc 07	 mov	 BYTE PTR __$EHRec$[ebp+8], 7
  00ba3	8b 8d 6c ff ff
	ff		 mov	 ecx, DWORD PTR tv246[ebp]
  00ba9	51		 push	 ecx
  00baa	8d 4d f0	 lea	 ecx, DWORD PTR _path$[ebp]
  00bad	ff 15 00 00 00
	00		 call	 DWORD PTR __imp_??4?$CStringT@DV?$StrTraitMFC_DLL@DV?$ChTraitsCRT@D@ATL@@@@@ATL@@QAEAAV01@ABV01@@Z
  00bb3	c6 45 fc 06	 mov	 BYTE PTR __$EHRec$[ebp+8], 6
  00bb7	8d 4d bc	 lea	 ecx, DWORD PTR $T200094[ebp]
  00bba	ff 15 00 00 00
	00		 call	 DWORD PTR __imp_??1?$CStringT@DV?$StrTraitMFC_DLL@DV?$ChTraitsCRT@D@ATL@@@@@ATL@@QAE@XZ
  00bc0	c6 45 fc 03	 mov	 BYTE PTR __$EHRec$[ebp+8], 3
  00bc4	8d 4d c0	 lea	 ecx, DWORD PTR $T200093[ebp]
  00bc7	ff 15 00 00 00
	00		 call	 DWORD PTR __imp_??1?$CStringT@DV?$StrTraitMFC_DLL@DV?$ChTraitsCRT@D@ATL@@@@@ATL@@QAE@XZ

; 159  : 	m_pPngDeleteDown = CreatePngBitmap(path);

  00bcd	51		 push	 ecx
  00bce	8b cc		 mov	 ecx, esp
  00bd0	89 65 b8	 mov	 DWORD PTR $T200095[ebp], esp
  00bd3	8d 55 f0	 lea	 edx, DWORD PTR _path$[ebp]
  00bd6	52		 push	 edx
  00bd7	ff 15 00 00 00
	00		 call	 DWORD PTR __imp_??0?$CStringT@DV?$StrTraitMFC_DLL@DV?$ChTraitsCRT@D@ATL@@@@@ATL@@QAE@ABV01@@Z
  00bdd	89 85 68 ff ff
	ff		 mov	 DWORD PTR tv248[ebp], eax
  00be3	8b 4d b0	 mov	 ecx, DWORD PTR _this$[ebp]
  00be6	e8 00 00 00 00	 call	 ?CreatePngBitmap@CSubSkinButton@@AAEPAVCGdiPlusBitmap@CSkinButton@@V?$CStringT@DV?$StrTraitMFC_DLL@DV?$ChTraitsCRT@D@ATL@@@@@ATL@@@Z ; CSubSkinButton::CreatePngBitmap
  00beb	89 85 64 ff ff
	ff		 mov	 DWORD PTR tv249[ebp], eax
  00bf1	8b 45 b0	 mov	 eax, DWORD PTR _this$[ebp]
  00bf4	8b 8d 64 ff ff
	ff		 mov	 ecx, DWORD PTR tv249[ebp]
  00bfa	89 88 34 01 00
	00		 mov	 DWORD PTR [eax+308], ecx

; 160  : 	return true;

  00c00	c7 45 b4 01 00
	00 00		 mov	 DWORD PTR $T200096[ebp], 1
  00c07	c6 45 fc 00	 mov	 BYTE PTR __$EHRec$[ebp+8], 0
  00c0b	8d 4d f0	 lea	 ecx, DWORD PTR _path$[ebp]
  00c0e	ff 15 00 00 00
	00		 call	 DWORD PTR __imp_??1?$CStringT@DV?$StrTraitMFC_DLL@DV?$ChTraitsCRT@D@ATL@@@@@ATL@@QAE@XZ
  00c14	c7 45 fc ff ff
	ff ff		 mov	 DWORD PTR __$EHRec$[ebp+8], -1
  00c1b	8d 4d 08	 lea	 ecx, DWORD PTR _str$[ebp]
  00c1e	ff 15 00 00 00
	00		 call	 DWORD PTR __imp_??1?$CStringT@DV?$StrTraitMFC_DLL@DV?$ChTraitsCRT@D@ATL@@@@@ATL@@QAE@XZ
  00c24	8b 45 b4	 mov	 eax, DWORD PTR $T200096[ebp]

; 161  : }

  00c27	8b 4d f4	 mov	 ecx, DWORD PTR __$EHRec$[ebp]
  00c2a	64 89 0d 00 00
	00 00		 mov	 DWORD PTR fs:__except_list, ecx
  00c31	8b e5		 mov	 esp, ebp
  00c33	5d		 pop	 ebp
  00c34	c2 04 00	 ret	 4
_TEXT	ENDS
text$x	SEGMENT
$L200097:
  000a3	8d 4d 08	 lea	 ecx, DWORD PTR _str$[ebp]
  000a6	ff 25 00 00 00
	00		 jmp	 DWORD PTR __imp_??1?$CStringT@DV?$StrTraitMFC_DLL@DV?$ChTraitsCRT@D@ATL@@@@@ATL@@QAE@XZ
$L200098:
  000ac	8d 4d d4	 lea	 ecx, DWORD PTR $T200088[ebp]
  000af	ff 25 00 00 00
	00		 jmp	 DWORD PTR __imp_??1?$CStringT@DV?$StrTraitMFC_DLL@DV?$ChTraitsCRT@D@ATL@@@@@ATL@@QAE@XZ
$L200099:
  000b5	8d 4d f0	 lea	 ecx, DWORD PTR _path$[ebp]
  000b8	ff 25 00 00 00
	00		 jmp	 DWORD PTR __imp_??1?$CStringT@DV?$StrTraitMFC_DLL@DV?$ChTraitsCRT@D@ATL@@@@@ATL@@QAE@XZ
$L200101:
  000be	8d 4d cc	 lea	 ecx, DWORD PTR $T200090[ebp]
  000c1	ff 25 00 00 00
	00		 jmp	 DWORD PTR __imp_??1?$CStringT@DV?$StrTraitMFC_DLL@DV?$ChTraitsCRT@D@ATL@@@@@ATL@@QAE@XZ
$L200102:
  000c7	8d 4d c8	 lea	 ecx, DWORD PTR $T200091[ebp]
  000ca	ff 25 00 00 00
	00		 jmp	 DWORD PTR __imp_??1?$CStringT@DV?$StrTraitMFC_DLL@DV?$ChTraitsCRT@D@ATL@@@@@ATL@@QAE@XZ
$L200104:
  000d0	8d 4d c0	 lea	 ecx, DWORD PTR $T200093[ebp]
  000d3	ff 25 00 00 00
	00		 jmp	 DWORD PTR __imp_??1?$CStringT@DV?$StrTraitMFC_DLL@DV?$ChTraitsCRT@D@ATL@@@@@ATL@@QAE@XZ
$L200105:
  000d9	8d 4d bc	 lea	 ecx, DWORD PTR $T200094[ebp]
  000dc	ff 25 00 00 00
	00		 jmp	 DWORD PTR __imp_??1?$CStringT@DV?$StrTraitMFC_DLL@DV?$ChTraitsCRT@D@ATL@@@@@ATL@@QAE@XZ
__ehhandler$?SetPngHoverSkin@CSubSkinButton@@UAEHV?$CStringT@DV?$StrTraitMFC_DLL@DV?$ChTraitsCRT@D@ATL@@@@@ATL@@@Z:
  000e2	b8 00 00 00 00	 mov	 eax, OFFSET FLAT:$T200108
  000e7	e9 00 00 00 00	 jmp	 ___CxxFrameHandler
text$x	ENDS
?SetPngHoverSkin@CSubSkinButton@@UAEHV?$CStringT@DV?$StrTraitMFC_DLL@DV?$ChTraitsCRT@D@ATL@@@@@ATL@@@Z ENDP ; CSubSkinButton::SetPngHoverSkin
PUBLIC	?Width@CRect@@QBEHXZ				; CRect::Width
PUBLIC	??0RectF@Gdiplus@@QAE@XZ			; Gdiplus::RectF::RectF
PUBLIC	??0Rect@Gdiplus@@QAE@HHHH@Z			; Gdiplus::Rect::Rect
PUBLIC	?DrawImage@Graphics@Gdiplus@@QAE?AW4Status@2@PAVImage@2@ABVRect@2@HHHHW4Unit@2@PBVImageAttributes@2@P6GHPAX@Z4@Z ; Gdiplus::Graphics::DrawImage
PUBLIC	??BCGdiPlusBitmap@CSkinButton@@QBEPAVBitmap@Gdiplus@@XZ ; CSkinButton::CGdiPlusBitmap::operator Gdiplus::Bitmap *
; Function compile flags: /Odt
_TEXT	SEGMENT
tv91 = -72						; size = 4
_this$ = -68						; size = 4
_grect$198952 = -64					; size = 16
_nY$198954 = -48					; size = 4
_rr$198955 = -44					; size = 16
_nX$198953 = -28					; size = 4
_rect$198949 = -24					; size = 16
_h$198951 = -8						; size = 4
_w$198950 = -4						; size = 4
_gdi$ = 8						; size = 4
?DrawBtnFrame@CSubSkinButton@@IAEXAAVGraphics@Gdiplus@@@Z PROC NEAR ; CSubSkinButton::DrawBtnFrame
; _this$ = ecx

; 164  : {

  00c40	55		 push	 ebp
  00c41	8b ec		 mov	 ebp, esp
  00c43	83 ec 48	 sub	 esp, 72			; 00000048H
  00c46	89 4d bc	 mov	 DWORD PTR _this$[ebp], ecx

; 165  : 	if( m_pPngFrame && m_pPngFrame->m_pBitmap )

  00c49	8b 45 bc	 mov	 eax, DWORD PTR _this$[ebp]
  00c4c	83 b8 40 01 00
	00 00		 cmp	 DWORD PTR [eax+320], 0
  00c53	0f 84 e1 00 00
	00		 je	 $L198947
  00c59	8b 4d bc	 mov	 ecx, DWORD PTR _this$[ebp]
  00c5c	8b 91 40 01 00
	00		 mov	 edx, DWORD PTR [ecx+320]
  00c62	83 7a 04 00	 cmp	 DWORD PTR [edx+4], 0
  00c66	0f 84 ce 00 00
	00		 je	 $L198947

; 166  : 	{
; 167  : 		CRect rect;

  00c6c	8d 4d e8	 lea	 ecx, DWORD PTR _rect$198949[ebp]
  00c6f	e8 00 00 00 00	 call	 ??0CRect@@QAE@XZ	; CRect::CRect

; 168  : 		this->GetClientRect(&rect);

  00c74	8d 45 e8	 lea	 eax, DWORD PTR _rect$198949[ebp]
  00c77	50		 push	 eax
  00c78	8b 4d bc	 mov	 ecx, DWORD PTR _this$[ebp]
  00c7b	e8 00 00 00 00	 call	 ?GetClientRect@CWnd@@QBEXPAUtagRECT@@@Z ; CWnd::GetClientRect

; 169  : 		int w = m_pPngFrame->m_pBitmap->GetWidth();

  00c80	8b 4d bc	 mov	 ecx, DWORD PTR _this$[ebp]
  00c83	8b 91 40 01 00
	00		 mov	 edx, DWORD PTR [ecx+320]
  00c89	8b 4a 04	 mov	 ecx, DWORD PTR [edx+4]
  00c8c	e8 00 00 00 00	 call	 ?GetWidth@Image@Gdiplus@@QAEIXZ ; Gdiplus::Image::GetWidth
  00c91	89 45 fc	 mov	 DWORD PTR _w$198950[ebp], eax

; 170  : 		int h = m_pPngFrame->m_pBitmap->GetHeight();

  00c94	8b 45 bc	 mov	 eax, DWORD PTR _this$[ebp]
  00c97	8b 88 40 01 00
	00		 mov	 ecx, DWORD PTR [eax+320]
  00c9d	8b 49 04	 mov	 ecx, DWORD PTR [ecx+4]
  00ca0	e8 00 00 00 00	 call	 ?GetHeight@Image@Gdiplus@@QAEIXZ ; Gdiplus::Image::GetHeight
  00ca5	89 45 f8	 mov	 DWORD PTR _h$198951[ebp], eax

; 171  : 		RectF grect;

  00ca8	8d 4d c0	 lea	 ecx, DWORD PTR _grect$198952[ebp]
  00cab	e8 00 00 00 00	 call	 ??0RectF@Gdiplus@@QAE@XZ ; Gdiplus::RectF::RectF

; 172  : 		int nX = ((rect.Width()-w)>4? (rect.Width()-w)/2:2);

  00cb0	8d 4d e8	 lea	 ecx, DWORD PTR _rect$198949[ebp]
  00cb3	e8 00 00 00 00	 call	 ?Width@CRect@@QBEHXZ	; CRect::Width
  00cb8	2b 45 fc	 sub	 eax, DWORD PTR _w$198950[ebp]
  00cbb	83 f8 04	 cmp	 eax, 4
  00cbe	7e 15		 jle	 SHORT $L200112
  00cc0	8d 4d e8	 lea	 ecx, DWORD PTR _rect$198949[ebp]
  00cc3	e8 00 00 00 00	 call	 ?Width@CRect@@QBEHXZ	; CRect::Width
  00cc8	2b 45 fc	 sub	 eax, DWORD PTR _w$198950[ebp]
  00ccb	99		 cdq
  00ccc	2b c2		 sub	 eax, edx
  00cce	d1 f8		 sar	 eax, 1
  00cd0	89 45 b8	 mov	 DWORD PTR tv91[ebp], eax
  00cd3	eb 07		 jmp	 SHORT $L200113
$L200112:
  00cd5	c7 45 b8 02 00
	00 00		 mov	 DWORD PTR tv91[ebp], 2
$L200113:
  00cdc	8b 55 b8	 mov	 edx, DWORD PTR tv91[ebp]
  00cdf	89 55 e4	 mov	 DWORD PTR _nX$198953[ebp], edx

; 173  : 		int nY = 0;//(rect.Height()-h)>4? (rect.Height()-h)/2:2;

  00ce2	c7 45 d0 00 00
	00 00		 mov	 DWORD PTR _nY$198954[ebp], 0

; 174  : 
; 175  : 		Rect rr(nX, nY, w,h+nY-1);

  00ce9	8b 45 d0	 mov	 eax, DWORD PTR _nY$198954[ebp]
  00cec	8b 4d f8	 mov	 ecx, DWORD PTR _h$198951[ebp]
  00cef	8d 54 01 ff	 lea	 edx, DWORD PTR [ecx+eax-1]
  00cf3	52		 push	 edx
  00cf4	8b 45 fc	 mov	 eax, DWORD PTR _w$198950[ebp]
  00cf7	50		 push	 eax
  00cf8	8b 4d d0	 mov	 ecx, DWORD PTR _nY$198954[ebp]
  00cfb	51		 push	 ecx
  00cfc	8b 55 e4	 mov	 edx, DWORD PTR _nX$198953[ebp]
  00cff	52		 push	 edx
  00d00	8d 4d d4	 lea	 ecx, DWORD PTR _rr$198955[ebp]
  00d03	e8 00 00 00 00	 call	 ??0Rect@Gdiplus@@QAE@HHHH@Z ; Gdiplus::Rect::Rect

; 176  : 		gdi.DrawImage(*m_pPngFrame,
; 177  : 			rr,
; 178  : 			(int)0, 
; 179  : 			(int)1,
; 180  : 			(int)w, 
; 181  : 			(int)h-1,
; 182  : 			UnitPixel );

  00d08	6a 00		 push	 0
  00d0a	6a 00		 push	 0
  00d0c	6a 00		 push	 0
  00d0e	6a 02		 push	 2
  00d10	8b 45 f8	 mov	 eax, DWORD PTR _h$198951[ebp]
  00d13	83 e8 01	 sub	 eax, 1
  00d16	50		 push	 eax
  00d17	8b 4d fc	 mov	 ecx, DWORD PTR _w$198950[ebp]
  00d1a	51		 push	 ecx
  00d1b	6a 01		 push	 1
  00d1d	6a 00		 push	 0
  00d1f	8d 55 d4	 lea	 edx, DWORD PTR _rr$198955[ebp]
  00d22	52		 push	 edx
  00d23	8b 45 bc	 mov	 eax, DWORD PTR _this$[ebp]
  00d26	8b 88 40 01 00
	00		 mov	 ecx, DWORD PTR [eax+320]
  00d2c	e8 00 00 00 00	 call	 ??BCGdiPlusBitmap@CSkinButton@@QBEPAVBitmap@Gdiplus@@XZ ; CSkinButton::CGdiPlusBitmap::operator Gdiplus::Bitmap *
  00d31	50		 push	 eax
  00d32	8b 4d 08	 mov	 ecx, DWORD PTR _gdi$[ebp]
  00d35	e8 00 00 00 00	 call	 ?DrawImage@Graphics@Gdiplus@@QAE?AW4Status@2@PAVImage@2@ABVRect@2@HHHHW4Unit@2@PBVImageAttributes@2@P6GHPAX@Z4@Z ; Gdiplus::Graphics::DrawImage
$L198947:

; 183  : 	}
; 184  : }

  00d3a	8b e5		 mov	 esp, ebp
  00d3c	5d		 pop	 ebp
  00d3d	c2 04 00	 ret	 4
?DrawBtnFrame@CSubSkinButton@@IAEXAAVGraphics@Gdiplus@@@Z ENDP ; CSubSkinButton::DrawBtnFrame
; Function compile flags: /Odt
; File d:\boxgit\playbox\playbox\dev\prj\playbox\src\layoutmgr\changecolor\skinbotton.h
_TEXT	ENDS
;	COMDAT ??BCGdiPlusBitmap@CSkinButton@@QBEPAVBitmap@Gdiplus@@XZ
_TEXT	SEGMENT
_this$ = -4						; size = 4
??BCGdiPlusBitmap@CSkinButton@@QBEPAVBitmap@Gdiplus@@XZ PROC NEAR ; CSkinButton::CGdiPlusBitmap::operator Gdiplus::Bitmap *, COMDAT
; _this$ = ecx

; 93   : 	operator Gdiplus::Bitmap*() const			{ return m_pBitmap; }

  00000	55		 push	 ebp
  00001	8b ec		 mov	 ebp, esp
  00003	51		 push	 ecx
  00004	89 4d fc	 mov	 DWORD PTR _this$[ebp], ecx
  00007	8b 45 fc	 mov	 eax, DWORD PTR _this$[ebp]
  0000a	8b 40 04	 mov	 eax, DWORD PTR [eax+4]
  0000d	8b e5		 mov	 esp, ebp
  0000f	5d		 pop	 ebp
  00010	c3		 ret	 0
??BCGdiPlusBitmap@CSkinButton@@QBEPAVBitmap@Gdiplus@@XZ ENDP ; CSkinButton::CGdiPlusBitmap::operator Gdiplus::Bitmap *
_TEXT	ENDS
PUBLIC	?ScreenToClient@CWnd@@QBEXPAUtagPOINT@@@Z	; CWnd::ScreenToClient
PUBLIC	?IsMouseInDeleteButton@CSubSkinButton@@AAEHXZ	; CSubSkinButton::IsMouseInDeleteButton
PUBLIC	??0CPoint@@QAE@XZ				; CPoint::CPoint
PUBLIC	?PtInRect@CRect@@QBEHUtagPOINT@@@Z		; CRect::PtInRect
EXTRN	__imp__GetCursorPos@4:NEAR
; Function compile flags: /Odt
; File d:\boxgit\playbox\playbox\dev\prj\playbox\src\layoutmgr\changecolor\subskinbutton.cpp
_TEXT	SEGMENT
_this$ = -52						; size = 4
$T200117 = -48						; size = 8
_lPoint$ = -40						; size = 8
_rect$ = -32						; size = 16
_rc$ = -16						; size = 16
?IsMouseInDeleteButton@CSubSkinButton@@AAEHXZ PROC NEAR	; CSubSkinButton::IsMouseInDeleteButton
; _this$ = ecx

; 187  : {

  00d40	55		 push	 ebp
  00d41	8b ec		 mov	 ebp, esp
  00d43	83 ec 34	 sub	 esp, 52			; 00000034H
  00d46	89 4d cc	 mov	 DWORD PTR _this$[ebp], ecx

; 188  : 	CPoint	lPoint;

  00d49	8d 4d d8	 lea	 ecx, DWORD PTR _lPoint$[ebp]
  00d4c	e8 00 00 00 00	 call	 ??0CPoint@@QAE@XZ	; CPoint::CPoint

; 189  : 	CRect	rect;

  00d51	8d 4d e0	 lea	 ecx, DWORD PTR _rect$[ebp]
  00d54	e8 00 00 00 00	 call	 ??0CRect@@QAE@XZ	; CRect::CRect

; 190  : 
; 191  : 	if(!m_pPngDeleteNormal)

  00d59	8b 45 cc	 mov	 eax, DWORD PTR _this$[ebp]
  00d5c	83 b8 3c 01 00
	00 00		 cmp	 DWORD PTR [eax+316], 0
  00d63	75 07		 jne	 SHORT $L198965

; 192  : 		return false;

  00d65	33 c0		 xor	 eax, eax
  00d67	e9 a4 00 00 00	 jmp	 $L198962
$L198965:

; 193  : 
; 194  : 	GetCursorPos(&lPoint);

  00d6c	8d 4d d8	 lea	 ecx, DWORD PTR _lPoint$[ebp]
  00d6f	51		 push	 ecx
  00d70	ff 15 00 00 00
	00		 call	 DWORD PTR __imp__GetCursorPos@4

; 195  : 	GetClientRect(&rect);

  00d76	8d 55 e0	 lea	 edx, DWORD PTR _rect$[ebp]
  00d79	52		 push	 edx
  00d7a	8b 4d cc	 mov	 ecx, DWORD PTR _this$[ebp]
  00d7d	e8 00 00 00 00	 call	 ?GetClientRect@CWnd@@QBEXPAUtagRECT@@@Z ; CWnd::GetClientRect

; 196  : 
; 197  : 	ScreenToClient(&lPoint);

  00d82	8d 45 d8	 lea	 eax, DWORD PTR _lPoint$[ebp]
  00d85	50		 push	 eax
  00d86	8b 4d cc	 mov	 ecx, DWORD PTR _this$[ebp]
  00d89	e8 00 00 00 00	 call	 ?ScreenToClient@CWnd@@QBEXPAUtagPOINT@@@Z ; CWnd::ScreenToClient

; 198  : 
; 199  : 	CRect rc;

  00d8e	8d 4d f0	 lea	 ecx, DWORD PTR _rc$[ebp]
  00d91	e8 00 00 00 00	 call	 ??0CRect@@QAE@XZ	; CRect::CRect

; 200  : 	rc.left = rect.right - m_pPngDeleteNormal->m_pBitmap->GetWidth()-5;

  00d96	8b 4d cc	 mov	 ecx, DWORD PTR _this$[ebp]
  00d99	8b 91 3c 01 00
	00		 mov	 edx, DWORD PTR [ecx+316]
  00d9f	8b 4a 04	 mov	 ecx, DWORD PTR [edx+4]
  00da2	e8 00 00 00 00	 call	 ?GetWidth@Image@Gdiplus@@QAEIXZ ; Gdiplus::Image::GetWidth
  00da7	8b 4d e8	 mov	 ecx, DWORD PTR _rect$[ebp+8]
  00daa	2b c8		 sub	 ecx, eax
  00dac	83 e9 05	 sub	 ecx, 5
  00daf	89 4d f0	 mov	 DWORD PTR _rc$[ebp], ecx

; 201  : 	rc.top = 2;

  00db2	c7 45 f4 02 00
	00 00		 mov	 DWORD PTR _rc$[ebp+4], 2

; 202  : 	rc.right = rc.left + m_pPngDeleteNormal->m_pBitmap->GetWidth();

  00db9	8b 55 cc	 mov	 edx, DWORD PTR _this$[ebp]
  00dbc	8b 82 3c 01 00
	00		 mov	 eax, DWORD PTR [edx+316]
  00dc2	8b 48 04	 mov	 ecx, DWORD PTR [eax+4]
  00dc5	e8 00 00 00 00	 call	 ?GetWidth@Image@Gdiplus@@QAEIXZ ; Gdiplus::Image::GetWidth
  00dca	03 45 f0	 add	 eax, DWORD PTR _rc$[ebp]
  00dcd	89 45 f8	 mov	 DWORD PTR _rc$[ebp+8], eax

; 203  : 	rc.bottom = 2 + m_pPngDeleteNormal->m_pBitmap->GetHeight();

  00dd0	8b 4d cc	 mov	 ecx, DWORD PTR _this$[ebp]
  00dd3	8b 91 3c 01 00
	00		 mov	 edx, DWORD PTR [ecx+316]
  00dd9	8b 4a 04	 mov	 ecx, DWORD PTR [edx+4]
  00ddc	e8 00 00 00 00	 call	 ?GetHeight@Image@Gdiplus@@QAEIXZ ; Gdiplus::Image::GetHeight
  00de1	83 c0 02	 add	 eax, 2
  00de4	89 45 fc	 mov	 DWORD PTR _rc$[ebp+12], eax

; 204  : 
; 205  : 	if(rc.PtInRect(lPoint))

  00de7	8b 45 d8	 mov	 eax, DWORD PTR _lPoint$[ebp]
  00dea	89 45 d0	 mov	 DWORD PTR $T200117[ebp], eax
  00ded	8b 4d dc	 mov	 ecx, DWORD PTR _lPoint$[ebp+4]
  00df0	89 4d d4	 mov	 DWORD PTR $T200117[ebp+4], ecx
  00df3	8b 55 d4	 mov	 edx, DWORD PTR $T200117[ebp+4]
  00df6	52		 push	 edx
  00df7	8b 45 d0	 mov	 eax, DWORD PTR $T200117[ebp]
  00dfa	50		 push	 eax
  00dfb	8d 4d f0	 lea	 ecx, DWORD PTR _rc$[ebp]
  00dfe	e8 00 00 00 00	 call	 ?PtInRect@CRect@@QBEHUtagPOINT@@@Z ; CRect::PtInRect
  00e03	85 c0		 test	 eax, eax
  00e05	74 07		 je	 SHORT $L198968

; 206  : 		return true;

  00e07	b8 01 00 00 00	 mov	 eax, 1
  00e0c	eb 02		 jmp	 SHORT $L198962
$L198968:

; 207  : 	return false;

  00e0e	33 c0		 xor	 eax, eax
$L198962:

; 208  : }

  00e10	8b e5		 mov	 esp, ebp
  00e12	5d		 pop	 ebp
  00e13	c3		 ret	 0
?IsMouseInDeleteButton@CSubSkinButton@@AAEHXZ ENDP	; CSubSkinButton::IsMouseInDeleteButton
_TEXT	ENDS
PUBLIC	?DrawImage@Graphics@Gdiplus@@QAE?AW4Status@2@PAVImage@2@ABVRectF@2@@Z ; Gdiplus::Graphics::DrawImage
EXTRN	__fltused:NEAR
; Function compile flags: /Odt
_TEXT	SEGMENT
tv166 = -60						; size = 8
tv161 = -52						; size = 8
tv156 = -44						; size = 8
_this$ = -36						; size = 4
_grect$198977 = -32					; size = 16
_rect$ = -16						; size = 16
_gdi$ = 8						; size = 4
?DrawHoverImage@CSubSkinButton@@IAEXAAVGraphics@Gdiplus@@@Z PROC NEAR ; CSubSkinButton::DrawHoverImage
; _this$ = ecx

; 210  : {

  00e20	55		 push	 ebp
  00e21	8b ec		 mov	 ebp, esp
  00e23	83 ec 3c	 sub	 esp, 60			; 0000003cH
  00e26	89 4d dc	 mov	 DWORD PTR _this$[ebp], ecx

; 211  : 	CRect rect;

  00e29	8d 4d f0	 lea	 ecx, DWORD PTR _rect$[ebp]
  00e2c	e8 00 00 00 00	 call	 ??0CRect@@QAE@XZ	; CRect::CRect

; 212  : 	GetClientRect(&rect);

  00e31	8d 45 f0	 lea	 eax, DWORD PTR _rect$[ebp]
  00e34	50		 push	 eax
  00e35	8b 4d dc	 mov	 ecx, DWORD PTR _this$[ebp]
  00e38	e8 00 00 00 00	 call	 ?GetClientRect@CWnd@@QBEXPAUtagRECT@@@Z ; CWnd::GetClientRect

; 213  : 	if(IsMouseInDeleteButton())

  00e3d	8b 4d dc	 mov	 ecx, DWORD PTR _this$[ebp]
  00e40	e8 00 00 00 00	 call	 ?IsMouseInDeleteButton@CSubSkinButton@@AAEHXZ ; CSubSkinButton::IsMouseInDeleteButton
  00e45	85 c0		 test	 eax, eax
  00e47	74 14		 je	 SHORT $L198974

; 214  : 	{
; 215  : 		m_pCurDelete = m_pPngDeleteOver;

  00e49	8b 4d dc	 mov	 ecx, DWORD PTR _this$[ebp]
  00e4c	8b 55 dc	 mov	 edx, DWORD PTR _this$[ebp]
  00e4f	8b 82 38 01 00
	00		 mov	 eax, DWORD PTR [edx+312]
  00e55	89 81 30 01 00
	00		 mov	 DWORD PTR [ecx+304], eax

; 216  : 	}
; 217  : 	else 

  00e5b	eb 12		 jmp	 SHORT $L198975
$L198974:

; 218  : 	{
; 219  : 		m_pCurDelete = m_pPngDeleteNormal;

  00e5d	8b 4d dc	 mov	 ecx, DWORD PTR _this$[ebp]
  00e60	8b 55 dc	 mov	 edx, DWORD PTR _this$[ebp]
  00e63	8b 82 3c 01 00
	00		 mov	 eax, DWORD PTR [edx+316]
  00e69	89 81 30 01 00
	00		 mov	 DWORD PTR [ecx+304], eax
$L198975:

; 220  : 	}
; 221  : 
; 222  : 	if( m_pCurDelete && m_pCurDelete->m_pBitmap )

  00e6f	8b 4d dc	 mov	 ecx, DWORD PTR _this$[ebp]
  00e72	83 b9 30 01 00
	00 00		 cmp	 DWORD PTR [ecx+304], 0
  00e79	0f 84 a8 00 00
	00		 je	 $L198972
  00e7f	8b 55 dc	 mov	 edx, DWORD PTR _this$[ebp]
  00e82	8b 82 30 01 00
	00		 mov	 eax, DWORD PTR [edx+304]
  00e88	83 78 04 00	 cmp	 DWORD PTR [eax+4], 0
  00e8c	0f 84 95 00 00
	00		 je	 $L198972

; 223  : 	{
; 224  : 
; 225  : 		RectF grect;

  00e92	8d 4d e0	 lea	 ecx, DWORD PTR _grect$198977[ebp]
  00e95	e8 00 00 00 00	 call	 ??0RectF@Gdiplus@@QAE@XZ ; Gdiplus::RectF::RectF

; 226  : 		grect.X=rect.right - m_pCurDelete->m_pBitmap->GetWidth()-5, grect.Y=2; 

  00e9a	8b 4d dc	 mov	 ecx, DWORD PTR _this$[ebp]
  00e9d	8b 91 30 01 00
	00		 mov	 edx, DWORD PTR [ecx+304]
  00ea3	8b 4a 04	 mov	 ecx, DWORD PTR [edx+4]
  00ea6	e8 00 00 00 00	 call	 ?GetWidth@Image@Gdiplus@@QAEIXZ ; Gdiplus::Image::GetWidth
  00eab	8b 4d f8	 mov	 ecx, DWORD PTR _rect$[ebp+8]
  00eae	2b c8		 sub	 ecx, eax
  00eb0	83 e9 05	 sub	 ecx, 5
  00eb3	89 4d d4	 mov	 DWORD PTR tv156[ebp], ecx
  00eb6	c7 45 d8 00 00
	00 00		 mov	 DWORD PTR tv156[ebp+4], 0
  00ebd	df 6d d4	 fild	 QWORD PTR tv156[ebp]
  00ec0	d9 5d e0	 fstp	 DWORD PTR _grect$198977[ebp]
  00ec3	c7 45 e4 00 00
	00 40		 mov	 DWORD PTR _grect$198977[ebp+4], 1073741824 ; 40000000H

; 227  : 		grect.Width = m_pCurDelete->m_pBitmap->GetWidth(); 

  00eca	8b 55 dc	 mov	 edx, DWORD PTR _this$[ebp]
  00ecd	8b 82 30 01 00
	00		 mov	 eax, DWORD PTR [edx+304]
  00ed3	8b 48 04	 mov	 ecx, DWORD PTR [eax+4]
  00ed6	e8 00 00 00 00	 call	 ?GetWidth@Image@Gdiplus@@QAEIXZ ; Gdiplus::Image::GetWidth
  00edb	89 45 cc	 mov	 DWORD PTR tv161[ebp], eax
  00ede	c7 45 d0 00 00
	00 00		 mov	 DWORD PTR tv161[ebp+4], 0
  00ee5	df 6d cc	 fild	 QWORD PTR tv161[ebp]
  00ee8	d9 5d e8	 fstp	 DWORD PTR _grect$198977[ebp+8]

; 228  : 		grect.Height = m_pCurDelete->m_pBitmap->GetHeight();

  00eeb	8b 4d dc	 mov	 ecx, DWORD PTR _this$[ebp]
  00eee	8b 91 30 01 00
	00		 mov	 edx, DWORD PTR [ecx+304]
  00ef4	8b 4a 04	 mov	 ecx, DWORD PTR [edx+4]
  00ef7	e8 00 00 00 00	 call	 ?GetHeight@Image@Gdiplus@@QAEIXZ ; Gdiplus::Image::GetHeight
  00efc	89 45 c4	 mov	 DWORD PTR tv166[ebp], eax
  00eff	c7 45 c8 00 00
	00 00		 mov	 DWORD PTR tv166[ebp+4], 0
  00f06	df 6d c4	 fild	 QWORD PTR tv166[ebp]
  00f09	d9 5d ec	 fstp	 DWORD PTR _grect$198977[ebp+12]

; 229  : 		gdi.DrawImage(*m_pCurDelete,grect );

  00f0c	8d 45 e0	 lea	 eax, DWORD PTR _grect$198977[ebp]
  00f0f	50		 push	 eax
  00f10	8b 4d dc	 mov	 ecx, DWORD PTR _this$[ebp]
  00f13	8b 89 30 01 00
	00		 mov	 ecx, DWORD PTR [ecx+304]
  00f19	e8 00 00 00 00	 call	 ??BCGdiPlusBitmap@CSkinButton@@QBEPAVBitmap@Gdiplus@@XZ ; CSkinButton::CGdiPlusBitmap::operator Gdiplus::Bitmap *
  00f1e	50		 push	 eax
  00f1f	8b 4d 08	 mov	 ecx, DWORD PTR _gdi$[ebp]
  00f22	e8 00 00 00 00	 call	 ?DrawImage@Graphics@Gdiplus@@QAE?AW4Status@2@PAVImage@2@ABVRectF@2@@Z ; Gdiplus::Graphics::DrawImage
$L198972:

; 230  : 	}
; 231  : }

  00f27	8b e5		 mov	 esp, ebp
  00f29	5d		 pop	 ebp
  00f2a	c2 04 00	 ret	 4
?DrawHoverImage@CSubSkinButton@@IAEXAAVGraphics@Gdiplus@@@Z ENDP ; CSubSkinButton::DrawHoverImage
; Function compile flags: /Odt
_this$ = -4						; size = 4
?IsClickPng@CSubSkinButton@@UAEHXZ PROC NEAR		; CSubSkinButton::IsClickPng
; _this$ = ecx

; 234  : {

  00f30	55		 push	 ebp
  00f31	8b ec		 mov	 ebp, esp
  00f33	51		 push	 ecx
  00f34	89 4d fc	 mov	 DWORD PTR _this$[ebp], ecx

; 235  : 	return m_bClickPng;

  00f37	8b 45 fc	 mov	 eax, DWORD PTR _this$[ebp]
  00f3a	8b 80 44 01 00
	00		 mov	 eax, DWORD PTR [eax+324]

; 236  : }

  00f40	8b e5		 mov	 esp, ebp
  00f42	5d		 pop	 ebp
  00f43	c3		 ret	 0
?IsClickPng@CSubSkinButton@@UAEHXZ ENDP			; CSubSkinButton::IsClickPng
; Function compile flags: /Odt
_this$ = -4						; size = 4
_bclick$ = 8						; size = 4
?SetClickPng@CSubSkinButton@@UAEXH@Z PROC NEAR		; CSubSkinButton::SetClickPng
; _this$ = ecx

; 239  :  {

  00f50	55		 push	 ebp
  00f51	8b ec		 mov	 ebp, esp
  00f53	51		 push	 ecx
  00f54	89 4d fc	 mov	 DWORD PTR _this$[ebp], ecx

; 240  : 	m_bClickPng = bclick;	 

  00f57	8b 45 fc	 mov	 eax, DWORD PTR _this$[ebp]
  00f5a	8b 4d 08	 mov	 ecx, DWORD PTR _bclick$[ebp]
  00f5d	89 88 44 01 00
	00		 mov	 DWORD PTR [eax+324], ecx

; 241  :  }

  00f63	8b e5		 mov	 esp, ebp
  00f65	5d		 pop	 ebp
  00f66	c2 04 00	 ret	 4
?SetClickPng@CSubSkinButton@@UAEXH@Z ENDP		; CSubSkinButton::SetClickPng
_TEXT	ENDS
PUBLIC	??8ATL@@YA_NABV?$CStringT@DV?$StrTraitMFC_DLL@DV?$ChTraitsCRT@D@ATL@@@@@0@PBD@Z ; ATL::operator==
PUBLIC	??9ATL@@YA_NABV?$CStringT@DV?$StrTraitMFC_DLL@DV?$ChTraitsCRT@D@ATL@@@@@0@PBD@Z ; ATL::operator!=
EXTRN	__imp_??0?$CStringT@DV?$StrTraitMFC_DLL@DV?$ChTraitsCRT@D@ATL@@@@@ATL@@QAE@PBD@Z:NEAR
EXTRN	?SetToolTipText@CSkinButton@@QAEXV?$CStringT@DV?$StrTraitMFC_DLL@DV?$ChTraitsCRT@D@ATL@@@@@ATL@@@Z:NEAR ; CSkinButton::SetToolTipText
EXTRN	?OnMouseMove@CSkinButton@@QAEXIVCPoint@@@Z:NEAR	; CSkinButton::OnMouseMove
; Function compile flags: /Odt
_TEXT	SEGMENT
tv175 = -20						; size = 4
tv173 = -16						; size = 4
_this$ = -12						; size = 4
$T200124 = -8						; size = 4
$T200123 = -4						; size = 4
_nFlags$ = 8						; size = 4
_point$ = 12						; size = 8
?OnMouseMove@CSubSkinButton@@QAEXIVCPoint@@@Z PROC NEAR	; CSubSkinButton::OnMouseMove
; _this$ = ecx

; 244  :  {

  00f70	55		 push	 ebp
  00f71	8b ec		 mov	 ebp, esp
  00f73	83 ec 14	 sub	 esp, 20			; 00000014H
  00f76	89 4d f4	 mov	 DWORD PTR _this$[ebp], ecx

; 245  : // 	 if(!m_bShowDel)
; 246  : // 		 SetTimer(TIMER_MOUSE_IN_BTN,400,NULL);
; 247  : 
; 248  : 	 if(IsMouseInDeleteButton() && m_strToolTip != "")

  00f79	8b 4d f4	 mov	 ecx, DWORD PTR _this$[ebp]
  00f7c	e8 00 00 00 00	 call	 ?IsMouseInDeleteButton@CSubSkinButton@@AAEHXZ ; CSubSkinButton::IsMouseInDeleteButton
  00f81	85 c0		 test	 eax, eax
  00f83	74 54		 je	 SHORT $L198990
  00f85	68 00 00 00 00	 push	 OFFSET FLAT:$SG198991
  00f8a	8b 45 f4	 mov	 eax, DWORD PTR _this$[ebp]
  00f8d	05 e0 00 00 00	 add	 eax, 224		; 000000e0H
  00f92	50		 push	 eax
  00f93	e8 00 00 00 00	 call	 ??9ATL@@YA_NABV?$CStringT@DV?$StrTraitMFC_DLL@DV?$ChTraitsCRT@D@ATL@@@@@0@PBD@Z ; ATL::operator!=
  00f98	83 c4 08	 add	 esp, 8
  00f9b	0f b6 c8	 movzx	 ecx, al
  00f9e	85 c9		 test	 ecx, ecx
  00fa0	74 37		 je	 SHORT $L198990

; 249  : 	 {
; 250  : 		 m_strLastToolTip = m_strToolTip;

  00fa2	8b 55 f4	 mov	 edx, DWORD PTR _this$[ebp]
  00fa5	81 c2 e0 00 00
	00		 add	 edx, 224		; 000000e0H
  00fab	52		 push	 edx
  00fac	8b 4d f4	 mov	 ecx, DWORD PTR _this$[ebp]
  00faf	81 c1 4c 01 00
	00		 add	 ecx, 332		; 0000014cH
  00fb5	ff 15 00 00 00
	00		 call	 DWORD PTR __imp_??4?$CStringT@DV?$StrTraitMFC_DLL@DV?$ChTraitsCRT@D@ATL@@@@@ATL@@QAEAAV01@ABV01@@Z

; 251  : 		 SetToolTipText("");

  00fbb	51		 push	 ecx
  00fbc	8b cc		 mov	 ecx, esp
  00fbe	89 65 fc	 mov	 DWORD PTR $T200123[ebp], esp
  00fc1	68 00 00 00 00	 push	 OFFSET FLAT:$SG198993
  00fc6	ff 15 00 00 00
	00		 call	 DWORD PTR __imp_??0?$CStringT@DV?$StrTraitMFC_DLL@DV?$ChTraitsCRT@D@ATL@@@@@ATL@@QAE@PBD@Z
  00fcc	89 45 f0	 mov	 DWORD PTR tv173[ebp], eax
  00fcf	8b 4d f4	 mov	 ecx, DWORD PTR _this$[ebp]
  00fd2	e8 00 00 00 00	 call	 ?SetToolTipText@CSkinButton@@QAEXV?$CStringT@DV?$StrTraitMFC_DLL@DV?$ChTraitsCRT@D@ATL@@@@@ATL@@@Z ; CSkinButton::SetToolTipText

; 252  : 	 }
; 253  : 	 else if(!IsMouseInDeleteButton() && m_strToolTip == "")

  00fd7	eb 4a		 jmp	 SHORT $L198994
$L198990:
  00fd9	8b 4d f4	 mov	 ecx, DWORD PTR _this$[ebp]
  00fdc	e8 00 00 00 00	 call	 ?IsMouseInDeleteButton@CSubSkinButton@@AAEHXZ ; CSubSkinButton::IsMouseInDeleteButton
  00fe1	85 c0		 test	 eax, eax
  00fe3	75 3e		 jne	 SHORT $L198994
  00fe5	68 00 00 00 00	 push	 OFFSET FLAT:$SG198996
  00fea	8b 45 f4	 mov	 eax, DWORD PTR _this$[ebp]
  00fed	05 e0 00 00 00	 add	 eax, 224		; 000000e0H
  00ff2	50		 push	 eax
  00ff3	e8 00 00 00 00	 call	 ??8ATL@@YA_NABV?$CStringT@DV?$StrTraitMFC_DLL@DV?$ChTraitsCRT@D@ATL@@@@@0@PBD@Z ; ATL::operator==
  00ff8	83 c4 08	 add	 esp, 8
  00ffb	0f b6 c8	 movzx	 ecx, al
  00ffe	85 c9		 test	 ecx, ecx
  01000	74 21		 je	 SHORT $L198994

; 254  : 	 {
; 255  : 		 SetToolTipText(m_strLastToolTip);

  01002	8b 55 f4	 mov	 edx, DWORD PTR _this$[ebp]
  01005	81 c2 4c 01 00
	00		 add	 edx, 332		; 0000014cH
  0100b	51		 push	 ecx
  0100c	8b cc		 mov	 ecx, esp
  0100e	89 65 f8	 mov	 DWORD PTR $T200124[ebp], esp
  01011	52		 push	 edx
  01012	ff 15 00 00 00
	00		 call	 DWORD PTR __imp_??0?$CStringT@DV?$StrTraitMFC_DLL@DV?$ChTraitsCRT@D@ATL@@@@@ATL@@QAE@ABV01@@Z
  01018	89 45 ec	 mov	 DWORD PTR tv175[ebp], eax
  0101b	8b 4d f4	 mov	 ecx, DWORD PTR _this$[ebp]
  0101e	e8 00 00 00 00	 call	 ?SetToolTipText@CSkinButton@@QAEXV?$CStringT@DV?$StrTraitMFC_DLL@DV?$ChTraitsCRT@D@ATL@@@@@ATL@@@Z ; CSkinButton::SetToolTipText
$L198994:

; 256  : 	 }
; 257  : 	 if(IsMouseInDeleteButton() && m_pCurDelete != m_pPngDeleteOver)

  01023	8b 4d f4	 mov	 ecx, DWORD PTR _this$[ebp]
  01026	e8 00 00 00 00	 call	 ?IsMouseInDeleteButton@CSubSkinButton@@AAEHXZ ; CSubSkinButton::IsMouseInDeleteButton
  0102b	85 c0		 test	 eax, eax
  0102d	74 30		 je	 SHORT $L198998
  0102f	8b 45 f4	 mov	 eax, DWORD PTR _this$[ebp]
  01032	8b 4d f4	 mov	 ecx, DWORD PTR _this$[ebp]
  01035	8b 90 30 01 00
	00		 mov	 edx, DWORD PTR [eax+304]
  0103b	3b 91 38 01 00
	00		 cmp	 edx, DWORD PTR [ecx+312]
  01041	74 1c		 je	 SHORT $L198998

; 258  : 	 {
; 259  : 
; 260  : 
; 261  : 		 m_pCurDelete = m_pPngDeleteOver;

  01043	8b 45 f4	 mov	 eax, DWORD PTR _this$[ebp]
  01046	8b 4d f4	 mov	 ecx, DWORD PTR _this$[ebp]
  01049	8b 91 38 01 00
	00		 mov	 edx, DWORD PTR [ecx+312]
  0104f	89 90 30 01 00
	00		 mov	 DWORD PTR [eax+304], edx

; 262  : 		 Invalidate();

  01055	6a 01		 push	 1
  01057	8b 4d f4	 mov	 ecx, DWORD PTR _this$[ebp]
  0105a	e8 00 00 00 00	 call	 ?Invalidate@CWnd@@QAEXH@Z ; CWnd::Invalidate
$L198998:

; 263  : 	 }
; 264  : 	 if(!IsMouseInDeleteButton() && m_pCurDelete != m_pPngDeleteNormal)

  0105f	8b 4d f4	 mov	 ecx, DWORD PTR _this$[ebp]
  01062	e8 00 00 00 00	 call	 ?IsMouseInDeleteButton@CSubSkinButton@@AAEHXZ ; CSubSkinButton::IsMouseInDeleteButton
  01067	85 c0		 test	 eax, eax
  01069	75 30		 jne	 SHORT $L198999
  0106b	8b 45 f4	 mov	 eax, DWORD PTR _this$[ebp]
  0106e	8b 4d f4	 mov	 ecx, DWORD PTR _this$[ebp]
  01071	8b 90 30 01 00
	00		 mov	 edx, DWORD PTR [eax+304]
  01077	3b 91 3c 01 00
	00		 cmp	 edx, DWORD PTR [ecx+316]
  0107d	74 1c		 je	 SHORT $L198999

; 265  : 	 {
; 266  : 		 m_pCurDelete = m_pPngDeleteNormal;

  0107f	8b 45 f4	 mov	 eax, DWORD PTR _this$[ebp]
  01082	8b 4d f4	 mov	 ecx, DWORD PTR _this$[ebp]
  01085	8b 91 3c 01 00
	00		 mov	 edx, DWORD PTR [ecx+316]
  0108b	89 90 30 01 00
	00		 mov	 DWORD PTR [eax+304], edx

; 267  : 		Invalidate();

  01091	6a 01		 push	 1
  01093	8b 4d f4	 mov	 ecx, DWORD PTR _this$[ebp]
  01096	e8 00 00 00 00	 call	 ?Invalidate@CWnd@@QAEXH@Z ; CWnd::Invalidate
$L198999:

; 268  : 	 }
; 269  : 	 CSkinButton::OnMouseMove(nFlags, point);

  0109b	8b 45 10	 mov	 eax, DWORD PTR _point$[ebp+4]
  0109e	50		 push	 eax
  0109f	8b 4d 0c	 mov	 ecx, DWORD PTR _point$[ebp]
  010a2	51		 push	 ecx
  010a3	8b 55 08	 mov	 edx, DWORD PTR _nFlags$[ebp]
  010a6	52		 push	 edx
  010a7	8b 4d f4	 mov	 ecx, DWORD PTR _this$[ebp]
  010aa	e8 00 00 00 00	 call	 ?OnMouseMove@CSkinButton@@QAEXIVCPoint@@@Z ; CSkinButton::OnMouseMove

; 270  :  }

  010af	8b e5		 mov	 esp, ebp
  010b1	5d		 pop	 ebp
  010b2	c2 0c 00	 ret	 12			; 0000000cH
?OnMouseMove@CSubSkinButton@@QAEXIVCPoint@@@Z ENDP	; CSubSkinButton::OnMouseMove
_TEXT	ENDS
PUBLIC	?OnTimer@CSubSkinButton@@QAEXI@Z		; CSubSkinButton::OnTimer
; Function compile flags: /Odt
_TEXT	SEGMENT
_this$ = -4						; size = 4
_aiIDEvent$ = 8						; size = 4
?OnTimer@CSubSkinButton@@QAEXI@Z PROC NEAR		; CSubSkinButton::OnTimer
; _this$ = ecx

; 273  :  {

  010c0	55		 push	 ebp
  010c1	8b ec		 mov	 ebp, esp
  010c3	51		 push	 ecx
  010c4	89 4d fc	 mov	 DWORD PTR _this$[ebp], ecx

; 274  : 	 if(aiIDEvent == TIMER_MOUSE_IN_BTN)

  010c7	81 7d 08 c8 00
	00 00		 cmp	 DWORD PTR _aiIDEvent$[ebp], 200 ; 000000c8H
  010ce	75 17		 jne	 SHORT $L199003

; 275  : 	 {
; 276  : 		 m_bShowDel = TRUE;

  010d0	8b 45 fc	 mov	 eax, DWORD PTR _this$[ebp]
  010d3	c7 80 48 01 00
	00 01 00 00 00	 mov	 DWORD PTR [eax+328], 1

; 277  : 		 Invalidate();

  010dd	6a 01		 push	 1
  010df	8b 4d fc	 mov	 ecx, DWORD PTR _this$[ebp]
  010e2	e8 00 00 00 00	 call	 ?Invalidate@CWnd@@QAEXH@Z ; CWnd::Invalidate
$L199003:

; 278  : 	 }
; 279  :  }

  010e7	8b e5		 mov	 esp, ebp
  010e9	5d		 pop	 ebp
  010ea	c2 04 00	 ret	 4
?OnTimer@CSubSkinButton@@QAEXI@Z ENDP			; CSubSkinButton::OnTimer
_TEXT	ENDS
PUBLIC	?KillTimer@CWnd@@QAEHI@Z			; CWnd::KillTimer
EXTRN	?OnMouseLeave@CSkinButton@@IAEJIJ@Z:NEAR	; CSkinButton::OnMouseLeave
; Function compile flags: /Odt
_TEXT	SEGMENT
_this$ = -4						; size = 4
_wParam$ = 8						; size = 4
_lParam$ = 12						; size = 4
?OnMouseLeave@CSubSkinButton@@QAEJIJ@Z PROC NEAR	; CSubSkinButton::OnMouseLeave
; _this$ = ecx

; 282  :  {

  010f0	55		 push	 ebp
  010f1	8b ec		 mov	 ebp, esp
  010f3	51		 push	 ecx
  010f4	89 4d fc	 mov	 DWORD PTR _this$[ebp], ecx

; 283  : 	 KillTimer(TIMER_MOUSE_IN_BTN);

  010f7	68 c8 00 00 00	 push	 200			; 000000c8H
  010fc	8b 4d fc	 mov	 ecx, DWORD PTR _this$[ebp]
  010ff	e8 00 00 00 00	 call	 ?KillTimer@CWnd@@QAEHI@Z ; CWnd::KillTimer

; 284  : 	 m_bShowDel = FALSE;

  01104	8b 45 fc	 mov	 eax, DWORD PTR _this$[ebp]
  01107	c7 80 48 01 00
	00 00 00 00 00	 mov	 DWORD PTR [eax+328], 0

; 285  : 	 return (CSkinButton::OnMouseLeave(wParam,lParam));

  01111	8b 4d 0c	 mov	 ecx, DWORD PTR _lParam$[ebp]
  01114	51		 push	 ecx
  01115	8b 55 08	 mov	 edx, DWORD PTR _wParam$[ebp]
  01118	52		 push	 edx
  01119	8b 4d fc	 mov	 ecx, DWORD PTR _this$[ebp]
  0111c	e8 00 00 00 00	 call	 ?OnMouseLeave@CSkinButton@@IAEJIJ@Z ; CSkinButton::OnMouseLeave

; 286  :  }

  01121	8b e5		 mov	 esp, ebp
  01123	5d		 pop	 ebp
  01124	c2 08 00	 ret	 8
?OnMouseLeave@CSubSkinButton@@QAEJIJ@Z ENDP		; CSubSkinButton::OnMouseLeave
_TEXT	ENDS
PUBLIC	?OnRButtonDown@CWnd@@IAEXIVCPoint@@@Z		; CWnd::OnRButtonDown
; Function compile flags: /Odt
_TEXT	SEGMENT
_this$ = -4						; size = 4
_nFlags$ = 8						; size = 4
_point$ = 12						; size = 8
?OnRButtonDown@CSubSkinButton@@IAEXIVCPoint@@@Z PROC NEAR ; CSubSkinButton::OnRButtonDown
; _this$ = ecx

; 290  :  {

  01130	55		 push	 ebp
  01131	8b ec		 mov	 ebp, esp
  01133	51		 push	 ecx
  01134	89 4d fc	 mov	 DWORD PTR _this$[ebp], ecx

; 291  : 	CSkinButton::OnRButtonDown(nFlags, point);

  01137	8b 45 10	 mov	 eax, DWORD PTR _point$[ebp+4]
  0113a	50		 push	 eax
  0113b	8b 4d 0c	 mov	 ecx, DWORD PTR _point$[ebp]
  0113e	51		 push	 ecx
  0113f	8b 55 08	 mov	 edx, DWORD PTR _nFlags$[ebp]
  01142	52		 push	 edx
  01143	8b 4d fc	 mov	 ecx, DWORD PTR _this$[ebp]
  01146	e8 00 00 00 00	 call	 ?OnRButtonDown@CWnd@@IAEXIVCPoint@@@Z ; CWnd::OnRButtonDown

; 292  :  }

  0114b	8b e5		 mov	 esp, ebp
  0114d	5d		 pop	 ebp
  0114e	c2 0c 00	 ret	 12			; 0000000cH
?OnRButtonDown@CSubSkinButton@@IAEXIVCPoint@@@Z ENDP	; CSubSkinButton::OnRButtonDown
_TEXT	ENDS
PUBLIC	??0CPoint@@QAE@J@Z				; CPoint::CPoint
; Function compile flags: /Odt
_TEXT	SEGMENT
_this$ = -8						; size = 4
?OnApplySkin@CSubSkinButton@@IAEXXZ PROC NEAR		; CSubSkinButton::OnApplySkin
; _this$ = ecx

; 295  :  {

  01160	55		 push	 ebp
  01161	8b ec		 mov	 ebp, esp
  01163	83 ec 08	 sub	 esp, 8
  01166	89 4d f8	 mov	 DWORD PTR _this$[ebp], ecx

; 296  : 	 CSkinButton::OnLButtonDown(0, 0);

  01169	83 ec 08	 sub	 esp, 8
  0116c	8b cc		 mov	 ecx, esp
  0116e	6a 00		 push	 0
  01170	e8 00 00 00 00	 call	 ??0CPoint@@QAE@J@Z	; CPoint::CPoint
  01175	6a 00		 push	 0
  01177	8b 4d f8	 mov	 ecx, DWORD PTR _this$[ebp]
  0117a	e8 00 00 00 00	 call	 ?OnLButtonDown@CSkinButton@@QAEXIVCPoint@@@Z ; CSkinButton::OnLButtonDown

; 297  :  }

  0117f	8b e5		 mov	 esp, ebp
  01181	5d		 pop	 ebp
  01182	c3		 ret	 0
?OnApplySkin@CSubSkinButton@@IAEXXZ ENDP		; CSubSkinButton::OnApplySkin
_TEXT	ENDS
xdata$x	SEGMENT
$T200143 DD	0ffffffffH
	DD	FLAT:$L200137
	DD	00H
	DD	FLAT:$L200138
	DD	01H
	DD	FLAT:$L200139
$T200141 DD	019930520H
	DD	03H
	DD	FLAT:$T200143
	DD	2 DUP(00H)
	DD	2 DUP(00H)
; Function compile flags: /Odt
xdata$x	ENDS
_TEXT	SEGMENT
tv134 = -96						; size = 4
tv135 = -92						; size = 4
tv132 = -88						; size = 4
tv80 = -84						; size = 4
_this$ = -80						; size = 4
$T200136 = -76						; size = 4
$T200135 = -72						; size = 28
$T200134 = -44						; size = 4
$T200133 = -40						; size = 28
__$EHRec$ = -12						; size = 12
?OnDeleteSkin@CSubSkinButton@@IAEXXZ PROC NEAR		; CSubSkinButton::OnDeleteSkin
; _this$ = ecx

; 300  :  {

  01190	55		 push	 ebp
  01191	8b ec		 mov	 ebp, esp
  01193	6a ff		 push	 -1
  01195	68 00 00 00 00	 push	 __ehhandler$?OnDeleteSkin@CSubSkinButton@@IAEXXZ
  0119a	64 a1 00 00 00
	00		 mov	 eax, DWORD PTR fs:__except_list
  011a0	50		 push	 eax
  011a1	64 89 25 00 00
	00 00		 mov	 DWORD PTR fs:__except_list, esp
  011a8	83 ec 54	 sub	 esp, 84			; 00000054H
  011ab	89 4d b0	 mov	 DWORD PTR _this$[ebp], ecx

; 301  : 	 LogUserActMsg(STR_USER_CLICK, string("BTN:DELETE_MENU_"+m_string));

  011ae	68 00 00 00 00	 push	 OFFSET FLAT:$SG199026
  011b3	8d 4d b8	 lea	 ecx, DWORD PTR $T200135[ebp]
  011b6	ff 15 00 00 00
	00		 call	 DWORD PTR __imp_??0?$basic_string@DU?$char_traits@D@std@@V?$allocator@D@2@@std@@QAE@PBD@Z
  011bc	c7 45 fc 00 00
	00 00		 mov	 DWORD PTR __$EHRec$[ebp+8], 0
  011c3	8b 45 b0	 mov	 eax, DWORD PTR _this$[ebp]
  011c6	05 18 01 00 00	 add	 eax, 280		; 00000118H
  011cb	50		 push	 eax
  011cc	68 00 00 00 00	 push	 OFFSET FLAT:$SG199025
  011d1	8d 4d d4	 lea	 ecx, DWORD PTR $T200134[ebp]
  011d4	51		 push	 ecx
  011d5	e8 00 00 00 00	 call	 ??HATL@@YA?AV?$CStringT@DV?$StrTraitMFC_DLL@DV?$ChTraitsCRT@D@ATL@@@@@0@PBDABV10@@Z ; ATL::operator+
  011da	83 c4 0c	 add	 esp, 12			; 0000000cH
  011dd	89 45 ac	 mov	 DWORD PTR tv80[ebp], eax
  011e0	8b 55 ac	 mov	 edx, DWORD PTR tv80[ebp]
  011e3	89 55 a8	 mov	 DWORD PTR tv132[ebp], edx
  011e6	c6 45 fc 01	 mov	 BYTE PTR __$EHRec$[ebp+8], 1
  011ea	8b 4d a8	 mov	 ecx, DWORD PTR tv132[ebp]
  011ed	ff 15 00 00 00
	00		 call	 DWORD PTR __imp_??B?$CSimpleStringT@D$00@ATL@@QBEPBDXZ
  011f3	50		 push	 eax
  011f4	8d 4d d8	 lea	 ecx, DWORD PTR $T200133[ebp]
  011f7	ff 15 00 00 00
	00		 call	 DWORD PTR __imp_??0?$basic_string@DU?$char_traits@D@std@@V?$allocator@D@2@@std@@QAE@PBD@Z
  011fd	89 45 a4	 mov	 DWORD PTR tv135[ebp], eax
  01200	8b 45 a4	 mov	 eax, DWORD PTR tv135[ebp]
  01203	89 45 a0	 mov	 DWORD PTR tv134[ebp], eax
  01206	c6 45 fc 02	 mov	 BYTE PTR __$EHRec$[ebp+8], 2
  0120a	8b 4d a0	 mov	 ecx, DWORD PTR tv134[ebp]
  0120d	51		 push	 ecx
  0120e	8d 55 b8	 lea	 edx, DWORD PTR $T200135[ebp]
  01211	52		 push	 edx
  01212	ff 15 00 00 00
	00		 call	 DWORD PTR __imp_?LogUserActMsg@@YAXABV?$basic_string@DU?$char_traits@D@std@@V?$allocator@D@2@@std@@0@Z
  01218	83 c4 08	 add	 esp, 8
  0121b	c6 45 fc 01	 mov	 BYTE PTR __$EHRec$[ebp+8], 1
  0121f	8d 4d d8	 lea	 ecx, DWORD PTR $T200133[ebp]
  01222	ff 15 00 00 00
	00		 call	 DWORD PTR __imp_??1?$basic_string@DU?$char_traits@D@std@@V?$allocator@D@2@@std@@QAE@XZ
  01228	c6 45 fc 00	 mov	 BYTE PTR __$EHRec$[ebp+8], 0
  0122c	8d 4d d4	 lea	 ecx, DWORD PTR $T200134[ebp]
  0122f	ff 15 00 00 00
	00		 call	 DWORD PTR __imp_??1?$CStringT@DV?$StrTraitMFC_DLL@DV?$ChTraitsCRT@D@ATL@@@@@ATL@@QAE@XZ
  01235	c7 45 fc ff ff
	ff ff		 mov	 DWORD PTR __$EHRec$[ebp+8], -1
  0123c	8d 4d b8	 lea	 ecx, DWORD PTR $T200135[ebp]
  0123f	ff 15 00 00 00
	00		 call	 DWORD PTR __imp_??1?$basic_string@DU?$char_traits@D@std@@V?$allocator@D@2@@std@@QAE@XZ

; 302  : 	 m_bClickPng = 1;

  01245	8b 45 b0	 mov	 eax, DWORD PTR _this$[ebp]
  01248	c7 80 44 01 00
	00 01 00 00 00	 mov	 DWORD PTR [eax+324], 1

; 303  : 	 CSkinButton::OnLButtonDown(0, 0);

  01252	83 ec 08	 sub	 esp, 8
  01255	8b cc		 mov	 ecx, esp
  01257	89 65 b4	 mov	 DWORD PTR $T200136[ebp], esp
  0125a	6a 00		 push	 0
  0125c	e8 00 00 00 00	 call	 ??0CPoint@@QAE@J@Z	; CPoint::CPoint
  01261	6a 00		 push	 0
  01263	8b 4d b0	 mov	 ecx, DWORD PTR _this$[ebp]
  01266	e8 00 00 00 00	 call	 ?OnLButtonDown@CSkinButton@@QAEXIVCPoint@@@Z ; CSkinButton::OnLButtonDown

; 304  :  }

  0126b	8b 4d f4	 mov	 ecx, DWORD PTR __$EHRec$[ebp]
  0126e	64 89 0d 00 00
	00 00		 mov	 DWORD PTR fs:__except_list, ecx
  01275	8b e5		 mov	 esp, ebp
  01277	5d		 pop	 ebp
  01278	c3		 ret	 0
_TEXT	ENDS
text$x	SEGMENT
$L200137:
  000ec	8d 4d b8	 lea	 ecx, DWORD PTR $T200135[ebp]
  000ef	ff 25 00 00 00
	00		 jmp	 DWORD PTR __imp_??1?$basic_string@DU?$char_traits@D@std@@V?$allocator@D@2@@std@@QAE@XZ
$L200138:
  000f5	8d 4d d4	 lea	 ecx, DWORD PTR $T200134[ebp]
  000f8	ff 25 00 00 00
	00		 jmp	 DWORD PTR __imp_??1?$CStringT@DV?$StrTraitMFC_DLL@DV?$ChTraitsCRT@D@ATL@@@@@ATL@@QAE@XZ
$L200139:
  000fe	8d 4d d8	 lea	 ecx, DWORD PTR $T200133[ebp]
  00101	ff 25 00 00 00
	00		 jmp	 DWORD PTR __imp_??1?$basic_string@DU?$char_traits@D@std@@V?$allocator@D@2@@std@@QAE@XZ
__ehhandler$?OnDeleteSkin@CSubSkinButton@@IAEXXZ:
  00107	b8 00 00 00 00	 mov	 eax, OFFSET FLAT:$T200141
  0010c	e9 00 00 00 00	 jmp	 ___CxxFrameHandler
text$x	ENDS
?OnDeleteSkin@CSubSkinButton@@IAEXXZ ENDP		; CSubSkinButton::OnDeleteSkin
EXTRN	__imp__ShellExecuteA@24:NEAR
xdata$x	SEGMENT
$T200152 DD	0ffffffffH
	DD	FLAT:$L200147
	DD	00H
	DD	FLAT:$L200148
$T200150 DD	019930520H
	DD	02H
	DD	FLAT:$T200152
	DD	2 DUP(00H)
	DD	2 DUP(00H)
; Function compile flags: /Odt
xdata$x	ENDS
_TEXT	SEGMENT
_this$ = -72						; size = 4
$T200146 = -68						; size = 28
$T200145 = -40						; size = 28
__$EHRec$ = -12						; size = 12
?OnMoreSkin@CSubSkinButton@@IAEXXZ PROC NEAR		; CSubSkinButton::OnMoreSkin
; _this$ = ecx

; 307  :  {

  01280	55		 push	 ebp
  01281	8b ec		 mov	 ebp, esp
  01283	6a ff		 push	 -1
  01285	68 00 00 00 00	 push	 __ehhandler$?OnMoreSkin@CSubSkinButton@@IAEXXZ
  0128a	64 a1 00 00 00
	00		 mov	 eax, DWORD PTR fs:__except_list
  01290	50		 push	 eax
  01291	64 89 25 00 00
	00 00		 mov	 DWORD PTR fs:__except_list, esp
  01298	83 ec 3c	 sub	 esp, 60			; 0000003cH
  0129b	89 4d b8	 mov	 DWORD PTR _this$[ebp], ecx

; 308  : 	 LogUserActMsg(STR_USER_CLICK, "BTN:DOWN_MORE_MENU");

  0129e	68 00 00 00 00	 push	 OFFSET FLAT:$SG199033
  012a3	8d 4d d8	 lea	 ecx, DWORD PTR $T200145[ebp]
  012a6	ff 15 00 00 00
	00		 call	 DWORD PTR __imp_??0?$basic_string@DU?$char_traits@D@std@@V?$allocator@D@2@@std@@QAE@PBD@Z
  012ac	c7 45 fc 00 00
	00 00		 mov	 DWORD PTR __$EHRec$[ebp+8], 0
  012b3	68 00 00 00 00	 push	 OFFSET FLAT:$SG199034
  012b8	8d 4d bc	 lea	 ecx, DWORD PTR $T200146[ebp]
  012bb	ff 15 00 00 00
	00		 call	 DWORD PTR __imp_??0?$basic_string@DU?$char_traits@D@std@@V?$allocator@D@2@@std@@QAE@PBD@Z
  012c1	c6 45 fc 01	 mov	 BYTE PTR __$EHRec$[ebp+8], 1
  012c5	8d 45 d8	 lea	 eax, DWORD PTR $T200145[ebp]
  012c8	50		 push	 eax
  012c9	8d 4d bc	 lea	 ecx, DWORD PTR $T200146[ebp]
  012cc	51		 push	 ecx
  012cd	ff 15 00 00 00
	00		 call	 DWORD PTR __imp_?LogUserActMsg@@YAXABV?$basic_string@DU?$char_traits@D@std@@V?$allocator@D@2@@std@@0@Z
  012d3	83 c4 08	 add	 esp, 8
  012d6	c6 45 fc 00	 mov	 BYTE PTR __$EHRec$[ebp+8], 0
  012da	8d 4d bc	 lea	 ecx, DWORD PTR $T200146[ebp]
  012dd	ff 15 00 00 00
	00		 call	 DWORD PTR __imp_??1?$basic_string@DU?$char_traits@D@std@@V?$allocator@D@2@@std@@QAE@XZ
  012e3	c7 45 fc ff ff
	ff ff		 mov	 DWORD PTR __$EHRec$[ebp+8], -1
  012ea	8d 4d d8	 lea	 ecx, DWORD PTR $T200145[ebp]
  012ed	ff 15 00 00 00
	00		 call	 DWORD PTR __imp_??1?$basic_string@DU?$char_traits@D@std@@V?$allocator@D@2@@std@@QAE@XZ

; 309  : 	 ShellExecute(NULL, "open", _T("iexplore"), "http://www.kuwo.cn/skin/", NULL, SW_SHOWNORMAL);

  012f3	6a 01		 push	 1
  012f5	6a 00		 push	 0
  012f7	68 00 00 00 00	 push	 OFFSET FLAT:$SG199035
  012fc	68 00 00 00 00	 push	 OFFSET FLAT:$SG199036
  01301	68 00 00 00 00	 push	 OFFSET FLAT:$SG199037
  01306	6a 00		 push	 0
  01308	ff 15 00 00 00
	00		 call	 DWORD PTR __imp__ShellExecuteA@24

; 310  :  }

  0130e	8b 4d f4	 mov	 ecx, DWORD PTR __$EHRec$[ebp]
  01311	64 89 0d 00 00
	00 00		 mov	 DWORD PTR fs:__except_list, ecx
  01318	8b e5		 mov	 esp, ebp
  0131a	5d		 pop	 ebp
  0131b	c3		 ret	 0
_TEXT	ENDS
text$x	SEGMENT
$L200147:
  00111	8d 4d d8	 lea	 ecx, DWORD PTR $T200145[ebp]
  00114	ff 25 00 00 00
	00		 jmp	 DWORD PTR __imp_??1?$basic_string@DU?$char_traits@D@std@@V?$allocator@D@2@@std@@QAE@XZ
$L200148:
  0011a	8d 4d bc	 lea	 ecx, DWORD PTR $T200146[ebp]
  0011d	ff 25 00 00 00
	00		 jmp	 DWORD PTR __imp_??1?$basic_string@DU?$char_traits@D@std@@V?$allocator@D@2@@std@@QAE@XZ
__ehhandler$?OnMoreSkin@CSubSkinButton@@IAEXXZ:
  00123	b8 00 00 00 00	 mov	 eax, OFFSET FLAT:$T200150
  00128	e9 00 00 00 00	 jmp	 ___CxxFrameHandler
text$x	ENDS
?OnMoreSkin@CSubSkinButton@@IAEXXZ ENDP			; CSubSkinButton::OnMoreSkin
EXTRN	__imp_?GetManager@?$CSimpleStringT@D$00@ATL@@QBEPAUIAtlStringMgr@2@XZ:NEAR
EXTRN	__imp_?StringLength@?$CSimpleStringT@D$00@ATL@@SAHPBD@Z:NEAR
EXTRN	__imp_?Concatenate@?$CSimpleStringT@D$00@ATL@@KAXAAV12@PBDH1H@Z:NEAR
EXTRN	__imp_??0?$CStringT@DV?$StrTraitMFC_DLL@DV?$ChTraitsCRT@D@ATL@@@@@ATL@@QAE@PAUIAtlStringMgr@1@@Z:NEAR
;	COMDAT xdata$x
; File d:\program files (x86)\microsoft visual studio .net 2003\vc7\atlmfc\include\cstringt.h
xdata$x	SEGMENT
$T200161 DD	0ffffffffH
	DD	FLAT:$L200154
$T200159 DD	019930520H
	DD	01H
	DD	FLAT:$T200161
	DD	2 DUP(00H)
	DD	2 DUP(00H)
; Function compile flags: /Odt
xdata$x	ENDS
;	COMDAT ??HATL@@YA?AV?$CStringT@DV?$StrTraitMFC_DLL@DV?$ChTraitsCRT@D@ATL@@@@@0@ABV10@PBD@Z
_TEXT	SEGMENT
$T200156 = -20						; size = 4
_strResult$ = -16					; size = 4
__$EHRec$ = -12						; size = 12
___$ReturnUdt$ = 8					; size = 4
_str1$ = 12						; size = 4
_psz2$ = 16						; size = 4
??HATL@@YA?AV?$CStringT@DV?$StrTraitMFC_DLL@DV?$ChTraitsCRT@D@ATL@@@@@0@ABV10@PBD@Z PROC NEAR ; ATL::operator+, COMDAT

; 2023 : 	{

  00000	55		 push	 ebp
  00001	8b ec		 mov	 ebp, esp
  00003	6a ff		 push	 -1
  00005	68 00 00 00 00	 push	 __ehhandler$??HATL@@YA?AV?$CStringT@DV?$StrTraitMFC_DLL@DV?$ChTraitsCRT@D@ATL@@@@@0@ABV10@PBD@Z
  0000a	64 a1 00 00 00
	00		 mov	 eax, DWORD PTR fs:__except_list
  00010	50		 push	 eax
  00011	64 89 25 00 00
	00 00		 mov	 DWORD PTR fs:__except_list, esp
  00018	83 ec 08	 sub	 esp, 8
  0001b	c7 45 ec 00 00
	00 00		 mov	 DWORD PTR $T200156[ebp], 0

; 2024 : 		CStringT strResult( str1.GetManager() );

  00022	8b 4d 0c	 mov	 ecx, DWORD PTR _str1$[ebp]
  00025	ff 15 00 00 00
	00		 call	 DWORD PTR __imp_?GetManager@?$CSimpleStringT@D$00@ATL@@QBEPAUIAtlStringMgr@2@XZ
  0002b	50		 push	 eax
  0002c	8d 4d f0	 lea	 ecx, DWORD PTR _strResult$[ebp]
  0002f	ff 15 00 00 00
	00		 call	 DWORD PTR __imp_??0?$CStringT@DV?$StrTraitMFC_DLL@DV?$ChTraitsCRT@D@ATL@@@@@ATL@@QAE@PAUIAtlStringMgr@1@@Z
  00035	c7 45 fc 00 00
	00 00		 mov	 DWORD PTR __$EHRec$[ebp+8], 0

; 2025 : 
; 2026 : 		Concatenate( strResult, str1, str1.GetLength(), psz2, StringLength( psz2 ) );

  0003c	8b 45 10	 mov	 eax, DWORD PTR _psz2$[ebp]
  0003f	50		 push	 eax
  00040	ff 15 00 00 00
	00		 call	 DWORD PTR __imp_?StringLength@?$CSimpleStringT@D$00@ATL@@SAHPBD@Z
  00046	83 c4 04	 add	 esp, 4
  00049	50		 push	 eax
  0004a	8b 4d 10	 mov	 ecx, DWORD PTR _psz2$[ebp]
  0004d	51		 push	 ecx
  0004e	8b 4d 0c	 mov	 ecx, DWORD PTR _str1$[ebp]
  00051	ff 15 00 00 00
	00		 call	 DWORD PTR __imp_?GetLength@?$CSimpleStringT@D$00@ATL@@QBEHXZ
  00057	50		 push	 eax
  00058	8b 4d 0c	 mov	 ecx, DWORD PTR _str1$[ebp]
  0005b	ff 15 00 00 00
	00		 call	 DWORD PTR __imp_??B?$CSimpleStringT@D$00@ATL@@QBEPBDXZ
  00061	50		 push	 eax
  00062	8d 55 f0	 lea	 edx, DWORD PTR _strResult$[ebp]
  00065	52		 push	 edx
  00066	ff 15 00 00 00
	00		 call	 DWORD PTR __imp_?Concatenate@?$CSimpleStringT@D$00@ATL@@KAXAAV12@PBDH1H@Z
  0006c	83 c4 14	 add	 esp, 20			; 00000014H

; 2027 : 
; 2028 : 		return( strResult );

  0006f	8d 45 f0	 lea	 eax, DWORD PTR _strResult$[ebp]
  00072	50		 push	 eax
  00073	8b 4d 08	 mov	 ecx, DWORD PTR ___$ReturnUdt$[ebp]
  00076	ff 15 00 00 00
	00		 call	 DWORD PTR __imp_??0?$CStringT@DV?$StrTraitMFC_DLL@DV?$ChTraitsCRT@D@ATL@@@@@ATL@@QAE@ABV01@@Z
  0007c	8b 4d ec	 mov	 ecx, DWORD PTR $T200156[ebp]
  0007f	83 c9 01	 or	 ecx, 1
  00082	89 4d ec	 mov	 DWORD PTR $T200156[ebp], ecx
  00085	c7 45 fc ff ff
	ff ff		 mov	 DWORD PTR __$EHRec$[ebp+8], -1
  0008c	8d 4d f0	 lea	 ecx, DWORD PTR _strResult$[ebp]
  0008f	ff 15 00 00 00
	00		 call	 DWORD PTR __imp_??1?$CStringT@DV?$StrTraitMFC_DLL@DV?$ChTraitsCRT@D@ATL@@@@@ATL@@QAE@XZ
  00095	8b 45 08	 mov	 eax, DWORD PTR ___$ReturnUdt$[ebp]

; 2029 : 	}

  00098	8b 4d f4	 mov	 ecx, DWORD PTR __$EHRec$[ebp]
  0009b	64 89 0d 00 00
	00 00		 mov	 DWORD PTR fs:__except_list, ecx
  000a2	8b e5		 mov	 esp, ebp
  000a4	5d		 pop	 ebp
  000a5	c3		 ret	 0
_TEXT	ENDS
;	COMDAT text$x
text$x	SEGMENT
$L200154:
  00000	8d 4d f0	 lea	 ecx, DWORD PTR _strResult$[ebp]
  00003	ff 25 00 00 00
	00		 jmp	 DWORD PTR __imp_??1?$CStringT@DV?$StrTraitMFC_DLL@DV?$ChTraitsCRT@D@ATL@@@@@ATL@@QAE@XZ
__ehhandler$??HATL@@YA?AV?$CStringT@DV?$StrTraitMFC_DLL@DV?$ChTraitsCRT@D@ATL@@@@@0@ABV10@PBD@Z:
  00009	b8 00 00 00 00	 mov	 eax, OFFSET FLAT:$T200159
  0000e	e9 00 00 00 00	 jmp	 ___CxxFrameHandler
text$x	ENDS
??HATL@@YA?AV?$CStringT@DV?$StrTraitMFC_DLL@DV?$ChTraitsCRT@D@ATL@@@@@0@ABV10@PBD@Z ENDP ; ATL::operator+
;	COMDAT xdata$x
xdata$x	SEGMENT
$T200173 DD	0ffffffffH
	DD	FLAT:$L200166
$T200171 DD	019930520H
	DD	01H
	DD	FLAT:$T200173
	DD	2 DUP(00H)
	DD	2 DUP(00H)
; Function compile flags: /Odt
xdata$x	ENDS
;	COMDAT ??HATL@@YA?AV?$CStringT@DV?$StrTraitMFC_DLL@DV?$ChTraitsCRT@D@ATL@@@@@0@PBDABV10@@Z
_TEXT	SEGMENT
$T200168 = -20						; size = 4
_strResult$ = -16					; size = 4
__$EHRec$ = -12						; size = 12
___$ReturnUdt$ = 8					; size = 4
_psz1$ = 12						; size = 4
_str2$ = 16						; size = 4
??HATL@@YA?AV?$CStringT@DV?$StrTraitMFC_DLL@DV?$ChTraitsCRT@D@ATL@@@@@0@PBDABV10@@Z PROC NEAR ; ATL::operator+, COMDAT

; 2032 : 	{

  00000	55		 push	 ebp
  00001	8b ec		 mov	 ebp, esp
  00003	6a ff		 push	 -1
  00005	68 00 00 00 00	 push	 __ehhandler$??HATL@@YA?AV?$CStringT@DV?$StrTraitMFC_DLL@DV?$ChTraitsCRT@D@ATL@@@@@0@PBDABV10@@Z
  0000a	64 a1 00 00 00
	00		 mov	 eax, DWORD PTR fs:__except_list
  00010	50		 push	 eax
  00011	64 89 25 00 00
	00 00		 mov	 DWORD PTR fs:__except_list, esp
  00018	83 ec 08	 sub	 esp, 8
  0001b	c7 45 ec 00 00
	00 00		 mov	 DWORD PTR $T200168[ebp], 0

; 2033 : 		CStringT strResult( str2.GetManager() );

  00022	8b 4d 10	 mov	 ecx, DWORD PTR _str2$[ebp]
  00025	ff 15 00 00 00
	00		 call	 DWORD PTR __imp_?GetManager@?$CSimpleStringT@D$00@ATL@@QBEPAUIAtlStringMgr@2@XZ
  0002b	50		 push	 eax
  0002c	8d 4d f0	 lea	 ecx, DWORD PTR _strResult$[ebp]
  0002f	ff 15 00 00 00
	00		 call	 DWORD PTR __imp_??0?$CStringT@DV?$StrTraitMFC_DLL@DV?$ChTraitsCRT@D@ATL@@@@@ATL@@QAE@PAUIAtlStringMgr@1@@Z
  00035	c7 45 fc 00 00
	00 00		 mov	 DWORD PTR __$EHRec$[ebp+8], 0

; 2034 : 
; 2035 : 		Concatenate( strResult, psz1, StringLength( psz1 ), str2, str2.GetLength() );

  0003c	8b 4d 10	 mov	 ecx, DWORD PTR _str2$[ebp]
  0003f	ff 15 00 00 00
	00		 call	 DWORD PTR __imp_?GetLength@?$CSimpleStringT@D$00@ATL@@QBEHXZ
  00045	50		 push	 eax
  00046	8b 4d 10	 mov	 ecx, DWORD PTR _str2$[ebp]
  00049	ff 15 00 00 00
	00		 call	 DWORD PTR __imp_??B?$CSimpleStringT@D$00@ATL@@QBEPBDXZ
  0004f	50		 push	 eax
  00050	8b 45 0c	 mov	 eax, DWORD PTR _psz1$[ebp]
  00053	50		 push	 eax
  00054	ff 15 00 00 00
	00		 call	 DWORD PTR __imp_?StringLength@?$CSimpleStringT@D$00@ATL@@SAHPBD@Z
  0005a	83 c4 04	 add	 esp, 4
  0005d	50		 push	 eax
  0005e	8b 4d 0c	 mov	 ecx, DWORD PTR _psz1$[ebp]
  00061	51		 push	 ecx
  00062	8d 55 f0	 lea	 edx, DWORD PTR _strResult$[ebp]
  00065	52		 push	 edx
  00066	ff 15 00 00 00
	00		 call	 DWORD PTR __imp_?Concatenate@?$CSimpleStringT@D$00@ATL@@KAXAAV12@PBDH1H@Z
  0006c	83 c4 14	 add	 esp, 20			; 00000014H

; 2036 : 
; 2037 : 		return( strResult );

  0006f	8d 45 f0	 lea	 eax, DWORD PTR _strResult$[ebp]
  00072	50		 push	 eax
  00073	8b 4d 08	 mov	 ecx, DWORD PTR ___$ReturnUdt$[ebp]
  00076	ff 15 00 00 00
	00		 call	 DWORD PTR __imp_??0?$CStringT@DV?$StrTraitMFC_DLL@DV?$ChTraitsCRT@D@ATL@@@@@ATL@@QAE@ABV01@@Z
  0007c	8b 4d ec	 mov	 ecx, DWORD PTR $T200168[ebp]
  0007f	83 c9 01	 or	 ecx, 1
  00082	89 4d ec	 mov	 DWORD PTR $T200168[ebp], ecx
  00085	c7 45 fc ff ff
	ff ff		 mov	 DWORD PTR __$EHRec$[ebp+8], -1
  0008c	8d 4d f0	 lea	 ecx, DWORD PTR _strResult$[ebp]
  0008f	ff 15 00 00 00
	00		 call	 DWORD PTR __imp_??1?$CStringT@DV?$StrTraitMFC_DLL@DV?$ChTraitsCRT@D@ATL@@@@@ATL@@QAE@XZ
  00095	8b 45 08	 mov	 eax, DWORD PTR ___$ReturnUdt$[ebp]

; 2038 : 	}

  00098	8b 4d f4	 mov	 ecx, DWORD PTR __$EHRec$[ebp]
  0009b	64 89 0d 00 00
	00 00		 mov	 DWORD PTR fs:__except_list, ecx
  000a2	8b e5		 mov	 esp, ebp
  000a4	5d		 pop	 ebp
  000a5	c3		 ret	 0
_TEXT	ENDS
;	COMDAT text$x
text$x	SEGMENT
$L200166:
  00000	8d 4d f0	 lea	 ecx, DWORD PTR _strResult$[ebp]
  00003	ff 25 00 00 00
	00		 jmp	 DWORD PTR __imp_??1?$CStringT@DV?$StrTraitMFC_DLL@DV?$ChTraitsCRT@D@ATL@@@@@ATL@@QAE@XZ
__ehhandler$??HATL@@YA?AV?$CStringT@DV?$StrTraitMFC_DLL@DV?$ChTraitsCRT@D@ATL@@@@@0@PBDABV10@@Z:
  00009	b8 00 00 00 00	 mov	 eax, OFFSET FLAT:$T200171
  0000e	e9 00 00 00 00	 jmp	 ___CxxFrameHandler
text$x	ENDS
??HATL@@YA?AV?$CStringT@DV?$StrTraitMFC_DLL@DV?$ChTraitsCRT@D@ATL@@@@@0@PBDABV10@@Z ENDP ; ATL::operator+
EXTRN	__imp_?Compare@?$CStringT@DV?$StrTraitMFC_DLL@DV?$ChTraitsCRT@D@ATL@@@@@ATL@@QBEHPBD@Z:NEAR
; Function compile flags: /Odt
;	COMDAT ??8ATL@@YA_NABV?$CStringT@DV?$StrTraitMFC_DLL@DV?$ChTraitsCRT@D@ATL@@@@@0@PBD@Z
_TEXT	SEGMENT
_str1$ = 8						; size = 4
_psz2$ = 12						; size = 4
??8ATL@@YA_NABV?$CStringT@DV?$StrTraitMFC_DLL@DV?$ChTraitsCRT@D@ATL@@@@@0@PBD@Z PROC NEAR ; ATL::operator==, COMDAT

; 2087 : 	{

  00000	55		 push	 ebp
  00001	8b ec		 mov	 ebp, esp

; 2088 : 		return( str1.Compare( psz2 ) == 0 );

  00003	8b 45 0c	 mov	 eax, DWORD PTR _psz2$[ebp]
  00006	50		 push	 eax
  00007	8b 4d 08	 mov	 ecx, DWORD PTR _str1$[ebp]
  0000a	ff 15 00 00 00
	00		 call	 DWORD PTR __imp_?Compare@?$CStringT@DV?$StrTraitMFC_DLL@DV?$ChTraitsCRT@D@ATL@@@@@ATL@@QBEHPBD@Z
  00010	f7 d8		 neg	 eax
  00012	1b c0		 sbb	 eax, eax
  00014	40		 inc	 eax

; 2089 : 	}

  00015	5d		 pop	 ebp
  00016	c3		 ret	 0
??8ATL@@YA_NABV?$CStringT@DV?$StrTraitMFC_DLL@DV?$ChTraitsCRT@D@ATL@@@@@0@PBD@Z ENDP ; ATL::operator==
; Function compile flags: /Odt
_TEXT	ENDS
;	COMDAT ??9ATL@@YA_NABV?$CStringT@DV?$StrTraitMFC_DLL@DV?$ChTraitsCRT@D@ATL@@@@@0@PBD@Z
_TEXT	SEGMENT
_str1$ = 8						; size = 4
_psz2$ = 12						; size = 4
??9ATL@@YA_NABV?$CStringT@DV?$StrTraitMFC_DLL@DV?$ChTraitsCRT@D@ATL@@@@@0@PBD@Z PROC NEAR ; ATL::operator!=, COMDAT

; 2121 : 	{

  00000	55		 push	 ebp
  00001	8b ec		 mov	 ebp, esp

; 2122 : 		return( str1.Compare( psz2 ) != 0 );

  00003	8b 45 0c	 mov	 eax, DWORD PTR _psz2$[ebp]
  00006	50		 push	 eax
  00007	8b 4d 08	 mov	 ecx, DWORD PTR _str1$[ebp]
  0000a	ff 15 00 00 00
	00		 call	 DWORD PTR __imp_?Compare@?$CStringT@DV?$StrTraitMFC_DLL@DV?$ChTraitsCRT@D@ATL@@@@@ATL@@QBEHPBD@Z
  00010	f7 d8		 neg	 eax
  00012	1b c0		 sbb	 eax, eax
  00014	f7 d8		 neg	 eax

; 2123 : 	}

  00016	5d		 pop	 ebp
  00017	c3		 ret	 0
??9ATL@@YA_NABV?$CStringT@DV?$StrTraitMFC_DLL@DV?$ChTraitsCRT@D@ATL@@@@@0@PBD@Z ENDP ; ATL::operator!=
; Function compile flags: /Odt
; File d:\program files (x86)\microsoft visual studio .net 2003\vc7\atlmfc\include\atltypes.inl
_TEXT	ENDS
;	COMDAT ??0CPoint@@QAE@XZ
_TEXT	SEGMENT
_this$ = -4						; size = 4
??0CPoint@@QAE@XZ PROC NEAR				; CPoint::CPoint, COMDAT
; _this$ = ecx

; 61   : 	{ /* random filled */ }

  00000	55		 push	 ebp
  00001	8b ec		 mov	 ebp, esp
  00003	51		 push	 ecx
  00004	89 4d fc	 mov	 DWORD PTR _this$[ebp], ecx
  00007	8b 45 fc	 mov	 eax, DWORD PTR _this$[ebp]
  0000a	8b e5		 mov	 esp, ebp
  0000c	5d		 pop	 ebp
  0000d	c3		 ret	 0
??0CPoint@@QAE@XZ ENDP					; CPoint::CPoint
; Function compile flags: /Odt
_TEXT	ENDS
;	COMDAT ??0CPoint@@QAE@J@Z
_TEXT	SEGMENT
_this$ = -4						; size = 4
_dwPoint$ = 8						; size = 4
??0CPoint@@QAE@J@Z PROC NEAR				; CPoint::CPoint, COMDAT
; _this$ = ecx

; 69   : 	{

  00000	55		 push	 ebp
  00001	8b ec		 mov	 ebp, esp
  00003	51		 push	 ecx
  00004	89 4d fc	 mov	 DWORD PTR _this$[ebp], ecx

; 70   : 		x = (short)LOWORD(dwPoint);

  00007	8b 45 08	 mov	 eax, DWORD PTR _dwPoint$[ebp]
  0000a	25 ff ff 00 00	 and	 eax, 65535		; 0000ffffH
  0000f	0f bf c8	 movsx	 ecx, ax
  00012	8b 55 fc	 mov	 edx, DWORD PTR _this$[ebp]
  00015	89 0a		 mov	 DWORD PTR [edx], ecx

; 71   : 		y = (short)HIWORD(dwPoint);

  00017	8b 45 08	 mov	 eax, DWORD PTR _dwPoint$[ebp]
  0001a	c1 e8 10	 shr	 eax, 16			; 00000010H
  0001d	0f bf c8	 movsx	 ecx, ax
  00020	8b 55 fc	 mov	 edx, DWORD PTR _this$[ebp]
  00023	89 4a 04	 mov	 DWORD PTR [edx+4], ecx

; 72   : 	}

  00026	8b 45 fc	 mov	 eax, DWORD PTR _this$[ebp]
  00029	8b e5		 mov	 esp, ebp
  0002b	5d		 pop	 ebp
  0002c	c2 04 00	 ret	 4
??0CPoint@@QAE@J@Z ENDP					; CPoint::CPoint
; Function compile flags: /Odt
_TEXT	ENDS
;	COMDAT ??0CRect@@QAE@XZ
_TEXT	SEGMENT
_this$ = -4						; size = 4
??0CRect@@QAE@XZ PROC NEAR				; CRect::CRect, COMDAT
; _this$ = ecx

; 110  : 	{ /* random filled */ }

  00000	55		 push	 ebp
  00001	8b ec		 mov	 ebp, esp
  00003	51		 push	 ecx
  00004	89 4d fc	 mov	 DWORD PTR _this$[ebp], ecx
  00007	8b 45 fc	 mov	 eax, DWORD PTR _this$[ebp]
  0000a	8b e5		 mov	 esp, ebp
  0000c	5d		 pop	 ebp
  0000d	c3		 ret	 0
??0CRect@@QAE@XZ ENDP					; CRect::CRect
; Function compile flags: /Odt
_TEXT	ENDS
;	COMDAT ??0CRect@@QAE@HHHH@Z
_TEXT	SEGMENT
_this$ = -4						; size = 4
_l$ = 8							; size = 4
_t$ = 12						; size = 4
_r$ = 16						; size = 4
_b$ = 20						; size = 4
??0CRect@@QAE@HHHH@Z PROC NEAR				; CRect::CRect, COMDAT
; _this$ = ecx

; 112  : 	{ left = l; top = t; right = r; bottom = b; }

  00000	55		 push	 ebp
  00001	8b ec		 mov	 ebp, esp
  00003	51		 push	 ecx
  00004	89 4d fc	 mov	 DWORD PTR _this$[ebp], ecx
  00007	8b 45 fc	 mov	 eax, DWORD PTR _this$[ebp]
  0000a	8b 4d 08	 mov	 ecx, DWORD PTR _l$[ebp]
  0000d	89 08		 mov	 DWORD PTR [eax], ecx
  0000f	8b 55 fc	 mov	 edx, DWORD PTR _this$[ebp]
  00012	8b 45 0c	 mov	 eax, DWORD PTR _t$[ebp]
  00015	89 42 04	 mov	 DWORD PTR [edx+4], eax
  00018	8b 4d fc	 mov	 ecx, DWORD PTR _this$[ebp]
  0001b	8b 55 10	 mov	 edx, DWORD PTR _r$[ebp]
  0001e	89 51 08	 mov	 DWORD PTR [ecx+8], edx
  00021	8b 45 fc	 mov	 eax, DWORD PTR _this$[ebp]
  00024	8b 4d 14	 mov	 ecx, DWORD PTR _b$[ebp]
  00027	89 48 0c	 mov	 DWORD PTR [eax+12], ecx
  0002a	8b 45 fc	 mov	 eax, DWORD PTR _this$[ebp]
  0002d	8b e5		 mov	 esp, ebp
  0002f	5d		 pop	 ebp
  00030	c2 10 00	 ret	 16			; 00000010H
??0CRect@@QAE@HHHH@Z ENDP				; CRect::CRect
; Function compile flags: /Odt
_TEXT	ENDS
;	COMDAT ?Width@CRect@@QBEHXZ
_TEXT	SEGMENT
_this$ = -4						; size = 4
?Width@CRect@@QBEHXZ PROC NEAR				; CRect::Width, COMDAT
; _this$ = ecx

; 123  : 	{ return right - left; }

  00000	55		 push	 ebp
  00001	8b ec		 mov	 ebp, esp
  00003	51		 push	 ecx
  00004	89 4d fc	 mov	 DWORD PTR _this$[ebp], ecx
  00007	8b 45 fc	 mov	 eax, DWORD PTR _this$[ebp]
  0000a	8b 4d fc	 mov	 ecx, DWORD PTR _this$[ebp]
  0000d	8b 40 08	 mov	 eax, DWORD PTR [eax+8]
  00010	2b 01		 sub	 eax, DWORD PTR [ecx]
  00012	8b e5		 mov	 esp, ebp
  00014	5d		 pop	 ebp
  00015	c3		 ret	 0
?Width@CRect@@QBEHXZ ENDP				; CRect::Width
; Function compile flags: /Odt
_TEXT	ENDS
;	COMDAT ?PtInRect@CRect@@QBEHUtagPOINT@@@Z
_TEXT	SEGMENT
_this$ = -4						; size = 4
_point$ = 8						; size = 8
?PtInRect@CRect@@QBEHUtagPOINT@@@Z PROC NEAR		; CRect::PtInRect, COMDAT
; _this$ = ecx

; 151  : 	{ return ::PtInRect(this, point); }

  00000	55		 push	 ebp
  00001	8b ec		 mov	 ebp, esp
  00003	51		 push	 ecx
  00004	89 4d fc	 mov	 DWORD PTR _this$[ebp], ecx
  00007	8b 45 0c	 mov	 eax, DWORD PTR _point$[ebp+4]
  0000a	50		 push	 eax
  0000b	8b 4d 08	 mov	 ecx, DWORD PTR _point$[ebp]
  0000e	51		 push	 ecx
  0000f	8b 55 fc	 mov	 edx, DWORD PTR _this$[ebp]
  00012	52		 push	 edx
  00013	ff 15 00 00 00
	00		 call	 DWORD PTR __imp__PtInRect@12
  00019	8b e5		 mov	 esp, ebp
  0001b	5d		 pop	 ebp
  0001c	c2 08 00	 ret	 8
?PtInRect@CRect@@QBEHUtagPOINT@@@Z ENDP			; CRect::PtInRect
_TEXT	ENDS
EXTRN	__imp__SetRect@20:NEAR
; Function compile flags: /Odt
;	COMDAT ?SetRect@CRect@@QAEXHHHH@Z
_TEXT	SEGMENT
_this$ = -4						; size = 4
_x1$ = 8						; size = 4
_y1$ = 12						; size = 4
_x2$ = 16						; size = 4
_y2$ = 20						; size = 4
?SetRect@CRect@@QAEXHHHH@Z PROC NEAR			; CRect::SetRect, COMDAT
; _this$ = ecx

; 153  : 	{ ::SetRect(this, x1, y1, x2, y2); }

  00000	55		 push	 ebp
  00001	8b ec		 mov	 ebp, esp
  00003	51		 push	 ecx
  00004	89 4d fc	 mov	 DWORD PTR _this$[ebp], ecx
  00007	8b 45 14	 mov	 eax, DWORD PTR _y2$[ebp]
  0000a	50		 push	 eax
  0000b	8b 4d 10	 mov	 ecx, DWORD PTR _x2$[ebp]
  0000e	51		 push	 ecx
  0000f	8b 55 0c	 mov	 edx, DWORD PTR _y1$[ebp]
  00012	52		 push	 edx
  00013	8b 45 08	 mov	 eax, DWORD PTR _x1$[ebp]
  00016	50		 push	 eax
  00017	8b 4d fc	 mov	 ecx, DWORD PTR _this$[ebp]
  0001a	51		 push	 ecx
  0001b	ff 15 00 00 00
	00		 call	 DWORD PTR __imp__SetRect@20
  00021	8b e5		 mov	 esp, ebp
  00023	5d		 pop	 ebp
  00024	c2 10 00	 ret	 16			; 00000010H
?SetRect@CRect@@QAEXHHHH@Z ENDP				; CRect::SetRect
; Function compile flags: /Odt
_TEXT	ENDS
;	COMDAT ?InflateRect@CRect@@QAEXHHHH@Z
_TEXT	SEGMENT
_this$ = -4						; size = 4
_l$ = 8							; size = 4
_t$ = 12						; size = 4
_r$ = 16						; size = 4
_b$ = 20						; size = 4
?InflateRect@CRect@@QAEXHHHH@Z PROC NEAR		; CRect::InflateRect, COMDAT
; _this$ = ecx

; 255  : 	{

  00000	55		 push	 ebp
  00001	8b ec		 mov	 ebp, esp
  00003	51		 push	 ecx
  00004	89 4d fc	 mov	 DWORD PTR _this$[ebp], ecx

; 256  : 		left -= l;			top -= t;

  00007	8b 45 fc	 mov	 eax, DWORD PTR _this$[ebp]
  0000a	8b 08		 mov	 ecx, DWORD PTR [eax]
  0000c	2b 4d 08	 sub	 ecx, DWORD PTR _l$[ebp]
  0000f	8b 55 fc	 mov	 edx, DWORD PTR _this$[ebp]
  00012	89 0a		 mov	 DWORD PTR [edx], ecx
  00014	8b 45 fc	 mov	 eax, DWORD PTR _this$[ebp]
  00017	8b 48 04	 mov	 ecx, DWORD PTR [eax+4]
  0001a	2b 4d 0c	 sub	 ecx, DWORD PTR _t$[ebp]
  0001d	8b 55 fc	 mov	 edx, DWORD PTR _this$[ebp]
  00020	89 4a 04	 mov	 DWORD PTR [edx+4], ecx

; 257  : 		right += r;			bottom += b;

  00023	8b 45 fc	 mov	 eax, DWORD PTR _this$[ebp]
  00026	8b 48 08	 mov	 ecx, DWORD PTR [eax+8]
  00029	03 4d 10	 add	 ecx, DWORD PTR _r$[ebp]
  0002c	8b 55 fc	 mov	 edx, DWORD PTR _this$[ebp]
  0002f	89 4a 08	 mov	 DWORD PTR [edx+8], ecx
  00032	8b 45 fc	 mov	 eax, DWORD PTR _this$[ebp]
  00035	8b 48 0c	 mov	 ecx, DWORD PTR [eax+12]
  00038	03 4d 14	 add	 ecx, DWORD PTR _b$[ebp]
  0003b	8b 55 fc	 mov	 edx, DWORD PTR _this$[ebp]
  0003e	89 4a 0c	 mov	 DWORD PTR [edx+12], ecx

; 258  : 	}

  00041	8b e5		 mov	 esp, ebp
  00043	5d		 pop	 ebp
  00044	c2 10 00	 ret	 16			; 00000010H
?InflateRect@CRect@@QAEXHHHH@Z ENDP			; CRect::InflateRect
; Function compile flags: /Odt
; File d:\program files (x86)\microsoft visual studio .net 2003\vc7\atlmfc\include\afx.inl
_TEXT	ENDS
;	COMDAT ?Serialize@CObject@@UAEXAAVCArchive@@@Z
_TEXT	SEGMENT
_this$ = -4						; size = 4
___formal$ = 8						; size = 4
?Serialize@CObject@@UAEXAAVCArchive@@@Z PROC NEAR	; CObject::Serialize, COMDAT
; _this$ = ecx

; 25   : 	{ /* CObject does not serialize anything by default */ }

  00000	55		 push	 ebp
  00001	8b ec		 mov	 ebp, esp
  00003	51		 push	 ecx
  00004	89 4d fc	 mov	 DWORD PTR _this$[ebp], ecx
  00007	8b e5		 mov	 esp, ebp
  00009	5d		 pop	 ebp
  0000a	c2 04 00	 ret	 4
?Serialize@CObject@@UAEXAAVCArchive@@@Z ENDP		; CObject::Serialize
; Function compile flags: /Odt
_TEXT	ENDS
;	COMDAT ??3CObject@@SGXPAX@Z
_TEXT	SEGMENT
_p$ = 8							; size = 4
??3CObject@@SGXPAX@Z PROC NEAR				; CObject::operator delete, COMDAT

; 31   : 	{ ::operator delete(p); }

  00000	55		 push	 ebp
  00001	8b ec		 mov	 ebp, esp
  00003	8b 45 08	 mov	 eax, DWORD PTR _p$[ebp]
  00006	50		 push	 eax
  00007	e8 00 00 00 00	 call	 ??3@YAXPAX@Z		; operator delete
  0000c	83 c4 04	 add	 esp, 4
  0000f	5d		 pop	 ebp
  00010	c2 04 00	 ret	 4
??3CObject@@SGXPAX@Z ENDP				; CObject::operator delete
; Function compile flags: /Odt
_TEXT	ENDS
;	COMDAT ?AssertValid@CObject@@UBEXXZ
_TEXT	SEGMENT
_this$ = -4						; size = 4
?AssertValid@CObject@@UBEXXZ PROC NEAR			; CObject::AssertValid, COMDAT
; _this$ = ecx

; 41   : 	{ /* no asserts in release builds */ }

  00000	55		 push	 ebp
  00001	8b ec		 mov	 ebp, esp
  00003	51		 push	 ecx
  00004	89 4d fc	 mov	 DWORD PTR _this$[ebp], ecx
  00007	8b e5		 mov	 esp, ebp
  00009	5d		 pop	 ebp
  0000a	c3		 ret	 0
?AssertValid@CObject@@UBEXXZ ENDP			; CObject::AssertValid
; Function compile flags: /Odt
_TEXT	ENDS
;	COMDAT ?Dump@CObject@@UBEXAAVCDumpContext@@@Z
_TEXT	SEGMENT
_this$ = -4						; size = 4
___formal$ = 8						; size = 4
?Dump@CObject@@UBEXAAVCDumpContext@@@Z PROC NEAR	; CObject::Dump, COMDAT
; _this$ = ecx

; 43   : 	{ /* no dumping in release builds */ }

  00000	55		 push	 ebp
  00001	8b ec		 mov	 ebp, esp
  00003	51		 push	 ecx
  00004	89 4d fc	 mov	 DWORD PTR _this$[ebp], ecx
  00007	8b e5		 mov	 esp, ebp
  00009	5d		 pop	 ebp
  0000a	c2 04 00	 ret	 4
?Dump@CObject@@UBEXAAVCDumpContext@@@Z ENDP		; CObject::Dump
_TEXT	ENDS
PUBLIC	??0CSize@@QAE@UtagSIZE@@@Z			; CSize::CSize
EXTRN	__imp__GetBitmapDimensionEx@8:NEAR
; Function compile flags: /Odt
; File d:\program files (x86)\microsoft visual studio .net 2003\vc7\atlmfc\include\afxwin1.inl
;	COMDAT ?GetBitmapDimension@CBitmap@@QBE?AVCSize@@XZ
_TEXT	SEGMENT
_this$ = -12						; size = 4
_size$ = -8						; size = 8
___$ReturnUdt$ = 8					; size = 4
?GetBitmapDimension@CBitmap@@QBE?AVCSize@@XZ PROC NEAR	; CBitmap::GetBitmapDimension, COMDAT
; _this$ = ecx

; 205  : 	{

  00000	55		 push	 ebp
  00001	8b ec		 mov	 ebp, esp
  00003	83 ec 0c	 sub	 esp, 12			; 0000000cH
  00006	89 4d f4	 mov	 DWORD PTR _this$[ebp], ecx

; 206  : 		SIZE size;
; 207  : 		VERIFY(::GetBitmapDimensionEx((HBITMAP)m_hObject, &size));

  00009	8d 45 f8	 lea	 eax, DWORD PTR _size$[ebp]
  0000c	50		 push	 eax
  0000d	8b 4d f4	 mov	 ecx, DWORD PTR _this$[ebp]
  00010	8b 51 04	 mov	 edx, DWORD PTR [ecx+4]
  00013	52		 push	 edx
  00014	ff 15 00 00 00
	00		 call	 DWORD PTR __imp__GetBitmapDimensionEx@8

; 208  : 		return size;

  0001a	8b 45 fc	 mov	 eax, DWORD PTR _size$[ebp+4]
  0001d	50		 push	 eax
  0001e	8b 4d f8	 mov	 ecx, DWORD PTR _size$[ebp]
  00021	51		 push	 ecx
  00022	8b 4d 08	 mov	 ecx, DWORD PTR ___$ReturnUdt$[ebp]
  00025	e8 00 00 00 00	 call	 ??0CSize@@QAE@UtagSIZE@@@Z ; CSize::CSize
  0002a	8b 45 08	 mov	 eax, DWORD PTR ___$ReturnUdt$[ebp]

; 209  : 	}

  0002d	8b e5		 mov	 esp, ebp
  0002f	5d		 pop	 ebp
  00030	c2 04 00	 ret	 4
?GetBitmapDimension@CBitmap@@QBE?AVCSize@@XZ ENDP	; CBitmap::GetBitmapDimension
; Function compile flags: /Odt
; File d:\program files (x86)\microsoft visual studio .net 2003\vc7\atlmfc\include\atltypes.inl
_TEXT	ENDS
;	COMDAT ??0CSize@@QAE@UtagSIZE@@@Z
_TEXT	SEGMENT
_this$ = -4						; size = 4
_initSize$ = 8						; size = 8
??0CSize@@QAE@UtagSIZE@@@Z PROC NEAR			; CSize::CSize, COMDAT
; _this$ = ecx

; 26   : 	{ *(SIZE*)this = initSize; }

  00000	55		 push	 ebp
  00001	8b ec		 mov	 ebp, esp
  00003	51		 push	 ecx
  00004	89 4d fc	 mov	 DWORD PTR _this$[ebp], ecx
  00007	8b 45 fc	 mov	 eax, DWORD PTR _this$[ebp]
  0000a	8b 4d 08	 mov	 ecx, DWORD PTR _initSize$[ebp]
  0000d	89 08		 mov	 DWORD PTR [eax], ecx
  0000f	8b 55 0c	 mov	 edx, DWORD PTR _initSize$[ebp+4]
  00012	89 50 04	 mov	 DWORD PTR [eax+4], edx
  00015	8b 45 fc	 mov	 eax, DWORD PTR _this$[ebp]
  00018	8b e5		 mov	 esp, ebp
  0001a	5d		 pop	 ebp
  0001b	c2 08 00	 ret	 8
??0CSize@@QAE@UtagSIZE@@@Z ENDP				; CSize::CSize
_TEXT	ENDS
EXTRN	__imp__GetClientRect@8:NEAR
; Function compile flags: /Odt
; File d:\program files (x86)\microsoft visual studio .net 2003\vc7\atlmfc\include\afxwin2.inl
;	COMDAT ?GetClientRect@CWnd@@QBEXPAUtagRECT@@@Z
_TEXT	SEGMENT
_this$ = -4						; size = 4
_lpRect$ = 8						; size = 4
?GetClientRect@CWnd@@QBEXPAUtagRECT@@@Z PROC NEAR	; CWnd::GetClientRect, COMDAT
; _this$ = ecx

; 107  : 	{ ASSERT(::IsWindow(m_hWnd)); ::GetClientRect(m_hWnd, lpRect); }

  00000	55		 push	 ebp
  00001	8b ec		 mov	 ebp, esp
  00003	51		 push	 ecx
  00004	89 4d fc	 mov	 DWORD PTR _this$[ebp], ecx
  00007	8b 45 08	 mov	 eax, DWORD PTR _lpRect$[ebp]
  0000a	50		 push	 eax
  0000b	8b 4d fc	 mov	 ecx, DWORD PTR _this$[ebp]
  0000e	8b 51 20	 mov	 edx, DWORD PTR [ecx+32]
  00011	52		 push	 edx
  00012	ff 15 00 00 00
	00		 call	 DWORD PTR __imp__GetClientRect@8
  00018	8b e5		 mov	 esp, ebp
  0001a	5d		 pop	 ebp
  0001b	c2 04 00	 ret	 4
?GetClientRect@CWnd@@QBEXPAUtagRECT@@@Z ENDP		; CWnd::GetClientRect
_TEXT	ENDS
EXTRN	__imp__ScreenToClient@8:NEAR
; Function compile flags: /Odt
;	COMDAT ?ScreenToClient@CWnd@@QBEXPAUtagPOINT@@@Z
_TEXT	SEGMENT
_this$ = -4						; size = 4
_lpPoint$ = 8						; size = 4
?ScreenToClient@CWnd@@QBEXPAUtagPOINT@@@Z PROC NEAR	; CWnd::ScreenToClient, COMDAT
; _this$ = ecx

; 115  : 	{ ASSERT(::IsWindow(m_hWnd)); ::ScreenToClient(m_hWnd, lpPoint); }

  00000	55		 push	 ebp
  00001	8b ec		 mov	 ebp, esp
  00003	51		 push	 ecx
  00004	89 4d fc	 mov	 DWORD PTR _this$[ebp], ecx
  00007	8b 45 08	 mov	 eax, DWORD PTR _lpPoint$[ebp]
  0000a	50		 push	 eax
  0000b	8b 4d fc	 mov	 ecx, DWORD PTR _this$[ebp]
  0000e	8b 51 20	 mov	 edx, DWORD PTR [ecx+32]
  00011	52		 push	 edx
  00012	ff 15 00 00 00
	00		 call	 DWORD PTR __imp__ScreenToClient@8
  00018	8b e5		 mov	 esp, ebp
  0001a	5d		 pop	 ebp
  0001b	c2 04 00	 ret	 4
?ScreenToClient@CWnd@@QBEXPAUtagPOINT@@@Z ENDP		; CWnd::ScreenToClient
_TEXT	ENDS
EXTRN	__imp__InvalidateRect@12:NEAR
; Function compile flags: /Odt
;	COMDAT ?Invalidate@CWnd@@QAEXH@Z
_TEXT	SEGMENT
_this$ = -4						; size = 4
_bErase$ = 8						; size = 4
?Invalidate@CWnd@@QAEXH@Z PROC NEAR			; CWnd::Invalidate, COMDAT
; _this$ = ecx

; 135  : 	{ ASSERT(::IsWindow(m_hWnd)); ::InvalidateRect(m_hWnd, NULL, bErase); }

  00000	55		 push	 ebp
  00001	8b ec		 mov	 ebp, esp
  00003	51		 push	 ecx
  00004	89 4d fc	 mov	 DWORD PTR _this$[ebp], ecx
  00007	8b 45 08	 mov	 eax, DWORD PTR _bErase$[ebp]
  0000a	50		 push	 eax
  0000b	6a 00		 push	 0
  0000d	8b 4d fc	 mov	 ecx, DWORD PTR _this$[ebp]
  00010	8b 51 20	 mov	 edx, DWORD PTR [ecx+32]
  00013	52		 push	 edx
  00014	ff 15 00 00 00
	00		 call	 DWORD PTR __imp__InvalidateRect@12
  0001a	8b e5		 mov	 esp, ebp
  0001c	5d		 pop	 ebp
  0001d	c2 04 00	 ret	 4
?Invalidate@CWnd@@QAEXH@Z ENDP				; CWnd::Invalidate
_TEXT	ENDS
EXTRN	__imp__KillTimer@8:NEAR
; Function compile flags: /Odt
;	COMDAT ?KillTimer@CWnd@@QAEHI@Z
_TEXT	SEGMENT
_this$ = -4						; size = 4
_nIDEvent$ = 8						; size = 4
?KillTimer@CWnd@@QAEHI@Z PROC NEAR			; CWnd::KillTimer, COMDAT
; _this$ = ecx

; 185  : 	{ ASSERT(::IsWindow(m_hWnd)); return ::KillTimer(m_hWnd, nIDEvent); }

  00000	55		 push	 ebp
  00001	8b ec		 mov	 ebp, esp
  00003	51		 push	 ecx
  00004	89 4d fc	 mov	 DWORD PTR _this$[ebp], ecx
  00007	8b 45 08	 mov	 eax, DWORD PTR _nIDEvent$[ebp]
  0000a	50		 push	 eax
  0000b	8b 4d fc	 mov	 ecx, DWORD PTR _this$[ebp]
  0000e	8b 51 20	 mov	 edx, DWORD PTR [ecx+32]
  00011	52		 push	 edx
  00012	ff 15 00 00 00
	00		 call	 DWORD PTR __imp__KillTimer@8
  00018	8b e5		 mov	 esp, ebp
  0001a	5d		 pop	 ebp
  0001b	c2 04 00	 ret	 4
?KillTimer@CWnd@@QAEHI@Z ENDP				; CWnd::KillTimer
_TEXT	ENDS
EXTRN	?Default@CWnd@@IAEJXZ:NEAR			; CWnd::Default
; Function compile flags: /Odt
;	COMDAT ?OnRButtonDown@CWnd@@IAEXIVCPoint@@@Z
_TEXT	SEGMENT
_this$ = -4						; size = 4
___formal$ = 8						; size = 4
___formal$ = 12						; size = 8
?OnRButtonDown@CWnd@@IAEXIVCPoint@@@Z PROC NEAR		; CWnd::OnRButtonDown, COMDAT
; _this$ = ecx

; 484  : 	{ Default(); }

  00000	55		 push	 ebp
  00001	8b ec		 mov	 ebp, esp
  00003	51		 push	 ecx
  00004	89 4d fc	 mov	 DWORD PTR _this$[ebp], ecx
  00007	8b 4d fc	 mov	 ecx, DWORD PTR _this$[ebp]
  0000a	e8 00 00 00 00	 call	 ?Default@CWnd@@IAEJXZ	; CWnd::Default
  0000f	8b e5		 mov	 esp, ebp
  00011	5d		 pop	 ebp
  00012	c2 0c 00	 ret	 12			; 0000000cH
?OnRButtonDown@CWnd@@IAEXIVCPoint@@@Z ENDP		; CWnd::OnRButtonDown
; Function compile flags: /Odt
_TEXT	ENDS
;	COMDAT ?DoDataExchange@CWnd@@MAEXPAVCDataExchange@@@Z
_TEXT	SEGMENT
_this$ = -4						; size = 4
___formal$ = 8						; size = 4
?DoDataExchange@CWnd@@MAEXPAVCDataExchange@@@Z PROC NEAR ; CWnd::DoDataExchange, COMDAT
; _this$ = ecx

; 545  : 	{ } // default does nothing

  00000	55		 push	 ebp
  00001	8b ec		 mov	 ebp, esp
  00003	51		 push	 ecx
  00004	89 4d fc	 mov	 DWORD PTR _this$[ebp], ecx
  00007	8b e5		 mov	 esp, ebp
  00009	5d		 pop	 ebp
  0000a	c2 04 00	 ret	 4
?DoDataExchange@CWnd@@MAEXPAVCDataExchange@@@Z ENDP	; CWnd::DoDataExchange
_TEXT	ENDS
EXTRN	__imp__EnableWindow@8:NEAR
; Function compile flags: /Odt
;	COMDAT ?BeginModalState@CWnd@@UAEXXZ
_TEXT	SEGMENT
_this$ = -4						; size = 4
?BeginModalState@CWnd@@UAEXXZ PROC NEAR			; CWnd::BeginModalState, COMDAT
; _this$ = ecx

; 549  : 	{ ::EnableWindow(m_hWnd, FALSE); }

  00000	55		 push	 ebp
  00001	8b ec		 mov	 ebp, esp
  00003	51		 push	 ecx
  00004	89 4d fc	 mov	 DWORD PTR _this$[ebp], ecx
  00007	6a 00		 push	 0
  00009	8b 45 fc	 mov	 eax, DWORD PTR _this$[ebp]
  0000c	8b 48 20	 mov	 ecx, DWORD PTR [eax+32]
  0000f	51		 push	 ecx
  00010	ff 15 00 00 00
	00		 call	 DWORD PTR __imp__EnableWindow@8
  00016	8b e5		 mov	 esp, ebp
  00018	5d		 pop	 ebp
  00019	c3		 ret	 0
?BeginModalState@CWnd@@UAEXXZ ENDP			; CWnd::BeginModalState
; Function compile flags: /Odt
_TEXT	ENDS
;	COMDAT ?EndModalState@CWnd@@UAEXXZ
_TEXT	SEGMENT
_this$ = -4						; size = 4
?EndModalState@CWnd@@UAEXXZ PROC NEAR			; CWnd::EndModalState, COMDAT
; _this$ = ecx

; 551  : 	{ ::EnableWindow(m_hWnd, TRUE); }

  00000	55		 push	 ebp
  00001	8b ec		 mov	 ebp, esp
  00003	51		 push	 ecx
  00004	89 4d fc	 mov	 DWORD PTR _this$[ebp], ecx
  00007	6a 01		 push	 1
  00009	8b 45 fc	 mov	 eax, DWORD PTR _this$[ebp]
  0000c	8b 48 20	 mov	 ecx, DWORD PTR [eax+32]
  0000f	51		 push	 ecx
  00010	ff 15 00 00 00
	00		 call	 DWORD PTR __imp__EnableWindow@8
  00016	8b e5		 mov	 esp, ebp
  00018	5d		 pop	 ebp
  00019	c3		 ret	 0
?EndModalState@CWnd@@UAEXXZ ENDP			; CWnd::EndModalState
; Function compile flags: /Odt
; File d:\program files (x86)\microsoft visual studio .net 2003\vc7\platformsdk\include\gdiplustypes.h
_TEXT	ENDS
;	COMDAT ??0RectF@Gdiplus@@QAE@XZ
_TEXT	SEGMENT
_this$ = -4						; size = 4
??0RectF@Gdiplus@@QAE@XZ PROC NEAR			; Gdiplus::RectF::RectF, COMDAT
; _this$ = ecx

; 334  :     RectF()

  00000	55		 push	 ebp
  00001	8b ec		 mov	 ebp, esp
  00003	51		 push	 ecx
  00004	89 4d fc	 mov	 DWORD PTR _this$[ebp], ecx

; 335  :     {
; 336  :         X = Y = Width = Height = 0.0f;

  00007	8b 45 fc	 mov	 eax, DWORD PTR _this$[ebp]
  0000a	c7 40 0c 00 00
	00 00		 mov	 DWORD PTR [eax+12], 0
  00011	8b 4d fc	 mov	 ecx, DWORD PTR _this$[ebp]
  00014	c7 41 08 00 00
	00 00		 mov	 DWORD PTR [ecx+8], 0
  0001b	8b 55 fc	 mov	 edx, DWORD PTR _this$[ebp]
  0001e	c7 42 04 00 00
	00 00		 mov	 DWORD PTR [edx+4], 0
  00025	8b 45 fc	 mov	 eax, DWORD PTR _this$[ebp]
  00028	c7 00 00 00 00
	00		 mov	 DWORD PTR [eax], 0

; 337  :     }

  0002e	8b 45 fc	 mov	 eax, DWORD PTR _this$[ebp]
  00031	8b e5		 mov	 esp, ebp
  00033	5d		 pop	 ebp
  00034	c3		 ret	 0
??0RectF@Gdiplus@@QAE@XZ ENDP				; Gdiplus::RectF::RectF
; Function compile flags: /Odt
_TEXT	ENDS
;	COMDAT ??0Rect@Gdiplus@@QAE@HHHH@Z
_TEXT	SEGMENT
_this$ = -4						; size = 4
_x$ = 8							; size = 4
_y$ = 12						; size = 4
_width$ = 16						; size = 4
_height$ = 20						; size = 4
??0Rect@Gdiplus@@QAE@HHHH@Z PROC NEAR			; Gdiplus::Rect::Rect, COMDAT
; _this$ = ecx

; 527  :     Rect(IN INT x,

  00000	55		 push	 ebp
  00001	8b ec		 mov	 ebp, esp
  00003	51		 push	 ecx
  00004	89 4d fc	 mov	 DWORD PTR _this$[ebp], ecx

; 528  :          IN INT y,
; 529  :          IN INT width,
; 530  :          IN INT height)
; 531  :     {
; 532  :         X = x;

  00007	8b 45 fc	 mov	 eax, DWORD PTR _this$[ebp]
  0000a	8b 4d 08	 mov	 ecx, DWORD PTR _x$[ebp]
  0000d	89 08		 mov	 DWORD PTR [eax], ecx

; 533  :         Y = y;

  0000f	8b 55 fc	 mov	 edx, DWORD PTR _this$[ebp]
  00012	8b 45 0c	 mov	 eax, DWORD PTR _y$[ebp]
  00015	89 42 04	 mov	 DWORD PTR [edx+4], eax

; 534  :         Width = width;

  00018	8b 4d fc	 mov	 ecx, DWORD PTR _this$[ebp]
  0001b	8b 55 10	 mov	 edx, DWORD PTR _width$[ebp]
  0001e	89 51 08	 mov	 DWORD PTR [ecx+8], edx

; 535  :         Height = height;

  00021	8b 45 fc	 mov	 eax, DWORD PTR _this$[ebp]
  00024	8b 4d 14	 mov	 ecx, DWORD PTR _height$[ebp]
  00027	89 48 0c	 mov	 DWORD PTR [eax+12], ecx

; 536  :     }

  0002a	8b 45 fc	 mov	 eax, DWORD PTR _this$[ebp]
  0002d	8b e5		 mov	 esp, ebp
  0002f	5d		 pop	 ebp
  00030	c2 10 00	 ret	 16			; 00000010H
??0Rect@Gdiplus@@QAE@HHHH@Z ENDP			; Gdiplus::Rect::Rect
_TEXT	ENDS
PUBLIC	?SetNativeGraphics@Graphics@Gdiplus@@IAEXPAVGpGraphics@2@@Z ; Gdiplus::Graphics::SetNativeGraphics
EXTRN	_GdipCreateFromHDC@8:NEAR
; Function compile flags: /Odt
; File d:\program files (x86)\microsoft visual studio .net 2003\vc7\platformsdk\include\gdiplusgraphics.h
;	COMDAT ??0Graphics@Gdiplus@@QAE@PAUHDC__@@@Z
_TEXT	SEGMENT
_this$ = -8						; size = 4
_graphics$ = -4						; size = 4
_hdc$ = 8						; size = 4
??0Graphics@Gdiplus@@QAE@PAUHDC__@@@Z PROC NEAR		; Gdiplus::Graphics::Graphics, COMDAT
; _this$ = ecx

; 53   :     Graphics(IN HDC hdc)

  00000	55		 push	 ebp
  00001	8b ec		 mov	 ebp, esp
  00003	83 ec 08	 sub	 esp, 8
  00006	89 4d f8	 mov	 DWORD PTR _this$[ebp], ecx

; 54   :     {
; 55   :         GpGraphics *graphics = NULL;

  00009	c7 45 fc 00 00
	00 00		 mov	 DWORD PTR _graphics$[ebp], 0

; 56   : 
; 57   :         lastResult = DllExports::GdipCreateFromHDC(hdc, &graphics);

  00010	8d 45 fc	 lea	 eax, DWORD PTR _graphics$[ebp]
  00013	50		 push	 eax
  00014	8b 4d 08	 mov	 ecx, DWORD PTR _hdc$[ebp]
  00017	51		 push	 ecx
  00018	e8 00 00 00 00	 call	 _GdipCreateFromHDC@8
  0001d	8b 55 f8	 mov	 edx, DWORD PTR _this$[ebp]
  00020	89 42 04	 mov	 DWORD PTR [edx+4], eax

; 58   : 
; 59   :         SetNativeGraphics(graphics);

  00023	8b 45 fc	 mov	 eax, DWORD PTR _graphics$[ebp]
  00026	50		 push	 eax
  00027	8b 4d f8	 mov	 ecx, DWORD PTR _this$[ebp]
  0002a	e8 00 00 00 00	 call	 ?SetNativeGraphics@Graphics@Gdiplus@@IAEXPAVGpGraphics@2@@Z ; Gdiplus::Graphics::SetNativeGraphics

; 60   :     }

  0002f	8b 45 f8	 mov	 eax, DWORD PTR _this$[ebp]
  00032	8b e5		 mov	 esp, ebp
  00034	5d		 pop	 ebp
  00035	c2 04 00	 ret	 4
??0Graphics@Gdiplus@@QAE@PAUHDC__@@@Z ENDP		; Gdiplus::Graphics::Graphics
_TEXT	ENDS
EXTRN	_GdipDeleteGraphics@4:NEAR
; Function compile flags: /Odt
;	COMDAT ??1Graphics@Gdiplus@@QAE@XZ
_TEXT	SEGMENT
_this$ = -4						; size = 4
??1Graphics@Gdiplus@@QAE@XZ PROC NEAR			; Gdiplus::Graphics::~Graphics, COMDAT
; _this$ = ecx

; 102  :     {

  00000	55		 push	 ebp
  00001	8b ec		 mov	 ebp, esp
  00003	51		 push	 ecx
  00004	89 4d fc	 mov	 DWORD PTR _this$[ebp], ecx

; 103  :         DllExports::GdipDeleteGraphics(nativeGraphics);

  00007	8b 45 fc	 mov	 eax, DWORD PTR _this$[ebp]
  0000a	8b 08		 mov	 ecx, DWORD PTR [eax]
  0000c	51		 push	 ecx
  0000d	e8 00 00 00 00	 call	 _GdipDeleteGraphics@4

; 104  :     }

  00012	8b e5		 mov	 esp, ebp
  00014	5d		 pop	 ebp
  00015	c3		 ret	 0
??1Graphics@Gdiplus@@QAE@XZ ENDP			; Gdiplus::Graphics::~Graphics
_TEXT	ENDS
PUBLIC	?SetStatus@Graphics@Gdiplus@@IBE?AW4Status@2@W432@@Z ; Gdiplus::Graphics::SetStatus
EXTRN	_GdipReleaseDC@8:NEAR
; Function compile flags: /Odt
;	COMDAT ?ReleaseHDC@Graphics@Gdiplus@@QAEXPAUHDC__@@@Z
_TEXT	SEGMENT
_this$ = -4						; size = 4
_hdc$ = 8						; size = 4
?ReleaseHDC@Graphics@Gdiplus@@QAEXPAUHDC__@@@Z PROC NEAR ; Gdiplus::Graphics::ReleaseHDC, COMDAT
; _this$ = ecx

; 127  :     {

  00000	55		 push	 ebp
  00001	8b ec		 mov	 ebp, esp
  00003	51		 push	 ecx
  00004	89 4d fc	 mov	 DWORD PTR _this$[ebp], ecx

; 128  :         SetStatus(DllExports::GdipReleaseDC(nativeGraphics, hdc));

  00007	8b 45 08	 mov	 eax, DWORD PTR _hdc$[ebp]
  0000a	50		 push	 eax
  0000b	8b 4d fc	 mov	 ecx, DWORD PTR _this$[ebp]
  0000e	8b 11		 mov	 edx, DWORD PTR [ecx]
  00010	52		 push	 edx
  00011	e8 00 00 00 00	 call	 _GdipReleaseDC@8
  00016	50		 push	 eax
  00017	8b 4d fc	 mov	 ecx, DWORD PTR _this$[ebp]
  0001a	e8 00 00 00 00	 call	 ?SetStatus@Graphics@Gdiplus@@IBE?AW4Status@2@W432@@Z ; Gdiplus::Graphics::SetStatus

; 129  :     }

  0001f	8b e5		 mov	 esp, ebp
  00021	5d		 pop	 ebp
  00022	c2 04 00	 ret	 4
?ReleaseHDC@Graphics@Gdiplus@@QAEXPAUHDC__@@@Z ENDP	; Gdiplus::Graphics::ReleaseHDC
_TEXT	ENDS
PUBLIC	?DrawImage@Graphics@Gdiplus@@QAE?AW4Status@2@PAVImage@2@MMMM@Z ; Gdiplus::Graphics::DrawImage
; Function compile flags: /Odt
;	COMDAT ?DrawImage@Graphics@Gdiplus@@QAE?AW4Status@2@PAVImage@2@ABVRectF@2@@Z
_TEXT	SEGMENT
_this$ = -4						; size = 4
_image$ = 8						; size = 4
_rect$ = 12						; size = 4
?DrawImage@Graphics@Gdiplus@@QAE?AW4Status@2@PAVImage@2@ABVRectF@2@@Z PROC NEAR ; Gdiplus::Graphics::DrawImage, COMDAT
; _this$ = ecx

; 1508 :     {

  00000	55		 push	 ebp
  00001	8b ec		 mov	 ebp, esp
  00003	51		 push	 ecx
  00004	89 4d fc	 mov	 DWORD PTR _this$[ebp], ecx

; 1509 :         return DrawImage(image, rect.X, rect.Y, rect.Width, rect.Height);

  00007	8b 45 0c	 mov	 eax, DWORD PTR _rect$[ebp]
  0000a	8b 48 0c	 mov	 ecx, DWORD PTR [eax+12]
  0000d	51		 push	 ecx
  0000e	8b 55 0c	 mov	 edx, DWORD PTR _rect$[ebp]
  00011	8b 42 08	 mov	 eax, DWORD PTR [edx+8]
  00014	50		 push	 eax
  00015	8b 4d 0c	 mov	 ecx, DWORD PTR _rect$[ebp]
  00018	8b 51 04	 mov	 edx, DWORD PTR [ecx+4]
  0001b	52		 push	 edx
  0001c	8b 45 0c	 mov	 eax, DWORD PTR _rect$[ebp]
  0001f	8b 08		 mov	 ecx, DWORD PTR [eax]
  00021	51		 push	 ecx
  00022	8b 55 08	 mov	 edx, DWORD PTR _image$[ebp]
  00025	52		 push	 edx
  00026	8b 4d fc	 mov	 ecx, DWORD PTR _this$[ebp]
  00029	e8 00 00 00 00	 call	 ?DrawImage@Graphics@Gdiplus@@QAE?AW4Status@2@PAVImage@2@MMMM@Z ; Gdiplus::Graphics::DrawImage

; 1510 :     }

  0002e	8b e5		 mov	 esp, ebp
  00030	5d		 pop	 ebp
  00031	c2 08 00	 ret	 8
?DrawImage@Graphics@Gdiplus@@QAE?AW4Status@2@PAVImage@2@ABVRectF@2@@Z ENDP ; Gdiplus::Graphics::DrawImage
_TEXT	ENDS
EXTRN	_GdipDrawImageRect@24:NEAR
; Function compile flags: /Odt
;	COMDAT ?DrawImage@Graphics@Gdiplus@@QAE?AW4Status@2@PAVImage@2@MMMM@Z
_TEXT	SEGMENT
tv73 = -8						; size = 4
_this$ = -4						; size = 4
_image$ = 8						; size = 4
_x$ = 12						; size = 4
_y$ = 16						; size = 4
_width$ = 20						; size = 4
_height$ = 24						; size = 4
?DrawImage@Graphics@Gdiplus@@QAE?AW4Status@2@PAVImage@2@MMMM@Z PROC NEAR ; Gdiplus::Graphics::DrawImage, COMDAT
; _this$ = ecx

; 1517 :     {

  00000	55		 push	 ebp
  00001	8b ec		 mov	 ebp, esp
  00003	83 ec 08	 sub	 esp, 8
  00006	89 4d fc	 mov	 DWORD PTR _this$[ebp], ecx

; 1518 :         return SetStatus(DllExports::GdipDrawImageRect(nativeGraphics,
; 1519 :                                                        image ? image->nativeImage
; 1520 :                                                              : NULL,
; 1521 :                                                        x,
; 1522 :                                                        y,
; 1523 :                                                        width,
; 1524 :                                                        height));

  00009	83 7d 08 00	 cmp	 DWORD PTR _image$[ebp], 0
  0000d	74 0b		 je	 SHORT $L200238
  0000f	8b 45 08	 mov	 eax, DWORD PTR _image$[ebp]
  00012	8b 48 04	 mov	 ecx, DWORD PTR [eax+4]
  00015	89 4d f8	 mov	 DWORD PTR tv73[ebp], ecx
  00018	eb 07		 jmp	 SHORT $L200239
$L200238:
  0001a	c7 45 f8 00 00
	00 00		 mov	 DWORD PTR tv73[ebp], 0
$L200239:
  00021	8b 55 18	 mov	 edx, DWORD PTR _height$[ebp]
  00024	52		 push	 edx
  00025	8b 45 14	 mov	 eax, DWORD PTR _width$[ebp]
  00028	50		 push	 eax
  00029	8b 4d 10	 mov	 ecx, DWORD PTR _y$[ebp]
  0002c	51		 push	 ecx
  0002d	8b 55 0c	 mov	 edx, DWORD PTR _x$[ebp]
  00030	52		 push	 edx
  00031	8b 45 f8	 mov	 eax, DWORD PTR tv73[ebp]
  00034	50		 push	 eax
  00035	8b 4d fc	 mov	 ecx, DWORD PTR _this$[ebp]
  00038	8b 11		 mov	 edx, DWORD PTR [ecx]
  0003a	52		 push	 edx
  0003b	e8 00 00 00 00	 call	 _GdipDrawImageRect@24
  00040	50		 push	 eax
  00041	8b 4d fc	 mov	 ecx, DWORD PTR _this$[ebp]
  00044	e8 00 00 00 00	 call	 ?SetStatus@Graphics@Gdiplus@@IBE?AW4Status@2@W432@@Z ; Gdiplus::Graphics::SetStatus

; 1525 :     }

  00049	8b e5		 mov	 esp, ebp
  0004b	5d		 pop	 ebp
  0004c	c2 14 00	 ret	 20			; 00000014H
?DrawImage@Graphics@Gdiplus@@QAE?AW4Status@2@PAVImage@2@MMMM@Z ENDP ; Gdiplus::Graphics::DrawImage
_TEXT	ENDS
EXTRN	_GdipDrawImageRectRectI@56:NEAR
; Function compile flags: /Odt
;	COMDAT ?DrawImage@Graphics@Gdiplus@@QAE?AW4Status@2@PAVImage@2@ABVRect@2@HHHHW4Unit@2@PBVImageAttributes@2@P6GHPAX@Z4@Z
_TEXT	SEGMENT
tv86 = -12						; size = 4
tv70 = -8						; size = 4
_this$ = -4						; size = 4
_image$ = 8						; size = 4
_destRect$ = 12						; size = 4
_srcx$ = 16						; size = 4
_srcy$ = 20						; size = 4
_srcwidth$ = 24						; size = 4
_srcheight$ = 28					; size = 4
_srcUnit$ = 32						; size = 4
_imageAttributes$ = 36					; size = 4
_callback$ = 40						; size = 4
_callbackData$ = 44					; size = 4
?DrawImage@Graphics@Gdiplus@@QAE?AW4Status@2@PAVImage@2@ABVRect@2@HHHHW4Unit@2@PBVImageAttributes@2@P6GHPAX@Z4@Z PROC NEAR ; Gdiplus::Graphics::DrawImage, COMDAT
; _this$ = ecx

; 1707 :     {

  00000	55		 push	 ebp
  00001	8b ec		 mov	 ebp, esp
  00003	83 ec 0c	 sub	 esp, 12			; 0000000cH
  00006	89 4d fc	 mov	 DWORD PTR _this$[ebp], ecx

; 1708 :         return SetStatus(DllExports::GdipDrawImageRectRectI(nativeGraphics,
; 1709 :                                                             image ? image->nativeImage
; 1710 :                                                                   : NULL,
; 1711 :                                                             destRect.X,
; 1712 :                                                             destRect.Y,
; 1713 :                                                             destRect.Width,
; 1714 :                                                             destRect.Height,
; 1715 :                                                             srcx,
; 1716 :                                                             srcy,
; 1717 :                                                             srcwidth,
; 1718 :                                                             srcheight,
; 1719 :                                                             srcUnit,
; 1720 :                                                             imageAttributes
; 1721 :                                                             ? imageAttributes->nativeImageAttr
; 1722 :                                                             : NULL,
; 1723 :                                                             callback,
; 1724 :                                                             callbackData));

  00009	83 7d 24 00	 cmp	 DWORD PTR _imageAttributes$[ebp], 0
  0000d	74 0a		 je	 SHORT $L200242
  0000f	8b 45 24	 mov	 eax, DWORD PTR _imageAttributes$[ebp]
  00012	8b 08		 mov	 ecx, DWORD PTR [eax]
  00014	89 4d f8	 mov	 DWORD PTR tv70[ebp], ecx
  00017	eb 07		 jmp	 SHORT $L200243
$L200242:
  00019	c7 45 f8 00 00
	00 00		 mov	 DWORD PTR tv70[ebp], 0
$L200243:
  00020	83 7d 08 00	 cmp	 DWORD PTR _image$[ebp], 0
  00024	74 0b		 je	 SHORT $L200244
  00026	8b 55 08	 mov	 edx, DWORD PTR _image$[ebp]
  00029	8b 42 04	 mov	 eax, DWORD PTR [edx+4]
  0002c	89 45 f4	 mov	 DWORD PTR tv86[ebp], eax
  0002f	eb 07		 jmp	 SHORT $L200245
$L200244:
  00031	c7 45 f4 00 00
	00 00		 mov	 DWORD PTR tv86[ebp], 0
$L200245:
  00038	8b 4d 2c	 mov	 ecx, DWORD PTR _callbackData$[ebp]
  0003b	51		 push	 ecx
  0003c	8b 55 28	 mov	 edx, DWORD PTR _callback$[ebp]
  0003f	52		 push	 edx
  00040	8b 45 f8	 mov	 eax, DWORD PTR tv70[ebp]
  00043	50		 push	 eax
  00044	8b 4d 20	 mov	 ecx, DWORD PTR _srcUnit$[ebp]
  00047	51		 push	 ecx
  00048	8b 55 1c	 mov	 edx, DWORD PTR _srcheight$[ebp]
  0004b	52		 push	 edx
  0004c	8b 45 18	 mov	 eax, DWORD PTR _srcwidth$[ebp]
  0004f	50		 push	 eax
  00050	8b 4d 14	 mov	 ecx, DWORD PTR _srcy$[ebp]
  00053	51		 push	 ecx
  00054	8b 55 10	 mov	 edx, DWORD PTR _srcx$[ebp]
  00057	52		 push	 edx
  00058	8b 45 0c	 mov	 eax, DWORD PTR _destRect$[ebp]
  0005b	8b 48 0c	 mov	 ecx, DWORD PTR [eax+12]
  0005e	51		 push	 ecx
  0005f	8b 55 0c	 mov	 edx, DWORD PTR _destRect$[ebp]
  00062	8b 42 08	 mov	 eax, DWORD PTR [edx+8]
  00065	50		 push	 eax
  00066	8b 4d 0c	 mov	 ecx, DWORD PTR _destRect$[ebp]
  00069	8b 51 04	 mov	 edx, DWORD PTR [ecx+4]
  0006c	52		 push	 edx
  0006d	8b 45 0c	 mov	 eax, DWORD PTR _destRect$[ebp]
  00070	8b 08		 mov	 ecx, DWORD PTR [eax]
  00072	51		 push	 ecx
  00073	8b 55 f4	 mov	 edx, DWORD PTR tv86[ebp]
  00076	52		 push	 edx
  00077	8b 45 fc	 mov	 eax, DWORD PTR _this$[ebp]
  0007a	8b 08		 mov	 ecx, DWORD PTR [eax]
  0007c	51		 push	 ecx
  0007d	e8 00 00 00 00	 call	 _GdipDrawImageRectRectI@56
  00082	50		 push	 eax
  00083	8b 4d fc	 mov	 ecx, DWORD PTR _this$[ebp]
  00086	e8 00 00 00 00	 call	 ?SetStatus@Graphics@Gdiplus@@IBE?AW4Status@2@W432@@Z ; Gdiplus::Graphics::SetStatus

; 1725 :     }

  0008b	8b e5		 mov	 esp, ebp
  0008d	5d		 pop	 ebp
  0008e	c2 28 00	 ret	 40			; 00000028H
?DrawImage@Graphics@Gdiplus@@QAE?AW4Status@2@PAVImage@2@ABVRect@2@HHHHW4Unit@2@PBVImageAttributes@2@P6GHPAX@Z4@Z ENDP ; Gdiplus::Graphics::DrawImage
; Function compile flags: /Odt
_TEXT	ENDS
;	COMDAT ?SetNativeGraphics@Graphics@Gdiplus@@IAEXPAVGpGraphics@2@@Z
_TEXT	SEGMENT
_this$ = -4						; size = 4
_graphics$ = 8						; size = 4
?SetNativeGraphics@Graphics@Gdiplus@@IAEXPAVGpGraphics@2@@Z PROC NEAR ; Gdiplus::Graphics::SetNativeGraphics, COMDAT
; _this$ = ecx

; 2339 :     {

  00000	55		 push	 ebp
  00001	8b ec		 mov	 ebp, esp
  00003	51		 push	 ecx
  00004	89 4d fc	 mov	 DWORD PTR _this$[ebp], ecx

; 2340 :         this->nativeGraphics = graphics;

  00007	8b 45 fc	 mov	 eax, DWORD PTR _this$[ebp]
  0000a	8b 4d 08	 mov	 ecx, DWORD PTR _graphics$[ebp]
  0000d	89 08		 mov	 DWORD PTR [eax], ecx

; 2341 :     }

  0000f	8b e5		 mov	 esp, ebp
  00011	5d		 pop	 ebp
  00012	c2 04 00	 ret	 4
?SetNativeGraphics@Graphics@Gdiplus@@IAEXPAVGpGraphics@2@@Z ENDP ; Gdiplus::Graphics::SetNativeGraphics
; Function compile flags: /Odt
_TEXT	ENDS
;	COMDAT ?SetStatus@Graphics@Gdiplus@@IBE?AW4Status@2@W432@@Z
_TEXT	SEGMENT
_this$ = -4						; size = 4
_status$ = 8						; size = 4
?SetStatus@Graphics@Gdiplus@@IBE?AW4Status@2@W432@@Z PROC NEAR ; Gdiplus::Graphics::SetStatus, COMDAT
; _this$ = ecx

; 2344 :     {

  00000	55		 push	 ebp
  00001	8b ec		 mov	 ebp, esp
  00003	51		 push	 ecx
  00004	89 4d fc	 mov	 DWORD PTR _this$[ebp], ecx

; 2345 :         if (status != Ok)

  00007	83 7d 08 00	 cmp	 DWORD PTR _status$[ebp], 0
  0000b	74 0e		 je	 SHORT $L126192

; 2346 :             return (lastResult = status);

  0000d	8b 45 fc	 mov	 eax, DWORD PTR _this$[ebp]
  00010	8b 4d 08	 mov	 ecx, DWORD PTR _status$[ebp]
  00013	89 48 04	 mov	 DWORD PTR [eax+4], ecx
  00016	8b 45 08	 mov	 eax, DWORD PTR _status$[ebp]
  00019	eb 03		 jmp	 SHORT $L126191
$L126192:

; 2347 :         else
; 2348 :             return status;

  0001b	8b 45 08	 mov	 eax, DWORD PTR _status$[ebp]
$L126191:

; 2349 :     }

  0001e	8b e5		 mov	 esp, ebp
  00020	5d		 pop	 ebp
  00021	c2 04 00	 ret	 4
?SetStatus@Graphics@Gdiplus@@IBE?AW4Status@2@W432@@Z ENDP ; Gdiplus::Graphics::SetStatus
_TEXT	ENDS
PUBLIC	?SetStatus@Image@Gdiplus@@IBE?AW4Status@2@W432@@Z ; Gdiplus::Image::SetStatus
EXTRN	_GdipGetImageWidth@8:NEAR
; Function compile flags: /Odt
; File d:\program files (x86)\microsoft visual studio .net 2003\vc7\platformsdk\include\gdiplusbitmap.h
;	COMDAT ?GetWidth@Image@Gdiplus@@QAEIXZ
_TEXT	SEGMENT
_this$ = -8						; size = 4
_width$ = -4						; size = 4
?GetWidth@Image@Gdiplus@@QAEIXZ PROC NEAR		; Gdiplus::Image::GetWidth, COMDAT
; _this$ = ecx

; 225  : {

  00000	55		 push	 ebp
  00001	8b ec		 mov	 ebp, esp
  00003	83 ec 08	 sub	 esp, 8
  00006	89 4d f8	 mov	 DWORD PTR _this$[ebp], ecx

; 226  :     UINT width = 0;

  00009	c7 45 fc 00 00
	00 00		 mov	 DWORD PTR _width$[ebp], 0

; 227  : 
; 228  :     SetStatus(DllExports::GdipGetImageWidth(nativeImage, &width));

  00010	8d 45 fc	 lea	 eax, DWORD PTR _width$[ebp]
  00013	50		 push	 eax
  00014	8b 4d f8	 mov	 ecx, DWORD PTR _this$[ebp]
  00017	8b 51 04	 mov	 edx, DWORD PTR [ecx+4]
  0001a	52		 push	 edx
  0001b	e8 00 00 00 00	 call	 _GdipGetImageWidth@8
  00020	50		 push	 eax
  00021	8b 4d f8	 mov	 ecx, DWORD PTR _this$[ebp]
  00024	e8 00 00 00 00	 call	 ?SetStatus@Image@Gdiplus@@IBE?AW4Status@2@W432@@Z ; Gdiplus::Image::SetStatus

; 229  : 
; 230  :     return width;

  00029	8b 45 fc	 mov	 eax, DWORD PTR _width$[ebp]

; 231  : }

  0002c	8b e5		 mov	 esp, ebp
  0002e	5d		 pop	 ebp
  0002f	c3		 ret	 0
?GetWidth@Image@Gdiplus@@QAEIXZ ENDP			; Gdiplus::Image::GetWidth
; Function compile flags: /Odt
; File d:\program files (x86)\microsoft visual studio .net 2003\vc7\platformsdk\include\gdiplusheaders.h
_TEXT	ENDS
;	COMDAT ?SetStatus@Image@Gdiplus@@IBE?AW4Status@2@W432@@Z
_TEXT	SEGMENT
_this$ = -4						; size = 4
_status$ = 8						; size = 4
?SetStatus@Image@Gdiplus@@IBE?AW4Status@2@W432@@Z PROC NEAR ; Gdiplus::Image::SetStatus, COMDAT
; _this$ = ecx

; 472  :     {

  00000	55		 push	 ebp
  00001	8b ec		 mov	 ebp, esp
  00003	51		 push	 ecx
  00004	89 4d fc	 mov	 DWORD PTR _this$[ebp], ecx

; 473  :         if (status != Ok)

  00007	83 7d 08 00	 cmp	 DWORD PTR _status$[ebp], 0
  0000b	74 0e		 je	 SHORT $L119534

; 474  :             return (lastResult = status);

  0000d	8b 45 fc	 mov	 eax, DWORD PTR _this$[ebp]
  00010	8b 4d 08	 mov	 ecx, DWORD PTR _status$[ebp]
  00013	89 48 08	 mov	 DWORD PTR [eax+8], ecx
  00016	8b 45 08	 mov	 eax, DWORD PTR _status$[ebp]
  00019	eb 03		 jmp	 SHORT $L119533
$L119534:

; 475  :         else
; 476  :             return status;

  0001b	8b 45 08	 mov	 eax, DWORD PTR _status$[ebp]
$L119533:

; 477  :     }

  0001e	8b e5		 mov	 esp, ebp
  00020	5d		 pop	 ebp
  00021	c2 04 00	 ret	 4
?SetStatus@Image@Gdiplus@@IBE?AW4Status@2@W432@@Z ENDP	; Gdiplus::Image::SetStatus
_TEXT	ENDS
EXTRN	_GdipGetImageHeight@8:NEAR
; Function compile flags: /Odt
; File d:\program files (x86)\microsoft visual studio .net 2003\vc7\platformsdk\include\gdiplusbitmap.h
;	COMDAT ?GetHeight@Image@Gdiplus@@QAEIXZ
_TEXT	SEGMENT
_this$ = -8						; size = 4
_height$ = -4						; size = 4
?GetHeight@Image@Gdiplus@@QAEIXZ PROC NEAR		; Gdiplus::Image::GetHeight, COMDAT
; _this$ = ecx

; 235  : {

  00000	55		 push	 ebp
  00001	8b ec		 mov	 ebp, esp
  00003	83 ec 08	 sub	 esp, 8
  00006	89 4d f8	 mov	 DWORD PTR _this$[ebp], ecx

; 236  :     UINT height = 0;

  00009	c7 45 fc 00 00
	00 00		 mov	 DWORD PTR _height$[ebp], 0

; 237  : 
; 238  :     SetStatus(DllExports::GdipGetImageHeight(nativeImage, &height));

  00010	8d 45 fc	 lea	 eax, DWORD PTR _height$[ebp]
  00013	50		 push	 eax
  00014	8b 4d f8	 mov	 ecx, DWORD PTR _this$[ebp]
  00017	8b 51 04	 mov	 edx, DWORD PTR [ecx+4]
  0001a	52		 push	 edx
  0001b	e8 00 00 00 00	 call	 _GdipGetImageHeight@8
  00020	50		 push	 eax
  00021	8b 4d f8	 mov	 ecx, DWORD PTR _this$[ebp]
  00024	e8 00 00 00 00	 call	 ?SetStatus@Image@Gdiplus@@IBE?AW4Status@2@W432@@Z ; Gdiplus::Image::SetStatus

; 239  : 
; 240  :     return height;

  00029	8b 45 fc	 mov	 eax, DWORD PTR _height$[ebp]

; 241  : }

  0002c	8b e5		 mov	 esp, ebp
  0002e	5d		 pop	 ebp
  0002f	c3		 ret	 0
?GetHeight@Image@Gdiplus@@QAEIXZ ENDP			; Gdiplus::Image::GetHeight
; Function compile flags: /Odt
_TEXT	ENDS
;	COMDAT ?GetLastStatus@Image@Gdiplus@@QBE?AW4Status@2@XZ
_TEXT	SEGMENT
_this$ = -8						; size = 4
_lastStatus$ = -4					; size = 4
?GetLastStatus@Image@Gdiplus@@QBE?AW4Status@2@XZ PROC NEAR ; Gdiplus::Image::GetLastStatus, COMDAT
; _this$ = ecx

; 488  : {

  00000	55		 push	 ebp
  00001	8b ec		 mov	 ebp, esp
  00003	83 ec 08	 sub	 esp, 8
  00006	89 4d f8	 mov	 DWORD PTR _this$[ebp], ecx

; 489  :     Status lastStatus = lastResult;

  00009	8b 45 f8	 mov	 eax, DWORD PTR _this$[ebp]
  0000c	8b 48 08	 mov	 ecx, DWORD PTR [eax+8]
  0000f	89 4d fc	 mov	 DWORD PTR _lastStatus$[ebp], ecx

; 490  :     lastResult = Ok;

  00012	8b 55 f8	 mov	 edx, DWORD PTR _this$[ebp]
  00015	c7 42 08 00 00
	00 00		 mov	 DWORD PTR [edx+8], 0

; 491  : 
; 492  :     return lastStatus;

  0001c	8b 45 fc	 mov	 eax, DWORD PTR _lastStatus$[ebp]

; 493  : }

  0001f	8b e5		 mov	 esp, ebp
  00021	5d		 pop	 ebp
  00022	c3		 ret	 0
?GetLastStatus@Image@Gdiplus@@QBE?AW4Status@2@XZ ENDP	; Gdiplus::Image::GetLastStatus
_TEXT	ENDS
PUBLIC	??3GdiplusBase@Gdiplus@@SAXPAX@Z		; Gdiplus::GdiplusBase::operator delete
PUBLIC	??2GdiplusBase@Gdiplus@@SAPAXI@Z		; Gdiplus::GdiplusBase::operator new
PUBLIC	??0Bitmap@Gdiplus@@QAE@PB_WH@Z			; Gdiplus::Bitmap::Bitmap
;	COMDAT xdata$x
xdata$x	SEGMENT
$T200268 DD	0ffffffffH
	DD	FLAT:$L200264
$T200266 DD	019930520H
	DD	01H
	DD	FLAT:$T200268
	DD	2 DUP(00H)
	DD	2 DUP(00H)
; Function compile flags: /Odt
xdata$x	ENDS
;	COMDAT ?FromFile@Bitmap@Gdiplus@@SAPAV12@PB_WH@Z
_TEXT	SEGMENT
tv73 = -24						; size = 4
$T200261 = -20						; size = 4
$T200260 = -16						; size = 4
__$EHRec$ = -12						; size = 12
_filename$ = 8						; size = 4
_useEmbeddedColorManagement$ = 12			; size = 4
?FromFile@Bitmap@Gdiplus@@SAPAV12@PB_WH@Z PROC NEAR	; Gdiplus::Bitmap::FromFile, COMDAT

; 678  : {

  00000	55		 push	 ebp
  00001	8b ec		 mov	 ebp, esp
  00003	6a ff		 push	 -1
  00005	68 00 00 00 00	 push	 __ehhandler$?FromFile@Bitmap@Gdiplus@@SAPAV12@PB_WH@Z
  0000a	64 a1 00 00 00
	00		 mov	 eax, DWORD PTR fs:__except_list
  00010	50		 push	 eax
  00011	64 89 25 00 00
	00 00		 mov	 DWORD PTR fs:__except_list, esp
  00018	83 ec 0c	 sub	 esp, 12			; 0000000cH

; 679  :     return new Bitmap(

  0001b	6a 10		 push	 16			; 00000010H
  0001d	e8 00 00 00 00	 call	 ??2GdiplusBase@Gdiplus@@SAPAXI@Z ; Gdiplus::GdiplusBase::operator new
  00022	83 c4 04	 add	 esp, 4
  00025	89 45 ec	 mov	 DWORD PTR $T200261[ebp], eax
  00028	c7 45 fc 00 00
	00 00		 mov	 DWORD PTR __$EHRec$[ebp+8], 0
  0002f	83 7d ec 00	 cmp	 DWORD PTR $T200261[ebp], 0
  00033	74 15		 je	 SHORT $L200262
  00035	8b 45 0c	 mov	 eax, DWORD PTR _useEmbeddedColorManagement$[ebp]
  00038	50		 push	 eax
  00039	8b 4d 08	 mov	 ecx, DWORD PTR _filename$[ebp]
  0003c	51		 push	 ecx
  0003d	8b 4d ec	 mov	 ecx, DWORD PTR $T200261[ebp]
  00040	e8 00 00 00 00	 call	 ??0Bitmap@Gdiplus@@QAE@PB_WH@Z ; Gdiplus::Bitmap::Bitmap
  00045	89 45 e8	 mov	 DWORD PTR tv73[ebp], eax
  00048	eb 07		 jmp	 SHORT $L200263
$L200262:
  0004a	c7 45 e8 00 00
	00 00		 mov	 DWORD PTR tv73[ebp], 0
$L200263:
  00051	8b 55 e8	 mov	 edx, DWORD PTR tv73[ebp]
  00054	89 55 f0	 mov	 DWORD PTR $T200260[ebp], edx
  00057	c7 45 fc ff ff
	ff ff		 mov	 DWORD PTR __$EHRec$[ebp+8], -1
  0005e	8b 45 f0	 mov	 eax, DWORD PTR $T200260[ebp]

; 680  :         filename, 
; 681  :         useEmbeddedColorManagement
; 682  :     );
; 683  : }

  00061	8b 4d f4	 mov	 ecx, DWORD PTR __$EHRec$[ebp]
  00064	64 89 0d 00 00
	00 00		 mov	 DWORD PTR fs:__except_list, ecx
  0006b	8b e5		 mov	 esp, ebp
  0006d	5d		 pop	 ebp
  0006e	c3		 ret	 0
_TEXT	ENDS
;	COMDAT text$x
text$x	SEGMENT
$L200264:
  00000	8b 45 ec	 mov	 eax, DWORD PTR $T200261[ebp]
  00003	50		 push	 eax
  00004	e8 00 00 00 00	 call	 ??3GdiplusBase@Gdiplus@@SAXPAX@Z ; Gdiplus::GdiplusBase::operator delete
  00009	59		 pop	 ecx
  0000a	c3		 ret	 0
__ehhandler$?FromFile@Bitmap@Gdiplus@@SAPAV12@PB_WH@Z:
  0000b	b8 00 00 00 00	 mov	 eax, OFFSET FLAT:$T200266
  00010	e9 00 00 00 00	 jmp	 ___CxxFrameHandler
text$x	ENDS
?FromFile@Bitmap@Gdiplus@@SAPAV12@PB_WH@Z ENDP		; Gdiplus::Bitmap::FromFile
EXTRN	_GdipFree@4:NEAR
; Function compile flags: /Odt
; File d:\program files (x86)\microsoft visual studio .net 2003\vc7\platformsdk\include\gdiplusbase.h
;	COMDAT ??3GdiplusBase@Gdiplus@@SAXPAX@Z
_TEXT	SEGMENT
_in_pVoid$ = 8						; size = 4
??3GdiplusBase@Gdiplus@@SAXPAX@Z PROC NEAR		; Gdiplus::GdiplusBase::operator delete, COMDAT

; 22   :     {

  00000	55		 push	 ebp
  00001	8b ec		 mov	 ebp, esp

; 23   :        DllExports::GdipFree(in_pVoid);

  00003	8b 45 08	 mov	 eax, DWORD PTR _in_pVoid$[ebp]
  00006	50		 push	 eax
  00007	e8 00 00 00 00	 call	 _GdipFree@4

; 24   :     }

  0000c	5d		 pop	 ebp
  0000d	c3		 ret	 0
??3GdiplusBase@Gdiplus@@SAXPAX@Z ENDP			; Gdiplus::GdiplusBase::operator delete
_TEXT	ENDS
EXTRN	_GdipAlloc@4:NEAR
; Function compile flags: /Odt
;	COMDAT ??2GdiplusBase@Gdiplus@@SAPAXI@Z
_TEXT	SEGMENT
_in_size$ = 8						; size = 4
??2GdiplusBase@Gdiplus@@SAPAXI@Z PROC NEAR		; Gdiplus::GdiplusBase::operator new, COMDAT

; 26   :     {

  00000	55		 push	 ebp
  00001	8b ec		 mov	 ebp, esp

; 27   :        return DllExports::GdipAlloc(in_size);

  00003	8b 45 08	 mov	 eax, DWORD PTR _in_size$[ebp]
  00006	50		 push	 eax
  00007	e8 00 00 00 00	 call	 _GdipAlloc@4

; 28   :     }

  0000c	5d		 pop	 ebp
  0000d	c3		 ret	 0
??2GdiplusBase@Gdiplus@@SAPAXI@Z ENDP			; Gdiplus::GdiplusBase::operator new
_TEXT	ENDS
PUBLIC	??_R13?0A@A@GdiplusBase@Gdiplus@@8		; Gdiplus::GdiplusBase::`RTTI Base Class Descriptor at (4,-1,0,0)'
PUBLIC	??_R0?AVGdiplusBase@Gdiplus@@@8			; Gdiplus::GdiplusBase `RTTI Type Descriptor'
PUBLIC	??_R4Bitmap@Gdiplus@@6B@			; Gdiplus::Bitmap::`RTTI Complete Object Locator'
PUBLIC	??_R0?AVBitmap@Gdiplus@@@8			; Gdiplus::Bitmap `RTTI Type Descriptor'
PUBLIC	??_R3Bitmap@Gdiplus@@8				; Gdiplus::Bitmap::`RTTI Class Hierarchy Descriptor'
PUBLIC	??_R2Bitmap@Gdiplus@@8				; Gdiplus::Bitmap::`RTTI Base Class Array'
PUBLIC	??_R1A@?0A@A@Bitmap@Gdiplus@@8			; Gdiplus::Bitmap::`RTTI Base Class Descriptor at (0,-1,0,0)'
PUBLIC	??_R1A@?0A@A@Image@Gdiplus@@8			; Gdiplus::Image::`RTTI Base Class Descriptor at (0,-1,0,0)'
PUBLIC	??_R0?AVImage@Gdiplus@@@8			; Gdiplus::Image `RTTI Type Descriptor'
PUBLIC	??1Image@Gdiplus@@UAE@XZ			; Gdiplus::Image::~Image
PUBLIC	?Clone@Image@Gdiplus@@UAEPAV12@XZ		; Gdiplus::Image::Clone
PUBLIC	??0Image@Gdiplus@@IAE@XZ			; Gdiplus::Image::Image
PUBLIC	?SetNativeImage@Image@Gdiplus@@IAEXPAVGpImage@2@@Z ; Gdiplus::Image::SetNativeImage
PUBLIC	??_7Bitmap@Gdiplus@@6B@				; Gdiplus::Bitmap::`vftable'
PUBLIC	??_GBitmap@Gdiplus@@UAEPAXI@Z			; Gdiplus::Bitmap::`scalar deleting destructor'
EXTRN	_GdipCreateBitmapFromFile@8:NEAR
EXTRN	_GdipCreateBitmapFromFileICM@8:NEAR
EXTRN	??_EBitmap@Gdiplus@@UAEPAXI@Z:NEAR		; Gdiplus::Bitmap::`vector deleting destructor'
;	COMDAT xdata$x
; File d:\program files (x86)\microsoft visual studio .net 2003\vc7\platformsdk\include\gdiplusbitmap.h
xdata$x	SEGMENT
$T200281 DD	0ffffffffH
	DD	FLAT:$L200277
$T200279 DD	019930520H
	DD	01H
	DD	FLAT:$T200281
	DD	2 DUP(00H)
	DD	2 DUP(00H)
xdata$x	ENDS
;	COMDAT ??_7Bitmap@Gdiplus@@6B@
CONST	SEGMENT
??_7Bitmap@Gdiplus@@6B@ DD FLAT:??_R4Bitmap@Gdiplus@@6B@ ; Gdiplus::Bitmap::`vftable'
	DD	FLAT:??_EBitmap@Gdiplus@@UAEPAXI@Z
	DD	FLAT:?Clone@Image@Gdiplus@@UAEPAV12@XZ
CONST	ENDS
;	COMDAT ??_R4Bitmap@Gdiplus@@6B@
rdata$r	SEGMENT
??_R4Bitmap@Gdiplus@@6B@ DD 00H				; Gdiplus::Bitmap::`RTTI Complete Object Locator'
	DD	00H
	DD	00H
	DD	FLAT:??_R0?AVBitmap@Gdiplus@@@8
	DD	FLAT:??_R3Bitmap@Gdiplus@@8
rdata$r	ENDS
;	COMDAT ??_R0?AVBitmap@Gdiplus@@@8
_DATA	SEGMENT
??_R0?AVBitmap@Gdiplus@@@8 DD FLAT:??_7type_info@@6B@	; Gdiplus::Bitmap `RTTI Type Descriptor'
	DD	00H
	DB	'.?AVBitmap@Gdiplus@@', 00H
_DATA	ENDS
;	COMDAT ??_R3Bitmap@Gdiplus@@8
rdata$r	SEGMENT
??_R3Bitmap@Gdiplus@@8 DD 00H				; Gdiplus::Bitmap::`RTTI Class Hierarchy Descriptor'
	DD	00H
	DD	03H
	DD	FLAT:??_R2Bitmap@Gdiplus@@8
rdata$r	ENDS
;	COMDAT ??_R2Bitmap@Gdiplus@@8
rdata$r	SEGMENT
??_R2Bitmap@Gdiplus@@8 DD FLAT:??_R1A@?0A@A@Bitmap@Gdiplus@@8 ; Gdiplus::Bitmap::`RTTI Base Class Array'
	DD	FLAT:??_R1A@?0A@A@Image@Gdiplus@@8
	DD	FLAT:??_R13?0A@A@GdiplusBase@Gdiplus@@8
rdata$r	ENDS
;	COMDAT ??_R1A@?0A@A@Bitmap@Gdiplus@@8
rdata$r	SEGMENT
??_R1A@?0A@A@Bitmap@Gdiplus@@8 DD FLAT:??_R0?AVBitmap@Gdiplus@@@8 ; Gdiplus::Bitmap::`RTTI Base Class Descriptor at (0,-1,0,0)'
	DD	02H
	DD	00H
	DD	0ffffffffH
	DD	00H
	DD	00H
rdata$r	ENDS
;	COMDAT ??_R1A@?0A@A@Image@Gdiplus@@8
rdata$r	SEGMENT
??_R1A@?0A@A@Image@Gdiplus@@8 DD FLAT:??_R0?AVImage@Gdiplus@@@8 ; Gdiplus::Image::`RTTI Base Class Descriptor at (0,-1,0,0)'
	DD	01H
	DD	00H
	DD	0ffffffffH
	DD	00H
	DD	00H
rdata$r	ENDS
;	COMDAT ??_R0?AVImage@Gdiplus@@@8
_DATA	SEGMENT
??_R0?AVImage@Gdiplus@@@8 DD FLAT:??_7type_info@@6B@	; Gdiplus::Image `RTTI Type Descriptor'
	DD	00H
	DB	'.?AVImage@Gdiplus@@', 00H
_DATA	ENDS
;	COMDAT ??_R13?0A@A@GdiplusBase@Gdiplus@@8
rdata$r	SEGMENT
??_R13?0A@A@GdiplusBase@Gdiplus@@8 DD FLAT:??_R0?AVGdiplusBase@Gdiplus@@@8 ; Gdiplus::GdiplusBase::`RTTI Base Class Descriptor at (4,-1,0,0)'
	DD	00H
	DD	04H
	DD	0ffffffffH
	DD	00H
	DD	00H
rdata$r	ENDS
;	COMDAT ??_R0?AVGdiplusBase@Gdiplus@@@8
_DATA	SEGMENT
??_R0?AVGdiplusBase@Gdiplus@@@8 DD FLAT:??_7type_info@@6B@ ; Gdiplus::GdiplusBase `RTTI Type Descriptor'
	DD	00H
	DB	'.?AVGdiplusBase@Gdiplus@@', 00H
; Function compile flags: /Odt
_DATA	ENDS
;	COMDAT ??0Bitmap@Gdiplus@@QAE@PB_WH@Z
_TEXT	SEGMENT
_this$ = -20						; size = 4
_bitmap$ = -16						; size = 4
__$EHRec$ = -12						; size = 12
_filename$ = 8						; size = 4
_useEmbeddedColorManagement$ = 12			; size = 4
??0Bitmap@Gdiplus@@QAE@PB_WH@Z PROC NEAR		; Gdiplus::Bitmap::Bitmap, COMDAT
; _this$ = ecx

; 513  : {

  00000	55		 push	 ebp
  00001	8b ec		 mov	 ebp, esp
  00003	6a ff		 push	 -1
  00005	68 00 00 00 00	 push	 __ehhandler$??0Bitmap@Gdiplus@@QAE@PB_WH@Z
  0000a	64 a1 00 00 00
	00		 mov	 eax, DWORD PTR fs:__except_list
  00010	50		 push	 eax
  00011	64 89 25 00 00
	00 00		 mov	 DWORD PTR fs:__except_list, esp
  00018	83 ec 08	 sub	 esp, 8
  0001b	89 4d ec	 mov	 DWORD PTR _this$[ebp], ecx
  0001e	8b 4d ec	 mov	 ecx, DWORD PTR _this$[ebp]
  00021	e8 00 00 00 00	 call	 ??0Image@Gdiplus@@IAE@XZ ; Gdiplus::Image::Image
  00026	c7 45 fc 00 00
	00 00		 mov	 DWORD PTR __$EHRec$[ebp+8], 0
  0002d	8b 45 ec	 mov	 eax, DWORD PTR _this$[ebp]
  00030	c7 00 00 00 00
	00		 mov	 DWORD PTR [eax], OFFSET FLAT:??_7Bitmap@Gdiplus@@6B@

; 514  :     GpBitmap *bitmap = NULL;

  00036	c7 45 f0 00 00
	00 00		 mov	 DWORD PTR _bitmap$[ebp], 0

; 515  : 
; 516  :     if(useEmbeddedColorManagement) 

  0003d	83 7d 0c 00	 cmp	 DWORD PTR _useEmbeddedColorManagement$[ebp], 0
  00041	74 15		 je	 SHORT $L127031

; 517  :     {
; 518  :         lastResult = DllExports::GdipCreateBitmapFromFileICM(filename, &bitmap);

  00043	8d 4d f0	 lea	 ecx, DWORD PTR _bitmap$[ebp]
  00046	51		 push	 ecx
  00047	8b 55 08	 mov	 edx, DWORD PTR _filename$[ebp]
  0004a	52		 push	 edx
  0004b	e8 00 00 00 00	 call	 _GdipCreateBitmapFromFileICM@8
  00050	8b 4d ec	 mov	 ecx, DWORD PTR _this$[ebp]
  00053	89 41 08	 mov	 DWORD PTR [ecx+8], eax

; 519  :     }
; 520  :     else

  00056	eb 13		 jmp	 SHORT $L127032
$L127031:

; 521  :     {
; 522  :         lastResult = DllExports::GdipCreateBitmapFromFile(filename, &bitmap);

  00058	8d 55 f0	 lea	 edx, DWORD PTR _bitmap$[ebp]
  0005b	52		 push	 edx
  0005c	8b 45 08	 mov	 eax, DWORD PTR _filename$[ebp]
  0005f	50		 push	 eax
  00060	e8 00 00 00 00	 call	 _GdipCreateBitmapFromFile@8
  00065	8b 4d ec	 mov	 ecx, DWORD PTR _this$[ebp]
  00068	89 41 08	 mov	 DWORD PTR [ecx+8], eax
$L127032:

; 523  :     }
; 524  : 
; 525  :     SetNativeImage(bitmap);

  0006b	8b 55 f0	 mov	 edx, DWORD PTR _bitmap$[ebp]
  0006e	52		 push	 edx
  0006f	8b 4d ec	 mov	 ecx, DWORD PTR _this$[ebp]
  00072	e8 00 00 00 00	 call	 ?SetNativeImage@Image@Gdiplus@@IAEXPAVGpImage@2@@Z ; Gdiplus::Image::SetNativeImage

; 526  : }

  00077	c7 45 fc ff ff
	ff ff		 mov	 DWORD PTR __$EHRec$[ebp+8], -1
  0007e	8b 45 ec	 mov	 eax, DWORD PTR _this$[ebp]
  00081	8b 4d f4	 mov	 ecx, DWORD PTR __$EHRec$[ebp]
  00084	64 89 0d 00 00
	00 00		 mov	 DWORD PTR fs:__except_list, ecx
  0008b	8b e5		 mov	 esp, ebp
  0008d	5d		 pop	 ebp
  0008e	c2 08 00	 ret	 8
_TEXT	ENDS
;	COMDAT text$x
text$x	SEGMENT
$L200277:
  00000	8b 4d ec	 mov	 ecx, DWORD PTR _this$[ebp]
  00003	e9 00 00 00 00	 jmp	 ??1Image@Gdiplus@@UAE@XZ ; Gdiplus::Image::~Image
__ehhandler$??0Bitmap@Gdiplus@@QAE@PB_WH@Z:
  00008	b8 00 00 00 00	 mov	 eax, OFFSET FLAT:$T200279
  0000d	e9 00 00 00 00	 jmp	 ___CxxFrameHandler
text$x	ENDS
??0Bitmap@Gdiplus@@QAE@PB_WH@Z ENDP			; Gdiplus::Bitmap::Bitmap
PUBLIC	??_R4Image@Gdiplus@@6B@				; Gdiplus::Image::`RTTI Complete Object Locator'
PUBLIC	??_R3Image@Gdiplus@@8				; Gdiplus::Image::`RTTI Class Hierarchy Descriptor'
PUBLIC	??_R2Image@Gdiplus@@8				; Gdiplus::Image::`RTTI Base Class Array'
PUBLIC	??_7Image@Gdiplus@@6B@				; Gdiplus::Image::`vftable'
PUBLIC	??_GImage@Gdiplus@@UAEPAXI@Z			; Gdiplus::Image::`scalar deleting destructor'
EXTRN	??_EImage@Gdiplus@@UAEPAXI@Z:NEAR		; Gdiplus::Image::`vector deleting destructor'
;	COMDAT ??_7Image@Gdiplus@@6B@
; File d:\program files (x86)\microsoft visual studio .net 2003\vc7\platformsdk\include\gdiplusheaders.h
CONST	SEGMENT
??_7Image@Gdiplus@@6B@ DD FLAT:??_R4Image@Gdiplus@@6B@	; Gdiplus::Image::`vftable'
	DD	FLAT:??_EImage@Gdiplus@@UAEPAXI@Z
	DD	FLAT:?Clone@Image@Gdiplus@@UAEPAV12@XZ
CONST	ENDS
;	COMDAT ??_R4Image@Gdiplus@@6B@
rdata$r	SEGMENT
??_R4Image@Gdiplus@@6B@ DD 00H				; Gdiplus::Image::`RTTI Complete Object Locator'
	DD	00H
	DD	00H
	DD	FLAT:??_R0?AVImage@Gdiplus@@@8
	DD	FLAT:??_R3Image@Gdiplus@@8
rdata$r	ENDS
;	COMDAT ??_R3Image@Gdiplus@@8
rdata$r	SEGMENT
??_R3Image@Gdiplus@@8 DD 00H				; Gdiplus::Image::`RTTI Class Hierarchy Descriptor'
	DD	00H
	DD	02H
	DD	FLAT:??_R2Image@Gdiplus@@8
rdata$r	ENDS
;	COMDAT ??_R2Image@Gdiplus@@8
rdata$r	SEGMENT
??_R2Image@Gdiplus@@8 DD FLAT:??_R1A@?0A@A@Image@Gdiplus@@8 ; Gdiplus::Image::`RTTI Base Class Array'
	DD	FLAT:??_R13?0A@A@GdiplusBase@Gdiplus@@8
; Function compile flags: /Odt
rdata$r	ENDS
;	COMDAT ??0Image@Gdiplus@@IAE@XZ
_TEXT	SEGMENT
_this$ = -4						; size = 4
??0Image@Gdiplus@@IAE@XZ PROC NEAR			; Gdiplus::Image::Image, COMDAT
; _this$ = ecx

; 465  :     Image() {}

  00000	55		 push	 ebp
  00001	8b ec		 mov	 ebp, esp
  00003	51		 push	 ecx
  00004	89 4d fc	 mov	 DWORD PTR _this$[ebp], ecx
  00007	8b 45 fc	 mov	 eax, DWORD PTR _this$[ebp]
  0000a	c7 00 00 00 00
	00		 mov	 DWORD PTR [eax], OFFSET FLAT:??_7Image@Gdiplus@@6B@
  00010	8b 45 fc	 mov	 eax, DWORD PTR _this$[ebp]
  00013	8b e5		 mov	 esp, ebp
  00015	5d		 pop	 ebp
  00016	c3		 ret	 0
??0Image@Gdiplus@@IAE@XZ ENDP				; Gdiplus::Image::Image
; Function compile flags: /Odt
_TEXT	ENDS
;	COMDAT ??_GImage@Gdiplus@@UAEPAXI@Z
_TEXT	SEGMENT
_this$ = -4						; size = 4
___flags$ = 8						; size = 4
??_GImage@Gdiplus@@UAEPAXI@Z PROC NEAR			; Gdiplus::Image::`scalar deleting destructor', COMDAT
; _this$ = ecx
  00000	55		 push	 ebp
  00001	8b ec		 mov	 ebp, esp
  00003	51		 push	 ecx
  00004	89 4d fc	 mov	 DWORD PTR _this$[ebp], ecx
  00007	8b 4d fc	 mov	 ecx, DWORD PTR _this$[ebp]
  0000a	e8 00 00 00 00	 call	 ??1Image@Gdiplus@@UAE@XZ ; Gdiplus::Image::~Image
  0000f	8b 45 08	 mov	 eax, DWORD PTR ___flags$[ebp]
  00012	83 e0 01	 and	 eax, 1
  00015	74 0c		 je	 SHORT $L119539
  00017	8b 4d fc	 mov	 ecx, DWORD PTR _this$[ebp]
  0001a	51		 push	 ecx
  0001b	e8 00 00 00 00	 call	 ??3GdiplusBase@Gdiplus@@SAXPAX@Z ; Gdiplus::GdiplusBase::operator delete
  00020	83 c4 04	 add	 esp, 4
$L119539:
  00023	8b 45 fc	 mov	 eax, DWORD PTR _this$[ebp]
  00026	8b e5		 mov	 esp, ebp
  00028	5d		 pop	 ebp
  00029	c2 04 00	 ret	 4
??_GImage@Gdiplus@@UAEPAXI@Z ENDP			; Gdiplus::Image::`scalar deleting destructor'
_TEXT	ENDS
EXTRN	_GdipDisposeImage@4:NEAR
; Function compile flags: /Odt
; File d:\program files (x86)\microsoft visual studio .net 2003\vc7\platformsdk\include\gdiplusbitmap.h
;	COMDAT ??1Image@Gdiplus@@UAE@XZ
_TEXT	SEGMENT
_this$ = -4						; size = 4
??1Image@Gdiplus@@UAE@XZ PROC NEAR			; Gdiplus::Image::~Image, COMDAT
; _this$ = ecx

; 90   : {

  00000	55		 push	 ebp
  00001	8b ec		 mov	 ebp, esp
  00003	51		 push	 ecx
  00004	89 4d fc	 mov	 DWORD PTR _this$[ebp], ecx
  00007	8b 45 fc	 mov	 eax, DWORD PTR _this$[ebp]
  0000a	c7 00 00 00 00
	00		 mov	 DWORD PTR [eax], OFFSET FLAT:??_7Image@Gdiplus@@6B@

; 91   :     DllExports::GdipDisposeImage(nativeImage);

  00010	8b 4d fc	 mov	 ecx, DWORD PTR _this$[ebp]
  00013	8b 51 04	 mov	 edx, DWORD PTR [ecx+4]
  00016	52		 push	 edx
  00017	e8 00 00 00 00	 call	 _GdipDisposeImage@4

; 92   : }

  0001c	8b e5		 mov	 esp, ebp
  0001e	5d		 pop	 ebp
  0001f	c3		 ret	 0
??1Image@Gdiplus@@UAE@XZ ENDP				; Gdiplus::Image::~Image
_TEXT	ENDS
PUBLIC	??0Image@Gdiplus@@IAE@PAVGpImage@1@W4Status@1@@Z ; Gdiplus::Image::Image
EXTRN	_GdipCloneImage@8:NEAR
;	COMDAT xdata$x
xdata$x	SEGMENT
$T200300 DD	0ffffffffH
	DD	FLAT:$L200296
$T200298 DD	019930520H
	DD	01H
	DD	FLAT:$T200300
	DD	2 DUP(00H)
	DD	2 DUP(00H)
; Function compile flags: /Odt
xdata$x	ENDS
;	COMDAT ?Clone@Image@Gdiplus@@UAEPAV12@XZ
_TEXT	SEGMENT
tv80 = -32						; size = 4
_this$ = -28						; size = 4
$T200293 = -24						; size = 4
$T200292 = -20						; size = 4
_cloneimage$ = -16					; size = 4
__$EHRec$ = -12						; size = 12
?Clone@Image@Gdiplus@@UAEPAV12@XZ PROC NEAR		; Gdiplus::Image::Clone, COMDAT
; _this$ = ecx

; 96   : {

  00000	55		 push	 ebp
  00001	8b ec		 mov	 ebp, esp
  00003	6a ff		 push	 -1
  00005	68 00 00 00 00	 push	 __ehhandler$?Clone@Image@Gdiplus@@UAEPAV12@XZ
  0000a	64 a1 00 00 00
	00		 mov	 eax, DWORD PTR fs:__except_list
  00010	50		 push	 eax
  00011	64 89 25 00 00
	00 00		 mov	 DWORD PTR fs:__except_list, esp
  00018	83 ec 14	 sub	 esp, 20			; 00000014H
  0001b	89 4d e4	 mov	 DWORD PTR _this$[ebp], ecx

; 97   :     GpImage *cloneimage = NULL;

  0001e	c7 45 f0 00 00
	00 00		 mov	 DWORD PTR _cloneimage$[ebp], 0

; 98   : 
; 99   :     SetStatus(DllExports::GdipCloneImage(nativeImage, &cloneimage));

  00025	8d 45 f0	 lea	 eax, DWORD PTR _cloneimage$[ebp]
  00028	50		 push	 eax
  00029	8b 4d e4	 mov	 ecx, DWORD PTR _this$[ebp]
  0002c	8b 51 04	 mov	 edx, DWORD PTR [ecx+4]
  0002f	52		 push	 edx
  00030	e8 00 00 00 00	 call	 _GdipCloneImage@8
  00035	50		 push	 eax
  00036	8b 4d e4	 mov	 ecx, DWORD PTR _this$[ebp]
  00039	e8 00 00 00 00	 call	 ?SetStatus@Image@Gdiplus@@IBE?AW4Status@2@W432@@Z ; Gdiplus::Image::SetStatus

; 100  : 
; 101  :     return new Image(cloneimage, lastResult);

  0003e	6a 10		 push	 16			; 00000010H
  00040	e8 00 00 00 00	 call	 ??2GdiplusBase@Gdiplus@@SAPAXI@Z ; Gdiplus::GdiplusBase::operator new
  00045	83 c4 04	 add	 esp, 4
  00048	89 45 e8	 mov	 DWORD PTR $T200293[ebp], eax
  0004b	c7 45 fc 00 00
	00 00		 mov	 DWORD PTR __$EHRec$[ebp+8], 0
  00052	83 7d e8 00	 cmp	 DWORD PTR $T200293[ebp], 0
  00056	74 18		 je	 SHORT $L200294
  00058	8b 45 e4	 mov	 eax, DWORD PTR _this$[ebp]
  0005b	8b 48 08	 mov	 ecx, DWORD PTR [eax+8]
  0005e	51		 push	 ecx
  0005f	8b 55 f0	 mov	 edx, DWORD PTR _cloneimage$[ebp]
  00062	52		 push	 edx
  00063	8b 4d e8	 mov	 ecx, DWORD PTR $T200293[ebp]
  00066	e8 00 00 00 00	 call	 ??0Image@Gdiplus@@IAE@PAVGpImage@1@W4Status@1@@Z ; Gdiplus::Image::Image
  0006b	89 45 e0	 mov	 DWORD PTR tv80[ebp], eax
  0006e	eb 07		 jmp	 SHORT $L200295
$L200294:
  00070	c7 45 e0 00 00
	00 00		 mov	 DWORD PTR tv80[ebp], 0
$L200295:
  00077	8b 45 e0	 mov	 eax, DWORD PTR tv80[ebp]
  0007a	89 45 ec	 mov	 DWORD PTR $T200292[ebp], eax
  0007d	c7 45 fc ff ff
	ff ff		 mov	 DWORD PTR __$EHRec$[ebp+8], -1
  00084	8b 45 ec	 mov	 eax, DWORD PTR $T200292[ebp]

; 102  : }

  00087	8b 4d f4	 mov	 ecx, DWORD PTR __$EHRec$[ebp]
  0008a	64 89 0d 00 00
	00 00		 mov	 DWORD PTR fs:__except_list, ecx
  00091	8b e5		 mov	 esp, ebp
  00093	5d		 pop	 ebp
  00094	c3		 ret	 0
_TEXT	ENDS
;	COMDAT text$x
text$x	SEGMENT
$L200296:
  00000	8b 45 e8	 mov	 eax, DWORD PTR $T200293[ebp]
  00003	50		 push	 eax
  00004	e8 00 00 00 00	 call	 ??3GdiplusBase@Gdiplus@@SAXPAX@Z ; Gdiplus::GdiplusBase::operator delete
  00009	59		 pop	 ecx
  0000a	c3		 ret	 0
__ehhandler$?Clone@Image@Gdiplus@@UAEPAV12@XZ:
  0000b	b8 00 00 00 00	 mov	 eax, OFFSET FLAT:$T200298
  00010	e9 00 00 00 00	 jmp	 ___CxxFrameHandler
text$x	ENDS
?Clone@Image@Gdiplus@@UAEPAV12@XZ ENDP			; Gdiplus::Image::Clone
; Function compile flags: /Odt
;	COMDAT ??0Image@Gdiplus@@IAE@PAVGpImage@1@W4Status@1@@Z
_TEXT	SEGMENT
_this$ = -4						; size = 4
_nativeImage$ = 8					; size = 4
_status$ = 12						; size = 4
??0Image@Gdiplus@@IAE@PAVGpImage@1@W4Status@1@@Z PROC NEAR ; Gdiplus::Image::Image, COMDAT
; _this$ = ecx

; 497  : {

  00000	55		 push	 ebp
  00001	8b ec		 mov	 ebp, esp
  00003	51		 push	 ecx
  00004	89 4d fc	 mov	 DWORD PTR _this$[ebp], ecx
  00007	8b 45 fc	 mov	 eax, DWORD PTR _this$[ebp]
  0000a	c7 00 00 00 00
	00		 mov	 DWORD PTR [eax], OFFSET FLAT:??_7Image@Gdiplus@@6B@

; 498  :     SetNativeImage(nativeImage);

  00010	8b 4d 08	 mov	 ecx, DWORD PTR _nativeImage$[ebp]
  00013	51		 push	 ecx
  00014	8b 4d fc	 mov	 ecx, DWORD PTR _this$[ebp]
  00017	e8 00 00 00 00	 call	 ?SetNativeImage@Image@Gdiplus@@IAEXPAVGpImage@2@@Z ; Gdiplus::Image::SetNativeImage

; 499  :     lastResult = status;

  0001c	8b 55 fc	 mov	 edx, DWORD PTR _this$[ebp]
  0001f	8b 45 0c	 mov	 eax, DWORD PTR _status$[ebp]
  00022	89 42 08	 mov	 DWORD PTR [edx+8], eax

; 500  : }

  00025	8b 45 fc	 mov	 eax, DWORD PTR _this$[ebp]
  00028	8b e5		 mov	 esp, ebp
  0002a	5d		 pop	 ebp
  0002b	c2 08 00	 ret	 8
??0Image@Gdiplus@@IAE@PAVGpImage@1@W4Status@1@@Z ENDP	; Gdiplus::Image::Image
; Function compile flags: /Odt
_TEXT	ENDS
;	COMDAT ?SetNativeImage@Image@Gdiplus@@IAEXPAVGpImage@2@@Z
_TEXT	SEGMENT
_this$ = -4						; size = 4
_nativeImage$ = 8					; size = 4
?SetNativeImage@Image@Gdiplus@@IAEXPAVGpImage@2@@Z PROC NEAR ; Gdiplus::Image::SetNativeImage, COMDAT
; _this$ = ecx

; 504  : {

  00000	55		 push	 ebp
  00001	8b ec		 mov	 ebp, esp
  00003	51		 push	 ecx
  00004	89 4d fc	 mov	 DWORD PTR _this$[ebp], ecx

; 505  :     this->nativeImage = nativeImage;

  00007	8b 45 fc	 mov	 eax, DWORD PTR _this$[ebp]
  0000a	8b 4d 08	 mov	 ecx, DWORD PTR _nativeImage$[ebp]
  0000d	89 48 04	 mov	 DWORD PTR [eax+4], ecx

; 506  : }

  00010	8b e5		 mov	 esp, ebp
  00012	5d		 pop	 ebp
  00013	c2 04 00	 ret	 4
?SetNativeImage@Image@Gdiplus@@IAEXPAVGpImage@2@@Z ENDP	; Gdiplus::Image::SetNativeImage
_TEXT	ENDS
PUBLIC	??1Bitmap@Gdiplus@@UAE@XZ			; Gdiplus::Bitmap::~Bitmap
; Function compile flags: /Odt
;	COMDAT ??_GBitmap@Gdiplus@@UAEPAXI@Z
_TEXT	SEGMENT
_this$ = -4						; size = 4
___flags$ = 8						; size = 4
??_GBitmap@Gdiplus@@UAEPAXI@Z PROC NEAR			; Gdiplus::Bitmap::`scalar deleting destructor', COMDAT
; _this$ = ecx
  00000	55		 push	 ebp
  00001	8b ec		 mov	 ebp, esp
  00003	51		 push	 ecx
  00004	89 4d fc	 mov	 DWORD PTR _this$[ebp], ecx
  00007	8b 4d fc	 mov	 ecx, DWORD PTR _this$[ebp]
  0000a	e8 00 00 00 00	 call	 ??1Bitmap@Gdiplus@@UAE@XZ
  0000f	8b 45 08	 mov	 eax, DWORD PTR ___flags$[ebp]
  00012	83 e0 01	 and	 eax, 1
  00015	74 0c		 je	 SHORT $L127036
  00017	8b 4d fc	 mov	 ecx, DWORD PTR _this$[ebp]
  0001a	51		 push	 ecx
  0001b	e8 00 00 00 00	 call	 ??3GdiplusBase@Gdiplus@@SAXPAX@Z ; Gdiplus::GdiplusBase::operator delete
  00020	83 c4 04	 add	 esp, 4
$L127036:
  00023	8b 45 fc	 mov	 eax, DWORD PTR _this$[ebp]
  00026	8b e5		 mov	 esp, ebp
  00028	5d		 pop	 ebp
  00029	c2 04 00	 ret	 4
??_GBitmap@Gdiplus@@UAEPAXI@Z ENDP			; Gdiplus::Bitmap::`scalar deleting destructor'
; Function compile flags: /Odt
_TEXT	ENDS
;	COMDAT ??1Bitmap@Gdiplus@@UAE@XZ
_TEXT	SEGMENT
_this$ = -4						; size = 4
??1Bitmap@Gdiplus@@UAE@XZ PROC NEAR			; Gdiplus::Bitmap::~Bitmap, COMDAT
; _this$ = ecx
  00000	55		 push	 ebp
  00001	8b ec		 mov	 ebp, esp
  00003	51		 push	 ecx
  00004	89 4d fc	 mov	 DWORD PTR _this$[ebp], ecx
  00007	8b 4d fc	 mov	 ecx, DWORD PTR _this$[ebp]
  0000a	e8 00 00 00 00	 call	 ??1Image@Gdiplus@@UAE@XZ ; Gdiplus::Image::~Image
  0000f	8b e5		 mov	 esp, ebp
  00011	5d		 pop	 ebp
  00012	c3		 ret	 0
??1Bitmap@Gdiplus@@UAE@XZ ENDP				; Gdiplus::Bitmap::~Bitmap
_TEXT	ENDS
END
