; Listing generated by Microsoft (R) Optimizing Compiler Version 13.10.3077 

	TITLE	.\src\module\TopPanel\TopPanel_Control.cpp
	.386P
include listing.inc
if @Version gt 510
.model FLAT
else
_TEXT	SEGMENT PARA USE32 PUBLIC 'CODE'
_TEXT	ENDS
_DATA	SEGMENT DWORD USE32 PUBLIC 'DATA'
_DATA	ENDS
CONST	SEGMENT DWORD USE32 PUBLIC 'CONST'
CONST	ENDS
_BSS	SEGMENT DWORD USE32 PUBLIC 'BSS'
_BSS	ENDS
$$SYMBOLS	SEGMENT BYTE USE32 'DEBSYM'
$$SYMBOLS	ENDS
$$TYPES	SEGMENT BYTE USE32 'DEBTYP'
$$TYPES	ENDS
_TLS	SEGMENT DWORD USE32 PUBLIC 'TLS'
_TLS	ENDS
;	COMDAT ??_C@_0BD@OLBABOEK@vector?$DMT?$DO?5too?5long?$AA@
CONST	SEGMENT DWORD USE32 PUBLIC 'CONST'
CONST	ENDS
rdata$r	SEGMENT DWORD USE32 PUBLIC 'CONST'
rdata$r	ENDS
xdata$x	SEGMENT DWORD USE32 PUBLIC 'CONST'
xdata$x	ENDS
text$AFX_COL1	SEGMENT PARA USE32 PUBLIC ''
text$AFX_COL1	ENDS
text$yc	SEGMENT PARA USE32 PUBLIC 'CODE'
text$yc	ENDS
CRT$XCA	SEGMENT DWORD USE32 PUBLIC 'DATA'
CRT$XCA	ENDS
CRT$XCU	SEGMENT DWORD USE32 PUBLIC 'DATA'
CRT$XCU	ENDS
CRT$XCL	SEGMENT DWORD USE32 PUBLIC 'DATA'
CRT$XCL	ENDS
CRT$XCC	SEGMENT DWORD USE32 PUBLIC 'DATA'
CRT$XCC	ENDS
CRT$XCZ	SEGMENT DWORD USE32 PUBLIC 'DATA'
CRT$XCZ	ENDS
text$yd	SEGMENT PARA USE32 PUBLIC 'CODE'
text$yd	ENDS
ATL$__m	SEGMENT DWORD USE32 PUBLIC ''
ATL$__m	ENDS
ATL$__z	SEGMENT DWORD USE32 PUBLIC ''
ATL$__z	ENDS
ATL$__a	SEGMENT DWORD USE32 PUBLIC ''
ATL$__a	ENDS
;	COMDAT ??1IData@@MAE@XZ
_TEXT	SEGMENT PARA USE32 PUBLIC 'CODE'
_TEXT	ENDS
;	COMDAT ?DataAppStart@IData@@UAEXXZ
_TEXT	SEGMENT PARA USE32 PUBLIC 'CODE'
_TEXT	ENDS
;	COMDAT ?DataAppExit@IData@@UAEXXZ
_TEXT	SEGMENT PARA USE32 PUBLIC 'CODE'
_TEXT	ENDS
;	COMDAT ??_GIData@@MAEPAXI@Z
_TEXT	SEGMENT PARA USE32 PUBLIC 'CODE'
_TEXT	ENDS
;	COMDAT ??1BCMenuMemDC@@UAE@XZ
_TEXT	SEGMENT PARA USE32 PUBLIC 'CODE'
_TEXT	ENDS
;	COMDAT ??_GBCMenuMemDC@@UAEPAXI@Z
_TEXT	SEGMENT PARA USE32 PUBLIC 'CODE'
_TEXT	ENDS
;	COMDAT ?clear@OneLocalGame@@QAEXXZ
_TEXT	SEGMENT PARA USE32 PUBLIC 'CODE'
_TEXT	ENDS
;	COMDAT _$E5
text$yc	SEGMENT PARA USE32 PUBLIC 'CODE'
text$yc	ENDS
;	COMDAT _$E7
text$yc	SEGMENT PARA USE32 PUBLIC 'CODE'
text$yc	ENDS
;	COMDAT ??_GCTopPanelControl@@AAEPAXI@Z
_TEXT	SEGMENT PARA USE32 PUBLIC 'CODE'
_TEXT	ENDS
;	COMDAT ??B?$CComPtrBase@UITypeInfo2@@@ATL@@QBEPAUITypeInfo2@@XZ
_TEXT	SEGMENT PARA USE32 PUBLIC 'CODE'
_TEXT	ENDS
;	COMDAT ?equal@?$istreambuf_iterator@DU?$char_traits@D@std@@@std@@QBE_NABV12@@Z
_TEXT	SEGMENT PARA USE32 PUBLIC 'CODE'
_TEXT	ENDS
;	COMDAT ?equal@?$istreambuf_iterator@_WU?$char_traits@_W@std@@@std@@QBE_NABV12@@Z
_TEXT	SEGMENT PARA USE32 PUBLIC 'CODE'
_TEXT	ENDS
;	COMDAT ??0?$vector@V?$basic_string@DU?$char_traits@D@std@@V?$allocator@D@2@@std@@V?$allocator@V?$basic_string@DU?$char_traits@D@std@@V?$allocator@D@2@@std@@@2@@std@@QAE@XZ
_TEXT	SEGMENT PARA USE32 PUBLIC 'CODE'
_TEXT	ENDS
;	COMDAT ??1?$vector@V?$basic_string@DU?$char_traits@D@std@@V?$allocator@D@2@@std@@V?$allocator@V?$basic_string@DU?$char_traits@D@std@@V?$allocator@D@2@@std@@@2@@std@@QAE@XZ
_TEXT	SEGMENT PARA USE32 PUBLIC 'CODE'
_TEXT	ENDS
;	COMDAT ?size@?$vector@V?$basic_string@DU?$char_traits@D@std@@V?$allocator@D@2@@std@@V?$allocator@V?$basic_string@DU?$char_traits@D@std@@V?$allocator@D@2@@std@@@2@@std@@QBEIXZ
_TEXT	SEGMENT PARA USE32 PUBLIC 'CODE'
_TEXT	ENDS
;	COMDAT ??A?$vector@V?$basic_string@DU?$char_traits@D@std@@V?$allocator@D@2@@std@@V?$allocator@V?$basic_string@DU?$char_traits@D@std@@V?$allocator@D@2@@std@@@2@@std@@QAEAAV?$basic_string@DU?$char_traits@D@std@@V?$allocator@D@2@@1@I@Z
_TEXT	SEGMENT PARA USE32 PUBLIC 'CODE'
_TEXT	ENDS
;	COMDAT ?push_back@?$vector@V?$basic_string@DU?$char_traits@D@std@@V?$allocator@D@2@@std@@V?$allocator@V?$basic_string@DU?$char_traits@D@std@@V?$allocator@D@2@@std@@@2@@std@@QAEXABV?$basic_string@DU?$char_traits@D@std@@V?$allocator@D@2@@2@@Z
_TEXT	SEGMENT PARA USE32 PUBLIC 'CODE'
_TEXT	ENDS
;	COMDAT ??0?$allocator@V?$basic_string@DU?$char_traits@D@std@@V?$allocator@D@2@@std@@@std@@QAE@XZ
_TEXT	SEGMENT PARA USE32 PUBLIC 'CODE'
_TEXT	ENDS
;	COMDAT ?capacity@?$vector@V?$basic_string@DU?$char_traits@D@std@@V?$allocator@D@2@@std@@V?$allocator@V?$basic_string@DU?$char_traits@D@std@@V?$allocator@D@2@@std@@@2@@std@@QBEIXZ
_TEXT	SEGMENT PARA USE32 PUBLIC 'CODE'
_TEXT	ENDS
;	COMDAT ?begin@?$vector@V?$basic_string@DU?$char_traits@D@std@@V?$allocator@D@2@@std@@V?$allocator@V?$basic_string@DU?$char_traits@D@std@@V?$allocator@D@2@@std@@@2@@std@@QAE?AViterator@12@XZ
_TEXT	SEGMENT PARA USE32 PUBLIC 'CODE'
_TEXT	ENDS
;	COMDAT ?end@?$vector@V?$basic_string@DU?$char_traits@D@std@@V?$allocator@D@2@@std@@V?$allocator@V?$basic_string@DU?$char_traits@D@std@@V?$allocator@D@2@@std@@@2@@std@@QAE?AViterator@12@XZ
_TEXT	SEGMENT PARA USE32 PUBLIC 'CODE'
_TEXT	ENDS
;	COMDAT ?insert@?$vector@V?$basic_string@DU?$char_traits@D@std@@V?$allocator@D@2@@std@@V?$allocator@V?$basic_string@DU?$char_traits@D@std@@V?$allocator@D@2@@std@@@2@@std@@QAE?AViterator@12@V312@ABV?$basic_string@DU?$char_traits@D@std@@V?$allocator@D@2@@2@@Z
_TEXT	SEGMENT PARA USE32 PUBLIC 'CODE'
_TEXT	ENDS
;	COMDAT ?_Buy@?$vector@V?$basic_string@DU?$char_traits@D@std@@V?$allocator@D@2@@std@@V?$allocator@V?$basic_string@DU?$char_traits@D@std@@V?$allocator@D@2@@std@@@2@@std@@IAE_NI@Z
_TEXT	SEGMENT PARA USE32 PUBLIC 'CODE'
_TEXT	ENDS
;	COMDAT ?_Tidy@?$vector@V?$basic_string@DU?$char_traits@D@std@@V?$allocator@D@2@@std@@V?$allocator@V?$basic_string@DU?$char_traits@D@std@@V?$allocator@D@2@@std@@@2@@std@@IAEXXZ
_TEXT	SEGMENT PARA USE32 PUBLIC 'CODE'
_TEXT	ENDS
;	COMDAT ?_Ufill@?$vector@V?$basic_string@DU?$char_traits@D@std@@V?$allocator@D@2@@std@@V?$allocator@V?$basic_string@DU?$char_traits@D@std@@V?$allocator@D@2@@std@@@2@@std@@IAEPAV?$basic_string@DU?$char_traits@D@std@@V?$allocator@D@2@@2@PAV32@IABV32@@Z
_TEXT	SEGMENT PARA USE32 PUBLIC 'CODE'
_TEXT	ENDS
;	COMDAT ??0?$_Vector_val@V?$basic_string@DU?$char_traits@D@std@@V?$allocator@D@2@@std@@V?$allocator@V?$basic_string@DU?$char_traits@D@std@@V?$allocator@D@2@@std@@@2@@std@@IAE@V?$allocator@V?$basic_string@DU?$char_traits@D@std@@V?$allocator@D@2@@std@@@1@@Z
_TEXT	SEGMENT PARA USE32 PUBLIC 'CODE'
_TEXT	ENDS
;	COMDAT ??Diterator@?$vector@V?$basic_string@DU?$char_traits@D@std@@V?$allocator@D@2@@std@@V?$allocator@V?$basic_string@DU?$char_traits@D@std@@V?$allocator@D@2@@std@@@2@@std@@QBEAAV?$basic_string@DU?$char_traits@D@std@@V?$allocator@D@2@@2@XZ
_TEXT	SEGMENT PARA USE32 PUBLIC 'CODE'
_TEXT	ENDS
;	COMDAT ??Hiterator@?$vector@V?$basic_string@DU?$char_traits@D@std@@V?$allocator@D@2@@std@@V?$allocator@V?$basic_string@DU?$char_traits@D@std@@V?$allocator@D@2@@std@@@2@@std@@QBE?AV012@H@Z
_TEXT	SEGMENT PARA USE32 PUBLIC 'CODE'
_TEXT	ENDS
;	COMDAT ??0?$allocator@V?$basic_string@DU?$char_traits@D@std@@V?$allocator@D@2@@std@@@std@@QAE@ABV01@@Z
_TEXT	SEGMENT PARA USE32 PUBLIC 'CODE'
_TEXT	ENDS
;	COMDAT ?deallocate@?$allocator@V?$basic_string@DU?$char_traits@D@std@@V?$allocator@D@2@@std@@@std@@QAEXPAV?$basic_string@DU?$char_traits@D@std@@V?$allocator@D@2@@2@I@Z
_TEXT	SEGMENT PARA USE32 PUBLIC 'CODE'
_TEXT	ENDS
;	COMDAT ?allocate@?$allocator@V?$basic_string@DU?$char_traits@D@std@@V?$allocator@D@2@@std@@@std@@QAEPAV?$basic_string@DU?$char_traits@D@std@@V?$allocator@D@2@@2@I@Z
_TEXT	SEGMENT PARA USE32 PUBLIC 'CODE'
_TEXT	ENDS
;	COMDAT ??0iterator@?$basic_string@DU?$char_traits@D@std@@V?$allocator@D@2@@std@@QAE@PAD@Z
_TEXT	SEGMENT PARA USE32 PUBLIC 'CODE'
_TEXT	ENDS
;	COMDAT ?max_size@?$vector@V?$basic_string@DU?$char_traits@D@std@@V?$allocator@D@2@@std@@V?$allocator@V?$basic_string@DU?$char_traits@D@std@@V?$allocator@D@2@@std@@@2@@std@@QBEIXZ
_TEXT	SEGMENT PARA USE32 PUBLIC 'CODE'
_TEXT	ENDS
;	COMDAT ?_Destroy@?$vector@V?$basic_string@DU?$char_traits@D@std@@V?$allocator@D@2@@std@@V?$allocator@V?$basic_string@DU?$char_traits@D@std@@V?$allocator@D@2@@std@@@2@@std@@IAEXPAV?$basic_string@DU?$char_traits@D@std@@V?$allocator@D@2@@2@0@Z
_TEXT	SEGMENT PARA USE32 PUBLIC 'CODE'
_TEXT	ENDS
;	COMDAT ?_Insert_n@?$vector@V?$basic_string@DU?$char_traits@D@std@@V?$allocator@D@2@@std@@V?$allocator@V?$basic_string@DU?$char_traits@D@std@@V?$allocator@D@2@@std@@@2@@std@@IAEXViterator@12@IABV?$basic_string@DU?$char_traits@D@std@@V?$allocator@D@2@@2@@Z
_TEXT	SEGMENT PARA USE32 PUBLIC 'CODE'
_TEXT	ENDS
;	COMDAT ?_Xlen@?$vector@V?$basic_string@DU?$char_traits@D@std@@V?$allocator@D@2@@std@@V?$allocator@V?$basic_string@DU?$char_traits@D@std@@V?$allocator@D@2@@std@@@2@@std@@IBEXXZ
_TEXT	SEGMENT PARA USE32 PUBLIC 'CODE'
_TEXT	ENDS
;	COMDAT ??0iterator@?$vector@V?$basic_string@DU?$char_traits@D@std@@V?$allocator@D@2@@std@@V?$allocator@V?$basic_string@DU?$char_traits@D@std@@V?$allocator@D@2@@std@@@2@@std@@QAE@PAV?$basic_string@DU?$char_traits@D@std@@V?$allocator@D@2@@2@@Z
_TEXT	SEGMENT PARA USE32 PUBLIC 'CODE'
_TEXT	ENDS
;	COMDAT ??Yiterator@?$vector@V?$basic_string@DU?$char_traits@D@std@@V?$allocator@D@2@@std@@V?$allocator@V?$basic_string@DU?$char_traits@D@std@@V?$allocator@D@2@@std@@@2@@std@@QAEAAV012@H@Z
_TEXT	SEGMENT PARA USE32 PUBLIC 'CODE'
_TEXT	ENDS
;	COMDAT ??Giterator@?$vector@V?$basic_string@DU?$char_traits@D@std@@V?$allocator@D@2@@std@@V?$allocator@V?$basic_string@DU?$char_traits@D@std@@V?$allocator@D@2@@std@@@2@@std@@QBEHABVconst_iterator@12@@Z
_TEXT	SEGMENT PARA USE32 PUBLIC 'CODE'
_TEXT	ENDS
;	COMDAT ??Dconst_iterator@?$vector@V?$basic_string@DU?$char_traits@D@std@@V?$allocator@D@2@@std@@V?$allocator@V?$basic_string@DU?$char_traits@D@std@@V?$allocator@D@2@@std@@@2@@std@@QBEABV?$basic_string@DU?$char_traits@D@std@@V?$allocator@D@2@@2@XZ
_TEXT	SEGMENT PARA USE32 PUBLIC 'CODE'
_TEXT	ENDS
;	COMDAT ??0length_error@std@@QAE@ABV01@@Z
_TEXT	SEGMENT PARA USE32 PUBLIC 'CODE'
_TEXT	ENDS
;	COMDAT ?max_size@?$allocator@V?$basic_string@DU?$char_traits@D@std@@V?$allocator@D@2@@std@@@std@@QBEIXZ
_TEXT	SEGMENT PARA USE32 PUBLIC 'CODE'
_TEXT	ENDS
;	COMDAT ??0const_iterator@?$basic_string@DU?$char_traits@D@std@@V?$allocator@D@2@@std@@QAE@PBD@Z
_TEXT	SEGMENT PARA USE32 PUBLIC 'CODE'
_TEXT	ENDS
;	COMDAT ??Gconst_iterator@?$basic_string@DU?$char_traits@D@std@@V?$allocator@D@2@@std@@QBEHABV012@@Z
_TEXT	SEGMENT PARA USE32 PUBLIC 'CODE'
_TEXT	ENDS
;	COMDAT ??0const_iterator@?$vector@V?$basic_string@DU?$char_traits@D@std@@V?$allocator@D@2@@std@@V?$allocator@V?$basic_string@DU?$char_traits@D@std@@V?$allocator@D@2@@std@@@2@@std@@QAE@PAV?$basic_string@DU?$char_traits@D@std@@V?$allocator@D@2@@2@@Z
_TEXT	SEGMENT PARA USE32 PUBLIC 'CODE'
_TEXT	ENDS
;	COMDAT ??Gconst_iterator@?$vector@V?$basic_string@DU?$char_traits@D@std@@V?$allocator@D@2@@std@@V?$allocator@V?$basic_string@DU?$char_traits@D@std@@V?$allocator@D@2@@std@@@2@@std@@QBEHABV012@@Z
_TEXT	SEGMENT PARA USE32 PUBLIC 'CODE'
_TEXT	ENDS
;	COMDAT ?Unlock@?$CComCritSecLock@VCComCriticalSection@ATL@@@ATL@@QAEXXZ
_TEXT	SEGMENT PARA USE32 PUBLIC 'CODE'
_TEXT	ENDS
;	COMDAT ??1?$CArray@HAAH@@UAE@XZ
_TEXT	SEGMENT PARA USE32 PUBLIC 'CODE'
_TEXT	ENDS
;	COMDAT ?Serialize@?$CArray@HAAH@@UAEXAAVCArchive@@@Z
_TEXT	SEGMENT PARA USE32 PUBLIC 'CODE'
_TEXT	ENDS
;	COMDAT ??$_Uninitialized_fill_n@PAV?$basic_string@DU?$char_traits@D@std@@V?$allocator@D@2@@std@@IV12@V?$allocator@V?$basic_string@DU?$char_traits@D@std@@V?$allocator@D@2@@std@@@2@@std@@YAXPAV?$basic_string@DU?$char_traits@D@std@@V?$allocator@D@2@@0@IABV10@AAV?$allocator@V?$basic_string@DU?$char_traits@D@std@@V?$allocator@D@2@@std@@@0@@Z
_TEXT	SEGMENT PARA USE32 PUBLIC 'CODE'
_TEXT	ENDS
;	COMDAT ??$_Maklocstr@D@std@@YAPADPBDPADABU_Cvtvec@@@Z
_TEXT	SEGMENT PARA USE32 PUBLIC 'CODE'
_TEXT	ENDS
;	COMDAT ??$_Allocate@V?$basic_string@DU?$char_traits@D@std@@V?$allocator@D@2@@std@@@std@@YAPAV?$basic_string@DU?$char_traits@D@std@@V?$allocator@D@2@@0@IPAV10@@Z
_TEXT	SEGMENT PARA USE32 PUBLIC 'CODE'
_TEXT	ENDS
;	COMDAT ??$_Destroy_range@V?$basic_string@DU?$char_traits@D@std@@V?$allocator@D@2@@std@@V?$allocator@V?$basic_string@DU?$char_traits@D@std@@V?$allocator@D@2@@std@@@2@@std@@YAXPAV?$basic_string@DU?$char_traits@D@std@@V?$allocator@D@2@@0@0AAV?$allocator@V?$basic_string@DU?$char_traits@D@std@@V?$allocator@D@2@@std@@@0@@Z
_TEXT	SEGMENT PARA USE32 PUBLIC 'CODE'
_TEXT	ENDS
;	COMDAT ??$_Ucopy@PAV?$basic_string@DU?$char_traits@D@std@@V?$allocator@D@2@@std@@@?$vector@V?$basic_string@DU?$char_traits@D@std@@V?$allocator@D@2@@std@@V?$allocator@V?$basic_string@DU?$char_traits@D@std@@V?$allocator@D@2@@std@@@2@@std@@IAEPAV?$basic_string@DU?$char_traits@D@std@@V?$allocator@D@2@@1@PAV21@00@Z
_TEXT	SEGMENT PARA USE32 PUBLIC 'CODE'
_TEXT	ENDS
;	COMDAT ??$fill@PAV?$basic_string@DU?$char_traits@D@std@@V?$allocator@D@2@@std@@V12@@std@@YAXPAV?$basic_string@DU?$char_traits@D@std@@V?$allocator@D@2@@0@0ABV10@@Z
_TEXT	SEGMENT PARA USE32 PUBLIC 'CODE'
_TEXT	ENDS
;	COMDAT ??$copy_backward@PAV?$basic_string@DU?$char_traits@D@std@@V?$allocator@D@2@@std@@PAV12@@std@@YAPAV?$basic_string@DU?$char_traits@D@std@@V?$allocator@D@2@@0@PAV10@00@Z
_TEXT	SEGMENT PARA USE32 PUBLIC 'CODE'
_TEXT	ENDS
;	COMDAT ??_G?$CArray@HAAH@@UAEPAXI@Z
_TEXT	SEGMENT PARA USE32 PUBLIC 'CODE'
_TEXT	ENDS
;	COMDAT ?SetSize@?$CArray@HAAH@@QAEXHH@Z
_TEXT	SEGMENT PARA USE32 PUBLIC 'CODE'
_TEXT	ENDS
;	COMDAT ??$SerializeElements@H@@YGXAAVCArchive@@PAHH@Z
_TEXT	SEGMENT PARA USE32 PUBLIC 'CODE'
_TEXT	ENDS
;	COMDAT ??$_Ptr_cat@PAV?$basic_string@DU?$char_traits@D@std@@V?$allocator@D@2@@std@@PAV12@@std@@YA?AU_Nonscalar_ptr_iterator_tag@0@AAPAV?$basic_string@DU?$char_traits@D@std@@V?$allocator@D@2@@0@0@Z
_TEXT	SEGMENT PARA USE32 PUBLIC 'CODE'
_TEXT	ENDS
;	COMDAT ??$_Uninit_fill_n@PAV?$basic_string@DU?$char_traits@D@std@@V?$allocator@D@2@@std@@IV12@V?$allocator@V?$basic_string@DU?$char_traits@D@std@@V?$allocator@D@2@@std@@@2@@std@@YAXPAV?$basic_string@DU?$char_traits@D@std@@V?$allocator@D@2@@0@IABV10@AAV?$allocator@V?$basic_string@DU?$char_traits@D@std@@V?$allocator@D@2@@std@@@0@U_Nonscalar_ptr_iterator_tag@0@@Z
_TEXT	SEGMENT PARA USE32 PUBLIC 'CODE'
_TEXT	ENDS
;	COMDAT ??$_Destroy_range@V?$basic_string@DU?$char_traits@D@std@@V?$allocator@D@2@@std@@V?$allocator@V?$basic_string@DU?$char_traits@D@std@@V?$allocator@D@2@@std@@@2@@std@@YAXPAV?$basic_string@DU?$char_traits@D@std@@V?$allocator@D@2@@0@0AAV?$allocator@V?$basic_string@DU?$char_traits@D@std@@V?$allocator@D@2@@std@@@0@U_Nonscalar_ptr_iterator_tag@0@@Z
_TEXT	SEGMENT PARA USE32 PUBLIC 'CODE'
_TEXT	ENDS
;	COMDAT ??$_Uninitialized_copy@PAV?$basic_string@DU?$char_traits@D@std@@V?$allocator@D@2@@std@@PAV12@V?$allocator@V?$basic_string@DU?$char_traits@D@std@@V?$allocator@D@2@@std@@@2@@std@@YAPAV?$basic_string@DU?$char_traits@D@std@@V?$allocator@D@2@@0@PAV10@00AAV?$allocator@V?$basic_string@DU?$char_traits@D@std@@V?$allocator@D@2@@std@@@0@@Z
_TEXT	SEGMENT PARA USE32 PUBLIC 'CODE'
_TEXT	ENDS
;	COMDAT ??$_Copy_backward_opt@PAV?$basic_string@DU?$char_traits@D@std@@V?$allocator@D@2@@std@@PAV12@@std@@YAPAV?$basic_string@DU?$char_traits@D@std@@V?$allocator@D@2@@0@PAV10@00U_Nonscalar_ptr_iterator_tag@0@@Z
_TEXT	SEGMENT PARA USE32 PUBLIC 'CODE'
_TEXT	ENDS
;	COMDAT ?construct@?$allocator@V?$basic_string@DU?$char_traits@D@std@@V?$allocator@D@2@@std@@@std@@QAEXPAV?$basic_string@DU?$char_traits@D@std@@V?$allocator@D@2@@2@ABV32@@Z
_TEXT	SEGMENT PARA USE32 PUBLIC 'CODE'
_TEXT	ENDS
;	COMDAT ?destroy@?$allocator@V?$basic_string@DU?$char_traits@D@std@@V?$allocator@D@2@@std@@@std@@QAEXPAV?$basic_string@DU?$char_traits@D@std@@V?$allocator@D@2@@2@@Z
_TEXT	SEGMENT PARA USE32 PUBLIC 'CODE'
_TEXT	ENDS
;	COMDAT ??$_Uninit_copy@PAV?$basic_string@DU?$char_traits@D@std@@V?$allocator@D@2@@std@@PAV12@V?$allocator@V?$basic_string@DU?$char_traits@D@std@@V?$allocator@D@2@@std@@@2@@std@@YAPAV?$basic_string@DU?$char_traits@D@std@@V?$allocator@D@2@@0@PAV10@00AAV?$allocator@V?$basic_string@DU?$char_traits@D@std@@V?$allocator@D@2@@std@@@0@U_Nonscalar_ptr_iterator_tag@0@@Z
_TEXT	SEGMENT PARA USE32 PUBLIC 'CODE'
_TEXT	ENDS
;	COMDAT ??$_Construct@V?$basic_string@DU?$char_traits@D@std@@V?$allocator@D@2@@std@@V12@@std@@YAXPAV?$basic_string@DU?$char_traits@D@std@@V?$allocator@D@2@@0@ABV10@@Z
_TEXT	SEGMENT PARA USE32 PUBLIC 'CODE'
_TEXT	ENDS
;	COMDAT ??$_Destroy@V?$basic_string@DU?$char_traits@D@std@@V?$allocator@D@2@@std@@@std@@YAXPAV?$basic_string@DU?$char_traits@D@std@@V?$allocator@D@2@@0@@Z
_TEXT	SEGMENT PARA USE32 PUBLIC 'CODE'
_TEXT	ENDS
;	COMDAT ??_G?$basic_string@DU?$char_traits@D@std@@V?$allocator@D@2@@std@@QAEPAXI@Z
_TEXT	SEGMENT PARA USE32 PUBLIC 'CODE'
_TEXT	ENDS
;	COMDAT ??_R3IData@@8
rdata$r	SEGMENT DWORD USE32 PUBLIC 'CONST'
rdata$r	ENDS
;	COMDAT ??_R3?$CArray@HAAH@@8
rdata$r	SEGMENT DWORD USE32 PUBLIC 'CONST'
rdata$r	ENDS
;	COMDAT ??_R3BCMenuMemDC@@8
rdata$r	SEGMENT DWORD USE32 PUBLIC 'CONST'
rdata$r	ENDS
;	COMDAT ??_R3?$numpunct@_W@std@@8
rdata$r	SEGMENT DWORD USE32 PUBLIC 'CONST'
rdata$r	ENDS
;	COMDAT ??_R3?$numpunct@D@std@@8
rdata$r	SEGMENT DWORD USE32 PUBLIC 'CONST'
rdata$r	ENDS
;	COMDAT ??_R2IData@@8
rdata$r	SEGMENT DWORD USE32 PUBLIC 'CONST'
rdata$r	ENDS
;	COMDAT ??_R2?$CArray@HAAH@@8
rdata$r	SEGMENT DWORD USE32 PUBLIC 'CONST'
rdata$r	ENDS
;	COMDAT ??_R2BCMenuMemDC@@8
rdata$r	SEGMENT DWORD USE32 PUBLIC 'CONST'
rdata$r	ENDS
;	COMDAT ??_R2?$numpunct@_W@std@@8
rdata$r	SEGMENT DWORD USE32 PUBLIC 'CONST'
rdata$r	ENDS
;	COMDAT ??_R2?$numpunct@D@std@@8
rdata$r	SEGMENT DWORD USE32 PUBLIC 'CONST'
rdata$r	ENDS
;	COMDAT ??_R1A@?0A@A@IData@@8
rdata$r	SEGMENT DWORD USE32 PUBLIC 'CONST'
rdata$r	ENDS
;	COMDAT ??_R1A@?0A@A@?$CArray@HAAH@@8
rdata$r	SEGMENT DWORD USE32 PUBLIC 'CONST'
rdata$r	ENDS
;	COMDAT ??_R1A@?0A@A@CObject@@8
rdata$r	SEGMENT DWORD USE32 PUBLIC 'CONST'
rdata$r	ENDS
;	COMDAT ??_R0?AVCObject@@@8
_DATA	SEGMENT DWORD USE32 PUBLIC 'DATA'
_DATA	ENDS
;	COMDAT ??_R1A@?0A@A@CDC@@8
rdata$r	SEGMENT DWORD USE32 PUBLIC 'CONST'
rdata$r	ENDS
;	COMDAT ??_R0?AVCDC@@@8
_DATA	SEGMENT DWORD USE32 PUBLIC 'DATA'
_DATA	ENDS
;	COMDAT ??_R1A@?0A@A@BCMenuMemDC@@8
rdata$r	SEGMENT DWORD USE32 PUBLIC 'CONST'
rdata$r	ENDS
;	COMDAT ??_R1A@?0A@A@?$numpunct@_W@std@@8
rdata$r	SEGMENT DWORD USE32 PUBLIC 'CONST'
rdata$r	ENDS
;	COMDAT ??_R1A@?0A@A@facet@locale@std@@8
rdata$r	SEGMENT DWORD USE32 PUBLIC 'CONST'
rdata$r	ENDS
;	COMDAT ??_R0?AVfacet@locale@std@@@8
_DATA	SEGMENT DWORD USE32 PUBLIC 'DATA'
_DATA	ENDS
;	COMDAT ??_R1A@?0A@A@?$numpunct@D@std@@8
rdata$r	SEGMENT DWORD USE32 PUBLIC 'CONST'
rdata$r	ENDS
;	COMDAT ??_R0?AVIData@@@8
_DATA	SEGMENT DWORD USE32 PUBLIC 'DATA'
_DATA	ENDS
;	COMDAT ??_R0?AV?$CArray@HAAH@@@8
_DATA	SEGMENT DWORD USE32 PUBLIC 'DATA'
_DATA	ENDS
;	COMDAT ??_R0?AVBCMenuMemDC@@@8
_DATA	SEGMENT DWORD USE32 PUBLIC 'DATA'
_DATA	ENDS
;	COMDAT ??_R0?AV?$numpunct@_W@std@@@8
_DATA	SEGMENT DWORD USE32 PUBLIC 'DATA'
_DATA	ENDS
;	COMDAT ??_R0?AV?$numpunct@D@std@@@8
_DATA	SEGMENT DWORD USE32 PUBLIC 'DATA'
_DATA	ENDS
;	COMDAT ??_R4IData@@6B@
rdata$r	SEGMENT DWORD USE32 PUBLIC 'CONST'
rdata$r	ENDS
;	COMDAT ??_R4?$CArray@HAAH@@6B@
rdata$r	SEGMENT DWORD USE32 PUBLIC 'CONST'
rdata$r	ENDS
;	COMDAT ?Escape@CDC@@UAEHHHPBDPAX@Z
_TEXT	SEGMENT PARA USE32 PUBLIC 'CODE'
_TEXT	ENDS
;	COMDAT ?GrayStringA@CDC@@UAEHPAVCBrush@@P6GHPAUHDC__@@JH@ZJHHHHH@Z
_TEXT	SEGMENT PARA USE32 PUBLIC 'CODE'
_TEXT	ENDS
;	COMDAT ?GetSafeHandle@CGdiObject@@QBEPAXXZ
_TEXT	SEGMENT PARA USE32 PUBLIC 'CODE'
_TEXT	ENDS
;	COMDAT ?DrawTextExA@CDC@@UAEHPADHPAUtagRECT@@IPAUtagDRAWTEXTPARAMS@@@Z
_TEXT	SEGMENT PARA USE32 PUBLIC 'CODE'
_TEXT	ENDS
;	COMDAT ?DrawTextA@CDC@@UAEHPBDHPAUtagRECT@@I@Z
_TEXT	SEGMENT PARA USE32 PUBLIC 'CODE'
_TEXT	ENDS
;	COMDAT ?TabbedTextOutA@CDC@@UAE?AVCSize@@HHPBDHHPAHH@Z
_TEXT	SEGMENT PARA USE32 PUBLIC 'CODE'
_TEXT	ENDS
;	COMDAT ??0CSize@@QAE@K@Z
_TEXT	SEGMENT PARA USE32 PUBLIC 'CODE'
_TEXT	ENDS
;	COMDAT ?ExtTextOutA@CDC@@UAEHHHIPBUtagRECT@@PBDIPAH@Z
_TEXT	SEGMENT PARA USE32 PUBLIC 'CODE'
_TEXT	ENDS
;	COMDAT ?TextOutA@CDC@@UAEHHHPBDH@Z
_TEXT	SEGMENT PARA USE32 PUBLIC 'CODE'
_TEXT	ENDS
;	COMDAT ?RectVisible@CDC@@UBEHPBUtagRECT@@@Z
_TEXT	SEGMENT PARA USE32 PUBLIC 'CODE'
_TEXT	ENDS
;	COMDAT ?PtVisible@CDC@@UBEHHH@Z
_TEXT	SEGMENT PARA USE32 PUBLIC 'CODE'
_TEXT	ENDS
;	COMDAT ?Dump@CObject@@UBEXAAVCDumpContext@@@Z
_TEXT	SEGMENT PARA USE32 PUBLIC 'CODE'
_TEXT	ENDS
;	COMDAT ?AssertValid@CObject@@UBEXXZ
_TEXT	SEGMENT PARA USE32 PUBLIC 'CODE'
_TEXT	ENDS
;	COMDAT ??_R4BCMenuMemDC@@6B@
rdata$r	SEGMENT DWORD USE32 PUBLIC 'CONST'
rdata$r	ENDS
;	COMDAT ??0?$allocator@_W@std@@QAE@XZ
_TEXT	SEGMENT PARA USE32 PUBLIC 'CODE'
_TEXT	ENDS
;	COMDAT ??_G?$numpunct@_W@std@@MAEPAXI@Z
_TEXT	SEGMENT PARA USE32 PUBLIC 'CODE'
_TEXT	ENDS
;	COMDAT ??_R4?$numpunct@_W@std@@6B@
rdata$r	SEGMENT DWORD USE32 PUBLIC 'CONST'
rdata$r	ENDS
;	COMDAT ??_G?$numpunct@D@std@@MAEPAXI@Z
_TEXT	SEGMENT PARA USE32 PUBLIC 'CODE'
_TEXT	ENDS
;	COMDAT ??_R4?$numpunct@D@std@@6B@
rdata$r	SEGMENT DWORD USE32 PUBLIC 'CONST'
rdata$r	ENDS
;	COMDAT ??3@YAXPAX0@Z
_TEXT	SEGMENT PARA USE32 PUBLIC 'CODE'
_TEXT	ENDS
;	COMDAT ??2@YAPAXIPAX@Z
_TEXT	SEGMENT PARA USE32 PUBLIC 'CODE'
_TEXT	ENDS
;	COMDAT ?max_size@?$allocator@D@std@@QBEIXZ
_TEXT	SEGMENT PARA USE32 PUBLIC 'CODE'
_TEXT	ENDS
;	COMDAT ?allocate@?$allocator@D@std@@QAEPADI@Z
_TEXT	SEGMENT PARA USE32 PUBLIC 'CODE'
_TEXT	ENDS
;	COMDAT ??$_Allocate@D@std@@YAPADIPAD@Z
_TEXT	SEGMENT PARA USE32 PUBLIC 'CODE'
_TEXT	ENDS
;	COMDAT ?deallocate@?$allocator@D@std@@QAEXPADI@Z
_TEXT	SEGMENT PARA USE32 PUBLIC 'CODE'
_TEXT	ENDS
;	COMDAT ?IsStoring@CArchive@@QBEHXZ
_TEXT	SEGMENT PARA USE32 PUBLIC 'CODE'
_TEXT	ENDS
;	COMDAT ?Serialize@CObject@@UAEXAAVCArchive@@@Z
_TEXT	SEGMENT PARA USE32 PUBLIC 'CODE'
_TEXT	ENDS
;	COMDAT ??1CObject@@UAE@XZ
_TEXT	SEGMENT PARA USE32 PUBLIC 'CODE'
_TEXT	ENDS
;	COMDAT ??_7?$CArray@HAAH@@6B@
CONST	SEGMENT DWORD USE32 PUBLIC 'CONST'
CONST	ENDS
;	COMDAT ?_Psave@?$_Facetptr@V?$numpunct@_W@std@@@std@@2PBVfacet@locale@2@B
_DATA	SEGMENT DWORD USE32 PUBLIC 'DATA'
_DATA	ENDS
;	COMDAT ?_Psave@?$_Facetptr@V?$numpunct@D@std@@@std@@2PBVfacet@locale@2@B
_DATA	SEGMENT DWORD USE32 PUBLIC 'DATA'
_DATA	ENDS
;	COMDAT ?Unlock@CComCriticalSection@ATL@@QAEJXZ
_TEXT	SEGMENT PARA USE32 PUBLIC 'CODE'
_TEXT	ENDS
;	COMDAT ?_Psave@?$_Facetptr@V?$ctype@_W@std@@@std@@2PBVfacet@locale@2@B
_DATA	SEGMENT DWORD USE32 PUBLIC 'DATA'
_DATA	ENDS
;	COMDAT ?_Psave@?$_Facetptr@V?$ctype@D@std@@@std@@2PBVfacet@locale@2@B
_DATA	SEGMENT DWORD USE32 PUBLIC 'DATA'
_DATA	ENDS
;	COMDAT ??_7length_error@std@@6B@
CONST	SEGMENT DWORD USE32 PUBLIC 'CONST'
CONST	ENDS
;	COMDAT ??_R4length_error@std@@6B@
rdata$r	SEGMENT DWORD USE32 PUBLIC 'CONST'
rdata$r	ENDS
;	COMDAT ??_R3length_error@std@@8
rdata$r	SEGMENT DWORD USE32 PUBLIC 'CONST'
rdata$r	ENDS
;	COMDAT ??_R2length_error@std@@8
rdata$r	SEGMENT DWORD USE32 PUBLIC 'CONST'
rdata$r	ENDS
;	COMDAT ??_R1A@?0A@A@length_error@std@@8
rdata$r	SEGMENT DWORD USE32 PUBLIC 'CONST'
rdata$r	ENDS
;	COMDAT ??_R1A@?0A@A@logic_error@std@@8
rdata$r	SEGMENT DWORD USE32 PUBLIC 'CONST'
rdata$r	ENDS
;	COMDAT ??_R0?AVlogic_error@std@@@8
_DATA	SEGMENT DWORD USE32 PUBLIC 'DATA'
_DATA	ENDS
;	COMDAT ??_R1A@?0A@A@exception@@8
rdata$r	SEGMENT DWORD USE32 PUBLIC 'CONST'
rdata$r	ENDS
;	COMDAT ??_R0?AVexception@@@8
_DATA	SEGMENT DWORD USE32 PUBLIC 'DATA'
_DATA	ENDS
;	COMDAT ??_Glength_error@std@@UAEPAXI@Z
_TEXT	SEGMENT PARA USE32 PUBLIC 'CODE'
_TEXT	ENDS
;	COMDAT ?what@logic_error@std@@UBEPBDXZ
_TEXT	SEGMENT PARA USE32 PUBLIC 'CODE'
_TEXT	ENDS
;	COMDAT ??1logic_error@std@@UAE@XZ
_TEXT	SEGMENT PARA USE32 PUBLIC 'CODE'
_TEXT	ENDS
;	COMDAT ??_7logic_error@std@@6B@
CONST	SEGMENT DWORD USE32 PUBLIC 'CONST'
CONST	ENDS
;	COMDAT ??_R4logic_error@std@@6B@
rdata$r	SEGMENT DWORD USE32 PUBLIC 'CONST'
rdata$r	ENDS
;	COMDAT ??_R3logic_error@std@@8
rdata$r	SEGMENT DWORD USE32 PUBLIC 'CONST'
rdata$r	ENDS
;	COMDAT ??_R2logic_error@std@@8
rdata$r	SEGMENT DWORD USE32 PUBLIC 'CONST'
rdata$r	ENDS
;	COMDAT ??_Glogic_error@std@@UAEPAXI@Z
_TEXT	SEGMENT PARA USE32 PUBLIC 'CODE'
_TEXT	ENDS
;	COMDAT ??0logic_error@std@@QAE@ABV01@@Z
_TEXT	SEGMENT PARA USE32 PUBLIC 'CODE'
_TEXT	ENDS
;	COMDAT __CTA3?AVlength_error@std@@
xdata$x	SEGMENT DWORD USE32 PUBLIC 'CONST'
xdata$x	ENDS
;	COMDAT ??1length_error@std@@UAE@XZ
_TEXT	SEGMENT PARA USE32 PUBLIC 'CODE'
_TEXT	ENDS
;	COMDAT __CT??_R0?AVexception@@@8??0exception@@QAE@ABV0@@Z12
xdata$x	SEGMENT DWORD USE32 PUBLIC 'CONST'
xdata$x	ENDS
;	COMDAT __CT??_R0?AVlogic_error@std@@@8??0logic_error@std@@QAE@ABV01@@Z40
xdata$x	SEGMENT DWORD USE32 PUBLIC 'CONST'
xdata$x	ENDS
;	COMDAT __CT??_R0?AVlength_error@std@@@8??0length_error@std@@QAE@ABV01@@Z40
xdata$x	SEGMENT DWORD USE32 PUBLIC 'CONST'
xdata$x	ENDS
;	COMDAT ??_R0?AVlength_error@std@@@8
_DATA	SEGMENT DWORD USE32 PUBLIC 'DATA'
_DATA	ENDS
;	COMDAT __TI3?AVlength_error@std@@
xdata$x	SEGMENT DWORD USE32 PUBLIC 'CONST'
xdata$x	ENDS
;	COMDAT ??0length_error@std@@QAE@ABV?$basic_string@DU?$char_traits@D@std@@V?$allocator@D@2@@1@@Z
_TEXT	SEGMENT PARA USE32 PUBLIC 'CODE'
_TEXT	ENDS
;	COMDAT ??0logic_error@std@@QAE@ABV?$basic_string@DU?$char_traits@D@std@@V?$allocator@D@2@@1@@Z
_TEXT	SEGMENT PARA USE32 PUBLIC 'CODE'
_TEXT	ENDS
;	COMDAT ??0?$allocator@D@std@@QAE@ABV01@@Z
_TEXT	SEGMENT PARA USE32 PUBLIC 'CODE'
_TEXT	ENDS
;	COMDAT ??$_Maklocchr@_W@std@@YA_WDPA_WABU_Cvtvec@@@Z
_TEXT	SEGMENT PARA USE32 PUBLIC 'CODE'
_TEXT	ENDS
;	COMDAT ??$_Maklocstr@_W@std@@YAPA_WPBDPA_WABU_Cvtvec@@@Z
_TEXT	SEGMENT PARA USE32 PUBLIC 'CODE'
_TEXT	ENDS
;	COMDAT ??$_Maklocchr@D@std@@YADDPADABU_Cvtvec@@@Z
_TEXT	SEGMENT PARA USE32 PUBLIC 'CODE'
_TEXT	ENDS
;	COMDAT ??_C@_04LOAJBDKD@true?$AA@
CONST	SEGMENT DWORD USE32 PUBLIC 'CONST'
CONST	ENDS
;	COMDAT ??_C@_05LAPONLG@false?$AA@
CONST	SEGMENT DWORD USE32 PUBLIC 'CONST'
CONST	ENDS
;	COMDAT _wmemcpy
_TEXT	SEGMENT PARA USE32 PUBLIC 'CODE'
_TEXT	ENDS
;	COMDAT ?max_size@?$allocator@_W@std@@QBEIXZ
_TEXT	SEGMENT PARA USE32 PUBLIC 'CODE'
_TEXT	ENDS
;	COMDAT ?allocate@?$allocator@_W@std@@QAEPA_WI@Z
_TEXT	SEGMENT PARA USE32 PUBLIC 'CODE'
_TEXT	ENDS
;	COMDAT ??$_Allocate@_W@std@@YAPA_WIPA_W@Z
_TEXT	SEGMENT PARA USE32 PUBLIC 'CODE'
_TEXT	ENDS
;	COMDAT ??_C@_01GFHCPBMG@C?$AA@
CONST	SEGMENT DWORD USE32 PUBLIC 'CONST'
CONST	ENDS
;	COMDAT ?_Peek@?$istreambuf_iterator@_WU?$char_traits@_W@std@@@std@@AAE_WXZ
_TEXT	SEGMENT PARA USE32 PUBLIC 'CODE'
_TEXT	ENDS
;	COMDAT ?_Peek@?$istreambuf_iterator@DU?$char_traits@D@std@@@std@@AAEDXZ
_TEXT	SEGMENT PARA USE32 PUBLIC 'CODE'
_TEXT	ENDS
;	COMDAT ??$use_facet@V?$ctype@_W@std@@@std@@YAABV?$ctype@_W@0@ABVlocale@0@@Z
_TEXT	SEGMENT PARA USE32 PUBLIC 'CODE'
_TEXT	ENDS
;	COMDAT ??_S?$ctype@_W@std@@6B@
CONST	SEGMENT DWORD USE32 PUBLIC 'CONST'
CONST	ENDS
;	COMDAT ??_R4?$ctype@_W@std@@6B@
rdata$r	SEGMENT DWORD USE32 PUBLIC 'CONST'
rdata$r	ENDS
;	COMDAT ??_R0?AV?$ctype@_W@std@@@8
_DATA	SEGMENT DWORD USE32 PUBLIC 'DATA'
_DATA	ENDS
;	COMDAT ??_R3?$ctype@_W@std@@8
rdata$r	SEGMENT DWORD USE32 PUBLIC 'CONST'
rdata$r	ENDS
;	COMDAT ??_R2?$ctype@_W@std@@8
rdata$r	SEGMENT DWORD USE32 PUBLIC 'CONST'
rdata$r	ENDS
;	COMDAT ??_R1A@?0A@A@?$ctype@_W@std@@8
rdata$r	SEGMENT DWORD USE32 PUBLIC 'CONST'
rdata$r	ENDS
;	COMDAT ??_R1A@?0A@A@ctype_base@std@@8
rdata$r	SEGMENT DWORD USE32 PUBLIC 'CONST'
rdata$r	ENDS
;	COMDAT ??_R0?AUctype_base@std@@@8
_DATA	SEGMENT DWORD USE32 PUBLIC 'DATA'
_DATA	ENDS
;	COMDAT ??_G?$ctype@_W@std@@MAEPAXI@Z
_TEXT	SEGMENT PARA USE32 PUBLIC 'CODE'
_TEXT	ENDS
;	COMDAT ??_C@_08EPJLHIJG@bad?5cast?$AA@
CONST	SEGMENT DWORD USE32 PUBLIC 'CONST'
CONST	ENDS
;	COMDAT __TI2?AVbad_cast@@
xdata$x	SEGMENT DWORD USE32 PUBLIC 'CONST'
xdata$x	ENDS
;	COMDAT __CTA2?AVbad_cast@@
xdata$x	SEGMENT DWORD USE32 PUBLIC 'CONST'
xdata$x	ENDS
;	COMDAT __CT??_R0?AVbad_cast@@@8??0bad_cast@@QAE@ABV0@@Z12
xdata$x	SEGMENT DWORD USE32 PUBLIC 'CONST'
xdata$x	ENDS
;	COMDAT ??_R0?AVbad_cast@@@8
_DATA	SEGMENT DWORD USE32 PUBLIC 'DATA'
_DATA	ENDS
;	COMDAT ??$use_facet@V?$ctype@D@std@@@std@@YAABV?$ctype@D@0@ABVlocale@0@@Z
_TEXT	SEGMENT PARA USE32 PUBLIC 'CODE'
_TEXT	ENDS
;	COMDAT ??_S?$ctype@D@std@@6B@
CONST	SEGMENT DWORD USE32 PUBLIC 'CONST'
CONST	ENDS
;	COMDAT ??_R4?$ctype@D@std@@6B@
rdata$r	SEGMENT DWORD USE32 PUBLIC 'CONST'
rdata$r	ENDS
;	COMDAT ??_R0?AV?$ctype@D@std@@@8
_DATA	SEGMENT DWORD USE32 PUBLIC 'DATA'
_DATA	ENDS
;	COMDAT ??_R3?$ctype@D@std@@8
rdata$r	SEGMENT DWORD USE32 PUBLIC 'CONST'
rdata$r	ENDS
;	COMDAT ??_R2?$ctype@D@std@@8
rdata$r	SEGMENT DWORD USE32 PUBLIC 'CONST'
rdata$r	ENDS
;	COMDAT ??_R1A@?0A@A@?$ctype@D@std@@8
rdata$r	SEGMENT DWORD USE32 PUBLIC 'CONST'
rdata$r	ENDS
;	COMDAT ??_G?$ctype@D@std@@MAEPAXI@Z
_TEXT	SEGMENT PARA USE32 PUBLIC 'CODE'
_TEXT	ENDS
;	COMDAT ??_S?$numpunct@_W@std@@6B@
CONST	SEGMENT DWORD USE32 PUBLIC 'CONST'
CONST	ENDS
;	COMDAT ??_S?$numpunct@D@std@@6B@
CONST	SEGMENT DWORD USE32 PUBLIC 'CONST'
CONST	ENDS
;	COMDAT _wmemmove
_TEXT	SEGMENT PARA USE32 PUBLIC 'CODE'
_TEXT	ENDS
;	COMDAT ?deallocate@?$allocator@_W@std@@QAEXPA_WI@Z
_TEXT	SEGMENT PARA USE32 PUBLIC 'CODE'
_TEXT	ENDS
;	COMDAT ??0?$allocator@_W@std@@QAE@ABV01@@Z
_TEXT	SEGMENT PARA USE32 PUBLIC 'CODE'
_TEXT	ENDS
;	COMDAT ??$?HDU?$char_traits@D@std@@V?$allocator@D@1@@std@@YA?AV?$basic_string@DU?$char_traits@D@std@@V?$allocator@D@2@@0@ABV10@0@Z
_TEXT	SEGMENT PARA USE32 PUBLIC 'CODE'
_TEXT	ENDS
;	COMDAT ??$?HDU?$char_traits@D@std@@V?$allocator@D@1@@std@@YA?AV?$basic_string@DU?$char_traits@D@std@@V?$allocator@D@2@@0@ABV10@PBD@Z
_TEXT	SEGMENT PARA USE32 PUBLIC 'CODE'
_TEXT	ENDS
;	COMDAT ??0?$allocator@D@std@@QAE@XZ
_TEXT	SEGMENT PARA USE32 PUBLIC 'CODE'
_TEXT	ENDS
;	COMDAT ??3CObject@@SGXPAX@Z
_TEXT	SEGMENT PARA USE32 PUBLIC 'CODE'
_TEXT	ENDS
;	COMDAT ?BitBlt@CDC@@QAEHHHHHPAV1@HHK@Z
_TEXT	SEGMENT PARA USE32 PUBLIC 'CODE'
_TEXT	ENDS
;	COMDAT ?GetSafeHdc@CDC@@QBEPAUHDC__@@XZ
_TEXT	SEGMENT PARA USE32 PUBLIC 'CODE'
_TEXT	ENDS
;	COMDAT ?SelectObject@CDC@@QAEPAVCBitmap@@PAV2@@Z
_TEXT	SEGMENT PARA USE32 PUBLIC 'CODE'
_TEXT	ENDS
;	COMDAT ?Width@CRect@@QBEHXZ
_TEXT	SEGMENT PARA USE32 PUBLIC 'CODE'
_TEXT	ENDS
;	COMDAT ?Height@CRect@@QBEHXZ
_TEXT	SEGMENT PARA USE32 PUBLIC 'CODE'
_TEXT	ENDS
;	COMDAT ?CreateCompatibleBitmap@CBitmap@@QAEHPAVCDC@@HH@Z
_TEXT	SEGMENT PARA USE32 PUBLIC 'CODE'
_TEXT	ENDS
;	COMDAT ?CreateCompatibleDC@CDC@@QAEHPAV1@@Z
_TEXT	SEGMENT PARA USE32 PUBLIC 'CODE'
_TEXT	ENDS
;	COMDAT ?IsPrinting@CDC@@QBEHXZ
_TEXT	SEGMENT PARA USE32 PUBLIC 'CODE'
_TEXT	ENDS
;	COMDAT ?CopyRect@CRect@@QAEXPBUtagRECT@@@Z
_TEXT	SEGMENT PARA USE32 PUBLIC 'CODE'
_TEXT	ENDS
;	COMDAT ??0CRect@@QAE@XZ
_TEXT	SEGMENT PARA USE32 PUBLIC 'CODE'
_TEXT	ENDS
;	COMDAT ??1CBitmap@@UAE@XZ
_TEXT	SEGMENT PARA USE32 PUBLIC 'CODE'
_TEXT	ENDS
;	COMDAT ??_7CBitmap@@6B@
CONST	SEGMENT DWORD USE32 PUBLIC 'CONST'
CONST	ENDS
;	COMDAT ??_R4CBitmap@@6B@
rdata$r	SEGMENT DWORD USE32 PUBLIC 'CONST'
rdata$r	ENDS
;	COMDAT ??_R0?AVCBitmap@@@8
_DATA	SEGMENT DWORD USE32 PUBLIC 'DATA'
_DATA	ENDS
;	COMDAT ??_R3CBitmap@@8
rdata$r	SEGMENT DWORD USE32 PUBLIC 'CONST'
rdata$r	ENDS
;	COMDAT ??_R2CBitmap@@8
rdata$r	SEGMENT DWORD USE32 PUBLIC 'CONST'
rdata$r	ENDS
;	COMDAT ??_R1A@?0A@A@CBitmap@@8
rdata$r	SEGMENT DWORD USE32 PUBLIC 'CONST'
rdata$r	ENDS
;	COMDAT ??_R1A@?0A@A@CGdiObject@@8
rdata$r	SEGMENT DWORD USE32 PUBLIC 'CONST'
rdata$r	ENDS
;	COMDAT ??_R0?AVCGdiObject@@@8
_DATA	SEGMENT DWORD USE32 PUBLIC 'DATA'
_DATA	ENDS
;	COMDAT ??_GCBitmap@@UAEPAXI@Z
_TEXT	SEGMENT PARA USE32 PUBLIC 'CODE'
_TEXT	ENDS
;	COMDAT ??1CGdiObject@@UAE@XZ
_TEXT	SEGMENT PARA USE32 PUBLIC 'CODE'
_TEXT	ENDS
;	COMDAT ??_7CGdiObject@@6B@
CONST	SEGMENT DWORD USE32 PUBLIC 'CONST'
CONST	ENDS
;	COMDAT ??_R4CGdiObject@@6B@
rdata$r	SEGMENT DWORD USE32 PUBLIC 'CONST'
rdata$r	ENDS
;	COMDAT ??_R3CGdiObject@@8
rdata$r	SEGMENT DWORD USE32 PUBLIC 'CONST'
rdata$r	ENDS
;	COMDAT ??_R2CGdiObject@@8
rdata$r	SEGMENT DWORD USE32 PUBLIC 'CONST'
rdata$r	ENDS
;	COMDAT ??_GCGdiObject@@UAEPAXI@Z
_TEXT	SEGMENT PARA USE32 PUBLIC 'CODE'
_TEXT	ENDS
;	COMDAT ??0CBitmap@@QAE@XZ
_TEXT	SEGMENT PARA USE32 PUBLIC 'CODE'
_TEXT	ENDS
;	COMDAT ??0CGdiObject@@QAE@XZ
_TEXT	SEGMENT PARA USE32 PUBLIC 'CODE'
_TEXT	ENDS
;	COMDAT ??0CObject@@IAE@XZ
_TEXT	SEGMENT PARA USE32 PUBLIC 'CODE'
_TEXT	ENDS
;	COMDAT ??_7BCMenuMemDC@@6B@
CONST	SEGMENT DWORD USE32 PUBLIC 'CONST'
CONST	ENDS
;	COMDAT ??_7IData@@6B@
CONST	SEGMENT DWORD USE32 PUBLIC 'CONST'
CONST	ENDS
sxdata	SEGMENT DWORD USE32 'SXDATA'
sxdata	ENDS
FLAT	GROUP _DATA, CONST, _BSS
	ASSUME	CS: FLAT, DS: FLAT, SS: FLAT
endif

INCLUDELIB MSVCRT
INCLUDELIB OLDNAMES

PUBLIC	?m_pTopPanelControl@CTopPanelControl@@2PAV1@A	; CTopPanelControl::m_pTopPanelControl
_BSS	SEGMENT
?m_pTopPanelControl@CTopPanelControl@@2PAV1@A DD 01H DUP (?) ; CTopPanelControl::m_pTopPanelControl
_BSS	ENDS
CONST	SEGMENT
$SG200117 DB	'int', 00H
CONST	ENDS
_DATA	SEGMENT
_TYPE_CONFIG_INT DD FLAT:$SG200117
_DATA	ENDS
CONST	SEGMENT
$SG200119 DB	'str', 00H
CONST	ENDS
_DATA	SEGMENT
_TYPE_CONFIG_STR DD FLAT:$SG200119
_DATA	ENDS
CONST	SEGMENT
$SG200121 DB	'double', 00H
CONST	ENDS
_DATA	SEGMENT
_TYPE_CONFIG_DOUBLE DD FLAT:$SG200121
_DATA	ENDS
CONST	SEGMENT
	ORG $+1
$SG200123 DB	'bool', 00H
CONST	ENDS
_DATA	SEGMENT
_TYPE_CONFIG_BOOL DD FLAT:$SG200123
_DATA	ENDS
CONST	SEGMENT
	ORG $+3
$SG200125 DB	'sepint', 00H
CONST	ENDS
_DATA	SEGMENT
_TYPE_CONFIG_INT_HASSEP DD FLAT:$SG200125
_DATA	ENDS
CONST	SEGMENT
	ORG $+1
$SG200127 DB	'sepstr', 00H
CONST	ENDS
_DATA	SEGMENT
_TYPE_CONFIG_STR_HASSEP DD FLAT:$SG200127
_DATA	ENDS
CONST	SEGMENT
	ORG $+1
$SG200129 DB	'sepdouble', 00H
CONST	ENDS
_DATA	SEGMENT
_TYPE_CONFIG_DOUBLE_HASSEP DD FLAT:$SG200129
_DATA	ENDS
CONST	SEGMENT
	ORG $+2
$SG200131 DB	'sepbool', 00H
CONST	ENDS
_DATA	SEGMENT
_TYPE_CONFIG_BOOL_HASSEP DD FLAT:$SG200131
_DATA	ENDS
CONST	SEGMENT
$SG200133 DB	'App', 00H
CONST	ENDS
_DATA	SEGMENT
_CONF_APP_MODULE_NAME DD FLAT:$SG200133
_DATA	ENDS
CONST	SEGMENT
$SG200135 DB	'SwfPath', 00H
CONST	ENDS
_DATA	SEGMENT
_CONF_APP_SWF_PATH DD FLAT:$SG200135
_DATA	ENDS
CONST	SEGMENT
$SG200137 DB	'MainWndHold', 00H
CONST	ENDS
_DATA	SEGMENT
_CONF_APP_MAINWND_HOLD DD FLAT:$SG200137
_DATA	ENDS
CONST	SEGMENT
$SG200139 DB	'RunCount', 00H
CONST	ENDS
_DATA	SEGMENT
_CONF_APP_RUN_COUNT DD FLAT:$SG200139
_DATA	ENDS
CONST	SEGMENT
	ORG $+3
$SG200141 DB	'PlayedGame', 00H
CONST	ENDS
_DATA	SEGMENT
_CONF_APP_PLAYED_GAME DD FLAT:$SG200141
_DATA	ENDS
CONST	SEGMENT
	ORG $+1
$SG200143 DB	'playedPcGame', 00H
CONST	ENDS
_DATA	SEGMENT
_CONF_APP_PLAYED_PC_GAME DD FLAT:$SG200143
_DATA	ENDS
CONST	SEGMENT
	ORG $+3
$SG200145 DB	'PlayedIconSize', 00H
CONST	ENDS
_DATA	SEGMENT
_CONF_APP_PLAYED_ICON_SIZE DD FLAT:$SG200145
_DATA	ENDS
CONST	SEGMENT
	ORG $+1
$SG200147 DB	'PictureSavePath', 00H
CONST	ENDS
_DATA	SEGMENT
_CONF_APP_PIC_SAVE_PATH DD FLAT:$SG200147
_DATA	ENDS
CONST	SEGMENT
$SG200154 DB	'Setting', 00H
CONST	ENDS
_DATA	SEGMENT
_CONF_SETTING_MODULE_NAME DD FLAT:$SG200154
_DATA	ENDS
CONST	SEGMENT
$SG200156 DB	'skin', 00H
CONST	ENDS
_DATA	SEGMENT
_CONF_SETTING_SKIN_IDX DD FLAT:$SG200156
_DATA	ENDS
CONST	SEGMENT
	ORG $+3
$SG200158 DB	'MainPage', 00H
CONST	ENDS
_DATA	SEGMENT
_CONF_SETTING_CONFIG_MAIN_PAGE DD FLAT:$SG200158
_DATA	ENDS
CONST	SEGMENT
	ORG $+3
$SG200160 DB	'ProblemReport', 00H
CONST	ENDS
_DATA	SEGMENT
_CONF_SETTING_CONFIG_PROBLEM_REPORT DD FLAT:$SG200160
_DATA	ENDS
CONST	SEGMENT
	ORG $+2
$SG200162 DB	'HomePage', 00H
CONST	ENDS
_DATA	SEGMENT
_CONF_SETTING_CONFIG_HOME_PAGE DD FLAT:$SG200162
_DATA	ENDS
CONST	SEGMENT
	ORG $+3
$SG200164 DB	'askexit', 00H
CONST	ENDS
_DATA	SEGMENT
_CONF_SETTING_CONFIG_IFASKEXIT DD FLAT:$SG200164
_DATA	ENDS
CONST	SEGMENT
$SG200166 DB	'exitchoice', 00H
CONST	ENDS
_DATA	SEGMENT
_CONF_SETTING_CONFIG_EXITCHOICE DD FLAT:$SG200166
_DATA	ENDS
CONST	SEGMENT
	ORG $+1
$SG200168 DB	'UN', 00H
CONST	ENDS
_DATA	SEGMENT
_CONF_SETTING_LOGIN_USER_NAME DD FLAT:$SG200168
_DATA	ENDS
CONST	SEGMENT
	ORG $+1
$SG200170 DB	'PW', 00H
CONST	ENDS
_DATA	SEGMENT
_CONF_SETTING_LOGIN_PASSWORD DD FLAT:$SG200170
_DATA	ENDS
CONST	SEGMENT
	ORG $+1
$SG200172 DB	'NetID', 00H
CONST	ENDS
_DATA	SEGMENT
_CONF_SETTING_NETID DD FLAT:$SG200172
_DATA	ENDS
CONST	SEGMENT
	ORG $+2
$SG200174 DB	'ChangeColorValue', 00H
CONST	ENDS
_DATA	SEGMENT
_CONF_SETTING_COLOR DD FLAT:$SG200174
_DATA	ENDS
CONST	SEGMENT
	ORG $+3
$SG200176 DB	'changeColorLight', 00H
CONST	ENDS
_DATA	SEGMENT
_CONF_SETTING_LIGHT DD FLAT:$SG200176
_DATA	ENDS
CONST	SEGMENT
	ORG $+3
$SG200178 DB	'ColorIndex', 00H
CONST	ENDS
_DATA	SEGMENT
_CONF_SETTING_COLOR_BTN_INDEX DD FLAT:$SG200178
_DATA	ENDS
CONST	SEGMENT
	ORG $+1
$SG200180 DB	'ColorUser', 00H
CONST	ENDS
_DATA	SEGMENT
_CONF_SETTING_COLOR_USER DD FLAT:$SG200180
_DATA	ENDS
CONST	SEGMENT
	ORG $+2
$SG200182 DB	'FirstTimeChangeSkin', 00H
CONST	ENDS
_DATA	SEGMENT
_CONF_SETTING_FIRST_TIME_CHANGESKIN DD FLAT:$SG200182
_DATA	ENDS
CONST	SEGMENT
$SG200364 DB	'\skin\', 00H
	ORG $+1
$SG200376 DB	'\skin.jpg', 00H
	ORG $+2
_ID_DATA_PANELCHANGE DD 05H
CONST	ENDS
PUBLIC	??0CTopPanelControl@@AAE@XZ			; CTopPanelControl::CTopPanelControl
; Function compile flags: /Odt
; File d:\boxgit\playbox\playbox\dev\prj\playbox\src\module\toppanel\toppanel_control.cpp
_TEXT	SEGMENT
_this$ = -4						; size = 4
??0CTopPanelControl@@AAE@XZ PROC NEAR			; CTopPanelControl::CTopPanelControl
; _this$ = ecx

; 16   : {

  00000	55		 push	 ebp
  00001	8b ec		 mov	 ebp, esp
  00003	51		 push	 ecx
  00004	89 4d fc	 mov	 DWORD PTR _this$[ebp], ecx

; 17   : }

  00007	8b 45 fc	 mov	 eax, DWORD PTR _this$[ebp]
  0000a	8b e5		 mov	 esp, ebp
  0000c	5d		 pop	 ebp
  0000d	c3		 ret	 0
??0CTopPanelControl@@AAE@XZ ENDP			; CTopPanelControl::CTopPanelControl
_TEXT	ENDS
PUBLIC	??1CTopPanelControl@@AAE@XZ			; CTopPanelControl::~CTopPanelControl
; Function compile flags: /Odt
_TEXT	SEGMENT
_this$ = -4						; size = 4
??1CTopPanelControl@@AAE@XZ PROC NEAR			; CTopPanelControl::~CTopPanelControl
; _this$ = ecx

; 20   : {

  00010	55		 push	 ebp
  00011	8b ec		 mov	 ebp, esp
  00013	51		 push	 ecx
  00014	89 4d fc	 mov	 DWORD PTR _this$[ebp], ecx

; 21   : }

  00017	8b e5		 mov	 esp, ebp
  00019	5d		 pop	 ebp
  0001a	c3		 ret	 0
??1CTopPanelControl@@AAE@XZ ENDP			; CTopPanelControl::~CTopPanelControl
_TEXT	ENDS
PUBLIC	?GetInstance@CTopPanelControl@@SAPAV1@XZ	; CTopPanelControl::GetInstance
EXTRN	??2@YAPAXI@Z:NEAR				; operator new
EXTRN	??3@YAXPAX@Z:NEAR				; operator delete
EXTRN	__except_list:DWORD
EXTRN	___CxxFrameHandler:NEAR
xdata$x	SEGMENT
$T201696 DD	0ffffffffH
	DD	FLAT:$L201689
$T201693 DD	019930520H
	DD	01H
	DD	FLAT:$T201696
	DD	2 DUP(00H)
	DD	2 DUP(00H)
; Function compile flags: /Odt
xdata$x	ENDS
_TEXT	SEGMENT
tv72 = -24						; size = 4
$T201686 = -20						; size = 4
$T201685 = -16						; size = 4
__$EHRec$ = -12						; size = 12
?GetInstance@CTopPanelControl@@SAPAV1@XZ PROC NEAR	; CTopPanelControl::GetInstance

; 24   : {

  00020	55		 push	 ebp
  00021	8b ec		 mov	 ebp, esp
  00023	6a ff		 push	 -1
  00025	68 00 00 00 00	 push	 __ehhandler$?GetInstance@CTopPanelControl@@SAPAV1@XZ
  0002a	64 a1 00 00 00
	00		 mov	 eax, DWORD PTR fs:__except_list
  00030	50		 push	 eax
  00031	64 89 25 00 00
	00 00		 mov	 DWORD PTR fs:__except_list, esp
  00038	83 ec 0c	 sub	 esp, 12			; 0000000cH

; 25   : 	if( m_pTopPanelControl == NULL )

  0003b	83 3d 00 00 00
	00 00		 cmp	 DWORD PTR ?m_pTopPanelControl@CTopPanelControl@@2PAV1@A, 0 ; CTopPanelControl::m_pTopPanelControl
  00042	75 44		 jne	 SHORT $L200325

; 26   : 	{
; 27   : 		m_pTopPanelControl = new CTopPanelControl();

  00044	6a 04		 push	 4
  00046	e8 00 00 00 00	 call	 ??2@YAPAXI@Z		; operator new
  0004b	83 c4 04	 add	 esp, 4
  0004e	89 45 ec	 mov	 DWORD PTR $T201686[ebp], eax
  00051	c7 45 fc 00 00
	00 00		 mov	 DWORD PTR __$EHRec$[ebp+8], 0
  00058	83 7d ec 00	 cmp	 DWORD PTR $T201686[ebp], 0
  0005c	74 0d		 je	 SHORT $L201687
  0005e	8b 4d ec	 mov	 ecx, DWORD PTR $T201686[ebp]
  00061	e8 00 00 00 00	 call	 ??0CTopPanelControl@@AAE@XZ ; CTopPanelControl::CTopPanelControl
  00066	89 45 e8	 mov	 DWORD PTR tv72[ebp], eax
  00069	eb 07		 jmp	 SHORT $L201688
$L201687:
  0006b	c7 45 e8 00 00
	00 00		 mov	 DWORD PTR tv72[ebp], 0
$L201688:
  00072	8b 45 e8	 mov	 eax, DWORD PTR tv72[ebp]
  00075	89 45 f0	 mov	 DWORD PTR $T201685[ebp], eax
  00078	c7 45 fc ff ff
	ff ff		 mov	 DWORD PTR __$EHRec$[ebp+8], -1
  0007f	8b 4d f0	 mov	 ecx, DWORD PTR $T201685[ebp]
  00082	89 0d 00 00 00
	00		 mov	 DWORD PTR ?m_pTopPanelControl@CTopPanelControl@@2PAV1@A, ecx ; CTopPanelControl::m_pTopPanelControl
$L200325:

; 28   : 	}
; 29   : 	return m_pTopPanelControl;

  00088	a1 00 00 00 00	 mov	 eax, DWORD PTR ?m_pTopPanelControl@CTopPanelControl@@2PAV1@A ; CTopPanelControl::m_pTopPanelControl

; 30   : }

  0008d	8b 4d f4	 mov	 ecx, DWORD PTR __$EHRec$[ebp]
  00090	64 89 0d 00 00
	00 00		 mov	 DWORD PTR fs:__except_list, ecx
  00097	8b e5		 mov	 esp, ebp
  00099	5d		 pop	 ebp
  0009a	c3		 ret	 0
_TEXT	ENDS
text$x	SEGMENT
$L201689:
  00000	8b 45 ec	 mov	 eax, DWORD PTR $T201686[ebp]
  00003	50		 push	 eax
  00004	e8 00 00 00 00	 call	 ??3@YAXPAX@Z		; operator delete
  00009	59		 pop	 ecx
  0000a	c3		 ret	 0
__ehhandler$?GetInstance@CTopPanelControl@@SAPAV1@XZ:
  0000b	b8 00 00 00 00	 mov	 eax, OFFSET FLAT:$T201693
  00010	e9 00 00 00 00	 jmp	 ___CxxFrameHandler
text$x	ENDS
?GetInstance@CTopPanelControl@@SAPAV1@XZ ENDP		; CTopPanelControl::GetInstance
PUBLIC	?DeleteInstance@CTopPanelControl@@SAXXZ		; CTopPanelControl::DeleteInstance
PUBLIC	??_GCTopPanelControl@@AAEPAXI@Z			; CTopPanelControl::`scalar deleting destructor'
; Function compile flags: /Odt
_TEXT	SEGMENT
tv69 = -12						; size = 4
$T201700 = -8						; size = 4
$T201699 = -4						; size = 4
?DeleteInstance@CTopPanelControl@@SAXXZ PROC NEAR	; CTopPanelControl::DeleteInstance

; 33   : {

  000a0	55		 push	 ebp
  000a1	8b ec		 mov	 ebp, esp
  000a3	83 ec 0c	 sub	 esp, 12			; 0000000cH

; 34   : 	if( m_pTopPanelControl != NULL )

  000a6	83 3d 00 00 00
	00 00		 cmp	 DWORD PTR ?m_pTopPanelControl@CTopPanelControl@@2PAV1@A, 0 ; CTopPanelControl::m_pTopPanelControl
  000ad	74 2a		 je	 SHORT $L200331

; 35   : 	{
; 36   : 		delete m_pTopPanelControl;

  000af	a1 00 00 00 00	 mov	 eax, DWORD PTR ?m_pTopPanelControl@CTopPanelControl@@2PAV1@A ; CTopPanelControl::m_pTopPanelControl
  000b4	89 45 f8	 mov	 DWORD PTR $T201700[ebp], eax
  000b7	8b 4d f8	 mov	 ecx, DWORD PTR $T201700[ebp]
  000ba	89 4d fc	 mov	 DWORD PTR $T201699[ebp], ecx
  000bd	83 7d fc 00	 cmp	 DWORD PTR $T201699[ebp], 0
  000c1	74 0f		 je	 SHORT $L201701
  000c3	6a 01		 push	 1
  000c5	8b 4d fc	 mov	 ecx, DWORD PTR $T201699[ebp]
  000c8	e8 00 00 00 00	 call	 ??_GCTopPanelControl@@AAEPAXI@Z
  000cd	89 45 f4	 mov	 DWORD PTR tv69[ebp], eax
  000d0	eb 07		 jmp	 SHORT $L200331
$L201701:
  000d2	c7 45 f4 00 00
	00 00		 mov	 DWORD PTR tv69[ebp], 0
$L200331:

; 37   : 	}
; 38   : }

  000d9	8b e5		 mov	 esp, ebp
  000db	5d		 pop	 ebp
  000dc	c3		 ret	 0
?DeleteInstance@CTopPanelControl@@SAXXZ ENDP		; CTopPanelControl::DeleteInstance
; Function compile flags: /Odt
_TEXT	ENDS
;	COMDAT ??_GCTopPanelControl@@AAEPAXI@Z
_TEXT	SEGMENT
_this$ = -4						; size = 4
___flags$ = 8						; size = 4
??_GCTopPanelControl@@AAEPAXI@Z PROC NEAR		; CTopPanelControl::`scalar deleting destructor', COMDAT
; _this$ = ecx
  00000	55		 push	 ebp
  00001	8b ec		 mov	 ebp, esp
  00003	51		 push	 ecx
  00004	89 4d fc	 mov	 DWORD PTR _this$[ebp], ecx
  00007	8b 4d fc	 mov	 ecx, DWORD PTR _this$[ebp]
  0000a	e8 00 00 00 00	 call	 ??1CTopPanelControl@@AAE@XZ ; CTopPanelControl::~CTopPanelControl
  0000f	8b 45 08	 mov	 eax, DWORD PTR ___flags$[ebp]
  00012	83 e0 01	 and	 eax, 1
  00015	74 0c		 je	 SHORT $L200338
  00017	8b 4d fc	 mov	 ecx, DWORD PTR _this$[ebp]
  0001a	51		 push	 ecx
  0001b	e8 00 00 00 00	 call	 ??3@YAXPAX@Z		; operator delete
  00020	83 c4 04	 add	 esp, 4
$L200338:
  00023	8b 45 fc	 mov	 eax, DWORD PTR _this$[ebp]
  00026	8b e5		 mov	 esp, ebp
  00028	5d		 pop	 ebp
  00029	c2 04 00	 ret	 4
??_GCTopPanelControl@@AAEPAXI@Z ENDP			; CTopPanelControl::`scalar deleting destructor'
_TEXT	ENDS
PUBLIC	?DoMin@CTopPanelControl@@QAEXXZ			; CTopPanelControl::DoMin
EXTRN	?AfxGetDataManager2@@YAPAVIDataManager@@XZ:NEAR	; AfxGetDataManager2
; Function compile flags: /Odt
_TEXT	SEGMENT
tv72 = -12						; size = 4
tv66 = -8						; size = 4
_this$ = -4						; size = 4
?DoMin@CTopPanelControl@@QAEXXZ PROC NEAR		; CTopPanelControl::DoMin
; _this$ = ecx

; 41   : {

  000e0	55		 push	 ebp
  000e1	8b ec		 mov	 ebp, esp
  000e3	83 ec 0c	 sub	 esp, 12			; 0000000cH
  000e6	89 4d fc	 mov	 DWORD PTR _this$[ebp], ecx

; 42   : 	GLOBAL_PANELCHANGEDATA->IPanelChange_Min();

  000e9	e8 00 00 00 00	 call	 ?AfxGetDataManager2@@YAPAVIDataManager@@XZ ; AfxGetDataManager2
  000ee	89 45 f8	 mov	 DWORD PTR tv66[ebp], eax
  000f1	68 00 00 00 00	 push	 OFFSET FLAT:_ID_DATA_PANELCHANGE
  000f6	8b 45 f8	 mov	 eax, DWORD PTR tv66[ebp]
  000f9	8b 10		 mov	 edx, DWORD PTR [eax]
  000fb	8b 4d f8	 mov	 ecx, DWORD PTR tv66[ebp]
  000fe	ff 52 0c	 call	 DWORD PTR [edx+12]
  00101	89 45 f4	 mov	 DWORD PTR tv72[ebp], eax
  00104	8b 45 f4	 mov	 eax, DWORD PTR tv72[ebp]
  00107	8b 10		 mov	 edx, DWORD PTR [eax]
  00109	8b 4d f4	 mov	 ecx, DWORD PTR tv72[ebp]
  0010c	ff 52 1c	 call	 DWORD PTR [edx+28]

; 43   : }

  0010f	8b e5		 mov	 esp, ebp
  00111	5d		 pop	 ebp
  00112	c3		 ret	 0
?DoMin@CTopPanelControl@@QAEXXZ ENDP			; CTopPanelControl::DoMin
_TEXT	ENDS
PUBLIC	?HoldWindow@CTopPanelControl@@QAEXXZ		; CTopPanelControl::HoldWindow
EXTRN	?SetConfigBoolValue@AfxUserConfig@@QAEXABV?$basic_string@DU?$char_traits@D@std@@V?$allocator@D@2@@std@@0_N1@Z:NEAR ; AfxUserConfig::SetConfigBoolValue
EXTRN	__imp_??0?$basic_string@DU?$char_traits@D@std@@V?$allocator@D@2@@std@@QAE@PBD@Z:NEAR
EXTRN	__imp_??1?$basic_string@DU?$char_traits@D@std@@V?$allocator@D@2@@std@@QAE@XZ:NEAR
EXTRN	?AfxGetMainWindow@@YAPAVCWnd@@XZ:NEAR		; AfxGetMainWindow
EXTRN	?AfxGetUserConfig@@YAPAVAfxUserConfig@@XZ:NEAR	; AfxGetUserConfig
EXTRN	__imp_?wndTopMost@CWnd@@2V1@B:BYTE
EXTRN	__imp_?wndNoTopMost@CWnd@@2V1@B:BYTE
EXTRN	?SetWindowPos@CWnd@@QAEHPBV1@HHHHI@Z:NEAR	; CWnd::SetWindowPos
xdata$x	SEGMENT
$T201718 DD	0ffffffffH
	DD	FLAT:$L201711
	DD	00H
	DD	FLAT:$L201712
	DD	0ffffffffH
	DD	FLAT:$L201713
	DD	02H
	DD	FLAT:$L201714
$T201716 DD	019930520H
	DD	04H
	DD	FLAT:$T201718
	DD	2 DUP(00H)
	DD	2 DUP(00H)
; Function compile flags: /Odt
xdata$x	ENDS
_TEXT	SEGMENT
_this$ = -128						; size = 4
$T201710 = -124						; size = 28
$T201709 = -96						; size = 28
$T201708 = -68						; size = 28
$T201707 = -40						; size = 28
__$EHRec$ = -12						; size = 12
?HoldWindow@CTopPanelControl@@QAEXXZ PROC NEAR		; CTopPanelControl::HoldWindow
; _this$ = ecx

; 46   : {

  00120	55		 push	 ebp
  00121	8b ec		 mov	 ebp, esp
  00123	6a ff		 push	 -1
  00125	68 00 00 00 00	 push	 __ehhandler$?HoldWindow@CTopPanelControl@@QAEXXZ
  0012a	64 a1 00 00 00
	00		 mov	 eax, DWORD PTR fs:__except_list
  00130	50		 push	 eax
  00131	64 89 25 00 00
	00 00		 mov	 DWORD PTR fs:__except_list, esp
  00138	83 ec 74	 sub	 esp, 116		; 00000074H
  0013b	89 4d 80	 mov	 DWORD PTR _this$[ebp], ecx

; 47   : 	if( m_pWndTopPanel->m_bMainWndHold )

  0013e	8b 45 80	 mov	 eax, DWORD PTR _this$[ebp]
  00141	8b 08		 mov	 ecx, DWORD PTR [eax]
  00143	0f b6 91 2c 06
	00 00		 movzx	 edx, BYTE PTR [ecx+1580]
  0014a	85 d2		 test	 edx, edx
  0014c	0f 84 8c 00 00
	00		 je	 $L200346

; 48   : 	{
; 49   : 		AfxGetMainWindow()->SetWindowPos(&CWnd::wndNoTopMost,-1,-1,-1,-1, SWP_NOSIZE|SWP_NOMOVE);

  00152	6a 03		 push	 3
  00154	6a ff		 push	 -1
  00156	6a ff		 push	 -1
  00158	6a ff		 push	 -1
  0015a	6a ff		 push	 -1
  0015c	a1 00 00 00 00	 mov	 eax, DWORD PTR __imp_?wndNoTopMost@CWnd@@2V1@B
  00161	50		 push	 eax
  00162	e8 00 00 00 00	 call	 ?AfxGetMainWindow@@YAPAVCWnd@@XZ ; AfxGetMainWindow
  00167	8b c8		 mov	 ecx, eax
  00169	e8 00 00 00 00	 call	 ?SetWindowPos@CWnd@@QAEHPBV1@HHHHI@Z ; CWnd::SetWindowPos

; 50   : 		m_pWndTopPanel->m_bMainWndHold = false;

  0016e	8b 4d 80	 mov	 ecx, DWORD PTR _this$[ebp]
  00171	8b 11		 mov	 edx, DWORD PTR [ecx]
  00173	c6 82 2c 06 00
	00 00		 mov	 BYTE PTR [edx+1580], 0

; 51   : 		AfxGetUserConfig()->SetConfigBoolValue( CONF_APP_MODULE_NAME,CONF_APP_MAINWND_HOLD,false);

  0017a	a1 00 00 00 00	 mov	 eax, DWORD PTR _CONF_APP_MAINWND_HOLD
  0017f	50		 push	 eax
  00180	8d 4d d8	 lea	 ecx, DWORD PTR $T201707[ebp]
  00183	ff 15 00 00 00
	00		 call	 DWORD PTR __imp_??0?$basic_string@DU?$char_traits@D@std@@V?$allocator@D@2@@std@@QAE@PBD@Z
  00189	c7 45 fc 00 00
	00 00		 mov	 DWORD PTR __$EHRec$[ebp+8], 0
  00190	8b 0d 00 00 00
	00		 mov	 ecx, DWORD PTR _CONF_APP_MODULE_NAME
  00196	51		 push	 ecx
  00197	8d 4d bc	 lea	 ecx, DWORD PTR $T201708[ebp]
  0019a	ff 15 00 00 00
	00		 call	 DWORD PTR __imp_??0?$basic_string@DU?$char_traits@D@std@@V?$allocator@D@2@@std@@QAE@PBD@Z
  001a0	c6 45 fc 01	 mov	 BYTE PTR __$EHRec$[ebp+8], 1
  001a4	6a 00		 push	 0
  001a6	6a 00		 push	 0
  001a8	8d 55 d8	 lea	 edx, DWORD PTR $T201707[ebp]
  001ab	52		 push	 edx
  001ac	8d 45 bc	 lea	 eax, DWORD PTR $T201708[ebp]
  001af	50		 push	 eax
  001b0	e8 00 00 00 00	 call	 ?AfxGetUserConfig@@YAPAVAfxUserConfig@@XZ ; AfxGetUserConfig
  001b5	8b c8		 mov	 ecx, eax
  001b7	e8 00 00 00 00	 call	 ?SetConfigBoolValue@AfxUserConfig@@QAEXABV?$basic_string@DU?$char_traits@D@std@@V?$allocator@D@2@@std@@0_N1@Z ; AfxUserConfig::SetConfigBoolValue
  001bc	c6 45 fc 00	 mov	 BYTE PTR __$EHRec$[ebp+8], 0
  001c0	8d 4d bc	 lea	 ecx, DWORD PTR $T201708[ebp]
  001c3	ff 15 00 00 00
	00		 call	 DWORD PTR __imp_??1?$basic_string@DU?$char_traits@D@std@@V?$allocator@D@2@@std@@QAE@XZ
  001c9	c7 45 fc ff ff
	ff ff		 mov	 DWORD PTR __$EHRec$[ebp+8], -1
  001d0	8d 4d d8	 lea	 ecx, DWORD PTR $T201707[ebp]
  001d3	ff 15 00 00 00
	00		 call	 DWORD PTR __imp_??1?$basic_string@DU?$char_traits@D@std@@V?$allocator@D@2@@std@@QAE@XZ

; 52   : 	}
; 53   : 	else

  001d9	e9 89 00 00 00	 jmp	 $L200345
$L200346:

; 54   : 	{
; 55   : 		AfxGetMainWindow()->SetWindowPos(&CWnd::wndTopMost,-1,-1,-1,-1, SWP_NOSIZE|SWP_NOMOVE);

  001de	6a 03		 push	 3
  001e0	6a ff		 push	 -1
  001e2	6a ff		 push	 -1
  001e4	6a ff		 push	 -1
  001e6	6a ff		 push	 -1
  001e8	8b 0d 00 00 00
	00		 mov	 ecx, DWORD PTR __imp_?wndTopMost@CWnd@@2V1@B
  001ee	51		 push	 ecx
  001ef	e8 00 00 00 00	 call	 ?AfxGetMainWindow@@YAPAVCWnd@@XZ ; AfxGetMainWindow
  001f4	8b c8		 mov	 ecx, eax
  001f6	e8 00 00 00 00	 call	 ?SetWindowPos@CWnd@@QAEHPBV1@HHHHI@Z ; CWnd::SetWindowPos

; 56   : 		m_pWndTopPanel->m_bMainWndHold = true;

  001fb	8b 55 80	 mov	 edx, DWORD PTR _this$[ebp]
  001fe	8b 02		 mov	 eax, DWORD PTR [edx]
  00200	c6 80 2c 06 00
	00 01		 mov	 BYTE PTR [eax+1580], 1

; 57   : 		AfxGetUserConfig()->SetConfigBoolValue( CONF_APP_MODULE_NAME,CONF_APP_MAINWND_HOLD,true);

  00207	8b 0d 00 00 00
	00		 mov	 ecx, DWORD PTR _CONF_APP_MAINWND_HOLD
  0020d	51		 push	 ecx
  0020e	8d 4d a0	 lea	 ecx, DWORD PTR $T201709[ebp]
  00211	ff 15 00 00 00
	00		 call	 DWORD PTR __imp_??0?$basic_string@DU?$char_traits@D@std@@V?$allocator@D@2@@std@@QAE@PBD@Z
  00217	c7 45 fc 02 00
	00 00		 mov	 DWORD PTR __$EHRec$[ebp+8], 2
  0021e	8b 15 00 00 00
	00		 mov	 edx, DWORD PTR _CONF_APP_MODULE_NAME
  00224	52		 push	 edx
  00225	8d 4d 84	 lea	 ecx, DWORD PTR $T201710[ebp]
  00228	ff 15 00 00 00
	00		 call	 DWORD PTR __imp_??0?$basic_string@DU?$char_traits@D@std@@V?$allocator@D@2@@std@@QAE@PBD@Z
  0022e	c6 45 fc 03	 mov	 BYTE PTR __$EHRec$[ebp+8], 3
  00232	6a 00		 push	 0
  00234	6a 01		 push	 1
  00236	8d 45 a0	 lea	 eax, DWORD PTR $T201709[ebp]
  00239	50		 push	 eax
  0023a	8d 4d 84	 lea	 ecx, DWORD PTR $T201710[ebp]
  0023d	51		 push	 ecx
  0023e	e8 00 00 00 00	 call	 ?AfxGetUserConfig@@YAPAVAfxUserConfig@@XZ ; AfxGetUserConfig
  00243	8b c8		 mov	 ecx, eax
  00245	e8 00 00 00 00	 call	 ?SetConfigBoolValue@AfxUserConfig@@QAEXABV?$basic_string@DU?$char_traits@D@std@@V?$allocator@D@2@@std@@0_N1@Z ; AfxUserConfig::SetConfigBoolValue
  0024a	c6 45 fc 02	 mov	 BYTE PTR __$EHRec$[ebp+8], 2
  0024e	8d 4d 84	 lea	 ecx, DWORD PTR $T201710[ebp]
  00251	ff 15 00 00 00
	00		 call	 DWORD PTR __imp_??1?$basic_string@DU?$char_traits@D@std@@V?$allocator@D@2@@std@@QAE@XZ
  00257	c7 45 fc ff ff
	ff ff		 mov	 DWORD PTR __$EHRec$[ebp+8], -1
  0025e	8d 4d a0	 lea	 ecx, DWORD PTR $T201709[ebp]
  00261	ff 15 00 00 00
	00		 call	 DWORD PTR __imp_??1?$basic_string@DU?$char_traits@D@std@@V?$allocator@D@2@@std@@QAE@XZ
$L200345:

; 58   : 	}
; 59   : }

  00267	8b 4d f4	 mov	 ecx, DWORD PTR __$EHRec$[ebp]
  0026a	64 89 0d 00 00
	00 00		 mov	 DWORD PTR fs:__except_list, ecx
  00271	8b e5		 mov	 esp, ebp
  00273	5d		 pop	 ebp
  00274	c3		 ret	 0
_TEXT	ENDS
text$x	SEGMENT
$L201711:
  00015	8d 4d d8	 lea	 ecx, DWORD PTR $T201707[ebp]
  00018	ff 25 00 00 00
	00		 jmp	 DWORD PTR __imp_??1?$basic_string@DU?$char_traits@D@std@@V?$allocator@D@2@@std@@QAE@XZ
$L201712:
  0001e	8d 4d bc	 lea	 ecx, DWORD PTR $T201708[ebp]
  00021	ff 25 00 00 00
	00		 jmp	 DWORD PTR __imp_??1?$basic_string@DU?$char_traits@D@std@@V?$allocator@D@2@@std@@QAE@XZ
$L201713:
  00027	8d 4d a0	 lea	 ecx, DWORD PTR $T201709[ebp]
  0002a	ff 25 00 00 00
	00		 jmp	 DWORD PTR __imp_??1?$basic_string@DU?$char_traits@D@std@@V?$allocator@D@2@@std@@QAE@XZ
$L201714:
  00030	8d 4d 84	 lea	 ecx, DWORD PTR $T201710[ebp]
  00033	ff 25 00 00 00
	00		 jmp	 DWORD PTR __imp_??1?$basic_string@DU?$char_traits@D@std@@V?$allocator@D@2@@std@@QAE@XZ
__ehhandler$?HoldWindow@CTopPanelControl@@QAEXXZ:
  00039	b8 00 00 00 00	 mov	 eax, OFFSET FLAT:$T201716
  0003e	e9 00 00 00 00	 jmp	 ___CxxFrameHandler
text$x	ENDS
?HoldWindow@CTopPanelControl@@QAEXXZ ENDP		; CTopPanelControl::HoldWindow
PUBLIC	?AutoRunHideMainWindow@CTopPanelControl@@QAEXXZ	; CTopPanelControl::AutoRunHideMainWindow
; Function compile flags: /Odt
_TEXT	SEGMENT
_this$ = -4						; size = 4
?AutoRunHideMainWindow@CTopPanelControl@@QAEXXZ PROC NEAR ; CTopPanelControl::AutoRunHideMainWindow
; _this$ = ecx

; 62   : {

  00280	55		 push	 ebp
  00281	8b ec		 mov	 ebp, esp
  00283	51		 push	 ecx
  00284	89 4d fc	 mov	 DWORD PTR _this$[ebp], ecx

; 63   : 	m_pWndTopPanel->m_bHideMainWindow=TRUE;

  00287	8b 45 fc	 mov	 eax, DWORD PTR _this$[ebp]
  0028a	8b 08		 mov	 ecx, DWORD PTR [eax]
  0028c	c6 81 68 06 00
	00 01		 mov	 BYTE PTR [ecx+1640], 1

; 64   : }

  00293	8b e5		 mov	 esp, ebp
  00295	5d		 pop	 ebp
  00296	c3		 ret	 0
?AutoRunHideMainWindow@CTopPanelControl@@QAEXXZ ENDP	; CTopPanelControl::AutoRunHideMainWindow
_TEXT	ENDS
PUBLIC	?IsHold@CTopPanelControl@@QAEHXZ		; CTopPanelControl::IsHold
; Function compile flags: /Odt
_TEXT	SEGMENT
_this$ = -4						; size = 4
?IsHold@CTopPanelControl@@QAEHXZ PROC NEAR		; CTopPanelControl::IsHold
; _this$ = ecx

; 67   : {

  002a0	55		 push	 ebp
  002a1	8b ec		 mov	 ebp, esp
  002a3	51		 push	 ecx
  002a4	89 4d fc	 mov	 DWORD PTR _this$[ebp], ecx

; 68   : 	return m_pWndTopPanel->m_bMainWndHold;

  002a7	8b 45 fc	 mov	 eax, DWORD PTR _this$[ebp]
  002aa	8b 08		 mov	 ecx, DWORD PTR [eax]
  002ac	0f b6 81 2c 06
	00 00		 movzx	 eax, BYTE PTR [ecx+1580]

; 69   : }

  002b3	8b e5		 mov	 esp, ebp
  002b5	5d		 pop	 ebp
  002b6	c3		 ret	 0
?IsHold@CTopPanelControl@@QAEHXZ ENDP			; CTopPanelControl::IsHold
_TEXT	ENDS
PUBLIC	??0?$vector@V?$basic_string@DU?$char_traits@D@std@@V?$allocator@D@2@@std@@V?$allocator@V?$basic_string@DU?$char_traits@D@std@@V?$allocator@D@2@@std@@@2@@std@@QAE@XZ ; std::vector<std::basic_string<char,std::char_traits<char>,std::allocator<char> >,std::allocator<std::basic_string<char,std::char_traits<char>,std::allocator<char> > > >::vector<std::basic_string<char,std::char_traits<char>,std::allocator<char> >,std::allocator<std::basic_string<char,std::char_traits<char>,std::allocator<char> > > >
PUBLIC	??1?$vector@V?$basic_string@DU?$char_traits@D@std@@V?$allocator@D@2@@std@@V?$allocator@V?$basic_string@DU?$char_traits@D@std@@V?$allocator@D@2@@std@@@2@@std@@QAE@XZ ; std::vector<std::basic_string<char,std::char_traits<char>,std::allocator<char> >,std::allocator<std::basic_string<char,std::char_traits<char>,std::allocator<char> > > >::~vector<std::basic_string<char,std::char_traits<char>,std::allocator<char> >,std::allocator<std::basic_string<char,std::char_traits<char>,std::allocator<char> > > >
PUBLIC	?size@?$vector@V?$basic_string@DU?$char_traits@D@std@@V?$allocator@D@2@@std@@V?$allocator@V?$basic_string@DU?$char_traits@D@std@@V?$allocator@D@2@@std@@@2@@std@@QBEIXZ ; std::vector<std::basic_string<char,std::char_traits<char>,std::allocator<char> >,std::allocator<std::basic_string<char,std::char_traits<char>,std::allocator<char> > > >::size
PUBLIC	??A?$vector@V?$basic_string@DU?$char_traits@D@std@@V?$allocator@D@2@@std@@V?$allocator@V?$basic_string@DU?$char_traits@D@std@@V?$allocator@D@2@@std@@@2@@std@@QAEAAV?$basic_string@DU?$char_traits@D@std@@V?$allocator@D@2@@1@I@Z ; std::vector<std::basic_string<char,std::char_traits<char>,std::allocator<char> >,std::allocator<std::basic_string<char,std::char_traits<char>,std::allocator<char> > > >::operator[]
PUBLIC	?push_back@?$vector@V?$basic_string@DU?$char_traits@D@std@@V?$allocator@D@2@@std@@V?$allocator@V?$basic_string@DU?$char_traits@D@std@@V?$allocator@D@2@@std@@@2@@std@@QAEXABV?$basic_string@DU?$char_traits@D@std@@V?$allocator@D@2@@2@@Z ; std::vector<std::basic_string<char,std::char_traits<char>,std::allocator<char> >,std::allocator<std::basic_string<char,std::char_traits<char>,std::allocator<char> > > >::push_back
PUBLIC	?GetAllSkinName@CTopPanelControl@@QAEXAAV?$vector@V?$basic_string@DU?$char_traits@D@std@@V?$allocator@D@2@@std@@V?$allocator@V?$basic_string@DU?$char_traits@D@std@@V?$allocator@D@2@@std@@@2@@std@@@Z ; CTopPanelControl::GetAllSkinName
PUBLIC	??$?HDU?$char_traits@D@std@@V?$allocator@D@1@@std@@YA?AV?$basic_string@DU?$char_traits@D@std@@V?$allocator@D@2@@0@ABV10@0@Z ; std::operator+<char,std::char_traits<char>,std::allocator<char> >
PUBLIC	??$?HDU?$char_traits@D@std@@V?$allocator@D@1@@std@@YA?AV?$basic_string@DU?$char_traits@D@std@@V?$allocator@D@2@@0@ABV10@PBD@Z ; std::operator+<char,std::char_traits<char>,std::allocator<char> >
EXTRN	___security_cookie:DWORD
EXTRN	@__security_check_cookie@4:NEAR
EXTRN	?IsValid@YL_FileInfo@@SA_NABV?$basic_string@DU?$char_traits@D@std@@V?$allocator@D@2@@std@@@Z:NEAR ; YL_FileInfo::IsValid
EXTRN	_strcat:NEAR
EXTRN	?AfxGetUIManager@@YAPAVIUIManager@@XZ:NEAR	; AfxGetUIManager
EXTRN	?GetHomePath@CLhcImg@@SA_NQADH@Z:NEAR		; CLhcImg::GetHomePath
xdata$x	SEGMENT
$T201736 DD	0ffffffffH
	DD	FLAT:$L201726
	DD	00H
	DD	FLAT:$L201727
	DD	01H
	DD	FLAT:$L201728
	DD	02H
	DD	FLAT:$L201729
$T201731 DD	019930520H
	DD	04H
	DD	FLAT:$T201736
	DD	2 DUP(00H)
	DD	2 DUP(00H)
; Function compile flags: /Odt
xdata$x	ENDS
_TEXT	SEGMENT
tv152 = -664						; size = 4
tv69 = -660						; size = 4
tv150 = -656						; size = 4
tv73 = -652						; size = 4
tv82 = -648						; size = 4
tv77 = -644						; size = 4
_this$ = -640						; size = 4
$T201725 = -636						; size = 28
$T201724 = -608						; size = 28
$T201723 = -577						; size = 1
_n$200368 = -576					; size = 4
_szbuffer$ = -572					; size = 512
_vecSkins$ = -60					; size = 16
_sHomePath$ = -44					; size = 28
__$ArrayPad$ = -16					; size = 4
__$EHRec$ = -12						; size = 12
__$ReturnAddr$ = 4					; size = 4
_vSkinName$ = 8						; size = 4
?GetAllSkinName@CTopPanelControl@@QAEXAAV?$vector@V?$basic_string@DU?$char_traits@D@std@@V?$allocator@D@2@@std@@V?$allocator@V?$basic_string@DU?$char_traits@D@std@@V?$allocator@D@2@@std@@@2@@std@@@Z PROC NEAR ; CTopPanelControl::GetAllSkinName
; _this$ = ecx

; 73   : {

  002c0	55		 push	 ebp
  002c1	8b ec		 mov	 ebp, esp
  002c3	6a ff		 push	 -1
  002c5	68 00 00 00 00	 push	 __ehhandler$?GetAllSkinName@CTopPanelControl@@QAEXAAV?$vector@V?$basic_string@DU?$char_traits@D@std@@V?$allocator@D@2@@std@@V?$allocator@V?$basic_string@DU?$char_traits@D@std@@V?$allocator@D@2@@std@@@2@@std@@@Z
  002ca	64 a1 00 00 00
	00		 mov	 eax, DWORD PTR fs:__except_list
  002d0	50		 push	 eax
  002d1	64 89 25 00 00
	00 00		 mov	 DWORD PTR fs:__except_list, esp
  002d8	81 ec 8c 02 00
	00		 sub	 esp, 652		; 0000028cH
  002de	a1 00 00 00 00	 mov	 eax, DWORD PTR ___security_cookie
  002e3	89 45 f0	 mov	 DWORD PTR __$ArrayPad$[ebp], eax
  002e6	89 8d 80 fd ff
	ff		 mov	 DWORD PTR _this$[ebp], ecx

; 74   : 	char szbuffer[512];
; 75   : 	CLhcImg::GetHomePath(szbuffer,512);

  002ec	68 00 02 00 00	 push	 512			; 00000200H
  002f1	8d 85 c4 fd ff
	ff		 lea	 eax, DWORD PTR _szbuffer$[ebp]
  002f7	50		 push	 eax
  002f8	e8 00 00 00 00	 call	 ?GetHomePath@CLhcImg@@SA_NQADH@Z ; CLhcImg::GetHomePath
  002fd	83 c4 08	 add	 esp, 8

; 76   : 	strcat(szbuffer,"\\skin\\");

  00300	68 00 00 00 00	 push	 OFFSET FLAT:$SG200364
  00305	8d 8d c4 fd ff
	ff		 lea	 ecx, DWORD PTR _szbuffer$[ebp]
  0030b	51		 push	 ecx
  0030c	e8 00 00 00 00	 call	 _strcat
  00311	83 c4 08	 add	 esp, 8

; 77   : 	string sHomePath = szbuffer;

  00314	8d 95 c4 fd ff
	ff		 lea	 edx, DWORD PTR _szbuffer$[ebp]
  0031a	52		 push	 edx
  0031b	8d 4d d4	 lea	 ecx, DWORD PTR _sHomePath$[ebp]
  0031e	ff 15 00 00 00
	00		 call	 DWORD PTR __imp_??0?$basic_string@DU?$char_traits@D@std@@V?$allocator@D@2@@std@@QAE@PBD@Z
  00324	c7 45 fc 00 00
	00 00		 mov	 DWORD PTR __$EHRec$[ebp+8], 0

; 78   : 	vector<string> vecSkins;

  0032b	8d 4d c4	 lea	 ecx, DWORD PTR _vecSkins$[ebp]
  0032e	e8 00 00 00 00	 call	 ??0?$vector@V?$basic_string@DU?$char_traits@D@std@@V?$allocator@D@2@@std@@V?$allocator@V?$basic_string@DU?$char_traits@D@std@@V?$allocator@D@2@@std@@@2@@std@@QAE@XZ ; std::vector<std::basic_string<char,std::char_traits<char>,std::allocator<char> >,std::allocator<std::basic_string<char,std::char_traits<char>,std::allocator<char> > > >::vector<std::basic_string<char,std::char_traits<char>,std::allocator<char> >,std::allocator<std::basic_string<char,std::char_traits<char>,std::allocator<char> > > >
  00333	c6 45 fc 01	 mov	 BYTE PTR __$EHRec$[ebp+8], 1

; 79   : 	AfxGetUIManager()->UIGetSkinMgr()->GetSkinNames( vecSkins,true);

  00337	e8 00 00 00 00	 call	 ?AfxGetUIManager@@YAPAVIUIManager@@XZ ; AfxGetUIManager
  0033c	89 85 7c fd ff
	ff		 mov	 DWORD PTR tv77[ebp], eax
  00342	8b 85 7c fd ff
	ff		 mov	 eax, DWORD PTR tv77[ebp]
  00348	8b 10		 mov	 edx, DWORD PTR [eax]
  0034a	8b 8d 7c fd ff
	ff		 mov	 ecx, DWORD PTR tv77[ebp]
  00350	ff 52 28	 call	 DWORD PTR [edx+40]
  00353	89 85 78 fd ff
	ff		 mov	 DWORD PTR tv82[ebp], eax
  00359	6a 01		 push	 1
  0035b	8d 45 c4	 lea	 eax, DWORD PTR _vecSkins$[ebp]
  0035e	50		 push	 eax
  0035f	8b 8d 78 fd ff
	ff		 mov	 ecx, DWORD PTR tv82[ebp]
  00365	8b 11		 mov	 edx, DWORD PTR [ecx]
  00367	8b 8d 78 fd ff
	ff		 mov	 ecx, DWORD PTR tv82[ebp]
  0036d	ff 52 4c	 call	 DWORD PTR [edx+76]

; 80   : 	for( unsigned int n=0; n<vecSkins.size(); n++ )

  00370	c7 85 c0 fd ff
	ff 00 00 00 00	 mov	 DWORD PTR _n$200368[ebp], 0
  0037a	eb 0f		 jmp	 SHORT $L200369
$L200370:
  0037c	8b 85 c0 fd ff
	ff		 mov	 eax, DWORD PTR _n$200368[ebp]
  00382	83 c0 01	 add	 eax, 1
  00385	89 85 c0 fd ff
	ff		 mov	 DWORD PTR _n$200368[ebp], eax
$L200369:
  0038b	8d 4d c4	 lea	 ecx, DWORD PTR _vecSkins$[ebp]
  0038e	e8 00 00 00 00	 call	 ?size@?$vector@V?$basic_string@DU?$char_traits@D@std@@V?$allocator@D@2@@std@@V?$allocator@V?$basic_string@DU?$char_traits@D@std@@V?$allocator@D@2@@std@@@2@@std@@QBEIXZ ; std::vector<std::basic_string<char,std::char_traits<char>,std::allocator<char> >,std::allocator<std::basic_string<char,std::char_traits<char>,std::allocator<char> > > >::size
  00393	39 85 c0 fd ff
	ff		 cmp	 DWORD PTR _n$200368[ebp], eax
  00399	0f 83 c7 00 00
	00		 jae	 $L200371

; 81   : 	{
; 82   : 		if( YL_FileInfo::IsValid( sHomePath + vecSkins[n] + "\\skin.jpg" ) ) 

  0039f	8b 8d c0 fd ff
	ff		 mov	 ecx, DWORD PTR _n$200368[ebp]
  003a5	51		 push	 ecx
  003a6	8d 4d c4	 lea	 ecx, DWORD PTR _vecSkins$[ebp]
  003a9	e8 00 00 00 00	 call	 ??A?$vector@V?$basic_string@DU?$char_traits@D@std@@V?$allocator@D@2@@std@@V?$allocator@V?$basic_string@DU?$char_traits@D@std@@V?$allocator@D@2@@std@@@2@@std@@QAEAAV?$basic_string@DU?$char_traits@D@std@@V?$allocator@D@2@@1@I@Z ; std::vector<std::basic_string<char,std::char_traits<char>,std::allocator<char> >,std::allocator<std::basic_string<char,std::char_traits<char>,std::allocator<char> > > >::operator[]
  003ae	50		 push	 eax
  003af	8d 55 d4	 lea	 edx, DWORD PTR _sHomePath$[ebp]
  003b2	52		 push	 edx
  003b3	8d 85 a0 fd ff
	ff		 lea	 eax, DWORD PTR $T201724[ebp]
  003b9	50		 push	 eax
  003ba	e8 00 00 00 00	 call	 ??$?HDU?$char_traits@D@std@@V?$allocator@D@1@@std@@YA?AV?$basic_string@DU?$char_traits@D@std@@V?$allocator@D@2@@0@ABV10@0@Z ; std::operator+<char,std::char_traits<char>,std::allocator<char> >
  003bf	83 c4 0c	 add	 esp, 12			; 0000000cH
  003c2	89 85 74 fd ff
	ff		 mov	 DWORD PTR tv73[ebp], eax
  003c8	8b 8d 74 fd ff
	ff		 mov	 ecx, DWORD PTR tv73[ebp]
  003ce	89 8d 70 fd ff
	ff		 mov	 DWORD PTR tv150[ebp], ecx
  003d4	c6 45 fc 02	 mov	 BYTE PTR __$EHRec$[ebp+8], 2
  003d8	68 00 00 00 00	 push	 OFFSET FLAT:$SG200376
  003dd	8b 95 70 fd ff
	ff		 mov	 edx, DWORD PTR tv150[ebp]
  003e3	52		 push	 edx
  003e4	8d 85 84 fd ff
	ff		 lea	 eax, DWORD PTR $T201725[ebp]
  003ea	50		 push	 eax
  003eb	e8 00 00 00 00	 call	 ??$?HDU?$char_traits@D@std@@V?$allocator@D@1@@std@@YA?AV?$basic_string@DU?$char_traits@D@std@@V?$allocator@D@2@@0@ABV10@PBD@Z ; std::operator+<char,std::char_traits<char>,std::allocator<char> >
  003f0	83 c4 0c	 add	 esp, 12			; 0000000cH
  003f3	89 85 6c fd ff
	ff		 mov	 DWORD PTR tv69[ebp], eax
  003f9	8b 8d 6c fd ff
	ff		 mov	 ecx, DWORD PTR tv69[ebp]
  003ff	89 8d 68 fd ff
	ff		 mov	 DWORD PTR tv152[ebp], ecx
  00405	c6 45 fc 03	 mov	 BYTE PTR __$EHRec$[ebp+8], 3
  00409	8b 95 68 fd ff
	ff		 mov	 edx, DWORD PTR tv152[ebp]
  0040f	52		 push	 edx
  00410	e8 00 00 00 00	 call	 ?IsValid@YL_FileInfo@@SA_NABV?$basic_string@DU?$char_traits@D@std@@V?$allocator@D@2@@std@@@Z ; YL_FileInfo::IsValid
  00415	83 c4 04	 add	 esp, 4
  00418	88 85 bf fd ff
	ff		 mov	 BYTE PTR $T201723[ebp], al
  0041e	c6 45 fc 02	 mov	 BYTE PTR __$EHRec$[ebp+8], 2
  00422	8d 8d 84 fd ff
	ff		 lea	 ecx, DWORD PTR $T201725[ebp]
  00428	ff 15 00 00 00
	00		 call	 DWORD PTR __imp_??1?$basic_string@DU?$char_traits@D@std@@V?$allocator@D@2@@std@@QAE@XZ
  0042e	c6 45 fc 01	 mov	 BYTE PTR __$EHRec$[ebp+8], 1
  00432	8d 8d a0 fd ff
	ff		 lea	 ecx, DWORD PTR $T201724[ebp]
  00438	ff 15 00 00 00
	00		 call	 DWORD PTR __imp_??1?$basic_string@DU?$char_traits@D@std@@V?$allocator@D@2@@std@@QAE@XZ
  0043e	0f b6 85 bf fd
	ff ff		 movzx	 eax, BYTE PTR $T201723[ebp]
  00445	85 c0		 test	 eax, eax
  00447	74 18		 je	 SHORT $L200374

; 83   : 		{
; 84   : 			vSkinName.push_back( vecSkins[n] );

  00449	8b 8d c0 fd ff
	ff		 mov	 ecx, DWORD PTR _n$200368[ebp]
  0044f	51		 push	 ecx
  00450	8d 4d c4	 lea	 ecx, DWORD PTR _vecSkins$[ebp]
  00453	e8 00 00 00 00	 call	 ??A?$vector@V?$basic_string@DU?$char_traits@D@std@@V?$allocator@D@2@@std@@V?$allocator@V?$basic_string@DU?$char_traits@D@std@@V?$allocator@D@2@@std@@@2@@std@@QAEAAV?$basic_string@DU?$char_traits@D@std@@V?$allocator@D@2@@1@I@Z ; std::vector<std::basic_string<char,std::char_traits<char>,std::allocator<char> >,std::allocator<std::basic_string<char,std::char_traits<char>,std::allocator<char> > > >::operator[]
  00458	50		 push	 eax
  00459	8b 4d 08	 mov	 ecx, DWORD PTR _vSkinName$[ebp]
  0045c	e8 00 00 00 00	 call	 ?push_back@?$vector@V?$basic_string@DU?$char_traits@D@std@@V?$allocator@D@2@@std@@V?$allocator@V?$basic_string@DU?$char_traits@D@std@@V?$allocator@D@2@@std@@@2@@std@@QAEXABV?$basic_string@DU?$char_traits@D@std@@V?$allocator@D@2@@2@@Z ; std::vector<std::basic_string<char,std::char_traits<char>,std::allocator<char> >,std::allocator<std::basic_string<char,std::char_traits<char>,std::allocator<char> > > >::push_back
$L200374:

; 85   : 		}
; 86   : 	}

  00461	e9 16 ff ff ff	 jmp	 $L200370
$L200371:

; 87   : }

  00466	c6 45 fc 00	 mov	 BYTE PTR __$EHRec$[ebp+8], 0
  0046a	8d 4d c4	 lea	 ecx, DWORD PTR _vecSkins$[ebp]
  0046d	e8 00 00 00 00	 call	 ??1?$vector@V?$basic_string@DU?$char_traits@D@std@@V?$allocator@D@2@@std@@V?$allocator@V?$basic_string@DU?$char_traits@D@std@@V?$allocator@D@2@@std@@@2@@std@@QAE@XZ ; std::vector<std::basic_string<char,std::char_traits<char>,std::allocator<char> >,std::allocator<std::basic_string<char,std::char_traits<char>,std::allocator<char> > > >::~vector<std::basic_string<char,std::char_traits<char>,std::allocator<char> >,std::allocator<std::basic_string<char,std::char_traits<char>,std::allocator<char> > > >
  00472	c7 45 fc ff ff
	ff ff		 mov	 DWORD PTR __$EHRec$[ebp+8], -1
  00479	8d 4d d4	 lea	 ecx, DWORD PTR _sHomePath$[ebp]
  0047c	ff 15 00 00 00
	00		 call	 DWORD PTR __imp_??1?$basic_string@DU?$char_traits@D@std@@V?$allocator@D@2@@std@@QAE@XZ
  00482	8b 4d f4	 mov	 ecx, DWORD PTR __$EHRec$[ebp]
  00485	64 89 0d 00 00
	00 00		 mov	 DWORD PTR fs:__except_list, ecx
  0048c	8b 4d f0	 mov	 ecx, DWORD PTR __$ArrayPad$[ebp]
  0048f	e8 00 00 00 00	 call	 @__security_check_cookie@4
  00494	8b e5		 mov	 esp, ebp
  00496	5d		 pop	 ebp
  00497	c2 04 00	 ret	 4
_TEXT	ENDS
text$x	SEGMENT
$L201726:
  00043	8d 4d d4	 lea	 ecx, DWORD PTR _sHomePath$[ebp]
  00046	ff 25 00 00 00
	00		 jmp	 DWORD PTR __imp_??1?$basic_string@DU?$char_traits@D@std@@V?$allocator@D@2@@std@@QAE@XZ
$L201727:
  0004c	8d 4d c4	 lea	 ecx, DWORD PTR _vecSkins$[ebp]
  0004f	e9 00 00 00 00	 jmp	 ??1?$vector@V?$basic_string@DU?$char_traits@D@std@@V?$allocator@D@2@@std@@V?$allocator@V?$basic_string@DU?$char_traits@D@std@@V?$allocator@D@2@@std@@@2@@std@@QAE@XZ ; std::vector<std::basic_string<char,std::char_traits<char>,std::allocator<char> >,std::allocator<std::basic_string<char,std::char_traits<char>,std::allocator<char> > > >::~vector<std::basic_string<char,std::char_traits<char>,std::allocator<char> >,std::allocator<std::basic_string<char,std::char_traits<char>,std::allocator<char> > > >
$L201728:
  00054	8d 8d a0 fd ff
	ff		 lea	 ecx, DWORD PTR $T201724[ebp]
  0005a	ff 25 00 00 00
	00		 jmp	 DWORD PTR __imp_??1?$basic_string@DU?$char_traits@D@std@@V?$allocator@D@2@@std@@QAE@XZ
$L201729:
  00060	8d 8d 84 fd ff
	ff		 lea	 ecx, DWORD PTR $T201725[ebp]
  00066	ff 25 00 00 00
	00		 jmp	 DWORD PTR __imp_??1?$basic_string@DU?$char_traits@D@std@@V?$allocator@D@2@@std@@QAE@XZ
__ehhandler$?GetAllSkinName@CTopPanelControl@@QAEXAAV?$vector@V?$basic_string@DU?$char_traits@D@std@@V?$allocator@D@2@@std@@V?$allocator@V?$basic_string@DU?$char_traits@D@std@@V?$allocator@D@2@@std@@@2@@std@@@Z:
  0006c	b8 00 00 00 00	 mov	 eax, OFFSET FLAT:$T201731
  00071	e9 00 00 00 00	 jmp	 ___CxxFrameHandler
text$x	ENDS
?GetAllSkinName@CTopPanelControl@@QAEXAAV?$vector@V?$basic_string@DU?$char_traits@D@std@@V?$allocator@D@2@@std@@V?$allocator@V?$basic_string@DU?$char_traits@D@std@@V?$allocator@D@2@@std@@@2@@std@@@Z ENDP ; CTopPanelControl::GetAllSkinName
PUBLIC	?ClickButton@CTopPanelControl@@QAEXH@Z		; CTopPanelControl::ClickButton
EXTRN	__imp__SendMessageA@16:NEAR
; Function compile flags: /Odt
_TEXT	SEGMENT
_this$ = -4						; size = 4
_pos$ = 8						; size = 4
?ClickButton@CTopPanelControl@@QAEXH@Z PROC NEAR	; CTopPanelControl::ClickButton
; _this$ = ecx

; 90   : {

  004a0	55		 push	 ebp
  004a1	8b ec		 mov	 ebp, esp
  004a3	51		 push	 ecx
  004a4	89 4d fc	 mov	 DWORD PTR _this$[ebp], ecx

; 91   : 	if(pos == TOPPANEL_NOWPLAYING)

  004a7	83 7d 08 00	 cmp	 DWORD PTR _pos$[ebp], 0
  004ab	75 1d		 jne	 SHORT $L200381

; 92   : 	{
; 93   : 		::SendMessage(m_pWndTopPanel->m_hWnd,WM_COMMAND,10100,0);

  004ad	6a 00		 push	 0
  004af	68 74 27 00 00	 push	 10100			; 00002774H
  004b4	68 11 01 00 00	 push	 273			; 00000111H
  004b9	8b 45 fc	 mov	 eax, DWORD PTR _this$[ebp]
  004bc	8b 08		 mov	 ecx, DWORD PTR [eax]
  004be	8b 51 20	 mov	 edx, DWORD PTR [ecx+32]
  004c1	52		 push	 edx
  004c2	ff 15 00 00 00
	00		 call	 DWORD PTR __imp__SendMessageA@16

; 94   : 	}
; 95   : 	else if(pos == TOPPANEL_NETLIB)

  004c8	eb 67		 jmp	 SHORT $L200380
$L200381:
  004ca	83 7d 08 02	 cmp	 DWORD PTR _pos$[ebp], 2
  004ce	75 1d		 jne	 SHORT $L200383

; 96   : 	{
; 97   : 		::SendMessage(m_pWndTopPanel->m_hWnd,WM_COMMAND,10102,0);

  004d0	6a 00		 push	 0
  004d2	68 76 27 00 00	 push	 10102			; 00002776H
  004d7	68 11 01 00 00	 push	 273			; 00000111H
  004dc	8b 45 fc	 mov	 eax, DWORD PTR _this$[ebp]
  004df	8b 08		 mov	 ecx, DWORD PTR [eax]
  004e1	8b 51 20	 mov	 edx, DWORD PTR [ecx+32]
  004e4	52		 push	 edx
  004e5	ff 15 00 00 00
	00		 call	 DWORD PTR __imp__SendMessageA@16

; 98   : 	}
; 99   : 	else if(pos == TOPPANEL_DOWNLOAD)

  004eb	eb 44		 jmp	 SHORT $L200380
$L200383:
  004ed	83 7d 08 03	 cmp	 DWORD PTR _pos$[ebp], 3
  004f1	75 1d		 jne	 SHORT $L200385

; 100  : 	{
; 101  : 		::SendMessage(m_pWndTopPanel->m_hWnd,WM_COMMAND,10103,0);

  004f3	6a 00		 push	 0
  004f5	68 77 27 00 00	 push	 10103			; 00002777H
  004fa	68 11 01 00 00	 push	 273			; 00000111H
  004ff	8b 45 fc	 mov	 eax, DWORD PTR _this$[ebp]
  00502	8b 08		 mov	 ecx, DWORD PTR [eax]
  00504	8b 51 20	 mov	 edx, DWORD PTR [ecx+32]
  00507	52		 push	 edx
  00508	ff 15 00 00 00
	00		 call	 DWORD PTR __imp__SendMessageA@16

; 102  : 	}
; 103  : 	else if(pos == TOPPANEL_COMMEND)

  0050e	eb 21		 jmp	 SHORT $L200380
$L200385:
  00510	83 7d 08 01	 cmp	 DWORD PTR _pos$[ebp], 1
  00514	75 1b		 jne	 SHORT $L200380

; 104  : 	{
; 105  : 		::SendMessage(m_pWndTopPanel->m_hWnd,WM_COMMAND,10101,0);

  00516	6a 00		 push	 0
  00518	68 75 27 00 00	 push	 10101			; 00002775H
  0051d	68 11 01 00 00	 push	 273			; 00000111H
  00522	8b 45 fc	 mov	 eax, DWORD PTR _this$[ebp]
  00525	8b 08		 mov	 ecx, DWORD PTR [eax]
  00527	8b 51 20	 mov	 edx, DWORD PTR [ecx+32]
  0052a	52		 push	 edx
  0052b	ff 15 00 00 00
	00		 call	 DWORD PTR __imp__SendMessageA@16
$L200380:

; 106  : 	}
; 107  : }

  00531	8b e5		 mov	 esp, ebp
  00533	5d		 pop	 ebp
  00534	c2 04 00	 ret	 4
?ClickButton@CTopPanelControl@@QAEXH@Z ENDP		; CTopPanelControl::ClickButton
_TEXT	ENDS
PUBLIC	??0?$allocator@V?$basic_string@DU?$char_traits@D@std@@V?$allocator@D@2@@std@@@std@@QAE@XZ ; std::allocator<std::basic_string<char,std::char_traits<char>,std::allocator<char> > >::allocator<std::basic_string<char,std::char_traits<char>,std::allocator<char> > >
PUBLIC	??0?$_Vector_val@V?$basic_string@DU?$char_traits@D@std@@V?$allocator@D@2@@std@@V?$allocator@V?$basic_string@DU?$char_traits@D@std@@V?$allocator@D@2@@std@@@2@@std@@IAE@V?$allocator@V?$basic_string@DU?$char_traits@D@std@@V?$allocator@D@2@@std@@@1@@Z ; std::_Vector_val<std::basic_string<char,std::char_traits<char>,std::allocator<char> >,std::allocator<std::basic_string<char,std::char_traits<char>,std::allocator<char> > > >::_Vector_val<std::basic_string<char,std::char_traits<char>,std::allocator<char> >,std::allocator<std::basic_string<char,std::char_traits<char>,std::allocator<char> > > >
PUBLIC	?_Buy@?$vector@V?$basic_string@DU?$char_traits@D@std@@V?$allocator@D@2@@std@@V?$allocator@V?$basic_string@DU?$char_traits@D@std@@V?$allocator@D@2@@std@@@2@@std@@IAE_NI@Z ; std::vector<std::basic_string<char,std::char_traits<char>,std::allocator<char> >,std::allocator<std::basic_string<char,std::char_traits<char>,std::allocator<char> > > >::_Buy
; Function compile flags: /Odt
; File d:\program files (x86)\microsoft visual studio .net 2003\vc7\include\vector
;	COMDAT ??0?$vector@V?$basic_string@DU?$char_traits@D@std@@V?$allocator@D@2@@std@@V?$allocator@V?$basic_string@DU?$char_traits@D@std@@V?$allocator@D@2@@std@@@2@@std@@QAE@XZ
_TEXT	SEGMENT
_this$ = -8						; size = 4
??0?$vector@V?$basic_string@DU?$char_traits@D@std@@V?$allocator@D@2@@std@@V?$allocator@V?$basic_string@DU?$char_traits@D@std@@V?$allocator@D@2@@std@@@2@@std@@QAE@XZ PROC NEAR ; std::vector<std::basic_string<char,std::char_traits<char>,std::allocator<char> >,std::allocator<std::basic_string<char,std::char_traits<char>,std::allocator<char> > > >::vector<std::basic_string<char,std::char_traits<char>,std::allocator<char> >,std::allocator<std::basic_string<char,std::char_traits<char>,std::allocator<char> > > >, COMDAT
; _this$ = ecx

; 299  : 		{	// construct empty vector

  00000	55		 push	 ebp
  00001	8b ec		 mov	 ebp, esp
  00003	83 ec 08	 sub	 esp, 8
  00006	89 4d f8	 mov	 DWORD PTR _this$[ebp], ecx
  00009	51		 push	 ecx
  0000a	8b cc		 mov	 ecx, esp
  0000c	e8 00 00 00 00	 call	 ??0?$allocator@V?$basic_string@DU?$char_traits@D@std@@V?$allocator@D@2@@std@@@std@@QAE@XZ ; std::allocator<std::basic_string<char,std::char_traits<char>,std::allocator<char> > >::allocator<std::basic_string<char,std::char_traits<char>,std::allocator<char> > >
  00011	8b 4d f8	 mov	 ecx, DWORD PTR _this$[ebp]
  00014	e8 00 00 00 00	 call	 ??0?$_Vector_val@V?$basic_string@DU?$char_traits@D@std@@V?$allocator@D@2@@std@@V?$allocator@V?$basic_string@DU?$char_traits@D@std@@V?$allocator@D@2@@std@@@2@@std@@IAE@V?$allocator@V?$basic_string@DU?$char_traits@D@std@@V?$allocator@D@2@@std@@@1@@Z ; std::_Vector_val<std::basic_string<char,std::char_traits<char>,std::allocator<char> >,std::allocator<std::basic_string<char,std::char_traits<char>,std::allocator<char> > > >::_Vector_val<std::basic_string<char,std::char_traits<char>,std::allocator<char> >,std::allocator<std::basic_string<char,std::char_traits<char>,std::allocator<char> > > >

; 300  : 		_Buy(0);

  00019	6a 00		 push	 0
  0001b	8b 4d f8	 mov	 ecx, DWORD PTR _this$[ebp]
  0001e	e8 00 00 00 00	 call	 ?_Buy@?$vector@V?$basic_string@DU?$char_traits@D@std@@V?$allocator@D@2@@std@@V?$allocator@V?$basic_string@DU?$char_traits@D@std@@V?$allocator@D@2@@std@@@2@@std@@IAE_NI@Z ; std::vector<std::basic_string<char,std::char_traits<char>,std::allocator<char> >,std::allocator<std::basic_string<char,std::char_traits<char>,std::allocator<char> > > >::_Buy

; 301  : 		}

  00023	8b 45 f8	 mov	 eax, DWORD PTR _this$[ebp]
  00026	8b e5		 mov	 esp, ebp
  00028	5d		 pop	 ebp
  00029	c3		 ret	 0
??0?$vector@V?$basic_string@DU?$char_traits@D@std@@V?$allocator@D@2@@std@@V?$allocator@V?$basic_string@DU?$char_traits@D@std@@V?$allocator@D@2@@std@@@2@@std@@QAE@XZ ENDP ; std::vector<std::basic_string<char,std::char_traits<char>,std::allocator<char> >,std::allocator<std::basic_string<char,std::char_traits<char>,std::allocator<char> > > >::vector<std::basic_string<char,std::char_traits<char>,std::allocator<char> >,std::allocator<std::basic_string<char,std::char_traits<char>,std::allocator<char> > > >
_TEXT	ENDS
PUBLIC	?_Tidy@?$vector@V?$basic_string@DU?$char_traits@D@std@@V?$allocator@D@2@@std@@V?$allocator@V?$basic_string@DU?$char_traits@D@std@@V?$allocator@D@2@@std@@@2@@std@@IAEXXZ ; std::vector<std::basic_string<char,std::char_traits<char>,std::allocator<char> >,std::allocator<std::basic_string<char,std::char_traits<char>,std::allocator<char> > > >::_Tidy
; Function compile flags: /Odt
;	COMDAT ??1?$vector@V?$basic_string@DU?$char_traits@D@std@@V?$allocator@D@2@@std@@V?$allocator@V?$basic_string@DU?$char_traits@D@std@@V?$allocator@D@2@@std@@@2@@std@@QAE@XZ
_TEXT	SEGMENT
_this$ = -4						; size = 4
??1?$vector@V?$basic_string@DU?$char_traits@D@std@@V?$allocator@D@2@@std@@V?$allocator@V?$basic_string@DU?$char_traits@D@std@@V?$allocator@D@2@@std@@@2@@std@@QAE@XZ PROC NEAR ; std::vector<std::basic_string<char,std::char_traits<char>,std::allocator<char> >,std::allocator<std::basic_string<char,std::char_traits<char>,std::allocator<char> > > >::~vector<std::basic_string<char,std::char_traits<char>,std::allocator<char> >,std::allocator<std::basic_string<char,std::char_traits<char>,std::allocator<char> > > >, COMDAT
; _this$ = ecx

; 387  : 		{	// destroy the object

  00000	55		 push	 ebp
  00001	8b ec		 mov	 ebp, esp
  00003	51		 push	 ecx
  00004	89 4d fc	 mov	 DWORD PTR _this$[ebp], ecx

; 388  : 		_Tidy();

  00007	8b 4d fc	 mov	 ecx, DWORD PTR _this$[ebp]
  0000a	e8 00 00 00 00	 call	 ?_Tidy@?$vector@V?$basic_string@DU?$char_traits@D@std@@V?$allocator@D@2@@std@@V?$allocator@V?$basic_string@DU?$char_traits@D@std@@V?$allocator@D@2@@std@@@2@@std@@IAEXXZ ; std::vector<std::basic_string<char,std::char_traits<char>,std::allocator<char> >,std::allocator<std::basic_string<char,std::char_traits<char>,std::allocator<char> > > >::_Tidy

; 389  : 		}

  0000f	8b e5		 mov	 esp, ebp
  00011	5d		 pop	 ebp
  00012	c3		 ret	 0
??1?$vector@V?$basic_string@DU?$char_traits@D@std@@V?$allocator@D@2@@std@@V?$allocator@V?$basic_string@DU?$char_traits@D@std@@V?$allocator@D@2@@std@@@2@@std@@QAE@XZ ENDP ; std::vector<std::basic_string<char,std::char_traits<char>,std::allocator<char> >,std::allocator<std::basic_string<char,std::char_traits<char>,std::allocator<char> > > >::~vector<std::basic_string<char,std::char_traits<char>,std::allocator<char> >,std::allocator<std::basic_string<char,std::char_traits<char>,std::allocator<char> > > >
; Function compile flags: /Odt
_TEXT	ENDS
;	COMDAT ?size@?$vector@V?$basic_string@DU?$char_traits@D@std@@V?$allocator@D@2@@std@@V?$allocator@V?$basic_string@DU?$char_traits@D@std@@V?$allocator@D@2@@std@@@2@@std@@QBEIXZ
_TEXT	SEGMENT
tv70 = -8						; size = 4
_this$ = -4						; size = 4
?size@?$vector@V?$basic_string@DU?$char_traits@D@std@@V?$allocator@D@2@@std@@V?$allocator@V?$basic_string@DU?$char_traits@D@std@@V?$allocator@D@2@@std@@@2@@std@@QBEIXZ PROC NEAR ; std::vector<std::basic_string<char,std::char_traits<char>,std::allocator<char> >,std::allocator<std::basic_string<char,std::char_traits<char>,std::allocator<char> > > >::size, COMDAT
; _this$ = ecx

; 515  : 		{	// return length of sequence

  00000	55		 push	 ebp
  00001	8b ec		 mov	 ebp, esp
  00003	83 ec 08	 sub	 esp, 8
  00006	89 4d fc	 mov	 DWORD PTR _this$[ebp], ecx

; 516  : 		return (_Myfirst == 0 ? 0 : _Mylast - _Myfirst);

  00009	8b 45 fc	 mov	 eax, DWORD PTR _this$[ebp]
  0000c	83 78 04 00	 cmp	 DWORD PTR [eax+4], 0
  00010	75 09		 jne	 SHORT $L201744
  00012	c7 45 f8 00 00
	00 00		 mov	 DWORD PTR tv70[ebp], 0
  00019	eb 17		 jmp	 SHORT $L201745
$L201744:
  0001b	8b 4d fc	 mov	 ecx, DWORD PTR _this$[ebp]
  0001e	8b 55 fc	 mov	 edx, DWORD PTR _this$[ebp]
  00021	8b 41 08	 mov	 eax, DWORD PTR [ecx+8]
  00024	2b 42 04	 sub	 eax, DWORD PTR [edx+4]
  00027	99		 cdq
  00028	b9 1c 00 00 00	 mov	 ecx, 28			; 0000001cH
  0002d	f7 f9		 idiv	 ecx
  0002f	89 45 f8	 mov	 DWORD PTR tv70[ebp], eax
$L201745:
  00032	8b 45 f8	 mov	 eax, DWORD PTR tv70[ebp]

; 517  : 		}

  00035	8b e5		 mov	 esp, ebp
  00037	5d		 pop	 ebp
  00038	c3		 ret	 0
?size@?$vector@V?$basic_string@DU?$char_traits@D@std@@V?$allocator@D@2@@std@@V?$allocator@V?$basic_string@DU?$char_traits@D@std@@V?$allocator@D@2@@std@@@2@@std@@QBEIXZ ENDP ; std::vector<std::basic_string<char,std::char_traits<char>,std::allocator<char> >,std::allocator<std::basic_string<char,std::char_traits<char>,std::allocator<char> > > >::size
_TEXT	ENDS
PUBLIC	?begin@?$vector@V?$basic_string@DU?$char_traits@D@std@@V?$allocator@D@2@@std@@V?$allocator@V?$basic_string@DU?$char_traits@D@std@@V?$allocator@D@2@@std@@@2@@std@@QAE?AViterator@12@XZ ; std::vector<std::basic_string<char,std::char_traits<char>,std::allocator<char> >,std::allocator<std::basic_string<char,std::char_traits<char>,std::allocator<char> > > >::begin
PUBLIC	??Diterator@?$vector@V?$basic_string@DU?$char_traits@D@std@@V?$allocator@D@2@@std@@V?$allocator@V?$basic_string@DU?$char_traits@D@std@@V?$allocator@D@2@@std@@@2@@std@@QBEAAV?$basic_string@DU?$char_traits@D@std@@V?$allocator@D@2@@2@XZ ; std::vector<std::basic_string<char,std::char_traits<char>,std::allocator<char> >,std::allocator<std::basic_string<char,std::char_traits<char>,std::allocator<char> > > >::iterator::operator*
PUBLIC	??Hiterator@?$vector@V?$basic_string@DU?$char_traits@D@std@@V?$allocator@D@2@@std@@V?$allocator@V?$basic_string@DU?$char_traits@D@std@@V?$allocator@D@2@@std@@@2@@std@@QBE?AV012@H@Z ; std::vector<std::basic_string<char,std::char_traits<char>,std::allocator<char> >,std::allocator<std::basic_string<char,std::char_traits<char>,std::allocator<char> > > >::iterator::operator+
; Function compile flags: /Odt
;	COMDAT ??A?$vector@V?$basic_string@DU?$char_traits@D@std@@V?$allocator@D@2@@std@@V?$allocator@V?$basic_string@DU?$char_traits@D@std@@V?$allocator@D@2@@std@@@2@@std@@QAEAAV?$basic_string@DU?$char_traits@D@std@@V?$allocator@D@2@@1@I@Z
_TEXT	SEGMENT
_this$ = -12						; size = 4
$T201749 = -8						; size = 4
$T201748 = -4						; size = 4
__Pos$ = 8						; size = 4
??A?$vector@V?$basic_string@DU?$char_traits@D@std@@V?$allocator@D@2@@std@@V?$allocator@V?$basic_string@DU?$char_traits@D@std@@V?$allocator@D@2@@std@@@2@@std@@QAEAAV?$basic_string@DU?$char_traits@D@std@@V?$allocator@D@2@@1@I@Z PROC NEAR ; std::vector<std::basic_string<char,std::char_traits<char>,std::allocator<char> >,std::allocator<std::basic_string<char,std::char_traits<char>,std::allocator<char> > > >::operator[], COMDAT
; _this$ = ecx

; 554  : 		{	// subscript mutable sequence

  00000	55		 push	 ebp
  00001	8b ec		 mov	 ebp, esp
  00003	83 ec 0c	 sub	 esp, 12			; 0000000cH
  00006	89 4d f4	 mov	 DWORD PTR _this$[ebp], ecx

; 555  : 		return (*(begin() + _Pos));

  00009	8b 45 08	 mov	 eax, DWORD PTR __Pos$[ebp]
  0000c	50		 push	 eax
  0000d	8d 4d f8	 lea	 ecx, DWORD PTR $T201749[ebp]
  00010	51		 push	 ecx
  00011	8d 55 fc	 lea	 edx, DWORD PTR $T201748[ebp]
  00014	52		 push	 edx
  00015	8b 4d f4	 mov	 ecx, DWORD PTR _this$[ebp]
  00018	e8 00 00 00 00	 call	 ?begin@?$vector@V?$basic_string@DU?$char_traits@D@std@@V?$allocator@D@2@@std@@V?$allocator@V?$basic_string@DU?$char_traits@D@std@@V?$allocator@D@2@@std@@@2@@std@@QAE?AViterator@12@XZ ; std::vector<std::basic_string<char,std::char_traits<char>,std::allocator<char> >,std::allocator<std::basic_string<char,std::char_traits<char>,std::allocator<char> > > >::begin
  0001d	8b c8		 mov	 ecx, eax
  0001f	e8 00 00 00 00	 call	 ??Hiterator@?$vector@V?$basic_string@DU?$char_traits@D@std@@V?$allocator@D@2@@std@@V?$allocator@V?$basic_string@DU?$char_traits@D@std@@V?$allocator@D@2@@std@@@2@@std@@QBE?AV012@H@Z ; std::vector<std::basic_string<char,std::char_traits<char>,std::allocator<char> >,std::allocator<std::basic_string<char,std::char_traits<char>,std::allocator<char> > > >::iterator::operator+
  00024	8b c8		 mov	 ecx, eax
  00026	e8 00 00 00 00	 call	 ??Diterator@?$vector@V?$basic_string@DU?$char_traits@D@std@@V?$allocator@D@2@@std@@V?$allocator@V?$basic_string@DU?$char_traits@D@std@@V?$allocator@D@2@@std@@@2@@std@@QBEAAV?$basic_string@DU?$char_traits@D@std@@V?$allocator@D@2@@2@XZ ; std::vector<std::basic_string<char,std::char_traits<char>,std::allocator<char> >,std::allocator<std::basic_string<char,std::char_traits<char>,std::allocator<char> > > >::iterator::operator*

; 556  : 		}

  0002b	8b e5		 mov	 esp, ebp
  0002d	5d		 pop	 ebp
  0002e	c2 04 00	 ret	 4
??A?$vector@V?$basic_string@DU?$char_traits@D@std@@V?$allocator@D@2@@std@@V?$allocator@V?$basic_string@DU?$char_traits@D@std@@V?$allocator@D@2@@std@@@2@@std@@QAEAAV?$basic_string@DU?$char_traits@D@std@@V?$allocator@D@2@@1@I@Z ENDP ; std::vector<std::basic_string<char,std::char_traits<char>,std::allocator<char> >,std::allocator<std::basic_string<char,std::char_traits<char>,std::allocator<char> > > >::operator[]
_TEXT	ENDS
PUBLIC	?capacity@?$vector@V?$basic_string@DU?$char_traits@D@std@@V?$allocator@D@2@@std@@V?$allocator@V?$basic_string@DU?$char_traits@D@std@@V?$allocator@D@2@@std@@@2@@std@@QBEIXZ ; std::vector<std::basic_string<char,std::char_traits<char>,std::allocator<char> >,std::allocator<std::basic_string<char,std::char_traits<char>,std::allocator<char> > > >::capacity
PUBLIC	?end@?$vector@V?$basic_string@DU?$char_traits@D@std@@V?$allocator@D@2@@std@@V?$allocator@V?$basic_string@DU?$char_traits@D@std@@V?$allocator@D@2@@std@@@2@@std@@QAE?AViterator@12@XZ ; std::vector<std::basic_string<char,std::char_traits<char>,std::allocator<char> >,std::allocator<std::basic_string<char,std::char_traits<char>,std::allocator<char> > > >::end
PUBLIC	?insert@?$vector@V?$basic_string@DU?$char_traits@D@std@@V?$allocator@D@2@@std@@V?$allocator@V?$basic_string@DU?$char_traits@D@std@@V?$allocator@D@2@@std@@@2@@std@@QAE?AViterator@12@V312@ABV?$basic_string@DU?$char_traits@D@std@@V?$allocator@D@2@@2@@Z ; std::vector<std::basic_string<char,std::char_traits<char>,std::allocator<char> >,std::allocator<std::basic_string<char,std::char_traits<char>,std::allocator<char> > > >::insert
PUBLIC	?_Ufill@?$vector@V?$basic_string@DU?$char_traits@D@std@@V?$allocator@D@2@@std@@V?$allocator@V?$basic_string@DU?$char_traits@D@std@@V?$allocator@D@2@@std@@@2@@std@@IAEPAV?$basic_string@DU?$char_traits@D@std@@V?$allocator@D@2@@2@PAV32@IABV32@@Z ; std::vector<std::basic_string<char,std::char_traits<char>,std::allocator<char> >,std::allocator<std::basic_string<char,std::char_traits<char>,std::allocator<char> > > >::_Ufill
; Function compile flags: /Odt
;	COMDAT ?push_back@?$vector@V?$basic_string@DU?$char_traits@D@std@@V?$allocator@D@2@@std@@V?$allocator@V?$basic_string@DU?$char_traits@D@std@@V?$allocator@D@2@@std@@@2@@std@@QAEXABV?$basic_string@DU?$char_traits@D@std@@V?$allocator@D@2@@2@@Z
_TEXT	SEGMENT
_this$ = -12						; size = 4
$T201753 = -8						; size = 4
$T201752 = -4						; size = 4
__Val$ = 8						; size = 4
?push_back@?$vector@V?$basic_string@DU?$char_traits@D@std@@V?$allocator@D@2@@std@@V?$allocator@V?$basic_string@DU?$char_traits@D@std@@V?$allocator@D@2@@std@@@2@@std@@QAEXABV?$basic_string@DU?$char_traits@D@std@@V?$allocator@D@2@@2@@Z PROC NEAR ; std::vector<std::basic_string<char,std::char_traits<char>,std::allocator<char> >,std::allocator<std::basic_string<char,std::char_traits<char>,std::allocator<char> > > >::push_back, COMDAT
; _this$ = ecx

; 579  : 		{	// insert element at end

  00000	55		 push	 ebp
  00001	8b ec		 mov	 ebp, esp
  00003	83 ec 0c	 sub	 esp, 12			; 0000000cH
  00006	56		 push	 esi
  00007	89 4d f4	 mov	 DWORD PTR _this$[ebp], ecx

; 580  : 		if (size() < capacity())

  0000a	8b 4d f4	 mov	 ecx, DWORD PTR _this$[ebp]
  0000d	e8 00 00 00 00	 call	 ?size@?$vector@V?$basic_string@DU?$char_traits@D@std@@V?$allocator@D@2@@std@@V?$allocator@V?$basic_string@DU?$char_traits@D@std@@V?$allocator@D@2@@std@@@2@@std@@QBEIXZ ; std::vector<std::basic_string<char,std::char_traits<char>,std::allocator<char> >,std::allocator<std::basic_string<char,std::char_traits<char>,std::allocator<char> > > >::size
  00012	8b f0		 mov	 esi, eax
  00014	8b 4d f4	 mov	 ecx, DWORD PTR _this$[ebp]
  00017	e8 00 00 00 00	 call	 ?capacity@?$vector@V?$basic_string@DU?$char_traits@D@std@@V?$allocator@D@2@@std@@V?$allocator@V?$basic_string@DU?$char_traits@D@std@@V?$allocator@D@2@@std@@@2@@std@@QBEIXZ ; std::vector<std::basic_string<char,std::char_traits<char>,std::allocator<char> >,std::allocator<std::basic_string<char,std::char_traits<char>,std::allocator<char> > > >::capacity
  0001c	3b f0		 cmp	 esi, eax
  0001e	73 1d		 jae	 SHORT $L200576

; 581  : 			_Mylast = _Ufill(_Mylast, 1, _Val);

  00020	8b 45 08	 mov	 eax, DWORD PTR __Val$[ebp]
  00023	50		 push	 eax
  00024	6a 01		 push	 1
  00026	8b 4d f4	 mov	 ecx, DWORD PTR _this$[ebp]
  00029	8b 51 08	 mov	 edx, DWORD PTR [ecx+8]
  0002c	52		 push	 edx
  0002d	8b 4d f4	 mov	 ecx, DWORD PTR _this$[ebp]
  00030	e8 00 00 00 00	 call	 ?_Ufill@?$vector@V?$basic_string@DU?$char_traits@D@std@@V?$allocator@D@2@@std@@V?$allocator@V?$basic_string@DU?$char_traits@D@std@@V?$allocator@D@2@@std@@@2@@std@@IAEPAV?$basic_string@DU?$char_traits@D@std@@V?$allocator@D@2@@2@PAV32@IABV32@@Z ; std::vector<std::basic_string<char,std::char_traits<char>,std::allocator<char> >,std::allocator<std::basic_string<char,std::char_traits<char>,std::allocator<char> > > >::_Ufill
  00035	8b 4d f4	 mov	 ecx, DWORD PTR _this$[ebp]
  00038	89 41 08	 mov	 DWORD PTR [ecx+8], eax

; 582  : 		else

  0003b	eb 1f		 jmp	 SHORT $L200575
$L200576:

; 583  : 			insert(end(), _Val);

  0003d	8b 55 08	 mov	 edx, DWORD PTR __Val$[ebp]
  00040	52		 push	 edx
  00041	8d 45 fc	 lea	 eax, DWORD PTR $T201752[ebp]
  00044	50		 push	 eax
  00045	8b 4d f4	 mov	 ecx, DWORD PTR _this$[ebp]
  00048	e8 00 00 00 00	 call	 ?end@?$vector@V?$basic_string@DU?$char_traits@D@std@@V?$allocator@D@2@@std@@V?$allocator@V?$basic_string@DU?$char_traits@D@std@@V?$allocator@D@2@@std@@@2@@std@@QAE?AViterator@12@XZ ; std::vector<std::basic_string<char,std::char_traits<char>,std::allocator<char> >,std::allocator<std::basic_string<char,std::char_traits<char>,std::allocator<char> > > >::end
  0004d	8b 08		 mov	 ecx, DWORD PTR [eax]
  0004f	51		 push	 ecx
  00050	8d 55 f8	 lea	 edx, DWORD PTR $T201753[ebp]
  00053	52		 push	 edx
  00054	8b 4d f4	 mov	 ecx, DWORD PTR _this$[ebp]
  00057	e8 00 00 00 00	 call	 ?insert@?$vector@V?$basic_string@DU?$char_traits@D@std@@V?$allocator@D@2@@std@@V?$allocator@V?$basic_string@DU?$char_traits@D@std@@V?$allocator@D@2@@std@@@2@@std@@QAE?AViterator@12@V312@ABV?$basic_string@DU?$char_traits@D@std@@V?$allocator@D@2@@2@@Z ; std::vector<std::basic_string<char,std::char_traits<char>,std::allocator<char> >,std::allocator<std::basic_string<char,std::char_traits<char>,std::allocator<char> > > >::insert
$L200575:

; 584  : 		}

  0005c	5e		 pop	 esi
  0005d	8b e5		 mov	 esp, ebp
  0005f	5d		 pop	 ebp
  00060	c2 04 00	 ret	 4
?push_back@?$vector@V?$basic_string@DU?$char_traits@D@std@@V?$allocator@D@2@@std@@V?$allocator@V?$basic_string@DU?$char_traits@D@std@@V?$allocator@D@2@@std@@@2@@std@@QAEXABV?$basic_string@DU?$char_traits@D@std@@V?$allocator@D@2@@2@@Z ENDP ; std::vector<std::basic_string<char,std::char_traits<char>,std::allocator<char> >,std::allocator<std::basic_string<char,std::char_traits<char>,std::allocator<char> > > >::push_back
; Function compile flags: /Odt
; File d:\program files (x86)\microsoft visual studio .net 2003\vc7\include\xmemory
_TEXT	ENDS
;	COMDAT ??0?$allocator@V?$basic_string@DU?$char_traits@D@std@@V?$allocator@D@2@@std@@@std@@QAE@XZ
_TEXT	SEGMENT
_this$ = -4						; size = 4
??0?$allocator@V?$basic_string@DU?$char_traits@D@std@@V?$allocator@D@2@@std@@@std@@QAE@XZ PROC NEAR ; std::allocator<std::basic_string<char,std::char_traits<char>,std::allocator<char> > >::allocator<std::basic_string<char,std::char_traits<char>,std::allocator<char> > >, COMDAT
; _this$ = ecx

; 111  : 	allocator()

  00000	55		 push	 ebp
  00001	8b ec		 mov	 ebp, esp
  00003	51		 push	 ecx
  00004	89 4d fc	 mov	 DWORD PTR _this$[ebp], ecx

; 112  : 		{	// construct default allocator (do nothing)
; 113  : 		}

  00007	8b 45 fc	 mov	 eax, DWORD PTR _this$[ebp]
  0000a	8b e5		 mov	 esp, ebp
  0000c	5d		 pop	 ebp
  0000d	c3		 ret	 0
??0?$allocator@V?$basic_string@DU?$char_traits@D@std@@V?$allocator@D@2@@std@@@std@@QAE@XZ ENDP ; std::allocator<std::basic_string<char,std::char_traits<char>,std::allocator<char> > >::allocator<std::basic_string<char,std::char_traits<char>,std::allocator<char> > >
; Function compile flags: /Odt
; File d:\program files (x86)\microsoft visual studio .net 2003\vc7\include\vector
_TEXT	ENDS
;	COMDAT ?capacity@?$vector@V?$basic_string@DU?$char_traits@D@std@@V?$allocator@D@2@@std@@V?$allocator@V?$basic_string@DU?$char_traits@D@std@@V?$allocator@D@2@@std@@@2@@std@@QBEIXZ
_TEXT	SEGMENT
tv70 = -8						; size = 4
_this$ = -4						; size = 4
?capacity@?$vector@V?$basic_string@DU?$char_traits@D@std@@V?$allocator@D@2@@std@@V?$allocator@V?$basic_string@DU?$char_traits@D@std@@V?$allocator@D@2@@std@@@2@@std@@QBEIXZ PROC NEAR ; std::vector<std::basic_string<char,std::char_traits<char>,std::allocator<char> >,std::allocator<std::basic_string<char,std::char_traits<char>,std::allocator<char> > > >::capacity, COMDAT
; _this$ = ecx

; 457  : 		{	// return current length of allocated storage

  00000	55		 push	 ebp
  00001	8b ec		 mov	 ebp, esp
  00003	83 ec 08	 sub	 esp, 8
  00006	89 4d fc	 mov	 DWORD PTR _this$[ebp], ecx

; 458  : 		return (_Myfirst == 0 ? 0 : _Myend - _Myfirst);

  00009	8b 45 fc	 mov	 eax, DWORD PTR _this$[ebp]
  0000c	83 78 04 00	 cmp	 DWORD PTR [eax+4], 0
  00010	75 09		 jne	 SHORT $L201758
  00012	c7 45 f8 00 00
	00 00		 mov	 DWORD PTR tv70[ebp], 0
  00019	eb 17		 jmp	 SHORT $L201759
$L201758:
  0001b	8b 4d fc	 mov	 ecx, DWORD PTR _this$[ebp]
  0001e	8b 55 fc	 mov	 edx, DWORD PTR _this$[ebp]
  00021	8b 41 0c	 mov	 eax, DWORD PTR [ecx+12]
  00024	2b 42 04	 sub	 eax, DWORD PTR [edx+4]
  00027	99		 cdq
  00028	b9 1c 00 00 00	 mov	 ecx, 28			; 0000001cH
  0002d	f7 f9		 idiv	 ecx
  0002f	89 45 f8	 mov	 DWORD PTR tv70[ebp], eax
$L201759:
  00032	8b 45 f8	 mov	 eax, DWORD PTR tv70[ebp]

; 459  : 		}

  00035	8b e5		 mov	 esp, ebp
  00037	5d		 pop	 ebp
  00038	c3		 ret	 0
?capacity@?$vector@V?$basic_string@DU?$char_traits@D@std@@V?$allocator@D@2@@std@@V?$allocator@V?$basic_string@DU?$char_traits@D@std@@V?$allocator@D@2@@std@@@2@@std@@QBEIXZ ENDP ; std::vector<std::basic_string<char,std::char_traits<char>,std::allocator<char> >,std::allocator<std::basic_string<char,std::char_traits<char>,std::allocator<char> > > >::capacity
_TEXT	ENDS
PUBLIC	??0iterator@?$vector@V?$basic_string@DU?$char_traits@D@std@@V?$allocator@D@2@@std@@V?$allocator@V?$basic_string@DU?$char_traits@D@std@@V?$allocator@D@2@@std@@@2@@std@@QAE@PAV?$basic_string@DU?$char_traits@D@std@@V?$allocator@D@2@@2@@Z ; std::vector<std::basic_string<char,std::char_traits<char>,std::allocator<char> >,std::allocator<std::basic_string<char,std::char_traits<char>,std::allocator<char> > > >::iterator::iterator
; Function compile flags: /Odt
;	COMDAT ?begin@?$vector@V?$basic_string@DU?$char_traits@D@std@@V?$allocator@D@2@@std@@V?$allocator@V?$basic_string@DU?$char_traits@D@std@@V?$allocator@D@2@@std@@@2@@std@@QAE?AViterator@12@XZ
_TEXT	SEGMENT
_this$ = -4						; size = 4
___$ReturnUdt$ = 8					; size = 4
?begin@?$vector@V?$basic_string@DU?$char_traits@D@std@@V?$allocator@D@2@@std@@V?$allocator@V?$basic_string@DU?$char_traits@D@std@@V?$allocator@D@2@@std@@@2@@std@@QAE?AViterator@12@XZ PROC NEAR ; std::vector<std::basic_string<char,std::char_traits<char>,std::allocator<char> >,std::allocator<std::basic_string<char,std::char_traits<char>,std::allocator<char> > > >::begin, COMDAT
; _this$ = ecx

; 462  : 		{	// return iterator for beginning of mutable sequence

  00000	55		 push	 ebp
  00001	8b ec		 mov	 ebp, esp
  00003	51		 push	 ecx
  00004	89 4d fc	 mov	 DWORD PTR _this$[ebp], ecx

; 463  : 		return (iterator(_Myfirst));

  00007	8b 45 fc	 mov	 eax, DWORD PTR _this$[ebp]
  0000a	8b 48 04	 mov	 ecx, DWORD PTR [eax+4]
  0000d	51		 push	 ecx
  0000e	8b 4d 08	 mov	 ecx, DWORD PTR ___$ReturnUdt$[ebp]
  00011	e8 00 00 00 00	 call	 ??0iterator@?$vector@V?$basic_string@DU?$char_traits@D@std@@V?$allocator@D@2@@std@@V?$allocator@V?$basic_string@DU?$char_traits@D@std@@V?$allocator@D@2@@std@@@2@@std@@QAE@PAV?$basic_string@DU?$char_traits@D@std@@V?$allocator@D@2@@2@@Z ; std::vector<std::basic_string<char,std::char_traits<char>,std::allocator<char> >,std::allocator<std::basic_string<char,std::char_traits<char>,std::allocator<char> > > >::iterator::iterator
  00016	8b 45 08	 mov	 eax, DWORD PTR ___$ReturnUdt$[ebp]

; 464  : 		}

  00019	8b e5		 mov	 esp, ebp
  0001b	5d		 pop	 ebp
  0001c	c2 04 00	 ret	 4
?begin@?$vector@V?$basic_string@DU?$char_traits@D@std@@V?$allocator@D@2@@std@@V?$allocator@V?$basic_string@DU?$char_traits@D@std@@V?$allocator@D@2@@std@@@2@@std@@QAE?AViterator@12@XZ ENDP ; std::vector<std::basic_string<char,std::char_traits<char>,std::allocator<char> >,std::allocator<std::basic_string<char,std::char_traits<char>,std::allocator<char> > > >::begin
; Function compile flags: /Odt
_TEXT	ENDS
;	COMDAT ?end@?$vector@V?$basic_string@DU?$char_traits@D@std@@V?$allocator@D@2@@std@@V?$allocator@V?$basic_string@DU?$char_traits@D@std@@V?$allocator@D@2@@std@@@2@@std@@QAE?AViterator@12@XZ
_TEXT	SEGMENT
_this$ = -4						; size = 4
___$ReturnUdt$ = 8					; size = 4
?end@?$vector@V?$basic_string@DU?$char_traits@D@std@@V?$allocator@D@2@@std@@V?$allocator@V?$basic_string@DU?$char_traits@D@std@@V?$allocator@D@2@@std@@@2@@std@@QAE?AViterator@12@XZ PROC NEAR ; std::vector<std::basic_string<char,std::char_traits<char>,std::allocator<char> >,std::allocator<std::basic_string<char,std::char_traits<char>,std::allocator<char> > > >::end, COMDAT
; _this$ = ecx

; 472  : 		{	// return iterator for end of mutable sequence

  00000	55		 push	 ebp
  00001	8b ec		 mov	 ebp, esp
  00003	51		 push	 ecx
  00004	89 4d fc	 mov	 DWORD PTR _this$[ebp], ecx

; 473  : 		return (iterator(_Mylast));

  00007	8b 45 fc	 mov	 eax, DWORD PTR _this$[ebp]
  0000a	8b 48 08	 mov	 ecx, DWORD PTR [eax+8]
  0000d	51		 push	 ecx
  0000e	8b 4d 08	 mov	 ecx, DWORD PTR ___$ReturnUdt$[ebp]
  00011	e8 00 00 00 00	 call	 ??0iterator@?$vector@V?$basic_string@DU?$char_traits@D@std@@V?$allocator@D@2@@std@@V?$allocator@V?$basic_string@DU?$char_traits@D@std@@V?$allocator@D@2@@std@@@2@@std@@QAE@PAV?$basic_string@DU?$char_traits@D@std@@V?$allocator@D@2@@2@@Z ; std::vector<std::basic_string<char,std::char_traits<char>,std::allocator<char> >,std::allocator<std::basic_string<char,std::char_traits<char>,std::allocator<char> > > >::iterator::iterator
  00016	8b 45 08	 mov	 eax, DWORD PTR ___$ReturnUdt$[ebp]

; 474  : 		}

  00019	8b e5		 mov	 esp, ebp
  0001b	5d		 pop	 ebp
  0001c	c2 04 00	 ret	 4
?end@?$vector@V?$basic_string@DU?$char_traits@D@std@@V?$allocator@D@2@@std@@V?$allocator@V?$basic_string@DU?$char_traits@D@std@@V?$allocator@D@2@@std@@@2@@std@@QAE?AViterator@12@XZ ENDP ; std::vector<std::basic_string<char,std::char_traits<char>,std::allocator<char> >,std::allocator<std::basic_string<char,std::char_traits<char>,std::allocator<char> > > >::end
_TEXT	ENDS
PUBLIC	?_Insert_n@?$vector@V?$basic_string@DU?$char_traits@D@std@@V?$allocator@D@2@@std@@V?$allocator@V?$basic_string@DU?$char_traits@D@std@@V?$allocator@D@2@@std@@@2@@std@@IAEXViterator@12@IABV?$basic_string@DU?$char_traits@D@std@@V?$allocator@D@2@@2@@Z ; std::vector<std::basic_string<char,std::char_traits<char>,std::allocator<char> >,std::allocator<std::basic_string<char,std::char_traits<char>,std::allocator<char> > > >::_Insert_n
PUBLIC	??Giterator@?$vector@V?$basic_string@DU?$char_traits@D@std@@V?$allocator@D@2@@std@@V?$allocator@V?$basic_string@DU?$char_traits@D@std@@V?$allocator@D@2@@std@@@2@@std@@QBEHABVconst_iterator@12@@Z ; std::vector<std::basic_string<char,std::char_traits<char>,std::allocator<char> >,std::allocator<std::basic_string<char,std::char_traits<char>,std::allocator<char> > > >::iterator::operator-
; Function compile flags: /Odt
;	COMDAT ?insert@?$vector@V?$basic_string@DU?$char_traits@D@std@@V?$allocator@D@2@@std@@V?$allocator@V?$basic_string@DU?$char_traits@D@std@@V?$allocator@D@2@@std@@@2@@std@@QAE?AViterator@12@V312@ABV?$basic_string@DU?$char_traits@D@std@@V?$allocator@D@2@@2@@Z
_TEXT	SEGMENT
tv73 = -20						; size = 4
_this$ = -16						; size = 4
$T201769 = -12						; size = 4
$T201766 = -8						; size = 4
__Off$ = -4						; size = 4
___$ReturnUdt$ = 8					; size = 4
__Where$ = 12						; size = 4
__Val$ = 16						; size = 4
?insert@?$vector@V?$basic_string@DU?$char_traits@D@std@@V?$allocator@D@2@@std@@V?$allocator@V?$basic_string@DU?$char_traits@D@std@@V?$allocator@D@2@@std@@@2@@std@@QAE?AViterator@12@V312@ABV?$basic_string@DU?$char_traits@D@std@@V?$allocator@D@2@@2@@Z PROC NEAR ; std::vector<std::basic_string<char,std::char_traits<char>,std::allocator<char> >,std::allocator<std::basic_string<char,std::char_traits<char>,std::allocator<char> > > >::insert, COMDAT
; _this$ = ecx

; 620  : 		{	// insert _Val at _Where

  00000	55		 push	 ebp
  00001	8b ec		 mov	 ebp, esp
  00003	83 ec 14	 sub	 esp, 20			; 00000014H
  00006	89 4d f0	 mov	 DWORD PTR _this$[ebp], ecx

; 621  : 		size_type _Off = size() == 0 ? 0 : _Where - begin();

  00009	8b 4d f0	 mov	 ecx, DWORD PTR _this$[ebp]
  0000c	e8 00 00 00 00	 call	 ?size@?$vector@V?$basic_string@DU?$char_traits@D@std@@V?$allocator@D@2@@std@@V?$allocator@V?$basic_string@DU?$char_traits@D@std@@V?$allocator@D@2@@std@@@2@@std@@QBEIXZ ; std::vector<std::basic_string<char,std::char_traits<char>,std::allocator<char> >,std::allocator<std::basic_string<char,std::char_traits<char>,std::allocator<char> > > >::size
  00011	85 c0		 test	 eax, eax
  00013	75 09		 jne	 SHORT $L201767
  00015	c7 45 ec 00 00
	00 00		 mov	 DWORD PTR tv73[ebp], 0
  0001c	eb 18		 jmp	 SHORT $L201768
$L201767:
  0001e	8d 45 f8	 lea	 eax, DWORD PTR $T201766[ebp]
  00021	50		 push	 eax
  00022	8b 4d f0	 mov	 ecx, DWORD PTR _this$[ebp]
  00025	e8 00 00 00 00	 call	 ?begin@?$vector@V?$basic_string@DU?$char_traits@D@std@@V?$allocator@D@2@@std@@V?$allocator@V?$basic_string@DU?$char_traits@D@std@@V?$allocator@D@2@@std@@@2@@std@@QAE?AViterator@12@XZ ; std::vector<std::basic_string<char,std::char_traits<char>,std::allocator<char> >,std::allocator<std::basic_string<char,std::char_traits<char>,std::allocator<char> > > >::begin
  0002a	50		 push	 eax
  0002b	8d 4d 0c	 lea	 ecx, DWORD PTR __Where$[ebp]
  0002e	e8 00 00 00 00	 call	 ??Giterator@?$vector@V?$basic_string@DU?$char_traits@D@std@@V?$allocator@D@2@@std@@V?$allocator@V?$basic_string@DU?$char_traits@D@std@@V?$allocator@D@2@@std@@@2@@std@@QBEHABVconst_iterator@12@@Z ; std::vector<std::basic_string<char,std::char_traits<char>,std::allocator<char> >,std::allocator<std::basic_string<char,std::char_traits<char>,std::allocator<char> > > >::iterator::operator-
  00033	89 45 ec	 mov	 DWORD PTR tv73[ebp], eax
$L201768:
  00036	8b 4d ec	 mov	 ecx, DWORD PTR tv73[ebp]
  00039	89 4d fc	 mov	 DWORD PTR __Off$[ebp], ecx

; 622  : 		_Insert_n(_Where, (size_type)1, _Val);

  0003c	8b 55 10	 mov	 edx, DWORD PTR __Val$[ebp]
  0003f	52		 push	 edx
  00040	6a 01		 push	 1
  00042	8b 45 0c	 mov	 eax, DWORD PTR __Where$[ebp]
  00045	50		 push	 eax
  00046	8b 4d f0	 mov	 ecx, DWORD PTR _this$[ebp]
  00049	e8 00 00 00 00	 call	 ?_Insert_n@?$vector@V?$basic_string@DU?$char_traits@D@std@@V?$allocator@D@2@@std@@V?$allocator@V?$basic_string@DU?$char_traits@D@std@@V?$allocator@D@2@@std@@@2@@std@@IAEXViterator@12@IABV?$basic_string@DU?$char_traits@D@std@@V?$allocator@D@2@@2@@Z ; std::vector<std::basic_string<char,std::char_traits<char>,std::allocator<char> >,std::allocator<std::basic_string<char,std::char_traits<char>,std::allocator<char> > > >::_Insert_n

; 623  : 		return (begin() + _Off);

  0004e	8b 4d fc	 mov	 ecx, DWORD PTR __Off$[ebp]
  00051	51		 push	 ecx
  00052	8b 55 08	 mov	 edx, DWORD PTR ___$ReturnUdt$[ebp]
  00055	52		 push	 edx
  00056	8d 45 f4	 lea	 eax, DWORD PTR $T201769[ebp]
  00059	50		 push	 eax
  0005a	8b 4d f0	 mov	 ecx, DWORD PTR _this$[ebp]
  0005d	e8 00 00 00 00	 call	 ?begin@?$vector@V?$basic_string@DU?$char_traits@D@std@@V?$allocator@D@2@@std@@V?$allocator@V?$basic_string@DU?$char_traits@D@std@@V?$allocator@D@2@@std@@@2@@std@@QAE?AViterator@12@XZ ; std::vector<std::basic_string<char,std::char_traits<char>,std::allocator<char> >,std::allocator<std::basic_string<char,std::char_traits<char>,std::allocator<char> > > >::begin
  00062	8b c8		 mov	 ecx, eax
  00064	e8 00 00 00 00	 call	 ??Hiterator@?$vector@V?$basic_string@DU?$char_traits@D@std@@V?$allocator@D@2@@std@@V?$allocator@V?$basic_string@DU?$char_traits@D@std@@V?$allocator@D@2@@std@@@2@@std@@QBE?AV012@H@Z ; std::vector<std::basic_string<char,std::char_traits<char>,std::allocator<char> >,std::allocator<std::basic_string<char,std::char_traits<char>,std::allocator<char> > > >::iterator::operator+
  00069	8b 45 08	 mov	 eax, DWORD PTR ___$ReturnUdt$[ebp]

; 624  : 		}

  0006c	8b e5		 mov	 esp, ebp
  0006e	5d		 pop	 ebp
  0006f	c2 0c 00	 ret	 12			; 0000000cH
?insert@?$vector@V?$basic_string@DU?$char_traits@D@std@@V?$allocator@D@2@@std@@V?$allocator@V?$basic_string@DU?$char_traits@D@std@@V?$allocator@D@2@@std@@@2@@std@@QAE?AViterator@12@V312@ABV?$basic_string@DU?$char_traits@D@std@@V?$allocator@D@2@@2@@Z ENDP ; std::vector<std::basic_string<char,std::char_traits<char>,std::allocator<char> >,std::allocator<std::basic_string<char,std::char_traits<char>,std::allocator<char> > > >::insert
_TEXT	ENDS
PUBLIC	?allocate@?$allocator@V?$basic_string@DU?$char_traits@D@std@@V?$allocator@D@2@@std@@@std@@QAEPAV?$basic_string@DU?$char_traits@D@std@@V?$allocator@D@2@@2@I@Z ; std::allocator<std::basic_string<char,std::char_traits<char>,std::allocator<char> > >::allocate
PUBLIC	?max_size@?$vector@V?$basic_string@DU?$char_traits@D@std@@V?$allocator@D@2@@std@@V?$allocator@V?$basic_string@DU?$char_traits@D@std@@V?$allocator@D@2@@std@@@2@@std@@QBEIXZ ; std::vector<std::basic_string<char,std::char_traits<char>,std::allocator<char> >,std::allocator<std::basic_string<char,std::char_traits<char>,std::allocator<char> > > >::max_size
PUBLIC	?_Xlen@?$vector@V?$basic_string@DU?$char_traits@D@std@@V?$allocator@D@2@@std@@V?$allocator@V?$basic_string@DU?$char_traits@D@std@@V?$allocator@D@2@@std@@@2@@std@@IBEXXZ ; std::vector<std::basic_string<char,std::char_traits<char>,std::allocator<char> >,std::allocator<std::basic_string<char,std::char_traits<char>,std::allocator<char> > > >::_Xlen
; Function compile flags: /Odt
;	COMDAT ?_Buy@?$vector@V?$basic_string@DU?$char_traits@D@std@@V?$allocator@D@2@@std@@V?$allocator@V?$basic_string@DU?$char_traits@D@std@@V?$allocator@D@2@@std@@@2@@std@@IAE_NI@Z
_TEXT	SEGMENT
_this$ = -4						; size = 4
__Capacity$ = 8						; size = 4
?_Buy@?$vector@V?$basic_string@DU?$char_traits@D@std@@V?$allocator@D@2@@std@@V?$allocator@V?$basic_string@DU?$char_traits@D@std@@V?$allocator@D@2@@std@@@2@@std@@IAE_NI@Z PROC NEAR ; std::vector<std::basic_string<char,std::char_traits<char>,std::allocator<char> >,std::allocator<std::basic_string<char,std::char_traits<char>,std::allocator<char> > > >::_Buy, COMDAT
; _this$ = ecx

; 770  : 		{	// allocate array with _Capacity elements

  00000	55		 push	 ebp
  00001	8b ec		 mov	 ebp, esp
  00003	51		 push	 ecx
  00004	89 4d fc	 mov	 DWORD PTR _this$[ebp], ecx

; 771  : 		_Myfirst = 0, _Mylast = 0, _Myend = 0;

  00007	8b 45 fc	 mov	 eax, DWORD PTR _this$[ebp]
  0000a	c7 40 04 00 00
	00 00		 mov	 DWORD PTR [eax+4], 0
  00011	8b 4d fc	 mov	 ecx, DWORD PTR _this$[ebp]
  00014	c7 41 08 00 00
	00 00		 mov	 DWORD PTR [ecx+8], 0
  0001b	8b 55 fc	 mov	 edx, DWORD PTR _this$[ebp]
  0001e	c7 42 0c 00 00
	00 00		 mov	 DWORD PTR [edx+12], 0

; 772  : 		if (_Capacity == 0)

  00025	83 7d 08 00	 cmp	 DWORD PTR __Capacity$[ebp], 0
  00029	75 04		 jne	 SHORT $L200630

; 773  : 			return (false);

  0002b	32 c0		 xor	 al, al
  0002d	eb 49		 jmp	 SHORT $L200629
$L200630:

; 774  : 		else if (max_size() < _Capacity)

  0002f	8b 4d fc	 mov	 ecx, DWORD PTR _this$[ebp]
  00032	e8 00 00 00 00	 call	 ?max_size@?$vector@V?$basic_string@DU?$char_traits@D@std@@V?$allocator@D@2@@std@@V?$allocator@V?$basic_string@DU?$char_traits@D@std@@V?$allocator@D@2@@std@@@2@@std@@QBEIXZ ; std::vector<std::basic_string<char,std::char_traits<char>,std::allocator<char> >,std::allocator<std::basic_string<char,std::char_traits<char>,std::allocator<char> > > >::max_size
  00037	3b 45 08	 cmp	 eax, DWORD PTR __Capacity$[ebp]
  0003a	73 0a		 jae	 SHORT $L200632

; 775  : 			_Xlen();	// result too long

  0003c	8b 4d fc	 mov	 ecx, DWORD PTR _this$[ebp]
  0003f	e8 00 00 00 00	 call	 ?_Xlen@?$vector@V?$basic_string@DU?$char_traits@D@std@@V?$allocator@D@2@@std@@V?$allocator@V?$basic_string@DU?$char_traits@D@std@@V?$allocator@D@2@@std@@@2@@std@@IBEXXZ ; std::vector<std::basic_string<char,std::char_traits<char>,std::allocator<char> >,std::allocator<std::basic_string<char,std::char_traits<char>,std::allocator<char> > > >::_Xlen

; 776  : 		else

  00044	eb 30		 jmp	 SHORT $L200631
$L200632:

; 777  : 			{	// nonempty array, allocate storage
; 778  : 			_Myfirst = this->_Alval.allocate(_Capacity);

  00046	8b 45 08	 mov	 eax, DWORD PTR __Capacity$[ebp]
  00049	50		 push	 eax
  0004a	8b 4d fc	 mov	 ecx, DWORD PTR _this$[ebp]
  0004d	e8 00 00 00 00	 call	 ?allocate@?$allocator@V?$basic_string@DU?$char_traits@D@std@@V?$allocator@D@2@@std@@@std@@QAEPAV?$basic_string@DU?$char_traits@D@std@@V?$allocator@D@2@@2@I@Z ; std::allocator<std::basic_string<char,std::char_traits<char>,std::allocator<char> > >::allocate
  00052	8b 4d fc	 mov	 ecx, DWORD PTR _this$[ebp]
  00055	89 41 04	 mov	 DWORD PTR [ecx+4], eax

; 779  : 			_Mylast = _Myfirst;

  00058	8b 55 fc	 mov	 edx, DWORD PTR _this$[ebp]
  0005b	8b 45 fc	 mov	 eax, DWORD PTR _this$[ebp]
  0005e	8b 48 04	 mov	 ecx, DWORD PTR [eax+4]
  00061	89 4a 08	 mov	 DWORD PTR [edx+8], ecx

; 780  : 			_Myend = _Myfirst + _Capacity;

  00064	8b 55 08	 mov	 edx, DWORD PTR __Capacity$[ebp]
  00067	6b d2 1c	 imul	 edx, 28			; 0000001cH
  0006a	8b 45 fc	 mov	 eax, DWORD PTR _this$[ebp]
  0006d	03 50 04	 add	 edx, DWORD PTR [eax+4]
  00070	8b 4d fc	 mov	 ecx, DWORD PTR _this$[ebp]
  00073	89 51 0c	 mov	 DWORD PTR [ecx+12], edx
$L200631:

; 781  : 			}
; 782  : 		return (true);

  00076	b0 01		 mov	 al, 1
$L200629:

; 783  : 		}

  00078	8b e5		 mov	 esp, ebp
  0007a	5d		 pop	 ebp
  0007b	c2 04 00	 ret	 4
?_Buy@?$vector@V?$basic_string@DU?$char_traits@D@std@@V?$allocator@D@2@@std@@V?$allocator@V?$basic_string@DU?$char_traits@D@std@@V?$allocator@D@2@@std@@@2@@std@@IAE_NI@Z ENDP ; std::vector<std::basic_string<char,std::char_traits<char>,std::allocator<char> >,std::allocator<std::basic_string<char,std::char_traits<char>,std::allocator<char> > > >::_Buy
_TEXT	ENDS
PUBLIC	?deallocate@?$allocator@V?$basic_string@DU?$char_traits@D@std@@V?$allocator@D@2@@std@@@std@@QAEXPAV?$basic_string@DU?$char_traits@D@std@@V?$allocator@D@2@@2@I@Z ; std::allocator<std::basic_string<char,std::char_traits<char>,std::allocator<char> > >::deallocate
PUBLIC	?_Destroy@?$vector@V?$basic_string@DU?$char_traits@D@std@@V?$allocator@D@2@@std@@V?$allocator@V?$basic_string@DU?$char_traits@D@std@@V?$allocator@D@2@@std@@@2@@std@@IAEXPAV?$basic_string@DU?$char_traits@D@std@@V?$allocator@D@2@@2@0@Z ; std::vector<std::basic_string<char,std::char_traits<char>,std::allocator<char> >,std::allocator<std::basic_string<char,std::char_traits<char>,std::allocator<char> > > >::_Destroy
; Function compile flags: /Odt
;	COMDAT ?_Tidy@?$vector@V?$basic_string@DU?$char_traits@D@std@@V?$allocator@D@2@@std@@V?$allocator@V?$basic_string@DU?$char_traits@D@std@@V?$allocator@D@2@@std@@@2@@std@@IAEXXZ
_TEXT	SEGMENT
_this$ = -4						; size = 4
?_Tidy@?$vector@V?$basic_string@DU?$char_traits@D@std@@V?$allocator@D@2@@std@@V?$allocator@V?$basic_string@DU?$char_traits@D@std@@V?$allocator@D@2@@std@@@2@@std@@IAEXXZ PROC NEAR ; std::vector<std::basic_string<char,std::char_traits<char>,std::allocator<char> >,std::allocator<std::basic_string<char,std::char_traits<char>,std::allocator<char> > > >::_Tidy, COMDAT
; _this$ = ecx

; 791  : 		{	// free all storage

  00000	55		 push	 ebp
  00001	8b ec		 mov	 ebp, esp
  00003	51		 push	 ecx
  00004	89 4d fc	 mov	 DWORD PTR _this$[ebp], ecx

; 792  : 		if (_Myfirst != 0)

  00007	8b 45 fc	 mov	 eax, DWORD PTR _this$[ebp]
  0000a	83 78 04 00	 cmp	 DWORD PTR [eax+4], 0
  0000e	74 3c		 je	 SHORT $L200636

; 793  : 			{	// something to free, destroy and deallocate it
; 794  : 			_Destroy(_Myfirst, _Mylast);

  00010	8b 4d fc	 mov	 ecx, DWORD PTR _this$[ebp]
  00013	8b 51 08	 mov	 edx, DWORD PTR [ecx+8]
  00016	52		 push	 edx
  00017	8b 45 fc	 mov	 eax, DWORD PTR _this$[ebp]
  0001a	8b 48 04	 mov	 ecx, DWORD PTR [eax+4]
  0001d	51		 push	 ecx
  0001e	8b 4d fc	 mov	 ecx, DWORD PTR _this$[ebp]
  00021	e8 00 00 00 00	 call	 ?_Destroy@?$vector@V?$basic_string@DU?$char_traits@D@std@@V?$allocator@D@2@@std@@V?$allocator@V?$basic_string@DU?$char_traits@D@std@@V?$allocator@D@2@@std@@@2@@std@@IAEXPAV?$basic_string@DU?$char_traits@D@std@@V?$allocator@D@2@@2@0@Z ; std::vector<std::basic_string<char,std::char_traits<char>,std::allocator<char> >,std::allocator<std::basic_string<char,std::char_traits<char>,std::allocator<char> > > >::_Destroy

; 795  : 			this->_Alval.deallocate(_Myfirst, _Myend - _Myfirst);

  00026	8b 55 fc	 mov	 edx, DWORD PTR _this$[ebp]
  00029	8b 45 fc	 mov	 eax, DWORD PTR _this$[ebp]
  0002c	8b 4a 0c	 mov	 ecx, DWORD PTR [edx+12]
  0002f	2b 48 04	 sub	 ecx, DWORD PTR [eax+4]
  00032	8b c1		 mov	 eax, ecx
  00034	99		 cdq
  00035	b9 1c 00 00 00	 mov	 ecx, 28			; 0000001cH
  0003a	f7 f9		 idiv	 ecx
  0003c	50		 push	 eax
  0003d	8b 55 fc	 mov	 edx, DWORD PTR _this$[ebp]
  00040	8b 42 04	 mov	 eax, DWORD PTR [edx+4]
  00043	50		 push	 eax
  00044	8b 4d fc	 mov	 ecx, DWORD PTR _this$[ebp]
  00047	e8 00 00 00 00	 call	 ?deallocate@?$allocator@V?$basic_string@DU?$char_traits@D@std@@V?$allocator@D@2@@std@@@std@@QAEXPAV?$basic_string@DU?$char_traits@D@std@@V?$allocator@D@2@@2@I@Z ; std::allocator<std::basic_string<char,std::char_traits<char>,std::allocator<char> > >::deallocate
$L200636:

; 796  : 			}
; 797  : 		_Myfirst = 0, _Mylast = 0, _Myend = 0;

  0004c	8b 4d fc	 mov	 ecx, DWORD PTR _this$[ebp]
  0004f	c7 41 04 00 00
	00 00		 mov	 DWORD PTR [ecx+4], 0
  00056	8b 55 fc	 mov	 edx, DWORD PTR _this$[ebp]
  00059	c7 42 08 00 00
	00 00		 mov	 DWORD PTR [edx+8], 0
  00060	8b 45 fc	 mov	 eax, DWORD PTR _this$[ebp]
  00063	c7 40 0c 00 00
	00 00		 mov	 DWORD PTR [eax+12], 0

; 798  : 		}

  0006a	8b e5		 mov	 esp, ebp
  0006c	5d		 pop	 ebp
  0006d	c3		 ret	 0
?_Tidy@?$vector@V?$basic_string@DU?$char_traits@D@std@@V?$allocator@D@2@@std@@V?$allocator@V?$basic_string@DU?$char_traits@D@std@@V?$allocator@D@2@@std@@@2@@std@@IAEXXZ ENDP ; std::vector<std::basic_string<char,std::char_traits<char>,std::allocator<char> >,std::allocator<std::basic_string<char,std::char_traits<char>,std::allocator<char> > > >::_Tidy
_TEXT	ENDS
PUBLIC	??$_Uninitialized_fill_n@PAV?$basic_string@DU?$char_traits@D@std@@V?$allocator@D@2@@std@@IV12@V?$allocator@V?$basic_string@DU?$char_traits@D@std@@V?$allocator@D@2@@std@@@2@@std@@YAXPAV?$basic_string@DU?$char_traits@D@std@@V?$allocator@D@2@@0@IABV10@AAV?$allocator@V?$basic_string@DU?$char_traits@D@std@@V?$allocator@D@2@@std@@@0@@Z ; std::_Uninitialized_fill_n<std::basic_string<char,std::char_traits<char>,std::allocator<char> > *,unsigned int,std::basic_string<char,std::char_traits<char>,std::allocator<char> >,std::allocator<std::basic_string<char,std::char_traits<char>,std::allocator<char> > > >
; Function compile flags: /Odt
;	COMDAT ?_Ufill@?$vector@V?$basic_string@DU?$char_traits@D@std@@V?$allocator@D@2@@std@@V?$allocator@V?$basic_string@DU?$char_traits@D@std@@V?$allocator@D@2@@std@@@2@@std@@IAEPAV?$basic_string@DU?$char_traits@D@std@@V?$allocator@D@2@@2@PAV32@IABV32@@Z
_TEXT	SEGMENT
_this$ = -4						; size = 4
__Ptr$ = 8						; size = 4
__Count$ = 12						; size = 4
__Val$ = 16						; size = 4
?_Ufill@?$vector@V?$basic_string@DU?$char_traits@D@std@@V?$allocator@D@2@@std@@V?$allocator@V?$basic_string@DU?$char_traits@D@std@@V?$allocator@D@2@@std@@@2@@std@@IAEPAV?$basic_string@DU?$char_traits@D@std@@V?$allocator@D@2@@2@PAV32@IABV32@@Z PROC NEAR ; std::vector<std::basic_string<char,std::char_traits<char>,std::allocator<char> >,std::allocator<std::basic_string<char,std::char_traits<char>,std::allocator<char> > > >::_Ufill, COMDAT
; _this$ = ecx

; 877  : 		{	// copy initializing _Count * _Val, using allocator

  00000	55		 push	 ebp
  00001	8b ec		 mov	 ebp, esp
  00003	51		 push	 ecx
  00004	89 4d fc	 mov	 DWORD PTR _this$[ebp], ecx

; 878  : 		_Uninitialized_fill_n(_Ptr, _Count, _Val, this->_Alval);

  00007	8b 45 fc	 mov	 eax, DWORD PTR _this$[ebp]
  0000a	50		 push	 eax
  0000b	8b 4d 10	 mov	 ecx, DWORD PTR __Val$[ebp]
  0000e	51		 push	 ecx
  0000f	8b 55 0c	 mov	 edx, DWORD PTR __Count$[ebp]
  00012	52		 push	 edx
  00013	8b 45 08	 mov	 eax, DWORD PTR __Ptr$[ebp]
  00016	50		 push	 eax
  00017	e8 00 00 00 00	 call	 ??$_Uninitialized_fill_n@PAV?$basic_string@DU?$char_traits@D@std@@V?$allocator@D@2@@std@@IV12@V?$allocator@V?$basic_string@DU?$char_traits@D@std@@V?$allocator@D@2@@std@@@2@@std@@YAXPAV?$basic_string@DU?$char_traits@D@std@@V?$allocator@D@2@@0@IABV10@AAV?$allocator@V?$basic_string@DU?$char_traits@D@std@@V?$allocator@D@2@@std@@@0@@Z ; std::_Uninitialized_fill_n<std::basic_string<char,std::char_traits<char>,std::allocator<char> > *,unsigned int,std::basic_string<char,std::char_traits<char>,std::allocator<char> >,std::allocator<std::basic_string<char,std::char_traits<char>,std::allocator<char> > > >
  0001c	83 c4 10	 add	 esp, 16			; 00000010H

; 879  : 		return (_Ptr + _Count);

  0001f	8b 45 0c	 mov	 eax, DWORD PTR __Count$[ebp]
  00022	6b c0 1c	 imul	 eax, 28			; 0000001cH
  00025	03 45 08	 add	 eax, DWORD PTR __Ptr$[ebp]

; 880  : 		}

  00028	8b e5		 mov	 esp, ebp
  0002a	5d		 pop	 ebp
  0002b	c2 0c 00	 ret	 12			; 0000000cH
?_Ufill@?$vector@V?$basic_string@DU?$char_traits@D@std@@V?$allocator@D@2@@std@@V?$allocator@V?$basic_string@DU?$char_traits@D@std@@V?$allocator@D@2@@std@@@2@@std@@IAEPAV?$basic_string@DU?$char_traits@D@std@@V?$allocator@D@2@@2@PAV32@IABV32@@Z ENDP ; std::vector<std::basic_string<char,std::char_traits<char>,std::allocator<char> >,std::allocator<std::basic_string<char,std::char_traits<char>,std::allocator<char> > > >::_Ufill
_TEXT	ENDS
PUBLIC	??0?$allocator@V?$basic_string@DU?$char_traits@D@std@@V?$allocator@D@2@@std@@@std@@QAE@ABV01@@Z ; std::allocator<std::basic_string<char,std::char_traits<char>,std::allocator<char> > >::allocator<std::basic_string<char,std::char_traits<char>,std::allocator<char> > >
; Function compile flags: /Odt
;	COMDAT ??0?$_Vector_val@V?$basic_string@DU?$char_traits@D@std@@V?$allocator@D@2@@std@@V?$allocator@V?$basic_string@DU?$char_traits@D@std@@V?$allocator@D@2@@std@@@2@@std@@IAE@V?$allocator@V?$basic_string@DU?$char_traits@D@std@@V?$allocator@D@2@@std@@@1@@Z
_TEXT	SEGMENT
_this$ = -4						; size = 4
__Al$ = 8						; size = 1
??0?$_Vector_val@V?$basic_string@DU?$char_traits@D@std@@V?$allocator@D@2@@std@@V?$allocator@V?$basic_string@DU?$char_traits@D@std@@V?$allocator@D@2@@std@@@2@@std@@IAE@V?$allocator@V?$basic_string@DU?$char_traits@D@std@@V?$allocator@D@2@@std@@@1@@Z PROC NEAR ; std::_Vector_val<std::basic_string<char,std::char_traits<char>,std::allocator<char> >,std::allocator<std::basic_string<char,std::char_traits<char>,std::allocator<char> > > >::_Vector_val<std::basic_string<char,std::char_traits<char>,std::allocator<char> >,std::allocator<std::basic_string<char,std::char_traits<char>,std::allocator<char> > > >, COMDAT
; _this$ = ecx

; 21   : 		{	// construct allocator from _Al

  00000	55		 push	 ebp
  00001	8b ec		 mov	 ebp, esp
  00003	51		 push	 ecx
  00004	89 4d fc	 mov	 DWORD PTR _this$[ebp], ecx
  00007	8d 45 08	 lea	 eax, DWORD PTR __Al$[ebp]
  0000a	50		 push	 eax
  0000b	8b 4d fc	 mov	 ecx, DWORD PTR _this$[ebp]
  0000e	e8 00 00 00 00	 call	 ??0?$allocator@V?$basic_string@DU?$char_traits@D@std@@V?$allocator@D@2@@std@@@std@@QAE@ABV01@@Z ; std::allocator<std::basic_string<char,std::char_traits<char>,std::allocator<char> > >::allocator<std::basic_string<char,std::char_traits<char>,std::allocator<char> > >

; 22   : 		}

  00013	8b 45 fc	 mov	 eax, DWORD PTR _this$[ebp]
  00016	8b e5		 mov	 esp, ebp
  00018	5d		 pop	 ebp
  00019	c2 04 00	 ret	 4
??0?$_Vector_val@V?$basic_string@DU?$char_traits@D@std@@V?$allocator@D@2@@std@@V?$allocator@V?$basic_string@DU?$char_traits@D@std@@V?$allocator@D@2@@std@@@2@@std@@IAE@V?$allocator@V?$basic_string@DU?$char_traits@D@std@@V?$allocator@D@2@@std@@@1@@Z ENDP ; std::_Vector_val<std::basic_string<char,std::char_traits<char>,std::allocator<char> >,std::allocator<std::basic_string<char,std::char_traits<char>,std::allocator<char> > > >::_Vector_val<std::basic_string<char,std::char_traits<char>,std::allocator<char> >,std::allocator<std::basic_string<char,std::char_traits<char>,std::allocator<char> > > >
_TEXT	ENDS
PUBLIC	??Dconst_iterator@?$vector@V?$basic_string@DU?$char_traits@D@std@@V?$allocator@D@2@@std@@V?$allocator@V?$basic_string@DU?$char_traits@D@std@@V?$allocator@D@2@@std@@@2@@std@@QBEABV?$basic_string@DU?$char_traits@D@std@@V?$allocator@D@2@@2@XZ ; std::vector<std::basic_string<char,std::char_traits<char>,std::allocator<char> >,std::allocator<std::basic_string<char,std::char_traits<char>,std::allocator<char> > > >::const_iterator::operator*
; Function compile flags: /Odt
;	COMDAT ??Diterator@?$vector@V?$basic_string@DU?$char_traits@D@std@@V?$allocator@D@2@@std@@V?$allocator@V?$basic_string@DU?$char_traits@D@std@@V?$allocator@D@2@@std@@@2@@std@@QBEAAV?$basic_string@DU?$char_traits@D@std@@V?$allocator@D@2@@2@XZ
_TEXT	SEGMENT
_this$ = -4						; size = 4
??Diterator@?$vector@V?$basic_string@DU?$char_traits@D@std@@V?$allocator@D@2@@std@@V?$allocator@V?$basic_string@DU?$char_traits@D@std@@V?$allocator@D@2@@std@@@2@@std@@QBEAAV?$basic_string@DU?$char_traits@D@std@@V?$allocator@D@2@@2@XZ PROC NEAR ; std::vector<std::basic_string<char,std::char_traits<char>,std::allocator<char> >,std::allocator<std::basic_string<char,std::char_traits<char>,std::allocator<char> > > >::iterator::operator*, COMDAT
; _this$ = ecx

; 219  : 			{	// return designated object

  00000	55		 push	 ebp
  00001	8b ec		 mov	 ebp, esp
  00003	51		 push	 ecx
  00004	89 4d fc	 mov	 DWORD PTR _this$[ebp], ecx

; 220  : 			return ((reference)**(const_iterator *)this);

  00007	8b 4d fc	 mov	 ecx, DWORD PTR _this$[ebp]
  0000a	e8 00 00 00 00	 call	 ??Dconst_iterator@?$vector@V?$basic_string@DU?$char_traits@D@std@@V?$allocator@D@2@@std@@V?$allocator@V?$basic_string@DU?$char_traits@D@std@@V?$allocator@D@2@@std@@@2@@std@@QBEABV?$basic_string@DU?$char_traits@D@std@@V?$allocator@D@2@@2@XZ ; std::vector<std::basic_string<char,std::char_traits<char>,std::allocator<char> >,std::allocator<std::basic_string<char,std::char_traits<char>,std::allocator<char> > > >::const_iterator::operator*

; 221  : 			}

  0000f	8b e5		 mov	 esp, ebp
  00011	5d		 pop	 ebp
  00012	c3		 ret	 0
??Diterator@?$vector@V?$basic_string@DU?$char_traits@D@std@@V?$allocator@D@2@@std@@V?$allocator@V?$basic_string@DU?$char_traits@D@std@@V?$allocator@D@2@@std@@@2@@std@@QBEAAV?$basic_string@DU?$char_traits@D@std@@V?$allocator@D@2@@2@XZ ENDP ; std::vector<std::basic_string<char,std::char_traits<char>,std::allocator<char> >,std::allocator<std::basic_string<char,std::char_traits<char>,std::allocator<char> > > >::iterator::operator*
_TEXT	ENDS
PUBLIC	??Yiterator@?$vector@V?$basic_string@DU?$char_traits@D@std@@V?$allocator@D@2@@std@@V?$allocator@V?$basic_string@DU?$char_traits@D@std@@V?$allocator@D@2@@std@@@2@@std@@QAEAAV012@H@Z ; std::vector<std::basic_string<char,std::char_traits<char>,std::allocator<char> >,std::allocator<std::basic_string<char,std::char_traits<char>,std::allocator<char> > > >::iterator::operator+=
; Function compile flags: /Odt
;	COMDAT ??Hiterator@?$vector@V?$basic_string@DU?$char_traits@D@std@@V?$allocator@D@2@@std@@V?$allocator@V?$basic_string@DU?$char_traits@D@std@@V?$allocator@D@2@@std@@@2@@std@@QBE?AV012@H@Z
_TEXT	SEGMENT
_this$ = -8						; size = 4
__Tmp$ = -4						; size = 4
___$ReturnUdt$ = 8					; size = 4
__Off$ = 12						; size = 4
??Hiterator@?$vector@V?$basic_string@DU?$char_traits@D@std@@V?$allocator@D@2@@std@@V?$allocator@V?$basic_string@DU?$char_traits@D@std@@V?$allocator@D@2@@std@@@2@@std@@QBE?AV012@H@Z PROC NEAR ; std::vector<std::basic_string<char,std::char_traits<char>,std::allocator<char> >,std::allocator<std::basic_string<char,std::char_traits<char>,std::allocator<char> > > >::iterator::operator+, COMDAT
; _this$ = ecx

; 261  : 			{	// return this + integer

  00000	55		 push	 ebp
  00001	8b ec		 mov	 ebp, esp
  00003	83 ec 08	 sub	 esp, 8
  00006	89 4d f8	 mov	 DWORD PTR _this$[ebp], ecx

; 262  : 			iterator _Tmp = *this;

  00009	8b 45 f8	 mov	 eax, DWORD PTR _this$[ebp]
  0000c	8b 08		 mov	 ecx, DWORD PTR [eax]
  0000e	89 4d fc	 mov	 DWORD PTR __Tmp$[ebp], ecx

; 263  : 			return (_Tmp += _Off);

  00011	8b 55 0c	 mov	 edx, DWORD PTR __Off$[ebp]
  00014	52		 push	 edx
  00015	8d 4d fc	 lea	 ecx, DWORD PTR __Tmp$[ebp]
  00018	e8 00 00 00 00	 call	 ??Yiterator@?$vector@V?$basic_string@DU?$char_traits@D@std@@V?$allocator@D@2@@std@@V?$allocator@V?$basic_string@DU?$char_traits@D@std@@V?$allocator@D@2@@std@@@2@@std@@QAEAAV012@H@Z ; std::vector<std::basic_string<char,std::char_traits<char>,std::allocator<char> >,std::allocator<std::basic_string<char,std::char_traits<char>,std::allocator<char> > > >::iterator::operator+=
  0001d	8b 00		 mov	 eax, DWORD PTR [eax]
  0001f	8b 4d 08	 mov	 ecx, DWORD PTR ___$ReturnUdt$[ebp]
  00022	89 01		 mov	 DWORD PTR [ecx], eax
  00024	8b 45 08	 mov	 eax, DWORD PTR ___$ReturnUdt$[ebp]

; 264  : 			}

  00027	8b e5		 mov	 esp, ebp
  00029	5d		 pop	 ebp
  0002a	c2 08 00	 ret	 8
??Hiterator@?$vector@V?$basic_string@DU?$char_traits@D@std@@V?$allocator@D@2@@std@@V?$allocator@V?$basic_string@DU?$char_traits@D@std@@V?$allocator@D@2@@std@@@2@@std@@QBE?AV012@H@Z ENDP ; std::vector<std::basic_string<char,std::char_traits<char>,std::allocator<char> >,std::allocator<std::basic_string<char,std::char_traits<char>,std::allocator<char> > > >::iterator::operator+
; Function compile flags: /Odt
; File d:\program files (x86)\microsoft visual studio .net 2003\vc7\include\xmemory
_TEXT	ENDS
;	COMDAT ??0?$allocator@V?$basic_string@DU?$char_traits@D@std@@V?$allocator@D@2@@std@@@std@@QAE@ABV01@@Z
_TEXT	SEGMENT
_this$ = -4						; size = 4
___formal$ = 8						; size = 4
??0?$allocator@V?$basic_string@DU?$char_traits@D@std@@V?$allocator@D@2@@std@@@std@@QAE@ABV01@@Z PROC NEAR ; std::allocator<std::basic_string<char,std::char_traits<char>,std::allocator<char> > >::allocator<std::basic_string<char,std::char_traits<char>,std::allocator<char> > >, COMDAT
; _this$ = ecx

; 115  : 	allocator(const allocator<_Ty>&)

  00000	55		 push	 ebp
  00001	8b ec		 mov	 ebp, esp
  00003	51		 push	 ecx
  00004	89 4d fc	 mov	 DWORD PTR _this$[ebp], ecx

; 116  : 		{	// construct by copying (do nothing)
; 117  : 		}

  00007	8b 45 fc	 mov	 eax, DWORD PTR _this$[ebp]
  0000a	8b e5		 mov	 esp, ebp
  0000c	5d		 pop	 ebp
  0000d	c2 04 00	 ret	 4
??0?$allocator@V?$basic_string@DU?$char_traits@D@std@@V?$allocator@D@2@@std@@@std@@QAE@ABV01@@Z ENDP ; std::allocator<std::basic_string<char,std::char_traits<char>,std::allocator<char> > >::allocator<std::basic_string<char,std::char_traits<char>,std::allocator<char> > >
; Function compile flags: /Odt
_TEXT	ENDS
;	COMDAT ?deallocate@?$allocator@V?$basic_string@DU?$char_traits@D@std@@V?$allocator@D@2@@std@@@std@@QAEXPAV?$basic_string@DU?$char_traits@D@std@@V?$allocator@D@2@@2@I@Z
_TEXT	SEGMENT
_this$ = -4						; size = 4
__Ptr$ = 8						; size = 4
___formal$ = 12						; size = 4
?deallocate@?$allocator@V?$basic_string@DU?$char_traits@D@std@@V?$allocator@D@2@@std@@@std@@QAEXPAV?$basic_string@DU?$char_traits@D@std@@V?$allocator@D@2@@2@I@Z PROC NEAR ; std::allocator<std::basic_string<char,std::char_traits<char>,std::allocator<char> > >::deallocate, COMDAT
; _this$ = ecx

; 131  : 		{	// deallocate object at _Ptr, ignore size

  00000	55		 push	 ebp
  00001	8b ec		 mov	 ebp, esp
  00003	51		 push	 ecx
  00004	89 4d fc	 mov	 DWORD PTR _this$[ebp], ecx

; 132  : 		operator delete(_Ptr);

  00007	8b 45 08	 mov	 eax, DWORD PTR __Ptr$[ebp]
  0000a	50		 push	 eax
  0000b	e8 00 00 00 00	 call	 ??3@YAXPAX@Z		; operator delete
  00010	83 c4 04	 add	 esp, 4

; 133  : 		}

  00013	8b e5		 mov	 esp, ebp
  00015	5d		 pop	 ebp
  00016	c2 08 00	 ret	 8
?deallocate@?$allocator@V?$basic_string@DU?$char_traits@D@std@@V?$allocator@D@2@@std@@@std@@QAEXPAV?$basic_string@DU?$char_traits@D@std@@V?$allocator@D@2@@2@I@Z ENDP ; std::allocator<std::basic_string<char,std::char_traits<char>,std::allocator<char> > >::deallocate
_TEXT	ENDS
PUBLIC	??$_Allocate@V?$basic_string@DU?$char_traits@D@std@@V?$allocator@D@2@@std@@@std@@YAPAV?$basic_string@DU?$char_traits@D@std@@V?$allocator@D@2@@0@IPAV10@@Z ; std::_Allocate<std::basic_string<char,std::char_traits<char>,std::allocator<char> > >
; Function compile flags: /Odt
;	COMDAT ?allocate@?$allocator@V?$basic_string@DU?$char_traits@D@std@@V?$allocator@D@2@@std@@@std@@QAEPAV?$basic_string@DU?$char_traits@D@std@@V?$allocator@D@2@@2@I@Z
_TEXT	SEGMENT
_this$ = -4						; size = 4
__Count$ = 8						; size = 4
?allocate@?$allocator@V?$basic_string@DU?$char_traits@D@std@@V?$allocator@D@2@@std@@@std@@QAEPAV?$basic_string@DU?$char_traits@D@std@@V?$allocator@D@2@@2@I@Z PROC NEAR ; std::allocator<std::basic_string<char,std::char_traits<char>,std::allocator<char> > >::allocate, COMDAT
; _this$ = ecx

; 136  : 		{	// allocate array of _Count elements

  00000	55		 push	 ebp
  00001	8b ec		 mov	 ebp, esp
  00003	51		 push	 ecx
  00004	89 4d fc	 mov	 DWORD PTR _this$[ebp], ecx

; 137  : 		return (_Allocate(_Count, (pointer)0));

  00007	6a 00		 push	 0
  00009	8b 45 08	 mov	 eax, DWORD PTR __Count$[ebp]
  0000c	50		 push	 eax
  0000d	e8 00 00 00 00	 call	 ??$_Allocate@V?$basic_string@DU?$char_traits@D@std@@V?$allocator@D@2@@std@@@std@@YAPAV?$basic_string@DU?$char_traits@D@std@@V?$allocator@D@2@@0@IPAV10@@Z ; std::_Allocate<std::basic_string<char,std::char_traits<char>,std::allocator<char> > >
  00012	83 c4 08	 add	 esp, 8

; 138  : 		}

  00015	8b e5		 mov	 esp, ebp
  00017	5d		 pop	 ebp
  00018	c2 04 00	 ret	 4
?allocate@?$allocator@V?$basic_string@DU?$char_traits@D@std@@V?$allocator@D@2@@std@@@std@@QAEPAV?$basic_string@DU?$char_traits@D@std@@V?$allocator@D@2@@2@I@Z ENDP ; std::allocator<std::basic_string<char,std::char_traits<char>,std::allocator<char> > >::allocate
_TEXT	ENDS
PUBLIC	?max_size@?$allocator@V?$basic_string@DU?$char_traits@D@std@@V?$allocator@D@2@@std@@@std@@QBEIXZ ; std::allocator<std::basic_string<char,std::char_traits<char>,std::allocator<char> > >::max_size
; Function compile flags: /Odt
; File d:\program files (x86)\microsoft visual studio .net 2003\vc7\include\vector
;	COMDAT ?max_size@?$vector@V?$basic_string@DU?$char_traits@D@std@@V?$allocator@D@2@@std@@V?$allocator@V?$basic_string@DU?$char_traits@D@std@@V?$allocator@D@2@@std@@@2@@std@@QBEIXZ
_TEXT	SEGMENT
_this$ = -4						; size = 4
?max_size@?$vector@V?$basic_string@DU?$char_traits@D@std@@V?$allocator@D@2@@std@@V?$allocator@V?$basic_string@DU?$char_traits@D@std@@V?$allocator@D@2@@std@@@2@@std@@QBEIXZ PROC NEAR ; std::vector<std::basic_string<char,std::char_traits<char>,std::allocator<char> >,std::allocator<std::basic_string<char,std::char_traits<char>,std::allocator<char> > > >::max_size, COMDAT
; _this$ = ecx

; 520  : 		{	// return maximum possible length of sequence

  00000	55		 push	 ebp
  00001	8b ec		 mov	 ebp, esp
  00003	51		 push	 ecx
  00004	89 4d fc	 mov	 DWORD PTR _this$[ebp], ecx

; 521  : 		return (this->_Alval.max_size());

  00007	8b 4d fc	 mov	 ecx, DWORD PTR _this$[ebp]
  0000a	e8 00 00 00 00	 call	 ?max_size@?$allocator@V?$basic_string@DU?$char_traits@D@std@@V?$allocator@D@2@@std@@@std@@QBEIXZ ; std::allocator<std::basic_string<char,std::char_traits<char>,std::allocator<char> > >::max_size

; 522  : 		}

  0000f	8b e5		 mov	 esp, ebp
  00011	5d		 pop	 ebp
  00012	c3		 ret	 0
?max_size@?$vector@V?$basic_string@DU?$char_traits@D@std@@V?$allocator@D@2@@std@@V?$allocator@V?$basic_string@DU?$char_traits@D@std@@V?$allocator@D@2@@std@@@2@@std@@QBEIXZ ENDP ; std::vector<std::basic_string<char,std::char_traits<char>,std::allocator<char> >,std::allocator<std::basic_string<char,std::char_traits<char>,std::allocator<char> > > >::max_size
_TEXT	ENDS
PUBLIC	??$_Destroy_range@V?$basic_string@DU?$char_traits@D@std@@V?$allocator@D@2@@std@@V?$allocator@V?$basic_string@DU?$char_traits@D@std@@V?$allocator@D@2@@std@@@2@@std@@YAXPAV?$basic_string@DU?$char_traits@D@std@@V?$allocator@D@2@@0@0AAV?$allocator@V?$basic_string@DU?$char_traits@D@std@@V?$allocator@D@2@@std@@@0@@Z ; std::_Destroy_range<std::basic_string<char,std::char_traits<char>,std::allocator<char> >,std::allocator<std::basic_string<char,std::char_traits<char>,std::allocator<char> > > >
; Function compile flags: /Odt
;	COMDAT ?_Destroy@?$vector@V?$basic_string@DU?$char_traits@D@std@@V?$allocator@D@2@@std@@V?$allocator@V?$basic_string@DU?$char_traits@D@std@@V?$allocator@D@2@@std@@@2@@std@@IAEXPAV?$basic_string@DU?$char_traits@D@std@@V?$allocator@D@2@@2@0@Z
_TEXT	SEGMENT
_this$ = -4						; size = 4
__First$ = 8						; size = 4
__Last$ = 12						; size = 4
?_Destroy@?$vector@V?$basic_string@DU?$char_traits@D@std@@V?$allocator@D@2@@std@@V?$allocator@V?$basic_string@DU?$char_traits@D@std@@V?$allocator@D@2@@std@@@2@@std@@IAEXPAV?$basic_string@DU?$char_traits@D@std@@V?$allocator@D@2@@2@0@Z PROC NEAR ; std::vector<std::basic_string<char,std::char_traits<char>,std::allocator<char> >,std::allocator<std::basic_string<char,std::char_traits<char>,std::allocator<char> > > >::_Destroy, COMDAT
; _this$ = ecx

; 786  : 		{	// destroy [_First, _Last) using allocator

  00000	55		 push	 ebp
  00001	8b ec		 mov	 ebp, esp
  00003	51		 push	 ecx
  00004	89 4d fc	 mov	 DWORD PTR _this$[ebp], ecx

; 787  : 		_Destroy_range(_First, _Last, this->_Alval);

  00007	8b 45 fc	 mov	 eax, DWORD PTR _this$[ebp]
  0000a	50		 push	 eax
  0000b	8b 4d 0c	 mov	 ecx, DWORD PTR __Last$[ebp]
  0000e	51		 push	 ecx
  0000f	8b 55 08	 mov	 edx, DWORD PTR __First$[ebp]
  00012	52		 push	 edx
  00013	e8 00 00 00 00	 call	 ??$_Destroy_range@V?$basic_string@DU?$char_traits@D@std@@V?$allocator@D@2@@std@@V?$allocator@V?$basic_string@DU?$char_traits@D@std@@V?$allocator@D@2@@std@@@2@@std@@YAXPAV?$basic_string@DU?$char_traits@D@std@@V?$allocator@D@2@@0@0AAV?$allocator@V?$basic_string@DU?$char_traits@D@std@@V?$allocator@D@2@@std@@@0@@Z ; std::_Destroy_range<std::basic_string<char,std::char_traits<char>,std::allocator<char> >,std::allocator<std::basic_string<char,std::char_traits<char>,std::allocator<char> > > >
  00018	83 c4 0c	 add	 esp, 12			; 0000000cH

; 788  : 		}

  0001b	8b e5		 mov	 esp, ebp
  0001d	5d		 pop	 ebp
  0001e	c2 08 00	 ret	 8
?_Destroy@?$vector@V?$basic_string@DU?$char_traits@D@std@@V?$allocator@D@2@@std@@V?$allocator@V?$basic_string@DU?$char_traits@D@std@@V?$allocator@D@2@@std@@@2@@std@@IAEXPAV?$basic_string@DU?$char_traits@D@std@@V?$allocator@D@2@@2@0@Z ENDP ; std::vector<std::basic_string<char,std::char_traits<char>,std::allocator<char> >,std::allocator<std::basic_string<char,std::char_traits<char>,std::allocator<char> > > >::_Destroy
_TEXT	ENDS
PUBLIC	??$_Ucopy@PAV?$basic_string@DU?$char_traits@D@std@@V?$allocator@D@2@@std@@@?$vector@V?$basic_string@DU?$char_traits@D@std@@V?$allocator@D@2@@std@@V?$allocator@V?$basic_string@DU?$char_traits@D@std@@V?$allocator@D@2@@std@@@2@@std@@IAEPAV?$basic_string@DU?$char_traits@D@std@@V?$allocator@D@2@@1@PAV21@00@Z ; std::vector<std::basic_string<char,std::char_traits<char>,std::allocator<char> >,std::allocator<std::basic_string<char,std::char_traits<char>,std::allocator<char> > > >::_Ucopy<std::basic_string<char,std::char_traits<char>,std::allocator<char> > *>
PUBLIC	??$fill@PAV?$basic_string@DU?$char_traits@D@std@@V?$allocator@D@2@@std@@V12@@std@@YAXPAV?$basic_string@DU?$char_traits@D@std@@V?$allocator@D@2@@0@0ABV10@@Z ; std::fill<std::basic_string<char,std::char_traits<char>,std::allocator<char> > *,std::basic_string<char,std::char_traits<char>,std::allocator<char> > >
PUBLIC	??$copy_backward@PAV?$basic_string@DU?$char_traits@D@std@@V?$allocator@D@2@@std@@PAV12@@std@@YAPAV?$basic_string@DU?$char_traits@D@std@@V?$allocator@D@2@@0@PAV10@00@Z ; std::copy_backward<std::basic_string<char,std::char_traits<char>,std::allocator<char> > *,std::basic_string<char,std::char_traits<char>,std::allocator<char> > *>
EXTRN	__CxxThrowException@8:NEAR
EXTRN	__imp_??0?$basic_string@DU?$char_traits@D@std@@V?$allocator@D@2@@std@@QAE@ABV01@@Z:NEAR
;	COMDAT xdata$x
xdata$x	SEGMENT
$T201807 DD	0ffffffffH
	DD	FLAT:$L201802
	DD	00H
	DD	00H
	DD	00H
	DD	00H
	DD	00H
	DD	00H
	DD	00H
	DD	00H
$T201809 DD	00H
	DD	00H
	DD	00H
	DD	FLAT:$L201799
$T201810 DD	00H
	DD	00H
	DD	00H
	DD	FLAT:$L201801
$T201808 DD	01H
	DD	01H
	DD	02H
	DD	01H
	DD	FLAT:$T201809
	DD	03H
	DD	03H
	DD	04H
	DD	01H
	DD	FLAT:$T201810
$T201804 DD	019930520H
	DD	05H
	DD	FLAT:$T201807
	DD	02H
	DD	FLAT:$T201808
	DD	2 DUP(00H)
; Function compile flags: /Odt
xdata$x	ENDS
;	COMDAT ?_Insert_n@?$vector@V?$basic_string@DU?$char_traits@D@std@@V?$allocator@D@2@@std@@V?$allocator@V?$basic_string@DU?$char_traits@D@std@@V?$allocator@D@2@@std@@@2@@std@@IAEXViterator@12@IABV?$basic_string@DU?$char_traits@D@std@@V?$allocator@D@2@@2@@Z
_TEXT	SEGMENT
tv244 = -80						; size = 4
tv65 = -76						; size = 4
tv89 = -72						; size = 4
_this$ = -68						; size = 4
__Oldend$200756 = -64					; size = 4
__Newvec$200735 = -60					; size = 4
__Ptr$200736 = -56					; size = 4
__Capacity$ = -52					; size = 4
__Tmp$ = -48						; size = 28
__$ArrayPad$ = -20					; size = 4
__$EHRec$ = -16						; size = 16
__$ReturnAddr$ = 4					; size = 4
__Where$ = 8						; size = 4
__Count$ = 12						; size = 4
__Val$ = 16						; size = 4
?_Insert_n@?$vector@V?$basic_string@DU?$char_traits@D@std@@V?$allocator@D@2@@std@@V?$allocator@V?$basic_string@DU?$char_traits@D@std@@V?$allocator@D@2@@std@@@2@@std@@IAEXViterator@12@IABV?$basic_string@DU?$char_traits@D@std@@V?$allocator@D@2@@2@@Z PROC NEAR ; std::vector<std::basic_string<char,std::char_traits<char>,std::allocator<char> >,std::allocator<std::basic_string<char,std::char_traits<char>,std::allocator<char> > > >::_Insert_n, COMDAT
; _this$ = ecx

; 809  : 		{	// insert _Count * _Val at _Where

  00000	55		 push	 ebp
  00001	8b ec		 mov	 ebp, esp
  00003	6a ff		 push	 -1
  00005	68 00 00 00 00	 push	 __ehhandler$?_Insert_n@?$vector@V?$basic_string@DU?$char_traits@D@std@@V?$allocator@D@2@@std@@V?$allocator@V?$basic_string@DU?$char_traits@D@std@@V?$allocator@D@2@@std@@@2@@std@@IAEXViterator@12@IABV?$basic_string@DU?$char_traits@D@std@@V?$allocator@D@2@@2@@Z
  0000a	64 a1 00 00 00
	00		 mov	 eax, DWORD PTR fs:__except_list
  00010	50		 push	 eax
  00011	64 89 25 00 00
	00 00		 mov	 DWORD PTR fs:__except_list, esp
  00018	51		 push	 ecx
  00019	83 ec 40	 sub	 esp, 64			; 00000040H
  0001c	a1 00 00 00 00	 mov	 eax, DWORD PTR ___security_cookie
  00021	89 45 ec	 mov	 DWORD PTR __$ArrayPad$[ebp], eax
  00024	53		 push	 ebx
  00025	56		 push	 esi
  00026	57		 push	 edi
  00027	89 65 f0	 mov	 DWORD PTR __$EHRec$[ebp], esp
  0002a	89 4d bc	 mov	 DWORD PTR _this$[ebp], ecx

; 810  : 		_Ty _Tmp = _Val;	// in case _Val is in sequence

  0002d	8b 45 10	 mov	 eax, DWORD PTR __Val$[ebp]
  00030	50		 push	 eax
  00031	8d 4d d0	 lea	 ecx, DWORD PTR __Tmp$[ebp]
  00034	ff 15 00 00 00
	00		 call	 DWORD PTR __imp_??0?$basic_string@DU?$char_traits@D@std@@V?$allocator@D@2@@std@@QAE@ABV01@@Z
  0003a	c7 45 fc 00 00
	00 00		 mov	 DWORD PTR __$EHRec$[ebp+12], 0

; 811  : 		size_type _Capacity = capacity();

  00041	8b 4d bc	 mov	 ecx, DWORD PTR _this$[ebp]
  00044	e8 00 00 00 00	 call	 ?capacity@?$vector@V?$basic_string@DU?$char_traits@D@std@@V?$allocator@D@2@@std@@V?$allocator@V?$basic_string@DU?$char_traits@D@std@@V?$allocator@D@2@@std@@@2@@std@@QBEIXZ ; std::vector<std::basic_string<char,std::char_traits<char>,std::allocator<char> >,std::allocator<std::basic_string<char,std::char_traits<char>,std::allocator<char> > > >::capacity
  00049	89 45 cc	 mov	 DWORD PTR __Capacity$[ebp], eax

; 812  : 
; 813  : 		if (_Count == 0)

  0004c	83 7d 0c 00	 cmp	 DWORD PTR __Count$[ebp], 0
  00050	75 05		 jne	 SHORT $L200729

; 814  : 			;
; 815  : 		else if (max_size() - size() < _Count)

  00052	e9 cf 02 00 00	 jmp	 $L200730
$L200729:
  00057	8b 4d bc	 mov	 ecx, DWORD PTR _this$[ebp]
  0005a	e8 00 00 00 00	 call	 ?size@?$vector@V?$basic_string@DU?$char_traits@D@std@@V?$allocator@D@2@@std@@V?$allocator@V?$basic_string@DU?$char_traits@D@std@@V?$allocator@D@2@@std@@@2@@std@@QBEIXZ ; std::vector<std::basic_string<char,std::char_traits<char>,std::allocator<char> >,std::allocator<std::basic_string<char,std::char_traits<char>,std::allocator<char> > > >::size
  0005f	8b f0		 mov	 esi, eax
  00061	8b 4d bc	 mov	 ecx, DWORD PTR _this$[ebp]
  00064	e8 00 00 00 00	 call	 ?max_size@?$vector@V?$basic_string@DU?$char_traits@D@std@@V?$allocator@D@2@@std@@V?$allocator@V?$basic_string@DU?$char_traits@D@std@@V?$allocator@D@2@@std@@@2@@std@@QBEIXZ ; std::vector<std::basic_string<char,std::char_traits<char>,std::allocator<char> >,std::allocator<std::basic_string<char,std::char_traits<char>,std::allocator<char> > > >::max_size
  00069	2b c6		 sub	 eax, esi
  0006b	3b 45 0c	 cmp	 eax, DWORD PTR __Count$[ebp]
  0006e	73 0d		 jae	 SHORT $L200731

; 816  : 			_Xlen();	// result too long

  00070	8b 4d bc	 mov	 ecx, DWORD PTR _this$[ebp]
  00073	e8 00 00 00 00	 call	 ?_Xlen@?$vector@V?$basic_string@DU?$char_traits@D@std@@V?$allocator@D@2@@std@@V?$allocator@V?$basic_string@DU?$char_traits@D@std@@V?$allocator@D@2@@std@@@2@@std@@IBEXXZ ; std::vector<std::basic_string<char,std::char_traits<char>,std::allocator<char> >,std::allocator<std::basic_string<char,std::char_traits<char>,std::allocator<char> > > >::_Xlen

; 817  : 		else if (_Capacity < size() + _Count)

  00078	e9 a9 02 00 00	 jmp	 $L200730
$L200731:
  0007d	8b 4d bc	 mov	 ecx, DWORD PTR _this$[ebp]
  00080	e8 00 00 00 00	 call	 ?size@?$vector@V?$basic_string@DU?$char_traits@D@std@@V?$allocator@D@2@@std@@V?$allocator@V?$basic_string@DU?$char_traits@D@std@@V?$allocator@D@2@@std@@@2@@std@@QBEIXZ ; std::vector<std::basic_string<char,std::char_traits<char>,std::allocator<char> >,std::allocator<std::basic_string<char,std::char_traits<char>,std::allocator<char> > > >::size
  00085	03 45 0c	 add	 eax, DWORD PTR __Count$[ebp]
  00088	39 45 cc	 cmp	 DWORD PTR __Capacity$[ebp], eax
  0008b	0f 83 68 01 00
	00		 jae	 $L200733

; 818  : 			{	// not enough room, reallocate
; 819  : 			_Capacity = max_size() - _Capacity / 2 < _Capacity
; 820  : 				? 0 : _Capacity + _Capacity / 2;	// try to grow by 50%

  00091	8b 75 cc	 mov	 esi, DWORD PTR __Capacity$[ebp]
  00094	d1 ee		 shr	 esi, 1
  00096	8b 4d bc	 mov	 ecx, DWORD PTR _this$[ebp]
  00099	e8 00 00 00 00	 call	 ?max_size@?$vector@V?$basic_string@DU?$char_traits@D@std@@V?$allocator@D@2@@std@@V?$allocator@V?$basic_string@DU?$char_traits@D@std@@V?$allocator@D@2@@std@@@2@@std@@QBEIXZ ; std::vector<std::basic_string<char,std::char_traits<char>,std::allocator<char> >,std::allocator<std::basic_string<char,std::char_traits<char>,std::allocator<char> > > >::max_size
  0009e	2b c6		 sub	 eax, esi
  000a0	3b 45 cc	 cmp	 eax, DWORD PTR __Capacity$[ebp]
  000a3	73 09		 jae	 SHORT $L201795
  000a5	c7 45 b8 00 00
	00 00		 mov	 DWORD PTR tv89[ebp], 0
  000ac	eb 0b		 jmp	 SHORT $L201796
$L201795:
  000ae	8b 4d cc	 mov	 ecx, DWORD PTR __Capacity$[ebp]
  000b1	d1 e9		 shr	 ecx, 1
  000b3	03 4d cc	 add	 ecx, DWORD PTR __Capacity$[ebp]
  000b6	89 4d b8	 mov	 DWORD PTR tv89[ebp], ecx
$L201796:
  000b9	8b 55 b8	 mov	 edx, DWORD PTR tv89[ebp]
  000bc	89 55 cc	 mov	 DWORD PTR __Capacity$[ebp], edx

; 821  : 			if (_Capacity < size() + _Count)

  000bf	8b 4d bc	 mov	 ecx, DWORD PTR _this$[ebp]
  000c2	e8 00 00 00 00	 call	 ?size@?$vector@V?$basic_string@DU?$char_traits@D@std@@V?$allocator@D@2@@std@@V?$allocator@V?$basic_string@DU?$char_traits@D@std@@V?$allocator@D@2@@std@@@2@@std@@QBEIXZ ; std::vector<std::basic_string<char,std::char_traits<char>,std::allocator<char> >,std::allocator<std::basic_string<char,std::char_traits<char>,std::allocator<char> > > >::size
  000c7	03 45 0c	 add	 eax, DWORD PTR __Count$[ebp]
  000ca	39 45 cc	 cmp	 DWORD PTR __Capacity$[ebp], eax
  000cd	73 0e		 jae	 SHORT $L200734

; 822  : 				_Capacity = size() + _Count;

  000cf	8b 4d bc	 mov	 ecx, DWORD PTR _this$[ebp]
  000d2	e8 00 00 00 00	 call	 ?size@?$vector@V?$basic_string@DU?$char_traits@D@std@@V?$allocator@D@2@@std@@V?$allocator@V?$basic_string@DU?$char_traits@D@std@@V?$allocator@D@2@@std@@@2@@std@@QBEIXZ ; std::vector<std::basic_string<char,std::char_traits<char>,std::allocator<char> >,std::allocator<std::basic_string<char,std::char_traits<char>,std::allocator<char> > > >::size
  000d7	03 45 0c	 add	 eax, DWORD PTR __Count$[ebp]
  000da	89 45 cc	 mov	 DWORD PTR __Capacity$[ebp], eax
$L200734:

; 823  : 			pointer _Newvec = this->_Alval.allocate(_Capacity);

  000dd	8b 45 cc	 mov	 eax, DWORD PTR __Capacity$[ebp]
  000e0	50		 push	 eax
  000e1	8b 4d bc	 mov	 ecx, DWORD PTR _this$[ebp]
  000e4	e8 00 00 00 00	 call	 ?allocate@?$allocator@V?$basic_string@DU?$char_traits@D@std@@V?$allocator@D@2@@std@@@std@@QAEPAV?$basic_string@DU?$char_traits@D@std@@V?$allocator@D@2@@2@I@Z ; std::allocator<std::basic_string<char,std::char_traits<char>,std::allocator<char> > >::allocate
  000e9	89 45 c4	 mov	 DWORD PTR __Newvec$200735[ebp], eax

; 824  : 			pointer _Ptr = _Newvec;

  000ec	8b 4d c4	 mov	 ecx, DWORD PTR __Newvec$200735[ebp]
  000ef	89 4d c8	 mov	 DWORD PTR __Ptr$200736[ebp], ecx

; 825  : 
; 826  : 			_TRY_BEGIN

  000f2	c6 45 fc 01	 mov	 BYTE PTR __$EHRec$[ebp+12], 1

; 827  : 			_Ptr = _Ucopy(_Myfirst, _ITER_BASE(_Where),
; 828  : 				_Newvec);	// copy prefix

  000f6	8b 55 c4	 mov	 edx, DWORD PTR __Newvec$200735[ebp]
  000f9	52		 push	 edx
  000fa	8b 45 08	 mov	 eax, DWORD PTR __Where$[ebp]
  000fd	50		 push	 eax
  000fe	8b 4d bc	 mov	 ecx, DWORD PTR _this$[ebp]
  00101	8b 51 04	 mov	 edx, DWORD PTR [ecx+4]
  00104	52		 push	 edx
  00105	8b 4d bc	 mov	 ecx, DWORD PTR _this$[ebp]
  00108	e8 00 00 00 00	 call	 ??$_Ucopy@PAV?$basic_string@DU?$char_traits@D@std@@V?$allocator@D@2@@std@@@?$vector@V?$basic_string@DU?$char_traits@D@std@@V?$allocator@D@2@@std@@V?$allocator@V?$basic_string@DU?$char_traits@D@std@@V?$allocator@D@2@@std@@@2@@std@@IAEPAV?$basic_string@DU?$char_traits@D@std@@V?$allocator@D@2@@1@PAV21@00@Z ; std::vector<std::basic_string<char,std::char_traits<char>,std::allocator<char> >,std::allocator<std::basic_string<char,std::char_traits<char>,std::allocator<char> > > >::_Ucopy<std::basic_string<char,std::char_traits<char>,std::allocator<char> > *>
  0010d	89 45 b4	 mov	 DWORD PTR tv65[ebp], eax
  00110	8b 45 b4	 mov	 eax, DWORD PTR tv65[ebp]
  00113	89 45 c8	 mov	 DWORD PTR __Ptr$200736[ebp], eax

; 829  : 			_Ptr = _Ufill(_Ptr, _Count, _Tmp);	// add new stuff

  00116	8d 4d d0	 lea	 ecx, DWORD PTR __Tmp$[ebp]
  00119	51		 push	 ecx
  0011a	8b 55 0c	 mov	 edx, DWORD PTR __Count$[ebp]
  0011d	52		 push	 edx
  0011e	8b 45 c8	 mov	 eax, DWORD PTR __Ptr$200736[ebp]
  00121	50		 push	 eax
  00122	8b 4d bc	 mov	 ecx, DWORD PTR _this$[ebp]
  00125	e8 00 00 00 00	 call	 ?_Ufill@?$vector@V?$basic_string@DU?$char_traits@D@std@@V?$allocator@D@2@@std@@V?$allocator@V?$basic_string@DU?$char_traits@D@std@@V?$allocator@D@2@@std@@@2@@std@@IAEPAV?$basic_string@DU?$char_traits@D@std@@V?$allocator@D@2@@2@PAV32@IABV32@@Z ; std::vector<std::basic_string<char,std::char_traits<char>,std::allocator<char> >,std::allocator<std::basic_string<char,std::char_traits<char>,std::allocator<char> > > >::_Ufill
  0012a	89 45 b0	 mov	 DWORD PTR tv244[ebp], eax
  0012d	8b 4d b0	 mov	 ecx, DWORD PTR tv244[ebp]
  00130	89 4d c8	 mov	 DWORD PTR __Ptr$200736[ebp], ecx

; 830  : 			_Ucopy(_ITER_BASE(_Where), _Mylast, _Ptr);	// copy suffix

  00133	8b 55 c8	 mov	 edx, DWORD PTR __Ptr$200736[ebp]
  00136	52		 push	 edx
  00137	8b 45 bc	 mov	 eax, DWORD PTR _this$[ebp]
  0013a	8b 48 08	 mov	 ecx, DWORD PTR [eax+8]
  0013d	51		 push	 ecx
  0013e	8b 55 08	 mov	 edx, DWORD PTR __Where$[ebp]
  00141	52		 push	 edx
  00142	8b 4d bc	 mov	 ecx, DWORD PTR _this$[ebp]
  00145	e8 00 00 00 00	 call	 ??$_Ucopy@PAV?$basic_string@DU?$char_traits@D@std@@V?$allocator@D@2@@std@@@?$vector@V?$basic_string@DU?$char_traits@D@std@@V?$allocator@D@2@@std@@V?$allocator@V?$basic_string@DU?$char_traits@D@std@@V?$allocator@D@2@@std@@@2@@std@@IAEPAV?$basic_string@DU?$char_traits@D@std@@V?$allocator@D@2@@1@PAV21@00@Z ; std::vector<std::basic_string<char,std::char_traits<char>,std::allocator<char> >,std::allocator<std::basic_string<char,std::char_traits<char>,std::allocator<char> > > >::_Ucopy<std::basic_string<char,std::char_traits<char>,std::allocator<char> > *>
  0014a	eb 29		 jmp	 SHORT $L201798
$L201799:

; 831  : 			_CATCH_ALL
; 832  : 			_Destroy(_Newvec, _Ptr);

  0014c	8b 45 c8	 mov	 eax, DWORD PTR __Ptr$200736[ebp]
  0014f	50		 push	 eax
  00150	8b 4d c4	 mov	 ecx, DWORD PTR __Newvec$200735[ebp]
  00153	51		 push	 ecx
  00154	8b 4d bc	 mov	 ecx, DWORD PTR _this$[ebp]
  00157	e8 00 00 00 00	 call	 ?_Destroy@?$vector@V?$basic_string@DU?$char_traits@D@std@@V?$allocator@D@2@@std@@V?$allocator@V?$basic_string@DU?$char_traits@D@std@@V?$allocator@D@2@@std@@@2@@std@@IAEXPAV?$basic_string@DU?$char_traits@D@std@@V?$allocator@D@2@@2@0@Z ; std::vector<std::basic_string<char,std::char_traits<char>,std::allocator<char> >,std::allocator<std::basic_string<char,std::char_traits<char>,std::allocator<char> > > >::_Destroy

; 833  : 			this->_Alval.deallocate(_Newvec, _Capacity);

  0015c	8b 55 cc	 mov	 edx, DWORD PTR __Capacity$[ebp]
  0015f	52		 push	 edx
  00160	8b 45 c4	 mov	 eax, DWORD PTR __Newvec$200735[ebp]
  00163	50		 push	 eax
  00164	8b 4d bc	 mov	 ecx, DWORD PTR _this$[ebp]
  00167	e8 00 00 00 00	 call	 ?deallocate@?$allocator@V?$basic_string@DU?$char_traits@D@std@@V?$allocator@D@2@@std@@@std@@QAEXPAV?$basic_string@DU?$char_traits@D@std@@V?$allocator@D@2@@2@I@Z ; std::allocator<std::basic_string<char,std::char_traits<char>,std::allocator<char> > >::deallocate

; 834  : 			_RERAISE;

  0016c	6a 00		 push	 0
  0016e	6a 00		 push	 0
  00170	e8 00 00 00 00	 call	 __CxxThrowException@8
$L201798:

; 835  : 			_CATCH_END

  00175	c7 45 fc 00 00
	00 00		 mov	 DWORD PTR __$EHRec$[ebp+12], 0

; 836  : 
; 837  : 			_Count += size();

  0017c	8b 4d bc	 mov	 ecx, DWORD PTR _this$[ebp]
  0017f	e8 00 00 00 00	 call	 ?size@?$vector@V?$basic_string@DU?$char_traits@D@std@@V?$allocator@D@2@@std@@V?$allocator@V?$basic_string@DU?$char_traits@D@std@@V?$allocator@D@2@@std@@@2@@std@@QBEIXZ ; std::vector<std::basic_string<char,std::char_traits<char>,std::allocator<char> >,std::allocator<std::basic_string<char,std::char_traits<char>,std::allocator<char> > > >::size
  00184	03 45 0c	 add	 eax, DWORD PTR __Count$[ebp]
  00187	89 45 0c	 mov	 DWORD PTR __Count$[ebp], eax

; 838  : 			if (_Myfirst != 0)

  0018a	8b 4d bc	 mov	 ecx, DWORD PTR _this$[ebp]
  0018d	83 79 04 00	 cmp	 DWORD PTR [ecx+4], 0
  00191	74 3a		 je	 SHORT $L200743

; 839  : 				{	// destroy and deallocate old array
; 840  : 				_Destroy(_Myfirst, _Mylast);

  00193	8b 55 bc	 mov	 edx, DWORD PTR _this$[ebp]
  00196	8b 42 08	 mov	 eax, DWORD PTR [edx+8]
  00199	50		 push	 eax
  0019a	8b 4d bc	 mov	 ecx, DWORD PTR _this$[ebp]
  0019d	8b 51 04	 mov	 edx, DWORD PTR [ecx+4]
  001a0	52		 push	 edx
  001a1	8b 4d bc	 mov	 ecx, DWORD PTR _this$[ebp]
  001a4	e8 00 00 00 00	 call	 ?_Destroy@?$vector@V?$basic_string@DU?$char_traits@D@std@@V?$allocator@D@2@@std@@V?$allocator@V?$basic_string@DU?$char_traits@D@std@@V?$allocator@D@2@@std@@@2@@std@@IAEXPAV?$basic_string@DU?$char_traits@D@std@@V?$allocator@D@2@@2@0@Z ; std::vector<std::basic_string<char,std::char_traits<char>,std::allocator<char> >,std::allocator<std::basic_string<char,std::char_traits<char>,std::allocator<char> > > >::_Destroy

; 841  : 				this->_Alval.deallocate(_Myfirst, _Myend - _Myfirst);

  001a9	8b 45 bc	 mov	 eax, DWORD PTR _this$[ebp]
  001ac	8b 4d bc	 mov	 ecx, DWORD PTR _this$[ebp]
  001af	8b 40 0c	 mov	 eax, DWORD PTR [eax+12]
  001b2	2b 41 04	 sub	 eax, DWORD PTR [ecx+4]
  001b5	99		 cdq
  001b6	b9 1c 00 00 00	 mov	 ecx, 28			; 0000001cH
  001bb	f7 f9		 idiv	 ecx
  001bd	50		 push	 eax
  001be	8b 55 bc	 mov	 edx, DWORD PTR _this$[ebp]
  001c1	8b 42 04	 mov	 eax, DWORD PTR [edx+4]
  001c4	50		 push	 eax
  001c5	8b 4d bc	 mov	 ecx, DWORD PTR _this$[ebp]
  001c8	e8 00 00 00 00	 call	 ?deallocate@?$allocator@V?$basic_string@DU?$char_traits@D@std@@V?$allocator@D@2@@std@@@std@@QAEXPAV?$basic_string@DU?$char_traits@D@std@@V?$allocator@D@2@@2@I@Z ; std::allocator<std::basic_string<char,std::char_traits<char>,std::allocator<char> > >::deallocate
$L200743:

; 842  : 				}
; 843  : 			_Myend = _Newvec + _Capacity;

  001cd	8b 4d cc	 mov	 ecx, DWORD PTR __Capacity$[ebp]
  001d0	6b c9 1c	 imul	 ecx, 28			; 0000001cH
  001d3	03 4d c4	 add	 ecx, DWORD PTR __Newvec$200735[ebp]
  001d6	8b 55 bc	 mov	 edx, DWORD PTR _this$[ebp]
  001d9	89 4a 0c	 mov	 DWORD PTR [edx+12], ecx

; 844  : 			_Mylast = _Newvec + _Count;

  001dc	8b 45 0c	 mov	 eax, DWORD PTR __Count$[ebp]
  001df	6b c0 1c	 imul	 eax, 28			; 0000001cH
  001e2	03 45 c4	 add	 eax, DWORD PTR __Newvec$200735[ebp]
  001e5	8b 4d bc	 mov	 ecx, DWORD PTR _this$[ebp]
  001e8	89 41 08	 mov	 DWORD PTR [ecx+8], eax

; 845  : 			_Myfirst = _Newvec;

  001eb	8b 55 bc	 mov	 edx, DWORD PTR _this$[ebp]
  001ee	8b 45 c4	 mov	 eax, DWORD PTR __Newvec$200735[ebp]
  001f1	89 42 04	 mov	 DWORD PTR [edx+4], eax

; 846  : 			}
; 847  : 		else if ((size_type)(_Mylast - _ITER_BASE(_Where)) < _Count)

  001f4	e9 2d 01 00 00	 jmp	 $L200730
$L200733:
  001f9	8b 4d bc	 mov	 ecx, DWORD PTR _this$[ebp]
  001fc	8b 41 08	 mov	 eax, DWORD PTR [ecx+8]
  001ff	2b 45 08	 sub	 eax, DWORD PTR __Where$[ebp]
  00202	99		 cdq
  00203	b9 1c 00 00 00	 mov	 ecx, 28			; 0000001cH
  00208	f7 f9		 idiv	 ecx
  0020a	3b 45 0c	 cmp	 eax, DWORD PTR __Count$[ebp]
  0020d	0f 83 af 00 00
	00		 jae	 $L200746

; 848  : 			{	// new stuff spills off end
; 849  : 			_Ucopy(_ITER_BASE(_Where), _Mylast,
; 850  : 				_ITER_BASE(_Where) + _Count);	// copy suffix

  00213	8b 55 0c	 mov	 edx, DWORD PTR __Count$[ebp]
  00216	6b d2 1c	 imul	 edx, 28			; 0000001cH
  00219	03 55 08	 add	 edx, DWORD PTR __Where$[ebp]
  0021c	52		 push	 edx
  0021d	8b 45 bc	 mov	 eax, DWORD PTR _this$[ebp]
  00220	8b 48 08	 mov	 ecx, DWORD PTR [eax+8]
  00223	51		 push	 ecx
  00224	8b 55 08	 mov	 edx, DWORD PTR __Where$[ebp]
  00227	52		 push	 edx
  00228	8b 4d bc	 mov	 ecx, DWORD PTR _this$[ebp]
  0022b	e8 00 00 00 00	 call	 ??$_Ucopy@PAV?$basic_string@DU?$char_traits@D@std@@V?$allocator@D@2@@std@@@?$vector@V?$basic_string@DU?$char_traits@D@std@@V?$allocator@D@2@@std@@V?$allocator@V?$basic_string@DU?$char_traits@D@std@@V?$allocator@D@2@@std@@@2@@std@@IAEPAV?$basic_string@DU?$char_traits@D@std@@V?$allocator@D@2@@1@PAV21@00@Z ; std::vector<std::basic_string<char,std::char_traits<char>,std::allocator<char> >,std::allocator<std::basic_string<char,std::char_traits<char>,std::allocator<char> > > >::_Ucopy<std::basic_string<char,std::char_traits<char>,std::allocator<char> > *>

; 851  : 
; 852  : 			_TRY_BEGIN

  00230	c6 45 fc 03	 mov	 BYTE PTR __$EHRec$[ebp+12], 3

; 853  : 			_Ufill(_Mylast, _Count - (_Mylast - _ITER_BASE(_Where)),
; 854  : 				_Tmp);	// insert new stuff off end

  00234	8d 45 d0	 lea	 eax, DWORD PTR __Tmp$[ebp]
  00237	50		 push	 eax
  00238	8b 4d bc	 mov	 ecx, DWORD PTR _this$[ebp]
  0023b	8b 41 08	 mov	 eax, DWORD PTR [ecx+8]
  0023e	2b 45 08	 sub	 eax, DWORD PTR __Where$[ebp]
  00241	99		 cdq
  00242	b9 1c 00 00 00	 mov	 ecx, 28			; 0000001cH
  00247	f7 f9		 idiv	 ecx
  00249	8b 55 0c	 mov	 edx, DWORD PTR __Count$[ebp]
  0024c	2b d0		 sub	 edx, eax
  0024e	52		 push	 edx
  0024f	8b 45 bc	 mov	 eax, DWORD PTR _this$[ebp]
  00252	8b 48 08	 mov	 ecx, DWORD PTR [eax+8]
  00255	51		 push	 ecx
  00256	8b 4d bc	 mov	 ecx, DWORD PTR _this$[ebp]
  00259	e8 00 00 00 00	 call	 ?_Ufill@?$vector@V?$basic_string@DU?$char_traits@D@std@@V?$allocator@D@2@@std@@V?$allocator@V?$basic_string@DU?$char_traits@D@std@@V?$allocator@D@2@@std@@@2@@std@@IAEPAV?$basic_string@DU?$char_traits@D@std@@V?$allocator@D@2@@2@PAV32@IABV32@@Z ; std::vector<std::basic_string<char,std::char_traits<char>,std::allocator<char> >,std::allocator<std::basic_string<char,std::char_traits<char>,std::allocator<char> > > >::_Ufill
  0025e	eb 28		 jmp	 SHORT $L201800
$L201801:

; 855  : 			_CATCH_ALL
; 856  : 			_Destroy(_ITER_BASE(_Where) + _Count, _Mylast + _Count);

  00260	8b 55 0c	 mov	 edx, DWORD PTR __Count$[ebp]
  00263	6b d2 1c	 imul	 edx, 28			; 0000001cH
  00266	8b 45 bc	 mov	 eax, DWORD PTR _this$[ebp]
  00269	03 50 08	 add	 edx, DWORD PTR [eax+8]
  0026c	52		 push	 edx
  0026d	8b 4d 0c	 mov	 ecx, DWORD PTR __Count$[ebp]
  00270	6b c9 1c	 imul	 ecx, 28			; 0000001cH
  00273	03 4d 08	 add	 ecx, DWORD PTR __Where$[ebp]
  00276	51		 push	 ecx
  00277	8b 4d bc	 mov	 ecx, DWORD PTR _this$[ebp]
  0027a	e8 00 00 00 00	 call	 ?_Destroy@?$vector@V?$basic_string@DU?$char_traits@D@std@@V?$allocator@D@2@@std@@V?$allocator@V?$basic_string@DU?$char_traits@D@std@@V?$allocator@D@2@@std@@@2@@std@@IAEXPAV?$basic_string@DU?$char_traits@D@std@@V?$allocator@D@2@@2@0@Z ; std::vector<std::basic_string<char,std::char_traits<char>,std::allocator<char> >,std::allocator<std::basic_string<char,std::char_traits<char>,std::allocator<char> > > >::_Destroy

; 857  : 			_RERAISE;

  0027f	6a 00		 push	 0
  00281	6a 00		 push	 0
  00283	e8 00 00 00 00	 call	 __CxxThrowException@8
$L201800:

; 858  : 			_CATCH_END

  00288	c7 45 fc 00 00
	00 00		 mov	 DWORD PTR __$EHRec$[ebp+12], 0

; 859  : 
; 860  : 			_Mylast += _Count;

  0028f	8b 55 0c	 mov	 edx, DWORD PTR __Count$[ebp]
  00292	6b d2 1c	 imul	 edx, 28			; 0000001cH
  00295	8b 45 bc	 mov	 eax, DWORD PTR _this$[ebp]
  00298	03 50 08	 add	 edx, DWORD PTR [eax+8]
  0029b	8b 4d bc	 mov	 ecx, DWORD PTR _this$[ebp]
  0029e	89 51 08	 mov	 DWORD PTR [ecx+8], edx

; 861  : 			fill(_ITER_BASE(_Where), _Mylast - _Count,
; 862  : 				_Tmp);	// insert up to old end

  002a1	8d 55 d0	 lea	 edx, DWORD PTR __Tmp$[ebp]
  002a4	52		 push	 edx
  002a5	8b 45 0c	 mov	 eax, DWORD PTR __Count$[ebp]
  002a8	6b c0 1c	 imul	 eax, 28			; 0000001cH
  002ab	8b 4d bc	 mov	 ecx, DWORD PTR _this$[ebp]
  002ae	8b 51 08	 mov	 edx, DWORD PTR [ecx+8]
  002b1	2b d0		 sub	 edx, eax
  002b3	52		 push	 edx
  002b4	8b 45 08	 mov	 eax, DWORD PTR __Where$[ebp]
  002b7	50		 push	 eax
  002b8	e8 00 00 00 00	 call	 ??$fill@PAV?$basic_string@DU?$char_traits@D@std@@V?$allocator@D@2@@std@@V12@@std@@YAXPAV?$basic_string@DU?$char_traits@D@std@@V?$allocator@D@2@@0@0ABV10@@Z ; std::fill<std::basic_string<char,std::char_traits<char>,std::allocator<char> > *,std::basic_string<char,std::char_traits<char>,std::allocator<char> > >
  002bd	83 c4 0c	 add	 esp, 12			; 0000000cH

; 863  : 			}
; 864  : 		else

  002c0	eb 64		 jmp	 SHORT $L200730
$L200746:

; 865  : 			{	// new stuff can all be assigned
; 866  : 			pointer _Oldend = _Mylast;

  002c2	8b 4d bc	 mov	 ecx, DWORD PTR _this$[ebp]
  002c5	8b 51 08	 mov	 edx, DWORD PTR [ecx+8]
  002c8	89 55 c0	 mov	 DWORD PTR __Oldend$200756[ebp], edx

; 867  : 			_Mylast = _Ucopy(_Oldend - _Count, _Oldend,
; 868  : 				_Mylast);	// copy suffix

  002cb	8b 45 bc	 mov	 eax, DWORD PTR _this$[ebp]
  002ce	8b 48 08	 mov	 ecx, DWORD PTR [eax+8]
  002d1	51		 push	 ecx
  002d2	8b 55 c0	 mov	 edx, DWORD PTR __Oldend$200756[ebp]
  002d5	52		 push	 edx
  002d6	8b 45 0c	 mov	 eax, DWORD PTR __Count$[ebp]
  002d9	6b c0 1c	 imul	 eax, 28			; 0000001cH
  002dc	8b 4d c0	 mov	 ecx, DWORD PTR __Oldend$200756[ebp]
  002df	2b c8		 sub	 ecx, eax
  002e1	51		 push	 ecx
  002e2	8b 4d bc	 mov	 ecx, DWORD PTR _this$[ebp]
  002e5	e8 00 00 00 00	 call	 ??$_Ucopy@PAV?$basic_string@DU?$char_traits@D@std@@V?$allocator@D@2@@std@@@?$vector@V?$basic_string@DU?$char_traits@D@std@@V?$allocator@D@2@@std@@V?$allocator@V?$basic_string@DU?$char_traits@D@std@@V?$allocator@D@2@@std@@@2@@std@@IAEPAV?$basic_string@DU?$char_traits@D@std@@V?$allocator@D@2@@1@PAV21@00@Z ; std::vector<std::basic_string<char,std::char_traits<char>,std::allocator<char> >,std::allocator<std::basic_string<char,std::char_traits<char>,std::allocator<char> > > >::_Ucopy<std::basic_string<char,std::char_traits<char>,std::allocator<char> > *>
  002ea	8b 55 bc	 mov	 edx, DWORD PTR _this$[ebp]
  002ed	89 42 08	 mov	 DWORD PTR [edx+8], eax

; 869  : 			copy_backward(_ITER_BASE(_Where), _Oldend - _Count,
; 870  : 				_Oldend);	// copy hole

  002f0	8b 45 c0	 mov	 eax, DWORD PTR __Oldend$200756[ebp]
  002f3	50		 push	 eax
  002f4	8b 4d 0c	 mov	 ecx, DWORD PTR __Count$[ebp]
  002f7	6b c9 1c	 imul	 ecx, 28			; 0000001cH
  002fa	8b 55 c0	 mov	 edx, DWORD PTR __Oldend$200756[ebp]
  002fd	2b d1		 sub	 edx, ecx
  002ff	52		 push	 edx
  00300	8b 45 08	 mov	 eax, DWORD PTR __Where$[ebp]
  00303	50		 push	 eax
  00304	e8 00 00 00 00	 call	 ??$copy_backward@PAV?$basic_string@DU?$char_traits@D@std@@V?$allocator@D@2@@std@@PAV12@@std@@YAPAV?$basic_string@DU?$char_traits@D@std@@V?$allocator@D@2@@0@PAV10@00@Z ; std::copy_backward<std::basic_string<char,std::char_traits<char>,std::allocator<char> > *,std::basic_string<char,std::char_traits<char>,std::allocator<char> > *>
  00309	83 c4 0c	 add	 esp, 12			; 0000000cH

; 871  : 			fill(_ITER_BASE(_Where), _ITER_BASE(_Where) + _Count,
; 872  : 				_Tmp);	// insert into hole

  0030c	8d 4d d0	 lea	 ecx, DWORD PTR __Tmp$[ebp]
  0030f	51		 push	 ecx
  00310	8b 55 0c	 mov	 edx, DWORD PTR __Count$[ebp]
  00313	6b d2 1c	 imul	 edx, 28			; 0000001cH
  00316	03 55 08	 add	 edx, DWORD PTR __Where$[ebp]
  00319	52		 push	 edx
  0031a	8b 45 08	 mov	 eax, DWORD PTR __Where$[ebp]
  0031d	50		 push	 eax
  0031e	e8 00 00 00 00	 call	 ??$fill@PAV?$basic_string@DU?$char_traits@D@std@@V?$allocator@D@2@@std@@V12@@std@@YAXPAV?$basic_string@DU?$char_traits@D@std@@V?$allocator@D@2@@0@0ABV10@@Z ; std::fill<std::basic_string<char,std::char_traits<char>,std::allocator<char> > *,std::basic_string<char,std::char_traits<char>,std::allocator<char> > >
  00323	83 c4 0c	 add	 esp, 12			; 0000000cH
$L200730:

; 873  : 			}
; 874  : 		}

  00326	c7 45 fc ff ff
	ff ff		 mov	 DWORD PTR __$EHRec$[ebp+12], -1
  0032d	8d 4d d0	 lea	 ecx, DWORD PTR __Tmp$[ebp]
  00330	ff 15 00 00 00
	00		 call	 DWORD PTR __imp_??1?$basic_string@DU?$char_traits@D@std@@V?$allocator@D@2@@std@@QAE@XZ
$L201794:
  00336	8b 4d f4	 mov	 ecx, DWORD PTR __$EHRec$[ebp+4]
  00339	64 89 0d 00 00
	00 00		 mov	 DWORD PTR fs:__except_list, ecx
  00340	8b 4d ec	 mov	 ecx, DWORD PTR __$ArrayPad$[ebp]
  00343	e8 00 00 00 00	 call	 @__security_check_cookie@4
  00348	5f		 pop	 edi
  00349	5e		 pop	 esi
  0034a	5b		 pop	 ebx
  0034b	8b e5		 mov	 esp, ebp
  0034d	5d		 pop	 ebp
  0034e	c2 0c 00	 ret	 12			; 0000000cH
_TEXT	ENDS
;	COMDAT text$x
text$x	SEGMENT
$L201802:
  00000	8d 4d d0	 lea	 ecx, DWORD PTR __Tmp$[ebp]
  00003	ff 25 00 00 00
	00		 jmp	 DWORD PTR __imp_??1?$basic_string@DU?$char_traits@D@std@@V?$allocator@D@2@@std@@QAE@XZ
__ehhandler$?_Insert_n@?$vector@V?$basic_string@DU?$char_traits@D@std@@V?$allocator@D@2@@std@@V?$allocator@V?$basic_string@DU?$char_traits@D@std@@V?$allocator@D@2@@std@@@2@@std@@IAEXViterator@12@IABV?$basic_string@DU?$char_traits@D@std@@V?$allocator@D@2@@2@@Z:
  00009	b8 00 00 00 00	 mov	 eax, OFFSET FLAT:$T201804
  0000e	e9 00 00 00 00	 jmp	 ___CxxFrameHandler
text$x	ENDS
?_Insert_n@?$vector@V?$basic_string@DU?$char_traits@D@std@@V?$allocator@D@2@@std@@V?$allocator@V?$basic_string@DU?$char_traits@D@std@@V?$allocator@D@2@@std@@@2@@std@@IAEXViterator@12@IABV?$basic_string@DU?$char_traits@D@std@@V?$allocator@D@2@@2@@Z ENDP ; std::vector<std::basic_string<char,std::char_traits<char>,std::allocator<char> >,std::allocator<std::basic_string<char,std::char_traits<char>,std::allocator<char> > > >::_Insert_n
PUBLIC	??_R0?AVlogic_error@std@@@8			; std::logic_error `RTTI Type Descriptor'
PUBLIC	__CT??_R0?AVlogic_error@std@@@8??0logic_error@std@@QAE@ABV01@@Z40
PUBLIC	??_R0?AVexception@@@8				; exception `RTTI Type Descriptor'
PUBLIC	__CT??_R0?AVexception@@@8??0exception@@QAE@ABV0@@Z12
PUBLIC	__TI3?AVlength_error@std@@
PUBLIC	__CTA3?AVlength_error@std@@
PUBLIC	__CT??_R0?AVlength_error@std@@@8??0length_error@std@@QAE@ABV01@@Z40
PUBLIC	??_C@_0BD@OLBABOEK@vector?$DMT?$DO?5too?5long?$AA@ ; `string'
PUBLIC	??_R0?AVlength_error@std@@@8			; std::length_error `RTTI Type Descriptor'
PUBLIC	??0logic_error@std@@QAE@ABV01@@Z		; std::logic_error::logic_error
PUBLIC	??0length_error@std@@QAE@ABV?$basic_string@DU?$char_traits@D@std@@V?$allocator@D@2@@1@@Z ; std::length_error::length_error
PUBLIC	??1length_error@std@@UAE@XZ			; std::length_error::~length_error
PUBLIC	??0length_error@std@@QAE@ABV01@@Z		; std::length_error::length_error
EXTRN	??0exception@@QAE@ABV0@@Z:NEAR			; exception::exception
EXTRN	??_7type_info@@6B@:QWORD			; type_info::`vftable'
;	COMDAT xdata$x
xdata$x	SEGMENT
$T201821 DD	0ffffffffH
	DD	FLAT:$L201817
$T201819 DD	019930520H
	DD	01H
	DD	FLAT:$T201821
	DD	2 DUP(00H)
	DD	2 DUP(00H)
xdata$x	ENDS
;	COMDAT ??_C@_0BD@OLBABOEK@vector?$DMT?$DO?5too?5long?$AA@
CONST	SEGMENT
??_C@_0BD@OLBABOEK@vector?$DMT?$DO?5too?5long?$AA@ DB 'vector<T> too long'
	DB	00H						; `string'
CONST	ENDS
;	COMDAT __TI3?AVlength_error@std@@
xdata$x	SEGMENT
__TI3?AVlength_error@std@@ DD 00H
	DD	FLAT:??1length_error@std@@UAE@XZ
	DD	00H
	DD	FLAT:__CTA3?AVlength_error@std@@
xdata$x	ENDS
;	COMDAT __CTA3?AVlength_error@std@@
xdata$x	SEGMENT
__CTA3?AVlength_error@std@@ DD 03H
	DD	FLAT:__CT??_R0?AVlength_error@std@@@8??0length_error@std@@QAE@ABV01@@Z40
	DD	FLAT:__CT??_R0?AVlogic_error@std@@@8??0logic_error@std@@QAE@ABV01@@Z40
	DD	FLAT:__CT??_R0?AVexception@@@8??0exception@@QAE@ABV0@@Z12
xdata$x	ENDS
;	COMDAT __CT??_R0?AVlength_error@std@@@8??0length_error@std@@QAE@ABV01@@Z40
xdata$x	SEGMENT
__CT??_R0?AVlength_error@std@@@8??0length_error@std@@QAE@ABV01@@Z40 DD 00H
	DD	FLAT:??_R0?AVlength_error@std@@@8
	DD	00H
	DD	0ffffffffH
	ORG $+4
	DD	028H
	DD	FLAT:??0length_error@std@@QAE@ABV01@@Z
xdata$x	ENDS
;	COMDAT ??_R0?AVlength_error@std@@@8
_DATA	SEGMENT
??_R0?AVlength_error@std@@@8 DD FLAT:??_7type_info@@6B@	; std::length_error `RTTI Type Descriptor'
	DD	00H
	DB	'.?AVlength_error@std@@', 00H
	ORG $-31
	DD	FLAT:??_7type_info@@6B@
	DD	00H
	DB	'.?AVlength_error@std@@', 00H
_DATA	ENDS
;	COMDAT __CT??_R0?AVlogic_error@std@@@8??0logic_error@std@@QAE@ABV01@@Z40
xdata$x	SEGMENT
__CT??_R0?AVlogic_error@std@@@8??0logic_error@std@@QAE@ABV01@@Z40 DD 00H
	DD	FLAT:??_R0?AVlogic_error@std@@@8
	DD	00H
	DD	0ffffffffH
	ORG $+4
	DD	028H
	DD	FLAT:??0logic_error@std@@QAE@ABV01@@Z
xdata$x	ENDS
;	COMDAT ??_R0?AVlogic_error@std@@@8
_DATA	SEGMENT
??_R0?AVlogic_error@std@@@8 DD FLAT:??_7type_info@@6B@	; std::logic_error `RTTI Type Descriptor'
	DD	00H
	DB	'.?AVlogic_error@std@@', 00H
	ORG $-30
	DD	FLAT:??_7type_info@@6B@
	DD	00H
	DB	'.?AVlogic_error@std@@', 00H
_DATA	ENDS
;	COMDAT __CT??_R0?AVexception@@@8??0exception@@QAE@ABV0@@Z12
xdata$x	SEGMENT
__CT??_R0?AVexception@@@8??0exception@@QAE@ABV0@@Z12 DD 00H
	DD	FLAT:??_R0?AVexception@@@8
	DD	00H
	DD	0ffffffffH
	ORG $+4
	DD	0cH
	DD	FLAT:??0exception@@QAE@ABV0@@Z
xdata$x	ENDS
;	COMDAT ??_R0?AVexception@@@8
_DATA	SEGMENT
??_R0?AVexception@@@8 DD FLAT:??_7type_info@@6B@	; exception `RTTI Type Descriptor'
	DD	00H
	DB	'.?AVexception@@', 00H
	ORG $-24
	DD	FLAT:??_7type_info@@6B@
	DD	00H
	DB	'.?AVexception@@', 00H
; Function compile flags: /Odt
_DATA	ENDS
;	COMDAT ?_Xlen@?$vector@V?$basic_string@DU?$char_traits@D@std@@V?$allocator@D@2@@std@@V?$allocator@V?$basic_string@DU?$char_traits@D@std@@V?$allocator@D@2@@std@@@2@@std@@IBEXXZ
_TEXT	SEGMENT
_this$ = -84						; size = 4
$T201816 = -80						; size = 28
$T201815 = -52						; size = 40
__$EHRec$ = -12						; size = 12
?_Xlen@?$vector@V?$basic_string@DU?$char_traits@D@std@@V?$allocator@D@2@@std@@V?$allocator@V?$basic_string@DU?$char_traits@D@std@@V?$allocator@D@2@@std@@@2@@std@@IBEXXZ PROC NEAR ; std::vector<std::basic_string<char,std::char_traits<char>,std::allocator<char> >,std::allocator<std::basic_string<char,std::char_traits<char>,std::allocator<char> > > >::_Xlen, COMDAT
; _this$ = ecx

; 883  : 		{	// report a length_error

  00000	55		 push	 ebp
  00001	8b ec		 mov	 ebp, esp
  00003	6a ff		 push	 -1
  00005	68 00 00 00 00	 push	 __ehhandler$?_Xlen@?$vector@V?$basic_string@DU?$char_traits@D@std@@V?$allocator@D@2@@std@@V?$allocator@V?$basic_string@DU?$char_traits@D@std@@V?$allocator@D@2@@std@@@2@@std@@IBEXXZ
  0000a	64 a1 00 00 00
	00		 mov	 eax, DWORD PTR fs:__except_list
  00010	50		 push	 eax
  00011	64 89 25 00 00
	00 00		 mov	 DWORD PTR fs:__except_list, esp
  00018	83 ec 48	 sub	 esp, 72			; 00000048H
  0001b	89 4d ac	 mov	 DWORD PTR _this$[ebp], ecx

; 884  : 		_THROW(length_error, "vector<T> too long");

  0001e	68 00 00 00 00	 push	 OFFSET FLAT:??_C@_0BD@OLBABOEK@vector?$DMT?$DO?5too?5long?$AA@
  00023	8d 4d b0	 lea	 ecx, DWORD PTR $T201816[ebp]
  00026	ff 15 00 00 00
	00		 call	 DWORD PTR __imp_??0?$basic_string@DU?$char_traits@D@std@@V?$allocator@D@2@@std@@QAE@PBD@Z
  0002c	c7 45 fc 00 00
	00 00		 mov	 DWORD PTR __$EHRec$[ebp+8], 0
  00033	8d 45 b0	 lea	 eax, DWORD PTR $T201816[ebp]
  00036	50		 push	 eax
  00037	8d 4d cc	 lea	 ecx, DWORD PTR $T201815[ebp]
  0003a	e8 00 00 00 00	 call	 ??0length_error@std@@QAE@ABV?$basic_string@DU?$char_traits@D@std@@V?$allocator@D@2@@1@@Z ; std::length_error::length_error
  0003f	68 00 00 00 00	 push	 OFFSET FLAT:__TI3?AVlength_error@std@@
  00044	8d 4d cc	 lea	 ecx, DWORD PTR $T201815[ebp]
  00047	51		 push	 ecx
  00048	e8 00 00 00 00	 call	 __CxxThrowException@8
$L201814:

; 885  : 		}

  0004d	8b 4d f4	 mov	 ecx, DWORD PTR __$EHRec$[ebp]
  00050	64 89 0d 00 00
	00 00		 mov	 DWORD PTR fs:__except_list, ecx
  00057	8b e5		 mov	 esp, ebp
  00059	5d		 pop	 ebp
  0005a	c3		 ret	 0
_TEXT	ENDS
;	COMDAT text$x
text$x	SEGMENT
$L201817:
  00000	8d 4d b0	 lea	 ecx, DWORD PTR $T201816[ebp]
  00003	ff 25 00 00 00
	00		 jmp	 DWORD PTR __imp_??1?$basic_string@DU?$char_traits@D@std@@V?$allocator@D@2@@std@@QAE@XZ
__ehhandler$?_Xlen@?$vector@V?$basic_string@DU?$char_traits@D@std@@V?$allocator@D@2@@std@@V?$allocator@V?$basic_string@DU?$char_traits@D@std@@V?$allocator@D@2@@std@@@2@@std@@IBEXXZ:
  00009	b8 00 00 00 00	 mov	 eax, OFFSET FLAT:$T201819
  0000e	e9 00 00 00 00	 jmp	 ___CxxFrameHandler
text$x	ENDS
?_Xlen@?$vector@V?$basic_string@DU?$char_traits@D@std@@V?$allocator@D@2@@std@@V?$allocator@V?$basic_string@DU?$char_traits@D@std@@V?$allocator@D@2@@std@@@2@@std@@IBEXXZ ENDP ; std::vector<std::basic_string<char,std::char_traits<char>,std::allocator<char> >,std::allocator<std::basic_string<char,std::char_traits<char>,std::allocator<char> > > >::_Xlen
PUBLIC	??0const_iterator@?$vector@V?$basic_string@DU?$char_traits@D@std@@V?$allocator@D@2@@std@@V?$allocator@V?$basic_string@DU?$char_traits@D@std@@V?$allocator@D@2@@std@@@2@@std@@QAE@PAV?$basic_string@DU?$char_traits@D@std@@V?$allocator@D@2@@2@@Z ; std::vector<std::basic_string<char,std::char_traits<char>,std::allocator<char> >,std::allocator<std::basic_string<char,std::char_traits<char>,std::allocator<char> > > >::const_iterator::const_iterator
; Function compile flags: /Odt
;	COMDAT ??0iterator@?$vector@V?$basic_string@DU?$char_traits@D@std@@V?$allocator@D@2@@std@@V?$allocator@V?$basic_string@DU?$char_traits@D@std@@V?$allocator@D@2@@std@@@2@@std@@QAE@PAV?$basic_string@DU?$char_traits@D@std@@V?$allocator@D@2@@2@@Z
_TEXT	SEGMENT
_this$ = -4						; size = 4
__Ptr$ = 8						; size = 4
??0iterator@?$vector@V?$basic_string@DU?$char_traits@D@std@@V?$allocator@D@2@@std@@V?$allocator@V?$basic_string@DU?$char_traits@D@std@@V?$allocator@D@2@@std@@@2@@std@@QAE@PAV?$basic_string@DU?$char_traits@D@std@@V?$allocator@D@2@@2@@Z PROC NEAR ; std::vector<std::basic_string<char,std::char_traits<char>,std::allocator<char> >,std::allocator<std::basic_string<char,std::char_traits<char>,std::allocator<char> > > >::iterator::iterator, COMDAT
; _this$ = ecx

; 215  : 			{	// construct with pointer _Ptr

  00000	55		 push	 ebp
  00001	8b ec		 mov	 ebp, esp
  00003	51		 push	 ecx
  00004	89 4d fc	 mov	 DWORD PTR _this$[ebp], ecx
  00007	8b 45 08	 mov	 eax, DWORD PTR __Ptr$[ebp]
  0000a	50		 push	 eax
  0000b	8b 4d fc	 mov	 ecx, DWORD PTR _this$[ebp]
  0000e	e8 00 00 00 00	 call	 ??0const_iterator@?$vector@V?$basic_string@DU?$char_traits@D@std@@V?$allocator@D@2@@std@@V?$allocator@V?$basic_string@DU?$char_traits@D@std@@V?$allocator@D@2@@std@@@2@@std@@QAE@PAV?$basic_string@DU?$char_traits@D@std@@V?$allocator@D@2@@2@@Z ; std::vector<std::basic_string<char,std::char_traits<char>,std::allocator<char> >,std::allocator<std::basic_string<char,std::char_traits<char>,std::allocator<char> > > >::const_iterator::const_iterator

; 216  : 			}

  00013	8b 45 fc	 mov	 eax, DWORD PTR _this$[ebp]
  00016	8b e5		 mov	 esp, ebp
  00018	5d		 pop	 ebp
  00019	c2 04 00	 ret	 4
??0iterator@?$vector@V?$basic_string@DU?$char_traits@D@std@@V?$allocator@D@2@@std@@V?$allocator@V?$basic_string@DU?$char_traits@D@std@@V?$allocator@D@2@@std@@@2@@std@@QAE@PAV?$basic_string@DU?$char_traits@D@std@@V?$allocator@D@2@@2@@Z ENDP ; std::vector<std::basic_string<char,std::char_traits<char>,std::allocator<char> >,std::allocator<std::basic_string<char,std::char_traits<char>,std::allocator<char> > > >::iterator::iterator
; Function compile flags: /Odt
_TEXT	ENDS
;	COMDAT ??Yiterator@?$vector@V?$basic_string@DU?$char_traits@D@std@@V?$allocator@D@2@@std@@V?$allocator@V?$basic_string@DU?$char_traits@D@std@@V?$allocator@D@2@@std@@@2@@std@@QAEAAV012@H@Z
_TEXT	SEGMENT
_this$ = -4						; size = 4
__Off$ = 8						; size = 4
??Yiterator@?$vector@V?$basic_string@DU?$char_traits@D@std@@V?$allocator@D@2@@std@@V?$allocator@V?$basic_string@DU?$char_traits@D@std@@V?$allocator@D@2@@std@@@2@@std@@QAEAAV012@H@Z PROC NEAR ; std::vector<std::basic_string<char,std::char_traits<char>,std::allocator<char> >,std::allocator<std::basic_string<char,std::char_traits<char>,std::allocator<char> > > >::iterator::operator+=, COMDAT
; _this$ = ecx

; 255  : 			{	// increment by integer

  00000	55		 push	 ebp
  00001	8b ec		 mov	 ebp, esp
  00003	51		 push	 ecx
  00004	89 4d fc	 mov	 DWORD PTR _this$[ebp], ecx

; 256  : 			this->_Myptr += _Off;

  00007	8b 45 08	 mov	 eax, DWORD PTR __Off$[ebp]
  0000a	6b c0 1c	 imul	 eax, 28			; 0000001cH
  0000d	8b 4d fc	 mov	 ecx, DWORD PTR _this$[ebp]
  00010	03 01		 add	 eax, DWORD PTR [ecx]
  00012	8b 55 fc	 mov	 edx, DWORD PTR _this$[ebp]
  00015	89 02		 mov	 DWORD PTR [edx], eax

; 257  : 			return (*this);

  00017	8b 45 fc	 mov	 eax, DWORD PTR _this$[ebp]

; 258  : 			}

  0001a	8b e5		 mov	 esp, ebp
  0001c	5d		 pop	 ebp
  0001d	c2 04 00	 ret	 4
??Yiterator@?$vector@V?$basic_string@DU?$char_traits@D@std@@V?$allocator@D@2@@std@@V?$allocator@V?$basic_string@DU?$char_traits@D@std@@V?$allocator@D@2@@std@@@2@@std@@QAEAAV012@H@Z ENDP ; std::vector<std::basic_string<char,std::char_traits<char>,std::allocator<char> >,std::allocator<std::basic_string<char,std::char_traits<char>,std::allocator<char> > > >::iterator::operator+=
_TEXT	ENDS
PUBLIC	??Gconst_iterator@?$vector@V?$basic_string@DU?$char_traits@D@std@@V?$allocator@D@2@@std@@V?$allocator@V?$basic_string@DU?$char_traits@D@std@@V?$allocator@D@2@@std@@@2@@std@@QBEHABV012@@Z ; std::vector<std::basic_string<char,std::char_traits<char>,std::allocator<char> >,std::allocator<std::basic_string<char,std::char_traits<char>,std::allocator<char> > > >::const_iterator::operator-
; Function compile flags: /Odt
;	COMDAT ??Giterator@?$vector@V?$basic_string@DU?$char_traits@D@std@@V?$allocator@D@2@@std@@V?$allocator@V?$basic_string@DU?$char_traits@D@std@@V?$allocator@D@2@@std@@@2@@std@@QBEHABVconst_iterator@12@@Z
_TEXT	SEGMENT
_this$ = -8						; size = 4
$T201830 = -4						; size = 4
__Right$ = 8						; size = 4
??Giterator@?$vector@V?$basic_string@DU?$char_traits@D@std@@V?$allocator@D@2@@std@@V?$allocator@V?$basic_string@DU?$char_traits@D@std@@V?$allocator@D@2@@std@@@2@@std@@QBEHABVconst_iterator@12@@Z PROC NEAR ; std::vector<std::basic_string<char,std::char_traits<char>,std::allocator<char> >,std::allocator<std::basic_string<char,std::char_traits<char>,std::allocator<char> > > >::iterator::operator-, COMDAT
; _this$ = ecx

; 278  : 			{	// return difference of iterators

  00000	55		 push	 ebp
  00001	8b ec		 mov	 ebp, esp
  00003	83 ec 08	 sub	 esp, 8
  00006	89 4d f8	 mov	 DWORD PTR _this$[ebp], ecx

; 279  : 			return ((const_iterator)*this - _Right);

  00009	8b 45 f8	 mov	 eax, DWORD PTR _this$[ebp]
  0000c	8b 08		 mov	 ecx, DWORD PTR [eax]
  0000e	89 4d fc	 mov	 DWORD PTR $T201830[ebp], ecx
  00011	8b 55 08	 mov	 edx, DWORD PTR __Right$[ebp]
  00014	52		 push	 edx
  00015	8d 4d fc	 lea	 ecx, DWORD PTR $T201830[ebp]
  00018	e8 00 00 00 00	 call	 ??Gconst_iterator@?$vector@V?$basic_string@DU?$char_traits@D@std@@V?$allocator@D@2@@std@@V?$allocator@V?$basic_string@DU?$char_traits@D@std@@V?$allocator@D@2@@std@@@2@@std@@QBEHABV012@@Z ; std::vector<std::basic_string<char,std::char_traits<char>,std::allocator<char> >,std::allocator<std::basic_string<char,std::char_traits<char>,std::allocator<char> > > >::const_iterator::operator-

; 280  : 			}

  0001d	8b e5		 mov	 esp, ebp
  0001f	5d		 pop	 ebp
  00020	c2 04 00	 ret	 4
??Giterator@?$vector@V?$basic_string@DU?$char_traits@D@std@@V?$allocator@D@2@@std@@V?$allocator@V?$basic_string@DU?$char_traits@D@std@@V?$allocator@D@2@@std@@@2@@std@@QBEHABVconst_iterator@12@@Z ENDP ; std::vector<std::basic_string<char,std::char_traits<char>,std::allocator<char> >,std::allocator<std::basic_string<char,std::char_traits<char>,std::allocator<char> > > >::iterator::operator-
; Function compile flags: /Odt
_TEXT	ENDS
;	COMDAT ??Dconst_iterator@?$vector@V?$basic_string@DU?$char_traits@D@std@@V?$allocator@D@2@@std@@V?$allocator@V?$basic_string@DU?$char_traits@D@std@@V?$allocator@D@2@@std@@@2@@std@@QBEABV?$basic_string@DU?$char_traits@D@std@@V?$allocator@D@2@@2@XZ
_TEXT	SEGMENT
_this$ = -4						; size = 4
??Dconst_iterator@?$vector@V?$basic_string@DU?$char_traits@D@std@@V?$allocator@D@2@@std@@V?$allocator@V?$basic_string@DU?$char_traits@D@std@@V?$allocator@D@2@@std@@@2@@std@@QBEABV?$basic_string@DU?$char_traits@D@std@@V?$allocator@D@2@@2@XZ PROC NEAR ; std::vector<std::basic_string<char,std::char_traits<char>,std::allocator<char> >,std::allocator<std::basic_string<char,std::char_traits<char>,std::allocator<char> > > >::const_iterator::operator*, COMDAT
; _this$ = ecx

; 79   : 			{	// return designated object

  00000	55		 push	 ebp
  00001	8b ec		 mov	 ebp, esp
  00003	51		 push	 ecx
  00004	89 4d fc	 mov	 DWORD PTR _this$[ebp], ecx

; 80   : 
; 81   : 
; 82   : 			return (*_Myptr);

  00007	8b 45 fc	 mov	 eax, DWORD PTR _this$[ebp]
  0000a	8b 00		 mov	 eax, DWORD PTR [eax]

; 83   : 			}

  0000c	8b e5		 mov	 esp, ebp
  0000e	5d		 pop	 ebp
  0000f	c3		 ret	 0
??Dconst_iterator@?$vector@V?$basic_string@DU?$char_traits@D@std@@V?$allocator@D@2@@std@@V?$allocator@V?$basic_string@DU?$char_traits@D@std@@V?$allocator@D@2@@std@@@2@@std@@QBEABV?$basic_string@DU?$char_traits@D@std@@V?$allocator@D@2@@2@XZ ENDP ; std::vector<std::basic_string<char,std::char_traits<char>,std::allocator<char> >,std::allocator<std::basic_string<char,std::char_traits<char>,std::allocator<char> > > >::const_iterator::operator*
_TEXT	ENDS
PUBLIC	??_R1A@?0A@A@logic_error@std@@8			; std::logic_error::`RTTI Base Class Descriptor at (0,-1,0,0)'
PUBLIC	??_R1A@?0A@A@exception@@8			; exception::`RTTI Base Class Descriptor at (0,-1,0,0)'
PUBLIC	??_R4length_error@std@@6B@			; std::length_error::`RTTI Complete Object Locator'
PUBLIC	??_R3length_error@std@@8			; std::length_error::`RTTI Class Hierarchy Descriptor'
PUBLIC	??_R2length_error@std@@8			; std::length_error::`RTTI Base Class Array'
PUBLIC	??_R1A@?0A@A@length_error@std@@8		; std::length_error::`RTTI Base Class Descriptor at (0,-1,0,0)'
PUBLIC	?what@logic_error@std@@UBEPBDXZ			; std::logic_error::what
PUBLIC	??_7length_error@std@@6B@			; std::length_error::`vftable'
PUBLIC	??_Glength_error@std@@UAEPAXI@Z			; std::length_error::`scalar deleting destructor'
EXTRN	??_Elength_error@std@@UAEPAXI@Z:NEAR		; std::length_error::`vector deleting destructor'
;	COMDAT ??_7length_error@std@@6B@
CONST	SEGMENT
??_7length_error@std@@6B@ DD FLAT:??_R4length_error@std@@6B@ ; std::length_error::`vftable'
	DD	FLAT:??_Elength_error@std@@UAEPAXI@Z
	DD	FLAT:?what@logic_error@std@@UBEPBDXZ
CONST	ENDS
;	COMDAT ??_R4length_error@std@@6B@
rdata$r	SEGMENT
??_R4length_error@std@@6B@ DD 00H			; std::length_error::`RTTI Complete Object Locator'
	DD	00H
	DD	00H
	DD	FLAT:??_R0?AVlength_error@std@@@8
	DD	FLAT:??_R3length_error@std@@8
rdata$r	ENDS
;	COMDAT ??_R3length_error@std@@8
rdata$r	SEGMENT
??_R3length_error@std@@8 DD 00H				; std::length_error::`RTTI Class Hierarchy Descriptor'
	DD	00H
	DD	03H
	DD	FLAT:??_R2length_error@std@@8
rdata$r	ENDS
;	COMDAT ??_R2length_error@std@@8
rdata$r	SEGMENT
??_R2length_error@std@@8 DD FLAT:??_R1A@?0A@A@length_error@std@@8 ; std::length_error::`RTTI Base Class Array'
	DD	FLAT:??_R1A@?0A@A@logic_error@std@@8
	DD	FLAT:??_R1A@?0A@A@exception@@8
rdata$r	ENDS
;	COMDAT ??_R1A@?0A@A@length_error@std@@8
rdata$r	SEGMENT
??_R1A@?0A@A@length_error@std@@8 DD FLAT:??_R0?AVlength_error@std@@@8 ; std::length_error::`RTTI Base Class Descriptor at (0,-1,0,0)'
	DD	02H
	DD	00H
	DD	0ffffffffH
	DD	00H
	DD	00H
rdata$r	ENDS
;	COMDAT ??_R1A@?0A@A@logic_error@std@@8
rdata$r	SEGMENT
??_R1A@?0A@A@logic_error@std@@8 DD FLAT:??_R0?AVlogic_error@std@@@8 ; std::logic_error::`RTTI Base Class Descriptor at (0,-1,0,0)'
	DD	01H
	DD	00H
	DD	0ffffffffH
	DD	00H
	DD	00H
rdata$r	ENDS
;	COMDAT ??_R1A@?0A@A@exception@@8
rdata$r	SEGMENT
??_R1A@?0A@A@exception@@8 DD FLAT:??_R0?AVexception@@@8	; exception::`RTTI Base Class Descriptor at (0,-1,0,0)'
	DD	00H
	DD	00H
	DD	0ffffffffH
	DD	00H
	DD	00H
; Function compile flags: /Odt
rdata$r	ENDS
;	COMDAT ??0length_error@std@@QAE@ABV01@@Z
_TEXT	SEGMENT
_this$ = -4						; size = 4
___that$ = 8						; size = 4
??0length_error@std@@QAE@ABV01@@Z PROC NEAR		; std::length_error::length_error, COMDAT
; _this$ = ecx
  00000	55		 push	 ebp
  00001	8b ec		 mov	 ebp, esp
  00003	51		 push	 ecx
  00004	89 4d fc	 mov	 DWORD PTR _this$[ebp], ecx
  00007	8b 45 08	 mov	 eax, DWORD PTR ___that$[ebp]
  0000a	50		 push	 eax
  0000b	8b 4d fc	 mov	 ecx, DWORD PTR _this$[ebp]
  0000e	e8 00 00 00 00	 call	 ??0logic_error@std@@QAE@ABV01@@Z
  00013	8b 4d fc	 mov	 ecx, DWORD PTR _this$[ebp]
  00016	c7 01 00 00 00
	00		 mov	 DWORD PTR [ecx], OFFSET FLAT:??_7length_error@std@@6B@
  0001c	8b 45 fc	 mov	 eax, DWORD PTR _this$[ebp]
  0001f	8b e5		 mov	 esp, ebp
  00021	5d		 pop	 ebp
  00022	c2 04 00	 ret	 4
??0length_error@std@@QAE@ABV01@@Z ENDP			; std::length_error::length_error
; Function compile flags: /Odt
; File d:\program files (x86)\microsoft visual studio .net 2003\vc7\include\xmemory
_TEXT	ENDS
;	COMDAT ?max_size@?$allocator@V?$basic_string@DU?$char_traits@D@std@@V?$allocator@D@2@@std@@@std@@QBEIXZ
_TEXT	SEGMENT
tv65 = -12						; size = 4
_this$ = -8						; size = 4
__Count$ = -4						; size = 4
?max_size@?$allocator@V?$basic_string@DU?$char_traits@D@std@@V?$allocator@D@2@@std@@@std@@QBEIXZ PROC NEAR ; std::allocator<std::basic_string<char,std::char_traits<char>,std::allocator<char> > >::max_size, COMDAT
; _this$ = ecx

; 156  : 		{	// estimate maximum array size

  00000	55		 push	 ebp
  00001	8b ec		 mov	 ebp, esp
  00003	83 ec 0c	 sub	 esp, 12			; 0000000cH
  00006	89 4d f8	 mov	 DWORD PTR _this$[ebp], ecx

; 157  : 		_SIZT _Count = (_SIZT)(-1) / sizeof (_Ty);

  00009	c7 45 fc 49 92
	24 09		 mov	 DWORD PTR __Count$[ebp], 153391689 ; 09249249H

; 158  : 		return (0 < _Count ? _Count : 1);

  00010	83 7d fc 00	 cmp	 DWORD PTR __Count$[ebp], 0
  00014	76 08		 jbe	 SHORT $L201838
  00016	8b 45 fc	 mov	 eax, DWORD PTR __Count$[ebp]
  00019	89 45 f4	 mov	 DWORD PTR tv65[ebp], eax
  0001c	eb 07		 jmp	 SHORT $L201839
$L201838:
  0001e	c7 45 f4 01 00
	00 00		 mov	 DWORD PTR tv65[ebp], 1
$L201839:
  00025	8b 45 f4	 mov	 eax, DWORD PTR tv65[ebp]

; 159  : 		}

  00028	8b e5		 mov	 esp, ebp
  0002a	5d		 pop	 ebp
  0002b	c3		 ret	 0
?max_size@?$allocator@V?$basic_string@DU?$char_traits@D@std@@V?$allocator@D@2@@std@@@std@@QBEIXZ ENDP ; std::allocator<std::basic_string<char,std::char_traits<char>,std::allocator<char> > >::max_size
; Function compile flags: /Odt
; File d:\program files (x86)\microsoft visual studio .net 2003\vc7\include\vector
_TEXT	ENDS
;	COMDAT ??0const_iterator@?$vector@V?$basic_string@DU?$char_traits@D@std@@V?$allocator@D@2@@std@@V?$allocator@V?$basic_string@DU?$char_traits@D@std@@V?$allocator@D@2@@std@@@2@@std@@QAE@PAV?$basic_string@DU?$char_traits@D@std@@V?$allocator@D@2@@2@@Z
_TEXT	SEGMENT
_this$ = -4						; size = 4
__Ptr$ = 8						; size = 4
??0const_iterator@?$vector@V?$basic_string@DU?$char_traits@D@std@@V?$allocator@D@2@@std@@V?$allocator@V?$basic_string@DU?$char_traits@D@std@@V?$allocator@D@2@@std@@@2@@std@@QAE@PAV?$basic_string@DU?$char_traits@D@std@@V?$allocator@D@2@@2@@Z PROC NEAR ; std::vector<std::basic_string<char,std::char_traits<char>,std::allocator<char> >,std::allocator<std::basic_string<char,std::char_traits<char>,std::allocator<char> > > >::const_iterator::const_iterator, COMDAT
; _this$ = ecx

; 73   : 		const_iterator(_Tptr _Ptr)

  00000	55		 push	 ebp
  00001	8b ec		 mov	 ebp, esp
  00003	51		 push	 ecx
  00004	89 4d fc	 mov	 DWORD PTR _this$[ebp], ecx

; 74   : 			{	// construct with pointer _Ptr
; 75   : 			_Myptr = _Ptr;

  00007	8b 45 fc	 mov	 eax, DWORD PTR _this$[ebp]
  0000a	8b 4d 08	 mov	 ecx, DWORD PTR __Ptr$[ebp]
  0000d	89 08		 mov	 DWORD PTR [eax], ecx

; 76   : 			}

  0000f	8b 45 fc	 mov	 eax, DWORD PTR _this$[ebp]
  00012	8b e5		 mov	 esp, ebp
  00014	5d		 pop	 ebp
  00015	c2 04 00	 ret	 4
??0const_iterator@?$vector@V?$basic_string@DU?$char_traits@D@std@@V?$allocator@D@2@@std@@V?$allocator@V?$basic_string@DU?$char_traits@D@std@@V?$allocator@D@2@@std@@@2@@std@@QAE@PAV?$basic_string@DU?$char_traits@D@std@@V?$allocator@D@2@@2@@Z ENDP ; std::vector<std::basic_string<char,std::char_traits<char>,std::allocator<char> >,std::allocator<std::basic_string<char,std::char_traits<char>,std::allocator<char> > > >::const_iterator::const_iterator
; Function compile flags: /Odt
_TEXT	ENDS
;	COMDAT ??Gconst_iterator@?$vector@V?$basic_string@DU?$char_traits@D@std@@V?$allocator@D@2@@std@@V?$allocator@V?$basic_string@DU?$char_traits@D@std@@V?$allocator@D@2@@std@@@2@@std@@QBEHABV012@@Z
_TEXT	SEGMENT
_this$ = -4						; size = 4
__Right$ = 8						; size = 4
??Gconst_iterator@?$vector@V?$basic_string@DU?$char_traits@D@std@@V?$allocator@D@2@@std@@V?$allocator@V?$basic_string@DU?$char_traits@D@std@@V?$allocator@D@2@@std@@@2@@std@@QBEHABV012@@Z PROC NEAR ; std::vector<std::basic_string<char,std::char_traits<char>,std::allocator<char> >,std::allocator<std::basic_string<char,std::char_traits<char>,std::allocator<char> > > >::const_iterator::operator-, COMDAT
; _this$ = ecx

; 140  : 			{	// return difference of iterators

  00000	55		 push	 ebp
  00001	8b ec		 mov	 ebp, esp
  00003	51		 push	 ecx
  00004	89 4d fc	 mov	 DWORD PTR _this$[ebp], ecx

; 141  : 
; 142  : 
; 143  : 			return (_Myptr - _Right._Myptr);

  00007	8b 45 fc	 mov	 eax, DWORD PTR _this$[ebp]
  0000a	8b 4d 08	 mov	 ecx, DWORD PTR __Right$[ebp]
  0000d	8b 00		 mov	 eax, DWORD PTR [eax]
  0000f	2b 01		 sub	 eax, DWORD PTR [ecx]
  00011	99		 cdq
  00012	b9 1c 00 00 00	 mov	 ecx, 28			; 0000001cH
  00017	f7 f9		 idiv	 ecx

; 144  : 			}

  00019	8b e5		 mov	 esp, ebp
  0001b	5d		 pop	 ebp
  0001c	c2 04 00	 ret	 4
??Gconst_iterator@?$vector@V?$basic_string@DU?$char_traits@D@std@@V?$allocator@D@2@@std@@V?$allocator@V?$basic_string@DU?$char_traits@D@std@@V?$allocator@D@2@@std@@@2@@std@@QBEHABV012@@Z ENDP ; std::vector<std::basic_string<char,std::char_traits<char>,std::allocator<char> >,std::allocator<std::basic_string<char,std::char_traits<char>,std::allocator<char> > > >::const_iterator::operator-
_TEXT	ENDS
PUBLIC	??$_Ptr_cat@PAV?$basic_string@DU?$char_traits@D@std@@V?$allocator@D@2@@std@@PAV12@@std@@YA?AU_Nonscalar_ptr_iterator_tag@0@AAPAV?$basic_string@DU?$char_traits@D@std@@V?$allocator@D@2@@0@0@Z ; std::_Ptr_cat<std::basic_string<char,std::char_traits<char>,std::allocator<char> > *,std::basic_string<char,std::char_traits<char>,std::allocator<char> > *>
PUBLIC	??$_Uninit_fill_n@PAV?$basic_string@DU?$char_traits@D@std@@V?$allocator@D@2@@std@@IV12@V?$allocator@V?$basic_string@DU?$char_traits@D@std@@V?$allocator@D@2@@std@@@2@@std@@YAXPAV?$basic_string@DU?$char_traits@D@std@@V?$allocator@D@2@@0@IABV10@AAV?$allocator@V?$basic_string@DU?$char_traits@D@std@@V?$allocator@D@2@@std@@@0@U_Nonscalar_ptr_iterator_tag@0@@Z ; std::_Uninit_fill_n<std::basic_string<char,std::char_traits<char>,std::allocator<char> > *,unsigned int,std::basic_string<char,std::char_traits<char>,std::allocator<char> >,std::allocator<std::basic_string<char,std::char_traits<char>,std::allocator<char> > > >
; Function compile flags: /Odt
; File d:\program files (x86)\microsoft visual studio .net 2003\vc7\include\memory
;	COMDAT ??$_Uninitialized_fill_n@PAV?$basic_string@DU?$char_traits@D@std@@V?$allocator@D@2@@std@@IV12@V?$allocator@V?$basic_string@DU?$char_traits@D@std@@V?$allocator@D@2@@std@@@2@@std@@YAXPAV?$basic_string@DU?$char_traits@D@std@@V?$allocator@D@2@@0@IABV10@AAV?$allocator@V?$basic_string@DU?$char_traits@D@std@@V?$allocator@D@2@@std@@@0@@Z
_TEXT	SEGMENT
$T201846 = -1						; size = 1
__First$ = 8						; size = 4
__Count$ = 12						; size = 4
__Val$ = 16						; size = 4
__Al$ = 20						; size = 4
??$_Uninitialized_fill_n@PAV?$basic_string@DU?$char_traits@D@std@@V?$allocator@D@2@@std@@IV12@V?$allocator@V?$basic_string@DU?$char_traits@D@std@@V?$allocator@D@2@@std@@@2@@std@@YAXPAV?$basic_string@DU?$char_traits@D@std@@V?$allocator@D@2@@0@IABV10@AAV?$allocator@V?$basic_string@DU?$char_traits@D@std@@V?$allocator@D@2@@std@@@0@@Z PROC NEAR ; std::_Uninitialized_fill_n<std::basic_string<char,std::char_traits<char>,std::allocator<char> > *,unsigned int,std::basic_string<char,std::char_traits<char>,std::allocator<char> >,std::allocator<std::basic_string<char,std::char_traits<char>,std::allocator<char> > > >, COMDAT

; 255  : 	{	// copy _Count *_Val to raw _First, using _Al

  00000	55		 push	 ebp
  00001	8b ec		 mov	 ebp, esp
  00003	51		 push	 ecx

; 256  : 	_Uninit_fill_n(_First, _Count, _Val, _Al,
; 257  : 		_Ptr_cat(_First, _First));

  00004	8d 45 08	 lea	 eax, DWORD PTR __First$[ebp]
  00007	50		 push	 eax
  00008	8d 4d 08	 lea	 ecx, DWORD PTR __First$[ebp]
  0000b	51		 push	 ecx
  0000c	e8 00 00 00 00	 call	 ??$_Ptr_cat@PAV?$basic_string@DU?$char_traits@D@std@@V?$allocator@D@2@@std@@PAV12@@std@@YA?AU_Nonscalar_ptr_iterator_tag@0@AAPAV?$basic_string@DU?$char_traits@D@std@@V?$allocator@D@2@@0@0@Z ; std::_Ptr_cat<std::basic_string<char,std::char_traits<char>,std::allocator<char> > *,std::basic_string<char,std::char_traits<char>,std::allocator<char> > *>
  00011	83 c4 08	 add	 esp, 8
  00014	88 45 ff	 mov	 BYTE PTR $T201846[ebp], al
  00017	8a 55 ff	 mov	 dl, BYTE PTR $T201846[ebp]
  0001a	52		 push	 edx
  0001b	8b 45 14	 mov	 eax, DWORD PTR __Al$[ebp]
  0001e	50		 push	 eax
  0001f	8b 4d 10	 mov	 ecx, DWORD PTR __Val$[ebp]
  00022	51		 push	 ecx
  00023	8b 55 0c	 mov	 edx, DWORD PTR __Count$[ebp]
  00026	52		 push	 edx
  00027	8b 45 08	 mov	 eax, DWORD PTR __First$[ebp]
  0002a	50		 push	 eax
  0002b	e8 00 00 00 00	 call	 ??$_Uninit_fill_n@PAV?$basic_string@DU?$char_traits@D@std@@V?$allocator@D@2@@std@@IV12@V?$allocator@V?$basic_string@DU?$char_traits@D@std@@V?$allocator@D@2@@std@@@2@@std@@YAXPAV?$basic_string@DU?$char_traits@D@std@@V?$allocator@D@2@@0@IABV10@AAV?$allocator@V?$basic_string@DU?$char_traits@D@std@@V?$allocator@D@2@@std@@@0@U_Nonscalar_ptr_iterator_tag@0@@Z ; std::_Uninit_fill_n<std::basic_string<char,std::char_traits<char>,std::allocator<char> > *,unsigned int,std::basic_string<char,std::char_traits<char>,std::allocator<char> >,std::allocator<std::basic_string<char,std::char_traits<char>,std::allocator<char> > > >
  00030	83 c4 14	 add	 esp, 20			; 00000014H

; 258  : 	}

  00033	8b e5		 mov	 esp, ebp
  00035	5d		 pop	 ebp
  00036	c3		 ret	 0
??$_Uninitialized_fill_n@PAV?$basic_string@DU?$char_traits@D@std@@V?$allocator@D@2@@std@@IV12@V?$allocator@V?$basic_string@DU?$char_traits@D@std@@V?$allocator@D@2@@std@@@2@@std@@YAXPAV?$basic_string@DU?$char_traits@D@std@@V?$allocator@D@2@@0@IABV10@AAV?$allocator@V?$basic_string@DU?$char_traits@D@std@@V?$allocator@D@2@@std@@@0@@Z ENDP ; std::_Uninitialized_fill_n<std::basic_string<char,std::char_traits<char>,std::allocator<char> > *,unsigned int,std::basic_string<char,std::char_traits<char>,std::allocator<char> >,std::allocator<std::basic_string<char,std::char_traits<char>,std::allocator<char> > > >
; Function compile flags: /Odt
; File d:\program files (x86)\microsoft visual studio .net 2003\vc7\include\xmemory
_TEXT	ENDS
;	COMDAT ??$_Allocate@V?$basic_string@DU?$char_traits@D@std@@V?$allocator@D@2@@std@@@std@@YAPAV?$basic_string@DU?$char_traits@D@std@@V?$allocator@D@2@@0@IPAV10@@Z
_TEXT	SEGMENT
__Count$ = 8						; size = 4
___formal$ = 12						; size = 4
??$_Allocate@V?$basic_string@DU?$char_traits@D@std@@V?$allocator@D@2@@std@@@std@@YAPAV?$basic_string@DU?$char_traits@D@std@@V?$allocator@D@2@@0@IPAV10@@Z PROC NEAR ; std::_Allocate<std::basic_string<char,std::char_traits<char>,std::allocator<char> > >, COMDAT

; 33   : 	{	// allocate storage for _Count elements of type _Ty

  00000	55		 push	 ebp
  00001	8b ec		 mov	 ebp, esp

; 34   : 	return ((_Ty _FARQ *)operator new(_Count * sizeof (_Ty)));

  00003	8b 45 08	 mov	 eax, DWORD PTR __Count$[ebp]
  00006	6b c0 1c	 imul	 eax, 28			; 0000001cH
  00009	50		 push	 eax
  0000a	e8 00 00 00 00	 call	 ??2@YAPAXI@Z		; operator new
  0000f	83 c4 04	 add	 esp, 4

; 35   : 	}

  00012	5d		 pop	 ebp
  00013	c3		 ret	 0
??$_Allocate@V?$basic_string@DU?$char_traits@D@std@@V?$allocator@D@2@@std@@@std@@YAPAV?$basic_string@DU?$char_traits@D@std@@V?$allocator@D@2@@0@IPAV10@@Z ENDP ; std::_Allocate<std::basic_string<char,std::char_traits<char>,std::allocator<char> > >
_TEXT	ENDS
PUBLIC	??$_Destroy_range@V?$basic_string@DU?$char_traits@D@std@@V?$allocator@D@2@@std@@V?$allocator@V?$basic_string@DU?$char_traits@D@std@@V?$allocator@D@2@@std@@@2@@std@@YAXPAV?$basic_string@DU?$char_traits@D@std@@V?$allocator@D@2@@0@0AAV?$allocator@V?$basic_string@DU?$char_traits@D@std@@V?$allocator@D@2@@std@@@0@U_Nonscalar_ptr_iterator_tag@0@@Z ; std::_Destroy_range<std::basic_string<char,std::char_traits<char>,std::allocator<char> >,std::allocator<std::basic_string<char,std::char_traits<char>,std::allocator<char> > > >
; Function compile flags: /Odt
;	COMDAT ??$_Destroy_range@V?$basic_string@DU?$char_traits@D@std@@V?$allocator@D@2@@std@@V?$allocator@V?$basic_string@DU?$char_traits@D@std@@V?$allocator@D@2@@std@@@2@@std@@YAXPAV?$basic_string@DU?$char_traits@D@std@@V?$allocator@D@2@@0@0AAV?$allocator@V?$basic_string@DU?$char_traits@D@std@@V?$allocator@D@2@@std@@@0@@Z
_TEXT	SEGMENT
$T201851 = -1						; size = 1
__First$ = 8						; size = 4
__Last$ = 12						; size = 4
__Al$ = 16						; size = 4
??$_Destroy_range@V?$basic_string@DU?$char_traits@D@std@@V?$allocator@D@2@@std@@V?$allocator@V?$basic_string@DU?$char_traits@D@std@@V?$allocator@D@2@@std@@@2@@std@@YAXPAV?$basic_string@DU?$char_traits@D@std@@V?$allocator@D@2@@0@0AAV?$allocator@V?$basic_string@DU?$char_traits@D@std@@V?$allocator@D@2@@std@@@0@@Z PROC NEAR ; std::_Destroy_range<std::basic_string<char,std::char_traits<char>,std::allocator<char> >,std::allocator<std::basic_string<char,std::char_traits<char>,std::allocator<char> > > >, COMDAT

; 216  : 	{	// destroy [_First, _Last)

  00000	55		 push	 ebp
  00001	8b ec		 mov	 ebp, esp
  00003	51		 push	 ecx

; 217  : 	_Destroy_range(_First, _Last, _Al, _Ptr_cat(_First, _Last));

  00004	8d 45 0c	 lea	 eax, DWORD PTR __Last$[ebp]
  00007	50		 push	 eax
  00008	8d 4d 08	 lea	 ecx, DWORD PTR __First$[ebp]
  0000b	51		 push	 ecx
  0000c	e8 00 00 00 00	 call	 ??$_Ptr_cat@PAV?$basic_string@DU?$char_traits@D@std@@V?$allocator@D@2@@std@@PAV12@@std@@YA?AU_Nonscalar_ptr_iterator_tag@0@AAPAV?$basic_string@DU?$char_traits@D@std@@V?$allocator@D@2@@0@0@Z ; std::_Ptr_cat<std::basic_string<char,std::char_traits<char>,std::allocator<char> > *,std::basic_string<char,std::char_traits<char>,std::allocator<char> > *>
  00011	83 c4 08	 add	 esp, 8
  00014	88 45 ff	 mov	 BYTE PTR $T201851[ebp], al
  00017	8a 55 ff	 mov	 dl, BYTE PTR $T201851[ebp]
  0001a	52		 push	 edx
  0001b	8b 45 10	 mov	 eax, DWORD PTR __Al$[ebp]
  0001e	50		 push	 eax
  0001f	8b 4d 0c	 mov	 ecx, DWORD PTR __Last$[ebp]
  00022	51		 push	 ecx
  00023	8b 55 08	 mov	 edx, DWORD PTR __First$[ebp]
  00026	52		 push	 edx
  00027	e8 00 00 00 00	 call	 ??$_Destroy_range@V?$basic_string@DU?$char_traits@D@std@@V?$allocator@D@2@@std@@V?$allocator@V?$basic_string@DU?$char_traits@D@std@@V?$allocator@D@2@@std@@@2@@std@@YAXPAV?$basic_string@DU?$char_traits@D@std@@V?$allocator@D@2@@0@0AAV?$allocator@V?$basic_string@DU?$char_traits@D@std@@V?$allocator@D@2@@std@@@0@U_Nonscalar_ptr_iterator_tag@0@@Z ; std::_Destroy_range<std::basic_string<char,std::char_traits<char>,std::allocator<char> >,std::allocator<std::basic_string<char,std::char_traits<char>,std::allocator<char> > > >
  0002c	83 c4 10	 add	 esp, 16			; 00000010H

; 218  : 	}

  0002f	8b e5		 mov	 esp, ebp
  00031	5d		 pop	 ebp
  00032	c3		 ret	 0
??$_Destroy_range@V?$basic_string@DU?$char_traits@D@std@@V?$allocator@D@2@@std@@V?$allocator@V?$basic_string@DU?$char_traits@D@std@@V?$allocator@D@2@@std@@@2@@std@@YAXPAV?$basic_string@DU?$char_traits@D@std@@V?$allocator@D@2@@0@0AAV?$allocator@V?$basic_string@DU?$char_traits@D@std@@V?$allocator@D@2@@std@@@0@@Z ENDP ; std::_Destroy_range<std::basic_string<char,std::char_traits<char>,std::allocator<char> >,std::allocator<std::basic_string<char,std::char_traits<char>,std::allocator<char> > > >
_TEXT	ENDS
PUBLIC	??$_Uninitialized_copy@PAV?$basic_string@DU?$char_traits@D@std@@V?$allocator@D@2@@std@@PAV12@V?$allocator@V?$basic_string@DU?$char_traits@D@std@@V?$allocator@D@2@@std@@@2@@std@@YAPAV?$basic_string@DU?$char_traits@D@std@@V?$allocator@D@2@@0@PAV10@00AAV?$allocator@V?$basic_string@DU?$char_traits@D@std@@V?$allocator@D@2@@std@@@0@@Z ; std::_Uninitialized_copy<std::basic_string<char,std::char_traits<char>,std::allocator<char> > *,std::basic_string<char,std::char_traits<char>,std::allocator<char> > *,std::allocator<std::basic_string<char,std::char_traits<char>,std::allocator<char> > > >
; Function compile flags: /Odt
; File d:\program files (x86)\microsoft visual studio .net 2003\vc7\include\vector
;	COMDAT ??$_Ucopy@PAV?$basic_string@DU?$char_traits@D@std@@V?$allocator@D@2@@std@@@?$vector@V?$basic_string@DU?$char_traits@D@std@@V?$allocator@D@2@@std@@V?$allocator@V?$basic_string@DU?$char_traits@D@std@@V?$allocator@D@2@@std@@@2@@std@@IAEPAV?$basic_string@DU?$char_traits@D@std@@V?$allocator@D@2@@1@PAV21@00@Z
_TEXT	SEGMENT
_this$ = -4						; size = 4
__First$ = 8						; size = 4
__Last$ = 12						; size = 4
__Ptr$ = 16						; size = 4
??$_Ucopy@PAV?$basic_string@DU?$char_traits@D@std@@V?$allocator@D@2@@std@@@?$vector@V?$basic_string@DU?$char_traits@D@std@@V?$allocator@D@2@@std@@V?$allocator@V?$basic_string@DU?$char_traits@D@std@@V?$allocator@D@2@@std@@@2@@std@@IAEPAV?$basic_string@DU?$char_traits@D@std@@V?$allocator@D@2@@1@PAV21@00@Z PROC NEAR ; std::vector<std::basic_string<char,std::char_traits<char>,std::allocator<char> >,std::allocator<std::basic_string<char,std::char_traits<char>,std::allocator<char> > > >::_Ucopy<std::basic_string<char,std::char_traits<char>,std::allocator<char> > *>, COMDAT
; _this$ = ecx

; 801  : 		pointer _Ucopy(_Iter _First, _Iter _Last, pointer _Ptr)

  00000	55		 push	 ebp
  00001	8b ec		 mov	 ebp, esp
  00003	51		 push	 ecx
  00004	89 4d fc	 mov	 DWORD PTR _this$[ebp], ecx

; 802  : 		{	// copy initializing [_First, _Last), using allocator
; 803  : 		return (_Uninitialized_copy(_First, _Last,
; 804  : 			_Ptr, this->_Alval));

  00007	8b 45 fc	 mov	 eax, DWORD PTR _this$[ebp]
  0000a	50		 push	 eax
  0000b	8b 4d 10	 mov	 ecx, DWORD PTR __Ptr$[ebp]
  0000e	51		 push	 ecx
  0000f	8b 55 0c	 mov	 edx, DWORD PTR __Last$[ebp]
  00012	52		 push	 edx
  00013	8b 45 08	 mov	 eax, DWORD PTR __First$[ebp]
  00016	50		 push	 eax
  00017	e8 00 00 00 00	 call	 ??$_Uninitialized_copy@PAV?$basic_string@DU?$char_traits@D@std@@V?$allocator@D@2@@std@@PAV12@V?$allocator@V?$basic_string@DU?$char_traits@D@std@@V?$allocator@D@2@@std@@@2@@std@@YAPAV?$basic_string@DU?$char_traits@D@std@@V?$allocator@D@2@@0@PAV10@00AAV?$allocator@V?$basic_string@DU?$char_traits@D@std@@V?$allocator@D@2@@std@@@0@@Z ; std::_Uninitialized_copy<std::basic_string<char,std::char_traits<char>,std::allocator<char> > *,std::basic_string<char,std::char_traits<char>,std::allocator<char> > *,std::allocator<std::basic_string<char,std::char_traits<char>,std::allocator<char> > > >
  0001c	83 c4 10	 add	 esp, 16			; 00000010H

; 805  : 		}

  0001f	8b e5		 mov	 esp, ebp
  00021	5d		 pop	 ebp
  00022	c2 0c 00	 ret	 12			; 0000000cH
??$_Ucopy@PAV?$basic_string@DU?$char_traits@D@std@@V?$allocator@D@2@@std@@@?$vector@V?$basic_string@DU?$char_traits@D@std@@V?$allocator@D@2@@std@@V?$allocator@V?$basic_string@DU?$char_traits@D@std@@V?$allocator@D@2@@std@@@2@@std@@IAEPAV?$basic_string@DU?$char_traits@D@std@@V?$allocator@D@2@@1@PAV21@00@Z ENDP ; std::vector<std::basic_string<char,std::char_traits<char>,std::allocator<char> >,std::allocator<std::basic_string<char,std::char_traits<char>,std::allocator<char> > > >::_Ucopy<std::basic_string<char,std::char_traits<char>,std::allocator<char> > *>
_TEXT	ENDS
EXTRN	__imp_??4?$basic_string@DU?$char_traits@D@std@@V?$allocator@D@2@@std@@QAEAAV01@ABV01@@Z:NEAR
; Function compile flags: /Odt
; File d:\program files (x86)\microsoft visual studio .net 2003\vc7\include\xutility
;	COMDAT ??$fill@PAV?$basic_string@DU?$char_traits@D@std@@V?$allocator@D@2@@std@@V12@@std@@YAXPAV?$basic_string@DU?$char_traits@D@std@@V?$allocator@D@2@@0@0ABV10@@Z
_TEXT	SEGMENT
__First$ = 8						; size = 4
__Last$ = 12						; size = 4
__Val$ = 16						; size = 4
??$fill@PAV?$basic_string@DU?$char_traits@D@std@@V?$allocator@D@2@@std@@V12@@std@@YAXPAV?$basic_string@DU?$char_traits@D@std@@V?$allocator@D@2@@0@0ABV10@@Z PROC NEAR ; std::fill<std::basic_string<char,std::char_traits<char>,std::allocator<char> > *,std::basic_string<char,std::char_traits<char>,std::allocator<char> > >, COMDAT

; 1134 : 	{	// copy _Val through [_First, _Last)

  00000	55		 push	 ebp
  00001	8b ec		 mov	 ebp, esp

; 1135 : 	for (; _First != _Last; ++_First)

  00003	eb 09		 jmp	 SHORT $L200980
$L200981:
  00005	8b 45 08	 mov	 eax, DWORD PTR __First$[ebp]
  00008	83 c0 1c	 add	 eax, 28			; 0000001cH
  0000b	89 45 08	 mov	 DWORD PTR __First$[ebp], eax
$L200980:
  0000e	8b 4d 08	 mov	 ecx, DWORD PTR __First$[ebp]
  00011	3b 4d 0c	 cmp	 ecx, DWORD PTR __Last$[ebp]
  00014	74 0f		 je	 SHORT $L200979

; 1136 : 		*_First = _Val;

  00016	8b 55 10	 mov	 edx, DWORD PTR __Val$[ebp]
  00019	52		 push	 edx
  0001a	8b 4d 08	 mov	 ecx, DWORD PTR __First$[ebp]
  0001d	ff 15 00 00 00
	00		 call	 DWORD PTR __imp_??4?$basic_string@DU?$char_traits@D@std@@V?$allocator@D@2@@std@@QAEAAV01@ABV01@@Z
  00023	eb e0		 jmp	 SHORT $L200981
$L200979:

; 1137 : 	}

  00025	5d		 pop	 ebp
  00026	c3		 ret	 0
??$fill@PAV?$basic_string@DU?$char_traits@D@std@@V?$allocator@D@2@@std@@V12@@std@@YAXPAV?$basic_string@DU?$char_traits@D@std@@V?$allocator@D@2@@0@0ABV10@@Z ENDP ; std::fill<std::basic_string<char,std::char_traits<char>,std::allocator<char> > *,std::basic_string<char,std::char_traits<char>,std::allocator<char> > >
_TEXT	ENDS
PUBLIC	??$_Copy_backward_opt@PAV?$basic_string@DU?$char_traits@D@std@@V?$allocator@D@2@@std@@PAV12@@std@@YAPAV?$basic_string@DU?$char_traits@D@std@@V?$allocator@D@2@@0@PAV10@00U_Nonscalar_ptr_iterator_tag@0@@Z ; std::_Copy_backward_opt<std::basic_string<char,std::char_traits<char>,std::allocator<char> > *,std::basic_string<char,std::char_traits<char>,std::allocator<char> > *>
; Function compile flags: /Odt
;	COMDAT ??$copy_backward@PAV?$basic_string@DU?$char_traits@D@std@@V?$allocator@D@2@@std@@PAV12@@std@@YAPAV?$basic_string@DU?$char_traits@D@std@@V?$allocator@D@2@@0@PAV10@00@Z
_TEXT	SEGMENT
$T201858 = -1						; size = 1
__First$ = 8						; size = 4
__Last$ = 12						; size = 4
__Dest$ = 16						; size = 4
??$copy_backward@PAV?$basic_string@DU?$char_traits@D@std@@V?$allocator@D@2@@std@@PAV12@@std@@YAPAV?$basic_string@DU?$char_traits@D@std@@V?$allocator@D@2@@0@PAV10@00@Z PROC NEAR ; std::copy_backward<std::basic_string<char,std::char_traits<char>,std::allocator<char> > *,std::basic_string<char,std::char_traits<char>,std::allocator<char> > *>, COMDAT

; 1067 : 	{	// copy [_First, _Last) backwards to [..., _Dest)

  00000	55		 push	 ebp
  00001	8b ec		 mov	 ebp, esp
  00003	51		 push	 ecx

; 1068 : 	return (_Copy_backward_opt(_First, _Last, _Dest,
; 1069 : 		_Ptr_cat(_First, _Dest)));

  00004	8d 45 10	 lea	 eax, DWORD PTR __Dest$[ebp]
  00007	50		 push	 eax
  00008	8d 4d 08	 lea	 ecx, DWORD PTR __First$[ebp]
  0000b	51		 push	 ecx
  0000c	e8 00 00 00 00	 call	 ??$_Ptr_cat@PAV?$basic_string@DU?$char_traits@D@std@@V?$allocator@D@2@@std@@PAV12@@std@@YA?AU_Nonscalar_ptr_iterator_tag@0@AAPAV?$basic_string@DU?$char_traits@D@std@@V?$allocator@D@2@@0@0@Z ; std::_Ptr_cat<std::basic_string<char,std::char_traits<char>,std::allocator<char> > *,std::basic_string<char,std::char_traits<char>,std::allocator<char> > *>
  00011	83 c4 08	 add	 esp, 8
  00014	88 45 ff	 mov	 BYTE PTR $T201858[ebp], al
  00017	8a 55 ff	 mov	 dl, BYTE PTR $T201858[ebp]
  0001a	52		 push	 edx
  0001b	8b 45 10	 mov	 eax, DWORD PTR __Dest$[ebp]
  0001e	50		 push	 eax
  0001f	8b 4d 0c	 mov	 ecx, DWORD PTR __Last$[ebp]
  00022	51		 push	 ecx
  00023	8b 55 08	 mov	 edx, DWORD PTR __First$[ebp]
  00026	52		 push	 edx
  00027	e8 00 00 00 00	 call	 ??$_Copy_backward_opt@PAV?$basic_string@DU?$char_traits@D@std@@V?$allocator@D@2@@std@@PAV12@@std@@YAPAV?$basic_string@DU?$char_traits@D@std@@V?$allocator@D@2@@0@PAV10@00U_Nonscalar_ptr_iterator_tag@0@@Z ; std::_Copy_backward_opt<std::basic_string<char,std::char_traits<char>,std::allocator<char> > *,std::basic_string<char,std::char_traits<char>,std::allocator<char> > *>
  0002c	83 c4 10	 add	 esp, 16			; 00000010H

; 1070 : 	}

  0002f	8b e5		 mov	 esp, ebp
  00031	5d		 pop	 ebp
  00032	c3		 ret	 0
??$copy_backward@PAV?$basic_string@DU?$char_traits@D@std@@V?$allocator@D@2@@std@@PAV12@@std@@YAPAV?$basic_string@DU?$char_traits@D@std@@V?$allocator@D@2@@0@PAV10@00@Z ENDP ; std::copy_backward<std::basic_string<char,std::char_traits<char>,std::allocator<char> > *,std::basic_string<char,std::char_traits<char>,std::allocator<char> > *>
; Function compile flags: /Odt
_TEXT	ENDS
;	COMDAT ??$_Ptr_cat@PAV?$basic_string@DU?$char_traits@D@std@@V?$allocator@D@2@@std@@PAV12@@std@@YA?AU_Nonscalar_ptr_iterator_tag@0@AAPAV?$basic_string@DU?$char_traits@D@std@@V?$allocator@D@2@@0@0@Z
_TEXT	SEGMENT
__Cat$ = -1						; size = 1
___formal$ = 8						; size = 4
___formal$ = 12						; size = 4
??$_Ptr_cat@PAV?$basic_string@DU?$char_traits@D@std@@V?$allocator@D@2@@std@@PAV12@@std@@YA?AU_Nonscalar_ptr_iterator_tag@0@AAPAV?$basic_string@DU?$char_traits@D@std@@V?$allocator@D@2@@0@0@Z PROC NEAR ; std::_Ptr_cat<std::basic_string<char,std::char_traits<char>,std::allocator<char> > *,std::basic_string<char,std::char_traits<char>,std::allocator<char> > *>, COMDAT

; 211  : 	{	// return pointer category from arbitrary arguments

  00000	55		 push	 ebp
  00001	8b ec		 mov	 ebp, esp
  00003	51		 push	 ecx

; 212  : 	_Nonscalar_ptr_iterator_tag _Cat;
; 213  : 	return (_Cat);

  00004	8a 45 ff	 mov	 al, BYTE PTR __Cat$[ebp]

; 214  : 	}

  00007	8b e5		 mov	 esp, ebp
  00009	5d		 pop	 ebp
  0000a	c3		 ret	 0
??$_Ptr_cat@PAV?$basic_string@DU?$char_traits@D@std@@V?$allocator@D@2@@std@@PAV12@@std@@YA?AU_Nonscalar_ptr_iterator_tag@0@AAPAV?$basic_string@DU?$char_traits@D@std@@V?$allocator@D@2@@0@0@Z ENDP ; std::_Ptr_cat<std::basic_string<char,std::char_traits<char>,std::allocator<char> > *,std::basic_string<char,std::char_traits<char>,std::allocator<char> > *>
_TEXT	ENDS
PUBLIC	?construct@?$allocator@V?$basic_string@DU?$char_traits@D@std@@V?$allocator@D@2@@std@@@std@@QAEXPAV?$basic_string@DU?$char_traits@D@std@@V?$allocator@D@2@@2@ABV32@@Z ; std::allocator<std::basic_string<char,std::char_traits<char>,std::allocator<char> > >::construct
PUBLIC	?destroy@?$allocator@V?$basic_string@DU?$char_traits@D@std@@V?$allocator@D@2@@std@@@std@@QAEXPAV?$basic_string@DU?$char_traits@D@std@@V?$allocator@D@2@@2@@Z ; std::allocator<std::basic_string<char,std::char_traits<char>,std::allocator<char> > >::destroy
;	COMDAT xdata$x
; File d:\program files (x86)\microsoft visual studio .net 2003\vc7\include\memory
xdata$x	SEGMENT
$T201868 DD	0ffffffffH
	DD	00H
	DD	0ffffffffH
	DD	00H
$T201870 DD	00H
	DD	00H
	DD	00H
	DD	FLAT:$L201864
$T201869 DD	00H
	DD	00H
	DD	01H
	DD	01H
	DD	FLAT:$T201870
$T201866 DD	019930520H
	DD	02H
	DD	FLAT:$T201868
	DD	01H
	DD	FLAT:$T201869
	DD	2 DUP(00H)
; Function compile flags: /Odt
xdata$x	ENDS
;	COMDAT ??$_Uninit_fill_n@PAV?$basic_string@DU?$char_traits@D@std@@V?$allocator@D@2@@std@@IV12@V?$allocator@V?$basic_string@DU?$char_traits@D@std@@V?$allocator@D@2@@std@@@2@@std@@YAXPAV?$basic_string@DU?$char_traits@D@std@@V?$allocator@D@2@@0@IABV10@AAV?$allocator@V?$basic_string@DU?$char_traits@D@std@@V?$allocator@D@2@@std@@@0@U_Nonscalar_ptr_iterator_tag@0@@Z
_TEXT	SEGMENT
__Next$ = -20						; size = 4
__$EHRec$ = -16						; size = 16
__First$ = 8						; size = 4
__Count$ = 12						; size = 4
__Val$ = 16						; size = 4
__Al$ = 20						; size = 4
___formal$ = 24						; size = 1
??$_Uninit_fill_n@PAV?$basic_string@DU?$char_traits@D@std@@V?$allocator@D@2@@std@@IV12@V?$allocator@V?$basic_string@DU?$char_traits@D@std@@V?$allocator@D@2@@std@@@2@@std@@YAXPAV?$basic_string@DU?$char_traits@D@std@@V?$allocator@D@2@@0@IABV10@AAV?$allocator@V?$basic_string@DU?$char_traits@D@std@@V?$allocator@D@2@@std@@@0@U_Nonscalar_ptr_iterator_tag@0@@Z PROC NEAR ; std::_Uninit_fill_n<std::basic_string<char,std::char_traits<char>,std::allocator<char> > *,unsigned int,std::basic_string<char,std::char_traits<char>,std::allocator<char> >,std::allocator<std::basic_string<char,std::char_traits<char>,std::allocator<char> > > >, COMDAT

; 207  : 	{	// copy _Count *_Val to raw _First, using _Al, arbitrary type

  00000	55		 push	 ebp
  00001	8b ec		 mov	 ebp, esp
  00003	6a ff		 push	 -1
  00005	68 00 00 00 00	 push	 __ehhandler$??$_Uninit_fill_n@PAV?$basic_string@DU?$char_traits@D@std@@V?$allocator@D@2@@std@@IV12@V?$allocator@V?$basic_string@DU?$char_traits@D@std@@V?$allocator@D@2@@std@@@2@@std@@YAXPAV?$basic_string@DU?$char_traits@D@std@@V?$allocator@D@2@@0@IABV10@AAV?$allocator@V?$basic_string@DU?$char_traits@D@std@@V?$allocator@D@2@@std@@@0@U_Nonscalar_ptr_iterator_tag@0@@Z
  0000a	64 a1 00 00 00
	00		 mov	 eax, DWORD PTR fs:__except_list
  00010	50		 push	 eax
  00011	64 89 25 00 00
	00 00		 mov	 DWORD PTR fs:__except_list, esp
  00018	51		 push	 ecx
  00019	51		 push	 ecx
  0001a	53		 push	 ebx
  0001b	56		 push	 esi
  0001c	57		 push	 edi
  0001d	89 65 f0	 mov	 DWORD PTR __$EHRec$[ebp], esp

; 208  : 	_FwdIt _Next = _First;

  00020	8b 45 08	 mov	 eax, DWORD PTR __First$[ebp]
  00023	89 45 ec	 mov	 DWORD PTR __Next$[ebp], eax

; 209  : 
; 210  : 	_TRY_BEGIN

  00026	c7 45 fc 00 00
	00 00		 mov	 DWORD PTR __$EHRec$[ebp+12], 0

; 211  : 	for (; 0 < _Count; --_Count, ++_First)

  0002d	eb 12		 jmp	 SHORT $L201120
$L201121:
  0002f	8b 4d 0c	 mov	 ecx, DWORD PTR __Count$[ebp]
  00032	83 e9 01	 sub	 ecx, 1
  00035	89 4d 0c	 mov	 DWORD PTR __Count$[ebp], ecx
  00038	8b 55 08	 mov	 edx, DWORD PTR __First$[ebp]
  0003b	83 c2 1c	 add	 edx, 28			; 0000001cH
  0003e	89 55 08	 mov	 DWORD PTR __First$[ebp], edx
$L201120:
  00041	83 7d 0c 00	 cmp	 DWORD PTR __Count$[ebp], 0
  00045	76 12		 jbe	 SHORT $L201122

; 212  : 		_Al.construct(_First, _Val);

  00047	8b 45 10	 mov	 eax, DWORD PTR __Val$[ebp]
  0004a	50		 push	 eax
  0004b	8b 4d 08	 mov	 ecx, DWORD PTR __First$[ebp]
  0004e	51		 push	 ecx
  0004f	8b 4d 14	 mov	 ecx, DWORD PTR __Al$[ebp]
  00052	e8 00 00 00 00	 call	 ?construct@?$allocator@V?$basic_string@DU?$char_traits@D@std@@V?$allocator@D@2@@std@@@std@@QAEXPAV?$basic_string@DU?$char_traits@D@std@@V?$allocator@D@2@@2@ABV32@@Z ; std::allocator<std::basic_string<char,std::char_traits<char>,std::allocator<char> > >::construct
  00057	eb d6		 jmp	 SHORT $L201121
$L201122:
  00059	eb 2a		 jmp	 SHORT $L201863
$L201864:

; 213  : 	_CATCH_ALL
; 214  : 	for (; _Next != _First; ++_Next)

  0005b	eb 09		 jmp	 SHORT $L201123
$L201124:
  0005d	8b 55 ec	 mov	 edx, DWORD PTR __Next$[ebp]
  00060	83 c2 1c	 add	 edx, 28			; 0000001cH
  00063	89 55 ec	 mov	 DWORD PTR __Next$[ebp], edx
$L201123:
  00066	8b 45 ec	 mov	 eax, DWORD PTR __Next$[ebp]
  00069	3b 45 08	 cmp	 eax, DWORD PTR __First$[ebp]
  0006c	74 0e		 je	 SHORT $L201125

; 215  : 		_Al.destroy(_Next);

  0006e	8b 4d ec	 mov	 ecx, DWORD PTR __Next$[ebp]
  00071	51		 push	 ecx
  00072	8b 4d 14	 mov	 ecx, DWORD PTR __Al$[ebp]
  00075	e8 00 00 00 00	 call	 ?destroy@?$allocator@V?$basic_string@DU?$char_traits@D@std@@V?$allocator@D@2@@std@@@std@@QAEXPAV?$basic_string@DU?$char_traits@D@std@@V?$allocator@D@2@@2@@Z ; std::allocator<std::basic_string<char,std::char_traits<char>,std::allocator<char> > >::destroy
  0007a	eb e1		 jmp	 SHORT $L201124
$L201125:

; 216  : 	_RERAISE;

  0007c	6a 00		 push	 0
  0007e	6a 00		 push	 0
  00080	e8 00 00 00 00	 call	 __CxxThrowException@8
$L201863:

; 217  : 	_CATCH_END

  00085	c7 45 fc ff ff
	ff ff		 mov	 DWORD PTR __$EHRec$[ebp+12], -1
$L201862:

; 218  : 	}

  0008c	8b 4d f4	 mov	 ecx, DWORD PTR __$EHRec$[ebp+4]
  0008f	64 89 0d 00 00
	00 00		 mov	 DWORD PTR fs:__except_list, ecx
  00096	5f		 pop	 edi
  00097	5e		 pop	 esi
  00098	5b		 pop	 ebx
  00099	8b e5		 mov	 esp, ebp
  0009b	5d		 pop	 ebp
  0009c	c3		 ret	 0
_TEXT	ENDS
;	COMDAT text$x
text$x	SEGMENT
__ehhandler$??$_Uninit_fill_n@PAV?$basic_string@DU?$char_traits@D@std@@V?$allocator@D@2@@std@@IV12@V?$allocator@V?$basic_string@DU?$char_traits@D@std@@V?$allocator@D@2@@std@@@2@@std@@YAXPAV?$basic_string@DU?$char_traits@D@std@@V?$allocator@D@2@@0@IABV10@AAV?$allocator@V?$basic_string@DU?$char_traits@D@std@@V?$allocator@D@2@@std@@@0@U_Nonscalar_ptr_iterator_tag@0@@Z:
  00000	b8 00 00 00 00	 mov	 eax, OFFSET FLAT:$T201866
  00005	e9 00 00 00 00	 jmp	 ___CxxFrameHandler
text$x	ENDS
??$_Uninit_fill_n@PAV?$basic_string@DU?$char_traits@D@std@@V?$allocator@D@2@@std@@IV12@V?$allocator@V?$basic_string@DU?$char_traits@D@std@@V?$allocator@D@2@@std@@@2@@std@@YAXPAV?$basic_string@DU?$char_traits@D@std@@V?$allocator@D@2@@0@IABV10@AAV?$allocator@V?$basic_string@DU?$char_traits@D@std@@V?$allocator@D@2@@std@@@0@U_Nonscalar_ptr_iterator_tag@0@@Z ENDP ; std::_Uninit_fill_n<std::basic_string<char,std::char_traits<char>,std::allocator<char> > *,unsigned int,std::basic_string<char,std::char_traits<char>,std::allocator<char> >,std::allocator<std::basic_string<char,std::char_traits<char>,std::allocator<char> > > >
; Function compile flags: /Odt
; File d:\program files (x86)\microsoft visual studio .net 2003\vc7\include\xmemory
;	COMDAT ??$_Destroy_range@V?$basic_string@DU?$char_traits@D@std@@V?$allocator@D@2@@std@@V?$allocator@V?$basic_string@DU?$char_traits@D@std@@V?$allocator@D@2@@std@@@2@@std@@YAXPAV?$basic_string@DU?$char_traits@D@std@@V?$allocator@D@2@@0@0AAV?$allocator@V?$basic_string@DU?$char_traits@D@std@@V?$allocator@D@2@@std@@@0@U_Nonscalar_ptr_iterator_tag@0@@Z
_TEXT	SEGMENT
__First$ = 8						; size = 4
__Last$ = 12						; size = 4
__Al$ = 16						; size = 4
___formal$ = 20						; size = 1
??$_Destroy_range@V?$basic_string@DU?$char_traits@D@std@@V?$allocator@D@2@@std@@V?$allocator@V?$basic_string@DU?$char_traits@D@std@@V?$allocator@D@2@@std@@@2@@std@@YAXPAV?$basic_string@DU?$char_traits@D@std@@V?$allocator@D@2@@0@0AAV?$allocator@V?$basic_string@DU?$char_traits@D@std@@V?$allocator@D@2@@std@@@0@U_Nonscalar_ptr_iterator_tag@0@@Z PROC NEAR ; std::_Destroy_range<std::basic_string<char,std::char_traits<char>,std::allocator<char> >,std::allocator<std::basic_string<char,std::char_traits<char>,std::allocator<char> > > >, COMDAT

; 224  : 	{	// destroy [_First, _Last), arbitrary type

  00000	55		 push	 ebp
  00001	8b ec		 mov	 ebp, esp

; 225  : 	for (; _First != _Last; ++_First)

  00003	eb 09		 jmp	 SHORT $L201127
$L201128:
  00005	8b 45 08	 mov	 eax, DWORD PTR __First$[ebp]
  00008	83 c0 1c	 add	 eax, 28			; 0000001cH
  0000b	89 45 08	 mov	 DWORD PTR __First$[ebp], eax
$L201127:
  0000e	8b 4d 08	 mov	 ecx, DWORD PTR __First$[ebp]
  00011	3b 4d 0c	 cmp	 ecx, DWORD PTR __Last$[ebp]
  00014	74 0e		 je	 SHORT $L201126

; 226  : 		_Al.destroy(_First);

  00016	8b 55 08	 mov	 edx, DWORD PTR __First$[ebp]
  00019	52		 push	 edx
  0001a	8b 4d 10	 mov	 ecx, DWORD PTR __Al$[ebp]
  0001d	e8 00 00 00 00	 call	 ?destroy@?$allocator@V?$basic_string@DU?$char_traits@D@std@@V?$allocator@D@2@@std@@@std@@QAEXPAV?$basic_string@DU?$char_traits@D@std@@V?$allocator@D@2@@2@@Z ; std::allocator<std::basic_string<char,std::char_traits<char>,std::allocator<char> > >::destroy
  00022	eb e1		 jmp	 SHORT $L201128
$L201126:

; 227  : 	}

  00024	5d		 pop	 ebp
  00025	c3		 ret	 0
??$_Destroy_range@V?$basic_string@DU?$char_traits@D@std@@V?$allocator@D@2@@std@@V?$allocator@V?$basic_string@DU?$char_traits@D@std@@V?$allocator@D@2@@std@@@2@@std@@YAXPAV?$basic_string@DU?$char_traits@D@std@@V?$allocator@D@2@@0@0AAV?$allocator@V?$basic_string@DU?$char_traits@D@std@@V?$allocator@D@2@@std@@@0@U_Nonscalar_ptr_iterator_tag@0@@Z ENDP ; std::_Destroy_range<std::basic_string<char,std::char_traits<char>,std::allocator<char> >,std::allocator<std::basic_string<char,std::char_traits<char>,std::allocator<char> > > >
_TEXT	ENDS
PUBLIC	??$_Uninit_copy@PAV?$basic_string@DU?$char_traits@D@std@@V?$allocator@D@2@@std@@PAV12@V?$allocator@V?$basic_string@DU?$char_traits@D@std@@V?$allocator@D@2@@std@@@2@@std@@YAPAV?$basic_string@DU?$char_traits@D@std@@V?$allocator@D@2@@0@PAV10@00AAV?$allocator@V?$basic_string@DU?$char_traits@D@std@@V?$allocator@D@2@@std@@@0@U_Nonscalar_ptr_iterator_tag@0@@Z ; std::_Uninit_copy<std::basic_string<char,std::char_traits<char>,std::allocator<char> > *,std::basic_string<char,std::char_traits<char>,std::allocator<char> > *,std::allocator<std::basic_string<char,std::char_traits<char>,std::allocator<char> > > >
; Function compile flags: /Odt
; File d:\program files (x86)\microsoft visual studio .net 2003\vc7\include\memory
;	COMDAT ??$_Uninitialized_copy@PAV?$basic_string@DU?$char_traits@D@std@@V?$allocator@D@2@@std@@PAV12@V?$allocator@V?$basic_string@DU?$char_traits@D@std@@V?$allocator@D@2@@std@@@2@@std@@YAPAV?$basic_string@DU?$char_traits@D@std@@V?$allocator@D@2@@0@PAV10@00AAV?$allocator@V?$basic_string@DU?$char_traits@D@std@@V?$allocator@D@2@@std@@@0@@Z
_TEXT	SEGMENT
$T201877 = -1						; size = 1
__First$ = 8						; size = 4
__Last$ = 12						; size = 4
__Dest$ = 16						; size = 4
__Al$ = 20						; size = 4
??$_Uninitialized_copy@PAV?$basic_string@DU?$char_traits@D@std@@V?$allocator@D@2@@std@@PAV12@V?$allocator@V?$basic_string@DU?$char_traits@D@std@@V?$allocator@D@2@@std@@@2@@std@@YAPAV?$basic_string@DU?$char_traits@D@std@@V?$allocator@D@2@@0@PAV10@00AAV?$allocator@V?$basic_string@DU?$char_traits@D@std@@V?$allocator@D@2@@std@@@0@@Z PROC NEAR ; std::_Uninitialized_copy<std::basic_string<char,std::char_traits<char>,std::allocator<char> > *,std::basic_string<char,std::char_traits<char>,std::allocator<char> > *,std::allocator<std::basic_string<char,std::char_traits<char>,std::allocator<char> > > >, COMDAT

; 126  : 	{	// copy [_First, _Last) to raw _Dest, using _Al

  00000	55		 push	 ebp
  00001	8b ec		 mov	 ebp, esp
  00003	51		 push	 ecx

; 127  : 	return (_Uninit_copy(_First, _Last, _Dest, _Al,
; 128  : 		_Ptr_cat(_First, _Dest)));

  00004	8d 45 10	 lea	 eax, DWORD PTR __Dest$[ebp]
  00007	50		 push	 eax
  00008	8d 4d 08	 lea	 ecx, DWORD PTR __First$[ebp]
  0000b	51		 push	 ecx
  0000c	e8 00 00 00 00	 call	 ??$_Ptr_cat@PAV?$basic_string@DU?$char_traits@D@std@@V?$allocator@D@2@@std@@PAV12@@std@@YA?AU_Nonscalar_ptr_iterator_tag@0@AAPAV?$basic_string@DU?$char_traits@D@std@@V?$allocator@D@2@@0@0@Z ; std::_Ptr_cat<std::basic_string<char,std::char_traits<char>,std::allocator<char> > *,std::basic_string<char,std::char_traits<char>,std::allocator<char> > *>
  00011	83 c4 08	 add	 esp, 8
  00014	88 45 ff	 mov	 BYTE PTR $T201877[ebp], al
  00017	8a 55 ff	 mov	 dl, BYTE PTR $T201877[ebp]
  0001a	52		 push	 edx
  0001b	8b 45 14	 mov	 eax, DWORD PTR __Al$[ebp]
  0001e	50		 push	 eax
  0001f	8b 4d 10	 mov	 ecx, DWORD PTR __Dest$[ebp]
  00022	51		 push	 ecx
  00023	8b 55 0c	 mov	 edx, DWORD PTR __Last$[ebp]
  00026	52		 push	 edx
  00027	8b 45 08	 mov	 eax, DWORD PTR __First$[ebp]
  0002a	50		 push	 eax
  0002b	e8 00 00 00 00	 call	 ??$_Uninit_copy@PAV?$basic_string@DU?$char_traits@D@std@@V?$allocator@D@2@@std@@PAV12@V?$allocator@V?$basic_string@DU?$char_traits@D@std@@V?$allocator@D@2@@std@@@2@@std@@YAPAV?$basic_string@DU?$char_traits@D@std@@V?$allocator@D@2@@0@PAV10@00AAV?$allocator@V?$basic_string@DU?$char_traits@D@std@@V?$allocator@D@2@@std@@@0@U_Nonscalar_ptr_iterator_tag@0@@Z ; std::_Uninit_copy<std::basic_string<char,std::char_traits<char>,std::allocator<char> > *,std::basic_string<char,std::char_traits<char>,std::allocator<char> > *,std::allocator<std::basic_string<char,std::char_traits<char>,std::allocator<char> > > >
  00030	83 c4 14	 add	 esp, 20			; 00000014H

; 129  : 	}

  00033	8b e5		 mov	 esp, ebp
  00035	5d		 pop	 ebp
  00036	c3		 ret	 0
??$_Uninitialized_copy@PAV?$basic_string@DU?$char_traits@D@std@@V?$allocator@D@2@@std@@PAV12@V?$allocator@V?$basic_string@DU?$char_traits@D@std@@V?$allocator@D@2@@std@@@2@@std@@YAPAV?$basic_string@DU?$char_traits@D@std@@V?$allocator@D@2@@0@PAV10@00AAV?$allocator@V?$basic_string@DU?$char_traits@D@std@@V?$allocator@D@2@@std@@@0@@Z ENDP ; std::_Uninitialized_copy<std::basic_string<char,std::char_traits<char>,std::allocator<char> > *,std::basic_string<char,std::char_traits<char>,std::allocator<char> > *,std::allocator<std::basic_string<char,std::char_traits<char>,std::allocator<char> > > >
; Function compile flags: /Odt
; File d:\program files (x86)\microsoft visual studio .net 2003\vc7\include\xutility
_TEXT	ENDS
;	COMDAT ??$_Copy_backward_opt@PAV?$basic_string@DU?$char_traits@D@std@@V?$allocator@D@2@@std@@PAV12@@std@@YAPAV?$basic_string@DU?$char_traits@D@std@@V?$allocator@D@2@@0@PAV10@00U_Nonscalar_ptr_iterator_tag@0@@Z
_TEXT	SEGMENT
__First$ = 8						; size = 4
__Last$ = 12						; size = 4
__Dest$ = 16						; size = 4
___formal$ = 20						; size = 1
??$_Copy_backward_opt@PAV?$basic_string@DU?$char_traits@D@std@@V?$allocator@D@2@@std@@PAV12@@std@@YAPAV?$basic_string@DU?$char_traits@D@std@@V?$allocator@D@2@@0@PAV10@00U_Nonscalar_ptr_iterator_tag@0@@Z PROC NEAR ; std::_Copy_backward_opt<std::basic_string<char,std::char_traits<char>,std::allocator<char> > *,std::basic_string<char,std::char_traits<char>,std::allocator<char> > *>, COMDAT

; 1048 : 	{	// copy [_First, _Last) backwards to [..., _Dest), arbitrary iterators

  00000	55		 push	 ebp
  00001	8b ec		 mov	 ebp, esp
$L201172:

; 1049 : 	while (_First != _Last)

  00003	8b 45 08	 mov	 eax, DWORD PTR __First$[ebp]
  00006	3b 45 0c	 cmp	 eax, DWORD PTR __Last$[ebp]
  00009	74 21		 je	 SHORT $L201173

; 1050 : 		*--_Dest = *--_Last;

  0000b	8b 4d 0c	 mov	 ecx, DWORD PTR __Last$[ebp]
  0000e	83 e9 1c	 sub	 ecx, 28			; 0000001cH
  00011	89 4d 0c	 mov	 DWORD PTR __Last$[ebp], ecx
  00014	8b 55 10	 mov	 edx, DWORD PTR __Dest$[ebp]
  00017	83 ea 1c	 sub	 edx, 28			; 0000001cH
  0001a	89 55 10	 mov	 DWORD PTR __Dest$[ebp], edx
  0001d	8b 45 0c	 mov	 eax, DWORD PTR __Last$[ebp]
  00020	50		 push	 eax
  00021	8b 4d 10	 mov	 ecx, DWORD PTR __Dest$[ebp]
  00024	ff 15 00 00 00
	00		 call	 DWORD PTR __imp_??4?$basic_string@DU?$char_traits@D@std@@V?$allocator@D@2@@std@@QAEAAV01@ABV01@@Z
  0002a	eb d7		 jmp	 SHORT $L201172
$L201173:

; 1051 : 	return (_Dest);

  0002c	8b 45 10	 mov	 eax, DWORD PTR __Dest$[ebp]

; 1052 : 	}

  0002f	5d		 pop	 ebp
  00030	c3		 ret	 0
??$_Copy_backward_opt@PAV?$basic_string@DU?$char_traits@D@std@@V?$allocator@D@2@@std@@PAV12@@std@@YAPAV?$basic_string@DU?$char_traits@D@std@@V?$allocator@D@2@@0@PAV10@00U_Nonscalar_ptr_iterator_tag@0@@Z ENDP ; std::_Copy_backward_opt<std::basic_string<char,std::char_traits<char>,std::allocator<char> > *,std::basic_string<char,std::char_traits<char>,std::allocator<char> > *>
_TEXT	ENDS
PUBLIC	??$_Construct@V?$basic_string@DU?$char_traits@D@std@@V?$allocator@D@2@@std@@V12@@std@@YAXPAV?$basic_string@DU?$char_traits@D@std@@V?$allocator@D@2@@0@ABV10@@Z ; std::_Construct<std::basic_string<char,std::char_traits<char>,std::allocator<char> >,std::basic_string<char,std::char_traits<char>,std::allocator<char> > >
; Function compile flags: /Odt
; File d:\program files (x86)\microsoft visual studio .net 2003\vc7\include\xmemory
;	COMDAT ?construct@?$allocator@V?$basic_string@DU?$char_traits@D@std@@V?$allocator@D@2@@std@@@std@@QAEXPAV?$basic_string@DU?$char_traits@D@std@@V?$allocator@D@2@@2@ABV32@@Z
_TEXT	SEGMENT
_this$ = -4						; size = 4
__Ptr$ = 8						; size = 4
__Val$ = 12						; size = 4
?construct@?$allocator@V?$basic_string@DU?$char_traits@D@std@@V?$allocator@D@2@@std@@@std@@QAEXPAV?$basic_string@DU?$char_traits@D@std@@V?$allocator@D@2@@2@ABV32@@Z PROC NEAR ; std::allocator<std::basic_string<char,std::char_traits<char>,std::allocator<char> > >::construct, COMDAT
; _this$ = ecx

; 146  : 		{	// construct object at _Ptr with value _Val

  00000	55		 push	 ebp
  00001	8b ec		 mov	 ebp, esp
  00003	51		 push	 ecx
  00004	89 4d fc	 mov	 DWORD PTR _this$[ebp], ecx

; 147  : 		_Construct(_Ptr, _Val);

  00007	8b 45 0c	 mov	 eax, DWORD PTR __Val$[ebp]
  0000a	50		 push	 eax
  0000b	8b 4d 08	 mov	 ecx, DWORD PTR __Ptr$[ebp]
  0000e	51		 push	 ecx
  0000f	e8 00 00 00 00	 call	 ??$_Construct@V?$basic_string@DU?$char_traits@D@std@@V?$allocator@D@2@@std@@V12@@std@@YAXPAV?$basic_string@DU?$char_traits@D@std@@V?$allocator@D@2@@0@ABV10@@Z ; std::_Construct<std::basic_string<char,std::char_traits<char>,std::allocator<char> >,std::basic_string<char,std::char_traits<char>,std::allocator<char> > >
  00014	83 c4 08	 add	 esp, 8

; 148  : 		}

  00017	8b e5		 mov	 esp, ebp
  00019	5d		 pop	 ebp
  0001a	c2 08 00	 ret	 8
?construct@?$allocator@V?$basic_string@DU?$char_traits@D@std@@V?$allocator@D@2@@std@@@std@@QAEXPAV?$basic_string@DU?$char_traits@D@std@@V?$allocator@D@2@@2@ABV32@@Z ENDP ; std::allocator<std::basic_string<char,std::char_traits<char>,std::allocator<char> > >::construct
_TEXT	ENDS
PUBLIC	??$_Destroy@V?$basic_string@DU?$char_traits@D@std@@V?$allocator@D@2@@std@@@std@@YAXPAV?$basic_string@DU?$char_traits@D@std@@V?$allocator@D@2@@0@@Z ; std::_Destroy<std::basic_string<char,std::char_traits<char>,std::allocator<char> > >
; Function compile flags: /Odt
;	COMDAT ?destroy@?$allocator@V?$basic_string@DU?$char_traits@D@std@@V?$allocator@D@2@@std@@@std@@QAEXPAV?$basic_string@DU?$char_traits@D@std@@V?$allocator@D@2@@2@@Z
_TEXT	SEGMENT
_this$ = -4						; size = 4
__Ptr$ = 8						; size = 4
?destroy@?$allocator@V?$basic_string@DU?$char_traits@D@std@@V?$allocator@D@2@@std@@@std@@QAEXPAV?$basic_string@DU?$char_traits@D@std@@V?$allocator@D@2@@2@@Z PROC NEAR ; std::allocator<std::basic_string<char,std::char_traits<char>,std::allocator<char> > >::destroy, COMDAT
; _this$ = ecx

; 151  : 		{	// destroy object at _Ptr

  00000	55		 push	 ebp
  00001	8b ec		 mov	 ebp, esp
  00003	51		 push	 ecx
  00004	89 4d fc	 mov	 DWORD PTR _this$[ebp], ecx

; 152  : 		_Destroy(_Ptr);

  00007	8b 45 08	 mov	 eax, DWORD PTR __Ptr$[ebp]
  0000a	50		 push	 eax
  0000b	e8 00 00 00 00	 call	 ??$_Destroy@V?$basic_string@DU?$char_traits@D@std@@V?$allocator@D@2@@std@@@std@@YAXPAV?$basic_string@DU?$char_traits@D@std@@V?$allocator@D@2@@0@@Z ; std::_Destroy<std::basic_string<char,std::char_traits<char>,std::allocator<char> > >
  00010	83 c4 04	 add	 esp, 4

; 153  : 		}

  00013	8b e5		 mov	 esp, ebp
  00015	5d		 pop	 ebp
  00016	c2 04 00	 ret	 4
?destroy@?$allocator@V?$basic_string@DU?$char_traits@D@std@@V?$allocator@D@2@@std@@@std@@QAEXPAV?$basic_string@DU?$char_traits@D@std@@V?$allocator@D@2@@2@@Z ENDP ; std::allocator<std::basic_string<char,std::char_traits<char>,std::allocator<char> > >::destroy
_TEXT	ENDS
;	COMDAT xdata$x
; File d:\program files (x86)\microsoft visual studio .net 2003\vc7\include\memory
xdata$x	SEGMENT
$T201891 DD	0ffffffffH
	DD	00H
	DD	0ffffffffH
	DD	00H
$T201893 DD	00H
	DD	00H
	DD	00H
	DD	FLAT:$L201887
$T201892 DD	00H
	DD	00H
	DD	01H
	DD	01H
	DD	FLAT:$T201893
$T201889 DD	019930520H
	DD	02H
	DD	FLAT:$T201891
	DD	01H
	DD	FLAT:$T201892
	DD	2 DUP(00H)
; Function compile flags: /Odt
xdata$x	ENDS
;	COMDAT ??$_Uninit_copy@PAV?$basic_string@DU?$char_traits@D@std@@V?$allocator@D@2@@std@@PAV12@V?$allocator@V?$basic_string@DU?$char_traits@D@std@@V?$allocator@D@2@@std@@@2@@std@@YAPAV?$basic_string@DU?$char_traits@D@std@@V?$allocator@D@2@@0@PAV10@00AAV?$allocator@V?$basic_string@DU?$char_traits@D@std@@V?$allocator@D@2@@std@@@0@U_Nonscalar_ptr_iterator_tag@0@@Z
_TEXT	SEGMENT
__Next$ = -20						; size = 4
__$EHRec$ = -16						; size = 16
__First$ = 8						; size = 4
__Last$ = 12						; size = 4
__Dest$ = 16						; size = 4
__Al$ = 20						; size = 4
___formal$ = 24						; size = 1
??$_Uninit_copy@PAV?$basic_string@DU?$char_traits@D@std@@V?$allocator@D@2@@std@@PAV12@V?$allocator@V?$basic_string@DU?$char_traits@D@std@@V?$allocator@D@2@@std@@@2@@std@@YAPAV?$basic_string@DU?$char_traits@D@std@@V?$allocator@D@2@@0@PAV10@00AAV?$allocator@V?$basic_string@DU?$char_traits@D@std@@V?$allocator@D@2@@std@@@0@U_Nonscalar_ptr_iterator_tag@0@@Z PROC NEAR ; std::_Uninit_copy<std::basic_string<char,std::char_traits<char>,std::allocator<char> > *,std::basic_string<char,std::char_traits<char>,std::allocator<char> > *,std::allocator<std::basic_string<char,std::char_traits<char>,std::allocator<char> > > >, COMDAT

; 77   : 	{	// copy [_First, _Last) to raw _Dest, using _Al, arbitrary type

  00000	55		 push	 ebp
  00001	8b ec		 mov	 ebp, esp
  00003	6a ff		 push	 -1
  00005	68 00 00 00 00	 push	 __ehhandler$??$_Uninit_copy@PAV?$basic_string@DU?$char_traits@D@std@@V?$allocator@D@2@@std@@PAV12@V?$allocator@V?$basic_string@DU?$char_traits@D@std@@V?$allocator@D@2@@std@@@2@@std@@YAPAV?$basic_string@DU?$char_traits@D@std@@V?$allocator@D@2@@0@PAV10@00AAV?$allocator@V?$basic_string@DU?$char_traits@D@std@@V?$allocator@D@2@@std@@@0@U_Nonscalar_ptr_iterator_tag@0@@Z
  0000a	64 a1 00 00 00
	00		 mov	 eax, DWORD PTR fs:__except_list
  00010	50		 push	 eax
  00011	64 89 25 00 00
	00 00		 mov	 DWORD PTR fs:__except_list, esp
  00018	51		 push	 ecx
  00019	51		 push	 ecx
  0001a	53		 push	 ebx
  0001b	56		 push	 esi
  0001c	57		 push	 edi
  0001d	89 65 f0	 mov	 DWORD PTR __$EHRec$[ebp], esp

; 78   : 	_FwdIt _Next = _Dest;

  00020	8b 45 10	 mov	 eax, DWORD PTR __Dest$[ebp]
  00023	89 45 ec	 mov	 DWORD PTR __Next$[ebp], eax

; 79   : 
; 80   : 	_TRY_BEGIN

  00026	c7 45 fc 00 00
	00 00		 mov	 DWORD PTR __$EHRec$[ebp+12], 0

; 81   : 	for (; _First != _Last; ++_Dest, ++_First)

  0002d	eb 12		 jmp	 SHORT $L201191
$L201192:
  0002f	8b 4d 10	 mov	 ecx, DWORD PTR __Dest$[ebp]
  00032	83 c1 1c	 add	 ecx, 28			; 0000001cH
  00035	89 4d 10	 mov	 DWORD PTR __Dest$[ebp], ecx
  00038	8b 55 08	 mov	 edx, DWORD PTR __First$[ebp]
  0003b	83 c2 1c	 add	 edx, 28			; 0000001cH
  0003e	89 55 08	 mov	 DWORD PTR __First$[ebp], edx
$L201191:
  00041	8b 45 08	 mov	 eax, DWORD PTR __First$[ebp]
  00044	3b 45 0c	 cmp	 eax, DWORD PTR __Last$[ebp]
  00047	74 12		 je	 SHORT $L201193

; 82   : 		_Al.construct(_Dest, *_First);

  00049	8b 4d 08	 mov	 ecx, DWORD PTR __First$[ebp]
  0004c	51		 push	 ecx
  0004d	8b 55 10	 mov	 edx, DWORD PTR __Dest$[ebp]
  00050	52		 push	 edx
  00051	8b 4d 14	 mov	 ecx, DWORD PTR __Al$[ebp]
  00054	e8 00 00 00 00	 call	 ?construct@?$allocator@V?$basic_string@DU?$char_traits@D@std@@V?$allocator@D@2@@std@@@std@@QAEXPAV?$basic_string@DU?$char_traits@D@std@@V?$allocator@D@2@@2@ABV32@@Z ; std::allocator<std::basic_string<char,std::char_traits<char>,std::allocator<char> > >::construct
  00059	eb d4		 jmp	 SHORT $L201192
$L201193:
  0005b	eb 2a		 jmp	 SHORT $L201886
$L201887:

; 83   : 	_CATCH_ALL
; 84   : 	for (; _Next != _Dest; ++_Next)

  0005d	eb 09		 jmp	 SHORT $L201194
$L201195:
  0005f	8b 45 ec	 mov	 eax, DWORD PTR __Next$[ebp]
  00062	83 c0 1c	 add	 eax, 28			; 0000001cH
  00065	89 45 ec	 mov	 DWORD PTR __Next$[ebp], eax
$L201194:
  00068	8b 4d ec	 mov	 ecx, DWORD PTR __Next$[ebp]
  0006b	3b 4d 10	 cmp	 ecx, DWORD PTR __Dest$[ebp]
  0006e	74 0e		 je	 SHORT $L201196

; 85   : 		_Al.destroy(_Next);

  00070	8b 55 ec	 mov	 edx, DWORD PTR __Next$[ebp]
  00073	52		 push	 edx
  00074	8b 4d 14	 mov	 ecx, DWORD PTR __Al$[ebp]
  00077	e8 00 00 00 00	 call	 ?destroy@?$allocator@V?$basic_string@DU?$char_traits@D@std@@V?$allocator@D@2@@std@@@std@@QAEXPAV?$basic_string@DU?$char_traits@D@std@@V?$allocator@D@2@@2@@Z ; std::allocator<std::basic_string<char,std::char_traits<char>,std::allocator<char> > >::destroy
  0007c	eb e1		 jmp	 SHORT $L201195
$L201196:

; 86   : 	_RERAISE;

  0007e	6a 00		 push	 0
  00080	6a 00		 push	 0
  00082	e8 00 00 00 00	 call	 __CxxThrowException@8
$L201886:

; 87   : 	_CATCH_END

  00087	c7 45 fc ff ff
	ff ff		 mov	 DWORD PTR __$EHRec$[ebp+12], -1

; 88   : 	return (_Dest);

  0008e	8b 45 10	 mov	 eax, DWORD PTR __Dest$[ebp]
$L201885:

; 89   : 	}

  00091	8b 4d f4	 mov	 ecx, DWORD PTR __$EHRec$[ebp+4]
  00094	64 89 0d 00 00
	00 00		 mov	 DWORD PTR fs:__except_list, ecx
  0009b	5f		 pop	 edi
  0009c	5e		 pop	 esi
  0009d	5b		 pop	 ebx
  0009e	8b e5		 mov	 esp, ebp
  000a0	5d		 pop	 ebp
  000a1	c3		 ret	 0
_TEXT	ENDS
;	COMDAT text$x
text$x	SEGMENT
__ehhandler$??$_Uninit_copy@PAV?$basic_string@DU?$char_traits@D@std@@V?$allocator@D@2@@std@@PAV12@V?$allocator@V?$basic_string@DU?$char_traits@D@std@@V?$allocator@D@2@@std@@@2@@std@@YAPAV?$basic_string@DU?$char_traits@D@std@@V?$allocator@D@2@@0@PAV10@00AAV?$allocator@V?$basic_string@DU?$char_traits@D@std@@V?$allocator@D@2@@std@@@0@U_Nonscalar_ptr_iterator_tag@0@@Z:
  00000	b8 00 00 00 00	 mov	 eax, OFFSET FLAT:$T201889
  00005	e9 00 00 00 00	 jmp	 ___CxxFrameHandler
text$x	ENDS
??$_Uninit_copy@PAV?$basic_string@DU?$char_traits@D@std@@V?$allocator@D@2@@std@@PAV12@V?$allocator@V?$basic_string@DU?$char_traits@D@std@@V?$allocator@D@2@@std@@@2@@std@@YAPAV?$basic_string@DU?$char_traits@D@std@@V?$allocator@D@2@@0@PAV10@00AAV?$allocator@V?$basic_string@DU?$char_traits@D@std@@V?$allocator@D@2@@std@@@0@U_Nonscalar_ptr_iterator_tag@0@@Z ENDP ; std::_Uninit_copy<std::basic_string<char,std::char_traits<char>,std::allocator<char> > *,std::basic_string<char,std::char_traits<char>,std::allocator<char> > *,std::allocator<std::basic_string<char,std::char_traits<char>,std::allocator<char> > > >
PUBLIC	??2@YAPAXIPAX@Z					; operator new
PUBLIC	??3@YAXPAX0@Z					; operator delete
;	COMDAT xdata$x
; File d:\program files (x86)\microsoft visual studio .net 2003\vc7\include\xmemory
xdata$x	SEGMENT
$T201906 DD	0ffffffffH
	DD	FLAT:$L201902
$T201904 DD	019930520H
	DD	01H
	DD	FLAT:$T201906
	DD	2 DUP(00H)
	DD	2 DUP(00H)
; Function compile flags: /Odt
xdata$x	ENDS
;	COMDAT ??$_Construct@V?$basic_string@DU?$char_traits@D@std@@V?$allocator@D@2@@std@@V12@@std@@YAXPAV?$basic_string@DU?$char_traits@D@std@@V?$allocator@D@2@@0@ABV10@@Z
_TEXT	SEGMENT
tv74 = -24						; size = 4
$T201899 = -20						; size = 4
$T201898 = -16						; size = 4
__$EHRec$ = -12						; size = 12
__Ptr$ = 8						; size = 4
__Val$ = 12						; size = 4
??$_Construct@V?$basic_string@DU?$char_traits@D@std@@V?$allocator@D@2@@std@@V12@@std@@YAXPAV?$basic_string@DU?$char_traits@D@std@@V?$allocator@D@2@@0@ABV10@@Z PROC NEAR ; std::_Construct<std::basic_string<char,std::char_traits<char>,std::allocator<char> >,std::basic_string<char,std::char_traits<char>,std::allocator<char> > >, COMDAT

; 41   : 	{	// construct object at _Ptr with value _Val

  00000	55		 push	 ebp
  00001	8b ec		 mov	 ebp, esp
  00003	6a ff		 push	 -1
  00005	68 00 00 00 00	 push	 __ehhandler$??$_Construct@V?$basic_string@DU?$char_traits@D@std@@V?$allocator@D@2@@std@@V12@@std@@YAXPAV?$basic_string@DU?$char_traits@D@std@@V?$allocator@D@2@@0@ABV10@@Z
  0000a	64 a1 00 00 00
	00		 mov	 eax, DWORD PTR fs:__except_list
  00010	50		 push	 eax
  00011	64 89 25 00 00
	00 00		 mov	 DWORD PTR fs:__except_list, esp
  00018	83 ec 0c	 sub	 esp, 12			; 0000000cH

; 42   : 	new ((void _FARQ *)_Ptr) _T1(_Val);

  0001b	8b 45 08	 mov	 eax, DWORD PTR __Ptr$[ebp]
  0001e	50		 push	 eax
  0001f	6a 1c		 push	 28			; 0000001cH
  00021	e8 00 00 00 00	 call	 ??2@YAPAXIPAX@Z		; operator new
  00026	83 c4 08	 add	 esp, 8
  00029	89 45 ec	 mov	 DWORD PTR $T201899[ebp], eax
  0002c	c7 45 fc 00 00
	00 00		 mov	 DWORD PTR __$EHRec$[ebp+8], 0
  00033	83 7d ec 00	 cmp	 DWORD PTR $T201899[ebp], 0
  00037	74 12		 je	 SHORT $L201900
  00039	8b 4d 0c	 mov	 ecx, DWORD PTR __Val$[ebp]
  0003c	51		 push	 ecx
  0003d	8b 4d ec	 mov	 ecx, DWORD PTR $T201899[ebp]
  00040	ff 15 00 00 00
	00		 call	 DWORD PTR __imp_??0?$basic_string@DU?$char_traits@D@std@@V?$allocator@D@2@@std@@QAE@ABV01@@Z
  00046	89 45 e8	 mov	 DWORD PTR tv74[ebp], eax
  00049	eb 07		 jmp	 SHORT $L201901
$L201900:
  0004b	c7 45 e8 00 00
	00 00		 mov	 DWORD PTR tv74[ebp], 0
$L201901:
  00052	8b 55 e8	 mov	 edx, DWORD PTR tv74[ebp]
  00055	89 55 f0	 mov	 DWORD PTR $T201898[ebp], edx
  00058	c7 45 fc ff ff
	ff ff		 mov	 DWORD PTR __$EHRec$[ebp+8], -1

; 43   : 	}

  0005f	8b 4d f4	 mov	 ecx, DWORD PTR __$EHRec$[ebp]
  00062	64 89 0d 00 00
	00 00		 mov	 DWORD PTR fs:__except_list, ecx
  00069	8b e5		 mov	 esp, ebp
  0006b	5d		 pop	 ebp
  0006c	c3		 ret	 0
_TEXT	ENDS
;	COMDAT text$x
text$x	SEGMENT
$L201902:
  00000	8b 45 08	 mov	 eax, DWORD PTR __Ptr$[ebp]
  00003	50		 push	 eax
  00004	8b 4d ec	 mov	 ecx, DWORD PTR $T201899[ebp]
  00007	51		 push	 ecx
  00008	e8 00 00 00 00	 call	 ??3@YAXPAX0@Z		; operator delete
  0000d	83 c4 08	 add	 esp, 8
  00010	c3		 ret	 0
__ehhandler$??$_Construct@V?$basic_string@DU?$char_traits@D@std@@V?$allocator@D@2@@std@@V12@@std@@YAXPAV?$basic_string@DU?$char_traits@D@std@@V?$allocator@D@2@@0@ABV10@@Z:
  00011	b8 00 00 00 00	 mov	 eax, OFFSET FLAT:$T201904
  00016	e9 00 00 00 00	 jmp	 ___CxxFrameHandler
text$x	ENDS
??$_Construct@V?$basic_string@DU?$char_traits@D@std@@V?$allocator@D@2@@std@@V12@@std@@YAXPAV?$basic_string@DU?$char_traits@D@std@@V?$allocator@D@2@@0@ABV10@@Z ENDP ; std::_Construct<std::basic_string<char,std::char_traits<char>,std::allocator<char> >,std::basic_string<char,std::char_traits<char>,std::allocator<char> > >
; Function compile flags: /Odt
; File d:\program files (x86)\microsoft visual studio .net 2003\vc7\include\new.h
;	COMDAT ??2@YAPAXIPAX@Z
_TEXT	SEGMENT
___formal$ = 8						; size = 4
__P$ = 12						; size = 4
??2@YAPAXIPAX@Z PROC NEAR				; operator new, COMDAT

; 109  :         {return (_P); }

  00000	55		 push	 ebp
  00001	8b ec		 mov	 ebp, esp
  00003	8b 45 0c	 mov	 eax, DWORD PTR __P$[ebp]
  00006	5d		 pop	 ebp
  00007	c3		 ret	 0
??2@YAPAXIPAX@Z ENDP					; operator new
; Function compile flags: /Odt
_TEXT	ENDS
;	COMDAT ??3@YAXPAX0@Z
_TEXT	SEGMENT
___formal$ = 8						; size = 4
___formal$ = 12						; size = 4
??3@YAXPAX0@Z PROC NEAR					; operator delete, COMDAT

; 112  :         {return; }

  00000	55		 push	 ebp
  00001	8b ec		 mov	 ebp, esp
  00003	5d		 pop	 ebp
  00004	c3		 ret	 0
??3@YAXPAX0@Z ENDP					; operator delete
_TEXT	ENDS
PUBLIC	??_G?$basic_string@DU?$char_traits@D@std@@V?$allocator@D@2@@std@@QAEPAXI@Z ; std::basic_string<char,std::char_traits<char>,std::allocator<char> >::`scalar deleting destructor'
; Function compile flags: /Odt
; File d:\program files (x86)\microsoft visual studio .net 2003\vc7\include\xmemory
;	COMDAT ??$_Destroy@V?$basic_string@DU?$char_traits@D@std@@V?$allocator@D@2@@std@@@std@@YAXPAV?$basic_string@DU?$char_traits@D@std@@V?$allocator@D@2@@0@@Z
_TEXT	SEGMENT
__Ptr$ = 8						; size = 4
??$_Destroy@V?$basic_string@DU?$char_traits@D@std@@V?$allocator@D@2@@std@@@std@@YAXPAV?$basic_string@DU?$char_traits@D@std@@V?$allocator@D@2@@0@@Z PROC NEAR ; std::_Destroy<std::basic_string<char,std::char_traits<char>,std::allocator<char> > >, COMDAT

; 48   : 	{	// destroy object at _Ptr

  00000	55		 push	 ebp
  00001	8b ec		 mov	 ebp, esp

; 49   : 	_DESTRUCTOR(_Ty, _Ptr);

  00003	6a 00		 push	 0
  00005	8b 4d 08	 mov	 ecx, DWORD PTR __Ptr$[ebp]
  00008	e8 00 00 00 00	 call	 ??_G?$basic_string@DU?$char_traits@D@std@@V?$allocator@D@2@@std@@QAEPAXI@Z

; 50   : 	}

  0000d	5d		 pop	 ebp
  0000e	c3		 ret	 0
??$_Destroy@V?$basic_string@DU?$char_traits@D@std@@V?$allocator@D@2@@std@@@std@@YAXPAV?$basic_string@DU?$char_traits@D@std@@V?$allocator@D@2@@0@@Z ENDP ; std::_Destroy<std::basic_string<char,std::char_traits<char>,std::allocator<char> > >
; Function compile flags: /Odt
_TEXT	ENDS
;	COMDAT ??_G?$basic_string@DU?$char_traits@D@std@@V?$allocator@D@2@@std@@QAEPAXI@Z
_TEXT	SEGMENT
_this$ = -4						; size = 4
___flags$ = 8						; size = 4
??_G?$basic_string@DU?$char_traits@D@std@@V?$allocator@D@2@@std@@QAEPAXI@Z PROC NEAR ; std::basic_string<char,std::char_traits<char>,std::allocator<char> >::`scalar deleting destructor', COMDAT
; _this$ = ecx
  00000	55		 push	 ebp
  00001	8b ec		 mov	 ebp, esp
  00003	51		 push	 ecx
  00004	89 4d fc	 mov	 DWORD PTR _this$[ebp], ecx
  00007	8b 4d fc	 mov	 ecx, DWORD PTR _this$[ebp]
  0000a	ff 15 00 00 00
	00		 call	 DWORD PTR __imp_??1?$basic_string@DU?$char_traits@D@std@@V?$allocator@D@2@@std@@QAE@XZ
  00010	8b 45 08	 mov	 eax, DWORD PTR ___flags$[ebp]
  00013	83 e0 01	 and	 eax, 1
  00016	74 0c		 je	 SHORT $L201208
  00018	8b 4d fc	 mov	 ecx, DWORD PTR _this$[ebp]
  0001b	51		 push	 ecx
  0001c	e8 00 00 00 00	 call	 ??3@YAXPAX@Z		; operator delete
  00021	83 c4 04	 add	 esp, 4
$L201208:
  00024	8b 45 fc	 mov	 eax, DWORD PTR _this$[ebp]
  00027	8b e5		 mov	 esp, ebp
  00029	5d		 pop	 ebp
  0002a	c2 04 00	 ret	 4
??_G?$basic_string@DU?$char_traits@D@std@@V?$allocator@D@2@@std@@QAEPAXI@Z ENDP ; std::basic_string<char,std::char_traits<char>,std::allocator<char> >::`scalar deleting destructor'
_TEXT	ENDS
EXTRN	__imp_?c_str@?$basic_string@DU?$char_traits@D@std@@V?$allocator@D@2@@std@@QBEPBDXZ:NEAR
; Function compile flags: /Odt
; File d:\program files (x86)\microsoft visual studio .net 2003\vc7\include\stdexcept
;	COMDAT ?what@logic_error@std@@UBEPBDXZ
_TEXT	SEGMENT
_this$ = -4						; size = 4
?what@logic_error@std@@UBEPBDXZ PROC NEAR		; std::logic_error::what, COMDAT
; _this$ = ecx

; 26   : 		{	// return pointer to message string

  00000	55		 push	 ebp
  00001	8b ec		 mov	 ebp, esp
  00003	51		 push	 ecx
  00004	89 4d fc	 mov	 DWORD PTR _this$[ebp], ecx

; 27   : 		return (_Str.c_str());

  00007	8b 4d fc	 mov	 ecx, DWORD PTR _this$[ebp]
  0000a	83 c1 0c	 add	 ecx, 12			; 0000000cH
  0000d	ff 15 00 00 00
	00		 call	 DWORD PTR __imp_?c_str@?$basic_string@DU?$char_traits@D@std@@V?$allocator@D@2@@std@@QBEPBDXZ

; 28   : 		}

  00013	8b e5		 mov	 esp, ebp
  00015	5d		 pop	 ebp
  00016	c3		 ret	 0
?what@logic_error@std@@UBEPBDXZ ENDP			; std::logic_error::what
_TEXT	ENDS
PUBLIC	??0logic_error@std@@QAE@ABV?$basic_string@DU?$char_traits@D@std@@V?$allocator@D@2@@1@@Z ; std::logic_error::logic_error
; Function compile flags: /Odt
;	COMDAT ??0length_error@std@@QAE@ABV?$basic_string@DU?$char_traits@D@std@@V?$allocator@D@2@@1@@Z
_TEXT	SEGMENT
_this$ = -4						; size = 4
__Message$ = 8						; size = 4
??0length_error@std@@QAE@ABV?$basic_string@DU?$char_traits@D@std@@V?$allocator@D@2@@1@@Z PROC NEAR ; std::length_error::length_error, COMDAT
; _this$ = ecx

; 95   : 		{	// construct from message string

  00000	55		 push	 ebp
  00001	8b ec		 mov	 ebp, esp
  00003	51		 push	 ecx
  00004	89 4d fc	 mov	 DWORD PTR _this$[ebp], ecx
  00007	8b 45 08	 mov	 eax, DWORD PTR __Message$[ebp]
  0000a	50		 push	 eax
  0000b	8b 4d fc	 mov	 ecx, DWORD PTR _this$[ebp]
  0000e	e8 00 00 00 00	 call	 ??0logic_error@std@@QAE@ABV?$basic_string@DU?$char_traits@D@std@@V?$allocator@D@2@@1@@Z ; std::logic_error::logic_error
  00013	8b 4d fc	 mov	 ecx, DWORD PTR _this$[ebp]
  00016	c7 01 00 00 00
	00		 mov	 DWORD PTR [ecx], OFFSET FLAT:??_7length_error@std@@6B@

; 96   : 		}

  0001c	8b 45 fc	 mov	 eax, DWORD PTR _this$[ebp]
  0001f	8b e5		 mov	 esp, ebp
  00021	5d		 pop	 ebp
  00022	c2 04 00	 ret	 4
??0length_error@std@@QAE@ABV?$basic_string@DU?$char_traits@D@std@@V?$allocator@D@2@@1@@Z ENDP ; std::length_error::length_error
_TEXT	ENDS
PUBLIC	??_R4logic_error@std@@6B@			; std::logic_error::`RTTI Complete Object Locator'
PUBLIC	??_R3logic_error@std@@8				; std::logic_error::`RTTI Class Hierarchy Descriptor'
PUBLIC	??_R2logic_error@std@@8				; std::logic_error::`RTTI Base Class Array'
PUBLIC	??_7logic_error@std@@6B@			; std::logic_error::`vftable'
PUBLIC	??_Glogic_error@std@@UAEPAXI@Z			; std::logic_error::`scalar deleting destructor'
EXTRN	__imp_??0exception@@QAE@XZ:NEAR
EXTRN	__imp_??1exception@@UAE@XZ:NEAR
EXTRN	??_Elogic_error@std@@UAEPAXI@Z:NEAR		; std::logic_error::`vector deleting destructor'
;	COMDAT xdata$x
xdata$x	SEGMENT
$T201929 DD	0ffffffffH
	DD	FLAT:$L201924
$T201927 DD	019930520H
	DD	01H
	DD	FLAT:$T201929
	DD	2 DUP(00H)
	DD	2 DUP(00H)
xdata$x	ENDS
;	COMDAT ??_7logic_error@std@@6B@
CONST	SEGMENT
??_7logic_error@std@@6B@ DD FLAT:??_R4logic_error@std@@6B@ ; std::logic_error::`vftable'
	DD	FLAT:??_Elogic_error@std@@UAEPAXI@Z
	DD	FLAT:?what@logic_error@std@@UBEPBDXZ
CONST	ENDS
;	COMDAT ??_R4logic_error@std@@6B@
rdata$r	SEGMENT
??_R4logic_error@std@@6B@ DD 00H			; std::logic_error::`RTTI Complete Object Locator'
	DD	00H
	DD	00H
	DD	FLAT:??_R0?AVlogic_error@std@@@8
	DD	FLAT:??_R3logic_error@std@@8
rdata$r	ENDS
;	COMDAT ??_R3logic_error@std@@8
rdata$r	SEGMENT
??_R3logic_error@std@@8 DD 00H				; std::logic_error::`RTTI Class Hierarchy Descriptor'
	DD	00H
	DD	02H
	DD	FLAT:??_R2logic_error@std@@8
rdata$r	ENDS
;	COMDAT ??_R2logic_error@std@@8
rdata$r	SEGMENT
??_R2logic_error@std@@8 DD FLAT:??_R1A@?0A@A@logic_error@std@@8 ; std::logic_error::`RTTI Base Class Array'
	DD	FLAT:??_R1A@?0A@A@exception@@8
; Function compile flags: /Odt
rdata$r	ENDS
;	COMDAT ??0logic_error@std@@QAE@ABV?$basic_string@DU?$char_traits@D@std@@V?$allocator@D@2@@1@@Z
_TEXT	SEGMENT
_this$ = -16						; size = 4
__$EHRec$ = -12						; size = 12
__Message$ = 8						; size = 4
??0logic_error@std@@QAE@ABV?$basic_string@DU?$char_traits@D@std@@V?$allocator@D@2@@1@@Z PROC NEAR ; std::logic_error::logic_error, COMDAT
; _this$ = ecx

; 19   : 		{	// construct from message string

  00000	55		 push	 ebp
  00001	8b ec		 mov	 ebp, esp
  00003	6a ff		 push	 -1
  00005	68 00 00 00 00	 push	 __ehhandler$??0logic_error@std@@QAE@ABV?$basic_string@DU?$char_traits@D@std@@V?$allocator@D@2@@1@@Z
  0000a	64 a1 00 00 00
	00		 mov	 eax, DWORD PTR fs:__except_list
  00010	50		 push	 eax
  00011	64 89 25 00 00
	00 00		 mov	 DWORD PTR fs:__except_list, esp
  00018	51		 push	 ecx
  00019	89 4d f0	 mov	 DWORD PTR _this$[ebp], ecx
  0001c	8b 4d f0	 mov	 ecx, DWORD PTR _this$[ebp]
  0001f	ff 15 00 00 00
	00		 call	 DWORD PTR __imp_??0exception@@QAE@XZ
  00025	c7 45 fc 00 00
	00 00		 mov	 DWORD PTR __$EHRec$[ebp+8], 0
  0002c	8b 45 f0	 mov	 eax, DWORD PTR _this$[ebp]
  0002f	c7 00 00 00 00
	00		 mov	 DWORD PTR [eax], OFFSET FLAT:??_7logic_error@std@@6B@
  00035	8b 4d 08	 mov	 ecx, DWORD PTR __Message$[ebp]
  00038	51		 push	 ecx
  00039	8b 4d f0	 mov	 ecx, DWORD PTR _this$[ebp]
  0003c	83 c1 0c	 add	 ecx, 12			; 0000000cH
  0003f	ff 15 00 00 00
	00		 call	 DWORD PTR __imp_??0?$basic_string@DU?$char_traits@D@std@@V?$allocator@D@2@@std@@QAE@ABV01@@Z

; 20   : 		}

  00045	c7 45 fc ff ff
	ff ff		 mov	 DWORD PTR __$EHRec$[ebp+8], -1
  0004c	8b 45 f0	 mov	 eax, DWORD PTR _this$[ebp]
  0004f	8b 4d f4	 mov	 ecx, DWORD PTR __$EHRec$[ebp]
  00052	64 89 0d 00 00
	00 00		 mov	 DWORD PTR fs:__except_list, ecx
  00059	8b e5		 mov	 esp, ebp
  0005b	5d		 pop	 ebp
  0005c	c2 04 00	 ret	 4
_TEXT	ENDS
;	COMDAT text$x
text$x	SEGMENT
$L201924:
  00000	8b 4d f0	 mov	 ecx, DWORD PTR _this$[ebp]
  00003	ff 25 00 00 00
	00		 jmp	 DWORD PTR __imp_??1exception@@UAE@XZ
__ehhandler$??0logic_error@std@@QAE@ABV?$basic_string@DU?$char_traits@D@std@@V?$allocator@D@2@@1@@Z:
  00009	b8 00 00 00 00	 mov	 eax, OFFSET FLAT:$T201927
  0000e	e9 00 00 00 00	 jmp	 ___CxxFrameHandler
text$x	ENDS
??0logic_error@std@@QAE@ABV?$basic_string@DU?$char_traits@D@std@@V?$allocator@D@2@@1@@Z ENDP ; std::logic_error::logic_error
PUBLIC	??1logic_error@std@@UAE@XZ			; std::logic_error::~logic_error
; Function compile flags: /Odt
;	COMDAT ??_Glogic_error@std@@UAEPAXI@Z
_TEXT	SEGMENT
_this$ = -4						; size = 4
___flags$ = 8						; size = 4
??_Glogic_error@std@@UAEPAXI@Z PROC NEAR		; std::logic_error::`scalar deleting destructor', COMDAT
