; Listing generated by Microsoft (R) Optimizing Compiler Version 13.10.3077 

	TITLE	.\UpdateTipDlg.cpp
	.386P
include listing.inc
if @Version gt 510
.model FLAT
else
_TEXT	SEGMENT PARA USE32 PUBLIC 'CODE'
_TEXT	ENDS
_DATA	SEGMENT DWORD USE32 PUBLIC 'DATA'
_DATA	ENDS
CONST	SEGMENT DWORD USE32 PUBLIC 'CONST'
CONST	ENDS
_BSS	SEGMENT DWORD USE32 PUBLIC 'BSS'
_BSS	ENDS
$$SYMBOLS	SEGMENT BYTE USE32 'DEBSYM'
$$SYMBOLS	ENDS
$$TYPES	SEGMENT BYTE USE32 'DEBTYP'
$$TYPES	ENDS
_TLS	SEGMENT DWORD USE32 PUBLIC 'TLS'
_TLS	ENDS
rdata$r	SEGMENT DWORD USE32 PUBLIC 'CONST'
rdata$r	ENDS
xdata$x	SEGMENT DWORD USE32 PUBLIC 'CONST'
xdata$x	ENDS
text$AFX_COL1	SEGMENT PARA USE32 PUBLIC ''
text$AFX_COL1	ENDS
text$yc	SEGMENT PARA USE32 PUBLIC 'CODE'
text$yc	ENDS
CRT$XCA	SEGMENT DWORD USE32 PUBLIC 'DATA'
CRT$XCA	ENDS
CRT$XCU	SEGMENT DWORD USE32 PUBLIC 'DATA'
CRT$XCU	ENDS
CRT$XCL	SEGMENT DWORD USE32 PUBLIC 'DATA'
CRT$XCL	ENDS
CRT$XCC	SEGMENT DWORD USE32 PUBLIC 'DATA'
CRT$XCC	ENDS
CRT$XCZ	SEGMENT DWORD USE32 PUBLIC 'DATA'
CRT$XCZ	ENDS
text$yd	SEGMENT PARA USE32 PUBLIC 'CODE'
text$yd	ENDS
ATL$__m	SEGMENT DWORD USE32 PUBLIC ''
ATL$__m	ENDS
ATL$__z	SEGMENT DWORD USE32 PUBLIC ''
ATL$__z	ENDS
ATL$__a	SEGMENT DWORD USE32 PUBLIC ''
ATL$__a	ENDS
;	COMDAT ??_GCUpdateTipDlg@@UAEPAXI@Z
_TEXT	SEGMENT PARA USE32 PUBLIC 'CODE'
_TEXT	ENDS
;	COMDAT ??0CHyperLinkExpand@@QAE@XZ
_TEXT	SEGMENT PARA USE32 PUBLIC 'CODE'
_TEXT	ENDS
;	COMDAT ??1CHyperLinkExpand@@UAE@XZ
_TEXT	SEGMENT PARA USE32 PUBLIC 'CODE'
_TEXT	ENDS
;	COMDAT ??_GCHyperLinkExpand@@UAEPAXI@Z
_TEXT	SEGMENT PARA USE32 PUBLIC 'CODE'
_TEXT	ENDS
;	COMDAT ??B?$CComPtrBase@UITypeInfo2@@@ATL@@QBEPAUITypeInfo2@@XZ
_TEXT	SEGMENT PARA USE32 PUBLIC 'CODE'
_TEXT	ENDS
;	COMDAT ?equal@?$istreambuf_iterator@DU?$char_traits@D@std@@@std@@QBE_NABV12@@Z
_TEXT	SEGMENT PARA USE32 PUBLIC 'CODE'
_TEXT	ENDS
;	COMDAT ?equal@?$istreambuf_iterator@_WU?$char_traits@_W@std@@@std@@QBE_NABV12@@Z
_TEXT	SEGMENT PARA USE32 PUBLIC 'CODE'
_TEXT	ENDS
;	COMDAT ?StringFindString@?$ChTraitsCRT@D@ATL@@SAPBDPBD0@Z
_TEXT	SEGMENT PARA USE32 PUBLIC 'CODE'
_TEXT	ENDS
;	COMDAT ?StringFindString@?$ChTraitsCRT@D@ATL@@SAPADPADPBD@Z
_TEXT	SEGMENT PARA USE32 PUBLIC 'CODE'
_TEXT	ENDS
;	COMDAT ?SafeStringLen@?$ChTraitsCRT@D@ATL@@SAHPBD@Z
_TEXT	SEGMENT PARA USE32 PUBLIC 'CODE'
_TEXT	ENDS
;	COMDAT ?Unlock@?$CComCritSecLock@VCComCriticalSection@ATL@@@ATL@@QAEXXZ
_TEXT	SEGMENT PARA USE32 PUBLIC 'CODE'
_TEXT	ENDS
;	COMDAT ??$_Maklocstr@D@std@@YAPADPBDPADABU_Cvtvec@@@Z
_TEXT	SEGMENT PARA USE32 PUBLIC 'CODE'
_TEXT	ENDS
;	COMDAT ??_R3CUpdateTipDlg@@8
rdata$r	SEGMENT DWORD USE32 PUBLIC 'CONST'
rdata$r	ENDS
;	COMDAT ??_R3CHyperLinkExpand@@8
rdata$r	SEGMENT DWORD USE32 PUBLIC 'CONST'
rdata$r	ENDS
;	COMDAT ??_R3?$numpunct@_W@std@@8
rdata$r	SEGMENT DWORD USE32 PUBLIC 'CONST'
rdata$r	ENDS
;	COMDAT ??_R3?$numpunct@D@std@@8
rdata$r	SEGMENT DWORD USE32 PUBLIC 'CONST'
rdata$r	ENDS
;	COMDAT ??_R2CUpdateTipDlg@@8
rdata$r	SEGMENT DWORD USE32 PUBLIC 'CONST'
rdata$r	ENDS
;	COMDAT ??_R2CHyperLinkExpand@@8
rdata$r	SEGMENT DWORD USE32 PUBLIC 'CONST'
rdata$r	ENDS
;	COMDAT ??_R2?$numpunct@_W@std@@8
rdata$r	SEGMENT DWORD USE32 PUBLIC 'CONST'
rdata$r	ENDS
;	COMDAT ??_R2?$numpunct@D@std@@8
rdata$r	SEGMENT DWORD USE32 PUBLIC 'CONST'
rdata$r	ENDS
;	COMDAT ??_R1A@?0A@A@CDialog@@8
rdata$r	SEGMENT DWORD USE32 PUBLIC 'CONST'
rdata$r	ENDS
;	COMDAT ??_R0?AVCDialog@@@8
_DATA	SEGMENT DWORD USE32 PUBLIC 'DATA'
_DATA	ENDS
;	COMDAT ??_R1A@?0A@A@CUpdateTipDlg@@8
rdata$r	SEGMENT DWORD USE32 PUBLIC 'CONST'
rdata$r	ENDS
;	COMDAT ??_R1A@?0A@A@CObject@@8
rdata$r	SEGMENT DWORD USE32 PUBLIC 'CONST'
rdata$r	ENDS
;	COMDAT ??_R0?AVCObject@@@8
_DATA	SEGMENT DWORD USE32 PUBLIC 'DATA'
_DATA	ENDS
;	COMDAT ??_R1A@?0A@A@CCmdTarget@@8
rdata$r	SEGMENT DWORD USE32 PUBLIC 'CONST'
rdata$r	ENDS
;	COMDAT ??_R0?AVCCmdTarget@@@8
_DATA	SEGMENT DWORD USE32 PUBLIC 'DATA'
_DATA	ENDS
;	COMDAT ??_R1A@?0A@A@CWnd@@8
rdata$r	SEGMENT DWORD USE32 PUBLIC 'CONST'
rdata$r	ENDS
;	COMDAT ??_R0?AVCWnd@@@8
_DATA	SEGMENT DWORD USE32 PUBLIC 'DATA'
_DATA	ENDS
;	COMDAT ??_R1A@?0A@A@CStatic@@8
rdata$r	SEGMENT DWORD USE32 PUBLIC 'CONST'
rdata$r	ENDS
;	COMDAT ??_R0?AVCStatic@@@8
_DATA	SEGMENT DWORD USE32 PUBLIC 'DATA'
_DATA	ENDS
;	COMDAT ??_R1A@?0A@A@CHyperLink@@8
rdata$r	SEGMENT DWORD USE32 PUBLIC 'CONST'
rdata$r	ENDS
;	COMDAT ??_R1A@?0A@A@CHyperLinkExpand@@8
rdata$r	SEGMENT DWORD USE32 PUBLIC 'CONST'
rdata$r	ENDS
;	COMDAT ??_R1A@?0A@A@?$numpunct@_W@std@@8
rdata$r	SEGMENT DWORD USE32 PUBLIC 'CONST'
rdata$r	ENDS
;	COMDAT ??_R1A@?0A@A@facet@locale@std@@8
rdata$r	SEGMENT DWORD USE32 PUBLIC 'CONST'
rdata$r	ENDS
;	COMDAT ??_R0?AVfacet@locale@std@@@8
_DATA	SEGMENT DWORD USE32 PUBLIC 'DATA'
_DATA	ENDS
;	COMDAT ??_R1A@?0A@A@?$numpunct@D@std@@8
rdata$r	SEGMENT DWORD USE32 PUBLIC 'CONST'
rdata$r	ENDS
;	COMDAT ??_R0?AVCUpdateTipDlg@@@8
_DATA	SEGMENT DWORD USE32 PUBLIC 'DATA'
_DATA	ENDS
;	COMDAT ??_R0?AVCHyperLink@@@8
_DATA	SEGMENT DWORD USE32 PUBLIC 'DATA'
_DATA	ENDS
;	COMDAT ??_R0?AVCHyperLinkExpand@@@8
_DATA	SEGMENT DWORD USE32 PUBLIC 'DATA'
_DATA	ENDS
;	COMDAT ??_R0?AV?$numpunct@_W@std@@@8
_DATA	SEGMENT DWORD USE32 PUBLIC 'DATA'
_DATA	ENDS
;	COMDAT ??_R0?AV?$numpunct@D@std@@@8
_DATA	SEGMENT DWORD USE32 PUBLIC 'DATA'
_DATA	ENDS
;	COMDAT ?Create@CDialog@@UAEHIPAVCWnd@@@Z
_TEXT	SEGMENT PARA USE32 PUBLIC 'CODE'
_TEXT	ENDS
;	COMDAT ??_R4CUpdateTipDlg@@6B@
rdata$r	SEGMENT DWORD USE32 PUBLIC 'CONST'
rdata$r	ENDS
;	COMDAT ?EndModalState@CWnd@@UAEXXZ
_TEXT	SEGMENT PARA USE32 PUBLIC 'CODE'
_TEXT	ENDS
;	COMDAT ?BeginModalState@CWnd@@UAEXXZ
_TEXT	SEGMENT PARA USE32 PUBLIC 'CODE'
_TEXT	ENDS
;	COMDAT ?Dump@CObject@@UBEXAAVCDumpContext@@@Z
_TEXT	SEGMENT PARA USE32 PUBLIC 'CODE'
_TEXT	ENDS
;	COMDAT ?AssertValid@CObject@@UBEXXZ
_TEXT	SEGMENT PARA USE32 PUBLIC 'CODE'
_TEXT	ENDS
;	COMDAT ?Serialize@CObject@@UAEXAAVCArchive@@@Z
_TEXT	SEGMENT PARA USE32 PUBLIC 'CODE'
_TEXT	ENDS
;	COMDAT ??_R4CHyperLinkExpand@@6B@
rdata$r	SEGMENT DWORD USE32 PUBLIC 'CONST'
rdata$r	ENDS
;	COMDAT ??0?$allocator@_W@std@@QAE@XZ
_TEXT	SEGMENT PARA USE32 PUBLIC 'CODE'
_TEXT	ENDS
;	COMDAT ??0?$allocator@D@std@@QAE@ABV01@@Z
_TEXT	SEGMENT PARA USE32 PUBLIC 'CODE'
_TEXT	ENDS
;	COMDAT ??0?$allocator@D@std@@QAE@XZ
_TEXT	SEGMENT PARA USE32 PUBLIC 'CODE'
_TEXT	ENDS
;	COMDAT ?deallocate@?$allocator@D@std@@QAEXPADI@Z
_TEXT	SEGMENT PARA USE32 PUBLIC 'CODE'
_TEXT	ENDS
;	COMDAT ?max_size@?$allocator@D@std@@QBEIXZ
_TEXT	SEGMENT PARA USE32 PUBLIC 'CODE'
_TEXT	ENDS
;	COMDAT ?allocate@?$allocator@D@std@@QAEPADI@Z
_TEXT	SEGMENT PARA USE32 PUBLIC 'CODE'
_TEXT	ENDS
;	COMDAT ??$_Allocate@D@std@@YAPADIPAD@Z
_TEXT	SEGMENT PARA USE32 PUBLIC 'CODE'
_TEXT	ENDS
;	COMDAT ??_G?$numpunct@_W@std@@MAEPAXI@Z
_TEXT	SEGMENT PARA USE32 PUBLIC 'CODE'
_TEXT	ENDS
;	COMDAT ??_R4?$numpunct@_W@std@@6B@
rdata$r	SEGMENT DWORD USE32 PUBLIC 'CONST'
rdata$r	ENDS
;	COMDAT ??_G?$numpunct@D@std@@MAEPAXI@Z
_TEXT	SEGMENT PARA USE32 PUBLIC 'CODE'
_TEXT	ENDS
;	COMDAT ??_R4?$numpunct@D@std@@6B@
rdata$r	SEGMENT DWORD USE32 PUBLIC 'CONST'
rdata$r	ENDS
;	COMDAT ?_Psave@?$_Facetptr@V?$numpunct@_W@std@@@std@@2PBVfacet@locale@2@B
_DATA	SEGMENT DWORD USE32 PUBLIC 'DATA'
_DATA	ENDS
;	COMDAT ?_Psave@?$_Facetptr@V?$numpunct@D@std@@@std@@2PBVfacet@locale@2@B
_DATA	SEGMENT DWORD USE32 PUBLIC 'DATA'
_DATA	ENDS
;	COMDAT ?Unlock@CComCriticalSection@ATL@@QAEJXZ
_TEXT	SEGMENT PARA USE32 PUBLIC 'CODE'
_TEXT	ENDS
;	COMDAT ?_Psave@?$_Facetptr@V?$ctype@_W@std@@@std@@2PBVfacet@locale@2@B
_DATA	SEGMENT DWORD USE32 PUBLIC 'DATA'
_DATA	ENDS
;	COMDAT ?_Psave@?$_Facetptr@V?$ctype@D@std@@@std@@2PBVfacet@locale@2@B
_DATA	SEGMENT DWORD USE32 PUBLIC 'DATA'
_DATA	ENDS
;	COMDAT ??$_Maklocchr@_W@std@@YA_WDPA_WABU_Cvtvec@@@Z
_TEXT	SEGMENT PARA USE32 PUBLIC 'CODE'
_TEXT	ENDS
;	COMDAT ??$_Maklocstr@_W@std@@YAPA_WPBDPA_WABU_Cvtvec@@@Z
_TEXT	SEGMENT PARA USE32 PUBLIC 'CODE'
_TEXT	ENDS
;	COMDAT ??$_Maklocchr@D@std@@YADDPADABU_Cvtvec@@@Z
_TEXT	SEGMENT PARA USE32 PUBLIC 'CODE'
_TEXT	ENDS
;	COMDAT ??_C@_04LOAJBDKD@true?$AA@
CONST	SEGMENT DWORD USE32 PUBLIC 'CONST'
CONST	ENDS
;	COMDAT ??_C@_05LAPONLG@false?$AA@
CONST	SEGMENT DWORD USE32 PUBLIC 'CONST'
CONST	ENDS
;	COMDAT _wmemcpy
_TEXT	SEGMENT PARA USE32 PUBLIC 'CODE'
_TEXT	ENDS
;	COMDAT ?max_size@?$allocator@_W@std@@QBEIXZ
_TEXT	SEGMENT PARA USE32 PUBLIC 'CODE'
_TEXT	ENDS
;	COMDAT ?allocate@?$allocator@_W@std@@QAEPA_WI@Z
_TEXT	SEGMENT PARA USE32 PUBLIC 'CODE'
_TEXT	ENDS
;	COMDAT ??$_Allocate@_W@std@@YAPA_WIPA_W@Z
_TEXT	SEGMENT PARA USE32 PUBLIC 'CODE'
_TEXT	ENDS
;	COMDAT ??_C@_01GFHCPBMG@C?$AA@
CONST	SEGMENT DWORD USE32 PUBLIC 'CONST'
CONST	ENDS
;	COMDAT ?_Peek@?$istreambuf_iterator@_WU?$char_traits@_W@std@@@std@@AAE_WXZ
_TEXT	SEGMENT PARA USE32 PUBLIC 'CODE'
_TEXT	ENDS
;	COMDAT ?_Peek@?$istreambuf_iterator@DU?$char_traits@D@std@@@std@@AAEDXZ
_TEXT	SEGMENT PARA USE32 PUBLIC 'CODE'
_TEXT	ENDS
;	COMDAT ??$use_facet@V?$ctype@_W@std@@@std@@YAABV?$ctype@_W@0@ABVlocale@0@@Z
_TEXT	SEGMENT PARA USE32 PUBLIC 'CODE'
_TEXT	ENDS
;	COMDAT ??_S?$ctype@_W@std@@6B@
CONST	SEGMENT DWORD USE32 PUBLIC 'CONST'
CONST	ENDS
;	COMDAT ??_R4?$ctype@_W@std@@6B@
rdata$r	SEGMENT DWORD USE32 PUBLIC 'CONST'
rdata$r	ENDS
;	COMDAT ??_R0?AV?$ctype@_W@std@@@8
_DATA	SEGMENT DWORD USE32 PUBLIC 'DATA'
_DATA	ENDS
;	COMDAT ??_R3?$ctype@_W@std@@8
rdata$r	SEGMENT DWORD USE32 PUBLIC 'CONST'
rdata$r	ENDS
;	COMDAT ??_R2?$ctype@_W@std@@8
rdata$r	SEGMENT DWORD USE32 PUBLIC 'CONST'
rdata$r	ENDS
;	COMDAT ??_R1A@?0A@A@?$ctype@_W@std@@8
rdata$r	SEGMENT DWORD USE32 PUBLIC 'CONST'
rdata$r	ENDS
;	COMDAT ??_R1A@?0A@A@ctype_base@std@@8
rdata$r	SEGMENT DWORD USE32 PUBLIC 'CONST'
rdata$r	ENDS
;	COMDAT ??_R0?AUctype_base@std@@@8
_DATA	SEGMENT DWORD USE32 PUBLIC 'DATA'
_DATA	ENDS
;	COMDAT ??_G?$ctype@_W@std@@MAEPAXI@Z
_TEXT	SEGMENT PARA USE32 PUBLIC 'CODE'
_TEXT	ENDS
;	COMDAT ??_C@_08EPJLHIJG@bad?5cast?$AA@
CONST	SEGMENT DWORD USE32 PUBLIC 'CONST'
CONST	ENDS
;	COMDAT __TI2?AVbad_cast@@
xdata$x	SEGMENT DWORD USE32 PUBLIC 'CONST'
xdata$x	ENDS
;	COMDAT __CTA2?AVbad_cast@@
xdata$x	SEGMENT DWORD USE32 PUBLIC 'CONST'
xdata$x	ENDS
;	COMDAT __CT??_R0?AVbad_cast@@@8??0bad_cast@@QAE@ABV0@@Z12
xdata$x	SEGMENT DWORD USE32 PUBLIC 'CONST'
xdata$x	ENDS
;	COMDAT ??_R0?AVbad_cast@@@8
_DATA	SEGMENT DWORD USE32 PUBLIC 'DATA'
_DATA	ENDS
;	COMDAT __CT??_R0?AVexception@@@8??0exception@@QAE@ABV0@@Z12
xdata$x	SEGMENT DWORD USE32 PUBLIC 'CONST'
xdata$x	ENDS
;	COMDAT ??_R0?AVexception@@@8
_DATA	SEGMENT DWORD USE32 PUBLIC 'DATA'
_DATA	ENDS
;	COMDAT ??$use_facet@V?$ctype@D@std@@@std@@YAABV?$ctype@D@0@ABVlocale@0@@Z
_TEXT	SEGMENT PARA USE32 PUBLIC 'CODE'
_TEXT	ENDS
;	COMDAT ??_S?$ctype@D@std@@6B@
CONST	SEGMENT DWORD USE32 PUBLIC 'CONST'
CONST	ENDS
;	COMDAT ??_R4?$ctype@D@std@@6B@
rdata$r	SEGMENT DWORD USE32 PUBLIC 'CONST'
rdata$r	ENDS
;	COMDAT ??_R0?AV?$ctype@D@std@@@8
_DATA	SEGMENT DWORD USE32 PUBLIC 'DATA'
_DATA	ENDS
;	COMDAT ??_R3?$ctype@D@std@@8
rdata$r	SEGMENT DWORD USE32 PUBLIC 'CONST'
rdata$r	ENDS
;	COMDAT ??_R2?$ctype@D@std@@8
rdata$r	SEGMENT DWORD USE32 PUBLIC 'CONST'
rdata$r	ENDS
;	COMDAT ??_R1A@?0A@A@?$ctype@D@std@@8
rdata$r	SEGMENT DWORD USE32 PUBLIC 'CONST'
rdata$r	ENDS
;	COMDAT ??_G?$ctype@D@std@@MAEPAXI@Z
_TEXT	SEGMENT PARA USE32 PUBLIC 'CODE'
_TEXT	ENDS
;	COMDAT ??_S?$numpunct@_W@std@@6B@
CONST	SEGMENT DWORD USE32 PUBLIC 'CONST'
CONST	ENDS
;	COMDAT ??_S?$numpunct@D@std@@6B@
CONST	SEGMENT DWORD USE32 PUBLIC 'CONST'
CONST	ENDS
;	COMDAT _wmemmove
_TEXT	SEGMENT PARA USE32 PUBLIC 'CODE'
_TEXT	ENDS
;	COMDAT ?deallocate@?$allocator@_W@std@@QAEXPA_WI@Z
_TEXT	SEGMENT PARA USE32 PUBLIC 'CODE'
_TEXT	ENDS
;	COMDAT ??0?$allocator@_W@std@@QAE@ABV01@@Z
_TEXT	SEGMENT PARA USE32 PUBLIC 'CODE'
_TEXT	ENDS
;	COMDAT ?AtlThrow@ATL@@YGXJ@Z
_TEXT	SEGMENT PARA USE32 PUBLIC 'CODE'
_TEXT	ENDS
;	COMDAT ?IsShared@CStringData@ATL@@QBE_NXZ
_TEXT	SEGMENT PARA USE32 PUBLIC 'CODE'
_TEXT	ENDS
;	COMDAT ?data@CStringData@ATL@@QAEPAXXZ
_TEXT	SEGMENT PARA USE32 PUBLIC 'CODE'
_TEXT	ENDS
;	COMDAT ?Release@CStringData@ATL@@QAEXXZ
_TEXT	SEGMENT PARA USE32 PUBLIC 'CODE'
_TEXT	ENDS
;	COMDAT ?bViewInfo@?1??OnViewUpdateInfo@CUpdateTipDlg@@QAEJIJ@Z@4_NA
_DATA	SEGMENT DWORD USE32 PUBLIC 'DATA'
_DATA	ENDS
;	COMDAT ?IsLocked@CStringData@ATL@@QBE_NXZ
_TEXT	SEGMENT PARA USE32 PUBLIC 'CODE'
_TEXT	ENDS
;	COMDAT ?AfxGetApp@@YGPAVCWinApp@@XZ
_TEXT	SEGMENT PARA USE32 PUBLIC 'CODE'
_TEXT	ENDS
;	COMDAT ?LoadCursorA@CWinApp@@QBEPAUHICON__@@I@Z
_TEXT	SEGMENT PARA USE32 PUBLIC 'CODE'
_TEXT	ENDS
;	COMDAT ?MoveWindow@CWnd@@QAEXPBUtagRECT@@H@Z
_TEXT	SEGMENT PARA USE32 PUBLIC 'CODE'
_TEXT	ENDS
;	COMDAT ?EnableMenuItem@CMenu@@QAEIII@Z
_TEXT	SEGMENT PARA USE32 PUBLIC 'CODE'
_TEXT	ENDS
;	COMDAT ?GetSystemMenu@CWnd@@QBEPAVCMenu@@H@Z
_TEXT	SEGMENT PARA USE32 PUBLIC 'CODE'
_TEXT	ENDS
;	COMDAT ?_messageEntries@CUpdateTipDlg@@0QBUAFX_MSGMAP_ENTRY@@B
CONST	SEGMENT DWORD USE32 PUBLIC 'CONST'
CONST	ENDS
;	COMDAT ?messageMap@CUpdateTipDlg@@1UAFX_MSGMAP@@B
CONST	SEGMENT DWORD USE32 PUBLIC 'CONST'
CONST	ENDS
;	COMDAT ?DoDataExchange@CWnd@@MAEXPAVCDataExchange@@@Z
_TEXT	SEGMENT PARA USE32 PUBLIC 'CODE'
_TEXT	ENDS
;	COMDAT ??_7CHyperLinkExpand@@6B@
CONST	SEGMENT DWORD USE32 PUBLIC 'CONST'
CONST	ENDS
;	COMDAT ??3CObject@@SGXPAX@Z
_TEXT	SEGMENT PARA USE32 PUBLIC 'CODE'
_TEXT	ENDS
;	COMDAT ?GetDefaultManager@?$StrTraitMFC_DLL@DV?$ChTraitsCRT@D@ATL@@@@SAPAUIAtlStringMgr@ATL@@XZ
_TEXT	SEGMENT PARA USE32 PUBLIC 'CODE'
_TEXT	ENDS
;	COMDAT ??_7CUpdateTipDlg@@6B@
CONST	SEGMENT DWORD USE32 PUBLIC 'CONST'
CONST	ENDS
;	COMDAT ?classCUpdateTipDlg@CUpdateTipDlg@@2UCRuntimeClass@@B
CONST	SEGMENT DWORD USE32 PUBLIC 'CONST'
CONST	ENDS
;	COMDAT ?GetParent@CWnd@@QBEPAV1@XZ
_TEXT	SEGMENT PARA USE32 PUBLIC 'CODE'
_TEXT	ENDS
;	COMDAT ?GetSafeHwnd@CWnd@@QBEPAUHWND__@@XZ
_TEXT	SEGMENT PARA USE32 PUBLIC 'CODE'
_TEXT	ENDS
;	COMDAT ?ClientToScreen@CWnd@@QBEXPAUtagPOINT@@@Z
_TEXT	SEGMENT PARA USE32 PUBLIC 'CODE'
_TEXT	ENDS
;	COMDAT ??BCRect@@QAEPAUtagRECT@@XZ
_TEXT	SEGMENT PARA USE32 PUBLIC 'CODE'
_TEXT	ENDS
;	COMDAT ?GetWindowRect@CWnd@@QBEXPAUtagRECT@@@Z
_TEXT	SEGMENT PARA USE32 PUBLIC 'CODE'
_TEXT	ENDS
;	COMDAT ??0CRect@@QAE@XZ
_TEXT	SEGMENT PARA USE32 PUBLIC 'CODE'
_TEXT	ENDS
;	COMDAT ?_messageEntries@CHyperLinkExpand@@0QBUAFX_MSGMAP_ENTRY@@B
CONST	SEGMENT DWORD USE32 PUBLIC 'CONST'
CONST	ENDS
;	COMDAT ?messageMap@CHyperLinkExpand@@1UAFX_MSGMAP@@B
CONST	SEGMENT DWORD USE32 PUBLIC 'CONST'
CONST	ENDS
sxdata	SEGMENT DWORD USE32 'SXDATA'
sxdata	ENDS
FLAT	GROUP _DATA, CONST, _BSS
	ASSUME	CS: FLAT, DS: FLAT, SS: FLAT
endif

INCLUDELIB MSVCRT
INCLUDELIB OLDNAMES

PUBLIC	?_messageEntries@CHyperLinkExpand@@0QBUAFX_MSGMAP_ENTRY@@B ; CHyperLinkExpand::_messageEntries
PUBLIC	?messageMap@CHyperLinkExpand@@1UAFX_MSGMAP@@B	; CHyperLinkExpand::messageMap
PUBLIC	?OnLButtonDown@CHyperLinkExpand@@QAEXIVCPoint@@@Z ; CHyperLinkExpand::OnLButtonDown
PUBLIC	?OnLButtonUp@CHyperLinkExpand@@QAEXIVCPoint@@@Z	; CHyperLinkExpand::OnLButtonUp
PUBLIC	?classCUpdateTipDlg@CUpdateTipDlg@@2UCRuntimeClass@@B ; CUpdateTipDlg::classCUpdateTipDlg
PUBLIC	?_messageEntries@CUpdateTipDlg@@0QBUAFX_MSGMAP_ENTRY@@B ; CUpdateTipDlg::_messageEntries
PUBLIC	?messageMap@CUpdateTipDlg@@1UAFX_MSGMAP@@B	; CUpdateTipDlg::messageMap
PUBLIC	?OnViewUpdateInfo@CUpdateTipDlg@@QAEJIJ@Z	; CUpdateTipDlg::OnViewUpdateInfo
EXTRN	?GetThisClass@CDialog@@SGPAUCRuntimeClass@@XZ:NEAR ; CDialog::GetThisClass
EXTRN	?GetThisMessageMap@CDialog@@KGPBUAFX_MSGMAP@@XZ:NEAR ; CDialog::GetThisMessageMap
EXTRN	?GetThisMessageMap@CHyperLink@@KGPBUAFX_MSGMAP@@XZ:NEAR ; CHyperLink::GetThisMessageMap
;	COMDAT ?_messageEntries@CHyperLinkExpand@@0QBUAFX_MSGMAP_ENTRY@@B
CONST	SEGMENT
?_messageEntries@CHyperLinkExpand@@0QBUAFX_MSGMAP_ENTRY@@B DD 0201H ; CHyperLinkExpand::_messageEntries
	DD	00H
	DD	00H
	DD	00H
	DD	032H
	DD	FLAT:?OnLButtonDown@CHyperLinkExpand@@QAEXIVCPoint@@@Z
	DD	0202H
	DD	00H
	DD	00H
	DD	00H
	DD	032H
	DD	FLAT:?OnLButtonUp@CHyperLinkExpand@@QAEXIVCPoint@@@Z
	DD	00H
	DD	00H
	DD	00H
	DD	00H
	DD	00H
	DD	00H
CONST	ENDS
;	COMDAT ?messageMap@CHyperLinkExpand@@1UAFX_MSGMAP@@B
CONST	SEGMENT
?messageMap@CHyperLinkExpand@@1UAFX_MSGMAP@@B DD FLAT:?GetThisMessageMap@CHyperLink@@KGPBUAFX_MSGMAP@@XZ ; CHyperLinkExpand::messageMap
	DD	FLAT:?_messageEntries@CHyperLinkExpand@@0QBUAFX_MSGMAP_ENTRY@@B
CONST	ENDS
CONST	SEGMENT
$SG197540 DB	'CUpdateTipDlg', 00H
CONST	ENDS
;	COMDAT ?classCUpdateTipDlg@CUpdateTipDlg@@2UCRuntimeClass@@B
CONST	SEGMENT
?classCUpdateTipDlg@CUpdateTipDlg@@2UCRuntimeClass@@B DD FLAT:$SG197540 ; CUpdateTipDlg::classCUpdateTipDlg
	DD	0178H
	DD	0ffffH
	DD	00H
	DD	FLAT:?GetThisClass@CDialog@@SGPAUCRuntimeClass@@XZ
	DD	00H
	DD	00H
CONST	ENDS
;	COMDAT ?_messageEntries@CUpdateTipDlg@@0QBUAFX_MSGMAP_ENTRY@@B
CONST	SEGMENT
?_messageEntries@CUpdateTipDlg@@0QBUAFX_MSGMAP_ENTRY@@B DD 02fd9H ; CUpdateTipDlg::_messageEntries
	DD	00H
	DD	00H
	DD	00H
	DD	0eH
	DD	FLAT:?OnViewUpdateInfo@CUpdateTipDlg@@QAEJIJ@Z
	DD	00H
	DD	00H
	DD	00H
	DD	00H
	DD	00H
	DD	00H
CONST	ENDS
;	COMDAT ?messageMap@CUpdateTipDlg@@1UAFX_MSGMAP@@B
CONST	SEGMENT
?messageMap@CUpdateTipDlg@@1UAFX_MSGMAP@@B DD FLAT:?GetThisMessageMap@CDialog@@KGPBUAFX_MSGMAP@@XZ ; CUpdateTipDlg::messageMap
	DD	FLAT:?_messageEntries@CUpdateTipDlg@@0QBUAFX_MSGMAP_ENTRY@@B
CONST	ENDS
CONST	SEGMENT
	ORG $+2
$SG197601 DB	'\res\pic\lhupd.img', 00H
	ORG $+1
$SG197603 DB	'intro', 00H
	ORG $+2
$SG197604 DB	'NewestSoft', 00H
	ORG $+1
$SG197605 DB	0dH, 0aH, 00H
	ORG $+1
$SG197606 DB	'||', 00H
CONST	ENDS
PUBLIC	?GetThisMessageMap@CHyperLinkExpand@@KGPBUAFX_MSGMAP@@XZ ; CHyperLinkExpand::GetThisMessageMap
; Function compile flags: /Odt
; File d:\boxgit\playbox\playbox\dev\prj\playbox\updatetipdlg.cpp
_TEXT	SEGMENT
?GetThisMessageMap@CHyperLinkExpand@@KGPBUAFX_MSGMAP@@XZ PROC NEAR ; CHyperLinkExpand::GetThisMessageMap

; 9    : BEGIN_MESSAGE_MAP( CHyperLinkExpand, CHyperLink )

  00000	55		 push	 ebp
  00001	8b ec		 mov	 ebp, esp
  00003	b8 00 00 00 00	 mov	 eax, OFFSET FLAT:?messageMap@CHyperLinkExpand@@1UAFX_MSGMAP@@B ; CHyperLinkExpand::messageMap
  00008	5d		 pop	 ebp
  00009	c3		 ret	 0
?GetThisMessageMap@CHyperLinkExpand@@KGPBUAFX_MSGMAP@@XZ ENDP ; CHyperLinkExpand::GetThisMessageMap
_TEXT	ENDS
PUBLIC	?GetMessageMap@CHyperLinkExpand@@MBEPBUAFX_MSGMAP@@XZ ; CHyperLinkExpand::GetMessageMap
; Function compile flags: /Odt
_TEXT	SEGMENT
_this$ = -4						; size = 4
?GetMessageMap@CHyperLinkExpand@@MBEPBUAFX_MSGMAP@@XZ PROC NEAR ; CHyperLinkExpand::GetMessageMap
; _this$ = ecx

; 9    : BEGIN_MESSAGE_MAP( CHyperLinkExpand, CHyperLink )

  00010	55		 push	 ebp
  00011	8b ec		 mov	 ebp, esp
  00013	51		 push	 ecx
  00014	89 4d fc	 mov	 DWORD PTR _this$[ebp], ecx
  00017	b8 00 00 00 00	 mov	 eax, OFFSET FLAT:?messageMap@CHyperLinkExpand@@1UAFX_MSGMAP@@B ; CHyperLinkExpand::messageMap
  0001c	8b e5		 mov	 esp, ebp
  0001e	5d		 pop	 ebp
  0001f	c3		 ret	 0
?GetMessageMap@CHyperLinkExpand@@MBEPBUAFX_MSGMAP@@XZ ENDP ; CHyperLinkExpand::GetMessageMap
; Function compile flags: /Odt
_this$ = -4						; size = 4
_nFlags$ = 8						; size = 4
_point$ = 12						; size = 8
?OnLButtonDown@CHyperLinkExpand@@QAEXIVCPoint@@@Z PROC NEAR ; CHyperLinkExpand::OnLButtonDown
; _this$ = ecx

; 15   : {

  00020	55		 push	 ebp
  00021	8b ec		 mov	 ebp, esp
  00023	51		 push	 ecx
  00024	89 4d fc	 mov	 DWORD PTR _this$[ebp], ecx

; 16   : 
; 17   : }

  00027	8b e5		 mov	 esp, ebp
  00029	5d		 pop	 ebp
  0002a	c2 0c 00	 ret	 12			; 0000000cH
?OnLButtonDown@CHyperLinkExpand@@QAEXIVCPoint@@@Z ENDP	; CHyperLinkExpand::OnLButtonDown
_TEXT	ENDS
PUBLIC	?GetWindowRect@CWnd@@QBEXPAUtagRECT@@@Z		; CWnd::GetWindowRect
PUBLIC	?ClientToScreen@CWnd@@QBEXPAUtagPOINT@@@Z	; CWnd::ClientToScreen
PUBLIC	??0CRect@@QAE@XZ				; CRect::CRect
PUBLIC	??BCRect@@QAEPAUtagRECT@@XZ			; CRect::operator tagRECT *
PUBLIC	?GetParent@CWnd@@QBEPAV1@XZ			; CWnd::GetParent
PUBLIC	?GetSafeHwnd@CWnd@@QBEPAUHWND__@@XZ		; CWnd::GetSafeHwnd
EXTRN	__imp__PostMessageA@16:NEAR
EXTRN	__imp__PtInRect@12:NEAR
; Function compile flags: /Odt
_TEXT	SEGMENT
_this$ = -28						; size = 4
$T198155 = -24						; size = 8
_rect$ = -16						; size = 16
_nFlags$ = 8						; size = 4
_point$ = 12						; size = 8
?OnLButtonUp@CHyperLinkExpand@@QAEXIVCPoint@@@Z PROC NEAR ; CHyperLinkExpand::OnLButtonUp
; _this$ = ecx

; 20   : {

  00030	55		 push	 ebp
  00031	8b ec		 mov	 ebp, esp
  00033	83 ec 1c	 sub	 esp, 28			; 0000001cH
  00036	89 4d e4	 mov	 DWORD PTR _this$[ebp], ecx

; 21   : 	CRect rect;

  00039	8d 4d f0	 lea	 ecx, DWORD PTR _rect$[ebp]
  0003c	e8 00 00 00 00	 call	 ??0CRect@@QAE@XZ	; CRect::CRect

; 22   : 	GetWindowRect(rect);

  00041	8d 4d f0	 lea	 ecx, DWORD PTR _rect$[ebp]
  00044	e8 00 00 00 00	 call	 ??BCRect@@QAEPAUtagRECT@@XZ ; CRect::operator tagRECT *
  00049	50		 push	 eax
  0004a	8b 4d e4	 mov	 ecx, DWORD PTR _this$[ebp]
  0004d	e8 00 00 00 00	 call	 ?GetWindowRect@CWnd@@QBEXPAUtagRECT@@@Z ; CWnd::GetWindowRect

; 23   : 	ClientToScreen(&point);

  00052	8d 45 0c	 lea	 eax, DWORD PTR _point$[ebp]
  00055	50		 push	 eax
  00056	8b 4d e4	 mov	 ecx, DWORD PTR _this$[ebp]
  00059	e8 00 00 00 00	 call	 ?ClientToScreen@CWnd@@QBEXPAUtagPOINT@@@Z ; CWnd::ClientToScreen

; 24   : 	if (PtInRect(rect, point))	// If the mouse is over us follow the link.

  0005e	8b 4d 0c	 mov	 ecx, DWORD PTR _point$[ebp]
  00061	89 4d e8	 mov	 DWORD PTR $T198155[ebp], ecx
  00064	8b 55 10	 mov	 edx, DWORD PTR _point$[ebp+4]
  00067	89 55 ec	 mov	 DWORD PTR $T198155[ebp+4], edx
  0006a	8b 45 ec	 mov	 eax, DWORD PTR $T198155[ebp+4]
  0006d	50		 push	 eax
  0006e	8b 4d e8	 mov	 ecx, DWORD PTR $T198155[ebp]
  00071	51		 push	 ecx
  00072	8d 4d f0	 lea	 ecx, DWORD PTR _rect$[ebp]
  00075	e8 00 00 00 00	 call	 ??BCRect@@QAEPAUtagRECT@@XZ ; CRect::operator tagRECT *
  0007a	50		 push	 eax
  0007b	ff 15 00 00 00
	00		 call	 DWORD PTR __imp__PtInRect@12
  00081	85 c0		 test	 eax, eax
  00083	74 1f		 je	 SHORT $L197536

; 25   : 	{
; 26   : 		::PostMessage(GetParent()->GetSafeHwnd(),WM_VIEW_UPDATE_INFO,0,0);

  00085	6a 00		 push	 0
  00087	6a 00		 push	 0
  00089	68 d9 2f 00 00	 push	 12249			; 00002fd9H
  0008e	8b 4d e4	 mov	 ecx, DWORD PTR _this$[ebp]
  00091	e8 00 00 00 00	 call	 ?GetParent@CWnd@@QBEPAV1@XZ ; CWnd::GetParent
  00096	8b c8		 mov	 ecx, eax
  00098	e8 00 00 00 00	 call	 ?GetSafeHwnd@CWnd@@QBEPAUHWND__@@XZ ; CWnd::GetSafeHwnd
  0009d	50		 push	 eax
  0009e	ff 15 00 00 00
	00		 call	 DWORD PTR __imp__PostMessageA@16
$L197536:

; 27   : 	}
; 28   : }

  000a4	8b e5		 mov	 esp, ebp
  000a6	5d		 pop	 ebp
  000a7	c2 0c 00	 ret	 12			; 0000000cH
?OnLButtonUp@CHyperLinkExpand@@QAEXIVCPoint@@@Z ENDP	; CHyperLinkExpand::OnLButtonUp
_TEXT	ENDS
PUBLIC	?GetThisClass@CUpdateTipDlg@@SGPAUCRuntimeClass@@XZ ; CUpdateTipDlg::GetThisClass
; Function compile flags: /Odt
_TEXT	SEGMENT
?GetThisClass@CUpdateTipDlg@@SGPAUCRuntimeClass@@XZ PROC NEAR ; CUpdateTipDlg::GetThisClass

; 30   : IMPLEMENT_DYNAMIC(CUpdateTipDlg, CDialog)

  000b0	55		 push	 ebp
  000b1	8b ec		 mov	 ebp, esp
  000b3	b8 00 00 00 00	 mov	 eax, OFFSET FLAT:?classCUpdateTipDlg@CUpdateTipDlg@@2UCRuntimeClass@@B ; CUpdateTipDlg::classCUpdateTipDlg
  000b8	5d		 pop	 ebp
  000b9	c3		 ret	 0
?GetThisClass@CUpdateTipDlg@@SGPAUCRuntimeClass@@XZ ENDP ; CUpdateTipDlg::GetThisClass
_TEXT	ENDS
PUBLIC	?GetRuntimeClass@CUpdateTipDlg@@UBEPAUCRuntimeClass@@XZ ; CUpdateTipDlg::GetRuntimeClass
; Function compile flags: /Odt
_TEXT	SEGMENT
_this$ = -4						; size = 4
?GetRuntimeClass@CUpdateTipDlg@@UBEPAUCRuntimeClass@@XZ PROC NEAR ; CUpdateTipDlg::GetRuntimeClass
; _this$ = ecx

; 30   : IMPLEMENT_DYNAMIC(CUpdateTipDlg, CDialog)

  000c0	55		 push	 ebp
  000c1	8b ec		 mov	 ebp, esp
  000c3	51		 push	 ecx
  000c4	89 4d fc	 mov	 DWORD PTR _this$[ebp], ecx
  000c7	b8 00 00 00 00	 mov	 eax, OFFSET FLAT:?classCUpdateTipDlg@CUpdateTipDlg@@2UCRuntimeClass@@B ; CUpdateTipDlg::classCUpdateTipDlg
  000cc	8b e5		 mov	 esp, ebp
  000ce	5d		 pop	 ebp
  000cf	c3		 ret	 0
?GetRuntimeClass@CUpdateTipDlg@@UBEPAUCRuntimeClass@@XZ ENDP ; CUpdateTipDlg::GetRuntimeClass
_TEXT	ENDS
PUBLIC	?Create@CDialog@@UAEHIPAVCWnd@@@Z		; CDialog::Create
PUBLIC	??_R4CUpdateTipDlg@@6B@				; CUpdateTipDlg::`RTTI Complete Object Locator'
PUBLIC	??_R0?AVCUpdateTipDlg@@@8			; CUpdateTipDlg `RTTI Type Descriptor'
PUBLIC	??_R3CUpdateTipDlg@@8				; CUpdateTipDlg::`RTTI Class Hierarchy Descriptor'
PUBLIC	??_R2CUpdateTipDlg@@8				; CUpdateTipDlg::`RTTI Base Class Array'
PUBLIC	??_R1A@?0A@A@CUpdateTipDlg@@8			; CUpdateTipDlg::`RTTI Base Class Descriptor at (0,-1,0,0)'
PUBLIC	??_R1A@?0A@A@CObject@@8				; CObject::`RTTI Base Class Descriptor at (0,-1,0,0)'
PUBLIC	??_R0?AVCObject@@@8				; CObject `RTTI Type Descriptor'
PUBLIC	??_R1A@?0A@A@CWnd@@8				; CWnd::`RTTI Base Class Descriptor at (0,-1,0,0)'
PUBLIC	??_R0?AVCWnd@@@8				; CWnd `RTTI Type Descriptor'
PUBLIC	??_R1A@?0A@A@CCmdTarget@@8			; CCmdTarget::`RTTI Base Class Descriptor at (0,-1,0,0)'
PUBLIC	??_R0?AVCCmdTarget@@@8				; CCmdTarget `RTTI Type Descriptor'
PUBLIC	??_R1A@?0A@A@CDialog@@8				; CDialog::`RTTI Base Class Descriptor at (0,-1,0,0)'
PUBLIC	??_R0?AVCDialog@@@8				; CDialog `RTTI Type Descriptor'
PUBLIC	?Serialize@CObject@@UAEXAAVCArchive@@@Z		; CObject::Serialize
PUBLIC	?AssertValid@CObject@@UBEXXZ			; CObject::AssertValid
PUBLIC	?Dump@CObject@@UBEXAAVCDumpContext@@@Z		; CObject::Dump
PUBLIC	??0CHyperLinkExpand@@QAE@XZ			; CHyperLinkExpand::CHyperLinkExpand
PUBLIC	??0CUpdateTipDlg@@QAE@PAVCWnd@@@Z		; CUpdateTipDlg::CUpdateTipDlg
PUBLIC	?DoDataExchange@CUpdateTipDlg@@MAEXPAVCDataExchange@@@Z ; CUpdateTipDlg::DoDataExchange
PUBLIC	?GetMessageMap@CUpdateTipDlg@@MBEPBUAFX_MSGMAP@@XZ ; CUpdateTipDlg::GetMessageMap
PUBLIC	?OnInitDialog@CUpdateTipDlg@@UAEHXZ		; CUpdateTipDlg::OnInitDialog
PUBLIC	??_7CUpdateTipDlg@@6B@				; CUpdateTipDlg::`vftable'
PUBLIC	??_GCUpdateTipDlg@@UAEPAXI@Z			; CUpdateTipDlg::`scalar deleting destructor'
PUBLIC	?BeginModalState@CWnd@@UAEXXZ			; CWnd::BeginModalState
PUBLIC	?EndModalState@CWnd@@UAEXXZ			; CWnd::EndModalState
EXTRN	?CreateControlContainer@CWnd@@MAEHPAPAVCOleControlContainer@@@Z:NEAR ; CWnd::CreateControlContainer
EXTRN	?CreateControlSite@CWnd@@MAEHPAVCOleControlContainer@@PAPAVCOleControlSite@@IABU_GUID@@@Z:NEAR ; CWnd::CreateControlSite
EXTRN	?Create@CDialog@@UAEHPBDPAVCWnd@@@Z:NEAR	; CDialog::Create
EXTRN	?CreateIndirect@CDialog@@UAEHPBUDLGTEMPLATE@@PAVCWnd@@PAX@Z:NEAR ; CDialog::CreateIndirect
EXTRN	?CreateIndirect@CDialog@@UAEHPAXPAVCWnd@@@Z:NEAR ; CDialog::CreateIndirect
EXTRN	?OnToolHitTest@CWnd@@UBEHVCPoint@@PAUtagTOOLINFOA@@@Z:NEAR ; CWnd::OnToolHitTest
EXTRN	??0CDialog@@QAE@IPAVCWnd@@@Z:NEAR		; CDialog::CDialog
EXTRN	?DoModal@CDialog@@UAEHXZ:NEAR			; CDialog::DoModal
EXTRN	?OnSetFont@CDialog@@UAEXPAVCFont@@@Z:NEAR	; CDialog::OnSetFont
EXTRN	?OnOK@CDialog@@MAEXXZ:NEAR			; CDialog::OnOK
EXTRN	?OnCancel@CDialog@@MAEXXZ:NEAR			; CDialog::OnCancel
EXTRN	??1CDialog@@UAE@XZ:NEAR				; CDialog::~CDialog
EXTRN	?PreTranslateMessage@CDialog@@UAEHPAUtagMSG@@@Z:NEAR ; CDialog::PreTranslateMessage
EXTRN	?OnCmdMsg@CDialog@@UAEHIHPAXPAUAFX_CMDHANDLERINFO@@@Z:NEAR ; CDialog::OnCmdMsg
EXTRN	?CheckAutoCenter@CDialog@@UAEHXZ:NEAR		; CDialog::CheckAutoCenter
EXTRN	?SetOccDialogInfo@CDialog@@MAEHPAU_AFX_OCC_DIALOG_INFO@@@Z:NEAR ; CDialog::SetOccDialogInfo
EXTRN	?PreInitDialog@CDialog@@MAEXXZ:NEAR		; CDialog::PreInitDialog
EXTRN	__imp_??0?$CStringT@DV?$StrTraitMFC_DLL@DV?$ChTraitsCRT@D@ATL@@@@@ATL@@QAE@XZ:NEAR
EXTRN	?GetScrollBarCtrl@CWnd@@UBEPAVCScrollBar@@H@Z:NEAR ; CWnd::GetScrollBarCtrl
EXTRN	__imp_??1?$CStringT@DV?$StrTraitMFC_DLL@DV?$ChTraitsCRT@D@ATL@@@@@ATL@@QAE@XZ:NEAR
EXTRN	?WinHelpA@CWnd@@UAEXKI@Z:NEAR			; CWnd::WinHelpA
EXTRN	?HtmlHelpA@CWnd@@UAEXKI@Z:NEAR			; CWnd::HtmlHelpA
EXTRN	?WinHelpInternal@CWnd@@UAEXKI@Z:NEAR		; CWnd::WinHelpInternal
EXTRN	?ContinueModal@CWnd@@UAEHXZ:NEAR		; CWnd::ContinueModal
EXTRN	?EndModalLoop@CWnd@@UAEXH@Z:NEAR		; CWnd::EndModalLoop
EXTRN	?GetInterfaceMap@CWnd@@MBEPBUAFX_INTERFACEMAP@@XZ:NEAR ; CWnd::GetInterfaceMap
EXTRN	__except_list:DWORD
EXTRN	?EnsureStdObj@CWnd@@UAEJXZ:NEAR			; CWnd::EnsureStdObj
EXTRN	___CxxFrameHandler:NEAR
EXTRN	?get_accParent@CWnd@@UAEJPAPAUIDispatch@@@Z:NEAR ; CWnd::get_accParent
EXTRN	?get_accChildCount@CWnd@@UAEJPAJ@Z:NEAR		; CWnd::get_accChildCount
EXTRN	?get_accChild@CWnd@@UAEJUtagVARIANT@@PAPAUIDispatch@@@Z:NEAR ; CWnd::get_accChild
EXTRN	?IsInvokeAllowed@CCmdTarget@@UAEHJ@Z:NEAR	; CCmdTarget::IsInvokeAllowed
EXTRN	?get_accName@CWnd@@UAEJUtagVARIANT@@PAPA_W@Z:NEAR ; CWnd::get_accName
EXTRN	?get_accValue@CWnd@@UAEJUtagVARIANT@@PAPA_W@Z:NEAR ; CWnd::get_accValue
EXTRN	?get_accDescription@CWnd@@UAEJUtagVARIANT@@PAPA_W@Z:NEAR ; CWnd::get_accDescription
EXTRN	?GetDispatchIID@CCmdTarget@@UAEHPAU_GUID@@@Z:NEAR ; CCmdTarget::GetDispatchIID
EXTRN	?GetTypeInfoCount@CCmdTarget@@UAEIXZ:NEAR	; CCmdTarget::GetTypeInfoCount
EXTRN	?GetTypeLibCache@CCmdTarget@@UAEPAVCTypeLibCache@@XZ:NEAR ; CCmdTarget::GetTypeLibCache
EXTRN	?get_accRole@CWnd@@UAEJUtagVARIANT@@PAU2@@Z:NEAR ; CWnd::get_accRole
EXTRN	?GetTypeLib@CCmdTarget@@UAEJKPAPAUITypeLib@@@Z:NEAR ; CCmdTarget::GetTypeLib
EXTRN	?get_accState@CWnd@@UAEJUtagVARIANT@@PAU2@@Z:NEAR ; CWnd::get_accState
EXTRN	?get_accHelp@CWnd@@UAEJUtagVARIANT@@PAPA_W@Z:NEAR ; CWnd::get_accHelp
EXTRN	?get_accHelpTopic@CWnd@@UAEJPAPA_WUtagVARIANT@@PAJ@Z:NEAR ; CWnd::get_accHelpTopic
EXTRN	?get_accKeyboardShortcut@CWnd@@UAEJUtagVARIANT@@PAPA_W@Z:NEAR ; CWnd::get_accKeyboardShortcut
EXTRN	?get_accFocus@CWnd@@UAEJPAUtagVARIANT@@@Z:NEAR	; CWnd::get_accFocus
EXTRN	?get_accSelection@CWnd@@UAEJPAUtagVARIANT@@@Z:NEAR ; CWnd::get_accSelection
EXTRN	?get_accDefaultAction@CWnd@@UAEJUtagVARIANT@@PAPA_W@Z:NEAR ; CWnd::get_accDefaultAction
EXTRN	?GetCommandMap@CCmdTarget@@MBEPBUAFX_OLECMDMAP@@XZ:NEAR ; CCmdTarget::GetCommandMap
EXTRN	?accSelect@CWnd@@UAEJJUtagVARIANT@@@Z:NEAR	; CWnd::accSelect
EXTRN	?accLocation@CWnd@@UAEJPAJ000UtagVARIANT@@@Z:NEAR ; CWnd::accLocation
EXTRN	?GetDispatchMap@CCmdTarget@@MBEPBUAFX_DISPMAP@@XZ:NEAR ; CCmdTarget::GetDispatchMap
EXTRN	?accNavigate@CWnd@@UAEJJUtagVARIANT@@PAU2@@Z:NEAR ; CWnd::accNavigate
EXTRN	?accHitTest@CWnd@@UAEJJJPAUtagVARIANT@@@Z:NEAR	; CWnd::accHitTest
EXTRN	?GetConnectionMap@CCmdTarget@@MBEPBUAFX_CONNECTIONMAP@@XZ:NEAR ; CCmdTarget::GetConnectionMap
EXTRN	?accDoDefaultAction@CWnd@@UAEJUtagVARIANT@@@Z:NEAR ; CWnd::accDoDefaultAction
EXTRN	?put_accName@CWnd@@UAEJUtagVARIANT@@PA_W@Z:NEAR	; CWnd::put_accName
EXTRN	?put_accValue@CWnd@@UAEJUtagVARIANT@@PA_W@Z:NEAR ; CWnd::put_accValue
EXTRN	?SetProxy@CWnd@@UAEJPAUIAccessibleProxy@@@Z:NEAR ; CWnd::SetProxy
EXTRN	?CreateAccessibleProxy@CWnd@@UAEJIJPAJ@Z:NEAR	; CWnd::CreateAccessibleProxy
EXTRN	?GetEventSinkMap@CCmdTarget@@MBEPBUAFX_EVENTSINKMAP@@XZ:NEAR ; CCmdTarget::GetEventSinkMap
EXTRN	?OnCreateAggregates@CCmdTarget@@UAEHXZ:NEAR	; CCmdTarget::OnCreateAggregates
EXTRN	?OnCommand@CWnd@@MAEHIJ@Z:NEAR			; CWnd::OnCommand
EXTRN	?GetInterfaceHook@CCmdTarget@@UAEPAUIUnknown@@PBX@Z:NEAR ; CCmdTarget::GetInterfaceHook
EXTRN	?OnNotify@CWnd@@MAEHIJPAJ@Z:NEAR		; CWnd::OnNotify
EXTRN	?GetExtraConnectionPoints@CCmdTarget@@MAEHPAVCPtrArray@@@Z:NEAR ; CCmdTarget::GetExtraConnectionPoints
EXTRN	?GetConnectionHook@CCmdTarget@@MAEPAUIConnectionPoint@@ABU_GUID@@@Z:NEAR ; CCmdTarget::GetConnectionHook
EXTRN	?PreSubclassWindow@CWnd@@UAEXXZ:NEAR		; CWnd::PreSubclassWindow
EXTRN	?Create@CWnd@@UAEHPBD0KABUtagRECT@@PAV1@IPAUCCreateContext@@@Z:NEAR ; CWnd::Create
EXTRN	?CreateEx@CWnd@@UAEHKPBD0KHHHHPAUHWND__@@PAUHMENU__@@PAX@Z:NEAR ; CWnd::CreateEx
EXTRN	?CreateEx@CWnd@@UAEHKPBD0KABUtagRECT@@PAV1@IPAX@Z:NEAR ; CWnd::CreateEx
EXTRN	??_ECUpdateTipDlg@@UAEPAXI@Z:NEAR		; CUpdateTipDlg::`vector deleting destructor'
EXTRN	?DestroyWindow@CWnd@@UAEHXZ:NEAR		; CWnd::DestroyWindow
EXTRN	?PreCreateWindow@CWnd@@UAEHAAUtagCREATESTRUCTA@@@Z:NEAR ; CWnd::PreCreateWindow
EXTRN	?CalcWindowRect@CWnd@@UAEXPAUtagRECT@@I@Z:NEAR	; CWnd::CalcWindowRect
EXTRN	?GetSuperWndProcAddr@CWnd@@MAEPAP6GJPAUHWND__@@IIJ@ZXZ:NEAR ; CWnd::GetSuperWndProcAddr
EXTRN	??_7type_info@@6B@:QWORD			; type_info::`vftable'
EXTRN	?OnAmbientProperty@CWnd@@UAEHPAVCOleControlSite@@JPAUtagVARIANT@@@Z:NEAR ; CWnd::OnAmbientProperty
EXTRN	?WindowProc@CWnd@@MAEJIIJ@Z:NEAR		; CWnd::WindowProc
EXTRN	?OnWndMsg@CWnd@@MAEHIIJPAJ@Z:NEAR		; CWnd::OnWndMsg
EXTRN	?DefWindowProcA@CWnd@@MAEJIIJ@Z:NEAR		; CWnd::DefWindowProcA
EXTRN	?PostNcDestroy@CWnd@@MAEXXZ:NEAR		; CWnd::PostNcDestroy
EXTRN	?OnChildNotify@CWnd@@MAEHIIJPAJ@Z:NEAR		; CWnd::OnChildNotify
EXTRN	?IsFrameWnd@CWnd@@UBEHXZ:NEAR			; CWnd::IsFrameWnd
EXTRN	?OnFinalRelease@CWnd@@UAEXXZ:NEAR		; CWnd::OnFinalRelease
xdata$x	SEGMENT
$T198168 DD	0ffffffffH
	DD	FLAT:$L198159
	DD	00H
	DD	FLAT:$L198160
$T198165 DD	019930520H
	DD	02H
	DD	FLAT:$T198168
	DD	2 DUP(00H)
	DD	2 DUP(00H)
xdata$x	ENDS
;	COMDAT ??_7CUpdateTipDlg@@6B@
CONST	SEGMENT
??_7CUpdateTipDlg@@6B@ DD FLAT:??_R4CUpdateTipDlg@@6B@	; CUpdateTipDlg::`vftable'
	DD	FLAT:?GetRuntimeClass@CUpdateTipDlg@@UBEPAUCRuntimeClass@@XZ
	DD	FLAT:??_ECUpdateTipDlg@@UAEPAXI@Z
	DD	FLAT:?Serialize@CObject@@UAEXAAVCArchive@@@Z
	DD	FLAT:?AssertValid@CObject@@UBEXXZ
	DD	FLAT:?Dump@CObject@@UBEXAAVCDumpContext@@@Z
	DD	FLAT:?OnCmdMsg@CDialog@@UAEHIHPAXPAUAFX_CMDHANDLERINFO@@@Z
	DD	FLAT:?OnFinalRelease@CWnd@@UAEXXZ
	DD	FLAT:?IsInvokeAllowed@CCmdTarget@@UAEHJ@Z
	DD	FLAT:?GetDispatchIID@CCmdTarget@@UAEHPAU_GUID@@@Z
	DD	FLAT:?GetTypeInfoCount@CCmdTarget@@UAEIXZ
	DD	FLAT:?GetTypeLibCache@CCmdTarget@@UAEPAVCTypeLibCache@@XZ
	DD	FLAT:?GetTypeLib@CCmdTarget@@UAEJKPAPAUITypeLib@@@Z
	DD	FLAT:?GetMessageMap@CUpdateTipDlg@@MBEPBUAFX_MSGMAP@@XZ
	DD	FLAT:?GetCommandMap@CCmdTarget@@MBEPBUAFX_OLECMDMAP@@XZ
	DD	FLAT:?GetDispatchMap@CCmdTarget@@MBEPBUAFX_DISPMAP@@XZ
	DD	FLAT:?GetConnectionMap@CCmdTarget@@MBEPBUAFX_CONNECTIONMAP@@XZ
	DD	FLAT:?GetInterfaceMap@CWnd@@MBEPBUAFX_INTERFACEMAP@@XZ
	DD	FLAT:?GetEventSinkMap@CCmdTarget@@MBEPBUAFX_EVENTSINKMAP@@XZ
	DD	FLAT:?OnCreateAggregates@CCmdTarget@@UAEHXZ
	DD	FLAT:?GetInterfaceHook@CCmdTarget@@UAEPAUIUnknown@@PBX@Z
	DD	FLAT:?GetExtraConnectionPoints@CCmdTarget@@MAEHPAVCPtrArray@@@Z
	DD	FLAT:?GetConnectionHook@CCmdTarget@@MAEPAUIConnectionPoint@@ABU_GUID@@@Z
	DD	FLAT:?PreSubclassWindow@CWnd@@UAEXXZ
	DD	FLAT:?Create@CWnd@@UAEHPBD0KABUtagRECT@@PAV1@IPAUCCreateContext@@@Z
	DD	FLAT:?CreateEx@CWnd@@UAEHKPBD0KABUtagRECT@@PAV1@IPAX@Z
	DD	FLAT:?CreateEx@CWnd@@UAEHKPBD0KHHHHPAUHWND__@@PAUHMENU__@@PAX@Z
	DD	FLAT:?DestroyWindow@CWnd@@UAEHXZ
	DD	FLAT:?PreCreateWindow@CWnd@@UAEHAAUtagCREATESTRUCTA@@@Z
	DD	FLAT:?CalcWindowRect@CWnd@@UAEXPAUtagRECT@@I@Z
	DD	FLAT:?OnToolHitTest@CWnd@@UBEHVCPoint@@PAUtagTOOLINFOA@@@Z
	DD	FLAT:?GetScrollBarCtrl@CWnd@@UBEPAVCScrollBar@@H@Z
	DD	FLAT:?WinHelpA@CWnd@@UAEXKI@Z
	DD	FLAT:?HtmlHelpA@CWnd@@UAEXKI@Z
	DD	FLAT:?WinHelpInternal@CWnd@@UAEXKI@Z
	DD	FLAT:?ContinueModal@CWnd@@UAEHXZ
	DD	FLAT:?EndModalLoop@CWnd@@UAEXH@Z
	DD	FLAT:?EnsureStdObj@CWnd@@UAEJXZ
	DD	FLAT:?get_accParent@CWnd@@UAEJPAPAUIDispatch@@@Z
	DD	FLAT:?get_accChildCount@CWnd@@UAEJPAJ@Z
	DD	FLAT:?get_accChild@CWnd@@UAEJUtagVARIANT@@PAPAUIDispatch@@@Z
	DD	FLAT:?get_accName@CWnd@@UAEJUtagVARIANT@@PAPA_W@Z
	DD	FLAT:?get_accValue@CWnd@@UAEJUtagVARIANT@@PAPA_W@Z
	DD	FLAT:?get_accDescription@CWnd@@UAEJUtagVARIANT@@PAPA_W@Z
	DD	FLAT:?get_accRole@CWnd@@UAEJUtagVARIANT@@PAU2@@Z
	DD	FLAT:?get_accState@CWnd@@UAEJUtagVARIANT@@PAU2@@Z
	DD	FLAT:?get_accHelp@CWnd@@UAEJUtagVARIANT@@PAPA_W@Z
	DD	FLAT:?get_accHelpTopic@CWnd@@UAEJPAPA_WUtagVARIANT@@PAJ@Z
	DD	FLAT:?get_accKeyboardShortcut@CWnd@@UAEJUtagVARIANT@@PAPA_W@Z
	DD	FLAT:?get_accFocus@CWnd@@UAEJPAUtagVARIANT@@@Z
	DD	FLAT:?get_accSelection@CWnd@@UAEJPAUtagVARIANT@@@Z
	DD	FLAT:?get_accDefaultAction@CWnd@@UAEJUtagVARIANT@@PAPA_W@Z
	DD	FLAT:?accSelect@CWnd@@UAEJJUtagVARIANT@@@Z
	DD	FLAT:?accLocation@CWnd@@UAEJPAJ000UtagVARIANT@@@Z
	DD	FLAT:?accNavigate@CWnd@@UAEJJUtagVARIANT@@PAU2@@Z
	DD	FLAT:?accHitTest@CWnd@@UAEJJJPAUtagVARIANT@@@Z
	DD	FLAT:?accDoDefaultAction@CWnd@@UAEJUtagVARIANT@@@Z
	DD	FLAT:?put_accName@CWnd@@UAEJUtagVARIANT@@PA_W@Z
	DD	FLAT:?put_accValue@CWnd@@UAEJUtagVARIANT@@PA_W@Z
	DD	FLAT:?SetProxy@CWnd@@UAEJPAUIAccessibleProxy@@@Z
	DD	FLAT:?CreateAccessibleProxy@CWnd@@UAEJIJPAJ@Z
	DD	FLAT:?OnCommand@CWnd@@MAEHIJ@Z
	DD	FLAT:?OnNotify@CWnd@@MAEHIJPAJ@Z
	DD	FLAT:?GetSuperWndProcAddr@CWnd@@MAEPAP6GJPAUHWND__@@IIJ@ZXZ
	DD	FLAT:?DoDataExchange@CUpdateTipDlg@@MAEXPAVCDataExchange@@@Z
	DD	FLAT:?BeginModalState@CWnd@@UAEXXZ
	DD	FLAT:?EndModalState@CWnd@@UAEXXZ
	DD	FLAT:?PreTranslateMessage@CDialog@@UAEHPAUtagMSG@@@Z
	DD	FLAT:?OnAmbientProperty@CWnd@@UAEHPAVCOleControlSite@@JPAUtagVARIANT@@@Z
	DD	FLAT:?WindowProc@CWnd@@MAEJIIJ@Z
	DD	FLAT:?OnWndMsg@CWnd@@MAEHIIJPAJ@Z
	DD	FLAT:?DefWindowProcA@CWnd@@MAEJIIJ@Z
	DD	FLAT:?PostNcDestroy@CWnd@@MAEXXZ
	DD	FLAT:?OnChildNotify@CWnd@@MAEHIIJPAJ@Z
	DD	FLAT:?CheckAutoCenter@CDialog@@UAEHXZ
	DD	FLAT:?IsFrameWnd@CWnd@@UBEHXZ
	DD	FLAT:?CreateControlContainer@CWnd@@MAEHPAPAVCOleControlContainer@@@Z
	DD	FLAT:?CreateControlSite@CWnd@@MAEHPAVCOleControlContainer@@PAPAVCOleControlSite@@IABU_GUID@@@Z
	DD	FLAT:?SetOccDialogInfo@CDialog@@MAEHPAU_AFX_OCC_DIALOG_INFO@@@Z
	DD	FLAT:?Create@CDialog@@UAEHIPAVCWnd@@@Z
	DD	FLAT:?Create@CDialog@@UAEHPBDPAVCWnd@@@Z
	DD	FLAT:?CreateIndirect@CDialog@@UAEHPAXPAVCWnd@@@Z
	DD	FLAT:?CreateIndirect@CDialog@@UAEHPBUDLGTEMPLATE@@PAVCWnd@@PAX@Z
	DD	FLAT:?DoModal@CDialog@@UAEHXZ
	DD	FLAT:?OnInitDialog@CUpdateTipDlg@@UAEHXZ
	DD	FLAT:?OnSetFont@CDialog@@UAEXPAVCFont@@@Z
	DD	FLAT:?OnOK@CDialog@@MAEXXZ
	DD	FLAT:?OnCancel@CDialog@@MAEXXZ
	DD	FLAT:?PreInitDialog@CDialog@@MAEXXZ
CONST	ENDS
;	COMDAT ??_R4CUpdateTipDlg@@6B@
rdata$r	SEGMENT
??_R4CUpdateTipDlg@@6B@ DD 00H				; CUpdateTipDlg::`RTTI Complete Object Locator'
	DD	00H
	DD	00H
	DD	FLAT:??_R0?AVCUpdateTipDlg@@@8
	DD	FLAT:??_R3CUpdateTipDlg@@8
rdata$r	ENDS
;	COMDAT ??_R0?AVCUpdateTipDlg@@@8
_DATA	SEGMENT
??_R0?AVCUpdateTipDlg@@@8 DD FLAT:??_7type_info@@6B@	; CUpdateTipDlg `RTTI Type Descriptor'
	DD	00H
	DB	'.?AVCUpdateTipDlg@@', 00H
_DATA	ENDS
;	COMDAT ??_R3CUpdateTipDlg@@8
rdata$r	SEGMENT
??_R3CUpdateTipDlg@@8 DD 00H				; CUpdateTipDlg::`RTTI Class Hierarchy Descriptor'
	DD	00H
	DD	05H
	DD	FLAT:??_R2CUpdateTipDlg@@8
rdata$r	ENDS
;	COMDAT ??_R2CUpdateTipDlg@@8
rdata$r	SEGMENT
??_R2CUpdateTipDlg@@8 DD FLAT:??_R1A@?0A@A@CUpdateTipDlg@@8 ; CUpdateTipDlg::`RTTI Base Class Array'
	DD	FLAT:??_R1A@?0A@A@CDialog@@8
	DD	FLAT:??_R1A@?0A@A@CWnd@@8
	DD	FLAT:??_R1A@?0A@A@CCmdTarget@@8
	DD	FLAT:??_R1A@?0A@A@CObject@@8
rdata$r	ENDS
;	COMDAT ??_R1A@?0A@A@CUpdateTipDlg@@8
rdata$r	SEGMENT
??_R1A@?0A@A@CUpdateTipDlg@@8 DD FLAT:??_R0?AVCUpdateTipDlg@@@8 ; CUpdateTipDlg::`RTTI Base Class Descriptor at (0,-1,0,0)'
	DD	04H
	DD	00H
	DD	0ffffffffH
	DD	00H
	DD	00H
rdata$r	ENDS
;	COMDAT ??_R1A@?0A@A@CDialog@@8
rdata$r	SEGMENT
??_R1A@?0A@A@CDialog@@8 DD FLAT:??_R0?AVCDialog@@@8	; CDialog::`RTTI Base Class Descriptor at (0,-1,0,0)'
	DD	03H
	DD	00H
	DD	0ffffffffH
	DD	00H
	DD	00H
rdata$r	ENDS
;	COMDAT ??_R0?AVCDialog@@@8
_DATA	SEGMENT
??_R0?AVCDialog@@@8 DD FLAT:??_7type_info@@6B@		; CDialog `RTTI Type Descriptor'
	DD	00H
	DB	'.?AVCDialog@@', 00H
_DATA	ENDS
;	COMDAT ??_R1A@?0A@A@CWnd@@8
rdata$r	SEGMENT
??_R1A@?0A@A@CWnd@@8 DD FLAT:??_R0?AVCWnd@@@8		; CWnd::`RTTI Base Class Descriptor at (0,-1,0,0)'
	DD	02H
	DD	00H
	DD	0ffffffffH
	DD	00H
	DD	00H
rdata$r	ENDS
;	COMDAT ??_R0?AVCWnd@@@8
_DATA	SEGMENT
??_R0?AVCWnd@@@8 DD FLAT:??_7type_info@@6B@		; CWnd `RTTI Type Descriptor'
	DD	00H
	DB	'.?AVCWnd@@', 00H
_DATA	ENDS
;	COMDAT ??_R1A@?0A@A@CCmdTarget@@8
rdata$r	SEGMENT
??_R1A@?0A@A@CCmdTarget@@8 DD FLAT:??_R0?AVCCmdTarget@@@8 ; CCmdTarget::`RTTI Base Class Descriptor at (0,-1,0,0)'
	DD	01H
	DD	00H
	DD	0ffffffffH
	DD	00H
	DD	00H
rdata$r	ENDS
;	COMDAT ??_R0?AVCCmdTarget@@@8
_DATA	SEGMENT
??_R0?AVCCmdTarget@@@8 DD FLAT:??_7type_info@@6B@	; CCmdTarget `RTTI Type Descriptor'
	DD	00H
	DB	'.?AVCCmdTarget@@', 00H
_DATA	ENDS
;	COMDAT ??_R1A@?0A@A@CObject@@8
rdata$r	SEGMENT
??_R1A@?0A@A@CObject@@8 DD FLAT:??_R0?AVCObject@@@8	; CObject::`RTTI Base Class Descriptor at (0,-1,0,0)'
	DD	00H
	DD	00H
	DD	0ffffffffH
	DD	00H
	DD	00H
rdata$r	ENDS
;	COMDAT ??_R0?AVCObject@@@8
_DATA	SEGMENT
??_R0?AVCObject@@@8 DD FLAT:??_7type_info@@6B@		; CObject `RTTI Type Descriptor'
	DD	00H
	DB	'.?AVCObject@@', 00H
; Function compile flags: /Odt
_DATA	ENDS
_TEXT	SEGMENT
_this$ = -16						; size = 4
__$EHRec$ = -12						; size = 12
_pParent$ = 8						; size = 4
??0CUpdateTipDlg@@QAE@PAVCWnd@@@Z PROC NEAR		; CUpdateTipDlg::CUpdateTipDlg
; _this$ = ecx

; 33   : {

  000d0	55		 push	 ebp
  000d1	8b ec		 mov	 ebp, esp
  000d3	6a ff		 push	 -1
  000d5	68 00 00 00 00	 push	 __ehhandler$??0CUpdateTipDlg@@QAE@PAVCWnd@@@Z
  000da	64 a1 00 00 00
	00		 mov	 eax, DWORD PTR fs:__except_list
  000e0	50		 push	 eax
  000e1	64 89 25 00 00
	00 00		 mov	 DWORD PTR fs:__except_list, esp
  000e8	51		 push	 ecx
  000e9	89 4d f0	 mov	 DWORD PTR _this$[ebp], ecx
  000ec	8b 45 08	 mov	 eax, DWORD PTR _pParent$[ebp]
  000ef	50		 push	 eax
  000f0	68 d7 00 00 00	 push	 215			; 000000d7H
  000f5	8b 4d f0	 mov	 ecx, DWORD PTR _this$[ebp]
  000f8	e8 00 00 00 00	 call	 ??0CDialog@@QAE@IPAVCWnd@@@Z ; CDialog::CDialog
  000fd	c7 45 fc 00 00
	00 00		 mov	 DWORD PTR __$EHRec$[ebp+8], 0
  00104	8b 4d f0	 mov	 ecx, DWORD PTR _this$[ebp]
  00107	c7 01 00 00 00
	00		 mov	 DWORD PTR [ecx], OFFSET FLAT:??_7CUpdateTipDlg@@6B@
  0010d	8b 4d f0	 mov	 ecx, DWORD PTR _this$[ebp]
  00110	83 c1 78	 add	 ecx, 120		; 00000078H
  00113	ff 15 00 00 00
	00		 call	 DWORD PTR __imp_??0?$CStringT@DV?$StrTraitMFC_DLL@DV?$ChTraitsCRT@D@ATL@@@@@ATL@@QAE@XZ
  00119	c6 45 fc 01	 mov	 BYTE PTR __$EHRec$[ebp+8], 1
  0011d	8b 4d f0	 mov	 ecx, DWORD PTR _this$[ebp]
  00120	83 c1 7c	 add	 ecx, 124		; 0000007cH
  00123	e8 00 00 00 00	 call	 ??0CHyperLinkExpand@@QAE@XZ

; 34   : }

  00128	c7 45 fc ff ff
	ff ff		 mov	 DWORD PTR __$EHRec$[ebp+8], -1
  0012f	8b 45 f0	 mov	 eax, DWORD PTR _this$[ebp]
  00132	8b 4d f4	 mov	 ecx, DWORD PTR __$EHRec$[ebp]
  00135	64 89 0d 00 00
	00 00		 mov	 DWORD PTR fs:__except_list, ecx
  0013c	8b e5		 mov	 esp, ebp
  0013e	5d		 pop	 ebp
  0013f	c2 04 00	 ret	 4
_TEXT	ENDS
text$x	SEGMENT
$L198159:
  00000	8b 4d f0	 mov	 ecx, DWORD PTR _this$[ebp]
  00003	e9 00 00 00 00	 jmp	 ??1CDialog@@UAE@XZ	; CDialog::~CDialog
$L198160:
  00008	8b 4d f0	 mov	 ecx, DWORD PTR _this$[ebp]
  0000b	83 c1 78	 add	 ecx, 120		; 00000078H
  0000e	ff 25 00 00 00
	00		 jmp	 DWORD PTR __imp_??1?$CStringT@DV?$StrTraitMFC_DLL@DV?$ChTraitsCRT@D@ATL@@@@@ATL@@QAE@XZ
__ehhandler$??0CUpdateTipDlg@@QAE@PAVCWnd@@@Z:
  00014	b8 00 00 00 00	 mov	 eax, OFFSET FLAT:$T198165
  00019	e9 00 00 00 00	 jmp	 ___CxxFrameHandler
text$x	ENDS
??0CUpdateTipDlg@@QAE@PAVCWnd@@@Z ENDP			; CUpdateTipDlg::CUpdateTipDlg
PUBLIC	??3CObject@@SGXPAX@Z				; CObject::operator delete
PUBLIC	??1CUpdateTipDlg@@UAE@XZ			; CUpdateTipDlg::~CUpdateTipDlg
; Function compile flags: /Odt
;	COMDAT ??_GCUpdateTipDlg@@UAEPAXI@Z
_TEXT	SEGMENT
_this$ = -4						; size = 4
___flags$ = 8						; size = 4
??_GCUpdateTipDlg@@UAEPAXI@Z PROC NEAR			; CUpdateTipDlg::`scalar deleting destructor', COMDAT
; _this$ = ecx
  00000	55		 push	 ebp
  00001	8b ec		 mov	 ebp, esp
  00003	51		 push	 ecx
  00004	89 4d fc	 mov	 DWORD PTR _this$[ebp], ecx
  00007	8b 4d fc	 mov	 ecx, DWORD PTR _this$[ebp]
  0000a	e8 00 00 00 00	 call	 ??1CUpdateTipDlg@@UAE@XZ ; CUpdateTipDlg::~CUpdateTipDlg
  0000f	8b 45 08	 mov	 eax, DWORD PTR ___flags$[ebp]
  00012	83 e0 01	 and	 eax, 1
  00015	74 09		 je	 SHORT $L197556
  00017	8b 4d fc	 mov	 ecx, DWORD PTR _this$[ebp]
  0001a	51		 push	 ecx
  0001b	e8 00 00 00 00	 call	 ??3CObject@@SGXPAX@Z	; CObject::operator delete
$L197556:
  00020	8b 45 fc	 mov	 eax, DWORD PTR _this$[ebp]
  00023	8b e5		 mov	 esp, ebp
  00025	5d		 pop	 ebp
  00026	c2 04 00	 ret	 4
??_GCUpdateTipDlg@@UAEPAXI@Z ENDP			; CUpdateTipDlg::`scalar deleting destructor'
_TEXT	ENDS
PUBLIC	??_R4CHyperLinkExpand@@6B@			; CHyperLinkExpand::`RTTI Complete Object Locator'
PUBLIC	??_R0?AVCHyperLinkExpand@@@8			; CHyperLinkExpand `RTTI Type Descriptor'
PUBLIC	??_R3CHyperLinkExpand@@8			; CHyperLinkExpand::`RTTI Class Hierarchy Descriptor'
PUBLIC	??_R2CHyperLinkExpand@@8			; CHyperLinkExpand::`RTTI Base Class Array'
PUBLIC	??_R1A@?0A@A@CHyperLinkExpand@@8		; CHyperLinkExpand::`RTTI Base Class Descriptor at (0,-1,0,0)'
PUBLIC	??_R1A@?0A@A@CHyperLink@@8			; CHyperLink::`RTTI Base Class Descriptor at (0,-1,0,0)'
PUBLIC	??_R0?AVCHyperLink@@@8				; CHyperLink `RTTI Type Descriptor'
PUBLIC	??_R0?AVCStatic@@@8				; CStatic `RTTI Type Descriptor'
PUBLIC	??_R1A@?0A@A@CStatic@@8				; CStatic::`RTTI Base Class Descriptor at (0,-1,0,0)'
PUBLIC	??_7CHyperLinkExpand@@6B@			; CHyperLinkExpand::`vftable'
PUBLIC	??_GCHyperLinkExpand@@UAEPAXI@Z			; CHyperLinkExpand::`scalar deleting destructor'
PUBLIC	?DoDataExchange@CWnd@@MAEXPAVCDataExchange@@@Z	; CWnd::DoDataExchange
EXTRN	?SetOccDialogInfo@CWnd@@MAEHPAU_AFX_OCC_DIALOG_INFO@@@Z:NEAR ; CWnd::SetOccDialogInfo
EXTRN	?GetRuntimeClass@CStatic@@UBEPAUCRuntimeClass@@XZ:NEAR ; CStatic::GetRuntimeClass
EXTRN	?Create@CStatic@@UAEHPBDKABUtagRECT@@PAVCWnd@@I@Z:NEAR ; CStatic::Create
EXTRN	?DrawItem@CStatic@@UAEXPAUtagDRAWITEMSTRUCT@@@Z:NEAR ; CStatic::DrawItem
EXTRN	?OnChildNotify@CStatic@@MAEHIIJPAJ@Z:NEAR	; CStatic::OnChildNotify
EXTRN	?OnCmdMsg@CCmdTarget@@UAEHIHPAXPAUAFX_CMDHANDLERINFO@@@Z:NEAR ; CCmdTarget::OnCmdMsg
EXTRN	??0CHyperLink@@QAE@XZ:NEAR			; CHyperLink::CHyperLink
EXTRN	?PreTranslateMessage@CHyperLink@@UAEHPAUtagMSG@@@Z:NEAR ; CHyperLink::PreTranslateMessage
EXTRN	?DestroyWindow@CHyperLink@@UAEHXZ:NEAR		; CHyperLink::DestroyWindow
EXTRN	?PreSubclassWindow@CHyperLink@@MAEXXZ:NEAR	; CHyperLink::PreSubclassWindow
EXTRN	??_ECHyperLinkExpand@@UAEPAXI@Z:NEAR		; CHyperLinkExpand::`vector deleting destructor'
EXTRN	?CheckAutoCenter@CWnd@@UAEHXZ:NEAR		; CWnd::CheckAutoCenter
;	COMDAT ??_7CHyperLinkExpand@@6B@
CONST	SEGMENT
??_7CHyperLinkExpand@@6B@ DD FLAT:??_R4CHyperLinkExpand@@6B@ ; CHyperLinkExpand::`vftable'
	DD	FLAT:?GetRuntimeClass@CStatic@@UBEPAUCRuntimeClass@@XZ
	DD	FLAT:??_ECHyperLinkExpand@@UAEPAXI@Z
	DD	FLAT:?Serialize@CObject@@UAEXAAVCArchive@@@Z
	DD	FLAT:?AssertValid@CObject@@UBEXXZ
	DD	FLAT:?Dump@CObject@@UBEXAAVCDumpContext@@@Z
	DD	FLAT:?OnCmdMsg@CCmdTarget@@UAEHIHPAXPAUAFX_CMDHANDLERINFO@@@Z
	DD	FLAT:?OnFinalRelease@CWnd@@UAEXXZ
	DD	FLAT:?IsInvokeAllowed@CCmdTarget@@UAEHJ@Z
	DD	FLAT:?GetDispatchIID@CCmdTarget@@UAEHPAU_GUID@@@Z
	DD	FLAT:?GetTypeInfoCount@CCmdTarget@@UAEIXZ
	DD	FLAT:?GetTypeLibCache@CCmdTarget@@UAEPAVCTypeLibCache@@XZ
	DD	FLAT:?GetTypeLib@CCmdTarget@@UAEJKPAPAUITypeLib@@@Z
	DD	FLAT:?GetMessageMap@CHyperLinkExpand@@MBEPBUAFX_MSGMAP@@XZ
	DD	FLAT:?GetCommandMap@CCmdTarget@@MBEPBUAFX_OLECMDMAP@@XZ
	DD	FLAT:?GetDispatchMap@CCmdTarget@@MBEPBUAFX_DISPMAP@@XZ
	DD	FLAT:?GetConnectionMap@CCmdTarget@@MBEPBUAFX_CONNECTIONMAP@@XZ
	DD	FLAT:?GetInterfaceMap@CWnd@@MBEPBUAFX_INTERFACEMAP@@XZ
	DD	FLAT:?GetEventSinkMap@CCmdTarget@@MBEPBUAFX_EVENTSINKMAP@@XZ
	DD	FLAT:?OnCreateAggregates@CCmdTarget@@UAEHXZ
	DD	FLAT:?GetInterfaceHook@CCmdTarget@@UAEPAUIUnknown@@PBX@Z
	DD	FLAT:?GetExtraConnectionPoints@CCmdTarget@@MAEHPAVCPtrArray@@@Z
	DD	FLAT:?GetConnectionHook@CCmdTarget@@MAEPAUIConnectionPoint@@ABU_GUID@@@Z
	DD	FLAT:?PreSubclassWindow@CHyperLink@@MAEXXZ
	DD	FLAT:?Create@CWnd@@UAEHPBD0KABUtagRECT@@PAV1@IPAUCCreateContext@@@Z
	DD	FLAT:?CreateEx@CWnd@@UAEHKPBD0KABUtagRECT@@PAV1@IPAX@Z
	DD	FLAT:?CreateEx@CWnd@@UAEHKPBD0KHHHHPAUHWND__@@PAUHMENU__@@PAX@Z
	DD	FLAT:?DestroyWindow@CHyperLink@@UAEHXZ
	DD	FLAT:?PreCreateWindow@CWnd@@UAEHAAUtagCREATESTRUCTA@@@Z
	DD	FLAT:?CalcWindowRect@CWnd@@UAEXPAUtagRECT@@I@Z
	DD	FLAT:?OnToolHitTest@CWnd@@UBEHVCPoint@@PAUtagTOOLINFOA@@@Z
	DD	FLAT:?GetScrollBarCtrl@CWnd@@UBEPAVCScrollBar@@H@Z
	DD	FLAT:?WinHelpA@CWnd@@UAEXKI@Z
	DD	FLAT:?HtmlHelpA@CWnd@@UAEXKI@Z
	DD	FLAT:?WinHelpInternal@CWnd@@UAEXKI@Z
	DD	FLAT:?ContinueModal@CWnd@@UAEHXZ
	DD	FLAT:?EndModalLoop@CWnd@@UAEXH@Z
	DD	FLAT:?EnsureStdObj@CWnd@@UAEJXZ
	DD	FLAT:?get_accParent@CWnd@@UAEJPAPAUIDispatch@@@Z
	DD	FLAT:?get_accChildCount@CWnd@@UAEJPAJ@Z
	DD	FLAT:?get_accChild@CWnd@@UAEJUtagVARIANT@@PAPAUIDispatch@@@Z
	DD	FLAT:?get_accName@CWnd@@UAEJUtagVARIANT@@PAPA_W@Z
	DD	FLAT:?get_accValue@CWnd@@UAEJUtagVARIANT@@PAPA_W@Z
	DD	FLAT:?get_accDescription@CWnd@@UAEJUtagVARIANT@@PAPA_W@Z
	DD	FLAT:?get_accRole@CWnd@@UAEJUtagVARIANT@@PAU2@@Z
	DD	FLAT:?get_accState@CWnd@@UAEJUtagVARIANT@@PAU2@@Z
	DD	FLAT:?get_accHelp@CWnd@@UAEJUtagVARIANT@@PAPA_W@Z
	DD	FLAT:?get_accHelpTopic@CWnd@@UAEJPAPA_WUtagVARIANT@@PAJ@Z
	DD	FLAT:?get_accKeyboardShortcut@CWnd@@UAEJUtagVARIANT@@PAPA_W@Z
	DD	FLAT:?get_accFocus@CWnd@@UAEJPAUtagVARIANT@@@Z
	DD	FLAT:?get_accSelection@CWnd@@UAEJPAUtagVARIANT@@@Z
	DD	FLAT:?get_accDefaultAction@CWnd@@UAEJUtagVARIANT@@PAPA_W@Z
	DD	FLAT:?accSelect@CWnd@@UAEJJUtagVARIANT@@@Z
	DD	FLAT:?accLocation@CWnd@@UAEJPAJ000UtagVARIANT@@@Z
	DD	FLAT:?accNavigate@CWnd@@UAEJJUtagVARIANT@@PAU2@@Z
	DD	FLAT:?accHitTest@CWnd@@UAEJJJPAUtagVARIANT@@@Z
	DD	FLAT:?accDoDefaultAction@CWnd@@UAEJUtagVARIANT@@@Z
	DD	FLAT:?put_accName@CWnd@@UAEJUtagVARIANT@@PA_W@Z
	DD	FLAT:?put_accValue@CWnd@@UAEJUtagVARIANT@@PA_W@Z
	DD	FLAT:?SetProxy@CWnd@@UAEJPAUIAccessibleProxy@@@Z
	DD	FLAT:?CreateAccessibleProxy@CWnd@@UAEJIJPAJ@Z
	DD	FLAT:?OnCommand@CWnd@@MAEHIJ@Z
	DD	FLAT:?OnNotify@CWnd@@MAEHIJPAJ@Z
	DD	FLAT:?GetSuperWndProcAddr@CWnd@@MAEPAP6GJPAUHWND__@@IIJ@ZXZ
	DD	FLAT:?DoDataExchange@CWnd@@MAEXPAVCDataExchange@@@Z
	DD	FLAT:?BeginModalState@CWnd@@UAEXXZ
	DD	FLAT:?EndModalState@CWnd@@UAEXXZ
	DD	FLAT:?PreTranslateMessage@CHyperLink@@UAEHPAUtagMSG@@@Z
	DD	FLAT:?OnAmbientProperty@CWnd@@UAEHPAVCOleControlSite@@JPAUtagVARIANT@@@Z
	DD	FLAT:?WindowProc@CWnd@@MAEJIIJ@Z
	DD	FLAT:?OnWndMsg@CWnd@@MAEHIIJPAJ@Z
	DD	FLAT:?DefWindowProcA@CWnd@@MAEJIIJ@Z
	DD	FLAT:?PostNcDestroy@CWnd@@MAEXXZ
	DD	FLAT:?OnChildNotify@CStatic@@MAEHIIJPAJ@Z
	DD	FLAT:?CheckAutoCenter@CWnd@@UAEHXZ
	DD	FLAT:?IsFrameWnd@CWnd@@UBEHXZ
	DD	FLAT:?CreateControlContainer@CWnd@@MAEHPAPAVCOleControlContainer@@@Z
	DD	FLAT:?CreateControlSite@CWnd@@MAEHPAVCOleControlContainer@@PAPAVCOleControlSite@@IABU_GUID@@@Z
	DD	FLAT:?SetOccDialogInfo@CWnd@@MAEHPAU_AFX_OCC_DIALOG_INFO@@@Z
	DD	FLAT:?Create@CStatic@@UAEHPBDKABUtagRECT@@PAVCWnd@@I@Z
	DD	FLAT:?DrawItem@CStatic@@UAEXPAUtagDRAWITEMSTRUCT@@@Z
CONST	ENDS
;	COMDAT ??_R4CHyperLinkExpand@@6B@
rdata$r	SEGMENT
??_R4CHyperLinkExpand@@6B@ DD 00H			; CHyperLinkExpand::`RTTI Complete Object Locator'
	DD	00H
	DD	00H
	DD	FLAT:??_R0?AVCHyperLinkExpand@@@8
	DD	FLAT:??_R3CHyperLinkExpand@@8
rdata$r	ENDS
;	COMDAT ??_R0?AVCHyperLinkExpand@@@8
_DATA	SEGMENT
??_R0?AVCHyperLinkExpand@@@8 DD FLAT:??_7type_info@@6B@	; CHyperLinkExpand `RTTI Type Descriptor'
	DD	00H
	DB	'.?AVCHyperLinkExpand@@', 00H
_DATA	ENDS
;	COMDAT ??_R3CHyperLinkExpand@@8
rdata$r	SEGMENT
??_R3CHyperLinkExpand@@8 DD 00H				; CHyperLinkExpand::`RTTI Class Hierarchy Descriptor'
	DD	00H
	DD	06H
	DD	FLAT:??_R2CHyperLinkExpand@@8
rdata$r	ENDS
;	COMDAT ??_R2CHyperLinkExpand@@8
rdata$r	SEGMENT
??_R2CHyperLinkExpand@@8 DD FLAT:??_R1A@?0A@A@CHyperLinkExpand@@8 ; CHyperLinkExpand::`RTTI Base Class Array'
	DD	FLAT:??_R1A@?0A@A@CHyperLink@@8
	DD	FLAT:??_R1A@?0A@A@CStatic@@8
	DD	FLAT:??_R1A@?0A@A@CWnd@@8
	DD	FLAT:??_R1A@?0A@A@CCmdTarget@@8
	DD	FLAT:??_R1A@?0A@A@CObject@@8
rdata$r	ENDS
;	COMDAT ??_R1A@?0A@A@CHyperLinkExpand@@8
rdata$r	SEGMENT
??_R1A@?0A@A@CHyperLinkExpand@@8 DD FLAT:??_R0?AVCHyperLinkExpand@@@8 ; CHyperLinkExpand::`RTTI Base Class Descriptor at (0,-1,0,0)'
	DD	05H
	DD	00H
	DD	0ffffffffH
	DD	00H
	DD	00H
rdata$r	ENDS
;	COMDAT ??_R1A@?0A@A@CHyperLink@@8
rdata$r	SEGMENT
??_R1A@?0A@A@CHyperLink@@8 DD FLAT:??_R0?AVCHyperLink@@@8 ; CHyperLink::`RTTI Base Class Descriptor at (0,-1,0,0)'
	DD	04H
	DD	00H
	DD	0ffffffffH
	DD	00H
	DD	00H
rdata$r	ENDS
;	COMDAT ??_R0?AVCHyperLink@@@8
_DATA	SEGMENT
??_R0?AVCHyperLink@@@8 DD FLAT:??_7type_info@@6B@	; CHyperLink `RTTI Type Descriptor'
	DD	00H
	DB	'.?AVCHyperLink@@', 00H
_DATA	ENDS
;	COMDAT ??_R1A@?0A@A@CStatic@@8
rdata$r	SEGMENT
??_R1A@?0A@A@CStatic@@8 DD FLAT:??_R0?AVCStatic@@@8	; CStatic::`RTTI Base Class Descriptor at (0,-1,0,0)'
	DD	03H
	DD	00H
	DD	0ffffffffH
	DD	00H
	DD	00H
rdata$r	ENDS
;	COMDAT ??_R0?AVCStatic@@@8
_DATA	SEGMENT
??_R0?AVCStatic@@@8 DD FLAT:??_7type_info@@6B@		; CStatic `RTTI Type Descriptor'
	DD	00H
	DB	'.?AVCStatic@@', 00H
; Function compile flags: /Odt
_DATA	ENDS
;	COMDAT ??0CHyperLinkExpand@@QAE@XZ
_TEXT	SEGMENT
_this$ = -4						; size = 4
??0CHyperLinkExpand@@QAE@XZ PROC NEAR			; CHyperLinkExpand::CHyperLinkExpand, COMDAT
; _this$ = ecx
  00000	55		 push	 ebp
  00001	8b ec		 mov	 ebp, esp
  00003	51		 push	 ecx
  00004	89 4d fc	 mov	 DWORD PTR _this$[ebp], ecx
  00007	8b 4d fc	 mov	 ecx, DWORD PTR _this$[ebp]
  0000a	e8 00 00 00 00	 call	 ??0CHyperLink@@QAE@XZ	; CHyperLink::CHyperLink
  0000f	8b 45 fc	 mov	 eax, DWORD PTR _this$[ebp]
  00012	c7 00 00 00 00
	00		 mov	 DWORD PTR [eax], OFFSET FLAT:??_7CHyperLinkExpand@@6B@
  00018	8b 45 fc	 mov	 eax, DWORD PTR _this$[ebp]
  0001b	8b e5		 mov	 esp, ebp
  0001d	5d		 pop	 ebp
  0001e	c3		 ret	 0
??0CHyperLinkExpand@@QAE@XZ ENDP			; CHyperLinkExpand::CHyperLinkExpand
_TEXT	ENDS
PUBLIC	??1CHyperLinkExpand@@UAE@XZ			; CHyperLinkExpand::~CHyperLinkExpand
; Function compile flags: /Odt
;	COMDAT ??_GCHyperLinkExpand@@UAEPAXI@Z
_TEXT	SEGMENT
_this$ = -4						; size = 4
___flags$ = 8						; size = 4
??_GCHyperLinkExpand@@UAEPAXI@Z PROC NEAR		; CHyperLinkExpand::`scalar deleting destructor', COMDAT
; _this$ = ecx
  00000	55		 push	 ebp
  00001	8b ec		 mov	 ebp, esp
  00003	51		 push	 ecx
  00004	89 4d fc	 mov	 DWORD PTR _this$[ebp], ecx
  00007	8b 4d fc	 mov	 ecx, DWORD PTR _this$[ebp]
  0000a	e8 00 00 00 00	 call	 ??1CHyperLinkExpand@@UAE@XZ
  0000f	8b 45 08	 mov	 eax, DWORD PTR ___flags$[ebp]
  00012	83 e0 01	 and	 eax, 1
  00015	74 09		 je	 SHORT $L197564
  00017	8b 4d fc	 mov	 ecx, DWORD PTR _this$[ebp]
  0001a	51		 push	 ecx
  0001b	e8 00 00 00 00	 call	 ??3CObject@@SGXPAX@Z	; CObject::operator delete
$L197564:
  00020	8b 45 fc	 mov	 eax, DWORD PTR _this$[ebp]
  00023	8b e5		 mov	 esp, ebp
  00025	5d		 pop	 ebp
  00026	c2 04 00	 ret	 4
??_GCHyperLinkExpand@@UAEPAXI@Z ENDP			; CHyperLinkExpand::`scalar deleting destructor'
_TEXT	ENDS
EXTRN	??1CHyperLink@@UAE@XZ:NEAR			; CHyperLink::~CHyperLink
; Function compile flags: /Odt
;	COMDAT ??1CHyperLinkExpand@@UAE@XZ
_TEXT	SEGMENT
_this$ = -4						; size = 4
??1CHyperLinkExpand@@UAE@XZ PROC NEAR			; CHyperLinkExpand::~CHyperLinkExpand, COMDAT
; _this$ = ecx
  00000	55		 push	 ebp
  00001	8b ec		 mov	 ebp, esp
  00003	51		 push	 ecx
  00004	89 4d fc	 mov	 DWORD PTR _this$[ebp], ecx
  00007	8b 4d fc	 mov	 ecx, DWORD PTR _this$[ebp]
  0000a	e8 00 00 00 00	 call	 ??1CHyperLink@@UAE@XZ	; CHyperLink::~CHyperLink
  0000f	8b e5		 mov	 esp, ebp
  00011	5d		 pop	 ebp
  00012	c3		 ret	 0
??1CHyperLinkExpand@@UAE@XZ ENDP			; CHyperLinkExpand::~CHyperLinkExpand
_TEXT	ENDS
xdata$x	SEGMENT
$T198187 DD	0ffffffffH
	DD	FLAT:$L198181
	DD	00H
	DD	FLAT:$L198182
$T198185 DD	019930520H
	DD	02H
	DD	FLAT:$T198187
	DD	2 DUP(00H)
	DD	2 DUP(00H)
; Function compile flags: /Odt
xdata$x	ENDS
_TEXT	SEGMENT
_this$ = -16						; size = 4
__$EHRec$ = -12						; size = 12
??1CUpdateTipDlg@@UAE@XZ PROC NEAR			; CUpdateTipDlg::~CUpdateTipDlg
; _this$ = ecx

; 37   : {

  00150	55		 push	 ebp
  00151	8b ec		 mov	 ebp, esp
  00153	6a ff		 push	 -1
  00155	68 00 00 00 00	 push	 __ehhandler$??1CUpdateTipDlg@@UAE@XZ
  0015a	64 a1 00 00 00
	00		 mov	 eax, DWORD PTR fs:__except_list
  00160	50		 push	 eax
  00161	64 89 25 00 00
	00 00		 mov	 DWORD PTR fs:__except_list, esp
  00168	51		 push	 ecx
  00169	89 4d f0	 mov	 DWORD PTR _this$[ebp], ecx
  0016c	8b 45 f0	 mov	 eax, DWORD PTR _this$[ebp]
  0016f	c7 00 00 00 00
	00		 mov	 DWORD PTR [eax], OFFSET FLAT:??_7CUpdateTipDlg@@6B@
  00175	c7 45 fc 01 00
	00 00		 mov	 DWORD PTR __$EHRec$[ebp+8], 1

; 38   : }

  0017c	8b 4d f0	 mov	 ecx, DWORD PTR _this$[ebp]
  0017f	83 c1 7c	 add	 ecx, 124		; 0000007cH
  00182	e8 00 00 00 00	 call	 ??1CHyperLinkExpand@@UAE@XZ
  00187	c6 45 fc 00	 mov	 BYTE PTR __$EHRec$[ebp+8], 0
  0018b	8b 4d f0	 mov	 ecx, DWORD PTR _this$[ebp]
  0018e	83 c1 78	 add	 ecx, 120		; 00000078H
  00191	ff 15 00 00 00
	00		 call	 DWORD PTR __imp_??1?$CStringT@DV?$StrTraitMFC_DLL@DV?$ChTraitsCRT@D@ATL@@@@@ATL@@QAE@XZ
  00197	c7 45 fc ff ff
	ff ff		 mov	 DWORD PTR __$EHRec$[ebp+8], -1
  0019e	8b 4d f0	 mov	 ecx, DWORD PTR _this$[ebp]
  001a1	e8 00 00 00 00	 call	 ??1CDialog@@UAE@XZ	; CDialog::~CDialog
  001a6	8b 4d f4	 mov	 ecx, DWORD PTR __$EHRec$[ebp]
  001a9	64 89 0d 00 00
	00 00		 mov	 DWORD PTR fs:__except_list, ecx
  001b0	8b e5		 mov	 esp, ebp
  001b2	5d		 pop	 ebp
  001b3	c3		 ret	 0
_TEXT	ENDS
text$x	SEGMENT
$L198181:
  0001e	8b 4d f0	 mov	 ecx, DWORD PTR _this$[ebp]
  00021	e9 00 00 00 00	 jmp	 ??1CDialog@@UAE@XZ	; CDialog::~CDialog
$L198182:
  00026	8b 4d f0	 mov	 ecx, DWORD PTR _this$[ebp]
  00029	83 c1 78	 add	 ecx, 120		; 00000078H
  0002c	ff 25 00 00 00
	00		 jmp	 DWORD PTR __imp_??1?$CStringT@DV?$StrTraitMFC_DLL@DV?$ChTraitsCRT@D@ATL@@@@@ATL@@QAE@XZ
__ehhandler$??1CUpdateTipDlg@@UAE@XZ:
  00032	b8 00 00 00 00	 mov	 eax, OFFSET FLAT:$T198185
  00037	e9 00 00 00 00	 jmp	 ___CxxFrameHandler
text$x	ENDS
??1CUpdateTipDlg@@UAE@XZ ENDP				; CUpdateTipDlg::~CUpdateTipDlg
EXTRN	?DDX_Text@@YGXPAVCDataExchange@@HAAV?$CStringT@DV?$StrTraitMFC_DLL@DV?$ChTraitsCRT@D@ATL@@@@@ATL@@@Z:NEAR ; DDX_Text
EXTRN	?DDX_Control@@YGXPAVCDataExchange@@HAAVCWnd@@@Z:NEAR ; DDX_Control
; Function compile flags: /Odt
_TEXT	SEGMENT
_this$ = -4						; size = 4
_pDX$ = 8						; size = 4
?DoDataExchange@CUpdateTipDlg@@MAEXPAVCDataExchange@@@Z PROC NEAR ; CUpdateTipDlg::DoDataExchange
; _this$ = ecx

; 41   : {

  001c0	55		 push	 ebp
  001c1	8b ec		 mov	 ebp, esp
  001c3	51		 push	 ecx
  001c4	89 4d fc	 mov	 DWORD PTR _this$[ebp], ecx

; 42   : 	CDialog::DoDataExchange(pDX);

  001c7	8b 45 08	 mov	 eax, DWORD PTR _pDX$[ebp]
  001ca	50		 push	 eax
  001cb	8b 4d fc	 mov	 ecx, DWORD PTR _this$[ebp]
  001ce	e8 00 00 00 00	 call	 ?DoDataExchange@CWnd@@MAEXPAVCDataExchange@@@Z ; CWnd::DoDataExchange

; 43   : 	DDX_Control(pDX, IDC_STATIC_UPDATE_INFO, m_linkUpdateInfo);

  001d3	8b 4d fc	 mov	 ecx, DWORD PTR _this$[ebp]
  001d6	83 c1 7c	 add	 ecx, 124		; 0000007cH
  001d9	51		 push	 ecx
  001da	68 d8 00 00 00	 push	 216			; 000000d8H
  001df	8b 55 08	 mov	 edx, DWORD PTR _pDX$[ebp]
  001e2	52		 push	 edx
  001e3	e8 00 00 00 00	 call	 ?DDX_Control@@YGXPAVCDataExchange@@HAAVCWnd@@@Z ; DDX_Control

; 44   : 	DDX_Text(pDX, IDC_EDIT_UPDATE_INFO, m_strUpdateInfo);

  001e8	8b 45 fc	 mov	 eax, DWORD PTR _this$[ebp]
  001eb	83 c0 78	 add	 eax, 120		; 00000078H
  001ee	50		 push	 eax
  001ef	68 d9 00 00 00	 push	 217			; 000000d9H
  001f4	8b 4d 08	 mov	 ecx, DWORD PTR _pDX$[ebp]
  001f7	51		 push	 ecx
  001f8	e8 00 00 00 00	 call	 ?DDX_Text@@YGXPAVCDataExchange@@HAAV?$CStringT@DV?$StrTraitMFC_DLL@DV?$ChTraitsCRT@D@ATL@@@@@ATL@@@Z ; DDX_Text

; 45   : }

  001fd	8b e5		 mov	 esp, ebp
  001ff	5d		 pop	 ebp
  00200	c2 04 00	 ret	 4
?DoDataExchange@CUpdateTipDlg@@MAEXPAVCDataExchange@@@Z ENDP ; CUpdateTipDlg::DoDataExchange
_TEXT	ENDS
PUBLIC	?GetThisMessageMap@CUpdateTipDlg@@KGPBUAFX_MSGMAP@@XZ ; CUpdateTipDlg::GetThisMessageMap
; Function compile flags: /Odt
_TEXT	SEGMENT
?GetThisMessageMap@CUpdateTipDlg@@KGPBUAFX_MSGMAP@@XZ PROC NEAR ; CUpdateTipDlg::GetThisMessageMap

; 48   : BEGIN_MESSAGE_MAP(CUpdateTipDlg, CDialog)

  00210	55		 push	 ebp
  00211	8b ec		 mov	 ebp, esp
  00213	b8 00 00 00 00	 mov	 eax, OFFSET FLAT:?messageMap@CUpdateTipDlg@@1UAFX_MSGMAP@@B ; CUpdateTipDlg::messageMap
  00218	5d		 pop	 ebp
  00219	c3		 ret	 0
?GetThisMessageMap@CUpdateTipDlg@@KGPBUAFX_MSGMAP@@XZ ENDP ; CUpdateTipDlg::GetThisMessageMap
; Function compile flags: /Odt
_this$ = -4						; size = 4
?GetMessageMap@CUpdateTipDlg@@MBEPBUAFX_MSGMAP@@XZ PROC NEAR ; CUpdateTipDlg::GetMessageMap
; _this$ = ecx

; 48   : BEGIN_MESSAGE_MAP(CUpdateTipDlg, CDialog)

  00220	55		 push	 ebp
  00221	8b ec		 mov	 ebp, esp
  00223	51		 push	 ecx
  00224	89 4d fc	 mov	 DWORD PTR _this$[ebp], ecx
  00227	b8 00 00 00 00	 mov	 eax, OFFSET FLAT:?messageMap@CUpdateTipDlg@@1UAFX_MSGMAP@@B ; CUpdateTipDlg::messageMap
  0022c	8b e5		 mov	 esp, ebp
  0022e	5d		 pop	 ebp
  0022f	c3		 ret	 0
?GetMessageMap@CUpdateTipDlg@@MBEPBUAFX_MSGMAP@@XZ ENDP	; CUpdateTipDlg::GetMessageMap
_TEXT	ENDS
PUBLIC	?SetForceUpdate@CUpdateTipDlg@@QAEXH@Z		; CUpdateTipDlg::SetForceUpdate
; Function compile flags: /Odt
_TEXT	SEGMENT
_this$ = -4						; size = 4
_nForce$ = 8						; size = 4
?SetForceUpdate@CUpdateTipDlg@@QAEXH@Z PROC NEAR	; CUpdateTipDlg::SetForceUpdate
; _this$ = ecx

; 53   : {

  00230	55		 push	 ebp
  00231	8b ec		 mov	 ebp, esp
  00233	51		 push	 ecx
  00234	89 4d fc	 mov	 DWORD PTR _this$[ebp], ecx

; 54   : 	m_nForceUpdate = nForce;

  00237	8b 45 fc	 mov	 eax, DWORD PTR _this$[ebp]
  0023a	8b 4d 08	 mov	 ecx, DWORD PTR _nForce$[ebp]
  0023d	89 48 74	 mov	 DWORD PTR [eax+116], ecx

; 55   : }

  00240	8b e5		 mov	 esp, ebp
  00242	5d		 pop	 ebp
  00243	c2 04 00	 ret	 4
?SetForceUpdate@CUpdateTipDlg@@QAEXH@Z ENDP		; CUpdateTipDlg::SetForceUpdate
_TEXT	ENDS
PUBLIC	?AfxGetApp@@YGPAVCWinApp@@XZ			; AfxGetApp
PUBLIC	?LoadCursorA@CWinApp@@QBEPAUHICON__@@I@Z	; CWinApp::LoadCursorA
PUBLIC	?EnableMenuItem@CMenu@@QAEIII@Z			; CMenu::EnableMenuItem
PUBLIC	?GetSystemMenu@CWnd@@QBEPAVCMenu@@H@Z		; CWnd::GetSystemMenu
PUBLIC	?MoveWindow@CWnd@@QAEXPBUtagRECT@@H@Z		; CWnd::MoveWindow
EXTRN	?GetWindowPlacement@CWnd@@QBEHPAUtagWINDOWPLACEMENT@@@Z:NEAR ; CWnd::GetWindowPlacement
EXTRN	?SetWindowPlacement@CWnd@@QAEHPBUtagWINDOWPLACEMENT@@@Z:NEAR ; CWnd::SetWindowPlacement
EXTRN	?ScreenToClient@CWnd@@QBEXPAUtagRECT@@@Z:NEAR	; CWnd::ScreenToClient
EXTRN	?ShowWindow@CWnd@@QAEHH@Z:NEAR			; CWnd::ShowWindow
EXTRN	?OnInitDialog@CDialog@@UAEHXZ:NEAR		; CDialog::OnInitDialog
EXTRN	??0YL_Ini@@QAE@PBD@Z:NEAR			; YL_Ini::YL_Ini
EXTRN	??1YL_Ini@@UAE@XZ:NEAR				; YL_Ini::~YL_Ini
EXTRN	__imp_??4?$CStringT@DV?$StrTraitMFC_DLL@DV?$ChTraitsCRT@D@ATL@@@@@ATL@@QAEAAV01@PBD@Z:NEAR
EXTRN	?GetString@YL_Ini@@QBEKPBD0PADK0@Z:NEAR		; YL_Ini::GetString
EXTRN	__imp_?Replace@?$CStringT@DV?$StrTraitMFC_DLL@DV?$ChTraitsCRT@D@ATL@@@@@ATL@@QAEHPBD0@Z:NEAR
EXTRN	?UpdateData@CWnd@@QAEHH@Z:NEAR			; CWnd::UpdateData
EXTRN	__imp__SetWindowPos@28:NEAR
EXTRN	__chkstk:NEAR
EXTRN	___security_cookie:DWORD
EXTRN	@__security_check_cookie@4:NEAR
EXTRN	_strcat:NEAR
EXTRN	?SetLinkCursor@CHyperLink@@QAEXPAUHICON__@@@Z:NEAR ; CHyperLink::SetLinkCursor
EXTRN	?GetDlgItem@CWnd@@QBEPAV1@H@Z:NEAR		; CWnd::GetDlgItem
EXTRN	?GetHomePath@CLhcImg@@SA_NQADH@Z:NEAR		; CLhcImg::GetHomePath
xdata$x	SEGMENT
$T198203 DD	0ffffffffH
	DD	FLAT:$L198195
$T198197 DD	019930520H
	DD	01H
	DD	FLAT:$T198203
	DD	2 DUP(00H)
	DD	2 DUP(00H)
; Function compile flags: /Odt
xdata$x	ENDS
_TEXT	SEGMENT
_this$ = -10864						; size = 4
$T198194 = -10860					; size = 4
_rect$197598 = -10856					; size = 16
_pWnd$197595 = -10840					; size = 4
_szImgPath$ = -10836					; size = 520
_ini$ = -10316						; size = 8
_szInfo$ = -10308					; size = 10240
__$ArrayPad$ = -64					; size = 4
_wp$ = -60						; size = 44
_pMenu$ = -16						; size = 4
__$EHRec$ = -12						; size = 12
__$ReturnAddr$ = 4					; size = 4
?OnInitDialog@CUpdateTipDlg@@UAEHXZ PROC NEAR		; CUpdateTipDlg::OnInitDialog
; _this$ = ecx

; 58   : {

  00250	55		 push	 ebp
  00251	8b ec		 mov	 ebp, esp
  00253	6a ff		 push	 -1
  00255	68 00 00 00 00	 push	 __ehhandler$?OnInitDialog@CUpdateTipDlg@@UAEHXZ
  0025a	64 a1 00 00 00
	00		 mov	 eax, DWORD PTR fs:__except_list
  00260	50		 push	 eax
  00261	64 89 25 00 00
	00 00		 mov	 DWORD PTR fs:__except_list, esp
  00268	b8 64 2a 00 00	 mov	 eax, 10852		; 00002a64H
  0026d	e8 00 00 00 00	 call	 __chkstk
  00272	a1 00 00 00 00	 mov	 eax, DWORD PTR ___security_cookie
  00277	89 45 c0	 mov	 DWORD PTR __$ArrayPad$[ebp], eax
  0027a	89 8d 90 d5 ff
	ff		 mov	 DWORD PTR _this$[ebp], ecx

; 59   : 	CDialog::OnInitDialog();

  00280	8b 8d 90 d5 ff
	ff		 mov	 ecx, DWORD PTR _this$[ebp]
  00286	e8 00 00 00 00	 call	 ?OnInitDialog@CDialog@@UAEHXZ ; CDialog::OnInitDialog

; 60   : 
; 61   : 	CMenu* pMenu = this->GetSystemMenu(FALSE);

  0028b	6a 00		 push	 0
  0028d	8b 8d 90 d5 ff
	ff		 mov	 ecx, DWORD PTR _this$[ebp]
  00293	e8 00 00 00 00	 call	 ?GetSystemMenu@CWnd@@QBEPAVCMenu@@H@Z ; CWnd::GetSystemMenu
  00298	89 45 f0	 mov	 DWORD PTR _pMenu$[ebp], eax

; 62   : 	pMenu->EnableMenuItem( SC_CLOSE, MF_BYCOMMAND|MF_GRAYED);

  0029b	6a 01		 push	 1
  0029d	68 60 f0 00 00	 push	 61536			; 0000f060H
  002a2	8b 4d f0	 mov	 ecx, DWORD PTR _pMenu$[ebp]
  002a5	e8 00 00 00 00	 call	 ?EnableMenuItem@CMenu@@QAEIII@Z ; CMenu::EnableMenuItem

; 63   : 
; 64   : 	WINDOWPLACEMENT wp;
; 65   : 	GetWindowPlacement(&wp);

  002aa	8d 45 c4	 lea	 eax, DWORD PTR _wp$[ebp]
  002ad	50		 push	 eax
  002ae	8b 8d 90 d5 ff
	ff		 mov	 ecx, DWORD PTR _this$[ebp]
  002b4	e8 00 00 00 00	 call	 ?GetWindowPlacement@CWnd@@QBEHPAUtagWINDOWPLACEMENT@@@Z ; CWnd::GetWindowPlacement

; 66   : 	wp.rcNormalPosition.bottom -= UPDATE_INFO_HEIGHT;

  002b9	8b 4d ec	 mov	 ecx, DWORD PTR _wp$[ebp+40]
  002bc	83 e9 64	 sub	 ecx, 100		; 00000064H
  002bf	89 4d ec	 mov	 DWORD PTR _wp$[ebp+40], ecx

; 67   : 	SetWindowPlacement(&wp);

  002c2	8d 55 c4	 lea	 edx, DWORD PTR _wp$[ebp]
  002c5	52		 push	 edx
  002c6	8b 8d 90 d5 ff
	ff		 mov	 ecx, DWORD PTR _this$[ebp]
  002cc	e8 00 00 00 00	 call	 ?SetWindowPlacement@CWnd@@QAEHPBUtagWINDOWPLACEMENT@@@Z ; CWnd::SetWindowPlacement

; 68   : 
; 69   : 	if(m_hWnd != NULL)

  002d1	8b 85 90 d5 ff
	ff		 mov	 eax, DWORD PTR _this$[ebp]
  002d7	83 78 20 00	 cmp	 DWORD PTR [eax+32], 0
  002db	74 1c		 je	 SHORT $L197592

; 70   : 	{
; 71   : 		::SetWindowPos(m_hWnd,HWND_TOPMOST,0,0,0,0,SWP_NOSIZE|SWP_NOMOVE);

  002dd	6a 03		 push	 3
  002df	6a 00		 push	 0
  002e1	6a 00		 push	 0
  002e3	6a 00		 push	 0
  002e5	6a 00		 push	 0
  002e7	6a ff		 push	 -1
  002e9	8b 8d 90 d5 ff
	ff		 mov	 ecx, DWORD PTR _this$[ebp]
  002ef	8b 51 20	 mov	 edx, DWORD PTR [ecx+32]
  002f2	52		 push	 edx
  002f3	ff 15 00 00 00
	00		 call	 DWORD PTR __imp__SetWindowPos@28
$L197592:

; 72   : 	}
; 73   : 
; 74   : 	if(m_nForceUpdate == MB_OK)

  002f9	8b 85 90 d5 ff
	ff		 mov	 eax, DWORD PTR _this$[ebp]
  002ff	83 78 74 00	 cmp	 DWORD PTR [eax+116], 0
  00303	0f 85 a6 00 00
	00		 jne	 $L197594

; 75   : 	{
; 76   : 		CWnd *pWnd = GetDlgItem(IDCANCEL);

  00309	6a 02		 push	 2
  0030b	8b 8d 90 d5 ff
	ff		 mov	 ecx, DWORD PTR _this$[ebp]
  00311	e8 00 00 00 00	 call	 ?GetDlgItem@CWnd@@QBEPAV1@H@Z ; CWnd::GetDlgItem
  00316	89 85 a8 d5 ff
	ff		 mov	 DWORD PTR _pWnd$197595[ebp], eax

; 77   : 		if(pWnd != NULL)

  0031c	83 bd a8 d5 ff
	ff 00		 cmp	 DWORD PTR _pWnd$197595[ebp], 0
  00323	74 0d		 je	 SHORT $L197596

; 78   : 		{
; 79   : 			pWnd->ShowWindow(SW_HIDE);

  00325	6a 00		 push	 0
  00327	8b 8d a8 d5 ff
	ff		 mov	 ecx, DWORD PTR _pWnd$197595[ebp]
  0032d	e8 00 00 00 00	 call	 ?ShowWindow@CWnd@@QAEHH@Z ; CWnd::ShowWindow
$L197596:

; 80   : 		}
; 81   : 
; 82   : 		pWnd = GetDlgItem(IDOK);

  00332	6a 01		 push	 1
  00334	8b 8d 90 d5 ff
	ff		 mov	 ecx, DWORD PTR _this$[ebp]
  0033a	e8 00 00 00 00	 call	 ?GetDlgItem@CWnd@@QBEPAV1@H@Z ; CWnd::GetDlgItem
  0033f	89 85 a8 d5 ff
	ff		 mov	 DWORD PTR _pWnd$197595[ebp], eax

; 83   : 		if(pWnd != NULL)

  00345	83 bd a8 d5 ff
	ff 00		 cmp	 DWORD PTR _pWnd$197595[ebp], 0
  0034c	74 61		 je	 SHORT $L197594

; 84   : 		{
; 85   : 			CRect rect;

  0034e	8d 8d 98 d5 ff
	ff		 lea	 ecx, DWORD PTR _rect$197598[ebp]
  00354	e8 00 00 00 00	 call	 ??0CRect@@QAE@XZ	; CRect::CRect

; 86   : 			pWnd->GetWindowRect(&rect);

  00359	8d 8d 98 d5 ff
	ff		 lea	 ecx, DWORD PTR _rect$197598[ebp]
  0035f	51		 push	 ecx
  00360	8b 8d a8 d5 ff
	ff		 mov	 ecx, DWORD PTR _pWnd$197595[ebp]
  00366	e8 00 00 00 00	 call	 ?GetWindowRect@CWnd@@QBEXPAUtagRECT@@@Z ; CWnd::GetWindowRect

; 87   : 			rect.left += 50;

  0036b	8b 95 98 d5 ff
	ff		 mov	 edx, DWORD PTR _rect$197598[ebp]
  00371	83 c2 32	 add	 edx, 50			; 00000032H
  00374	89 95 98 d5 ff
	ff		 mov	 DWORD PTR _rect$197598[ebp], edx

; 88   : 			rect.right += 50;

  0037a	8b 85 a0 d5 ff
	ff		 mov	 eax, DWORD PTR _rect$197598[ebp+8]
  00380	83 c0 32	 add	 eax, 50			; 00000032H
  00383	89 85 a0 d5 ff
	ff		 mov	 DWORD PTR _rect$197598[ebp+8], eax

; 89   : 			ScreenToClient(&rect);

  00389	8d 8d 98 d5 ff
	ff		 lea	 ecx, DWORD PTR _rect$197598[ebp]
  0038f	51		 push	 ecx
  00390	8b 8d 90 d5 ff
	ff		 mov	 ecx, DWORD PTR _this$[ebp]
  00396	e8 00 00 00 00	 call	 ?ScreenToClient@CWnd@@QBEXPAUtagRECT@@@Z ; CWnd::ScreenToClient

; 90   : 			pWnd->MoveWindow(&rect);

  0039b	6a 01		 push	 1
  0039d	8d 95 98 d5 ff
	ff		 lea	 edx, DWORD PTR _rect$197598[ebp]
  003a3	52		 push	 edx
  003a4	8b 8d a8 d5 ff
	ff		 mov	 ecx, DWORD PTR _pWnd$197595[ebp]
  003aa	e8 00 00 00 00	 call	 ?MoveWindow@CWnd@@QAEXPBUtagRECT@@H@Z ; CWnd::MoveWindow
$L197594:

; 91   : 		}
; 92   : 	}
; 93   : 
; 94   : 	m_linkUpdateInfo.SetLinkCursor( AfxGetApp()->LoadCursor(IDC_CURSOR1) );

  003af	68 90 00 00 00	 push	 144			; 00000090H
  003b4	e8 00 00 00 00	 call	 ?AfxGetApp@@YGPAVCWinApp@@XZ ; AfxGetApp
  003b9	8b c8		 mov	 ecx, eax
  003bb	e8 00 00 00 00	 call	 ?LoadCursorA@CWinApp@@QBEPAUHICON__@@I@Z ; CWinApp::LoadCursorA
  003c0	50		 push	 eax
  003c1	8b 8d 90 d5 ff
	ff		 mov	 ecx, DWORD PTR _this$[ebp]
  003c7	83 c1 7c	 add	 ecx, 124		; 0000007cH
  003ca	e8 00 00 00 00	 call	 ?SetLinkCursor@CHyperLink@@QAEXPAUHICON__@@@Z ; CHyperLink::SetLinkCursor

; 95   : 
; 96   : 	char szImgPath[MAX_PATH*2], szInfo[1024*10];
; 97   : 	CLhcImg::GetHomePath(szImgPath, MAX_PATH*2-1);

  003cf	68 07 02 00 00	 push	 519			; 00000207H
  003d4	8d 85 ac d5 ff
	ff		 lea	 eax, DWORD PTR _szImgPath$[ebp]
  003da	50		 push	 eax
  003db	e8 00 00 00 00	 call	 ?GetHomePath@CLhcImg@@SA_NQADH@Z ; CLhcImg::GetHomePath
  003e0	83 c4 08	 add	 esp, 8

; 98   : 	strcat(szImgPath, "\\res\\pic\\lhupd.img");

  003e3	68 00 00 00 00	 push	 OFFSET FLAT:$SG197601
  003e8	8d 8d ac d5 ff
	ff		 lea	 ecx, DWORD PTR _szImgPath$[ebp]
  003ee	51		 push	 ecx
  003ef	e8 00 00 00 00	 call	 _strcat
  003f4	83 c4 08	 add	 esp, 8

; 99   : 
; 100  : 	YL_Ini ini(szImgPath);

  003f7	8d 95 ac d5 ff
	ff		 lea	 edx, DWORD PTR _szImgPath$[ebp]
  003fd	52		 push	 edx
  003fe	8d 8d b4 d7 ff
	ff		 lea	 ecx, DWORD PTR _ini$[ebp]
  00404	e8 00 00 00 00	 call	 ??0YL_Ini@@QAE@PBD@Z	; YL_Ini::YL_Ini
  00409	c7 45 fc 00 00
	00 00		 mov	 DWORD PTR __$EHRec$[ebp+8], 0

; 101  : 	ini.GetString("NewestSoft", "intro", szInfo, 1024*10-1);

  00410	6a 00		 push	 0
  00412	68 ff 27 00 00	 push	 10239			; 000027ffH
  00417	8d 85 bc d7 ff
	ff		 lea	 eax, DWORD PTR _szInfo$[ebp]
  0041d	50		 push	 eax
  0041e	68 00 00 00 00	 push	 OFFSET FLAT:$SG197603
  00423	68 00 00 00 00	 push	 OFFSET FLAT:$SG197604
  00428	8d 8d b4 d7 ff
	ff		 lea	 ecx, DWORD PTR _ini$[ebp]
  0042e	e8 00 00 00 00	 call	 ?GetString@YL_Ini@@QBEKPBD0PADK0@Z ; YL_Ini::GetString

; 102  : 	m_strUpdateInfo = szInfo;

  00433	8d 8d bc d7 ff
	ff		 lea	 ecx, DWORD PTR _szInfo$[ebp]
  00439	51		 push	 ecx
  0043a	8b 8d 90 d5 ff
	ff		 mov	 ecx, DWORD PTR _this$[ebp]
  00440	83 c1 78	 add	 ecx, 120		; 00000078H
  00443	ff 15 00 00 00
	00		 call	 DWORD PTR __imp_??4?$CStringT@DV?$StrTraitMFC_DLL@DV?$ChTraitsCRT@D@ATL@@@@@ATL@@QAEAAV01@PBD@Z

; 103  : 	m_strUpdateInfo.Replace("||", "\r\n");

  00449	68 00 00 00 00	 push	 OFFSET FLAT:$SG197605
  0044e	68 00 00 00 00	 push	 OFFSET FLAT:$SG197606
  00453	8b 8d 90 d5 ff
	ff		 mov	 ecx, DWORD PTR _this$[ebp]
  00459	83 c1 78	 add	 ecx, 120		; 00000078H
  0045c	ff 15 00 00 00
	00		 call	 DWORD PTR __imp_?Replace@?$CStringT@DV?$StrTraitMFC_DLL@DV?$ChTraitsCRT@D@ATL@@@@@ATL@@QAEHPBD0@Z

; 104  : 	UpdateData(FALSE);

  00462	6a 00		 push	 0
  00464	8b 8d 90 d5 ff
	ff		 mov	 ecx, DWORD PTR _this$[ebp]
  0046a	e8 00 00 00 00	 call	 ?UpdateData@CWnd@@QAEHH@Z ; CWnd::UpdateData

; 105  :  
; 106  : 	return TRUE;

  0046f	c7 85 94 d5 ff
	ff 01 00 00 00	 mov	 DWORD PTR $T198194[ebp], 1
  00479	c7 45 fc ff ff
	ff ff		 mov	 DWORD PTR __$EHRec$[ebp+8], -1
  00480	8d 8d b4 d7 ff
	ff		 lea	 ecx, DWORD PTR _ini$[ebp]
  00486	e8 00 00 00 00	 call	 ??1YL_Ini@@UAE@XZ	; YL_Ini::~YL_Ini
  0048b	8b 85 94 d5 ff
	ff		 mov	 eax, DWORD PTR $T198194[ebp]

; 107  : }

  00491	8b 4d f4	 mov	 ecx, DWORD PTR __$EHRec$[ebp]
  00494	64 89 0d 00 00
	00 00		 mov	 DWORD PTR fs:__except_list, ecx
  0049b	8b 4d c0	 mov	 ecx, DWORD PTR __$ArrayPad$[ebp]
  0049e	e8 00 00 00 00	 call	 @__security_check_cookie@4
  004a3	8b e5		 mov	 esp, ebp
  004a5	5d		 pop	 ebp
  004a6	c3		 ret	 0
_TEXT	ENDS
text$x	SEGMENT
$L198195:
  0003c	8d 8d b4 d7 ff
	ff		 lea	 ecx, DWORD PTR _ini$[ebp]
  00042	e9 00 00 00 00	 jmp	 ??1YL_Ini@@UAE@XZ	; YL_Ini::~YL_Ini
__ehhandler$?OnInitDialog@CUpdateTipDlg@@UAEHXZ:
  00047	b8 00 00 00 00	 mov	 eax, OFFSET FLAT:$T198197
  0004c	e9 00 00 00 00	 jmp	 ___CxxFrameHandler
text$x	ENDS
?OnInitDialog@CUpdateTipDlg@@UAEHXZ ENDP		; CUpdateTipDlg::OnInitDialog
;	COMDAT ?bViewInfo@?1??OnViewUpdateInfo@CUpdateTipDlg@@QAEJIJ@Z@4_NA
_BSS	SEGMENT
?bViewInfo@?1??OnViewUpdateInfo@CUpdateTipDlg@@QAEJIJ@Z@4_NA DB 01H DUP (?) ; `CUpdateTipDlg::OnViewUpdateInfo'::`2'::bViewInfo
; Function compile flags: /Odt
_BSS	ENDS
_TEXT	SEGMENT
_this$ = -48						; size = 4
_wp$ = -44						; size = 44
_wParam$ = 8						; size = 4
_lParam$ = 12						; size = 4
?OnViewUpdateInfo@CUpdateTipDlg@@QAEJIJ@Z PROC NEAR	; CUpdateTipDlg::OnViewUpdateInfo
; _this$ = ecx

; 110  : {

  004b0	55		 push	 ebp
  004b1	8b ec		 mov	 ebp, esp
  004b3	83 ec 30	 sub	 esp, 48			; 00000030H
  004b6	89 4d d0	 mov	 DWORD PTR _this$[ebp], ecx

; 111  : 	static bool bViewInfo = false;
; 112  : 
; 113  : 	WINDOWPLACEMENT wp;
; 114  : 	GetWindowPlacement(&wp);

  004b9	8d 45 d4	 lea	 eax, DWORD PTR _wp$[ebp]
  004bc	50		 push	 eax
  004bd	8b 4d d0	 mov	 ecx, DWORD PTR _this$[ebp]
  004c0	e8 00 00 00 00	 call	 ?GetWindowPlacement@CWnd@@QBEHPAUtagWINDOWPLACEMENT@@@Z ; CWnd::GetWindowPlacement

; 115  : 	if(bViewInfo)

  004c5	0f b6 0d 00 00
	00 00		 movzx	 ecx, BYTE PTR ?bViewInfo@?1??OnViewUpdateInfo@CUpdateTipDlg@@QAEJIJ@Z@4_NA
  004cc	85 c9		 test	 ecx, ecx
  004ce	74 0b		 je	 SHORT $L197616

; 116  : 	{
; 117  : 		wp.rcNormalPosition.bottom -= UPDATE_INFO_HEIGHT;

  004d0	8b 55 fc	 mov	 edx, DWORD PTR _wp$[ebp+40]
  004d3	83 ea 64	 sub	 edx, 100		; 00000064H
  004d6	89 55 fc	 mov	 DWORD PTR _wp$[ebp+40], edx

; 118  : 	}
; 119  : 	else

  004d9	eb 09		 jmp	 SHORT $L197617
$L197616:

; 120  : 	{
; 121  : 		wp.rcNormalPosition.bottom += UPDATE_INFO_HEIGHT;

  004db	8b 45 fc	 mov	 eax, DWORD PTR _wp$[ebp+40]
  004de	83 c0 64	 add	 eax, 100		; 00000064H
  004e1	89 45 fc	 mov	 DWORD PTR _wp$[ebp+40], eax
$L197617:

; 122  : 	}
; 123  : 	SetWindowPlacement(&wp);

  004e4	8d 4d d4	 lea	 ecx, DWORD PTR _wp$[ebp]
  004e7	51		 push	 ecx
  004e8	8b 4d d0	 mov	 ecx, DWORD PTR _this$[ebp]
  004eb	e8 00 00 00 00	 call	 ?SetWindowPlacement@CWnd@@QAEHPBUtagWINDOWPLACEMENT@@@Z ; CWnd::SetWindowPlacement

; 124  : 
; 125  : 	bViewInfo = !bViewInfo;

  004f0	0f b6 15 00 00
	00 00		 movzx	 edx, BYTE PTR ?bViewInfo@?1??OnViewUpdateInfo@CUpdateTipDlg@@QAEJIJ@Z@4_NA
  004f7	f7 da		 neg	 edx
  004f9	1b d2		 sbb	 edx, edx
  004fb	42		 inc	 edx
  004fc	88 15 00 00 00
	00		 mov	 BYTE PTR ?bViewInfo@?1??OnViewUpdateInfo@CUpdateTipDlg@@QAEJIJ@Z@4_NA, dl

; 126  : 	return 0;

  00502	33 c0		 xor	 eax, eax

; 127  : }

  00504	8b e5		 mov	 esp, ebp
  00506	5d		 pop	 ebp
  00507	c2 08 00	 ret	 8
?OnViewUpdateInfo@CUpdateTipDlg@@QAEJIJ@Z ENDP		; CUpdateTipDlg::OnViewUpdateInfo
; Function compile flags: /Odt
; File d:\program files (x86)\microsoft visual studio .net 2003\vc7\atlmfc\include\atltypes.inl
_TEXT	ENDS
;	COMDAT ??0CRect@@QAE@XZ
_TEXT	SEGMENT
_this$ = -4						; size = 4
??0CRect@@QAE@XZ PROC NEAR				; CRect::CRect, COMDAT
; _this$ = ecx

; 110  : 	{ /* random filled */ }

  00000	55		 push	 ebp
  00001	8b ec		 mov	 ebp, esp
  00003	51		 push	 ecx
  00004	89 4d fc	 mov	 DWORD PTR _this$[ebp], ecx
  00007	8b 45 fc	 mov	 eax, DWORD PTR _this$[ebp]
  0000a	8b e5		 mov	 esp, ebp
  0000c	5d		 pop	 ebp
  0000d	c3		 ret	 0
??0CRect@@QAE@XZ ENDP					; CRect::CRect
; Function compile flags: /Odt
_TEXT	ENDS
;	COMDAT ??BCRect@@QAEPAUtagRECT@@XZ
_TEXT	SEGMENT
_this$ = -4						; size = 4
??BCRect@@QAEPAUtagRECT@@XZ PROC NEAR			; CRect::operator tagRECT *, COMDAT
; _this$ = ecx

; 143  : 	{ return this; }

  00000	55		 push	 ebp
  00001	8b ec		 mov	 ebp, esp
  00003	51		 push	 ecx
  00004	89 4d fc	 mov	 DWORD PTR _this$[ebp], ecx
  00007	8b 45 fc	 mov	 eax, DWORD PTR _this$[ebp]
  0000a	8b e5		 mov	 esp, ebp
  0000c	5d		 pop	 ebp
  0000d	c3		 ret	 0
??BCRect@@QAEPAUtagRECT@@XZ ENDP			; CRect::operator tagRECT *
; Function compile flags: /Odt
; File d:\program files (x86)\microsoft visual studio .net 2003\vc7\atlmfc\include\afx.inl
_TEXT	ENDS
;	COMDAT ?Serialize@CObject@@UAEXAAVCArchive@@@Z
_TEXT	SEGMENT
_this$ = -4						; size = 4
___formal$ = 8						; size = 4
?Serialize@CObject@@UAEXAAVCArchive@@@Z PROC NEAR	; CObject::Serialize, COMDAT
; _this$ = ecx

; 25   : 	{ /* CObject does not serialize anything by default */ }

  00000	55		 push	 ebp
  00001	8b ec		 mov	 ebp, esp
  00003	51		 push	 ecx
  00004	89 4d fc	 mov	 DWORD PTR _this$[ebp], ecx
  00007	8b e5		 mov	 esp, ebp
  00009	5d		 pop	 ebp
  0000a	c2 04 00	 ret	 4
?Serialize@CObject@@UAEXAAVCArchive@@@Z ENDP		; CObject::Serialize
_TEXT	ENDS
EXTRN	??3@YAXPAX@Z:NEAR				; operator delete
; Function compile flags: /Odt
;	COMDAT ??3CObject@@SGXPAX@Z
_TEXT	SEGMENT
_p$ = 8							; size = 4
??3CObject@@SGXPAX@Z PROC NEAR				; CObject::operator delete, COMDAT

; 31   : 	{ ::operator delete(p); }

  00000	55		 push	 ebp
  00001	8b ec		 mov	 ebp, esp
  00003	8b 45 08	 mov	 eax, DWORD PTR _p$[ebp]
  00006	50		 push	 eax
  00007	e8 00 00 00 00	 call	 ??3@YAXPAX@Z		; operator delete
  0000c	83 c4 04	 add	 esp, 4
  0000f	5d		 pop	 ebp
  00010	c2 04 00	 ret	 4
??3CObject@@SGXPAX@Z ENDP				; CObject::operator delete
; Function compile flags: /Odt
_TEXT	ENDS
;	COMDAT ?AssertValid@CObject@@UBEXXZ
_TEXT	SEGMENT
_this$ = -4						; size = 4
?AssertValid@CObject@@UBEXXZ PROC NEAR			; CObject::AssertValid, COMDAT
; _this$ = ecx

; 41   : 	{ /* no asserts in release builds */ }

  00000	55		 push	 ebp
  00001	8b ec		 mov	 ebp, esp
  00003	51		 push	 ecx
  00004	89 4d fc	 mov	 DWORD PTR _this$[ebp], ecx
  00007	8b e5		 mov	 esp, ebp
  00009	5d		 pop	 ebp
  0000a	c3		 ret	 0
?AssertValid@CObject@@UBEXXZ ENDP			; CObject::AssertValid
; Function compile flags: /Odt
_TEXT	ENDS
;	COMDAT ?Dump@CObject@@UBEXAAVCDumpContext@@@Z
_TEXT	SEGMENT
_this$ = -4						; size = 4
___formal$ = 8						; size = 4
?Dump@CObject@@UBEXAAVCDumpContext@@@Z PROC NEAR	; CObject::Dump, COMDAT
; _this$ = ecx

; 43   : 	{ /* no dumping in release builds */ }

  00000	55		 push	 ebp
  00001	8b ec		 mov	 ebp, esp
  00003	51		 push	 ecx
  00004	89 4d fc	 mov	 DWORD PTR _this$[ebp], ecx
  00007	8b e5		 mov	 esp, ebp
  00009	5d		 pop	 ebp
  0000a	c2 04 00	 ret	 4
?Dump@CObject@@UBEXAAVCDumpContext@@@Z ENDP		; CObject::Dump
_TEXT	ENDS
EXTRN	?AfxGetModuleState@@YGPAVAFX_MODULE_STATE@@XZ:NEAR ; AfxGetModuleState
; Function compile flags: /Odt
; File d:\program files (x86)\microsoft visual studio .net 2003\vc7\atlmfc\include\afxwin1.inl
;	COMDAT ?AfxGetApp@@YGPAVCWinApp@@XZ
_TEXT	SEGMENT
?AfxGetApp@@YGPAVCWinApp@@XZ PROC NEAR			; AfxGetApp, COMDAT

; 21   : 	{ return afxCurrentWinApp; }

  00000	55		 push	 ebp
  00001	8b ec		 mov	 ebp, esp
  00003	e8 00 00 00 00	 call	 ?AfxGetModuleState@@YGPAVAFX_MODULE_STATE@@XZ ; AfxGetModuleState
  00008	8b 40 04	 mov	 eax, DWORD PTR [eax+4]
  0000b	5d		 pop	 ebp
  0000c	c3		 ret	 0
?AfxGetApp@@YGPAVCWinApp@@XZ ENDP			; AfxGetApp
_TEXT	ENDS
EXTRN	__imp__EnableMenuItem@12:NEAR
; Function compile flags: /Odt
;	COMDAT ?EnableMenuItem@CMenu@@QAEIII@Z
_TEXT	SEGMENT
_this$ = -4						; size = 4
_nIDEnableItem$ = 8					; size = 4
_nEnable$ = 12						; size = 4
?EnableMenuItem@CMenu@@QAEIII@Z PROC NEAR		; CMenu::EnableMenuItem, COMDAT
; _this$ = ecx

; 855  : 	{ ASSERT(::IsMenu(m_hMenu)); return ::EnableMenuItem(m_hMenu, nIDEnableItem, nEnable); }

  00000	55		 push	 ebp
  00001	8b ec		 mov	 ebp, esp
  00003	51		 push	 ecx
  00004	89 4d fc	 mov	 DWORD PTR _this$[ebp], ecx
  00007	8b 45 0c	 mov	 eax, DWORD PTR _nEnable$[ebp]
  0000a	50		 push	 eax
  0000b	8b 4d 08	 mov	 ecx, DWORD PTR _nIDEnableItem$[ebp]
  0000e	51		 push	 ecx
  0000f	8b 55 fc	 mov	 edx, DWORD PTR _this$[ebp]
  00012	8b 42 04	 mov	 eax, DWORD PTR [edx+4]
  00015	50		 push	 eax
  00016	ff 15 00 00 00
	00		 call	 DWORD PTR __imp__EnableMenuItem@12
  0001c	8b e5		 mov	 esp, ebp
  0001e	5d		 pop	 ebp
  0001f	c2 08 00	 ret	 8
?EnableMenuItem@CMenu@@QAEIII@Z ENDP			; CMenu::EnableMenuItem
; Function compile flags: /Odt
; File d:\program files (x86)\microsoft visual studio .net 2003\vc7\atlmfc\include\afxwin2.inl
_TEXT	ENDS
;	COMDAT ?GetSafeHwnd@CWnd@@QBEPAUHWND__@@XZ
_TEXT	SEGMENT
tv66 = -8						; size = 4
_this$ = -4						; size = 4
?GetSafeHwnd@CWnd@@QBEPAUHWND__@@XZ PROC NEAR		; CWnd::GetSafeHwnd, COMDAT
; _this$ = ecx

; 27   : 	{ return this == NULL ? NULL : m_hWnd; }

  00000	55		 push	 ebp
  00001	8b ec		 mov	 ebp, esp
  00003	83 ec 08	 sub	 esp, 8
  00006	89 4d fc	 mov	 DWORD PTR _this$[ebp], ecx
  00009	83 7d fc 00	 cmp	 DWORD PTR _this$[ebp], 0
  0000d	75 09		 jne	 SHORT $L198223
  0000f	c7 45 f8 00 00
	00 00		 mov	 DWORD PTR tv66[ebp], 0
  00016	eb 09		 jmp	 SHORT $L198224
$L198223:
  00018	8b 45 fc	 mov	 eax, DWORD PTR _this$[ebp]
  0001b	8b 48 20	 mov	 ecx, DWORD PTR [eax+32]
  0001e	89 4d f8	 mov	 DWORD PTR tv66[ebp], ecx
$L198224:
  00021	8b 45 f8	 mov	 eax, DWORD PTR tv66[ebp]
  00024	8b e5		 mov	 esp, ebp
  00026	5d		 pop	 ebp
  00027	c3		 ret	 0
?GetSafeHwnd@CWnd@@QBEPAUHWND__@@XZ ENDP		; CWnd::GetSafeHwnd
_TEXT	ENDS
EXTRN	?FromHandle@CMenu@@SGPAV1@PAUHMENU__@@@Z:NEAR	; CMenu::FromHandle
EXTRN	__imp__GetSystemMenu@8:NEAR
; Function compile flags: /Odt
;	COMDAT ?GetSystemMenu@CWnd@@QBEPAVCMenu@@H@Z
_TEXT	SEGMENT
_this$ = -4						; size = 4
_bRevert$ = 8						; size = 4
?GetSystemMenu@CWnd@@QBEPAVCMenu@@H@Z PROC NEAR		; CWnd::GetSystemMenu, COMDAT
; _this$ = ecx

; 71   : 	{ ASSERT(::IsWindow(m_hWnd)); return CMenu::FromHandle(::GetSystemMenu(m_hWnd, bRevert)); }

  00000	55		 push	 ebp
  00001	8b ec		 mov	 ebp, esp
  00003	51		 push	 ecx
  00004	89 4d fc	 mov	 DWORD PTR _this$[ebp], ecx
  00007	8b 45 08	 mov	 eax, DWORD PTR _bRevert$[ebp]
  0000a	50		 push	 eax
  0000b	8b 4d fc	 mov	 ecx, DWORD PTR _this$[ebp]
  0000e	8b 51 20	 mov	 edx, DWORD PTR [ecx+32]
  00011	52		 push	 edx
  00012	ff 15 00 00 00
	00		 call	 DWORD PTR __imp__GetSystemMenu@8
  00018	50		 push	 eax
  00019	e8 00 00 00 00	 call	 ?FromHandle@CMenu@@SGPAV1@PAUHMENU__@@@Z ; CMenu::FromHandle
  0001e	8b e5		 mov	 esp, ebp
  00020	5d		 pop	 ebp
  00021	c2 04 00	 ret	 4
?GetSystemMenu@CWnd@@QBEPAVCMenu@@H@Z ENDP		; CWnd::GetSystemMenu
_TEXT	ENDS
EXTRN	?MoveWindow@CWnd@@QAEXHHHHH@Z:NEAR		; CWnd::MoveWindow
; Function compile flags: /Odt
;	COMDAT ?MoveWindow@CWnd@@QAEXPBUtagRECT@@H@Z
_TEXT	SEGMENT
_this$ = -4						; size = 4
_lpRect$ = 8						; size = 4
_bRepaint$ = 12						; size = 4
?MoveWindow@CWnd@@QAEXPBUtagRECT@@H@Z PROC NEAR		; CWnd::MoveWindow, COMDAT
; _this$ = ecx

; 89   : 	{ MoveWindow(lpRect->left, lpRect->top, lpRect->right - lpRect->left,

  00000	55		 push	 ebp
  00001	8b ec		 mov	 ebp, esp
  00003	51		 push	 ecx
  00004	89 4d fc	 mov	 DWORD PTR _this$[ebp], ecx

; 90   : 		lpRect->bottom - lpRect->top, bRepaint); }

  00007	8b 45 0c	 mov	 eax, DWORD PTR _bRepaint$[ebp]
  0000a	50		 push	 eax
  0000b	8b 4d 08	 mov	 ecx, DWORD PTR _lpRect$[ebp]
  0000e	8b 55 08	 mov	 edx, DWORD PTR _lpRect$[ebp]
  00011	8b 41 0c	 mov	 eax, DWORD PTR [ecx+12]
  00014	2b 42 04	 sub	 eax, DWORD PTR [edx+4]
  00017	50		 push	 eax
  00018	8b 4d 08	 mov	 ecx, DWORD PTR _lpRect$[ebp]
  0001b	8b 55 08	 mov	 edx, DWORD PTR _lpRect$[ebp]
  0001e	8b 41 08	 mov	 eax, DWORD PTR [ecx+8]
  00021	2b 02		 sub	 eax, DWORD PTR [edx]
  00023	50		 push	 eax
  00024	8b 4d 08	 mov	 ecx, DWORD PTR _lpRect$[ebp]
  00027	8b 51 04	 mov	 edx, DWORD PTR [ecx+4]
  0002a	52		 push	 edx
  0002b	8b 45 08	 mov	 eax, DWORD PTR _lpRect$[ebp]
  0002e	8b 08		 mov	 ecx, DWORD PTR [eax]
  00030	51		 push	 ecx
  00031	8b 4d fc	 mov	 ecx, DWORD PTR _this$[ebp]
  00034	e8 00 00 00 00	 call	 ?MoveWindow@CWnd@@QAEXHHHHH@Z ; CWnd::MoveWindow
  00039	8b e5		 mov	 esp, ebp
  0003b	5d		 pop	 ebp
  0003c	c2 08 00	 ret	 8
?MoveWindow@CWnd@@QAEXPBUtagRECT@@H@Z ENDP		; CWnd::MoveWindow
_TEXT	ENDS
EXTRN	__imp__GetWindowRect@8:NEAR
; Function compile flags: /Odt
;	COMDAT ?GetWindowRect@CWnd@@QBEXPAUtagRECT@@@Z
_TEXT	SEGMENT
_this$ = -4						; size = 4
_lpRect$ = 8						; size = 4
?GetWindowRect@CWnd@@QBEXPAUtagRECT@@@Z PROC NEAR	; CWnd::GetWindowRect, COMDAT
; _this$ = ecx

; 105  : 	{ ASSERT(::IsWindow(m_hWnd)); ::GetWindowRect(m_hWnd, lpRect); }

  00000	55		 push	 ebp
  00001	8b ec		 mov	 ebp, esp
  00003	51		 push	 ecx
  00004	89 4d fc	 mov	 DWORD PTR _this$[ebp], ecx
  00007	8b 45 08	 mov	 eax, DWORD PTR _lpRect$[ebp]
  0000a	50		 push	 eax
  0000b	8b 4d fc	 mov	 ecx, DWORD PTR _this$[ebp]
  0000e	8b 51 20	 mov	 edx, DWORD PTR [ecx+32]
  00011	52		 push	 edx
  00012	ff 15 00 00 00
	00		 call	 DWORD PTR __imp__GetWindowRect@8
  00018	8b e5		 mov	 esp, ebp
  0001a	5d		 pop	 ebp
  0001b	c2 04 00	 ret	 4
?GetWindowRect@CWnd@@QBEXPAUtagRECT@@@Z ENDP		; CWnd::GetWindowRect
_TEXT	ENDS
EXTRN	__imp__ClientToScreen@8:NEAR
; Function compile flags: /Odt
;	COMDAT ?ClientToScreen@CWnd@@QBEXPAUtagPOINT@@@Z
_TEXT	SEGMENT
_this$ = -4						; size = 4
_lpPoint$ = 8						; size = 4
?ClientToScreen@CWnd@@QBEXPAUtagPOINT@@@Z PROC NEAR	; CWnd::ClientToScreen, COMDAT
; _this$ = ecx

; 113  : 	{ ASSERT(::IsWindow(m_hWnd)); ::ClientToScreen(m_hWnd, lpPoint); }

  00000	55		 push	 ebp
  00001	8b ec		 mov	 ebp, esp
  00003	51		 push	 ecx
  00004	89 4d fc	 mov	 DWORD PTR _this$[ebp], ecx
  00007	8b 45 08	 mov	 eax, DWORD PTR _lpPoint$[ebp]
  0000a	50		 push	 eax
  0000b	8b 4d fc	 mov	 ecx, DWORD PTR _this$[ebp]
  0000e	8b 51 20	 mov	 edx, DWORD PTR [ecx+32]
  00011	52		 push	 edx
  00012	ff 15 00 00 00
	00		 call	 DWORD PTR __imp__ClientToScreen@8
  00018	8b e5		 mov	 esp, ebp
  0001a	5d		 pop	 ebp
  0001b	c2 04 00	 ret	 4
?ClientToScreen@CWnd@@QBEXPAUtagPOINT@@@Z ENDP		; CWnd::ClientToScreen
_TEXT	ENDS
EXTRN	__imp__GetParent@4:NEAR
EXTRN	?FromHandle@CWnd@@SGPAV1@PAUHWND__@@@Z:NEAR	; CWnd::FromHandle
; Function compile flags: /Odt
;	COMDAT ?GetParent@CWnd@@QBEPAV1@XZ
_TEXT	SEGMENT
_this$ = -4						; size = 4
?GetParent@CWnd@@QBEPAV1@XZ PROC NEAR			; CWnd::GetParent, COMDAT
; _this$ = ecx

; 282  : 	{ ASSERT(::IsWindow(m_hWnd)); return CWnd::FromHandle(::GetParent(m_hWnd)); }

  00000	55		 push	 ebp
  00001	8b ec		 mov	 ebp, esp
  00003	51		 push	 ecx
  00004	89 4d fc	 mov	 DWORD PTR _this$[ebp], ecx
  00007	8b 45 fc	 mov	 eax, DWORD PTR _this$[ebp]
  0000a	8b 48 20	 mov	 ecx, DWORD PTR [eax+32]
  0000d	51		 push	 ecx
  0000e	ff 15 00 00 00
	00		 call	 DWORD PTR __imp__GetParent@4
  00014	50		 push	 eax
  00015	e8 00 00 00 00	 call	 ?FromHandle@CWnd@@SGPAV1@PAUHWND__@@@Z ; CWnd::FromHandle
  0001a	8b e5		 mov	 esp, ebp
  0001c	5d		 pop	 ebp
  0001d	c3		 ret	 0
?GetParent@CWnd@@QBEPAV1@XZ ENDP			; CWnd::GetParent
; Function compile flags: /Odt
_TEXT	ENDS
;	COMDAT ?DoDataExchange@CWnd@@MAEXPAVCDataExchange@@@Z
_TEXT	SEGMENT
_this$ = -4						; size = 4
___formal$ = 8						; size = 4
?DoDataExchange@CWnd@@MAEXPAVCDataExchange@@@Z PROC NEAR ; CWnd::DoDataExchange, COMDAT
; _this$ = ecx

; 545  : 	{ } // default does nothing

  00000	55		 push	 ebp
  00001	8b ec		 mov	 ebp, esp
  00003	51		 push	 ecx
  00004	89 4d fc	 mov	 DWORD PTR _this$[ebp], ecx
  00007	8b e5		 mov	 esp, ebp
  00009	5d		 pop	 ebp
  0000a	c2 04 00	 ret	 4
?DoDataExchange@CWnd@@MAEXPAVCDataExchange@@@Z ENDP	; CWnd::DoDataExchange
_TEXT	ENDS
EXTRN	__imp__EnableWindow@8:NEAR
; Function compile flags: /Odt
;	COMDAT ?BeginModalState@CWnd@@UAEXXZ
_TEXT	SEGMENT
_this$ = -4						; size = 4
?BeginModalState@CWnd@@UAEXXZ PROC NEAR			; CWnd::BeginModalState, COMDAT
; _this$ = ecx

; 549  : 	{ ::EnableWindow(m_hWnd, FALSE); }

  00000	55		 push	 ebp
  00001	8b ec		 mov	 ebp, esp
  00003	51		 push	 ecx
  00004	89 4d fc	 mov	 DWORD PTR _this$[ebp], ecx
  00007	6a 00		 push	 0
  00009	8b 45 fc	 mov	 eax, DWORD PTR _this$[ebp]
  0000c	8b 48 20	 mov	 ecx, DWORD PTR [eax+32]
  0000f	51		 push	 ecx
  00010	ff 15 00 00 00
	00		 call	 DWORD PTR __imp__EnableWindow@8
  00016	8b e5		 mov	 esp, ebp
  00018	5d		 pop	 ebp
  00019	c3		 ret	 0
?BeginModalState@CWnd@@UAEXXZ ENDP			; CWnd::BeginModalState
; Function compile flags: /Odt
_TEXT	ENDS
;	COMDAT ?EndModalState@CWnd@@UAEXXZ
_TEXT	SEGMENT
_this$ = -4						; size = 4
?EndModalState@CWnd@@UAEXXZ PROC NEAR			; CWnd::EndModalState, COMDAT
; _this$ = ecx

; 551  : 	{ ::EnableWindow(m_hWnd, TRUE); }

  00000	55		 push	 ebp
  00001	8b ec		 mov	 ebp, esp
  00003	51		 push	 ecx
  00004	89 4d fc	 mov	 DWORD PTR _this$[ebp], ecx
  00007	6a 01		 push	 1
  00009	8b 45 fc	 mov	 eax, DWORD PTR _this$[ebp]
  0000c	8b 48 20	 mov	 ecx, DWORD PTR [eax+32]
  0000f	51		 push	 ecx
  00010	ff 15 00 00 00
	00		 call	 DWORD PTR __imp__EnableWindow@8
  00016	8b e5		 mov	 esp, ebp
  00018	5d		 pop	 ebp
  00019	c3		 ret	 0
?EndModalState@CWnd@@UAEXXZ ENDP			; CWnd::EndModalState
; Function compile flags: /Odt
_TEXT	ENDS
;	COMDAT ?Create@CDialog@@UAEHIPAVCWnd@@@Z
_TEXT	SEGMENT
_this$ = -4						; size = 4
_nIDTemplate$ = 8					; size = 4
_pParentWnd$ = 12					; size = 4
?Create@CDialog@@UAEHIPAVCWnd@@@Z PROC NEAR		; CDialog::Create, COMDAT
; _this$ = ecx

; 569  : 	{ return Create(MAKEINTRESOURCE(nIDTemplate), pParentWnd); }

  00000	55		 push	 ebp
  00001	8b ec		 mov	 ebp, esp
  00003	51		 push	 ecx
  00004	89 4d fc	 mov	 DWORD PTR _this$[ebp], ecx
  00007	8b 45 0c	 mov	 eax, DWORD PTR _pParentWnd$[ebp]
  0000a	50		 push	 eax
  0000b	0f b7 4d 08	 movzx	 ecx, WORD PTR _nIDTemplate$[ebp]
  0000f	51		 push	 ecx
  00010	8b 55 fc	 mov	 edx, DWORD PTR _this$[ebp]
  00013	8b 02		 mov	 eax, DWORD PTR [edx]
  00015	8b 4d fc	 mov	 ecx, DWORD PTR _this$[ebp]
  00018	ff 90 3c 01 00
	00		 call	 DWORD PTR [eax+316]
  0001e	8b e5		 mov	 esp, ebp
  00020	5d		 pop	 ebp
  00021	c2 08 00	 ret	 8
?Create@CDialog@@UAEHIPAVCWnd@@@Z ENDP			; CDialog::Create
_TEXT	ENDS
EXTRN	?AfxFindResourceHandle@@YGPAUHINSTANCE__@@PBD0@Z:NEAR ; AfxFindResourceHandle
EXTRN	__imp__LoadCursorA@8:NEAR
; Function compile flags: /Odt
;	COMDAT ?LoadCursorA@CWinApp@@QBEPAUHICON__@@I@Z
_TEXT	SEGMENT
_this$ = -4						; size = 4
_nIDResource$ = 8					; size = 4
?LoadCursorA@CWinApp@@QBEPAUHICON__@@I@Z PROC NEAR	; CWinApp::LoadCursorA, COMDAT
; _this$ = ecx

; 1004 : 	{ return ::LoadCursor(AfxFindResourceHandle(MAKEINTRESOURCE(nIDResource),

  00000	55		 push	 ebp
  00001	8b ec		 mov	 ebp, esp
  00003	51		 push	 ecx
  00004	89 4d fc	 mov	 DWORD PTR _this$[ebp], ecx

; 1005 : 		RT_GROUP_CURSOR), MAKEINTRESOURCE(nIDResource)); }

  00007	0f b7 45 08	 movzx	 eax, WORD PTR _nIDResource$[ebp]
  0000b	50		 push	 eax
  0000c	6a 0c		 push	 12			; 0000000cH
  0000e	0f b7 4d 08	 movzx	 ecx, WORD PTR _nIDResource$[ebp]
  00012	51		 push	 ecx
  00013	e8 00 00 00 00	 call	 ?AfxFindResourceHandle@@YGPAUHINSTANCE__@@PBD0@Z ; AfxFindResourceHandle
  00018	50		 push	 eax
  00019	ff 15 00 00 00
	00		 call	 DWORD PTR __imp__LoadCursorA@8
  0001f	8b e5		 mov	 esp, ebp
  00021	5d		 pop	 ebp
  00022	c2 04 00	 ret	 4
?LoadCursorA@CWinApp@@QBEPAUHICON__@@I@Z ENDP		; CWinApp::LoadCursorA
_TEXT	ENDS
END
