; Listing generated by Microsoft (R) Optimizing Compiler Version 13.10.3077 

	TITLE	.\src\module\GamePanel\WebGamePlayingWnd.cpp
	.386P
include listing.inc
if @Version gt 510
.model FLAT
else
_TEXT	SEGMENT PARA USE32 PUBLIC 'CODE'
_TEXT	ENDS
_DATA	SEGMENT DWORD USE32 PUBLIC 'DATA'
_DATA	ENDS
CONST	SEGMENT DWORD USE32 PUBLIC 'CONST'
CONST	ENDS
_BSS	SEGMENT DWORD USE32 PUBLIC 'BSS'
_BSS	ENDS
$$SYMBOLS	SEGMENT BYTE USE32 'DEBSYM'
$$SYMBOLS	ENDS
$$TYPES	SEGMENT BYTE USE32 'DEBTYP'
$$TYPES	ENDS
_TLS	SEGMENT DWORD USE32 PUBLIC 'TLS'
_TLS	ENDS
;	COMDAT ??_C@_0P@CLMBAKJD@JSCall?5Error?3?6?$AA@
CONST	SEGMENT DWORD USE32 PUBLIC 'CONST'
CONST	ENDS
rdata$r	SEGMENT DWORD USE32 PUBLIC 'CONST'
rdata$r	ENDS
xdata$x	SEGMENT DWORD USE32 PUBLIC 'CONST'
xdata$x	ENDS
text$AFX_COL1	SEGMENT PARA USE32 PUBLIC ''
text$AFX_COL1	ENDS
text$yc	SEGMENT PARA USE32 PUBLIC 'CODE'
text$yc	ENDS
CRT$XCA	SEGMENT DWORD USE32 PUBLIC 'DATA'
CRT$XCA	ENDS
CRT$XCU	SEGMENT DWORD USE32 PUBLIC 'DATA'
CRT$XCU	ENDS
CRT$XCL	SEGMENT DWORD USE32 PUBLIC 'DATA'
CRT$XCL	ENDS
CRT$XCC	SEGMENT DWORD USE32 PUBLIC 'DATA'
CRT$XCC	ENDS
CRT$XCZ	SEGMENT DWORD USE32 PUBLIC 'DATA'
CRT$XCZ	ENDS
text$yd	SEGMENT PARA USE32 PUBLIC 'CODE'
text$yd	ENDS
ATL$__m	SEGMENT DWORD USE32 PUBLIC ''
ATL$__m	ENDS
ATL$__z	SEGMENT DWORD USE32 PUBLIC ''
ATL$__z	ENDS
ATL$__a	SEGMENT DWORD USE32 PUBLIC ''
ATL$__a	ENDS
;	COMDAT ?ILayoutChangeOb_LayerChanged@ILayoutChangeObserver@@UAEXV?$basic_string@DU?$char_traits@D@std@@V?$allocator@D@2@@std@@00@Z
_TEXT	SEGMENT PARA USE32 PUBLIC 'CODE'
_TEXT	ENDS
;	COMDAT ?ILayoutChangeOb_PaneChanged@ILayoutChangeObserver@@UAEXV?$basic_string@DU?$char_traits@D@std@@V?$allocator@D@2@@std@@0@Z
_TEXT	SEGMENT PARA USE32 PUBLIC 'CODE'
_TEXT	ENDS
;	COMDAT ?ILayoutChangeOb_SkinChanged@ILayoutChangeObserver@@UAEXV?$basic_string@DU?$char_traits@D@std@@V?$allocator@D@2@@std@@0@Z
_TEXT	SEGMENT PARA USE32 PUBLIC 'CODE'
_TEXT	ENDS
;	COMDAT ?ILayoutChangeOb_ColorChanged@ILayoutChangeObserver@@UAEXXZ
_TEXT	SEGMENT PARA USE32 PUBLIC 'CODE'
_TEXT	ENDS
;	COMDAT ?ILayoutChangeOb_ColorChanging@ILayoutChangeObserver@@UAEXXZ
_TEXT	SEGMENT PARA USE32 PUBLIC 'CODE'
_TEXT	ENDS
;	COMDAT ?ILayoutChangeOb_UpdateLayout@ILayoutChangeObserver@@UAEXPAUHWND__@@@Z
_TEXT	SEGMENT PARA USE32 PUBLIC 'CODE'
_TEXT	ENDS
;	COMDAT ?ILayoutChangeOb_InitFinished@ILayoutChangeObserver@@UAEXXZ
_TEXT	SEGMENT PARA USE32 PUBLIC 'CODE'
_TEXT	ENDS
;	COMDAT ?ILayoutChangeOb_InitBegin@ILayoutChangeObserver@@UAEXXZ
_TEXT	SEGMENT PARA USE32 PUBLIC 'CODE'
_TEXT	ENDS
;	COMDAT ??1CAtlStringMgr@ATL@@UAE@XZ
_TEXT	SEGMENT PARA USE32 PUBLIC 'CODE'
_TEXT	ENDS
;	COMDAT ?Allocate@CAtlStringMgr@ATL@@UAEPAUCStringData@2@HH@Z
_TEXT	SEGMENT PARA USE32 PUBLIC 'CODE'
_TEXT	ENDS
;	COMDAT ?Free@CAtlStringMgr@ATL@@UAEXPAUCStringData@2@@Z
_TEXT	SEGMENT PARA USE32 PUBLIC 'CODE'
_TEXT	ENDS
;	COMDAT ?Reallocate@CAtlStringMgr@ATL@@UAEPAUCStringData@2@PAU32@HH@Z
_TEXT	SEGMENT PARA USE32 PUBLIC 'CODE'
_TEXT	ENDS
;	COMDAT ?GetNilString@CAtlStringMgr@ATL@@UAEPAUCStringData@2@XZ
_TEXT	SEGMENT PARA USE32 PUBLIC 'CODE'
_TEXT	ENDS
;	COMDAT ?Clone@CAtlStringMgr@ATL@@UAEPAUIAtlStringMgr@2@XZ
_TEXT	SEGMENT PARA USE32 PUBLIC 'CODE'
_TEXT	ENDS
;	COMDAT ??_GCAtlStringMgr@ATL@@UAEPAXI@Z
_TEXT	SEGMENT PARA USE32 PUBLIC 'CODE'
_TEXT	ENDS
;	COMDAT ?CompareStringW@?$ChTraitsOS@_W@ATL@@KGHKKPB_WH0H@Z
_TEXT	SEGMENT PARA USE32 PUBLIC 'CODE'
_TEXT	ENDS
;	COMDAT ?GetStringTypeExW@?$ChTraitsOS@_W@ATL@@KGHKKPB_WHPAG@Z
_TEXT	SEGMENT PARA USE32 PUBLIC 'CODE'
_TEXT	ENDS
;	COMDAT ?lstrcmpiW@?$ChTraitsOS@_W@ATL@@KGHPB_W0@Z
_TEXT	SEGMENT PARA USE32 PUBLIC 'CODE'
_TEXT	ENDS
;	COMDAT ?CharLowerW@?$ChTraitsOS@_W@ATL@@KGPA_WPA_W@Z
_TEXT	SEGMENT PARA USE32 PUBLIC 'CODE'
_TEXT	ENDS
;	COMDAT ?CharUpperW@?$ChTraitsOS@_W@ATL@@KGPA_WPA_W@Z
_TEXT	SEGMENT PARA USE32 PUBLIC 'CODE'
_TEXT	ENDS
;	COMDAT ?strchr@?$ChTraitsOS@_W@ATL@@SAPB_WPB_W_W@Z
_TEXT	SEGMENT PARA USE32 PUBLIC 'CODE'
_TEXT	ENDS
;	COMDAT ?strrchr@?$ChTraitsOS@_W@ATL@@SAPB_WPB_W_W@Z
_TEXT	SEGMENT PARA USE32 PUBLIC 'CODE'
_TEXT	ENDS
;	COMDAT ?_strrev@?$ChTraitsOS@_W@ATL@@SAPA_WPA_W@Z
_TEXT	SEGMENT PARA USE32 PUBLIC 'CODE'
_TEXT	ENDS
;	COMDAT ?strstr@?$ChTraitsOS@_W@ATL@@SAPB_WPB_W0@Z
_TEXT	SEGMENT PARA USE32 PUBLIC 'CODE'
_TEXT	ENDS
;	COMDAT ?strspn@?$ChTraitsOS@_W@ATL@@SAHPB_W0@Z
_TEXT	SEGMENT PARA USE32 PUBLIC 'CODE'
_TEXT	ENDS
;	COMDAT ?strcspn@?$ChTraitsOS@_W@ATL@@SAHPB_W0@Z
_TEXT	SEGMENT PARA USE32 PUBLIC 'CODE'
_TEXT	ENDS
;	COMDAT ?strpbrk@?$ChTraitsOS@_W@ATL@@SAPB_WPB_W0@Z
_TEXT	SEGMENT PARA USE32 PUBLIC 'CODE'
_TEXT	ENDS
;	COMDAT ?StringFindString@?$ChTraitsOS@_W@ATL@@SAPB_WPB_W0@Z
_TEXT	SEGMENT PARA USE32 PUBLIC 'CODE'
_TEXT	ENDS
;	COMDAT ??1IData@@MAE@XZ
_TEXT	SEGMENT PARA USE32 PUBLIC 'CODE'
_TEXT	ENDS
;	COMDAT ?DataAppStart@IData@@UAEXXZ
_TEXT	SEGMENT PARA USE32 PUBLIC 'CODE'
_TEXT	ENDS
;	COMDAT ?DataAppExit@IData@@UAEXXZ
_TEXT	SEGMENT PARA USE32 PUBLIC 'CODE'
_TEXT	ENDS
;	COMDAT ??_GIData@@MAEPAXI@Z
_TEXT	SEGMENT PARA USE32 PUBLIC 'CODE'
_TEXT	ENDS
;	COMDAT ?clear@OneLocalGame@@QAEXXZ
_TEXT	SEGMENT PARA USE32 PUBLIC 'CODE'
_TEXT	ENDS
;	COMDAT ?GetClsid@CShockwaveFlash@@QAEABU_GUID@@XZ
_TEXT	SEGMENT PARA USE32 PUBLIC 'CODE'
_TEXT	ENDS
;	COMDAT ??0CCustomControlSite@@QAE@PAVCOleControlContainer@@@Z
_TEXT	SEGMENT PARA USE32 PUBLIC 'CODE'
_TEXT	ENDS
;	COMDAT ??_GCCustomControlSite@@UAEPAXI@Z
_TEXT	SEGMENT PARA USE32 PUBLIC 'CODE'
_TEXT	ENDS
;	COMDAT ??0XDocHostShowUI@CCustomControlSite@@QAE@XZ
_TEXT	SEGMENT PARA USE32 PUBLIC 'CODE'
_TEXT	ENDS
;	COMDAT ??0XDocHostUIHandler@CCustomControlSite@@QAE@XZ
_TEXT	SEGMENT PARA USE32 PUBLIC 'CODE'
_TEXT	ENDS
;	COMDAT ??1CCustomControlSite@@UAE@XZ
_TEXT	SEGMENT PARA USE32 PUBLIC 'CODE'
_TEXT	ENDS
;	COMDAT ??0IDocHostShowUI@@QAE@XZ
_TEXT	SEGMENT PARA USE32 PUBLIC 'CODE'
_TEXT	ENDS
;	COMDAT ??0IDocHostUIHandler@@QAE@XZ
_TEXT	SEGMENT PARA USE32 PUBLIC 'CODE'
_TEXT	ENDS
;	COMDAT ?CreateSite@CCustomOccManager@@UAEPAVCOleControlSite@@PAVCOleControlContainer@@@Z
_TEXT	SEGMENT PARA USE32 PUBLIC 'CODE'
_TEXT	ENDS
;	COMDAT ??_GCCustomOccManager@@UAEPAXI@Z
_TEXT	SEGMENT PARA USE32 PUBLIC 'CODE'
_TEXT	ENDS
;	COMDAT ??0COccManager@@QAE@XZ
_TEXT	SEGMENT PARA USE32 PUBLIC 'CODE'
_TEXT	ENDS
;	COMDAT ??1COccManager@@UAE@XZ
_TEXT	SEGMENT PARA USE32 PUBLIC 'CODE'
_TEXT	ENDS
;	COMDAT ??1CCustomOccManager@@UAE@XZ
_TEXT	SEGMENT PARA USE32 PUBLIC 'CODE'
_TEXT	ENDS
;	COMDAT ??_GCOccManager@@UAEPAXI@Z
_TEXT	SEGMENT PARA USE32 PUBLIC 'CODE'
_TEXT	ENDS
;	COMDAT ??0CNoTrackObject@@QAE@XZ
_TEXT	SEGMENT PARA USE32 PUBLIC 'CODE'
_TEXT	ENDS
;	COMDAT ??_GWebGamePlayingWnd@@UAEPAXI@Z
_TEXT	SEGMENT PARA USE32 PUBLIC 'CODE'
_TEXT	ENDS
;	COMDAT ??0ILayoutChangeObserver@@QAE@XZ
_TEXT	SEGMENT PARA USE32 PUBLIC 'CODE'
_TEXT	ENDS
;	COMDAT ??1ILayoutChangeObserver@@UAE@XZ
_TEXT	SEGMENT PARA USE32 PUBLIC 'CODE'
_TEXT	ENDS
;	COMDAT ??0WEB_GAME@@QAE@XZ
_TEXT	SEGMENT PARA USE32 PUBLIC 'CODE'
_TEXT	ENDS
;	COMDAT ??1WEB_GAME@@QAE@XZ
_TEXT	SEGMENT PARA USE32 PUBLIC 'CODE'
_TEXT	ENDS
;	COMDAT ??_GILayoutChangeObserver@@UAEPAXI@Z
_TEXT	SEGMENT PARA USE32 PUBLIC 'CODE'
_TEXT	ENDS
;	COMDAT ??0IMessageObserver@@QAE@XZ
_TEXT	SEGMENT PARA USE32 PUBLIC 'CODE'
_TEXT	ENDS
;	COMDAT ??4WEB_GAME@@QAEAAU0@ABU0@@Z
_TEXT	SEGMENT PARA USE32 PUBLIC 'CODE'
_TEXT	ENDS
;	COMDAT ??HATL@@YA?AV?$CStringT@DV?$StrTraitMFC_DLL@DV?$ChTraitsCRT@D@ATL@@@@@0@PBDABV10@@Z
_TEXT	SEGMENT PARA USE32 PUBLIC 'CODE'
_TEXT	ENDS
;	COMDAT ??B?$CComPtrBase@UITypeInfo2@@@ATL@@QBEPAUITypeInfo2@@XZ
_TEXT	SEGMENT PARA USE32 PUBLIC 'CODE'
_TEXT	ENDS
;	COMDAT ??B?$CComPtrBase@UIHTMLDocument2@@@ATL@@QBEPAUIHTMLDocument2@@XZ
_TEXT	SEGMENT PARA USE32 PUBLIC 'CODE'
_TEXT	ENDS
;	COMDAT ?equal@?$istreambuf_iterator@DU?$char_traits@D@std@@@std@@QBE_NABV12@@Z
_TEXT	SEGMENT PARA USE32 PUBLIC 'CODE'
_TEXT	ENDS
;	COMDAT ?equal@?$istreambuf_iterator@_WU?$char_traits@_W@std@@@std@@QBE_NABV12@@Z
_TEXT	SEGMENT PARA USE32 PUBLIC 'CODE'
_TEXT	ENDS
;	COMDAT ??0iterator@?$basic_string@DU?$char_traits@D@std@@V?$allocator@D@2@@std@@QAE@PAD@Z
_TEXT	SEGMENT PARA USE32 PUBLIC 'CODE'
_TEXT	ENDS
;	COMDAT ??0const_iterator@?$basic_string@DU?$char_traits@D@std@@V?$allocator@D@2@@std@@QAE@PBD@Z
_TEXT	SEGMENT PARA USE32 PUBLIC 'CODE'
_TEXT	ENDS
;	COMDAT ??Gconst_iterator@?$basic_string@DU?$char_traits@D@std@@V?$allocator@D@2@@std@@QBEHABV012@@Z
_TEXT	SEGMENT PARA USE32 PUBLIC 'CODE'
_TEXT	ENDS
;	COMDAT ?Unlock@?$CComCritSecLock@VCComCriticalSection@ATL@@@ATL@@QAEXXZ
_TEXT	SEGMENT PARA USE32 PUBLIC 'CODE'
_TEXT	ENDS
;	COMDAT ??$AtlAlignUp@H@ATL@@YGHHK@Z
_TEXT	SEGMENT PARA USE32 PUBLIC 'CODE'
_TEXT	ENDS
;	COMDAT ??$_Maklocstr@D@std@@YAPADPBDPADABU_Cvtvec@@@Z
_TEXT	SEGMENT PARA USE32 PUBLIC 'CODE'
_TEXT	ENDS
;	COMDAT ??_EWebGamePlayingWnd@@WFE@AEPAXI@Z
_TEXT	SEGMENT PARA USE32 PUBLIC 'CODE'
_TEXT	ENDS
;	COMDAT ??_R3IData@@8
rdata$r	SEGMENT DWORD USE32 PUBLIC 'CONST'
rdata$r	ENDS
;	COMDAT ??_R3CAtlStringMgr@ATL@@8
rdata$r	SEGMENT DWORD USE32 PUBLIC 'CONST'
rdata$r	ENDS
;	COMDAT ??_R3XDocHostShowUI@CCustomControlSite@@8
rdata$r	SEGMENT DWORD USE32 PUBLIC 'CONST'
rdata$r	ENDS
;	COMDAT ??_R3CCustomControlSite@@8
rdata$r	SEGMENT DWORD USE32 PUBLIC 'CONST'
rdata$r	ENDS
;	COMDAT ??_R3IDocHostShowUI@@8
rdata$r	SEGMENT DWORD USE32 PUBLIC 'CONST'
rdata$r	ENDS
;	COMDAT ??_R3CCustomOccManager@@8
rdata$r	SEGMENT DWORD USE32 PUBLIC 'CONST'
rdata$r	ENDS
;	COMDAT ??_R3IDocHostUIHandler@@8
rdata$r	SEGMENT DWORD USE32 PUBLIC 'CONST'
rdata$r	ENDS
;	COMDAT ??_R3WebGamePlayingWnd@@8
rdata$r	SEGMENT DWORD USE32 PUBLIC 'CONST'
rdata$r	ENDS
;	COMDAT ??_R3XDocHostUIHandler@CCustomControlSite@@8
rdata$r	SEGMENT DWORD USE32 PUBLIC 'CONST'
rdata$r	ENDS
;	COMDAT ??_R3COccManager@@8
rdata$r	SEGMENT DWORD USE32 PUBLIC 'CONST'
rdata$r	ENDS
;	COMDAT ??_R3ILayoutChangeObserver@@8
rdata$r	SEGMENT DWORD USE32 PUBLIC 'CONST'
rdata$r	ENDS
;	COMDAT ??_R3?$numpunct@_W@std@@8
rdata$r	SEGMENT DWORD USE32 PUBLIC 'CONST'
rdata$r	ENDS
;	COMDAT ??_R3?$numpunct@D@std@@8
rdata$r	SEGMENT DWORD USE32 PUBLIC 'CONST'
rdata$r	ENDS
;	COMDAT ??_R2IData@@8
rdata$r	SEGMENT DWORD USE32 PUBLIC 'CONST'
rdata$r	ENDS
;	COMDAT ??_R2CAtlStringMgr@ATL@@8
rdata$r	SEGMENT DWORD USE32 PUBLIC 'CONST'
rdata$r	ENDS
;	COMDAT ??_R2XDocHostShowUI@CCustomControlSite@@8
rdata$r	SEGMENT DWORD USE32 PUBLIC 'CONST'
rdata$r	ENDS
;	COMDAT ??_R2CCustomControlSite@@8
rdata$r	SEGMENT DWORD USE32 PUBLIC 'CONST'
rdata$r	ENDS
;	COMDAT ??_R2IDocHostShowUI@@8
rdata$r	SEGMENT DWORD USE32 PUBLIC 'CONST'
rdata$r	ENDS
;	COMDAT ??_R2CCustomOccManager@@8
rdata$r	SEGMENT DWORD USE32 PUBLIC 'CONST'
rdata$r	ENDS
;	COMDAT ??_R2IDocHostUIHandler@@8
rdata$r	SEGMENT DWORD USE32 PUBLIC 'CONST'
rdata$r	ENDS
;	COMDAT ??_R2WebGamePlayingWnd@@8
rdata$r	SEGMENT DWORD USE32 PUBLIC 'CONST'
rdata$r	ENDS
;	COMDAT ??_R2XDocHostUIHandler@CCustomControlSite@@8
rdata$r	SEGMENT DWORD USE32 PUBLIC 'CONST'
rdata$r	ENDS
;	COMDAT ??_R2COccManager@@8
rdata$r	SEGMENT DWORD USE32 PUBLIC 'CONST'
rdata$r	ENDS
;	COMDAT ??_R2ILayoutChangeObserver@@8
rdata$r	SEGMENT DWORD USE32 PUBLIC 'CONST'
rdata$r	ENDS
;	COMDAT ??_R2?$numpunct@_W@std@@8
rdata$r	SEGMENT DWORD USE32 PUBLIC 'CONST'
rdata$r	ENDS
;	COMDAT ??_R2?$numpunct@D@std@@8
rdata$r	SEGMENT DWORD USE32 PUBLIC 'CONST'
rdata$r	ENDS
;	COMDAT ??_R1A@?0A@A@IData@@8
rdata$r	SEGMENT DWORD USE32 PUBLIC 'CONST'
rdata$r	ENDS
;	COMDAT ??_R1A@?0A@A@IAtlStringMgr@ATL@@8
rdata$r	SEGMENT DWORD USE32 PUBLIC 'CONST'
rdata$r	ENDS
;	COMDAT ??_R0?AUIAtlStringMgr@ATL@@@8
_DATA	SEGMENT DWORD USE32 PUBLIC 'DATA'
_DATA	ENDS
;	COMDAT ??_R1A@?0A@A@CAtlStringMgr@ATL@@8
rdata$r	SEGMENT DWORD USE32 PUBLIC 'CONST'
rdata$r	ENDS
;	COMDAT ??_R1A@?0A@A@XDocHostShowUI@CCustomControlSite@@8
rdata$r	SEGMENT DWORD USE32 PUBLIC 'CONST'
rdata$r	ENDS
;	COMDAT ??_R1A@?0A@A@COleControlSite@@8
rdata$r	SEGMENT DWORD USE32 PUBLIC 'CONST'
rdata$r	ENDS
;	COMDAT ??_R1A@?0A@A@CCustomControlSite@@8
rdata$r	SEGMENT DWORD USE32 PUBLIC 'CONST'
rdata$r	ENDS
;	COMDAT ??_R1A@?0A@A@IDocHostShowUI@@8
rdata$r	SEGMENT DWORD USE32 PUBLIC 'CONST'
rdata$r	ENDS
;	COMDAT ??_R1A@?0A@A@CCustomOccManager@@8
rdata$r	SEGMENT DWORD USE32 PUBLIC 'CONST'
rdata$r	ENDS
;	COMDAT ??_R1FE@?0A@A@IMessageObserver@@8
rdata$r	SEGMENT DWORD USE32 PUBLIC 'CONST'
rdata$r	ENDS
;	COMDAT ??_R1FE@?0A@A@ILayoutChangeObserver@@8
rdata$r	SEGMENT DWORD USE32 PUBLIC 'CONST'
rdata$r	ENDS
;	COMDAT ??_R1A@?0A@A@CObject@@8
rdata$r	SEGMENT DWORD USE32 PUBLIC 'CONST'
rdata$r	ENDS
;	COMDAT ??_R0?AVCObject@@@8
_DATA	SEGMENT DWORD USE32 PUBLIC 'DATA'
_DATA	ENDS
;	COMDAT ??_R1A@?0A@A@CCmdTarget@@8
rdata$r	SEGMENT DWORD USE32 PUBLIC 'CONST'
rdata$r	ENDS
;	COMDAT ??_R0?AVCCmdTarget@@@8
_DATA	SEGMENT DWORD USE32 PUBLIC 'DATA'
_DATA	ENDS
;	COMDAT ??_R1A@?0A@A@CWnd@@8
rdata$r	SEGMENT DWORD USE32 PUBLIC 'CONST'
rdata$r	ENDS
;	COMDAT ??_R0?AVCWnd@@@8
_DATA	SEGMENT DWORD USE32 PUBLIC 'DATA'
_DATA	ENDS
;	COMDAT ??_R1A@?0A@A@CBasicWnd@@8
rdata$r	SEGMENT DWORD USE32 PUBLIC 'CONST'
rdata$r	ENDS
;	COMDAT ??_R1A@?0A@A@WebGamePlayingWnd@@8
rdata$r	SEGMENT DWORD USE32 PUBLIC 'CONST'
rdata$r	ENDS
;	COMDAT ??_R1A@?0A@A@IUnknown@@8
rdata$r	SEGMENT DWORD USE32 PUBLIC 'CONST'
rdata$r	ENDS
;	COMDAT ??_R0?AUIUnknown@@@8
_DATA	SEGMENT DWORD USE32 PUBLIC 'DATA'
_DATA	ENDS
;	COMDAT ??_R1A@?0A@A@IDocHostUIHandler@@8
rdata$r	SEGMENT DWORD USE32 PUBLIC 'CONST'
rdata$r	ENDS
;	COMDAT ??_R1A@?0A@A@XDocHostUIHandler@CCustomControlSite@@8
rdata$r	SEGMENT DWORD USE32 PUBLIC 'CONST'
rdata$r	ENDS
;	COMDAT ??_R1A@?0A@A@CNoTrackObject@@8
rdata$r	SEGMENT DWORD USE32 PUBLIC 'CONST'
rdata$r	ENDS
;	COMDAT ??_R0?AVCNoTrackObject@@@8
_DATA	SEGMENT DWORD USE32 PUBLIC 'DATA'
_DATA	ENDS
;	COMDAT ??_R1A@?0A@A@COccManager@@8
rdata$r	SEGMENT DWORD USE32 PUBLIC 'CONST'
rdata$r	ENDS
;	COMDAT ??_R1A@?0A@A@IMessageObserver@@8
rdata$r	SEGMENT DWORD USE32 PUBLIC 'CONST'
rdata$r	ENDS
;	COMDAT ??_R1A@?0A@A@ILayoutChangeObserver@@8
rdata$r	SEGMENT DWORD USE32 PUBLIC 'CONST'
rdata$r	ENDS
;	COMDAT ??_R1A@?0A@A@?$numpunct@_W@std@@8
rdata$r	SEGMENT DWORD USE32 PUBLIC 'CONST'
rdata$r	ENDS
;	COMDAT ??_R1A@?0A@A@facet@locale@std@@8
rdata$r	SEGMENT DWORD USE32 PUBLIC 'CONST'
rdata$r	ENDS
;	COMDAT ??_R0?AVfacet@locale@std@@@8
_DATA	SEGMENT DWORD USE32 PUBLIC 'DATA'
_DATA	ENDS
;	COMDAT ??_R1A@?0A@A@?$numpunct@D@std@@8
rdata$r	SEGMENT DWORD USE32 PUBLIC 'CONST'
rdata$r	ENDS
;	COMDAT ??_R0?AVIData@@@8
_DATA	SEGMENT DWORD USE32 PUBLIC 'DATA'
_DATA	ENDS
;	COMDAT ??_R0?AVCAtlStringMgr@ATL@@@8
_DATA	SEGMENT DWORD USE32 PUBLIC 'DATA'
_DATA	ENDS
;	COMDAT ??_R0?AVXDocHostShowUI@CCustomControlSite@@@8
_DATA	SEGMENT DWORD USE32 PUBLIC 'DATA'
_DATA	ENDS
;	COMDAT ??_R0?AVCOleControlSite@@@8
_DATA	SEGMENT DWORD USE32 PUBLIC 'DATA'
_DATA	ENDS
;	COMDAT ??_R0?AVCCustomControlSite@@@8
_DATA	SEGMENT DWORD USE32 PUBLIC 'DATA'
_DATA	ENDS
;	COMDAT ??_R0?AUIDocHostShowUI@@@8
_DATA	SEGMENT DWORD USE32 PUBLIC 'DATA'
_DATA	ENDS
;	COMDAT ??_R0?AVCCustomOccManager@@@8
_DATA	SEGMENT DWORD USE32 PUBLIC 'DATA'
_DATA	ENDS
;	COMDAT ??_R0?AVIMessageObserver@@@8
_DATA	SEGMENT DWORD USE32 PUBLIC 'DATA'
_DATA	ENDS
;	COMDAT ??_R0?AVCBasicWnd@@@8
_DATA	SEGMENT DWORD USE32 PUBLIC 'DATA'
_DATA	ENDS
;	COMDAT ??_R0?AVWebGamePlayingWnd@@@8
_DATA	SEGMENT DWORD USE32 PUBLIC 'DATA'
_DATA	ENDS
;	COMDAT ??_R0?AUIDocHostUIHandler@@@8
_DATA	SEGMENT DWORD USE32 PUBLIC 'DATA'
_DATA	ENDS
;	COMDAT ??_R0?AVXDocHostUIHandler@CCustomControlSite@@@8
_DATA	SEGMENT DWORD USE32 PUBLIC 'DATA'
_DATA	ENDS
;	COMDAT ??_R0?AVCOccManager@@@8
_DATA	SEGMENT DWORD USE32 PUBLIC 'DATA'
_DATA	ENDS
;	COMDAT ??_R0?AVILayoutChangeObserver@@@8
_DATA	SEGMENT DWORD USE32 PUBLIC 'DATA'
_DATA	ENDS
;	COMDAT ??_R0?AV?$numpunct@_W@std@@@8
_DATA	SEGMENT DWORD USE32 PUBLIC 'DATA'
_DATA	ENDS
;	COMDAT ??_R0?AV?$numpunct@D@std@@@8
_DATA	SEGMENT DWORD USE32 PUBLIC 'DATA'
_DATA	ENDS
;	COMDAT ??_R4IData@@6B@
rdata$r	SEGMENT DWORD USE32 PUBLIC 'CONST'
rdata$r	ENDS
;	COMDAT ??_R4CAtlStringMgr@ATL@@6B@
rdata$r	SEGMENT DWORD USE32 PUBLIC 'CONST'
rdata$r	ENDS
;	COMDAT ??_R4XDocHostShowUI@CCustomControlSite@@6B@
rdata$r	SEGMENT DWORD USE32 PUBLIC 'CONST'
rdata$r	ENDS
;	COMDAT ??_R4CCustomControlSite@@6B@
rdata$r	SEGMENT DWORD USE32 PUBLIC 'CONST'
rdata$r	ENDS
;	COMDAT ??_R4IDocHostShowUI@@6B@
rdata$r	SEGMENT DWORD USE32 PUBLIC 'CONST'
rdata$r	ENDS
;	COMDAT ??_R4CCustomOccManager@@6B@
rdata$r	SEGMENT DWORD USE32 PUBLIC 'CONST'
rdata$r	ENDS
;	COMDAT ??_R4IDocHostUIHandler@@6B@
rdata$r	SEGMENT DWORD USE32 PUBLIC 'CONST'
rdata$r	ENDS
;	COMDAT ??_R4WebGamePlayingWnd@@6BILayoutChangeObserver@@@
rdata$r	SEGMENT DWORD USE32 PUBLIC 'CONST'
rdata$r	ENDS
;	COMDAT ?EndModalState@CWnd@@UAEXXZ
_TEXT	SEGMENT PARA USE32 PUBLIC 'CODE'
_TEXT	ENDS
;	COMDAT ?BeginModalState@CWnd@@UAEXXZ
_TEXT	SEGMENT PARA USE32 PUBLIC 'CODE'
_TEXT	ENDS
;	COMDAT ?DoDataExchange@CWnd@@MAEXPAVCDataExchange@@@Z
_TEXT	SEGMENT PARA USE32 PUBLIC 'CODE'
_TEXT	ENDS
;	COMDAT ?Dump@CObject@@UBEXAAVCDumpContext@@@Z
_TEXT	SEGMENT PARA USE32 PUBLIC 'CODE'
_TEXT	ENDS
;	COMDAT ?AssertValid@CObject@@UBEXXZ
_TEXT	SEGMENT PARA USE32 PUBLIC 'CODE'
_TEXT	ENDS
;	COMDAT ?Serialize@CObject@@UAEXAAVCArchive@@@Z
_TEXT	SEGMENT PARA USE32 PUBLIC 'CODE'
_TEXT	ENDS
;	COMDAT ??_R4WebGamePlayingWnd@@6BCBasicWnd@@@
rdata$r	SEGMENT DWORD USE32 PUBLIC 'CONST'
rdata$r	ENDS
;	COMDAT ??_R4XDocHostUIHandler@CCustomControlSite@@6B@
rdata$r	SEGMENT DWORD USE32 PUBLIC 'CONST'
rdata$r	ENDS
;	COMDAT ??_R4COccManager@@6B@
rdata$r	SEGMENT DWORD USE32 PUBLIC 'CONST'
rdata$r	ENDS
;	COMDAT ??_R4ILayoutChangeObserver@@6B@
rdata$r	SEGMENT DWORD USE32 PUBLIC 'CONST'
rdata$r	ENDS
;	COMDAT ??0?$allocator@_W@std@@QAE@XZ
_TEXT	SEGMENT PARA USE32 PUBLIC 'CODE'
_TEXT	ENDS
;	COMDAT ??_G?$numpunct@_W@std@@MAEPAXI@Z
_TEXT	SEGMENT PARA USE32 PUBLIC 'CODE'
_TEXT	ENDS
;	COMDAT ??_R4?$numpunct@_W@std@@6B@
rdata$r	SEGMENT DWORD USE32 PUBLIC 'CONST'
rdata$r	ENDS
;	COMDAT ??_G?$numpunct@D@std@@MAEPAXI@Z
_TEXT	SEGMENT PARA USE32 PUBLIC 'CODE'
_TEXT	ENDS
;	COMDAT ??_R4?$numpunct@D@std@@6B@
rdata$r	SEGMENT DWORD USE32 PUBLIC 'CONST'
rdata$r	ENDS
;	COMDAT ?_Psave@?$_Facetptr@V?$numpunct@_W@std@@@std@@2PBVfacet@locale@2@B
_DATA	SEGMENT DWORD USE32 PUBLIC 'DATA'
_DATA	ENDS
;	COMDAT ?_Psave@?$_Facetptr@V?$numpunct@D@std@@@std@@2PBVfacet@locale@2@B
_DATA	SEGMENT DWORD USE32 PUBLIC 'DATA'
_DATA	ENDS
;	COMDAT ?Unlock@CComCriticalSection@ATL@@QAEJXZ
_TEXT	SEGMENT PARA USE32 PUBLIC 'CODE'
_TEXT	ENDS
;	COMDAT ?_Psave@?$_Facetptr@V?$ctype@_W@std@@@std@@2PBVfacet@locale@2@B
_DATA	SEGMENT DWORD USE32 PUBLIC 'DATA'
_DATA	ENDS
;	COMDAT ?_Psave@?$_Facetptr@V?$ctype@D@std@@@std@@2PBVfacet@locale@2@B
_DATA	SEGMENT DWORD USE32 PUBLIC 'DATA'
_DATA	ENDS
;	COMDAT ??$_Maklocchr@_W@std@@YA_WDPA_WABU_Cvtvec@@@Z
_TEXT	SEGMENT PARA USE32 PUBLIC 'CODE'
_TEXT	ENDS
;	COMDAT ??$_Maklocstr@_W@std@@YAPA_WPBDPA_WABU_Cvtvec@@@Z
_TEXT	SEGMENT PARA USE32 PUBLIC 'CODE'
_TEXT	ENDS
;	COMDAT ??$_Maklocchr@D@std@@YADDPADABU_Cvtvec@@@Z
_TEXT	SEGMENT PARA USE32 PUBLIC 'CODE'
_TEXT	ENDS
;	COMDAT ??_C@_04LOAJBDKD@true?$AA@
CONST	SEGMENT DWORD USE32 PUBLIC 'CONST'
CONST	ENDS
;	COMDAT ??_C@_05LAPONLG@false?$AA@
CONST	SEGMENT DWORD USE32 PUBLIC 'CONST'
CONST	ENDS
;	COMDAT _wmemcpy
_TEXT	SEGMENT PARA USE32 PUBLIC 'CODE'
_TEXT	ENDS
;	COMDAT ?max_size@?$allocator@_W@std@@QBEIXZ
_TEXT	SEGMENT PARA USE32 PUBLIC 'CODE'
_TEXT	ENDS
;	COMDAT ?allocate@?$allocator@_W@std@@QAEPA_WI@Z
_TEXT	SEGMENT PARA USE32 PUBLIC 'CODE'
_TEXT	ENDS
;	COMDAT ??$_Allocate@_W@std@@YAPA_WIPA_W@Z
_TEXT	SEGMENT PARA USE32 PUBLIC 'CODE'
_TEXT	ENDS
;	COMDAT ??_C@_01GFHCPBMG@C?$AA@
CONST	SEGMENT DWORD USE32 PUBLIC 'CONST'
CONST	ENDS
;	COMDAT ?max_size@?$allocator@D@std@@QBEIXZ
_TEXT	SEGMENT PARA USE32 PUBLIC 'CODE'
_TEXT	ENDS
;	COMDAT ?allocate@?$allocator@D@std@@QAEPADI@Z
_TEXT	SEGMENT PARA USE32 PUBLIC 'CODE'
_TEXT	ENDS
;	COMDAT ??$_Allocate@D@std@@YAPADIPAD@Z
_TEXT	SEGMENT PARA USE32 PUBLIC 'CODE'
_TEXT	ENDS
;	COMDAT ?deallocate@?$allocator@D@std@@QAEXPADI@Z
_TEXT	SEGMENT PARA USE32 PUBLIC 'CODE'
_TEXT	ENDS
;	COMDAT ?Release@CStringData@ATL@@QAEXXZ
_TEXT	SEGMENT PARA USE32 PUBLIC 'CODE'
_TEXT	ENDS
;	COMDAT ?data@CStringData@ATL@@QAEPAXXZ
_TEXT	SEGMENT PARA USE32 PUBLIC 'CODE'
_TEXT	ENDS
;	COMDAT ?AtlThrow@ATL@@YGXJ@Z
_TEXT	SEGMENT PARA USE32 PUBLIC 'CODE'
_TEXT	ENDS
;	COMDAT ?IsShared@CStringData@ATL@@QBE_NXZ
_TEXT	SEGMENT PARA USE32 PUBLIC 'CODE'
_TEXT	ENDS
;	COMDAT ?_Peek@?$istreambuf_iterator@_WU?$char_traits@_W@std@@@std@@AAE_WXZ
_TEXT	SEGMENT PARA USE32 PUBLIC 'CODE'
_TEXT	ENDS
;	COMDAT ?_Peek@?$istreambuf_iterator@DU?$char_traits@D@std@@@std@@AAEDXZ
_TEXT	SEGMENT PARA USE32 PUBLIC 'CODE'
_TEXT	ENDS
;	COMDAT ??$use_facet@V?$ctype@_W@std@@@std@@YAABV?$ctype@_W@0@ABVlocale@0@@Z
_TEXT	SEGMENT PARA USE32 PUBLIC 'CODE'
_TEXT	ENDS
;	COMDAT ??_S?$ctype@_W@std@@6B@
CONST	SEGMENT DWORD USE32 PUBLIC 'CONST'
CONST	ENDS
;	COMDAT ??_R4?$ctype@_W@std@@6B@
rdata$r	SEGMENT DWORD USE32 PUBLIC 'CONST'
rdata$r	ENDS
;	COMDAT ??_R0?AV?$ctype@_W@std@@@8
_DATA	SEGMENT DWORD USE32 PUBLIC 'DATA'
_DATA	ENDS
;	COMDAT ??_R3?$ctype@_W@std@@8
rdata$r	SEGMENT DWORD USE32 PUBLIC 'CONST'
rdata$r	ENDS
;	COMDAT ??_R2?$ctype@_W@std@@8
rdata$r	SEGMENT DWORD USE32 PUBLIC 'CONST'
rdata$r	ENDS
;	COMDAT ??_R1A@?0A@A@?$ctype@_W@std@@8
rdata$r	SEGMENT DWORD USE32 PUBLIC 'CONST'
rdata$r	ENDS
;	COMDAT ??_R1A@?0A@A@ctype_base@std@@8
rdata$r	SEGMENT DWORD USE32 PUBLIC 'CONST'
rdata$r	ENDS
;	COMDAT ??_R0?AUctype_base@std@@@8
_DATA	SEGMENT DWORD USE32 PUBLIC 'DATA'
_DATA	ENDS
;	COMDAT ??_G?$ctype@_W@std@@MAEPAXI@Z
_TEXT	SEGMENT PARA USE32 PUBLIC 'CODE'
_TEXT	ENDS
;	COMDAT ??_C@_08EPJLHIJG@bad?5cast?$AA@
CONST	SEGMENT DWORD USE32 PUBLIC 'CONST'
CONST	ENDS
;	COMDAT __TI2?AVbad_cast@@
xdata$x	SEGMENT DWORD USE32 PUBLIC 'CONST'
xdata$x	ENDS
;	COMDAT __CTA2?AVbad_cast@@
xdata$x	SEGMENT DWORD USE32 PUBLIC 'CONST'
xdata$x	ENDS
;	COMDAT __CT??_R0?AVbad_cast@@@8??0bad_cast@@QAE@ABV0@@Z12
xdata$x	SEGMENT DWORD USE32 PUBLIC 'CONST'
xdata$x	ENDS
;	COMDAT ??_R0?AVbad_cast@@@8
_DATA	SEGMENT DWORD USE32 PUBLIC 'DATA'
_DATA	ENDS
;	COMDAT __CT??_R0?AVexception@@@8??0exception@@QAE@ABV0@@Z12
xdata$x	SEGMENT DWORD USE32 PUBLIC 'CONST'
xdata$x	ENDS
;	COMDAT ??_R0?AVexception@@@8
_DATA	SEGMENT DWORD USE32 PUBLIC 'DATA'
_DATA	ENDS
;	COMDAT ??$use_facet@V?$ctype@D@std@@@std@@YAABV?$ctype@D@0@ABVlocale@0@@Z
_TEXT	SEGMENT PARA USE32 PUBLIC 'CODE'
_TEXT	ENDS
;	COMDAT ??_S?$ctype@D@std@@6B@
CONST	SEGMENT DWORD USE32 PUBLIC 'CONST'
CONST	ENDS
;	COMDAT ??_R4?$ctype@D@std@@6B@
rdata$r	SEGMENT DWORD USE32 PUBLIC 'CONST'
rdata$r	ENDS
;	COMDAT ??_R0?AV?$ctype@D@std@@@8
_DATA	SEGMENT DWORD USE32 PUBLIC 'DATA'
_DATA	ENDS
;	COMDAT ??_R3?$ctype@D@std@@8
rdata$r	SEGMENT DWORD USE32 PUBLIC 'CONST'
rdata$r	ENDS
;	COMDAT ??_R2?$ctype@D@std@@8
rdata$r	SEGMENT DWORD USE32 PUBLIC 'CONST'
rdata$r	ENDS
;	COMDAT ??_R1A@?0A@A@?$ctype@D@std@@8
rdata$r	SEGMENT DWORD USE32 PUBLIC 'CONST'
rdata$r	ENDS
;	COMDAT ??_G?$ctype@D@std@@MAEPAXI@Z
_TEXT	SEGMENT PARA USE32 PUBLIC 'CODE'
_TEXT	ENDS
;	COMDAT ??_S?$numpunct@_W@std@@6B@
CONST	SEGMENT DWORD USE32 PUBLIC 'CONST'
CONST	ENDS
;	COMDAT ??_S?$numpunct@D@std@@6B@
CONST	SEGMENT DWORD USE32 PUBLIC 'CONST'
CONST	ENDS
;	COMDAT _wmemmove
_TEXT	SEGMENT PARA USE32 PUBLIC 'CODE'
_TEXT	ENDS
;	COMDAT ?deallocate@?$allocator@_W@std@@QAEXPA_WI@Z
_TEXT	SEGMENT PARA USE32 PUBLIC 'CODE'
_TEXT	ENDS
;	COMDAT ??0?$allocator@_W@std@@QAE@ABV01@@Z
_TEXT	SEGMENT PARA USE32 PUBLIC 'CODE'
_TEXT	ENDS
;	COMDAT ?SetCheck@CButton@@QAEXH@Z
_TEXT	SEGMENT PARA USE32 PUBLIC 'CODE'
_TEXT	ENDS
;	COMDAT ?GetSafeHwnd@CWnd@@QBEPAUHWND__@@XZ
_TEXT	SEGMENT PARA USE32 PUBLIC 'CODE'
_TEXT	ENDS
;	COMDAT ??0?$allocator@D@std@@QAE@ABV01@@Z
_TEXT	SEGMENT PARA USE32 PUBLIC 'CODE'
_TEXT	ENDS
;	COMDAT ?IsRectEmpty@CRect@@QBEHXZ
_TEXT	SEGMENT PARA USE32 PUBLIC 'CODE'
_TEXT	ENDS
;	COMDAT ?GetParent@CWnd@@QBEPAV1@XZ
_TEXT	SEGMENT PARA USE32 PUBLIC 'CODE'
_TEXT	ENDS
;	COMDAT ??0CRect@@QAE@XZ
_TEXT	SEGMENT PARA USE32 PUBLIC 'CODE'
_TEXT	ENDS
;	COMDAT ??0CRect@@QAE@HHHH@Z
_TEXT	SEGMENT PARA USE32 PUBLIC 'CODE'
_TEXT	ENDS
;	COMDAT ?OnCreate@CWnd@@IAEHPAUtagCREATESTRUCTA@@@Z
_TEXT	SEGMENT PARA USE32 PUBLIC 'CODE'
_TEXT	ENDS
;	COMDAT ??0?$allocator@D@std@@QAE@XZ
_TEXT	SEGMENT PARA USE32 PUBLIC 'CODE'
_TEXT	ENDS
;	COMDAT ?_messageEntries@WebGamePlayingWnd@@0QBUAFX_MSGMAP_ENTRY@@B
CONST	SEGMENT DWORD USE32 PUBLIC 'CONST'
CONST	ENDS
;	COMDAT ?messageMap@WebGamePlayingWnd@@1UAFX_MSGMAP@@B
CONST	SEGMENT DWORD USE32 PUBLIC 'CONST'
CONST	ENDS
;	COMDAT ??_7IMessageObserver@@6B@
CONST	SEGMENT DWORD USE32 PUBLIC 'CONST'
CONST	ENDS
;	COMDAT ??_R4IMessageObserver@@6B@
rdata$r	SEGMENT DWORD USE32 PUBLIC 'CONST'
rdata$r	ENDS
;	COMDAT ??_R3IMessageObserver@@8
rdata$r	SEGMENT DWORD USE32 PUBLIC 'CONST'
rdata$r	ENDS
;	COMDAT ??_R2IMessageObserver@@8
rdata$r	SEGMENT DWORD USE32 PUBLIC 'CONST'
rdata$r	ENDS
;	COMDAT ??_GIMessageObserver@@UAEPAXI@Z
_TEXT	SEGMENT PARA USE32 PUBLIC 'CODE'
_TEXT	ENDS
;	COMDAT ??_7ILayoutChangeObserver@@6B@
CONST	SEGMENT DWORD USE32 PUBLIC 'CONST'
CONST	ENDS
;	COMDAT ??1IMessageObserver@@UAE@XZ
_TEXT	SEGMENT PARA USE32 PUBLIC 'CODE'
_TEXT	ENDS
;	COMDAT ??_7WebGamePlayingWnd@@6BILayoutChangeObserver@@@
CONST	SEGMENT DWORD USE32 PUBLIC 'CONST'
CONST	ENDS
;	COMDAT ??_7WebGamePlayingWnd@@6BCBasicWnd@@@
CONST	SEGMENT DWORD USE32 PUBLIC 'CONST'
CONST	ENDS
;	COMDAT ?classWebGamePlayingWnd@WebGamePlayingWnd@@2UCRuntimeClass@@B
CONST	SEGMENT DWORD USE32 PUBLIC 'CONST'
CONST	ENDS
;	COMDAT ?IsLocked@CStringData@ATL@@QBE_NXZ
_TEXT	SEGMENT PARA USE32 PUBLIC 'CODE'
_TEXT	ENDS
;	COMDAT ?GetDefaultManager@?$StrTraitMFC_DLL@DV?$ChTraitsCRT@D@ATL@@@@SAPAUIAtlStringMgr@ATL@@XZ
_TEXT	SEGMENT PARA USE32 PUBLIC 'CODE'
_TEXT	ENDS
;	COMDAT ?FindStringResourceInstance@?$StrTraitMFC_DLL@DV?$ChTraitsCRT@D@ATL@@@@SAPAUHINSTANCE__@@I@Z
_TEXT	SEGMENT PARA USE32 PUBLIC 'CODE'
_TEXT	ENDS
;	COMDAT ?AtlGetStringResourceImage@ATL@@YAPBUATLSTRINGRESOURCEIMAGE@1@PAUHINSTANCE__@@I@Z
_TEXT	SEGMENT PARA USE32 PUBLIC 'CODE'
_TEXT	ENDS
;	COMDAT ?_AtlGetStringResourceImage@ATL@@YAPBUATLSTRINGRESOURCEIMAGE@1@PAUHINSTANCE__@@PAUHRSRC__@@I@Z
_TEXT	SEGMENT PARA USE32 PUBLIC 'CODE'
_TEXT	ENDS
;	COMDAT ?GetBaseTypeLength@?$ChTraitsCRT@D@ATL@@SAHPB_WH@Z
_TEXT	SEGMENT PARA USE32 PUBLIC 'CODE'
_TEXT	ENDS
;	COMDAT ?ConvertToBaseType@?$ChTraitsCRT@D@ATL@@SAXPADHPB_WH@Z
_TEXT	SEGMENT PARA USE32 PUBLIC 'CODE'
_TEXT	ENDS
;	COMDAT ??_7COccManager@@6B@
CONST	SEGMENT DWORD USE32 PUBLIC 'CONST'
CONST	ENDS
;	COMDAT ??1CNoTrackObject@@UAE@XZ
_TEXT	SEGMENT PARA USE32 PUBLIC 'CODE'
_TEXT	ENDS
;	COMDAT ??2CObject@@SGPAXI@Z
_TEXT	SEGMENT PARA USE32 PUBLIC 'CODE'
_TEXT	ENDS
;	COMDAT ??_7CCustomOccManager@@6B@
CONST	SEGMENT DWORD USE32 PUBLIC 'CONST'
CONST	ENDS
;	COMDAT ??0IUnknown@@QAE@XZ
_TEXT	SEGMENT PARA USE32 PUBLIC 'CODE'
_TEXT	ENDS
;	COMDAT ??_7XDocHostUIHandler@CCustomControlSite@@6B@
CONST	SEGMENT DWORD USE32 PUBLIC 'CONST'
CONST	ENDS
;	COMDAT ??_7XDocHostShowUI@CCustomControlSite@@6B@
CONST	SEGMENT DWORD USE32 PUBLIC 'CONST'
CONST	ENDS
;	COMDAT ??3CObject@@SGXPAX@Z
_TEXT	SEGMENT PARA USE32 PUBLIC 'CODE'
_TEXT	ENDS
;	COMDAT ??_7CCustomControlSite@@6B@
CONST	SEGMENT DWORD USE32 PUBLIC 'CONST'
CONST	ENDS
;	COMDAT ?clsid@?1??GetClsid@CShockwaveFlash@@QAEABU_GUID@@XZ@4U3@B
CONST	SEGMENT DWORD USE32 PUBLIC 'CONST'
CONST	ENDS
;	COMDAT ??_7IData@@6B@
CONST	SEGMENT DWORD USE32 PUBLIC 'CONST'
CONST	ENDS
;	COMDAT ?c_bIsMFCDLLTraits@?$_MFCDLLTraitsCheck@_WV?$StrTraitATL@_WV?$ChTraitsCRT@_W@ATL@@@ATL@@@_CSTRING_IMPL_@ATL@@2_NB
CONST	SEGMENT DWORD USE32 PUBLIC 'CONST'
CONST	ENDS
;	COMDAT ?c_bIsMFCDLLTraits@?$_MFCDLLTraitsCheck@DV?$StrTraitATL@DV?$ChTraitsCRT@D@ATL@@@ATL@@@_CSTRING_IMPL_@ATL@@2_NB
CONST	SEGMENT DWORD USE32 PUBLIC 'CONST'
CONST	ENDS
;	COMDAT ?_AtlGetConversionACP@ATL@@YGIXZ
_TEXT	SEGMENT PARA USE32 PUBLIC 'CODE'
_TEXT	ENDS
;	COMDAT ?g_pfnGetThreadACP@ATL@@3P6GIXZA
_DATA	SEGMENT DWORD USE32 PUBLIC 'DATA'
_DATA	ENDS
;	COMDAT ?_AtlGetThreadACPThunk@ATL@@YGIXZ
_TEXT	SEGMENT PARA USE32 PUBLIC 'CODE'
_TEXT	ENDS
;	COMDAT ?_AtlGetThreadACPReal@ATL@@YGIXZ
_TEXT	SEGMENT PARA USE32 PUBLIC 'CODE'
_TEXT	ENDS
;	COMDAT ?_AtlGetThreadACPFake@ATL@@YGIXZ
_TEXT	SEGMENT PARA USE32 PUBLIC 'CODE'
_TEXT	ENDS
;	COMDAT ?InterlockedExchangePointer@@YGPAXPAPAXPAX@Z
_TEXT	SEGMENT PARA USE32 PUBLIC 'CODE'
_TEXT	ENDS
;	COMDAT ?_strthunks@ATL@@3U_AtlStringThunks@1@A
_DATA	SEGMENT DWORD USE32 PUBLIC 'DATA'
_DATA	ENDS
;	COMDAT ?CompareStringWThunk@ATL@@YGHKKPB_WH0H@Z
_TEXT	SEGMENT PARA USE32 PUBLIC 'CODE'
_TEXT	ENDS
;	COMDAT ?_AtlInstallStringThunk@ATL@@YAXPAPAXPAX1@Z
_TEXT	SEGMENT PARA USE32 PUBLIC 'CODE'
_TEXT	ENDS
;	COMDAT ??_B?1??_AtlInstallStringThunk@ATL@@YAXPAPAXPAX1@Z@51
_BSS	SEGMENT DWORD USE32 PUBLIC 'BSS'
_BSS	ENDS
;	COMDAT ?s_bWin9x@?1??_AtlInstallStringThunk@ATL@@YAXPAPAXPAX1@Z@4_NA
_BSS	SEGMENT DWORD USE32 PUBLIC 'BSS'
_BSS	ENDS
;	COMDAT ?CompareStringWFake@ATL@@YGHKKPB_WH0H@Z
_TEXT	SEGMENT PARA USE32 PUBLIC 'CODE'
_TEXT	ENDS
;	COMDAT ??0?$CAtlSafeAllocBufferManager@VCCRTAllocator@ATL@@@_ATL_SAFE_ALLOCA_IMPL@ATL@@QAE@XZ
_TEXT	SEGMENT PARA USE32 PUBLIC 'CODE'
_TEXT	ENDS
;	COMDAT ??1?$CAtlSafeAllocBufferManager@VCCRTAllocator@ATL@@@_ATL_SAFE_ALLOCA_IMPL@ATL@@QAE@XZ
_TEXT	SEGMENT PARA USE32 PUBLIC 'CODE'
_TEXT	ENDS
;	COMDAT ?Free@CCRTAllocator@ATL@@SAXPAX@Z
_TEXT	SEGMENT PARA USE32 PUBLIC 'CODE'
_TEXT	ENDS
;	COMDAT ?AtlW2AHelper@@YGPADPADPB_WHI@Z
_TEXT	SEGMENT PARA USE32 PUBLIC 'CODE'
_TEXT	ENDS
;	COMDAT ?_AtlVerifyStackAvailable@_ATL_SAFE_ALLOCA_IMPL@ATL@@YA_NK@Z
_TEXT	SEGMENT PARA USE32 PUBLIC 'CODE'
_TEXT	ENDS
;	COMDAT ?Allocate@?$CAtlSafeAllocBufferManager@VCCRTAllocator@ATL@@@_ATL_SAFE_ALLOCA_IMPL@ATL@@QAEPAXK@Z
_TEXT	SEGMENT PARA USE32 PUBLIC 'CODE'
_TEXT	ENDS
;	COMDAT ?Allocate@CCRTAllocator@ATL@@SAPAXI@Z
_TEXT	SEGMENT PARA USE32 PUBLIC 'CODE'
_TEXT	ENDS
;	COMDAT ?GetData@CAtlSafeAllocBufferNode@?$CAtlSafeAllocBufferManager@VCCRTAllocator@ATL@@@_ATL_SAFE_ALLOCA_IMPL@ATL@@QAEPAXXZ
_TEXT	SEGMENT PARA USE32 PUBLIC 'CODE'
_TEXT	ENDS
;	COMDAT ?GetStringTypeExWThunk@ATL@@YGHKKPB_WHPAG@Z
_TEXT	SEGMENT PARA USE32 PUBLIC 'CODE'
_TEXT	ENDS
;	COMDAT ?GetStringTypeExWFake@ATL@@YGHKKPB_WHPAG@Z
_TEXT	SEGMENT PARA USE32 PUBLIC 'CODE'
_TEXT	ENDS
;	COMDAT ??0?$CTempBuffer@D$0IA@VCCRTAllocator@ATL@@@ATL@@QAE@XZ
_TEXT	SEGMENT PARA USE32 PUBLIC 'CODE'
_TEXT	ENDS
;	COMDAT ??1?$CTempBuffer@D$0IA@VCCRTAllocator@ATL@@@ATL@@QAE@XZ
_TEXT	SEGMENT PARA USE32 PUBLIC 'CODE'
_TEXT	ENDS
;	COMDAT ?FreeHeap@?$CTempBuffer@D$0IA@VCCRTAllocator@ATL@@@ATL@@AAEXXZ
_TEXT	SEGMENT PARA USE32 PUBLIC 'CODE'
_TEXT	ENDS
;	COMDAT ?Allocate@?$CTempBuffer@D$0IA@VCCRTAllocator@ATL@@@ATL@@QAEPADI@Z
_TEXT	SEGMENT PARA USE32 PUBLIC 'CODE'
_TEXT	ENDS
;	COMDAT ?AllocateBytes@?$CTempBuffer@D$0IA@VCCRTAllocator@ATL@@@ATL@@QAEPADI@Z
_TEXT	SEGMENT PARA USE32 PUBLIC 'CODE'
_TEXT	ENDS
;	COMDAT ?AllocateHeap@?$CTempBuffer@D$0IA@VCCRTAllocator@ATL@@@ATL@@AAEXI@Z
_TEXT	SEGMENT PARA USE32 PUBLIC 'CODE'
_TEXT	ENDS
;	COMDAT ??B?$CTempBuffer@D$0IA@VCCRTAllocator@ATL@@@ATL@@QBEPADXZ
_TEXT	SEGMENT PARA USE32 PUBLIC 'CODE'
_TEXT	ENDS
;	COMDAT ?lstrcmpiWThunk@ATL@@YGHPB_W0@Z
_TEXT	SEGMENT PARA USE32 PUBLIC 'CODE'
_TEXT	ENDS
;	COMDAT ?lstrcmpiWFake@ATL@@YGHPB_W0@Z
_TEXT	SEGMENT PARA USE32 PUBLIC 'CODE'
_TEXT	ENDS
;	COMDAT ?CharLowerWThunk@ATL@@YGPA_WPA_W@Z
_TEXT	SEGMENT PARA USE32 PUBLIC 'CODE'
_TEXT	ENDS
;	COMDAT ?CharLowerWFake@ATL@@YGPA_WPA_W@Z
_TEXT	SEGMENT PARA USE32 PUBLIC 'CODE'
_TEXT	ENDS
;	COMDAT ?AtlA2WHelper@@YGPA_WPA_WPBDHI@Z
_TEXT	SEGMENT PARA USE32 PUBLIC 'CODE'
_TEXT	ENDS
;	COMDAT ?CharUpperWThunk@ATL@@YGPA_WPA_W@Z
_TEXT	SEGMENT PARA USE32 PUBLIC 'CODE'
_TEXT	ENDS
;	COMDAT ?CharUpperWFake@ATL@@YGPA_WPA_W@Z
_TEXT	SEGMENT PARA USE32 PUBLIC 'CODE'
_TEXT	ENDS
;	COMDAT ?GetEnvironmentVariableWThunk@ATL@@YGKPB_WPA_WK@Z
_TEXT	SEGMENT PARA USE32 PUBLIC 'CODE'
_TEXT	ENDS
;	COMDAT ?GetEnvironmentVariableWFake@ATL@@YGKPB_WPA_WK@Z
_TEXT	SEGMENT PARA USE32 PUBLIC 'CODE'
_TEXT	ENDS
;	COMDAT ??0?$CW2AEX@$0IA@@ATL@@QAE@PB_W@Z
_TEXT	SEGMENT PARA USE32 PUBLIC 'CODE'
_TEXT	ENDS
;	COMDAT ?Init@?$CW2AEX@$0IA@@ATL@@AAEXPB_WI@Z
_TEXT	SEGMENT PARA USE32 PUBLIC 'CODE'
_TEXT	ENDS
;	COMDAT ?AtlThrowLastWin32@ATL@@YGXXZ
_TEXT	SEGMENT PARA USE32 PUBLIC 'CODE'
_TEXT	ENDS
;	COMDAT ??1?$CW2AEX@$0IA@@ATL@@QAE@XZ
_TEXT	SEGMENT PARA USE32 PUBLIC 'CODE'
_TEXT	ENDS
;	COMDAT ??B?$CW2AEX@$0IA@@ATL@@QBEPADXZ
_TEXT	SEGMENT PARA USE32 PUBLIC 'CODE'
_TEXT	ENDS
;	COMDAT ?AddRef@CStringData@ATL@@QAEXXZ
_TEXT	SEGMENT PARA USE32 PUBLIC 'CODE'
_TEXT	ENDS
;	COMDAT ?SetManager@CNilStringData@ATL@@QAEXPAUIAtlStringMgr@2@@Z
_TEXT	SEGMENT PARA USE32 PUBLIC 'CODE'
_TEXT	ENDS
;	COMDAT ??0CNilStringData@ATL@@QAE@XZ
_TEXT	SEGMENT PARA USE32 PUBLIC 'CODE'
_TEXT	ENDS
;	COMDAT ??_7CAtlStringMgr@ATL@@6B@
CONST	SEGMENT DWORD USE32 PUBLIC 'CONST'
CONST	ENDS
sxdata	SEGMENT DWORD USE32 'SXDATA'
sxdata	ENDS
FLAT	GROUP _DATA, CONST, _BSS
	ASSUME	CS: FLAT, DS: FLAT, SS: FLAT
endif

INCLUDELIB MSVCRT
INCLUDELIB OLDNAMES

PUBLIC	?_strthunks@ATL@@3U_AtlStringThunks@1@A		; ATL::_strthunks
PUBLIC	?GetEnvironmentVariableWThunk@ATL@@YGKPB_WPA_WK@Z ; ATL::GetEnvironmentVariableWThunk
PUBLIC	?CompareStringWThunk@ATL@@YGHKKPB_WH0H@Z	; ATL::CompareStringWThunk
PUBLIC	?GetStringTypeExWThunk@ATL@@YGHKKPB_WHPAG@Z	; ATL::GetStringTypeExWThunk
PUBLIC	?lstrcmpiWThunk@ATL@@YGHPB_W0@Z			; ATL::lstrcmpiWThunk
PUBLIC	?CharLowerWThunk@ATL@@YGPA_WPA_W@Z		; ATL::CharLowerWThunk
PUBLIC	?CharUpperWThunk@ATL@@YGPA_WPA_W@Z		; ATL::CharUpperWThunk
PUBLIC	?c_bIsMFCDLLTraits@?$_MFCDLLTraitsCheck@DV?$StrTraitATL@DV?$ChTraitsCRT@D@ATL@@@ATL@@@_CSTRING_IMPL_@ATL@@2_NB ; ATL::_CSTRING_IMPL_::_MFCDLLTraitsCheck<char,ATL::StrTraitATL<char,ATL::ChTraitsCRT<char> > >::c_bIsMFCDLLTraits
PUBLIC	?g_pfnGetThreadACP@ATL@@3P6GIXZA		; ATL::g_pfnGetThreadACP
PUBLIC	?_AtlGetThreadACPThunk@ATL@@YGIXZ		; ATL::_AtlGetThreadACPThunk
PUBLIC	?c_bIsMFCDLLTraits@?$_MFCDLLTraitsCheck@_WV?$StrTraitATL@_WV?$ChTraitsCRT@_W@ATL@@@ATL@@@_CSTRING_IMPL_@ATL@@2_NB ; ATL::_CSTRING_IMPL_::_MFCDLLTraitsCheck<wchar_t,ATL::StrTraitATL<wchar_t,ATL::ChTraitsCRT<wchar_t> > >::c_bIsMFCDLLTraits
PUBLIC	?classWebGamePlayingWnd@WebGamePlayingWnd@@2UCRuntimeClass@@B ; WebGamePlayingWnd::classWebGamePlayingWnd
PUBLIC	?_messageEntries@WebGamePlayingWnd@@0QBUAFX_MSGMAP_ENTRY@@B ; WebGamePlayingWnd::_messageEntries
PUBLIC	?messageMap@WebGamePlayingWnd@@1UAFX_MSGMAP@@B	; WebGamePlayingWnd::messageMap
PUBLIC	?OnCreate@WebGamePlayingWnd@@IAEHPAUtagCREATESTRUCTA@@@Z ; WebGamePlayingWnd::OnCreate
PUBLIC	?OnDestroy@WebGamePlayingWnd@@IAEXXZ		; WebGamePlayingWnd::OnDestroy
PUBLIC	?OnClickedFullScreen@WebGamePlayingWnd@@IAEXXZ	; WebGamePlayingWnd::OnClickedFullScreen
PUBLIC	?OnClickedGameRight@WebGamePlayingWnd@@IAEXXZ	; WebGamePlayingWnd::OnClickedGameRight
EXTRN	?GetThisClass@CBasicWnd@@SGPAUCRuntimeClass@@XZ:NEAR ; CBasicWnd::GetThisClass
EXTRN	?GetThisMessageMap@CBasicWnd@@KGPBUAFX_MSGMAP@@XZ:NEAR ; CBasicWnd::GetThisMessageMap
;	COMDAT ?c_bIsMFCDLLTraits@?$_MFCDLLTraitsCheck@DV?$StrTraitATL@DV?$ChTraitsCRT@D@ATL@@@ATL@@@_CSTRING_IMPL_@ATL@@2_NB
CONST	SEGMENT
?c_bIsMFCDLLTraits@?$_MFCDLLTraitsCheck@DV?$StrTraitATL@DV?$ChTraitsCRT@D@ATL@@@ATL@@@_CSTRING_IMPL_@ATL@@2_NB DB 00H ; ATL::_CSTRING_IMPL_::_MFCDLLTraitsCheck<char,ATL::StrTraitATL<char,ATL::ChTraitsCRT<char> > >::c_bIsMFCDLLTraits
CONST	ENDS
;	COMDAT ?c_bIsMFCDLLTraits@?$_MFCDLLTraitsCheck@_WV?$StrTraitATL@_WV?$ChTraitsCRT@_W@ATL@@@ATL@@@_CSTRING_IMPL_@ATL@@2_NB
CONST	SEGMENT
?c_bIsMFCDLLTraits@?$_MFCDLLTraitsCheck@_WV?$StrTraitATL@_WV?$ChTraitsCRT@_W@ATL@@@ATL@@@_CSTRING_IMPL_@ATL@@2_NB DB 00H ; ATL::_CSTRING_IMPL_::_MFCDLLTraitsCheck<wchar_t,ATL::StrTraitATL<wchar_t,ATL::ChTraitsCRT<wchar_t> > >::c_bIsMFCDLLTraits
CONST	ENDS
CONST	SEGMENT
$SG201238 DB	'WebGamePlayingWnd', 00H
CONST	ENDS
;	COMDAT ?classWebGamePlayingWnd@WebGamePlayingWnd@@2UCRuntimeClass@@B
CONST	SEGMENT
?classWebGamePlayingWnd@WebGamePlayingWnd@@2UCRuntimeClass@@B DD FLAT:$SG201238 ; WebGamePlayingWnd::classWebGamePlayingWnd
	DD	0b8H
	DD	0ffffH
	DD	00H
	DD	FLAT:?GetThisClass@CBasicWnd@@SGPAUCRuntimeClass@@XZ
	DD	00H
	DD	00H
CONST	ENDS
;	COMDAT ?_messageEntries@WebGamePlayingWnd@@0QBUAFX_MSGMAP_ENTRY@@B
CONST	SEGMENT
?_messageEntries@WebGamePlayingWnd@@0QBUAFX_MSGMAP_ENTRY@@B DD 01H ; WebGamePlayingWnd::_messageEntries
	DD	00H
	DD	00H
	DD	00H
	DD	0dH
	DD	FLAT:?OnCreate@WebGamePlayingWnd@@IAEHPAUtagCREATESTRUCTA@@@Z
	DD	02H
	DD	00H
	DD	00H
	DD	00H
	DD	010H
	DD	FLAT:?OnDestroy@WebGamePlayingWnd@@IAEXXZ
	DD	0111H
	DD	00H
	DD	077H
	DD	077H
	DD	035H
	DD	FLAT:?OnClickedFullScreen@WebGamePlayingWnd@@IAEXXZ
	DD	0111H
	DD	00H
	DD	082H
	DD	082H
	DD	035H
	DD	FLAT:?OnClickedGameRight@WebGamePlayingWnd@@IAEXXZ
	DD	00H
	DD	00H
	DD	00H
	DD	00H
	DD	00H
	DD	00H
CONST	ENDS
;	COMDAT ?messageMap@WebGamePlayingWnd@@1UAFX_MSGMAP@@B
CONST	SEGMENT
?messageMap@WebGamePlayingWnd@@1UAFX_MSGMAP@@B DD FLAT:?GetThisMessageMap@CBasicWnd@@KGPBUAFX_MSGMAP@@XZ ; WebGamePlayingWnd::messageMap
	DD	FLAT:?_messageEntries@WebGamePlayingWnd@@0QBUAFX_MSGMAP_ENTRY@@B
CONST	ENDS
CONST	SEGMENT
	ORG $+2
$SG201321 DB	'===IN', 00H
	ORG $+2
$SG201322 DB	'WebGamePlayingWnd::OnCreate', 00H
$SG201323 DB	'WebGamePlayingWnd.txt', 00H
	ORG $+2
$SG201328 DB	'WebGameView', 00H
$SG201330 DB	'WebGameToFull', 00H
	ORG $+2
$SG201332 DB	'WebGameInfo', 00H
$SG201335 DB	'normal', 00H
	ORG $+1
$SG201336 DB	'webgameplaying', 00H
	ORG $+1
$SG201339 DB	'normal', 00H
	ORG $+1
$SG201340 DB	'webgameplaying', 00H
	ORG $+1
$SG201343 DB	'===OUT', 00H
	ORG $+1
$SG201344 DB	'WebGamePlayingWnd::OnCreate', 00H
$SG201345 DB	'WebGamePlayingWnd.txt', 00H
	ORG $+2
$SG201354 DB	'===IN', 00H
	ORG $+2
$SG201355 DB	'WebGamePlayingWnd::Init', 00H
$SG201356 DB	'WebGamePlayingWnd.txt', 00H
	ORG $+2
$SG201359 DB	'WebGameRight', 00H
	ORG $+3
$SG201362 DB	'WebGameRight', 00H
	ORG $+3
$SG201365 DB	'===OUT', 00H
	ORG $+1
$SG201366 DB	'WebGamePlayingWnd::Init', 00H
$SG201367 DB	'WebGamePlayingWnd.txt', 00H
	ORG $+2
$SG201374 DB	'===IN', 00H
	ORG $+2
$SG201375 DB	'WebGamePlayingWnd::SetGameEntry', 00H
$SG201376 DB	'WebGamePlayingWnd.txt', 00H
	ORG $+2
$SG201380 DB	'===OUT', 00H
	ORG $+1
$SG201381 DB	'WebGamePlayingWnd::SetGameEntry', 00H
$SG201382 DB	'WebGamePlayingWnd.txt', 00H
	ORG $+2
$SG201391 DB	'===IN', 00H
	ORG $+2
$SG201392 DB	'WebGamePlayingWnd::OnClickedFullScreen', 00H
	ORG $+1
$SG201393 DB	'WebGamePlayingWnd.txt', 00H
	ORG $+2
$SG201401 DB	'===OUT', 00H
	ORG $+1
$SG201402 DB	'WebGamePlayingWnd::OnClickedFullScreen', 00H
	ORG $+1
$SG201403 DB	'WebGamePlayingWnd.txt', 00H
	ORG $+2
$SG201409 DB	'===IN', 00H
	ORG $+2
$SG201410 DB	'WebGamePlayingWnd::OnDestroy', 00H
	ORG $+3
$SG201411 DB	'WebGamePlayingWnd.txt', 00H
	ORG $+2
$SG201414 DB	'===OUT', 00H
	ORG $+1
$SG201415 DB	'WebGamePlayingWnd::OnDestroy', 00H
	ORG $+3
$SG201416 DB	'WebGamePlayingWnd.txt', 00H
	ORG $+2
$SG201422 DB	'WebGameRight', 00H
	ORG $+3
$SG201426 DB	'WebGameRight', 00H
	ORG $+3
$SG201432 DB	'===IN', 00H
	ORG $+2
$SG201433 DB	'WebGamePlayingWnd::UpdateAllWnd', 00H
$SG201434 DB	'WebGamePlayingWnd.txt', 00H
	ORG $+2
$SG201437 DB	0cdH, 0cbH, 0b3H, 0f6H, 0c8H, 0abH, 0c6H, 0c1H, 00H
	ORG $+3
$SG201439 DB	0bdH, 0f8H, 0c8H, 0ebH, 0c8H, 0abH, 0c6H, 0c1H, 00H
	ORG $+3
$SG201442 DB	'WebGameRight', 00H
	ORG $+3
$SG201444 DB	0b9H, 0d8H, 0b1H, 0d5H, 0cbH, 0b5H, 0c3H, 0f7H, 00H
	ORG $+3
$SG201446 DB	0b4H, 0f2H, 0bfH, 0aaH, 0cbH, 0b5H, 0c3H, 0f7H, 00H
	ORG $+3
$SG201449 DB	'===OUT', 00H
	ORG $+1
$SG201450 DB	'WebGamePlayingWnd::UpdateAllWnd', 00H
$SG201451 DB	'WebGamePlayingWnd.txt', 00H
	ORG $+2
$SG201457 DB	'===IN', 00H
	ORG $+2
$SG201458 DB	'GamePlayingWnd::ILayoutChangeOb_InitFinished', 00H
	ORG $+3
$SG201459 DB	'GamePlayingWnd.txt', 00H
	ORG $+1
$SG201462 DB	'===OUT', 00H
	ORG $+1
$SG201463 DB	'GamePlayingWnd::ILayoutChangeOb_InitFinished', 00H
	ORG $+3
$SG201464 DB	'GamePlayingWnd.txt', 00H
	ORG $+1
$SG201472 DB	'===IN', 00H
	ORG $+2
$SG201473 DB	'GamePlayingWnd::ILayoutChangeOb_SkinChanged', 00H
$SG201474 DB	'GamePlayingWnd.txt', 00H
	ORG $+1
$SG201477 DB	'===OUT', 00H
	ORG $+1
$SG201478 DB	'GamePlayingWnd::ILayoutChangeOb_SkinChanged', 00H
$SG201479 DB	'GamePlayingWnd.txt', 00H
	ORG $+1
$SG201486 DB	'===IN', 00H
	ORG $+2
$SG201487 DB	'GamePlayingWnd::ILayoutChangeOb_UpdateLayout', 00H
	ORG $+3
$SG201488 DB	'GamePlayingWnd.txt', 00H
	ORG $+1
$SG201492 DB	'===OUT', 00H
	ORG $+1
$SG201493 DB	'GamePlayingWnd::ILayoutChangeOb_UpdateLayout', 00H
	ORG $+3
$SG201494 DB	'GamePlayingWnd.txt', 00H
CONST	ENDS
;	COMDAT ?g_pfnGetThreadACP@ATL@@3P6GIXZA
_DATA	SEGMENT
?g_pfnGetThreadACP@ATL@@3P6GIXZA DD FLAT:?_AtlGetThreadACPThunk@ATL@@YGIXZ ; ATL::g_pfnGetThreadACP
_DATA	ENDS
;	COMDAT ?_strthunks@ATL@@3U_AtlStringThunks@1@A
_DATA	SEGMENT
?_strthunks@ATL@@3U_AtlStringThunks@1@A DD FLAT:?CompareStringWThunk@ATL@@YGHKKPB_WH0H@Z ; ATL::_strthunks
	DD	FLAT:?GetStringTypeExWThunk@ATL@@YGHKKPB_WHPAG@Z
	DD	FLAT:?lstrcmpiWThunk@ATL@@YGHPB_W0@Z
	DD	FLAT:?CharLowerWThunk@ATL@@YGPA_WPA_W@Z
	DD	FLAT:?CharUpperWThunk@ATL@@YGPA_WPA_W@Z
	DD	FLAT:?GetEnvironmentVariableWThunk@ATL@@YGKPB_WPA_WK@Z
_DATA	ENDS
CONST	SEGMENT
	ORG $+1
_ID_MESSAGE_LAYOUTMGR DD 08H
_ID_DATA_PANELCHANGE DD 05H
CONST	ENDS
PUBLIC	?InterlockedExchangePointer@@YGPAXPAPAXPAX@Z	; InterlockedExchangePointer
PUBLIC	?_AtlGetThreadACPFake@ATL@@YGIXZ		; ATL::_AtlGetThreadACPFake
PUBLIC	?_AtlGetThreadACPReal@ATL@@YGIXZ		; ATL::_AtlGetThreadACPReal
EXTRN	__imp__GetVersionExA@4:NEAR
EXTRN	___security_cookie:DWORD
EXTRN	@__security_check_cookie@4:NEAR
; Function compile flags: /Odt
; File d:\program files (x86)\microsoft visual studio .net 2003\vc7\atlmfc\include\atlconv.h
;	COMDAT ?_AtlGetThreadACPThunk@ATL@@YGIXZ
_TEXT	SEGMENT
_pfnGetThreadACP$ = -164				; size = 4
_ver$ = -160						; size = 148
__$ArrayPad$ = -4					; size = 4
__$ReturnAddr$ = 4					; size = 4
?_AtlGetThreadACPThunk@ATL@@YGIXZ PROC NEAR		; ATL::_AtlGetThreadACPThunk, COMDAT

; 134  : {

  00000	55		 push	 ebp
  00001	8b ec		 mov	 ebp, esp
  00003	81 ec a4 00 00
	00		 sub	 esp, 164		; 000000a4H
  00009	a1 00 00 00 00	 mov	 eax, DWORD PTR ___security_cookie
  0000e	89 45 fc	 mov	 DWORD PTR __$ArrayPad$[ebp], eax

; 135  : 	OSVERSIONINFO ver;
; 136  : 	ATLGETTHREADACP pfnGetThreadACP;
; 137  : 
; 138  : 	ver.dwOSVersionInfoSize = sizeof( ver );

  00011	c7 85 60 ff ff
	ff 94 00 00 00	 mov	 DWORD PTR _ver$[ebp], 148 ; 00000094H

; 139  : 	::GetVersionEx( &ver );

  0001b	8d 85 60 ff ff
	ff		 lea	 eax, DWORD PTR _ver$[ebp]
  00021	50		 push	 eax
  00022	ff 15 00 00 00
	00		 call	 DWORD PTR __imp__GetVersionExA@4

; 140  : 	if( (ver.dwPlatformId == VER_PLATFORM_WIN32_NT) && (ver.dwMajorVersion >= 5) )

  00028	83 bd 70 ff ff
	ff 02		 cmp	 DWORD PTR _ver$[ebp+16], 2
  0002f	75 15		 jne	 SHORT $L24173
  00031	83 bd 64 ff ff
	ff 05		 cmp	 DWORD PTR _ver$[ebp+4], 5
  00038	72 0c		 jb	 SHORT $L24173

; 141  : 	{
; 142  : 		// On Win2K, CP_THREAD_ACP is supported
; 143  : 		pfnGetThreadACP = _AtlGetThreadACPReal;

  0003a	c7 85 5c ff ff
	ff 00 00 00 00	 mov	 DWORD PTR _pfnGetThreadACP$[ebp], OFFSET FLAT:?_AtlGetThreadACPReal@ATL@@YGIXZ ; ATL::_AtlGetThreadACPReal

; 144  : 	}
; 145  : 	else

  00044	eb 0a		 jmp	 SHORT $L24174
$L24173:

; 146  : 	{
; 147  : 		pfnGetThreadACP = _AtlGetThreadACPFake;

  00046	c7 85 5c ff ff
	ff 00 00 00 00	 mov	 DWORD PTR _pfnGetThreadACP$[ebp], OFFSET FLAT:?_AtlGetThreadACPFake@ATL@@YGIXZ ; ATL::_AtlGetThreadACPFake
$L24174:

; 148  : 	}
; 149  : 	InterlockedExchangePointer( reinterpret_cast< void** >(&g_pfnGetThreadACP), pfnGetThreadACP );

  00050	8b 8d 5c ff ff
	ff		 mov	 ecx, DWORD PTR _pfnGetThreadACP$[ebp]
  00056	51		 push	 ecx
  00057	68 00 00 00 00	 push	 OFFSET FLAT:?g_pfnGetThreadACP@ATL@@3P6GIXZA ; ATL::g_pfnGetThreadACP
  0005c	e8 00 00 00 00	 call	 ?InterlockedExchangePointer@@YGPAXPAPAXPAX@Z ; InterlockedExchangePointer

; 150  : 
; 151  : 	return( g_pfnGetThreadACP() );

  00061	ff 15 00 00 00
	00		 call	 DWORD PTR ?g_pfnGetThreadACP@ATL@@3P6GIXZA ; ATL::g_pfnGetThreadACP

; 152  : }

  00067	8b 4d fc	 mov	 ecx, DWORD PTR __$ArrayPad$[ebp]
  0006a	e8 00 00 00 00	 call	 @__security_check_cookie@4
  0006f	8b e5		 mov	 esp, ebp
  00071	5d		 pop	 ebp
  00072	c3		 ret	 0
?_AtlGetThreadACPThunk@ATL@@YGIXZ ENDP			; ATL::_AtlGetThreadACPThunk
_TEXT	ENDS
EXTRN	__imp__InterlockedExchange@8:NEAR
; Function compile flags: /Odt
;	COMDAT ?InterlockedExchangePointer@@YGPAXPAPAXPAX@Z
_TEXT	SEGMENT
_pp$ = 8						; size = 4
_pNew$ = 12						; size = 4
?InterlockedExchangePointer@@YGPAXPAPAXPAX@Z PROC NEAR	; InterlockedExchangePointer, COMDAT

; 91   : {

  00000	55		 push	 ebp
  00001	8b ec		 mov	 ebp, esp

; 92   : 	return( reinterpret_cast<void*>(static_cast<LONG_PTR>(::InterlockedExchange(reinterpret_cast<LONG*>(pp), static_cast<LONG>(reinterpret_cast<LONG_PTR>(pNew))))) );

  00003	8b 45 0c	 mov	 eax, DWORD PTR _pNew$[ebp]
  00006	50		 push	 eax
  00007	8b 4d 08	 mov	 ecx, DWORD PTR _pp$[ebp]
  0000a	51		 push	 ecx
  0000b	ff 15 00 00 00
	00		 call	 DWORD PTR __imp__InterlockedExchange@8

; 93   : }

  00011	5d		 pop	 ebp
  00012	c2 08 00	 ret	 8
?InterlockedExchangePointer@@YGPAXPAPAXPAX@Z ENDP	; InterlockedExchangePointer
_TEXT	ENDS
EXTRN	__imp__GetACP@0:NEAR
EXTRN	__imp__GetLocaleInfoA@16:NEAR
EXTRN	__imp__GetThreadLocale@0:NEAR
; Function compile flags: /Odt
;	COMDAT ?_AtlGetThreadACPFake@ATL@@YGIXZ
_TEXT	SEGMENT
_pch$24161 = -24					; size = 4
_lcidThread$ = -20					; size = 4
_szACP$ = -16						; size = 7
__$ArrayPad$ = -8					; size = 4
_nACP$ = -4						; size = 4
__$ReturnAddr$ = 4					; size = 4
?_AtlGetThreadACPFake@ATL@@YGIXZ PROC NEAR		; ATL::_AtlGetThreadACPFake, COMDAT

; 101  : {

  00000	55		 push	 ebp
  00001	8b ec		 mov	 ebp, esp
  00003	83 ec 18	 sub	 esp, 24			; 00000018H
  00006	a1 00 00 00 00	 mov	 eax, DWORD PTR ___security_cookie
  0000b	89 45 f8	 mov	 DWORD PTR __$ArrayPad$[ebp], eax

; 102  : 	UINT nACP = 0;

  0000e	c7 45 fc 00 00
	00 00		 mov	 DWORD PTR _nACP$[ebp], 0

; 103  : 
; 104  : 	LCID lcidThread = ::GetThreadLocale();

  00015	ff 15 00 00 00
	00		 call	 DWORD PTR __imp__GetThreadLocale@0
  0001b	89 45 ec	 mov	 DWORD PTR _lcidThread$[ebp], eax

; 105  : 
; 106  : 	char szACP[7];
; 107  : 	// GetLocaleInfoA will fail for a Unicode-only LCID, but those are only supported on 
; 108  : 	// Windows 2000.  Since Windows 2000 supports CP_THREAD_ACP, this code path is never
; 109  : 	// executed on Windows 2000.
; 110  : 	if (::GetLocaleInfoA(lcidThread, LOCALE_IDEFAULTANSICODEPAGE, szACP, 7) != 0)

  0001e	6a 07		 push	 7
  00020	8d 45 f0	 lea	 eax, DWORD PTR _szACP$[ebp]
  00023	50		 push	 eax
  00024	68 04 10 00 00	 push	 4100			; 00001004H
  00029	8b 4d ec	 mov	 ecx, DWORD PTR _lcidThread$[ebp]
  0002c	51		 push	 ecx
  0002d	ff 15 00 00 00
	00		 call	 DWORD PTR __imp__GetLocaleInfoA@16
  00033	85 c0		 test	 eax, eax
  00035	74 34		 je	 SHORT $L24160

; 111  : 	{
; 112  : 		char* pch = szACP;

  00037	8d 55 f0	 lea	 edx, DWORD PTR _szACP$[ebp]
  0003a	89 55 e8	 mov	 DWORD PTR _pch$24161[ebp], edx
$L24163:

; 113  : 		while (*pch != '\0')

  0003d	8b 45 e8	 mov	 eax, DWORD PTR _pch$24161[ebp]
  00040	0f be 08	 movsx	 ecx, BYTE PTR [eax]
  00043	85 c9		 test	 ecx, ecx
  00045	74 24		 je	 SHORT $L24160

; 114  : 		{
; 115  : 			nACP *= 10;

  00047	8b 55 fc	 mov	 edx, DWORD PTR _nACP$[ebp]
  0004a	6b d2 0a	 imul	 edx, 10			; 0000000aH
  0004d	89 55 fc	 mov	 DWORD PTR _nACP$[ebp], edx

; 116  : 			nACP += *pch++ - '0';

  00050	8b 45 e8	 mov	 eax, DWORD PTR _pch$24161[ebp]
  00053	0f be 08	 movsx	 ecx, BYTE PTR [eax]
  00056	8b 55 fc	 mov	 edx, DWORD PTR _nACP$[ebp]
  00059	8d 44 0a d0	 lea	 eax, DWORD PTR [edx+ecx-48]
  0005d	89 45 fc	 mov	 DWORD PTR _nACP$[ebp], eax
  00060	8b 4d e8	 mov	 ecx, DWORD PTR _pch$24161[ebp]
  00063	83 c1 01	 add	 ecx, 1
  00066	89 4d e8	 mov	 DWORD PTR _pch$24161[ebp], ecx

; 117  : 		}

  00069	eb d2		 jmp	 SHORT $L24163
$L24160:

; 118  : 	}
; 119  : 	// Use the Default ANSI Code Page if we were unable to get the thread ACP or if one does not exist.
; 120  : 	if (nACP == 0)

  0006b	83 7d fc 00	 cmp	 DWORD PTR _nACP$[ebp], 0
  0006f	75 09		 jne	 SHORT $L24165

; 121  : 		nACP = ::GetACP();

  00071	ff 15 00 00 00
	00		 call	 DWORD PTR __imp__GetACP@0
  00077	89 45 fc	 mov	 DWORD PTR _nACP$[ebp], eax
$L24165:

; 122  : 
; 123  : 	return nACP;

  0007a	8b 45 fc	 mov	 eax, DWORD PTR _nACP$[ebp]

; 124  : }

  0007d	8b 4d f8	 mov	 ecx, DWORD PTR __$ArrayPad$[ebp]
  00080	e8 00 00 00 00	 call	 @__security_check_cookie@4
  00085	8b e5		 mov	 esp, ebp
  00087	5d		 pop	 ebp
  00088	c3		 ret	 0
?_AtlGetThreadACPFake@ATL@@YGIXZ ENDP			; ATL::_AtlGetThreadACPFake
; Function compile flags: /Odt
_TEXT	ENDS
;	COMDAT ?_AtlGetThreadACPReal@ATL@@YGIXZ
_TEXT	SEGMENT
?_AtlGetThreadACPReal@ATL@@YGIXZ PROC NEAR		; ATL::_AtlGetThreadACPReal, COMDAT

; 127  : {

  00000	55		 push	 ebp
  00001	8b ec		 mov	 ebp, esp

; 128  : 	return( CP_THREAD_ACP );

  00003	b8 03 00 00 00	 mov	 eax, 3

; 129  : }

  00008	5d		 pop	 ebp
  00009	c3		 ret	 0
?_AtlGetThreadACPReal@ATL@@YGIXZ ENDP			; ATL::_AtlGetThreadACPReal
_TEXT	ENDS
PUBLIC	?GetThisClass@WebGamePlayingWnd@@SGPAUCRuntimeClass@@XZ ; WebGamePlayingWnd::GetThisClass
; Function compile flags: /Odt
; File d:\boxgit\playbox\playbox\dev\prj\playbox\src\module\gamepanel\webgameplayingwnd.cpp
_TEXT	SEGMENT
?GetThisClass@WebGamePlayingWnd@@SGPAUCRuntimeClass@@XZ PROC NEAR ; WebGamePlayingWnd::GetThisClass

; 17   : IMPLEMENT_DYNAMIC(WebGamePlayingWnd, CBasicWnd)

  00000	55		 push	 ebp
  00001	8b ec		 mov	 ebp, esp
  00003	b8 00 00 00 00	 mov	 eax, OFFSET FLAT:?classWebGamePlayingWnd@WebGamePlayingWnd@@2UCRuntimeClass@@B ; WebGamePlayingWnd::classWebGamePlayingWnd
  00008	5d		 pop	 ebp
  00009	c3		 ret	 0
?GetThisClass@WebGamePlayingWnd@@SGPAUCRuntimeClass@@XZ ENDP ; WebGamePlayingWnd::GetThisClass
_TEXT	ENDS
PUBLIC	?GetRuntimeClass@WebGamePlayingWnd@@UBEPAUCRuntimeClass@@XZ ; WebGamePlayingWnd::GetRuntimeClass
; Function compile flags: /Odt
_TEXT	SEGMENT
_this$ = -4						; size = 4
?GetRuntimeClass@WebGamePlayingWnd@@UBEPAUCRuntimeClass@@XZ PROC NEAR ; WebGamePlayingWnd::GetRuntimeClass
; _this$ = ecx

; 17   : IMPLEMENT_DYNAMIC(WebGamePlayingWnd, CBasicWnd)

  00010	55		 push	 ebp
  00011	8b ec		 mov	 ebp, esp
  00013	51		 push	 ecx
  00014	89 4d fc	 mov	 DWORD PTR _this$[ebp], ecx
  00017	b8 00 00 00 00	 mov	 eax, OFFSET FLAT:?classWebGamePlayingWnd@WebGamePlayingWnd@@2UCRuntimeClass@@B ; WebGamePlayingWnd::classWebGamePlayingWnd
  0001c	8b e5		 mov	 esp, ebp
  0001e	5d		 pop	 ebp
  0001f	c3		 ret	 0
?GetRuntimeClass@WebGamePlayingWnd@@UBEPAUCRuntimeClass@@XZ ENDP ; WebGamePlayingWnd::GetRuntimeClass
_TEXT	ENDS
PUBLIC	??_R1A@?0A@A@CObject@@8				; CObject::`RTTI Base Class Descriptor at (0,-1,0,0)'
PUBLIC	??_R0?AVCObject@@@8				; CObject `RTTI Type Descriptor'
PUBLIC	??_R1A@?0A@A@CWnd@@8				; CWnd::`RTTI Base Class Descriptor at (0,-1,0,0)'
PUBLIC	??_R0?AVCWnd@@@8				; CWnd `RTTI Type Descriptor'
PUBLIC	??_R1A@?0A@A@CCmdTarget@@8			; CCmdTarget::`RTTI Base Class Descriptor at (0,-1,0,0)'
PUBLIC	??_R0?AVCCmdTarget@@@8				; CCmdTarget `RTTI Type Descriptor'
PUBLIC	??2CObject@@SGPAXI@Z				; CObject::operator new
PUBLIC	??_R0?AVIMessageObserver@@@8			; IMessageObserver `RTTI Type Descriptor'
PUBLIC	??3CObject@@SGXPAX@Z				; CObject::operator delete
PUBLIC	?Serialize@CObject@@UAEXAAVCArchive@@@Z		; CObject::Serialize
PUBLIC	?AssertValid@CObject@@UBEXXZ			; CObject::AssertValid
PUBLIC	?Dump@CObject@@UBEXAAVCDumpContext@@@Z		; CObject::Dump
PUBLIC	?ILayoutChangeOb_LayerChanged@ILayoutChangeObserver@@UAEXV?$basic_string@DU?$char_traits@D@std@@V?$allocator@D@2@@std@@00@Z ; ILayoutChangeObserver::ILayoutChangeOb_LayerChanged
PUBLIC	?ILayoutChangeOb_PaneChanged@ILayoutChangeObserver@@UAEXV?$basic_string@DU?$char_traits@D@std@@V?$allocator@D@2@@std@@0@Z ; ILayoutChangeObserver::ILayoutChangeOb_PaneChanged
PUBLIC	?ILayoutChangeOb_ColorChanged@ILayoutChangeObserver@@UAEXXZ ; ILayoutChangeObserver::ILayoutChangeOb_ColorChanged
PUBLIC	?ILayoutChangeOb_ColorChanging@ILayoutChangeObserver@@UAEXXZ ; ILayoutChangeObserver::ILayoutChangeOb_ColorChanging
PUBLIC	?ILayoutChangeOb_InitBegin@ILayoutChangeObserver@@UAEXXZ ; ILayoutChangeObserver::ILayoutChangeOb_InitBegin
PUBLIC	??0ILayoutChangeObserver@@QAE@XZ		; ILayoutChangeObserver::ILayoutChangeObserver
PUBLIC	??1ILayoutChangeObserver@@UAE@XZ		; ILayoutChangeObserver::~ILayoutChangeObserver
PUBLIC	??0WebGamePlayingWnd@@QAE@XZ			; WebGamePlayingWnd::WebGamePlayingWnd
PUBLIC	?GetMessageMap@WebGamePlayingWnd@@MBEPBUAFX_MSGMAP@@XZ ; WebGamePlayingWnd::GetMessageMap
PUBLIC	?ILayoutChangeOb_InitFinished@WebGamePlayingWnd@@UAEXXZ ; WebGamePlayingWnd::ILayoutChangeOb_InitFinished
PUBLIC	?ILayoutChangeOb_SkinChanged@WebGamePlayingWnd@@UAEXV?$basic_string@DU?$char_traits@D@std@@V?$allocator@D@2@@std@@0@Z ; WebGamePlayingWnd::ILayoutChangeOb_SkinChanged
PUBLIC	?ILayoutChangeOb_UpdateLayout@WebGamePlayingWnd@@UAEXPAUHWND__@@@Z ; WebGamePlayingWnd::ILayoutChangeOb_UpdateLayout
PUBLIC	??_7WebGamePlayingWnd@@6BCBasicWnd@@@		; WebGamePlayingWnd::`vftable'
PUBLIC	??_7WebGamePlayingWnd@@6BILayoutChangeObserver@@@ ; WebGamePlayingWnd::`vftable'
PUBLIC	??_GWebGamePlayingWnd@@UAEPAXI@Z		; WebGamePlayingWnd::`scalar deleting destructor'
PUBLIC	?DoDataExchange@CWnd@@MAEXPAVCDataExchange@@@Z	; CWnd::DoDataExchange
PUBLIC	?BeginModalState@CWnd@@UAEXXZ			; CWnd::BeginModalState
PUBLIC	?EndModalState@CWnd@@UAEXXZ			; CWnd::EndModalState
PUBLIC	??_R0?AVILayoutChangeObserver@@@8		; ILayoutChangeObserver `RTTI Type Descriptor'
PUBLIC	??_R4WebGamePlayingWnd@@6BCBasicWnd@@@		; WebGamePlayingWnd::`RTTI Complete Object Locator'
PUBLIC	??_R0?AVWebGamePlayingWnd@@@8			; WebGamePlayingWnd `RTTI Type Descriptor'
PUBLIC	??_R3WebGamePlayingWnd@@8			; WebGamePlayingWnd::`RTTI Class Hierarchy Descriptor'
PUBLIC	??_R2WebGamePlayingWnd@@8			; WebGamePlayingWnd::`RTTI Base Class Array'
PUBLIC	??_R1A@?0A@A@WebGamePlayingWnd@@8		; WebGamePlayingWnd::`RTTI Base Class Descriptor at (0,-1,0,0)'
PUBLIC	??_R1A@?0A@A@CBasicWnd@@8			; CBasicWnd::`RTTI Base Class Descriptor at (0,-1,0,0)'
PUBLIC	??_R0?AVCBasicWnd@@@8				; CBasicWnd `RTTI Type Descriptor'
PUBLIC	??_R1FE@?0A@A@ILayoutChangeObserver@@8		; ILayoutChangeObserver::`RTTI Base Class Descriptor at (84,-1,0,0)'
PUBLIC	??_R1FE@?0A@A@IMessageObserver@@8		; IMessageObserver::`RTTI Base Class Descriptor at (84,-1,0,0)'
PUBLIC	??_EWebGamePlayingWnd@@WFE@AEPAXI@Z		; [thunk]:WebGamePlayingWnd::`vector deleting destructor'
PUBLIC	??_R4WebGamePlayingWnd@@6BILayoutChangeObserver@@@ ; WebGamePlayingWnd::`RTTI Complete Object Locator'
PUBLIC	??0WEB_GAME@@QAE@XZ				; WEB_GAME::WEB_GAME
PUBLIC	??1WEB_GAME@@QAE@XZ				; WEB_GAME::~WEB_GAME
EXTRN	?CreateControlContainer@CWnd@@MAEHPAPAVCOleControlContainer@@@Z:NEAR ; CWnd::CreateControlContainer
EXTRN	?CreateControlSite@CWnd@@MAEHPAVCOleControlContainer@@PAPAVCOleControlSite@@IABU_GUID@@@Z:NEAR ; CWnd::CreateControlSite
EXTRN	?SetOccDialogInfo@CWnd@@MAEHPAU_AFX_OCC_DIALOG_INFO@@@Z:NEAR ; CWnd::SetOccDialogInfo
EXTRN	?OnToolHitTest@CWnd@@UBEHVCPoint@@PAUtagTOOLINFOA@@@Z:NEAR ; CWnd::OnToolHitTest
EXTRN	?GetScrollBarCtrl@CWnd@@UBEPAVCScrollBar@@H@Z:NEAR ; CWnd::GetScrollBarCtrl
EXTRN	?WinHelpA@CWnd@@UAEXKI@Z:NEAR			; CWnd::WinHelpA
EXTRN	?HtmlHelpA@CWnd@@UAEXKI@Z:NEAR			; CWnd::HtmlHelpA
EXTRN	?WinHelpInternal@CWnd@@UAEXKI@Z:NEAR		; CWnd::WinHelpInternal
EXTRN	?ContinueModal@CWnd@@UAEHXZ:NEAR		; CWnd::ContinueModal
EXTRN	?EndModalLoop@CWnd@@UAEXH@Z:NEAR		; CWnd::EndModalLoop
EXTRN	?GetInterfaceMap@CWnd@@MBEPBUAFX_INTERFACEMAP@@XZ:NEAR ; CWnd::GetInterfaceMap
EXTRN	??0MyWebBrowserWnd@@QAE@H@Z:NEAR		; MyWebBrowserWnd::MyWebBrowserWnd
EXTRN	??0CxSkinButton@@QAE@XZ:NEAR			; CxSkinButton::CxSkinButton
EXTRN	?EnsureStdObj@CWnd@@UAEJXZ:NEAR			; CWnd::EnsureStdObj
EXTRN	?get_accParent@CWnd@@UAEJPAPAUIDispatch@@@Z:NEAR ; CWnd::get_accParent
EXTRN	?get_accChildCount@CWnd@@UAEJPAJ@Z:NEAR		; CWnd::get_accChildCount
EXTRN	?OnCmdMsg@CCmdTarget@@UAEHIHPAXPAUAFX_CMDHANDLERINFO@@@Z:NEAR ; CCmdTarget::OnCmdMsg
EXTRN	?get_accChild@CWnd@@UAEJUtagVARIANT@@PAPAUIDispatch@@@Z:NEAR ; CWnd::get_accChild
EXTRN	?IsInvokeAllowed@CCmdTarget@@UAEHJ@Z:NEAR	; CCmdTarget::IsInvokeAllowed
EXTRN	?get_accName@CWnd@@UAEJUtagVARIANT@@PAPA_W@Z:NEAR ; CWnd::get_accName
EXTRN	?get_accValue@CWnd@@UAEJUtagVARIANT@@PAPA_W@Z:NEAR ; CWnd::get_accValue
EXTRN	?get_accDescription@CWnd@@UAEJUtagVARIANT@@PAPA_W@Z:NEAR ; CWnd::get_accDescription
EXTRN	?GetDispatchIID@CCmdTarget@@UAEHPAU_GUID@@@Z:NEAR ; CCmdTarget::GetDispatchIID
EXTRN	?GetTypeInfoCount@CCmdTarget@@UAEIXZ:NEAR	; CCmdTarget::GetTypeInfoCount
EXTRN	?GetTypeLibCache@CCmdTarget@@UAEPAVCTypeLibCache@@XZ:NEAR ; CCmdTarget::GetTypeLibCache
EXTRN	?get_accRole@CWnd@@UAEJUtagVARIANT@@PAU2@@Z:NEAR ; CWnd::get_accRole
EXTRN	?GetTypeLib@CCmdTarget@@UAEJKPAPAUITypeLib@@@Z:NEAR ; CCmdTarget::GetTypeLib
EXTRN	?get_accState@CWnd@@UAEJUtagVARIANT@@PAU2@@Z:NEAR ; CWnd::get_accState
EXTRN	?get_accHelp@CWnd@@UAEJUtagVARIANT@@PAPA_W@Z:NEAR ; CWnd::get_accHelp
EXTRN	?get_accHelpTopic@CWnd@@UAEJPAPA_WUtagVARIANT@@PAJ@Z:NEAR ; CWnd::get_accHelpTopic
EXTRN	?get_accKeyboardShortcut@CWnd@@UAEJUtagVARIANT@@PAPA_W@Z:NEAR ; CWnd::get_accKeyboardShortcut
EXTRN	?get_accFocus@CWnd@@UAEJPAUtagVARIANT@@@Z:NEAR	; CWnd::get_accFocus
EXTRN	?get_accSelection@CWnd@@UAEJPAUtagVARIANT@@@Z:NEAR ; CWnd::get_accSelection
EXTRN	?get_accDefaultAction@CWnd@@UAEJUtagVARIANT@@PAPA_W@Z:NEAR ; CWnd::get_accDefaultAction
EXTRN	?GetCommandMap@CCmdTarget@@MBEPBUAFX_OLECMDMAP@@XZ:NEAR ; CCmdTarget::GetCommandMap
EXTRN	?accSelect@CWnd@@UAEJJUtagVARIANT@@@Z:NEAR	; CWnd::accSelect
EXTRN	?accLocation@CWnd@@UAEJPAJ000UtagVARIANT@@@Z:NEAR ; CWnd::accLocation
EXTRN	?GetDispatchMap@CCmdTarget@@MBEPBUAFX_DISPMAP@@XZ:NEAR ; CCmdTarget::GetDispatchMap
EXTRN	?accNavigate@CWnd@@UAEJJUtagVARIANT@@PAU2@@Z:NEAR ; CWnd::accNavigate
EXTRN	?accHitTest@CWnd@@UAEJJJPAUtagVARIANT@@@Z:NEAR	; CWnd::accHitTest
EXTRN	?GetConnectionMap@CCmdTarget@@MBEPBUAFX_CONNECTIONMAP@@XZ:NEAR ; CCmdTarget::GetConnectionMap
EXTRN	?accDoDefaultAction@CWnd@@UAEJUtagVARIANT@@@Z:NEAR ; CWnd::accDoDefaultAction
EXTRN	?put_accName@CWnd@@UAEJUtagVARIANT@@PA_W@Z:NEAR	; CWnd::put_accName
EXTRN	?put_accValue@CWnd@@UAEJUtagVARIANT@@PA_W@Z:NEAR ; CWnd::put_accValue
EXTRN	?SetProxy@CWnd@@UAEJPAUIAccessibleProxy@@@Z:NEAR ; CWnd::SetProxy
EXTRN	?CreateAccessibleProxy@CWnd@@UAEJIJPAJ@Z:NEAR	; CWnd::CreateAccessibleProxy
EXTRN	?GetEventSinkMap@CCmdTarget@@MBEPBUAFX_EVENTSINKMAP@@XZ:NEAR ; CCmdTarget::GetEventSinkMap
EXTRN	__except_list:DWORD
EXTRN	___CxxFrameHandler:NEAR
EXTRN	?OnCreateAggregates@CCmdTarget@@UAEHXZ:NEAR	; CCmdTarget::OnCreateAggregates
EXTRN	?OnCommand@CWnd@@MAEHIJ@Z:NEAR			; CWnd::OnCommand
EXTRN	?GetInterfaceHook@CCmdTarget@@UAEPAUIUnknown@@PBX@Z:NEAR ; CCmdTarget::GetInterfaceHook
EXTRN	?OnNotify@CWnd@@MAEHIJPAJ@Z:NEAR		; CWnd::OnNotify
EXTRN	?GetExtraConnectionPoints@CCmdTarget@@MAEHPAVCPtrArray@@@Z:NEAR ; CCmdTarget::GetExtraConnectionPoints
EXTRN	?GetConnectionHook@CCmdTarget@@MAEPAUIConnectionPoint@@ABU_GUID@@@Z:NEAR ; CCmdTarget::GetConnectionHook
EXTRN	??0CBasicWnd@@QAE@XZ:NEAR			; CBasicWnd::CBasicWnd
EXTRN	??1CBasicWnd@@UAE@XZ:NEAR			; CBasicWnd::~CBasicWnd
EXTRN	?PreSubclassWindow@CWnd@@UAEXXZ:NEAR		; CWnd::PreSubclassWindow
EXTRN	?Create@CWnd@@UAEHPBD0KABUtagRECT@@PAV1@IPAUCCreateContext@@@Z:NEAR ; CWnd::Create
EXTRN	?CreateEx@CWnd@@UAEHKPBD0KHHHHPAUHWND__@@PAUHMENU__@@PAX@Z:NEAR ; CWnd::CreateEx
EXTRN	?CreateEx@CWnd@@UAEHKPBD0KABUtagRECT@@PAV1@IPAX@Z:NEAR ; CWnd::CreateEx
EXTRN	??_EWebGamePlayingWnd@@UAEPAXI@Z:NEAR		; WebGamePlayingWnd::`vector deleting destructor'
EXTRN	?DestroyWindow@CWnd@@UAEHXZ:NEAR		; CWnd::DestroyWindow
EXTRN	?PreCreateWindow@CWnd@@UAEHAAUtagCREATESTRUCTA@@@Z:NEAR ; CWnd::PreCreateWindow
EXTRN	?CalcWindowRect@CWnd@@UAEXPAUtagRECT@@I@Z:NEAR	; CWnd::CalcWindowRect
EXTRN	?GetSuperWndProcAddr@CWnd@@MAEPAP6GJPAUHWND__@@IIJ@ZXZ:NEAR ; CWnd::GetSuperWndProcAddr
EXTRN	??_7type_info@@6B@:QWORD			; type_info::`vftable'
EXTRN	?PreTranslateMessage@CWnd@@UAEHPAUtagMSG@@@Z:NEAR ; CWnd::PreTranslateMessage
EXTRN	?OnAmbientProperty@CWnd@@UAEHPAVCOleControlSite@@JPAUtagVARIANT@@@Z:NEAR ; CWnd::OnAmbientProperty
EXTRN	?WindowProc@CWnd@@MAEJIIJ@Z:NEAR		; CWnd::WindowProc
EXTRN	?OnWndMsg@CWnd@@MAEHIIJPAJ@Z:NEAR		; CWnd::OnWndMsg
EXTRN	?DefWindowProcA@CWnd@@MAEJIIJ@Z:NEAR		; CWnd::DefWindowProcA
EXTRN	?PostNcDestroy@CWnd@@MAEXXZ:NEAR		; CWnd::PostNcDestroy
EXTRN	?OnChildNotify@CWnd@@MAEHIIJPAJ@Z:NEAR		; CWnd::OnChildNotify
EXTRN	?AfxGetMessageManager@@YAPAVIMessageManager@@XZ:NEAR ; AfxGetMessageManager
EXTRN	?CheckAutoCenter@CWnd@@UAEHXZ:NEAR		; CWnd::CheckAutoCenter
EXTRN	?IsFrameWnd@CWnd@@UBEHXZ:NEAR			; CWnd::IsFrameWnd
EXTRN	?OnFinalRelease@CWnd@@UAEXXZ:NEAR		; CWnd::OnFinalRelease
xdata$x	SEGMENT
$T202349 DD	0ffffffffH
	DD	FLAT:$L202337
	DD	00H
	DD	FLAT:$L202338
	DD	01H
	DD	FLAT:$L202339
	DD	02H
	DD	FLAT:$L202340
	DD	02H
	DD	FLAT:$L202341
	DD	02H
	DD	FLAT:$L202342
$T202346 DD	019930520H
	DD	06H
	DD	FLAT:$T202349
	DD	2 DUP(00H)
	DD	2 DUP(00H)
xdata$x	ENDS
;	COMDAT ??_7WebGamePlayingWnd@@6BCBasicWnd@@@
CONST	SEGMENT
??_7WebGamePlayingWnd@@6BCBasicWnd@@@ DD FLAT:??_R4WebGamePlayingWnd@@6BCBasicWnd@@@ ; WebGamePlayingWnd::`vftable'
	DD	FLAT:?GetRuntimeClass@WebGamePlayingWnd@@UBEPAUCRuntimeClass@@XZ
	DD	FLAT:??_EWebGamePlayingWnd@@UAEPAXI@Z
	DD	FLAT:?Serialize@CObject@@UAEXAAVCArchive@@@Z
	DD	FLAT:?AssertValid@CObject@@UBEXXZ
	DD	FLAT:?Dump@CObject@@UBEXAAVCDumpContext@@@Z
	DD	FLAT:?OnCmdMsg@CCmdTarget@@UAEHIHPAXPAUAFX_CMDHANDLERINFO@@@Z
	DD	FLAT:?OnFinalRelease@CWnd@@UAEXXZ
	DD	FLAT:?IsInvokeAllowed@CCmdTarget@@UAEHJ@Z
	DD	FLAT:?GetDispatchIID@CCmdTarget@@UAEHPAU_GUID@@@Z
	DD	FLAT:?GetTypeInfoCount@CCmdTarget@@UAEIXZ
	DD	FLAT:?GetTypeLibCache@CCmdTarget@@UAEPAVCTypeLibCache@@XZ
	DD	FLAT:?GetTypeLib@CCmdTarget@@UAEJKPAPAUITypeLib@@@Z
	DD	FLAT:?GetMessageMap@WebGamePlayingWnd@@MBEPBUAFX_MSGMAP@@XZ
	DD	FLAT:?GetCommandMap@CCmdTarget@@MBEPBUAFX_OLECMDMAP@@XZ
	DD	FLAT:?GetDispatchMap@CCmdTarget@@MBEPBUAFX_DISPMAP@@XZ
	DD	FLAT:?GetConnectionMap@CCmdTarget@@MBEPBUAFX_CONNECTIONMAP@@XZ
	DD	FLAT:?GetInterfaceMap@CWnd@@MBEPBUAFX_INTERFACEMAP@@XZ
	DD	FLAT:?GetEventSinkMap@CCmdTarget@@MBEPBUAFX_EVENTSINKMAP@@XZ
	DD	FLAT:?OnCreateAggregates@CCmdTarget@@UAEHXZ
	DD	FLAT:?GetInterfaceHook@CCmdTarget@@UAEPAUIUnknown@@PBX@Z
	DD	FLAT:?GetExtraConnectionPoints@CCmdTarget@@MAEHPAVCPtrArray@@@Z
	DD	FLAT:?GetConnectionHook@CCmdTarget@@MAEPAUIConnectionPoint@@ABU_GUID@@@Z
	DD	FLAT:?PreSubclassWindow@CWnd@@UAEXXZ
	DD	FLAT:?Create@CWnd@@UAEHPBD0KABUtagRECT@@PAV1@IPAUCCreateContext@@@Z
	DD	FLAT:?CreateEx@CWnd@@UAEHKPBD0KABUtagRECT@@PAV1@IPAX@Z
	DD	FLAT:?CreateEx@CWnd@@UAEHKPBD0KHHHHPAUHWND__@@PAUHMENU__@@PAX@Z
	DD	FLAT:?DestroyWindow@CWnd@@UAEHXZ
	DD	FLAT:?PreCreateWindow@CWnd@@UAEHAAUtagCREATESTRUCTA@@@Z
	DD	FLAT:?CalcWindowRect@CWnd@@UAEXPAUtagRECT@@I@Z
	DD	FLAT:?OnToolHitTest@CWnd@@UBEHVCPoint@@PAUtagTOOLINFOA@@@Z
	DD	FLAT:?GetScrollBarCtrl@CWnd@@UBEPAVCScrollBar@@H@Z
	DD	FLAT:?WinHelpA@CWnd@@UAEXKI@Z
	DD	FLAT:?HtmlHelpA@CWnd@@UAEXKI@Z
	DD	FLAT:?WinHelpInternal@CWnd@@UAEXKI@Z
	DD	FLAT:?ContinueModal@CWnd@@UAEHXZ
	DD	FLAT:?EndModalLoop@CWnd@@UAEXH@Z
	DD	FLAT:?EnsureStdObj@CWnd@@UAEJXZ
	DD	FLAT:?get_accParent@CWnd@@UAEJPAPAUIDispatch@@@Z
	DD	FLAT:?get_accChildCount@CWnd@@UAEJPAJ@Z
	DD	FLAT:?get_accChild@CWnd@@UAEJUtagVARIANT@@PAPAUIDispatch@@@Z
	DD	FLAT:?get_accName@CWnd@@UAEJUtagVARIANT@@PAPA_W@Z
	DD	FLAT:?get_accValue@CWnd@@UAEJUtagVARIANT@@PAPA_W@Z
	DD	FLAT:?get_accDescription@CWnd@@UAEJUtagVARIANT@@PAPA_W@Z
	DD	FLAT:?get_accRole@CWnd@@UAEJUtagVARIANT@@PAU2@@Z
	DD	FLAT:?get_accState@CWnd@@UAEJUtagVARIANT@@PAU2@@Z
	DD	FLAT:?get_accHelp@CWnd@@UAEJUtagVARIANT@@PAPA_W@Z
	DD	FLAT:?get_accHelpTopic@CWnd@@UAEJPAPA_WUtagVARIANT@@PAJ@Z
	DD	FLAT:?get_accKeyboardShortcut@CWnd@@UAEJUtagVARIANT@@PAPA_W@Z
	DD	FLAT:?get_accFocus@CWnd@@UAEJPAUtagVARIANT@@@Z
	DD	FLAT:?get_accSelection@CWnd@@UAEJPAUtagVARIANT@@@Z
	DD	FLAT:?get_accDefaultAction@CWnd@@UAEJUtagVARIANT@@PAPA_W@Z
	DD	FLAT:?accSelect@CWnd@@UAEJJUtagVARIANT@@@Z
	DD	FLAT:?accLocation@CWnd@@UAEJPAJ000UtagVARIANT@@@Z
	DD	FLAT:?accNavigate@CWnd@@UAEJJUtagVARIANT@@PAU2@@Z
	DD	FLAT:?accHitTest@CWnd@@UAEJJJPAUtagVARIANT@@@Z
	DD	FLAT:?accDoDefaultAction@CWnd@@UAEJUtagVARIANT@@@Z
	DD	FLAT:?put_accName@CWnd@@UAEJUtagVARIANT@@PA_W@Z
	DD	FLAT:?put_accValue@CWnd@@UAEJUtagVARIANT@@PA_W@Z
	DD	FLAT:?SetProxy@CWnd@@UAEJPAUIAccessibleProxy@@@Z
	DD	FLAT:?CreateAccessibleProxy@CWnd@@UAEJIJPAJ@Z
	DD	FLAT:?OnCommand@CWnd@@MAEHIJ@Z
	DD	FLAT:?OnNotify@CWnd@@MAEHIJPAJ@Z
	DD	FLAT:?GetSuperWndProcAddr@CWnd@@MAEPAP6GJPAUHWND__@@IIJ@ZXZ
	DD	FLAT:?DoDataExchange@CWnd@@MAEXPAVCDataExchange@@@Z
	DD	FLAT:?BeginModalState@CWnd@@UAEXXZ
	DD	FLAT:?EndModalState@CWnd@@UAEXXZ
	DD	FLAT:?PreTranslateMessage@CWnd@@UAEHPAUtagMSG@@@Z
	DD	FLAT:?OnAmbientProperty@CWnd@@UAEHPAVCOleControlSite@@JPAUtagVARIANT@@@Z
	DD	FLAT:?WindowProc@CWnd@@MAEJIIJ@Z
	DD	FLAT:?OnWndMsg@CWnd@@MAEHIIJPAJ@Z
	DD	FLAT:?DefWindowProcA@CWnd@@MAEJIIJ@Z
	DD	FLAT:?PostNcDestroy@CWnd@@MAEXXZ
	DD	FLAT:?OnChildNotify@CWnd@@MAEHIIJPAJ@Z
	DD	FLAT:?CheckAutoCenter@CWnd@@UAEHXZ
	DD	FLAT:?IsFrameWnd@CWnd@@UBEHXZ
	DD	FLAT:?CreateControlContainer@CWnd@@MAEHPAPAVCOleControlContainer@@@Z
	DD	FLAT:?CreateControlSite@CWnd@@MAEHPAVCOleControlContainer@@PAPAVCOleControlSite@@IABU_GUID@@@Z
	DD	FLAT:?SetOccDialogInfo@CWnd@@MAEHPAU_AFX_OCC_DIALOG_INFO@@@Z
CONST	ENDS
;	COMDAT ??_7WebGamePlayingWnd@@6BILayoutChangeObserver@@@
CONST	SEGMENT
??_7WebGamePlayingWnd@@6BILayoutChangeObserver@@@ DD FLAT:??_R4WebGamePlayingWnd@@6BILayoutChangeObserver@@@ ; WebGamePlayingWnd::`vftable'
	DD	FLAT:??_EWebGamePlayingWnd@@WFE@AEPAXI@Z
	DD	FLAT:?ILayoutChangeOb_LayerChanged@ILayoutChangeObserver@@UAEXV?$basic_string@DU?$char_traits@D@std@@V?$allocator@D@2@@std@@00@Z
	DD	FLAT:?ILayoutChangeOb_PaneChanged@ILayoutChangeObserver@@UAEXV?$basic_string@DU?$char_traits@D@std@@V?$allocator@D@2@@std@@0@Z
	DD	FLAT:?ILayoutChangeOb_SkinChanged@WebGamePlayingWnd@@UAEXV?$basic_string@DU?$char_traits@D@std@@V?$allocator@D@2@@std@@0@Z
	DD	FLAT:?ILayoutChangeOb_ColorChanged@ILayoutChangeObserver@@UAEXXZ
	DD	FLAT:?ILayoutChangeOb_ColorChanging@ILayoutChangeObserver@@UAEXXZ
	DD	FLAT:?ILayoutChangeOb_UpdateLayout@WebGamePlayingWnd@@UAEXPAUHWND__@@@Z
	DD	FLAT:?ILayoutChangeOb_InitFinished@WebGamePlayingWnd@@UAEXXZ
	DD	FLAT:?ILayoutChangeOb_InitBegin@ILayoutChangeObserver@@UAEXXZ
CONST	ENDS
;	COMDAT ??_R4WebGamePlayingWnd@@6BCBasicWnd@@@
rdata$r	SEGMENT
??_R4WebGamePlayingWnd@@6BCBasicWnd@@@ DD 00H		; WebGamePlayingWnd::`RTTI Complete Object Locator'
	DD	00H
	DD	00H
	DD	FLAT:??_R0?AVWebGamePlayingWnd@@@8
	DD	FLAT:??_R3WebGamePlayingWnd@@8
rdata$r	ENDS
;	COMDAT ??_R0?AVWebGamePlayingWnd@@@8
_DATA	SEGMENT
??_R0?AVWebGamePlayingWnd@@@8 DD FLAT:??_7type_info@@6B@ ; WebGamePlayingWnd `RTTI Type Descriptor'
	DD	00H
	DB	'.?AVWebGamePlayingWnd@@', 00H
_DATA	ENDS
;	COMDAT ??_R3WebGamePlayingWnd@@8
rdata$r	SEGMENT
??_R3WebGamePlayingWnd@@8 DD 00H			; WebGamePlayingWnd::`RTTI Class Hierarchy Descriptor'
	DD	01H
	DD	07H
	DD	FLAT:??_R2WebGamePlayingWnd@@8
rdata$r	ENDS
;	COMDAT ??_R2WebGamePlayingWnd@@8
rdata$r	SEGMENT
??_R2WebGamePlayingWnd@@8 DD FLAT:??_R1A@?0A@A@WebGamePlayingWnd@@8 ; WebGamePlayingWnd::`RTTI Base Class Array'
	DD	FLAT:??_R1A@?0A@A@CBasicWnd@@8
	DD	FLAT:??_R1A@?0A@A@CWnd@@8
	DD	FLAT:??_R1A@?0A@A@CCmdTarget@@8
	DD	FLAT:??_R1A@?0A@A@CObject@@8
	DD	FLAT:??_R1FE@?0A@A@ILayoutChangeObserver@@8
	DD	FLAT:??_R1FE@?0A@A@IMessageObserver@@8
rdata$r	ENDS
;	COMDAT ??_R1A@?0A@A@WebGamePlayingWnd@@8
rdata$r	SEGMENT
??_R1A@?0A@A@WebGamePlayingWnd@@8 DD FLAT:??_R0?AVWebGamePlayingWnd@@@8 ; WebGamePlayingWnd::`RTTI Base Class Descriptor at (0,-1,0,0)'
	DD	06H
	DD	00H
	DD	0ffffffffH
	DD	00H
	DD	00H
rdata$r	ENDS
;	COMDAT ??_R1A@?0A@A@CBasicWnd@@8
rdata$r	SEGMENT
??_R1A@?0A@A@CBasicWnd@@8 DD FLAT:??_R0?AVCBasicWnd@@@8	; CBasicWnd::`RTTI Base Class Descriptor at (0,-1,0,0)'
	DD	03H
	DD	00H
	DD	0ffffffffH
	DD	00H
	DD	00H
rdata$r	ENDS
;	COMDAT ??_R0?AVCBasicWnd@@@8
_DATA	SEGMENT
??_R0?AVCBasicWnd@@@8 DD FLAT:??_7type_info@@6B@	; CBasicWnd `RTTI Type Descriptor'
	DD	00H
	DB	'.?AVCBasicWnd@@', 00H
_DATA	ENDS
;	COMDAT ??_R1A@?0A@A@CWnd@@8
rdata$r	SEGMENT
??_R1A@?0A@A@CWnd@@8 DD FLAT:??_R0?AVCWnd@@@8		; CWnd::`RTTI Base Class Descriptor at (0,-1,0,0)'
	DD	02H
	DD	00H
	DD	0ffffffffH
	DD	00H
	DD	00H
rdata$r	ENDS
;	COMDAT ??_R0?AVCWnd@@@8
_DATA	SEGMENT
??_R0?AVCWnd@@@8 DD FLAT:??_7type_info@@6B@		; CWnd `RTTI Type Descriptor'
	DD	00H
	DB	'.?AVCWnd@@', 00H
_DATA	ENDS
;	COMDAT ??_R1A@?0A@A@CCmdTarget@@8
rdata$r	SEGMENT
??_R1A@?0A@A@CCmdTarget@@8 DD FLAT:??_R0?AVCCmdTarget@@@8 ; CCmdTarget::`RTTI Base Class Descriptor at (0,-1,0,0)'
	DD	01H
	DD	00H
	DD	0ffffffffH
	DD	00H
	DD	00H
rdata$r	ENDS
;	COMDAT ??_R0?AVCCmdTarget@@@8
_DATA	SEGMENT
??_R0?AVCCmdTarget@@@8 DD FLAT:??_7type_info@@6B@	; CCmdTarget `RTTI Type Descriptor'
	DD	00H
	DB	'.?AVCCmdTarget@@', 00H
_DATA	ENDS
;	COMDAT ??_R1A@?0A@A@CObject@@8
rdata$r	SEGMENT
??_R1A@?0A@A@CObject@@8 DD FLAT:??_R0?AVCObject@@@8	; CObject::`RTTI Base Class Descriptor at (0,-1,0,0)'
	DD	00H
	DD	00H
	DD	0ffffffffH
	DD	00H
	DD	00H
rdata$r	ENDS
;	COMDAT ??_R0?AVCObject@@@8
_DATA	SEGMENT
??_R0?AVCObject@@@8 DD FLAT:??_7type_info@@6B@		; CObject `RTTI Type Descriptor'
	DD	00H
	DB	'.?AVCObject@@', 00H
_DATA	ENDS
;	COMDAT ??_R1FE@?0A@A@ILayoutChangeObserver@@8
rdata$r	SEGMENT
??_R1FE@?0A@A@ILayoutChangeObserver@@8 DD FLAT:??_R0?AVILayoutChangeObserver@@@8 ; ILayoutChangeObserver::`RTTI Base Class Descriptor at (84,-1,0,0)'
	DD	01H
	DD	054H
	DD	0ffffffffH
	DD	00H
	DD	00H
rdata$r	ENDS
;	COMDAT ??_R0?AVILayoutChangeObserver@@@8
_DATA	SEGMENT
??_R0?AVILayoutChangeObserver@@@8 DD FLAT:??_7type_info@@6B@ ; ILayoutChangeObserver `RTTI Type Descriptor'
	DD	00H
	DB	'.?AVILayoutChangeObserver@@', 00H
_DATA	ENDS
;	COMDAT ??_R1FE@?0A@A@IMessageObserver@@8
rdata$r	SEGMENT
??_R1FE@?0A@A@IMessageObserver@@8 DD FLAT:??_R0?AVIMessageObserver@@@8 ; IMessageObserver::`RTTI Base Class Descriptor at (84,-1,0,0)'
	DD	00H
	DD	054H
	DD	0ffffffffH
	DD	00H
	DD	00H
rdata$r	ENDS
;	COMDAT ??_R0?AVIMessageObserver@@@8
_DATA	SEGMENT
??_R0?AVIMessageObserver@@@8 DD FLAT:??_7type_info@@6B@	; IMessageObserver `RTTI Type Descriptor'
	DD	00H
	DB	'.?AVIMessageObserver@@', 00H
	ORG $-31
	DD	FLAT:??_7type_info@@6B@
	DD	00H
	DB	'.?AVIMessageObserver@@', 00H
_DATA	ENDS
;	COMDAT ??_R4WebGamePlayingWnd@@6BILayoutChangeObserver@@@
rdata$r	SEGMENT
??_R4WebGamePlayingWnd@@6BILayoutChangeObserver@@@ DD 00H ; WebGamePlayingWnd::`RTTI Complete Object Locator'
	DD	054H
	DD	00H
	DD	FLAT:??_R0?AVWebGamePlayingWnd@@@8
	DD	FLAT:??_R3WebGamePlayingWnd@@8
; Function compile flags: /Odt
rdata$r	ENDS
_TEXT	SEGMENT
tv141 = -60						; size = 4
tv147 = -56						; size = 4
tv139 = -52						; size = 4
tv130 = -48						; size = 4
tv90 = -44						; size = 4
_this$ = -40						; size = 4
$T202332 = -36						; size = 4
$T202331 = -32						; size = 4
$T202328 = -28						; size = 4
$T202327 = -24						; size = 4
$T202324 = -20						; size = 4
$T202323 = -16						; size = 4
__$EHRec$ = -12						; size = 12
??0WebGamePlayingWnd@@QAE@XZ PROC NEAR			; WebGamePlayingWnd::WebGamePlayingWnd
; _this$ = ecx

; 19   : {

  00020	55		 push	 ebp
  00021	8b ec		 mov	 ebp, esp
  00023	6a ff		 push	 -1
  00025	68 00 00 00 00	 push	 __ehhandler$??0WebGamePlayingWnd@@QAE@XZ
  0002a	64 a1 00 00 00
	00		 mov	 eax, DWORD PTR fs:__except_list
  00030	50		 push	 eax
  00031	64 89 25 00 00
	00 00		 mov	 DWORD PTR fs:__except_list, esp
  00038	83 ec 30	 sub	 esp, 48			; 00000030H
  0003b	89 4d d8	 mov	 DWORD PTR _this$[ebp], ecx
  0003e	8b 4d d8	 mov	 ecx, DWORD PTR _this$[ebp]
  00041	e8 00 00 00 00	 call	 ??0CBasicWnd@@QAE@XZ	; CBasicWnd::CBasicWnd
  00046	c7 45 fc 00 00
	00 00		 mov	 DWORD PTR __$EHRec$[ebp+8], 0
  0004d	8b 4d d8	 mov	 ecx, DWORD PTR _this$[ebp]
  00050	83 c1 54	 add	 ecx, 84			; 00000054H
  00053	e8 00 00 00 00	 call	 ??0ILayoutChangeObserver@@QAE@XZ
  00058	c6 45 fc 01	 mov	 BYTE PTR __$EHRec$[ebp+8], 1
  0005c	8b 45 d8	 mov	 eax, DWORD PTR _this$[ebp]
  0005f	c7 00 00 00 00
	00		 mov	 DWORD PTR [eax], OFFSET FLAT:??_7WebGamePlayingWnd@@6BCBasicWnd@@@
  00065	8b 4d d8	 mov	 ecx, DWORD PTR _this$[ebp]
  00068	c7 41 54 00 00
	00 00		 mov	 DWORD PTR [ecx+84], OFFSET FLAT:??_7WebGamePlayingWnd@@6BILayoutChangeObserver@@@
  0006f	8b 4d d8	 mov	 ecx, DWORD PTR _this$[ebp]
  00072	83 c1 58	 add	 ecx, 88			; 00000058H
  00075	e8 00 00 00 00	 call	 ??0WEB_GAME@@QAE@XZ
  0007a	c6 45 fc 02	 mov	 BYTE PTR __$EHRec$[ebp+8], 2

; 20   : 	m_pBtnFullScreen	= new CxSkinButton();

  0007e	68 24 01 00 00	 push	 292			; 00000124H
  00083	e8 00 00 00 00	 call	 ??2CObject@@SGPAXI@Z	; CObject::operator new
  00088	89 45 ec	 mov	 DWORD PTR $T202324[ebp], eax
  0008b	c6 45 fc 03	 mov	 BYTE PTR __$EHRec$[ebp+8], 3
  0008f	83 7d ec 00	 cmp	 DWORD PTR $T202324[ebp], 0
  00093	74 0d		 je	 SHORT $L202325
  00095	8b 4d ec	 mov	 ecx, DWORD PTR $T202324[ebp]
  00098	e8 00 00 00 00	 call	 ??0CxSkinButton@@QAE@XZ	; CxSkinButton::CxSkinButton
  0009d	89 45 d4	 mov	 DWORD PTR tv90[ebp], eax
  000a0	eb 07		 jmp	 SHORT $L202326
$L202325:
  000a2	c7 45 d4 00 00
	00 00		 mov	 DWORD PTR tv90[ebp], 0
$L202326:
  000a9	8b 55 d4	 mov	 edx, DWORD PTR tv90[ebp]
  000ac	89 55 f0	 mov	 DWORD PTR $T202323[ebp], edx
  000af	c6 45 fc 02	 mov	 BYTE PTR __$EHRec$[ebp+8], 2
  000b3	8b 45 d8	 mov	 eax, DWORD PTR _this$[ebp]
  000b6	8b 4d f0	 mov	 ecx, DWORD PTR $T202323[ebp]
  000b9	89 88 ac 00 00
	00		 mov	 DWORD PTR [eax+172], ecx

; 21   : 	m_pBtnGameRight		= new CxSkinButton();

  000bf	68 24 01 00 00	 push	 292			; 00000124H
  000c4	e8 00 00 00 00	 call	 ??2CObject@@SGPAXI@Z	; CObject::operator new
  000c9	89 45 e4	 mov	 DWORD PTR $T202328[ebp], eax
  000cc	c6 45 fc 04	 mov	 BYTE PTR __$EHRec$[ebp+8], 4
  000d0	83 7d e4 00	 cmp	 DWORD PTR $T202328[ebp], 0
  000d4	74 0d		 je	 SHORT $L202329
  000d6	8b 4d e4	 mov	 ecx, DWORD PTR $T202328[ebp]
  000d9	e8 00 00 00 00	 call	 ??0CxSkinButton@@QAE@XZ	; CxSkinButton::CxSkinButton
  000de	89 45 d0	 mov	 DWORD PTR tv130[ebp], eax
  000e1	eb 07		 jmp	 SHORT $L202330
$L202329:
  000e3	c7 45 d0 00 00
	00 00		 mov	 DWORD PTR tv130[ebp], 0
$L202330:
  000ea	8b 55 d0	 mov	 edx, DWORD PTR tv130[ebp]
  000ed	89 55 e8	 mov	 DWORD PTR $T202327[ebp], edx
  000f0	c6 45 fc 02	 mov	 BYTE PTR __$EHRec$[ebp+8], 2
  000f4	8b 45 d8	 mov	 eax, DWORD PTR _this$[ebp]
  000f7	8b 4d e8	 mov	 ecx, DWORD PTR $T202327[ebp]
  000fa	89 88 b0 00 00
	00		 mov	 DWORD PTR [eax+176], ecx

; 22   : 	m_pWndWebGame		= new MyWebBrowserWnd();

  00100	68 e8 01 00 00	 push	 488			; 000001e8H
  00105	e8 00 00 00 00	 call	 ??2CObject@@SGPAXI@Z	; CObject::operator new
  0010a	89 45 dc	 mov	 DWORD PTR $T202332[ebp], eax
  0010d	c6 45 fc 05	 mov	 BYTE PTR __$EHRec$[ebp+8], 5
  00111	83 7d dc 00	 cmp	 DWORD PTR $T202332[ebp], 0
  00115	74 0f		 je	 SHORT $L202333
  00117	6a 01		 push	 1
  00119	8b 4d dc	 mov	 ecx, DWORD PTR $T202332[ebp]
  0011c	e8 00 00 00 00	 call	 ??0MyWebBrowserWnd@@QAE@H@Z ; MyWebBrowserWnd::MyWebBrowserWnd
  00121	89 45 cc	 mov	 DWORD PTR tv139[ebp], eax
  00124	eb 07		 jmp	 SHORT $L202334
$L202333:
  00126	c7 45 cc 00 00
	00 00		 mov	 DWORD PTR tv139[ebp], 0
$L202334:
  0012d	8b 55 cc	 mov	 edx, DWORD PTR tv139[ebp]
  00130	89 55 e0	 mov	 DWORD PTR $T202331[ebp], edx
  00133	c6 45 fc 02	 mov	 BYTE PTR __$EHRec$[ebp+8], 2
  00137	8b 45 d8	 mov	 eax, DWORD PTR _this$[ebp]
  0013a	8b 4d e0	 mov	 ecx, DWORD PTR $T202331[ebp]
  0013d	89 88 b4 00 00
	00		 mov	 DWORD PTR [eax+180], ecx

; 23   : 	AfxGetMessageManager()->AttachMessage( ID_MESSAGE_LAYOUTMGR,(ILayoutChangeObserver*) this);

  00143	83 7d d8 00	 cmp	 DWORD PTR _this$[ebp], 0
  00147	74 0b		 je	 SHORT $L202335
  00149	8b 55 d8	 mov	 edx, DWORD PTR _this$[ebp]
  0014c	83 c2 54	 add	 edx, 84			; 00000054H
  0014f	89 55 c8	 mov	 DWORD PTR tv147[ebp], edx
  00152	eb 07		 jmp	 SHORT $L202336
$L202335:
  00154	c7 45 c8 00 00
	00 00		 mov	 DWORD PTR tv147[ebp], 0
$L202336:
  0015b	e8 00 00 00 00	 call	 ?AfxGetMessageManager@@YAPAVIMessageManager@@XZ ; AfxGetMessageManager
  00160	89 45 c4	 mov	 DWORD PTR tv141[ebp], eax
  00163	6a 02		 push	 2
  00165	8b 45 c8	 mov	 eax, DWORD PTR tv147[ebp]
  00168	50		 push	 eax
  00169	68 00 00 00 00	 push	 OFFSET FLAT:_ID_MESSAGE_LAYOUTMGR
  0016e	8b 4d c4	 mov	 ecx, DWORD PTR tv141[ebp]
  00171	8b 11		 mov	 edx, DWORD PTR [ecx]
  00173	8b 4d c4	 mov	 ecx, DWORD PTR tv141[ebp]
  00176	ff 52 04	 call	 DWORD PTR [edx+4]

; 24   : }

  00179	c7 45 fc ff ff
	ff ff		 mov	 DWORD PTR __$EHRec$[ebp+8], -1
  00180	8b 45 d8	 mov	 eax, DWORD PTR _this$[ebp]
  00183	8b 4d f4	 mov	 ecx, DWORD PTR __$EHRec$[ebp]
  00186	64 89 0d 00 00
	00 00		 mov	 DWORD PTR fs:__except_list, ecx
  0018d	8b e5		 mov	 esp, ebp
  0018f	5d		 pop	 ebp
  00190	c3		 ret	 0
_TEXT	ENDS
text$x	SEGMENT
$L202337:
  00000	8b 4d d8	 mov	 ecx, DWORD PTR _this$[ebp]
  00003	e9 00 00 00 00	 jmp	 ??1CBasicWnd@@UAE@XZ	; CBasicWnd::~CBasicWnd
$L202338:
  00008	8b 4d d8	 mov	 ecx, DWORD PTR _this$[ebp]
  0000b	83 c1 54	 add	 ecx, 84			; 00000054H
  0000e	e9 00 00 00 00	 jmp	 ??1ILayoutChangeObserver@@UAE@XZ
$L202339:
  00013	8b 4d d8	 mov	 ecx, DWORD PTR _this$[ebp]
  00016	83 c1 58	 add	 ecx, 88			; 00000058H
  00019	e9 00 00 00 00	 jmp	 ??1WEB_GAME@@QAE@XZ
$L202340:
  0001e	8b 45 ec	 mov	 eax, DWORD PTR $T202324[ebp]
  00021	50		 push	 eax
  00022	e8 00 00 00 00	 call	 ??3CObject@@SGXPAX@Z	; CObject::operator delete
  00027	c3		 ret	 0
$L202341:
  00028	8b 45 e4	 mov	 eax, DWORD PTR $T202328[ebp]
  0002b	50		 push	 eax
  0002c	e8 00 00 00 00	 call	 ??3CObject@@SGXPAX@Z	; CObject::operator delete
  00031	c3		 ret	 0
$L202342:
  00032	8b 45 dc	 mov	 eax, DWORD PTR $T202332[ebp]
  00035	50		 push	 eax
  00036	e8 00 00 00 00	 call	 ??3CObject@@SGXPAX@Z	; CObject::operator delete
  0003b	c3		 ret	 0
__ehhandler$??0WebGamePlayingWnd@@QAE@XZ:
  0003c	b8 00 00 00 00	 mov	 eax, OFFSET FLAT:$T202346
  00041	e9 00 00 00 00	 jmp	 ___CxxFrameHandler
text$x	ENDS
??0WebGamePlayingWnd@@QAE@XZ ENDP			; WebGamePlayingWnd::WebGamePlayingWnd
EXTRN	__imp_??1?$basic_string@DU?$char_traits@D@std@@V?$allocator@D@2@@std@@QAE@XZ:NEAR
;	COMDAT xdata$x
; File d:\boxgit\playbox\playbox\dev\prj\playbox\src\datainterface\ilayoutchangeobserver.h
xdata$x	SEGMENT
$T202358 DD	0ffffffffH
	DD	FLAT:$L202352
	DD	00H
	DD	FLAT:$L202353
$T202356 DD	019930520H
	DD	02H
	DD	FLAT:$T202358
	DD	2 DUP(00H)
	DD	2 DUP(00H)
; Function compile flags: /Odt
xdata$x	ENDS
;	COMDAT ?ILayoutChangeOb_LayerChanged@ILayoutChangeObserver@@UAEXV?$basic_string@DU?$char_traits@D@std@@V?$allocator@D@2@@std@@00@Z
_TEXT	SEGMENT
_this$ = -16						; size = 4
__$EHRec$ = -12						; size = 12
_paneName$ = 8						; size = 28
_oldLayerName$ = 36					; size = 28
_newLayerName$ = 64					; size = 28
?ILayoutChangeOb_LayerChanged@ILayoutChangeObserver@@UAEXV?$basic_string@DU?$char_traits@D@std@@V?$allocator@D@2@@std@@00@Z PROC NEAR ; ILayoutChangeObserver::ILayoutChangeOb_LayerChanged, COMDAT
; _this$ = ecx

; 9    : 	virtual void	ILayoutChangeOb_LayerChanged(string paneName, string oldLayerName, string newLayerName ){};

  00000	55		 push	 ebp
  00001	8b ec		 mov	 ebp, esp
  00003	6a ff		 push	 -1
  00005	68 00 00 00 00	 push	 __ehhandler$?ILayoutChangeOb_LayerChanged@ILayoutChangeObserver@@UAEXV?$basic_string@DU?$char_traits@D@std@@V?$allocator@D@2@@std@@00@Z
  0000a	64 a1 00 00 00
	00		 mov	 eax, DWORD PTR fs:__except_list
  00010	50		 push	 eax
  00011	64 89 25 00 00
	00 00		 mov	 DWORD PTR fs:__except_list, esp
  00018	51		 push	 ecx
  00019	89 4d f0	 mov	 DWORD PTR _this$[ebp], ecx
  0001c	c7 45 fc 01 00
	00 00		 mov	 DWORD PTR __$EHRec$[ebp+8], 1
  00023	8d 4d 08	 lea	 ecx, DWORD PTR _paneName$[ebp]
  00026	ff 15 00 00 00
	00		 call	 DWORD PTR __imp_??1?$basic_string@DU?$char_traits@D@std@@V?$allocator@D@2@@std@@QAE@XZ
  0002c	c6 45 fc 00	 mov	 BYTE PTR __$EHRec$[ebp+8], 0
  00030	8d 4d 24	 lea	 ecx, DWORD PTR _oldLayerName$[ebp]
  00033	ff 15 00 00 00
	00		 call	 DWORD PTR __imp_??1?$basic_string@DU?$char_traits@D@std@@V?$allocator@D@2@@std@@QAE@XZ
  00039	c7 45 fc ff ff
	ff ff		 mov	 DWORD PTR __$EHRec$[ebp+8], -1
  00040	8d 4d 40	 lea	 ecx, DWORD PTR _newLayerName$[ebp]
  00043	ff 15 00 00 00
	00		 call	 DWORD PTR __imp_??1?$basic_string@DU?$char_traits@D@std@@V?$allocator@D@2@@std@@QAE@XZ
  00049	8b 4d f4	 mov	 ecx, DWORD PTR __$EHRec$[ebp]
  0004c	64 89 0d 00 00
	00 00		 mov	 DWORD PTR fs:__except_list, ecx
  00053	8b e5		 mov	 esp, ebp
  00055	5d		 pop	 ebp
  00056	c2 54 00	 ret	 84			; 00000054H
_TEXT	ENDS
;	COMDAT text$x
text$x	SEGMENT
$L202352:
  00000	8d 4d 40	 lea	 ecx, DWORD PTR _newLayerName$[ebp]
  00003	ff 25 00 00 00
	00		 jmp	 DWORD PTR __imp_??1?$basic_string@DU?$char_traits@D@std@@V?$allocator@D@2@@std@@QAE@XZ
$L202353:
  00009	8d 4d 24	 lea	 ecx, DWORD PTR _oldLayerName$[ebp]
  0000c	ff 25 00 00 00
	00		 jmp	 DWORD PTR __imp_??1?$basic_string@DU?$char_traits@D@std@@V?$allocator@D@2@@std@@QAE@XZ
__ehhandler$?ILayoutChangeOb_LayerChanged@ILayoutChangeObserver@@UAEXV?$basic_string@DU?$char_traits@D@std@@V?$allocator@D@2@@std@@00@Z:
  00012	b8 00 00 00 00	 mov	 eax, OFFSET FLAT:$T202356
  00017	e9 00 00 00 00	 jmp	 ___CxxFrameHandler
text$x	ENDS
?ILayoutChangeOb_LayerChanged@ILayoutChangeObserver@@UAEXV?$basic_string@DU?$char_traits@D@std@@V?$allocator@D@2@@std@@00@Z ENDP ; ILayoutChangeObserver::ILayoutChangeOb_LayerChanged
;	COMDAT xdata$x
xdata$x	SEGMENT
$T202368 DD	0ffffffffH
	DD	FLAT:$L202363
$T202366 DD	019930520H
	DD	01H
	DD	FLAT:$T202368
	DD	2 DUP(00H)
	DD	2 DUP(00H)
; Function compile flags: /Odt
xdata$x	ENDS
;	COMDAT ?ILayoutChangeOb_PaneChanged@ILayoutChangeObserver@@UAEXV?$basic_string@DU?$char_traits@D@std@@V?$allocator@D@2@@std@@0@Z
_TEXT	SEGMENT
_this$ = -16						; size = 4
__$EHRec$ = -12						; size = 12
_oldPaneName$ = 8					; size = 28
_newPaneName$ = 36					; size = 28
?ILayoutChangeOb_PaneChanged@ILayoutChangeObserver@@UAEXV?$basic_string@DU?$char_traits@D@std@@V?$allocator@D@2@@std@@0@Z PROC NEAR ; ILayoutChangeObserver::ILayoutChangeOb_PaneChanged, COMDAT
; _this$ = ecx

; 10   : 	virtual void	ILayoutChangeOb_PaneChanged(string oldPaneName, string newPaneName){};

  00000	55		 push	 ebp
  00001	8b ec		 mov	 ebp, esp
  00003	6a ff		 push	 -1
  00005	68 00 00 00 00	 push	 __ehhandler$?ILayoutChangeOb_PaneChanged@ILayoutChangeObserver@@UAEXV?$basic_string@DU?$char_traits@D@std@@V?$allocator@D@2@@std@@0@Z
  0000a	64 a1 00 00 00
	00		 mov	 eax, DWORD PTR fs:__except_list
  00010	50		 push	 eax
  00011	64 89 25 00 00
	00 00		 mov	 DWORD PTR fs:__except_list, esp
  00018	51		 push	 ecx
  00019	89 4d f0	 mov	 DWORD PTR _this$[ebp], ecx
  0001c	c7 45 fc 00 00
	00 00		 mov	 DWORD PTR __$EHRec$[ebp+8], 0
  00023	8d 4d 08	 lea	 ecx, DWORD PTR _oldPaneName$[ebp]
  00026	ff 15 00 00 00
	00		 call	 DWORD PTR __imp_??1?$basic_string@DU?$char_traits@D@std@@V?$allocator@D@2@@std@@QAE@XZ
  0002c	c7 45 fc ff ff
	ff ff		 mov	 DWORD PTR __$EHRec$[ebp+8], -1
  00033	8d 4d 24	 lea	 ecx, DWORD PTR _newPaneName$[ebp]
  00036	ff 15 00 00 00
	00		 call	 DWORD PTR __imp_??1?$basic_string@DU?$char_traits@D@std@@V?$allocator@D@2@@std@@QAE@XZ
  0003c	8b 4d f4	 mov	 ecx, DWORD PTR __$EHRec$[ebp]
  0003f	64 89 0d 00 00
	00 00		 mov	 DWORD PTR fs:__except_list, ecx
  00046	8b e5		 mov	 esp, ebp
  00048	5d		 pop	 ebp
  00049	c2 38 00	 ret	 56			; 00000038H
_TEXT	ENDS
;	COMDAT text$x
text$x	SEGMENT
$L202363:
  00000	8d 4d 24	 lea	 ecx, DWORD PTR _newPaneName$[ebp]
  00003	ff 25 00 00 00
	00		 jmp	 DWORD PTR __imp_??1?$basic_string@DU?$char_traits@D@std@@V?$allocator@D@2@@std@@QAE@XZ
__ehhandler$?ILayoutChangeOb_PaneChanged@ILayoutChangeObserver@@UAEXV?$basic_string@DU?$char_traits@D@std@@V?$allocator@D@2@@std@@0@Z:
  00009	b8 00 00 00 00	 mov	 eax, OFFSET FLAT:$T202366
  0000e	e9 00 00 00 00	 jmp	 ___CxxFrameHandler
text$x	ENDS
?ILayoutChangeOb_PaneChanged@ILayoutChangeObserver@@UAEXV?$basic_string@DU?$char_traits@D@std@@V?$allocator@D@2@@std@@0@Z ENDP ; ILayoutChangeObserver::ILayoutChangeOb_PaneChanged
; Function compile flags: /Odt
;	COMDAT ?ILayoutChangeOb_ColorChanged@ILayoutChangeObserver@@UAEXXZ
_TEXT	SEGMENT
_this$ = -4						; size = 4
?ILayoutChangeOb_ColorChanged@ILayoutChangeObserver@@UAEXXZ PROC NEAR ; ILayoutChangeObserver::ILayoutChangeOb_ColorChanged, COMDAT
; _this$ = ecx

; 12   : 	virtual void	ILayoutChangeOb_ColorChanged(){};

  00000	55		 push	 ebp
  00001	8b ec		 mov	 ebp, esp
  00003	51		 push	 ecx
  00004	89 4d fc	 mov	 DWORD PTR _this$[ebp], ecx
  00007	8b e5		 mov	 esp, ebp
  00009	5d		 pop	 ebp
  0000a	c3		 ret	 0
?ILayoutChangeOb_ColorChanged@ILayoutChangeObserver@@UAEXXZ ENDP ; ILayoutChangeObserver::ILayoutChangeOb_ColorChanged
; Function compile flags: /Odt
_TEXT	ENDS
;	COMDAT ?ILayoutChangeOb_ColorChanging@ILayoutChangeObserver@@UAEXXZ
_TEXT	SEGMENT
_this$ = -4						; size = 4
?ILayoutChangeOb_ColorChanging@ILayoutChangeObserver@@UAEXXZ PROC NEAR ; ILayoutChangeObserver::ILayoutChangeOb_ColorChanging, COMDAT
; _this$ = ecx

; 13   : 	virtual void	ILayoutChangeOb_ColorChanging(){};

  00000	55		 push	 ebp
  00001	8b ec		 mov	 ebp, esp
  00003	51		 push	 ecx
  00004	89 4d fc	 mov	 DWORD PTR _this$[ebp], ecx
  00007	8b e5		 mov	 esp, ebp
  00009	5d		 pop	 ebp
  0000a	c3		 ret	 0
?ILayoutChangeOb_ColorChanging@ILayoutChangeObserver@@UAEXXZ ENDP ; ILayoutChangeObserver::ILayoutChangeOb_ColorChanging
; Function compile flags: /Odt
_TEXT	ENDS
;	COMDAT ?ILayoutChangeOb_InitBegin@ILayoutChangeObserver@@UAEXXZ
_TEXT	SEGMENT
_this$ = -4						; size = 4
?ILayoutChangeOb_InitBegin@ILayoutChangeObserver@@UAEXXZ PROC NEAR ; ILayoutChangeObserver::ILayoutChangeOb_InitBegin, COMDAT
; _this$ = ecx

; 16   : 	virtual void	ILayoutChangeOb_InitBegin(){};

  00000	55		 push	 ebp
  00001	8b ec		 mov	 ebp, esp
  00003	51		 push	 ecx
  00004	89 4d fc	 mov	 DWORD PTR _this$[ebp], ecx
  00007	8b e5		 mov	 esp, ebp
  00009	5d		 pop	 ebp
  0000a	c3		 ret	 0
?ILayoutChangeOb_InitBegin@ILayoutChangeObserver@@UAEXXZ ENDP ; ILayoutChangeObserver::ILayoutChangeOb_InitBegin
_TEXT	ENDS
PUBLIC	??1WebGamePlayingWnd@@UAE@XZ			; WebGamePlayingWnd::~WebGamePlayingWnd
; Function compile flags: /Odt
;	COMDAT ??_GWebGamePlayingWnd@@UAEPAXI@Z
_TEXT	SEGMENT
_this$ = -4						; size = 4
___flags$ = 8						; size = 4
??_GWebGamePlayingWnd@@UAEPAXI@Z PROC NEAR		; WebGamePlayingWnd::`scalar deleting destructor', COMDAT
; _this$ = ecx
  00000	55		 push	 ebp
  00001	8b ec		 mov	 ebp, esp
  00003	51		 push	 ecx
  00004	89 4d fc	 mov	 DWORD PTR _this$[ebp], ecx
  00007	8b 4d fc	 mov	 ecx, DWORD PTR _this$[ebp]
  0000a	e8 00 00 00 00	 call	 ??1WebGamePlayingWnd@@UAE@XZ ; WebGamePlayingWnd::~WebGamePlayingWnd
  0000f	8b 45 08	 mov	 eax, DWORD PTR ___flags$[ebp]
  00012	83 e0 01	 and	 eax, 1
  00015	74 09		 je	 SHORT $L201266
  00017	8b 4d fc	 mov	 ecx, DWORD PTR _this$[ebp]
  0001a	51		 push	 ecx
  0001b	e8 00 00 00 00	 call	 ??3CObject@@SGXPAX@Z	; CObject::operator delete
$L201266:
  00020	8b 45 fc	 mov	 eax, DWORD PTR _this$[ebp]
  00023	8b e5		 mov	 esp, ebp
  00025	5d		 pop	 ebp
  00026	c2 04 00	 ret	 4
??_GWebGamePlayingWnd@@UAEPAXI@Z ENDP			; WebGamePlayingWnd::`scalar deleting destructor'
_TEXT	ENDS
PUBLIC	??_R1A@?0A@A@IMessageObserver@@8		; IMessageObserver::`RTTI Base Class Descriptor at (0,-1,0,0)'
PUBLIC	?ILayoutChangeOb_SkinChanged@ILayoutChangeObserver@@UAEXV?$basic_string@DU?$char_traits@D@std@@V?$allocator@D@2@@std@@0@Z ; ILayoutChangeObserver::ILayoutChangeOb_SkinChanged
PUBLIC	?ILayoutChangeOb_UpdateLayout@ILayoutChangeObserver@@UAEXPAUHWND__@@@Z ; ILayoutChangeObserver::ILayoutChangeOb_UpdateLayout
PUBLIC	?ILayoutChangeOb_InitFinished@ILayoutChangeObserver@@UAEXXZ ; ILayoutChangeObserver::ILayoutChangeOb_InitFinished
PUBLIC	??_7ILayoutChangeObserver@@6B@			; ILayoutChangeObserver::`vftable'
PUBLIC	??_GILayoutChangeObserver@@UAEPAXI@Z		; ILayoutChangeObserver::`scalar deleting destructor'
PUBLIC	??0IMessageObserver@@QAE@XZ			; IMessageObserver::IMessageObserver
PUBLIC	??_R4ILayoutChangeObserver@@6B@			; ILayoutChangeObserver::`RTTI Complete Object Locator'
PUBLIC	??_R3ILayoutChangeObserver@@8			; ILayoutChangeObserver::`RTTI Class Hierarchy Descriptor'
PUBLIC	??_R2ILayoutChangeObserver@@8			; ILayoutChangeObserver::`RTTI Base Class Array'
PUBLIC	??_R1A@?0A@A@ILayoutChangeObserver@@8		; ILayoutChangeObserver::`RTTI Base Class Descriptor at (0,-1,0,0)'
EXTRN	??_EILayoutChangeObserver@@UAEPAXI@Z:NEAR	; ILayoutChangeObserver::`vector deleting destructor'
;	COMDAT ??_7ILayoutChangeObserver@@6B@
CONST	SEGMENT
??_7ILayoutChangeObserver@@6B@ DD FLAT:??_R4ILayoutChangeObserver@@6B@ ; ILayoutChangeObserver::`vftable'
	DD	FLAT:??_EILayoutChangeObserver@@UAEPAXI@Z
	DD	FLAT:?ILayoutChangeOb_LayerChanged@ILayoutChangeObserver@@UAEXV?$basic_string@DU?$char_traits@D@std@@V?$allocator@D@2@@std@@00@Z
	DD	FLAT:?ILayoutChangeOb_PaneChanged@ILayoutChangeObserver@@UAEXV?$basic_string@DU?$char_traits@D@std@@V?$allocator@D@2@@std@@0@Z
	DD	FLAT:?ILayoutChangeOb_SkinChanged@ILayoutChangeObserver@@UAEXV?$basic_string@DU?$char_traits@D@std@@V?$allocator@D@2@@std@@0@Z
	DD	FLAT:?ILayoutChangeOb_ColorChanged@ILayoutChangeObserver@@UAEXXZ
	DD	FLAT:?ILayoutChangeOb_ColorChanging@ILayoutChangeObserver@@UAEXXZ
	DD	FLAT:?ILayoutChangeOb_UpdateLayout@ILayoutChangeObserver@@UAEXPAUHWND__@@@Z
	DD	FLAT:?ILayoutChangeOb_InitFinished@ILayoutChangeObserver@@UAEXXZ
	DD	FLAT:?ILayoutChangeOb_InitBegin@ILayoutChangeObserver@@UAEXXZ
CONST	ENDS
;	COMDAT ??_R4ILayoutChangeObserver@@6B@
rdata$r	SEGMENT
??_R4ILayoutChangeObserver@@6B@ DD 00H			; ILayoutChangeObserver::`RTTI Complete Object Locator'
	DD	00H
	DD	00H
	DD	FLAT:??_R0?AVILayoutChangeObserver@@@8
	DD	FLAT:??_R3ILayoutChangeObserver@@8
rdata$r	ENDS
;	COMDAT ??_R3ILayoutChangeObserver@@8
rdata$r	SEGMENT
??_R3ILayoutChangeObserver@@8 DD 00H			; ILayoutChangeObserver::`RTTI Class Hierarchy Descriptor'
	DD	00H
	DD	02H
	DD	FLAT:??_R2ILayoutChangeObserver@@8
rdata$r	ENDS
;	COMDAT ??_R2ILayoutChangeObserver@@8
rdata$r	SEGMENT
??_R2ILayoutChangeObserver@@8 DD FLAT:??_R1A@?0A@A@ILayoutChangeObserver@@8 ; ILayoutChangeObserver::`RTTI Base Class Array'
	DD	FLAT:??_R1A@?0A@A@IMessageObserver@@8
rdata$r	ENDS
;	COMDAT ??_R1A@?0A@A@ILayoutChangeObserver@@8
rdata$r	SEGMENT
??_R1A@?0A@A@ILayoutChangeObserver@@8 DD FLAT:??_R0?AVILayoutChangeObserver@@@8 ; ILayoutChangeObserver::`RTTI Base Class Descriptor at (0,-1,0,0)'
	DD	01H
	DD	00H
	DD	0ffffffffH
	DD	00H
	DD	00H
rdata$r	ENDS
;	COMDAT ??_R1A@?0A@A@IMessageObserver@@8
rdata$r	SEGMENT
??_R1A@?0A@A@IMessageObserver@@8 DD FLAT:??_R0?AVIMessageObserver@@@8 ; IMessageObserver::`RTTI Base Class Descriptor at (0,-1,0,0)'
	DD	00H
	DD	00H
	DD	0ffffffffH
	DD	00H
	DD	00H
; Function compile flags: /Odt
rdata$r	ENDS
;	COMDAT ??0ILayoutChangeObserver@@QAE@XZ
_TEXT	SEGMENT
_this$ = -4						; size = 4
??0ILayoutChangeObserver@@QAE@XZ PROC NEAR		; ILayoutChangeObserver::ILayoutChangeObserver, COMDAT
; _this$ = ecx
  00000	55		 push	 ebp
  00001	8b ec		 mov	 ebp, esp
  00003	51		 push	 ecx
  00004	89 4d fc	 mov	 DWORD PTR _this$[ebp], ecx
  00007	8b 4d fc	 mov	 ecx, DWORD PTR _this$[ebp]
  0000a	e8 00 00 00 00	 call	 ??0IMessageObserver@@QAE@XZ
  0000f	8b 45 fc	 mov	 eax, DWORD PTR _this$[ebp]
  00012	c7 00 00 00 00
	00		 mov	 DWORD PTR [eax], OFFSET FLAT:??_7ILayoutChangeObserver@@6B@
  00018	8b 45 fc	 mov	 eax, DWORD PTR _this$[ebp]
  0001b	8b e5		 mov	 esp, ebp
  0001d	5d		 pop	 ebp
  0001e	c3		 ret	 0
??0ILayoutChangeObserver@@QAE@XZ ENDP			; ILayoutChangeObserver::ILayoutChangeObserver
_TEXT	ENDS
;	COMDAT xdata$x
xdata$x	SEGMENT
$T202388 DD	0ffffffffH
	DD	FLAT:$L202383
$T202386 DD	019930520H
	DD	01H
	DD	FLAT:$T202388
	DD	2 DUP(00H)
	DD	2 DUP(00H)
; Function compile flags: /Odt
xdata$x	ENDS
;	COMDAT ?ILayoutChangeOb_SkinChanged@ILayoutChangeObserver@@UAEXV?$basic_string@DU?$char_traits@D@std@@V?$allocator@D@2@@std@@0@Z
_TEXT	SEGMENT
_this$ = -16						; size = 4
__$EHRec$ = -12						; size = 12
_oldSkinPath$ = 8					; size = 28
_newSkinPath$ = 36					; size = 28
?ILayoutChangeOb_SkinChanged@ILayoutChangeObserver@@UAEXV?$basic_string@DU?$char_traits@D@std@@V?$allocator@D@2@@std@@0@Z PROC NEAR ; ILayoutChangeObserver::ILayoutChangeOb_SkinChanged, COMDAT
; _this$ = ecx

; 11   : 	virtual void	ILayoutChangeOb_SkinChanged(string oldSkinPath, string newSkinPath){};

  00000	55		 push	 ebp
  00001	8b ec		 mov	 ebp, esp
  00003	6a ff		 push	 -1
  00005	68 00 00 00 00	 push	 __ehhandler$?ILayoutChangeOb_SkinChanged@ILayoutChangeObserver@@UAEXV?$basic_string@DU?$char_traits@D@std@@V?$allocator@D@2@@std@@0@Z
  0000a	64 a1 00 00 00
	00		 mov	 eax, DWORD PTR fs:__except_list
  00010	50		 push	 eax
  00011	64 89 25 00 00
	00 00		 mov	 DWORD PTR fs:__except_list, esp
  00018	51		 push	 ecx
  00019	89 4d f0	 mov	 DWORD PTR _this$[ebp], ecx
  0001c	c7 45 fc 00 00
	00 00		 mov	 DWORD PTR __$EHRec$[ebp+8], 0
  00023	8d 4d 08	 lea	 ecx, DWORD PTR _oldSkinPath$[ebp]
  00026	ff 15 00 00 00
	00		 call	 DWORD PTR __imp_??1?$basic_string@DU?$char_traits@D@std@@V?$allocator@D@2@@std@@QAE@XZ
  0002c	c7 45 fc ff ff
	ff ff		 mov	 DWORD PTR __$EHRec$[ebp+8], -1
  00033	8d 4d 24	 lea	 ecx, DWORD PTR _newSkinPath$[ebp]
  00036	ff 15 00 00 00
	00		 call	 DWORD PTR __imp_??1?$basic_string@DU?$char_traits@D@std@@V?$allocator@D@2@@std@@QAE@XZ
  0003c	8b 4d f4	 mov	 ecx, DWORD PTR __$EHRec$[ebp]
  0003f	64 89 0d 00 00
	00 00		 mov	 DWORD PTR fs:__except_list, ecx
  00046	8b e5		 mov	 esp, ebp
  00048	5d		 pop	 ebp
  00049	c2 38 00	 ret	 56			; 00000038H
_TEXT	ENDS
;	COMDAT text$x
text$x	SEGMENT
$L202383:
  00000	8d 4d 24	 lea	 ecx, DWORD PTR _newSkinPath$[ebp]
  00003	ff 25 00 00 00
	00		 jmp	 DWORD PTR __imp_??1?$basic_string@DU?$char_traits@D@std@@V?$allocator@D@2@@std@@QAE@XZ
__ehhandler$?ILayoutChangeOb_SkinChanged@ILayoutChangeObserver@@UAEXV?$basic_string@DU?$char_traits@D@std@@V?$allocator@D@2@@std@@0@Z:
  00009	b8 00 00 00 00	 mov	 eax, OFFSET FLAT:$T202386
  0000e	e9 00 00 00 00	 jmp	 ___CxxFrameHandler
text$x	ENDS
?ILayoutChangeOb_SkinChanged@ILayoutChangeObserver@@UAEXV?$basic_string@DU?$char_traits@D@std@@V?$allocator@D@2@@std@@0@Z ENDP ; ILayoutChangeObserver::ILayoutChangeOb_SkinChanged
; Function compile flags: /Odt
;	COMDAT ?ILayoutChangeOb_UpdateLayout@ILayoutChangeObserver@@UAEXPAUHWND__@@@Z
_TEXT	SEGMENT
_this$ = -4						; size = 4
_m_hWnd$ = 8						; size = 4
?ILayoutChangeOb_UpdateLayout@ILayoutChangeObserver@@UAEXPAUHWND__@@@Z PROC NEAR ; ILayoutChangeObserver::ILayoutChangeOb_UpdateLayout, COMDAT
; _this$ = ecx

; 14   : 	virtual void	ILayoutChangeOb_UpdateLayout(HWND m_hWnd){};

  00000	55		 push	 ebp
  00001	8b ec		 mov	 ebp, esp
  00003	51		 push	 ecx
  00004	89 4d fc	 mov	 DWORD PTR _this$[ebp], ecx
  00007	8b e5		 mov	 esp, ebp
  00009	5d		 pop	 ebp
  0000a	c2 04 00	 ret	 4
?ILayoutChangeOb_UpdateLayout@ILayoutChangeObserver@@UAEXPAUHWND__@@@Z ENDP ; ILayoutChangeObserver::ILayoutChangeOb_UpdateLayout
; Function compile flags: /Odt
_TEXT	ENDS
;	COMDAT ?ILayoutChangeOb_InitFinished@ILayoutChangeObserver@@UAEXXZ
_TEXT	SEGMENT
_this$ = -4						; size = 4
?ILayoutChangeOb_InitFinished@ILayoutChangeObserver@@UAEXXZ PROC NEAR ; ILayoutChangeObserver::ILayoutChangeOb_InitFinished, COMDAT
; _this$ = ecx

; 15   : 	virtual void	ILayoutChangeOb_InitFinished(){};

  00000	55		 push	 ebp
  00001	8b ec		 mov	 ebp, esp
  00003	51		 push	 ecx
  00004	89 4d fc	 mov	 DWORD PTR _this$[ebp], ecx
  00007	8b e5		 mov	 esp, ebp
  00009	5d		 pop	 ebp
  0000a	c3		 ret	 0
?ILayoutChangeOb_InitFinished@ILayoutChangeObserver@@UAEXXZ ENDP ; ILayoutChangeObserver::ILayoutChangeOb_InitFinished
_TEXT	ENDS
PUBLIC	??1IMessageObserver@@UAE@XZ			; IMessageObserver::~IMessageObserver
; Function compile flags: /Odt
;	COMDAT ??1ILayoutChangeObserver@@UAE@XZ
_TEXT	SEGMENT
_this$ = -4						; size = 4
??1ILayoutChangeObserver@@UAE@XZ PROC NEAR		; ILayoutChangeObserver::~ILayoutChangeObserver, COMDAT
; _this$ = ecx
  00000	55		 push	 ebp
  00001	8b ec		 mov	 ebp, esp
  00003	51		 push	 ecx
  00004	89 4d fc	 mov	 DWORD PTR _this$[ebp], ecx
  00007	8b 4d fc	 mov	 ecx, DWORD PTR _this$[ebp]
  0000a	e8 00 00 00 00	 call	 ??1IMessageObserver@@UAE@XZ ; IMessageObserver::~IMessageObserver
  0000f	8b e5		 mov	 esp, ebp
  00011	5d		 pop	 ebp
  00012	c3		 ret	 0
??1ILayoutChangeObserver@@UAE@XZ ENDP			; ILayoutChangeObserver::~ILayoutChangeObserver
_TEXT	ENDS
EXTRN	__imp_??0?$basic_string@DU?$char_traits@D@std@@V?$allocator@D@2@@std@@QAE@XZ:NEAR
;	COMDAT xdata$x
xdata$x	SEGMENT
$T202406 DD	0ffffffffH
	DD	FLAT:$L202400
	DD	00H
	DD	FLAT:$L202401
$T202404 DD	019930520H
	DD	02H
	DD	FLAT:$T202406
	DD	2 DUP(00H)
	DD	2 DUP(00H)
; Function compile flags: /Odt
xdata$x	ENDS
;	COMDAT ??0WEB_GAME@@QAE@XZ
_TEXT	SEGMENT
_this$ = -16						; size = 4
__$EHRec$ = -12						; size = 12
??0WEB_GAME@@QAE@XZ PROC NEAR				; WEB_GAME::WEB_GAME, COMDAT
; _this$ = ecx
  00000	55		 push	 ebp
  00001	8b ec		 mov	 ebp, esp
  00003	6a ff		 push	 -1
  00005	68 00 00 00 00	 push	 __ehhandler$??0WEB_GAME@@QAE@XZ
  0000a	64 a1 00 00 00
	00		 mov	 eax, DWORD PTR fs:__except_list
  00010	50		 push	 eax
  00011	64 89 25 00 00
	00 00		 mov	 DWORD PTR fs:__except_list, esp
  00018	51		 push	 ecx
  00019	89 4d f0	 mov	 DWORD PTR _this$[ebp], ecx
  0001c	8b 4d f0	 mov	 ecx, DWORD PTR _this$[ebp]
  0001f	ff 15 00 00 00
	00		 call	 DWORD PTR __imp_??0?$basic_string@DU?$char_traits@D@std@@V?$allocator@D@2@@std@@QAE@XZ
  00025	c7 45 fc 00 00
	00 00		 mov	 DWORD PTR __$EHRec$[ebp+8], 0
  0002c	8b 4d f0	 mov	 ecx, DWORD PTR _this$[ebp]
  0002f	83 c1 1c	 add	 ecx, 28			; 0000001cH
  00032	ff 15 00 00 00
	00		 call	 DWORD PTR __imp_??0?$basic_string@DU?$char_traits@D@std@@V?$allocator@D@2@@std@@QAE@XZ
  00038	c6 45 fc 01	 mov	 BYTE PTR __$EHRec$[ebp+8], 1
  0003c	8b 4d f0	 mov	 ecx, DWORD PTR _this$[ebp]
  0003f	83 c1 38	 add	 ecx, 56			; 00000038H
  00042	ff 15 00 00 00
	00		 call	 DWORD PTR __imp_??0?$basic_string@DU?$char_traits@D@std@@V?$allocator@D@2@@std@@QAE@XZ
  00048	c7 45 fc ff ff
	ff ff		 mov	 DWORD PTR __$EHRec$[ebp+8], -1
  0004f	8b 45 f0	 mov	 eax, DWORD PTR _this$[ebp]
  00052	8b 4d f4	 mov	 ecx, DWORD PTR __$EHRec$[ebp]
  00055	64 89 0d 00 00
	00 00		 mov	 DWORD PTR fs:__except_list, ecx
  0005c	8b e5		 mov	 esp, ebp
  0005e	5d		 pop	 ebp
  0005f	c3		 ret	 0
_TEXT	ENDS
;	COMDAT text$x
text$x	SEGMENT
$L202400:
  00000	8b 4d f0	 mov	 ecx, DWORD PTR _this$[ebp]
  00003	ff 25 00 00 00
	00		 jmp	 DWORD PTR __imp_??1?$basic_string@DU?$char_traits@D@std@@V?$allocator@D@2@@std@@QAE@XZ
$L202401:
  00009	8b 4d f0	 mov	 ecx, DWORD PTR _this$[ebp]
  0000c	83 c1 1c	 add	 ecx, 28			; 0000001cH
  0000f	ff 25 00 00 00
	00		 jmp	 DWORD PTR __imp_??1?$basic_string@DU?$char_traits@D@std@@V?$allocator@D@2@@std@@QAE@XZ
__ehhandler$??0WEB_GAME@@QAE@XZ:
  00015	b8 00 00 00 00	 mov	 eax, OFFSET FLAT:$T202404
  0001a	e9 00 00 00 00	 jmp	 ___CxxFrameHandler
text$x	ENDS
??0WEB_GAME@@QAE@XZ ENDP				; WEB_GAME::WEB_GAME
;	COMDAT xdata$x
xdata$x	SEGMENT
$T202417 DD	0ffffffffH
	DD	FLAT:$L202411
	DD	00H
	DD	FLAT:$L202412
$T202415 DD	019930520H
	DD	02H
	DD	FLAT:$T202417
	DD	2 DUP(00H)
	DD	2 DUP(00H)
; Function compile flags: /Odt
xdata$x	ENDS
;	COMDAT ??1WEB_GAME@@QAE@XZ
_TEXT	SEGMENT
_this$ = -16						; size = 4
__$EHRec$ = -12						; size = 12
??1WEB_GAME@@QAE@XZ PROC NEAR				; WEB_GAME::~WEB_GAME, COMDAT
; _this$ = ecx
  00000	55		 push	 ebp
  00001	8b ec		 mov	 ebp, esp
  00003	6a ff		 push	 -1
  00005	68 00 00 00 00	 push	 __ehhandler$??1WEB_GAME@@QAE@XZ
  0000a	64 a1 00 00 00
	00		 mov	 eax, DWORD PTR fs:__except_list
  00010	50		 push	 eax
  00011	64 89 25 00 00
	00 00		 mov	 DWORD PTR fs:__except_list, esp
  00018	51		 push	 ecx
  00019	89 4d f0	 mov	 DWORD PTR _this$[ebp], ecx
  0001c	c7 45 fc 01 00
	00 00		 mov	 DWORD PTR __$EHRec$[ebp+8], 1
  00023	8b 4d f0	 mov	 ecx, DWORD PTR _this$[ebp]
  00026	83 c1 38	 add	 ecx, 56			; 00000038H
  00029	ff 15 00 00 00
	00		 call	 DWORD PTR __imp_??1?$basic_string@DU?$char_traits@D@std@@V?$allocator@D@2@@std@@QAE@XZ
  0002f	c6 45 fc 00	 mov	 BYTE PTR __$EHRec$[ebp+8], 0
  00033	8b 4d f0	 mov	 ecx, DWORD PTR _this$[ebp]
  00036	83 c1 1c	 add	 ecx, 28			; 0000001cH
  00039	ff 15 00 00 00
	00		 call	 DWORD PTR __imp_??1?$basic_string@DU?$char_traits@D@std@@V?$allocator@D@2@@std@@QAE@XZ
  0003f	c7 45 fc ff ff
	ff ff		 mov	 DWORD PTR __$EHRec$[ebp+8], -1
  00046	8b 4d f0	 mov	 ecx, DWORD PTR _this$[ebp]
  00049	ff 15 00 00 00
	00		 call	 DWORD PTR __imp_??1?$basic_string@DU?$char_traits@D@std@@V?$allocator@D@2@@std@@QAE@XZ
  0004f	8b 4d f4	 mov	 ecx, DWORD PTR __$EHRec$[ebp]
  00052	64 89 0d 00 00
	00 00		 mov	 DWORD PTR fs:__except_list, ecx
  00059	8b e5		 mov	 esp, ebp
  0005b	5d		 pop	 ebp
  0005c	c3		 ret	 0
_TEXT	ENDS
;	COMDAT text$x
text$x	SEGMENT
$L202411:
  00000	8b 4d f0	 mov	 ecx, DWORD PTR _this$[ebp]
  00003	ff 25 00 00 00
	00		 jmp	 DWORD PTR __imp_??1?$basic_string@DU?$char_traits@D@std@@V?$allocator@D@2@@std@@QAE@XZ
$L202412:
  00009	8b 4d f0	 mov	 ecx, DWORD PTR _this$[ebp]
  0000c	83 c1 1c	 add	 ecx, 28			; 0000001cH
  0000f	ff 25 00 00 00
	00		 jmp	 DWORD PTR __imp_??1?$basic_string@DU?$char_traits@D@std@@V?$allocator@D@2@@std@@QAE@XZ
__ehhandler$??1WEB_GAME@@QAE@XZ:
  00015	b8 00 00 00 00	 mov	 eax, OFFSET FLAT:$T202415
  0001a	e9 00 00 00 00	 jmp	 ___CxxFrameHandler
text$x	ENDS
??1WEB_GAME@@QAE@XZ ENDP				; WEB_GAME::~WEB_GAME
EXTRN	??3@YAXPAX@Z:NEAR				; operator delete
; Function compile flags: /Odt
;	COMDAT ??_GILayoutChangeObserver@@UAEPAXI@Z
_TEXT	SEGMENT
_this$ = -4						; size = 4
___flags$ = 8						; size = 4
??_GILayoutChangeObserver@@UAEPAXI@Z PROC NEAR		; ILayoutChangeObserver::`scalar deleting destructor', COMDAT
; _this$ = ecx
  00000	55		 push	 ebp
  00001	8b ec		 mov	 ebp, esp
  00003	51		 push	 ecx
  00004	89 4d fc	 mov	 DWORD PTR _this$[ebp], ecx
  00007	8b 4d fc	 mov	 ecx, DWORD PTR _this$[ebp]
  0000a	e8 00 00 00 00	 call	 ??1ILayoutChangeObserver@@UAE@XZ
  0000f	8b 45 08	 mov	 eax, DWORD PTR ___flags$[ebp]
  00012	83 e0 01	 and	 eax, 1
  00015	74 0c		 je	 SHORT $L201278
  00017	8b 4d fc	 mov	 ecx, DWORD PTR _this$[ebp]
  0001a	51		 push	 ecx
  0001b	e8 00 00 00 00	 call	 ??3@YAXPAX@Z		; operator delete
  00020	83 c4 04	 add	 esp, 4
$L201278:
  00023	8b 45 fc	 mov	 eax, DWORD PTR _this$[ebp]
  00026	8b e5		 mov	 esp, ebp
  00028	5d		 pop	 ebp
  00029	c2 04 00	 ret	 4
??_GILayoutChangeObserver@@UAEPAXI@Z ENDP		; ILayoutChangeObserver::`scalar deleting destructor'
_TEXT	ENDS
PUBLIC	??_R4IMessageObserver@@6B@			; IMessageObserver::`RTTI Complete Object Locator'
PUBLIC	??_R3IMessageObserver@@8			; IMessageObserver::`RTTI Class Hierarchy Descriptor'
PUBLIC	??_R2IMessageObserver@@8			; IMessageObserver::`RTTI Base Class Array'
PUBLIC	??_7IMessageObserver@@6B@			; IMessageObserver::`vftable'
PUBLIC	??_GIMessageObserver@@UAEPAXI@Z			; IMessageObserver::`scalar deleting destructor'
EXTRN	??_EIMessageObserver@@UAEPAXI@Z:NEAR		; IMessageObserver::`vector deleting destructor'
;	COMDAT ??_7IMessageObserver@@6B@
CONST	SEGMENT
??_7IMessageObserver@@6B@ DD FLAT:??_R4IMessageObserver@@6B@ ; IMessageObserver::`vftable'
	DD	FLAT:??_EIMessageObserver@@UAEPAXI@Z
CONST	ENDS
;	COMDAT ??_R4IMessageObserver@@6B@
rdata$r	SEGMENT
??_R4IMessageObserver@@6B@ DD 00H			; IMessageObserver::`RTTI Complete Object Locator'
	DD	00H
	DD	00H
	DD	FLAT:??_R0?AVIMessageObserver@@@8
	DD	FLAT:??_R3IMessageObserver@@8
rdata$r	ENDS
;	COMDAT ??_R3IMessageObserver@@8
rdata$r	SEGMENT
??_R3IMessageObserver@@8 DD 00H				; IMessageObserver::`RTTI Class Hierarchy Descriptor'
	DD	00H
	DD	01H
	DD	FLAT:??_R2IMessageObserver@@8
rdata$r	ENDS
;	COMDAT ??_R2IMessageObserver@@8
rdata$r	SEGMENT
??_R2IMessageObserver@@8 DD FLAT:??_R1A@?0A@A@IMessageObserver@@8 ; IMessageObserver::`RTTI Base Class Array'
; Function compile flags: /Odt
rdata$r	ENDS
;	COMDAT ??0IMessageObserver@@QAE@XZ
_TEXT	SEGMENT
_this$ = -4						; size = 4
??0IMessageObserver@@QAE@XZ PROC NEAR			; IMessageObserver::IMessageObserver, COMDAT
; _this$ = ecx
  00000	55		 push	 ebp
  00001	8b ec		 mov	 ebp, esp
  00003	51		 push	 ecx
  00004	89 4d fc	 mov	 DWORD PTR _this$[ebp], ecx
  00007	8b 45 fc	 mov	 eax, DWORD PTR _this$[ebp]
  0000a	c7 00 00 00 00
	00		 mov	 DWORD PTR [eax], OFFSET FLAT:??_7IMessageObserver@@6B@
  00010	8b 45 fc	 mov	 eax, DWORD PTR _this$[ebp]
  00013	8b e5		 mov	 esp, ebp
  00015	5d		 pop	 ebp
  00016	c3		 ret	 0
??0IMessageObserver@@QAE@XZ ENDP			; IMessageObserver::IMessageObserver
_TEXT	ENDS
xdata$x	SEGMENT
$T202446 DD	0ffffffffH
	DD	FLAT:$L202438
	DD	00H
	DD	FLAT:$L202441
	DD	01H
	DD	FLAT:$L202442
$T202444 DD	019930520H
	DD	03H
	DD	FLAT:$T202446
	DD	2 DUP(00H)
	DD	2 DUP(00H)
; Function compile flags: /Odt
; File d:\boxgit\playbox\playbox\dev\prj\playbox\src\module\gamepanel\webgameplayingwnd.cpp
xdata$x	ENDS
_TEXT	SEGMENT
tv68 = -52						; size = 4
tv92 = -48						; size = 4
tv129 = -44						; size = 4
tv89 = -40						; size = 4
tv81 = -36						; size = 4
_this$ = -32						; size = 4
$T202433 = -28						; size = 4
$T202432 = -24						; size = 4
$T202429 = -20						; size = 4
$T202428 = -16						; size = 4
__$EHRec$ = -12						; size = 12
??1WebGamePlayingWnd@@UAE@XZ PROC NEAR			; WebGamePlayingWnd::~WebGamePlayingWnd
; _this$ = ecx

; 27   : {

  001a0	55		 push	 ebp
  001a1	8b ec		 mov	 ebp, esp
  001a3	6a ff		 push	 -1
  001a5	68 00 00 00 00	 push	 __ehhandler$??1WebGamePlayingWnd@@UAE@XZ
  001aa	64 a1 00 00 00
	00		 mov	 eax, DWORD PTR fs:__except_list
  001b0	50		 push	 eax
  001b1	64 89 25 00 00
	00 00		 mov	 DWORD PTR fs:__except_list, esp
  001b8	83 ec 28	 sub	 esp, 40			; 00000028H
  001bb	89 4d e0	 mov	 DWORD PTR _this$[ebp], ecx
  001be	8b 45 e0	 mov	 eax, DWORD PTR _this$[ebp]
  001c1	c7 00 00 00 00
	00		 mov	 DWORD PTR [eax], OFFSET FLAT:??_7WebGamePlayingWnd@@6BCBasicWnd@@@
  001c7	8b 4d e0	 mov	 ecx, DWORD PTR _this$[ebp]
  001ca	c7 41 54 00 00
	00 00		 mov	 DWORD PTR [ecx+84], OFFSET FLAT:??_7WebGamePlayingWnd@@6BILayoutChangeObserver@@@
  001d1	c7 45 fc 02 00
	00 00		 mov	 DWORD PTR __$EHRec$[ebp+8], 2

; 28   : 	delete m_pBtnFullScreen;

  001d8	8b 55 e0	 mov	 edx, DWORD PTR _this$[ebp]
  001db	8b 82 ac 00 00
	00		 mov	 eax, DWORD PTR [edx+172]
  001e1	89 45 ec	 mov	 DWORD PTR $T202429[ebp], eax
  001e4	8b 4d ec	 mov	 ecx, DWORD PTR $T202429[ebp]
  001e7	89 4d f0	 mov	 DWORD PTR $T202428[ebp], ecx
  001ea	83 7d f0 00	 cmp	 DWORD PTR $T202428[ebp], 0
  001ee	74 12		 je	 SHORT $L202430
  001f0	6a 01		 push	 1
  001f2	8b 55 f0	 mov	 edx, DWORD PTR $T202428[ebp]
  001f5	8b 02		 mov	 eax, DWORD PTR [edx]
  001f7	8b 4d f0	 mov	 ecx, DWORD PTR $T202428[ebp]
  001fa	ff 50 04	 call	 DWORD PTR [eax+4]
  001fd	89 45 dc	 mov	 DWORD PTR tv81[ebp], eax
  00200	eb 07		 jmp	 SHORT $L202431
$L202430:
  00202	c7 45 dc 00 00
	00 00		 mov	 DWORD PTR tv81[ebp], 0
$L202431:

; 29   : 	delete m_pBtnGameRight;

  00209	8b 4d e0	 mov	 ecx, DWORD PTR _this$[ebp]
  0020c	8b 91 b0 00 00
	00		 mov	 edx, DWORD PTR [ecx+176]
  00212	89 55 e4	 mov	 DWORD PTR $T202433[ebp], edx
  00215	8b 45 e4	 mov	 eax, DWORD PTR $T202433[ebp]
  00218	89 45 e8	 mov	 DWORD PTR $T202432[ebp], eax
  0021b	83 7d e8 00	 cmp	 DWORD PTR $T202432[ebp], 0
  0021f	74 12		 je	 SHORT $L202434
  00221	6a 01		 push	 1
  00223	8b 4d e8	 mov	 ecx, DWORD PTR $T202432[ebp]
  00226	8b 11		 mov	 edx, DWORD PTR [ecx]
  00228	8b 4d e8	 mov	 ecx, DWORD PTR $T202432[ebp]
  0022b	ff 52 04	 call	 DWORD PTR [edx+4]
  0022e	89 45 d8	 mov	 DWORD PTR tv89[ebp], eax
  00231	eb 07		 jmp	 SHORT $L202435
$L202434:
  00233	c7 45 d8 00 00
	00 00		 mov	 DWORD PTR tv89[ebp], 0
$L202435:

; 30   : 
; 31   : 	AfxGetMessageManager()->DetachMessage( ID_MESSAGE_LAYOUTMGR,(ILayoutChangeObserver*) this);

  0023a	83 7d e0 00	 cmp	 DWORD PTR _this$[ebp], 0
  0023e	74 0b		 je	 SHORT $L202436
  00240	8b 45 e0	 mov	 eax, DWORD PTR _this$[ebp]
  00243	83 c0 54	 add	 eax, 84			; 00000054H
  00246	89 45 d4	 mov	 DWORD PTR tv129[ebp], eax
  00249	eb 07		 jmp	 SHORT $L202437
$L202436:
  0024b	c7 45 d4 00 00
	00 00		 mov	 DWORD PTR tv129[ebp], 0
$L202437:
  00252	e8 00 00 00 00	 call	 ?AfxGetMessageManager@@YAPAVIMessageManager@@XZ ; AfxGetMessageManager
  00257	89 45 d0	 mov	 DWORD PTR tv92[ebp], eax
  0025a	8b 4d d4	 mov	 ecx, DWORD PTR tv129[ebp]
  0025d	51		 push	 ecx
  0025e	68 00 00 00 00	 push	 OFFSET FLAT:_ID_MESSAGE_LAYOUTMGR
  00263	8b 55 d0	 mov	 edx, DWORD PTR tv92[ebp]
  00266	8b 02		 mov	 eax, DWORD PTR [edx]
  00268	8b 4d d0	 mov	 ecx, DWORD PTR tv92[ebp]
  0026b	ff 50 08	 call	 DWORD PTR [eax+8]

; 32   : }

  0026e	c6 45 fc 01	 mov	 BYTE PTR __$EHRec$[ebp+8], 1
  00272	8b 4d e0	 mov	 ecx, DWORD PTR _this$[ebp]
  00275	83 c1 58	 add	 ecx, 88			; 00000058H
  00278	e8 00 00 00 00	 call	 ??1WEB_GAME@@QAE@XZ
  0027d	c6 45 fc 00	 mov	 BYTE PTR __$EHRec$[ebp+8], 0
  00281	83 7d e0 00	 cmp	 DWORD PTR _this$[ebp], 0
  00285	74 0b		 je	 SHORT $L202426
  00287	8b 4d e0	 mov	 ecx, DWORD PTR _this$[ebp]
  0028a	83 c1 54	 add	 ecx, 84			; 00000054H
  0028d	89 4d cc	 mov	 DWORD PTR tv68[ebp], ecx
  00290	eb 07		 jmp	 SHORT $L202427
$L202426:
  00292	c7 45 cc 00 00
	00 00		 mov	 DWORD PTR tv68[ebp], 0
$L202427:
  00299	8b 4d cc	 mov	 ecx, DWORD PTR tv68[ebp]
  0029c	e8 00 00 00 00	 call	 ??1ILayoutChangeObserver@@UAE@XZ
  002a1	c7 45 fc ff ff
	ff ff		 mov	 DWORD PTR __$EHRec$[ebp+8], -1
  002a8	8b 4d e0	 mov	 ecx, DWORD PTR _this$[ebp]
  002ab	e8 00 00 00 00	 call	 ??1CBasicWnd@@UAE@XZ	; CBasicWnd::~CBasicWnd
  002b0	8b 4d f4	 mov	 ecx, DWORD PTR __$EHRec$[ebp]
  002b3	64 89 0d 00 00
	00 00		 mov	 DWORD PTR fs:__except_list, ecx
  002ba	8b e5		 mov	 esp, ebp
  002bc	5d		 pop	 ebp
  002bd	c3		 ret	 0
_TEXT	ENDS
text$x	SEGMENT
$L202438:
  00046	8b 4d e0	 mov	 ecx, DWORD PTR _this$[ebp]
  00049	e9 00 00 00 00	 jmp	 ??1CBasicWnd@@UAE@XZ	; CBasicWnd::~CBasicWnd
$L202441:
  0004e	83 7d e0 00	 cmp	 DWORD PTR _this$[ebp], 0
  00052	0f 84 0e 00 00
	00		 je	 $L202439
  00058	8b 45 e0	 mov	 eax, DWORD PTR _this$[ebp]
  0005b	83 c0 54	 add	 eax, 84			; 00000054H
  0005e	89 45 cc	 mov	 DWORD PTR tv68[ebp], eax
  00061	e9 07 00 00 00	 jmp	 $L202440
$L202439:
  00066	c7 45 cc 00 00
	00 00		 mov	 DWORD PTR tv68[ebp], 0
$L202440:
  0006d	8b 4d cc	 mov	 ecx, DWORD PTR tv68[ebp]
  00070	e9 00 00 00 00	 jmp	 ??1ILayoutChangeObserver@@UAE@XZ
$L202442:
  00075	8b 4d e0	 mov	 ecx, DWORD PTR _this$[ebp]
  00078	83 c1 58	 add	 ecx, 88			; 00000058H
  0007b	e9 00 00 00 00	 jmp	 ??1WEB_GAME@@QAE@XZ
__ehhandler$??1WebGamePlayingWnd@@UAE@XZ:
  00080	b8 00 00 00 00	 mov	 eax, OFFSET FLAT:$T202444
  00085	e9 00 00 00 00	 jmp	 ___CxxFrameHandler
text$x	ENDS
??1WebGamePlayingWnd@@UAE@XZ ENDP			; WebGamePlayingWnd::~WebGamePlayingWnd
PUBLIC	?GetThisMessageMap@WebGamePlayingWnd@@KGPBUAFX_MSGMAP@@XZ ; WebGamePlayingWnd::GetThisMessageMap
; Function compile flags: /Odt
_TEXT	SEGMENT
?GetThisMessageMap@WebGamePlayingWnd@@KGPBUAFX_MSGMAP@@XZ PROC NEAR ; WebGamePlayingWnd::GetThisMessageMap

; 34   : BEGIN_MESSAGE_MAP(WebGamePlayingWnd, CBasicWnd)

  002c0	55		 push	 ebp
  002c1	8b ec		 mov	 ebp, esp
  002c3	b8 00 00 00 00	 mov	 eax, OFFSET FLAT:?messageMap@WebGamePlayingWnd@@1UAFX_MSGMAP@@B ; WebGamePlayingWnd::messageMap
  002c8	5d		 pop	 ebp
  002c9	c3		 ret	 0
?GetThisMessageMap@WebGamePlayingWnd@@KGPBUAFX_MSGMAP@@XZ ENDP ; WebGamePlayingWnd::GetThisMessageMap
; Function compile flags: /Odt
_this$ = -4						; size = 4
?GetMessageMap@WebGamePlayingWnd@@MBEPBUAFX_MSGMAP@@XZ PROC NEAR ; WebGamePlayingWnd::GetMessageMap
; _this$ = ecx

; 34   : BEGIN_MESSAGE_MAP(WebGamePlayingWnd, CBasicWnd)

  002d0	55		 push	 ebp
  002d1	8b ec		 mov	 ebp, esp
  002d3	51		 push	 ecx
  002d4	89 4d fc	 mov	 DWORD PTR _this$[ebp], ecx
  002d7	b8 00 00 00 00	 mov	 eax, OFFSET FLAT:?messageMap@WebGamePlayingWnd@@1UAFX_MSGMAP@@B ; WebGamePlayingWnd::messageMap
  002dc	8b e5		 mov	 esp, ebp
  002de	5d		 pop	 ebp
  002df	c3		 ret	 0
?GetMessageMap@WebGamePlayingWnd@@MBEPBUAFX_MSGMAP@@XZ ENDP ; WebGamePlayingWnd::GetMessageMap
_TEXT	ENDS
PUBLIC	??0CRect@@QAE@HHHH@Z				; CRect::CRect
PUBLIC	?OnCreate@CWnd@@IAEHPAUtagCREATESTRUCTA@@@Z	; CWnd::OnCreate
PUBLIC	?UpdateAllWnd@WebGamePlayingWnd@@AAEXXZ		; WebGamePlayingWnd::UpdateAllWnd
EXTRN	__imp_??0?$CStringT@DV?$StrTraitMFC_DLL@DV?$ChTraitsCRT@D@ATL@@@@@ATL@@QAE@PBD@Z:NEAR
EXTRN	__imp_??1?$CStringT@DV?$StrTraitMFC_DLL@DV?$ChTraitsCRT@D@ATL@@@@@ATL@@QAE@XZ:NEAR
EXTRN	__imp_?YL_Log@@YAXABV?$basic_string@DU?$char_traits@D@std@@V?$allocator@D@2@@std@@H0PBDZZ:NEAR
EXTRN	__imp_??0?$basic_string@DU?$char_traits@D@std@@V?$allocator@D@2@@std@@QAE@PBD@Z:NEAR
EXTRN	?AfxGetUIManager@@YAPAVIUIManager@@XZ:NEAR	; AfxGetUIManager
xdata$x	SEGMENT
$T202475 DD	0ffffffffH
	DD	FLAT:$L202461
	DD	00H
	DD	FLAT:$L202462
	DD	0ffffffffH
	DD	FLAT:$L202466
	DD	0ffffffffH
	DD	FLAT:$L202468
	DD	0ffffffffH
	DD	FLAT:$L202470
	DD	04H
	DD	FLAT:$L202471
$T202473 DD	019930520H
	DD	06H
	DD	FLAT:$T202475
	DD	2 DUP(00H)
	DD	2 DUP(00H)
; Function compile flags: /Odt
xdata$x	ENDS
_TEXT	SEGMENT
tv316 = -216						; size = 4
tv313 = -212						; size = 4
tv66 = -208						; size = 4
tv311 = -204						; size = 4
tv308 = -200						; size = 4
tv72 = -196						; size = 4
tv306 = -192						; size = 4
tv303 = -188						; size = 4
tv300 = -184						; size = 4
tv157 = -180						; size = 4
_this$ = -176						; size = 4
$T202460 = -172						; size = 28
$T202459 = -144						; size = 28
$T202458 = -116						; size = 4
$T202457 = -112						; size = 4
$T202456 = -108						; size = 4
$T202455 = -104						; size = 4
$T202454 = -100						; size = 4
$T202453 = -96						; size = 4
$T202452 = -92						; size = 4
$T202451 = -88						; size = 28
$T202450 = -60						; size = 28
_pLayoutMgr$ = -32					; size = 4
_rectNull$ = -28					; size = 16
__$EHRec$ = -12						; size = 12
_lpCreateStruct$ = 8					; size = 4
?OnCreate@WebGamePlayingWnd@@IAEHPAUtagCREATESTRUCTA@@@Z PROC NEAR ; WebGamePlayingWnd::OnCreate
; _this$ = ecx

; 42   : {

  002e0	55		 push	 ebp
  002e1	8b ec		 mov	 ebp, esp
  002e3	6a ff		 push	 -1
  002e5	68 00 00 00 00	 push	 __ehhandler$?OnCreate@WebGamePlayingWnd@@IAEHPAUtagCREATESTRUCTA@@@Z
  002ea	64 a1 00 00 00
	00		 mov	 eax, DWORD PTR fs:__except_list
  002f0	50		 push	 eax
  002f1	64 89 25 00 00
	00 00		 mov	 DWORD PTR fs:__except_list, esp
  002f8	81 ec cc 00 00
	00		 sub	 esp, 204		; 000000ccH
  002fe	89 8d 50 ff ff
	ff		 mov	 DWORD PTR _this$[ebp], ecx

; 43   : 	YL_Log("WebGamePlayingWnd.txt", LOG_DEBUG, "WebGamePlayingWnd::OnCreate", "===IN");

  00304	68 00 00 00 00	 push	 OFFSET FLAT:$SG201322
  00309	8d 4d c4	 lea	 ecx, DWORD PTR $T202450[ebp]
  0030c	ff 15 00 00 00
	00		 call	 DWORD PTR __imp_??0?$basic_string@DU?$char_traits@D@std@@V?$allocator@D@2@@std@@QAE@PBD@Z
  00312	c7 45 fc 00 00
	00 00		 mov	 DWORD PTR __$EHRec$[ebp+8], 0
  00319	68 00 00 00 00	 push	 OFFSET FLAT:$SG201323
  0031e	8d 4d a8	 lea	 ecx, DWORD PTR $T202451[ebp]
  00321	ff 15 00 00 00
	00		 call	 DWORD PTR __imp_??0?$basic_string@DU?$char_traits@D@std@@V?$allocator@D@2@@std@@QAE@PBD@Z
  00327	c6 45 fc 01	 mov	 BYTE PTR __$EHRec$[ebp+8], 1
  0032b	68 00 00 00 00	 push	 OFFSET FLAT:$SG201321
  00330	8d 45 c4	 lea	 eax, DWORD PTR $T202450[ebp]
  00333	50		 push	 eax
  00334	6a 00		 push	 0
  00336	8d 4d a8	 lea	 ecx, DWORD PTR $T202451[ebp]
  00339	51		 push	 ecx
  0033a	ff 15 00 00 00
	00		 call	 DWORD PTR __imp_?YL_Log@@YAXABV?$basic_string@DU?$char_traits@D@std@@V?$allocator@D@2@@std@@H0PBDZZ
  00340	83 c4 10	 add	 esp, 16			; 00000010H
  00343	c6 45 fc 00	 mov	 BYTE PTR __$EHRec$[ebp+8], 0
  00347	8d 4d a8	 lea	 ecx, DWORD PTR $T202451[ebp]
  0034a	ff 15 00 00 00
	00		 call	 DWORD PTR __imp_??1?$basic_string@DU?$char_traits@D@std@@V?$allocator@D@2@@std@@QAE@XZ
  00350	c7 45 fc ff ff
	ff ff		 mov	 DWORD PTR __$EHRec$[ebp+8], -1
  00357	8d 4d c4	 lea	 ecx, DWORD PTR $T202450[ebp]
  0035a	ff 15 00 00 00
	00		 call	 DWORD PTR __imp_??1?$basic_string@DU?$char_traits@D@std@@V?$allocator@D@2@@std@@QAE@XZ

; 44   : 	if(__super::OnCreate(lpCreateStruct) == -1)

  00360	8b 55 08	 mov	 edx, DWORD PTR _lpCreateStruct$[ebp]
  00363	52		 push	 edx
  00364	8b 8d 50 ff ff
	ff		 mov	 ecx, DWORD PTR _this$[ebp]
  0036a	e8 00 00 00 00	 call	 ?OnCreate@CWnd@@IAEHPAUtagCREATESTRUCTA@@@Z ; CWnd::OnCreate
  0036f	83 f8 ff	 cmp	 eax, -1
  00372	75 08		 jne	 SHORT $L201324

; 45   : 	{
; 46   : 		return -1;

  00374	83 c8 ff	 or	 eax, -1
  00377	e9 a3 02 00 00	 jmp	 $L201318
$L201324:

; 47   : 	}
; 48   : 	CRect rectNull(0,0,0,0);

  0037c	6a 00		 push	 0
  0037e	6a 00		 push	 0
  00380	6a 00		 push	 0
  00382	6a 00		 push	 0
  00384	8d 4d e4	 lea	 ecx, DWORD PTR _rectNull$[ebp]
  00387	e8 00 00 00 00	 call	 ??0CRect@@QAE@HHHH@Z	; CRect::CRect

; 49   : 
; 50   : 	m_pBtnFullScreen->Create(NULL,WS_VISIBLE,rectNull,this,IDC_BTN_FULL_SCREEN);

  0038c	6a 77		 push	 119			; 00000077H
  0038e	8b 85 50 ff ff
	ff		 mov	 eax, DWORD PTR _this$[ebp]
  00394	50		 push	 eax
  00395	8d 4d e4	 lea	 ecx, DWORD PTR _rectNull$[ebp]
  00398	51		 push	 ecx
  00399	68 00 00 00 10	 push	 268435456		; 10000000H
  0039e	6a 00		 push	 0
  003a0	8b 95 50 ff ff
	ff		 mov	 edx, DWORD PTR _this$[ebp]
  003a6	8b 82 ac 00 00
	00		 mov	 eax, DWORD PTR [edx+172]
  003ac	8b 8d 50 ff ff
	ff		 mov	 ecx, DWORD PTR _this$[ebp]
  003b2	8b 89 ac 00 00
	00		 mov	 ecx, DWORD PTR [ecx+172]
  003b8	8b 10		 mov	 edx, DWORD PTR [eax]
  003ba	ff 92 38 01 00
	00		 call	 DWORD PTR [edx+312]

; 51   : 	m_pBtnGameRight->Create(NULL,WS_VISIBLE,rectNull,this,IDC_BTN_GAMERIGHT);

  003c0	68 82 00 00 00	 push	 130			; 00000082H
  003c5	8b 85 50 ff ff
	ff		 mov	 eax, DWORD PTR _this$[ebp]
  003cb	50		 push	 eax
  003cc	8d 4d e4	 lea	 ecx, DWORD PTR _rectNull$[ebp]
  003cf	51		 push	 ecx
  003d0	68 00 00 00 10	 push	 268435456		; 10000000H
  003d5	6a 00		 push	 0
  003d7	8b 95 50 ff ff
	ff		 mov	 edx, DWORD PTR _this$[ebp]
  003dd	8b 82 b0 00 00
	00		 mov	 eax, DWORD PTR [edx+176]
  003e3	8b 8d 50 ff ff
	ff		 mov	 ecx, DWORD PTR _this$[ebp]
  003e9	8b 89 b0 00 00
	00		 mov	 ecx, DWORD PTR [ecx+176]
  003ef	8b 10		 mov	 edx, DWORD PTR [eax]
  003f1	ff 92 38 01 00
	00		 call	 DWORD PTR [edx+312]

; 52   : 
; 53   : 	m_pWndWebGame->Create(NULL,NULL,WS_CHILD|WS_CLIPCHILDREN,rectNull,this,ID_WND_WEBGAME );

  003f7	6a 00		 push	 0
  003f9	68 d4 00 00 00	 push	 212			; 000000d4H
  003fe	8b 85 50 ff ff
	ff		 mov	 eax, DWORD PTR _this$[ebp]
  00404	50		 push	 eax
  00405	8d 4d e4	 lea	 ecx, DWORD PTR _rectNull$[ebp]
  00408	51		 push	 ecx
  00409	68 00 00 00 42	 push	 1107296256		; 42000000H
  0040e	6a 00		 push	 0
  00410	6a 00		 push	 0
  00412	8b 95 50 ff ff
	ff		 mov	 edx, DWORD PTR _this$[ebp]
  00418	8b 82 b4 00 00
	00		 mov	 eax, DWORD PTR [edx+180]
  0041e	8b 8d 50 ff ff
	ff		 mov	 ecx, DWORD PTR _this$[ebp]
  00424	8b 89 b4 00 00
	00		 mov	 ecx, DWORD PTR [ecx+180]
  0042a	8b 10		 mov	 edx, DWORD PTR [eax]
  0042c	ff 52 5c	 call	 DWORD PTR [edx+92]

; 54   : 
; 55   : 	ILayoutMgr* pLayoutMgr =  AfxGetUIManager()->UIGetLayoutMgr();

  0042f	e8 00 00 00 00	 call	 ?AfxGetUIManager@@YAPAVIUIManager@@XZ ; AfxGetUIManager
  00434	89 85 4c ff ff
	ff		 mov	 DWORD PTR tv157[ebp], eax
  0043a	8b 85 4c ff ff
	ff		 mov	 eax, DWORD PTR tv157[ebp]
  00440	8b 10		 mov	 edx, DWORD PTR [eax]
  00442	8b 8d 4c ff ff
	ff		 mov	 ecx, DWORD PTR tv157[ebp]
  00448	ff 52 24	 call	 DWORD PTR [edx+36]
  0044b	89 45 e0	 mov	 DWORD PTR _pLayoutMgr$[ebp], eax

; 56   : 	
; 57   : 	pLayoutMgr->RegisterCtrl( this, "WebGameView", m_pWndWebGame );

  0044e	8b 85 50 ff ff
	ff		 mov	 eax, DWORD PTR _this$[ebp]
  00454	8b 88 b4 00 00
	00		 mov	 ecx, DWORD PTR [eax+180]
  0045a	51		 push	 ecx
  0045b	51		 push	 ecx
  0045c	8b cc		 mov	 ecx, esp
  0045e	89 65 a4	 mov	 DWORD PTR $T202452[ebp], esp
  00461	68 00 00 00 00	 push	 OFFSET FLAT:$SG201328
  00466	ff 15 00 00 00
	00		 call	 DWORD PTR __imp_??0?$CStringT@DV?$StrTraitMFC_DLL@DV?$ChTraitsCRT@D@ATL@@@@@ATL@@QAE@PBD@Z
  0046c	89 85 48 ff ff
	ff		 mov	 DWORD PTR tv300[ebp], eax
  00472	8b 95 50 ff ff
	ff		 mov	 edx, DWORD PTR _this$[ebp]
  00478	52		 push	 edx
  00479	8b 45 e0	 mov	 eax, DWORD PTR _pLayoutMgr$[ebp]
  0047c	8b 10		 mov	 edx, DWORD PTR [eax]
  0047e	8b 4d e0	 mov	 ecx, DWORD PTR _pLayoutMgr$[ebp]
  00481	ff 52 34	 call	 DWORD PTR [edx+52]

; 58   : 	pLayoutMgr->RegisterCtrl( this, "WebGameToFull", m_pBtnFullScreen );

  00484	8b 85 50 ff ff
	ff		 mov	 eax, DWORD PTR _this$[ebp]
  0048a	8b 88 ac 00 00
	00		 mov	 ecx, DWORD PTR [eax+172]
  00490	51		 push	 ecx
  00491	51		 push	 ecx
  00492	8b cc		 mov	 ecx, esp
  00494	89 65 a0	 mov	 DWORD PTR $T202453[ebp], esp
  00497	68 00 00 00 00	 push	 OFFSET FLAT:$SG201330
  0049c	ff 15 00 00 00
	00		 call	 DWORD PTR __imp_??0?$CStringT@DV?$StrTraitMFC_DLL@DV?$ChTraitsCRT@D@ATL@@@@@ATL@@QAE@PBD@Z
  004a2	89 85 44 ff ff
	ff		 mov	 DWORD PTR tv303[ebp], eax
  004a8	8b 95 50 ff ff
	ff		 mov	 edx, DWORD PTR _this$[ebp]
  004ae	52		 push	 edx
  004af	8b 45 e0	 mov	 eax, DWORD PTR _pLayoutMgr$[ebp]
  004b2	8b 10		 mov	 edx, DWORD PTR [eax]
  004b4	8b 4d e0	 mov	 ecx, DWORD PTR _pLayoutMgr$[ebp]
  004b7	ff 52 34	 call	 DWORD PTR [edx+52]

; 59   : 	pLayoutMgr->RegisterCtrl( this, "WebGameInfo", m_pBtnGameRight );

  004ba	8b 85 50 ff ff
	ff		 mov	 eax, DWORD PTR _this$[ebp]
  004c0	8b 88 b0 00 00
	00		 mov	 ecx, DWORD PTR [eax+176]
  004c6	51		 push	 ecx
  004c7	51		 push	 ecx
  004c8	8b cc		 mov	 ecx, esp
  004ca	89 65 9c	 mov	 DWORD PTR $T202454[ebp], esp
  004cd	68 00 00 00 00	 push	 OFFSET FLAT:$SG201332
  004d2	ff 15 00 00 00
	00		 call	 DWORD PTR __imp_??0?$CStringT@DV?$StrTraitMFC_DLL@DV?$ChTraitsCRT@D@ATL@@@@@ATL@@QAE@PBD@Z
  004d8	89 85 40 ff ff
	ff		 mov	 DWORD PTR tv306[ebp], eax
  004de	8b 95 50 ff ff
	ff		 mov	 edx, DWORD PTR _this$[ebp]
  004e4	52		 push	 edx
  004e5	8b 45 e0	 mov	 eax, DWORD PTR _pLayoutMgr$[ebp]
  004e8	8b 10		 mov	 edx, DWORD PTR [eax]
  004ea	8b 4d e0	 mov	 ecx, DWORD PTR _pLayoutMgr$[ebp]
  004ed	ff 52 34	 call	 DWORD PTR [edx+52]

; 60   : 	
; 61   : 	pLayoutMgr->CreateControlPane( this, "webgameplaying", "normal" );

  004f0	51		 push	 ecx
  004f1	8b cc		 mov	 ecx, esp
  004f3	89 65 98	 mov	 DWORD PTR $T202455[ebp], esp
  004f6	68 00 00 00 00	 push	 OFFSET FLAT:$SG201335
  004fb	ff 15 00 00 00
	00		 call	 DWORD PTR __imp_??0?$CStringT@DV?$StrTraitMFC_DLL@DV?$ChTraitsCRT@D@ATL@@@@@ATL@@QAE@PBD@Z
  00501	89 85 3c ff ff
	ff		 mov	 DWORD PTR tv72[ebp], eax
  00507	8b 85 3c ff ff
	ff		 mov	 eax, DWORD PTR tv72[ebp]
  0050d	89 85 38 ff ff
	ff		 mov	 DWORD PTR tv308[ebp], eax
  00513	c7 45 fc 02 00
	00 00		 mov	 DWORD PTR __$EHRec$[ebp+8], 2
  0051a	51		 push	 ecx
  0051b	8b cc		 mov	 ecx, esp
  0051d	89 65 94	 mov	 DWORD PTR $T202456[ebp], esp
  00520	68 00 00 00 00	 push	 OFFSET FLAT:$SG201336
  00525	ff 15 00 00 00
	00		 call	 DWORD PTR __imp_??0?$CStringT@DV?$StrTraitMFC_DLL@DV?$ChTraitsCRT@D@ATL@@@@@ATL@@QAE@PBD@Z
  0052b	89 85 34 ff ff
	ff		 mov	 DWORD PTR tv311[ebp], eax
  00531	8b 8d 50 ff ff
	ff		 mov	 ecx, DWORD PTR _this$[ebp]
  00537	51		 push	 ecx
  00538	8b 55 e0	 mov	 edx, DWORD PTR _pLayoutMgr$[ebp]
  0053b	8b 02		 mov	 eax, DWORD PTR [edx]
  0053d	c7 45 fc ff ff
	ff ff		 mov	 DWORD PTR __$EHRec$[ebp+8], -1
  00544	8b 4d e0	 mov	 ecx, DWORD PTR _pLayoutMgr$[ebp]
  00547	ff 50 38	 call	 DWORD PTR [eax+56]

; 62   : 	pLayoutMgr->CreateBmpPane( this,"webgameplaying","normal" );

  0054a	51		 push	 ecx
  0054b	8b cc		 mov	 ecx, esp
  0054d	89 65 90	 mov	 DWORD PTR $T202457[ebp], esp
  00550	68 00 00 00 00	 push	 OFFSET FLAT:$SG201339
  00555	ff 15 00 00 00
	00		 call	 DWORD PTR __imp_??0?$CStringT@DV?$StrTraitMFC_DLL@DV?$ChTraitsCRT@D@ATL@@@@@ATL@@QAE@PBD@Z
  0055b	89 85 30 ff ff
	ff		 mov	 DWORD PTR tv66[ebp], eax
  00561	8b 8d 30 ff ff
	ff		 mov	 ecx, DWORD PTR tv66[ebp]
  00567	89 8d 2c ff ff
	ff		 mov	 DWORD PTR tv313[ebp], ecx
  0056d	c7 45 fc 03 00
	00 00		 mov	 DWORD PTR __$EHRec$[ebp+8], 3
  00574	51		 push	 ecx
  00575	8b cc		 mov	 ecx, esp
  00577	89 65 8c	 mov	 DWORD PTR $T202458[ebp], esp
  0057a	68 00 00 00 00	 push	 OFFSET FLAT:$SG201340
  0057f	ff 15 00 00 00
	00		 call	 DWORD PTR __imp_??0?$CStringT@DV?$StrTraitMFC_DLL@DV?$ChTraitsCRT@D@ATL@@@@@ATL@@QAE@PBD@Z
  00585	89 85 28 ff ff
	ff		 mov	 DWORD PTR tv316[ebp], eax
  0058b	8b 95 50 ff ff
	ff		 mov	 edx, DWORD PTR _this$[ebp]
  00591	52		 push	 edx
  00592	8b 45 e0	 mov	 eax, DWORD PTR _pLayoutMgr$[ebp]
  00595	8b 10		 mov	 edx, DWORD PTR [eax]
  00597	c7 45 fc ff ff
	ff ff		 mov	 DWORD PTR __$EHRec$[ebp+8], -1
  0059e	8b 4d e0	 mov	 ecx, DWORD PTR _pLayoutMgr$[ebp]
  005a1	ff 52 58	 call	 DWORD PTR [edx+88]

; 63   : 
; 64   : 	UpdateAllWnd();

  005a4	8b 8d 50 ff ff
	ff		 mov	 ecx, DWORD PTR _this$[ebp]
  005aa	e8 00 00 00 00	 call	 ?UpdateAllWnd@WebGamePlayingWnd@@AAEXXZ ; WebGamePlayingWnd::UpdateAllWnd

; 65   : 
; 66   : 	YL_Log("WebGamePlayingWnd.txt", LOG_DEBUG, "WebGamePlayingWnd::OnCreate", "===OUT");

  005af	68 00 00 00 00	 push	 OFFSET FLAT:$SG201344
  005b4	8d 8d 70 ff ff
	ff		 lea	 ecx, DWORD PTR $T202459[ebp]
  005ba	ff 15 00 00 00
	00		 call	 DWORD PTR __imp_??0?$basic_string@DU?$char_traits@D@std@@V?$allocator@D@2@@std@@QAE@PBD@Z
  005c0	c7 45 fc 04 00
	00 00		 mov	 DWORD PTR __$EHRec$[ebp+8], 4
  005c7	68 00 00 00 00	 push	 OFFSET FLAT:$SG201345
  005cc	8d 8d 54 ff ff
	ff		 lea	 ecx, DWORD PTR $T202460[ebp]
  005d2	ff 15 00 00 00
	00		 call	 DWORD PTR __imp_??0?$basic_string@DU?$char_traits@D@std@@V?$allocator@D@2@@std@@QAE@PBD@Z
  005d8	c6 45 fc 05	 mov	 BYTE PTR __$EHRec$[ebp+8], 5
  005dc	68 00 00 00 00	 push	 OFFSET FLAT:$SG201343
  005e1	8d 85 70 ff ff
	ff		 lea	 eax, DWORD PTR $T202459[ebp]
  005e7	50		 push	 eax
  005e8	6a 00		 push	 0
  005ea	8d 8d 54 ff ff
	ff		 lea	 ecx, DWORD PTR $T202460[ebp]
  005f0	51		 push	 ecx
  005f1	ff 15 00 00 00
	00		 call	 DWORD PTR __imp_?YL_Log@@YAXABV?$basic_string@DU?$char_traits@D@std@@V?$allocator@D@2@@std@@H0PBDZZ
  005f7	83 c4 10	 add	 esp, 16			; 00000010H
  005fa	c6 45 fc 04	 mov	 BYTE PTR __$EHRec$[ebp+8], 4
  005fe	8d 8d 54 ff ff
	ff		 lea	 ecx, DWORD PTR $T202460[ebp]
  00604	ff 15 00 00 00
	00		 call	 DWORD PTR __imp_??1?$basic_string@DU?$char_traits@D@std@@V?$allocator@D@2@@std@@QAE@XZ
  0060a	c7 45 fc ff ff
	ff ff		 mov	 DWORD PTR __$EHRec$[ebp+8], -1
  00611	8d 8d 70 ff ff
	ff		 lea	 ecx, DWORD PTR $T202459[ebp]
  00617	ff 15 00 00 00
	00		 call	 DWORD PTR __imp_??1?$basic_string@DU?$char_traits@D@std@@V?$allocator@D@2@@std@@QAE@XZ

; 67   : 	return 0;

  0061d	33 c0		 xor	 eax, eax
$L201318:

; 68   : }

  0061f	8b 4d f4	 mov	 ecx, DWORD PTR __$EHRec$[ebp]
  00622	64 89 0d 00 00
	00 00		 mov	 DWORD PTR fs:__except_list, ecx
  00629	8b e5		 mov	 esp, ebp
  0062b	5d		 pop	 ebp
  0062c	c2 04 00	 ret	 4
_TEXT	ENDS
text$x	SEGMENT
$L202461:
  0008a	8d 4d c4	 lea	 ecx, DWORD PTR $T202450[ebp]
  0008d	ff 25 00 00 00
	00		 jmp	 DWORD PTR __imp_??1?$basic_string@DU?$char_traits@D@std@@V?$allocator@D@2@@std@@QAE@XZ
$L202462:
  00093	8d 4d a8	 lea	 ecx, DWORD PTR $T202451[ebp]
  00096	ff 25 00 00 00
	00		 jmp	 DWORD PTR __imp_??1?$basic_string@DU?$char_traits@D@std@@V?$allocator@D@2@@std@@QAE@XZ
$L202466:
  0009c	8b 4d 98	 mov	 ecx, DWORD PTR $T202455[ebp]
  0009f	ff 25 00 00 00
	00		 jmp	 DWORD PTR __imp_??1?$CStringT@DV?$StrTraitMFC_DLL@DV?$ChTraitsCRT@D@ATL@@@@@ATL@@QAE@XZ
$L202468:
  000a5	8b 4d 90	 mov	 ecx, DWORD PTR $T202457[ebp]
  000a8	ff 25 00 00 00
	00		 jmp	 DWORD PTR __imp_??1?$CStringT@DV?$StrTraitMFC_DLL@DV?$ChTraitsCRT@D@ATL@@@@@ATL@@QAE@XZ
$L202470:
  000ae	8d 8d 70 ff ff
	ff		 lea	 ecx, DWORD PTR $T202459[ebp]
  000b4	ff 25 00 00 00
	00		 jmp	 DWORD PTR __imp_??1?$basic_string@DU?$char_traits@D@std@@V?$allocator@D@2@@std@@QAE@XZ
$L202471:
  000ba	8d 8d 54 ff ff
	ff		 lea	 ecx, DWORD PTR $T202460[ebp]
  000c0	ff 25 00 00 00
	00		 jmp	 DWORD PTR __imp_??1?$basic_string@DU?$char_traits@D@std@@V?$allocator@D@2@@std@@QAE@XZ
__ehhandler$?OnCreate@WebGamePlayingWnd@@IAEHPAUtagCREATESTRUCTA@@@Z:
  000c6	b8 00 00 00 00	 mov	 eax, OFFSET FLAT:$T202473
  000cb	e9 00 00 00 00	 jmp	 ___CxxFrameHandler
text$x	ENDS
?OnCreate@WebGamePlayingWnd@@IAEHPAUtagCREATESTRUCTA@@@Z ENDP ; WebGamePlayingWnd::OnCreate
PUBLIC	?LoadSkin@WebGamePlayingWnd@@QAEXXZ		; WebGamePlayingWnd::LoadSkin
; Function compile flags: /Odt
_TEXT	SEGMENT
_this$ = -4						; size = 4
?LoadSkin@WebGamePlayingWnd@@QAEXXZ PROC NEAR		; WebGamePlayingWnd::LoadSkin
; _this$ = ecx

; 71   : {

  00630	55		 push	 ebp
  00631	8b ec		 mov	 ebp, esp
  00633	51		 push	 ecx
  00634	89 4d fc	 mov	 DWORD PTR _this$[ebp], ecx

; 72   : }

  00637	8b e5		 mov	 esp, ebp
  00639	5d		 pop	 ebp
  0063a	c3		 ret	 0
?LoadSkin@WebGamePlayingWnd@@QAEXXZ ENDP		; WebGamePlayingWnd::LoadSkin
_TEXT	ENDS
PUBLIC	??0CRect@@QAE@XZ				; CRect::CRect
PUBLIC	?IsRectEmpty@CRect@@QBEHXZ			; CRect::IsRectEmpty
PUBLIC	?GetParent@CWnd@@QBEPAV1@XZ			; CWnd::GetParent
PUBLIC	?Init@WebGamePlayingWnd@@QAEXXZ			; WebGamePlayingWnd::Init
EXTRN	?Init@MyWebBrowserWnd@@QAEXXZ:NEAR		; MyWebBrowserWnd::Init
xdata$x	SEGMENT
$T202493 DD	0ffffffffH
	DD	FLAT:$L202484
	DD	00H
	DD	FLAT:$L202485
	DD	0ffffffffH
	DD	FLAT:$L202486
	DD	0ffffffffH
	DD	FLAT:$L202487
	DD	0ffffffffH
	DD	FLAT:$L202488
	DD	04H
	DD	FLAT:$L202489
$T202491 DD	019930520H
	DD	06H
	DD	FLAT:$T202493
	DD	2 DUP(00H)
	DD	2 DUP(00H)
; Function compile flags: /Odt
xdata$x	ENDS
_TEXT	SEGMENT
tv151 = -184						; size = 4
tv146 = -180						; size = 4
tv193 = -176						; size = 4
tv66 = -172						; size = 4
tv87 = -168						; size = 4
tv82 = -164						; size = 4
tv189 = -160						; size = 4
tv72 = -156						; size = 4
_this$ = -152						; size = 4
$T202483 = -148						; size = 28
$T202482 = -120						; size = 28
$T202481 = -92						; size = 4
$T202480 = -88						; size = 4
$T202479 = -84						; size = 28
$T202478 = -56						; size = 28
_rc$ = -28						; size = 16
__$EHRec$ = -12						; size = 12
?Init@WebGamePlayingWnd@@QAEXXZ PROC NEAR		; WebGamePlayingWnd::Init
; _this$ = ecx

; 75   : {

  00640	55		 push	 ebp
  00641	8b ec		 mov	 ebp, esp
  00643	6a ff		 push	 -1
  00645	68 00 00 00 00	 push	 __ehhandler$?Init@WebGamePlayingWnd@@QAEXXZ
  0064a	64 a1 00 00 00
	00		 mov	 eax, DWORD PTR fs:__except_list
  00650	50		 push	 eax
  00651	64 89 25 00 00
	00 00		 mov	 DWORD PTR fs:__except_list, esp
  00658	81 ec ac 00 00
	00		 sub	 esp, 172		; 000000acH
  0065e	89 8d 68 ff ff
	ff		 mov	 DWORD PTR _this$[ebp], ecx

; 76   : 	YL_Log("WebGamePlayingWnd.txt", LOG_DEBUG, "WebGamePlayingWnd::Init", "===IN");

  00664	68 00 00 00 00	 push	 OFFSET FLAT:$SG201355
  00669	8d 4d c8	 lea	 ecx, DWORD PTR $T202478[ebp]
  0066c	ff 15 00 00 00
	00		 call	 DWORD PTR __imp_??0?$basic_string@DU?$char_traits@D@std@@V?$allocator@D@2@@std@@QAE@PBD@Z
  00672	c7 45 fc 00 00
	00 00		 mov	 DWORD PTR __$EHRec$[ebp+8], 0
  00679	68 00 00 00 00	 push	 OFFSET FLAT:$SG201356
  0067e	8d 4d ac	 lea	 ecx, DWORD PTR $T202479[ebp]
  00681	ff 15 00 00 00
	00		 call	 DWORD PTR __imp_??0?$basic_string@DU?$char_traits@D@std@@V?$allocator@D@2@@std@@QAE@PBD@Z
  00687	c6 45 fc 01	 mov	 BYTE PTR __$EHRec$[ebp+8], 1
  0068b	68 00 00 00 00	 push	 OFFSET FLAT:$SG201354
  00690	8d 45 c8	 lea	 eax, DWORD PTR $T202478[ebp]
  00693	50		 push	 eax
  00694	6a 00		 push	 0
  00696	8d 4d ac	 lea	 ecx, DWORD PTR $T202479[ebp]
  00699	51		 push	 ecx
  0069a	ff 15 00 00 00
	00		 call	 DWORD PTR __imp_?YL_Log@@YAXABV?$basic_string@DU?$char_traits@D@std@@V?$allocator@D@2@@std@@H0PBDZZ
  006a0	83 c4 10	 add	 esp, 16			; 00000010H
  006a3	c6 45 fc 00	 mov	 BYTE PTR __$EHRec$[ebp+8], 0
  006a7	8d 4d ac	 lea	 ecx, DWORD PTR $T202479[ebp]
  006aa	ff 15 00 00 00
	00		 call	 DWORD PTR __imp_??1?$basic_string@DU?$char_traits@D@std@@V?$allocator@D@2@@std@@QAE@XZ
  006b0	c7 45 fc ff ff
	ff ff		 mov	 DWORD PTR __$EHRec$[ebp+8], -1
  006b7	8d 4d c8	 lea	 ecx, DWORD PTR $T202478[ebp]
  006ba	ff 15 00 00 00
	00		 call	 DWORD PTR __imp_??1?$basic_string@DU?$char_traits@D@std@@V?$allocator@D@2@@std@@QAE@XZ

; 77   : 	m_pWndWebGame->Init();

  006c0	8b 95 68 ff ff
	ff		 mov	 edx, DWORD PTR _this$[ebp]
  006c6	8b 8a b4 00 00
	00		 mov	 ecx, DWORD PTR [edx+180]
  006cc	e8 00 00 00 00	 call	 ?Init@MyWebBrowserWnd@@QAEXXZ ; MyWebBrowserWnd::Init

; 78   : 	//
; 79   : 	CRect rc;

  006d1	8d 4d e4	 lea	 ecx, DWORD PTR _rc$[ebp]
  006d4	e8 00 00 00 00	 call	 ??0CRect@@QAE@XZ	; CRect::CRect

; 80   : 	AfxGetUIManager()->UIGetLayoutMgr()->GetPaneItemRect( GetParent(), "WebGameRight", rc );

  006d9	8d 45 e4	 lea	 eax, DWORD PTR _rc$[ebp]
  006dc	50		 push	 eax
  006dd	51		 push	 ecx
  006de	8b cc		 mov	 ecx, esp
  006e0	89 65 a8	 mov	 DWORD PTR $T202480[ebp], esp
  006e3	68 00 00 00 00	 push	 OFFSET FLAT:$SG201359
  006e8	ff 15 00 00 00
	00		 call	 DWORD PTR __imp_??0?$CStringT@DV?$StrTraitMFC_DLL@DV?$ChTraitsCRT@D@ATL@@@@@ATL@@QAE@PBD@Z
  006ee	89 85 64 ff ff
	ff		 mov	 DWORD PTR tv72[ebp], eax
  006f4	8b 8d 64 ff ff
	ff		 mov	 ecx, DWORD PTR tv72[ebp]
  006fa	89 8d 60 ff ff
	ff		 mov	 DWORD PTR tv189[ebp], ecx
  00700	c7 45 fc 02 00
	00 00		 mov	 DWORD PTR __$EHRec$[ebp+8], 2
  00707	e8 00 00 00 00	 call	 ?AfxGetUIManager@@YAPAVIUIManager@@XZ ; AfxGetUIManager
  0070c	89 85 5c ff ff
	ff		 mov	 DWORD PTR tv82[ebp], eax
  00712	8b 95 5c ff ff
	ff		 mov	 edx, DWORD PTR tv82[ebp]
  00718	8b 02		 mov	 eax, DWORD PTR [edx]
  0071a	8b 8d 5c ff ff
	ff		 mov	 ecx, DWORD PTR tv82[ebp]
  00720	ff 50 24	 call	 DWORD PTR [eax+36]
  00723	89 85 58 ff ff
	ff		 mov	 DWORD PTR tv87[ebp], eax
  00729	8b 8d 68 ff ff
	ff		 mov	 ecx, DWORD PTR _this$[ebp]
  0072f	e8 00 00 00 00	 call	 ?GetParent@CWnd@@QBEPAV1@XZ ; CWnd::GetParent
  00734	50		 push	 eax
  00735	8b 8d 58 ff ff
	ff		 mov	 ecx, DWORD PTR tv87[ebp]
  0073b	8b 11		 mov	 edx, DWORD PTR [ecx]
  0073d	c7 45 fc ff ff
	ff ff		 mov	 DWORD PTR __$EHRec$[ebp+8], -1
  00744	8b 8d 58 ff ff
	ff		 mov	 ecx, DWORD PTR tv87[ebp]
  0074a	ff 52 48	 call	 DWORD PTR [edx+72]

; 81   : 	if( rc.IsRectEmpty() )

  0074d	8d 4d e4	 lea	 ecx, DWORD PTR _rc$[ebp]
  00750	e8 00 00 00 00	 call	 ?IsRectEmpty@CRect@@QBEHXZ ; CRect::IsRectEmpty
  00755	85 c0		 test	 eax, eax
  00757	0f 84 99 00 00
	00		 je	 $L201360

; 82   : 	{
; 83   : 		rc.left = rc.right - WIDTH_RIGHT_WEB;

  0075d	8b 45 ec	 mov	 eax, DWORD PTR _rc$[ebp+8]
  00760	2d dc 00 00 00	 sub	 eax, 220		; 000000dcH
  00765	89 45 e4	 mov	 DWORD PTR _rc$[ebp], eax

; 84   : 		AfxGetUIManager()->UIGetLayoutMgr()->SetPaneSize( GetParent(), "WebGameRight", rc , false);

  00768	6a 00		 push	 0
  0076a	83 ec 10	 sub	 esp, 16			; 00000010H
  0076d	8b cc		 mov	 ecx, esp
  0076f	8b 55 e4	 mov	 edx, DWORD PTR _rc$[ebp]
  00772	89 11		 mov	 DWORD PTR [ecx], edx
  00774	8b 45 e8	 mov	 eax, DWORD PTR _rc$[ebp+4]
  00777	89 41 04	 mov	 DWORD PTR [ecx+4], eax
  0077a	8b 55 ec	 mov	 edx, DWORD PTR _rc$[ebp+8]
  0077d	89 51 08	 mov	 DWORD PTR [ecx+8], edx
  00780	8b 45 f0	 mov	 eax, DWORD PTR _rc$[ebp+12]
  00783	89 41 0c	 mov	 DWORD PTR [ecx+12], eax
  00786	51		 push	 ecx
  00787	8b cc		 mov	 ecx, esp
  00789	89 65 a4	 mov	 DWORD PTR $T202481[ebp], esp
  0078c	68 00 00 00 00	 push	 OFFSET FLAT:$SG201362
  00791	ff 15 00 00 00
	00		 call	 DWORD PTR __imp_??0?$CStringT@DV?$StrTraitMFC_DLL@DV?$ChTraitsCRT@D@ATL@@@@@ATL@@QAE@PBD@Z
  00797	89 85 54 ff ff
	ff		 mov	 DWORD PTR tv66[ebp], eax
  0079d	8b 8d 54 ff ff
	ff		 mov	 ecx, DWORD PTR tv66[ebp]
  007a3	89 8d 50 ff ff
	ff		 mov	 DWORD PTR tv193[ebp], ecx
  007a9	c7 45 fc 03 00
	00 00		 mov	 DWORD PTR __$EHRec$[ebp+8], 3
  007b0	e8 00 00 00 00	 call	 ?AfxGetUIManager@@YAPAVIUIManager@@XZ ; AfxGetUIManager
  007b5	89 85 4c ff ff
	ff		 mov	 DWORD PTR tv146[ebp], eax
  007bb	8b 95 4c ff ff
	ff		 mov	 edx, DWORD PTR tv146[ebp]
  007c1	8b 02		 mov	 eax, DWORD PTR [edx]
  007c3	8b 8d 4c ff ff
	ff		 mov	 ecx, DWORD PTR tv146[ebp]
  007c9	ff 50 24	 call	 DWORD PTR [eax+36]
  007cc	89 85 48 ff ff
	ff		 mov	 DWORD PTR tv151[ebp], eax
  007d2	8b 8d 68 ff ff
	ff		 mov	 ecx, DWORD PTR _this$[ebp]
  007d8	e8 00 00 00 00	 call	 ?GetParent@CWnd@@QBEPAV1@XZ ; CWnd::GetParent
  007dd	50		 push	 eax
  007de	8b 8d 48 ff ff
	ff		 mov	 ecx, DWORD PTR tv151[ebp]
  007e4	8b 11		 mov	 edx, DWORD PTR [ecx]
  007e6	c7 45 fc ff ff
	ff ff		 mov	 DWORD PTR __$EHRec$[ebp+8], -1
  007ed	8b 8d 48 ff ff
	ff		 mov	 ecx, DWORD PTR tv151[ebp]
  007f3	ff 52 4c	 call	 DWORD PTR [edx+76]
$L201360:

; 85   : 	}	
; 86   : 	YL_Log("WebGamePlayingWnd.txt", LOG_DEBUG, "WebGamePlayingWnd::Init", "===OUT");

  007f6	68 00 00 00 00	 push	 OFFSET FLAT:$SG201366
  007fb	8d 4d 88	 lea	 ecx, DWORD PTR $T202482[ebp]
  007fe	ff 15 00 00 00
	00		 call	 DWORD PTR __imp_??0?$basic_string@DU?$char_traits@D@std@@V?$allocator@D@2@@std@@QAE@PBD@Z
  00804	c7 45 fc 04 00
	00 00		 mov	 DWORD PTR __$EHRec$[ebp+8], 4
  0080b	68 00 00 00 00	 push	 OFFSET FLAT:$SG201367
  00810	8d 8d 6c ff ff
	ff		 lea	 ecx, DWORD PTR $T202483[ebp]
  00816	ff 15 00 00 00
	00		 call	 DWORD PTR __imp_??0?$basic_string@DU?$char_traits@D@std@@V?$allocator@D@2@@std@@QAE@PBD@Z
  0081c	c6 45 fc 05	 mov	 BYTE PTR __$EHRec$[ebp+8], 5
  00820	68 00 00 00 00	 push	 OFFSET FLAT:$SG201365
  00825	8d 45 88	 lea	 eax, DWORD PTR $T202482[ebp]
  00828	50		 push	 eax
  00829	6a 00		 push	 0
  0082b	8d 8d 6c ff ff
	ff		 lea	 ecx, DWORD PTR $T202483[ebp]
  00831	51		 push	 ecx
  00832	ff 15 00 00 00
	00		 call	 DWORD PTR __imp_?YL_Log@@YAXABV?$basic_string@DU?$char_traits@D@std@@V?$allocator@D@2@@std@@H0PBDZZ
  00838	83 c4 10	 add	 esp, 16			; 00000010H
  0083b	c6 45 fc 04	 mov	 BYTE PTR __$EHRec$[ebp+8], 4
  0083f	8d 8d 6c ff ff
	ff		 lea	 ecx, DWORD PTR $T202483[ebp]
  00845	ff 15 00 00 00
	00		 call	 DWORD PTR __imp_??1?$basic_string@DU?$char_traits@D@std@@V?$allocator@D@2@@std@@QAE@XZ
  0084b	c7 45 fc ff ff
	ff ff		 mov	 DWORD PTR __$EHRec$[ebp+8], -1
  00852	8d 4d 88	 lea	 ecx, DWORD PTR $T202482[ebp]
  00855	ff 15 00 00 00
	00		 call	 DWORD PTR __imp_??1?$basic_string@DU?$char_traits@D@std@@V?$allocator@D@2@@std@@QAE@XZ

; 87   : }

  0085b	8b 4d f4	 mov	 ecx, DWORD PTR __$EHRec$[ebp]
  0085e	64 89 0d 00 00
	00 00		 mov	 DWORD PTR fs:__except_list, ecx
  00865	8b e5		 mov	 esp, ebp
  00867	5d		 pop	 ebp
  00868	c3		 ret	 0
_TEXT	ENDS
text$x	SEGMENT
$L202484:
  000d0	8d 4d c8	 lea	 ecx, DWORD PTR $T202478[ebp]
  000d3	ff 25 00 00 00
	00		 jmp	 DWORD PTR __imp_??1?$basic_string@DU?$char_traits@D@std@@V?$allocator@D@2@@std@@QAE@XZ
$L202485:
  000d9	8d 4d ac	 lea	 ecx, DWORD PTR $T202479[ebp]
  000dc	ff 25 00 00 00
	00		 jmp	 DWORD PTR __imp_??1?$basic_string@DU?$char_traits@D@std@@V?$allocator@D@2@@std@@QAE@XZ
$L202486:
  000e2	8b 4d a8	 mov	 ecx, DWORD PTR $T202480[ebp]
  000e5	ff 25 00 00 00
	00		 jmp	 DWORD PTR __imp_??1?$CStringT@DV?$StrTraitMFC_DLL@DV?$ChTraitsCRT@D@ATL@@@@@ATL@@QAE@XZ
$L202487:
  000eb	8b 4d a4	 mov	 ecx, DWORD PTR $T202481[ebp]
  000ee	ff 25 00 00 00
	00		 jmp	 DWORD PTR __imp_??1?$CStringT@DV?$StrTraitMFC_DLL@DV?$ChTraitsCRT@D@ATL@@@@@ATL@@QAE@XZ
$L202488:
  000f4	8d 4d 88	 lea	 ecx, DWORD PTR $T202482[ebp]
  000f7	ff 25 00 00 00
	00		 jmp	 DWORD PTR __imp_??1?$basic_string@DU?$char_traits@D@std@@V?$allocator@D@2@@std@@QAE@XZ
$L202489:
  000fd	8d 8d 6c ff ff
	ff		 lea	 ecx, DWORD PTR $T202483[ebp]
  00103	ff 25 00 00 00
	00		 jmp	 DWORD PTR __imp_??1?$basic_string@DU?$char_traits@D@std@@V?$allocator@D@2@@std@@QAE@XZ
__ehhandler$?Init@WebGamePlayingWnd@@QAEXXZ:
  00109	b8 00 00 00 00	 mov	 eax, OFFSET FLAT:$T202491
  0010e	e9 00 00 00 00	 jmp	 ___CxxFrameHandler
text$x	ENDS
?Init@WebGamePlayingWnd@@QAEXXZ ENDP			; WebGamePlayingWnd::Init
PUBLIC	?SetGameEntry@WebGamePlayingWnd@@QAEXUWEB_GAME@@@Z ; WebGamePlayingWnd::SetGameEntry
PUBLIC	??4WEB_GAME@@QAEAAU0@ABU0@@Z			; WEB_GAME::operator=
EXTRN	?Navigate@MyWebBrowserWnd@@QAEXV?$basic_string@DU?$char_traits@D@std@@V?$allocator@D@2@@std@@@Z:NEAR ; MyWebBrowserWnd::Navigate
EXTRN	__imp_??0?$basic_string@DU?$char_traits@D@std@@V?$allocator@D@2@@std@@QAE@ABV01@@Z:NEAR
xdata$x	SEGMENT
$T202509 DD	0ffffffffH
	DD	FLAT:$L202500
	DD	00H
	DD	FLAT:$L202501
	DD	01H
	DD	FLAT:$L202502
	DD	00H
	DD	FLAT:$L202504
	DD	03H
	DD	FLAT:$L202505
$T202507 DD	019930520H
	DD	05H
	DD	FLAT:$T202509
	DD	2 DUP(00H)
	DD	2 DUP(00H)
; Function compile flags: /Odt
xdata$x	ENDS
_TEXT	SEGMENT
tv148 = -136						; size = 4
_this$ = -132						; size = 4
$T202499 = -128						; size = 28
$T202498 = -100						; size = 28
$T202497 = -72						; size = 4
$T202496 = -68						; size = 28
$T202495 = -40						; size = 28
__$EHRec$ = -12						; size = 12
_wg$ = 8						; size = 84
?SetGameEntry@WebGamePlayingWnd@@QAEXUWEB_GAME@@@Z PROC NEAR ; WebGamePlayingWnd::SetGameEntry
; _this$ = ecx

; 90   : {

  00870	55		 push	 ebp
  00871	8b ec		 mov	 ebp, esp
  00873	6a ff		 push	 -1
  00875	68 00 00 00 00	 push	 __ehhandler$?SetGameEntry@WebGamePlayingWnd@@QAEXUWEB_GAME@@@Z
  0087a	64 a1 00 00 00
	00		 mov	 eax, DWORD PTR fs:__except_list
  00880	50		 push	 eax
  00881	64 89 25 00 00
	00 00		 mov	 DWORD PTR fs:__except_list, esp
  00888	83 ec 7c	 sub	 esp, 124		; 0000007cH
  0088b	89 8d 7c ff ff
	ff		 mov	 DWORD PTR _this$[ebp], ecx
  00891	c7 45 fc 00 00
	00 00		 mov	 DWORD PTR __$EHRec$[ebp+8], 0

; 91   : 	YL_Log("WebGamePlayingWnd.txt", LOG_DEBUG, "WebGamePlayingWnd::SetGameEntry", "===IN");

  00898	68 00 00 00 00	 push	 OFFSET FLAT:$SG201375
  0089d	8d 4d d8	 lea	 ecx, DWORD PTR $T202495[ebp]
  008a0	ff 15 00 00 00
	00		 call	 DWORD PTR __imp_??0?$basic_string@DU?$char_traits@D@std@@V?$allocator@D@2@@std@@QAE@PBD@Z
  008a6	c6 45 fc 01	 mov	 BYTE PTR __$EHRec$[ebp+8], 1
  008aa	68 00 00 00 00	 push	 OFFSET FLAT:$SG201376
  008af	8d 4d bc	 lea	 ecx, DWORD PTR $T202496[ebp]
  008b2	ff 15 00 00 00
	00		 call	 DWORD PTR __imp_??0?$basic_string@DU?$char_traits@D@std@@V?$allocator@D@2@@std@@QAE@PBD@Z
  008b8	c6 45 fc 02	 mov	 BYTE PTR __$EHRec$[ebp+8], 2
  008bc	68 00 00 00 00	 push	 OFFSET FLAT:$SG201374
  008c1	8d 45 d8	 lea	 eax, DWORD PTR $T202495[ebp]
  008c4	50		 push	 eax
  008c5	6a 00		 push	 0
  008c7	8d 4d bc	 lea	 ecx, DWORD PTR $T202496[ebp]
  008ca	51		 push	 ecx
  008cb	ff 15 00 00 00
	00		 call	 DWORD PTR __imp_?YL_Log@@YAXABV?$basic_string@DU?$char_traits@D@std@@V?$allocator@D@2@@std@@H0PBDZZ
  008d1	83 c4 10	 add	 esp, 16			; 00000010H
  008d4	c6 45 fc 01	 mov	 BYTE PTR __$EHRec$[ebp+8], 1
  008d8	8d 4d bc	 lea	 ecx, DWORD PTR $T202496[ebp]
  008db	ff 15 00 00 00
	00		 call	 DWORD PTR __imp_??1?$basic_string@DU?$char_traits@D@std@@V?$allocator@D@2@@std@@QAE@XZ
  008e1	c6 45 fc 00	 mov	 BYTE PTR __$EHRec$[ebp+8], 0
  008e5	8d 4d d8	 lea	 ecx, DWORD PTR $T202495[ebp]
  008e8	ff 15 00 00 00
	00		 call	 DWORD PTR __imp_??1?$basic_string@DU?$char_traits@D@std@@V?$allocator@D@2@@std@@QAE@XZ

; 92   : 
; 93   : 	m_webGame = wg;

  008ee	8d 55 08	 lea	 edx, DWORD PTR _wg$[ebp]
  008f1	52		 push	 edx
  008f2	8b 8d 7c ff ff
	ff		 mov	 ecx, DWORD PTR _this$[ebp]
  008f8	83 c1 58	 add	 ecx, 88			; 00000058H
  008fb	e8 00 00 00 00	 call	 ??4WEB_GAME@@QAEAAU0@ABU0@@Z

; 94   : 	m_pWndWebGame->Navigate( m_webGame.strGameUrl );

  00900	8b 85 7c ff ff
	ff		 mov	 eax, DWORD PTR _this$[ebp]
  00906	05 90 00 00 00	 add	 eax, 144		; 00000090H
  0090b	83 ec 1c	 sub	 esp, 28			; 0000001cH
  0090e	8b cc		 mov	 ecx, esp
  00910	89 65 b8	 mov	 DWORD PTR $T202497[ebp], esp
  00913	50		 push	 eax
  00914	ff 15 00 00 00
	00		 call	 DWORD PTR __imp_??0?$basic_string@DU?$char_traits@D@std@@V?$allocator@D@2@@std@@QAE@ABV01@@Z
  0091a	89 85 78 ff ff
	ff		 mov	 DWORD PTR tv148[ebp], eax
  00920	8b 8d 7c ff ff
	ff		 mov	 ecx, DWORD PTR _this$[ebp]
  00926	8b 89 b4 00 00
	00		 mov	 ecx, DWORD PTR [ecx+180]
  0092c	e8 00 00 00 00	 call	 ?Navigate@MyWebBrowserWnd@@QAEXV?$basic_string@DU?$char_traits@D@std@@V?$allocator@D@2@@std@@@Z ; MyWebBrowserWnd::Navigate

; 95   : 	UpdateAllWnd();

  00931	8b 8d 7c ff ff
	ff		 mov	 ecx, DWORD PTR _this$[ebp]
  00937	e8 00 00 00 00	 call	 ?UpdateAllWnd@WebGamePlayingWnd@@AAEXXZ ; WebGamePlayingWnd::UpdateAllWnd

; 96   : 	YL_Log("WebGamePlayingWnd.txt", LOG_DEBUG, "WebGamePlayingWnd::SetGameEntry", "===OUT");

  0093c	68 00 00 00 00	 push	 OFFSET FLAT:$SG201381
  00941	8d 4d 9c	 lea	 ecx, DWORD PTR $T202498[ebp]
  00944	ff 15 00 00 00
	00		 call	 DWORD PTR __imp_??0?$basic_string@DU?$char_traits@D@std@@V?$allocator@D@2@@std@@QAE@PBD@Z
  0094a	c6 45 fc 03	 mov	 BYTE PTR __$EHRec$[ebp+8], 3
  0094e	68 00 00 00 00	 push	 OFFSET FLAT:$SG201382
  00953	8d 4d 80	 lea	 ecx, DWORD PTR $T202499[ebp]
  00956	ff 15 00 00 00
	00		 call	 DWORD PTR __imp_??0?$basic_string@DU?$char_traits@D@std@@V?$allocator@D@2@@std@@QAE@PBD@Z
  0095c	c6 45 fc 04	 mov	 BYTE PTR __$EHRec$[ebp+8], 4
  00960	68 00 00 00 00	 push	 OFFSET FLAT:$SG201380
  00965	8d 55 9c	 lea	 edx, DWORD PTR $T202498[ebp]
  00968	52		 push	 edx
  00969	6a 00		 push	 0
  0096b	8d 45 80	 lea	 eax, DWORD PTR $T202499[ebp]
  0096e	50		 push	 eax
  0096f	ff 15 00 00 00
	00		 call	 DWORD PTR __imp_?YL_Log@@YAXABV?$basic_string@DU?$char_traits@D@std@@V?$allocator@D@2@@std@@H0PBDZZ
  00975	83 c4 10	 add	 esp, 16			; 00000010H
  00978	c6 45 fc 03	 mov	 BYTE PTR __$EHRec$[ebp+8], 3
  0097c	8d 4d 80	 lea	 ecx, DWORD PTR $T202499[ebp]
  0097f	ff 15 00 00 00
	00		 call	 DWORD PTR __imp_??1?$basic_string@DU?$char_traits@D@std@@V?$allocator@D@2@@std@@QAE@XZ
  00985	c6 45 fc 00	 mov	 BYTE PTR __$EHRec$[ebp+8], 0
  00989	8d 4d 9c	 lea	 ecx, DWORD PTR $T202498[ebp]
  0098c	ff 15 00 00 00
	00		 call	 DWORD PTR __imp_??1?$basic_string@DU?$char_traits@D@std@@V?$allocator@D@2@@std@@QAE@XZ

; 97   : }

  00992	c7 45 fc ff ff
	ff ff		 mov	 DWORD PTR __$EHRec$[ebp+8], -1
  00999	8d 4d 08	 lea	 ecx, DWORD PTR _wg$[ebp]
  0099c	e8 00 00 00 00	 call	 ??1WEB_GAME@@QAE@XZ
  009a1	8b 4d f4	 mov	 ecx, DWORD PTR __$EHRec$[ebp]
  009a4	64 89 0d 00 00
	00 00		 mov	 DWORD PTR fs:__except_list, ecx
  009ab	8b e5		 mov	 esp, ebp
  009ad	5d		 pop	 ebp
  009ae	c2 54 00	 ret	 84			; 00000054H
_TEXT	ENDS
text$x	SEGMENT
$L202500:
  00113	8d 4d 08	 lea	 ecx, DWORD PTR _wg$[ebp]
  00116	e9 00 00 00 00	 jmp	 ??1WEB_GAME@@QAE@XZ
$L202501:
  0011b	8d 4d d8	 lea	 ecx, DWORD PTR $T202495[ebp]
  0011e	ff 25 00 00 00
	00		 jmp	 DWORD PTR __imp_??1?$basic_string@DU?$char_traits@D@std@@V?$allocator@D@2@@std@@QAE@XZ
$L202502:
  00124	8d 4d bc	 lea	 ecx, DWORD PTR $T202496[ebp]
  00127	ff 25 00 00 00
	00		 jmp	 DWORD PTR __imp_??1?$basic_string@DU?$char_traits@D@std@@V?$allocator@D@2@@std@@QAE@XZ
$L202504:
  0012d	8d 4d 9c	 lea	 ecx, DWORD PTR $T202498[ebp]
  00130	ff 25 00 00 00
	00		 jmp	 DWORD PTR __imp_??1?$basic_string@DU?$char_traits@D@std@@V?$allocator@D@2@@std@@QAE@XZ
$L202505:
  00136	8d 4d 80	 lea	 ecx, DWORD PTR $T202499[ebp]
  00139	ff 25 00 00 00
	00		 jmp	 DWORD PTR __imp_??1?$basic_string@DU?$char_traits@D@std@@V?$allocator@D@2@@std@@QAE@XZ
__ehhandler$?SetGameEntry@WebGamePlayingWnd@@QAEXUWEB_GAME@@@Z:
  0013f	b8 00 00 00 00	 mov	 eax, OFFSET FLAT:$T202507
  00144	e9 00 00 00 00	 jmp	 ___CxxFrameHandler
text$x	ENDS
?SetGameEntry@WebGamePlayingWnd@@QAEXUWEB_GAME@@@Z ENDP	; WebGamePlayingWnd::SetGameEntry
EXTRN	__imp_??4?$basic_string@DU?$char_traits@D@std@@V?$allocator@D@2@@std@@QAEAAV01@ABV01@@Z:NEAR
; Function compile flags: /Odt
;	COMDAT ??4WEB_GAME@@QAEAAU0@ABU0@@Z
_TEXT	SEGMENT
_this$ = -4						; size = 4
___that$ = 8						; size = 4
??4WEB_GAME@@QAEAAU0@ABU0@@Z PROC NEAR			; WEB_GAME::operator=, COMDAT
; _this$ = ecx
  00000	55		 push	 ebp
  00001	8b ec		 mov	 ebp, esp
  00003	51		 push	 ecx
  00004	89 4d fc	 mov	 DWORD PTR _this$[ebp], ecx
  00007	8b 45 08	 mov	 eax, DWORD PTR ___that$[ebp]
  0000a	50		 push	 eax
  0000b	8b 4d fc	 mov	 ecx, DWORD PTR _this$[ebp]
  0000e	ff 15 00 00 00
	00		 call	 DWORD PTR __imp_??4?$basic_string@DU?$char_traits@D@std@@V?$allocator@D@2@@std@@QAEAAV01@ABV01@@Z
  00014	8b 4d 08	 mov	 ecx, DWORD PTR ___that$[ebp]
  00017	83 c1 1c	 add	 ecx, 28			; 0000001cH
  0001a	51		 push	 ecx
  0001b	8b 4d fc	 mov	 ecx, DWORD PTR _this$[ebp]
  0001e	83 c1 1c	 add	 ecx, 28			; 0000001cH
  00021	ff 15 00 00 00
	00		 call	 DWORD PTR __imp_??4?$basic_string@DU?$char_traits@D@std@@V?$allocator@D@2@@std@@QAEAAV01@ABV01@@Z
  00027	8b 55 08	 mov	 edx, DWORD PTR ___that$[ebp]
  0002a	83 c2 38	 add	 edx, 56			; 00000038H
  0002d	52		 push	 edx
  0002e	8b 4d fc	 mov	 ecx, DWORD PTR _this$[ebp]
  00031	83 c1 38	 add	 ecx, 56			; 00000038H
  00034	ff 15 00 00 00
	00		 call	 DWORD PTR __imp_??4?$basic_string@DU?$char_traits@D@std@@V?$allocator@D@2@@std@@QAEAAV01@ABV01@@Z
  0003a	8b 45 fc	 mov	 eax, DWORD PTR _this$[ebp]
  0003d	8b e5		 mov	 esp, ebp
  0003f	5d		 pop	 ebp
  00040	c2 04 00	 ret	 4
??4WEB_GAME@@QAEAAU0@ABU0@@Z ENDP			; WEB_GAME::operator=
_TEXT	ENDS
EXTRN	?SetFocus@CWnd@@QAEPAV1@XZ:NEAR			; CWnd::SetFocus
EXTRN	?AfxGetDataManager2@@YAPAVIDataManager@@XZ:NEAR	; AfxGetDataManager2
xdata$x	SEGMENT
$T202524 DD	0ffffffffH
	DD	FLAT:$L202517
	DD	00H
	DD	FLAT:$L202518
	DD	0ffffffffH
	DD	FLAT:$L202519
	DD	02H
	DD	FLAT:$L202520
$T202522 DD	019930520H
	DD	04H
	DD	FLAT:$T202524
	DD	2 DUP(00H)
	DD	2 DUP(00H)
; Function compile flags: /Odt
xdata$x	ENDS
_TEXT	SEGMENT
tv144 = -152						; size = 4
tv138 = -148						; size = 4
tv133 = -144						; size = 4
tv95 = -140						; size = 4
tv87 = -136						; size = 4
tv81 = -132						; size = 4
_this$ = -128						; size = 4
$T202516 = -124						; size = 28
$T202515 = -96						; size = 28
$T202514 = -68						; size = 28
$T202513 = -40						; size = 28
__$EHRec$ = -12						; size = 12
?OnClickedFullScreen@WebGamePlayingWnd@@IAEXXZ PROC NEAR ; WebGamePlayingWnd::OnClickedFullScreen
; _this$ = ecx

; 100  : {

  009c0	55		 push	 ebp
  009c1	8b ec		 mov	 ebp, esp
  009c3	6a ff		 push	 -1
  009c5	68 00 00 00 00	 push	 __ehhandler$?OnClickedFullScreen@WebGamePlayingWnd@@IAEXXZ
  009ca	64 a1 00 00 00
	00		 mov	 eax, DWORD PTR fs:__except_list
  009d0	50		 push	 eax
  009d1	64 89 25 00 00
	00 00		 mov	 DWORD PTR fs:__except_list, esp
  009d8	81 ec 8c 00 00
	00		 sub	 esp, 140		; 0000008cH
  009de	89 4d 80	 mov	 DWORD PTR _this$[ebp], ecx

; 101  : 	YL_Log("WebGamePlayingWnd.txt", LOG_DEBUG, "WebGamePlayingWnd::OnClickedFullScreen", "===IN");

  009e1	68 00 00 00 00	 push	 OFFSET FLAT:$SG201392
  009e6	8d 4d d8	 lea	 ecx, DWORD PTR $T202513[ebp]
  009e9	ff 15 00 00 00
	00		 call	 DWORD PTR __imp_??0?$basic_string@DU?$char_traits@D@std@@V?$allocator@D@2@@std@@QAE@PBD@Z
  009ef	c7 45 fc 00 00
	00 00		 mov	 DWORD PTR __$EHRec$[ebp+8], 0
  009f6	68 00 00 00 00	 push	 OFFSET FLAT:$SG201393
  009fb	8d 4d bc	 lea	 ecx, DWORD PTR $T202514[ebp]
  009fe	ff 15 00 00 00
	00		 call	 DWORD PTR __imp_??0?$basic_string@DU?$char_traits@D@std@@V?$allocator@D@2@@std@@QAE@PBD@Z
  00a04	c6 45 fc 01	 mov	 BYTE PTR __$EHRec$[ebp+8], 1
  00a08	68 00 00 00 00	 push	 OFFSET FLAT:$SG201391
  00a0d	8d 45 d8	 lea	 eax, DWORD PTR $T202513[ebp]
  00a10	50		 push	 eax
  00a11	6a 00		 push	 0
  00a13	8d 4d bc	 lea	 ecx, DWORD PTR $T202514[ebp]
  00a16	51		 push	 ecx
  00a17	ff 15 00 00 00
	00		 call	 DWORD PTR __imp_?YL_Log@@YAXABV?$basic_string@DU?$char_traits@D@std@@V?$allocator@D@2@@std@@H0PBDZZ
  00a1d	83 c4 10	 add	 esp, 16			; 00000010H
  00a20	c6 45 fc 00	 mov	 BYTE PTR __$EHRec$[ebp+8], 0
  00a24	8d 4d bc	 lea	 ecx, DWORD PTR $T202514[ebp]
  00a27	ff 15 00 00 00
	00		 call	 DWORD PTR __imp_??1?$basic_string@DU?$char_traits@D@std@@V?$allocator@D@2@@std@@QAE@XZ
  00a2d	c7 45 fc ff ff
	ff ff		 mov	 DWORD PTR __$EHRec$[ebp+8], -1
  00a34	8d 4d d8	 lea	 ecx, DWORD PTR $T202513[ebp]
  00a37	ff 15 00 00 00
	00		 call	 DWORD PTR __imp_??1?$basic_string@DU?$char_traits@D@std@@V?$allocator@D@2@@std@@QAE@XZ

; 102  : 	m_pWndWebGame->SetFocus();

  00a3d	8b 55 80	 mov	 edx, DWORD PTR _this$[ebp]
  00a40	8b 8a b4 00 00
	00		 mov	 ecx, DWORD PTR [edx+180]
  00a46	e8 00 00 00 00	 call	 ?SetFocus@CWnd@@QAEPAV1@XZ ; CWnd::SetFocus

; 103  : 	
; 104  : 	if( GLOBAL_PANELCHANGEDATA->IPanelChange_IsFullScreen() )

  00a4b	e8 00 00 00 00	 call	 ?AfxGetDataManager2@@YAPAVIDataManager@@XZ ; AfxGetDataManager2
  00a50	89 85 7c ff ff
	ff		 mov	 DWORD PTR tv81[ebp], eax
  00a56	68 00 00 00 00	 push	 OFFSET FLAT:_ID_DATA_PANELCHANGE
  00a5b	8b 85 7c ff ff
	ff		 mov	 eax, DWORD PTR tv81[ebp]
  00a61	8b 10		 mov	 edx, DWORD PTR [eax]
  00a63	8b 8d 7c ff ff
	ff		 mov	 ecx, DWORD PTR tv81[ebp]
  00a69	ff 52 0c	 call	 DWORD PTR [edx+12]
  00a6c	89 85 78 ff ff
	ff		 mov	 DWORD PTR tv87[ebp], eax
  00a72	8b 85 78 ff ff
	ff		 mov	 eax, DWORD PTR tv87[ebp]
  00a78	8b 10		 mov	 edx, DWORD PTR [eax]
  00a7a	8b 8d 78 ff ff
	ff		 mov	 ecx, DWORD PTR tv87[ebp]
  00a80	ff 52 14	 call	 DWORD PTR [edx+20]
  00a83	0f b6 c0	 movzx	 eax, al
  00a86	85 c0		 test	 eax, eax
  00a88	74 3a		 je	 SHORT $L201395

; 105  : 	{
; 106  : 		GLOBAL_PANELCHANGEDATA->IPanelChange_ExitFullScreen();

  00a8a	e8 00 00 00 00	 call	 ?AfxGetDataManager2@@YAPAVIDataManager@@XZ ; AfxGetDataManager2
  00a8f	89 85 74 ff ff
	ff		 mov	 DWORD PTR tv95[ebp], eax
  00a95	68 00 00 00 00	 push	 OFFSET FLAT:_ID_DATA_PANELCHANGE
  00a9a	8b 8d 74 ff ff
	ff		 mov	 ecx, DWORD PTR tv95[ebp]
  00aa0	8b 11		 mov	 edx, DWORD PTR [ecx]
  00aa2	8b 8d 74 ff ff
	ff		 mov	 ecx, DWORD PTR tv95[ebp]
  00aa8	ff 52 0c	 call	 DWORD PTR [edx+12]
  00aab	89 85 70 ff ff
	ff		 mov	 DWORD PTR tv133[ebp], eax
  00ab1	8b 85 70 ff ff
	ff		 mov	 eax, DWORD PTR tv133[ebp]
  00ab7	8b 10		 mov	 edx, DWORD PTR [eax]
  00ab9	8b 8d 70 ff ff
	ff		 mov	 ecx, DWORD PTR tv133[ebp]
  00abf	ff 52 10	 call	 DWORD PTR [edx+16]

; 107  : 	}else

  00ac2	eb 41		 jmp	 SHORT $L201397
$L201395:

; 108  : 	{
; 109  : 		GLOBAL_PANELCHANGEDATA->IPanelChange_ToFullScreen( GetParent() );

  00ac4	e8 00 00 00 00	 call	 ?AfxGetDataManager2@@YAPAVIDataManager@@XZ ; AfxGetDataManager2
  00ac9	89 85 6c ff ff
	ff		 mov	 DWORD PTR tv138[ebp], eax
  00acf	68 00 00 00 00	 push	 OFFSET FLAT:_ID_DATA_PANELCHANGE
  00ad4	8b 85 6c ff ff
	ff		 mov	 eax, DWORD PTR tv138[ebp]
  00ada	8b 10		 mov	 edx, DWORD PTR [eax]
  00adc	8b 8d 6c ff ff
	ff		 mov	 ecx, DWORD PTR tv138[ebp]
  00ae2	ff 52 0c	 call	 DWORD PTR [edx+12]
  00ae5	89 85 68 ff ff
	ff		 mov	 DWORD PTR tv144[ebp], eax
  00aeb	8b 4d 80	 mov	 ecx, DWORD PTR _this$[ebp]
  00aee	e8 00 00 00 00	 call	 ?GetParent@CWnd@@QBEPAV1@XZ ; CWnd::GetParent
  00af3	50		 push	 eax
  00af4	8b 85 68 ff ff
	ff		 mov	 eax, DWORD PTR tv144[ebp]
  00afa	8b 10		 mov	 edx, DWORD PTR [eax]
  00afc	8b 8d 68 ff ff
	ff		 mov	 ecx, DWORD PTR tv144[ebp]
  00b02	ff 52 0c	 call	 DWORD PTR [edx+12]
$L201397:

; 110  : 	}	
; 111  : 	YL_Log("WebGamePlayingWnd.txt", LOG_DEBUG, "WebGamePlayingWnd::OnClickedFullScreen", "===OUT");

  00b05	68 00 00 00 00	 push	 OFFSET FLAT:$SG201402
  00b0a	8d 4d a0	 lea	 ecx, DWORD PTR $T202515[ebp]
  00b0d	ff 15 00 00 00
	00		 call	 DWORD PTR __imp_??0?$basic_string@DU?$char_traits@D@std@@V?$allocator@D@2@@std@@QAE@PBD@Z
  00b13	c7 45 fc 02 00
	00 00		 mov	 DWORD PTR __$EHRec$[ebp+8], 2
  00b1a	68 00 00 00 00	 push	 OFFSET FLAT:$SG201403
  00b1f	8d 4d 84	 lea	 ecx, DWORD PTR $T202516[ebp]
  00b22	ff 15 00 00 00
	00		 call	 DWORD PTR __imp_??0?$basic_string@DU?$char_traits@D@std@@V?$allocator@D@2@@std@@QAE@PBD@Z
  00b28	c6 45 fc 03	 mov	 BYTE PTR __$EHRec$[ebp+8], 3
  00b2c	68 00 00 00 00	 push	 OFFSET FLAT:$SG201401
  00b31	8d 45 a0	 lea	 eax, DWORD PTR $T202515[ebp]
  00b34	50		 push	 eax
  00b35	6a 00		 push	 0
  00b37	8d 4d 84	 lea	 ecx, DWORD PTR $T202516[ebp]
  00b3a	51		 push	 ecx
  00b3b	ff 15 00 00 00
	00		 call	 DWORD PTR __imp_?YL_Log@@YAXABV?$basic_string@DU?$char_traits@D@std@@V?$allocator@D@2@@std@@H0PBDZZ
  00b41	83 c4 10	 add	 esp, 16			; 00000010H
  00b44	c6 45 fc 02	 mov	 BYTE PTR __$EHRec$[ebp+8], 2
  00b48	8d 4d 84	 lea	 ecx, DWORD PTR $T202516[ebp]
  00b4b	ff 15 00 00 00
	00		 call	 DWORD PTR __imp_??1?$basic_string@DU?$char_traits@D@std@@V?$allocator@D@2@@std@@QAE@XZ
  00b51	c7 45 fc ff ff
	ff ff		 mov	 DWORD PTR __$EHRec$[ebp+8], -1
  00b58	8d 4d a0	 lea	 ecx, DWORD PTR $T202515[ebp]
  00b5b	ff 15 00 00 00
	00		 call	 DWORD PTR __imp_??1?$basic_string@DU?$char_traits@D@std@@V?$allocator@D@2@@std@@QAE@XZ

; 112  : }

  00b61	8b 4d f4	 mov	 ecx, DWORD PTR __$EHRec$[ebp]
  00b64	64 89 0d 00 00
	00 00		 mov	 DWORD PTR fs:__except_list, ecx
  00b6b	8b e5		 mov	 esp, ebp
  00b6d	5d		 pop	 ebp
  00b6e	c3		 ret	 0
_TEXT	ENDS
text$x	SEGMENT
$L202517:
  00149	8d 4d d8	 lea	 ecx, DWORD PTR $T202513[ebp]
  0014c	ff 25 00 00 00
	00		 jmp	 DWORD PTR __imp_??1?$basic_string@DU?$char_traits@D@std@@V?$allocator@D@2@@std@@QAE@XZ
$L202518:
  00152	8d 4d bc	 lea	 ecx, DWORD PTR $T202514[ebp]
  00155	ff 25 00 00 00
	00		 jmp	 DWORD PTR __imp_??1?$basic_string@DU?$char_traits@D@std@@V?$allocator@D@2@@std@@QAE@XZ
$L202519:
  0015b	8d 4d a0	 lea	 ecx, DWORD PTR $T202515[ebp]
  0015e	ff 25 00 00 00
	00		 jmp	 DWORD PTR __imp_??1?$basic_string@DU?$char_traits@D@std@@V?$allocator@D@2@@std@@QAE@XZ
$L202520:
  00164	8d 4d 84	 lea	 ecx, DWORD PTR $T202516[ebp]
  00167	ff 25 00 00 00
	00		 jmp	 DWORD PTR __imp_??1?$basic_string@DU?$char_traits@D@std@@V?$allocator@D@2@@std@@QAE@XZ
__ehhandler$?OnClickedFullScreen@WebGamePlayingWnd@@IAEXXZ:
  0016d	b8 00 00 00 00	 mov	 eax, OFFSET FLAT:$T202522
  00172	e9 00 00 00 00	 jmp	 ___CxxFrameHandler
text$x	ENDS
?OnClickedFullScreen@WebGamePlayingWnd@@IAEXXZ ENDP	; WebGamePlayingWnd::OnClickedFullScreen
EXTRN	?OnDestroy@CWnd@@IAEXXZ:NEAR			; CWnd::OnDestroy
xdata$x	SEGMENT
$T202537 DD	0ffffffffH
	DD	FLAT:$L202530
	DD	00H
	DD	FLAT:$L202531
	DD	0ffffffffH
	DD	FLAT:$L202532
	DD	02H
	DD	FLAT:$L202533
$T202535 DD	019930520H
	DD	04H
	DD	FLAT:$T202537
	DD	2 DUP(00H)
	DD	2 DUP(00H)
; Function compile flags: /Odt
xdata$x	ENDS
_TEXT	SEGMENT
_this$ = -128						; size = 4
$T202529 = -124						; size = 28
$T202528 = -96						; size = 28
$T202527 = -68						; size = 28
$T202526 = -40						; size = 28
__$EHRec$ = -12						; size = 12
?OnDestroy@WebGamePlayingWnd@@IAEXXZ PROC NEAR		; WebGamePlayingWnd::OnDestroy
; _this$ = ecx

; 115  : {

  00b70	55		 push	 ebp
  00b71	8b ec		 mov	 ebp, esp
  00b73	6a ff		 push	 -1
  00b75	68 00 00 00 00	 push	 __ehhandler$?OnDestroy@WebGamePlayingWnd@@IAEXXZ
  00b7a	64 a1 00 00 00
	00		 mov	 eax, DWORD PTR fs:__except_list
  00b80	50		 push	 eax
  00b81	64 89 25 00 00
	00 00		 mov	 DWORD PTR fs:__except_list, esp
  00b88	83 ec 74	 sub	 esp, 116		; 00000074H
  00b8b	89 4d 80	 mov	 DWORD PTR _this$[ebp], ecx

; 116  : 	YL_Log("WebGamePlayingWnd.txt", LOG_DEBUG, "WebGamePlayingWnd::OnDestroy", "===IN");

  00b8e	68 00 00 00 00	 push	 OFFSET FLAT:$SG201410
  00b93	8d 4d d8	 lea	 ecx, DWORD PTR $T202526[ebp]
  00b96	ff 15 00 00 00
	00		 call	 DWORD PTR __imp_??0?$basic_string@DU?$char_traits@D@std@@V?$allocator@D@2@@std@@QAE@PBD@Z
  00b9c	c7 45 fc 00 00
	00 00		 mov	 DWORD PTR __$EHRec$[ebp+8], 0
  00ba3	68 00 00 00 00	 push	 OFFSET FLAT:$SG201411
  00ba8	8d 4d bc	 lea	 ecx, DWORD PTR $T202527[ebp]
  00bab	ff 15 00 00 00
	00		 call	 DWORD PTR __imp_??0?$basic_string@DU?$char_traits@D@std@@V?$allocator@D@2@@std@@QAE@PBD@Z
  00bb1	c6 45 fc 01	 mov	 BYTE PTR __$EHRec$[ebp+8], 1
  00bb5	68 00 00 00 00	 push	 OFFSET FLAT:$SG201409
  00bba	8d 45 d8	 lea	 eax, DWORD PTR $T202526[ebp]
  00bbd	50		 push	 eax
  00bbe	6a 00		 push	 0
  00bc0	8d 4d bc	 lea	 ecx, DWORD PTR $T202527[ebp]
  00bc3	51		 push	 ecx
  00bc4	ff 15 00 00 00
	00		 call	 DWORD PTR __imp_?YL_Log@@YAXABV?$basic_string@DU?$char_traits@D@std@@V?$allocator@D@2@@std@@H0PBDZZ
  00bca	83 c4 10	 add	 esp, 16			; 00000010H
  00bcd	c6 45 fc 00	 mov	 BYTE PTR __$EHRec$[ebp+8], 0
  00bd1	8d 4d bc	 lea	 ecx, DWORD PTR $T202527[ebp]
  00bd4	ff 15 00 00 00
	00		 call	 DWORD PTR __imp_??1?$basic_string@DU?$char_traits@D@std@@V?$allocator@D@2@@std@@QAE@XZ
  00bda	c7 45 fc ff ff
	ff ff		 mov	 DWORD PTR __$EHRec$[ebp+8], -1
  00be1	8d 4d d8	 lea	 ecx, DWORD PTR $T202526[ebp]
  00be4	ff 15 00 00 00
	00		 call	 DWORD PTR __imp_??1?$basic_string@DU?$char_traits@D@std@@V?$allocator@D@2@@std@@QAE@XZ

; 117  : 	m_pWndWebGame->DestroyWindow();

  00bea	8b 55 80	 mov	 edx, DWORD PTR _this$[ebp]
  00bed	8b 82 b4 00 00
	00		 mov	 eax, DWORD PTR [edx+180]
  00bf3	8b 4d 80	 mov	 ecx, DWORD PTR _this$[ebp]
  00bf6	8b 89 b4 00 00
	00		 mov	 ecx, DWORD PTR [ecx+180]
  00bfc	8b 10		 mov	 edx, DWORD PTR [eax]
  00bfe	ff 52 68	 call	 DWORD PTR [edx+104]

; 118  : 	__super::OnDestroy();

  00c01	8b 4d 80	 mov	 ecx, DWORD PTR _this$[ebp]
  00c04	e8 00 00 00 00	 call	 ?OnDestroy@CWnd@@IAEXXZ	; CWnd::OnDestroy

; 119  : 	YL_Log("WebGamePlayingWnd.txt", LOG_DEBUG, "WebGamePlayingWnd::OnDestroy", "===OUT");

  00c09	68 00 00 00 00	 push	 OFFSET FLAT:$SG201415
  00c0e	8d 4d a0	 lea	 ecx, DWORD PTR $T202528[ebp]
  00c11	ff 15 00 00 00
	00		 call	 DWORD PTR __imp_??0?$basic_string@DU?$char_traits@D@std@@V?$allocator@D@2@@std@@QAE@PBD@Z
  00c17	c7 45 fc 02 00
	00 00		 mov	 DWORD PTR __$EHRec$[ebp+8], 2
  00c1e	68 00 00 00 00	 push	 OFFSET FLAT:$SG201416
  00c23	8d 4d 84	 lea	 ecx, DWORD PTR $T202529[ebp]
  00c26	ff 15 00 00 00
	00		 call	 DWORD PTR __imp_??0?$basic_string@DU?$char_traits@D@std@@V?$allocator@D@2@@std@@QAE@PBD@Z
  00c2c	c6 45 fc 03	 mov	 BYTE PTR __$EHRec$[ebp+8], 3
  00c30	68 00 00 00 00	 push	 OFFSET FLAT:$SG201414
  00c35	8d 45 a0	 lea	 eax, DWORD PTR $T202528[ebp]
  00c38	50		 push	 eax
  00c39	6a 00		 push	 0
  00c3b	8d 4d 84	 lea	 ecx, DWORD PTR $T202529[ebp]
  00c3e	51		 push	 ecx
  00c3f	ff 15 00 00 00
	00		 call	 DWORD PTR __imp_?YL_Log@@YAXABV?$basic_string@DU?$char_traits@D@std@@V?$allocator@D@2@@std@@H0PBDZZ
  00c45	83 c4 10	 add	 esp, 16			; 00000010H
  00c48	c6 45 fc 02	 mov	 BYTE PTR __$EHRec$[ebp+8], 2
  00c4c	8d 4d 84	 lea	 ecx, DWORD PTR $T202529[ebp]
  00c4f	ff 15 00 00 00
	00		 call	 DWORD PTR __imp_??1?$basic_string@DU?$char_traits@D@std@@V?$allocator@D@2@@std@@QAE@XZ
  00c55	c7 45 fc ff ff
	ff ff		 mov	 DWORD PTR __$EHRec$[ebp+8], -1
  00c5c	8d 4d a0	 lea	 ecx, DWORD PTR $T202528[ebp]
  00c5f	ff 15 00 00 00
	00		 call	 DWORD PTR __imp_??1?$basic_string@DU?$char_traits@D@std@@V?$allocator@D@2@@std@@QAE@XZ

; 120  : }

  00c65	8b 4d f4	 mov	 ecx, DWORD PTR __$EHRec$[ebp]
  00c68	64 89 0d 00 00
	00 00		 mov	 DWORD PTR fs:__except_list, ecx
  00c6f	8b e5		 mov	 esp, ebp
  00c71	5d		 pop	 ebp
  00c72	c3		 ret	 0
_TEXT	ENDS
text$x	SEGMENT
$L202530:
  00177	8d 4d d8	 lea	 ecx, DWORD PTR $T202526[ebp]
  0017a	ff 25 00 00 00
	00		 jmp	 DWORD PTR __imp_??1?$basic_string@DU?$char_traits@D@std@@V?$allocator@D@2@@std@@QAE@XZ
$L202531:
  00180	8d 4d bc	 lea	 ecx, DWORD PTR $T202527[ebp]
  00183	ff 25 00 00 00
	00		 jmp	 DWORD PTR __imp_??1?$basic_string@DU?$char_traits@D@std@@V?$allocator@D@2@@std@@QAE@XZ
$L202532:
  00189	8d 4d a0	 lea	 ecx, DWORD PTR $T202528[ebp]
  0018c	ff 25 00 00 00
	00		 jmp	 DWORD PTR __imp_??1?$basic_string@DU?$char_traits@D@std@@V?$allocator@D@2@@std@@QAE@XZ
$L202533:
  00192	8d 4d 84	 lea	 ecx, DWORD PTR $T202529[ebp]
  00195	ff 25 00 00 00
	00		 jmp	 DWORD PTR __imp_??1?$basic_string@DU?$char_traits@D@std@@V?$allocator@D@2@@std@@QAE@XZ
__ehhandler$?OnDestroy@WebGamePlayingWnd@@IAEXXZ:
  0019b	b8 00 00 00 00	 mov	 eax, OFFSET FLAT:$T202535
  001a0	e9 00 00 00 00	 jmp	 ___CxxFrameHandler
text$x	ENDS
?OnDestroy@WebGamePlayingWnd@@IAEXXZ ENDP		; WebGamePlayingWnd::OnDestroy
PUBLIC	?GetSafeHwnd@CWnd@@QBEPAUHWND__@@XZ		; CWnd::GetSafeHwnd
xdata$x	SEGMENT
$T202546 DD	0ffffffffH
	DD	FLAT:$L202541
	DD	0ffffffffH
	DD	FLAT:$L202542
$T202544 DD	019930520H
	DD	02H
	DD	FLAT:$T202546
	DD	2 DUP(00H)
	DD	2 DUP(00H)
; Function compile flags: /Odt
xdata$x	ENDS
_TEXT	SEGMENT
tv165 = -80						; size = 4
tv160 = -76						; size = 4
tv136 = -72						; size = 4
tv131 = -68						; size = 4
tv180 = -64						; size = 4
tv182 = -60						; size = 4
tv72 = -56						; size = 4
tv67 = -52						; size = 4
tv176 = -48						; size = 4
tv181 = -44						; size = 4
_this$ = -40						; size = 4
$T202540 = -36						; size = 4
$T202539 = -32						; size = 4
_rc$ = -28						; size = 16
__$EHRec$ = -12						; size = 12
?OnClickedGameRight@WebGamePlayingWnd@@IAEXXZ PROC NEAR	; WebGamePlayingWnd::OnClickedGameRight
; _this$ = ecx

; 123  : {

  00c80	55		 push	 ebp
  00c81	8b ec		 mov	 ebp, esp
  00c83	6a ff		 push	 -1
  00c85	68 00 00 00 00	 push	 __ehhandler$?OnClickedGameRight@WebGamePlayingWnd@@IAEXXZ
  00c8a	64 a1 00 00 00
	00		 mov	 eax, DWORD PTR fs:__except_list
  00c90	50		 push	 eax
  00c91	64 89 25 00 00
	00 00		 mov	 DWORD PTR fs:__except_list, esp
  00c98	83 ec 44	 sub	 esp, 68			; 00000044H
  00c9b	89 4d d8	 mov	 DWORD PTR _this$[ebp], ecx

; 124  : 	CRect rc;

  00c9e	8d 4d e4	 lea	 ecx, DWORD PTR _rc$[ebp]
  00ca1	e8 00 00 00 00	 call	 ??0CRect@@QAE@XZ	; CRect::CRect

; 125  : 	AfxGetUIManager()->UIGetLayoutMgr()->GetPaneItemRect( GetParent(), "WebGameRight", rc );

  00ca6	8d 45 e4	 lea	 eax, DWORD PTR _rc$[ebp]
  00ca9	50		 push	 eax
  00caa	51		 push	 ecx
  00cab	8b cc		 mov	 ecx, esp
  00cad	89 65 e0	 mov	 DWORD PTR $T202539[ebp], esp
  00cb0	68 00 00 00 00	 push	 OFFSET FLAT:$SG201422
  00cb5	ff 15 00 00 00
	00		 call	 DWORD PTR __imp_??0?$CStringT@DV?$StrTraitMFC_DLL@DV?$ChTraitsCRT@D@ATL@@@@@ATL@@QAE@PBD@Z
  00cbb	89 45 d4	 mov	 DWORD PTR tv181[ebp], eax
  00cbe	8b 4d d4	 mov	 ecx, DWORD PTR tv181[ebp]
  00cc1	89 4d d0	 mov	 DWORD PTR tv176[ebp], ecx
  00cc4	c7 45 fc 00 00
	00 00		 mov	 DWORD PTR __$EHRec$[ebp+8], 0
  00ccb	e8 00 00 00 00	 call	 ?AfxGetUIManager@@YAPAVIUIManager@@XZ ; AfxGetUIManager
  00cd0	89 45 cc	 mov	 DWORD PTR tv67[ebp], eax
  00cd3	8b 55 cc	 mov	 edx, DWORD PTR tv67[ebp]
  00cd6	8b 02		 mov	 eax, DWORD PTR [edx]
  00cd8	8b 4d cc	 mov	 ecx, DWORD PTR tv67[ebp]
  00cdb	ff 50 24	 call	 DWORD PTR [eax+36]
  00cde	89 45 c8	 mov	 DWORD PTR tv72[ebp], eax
  00ce1	8b 4d d8	 mov	 ecx, DWORD PTR _this$[ebp]
  00ce4	e8 00 00 00 00	 call	 ?GetParent@CWnd@@QBEPAV1@XZ ; CWnd::GetParent
  00ce9	50		 push	 eax
  00cea	8b 4d c8	 mov	 ecx, DWORD PTR tv72[ebp]
  00ced	8b 11		 mov	 edx, DWORD PTR [ecx]
  00cef	c7 45 fc ff ff
	ff ff		 mov	 DWORD PTR __$EHRec$[ebp+8], -1
  00cf6	8b 4d c8	 mov	 ecx, DWORD PTR tv72[ebp]
  00cf9	ff 52 48	 call	 DWORD PTR [edx+72]

; 126  : 	if( !rc.IsRectEmpty() )

  00cfc	8d 4d e4	 lea	 ecx, DWORD PTR _rc$[ebp]
  00cff	e8 00 00 00 00	 call	 ?IsRectEmpty@CRect@@QBEHXZ ; CRect::IsRectEmpty
  00d04	85 c0		 test	 eax, eax
  00d06	75 08		 jne	 SHORT $L201423

; 127  : 	{
; 128  : 		rc.left = rc.right;

  00d08	8b 45 ec	 mov	 eax, DWORD PTR _rc$[ebp+8]
  00d0b	89 45 e4	 mov	 DWORD PTR _rc$[ebp], eax

; 129  : 	}else

  00d0e	eb 0c		 jmp	 SHORT $L201424
$L201423:

; 130  : 	{
; 131  : 		rc.left = rc.right - WIDTH_RIGHT_WEB;

  00d10	8b 4d ec	 mov	 ecx, DWORD PTR _rc$[ebp+8]
  00d13	81 e9 dc 00 00
	00		 sub	 ecx, 220		; 000000dcH
  00d19	89 4d e4	 mov	 DWORD PTR _rc$[ebp], ecx
$L201424:

; 132  : 	}
; 133  : 	AfxGetUIManager()->UIGetLayoutMgr()->SetPaneSize( GetParent(), "WebGameRight", rc , false);

  00d1c	6a 00		 push	 0
  00d1e	83 ec 10	 sub	 esp, 16			; 00000010H
  00d21	8b d4		 mov	 edx, esp
  00d23	8b 45 e4	 mov	 eax, DWORD PTR _rc$[ebp]
  00d26	89 02		 mov	 DWORD PTR [edx], eax
  00d28	8b 4d e8	 mov	 ecx, DWORD PTR _rc$[ebp+4]
  00d2b	89 4a 04	 mov	 DWORD PTR [edx+4], ecx
  00d2e	8b 45 ec	 mov	 eax, DWORD PTR _rc$[ebp+8]
  00d31	89 42 08	 mov	 DWORD PTR [edx+8], eax
  00d34	8b 4d f0	 mov	 ecx, DWORD PTR _rc$[ebp+12]
  00d37	89 4a 0c	 mov	 DWORD PTR [edx+12], ecx
  00d3a	51		 push	 ecx
  00d3b	8b cc		 mov	 ecx, esp
  00d3d	89 65 dc	 mov	 DWORD PTR $T202540[ebp], esp
  00d40	68 00 00 00 00	 push	 OFFSET FLAT:$SG201426
  00d45	ff 15 00 00 00
	00		 call	 DWORD PTR __imp_??0?$CStringT@DV?$StrTraitMFC_DLL@DV?$ChTraitsCRT@D@ATL@@@@@ATL@@QAE@PBD@Z
  00d4b	89 45 c4	 mov	 DWORD PTR tv182[ebp], eax
  00d4e	8b 55 c4	 mov	 edx, DWORD PTR tv182[ebp]
  00d51	89 55 c0	 mov	 DWORD PTR tv180[ebp], edx
  00d54	c7 45 fc 01 00
	00 00		 mov	 DWORD PTR __$EHRec$[ebp+8], 1
  00d5b	e8 00 00 00 00	 call	 ?AfxGetUIManager@@YAPAVIUIManager@@XZ ; AfxGetUIManager
  00d60	89 45 bc	 mov	 DWORD PTR tv131[ebp], eax
  00d63	8b 45 bc	 mov	 eax, DWORD PTR tv131[ebp]
  00d66	8b 10		 mov	 edx, DWORD PTR [eax]
  00d68	8b 4d bc	 mov	 ecx, DWORD PTR tv131[ebp]
  00d6b	ff 52 24	 call	 DWORD PTR [edx+36]
  00d6e	89 45 b8	 mov	 DWORD PTR tv136[ebp], eax
  00d71	8b 4d d8	 mov	 ecx, DWORD PTR _this$[ebp]
  00d74	e8 00 00 00 00	 call	 ?GetParent@CWnd@@QBEPAV1@XZ ; CWnd::GetParent
  00d79	50		 push	 eax
  00d7a	8b 45 b8	 mov	 eax, DWORD PTR tv136[ebp]
  00d7d	8b 10		 mov	 edx, DWORD PTR [eax]
  00d7f	c7 45 fc ff ff
	ff ff		 mov	 DWORD PTR __$EHRec$[ebp+8], -1
  00d86	8b 4d b8	 mov	 ecx, DWORD PTR tv136[ebp]
  00d89	ff 52 4c	 call	 DWORD PTR [edx+76]

; 134  : 	AfxGetUIManager()->UIGetLayoutMgr()->UpdateLayout( GetParent()->GetSafeHwnd() );

  00d8c	e8 00 00 00 00	 call	 ?AfxGetUIManager@@YAPAVIUIManager@@XZ ; AfxGetUIManager
  00d91	89 45 b4	 mov	 DWORD PTR tv160[ebp], eax
  00d94	8b 45 b4	 mov	 eax, DWORD PTR tv160[ebp]
  00d97	8b 10		 mov	 edx, DWORD PTR [eax]
  00d99	8b 4d b4	 mov	 ecx, DWORD PTR tv160[ebp]
  00d9c	ff 52 24	 call	 DWORD PTR [edx+36]
  00d9f	89 45 b0	 mov	 DWORD PTR tv165[ebp], eax
  00da2	8b 4d d8	 mov	 ecx, DWORD PTR _this$[ebp]
  00da5	e8 00 00 00 00	 call	 ?GetParent@CWnd@@QBEPAV1@XZ ; CWnd::GetParent
  00daa	8b c8		 mov	 ecx, eax
  00dac	e8 00 00 00 00	 call	 ?GetSafeHwnd@CWnd@@QBEPAUHWND__@@XZ ; CWnd::GetSafeHwnd
  00db1	50		 push	 eax
  00db2	8b 45 b0	 mov	 eax, DWORD PTR tv165[ebp]
  00db5	8b 10		 mov	 edx, DWORD PTR [eax]
  00db7	8b 4d b0	 mov	 ecx, DWORD PTR tv165[ebp]
  00dba	ff 52 14	 call	 DWORD PTR [edx+20]

; 135  : 	UpdateAllWnd();

  00dbd	8b 4d d8	 mov	 ecx, DWORD PTR _this$[ebp]
  00dc0	e8 00 00 00 00	 call	 ?UpdateAllWnd@WebGamePlayingWnd@@AAEXXZ ; WebGamePlayingWnd::UpdateAllWnd

; 136  : }

  00dc5	8b 4d f4	 mov	 ecx, DWORD PTR __$EHRec$[ebp]
  00dc8	64 89 0d 00 00
	00 00		 mov	 DWORD PTR fs:__except_list, ecx
  00dcf	8b e5		 mov	 esp, ebp
  00dd1	5d		 pop	 ebp
  00dd2	c3		 ret	 0
_TEXT	ENDS
text$x	SEGMENT
$L202541:
  001a5	8b 4d e0	 mov	 ecx, DWORD PTR $T202539[ebp]
  001a8	ff 25 00 00 00
	00		 jmp	 DWORD PTR __imp_??1?$CStringT@DV?$StrTraitMFC_DLL@DV?$ChTraitsCRT@D@ATL@@@@@ATL@@QAE@XZ
$L202542:
  001ae	8b 4d dc	 mov	 ecx, DWORD PTR $T202540[ebp]
  001b1	ff 25 00 00 00
	00		 jmp	 DWORD PTR __imp_??1?$CStringT@DV?$StrTraitMFC_DLL@DV?$ChTraitsCRT@D@ATL@@@@@ATL@@QAE@XZ
__ehhandler$?OnClickedGameRight@WebGamePlayingWnd@@IAEXXZ:
  001b7	b8 00 00 00 00	 mov	 eax, OFFSET FLAT:$T202544
  001bc	e9 00 00 00 00	 jmp	 ___CxxFrameHandler
text$x	ENDS
?OnClickedGameRight@WebGamePlayingWnd@@IAEXXZ ENDP	; WebGamePlayingWnd::OnClickedGameRight
PUBLIC	?SetCheck@CButton@@QAEXH@Z			; CButton::SetCheck
EXTRN	?SetWindowTextA@CWnd@@QAEXPBD@Z:NEAR		; CWnd::SetWindowTextA
xdata$x	SEGMENT
$T202561 DD	0ffffffffH
	DD	FLAT:$L202553
	DD	00H
	DD	FLAT:$L202554
	DD	0ffffffffH
	DD	FLAT:$L202555
	DD	0ffffffffH
	DD	FLAT:$L202556
	DD	03H
	DD	FLAT:$L202557
$T202559 DD	019930520H
	DD	05H
	DD	FLAT:$T202561
	DD	2 DUP(00H)
	DD	2 DUP(00H)
; Function compile flags: /Odt
xdata$x	ENDS
_TEXT	SEGMENT
tv138 = -172						; size = 4
tv133 = -168						; size = 4
tv194 = -164						; size = 4
tv72 = -160						; size = 4
tv84 = -156						; size = 4
tv78 = -152						; size = 4
_this$ = -148						; size = 4
$T202552 = -144						; size = 28
$T202551 = -116						; size = 28
$T202550 = -88						; size = 4
$T202549 = -84						; size = 28
$T202548 = -56						; size = 28
_rc$ = -28						; size = 16
__$EHRec$ = -12						; size = 12
?UpdateAllWnd@WebGamePlayingWnd@@AAEXXZ PROC NEAR	; WebGamePlayingWnd::UpdateAllWnd
; _this$ = ecx

; 139  : {

  00de0	55		 push	 ebp
  00de1	8b ec		 mov	 ebp, esp
  00de3	6a ff		 push	 -1
  00de5	68 00 00 00 00	 push	 __ehhandler$?UpdateAllWnd@WebGamePlayingWnd@@AAEXXZ
  00dea	64 a1 00 00 00
	00		 mov	 eax, DWORD PTR fs:__except_list
  00df0	50		 push	 eax
  00df1	64 89 25 00 00
	00 00		 mov	 DWORD PTR fs:__except_list, esp
  00df8	81 ec a0 00 00
	00		 sub	 esp, 160		; 000000a0H
  00dfe	89 8d 6c ff ff
	ff		 mov	 DWORD PTR _this$[ebp], ecx

; 140  : 	YL_Log("WebGamePlayingWnd.txt", LOG_DEBUG, "WebGamePlayingWnd::UpdateAllWnd", "===IN");

  00e04	68 00 00 00 00	 push	 OFFSET FLAT:$SG201433
  00e09	8d 4d c8	 lea	 ecx, DWORD PTR $T202548[ebp]
  00e0c	ff 15 00 00 00
	00		 call	 DWORD PTR __imp_??0?$basic_string@DU?$char_traits@D@std@@V?$allocator@D@2@@std@@QAE@PBD@Z
  00e12	c7 45 fc 00 00
	00 00		 mov	 DWORD PTR __$EHRec$[ebp+8], 0
  00e19	68 00 00 00 00	 push	 OFFSET FLAT:$SG201434
  00e1e	8d 4d ac	 lea	 ecx, DWORD PTR $T202549[ebp]
  00e21	ff 15 00 00 00
	00		 call	 DWORD PTR __imp_??0?$basic_string@DU?$char_traits@D@std@@V?$allocator@D@2@@std@@QAE@PBD@Z
  00e27	c6 45 fc 01	 mov	 BYTE PTR __$EHRec$[ebp+8], 1
  00e2b	68 00 00 00 00	 push	 OFFSET FLAT:$SG201432
  00e30	8d 45 c8	 lea	 eax, DWORD PTR $T202548[ebp]
  00e33	50		 push	 eax
  00e34	6a 00		 push	 0
  00e36	8d 4d ac	 lea	 ecx, DWORD PTR $T202549[ebp]
  00e39	51		 push	 ecx
  00e3a	ff 15 00 00 00
	00		 call	 DWORD PTR __imp_?YL_Log@@YAXABV?$basic_string@DU?$char_traits@D@std@@V?$allocator@D@2@@std@@H0PBDZZ
  00e40	83 c4 10	 add	 esp, 16			; 00000010H
  00e43	c6 45 fc 00	 mov	 BYTE PTR __$EHRec$[ebp+8], 0
  00e47	8d 4d ac	 lea	 ecx, DWORD PTR $T202549[ebp]
  00e4a	ff 15 00 00 00
	00		 call	 DWORD PTR __imp_??1?$basic_string@DU?$char_traits@D@std@@V?$allocator@D@2@@std@@QAE@XZ
  00e50	c7 45 fc ff ff
	ff ff		 mov	 DWORD PTR __$EHRec$[ebp+8], -1
  00e57	8d 4d c8	 lea	 ecx, DWORD PTR $T202548[ebp]
  00e5a	ff 15 00 00 00
	00		 call	 DWORD PTR __imp_??1?$basic_string@DU?$char_traits@D@std@@V?$allocator@D@2@@std@@QAE@XZ

; 141  : 
; 142  : 	//
; 143  : 	if( GLOBAL_PANELCHANGEDATA->IPanelChange_IsFullScreen() )

  00e60	e8 00 00 00 00	 call	 ?AfxGetDataManager2@@YAPAVIDataManager@@XZ ; AfxGetDataManager2
  00e65	89 85 68 ff ff
	ff		 mov	 DWORD PTR tv78[ebp], eax
  00e6b	68 00 00 00 00	 push	 OFFSET FLAT:_ID_DATA_PANELCHANGE
  00e70	8b 95 68 ff ff
	ff		 mov	 edx, DWORD PTR tv78[ebp]
  00e76	8b 02		 mov	 eax, DWORD PTR [edx]
  00e78	8b 8d 68 ff ff
	ff		 mov	 ecx, DWORD PTR tv78[ebp]
  00e7e	ff 50 0c	 call	 DWORD PTR [eax+12]
  00e81	89 85 64 ff ff
	ff		 mov	 DWORD PTR tv84[ebp], eax
  00e87	8b 8d 64 ff ff
	ff		 mov	 ecx, DWORD PTR tv84[ebp]
  00e8d	8b 11		 mov	 edx, DWORD PTR [ecx]
  00e8f	8b 8d 64 ff ff
	ff		 mov	 ecx, DWORD PTR tv84[ebp]
  00e95	ff 52 14	 call	 DWORD PTR [edx+20]
  00e98	0f b6 c0	 movzx	 eax, al
  00e9b	85 c0		 test	 eax, eax
  00e9d	74 18		 je	 SHORT $L201436

; 144  : 	{
; 145  : 		m_pBtnFullScreen->SetWindowText( TEXT_EXIT_FULLSCREEN );

  00e9f	68 00 00 00 00	 push	 OFFSET FLAT:$SG201437
  00ea4	8b 8d 6c ff ff
	ff		 mov	 ecx, DWORD PTR _this$[ebp]
  00eaa	8b 89 ac 00 00
	00		 mov	 ecx, DWORD PTR [ecx+172]
  00eb0	e8 00 00 00 00	 call	 ?SetWindowTextA@CWnd@@QAEXPBD@Z ; CWnd::SetWindowTextA

; 146  : 	}else

  00eb5	eb 16		 jmp	 SHORT $L201438
$L201436:

; 147  : 	{
; 148  : 		m_pBtnFullScreen->SetWindowText( TEXT_TO_FULLSCREEN );

  00eb7	68 00 00 00 00	 push	 OFFSET FLAT:$SG201439
  00ebc	8b 95 6c ff ff
	ff		 mov	 edx, DWORD PTR _this$[ebp]
  00ec2	8b 8a ac 00 00
	00		 mov	 ecx, DWORD PTR [edx+172]
  00ec8	e8 00 00 00 00	 call	 ?SetWindowTextA@CWnd@@QAEXPBD@Z ; CWnd::SetWindowTextA
$L201438:

; 149  : 	}
; 150  : 	//
; 151  : 	CRect rc;

  00ecd	8d 4d e4	 lea	 ecx, DWORD PTR _rc$[ebp]
  00ed0	e8 00 00 00 00	 call	 ??0CRect@@QAE@XZ	; CRect::CRect

; 152  : 	AfxGetUIManager()->UIGetLayoutMgr()->GetPaneItemRect( GetParent(), "WebGameRight", rc );

  00ed5	8d 45 e4	 lea	 eax, DWORD PTR _rc$[ebp]
  00ed8	50		 push	 eax
  00ed9	51		 push	 ecx
  00eda	8b cc		 mov	 ecx, esp
  00edc	89 65 a8	 mov	 DWORD PTR $T202550[ebp], esp
  00edf	68 00 00 00 00	 push	 OFFSET FLAT:$SG201442
  00ee4	ff 15 00 00 00
	00		 call	 DWORD PTR __imp_??0?$CStringT@DV?$StrTraitMFC_DLL@DV?$ChTraitsCRT@D@ATL@@@@@ATL@@QAE@PBD@Z
  00eea	89 85 60 ff ff
	ff		 mov	 DWORD PTR tv72[ebp], eax
  00ef0	8b 8d 60 ff ff
	ff		 mov	 ecx, DWORD PTR tv72[ebp]
  00ef6	89 8d 5c ff ff
	ff		 mov	 DWORD PTR tv194[ebp], ecx
  00efc	c7 45 fc 02 00
	00 00		 mov	 DWORD PTR __$EHRec$[ebp+8], 2
  00f03	e8 00 00 00 00	 call	 ?AfxGetUIManager@@YAPAVIUIManager@@XZ ; AfxGetUIManager
  00f08	89 85 58 ff ff
	ff		 mov	 DWORD PTR tv133[ebp], eax
  00f0e	8b 95 58 ff ff
	ff		 mov	 edx, DWORD PTR tv133[ebp]
  00f14	8b 02		 mov	 eax, DWORD PTR [edx]
  00f16	8b 8d 58 ff ff
	ff		 mov	 ecx, DWORD PTR tv133[ebp]
  00f1c	ff 50 24	 call	 DWORD PTR [eax+36]
  00f1f	89 85 54 ff ff
	ff		 mov	 DWORD PTR tv138[ebp], eax
  00f25	8b 8d 6c ff ff
	ff		 mov	 ecx, DWORD PTR _this$[ebp]
  00f2b	e8 00 00 00 00	 call	 ?GetParent@CWnd@@QBEPAV1@XZ ; CWnd::GetParent
  00f30	50		 push	 eax
  00f31	8b 8d 54 ff ff
	ff		 mov	 ecx, DWORD PTR tv138[ebp]
  00f37	8b 11		 mov	 edx, DWORD PTR [ecx]
  00f39	c7 45 fc ff ff
	ff ff		 mov	 DWORD PTR __$EHRec$[ebp+8], -1
  00f40	8b 8d 54 ff ff
	ff		 mov	 ecx, DWORD PTR tv138[ebp]
  00f46	ff 52 48	 call	 DWORD PTR [edx+72]

; 153  : 	if( !rc.IsRectEmpty() )

  00f49	8d 4d e4	 lea	 ecx, DWORD PTR _rc$[ebp]
  00f4c	e8 00 00 00 00	 call	 ?IsRectEmpty@CRect@@QBEHXZ ; CRect::IsRectEmpty
  00f51	85 c0		 test	 eax, eax
  00f53	75 2b		 jne	 SHORT $L201443

; 154  : 	{
; 155  : 		m_pBtnGameRight->SetWindowText( TEXT_CLOSE_INFO );

  00f55	68 00 00 00 00	 push	 OFFSET FLAT:$SG201444
  00f5a	8b 85 6c ff ff
	ff		 mov	 eax, DWORD PTR _this$[ebp]
  00f60	8b 88 b0 00 00
	00		 mov	 ecx, DWORD PTR [eax+176]
  00f66	e8 00 00 00 00	 call	 ?SetWindowTextA@CWnd@@QAEXPBD@Z ; CWnd::SetWindowTextA

; 156  : 		m_pBtnGameRight->SetCheck( 1 );

  00f6b	6a 01		 push	 1
  00f6d	8b 8d 6c ff ff
	ff		 mov	 ecx, DWORD PTR _this$[ebp]
  00f73	8b 89 b0 00 00
	00		 mov	 ecx, DWORD PTR [ecx+176]
  00f79	e8 00 00 00 00	 call	 ?SetCheck@CButton@@QAEXH@Z ; CButton::SetCheck

; 157  : 	}else

  00f7e	eb 29		 jmp	 SHORT $L201445
$L201443:

; 158  : 	{
; 159  : 		m_pBtnGameRight->SetWindowText( TEXT_OPEN_INFO );

  00f80	68 00 00 00 00	 push	 OFFSET FLAT:$SG201446
  00f85	8b 95 6c ff ff
	ff		 mov	 edx, DWORD PTR _this$[ebp]
  00f8b	8b 8a b0 00 00
	00		 mov	 ecx, DWORD PTR [edx+176]
  00f91	e8 00 00 00 00	 call	 ?SetWindowTextA@CWnd@@QAEXPBD@Z ; CWnd::SetWindowTextA

; 160  : 		m_pBtnGameRight->SetCheck( 0 );

  00f96	6a 00		 push	 0
  00f98	8b 85 6c ff ff
	ff		 mov	 eax, DWORD PTR _this$[ebp]
  00f9e	8b 88 b0 00 00
	00		 mov	 ecx, DWORD PTR [eax+176]
  00fa4	e8 00 00 00 00	 call	 ?SetCheck@CButton@@QAEXH@Z ; CButton::SetCheck
$L201445:

; 161  : 	}
; 162  : 
; 163  : 	YL_Log("WebGamePlayingWnd.txt", LOG_DEBUG, "WebGamePlayingWnd::UpdateAllWnd", "===OUT");

  00fa9	68 00 00 00 00	 push	 OFFSET FLAT:$SG201450
  00fae	8d 4d 8c	 lea	 ecx, DWORD PTR $T202551[ebp]
  00fb1	ff 15 00 00 00
	00		 call	 DWORD PTR __imp_??0?$basic_string@DU?$char_traits@D@std@@V?$allocator@D@2@@std@@QAE@PBD@Z
  00fb7	c7 45 fc 03 00
	00 00		 mov	 DWORD PTR __$EHRec$[ebp+8], 3
  00fbe	68 00 00 00 00	 push	 OFFSET FLAT:$SG201451
  00fc3	8d 8d 70 ff ff
	ff		 lea	 ecx, DWORD PTR $T202552[ebp]
  00fc9	ff 15 00 00 00
	00		 call	 DWORD PTR __imp_??0?$basic_string@DU?$char_traits@D@std@@V?$allocator@D@2@@std@@QAE@PBD@Z
  00fcf	c6 45 fc 04	 mov	 BYTE PTR __$EHRec$[ebp+8], 4
  00fd3	68 00 00 00 00	 push	 OFFSET FLAT:$SG201449
  00fd8	8d 4d 8c	 lea	 ecx, DWORD PTR $T202551[ebp]
  00fdb	51		 push	 ecx
  00fdc	6a 00		 push	 0
  00fde	8d 95 70 ff ff
	ff		 lea	 edx, DWORD PTR $T202552[ebp]
  00fe4	52		 push	 edx
  00fe5	ff 15 00 00 00
	00		 call	 DWORD PTR __imp_?YL_Log@@YAXABV?$basic_string@DU?$char_traits@D@std@@V?$allocator@D@2@@std@@H0PBDZZ
  00feb	83 c4 10	 add	 esp, 16			; 00000010H
  00fee	c6 45 fc 03	 mov	 BYTE PTR __$EHRec$[ebp+8], 3
  00ff2	8d 8d 70 ff ff
	ff		 lea	 ecx, DWORD PTR $T202552[ebp]
  00ff8	ff 15 00 00 00
	00		 call	 DWORD PTR __imp_??1?$basic_string@DU?$char_traits@D@std@@V?$allocator@D@2@@std@@QAE@XZ
  00ffe	c7 45 fc ff ff
	ff ff		 mov	 DWORD PTR __$EHRec$[ebp+8], -1
  01005	8d 4d 8c	 lea	 ecx, DWORD PTR $T202551[ebp]
  01008	ff 15 00 00 00
	00		 call	 DWORD PTR __imp_??1?$basic_string@DU?$char_traits@D@std@@V?$allocator@D@2@@std@@QAE@XZ

; 164  : }

  0100e	8b 4d f4	 mov	 ecx, DWORD PTR __$EHRec$[ebp]
  01011	64 89 0d 00 00
	00 00		 mov	 DWORD PTR fs:__except_list, ecx
  01018	8b e5		 mov	 esp, ebp
  0101a	5d		 pop	 ebp
  0101b	c3		 ret	 0
_TEXT	ENDS
text$x	SEGMENT
$L202553:
  001c1	8d 4d c8	 lea	 ecx, DWORD PTR $T202548[ebp]
  001c4	ff 25 00 00 00
	00		 jmp	 DWORD PTR __imp_??1?$basic_string@DU?$char_traits@D@std@@V?$allocator@D@2@@std@@QAE@XZ
$L202554:
  001ca	8d 4d ac	 lea	 ecx, DWORD PTR $T202549[ebp]
  001cd	ff 25 00 00 00
	00		 jmp	 DWORD PTR __imp_??1?$basic_string@DU?$char_traits@D@std@@V?$allocator@D@2@@std@@QAE@XZ
$L202555:
  001d3	8b 4d a8	 mov	 ecx, DWORD PTR $T202550[ebp]
  001d6	ff 25 00 00 00
	00		 jmp	 DWORD PTR __imp_??1?$CStringT@DV?$StrTraitMFC_DLL@DV?$ChTraitsCRT@D@ATL@@@@@ATL@@QAE@XZ
$L202556:
  001dc	8d 4d 8c	 lea	 ecx, DWORD PTR $T202551[ebp]
  001df	ff 25 00 00 00
	00		 jmp	 DWORD PTR __imp_??1?$basic_string@DU?$char_traits@D@std@@V?$allocator@D@2@@std@@QAE@XZ
$L202557:
  001e5	8d 8d 70 ff ff
	ff		 lea	 ecx, DWORD PTR $T202552[ebp]
  001eb	ff 25 00 00 00
	00		 jmp	 DWORD PTR __imp_??1?$basic_string@DU?$char_traits@D@std@@V?$allocator@D@2@@std@@QAE@XZ
__ehhandler$?UpdateAllWnd@WebGamePlayingWnd@@AAEXXZ:
  001f1	b8 00 00 00 00	 mov	 eax, OFFSET FLAT:$T202559
  001f6	e9 00 00 00 00	 jmp	 ___CxxFrameHandler
text$x	ENDS
?UpdateAllWnd@WebGamePlayingWnd@@AAEXXZ ENDP		; WebGamePlayingWnd::UpdateAllWnd
xdata$x	SEGMENT
$T202574 DD	0ffffffffH
	DD	FLAT:$L202567
	DD	00H
	DD	FLAT:$L202568
	DD	0ffffffffH
	DD	FLAT:$L202569
	DD	02H
	DD	FLAT:$L202570
$T202572 DD	019930520H
	DD	04H
	DD	FLAT:$T202574
	DD	2 DUP(00H)
	DD	2 DUP(00H)
; Function compile flags: /Odt
xdata$x	ENDS
_TEXT	SEGMENT
_this$ = -128						; size = 4
$T202566 = -124						; size = 28
$T202565 = -96						; size = 28
$T202564 = -68						; size = 28
$T202563 = -40						; size = 28
__$EHRec$ = -12						; size = 12
?ILayoutChangeOb_InitFinished@WebGamePlayingWnd@@UAEXXZ PROC NEAR ; WebGamePlayingWnd::ILayoutChangeOb_InitFinished
; _this$ = ecx

; 168  : {

  01020	55		 push	 ebp
  01021	8b ec		 mov	 ebp, esp
  01023	6a ff		 push	 -1
  01025	68 00 00 00 00	 push	 __ehhandler$?ILayoutChangeOb_InitFinished@WebGamePlayingWnd@@UAEXXZ
  0102a	64 a1 00 00 00
	00		 mov	 eax, DWORD PTR fs:__except_list
  01030	50		 push	 eax
  01031	64 89 25 00 00
	00 00		 mov	 DWORD PTR fs:__except_list, esp
  01038	83 ec 74	 sub	 esp, 116		; 00000074H
  0103b	89 4d 80	 mov	 DWORD PTR _this$[ebp], ecx

; 169  : 	YL_Log("GamePlayingWnd.txt", LOG_DEBUG, "GamePlayingWnd::ILayoutChangeOb_InitFinished", "===IN");

  0103e	68 00 00 00 00	 push	 OFFSET FLAT:$SG201458
  01043	8d 4d d8	 lea	 ecx, DWORD PTR $T202563[ebp]
  01046	ff 15 00 00 00
	00		 call	 DWORD PTR __imp_??0?$basic_string@DU?$char_traits@D@std@@V?$allocator@D@2@@std@@QAE@PBD@Z
  0104c	c7 45 fc 00 00
	00 00		 mov	 DWORD PTR __$EHRec$[ebp+8], 0
  01053	68 00 00 00 00	 push	 OFFSET FLAT:$SG201459
  01058	8d 4d bc	 lea	 ecx, DWORD PTR $T202564[ebp]
  0105b	ff 15 00 00 00
	00		 call	 DWORD PTR __imp_??0?$basic_string@DU?$char_traits@D@std@@V?$allocator@D@2@@std@@QAE@PBD@Z
  01061	c6 45 fc 01	 mov	 BYTE PTR __$EHRec$[ebp+8], 1
  01065	68 00 00 00 00	 push	 OFFSET FLAT:$SG201457
  0106a	8d 45 d8	 lea	 eax, DWORD PTR $T202563[ebp]
  0106d	50		 push	 eax
  0106e	6a 00		 push	 0
  01070	8d 4d bc	 lea	 ecx, DWORD PTR $T202564[ebp]
  01073	51		 push	 ecx
  01074	ff 15 00 00 00
	00		 call	 DWORD PTR __imp_?YL_Log@@YAXABV?$basic_string@DU?$char_traits@D@std@@V?$allocator@D@2@@std@@H0PBDZZ
  0107a	83 c4 10	 add	 esp, 16			; 00000010H
  0107d	c6 45 fc 00	 mov	 BYTE PTR __$EHRec$[ebp+8], 0
  01081	8d 4d bc	 lea	 ecx, DWORD PTR $T202564[ebp]
  01084	ff 15 00 00 00
	00		 call	 DWORD PTR __imp_??1?$basic_string@DU?$char_traits@D@std@@V?$allocator@D@2@@std@@QAE@XZ
  0108a	c7 45 fc ff ff
	ff ff		 mov	 DWORD PTR __$EHRec$[ebp+8], -1
  01091	8d 4d d8	 lea	 ecx, DWORD PTR $T202563[ebp]
  01094	ff 15 00 00 00
	00		 call	 DWORD PTR __imp_??1?$basic_string@DU?$char_traits@D@std@@V?$allocator@D@2@@std@@QAE@XZ

; 170  : 	UpdateAllWnd();

  0109a	8b 4d 80	 mov	 ecx, DWORD PTR _this$[ebp]
  0109d	83 e9 54	 sub	 ecx, 84			; 00000054H
  010a0	e8 00 00 00 00	 call	 ?UpdateAllWnd@WebGamePlayingWnd@@AAEXXZ ; WebGamePlayingWnd::UpdateAllWnd

; 171  : 	YL_Log("GamePlayingWnd.txt", LOG_DEBUG, "GamePlayingWnd::ILayoutChangeOb_InitFinished", "===OUT");

  010a5	68 00 00 00 00	 push	 OFFSET FLAT:$SG201463
  010aa	8d 4d a0	 lea	 ecx, DWORD PTR $T202565[ebp]
  010ad	ff 15 00 00 00
	00		 call	 DWORD PTR __imp_??0?$basic_string@DU?$char_traits@D@std@@V?$allocator@D@2@@std@@QAE@PBD@Z
  010b3	c7 45 fc 02 00
	00 00		 mov	 DWORD PTR __$EHRec$[ebp+8], 2
  010ba	68 00 00 00 00	 push	 OFFSET FLAT:$SG201464
  010bf	8d 4d 84	 lea	 ecx, DWORD PTR $T202566[ebp]
  010c2	ff 15 00 00 00
	00		 call	 DWORD PTR __imp_??0?$basic_string@DU?$char_traits@D@std@@V?$allocator@D@2@@std@@QAE@PBD@Z
  010c8	c6 45 fc 03	 mov	 BYTE PTR __$EHRec$[ebp+8], 3
  010cc	68 00 00 00 00	 push	 OFFSET FLAT:$SG201462
  010d1	8d 55 a0	 lea	 edx, DWORD PTR $T202565[ebp]
  010d4	52		 push	 edx
  010d5	6a 00		 push	 0
  010d7	8d 45 84	 lea	 eax, DWORD PTR $T202566[ebp]
  010da	50		 push	 eax
  010db	ff 15 00 00 00
	00		 call	 DWORD PTR __imp_?YL_Log@@YAXABV?$basic_string@DU?$char_traits@D@std@@V?$allocator@D@2@@std@@H0PBDZZ
  010e1	83 c4 10	 add	 esp, 16			; 00000010H
  010e4	c6 45 fc 02	 mov	 BYTE PTR __$EHRec$[ebp+8], 2
  010e8	8d 4d 84	 lea	 ecx, DWORD PTR $T202566[ebp]
  010eb	ff 15 00 00 00
	00		 call	 DWORD PTR __imp_??1?$basic_string@DU?$char_traits@D@std@@V?$allocator@D@2@@std@@QAE@XZ
  010f1	c7 45 fc ff ff
	ff ff		 mov	 DWORD PTR __$EHRec$[ebp+8], -1
  010f8	8d 4d a0	 lea	 ecx, DWORD PTR $T202565[ebp]
  010fb	ff 15 00 00 00
	00		 call	 DWORD PTR __imp_??1?$basic_string@DU?$char_traits@D@std@@V?$allocator@D@2@@std@@QAE@XZ

; 172  : }

  01101	8b 4d f4	 mov	 ecx, DWORD PTR __$EHRec$[ebp]
  01104	64 89 0d 00 00
	00 00		 mov	 DWORD PTR fs:__except_list, ecx
  0110b	8b e5		 mov	 esp, ebp
  0110d	5d		 pop	 ebp
  0110e	c3		 ret	 0
_TEXT	ENDS
text$x	SEGMENT
$L202567:
  001fb	8d 4d d8	 lea	 ecx, DWORD PTR $T202563[ebp]
  001fe	ff 25 00 00 00
	00		 jmp	 DWORD PTR __imp_??1?$basic_string@DU?$char_traits@D@std@@V?$allocator@D@2@@std@@QAE@XZ
$L202568:
  00204	8d 4d bc	 lea	 ecx, DWORD PTR $T202564[ebp]
  00207	ff 25 00 00 00
	00		 jmp	 DWORD PTR __imp_??1?$basic_string@DU?$char_traits@D@std@@V?$allocator@D@2@@std@@QAE@XZ
$L202569:
  0020d	8d 4d a0	 lea	 ecx, DWORD PTR $T202565[ebp]
  00210	ff 25 00 00 00
	00		 jmp	 DWORD PTR __imp_??1?$basic_string@DU?$char_traits@D@std@@V?$allocator@D@2@@std@@QAE@XZ
$L202570:
  00216	8d 4d 84	 lea	 ecx, DWORD PTR $T202566[ebp]
  00219	ff 25 00 00 00
	00		 jmp	 DWORD PTR __imp_??1?$basic_string@DU?$char_traits@D@std@@V?$allocator@D@2@@std@@QAE@XZ
__ehhandler$?ILayoutChangeOb_InitFinished@WebGamePlayingWnd@@UAEXXZ:
  0021f	b8 00 00 00 00	 mov	 eax, OFFSET FLAT:$T202572
  00224	e9 00 00 00 00	 jmp	 ___CxxFrameHandler
text$x	ENDS
?ILayoutChangeOb_InitFinished@WebGamePlayingWnd@@UAEXXZ ENDP ; WebGamePlayingWnd::ILayoutChangeOb_InitFinished
xdata$x	SEGMENT
$T202589 DD	0ffffffffH
	DD	FLAT:$L202580
	DD	00H
	DD	FLAT:$L202581
	DD	01H
	DD	FLAT:$L202582
	DD	02H
	DD	FLAT:$L202583
	DD	01H
	DD	FLAT:$L202584
	DD	04H
	DD	FLAT:$L202585
$T202587 DD	019930520H
	DD	06H
	DD	FLAT:$T202589
	DD	2 DUP(00H)
	DD	2 DUP(00H)
; Function compile flags: /Odt
xdata$x	ENDS
_TEXT	SEGMENT
_this$ = -128						; size = 4
$T202579 = -124						; size = 28
$T202578 = -96						; size = 28
$T202577 = -68						; size = 28
$T202576 = -40						; size = 28
__$EHRec$ = -12						; size = 12
_oldSkinPath$ = 8					; size = 28
_newSkinPath$ = 36					; size = 28
?ILayoutChangeOb_SkinChanged@WebGamePlayingWnd@@UAEXV?$basic_string@DU?$char_traits@D@std@@V?$allocator@D@2@@std@@0@Z PROC NEAR ; WebGamePlayingWnd::ILayoutChangeOb_SkinChanged
; _this$ = ecx

; 174  : {

  01110	55		 push	 ebp
  01111	8b ec		 mov	 ebp, esp
  01113	6a ff		 push	 -1
  01115	68 00 00 00 00	 push	 __ehhandler$?ILayoutChangeOb_SkinChanged@WebGamePlayingWnd@@UAEXV?$basic_string@DU?$char_traits@D@std@@V?$allocator@D@2@@std@@0@Z
  0111a	64 a1 00 00 00
	00		 mov	 eax, DWORD PTR fs:__except_list
  01120	50		 push	 eax
  01121	64 89 25 00 00
	00 00		 mov	 DWORD PTR fs:__except_list, esp
  01128	83 ec 74	 sub	 esp, 116		; 00000074H
  0112b	89 4d 80	 mov	 DWORD PTR _this$[ebp], ecx
  0112e	c7 45 fc 01 00
	00 00		 mov	 DWORD PTR __$EHRec$[ebp+8], 1

; 175  : 	YL_Log("GamePlayingWnd.txt", LOG_DEBUG, "GamePlayingWnd::ILayoutChangeOb_SkinChanged", "===IN");

  01135	68 00 00 00 00	 push	 OFFSET FLAT:$SG201473
  0113a	8d 4d d8	 lea	 ecx, DWORD PTR $T202576[ebp]
  0113d	ff 15 00 00 00
	00		 call	 DWORD PTR __imp_??0?$basic_string@DU?$char_traits@D@std@@V?$allocator@D@2@@std@@QAE@PBD@Z
  01143	c6 45 fc 02	 mov	 BYTE PTR __$EHRec$[ebp+8], 2
  01147	68 00 00 00 00	 push	 OFFSET FLAT:$SG201474
  0114c	8d 4d bc	 lea	 ecx, DWORD PTR $T202577[ebp]
  0114f	ff 15 00 00 00
	00		 call	 DWORD PTR __imp_??0?$basic_string@DU?$char_traits@D@std@@V?$allocator@D@2@@std@@QAE@PBD@Z
  01155	c6 45 fc 03	 mov	 BYTE PTR __$EHRec$[ebp+8], 3
  01159	68 00 00 00 00	 push	 OFFSET FLAT:$SG201472
  0115e	8d 45 d8	 lea	 eax, DWORD PTR $T202576[ebp]
  01161	50		 push	 eax
  01162	6a 00		 push	 0
  01164	8d 4d bc	 lea	 ecx, DWORD PTR $T202577[ebp]
  01167	51		 push	 ecx
  01168	ff 15 00 00 00
	00		 call	 DWORD PTR __imp_?YL_Log@@YAXABV?$basic_string@DU?$char_traits@D@std@@V?$allocator@D@2@@std@@H0PBDZZ
  0116e	83 c4 10	 add	 esp, 16			; 00000010H
  01171	c6 45 fc 02	 mov	 BYTE PTR __$EHRec$[ebp+8], 2
  01175	8d 4d bc	 lea	 ecx, DWORD PTR $T202577[ebp]
  01178	ff 15 00 00 00
	00		 call	 DWORD PTR __imp_??1?$basic_string@DU?$char_traits@D@std@@V?$allocator@D@2@@std@@QAE@XZ
  0117e	c6 45 fc 01	 mov	 BYTE PTR __$EHRec$[ebp+8], 1
  01182	8d 4d d8	 lea	 ecx, DWORD PTR $T202576[ebp]
  01185	ff 15 00 00 00
	00		 call	 DWORD PTR __imp_??1?$basic_string@DU?$char_traits@D@std@@V?$allocator@D@2@@std@@QAE@XZ

; 176  : 	UpdateAllWnd();

  0118b	8b 4d 80	 mov	 ecx, DWORD PTR _this$[ebp]
  0118e	83 e9 54	 sub	 ecx, 84			; 00000054H
  01191	e8 00 00 00 00	 call	 ?UpdateAllWnd@WebGamePlayingWnd@@AAEXXZ ; WebGamePlayingWnd::UpdateAllWnd

; 177  : 	YL_Log("GamePlayingWnd.txt", LOG_DEBUG, "GamePlayingWnd::ILayoutChangeOb_SkinChanged", "===OUT");

  01196	68 00 00 00 00	 push	 OFFSET FLAT:$SG201478
  0119b	8d 4d a0	 lea	 ecx, DWORD PTR $T202578[ebp]
  0119e	ff 15 00 00 00
	00		 call	 DWORD PTR __imp_??0?$basic_string@DU?$char_traits@D@std@@V?$allocator@D@2@@std@@QAE@PBD@Z
  011a4	c6 45 fc 04	 mov	 BYTE PTR __$EHRec$[ebp+8], 4
  011a8	68 00 00 00 00	 push	 OFFSET FLAT:$SG201479
  011ad	8d 4d 84	 lea	 ecx, DWORD PTR $T202579[ebp]
  011b0	ff 15 00 00 00
	00		 call	 DWORD PTR __imp_??0?$basic_string@DU?$char_traits@D@std@@V?$allocator@D@2@@std@@QAE@PBD@Z
  011b6	c6 45 fc 05	 mov	 BYTE PTR __$EHRec$[ebp+8], 5
  011ba	68 00 00 00 00	 push	 OFFSET FLAT:$SG201477
  011bf	8d 55 a0	 lea	 edx, DWORD PTR $T202578[ebp]
  011c2	52		 push	 edx
  011c3	6a 00		 push	 0
  011c5	8d 45 84	 lea	 eax, DWORD PTR $T202579[ebp]
  011c8	50		 push	 eax
  011c9	ff 15 00 00 00
	00		 call	 DWORD PTR __imp_?YL_Log@@YAXABV?$basic_string@DU?$char_traits@D@std@@V?$allocator@D@2@@std@@H0PBDZZ
  011cf	83 c4 10	 add	 esp, 16			; 00000010H
  011d2	c6 45 fc 04	 mov	 BYTE PTR __$EHRec$[ebp+8], 4
  011d6	8d 4d 84	 lea	 ecx, DWORD PTR $T202579[ebp]
  011d9	ff 15 00 00 00
	00		 call	 DWORD PTR __imp_??1?$basic_string@DU?$char_traits@D@std@@V?$allocator@D@2@@std@@QAE@XZ
  011df	c6 45 fc 01	 mov	 BYTE PTR __$EHRec$[ebp+8], 1
  011e3	8d 4d a0	 lea	 ecx, DWORD PTR $T202578[ebp]
  011e6	ff 15 00 00 00
	00		 call	 DWORD PTR __imp_??1?$basic_string@DU?$char_traits@D@std@@V?$allocator@D@2@@std@@QAE@XZ

; 178  : }

  011ec	c6 45 fc 00	 mov	 BYTE PTR __$EHRec$[ebp+8], 0
  011f0	8d 4d 08	 lea	 ecx, DWORD PTR _oldSkinPath$[ebp]
  011f3	ff 15 00 00 00
	00		 call	 DWORD PTR __imp_??1?$basic_string@DU?$char_traits@D@std@@V?$allocator@D@2@@std@@QAE@XZ
  011f9	c7 45 fc ff ff
	ff ff		 mov	 DWORD PTR __$EHRec$[ebp+8], -1
  01200	8d 4d 24	 lea	 ecx, DWORD PTR _newSkinPath$[ebp]
  01203	ff 15 00 00 00
	00		 call	 DWORD PTR __imp_??1?$basic_string@DU?$char_traits@D@std@@V?$allocator@D@2@@std@@QAE@XZ
  01209	8b 4d f4	 mov	 ecx, DWORD PTR __$EHRec$[ebp]
  0120c	64 89 0d 00 00
	00 00		 mov	 DWORD PTR fs:__except_list, ecx
  01213	8b e5		 mov	 esp, ebp
  01215	5d		 pop	 ebp
  01216	c2 38 00	 ret	 56			; 00000038H
_TEXT	ENDS
text$x	SEGMENT
$L202580:
  00229	8d 4d 24	 lea	 ecx, DWORD PTR _newSkinPath$[ebp]
  0022c	ff 25 00 00 00
	00		 jmp	 DWORD PTR __imp_??1?$basic_string@DU?$char_traits@D@std@@V?$allocator@D@2@@std@@QAE@XZ
$L202581:
  00232	8d 4d 08	 lea	 ecx, DWORD PTR _oldSkinPath$[ebp]
  00235	ff 25 00 00 00
	00		 jmp	 DWORD PTR __imp_??1?$basic_string@DU?$char_traits@D@std@@V?$allocator@D@2@@std@@QAE@XZ
$L202582:
  0023b	8d 4d d8	 lea	 ecx, DWORD PTR $T202576[ebp]
  0023e	ff 25 00 00 00
	00		 jmp	 DWORD PTR __imp_??1?$basic_string@DU?$char_traits@D@std@@V?$allocator@D@2@@std@@QAE@XZ
$L202583:
  00244	8d 4d bc	 lea	 ecx, DWORD PTR $T202577[ebp]
  00247	ff 25 00 00 00
	00		 jmp	 DWORD PTR __imp_??1?$basic_string@DU?$char_traits@D@std@@V?$allocator@D@2@@std@@QAE@XZ
$L202584:
  0024d	8d 4d a0	 lea	 ecx, DWORD PTR $T202578[ebp]
  00250	ff 25 00 00 00
	00		 jmp	 DWORD PTR __imp_??1?$basic_string@DU?$char_traits@D@std@@V?$allocator@D@2@@std@@QAE@XZ
$L202585:
  00256	8d 4d 84	 lea	 ecx, DWORD PTR $T202579[ebp]
  00259	ff 25 00 00 00
	00		 jmp	 DWORD PTR __imp_??1?$basic_string@DU?$char_traits@D@std@@V?$allocator@D@2@@std@@QAE@XZ
__ehhandler$?ILayoutChangeOb_SkinChanged@WebGamePlayingWnd@@UAEXV?$basic_string@DU?$char_traits@D@std@@V?$allocator@D@2@@std@@0@Z:
  0025f	b8 00 00 00 00	 mov	 eax, OFFSET FLAT:$T202587
  00264	e9 00 00 00 00	 jmp	 ___CxxFrameHandler
text$x	ENDS
?ILayoutChangeOb_SkinChanged@WebGamePlayingWnd@@UAEXV?$basic_string@DU?$char_traits@D@std@@V?$allocator@D@2@@std@@0@Z ENDP ; WebGamePlayingWnd::ILayoutChangeOb_SkinChanged
xdata$x	SEGMENT
$T202602 DD	0ffffffffH
	DD	FLAT:$L202595
	DD	00H
	DD	FLAT:$L202596
	DD	0ffffffffH
	DD	FLAT:$L202597
	DD	02H
	DD	FLAT:$L202598
$T202600 DD	019930520H
	DD	04H
	DD	FLAT:$T202602
	DD	2 DUP(00H)
	DD	2 DUP(00H)
; Function compile flags: /Odt
xdata$x	ENDS
_TEXT	SEGMENT
_this$ = -128						; size = 4
$T202594 = -124						; size = 28
$T202593 = -96						; size = 28
$T202592 = -68						; size = 28
$T202591 = -40						; size = 28
__$EHRec$ = -12						; size = 12
_hWnd$ = 8						; size = 4
?ILayoutChangeOb_UpdateLayout@WebGamePlayingWnd@@UAEXPAUHWND__@@@Z PROC NEAR ; WebGamePlayingWnd::ILayoutChangeOb_UpdateLayout
; _this$ = ecx

; 181  : {

  01220	55		 push	 ebp
  01221	8b ec		 mov	 ebp, esp
  01223	6a ff		 push	 -1
  01225	68 00 00 00 00	 push	 __ehhandler$?ILayoutChangeOb_UpdateLayout@WebGamePlayingWnd@@UAEXPAUHWND__@@@Z
  0122a	64 a1 00 00 00
	00		 mov	 eax, DWORD PTR fs:__except_list
  01230	50		 push	 eax
  01231	64 89 25 00 00
	00 00		 mov	 DWORD PTR fs:__except_list, esp
  01238	83 ec 74	 sub	 esp, 116		; 00000074H
  0123b	89 4d 80	 mov	 DWORD PTR _this$[ebp], ecx

; 182  : 	YL_Log("GamePlayingWnd.txt", LOG_DEBUG, "GamePlayingWnd::ILayoutChangeOb_UpdateLayout", "===IN");

  0123e	68 00 00 00 00	 push	 OFFSET FLAT:$SG201487
  01243	8d 4d d8	 lea	 ecx, DWORD PTR $T202591[ebp]
  01246	ff 15 00 00 00
	00		 call	 DWORD PTR __imp_??0?$basic_string@DU?$char_traits@D@std@@V?$allocator@D@2@@std@@QAE@PBD@Z
  0124c	c7 45 fc 00 00
	00 00		 mov	 DWORD PTR __$EHRec$[ebp+8], 0
  01253	68 00 00 00 00	 push	 OFFSET FLAT:$SG201488
  01258	8d 4d bc	 lea	 ecx, DWORD PTR $T202592[ebp]
  0125b	ff 15 00 00 00
	00		 call	 DWORD PTR __imp_??0?$basic_string@DU?$char_traits@D@std@@V?$allocator@D@2@@std@@QAE@PBD@Z
  01261	c6 45 fc 01	 mov	 BYTE PTR __$EHRec$[ebp+8], 1
  01265	68 00 00 00 00	 push	 OFFSET FLAT:$SG201486
  0126a	8d 45 d8	 lea	 eax, DWORD PTR $T202591[ebp]
  0126d	50		 push	 eax
  0126e	6a 00		 push	 0
  01270	8d 4d bc	 lea	 ecx, DWORD PTR $T202592[ebp]
  01273	51		 push	 ecx
  01274	ff 15 00 00 00
	00		 call	 DWORD PTR __imp_?YL_Log@@YAXABV?$basic_string@DU?$char_traits@D@std@@V?$allocator@D@2@@std@@H0PBDZZ
  0127a	83 c4 10	 add	 esp, 16			; 00000010H
  0127d	c6 45 fc 00	 mov	 BYTE PTR __$EHRec$[ebp+8], 0
  01281	8d 4d bc	 lea	 ecx, DWORD PTR $T202592[ebp]
  01284	ff 15 00 00 00
	00		 call	 DWORD PTR __imp_??1?$basic_string@DU?$char_traits@D@std@@V?$allocator@D@2@@std@@QAE@XZ
  0128a	c7 45 fc ff ff
	ff ff		 mov	 DWORD PTR __$EHRec$[ebp+8], -1
  01291	8d 4d d8	 lea	 ecx, DWORD PTR $T202591[ebp]
  01294	ff 15 00 00 00
	00		 call	 DWORD PTR __imp_??1?$basic_string@DU?$char_traits@D@std@@V?$allocator@D@2@@std@@QAE@XZ

; 183  : 	if( hWnd == GetSafeHwnd() )

  0129a	8b 4d 80	 mov	 ecx, DWORD PTR _this$[ebp]
  0129d	83 e9 54	 sub	 ecx, 84			; 00000054H
  012a0	e8 00 00 00 00	 call	 ?GetSafeHwnd@CWnd@@QBEPAUHWND__@@XZ ; CWnd::GetSafeHwnd
  012a5	39 45 08	 cmp	 DWORD PTR _hWnd$[ebp], eax
  012a8	75 0b		 jne	 SHORT $L201489

; 184  : 	{
; 185  : 		UpdateAllWnd();

  012aa	8b 4d 80	 mov	 ecx, DWORD PTR _this$[ebp]
  012ad	83 e9 54	 sub	 ecx, 84			; 00000054H
  012b0	e8 00 00 00 00	 call	 ?UpdateAllWnd@WebGamePlayingWnd@@AAEXXZ ; WebGamePlayingWnd::UpdateAllWnd
$L201489:

; 186  : 	}
; 187  : 	YL_Log("GamePlayingWnd.txt", LOG_DEBUG, "GamePlayingWnd::ILayoutChangeOb_UpdateLayout", "===OUT");

  012b5	68 00 00 00 00	 push	 OFFSET FLAT:$SG201493
  012ba	8d 4d a0	 lea	 ecx, DWORD PTR $T202593[ebp]
  012bd	ff 15 00 00 00
	00		 call	 DWORD PTR __imp_??0?$basic_string@DU?$char_traits@D@std@@V?$allocator@D@2@@std@@QAE@PBD@Z
  012c3	c7 45 fc 02 00
	00 00		 mov	 DWORD PTR __$EHRec$[ebp+8], 2
  012ca	68 00 00 00 00	 push	 OFFSET FLAT:$SG201494
  012cf	8d 4d 84	 lea	 ecx, DWORD PTR $T202594[ebp]
  012d2	ff 15 00 00 00
	00		 call	 DWORD PTR __imp_??0?$basic_string@DU?$char_traits@D@std@@V?$allocator@D@2@@std@@QAE@PBD@Z
  012d8	c6 45 fc 03	 mov	 BYTE PTR __$EHRec$[ebp+8], 3
  012dc	68 00 00 00 00	 push	 OFFSET FLAT:$SG201492
  012e1	8d 55 a0	 lea	 edx, DWORD PTR $T202593[ebp]
  012e4	52		 push	 edx
  012e5	6a 00		 push	 0
  012e7	8d 45 84	 lea	 eax, DWORD PTR $T202594[ebp]
  012ea	50		 push	 eax
  012eb	ff 15 00 00 00
	00		 call	 DWORD PTR __imp_?YL_Log@@YAXABV?$basic_string@DU?$char_traits@D@std@@V?$allocator@D@2@@std@@H0PBDZZ
  012f1	83 c4 10	 add	 esp, 16			; 00000010H
  012f4	c6 45 fc 02	 mov	 BYTE PTR __$EHRec$[ebp+8], 2
  012f8	8d 4d 84	 lea	 ecx, DWORD PTR $T202594[ebp]
  012fb	ff 15 00 00 00
	00		 call	 DWORD PTR __imp_??1?$basic_string@DU?$char_traits@D@std@@V?$allocator@D@2@@std@@QAE@XZ
  01301	c7 45 fc ff ff
	ff ff		 mov	 DWORD PTR __$EHRec$[ebp+8], -1
  01308	8d 4d a0	 lea	 ecx, DWORD PTR $T202593[ebp]
  0130b	ff 15 00 00 00
	00		 call	 DWORD PTR __imp_??1?$basic_string@DU?$char_traits@D@std@@V?$allocator@D@2@@std@@QAE@XZ

; 188  : }

  01311	8b 4d f4	 mov	 ecx, DWORD PTR __$EHRec$[ebp]
  01314	64 89 0d 00 00
	00 00		 mov	 DWORD PTR fs:__except_list, ecx
  0131b	8b e5		 mov	 esp, ebp
  0131d	5d		 pop	 ebp
  0131e	c2 04 00	 ret	 4
_TEXT	ENDS
text$x	SEGMENT
$L202595:
  00269	8d 4d d8	 lea	 ecx, DWORD PTR $T202591[ebp]
  0026c	ff 25 00 00 00
	00		 jmp	 DWORD PTR __imp_??1?$basic_string@DU?$char_traits@D@std@@V?$allocator@D@2@@std@@QAE@XZ
$L202596:
  00272	8d 4d bc	 lea	 ecx, DWORD PTR $T202592[ebp]
  00275	ff 25 00 00 00
	00		 jmp	 DWORD PTR __imp_??1?$basic_string@DU?$char_traits@D@std@@V?$allocator@D@2@@std@@QAE@XZ
$L202597:
  0027b	8d 4d a0	 lea	 ecx, DWORD PTR $T202593[ebp]
  0027e	ff 25 00 00 00
	00		 jmp	 DWORD PTR __imp_??1?$basic_string@DU?$char_traits@D@std@@V?$allocator@D@2@@std@@QAE@XZ
$L202598:
  00284	8d 4d 84	 lea	 ecx, DWORD PTR $T202594[ebp]
  00287	ff 25 00 00 00
	00		 jmp	 DWORD PTR __imp_??1?$basic_string@DU?$char_traits@D@std@@V?$allocator@D@2@@std@@QAE@XZ
__ehhandler$?ILayoutChangeOb_UpdateLayout@WebGamePlayingWnd@@UAEXPAUHWND__@@@Z:
  0028d	b8 00 00 00 00	 mov	 eax, OFFSET FLAT:$T202600
  00292	e9 00 00 00 00	 jmp	 ___CxxFrameHandler
text$x	ENDS
?ILayoutChangeOb_UpdateLayout@WebGamePlayingWnd@@UAEXPAUHWND__@@@Z ENDP ; WebGamePlayingWnd::ILayoutChangeOb_UpdateLayout
PUBLIC	?_AtlInstallStringThunk@ATL@@YAXPAPAXPAX1@Z	; ATL::_AtlInstallStringThunk
PUBLIC	?GetEnvironmentVariableWFake@ATL@@YGKPB_WPA_WK@Z ; ATL::GetEnvironmentVariableWFake
EXTRN	__imp__GetEnvironmentVariableW@12:NEAR
; Function compile flags: /Odt
; File d:\program files (x86)\microsoft visual studio .net 2003\vc7\atlmfc\include\cstringt.h
;	COMDAT ?GetEnvironmentVariableWThunk@ATL@@YGKPB_WPA_WK@Z
_TEXT	SEGMENT
_pszName$ = 8						; size = 4
_pszBuffer$ = 12					; size = 4
_nSize$ = 16						; size = 4
?GetEnvironmentVariableWThunk@ATL@@YGKPB_WPA_WK@Z PROC NEAR ; ATL::GetEnvironmentVariableWThunk, COMDAT

; 183  : {

  00000	55		 push	 ebp
  00001	8b ec		 mov	 ebp, esp

; 184  : 	_AtlInstallStringThunk(reinterpret_cast<void**>(&_strthunks.pfnGetEnvironmentVariableW), 
; 185  : 		GetEnvironmentVariableWFake, ::GetEnvironmentVariableW);

  00003	a1 00 00 00 00	 mov	 eax, DWORD PTR __imp__GetEnvironmentVariableW@12
  00008	50		 push	 eax
  00009	68 00 00 00 00	 push	 OFFSET FLAT:?GetEnvironmentVariableWFake@ATL@@YGKPB_WPA_WK@Z ; ATL::GetEnvironmentVariableWFake
  0000e	68 14 00 00 00	 push	 OFFSET FLAT:?_strthunks@ATL@@3U_AtlStringThunks@1@A+20
  00013	e8 00 00 00 00	 call	 ?_AtlInstallStringThunk@ATL@@YAXPAPAXPAX1@Z ; ATL::_AtlInstallStringThunk
  00018	83 c4 0c	 add	 esp, 12			; 0000000cH

; 186  : 
; 187  : 	return _strthunks.pfnGetEnvironmentVariableW(pszName, pszBuffer, nSize);

  0001b	8b 4d 10	 mov	 ecx, DWORD PTR _nSize$[ebp]
  0001e	51		 push	 ecx
  0001f	8b 55 0c	 mov	 edx, DWORD PTR _pszBuffer$[ebp]
  00022	52		 push	 edx
  00023	8b 45 08	 mov	 eax, DWORD PTR _pszName$[ebp]
  00026	50		 push	 eax
  00027	ff 15 14 00 00
	00		 call	 DWORD PTR ?_strthunks@ATL@@3U_AtlStringThunks@1@A+20

; 188  : }

  0002d	5d		 pop	 ebp
  0002e	c2 0c 00	 ret	 12			; 0000000cH
?GetEnvironmentVariableWThunk@ATL@@YGKPB_WPA_WK@Z ENDP	; ATL::GetEnvironmentVariableWThunk
_TEXT	ENDS
PUBLIC	?s_bWin9x@?1??_AtlInstallStringThunk@ATL@@YAXPAPAXPAX1@Z@4_NA ; `ATL::_AtlInstallStringThunk'::`2'::s_bWin9x
PUBLIC	??_B?1??_AtlInstallStringThunk@ATL@@YAXPAPAXPAX1@Z@51 ; `ATL::_AtlInstallStringThunk'::`2'::`local static guard'
EXTRN	__imp__GetVersion@0:NEAR
;	COMDAT ?s_bWin9x@?1??_AtlInstallStringThunk@ATL@@YAXPAPAXPAX1@Z@4_NA
_BSS	SEGMENT
?s_bWin9x@?1??_AtlInstallStringThunk@ATL@@YAXPAPAXPAX1@Z@4_NA DB 01H DUP (?) ; `ATL::_AtlInstallStringThunk'::`2'::s_bWin9x
_BSS	ENDS
;	COMDAT ??_B?1??_AtlInstallStringThunk@ATL@@YAXPAPAXPAX1@Z@51
_BSS	SEGMENT
??_B?1??_AtlInstallStringThunk@ATL@@YAXPAPAXPAX1@Z@51 DD 01H DUP (?) ; `ATL::_AtlInstallStringThunk'::`2'::`local static guard'
; Function compile flags: /Odt
_BSS	ENDS
;	COMDAT ?_AtlInstallStringThunk@ATL@@YAXPAPAXPAX1@Z
_TEXT	SEGMENT
_pfn$ = -4						; size = 4
_ppThunk$ = 8						; size = 4
_pfnWin9x$ = 12						; size = 4
_pfnNT$ = 16						; size = 4
?_AtlInstallStringThunk@ATL@@YAXPAPAXPAX1@Z PROC NEAR	; ATL::_AtlInstallStringThunk, COMDAT

; 115  : {

  00000	55		 push	 ebp
  00001	8b ec		 mov	 ebp, esp
  00003	51		 push	 ecx

; 116  : #pragma warning (push)
; 117  : #pragma warning (disable : 4640)	// construction of local static object is not thread-safe
; 118  : 
; 119  : 	static bool s_bWin9x = (::GetVersion()&0x80000000) != 0;

  00004	a1 00 00 00 00	 mov	 eax, DWORD PTR ??_B?1??_AtlInstallStringThunk@ATL@@YAXPAPAXPAX1@Z@51
  00009	83 e0 01	 and	 eax, 1
  0000c	75 25		 jne	 SHORT $L25641
  0000e	8b 0d 00 00 00
	00		 mov	 ecx, DWORD PTR ??_B?1??_AtlInstallStringThunk@ATL@@YAXPAPAXPAX1@Z@51
  00014	83 c9 01	 or	 ecx, 1
  00017	89 0d 00 00 00
	00		 mov	 DWORD PTR ??_B?1??_AtlInstallStringThunk@ATL@@YAXPAPAXPAX1@Z@51, ecx
  0001d	ff 15 00 00 00
	00		 call	 DWORD PTR __imp__GetVersion@0
  00023	25 00 00 00 80	 and	 eax, -2147483648	; 80000000H
  00028	f7 d8		 neg	 eax
  0002a	1b c0		 sbb	 eax, eax
  0002c	f7 d8		 neg	 eax
  0002e	a2 00 00 00 00	 mov	 BYTE PTR ?s_bWin9x@?1??_AtlInstallStringThunk@ATL@@YAXPAPAXPAX1@Z@4_NA, al ; `ATL::_AtlInstallStringThunk'::`2'::s_bWin9x
$L25641:

; 120  : 	
; 121  : #pragma warning (pop)
; 122  : 
; 123  : 	void* pfn;
; 124  : 	if (s_bWin9x)

  00033	0f b6 15 00 00
	00 00		 movzx	 edx, BYTE PTR ?s_bWin9x@?1??_AtlInstallStringThunk@ATL@@YAXPAPAXPAX1@Z@4_NA ; `ATL::_AtlInstallStringThunk'::`2'::s_bWin9x
  0003a	85 d2		 test	 edx, edx
  0003c	74 08		 je	 SHORT $L25643

; 125  : 		pfn = pfnWin9x;

  0003e	8b 45 0c	 mov	 eax, DWORD PTR _pfnWin9x$[ebp]
  00041	89 45 fc	 mov	 DWORD PTR _pfn$[ebp], eax

; 126  : 	else

  00044	eb 06		 jmp	 SHORT $L25644
$L25643:

; 127  : 	{
; 128  : #ifdef _CSTRING_ALWAYS_THUNK
; 129  : 		pfn = pfnWin9x;
; 130  : 		(void)pfnNT;
; 131  : #else
; 132  : 		pfn = pfnNT;

  00046	8b 4d 10	 mov	 ecx, DWORD PTR _pfnNT$[ebp]
  00049	89 4d fc	 mov	 DWORD PTR _pfn$[ebp], ecx
$L25644:

; 133  : #endif
; 134  : 	}
; 135  : 	InterlockedExchangePointer(ppThunk, pfn);

  0004c	8b 55 fc	 mov	 edx, DWORD PTR _pfn$[ebp]
  0004f	52		 push	 edx
  00050	8b 45 08	 mov	 eax, DWORD PTR _ppThunk$[ebp]
  00053	50		 push	 eax
  00054	e8 00 00 00 00	 call	 ?InterlockedExchangePointer@@YGPAXPAPAXPAX@Z ; InterlockedExchangePointer

; 136  : }

  00059	8b e5		 mov	 esp, ebp
  0005b	5d		 pop	 ebp
  0005c	c3		 ret	 0
?_AtlInstallStringThunk@ATL@@YAXPAPAXPAX1@Z ENDP	; ATL::_AtlInstallStringThunk
_TEXT	ENDS
PUBLIC	??0?$CTempBuffer@D$0IA@VCCRTAllocator@ATL@@@ATL@@QAE@XZ ; ATL::CTempBuffer<char,128,ATL::CCRTAllocator>::CTempBuffer<char,128,ATL::CCRTAllocator>
PUBLIC	??1?$CTempBuffer@D$0IA@VCCRTAllocator@ATL@@@ATL@@QAE@XZ ; ATL::CTempBuffer<char,128,ATL::CCRTAllocator>::~CTempBuffer<char,128,ATL::CCRTAllocator>
PUBLIC	??B?$CTempBuffer@D$0IA@VCCRTAllocator@ATL@@@ATL@@QBEPADXZ ; ATL::CTempBuffer<char,128,ATL::CCRTAllocator>::operator char *
PUBLIC	?Allocate@?$CTempBuffer@D$0IA@VCCRTAllocator@ATL@@@ATL@@QAEPADI@Z ; ATL::CTempBuffer<char,128,ATL::CCRTAllocator>::Allocate
PUBLIC	??0?$CW2AEX@$0IA@@ATL@@QAE@PB_W@Z		; ATL::CW2AEX<128>::CW2AEX<128>
PUBLIC	??1?$CW2AEX@$0IA@@ATL@@QAE@XZ			; ATL::CW2AEX<128>::~CW2AEX<128>
PUBLIC	??B?$CW2AEX@$0IA@@ATL@@QBEPADXZ			; ATL::CW2AEX<128>::operator char *
PUBLIC	?_AtlGetConversionACP@ATL@@YGIXZ		; ATL::_AtlGetConversionACP
EXTRN	__imp__MultiByteToWideChar@24:NEAR
EXTRN	__imp__GetEnvironmentVariableA@12:NEAR
;	COMDAT xdata$x
xdata$x	SEGMENT
$T202618 DD	0ffffffffH
	DD	FLAT:$L202612
	DD	00H
	DD	FLAT:$L202613
$T202615 DD	019930520H
	DD	02H
	DD	FLAT:$T202618
	DD	2 DUP(00H)
	DD	2 DUP(00H)
; Function compile flags: /Odt
xdata$x	ENDS
;	COMDAT ?GetEnvironmentVariableWFake@ATL@@YGKPB_WPA_WK@Z
_TEXT	SEGMENT
$T202611 = -312						; size = 4
$T202610 = -308						; size = 4
$T202609 = -304						; size = 4
_pszBufferA$ = -300					; size = 132
_nSizeW$ = -160						; size = 4
_pszNameA$ = -156					; size = 132
__$ArrayPad$ = -20					; size = 4
_nSizeA$ = -16						; size = 4
__$EHRec$ = -12						; size = 12
__$ReturnAddr$ = 4					; size = 4
_pszName$ = 8						; size = 4
_pszBuffer$ = 12					; size = 4
_nSize$ = 16						; size = 4
?GetEnvironmentVariableWFake@ATL@@YGKPB_WPA_WK@Z PROC NEAR ; ATL::GetEnvironmentVariableWFake, COMDAT

; 159  : {

  00000	55		 push	 ebp
  00001	8b ec		 mov	 ebp, esp
  00003	6a ff		 push	 -1
  00005	68 00 00 00 00	 push	 __ehhandler$?GetEnvironmentVariableWFake@ATL@@YGKPB_WPA_WK@Z
  0000a	64 a1 00 00 00
	00		 mov	 eax, DWORD PTR fs:__except_list
  00010	50		 push	 eax
  00011	64 89 25 00 00
	00 00		 mov	 DWORD PTR fs:__except_list, esp
  00018	81 ec 2c 01 00
	00		 sub	 esp, 300		; 0000012cH
  0001e	a1 00 00 00 00	 mov	 eax, DWORD PTR ___security_cookie
  00023	89 45 ec	 mov	 DWORD PTR __$ArrayPad$[ebp], eax

; 160  : 	ULONG nSizeA;
; 161  : 	ULONG nSizeW;
; 162  : 	CTempBuffer<char> pszBufferA;

  00026	8d 8d d4 fe ff
	ff		 lea	 ecx, DWORD PTR _pszBufferA$[ebp]
  0002c	e8 00 00 00 00	 call	 ??0?$CTempBuffer@D$0IA@VCCRTAllocator@ATL@@@ATL@@QAE@XZ ; ATL::CTempBuffer<char,128,ATL::CCRTAllocator>::CTempBuffer<char,128,ATL::CCRTAllocator>
  00031	c7 45 fc 00 00
	00 00		 mov	 DWORD PTR __$EHRec$[ebp+8], 0

; 163  : 	CW2A pszNameA(pszName);

  00038	8b 45 08	 mov	 eax, DWORD PTR _pszName$[ebp]
  0003b	50		 push	 eax
  0003c	8d 8d 64 ff ff
	ff		 lea	 ecx, DWORD PTR _pszNameA$[ebp]
  00042	e8 00 00 00 00	 call	 ??0?$CW2AEX@$0IA@@ATL@@QAE@PB_W@Z ; ATL::CW2AEX<128>::CW2AEX<128>
  00047	c6 45 fc 01	 mov	 BYTE PTR __$EHRec$[ebp+8], 1

; 164  : 
; 165  : 	nSizeA = ::GetEnvironmentVariableA(pszNameA, NULL, 0);

  0004b	6a 00		 push	 0
  0004d	6a 00		 push	 0
  0004f	8d 8d 64 ff ff
	ff		 lea	 ecx, DWORD PTR _pszNameA$[ebp]
  00055	e8 00 00 00 00	 call	 ??B?$CW2AEX@$0IA@@ATL@@QBEPADXZ ; ATL::CW2AEX<128>::operator char *
  0005a	50		 push	 eax
  0005b	ff 15 00 00 00
	00		 call	 DWORD PTR __imp__GetEnvironmentVariableA@12
  00061	89 45 f0	 mov	 DWORD PTR _nSizeA$[ebp], eax

; 166  : 	if (nSizeA == 0)

  00064	83 7d f0 00	 cmp	 DWORD PTR _nSizeA$[ebp], 0
  00068	75 36		 jne	 SHORT $L25746

; 167  : 		return 0;

  0006a	c7 85 d0 fe ff
	ff 00 00 00 00	 mov	 DWORD PTR $T202609[ebp], 0
  00074	c6 45 fc 00	 mov	 BYTE PTR __$EHRec$[ebp+8], 0
  00078	8d 8d 64 ff ff
	ff		 lea	 ecx, DWORD PTR _pszNameA$[ebp]
  0007e	e8 00 00 00 00	 call	 ??1?$CW2AEX@$0IA@@ATL@@QAE@XZ ; ATL::CW2AEX<128>::~CW2AEX<128>
  00083	c7 45 fc ff ff
	ff ff		 mov	 DWORD PTR __$EHRec$[ebp+8], -1
  0008a	8d 8d d4 fe ff
	ff		 lea	 ecx, DWORD PTR _pszBufferA$[ebp]
  00090	e8 00 00 00 00	 call	 ??1?$CTempBuffer@D$0IA@VCCRTAllocator@ATL@@@ATL@@QAE@XZ ; ATL::CTempBuffer<char,128,ATL::CCRTAllocator>::~CTempBuffer<char,128,ATL::CCRTAllocator>
  00095	8b 85 d0 fe ff
	ff		 mov	 eax, DWORD PTR $T202609[ebp]
  0009b	e9 ee 00 00 00	 jmp	 $L25687
$L25746:

; 168  : 
; 169  : 	pszBufferA.Allocate(nSizeA*2);

  000a0	8b 4d f0	 mov	 ecx, DWORD PTR _nSizeA$[ebp]
  000a3	d1 e1		 shl	 ecx, 1
  000a5	51		 push	 ecx
  000a6	8d 8d d4 fe ff
	ff		 lea	 ecx, DWORD PTR _pszBufferA$[ebp]
  000ac	e8 00 00 00 00	 call	 ?Allocate@?$CTempBuffer@D$0IA@VCCRTAllocator@ATL@@@ATL@@QAEPADI@Z ; ATL::CTempBuffer<char,128,ATL::CCRTAllocator>::Allocate

; 170  : 	::GetEnvironmentVariableA(pszNameA, pszBufferA, nSizeA);

  000b1	8b 55 f0	 mov	 edx, DWORD PTR _nSizeA$[ebp]
  000b4	52		 push	 edx
  000b5	8d 8d d4 fe ff
	ff		 lea	 ecx, DWORD PTR _pszBufferA$[ebp]
  000bb	e8 00 00 00 00	 call	 ??B?$CTempBuffer@D$0IA@VCCRTAllocator@ATL@@@ATL@@QBEPADXZ ; ATL::CTempBuffer<char,128,ATL::CCRTAllocator>::operator char *
  000c0	50		 push	 eax
  000c1	8d 8d 64 ff ff
	ff		 lea	 ecx, DWORD PTR _pszNameA$[ebp]
  000c7	e8 00 00 00 00	 call	 ??B?$CW2AEX@$0IA@@ATL@@QBEPADXZ ; ATL::CW2AEX<128>::operator char *
  000cc	50		 push	 eax
  000cd	ff 15 00 00 00
	00		 call	 DWORD PTR __imp__GetEnvironmentVariableA@12

; 171  : 
; 172  : 	nSizeW = ::MultiByteToWideChar(_AtlGetConversionACP(), 0, pszBufferA, -1, NULL, 0);

  000d3	6a 00		 push	 0
  000d5	6a 00		 push	 0
  000d7	6a ff		 push	 -1
  000d9	8d 8d d4 fe ff
	ff		 lea	 ecx, DWORD PTR _pszBufferA$[ebp]
  000df	e8 00 00 00 00	 call	 ??B?$CTempBuffer@D$0IA@VCCRTAllocator@ATL@@@ATL@@QBEPADXZ ; ATL::CTempBuffer<char,128,ATL::CCRTAllocator>::operator char *
  000e4	50		 push	 eax
  000e5	6a 00		 push	 0
  000e7	e8 00 00 00 00	 call	 ?_AtlGetConversionACP@ATL@@YGIXZ ; ATL::_AtlGetConversionACP
  000ec	50		 push	 eax
  000ed	ff 15 00 00 00
	00		 call	 DWORD PTR __imp__MultiByteToWideChar@24
  000f3	89 85 60 ff ff
	ff		 mov	 DWORD PTR _nSizeW$[ebp], eax

; 173  : 	if (nSize == 0)

  000f9	83 7d 10 00	 cmp	 DWORD PTR _nSize$[ebp], 0
  000fd	75 35		 jne	 SHORT $L25748

; 174  : 		return nSizeW;

  000ff	8b 85 60 ff ff
	ff		 mov	 eax, DWORD PTR _nSizeW$[ebp]
  00105	89 85 cc fe ff
	ff		 mov	 DWORD PTR $T202610[ebp], eax
  0010b	c6 45 fc 00	 mov	 BYTE PTR __$EHRec$[ebp+8], 0
  0010f	8d 8d 64 ff ff
	ff		 lea	 ecx, DWORD PTR _pszNameA$[ebp]
  00115	e8 00 00 00 00	 call	 ??1?$CW2AEX@$0IA@@ATL@@QAE@XZ ; ATL::CW2AEX<128>::~CW2AEX<128>
  0011a	c7 45 fc ff ff
	ff ff		 mov	 DWORD PTR __$EHRec$[ebp+8], -1
  00121	8d 8d d4 fe ff
	ff		 lea	 ecx, DWORD PTR _pszBufferA$[ebp]
  00127	e8 00 00 00 00	 call	 ??1?$CTempBuffer@D$0IA@VCCRTAllocator@ATL@@@ATL@@QAE@XZ ; ATL::CTempBuffer<char,128,ATL::CCRTAllocator>::~CTempBuffer<char,128,ATL::CCRTAllocator>
  0012c	8b 85 cc fe ff
	ff		 mov	 eax, DWORD PTR $T202610[ebp]
  00132	eb 5a		 jmp	 SHORT $L25687
$L25748:

; 175  : 	ATLASSERT(nSize >= nSizeW);
; 176  : 	::MultiByteToWideChar(_AtlGetConversionACP(), 0, pszBufferA, -1, pszBuffer, nSizeW);

  00134	8b 8d 60 ff ff
	ff		 mov	 ecx, DWORD PTR _nSizeW$[ebp]
  0013a	51		 push	 ecx
  0013b	8b 55 0c	 mov	 edx, DWORD PTR _pszBuffer$[ebp]
  0013e	52		 push	 edx
  0013f	6a ff		 push	 -1
  00141	8d 8d d4 fe ff
	ff		 lea	 ecx, DWORD PTR _pszBufferA$[ebp]
  00147	e8 00 00 00 00	 call	 ??B?$CTempBuffer@D$0IA@VCCRTAllocator@ATL@@@ATL@@QBEPADXZ ; ATL::CTempBuffer<char,128,ATL::CCRTAllocator>::operator char *
  0014c	50		 push	 eax
  0014d	6a 00		 push	 0
  0014f	e8 00 00 00 00	 call	 ?_AtlGetConversionACP@ATL@@YGIXZ ; ATL::_AtlGetConversionACP
  00154	50		 push	 eax
  00155	ff 15 00 00 00
	00		 call	 DWORD PTR __imp__MultiByteToWideChar@24

; 177  : 
; 178  : 	return nSizeW;

  0015b	8b 85 60 ff ff
	ff		 mov	 eax, DWORD PTR _nSizeW$[ebp]
  00161	89 85 c8 fe ff
	ff		 mov	 DWORD PTR $T202611[ebp], eax
  00167	c6 45 fc 00	 mov	 BYTE PTR __$EHRec$[ebp+8], 0
  0016b	8d 8d 64 ff ff
	ff		 lea	 ecx, DWORD PTR _pszNameA$[ebp]
  00171	e8 00 00 00 00	 call	 ??1?$CW2AEX@$0IA@@ATL@@QAE@XZ ; ATL::CW2AEX<128>::~CW2AEX<128>
  00176	c7 45 fc ff ff
	ff ff		 mov	 DWORD PTR __$EHRec$[ebp+8], -1
  0017d	8d 8d d4 fe ff
	ff		 lea	 ecx, DWORD PTR _pszBufferA$[ebp]
  00183	e8 00 00 00 00	 call	 ??1?$CTempBuffer@D$0IA@VCCRTAllocator@ATL@@@ATL@@QAE@XZ ; ATL::CTempBuffer<char,128,ATL::CCRTAllocator>::~CTempBuffer<char,128,ATL::CCRTAllocator>
  00188	8b 85 c8 fe ff
	ff		 mov	 eax, DWORD PTR $T202611[ebp]
$L25687:

; 179  : }

  0018e	8b 4d f4	 mov	 ecx, DWORD PTR __$EHRec$[ebp]
  00191	64 89 0d 00 00
	00 00		 mov	 DWORD PTR fs:__except_list, ecx
  00198	8b 4d ec	 mov	 ecx, DWORD PTR __$ArrayPad$[ebp]
  0019b	e8 00 00 00 00	 call	 @__security_check_cookie@4
  001a0	8b e5		 mov	 esp, ebp
  001a2	5d		 pop	 ebp
  001a3	c2 0c 00	 ret	 12			; 0000000cH
_TEXT	ENDS
;	COMDAT text$x
text$x	SEGMENT
$L202612:
  00000	8d 8d d4 fe ff
	ff		 lea	 ecx, DWORD PTR _pszBufferA$[ebp]
  00006	e9 00 00 00 00	 jmp	 ??1?$CTempBuffer@D$0IA@VCCRTAllocator@ATL@@@ATL@@QAE@XZ ; ATL::CTempBuffer<char,128,ATL::CCRTAllocator>::~CTempBuffer<char,128,ATL::CCRTAllocator>
$L202613:
  0000b	8d 8d 64 ff ff
	ff		 lea	 ecx, DWORD PTR _pszNameA$[ebp]
  00011	e9 00 00 00 00	 jmp	 ??1?$CW2AEX@$0IA@@ATL@@QAE@XZ ; ATL::CW2AEX<128>::~CW2AEX<128>
__ehhandler$?GetEnvironmentVariableWFake@ATL@@YGKPB_WPA_WK@Z:
  00016	b8 00 00 00 00	 mov	 eax, OFFSET FLAT:$T202615
  0001b	e9 00 00 00 00	 jmp	 ___CxxFrameHandler
text$x	ENDS
?GetEnvironmentVariableWFake@ATL@@YGKPB_WPA_WK@Z ENDP	; ATL::GetEnvironmentVariableWFake
; Function compile flags: /Odt
; File d:\program files (x86)\microsoft visual studio .net 2003\vc7\atlmfc\include\atlconv.h
;	COMDAT ?_AtlGetConversionACP@ATL@@YGIXZ
_TEXT	SEGMENT
?_AtlGetConversionACP@ATL@@YGIXZ PROC NEAR		; ATL::_AtlGetConversionACP, COMDAT

; 157  : {

  00000	55		 push	 ebp
  00001	8b ec		 mov	 ebp, esp

; 158  : 	return( g_pfnGetThreadACP() );

  00003	ff 15 00 00 00
	00		 call	 DWORD PTR ?g_pfnGetThreadACP@ATL@@3P6GIXZA ; ATL::g_pfnGetThreadACP

; 159  : }

  00009	5d		 pop	 ebp
  0000a	c3		 ret	 0
?_AtlGetConversionACP@ATL@@YGIXZ ENDP			; ATL::_AtlGetConversionACP
_TEXT	ENDS
PUBLIC	?CompareStringWFake@ATL@@YGHKKPB_WH0H@Z		; ATL::CompareStringWFake
EXTRN	__imp__CompareStringW@24:NEAR
; Function compile flags: /Odt
; File d:\program files (x86)\microsoft visual studio .net 2003\vc7\atlmfc\include\cstringt.h
;	COMDAT ?CompareStringWThunk@ATL@@YGHKKPB_WH0H@Z
_TEXT	SEGMENT
_lcid$ = 8						; size = 4
_dwFlags$ = 12						; size = 4
_pszString1$ = 16					; size = 4
_nLength1$ = 20						; size = 4
_pszString2$ = 24					; size = 4
_nLength2$ = 28						; size = 4
?CompareStringWThunk@ATL@@YGHKKPB_WH0H@Z PROC NEAR	; ATL::CompareStringWThunk, COMDAT

; 216  : {

  00000	55		 push	 ebp
  00001	8b ec		 mov	 ebp, esp

; 217  : 	_AtlInstallStringThunk(reinterpret_cast<void**>(&_strthunks.pfnCompareStringW), CompareStringWFake, ::CompareStringW);

  00003	a1 00 00 00 00	 mov	 eax, DWORD PTR __imp__CompareStringW@24
  00008	50		 push	 eax
  00009	68 00 00 00 00	 push	 OFFSET FLAT:?CompareStringWFake@ATL@@YGHKKPB_WH0H@Z ; ATL::CompareStringWFake
  0000e	68 00 00 00 00	 push	 OFFSET FLAT:?_strthunks@ATL@@3U_AtlStringThunks@1@A ; ATL::_strthunks
  00013	e8 00 00 00 00	 call	 ?_AtlInstallStringThunk@ATL@@YAXPAPAXPAX1@Z ; ATL::_AtlInstallStringThunk
  00018	83 c4 0c	 add	 esp, 12			; 0000000cH

; 218  : 
; 219  : 	return _strthunks.pfnCompareStringW(lcid, dwFlags, pszString1, nLength1, pszString2, nLength2);

  0001b	8b 4d 1c	 mov	 ecx, DWORD PTR _nLength2$[ebp]
  0001e	51		 push	 ecx
  0001f	8b 55 18	 mov	 edx, DWORD PTR _pszString2$[ebp]
  00022	52		 push	 edx
  00023	8b 45 14	 mov	 eax, DWORD PTR _nLength1$[ebp]
  00026	50		 push	 eax
  00027	8b 4d 10	 mov	 ecx, DWORD PTR _pszString1$[ebp]
  0002a	51		 push	 ecx
  0002b	8b 55 0c	 mov	 edx, DWORD PTR _dwFlags$[ebp]
  0002e	52		 push	 edx
  0002f	8b 45 08	 mov	 eax, DWORD PTR _lcid$[ebp]
  00032	50		 push	 eax
  00033	ff 15 00 00 00
	00		 call	 DWORD PTR ?_strthunks@ATL@@3U_AtlStringThunks@1@A

; 220  : }

  00039	5d		 pop	 ebp
  0003a	c2 18 00	 ret	 24			; 00000018H
?CompareStringWThunk@ATL@@YGHKKPB_WH0H@Z ENDP		; ATL::CompareStringWThunk
_TEXT	ENDS
PUBLIC	?AtlThrow@ATL@@YGXJ@Z				; ATL::AtlThrow
PUBLIC	?_AtlVerifyStackAvailable@_ATL_SAFE_ALLOCA_IMPL@ATL@@YA_NK@Z ; ATL::_ATL_SAFE_ALLOCA_IMPL::_AtlVerifyStackAvailable
PUBLIC	?AtlW2AHelper@@YGPADPADPB_WHI@Z			; AtlW2AHelper
PUBLIC	??0?$CAtlSafeAllocBufferManager@VCCRTAllocator@ATL@@@_ATL_SAFE_ALLOCA_IMPL@ATL@@QAE@XZ ; ATL::_ATL_SAFE_ALLOCA_IMPL::CAtlSafeAllocBufferManager<ATL::CCRTAllocator>::CAtlSafeAllocBufferManager<ATL::CCRTAllocator>
PUBLIC	?Allocate@?$CAtlSafeAllocBufferManager@VCCRTAllocator@ATL@@@_ATL_SAFE_ALLOCA_IMPL@ATL@@QAEPAXK@Z ; ATL::_ATL_SAFE_ALLOCA_IMPL::CAtlSafeAllocBufferManager<ATL::CCRTAllocator>::Allocate
PUBLIC	??1?$CAtlSafeAllocBufferManager@VCCRTAllocator@ATL@@@_ATL_SAFE_ALLOCA_IMPL@ATL@@QAE@XZ ; ATL::_ATL_SAFE_ALLOCA_IMPL::CAtlSafeAllocBufferManager<ATL::CCRTAllocator>::~CAtlSafeAllocBufferManager<ATL::CCRTAllocator>
EXTRN	__imp__lstrlenW@4:NEAR
EXTRN	__imp__CompareStringA@24:NEAR
EXTRN	__alloca_probe:NEAR
;	COMDAT xdata$x
xdata$x	SEGMENT
$T202641 DD	0ffffffffH
	DD	FLAT:$L202636
$T202638 DD	019930520H
	DD	01H
	DD	FLAT:$T202641
	DD	2 DUP(00H)
	DD	2 DUP(00H)
; Function compile flags: /Odt
xdata$x	ENDS
;	COMDAT ?CompareStringWFake@ATL@@YGHKKPB_WH0H@Z
_TEXT	SEGMENT
tv147 = -68						; size = 4
tv142 = -64						; size = 4
tv149 = -60						; size = 4
tv89 = -56						; size = 4
tv84 = -52						; size = 4
tv91 = -48						; size = 4
$T202635 = -44						; size = 4
_pszAString1$ = -40					; size = 4
__AtlSafeAllocaManager$ = -36				; size = 4
__convert_ex$ = -32					; size = 4
__acp_ex$ = -28						; size = 4
_pszAString2$ = -24					; size = 4
__lpw_ex$ = -16						; size = 4
__$EHRec$ = -12						; size = 12
_lcid$ = 8						; size = 4
_dwFlags$ = 12						; size = 4
_pszString1$ = 16					; size = 4
_nLength1$ = 20						; size = 4
_pszString2$ = 24					; size = 4
_nLength2$ = 28						; size = 4
?CompareStringWFake@ATL@@YGHKKPB_WH0H@Z PROC NEAR	; ATL::CompareStringWFake, COMDAT

; 192  : {

  00000	55		 push	 ebp
  00001	8b ec		 mov	 ebp, esp
  00003	6a ff		 push	 -1
  00005	68 00 00 00 00	 push	 __ehhandler$?CompareStringWFake@ATL@@YGHKKPB_WH0H@Z
  0000a	64 a1 00 00 00
	00		 mov	 eax, DWORD PTR fs:__except_list
  00010	50		 push	 eax
  00011	64 89 25 00 00
	00 00		 mov	 DWORD PTR fs:__except_list, esp
  00018	83 ec 38	 sub	 esp, 56			; 00000038H

; 193  : 	USES_CONVERSION_EX;

  0001b	e8 00 00 00 00	 call	 ?_AtlGetConversionACP@ATL@@YGIXZ ; ATL::_AtlGetConversionACP
  00020	89 45 e4	 mov	 DWORD PTR __acp_ex$[ebp], eax
  00023	8d 4d dc	 lea	 ecx, DWORD PTR __AtlSafeAllocaManager$[ebp]
  00026	e8 00 00 00 00	 call	 ??0?$CAtlSafeAllocBufferManager@VCCRTAllocator@ATL@@@_ATL_SAFE_ALLOCA_IMPL@ATL@@QAE@XZ ; ATL::_ATL_SAFE_ALLOCA_IMPL::CAtlSafeAllocBufferManager<ATL::CCRTAllocator>::CAtlSafeAllocBufferManager<ATL::CCRTAllocator>
  0002b	c7 45 fc 00 00
	00 00		 mov	 DWORD PTR __$EHRec$[ebp+8], 0

; 194  : 	
; 195  : 	LPCSTR pszAString1 = NULL;

  00032	c7 45 d8 00 00
	00 00		 mov	 DWORD PTR _pszAString1$[ebp], 0

; 196  : 	if(pszString1 != NULL)

  00039	83 7d 10 00	 cmp	 DWORD PTR _pszString1$[ebp], 0
  0003d	0f 84 98 00 00
	00		 je	 $L25772

; 197  : 	{
; 198  : 		pszAString1 = W2A_EX(pszString1,_ATL_SAFE_ALLOCA_DEF_THRESHOLD);

  00043	8b 45 10	 mov	 eax, DWORD PTR _pszString1$[ebp]
  00046	89 45 f0	 mov	 DWORD PTR __lpw_ex$[ebp], eax
  00049	83 7d f0 00	 cmp	 DWORD PTR __lpw_ex$[ebp], 0
  0004d	75 09		 jne	 SHORT $L202629
  0004f	c7 45 d0 00 00
	00 00		 mov	 DWORD PTR tv91[ebp], 0
  00056	eb 6d		 jmp	 SHORT $L202630
$L202629:
  00058	8b 4d f0	 mov	 ecx, DWORD PTR __lpw_ex$[ebp]
  0005b	51		 push	 ecx
  0005c	ff 15 00 00 00
	00		 call	 DWORD PTR __imp__lstrlenW@4
  00062	8d 54 00 02	 lea	 edx, DWORD PTR [eax+eax+2]
  00066	89 55 e0	 mov	 DWORD PTR __convert_ex$[ebp], edx
  00069	81 7d e0 00 04
	00 00		 cmp	 DWORD PTR __convert_ex$[ebp], 1024 ; 00000400H
  00070	7f 2c		 jg	 SHORT $L202627
  00072	8b 45 e0	 mov	 eax, DWORD PTR __convert_ex$[ebp]
  00075	50		 push	 eax
  00076	e8 00 00 00 00	 call	 ?_AtlVerifyStackAvailable@_ATL_SAFE_ALLOCA_IMPL@ATL@@YA_NK@Z ; ATL::_ATL_SAFE_ALLOCA_IMPL::_AtlVerifyStackAvailable
  0007b	83 c4 04	 add	 esp, 4
  0007e	0f b6 c8	 movzx	 ecx, al
  00081	85 c9		 test	 ecx, ecx
  00083	74 19		 je	 SHORT $L202627
  00085	8b 45 e0	 mov	 eax, DWORD PTR __convert_ex$[ebp]
  00088	83 c0 03	 add	 eax, 3
  0008b	83 e0 fc	 and	 eax, -4			; fffffffcH
  0008e	e8 00 00 00 00	 call	 __alloca_probe
  00093	89 65 cc	 mov	 DWORD PTR tv84[ebp], esp
  00096	8b 55 cc	 mov	 edx, DWORD PTR tv84[ebp]
  00099	89 55 c8	 mov	 DWORD PTR tv89[ebp], edx
  0009c	eb 0f		 jmp	 SHORT $L202628
$L202627:
  0009e	8b 45 e0	 mov	 eax, DWORD PTR __convert_ex$[ebp]
  000a1	50		 push	 eax
  000a2	8d 4d dc	 lea	 ecx, DWORD PTR __AtlSafeAllocaManager$[ebp]
  000a5	e8 00 00 00 00	 call	 ?Allocate@?$CAtlSafeAllocBufferManager@VCCRTAllocator@ATL@@@_ATL_SAFE_ALLOCA_IMPL@ATL@@QAEPAXK@Z ; ATL::_ATL_SAFE_ALLOCA_IMPL::CAtlSafeAllocBufferManager<ATL::CCRTAllocator>::Allocate
  000aa	89 45 c8	 mov	 DWORD PTR tv89[ebp], eax
$L202628:
  000ad	8b 4d e4	 mov	 ecx, DWORD PTR __acp_ex$[ebp]
  000b0	51		 push	 ecx
  000b1	8b 55 e0	 mov	 edx, DWORD PTR __convert_ex$[ebp]
  000b4	52		 push	 edx
  000b5	8b 45 f0	 mov	 eax, DWORD PTR __lpw_ex$[ebp]
  000b8	50		 push	 eax
  000b9	8b 4d c8	 mov	 ecx, DWORD PTR tv89[ebp]
  000bc	51		 push	 ecx
  000bd	e8 00 00 00 00	 call	 ?AtlW2AHelper@@YGPADPADPB_WHI@Z ; AtlW2AHelper
  000c2	89 45 d0	 mov	 DWORD PTR tv91[ebp], eax
$L202630:
  000c5	8b 55 d0	 mov	 edx, DWORD PTR tv91[ebp]
  000c8	89 55 d8	 mov	 DWORD PTR _pszAString1$[ebp], edx

; 199  : 		if(pszAString1 == NULL)

  000cb	83 7d d8 00	 cmp	 DWORD PTR _pszAString1$[ebp], 0
  000cf	75 0a		 jne	 SHORT $L25772

; 200  : 			AtlThrow(E_OUTOFMEMORY);

  000d1	68 0e 00 07 80	 push	 -2147024882		; 8007000eH
  000d6	e8 00 00 00 00	 call	 ?AtlThrow@ATL@@YGXJ@Z	; ATL::AtlThrow
$L25772:

; 201  : 	}
; 202  : 
; 203  : 	LPCSTR pszAString2 = NULL;

  000db	c7 45 e8 00 00
	00 00		 mov	 DWORD PTR _pszAString2$[ebp], 0

; 204  : 	if(pszString2 != NULL)

  000e2	83 7d 18 00	 cmp	 DWORD PTR _pszString2$[ebp], 0
  000e6	0f 84 98 00 00
	00		 je	 $L25778

; 205  : 	{
; 206  : 		pszAString2 = W2A_EX(pszString2,_ATL_SAFE_ALLOCA_DEF_THRESHOLD);

  000ec	8b 45 18	 mov	 eax, DWORD PTR _pszString2$[ebp]
  000ef	89 45 f0	 mov	 DWORD PTR __lpw_ex$[ebp], eax
  000f2	83 7d f0 00	 cmp	 DWORD PTR __lpw_ex$[ebp], 0
  000f6	75 09		 jne	 SHORT $L202633
  000f8	c7 45 c4 00 00
	00 00		 mov	 DWORD PTR tv149[ebp], 0
  000ff	eb 6d		 jmp	 SHORT $L202634
$L202633:
  00101	8b 4d f0	 mov	 ecx, DWORD PTR __lpw_ex$[ebp]
  00104	51		 push	 ecx
  00105	ff 15 00 00 00
	00		 call	 DWORD PTR __imp__lstrlenW@4
  0010b	8d 54 00 02	 lea	 edx, DWORD PTR [eax+eax+2]
  0010f	89 55 e0	 mov	 DWORD PTR __convert_ex$[ebp], edx
  00112	81 7d e0 00 04
	00 00		 cmp	 DWORD PTR __convert_ex$[ebp], 1024 ; 00000400H
  00119	7f 2c		 jg	 SHORT $L202631
  0011b	8b 45 e0	 mov	 eax, DWORD PTR __convert_ex$[ebp]
  0011e	50		 push	 eax
  0011f	e8 00 00 00 00	 call	 ?_AtlVerifyStackAvailable@_ATL_SAFE_ALLOCA_IMPL@ATL@@YA_NK@Z ; ATL::_ATL_SAFE_ALLOCA_IMPL::_AtlVerifyStackAvailable
  00124	83 c4 04	 add	 esp, 4
  00127	0f b6 c8	 movzx	 ecx, al
  0012a	85 c9		 test	 ecx, ecx
  0012c	74 19		 je	 SHORT $L202631
  0012e	8b 45 e0	 mov	 eax, DWORD PTR __convert_ex$[ebp]
  00131	83 c0 03	 add	 eax, 3
  00134	83 e0 fc	 and	 eax, -4			; fffffffcH
  00137	e8 00 00 00 00	 call	 __alloca_probe
  0013c	89 65 c0	 mov	 DWORD PTR tv142[ebp], esp
  0013f	8b 55 c0	 mov	 edx, DWORD PTR tv142[ebp]
  00142	89 55 bc	 mov	 DWORD PTR tv147[ebp], edx
  00145	eb 0f		 jmp	 SHORT $L202632
$L202631:
  00147	8b 45 e0	 mov	 eax, DWORD PTR __convert_ex$[ebp]
  0014a	50		 push	 eax
  0014b	8d 4d dc	 lea	 ecx, DWORD PTR __AtlSafeAllocaManager$[ebp]
  0014e	e8 00 00 00 00	 call	 ?Allocate@?$CAtlSafeAllocBufferManager@VCCRTAllocator@ATL@@@_ATL_SAFE_ALLOCA_IMPL@ATL@@QAEPAXK@Z ; ATL::_ATL_SAFE_ALLOCA_IMPL::CAtlSafeAllocBufferManager<ATL::CCRTAllocator>::Allocate
  00153	89 45 bc	 mov	 DWORD PTR tv147[ebp], eax
$L202632:
  00156	8b 4d e4	 mov	 ecx, DWORD PTR __acp_ex$[ebp]
  00159	51		 push	 ecx
  0015a	8b 55 e0	 mov	 edx, DWORD PTR __convert_ex$[ebp]
  0015d	52		 push	 edx
  0015e	8b 45 f0	 mov	 eax, DWORD PTR __lpw_ex$[ebp]
  00161	50		 push	 eax
  00162	8b 4d bc	 mov	 ecx, DWORD PTR tv147[ebp]
  00165	51		 push	 ecx
  00166	e8 00 00 00 00	 call	 ?AtlW2AHelper@@YGPADPADPB_WHI@Z ; AtlW2AHelper
  0016b	89 45 c4	 mov	 DWORD PTR tv149[ebp], eax
$L202634:
  0016e	8b 55 c4	 mov	 edx, DWORD PTR tv149[ebp]
  00171	89 55 e8	 mov	 DWORD PTR _pszAString2$[ebp], edx

; 207  : 		if(pszAString2 == NULL)

  00174	83 7d e8 00	 cmp	 DWORD PTR _pszAString2$[ebp], 0
  00178	75 0a		 jne	 SHORT $L25778

; 208  : 			AtlThrow(E_OUTOFMEMORY);

  0017a	68 0e 00 07 80	 push	 -2147024882		; 8007000eH
  0017f	e8 00 00 00 00	 call	 ?AtlThrow@ATL@@YGXJ@Z	; ATL::AtlThrow
$L25778:

; 209  : 	}
; 210  : 
; 211  : 	return ::CompareStringA(lcid, dwFlags, pszAString1, nLength1, pszAString2, nLength2);

  00184	8b 45 1c	 mov	 eax, DWORD PTR _nLength2$[ebp]
  00187	50		 push	 eax
  00188	8b 4d e8	 mov	 ecx, DWORD PTR _pszAString2$[ebp]
  0018b	51		 push	 ecx
  0018c	8b 55 14	 mov	 edx, DWORD PTR _nLength1$[ebp]
  0018f	52		 push	 edx
  00190	8b 45 d8	 mov	 eax, DWORD PTR _pszAString1$[ebp]
  00193	50		 push	 eax
  00194	8b 4d 0c	 mov	 ecx, DWORD PTR _dwFlags$[ebp]
  00197	51		 push	 ecx
  00198	8b 55 08	 mov	 edx, DWORD PTR _lcid$[ebp]
  0019b	52		 push	 edx
  0019c	ff 15 00 00 00
	00		 call	 DWORD PTR __imp__CompareStringA@24
  001a2	89 45 d4	 mov	 DWORD PTR $T202635[ebp], eax
  001a5	c7 45 fc ff ff
	ff ff		 mov	 DWORD PTR __$EHRec$[ebp+8], -1
  001ac	8d 4d dc	 lea	 ecx, DWORD PTR __AtlSafeAllocaManager$[ebp]
  001af	e8 00 00 00 00	 call	 ??1?$CAtlSafeAllocBufferManager@VCCRTAllocator@ATL@@@_ATL_SAFE_ALLOCA_IMPL@ATL@@QAE@XZ ; ATL::_ATL_SAFE_ALLOCA_IMPL::CAtlSafeAllocBufferManager<ATL::CCRTAllocator>::~CAtlSafeAllocBufferManager<ATL::CCRTAllocator>
  001b4	8b 45 d4	 mov	 eax, DWORD PTR $T202635[ebp]
$L202626:

; 212  : }

  001b7	8d 65 bc	 lea	 esp, DWORD PTR [ebp-68]
  001ba	8b 4d f4	 mov	 ecx, DWORD PTR __$EHRec$[ebp]
  001bd	64 89 0d 00 00
	00 00		 mov	 DWORD PTR fs:__except_list, ecx
  001c4	8b e5		 mov	 esp, ebp
  001c6	5d		 pop	 ebp
  001c7	c2 18 00	 ret	 24			; 00000018H
_TEXT	ENDS
;	COMDAT text$x
text$x	SEGMENT
$L202636:
  00000	8d 4d dc	 lea	 ecx, DWORD PTR __AtlSafeAllocaManager$[ebp]
  00003	e9 00 00 00 00	 jmp	 ??1?$CAtlSafeAllocBufferManager@VCCRTAllocator@ATL@@@_ATL_SAFE_ALLOCA_IMPL@ATL@@QAE@XZ ; ATL::_ATL_SAFE_ALLOCA_IMPL::CAtlSafeAllocBufferManager<ATL::CCRTAllocator>::~CAtlSafeAllocBufferManager<ATL::CCRTAllocator>
__ehhandler$?CompareStringWFake@ATL@@YGHKKPB_WH0H@Z:
  00008	b8 00 00 00 00	 mov	 eax, OFFSET FLAT:$T202638
  0000d	e9 00 00 00 00	 jmp	 ___CxxFrameHandler
text$x	ENDS
?CompareStringWFake@ATL@@YGHKKPB_WH0H@Z ENDP		; ATL::CompareStringWFake
EXTRN	__imp___resetstkoflw:NEAR
EXTRN	__except_handler3:NEAR
;	COMDAT CONST
; File d:\program files (x86)\microsoft visual studio .net 2003\vc7\atlmfc\include\atlalloc.h
CONST	SEGMENT
$T202652 DD	0ffffffffH
	DD	FLAT:$L202647
	DD	FLAT:$L202648
; Function compile flags: /Odt
CONST	ENDS
;	COMDAT ?_AtlVerifyStackAvailable@_ATL_SAFE_ALLOCA_IMPL@ATL@@YA_NK@Z
_TEXT	SEGMENT
tv65 = -40						; size = 4
$T202651 = -36						; size = 4
_p$24118 = -32						; size = 4
_bStackAvailable$ = -25					; size = 1
__$SEHRec$ = -24					; size = 24
_Size$ = 8						; size = 4
?_AtlVerifyStackAvailable@_ATL_SAFE_ALLOCA_IMPL@ATL@@YA_NK@Z PROC NEAR ; ATL::_ATL_SAFE_ALLOCA_IMPL::_AtlVerifyStackAvailable, COMDAT

; 331  : {

  00000	55		 push	 ebp
  00001	8b ec		 mov	 ebp, esp
  00003	6a ff		 push	 -1
  00005	68 00 00 00 00	 push	 OFFSET FLAT:$T202652
  0000a	68 00 00 00 00	 push	 OFFSET FLAT:__except_handler3
  0000f	64 a1 00 00 00
	00		 mov	 eax, DWORD PTR fs:__except_list
  00015	50		 push	 eax
  00016	64 89 25 00 00
	00 00		 mov	 DWORD PTR fs:__except_list, esp
  0001d	83 c4 e8	 add	 esp, -24		; ffffffe8H
  00020	53		 push	 ebx
  00021	56		 push	 esi
  00022	57		 push	 edi
  00023	89 65 e8	 mov	 DWORD PTR __$SEHRec$[ebp], esp

; 332  :     bool bStackAvailable = true;

  00026	c6 45 e7 01	 mov	 BYTE PTR _bStackAvailable$[ebp], 1

; 333  : 
; 334  :     __try

  0002a	c7 45 fc 00 00
	00 00		 mov	 DWORD PTR __$SEHRec$[ebp+20], 0

; 335  :     {
; 336  :         PVOID p = _alloca(Size + _ATL_STACK_MARGIN);

  00031	8b 45 08	 mov	 eax, DWORD PTR _Size$[ebp]
  00034	05 03 20 00 00	 add	 eax, 8195		; 00002003H
  00039	83 e0 fc	 and	 eax, -4			; fffffffcH
  0003c	e8 00 00 00 00	 call	 __alloca_probe
  00041	89 65 d8	 mov	 DWORD PTR tv65[ebp], esp
  00044	89 65 e8	 mov	 DWORD PTR __$SEHRec$[ebp], esp
  00047	8b 45 d8	 mov	 eax, DWORD PTR tv65[ebp]
  0004a	89 45 e0	 mov	 DWORD PTR _p$24118[ebp], eax
  0004d	c7 45 fc ff ff
	ff ff		 mov	 DWORD PTR __$SEHRec$[ebp+20], -1
  00054	eb 2c		 jmp	 SHORT $L202650
$L202647:
$L202656:

; 337  :         (p);
; 338  :     }
; 339  :     __except ((EXCEPTION_STACK_OVERFLOW == GetExceptionCode()) ?
; 340  :                    EXCEPTION_EXECUTE_HANDLER :
; 341  :                    EXCEPTION_CONTINUE_SEARCH)

  00056	8b 4d ec	 mov	 ecx, DWORD PTR __$SEHRec$[ebp+4]
  00059	8b 11		 mov	 edx, DWORD PTR [ecx]
  0005b	8b 02		 mov	 eax, DWORD PTR [edx]
  0005d	89 45 dc	 mov	 DWORD PTR $T202651[ebp], eax
  00060	8b 45 dc	 mov	 eax, DWORD PTR $T202651[ebp]
  00063	2d fd 00 00 c0	 sub	 eax, -1073741571	; c00000fdH
  00068	f7 d8		 neg	 eax
  0006a	1b c0		 sbb	 eax, eax
  0006c	40		 inc	 eax
$L202649:
$L202655:
  0006d	c3		 ret	 0
$L202648:
  0006e	8b 65 e8	 mov	 esp, DWORD PTR __$SEHRec$[ebp]

; 342  :     {
; 343  :         bStackAvailable = false;

  00071	c6 45 e7 00	 mov	 BYTE PTR _bStackAvailable$[ebp], 0

; 344  :         _resetstkoflw();

  00075	ff 15 00 00 00
	00		 call	 DWORD PTR __imp___resetstkoflw
  0007b	c7 45 fc ff ff
	ff ff		 mov	 DWORD PTR __$SEHRec$[ebp+20], -1
$L202650:

; 345  :     }
; 346  :     return bStackAvailable;

  00082	8a 45 e7	 mov	 al, BYTE PTR _bStackAvailable$[ebp]
$L202646:

; 347  : }

  00085	8d 65 cc	 lea	 esp, DWORD PTR [ebp-52]
  00088	8b 4d f0	 mov	 ecx, DWORD PTR __$SEHRec$[ebp+8]
  0008b	64 89 0d 00 00
	00 00		 mov	 DWORD PTR fs:__except_list, ecx
  00092	5f		 pop	 edi
  00093	5e		 pop	 esi
  00094	5b		 pop	 ebx
  00095	8b e5		 mov	 esp, ebp
  00097	5d		 pop	 ebp
  00098	c3		 ret	 0
?_AtlVerifyStackAvailable@_ATL_SAFE_ALLOCA_IMPL@ATL@@YA_NK@Z ENDP ; ATL::_ATL_SAFE_ALLOCA_IMPL::_AtlVerifyStackAvailable
_TEXT	ENDS
EXTRN	__imp__WideCharToMultiByte@32:NEAR
; Function compile flags: /Odt
; File d:\program files (x86)\microsoft visual studio .net 2003\vc7\atlmfc\include\atlconv.h
;	COMDAT ?AtlW2AHelper@@YGPADPADPB_WHI@Z
_TEXT	SEGMENT
_ret$ = -4						; size = 4
_lpa$ = 8						; size = 4
_lpw$ = 12						; size = 4
_nChars$ = 16						; size = 4
_acp$ = 20						; size = 4
?AtlW2AHelper@@YGPADPADPB_WHI@Z PROC NEAR		; AtlW2AHelper, COMDAT

; 573  : {

  00000	55		 push	 ebp
  00001	8b ec		 mov	 ebp, esp
  00003	51		 push	 ecx

; 574  : 	ATLASSERT(lpw != NULL);
; 575  : 	ATLASSERT(lpa != NULL);
; 576  : 	if (lpa == NULL || lpw == NULL)

  00004	83 7d 08 00	 cmp	 DWORD PTR _lpa$[ebp], 0
  00008	74 06		 je	 SHORT $L24319
  0000a	83 7d 0c 00	 cmp	 DWORD PTR _lpw$[ebp], 0
  0000e	75 04		 jne	 SHORT $L24318
$L24319:

; 577  : 		return NULL;

  00010	33 c0		 xor	 eax, eax
  00012	eb 34		 jmp	 SHORT $L24315
$L24318:

; 578  : 	// verify that no illegal character present
; 579  : 	// since lpa was allocated based on the size of lpw
; 580  : 	// don't worry about the number of chars
; 581  : 	lpa[0] = '\0';

  00014	8b 45 08	 mov	 eax, DWORD PTR _lpa$[ebp]
  00017	c6 00 00	 mov	 BYTE PTR [eax], 0

; 582  : 	int ret = WideCharToMultiByte(acp, 0, lpw, -1, lpa, nChars, NULL, NULL);

  0001a	6a 00		 push	 0
  0001c	6a 00		 push	 0
  0001e	8b 4d 10	 mov	 ecx, DWORD PTR _nChars$[ebp]
  00021	51		 push	 ecx
  00022	8b 55 08	 mov	 edx, DWORD PTR _lpa$[ebp]
  00025	52		 push	 edx
  00026	6a ff		 push	 -1
  00028	8b 45 0c	 mov	 eax, DWORD PTR _lpw$[ebp]
  0002b	50		 push	 eax
  0002c	6a 00		 push	 0
  0002e	8b 4d 14	 mov	 ecx, DWORD PTR _acp$[ebp]
  00031	51		 push	 ecx
  00032	ff 15 00 00 00
	00		 call	 DWORD PTR __imp__WideCharToMultiByte@32
  00038	89 45 fc	 mov	 DWORD PTR _ret$[ebp], eax

; 583  : 	if(ret == 0)

  0003b	83 7d fc 00	 cmp	 DWORD PTR _ret$[ebp], 0
  0003f	75 04		 jne	 SHORT $L24321

; 584  : 	{
; 585  : 		ATLASSERT(FALSE);
; 586  : 		return NULL;

  00041	33 c0		 xor	 eax, eax
  00043	eb 03		 jmp	 SHORT $L24315
$L24321:

; 587  : 	}
; 588  : 	return lpa;

  00045	8b 45 08	 mov	 eax, DWORD PTR _lpa$[ebp]
$L24315:

; 589  : }

  00048	8b e5		 mov	 esp, ebp
  0004a	5d		 pop	 ebp
  0004b	c2 10 00	 ret	 16			; 00000010H
?AtlW2AHelper@@YGPADPADPB_WHI@Z ENDP			; AtlW2AHelper
_TEXT	ENDS
EXTRN	?AfxThrowMemoryException@@YGXXZ:NEAR		; AfxThrowMemoryException
EXTRN	?AfxThrowOleException@@YGXJ@Z:NEAR		; AfxThrowOleException
; Function compile flags: /Odt
; File d:\program files (x86)\microsoft visual studio .net 2003\vc7\atlmfc\include\atlexcept.h
;	COMDAT ?AtlThrow@ATL@@YGXJ@Z
_TEXT	SEGMENT
_hr$ = 8						; size = 4
?AtlThrow@ATL@@YGXJ@Z PROC NEAR				; ATL::AtlThrow, COMDAT

; 61   : {

  00000	55		 push	 ebp
  00001	8b ec		 mov	 ebp, esp

; 62   : 	ATLTRACE(atlTraceException, 0, _T("AtlThrow: hr = 0x%x\n"), hr );
; 63   : #ifdef _AFX
; 64   : 	if( hr == E_OUTOFMEMORY )

  00003	81 7d 08 0e 00
	07 80		 cmp	 DWORD PTR _hr$[ebp], -2147024882 ; 8007000eH
  0000a	75 05		 jne	 SHORT $L24681

; 65   : 	{
; 66   : 		AfxThrowMemoryException();

  0000c	e8 00 00 00 00	 call	 ?AfxThrowMemoryException@@YGXXZ ; AfxThrowMemoryException
$L24681:

; 67   : 	}
; 68   : 	else
; 69   : 	{
; 70   : 		AfxThrowOleException( hr );

  00011	8b 45 08	 mov	 eax, DWORD PTR _hr$[ebp]
  00014	50		 push	 eax
  00015	e8 00 00 00 00	 call	 ?AfxThrowOleException@@YGXJ@Z ; AfxThrowOleException
$L202662:

; 71   : 	}
; 72   : #else
; 73   : 	throw CAtlException( hr );
; 74   : #endif
; 75   : };

  0001a	5d		 pop	 ebp
  0001b	c2 04 00	 ret	 4
?AtlThrow@ATL@@YGXJ@Z ENDP				; ATL::AtlThrow
_TEXT	ENDS
PUBLIC	?GetStringTypeExWFake@ATL@@YGHKKPB_WHPAG@Z	; ATL::GetStringTypeExWFake
EXTRN	__imp__GetStringTypeExW@20:NEAR
; Function compile flags: /Odt
; File d:\program files (x86)\microsoft visual studio .net 2003\vc7\atlmfc\include\cstringt.h
;	COMDAT ?GetStringTypeExWThunk@ATL@@YGHKKPB_WHPAG@Z
_TEXT	SEGMENT
_lcid$ = 8						; size = 4
_dwInfoType$ = 12					; size = 4
_pszSrc$ = 16						; size = 4
_nLength$ = 20						; size = 4
_pwCharType$ = 24					; size = 4
?GetStringTypeExWThunk@ATL@@YGHKKPB_WHPAG@Z PROC NEAR	; ATL::GetStringTypeExWThunk, COMDAT

; 240  : {

  00000	55		 push	 ebp
  00001	8b ec		 mov	 ebp, esp

; 241  : 	_AtlInstallStringThunk(reinterpret_cast<void**>(&_strthunks.pfnGetStringTypeExW), GetStringTypeExWFake, ::GetStringTypeExW);

  00003	a1 00 00 00 00	 mov	 eax, DWORD PTR __imp__GetStringTypeExW@20
  00008	50		 push	 eax
  00009	68 00 00 00 00	 push	 OFFSET FLAT:?GetStringTypeExWFake@ATL@@YGHKKPB_WHPAG@Z ; ATL::GetStringTypeExWFake
  0000e	68 04 00 00 00	 push	 OFFSET FLAT:?_strthunks@ATL@@3U_AtlStringThunks@1@A+4
  00013	e8 00 00 00 00	 call	 ?_AtlInstallStringThunk@ATL@@YAXPAPAXPAX1@Z ; ATL::_AtlInstallStringThunk
  00018	83 c4 0c	 add	 esp, 12			; 0000000cH

; 242  : 
; 243  : 	return _strthunks.pfnGetStringTypeExW(lcid, dwInfoType, pszSrc, nLength, pwCharType);

  0001b	8b 4d 18	 mov	 ecx, DWORD PTR _pwCharType$[ebp]
  0001e	51		 push	 ecx
  0001f	8b 55 14	 mov	 edx, DWORD PTR _nLength$[ebp]
  00022	52		 push	 edx
  00023	8b 45 10	 mov	 eax, DWORD PTR _pszSrc$[ebp]
  00026	50		 push	 eax
  00027	8b 4d 0c	 mov	 ecx, DWORD PTR _dwInfoType$[ebp]
  0002a	51		 push	 ecx
  0002b	8b 55 08	 mov	 edx, DWORD PTR _lcid$[ebp]
  0002e	52		 push	 edx
  0002f	ff 15 04 00 00
	00		 call	 DWORD PTR ?_strthunks@ATL@@3U_AtlStringThunks@1@A+4

; 244  : }

  00035	5d		 pop	 ebp
  00036	c2 14 00	 ret	 20			; 00000014H
?GetStringTypeExWThunk@ATL@@YGHKKPB_WHPAG@Z ENDP	; ATL::GetStringTypeExWThunk
_TEXT	ENDS
EXTRN	__imp__GetStringTypeExA@20:NEAR
;	COMDAT xdata$x
xdata$x	SEGMENT
$T202674 DD	0ffffffffH
	DD	FLAT:$L202669
$T202671 DD	019930520H
	DD	01H
	DD	FLAT:$T202674
	DD	2 DUP(00H)
	DD	2 DUP(00H)
; Function compile flags: /Odt
xdata$x	ENDS
;	COMDAT ?GetStringTypeExWFake@ATL@@YGHKKPB_WHPAG@Z
_TEXT	SEGMENT
$T202668 = -164						; size = 4
_nLengthA$ = -160					; size = 4
_pszA$ = -156						; size = 132
__$ArrayPad$ = -16					; size = 4
__$EHRec$ = -12						; size = 12
__$ReturnAddr$ = 4					; size = 4
_lcid$ = 8						; size = 4
_dwInfoType$ = 12					; size = 4
_pszSrc$ = 16						; size = 4
_nLength$ = 20						; size = 4
_pwCharType$ = 24					; size = 4
?GetStringTypeExWFake@ATL@@YGHKKPB_WHPAG@Z PROC NEAR	; ATL::GetStringTypeExWFake, COMDAT

; 224  : {

  00000	55		 push	 ebp
  00001	8b ec		 mov	 ebp, esp
  00003	6a ff		 push	 -1
  00005	68 00 00 00 00	 push	 __ehhandler$?GetStringTypeExWFake@ATL@@YGHKKPB_WHPAG@Z
  0000a	64 a1 00 00 00
	00		 mov	 eax, DWORD PTR fs:__except_list
  00010	50		 push	 eax
  00011	64 89 25 00 00
	00 00		 mov	 DWORD PTR fs:__except_list, esp
  00018	81 ec 98 00 00
	00		 sub	 esp, 152		; 00000098H
  0001e	a1 00 00 00 00	 mov	 eax, DWORD PTR ___security_cookie
  00023	89 45 f0	 mov	 DWORD PTR __$ArrayPad$[ebp], eax

; 225  : 	int nLengthA;
; 226  : 	CTempBuffer<char> pszA;

  00026	8d 8d 64 ff ff
	ff		 lea	 ecx, DWORD PTR _pszA$[ebp]
  0002c	e8 00 00 00 00	 call	 ??0?$CTempBuffer@D$0IA@VCCRTAllocator@ATL@@@ATL@@QAE@XZ ; ATL::CTempBuffer<char,128,ATL::CCRTAllocator>::CTempBuffer<char,128,ATL::CCRTAllocator>
  00031	c7 45 fc 00 00
	00 00		 mov	 DWORD PTR __$EHRec$[ebp+8], 0

; 227  : 
; 228  : 	nLengthA = ::WideCharToMultiByte(_AtlGetConversionACP(), 0, pszSrc, nLength, NULL, 0, NULL, NULL);

  00038	6a 00		 push	 0
  0003a	6a 00		 push	 0
  0003c	6a 00		 push	 0
  0003e	6a 00		 push	 0
  00040	8b 45 14	 mov	 eax, DWORD PTR _nLength$[ebp]
  00043	50		 push	 eax
  00044	8b 4d 10	 mov	 ecx, DWORD PTR _pszSrc$[ebp]
  00047	51		 push	 ecx
  00048	6a 00		 push	 0
  0004a	e8 00 00 00 00	 call	 ?_AtlGetConversionACP@ATL@@YGIXZ ; ATL::_AtlGetConversionACP
  0004f	50		 push	 eax
  00050	ff 15 00 00 00
	00		 call	 DWORD PTR __imp__WideCharToMultiByte@32
  00056	89 85 60 ff ff
	ff		 mov	 DWORD PTR _nLengthA$[ebp], eax

; 229  : 	pszA.Allocate(nLengthA);

  0005c	8b 95 60 ff ff
	ff		 mov	 edx, DWORD PTR _nLengthA$[ebp]
  00062	52		 push	 edx
  00063	8d 8d 64 ff ff
	ff		 lea	 ecx, DWORD PTR _pszA$[ebp]
  00069	e8 00 00 00 00	 call	 ?Allocate@?$CTempBuffer@D$0IA@VCCRTAllocator@ATL@@@ATL@@QAEPADI@Z ; ATL::CTempBuffer<char,128,ATL::CCRTAllocator>::Allocate

; 230  : 	::WideCharToMultiByte(_AtlGetConversionACP(), 0, pszSrc, nLength, pszA, nLengthA, NULL, NULL);

  0006e	6a 00		 push	 0
  00070	6a 00		 push	 0
  00072	8b 85 60 ff ff
	ff		 mov	 eax, DWORD PTR _nLengthA$[ebp]
  00078	50		 push	 eax
  00079	8d 8d 64 ff ff
	ff		 lea	 ecx, DWORD PTR _pszA$[ebp]
  0007f	e8 00 00 00 00	 call	 ??B?$CTempBuffer@D$0IA@VCCRTAllocator@ATL@@@ATL@@QBEPADXZ ; ATL::CTempBuffer<char,128,ATL::CCRTAllocator>::operator char *
  00084	50		 push	 eax
  00085	8b 4d 14	 mov	 ecx, DWORD PTR _nLength$[ebp]
  00088	51		 push	 ecx
  00089	8b 55 10	 mov	 edx, DWORD PTR _pszSrc$[ebp]
  0008c	52		 push	 edx
  0008d	6a 00		 push	 0
  0008f	e8 00 00 00 00	 call	 ?_AtlGetConversionACP@ATL@@YGIXZ ; ATL::_AtlGetConversionACP
  00094	50		 push	 eax
  00095	ff 15 00 00 00
	00		 call	 DWORD PTR __imp__WideCharToMultiByte@32

; 231  : 
; 232  : 	if (nLength == -1)

  0009b	83 7d 14 ff	 cmp	 DWORD PTR _nLength$[ebp], -1
  0009f	75 0a		 jne	 SHORT $L25804

; 233  : 		nLengthA = -1;

  000a1	c7 85 60 ff ff
	ff ff ff ff ff	 mov	 DWORD PTR _nLengthA$[ebp], -1
$L25804:

; 234  : 
; 235  : 	return ::GetStringTypeExA(lcid, dwInfoType, pszA, nLengthA, pwCharType);

  000ab	8b 45 18	 mov	 eax, DWORD PTR _pwCharType$[ebp]
  000ae	50		 push	 eax
  000af	8b 8d 60 ff ff
	ff		 mov	 ecx, DWORD PTR _nLengthA$[ebp]
  000b5	51		 push	 ecx
  000b6	8d 8d 64 ff ff
	ff		 lea	 ecx, DWORD PTR _pszA$[ebp]
  000bc	e8 00 00 00 00	 call	 ??B?$CTempBuffer@D$0IA@VCCRTAllocator@ATL@@@ATL@@QBEPADXZ ; ATL::CTempBuffer<char,128,ATL::CCRTAllocator>::operator char *
  000c1	50		 push	 eax
  000c2	8b 55 0c	 mov	 edx, DWORD PTR _dwInfoType$[ebp]
  000c5	52		 push	 edx
  000c6	8b 45 08	 mov	 eax, DWORD PTR _lcid$[ebp]
  000c9	50		 push	 eax
  000ca	ff 15 00 00 00
	00		 call	 DWORD PTR __imp__GetStringTypeExA@20
  000d0	89 85 5c ff ff
	ff		 mov	 DWORD PTR $T202668[ebp], eax
  000d6	c7 45 fc ff ff
	ff ff		 mov	 DWORD PTR __$EHRec$[ebp+8], -1
  000dd	8d 8d 64 ff ff
	ff		 lea	 ecx, DWORD PTR _pszA$[ebp]
  000e3	e8 00 00 00 00	 call	 ??1?$CTempBuffer@D$0IA@VCCRTAllocator@ATL@@@ATL@@QAE@XZ ; ATL::CTempBuffer<char,128,ATL::CCRTAllocator>::~CTempBuffer<char,128,ATL::CCRTAllocator>
  000e8	8b 85 5c ff ff
	ff		 mov	 eax, DWORD PTR $T202668[ebp]

; 236  : }

  000ee	8b 4d f4	 mov	 ecx, DWORD PTR __$EHRec$[ebp]
  000f1	64 89 0d 00 00
	00 00		 mov	 DWORD PTR fs:__except_list, ecx
  000f8	8b 4d f0	 mov	 ecx, DWORD PTR __$ArrayPad$[ebp]
  000fb	e8 00 00 00 00	 call	 @__security_check_cookie@4
  00100	8b e5		 mov	 esp, ebp
  00102	5d		 pop	 ebp
  00103	c2 14 00	 ret	 20			; 00000014H
_TEXT	ENDS
;	COMDAT text$x
text$x	SEGMENT
$L202669:
  00000	8d 8d 64 ff ff
	ff		 lea	 ecx, DWORD PTR _pszA$[ebp]
  00006	e9 00 00 00 00	 jmp	 ??1?$CTempBuffer@D$0IA@VCCRTAllocator@ATL@@@ATL@@QAE@XZ ; ATL::CTempBuffer<char,128,ATL::CCRTAllocator>::~CTempBuffer<char,128,ATL::CCRTAllocator>
__ehhandler$?GetStringTypeExWFake@ATL@@YGHKKPB_WHPAG@Z:
  0000b	b8 00 00 00 00	 mov	 eax, OFFSET FLAT:$T202671
  00010	e9 00 00 00 00	 jmp	 ___CxxFrameHandler
text$x	ENDS
?GetStringTypeExWFake@ATL@@YGHKKPB_WHPAG@Z ENDP		; ATL::GetStringTypeExWFake
PUBLIC	?lstrcmpiWFake@ATL@@YGHPB_W0@Z			; ATL::lstrcmpiWFake
EXTRN	__imp__lstrcmpiW@8:NEAR
; Function compile flags: /Odt
;	COMDAT ?lstrcmpiWThunk@ATL@@YGHPB_W0@Z
_TEXT	SEGMENT
_psz1$ = 8						; size = 4
_psz2$ = 12						; size = 4
?lstrcmpiWThunk@ATL@@YGHPB_W0@Z PROC NEAR		; ATL::lstrcmpiWThunk, COMDAT

; 254  : {

  00000	55		 push	 ebp
  00001	8b ec		 mov	 ebp, esp

; 255  : 	_AtlInstallStringThunk(reinterpret_cast<void**>(&_strthunks.pfnlstrcmpiW), lstrcmpiWFake, ::lstrcmpiW);

  00003	a1 00 00 00 00	 mov	 eax, DWORD PTR __imp__lstrcmpiW@8
  00008	50		 push	 eax
  00009	68 00 00 00 00	 push	 OFFSET FLAT:?lstrcmpiWFake@ATL@@YGHPB_W0@Z ; ATL::lstrcmpiWFake
  0000e	68 08 00 00 00	 push	 OFFSET FLAT:?_strthunks@ATL@@3U_AtlStringThunks@1@A+8
  00013	e8 00 00 00 00	 call	 ?_AtlInstallStringThunk@ATL@@YAXPAPAXPAX1@Z ; ATL::_AtlInstallStringThunk
  00018	83 c4 0c	 add	 esp, 12			; 0000000cH

; 256  : 
; 257  : 	return _strthunks.pfnlstrcmpiW(psz1, psz2);

  0001b	8b 4d 0c	 mov	 ecx, DWORD PTR _psz2$[ebp]
  0001e	51		 push	 ecx
  0001f	8b 55 08	 mov	 edx, DWORD PTR _psz1$[ebp]
  00022	52		 push	 edx
  00023	ff 15 08 00 00
	00		 call	 DWORD PTR ?_strthunks@ATL@@3U_AtlStringThunks@1@A+8

; 258  : }

  00029	5d		 pop	 ebp
  0002a	c2 08 00	 ret	 8
?lstrcmpiWThunk@ATL@@YGHPB_W0@Z ENDP			; ATL::lstrcmpiWThunk
_TEXT	ENDS
EXTRN	__imp__lstrcmpiA@8:NEAR
; Function compile flags: /Odt
;	COMDAT ?lstrcmpiWFake@ATL@@YGHPB_W0@Z
_TEXT	SEGMENT
tv91 = -32						; size = 4
tv94 = -28						; size = 4
tv76 = -24						; size = 4
tv79 = -20						; size = 4
__acp$ = -12						; size = 4
__lpw$ = -8						; size = 4
__convert$ = -4						; size = 4
_psz1$ = 8						; size = 4
_psz2$ = 12						; size = 4
?lstrcmpiWFake@ATL@@YGHPB_W0@Z PROC NEAR		; ATL::lstrcmpiWFake, COMDAT

; 247  : {

  00000	55		 push	 ebp
  00001	8b ec		 mov	 ebp, esp
  00003	83 ec 20	 sub	 esp, 32			; 00000020H

; 248  : 	USES_CONVERSION;

  00006	e8 00 00 00 00	 call	 ?_AtlGetConversionACP@ATL@@YGIXZ ; ATL::_AtlGetConversionACP
  0000b	89 45 f4	 mov	 DWORD PTR __acp$[ebp], eax

; 249  : 
; 250  : 	return ::lstrcmpiA(W2A(psz1), W2A(psz2));

  0000e	8b 45 0c	 mov	 eax, DWORD PTR _psz2$[ebp]
  00011	89 45 f8	 mov	 DWORD PTR __lpw$[ebp], eax
  00014	83 7d f8 00	 cmp	 DWORD PTR __lpw$[ebp], 0
  00018	75 09		 jne	 SHORT $L202681
  0001a	c7 45 ec 00 00
	00 00		 mov	 DWORD PTR tv79[ebp], 0
  00021	eb 3a		 jmp	 SHORT $L202682
$L202681:
  00023	8b 4d f8	 mov	 ecx, DWORD PTR __lpw$[ebp]
  00026	51		 push	 ecx
  00027	ff 15 00 00 00
	00		 call	 DWORD PTR __imp__lstrlenW@4
  0002d	8d 54 00 02	 lea	 edx, DWORD PTR [eax+eax+2]
  00031	89 55 fc	 mov	 DWORD PTR __convert$[ebp], edx
  00034	8b 45 fc	 mov	 eax, DWORD PTR __convert$[ebp]
  00037	83 c0 03	 add	 eax, 3
  0003a	83 e0 fc	 and	 eax, -4			; fffffffcH
  0003d	e8 00 00 00 00	 call	 __alloca_probe
  00042	89 65 e8	 mov	 DWORD PTR tv76[ebp], esp
  00045	8b 45 f4	 mov	 eax, DWORD PTR __acp$[ebp]
  00048	50		 push	 eax
  00049	8b 4d fc	 mov	 ecx, DWORD PTR __convert$[ebp]
  0004c	51		 push	 ecx
  0004d	8b 55 f8	 mov	 edx, DWORD PTR __lpw$[ebp]
  00050	52		 push	 edx
  00051	8b 45 e8	 mov	 eax, DWORD PTR tv76[ebp]
  00054	50		 push	 eax
  00055	e8 00 00 00 00	 call	 ?AtlW2AHelper@@YGPADPADPB_WHI@Z ; AtlW2AHelper
  0005a	89 45 ec	 mov	 DWORD PTR tv79[ebp], eax
$L202682:
  0005d	8b 4d 08	 mov	 ecx, DWORD PTR _psz1$[ebp]
  00060	89 4d f8	 mov	 DWORD PTR __lpw$[ebp], ecx
  00063	83 7d f8 00	 cmp	 DWORD PTR __lpw$[ebp], 0
  00067	75 09		 jne	 SHORT $L202683
  00069	c7 45 e4 00 00
	00 00		 mov	 DWORD PTR tv94[ebp], 0
  00070	eb 3a		 jmp	 SHORT $L202684
$L202683:
  00072	8b 55 f8	 mov	 edx, DWORD PTR __lpw$[ebp]
  00075	52		 push	 edx
  00076	ff 15 00 00 00
	00		 call	 DWORD PTR __imp__lstrlenW@4
  0007c	8d 44 00 02	 lea	 eax, DWORD PTR [eax+eax+2]
  00080	89 45 fc	 mov	 DWORD PTR __convert$[ebp], eax
  00083	8b 45 fc	 mov	 eax, DWORD PTR __convert$[ebp]
  00086	83 c0 03	 add	 eax, 3
  00089	83 e0 fc	 and	 eax, -4			; fffffffcH
  0008c	e8 00 00 00 00	 call	 __alloca_probe
  00091	89 65 e0	 mov	 DWORD PTR tv91[ebp], esp
  00094	8b 4d f4	 mov	 ecx, DWORD PTR __acp$[ebp]
  00097	51		 push	 ecx
  00098	8b 55 fc	 mov	 edx, DWORD PTR __convert$[ebp]
  0009b	52		 push	 edx
  0009c	8b 45 f8	 mov	 eax, DWORD PTR __lpw$[ebp]
  0009f	50		 push	 eax
  000a0	8b 4d e0	 mov	 ecx, DWORD PTR tv91[ebp]
  000a3	51		 push	 ecx
  000a4	e8 00 00 00 00	 call	 ?AtlW2AHelper@@YGPADPADPB_WHI@Z ; AtlW2AHelper
  000a9	89 45 e4	 mov	 DWORD PTR tv94[ebp], eax
$L202684:
  000ac	8b 55 ec	 mov	 edx, DWORD PTR tv79[ebp]
  000af	52		 push	 edx
  000b0	8b 45 e4	 mov	 eax, DWORD PTR tv94[ebp]
  000b3	50		 push	 eax
  000b4	ff 15 00 00 00
	00		 call	 DWORD PTR __imp__lstrcmpiA@8

; 251  : }

  000ba	8d 65 e0	 lea	 esp, DWORD PTR [ebp-32]
  000bd	8b e5		 mov	 esp, ebp
  000bf	5d		 pop	 ebp
  000c0	c2 08 00	 ret	 8
?lstrcmpiWFake@ATL@@YGHPB_W0@Z ENDP			; ATL::lstrcmpiWFake
_TEXT	ENDS
PUBLIC	?CharLowerWFake@ATL@@YGPA_WPA_W@Z		; ATL::CharLowerWFake
EXTRN	__imp__CharLowerW@4:NEAR
; Function compile flags: /Odt
;	COMDAT ?CharLowerWThunk@ATL@@YGPA_WPA_W@Z
_TEXT	SEGMENT
_psz$ = 8						; size = 4
?CharLowerWThunk@ATL@@YGPA_WPA_W@Z PROC NEAR		; ATL::CharLowerWThunk, COMDAT

; 273  : {

  00000	55		 push	 ebp
  00001	8b ec		 mov	 ebp, esp

; 274  : 	_AtlInstallStringThunk(reinterpret_cast<void**>(&_strthunks.pfnCharLowerW), CharLowerWFake, ::CharLowerW);

  00003	a1 00 00 00 00	 mov	 eax, DWORD PTR __imp__CharLowerW@4
  00008	50		 push	 eax
  00009	68 00 00 00 00	 push	 OFFSET FLAT:?CharLowerWFake@ATL@@YGPA_WPA_W@Z ; ATL::CharLowerWFake
  0000e	68 0c 00 00 00	 push	 OFFSET FLAT:?_strthunks@ATL@@3U_AtlStringThunks@1@A+12
  00013	e8 00 00 00 00	 call	 ?_AtlInstallStringThunk@ATL@@YAXPAPAXPAX1@Z ; ATL::_AtlInstallStringThunk
  00018	83 c4 0c	 add	 esp, 12			; 0000000cH

; 275  : 
; 276  : 	return _strthunks.pfnCharLowerW(psz);

  0001b	8b 4d 08	 mov	 ecx, DWORD PTR _psz$[ebp]
  0001e	51		 push	 ecx
  0001f	ff 15 0c 00 00
	00		 call	 DWORD PTR ?_strthunks@ATL@@3U_AtlStringThunks@1@A+12

; 277  : }

  00025	5d		 pop	 ebp
  00026	c2 04 00	 ret	 4
?CharLowerWThunk@ATL@@YGPA_WPA_W@Z ENDP			; ATL::CharLowerWThunk
_TEXT	ENDS
PUBLIC	?AtlA2WHelper@@YGPA_WPA_WPBDHI@Z		; AtlA2WHelper
EXTRN	__imp__lstrlenA@4:NEAR
EXTRN	__imp__CharLowerA@4:NEAR
EXTRN	__imp__wcscpy:NEAR
; Function compile flags: /Odt
;	COMDAT ?CharLowerWFake@ATL@@YGPA_WPA_W@Z
_TEXT	SEGMENT
tv90 = -36						; size = 4
tv94 = -32						; size = 4
tv75 = -28						; size = 4
tv78 = -24						; size = 4
__lpa$ = -20						; size = 4
__acp$ = -16						; size = 4
_pszA$ = -12						; size = 4
__lpw$ = -8						; size = 4
__convert$ = -4						; size = 4
_psz$ = 8						; size = 4
?CharLowerWFake@ATL@@YGPA_WPA_W@Z PROC NEAR		; ATL::CharLowerWFake, COMDAT

; 261  : {

  00000	55		 push	 ebp
  00001	8b ec		 mov	 ebp, esp
  00003	83 ec 24	 sub	 esp, 36			; 00000024H

; 262  : 	USES_CONVERSION;

  00006	e8 00 00 00 00	 call	 ?_AtlGetConversionACP@ATL@@YGIXZ ; ATL::_AtlGetConversionACP
  0000b	89 45 f0	 mov	 DWORD PTR __acp$[ebp], eax

; 263  : 	LPSTR pszA;
; 264  : 
; 265  : 	pszA = W2A(psz);

  0000e	8b 45 08	 mov	 eax, DWORD PTR _psz$[ebp]
  00011	89 45 f8	 mov	 DWORD PTR __lpw$[ebp], eax
  00014	83 7d f8 00	 cmp	 DWORD PTR __lpw$[ebp], 0
  00018	75 09		 jne	 SHORT $L202689
  0001a	c7 45 e8 00 00
	00 00		 mov	 DWORD PTR tv78[ebp], 0
  00021	eb 3a		 jmp	 SHORT $L202690
$L202689:
  00023	8b 4d f8	 mov	 ecx, DWORD PTR __lpw$[ebp]
  00026	51		 push	 ecx
  00027	ff 15 00 00 00
	00		 call	 DWORD PTR __imp__lstrlenW@4
  0002d	8d 54 00 02	 lea	 edx, DWORD PTR [eax+eax+2]
  00031	89 55 fc	 mov	 DWORD PTR __convert$[ebp], edx
  00034	8b 45 fc	 mov	 eax, DWORD PTR __convert$[ebp]
  00037	83 c0 03	 add	 eax, 3
  0003a	83 e0 fc	 and	 eax, -4			; fffffffcH
  0003d	e8 00 00 00 00	 call	 __alloca_probe
  00042	89 65 e4	 mov	 DWORD PTR tv75[ebp], esp
  00045	8b 45 f0	 mov	 eax, DWORD PTR __acp$[ebp]
  00048	50		 push	 eax
  00049	8b 4d fc	 mov	 ecx, DWORD PTR __convert$[ebp]
  0004c	51		 push	 ecx
  0004d	8b 55 f8	 mov	 edx, DWORD PTR __lpw$[ebp]
  00050	52		 push	 edx
  00051	8b 45 e4	 mov	 eax, DWORD PTR tv75[ebp]
  00054	50		 push	 eax
  00055	e8 00 00 00 00	 call	 ?AtlW2AHelper@@YGPADPADPB_WHI@Z ; AtlW2AHelper
  0005a	89 45 e8	 mov	 DWORD PTR tv78[ebp], eax
$L202690:
  0005d	8b 4d e8	 mov	 ecx, DWORD PTR tv78[ebp]
  00060	89 4d f4	 mov	 DWORD PTR _pszA$[ebp], ecx

; 266  : 	::CharLowerA(pszA);
