; Listing generated by Microsoft (R) Optimizing Compiler Version 13.10.3077 

	TITLE	.\src\module\GamePanel\WebGamePanelWnd.cpp
	.386P
include listing.inc
if @Version gt 510
.model FLAT
else
_TEXT	SEGMENT PARA USE32 PUBLIC 'CODE'
_TEXT	ENDS
_DATA	SEGMENT DWORD USE32 PUBLIC 'DATA'
_DATA	ENDS
CONST	SEGMENT DWORD USE32 PUBLIC 'CONST'
CONST	ENDS
_BSS	SEGMENT DWORD USE32 PUBLIC 'BSS'
_BSS	ENDS
$$SYMBOLS	SEGMENT BYTE USE32 'DEBSYM'
$$SYMBOLS	ENDS
$$TYPES	SEGMENT BYTE USE32 'DEBTYP'
$$TYPES	ENDS
_TLS	SEGMENT DWORD USE32 PUBLIC 'TLS'
_TLS	ENDS
;	COMDAT ??_C@_0P@CLMBAKJD@JSCall?5Error?3?6?$AA@
CONST	SEGMENT DWORD USE32 PUBLIC 'CONST'
CONST	ENDS
rdata$r	SEGMENT DWORD USE32 PUBLIC 'CONST'
rdata$r	ENDS
xdata$x	SEGMENT DWORD USE32 PUBLIC 'CONST'
xdata$x	ENDS
text$AFX_COL1	SEGMENT PARA USE32 PUBLIC ''
text$AFX_COL1	ENDS
text$yc	SEGMENT PARA USE32 PUBLIC 'CODE'
text$yc	ENDS
CRT$XCA	SEGMENT DWORD USE32 PUBLIC 'DATA'
CRT$XCA	ENDS
CRT$XCU	SEGMENT DWORD USE32 PUBLIC 'DATA'
CRT$XCU	ENDS
CRT$XCL	SEGMENT DWORD USE32 PUBLIC 'DATA'
CRT$XCL	ENDS
CRT$XCC	SEGMENT DWORD USE32 PUBLIC 'DATA'
CRT$XCC	ENDS
CRT$XCZ	SEGMENT DWORD USE32 PUBLIC 'DATA'
CRT$XCZ	ENDS
text$yd	SEGMENT PARA USE32 PUBLIC 'CODE'
text$yd	ENDS
ATL$__m	SEGMENT DWORD USE32 PUBLIC ''
ATL$__m	ENDS
ATL$__z	SEGMENT DWORD USE32 PUBLIC ''
ATL$__z	ENDS
ATL$__a	SEGMENT DWORD USE32 PUBLIC ''
ATL$__a	ENDS
;	COMDAT ?IPanelChangeOb_WindowMax@IPanelChangeObserver@@UAEXXZ
_TEXT	SEGMENT PARA USE32 PUBLIC 'CODE'
_TEXT	ENDS
;	COMDAT ?IPanelChangeOb_WindowMin@IPanelChangeObserver@@UAEXXZ
_TEXT	SEGMENT PARA USE32 PUBLIC 'CODE'
_TEXT	ENDS
;	COMDAT ?IPanelChangeOb_WindowRestore@IPanelChangeObserver@@UAEXXZ
_TEXT	SEGMENT PARA USE32 PUBLIC 'CODE'
_TEXT	ENDS
;	COMDAT ?IPanelChangeOb_WindowClose@IPanelChangeObserver@@UAEXXZ
_TEXT	SEGMENT PARA USE32 PUBLIC 'CODE'
_TEXT	ENDS
;	COMDAT ?IPanelChangeOb_ToFullScreen@IPanelChangeObserver@@UAEXPAVCWnd@@@Z
_TEXT	SEGMENT PARA USE32 PUBLIC 'CODE'
_TEXT	ENDS
;	COMDAT ?IPanelChangeOb_ExitFullScreen@IPanelChangeObserver@@UAEXPAVCWnd@@@Z
_TEXT	SEGMENT PARA USE32 PUBLIC 'CODE'
_TEXT	ENDS
;	COMDAT ?GetClsid@CShockwaveFlash@@QAEABU_GUID@@XZ
_TEXT	SEGMENT PARA USE32 PUBLIC 'CODE'
_TEXT	ENDS
;	COMDAT ??0CCustomControlSite@@QAE@PAVCOleControlContainer@@@Z
_TEXT	SEGMENT PARA USE32 PUBLIC 'CODE'
_TEXT	ENDS
;	COMDAT ??_GCCustomControlSite@@UAEPAXI@Z
_TEXT	SEGMENT PARA USE32 PUBLIC 'CODE'
_TEXT	ENDS
;	COMDAT ??0XDocHostShowUI@CCustomControlSite@@QAE@XZ
_TEXT	SEGMENT PARA USE32 PUBLIC 'CODE'
_TEXT	ENDS
;	COMDAT ??0XDocHostUIHandler@CCustomControlSite@@QAE@XZ
_TEXT	SEGMENT PARA USE32 PUBLIC 'CODE'
_TEXT	ENDS
;	COMDAT ??1CCustomControlSite@@UAE@XZ
_TEXT	SEGMENT PARA USE32 PUBLIC 'CODE'
_TEXT	ENDS
;	COMDAT ??0IDocHostShowUI@@QAE@XZ
_TEXT	SEGMENT PARA USE32 PUBLIC 'CODE'
_TEXT	ENDS
;	COMDAT ??0IDocHostUIHandler@@QAE@XZ
_TEXT	SEGMENT PARA USE32 PUBLIC 'CODE'
_TEXT	ENDS
;	COMDAT ?CreateSite@CCustomOccManager@@UAEPAVCOleControlSite@@PAVCOleControlContainer@@@Z
_TEXT	SEGMENT PARA USE32 PUBLIC 'CODE'
_TEXT	ENDS
;	COMDAT ??_GCCustomOccManager@@UAEPAXI@Z
_TEXT	SEGMENT PARA USE32 PUBLIC 'CODE'
_TEXT	ENDS
;	COMDAT ??0COccManager@@QAE@XZ
_TEXT	SEGMENT PARA USE32 PUBLIC 'CODE'
_TEXT	ENDS
;	COMDAT ??1COccManager@@UAE@XZ
_TEXT	SEGMENT PARA USE32 PUBLIC 'CODE'
_TEXT	ENDS
;	COMDAT ??1CCustomOccManager@@UAE@XZ
_TEXT	SEGMENT PARA USE32 PUBLIC 'CODE'
_TEXT	ENDS
;	COMDAT ??_GCOccManager@@UAEPAXI@Z
_TEXT	SEGMENT PARA USE32 PUBLIC 'CODE'
_TEXT	ENDS
;	COMDAT ??0CNoTrackObject@@QAE@XZ
_TEXT	SEGMENT PARA USE32 PUBLIC 'CODE'
_TEXT	ENDS
;	COMDAT _$E5
text$yc	SEGMENT PARA USE32 PUBLIC 'CODE'
text$yc	ENDS
;	COMDAT ??1IData@@MAE@XZ
_TEXT	SEGMENT PARA USE32 PUBLIC 'CODE'
_TEXT	ENDS
;	COMDAT ?DataAppStart@IData@@UAEXXZ
_TEXT	SEGMENT PARA USE32 PUBLIC 'CODE'
_TEXT	ENDS
;	COMDAT ?DataAppExit@IData@@UAEXXZ
_TEXT	SEGMENT PARA USE32 PUBLIC 'CODE'
_TEXT	ENDS
;	COMDAT ??_GIData@@MAEPAXI@Z
_TEXT	SEGMENT PARA USE32 PUBLIC 'CODE'
_TEXT	ENDS
;	COMDAT ?clear@OneLocalGame@@QAEXXZ
_TEXT	SEGMENT PARA USE32 PUBLIC 'CODE'
_TEXT	ENDS
;	COMDAT ??_GWebGamePanelWnd@@UAEPAXI@Z
_TEXT	SEGMENT PARA USE32 PUBLIC 'CODE'
_TEXT	ENDS
;	COMDAT ??0IPanelChangeObserver@@QAE@XZ
_TEXT	SEGMENT PARA USE32 PUBLIC 'CODE'
_TEXT	ENDS
;	COMDAT ??1IPanelChangeObserver@@UAE@XZ
_TEXT	SEGMENT PARA USE32 PUBLIC 'CODE'
_TEXT	ENDS
;	COMDAT ??0WEB_GAME@@QAE@XZ
_TEXT	SEGMENT PARA USE32 PUBLIC 'CODE'
_TEXT	ENDS
;	COMDAT ??1WEB_GAME@@QAE@XZ
_TEXT	SEGMENT PARA USE32 PUBLIC 'CODE'
_TEXT	ENDS
;	COMDAT ??_GIPanelChangeObserver@@UAEPAXI@Z
_TEXT	SEGMENT PARA USE32 PUBLIC 'CODE'
_TEXT	ENDS
;	COMDAT ??0IMessageObserver@@QAE@XZ
_TEXT	SEGMENT PARA USE32 PUBLIC 'CODE'
_TEXT	ENDS
;	COMDAT ??1TAB_ITEM@@QAE@XZ
_TEXT	SEGMENT PARA USE32 PUBLIC 'CODE'
_TEXT	ENDS
;	COMDAT ??0WEB_GAME@@QAE@ABU0@@Z
_TEXT	SEGMENT PARA USE32 PUBLIC 'CODE'
_TEXT	ENDS
;	COMDAT ??HATL@@YA?AV?$CStringT@DV?$StrTraitMFC_DLL@DV?$ChTraitsCRT@D@ATL@@@@@0@PBDABV10@@Z
_TEXT	SEGMENT PARA USE32 PUBLIC 'CODE'
_TEXT	ENDS
;	COMDAT ??B?$CComPtrBase@UITypeInfo2@@@ATL@@QBEPAUITypeInfo2@@XZ
_TEXT	SEGMENT PARA USE32 PUBLIC 'CODE'
_TEXT	ENDS
;	COMDAT ??B?$CComPtrBase@UIHTMLDocument2@@@ATL@@QBEPAUIHTMLDocument2@@XZ
_TEXT	SEGMENT PARA USE32 PUBLIC 'CODE'
_TEXT	ENDS
;	COMDAT ?equal@?$istreambuf_iterator@DU?$char_traits@D@std@@@std@@QBE_NABV12@@Z
_TEXT	SEGMENT PARA USE32 PUBLIC 'CODE'
_TEXT	ENDS
;	COMDAT ?equal@?$istreambuf_iterator@_WU?$char_traits@_W@std@@@std@@QBE_NABV12@@Z
_TEXT	SEGMENT PARA USE32 PUBLIC 'CODE'
_TEXT	ENDS
;	COMDAT ??0iterator@?$basic_string@DU?$char_traits@D@std@@V?$allocator@D@2@@std@@QAE@PAD@Z
_TEXT	SEGMENT PARA USE32 PUBLIC 'CODE'
_TEXT	ENDS
;	COMDAT ??0const_iterator@?$basic_string@DU?$char_traits@D@std@@V?$allocator@D@2@@std@@QAE@PBD@Z
_TEXT	SEGMENT PARA USE32 PUBLIC 'CODE'
_TEXT	ENDS
;	COMDAT ??Gconst_iterator@?$basic_string@DU?$char_traits@D@std@@V?$allocator@D@2@@std@@QBEHABV012@@Z
_TEXT	SEGMENT PARA USE32 PUBLIC 'CODE'
_TEXT	ENDS
;	COMDAT ?Unlock@?$CComCritSecLock@VCComCriticalSection@ATL@@@ATL@@QAEXXZ
_TEXT	SEGMENT PARA USE32 PUBLIC 'CODE'
_TEXT	ENDS
;	COMDAT ??$_Maklocstr@D@std@@YAPADPBDPADABU_Cvtvec@@@Z
_TEXT	SEGMENT PARA USE32 PUBLIC 'CODE'
_TEXT	ENDS
;	COMDAT ??_EWebGamePanelWnd@@WFE@AEPAXI@Z
_TEXT	SEGMENT PARA USE32 PUBLIC 'CODE'
_TEXT	ENDS
;	COMDAT ??_R3IData@@8
rdata$r	SEGMENT DWORD USE32 PUBLIC 'CONST'
rdata$r	ENDS
;	COMDAT ??_R3IDocHostShowUI@@8
rdata$r	SEGMENT DWORD USE32 PUBLIC 'CONST'
rdata$r	ENDS
;	COMDAT ??_R3IDocHostUIHandler@@8
rdata$r	SEGMENT DWORD USE32 PUBLIC 'CONST'
rdata$r	ENDS
;	COMDAT ??_R3WebGamePanelWnd@@8
rdata$r	SEGMENT DWORD USE32 PUBLIC 'CONST'
rdata$r	ENDS
;	COMDAT ??_R3XDocHostUIHandler@CCustomControlSite@@8
rdata$r	SEGMENT DWORD USE32 PUBLIC 'CONST'
rdata$r	ENDS
;	COMDAT ??_R3CCustomOccManager@@8
rdata$r	SEGMENT DWORD USE32 PUBLIC 'CONST'
rdata$r	ENDS
;	COMDAT ??_R3IPanelChangeObserver@@8
rdata$r	SEGMENT DWORD USE32 PUBLIC 'CONST'
rdata$r	ENDS
;	COMDAT ??_R3XDocHostShowUI@CCustomControlSite@@8
rdata$r	SEGMENT DWORD USE32 PUBLIC 'CONST'
rdata$r	ENDS
;	COMDAT ??_R3CCustomControlSite@@8
rdata$r	SEGMENT DWORD USE32 PUBLIC 'CONST'
rdata$r	ENDS
;	COMDAT ??_R3COccManager@@8
rdata$r	SEGMENT DWORD USE32 PUBLIC 'CONST'
rdata$r	ENDS
;	COMDAT ??_R3?$numpunct@_W@std@@8
rdata$r	SEGMENT DWORD USE32 PUBLIC 'CONST'
rdata$r	ENDS
;	COMDAT ??_R3?$numpunct@D@std@@8
rdata$r	SEGMENT DWORD USE32 PUBLIC 'CONST'
rdata$r	ENDS
;	COMDAT ??_R2IData@@8
rdata$r	SEGMENT DWORD USE32 PUBLIC 'CONST'
rdata$r	ENDS
;	COMDAT ??_R2IDocHostShowUI@@8
rdata$r	SEGMENT DWORD USE32 PUBLIC 'CONST'
rdata$r	ENDS
;	COMDAT ??_R2IDocHostUIHandler@@8
rdata$r	SEGMENT DWORD USE32 PUBLIC 'CONST'
rdata$r	ENDS
;	COMDAT ??_R2WebGamePanelWnd@@8
rdata$r	SEGMENT DWORD USE32 PUBLIC 'CONST'
rdata$r	ENDS
;	COMDAT ??_R2XDocHostUIHandler@CCustomControlSite@@8
rdata$r	SEGMENT DWORD USE32 PUBLIC 'CONST'
rdata$r	ENDS
;	COMDAT ??_R2CCustomOccManager@@8
rdata$r	SEGMENT DWORD USE32 PUBLIC 'CONST'
rdata$r	ENDS
;	COMDAT ??_R2IPanelChangeObserver@@8
rdata$r	SEGMENT DWORD USE32 PUBLIC 'CONST'
rdata$r	ENDS
;	COMDAT ??_R2XDocHostShowUI@CCustomControlSite@@8
rdata$r	SEGMENT DWORD USE32 PUBLIC 'CONST'
rdata$r	ENDS
;	COMDAT ??_R2CCustomControlSite@@8
rdata$r	SEGMENT DWORD USE32 PUBLIC 'CONST'
rdata$r	ENDS
;	COMDAT ??_R2COccManager@@8
rdata$r	SEGMENT DWORD USE32 PUBLIC 'CONST'
rdata$r	ENDS
;	COMDAT ??_R2?$numpunct@_W@std@@8
rdata$r	SEGMENT DWORD USE32 PUBLIC 'CONST'
rdata$r	ENDS
;	COMDAT ??_R2?$numpunct@D@std@@8
rdata$r	SEGMENT DWORD USE32 PUBLIC 'CONST'
rdata$r	ENDS
;	COMDAT ??_R1A@?0A@A@IData@@8
rdata$r	SEGMENT DWORD USE32 PUBLIC 'CONST'
rdata$r	ENDS
;	COMDAT ??_R1FE@?0A@A@IMessageObserver@@8
rdata$r	SEGMENT DWORD USE32 PUBLIC 'CONST'
rdata$r	ENDS
;	COMDAT ??_R1FE@?0A@A@IPanelChangeObserver@@8
rdata$r	SEGMENT DWORD USE32 PUBLIC 'CONST'
rdata$r	ENDS
;	COMDAT ??_R1A@?0A@A@CWnd@@8
rdata$r	SEGMENT DWORD USE32 PUBLIC 'CONST'
rdata$r	ENDS
;	COMDAT ??_R0?AVCWnd@@@8
_DATA	SEGMENT DWORD USE32 PUBLIC 'DATA'
_DATA	ENDS
;	COMDAT ??_R1A@?0A@A@CBasicWnd@@8
rdata$r	SEGMENT DWORD USE32 PUBLIC 'CONST'
rdata$r	ENDS
;	COMDAT ??_R1A@?0A@A@WebGamePanelWnd@@8
rdata$r	SEGMENT DWORD USE32 PUBLIC 'CONST'
rdata$r	ENDS
;	COMDAT ??_R1A@?0A@A@IDocHostUIHandler@@8
rdata$r	SEGMENT DWORD USE32 PUBLIC 'CONST'
rdata$r	ENDS
;	COMDAT ??_R1A@?0A@A@XDocHostUIHandler@CCustomControlSite@@8
rdata$r	SEGMENT DWORD USE32 PUBLIC 'CONST'
rdata$r	ENDS
;	COMDAT ??_R1A@?0A@A@CCustomOccManager@@8
rdata$r	SEGMENT DWORD USE32 PUBLIC 'CONST'
rdata$r	ENDS
;	COMDAT ??_R1A@?0A@A@IMessageObserver@@8
rdata$r	SEGMENT DWORD USE32 PUBLIC 'CONST'
rdata$r	ENDS
;	COMDAT ??_R1A@?0A@A@IPanelChangeObserver@@8
rdata$r	SEGMENT DWORD USE32 PUBLIC 'CONST'
rdata$r	ENDS
;	COMDAT ??_R1A@?0A@A@IUnknown@@8
rdata$r	SEGMENT DWORD USE32 PUBLIC 'CONST'
rdata$r	ENDS
;	COMDAT ??_R0?AUIUnknown@@@8
_DATA	SEGMENT DWORD USE32 PUBLIC 'DATA'
_DATA	ENDS
;	COMDAT ??_R1A@?0A@A@IDocHostShowUI@@8
rdata$r	SEGMENT DWORD USE32 PUBLIC 'CONST'
rdata$r	ENDS
;	COMDAT ??_R1A@?0A@A@XDocHostShowUI@CCustomControlSite@@8
rdata$r	SEGMENT DWORD USE32 PUBLIC 'CONST'
rdata$r	ENDS
;	COMDAT ??_R1A@?0A@A@CObject@@8
rdata$r	SEGMENT DWORD USE32 PUBLIC 'CONST'
rdata$r	ENDS
;	COMDAT ??_R0?AVCObject@@@8
_DATA	SEGMENT DWORD USE32 PUBLIC 'DATA'
_DATA	ENDS
;	COMDAT ??_R1A@?0A@A@CCmdTarget@@8
rdata$r	SEGMENT DWORD USE32 PUBLIC 'CONST'
rdata$r	ENDS
;	COMDAT ??_R0?AVCCmdTarget@@@8
_DATA	SEGMENT DWORD USE32 PUBLIC 'DATA'
_DATA	ENDS
;	COMDAT ??_R1A@?0A@A@COleControlSite@@8
rdata$r	SEGMENT DWORD USE32 PUBLIC 'CONST'
rdata$r	ENDS
;	COMDAT ??_R1A@?0A@A@CCustomControlSite@@8
rdata$r	SEGMENT DWORD USE32 PUBLIC 'CONST'
rdata$r	ENDS
;	COMDAT ??_R1A@?0A@A@CNoTrackObject@@8
rdata$r	SEGMENT DWORD USE32 PUBLIC 'CONST'
rdata$r	ENDS
;	COMDAT ??_R0?AVCNoTrackObject@@@8
_DATA	SEGMENT DWORD USE32 PUBLIC 'DATA'
_DATA	ENDS
;	COMDAT ??_R1A@?0A@A@COccManager@@8
rdata$r	SEGMENT DWORD USE32 PUBLIC 'CONST'
rdata$r	ENDS
;	COMDAT ??_R1A@?0A@A@?$numpunct@_W@std@@8
rdata$r	SEGMENT DWORD USE32 PUBLIC 'CONST'
rdata$r	ENDS
;	COMDAT ??_R1A@?0A@A@facet@locale@std@@8
rdata$r	SEGMENT DWORD USE32 PUBLIC 'CONST'
rdata$r	ENDS
;	COMDAT ??_R0?AVfacet@locale@std@@@8
_DATA	SEGMENT DWORD USE32 PUBLIC 'DATA'
_DATA	ENDS
;	COMDAT ??_R1A@?0A@A@?$numpunct@D@std@@8
rdata$r	SEGMENT DWORD USE32 PUBLIC 'CONST'
rdata$r	ENDS
;	COMDAT ??_R0?AVIData@@@8
_DATA	SEGMENT DWORD USE32 PUBLIC 'DATA'
_DATA	ENDS
;	COMDAT ??_R0?AVIMessageObserver@@@8
_DATA	SEGMENT DWORD USE32 PUBLIC 'DATA'
_DATA	ENDS
;	COMDAT ??_R0?AVCBasicWnd@@@8
_DATA	SEGMENT DWORD USE32 PUBLIC 'DATA'
_DATA	ENDS
;	COMDAT ??_R0?AVWebGamePanelWnd@@@8
_DATA	SEGMENT DWORD USE32 PUBLIC 'DATA'
_DATA	ENDS
;	COMDAT ??_R0?AUIDocHostUIHandler@@@8
_DATA	SEGMENT DWORD USE32 PUBLIC 'DATA'
_DATA	ENDS
;	COMDAT ??_R0?AVXDocHostUIHandler@CCustomControlSite@@@8
_DATA	SEGMENT DWORD USE32 PUBLIC 'DATA'
_DATA	ENDS
;	COMDAT ??_R0?AVCCustomOccManager@@@8
_DATA	SEGMENT DWORD USE32 PUBLIC 'DATA'
_DATA	ENDS
;	COMDAT ??_R0?AVIPanelChangeObserver@@@8
_DATA	SEGMENT DWORD USE32 PUBLIC 'DATA'
_DATA	ENDS
;	COMDAT ??_R0?AUIDocHostShowUI@@@8
_DATA	SEGMENT DWORD USE32 PUBLIC 'DATA'
_DATA	ENDS
;	COMDAT ??_R0?AVXDocHostShowUI@CCustomControlSite@@@8
_DATA	SEGMENT DWORD USE32 PUBLIC 'DATA'
_DATA	ENDS
;	COMDAT ??_R0?AVCOleControlSite@@@8
_DATA	SEGMENT DWORD USE32 PUBLIC 'DATA'
_DATA	ENDS
;	COMDAT ??_R0?AVCCustomControlSite@@@8
_DATA	SEGMENT DWORD USE32 PUBLIC 'DATA'
_DATA	ENDS
;	COMDAT ??_R0?AVCOccManager@@@8
_DATA	SEGMENT DWORD USE32 PUBLIC 'DATA'
_DATA	ENDS
;	COMDAT ??_R0?AV?$numpunct@_W@std@@@8
_DATA	SEGMENT DWORD USE32 PUBLIC 'DATA'
_DATA	ENDS
;	COMDAT ??_R0?AV?$numpunct@D@std@@@8
_DATA	SEGMENT DWORD USE32 PUBLIC 'DATA'
_DATA	ENDS
;	COMDAT ??_R4IData@@6B@
rdata$r	SEGMENT DWORD USE32 PUBLIC 'CONST'
rdata$r	ENDS
;	COMDAT ??_R4IDocHostShowUI@@6B@
rdata$r	SEGMENT DWORD USE32 PUBLIC 'CONST'
rdata$r	ENDS
;	COMDAT ??_R4IDocHostUIHandler@@6B@
rdata$r	SEGMENT DWORD USE32 PUBLIC 'CONST'
rdata$r	ENDS
;	COMDAT ??_R4WebGamePanelWnd@@6BIPanelChangeObserver@@@
rdata$r	SEGMENT DWORD USE32 PUBLIC 'CONST'
rdata$r	ENDS
;	COMDAT ?EndModalState@CWnd@@UAEXXZ
_TEXT	SEGMENT PARA USE32 PUBLIC 'CODE'
_TEXT	ENDS
;	COMDAT ?BeginModalState@CWnd@@UAEXXZ
_TEXT	SEGMENT PARA USE32 PUBLIC 'CODE'
_TEXT	ENDS
;	COMDAT ?DoDataExchange@CWnd@@MAEXPAVCDataExchange@@@Z
_TEXT	SEGMENT PARA USE32 PUBLIC 'CODE'
_TEXT	ENDS
;	COMDAT ??_R4WebGamePanelWnd@@6BCBasicWnd@@@
rdata$r	SEGMENT DWORD USE32 PUBLIC 'CONST'
rdata$r	ENDS
;	COMDAT ??_R4XDocHostUIHandler@CCustomControlSite@@6B@
rdata$r	SEGMENT DWORD USE32 PUBLIC 'CONST'
rdata$r	ENDS
;	COMDAT ??_R4CCustomOccManager@@6B@
rdata$r	SEGMENT DWORD USE32 PUBLIC 'CONST'
rdata$r	ENDS
;	COMDAT ??_R4IPanelChangeObserver@@6B@
rdata$r	SEGMENT DWORD USE32 PUBLIC 'CONST'
rdata$r	ENDS
;	COMDAT ??_R4XDocHostShowUI@CCustomControlSite@@6B@
rdata$r	SEGMENT DWORD USE32 PUBLIC 'CONST'
rdata$r	ENDS
;	COMDAT ?Dump@CObject@@UBEXAAVCDumpContext@@@Z
_TEXT	SEGMENT PARA USE32 PUBLIC 'CODE'
_TEXT	ENDS
;	COMDAT ?AssertValid@CObject@@UBEXXZ
_TEXT	SEGMENT PARA USE32 PUBLIC 'CODE'
_TEXT	ENDS
;	COMDAT ?Serialize@CObject@@UAEXAAVCArchive@@@Z
_TEXT	SEGMENT PARA USE32 PUBLIC 'CODE'
_TEXT	ENDS
;	COMDAT ??_R4CCustomControlSite@@6B@
rdata$r	SEGMENT DWORD USE32 PUBLIC 'CONST'
rdata$r	ENDS
;	COMDAT ??_R4COccManager@@6B@
rdata$r	SEGMENT DWORD USE32 PUBLIC 'CONST'
rdata$r	ENDS
;	COMDAT ??0?$allocator@_W@std@@QAE@XZ
_TEXT	SEGMENT PARA USE32 PUBLIC 'CODE'
_TEXT	ENDS
;	COMDAT ??_G?$numpunct@_W@std@@MAEPAXI@Z
_TEXT	SEGMENT PARA USE32 PUBLIC 'CODE'
_TEXT	ENDS
;	COMDAT ??_R4?$numpunct@_W@std@@6B@
rdata$r	SEGMENT DWORD USE32 PUBLIC 'CONST'
rdata$r	ENDS
;	COMDAT ??_G?$numpunct@D@std@@MAEPAXI@Z
_TEXT	SEGMENT PARA USE32 PUBLIC 'CODE'
_TEXT	ENDS
;	COMDAT ??_R4?$numpunct@D@std@@6B@
rdata$r	SEGMENT DWORD USE32 PUBLIC 'CONST'
rdata$r	ENDS
;	COMDAT ?_Psave@?$_Facetptr@V?$numpunct@_W@std@@@std@@2PBVfacet@locale@2@B
_DATA	SEGMENT DWORD USE32 PUBLIC 'DATA'
_DATA	ENDS
;	COMDAT ?_Psave@?$_Facetptr@V?$numpunct@D@std@@@std@@2PBVfacet@locale@2@B
_DATA	SEGMENT DWORD USE32 PUBLIC 'DATA'
_DATA	ENDS
;	COMDAT ?Unlock@CComCriticalSection@ATL@@QAEJXZ
_TEXT	SEGMENT PARA USE32 PUBLIC 'CODE'
_TEXT	ENDS
;	COMDAT ?_Psave@?$_Facetptr@V?$ctype@_W@std@@@std@@2PBVfacet@locale@2@B
_DATA	SEGMENT DWORD USE32 PUBLIC 'DATA'
_DATA	ENDS
;	COMDAT ?_Psave@?$_Facetptr@V?$ctype@D@std@@@std@@2PBVfacet@locale@2@B
_DATA	SEGMENT DWORD USE32 PUBLIC 'DATA'
_DATA	ENDS
;	COMDAT ??$_Maklocchr@_W@std@@YA_WDPA_WABU_Cvtvec@@@Z
_TEXT	SEGMENT PARA USE32 PUBLIC 'CODE'
_TEXT	ENDS
;	COMDAT ??$_Maklocstr@_W@std@@YAPA_WPBDPA_WABU_Cvtvec@@@Z
_TEXT	SEGMENT PARA USE32 PUBLIC 'CODE'
_TEXT	ENDS
;	COMDAT ??$_Maklocchr@D@std@@YADDPADABU_Cvtvec@@@Z
_TEXT	SEGMENT PARA USE32 PUBLIC 'CODE'
_TEXT	ENDS
;	COMDAT ??_C@_04LOAJBDKD@true?$AA@
CONST	SEGMENT DWORD USE32 PUBLIC 'CONST'
CONST	ENDS
;	COMDAT ??_C@_05LAPONLG@false?$AA@
CONST	SEGMENT DWORD USE32 PUBLIC 'CONST'
CONST	ENDS
;	COMDAT _wmemcpy
_TEXT	SEGMENT PARA USE32 PUBLIC 'CODE'
_TEXT	ENDS
;	COMDAT ?max_size@?$allocator@_W@std@@QBEIXZ
_TEXT	SEGMENT PARA USE32 PUBLIC 'CODE'
_TEXT	ENDS
;	COMDAT ?allocate@?$allocator@_W@std@@QAEPA_WI@Z
_TEXT	SEGMENT PARA USE32 PUBLIC 'CODE'
_TEXT	ENDS
;	COMDAT ??$_Allocate@_W@std@@YAPA_WIPA_W@Z
_TEXT	SEGMENT PARA USE32 PUBLIC 'CODE'
_TEXT	ENDS
;	COMDAT ??_C@_01GFHCPBMG@C?$AA@
CONST	SEGMENT DWORD USE32 PUBLIC 'CONST'
CONST	ENDS
;	COMDAT ?max_size@?$allocator@D@std@@QBEIXZ
_TEXT	SEGMENT PARA USE32 PUBLIC 'CODE'
_TEXT	ENDS
;	COMDAT ?allocate@?$allocator@D@std@@QAEPADI@Z
_TEXT	SEGMENT PARA USE32 PUBLIC 'CODE'
_TEXT	ENDS
;	COMDAT ??$_Allocate@D@std@@YAPADIPAD@Z
_TEXT	SEGMENT PARA USE32 PUBLIC 'CODE'
_TEXT	ENDS
;	COMDAT ?deallocate@?$allocator@D@std@@QAEXPADI@Z
_TEXT	SEGMENT PARA USE32 PUBLIC 'CODE'
_TEXT	ENDS
;	COMDAT ?Release@CStringData@ATL@@QAEXXZ
_TEXT	SEGMENT PARA USE32 PUBLIC 'CODE'
_TEXT	ENDS
;	COMDAT ?data@CStringData@ATL@@QAEPAXXZ
_TEXT	SEGMENT PARA USE32 PUBLIC 'CODE'
_TEXT	ENDS
;	COMDAT ?AtlThrow@ATL@@YGXJ@Z
_TEXT	SEGMENT PARA USE32 PUBLIC 'CODE'
_TEXT	ENDS
;	COMDAT ?IsShared@CStringData@ATL@@QBE_NXZ
_TEXT	SEGMENT PARA USE32 PUBLIC 'CODE'
_TEXT	ENDS
;	COMDAT ?_Peek@?$istreambuf_iterator@_WU?$char_traits@_W@std@@@std@@AAE_WXZ
_TEXT	SEGMENT PARA USE32 PUBLIC 'CODE'
_TEXT	ENDS
;	COMDAT ?_Peek@?$istreambuf_iterator@DU?$char_traits@D@std@@@std@@AAEDXZ
_TEXT	SEGMENT PARA USE32 PUBLIC 'CODE'
_TEXT	ENDS
;	COMDAT ??$use_facet@V?$ctype@_W@std@@@std@@YAABV?$ctype@_W@0@ABVlocale@0@@Z
_TEXT	SEGMENT PARA USE32 PUBLIC 'CODE'
_TEXT	ENDS
;	COMDAT ??_S?$ctype@_W@std@@6B@
CONST	SEGMENT DWORD USE32 PUBLIC 'CONST'
CONST	ENDS
;	COMDAT ??_R4?$ctype@_W@std@@6B@
rdata$r	SEGMENT DWORD USE32 PUBLIC 'CONST'
rdata$r	ENDS
;	COMDAT ??_R0?AV?$ctype@_W@std@@@8
_DATA	SEGMENT DWORD USE32 PUBLIC 'DATA'
_DATA	ENDS
;	COMDAT ??_R3?$ctype@_W@std@@8
rdata$r	SEGMENT DWORD USE32 PUBLIC 'CONST'
rdata$r	ENDS
;	COMDAT ??_R2?$ctype@_W@std@@8
rdata$r	SEGMENT DWORD USE32 PUBLIC 'CONST'
rdata$r	ENDS
;	COMDAT ??_R1A@?0A@A@?$ctype@_W@std@@8
rdata$r	SEGMENT DWORD USE32 PUBLIC 'CONST'
rdata$r	ENDS
;	COMDAT ??_R1A@?0A@A@ctype_base@std@@8
rdata$r	SEGMENT DWORD USE32 PUBLIC 'CONST'
rdata$r	ENDS
;	COMDAT ??_R0?AUctype_base@std@@@8
_DATA	SEGMENT DWORD USE32 PUBLIC 'DATA'
_DATA	ENDS
;	COMDAT ??_G?$ctype@_W@std@@MAEPAXI@Z
_TEXT	SEGMENT PARA USE32 PUBLIC 'CODE'
_TEXT	ENDS
;	COMDAT ??_C@_08EPJLHIJG@bad?5cast?$AA@
CONST	SEGMENT DWORD USE32 PUBLIC 'CONST'
CONST	ENDS
;	COMDAT __TI2?AVbad_cast@@
xdata$x	SEGMENT DWORD USE32 PUBLIC 'CONST'
xdata$x	ENDS
;	COMDAT __CTA2?AVbad_cast@@
xdata$x	SEGMENT DWORD USE32 PUBLIC 'CONST'
xdata$x	ENDS
;	COMDAT __CT??_R0?AVbad_cast@@@8??0bad_cast@@QAE@ABV0@@Z12
xdata$x	SEGMENT DWORD USE32 PUBLIC 'CONST'
xdata$x	ENDS
;	COMDAT ??_R0?AVbad_cast@@@8
_DATA	SEGMENT DWORD USE32 PUBLIC 'DATA'
_DATA	ENDS
;	COMDAT __CT??_R0?AVexception@@@8??0exception@@QAE@ABV0@@Z12
xdata$x	SEGMENT DWORD USE32 PUBLIC 'CONST'
xdata$x	ENDS
;	COMDAT ??_R0?AVexception@@@8
_DATA	SEGMENT DWORD USE32 PUBLIC 'DATA'
_DATA	ENDS
;	COMDAT ??$use_facet@V?$ctype@D@std@@@std@@YAABV?$ctype@D@0@ABVlocale@0@@Z
_TEXT	SEGMENT PARA USE32 PUBLIC 'CODE'
_TEXT	ENDS
;	COMDAT ??_S?$ctype@D@std@@6B@
CONST	SEGMENT DWORD USE32 PUBLIC 'CONST'
CONST	ENDS
;	COMDAT ??_R4?$ctype@D@std@@6B@
rdata$r	SEGMENT DWORD USE32 PUBLIC 'CONST'
rdata$r	ENDS
;	COMDAT ??_R0?AV?$ctype@D@std@@@8
_DATA	SEGMENT DWORD USE32 PUBLIC 'DATA'
_DATA	ENDS
;	COMDAT ??_R3?$ctype@D@std@@8
rdata$r	SEGMENT DWORD USE32 PUBLIC 'CONST'
rdata$r	ENDS
;	COMDAT ??_R2?$ctype@D@std@@8
rdata$r	SEGMENT DWORD USE32 PUBLIC 'CONST'
rdata$r	ENDS
;	COMDAT ??_R1A@?0A@A@?$ctype@D@std@@8
rdata$r	SEGMENT DWORD USE32 PUBLIC 'CONST'
rdata$r	ENDS
;	COMDAT ??_G?$ctype@D@std@@MAEPAXI@Z
_TEXT	SEGMENT PARA USE32 PUBLIC 'CODE'
_TEXT	ENDS
;	COMDAT ??_S?$numpunct@_W@std@@6B@
CONST	SEGMENT DWORD USE32 PUBLIC 'CONST'
CONST	ENDS
;	COMDAT ??_S?$numpunct@D@std@@6B@
CONST	SEGMENT DWORD USE32 PUBLIC 'CONST'
CONST	ENDS
;	COMDAT _wmemmove
_TEXT	SEGMENT PARA USE32 PUBLIC 'CODE'
_TEXT	ENDS
;	COMDAT ?deallocate@?$allocator@_W@std@@QAEXPA_WI@Z
_TEXT	SEGMENT PARA USE32 PUBLIC 'CODE'
_TEXT	ENDS
;	COMDAT ??0?$allocator@_W@std@@QAE@ABV01@@Z
_TEXT	SEGMENT PARA USE32 PUBLIC 'CODE'
_TEXT	ENDS
;	COMDAT ?MoveWindow@CWnd@@QAEXPBUtagRECT@@H@Z
_TEXT	SEGMENT PARA USE32 PUBLIC 'CODE'
_TEXT	ENDS
;	COMDAT ?Width@CRect@@QBEHXZ
_TEXT	SEGMENT PARA USE32 PUBLIC 'CODE'
_TEXT	ENDS
;	COMDAT ?Height@CRect@@QBEHXZ
_TEXT	SEGMENT PARA USE32 PUBLIC 'CODE'
_TEXT	ENDS
;	COMDAT ?GetDesktopWindow@CWnd@@SGPAV1@XZ
_TEXT	SEGMENT PARA USE32 PUBLIC 'CODE'
_TEXT	ENDS
;	COMDAT ?SetParent@CWnd@@QAEPAV1@PAV1@@Z
_TEXT	SEGMENT PARA USE32 PUBLIC 'CODE'
_TEXT	ENDS
;	COMDAT ?GetSafeHwnd@CWnd@@QBEPAUHWND__@@XZ
_TEXT	SEGMENT PARA USE32 PUBLIC 'CODE'
_TEXT	ENDS
;	COMDAT ?GetWindowRect@CWnd@@QBEXPAUtagRECT@@@Z
_TEXT	SEGMENT PARA USE32 PUBLIC 'CODE'
_TEXT	ENDS
;	COMDAT ?GetParent@CWnd@@QBEPAV1@XZ
_TEXT	SEGMENT PARA USE32 PUBLIC 'CODE'
_TEXT	ENDS
;	COMDAT ??0?$allocator@D@std@@QAE@ABV01@@Z
_TEXT	SEGMENT PARA USE32 PUBLIC 'CODE'
_TEXT	ENDS
;	COMDAT ??0?$allocator@D@std@@QAE@XZ
_TEXT	SEGMENT PARA USE32 PUBLIC 'CODE'
_TEXT	ENDS
;	COMDAT ??0CRect@@QAE@HHHH@Z
_TEXT	SEGMENT PARA USE32 PUBLIC 'CODE'
_TEXT	ENDS
;	COMDAT ?OnCreate@CWnd@@IAEHPAUtagCREATESTRUCTA@@@Z
_TEXT	SEGMENT PARA USE32 PUBLIC 'CODE'
_TEXT	ENDS
;	COMDAT ?_messageEntries@WebGamePanelWnd@@0QBUAFX_MSGMAP_ENTRY@@B
CONST	SEGMENT DWORD USE32 PUBLIC 'CONST'
CONST	ENDS
;	COMDAT ?messageMap@WebGamePanelWnd@@1UAFX_MSGMAP@@B
CONST	SEGMENT DWORD USE32 PUBLIC 'CONST'
CONST	ENDS
;	COMDAT ??_7IMessageObserver@@6B@
CONST	SEGMENT DWORD USE32 PUBLIC 'CONST'
CONST	ENDS
;	COMDAT ??_R4IMessageObserver@@6B@
rdata$r	SEGMENT DWORD USE32 PUBLIC 'CONST'
rdata$r	ENDS
;	COMDAT ??_R3IMessageObserver@@8
rdata$r	SEGMENT DWORD USE32 PUBLIC 'CONST'
rdata$r	ENDS
;	COMDAT ??_R2IMessageObserver@@8
rdata$r	SEGMENT DWORD USE32 PUBLIC 'CONST'
rdata$r	ENDS
;	COMDAT ??_GIMessageObserver@@UAEPAXI@Z
_TEXT	SEGMENT PARA USE32 PUBLIC 'CODE'
_TEXT	ENDS
;	COMDAT ??_7IPanelChangeObserver@@6B@
CONST	SEGMENT DWORD USE32 PUBLIC 'CONST'
CONST	ENDS
;	COMDAT ??1IMessageObserver@@UAE@XZ
_TEXT	SEGMENT PARA USE32 PUBLIC 'CODE'
_TEXT	ENDS
;	COMDAT ??0CRect@@QAE@XZ
_TEXT	SEGMENT PARA USE32 PUBLIC 'CODE'
_TEXT	ENDS
;	COMDAT ??_7WebGamePanelWnd@@6BIPanelChangeObserver@@@
CONST	SEGMENT DWORD USE32 PUBLIC 'CONST'
CONST	ENDS
;	COMDAT ??_7WebGamePanelWnd@@6BCBasicWnd@@@
CONST	SEGMENT DWORD USE32 PUBLIC 'CONST'
CONST	ENDS
;	COMDAT ?classWebGamePanelWnd@WebGamePanelWnd@@2UCRuntimeClass@@B
CONST	SEGMENT DWORD USE32 PUBLIC 'CONST'
CONST	ENDS
;	COMDAT ??_7IData@@6B@
CONST	SEGMENT DWORD USE32 PUBLIC 'CONST'
CONST	ENDS
;	COMDAT ?IsLocked@CStringData@ATL@@QBE_NXZ
_TEXT	SEGMENT PARA USE32 PUBLIC 'CODE'
_TEXT	ENDS
;	COMDAT ?AddRef@CStringData@ATL@@QAEXXZ
_TEXT	SEGMENT PARA USE32 PUBLIC 'CODE'
_TEXT	ENDS
;	COMDAT ?GetDefaultManager@?$StrTraitMFC_DLL@DV?$ChTraitsCRT@D@ATL@@@@SAPAUIAtlStringMgr@ATL@@XZ
_TEXT	SEGMENT PARA USE32 PUBLIC 'CODE'
_TEXT	ENDS
;	COMDAT ?FindStringResourceInstance@?$StrTraitMFC_DLL@DV?$ChTraitsCRT@D@ATL@@@@SAPAUHINSTANCE__@@I@Z
_TEXT	SEGMENT PARA USE32 PUBLIC 'CODE'
_TEXT	ENDS
;	COMDAT ?AtlGetStringResourceImage@ATL@@YAPBUATLSTRINGRESOURCEIMAGE@1@PAUHINSTANCE__@@I@Z
_TEXT	SEGMENT PARA USE32 PUBLIC 'CODE'
_TEXT	ENDS
;	COMDAT ?_AtlGetStringResourceImage@ATL@@YAPBUATLSTRINGRESOURCEIMAGE@1@PAUHINSTANCE__@@PAUHRSRC__@@I@Z
_TEXT	SEGMENT PARA USE32 PUBLIC 'CODE'
_TEXT	ENDS
;	COMDAT ?GetBaseTypeLength@?$ChTraitsCRT@D@ATL@@SAHPB_WH@Z
_TEXT	SEGMENT PARA USE32 PUBLIC 'CODE'
_TEXT	ENDS
;	COMDAT ?_AtlGetConversionACP@ATL@@YGIXZ
_TEXT	SEGMENT PARA USE32 PUBLIC 'CODE'
_TEXT	ENDS
;	COMDAT ?g_pfnGetThreadACP@ATL@@3P6GIXZA
_DATA	SEGMENT DWORD USE32 PUBLIC 'DATA'
_DATA	ENDS
;	COMDAT ?_AtlGetThreadACPThunk@ATL@@YGIXZ
_TEXT	SEGMENT PARA USE32 PUBLIC 'CODE'
_TEXT	ENDS
;	COMDAT ?_AtlGetThreadACPReal@ATL@@YGIXZ
_TEXT	SEGMENT PARA USE32 PUBLIC 'CODE'
_TEXT	ENDS
;	COMDAT ?_AtlGetThreadACPFake@ATL@@YGIXZ
_TEXT	SEGMENT PARA USE32 PUBLIC 'CODE'
_TEXT	ENDS
;	COMDAT ?InterlockedExchangePointer@@YGPAXPAPAXPAX@Z
_TEXT	SEGMENT PARA USE32 PUBLIC 'CODE'
_TEXT	ENDS
;	COMDAT ?ConvertToBaseType@?$ChTraitsCRT@D@ATL@@SAXPADHPB_WH@Z
_TEXT	SEGMENT PARA USE32 PUBLIC 'CODE'
_TEXT	ENDS
;	COMDAT ??_7COccManager@@6B@
CONST	SEGMENT DWORD USE32 PUBLIC 'CONST'
CONST	ENDS
;	COMDAT ??1CNoTrackObject@@UAE@XZ
_TEXT	SEGMENT PARA USE32 PUBLIC 'CODE'
_TEXT	ENDS
;	COMDAT ??2CObject@@SGPAXI@Z
_TEXT	SEGMENT PARA USE32 PUBLIC 'CODE'
_TEXT	ENDS
;	COMDAT ??_7CCustomOccManager@@6B@
CONST	SEGMENT DWORD USE32 PUBLIC 'CONST'
CONST	ENDS
;	COMDAT ??0IUnknown@@QAE@XZ
_TEXT	SEGMENT PARA USE32 PUBLIC 'CODE'
_TEXT	ENDS
;	COMDAT ??_7XDocHostUIHandler@CCustomControlSite@@6B@
CONST	SEGMENT DWORD USE32 PUBLIC 'CONST'
CONST	ENDS
;	COMDAT ??_7XDocHostShowUI@CCustomControlSite@@6B@
CONST	SEGMENT DWORD USE32 PUBLIC 'CONST'
CONST	ENDS
;	COMDAT ??3CObject@@SGXPAX@Z
_TEXT	SEGMENT PARA USE32 PUBLIC 'CODE'
_TEXT	ENDS
;	COMDAT ??_7CCustomControlSite@@6B@
CONST	SEGMENT DWORD USE32 PUBLIC 'CONST'
CONST	ENDS
;	COMDAT ?clsid@?1??GetClsid@CShockwaveFlash@@QAEABU_GUID@@XZ@4U3@B
CONST	SEGMENT DWORD USE32 PUBLIC 'CONST'
CONST	ENDS
sxdata	SEGMENT DWORD USE32 'SXDATA'
sxdata	ENDS
FLAT	GROUP _DATA, CONST, _BSS
	ASSUME	CS: FLAT, DS: FLAT, SS: FLAT
endif

INCLUDELIB MSVCRT
INCLUDELIB OLDNAMES

PUBLIC	?g_pfnGetThreadACP@ATL@@3P6GIXZA		; ATL::g_pfnGetThreadACP
PUBLIC	?_AtlGetThreadACPThunk@ATL@@YGIXZ		; ATL::_AtlGetThreadACPThunk
PUBLIC	?classWebGamePanelWnd@WebGamePanelWnd@@2UCRuntimeClass@@B ; WebGamePanelWnd::classWebGamePanelWnd
PUBLIC	?_messageEntries@WebGamePanelWnd@@0QBUAFX_MSGMAP_ENTRY@@B ; WebGamePanelWnd::_messageEntries
PUBLIC	?messageMap@WebGamePanelWnd@@1UAFX_MSGMAP@@B	; WebGamePanelWnd::messageMap
PUBLIC	?OnCreate@WebGamePanelWnd@@IAEHPAUtagCREATESTRUCTA@@@Z ; WebGamePanelWnd::OnCreate
PUBLIC	?OnDestroy@WebGamePanelWnd@@IAEXXZ		; WebGamePanelWnd::OnDestroy
PUBLIC	?OnEraseBkgnd@WebGamePanelWnd@@IAEHPAVCDC@@@Z	; WebGamePanelWnd::OnEraseBkgnd
EXTRN	?GetThisClass@CBasicWnd@@SGPAUCRuntimeClass@@XZ:NEAR ; CBasicWnd::GetThisClass
EXTRN	?GetThisMessageMap@CBasicWnd@@KGPBUAFX_MSGMAP@@XZ:NEAR ; CBasicWnd::GetThisMessageMap
CONST	SEGMENT
$SG198141 DB	'int', 00H
CONST	ENDS
_DATA	SEGMENT
_TYPE_CONFIG_INT DD FLAT:$SG198141
_DATA	ENDS
CONST	SEGMENT
$SG198143 DB	'str', 00H
CONST	ENDS
_DATA	SEGMENT
_TYPE_CONFIG_STR DD FLAT:$SG198143
_DATA	ENDS
CONST	SEGMENT
$SG198145 DB	'double', 00H
CONST	ENDS
_DATA	SEGMENT
_TYPE_CONFIG_DOUBLE DD FLAT:$SG198145
_DATA	ENDS
CONST	SEGMENT
	ORG $+1
$SG198147 DB	'bool', 00H
CONST	ENDS
_DATA	SEGMENT
_TYPE_CONFIG_BOOL DD FLAT:$SG198147
_DATA	ENDS
CONST	SEGMENT
	ORG $+3
$SG198149 DB	'sepint', 00H
CONST	ENDS
_DATA	SEGMENT
_TYPE_CONFIG_INT_HASSEP DD FLAT:$SG198149
_DATA	ENDS
CONST	SEGMENT
	ORG $+1
$SG198151 DB	'sepstr', 00H
CONST	ENDS
_DATA	SEGMENT
_TYPE_CONFIG_STR_HASSEP DD FLAT:$SG198151
_DATA	ENDS
CONST	SEGMENT
	ORG $+1
$SG198153 DB	'sepdouble', 00H
CONST	ENDS
_DATA	SEGMENT
_TYPE_CONFIG_DOUBLE_HASSEP DD FLAT:$SG198153
_DATA	ENDS
CONST	SEGMENT
	ORG $+2
$SG198155 DB	'sepbool', 00H
CONST	ENDS
_DATA	SEGMENT
_TYPE_CONFIG_BOOL_HASSEP DD FLAT:$SG198155
_DATA	ENDS
CONST	SEGMENT
$SG198157 DB	'App', 00H
CONST	ENDS
_DATA	SEGMENT
_CONF_APP_MODULE_NAME DD FLAT:$SG198157
_DATA	ENDS
CONST	SEGMENT
$SG198159 DB	'SwfPath', 00H
CONST	ENDS
_DATA	SEGMENT
_CONF_APP_SWF_PATH DD FLAT:$SG198159
_DATA	ENDS
CONST	SEGMENT
$SG198161 DB	'MainWndHold', 00H
CONST	ENDS
_DATA	SEGMENT
_CONF_APP_MAINWND_HOLD DD FLAT:$SG198161
_DATA	ENDS
CONST	SEGMENT
$SG198163 DB	'RunCount', 00H
CONST	ENDS
_DATA	SEGMENT
_CONF_APP_RUN_COUNT DD FLAT:$SG198163
_DATA	ENDS
CONST	SEGMENT
	ORG $+3
$SG198165 DB	'PlayedGame', 00H
CONST	ENDS
_DATA	SEGMENT
_CONF_APP_PLAYED_GAME DD FLAT:$SG198165
_DATA	ENDS
CONST	SEGMENT
	ORG $+1
$SG198167 DB	'playedPcGame', 00H
CONST	ENDS
_DATA	SEGMENT
_CONF_APP_PLAYED_PC_GAME DD FLAT:$SG198167
_DATA	ENDS
CONST	SEGMENT
	ORG $+3
$SG198169 DB	'PlayedIconSize', 00H
CONST	ENDS
_DATA	SEGMENT
_CONF_APP_PLAYED_ICON_SIZE DD FLAT:$SG198169
_DATA	ENDS
CONST	SEGMENT
	ORG $+1
$SG198171 DB	'PictureSavePath', 00H
CONST	ENDS
_DATA	SEGMENT
_CONF_APP_PIC_SAVE_PATH DD FLAT:$SG198171
_DATA	ENDS
CONST	SEGMENT
$SG199678 DB	'WebGamePanelWnd', 00H
CONST	ENDS
;	COMDAT ?classWebGamePanelWnd@WebGamePanelWnd@@2UCRuntimeClass@@B
CONST	SEGMENT
?classWebGamePanelWnd@WebGamePanelWnd@@2UCRuntimeClass@@B DD FLAT:$SG199678 ; WebGamePanelWnd::classWebGamePanelWnd
	DD	0dcH
	DD	0ffffH
	DD	00H
	DD	FLAT:?GetThisClass@CBasicWnd@@SGPAUCRuntimeClass@@XZ
	DD	00H
	DD	00H
CONST	ENDS
;	COMDAT ?_messageEntries@WebGamePanelWnd@@0QBUAFX_MSGMAP_ENTRY@@B
CONST	SEGMENT
?_messageEntries@WebGamePanelWnd@@0QBUAFX_MSGMAP_ENTRY@@B DD 01H ; WebGamePanelWnd::_messageEntries
	DD	00H
	DD	00H
	DD	00H
	DD	0dH
	DD	FLAT:?OnCreate@WebGamePanelWnd@@IAEHPAUtagCREATESTRUCTA@@@Z
	DD	02H
	DD	00H
	DD	00H
	DD	00H
	DD	010H
	DD	FLAT:?OnDestroy@WebGamePanelWnd@@IAEXXZ
	DD	014H
	DD	00H
	DD	00H
	DD	00H
	DD	01H
	DD	FLAT:?OnEraseBkgnd@WebGamePanelWnd@@IAEHPAVCDC@@@Z
	DD	00H
	DD	00H
	DD	00H
	DD	00H
	DD	00H
	DD	00H
CONST	ENDS
;	COMDAT ?messageMap@WebGamePanelWnd@@1UAFX_MSGMAP@@B
CONST	SEGMENT
?messageMap@WebGamePanelWnd@@1UAFX_MSGMAP@@B DD FLAT:?GetThisMessageMap@CBasicWnd@@KGPBUAFX_MSGMAP@@XZ ; WebGamePanelWnd::messageMap
	DD	FLAT:?_messageEntries@WebGamePanelWnd@@0QBUAFX_MSGMAP_ENTRY@@B
CONST	ENDS
CONST	SEGMENT
$SG199752 DB	'WebGamePlaying', 00H
	ORG $+1
$SG199754 DB	'WebGameRight', 00H
	ORG $+3
$SG199757 DB	'normal', 00H
	ORG $+1
$SG199758 DB	'webgamepanel', 00H
	ORG $+3
$SG199761 DB	'normal', 00H
	ORG $+1
$SG199762 DB	'webgamepanel', 00H
	ORG $+3
$SG199772 DB	'id', 00H
	ORG $+1
$SG199775 DB	'url', 00H
$SG199796 DB	'===IN', 00H
	ORG $+2
$SG199797 DB	'WebGamePanelWnd::IPanelChangeOb_ToFullScreen', 00H
	ORG $+3
$SG199798 DB	'WebGamePanelWnd.txt', 00H
$SG199808 DB	'===OUT', 00H
	ORG $+1
$SG199809 DB	'WebGamePanelWnd::IPanelChangeOb_ToFullScreen', 00H
	ORG $+3
$SG199810 DB	'WebGamePanelWnd.txt', 00H
$SG199817 DB	'===IN', 00H
	ORG $+2
$SG199818 DB	'WebGamePanelWnd::SetMainWindow', 00H
	ORG $+1
$SG199819 DB	'WebGamePanelWnd.txt', 00H
$SG199828 DB	'===OUT', 00H
	ORG $+1
$SG199829 DB	'WebGamePanelWnd::SetMainWindow', 00H
	ORG $+1
$SG199830 DB	'WebGamePanelWnd.txt', 00H
$SG199837 DB	'===IN', 00H
	ORG $+2
$SG199838 DB	'WebGamePanelWnd::IPanelChangeOb_ExitFullScreen', 00H
	ORG $+1
$SG199839 DB	'WebGamePanelWnd.txt', 00H
$SG199850 DB	'===OUT', 00H
	ORG $+1
$SG199851 DB	'WebGamePanelWnd::IPanelChangeOb_ExitFullScreen', 00H
	ORG $+1
$SG199852 DB	'WebGamePanelWnd.txt', 00H
CONST	ENDS
;	COMDAT ?g_pfnGetThreadACP@ATL@@3P6GIXZA
_DATA	SEGMENT
?g_pfnGetThreadACP@ATL@@3P6GIXZA DD FLAT:?_AtlGetThreadACPThunk@ATL@@YGIXZ ; ATL::g_pfnGetThreadACP
_DATA	ENDS
CONST	SEGMENT
_ID_MESSAGE_PANEL_CHANGE DD 02H
CONST	ENDS
PUBLIC	?GetThisClass@WebGamePanelWnd@@SGPAUCRuntimeClass@@XZ ; WebGamePanelWnd::GetThisClass
; Function compile flags: /Odt
; File d:\boxgit\playbox\playbox\dev\prj\playbox\src\module\gamepanel\webgamepanelwnd.cpp
_TEXT	SEGMENT
?GetThisClass@WebGamePanelWnd@@SGPAUCRuntimeClass@@XZ PROC NEAR ; WebGamePanelWnd::GetThisClass

; 10   : IMPLEMENT_DYNAMIC(WebGamePanelWnd, CBasicWnd)

  00000	55		 push	 ebp
  00001	8b ec		 mov	 ebp, esp
  00003	b8 00 00 00 00	 mov	 eax, OFFSET FLAT:?classWebGamePanelWnd@WebGamePanelWnd@@2UCRuntimeClass@@B ; WebGamePanelWnd::classWebGamePanelWnd
  00008	5d		 pop	 ebp
  00009	c3		 ret	 0
?GetThisClass@WebGamePanelWnd@@SGPAUCRuntimeClass@@XZ ENDP ; WebGamePanelWnd::GetThisClass
_TEXT	ENDS
PUBLIC	?GetRuntimeClass@WebGamePanelWnd@@UBEPAUCRuntimeClass@@XZ ; WebGamePanelWnd::GetRuntimeClass
; Function compile flags: /Odt
_TEXT	SEGMENT
_this$ = -4						; size = 4
?GetRuntimeClass@WebGamePanelWnd@@UBEPAUCRuntimeClass@@XZ PROC NEAR ; WebGamePanelWnd::GetRuntimeClass
; _this$ = ecx

; 10   : IMPLEMENT_DYNAMIC(WebGamePanelWnd, CBasicWnd)

  00010	55		 push	 ebp
  00011	8b ec		 mov	 ebp, esp
  00013	51		 push	 ecx
  00014	89 4d fc	 mov	 DWORD PTR _this$[ebp], ecx
  00017	b8 00 00 00 00	 mov	 eax, OFFSET FLAT:?classWebGamePanelWnd@WebGamePanelWnd@@2UCRuntimeClass@@B ; WebGamePanelWnd::classWebGamePanelWnd
  0001c	8b e5		 mov	 esp, ebp
  0001e	5d		 pop	 ebp
  0001f	c3		 ret	 0
?GetRuntimeClass@WebGamePanelWnd@@UBEPAUCRuntimeClass@@XZ ENDP ; WebGamePanelWnd::GetRuntimeClass
_TEXT	ENDS
PUBLIC	??0CRect@@QAE@XZ				; CRect::CRect
PUBLIC	??_R1A@?0A@A@CObject@@8				; CObject::`RTTI Base Class Descriptor at (0,-1,0,0)'
PUBLIC	??_R0?AVCObject@@@8				; CObject `RTTI Type Descriptor'
PUBLIC	??_R1A@?0A@A@CWnd@@8				; CWnd::`RTTI Base Class Descriptor at (0,-1,0,0)'
PUBLIC	??_R0?AVCWnd@@@8				; CWnd `RTTI Type Descriptor'
PUBLIC	??_R1A@?0A@A@CCmdTarget@@8			; CCmdTarget::`RTTI Base Class Descriptor at (0,-1,0,0)'
PUBLIC	??_R0?AVCCmdTarget@@@8				; CCmdTarget `RTTI Type Descriptor'
PUBLIC	??2CObject@@SGPAXI@Z				; CObject::operator new
PUBLIC	??_R0?AVIMessageObserver@@@8			; IMessageObserver `RTTI Type Descriptor'
PUBLIC	??_R0?AVIPanelChangeObserver@@@8		; IPanelChangeObserver `RTTI Type Descriptor'
PUBLIC	??3CObject@@SGXPAX@Z				; CObject::operator delete
PUBLIC	?Serialize@CObject@@UAEXAAVCArchive@@@Z		; CObject::Serialize
PUBLIC	??_R4WebGamePanelWnd@@6BCBasicWnd@@@		; WebGamePanelWnd::`RTTI Complete Object Locator'
PUBLIC	?AssertValid@CObject@@UBEXXZ			; CObject::AssertValid
PUBLIC	??_R0?AVWebGamePanelWnd@@@8			; WebGamePanelWnd `RTTI Type Descriptor'
PUBLIC	??_R3WebGamePanelWnd@@8				; WebGamePanelWnd::`RTTI Class Hierarchy Descriptor'
PUBLIC	?Dump@CObject@@UBEXAAVCDumpContext@@@Z		; CObject::Dump
PUBLIC	??_R2WebGamePanelWnd@@8				; WebGamePanelWnd::`RTTI Base Class Array'
PUBLIC	??_R1A@?0A@A@WebGamePanelWnd@@8			; WebGamePanelWnd::`RTTI Base Class Descriptor at (0,-1,0,0)'
PUBLIC	??_R1A@?0A@A@CBasicWnd@@8			; CBasicWnd::`RTTI Base Class Descriptor at (0,-1,0,0)'
PUBLIC	??_R0?AVCBasicWnd@@@8				; CBasicWnd `RTTI Type Descriptor'
PUBLIC	??_R1FE@?0A@A@IPanelChangeObserver@@8		; IPanelChangeObserver::`RTTI Base Class Descriptor at (84,-1,0,0)'
PUBLIC	??_R1FE@?0A@A@IMessageObserver@@8		; IMessageObserver::`RTTI Base Class Descriptor at (84,-1,0,0)'
PUBLIC	??_EWebGamePanelWnd@@WFE@AEPAXI@Z		; [thunk]:WebGamePanelWnd::`vector deleting destructor'
PUBLIC	??_R4WebGamePanelWnd@@6BIPanelChangeObserver@@@	; WebGamePanelWnd::`RTTI Complete Object Locator'
PUBLIC	?IPanelChangeOb_WindowMax@IPanelChangeObserver@@UAEXXZ ; IPanelChangeObserver::IPanelChangeOb_WindowMax
PUBLIC	?IPanelChangeOb_WindowMin@IPanelChangeObserver@@UAEXXZ ; IPanelChangeObserver::IPanelChangeOb_WindowMin
PUBLIC	?IPanelChangeOb_WindowRestore@IPanelChangeObserver@@UAEXXZ ; IPanelChangeObserver::IPanelChangeOb_WindowRestore
PUBLIC	?IPanelChangeOb_WindowClose@IPanelChangeObserver@@UAEXXZ ; IPanelChangeObserver::IPanelChangeOb_WindowClose
PUBLIC	??0IPanelChangeObserver@@QAE@XZ			; IPanelChangeObserver::IPanelChangeObserver
PUBLIC	??1IPanelChangeObserver@@UAE@XZ			; IPanelChangeObserver::~IPanelChangeObserver
PUBLIC	??0WebGamePanelWnd@@QAE@XZ			; WebGamePanelWnd::WebGamePanelWnd
PUBLIC	?GetMessageMap@WebGamePanelWnd@@MBEPBUAFX_MSGMAP@@XZ ; WebGamePanelWnd::GetMessageMap
PUBLIC	?IPanelChangeOb_ToFullScreen@WebGamePanelWnd@@UAEXPAVCWnd@@@Z ; WebGamePanelWnd::IPanelChangeOb_ToFullScreen
PUBLIC	?IPanelChangeOb_ExitFullScreen@WebGamePanelWnd@@UAEXPAVCWnd@@@Z ; WebGamePanelWnd::IPanelChangeOb_ExitFullScreen
PUBLIC	??_7WebGamePanelWnd@@6BCBasicWnd@@@		; WebGamePanelWnd::`vftable'
PUBLIC	??_7WebGamePanelWnd@@6BIPanelChangeObserver@@@	; WebGamePanelWnd::`vftable'
PUBLIC	??_GWebGamePanelWnd@@UAEPAXI@Z			; WebGamePanelWnd::`scalar deleting destructor'
PUBLIC	?DoDataExchange@CWnd@@MAEXPAVCDataExchange@@@Z	; CWnd::DoDataExchange
PUBLIC	?BeginModalState@CWnd@@UAEXXZ			; CWnd::BeginModalState
PUBLIC	?EndModalState@CWnd@@UAEXXZ			; CWnd::EndModalState
PUBLIC	??0WEB_GAME@@QAE@XZ				; WEB_GAME::WEB_GAME
PUBLIC	??1WEB_GAME@@QAE@XZ				; WEB_GAME::~WEB_GAME
EXTRN	?CreateControlContainer@CWnd@@MAEHPAPAVCOleControlContainer@@@Z:NEAR ; CWnd::CreateControlContainer
EXTRN	?CreateControlSite@CWnd@@MAEHPAVCOleControlContainer@@PAPAVCOleControlSite@@IABU_GUID@@@Z:NEAR ; CWnd::CreateControlSite
EXTRN	?SetOccDialogInfo@CWnd@@MAEHPAU_AFX_OCC_DIALOG_INFO@@@Z:NEAR ; CWnd::SetOccDialogInfo
EXTRN	?OnToolHitTest@CWnd@@UBEHVCPoint@@PAUtagTOOLINFOA@@@Z:NEAR ; CWnd::OnToolHitTest
EXTRN	?GetScrollBarCtrl@CWnd@@UBEPAVCScrollBar@@H@Z:NEAR ; CWnd::GetScrollBarCtrl
EXTRN	?WinHelpA@CWnd@@UAEXKI@Z:NEAR			; CWnd::WinHelpA
EXTRN	?HtmlHelpA@CWnd@@UAEXKI@Z:NEAR			; CWnd::HtmlHelpA
EXTRN	?WinHelpInternal@CWnd@@UAEXKI@Z:NEAR		; CWnd::WinHelpInternal
EXTRN	?ContinueModal@CWnd@@UAEHXZ:NEAR		; CWnd::ContinueModal
EXTRN	?EndModalLoop@CWnd@@UAEXH@Z:NEAR		; CWnd::EndModalLoop
EXTRN	?GetInterfaceMap@CWnd@@MBEPBUAFX_INTERFACEMAP@@XZ:NEAR ; CWnd::GetInterfaceMap
EXTRN	??0MyWebBrowserWnd@@QAE@H@Z:NEAR		; MyWebBrowserWnd::MyWebBrowserWnd
EXTRN	?EnsureStdObj@CWnd@@UAEJXZ:NEAR			; CWnd::EnsureStdObj
EXTRN	?get_accParent@CWnd@@UAEJPAPAUIDispatch@@@Z:NEAR ; CWnd::get_accParent
EXTRN	?get_accChildCount@CWnd@@UAEJPAJ@Z:NEAR		; CWnd::get_accChildCount
EXTRN	?OnCmdMsg@CCmdTarget@@UAEHIHPAXPAUAFX_CMDHANDLERINFO@@@Z:NEAR ; CCmdTarget::OnCmdMsg
EXTRN	?get_accChild@CWnd@@UAEJUtagVARIANT@@PAPAUIDispatch@@@Z:NEAR ; CWnd::get_accChild
EXTRN	?IsInvokeAllowed@CCmdTarget@@UAEHJ@Z:NEAR	; CCmdTarget::IsInvokeAllowed
EXTRN	?get_accName@CWnd@@UAEJUtagVARIANT@@PAPA_W@Z:NEAR ; CWnd::get_accName
EXTRN	?get_accValue@CWnd@@UAEJUtagVARIANT@@PAPA_W@Z:NEAR ; CWnd::get_accValue
EXTRN	?get_accDescription@CWnd@@UAEJUtagVARIANT@@PAPA_W@Z:NEAR ; CWnd::get_accDescription
EXTRN	?GetDispatchIID@CCmdTarget@@UAEHPAU_GUID@@@Z:NEAR ; CCmdTarget::GetDispatchIID
EXTRN	?GetTypeInfoCount@CCmdTarget@@UAEIXZ:NEAR	; CCmdTarget::GetTypeInfoCount
EXTRN	?GetTypeLibCache@CCmdTarget@@UAEPAVCTypeLibCache@@XZ:NEAR ; CCmdTarget::GetTypeLibCache
EXTRN	?get_accRole@CWnd@@UAEJUtagVARIANT@@PAU2@@Z:NEAR ; CWnd::get_accRole
EXTRN	?GetTypeLib@CCmdTarget@@UAEJKPAPAUITypeLib@@@Z:NEAR ; CCmdTarget::GetTypeLib
EXTRN	?get_accState@CWnd@@UAEJUtagVARIANT@@PAU2@@Z:NEAR ; CWnd::get_accState
EXTRN	?get_accHelp@CWnd@@UAEJUtagVARIANT@@PAPA_W@Z:NEAR ; CWnd::get_accHelp
EXTRN	?get_accHelpTopic@CWnd@@UAEJPAPA_WUtagVARIANT@@PAJ@Z:NEAR ; CWnd::get_accHelpTopic
EXTRN	?get_accKeyboardShortcut@CWnd@@UAEJUtagVARIANT@@PAPA_W@Z:NEAR ; CWnd::get_accKeyboardShortcut
EXTRN	?get_accFocus@CWnd@@UAEJPAUtagVARIANT@@@Z:NEAR	; CWnd::get_accFocus
EXTRN	?get_accSelection@CWnd@@UAEJPAUtagVARIANT@@@Z:NEAR ; CWnd::get_accSelection
EXTRN	?get_accDefaultAction@CWnd@@UAEJUtagVARIANT@@PAPA_W@Z:NEAR ; CWnd::get_accDefaultAction
EXTRN	?GetCommandMap@CCmdTarget@@MBEPBUAFX_OLECMDMAP@@XZ:NEAR ; CCmdTarget::GetCommandMap
EXTRN	?accSelect@CWnd@@UAEJJUtagVARIANT@@@Z:NEAR	; CWnd::accSelect
EXTRN	?accLocation@CWnd@@UAEJPAJ000UtagVARIANT@@@Z:NEAR ; CWnd::accLocation
EXTRN	?GetDispatchMap@CCmdTarget@@MBEPBUAFX_DISPMAP@@XZ:NEAR ; CCmdTarget::GetDispatchMap
EXTRN	?accNavigate@CWnd@@UAEJJUtagVARIANT@@PAU2@@Z:NEAR ; CWnd::accNavigate
EXTRN	?accHitTest@CWnd@@UAEJJJPAUtagVARIANT@@@Z:NEAR	; CWnd::accHitTest
EXTRN	?GetConnectionMap@CCmdTarget@@MBEPBUAFX_CONNECTIONMAP@@XZ:NEAR ; CCmdTarget::GetConnectionMap
EXTRN	?accDoDefaultAction@CWnd@@UAEJUtagVARIANT@@@Z:NEAR ; CWnd::accDoDefaultAction
EXTRN	??0WebGamePlayingWnd@@QAE@XZ:NEAR		; WebGamePlayingWnd::WebGamePlayingWnd
EXTRN	?put_accName@CWnd@@UAEJUtagVARIANT@@PA_W@Z:NEAR	; CWnd::put_accName
EXTRN	?put_accValue@CWnd@@UAEJUtagVARIANT@@PA_W@Z:NEAR ; CWnd::put_accValue
EXTRN	?SetProxy@CWnd@@UAEJPAUIAccessibleProxy@@@Z:NEAR ; CWnd::SetProxy
EXTRN	?CreateAccessibleProxy@CWnd@@UAEJIJPAJ@Z:NEAR	; CWnd::CreateAccessibleProxy
EXTRN	?GetEventSinkMap@CCmdTarget@@MBEPBUAFX_EVENTSINKMAP@@XZ:NEAR ; CCmdTarget::GetEventSinkMap
EXTRN	?OnCreateAggregates@CCmdTarget@@UAEHXZ:NEAR	; CCmdTarget::OnCreateAggregates
EXTRN	?OnCommand@CWnd@@MAEHIJ@Z:NEAR			; CWnd::OnCommand
EXTRN	?GetInterfaceHook@CCmdTarget@@UAEPAUIUnknown@@PBX@Z:NEAR ; CCmdTarget::GetInterfaceHook
EXTRN	?OnNotify@CWnd@@MAEHIJPAJ@Z:NEAR		; CWnd::OnNotify
EXTRN	?GetExtraConnectionPoints@CCmdTarget@@MAEHPAVCPtrArray@@@Z:NEAR ; CCmdTarget::GetExtraConnectionPoints
EXTRN	?GetConnectionHook@CCmdTarget@@MAEPAUIConnectionPoint@@ABU_GUID@@@Z:NEAR ; CCmdTarget::GetConnectionHook
EXTRN	??0CBasicWnd@@QAE@XZ:NEAR			; CBasicWnd::CBasicWnd
EXTRN	??1CBasicWnd@@UAE@XZ:NEAR			; CBasicWnd::~CBasicWnd
EXTRN	?PreSubclassWindow@CWnd@@UAEXXZ:NEAR		; CWnd::PreSubclassWindow
EXTRN	?Create@CWnd@@UAEHPBD0KABUtagRECT@@PAV1@IPAUCCreateContext@@@Z:NEAR ; CWnd::Create
EXTRN	?CreateEx@CWnd@@UAEHKPBD0KHHHHPAUHWND__@@PAUHMENU__@@PAX@Z:NEAR ; CWnd::CreateEx
EXTRN	?CreateEx@CWnd@@UAEHKPBD0KABUtagRECT@@PAV1@IPAX@Z:NEAR ; CWnd::CreateEx
EXTRN	?DestroyWindow@CWnd@@UAEHXZ:NEAR		; CWnd::DestroyWindow
EXTRN	?PreCreateWindow@CWnd@@UAEHAAUtagCREATESTRUCTA@@@Z:NEAR ; CWnd::PreCreateWindow
EXTRN	??_EWebGamePanelWnd@@UAEPAXI@Z:NEAR		; WebGamePanelWnd::`vector deleting destructor'
EXTRN	?CalcWindowRect@CWnd@@UAEXPAUtagRECT@@I@Z:NEAR	; CWnd::CalcWindowRect
EXTRN	__except_list:DWORD
EXTRN	___CxxFrameHandler:NEAR
EXTRN	?GetSuperWndProcAddr@CWnd@@MAEPAP6GJPAUHWND__@@IIJ@ZXZ:NEAR ; CWnd::GetSuperWndProcAddr
EXTRN	??_7type_info@@6B@:QWORD			; type_info::`vftable'
EXTRN	?PreTranslateMessage@CWnd@@UAEHPAUtagMSG@@@Z:NEAR ; CWnd::PreTranslateMessage
EXTRN	?OnAmbientProperty@CWnd@@UAEHPAVCOleControlSite@@JPAUtagVARIANT@@@Z:NEAR ; CWnd::OnAmbientProperty
EXTRN	?WindowProc@CWnd@@MAEJIIJ@Z:NEAR		; CWnd::WindowProc
EXTRN	?OnWndMsg@CWnd@@MAEHIIJPAJ@Z:NEAR		; CWnd::OnWndMsg
EXTRN	?DefWindowProcA@CWnd@@MAEJIIJ@Z:NEAR		; CWnd::DefWindowProcA
EXTRN	?PostNcDestroy@CWnd@@MAEXXZ:NEAR		; CWnd::PostNcDestroy
EXTRN	?OnChildNotify@CWnd@@MAEHIIJPAJ@Z:NEAR		; CWnd::OnChildNotify
EXTRN	?AfxGetMessageManager@@YAPAVIMessageManager@@XZ:NEAR ; AfxGetMessageManager
EXTRN	?CheckAutoCenter@CWnd@@UAEHXZ:NEAR		; CWnd::CheckAutoCenter
EXTRN	?IsFrameWnd@CWnd@@UBEHXZ:NEAR			; CWnd::IsFrameWnd
EXTRN	?OnFinalRelease@CWnd@@UAEXXZ:NEAR		; CWnd::OnFinalRelease
xdata$x	SEGMENT
$T200604 DD	0ffffffffH
	DD	FLAT:$L200593
	DD	00H
	DD	FLAT:$L200594
	DD	01H
	DD	FLAT:$L200595
	DD	02H
	DD	FLAT:$L200596
	DD	02H
	DD	FLAT:$L200597
$T200601 DD	019930520H
	DD	05H
	DD	FLAT:$T200604
	DD	2 DUP(00H)
	DD	2 DUP(00H)
xdata$x	ENDS
;	COMDAT ??_7WebGamePanelWnd@@6BCBasicWnd@@@
CONST	SEGMENT
??_7WebGamePanelWnd@@6BCBasicWnd@@@ DD FLAT:??_R4WebGamePanelWnd@@6BCBasicWnd@@@ ; WebGamePanelWnd::`vftable'
	DD	FLAT:?GetRuntimeClass@WebGamePanelWnd@@UBEPAUCRuntimeClass@@XZ
	DD	FLAT:??_EWebGamePanelWnd@@UAEPAXI@Z
	DD	FLAT:?Serialize@CObject@@UAEXAAVCArchive@@@Z
	DD	FLAT:?AssertValid@CObject@@UBEXXZ
	DD	FLAT:?Dump@CObject@@UBEXAAVCDumpContext@@@Z
	DD	FLAT:?OnCmdMsg@CCmdTarget@@UAEHIHPAXPAUAFX_CMDHANDLERINFO@@@Z
	DD	FLAT:?OnFinalRelease@CWnd@@UAEXXZ
	DD	FLAT:?IsInvokeAllowed@CCmdTarget@@UAEHJ@Z
	DD	FLAT:?GetDispatchIID@CCmdTarget@@UAEHPAU_GUID@@@Z
	DD	FLAT:?GetTypeInfoCount@CCmdTarget@@UAEIXZ
	DD	FLAT:?GetTypeLibCache@CCmdTarget@@UAEPAVCTypeLibCache@@XZ
	DD	FLAT:?GetTypeLib@CCmdTarget@@UAEJKPAPAUITypeLib@@@Z
	DD	FLAT:?GetMessageMap@WebGamePanelWnd@@MBEPBUAFX_MSGMAP@@XZ
	DD	FLAT:?GetCommandMap@CCmdTarget@@MBEPBUAFX_OLECMDMAP@@XZ
	DD	FLAT:?GetDispatchMap@CCmdTarget@@MBEPBUAFX_DISPMAP@@XZ
	DD	FLAT:?GetConnectionMap@CCmdTarget@@MBEPBUAFX_CONNECTIONMAP@@XZ
	DD	FLAT:?GetInterfaceMap@CWnd@@MBEPBUAFX_INTERFACEMAP@@XZ
	DD	FLAT:?GetEventSinkMap@CCmdTarget@@MBEPBUAFX_EVENTSINKMAP@@XZ
	DD	FLAT:?OnCreateAggregates@CCmdTarget@@UAEHXZ
	DD	FLAT:?GetInterfaceHook@CCmdTarget@@UAEPAUIUnknown@@PBX@Z
	DD	FLAT:?GetExtraConnectionPoints@CCmdTarget@@MAEHPAVCPtrArray@@@Z
	DD	FLAT:?GetConnectionHook@CCmdTarget@@MAEPAUIConnectionPoint@@ABU_GUID@@@Z
	DD	FLAT:?PreSubclassWindow@CWnd@@UAEXXZ
	DD	FLAT:?Create@CWnd@@UAEHPBD0KABUtagRECT@@PAV1@IPAUCCreateContext@@@Z
	DD	FLAT:?CreateEx@CWnd@@UAEHKPBD0KABUtagRECT@@PAV1@IPAX@Z
	DD	FLAT:?CreateEx@CWnd@@UAEHKPBD0KHHHHPAUHWND__@@PAUHMENU__@@PAX@Z
	DD	FLAT:?DestroyWindow@CWnd@@UAEHXZ
	DD	FLAT:?PreCreateWindow@CWnd@@UAEHAAUtagCREATESTRUCTA@@@Z
	DD	FLAT:?CalcWindowRect@CWnd@@UAEXPAUtagRECT@@I@Z
	DD	FLAT:?OnToolHitTest@CWnd@@UBEHVCPoint@@PAUtagTOOLINFOA@@@Z
	DD	FLAT:?GetScrollBarCtrl@CWnd@@UBEPAVCScrollBar@@H@Z
	DD	FLAT:?WinHelpA@CWnd@@UAEXKI@Z
	DD	FLAT:?HtmlHelpA@CWnd@@UAEXKI@Z
	DD	FLAT:?WinHelpInternal@CWnd@@UAEXKI@Z
	DD	FLAT:?ContinueModal@CWnd@@UAEHXZ
	DD	FLAT:?EndModalLoop@CWnd@@UAEXH@Z
	DD	FLAT:?EnsureStdObj@CWnd@@UAEJXZ
	DD	FLAT:?get_accParent@CWnd@@UAEJPAPAUIDispatch@@@Z
	DD	FLAT:?get_accChildCount@CWnd@@UAEJPAJ@Z
	DD	FLAT:?get_accChild@CWnd@@UAEJUtagVARIANT@@PAPAUIDispatch@@@Z
	DD	FLAT:?get_accName@CWnd@@UAEJUtagVARIANT@@PAPA_W@Z
	DD	FLAT:?get_accValue@CWnd@@UAEJUtagVARIANT@@PAPA_W@Z
	DD	FLAT:?get_accDescription@CWnd@@UAEJUtagVARIANT@@PAPA_W@Z
	DD	FLAT:?get_accRole@CWnd@@UAEJUtagVARIANT@@PAU2@@Z
	DD	FLAT:?get_accState@CWnd@@UAEJUtagVARIANT@@PAU2@@Z
	DD	FLAT:?get_accHelp@CWnd@@UAEJUtagVARIANT@@PAPA_W@Z
	DD	FLAT:?get_accHelpTopic@CWnd@@UAEJPAPA_WUtagVARIANT@@PAJ@Z
	DD	FLAT:?get_accKeyboardShortcut@CWnd@@UAEJUtagVARIANT@@PAPA_W@Z
	DD	FLAT:?get_accFocus@CWnd@@UAEJPAUtagVARIANT@@@Z
	DD	FLAT:?get_accSelection@CWnd@@UAEJPAUtagVARIANT@@@Z
	DD	FLAT:?get_accDefaultAction@CWnd@@UAEJUtagVARIANT@@PAPA_W@Z
	DD	FLAT:?accSelect@CWnd@@UAEJJUtagVARIANT@@@Z
	DD	FLAT:?accLocation@CWnd@@UAEJPAJ000UtagVARIANT@@@Z
	DD	FLAT:?accNavigate@CWnd@@UAEJJUtagVARIANT@@PAU2@@Z
	DD	FLAT:?accHitTest@CWnd@@UAEJJJPAUtagVARIANT@@@Z
	DD	FLAT:?accDoDefaultAction@CWnd@@UAEJUtagVARIANT@@@Z
	DD	FLAT:?put_accName@CWnd@@UAEJUtagVARIANT@@PA_W@Z
	DD	FLAT:?put_accValue@CWnd@@UAEJUtagVARIANT@@PA_W@Z
	DD	FLAT:?SetProxy@CWnd@@UAEJPAUIAccessibleProxy@@@Z
	DD	FLAT:?CreateAccessibleProxy@CWnd@@UAEJIJPAJ@Z
	DD	FLAT:?OnCommand@CWnd@@MAEHIJ@Z
	DD	FLAT:?OnNotify@CWnd@@MAEHIJPAJ@Z
	DD	FLAT:?GetSuperWndProcAddr@CWnd@@MAEPAP6GJPAUHWND__@@IIJ@ZXZ
	DD	FLAT:?DoDataExchange@CWnd@@MAEXPAVCDataExchange@@@Z
	DD	FLAT:?BeginModalState@CWnd@@UAEXXZ
	DD	FLAT:?EndModalState@CWnd@@UAEXXZ
	DD	FLAT:?PreTranslateMessage@CWnd@@UAEHPAUtagMSG@@@Z
	DD	FLAT:?OnAmbientProperty@CWnd@@UAEHPAVCOleControlSite@@JPAUtagVARIANT@@@Z
	DD	FLAT:?WindowProc@CWnd@@MAEJIIJ@Z
	DD	FLAT:?OnWndMsg@CWnd@@MAEHIIJPAJ@Z
	DD	FLAT:?DefWindowProcA@CWnd@@MAEJIIJ@Z
	DD	FLAT:?PostNcDestroy@CWnd@@MAEXXZ
	DD	FLAT:?OnChildNotify@CWnd@@MAEHIIJPAJ@Z
	DD	FLAT:?CheckAutoCenter@CWnd@@UAEHXZ
	DD	FLAT:?IsFrameWnd@CWnd@@UBEHXZ
	DD	FLAT:?CreateControlContainer@CWnd@@MAEHPAPAVCOleControlContainer@@@Z
	DD	FLAT:?CreateControlSite@CWnd@@MAEHPAVCOleControlContainer@@PAPAVCOleControlSite@@IABU_GUID@@@Z
	DD	FLAT:?SetOccDialogInfo@CWnd@@MAEHPAU_AFX_OCC_DIALOG_INFO@@@Z
CONST	ENDS
;	COMDAT ??_7WebGamePanelWnd@@6BIPanelChangeObserver@@@
CONST	SEGMENT
??_7WebGamePanelWnd@@6BIPanelChangeObserver@@@ DD FLAT:??_R4WebGamePanelWnd@@6BIPanelChangeObserver@@@ ; WebGamePanelWnd::`vftable'
	DD	FLAT:??_EWebGamePanelWnd@@WFE@AEPAXI@Z
	DD	FLAT:?IPanelChangeOb_WindowMax@IPanelChangeObserver@@UAEXXZ
	DD	FLAT:?IPanelChangeOb_WindowMin@IPanelChangeObserver@@UAEXXZ
	DD	FLAT:?IPanelChangeOb_WindowRestore@IPanelChangeObserver@@UAEXXZ
	DD	FLAT:?IPanelChangeOb_WindowClose@IPanelChangeObserver@@UAEXXZ
	DD	FLAT:?IPanelChangeOb_ToFullScreen@WebGamePanelWnd@@UAEXPAVCWnd@@@Z
	DD	FLAT:?IPanelChangeOb_ExitFullScreen@WebGamePanelWnd@@UAEXPAVCWnd@@@Z
CONST	ENDS
;	COMDAT ??_R4WebGamePanelWnd@@6BCBasicWnd@@@
rdata$r	SEGMENT
??_R4WebGamePanelWnd@@6BCBasicWnd@@@ DD 00H		; WebGamePanelWnd::`RTTI Complete Object Locator'
	DD	00H
	DD	00H
	DD	FLAT:??_R0?AVWebGamePanelWnd@@@8
	DD	FLAT:??_R3WebGamePanelWnd@@8
rdata$r	ENDS
;	COMDAT ??_R0?AVWebGamePanelWnd@@@8
_DATA	SEGMENT
??_R0?AVWebGamePanelWnd@@@8 DD FLAT:??_7type_info@@6B@	; WebGamePanelWnd `RTTI Type Descriptor'
	DD	00H
	DB	'.?AVWebGamePanelWnd@@', 00H
_DATA	ENDS
;	COMDAT ??_R3WebGamePanelWnd@@8
rdata$r	SEGMENT
??_R3WebGamePanelWnd@@8 DD 00H				; WebGamePanelWnd::`RTTI Class Hierarchy Descriptor'
	DD	01H
	DD	07H
	DD	FLAT:??_R2WebGamePanelWnd@@8
rdata$r	ENDS
;	COMDAT ??_R2WebGamePanelWnd@@8
rdata$r	SEGMENT
??_R2WebGamePanelWnd@@8 DD FLAT:??_R1A@?0A@A@WebGamePanelWnd@@8 ; WebGamePanelWnd::`RTTI Base Class Array'
	DD	FLAT:??_R1A@?0A@A@CBasicWnd@@8
	DD	FLAT:??_R1A@?0A@A@CWnd@@8
	DD	FLAT:??_R1A@?0A@A@CCmdTarget@@8
	DD	FLAT:??_R1A@?0A@A@CObject@@8
	DD	FLAT:??_R1FE@?0A@A@IPanelChangeObserver@@8
	DD	FLAT:??_R1FE@?0A@A@IMessageObserver@@8
rdata$r	ENDS
;	COMDAT ??_R1A@?0A@A@WebGamePanelWnd@@8
rdata$r	SEGMENT
??_R1A@?0A@A@WebGamePanelWnd@@8 DD FLAT:??_R0?AVWebGamePanelWnd@@@8 ; WebGamePanelWnd::`RTTI Base Class Descriptor at (0,-1,0,0)'
	DD	06H
	DD	00H
	DD	0ffffffffH
	DD	00H
	DD	00H
rdata$r	ENDS
;	COMDAT ??_R1A@?0A@A@CBasicWnd@@8
rdata$r	SEGMENT
??_R1A@?0A@A@CBasicWnd@@8 DD FLAT:??_R0?AVCBasicWnd@@@8	; CBasicWnd::`RTTI Base Class Descriptor at (0,-1,0,0)'
	DD	03H
	DD	00H
	DD	0ffffffffH
	DD	00H
	DD	00H
rdata$r	ENDS
;	COMDAT ??_R0?AVCBasicWnd@@@8
_DATA	SEGMENT
??_R0?AVCBasicWnd@@@8 DD FLAT:??_7type_info@@6B@	; CBasicWnd `RTTI Type Descriptor'
	DD	00H
	DB	'.?AVCBasicWnd@@', 00H
_DATA	ENDS
;	COMDAT ??_R1A@?0A@A@CWnd@@8
rdata$r	SEGMENT
??_R1A@?0A@A@CWnd@@8 DD FLAT:??_R0?AVCWnd@@@8		; CWnd::`RTTI Base Class Descriptor at (0,-1,0,0)'
	DD	02H
	DD	00H
	DD	0ffffffffH
	DD	00H
	DD	00H
rdata$r	ENDS
;	COMDAT ??_R0?AVCWnd@@@8
_DATA	SEGMENT
??_R0?AVCWnd@@@8 DD FLAT:??_7type_info@@6B@		; CWnd `RTTI Type Descriptor'
	DD	00H
	DB	'.?AVCWnd@@', 00H
_DATA	ENDS
;	COMDAT ??_R1A@?0A@A@CCmdTarget@@8
rdata$r	SEGMENT
??_R1A@?0A@A@CCmdTarget@@8 DD FLAT:??_R0?AVCCmdTarget@@@8 ; CCmdTarget::`RTTI Base Class Descriptor at (0,-1,0,0)'
	DD	01H
	DD	00H
	DD	0ffffffffH
	DD	00H
	DD	00H
rdata$r	ENDS
;	COMDAT ??_R0?AVCCmdTarget@@@8
_DATA	SEGMENT
??_R0?AVCCmdTarget@@@8 DD FLAT:??_7type_info@@6B@	; CCmdTarget `RTTI Type Descriptor'
	DD	00H
	DB	'.?AVCCmdTarget@@', 00H
_DATA	ENDS
;	COMDAT ??_R1A@?0A@A@CObject@@8
rdata$r	SEGMENT
??_R1A@?0A@A@CObject@@8 DD FLAT:??_R0?AVCObject@@@8	; CObject::`RTTI Base Class Descriptor at (0,-1,0,0)'
	DD	00H
	DD	00H
	DD	0ffffffffH
	DD	00H
	DD	00H
rdata$r	ENDS
;	COMDAT ??_R0?AVCObject@@@8
_DATA	SEGMENT
??_R0?AVCObject@@@8 DD FLAT:??_7type_info@@6B@		; CObject `RTTI Type Descriptor'
	DD	00H
	DB	'.?AVCObject@@', 00H
_DATA	ENDS
;	COMDAT ??_R1FE@?0A@A@IPanelChangeObserver@@8
rdata$r	SEGMENT
??_R1FE@?0A@A@IPanelChangeObserver@@8 DD FLAT:??_R0?AVIPanelChangeObserver@@@8 ; IPanelChangeObserver::`RTTI Base Class Descriptor at (84,-1,0,0)'
	DD	01H
	DD	054H
	DD	0ffffffffH
	DD	00H
	DD	00H
rdata$r	ENDS
;	COMDAT ??_R0?AVIPanelChangeObserver@@@8
_DATA	SEGMENT
??_R0?AVIPanelChangeObserver@@@8 DD FLAT:??_7type_info@@6B@ ; IPanelChangeObserver `RTTI Type Descriptor'
	DD	00H
	DB	'.?AVIPanelChangeObserver@@', 00H
_DATA	ENDS
;	COMDAT ??_R1FE@?0A@A@IMessageObserver@@8
rdata$r	SEGMENT
??_R1FE@?0A@A@IMessageObserver@@8 DD FLAT:??_R0?AVIMessageObserver@@@8 ; IMessageObserver::`RTTI Base Class Descriptor at (84,-1,0,0)'
	DD	00H
	DD	054H
	DD	0ffffffffH
	DD	00H
	DD	00H
rdata$r	ENDS
;	COMDAT ??_R0?AVIMessageObserver@@@8
_DATA	SEGMENT
??_R0?AVIMessageObserver@@@8 DD FLAT:??_7type_info@@6B@	; IMessageObserver `RTTI Type Descriptor'
	DD	00H
	DB	'.?AVIMessageObserver@@', 00H
	ORG $-31
	DD	FLAT:??_7type_info@@6B@
	DD	00H
	DB	'.?AVIMessageObserver@@', 00H
_DATA	ENDS
;	COMDAT ??_R4WebGamePanelWnd@@6BIPanelChangeObserver@@@
rdata$r	SEGMENT
??_R4WebGamePanelWnd@@6BIPanelChangeObserver@@@ DD 00H	; WebGamePanelWnd::`RTTI Complete Object Locator'
	DD	054H
	DD	00H
	DD	FLAT:??_R0?AVWebGamePanelWnd@@@8
	DD	FLAT:??_R3WebGamePanelWnd@@8
; Function compile flags: /Odt
rdata$r	ENDS
_TEXT	SEGMENT
tv139 = -48						; size = 4
tv145 = -44						; size = 4
tv137 = -40						; size = 4
tv129 = -36						; size = 4
_this$ = -32						; size = 4
$T200588 = -28						; size = 4
$T200587 = -24						; size = 4
$T200584 = -20						; size = 4
$T200583 = -16						; size = 4
__$EHRec$ = -12						; size = 12
??0WebGamePanelWnd@@QAE@XZ PROC NEAR			; WebGamePanelWnd::WebGamePanelWnd
; _this$ = ecx

; 12   : {

  00020	55		 push	 ebp
  00021	8b ec		 mov	 ebp, esp
  00023	6a ff		 push	 -1
  00025	68 00 00 00 00	 push	 __ehhandler$??0WebGamePanelWnd@@QAE@XZ
  0002a	64 a1 00 00 00
	00		 mov	 eax, DWORD PTR fs:__except_list
  00030	50		 push	 eax
  00031	64 89 25 00 00
	00 00		 mov	 DWORD PTR fs:__except_list, esp
  00038	83 ec 24	 sub	 esp, 36			; 00000024H
  0003b	89 4d e0	 mov	 DWORD PTR _this$[ebp], ecx
  0003e	8b 4d e0	 mov	 ecx, DWORD PTR _this$[ebp]
  00041	e8 00 00 00 00	 call	 ??0CBasicWnd@@QAE@XZ	; CBasicWnd::CBasicWnd
  00046	c7 45 fc 00 00
	00 00		 mov	 DWORD PTR __$EHRec$[ebp+8], 0
  0004d	8b 4d e0	 mov	 ecx, DWORD PTR _this$[ebp]
  00050	83 c1 54	 add	 ecx, 84			; 00000054H
  00053	e8 00 00 00 00	 call	 ??0IPanelChangeObserver@@QAE@XZ
  00058	c6 45 fc 01	 mov	 BYTE PTR __$EHRec$[ebp+8], 1
  0005c	8b 45 e0	 mov	 eax, DWORD PTR _this$[ebp]
  0005f	c7 00 00 00 00
	00		 mov	 DWORD PTR [eax], OFFSET FLAT:??_7WebGamePanelWnd@@6BCBasicWnd@@@
  00065	8b 4d e0	 mov	 ecx, DWORD PTR _this$[ebp]
  00068	c7 41 54 00 00
	00 00		 mov	 DWORD PTR [ecx+84], OFFSET FLAT:??_7WebGamePanelWnd@@6BIPanelChangeObserver@@@
  0006f	8b 4d e0	 mov	 ecx, DWORD PTR _this$[ebp]
  00072	83 c1 60	 add	 ecx, 96			; 00000060H
  00075	e8 00 00 00 00	 call	 ??0WEB_GAME@@QAE@XZ
  0007a	c6 45 fc 02	 mov	 BYTE PTR __$EHRec$[ebp+8], 2
  0007e	8b 4d e0	 mov	 ecx, DWORD PTR _this$[ebp]
  00081	81 c1 b8 00 00
	00		 add	 ecx, 184		; 000000b8H
  00087	e8 00 00 00 00	 call	 ??0CRect@@QAE@XZ	; CRect::CRect
  0008c	8b 4d e0	 mov	 ecx, DWORD PTR _this$[ebp]
  0008f	81 c1 c8 00 00
	00		 add	 ecx, 200		; 000000c8H
  00095	e8 00 00 00 00	 call	 ??0CRect@@QAE@XZ	; CRect::CRect

; 13   : 	m_isMainWindowTopMost = false;

  0009a	8b 55 e0	 mov	 edx, DWORD PTR _this$[ebp]
  0009d	c6 82 b4 00 00
	00 00		 mov	 BYTE PTR [edx+180], 0

; 14   : 	m_bFullScreen = false;

  000a4	8b 45 e0	 mov	 eax, DWORD PTR _this$[ebp]
  000a7	c6 80 b5 00 00
	00 00		 mov	 BYTE PTR [eax+181], 0

; 15   : 
; 16   : 	m_pWndGameRight		= new MyWebBrowserWnd();

  000ae	68 e8 01 00 00	 push	 488			; 000001e8H
  000b3	e8 00 00 00 00	 call	 ??2CObject@@SGPAXI@Z	; CObject::operator new
  000b8	89 45 ec	 mov	 DWORD PTR $T200584[ebp], eax
  000bb	c6 45 fc 03	 mov	 BYTE PTR __$EHRec$[ebp+8], 3
  000bf	83 7d ec 00	 cmp	 DWORD PTR $T200584[ebp], 0
  000c3	74 0f		 je	 SHORT $L200585
  000c5	6a 01		 push	 1
  000c7	8b 4d ec	 mov	 ecx, DWORD PTR $T200584[ebp]
  000ca	e8 00 00 00 00	 call	 ??0MyWebBrowserWnd@@QAE@H@Z ; MyWebBrowserWnd::MyWebBrowserWnd
  000cf	89 45 dc	 mov	 DWORD PTR tv129[ebp], eax
  000d2	eb 07		 jmp	 SHORT $L200586
$L200585:
  000d4	c7 45 dc 00 00
	00 00		 mov	 DWORD PTR tv129[ebp], 0
$L200586:
  000db	8b 4d dc	 mov	 ecx, DWORD PTR tv129[ebp]
  000de	89 4d f0	 mov	 DWORD PTR $T200583[ebp], ecx
  000e1	c6 45 fc 02	 mov	 BYTE PTR __$EHRec$[ebp+8], 2
  000e5	8b 55 e0	 mov	 edx, DWORD PTR _this$[ebp]
  000e8	8b 45 f0	 mov	 eax, DWORD PTR $T200583[ebp]
  000eb	89 42 58	 mov	 DWORD PTR [edx+88], eax

; 17   : 	m_pWndGamePlaying	= new WebGamePlayingWnd();

  000ee	68 b8 00 00 00	 push	 184			; 000000b8H
  000f3	e8 00 00 00 00	 call	 ??2CObject@@SGPAXI@Z	; CObject::operator new
  000f8	89 45 e4	 mov	 DWORD PTR $T200588[ebp], eax
  000fb	c6 45 fc 04	 mov	 BYTE PTR __$EHRec$[ebp+8], 4
  000ff	83 7d e4 00	 cmp	 DWORD PTR $T200588[ebp], 0
  00103	74 0d		 je	 SHORT $L200589
  00105	8b 4d e4	 mov	 ecx, DWORD PTR $T200588[ebp]
  00108	e8 00 00 00 00	 call	 ??0WebGamePlayingWnd@@QAE@XZ ; WebGamePlayingWnd::WebGamePlayingWnd
  0010d	89 45 d8	 mov	 DWORD PTR tv137[ebp], eax
  00110	eb 07		 jmp	 SHORT $L200590
$L200589:
  00112	c7 45 d8 00 00
	00 00		 mov	 DWORD PTR tv137[ebp], 0
$L200590:
  00119	8b 4d d8	 mov	 ecx, DWORD PTR tv137[ebp]
  0011c	89 4d e8	 mov	 DWORD PTR $T200587[ebp], ecx
  0011f	c6 45 fc 02	 mov	 BYTE PTR __$EHRec$[ebp+8], 2
  00123	8b 55 e0	 mov	 edx, DWORD PTR _this$[ebp]
  00126	8b 45 e8	 mov	 eax, DWORD PTR $T200587[ebp]
  00129	89 42 5c	 mov	 DWORD PTR [edx+92], eax

; 18   : 
; 19   : 	AfxGetMessageManager()->AttachMessage( ID_MESSAGE_PANEL_CHANGE,(IPanelChangeObserver*) this);

  0012c	83 7d e0 00	 cmp	 DWORD PTR _this$[ebp], 0
  00130	74 0b		 je	 SHORT $L200591
  00132	8b 4d e0	 mov	 ecx, DWORD PTR _this$[ebp]
  00135	83 c1 54	 add	 ecx, 84			; 00000054H
  00138	89 4d d4	 mov	 DWORD PTR tv145[ebp], ecx
  0013b	eb 07		 jmp	 SHORT $L200592
$L200591:
  0013d	c7 45 d4 00 00
	00 00		 mov	 DWORD PTR tv145[ebp], 0
$L200592:
  00144	e8 00 00 00 00	 call	 ?AfxGetMessageManager@@YAPAVIMessageManager@@XZ ; AfxGetMessageManager
  00149	89 45 d0	 mov	 DWORD PTR tv139[ebp], eax
  0014c	6a 02		 push	 2
  0014e	8b 55 d4	 mov	 edx, DWORD PTR tv145[ebp]
  00151	52		 push	 edx
  00152	68 00 00 00 00	 push	 OFFSET FLAT:_ID_MESSAGE_PANEL_CHANGE
  00157	8b 45 d0	 mov	 eax, DWORD PTR tv139[ebp]
  0015a	8b 10		 mov	 edx, DWORD PTR [eax]
  0015c	8b 4d d0	 mov	 ecx, DWORD PTR tv139[ebp]
  0015f	ff 52 04	 call	 DWORD PTR [edx+4]

; 20   : }

  00162	c7 45 fc ff ff
	ff ff		 mov	 DWORD PTR __$EHRec$[ebp+8], -1
  00169	8b 45 e0	 mov	 eax, DWORD PTR _this$[ebp]
  0016c	8b 4d f4	 mov	 ecx, DWORD PTR __$EHRec$[ebp]
  0016f	64 89 0d 00 00
	00 00		 mov	 DWORD PTR fs:__except_list, ecx
  00176	8b e5		 mov	 esp, ebp
  00178	5d		 pop	 ebp
  00179	c3		 ret	 0
_TEXT	ENDS
text$x	SEGMENT
$L200593:
  00000	8b 4d e0	 mov	 ecx, DWORD PTR _this$[ebp]
  00003	e9 00 00 00 00	 jmp	 ??1CBasicWnd@@UAE@XZ	; CBasicWnd::~CBasicWnd
$L200594:
  00008	8b 4d e0	 mov	 ecx, DWORD PTR _this$[ebp]
  0000b	83 c1 54	 add	 ecx, 84			; 00000054H
  0000e	e9 00 00 00 00	 jmp	 ??1IPanelChangeObserver@@UAE@XZ
$L200595:
  00013	8b 4d e0	 mov	 ecx, DWORD PTR _this$[ebp]
  00016	83 c1 60	 add	 ecx, 96			; 00000060H
  00019	e9 00 00 00 00	 jmp	 ??1WEB_GAME@@QAE@XZ
$L200596:
  0001e	8b 45 ec	 mov	 eax, DWORD PTR $T200584[ebp]
  00021	50		 push	 eax
  00022	e8 00 00 00 00	 call	 ??3CObject@@SGXPAX@Z	; CObject::operator delete
  00027	c3		 ret	 0
$L200597:
  00028	8b 45 e4	 mov	 eax, DWORD PTR $T200588[ebp]
  0002b	50		 push	 eax
  0002c	e8 00 00 00 00	 call	 ??3CObject@@SGXPAX@Z	; CObject::operator delete
  00031	c3		 ret	 0
__ehhandler$??0WebGamePanelWnd@@QAE@XZ:
  00032	b8 00 00 00 00	 mov	 eax, OFFSET FLAT:$T200601
  00037	e9 00 00 00 00	 jmp	 ___CxxFrameHandler
text$x	ENDS
??0WebGamePanelWnd@@QAE@XZ ENDP				; WebGamePanelWnd::WebGamePanelWnd
; Function compile flags: /Odt
; File d:\boxgit\playbox\playbox\dev\prj\playbox\src\datainterface\ipanelchangeobserver.h
;	COMDAT ?IPanelChangeOb_WindowMax@IPanelChangeObserver@@UAEXXZ
_TEXT	SEGMENT
_this$ = -4						; size = 4
?IPanelChangeOb_WindowMax@IPanelChangeObserver@@UAEXXZ PROC NEAR ; IPanelChangeObserver::IPanelChangeOb_WindowMax, COMDAT
; _this$ = ecx

; 9    : 	virtual void	IPanelChangeOb_WindowMax(){};

  00000	55		 push	 ebp
  00001	8b ec		 mov	 ebp, esp
  00003	51		 push	 ecx
  00004	89 4d fc	 mov	 DWORD PTR _this$[ebp], ecx
  00007	8b e5		 mov	 esp, ebp
  00009	5d		 pop	 ebp
  0000a	c3		 ret	 0
?IPanelChangeOb_WindowMax@IPanelChangeObserver@@UAEXXZ ENDP ; IPanelChangeObserver::IPanelChangeOb_WindowMax
; Function compile flags: /Odt
_TEXT	ENDS
;	COMDAT ?IPanelChangeOb_WindowMin@IPanelChangeObserver@@UAEXXZ
_TEXT	SEGMENT
_this$ = -4						; size = 4
?IPanelChangeOb_WindowMin@IPanelChangeObserver@@UAEXXZ PROC NEAR ; IPanelChangeObserver::IPanelChangeOb_WindowMin, COMDAT
; _this$ = ecx

; 10   : 	virtual void	IPanelChangeOb_WindowMin(){};

  00000	55		 push	 ebp
  00001	8b ec		 mov	 ebp, esp
  00003	51		 push	 ecx
  00004	89 4d fc	 mov	 DWORD PTR _this$[ebp], ecx
  00007	8b e5		 mov	 esp, ebp
  00009	5d		 pop	 ebp
  0000a	c3		 ret	 0
?IPanelChangeOb_WindowMin@IPanelChangeObserver@@UAEXXZ ENDP ; IPanelChangeObserver::IPanelChangeOb_WindowMin
; Function compile flags: /Odt
_TEXT	ENDS
;	COMDAT ?IPanelChangeOb_WindowRestore@IPanelChangeObserver@@UAEXXZ
_TEXT	SEGMENT
_this$ = -4						; size = 4
?IPanelChangeOb_WindowRestore@IPanelChangeObserver@@UAEXXZ PROC NEAR ; IPanelChangeObserver::IPanelChangeOb_WindowRestore, COMDAT
; _this$ = ecx

; 11   : 	virtual void	IPanelChangeOb_WindowRestore(){};

  00000	55		 push	 ebp
  00001	8b ec		 mov	 ebp, esp
  00003	51		 push	 ecx
  00004	89 4d fc	 mov	 DWORD PTR _this$[ebp], ecx
  00007	8b e5		 mov	 esp, ebp
  00009	5d		 pop	 ebp
  0000a	c3		 ret	 0
?IPanelChangeOb_WindowRestore@IPanelChangeObserver@@UAEXXZ ENDP ; IPanelChangeObserver::IPanelChangeOb_WindowRestore
; Function compile flags: /Odt
_TEXT	ENDS
;	COMDAT ?IPanelChangeOb_WindowClose@IPanelChangeObserver@@UAEXXZ
_TEXT	SEGMENT
_this$ = -4						; size = 4
?IPanelChangeOb_WindowClose@IPanelChangeObserver@@UAEXXZ PROC NEAR ; IPanelChangeObserver::IPanelChangeOb_WindowClose, COMDAT
; _this$ = ecx

; 12   : 	virtual void	IPanelChangeOb_WindowClose(){};

  00000	55		 push	 ebp
  00001	8b ec		 mov	 ebp, esp
  00003	51		 push	 ecx
  00004	89 4d fc	 mov	 DWORD PTR _this$[ebp], ecx
  00007	8b e5		 mov	 esp, ebp
  00009	5d		 pop	 ebp
  0000a	c3		 ret	 0
?IPanelChangeOb_WindowClose@IPanelChangeObserver@@UAEXXZ ENDP ; IPanelChangeObserver::IPanelChangeOb_WindowClose
_TEXT	ENDS
PUBLIC	??1WebGamePanelWnd@@UAE@XZ			; WebGamePanelWnd::~WebGamePanelWnd
; Function compile flags: /Odt
;	COMDAT ??_GWebGamePanelWnd@@UAEPAXI@Z
_TEXT	SEGMENT
_this$ = -4						; size = 4
___flags$ = 8						; size = 4
??_GWebGamePanelWnd@@UAEPAXI@Z PROC NEAR		; WebGamePanelWnd::`scalar deleting destructor', COMDAT
; _this$ = ecx
  00000	55		 push	 ebp
  00001	8b ec		 mov	 ebp, esp
  00003	51		 push	 ecx
  00004	89 4d fc	 mov	 DWORD PTR _this$[ebp], ecx
  00007	8b 4d fc	 mov	 ecx, DWORD PTR _this$[ebp]
  0000a	e8 00 00 00 00	 call	 ??1WebGamePanelWnd@@UAE@XZ ; WebGamePanelWnd::~WebGamePanelWnd
  0000f	8b 45 08	 mov	 eax, DWORD PTR ___flags$[ebp]
  00012	83 e0 01	 and	 eax, 1
  00015	74 09		 je	 SHORT $L199702
  00017	8b 4d fc	 mov	 ecx, DWORD PTR _this$[ebp]
  0001a	51		 push	 ecx
  0001b	e8 00 00 00 00	 call	 ??3CObject@@SGXPAX@Z	; CObject::operator delete
$L199702:
  00020	8b 45 fc	 mov	 eax, DWORD PTR _this$[ebp]
  00023	8b e5		 mov	 esp, ebp
  00025	5d		 pop	 ebp
  00026	c2 04 00	 ret	 4
??_GWebGamePanelWnd@@UAEPAXI@Z ENDP			; WebGamePanelWnd::`scalar deleting destructor'
_TEXT	ENDS
PUBLIC	??_R4IPanelChangeObserver@@6B@			; IPanelChangeObserver::`RTTI Complete Object Locator'
PUBLIC	??_R3IPanelChangeObserver@@8			; IPanelChangeObserver::`RTTI Class Hierarchy Descriptor'
PUBLIC	??_R1A@?0A@A@IMessageObserver@@8		; IMessageObserver::`RTTI Base Class Descriptor at (0,-1,0,0)'
PUBLIC	??_R2IPanelChangeObserver@@8			; IPanelChangeObserver::`RTTI Base Class Array'
PUBLIC	??_R1A@?0A@A@IPanelChangeObserver@@8		; IPanelChangeObserver::`RTTI Base Class Descriptor at (0,-1,0,0)'
PUBLIC	?IPanelChangeOb_ToFullScreen@IPanelChangeObserver@@UAEXPAVCWnd@@@Z ; IPanelChangeObserver::IPanelChangeOb_ToFullScreen
PUBLIC	?IPanelChangeOb_ExitFullScreen@IPanelChangeObserver@@UAEXPAVCWnd@@@Z ; IPanelChangeObserver::IPanelChangeOb_ExitFullScreen
PUBLIC	??_7IPanelChangeObserver@@6B@			; IPanelChangeObserver::`vftable'
PUBLIC	??_GIPanelChangeObserver@@UAEPAXI@Z		; IPanelChangeObserver::`scalar deleting destructor'
PUBLIC	??0IMessageObserver@@QAE@XZ			; IMessageObserver::IMessageObserver
EXTRN	??_EIPanelChangeObserver@@UAEPAXI@Z:NEAR	; IPanelChangeObserver::`vector deleting destructor'
;	COMDAT ??_7IPanelChangeObserver@@6B@
CONST	SEGMENT
??_7IPanelChangeObserver@@6B@ DD FLAT:??_R4IPanelChangeObserver@@6B@ ; IPanelChangeObserver::`vftable'
	DD	FLAT:??_EIPanelChangeObserver@@UAEPAXI@Z
	DD	FLAT:?IPanelChangeOb_WindowMax@IPanelChangeObserver@@UAEXXZ
	DD	FLAT:?IPanelChangeOb_WindowMin@IPanelChangeObserver@@UAEXXZ
	DD	FLAT:?IPanelChangeOb_WindowRestore@IPanelChangeObserver@@UAEXXZ
	DD	FLAT:?IPanelChangeOb_WindowClose@IPanelChangeObserver@@UAEXXZ
	DD	FLAT:?IPanelChangeOb_ToFullScreen@IPanelChangeObserver@@UAEXPAVCWnd@@@Z
	DD	FLAT:?IPanelChangeOb_ExitFullScreen@IPanelChangeObserver@@UAEXPAVCWnd@@@Z
CONST	ENDS
;	COMDAT ??_R4IPanelChangeObserver@@6B@
rdata$r	SEGMENT
??_R4IPanelChangeObserver@@6B@ DD 00H			; IPanelChangeObserver::`RTTI Complete Object Locator'
	DD	00H
	DD	00H
	DD	FLAT:??_R0?AVIPanelChangeObserver@@@8
	DD	FLAT:??_R3IPanelChangeObserver@@8
rdata$r	ENDS
;	COMDAT ??_R3IPanelChangeObserver@@8
rdata$r	SEGMENT
??_R3IPanelChangeObserver@@8 DD 00H			; IPanelChangeObserver::`RTTI Class Hierarchy Descriptor'
	DD	00H
	DD	02H
	DD	FLAT:??_R2IPanelChangeObserver@@8
rdata$r	ENDS
;	COMDAT ??_R2IPanelChangeObserver@@8
rdata$r	SEGMENT
??_R2IPanelChangeObserver@@8 DD FLAT:??_R1A@?0A@A@IPanelChangeObserver@@8 ; IPanelChangeObserver::`RTTI Base Class Array'
	DD	FLAT:??_R1A@?0A@A@IMessageObserver@@8
rdata$r	ENDS
;	COMDAT ??_R1A@?0A@A@IPanelChangeObserver@@8
rdata$r	SEGMENT
??_R1A@?0A@A@IPanelChangeObserver@@8 DD FLAT:??_R0?AVIPanelChangeObserver@@@8 ; IPanelChangeObserver::`RTTI Base Class Descriptor at (0,-1,0,0)'
	DD	01H
	DD	00H
	DD	0ffffffffH
	DD	00H
	DD	00H
rdata$r	ENDS
;	COMDAT ??_R1A@?0A@A@IMessageObserver@@8
rdata$r	SEGMENT
??_R1A@?0A@A@IMessageObserver@@8 DD FLAT:??_R0?AVIMessageObserver@@@8 ; IMessageObserver::`RTTI Base Class Descriptor at (0,-1,0,0)'
	DD	00H
	DD	00H
	DD	0ffffffffH
	DD	00H
	DD	00H
; Function compile flags: /Odt
rdata$r	ENDS
;	COMDAT ??0IPanelChangeObserver@@QAE@XZ
_TEXT	SEGMENT
_this$ = -4						; size = 4
??0IPanelChangeObserver@@QAE@XZ PROC NEAR		; IPanelChangeObserver::IPanelChangeObserver, COMDAT
; _this$ = ecx
  00000	55		 push	 ebp
  00001	8b ec		 mov	 ebp, esp
  00003	51		 push	 ecx
  00004	89 4d fc	 mov	 DWORD PTR _this$[ebp], ecx
  00007	8b 4d fc	 mov	 ecx, DWORD PTR _this$[ebp]
  0000a	e8 00 00 00 00	 call	 ??0IMessageObserver@@QAE@XZ
  0000f	8b 45 fc	 mov	 eax, DWORD PTR _this$[ebp]
  00012	c7 00 00 00 00
	00		 mov	 DWORD PTR [eax], OFFSET FLAT:??_7IPanelChangeObserver@@6B@
  00018	8b 45 fc	 mov	 eax, DWORD PTR _this$[ebp]
  0001b	8b e5		 mov	 esp, ebp
  0001d	5d		 pop	 ebp
  0001e	c3		 ret	 0
??0IPanelChangeObserver@@QAE@XZ ENDP			; IPanelChangeObserver::IPanelChangeObserver
; Function compile flags: /Odt
_TEXT	ENDS
;	COMDAT ?IPanelChangeOb_ToFullScreen@IPanelChangeObserver@@UAEXPAVCWnd@@@Z
_TEXT	SEGMENT
_this$ = -4						; size = 4
_pWnd$ = 8						; size = 4
?IPanelChangeOb_ToFullScreen@IPanelChangeObserver@@UAEXPAVCWnd@@@Z PROC NEAR ; IPanelChangeObserver::IPanelChangeOb_ToFullScreen, COMDAT
; _this$ = ecx

; 13   : 	virtual void	IPanelChangeOb_ToFullScreen( CWnd* pWnd ){};

  00000	55		 push	 ebp
  00001	8b ec		 mov	 ebp, esp
  00003	51		 push	 ecx
  00004	89 4d fc	 mov	 DWORD PTR _this$[ebp], ecx
  00007	8b e5		 mov	 esp, ebp
  00009	5d		 pop	 ebp
  0000a	c2 04 00	 ret	 4
?IPanelChangeOb_ToFullScreen@IPanelChangeObserver@@UAEXPAVCWnd@@@Z ENDP ; IPanelChangeObserver::IPanelChangeOb_ToFullScreen
; Function compile flags: /Odt
_TEXT	ENDS
;	COMDAT ?IPanelChangeOb_ExitFullScreen@IPanelChangeObserver@@UAEXPAVCWnd@@@Z
_TEXT	SEGMENT
_this$ = -4						; size = 4
_pWnd$ = 8						; size = 4
?IPanelChangeOb_ExitFullScreen@IPanelChangeObserver@@UAEXPAVCWnd@@@Z PROC NEAR ; IPanelChangeObserver::IPanelChangeOb_ExitFullScreen, COMDAT
; _this$ = ecx

; 14   : 	virtual void	IPanelChangeOb_ExitFullScreen( CWnd* pWnd ){};

  00000	55		 push	 ebp
  00001	8b ec		 mov	 ebp, esp
  00003	51		 push	 ecx
  00004	89 4d fc	 mov	 DWORD PTR _this$[ebp], ecx
  00007	8b e5		 mov	 esp, ebp
  00009	5d		 pop	 ebp
  0000a	c2 04 00	 ret	 4
?IPanelChangeOb_ExitFullScreen@IPanelChangeObserver@@UAEXPAVCWnd@@@Z ENDP ; IPanelChangeObserver::IPanelChangeOb_ExitFullScreen
_TEXT	ENDS
PUBLIC	??1IMessageObserver@@UAE@XZ			; IMessageObserver::~IMessageObserver
; Function compile flags: /Odt
;	COMDAT ??1IPanelChangeObserver@@UAE@XZ
_TEXT	SEGMENT
_this$ = -4						; size = 4
??1IPanelChangeObserver@@UAE@XZ PROC NEAR		; IPanelChangeObserver::~IPanelChangeObserver, COMDAT
; _this$ = ecx
  00000	55		 push	 ebp
  00001	8b ec		 mov	 ebp, esp
  00003	51		 push	 ecx
  00004	89 4d fc	 mov	 DWORD PTR _this$[ebp], ecx
  00007	8b 4d fc	 mov	 ecx, DWORD PTR _this$[ebp]
  0000a	e8 00 00 00 00	 call	 ??1IMessageObserver@@UAE@XZ ; IMessageObserver::~IMessageObserver
  0000f	8b e5		 mov	 esp, ebp
  00011	5d		 pop	 ebp
  00012	c3		 ret	 0
??1IPanelChangeObserver@@UAE@XZ ENDP			; IPanelChangeObserver::~IPanelChangeObserver
_TEXT	ENDS
EXTRN	__imp_??0?$basic_string@DU?$char_traits@D@std@@V?$allocator@D@2@@std@@QAE@XZ:NEAR
EXTRN	__imp_??1?$basic_string@DU?$char_traits@D@std@@V?$allocator@D@2@@std@@QAE@XZ:NEAR
;	COMDAT xdata$x
xdata$x	SEGMENT
$T200632 DD	0ffffffffH
	DD	FLAT:$L200626
	DD	00H
	DD	FLAT:$L200627
$T200630 DD	019930520H
	DD	02H
	DD	FLAT:$T200632
	DD	2 DUP(00H)
	DD	2 DUP(00H)
; Function compile flags: /Odt
xdata$x	ENDS
;	COMDAT ??0WEB_GAME@@QAE@XZ
_TEXT	SEGMENT
_this$ = -16						; size = 4
__$EHRec$ = -12						; size = 12
??0WEB_GAME@@QAE@XZ PROC NEAR				; WEB_GAME::WEB_GAME, COMDAT
; _this$ = ecx
  00000	55		 push	 ebp
  00001	8b ec		 mov	 ebp, esp
  00003	6a ff		 push	 -1
  00005	68 00 00 00 00	 push	 __ehhandler$??0WEB_GAME@@QAE@XZ
  0000a	64 a1 00 00 00
	00		 mov	 eax, DWORD PTR fs:__except_list
  00010	50		 push	 eax
  00011	64 89 25 00 00
	00 00		 mov	 DWORD PTR fs:__except_list, esp
  00018	51		 push	 ecx
  00019	89 4d f0	 mov	 DWORD PTR _this$[ebp], ecx
  0001c	8b 4d f0	 mov	 ecx, DWORD PTR _this$[ebp]
  0001f	ff 15 00 00 00
	00		 call	 DWORD PTR __imp_??0?$basic_string@DU?$char_traits@D@std@@V?$allocator@D@2@@std@@QAE@XZ
  00025	c7 45 fc 00 00
	00 00		 mov	 DWORD PTR __$EHRec$[ebp+8], 0
  0002c	8b 4d f0	 mov	 ecx, DWORD PTR _this$[ebp]
  0002f	83 c1 1c	 add	 ecx, 28			; 0000001cH
  00032	ff 15 00 00 00
	00		 call	 DWORD PTR __imp_??0?$basic_string@DU?$char_traits@D@std@@V?$allocator@D@2@@std@@QAE@XZ
  00038	c6 45 fc 01	 mov	 BYTE PTR __$EHRec$[ebp+8], 1
  0003c	8b 4d f0	 mov	 ecx, DWORD PTR _this$[ebp]
  0003f	83 c1 38	 add	 ecx, 56			; 00000038H
  00042	ff 15 00 00 00
	00		 call	 DWORD PTR __imp_??0?$basic_string@DU?$char_traits@D@std@@V?$allocator@D@2@@std@@QAE@XZ
  00048	c7 45 fc ff ff
	ff ff		 mov	 DWORD PTR __$EHRec$[ebp+8], -1
  0004f	8b 45 f0	 mov	 eax, DWORD PTR _this$[ebp]
  00052	8b 4d f4	 mov	 ecx, DWORD PTR __$EHRec$[ebp]
  00055	64 89 0d 00 00
	00 00		 mov	 DWORD PTR fs:__except_list, ecx
  0005c	8b e5		 mov	 esp, ebp
  0005e	5d		 pop	 ebp
  0005f	c3		 ret	 0
_TEXT	ENDS
;	COMDAT text$x
text$x	SEGMENT
$L200626:
  00000	8b 4d f0	 mov	 ecx, DWORD PTR _this$[ebp]
  00003	ff 25 00 00 00
	00		 jmp	 DWORD PTR __imp_??1?$basic_string@DU?$char_traits@D@std@@V?$allocator@D@2@@std@@QAE@XZ
$L200627:
  00009	8b 4d f0	 mov	 ecx, DWORD PTR _this$[ebp]
  0000c	83 c1 1c	 add	 ecx, 28			; 0000001cH
  0000f	ff 25 00 00 00
	00		 jmp	 DWORD PTR __imp_??1?$basic_string@DU?$char_traits@D@std@@V?$allocator@D@2@@std@@QAE@XZ
__ehhandler$??0WEB_GAME@@QAE@XZ:
  00015	b8 00 00 00 00	 mov	 eax, OFFSET FLAT:$T200630
  0001a	e9 00 00 00 00	 jmp	 ___CxxFrameHandler
text$x	ENDS
??0WEB_GAME@@QAE@XZ ENDP				; WEB_GAME::WEB_GAME
;	COMDAT xdata$x
xdata$x	SEGMENT
$T200643 DD	0ffffffffH
	DD	FLAT:$L200637
	DD	00H
	DD	FLAT:$L200638
$T200641 DD	019930520H
	DD	02H
	DD	FLAT:$T200643
	DD	2 DUP(00H)
	DD	2 DUP(00H)
; Function compile flags: /Odt
xdata$x	ENDS
;	COMDAT ??1WEB_GAME@@QAE@XZ
_TEXT	SEGMENT
_this$ = -16						; size = 4
__$EHRec$ = -12						; size = 12
??1WEB_GAME@@QAE@XZ PROC NEAR				; WEB_GAME::~WEB_GAME, COMDAT
; _this$ = ecx
  00000	55		 push	 ebp
  00001	8b ec		 mov	 ebp, esp
  00003	6a ff		 push	 -1
  00005	68 00 00 00 00	 push	 __ehhandler$??1WEB_GAME@@QAE@XZ
  0000a	64 a1 00 00 00
	00		 mov	 eax, DWORD PTR fs:__except_list
  00010	50		 push	 eax
  00011	64 89 25 00 00
	00 00		 mov	 DWORD PTR fs:__except_list, esp
  00018	51		 push	 ecx
  00019	89 4d f0	 mov	 DWORD PTR _this$[ebp], ecx
  0001c	c7 45 fc 01 00
	00 00		 mov	 DWORD PTR __$EHRec$[ebp+8], 1
  00023	8b 4d f0	 mov	 ecx, DWORD PTR _this$[ebp]
  00026	83 c1 38	 add	 ecx, 56			; 00000038H
  00029	ff 15 00 00 00
	00		 call	 DWORD PTR __imp_??1?$basic_string@DU?$char_traits@D@std@@V?$allocator@D@2@@std@@QAE@XZ
  0002f	c6 45 fc 00	 mov	 BYTE PTR __$EHRec$[ebp+8], 0
  00033	8b 4d f0	 mov	 ecx, DWORD PTR _this$[ebp]
  00036	83 c1 1c	 add	 ecx, 28			; 0000001cH
  00039	ff 15 00 00 00
	00		 call	 DWORD PTR __imp_??1?$basic_string@DU?$char_traits@D@std@@V?$allocator@D@2@@std@@QAE@XZ
  0003f	c7 45 fc ff ff
	ff ff		 mov	 DWORD PTR __$EHRec$[ebp+8], -1
  00046	8b 4d f0	 mov	 ecx, DWORD PTR _this$[ebp]
  00049	ff 15 00 00 00
	00		 call	 DWORD PTR __imp_??1?$basic_string@DU?$char_traits@D@std@@V?$allocator@D@2@@std@@QAE@XZ
  0004f	8b 4d f4	 mov	 ecx, DWORD PTR __$EHRec$[ebp]
  00052	64 89 0d 00 00
	00 00		 mov	 DWORD PTR fs:__except_list, ecx
  00059	8b e5		 mov	 esp, ebp
  0005b	5d		 pop	 ebp
  0005c	c3		 ret	 0
_TEXT	ENDS
;	COMDAT text$x
text$x	SEGMENT
$L200637:
  00000	8b 4d f0	 mov	 ecx, DWORD PTR _this$[ebp]
  00003	ff 25 00 00 00
	00		 jmp	 DWORD PTR __imp_??1?$basic_string@DU?$char_traits@D@std@@V?$allocator@D@2@@std@@QAE@XZ
$L200638:
  00009	8b 4d f0	 mov	 ecx, DWORD PTR _this$[ebp]
  0000c	83 c1 1c	 add	 ecx, 28			; 0000001cH
  0000f	ff 25 00 00 00
	00		 jmp	 DWORD PTR __imp_??1?$basic_string@DU?$char_traits@D@std@@V?$allocator@D@2@@std@@QAE@XZ
__ehhandler$??1WEB_GAME@@QAE@XZ:
  00015	b8 00 00 00 00	 mov	 eax, OFFSET FLAT:$T200641
  0001a	e9 00 00 00 00	 jmp	 ___CxxFrameHandler
text$x	ENDS
??1WEB_GAME@@QAE@XZ ENDP				; WEB_GAME::~WEB_GAME
EXTRN	??3@YAXPAX@Z:NEAR				; operator delete
; Function compile flags: /Odt
;	COMDAT ??_GIPanelChangeObserver@@UAEPAXI@Z
_TEXT	SEGMENT
_this$ = -4						; size = 4
___flags$ = 8						; size = 4
??_GIPanelChangeObserver@@UAEPAXI@Z PROC NEAR		; IPanelChangeObserver::`scalar deleting destructor', COMDAT
; _this$ = ecx
  00000	55		 push	 ebp
  00001	8b ec		 mov	 ebp, esp
  00003	51		 push	 ecx
  00004	89 4d fc	 mov	 DWORD PTR _this$[ebp], ecx
  00007	8b 4d fc	 mov	 ecx, DWORD PTR _this$[ebp]
  0000a	e8 00 00 00 00	 call	 ??1IPanelChangeObserver@@UAE@XZ
  0000f	8b 45 08	 mov	 eax, DWORD PTR ___flags$[ebp]
  00012	83 e0 01	 and	 eax, 1
  00015	74 0c		 je	 SHORT $L199714
  00017	8b 4d fc	 mov	 ecx, DWORD PTR _this$[ebp]
  0001a	51		 push	 ecx
  0001b	e8 00 00 00 00	 call	 ??3@YAXPAX@Z		; operator delete
  00020	83 c4 04	 add	 esp, 4
$L199714:
  00023	8b 45 fc	 mov	 eax, DWORD PTR _this$[ebp]
  00026	8b e5		 mov	 esp, ebp
  00028	5d		 pop	 ebp
  00029	c2 04 00	 ret	 4
??_GIPanelChangeObserver@@UAEPAXI@Z ENDP		; IPanelChangeObserver::`scalar deleting destructor'
_TEXT	ENDS
PUBLIC	??_R4IMessageObserver@@6B@			; IMessageObserver::`RTTI Complete Object Locator'
PUBLIC	??_R3IMessageObserver@@8			; IMessageObserver::`RTTI Class Hierarchy Descriptor'
PUBLIC	??_R2IMessageObserver@@8			; IMessageObserver::`RTTI Base Class Array'
PUBLIC	??_7IMessageObserver@@6B@			; IMessageObserver::`vftable'
PUBLIC	??_GIMessageObserver@@UAEPAXI@Z			; IMessageObserver::`scalar deleting destructor'
EXTRN	??_EIMessageObserver@@UAEPAXI@Z:NEAR		; IMessageObserver::`vector deleting destructor'
;	COMDAT ??_7IMessageObserver@@6B@
CONST	SEGMENT
??_7IMessageObserver@@6B@ DD FLAT:??_R4IMessageObserver@@6B@ ; IMessageObserver::`vftable'
	DD	FLAT:??_EIMessageObserver@@UAEPAXI@Z
CONST	ENDS
;	COMDAT ??_R4IMessageObserver@@6B@
rdata$r	SEGMENT
??_R4IMessageObserver@@6B@ DD 00H			; IMessageObserver::`RTTI Complete Object Locator'
	DD	00H
	DD	00H
	DD	FLAT:??_R0?AVIMessageObserver@@@8
	DD	FLAT:??_R3IMessageObserver@@8
rdata$r	ENDS
;	COMDAT ??_R3IMessageObserver@@8
rdata$r	SEGMENT
??_R3IMessageObserver@@8 DD 00H				; IMessageObserver::`RTTI Class Hierarchy Descriptor'
	DD	00H
	DD	01H
	DD	FLAT:??_R2IMessageObserver@@8
rdata$r	ENDS
;	COMDAT ??_R2IMessageObserver@@8
rdata$r	SEGMENT
??_R2IMessageObserver@@8 DD FLAT:??_R1A@?0A@A@IMessageObserver@@8 ; IMessageObserver::`RTTI Base Class Array'
; Function compile flags: /Odt
rdata$r	ENDS
;	COMDAT ??0IMessageObserver@@QAE@XZ
_TEXT	SEGMENT
_this$ = -4						; size = 4
??0IMessageObserver@@QAE@XZ PROC NEAR			; IMessageObserver::IMessageObserver, COMDAT
; _this$ = ecx
  00000	55		 push	 ebp
  00001	8b ec		 mov	 ebp, esp
  00003	51		 push	 ecx
  00004	89 4d fc	 mov	 DWORD PTR _this$[ebp], ecx
  00007	8b 45 fc	 mov	 eax, DWORD PTR _this$[ebp]
  0000a	c7 00 00 00 00
	00		 mov	 DWORD PTR [eax], OFFSET FLAT:??_7IMessageObserver@@6B@
  00010	8b 45 fc	 mov	 eax, DWORD PTR _this$[ebp]
  00013	8b e5		 mov	 esp, ebp
  00015	5d		 pop	 ebp
  00016	c3		 ret	 0
??0IMessageObserver@@QAE@XZ ENDP			; IMessageObserver::IMessageObserver
_TEXT	ENDS
xdata$x	SEGMENT
$T200668 DD	0ffffffffH
	DD	FLAT:$L200660
	DD	00H
	DD	FLAT:$L200663
	DD	01H
	DD	FLAT:$L200664
$T200666 DD	019930520H
	DD	03H
	DD	FLAT:$T200668
	DD	2 DUP(00H)
	DD	2 DUP(00H)
; Function compile flags: /Odt
; File d:\boxgit\playbox\playbox\dev\prj\playbox\src\module\gamepanel\webgamepanelwnd.cpp
xdata$x	ENDS
_TEXT	SEGMENT
tv68 = -40						; size = 4
tv84 = -36						; size = 4
tv89 = -32						; size = 4
tv81 = -28						; size = 4
_this$ = -24						; size = 4
$T200655 = -20						; size = 4
$T200654 = -16						; size = 4
__$EHRec$ = -12						; size = 12
??1WebGamePanelWnd@@UAE@XZ PROC NEAR			; WebGamePanelWnd::~WebGamePanelWnd
; _this$ = ecx

; 23   : {

  00180	55		 push	 ebp
  00181	8b ec		 mov	 ebp, esp
  00183	6a ff		 push	 -1
  00185	68 00 00 00 00	 push	 __ehhandler$??1WebGamePanelWnd@@UAE@XZ
  0018a	64 a1 00 00 00
	00		 mov	 eax, DWORD PTR fs:__except_list
  00190	50		 push	 eax
  00191	64 89 25 00 00
	00 00		 mov	 DWORD PTR fs:__except_list, esp
  00198	83 ec 1c	 sub	 esp, 28			; 0000001cH
  0019b	89 4d e8	 mov	 DWORD PTR _this$[ebp], ecx
  0019e	8b 45 e8	 mov	 eax, DWORD PTR _this$[ebp]
  001a1	c7 00 00 00 00
	00		 mov	 DWORD PTR [eax], OFFSET FLAT:??_7WebGamePanelWnd@@6BCBasicWnd@@@
  001a7	8b 4d e8	 mov	 ecx, DWORD PTR _this$[ebp]
  001aa	c7 41 54 00 00
	00 00		 mov	 DWORD PTR [ecx+84], OFFSET FLAT:??_7WebGamePanelWnd@@6BIPanelChangeObserver@@@
  001b1	c7 45 fc 02 00
	00 00		 mov	 DWORD PTR __$EHRec$[ebp+8], 2

; 24   : 	delete m_pWndGamePlaying;

  001b8	8b 55 e8	 mov	 edx, DWORD PTR _this$[ebp]
  001bb	8b 42 5c	 mov	 eax, DWORD PTR [edx+92]
  001be	89 45 ec	 mov	 DWORD PTR $T200655[ebp], eax
  001c1	8b 4d ec	 mov	 ecx, DWORD PTR $T200655[ebp]
  001c4	89 4d f0	 mov	 DWORD PTR $T200654[ebp], ecx
  001c7	83 7d f0 00	 cmp	 DWORD PTR $T200654[ebp], 0
  001cb	74 12		 je	 SHORT $L200656
  001cd	6a 01		 push	 1
  001cf	8b 55 f0	 mov	 edx, DWORD PTR $T200654[ebp]
  001d2	8b 02		 mov	 eax, DWORD PTR [edx]
  001d4	8b 4d f0	 mov	 ecx, DWORD PTR $T200654[ebp]
  001d7	ff 50 04	 call	 DWORD PTR [eax+4]
  001da	89 45 e4	 mov	 DWORD PTR tv81[ebp], eax
  001dd	eb 07		 jmp	 SHORT $L200657
$L200656:
  001df	c7 45 e4 00 00
	00 00		 mov	 DWORD PTR tv81[ebp], 0
$L200657:

; 25   : 	AfxGetMessageManager()->DetachMessage( ID_MESSAGE_PANEL_CHANGE,(IPanelChangeObserver*) this);

  001e6	83 7d e8 00	 cmp	 DWORD PTR _this$[ebp], 0
  001ea	74 0b		 je	 SHORT $L200658
  001ec	8b 4d e8	 mov	 ecx, DWORD PTR _this$[ebp]
  001ef	83 c1 54	 add	 ecx, 84			; 00000054H
  001f2	89 4d e0	 mov	 DWORD PTR tv89[ebp], ecx
  001f5	eb 07		 jmp	 SHORT $L200659
$L200658:
  001f7	c7 45 e0 00 00
	00 00		 mov	 DWORD PTR tv89[ebp], 0
$L200659:
  001fe	e8 00 00 00 00	 call	 ?AfxGetMessageManager@@YAPAVIMessageManager@@XZ ; AfxGetMessageManager
  00203	89 45 dc	 mov	 DWORD PTR tv84[ebp], eax
  00206	8b 55 e0	 mov	 edx, DWORD PTR tv89[ebp]
  00209	52		 push	 edx
  0020a	68 00 00 00 00	 push	 OFFSET FLAT:_ID_MESSAGE_PANEL_CHANGE
  0020f	8b 45 dc	 mov	 eax, DWORD PTR tv84[ebp]
  00212	8b 10		 mov	 edx, DWORD PTR [eax]
  00214	8b 4d dc	 mov	 ecx, DWORD PTR tv84[ebp]
  00217	ff 52 08	 call	 DWORD PTR [edx+8]

; 26   : }

  0021a	c6 45 fc 01	 mov	 BYTE PTR __$EHRec$[ebp+8], 1
  0021e	8b 4d e8	 mov	 ecx, DWORD PTR _this$[ebp]
  00221	83 c1 60	 add	 ecx, 96			; 00000060H
  00224	e8 00 00 00 00	 call	 ??1WEB_GAME@@QAE@XZ
  00229	c6 45 fc 00	 mov	 BYTE PTR __$EHRec$[ebp+8], 0
  0022d	83 7d e8 00	 cmp	 DWORD PTR _this$[ebp], 0
  00231	74 0b		 je	 SHORT $L200652
  00233	8b 45 e8	 mov	 eax, DWORD PTR _this$[ebp]
  00236	83 c0 54	 add	 eax, 84			; 00000054H
  00239	89 45 d8	 mov	 DWORD PTR tv68[ebp], eax
  0023c	eb 07		 jmp	 SHORT $L200653
$L200652:
  0023e	c7 45 d8 00 00
	00 00		 mov	 DWORD PTR tv68[ebp], 0
$L200653:
  00245	8b 4d d8	 mov	 ecx, DWORD PTR tv68[ebp]
  00248	e8 00 00 00 00	 call	 ??1IPanelChangeObserver@@UAE@XZ
  0024d	c7 45 fc ff ff
	ff ff		 mov	 DWORD PTR __$EHRec$[ebp+8], -1
  00254	8b 4d e8	 mov	 ecx, DWORD PTR _this$[ebp]
  00257	e8 00 00 00 00	 call	 ??1CBasicWnd@@UAE@XZ	; CBasicWnd::~CBasicWnd
  0025c	8b 4d f4	 mov	 ecx, DWORD PTR __$EHRec$[ebp]
  0025f	64 89 0d 00 00
	00 00		 mov	 DWORD PTR fs:__except_list, ecx
  00266	8b e5		 mov	 esp, ebp
  00268	5d		 pop	 ebp
  00269	c3		 ret	 0
_TEXT	ENDS
text$x	SEGMENT
$L200660:
  0003c	8b 4d e8	 mov	 ecx, DWORD PTR _this$[ebp]
  0003f	e9 00 00 00 00	 jmp	 ??1CBasicWnd@@UAE@XZ	; CBasicWnd::~CBasicWnd
$L200663:
  00044	83 7d e8 00	 cmp	 DWORD PTR _this$[ebp], 0
  00048	0f 84 0e 00 00
	00		 je	 $L200661
  0004e	8b 45 e8	 mov	 eax, DWORD PTR _this$[ebp]
  00051	83 c0 54	 add	 eax, 84			; 00000054H
  00054	89 45 d8	 mov	 DWORD PTR tv68[ebp], eax
  00057	e9 07 00 00 00	 jmp	 $L200662
$L200661:
  0005c	c7 45 d8 00 00
	00 00		 mov	 DWORD PTR tv68[ebp], 0
$L200662:
  00063	8b 4d d8	 mov	 ecx, DWORD PTR tv68[ebp]
  00066	e9 00 00 00 00	 jmp	 ??1IPanelChangeObserver@@UAE@XZ
$L200664:
  0006b	8b 4d e8	 mov	 ecx, DWORD PTR _this$[ebp]
  0006e	83 c1 60	 add	 ecx, 96			; 00000060H
  00071	e9 00 00 00 00	 jmp	 ??1WEB_GAME@@QAE@XZ
__ehhandler$??1WebGamePanelWnd@@UAE@XZ:
  00076	b8 00 00 00 00	 mov	 eax, OFFSET FLAT:$T200666
  0007b	e9 00 00 00 00	 jmp	 ___CxxFrameHandler
text$x	ENDS
??1WebGamePanelWnd@@UAE@XZ ENDP				; WebGamePanelWnd::~WebGamePanelWnd
PUBLIC	?GetThisMessageMap@WebGamePanelWnd@@KGPBUAFX_MSGMAP@@XZ ; WebGamePanelWnd::GetThisMessageMap
; Function compile flags: /Odt
_TEXT	SEGMENT
?GetThisMessageMap@WebGamePanelWnd@@KGPBUAFX_MSGMAP@@XZ PROC NEAR ; WebGamePanelWnd::GetThisMessageMap

; 28   : BEGIN_MESSAGE_MAP(WebGamePanelWnd, CBasicWnd)

  00270	55		 push	 ebp
  00271	8b ec		 mov	 ebp, esp
  00273	b8 00 00 00 00	 mov	 eax, OFFSET FLAT:?messageMap@WebGamePanelWnd@@1UAFX_MSGMAP@@B ; WebGamePanelWnd::messageMap
  00278	5d		 pop	 ebp
  00279	c3		 ret	 0
?GetThisMessageMap@WebGamePanelWnd@@KGPBUAFX_MSGMAP@@XZ ENDP ; WebGamePanelWnd::GetThisMessageMap
; Function compile flags: /Odt
_this$ = -4						; size = 4
?GetMessageMap@WebGamePanelWnd@@MBEPBUAFX_MSGMAP@@XZ PROC NEAR ; WebGamePanelWnd::GetMessageMap
; _this$ = ecx

; 28   : BEGIN_MESSAGE_MAP(WebGamePanelWnd, CBasicWnd)

  00280	55		 push	 ebp
  00281	8b ec		 mov	 ebp, esp
  00283	51		 push	 ecx
  00284	89 4d fc	 mov	 DWORD PTR _this$[ebp], ecx
  00287	b8 00 00 00 00	 mov	 eax, OFFSET FLAT:?messageMap@WebGamePanelWnd@@1UAFX_MSGMAP@@B ; WebGamePanelWnd::messageMap
  0028c	8b e5		 mov	 esp, ebp
  0028e	5d		 pop	 ebp
  0028f	c3		 ret	 0
?GetMessageMap@WebGamePanelWnd@@MBEPBUAFX_MSGMAP@@XZ ENDP ; WebGamePanelWnd::GetMessageMap
_TEXT	ENDS
PUBLIC	??0CRect@@QAE@HHHH@Z				; CRect::CRect
PUBLIC	?OnCreate@CWnd@@IAEHPAUtagCREATESTRUCTA@@@Z	; CWnd::OnCreate
EXTRN	__imp_??0?$CStringT@DV?$StrTraitMFC_DLL@DV?$ChTraitsCRT@D@ATL@@@@@ATL@@QAE@PBD@Z:NEAR
EXTRN	__imp_??1?$CStringT@DV?$StrTraitMFC_DLL@DV?$ChTraitsCRT@D@ATL@@@@@ATL@@QAE@XZ:NEAR
EXTRN	?AfxGetUIManager@@YAPAVIUIManager@@XZ:NEAR	; AfxGetUIManager
xdata$x	SEGMENT
$T200687 DD	0ffffffffH
	DD	FLAT:$L200680
	DD	0ffffffffH
	DD	FLAT:$L200682
$T200685 DD	019930520H
	DD	02H
	DD	FLAT:$T200687
	DD	2 DUP(00H)
	DD	2 DUP(00H)
; Function compile flags: /Odt
xdata$x	ENDS
_TEXT	SEGMENT
tv256 = -96						; size = 4
tv253 = -92						; size = 4
tv258 = -88						; size = 4
tv251 = -84						; size = 4
tv248 = -80						; size = 4
tv257 = -76						; size = 4
tv246 = -72						; size = 4
tv243 = -68						; size = 4
tv135 = -64						; size = 4
_this$ = -60						; size = 4
$T200677 = -56						; size = 4
$T200676 = -52						; size = 4
$T200675 = -48						; size = 4
$T200674 = -44						; size = 4
$T200673 = -40						; size = 4
$T200672 = -36						; size = 4
_pLayoutMgr$ = -32					; size = 4
_rectNull$ = -28					; size = 16
__$EHRec$ = -12						; size = 12
_lpCreateStruct$ = 8					; size = 4
?OnCreate@WebGamePanelWnd@@IAEHPAUtagCREATESTRUCTA@@@Z PROC NEAR ; WebGamePanelWnd::OnCreate
; _this$ = ecx

; 36   : {

  00290	55		 push	 ebp
  00291	8b ec		 mov	 ebp, esp
  00293	6a ff		 push	 -1
  00295	68 00 00 00 00	 push	 __ehhandler$?OnCreate@WebGamePanelWnd@@IAEHPAUtagCREATESTRUCTA@@@Z
  0029a	64 a1 00 00 00
	00		 mov	 eax, DWORD PTR fs:__except_list
  002a0	50		 push	 eax
  002a1	64 89 25 00 00
	00 00		 mov	 DWORD PTR fs:__except_list, esp
  002a8	83 ec 54	 sub	 esp, 84			; 00000054H
  002ab	89 4d c4	 mov	 DWORD PTR _this$[ebp], ecx

; 37   : 	if(__super::OnCreate(lpCreateStruct) == -1)

  002ae	8b 45 08	 mov	 eax, DWORD PTR _lpCreateStruct$[ebp]
  002b1	50		 push	 eax
  002b2	8b 4d c4	 mov	 ecx, DWORD PTR _this$[ebp]
  002b5	e8 00 00 00 00	 call	 ?OnCreate@CWnd@@IAEHPAUtagCREATESTRUCTA@@@Z ; CWnd::OnCreate
  002ba	83 f8 ff	 cmp	 eax, -1
  002bd	75 08		 jne	 SHORT $L199748

; 38   : 	{
; 39   : 		return -1;

  002bf	83 c8 ff	 or	 eax, -1
  002c2	e9 66 01 00 00	 jmp	 $L199747
$L199748:

; 40   : 	}
; 41   : 	CRect rectNull(0,0,0,0);

  002c7	6a 00		 push	 0
  002c9	6a 00		 push	 0
  002cb	6a 00		 push	 0
  002cd	6a 00		 push	 0
  002cf	8d 4d e4	 lea	 ecx, DWORD PTR _rectNull$[ebp]
  002d2	e8 00 00 00 00	 call	 ??0CRect@@QAE@HHHH@Z	; CRect::CRect

; 42   : 
; 43   : 	m_pWndGameRight->Create(NULL,NULL,WS_CHILD|WS_CLIPCHILDREN|WS_CLIPSIBLINGS,rectNull,this,ID_WND_WEBGAMERIGHT );

  002d7	6a 00		 push	 0
  002d9	68 d5 00 00 00	 push	 213			; 000000d5H
  002de	8b 4d c4	 mov	 ecx, DWORD PTR _this$[ebp]
  002e1	51		 push	 ecx
  002e2	8d 55 e4	 lea	 edx, DWORD PTR _rectNull$[ebp]
  002e5	52		 push	 edx
  002e6	68 00 00 00 46	 push	 1174405120		; 46000000H
  002eb	6a 00		 push	 0
  002ed	6a 00		 push	 0
  002ef	8b 45 c4	 mov	 eax, DWORD PTR _this$[ebp]
  002f2	8b 48 58	 mov	 ecx, DWORD PTR [eax+88]
  002f5	8b 55 c4	 mov	 edx, DWORD PTR _this$[ebp]
  002f8	8b 42 58	 mov	 eax, DWORD PTR [edx+88]
  002fb	8b 11		 mov	 edx, DWORD PTR [ecx]
  002fd	8b c8		 mov	 ecx, eax
  002ff	ff 52 5c	 call	 DWORD PTR [edx+92]

; 44   : 	m_pWndGamePlaying->Create(NULL,NULL,WS_CHILD|WS_CLIPCHILDREN|WS_CLIPSIBLINGS,rectNull,this,ID_WND_WEBGAMEPLAYING );

  00302	6a 00		 push	 0
  00304	68 d6 00 00 00	 push	 214			; 000000d6H
  00309	8b 45 c4	 mov	 eax, DWORD PTR _this$[ebp]
  0030c	50		 push	 eax
  0030d	8d 4d e4	 lea	 ecx, DWORD PTR _rectNull$[ebp]
  00310	51		 push	 ecx
  00311	68 00 00 00 46	 push	 1174405120		; 46000000H
  00316	6a 00		 push	 0
  00318	6a 00		 push	 0
  0031a	8b 55 c4	 mov	 edx, DWORD PTR _this$[ebp]
  0031d	8b 42 5c	 mov	 eax, DWORD PTR [edx+92]
  00320	8b 4d c4	 mov	 ecx, DWORD PTR _this$[ebp]
  00323	8b 49 5c	 mov	 ecx, DWORD PTR [ecx+92]
  00326	8b 10		 mov	 edx, DWORD PTR [eax]
  00328	ff 52 5c	 call	 DWORD PTR [edx+92]

; 45   : 
; 46   : 	ILayoutMgr* pLayoutMgr =  AfxGetUIManager()->UIGetLayoutMgr();

  0032b	e8 00 00 00 00	 call	 ?AfxGetUIManager@@YAPAVIUIManager@@XZ ; AfxGetUIManager
  00330	89 45 c0	 mov	 DWORD PTR tv135[ebp], eax
  00333	8b 45 c0	 mov	 eax, DWORD PTR tv135[ebp]
  00336	8b 10		 mov	 edx, DWORD PTR [eax]
  00338	8b 4d c0	 mov	 ecx, DWORD PTR tv135[ebp]
  0033b	ff 52 24	 call	 DWORD PTR [edx+36]
  0033e	89 45 e0	 mov	 DWORD PTR _pLayoutMgr$[ebp], eax

; 47   : 	
; 48   : 	pLayoutMgr->RegisterCtrl( this, "WebGamePlaying", m_pWndGamePlaying );

  00341	8b 45 c4	 mov	 eax, DWORD PTR _this$[ebp]
  00344	8b 48 5c	 mov	 ecx, DWORD PTR [eax+92]
  00347	51		 push	 ecx
  00348	51		 push	 ecx
  00349	8b cc		 mov	 ecx, esp
  0034b	89 65 dc	 mov	 DWORD PTR $T200672[ebp], esp
  0034e	68 00 00 00 00	 push	 OFFSET FLAT:$SG199752
  00353	ff 15 00 00 00
	00		 call	 DWORD PTR __imp_??0?$CStringT@DV?$StrTraitMFC_DLL@DV?$ChTraitsCRT@D@ATL@@@@@ATL@@QAE@PBD@Z
  00359	89 45 bc	 mov	 DWORD PTR tv243[ebp], eax
  0035c	8b 55 c4	 mov	 edx, DWORD PTR _this$[ebp]
  0035f	52		 push	 edx
  00360	8b 45 e0	 mov	 eax, DWORD PTR _pLayoutMgr$[ebp]
  00363	8b 10		 mov	 edx, DWORD PTR [eax]
  00365	8b 4d e0	 mov	 ecx, DWORD PTR _pLayoutMgr$[ebp]
  00368	ff 52 34	 call	 DWORD PTR [edx+52]

; 49   : 	pLayoutMgr->RegisterCtrl( this, "WebGameRight", m_pWndGameRight );

  0036b	8b 45 c4	 mov	 eax, DWORD PTR _this$[ebp]
  0036e	8b 48 58	 mov	 ecx, DWORD PTR [eax+88]
  00371	51		 push	 ecx
  00372	51		 push	 ecx
  00373	8b cc		 mov	 ecx, esp
  00375	89 65 d8	 mov	 DWORD PTR $T200673[ebp], esp
  00378	68 00 00 00 00	 push	 OFFSET FLAT:$SG199754
  0037d	ff 15 00 00 00
	00		 call	 DWORD PTR __imp_??0?$CStringT@DV?$StrTraitMFC_DLL@DV?$ChTraitsCRT@D@ATL@@@@@ATL@@QAE@PBD@Z
  00383	89 45 b8	 mov	 DWORD PTR tv246[ebp], eax
  00386	8b 55 c4	 mov	 edx, DWORD PTR _this$[ebp]
  00389	52		 push	 edx
  0038a	8b 45 e0	 mov	 eax, DWORD PTR _pLayoutMgr$[ebp]
  0038d	8b 10		 mov	 edx, DWORD PTR [eax]
  0038f	8b 4d e0	 mov	 ecx, DWORD PTR _pLayoutMgr$[ebp]
  00392	ff 52 34	 call	 DWORD PTR [edx+52]

; 50   : 
; 51   : 	pLayoutMgr->CreateControlPane( this, "webgamepanel", "normal" );

  00395	51		 push	 ecx
  00396	8b cc		 mov	 ecx, esp
  00398	89 65 d4	 mov	 DWORD PTR $T200674[ebp], esp
  0039b	68 00 00 00 00	 push	 OFFSET FLAT:$SG199757
  003a0	ff 15 00 00 00
	00		 call	 DWORD PTR __imp_??0?$CStringT@DV?$StrTraitMFC_DLL@DV?$ChTraitsCRT@D@ATL@@@@@ATL@@QAE@PBD@Z
  003a6	89 45 b4	 mov	 DWORD PTR tv257[ebp], eax
  003a9	8b 45 b4	 mov	 eax, DWORD PTR tv257[ebp]
  003ac	89 45 b0	 mov	 DWORD PTR tv248[ebp], eax
  003af	c7 45 fc 00 00
	00 00		 mov	 DWORD PTR __$EHRec$[ebp+8], 0
  003b6	51		 push	 ecx
  003b7	8b cc		 mov	 ecx, esp
  003b9	89 65 d0	 mov	 DWORD PTR $T200675[ebp], esp
  003bc	68 00 00 00 00	 push	 OFFSET FLAT:$SG199758
  003c1	ff 15 00 00 00
	00		 call	 DWORD PTR __imp_??0?$CStringT@DV?$StrTraitMFC_DLL@DV?$ChTraitsCRT@D@ATL@@@@@ATL@@QAE@PBD@Z
  003c7	89 45 ac	 mov	 DWORD PTR tv251[ebp], eax
  003ca	8b 4d c4	 mov	 ecx, DWORD PTR _this$[ebp]
  003cd	51		 push	 ecx
  003ce	8b 55 e0	 mov	 edx, DWORD PTR _pLayoutMgr$[ebp]
  003d1	8b 02		 mov	 eax, DWORD PTR [edx]
  003d3	c7 45 fc ff ff
	ff ff		 mov	 DWORD PTR __$EHRec$[ebp+8], -1
  003da	8b 4d e0	 mov	 ecx, DWORD PTR _pLayoutMgr$[ebp]
  003dd	ff 50 38	 call	 DWORD PTR [eax+56]

; 52   : 	pLayoutMgr->CreateBmpPane( this,"webgamepanel","normal" );

  003e0	51		 push	 ecx
  003e1	8b cc		 mov	 ecx, esp
  003e3	89 65 cc	 mov	 DWORD PTR $T200676[ebp], esp
  003e6	68 00 00 00 00	 push	 OFFSET FLAT:$SG199761
  003eb	ff 15 00 00 00
	00		 call	 DWORD PTR __imp_??0?$CStringT@DV?$StrTraitMFC_DLL@DV?$ChTraitsCRT@D@ATL@@@@@ATL@@QAE@PBD@Z
  003f1	89 45 a8	 mov	 DWORD PTR tv258[ebp], eax
  003f4	8b 4d a8	 mov	 ecx, DWORD PTR tv258[ebp]
  003f7	89 4d a4	 mov	 DWORD PTR tv253[ebp], ecx
  003fa	c7 45 fc 01 00
	00 00		 mov	 DWORD PTR __$EHRec$[ebp+8], 1
  00401	51		 push	 ecx
  00402	8b cc		 mov	 ecx, esp
  00404	89 65 c8	 mov	 DWORD PTR $T200677[ebp], esp
  00407	68 00 00 00 00	 push	 OFFSET FLAT:$SG199762
  0040c	ff 15 00 00 00
	00		 call	 DWORD PTR __imp_??0?$CStringT@DV?$StrTraitMFC_DLL@DV?$ChTraitsCRT@D@ATL@@@@@ATL@@QAE@PBD@Z
  00412	89 45 a0	 mov	 DWORD PTR tv256[ebp], eax
  00415	8b 55 c4	 mov	 edx, DWORD PTR _this$[ebp]
  00418	52		 push	 edx
  00419	8b 45 e0	 mov	 eax, DWORD PTR _pLayoutMgr$[ebp]
  0041c	8b 10		 mov	 edx, DWORD PTR [eax]
  0041e	c7 45 fc ff ff
	ff ff		 mov	 DWORD PTR __$EHRec$[ebp+8], -1
  00425	8b 4d e0	 mov	 ecx, DWORD PTR _pLayoutMgr$[ebp]
  00428	ff 52 58	 call	 DWORD PTR [edx+88]

; 53   : 
; 54   : 	return 0;

  0042b	33 c0		 xor	 eax, eax
$L199747:

; 55   : }

  0042d	8b 4d f4	 mov	 ecx, DWORD PTR __$EHRec$[ebp]
  00430	64 89 0d 00 00
	00 00		 mov	 DWORD PTR fs:__except_list, ecx
  00437	8b e5		 mov	 esp, ebp
  00439	5d		 pop	 ebp
  0043a	c2 04 00	 ret	 4
_TEXT	ENDS
text$x	SEGMENT
$L200680:
  00080	8b 4d d4	 mov	 ecx, DWORD PTR $T200674[ebp]
  00083	ff 25 00 00 00
	00		 jmp	 DWORD PTR __imp_??1?$CStringT@DV?$StrTraitMFC_DLL@DV?$ChTraitsCRT@D@ATL@@@@@ATL@@QAE@XZ
$L200682:
  00089	8b 4d cc	 mov	 ecx, DWORD PTR $T200676[ebp]
  0008c	ff 25 00 00 00
	00		 jmp	 DWORD PTR __imp_??1?$CStringT@DV?$StrTraitMFC_DLL@DV?$ChTraitsCRT@D@ATL@@@@@ATL@@QAE@XZ
__ehhandler$?OnCreate@WebGamePanelWnd@@IAEHPAUtagCREATESTRUCTA@@@Z:
  00092	b8 00 00 00 00	 mov	 eax, OFFSET FLAT:$T200685
  00097	e9 00 00 00 00	 jmp	 ___CxxFrameHandler
text$x	ENDS
?OnCreate@WebGamePanelWnd@@IAEHPAUtagCREATESTRUCTA@@@Z ENDP ; WebGamePanelWnd::OnCreate
PUBLIC	?LoadSkin@WebGamePanelWnd@@QAEXXZ		; WebGamePanelWnd::LoadSkin
; Function compile flags: /Odt
_TEXT	SEGMENT
_this$ = -4						; size = 4
?LoadSkin@WebGamePanelWnd@@QAEXXZ PROC NEAR		; WebGamePanelWnd::LoadSkin
; _this$ = ecx

; 58   : {

  00440	55		 push	 ebp
  00441	8b ec		 mov	 ebp, esp
  00443	51		 push	 ecx
  00444	89 4d fc	 mov	 DWORD PTR _this$[ebp], ecx

; 59   : }

  00447	8b e5		 mov	 esp, ebp
  00449	5d		 pop	 ebp
  0044a	c3		 ret	 0
?LoadSkin@WebGamePanelWnd@@QAEXXZ ENDP			; WebGamePanelWnd::LoadSkin
_TEXT	ENDS
PUBLIC	?SetTabItem@WebGamePanelWnd@@QAEXUTAB_ITEM@@@Z	; WebGamePanelWnd::SetTabItem
PUBLIC	??1TAB_ITEM@@QAE@XZ				; TAB_ITEM::~TAB_ITEM
PUBLIC	??0WEB_GAME@@QAE@ABU0@@Z			; WEB_GAME::WEB_GAME
EXTRN	___security_cookie:DWORD
EXTRN	@__security_check_cookie@4:NEAR
EXTRN	?Navigate@MyWebBrowserWnd@@QAEXV?$basic_string@DU?$char_traits@D@std@@V?$allocator@D@2@@std@@@Z:NEAR ; MyWebBrowserWnd::Navigate
EXTRN	?SetGameEntry@WebGamePlayingWnd@@QAEXUWEB_GAME@@@Z:NEAR ; WebGamePlayingWnd::SetGameEntry
EXTRN	__imp_??0?$basic_string@DU?$char_traits@D@std@@V?$allocator@D@2@@std@@QAE@ABV01@@Z:NEAR
EXTRN	__imp_??0?$basic_string@DU?$char_traits@D@std@@V?$allocator@D@2@@std@@QAE@PBD@Z:NEAR
EXTRN	__imp_??4?$basic_string@DU?$char_traits@D@std@@V?$allocator@D@2@@std@@QAEAAV01@ABV01@@Z:NEAR
EXTRN	?GetInstance@CWebManager@@SAPAV1@XZ:NEAR	; CWebManager::GetInstance
EXTRN	?GetValue@CWebManager@@QAE?AV?$basic_string@DU?$char_traits@D@std@@V?$allocator@D@2@@std@@AAV23@V23@@Z:NEAR ; CWebManager::GetValue
xdata$x	SEGMENT
$T200711 DD	0ffffffffH
	DD	FLAT:$L200697
	DD	00H
	DD	FLAT:$L200698
	DD	00H
	DD	FLAT:$L200699
	DD	00H
	DD	FLAT:$L200700
	DD	00H
	DD	FLAT:$L200701
	DD	00H
	DD	FLAT:$L200702
$T200706 DD	019930520H
	DD	06H
	DD	FLAT:$T200711
	DD	2 DUP(00H)
	DD	2 DUP(00H)
; Function compile flags: /Odt
xdata$x	ENDS
_TEXT	SEGMENT
tv204 = -160						; size = 4
tv202 = -156						; size = 4
tv199 = -152						; size = 4
tv197 = -148						; size = 4
tv196 = -144						; size = 4
tv207 = -140						; size = 4
tv194 = -136						; size = 4
tv192 = -132						; size = 4
tv191 = -128						; size = 4
tv206 = -124						; size = 4
_this$ = -120						; size = 4
$T200696 = -116						; size = 4
$T200695 = -112						; size = 4
$T200694 = -108						; size = 28
$T200693 = -80						; size = 4
$T200692 = -76						; size = 28
$T200691 = -48						; size = 4
_strRightUrl$ = -44					; size = 28
__$ArrayPad$ = -16					; size = 4
__$EHRec$ = -12						; size = 12
__$ReturnAddr$ = 4					; size = 4
_ti$ = 8						; size = 60
?SetTabItem@WebGamePanelWnd@@QAEXUTAB_ITEM@@@Z PROC NEAR ; WebGamePanelWnd::SetTabItem
; _this$ = ecx

; 62   : {

  00450	55		 push	 ebp
  00451	8b ec		 mov	 ebp, esp
  00453	6a ff		 push	 -1
  00455	68 00 00 00 00	 push	 __ehhandler$?SetTabItem@WebGamePanelWnd@@QAEXUTAB_ITEM@@@Z
  0045a	64 a1 00 00 00
	00		 mov	 eax, DWORD PTR fs:__except_list
  00460	50		 push	 eax
  00461	64 89 25 00 00
	00 00		 mov	 DWORD PTR fs:__except_list, esp
  00468	81 ec 94 00 00
	00		 sub	 esp, 148		; 00000094H
  0046e	a1 00 00 00 00	 mov	 eax, DWORD PTR ___security_cookie
  00473	89 45 f0	 mov	 DWORD PTR __$ArrayPad$[ebp], eax
  00476	89 4d 88	 mov	 DWORD PTR _this$[ebp], ecx
  00479	c7 45 fc 00 00
	00 00		 mov	 DWORD PTR __$EHRec$[ebp+8], 0

; 63   : 	m_webGame.strID = CWebManager::GetInstance()->GetValue( ti.strParam, "id" );

  00480	83 ec 1c	 sub	 esp, 28			; 0000001cH
  00483	8b cc		 mov	 ecx, esp
  00485	89 65 d0	 mov	 DWORD PTR $T200691[ebp], esp
  00488	68 00 00 00 00	 push	 OFFSET FLAT:$SG199772
  0048d	ff 15 00 00 00
	00		 call	 DWORD PTR __imp_??0?$basic_string@DU?$char_traits@D@std@@V?$allocator@D@2@@std@@QAE@PBD@Z
  00493	89 45 84	 mov	 DWORD PTR tv206[ebp], eax
  00496	8b 45 84	 mov	 eax, DWORD PTR tv206[ebp]
  00499	89 45 80	 mov	 DWORD PTR tv191[ebp], eax
  0049c	c6 45 fc 01	 mov	 BYTE PTR __$EHRec$[ebp+8], 1
  004a0	8d 4d 28	 lea	 ecx, DWORD PTR _ti$[ebp+32]
  004a3	51		 push	 ecx
  004a4	8d 55 b4	 lea	 edx, DWORD PTR $T200692[ebp]
  004a7	52		 push	 edx
  004a8	e8 00 00 00 00	 call	 ?GetInstance@CWebManager@@SAPAV1@XZ ; CWebManager::GetInstance
  004ad	c6 45 fc 00	 mov	 BYTE PTR __$EHRec$[ebp+8], 0
  004b1	8b c8		 mov	 ecx, eax
  004b3	e8 00 00 00 00	 call	 ?GetValue@CWebManager@@QAE?AV?$basic_string@DU?$char_traits@D@std@@V?$allocator@D@2@@std@@AAV23@V23@@Z ; CWebManager::GetValue
  004b8	89 85 7c ff ff
	ff		 mov	 DWORD PTR tv192[ebp], eax
  004be	8b 85 7c ff ff
	ff		 mov	 eax, DWORD PTR tv192[ebp]
  004c4	89 85 78 ff ff
	ff		 mov	 DWORD PTR tv194[ebp], eax
  004ca	c6 45 fc 02	 mov	 BYTE PTR __$EHRec$[ebp+8], 2
  004ce	8b 8d 78 ff ff
	ff		 mov	 ecx, DWORD PTR tv194[ebp]
  004d4	51		 push	 ecx
  004d5	8b 4d 88	 mov	 ecx, DWORD PTR _this$[ebp]
  004d8	83 c1 60	 add	 ecx, 96			; 00000060H
  004db	ff 15 00 00 00
	00		 call	 DWORD PTR __imp_??4?$basic_string@DU?$char_traits@D@std@@V?$allocator@D@2@@std@@QAEAAV01@ABV01@@Z
  004e1	c6 45 fc 00	 mov	 BYTE PTR __$EHRec$[ebp+8], 0
  004e5	8d 4d b4	 lea	 ecx, DWORD PTR $T200692[ebp]
  004e8	ff 15 00 00 00
	00		 call	 DWORD PTR __imp_??1?$basic_string@DU?$char_traits@D@std@@V?$allocator@D@2@@std@@QAE@XZ

; 64   : 	m_webGame.strName = ti.strName;

  004ee	8d 55 08	 lea	 edx, DWORD PTR _ti$[ebp]
  004f1	52		 push	 edx
  004f2	8b 4d 88	 mov	 ecx, DWORD PTR _this$[ebp]
  004f5	83 c1 7c	 add	 ecx, 124		; 0000007cH
  004f8	ff 15 00 00 00
	00		 call	 DWORD PTR __imp_??4?$basic_string@DU?$char_traits@D@std@@V?$allocator@D@2@@std@@QAEAAV01@ABV01@@Z

; 65   : 	m_webGame.strGameUrl = CWebManager::GetInstance()->GetValue( ti.strParam, "url" );

  004fe	83 ec 1c	 sub	 esp, 28			; 0000001cH
  00501	8b cc		 mov	 ecx, esp
  00503	89 65 b0	 mov	 DWORD PTR $T200693[ebp], esp
  00506	68 00 00 00 00	 push	 OFFSET FLAT:$SG199775
  0050b	ff 15 00 00 00
	00		 call	 DWORD PTR __imp_??0?$basic_string@DU?$char_traits@D@std@@V?$allocator@D@2@@std@@QAE@PBD@Z
  00511	89 85 74 ff ff
	ff		 mov	 DWORD PTR tv207[ebp], eax
  00517	8b 85 74 ff ff
	ff		 mov	 eax, DWORD PTR tv207[ebp]
  0051d	89 85 70 ff ff
	ff		 mov	 DWORD PTR tv196[ebp], eax
  00523	c6 45 fc 03	 mov	 BYTE PTR __$EHRec$[ebp+8], 3
  00527	8d 4d 28	 lea	 ecx, DWORD PTR _ti$[ebp+32]
  0052a	51		 push	 ecx
  0052b	8d 55 94	 lea	 edx, DWORD PTR $T200694[ebp]
  0052e	52		 push	 edx
  0052f	e8 00 00 00 00	 call	 ?GetInstance@CWebManager@@SAPAV1@XZ ; CWebManager::GetInstance
  00534	c6 45 fc 00	 mov	 BYTE PTR __$EHRec$[ebp+8], 0
  00538	8b c8		 mov	 ecx, eax
  0053a	e8 00 00 00 00	 call	 ?GetValue@CWebManager@@QAE?AV?$basic_string@DU?$char_traits@D@std@@V?$allocator@D@2@@std@@AAV23@V23@@Z ; CWebManager::GetValue
  0053f	89 85 6c ff ff
	ff		 mov	 DWORD PTR tv197[ebp], eax
  00545	8b 85 6c ff ff
	ff		 mov	 eax, DWORD PTR tv197[ebp]
  0054b	89 85 68 ff ff
	ff		 mov	 DWORD PTR tv199[ebp], eax
  00551	c6 45 fc 04	 mov	 BYTE PTR __$EHRec$[ebp+8], 4
  00555	8b 8d 68 ff ff
	ff		 mov	 ecx, DWORD PTR tv199[ebp]
  0055b	51		 push	 ecx
  0055c	8b 4d 88	 mov	 ecx, DWORD PTR _this$[ebp]
  0055f	81 c1 98 00 00
	00		 add	 ecx, 152		; 00000098H
  00565	ff 15 00 00 00
	00		 call	 DWORD PTR __imp_??4?$basic_string@DU?$char_traits@D@std@@V?$allocator@D@2@@std@@QAEAAV01@ABV01@@Z
  0056b	c6 45 fc 00	 mov	 BYTE PTR __$EHRec$[ebp+8], 0
  0056f	8d 4d 94	 lea	 ecx, DWORD PTR $T200694[ebp]
  00572	ff 15 00 00 00
	00		 call	 DWORD PTR __imp_??1?$basic_string@DU?$char_traits@D@std@@V?$allocator@D@2@@std@@QAE@XZ

; 66   : 	
; 67   : 	string strRightUrl;

  00578	8d 4d d4	 lea	 ecx, DWORD PTR _strRightUrl$[ebp]
  0057b	ff 15 00 00 00
	00		 call	 DWORD PTR __imp_??0?$basic_string@DU?$char_traits@D@std@@V?$allocator@D@2@@std@@QAE@XZ
  00581	c6 45 fc 05	 mov	 BYTE PTR __$EHRec$[ebp+8], 5

; 68   : 	m_pWndGameRight->Navigate( strRightUrl );

  00585	83 ec 1c	 sub	 esp, 28			; 0000001cH
  00588	8b cc		 mov	 ecx, esp
  0058a	89 65 90	 mov	 DWORD PTR $T200695[ebp], esp
  0058d	8d 55 d4	 lea	 edx, DWORD PTR _strRightUrl$[ebp]
  00590	52		 push	 edx
  00591	ff 15 00 00 00
	00		 call	 DWORD PTR __imp_??0?$basic_string@DU?$char_traits@D@std@@V?$allocator@D@2@@std@@QAE@ABV01@@Z
  00597	89 85 64 ff ff
	ff		 mov	 DWORD PTR tv202[ebp], eax
  0059d	8b 45 88	 mov	 eax, DWORD PTR _this$[ebp]
  005a0	8b 48 58	 mov	 ecx, DWORD PTR [eax+88]
  005a3	e8 00 00 00 00	 call	 ?Navigate@MyWebBrowserWnd@@QAEXV?$basic_string@DU?$char_traits@D@std@@V?$allocator@D@2@@std@@@Z ; MyWebBrowserWnd::Navigate

; 69   : 	m_pWndGamePlaying->SetGameEntry( m_webGame );

  005a8	8b 4d 88	 mov	 ecx, DWORD PTR _this$[ebp]
  005ab	83 c1 60	 add	 ecx, 96			; 00000060H
  005ae	83 ec 54	 sub	 esp, 84			; 00000054H
  005b1	8b d4		 mov	 edx, esp
  005b3	89 65 8c	 mov	 DWORD PTR $T200696[ebp], esp
  005b6	51		 push	 ecx
  005b7	8b ca		 mov	 ecx, edx
  005b9	e8 00 00 00 00	 call	 ??0WEB_GAME@@QAE@ABU0@@Z
  005be	89 85 60 ff ff
	ff		 mov	 DWORD PTR tv204[ebp], eax
  005c4	8b 45 88	 mov	 eax, DWORD PTR _this$[ebp]
  005c7	8b 48 5c	 mov	 ecx, DWORD PTR [eax+92]
  005ca	e8 00 00 00 00	 call	 ?SetGameEntry@WebGamePlayingWnd@@QAEXUWEB_GAME@@@Z ; WebGamePlayingWnd::SetGameEntry

; 70   : }

  005cf	c6 45 fc 00	 mov	 BYTE PTR __$EHRec$[ebp+8], 0
  005d3	8d 4d d4	 lea	 ecx, DWORD PTR _strRightUrl$[ebp]
  005d6	ff 15 00 00 00
	00		 call	 DWORD PTR __imp_??1?$basic_string@DU?$char_traits@D@std@@V?$allocator@D@2@@std@@QAE@XZ
  005dc	c7 45 fc ff ff
	ff ff		 mov	 DWORD PTR __$EHRec$[ebp+8], -1
  005e3	8d 4d 08	 lea	 ecx, DWORD PTR _ti$[ebp]
  005e6	e8 00 00 00 00	 call	 ??1TAB_ITEM@@QAE@XZ
  005eb	8b 4d f4	 mov	 ecx, DWORD PTR __$EHRec$[ebp]
  005ee	64 89 0d 00 00
	00 00		 mov	 DWORD PTR fs:__except_list, ecx
  005f5	8b 4d f0	 mov	 ecx, DWORD PTR __$ArrayPad$[ebp]
  005f8	e8 00 00 00 00	 call	 @__security_check_cookie@4
  005fd	8b e5		 mov	 esp, ebp
  005ff	5d		 pop	 ebp
  00600	c2 3c 00	 ret	 60			; 0000003cH
_TEXT	ENDS
text$x	SEGMENT
$L200697:
  0009c	8d 4d 08	 lea	 ecx, DWORD PTR _ti$[ebp]
  0009f	e9 00 00 00 00	 jmp	 ??1TAB_ITEM@@QAE@XZ
$L200698:
  000a4	8b 4d d0	 mov	 ecx, DWORD PTR $T200691[ebp]
  000a7	ff 25 00 00 00
	00		 jmp	 DWORD PTR __imp_??1?$basic_string@DU?$char_traits@D@std@@V?$allocator@D@2@@std@@QAE@XZ
$L200699:
  000ad	8d 4d b4	 lea	 ecx, DWORD PTR $T200692[ebp]
  000b0	ff 25 00 00 00
	00		 jmp	 DWORD PTR __imp_??1?$basic_string@DU?$char_traits@D@std@@V?$allocator@D@2@@std@@QAE@XZ
$L200700:
  000b6	8b 4d b0	 mov	 ecx, DWORD PTR $T200693[ebp]
  000b9	ff 25 00 00 00
	00		 jmp	 DWORD PTR __imp_??1?$basic_string@DU?$char_traits@D@std@@V?$allocator@D@2@@std@@QAE@XZ
$L200701:
  000bf	8d 4d 94	 lea	 ecx, DWORD PTR $T200694[ebp]
  000c2	ff 25 00 00 00
	00		 jmp	 DWORD PTR __imp_??1?$basic_string@DU?$char_traits@D@std@@V?$allocator@D@2@@std@@QAE@XZ
$L200702:
  000c8	8d 4d d4	 lea	 ecx, DWORD PTR _strRightUrl$[ebp]
  000cb	ff 25 00 00 00
	00		 jmp	 DWORD PTR __imp_??1?$basic_string@DU?$char_traits@D@std@@V?$allocator@D@2@@std@@QAE@XZ
__ehhandler$?SetTabItem@WebGamePanelWnd@@QAEXUTAB_ITEM@@@Z:
  000d1	b8 00 00 00 00	 mov	 eax, OFFSET FLAT:$T200706
  000d6	e9 00 00 00 00	 jmp	 ___CxxFrameHandler
text$x	ENDS
?SetTabItem@WebGamePanelWnd@@QAEXUTAB_ITEM@@@Z ENDP	; WebGamePanelWnd::SetTabItem
;	COMDAT xdata$x
xdata$x	SEGMENT
$T200718 DD	0ffffffffH
	DD	FLAT:$L200713
$T200716 DD	019930520H
	DD	01H
	DD	FLAT:$T200718
	DD	2 DUP(00H)
	DD	2 DUP(00H)
; Function compile flags: /Odt
xdata$x	ENDS
;	COMDAT ??1TAB_ITEM@@QAE@XZ
_TEXT	SEGMENT
_this$ = -16						; size = 4
__$EHRec$ = -12						; size = 12
??1TAB_ITEM@@QAE@XZ PROC NEAR				; TAB_ITEM::~TAB_ITEM, COMDAT
; _this$ = ecx
  00000	55		 push	 ebp
  00001	8b ec		 mov	 ebp, esp
  00003	6a ff		 push	 -1
  00005	68 00 00 00 00	 push	 __ehhandler$??1TAB_ITEM@@QAE@XZ
  0000a	64 a1 00 00 00
	00		 mov	 eax, DWORD PTR fs:__except_list
  00010	50		 push	 eax
  00011	64 89 25 00 00
	00 00		 mov	 DWORD PTR fs:__except_list, esp
  00018	51		 push	 ecx
  00019	89 4d f0	 mov	 DWORD PTR _this$[ebp], ecx
  0001c	c7 45 fc 00 00
	00 00		 mov	 DWORD PTR __$EHRec$[ebp+8], 0
  00023	8b 4d f0	 mov	 ecx, DWORD PTR _this$[ebp]
  00026	83 c1 20	 add	 ecx, 32			; 00000020H
  00029	ff 15 00 00 00
	00		 call	 DWORD PTR __imp_??1?$basic_string@DU?$char_traits@D@std@@V?$allocator@D@2@@std@@QAE@XZ
  0002f	c7 45 fc ff ff
	ff ff		 mov	 DWORD PTR __$EHRec$[ebp+8], -1
  00036	8b 4d f0	 mov	 ecx, DWORD PTR _this$[ebp]
  00039	ff 15 00 00 00
	00		 call	 DWORD PTR __imp_??1?$basic_string@DU?$char_traits@D@std@@V?$allocator@D@2@@std@@QAE@XZ
  0003f	8b 4d f4	 mov	 ecx, DWORD PTR __$EHRec$[ebp]
  00042	64 89 0d 00 00
	00 00		 mov	 DWORD PTR fs:__except_list, ecx
  00049	8b e5		 mov	 esp, ebp
  0004b	5d		 pop	 ebp
  0004c	c3		 ret	 0
_TEXT	ENDS
;	COMDAT text$x
text$x	SEGMENT
$L200713:
  00000	8b 4d f0	 mov	 ecx, DWORD PTR _this$[ebp]
  00003	ff 25 00 00 00
	00		 jmp	 DWORD PTR __imp_??1?$basic_string@DU?$char_traits@D@std@@V?$allocator@D@2@@std@@QAE@XZ
__ehhandler$??1TAB_ITEM@@QAE@XZ:
  00009	b8 00 00 00 00	 mov	 eax, OFFSET FLAT:$T200716
  0000e	e9 00 00 00 00	 jmp	 ___CxxFrameHandler
text$x	ENDS
??1TAB_ITEM@@QAE@XZ ENDP				; TAB_ITEM::~TAB_ITEM
;	COMDAT xdata$x
xdata$x	SEGMENT
$T200729 DD	0ffffffffH
	DD	FLAT:$L200723
	DD	00H
	DD	FLAT:$L200724
$T200727 DD	019930520H
	DD	02H
	DD	FLAT:$T200729
	DD	2 DUP(00H)
	DD	2 DUP(00H)
; Function compile flags: /Odt
xdata$x	ENDS
;	COMDAT ??0WEB_GAME@@QAE@ABU0@@Z
_TEXT	SEGMENT
_this$ = -16						; size = 4
__$EHRec$ = -12						; size = 12
___that$ = 8						; size = 4
??0WEB_GAME@@QAE@ABU0@@Z PROC NEAR			; WEB_GAME::WEB_GAME, COMDAT
; _this$ = ecx
  00000	55		 push	 ebp
  00001	8b ec		 mov	 ebp, esp
  00003	6a ff		 push	 -1
  00005	68 00 00 00 00	 push	 __ehhandler$??0WEB_GAME@@QAE@ABU0@@Z
  0000a	64 a1 00 00 00
	00		 mov	 eax, DWORD PTR fs:__except_list
  00010	50		 push	 eax
  00011	64 89 25 00 00
	00 00		 mov	 DWORD PTR fs:__except_list, esp
  00018	51		 push	 ecx
  00019	89 4d f0	 mov	 DWORD PTR _this$[ebp], ecx
  0001c	8b 45 08	 mov	 eax, DWORD PTR ___that$[ebp]
  0001f	50		 push	 eax
  00020	8b 4d f0	 mov	 ecx, DWORD PTR _this$[ebp]
  00023	ff 15 00 00 00
	00		 call	 DWORD PTR __imp_??0?$basic_string@DU?$char_traits@D@std@@V?$allocator@D@2@@std@@QAE@ABV01@@Z
  00029	c7 45 fc 00 00
	00 00		 mov	 DWORD PTR __$EHRec$[ebp+8], 0
  00030	8b 4d 08	 mov	 ecx, DWORD PTR ___that$[ebp]
  00033	83 c1 1c	 add	 ecx, 28			; 0000001cH
  00036	51		 push	 ecx
  00037	8b 4d f0	 mov	 ecx, DWORD PTR _this$[ebp]
  0003a	83 c1 1c	 add	 ecx, 28			; 0000001cH
  0003d	ff 15 00 00 00
	00		 call	 DWORD PTR __imp_??0?$basic_string@DU?$char_traits@D@std@@V?$allocator@D@2@@std@@QAE@ABV01@@Z
  00043	c6 45 fc 01	 mov	 BYTE PTR __$EHRec$[ebp+8], 1
  00047	8b 55 08	 mov	 edx, DWORD PTR ___that$[ebp]
  0004a	83 c2 38	 add	 edx, 56			; 00000038H
  0004d	52		 push	 edx
  0004e	8b 4d f0	 mov	 ecx, DWORD PTR _this$[ebp]
  00051	83 c1 38	 add	 ecx, 56			; 00000038H
  00054	ff 15 00 00 00
	00		 call	 DWORD PTR __imp_??0?$basic_string@DU?$char_traits@D@std@@V?$allocator@D@2@@std@@QAE@ABV01@@Z
  0005a	c7 45 fc ff ff
	ff ff		 mov	 DWORD PTR __$EHRec$[ebp+8], -1
  00061	8b 45 f0	 mov	 eax, DWORD PTR _this$[ebp]
  00064	8b 4d f4	 mov	 ecx, DWORD PTR __$EHRec$[ebp]
  00067	64 89 0d 00 00
	00 00		 mov	 DWORD PTR fs:__except_list, ecx
  0006e	8b e5		 mov	 esp, ebp
  00070	5d		 pop	 ebp
  00071	c2 04 00	 ret	 4
_TEXT	ENDS
;	COMDAT text$x
text$x	SEGMENT
$L200723:
  00000	8b 4d f0	 mov	 ecx, DWORD PTR _this$[ebp]
  00003	ff 25 00 00 00
	00		 jmp	 DWORD PTR __imp_??1?$basic_string@DU?$char_traits@D@std@@V?$allocator@D@2@@std@@QAE@XZ
$L200724:
  00009	8b 4d f0	 mov	 ecx, DWORD PTR _this$[ebp]
  0000c	83 c1 1c	 add	 ecx, 28			; 0000001cH
  0000f	ff 25 00 00 00
	00		 jmp	 DWORD PTR __imp_??1?$basic_string@DU?$char_traits@D@std@@V?$allocator@D@2@@std@@QAE@XZ
__ehhandler$??0WEB_GAME@@QAE@ABU0@@Z:
  00015	b8 00 00 00 00	 mov	 eax, OFFSET FLAT:$T200727
  0001a	e9 00 00 00 00	 jmp	 ___CxxFrameHandler
text$x	ENDS
??0WEB_GAME@@QAE@ABU0@@Z ENDP				; WEB_GAME::WEB_GAME
PUBLIC	?InterlockedExchangePointer@@YGPAXPAPAXPAX@Z	; InterlockedExchangePointer
PUBLIC	?_AtlGetThreadACPFake@ATL@@YGIXZ		; ATL::_AtlGetThreadACPFake
PUBLIC	?_AtlGetThreadACPReal@ATL@@YGIXZ		; ATL::_AtlGetThreadACPReal
EXTRN	__imp__GetVersionExA@4:NEAR
; Function compile flags: /Odt
; File d:\program files (x86)\microsoft visual studio .net 2003\vc7\atlmfc\include\atlconv.h
;	COMDAT ?_AtlGetThreadACPThunk@ATL@@YGIXZ
_TEXT	SEGMENT
_pfnGetThreadACP$ = -164				; size = 4
_ver$ = -160						; size = 148
__$ArrayPad$ = -4					; size = 4
__$ReturnAddr$ = 4					; size = 4
?_AtlGetThreadACPThunk@ATL@@YGIXZ PROC NEAR		; ATL::_AtlGetThreadACPThunk, COMDAT

; 134  : {

  00000	55		 push	 ebp
  00001	8b ec		 mov	 ebp, esp
  00003	81 ec a4 00 00
	00		 sub	 esp, 164		; 000000a4H
  00009	a1 00 00 00 00	 mov	 eax, DWORD PTR ___security_cookie
  0000e	89 45 fc	 mov	 DWORD PTR __$ArrayPad$[ebp], eax

; 135  : 	OSVERSIONINFO ver;
; 136  : 	ATLGETTHREADACP pfnGetThreadACP;
; 137  : 
; 138  : 	ver.dwOSVersionInfoSize = sizeof( ver );

  00011	c7 85 60 ff ff
	ff 94 00 00 00	 mov	 DWORD PTR _ver$[ebp], 148 ; 00000094H

; 139  : 	::GetVersionEx( &ver );

  0001b	8d 85 60 ff ff
	ff		 lea	 eax, DWORD PTR _ver$[ebp]
  00021	50		 push	 eax
  00022	ff 15 00 00 00
	00		 call	 DWORD PTR __imp__GetVersionExA@4

; 140  : 	if( (ver.dwPlatformId == VER_PLATFORM_WIN32_NT) && (ver.dwMajorVersion >= 5) )

  00028	83 bd 70 ff ff
	ff 02		 cmp	 DWORD PTR _ver$[ebp+16], 2
  0002f	75 15		 jne	 SHORT $L24173
  00031	83 bd 64 ff ff
	ff 05		 cmp	 DWORD PTR _ver$[ebp+4], 5
  00038	72 0c		 jb	 SHORT $L24173

; 141  : 	{
; 142  : 		// On Win2K, CP_THREAD_ACP is supported
; 143  : 		pfnGetThreadACP = _AtlGetThreadACPReal;

  0003a	c7 85 5c ff ff
	ff 00 00 00 00	 mov	 DWORD PTR _pfnGetThreadACP$[ebp], OFFSET FLAT:?_AtlGetThreadACPReal@ATL@@YGIXZ ; ATL::_AtlGetThreadACPReal

; 144  : 	}
; 145  : 	else

  00044	eb 0a		 jmp	 SHORT $L24174
$L24173:

; 146  : 	{
; 147  : 		pfnGetThreadACP = _AtlGetThreadACPFake;

  00046	c7 85 5c ff ff
	ff 00 00 00 00	 mov	 DWORD PTR _pfnGetThreadACP$[ebp], OFFSET FLAT:?_AtlGetThreadACPFake@ATL@@YGIXZ ; ATL::_AtlGetThreadACPFake
$L24174:

; 148  : 	}
; 149  : 	InterlockedExchangePointer( reinterpret_cast< void** >(&g_pfnGetThreadACP), pfnGetThreadACP );

  00050	8b 8d 5c ff ff
	ff		 mov	 ecx, DWORD PTR _pfnGetThreadACP$[ebp]
  00056	51		 push	 ecx
  00057	68 00 00 00 00	 push	 OFFSET FLAT:?g_pfnGetThreadACP@ATL@@3P6GIXZA ; ATL::g_pfnGetThreadACP
  0005c	e8 00 00 00 00	 call	 ?InterlockedExchangePointer@@YGPAXPAPAXPAX@Z ; InterlockedExchangePointer

; 150  : 
; 151  : 	return( g_pfnGetThreadACP() );

  00061	ff 15 00 00 00
	00		 call	 DWORD PTR ?g_pfnGetThreadACP@ATL@@3P6GIXZA ; ATL::g_pfnGetThreadACP

; 152  : }

  00067	8b 4d fc	 mov	 ecx, DWORD PTR __$ArrayPad$[ebp]
  0006a	e8 00 00 00 00	 call	 @__security_check_cookie@4
  0006f	8b e5		 mov	 esp, ebp
  00071	5d		 pop	 ebp
  00072	c3		 ret	 0
?_AtlGetThreadACPThunk@ATL@@YGIXZ ENDP			; ATL::_AtlGetThreadACPThunk
_TEXT	ENDS
EXTRN	__imp__InterlockedExchange@8:NEAR
; Function compile flags: /Odt
;	COMDAT ?InterlockedExchangePointer@@YGPAXPAPAXPAX@Z
_TEXT	SEGMENT
_pp$ = 8						; size = 4
_pNew$ = 12						; size = 4
?InterlockedExchangePointer@@YGPAXPAPAXPAX@Z PROC NEAR	; InterlockedExchangePointer, COMDAT

; 91   : {

  00000	55		 push	 ebp
  00001	8b ec		 mov	 ebp, esp

; 92   : 	return( reinterpret_cast<void*>(static_cast<LONG_PTR>(::InterlockedExchange(reinterpret_cast<LONG*>(pp), static_cast<LONG>(reinterpret_cast<LONG_PTR>(pNew))))) );

  00003	8b 45 0c	 mov	 eax, DWORD PTR _pNew$[ebp]
  00006	50		 push	 eax
  00007	8b 4d 08	 mov	 ecx, DWORD PTR _pp$[ebp]
  0000a	51		 push	 ecx
  0000b	ff 15 00 00 00
	00		 call	 DWORD PTR __imp__InterlockedExchange@8

; 93   : }

  00011	5d		 pop	 ebp
  00012	c2 08 00	 ret	 8
?InterlockedExchangePointer@@YGPAXPAPAXPAX@Z ENDP	; InterlockedExchangePointer
_TEXT	ENDS
EXTRN	__imp__GetACP@0:NEAR
EXTRN	__imp__GetLocaleInfoA@16:NEAR
EXTRN	__imp__GetThreadLocale@0:NEAR
; Function compile flags: /Odt
;	COMDAT ?_AtlGetThreadACPFake@ATL@@YGIXZ
_TEXT	SEGMENT
_pch$24161 = -24					; size = 4
_lcidThread$ = -20					; size = 4
_szACP$ = -16						; size = 7
__$ArrayPad$ = -8					; size = 4
_nACP$ = -4						; size = 4
__$ReturnAddr$ = 4					; size = 4
?_AtlGetThreadACPFake@ATL@@YGIXZ PROC NEAR		; ATL::_AtlGetThreadACPFake, COMDAT

; 101  : {

  00000	55		 push	 ebp
  00001	8b ec		 mov	 ebp, esp
  00003	83 ec 18	 sub	 esp, 24			; 00000018H
  00006	a1 00 00 00 00	 mov	 eax, DWORD PTR ___security_cookie
  0000b	89 45 f8	 mov	 DWORD PTR __$ArrayPad$[ebp], eax

; 102  : 	UINT nACP = 0;

  0000e	c7 45 fc 00 00
	00 00		 mov	 DWORD PTR _nACP$[ebp], 0

; 103  : 
; 104  : 	LCID lcidThread = ::GetThreadLocale();

  00015	ff 15 00 00 00
	00		 call	 DWORD PTR __imp__GetThreadLocale@0
  0001b	89 45 ec	 mov	 DWORD PTR _lcidThread$[ebp], eax

; 105  : 
; 106  : 	char szACP[7];
; 107  : 	// GetLocaleInfoA will fail for a Unicode-only LCID, but those are only supported on 
; 108  : 	// Windows 2000.  Since Windows 2000 supports CP_THREAD_ACP, this code path is never
; 109  : 	// executed on Windows 2000.
; 110  : 	if (::GetLocaleInfoA(lcidThread, LOCALE_IDEFAULTANSICODEPAGE, szACP, 7) != 0)

  0001e	6a 07		 push	 7
  00020	8d 45 f0	 lea	 eax, DWORD PTR _szACP$[ebp]
  00023	50		 push	 eax
  00024	68 04 10 00 00	 push	 4100			; 00001004H
  00029	8b 4d ec	 mov	 ecx, DWORD PTR _lcidThread$[ebp]
  0002c	51		 push	 ecx
  0002d	ff 15 00 00 00
	00		 call	 DWORD PTR __imp__GetLocaleInfoA@16
  00033	85 c0		 test	 eax, eax
  00035	74 34		 je	 SHORT $L24160

; 111  : 	{
; 112  : 		char* pch = szACP;

  00037	8d 55 f0	 lea	 edx, DWORD PTR _szACP$[ebp]
  0003a	89 55 e8	 mov	 DWORD PTR _pch$24161[ebp], edx
$L24163:

; 113  : 		while (*pch != '\0')

  0003d	8b 45 e8	 mov	 eax, DWORD PTR _pch$24161[ebp]
  00040	0f be 08	 movsx	 ecx, BYTE PTR [eax]
  00043	85 c9		 test	 ecx, ecx
  00045	74 24		 je	 SHORT $L24160

; 114  : 		{
; 115  : 			nACP *= 10;

  00047	8b 55 fc	 mov	 edx, DWORD PTR _nACP$[ebp]
  0004a	6b d2 0a	 imul	 edx, 10			; 0000000aH
  0004d	89 55 fc	 mov	 DWORD PTR _nACP$[ebp], edx

; 116  : 			nACP += *pch++ - '0';

  00050	8b 45 e8	 mov	 eax, DWORD PTR _pch$24161[ebp]
  00053	0f be 08	 movsx	 ecx, BYTE PTR [eax]
  00056	8b 55 fc	 mov	 edx, DWORD PTR _nACP$[ebp]
  00059	8d 44 0a d0	 lea	 eax, DWORD PTR [edx+ecx-48]
  0005d	89 45 fc	 mov	 DWORD PTR _nACP$[ebp], eax
  00060	8b 4d e8	 mov	 ecx, DWORD PTR _pch$24161[ebp]
  00063	83 c1 01	 add	 ecx, 1
  00066	89 4d e8	 mov	 DWORD PTR _pch$24161[ebp], ecx

; 117  : 		}

  00069	eb d2		 jmp	 SHORT $L24163
$L24160:

; 118  : 	}
; 119  : 	// Use the Default ANSI Code Page if we were unable to get the thread ACP or if one does not exist.
; 120  : 	if (nACP == 0)

  0006b	83 7d fc 00	 cmp	 DWORD PTR _nACP$[ebp], 0
  0006f	75 09		 jne	 SHORT $L24165

; 121  : 		nACP = ::GetACP();

  00071	ff 15 00 00 00
	00		 call	 DWORD PTR __imp__GetACP@0
  00077	89 45 fc	 mov	 DWORD PTR _nACP$[ebp], eax
$L24165:

; 122  : 
; 123  : 	return nACP;

  0007a	8b 45 fc	 mov	 eax, DWORD PTR _nACP$[ebp]

; 124  : }

  0007d	8b 4d f8	 mov	 ecx, DWORD PTR __$ArrayPad$[ebp]
  00080	e8 00 00 00 00	 call	 @__security_check_cookie@4
  00085	8b e5		 mov	 esp, ebp
  00087	5d		 pop	 ebp
  00088	c3		 ret	 0
?_AtlGetThreadACPFake@ATL@@YGIXZ ENDP			; ATL::_AtlGetThreadACPFake
; Function compile flags: /Odt
_TEXT	ENDS
;	COMDAT ?_AtlGetThreadACPReal@ATL@@YGIXZ
_TEXT	SEGMENT
?_AtlGetThreadACPReal@ATL@@YGIXZ PROC NEAR		; ATL::_AtlGetThreadACPReal, COMDAT

; 127  : {

  00000	55		 push	 ebp
  00001	8b ec		 mov	 ebp, esp

; 128  : 	return( CP_THREAD_ACP );

  00003	b8 03 00 00 00	 mov	 eax, 3

; 129  : }

  00008	5d		 pop	 ebp
  00009	c3		 ret	 0
?_AtlGetThreadACPReal@ATL@@YGIXZ ENDP			; ATL::_AtlGetThreadACPReal
_TEXT	ENDS
PUBLIC	?Init@WebGamePanelWnd@@QAEXXZ			; WebGamePanelWnd::Init
EXTRN	?Init@MyWebBrowserWnd@@QAEXXZ:NEAR		; MyWebBrowserWnd::Init
EXTRN	?Init@WebGamePlayingWnd@@QAEXXZ:NEAR		; WebGamePlayingWnd::Init
; Function compile flags: /Odt
; File d:\boxgit\playbox\playbox\dev\prj\playbox\src\module\gamepanel\webgamepanelwnd.cpp
_TEXT	SEGMENT
_this$ = -4						; size = 4
?Init@WebGamePanelWnd@@QAEXXZ PROC NEAR			; WebGamePanelWnd::Init
; _this$ = ecx

; 73   : {

  00610	55		 push	 ebp
  00611	8b ec		 mov	 ebp, esp
  00613	51		 push	 ecx
  00614	89 4d fc	 mov	 DWORD PTR _this$[ebp], ecx

; 74   : 	m_pWndGameRight->Init();

  00617	8b 45 fc	 mov	 eax, DWORD PTR _this$[ebp]
  0061a	8b 48 58	 mov	 ecx, DWORD PTR [eax+88]
  0061d	e8 00 00 00 00	 call	 ?Init@MyWebBrowserWnd@@QAEXXZ ; MyWebBrowserWnd::Init

; 75   : 	m_pWndGamePlaying->Init();

  00622	8b 4d fc	 mov	 ecx, DWORD PTR _this$[ebp]
  00625	8b 49 5c	 mov	 ecx, DWORD PTR [ecx+92]
  00628	e8 00 00 00 00	 call	 ?Init@WebGamePlayingWnd@@QAEXXZ ; WebGamePlayingWnd::Init

; 76   : }

  0062d	8b e5		 mov	 esp, ebp
  0062f	5d		 pop	 ebp
  00630	c3		 ret	 0
?Init@WebGamePanelWnd@@QAEXXZ ENDP			; WebGamePanelWnd::Init
_TEXT	ENDS
EXTRN	?OnDestroy@CWnd@@IAEXXZ:NEAR			; CWnd::OnDestroy
; Function compile flags: /Odt
_TEXT	SEGMENT
_this$ = -4						; size = 4
?OnDestroy@WebGamePanelWnd@@IAEXXZ PROC NEAR		; WebGamePanelWnd::OnDestroy
; _this$ = ecx

; 79   : {

  00640	55		 push	 ebp
  00641	8b ec		 mov	 ebp, esp
  00643	51		 push	 ecx
  00644	89 4d fc	 mov	 DWORD PTR _this$[ebp], ecx

; 80   : 	m_pWndGamePlaying->DestroyWindow();

  00647	8b 45 fc	 mov	 eax, DWORD PTR _this$[ebp]
  0064a	8b 48 5c	 mov	 ecx, DWORD PTR [eax+92]
  0064d	8b 55 fc	 mov	 edx, DWORD PTR _this$[ebp]
  00650	8b 42 5c	 mov	 eax, DWORD PTR [edx+92]
  00653	8b 11		 mov	 edx, DWORD PTR [ecx]
  00655	8b c8		 mov	 ecx, eax
  00657	ff 52 68	 call	 DWORD PTR [edx+104]

; 81   : 	m_pWndGameRight->DestroyWindow();

  0065a	8b 45 fc	 mov	 eax, DWORD PTR _this$[ebp]
  0065d	8b 48 58	 mov	 ecx, DWORD PTR [eax+88]
  00660	8b 55 fc	 mov	 edx, DWORD PTR _this$[ebp]
  00663	8b 42 58	 mov	 eax, DWORD PTR [edx+88]
  00666	8b 11		 mov	 edx, DWORD PTR [ecx]
  00668	8b c8		 mov	 ecx, eax
  0066a	ff 52 68	 call	 DWORD PTR [edx+104]

; 82   : 	__super::OnDestroy();

  0066d	8b 4d fc	 mov	 ecx, DWORD PTR _this$[ebp]
  00670	e8 00 00 00 00	 call	 ?OnDestroy@CWnd@@IAEXXZ	; CWnd::OnDestroy

; 83   : }

  00675	8b e5		 mov	 esp, ebp
  00677	5d		 pop	 ebp
  00678	c3		 ret	 0
?OnDestroy@WebGamePanelWnd@@IAEXXZ ENDP			; WebGamePanelWnd::OnDestroy
_TEXT	ENDS
PUBLIC	?GetWindowRect@CWnd@@QBEXPAUtagRECT@@@Z		; CWnd::GetWindowRect
PUBLIC	?Width@CRect@@QBEHXZ				; CRect::Width
PUBLIC	?Height@CRect@@QBEHXZ				; CRect::Height
PUBLIC	?GetDesktopWindow@CWnd@@SGPAV1@XZ		; CWnd::GetDesktopWindow
PUBLIC	?GetParent@CWnd@@QBEPAV1@XZ			; CWnd::GetParent
PUBLIC	?SetParent@CWnd@@QAEPAV1@PAV1@@Z		; CWnd::SetParent
PUBLIC	?SetMainWindow@WebGamePanelWnd@@QAEX_N@Z	; WebGamePanelWnd::SetMainWindow
EXTRN	?ScreenToClient@CWnd@@QBEXPAUtagRECT@@@Z:NEAR	; CWnd::ScreenToClient
EXTRN	?GetConfigBoolValue@AfxUserConfig@@QAEXABV?$basic_string@DU?$char_traits@D@std@@V?$allocator@D@2@@std@@0AA_N@Z:NEAR ; AfxUserConfig::GetConfigBoolValue
EXTRN	__imp_?YL_Log@@YAXABV?$basic_string@DU?$char_traits@D@std@@V?$allocator@D@2@@std@@H0PBDZZ:NEAR
EXTRN	__imp__GetWindowLongA@8:NEAR
EXTRN	__imp__SetWindowLongA@12:NEAR
EXTRN	?AfxGetUserConfig@@YAPAVAfxUserConfig@@XZ:NEAR	; AfxGetUserConfig
EXTRN	__imp_?wndTopMost@CWnd@@2V1@B:BYTE
EXTRN	?SetWindowPos@CWnd@@QAEHPBV1@HHHHI@Z:NEAR	; CWnd::SetWindowPos
xdata$x	SEGMENT
$T200763 DD	0ffffffffH
	DD	FLAT:$L200754
	DD	00H
	DD	FLAT:$L200755
	DD	0ffffffffH
	DD	FLAT:$L200756
	DD	02H
	DD	FLAT:$L200757
	DD	0ffffffffH
	DD	FLAT:$L200758
	DD	04H
	DD	FLAT:$L200759
$T200761 DD	019930520H
	DD	06H
	DD	FLAT:$T200763
	DD	2 DUP(00H)
	DD	2 DUP(00H)
; Function compile flags: /Odt
xdata$x	ENDS
_TEXT	SEGMENT
_this$ = -196						; size = 4
$T200753 = -192						; size = 28
$T200752 = -164						; size = 28
$T200751 = -136						; size = 28
$T200750 = -108						; size = 28
$T200749 = -80						; size = 28
$T200748 = -52						; size = 28
_lExStyle$ = -24					; size = 4
_style$ = -20						; size = 4
_curState$ = -13					; size = 1
__$EHRec$ = -12						; size = 12
_pWnd$ = 8						; size = 4
?IPanelChangeOb_ToFullScreen@WebGamePanelWnd@@UAEXPAVCWnd@@@Z PROC NEAR ; WebGamePanelWnd::IPanelChangeOb_ToFullScreen
; _this$ = ecx

; 86   : {

  00680	55		 push	 ebp
  00681	8b ec		 mov	 ebp, esp
  00683	6a ff		 push	 -1
  00685	68 00 00 00 00	 push	 __ehhandler$?IPanelChangeOb_ToFullScreen@WebGamePanelWnd@@UAEXPAVCWnd@@@Z
  0068a	64 a1 00 00 00
	00		 mov	 eax, DWORD PTR fs:__except_list
  00690	50		 push	 eax
  00691	64 89 25 00 00
	00 00		 mov	 DWORD PTR fs:__except_list, esp
  00698	81 ec b8 00 00
	00		 sub	 esp, 184		; 000000b8H
  0069e	89 8d 3c ff ff
	ff		 mov	 DWORD PTR _this$[ebp], ecx

; 87   : 	YL_Log("WebGamePanelWnd.txt", LOG_DEBUG, "WebGamePanelWnd::IPanelChangeOb_ToFullScreen", "===IN");

  006a4	68 00 00 00 00	 push	 OFFSET FLAT:$SG199797
  006a9	8d 4d cc	 lea	 ecx, DWORD PTR $T200748[ebp]
  006ac	ff 15 00 00 00
	00		 call	 DWORD PTR __imp_??0?$basic_string@DU?$char_traits@D@std@@V?$allocator@D@2@@std@@QAE@PBD@Z
  006b2	c7 45 fc 00 00
	00 00		 mov	 DWORD PTR __$EHRec$[ebp+8], 0
  006b9	68 00 00 00 00	 push	 OFFSET FLAT:$SG199798
  006be	8d 4d b0	 lea	 ecx, DWORD PTR $T200749[ebp]
  006c1	ff 15 00 00 00
	00		 call	 DWORD PTR __imp_??0?$basic_string@DU?$char_traits@D@std@@V?$allocator@D@2@@std@@QAE@PBD@Z
  006c7	c6 45 fc 01	 mov	 BYTE PTR __$EHRec$[ebp+8], 1
  006cb	68 00 00 00 00	 push	 OFFSET FLAT:$SG199796
  006d0	8d 45 cc	 lea	 eax, DWORD PTR $T200748[ebp]
  006d3	50		 push	 eax
  006d4	6a 00		 push	 0
  006d6	8d 4d b0	 lea	 ecx, DWORD PTR $T200749[ebp]
  006d9	51		 push	 ecx
  006da	ff 15 00 00 00
	00		 call	 DWORD PTR __imp_?YL_Log@@YAXABV?$basic_string@DU?$char_traits@D@std@@V?$allocator@D@2@@std@@H0PBDZZ
  006e0	83 c4 10	 add	 esp, 16			; 00000010H
  006e3	c6 45 fc 00	 mov	 BYTE PTR __$EHRec$[ebp+8], 0
  006e7	8d 4d b0	 lea	 ecx, DWORD PTR $T200749[ebp]
  006ea	ff 15 00 00 00
	00		 call	 DWORD PTR __imp_??1?$basic_string@DU?$char_traits@D@std@@V?$allocator@D@2@@std@@QAE@XZ
  006f0	c7 45 fc ff ff
	ff ff		 mov	 DWORD PTR __$EHRec$[ebp+8], -1
  006f7	8d 4d cc	 lea	 ecx, DWORD PTR $T200748[ebp]
  006fa	ff 15 00 00 00
	00		 call	 DWORD PTR __imp_??1?$basic_string@DU?$char_traits@D@std@@V?$allocator@D@2@@std@@QAE@XZ

; 88   : 	if( pWnd != this )

  00700	8b 95 3c ff ff
	ff		 mov	 edx, DWORD PTR _this$[ebp]
  00706	83 ea 54	 sub	 edx, 84			; 00000054H
  00709	39 55 08	 cmp	 DWORD PTR _pWnd$[ebp], edx
  0070c	74 05		 je	 SHORT $L199799

; 89   : 		return;

  0070e	e9 45 02 00 00	 jmp	 $L199793
$L199799:

; 90   : 
; 91   : 	m_isMainWindowTopMost = false;

  00713	8b 85 3c ff ff
	ff		 mov	 eax, DWORD PTR _this$[ebp]
  00719	c6 40 60 00	 mov	 BYTE PTR [eax+96], 0

; 92   : 	bool curState;
; 93   : 	AfxGetUserConfig()->GetConfigBoolValue( CONF_APP_MODULE_NAME,CONF_APP_MAINWND_HOLD,curState);

  0071d	8b 0d 00 00 00
	00		 mov	 ecx, DWORD PTR _CONF_APP_MAINWND_HOLD
  00723	51		 push	 ecx
  00724	8d 4d 94	 lea	 ecx, DWORD PTR $T200750[ebp]
  00727	ff 15 00 00 00
	00		 call	 DWORD PTR __imp_??0?$basic_string@DU?$char_traits@D@std@@V?$allocator@D@2@@std@@QAE@PBD@Z
  0072d	c7 45 fc 02 00
	00 00		 mov	 DWORD PTR __$EHRec$[ebp+8], 2
  00734	8b 15 00 00 00
	00		 mov	 edx, DWORD PTR _CONF_APP_MODULE_NAME
  0073a	52		 push	 edx
  0073b	8d 8d 78 ff ff
	ff		 lea	 ecx, DWORD PTR $T200751[ebp]
  00741	ff 15 00 00 00
	00		 call	 DWORD PTR __imp_??0?$basic_string@DU?$char_traits@D@std@@V?$allocator@D@2@@std@@QAE@PBD@Z
  00747	c6 45 fc 03	 mov	 BYTE PTR __$EHRec$[ebp+8], 3
  0074b	8d 45 f3	 lea	 eax, DWORD PTR _curState$[ebp]
  0074e	50		 push	 eax
  0074f	8d 4d 94	 lea	 ecx, DWORD PTR $T200750[ebp]
  00752	51		 push	 ecx
  00753	8d 95 78 ff ff
	ff		 lea	 edx, DWORD PTR $T200751[ebp]
  00759	52		 push	 edx
  0075a	e8 00 00 00 00	 call	 ?AfxGetUserConfig@@YAPAVAfxUserConfig@@XZ ; AfxGetUserConfig
  0075f	8b c8		 mov	 ecx, eax
  00761	e8 00 00 00 00	 call	 ?GetConfigBoolValue@AfxUserConfig@@QAEXABV?$basic_string@DU?$char_traits@D@std@@V?$allocator@D@2@@std@@0AA_N@Z ; AfxUserConfig::GetConfigBoolValue
  00766	c6 45 fc 02	 mov	 BYTE PTR __$EHRec$[ebp+8], 2
  0076a	8d 8d 78 ff ff
	ff		 lea	 ecx, DWORD PTR $T200751[ebp]
  00770	ff 15 00 00 00
	00		 call	 DWORD PTR __imp_??1?$basic_string@DU?$char_traits@D@std@@V?$allocator@D@2@@std@@QAE@XZ
  00776	c7 45 fc ff ff
	ff ff		 mov	 DWORD PTR __$EHRec$[ebp+8], -1
  0077d	8d 4d 94	 lea	 ecx, DWORD PTR $T200750[ebp]
  00780	ff 15 00 00 00
	00		 call	 DWORD PTR __imp_??1?$basic_string@DU?$char_traits@D@std@@V?$allocator@D@2@@std@@QAE@XZ

; 94   : 	if(curState)

  00786	0f b6 45 f3	 movzx	 eax, BYTE PTR _curState$[ebp]
  0078a	85 c0		 test	 eax, eax
  0078c	74 1a		 je	 SHORT $L199803

; 95   : 	{
; 96   : 		SetMainWindow(false);

  0078e	6a 00		 push	 0
  00790	8b 8d 3c ff ff
	ff		 mov	 ecx, DWORD PTR _this$[ebp]
  00796	83 e9 54	 sub	 ecx, 84			; 00000054H
  00799	e8 00 00 00 00	 call	 ?SetMainWindow@WebGamePanelWnd@@QAEX_N@Z ; WebGamePanelWnd::SetMainWindow

; 97   : 		m_isMainWindowTopMost=true;

  0079e	8b 8d 3c ff ff
	ff		 mov	 ecx, DWORD PTR _this$[ebp]
  007a4	c6 41 60 01	 mov	 BYTE PTR [ecx+96], 1
$L199803:

; 98   : 	}
; 99   : 
; 100  : 	m_pWndParent = GetParent();

  007a8	8b 8d 3c ff ff
	ff		 mov	 ecx, DWORD PTR _this$[ebp]
  007ae	83 e9 54	 sub	 ecx, 84			; 00000054H
  007b1	e8 00 00 00 00	 call	 ?GetParent@CWnd@@QBEPAV1@XZ ; CWnd::GetParent
  007b6	8b 95 3c ff ff
	ff		 mov	 edx, DWORD PTR _this$[ebp]
  007bc	89 82 84 00 00
	00		 mov	 DWORD PTR [edx+132], eax

; 101  : 	GetWindowRect(&m_rectBeforeFull);

  007c2	8b 85 3c ff ff
	ff		 mov	 eax, DWORD PTR _this$[ebp]
  007c8	83 c0 64	 add	 eax, 100		; 00000064H
  007cb	50		 push	 eax
  007cc	8b 8d 3c ff ff
	ff		 mov	 ecx, DWORD PTR _this$[ebp]
  007d2	83 e9 54	 sub	 ecx, 84			; 00000054H
  007d5	e8 00 00 00 00	 call	 ?GetWindowRect@CWnd@@QBEXPAUtagRECT@@@Z ; CWnd::GetWindowRect

; 102  : 	m_pWndParent->ScreenToClient(&m_rectBeforeFull);

  007da	8b 8d 3c ff ff
	ff		 mov	 ecx, DWORD PTR _this$[ebp]
  007e0	83 c1 64	 add	 ecx, 100		; 00000064H
  007e3	51		 push	 ecx
  007e4	8b 95 3c ff ff
	ff		 mov	 edx, DWORD PTR _this$[ebp]
  007ea	8b 8a 84 00 00
	00		 mov	 ecx, DWORD PTR [edx+132]
  007f0	e8 00 00 00 00	 call	 ?ScreenToClient@CWnd@@QBEXPAUtagRECT@@@Z ; CWnd::ScreenToClient

; 103  : 
; 104  : 	//,WebGamePanelWnd
; 105  : 	long style = ::GetWindowLong(m_hWnd,GWL_STYLE);

  007f5	6a f0		 push	 -16			; fffffff0H
  007f7	8b 85 3c ff ff
	ff		 mov	 eax, DWORD PTR _this$[ebp]
  007fd	8b 48 cc	 mov	 ecx, DWORD PTR [eax-52]
  00800	51		 push	 ecx
  00801	ff 15 00 00 00
	00		 call	 DWORD PTR __imp__GetWindowLongA@8
  00807	89 45 ec	 mov	 DWORD PTR _style$[ebp], eax

; 106  : 	style &= ~WS_CHILD;

  0080a	8b 55 ec	 mov	 edx, DWORD PTR _style$[ebp]
  0080d	81 e2 ff ff ff
	bf		 and	 edx, -1073741825	; bfffffffH
  00813	89 55 ec	 mov	 DWORD PTR _style$[ebp], edx

; 107  : 	//style &= ~WS_CLIPCHILDREN;
; 108  : 	::SetWindowLong(m_hWnd, GWL_STYLE, style);

  00816	8b 45 ec	 mov	 eax, DWORD PTR _style$[ebp]
  00819	50		 push	 eax
  0081a	6a f0		 push	 -16			; fffffff0H
  0081c	8b 8d 3c ff ff
	ff		 mov	 ecx, DWORD PTR _this$[ebp]
  00822	8b 51 cc	 mov	 edx, DWORD PTR [ecx-52]
  00825	52		 push	 edx
  00826	ff 15 00 00 00
	00		 call	 DWORD PTR __imp__SetWindowLongA@12

; 109  : 
; 110  : 	long lExStyle = ::GetWindowLong(m_hWnd, GWL_EXSTYLE);

  0082c	6a ec		 push	 -20			; ffffffecH
  0082e	8b 85 3c ff ff
	ff		 mov	 eax, DWORD PTR _this$[ebp]
  00834	8b 48 cc	 mov	 ecx, DWORD PTR [eax-52]
  00837	51		 push	 ecx
  00838	ff 15 00 00 00
	00		 call	 DWORD PTR __imp__GetWindowLongA@8
  0083e	89 45 e8	 mov	 DWORD PTR _lExStyle$[ebp], eax

; 111  : 	lExStyle &= ~WS_EX_APPWINDOW; 

  00841	8b 55 e8	 mov	 edx, DWORD PTR _lExStyle$[ebp]
  00844	81 e2 ff ff fb
	ff		 and	 edx, -262145		; fffbffffH
  0084a	89 55 e8	 mov	 DWORD PTR _lExStyle$[ebp], edx

; 112  : 	lExStyle |= WS_EX_TOOLWINDOW; 

  0084d	8b 45 e8	 mov	 eax, DWORD PTR _lExStyle$[ebp]
  00850	0d 80 00 00 00	 or	 eax, 128		; 00000080H
  00855	89 45 e8	 mov	 DWORD PTR _lExStyle$[ebp], eax

; 113  : 	::SetWindowLong(m_hWnd, GWL_EXSTYLE, lExStyle);

  00858	8b 4d e8	 mov	 ecx, DWORD PTR _lExStyle$[ebp]
  0085b	51		 push	 ecx
  0085c	6a ec		 push	 -20			; ffffffecH
  0085e	8b 95 3c ff ff
	ff		 mov	 edx, DWORD PTR _this$[ebp]
  00864	8b 42 cc	 mov	 eax, DWORD PTR [edx-52]
  00867	50		 push	 eax
  00868	ff 15 00 00 00
	00		 call	 DWORD PTR __imp__SetWindowLongA@12

; 114  : 
; 115  : 	SetParent(GetDesktopWindow());

  0086e	e8 00 00 00 00	 call	 ?GetDesktopWindow@CWnd@@SGPAV1@XZ ; CWnd::GetDesktopWindow
  00873	50		 push	 eax
  00874	8b 8d 3c ff ff
	ff		 mov	 ecx, DWORD PTR _this$[ebp]
  0087a	83 e9 54	 sub	 ecx, 84			; 00000054H
  0087d	e8 00 00 00 00	 call	 ?SetParent@CWnd@@QAEPAV1@PAV1@@Z ; CWnd::SetParent

; 116  : 	GetDesktopWindow()->GetWindowRect(&m_rectFullScreen);

  00882	8b 8d 3c ff ff
	ff		 mov	 ecx, DWORD PTR _this$[ebp]
  00888	83 c1 74	 add	 ecx, 116		; 00000074H
  0088b	51		 push	 ecx
  0088c	e8 00 00 00 00	 call	 ?GetDesktopWindow@CWnd@@SGPAV1@XZ ; CWnd::GetDesktopWindow
  00891	8b c8		 mov	 ecx, eax
  00893	e8 00 00 00 00	 call	 ?GetWindowRect@CWnd@@QBEXPAUtagRECT@@@Z ; CWnd::GetWindowRect

; 117  : 
; 118  : 	SetWindowPos(&wndTopMost,m_rectFullScreen.left,m_rectFullScreen.top,
; 119  : 		m_rectFullScreen.Width(),m_rectFullScreen.Height(),SWP_SHOWWINDOW);

  00898	6a 40		 push	 64			; 00000040H
  0089a	8b 8d 3c ff ff
	ff		 mov	 ecx, DWORD PTR _this$[ebp]
  008a0	83 c1 74	 add	 ecx, 116		; 00000074H
  008a3	e8 00 00 00 00	 call	 ?Height@CRect@@QBEHXZ	; CRect::Height
  008a8	50		 push	 eax
  008a9	8b 8d 3c ff ff
	ff		 mov	 ecx, DWORD PTR _this$[ebp]
  008af	83 c1 74	 add	 ecx, 116		; 00000074H
  008b2	e8 00 00 00 00	 call	 ?Width@CRect@@QBEHXZ	; CRect::Width
  008b7	50		 push	 eax
  008b8	8b 95 3c ff ff
	ff		 mov	 edx, DWORD PTR _this$[ebp]
  008be	8b 42 78	 mov	 eax, DWORD PTR [edx+120]
  008c1	50		 push	 eax
  008c2	8b 8d 3c ff ff
	ff		 mov	 ecx, DWORD PTR _this$[ebp]
  008c8	8b 51 74	 mov	 edx, DWORD PTR [ecx+116]
  008cb	52		 push	 edx
  008cc	a1 00 00 00 00	 mov	 eax, DWORD PTR __imp_?wndTopMost@CWnd@@2V1@B
  008d1	50		 push	 eax
  008d2	8b 8d 3c ff ff
	ff		 mov	 ecx, DWORD PTR _this$[ebp]
  008d8	83 e9 54	 sub	 ecx, 84			; 00000054H
  008db	e8 00 00 00 00	 call	 ?SetWindowPos@CWnd@@QAEHPBV1@HHHHI@Z ; CWnd::SetWindowPos

; 120  : 	m_bFullScreen = true;

  008e0	8b 8d 3c ff ff
	ff		 mov	 ecx, DWORD PTR _this$[ebp]
  008e6	c6 41 61 01	 mov	 BYTE PTR [ecx+97], 1

; 121  : 
; 122  : 	YL_Log("WebGamePanelWnd.txt", LOG_DEBUG, "WebGamePanelWnd::IPanelChangeOb_ToFullScreen", "===OUT");

  008ea	68 00 00 00 00	 push	 OFFSET FLAT:$SG199809
  008ef	8d 8d 5c ff ff
	ff		 lea	 ecx, DWORD PTR $T200752[ebp]
  008f5	ff 15 00 00 00
	00		 call	 DWORD PTR __imp_??0?$basic_string@DU?$char_traits@D@std@@V?$allocator@D@2@@std@@QAE@PBD@Z
  008fb	c7 45 fc 04 00
	00 00		 mov	 DWORD PTR __$EHRec$[ebp+8], 4
  00902	68 00 00 00 00	 push	 OFFSET FLAT:$SG199810
  00907	8d 8d 40 ff ff
	ff		 lea	 ecx, DWORD PTR $T200753[ebp]
  0090d	ff 15 00 00 00
	00		 call	 DWORD PTR __imp_??0?$basic_string@DU?$char_traits@D@std@@V?$allocator@D@2@@std@@QAE@PBD@Z
  00913	c6 45 fc 05	 mov	 BYTE PTR __$EHRec$[ebp+8], 5
  00917	68 00 00 00 00	 push	 OFFSET FLAT:$SG199808
  0091c	8d 95 5c ff ff
	ff		 lea	 edx, DWORD PTR $T200752[ebp]
  00922	52		 push	 edx
  00923	6a 00		 push	 0
  00925	8d 85 40 ff ff
	ff		 lea	 eax, DWORD PTR $T200753[ebp]
  0092b	50		 push	 eax
  0092c	ff 15 00 00 00
	00		 call	 DWORD PTR __imp_?YL_Log@@YAXABV?$basic_string@DU?$char_traits@D@std@@V?$allocator@D@2@@std@@H0PBDZZ
  00932	83 c4 10	 add	 esp, 16			; 00000010H
  00935	c6 45 fc 04	 mov	 BYTE PTR __$EHRec$[ebp+8], 4
  00939	8d 8d 40 ff ff
	ff		 lea	 ecx, DWORD PTR $T200753[ebp]
  0093f	ff 15 00 00 00
	00		 call	 DWORD PTR __imp_??1?$basic_string@DU?$char_traits@D@std@@V?$allocator@D@2@@std@@QAE@XZ
  00945	c7 45 fc ff ff
	ff ff		 mov	 DWORD PTR __$EHRec$[ebp+8], -1
  0094c	8d 8d 5c ff ff
	ff		 lea	 ecx, DWORD PTR $T200752[ebp]
  00952	ff 15 00 00 00
	00		 call	 DWORD PTR __imp_??1?$basic_string@DU?$char_traits@D@std@@V?$allocator@D@2@@std@@QAE@XZ
$L199793:

; 123  : }

  00958	8b 4d f4	 mov	 ecx, DWORD PTR __$EHRec$[ebp]
  0095b	64 89 0d 00 00
	00 00		 mov	 DWORD PTR fs:__except_list, ecx
  00962	8b e5		 mov	 esp, ebp
  00964	5d		 pop	 ebp
  00965	c2 04 00	 ret	 4
_TEXT	ENDS
text$x	SEGMENT
$L200754:
  000db	8d 4d cc	 lea	 ecx, DWORD PTR $T200748[ebp]
  000de	ff 25 00 00 00
	00		 jmp	 DWORD PTR __imp_??1?$basic_string@DU?$char_traits@D@std@@V?$allocator@D@2@@std@@QAE@XZ
$L200755:
  000e4	8d 4d b0	 lea	 ecx, DWORD PTR $T200749[ebp]
  000e7	ff 25 00 00 00
	00		 jmp	 DWORD PTR __imp_??1?$basic_string@DU?$char_traits@D@std@@V?$allocator@D@2@@std@@QAE@XZ
$L200756:
  000ed	8d 4d 94	 lea	 ecx, DWORD PTR $T200750[ebp]
  000f0	ff 25 00 00 00
	00		 jmp	 DWORD PTR __imp_??1?$basic_string@DU?$char_traits@D@std@@V?$allocator@D@2@@std@@QAE@XZ
$L200757:
  000f6	8d 8d 78 ff ff
	ff		 lea	 ecx, DWORD PTR $T200751[ebp]
  000fc	ff 25 00 00 00
	00		 jmp	 DWORD PTR __imp_??1?$basic_string@DU?$char_traits@D@std@@V?$allocator@D@2@@std@@QAE@XZ
$L200758:
  00102	8d 8d 5c ff ff
	ff		 lea	 ecx, DWORD PTR $T200752[ebp]
  00108	ff 25 00 00 00
	00		 jmp	 DWORD PTR __imp_??1?$basic_string@DU?$char_traits@D@std@@V?$allocator@D@2@@std@@QAE@XZ
$L200759:
  0010e	8d 8d 40 ff ff
	ff		 lea	 ecx, DWORD PTR $T200753[ebp]
  00114	ff 25 00 00 00
	00		 jmp	 DWORD PTR __imp_??1?$basic_string@DU?$char_traits@D@std@@V?$allocator@D@2@@std@@QAE@XZ
__ehhandler$?IPanelChangeOb_ToFullScreen@WebGamePanelWnd@@UAEXPAVCWnd@@@Z:
  0011a	b8 00 00 00 00	 mov	 eax, OFFSET FLAT:$T200761
  0011f	e9 00 00 00 00	 jmp	 ___CxxFrameHandler
text$x	ENDS
?IPanelChangeOb_ToFullScreen@WebGamePanelWnd@@UAEXPAVCWnd@@@Z ENDP ; WebGamePanelWnd::IPanelChangeOb_ToFullScreen
EXTRN	?SetConfigBoolValue@AfxUserConfig@@QAEXABV?$basic_string@DU?$char_traits@D@std@@V?$allocator@D@2@@std@@0_N1@Z:NEAR ; AfxUserConfig::SetConfigBoolValue
EXTRN	?AfxGetMainWindow@@YAPAVCWnd@@XZ:NEAR		; AfxGetMainWindow
EXTRN	__imp_?wndNoTopMost@CWnd@@2V1@B:BYTE
xdata$x	SEGMENT
$T200784 DD	0ffffffffH
	DD	FLAT:$L200773
	DD	00H
	DD	FLAT:$L200774
	DD	0ffffffffH
	DD	FLAT:$L200775
	DD	02H
	DD	FLAT:$L200776
	DD	0ffffffffH
	DD	FLAT:$L200777
	DD	04H
	DD	FLAT:$L200778
	DD	0ffffffffH
	DD	FLAT:$L200779
	DD	06H
	DD	FLAT:$L200780
$T200782 DD	019930520H
	DD	08H
	DD	FLAT:$T200784
	DD	2 DUP(00H)
	DD	2 DUP(00H)
; Function compile flags: /Odt
xdata$x	ENDS
_TEXT	SEGMENT
_this$ = -240						; size = 4
$T200772 = -236						; size = 28
$T200771 = -208						; size = 28
$T200770 = -180						; size = 28
$T200769 = -152						; size = 28
$T200768 = -124						; size = 28
$T200767 = -96						; size = 28
$T200766 = -68						; size = 28
$T200765 = -40						; size = 28
__$EHRec$ = -12						; size = 12
_isTopMost$ = 8						; size = 1
?SetMainWindow@WebGamePanelWnd@@QAEX_N@Z PROC NEAR	; WebGamePanelWnd::SetMainWindow
; _this$ = ecx

; 126  : {

  00970	55		 push	 ebp
  00971	8b ec		 mov	 ebp, esp
  00973	6a ff		 push	 -1
  00975	68 00 00 00 00	 push	 __ehhandler$?SetMainWindow@WebGamePanelWnd@@QAEX_N@Z
  0097a	64 a1 00 00 00
	00		 mov	 eax, DWORD PTR fs:__except_list
  00980	50		 push	 eax
  00981	64 89 25 00 00
	00 00		 mov	 DWORD PTR fs:__except_list, esp
  00988	81 ec e4 00 00
	00		 sub	 esp, 228		; 000000e4H
  0098e	89 8d 10 ff ff
	ff		 mov	 DWORD PTR _this$[ebp], ecx

; 127  : 	YL_Log("WebGamePanelWnd.txt", LOG_DEBUG, "WebGamePanelWnd::SetMainWindow", "===IN");

  00994	68 00 00 00 00	 push	 OFFSET FLAT:$SG199818
  00999	8d 4d d8	 lea	 ecx, DWORD PTR $T200765[ebp]
  0099c	ff 15 00 00 00
	00		 call	 DWORD PTR __imp_??0?$basic_string@DU?$char_traits@D@std@@V?$allocator@D@2@@std@@QAE@PBD@Z
  009a2	c7 45 fc 00 00
	00 00		 mov	 DWORD PTR __$EHRec$[ebp+8], 0
  009a9	68 00 00 00 00	 push	 OFFSET FLAT:$SG199819
  009ae	8d 4d bc	 lea	 ecx, DWORD PTR $T200766[ebp]
  009b1	ff 15 00 00 00
	00		 call	 DWORD PTR __imp_??0?$basic_string@DU?$char_traits@D@std@@V?$allocator@D@2@@std@@QAE@PBD@Z
  009b7	c6 45 fc 01	 mov	 BYTE PTR __$EHRec$[ebp+8], 1
  009bb	68 00 00 00 00	 push	 OFFSET FLAT:$SG199817
  009c0	8d 45 d8	 lea	 eax, DWORD PTR $T200765[ebp]
  009c3	50		 push	 eax
  009c4	6a 00		 push	 0
  009c6	8d 4d bc	 lea	 ecx, DWORD PTR $T200766[ebp]
  009c9	51		 push	 ecx
  009ca	ff 15 00 00 00
	00		 call	 DWORD PTR __imp_?YL_Log@@YAXABV?$basic_string@DU?$char_traits@D@std@@V?$allocator@D@2@@std@@H0PBDZZ
  009d0	83 c4 10	 add	 esp, 16			; 00000010H
  009d3	c6 45 fc 00	 mov	 BYTE PTR __$EHRec$[ebp+8], 0
  009d7	8d 4d bc	 lea	 ecx, DWORD PTR $T200766[ebp]
  009da	ff 15 00 00 00
	00		 call	 DWORD PTR __imp_??1?$basic_string@DU?$char_traits@D@std@@V?$allocator@D@2@@std@@QAE@XZ
  009e0	c7 45 fc ff ff
	ff ff		 mov	 DWORD PTR __$EHRec$[ebp+8], -1
  009e7	8d 4d d8	 lea	 ecx, DWORD PTR $T200765[ebp]
  009ea	ff 15 00 00 00
	00		 call	 DWORD PTR __imp_??1?$basic_string@DU?$char_traits@D@std@@V?$allocator@D@2@@std@@QAE@XZ

; 128  : 	if(isTopMost)

  009f0	0f b6 55 08	 movzx	 edx, BYTE PTR _isTopMost$[ebp]
  009f4	85 d2		 test	 edx, edx
  009f6	0f 84 81 00 00
	00		 je	 $L199820

; 129  : 	{
; 130  : 		AfxGetMainWindow()->SetWindowPos(&wndTopMost,-1,-1,-1,-1, SWP_NOSIZE|SWP_NOMOVE);

  009fc	6a 03		 push	 3
  009fe	6a ff		 push	 -1
  00a00	6a ff		 push	 -1
  00a02	6a ff		 push	 -1
  00a04	6a ff		 push	 -1
  00a06	a1 00 00 00 00	 mov	 eax, DWORD PTR __imp_?wndTopMost@CWnd@@2V1@B
  00a0b	50		 push	 eax
  00a0c	e8 00 00 00 00	 call	 ?AfxGetMainWindow@@YAPAVCWnd@@XZ ; AfxGetMainWindow
  00a11	8b c8		 mov	 ecx, eax
  00a13	e8 00 00 00 00	 call	 ?SetWindowPos@CWnd@@QAEHPBV1@HHHHI@Z ; CWnd::SetWindowPos

; 131  : 		AfxGetUserConfig()->SetConfigBoolValue( CONF_APP_MODULE_NAME,CONF_APP_MAINWND_HOLD,true);

  00a18	8b 0d 00 00 00
	00		 mov	 ecx, DWORD PTR _CONF_APP_MAINWND_HOLD
  00a1e	51		 push	 ecx
  00a1f	8d 4d a0	 lea	 ecx, DWORD PTR $T200767[ebp]
  00a22	ff 15 00 00 00
	00		 call	 DWORD PTR __imp_??0?$basic_string@DU?$char_traits@D@std@@V?$allocator@D@2@@std@@QAE@PBD@Z
  00a28	c7 45 fc 02 00
	00 00		 mov	 DWORD PTR __$EHRec$[ebp+8], 2
  00a2f	8b 15 00 00 00
	00		 mov	 edx, DWORD PTR _CONF_APP_MODULE_NAME
  00a35	52		 push	 edx
  00a36	8d 4d 84	 lea	 ecx, DWORD PTR $T200768[ebp]
  00a39	ff 15 00 00 00
	00		 call	 DWORD PTR __imp_??0?$basic_string@DU?$char_traits@D@std@@V?$allocator@D@2@@std@@QAE@PBD@Z
  00a3f	c6 45 fc 03	 mov	 BYTE PTR __$EHRec$[ebp+8], 3
  00a43	6a 00		 push	 0
  00a45	6a 01		 push	 1
  00a47	8d 45 a0	 lea	 eax, DWORD PTR $T200767[ebp]
  00a4a	50		 push	 eax
  00a4b	8d 4d 84	 lea	 ecx, DWORD PTR $T200768[ebp]
  00a4e	51		 push	 ecx
  00a4f	e8 00 00 00 00	 call	 ?AfxGetUserConfig@@YAPAVAfxUserConfig@@XZ ; AfxGetUserConfig
  00a54	8b c8		 mov	 ecx, eax
  00a56	e8 00 00 00 00	 call	 ?SetConfigBoolValue@AfxUserConfig@@QAEXABV?$basic_string@DU?$char_traits@D@std@@V?$allocator@D@2@@std@@0_N1@Z ; AfxUserConfig::SetConfigBoolValue
  00a5b	c6 45 fc 02	 mov	 BYTE PTR __$EHRec$[ebp+8], 2
  00a5f	8d 4d 84	 lea	 ecx, DWORD PTR $T200768[ebp]
  00a62	ff 15 00 00 00
	00		 call	 DWORD PTR __imp_??1?$basic_string@DU?$char_traits@D@std@@V?$allocator@D@2@@std@@QAE@XZ
  00a68	c7 45 fc ff ff
	ff ff		 mov	 DWORD PTR __$EHRec$[ebp+8], -1
  00a6f	8d 4d a0	 lea	 ecx, DWORD PTR $T200767[ebp]
  00a72	ff 15 00 00 00
	00		 call	 DWORD PTR __imp_??1?$basic_string@DU?$char_traits@D@std@@V?$allocator@D@2@@std@@QAE@XZ

; 132  : 	}else

  00a78	e9 8e 00 00 00	 jmp	 $L199823
$L199820:

; 133  : 	{
; 134  : 		AfxGetMainWindow()->SetWindowPos(&wndNoTopMost,-1,-1,-1,-1, SWP_NOSIZE|SWP_NOMOVE);

  00a7d	6a 03		 push	 3
  00a7f	6a ff		 push	 -1
  00a81	6a ff		 push	 -1
  00a83	6a ff		 push	 -1
  00a85	6a ff		 push	 -1
  00a87	8b 15 00 00 00
	00		 mov	 edx, DWORD PTR __imp_?wndNoTopMost@CWnd@@2V1@B
  00a8d	52		 push	 edx
  00a8e	e8 00 00 00 00	 call	 ?AfxGetMainWindow@@YAPAVCWnd@@XZ ; AfxGetMainWindow
  00a93	8b c8		 mov	 ecx, eax
  00a95	e8 00 00 00 00	 call	 ?SetWindowPos@CWnd@@QAEHPBV1@HHHHI@Z ; CWnd::SetWindowPos

; 135  : 		AfxGetUserConfig()->SetConfigBoolValue( CONF_APP_MODULE_NAME,CONF_APP_MAINWND_HOLD,false);

  00a9a	a1 00 00 00 00	 mov	 eax, DWORD PTR _CONF_APP_MAINWND_HOLD
  00a9f	50		 push	 eax
  00aa0	8d 8d 68 ff ff
	ff		 lea	 ecx, DWORD PTR $T200769[ebp]
  00aa6	ff 15 00 00 00
	00		 call	 DWORD PTR __imp_??0?$basic_string@DU?$char_traits@D@std@@V?$allocator@D@2@@std@@QAE@PBD@Z
  00aac	c7 45 fc 04 00
	00 00		 mov	 DWORD PTR __$EHRec$[ebp+8], 4
  00ab3	8b 0d 00 00 00
	00		 mov	 ecx, DWORD PTR _CONF_APP_MODULE_NAME
  00ab9	51		 push	 ecx
  00aba	8d 8d 4c ff ff
	ff		 lea	 ecx, DWORD PTR $T200770[ebp]
  00ac0	ff 15 00 00 00
	00		 call	 DWORD PTR __imp_??0?$basic_string@DU?$char_traits@D@std@@V?$allocator@D@2@@std@@QAE@PBD@Z
  00ac6	c6 45 fc 05	 mov	 BYTE PTR __$EHRec$[ebp+8], 5
  00aca	6a 00		 push	 0
  00acc	6a 00		 push	 0
  00ace	8d 95 68 ff ff
	ff		 lea	 edx, DWORD PTR $T200769[ebp]
  00ad4	52		 push	 edx
  00ad5	8d 85 4c ff ff
	ff		 lea	 eax, DWORD PTR $T200770[ebp]
  00adb	50		 push	 eax
  00adc	e8 00 00 00 00	 call	 ?AfxGetUserConfig@@YAPAVAfxUserConfig@@XZ ; AfxGetUserConfig
  00ae1	8b c8		 mov	 ecx, eax
  00ae3	e8 00 00 00 00	 call	 ?SetConfigBoolValue@AfxUserConfig@@QAEXABV?$basic_string@DU?$char_traits@D@std@@V?$allocator@D@2@@std@@0_N1@Z ; AfxUserConfig::SetConfigBoolValue
  00ae8	c6 45 fc 04	 mov	 BYTE PTR __$EHRec$[ebp+8], 4
  00aec	8d 8d 4c ff ff
	ff		 lea	 ecx, DWORD PTR $T200770[ebp]
  00af2	ff 15 00 00 00
	00		 call	 DWORD PTR __imp_??1?$basic_string@DU?$char_traits@D@std@@V?$allocator@D@2@@std@@QAE@XZ
  00af8	c7 45 fc ff ff
	ff ff		 mov	 DWORD PTR __$EHRec$[ebp+8], -1
  00aff	8d 8d 68 ff ff
	ff		 lea	 ecx, DWORD PTR $T200769[ebp]
  00b05	ff 15 00 00 00
	00		 call	 DWORD PTR __imp_??1?$basic_string@DU?$char_traits@D@std@@V?$allocator@D@2@@std@@QAE@XZ
$L199823:

; 136  : 	}
; 137  : 	YL_Log("WebGamePanelWnd.txt", LOG_DEBUG, "WebGamePanelWnd::SetMainWindow", "===OUT");

  00b0b	68 00 00 00 00	 push	 OFFSET FLAT:$SG199829
  00b10	8d 8d 30 ff ff
	ff		 lea	 ecx, DWORD PTR $T200771[ebp]
  00b16	ff 15 00 00 00
	00		 call	 DWORD PTR __imp_??0?$basic_string@DU?$char_traits@D@std@@V?$allocator@D@2@@std@@QAE@PBD@Z
  00b1c	c7 45 fc 06 00
	00 00		 mov	 DWORD PTR __$EHRec$[ebp+8], 6
  00b23	68 00 00 00 00	 push	 OFFSET FLAT:$SG199830
  00b28	8d 8d 14 ff ff
	ff		 lea	 ecx, DWORD PTR $T200772[ebp]
  00b2e	ff 15 00 00 00
	00		 call	 DWORD PTR __imp_??0?$basic_string@DU?$char_traits@D@std@@V?$allocator@D@2@@std@@QAE@PBD@Z
  00b34	c6 45 fc 07	 mov	 BYTE PTR __$EHRec$[ebp+8], 7
  00b38	68 00 00 00 00	 push	 OFFSET FLAT:$SG199828
  00b3d	8d 8d 30 ff ff
	ff		 lea	 ecx, DWORD PTR $T200771[ebp]
  00b43	51		 push	 ecx
  00b44	6a 00		 push	 0
  00b46	8d 95 14 ff ff
	ff		 lea	 edx, DWORD PTR $T200772[ebp]
  00b4c	52		 push	 edx
  00b4d	ff 15 00 00 00
	00		 call	 DWORD PTR __imp_?YL_Log@@YAXABV?$basic_string@DU?$char_traits@D@std@@V?$allocator@D@2@@std@@H0PBDZZ
  00b53	83 c4 10	 add	 esp, 16			; 00000010H
  00b56	c6 45 fc 06	 mov	 BYTE PTR __$EHRec$[ebp+8], 6
  00b5a	8d 8d 14 ff ff
	ff		 lea	 ecx, DWORD PTR $T200772[ebp]
  00b60	ff 15 00 00 00
	00		 call	 DWORD PTR __imp_??1?$basic_string@DU?$char_traits@D@std@@V?$allocator@D@2@@std@@QAE@XZ
  00b66	c7 45 fc ff ff
	ff ff		 mov	 DWORD PTR __$EHRec$[ebp+8], -1
  00b6d	8d 8d 30 ff ff
	ff		 lea	 ecx, DWORD PTR $T200771[ebp]
  00b73	ff 15 00 00 00
	00		 call	 DWORD PTR __imp_??1?$basic_string@DU?$char_traits@D@std@@V?$allocator@D@2@@std@@QAE@XZ

; 138  : }

  00b79	8b 4d f4	 mov	 ecx, DWORD PTR __$EHRec$[ebp]
  00b7c	64 89 0d 00 00
	00 00		 mov	 DWORD PTR fs:__except_list, ecx
  00b83	8b e5		 mov	 esp, ebp
  00b85	5d		 pop	 ebp
  00b86	c2 04 00	 ret	 4
_TEXT	ENDS
text$x	SEGMENT
$L200773:
  00124	8d 4d d8	 lea	 ecx, DWORD PTR $T200765[ebp]
  00127	ff 25 00 00 00
	00		 jmp	 DWORD PTR __imp_??1?$basic_string@DU?$char_traits@D@std@@V?$allocator@D@2@@std@@QAE@XZ
$L200774:
  0012d	8d 4d bc	 lea	 ecx, DWORD PTR $T200766[ebp]
  00130	ff 25 00 00 00
	00		 jmp	 DWORD PTR __imp_??1?$basic_string@DU?$char_traits@D@std@@V?$allocator@D@2@@std@@QAE@XZ
$L200775:
  00136	8d 4d a0	 lea	 ecx, DWORD PTR $T200767[ebp]
  00139	ff 25 00 00 00
	00		 jmp	 DWORD PTR __imp_??1?$basic_string@DU?$char_traits@D@std@@V?$allocator@D@2@@std@@QAE@XZ
$L200776:
  0013f	8d 4d 84	 lea	 ecx, DWORD PTR $T200768[ebp]
  00142	ff 25 00 00 00
	00		 jmp	 DWORD PTR __imp_??1?$basic_string@DU?$char_traits@D@std@@V?$allocator@D@2@@std@@QAE@XZ
$L200777:
  00148	8d 8d 68 ff ff
	ff		 lea	 ecx, DWORD PTR $T200769[ebp]
  0014e	ff 25 00 00 00
	00		 jmp	 DWORD PTR __imp_??1?$basic_string@DU?$char_traits@D@std@@V?$allocator@D@2@@std@@QAE@XZ
$L200778:
  00154	8d 8d 4c ff ff
	ff		 lea	 ecx, DWORD PTR $T200770[ebp]
  0015a	ff 25 00 00 00
	00		 jmp	 DWORD PTR __imp_??1?$basic_string@DU?$char_traits@D@std@@V?$allocator@D@2@@std@@QAE@XZ
$L200779:
  00160	8d 8d 30 ff ff
	ff		 lea	 ecx, DWORD PTR $T200771[ebp]
  00166	ff 25 00 00 00
	00		 jmp	 DWORD PTR __imp_??1?$basic_string@DU?$char_traits@D@std@@V?$allocator@D@2@@std@@QAE@XZ
$L200780:
  0016c	8d 8d 14 ff ff
	ff		 lea	 ecx, DWORD PTR $T200772[ebp]
  00172	ff 25 00 00 00
	00		 jmp	 DWORD PTR __imp_??1?$basic_string@DU?$char_traits@D@std@@V?$allocator@D@2@@std@@QAE@XZ
__ehhandler$?SetMainWindow@WebGamePanelWnd@@QAEX_N@Z:
  00178	b8 00 00 00 00	 mov	 eax, OFFSET FLAT:$T200782
  0017d	e9 00 00 00 00	 jmp	 ___CxxFrameHandler
text$x	ENDS
?SetMainWindow@WebGamePanelWnd@@QAEX_N@Z ENDP		; WebGamePanelWnd::SetMainWindow
PUBLIC	?MoveWindow@CWnd@@QAEXPBUtagRECT@@H@Z		; CWnd::MoveWindow
xdata$x	SEGMENT
$T200801 DD	0ffffffffH
	DD	FLAT:$L200792
	DD	00H
	DD	FLAT:$L200793
	DD	0ffffffffH
	DD	FLAT:$L200794
	DD	02H
	DD	FLAT:$L200795
	DD	0ffffffffH
	DD	FLAT:$L200796
	DD	04H
	DD	FLAT:$L200797
$T200799 DD	019930520H
	DD	06H
	DD	FLAT:$T200801
	DD	2 DUP(00H)
	DD	2 DUP(00H)
; Function compile flags: /Odt
xdata$x	ENDS
_TEXT	SEGMENT
_this$ = -196						; size = 4
$T200791 = -192						; size = 28
$T200790 = -164						; size = 28
$T200789 = -136						; size = 28
$T200788 = -108						; size = 28
$T200787 = -80						; size = 28
$T200786 = -52						; size = 28
_lExStyle$ = -24					; size = 4
_style$ = -20						; size = 4
_bHold$ = -13						; size = 1
__$EHRec$ = -12						; size = 12
_pWnd$ = 8						; size = 4
?IPanelChangeOb_ExitFullScreen@WebGamePanelWnd@@UAEXPAVCWnd@@@Z PROC NEAR ; WebGamePanelWnd::IPanelChangeOb_ExitFullScreen
; _this$ = ecx

; 141  : {

  00b90	55		 push	 ebp
  00b91	8b ec		 mov	 ebp, esp
  00b93	6a ff		 push	 -1
  00b95	68 00 00 00 00	 push	 __ehhandler$?IPanelChangeOb_ExitFullScreen@WebGamePanelWnd@@UAEXPAVCWnd@@@Z
  00b9a	64 a1 00 00 00
	00		 mov	 eax, DWORD PTR fs:__except_list
  00ba0	50		 push	 eax
  00ba1	64 89 25 00 00
	00 00		 mov	 DWORD PTR fs:__except_list, esp
  00ba8	81 ec b8 00 00
	00		 sub	 esp, 184		; 000000b8H
  00bae	89 8d 3c ff ff
	ff		 mov	 DWORD PTR _this$[ebp], ecx

; 142  : 	YL_Log("WebGamePanelWnd.txt", LOG_DEBUG, "WebGamePanelWnd::IPanelChangeOb_ExitFullScreen", "===IN");

  00bb4	68 00 00 00 00	 push	 OFFSET FLAT:$SG199838
  00bb9	8d 4d cc	 lea	 ecx, DWORD PTR $T200786[ebp]
  00bbc	ff 15 00 00 00
	00		 call	 DWORD PTR __imp_??0?$basic_string@DU?$char_traits@D@std@@V?$allocator@D@2@@std@@QAE@PBD@Z
  00bc2	c7 45 fc 00 00
	00 00		 mov	 DWORD PTR __$EHRec$[ebp+8], 0
  00bc9	68 00 00 00 00	 push	 OFFSET FLAT:$SG199839
  00bce	8d 4d b0	 lea	 ecx, DWORD PTR $T200787[ebp]
  00bd1	ff 15 00 00 00
	00		 call	 DWORD PTR __imp_??0?$basic_string@DU?$char_traits@D@std@@V?$allocator@D@2@@std@@QAE@PBD@Z
  00bd7	c6 45 fc 01	 mov	 BYTE PTR __$EHRec$[ebp+8], 1
  00bdb	68 00 00 00 00	 push	 OFFSET FLAT:$SG199837
  00be0	8d 45 cc	 lea	 eax, DWORD PTR $T200786[ebp]
  00be3	50		 push	 eax
  00be4	6a 00		 push	 0
  00be6	8d 4d b0	 lea	 ecx, DWORD PTR $T200787[ebp]
  00be9	51		 push	 ecx
  00bea	ff 15 00 00 00
	00		 call	 DWORD PTR __imp_?YL_Log@@YAXABV?$basic_string@DU?$char_traits@D@std@@V?$allocator@D@2@@std@@H0PBDZZ
  00bf0	83 c4 10	 add	 esp, 16			; 00000010H
  00bf3	c6 45 fc 00	 mov	 BYTE PTR __$EHRec$[ebp+8], 0
  00bf7	8d 4d b0	 lea	 ecx, DWORD PTR $T200787[ebp]
  00bfa	ff 15 00 00 00
	00		 call	 DWORD PTR __imp_??1?$basic_string@DU?$char_traits@D@std@@V?$allocator@D@2@@std@@QAE@XZ
  00c00	c7 45 fc ff ff
	ff ff		 mov	 DWORD PTR __$EHRec$[ebp+8], -1
  00c07	8d 4d cc	 lea	 ecx, DWORD PTR $T200786[ebp]
  00c0a	ff 15 00 00 00
	00		 call	 DWORD PTR __imp_??1?$basic_string@DU?$char_traits@D@std@@V?$allocator@D@2@@std@@QAE@XZ

; 143  : 	if( pWnd != this )

  00c10	8b 95 3c ff ff
	ff		 mov	 edx, DWORD PTR _this$[ebp]
  00c16	83 ea 54	 sub	 edx, 84			; 00000054H
  00c19	39 55 08	 cmp	 DWORD PTR _pWnd$[ebp], edx
  00c1c	74 05		 je	 SHORT $L199840

; 144  : 		return;

  00c1e	e9 de 01 00 00	 jmp	 $L199834
$L199840:

; 145  : 
; 146  : 	m_bFullScreen = false;

  00c23	8b 85 3c ff ff
	ff		 mov	 eax, DWORD PTR _this$[ebp]
  00c29	c6 40 61 00	 mov	 BYTE PTR [eax+97], 0

; 147  : 
; 148  : 	//
; 149  : 	long style = ::GetWindowLong(m_hWnd,GWL_STYLE);

  00c2d	6a f0		 push	 -16			; fffffff0H
  00c2f	8b 8d 3c ff ff
	ff		 mov	 ecx, DWORD PTR _this$[ebp]
  00c35	8b 51 cc	 mov	 edx, DWORD PTR [ecx-52]
  00c38	52		 push	 edx
  00c39	ff 15 00 00 00
	00		 call	 DWORD PTR __imp__GetWindowLongA@8
  00c3f	89 45 ec	 mov	 DWORD PTR _style$[ebp], eax

; 150  : 	style |= WS_CHILD;

  00c42	8b 45 ec	 mov	 eax, DWORD PTR _style$[ebp]
  00c45	0d 00 00 00 40	 or	 eax, 1073741824		; 40000000H
  00c4a	89 45 ec	 mov	 DWORD PTR _style$[ebp], eax

; 151  : 	//style |= WS_CLIPCHILDREN; //WS_CLIPCHILDRENWebGamePanelWnd
; 152  : 	::SetWindowLong(m_hWnd, GWL_STYLE, style);

  00c4d	8b 4d ec	 mov	 ecx, DWORD PTR _style$[ebp]
  00c50	51		 push	 ecx
  00c51	6a f0		 push	 -16			; fffffff0H
  00c53	8b 95 3c ff ff
	ff		 mov	 edx, DWORD PTR _this$[ebp]
  00c59	8b 42 cc	 mov	 eax, DWORD PTR [edx-52]
  00c5c	50		 push	 eax
  00c5d	ff 15 00 00 00
	00		 call	 DWORD PTR __imp__SetWindowLongA@12

; 153  : 	
; 154  : 	long lExStyle = ::GetWindowLong(m_hWnd, GWL_EXSTYLE);

  00c63	6a ec		 push	 -20			; ffffffecH
  00c65	8b 8d 3c ff ff
	ff		 mov	 ecx, DWORD PTR _this$[ebp]
  00c6b	8b 51 cc	 mov	 edx, DWORD PTR [ecx-52]
  00c6e	52		 push	 edx
  00c6f	ff 15 00 00 00
	00		 call	 DWORD PTR __imp__GetWindowLongA@8
  00c75	89 45 e8	 mov	 DWORD PTR _lExStyle$[ebp], eax

; 155  : 	lExStyle |= WS_EX_APPWINDOW; 

  00c78	8b 45 e8	 mov	 eax, DWORD PTR _lExStyle$[ebp]
  00c7b	0d 00 00 04 00	 or	 eax, 262144		; 00040000H
  00c80	89 45 e8	 mov	 DWORD PTR _lExStyle$[ebp], eax

; 156  : 	lExStyle &= ~WS_EX_TOOLWINDOW; 

  00c83	8b 4d e8	 mov	 ecx, DWORD PTR _lExStyle$[ebp]
  00c86	81 e1 7f ff ff
	ff		 and	 ecx, -129		; ffffff7fH
  00c8c	89 4d e8	 mov	 DWORD PTR _lExStyle$[ebp], ecx

; 157  : 	::SetWindowLong(m_hWnd, GWL_EXSTYLE, lExStyle);

  00c8f	8b 55 e8	 mov	 edx, DWORD PTR _lExStyle$[ebp]
  00c92	52		 push	 edx
  00c93	6a ec		 push	 -20			; ffffffecH
  00c95	8b 85 3c ff ff
	ff		 mov	 eax, DWORD PTR _this$[ebp]
  00c9b	8b 48 cc	 mov	 ecx, DWORD PTR [eax-52]
  00c9e	51		 push	 ecx
  00c9f	ff 15 00 00 00
	00		 call	 DWORD PTR __imp__SetWindowLongA@12

; 158  : 
; 159  : 	SetParent(m_pWndParent);

  00ca5	8b 95 3c ff ff
	ff		 mov	 edx, DWORD PTR _this$[ebp]
  00cab	8b 82 84 00 00
	00		 mov	 eax, DWORD PTR [edx+132]
  00cb1	50		 push	 eax
  00cb2	8b 8d 3c ff ff
	ff		 mov	 ecx, DWORD PTR _this$[ebp]
  00cb8	83 e9 54	 sub	 ecx, 84			; 00000054H
  00cbb	e8 00 00 00 00	 call	 ?SetParent@CWnd@@QAEPAV1@PAV1@@Z ; CWnd::SetParent

; 160  : 	MoveWindow(&m_rectBeforeFull);

  00cc0	6a 01		 push	 1
  00cc2	8b 8d 3c ff ff
	ff		 mov	 ecx, DWORD PTR _this$[ebp]
  00cc8	83 c1 64	 add	 ecx, 100		; 00000064H
  00ccb	51		 push	 ecx
  00ccc	8b 8d 3c ff ff
	ff		 mov	 ecx, DWORD PTR _this$[ebp]
  00cd2	83 e9 54	 sub	 ecx, 84			; 00000054H
  00cd5	e8 00 00 00 00	 call	 ?MoveWindow@CWnd@@QAEXPBUtagRECT@@H@Z ; CWnd::MoveWindow

; 161  : 
; 162  : 	if(m_isMainWindowTopMost)

  00cda	8b 95 3c ff ff
	ff		 mov	 edx, DWORD PTR _this$[ebp]
  00ce0	0f b6 42 60	 movzx	 eax, BYTE PTR [edx+96]
  00ce4	85 c0		 test	 eax, eax
  00ce6	74 1a		 je	 SHORT $L199843

; 163  : 	{
; 164  : 		SetMainWindow(true);

  00ce8	6a 01		 push	 1
  00cea	8b 8d 3c ff ff
	ff		 mov	 ecx, DWORD PTR _this$[ebp]
  00cf0	83 e9 54	 sub	 ecx, 84			; 00000054H
  00cf3	e8 00 00 00 00	 call	 ?SetMainWindow@WebGamePanelWnd@@QAEX_N@Z ; WebGamePanelWnd::SetMainWindow

; 165  : 		m_isMainWindowTopMost = false;

  00cf8	8b 8d 3c ff ff
	ff		 mov	 ecx, DWORD PTR _this$[ebp]
  00cfe	c6 41 60 00	 mov	 BYTE PTR [ecx+96], 0
$L199843:

; 166  : 	}
; 167  : 
; 168  : 	bool bHold = false;

  00d02	c6 45 f3 00	 mov	 BYTE PTR _bHold$[ebp], 0

; 169  : 	AfxGetUserConfig()->GetConfigBoolValue( CONF_APP_MODULE_NAME,CONF_APP_MAINWND_HOLD,bHold);

  00d06	8b 15 00 00 00
	00		 mov	 edx, DWORD PTR _CONF_APP_MAINWND_HOLD
  00d0c	52		 push	 edx
  00d0d	8d 4d 94	 lea	 ecx, DWORD PTR $T200788[ebp]
  00d10	ff 15 00 00 00
	00		 call	 DWORD PTR __imp_??0?$basic_string@DU?$char_traits@D@std@@V?$allocator@D@2@@std@@QAE@PBD@Z
  00d16	c7 45 fc 02 00
	00 00		 mov	 DWORD PTR __$EHRec$[ebp+8], 2
  00d1d	a1 00 00 00 00	 mov	 eax, DWORD PTR _CONF_APP_MODULE_NAME
  00d22	50		 push	 eax
  00d23	8d 8d 78 ff ff
	ff		 lea	 ecx, DWORD PTR $T200789[ebp]
  00d29	ff 15 00 00 00
	00		 call	 DWORD PTR __imp_??0?$basic_string@DU?$char_traits@D@std@@V?$allocator@D@2@@std@@QAE@PBD@Z
  00d2f	c6 45 fc 03	 mov	 BYTE PTR __$EHRec$[ebp+8], 3
  00d33	8d 4d f3	 lea	 ecx, DWORD PTR _bHold$[ebp]
  00d36	51		 push	 ecx
  00d37	8d 55 94	 lea	 edx, DWORD PTR $T200788[ebp]
  00d3a	52		 push	 edx
  00d3b	8d 85 78 ff ff
	ff		 lea	 eax, DWORD PTR $T200789[ebp]
  00d41	50		 push	 eax
  00d42	e8 00 00 00 00	 call	 ?AfxGetUserConfig@@YAPAVAfxUserConfig@@XZ ; AfxGetUserConfig
  00d47	8b c8		 mov	 ecx, eax
  00d49	e8 00 00 00 00	 call	 ?GetConfigBoolValue@AfxUserConfig@@QAEXABV?$basic_string@DU?$char_traits@D@std@@V?$allocator@D@2@@std@@0AA_N@Z ; AfxUserConfig::GetConfigBoolValue
  00d4e	c6 45 fc 02	 mov	 BYTE PTR __$EHRec$[ebp+8], 2
  00d52	8d 8d 78 ff ff
	ff		 lea	 ecx, DWORD PTR $T200789[ebp]
  00d58	ff 15 00 00 00
	00		 call	 DWORD PTR __imp_??1?$basic_string@DU?$char_traits@D@std@@V?$allocator@D@2@@std@@QAE@XZ
  00d5e	c7 45 fc ff ff
	ff ff		 mov	 DWORD PTR __$EHRec$[ebp+8], -1
  00d65	8d 4d 94	 lea	 ecx, DWORD PTR $T200788[ebp]
  00d68	ff 15 00 00 00
	00		 call	 DWORD PTR __imp_??1?$basic_string@DU?$char_traits@D@std@@V?$allocator@D@2@@std@@QAE@XZ

; 170  : 	if( bHold )

  00d6e	0f b6 4d f3	 movzx	 ecx, BYTE PTR _bHold$[ebp]
  00d72	85 c9		 test	 ecx, ecx
  00d74	74 1d		 je	 SHORT $L199847

; 171  : 	{
; 172  : 		AfxGetMainWindow()->SetWindowPos(&wndTopMost,-1,-1,-1,-1, SWP_NOSIZE|SWP_NOMOVE);

  00d76	6a 03		 push	 3
  00d78	6a ff		 push	 -1
  00d7a	6a ff		 push	 -1
  00d7c	6a ff		 push	 -1
  00d7e	6a ff		 push	 -1
  00d80	8b 15 00 00 00
	00		 mov	 edx, DWORD PTR __imp_?wndTopMost@CWnd@@2V1@B
  00d86	52		 push	 edx
  00d87	e8 00 00 00 00	 call	 ?AfxGetMainWindow@@YAPAVCWnd@@XZ ; AfxGetMainWindow
  00d8c	8b c8		 mov	 ecx, eax
  00d8e	e8 00 00 00 00	 call	 ?SetWindowPos@CWnd@@QAEHPBV1@HHHHI@Z ; CWnd::SetWindowPos
$L199847:

; 173  : 	}
; 174  : 	YL_Log("WebGamePanelWnd.txt", LOG_DEBUG, "WebGamePanelWnd::IPanelChangeOb_ExitFullScreen", "===OUT");

  00d93	68 00 00 00 00	 push	 OFFSET FLAT:$SG199851
  00d98	8d 8d 5c ff ff
	ff		 lea	 ecx, DWORD PTR $T200790[ebp]
  00d9e	ff 15 00 00 00
	00		 call	 DWORD PTR __imp_??0?$basic_string@DU?$char_traits@D@std@@V?$allocator@D@2@@std@@QAE@PBD@Z
  00da4	c7 45 fc 04 00
	00 00		 mov	 DWORD PTR __$EHRec$[ebp+8], 4
  00dab	68 00 00 00 00	 push	 OFFSET FLAT:$SG199852
  00db0	8d 8d 40 ff ff
	ff		 lea	 ecx, DWORD PTR $T200791[ebp]
  00db6	ff 15 00 00 00
	00		 call	 DWORD PTR __imp_??0?$basic_string@DU?$char_traits@D@std@@V?$allocator@D@2@@std@@QAE@PBD@Z
  00dbc	c6 45 fc 05	 mov	 BYTE PTR __$EHRec$[ebp+8], 5
  00dc0	68 00 00 00 00	 push	 OFFSET FLAT:$SG199850
  00dc5	8d 85 5c ff ff
	ff		 lea	 eax, DWORD PTR $T200790[ebp]
  00dcb	50		 push	 eax
  00dcc	6a 00		 push	 0
  00dce	8d 8d 40 ff ff
	ff		 lea	 ecx, DWORD PTR $T200791[ebp]
  00dd4	51		 push	 ecx
  00dd5	ff 15 00 00 00
	00		 call	 DWORD PTR __imp_?YL_Log@@YAXABV?$basic_string@DU?$char_traits@D@std@@V?$allocator@D@2@@std@@H0PBDZZ
  00ddb	83 c4 10	 add	 esp, 16			; 00000010H
  00dde	c6 45 fc 04	 mov	 BYTE PTR __$EHRec$[ebp+8], 4
  00de2	8d 8d 40 ff ff
	ff		 lea	 ecx, DWORD PTR $T200791[ebp]
  00de8	ff 15 00 00 00
	00		 call	 DWORD PTR __imp_??1?$basic_string@DU?$char_traits@D@std@@V?$allocator@D@2@@std@@QAE@XZ
  00dee	c7 45 fc ff ff
	ff ff		 mov	 DWORD PTR __$EHRec$[ebp+8], -1
  00df5	8d 8d 5c ff ff
	ff		 lea	 ecx, DWORD PTR $T200790[ebp]
  00dfb	ff 15 00 00 00
	00		 call	 DWORD PTR __imp_??1?$basic_string@DU?$char_traits@D@std@@V?$allocator@D@2@@std@@QAE@XZ
$L199834:

; 175  : }

  00e01	8b 4d f4	 mov	 ecx, DWORD PTR __$EHRec$[ebp]
  00e04	64 89 0d 00 00
	00 00		 mov	 DWORD PTR fs:__except_list, ecx
  00e0b	8b e5		 mov	 esp, ebp
  00e0d	5d		 pop	 ebp
  00e0e	c2 04 00	 ret	 4
_TEXT	ENDS
text$x	SEGMENT
$L200792:
  00182	8d 4d cc	 lea	 ecx, DWORD PTR $T200786[ebp]
  00185	ff 25 00 00 00
	00		 jmp	 DWORD PTR __imp_??1?$basic_string@DU?$char_traits@D@std@@V?$allocator@D@2@@std@@QAE@XZ
$L200793:
  0018b	8d 4d b0	 lea	 ecx, DWORD PTR $T200787[ebp]
  0018e	ff 25 00 00 00
	00		 jmp	 DWORD PTR __imp_??1?$basic_string@DU?$char_traits@D@std@@V?$allocator@D@2@@std@@QAE@XZ
$L200794:
  00194	8d 4d 94	 lea	 ecx, DWORD PTR $T200788[ebp]
  00197	ff 25 00 00 00
	00		 jmp	 DWORD PTR __imp_??1?$basic_string@DU?$char_traits@D@std@@V?$allocator@D@2@@std@@QAE@XZ
$L200795:
  0019d	8d 8d 78 ff ff
	ff		 lea	 ecx, DWORD PTR $T200789[ebp]
  001a3	ff 25 00 00 00
	00		 jmp	 DWORD PTR __imp_??1?$basic_string@DU?$char_traits@D@std@@V?$allocator@D@2@@std@@QAE@XZ
$L200796:
  001a9	8d 8d 5c ff ff
	ff		 lea	 ecx, DWORD PTR $T200790[ebp]
  001af	ff 25 00 00 00
	00		 jmp	 DWORD PTR __imp_??1?$basic_string@DU?$char_traits@D@std@@V?$allocator@D@2@@std@@QAE@XZ
$L200797:
  001b5	8d 8d 40 ff ff
	ff		 lea	 ecx, DWORD PTR $T200791[ebp]
  001bb	ff 25 00 00 00
	00		 jmp	 DWORD PTR __imp_??1?$basic_string@DU?$char_traits@D@std@@V?$allocator@D@2@@std@@QAE@XZ
__ehhandler$?IPanelChangeOb_ExitFullScreen@WebGamePanelWnd@@UAEXPAVCWnd@@@Z:
  001c1	b8 00 00 00 00	 mov	 eax, OFFSET FLAT:$T200799
  001c6	e9 00 00 00 00	 jmp	 ___CxxFrameHandler
text$x	ENDS
?IPanelChangeOb_ExitFullScreen@WebGamePanelWnd@@UAEXPAVCWnd@@@Z ENDP ; WebGamePanelWnd::IPanelChangeOb_ExitFullScreen
; Function compile flags: /Odt
_TEXT	SEGMENT
_this$ = -4						; size = 4
_pDC$ = 8						; size = 4
?OnEraseBkgnd@WebGamePanelWnd@@IAEHPAVCDC@@@Z PROC NEAR	; WebGamePanelWnd::OnEraseBkgnd
; _this$ = ecx

; 178  : {

  00e20	55		 push	 ebp
  00e21	8b ec		 mov	 ebp, esp
  00e23	51		 push	 ecx
  00e24	89 4d fc	 mov	 DWORD PTR _this$[ebp], ecx

; 179  : 	return TRUE;

  00e27	b8 01 00 00 00	 mov	 eax, 1

; 180  : }

  00e2c	8b e5		 mov	 esp, ebp
  00e2e	5d		 pop	 ebp
  00e2f	c2 04 00	 ret	 4
?OnEraseBkgnd@WebGamePanelWnd@@IAEHPAVCDC@@@Z ENDP	; WebGamePanelWnd::OnEraseBkgnd
_TEXT	ENDS
PUBLIC	?Recycle@WebGamePanelWnd@@QAEXXZ		; WebGamePanelWnd::Recycle
; Function compile flags: /Odt
_TEXT	SEGMENT
_this$ = -4						; size = 4
?Recycle@WebGamePanelWnd@@QAEXXZ PROC NEAR		; WebGamePanelWnd::Recycle
; _this$ = ecx

; 183  : {

  00e40	55		 push	 ebp
  00e41	8b ec		 mov	 ebp, esp
  00e43	51		 push	 ecx
  00e44	89 4d fc	 mov	 DWORD PTR _this$[ebp], ecx

; 184  : 	Init();

  00e47	8b 4d fc	 mov	 ecx, DWORD PTR _this$[ebp]
  00e4a	e8 00 00 00 00	 call	 ?Init@WebGamePanelWnd@@QAEXXZ ; WebGamePanelWnd::Init

; 185  : }

  00e4f	8b e5		 mov	 esp, ebp
  00e51	5d		 pop	 ebp
  00e52	c3		 ret	 0
?Recycle@WebGamePanelWnd@@QAEXXZ ENDP			; WebGamePanelWnd::Recycle
; Function compile flags: /Odt
_TEXT	ENDS
;	COMDAT ??_EWebGamePanelWnd@@WFE@AEPAXI@Z
_TEXT	SEGMENT
??_EWebGamePanelWnd@@WFE@AEPAXI@Z PROC NEAR		; [thunk]:WebGamePanelWnd::`vector deleting destructor', COMDAT
  00000	83 e9 54	 sub	 ecx, 84			; 00000054H
  00003	e9 00 00 00 00	 jmp	 ??_EWebGamePanelWnd@@UAEPAXI@Z
??_EWebGamePanelWnd@@WFE@AEPAXI@Z ENDP			; [thunk]:WebGamePanelWnd::`vector deleting destructor'
; Function compile flags: /Odt
; File d:\program files (x86)\microsoft visual studio .net 2003\vc7\atlmfc\include\atltypes.inl
_TEXT	ENDS
;	COMDAT ??0CRect@@QAE@XZ
_TEXT	SEGMENT
_this$ = -4						; size = 4
??0CRect@@QAE@XZ PROC NEAR				; CRect::CRect, COMDAT
; _this$ = ecx

; 110  : 	{ /* random filled */ }

  00000	55		 push	 ebp
  00001	8b ec		 mov	 ebp, esp
  00003	51		 push	 ecx
  00004	89 4d fc	 mov	 DWORD PTR _this$[ebp], ecx
  00007	8b 45 fc	 mov	 eax, DWORD PTR _this$[ebp]
  0000a	8b e5		 mov	 esp, ebp
  0000c	5d		 pop	 ebp
  0000d	c3		 ret	 0
??0CRect@@QAE@XZ ENDP					; CRect::CRect
; Function compile flags: /Odt
_TEXT	ENDS
;	COMDAT ??0CRect@@QAE@HHHH@Z
_TEXT	SEGMENT
_this$ = -4						; size = 4
_l$ = 8							; size = 4
_t$ = 12						; size = 4
_r$ = 16						; size = 4
_b$ = 20						; size = 4
??0CRect@@QAE@HHHH@Z PROC NEAR				; CRect::CRect, COMDAT
; _this$ = ecx

; 112  : 	{ left = l; top = t; right = r; bottom = b; }

  00000	55		 push	 ebp
  00001	8b ec		 mov	 ebp, esp
  00003	51		 push	 ecx
  00004	89 4d fc	 mov	 DWORD PTR _this$[ebp], ecx
  00007	8b 45 fc	 mov	 eax, DWORD PTR _this$[ebp]
  0000a	8b 4d 08	 mov	 ecx, DWORD PTR _l$[ebp]
  0000d	89 08		 mov	 DWORD PTR [eax], ecx
  0000f	8b 55 fc	 mov	 edx, DWORD PTR _this$[ebp]
  00012	8b 45 0c	 mov	 eax, DWORD PTR _t$[ebp]
  00015	89 42 04	 mov	 DWORD PTR [edx+4], eax
  00018	8b 4d fc	 mov	 ecx, DWORD PTR _this$[ebp]
  0001b	8b 55 10	 mov	 edx, DWORD PTR _r$[ebp]
  0001e	89 51 08	 mov	 DWORD PTR [ecx+8], edx
  00021	8b 45 fc	 mov	 eax, DWORD PTR _this$[ebp]
  00024	8b 4d 14	 mov	 ecx, DWORD PTR _b$[ebp]
  00027	89 48 0c	 mov	 DWORD PTR [eax+12], ecx
  0002a	8b 45 fc	 mov	 eax, DWORD PTR _this$[ebp]
  0002d	8b e5		 mov	 esp, ebp
  0002f	5d		 pop	 ebp
  00030	c2 10 00	 ret	 16			; 00000010H
??0CRect@@QAE@HHHH@Z ENDP				; CRect::CRect
; Function compile flags: /Odt
_TEXT	ENDS
;	COMDAT ?Width@CRect@@QBEHXZ
_TEXT	SEGMENT
_this$ = -4						; size = 4
?Width@CRect@@QBEHXZ PROC NEAR				; CRect::Width, COMDAT
; _this$ = ecx

; 123  : 	{ return right - left; }

  00000	55		 push	 ebp
  00001	8b ec		 mov	 ebp, esp
  00003	51		 push	 ecx
  00004	89 4d fc	 mov	 DWORD PTR _this$[ebp], ecx
  00007	8b 45 fc	 mov	 eax, DWORD PTR _this$[ebp]
  0000a	8b 4d fc	 mov	 ecx, DWORD PTR _this$[ebp]
  0000d	8b 40 08	 mov	 eax, DWORD PTR [eax+8]
  00010	2b 01		 sub	 eax, DWORD PTR [ecx]
  00012	8b e5		 mov	 esp, ebp
  00014	5d		 pop	 ebp
  00015	c3		 ret	 0
?Width@CRect@@QBEHXZ ENDP				; CRect::Width
; Function compile flags: /Odt
_TEXT	ENDS
;	COMDAT ?Height@CRect@@QBEHXZ
_TEXT	SEGMENT
_this$ = -4						; size = 4
?Height@CRect@@QBEHXZ PROC NEAR				; CRect::Height, COMDAT
; _this$ = ecx

; 125  : 	{ return bottom - top; }

  00000	55		 push	 ebp
  00001	8b ec		 mov	 ebp, esp
  00003	51		 push	 ecx
  00004	89 4d fc	 mov	 DWORD PTR _this$[ebp], ecx
  00007	8b 45 fc	 mov	 eax, DWORD PTR _this$[ebp]
  0000a	8b 4d fc	 mov	 ecx, DWORD PTR _this$[ebp]
  0000d	8b 40 0c	 mov	 eax, DWORD PTR [eax+12]
  00010	2b 41 04	 sub	 eax, DWORD PTR [ecx+4]
  00013	8b e5		 mov	 esp, ebp
  00015	5d		 pop	 ebp
  00016	c3		 ret	 0
?Height@CRect@@QBEHXZ ENDP				; CRect::Height
; Function compile flags: /Odt
; File d:\program files (x86)\microsoft visual studio .net 2003\vc7\atlmfc\include\afx.inl
_TEXT	ENDS
;	COMDAT ?Serialize@CObject@@UAEXAAVCArchive@@@Z
_TEXT	SEGMENT
_this$ = -4						; size = 4
___formal$ = 8						; size = 4
?Serialize@CObject@@UAEXAAVCArchive@@@Z PROC NEAR	; CObject::Serialize, COMDAT
; _this$ = ecx

; 25   : 	{ /* CObject does not serialize anything by default */ }

  00000	55		 push	 ebp
  00001	8b ec		 mov	 ebp, esp
  00003	51		 push	 ecx
  00004	89 4d fc	 mov	 DWORD PTR _this$[ebp], ecx
  00007	8b e5		 mov	 esp, ebp
  00009	5d		 pop	 ebp
  0000a	c2 04 00	 ret	 4
?Serialize@CObject@@UAEXAAVCArchive@@@Z ENDP		; CObject::Serialize
; Function compile flags: /Odt
_TEXT	ENDS
;	COMDAT ??3CObject@@SGXPAX@Z
_TEXT	SEGMENT
_p$ = 8							; size = 4
??3CObject@@SGXPAX@Z PROC NEAR				; CObject::operator delete, COMDAT

; 31   : 	{ ::operator delete(p); }

  00000	55		 push	 ebp
  00001	8b ec		 mov	 ebp, esp
  00003	8b 45 08	 mov	 eax, DWORD PTR _p$[ebp]
  00006	50		 push	 eax
  00007	e8 00 00 00 00	 call	 ??3@YAXPAX@Z		; operator delete
  0000c	83 c4 04	 add	 esp, 4
  0000f	5d		 pop	 ebp
  00010	c2 04 00	 ret	 4
??3CObject@@SGXPAX@Z ENDP				; CObject::operator delete
_TEXT	ENDS
EXTRN	??2@YAPAXI@Z:NEAR				; operator new
; Function compile flags: /Odt
;	COMDAT ??2CObject@@SGPAXI@Z
_TEXT	SEGMENT
_nSize$ = 8						; size = 4
??2CObject@@SGPAXI@Z PROC NEAR				; CObject::operator new, COMDAT

; 37   : 	{ return ::operator new(nSize); }

  00000	55		 push	 ebp
  00001	8b ec		 mov	 ebp, esp
  00003	8b 45 08	 mov	 eax, DWORD PTR _nSize$[ebp]
  00006	50		 push	 eax
  00007	e8 00 00 00 00	 call	 ??2@YAPAXI@Z		; operator new
  0000c	83 c4 04	 add	 esp, 4
  0000f	5d		 pop	 ebp
  00010	c2 04 00	 ret	 4
??2CObject@@SGPAXI@Z ENDP				; CObject::operator new
; Function compile flags: /Odt
_TEXT	ENDS
;	COMDAT ?AssertValid@CObject@@UBEXXZ
_TEXT	SEGMENT
_this$ = -4						; size = 4
?AssertValid@CObject@@UBEXXZ PROC NEAR			; CObject::AssertValid, COMDAT
; _this$ = ecx

; 41   : 	{ /* no asserts in release builds */ }

  00000	55		 push	 ebp
  00001	8b ec		 mov	 ebp, esp
  00003	51		 push	 ecx
  00004	89 4d fc	 mov	 DWORD PTR _this$[ebp], ecx
  00007	8b e5		 mov	 esp, ebp
  00009	5d		 pop	 ebp
  0000a	c3		 ret	 0
?AssertValid@CObject@@UBEXXZ ENDP			; CObject::AssertValid
; Function compile flags: /Odt
_TEXT	ENDS
;	COMDAT ?Dump@CObject@@UBEXAAVCDumpContext@@@Z
_TEXT	SEGMENT
_this$ = -4						; size = 4
___formal$ = 8						; size = 4
?Dump@CObject@@UBEXAAVCDumpContext@@@Z PROC NEAR	; CObject::Dump, COMDAT
; _this$ = ecx

; 43   : 	{ /* no dumping in release builds */ }

  00000	55		 push	 ebp
  00001	8b ec		 mov	 ebp, esp
  00003	51		 push	 ecx
  00004	89 4d fc	 mov	 DWORD PTR _this$[ebp], ecx
  00007	8b e5		 mov	 esp, ebp
  00009	5d		 pop	 ebp
  0000a	c2 04 00	 ret	 4
?Dump@CObject@@UBEXAAVCDumpContext@@@Z ENDP		; CObject::Dump
_TEXT	ENDS
EXTRN	?MoveWindow@CWnd@@QAEXHHHHH@Z:NEAR		; CWnd::MoveWindow
; Function compile flags: /Odt
; File d:\program files (x86)\microsoft visual studio .net 2003\vc7\atlmfc\include\afxwin2.inl
;	COMDAT ?MoveWindow@CWnd@@QAEXPBUtagRECT@@H@Z
_TEXT	SEGMENT
_this$ = -4						; size = 4
_lpRect$ = 8						; size = 4
_bRepaint$ = 12						; size = 4
?MoveWindow@CWnd@@QAEXPBUtagRECT@@H@Z PROC NEAR		; CWnd::MoveWindow, COMDAT
; _this$ = ecx

; 89   : 	{ MoveWindow(lpRect->left, lpRect->top, lpRect->right - lpRect->left,

  00000	55		 push	 ebp
  00001	8b ec		 mov	 ebp, esp
  00003	51		 push	 ecx
  00004	89 4d fc	 mov	 DWORD PTR _this$[ebp], ecx

; 90   : 		lpRect->bottom - lpRect->top, bRepaint); }

  00007	8b 45 0c	 mov	 eax, DWORD PTR _bRepaint$[ebp]
  0000a	50		 push	 eax
  0000b	8b 4d 08	 mov	 ecx, DWORD PTR _lpRect$[ebp]
  0000e	8b 55 08	 mov	 edx, DWORD PTR _lpRect$[ebp]
  00011	8b 41 0c	 mov	 eax, DWORD PTR [ecx+12]
  00014	2b 42 04	 sub	 eax, DWORD PTR [edx+4]
  00017	50		 push	 eax
  00018	8b 4d 08	 mov	 ecx, DWORD PTR _lpRect$[ebp]
  0001b	8b 55 08	 mov	 edx, DWORD PTR _lpRect$[ebp]
  0001e	8b 41 08	 mov	 eax, DWORD PTR [ecx+8]
  00021	2b 02		 sub	 eax, DWORD PTR [edx]
  00023	50		 push	 eax
  00024	8b 4d 08	 mov	 ecx, DWORD PTR _lpRect$[ebp]
  00027	8b 51 04	 mov	 edx, DWORD PTR [ecx+4]
  0002a	52		 push	 edx
  0002b	8b 45 08	 mov	 eax, DWORD PTR _lpRect$[ebp]
  0002e	8b 08		 mov	 ecx, DWORD PTR [eax]
  00030	51		 push	 ecx
  00031	8b 4d fc	 mov	 ecx, DWORD PTR _this$[ebp]
  00034	e8 00 00 00 00	 call	 ?MoveWindow@CWnd@@QAEXHHHHH@Z ; CWnd::MoveWindow
  00039	8b e5		 mov	 esp, ebp
  0003b	5d		 pop	 ebp
  0003c	c2 08 00	 ret	 8
?MoveWindow@CWnd@@QAEXPBUtagRECT@@H@Z ENDP		; CWnd::MoveWindow
_TEXT	ENDS
EXTRN	__imp__GetWindowRect@8:NEAR
; Function compile flags: /Odt
;	COMDAT ?GetWindowRect@CWnd@@QBEXPAUtagRECT@@@Z
_TEXT	SEGMENT
_this$ = -4						; size = 4
_lpRect$ = 8						; size = 4
?GetWindowRect@CWnd@@QBEXPAUtagRECT@@@Z PROC NEAR	; CWnd::GetWindowRect, COMDAT
; _this$ = ecx

; 105  : 	{ ASSERT(::IsWindow(m_hWnd)); ::GetWindowRect(m_hWnd, lpRect); }

  00000	55		 push	 ebp
  00001	8b ec		 mov	 ebp, esp
  00003	51		 push	 ecx
  00004	89 4d fc	 mov	 DWORD PTR _this$[ebp], ecx
  00007	8b 45 08	 mov	 eax, DWORD PTR _lpRect$[ebp]
  0000a	50		 push	 eax
  0000b	8b 4d fc	 mov	 ecx, DWORD PTR _this$[ebp]
  0000e	8b 51 20	 mov	 edx, DWORD PTR [ecx+32]
  00011	52		 push	 edx
  00012	ff 15 00 00 00
	00		 call	 DWORD PTR __imp__GetWindowRect@8
  00018	8b e5		 mov	 esp, ebp
  0001a	5d		 pop	 ebp
  0001b	c2 04 00	 ret	 4
?GetWindowRect@CWnd@@QBEXPAUtagRECT@@@Z ENDP		; CWnd::GetWindowRect
_TEXT	ENDS
EXTRN	__imp__GetDesktopWindow@0:NEAR
EXTRN	?FromHandle@CWnd@@SGPAV1@PAUHWND__@@@Z:NEAR	; CWnd::FromHandle
; Function compile flags: /Odt
;	COMDAT ?GetDesktopWindow@CWnd@@SGPAV1@XZ
_TEXT	SEGMENT
?GetDesktopWindow@CWnd@@SGPAV1@XZ PROC NEAR		; CWnd::GetDesktopWindow, COMDAT

; 207  : 	{ return CWnd::FromHandle(::GetDesktopWindow()); }

  00000	55		 push	 ebp
  00001	8b ec		 mov	 ebp, esp
  00003	ff 15 00 00 00
	00		 call	 DWORD PTR __imp__GetDesktopWindow@0
  00009	50		 push	 eax
  0000a	e8 00 00 00 00	 call	 ?FromHandle@CWnd@@SGPAV1@PAUHWND__@@@Z ; CWnd::FromHandle
  0000f	5d		 pop	 ebp
  00010	c3		 ret	 0
?GetDesktopWindow@CWnd@@SGPAV1@XZ ENDP			; CWnd::GetDesktopWindow
_TEXT	ENDS
EXTRN	__imp__GetParent@4:NEAR
; Function compile flags: /Odt
;	COMDAT ?GetParent@CWnd@@QBEPAV1@XZ
_TEXT	SEGMENT
_this$ = -4						; size = 4
?GetParent@CWnd@@QBEPAV1@XZ PROC NEAR			; CWnd::GetParent, COMDAT
; _this$ = ecx

; 282  : 	{ ASSERT(::IsWindow(m_hWnd)); return CWnd::FromHandle(::GetParent(m_hWnd)); }

  00000	55		 push	 ebp
  00001	8b ec		 mov	 ebp, esp
  00003	51		 push	 ecx
  00004	89 4d fc	 mov	 DWORD PTR _this$[ebp], ecx
  00007	8b 45 fc	 mov	 eax, DWORD PTR _this$[ebp]
  0000a	8b 48 20	 mov	 ecx, DWORD PTR [eax+32]
  0000d	51		 push	 ecx
  0000e	ff 15 00 00 00
	00		 call	 DWORD PTR __imp__GetParent@4
  00014	50		 push	 eax
  00015	e8 00 00 00 00	 call	 ?FromHandle@CWnd@@SGPAV1@PAUHWND__@@@Z ; CWnd::FromHandle
  0001a	8b e5		 mov	 esp, ebp
  0001c	5d		 pop	 ebp
  0001d	c3		 ret	 0
?GetParent@CWnd@@QBEPAV1@XZ ENDP			; CWnd::GetParent
_TEXT	ENDS
PUBLIC	?GetSafeHwnd@CWnd@@QBEPAUHWND__@@XZ		; CWnd::GetSafeHwnd
EXTRN	__imp__SetParent@8:NEAR
; Function compile flags: /Odt
;	COMDAT ?SetParent@CWnd@@QAEPAV1@PAV1@@Z
_TEXT	SEGMENT
_this$ = -4						; size = 4
_pWndNewParent$ = 8					; size = 4
?SetParent@CWnd@@QAEPAV1@PAV1@@Z PROC NEAR		; CWnd::SetParent, COMDAT
; _this$ = ecx

; 284  : 	{ ASSERT(::IsWindow(m_hWnd)); return CWnd::FromHandle(::SetParent(m_hWnd,

  00000	55		 push	 ebp
  00001	8b ec		 mov	 ebp, esp
  00003	51		 push	 ecx
  00004	89 4d fc	 mov	 DWORD PTR _this$[ebp], ecx

; 285  : 			pWndNewParent->GetSafeHwnd())); }

  00007	8b 4d 08	 mov	 ecx, DWORD PTR _pWndNewParent$[ebp]
  0000a	e8 00 00 00 00	 call	 ?GetSafeHwnd@CWnd@@QBEPAUHWND__@@XZ ; CWnd::GetSafeHwnd
  0000f	50		 push	 eax
  00010	8b 45 fc	 mov	 eax, DWORD PTR _this$[ebp]
  00013	8b 48 20	 mov	 ecx, DWORD PTR [eax+32]
  00016	51		 push	 ecx
  00017	ff 15 00 00 00
	00		 call	 DWORD PTR __imp__SetParent@8
  0001d	50		 push	 eax
  0001e	e8 00 00 00 00	 call	 ?FromHandle@CWnd@@SGPAV1@PAUHWND__@@@Z ; CWnd::FromHandle
  00023	8b e5		 mov	 esp, ebp
  00025	5d		 pop	 ebp
  00026	c2 04 00	 ret	 4
?SetParent@CWnd@@QAEPAV1@PAV1@@Z ENDP			; CWnd::SetParent
; Function compile flags: /Odt
_TEXT	ENDS
;	COMDAT ?GetSafeHwnd@CWnd@@QBEPAUHWND__@@XZ
_TEXT	SEGMENT
tv66 = -8						; size = 4
_this$ = -4						; size = 4
?GetSafeHwnd@CWnd@@QBEPAUHWND__@@XZ PROC NEAR		; CWnd::GetSafeHwnd, COMDAT
; _this$ = ecx

; 27   : 	{ return this == NULL ? NULL : m_hWnd; }

  00000	55		 push	 ebp
  00001	8b ec		 mov	 ebp, esp
  00003	83 ec 08	 sub	 esp, 8
  00006	89 4d fc	 mov	 DWORD PTR _this$[ebp], ecx
  00009	83 7d fc 00	 cmp	 DWORD PTR _this$[ebp], 0
  0000d	75 09		 jne	 SHORT $L200835
  0000f	c7 45 f8 00 00
	00 00		 mov	 DWORD PTR tv66[ebp], 0
  00016	eb 09		 jmp	 SHORT $L200836
$L200835:
  00018	8b 45 fc	 mov	 eax, DWORD PTR _this$[ebp]
  0001b	8b 48 20	 mov	 ecx, DWORD PTR [eax+32]
  0001e	89 4d f8	 mov	 DWORD PTR tv66[ebp], ecx
$L200836:
  00021	8b 45 f8	 mov	 eax, DWORD PTR tv66[ebp]
  00024	8b e5		 mov	 esp, ebp
  00026	5d		 pop	 ebp
  00027	c3		 ret	 0
?GetSafeHwnd@CWnd@@QBEPAUHWND__@@XZ ENDP		; CWnd::GetSafeHwnd
_TEXT	ENDS
EXTRN	?Default@CWnd@@IAEJXZ:NEAR			; CWnd::Default
; Function compile flags: /Odt
;	COMDAT ?OnCreate@CWnd@@IAEHPAUtagCREATESTRUCTA@@@Z
_TEXT	SEGMENT
_this$ = -4						; size = 4
___formal$ = 8						; size = 4
?OnCreate@CWnd@@IAEHPAUtagCREATESTRUCTA@@@Z PROC NEAR	; CWnd::OnCreate, COMDAT
; _this$ = ecx

; 360  : 	{ return (int)Default(); }

  00000	55		 push	 ebp
  00001	8b ec		 mov	 ebp, esp
  00003	51		 push	 ecx
  00004	89 4d fc	 mov	 DWORD PTR _this$[ebp], ecx
  00007	8b 4d fc	 mov	 ecx, DWORD PTR _this$[ebp]
  0000a	e8 00 00 00 00	 call	 ?Default@CWnd@@IAEJXZ	; CWnd::Default
  0000f	8b e5		 mov	 esp, ebp
  00011	5d		 pop	 ebp
  00012	c2 04 00	 ret	 4
?OnCreate@CWnd@@IAEHPAUtagCREATESTRUCTA@@@Z ENDP	; CWnd::OnCreate
; Function compile flags: /Odt
_TEXT	ENDS
;	COMDAT ?DoDataExchange@CWnd@@MAEXPAVCDataExchange@@@Z
_TEXT	SEGMENT
_this$ = -4						; size = 4
___formal$ = 8						; size = 4
?DoDataExchange@CWnd@@MAEXPAVCDataExchange@@@Z PROC NEAR ; CWnd::DoDataExchange, COMDAT
; _this$ = ecx

; 545  : 	{ } // default does nothing

  00000	55		 push	 ebp
  00001	8b ec		 mov	 ebp, esp
  00003	51		 push	 ecx
  00004	89 4d fc	 mov	 DWORD PTR _this$[ebp], ecx
  00007	8b e5		 mov	 esp, ebp
  00009	5d		 pop	 ebp
  0000a	c2 04 00	 ret	 4
?DoDataExchange@CWnd@@MAEXPAVCDataExchange@@@Z ENDP	; CWnd::DoDataExchange
_TEXT	ENDS
EXTRN	__imp__EnableWindow@8:NEAR
; Function compile flags: /Odt
;	COMDAT ?BeginModalState@CWnd@@UAEXXZ
_TEXT	SEGMENT
_this$ = -4						; size = 4
?BeginModalState@CWnd@@UAEXXZ PROC NEAR			; CWnd::BeginModalState, COMDAT
; _this$ = ecx

; 549  : 	{ ::EnableWindow(m_hWnd, FALSE); }

  00000	55		 push	 ebp
  00001	8b ec		 mov	 ebp, esp
  00003	51		 push	 ecx
  00004	89 4d fc	 mov	 DWORD PTR _this$[ebp], ecx
  00007	6a 00		 push	 0
  00009	8b 45 fc	 mov	 eax, DWORD PTR _this$[ebp]
  0000c	8b 48 20	 mov	 ecx, DWORD PTR [eax+32]
  0000f	51		 push	 ecx
  00010	ff 15 00 00 00
	00		 call	 DWORD PTR __imp__EnableWindow@8
  00016	8b e5		 mov	 esp, ebp
  00018	5d		 pop	 ebp
  00019	c3		 ret	 0
?BeginModalState@CWnd@@UAEXXZ ENDP			; CWnd::BeginModalState
; Function compile flags: /Odt
_TEXT	ENDS
;	COMDAT ?EndModalState@CWnd@@UAEXXZ
_TEXT	SEGMENT
_this$ = -4						; size = 4
?EndModalState@CWnd@@UAEXXZ PROC NEAR			; CWnd::EndModalState, COMDAT
; _this$ = ecx

; 551  : 	{ ::EnableWindow(m_hWnd, TRUE); }

  00000	55		 push	 ebp
  00001	8b ec		 mov	 ebp, esp
  00003	51		 push	 ecx
  00004	89 4d fc	 mov	 DWORD PTR _this$[ebp], ecx
  00007	6a 01		 push	 1
  00009	8b 45 fc	 mov	 eax, DWORD PTR _this$[ebp]
  0000c	8b 48 20	 mov	 ecx, DWORD PTR [eax+32]
  0000f	51		 push	 ecx
  00010	ff 15 00 00 00
	00		 call	 DWORD PTR __imp__EnableWindow@8
  00016	8b e5		 mov	 esp, ebp
  00018	5d		 pop	 ebp
  00019	c3		 ret	 0
?EndModalState@CWnd@@UAEXXZ ENDP			; CWnd::EndModalState
; Function compile flags: /Odt
; File d:\boxgit\playbox\playbox\dev\prj\playbox\src\core\imessageobserver.h
_TEXT	ENDS
;	COMDAT ??1IMessageObserver@@UAE@XZ
_TEXT	SEGMENT
_this$ = -4						; size = 4
??1IMessageObserver@@UAE@XZ PROC NEAR			; IMessageObserver::~IMessageObserver, COMDAT
; _this$ = ecx

; 16   : 	virtual ~IMessageObserver(){};

  00000	55		 push	 ebp
  00001	8b ec		 mov	 ebp, esp
  00003	51		 push	 ecx
  00004	89 4d fc	 mov	 DWORD PTR _this$[ebp], ecx
  00007	8b 45 fc	 mov	 eax, DWORD PTR _this$[ebp]
  0000a	c7 00 00 00 00
	00		 mov	 DWORD PTR [eax], OFFSET FLAT:??_7IMessageObserver@@6B@
  00010	8b e5		 mov	 esp, ebp
  00012	5d		 pop	 ebp
  00013	c3		 ret	 0
??1IMessageObserver@@UAE@XZ ENDP			; IMessageObserver::~IMessageObserver
; Function compile flags: /Odt
_TEXT	ENDS
;	COMDAT ??_GIMessageObserver@@UAEPAXI@Z
_TEXT	SEGMENT
_this$ = -4						; size = 4
___flags$ = 8						; size = 4
??_GIMessageObserver@@UAEPAXI@Z PROC NEAR		; IMessageObserver::`scalar deleting destructor', COMDAT
; _this$ = ecx
  00000	55		 push	 ebp
  00001	8b ec		 mov	 ebp, esp
  00003	51		 push	 ecx
  00004	89 4d fc	 mov	 DWORD PTR _this$[ebp], ecx
  00007	8b 4d fc	 mov	 ecx, DWORD PTR _this$[ebp]
  0000a	e8 00 00 00 00	 call	 ??1IMessageObserver@@UAE@XZ ; IMessageObserver::~IMessageObserver
  0000f	8b 45 08	 mov	 eax, DWORD PTR ___flags$[ebp]
  00012	83 e0 01	 and	 eax, 1
  00015	74 0c		 je	 SHORT $L109524
  00017	8b 4d fc	 mov	 ecx, DWORD PTR _this$[ebp]
  0001a	51		 push	 ecx
  0001b	e8 00 00 00 00	 call	 ??3@YAXPAX@Z		; operator delete
  00020	83 c4 04	 add	 esp, 4
$L109524:
  00023	8b 45 fc	 mov	 eax, DWORD PTR _this$[ebp]
  00026	8b e5		 mov	 esp, ebp
  00028	5d		 pop	 ebp
  00029	c2 04 00	 ret	 4
??_GIMessageObserver@@UAEPAXI@Z ENDP			; IMessageObserver::`scalar deleting destructor'
_TEXT	ENDS
CRT$XCU	SEGMENT
_$S6	DD	FLAT:_$E5
; Function compile flags: /Odt
; File d:\boxgit\playbox\playbox\dev\prj\playbox\src\appconfig\config\configappdef.h
CRT$XCU	ENDS
;	COMDAT _$E5
text$yc	SEGMENT
_$E5	PROC NEAR					; COMDAT

; 19   : 	CONF_APP_SWF_PATH,			TYPE_CONFIG_STR,

  00000	55		 push	 ebp
  00001	8b ec		 mov	 ebp, esp
  00003	a1 00 00 00 00	 mov	 eax, DWORD PTR _CONF_APP_SWF_PATH
  00008	a3 00 00 00 00	 mov	 DWORD PTR _CONF_APP, eax
  0000d	8b 0d 00 00 00
	00		 mov	 ecx, DWORD PTR _TYPE_CONFIG_STR
  00013	89 0d 04 00 00
	00		 mov	 DWORD PTR _CONF_APP+4, ecx

; 20   : 	CONF_APP_MAINWND_HOLD,		TYPE_CONFIG_BOOL,

  00019	8b 15 00 00 00
	00		 mov	 edx, DWORD PTR _CONF_APP_MAINWND_HOLD
  0001f	89 15 08 00 00
	00		 mov	 DWORD PTR _CONF_APP+8, edx
  00025	a1 00 00 00 00	 mov	 eax, DWORD PTR _TYPE_CONFIG_BOOL
  0002a	a3 0c 00 00 00	 mov	 DWORD PTR _CONF_APP+12, eax

; 21   : 	CONF_APP_RUN_COUNT,			TYPE_CONFIG_INT,

  0002f	8b 0d 00 00 00
	00		 mov	 ecx, DWORD PTR _CONF_APP_RUN_COUNT
  00035	89 0d 10 00 00
	00		 mov	 DWORD PTR _CONF_APP+16, ecx
  0003b	8b 15 00 00 00
	00		 mov	 edx, DWORD PTR _TYPE_CONFIG_INT
  00041	89 15 14 00 00
	00		 mov	 DWORD PTR _CONF_APP+20, edx

; 22   : 	CONF_APP_PLAYED_GAME,		TYPE_CONFIG_INT,

  00047	a1 00 00 00 00	 mov	 eax, DWORD PTR _CONF_APP_PLAYED_GAME
  0004c	a3 18 00 00 00	 mov	 DWORD PTR _CONF_APP+24, eax
  00051	8b 0d 00 00 00
	00		 mov	 ecx, DWORD PTR _TYPE_CONFIG_INT
  00057	89 0d 1c 00 00
	00		 mov	 DWORD PTR _CONF_APP+28, ecx

; 23   : 	CONF_APP_PLAYED_PC_GAME,	TYPE_CONFIG_INT,

  0005d	8b 15 00 00 00
	00		 mov	 edx, DWORD PTR _CONF_APP_PLAYED_PC_GAME
  00063	89 15 20 00 00
	00		 mov	 DWORD PTR _CONF_APP+32, edx
  00069	a1 00 00 00 00	 mov	 eax, DWORD PTR _TYPE_CONFIG_INT
  0006e	a3 24 00 00 00	 mov	 DWORD PTR _CONF_APP+36, eax

; 24   : 	CONF_APP_PLAYED_ICON_SIZE,	TYPE_CONFIG_INT, //panelicon0,1,2

  00073	8b 0d 00 00 00
	00		 mov	 ecx, DWORD PTR _CONF_APP_PLAYED_ICON_SIZE
  00079	89 0d 28 00 00
	00		 mov	 DWORD PTR _CONF_APP+40, ecx
  0007f	8b 15 00 00 00
	00		 mov	 edx, DWORD PTR _TYPE_CONFIG_INT
  00085	89 15 2c 00 00
	00		 mov	 DWORD PTR _CONF_APP+44, edx

; 25   : 	CONF_APP_PIC_SAVE_PATH,		TYPE_CONFIG_STR

  0008b	a1 00 00 00 00	 mov	 eax, DWORD PTR _CONF_APP_PIC_SAVE_PATH
  00090	a3 30 00 00 00	 mov	 DWORD PTR _CONF_APP+48, eax

; 26   : };

  00095	8b 0d 00 00 00
	00		 mov	 ecx, DWORD PTR _TYPE_CONFIG_STR
  0009b	89 0d 34 00 00
	00		 mov	 DWORD PTR _CONF_APP+52, ecx
  000a1	5d		 pop	 ebp
  000a2	c3		 ret	 0
_$E5	ENDP
text$yc	ENDS
_BSS	SEGMENT
_CONF_APP DD	0eH DUP (?)
_BSS	ENDS
END
