; Listing generated by Microsoft (R) Optimizing Compiler Version 13.10.3077 

	TITLE	.\src\module\WebInteract\WebManager.cpp
	.386P
include listing.inc
if @Version gt 510
.model FLAT
else
_TEXT	SEGMENT PARA USE32 PUBLIC 'CODE'
_TEXT	ENDS
_DATA	SEGMENT DWORD USE32 PUBLIC 'DATA'
_DATA	ENDS
CONST	SEGMENT DWORD USE32 PUBLIC 'CONST'
CONST	ENDS
_BSS	SEGMENT DWORD USE32 PUBLIC 'BSS'
_BSS	ENDS
$$SYMBOLS	SEGMENT BYTE USE32 'DEBSYM'
$$SYMBOLS	ENDS
$$TYPES	SEGMENT BYTE USE32 'DEBTYP'
$$TYPES	ENDS
_TLS	SEGMENT DWORD USE32 PUBLIC 'TLS'
_TLS	ENDS
;	COMDAT ??_C@_0P@CLMBAKJD@JSCall?5Error?3?6?$AA@
CONST	SEGMENT DWORD USE32 PUBLIC 'CONST'
CONST	ENDS
;	COMDAT ??_C@_0BD@OLBABOEK@vector?$DMT?$DO?5too?5long?$AA@
CONST	SEGMENT DWORD USE32 PUBLIC 'CONST'
CONST	ENDS
rdata$r	SEGMENT DWORD USE32 PUBLIC 'CONST'
rdata$r	ENDS
xdata$x	SEGMENT DWORD USE32 PUBLIC 'CONST'
xdata$x	ENDS
text$AFX_COL1	SEGMENT PARA USE32 PUBLIC ''
text$AFX_COL1	ENDS
text$yc	SEGMENT PARA USE32 PUBLIC 'CODE'
text$yc	ENDS
CRT$XCA	SEGMENT DWORD USE32 PUBLIC 'DATA'
CRT$XCA	ENDS
CRT$XCU	SEGMENT DWORD USE32 PUBLIC 'DATA'
CRT$XCU	ENDS
CRT$XCL	SEGMENT DWORD USE32 PUBLIC 'DATA'
CRT$XCL	ENDS
CRT$XCC	SEGMENT DWORD USE32 PUBLIC 'DATA'
CRT$XCC	ENDS
CRT$XCZ	SEGMENT DWORD USE32 PUBLIC 'DATA'
CRT$XCZ	ENDS
text$yd	SEGMENT PARA USE32 PUBLIC 'CODE'
text$yd	ENDS
ATL$__m	SEGMENT DWORD USE32 PUBLIC ''
ATL$__m	ENDS
ATL$__z	SEGMENT DWORD USE32 PUBLIC ''
ATL$__z	ENDS
ATL$__a	SEGMENT DWORD USE32 PUBLIC ''
ATL$__a	ENDS
;	COMDAT ??1CAtlStringMgr@ATL@@UAE@XZ
_TEXT	SEGMENT PARA USE32 PUBLIC 'CODE'
_TEXT	ENDS
;	COMDAT ?Allocate@CAtlStringMgr@ATL@@UAEPAUCStringData@2@HH@Z
_TEXT	SEGMENT PARA USE32 PUBLIC 'CODE'
_TEXT	ENDS
;	COMDAT ?Free@CAtlStringMgr@ATL@@UAEXPAUCStringData@2@@Z
_TEXT	SEGMENT PARA USE32 PUBLIC 'CODE'
_TEXT	ENDS
;	COMDAT ?Reallocate@CAtlStringMgr@ATL@@UAEPAUCStringData@2@PAU32@HH@Z
_TEXT	SEGMENT PARA USE32 PUBLIC 'CODE'
_TEXT	ENDS
;	COMDAT ?GetNilString@CAtlStringMgr@ATL@@UAEPAUCStringData@2@XZ
_TEXT	SEGMENT PARA USE32 PUBLIC 'CODE'
_TEXT	ENDS
;	COMDAT ?Clone@CAtlStringMgr@ATL@@UAEPAUIAtlStringMgr@2@XZ
_TEXT	SEGMENT PARA USE32 PUBLIC 'CODE'
_TEXT	ENDS
;	COMDAT ??_GCAtlStringMgr@ATL@@UAEPAXI@Z
_TEXT	SEGMENT PARA USE32 PUBLIC 'CODE'
_TEXT	ENDS
;	COMDAT ?CompareStringW@?$ChTraitsOS@_W@ATL@@KGHKKPB_WH0H@Z
_TEXT	SEGMENT PARA USE32 PUBLIC 'CODE'
_TEXT	ENDS
;	COMDAT ?GetStringTypeExW@?$ChTraitsOS@_W@ATL@@KGHKKPB_WHPAG@Z
_TEXT	SEGMENT PARA USE32 PUBLIC 'CODE'
_TEXT	ENDS
;	COMDAT ?lstrcmpiW@?$ChTraitsOS@_W@ATL@@KGHPB_W0@Z
_TEXT	SEGMENT PARA USE32 PUBLIC 'CODE'
_TEXT	ENDS
;	COMDAT ?CharLowerW@?$ChTraitsOS@_W@ATL@@KGPA_WPA_W@Z
_TEXT	SEGMENT PARA USE32 PUBLIC 'CODE'
_TEXT	ENDS
;	COMDAT ?CharUpperW@?$ChTraitsOS@_W@ATL@@KGPA_WPA_W@Z
_TEXT	SEGMENT PARA USE32 PUBLIC 'CODE'
_TEXT	ENDS
;	COMDAT ?strchr@?$ChTraitsOS@_W@ATL@@SAPB_WPB_W_W@Z
_TEXT	SEGMENT PARA USE32 PUBLIC 'CODE'
_TEXT	ENDS
;	COMDAT ?strrchr@?$ChTraitsOS@_W@ATL@@SAPB_WPB_W_W@Z
_TEXT	SEGMENT PARA USE32 PUBLIC 'CODE'
_TEXT	ENDS
;	COMDAT ?_strrev@?$ChTraitsOS@_W@ATL@@SAPA_WPA_W@Z
_TEXT	SEGMENT PARA USE32 PUBLIC 'CODE'
_TEXT	ENDS
;	COMDAT ?strstr@?$ChTraitsOS@_W@ATL@@SAPB_WPB_W0@Z
_TEXT	SEGMENT PARA USE32 PUBLIC 'CODE'
_TEXT	ENDS
;	COMDAT ?strspn@?$ChTraitsOS@_W@ATL@@SAHPB_W0@Z
_TEXT	SEGMENT PARA USE32 PUBLIC 'CODE'
_TEXT	ENDS
;	COMDAT ?strcspn@?$ChTraitsOS@_W@ATL@@SAHPB_W0@Z
_TEXT	SEGMENT PARA USE32 PUBLIC 'CODE'
_TEXT	ENDS
;	COMDAT ?strpbrk@?$ChTraitsOS@_W@ATL@@SAPB_WPB_W0@Z
_TEXT	SEGMENT PARA USE32 PUBLIC 'CODE'
_TEXT	ENDS
;	COMDAT ?StringFindString@?$ChTraitsOS@_W@ATL@@SAPB_WPB_W0@Z
_TEXT	SEGMENT PARA USE32 PUBLIC 'CODE'
_TEXT	ENDS
;	COMDAT ??1IData@@MAE@XZ
_TEXT	SEGMENT PARA USE32 PUBLIC 'CODE'
_TEXT	ENDS
;	COMDAT ?DataAppStart@IData@@UAEXXZ
_TEXT	SEGMENT PARA USE32 PUBLIC 'CODE'
_TEXT	ENDS
;	COMDAT ?DataAppExit@IData@@UAEXXZ
_TEXT	SEGMENT PARA USE32 PUBLIC 'CODE'
_TEXT	ENDS
;	COMDAT ??_GIData@@MAEPAXI@Z
_TEXT	SEGMENT PARA USE32 PUBLIC 'CODE'
_TEXT	ENDS
;	COMDAT ??0OneLocalGame@@QAE@XZ
_TEXT	SEGMENT PARA USE32 PUBLIC 'CODE'
_TEXT	ENDS
;	COMDAT ?clear@OneLocalGame@@QAEXXZ
_TEXT	SEGMENT PARA USE32 PUBLIC 'CODE'
_TEXT	ENDS
;	COMDAT ?GetClsid@CShockwaveFlash@@QAEABU_GUID@@XZ
_TEXT	SEGMENT PARA USE32 PUBLIC 'CODE'
_TEXT	ENDS
;	COMDAT ??0CCustomControlSite@@QAE@PAVCOleControlContainer@@@Z
_TEXT	SEGMENT PARA USE32 PUBLIC 'CODE'
_TEXT	ENDS
;	COMDAT ??_GCCustomControlSite@@UAEPAXI@Z
_TEXT	SEGMENT PARA USE32 PUBLIC 'CODE'
_TEXT	ENDS
;	COMDAT ??0XDocHostShowUI@CCustomControlSite@@QAE@XZ
_TEXT	SEGMENT PARA USE32 PUBLIC 'CODE'
_TEXT	ENDS
;	COMDAT ??0XDocHostUIHandler@CCustomControlSite@@QAE@XZ
_TEXT	SEGMENT PARA USE32 PUBLIC 'CODE'
_TEXT	ENDS
;	COMDAT ??1CCustomControlSite@@UAE@XZ
_TEXT	SEGMENT PARA USE32 PUBLIC 'CODE'
_TEXT	ENDS
;	COMDAT ??0IDocHostShowUI@@QAE@XZ
_TEXT	SEGMENT PARA USE32 PUBLIC 'CODE'
_TEXT	ENDS
;	COMDAT ??0IDocHostUIHandler@@QAE@XZ
_TEXT	SEGMENT PARA USE32 PUBLIC 'CODE'
_TEXT	ENDS
;	COMDAT ?CreateSite@CCustomOccManager@@UAEPAVCOleControlSite@@PAVCOleControlContainer@@@Z
_TEXT	SEGMENT PARA USE32 PUBLIC 'CODE'
_TEXT	ENDS
;	COMDAT ??_GCCustomOccManager@@UAEPAXI@Z
_TEXT	SEGMENT PARA USE32 PUBLIC 'CODE'
_TEXT	ENDS
;	COMDAT ??0COccManager@@QAE@XZ
_TEXT	SEGMENT PARA USE32 PUBLIC 'CODE'
_TEXT	ENDS
;	COMDAT ??1COccManager@@UAE@XZ
_TEXT	SEGMENT PARA USE32 PUBLIC 'CODE'
_TEXT	ENDS
;	COMDAT ??1CCustomOccManager@@UAE@XZ
_TEXT	SEGMENT PARA USE32 PUBLIC 'CODE'
_TEXT	ENDS
;	COMDAT ??_GCOccManager@@UAEPAXI@Z
_TEXT	SEGMENT PARA USE32 PUBLIC 'CODE'
_TEXT	ENDS
;	COMDAT ??0CNoTrackObject@@QAE@XZ
_TEXT	SEGMENT PARA USE32 PUBLIC 'CODE'
_TEXT	ENDS
;	COMDAT _$E5
text$yc	SEGMENT PARA USE32 PUBLIC 'CODE'
text$yc	ENDS
;	COMDAT _$E7
text$yc	SEGMENT PARA USE32 PUBLIC 'CODE'
text$yc	ENDS
;	COMDAT ??_GCWebManager@@QAEPAXI@Z
_TEXT	SEGMENT PARA USE32 PUBLIC 'CODE'
_TEXT	ENDS
;	COMDAT ??0TAB_ITEM@@QAE@XZ
_TEXT	SEGMENT PARA USE32 PUBLIC 'CODE'
_TEXT	ENDS
;	COMDAT ??1TAB_ITEM@@QAE@XZ
_TEXT	SEGMENT PARA USE32 PUBLIC 'CODE'
_TEXT	ENDS
;	COMDAT ??1OneLocalGame@@QAE@XZ
_TEXT	SEGMENT PARA USE32 PUBLIC 'CODE'
_TEXT	ENDS
;	COMDAT ??0CallJSParam@@QAE@XZ
_TEXT	SEGMENT PARA USE32 PUBLIC 'CODE'
_TEXT	ENDS
;	COMDAT ??_GCallJSParam@@QAEPAXI@Z
_TEXT	SEGMENT PARA USE32 PUBLIC 'CODE'
_TEXT	ENDS
;	COMDAT ??1CallJSParam@@QAE@XZ
_TEXT	SEGMENT PARA USE32 PUBLIC 'CODE'
_TEXT	ENDS
;	COMDAT ??HATL@@YA?AV?$CStringT@DV?$StrTraitMFC_DLL@DV?$ChTraitsCRT@D@ATL@@@@@0@PBDABV10@@Z
_TEXT	SEGMENT PARA USE32 PUBLIC 'CODE'
_TEXT	ENDS
;	COMDAT ??8ATL@@YA_NABV?$CStringT@DV?$StrTraitMFC_DLL@DV?$ChTraitsCRT@D@ATL@@@@@0@PBD@Z
_TEXT	SEGMENT PARA USE32 PUBLIC 'CODE'
_TEXT	ENDS
;	COMDAT ??9ATL@@YA_NABV?$CStringT@DV?$StrTraitMFC_DLL@DV?$ChTraitsCRT@D@ATL@@@@@0@PBD@Z
_TEXT	SEGMENT PARA USE32 PUBLIC 'CODE'
_TEXT	ENDS
;	COMDAT ??B?$CComPtrBase@UITypeInfo2@@@ATL@@QBEPAUITypeInfo2@@XZ
_TEXT	SEGMENT PARA USE32 PUBLIC 'CODE'
_TEXT	ENDS
;	COMDAT ??B?$CComPtrBase@UIHTMLDocument2@@@ATL@@QBEPAUIHTMLDocument2@@XZ
_TEXT	SEGMENT PARA USE32 PUBLIC 'CODE'
_TEXT	ENDS
;	COMDAT ?equal@?$istreambuf_iterator@DU?$char_traits@D@std@@@std@@QBE_NABV12@@Z
_TEXT	SEGMENT PARA USE32 PUBLIC 'CODE'
_TEXT	ENDS
;	COMDAT ?equal@?$istreambuf_iterator@_WU?$char_traits@_W@std@@@std@@QBE_NABV12@@Z
_TEXT	SEGMENT PARA USE32 PUBLIC 'CODE'
_TEXT	ENDS
;	COMDAT ??0?$vector@UTAB_ITEM@@V?$allocator@UTAB_ITEM@@@std@@@std@@QAE@XZ
_TEXT	SEGMENT PARA USE32 PUBLIC 'CODE'
_TEXT	ENDS
;	COMDAT ??1?$vector@UTAB_ITEM@@V?$allocator@UTAB_ITEM@@@std@@@std@@QAE@XZ
_TEXT	SEGMENT PARA USE32 PUBLIC 'CODE'
_TEXT	ENDS
;	COMDAT ??0?$list@PAVIMessageObserver@@V?$allocator@PAVIMessageObserver@@@std@@@std@@QAE@XZ
_TEXT	SEGMENT PARA USE32 PUBLIC 'CODE'
_TEXT	ENDS
;	COMDAT ??1?$list@PAVIMessageObserver@@V?$allocator@PAVIMessageObserver@@@std@@@std@@QAE@XZ
_TEXT	SEGMENT PARA USE32 PUBLIC 'CODE'
_TEXT	ENDS
;	COMDAT ?begin@?$list@PAVIMessageObserver@@V?$allocator@PAVIMessageObserver@@@std@@@std@@QAE?AViterator@12@XZ
_TEXT	SEGMENT PARA USE32 PUBLIC 'CODE'
_TEXT	ENDS
;	COMDAT ?end@?$list@PAVIMessageObserver@@V?$allocator@PAVIMessageObserver@@@std@@@std@@QAE?AViterator@12@XZ
_TEXT	SEGMENT PARA USE32 PUBLIC 'CODE'
_TEXT	ENDS
;	COMDAT ??Diterator@?$list@PAVIMessageObserver@@V?$allocator@PAVIMessageObserver@@@std@@@std@@QBEAAPAVIMessageObserver@@XZ
_TEXT	SEGMENT PARA USE32 PUBLIC 'CODE'
_TEXT	ENDS
;	COMDAT ??Eiterator@?$list@PAVIMessageObserver@@V?$allocator@PAVIMessageObserver@@@std@@@std@@QAE?AV012@H@Z
_TEXT	SEGMENT PARA USE32 PUBLIC 'CODE'
_TEXT	ENDS
;	COMDAT ??9const_iterator@?$list@PAVIMessageObserver@@V?$allocator@PAVIMessageObserver@@@std@@@std@@QBE_NABV012@@Z
_TEXT	SEGMENT PARA USE32 PUBLIC 'CODE'
_TEXT	ENDS
;	COMDAT ?StringCompare@?$ChTraitsCRT@D@ATL@@SAHPBD0@Z
_TEXT	SEGMENT PARA USE32 PUBLIC 'CODE'
_TEXT	ENDS
;	COMDAT ?StringFindChar@?$ChTraitsCRT@D@ATL@@SAPBDPBDD@Z
_TEXT	SEGMENT PARA USE32 PUBLIC 'CODE'
_TEXT	ENDS
;	COMDAT ?StringSpanIncluding@?$ChTraitsCRT@D@ATL@@SAHPBD0@Z
_TEXT	SEGMENT PARA USE32 PUBLIC 'CODE'
_TEXT	ENDS
;	COMDAT ?StringSpanExcluding@?$ChTraitsCRT@D@ATL@@SAHPBD0@Z
_TEXT	SEGMENT PARA USE32 PUBLIC 'CODE'
_TEXT	ENDS
;	COMDAT ?StringLowercase@?$ChTraitsCRT@D@ATL@@SAPADPAD@Z
_TEXT	SEGMENT PARA USE32 PUBLIC 'CODE'
_TEXT	ENDS
;	COMDAT ?_Buy@?$vector@UTAB_ITEM@@V?$allocator@UTAB_ITEM@@@std@@@std@@IAE_NI@Z
_TEXT	SEGMENT PARA USE32 PUBLIC 'CODE'
_TEXT	ENDS
;	COMDAT ?_Tidy@?$vector@UTAB_ITEM@@V?$allocator@UTAB_ITEM@@@std@@@std@@IAEXXZ
_TEXT	SEGMENT PARA USE32 PUBLIC 'CODE'
_TEXT	ENDS
;	COMDAT ??0?$_Vector_val@UTAB_ITEM@@V?$allocator@UTAB_ITEM@@@std@@@std@@IAE@V?$allocator@UTAB_ITEM@@@1@@Z
_TEXT	SEGMENT PARA USE32 PUBLIC 'CODE'
_TEXT	ENDS
;	COMDAT ??0?$allocator@UTAB_ITEM@@@std@@QAE@XZ
_TEXT	SEGMENT PARA USE32 PUBLIC 'CODE'
_TEXT	ENDS
;	COMDAT ?_Nextnode@?$list@PAVIMessageObserver@@V?$allocator@PAVIMessageObserver@@@std@@@std@@KAAAPAU_Node@?$_List_nod@PAVIMessageObserver@@V?$allocator@PAVIMessageObserver@@@std@@@2@PAU342@@Z
_TEXT	SEGMENT PARA USE32 PUBLIC 'CODE'
_TEXT	ENDS
;	COMDAT ?_Buynode@?$list@PAVIMessageObserver@@V?$allocator@PAVIMessageObserver@@@std@@@std@@IAEPAU_Node@?$_List_nod@PAVIMessageObserver@@V?$allocator@PAVIMessageObserver@@@std@@@2@XZ
_TEXT	SEGMENT PARA USE32 PUBLIC 'CODE'
_TEXT	ENDS
;	COMDAT ?_Tidy@?$list@PAVIMessageObserver@@V?$allocator@PAVIMessageObserver@@@std@@@std@@IAEXXZ
_TEXT	SEGMENT PARA USE32 PUBLIC 'CODE'
_TEXT	ENDS
;	COMDAT ??0?$_List_val@PAVIMessageObserver@@V?$allocator@PAVIMessageObserver@@@std@@@std@@IAE@V?$allocator@PAVIMessageObserver@@@1@@Z
_TEXT	SEGMENT PARA USE32 PUBLIC 'CODE'
_TEXT	ENDS
;	COMDAT ??0?$allocator@PAVIMessageObserver@@@std@@QAE@XZ
_TEXT	SEGMENT PARA USE32 PUBLIC 'CODE'
_TEXT	ENDS
;	COMDAT ??0iterator@?$list@PAVIMessageObserver@@V?$allocator@PAVIMessageObserver@@@std@@@std@@QAE@PAU_Node@?$_List_nod@PAVIMessageObserver@@V?$allocator@PAVIMessageObserver@@@std@@@2@@Z
_TEXT	SEGMENT PARA USE32 PUBLIC 'CODE'
_TEXT	ENDS
;	COMDAT ??Eiterator@?$list@PAVIMessageObserver@@V?$allocator@PAVIMessageObserver@@@std@@@std@@QAEAAV012@XZ
_TEXT	SEGMENT PARA USE32 PUBLIC 'CODE'
_TEXT	ENDS
;	COMDAT ??Dconst_iterator@?$list@PAVIMessageObserver@@V?$allocator@PAVIMessageObserver@@@std@@@std@@QBEABQAVIMessageObserver@@XZ
_TEXT	SEGMENT PARA USE32 PUBLIC 'CODE'
_TEXT	ENDS
;	COMDAT ??8const_iterator@?$list@PAVIMessageObserver@@V?$allocator@PAVIMessageObserver@@@std@@@std@@QBE_NABV012@@Z
_TEXT	SEGMENT PARA USE32 PUBLIC 'CODE'
_TEXT	ENDS
;	COMDAT ??0iterator@?$basic_string@DU?$char_traits@D@std@@V?$allocator@D@2@@std@@QAE@PAD@Z
_TEXT	SEGMENT PARA USE32 PUBLIC 'CODE'
_TEXT	ENDS
;	COMDAT ?max_size@?$vector@UTAB_ITEM@@V?$allocator@UTAB_ITEM@@@std@@@std@@QBEIXZ
_TEXT	SEGMENT PARA USE32 PUBLIC 'CODE'
_TEXT	ENDS
;	COMDAT ?_Destroy@?$vector@UTAB_ITEM@@V?$allocator@UTAB_ITEM@@@std@@@std@@IAEXPAUTAB_ITEM@@0@Z
_TEXT	SEGMENT PARA USE32 PUBLIC 'CODE'
_TEXT	ENDS
;	COMDAT ?_Xlen@?$vector@UTAB_ITEM@@V?$allocator@UTAB_ITEM@@@std@@@std@@IBEXXZ
_TEXT	SEGMENT PARA USE32 PUBLIC 'CODE'
_TEXT	ENDS
;	COMDAT ??0?$allocator@UTAB_ITEM@@@std@@QAE@ABV01@@Z
_TEXT	SEGMENT PARA USE32 PUBLIC 'CODE'
_TEXT	ENDS
;	COMDAT ?deallocate@?$allocator@UTAB_ITEM@@@std@@QAEXPAUTAB_ITEM@@I@Z
_TEXT	SEGMENT PARA USE32 PUBLIC 'CODE'
_TEXT	ENDS
;	COMDAT ?allocate@?$allocator@UTAB_ITEM@@@std@@QAEPAUTAB_ITEM@@I@Z
_TEXT	SEGMENT PARA USE32 PUBLIC 'CODE'
_TEXT	ENDS
;	COMDAT ?_Prevnode@?$list@PAVIMessageObserver@@V?$allocator@PAVIMessageObserver@@@std@@@std@@KAAAPAU_Node@?$_List_nod@PAVIMessageObserver@@V?$allocator@PAVIMessageObserver@@@std@@@2@PAU342@@Z
_TEXT	SEGMENT PARA USE32 PUBLIC 'CODE'
_TEXT	ENDS
;	COMDAT ?_Myval@?$list@PAVIMessageObserver@@V?$allocator@PAVIMessageObserver@@@std@@@std@@KAAAPAVIMessageObserver@@PAU_Node@?$_List_nod@PAVIMessageObserver@@V?$allocator@PAVIMessageObserver@@@std@@@2@@Z
_TEXT	SEGMENT PARA USE32 PUBLIC 'CODE'
_TEXT	ENDS
;	COMDAT ?clear@?$list@PAVIMessageObserver@@V?$allocator@PAVIMessageObserver@@@std@@@std@@QAEXXZ
_TEXT	SEGMENT PARA USE32 PUBLIC 'CODE'
_TEXT	ENDS
;	COMDAT ??0?$_List_ptr@PAVIMessageObserver@@V?$allocator@PAVIMessageObserver@@@std@@@std@@IAE@V?$allocator@PAVIMessageObserver@@@1@@Z
_TEXT	SEGMENT PARA USE32 PUBLIC 'CODE'
_TEXT	ENDS
;	COMDAT ??0?$allocator@PAVIMessageObserver@@@std@@QAE@ABV01@@Z
_TEXT	SEGMENT PARA USE32 PUBLIC 'CODE'
_TEXT	ENDS
;	COMDAT ?deallocate@?$allocator@U_Node@?$_List_nod@PAVIMessageObserver@@V?$allocator@PAVIMessageObserver@@@std@@@std@@@std@@QAEXPAU_Node@?$_List_nod@PAVIMessageObserver@@V?$allocator@PAVIMessageObserver@@@std@@@2@I@Z
_TEXT	SEGMENT PARA USE32 PUBLIC 'CODE'
_TEXT	ENDS
;	COMDAT ?allocate@?$allocator@U_Node@?$_List_nod@PAVIMessageObserver@@V?$allocator@PAVIMessageObserver@@@std@@@std@@@std@@QAEPAU_Node@?$_List_nod@PAVIMessageObserver@@V?$allocator@PAVIMessageObserver@@@std@@@2@I@Z
_TEXT	SEGMENT PARA USE32 PUBLIC 'CODE'
_TEXT	ENDS
;	COMDAT ?construct@?$allocator@PAU_Node@?$_List_nod@PAVIMessageObserver@@V?$allocator@PAVIMessageObserver@@@std@@@std@@@std@@QAEXPAPAU_Node@?$_List_nod@PAVIMessageObserver@@V?$allocator@PAVIMessageObserver@@@std@@@2@ABQAU342@@Z
_TEXT	SEGMENT PARA USE32 PUBLIC 'CODE'
_TEXT	ENDS
;	COMDAT ?destroy@?$allocator@PAU_Node@?$_List_nod@PAVIMessageObserver@@V?$allocator@PAVIMessageObserver@@@std@@@std@@@std@@QAEXPAPAU_Node@?$_List_nod@PAVIMessageObserver@@V?$allocator@PAVIMessageObserver@@@std@@@2@@Z
_TEXT	SEGMENT PARA USE32 PUBLIC 'CODE'
_TEXT	ENDS
;	COMDAT ??0const_iterator@?$list@PAVIMessageObserver@@V?$allocator@PAVIMessageObserver@@@std@@@std@@QAE@PAU_Node@?$_List_nod@PAVIMessageObserver@@V?$allocator@PAVIMessageObserver@@@std@@@2@@Z
_TEXT	SEGMENT PARA USE32 PUBLIC 'CODE'
_TEXT	ENDS
;	COMDAT ??Econst_iterator@?$list@PAVIMessageObserver@@V?$allocator@PAVIMessageObserver@@@std@@@std@@QAEAAV012@XZ
_TEXT	SEGMENT PARA USE32 PUBLIC 'CODE'
_TEXT	ENDS
;	COMDAT ??0length_error@std@@QAE@ABV01@@Z
_TEXT	SEGMENT PARA USE32 PUBLIC 'CODE'
_TEXT	ENDS
;	COMDAT ??0const_iterator@?$basic_string@DU?$char_traits@D@std@@V?$allocator@D@2@@std@@QAE@PBD@Z
_TEXT	SEGMENT PARA USE32 PUBLIC 'CODE'
_TEXT	ENDS
;	COMDAT ??Gconst_iterator@?$basic_string@DU?$char_traits@D@std@@V?$allocator@D@2@@std@@QBEHABV012@@Z
_TEXT	SEGMENT PARA USE32 PUBLIC 'CODE'
_TEXT	ENDS
;	COMDAT ?max_size@?$allocator@UTAB_ITEM@@@std@@QBEIXZ
_TEXT	SEGMENT PARA USE32 PUBLIC 'CODE'
_TEXT	ENDS
;	COMDAT ??0?$_List_nod@PAVIMessageObserver@@V?$allocator@PAVIMessageObserver@@@std@@@std@@IAE@V?$allocator@PAVIMessageObserver@@@1@@Z
_TEXT	SEGMENT PARA USE32 PUBLIC 'CODE'
_TEXT	ENDS
;	COMDAT ?destroy@?$allocator@U_Node@?$_List_nod@PAVIMessageObserver@@V?$allocator@PAVIMessageObserver@@@std@@@std@@@std@@QAEXPAU_Node@?$_List_nod@PAVIMessageObserver@@V?$allocator@PAVIMessageObserver@@@std@@@2@@Z
_TEXT	SEGMENT PARA USE32 PUBLIC 'CODE'
_TEXT	ENDS
;	COMDAT ?Unlock@?$CComCritSecLock@VCComCriticalSection@ATL@@@ATL@@QAEXXZ
_TEXT	SEGMENT PARA USE32 PUBLIC 'CODE'
_TEXT	ENDS
;	COMDAT ??$AtlAlignUp@H@ATL@@YGHHK@Z
_TEXT	SEGMENT PARA USE32 PUBLIC 'CODE'
_TEXT	ENDS
;	COMDAT ??$_Maklocstr@D@std@@YAPADPBDPADABU_Cvtvec@@@Z
_TEXT	SEGMENT PARA USE32 PUBLIC 'CODE'
_TEXT	ENDS
;	COMDAT ??$_Destroy_range@UTAB_ITEM@@V?$allocator@UTAB_ITEM@@@std@@@std@@YAXPAUTAB_ITEM@@0AAV?$allocator@UTAB_ITEM@@@0@@Z
_TEXT	SEGMENT PARA USE32 PUBLIC 'CODE'
_TEXT	ENDS
;	COMDAT ??$_Allocate@UTAB_ITEM@@@std@@YAPAUTAB_ITEM@@IPAU1@@Z
_TEXT	SEGMENT PARA USE32 PUBLIC 'CODE'
_TEXT	ENDS
;	COMDAT ??$?0PAVIMessageObserver@@@?$allocator@PAU_Node@?$_List_nod@PAVIMessageObserver@@V?$allocator@PAVIMessageObserver@@@std@@@std@@@std@@QAE@ABV?$allocator@PAVIMessageObserver@@@1@@Z
_TEXT	SEGMENT PARA USE32 PUBLIC 'CODE'
_TEXT	ENDS
;	COMDAT ??$_Allocate@U_Node@?$_List_nod@PAVIMessageObserver@@V?$allocator@PAVIMessageObserver@@@std@@@std@@@std@@YAPAU_Node@?$_List_nod@PAVIMessageObserver@@V?$allocator@PAVIMessageObserver@@@std@@@0@IPAU120@@Z
_TEXT	SEGMENT PARA USE32 PUBLIC 'CODE'
_TEXT	ENDS
;	COMDAT ??$_Construct@PAU_Node@?$_List_nod@PAVIMessageObserver@@V?$allocator@PAVIMessageObserver@@@std@@@std@@PAU123@@std@@YAXPAPAU_Node@?$_List_nod@PAVIMessageObserver@@V?$allocator@PAVIMessageObserver@@@std@@@0@ABQAU120@@Z
_TEXT	SEGMENT PARA USE32 PUBLIC 'CODE'
_TEXT	ENDS
;	COMDAT ??$_Destroy@PAU_Node@?$_List_nod@PAVIMessageObserver@@V?$allocator@PAVIMessageObserver@@@std@@@std@@@std@@YAXPAPAU_Node@?$_List_nod@PAVIMessageObserver@@V?$allocator@PAVIMessageObserver@@@std@@@0@@Z
_TEXT	SEGMENT PARA USE32 PUBLIC 'CODE'
_TEXT	ENDS
;	COMDAT ??$?0PAVIMessageObserver@@@?$allocator@U_Node@?$_List_nod@PAVIMessageObserver@@V?$allocator@PAVIMessageObserver@@@std@@@std@@@std@@QAE@ABV?$allocator@PAVIMessageObserver@@@1@@Z
_TEXT	SEGMENT PARA USE32 PUBLIC 'CODE'
_TEXT	ENDS
;	COMDAT ??$_Destroy@U_Node@?$_List_nod@PAVIMessageObserver@@V?$allocator@PAVIMessageObserver@@@std@@@std@@@std@@YAXPAU_Node@?$_List_nod@PAVIMessageObserver@@V?$allocator@PAVIMessageObserver@@@std@@@0@@Z
_TEXT	SEGMENT PARA USE32 PUBLIC 'CODE'
_TEXT	ENDS
;	COMDAT ??$_Ptr_cat@PAUTAB_ITEM@@PAU1@@std@@YA?AU_Nonscalar_ptr_iterator_tag@0@AAPAUTAB_ITEM@@0@Z
_TEXT	SEGMENT PARA USE32 PUBLIC 'CODE'
_TEXT	ENDS
;	COMDAT ??$_Destroy_range@UTAB_ITEM@@V?$allocator@UTAB_ITEM@@@std@@@std@@YAXPAUTAB_ITEM@@0AAV?$allocator@UTAB_ITEM@@@0@U_Nonscalar_ptr_iterator_tag@0@@Z
_TEXT	SEGMENT PARA USE32 PUBLIC 'CODE'
_TEXT	ENDS
;	COMDAT ?destroy@?$allocator@UTAB_ITEM@@@std@@QAEXPAUTAB_ITEM@@@Z
_TEXT	SEGMENT PARA USE32 PUBLIC 'CODE'
_TEXT	ENDS
;	COMDAT ??$_Destroy@UTAB_ITEM@@@std@@YAXPAUTAB_ITEM@@@Z
_TEXT	SEGMENT PARA USE32 PUBLIC 'CODE'
_TEXT	ENDS
;	COMDAT ??_GTAB_ITEM@@QAEPAXI@Z
_TEXT	SEGMENT PARA USE32 PUBLIC 'CODE'
_TEXT	ENDS
;	COMDAT ??_R3IData@@8
rdata$r	SEGMENT DWORD USE32 PUBLIC 'CONST'
rdata$r	ENDS
;	COMDAT ??_R3IDocHostShowUI@@8
rdata$r	SEGMENT DWORD USE32 PUBLIC 'CONST'
rdata$r	ENDS
;	COMDAT ??_R3IDocHostUIHandler@@8
rdata$r	SEGMENT DWORD USE32 PUBLIC 'CONST'
rdata$r	ENDS
;	COMDAT ??_R3CCustomOccManager@@8
rdata$r	SEGMENT DWORD USE32 PUBLIC 'CONST'
rdata$r	ENDS
;	COMDAT ??_R3CAtlStringMgr@ATL@@8
rdata$r	SEGMENT DWORD USE32 PUBLIC 'CONST'
rdata$r	ENDS
;	COMDAT ??_R3XDocHostUIHandler@CCustomControlSite@@8
rdata$r	SEGMENT DWORD USE32 PUBLIC 'CONST'
rdata$r	ENDS
;	COMDAT ??_R3COccManager@@8
rdata$r	SEGMENT DWORD USE32 PUBLIC 'CONST'
rdata$r	ENDS
;	COMDAT ??_R3XDocHostShowUI@CCustomControlSite@@8
rdata$r	SEGMENT DWORD USE32 PUBLIC 'CONST'
rdata$r	ENDS
;	COMDAT ??_R3CCustomControlSite@@8
rdata$r	SEGMENT DWORD USE32 PUBLIC 'CONST'
rdata$r	ENDS
;	COMDAT ??_R3?$numpunct@_W@std@@8
rdata$r	SEGMENT DWORD USE32 PUBLIC 'CONST'
rdata$r	ENDS
;	COMDAT ??_R3?$numpunct@D@std@@8
rdata$r	SEGMENT DWORD USE32 PUBLIC 'CONST'
rdata$r	ENDS
;	COMDAT ??_R2IData@@8
rdata$r	SEGMENT DWORD USE32 PUBLIC 'CONST'
rdata$r	ENDS
;	COMDAT ??_R2IDocHostShowUI@@8
rdata$r	SEGMENT DWORD USE32 PUBLIC 'CONST'
rdata$r	ENDS
;	COMDAT ??_R2IDocHostUIHandler@@8
rdata$r	SEGMENT DWORD USE32 PUBLIC 'CONST'
rdata$r	ENDS
;	COMDAT ??_R2CCustomOccManager@@8
rdata$r	SEGMENT DWORD USE32 PUBLIC 'CONST'
rdata$r	ENDS
;	COMDAT ??_R2CAtlStringMgr@ATL@@8
rdata$r	SEGMENT DWORD USE32 PUBLIC 'CONST'
rdata$r	ENDS
;	COMDAT ??_R2XDocHostUIHandler@CCustomControlSite@@8
rdata$r	SEGMENT DWORD USE32 PUBLIC 'CONST'
rdata$r	ENDS
;	COMDAT ??_R2COccManager@@8
rdata$r	SEGMENT DWORD USE32 PUBLIC 'CONST'
rdata$r	ENDS
;	COMDAT ??_R2XDocHostShowUI@CCustomControlSite@@8
rdata$r	SEGMENT DWORD USE32 PUBLIC 'CONST'
rdata$r	ENDS
;	COMDAT ??_R2CCustomControlSite@@8
rdata$r	SEGMENT DWORD USE32 PUBLIC 'CONST'
rdata$r	ENDS
;	COMDAT ??_R2?$numpunct@_W@std@@8
rdata$r	SEGMENT DWORD USE32 PUBLIC 'CONST'
rdata$r	ENDS
;	COMDAT ??_R2?$numpunct@D@std@@8
rdata$r	SEGMENT DWORD USE32 PUBLIC 'CONST'
rdata$r	ENDS
;	COMDAT ??_R1A@?0A@A@IData@@8
rdata$r	SEGMENT DWORD USE32 PUBLIC 'CONST'
rdata$r	ENDS
;	COMDAT ??_R1A@?0A@A@CCustomOccManager@@8
rdata$r	SEGMENT DWORD USE32 PUBLIC 'CONST'
rdata$r	ENDS
;	COMDAT ??_R1A@?0A@A@IAtlStringMgr@ATL@@8
rdata$r	SEGMENT DWORD USE32 PUBLIC 'CONST'
rdata$r	ENDS
;	COMDAT ??_R0?AUIAtlStringMgr@ATL@@@8
_DATA	SEGMENT DWORD USE32 PUBLIC 'DATA'
_DATA	ENDS
;	COMDAT ??_R1A@?0A@A@CAtlStringMgr@ATL@@8
rdata$r	SEGMENT DWORD USE32 PUBLIC 'CONST'
rdata$r	ENDS
;	COMDAT ??_R1A@?0A@A@IDocHostUIHandler@@8
rdata$r	SEGMENT DWORD USE32 PUBLIC 'CONST'
rdata$r	ENDS
;	COMDAT ??_R1A@?0A@A@XDocHostUIHandler@CCustomControlSite@@8
rdata$r	SEGMENT DWORD USE32 PUBLIC 'CONST'
rdata$r	ENDS
;	COMDAT ??_R1A@?0A@A@CNoTrackObject@@8
rdata$r	SEGMENT DWORD USE32 PUBLIC 'CONST'
rdata$r	ENDS
;	COMDAT ??_R0?AVCNoTrackObject@@@8
_DATA	SEGMENT DWORD USE32 PUBLIC 'DATA'
_DATA	ENDS
;	COMDAT ??_R1A@?0A@A@COccManager@@8
rdata$r	SEGMENT DWORD USE32 PUBLIC 'CONST'
rdata$r	ENDS
;	COMDAT ??_R1A@?0A@A@IUnknown@@8
rdata$r	SEGMENT DWORD USE32 PUBLIC 'CONST'
rdata$r	ENDS
;	COMDAT ??_R0?AUIUnknown@@@8
_DATA	SEGMENT DWORD USE32 PUBLIC 'DATA'
_DATA	ENDS
;	COMDAT ??_R1A@?0A@A@IDocHostShowUI@@8
rdata$r	SEGMENT DWORD USE32 PUBLIC 'CONST'
rdata$r	ENDS
;	COMDAT ??_R1A@?0A@A@XDocHostShowUI@CCustomControlSite@@8
rdata$r	SEGMENT DWORD USE32 PUBLIC 'CONST'
rdata$r	ENDS
;	COMDAT ??_R1A@?0A@A@CObject@@8
rdata$r	SEGMENT DWORD USE32 PUBLIC 'CONST'
rdata$r	ENDS
;	COMDAT ??_R0?AVCObject@@@8
_DATA	SEGMENT DWORD USE32 PUBLIC 'DATA'
_DATA	ENDS
;	COMDAT ??_R1A@?0A@A@CCmdTarget@@8
rdata$r	SEGMENT DWORD USE32 PUBLIC 'CONST'
rdata$r	ENDS
;	COMDAT ??_R0?AVCCmdTarget@@@8
_DATA	SEGMENT DWORD USE32 PUBLIC 'DATA'
_DATA	ENDS
;	COMDAT ??_R1A@?0A@A@COleControlSite@@8
rdata$r	SEGMENT DWORD USE32 PUBLIC 'CONST'
rdata$r	ENDS
;	COMDAT ??_R1A@?0A@A@CCustomControlSite@@8
rdata$r	SEGMENT DWORD USE32 PUBLIC 'CONST'
rdata$r	ENDS
;	COMDAT ??_R1A@?0A@A@?$numpunct@_W@std@@8
rdata$r	SEGMENT DWORD USE32 PUBLIC 'CONST'
rdata$r	ENDS
;	COMDAT ??_R1A@?0A@A@facet@locale@std@@8
rdata$r	SEGMENT DWORD USE32 PUBLIC 'CONST'
rdata$r	ENDS
;	COMDAT ??_R0?AVfacet@locale@std@@@8
_DATA	SEGMENT DWORD USE32 PUBLIC 'DATA'
_DATA	ENDS
;	COMDAT ??_R1A@?0A@A@?$numpunct@D@std@@8
rdata$r	SEGMENT DWORD USE32 PUBLIC 'CONST'
rdata$r	ENDS
;	COMDAT ??_R0?AVIData@@@8
_DATA	SEGMENT DWORD USE32 PUBLIC 'DATA'
_DATA	ENDS
;	COMDAT ??_R0?AVCCustomOccManager@@@8
_DATA	SEGMENT DWORD USE32 PUBLIC 'DATA'
_DATA	ENDS
;	COMDAT ??_R0?AVCAtlStringMgr@ATL@@@8
_DATA	SEGMENT DWORD USE32 PUBLIC 'DATA'
_DATA	ENDS
;	COMDAT ??_R0?AUIDocHostUIHandler@@@8
_DATA	SEGMENT DWORD USE32 PUBLIC 'DATA'
_DATA	ENDS
;	COMDAT ??_R0?AVXDocHostUIHandler@CCustomControlSite@@@8
_DATA	SEGMENT DWORD USE32 PUBLIC 'DATA'
_DATA	ENDS
;	COMDAT ??_R0?AVCOccManager@@@8
_DATA	SEGMENT DWORD USE32 PUBLIC 'DATA'
_DATA	ENDS
;	COMDAT ??_R0?AUIDocHostShowUI@@@8
_DATA	SEGMENT DWORD USE32 PUBLIC 'DATA'
_DATA	ENDS
;	COMDAT ??_R0?AVXDocHostShowUI@CCustomControlSite@@@8
_DATA	SEGMENT DWORD USE32 PUBLIC 'DATA'
_DATA	ENDS
;	COMDAT ??_R0?AVCOleControlSite@@@8
_DATA	SEGMENT DWORD USE32 PUBLIC 'DATA'
_DATA	ENDS
;	COMDAT ??_R0?AVCCustomControlSite@@@8
_DATA	SEGMENT DWORD USE32 PUBLIC 'DATA'
_DATA	ENDS
;	COMDAT ??_R0?AV?$numpunct@_W@std@@@8
_DATA	SEGMENT DWORD USE32 PUBLIC 'DATA'
_DATA	ENDS
;	COMDAT ??_R0?AV?$numpunct@D@std@@@8
_DATA	SEGMENT DWORD USE32 PUBLIC 'DATA'
_DATA	ENDS
;	COMDAT ??_R4IData@@6B@
rdata$r	SEGMENT DWORD USE32 PUBLIC 'CONST'
rdata$r	ENDS
;	COMDAT ??_R4IDocHostShowUI@@6B@
rdata$r	SEGMENT DWORD USE32 PUBLIC 'CONST'
rdata$r	ENDS
;	COMDAT ??_R4IDocHostUIHandler@@6B@
rdata$r	SEGMENT DWORD USE32 PUBLIC 'CONST'
rdata$r	ENDS
;	COMDAT ??_R4CCustomOccManager@@6B@
rdata$r	SEGMENT DWORD USE32 PUBLIC 'CONST'
rdata$r	ENDS
;	COMDAT ??_R4CAtlStringMgr@ATL@@6B@
rdata$r	SEGMENT DWORD USE32 PUBLIC 'CONST'
rdata$r	ENDS
;	COMDAT ??_R4XDocHostUIHandler@CCustomControlSite@@6B@
rdata$r	SEGMENT DWORD USE32 PUBLIC 'CONST'
rdata$r	ENDS
;	COMDAT ??_R4COccManager@@6B@
rdata$r	SEGMENT DWORD USE32 PUBLIC 'CONST'
rdata$r	ENDS
;	COMDAT ??_R4XDocHostShowUI@CCustomControlSite@@6B@
rdata$r	SEGMENT DWORD USE32 PUBLIC 'CONST'
rdata$r	ENDS
;	COMDAT ?Dump@CObject@@UBEXAAVCDumpContext@@@Z
_TEXT	SEGMENT PARA USE32 PUBLIC 'CODE'
_TEXT	ENDS
;	COMDAT ?AssertValid@CObject@@UBEXXZ
_TEXT	SEGMENT PARA USE32 PUBLIC 'CODE'
_TEXT	ENDS
;	COMDAT ?Serialize@CObject@@UAEXAAVCArchive@@@Z
_TEXT	SEGMENT PARA USE32 PUBLIC 'CODE'
_TEXT	ENDS
;	COMDAT ??_R4CCustomControlSite@@6B@
rdata$r	SEGMENT DWORD USE32 PUBLIC 'CONST'
rdata$r	ENDS
;	COMDAT ??0?$allocator@_W@std@@QAE@XZ
_TEXT	SEGMENT PARA USE32 PUBLIC 'CODE'
_TEXT	ENDS
;	COMDAT ??_G?$numpunct@_W@std@@MAEPAXI@Z
_TEXT	SEGMENT PARA USE32 PUBLIC 'CODE'
_TEXT	ENDS
;	COMDAT ??_R4?$numpunct@_W@std@@6B@
rdata$r	SEGMENT DWORD USE32 PUBLIC 'CONST'
rdata$r	ENDS
;	COMDAT ??_G?$numpunct@D@std@@MAEPAXI@Z
_TEXT	SEGMENT PARA USE32 PUBLIC 'CODE'
_TEXT	ENDS
;	COMDAT ??_R4?$numpunct@D@std@@6B@
rdata$r	SEGMENT DWORD USE32 PUBLIC 'CONST'
rdata$r	ENDS
;	COMDAT ??2@YAPAXIPAX@Z
_TEXT	SEGMENT PARA USE32 PUBLIC 'CODE'
_TEXT	ENDS
;	COMDAT ?_Psave@?$_Facetptr@V?$numpunct@_W@std@@@std@@2PBVfacet@locale@2@B
_DATA	SEGMENT DWORD USE32 PUBLIC 'DATA'
_DATA	ENDS
;	COMDAT ?_Psave@?$_Facetptr@V?$numpunct@D@std@@@std@@2PBVfacet@locale@2@B
_DATA	SEGMENT DWORD USE32 PUBLIC 'DATA'
_DATA	ENDS
;	COMDAT ?Unlock@CComCriticalSection@ATL@@QAEJXZ
_TEXT	SEGMENT PARA USE32 PUBLIC 'CODE'
_TEXT	ENDS
;	COMDAT ?_Psave@?$_Facetptr@V?$ctype@_W@std@@@std@@2PBVfacet@locale@2@B
_DATA	SEGMENT DWORD USE32 PUBLIC 'DATA'
_DATA	ENDS
;	COMDAT ?_Psave@?$_Facetptr@V?$ctype@D@std@@@std@@2PBVfacet@locale@2@B
_DATA	SEGMENT DWORD USE32 PUBLIC 'DATA'
_DATA	ENDS
;	COMDAT ??_7length_error@std@@6B@
CONST	SEGMENT DWORD USE32 PUBLIC 'CONST'
CONST	ENDS
;	COMDAT ??_R4length_error@std@@6B@
rdata$r	SEGMENT DWORD USE32 PUBLIC 'CONST'
rdata$r	ENDS
;	COMDAT ??_R3length_error@std@@8
rdata$r	SEGMENT DWORD USE32 PUBLIC 'CONST'
rdata$r	ENDS
;	COMDAT ??_R2length_error@std@@8
rdata$r	SEGMENT DWORD USE32 PUBLIC 'CONST'
rdata$r	ENDS
;	COMDAT ??_R1A@?0A@A@length_error@std@@8
rdata$r	SEGMENT DWORD USE32 PUBLIC 'CONST'
rdata$r	ENDS
;	COMDAT ??_R1A@?0A@A@logic_error@std@@8
rdata$r	SEGMENT DWORD USE32 PUBLIC 'CONST'
rdata$r	ENDS
;	COMDAT ??_R0?AVlogic_error@std@@@8
_DATA	SEGMENT DWORD USE32 PUBLIC 'DATA'
_DATA	ENDS
;	COMDAT ??_R1A@?0A@A@exception@@8
rdata$r	SEGMENT DWORD USE32 PUBLIC 'CONST'
rdata$r	ENDS
;	COMDAT ??_R0?AVexception@@@8
_DATA	SEGMENT DWORD USE32 PUBLIC 'DATA'
_DATA	ENDS
;	COMDAT ??_Glength_error@std@@UAEPAXI@Z
_TEXT	SEGMENT PARA USE32 PUBLIC 'CODE'
_TEXT	ENDS
;	COMDAT ?what@logic_error@std@@UBEPBDXZ
_TEXT	SEGMENT PARA USE32 PUBLIC 'CODE'
_TEXT	ENDS
;	COMDAT ??1logic_error@std@@UAE@XZ
_TEXT	SEGMENT PARA USE32 PUBLIC 'CODE'
_TEXT	ENDS
;	COMDAT ??_7logic_error@std@@6B@
CONST	SEGMENT DWORD USE32 PUBLIC 'CONST'
CONST	ENDS
;	COMDAT ??_R4logic_error@std@@6B@
rdata$r	SEGMENT DWORD USE32 PUBLIC 'CONST'
rdata$r	ENDS
;	COMDAT ??_R3logic_error@std@@8
rdata$r	SEGMENT DWORD USE32 PUBLIC 'CONST'
rdata$r	ENDS
;	COMDAT ??_R2logic_error@std@@8
rdata$r	SEGMENT DWORD USE32 PUBLIC 'CONST'
rdata$r	ENDS
;	COMDAT ??_Glogic_error@std@@UAEPAXI@Z
_TEXT	SEGMENT PARA USE32 PUBLIC 'CODE'
_TEXT	ENDS
;	COMDAT ??0logic_error@std@@QAE@ABV01@@Z
_TEXT	SEGMENT PARA USE32 PUBLIC 'CODE'
_TEXT	ENDS
;	COMDAT __CTA3?AVlength_error@std@@
xdata$x	SEGMENT DWORD USE32 PUBLIC 'CONST'
xdata$x	ENDS
;	COMDAT ??1length_error@std@@UAE@XZ
_TEXT	SEGMENT PARA USE32 PUBLIC 'CODE'
_TEXT	ENDS
;	COMDAT __CT??_R0?AVexception@@@8??0exception@@QAE@ABV0@@Z12
xdata$x	SEGMENT DWORD USE32 PUBLIC 'CONST'
xdata$x	ENDS
;	COMDAT __CT??_R0?AVlogic_error@std@@@8??0logic_error@std@@QAE@ABV01@@Z40
xdata$x	SEGMENT DWORD USE32 PUBLIC 'CONST'
xdata$x	ENDS
;	COMDAT __CT??_R0?AVlength_error@std@@@8??0length_error@std@@QAE@ABV01@@Z40
xdata$x	SEGMENT DWORD USE32 PUBLIC 'CONST'
xdata$x	ENDS
;	COMDAT ??_R0?AVlength_error@std@@@8
_DATA	SEGMENT DWORD USE32 PUBLIC 'DATA'
_DATA	ENDS
;	COMDAT __TI3?AVlength_error@std@@
xdata$x	SEGMENT DWORD USE32 PUBLIC 'CONST'
xdata$x	ENDS
;	COMDAT ??0length_error@std@@QAE@ABV?$basic_string@DU?$char_traits@D@std@@V?$allocator@D@2@@1@@Z
_TEXT	SEGMENT PARA USE32 PUBLIC 'CODE'
_TEXT	ENDS
;	COMDAT ??0logic_error@std@@QAE@ABV?$basic_string@DU?$char_traits@D@std@@V?$allocator@D@2@@1@@Z
_TEXT	SEGMENT PARA USE32 PUBLIC 'CODE'
_TEXT	ENDS
;	COMDAT ??$_Maklocchr@_W@std@@YA_WDPA_WABU_Cvtvec@@@Z
_TEXT	SEGMENT PARA USE32 PUBLIC 'CODE'
_TEXT	ENDS
;	COMDAT ??$_Maklocstr@_W@std@@YAPA_WPBDPA_WABU_Cvtvec@@@Z
_TEXT	SEGMENT PARA USE32 PUBLIC 'CODE'
_TEXT	ENDS
;	COMDAT ??$_Maklocchr@D@std@@YADDPADABU_Cvtvec@@@Z
_TEXT	SEGMENT PARA USE32 PUBLIC 'CODE'
_TEXT	ENDS
;	COMDAT ??_C@_04LOAJBDKD@true?$AA@
CONST	SEGMENT DWORD USE32 PUBLIC 'CONST'
CONST	ENDS
;	COMDAT ??_C@_05LAPONLG@false?$AA@
CONST	SEGMENT DWORD USE32 PUBLIC 'CONST'
CONST	ENDS
;	COMDAT _wmemcpy
_TEXT	SEGMENT PARA USE32 PUBLIC 'CODE'
_TEXT	ENDS
;	COMDAT ?max_size@?$allocator@_W@std@@QBEIXZ
_TEXT	SEGMENT PARA USE32 PUBLIC 'CODE'
_TEXT	ENDS
;	COMDAT ?allocate@?$allocator@_W@std@@QAEPA_WI@Z
_TEXT	SEGMENT PARA USE32 PUBLIC 'CODE'
_TEXT	ENDS
;	COMDAT ??$_Allocate@_W@std@@YAPA_WIPA_W@Z
_TEXT	SEGMENT PARA USE32 PUBLIC 'CODE'
_TEXT	ENDS
;	COMDAT ?data@CStringData@ATL@@QAEPAXXZ
_TEXT	SEGMENT PARA USE32 PUBLIC 'CODE'
_TEXT	ENDS
;	COMDAT ??_C@_01GFHCPBMG@C?$AA@
CONST	SEGMENT DWORD USE32 PUBLIC 'CONST'
CONST	ENDS
;	COMDAT ?max_size@?$allocator@D@std@@QBEIXZ
_TEXT	SEGMENT PARA USE32 PUBLIC 'CODE'
_TEXT	ENDS
;	COMDAT ?allocate@?$allocator@D@std@@QAEPADI@Z
_TEXT	SEGMENT PARA USE32 PUBLIC 'CODE'
_TEXT	ENDS
;	COMDAT ??$_Allocate@D@std@@YAPADIPAD@Z
_TEXT	SEGMENT PARA USE32 PUBLIC 'CODE'
_TEXT	ENDS
;	COMDAT ?deallocate@?$allocator@D@std@@QAEXPADI@Z
_TEXT	SEGMENT PARA USE32 PUBLIC 'CODE'
_TEXT	ENDS
;	COMDAT ??0?$allocator@D@std@@QAE@XZ
_TEXT	SEGMENT PARA USE32 PUBLIC 'CODE'
_TEXT	ENDS
;	COMDAT ??0?$allocator@D@std@@QAE@ABV01@@Z
_TEXT	SEGMENT PARA USE32 PUBLIC 'CODE'
_TEXT	ENDS
;	COMDAT ?Release@CStringData@ATL@@QAEXXZ
_TEXT	SEGMENT PARA USE32 PUBLIC 'CODE'
_TEXT	ENDS
;	COMDAT ?_Peek@?$istreambuf_iterator@_WU?$char_traits@_W@std@@@std@@AAE_WXZ
_TEXT	SEGMENT PARA USE32 PUBLIC 'CODE'
_TEXT	ENDS
;	COMDAT ?_Peek@?$istreambuf_iterator@DU?$char_traits@D@std@@@std@@AAEDXZ
_TEXT	SEGMENT PARA USE32 PUBLIC 'CODE'
_TEXT	ENDS
;	COMDAT ??$use_facet@V?$ctype@_W@std@@@std@@YAABV?$ctype@_W@0@ABVlocale@0@@Z
_TEXT	SEGMENT PARA USE32 PUBLIC 'CODE'
_TEXT	ENDS
;	COMDAT ??_S?$ctype@_W@std@@6B@
CONST	SEGMENT DWORD USE32 PUBLIC 'CONST'
CONST	ENDS
;	COMDAT ??_R4?$ctype@_W@std@@6B@
rdata$r	SEGMENT DWORD USE32 PUBLIC 'CONST'
rdata$r	ENDS
;	COMDAT ??_R0?AV?$ctype@_W@std@@@8
_DATA	SEGMENT DWORD USE32 PUBLIC 'DATA'
_DATA	ENDS
;	COMDAT ??_R3?$ctype@_W@std@@8
rdata$r	SEGMENT DWORD USE32 PUBLIC 'CONST'
rdata$r	ENDS
;	COMDAT ??_R2?$ctype@_W@std@@8
rdata$r	SEGMENT DWORD USE32 PUBLIC 'CONST'
rdata$r	ENDS
;	COMDAT ??_R1A@?0A@A@?$ctype@_W@std@@8
rdata$r	SEGMENT DWORD USE32 PUBLIC 'CONST'
rdata$r	ENDS
;	COMDAT ??_R1A@?0A@A@ctype_base@std@@8
rdata$r	SEGMENT DWORD USE32 PUBLIC 'CONST'
rdata$r	ENDS
;	COMDAT ??_R0?AUctype_base@std@@@8
_DATA	SEGMENT DWORD USE32 PUBLIC 'DATA'
_DATA	ENDS
;	COMDAT ??_G?$ctype@_W@std@@MAEPAXI@Z
_TEXT	SEGMENT PARA USE32 PUBLIC 'CODE'
_TEXT	ENDS
;	COMDAT ??_C@_08EPJLHIJG@bad?5cast?$AA@
CONST	SEGMENT DWORD USE32 PUBLIC 'CONST'
CONST	ENDS
;	COMDAT __TI2?AVbad_cast@@
xdata$x	SEGMENT DWORD USE32 PUBLIC 'CONST'
xdata$x	ENDS
;	COMDAT __CTA2?AVbad_cast@@
xdata$x	SEGMENT DWORD USE32 PUBLIC 'CONST'
xdata$x	ENDS
;	COMDAT __CT??_R0?AVbad_cast@@@8??0bad_cast@@QAE@ABV0@@Z12
xdata$x	SEGMENT DWORD USE32 PUBLIC 'CONST'
xdata$x	ENDS
;	COMDAT ??_R0?AVbad_cast@@@8
_DATA	SEGMENT DWORD USE32 PUBLIC 'DATA'
_DATA	ENDS
;	COMDAT ??$use_facet@V?$ctype@D@std@@@std@@YAABV?$ctype@D@0@ABVlocale@0@@Z
_TEXT	SEGMENT PARA USE32 PUBLIC 'CODE'
_TEXT	ENDS
;	COMDAT ??_S?$ctype@D@std@@6B@
CONST	SEGMENT DWORD USE32 PUBLIC 'CONST'
CONST	ENDS
;	COMDAT ??_R4?$ctype@D@std@@6B@
rdata$r	SEGMENT DWORD USE32 PUBLIC 'CONST'
rdata$r	ENDS
;	COMDAT ??_R0?AV?$ctype@D@std@@@8
_DATA	SEGMENT DWORD USE32 PUBLIC 'DATA'
_DATA	ENDS
;	COMDAT ??_R3?$ctype@D@std@@8
rdata$r	SEGMENT DWORD USE32 PUBLIC 'CONST'
rdata$r	ENDS
;	COMDAT ??_R2?$ctype@D@std@@8
rdata$r	SEGMENT DWORD USE32 PUBLIC 'CONST'
rdata$r	ENDS
;	COMDAT ??_R1A@?0A@A@?$ctype@D@std@@8
rdata$r	SEGMENT DWORD USE32 PUBLIC 'CONST'
rdata$r	ENDS
;	COMDAT ??_G?$ctype@D@std@@MAEPAXI@Z
_TEXT	SEGMENT PARA USE32 PUBLIC 'CODE'
_TEXT	ENDS
;	COMDAT ??_S?$numpunct@_W@std@@6B@
CONST	SEGMENT DWORD USE32 PUBLIC 'CONST'
CONST	ENDS
;	COMDAT ??_S?$numpunct@D@std@@6B@
CONST	SEGMENT DWORD USE32 PUBLIC 'CONST'
CONST	ENDS
;	COMDAT _wmemmove
_TEXT	SEGMENT PARA USE32 PUBLIC 'CODE'
_TEXT	ENDS
;	COMDAT ?deallocate@?$allocator@_W@std@@QAEXPA_WI@Z
_TEXT	SEGMENT PARA USE32 PUBLIC 'CODE'
_TEXT	ENDS
;	COMDAT ??0?$allocator@_W@std@@QAE@ABV01@@Z
_TEXT	SEGMENT PARA USE32 PUBLIC 'CODE'
_TEXT	ENDS
;	COMDAT ?IsShared@CStringData@ATL@@QBE_NXZ
_TEXT	SEGMENT PARA USE32 PUBLIC 'CODE'
_TEXT	ENDS
;	COMDAT ?AtlThrow@ATL@@YGXJ@Z
_TEXT	SEGMENT PARA USE32 PUBLIC 'CODE'
_TEXT	ENDS
;	COMDAT ?IsLocked@CStringData@ATL@@QBE_NXZ
_TEXT	SEGMENT PARA USE32 PUBLIC 'CODE'
_TEXT	ENDS
;	COMDAT ??$?HDU?$char_traits@D@std@@V?$allocator@D@1@@std@@YA?AV?$basic_string@DU?$char_traits@D@std@@V?$allocator@D@2@@0@PBDABV10@@Z
_TEXT	SEGMENT PARA USE32 PUBLIC 'CODE'
_TEXT	ENDS
;	COMDAT ??_R0?AVIMessageObserver@@@8
_DATA	SEGMENT DWORD USE32 PUBLIC 'DATA'
_DATA	ENDS
;	COMDAT ??_R0?AVIWebRefreshObserver@@@8
_DATA	SEGMENT DWORD USE32 PUBLIC 'DATA'
_DATA	ENDS
;	COMDAT ?GetDefaultManager@?$StrTraitMFC_DLL@DV?$ChTraitsCRT@D@ATL@@@@SAPAUIAtlStringMgr@ATL@@XZ
_TEXT	SEGMENT PARA USE32 PUBLIC 'CODE'
_TEXT	ENDS
;	COMDAT ??_7COccManager@@6B@
CONST	SEGMENT DWORD USE32 PUBLIC 'CONST'
CONST	ENDS
;	COMDAT ??1CNoTrackObject@@UAE@XZ
_TEXT	SEGMENT PARA USE32 PUBLIC 'CODE'
_TEXT	ENDS
;	COMDAT ??2CObject@@SGPAXI@Z
_TEXT	SEGMENT PARA USE32 PUBLIC 'CODE'
_TEXT	ENDS
;	COMDAT ??_7CCustomOccManager@@6B@
CONST	SEGMENT DWORD USE32 PUBLIC 'CONST'
CONST	ENDS
;	COMDAT ??0IUnknown@@QAE@XZ
_TEXT	SEGMENT PARA USE32 PUBLIC 'CODE'
_TEXT	ENDS
;	COMDAT ??_7XDocHostUIHandler@CCustomControlSite@@6B@
CONST	SEGMENT DWORD USE32 PUBLIC 'CONST'
CONST	ENDS
;	COMDAT ??_7XDocHostShowUI@CCustomControlSite@@6B@
CONST	SEGMENT DWORD USE32 PUBLIC 'CONST'
CONST	ENDS
;	COMDAT ??3CObject@@SGXPAX@Z
_TEXT	SEGMENT PARA USE32 PUBLIC 'CODE'
_TEXT	ENDS
;	COMDAT ??_7CCustomControlSite@@6B@
CONST	SEGMENT DWORD USE32 PUBLIC 'CONST'
CONST	ENDS
;	COMDAT ?clsid@?1??GetClsid@CShockwaveFlash@@QAEABU_GUID@@XZ@4U3@B
CONST	SEGMENT DWORD USE32 PUBLIC 'CONST'
CONST	ENDS
;	COMDAT ??_7IData@@6B@
CONST	SEGMENT DWORD USE32 PUBLIC 'CONST'
CONST	ENDS
;	COMDAT ?c_bIsMFCDLLTraits@?$_MFCDLLTraitsCheck@_WV?$StrTraitATL@_WV?$ChTraitsCRT@_W@ATL@@@ATL@@@_CSTRING_IMPL_@ATL@@2_NB
CONST	SEGMENT DWORD USE32 PUBLIC 'CONST'
CONST	ENDS
;	COMDAT ?c_bIsMFCDLLTraits@?$_MFCDLLTraitsCheck@DV?$StrTraitATL@DV?$ChTraitsCRT@D@ATL@@@ATL@@@_CSTRING_IMPL_@ATL@@2_NB
CONST	SEGMENT DWORD USE32 PUBLIC 'CONST'
CONST	ENDS
;	COMDAT ?_AtlGetConversionACP@ATL@@YGIXZ
_TEXT	SEGMENT PARA USE32 PUBLIC 'CODE'
_TEXT	ENDS
;	COMDAT ?g_pfnGetThreadACP@ATL@@3P6GIXZA
_DATA	SEGMENT DWORD USE32 PUBLIC 'DATA'
_DATA	ENDS
;	COMDAT ?_AtlGetThreadACPThunk@ATL@@YGIXZ
_TEXT	SEGMENT PARA USE32 PUBLIC 'CODE'
_TEXT	ENDS
;	COMDAT ?_AtlGetThreadACPReal@ATL@@YGIXZ
_TEXT	SEGMENT PARA USE32 PUBLIC 'CODE'
_TEXT	ENDS
;	COMDAT ?_AtlGetThreadACPFake@ATL@@YGIXZ
_TEXT	SEGMENT PARA USE32 PUBLIC 'CODE'
_TEXT	ENDS
;	COMDAT ?InterlockedExchangePointer@@YGPAXPAPAXPAX@Z
_TEXT	SEGMENT PARA USE32 PUBLIC 'CODE'
_TEXT	ENDS
;	COMDAT ?_strthunks@ATL@@3U_AtlStringThunks@1@A
_DATA	SEGMENT DWORD USE32 PUBLIC 'DATA'
_DATA	ENDS
;	COMDAT ?CompareStringWThunk@ATL@@YGHKKPB_WH0H@Z
_TEXT	SEGMENT PARA USE32 PUBLIC 'CODE'
_TEXT	ENDS
;	COMDAT ?_AtlInstallStringThunk@ATL@@YAXPAPAXPAX1@Z
_TEXT	SEGMENT PARA USE32 PUBLIC 'CODE'
_TEXT	ENDS
;	COMDAT ??_B?1??_AtlInstallStringThunk@ATL@@YAXPAPAXPAX1@Z@51
_BSS	SEGMENT DWORD USE32 PUBLIC 'BSS'
_BSS	ENDS
;	COMDAT ?s_bWin9x@?1??_AtlInstallStringThunk@ATL@@YAXPAPAXPAX1@Z@4_NA
_BSS	SEGMENT DWORD USE32 PUBLIC 'BSS'
_BSS	ENDS
;	COMDAT ?CompareStringWFake@ATL@@YGHKKPB_WH0H@Z
_TEXT	SEGMENT PARA USE32 PUBLIC 'CODE'
_TEXT	ENDS
;	COMDAT ??0?$CAtlSafeAllocBufferManager@VCCRTAllocator@ATL@@@_ATL_SAFE_ALLOCA_IMPL@ATL@@QAE@XZ
_TEXT	SEGMENT PARA USE32 PUBLIC 'CODE'
_TEXT	ENDS
;	COMDAT ??1?$CAtlSafeAllocBufferManager@VCCRTAllocator@ATL@@@_ATL_SAFE_ALLOCA_IMPL@ATL@@QAE@XZ
_TEXT	SEGMENT PARA USE32 PUBLIC 'CODE'
_TEXT	ENDS
;	COMDAT ?Free@CCRTAllocator@ATL@@SAXPAX@Z
_TEXT	SEGMENT PARA USE32 PUBLIC 'CODE'
_TEXT	ENDS
;	COMDAT ?AtlW2AHelper@@YGPADPADPB_WHI@Z
_TEXT	SEGMENT PARA USE32 PUBLIC 'CODE'
_TEXT	ENDS
;	COMDAT ?_AtlVerifyStackAvailable@_ATL_SAFE_ALLOCA_IMPL@ATL@@YA_NK@Z
_TEXT	SEGMENT PARA USE32 PUBLIC 'CODE'
_TEXT	ENDS
;	COMDAT ?Allocate@?$CAtlSafeAllocBufferManager@VCCRTAllocator@ATL@@@_ATL_SAFE_ALLOCA_IMPL@ATL@@QAEPAXK@Z
_TEXT	SEGMENT PARA USE32 PUBLIC 'CODE'
_TEXT	ENDS
;	COMDAT ?Allocate@CCRTAllocator@ATL@@SAPAXI@Z
_TEXT	SEGMENT PARA USE32 PUBLIC 'CODE'
_TEXT	ENDS
;	COMDAT ?GetData@CAtlSafeAllocBufferNode@?$CAtlSafeAllocBufferManager@VCCRTAllocator@ATL@@@_ATL_SAFE_ALLOCA_IMPL@ATL@@QAEPAXXZ
_TEXT	SEGMENT PARA USE32 PUBLIC 'CODE'
_TEXT	ENDS
;	COMDAT ?GetStringTypeExWThunk@ATL@@YGHKKPB_WHPAG@Z
_TEXT	SEGMENT PARA USE32 PUBLIC 'CODE'
_TEXT	ENDS
;	COMDAT ?GetStringTypeExWFake@ATL@@YGHKKPB_WHPAG@Z
_TEXT	SEGMENT PARA USE32 PUBLIC 'CODE'
_TEXT	ENDS
;	COMDAT ??0?$CTempBuffer@D$0IA@VCCRTAllocator@ATL@@@ATL@@QAE@XZ
_TEXT	SEGMENT PARA USE32 PUBLIC 'CODE'
_TEXT	ENDS
;	COMDAT ??1?$CTempBuffer@D$0IA@VCCRTAllocator@ATL@@@ATL@@QAE@XZ
_TEXT	SEGMENT PARA USE32 PUBLIC 'CODE'
_TEXT	ENDS
;	COMDAT ?FreeHeap@?$CTempBuffer@D$0IA@VCCRTAllocator@ATL@@@ATL@@AAEXXZ
_TEXT	SEGMENT PARA USE32 PUBLIC 'CODE'
_TEXT	ENDS
;	COMDAT ?Allocate@?$CTempBuffer@D$0IA@VCCRTAllocator@ATL@@@ATL@@QAEPADI@Z
_TEXT	SEGMENT PARA USE32 PUBLIC 'CODE'
_TEXT	ENDS
;	COMDAT ?AllocateBytes@?$CTempBuffer@D$0IA@VCCRTAllocator@ATL@@@ATL@@QAEPADI@Z
_TEXT	SEGMENT PARA USE32 PUBLIC 'CODE'
_TEXT	ENDS
;	COMDAT ?AllocateHeap@?$CTempBuffer@D$0IA@VCCRTAllocator@ATL@@@ATL@@AAEXI@Z
_TEXT	SEGMENT PARA USE32 PUBLIC 'CODE'
_TEXT	ENDS
;	COMDAT ??B?$CTempBuffer@D$0IA@VCCRTAllocator@ATL@@@ATL@@QBEPADXZ
_TEXT	SEGMENT PARA USE32 PUBLIC 'CODE'
_TEXT	ENDS
;	COMDAT ?lstrcmpiWThunk@ATL@@YGHPB_W0@Z
_TEXT	SEGMENT PARA USE32 PUBLIC 'CODE'
_TEXT	ENDS
;	COMDAT ?lstrcmpiWFake@ATL@@YGHPB_W0@Z
_TEXT	SEGMENT PARA USE32 PUBLIC 'CODE'
_TEXT	ENDS
;	COMDAT ?CharLowerWThunk@ATL@@YGPA_WPA_W@Z
_TEXT	SEGMENT PARA USE32 PUBLIC 'CODE'
_TEXT	ENDS
;	COMDAT ?CharLowerWFake@ATL@@YGPA_WPA_W@Z
_TEXT	SEGMENT PARA USE32 PUBLIC 'CODE'
_TEXT	ENDS
;	COMDAT ?AtlA2WHelper@@YGPA_WPA_WPBDHI@Z
_TEXT	SEGMENT PARA USE32 PUBLIC 'CODE'
_TEXT	ENDS
;	COMDAT ?CharUpperWThunk@ATL@@YGPA_WPA_W@Z
_TEXT	SEGMENT PARA USE32 PUBLIC 'CODE'
_TEXT	ENDS
;	COMDAT ?CharUpperWFake@ATL@@YGPA_WPA_W@Z
_TEXT	SEGMENT PARA USE32 PUBLIC 'CODE'
_TEXT	ENDS
;	COMDAT ?GetEnvironmentVariableWThunk@ATL@@YGKPB_WPA_WK@Z
_TEXT	SEGMENT PARA USE32 PUBLIC 'CODE'
_TEXT	ENDS
;	COMDAT ?GetEnvironmentVariableWFake@ATL@@YGKPB_WPA_WK@Z
_TEXT	SEGMENT PARA USE32 PUBLIC 'CODE'
_TEXT	ENDS
;	COMDAT ??0?$CW2AEX@$0IA@@ATL@@QAE@PB_W@Z
_TEXT	SEGMENT PARA USE32 PUBLIC 'CODE'
_TEXT	ENDS
;	COMDAT ?Init@?$CW2AEX@$0IA@@ATL@@AAEXPB_WI@Z
_TEXT	SEGMENT PARA USE32 PUBLIC 'CODE'
_TEXT	ENDS
;	COMDAT ?AtlThrowLastWin32@ATL@@YGXXZ
_TEXT	SEGMENT PARA USE32 PUBLIC 'CODE'
_TEXT	ENDS
;	COMDAT ??1?$CW2AEX@$0IA@@ATL@@QAE@XZ
_TEXT	SEGMENT PARA USE32 PUBLIC 'CODE'
_TEXT	ENDS
;	COMDAT ??B?$CW2AEX@$0IA@@ATL@@QBEPADXZ
_TEXT	SEGMENT PARA USE32 PUBLIC 'CODE'
_TEXT	ENDS
;	COMDAT ?AddRef@CStringData@ATL@@QAEXXZ
_TEXT	SEGMENT PARA USE32 PUBLIC 'CODE'
_TEXT	ENDS
;	COMDAT ?SetManager@CNilStringData@ATL@@QAEXPAUIAtlStringMgr@2@@Z
_TEXT	SEGMENT PARA USE32 PUBLIC 'CODE'
_TEXT	ENDS
;	COMDAT ??0CNilStringData@ATL@@QAE@XZ
_TEXT	SEGMENT PARA USE32 PUBLIC 'CODE'
_TEXT	ENDS
;	COMDAT ??_7CAtlStringMgr@ATL@@6B@
CONST	SEGMENT DWORD USE32 PUBLIC 'CONST'
CONST	ENDS
;	COMDAT ?FindStringResourceInstance@?$StrTraitMFC_DLL@DV?$ChTraitsCRT@D@ATL@@@@SAPAUHINSTANCE__@@I@Z
_TEXT	SEGMENT PARA USE32 PUBLIC 'CODE'
_TEXT	ENDS
;	COMDAT ?AtlGetStringResourceImage@ATL@@YAPBUATLSTRINGRESOURCEIMAGE@1@PAUHINSTANCE__@@I@Z
_TEXT	SEGMENT PARA USE32 PUBLIC 'CODE'
_TEXT	ENDS
;	COMDAT ?_AtlGetStringResourceImage@ATL@@YAPBUATLSTRINGRESOURCEIMAGE@1@PAUHINSTANCE__@@PAUHRSRC__@@I@Z
_TEXT	SEGMENT PARA USE32 PUBLIC 'CODE'
_TEXT	ENDS
;	COMDAT ?GetBaseTypeLength@?$ChTraitsCRT@D@ATL@@SAHPB_WH@Z
_TEXT	SEGMENT PARA USE32 PUBLIC 'CODE'
_TEXT	ENDS
;	COMDAT ?ConvertToBaseType@?$ChTraitsCRT@D@ATL@@SAXPADHPB_WH@Z
_TEXT	SEGMENT PARA USE32 PUBLIC 'CODE'
_TEXT	ENDS
sxdata	SEGMENT DWORD USE32 'SXDATA'
sxdata	ENDS
FLAT	GROUP _DATA, CONST, _BSS
	ASSUME	CS: FLAT, DS: FLAT, SS: FLAT
endif

INCLUDELIB MSVCRT
INCLUDELIB OLDNAMES

PUBLIC	?_strthunks@ATL@@3U_AtlStringThunks@1@A		; ATL::_strthunks
PUBLIC	?GetEnvironmentVariableWThunk@ATL@@YGKPB_WPA_WK@Z ; ATL::GetEnvironmentVariableWThunk
PUBLIC	?CompareStringWThunk@ATL@@YGHKKPB_WH0H@Z	; ATL::CompareStringWThunk
PUBLIC	?GetStringTypeExWThunk@ATL@@YGHKKPB_WHPAG@Z	; ATL::GetStringTypeExWThunk
PUBLIC	?lstrcmpiWThunk@ATL@@YGHPB_W0@Z			; ATL::lstrcmpiWThunk
PUBLIC	?CharLowerWThunk@ATL@@YGPA_WPA_W@Z		; ATL::CharLowerWThunk
PUBLIC	?CharUpperWThunk@ATL@@YGPA_WPA_W@Z		; ATL::CharUpperWThunk
PUBLIC	?c_bIsMFCDLLTraits@?$_MFCDLLTraitsCheck@DV?$StrTraitATL@DV?$ChTraitsCRT@D@ATL@@@ATL@@@_CSTRING_IMPL_@ATL@@2_NB ; ATL::_CSTRING_IMPL_::_MFCDLLTraitsCheck<char,ATL::StrTraitATL<char,ATL::ChTraitsCRT<char> > >::c_bIsMFCDLLTraits
PUBLIC	?g_pfnGetThreadACP@ATL@@3P6GIXZA		; ATL::g_pfnGetThreadACP
PUBLIC	?_AtlGetThreadACPThunk@ATL@@YGIXZ		; ATL::_AtlGetThreadACPThunk
PUBLIC	?c_bIsMFCDLLTraits@?$_MFCDLLTraitsCheck@_WV?$StrTraitATL@_WV?$ChTraitsCRT@_W@ATL@@@ATL@@@_CSTRING_IMPL_@ATL@@2_NB ; ATL::_CSTRING_IMPL_::_MFCDLLTraitsCheck<wchar_t,ATL::StrTraitATL<wchar_t,ATL::ChTraitsCRT<wchar_t> > >::c_bIsMFCDLLTraits
PUBLIC	?m_pSelf@CWebManager@@2PAV1@A			; CWebManager::m_pSelf
_BSS	SEGMENT
?m_pSelf@CWebManager@@2PAV1@A DD 01H DUP (?)		; CWebManager::m_pSelf
_BSS	ENDS
;	COMDAT ?c_bIsMFCDLLTraits@?$_MFCDLLTraitsCheck@DV?$StrTraitATL@DV?$ChTraitsCRT@D@ATL@@@ATL@@@_CSTRING_IMPL_@ATL@@2_NB
CONST	SEGMENT
?c_bIsMFCDLLTraits@?$_MFCDLLTraitsCheck@DV?$StrTraitATL@DV?$ChTraitsCRT@D@ATL@@@ATL@@@_CSTRING_IMPL_@ATL@@2_NB DB 00H ; ATL::_CSTRING_IMPL_::_MFCDLLTraitsCheck<char,ATL::StrTraitATL<char,ATL::ChTraitsCRT<char> > >::c_bIsMFCDLLTraits
CONST	ENDS
;	COMDAT ?c_bIsMFCDLLTraits@?$_MFCDLLTraitsCheck@_WV?$StrTraitATL@_WV?$ChTraitsCRT@_W@ATL@@@ATL@@@_CSTRING_IMPL_@ATL@@2_NB
CONST	SEGMENT
?c_bIsMFCDLLTraits@?$_MFCDLLTraitsCheck@_WV?$StrTraitATL@_WV?$ChTraitsCRT@_W@ATL@@@ATL@@@_CSTRING_IMPL_@ATL@@2_NB DB 00H ; ATL::_CSTRING_IMPL_::_MFCDLLTraitsCheck<wchar_t,ATL::StrTraitATL<wchar_t,ATL::ChTraitsCRT<wchar_t> > >::c_bIsMFCDLLTraits
CONST	ENDS
CONST	SEGMENT
$SG201069 DB	'int', 00H
CONST	ENDS
_DATA	SEGMENT
_TYPE_CONFIG_INT DD FLAT:$SG201069
_DATA	ENDS
CONST	SEGMENT
$SG201071 DB	'str', 00H
CONST	ENDS
_DATA	SEGMENT
_TYPE_CONFIG_STR DD FLAT:$SG201071
_DATA	ENDS
CONST	SEGMENT
$SG201073 DB	'double', 00H
CONST	ENDS
_DATA	SEGMENT
_TYPE_CONFIG_DOUBLE DD FLAT:$SG201073
_DATA	ENDS
CONST	SEGMENT
	ORG $+1
$SG201075 DB	'bool', 00H
CONST	ENDS
_DATA	SEGMENT
_TYPE_CONFIG_BOOL DD FLAT:$SG201075
_DATA	ENDS
CONST	SEGMENT
	ORG $+3
$SG201077 DB	'sepint', 00H
CONST	ENDS
_DATA	SEGMENT
_TYPE_CONFIG_INT_HASSEP DD FLAT:$SG201077
_DATA	ENDS
CONST	SEGMENT
	ORG $+1
$SG201079 DB	'sepstr', 00H
CONST	ENDS
_DATA	SEGMENT
_TYPE_CONFIG_STR_HASSEP DD FLAT:$SG201079
_DATA	ENDS
CONST	SEGMENT
	ORG $+1
$SG201081 DB	'sepdouble', 00H
CONST	ENDS
_DATA	SEGMENT
_TYPE_CONFIG_DOUBLE_HASSEP DD FLAT:$SG201081
_DATA	ENDS
CONST	SEGMENT
	ORG $+2
$SG201083 DB	'sepbool', 00H
CONST	ENDS
_DATA	SEGMENT
_TYPE_CONFIG_BOOL_HASSEP DD FLAT:$SG201083
_DATA	ENDS
CONST	SEGMENT
$SG201085 DB	'Setting', 00H
CONST	ENDS
_DATA	SEGMENT
_CONF_SETTING_MODULE_NAME DD FLAT:$SG201085
_DATA	ENDS
CONST	SEGMENT
$SG201087 DB	'skin', 00H
CONST	ENDS
_DATA	SEGMENT
_CONF_SETTING_SKIN_IDX DD FLAT:$SG201087
_DATA	ENDS
CONST	SEGMENT
	ORG $+3
$SG201089 DB	'MainPage', 00H
CONST	ENDS
_DATA	SEGMENT
_CONF_SETTING_CONFIG_MAIN_PAGE DD FLAT:$SG201089
_DATA	ENDS
CONST	SEGMENT
	ORG $+3
$SG201091 DB	'ProblemReport', 00H
CONST	ENDS
_DATA	SEGMENT
_CONF_SETTING_CONFIG_PROBLEM_REPORT DD FLAT:$SG201091
_DATA	ENDS
CONST	SEGMENT
	ORG $+2
$SG201093 DB	'HomePage', 00H
CONST	ENDS
_DATA	SEGMENT
_CONF_SETTING_CONFIG_HOME_PAGE DD FLAT:$SG201093
_DATA	ENDS
CONST	SEGMENT
	ORG $+3
$SG201095 DB	'askexit', 00H
CONST	ENDS
_DATA	SEGMENT
_CONF_SETTING_CONFIG_IFASKEXIT DD FLAT:$SG201095
_DATA	ENDS
CONST	SEGMENT
$SG201097 DB	'exitchoice', 00H
CONST	ENDS
_DATA	SEGMENT
_CONF_SETTING_CONFIG_EXITCHOICE DD FLAT:$SG201097
_DATA	ENDS
CONST	SEGMENT
	ORG $+1
$SG201099 DB	'UN', 00H
CONST	ENDS
_DATA	SEGMENT
_CONF_SETTING_LOGIN_USER_NAME DD FLAT:$SG201099
_DATA	ENDS
CONST	SEGMENT
	ORG $+1
$SG201101 DB	'PW', 00H
CONST	ENDS
_DATA	SEGMENT
_CONF_SETTING_LOGIN_PASSWORD DD FLAT:$SG201101
_DATA	ENDS
CONST	SEGMENT
	ORG $+1
$SG201103 DB	'NetID', 00H
CONST	ENDS
_DATA	SEGMENT
_CONF_SETTING_NETID DD FLAT:$SG201103
_DATA	ENDS
CONST	SEGMENT
	ORG $+2
$SG201105 DB	'ChangeColorValue', 00H
CONST	ENDS
_DATA	SEGMENT
_CONF_SETTING_COLOR DD FLAT:$SG201105
_DATA	ENDS
CONST	SEGMENT
	ORG $+3
$SG201107 DB	'changeColorLight', 00H
CONST	ENDS
_DATA	SEGMENT
_CONF_SETTING_LIGHT DD FLAT:$SG201107
_DATA	ENDS
CONST	SEGMENT
	ORG $+3
$SG201109 DB	'ColorIndex', 00H
CONST	ENDS
_DATA	SEGMENT
_CONF_SETTING_COLOR_BTN_INDEX DD FLAT:$SG201109
_DATA	ENDS
CONST	SEGMENT
	ORG $+1
$SG201111 DB	'ColorUser', 00H
CONST	ENDS
_DATA	SEGMENT
_CONF_SETTING_COLOR_USER DD FLAT:$SG201111
_DATA	ENDS
CONST	SEGMENT
	ORG $+2
$SG201113 DB	'FirstTimeChangeSkin', 00H
CONST	ENDS
_DATA	SEGMENT
_CONF_SETTING_FIRST_TIME_CHANGESKIN DD FLAT:$SG201113
_DATA	ENDS
CONST	SEGMENT
$SG201120 DB	'App', 00H
CONST	ENDS
_DATA	SEGMENT
_CONF_APP_MODULE_NAME DD FLAT:$SG201120
_DATA	ENDS
CONST	SEGMENT
$SG201122 DB	'SwfPath', 00H
CONST	ENDS
_DATA	SEGMENT
_CONF_APP_SWF_PATH DD FLAT:$SG201122
_DATA	ENDS
CONST	SEGMENT
$SG201124 DB	'MainWndHold', 00H
CONST	ENDS
_DATA	SEGMENT
_CONF_APP_MAINWND_HOLD DD FLAT:$SG201124
_DATA	ENDS
CONST	SEGMENT
$SG201126 DB	'RunCount', 00H
CONST	ENDS
_DATA	SEGMENT
_CONF_APP_RUN_COUNT DD FLAT:$SG201126
_DATA	ENDS
CONST	SEGMENT
	ORG $+3
$SG201128 DB	'PlayedGame', 00H
CONST	ENDS
_DATA	SEGMENT
_CONF_APP_PLAYED_GAME DD FLAT:$SG201128
_DATA	ENDS
CONST	SEGMENT
	ORG $+1
$SG201130 DB	'playedPcGame', 00H
CONST	ENDS
_DATA	SEGMENT
_CONF_APP_PLAYED_PC_GAME DD FLAT:$SG201130
_DATA	ENDS
CONST	SEGMENT
	ORG $+3
$SG201132 DB	'PlayedIconSize', 00H
CONST	ENDS
_DATA	SEGMENT
_CONF_APP_PLAYED_ICON_SIZE DD FLAT:$SG201132
_DATA	ENDS
CONST	SEGMENT
	ORG $+1
$SG201134 DB	'PictureSavePath', 00H
CONST	ENDS
_DATA	SEGMENT
_CONF_APP_PIC_SAVE_PATH DD FLAT:$SG201134
_DATA	ENDS
CONST	SEGMENT
$SG201450 DB	'%s', 00H
	ORG $+1
$SG201451 DB	'CallKwMusic', 00H
$SG201452 DB	'KPlugin.txt', 00H
$SG201456 DB	0aH, 0aH, 00H
	ORG $+1
$SG201464 DB	0aH, 00H
$SG201468 DB	00H
	ORG $+1
$SG201472 DB	'method', 00H
	ORG $+1
$SG201474 DB	'flashgame', 00H
	ORG $+2
$SG201478 DB	'webgame', 00H
$SG201482 DB	'refresh', 00H
$SG201486 DB	'opennewtab', 00H
	ORG $+1
$SG201490 DB	'checkdlstatus', 00H
	ORG $+2
$SG201493 DB	0aH, 00H
	ORG $+2
$SG202010 DB	'url', 00H
$SG202012 DB	'res=ok', 0aH, 0aH, 00H
	ORG $+3
$SG202013 DB	'res=err', 0aH, 0aH, 00H
	ORG $+2
$SG202022 DB	'id', 00H
	ORG $+1
$SG202026 DB	'name', 00H
	ORG $+3
$SG202030 DB	'swfurl', 00H
	ORG $+1
$SG202042 DB	'.swf', 00H
	ORG $+3
$SG202048 DB	'PlaySwfGame:', 00H
	ORG $+3
$SG202051 DB	'PLAYGAME', 00H
	ORG $+3
$SG202052 DB	'res=ok', 0aH, 0aH, 00H
	ORG $+3
$SG202054 DB	'res=err', 0aH, 0aH, 00H
	ORG $+2
$SG202067 DB	'id', 00H
	ORG $+1
$SG202071 DB	'name', 00H
	ORG $+3
$SG202075 DB	'url', 00H
$SG202087 DB	'http://', 00H
$SG202093 DB	'PlayWebGame:', 00H
	ORG $+3
$SG202096 DB	'PLAYGAME', 00H
	ORG $+3
$SG202097 DB	'res=ok', 0aH, 0aH, 00H
	ORG $+3
$SG202098 DB	'res=err', 0aH, 0aH, 00H
	ORG $+2
$SG202107 DB	'id', 00H
	ORG $+1
$SG202111 DB	'name', 00H
	ORG $+3
$SG202115 DB	'infourl', 00H
$SG202117 DB	'param=%s', 00H
$SG202120 DB	00H
	ORG $+2
$SG202129 DB	'id', 00H
	ORG $+1
$SG202134 DB	'run', 00H
$SG202135 DB	'download', 00H
	ORG $+3
$SG202145 DB	'setdownloadpic', 00H
$SG202149 DB	00H
$SG202171 DB	0aH, 00H
$SG202175 DB	00H
	ORG $+1
$SG202180 DB	0aH, 00H
$SG202214 DB	00H
CONST	ENDS
;	COMDAT ?g_pfnGetThreadACP@ATL@@3P6GIXZA
_DATA	SEGMENT
?g_pfnGetThreadACP@ATL@@3P6GIXZA DD FLAT:?_AtlGetThreadACPThunk@ATL@@YGIXZ ; ATL::g_pfnGetThreadACP
_DATA	ENDS
;	COMDAT ?_strthunks@ATL@@3U_AtlStringThunks@1@A
_DATA	SEGMENT
?_strthunks@ATL@@3U_AtlStringThunks@1@A DD FLAT:?CompareStringWThunk@ATL@@YGHKKPB_WH0H@Z ; ATL::_strthunks
	DD	FLAT:?GetStringTypeExWThunk@ATL@@YGHKKPB_WHPAG@Z
	DD	FLAT:?lstrcmpiWThunk@ATL@@YGHPB_W0@Z
	DD	FLAT:?CharLowerWThunk@ATL@@YGPA_WPA_W@Z
	DD	FLAT:?CharUpperWThunk@ATL@@YGPA_WPA_W@Z
	DD	FLAT:?GetEnvironmentVariableWThunk@ATL@@YGKPB_WPA_WK@Z
_DATA	ENDS
CONST	SEGMENT
	ORG $+1
_ID_MESSAGE_REFRESH DD 04H
_ID_DATA_TABBAR DD 07H
_ID_DATA_LOCALGAME DD 0aH
CONST	ENDS
PUBLIC	?InterlockedExchangePointer@@YGPAXPAPAXPAX@Z	; InterlockedExchangePointer
PUBLIC	?_AtlGetThreadACPFake@ATL@@YGIXZ		; ATL::_AtlGetThreadACPFake
PUBLIC	?_AtlGetThreadACPReal@ATL@@YGIXZ		; ATL::_AtlGetThreadACPReal
EXTRN	__imp__GetVersionExA@4:NEAR
EXTRN	___security_cookie:DWORD
EXTRN	@__security_check_cookie@4:NEAR
; Function compile flags: /Odt
; File d:\program files (x86)\microsoft visual studio .net 2003\vc7\atlmfc\include\atlconv.h
;	COMDAT ?_AtlGetThreadACPThunk@ATL@@YGIXZ
_TEXT	SEGMENT
_pfnGetThreadACP$ = -164				; size = 4
_ver$ = -160						; size = 148
__$ArrayPad$ = -4					; size = 4
__$ReturnAddr$ = 4					; size = 4
?_AtlGetThreadACPThunk@ATL@@YGIXZ PROC NEAR		; ATL::_AtlGetThreadACPThunk, COMDAT

; 134  : {

  00000	55		 push	 ebp
  00001	8b ec		 mov	 ebp, esp
  00003	81 ec a4 00 00
	00		 sub	 esp, 164		; 000000a4H
  00009	a1 00 00 00 00	 mov	 eax, DWORD PTR ___security_cookie
  0000e	89 45 fc	 mov	 DWORD PTR __$ArrayPad$[ebp], eax

; 135  : 	OSVERSIONINFO ver;
; 136  : 	ATLGETTHREADACP pfnGetThreadACP;
; 137  : 
; 138  : 	ver.dwOSVersionInfoSize = sizeof( ver );

  00011	c7 85 60 ff ff
	ff 94 00 00 00	 mov	 DWORD PTR _ver$[ebp], 148 ; 00000094H

; 139  : 	::GetVersionEx( &ver );

  0001b	8d 85 60 ff ff
	ff		 lea	 eax, DWORD PTR _ver$[ebp]
  00021	50		 push	 eax
  00022	ff 15 00 00 00
	00		 call	 DWORD PTR __imp__GetVersionExA@4

; 140  : 	if( (ver.dwPlatformId == VER_PLATFORM_WIN32_NT) && (ver.dwMajorVersion >= 5) )

  00028	83 bd 70 ff ff
	ff 02		 cmp	 DWORD PTR _ver$[ebp+16], 2
  0002f	75 15		 jne	 SHORT $L24173
  00031	83 bd 64 ff ff
	ff 05		 cmp	 DWORD PTR _ver$[ebp+4], 5
  00038	72 0c		 jb	 SHORT $L24173

; 141  : 	{
; 142  : 		// On Win2K, CP_THREAD_ACP is supported
; 143  : 		pfnGetThreadACP = _AtlGetThreadACPReal;

  0003a	c7 85 5c ff ff
	ff 00 00 00 00	 mov	 DWORD PTR _pfnGetThreadACP$[ebp], OFFSET FLAT:?_AtlGetThreadACPReal@ATL@@YGIXZ ; ATL::_AtlGetThreadACPReal

; 144  : 	}
; 145  : 	else

  00044	eb 0a		 jmp	 SHORT $L24174
$L24173:

; 146  : 	{
; 147  : 		pfnGetThreadACP = _AtlGetThreadACPFake;

  00046	c7 85 5c ff ff
	ff 00 00 00 00	 mov	 DWORD PTR _pfnGetThreadACP$[ebp], OFFSET FLAT:?_AtlGetThreadACPFake@ATL@@YGIXZ ; ATL::_AtlGetThreadACPFake
$L24174:

; 148  : 	}
; 149  : 	InterlockedExchangePointer( reinterpret_cast< void** >(&g_pfnGetThreadACP), pfnGetThreadACP );

  00050	8b 8d 5c ff ff
	ff		 mov	 ecx, DWORD PTR _pfnGetThreadACP$[ebp]
  00056	51		 push	 ecx
  00057	68 00 00 00 00	 push	 OFFSET FLAT:?g_pfnGetThreadACP@ATL@@3P6GIXZA ; ATL::g_pfnGetThreadACP
  0005c	e8 00 00 00 00	 call	 ?InterlockedExchangePointer@@YGPAXPAPAXPAX@Z ; InterlockedExchangePointer

; 150  : 
; 151  : 	return( g_pfnGetThreadACP() );

  00061	ff 15 00 00 00
	00		 call	 DWORD PTR ?g_pfnGetThreadACP@ATL@@3P6GIXZA ; ATL::g_pfnGetThreadACP

; 152  : }

  00067	8b 4d fc	 mov	 ecx, DWORD PTR __$ArrayPad$[ebp]
  0006a	e8 00 00 00 00	 call	 @__security_check_cookie@4
  0006f	8b e5		 mov	 esp, ebp
  00071	5d		 pop	 ebp
  00072	c3		 ret	 0
?_AtlGetThreadACPThunk@ATL@@YGIXZ ENDP			; ATL::_AtlGetThreadACPThunk
_TEXT	ENDS
EXTRN	__imp__InterlockedExchange@8:NEAR
; Function compile flags: /Odt
;	COMDAT ?InterlockedExchangePointer@@YGPAXPAPAXPAX@Z
_TEXT	SEGMENT
_pp$ = 8						; size = 4
_pNew$ = 12						; size = 4
?InterlockedExchangePointer@@YGPAXPAPAXPAX@Z PROC NEAR	; InterlockedExchangePointer, COMDAT

; 91   : {

  00000	55		 push	 ebp
  00001	8b ec		 mov	 ebp, esp

; 92   : 	return( reinterpret_cast<void*>(static_cast<LONG_PTR>(::InterlockedExchange(reinterpret_cast<LONG*>(pp), static_cast<LONG>(reinterpret_cast<LONG_PTR>(pNew))))) );

  00003	8b 45 0c	 mov	 eax, DWORD PTR _pNew$[ebp]
  00006	50		 push	 eax
  00007	8b 4d 08	 mov	 ecx, DWORD PTR _pp$[ebp]
  0000a	51		 push	 ecx
  0000b	ff 15 00 00 00
	00		 call	 DWORD PTR __imp__InterlockedExchange@8

; 93   : }

  00011	5d		 pop	 ebp
  00012	c2 08 00	 ret	 8
?InterlockedExchangePointer@@YGPAXPAPAXPAX@Z ENDP	; InterlockedExchangePointer
_TEXT	ENDS
EXTRN	__imp__GetACP@0:NEAR
EXTRN	__imp__GetLocaleInfoA@16:NEAR
EXTRN	__imp__GetThreadLocale@0:NEAR
; Function compile flags: /Odt
;	COMDAT ?_AtlGetThreadACPFake@ATL@@YGIXZ
_TEXT	SEGMENT
_pch$24161 = -24					; size = 4
_lcidThread$ = -20					; size = 4
_szACP$ = -16						; size = 7
__$ArrayPad$ = -8					; size = 4
_nACP$ = -4						; size = 4
__$ReturnAddr$ = 4					; size = 4
?_AtlGetThreadACPFake@ATL@@YGIXZ PROC NEAR		; ATL::_AtlGetThreadACPFake, COMDAT

; 101  : {

  00000	55		 push	 ebp
  00001	8b ec		 mov	 ebp, esp
  00003	83 ec 18	 sub	 esp, 24			; 00000018H
  00006	a1 00 00 00 00	 mov	 eax, DWORD PTR ___security_cookie
  0000b	89 45 f8	 mov	 DWORD PTR __$ArrayPad$[ebp], eax

; 102  : 	UINT nACP = 0;

  0000e	c7 45 fc 00 00
	00 00		 mov	 DWORD PTR _nACP$[ebp], 0

; 103  : 
; 104  : 	LCID lcidThread = ::GetThreadLocale();

  00015	ff 15 00 00 00
	00		 call	 DWORD PTR __imp__GetThreadLocale@0
  0001b	89 45 ec	 mov	 DWORD PTR _lcidThread$[ebp], eax

; 105  : 
; 106  : 	char szACP[7];
; 107  : 	// GetLocaleInfoA will fail for a Unicode-only LCID, but those are only supported on 
; 108  : 	// Windows 2000.  Since Windows 2000 supports CP_THREAD_ACP, this code path is never
; 109  : 	// executed on Windows 2000.
; 110  : 	if (::GetLocaleInfoA(lcidThread, LOCALE_IDEFAULTANSICODEPAGE, szACP, 7) != 0)

  0001e	6a 07		 push	 7
  00020	8d 45 f0	 lea	 eax, DWORD PTR _szACP$[ebp]
  00023	50		 push	 eax
  00024	68 04 10 00 00	 push	 4100			; 00001004H
  00029	8b 4d ec	 mov	 ecx, DWORD PTR _lcidThread$[ebp]
  0002c	51		 push	 ecx
  0002d	ff 15 00 00 00
	00		 call	 DWORD PTR __imp__GetLocaleInfoA@16
  00033	85 c0		 test	 eax, eax
  00035	74 34		 je	 SHORT $L24160

; 111  : 	{
; 112  : 		char* pch = szACP;

  00037	8d 55 f0	 lea	 edx, DWORD PTR _szACP$[ebp]
  0003a	89 55 e8	 mov	 DWORD PTR _pch$24161[ebp], edx
$L24163:

; 113  : 		while (*pch != '\0')

  0003d	8b 45 e8	 mov	 eax, DWORD PTR _pch$24161[ebp]
  00040	0f be 08	 movsx	 ecx, BYTE PTR [eax]
  00043	85 c9		 test	 ecx, ecx
  00045	74 24		 je	 SHORT $L24160

; 114  : 		{
; 115  : 			nACP *= 10;

  00047	8b 55 fc	 mov	 edx, DWORD PTR _nACP$[ebp]
  0004a	6b d2 0a	 imul	 edx, 10			; 0000000aH
  0004d	89 55 fc	 mov	 DWORD PTR _nACP$[ebp], edx

; 116  : 			nACP += *pch++ - '0';

  00050	8b 45 e8	 mov	 eax, DWORD PTR _pch$24161[ebp]
  00053	0f be 08	 movsx	 ecx, BYTE PTR [eax]
  00056	8b 55 fc	 mov	 edx, DWORD PTR _nACP$[ebp]
  00059	8d 44 0a d0	 lea	 eax, DWORD PTR [edx+ecx-48]
  0005d	89 45 fc	 mov	 DWORD PTR _nACP$[ebp], eax
  00060	8b 4d e8	 mov	 ecx, DWORD PTR _pch$24161[ebp]
  00063	83 c1 01	 add	 ecx, 1
  00066	89 4d e8	 mov	 DWORD PTR _pch$24161[ebp], ecx

; 117  : 		}

  00069	eb d2		 jmp	 SHORT $L24163
$L24160:

; 118  : 	}
; 119  : 	// Use the Default ANSI Code Page if we were unable to get the thread ACP or if one does not exist.
; 120  : 	if (nACP == 0)

  0006b	83 7d fc 00	 cmp	 DWORD PTR _nACP$[ebp], 0
  0006f	75 09		 jne	 SHORT $L24165

; 121  : 		nACP = ::GetACP();

  00071	ff 15 00 00 00
	00		 call	 DWORD PTR __imp__GetACP@0
  00077	89 45 fc	 mov	 DWORD PTR _nACP$[ebp], eax
$L24165:

; 122  : 
; 123  : 	return nACP;

  0007a	8b 45 fc	 mov	 eax, DWORD PTR _nACP$[ebp]

; 124  : }

  0007d	8b 4d f8	 mov	 ecx, DWORD PTR __$ArrayPad$[ebp]
  00080	e8 00 00 00 00	 call	 @__security_check_cookie@4
  00085	8b e5		 mov	 esp, ebp
  00087	5d		 pop	 ebp
  00088	c3		 ret	 0
?_AtlGetThreadACPFake@ATL@@YGIXZ ENDP			; ATL::_AtlGetThreadACPFake
; Function compile flags: /Odt
_TEXT	ENDS
;	COMDAT ?_AtlGetThreadACPReal@ATL@@YGIXZ
_TEXT	SEGMENT
?_AtlGetThreadACPReal@ATL@@YGIXZ PROC NEAR		; ATL::_AtlGetThreadACPReal, COMDAT

; 127  : {

  00000	55		 push	 ebp
  00001	8b ec		 mov	 ebp, esp

; 128  : 	return( CP_THREAD_ACP );

  00003	b8 03 00 00 00	 mov	 eax, 3

; 129  : }

  00008	5d		 pop	 ebp
  00009	c3		 ret	 0
?_AtlGetThreadACPReal@ATL@@YGIXZ ENDP			; ATL::_AtlGetThreadACPReal
_TEXT	ENDS
PUBLIC	??0CWebManager@@QAE@XZ				; CWebManager::CWebManager
EXTRN	??0CWebPage@@QAE@XZ:NEAR			; CWebPage::CWebPage
; Function compile flags: /Odt
; File d:\boxgit\playbox\playbox\dev\prj\playbox\src\module\webinteract\webmanager.cpp
_TEXT	SEGMENT
_this$ = -4						; size = 4
??0CWebManager@@QAE@XZ PROC NEAR			; CWebManager::CWebManager
; _this$ = ecx

; 18   : {

  00000	55		 push	 ebp
  00001	8b ec		 mov	 ebp, esp
  00003	51		 push	 ecx
  00004	89 4d fc	 mov	 DWORD PTR _this$[ebp], ecx
  00007	8b 4d fc	 mov	 ecx, DWORD PTR _this$[ebp]
  0000a	e8 00 00 00 00	 call	 ??0CWebPage@@QAE@XZ	; CWebPage::CWebPage

; 19   : }

  0000f	8b 45 fc	 mov	 eax, DWORD PTR _this$[ebp]
  00012	8b e5		 mov	 esp, ebp
  00014	5d		 pop	 ebp
  00015	c3		 ret	 0
??0CWebManager@@QAE@XZ ENDP				; CWebManager::CWebManager
_TEXT	ENDS
PUBLIC	??1CWebManager@@QAE@XZ				; CWebManager::~CWebManager
EXTRN	??1CWebPage@@UAE@XZ:NEAR			; CWebPage::~CWebPage
; Function compile flags: /Odt
_TEXT	SEGMENT
_this$ = -4						; size = 4
??1CWebManager@@QAE@XZ PROC NEAR			; CWebManager::~CWebManager
; _this$ = ecx

; 21   : {

  00020	55		 push	 ebp
  00021	8b ec		 mov	 ebp, esp
  00023	51		 push	 ecx
  00024	89 4d fc	 mov	 DWORD PTR _this$[ebp], ecx

; 22   : }

  00027	8b 4d fc	 mov	 ecx, DWORD PTR _this$[ebp]
  0002a	e8 00 00 00 00	 call	 ??1CWebPage@@UAE@XZ	; CWebPage::~CWebPage
  0002f	8b e5		 mov	 esp, ebp
  00031	5d		 pop	 ebp
  00032	c3		 ret	 0
??1CWebManager@@QAE@XZ ENDP				; CWebManager::~CWebManager
_TEXT	ENDS
PUBLIC	?GetInstance@CWebManager@@SAPAV1@XZ		; CWebManager::GetInstance
EXTRN	??2@YAPAXI@Z:NEAR				; operator new
EXTRN	??3@YAXPAX@Z:NEAR				; operator delete
EXTRN	__except_list:DWORD
EXTRN	___CxxFrameHandler:NEAR
xdata$x	SEGMENT
$T203464 DD	0ffffffffH
	DD	FLAT:$L203457
$T203461 DD	019930520H
	DD	01H
	DD	FLAT:$T203464
	DD	2 DUP(00H)
	DD	2 DUP(00H)
; Function compile flags: /Odt
xdata$x	ENDS
_TEXT	SEGMENT
tv72 = -24						; size = 4
$T203454 = -20						; size = 4
$T203453 = -16						; size = 4
__$EHRec$ = -12						; size = 12
?GetInstance@CWebManager@@SAPAV1@XZ PROC NEAR		; CWebManager::GetInstance

; 25   : {	

  00040	55		 push	 ebp
  00041	8b ec		 mov	 ebp, esp
  00043	6a ff		 push	 -1
  00045	68 00 00 00 00	 push	 __ehhandler$?GetInstance@CWebManager@@SAPAV1@XZ
  0004a	64 a1 00 00 00
	00		 mov	 eax, DWORD PTR fs:__except_list
  00050	50		 push	 eax
  00051	64 89 25 00 00
	00 00		 mov	 DWORD PTR fs:__except_list, esp
  00058	83 ec 0c	 sub	 esp, 12			; 0000000cH

; 26   : 	if( m_pSelf == NULL )

  0005b	83 3d 00 00 00
	00 00		 cmp	 DWORD PTR ?m_pSelf@CWebManager@@2PAV1@A, 0 ; CWebManager::m_pSelf
  00062	75 44		 jne	 SHORT $L201429

; 27   : 	{
; 28   : 		m_pSelf = new CWebManager();

  00064	6a 0c		 push	 12			; 0000000cH
  00066	e8 00 00 00 00	 call	 ??2@YAPAXI@Z		; operator new
  0006b	83 c4 04	 add	 esp, 4
  0006e	89 45 ec	 mov	 DWORD PTR $T203454[ebp], eax
  00071	c7 45 fc 00 00
	00 00		 mov	 DWORD PTR __$EHRec$[ebp+8], 0
  00078	83 7d ec 00	 cmp	 DWORD PTR $T203454[ebp], 0
  0007c	74 0d		 je	 SHORT $L203455
  0007e	8b 4d ec	 mov	 ecx, DWORD PTR $T203454[ebp]
  00081	e8 00 00 00 00	 call	 ??0CWebManager@@QAE@XZ	; CWebManager::CWebManager
  00086	89 45 e8	 mov	 DWORD PTR tv72[ebp], eax
  00089	eb 07		 jmp	 SHORT $L203456
$L203455:
  0008b	c7 45 e8 00 00
	00 00		 mov	 DWORD PTR tv72[ebp], 0
$L203456:
  00092	8b 45 e8	 mov	 eax, DWORD PTR tv72[ebp]
  00095	89 45 f0	 mov	 DWORD PTR $T203453[ebp], eax
  00098	c7 45 fc ff ff
	ff ff		 mov	 DWORD PTR __$EHRec$[ebp+8], -1
  0009f	8b 4d f0	 mov	 ecx, DWORD PTR $T203453[ebp]
  000a2	89 0d 00 00 00
	00		 mov	 DWORD PTR ?m_pSelf@CWebManager@@2PAV1@A, ecx ; CWebManager::m_pSelf
$L201429:

; 29   : 	}
; 30   : 	return m_pSelf;

  000a8	a1 00 00 00 00	 mov	 eax, DWORD PTR ?m_pSelf@CWebManager@@2PAV1@A ; CWebManager::m_pSelf

; 31   : }

  000ad	8b 4d f4	 mov	 ecx, DWORD PTR __$EHRec$[ebp]
  000b0	64 89 0d 00 00
	00 00		 mov	 DWORD PTR fs:__except_list, ecx
  000b7	8b e5		 mov	 esp, ebp
  000b9	5d		 pop	 ebp
  000ba	c3		 ret	 0
_TEXT	ENDS
text$x	SEGMENT
$L203457:
  00000	8b 45 ec	 mov	 eax, DWORD PTR $T203454[ebp]
  00003	50		 push	 eax
  00004	e8 00 00 00 00	 call	 ??3@YAXPAX@Z		; operator delete
  00009	59		 pop	 ecx
  0000a	c3		 ret	 0
__ehhandler$?GetInstance@CWebManager@@SAPAV1@XZ:
  0000b	b8 00 00 00 00	 mov	 eax, OFFSET FLAT:$T203461
  00010	e9 00 00 00 00	 jmp	 ___CxxFrameHandler
text$x	ENDS
?GetInstance@CWebManager@@SAPAV1@XZ ENDP		; CWebManager::GetInstance
PUBLIC	?DelInstance@CWebManager@@SAXXZ			; CWebManager::DelInstance
PUBLIC	??_GCWebManager@@QAEPAXI@Z			; CWebManager::`scalar deleting destructor'
; Function compile flags: /Odt
_TEXT	SEGMENT
tv69 = -12						; size = 4
$T203468 = -8						; size = 4
$T203467 = -4						; size = 4
?DelInstance@CWebManager@@SAXXZ PROC NEAR		; CWebManager::DelInstance

; 34   : {

  000c0	55		 push	 ebp
  000c1	8b ec		 mov	 ebp, esp
  000c3	83 ec 0c	 sub	 esp, 12			; 0000000cH

; 35   : 	if( m_pSelf != NULL )

  000c6	83 3d 00 00 00
	00 00		 cmp	 DWORD PTR ?m_pSelf@CWebManager@@2PAV1@A, 0 ; CWebManager::m_pSelf
  000cd	74 2a		 je	 SHORT $L201435

; 36   : 	{
; 37   : 		delete m_pSelf;

  000cf	a1 00 00 00 00	 mov	 eax, DWORD PTR ?m_pSelf@CWebManager@@2PAV1@A ; CWebManager::m_pSelf
  000d4	89 45 f8	 mov	 DWORD PTR $T203468[ebp], eax
  000d7	8b 4d f8	 mov	 ecx, DWORD PTR $T203468[ebp]
  000da	89 4d fc	 mov	 DWORD PTR $T203467[ebp], ecx
  000dd	83 7d fc 00	 cmp	 DWORD PTR $T203467[ebp], 0
  000e1	74 0f		 je	 SHORT $L203469
  000e3	6a 01		 push	 1
  000e5	8b 4d fc	 mov	 ecx, DWORD PTR $T203467[ebp]
  000e8	e8 00 00 00 00	 call	 ??_GCWebManager@@QAEPAXI@Z
  000ed	89 45 f4	 mov	 DWORD PTR tv69[ebp], eax
  000f0	eb 07		 jmp	 SHORT $L201435
$L203469:
  000f2	c7 45 f4 00 00
	00 00		 mov	 DWORD PTR tv69[ebp], 0
$L201435:

; 38   : 	}
; 39   : }

  000f9	8b e5		 mov	 esp, ebp
  000fb	5d		 pop	 ebp
  000fc	c3		 ret	 0
?DelInstance@CWebManager@@SAXXZ ENDP			; CWebManager::DelInstance
; Function compile flags: /Odt
_TEXT	ENDS
;	COMDAT ??_GCWebManager@@QAEPAXI@Z
_TEXT	SEGMENT
_this$ = -4						; size = 4
___flags$ = 8						; size = 4
??_GCWebManager@@QAEPAXI@Z PROC NEAR			; CWebManager::`scalar deleting destructor', COMDAT
; _this$ = ecx
  00000	55		 push	 ebp
  00001	8b ec		 mov	 ebp, esp
  00003	51		 push	 ecx
  00004	89 4d fc	 mov	 DWORD PTR _this$[ebp], ecx
  00007	8b 4d fc	 mov	 ecx, DWORD PTR _this$[ebp]
  0000a	e8 00 00 00 00	 call	 ??1CWebManager@@QAE@XZ	; CWebManager::~CWebManager
  0000f	8b 45 08	 mov	 eax, DWORD PTR ___flags$[ebp]
  00012	83 e0 01	 and	 eax, 1
  00015	74 0c		 je	 SHORT $L201442
  00017	8b 4d fc	 mov	 ecx, DWORD PTR _this$[ebp]
  0001a	51		 push	 ecx
  0001b	e8 00 00 00 00	 call	 ??3@YAXPAX@Z		; operator delete
  00020	83 c4 04	 add	 esp, 4
$L201442:
  00023	8b 45 fc	 mov	 eax, DWORD PTR _this$[ebp]
  00026	8b e5		 mov	 esp, ebp
  00028	5d		 pop	 ebp
  00029	c2 04 00	 ret	 4
??_GCWebManager@@QAEPAXI@Z ENDP				; CWebManager::`scalar deleting destructor'
_TEXT	ENDS
PUBLIC	??8ATL@@YA_NABV?$CStringT@DV?$StrTraitMFC_DLL@DV?$ChTraitsCRT@D@ATL@@@@@0@PBD@Z ; ATL::operator==
PUBLIC	??9ATL@@YA_NABV?$CStringT@DV?$StrTraitMFC_DLL@DV?$ChTraitsCRT@D@ATL@@@@@0@PBD@Z ; ATL::operator!=
PUBLIC	?CallGBoxFromWeb@CWebManager@@QAEXABV?$basic_string@DU?$char_traits@D@std@@V?$allocator@D@2@@std@@AAV23@@Z ; CWebManager::CallGBoxFromWeb
PUBLIC	?_string_help@CWebManager@@AAEXABV?$CStringT@DV?$StrTraitMFC_DLL@DV?$ChTraitsCRT@D@ATL@@@@@ATL@@AAV23@1@Z ; CWebManager::_string_help
PUBLIC	?_command_playswfgame@CWebManager@@AAE?AV?$basic_string@DU?$char_traits@D@std@@V?$allocator@D@2@@std@@AAV23@@Z ; CWebManager::_command_playswfgame
PUBLIC	?_command_playwebgame@CWebManager@@AAE?AV?$basic_string@DU?$char_traits@D@std@@V?$allocator@D@2@@std@@AAV23@@Z ; CWebManager::_command_playwebgame
PUBLIC	?_command_refresh@CWebManager@@AAE?AV?$basic_string@DU?$char_traits@D@std@@V?$allocator@D@2@@std@@AAV23@@Z ; CWebManager::_command_refresh
PUBLIC	?_command_opennewtab@CWebManager@@AAE?AV?$basic_string@DU?$char_traits@D@std@@V?$allocator@D@2@@std@@AAV23@@Z ; CWebManager::_command_opennewtab
PUBLIC	?_command_checkdlstatus@CWebManager@@AAE?AV?$basic_string@DU?$char_traits@D@std@@V?$allocator@D@2@@std@@AAV23@@Z ; CWebManager::_command_checkdlstatus
EXTRN	__imp_?c_str@?$basic_string@DU?$char_traits@D@std@@V?$allocator@D@2@@std@@QBEPBDXZ:NEAR
EXTRN	__imp_?find@?$basic_string@DU?$char_traits@D@std@@V?$allocator@D@2@@std@@QBEIPBDI@Z:NEAR
EXTRN	__imp_??0?$CStringT@DV?$StrTraitMFC_DLL@DV?$ChTraitsCRT@D@ATL@@@@@ATL@@QAE@XZ:NEAR
EXTRN	__imp_??0?$CStringT@DV?$StrTraitMFC_DLL@DV?$ChTraitsCRT@D@ATL@@@@@ATL@@QAE@PBD@Z:NEAR
EXTRN	__imp_?substr@?$basic_string@DU?$char_traits@D@std@@V?$allocator@D@2@@std@@QBE?AV12@II@Z:NEAR
EXTRN	__imp_??1?$CStringT@DV?$StrTraitMFC_DLL@DV?$ChTraitsCRT@D@ATL@@@@@ATL@@QAE@XZ:NEAR
EXTRN	__imp_??4?$CStringT@DV?$StrTraitMFC_DLL@DV?$ChTraitsCRT@D@ATL@@@@@ATL@@QAEAAV01@ABV01@@Z:NEAR
EXTRN	__imp_?Tokenize@?$CStringT@DV?$StrTraitMFC_DLL@DV?$ChTraitsCRT@D@ATL@@@@@ATL@@QBE?AV12@PBDAAH@Z:NEAR
EXTRN	__imp_?YL_Log@@YAXABV?$basic_string@DU?$char_traits@D@std@@V?$allocator@D@2@@std@@H0PBDZZ:NEAR
EXTRN	__imp_??0?$basic_string@DU?$char_traits@D@std@@V?$allocator@D@2@@std@@QAE@XZ:NEAR
EXTRN	__imp_??0?$basic_string@DU?$char_traits@D@std@@V?$allocator@D@2@@std@@QAE@PBD@Z:NEAR
EXTRN	__imp_??1?$basic_string@DU?$char_traits@D@std@@V?$allocator@D@2@@std@@QAE@XZ:NEAR
EXTRN	__imp_?npos@?$basic_string@DU?$char_traits@D@std@@V?$allocator@D@2@@std@@2IB:DWORD
EXTRN	__imp_??4?$basic_string@DU?$char_traits@D@std@@V?$allocator@D@2@@std@@QAEAAV01@ABV01@@Z:NEAR
xdata$x	SEGMENT
$T203507 DD	0ffffffffH
	DD	FLAT:$L203486
	DD	00H
	DD	FLAT:$L203487
	DD	0ffffffffH
	DD	FLAT:$L203488
	DD	02H
	DD	FLAT:$L203489
	DD	03H
	DD	FLAT:$L203490
	DD	03H
	DD	FLAT:$L203491
	DD	03H
	DD	FLAT:$L203492
	DD	06H
	DD	FLAT:$L203493
	DD	07H
	DD	FLAT:$L203494
	DD	07H
	DD	FLAT:$L203495
	DD	09H
	DD	FLAT:$L203496
	DD	0aH
	DD	FLAT:$L203497
	DD	0aH
	DD	FLAT:$L203498
	DD	0aH
	DD	FLAT:$L203499
	DD	0aH
	DD	FLAT:$L203500
	DD	0aH
	DD	FLAT:$L203501
	DD	0aH
	DD	FLAT:$L203502
$T203504 DD	019930520H
	DD	011H
	DD	FLAT:$T203507
	DD	2 DUP(00H)
	DD	2 DUP(00H)
; Function compile flags: /Odt
xdata$x	ENDS
_TEXT	SEGMENT
tv310 = -432						; size = 4
tv311 = -428						; size = 4
tv302 = -424						; size = 4
tv69 = -420						; size = 4
tv294 = -416						; size = 4
tv75 = -412						; size = 4
tv286 = -408						; size = 4
tv142 = -404						; size = 4
tv278 = -400						; size = 4
tv165 = -396						; size = 4
tv270 = -392						; size = 4
tv168 = -388						; size = 4
tv266 = -384						; size = 4
tv148 = -380						; size = 4
tv262 = -376						; size = 4
tv80 = -372						; size = 4
tv260 = -368						; size = 4
tv83 = -364						; size = 4
_this$ = -360						; size = 4
$T203485 = -356						; size = 4
$T203484 = -352						; size = 28
$T203483 = -324						; size = 28
$T203482 = -296						; size = 28
$T203481 = -268						; size = 28
$T203480 = -240						; size = 28
$T203479 = -212						; size = 4
$T203478 = -208						; size = 28
$T203477 = -180						; size = 28
$T203476 = -152						; size = 28
$T203475 = -124						; size = 28
_strLeft$201469 = -96					; size = 4
_strRight$201470 = -92					; size = 4
_str$ = -88						; size = 4
_curPos$ = -84						; size = 4
_strContent$ = -80					; size = 28
_resToken$ = -52					; size = 4
_strHeader$ = -48					; size = 28
__$ArrayPad$ = -20					; size = 4
_iHeader$ = -16						; size = 4
__$EHRec$ = -12						; size = 12
__$ReturnAddr$ = 4					; size = 4
_strCommand$ = 8					; size = 4
_strRes$ = 12						; size = 4
?CallGBoxFromWeb@CWebManager@@QAEXABV?$basic_string@DU?$char_traits@D@std@@V?$allocator@D@2@@std@@AAV23@@Z PROC NEAR ; CWebManager::CallGBoxFromWeb
; _this$ = ecx

; 42   : {

  00100	55		 push	 ebp
  00101	8b ec		 mov	 ebp, esp
  00103	6a ff		 push	 -1
  00105	68 00 00 00 00	 push	 __ehhandler$?CallGBoxFromWeb@CWebManager@@QAEXABV?$basic_string@DU?$char_traits@D@std@@V?$allocator@D@2@@std@@AAV23@@Z
  0010a	64 a1 00 00 00
	00		 mov	 eax, DWORD PTR fs:__except_list
  00110	50		 push	 eax
  00111	64 89 25 00 00
	00 00		 mov	 DWORD PTR fs:__except_list, esp
  00118	81 ec a4 01 00
	00		 sub	 esp, 420		; 000001a4H
  0011e	a1 00 00 00 00	 mov	 eax, DWORD PTR ___security_cookie
  00123	89 45 ec	 mov	 DWORD PTR __$ArrayPad$[ebp], eax
  00126	89 8d 98 fe ff
	ff		 mov	 DWORD PTR _this$[ebp], ecx

; 43   : 	YL_Log("KPlugin.txt",LOG_DEBUG,"CallKwMusic","%s",strCommand.c_str() );

  0012c	68 00 00 00 00	 push	 OFFSET FLAT:$SG201451
  00131	8d 4d 84	 lea	 ecx, DWORD PTR $T203475[ebp]
  00134	ff 15 00 00 00
	00		 call	 DWORD PTR __imp_??0?$basic_string@DU?$char_traits@D@std@@V?$allocator@D@2@@std@@QAE@PBD@Z
  0013a	c7 45 fc 00 00
	00 00		 mov	 DWORD PTR __$EHRec$[ebp+8], 0
  00141	68 00 00 00 00	 push	 OFFSET FLAT:$SG201452
  00146	8d 8d 68 ff ff
	ff		 lea	 ecx, DWORD PTR $T203476[ebp]
  0014c	ff 15 00 00 00
	00		 call	 DWORD PTR __imp_??0?$basic_string@DU?$char_traits@D@std@@V?$allocator@D@2@@std@@QAE@PBD@Z
  00152	c6 45 fc 01	 mov	 BYTE PTR __$EHRec$[ebp+8], 1
  00156	8b 4d 08	 mov	 ecx, DWORD PTR _strCommand$[ebp]
  00159	ff 15 00 00 00
	00		 call	 DWORD PTR __imp_?c_str@?$basic_string@DU?$char_traits@D@std@@V?$allocator@D@2@@std@@QBEPBDXZ
  0015f	50		 push	 eax
  00160	68 00 00 00 00	 push	 OFFSET FLAT:$SG201450
  00165	8d 45 84	 lea	 eax, DWORD PTR $T203475[ebp]
  00168	50		 push	 eax
  00169	6a 00		 push	 0
  0016b	8d 8d 68 ff ff
	ff		 lea	 ecx, DWORD PTR $T203476[ebp]
  00171	51		 push	 ecx
  00172	ff 15 00 00 00
	00		 call	 DWORD PTR __imp_?YL_Log@@YAXABV?$basic_string@DU?$char_traits@D@std@@V?$allocator@D@2@@std@@H0PBDZZ
  00178	83 c4 14	 add	 esp, 20			; 00000014H
  0017b	c6 45 fc 00	 mov	 BYTE PTR __$EHRec$[ebp+8], 0
  0017f	8d 8d 68 ff ff
	ff		 lea	 ecx, DWORD PTR $T203476[ebp]
  00185	ff 15 00 00 00
	00		 call	 DWORD PTR __imp_??1?$basic_string@DU?$char_traits@D@std@@V?$allocator@D@2@@std@@QAE@XZ
  0018b	c7 45 fc ff ff
	ff ff		 mov	 DWORD PTR __$EHRec$[ebp+8], -1
  00192	8d 4d 84	 lea	 ecx, DWORD PTR $T203475[ebp]
  00195	ff 15 00 00 00
	00		 call	 DWORD PTR __imp_??1?$basic_string@DU?$char_traits@D@std@@V?$allocator@D@2@@std@@QAE@XZ

; 44   : 
; 45   : 	string strHeader;

  0019b	8d 4d d0	 lea	 ecx, DWORD PTR _strHeader$[ebp]
  0019e	ff 15 00 00 00
	00		 call	 DWORD PTR __imp_??0?$basic_string@DU?$char_traits@D@std@@V?$allocator@D@2@@std@@QAE@XZ
  001a4	c7 45 fc 02 00
	00 00		 mov	 DWORD PTR __$EHRec$[ebp+8], 2

; 46   : 	string strContent;

  001ab	8d 4d b0	 lea	 ecx, DWORD PTR _strContent$[ebp]
  001ae	ff 15 00 00 00
	00		 call	 DWORD PTR __imp_??0?$basic_string@DU?$char_traits@D@std@@V?$allocator@D@2@@std@@QAE@XZ
  001b4	c6 45 fc 03	 mov	 BYTE PTR __$EHRec$[ebp+8], 3

; 47   : 
; 48   : 	size_t iHeader = strCommand.find("\n\n");

  001b8	6a 00		 push	 0
  001ba	68 00 00 00 00	 push	 OFFSET FLAT:$SG201456
  001bf	8b 4d 08	 mov	 ecx, DWORD PTR _strCommand$[ebp]
  001c2	ff 15 00 00 00
	00		 call	 DWORD PTR __imp_?find@?$basic_string@DU?$char_traits@D@std@@V?$allocator@D@2@@std@@QBEIPBDI@Z
  001c8	89 45 f0	 mov	 DWORD PTR _iHeader$[ebp], eax

; 49   : 	if( iHeader == string::npos)

  001cb	8b 15 00 00 00
	00		 mov	 edx, DWORD PTR __imp_?npos@?$basic_string@DU?$char_traits@D@std@@V?$allocator@D@2@@std@@2IB
  001d1	8b 45 f0	 mov	 eax, DWORD PTR _iHeader$[ebp]
  001d4	3b 02		 cmp	 eax, DWORD PTR [edx]
  001d6	75 22		 jne	 SHORT $L201457

; 50   : 	{
; 51   : 		return;

  001d8	c6 45 fc 02	 mov	 BYTE PTR __$EHRec$[ebp+8], 2
  001dc	8d 4d b0	 lea	 ecx, DWORD PTR _strContent$[ebp]
  001df	ff 15 00 00 00
	00		 call	 DWORD PTR __imp_??1?$basic_string@DU?$char_traits@D@std@@V?$allocator@D@2@@std@@QAE@XZ
  001e5	c7 45 fc ff ff
	ff ff		 mov	 DWORD PTR __$EHRec$[ebp+8], -1
  001ec	8d 4d d0	 lea	 ecx, DWORD PTR _strHeader$[ebp]
  001ef	ff 15 00 00 00
	00		 call	 DWORD PTR __imp_??1?$basic_string@DU?$char_traits@D@std@@V?$allocator@D@2@@std@@QAE@XZ
  001f5	e9 e0 05 00 00	 jmp	 $L201447
$L201457:

; 52   : 	}
; 53   : 	strHeader	= strCommand.substr(0,iHeader);

  001fa	8b 4d f0	 mov	 ecx, DWORD PTR _iHeader$[ebp]
  001fd	51		 push	 ecx
  001fe	6a 00		 push	 0
  00200	8d 95 4c ff ff
	ff		 lea	 edx, DWORD PTR $T203477[ebp]
  00206	52		 push	 edx
  00207	8b 4d 08	 mov	 ecx, DWORD PTR _strCommand$[ebp]
  0020a	ff 15 00 00 00
	00		 call	 DWORD PTR __imp_?substr@?$basic_string@DU?$char_traits@D@std@@V?$allocator@D@2@@std@@QBE?AV12@II@Z
  00210	89 85 94 fe ff
	ff		 mov	 DWORD PTR tv83[ebp], eax
  00216	8b 85 94 fe ff
	ff		 mov	 eax, DWORD PTR tv83[ebp]
  0021c	89 85 90 fe ff
	ff		 mov	 DWORD PTR tv260[ebp], eax
  00222	c6 45 fc 04	 mov	 BYTE PTR __$EHRec$[ebp+8], 4
  00226	8b 8d 90 fe ff
	ff		 mov	 ecx, DWORD PTR tv260[ebp]
  0022c	51		 push	 ecx
  0022d	8d 4d d0	 lea	 ecx, DWORD PTR _strHeader$[ebp]
  00230	ff 15 00 00 00
	00		 call	 DWORD PTR __imp_??4?$basic_string@DU?$char_traits@D@std@@V?$allocator@D@2@@std@@QAEAAV01@ABV01@@Z
  00236	c6 45 fc 03	 mov	 BYTE PTR __$EHRec$[ebp+8], 3
  0023a	8d 8d 4c ff ff
	ff		 lea	 ecx, DWORD PTR $T203477[ebp]
  00240	ff 15 00 00 00
	00		 call	 DWORD PTR __imp_??1?$basic_string@DU?$char_traits@D@std@@V?$allocator@D@2@@std@@QAE@XZ

; 54   : 	strContent	= strCommand.substr(iHeader+2);

  00246	8b 15 00 00 00
	00		 mov	 edx, DWORD PTR __imp_?npos@?$basic_string@DU?$char_traits@D@std@@V?$allocator@D@2@@std@@2IB
  0024c	8b 02		 mov	 eax, DWORD PTR [edx]
  0024e	50		 push	 eax
  0024f	8b 4d f0	 mov	 ecx, DWORD PTR _iHeader$[ebp]
  00252	83 c1 02	 add	 ecx, 2
  00255	51		 push	 ecx
  00256	8d 95 30 ff ff
	ff		 lea	 edx, DWORD PTR $T203478[ebp]
  0025c	52		 push	 edx
  0025d	8b 4d 08	 mov	 ecx, DWORD PTR _strCommand$[ebp]
  00260	ff 15 00 00 00
	00		 call	 DWORD PTR __imp_?substr@?$basic_string@DU?$char_traits@D@std@@V?$allocator@D@2@@std@@QBE?AV12@II@Z
  00266	89 85 8c fe ff
	ff		 mov	 DWORD PTR tv80[ebp], eax
  0026c	8b 85 8c fe ff
	ff		 mov	 eax, DWORD PTR tv80[ebp]
  00272	89 85 88 fe ff
	ff		 mov	 DWORD PTR tv262[ebp], eax
  00278	c6 45 fc 05	 mov	 BYTE PTR __$EHRec$[ebp+8], 5
  0027c	8b 8d 88 fe ff
	ff		 mov	 ecx, DWORD PTR tv262[ebp]
  00282	51		 push	 ecx
  00283	8d 4d b0	 lea	 ecx, DWORD PTR _strContent$[ebp]
  00286	ff 15 00 00 00
	00		 call	 DWORD PTR __imp_??4?$basic_string@DU?$char_traits@D@std@@V?$allocator@D@2@@std@@QAEAAV01@ABV01@@Z
  0028c	c6 45 fc 03	 mov	 BYTE PTR __$EHRec$[ebp+8], 3
  00290	8d 8d 30 ff ff
	ff		 lea	 ecx, DWORD PTR $T203478[ebp]
  00296	ff 15 00 00 00
	00		 call	 DWORD PTR __imp_??1?$basic_string@DU?$char_traits@D@std@@V?$allocator@D@2@@std@@QAE@XZ

; 55   : 	//header
; 56   : 	CString str(strHeader.c_str());

  0029c	8d 4d d0	 lea	 ecx, DWORD PTR _strHeader$[ebp]
  0029f	ff 15 00 00 00
	00		 call	 DWORD PTR __imp_?c_str@?$basic_string@DU?$char_traits@D@std@@V?$allocator@D@2@@std@@QBEPBDXZ
  002a5	50		 push	 eax
  002a6	8d 4d a8	 lea	 ecx, DWORD PTR _str$[ebp]
  002a9	ff 15 00 00 00
	00		 call	 DWORD PTR __imp_??0?$CStringT@DV?$StrTraitMFC_DLL@DV?$ChTraitsCRT@D@ATL@@@@@ATL@@QAE@PBD@Z
  002af	c6 45 fc 06	 mov	 BYTE PTR __$EHRec$[ebp+8], 6

; 57   : 	CString resToken;

  002b3	8d 4d cc	 lea	 ecx, DWORD PTR _resToken$[ebp]
  002b6	ff 15 00 00 00
	00		 call	 DWORD PTR __imp_??0?$CStringT@DV?$StrTraitMFC_DLL@DV?$ChTraitsCRT@D@ATL@@@@@ATL@@QAE@XZ
  002bc	c6 45 fc 07	 mov	 BYTE PTR __$EHRec$[ebp+8], 7

; 58   : 	int curPos = 0;

  002c0	c7 45 ac 00 00
	00 00		 mov	 DWORD PTR _curPos$[ebp], 0

; 59   : 
; 60   : 	resToken= str.Tokenize("\n",curPos);

  002c7	8d 55 ac	 lea	 edx, DWORD PTR _curPos$[ebp]
  002ca	52		 push	 edx
  002cb	68 00 00 00 00	 push	 OFFSET FLAT:$SG201464
  002d0	8d 85 2c ff ff
	ff		 lea	 eax, DWORD PTR $T203479[ebp]
  002d6	50		 push	 eax
  002d7	8d 4d a8	 lea	 ecx, DWORD PTR _str$[ebp]
  002da	ff 15 00 00 00
	00		 call	 DWORD PTR __imp_?Tokenize@?$CStringT@DV?$StrTraitMFC_DLL@DV?$ChTraitsCRT@D@ATL@@@@@ATL@@QBE?AV12@PBDAAH@Z
  002e0	89 85 84 fe ff
	ff		 mov	 DWORD PTR tv148[ebp], eax
  002e6	8b 8d 84 fe ff
	ff		 mov	 ecx, DWORD PTR tv148[ebp]
  002ec	89 8d 80 fe ff
	ff		 mov	 DWORD PTR tv266[ebp], ecx
  002f2	c6 45 fc 08	 mov	 BYTE PTR __$EHRec$[ebp+8], 8
  002f6	8b 95 80 fe ff
	ff		 mov	 edx, DWORD PTR tv266[ebp]
  002fc	52		 push	 edx
  002fd	8d 4d cc	 lea	 ecx, DWORD PTR _resToken$[ebp]
  00300	ff 15 00 00 00
	00		 call	 DWORD PTR __imp_??4?$CStringT@DV?$StrTraitMFC_DLL@DV?$ChTraitsCRT@D@ATL@@@@@ATL@@QAEAAV01@ABV01@@Z
  00306	c6 45 fc 07	 mov	 BYTE PTR __$EHRec$[ebp+8], 7
  0030a	8d 8d 2c ff ff
	ff		 lea	 ecx, DWORD PTR $T203479[ebp]
  00310	ff 15 00 00 00
	00		 call	 DWORD PTR __imp_??1?$CStringT@DV?$StrTraitMFC_DLL@DV?$ChTraitsCRT@D@ATL@@@@@ATL@@QAE@XZ
$L201466:

; 61   : 	while (resToken != "")

  00316	68 00 00 00 00	 push	 OFFSET FLAT:$SG201468
  0031b	8d 45 cc	 lea	 eax, DWORD PTR _resToken$[ebp]
  0031e	50		 push	 eax
  0031f	e8 00 00 00 00	 call	 ??9ATL@@YA_NABV?$CStringT@DV?$StrTraitMFC_DLL@DV?$ChTraitsCRT@D@ATL@@@@@0@PBD@Z ; ATL::operator!=
  00324	83 c4 08	 add	 esp, 8
  00327	0f b6 c8	 movzx	 ecx, al
  0032a	85 c9		 test	 ecx, ecx
  0032c	0f 84 71 04 00
	00		 je	 $L201467

; 62   : 	{
; 63   : 		CString strLeft,strRight;

  00332	8d 4d a0	 lea	 ecx, DWORD PTR _strLeft$201469[ebp]
  00335	ff 15 00 00 00
	00		 call	 DWORD PTR __imp_??0?$CStringT@DV?$StrTraitMFC_DLL@DV?$ChTraitsCRT@D@ATL@@@@@ATL@@QAE@XZ
  0033b	c6 45 fc 09	 mov	 BYTE PTR __$EHRec$[ebp+8], 9
  0033f	8d 4d a4	 lea	 ecx, DWORD PTR _strRight$201470[ebp]
  00342	ff 15 00 00 00
	00		 call	 DWORD PTR __imp_??0?$CStringT@DV?$StrTraitMFC_DLL@DV?$ChTraitsCRT@D@ATL@@@@@ATL@@QAE@XZ
  00348	c6 45 fc 0a	 mov	 BYTE PTR __$EHRec$[ebp+8], 10 ; 0000000aH

; 64   : 		_string_help( resToken,strLeft,strRight );

  0034c	8d 55 a4	 lea	 edx, DWORD PTR _strRight$201470[ebp]
  0034f	52		 push	 edx
  00350	8d 45 a0	 lea	 eax, DWORD PTR _strLeft$201469[ebp]
  00353	50		 push	 eax
  00354	8d 4d cc	 lea	 ecx, DWORD PTR _resToken$[ebp]
  00357	51		 push	 ecx
  00358	8b 8d 98 fe ff
	ff		 mov	 ecx, DWORD PTR _this$[ebp]
  0035e	e8 00 00 00 00	 call	 ?_string_help@CWebManager@@AAEXABV?$CStringT@DV?$StrTraitMFC_DLL@DV?$ChTraitsCRT@D@ATL@@@@@ATL@@AAV23@1@Z ; CWebManager::_string_help

; 65   : 
; 66   : 		if( strLeft == "method" )

  00363	68 00 00 00 00	 push	 OFFSET FLAT:$SG201472
  00368	8d 55 a0	 lea	 edx, DWORD PTR _strLeft$201469[ebp]
  0036b	52		 push	 edx
  0036c	e8 00 00 00 00	 call	 ??8ATL@@YA_NABV?$CStringT@DV?$StrTraitMFC_DLL@DV?$ChTraitsCRT@D@ATL@@@@@0@PBD@Z ; ATL::operator==
  00371	83 c4 08	 add	 esp, 8
  00374	0f b6 c0	 movzx	 eax, al
  00377	85 c0		 test	 eax, eax
  00379	0f 84 b6 03 00
	00		 je	 $L201471

; 67   : 		{
; 68   : 			if( strRight == "flashgame")//flash

  0037f	68 00 00 00 00	 push	 OFFSET FLAT:$SG201474
  00384	8d 4d a4	 lea	 ecx, DWORD PTR _strRight$201470[ebp]
  00387	51		 push	 ecx
  00388	e8 00 00 00 00	 call	 ??8ATL@@YA_NABV?$CStringT@DV?$StrTraitMFC_DLL@DV?$ChTraitsCRT@D@ATL@@@@@0@PBD@Z ; ATL::operator==
  0038d	83 c4 08	 add	 esp, 8
  00390	0f b6 d0	 movzx	 edx, al
  00393	85 d2		 test	 edx, edx
  00395	0f 84 a2 00 00
	00		 je	 $L201473

; 69   : 			{
; 70   : 				strRes = _command_playswfgame( strContent );

  0039b	8d 45 b0	 lea	 eax, DWORD PTR _strContent$[ebp]
  0039e	50		 push	 eax
  0039f	8d 8d 10 ff ff
	ff		 lea	 ecx, DWORD PTR $T203480[ebp]
  003a5	51		 push	 ecx
  003a6	8b 8d 98 fe ff
	ff		 mov	 ecx, DWORD PTR _this$[ebp]
  003ac	e8 00 00 00 00	 call	 ?_command_playswfgame@CWebManager@@AAE?AV?$basic_string@DU?$char_traits@D@std@@V?$allocator@D@2@@std@@AAV23@@Z ; CWebManager::_command_playswfgame
  003b1	89 85 7c fe ff
	ff		 mov	 DWORD PTR tv168[ebp], eax
  003b7	8b 95 7c fe ff
	ff		 mov	 edx, DWORD PTR tv168[ebp]
  003bd	89 95 78 fe ff
	ff		 mov	 DWORD PTR tv270[ebp], edx
  003c3	c6 45 fc 0b	 mov	 BYTE PTR __$EHRec$[ebp+8], 11 ; 0000000bH
  003c7	8b 85 78 fe ff
	ff		 mov	 eax, DWORD PTR tv270[ebp]
  003cd	50		 push	 eax
  003ce	8b 4d 0c	 mov	 ecx, DWORD PTR _strRes$[ebp]
  003d1	ff 15 00 00 00
	00		 call	 DWORD PTR __imp_??4?$basic_string@DU?$char_traits@D@std@@V?$allocator@D@2@@std@@QAEAAV01@ABV01@@Z
  003d7	c6 45 fc 0a	 mov	 BYTE PTR __$EHRec$[ebp+8], 10 ; 0000000aH
  003db	8d 8d 10 ff ff
	ff		 lea	 ecx, DWORD PTR $T203480[ebp]
  003e1	ff 15 00 00 00
	00		 call	 DWORD PTR __imp_??1?$basic_string@DU?$char_traits@D@std@@V?$allocator@D@2@@std@@QAE@XZ

; 71   : 				return;			

  003e7	c6 45 fc 09	 mov	 BYTE PTR __$EHRec$[ebp+8], 9
  003eb	8d 4d a4	 lea	 ecx, DWORD PTR _strRight$201470[ebp]
  003ee	ff 15 00 00 00
	00		 call	 DWORD PTR __imp_??1?$CStringT@DV?$StrTraitMFC_DLL@DV?$ChTraitsCRT@D@ATL@@@@@ATL@@QAE@XZ
  003f4	c6 45 fc 07	 mov	 BYTE PTR __$EHRec$[ebp+8], 7
  003f8	8d 4d a0	 lea	 ecx, DWORD PTR _strLeft$201469[ebp]
  003fb	ff 15 00 00 00
	00		 call	 DWORD PTR __imp_??1?$CStringT@DV?$StrTraitMFC_DLL@DV?$ChTraitsCRT@D@ATL@@@@@ATL@@QAE@XZ
  00401	c6 45 fc 06	 mov	 BYTE PTR __$EHRec$[ebp+8], 6
  00405	8d 4d cc	 lea	 ecx, DWORD PTR _resToken$[ebp]
  00408	ff 15 00 00 00
	00		 call	 DWORD PTR __imp_??1?$CStringT@DV?$StrTraitMFC_DLL@DV?$ChTraitsCRT@D@ATL@@@@@ATL@@QAE@XZ
  0040e	c6 45 fc 03	 mov	 BYTE PTR __$EHRec$[ebp+8], 3
  00412	8d 4d a8	 lea	 ecx, DWORD PTR _str$[ebp]
  00415	ff 15 00 00 00
	00		 call	 DWORD PTR __imp_??1?$CStringT@DV?$StrTraitMFC_DLL@DV?$ChTraitsCRT@D@ATL@@@@@ATL@@QAE@XZ
  0041b	c6 45 fc 02	 mov	 BYTE PTR __$EHRec$[ebp+8], 2
  0041f	8d 4d b0	 lea	 ecx, DWORD PTR _strContent$[ebp]
  00422	ff 15 00 00 00
	00		 call	 DWORD PTR __imp_??1?$basic_string@DU?$char_traits@D@std@@V?$allocator@D@2@@std@@QAE@XZ
  00428	c7 45 fc ff ff
	ff ff		 mov	 DWORD PTR __$EHRec$[ebp+8], -1
  0042f	8d 4d d0	 lea	 ecx, DWORD PTR _strHeader$[ebp]
  00432	ff 15 00 00 00
	00		 call	 DWORD PTR __imp_??1?$basic_string@DU?$char_traits@D@std@@V?$allocator@D@2@@std@@QAE@XZ
  00438	e9 9d 03 00 00	 jmp	 $L201447
$L201473:

; 72   : 			}else
; 73   : 			if( strRight == "webgame")//webflash

  0043d	68 00 00 00 00	 push	 OFFSET FLAT:$SG201478
  00442	8d 4d a4	 lea	 ecx, DWORD PTR _strRight$201470[ebp]
  00445	51		 push	 ecx
  00446	e8 00 00 00 00	 call	 ??8ATL@@YA_NABV?$CStringT@DV?$StrTraitMFC_DLL@DV?$ChTraitsCRT@D@ATL@@@@@0@PBD@Z ; ATL::operator==
  0044b	83 c4 08	 add	 esp, 8
  0044e	0f b6 d0	 movzx	 edx, al
  00451	85 d2		 test	 edx, edx
  00453	0f 84 a2 00 00
	00		 je	 $L201477

; 74   : 			{
; 75   : 				strRes = _command_playwebgame( strContent );

  00459	8d 45 b0	 lea	 eax, DWORD PTR _strContent$[ebp]
  0045c	50		 push	 eax
  0045d	8d 8d f4 fe ff
	ff		 lea	 ecx, DWORD PTR $T203481[ebp]
  00463	51		 push	 ecx
  00464	8b 8d 98 fe ff
	ff		 mov	 ecx, DWORD PTR _this$[ebp]
  0046a	e8 00 00 00 00	 call	 ?_command_playwebgame@CWebManager@@AAE?AV?$basic_string@DU?$char_traits@D@std@@V?$allocator@D@2@@std@@AAV23@@Z ; CWebManager::_command_playwebgame
  0046f	89 85 74 fe ff
	ff		 mov	 DWORD PTR tv165[ebp], eax
  00475	8b 95 74 fe ff
	ff		 mov	 edx, DWORD PTR tv165[ebp]
  0047b	89 95 70 fe ff
	ff		 mov	 DWORD PTR tv278[ebp], edx
  00481	c6 45 fc 0c	 mov	 BYTE PTR __$EHRec$[ebp+8], 12 ; 0000000cH
  00485	8b 85 70 fe ff
	ff		 mov	 eax, DWORD PTR tv278[ebp]
  0048b	50		 push	 eax
  0048c	8b 4d 0c	 mov	 ecx, DWORD PTR _strRes$[ebp]
  0048f	ff 15 00 00 00
	00		 call	 DWORD PTR __imp_??4?$basic_string@DU?$char_traits@D@std@@V?$allocator@D@2@@std@@QAEAAV01@ABV01@@Z
  00495	c6 45 fc 0a	 mov	 BYTE PTR __$EHRec$[ebp+8], 10 ; 0000000aH
  00499	8d 8d f4 fe ff
	ff		 lea	 ecx, DWORD PTR $T203481[ebp]
  0049f	ff 15 00 00 00
	00		 call	 DWORD PTR __imp_??1?$basic_string@DU?$char_traits@D@std@@V?$allocator@D@2@@std@@QAE@XZ

; 76   : 				return;			

  004a5	c6 45 fc 09	 mov	 BYTE PTR __$EHRec$[ebp+8], 9
  004a9	8d 4d a4	 lea	 ecx, DWORD PTR _strRight$201470[ebp]
  004ac	ff 15 00 00 00
	00		 call	 DWORD PTR __imp_??1?$CStringT@DV?$StrTraitMFC_DLL@DV?$ChTraitsCRT@D@ATL@@@@@ATL@@QAE@XZ
  004b2	c6 45 fc 07	 mov	 BYTE PTR __$EHRec$[ebp+8], 7
  004b6	8d 4d a0	 lea	 ecx, DWORD PTR _strLeft$201469[ebp]
  004b9	ff 15 00 00 00
	00		 call	 DWORD PTR __imp_??1?$CStringT@DV?$StrTraitMFC_DLL@DV?$ChTraitsCRT@D@ATL@@@@@ATL@@QAE@XZ
  004bf	c6 45 fc 06	 mov	 BYTE PTR __$EHRec$[ebp+8], 6
  004c3	8d 4d cc	 lea	 ecx, DWORD PTR _resToken$[ebp]
  004c6	ff 15 00 00 00
	00		 call	 DWORD PTR __imp_??1?$CStringT@DV?$StrTraitMFC_DLL@DV?$ChTraitsCRT@D@ATL@@@@@ATL@@QAE@XZ
  004cc	c6 45 fc 03	 mov	 BYTE PTR __$EHRec$[ebp+8], 3
  004d0	8d 4d a8	 lea	 ecx, DWORD PTR _str$[ebp]
  004d3	ff 15 00 00 00
	00		 call	 DWORD PTR __imp_??1?$CStringT@DV?$StrTraitMFC_DLL@DV?$ChTraitsCRT@D@ATL@@@@@ATL@@QAE@XZ
  004d9	c6 45 fc 02	 mov	 BYTE PTR __$EHRec$[ebp+8], 2
  004dd	8d 4d b0	 lea	 ecx, DWORD PTR _strContent$[ebp]
  004e0	ff 15 00 00 00
	00		 call	 DWORD PTR __imp_??1?$basic_string@DU?$char_traits@D@std@@V?$allocator@D@2@@std@@QAE@XZ
  004e6	c7 45 fc ff ff
	ff ff		 mov	 DWORD PTR __$EHRec$[ebp+8], -1
  004ed	8d 4d d0	 lea	 ecx, DWORD PTR _strHeader$[ebp]
  004f0	ff 15 00 00 00
	00		 call	 DWORD PTR __imp_??1?$basic_string@DU?$char_traits@D@std@@V?$allocator@D@2@@std@@QAE@XZ
  004f6	e9 df 02 00 00	 jmp	 $L201447
$L201477:

; 77   : 			}else
; 78   : 			if( strRight == "refresh" )

  004fb	68 00 00 00 00	 push	 OFFSET FLAT:$SG201482
  00500	8d 4d a4	 lea	 ecx, DWORD PTR _strRight$201470[ebp]
  00503	51		 push	 ecx
  00504	e8 00 00 00 00	 call	 ??8ATL@@YA_NABV?$CStringT@DV?$StrTraitMFC_DLL@DV?$ChTraitsCRT@D@ATL@@@@@0@PBD@Z ; ATL::operator==
  00509	83 c4 08	 add	 esp, 8
  0050c	0f b6 d0	 movzx	 edx, al
  0050f	85 d2		 test	 edx, edx
  00511	0f 84 a2 00 00
	00		 je	 $L201481

; 79   : 			{
; 80   : 				strRes = _command_refresh( strContent );

  00517	8d 45 b0	 lea	 eax, DWORD PTR _strContent$[ebp]
  0051a	50		 push	 eax
  0051b	8d 8d d8 fe ff
	ff		 lea	 ecx, DWORD PTR $T203482[ebp]
  00521	51		 push	 ecx
  00522	8b 8d 98 fe ff
	ff		 mov	 ecx, DWORD PTR _this$[ebp]
  00528	e8 00 00 00 00	 call	 ?_command_refresh@CWebManager@@AAE?AV?$basic_string@DU?$char_traits@D@std@@V?$allocator@D@2@@std@@AAV23@@Z ; CWebManager::_command_refresh
  0052d	89 85 6c fe ff
	ff		 mov	 DWORD PTR tv142[ebp], eax
  00533	8b 95 6c fe ff
	ff		 mov	 edx, DWORD PTR tv142[ebp]
  00539	89 95 68 fe ff
	ff		 mov	 DWORD PTR tv286[ebp], edx
  0053f	c6 45 fc 0d	 mov	 BYTE PTR __$EHRec$[ebp+8], 13 ; 0000000dH
  00543	8b 85 68 fe ff
	ff		 mov	 eax, DWORD PTR tv286[ebp]
  00549	50		 push	 eax
  0054a	8b 4d 0c	 mov	 ecx, DWORD PTR _strRes$[ebp]
  0054d	ff 15 00 00 00
	00		 call	 DWORD PTR __imp_??4?$basic_string@DU?$char_traits@D@std@@V?$allocator@D@2@@std@@QAEAAV01@ABV01@@Z
  00553	c6 45 fc 0a	 mov	 BYTE PTR __$EHRec$[ebp+8], 10 ; 0000000aH
  00557	8d 8d d8 fe ff
	ff		 lea	 ecx, DWORD PTR $T203482[ebp]
  0055d	ff 15 00 00 00
	00		 call	 DWORD PTR __imp_??1?$basic_string@DU?$char_traits@D@std@@V?$allocator@D@2@@std@@QAE@XZ

; 81   : 				return;

  00563	c6 45 fc 09	 mov	 BYTE PTR __$EHRec$[ebp+8], 9
  00567	8d 4d a4	 lea	 ecx, DWORD PTR _strRight$201470[ebp]
  0056a	ff 15 00 00 00
	00		 call	 DWORD PTR __imp_??1?$CStringT@DV?$StrTraitMFC_DLL@DV?$ChTraitsCRT@D@ATL@@@@@ATL@@QAE@XZ
  00570	c6 45 fc 07	 mov	 BYTE PTR __$EHRec$[ebp+8], 7
  00574	8d 4d a0	 lea	 ecx, DWORD PTR _strLeft$201469[ebp]
  00577	ff 15 00 00 00
	00		 call	 DWORD PTR __imp_??1?$CStringT@DV?$StrTraitMFC_DLL@DV?$ChTraitsCRT@D@ATL@@@@@ATL@@QAE@XZ
  0057d	c6 45 fc 06	 mov	 BYTE PTR __$EHRec$[ebp+8], 6
  00581	8d 4d cc	 lea	 ecx, DWORD PTR _resToken$[ebp]
  00584	ff 15 00 00 00
	00		 call	 DWORD PTR __imp_??1?$CStringT@DV?$StrTraitMFC_DLL@DV?$ChTraitsCRT@D@ATL@@@@@ATL@@QAE@XZ
  0058a	c6 45 fc 03	 mov	 BYTE PTR __$EHRec$[ebp+8], 3
  0058e	8d 4d a8	 lea	 ecx, DWORD PTR _str$[ebp]
  00591	ff 15 00 00 00
	00		 call	 DWORD PTR __imp_??1?$CStringT@DV?$StrTraitMFC_DLL@DV?$ChTraitsCRT@D@ATL@@@@@ATL@@QAE@XZ
  00597	c6 45 fc 02	 mov	 BYTE PTR __$EHRec$[ebp+8], 2
  0059b	8d 4d b0	 lea	 ecx, DWORD PTR _strContent$[ebp]
  0059e	ff 15 00 00 00
	00		 call	 DWORD PTR __imp_??1?$basic_string@DU?$char_traits@D@std@@V?$allocator@D@2@@std@@QAE@XZ
  005a4	c7 45 fc ff ff
	ff ff		 mov	 DWORD PTR __$EHRec$[ebp+8], -1
  005ab	8d 4d d0	 lea	 ecx, DWORD PTR _strHeader$[ebp]
  005ae	ff 15 00 00 00
	00		 call	 DWORD PTR __imp_??1?$basic_string@DU?$char_traits@D@std@@V?$allocator@D@2@@std@@QAE@XZ
  005b4	e9 21 02 00 00	 jmp	 $L201447
$L201481:

; 82   : 			}else
; 83   : 			if (strRight == "opennewtab")

  005b9	68 00 00 00 00	 push	 OFFSET FLAT:$SG201486
  005be	8d 4d a4	 lea	 ecx, DWORD PTR _strRight$201470[ebp]
  005c1	51		 push	 ecx
  005c2	e8 00 00 00 00	 call	 ??8ATL@@YA_NABV?$CStringT@DV?$StrTraitMFC_DLL@DV?$ChTraitsCRT@D@ATL@@@@@0@PBD@Z ; ATL::operator==
  005c7	83 c4 08	 add	 esp, 8
  005ca	0f b6 d0	 movzx	 edx, al
  005cd	85 d2		 test	 edx, edx
  005cf	0f 84 a2 00 00
	00		 je	 $L201485

; 84   : 			{
; 85   : 				strRes = _command_opennewtab (strContent);

  005d5	8d 45 b0	 lea	 eax, DWORD PTR _strContent$[ebp]
  005d8	50		 push	 eax
  005d9	8d 8d bc fe ff
	ff		 lea	 ecx, DWORD PTR $T203483[ebp]
  005df	51		 push	 ecx
  005e0	8b 8d 98 fe ff
	ff		 mov	 ecx, DWORD PTR _this$[ebp]
  005e6	e8 00 00 00 00	 call	 ?_command_opennewtab@CWebManager@@AAE?AV?$basic_string@DU?$char_traits@D@std@@V?$allocator@D@2@@std@@AAV23@@Z ; CWebManager::_command_opennewtab
  005eb	89 85 64 fe ff
	ff		 mov	 DWORD PTR tv75[ebp], eax
  005f1	8b 95 64 fe ff
	ff		 mov	 edx, DWORD PTR tv75[ebp]
  005f7	89 95 60 fe ff
	ff		 mov	 DWORD PTR tv294[ebp], edx
  005fd	c6 45 fc 0e	 mov	 BYTE PTR __$EHRec$[ebp+8], 14 ; 0000000eH
  00601	8b 85 60 fe ff
	ff		 mov	 eax, DWORD PTR tv294[ebp]
  00607	50		 push	 eax
  00608	8b 4d 0c	 mov	 ecx, DWORD PTR _strRes$[ebp]
  0060b	ff 15 00 00 00
	00		 call	 DWORD PTR __imp_??4?$basic_string@DU?$char_traits@D@std@@V?$allocator@D@2@@std@@QAEAAV01@ABV01@@Z
  00611	c6 45 fc 0a	 mov	 BYTE PTR __$EHRec$[ebp+8], 10 ; 0000000aH
  00615	8d 8d bc fe ff
	ff		 lea	 ecx, DWORD PTR $T203483[ebp]
  0061b	ff 15 00 00 00
	00		 call	 DWORD PTR __imp_??1?$basic_string@DU?$char_traits@D@std@@V?$allocator@D@2@@std@@QAE@XZ

; 86   : 				return;

  00621	c6 45 fc 09	 mov	 BYTE PTR __$EHRec$[ebp+8], 9
  00625	8d 4d a4	 lea	 ecx, DWORD PTR _strRight$201470[ebp]
  00628	ff 15 00 00 00
	00		 call	 DWORD PTR __imp_??1?$CStringT@DV?$StrTraitMFC_DLL@DV?$ChTraitsCRT@D@ATL@@@@@ATL@@QAE@XZ
  0062e	c6 45 fc 07	 mov	 BYTE PTR __$EHRec$[ebp+8], 7
  00632	8d 4d a0	 lea	 ecx, DWORD PTR _strLeft$201469[ebp]
  00635	ff 15 00 00 00
	00		 call	 DWORD PTR __imp_??1?$CStringT@DV?$StrTraitMFC_DLL@DV?$ChTraitsCRT@D@ATL@@@@@ATL@@QAE@XZ
  0063b	c6 45 fc 06	 mov	 BYTE PTR __$EHRec$[ebp+8], 6
  0063f	8d 4d cc	 lea	 ecx, DWORD PTR _resToken$[ebp]
  00642	ff 15 00 00 00
	00		 call	 DWORD PTR __imp_??1?$CStringT@DV?$StrTraitMFC_DLL@DV?$ChTraitsCRT@D@ATL@@@@@ATL@@QAE@XZ
  00648	c6 45 fc 03	 mov	 BYTE PTR __$EHRec$[ebp+8], 3
  0064c	8d 4d a8	 lea	 ecx, DWORD PTR _str$[ebp]
  0064f	ff 15 00 00 00
	00		 call	 DWORD PTR __imp_??1?$CStringT@DV?$StrTraitMFC_DLL@DV?$ChTraitsCRT@D@ATL@@@@@ATL@@QAE@XZ
  00655	c6 45 fc 02	 mov	 BYTE PTR __$EHRec$[ebp+8], 2
  00659	8d 4d b0	 lea	 ecx, DWORD PTR _strContent$[ebp]
  0065c	ff 15 00 00 00
	00		 call	 DWORD PTR __imp_??1?$basic_string@DU?$char_traits@D@std@@V?$allocator@D@2@@std@@QAE@XZ
  00662	c7 45 fc ff ff
	ff ff		 mov	 DWORD PTR __$EHRec$[ebp+8], -1
  00669	8d 4d d0	 lea	 ecx, DWORD PTR _strHeader$[ebp]
  0066c	ff 15 00 00 00
	00		 call	 DWORD PTR __imp_??1?$basic_string@DU?$char_traits@D@std@@V?$allocator@D@2@@std@@QAE@XZ
  00672	e9 63 01 00 00	 jmp	 $L201447
$L201485:

; 87   : 			}else
; 88   : 			if (strRight == "checkdlstatus")

  00677	68 00 00 00 00	 push	 OFFSET FLAT:$SG201490
  0067c	8d 4d a4	 lea	 ecx, DWORD PTR _strRight$201470[ebp]
  0067f	51		 push	 ecx
  00680	e8 00 00 00 00	 call	 ??8ATL@@YA_NABV?$CStringT@DV?$StrTraitMFC_DLL@DV?$ChTraitsCRT@D@ATL@@@@@0@PBD@Z ; ATL::operator==
  00685	83 c4 08	 add	 esp, 8
  00688	0f b6 d0	 movzx	 edx, al
  0068b	85 d2		 test	 edx, edx
  0068d	0f 84 a2 00 00
	00		 je	 $L201471

; 89   : 			{
; 90   : 				strRes = _command_checkdlstatus (strContent);

  00693	8d 45 b0	 lea	 eax, DWORD PTR _strContent$[ebp]
  00696	50		 push	 eax
  00697	8d 8d a0 fe ff
	ff		 lea	 ecx, DWORD PTR $T203484[ebp]
  0069d	51		 push	 ecx
  0069e	8b 8d 98 fe ff
	ff		 mov	 ecx, DWORD PTR _this$[ebp]
  006a4	e8 00 00 00 00	 call	 ?_command_checkdlstatus@CWebManager@@AAE?AV?$basic_string@DU?$char_traits@D@std@@V?$allocator@D@2@@std@@AAV23@@Z ; CWebManager::_command_checkdlstatus
  006a9	89 85 5c fe ff
	ff		 mov	 DWORD PTR tv69[ebp], eax
  006af	8b 95 5c fe ff
	ff		 mov	 edx, DWORD PTR tv69[ebp]
  006b5	89 95 58 fe ff
	ff		 mov	 DWORD PTR tv302[ebp], edx
  006bb	c6 45 fc 0f	 mov	 BYTE PTR __$EHRec$[ebp+8], 15 ; 0000000fH
  006bf	8b 85 58 fe ff
	ff		 mov	 eax, DWORD PTR tv302[ebp]
  006c5	50		 push	 eax
  006c6	8b 4d 0c	 mov	 ecx, DWORD PTR _strRes$[ebp]
  006c9	ff 15 00 00 00
	00		 call	 DWORD PTR __imp_??4?$basic_string@DU?$char_traits@D@std@@V?$allocator@D@2@@std@@QAEAAV01@ABV01@@Z
  006cf	c6 45 fc 0a	 mov	 BYTE PTR __$EHRec$[ebp+8], 10 ; 0000000aH
  006d3	8d 8d a0 fe ff
	ff		 lea	 ecx, DWORD PTR $T203484[ebp]
  006d9	ff 15 00 00 00
	00		 call	 DWORD PTR __imp_??1?$basic_string@DU?$char_traits@D@std@@V?$allocator@D@2@@std@@QAE@XZ

; 91   : 				return;

  006df	c6 45 fc 09	 mov	 BYTE PTR __$EHRec$[ebp+8], 9
  006e3	8d 4d a4	 lea	 ecx, DWORD PTR _strRight$201470[ebp]
  006e6	ff 15 00 00 00
	00		 call	 DWORD PTR __imp_??1?$CStringT@DV?$StrTraitMFC_DLL@DV?$ChTraitsCRT@D@ATL@@@@@ATL@@QAE@XZ
  006ec	c6 45 fc 07	 mov	 BYTE PTR __$EHRec$[ebp+8], 7
  006f0	8d 4d a0	 lea	 ecx, DWORD PTR _strLeft$201469[ebp]
  006f3	ff 15 00 00 00
	00		 call	 DWORD PTR __imp_??1?$CStringT@DV?$StrTraitMFC_DLL@DV?$ChTraitsCRT@D@ATL@@@@@ATL@@QAE@XZ
  006f9	c6 45 fc 06	 mov	 BYTE PTR __$EHRec$[ebp+8], 6
  006fd	8d 4d cc	 lea	 ecx, DWORD PTR _resToken$[ebp]
  00700	ff 15 00 00 00
	00		 call	 DWORD PTR __imp_??1?$CStringT@DV?$StrTraitMFC_DLL@DV?$ChTraitsCRT@D@ATL@@@@@ATL@@QAE@XZ
  00706	c6 45 fc 03	 mov	 BYTE PTR __$EHRec$[ebp+8], 3
  0070a	8d 4d a8	 lea	 ecx, DWORD PTR _str$[ebp]
  0070d	ff 15 00 00 00
	00		 call	 DWORD PTR __imp_??1?$CStringT@DV?$StrTraitMFC_DLL@DV?$ChTraitsCRT@D@ATL@@@@@ATL@@QAE@XZ
  00713	c6 45 fc 02	 mov	 BYTE PTR __$EHRec$[ebp+8], 2
  00717	8d 4d b0	 lea	 ecx, DWORD PTR _strContent$[ebp]
  0071a	ff 15 00 00 00
	00		 call	 DWORD PTR __imp_??1?$basic_string@DU?$char_traits@D@std@@V?$allocator@D@2@@std@@QAE@XZ
  00720	c7 45 fc ff ff
	ff ff		 mov	 DWORD PTR __$EHRec$[ebp+8], -1
  00727	8d 4d d0	 lea	 ecx, DWORD PTR _strHeader$[ebp]
  0072a	ff 15 00 00 00
	00		 call	 DWORD PTR __imp_??1?$basic_string@DU?$char_traits@D@std@@V?$allocator@D@2@@std@@QAE@XZ
  00730	e9 a5 00 00 00	 jmp	 $L201447
$L201471:

; 92   : 			}
; 93   : 		}
; 94   : 		resToken = str.Tokenize("\n", curPos);

  00735	8d 4d ac	 lea	 ecx, DWORD PTR _curPos$[ebp]
  00738	51		 push	 ecx
  00739	68 00 00 00 00	 push	 OFFSET FLAT:$SG201493
  0073e	8d 95 9c fe ff
	ff		 lea	 edx, DWORD PTR $T203485[ebp]
  00744	52		 push	 edx
  00745	8d 4d a8	 lea	 ecx, DWORD PTR _str$[ebp]
  00748	ff 15 00 00 00
	00		 call	 DWORD PTR __imp_?Tokenize@?$CStringT@DV?$StrTraitMFC_DLL@DV?$ChTraitsCRT@D@ATL@@@@@ATL@@QBE?AV12@PBDAAH@Z
  0074e	89 85 54 fe ff
	ff		 mov	 DWORD PTR tv311[ebp], eax
  00754	8b 85 54 fe ff
	ff		 mov	 eax, DWORD PTR tv311[ebp]
  0075a	89 85 50 fe ff
	ff		 mov	 DWORD PTR tv310[ebp], eax
  00760	c6 45 fc 10	 mov	 BYTE PTR __$EHRec$[ebp+8], 16 ; 00000010H
  00764	8b 8d 50 fe ff
	ff		 mov	 ecx, DWORD PTR tv310[ebp]
  0076a	51		 push	 ecx
  0076b	8d 4d cc	 lea	 ecx, DWORD PTR _resToken$[ebp]
  0076e	ff 15 00 00 00
	00		 call	 DWORD PTR __imp_??4?$CStringT@DV?$StrTraitMFC_DLL@DV?$ChTraitsCRT@D@ATL@@@@@ATL@@QAEAAV01@ABV01@@Z
  00774	c6 45 fc 0a	 mov	 BYTE PTR __$EHRec$[ebp+8], 10 ; 0000000aH
  00778	8d 8d 9c fe ff
	ff		 lea	 ecx, DWORD PTR $T203485[ebp]
  0077e	ff 15 00 00 00
	00		 call	 DWORD PTR __imp_??1?$CStringT@DV?$StrTraitMFC_DLL@DV?$ChTraitsCRT@D@ATL@@@@@ATL@@QAE@XZ

; 95   : 	};   

  00784	c6 45 fc 09	 mov	 BYTE PTR __$EHRec$[ebp+8], 9
  00788	8d 4d a4	 lea	 ecx, DWORD PTR _strRight$201470[ebp]
  0078b	ff 15 00 00 00
	00		 call	 DWORD PTR __imp_??1?$CStringT@DV?$StrTraitMFC_DLL@DV?$ChTraitsCRT@D@ATL@@@@@ATL@@QAE@XZ
  00791	c6 45 fc 07	 mov	 BYTE PTR __$EHRec$[ebp+8], 7
  00795	8d 4d a0	 lea	 ecx, DWORD PTR _strLeft$201469[ebp]
  00798	ff 15 00 00 00
	00		 call	 DWORD PTR __imp_??1?$CStringT@DV?$StrTraitMFC_DLL@DV?$ChTraitsCRT@D@ATL@@@@@ATL@@QAE@XZ
  0079e	e9 73 fb ff ff	 jmp	 $L201466
$L201467:

; 96   : }

  007a3	c6 45 fc 06	 mov	 BYTE PTR __$EHRec$[ebp+8], 6
  007a7	8d 4d cc	 lea	 ecx, DWORD PTR _resToken$[ebp]
  007aa	ff 15 00 00 00
	00		 call	 DWORD PTR __imp_??1?$CStringT@DV?$StrTraitMFC_DLL@DV?$ChTraitsCRT@D@ATL@@@@@ATL@@QAE@XZ
  007b0	c6 45 fc 03	 mov	 BYTE PTR __$EHRec$[ebp+8], 3
  007b4	8d 4d a8	 lea	 ecx, DWORD PTR _str$[ebp]
  007b7	ff 15 00 00 00
	00		 call	 DWORD PTR __imp_??1?$CStringT@DV?$StrTraitMFC_DLL@DV?$ChTraitsCRT@D@ATL@@@@@ATL@@QAE@XZ
  007bd	c6 45 fc 02	 mov	 BYTE PTR __$EHRec$[ebp+8], 2
  007c1	8d 4d b0	 lea	 ecx, DWORD PTR _strContent$[ebp]
  007c4	ff 15 00 00 00
	00		 call	 DWORD PTR __imp_??1?$basic_string@DU?$char_traits@D@std@@V?$allocator@D@2@@std@@QAE@XZ
  007ca	c7 45 fc ff ff
	ff ff		 mov	 DWORD PTR __$EHRec$[ebp+8], -1
  007d1	8d 4d d0	 lea	 ecx, DWORD PTR _strHeader$[ebp]
  007d4	ff 15 00 00 00
	00		 call	 DWORD PTR __imp_??1?$basic_string@DU?$char_traits@D@std@@V?$allocator@D@2@@std@@QAE@XZ
$L201447:
  007da	8b 4d f4	 mov	 ecx, DWORD PTR __$EHRec$[ebp]
  007dd	64 89 0d 00 00
	00 00		 mov	 DWORD PTR fs:__except_list, ecx
  007e4	8b 4d ec	 mov	 ecx, DWORD PTR __$ArrayPad$[ebp]
  007e7	e8 00 00 00 00	 call	 @__security_check_cookie@4
  007ec	8b e5		 mov	 esp, ebp
  007ee	5d		 pop	 ebp
  007ef	c2 08 00	 ret	 8
_TEXT	ENDS
text$x	SEGMENT
$L203486:
  00015	8d 4d 84	 lea	 ecx, DWORD PTR $T203475[ebp]
  00018	ff 25 00 00 00
	00		 jmp	 DWORD PTR __imp_??1?$basic_string@DU?$char_traits@D@std@@V?$allocator@D@2@@std@@QAE@XZ
$L203487:
  0001e	8d 8d 68 ff ff
	ff		 lea	 ecx, DWORD PTR $T203476[ebp]
  00024	ff 25 00 00 00
	00		 jmp	 DWORD PTR __imp_??1?$basic_string@DU?$char_traits@D@std@@V?$allocator@D@2@@std@@QAE@XZ
$L203488:
  0002a	8d 4d d0	 lea	 ecx, DWORD PTR _strHeader$[ebp]
  0002d	ff 25 00 00 00
	00		 jmp	 DWORD PTR __imp_??1?$basic_string@DU?$char_traits@D@std@@V?$allocator@D@2@@std@@QAE@XZ
$L203489:
  00033	8d 4d b0	 lea	 ecx, DWORD PTR _strContent$[ebp]
  00036	ff 25 00 00 00
	00		 jmp	 DWORD PTR __imp_??1?$basic_string@DU?$char_traits@D@std@@V?$allocator@D@2@@std@@QAE@XZ
$L203490:
  0003c	8d 8d 4c ff ff
	ff		 lea	 ecx, DWORD PTR $T203477[ebp]
  00042	ff 25 00 00 00
	00		 jmp	 DWORD PTR __imp_??1?$basic_string@DU?$char_traits@D@std@@V?$allocator@D@2@@std@@QAE@XZ
$L203491:
  00048	8d 8d 30 ff ff
	ff		 lea	 ecx, DWORD PTR $T203478[ebp]
  0004e	ff 25 00 00 00
	00		 jmp	 DWORD PTR __imp_??1?$basic_string@DU?$char_traits@D@std@@V?$allocator@D@2@@std@@QAE@XZ
$L203492:
  00054	8d 4d a8	 lea	 ecx, DWORD PTR _str$[ebp]
  00057	ff 25 00 00 00
	00		 jmp	 DWORD PTR __imp_??1?$CStringT@DV?$StrTraitMFC_DLL@DV?$ChTraitsCRT@D@ATL@@@@@ATL@@QAE@XZ
$L203493:
  0005d	8d 4d cc	 lea	 ecx, DWORD PTR _resToken$[ebp]
  00060	ff 25 00 00 00
	00		 jmp	 DWORD PTR __imp_??1?$CStringT@DV?$StrTraitMFC_DLL@DV?$ChTraitsCRT@D@ATL@@@@@ATL@@QAE@XZ
$L203494:
  00066	8d 8d 2c ff ff
	ff		 lea	 ecx, DWORD PTR $T203479[ebp]
  0006c	ff 25 00 00 00
	00		 jmp	 DWORD PTR __imp_??1?$CStringT@DV?$StrTraitMFC_DLL@DV?$ChTraitsCRT@D@ATL@@@@@ATL@@QAE@XZ
$L203495:
  00072	8d 4d a0	 lea	 ecx, DWORD PTR _strLeft$201469[ebp]
  00075	ff 25 00 00 00
	00		 jmp	 DWORD PTR __imp_??1?$CStringT@DV?$StrTraitMFC_DLL@DV?$ChTraitsCRT@D@ATL@@@@@ATL@@QAE@XZ
$L203496:
  0007b	8d 4d a4	 lea	 ecx, DWORD PTR _strRight$201470[ebp]
  0007e	ff 25 00 00 00
	00		 jmp	 DWORD PTR __imp_??1?$CStringT@DV?$StrTraitMFC_DLL@DV?$ChTraitsCRT@D@ATL@@@@@ATL@@QAE@XZ
$L203497:
  00084	8d 8d 10 ff ff
	ff		 lea	 ecx, DWORD PTR $T203480[ebp]
  0008a	ff 25 00 00 00
	00		 jmp	 DWORD PTR __imp_??1?$basic_string@DU?$char_traits@D@std@@V?$allocator@D@2@@std@@QAE@XZ
$L203498:
  00090	8d 8d f4 fe ff
	ff		 lea	 ecx, DWORD PTR $T203481[ebp]
  00096	ff 25 00 00 00
	00		 jmp	 DWORD PTR __imp_??1?$basic_string@DU?$char_traits@D@std@@V?$allocator@D@2@@std@@QAE@XZ
$L203499:
  0009c	8d 8d d8 fe ff
	ff		 lea	 ecx, DWORD PTR $T203482[ebp]
  000a2	ff 25 00 00 00
	00		 jmp	 DWORD PTR __imp_??1?$basic_string@DU?$char_traits@D@std@@V?$allocator@D@2@@std@@QAE@XZ
$L203500:
  000a8	8d 8d bc fe ff
	ff		 lea	 ecx, DWORD PTR $T203483[ebp]
  000ae	ff 25 00 00 00
	00		 jmp	 DWORD PTR __imp_??1?$basic_string@DU?$char_traits@D@std@@V?$allocator@D@2@@std@@QAE@XZ
$L203501:
  000b4	8d 8d a0 fe ff
	ff		 lea	 ecx, DWORD PTR $T203484[ebp]
  000ba	ff 25 00 00 00
	00		 jmp	 DWORD PTR __imp_??1?$basic_string@DU?$char_traits@D@std@@V?$allocator@D@2@@std@@QAE@XZ
$L203502:
  000c0	8d 8d 9c fe ff
	ff		 lea	 ecx, DWORD PTR $T203485[ebp]
  000c6	ff 25 00 00 00
	00		 jmp	 DWORD PTR __imp_??1?$CStringT@DV?$StrTraitMFC_DLL@DV?$ChTraitsCRT@D@ATL@@@@@ATL@@QAE@XZ
__ehhandler$?CallGBoxFromWeb@CWebManager@@QAEXABV?$basic_string@DU?$char_traits@D@std@@V?$allocator@D@2@@std@@AAV23@@Z:
  000cc	b8 00 00 00 00	 mov	 eax, OFFSET FLAT:$T203504
  000d1	e9 00 00 00 00	 jmp	 ___CxxFrameHandler
text$x	ENDS
?CallGBoxFromWeb@CWebManager@@QAEXABV?$basic_string@DU?$char_traits@D@std@@V?$allocator@D@2@@std@@AAV23@@Z ENDP ; CWebManager::CallGBoxFromWeb
PUBLIC	??0?$list@PAVIMessageObserver@@V?$allocator@PAVIMessageObserver@@@std@@@std@@QAE@XZ ; std::list<IMessageObserver *,std::allocator<IMessageObserver *> >::list<IMessageObserver *,std::allocator<IMessageObserver *> >
PUBLIC	??1?$list@PAVIMessageObserver@@V?$allocator@PAVIMessageObserver@@@std@@@std@@QAE@XZ ; std::list<IMessageObserver *,std::allocator<IMessageObserver *> >::~list<IMessageObserver *,std::allocator<IMessageObserver *> >
PUBLIC	?begin@?$list@PAVIMessageObserver@@V?$allocator@PAVIMessageObserver@@@std@@@std@@QAE?AViterator@12@XZ ; std::list<IMessageObserver *,std::allocator<IMessageObserver *> >::begin
PUBLIC	?end@?$list@PAVIMessageObserver@@V?$allocator@PAVIMessageObserver@@@std@@@std@@QAE?AViterator@12@XZ ; std::list<IMessageObserver *,std::allocator<IMessageObserver *> >::end
PUBLIC	??9const_iterator@?$list@PAVIMessageObserver@@V?$allocator@PAVIMessageObserver@@@std@@@std@@QBE_NABV012@@Z ; std::list<IMessageObserver *,std::allocator<IMessageObserver *> >::const_iterator::operator!=
PUBLIC	??Diterator@?$list@PAVIMessageObserver@@V?$allocator@PAVIMessageObserver@@@std@@@std@@QBEAAPAVIMessageObserver@@XZ ; std::list<IMessageObserver *,std::allocator<IMessageObserver *> >::iterator::operator*
PUBLIC	??Eiterator@?$list@PAVIMessageObserver@@V?$allocator@PAVIMessageObserver@@@std@@@std@@QAE?AV012@H@Z ; std::list<IMessageObserver *,std::allocator<IMessageObserver *> >::iterator::operator++
PUBLIC	??_R0?AVIWebRefreshObserver@@@8			; IWebRefreshObserver `RTTI Type Descriptor'
PUBLIC	??_R0?AVIMessageObserver@@@8			; IMessageObserver `RTTI Type Descriptor'
PUBLIC	?NotifyWebRefresh@CWebManager@@AAEXPBD@Z	; CWebManager::NotifyWebRefresh
EXTRN	___RTDynamicCast:NEAR
EXTRN	??_7type_info@@6B@:QWORD			; type_info::`vftable'
EXTRN	?AfxGetMessageManager@@YAPAVIMessageManager@@XZ:NEAR ; AfxGetMessageManager
xdata$x	SEGMENT
$T203515 DD	0ffffffffH
	DD	FLAT:$L203511
$T203513 DD	019930520H
	DD	01H
	DD	FLAT:$T203515
	DD	2 DUP(00H)
	DD	2 DUP(00H)
xdata$x	ENDS
;	COMDAT ??_R0?AVIWebRefreshObserver@@@8
_DATA	SEGMENT
??_R0?AVIWebRefreshObserver@@@8 DD FLAT:??_7type_info@@6B@ ; IWebRefreshObserver `RTTI Type Descriptor'
	DD	00H
	DB	'.?AVIWebRefreshObserver@@', 00H
_DATA	ENDS
;	COMDAT ??_R0?AVIMessageObserver@@@8
_DATA	SEGMENT
??_R0?AVIMessageObserver@@@8 DD FLAT:??_7type_info@@6B@	; IMessageObserver `RTTI Type Descriptor'
	DD	00H
	DB	'.?AVIMessageObserver@@', 00H
	ORG $-31
	DD	FLAT:??_7type_info@@6B@
	DD	00H
	DB	'.?AVIMessageObserver@@', 00H
; Function compile flags: /Odt
_DATA	ENDS
_TEXT	SEGMENT
tv69 = -48						; size = 4
_this$ = -44						; size = 4
$T203510 = -40						; size = 4
$T203509 = -36						; size = 4
_pOb$201999 = -32					; size = 4
_itOb$201992 = -28					; size = 4
_listOb$ = -24						; size = 12
__$EHRec$ = -12						; size = 12
_psz$ = 8						; size = 4
?NotifyWebRefresh@CWebManager@@AAEXPBD@Z PROC NEAR	; CWebManager::NotifyWebRefresh
; _this$ = ecx

; 99   : {

  00800	55		 push	 ebp
  00801	8b ec		 mov	 ebp, esp
  00803	6a ff		 push	 -1
  00805	68 00 00 00 00	 push	 __ehhandler$?NotifyWebRefresh@CWebManager@@AAEXPBD@Z
  0080a	64 a1 00 00 00
	00		 mov	 eax, DWORD PTR fs:__except_list
  00810	50		 push	 eax
  00811	64 89 25 00 00
	00 00		 mov	 DWORD PTR fs:__except_list, esp
  00818	83 ec 24	 sub	 esp, 36			; 00000024H
  0081b	89 4d d4	 mov	 DWORD PTR _this$[ebp], ecx

; 100  : 	list<IMessageObserver*> listOb;

  0081e	8d 4d e8	 lea	 ecx, DWORD PTR _listOb$[ebp]
  00821	e8 00 00 00 00	 call	 ??0?$list@PAVIMessageObserver@@V?$allocator@PAVIMessageObserver@@@std@@@std@@QAE@XZ ; std::list<IMessageObserver *,std::allocator<IMessageObserver *> >::list<IMessageObserver *,std::allocator<IMessageObserver *> >
  00826	c7 45 fc 00 00
	00 00		 mov	 DWORD PTR __$EHRec$[ebp+8], 0

; 101  : 	AfxGetMessageManager()->QueryObservers( ID_MESSAGE_REFRESH,listOb);

  0082d	e8 00 00 00 00	 call	 ?AfxGetMessageManager@@YAPAVIMessageManager@@XZ ; AfxGetMessageManager
  00832	89 45 d0	 mov	 DWORD PTR tv69[ebp], eax
  00835	8d 45 e8	 lea	 eax, DWORD PTR _listOb$[ebp]
  00838	50		 push	 eax
  00839	68 00 00 00 00	 push	 OFFSET FLAT:_ID_MESSAGE_REFRESH
  0083e	8b 4d d0	 mov	 ecx, DWORD PTR tv69[ebp]
  00841	8b 11		 mov	 edx, DWORD PTR [ecx]
  00843	8b 4d d0	 mov	 ecx, DWORD PTR tv69[ebp]
  00846	ff 52 0c	 call	 DWORD PTR [edx+12]

; 102  : 
; 103  : 	for( list<IMessageObserver*>::iterator itOb = listOb.begin();itOb != listOb.end();itOb++ )

  00849	8d 45 e4	 lea	 eax, DWORD PTR _itOb$201992[ebp]
  0084c	50		 push	 eax
  0084d	8d 4d e8	 lea	 ecx, DWORD PTR _listOb$[ebp]
  00850	e8 00 00 00 00	 call	 ?begin@?$list@PAVIMessageObserver@@V?$allocator@PAVIMessageObserver@@@std@@@std@@QAE?AViterator@12@XZ ; std::list<IMessageObserver *,std::allocator<IMessageObserver *> >::begin
  00855	eb 0e		 jmp	 SHORT $L201996
$L201997:
  00857	6a 00		 push	 0
  00859	8d 4d dc	 lea	 ecx, DWORD PTR $T203509[ebp]
  0085c	51		 push	 ecx
  0085d	8d 4d e4	 lea	 ecx, DWORD PTR _itOb$201992[ebp]
  00860	e8 00 00 00 00	 call	 ??Eiterator@?$list@PAVIMessageObserver@@V?$allocator@PAVIMessageObserver@@@std@@@std@@QAE?AV012@H@Z ; std::list<IMessageObserver *,std::allocator<IMessageObserver *> >::iterator::operator++
$L201996:
  00865	8d 55 d8	 lea	 edx, DWORD PTR $T203510[ebp]
  00868	52		 push	 edx
  00869	8d 4d e8	 lea	 ecx, DWORD PTR _listOb$[ebp]
  0086c	e8 00 00 00 00	 call	 ?end@?$list@PAVIMessageObserver@@V?$allocator@PAVIMessageObserver@@@std@@@std@@QAE?AViterator@12@XZ ; std::list<IMessageObserver *,std::allocator<IMessageObserver *> >::end
  00871	50		 push	 eax
  00872	8d 4d e4	 lea	 ecx, DWORD PTR _itOb$201992[ebp]
  00875	e8 00 00 00 00	 call	 ??9const_iterator@?$list@PAVIMessageObserver@@V?$allocator@PAVIMessageObserver@@@std@@@std@@QBE_NABV012@@Z ; std::list<IMessageObserver *,std::allocator<IMessageObserver *> >::const_iterator::operator!=
  0087a	0f b6 c0	 movzx	 eax, al
  0087d	85 c0		 test	 eax, eax
  0087f	74 35		 je	 SHORT $L201998

; 104  : 	{
; 105  : 		IWebRefreshObserver* pOb = dynamic_cast<IWebRefreshObserver*>(*itOb);

  00881	6a 00		 push	 0
  00883	68 00 00 00 00	 push	 OFFSET FLAT:??_R0?AVIWebRefreshObserver@@@8
  00888	68 00 00 00 00	 push	 OFFSET FLAT:??_R0?AVIMessageObserver@@@8
  0088d	6a 00		 push	 0
  0088f	8d 4d e4	 lea	 ecx, DWORD PTR _itOb$201992[ebp]
  00892	e8 00 00 00 00	 call	 ??Diterator@?$list@PAVIMessageObserver@@V?$allocator@PAVIMessageObserver@@@std@@@std@@QBEAAPAVIMessageObserver@@XZ ; std::list<IMessageObserver *,std::allocator<IMessageObserver *> >::iterator::operator*
  00897	8b 08		 mov	 ecx, DWORD PTR [eax]
  00899	51		 push	 ecx
  0089a	e8 00 00 00 00	 call	 ___RTDynamicCast
  0089f	83 c4 14	 add	 esp, 20			; 00000014H
  008a2	89 45 e0	 mov	 DWORD PTR _pOb$201999[ebp], eax

; 106  : 		pOb->IWebRefreshOb_Refresh( psz);

  008a5	8b 55 08	 mov	 edx, DWORD PTR _psz$[ebp]
  008a8	52		 push	 edx
  008a9	8b 45 e0	 mov	 eax, DWORD PTR _pOb$201999[ebp]
  008ac	8b 10		 mov	 edx, DWORD PTR [eax]
  008ae	8b 4d e0	 mov	 ecx, DWORD PTR _pOb$201999[ebp]
  008b1	ff 52 04	 call	 DWORD PTR [edx+4]

; 107  : 	}

  008b4	eb a1		 jmp	 SHORT $L201997
$L201998:

; 108  : }

  008b6	c7 45 fc ff ff
	ff ff		 mov	 DWORD PTR __$EHRec$[ebp+8], -1
  008bd	8d 4d e8	 lea	 ecx, DWORD PTR _listOb$[ebp]
  008c0	e8 00 00 00 00	 call	 ??1?$list@PAVIMessageObserver@@V?$allocator@PAVIMessageObserver@@@std@@@std@@QAE@XZ ; std::list<IMessageObserver *,std::allocator<IMessageObserver *> >::~list<IMessageObserver *,std::allocator<IMessageObserver *> >
  008c5	8b 4d f4	 mov	 ecx, DWORD PTR __$EHRec$[ebp]
  008c8	64 89 0d 00 00
	00 00		 mov	 DWORD PTR fs:__except_list, ecx
  008cf	8b e5		 mov	 esp, ebp
  008d1	5d		 pop	 ebp
  008d2	c2 04 00	 ret	 4
_TEXT	ENDS
text$x	SEGMENT
$L203511:
  000d6	8d 4d e8	 lea	 ecx, DWORD PTR _listOb$[ebp]
  000d9	e9 00 00 00 00	 jmp	 ??1?$list@PAVIMessageObserver@@V?$allocator@PAVIMessageObserver@@@std@@@std@@QAE@XZ ; std::list<IMessageObserver *,std::allocator<IMessageObserver *> >::~list<IMessageObserver *,std::allocator<IMessageObserver *> >
__ehhandler$?NotifyWebRefresh@CWebManager@@AAEXPBD@Z:
  000de	b8 00 00 00 00	 mov	 eax, OFFSET FLAT:$T203513
  000e3	e9 00 00 00 00	 jmp	 ___CxxFrameHandler
text$x	ENDS
?NotifyWebRefresh@CWebManager@@AAEXPBD@Z ENDP		; CWebManager::NotifyWebRefresh
PUBLIC	?GetValue@CWebManager@@QAE?AV?$basic_string@DU?$char_traits@D@std@@V?$allocator@D@2@@std@@AAV23@V23@@Z ; CWebManager::GetValue
EXTRN	__imp_?length@?$basic_string@DU?$char_traits@D@std@@V?$allocator@D@2@@std@@QBEIXZ:NEAR
xdata$x	SEGMENT
$T203528 DD	0ffffffffH
	DD	FLAT:$L203521
	DD	00H
	DD	FLAT:$L203520
$T203525 DD	019930520H
	DD	02H
	DD	FLAT:$T203528
	DD	2 DUP(00H)
	DD	2 DUP(00H)
; Function compile flags: /Odt
xdata$x	ENDS
_TEXT	SEGMENT
tv132 = -64						; size = 4
tv131 = -60						; size = 4
_this$ = -56						; size = 4
$T203522 = -52						; size = 4
$T203518 = -48						; size = 4
_strUrl$ = -44						; size = 28
__$ArrayPad$ = -16					; size = 4
__$EHRec$ = -12						; size = 12
__$ReturnAddr$ = 4					; size = 4
___$ReturnUdt$ = 8					; size = 4
_strContent$ = 12					; size = 4
?_command_refresh@CWebManager@@AAE?AV?$basic_string@DU?$char_traits@D@std@@V?$allocator@D@2@@std@@AAV23@@Z PROC NEAR ; CWebManager::_command_refresh
; _this$ = ecx

; 110  : {

  008e0	55		 push	 ebp
  008e1	8b ec		 mov	 ebp, esp
  008e3	6a ff		 push	 -1
  008e5	68 00 00 00 00	 push	 __ehhandler$?_command_refresh@CWebManager@@AAE?AV?$basic_string@DU?$char_traits@D@std@@V?$allocator@D@2@@std@@AAV23@@Z
  008ea	64 a1 00 00 00
	00		 mov	 eax, DWORD PTR fs:__except_list
  008f0	50		 push	 eax
  008f1	64 89 25 00 00
	00 00		 mov	 DWORD PTR fs:__except_list, esp
  008f8	83 ec 34	 sub	 esp, 52			; 00000034H
  008fb	a1 00 00 00 00	 mov	 eax, DWORD PTR ___security_cookie
  00900	89 45 f0	 mov	 DWORD PTR __$ArrayPad$[ebp], eax
  00903	89 4d c8	 mov	 DWORD PTR _this$[ebp], ecx
  00906	c7 45 cc 00 00
	00 00		 mov	 DWORD PTR $T203522[ebp], 0

; 111  : 	string strUrl   = GetValue( strContent, "url" );

  0090d	83 ec 1c	 sub	 esp, 28			; 0000001cH
  00910	8b cc		 mov	 ecx, esp
  00912	89 65 d0	 mov	 DWORD PTR $T203518[ebp], esp
  00915	68 00 00 00 00	 push	 OFFSET FLAT:$SG202010
  0091a	ff 15 00 00 00
	00		 call	 DWORD PTR __imp_??0?$basic_string@DU?$char_traits@D@std@@V?$allocator@D@2@@std@@QAE@PBD@Z
  00920	89 45 c4	 mov	 DWORD PTR tv131[ebp], eax
  00923	8b 45 0c	 mov	 eax, DWORD PTR _strContent$[ebp]
  00926	50		 push	 eax
  00927	8d 4d d4	 lea	 ecx, DWORD PTR _strUrl$[ebp]
  0092a	51		 push	 ecx
  0092b	8b 4d c8	 mov	 ecx, DWORD PTR _this$[ebp]
  0092e	e8 00 00 00 00	 call	 ?GetValue@CWebManager@@QAE?AV?$basic_string@DU?$char_traits@D@std@@V?$allocator@D@2@@std@@AAV23@V23@@Z ; CWebManager::GetValue
  00933	89 45 c0	 mov	 DWORD PTR tv132[ebp], eax
  00936	c7 45 fc 01 00
	00 00		 mov	 DWORD PTR __$EHRec$[ebp+8], 1

; 112  : 
; 113  : 	if( strUrl.length() != 0 )

  0093d	8d 4d d4	 lea	 ecx, DWORD PTR _strUrl$[ebp]
  00940	ff 15 00 00 00
	00		 call	 DWORD PTR __imp_?length@?$basic_string@DU?$char_traits@D@std@@V?$allocator@D@2@@std@@QBEIXZ
  00946	85 c0		 test	 eax, eax
  00948	74 3b		 je	 SHORT $L202011

; 114  : 	{
; 115  : 		NotifyWebRefresh( strUrl.c_str() );

  0094a	8d 4d d4	 lea	 ecx, DWORD PTR _strUrl$[ebp]
  0094d	ff 15 00 00 00
	00		 call	 DWORD PTR __imp_?c_str@?$basic_string@DU?$char_traits@D@std@@V?$allocator@D@2@@std@@QBEPBDXZ
  00953	50		 push	 eax
  00954	8b 4d c8	 mov	 ecx, DWORD PTR _this$[ebp]
  00957	e8 00 00 00 00	 call	 ?NotifyWebRefresh@CWebManager@@AAEXPBD@Z ; CWebManager::NotifyWebRefresh

; 116  : 		return "res=ok\n\n";

  0095c	68 00 00 00 00	 push	 OFFSET FLAT:$SG202012
  00961	8b 4d 08	 mov	 ecx, DWORD PTR ___$ReturnUdt$[ebp]
  00964	ff 15 00 00 00
	00		 call	 DWORD PTR __imp_??0?$basic_string@DU?$char_traits@D@std@@V?$allocator@D@2@@std@@QAE@PBD@Z
  0096a	8b 55 cc	 mov	 edx, DWORD PTR $T203522[ebp]
  0096d	83 ca 01	 or	 edx, 1
  00970	89 55 cc	 mov	 DWORD PTR $T203522[ebp], edx
  00973	c6 45 fc 00	 mov	 BYTE PTR __$EHRec$[ebp+8], 0
  00977	8d 4d d4	 lea	 ecx, DWORD PTR _strUrl$[ebp]
  0097a	ff 15 00 00 00
	00		 call	 DWORD PTR __imp_??1?$basic_string@DU?$char_traits@D@std@@V?$allocator@D@2@@std@@QAE@XZ
  00980	8b 45 08	 mov	 eax, DWORD PTR ___$ReturnUdt$[ebp]
  00983	eb 27		 jmp	 SHORT $L202006
$L202011:

; 117  : 	}	
; 118  : 	return "res=err\n\n";

  00985	68 00 00 00 00	 push	 OFFSET FLAT:$SG202013
  0098a	8b 4d 08	 mov	 ecx, DWORD PTR ___$ReturnUdt$[ebp]
  0098d	ff 15 00 00 00
	00		 call	 DWORD PTR __imp_??0?$basic_string@DU?$char_traits@D@std@@V?$allocator@D@2@@std@@QAE@PBD@Z
  00993	8b 45 cc	 mov	 eax, DWORD PTR $T203522[ebp]
  00996	83 c8 01	 or	 eax, 1
  00999	89 45 cc	 mov	 DWORD PTR $T203522[ebp], eax
  0099c	c6 45 fc 00	 mov	 BYTE PTR __$EHRec$[ebp+8], 0
  009a0	8d 4d d4	 lea	 ecx, DWORD PTR _strUrl$[ebp]
  009a3	ff 15 00 00 00
	00		 call	 DWORD PTR __imp_??1?$basic_string@DU?$char_traits@D@std@@V?$allocator@D@2@@std@@QAE@XZ
  009a9	8b 45 08	 mov	 eax, DWORD PTR ___$ReturnUdt$[ebp]
$L202006:

; 119  : }

  009ac	8b 4d f4	 mov	 ecx, DWORD PTR __$EHRec$[ebp]
  009af	64 89 0d 00 00
	00 00		 mov	 DWORD PTR fs:__except_list, ecx
  009b6	8b 4d f0	 mov	 ecx, DWORD PTR __$ArrayPad$[ebp]
  009b9	e8 00 00 00 00	 call	 @__security_check_cookie@4
  009be	8b e5		 mov	 esp, ebp
  009c0	5d		 pop	 ebp
  009c1	c2 08 00	 ret	 8
_TEXT	ENDS
text$x	SEGMENT
$L203520:
  000e8	8d 4d d4	 lea	 ecx, DWORD PTR _strUrl$[ebp]
  000eb	ff 25 00 00 00
	00		 jmp	 DWORD PTR __imp_??1?$basic_string@DU?$char_traits@D@std@@V?$allocator@D@2@@std@@QAE@XZ
$L203521:
  000f1	8b 45 cc	 mov	 eax, DWORD PTR $T203522[ebp]
  000f4	83 e0 01	 and	 eax, 1
  000f7	0f 84 0d 00 00
	00		 je	 $L203523
  000fd	83 65 cc fe	 and	 DWORD PTR $T203522[ebp], -2 ; fffffffeH
  00101	8b 4d 08	 mov	 ecx, DWORD PTR ___$ReturnUdt$[ebp]
  00104	ff 25 00 00 00
	00		 jmp	 DWORD PTR __imp_??1?$basic_string@DU?$char_traits@D@std@@V?$allocator@D@2@@std@@QAE@XZ
$L203523:
  0010a	c3		 ret	 0
__ehhandler$?_command_refresh@CWebManager@@AAE?AV?$basic_string@DU?$char_traits@D@std@@V?$allocator@D@2@@std@@AAV23@@Z:
  0010b	b8 00 00 00 00	 mov	 eax, OFFSET FLAT:$T203525
  00110	e9 00 00 00 00	 jmp	 ___CxxFrameHandler
text$x	ENDS
?_command_refresh@CWebManager@@AAE?AV?$basic_string@DU?$char_traits@D@std@@V?$allocator@D@2@@std@@AAV23@@Z ENDP ; CWebManager::_command_refresh
PUBLIC	??$?HDU?$char_traits@D@std@@V?$allocator@D@1@@std@@YA?AV?$basic_string@DU?$char_traits@D@std@@V?$allocator@D@2@@0@PBDABV10@@Z ; std::operator+<char,std::char_traits<char>,std::allocator<char> >
PUBLIC	??0TAB_ITEM@@QAE@XZ				; TAB_ITEM::TAB_ITEM
PUBLIC	??1TAB_ITEM@@QAE@XZ				; TAB_ITEM::~TAB_ITEM
EXTRN	__imp_?MakeLower@?$CStringT@DV?$StrTraitMFC_DLL@DV?$ChTraitsCRT@D@ATL@@@@@ATL@@QAEAAV12@XZ:NEAR
EXTRN	?IsNumber@@YA_NV?$basic_string@DU?$char_traits@D@std@@V?$allocator@D@2@@std@@@Z:NEAR ; IsNumber
EXTRN	__imp_?LogRealMsg@@YAXABV?$basic_string@DU?$char_traits@D@std@@V?$allocator@D@2@@std@@0_NPAPAEPAI@Z:NEAR
EXTRN	__imp_?Right@?$CStringT@DV?$StrTraitMFC_DLL@DV?$ChTraitsCRT@D@ATL@@@@@ATL@@QBE?AV12@H@Z:NEAR
EXTRN	__imp_??0?$basic_string@DU?$char_traits@D@std@@V?$allocator@D@2@@std@@QAE@ABV01@@Z:NEAR
EXTRN	?AfxGetDataManager2@@YAPAVIDataManager@@XZ:NEAR	; AfxGetDataManager2
xdata$x	SEGMENT
$T203559 DD	0ffffffffH
	DD	FLAT:$L203552
	DD	00H
	DD	FLAT:$L203540
	DD	01H
	DD	FLAT:$L203542
	DD	02H
	DD	FLAT:$L203544
	DD	03H
	DD	FLAT:$L203546
	DD	04H
	DD	FLAT:$L203547
	DD	04H
	DD	FLAT:$L203548
	DD	06H
	DD	FLAT:$L203549
	DD	07H
	DD	FLAT:$L203550
	DD	08H
	DD	FLAT:$L203551
$T203556 DD	019930520H
	DD	0aH
	DD	FLAT:$T203559
	DD	2 DUP(00H)
	DD	2 DUP(00H)
; Function compile flags: /Odt
xdata$x	ENDS
_TEXT	SEGMENT
tv216 = -340						; size = 4
tv210 = -336						; size = 4
tv265 = -332						; size = 4
tv177 = -328						; size = 4
tv262 = -321						; size = 1
tv261 = -320						; size = 4
tv258 = -316						; size = 4
tv257 = -312						; size = 4
tv254 = -308						; size = 4
tv253 = -304						; size = 4
tv250 = -300						; size = 4
tv249 = -296						; size = 4
_this$ = -292						; size = 4
$T203553 = -288						; size = 4
$T203538 = -284						; size = 28
$T203537 = -256						; size = 28
$T203536 = -228						; size = 4
$T203535 = -221						; size = 1
$T203534 = -220						; size = 4
$T203533 = -216						; size = 4
$T203532 = -212						; size = 4
$T203531 = -208						; size = 4
_s$202046 = -204					; size = 28
_tItem$202044 = -176					; size = 60
_bNameOK$ = -113					; size = 1
_strName$ = -112					; size = 28
_strID$ = -84						; size = 28
_strUrl$ = -56						; size = 28
__$ArrayPad$ = -28					; size = 4
_bIDOK$ = -21						; size = 1
_cstrUrl$ = -20						; size = 4
_bUrlOK$ = -13						; size = 1
__$EHRec$ = -12						; size = 12
__$ReturnAddr$ = 4					; size = 4
___$ReturnUdt$ = 8					; size = 4
_strContent$ = 12					; size = 4
?_command_playswfgame@CWebManager@@AAE?AV?$basic_string@DU?$char_traits@D@std@@V?$allocator@D@2@@std@@AAV23@@Z PROC NEAR ; CWebManager::_command_playswfgame
; _this$ = ecx

; 122  : {	

  009d0	55		 push	 ebp
  009d1	8b ec		 mov	 ebp, esp
  009d3	6a ff		 push	 -1
  009d5	68 00 00 00 00	 push	 __ehhandler$?_command_playswfgame@CWebManager@@AAE?AV?$basic_string@DU?$char_traits@D@std@@V?$allocator@D@2@@std@@AAV23@@Z
  009da	64 a1 00 00 00
	00		 mov	 eax, DWORD PTR fs:__except_list
  009e0	50		 push	 eax
  009e1	64 89 25 00 00
	00 00		 mov	 DWORD PTR fs:__except_list, esp
  009e8	81 ec 48 01 00
	00		 sub	 esp, 328		; 00000148H
  009ee	a1 00 00 00 00	 mov	 eax, DWORD PTR ___security_cookie
  009f3	89 45 e4	 mov	 DWORD PTR __$ArrayPad$[ebp], eax
  009f6	89 8d dc fe ff
	ff		 mov	 DWORD PTR _this$[ebp], ecx
  009fc	c7 85 e0 fe ff
	ff 00 00 00 00	 mov	 DWORD PTR $T203553[ebp], 0

; 123  : 	string strID   = GetValue( strContent, "id" );

  00a06	83 ec 1c	 sub	 esp, 28			; 0000001cH
  00a09	8b cc		 mov	 ecx, esp
  00a0b	89 a5 30 ff ff
	ff		 mov	 DWORD PTR $T203531[ebp], esp
  00a11	68 00 00 00 00	 push	 OFFSET FLAT:$SG202022
  00a16	ff 15 00 00 00
	00		 call	 DWORD PTR __imp_??0?$basic_string@DU?$char_traits@D@std@@V?$allocator@D@2@@std@@QAE@PBD@Z
  00a1c	89 85 d8 fe ff
	ff		 mov	 DWORD PTR tv249[ebp], eax
  00a22	8b 45 0c	 mov	 eax, DWORD PTR _strContent$[ebp]
  00a25	50		 push	 eax
  00a26	8d 4d ac	 lea	 ecx, DWORD PTR _strID$[ebp]
  00a29	51		 push	 ecx
  00a2a	8b 8d dc fe ff
	ff		 mov	 ecx, DWORD PTR _this$[ebp]
  00a30	e8 00 00 00 00	 call	 ?GetValue@CWebManager@@QAE?AV?$basic_string@DU?$char_traits@D@std@@V?$allocator@D@2@@std@@AAV23@V23@@Z ; CWebManager::GetValue
  00a35	89 85 d4 fe ff
	ff		 mov	 DWORD PTR tv250[ebp], eax
  00a3b	c7 45 fc 01 00
	00 00		 mov	 DWORD PTR __$EHRec$[ebp+8], 1

; 124  : 	string strName = GetValue( strContent, "name" );

  00a42	83 ec 1c	 sub	 esp, 28			; 0000001cH
  00a45	8b cc		 mov	 ecx, esp
  00a47	89 a5 2c ff ff
	ff		 mov	 DWORD PTR $T203532[ebp], esp
  00a4d	68 00 00 00 00	 push	 OFFSET FLAT:$SG202026
  00a52	ff 15 00 00 00
	00		 call	 DWORD PTR __imp_??0?$basic_string@DU?$char_traits@D@std@@V?$allocator@D@2@@std@@QAE@PBD@Z
  00a58	89 85 d0 fe ff
	ff		 mov	 DWORD PTR tv253[ebp], eax
  00a5e	8b 55 0c	 mov	 edx, DWORD PTR _strContent$[ebp]
  00a61	52		 push	 edx
  00a62	8d 45 90	 lea	 eax, DWORD PTR _strName$[ebp]
  00a65	50		 push	 eax
  00a66	8b 8d dc fe ff
	ff		 mov	 ecx, DWORD PTR _this$[ebp]
  00a6c	e8 00 00 00 00	 call	 ?GetValue@CWebManager@@QAE?AV?$basic_string@DU?$char_traits@D@std@@V?$allocator@D@2@@std@@AAV23@V23@@Z ; CWebManager::GetValue
  00a71	89 85 cc fe ff
	ff		 mov	 DWORD PTR tv254[ebp], eax
  00a77	c6 45 fc 02	 mov	 BYTE PTR __$EHRec$[ebp+8], 2

; 125  : 	string strUrl  = GetValue( strContent, "swfurl" );

  00a7b	83 ec 1c	 sub	 esp, 28			; 0000001cH
  00a7e	8b cc		 mov	 ecx, esp
  00a80	89 a5 28 ff ff
	ff		 mov	 DWORD PTR $T203533[ebp], esp
  00a86	68 00 00 00 00	 push	 OFFSET FLAT:$SG202030
  00a8b	ff 15 00 00 00
	00		 call	 DWORD PTR __imp_??0?$basic_string@DU?$char_traits@D@std@@V?$allocator@D@2@@std@@QAE@PBD@Z
  00a91	89 85 c8 fe ff
	ff		 mov	 DWORD PTR tv257[ebp], eax
  00a97	8b 4d 0c	 mov	 ecx, DWORD PTR _strContent$[ebp]
  00a9a	51		 push	 ecx
  00a9b	8d 55 c8	 lea	 edx, DWORD PTR _strUrl$[ebp]
  00a9e	52		 push	 edx
  00a9f	8b 8d dc fe ff
	ff		 mov	 ecx, DWORD PTR _this$[ebp]
  00aa5	e8 00 00 00 00	 call	 ?GetValue@CWebManager@@QAE?AV?$basic_string@DU?$char_traits@D@std@@V?$allocator@D@2@@std@@AAV23@V23@@Z ; CWebManager::GetValue
  00aaa	89 85 c4 fe ff
	ff		 mov	 DWORD PTR tv258[ebp], eax
  00ab0	c6 45 fc 03	 mov	 BYTE PTR __$EHRec$[ebp+8], 3

; 126  : 
; 127  : 	//idOK
; 128  : 	bool bIDOK = false;

  00ab4	c6 45 eb 00	 mov	 BYTE PTR _bIDOK$[ebp], 0

; 129  : 	if( strID.length() > 0 && IsNumber( strID ) ) //ID

  00ab8	8d 4d ac	 lea	 ecx, DWORD PTR _strID$[ebp]
  00abb	ff 15 00 00 00
	00		 call	 DWORD PTR __imp_?length@?$basic_string@DU?$char_traits@D@std@@V?$allocator@D@2@@std@@QBEIXZ
  00ac1	85 c0		 test	 eax, eax
  00ac3	76 38		 jbe	 SHORT $L202033
  00ac5	83 ec 1c	 sub	 esp, 28			; 0000001cH
  00ac8	8b cc		 mov	 ecx, esp
  00aca	89 a5 24 ff ff
	ff		 mov	 DWORD PTR $T203534[ebp], esp
  00ad0	8d 45 ac	 lea	 eax, DWORD PTR _strID$[ebp]
  00ad3	50		 push	 eax
  00ad4	ff 15 00 00 00
	00		 call	 DWORD PTR __imp_??0?$basic_string@DU?$char_traits@D@std@@V?$allocator@D@2@@std@@QAE@ABV01@@Z
  00ada	89 85 c0 fe ff
	ff		 mov	 DWORD PTR tv261[ebp], eax
  00ae0	e8 00 00 00 00	 call	 ?IsNumber@@YA_NV?$basic_string@DU?$char_traits@D@std@@V?$allocator@D@2@@std@@@Z ; IsNumber
  00ae5	83 c4 1c	 add	 esp, 28			; 0000001cH
  00ae8	88 85 bf fe ff
	ff		 mov	 BYTE PTR tv262[ebp], al
  00aee	0f b6 8d bf fe
	ff ff		 movzx	 ecx, BYTE PTR tv262[ebp]
  00af5	85 c9		 test	 ecx, ecx
  00af7	74 04		 je	 SHORT $L202033

; 130  : 	{
; 131  : 		bIDOK = true;

  00af9	c6 45 eb 01	 mov	 BYTE PTR _bIDOK$[ebp], 1
$L202033:

; 132  : 	}
; 133  : 	//nameOK
; 134  : 	bool bNameOK = false;

  00afd	c6 45 8f 00	 mov	 BYTE PTR _bNameOK$[ebp], 0

; 135  : 	if( strName.length() != 0 )

  00b01	8d 4d 90	 lea	 ecx, DWORD PTR _strName$[ebp]
  00b04	ff 15 00 00 00
	00		 call	 DWORD PTR __imp_?length@?$basic_string@DU?$char_traits@D@std@@V?$allocator@D@2@@std@@QBEIXZ
  00b0a	85 c0		 test	 eax, eax
  00b0c	74 04		 je	 SHORT $L202035

; 136  : 	{
; 137  : 		bNameOK = true;

  00b0e	c6 45 8f 01	 mov	 BYTE PTR _bNameOK$[ebp], 1
$L202035:

; 138  : 	}
; 139  : 	//urlOK
; 140  : 	bool bUrlOK = false;

  00b12	c6 45 f3 00	 mov	 BYTE PTR _bUrlOK$[ebp], 0

; 141  : 	CString cstrUrl = CString( strUrl.c_str() );

  00b16	8d 4d c8	 lea	 ecx, DWORD PTR _strUrl$[ebp]
  00b19	ff 15 00 00 00
	00		 call	 DWORD PTR __imp_?c_str@?$basic_string@DU?$char_traits@D@std@@V?$allocator@D@2@@std@@QBEPBDXZ
  00b1f	50		 push	 eax
  00b20	8d 4d ec	 lea	 ecx, DWORD PTR _cstrUrl$[ebp]
  00b23	ff 15 00 00 00
	00		 call	 DWORD PTR __imp_??0?$CStringT@DV?$StrTraitMFC_DLL@DV?$ChTraitsCRT@D@ATL@@@@@ATL@@QAE@PBD@Z
  00b29	c6 45 fc 04	 mov	 BYTE PTR __$EHRec$[ebp+8], 4

; 142  : 	if( cstrUrl.Right(4).MakeLower() == ".swf" ) //url4.swf

  00b2d	6a 04		 push	 4
  00b2f	8d 95 1c ff ff
	ff		 lea	 edx, DWORD PTR $T203536[ebp]
  00b35	52		 push	 edx
  00b36	8d 4d ec	 lea	 ecx, DWORD PTR _cstrUrl$[ebp]
  00b39	ff 15 00 00 00
	00		 call	 DWORD PTR __imp_?Right@?$CStringT@DV?$StrTraitMFC_DLL@DV?$ChTraitsCRT@D@ATL@@@@@ATL@@QBE?AV12@H@Z
  00b3f	89 85 b8 fe ff
	ff		 mov	 DWORD PTR tv177[ebp], eax
  00b45	8b 85 b8 fe ff
	ff		 mov	 eax, DWORD PTR tv177[ebp]
  00b4b	89 85 b4 fe ff
	ff		 mov	 DWORD PTR tv265[ebp], eax
  00b51	c6 45 fc 05	 mov	 BYTE PTR __$EHRec$[ebp+8], 5
  00b55	68 00 00 00 00	 push	 OFFSET FLAT:$SG202042
  00b5a	8b 8d b4 fe ff
	ff		 mov	 ecx, DWORD PTR tv265[ebp]
  00b60	ff 15 00 00 00
	00		 call	 DWORD PTR __imp_?MakeLower@?$CStringT@DV?$StrTraitMFC_DLL@DV?$ChTraitsCRT@D@ATL@@@@@ATL@@QAEAAV12@XZ
  00b66	50		 push	 eax
  00b67	e8 00 00 00 00	 call	 ??8ATL@@YA_NABV?$CStringT@DV?$StrTraitMFC_DLL@DV?$ChTraitsCRT@D@ATL@@@@@0@PBD@Z ; ATL::operator==
  00b6c	83 c4 08	 add	 esp, 8
  00b6f	88 85 23 ff ff
	ff		 mov	 BYTE PTR $T203535[ebp], al
  00b75	c6 45 fc 04	 mov	 BYTE PTR __$EHRec$[ebp+8], 4
  00b79	8d 8d 1c ff ff
	ff		 lea	 ecx, DWORD PTR $T203536[ebp]
  00b7f	ff 15 00 00 00
	00		 call	 DWORD PTR __imp_??1?$CStringT@DV?$StrTraitMFC_DLL@DV?$ChTraitsCRT@D@ATL@@@@@ATL@@QAE@XZ
  00b85	0f b6 8d 23 ff
	ff ff		 movzx	 ecx, BYTE PTR $T203535[ebp]
  00b8c	85 c9		 test	 ecx, ecx
  00b8e	74 04		 je	 SHORT $L202040

; 143  : 	{
; 144  : 		bUrlOK = true;

  00b90	c6 45 f3 01	 mov	 BYTE PTR _bUrlOK$[ebp], 1
$L202040:

; 145  : 	}	
; 146  : 	
; 147  : 	if( bIDOK && bNameOK && bUrlOK )

  00b94	0f b6 55 eb	 movzx	 edx, BYTE PTR _bIDOK$[ebp]
  00b98	85 d2		 test	 edx, edx
  00b9a	0f 84 90 01 00
	00		 je	 $L202043
  00ba0	0f b6 45 8f	 movzx	 eax, BYTE PTR _bNameOK$[ebp]
  00ba4	85 c0		 test	 eax, eax
  00ba6	0f 84 84 01 00
	00		 je	 $L202043
  00bac	0f b6 4d f3	 movzx	 ecx, BYTE PTR _bUrlOK$[ebp]
  00bb0	85 c9		 test	 ecx, ecx
  00bb2	0f 84 78 01 00
	00		 je	 $L202043

; 148  : 	{
; 149  : 		TAB_ITEM tItem;

  00bb8	8d 8d 50 ff ff
	ff		 lea	 ecx, DWORD PTR _tItem$202044[ebp]
  00bbe	e8 00 00 00 00	 call	 ??0TAB_ITEM@@QAE@XZ
  00bc3	c6 45 fc 06	 mov	 BYTE PTR __$EHRec$[ebp+8], 6

; 150  : 		tItem.eumType = TAB_GAME;

  00bc7	c7 85 6c ff ff
	ff 03 00 00 00	 mov	 DWORD PTR _tItem$202044[ebp+28], 3

; 151  : 		tItem.strName = strName;

  00bd1	8d 55 90	 lea	 edx, DWORD PTR _strName$[ebp]
  00bd4	52		 push	 edx
  00bd5	8d 8d 50 ff ff
	ff		 lea	 ecx, DWORD PTR _tItem$202044[ebp]
  00bdb	ff 15 00 00 00
	00		 call	 DWORD PTR __imp_??4?$basic_string@DU?$char_traits@D@std@@V?$allocator@D@2@@std@@QAEAAV01@ABV01@@Z

; 152  : 		tItem.strParam = strContent;

  00be1	8b 45 0c	 mov	 eax, DWORD PTR _strContent$[ebp]
  00be4	50		 push	 eax
  00be5	8d 8d 70 ff ff
	ff		 lea	 ecx, DWORD PTR _tItem$202044[ebp+32]
  00beb	ff 15 00 00 00
	00		 call	 DWORD PTR __imp_??4?$basic_string@DU?$char_traits@D@std@@V?$allocator@D@2@@std@@QAEAAV01@ABV01@@Z

; 153  : 		GLOBAL_TABBARDATA->ITabBar_ChangeTab(tItem);

  00bf1	e8 00 00 00 00	 call	 ?AfxGetDataManager2@@YAPAVIDataManager@@XZ ; AfxGetDataManager2
  00bf6	89 85 b0 fe ff
	ff		 mov	 DWORD PTR tv210[ebp], eax
  00bfc	68 00 00 00 00	 push	 OFFSET FLAT:_ID_DATA_TABBAR
  00c01	8b 8d b0 fe ff
	ff		 mov	 ecx, DWORD PTR tv210[ebp]
  00c07	8b 11		 mov	 edx, DWORD PTR [ecx]
  00c09	8b 8d b0 fe ff
	ff		 mov	 ecx, DWORD PTR tv210[ebp]
  00c0f	ff 52 0c	 call	 DWORD PTR [edx+12]
  00c12	89 85 ac fe ff
	ff		 mov	 DWORD PTR tv216[ebp], eax
  00c18	8d 85 50 ff ff
	ff		 lea	 eax, DWORD PTR _tItem$202044[ebp]
  00c1e	50		 push	 eax
  00c1f	8b 8d ac fe ff
	ff		 mov	 ecx, DWORD PTR tv216[ebp]
  00c25	8b 11		 mov	 edx, DWORD PTR [ecx]
  00c27	8b 8d ac fe ff
	ff		 mov	 ecx, DWORD PTR tv216[ebp]
  00c2d	ff 52 0c	 call	 DWORD PTR [edx+12]

; 154  : 
; 155  : 		string s = "PlaySwfGame:" + strID;

  00c30	8d 45 ac	 lea	 eax, DWORD PTR _strID$[ebp]
  00c33	50		 push	 eax
  00c34	68 00 00 00 00	 push	 OFFSET FLAT:$SG202048
  00c39	8d 8d 34 ff ff
	ff		 lea	 ecx, DWORD PTR _s$202046[ebp]
  00c3f	51		 push	 ecx
  00c40	e8 00 00 00 00	 call	 ??$?HDU?$char_traits@D@std@@V?$allocator@D@1@@std@@YA?AV?$basic_string@DU?$char_traits@D@std@@V?$allocator@D@2@@0@PBDABV10@@Z ; std::operator+<char,std::char_traits<char>,std::allocator<char> >
  00c45	83 c4 0c	 add	 esp, 12			; 0000000cH
  00c48	c6 45 fc 07	 mov	 BYTE PTR __$EHRec$[ebp+8], 7

; 156  : 		LogRealMsg("PLAYGAME",s.c_str());

  00c4c	8d 8d 34 ff ff
	ff		 lea	 ecx, DWORD PTR _s$202046[ebp]
  00c52	ff 15 00 00 00
	00		 call	 DWORD PTR __imp_?c_str@?$basic_string@DU?$char_traits@D@std@@V?$allocator@D@2@@std@@QBEPBDXZ
  00c58	50		 push	 eax
  00c59	8d 8d 00 ff ff
	ff		 lea	 ecx, DWORD PTR $T203537[ebp]
  00c5f	ff 15 00 00 00
	00		 call	 DWORD PTR __imp_??0?$basic_string@DU?$char_traits@D@std@@V?$allocator@D@2@@std@@QAE@PBD@Z
  00c65	c6 45 fc 08	 mov	 BYTE PTR __$EHRec$[ebp+8], 8
  00c69	68 00 00 00 00	 push	 OFFSET FLAT:$SG202051
  00c6e	8d 8d e4 fe ff
	ff		 lea	 ecx, DWORD PTR $T203538[ebp]
  00c74	ff 15 00 00 00
	00		 call	 DWORD PTR __imp_??0?$basic_string@DU?$char_traits@D@std@@V?$allocator@D@2@@std@@QAE@PBD@Z
  00c7a	c6 45 fc 09	 mov	 BYTE PTR __$EHRec$[ebp+8], 9
  00c7e	6a 00		 push	 0
  00c80	6a 00		 push	 0
  00c82	6a 00		 push	 0
  00c84	8d 95 00 ff ff
	ff		 lea	 edx, DWORD PTR $T203537[ebp]
  00c8a	52		 push	 edx
  00c8b	8d 85 e4 fe ff
	ff		 lea	 eax, DWORD PTR $T203538[ebp]
  00c91	50		 push	 eax
  00c92	ff 15 00 00 00
	00		 call	 DWORD PTR __imp_?LogRealMsg@@YAXABV?$basic_string@DU?$char_traits@D@std@@V?$allocator@D@2@@std@@0_NPAPAEPAI@Z
  00c98	83 c4 14	 add	 esp, 20			; 00000014H
  00c9b	c6 45 fc 08	 mov	 BYTE PTR __$EHRec$[ebp+8], 8
  00c9f	8d 8d e4 fe ff
	ff		 lea	 ecx, DWORD PTR $T203538[ebp]
  00ca5	ff 15 00 00 00
	00		 call	 DWORD PTR __imp_??1?$basic_string@DU?$char_traits@D@std@@V?$allocator@D@2@@std@@QAE@XZ
  00cab	c6 45 fc 07	 mov	 BYTE PTR __$EHRec$[ebp+8], 7
  00caf	8d 8d 00 ff ff
	ff		 lea	 ecx, DWORD PTR $T203537[ebp]
  00cb5	ff 15 00 00 00
	00		 call	 DWORD PTR __imp_??1?$basic_string@DU?$char_traits@D@std@@V?$allocator@D@2@@std@@QAE@XZ

; 157  : 		return "res=ok\n\n";

  00cbb	68 00 00 00 00	 push	 OFFSET FLAT:$SG202052
  00cc0	8b 4d 08	 mov	 ecx, DWORD PTR ___$ReturnUdt$[ebp]
  00cc3	ff 15 00 00 00
	00		 call	 DWORD PTR __imp_??0?$basic_string@DU?$char_traits@D@std@@V?$allocator@D@2@@std@@QAE@PBD@Z
  00cc9	8b 8d e0 fe ff
	ff		 mov	 ecx, DWORD PTR $T203553[ebp]
  00ccf	83 c9 01	 or	 ecx, 1
  00cd2	89 8d e0 fe ff
	ff		 mov	 DWORD PTR $T203553[ebp], ecx
  00cd8	c6 45 fc 06	 mov	 BYTE PTR __$EHRec$[ebp+8], 6
  00cdc	8d 8d 34 ff ff
	ff		 lea	 ecx, DWORD PTR _s$202046[ebp]
  00ce2	ff 15 00 00 00
	00		 call	 DWORD PTR __imp_??1?$basic_string@DU?$char_traits@D@std@@V?$allocator@D@2@@std@@QAE@XZ
  00ce8	c6 45 fc 04	 mov	 BYTE PTR __$EHRec$[ebp+8], 4
  00cec	8d 8d 50 ff ff
	ff		 lea	 ecx, DWORD PTR _tItem$202044[ebp]
  00cf2	e8 00 00 00 00	 call	 ??1TAB_ITEM@@QAE@XZ
  00cf7	c6 45 fc 03	 mov	 BYTE PTR __$EHRec$[ebp+8], 3
  00cfb	8d 4d ec	 lea	 ecx, DWORD PTR _cstrUrl$[ebp]
  00cfe	ff 15 00 00 00
	00		 call	 DWORD PTR __imp_??1?$CStringT@DV?$StrTraitMFC_DLL@DV?$ChTraitsCRT@D@ATL@@@@@ATL@@QAE@XZ
  00d04	c6 45 fc 02	 mov	 BYTE PTR __$EHRec$[ebp+8], 2
  00d08	8d 4d c8	 lea	 ecx, DWORD PTR _strUrl$[ebp]
  00d0b	ff 15 00 00 00
	00		 call	 DWORD PTR __imp_??1?$basic_string@DU?$char_traits@D@std@@V?$allocator@D@2@@std@@QAE@XZ
  00d11	c6 45 fc 01	 mov	 BYTE PTR __$EHRec$[ebp+8], 1
  00d15	8d 4d 90	 lea	 ecx, DWORD PTR _strName$[ebp]
  00d18	ff 15 00 00 00
	00		 call	 DWORD PTR __imp_??1?$basic_string@DU?$char_traits@D@std@@V?$allocator@D@2@@std@@QAE@XZ
  00d1e	c6 45 fc 00	 mov	 BYTE PTR __$EHRec$[ebp+8], 0
  00d22	8d 4d ac	 lea	 ecx, DWORD PTR _strID$[ebp]
  00d25	ff 15 00 00 00
	00		 call	 DWORD PTR __imp_??1?$basic_string@DU?$char_traits@D@std@@V?$allocator@D@2@@std@@QAE@XZ
  00d2b	8b 45 08	 mov	 eax, DWORD PTR ___$ReturnUdt$[ebp]
  00d2e	eb 54		 jmp	 SHORT $L202018
$L202043:

; 158  : 	}else
; 159  : 	{
; 160  : 		return "res=err\n\n";

  00d30	68 00 00 00 00	 push	 OFFSET FLAT:$SG202054
  00d35	8b 4d 08	 mov	 ecx, DWORD PTR ___$ReturnUdt$[ebp]
  00d38	ff 15 00 00 00
	00		 call	 DWORD PTR __imp_??0?$basic_string@DU?$char_traits@D@std@@V?$allocator@D@2@@std@@QAE@PBD@Z
  00d3e	8b 95 e0 fe ff
	ff		 mov	 edx, DWORD PTR $T203553[ebp]
  00d44	83 ca 01	 or	 edx, 1
  00d47	89 95 e0 fe ff
	ff		 mov	 DWORD PTR $T203553[ebp], edx
  00d4d	c6 45 fc 03	 mov	 BYTE PTR __$EHRec$[ebp+8], 3
  00d51	8d 4d ec	 lea	 ecx, DWORD PTR _cstrUrl$[ebp]
  00d54	ff 15 00 00 00
	00		 call	 DWORD PTR __imp_??1?$CStringT@DV?$StrTraitMFC_DLL@DV?$ChTraitsCRT@D@ATL@@@@@ATL@@QAE@XZ
  00d5a	c6 45 fc 02	 mov	 BYTE PTR __$EHRec$[ebp+8], 2
  00d5e	8d 4d c8	 lea	 ecx, DWORD PTR _strUrl$[ebp]
  00d61	ff 15 00 00 00
	00		 call	 DWORD PTR __imp_??1?$basic_string@DU?$char_traits@D@std@@V?$allocator@D@2@@std@@QAE@XZ
  00d67	c6 45 fc 01	 mov	 BYTE PTR __$EHRec$[ebp+8], 1
  00d6b	8d 4d 90	 lea	 ecx, DWORD PTR _strName$[ebp]
  00d6e	ff 15 00 00 00
	00		 call	 DWORD PTR __imp_??1?$basic_string@DU?$char_traits@D@std@@V?$allocator@D@2@@std@@QAE@XZ
  00d74	c6 45 fc 00	 mov	 BYTE PTR __$EHRec$[ebp+8], 0
  00d78	8d 4d ac	 lea	 ecx, DWORD PTR _strID$[ebp]
  00d7b	ff 15 00 00 00
	00		 call	 DWORD PTR __imp_??1?$basic_string@DU?$char_traits@D@std@@V?$allocator@D@2@@std@@QAE@XZ
  00d81	8b 45 08	 mov	 eax, DWORD PTR ___$ReturnUdt$[ebp]
$L202018:

; 161  : 	}	
; 162  : }

  00d84	8b 4d f4	 mov	 ecx, DWORD PTR __$EHRec$[ebp]
  00d87	64 89 0d 00 00
	00 00		 mov	 DWORD PTR fs:__except_list, ecx
  00d8e	8b 4d e4	 mov	 ecx, DWORD PTR __$ArrayPad$[ebp]
  00d91	e8 00 00 00 00	 call	 @__security_check_cookie@4
  00d96	8b e5		 mov	 esp, ebp
  00d98	5d		 pop	 ebp
  00d99	c2 08 00	 ret	 8
_TEXT	ENDS
text$x	SEGMENT
$L203540:
  00115	8d 4d ac	 lea	 ecx, DWORD PTR _strID$[ebp]
  00118	ff 25 00 00 00
	00		 jmp	 DWORD PTR __imp_??1?$basic_string@DU?$char_traits@D@std@@V?$allocator@D@2@@std@@QAE@XZ
$L203542:
  0011e	8d 4d 90	 lea	 ecx, DWORD PTR _strName$[ebp]
  00121	ff 25 00 00 00
	00		 jmp	 DWORD PTR __imp_??1?$basic_string@DU?$char_traits@D@std@@V?$allocator@D@2@@std@@QAE@XZ
$L203544:
  00127	8d 4d c8	 lea	 ecx, DWORD PTR _strUrl$[ebp]
  0012a	ff 25 00 00 00
	00		 jmp	 DWORD PTR __imp_??1?$basic_string@DU?$char_traits@D@std@@V?$allocator@D@2@@std@@QAE@XZ
$L203546:
  00130	8d 4d ec	 lea	 ecx, DWORD PTR _cstrUrl$[ebp]
  00133	ff 25 00 00 00
	00		 jmp	 DWORD PTR __imp_??1?$CStringT@DV?$StrTraitMFC_DLL@DV?$ChTraitsCRT@D@ATL@@@@@ATL@@QAE@XZ
$L203547:
  00139	8d 8d 1c ff ff
	ff		 lea	 ecx, DWORD PTR $T203536[ebp]
  0013f	ff 25 00 00 00
	00		 jmp	 DWORD PTR __imp_??1?$CStringT@DV?$StrTraitMFC_DLL@DV?$ChTraitsCRT@D@ATL@@@@@ATL@@QAE@XZ
$L203548:
  00145	8d 8d 50 ff ff
	ff		 lea	 ecx, DWORD PTR _tItem$202044[ebp]
  0014b	e9 00 00 00 00	 jmp	 ??1TAB_ITEM@@QAE@XZ
$L203549:
  00150	8d 8d 34 ff ff
	ff		 lea	 ecx, DWORD PTR _s$202046[ebp]
  00156	ff 25 00 00 00
	00		 jmp	 DWORD PTR __imp_??1?$basic_string@DU?$char_traits@D@std@@V?$allocator@D@2@@std@@QAE@XZ
$L203550:
  0015c	8d 8d 00 ff ff
	ff		 lea	 ecx, DWORD PTR $T203537[ebp]
  00162	ff 25 00 00 00
	00		 jmp	 DWORD PTR __imp_??1?$basic_string@DU?$char_traits@D@std@@V?$allocator@D@2@@std@@QAE@XZ
$L203551:
  00168	8d 8d e4 fe ff
	ff		 lea	 ecx, DWORD PTR $T203538[ebp]
  0016e	ff 25 00 00 00
	00		 jmp	 DWORD PTR __imp_??1?$basic_string@DU?$char_traits@D@std@@V?$allocator@D@2@@std@@QAE@XZ
$L203552:
  00174	8b 85 e0 fe ff
	ff		 mov	 eax, DWORD PTR $T203553[ebp]
  0017a	83 e0 01	 and	 eax, 1
  0017d	0f 84 10 00 00
	00		 je	 $L203554
  00183	83 a5 e0 fe ff
	ff fe		 and	 DWORD PTR $T203553[ebp], -2 ; fffffffeH
  0018a	8b 4d 08	 mov	 ecx, DWORD PTR ___$ReturnUdt$[ebp]
  0018d	ff 25 00 00 00
	00		 jmp	 DWORD PTR __imp_??1?$basic_string@DU?$char_traits@D@std@@V?$allocator@D@2@@std@@QAE@XZ
$L203554:
  00193	c3		 ret	 0
__ehhandler$?_command_playswfgame@CWebManager@@AAE?AV?$basic_string@DU?$char_traits@D@std@@V?$allocator@D@2@@std@@AAV23@@Z:
  00194	b8 00 00 00 00	 mov	 eax, OFFSET FLAT:$T203556
  00199	e9 00 00 00 00	 jmp	 ___CxxFrameHandler
text$x	ENDS
?_command_playswfgame@CWebManager@@AAE?AV?$basic_string@DU?$char_traits@D@std@@V?$allocator@D@2@@std@@AAV23@@Z ENDP ; CWebManager::_command_playswfgame
;	COMDAT xdata$x
xdata$x	SEGMENT
$T203566 DD	0ffffffffH
	DD	FLAT:$L203561
$T203564 DD	019930520H
	DD	01H
	DD	FLAT:$T203566
	DD	2 DUP(00H)
	DD	2 DUP(00H)
; Function compile flags: /Odt
xdata$x	ENDS
;	COMDAT ??0TAB_ITEM@@QAE@XZ
_TEXT	SEGMENT
_this$ = -16						; size = 4
__$EHRec$ = -12						; size = 12
??0TAB_ITEM@@QAE@XZ PROC NEAR				; TAB_ITEM::TAB_ITEM, COMDAT
; _this$ = ecx
  00000	55		 push	 ebp
  00001	8b ec		 mov	 ebp, esp
  00003	6a ff		 push	 -1
  00005	68 00 00 00 00	 push	 __ehhandler$??0TAB_ITEM@@QAE@XZ
  0000a	64 a1 00 00 00
	00		 mov	 eax, DWORD PTR fs:__except_list
  00010	50		 push	 eax
  00011	64 89 25 00 00
	00 00		 mov	 DWORD PTR fs:__except_list, esp
  00018	51		 push	 ecx
  00019	89 4d f0	 mov	 DWORD PTR _this$[ebp], ecx
  0001c	8b 4d f0	 mov	 ecx, DWORD PTR _this$[ebp]
  0001f	ff 15 00 00 00
	00		 call	 DWORD PTR __imp_??0?$basic_string@DU?$char_traits@D@std@@V?$allocator@D@2@@std@@QAE@XZ
  00025	c7 45 fc 00 00
	00 00		 mov	 DWORD PTR __$EHRec$[ebp+8], 0
  0002c	8b 4d f0	 mov	 ecx, DWORD PTR _this$[ebp]
  0002f	83 c1 20	 add	 ecx, 32			; 00000020H
  00032	ff 15 00 00 00
	00		 call	 DWORD PTR __imp_??0?$basic_string@DU?$char_traits@D@std@@V?$allocator@D@2@@std@@QAE@XZ
  00038	c7 45 fc ff ff
	ff ff		 mov	 DWORD PTR __$EHRec$[ebp+8], -1
  0003f	8b 45 f0	 mov	 eax, DWORD PTR _this$[ebp]
  00042	8b 4d f4	 mov	 ecx, DWORD PTR __$EHRec$[ebp]
  00045	64 89 0d 00 00
	00 00		 mov	 DWORD PTR fs:__except_list, ecx
  0004c	8b e5		 mov	 esp, ebp
  0004e	5d		 pop	 ebp
  0004f	c3		 ret	 0
_TEXT	ENDS
;	COMDAT text$x
text$x	SEGMENT
$L203561:
  00000	8b 4d f0	 mov	 ecx, DWORD PTR _this$[ebp]
  00003	ff 25 00 00 00
	00		 jmp	 DWORD PTR __imp_??1?$basic_string@DU?$char_traits@D@std@@V?$allocator@D@2@@std@@QAE@XZ
__ehhandler$??0TAB_ITEM@@QAE@XZ:
  00009	b8 00 00 00 00	 mov	 eax, OFFSET FLAT:$T203564
  0000e	e9 00 00 00 00	 jmp	 ___CxxFrameHandler
text$x	ENDS
??0TAB_ITEM@@QAE@XZ ENDP				; TAB_ITEM::TAB_ITEM
;	COMDAT xdata$x
xdata$x	SEGMENT
$T203576 DD	0ffffffffH
	DD	FLAT:$L203571
$T203574 DD	019930520H
	DD	01H
	DD	FLAT:$T203576
	DD	2 DUP(00H)
	DD	2 DUP(00H)
; Function compile flags: /Odt
xdata$x	ENDS
;	COMDAT ??1TAB_ITEM@@QAE@XZ
_TEXT	SEGMENT
_this$ = -16						; size = 4
__$EHRec$ = -12						; size = 12
??1TAB_ITEM@@QAE@XZ PROC NEAR				; TAB_ITEM::~TAB_ITEM, COMDAT
; _this$ = ecx
  00000	55		 push	 ebp
  00001	8b ec		 mov	 ebp, esp
  00003	6a ff		 push	 -1
  00005	68 00 00 00 00	 push	 __ehhandler$??1TAB_ITEM@@QAE@XZ
  0000a	64 a1 00 00 00
	00		 mov	 eax, DWORD PTR fs:__except_list
  00010	50		 push	 eax
  00011	64 89 25 00 00
	00 00		 mov	 DWORD PTR fs:__except_list, esp
  00018	51		 push	 ecx
  00019	89 4d f0	 mov	 DWORD PTR _this$[ebp], ecx
  0001c	c7 45 fc 00 00
	00 00		 mov	 DWORD PTR __$EHRec$[ebp+8], 0
  00023	8b 4d f0	 mov	 ecx, DWORD PTR _this$[ebp]
  00026	83 c1 20	 add	 ecx, 32			; 00000020H
  00029	ff 15 00 00 00
	00		 call	 DWORD PTR __imp_??1?$basic_string@DU?$char_traits@D@std@@V?$allocator@D@2@@std@@QAE@XZ
  0002f	c7 45 fc ff ff
	ff ff		 mov	 DWORD PTR __$EHRec$[ebp+8], -1
  00036	8b 4d f0	 mov	 ecx, DWORD PTR _this$[ebp]
  00039	ff 15 00 00 00
	00		 call	 DWORD PTR __imp_??1?$basic_string@DU?$char_traits@D@std@@V?$allocator@D@2@@std@@QAE@XZ
  0003f	8b 4d f4	 mov	 ecx, DWORD PTR __$EHRec$[ebp]
  00042	64 89 0d 00 00
	00 00		 mov	 DWORD PTR fs:__except_list, ecx
  00049	8b e5		 mov	 esp, ebp
  0004b	5d		 pop	 ebp
  0004c	c3		 ret	 0
_TEXT	ENDS
;	COMDAT text$x
text$x	SEGMENT
$L203571:
  00000	8b 4d f0	 mov	 ecx, DWORD PTR _this$[ebp]
  00003	ff 25 00 00 00
	00		 jmp	 DWORD PTR __imp_??1?$basic_string@DU?$char_traits@D@std@@V?$allocator@D@2@@std@@QAE@XZ
__ehhandler$??1TAB_ITEM@@QAE@XZ:
  00009	b8 00 00 00 00	 mov	 eax, OFFSET FLAT:$T203574
  0000e	e9 00 00 00 00	 jmp	 ___CxxFrameHandler
text$x	ENDS
??1TAB_ITEM@@QAE@XZ ENDP				; TAB_ITEM::~TAB_ITEM
EXTRN	__imp_?Left@?$CStringT@DV?$StrTraitMFC_DLL@DV?$ChTraitsCRT@D@ATL@@@@@ATL@@QBE?AV12@H@Z:NEAR
xdata$x	SEGMENT
$T203610 DD	0ffffffffH
	DD	FLAT:$L203603
	DD	00H
	DD	FLAT:$L203591
	DD	01H
	DD	FLAT:$L203593
	DD	02H
	DD	FLAT:$L203595
	DD	03H
	DD	FLAT:$L203597
	DD	04H
	DD	FLAT:$L203598
	DD	04H
	DD	FLAT:$L203599
	DD	06H
	DD	FLAT:$L203600
	DD	07H
	DD	FLAT:$L203601
	DD	08H
	DD	FLAT:$L203602
$T203607 DD	019930520H
	DD	0aH
	DD	FLAT:$T203610
	DD	2 DUP(00H)
	DD	2 DUP(00H)
; Function compile flags: /Odt
xdata$x	ENDS
_TEXT	SEGMENT
tv216 = -340						; size = 4
tv210 = -336						; size = 4
tv265 = -332						; size = 4
tv177 = -328						; size = 4
tv262 = -321						; size = 1
tv261 = -320						; size = 4
tv258 = -316						; size = 4
tv257 = -312						; size = 4
tv254 = -308						; size = 4
tv253 = -304						; size = 4
tv250 = -300						; size = 4
tv249 = -296						; size = 4
_this$ = -292						; size = 4
$T203604 = -288						; size = 4
$T203589 = -284						; size = 28
$T203588 = -256						; size = 28
$T203587 = -228						; size = 4
$T203586 = -221						; size = 1
$T203585 = -220						; size = 4
$T203584 = -216						; size = 4
$T203583 = -212						; size = 4
$T203582 = -208						; size = 4
_s$202091 = -204					; size = 28
_tItem$202089 = -176					; size = 60
_bNameOK$ = -113					; size = 1
_strName$ = -112					; size = 28
_strID$ = -84						; size = 28
_strUrl$ = -56						; size = 28
__$ArrayPad$ = -28					; size = 4
_bIDOK$ = -21						; size = 1
_cstrUrl$ = -20						; size = 4
_bUrlOK$ = -13						; size = 1
__$EHRec$ = -12						; size = 12
__$ReturnAddr$ = 4					; size = 4
___$ReturnUdt$ = 8					; size = 4
_strContent$ = 12					; size = 4
?_command_playwebgame@CWebManager@@AAE?AV?$basic_string@DU?$char_traits@D@std@@V?$allocator@D@2@@std@@AAV23@@Z PROC NEAR ; CWebManager::_command_playwebgame
; _this$ = ecx

; 165  : {	

  00da0	55		 push	 ebp
  00da1	8b ec		 mov	 ebp, esp
  00da3	6a ff		 push	 -1
  00da5	68 00 00 00 00	 push	 __ehhandler$?_command_playwebgame@CWebManager@@AAE?AV?$basic_string@DU?$char_traits@D@std@@V?$allocator@D@2@@std@@AAV23@@Z
  00daa	64 a1 00 00 00
	00		 mov	 eax, DWORD PTR fs:__except_list
  00db0	50		 push	 eax
  00db1	64 89 25 00 00
	00 00		 mov	 DWORD PTR fs:__except_list, esp
  00db8	81 ec 48 01 00
	00		 sub	 esp, 328		; 00000148H
  00dbe	a1 00 00 00 00	 mov	 eax, DWORD PTR ___security_cookie
  00dc3	89 45 e4	 mov	 DWORD PTR __$ArrayPad$[ebp], eax
  00dc6	89 8d dc fe ff
	ff		 mov	 DWORD PTR _this$[ebp], ecx
  00dcc	c7 85 e0 fe ff
	ff 00 00 00 00	 mov	 DWORD PTR $T203604[ebp], 0

; 166  : 	string strID   = GetValue( strContent, "id" );

  00dd6	83 ec 1c	 sub	 esp, 28			; 0000001cH
  00dd9	8b cc		 mov	 ecx, esp
  00ddb	89 a5 30 ff ff
	ff		 mov	 DWORD PTR $T203582[ebp], esp
  00de1	68 00 00 00 00	 push	 OFFSET FLAT:$SG202067
  00de6	ff 15 00 00 00
	00		 call	 DWORD PTR __imp_??0?$basic_string@DU?$char_traits@D@std@@V?$allocator@D@2@@std@@QAE@PBD@Z
  00dec	89 85 d8 fe ff
	ff		 mov	 DWORD PTR tv249[ebp], eax
  00df2	8b 45 0c	 mov	 eax, DWORD PTR _strContent$[ebp]
  00df5	50		 push	 eax
  00df6	8d 4d ac	 lea	 ecx, DWORD PTR _strID$[ebp]
  00df9	51		 push	 ecx
  00dfa	8b 8d dc fe ff
	ff		 mov	 ecx, DWORD PTR _this$[ebp]
  00e00	e8 00 00 00 00	 call	 ?GetValue@CWebManager@@QAE?AV?$basic_string@DU?$char_traits@D@std@@V?$allocator@D@2@@std@@AAV23@V23@@Z ; CWebManager::GetValue
  00e05	89 85 d4 fe ff
	ff		 mov	 DWORD PTR tv250[ebp], eax
  00e0b	c7 45 fc 01 00
	00 00		 mov	 DWORD PTR __$EHRec$[ebp+8], 1

; 167  : 	string strName = GetValue( strContent, "name" );

  00e12	83 ec 1c	 sub	 esp, 28			; 0000001cH
  00e15	8b cc		 mov	 ecx, esp
  00e17	89 a5 2c ff ff
	ff		 mov	 DWORD PTR $T203583[ebp], esp
  00e1d	68 00 00 00 00	 push	 OFFSET FLAT:$SG202071
  00e22	ff 15 00 00 00
	00		 call	 DWORD PTR __imp_??0?$basic_string@DU?$char_traits@D@std@@V?$allocator@D@2@@std@@QAE@PBD@Z
  00e28	89 85 d0 fe ff
	ff		 mov	 DWORD PTR tv253[ebp], eax
  00e2e	8b 55 0c	 mov	 edx, DWORD PTR _strContent$[ebp]
  00e31	52		 push	 edx
  00e32	8d 45 90	 lea	 eax, DWORD PTR _strName$[ebp]
  00e35	50		 push	 eax
  00e36	8b 8d dc fe ff
	ff		 mov	 ecx, DWORD PTR _this$[ebp]
  00e3c	e8 00 00 00 00	 call	 ?GetValue@CWebManager@@QAE?AV?$basic_string@DU?$char_traits@D@std@@V?$allocator@D@2@@std@@AAV23@V23@@Z ; CWebManager::GetValue
  00e41	89 85 cc fe ff
	ff		 mov	 DWORD PTR tv254[ebp], eax
  00e47	c6 45 fc 02	 mov	 BYTE PTR __$EHRec$[ebp+8], 2

; 168  : 	string strUrl  = GetValue( strContent, "url" );

  00e4b	83 ec 1c	 sub	 esp, 28			; 0000001cH
  00e4e	8b cc		 mov	 ecx, esp
  00e50	89 a5 28 ff ff
	ff		 mov	 DWORD PTR $T203584[ebp], esp
  00e56	68 00 00 00 00	 push	 OFFSET FLAT:$SG202075
  00e5b	ff 15 00 00 00
	00		 call	 DWORD PTR __imp_??0?$basic_string@DU?$char_traits@D@std@@V?$allocator@D@2@@std@@QAE@PBD@Z
  00e61	89 85 c8 fe ff
	ff		 mov	 DWORD PTR tv257[ebp], eax
  00e67	8b 4d 0c	 mov	 ecx, DWORD PTR _strContent$[ebp]
  00e6a	51		 push	 ecx
  00e6b	8d 55 c8	 lea	 edx, DWORD PTR _strUrl$[ebp]
  00e6e	52		 push	 edx
  00e6f	8b 8d dc fe ff
	ff		 mov	 ecx, DWORD PTR _this$[ebp]
  00e75	e8 00 00 00 00	 call	 ?GetValue@CWebManager@@QAE?AV?$basic_string@DU?$char_traits@D@std@@V?$allocator@D@2@@std@@AAV23@V23@@Z ; CWebManager::GetValue
  00e7a	89 85 c4 fe ff
	ff		 mov	 DWORD PTR tv258[ebp], eax
  00e80	c6 45 fc 03	 mov	 BYTE PTR __$EHRec$[ebp+8], 3

; 169  : 
; 170  : 	//idOK
; 171  : 	bool bIDOK = false;

  00e84	c6 45 eb 00	 mov	 BYTE PTR _bIDOK$[ebp], 0

; 172  : 	if( strID.length() > 0 && IsNumber( strID ) ) //ID

  00e88	8d 4d ac	 lea	 ecx, DWORD PTR _strID$[ebp]
  00e8b	ff 15 00 00 00
	00		 call	 DWORD PTR __imp_?length@?$basic_string@DU?$char_traits@D@std@@V?$allocator@D@2@@std@@QBEIXZ
  00e91	85 c0		 test	 eax, eax
  00e93	76 38		 jbe	 SHORT $L202078
  00e95	83 ec 1c	 sub	 esp, 28			; 0000001cH
  00e98	8b cc		 mov	 ecx, esp
  00e9a	89 a5 24 ff ff
	ff		 mov	 DWORD PTR $T203585[ebp], esp
  00ea0	8d 45 ac	 lea	 eax, DWORD PTR _strID$[ebp]
  00ea3	50		 push	 eax
  00ea4	ff 15 00 00 00
	00		 call	 DWORD PTR __imp_??0?$basic_string@DU?$char_traits@D@std@@V?$allocator@D@2@@std@@QAE@ABV01@@Z
  00eaa	89 85 c0 fe ff
	ff		 mov	 DWORD PTR tv261[ebp], eax
  00eb0	e8 00 00 00 00	 call	 ?IsNumber@@YA_NV?$basic_string@DU?$char_traits@D@std@@V?$allocator@D@2@@std@@@Z ; IsNumber
  00eb5	83 c4 1c	 add	 esp, 28			; 0000001cH
  00eb8	88 85 bf fe ff
	ff		 mov	 BYTE PTR tv262[ebp], al
  00ebe	0f b6 8d bf fe
	ff ff		 movzx	 ecx, BYTE PTR tv262[ebp]
  00ec5	85 c9		 test	 ecx, ecx
  00ec7	74 04		 je	 SHORT $L202078

; 173  : 	{
; 174  : 		bIDOK = true;

  00ec9	c6 45 eb 01	 mov	 BYTE PTR _bIDOK$[ebp], 1
$L202078:

; 175  : 	}
; 176  : 	//nameOK
; 177  : 	bool bNameOK = false;

  00ecd	c6 45 8f 00	 mov	 BYTE PTR _bNameOK$[ebp], 0

; 178  : 	if( strName.length() != 0 )

  00ed1	8d 4d 90	 lea	 ecx, DWORD PTR _strName$[ebp]
  00ed4	ff 15 00 00 00
	00		 call	 DWORD PTR __imp_?length@?$basic_string@DU?$char_traits@D@std@@V?$allocator@D@2@@std@@QBEIXZ
  00eda	85 c0		 test	 eax, eax
  00edc	74 04		 je	 SHORT $L202080

; 179  : 	{
; 180  : 		bNameOK = true;

  00ede	c6 45 8f 01	 mov	 BYTE PTR _bNameOK$[ebp], 1
$L202080:

; 181  : 	}
; 182  : 	//urlOK
; 183  : 	bool bUrlOK = false;

  00ee2	c6 45 f3 00	 mov	 BYTE PTR _bUrlOK$[ebp], 0

; 184  : 	CString cstrUrl = CString( strUrl.c_str() );

  00ee6	8d 4d c8	 lea	 ecx, DWORD PTR _strUrl$[ebp]
  00ee9	ff 15 00 00 00
	00		 call	 DWORD PTR __imp_?c_str@?$basic_string@DU?$char_traits@D@std@@V?$allocator@D@2@@std@@QBEPBDXZ
  00eef	50		 push	 eax
  00ef0	8d 4d ec	 lea	 ecx, DWORD PTR _cstrUrl$[ebp]
  00ef3	ff 15 00 00 00
	00		 call	 DWORD PTR __imp_??0?$CStringT@DV?$StrTraitMFC_DLL@DV?$ChTraitsCRT@D@ATL@@@@@ATL@@QAE@PBD@Z
  00ef9	c6 45 fc 04	 mov	 BYTE PTR __$EHRec$[ebp+8], 4

; 185  : 	if( cstrUrl.Left(7).MakeLower() == "http://" ) //urlhttp:// 

  00efd	6a 07		 push	 7
  00eff	8d 95 1c ff ff
	ff		 lea	 edx, DWORD PTR $T203587[ebp]
  00f05	52		 push	 edx
  00f06	8d 4d ec	 lea	 ecx, DWORD PTR _cstrUrl$[ebp]
  00f09	ff 15 00 00 00
	00		 call	 DWORD PTR __imp_?Left@?$CStringT@DV?$StrTraitMFC_DLL@DV?$ChTraitsCRT@D@ATL@@@@@ATL@@QBE?AV12@H@Z
  00f0f	89 85 b8 fe ff
	ff		 mov	 DWORD PTR tv177[ebp], eax
  00f15	8b 85 b8 fe ff
	ff		 mov	 eax, DWORD PTR tv177[ebp]
  00f1b	89 85 b4 fe ff
	ff		 mov	 DWORD PTR tv265[ebp], eax
  00f21	c6 45 fc 05	 mov	 BYTE PTR __$EHRec$[ebp+8], 5
  00f25	68 00 00 00 00	 push	 OFFSET FLAT:$SG202087
  00f2a	8b 8d b4 fe ff
	ff		 mov	 ecx, DWORD PTR tv265[ebp]
  00f30	ff 15 00 00 00
	00		 call	 DWORD PTR __imp_?MakeLower@?$CStringT@DV?$StrTraitMFC_DLL@DV?$ChTraitsCRT@D@ATL@@@@@ATL@@QAEAAV12@XZ
  00f36	50		 push	 eax
  00f37	e8 00 00 00 00	 call	 ??8ATL@@YA_NABV?$CStringT@DV?$StrTraitMFC_DLL@DV?$ChTraitsCRT@D@ATL@@@@@0@PBD@Z ; ATL::operator==
  00f3c	83 c4 08	 add	 esp, 8
  00f3f	88 85 23 ff ff
	ff		 mov	 BYTE PTR $T203586[ebp], al
  00f45	c6 45 fc 04	 mov	 BYTE PTR __$EHRec$[ebp+8], 4
  00f49	8d 8d 1c ff ff
	ff		 lea	 ecx, DWORD PTR $T203587[ebp]
  00f4f	ff 15 00 00 00
	00		 call	 DWORD PTR __imp_??1?$CStringT@DV?$StrTraitMFC_DLL@DV?$ChTraitsCRT@D@ATL@@@@@ATL@@QAE@XZ
  00f55	0f b6 8d 23 ff
	ff ff		 movzx	 ecx, BYTE PTR $T203586[ebp]
  00f5c	85 c9		 test	 ecx, ecx
  00f5e	74 04		 je	 SHORT $L202085

; 186  : 	{
; 187  : 		bUrlOK = true;

  00f60	c6 45 f3 01	 mov	 BYTE PTR _bUrlOK$[ebp], 1
$L202085:

; 188  : 	}	
; 189  : 	
; 190  : 	if( bIDOK && bNameOK && bUrlOK )	

  00f64	0f b6 55 eb	 movzx	 edx, BYTE PTR _bIDOK$[ebp]
  00f68	85 d2		 test	 edx, edx
  00f6a	0f 84 90 01 00
	00		 je	 $L202088
  00f70	0f b6 45 8f	 movzx	 eax, BYTE PTR _bNameOK$[ebp]
  00f74	85 c0		 test	 eax, eax
  00f76	0f 84 84 01 00
	00		 je	 $L202088
  00f7c	0f b6 4d f3	 movzx	 ecx, BYTE PTR _bUrlOK$[ebp]
  00f80	85 c9		 test	 ecx, ecx
  00f82	0f 84 78 01 00
	00		 je	 $L202088

; 191  : 	{
; 192  : 		TAB_ITEM tItem;

  00f88	8d 8d 50 ff ff
	ff		 lea	 ecx, DWORD PTR _tItem$202089[ebp]
  00f8e	e8 00 00 00 00	 call	 ??0TAB_ITEM@@QAE@XZ
  00f93	c6 45 fc 06	 mov	 BYTE PTR __$EHRec$[ebp+8], 6

; 193  : 		tItem.eumType = TAB_WEBGAME;

  00f97	c7 85 6c ff ff
	ff 01 00 00 00	 mov	 DWORD PTR _tItem$202089[ebp+28], 1

; 194  : 		tItem.strName = strName;

  00fa1	8d 55 90	 lea	 edx, DWORD PTR _strName$[ebp]
  00fa4	52		 push	 edx
  00fa5	8d 8d 50 ff ff
	ff		 lea	 ecx, DWORD PTR _tItem$202089[ebp]
  00fab	ff 15 00 00 00
	00		 call	 DWORD PTR __imp_??4?$basic_string@DU?$char_traits@D@std@@V?$allocator@D@2@@std@@QAEAAV01@ABV01@@Z

; 195  : 		tItem.strParam = strContent;

  00fb1	8b 45 0c	 mov	 eax, DWORD PTR _strContent$[ebp]
  00fb4	50		 push	 eax
  00fb5	8d 8d 70 ff ff
	ff		 lea	 ecx, DWORD PTR _tItem$202089[ebp+32]
  00fbb	ff 15 00 00 00
	00		 call	 DWORD PTR __imp_??4?$basic_string@DU?$char_traits@D@std@@V?$allocator@D@2@@std@@QAEAAV01@ABV01@@Z

; 196  : 		GLOBAL_TABBARDATA->ITabBar_ChangeTab(tItem);

  00fc1	e8 00 00 00 00	 call	 ?AfxGetDataManager2@@YAPAVIDataManager@@XZ ; AfxGetDataManager2
  00fc6	89 85 b0 fe ff
	ff		 mov	 DWORD PTR tv210[ebp], eax
  00fcc	68 00 00 00 00	 push	 OFFSET FLAT:_ID_DATA_TABBAR
  00fd1	8b 8d b0 fe ff
	ff		 mov	 ecx, DWORD PTR tv210[ebp]
  00fd7	8b 11		 mov	 edx, DWORD PTR [ecx]
  00fd9	8b 8d b0 fe ff
	ff		 mov	 ecx, DWORD PTR tv210[ebp]
  00fdf	ff 52 0c	 call	 DWORD PTR [edx+12]
  00fe2	89 85 ac fe ff
	ff		 mov	 DWORD PTR tv216[ebp], eax
  00fe8	8d 85 50 ff ff
	ff		 lea	 eax, DWORD PTR _tItem$202089[ebp]
  00fee	50		 push	 eax
  00fef	8b 8d ac fe ff
	ff		 mov	 ecx, DWORD PTR tv216[ebp]
  00ff5	8b 11		 mov	 edx, DWORD PTR [ecx]
  00ff7	8b 8d ac fe ff
	ff		 mov	 ecx, DWORD PTR tv216[ebp]
  00ffd	ff 52 0c	 call	 DWORD PTR [edx+12]

; 197  : 
; 198  : 		string s = "PlayWebGame:" + strID;

  01000	8d 45 ac	 lea	 eax, DWORD PTR _strID$[ebp]
  01003	50		 push	 eax
  01004	68 00 00 00 00	 push	 OFFSET FLAT:$SG202093
  01009	8d 8d 34 ff ff
	ff		 lea	 ecx, DWORD PTR _s$202091[ebp]
  0100f	51		 push	 ecx
  01010	e8 00 00 00 00	 call	 ??$?HDU?$char_traits@D@std@@V?$allocator@D@1@@std@@YA?AV?$basic_string@DU?$char_traits@D@std@@V?$allocator@D@2@@0@PBDABV10@@Z ; std::operator+<char,std::char_traits<char>,std::allocator<char> >
  01015	83 c4 0c	 add	 esp, 12			; 0000000cH
  01018	c6 45 fc 07	 mov	 BYTE PTR __$EHRec$[ebp+8], 7

; 199  : 		LogRealMsg("PLAYGAME",s.c_str());

  0101c	8d 8d 34 ff ff
	ff		 lea	 ecx, DWORD PTR _s$202091[ebp]
  01022	ff 15 00 00 00
	00		 call	 DWORD PTR __imp_?c_str@?$basic_string@DU?$char_traits@D@std@@V?$allocator@D@2@@std@@QBEPBDXZ
  01028	50		 push	 eax
  01029	8d 8d 00 ff ff
	ff		 lea	 ecx, DWORD PTR $T203588[ebp]
  0102f	ff 15 00 00 00
	00		 call	 DWORD PTR __imp_??0?$basic_string@DU?$char_traits@D@std@@V?$allocator@D@2@@std@@QAE@PBD@Z
  01035	c6 45 fc 08	 mov	 BYTE PTR __$EHRec$[ebp+8], 8
  01039	68 00 00 00 00	 push	 OFFSET FLAT:$SG202096
  0103e	8d 8d e4 fe ff
	ff		 lea	 ecx, DWORD PTR $T203589[ebp]
  01044	ff 15 00 00 00
	00		 call	 DWORD PTR __imp_??0?$basic_string@DU?$char_traits@D@std@@V?$allocator@D@2@@std@@QAE@PBD@Z
  0104a	c6 45 fc 09	 mov	 BYTE PTR __$EHRec$[ebp+8], 9
  0104e	6a 00		 push	 0
  01050	6a 00		 push	 0
  01052	6a 00		 push	 0
  01054	8d 95 00 ff ff
	ff		 lea	 edx, DWORD PTR $T203588[ebp]
  0105a	52		 push	 edx
  0105b	8d 85 e4 fe ff
	ff		 lea	 eax, DWORD PTR $T203589[ebp]
  01061	50		 push	 eax
  01062	ff 15 00 00 00
	00		 call	 DWORD PTR __imp_?LogRealMsg@@YAXABV?$basic_string@DU?$char_traits@D@std@@V?$allocator@D@2@@std@@0_NPAPAEPAI@Z
  01068	83 c4 14	 add	 esp, 20			; 00000014H
  0106b	c6 45 fc 08	 mov	 BYTE PTR __$EHRec$[ebp+8], 8
  0106f	8d 8d e4 fe ff
	ff		 lea	 ecx, DWORD PTR $T203589[ebp]
  01075	ff 15 00 00 00
	00		 call	 DWORD PTR __imp_??1?$basic_string@DU?$char_traits@D@std@@V?$allocator@D@2@@std@@QAE@XZ
  0107b	c6 45 fc 07	 mov	 BYTE PTR __$EHRec$[ebp+8], 7
  0107f	8d 8d 00 ff ff
	ff		 lea	 ecx, DWORD PTR $T203588[ebp]
  01085	ff 15 00 00 00
	00		 call	 DWORD PTR __imp_??1?$basic_string@DU?$char_traits@D@std@@V?$allocator@D@2@@std@@QAE@XZ

; 200  : 		return "res=ok\n\n";

  0108b	68 00 00 00 00	 push	 OFFSET FLAT:$SG202097
  01090	8b 4d 08	 mov	 ecx, DWORD PTR ___$ReturnUdt$[ebp]
  01093	ff 15 00 00 00
	00		 call	 DWORD PTR __imp_??0?$basic_string@DU?$char_traits@D@std@@V?$allocator@D@2@@std@@QAE@PBD@Z
  01099	8b 8d e0 fe ff
	ff		 mov	 ecx, DWORD PTR $T203604[ebp]
  0109f	83 c9 01	 or	 ecx, 1
  010a2	89 8d e0 fe ff
	ff		 mov	 DWORD PTR $T203604[ebp], ecx
  010a8	c6 45 fc 06	 mov	 BYTE PTR __$EHRec$[ebp+8], 6
  010ac	8d 8d 34 ff ff
	ff		 lea	 ecx, DWORD PTR _s$202091[ebp]
  010b2	ff 15 00 00 00
	00		 call	 DWORD PTR __imp_??1?$basic_string@DU?$char_traits@D@std@@V?$allocator@D@2@@std@@QAE@XZ
  010b8	c6 45 fc 04	 mov	 BYTE PTR __$EHRec$[ebp+8], 4
  010bc	8d 8d 50 ff ff
	ff		 lea	 ecx, DWORD PTR _tItem$202089[ebp]
  010c2	e8 00 00 00 00	 call	 ??1TAB_ITEM@@QAE@XZ
  010c7	c6 45 fc 03	 mov	 BYTE PTR __$EHRec$[ebp+8], 3
  010cb	8d 4d ec	 lea	 ecx, DWORD PTR _cstrUrl$[ebp]
  010ce	ff 15 00 00 00
	00		 call	 DWORD PTR __imp_??1?$CStringT@DV?$StrTraitMFC_DLL@DV?$ChTraitsCRT@D@ATL@@@@@ATL@@QAE@XZ
  010d4	c6 45 fc 02	 mov	 BYTE PTR __$EHRec$[ebp+8], 2
  010d8	8d 4d c8	 lea	 ecx, DWORD PTR _strUrl$[ebp]
  010db	ff 15 00 00 00
	00		 call	 DWORD PTR __imp_??1?$basic_string@DU?$char_traits@D@std@@V?$allocator@D@2@@std@@QAE@XZ
  010e1	c6 45 fc 01	 mov	 BYTE PTR __$EHRec$[ebp+8], 1
  010e5	8d 4d 90	 lea	 ecx, DWORD PTR _strName$[ebp]
  010e8	ff 15 00 00 00
	00		 call	 DWORD PTR __imp_??1?$basic_string@DU?$char_traits@D@std@@V?$allocator@D@2@@std@@QAE@XZ
  010ee	c6 45 fc 00	 mov	 BYTE PTR __$EHRec$[ebp+8], 0
  010f2	8d 4d ac	 lea	 ecx, DWORD PTR _strID$[ebp]
  010f5	ff 15 00 00 00
	00		 call	 DWORD PTR __imp_??1?$basic_string@DU?$char_traits@D@std@@V?$allocator@D@2@@std@@QAE@XZ
  010fb	8b 45 08	 mov	 eax, DWORD PTR ___$ReturnUdt$[ebp]
  010fe	eb 54		 jmp	 SHORT $L202063
$L202088:

; 201  : 	}	
; 202  : 	return "res=err\n\n";

  01100	68 00 00 00 00	 push	 OFFSET FLAT:$SG202098
  01105	8b 4d 08	 mov	 ecx, DWORD PTR ___$ReturnUdt$[ebp]
  01108	ff 15 00 00 00
	00		 call	 DWORD PTR __imp_??0?$basic_string@DU?$char_traits@D@std@@V?$allocator@D@2@@std@@QAE@PBD@Z
  0110e	8b 95 e0 fe ff
	ff		 mov	 edx, DWORD PTR $T203604[ebp]
  01114	83 ca 01	 or	 edx, 1
  01117	89 95 e0 fe ff
	ff		 mov	 DWORD PTR $T203604[ebp], edx
  0111d	c6 45 fc 03	 mov	 BYTE PTR __$EHRec$[ebp+8], 3
  01121	8d 4d ec	 lea	 ecx, DWORD PTR _cstrUrl$[ebp]
  01124	ff 15 00 00 00
	00		 call	 DWORD PTR __imp_??1?$CStringT@DV?$StrTraitMFC_DLL@DV?$ChTraitsCRT@D@ATL@@@@@ATL@@QAE@XZ
  0112a	c6 45 fc 02	 mov	 BYTE PTR __$EHRec$[ebp+8], 2
  0112e	8d 4d c8	 lea	 ecx, DWORD PTR _strUrl$[ebp]
  01131	ff 15 00 00 00
	00		 call	 DWORD PTR __imp_??1?$basic_string@DU?$char_traits@D@std@@V?$allocator@D@2@@std@@QAE@XZ
  01137	c6 45 fc 01	 mov	 BYTE PTR __$EHRec$[ebp+8], 1
  0113b	8d 4d 90	 lea	 ecx, DWORD PTR _strName$[ebp]
  0113e	ff 15 00 00 00
	00		 call	 DWORD PTR __imp_??1?$basic_string@DU?$char_traits@D@std@@V?$allocator@D@2@@std@@QAE@XZ
  01144	c6 45 fc 00	 mov	 BYTE PTR __$EHRec$[ebp+8], 0
  01148	8d 4d ac	 lea	 ecx, DWORD PTR _strID$[ebp]
  0114b	ff 15 00 00 00
	00		 call	 DWORD PTR __imp_??1?$basic_string@DU?$char_traits@D@std@@V?$allocator@D@2@@std@@QAE@XZ
  01151	8b 45 08	 mov	 eax, DWORD PTR ___$ReturnUdt$[ebp]
$L202063:

; 203  : }

  01154	8b 4d f4	 mov	 ecx, DWORD PTR __$EHRec$[ebp]
  01157	64 89 0d 00 00
	00 00		 mov	 DWORD PTR fs:__except_list, ecx
  0115e	8b 4d e4	 mov	 ecx, DWORD PTR __$ArrayPad$[ebp]
  01161	e8 00 00 00 00	 call	 @__security_check_cookie@4
  01166	8b e5		 mov	 esp, ebp
  01168	5d		 pop	 ebp
  01169	c2 08 00	 ret	 8
_TEXT	ENDS
text$x	SEGMENT
$L203591:
  0019e	8d 4d ac	 lea	 ecx, DWORD PTR _strID$[ebp]
  001a1	ff 25 00 00 00
	00		 jmp	 DWORD PTR __imp_??1?$basic_string@DU?$char_traits@D@std@@V?$allocator@D@2@@std@@QAE@XZ
$L203593:
  001a7	8d 4d 90	 lea	 ecx, DWORD PTR _strName$[ebp]
  001aa	ff 25 00 00 00
	00		 jmp	 DWORD PTR __imp_??1?$basic_string@DU?$char_traits@D@std@@V?$allocator@D@2@@std@@QAE@XZ
$L203595:
  001b0	8d 4d c8	 lea	 ecx, DWORD PTR _strUrl$[ebp]
  001b3	ff 25 00 00 00
	00		 jmp	 DWORD PTR __imp_??1?$basic_string@DU?$char_traits@D@std@@V?$allocator@D@2@@std@@QAE@XZ
$L203597:
  001b9	8d 4d ec	 lea	 ecx, DWORD PTR _cstrUrl$[ebp]
  001bc	ff 25 00 00 00
	00		 jmp	 DWORD PTR __imp_??1?$CStringT@DV?$StrTraitMFC_DLL@DV?$ChTraitsCRT@D@ATL@@@@@ATL@@QAE@XZ
$L203598:
  001c2	8d 8d 1c ff ff
	ff		 lea	 ecx, DWORD PTR $T203587[ebp]
  001c8	ff 25 00 00 00
	00		 jmp	 DWORD PTR __imp_??1?$CStringT@DV?$StrTraitMFC_DLL@DV?$ChTraitsCRT@D@ATL@@@@@ATL@@QAE@XZ
$L203599:
  001ce	8d 8d 50 ff ff
	ff		 lea	 ecx, DWORD PTR _tItem$202089[ebp]
  001d4	e9 00 00 00 00	 jmp	 ??1TAB_ITEM@@QAE@XZ
$L203600:
  001d9	8d 8d 34 ff ff
	ff		 lea	 ecx, DWORD PTR _s$202091[ebp]
  001df	ff 25 00 00 00
	00		 jmp	 DWORD PTR __imp_??1?$basic_string@DU?$char_traits@D@std@@V?$allocator@D@2@@std@@QAE@XZ
$L203601:
  001e5	8d 8d 00 ff ff
	ff		 lea	 ecx, DWORD PTR $T203588[ebp]
  001eb	ff 25 00 00 00
	00		 jmp	 DWORD PTR __imp_??1?$basic_string@DU?$char_traits@D@std@@V?$allocator@D@2@@std@@QAE@XZ
$L203602:
  001f1	8d 8d e4 fe ff
	ff		 lea	 ecx, DWORD PTR $T203589[ebp]
  001f7	ff 25 00 00 00
	00		 jmp	 DWORD PTR __imp_??1?$basic_string@DU?$char_traits@D@std@@V?$allocator@D@2@@std@@QAE@XZ
$L203603:
  001fd	8b 85 e0 fe ff
	ff		 mov	 eax, DWORD PTR $T203604[ebp]
  00203	83 e0 01	 and	 eax, 1
  00206	0f 84 10 00 00
	00		 je	 $L203605
  0020c	83 a5 e0 fe ff
	ff fe		 and	 DWORD PTR $T203604[ebp], -2 ; fffffffeH
  00213	8b 4d 08	 mov	 ecx, DWORD PTR ___$ReturnUdt$[ebp]
  00216	ff 25 00 00 00
	00		 jmp	 DWORD PTR __imp_??1?$basic_string@DU?$char_traits@D@std@@V?$allocator@D@2@@std@@QAE@XZ
$L203605:
  0021c	c3		 ret	 0
__ehhandler$?_command_playwebgame@CWebManager@@AAE?AV?$basic_string@DU?$char_traits@D@std@@V?$allocator@D@2@@std@@AAV23@@Z:
  0021d	b8 00 00 00 00	 mov	 eax, OFFSET FLAT:$T203607
  00222	e9 00 00 00 00	 jmp	 ___CxxFrameHandler
text$x	ENDS
?_command_playwebgame@CWebManager@@AAE?AV?$basic_string@DU?$char_traits@D@std@@V?$allocator@D@2@@std@@AAV23@@Z ENDP ; CWebManager::_command_playwebgame
EXTRN	?Format@YL_StringUtil@@SA_NAAV?$basic_string@DU?$char_traits@D@std@@V?$allocator@D@2@@std@@PBDZZ:NEAR ; YL_StringUtil::Format
xdata$x	SEGMENT
$T203631 DD	0ffffffffH
	DD	FLAT:$L203624
	DD	00H
	DD	FLAT:$L203617
	DD	01H
	DD	FLAT:$L203619
	DD	02H
	DD	FLAT:$L203621
	DD	03H
	DD	FLAT:$L203622
	DD	04H
	DD	FLAT:$L203623
$T203628 DD	019930520H
	DD	06H
	DD	FLAT:$T203631
	DD	2 DUP(00H)
	DD	2 DUP(00H)
; Function compile flags: /Odt
xdata$x	ENDS
_TEXT	SEGMENT
tv176 = -240						; size = 4
tv170 = -236						; size = 4
tv194 = -232						; size = 4
tv193 = -228						; size = 4
tv190 = -224						; size = 4
tv189 = -220						; size = 4
tv186 = -216						; size = 4
tv185 = -212						; size = 4
_this$ = -208						; size = 4
$T203625 = -204						; size = 4
$T203615 = -200						; size = 4
$T203614 = -196						; size = 4
$T203613 = -192						; size = 4
_strName$ = -188					; size = 28
_strID$ = -160						; size = 28
_strUrl$ = -132						; size = 28
_strParam$ = -104					; size = 28
_tItem$ = -76						; size = 60
__$ArrayPad$ = -16					; size = 4
__$EHRec$ = -12						; size = 12
__$ReturnAddr$ = 4					; size = 4
___$ReturnUdt$ = 8					; size = 4
_strContent$ = 12					; size = 4
?_command_opennewtab@CWebManager@@AAE?AV?$basic_string@DU?$char_traits@D@std@@V?$allocator@D@2@@std@@AAV23@@Z PROC NEAR ; CWebManager::_command_opennewtab
; _this$ = ecx

; 207  : {

  01170	55		 push	 ebp
  01171	8b ec		 mov	 ebp, esp
  01173	6a ff		 push	 -1
  01175	68 00 00 00 00	 push	 __ehhandler$?_command_opennewtab@CWebManager@@AAE?AV?$basic_string@DU?$char_traits@D@std@@V?$allocator@D@2@@std@@AAV23@@Z
  0117a	64 a1 00 00 00
	00		 mov	 eax, DWORD PTR fs:__except_list
  01180	50		 push	 eax
  01181	64 89 25 00 00
	00 00		 mov	 DWORD PTR fs:__except_list, esp
  01188	81 ec e4 00 00
	00		 sub	 esp, 228		; 000000e4H
  0118e	a1 00 00 00 00	 mov	 eax, DWORD PTR ___security_cookie
  01193	89 45 f0	 mov	 DWORD PTR __$ArrayPad$[ebp], eax
  01196	89 8d 30 ff ff
	ff		 mov	 DWORD PTR _this$[ebp], ecx
  0119c	c7 85 34 ff ff
	ff 00 00 00 00	 mov	 DWORD PTR $T203625[ebp], 0

; 208  : 	string strID = GetValue (strContent, "id");

  011a6	83 ec 1c	 sub	 esp, 28			; 0000001cH
  011a9	8b cc		 mov	 ecx, esp
  011ab	89 a5 40 ff ff
	ff		 mov	 DWORD PTR $T203613[ebp], esp
  011b1	68 00 00 00 00	 push	 OFFSET FLAT:$SG202107
  011b6	ff 15 00 00 00
	00		 call	 DWORD PTR __imp_??0?$basic_string@DU?$char_traits@D@std@@V?$allocator@D@2@@std@@QAE@PBD@Z
  011bc	89 85 2c ff ff
	ff		 mov	 DWORD PTR tv185[ebp], eax
  011c2	8b 45 0c	 mov	 eax, DWORD PTR _strContent$[ebp]
  011c5	50		 push	 eax
  011c6	8d 8d 60 ff ff
	ff		 lea	 ecx, DWORD PTR _strID$[ebp]
  011cc	51		 push	 ecx
  011cd	8b 8d 30 ff ff
	ff		 mov	 ecx, DWORD PTR _this$[ebp]
  011d3	e8 00 00 00 00	 call	 ?GetValue@CWebManager@@QAE?AV?$basic_string@DU?$char_traits@D@std@@V?$allocator@D@2@@std@@AAV23@V23@@Z ; CWebManager::GetValue
  011d8	89 85 28 ff ff
	ff		 mov	 DWORD PTR tv186[ebp], eax
  011de	c7 45 fc 01 00
	00 00		 mov	 DWORD PTR __$EHRec$[ebp+8], 1

; 209  : 	string strName = GetValue (strContent, "name");

  011e5	83 ec 1c	 sub	 esp, 28			; 0000001cH
  011e8	8b cc		 mov	 ecx, esp
  011ea	89 a5 3c ff ff
	ff		 mov	 DWORD PTR $T203614[ebp], esp
  011f0	68 00 00 00 00	 push	 OFFSET FLAT:$SG202111
  011f5	ff 15 00 00 00
	00		 call	 DWORD PTR __imp_??0?$basic_string@DU?$char_traits@D@std@@V?$allocator@D@2@@std@@QAE@PBD@Z
  011fb	89 85 24 ff ff
	ff		 mov	 DWORD PTR tv189[ebp], eax
  01201	8b 55 0c	 mov	 edx, DWORD PTR _strContent$[ebp]
  01204	52		 push	 edx
  01205	8d 85 44 ff ff
	ff		 lea	 eax, DWORD PTR _strName$[ebp]
  0120b	50		 push	 eax
  0120c	8b 8d 30 ff ff
	ff		 mov	 ecx, DWORD PTR _this$[ebp]
  01212	e8 00 00 00 00	 call	 ?GetValue@CWebManager@@QAE?AV?$basic_string@DU?$char_traits@D@std@@V?$allocator@D@2@@std@@AAV23@V23@@Z ; CWebManager::GetValue
  01217	89 85 20 ff ff
	ff		 mov	 DWORD PTR tv190[ebp], eax
  0121d	c6 45 fc 02	 mov	 BYTE PTR __$EHRec$[ebp+8], 2

; 210  : 	string strUrl = GetValue (strContent, "infourl");

  01221	83 ec 1c	 sub	 esp, 28			; 0000001cH
  01224	8b cc		 mov	 ecx, esp
  01226	89 a5 38 ff ff
	ff		 mov	 DWORD PTR $T203615[ebp], esp
  0122c	68 00 00 00 00	 push	 OFFSET FLAT:$SG202115
  01231	ff 15 00 00 00
	00		 call	 DWORD PTR __imp_??0?$basic_string@DU?$char_traits@D@std@@V?$allocator@D@2@@std@@QAE@PBD@Z
  01237	89 85 1c ff ff
	ff		 mov	 DWORD PTR tv193[ebp], eax
  0123d	8b 4d 0c	 mov	 ecx, DWORD PTR _strContent$[ebp]
  01240	51		 push	 ecx
  01241	8d 95 7c ff ff
	ff		 lea	 edx, DWORD PTR _strUrl$[ebp]
  01247	52		 push	 edx
  01248	8b 8d 30 ff ff
	ff		 mov	 ecx, DWORD PTR _this$[ebp]
  0124e	e8 00 00 00 00	 call	 ?GetValue@CWebManager@@QAE?AV?$basic_string@DU?$char_traits@D@std@@V?$allocator@D@2@@std@@AAV23@V23@@Z ; CWebManager::GetValue
  01253	89 85 18 ff ff
	ff		 mov	 DWORD PTR tv194[ebp], eax
  01259	c6 45 fc 03	 mov	 BYTE PTR __$EHRec$[ebp+8], 3

; 211  : 
; 212  : 	string strParam;

  0125d	8d 4d 98	 lea	 ecx, DWORD PTR _strParam$[ebp]
  01260	ff 15 00 00 00
	00		 call	 DWORD PTR __imp_??0?$basic_string@DU?$char_traits@D@std@@V?$allocator@D@2@@std@@QAE@XZ
  01266	c6 45 fc 04	 mov	 BYTE PTR __$EHRec$[ebp+8], 4

; 213  : 	YL_StringUtil::Format (strParam, "param=%s", strUrl.c_str ());

  0126a	8d 8d 7c ff ff
	ff		 lea	 ecx, DWORD PTR _strUrl$[ebp]
  01270	ff 15 00 00 00
	00		 call	 DWORD PTR __imp_?c_str@?$basic_string@DU?$char_traits@D@std@@V?$allocator@D@2@@std@@QBEPBDXZ
  01276	50		 push	 eax
  01277	68 00 00 00 00	 push	 OFFSET FLAT:$SG202117
  0127c	8d 45 98	 lea	 eax, DWORD PTR _strParam$[ebp]
  0127f	50		 push	 eax
  01280	e8 00 00 00 00	 call	 ?Format@YL_StringUtil@@SA_NAAV?$basic_string@DU?$char_traits@D@std@@V?$allocator@D@2@@std@@PBDZZ ; YL_StringUtil::Format
  01285	83 c4 0c	 add	 esp, 12			; 0000000cH

; 214  : 
; 215  : 	TAB_ITEM tItem;

  01288	8d 4d b4	 lea	 ecx, DWORD PTR _tItem$[ebp]
  0128b	e8 00 00 00 00	 call	 ??0TAB_ITEM@@QAE@XZ
  01290	c6 45 fc 05	 mov	 BYTE PTR __$EHRec$[ebp+8], 5

; 216  : 	tItem.eumType = TAB_WEB;

  01294	c7 45 d0 02 00
	00 00		 mov	 DWORD PTR _tItem$[ebp+28], 2

; 217  : 	tItem.strName = strName;

  0129b	8d 8d 44 ff ff
	ff		 lea	 ecx, DWORD PTR _strName$[ebp]
  012a1	51		 push	 ecx
  012a2	8d 4d b4	 lea	 ecx, DWORD PTR _tItem$[ebp]
  012a5	ff 15 00 00 00
	00		 call	 DWORD PTR __imp_??4?$basic_string@DU?$char_traits@D@std@@V?$allocator@D@2@@std@@QAEAAV01@ABV01@@Z

; 218  : 	tItem.strParam = strParam;

  012ab	8d 55 98	 lea	 edx, DWORD PTR _strParam$[ebp]
  012ae	52		 push	 edx
  012af	8d 4d d4	 lea	 ecx, DWORD PTR _tItem$[ebp+32]
  012b2	ff 15 00 00 00
	00		 call	 DWORD PTR __imp_??4?$basic_string@DU?$char_traits@D@std@@V?$allocator@D@2@@std@@QAEAAV01@ABV01@@Z

; 219  : 
; 220  : 	GLOBAL_TABBARDATA->ITabBar_ChangeTab(tItem);

  012b8	e8 00 00 00 00	 call	 ?AfxGetDataManager2@@YAPAVIDataManager@@XZ ; AfxGetDataManager2
  012bd	89 85 14 ff ff
	ff		 mov	 DWORD PTR tv170[ebp], eax
  012c3	68 00 00 00 00	 push	 OFFSET FLAT:_ID_DATA_TABBAR
  012c8	8b 85 14 ff ff
	ff		 mov	 eax, DWORD PTR tv170[ebp]
  012ce	8b 10		 mov	 edx, DWORD PTR [eax]
  012d0	8b 8d 14 ff ff
	ff		 mov	 ecx, DWORD PTR tv170[ebp]
  012d6	ff 52 0c	 call	 DWORD PTR [edx+12]
  012d9	89 85 10 ff ff
	ff		 mov	 DWORD PTR tv176[ebp], eax
  012df	8d 45 b4	 lea	 eax, DWORD PTR _tItem$[ebp]
  012e2	50		 push	 eax
  012e3	8b 8d 10 ff ff
	ff		 mov	 ecx, DWORD PTR tv176[ebp]
  012e9	8b 11		 mov	 edx, DWORD PTR [ecx]
  012eb	8b 8d 10 ff ff
	ff		 mov	 ecx, DWORD PTR tv176[ebp]
  012f1	ff 52 0c	 call	 DWORD PTR [edx+12]

; 221  : 
; 222  : 	return "";

  012f4	68 00 00 00 00	 push	 OFFSET FLAT:$SG202120
  012f9	8b 4d 08	 mov	 ecx, DWORD PTR ___$ReturnUdt$[ebp]
  012fc	ff 15 00 00 00
	00		 call	 DWORD PTR __imp_??0?$basic_string@DU?$char_traits@D@std@@V?$allocator@D@2@@std@@QAE@PBD@Z
  01302	8b 85 34 ff ff
	ff		 mov	 eax, DWORD PTR $T203625[ebp]
  01308	83 c8 01	 or	 eax, 1
  0130b	89 85 34 ff ff
	ff		 mov	 DWORD PTR $T203625[ebp], eax
  01311	c6 45 fc 04	 mov	 BYTE PTR __$EHRec$[ebp+8], 4
  01315	8d 4d b4	 lea	 ecx, DWORD PTR _tItem$[ebp]
  01318	e8 00 00 00 00	 call	 ??1TAB_ITEM@@QAE@XZ
  0131d	c6 45 fc 03	 mov	 BYTE PTR __$EHRec$[ebp+8], 3
  01321	8d 4d 98	 lea	 ecx, DWORD PTR _strParam$[ebp]
  01324	ff 15 00 00 00
	00		 call	 DWORD PTR __imp_??1?$basic_string@DU?$char_traits@D@std@@V?$allocator@D@2@@std@@QAE@XZ
  0132a	c6 45 fc 02	 mov	 BYTE PTR __$EHRec$[ebp+8], 2
  0132e	8d 8d 7c ff ff
	ff		 lea	 ecx, DWORD PTR _strUrl$[ebp]
  01334	ff 15 00 00 00
	00		 call	 DWORD PTR __imp_??1?$basic_string@DU?$char_traits@D@std@@V?$allocator@D@2@@std@@QAE@XZ
  0133a	c6 45 fc 01	 mov	 BYTE PTR __$EHRec$[ebp+8], 1
  0133e	8d 8d 44 ff ff
	ff		 lea	 ecx, DWORD PTR _strName$[ebp]
  01344	ff 15 00 00 00
	00		 call	 DWORD PTR __imp_??1?$basic_string@DU?$char_traits@D@std@@V?$allocator@D@2@@std@@QAE@XZ
  0134a	c6 45 fc 00	 mov	 BYTE PTR __$EHRec$[ebp+8], 0
  0134e	8d 8d 60 ff ff
	ff		 lea	 ecx, DWORD PTR _strID$[ebp]
  01354	ff 15 00 00 00
	00		 call	 DWORD PTR __imp_??1?$basic_string@DU?$char_traits@D@std@@V?$allocator@D@2@@std@@QAE@XZ
  0135a	8b 45 08	 mov	 eax, DWORD PTR ___$ReturnUdt$[ebp]

; 223  : }

  0135d	8b 4d f4	 mov	 ecx, DWORD PTR __$EHRec$[ebp]
  01360	64 89 0d 00 00
	00 00		 mov	 DWORD PTR fs:__except_list, ecx
  01367	8b 4d f0	 mov	 ecx, DWORD PTR __$ArrayPad$[ebp]
  0136a	e8 00 00 00 00	 call	 @__security_check_cookie@4
  0136f	8b e5		 mov	 esp, ebp
  01371	5d		 pop	 ebp
  01372	c2 08 00	 ret	 8
_TEXT	ENDS
text$x	SEGMENT
$L203617:
  00227	8d 8d 60 ff ff
	ff		 lea	 ecx, DWORD PTR _strID$[ebp]
  0022d	ff 25 00 00 00
	00		 jmp	 DWORD PTR __imp_??1?$basic_string@DU?$char_traits@D@std@@V?$allocator@D@2@@std@@QAE@XZ
$L203619:
  00233	8d 8d 44 ff ff
	ff		 lea	 ecx, DWORD PTR _strName$[ebp]
  00239	ff 25 00 00 00
	00		 jmp	 DWORD PTR __imp_??1?$basic_string@DU?$char_traits@D@std@@V?$allocator@D@2@@std@@QAE@XZ
$L203621:
  0023f	8d 8d 7c ff ff
	ff		 lea	 ecx, DWORD PTR _strUrl$[ebp]
  00245	ff 25 00 00 00
	00		 jmp	 DWORD PTR __imp_??1?$basic_string@DU?$char_traits@D@std@@V?$allocator@D@2@@std@@QAE@XZ
$L203622:
  0024b	8d 4d 98	 lea	 ecx, DWORD PTR _strParam$[ebp]
  0024e	ff 25 00 00 00
	00		 jmp	 DWORD PTR __imp_??1?$basic_string@DU?$char_traits@D@std@@V?$allocator@D@2@@std@@QAE@XZ
$L203623:
  00254	8d 4d b4	 lea	 ecx, DWORD PTR _tItem$[ebp]
  00257	e9 00 00 00 00	 jmp	 ??1TAB_ITEM@@QAE@XZ
$L203624:
  0025c	8b 85 34 ff ff
	ff		 mov	 eax, DWORD PTR $T203625[ebp]
  00262	83 e0 01	 and	 eax, 1
  00265	0f 84 10 00 00
	00		 je	 $L203626
  0026b	83 a5 34 ff ff
	ff fe		 and	 DWORD PTR $T203625[ebp], -2 ; fffffffeH
  00272	8b 4d 08	 mov	 ecx, DWORD PTR ___$ReturnUdt$[ebp]
  00275	ff 25 00 00 00
	00		 jmp	 DWORD PTR __imp_??1?$basic_string@DU?$char_traits@D@std@@V?$allocator@D@2@@std@@QAE@XZ
$L203626:
  0027b	c3		 ret	 0
__ehhandler$?_command_opennewtab@CWebManager@@AAE?AV?$basic_string@DU?$char_traits@D@std@@V?$allocator@D@2@@std@@AAV23@@Z:
  0027c	b8 00 00 00 00	 mov	 eax, OFFSET FLAT:$T203628
  00281	e9 00 00 00 00	 jmp	 ___CxxFrameHandler
text$x	ENDS
?_command_opennewtab@CWebManager@@AAE?AV?$basic_string@DU?$char_traits@D@std@@V?$allocator@D@2@@std@@AAV23@@Z ENDP ; CWebManager::_command_opennewtab
PUBLIC	??0?$vector@UTAB_ITEM@@V?$allocator@UTAB_ITEM@@@std@@@std@@QAE@XZ ; std::vector<TAB_ITEM,std::allocator<TAB_ITEM> >::vector<TAB_ITEM,std::allocator<TAB_ITEM> >
PUBLIC	??1?$vector@UTAB_ITEM@@V?$allocator@UTAB_ITEM@@@std@@@std@@QAE@XZ ; std::vector<TAB_ITEM,std::allocator<TAB_ITEM> >::~vector<TAB_ITEM,std::allocator<TAB_ITEM> >
PUBLIC	??0OneLocalGame@@QAE@XZ				; OneLocalGame::OneLocalGame
PUBLIC	??1OneLocalGame@@QAE@XZ				; OneLocalGame::~OneLocalGame
PUBLIC	??0CallJSParam@@QAE@XZ				; CallJSParam::CallJSParam
PUBLIC	??_GCallJSParam@@QAEPAXI@Z			; CallJSParam::`scalar deleting destructor'
EXTRN	?GetInstance@CTabPageControl@@SAPAV1@XZ:NEAR	; CTabPageControl::GetInstance
EXTRN	?CallJS@CTabPageControl@@QAEXPAX@Z:NEAR		; CTabPageControl::CallJS
EXTRN	_memset:NEAR
EXTRN	__imp_??4?$basic_string@DU?$char_traits@D@std@@V?$allocator@D@2@@std@@QAEAAV01@PBD@Z:NEAR
xdata$x	SEGMENT
$T203660 DD	0ffffffffH
	DD	FLAT:$L203653
	DD	00H
	DD	FLAT:$L203647
	DD	01H
	DD	FLAT:$L203648
	DD	02H
	DD	FLAT:$L203649
	DD	02H
	DD	FLAT:$L203650
	DD	04H
	DD	FLAT:$L203651
	DD	05H
	DD	FLAT:$L203652
$T203657 DD	019930520H
	DD	07H
	DD	FLAT:$T203660
	DD	2 DUP(00H)
	DD	2 DUP(00H)
; Function compile flags: /Odt
xdata$x	ENDS
_TEXT	SEGMENT
tv193 = -316						; size = 4
tv174 = -312						; size = 4
tv163 = -308						; size = 4
tv157 = -304						; size = 4
tv149 = -300						; size = 4
tv206 = -293						; size = 1
tv128 = -292						; size = 4
tv90 = -288						; size = 4
tv205 = -284						; size = 4
tv84 = -280						; size = 4
tv200 = -276						; size = 4
tv199 = -272						; size = 4
_this$ = -268						; size = 4
$T203654 = -264						; size = 4
$T203643 = -260						; size = 4
$T203642 = -256						; size = 4
$T203639 = -252						; size = 4
$T203638 = -248						; size = 4
$T203635 = -244						; size = 4
$T203634 = -240						; size = 4
_olg$ = -236						; size = 144
_strID$ = -92						; size = 28
_strStatus$ = -64					; size = 28
__$ArrayPad$ = -36					; size = 4
_vTab$ = -32						; size = 16
_pParam$ = -16						; size = 4
__$EHRec$ = -12						; size = 12
__$ReturnAddr$ = 4					; size = 4
___$ReturnUdt$ = 8					; size = 4
_strContent$ = 12					; size = 4
?_command_checkdlstatus@CWebManager@@AAE?AV?$basic_string@DU?$char_traits@D@std@@V?$allocator@D@2@@std@@AAV23@@Z PROC NEAR ; CWebManager::_command_checkdlstatus
; _this$ = ecx

; 226  : {

  01380	55		 push	 ebp
  01381	8b ec		 mov	 ebp, esp
  01383	6a ff		 push	 -1
  01385	68 00 00 00 00	 push	 __ehhandler$?_command_checkdlstatus@CWebManager@@AAE?AV?$basic_string@DU?$char_traits@D@std@@V?$allocator@D@2@@std@@AAV23@@Z
  0138a	64 a1 00 00 00
	00		 mov	 eax, DWORD PTR fs:__except_list
  01390	50		 push	 eax
  01391	64 89 25 00 00
	00 00		 mov	 DWORD PTR fs:__except_list, esp
  01398	81 ec 30 01 00
	00		 sub	 esp, 304		; 00000130H
  0139e	a1 00 00 00 00	 mov	 eax, DWORD PTR ___security_cookie
  013a3	89 45 dc	 mov	 DWORD PTR __$ArrayPad$[ebp], eax
  013a6	89 8d f4 fe ff
	ff		 mov	 DWORD PTR _this$[ebp], ecx
  013ac	c7 85 f8 fe ff
	ff 00 00 00 00	 mov	 DWORD PTR $T203654[ebp], 0

; 227  : 	string strID = GetValue (strContent, "id");

  013b6	83 ec 1c	 sub	 esp, 28			; 0000001cH
  013b9	8b cc		 mov	 ecx, esp
  013bb	89 a5 10 ff ff
	ff		 mov	 DWORD PTR $T203634[ebp], esp
  013c1	68 00 00 00 00	 push	 OFFSET FLAT:$SG202129
  013c6	ff 15 00 00 00
	00		 call	 DWORD PTR __imp_??0?$basic_string@DU?$char_traits@D@std@@V?$allocator@D@2@@std@@QAE@PBD@Z
  013cc	89 85 f0 fe ff
	ff		 mov	 DWORD PTR tv199[ebp], eax
  013d2	8b 45 0c	 mov	 eax, DWORD PTR _strContent$[ebp]
  013d5	50		 push	 eax
  013d6	8d 4d a4	 lea	 ecx, DWORD PTR _strID$[ebp]
  013d9	51		 push	 ecx
  013da	8b 8d f4 fe ff
	ff		 mov	 ecx, DWORD PTR _this$[ebp]
  013e0	e8 00 00 00 00	 call	 ?GetValue@CWebManager@@QAE?AV?$basic_string@DU?$char_traits@D@std@@V?$allocator@D@2@@std@@AAV23@V23@@Z ; CWebManager::GetValue
  013e5	89 85 ec fe ff
	ff		 mov	 DWORD PTR tv200[ebp], eax
  013eb	c7 45 fc 01 00
	00 00		 mov	 DWORD PTR __$EHRec$[ebp+8], 1

; 228  : 
; 229  : 	OneLocalGame olg;

  013f2	8d 8d 14 ff ff
	ff		 lea	 ecx, DWORD PTR _olg$[ebp]
  013f8	e8 00 00 00 00	 call	 ??0OneLocalGame@@QAE@XZ	; OneLocalGame::OneLocalGame
  013fd	c6 45 fc 02	 mov	 BYTE PTR __$EHRec$[ebp+8], 2

; 230  : 
; 231  : 	string strStatus  = 
; 232  : 		GLOBAL_LOCALGAME->ILocalGameData_GetGameByID (strID, olg) ? "run" : "download";

  01401	8d 95 14 ff ff
	ff		 lea	 edx, DWORD PTR _olg$[ebp]
  01407	52		 push	 edx
  01408	83 ec 1c	 sub	 esp, 28			; 0000001cH
  0140b	8b cc		 mov	 ecx, esp
  0140d	89 a5 0c ff ff
	ff		 mov	 DWORD PTR $T203635[ebp], esp
  01413	8d 45 a4	 lea	 eax, DWORD PTR _strID$[ebp]
  01416	50		 push	 eax
  01417	ff 15 00 00 00
	00		 call	 DWORD PTR __imp_??0?$basic_string@DU?$char_traits@D@std@@V?$allocator@D@2@@std@@QAE@ABV01@@Z
  0141d	89 85 e8 fe ff
	ff		 mov	 DWORD PTR tv84[ebp], eax
  01423	8b 8d e8 fe ff
	ff		 mov	 ecx, DWORD PTR tv84[ebp]
  01429	89 8d e4 fe ff
	ff		 mov	 DWORD PTR tv205[ebp], ecx
  0142f	c6 45 fc 03	 mov	 BYTE PTR __$EHRec$[ebp+8], 3
  01433	e8 00 00 00 00	 call	 ?AfxGetDataManager2@@YAPAVIDataManager@@XZ ; AfxGetDataManager2
  01438	89 85 e0 fe ff
	ff		 mov	 DWORD PTR tv90[ebp], eax
  0143e	68 00 00 00 00	 push	 OFFSET FLAT:_ID_DATA_LOCALGAME
  01443	8b 95 e0 fe ff
	ff		 mov	 edx, DWORD PTR tv90[ebp]
  01449	8b 02		 mov	 eax, DWORD PTR [edx]
  0144b	8b 8d e0 fe ff
	ff		 mov	 ecx, DWORD PTR tv90[ebp]
  01451	ff 50 0c	 call	 DWORD PTR [eax+12]
  01454	89 85 dc fe ff
	ff		 mov	 DWORD PTR tv128[ebp], eax
  0145a	8b 8d dc fe ff
	ff		 mov	 ecx, DWORD PTR tv128[ebp]
  01460	8b 11		 mov	 edx, DWORD PTR [ecx]
  01462	c6 45 fc 02	 mov	 BYTE PTR __$EHRec$[ebp+8], 2
  01466	8b 8d dc fe ff
	ff		 mov	 ecx, DWORD PTR tv128[ebp]
  0146c	ff 52 0c	 call	 DWORD PTR [edx+12]
  0146f	88 85 db fe ff
	ff		 mov	 BYTE PTR tv206[ebp], al
  01475	0f b6 85 db fe
	ff ff		 movzx	 eax, BYTE PTR tv206[ebp]
  0147c	85 c0		 test	 eax, eax
  0147e	74 0c		 je	 SHORT $L203636
  01480	c7 85 d4 fe ff
	ff 00 00 00 00	 mov	 DWORD PTR tv149[ebp], OFFSET FLAT:$SG202134
  0148a	eb 0a		 jmp	 SHORT $L203637
$L203636:
  0148c	c7 85 d4 fe ff
	ff 00 00 00 00	 mov	 DWORD PTR tv149[ebp], OFFSET FLAT:$SG202135
$L203637:
  01496	8b 8d d4 fe ff
	ff		 mov	 ecx, DWORD PTR tv149[ebp]
  0149c	51		 push	 ecx
  0149d	8d 4d c0	 lea	 ecx, DWORD PTR _strStatus$[ebp]
  014a0	ff 15 00 00 00
	00		 call	 DWORD PTR __imp_??0?$basic_string@DU?$char_traits@D@std@@V?$allocator@D@2@@std@@QAE@PBD@Z
  014a6	c6 45 fc 04	 mov	 BYTE PTR __$EHRec$[ebp+8], 4

; 233  : 
; 234  : 	vector<TAB_ITEM> vTab;

  014aa	8d 4d e0	 lea	 ecx, DWORD PTR _vTab$[ebp]
  014ad	e8 00 00 00 00	 call	 ??0?$vector@UTAB_ITEM@@V?$allocator@UTAB_ITEM@@@std@@@std@@QAE@XZ ; std::vector<TAB_ITEM,std::allocator<TAB_ITEM> >::vector<TAB_ITEM,std::allocator<TAB_ITEM> >
  014b2	c6 45 fc 05	 mov	 BYTE PTR __$EHRec$[ebp+8], 5

; 235  : 	GLOBAL_TABBARDATA->ITabBar_GetTabBarData (vTab);

  014b6	e8 00 00 00 00	 call	 ?AfxGetDataManager2@@YAPAVIDataManager@@XZ ; AfxGetDataManager2
  014bb	89 85 d0 fe ff
	ff		 mov	 DWORD PTR tv157[ebp], eax
  014c1	68 00 00 00 00	 push	 OFFSET FLAT:_ID_DATA_TABBAR
  014c6	8b 95 d0 fe ff
	ff		 mov	 edx, DWORD PTR tv157[ebp]
  014cc	8b 02		 mov	 eax, DWORD PTR [edx]
  014ce	8b 8d d0 fe ff
	ff		 mov	 ecx, DWORD PTR tv157[ebp]
  014d4	ff 50 0c	 call	 DWORD PTR [eax+12]
  014d7	89 85 cc fe ff
	ff		 mov	 DWORD PTR tv163[ebp], eax
  014dd	8d 4d e0	 lea	 ecx, DWORD PTR _vTab$[ebp]
  014e0	51		 push	 ecx
  014e1	8b 95 cc fe ff
	ff		 mov	 edx, DWORD PTR tv163[ebp]
  014e7	8b 02		 mov	 eax, DWORD PTR [edx]
  014e9	8b 8d cc fe ff
	ff		 mov	 ecx, DWORD PTR tv163[ebp]
  014ef	ff 50 1c	 call	 DWORD PTR [eax+28]

; 236  : 
; 237  : 	CallJSParam * pParam = new CallJSParam;

  014f2	6a 74		 push	 116			; 00000074H
  014f4	e8 00 00 00 00	 call	 ??2@YAPAXI@Z		; operator new
  014f9	83 c4 04	 add	 esp, 4
  014fc	89 85 04 ff ff
	ff		 mov	 DWORD PTR $T203639[ebp], eax
  01502	c6 45 fc 06	 mov	 BYTE PTR __$EHRec$[ebp+8], 6
  01506	83 bd 04 ff ff
	ff 00		 cmp	 DWORD PTR $T203639[ebp], 0
  0150d	74 13		 je	 SHORT $L203640
  0150f	8b 8d 04 ff ff
	ff		 mov	 ecx, DWORD PTR $T203639[ebp]
  01515	e8 00 00 00 00	 call	 ??0CallJSParam@@QAE@XZ
  0151a	89 85 c8 fe ff
	ff		 mov	 DWORD PTR tv174[ebp], eax
  01520	eb 0a		 jmp	 SHORT $L203641
$L203640:
  01522	c7 85 c8 fe ff
	ff 00 00 00 00	 mov	 DWORD PTR tv174[ebp], 0
$L203641:
  0152c	8b 8d c8 fe ff
	ff		 mov	 ecx, DWORD PTR tv174[ebp]
  01532	89 8d 08 ff ff
	ff		 mov	 DWORD PTR $T203638[ebp], ecx
  01538	c6 45 fc 05	 mov	 BYTE PTR __$EHRec$[ebp+8], 5
  0153c	8b 95 08 ff ff
	ff		 mov	 edx, DWORD PTR $T203638[ebp]
  01542	89 55 f0	 mov	 DWORD PTR _pParam$[ebp], edx

; 238  : 	memset (pParam, 0, sizeof (CallJSParam));

  01545	6a 74		 push	 116			; 00000074H
  01547	6a 00		 push	 0
  01549	8b 45 f0	 mov	 eax, DWORD PTR _pParam$[ebp]
  0154c	50		 push	 eax
  0154d	e8 00 00 00 00	 call	 _memset
  01552	83 c4 0c	 add	 esp, 12			; 0000000cH

; 239  : 
; 240  : 	pParam->strFunc = "setdownloadpic";

  01555	68 00 00 00 00	 push	 OFFSET FLAT:$SG202145
  0155a	8b 4d f0	 mov	 ecx, DWORD PTR _pParam$[ebp]
  0155d	83 c1 04	 add	 ecx, 4
  01560	ff 15 00 00 00
	00		 call	 DWORD PTR __imp_??4?$basic_string@DU?$char_traits@D@std@@V?$allocator@D@2@@std@@QAEAAV01@PBD@Z

; 241  : 	pParam->nParam = 2;

  01566	8b 4d f0	 mov	 ecx, DWORD PTR _pParam$[ebp]
  01569	c7 01 02 00 00
	00		 mov	 DWORD PTR [ecx], 2

; 242  : 	pParam->strParam1 = strID;

  0156f	8d 55 a4	 lea	 edx, DWORD PTR _strID$[ebp]
  01572	52		 push	 edx
  01573	8b 4d f0	 mov	 ecx, DWORD PTR _pParam$[ebp]
  01576	83 c1 20	 add	 ecx, 32			; 00000020H
  01579	ff 15 00 00 00
	00		 call	 DWORD PTR __imp_??4?$basic_string@DU?$char_traits@D@std@@V?$allocator@D@2@@std@@QAEAAV01@ABV01@@Z

; 243  : 	pParam->strParam2 = strStatus;

  0157f	8d 45 c0	 lea	 eax, DWORD PTR _strStatus$[ebp]
  01582	50		 push	 eax
  01583	8b 4d f0	 mov	 ecx, DWORD PTR _pParam$[ebp]
  01586	83 c1 3c	 add	 ecx, 60			; 0000003cH
  01589	ff 15 00 00 00
	00		 call	 DWORD PTR __imp_??4?$basic_string@DU?$char_traits@D@std@@V?$allocator@D@2@@std@@QAEAAV01@ABV01@@Z

; 244  : 
; 245  : 	CTabPageControl::GetInstance ()->CallJS ((LPVOID)pParam);

  0158f	8b 4d f0	 mov	 ecx, DWORD PTR _pParam$[ebp]
  01592	51		 push	 ecx
  01593	e8 00 00 00 00	 call	 ?GetInstance@CTabPageControl@@SAPAV1@XZ ; CTabPageControl::GetInstance
  01598	8b c8		 mov	 ecx, eax
  0159a	e8 00 00 00 00	 call	 ?CallJS@CTabPageControl@@QAEXPAX@Z ; CTabPageControl::CallJS

; 246  : 
; 247  : 	delete pParam;

  0159f	8b 55 f0	 mov	 edx, DWORD PTR _pParam$[ebp]
  015a2	89 95 fc fe ff
	ff		 mov	 DWORD PTR $T203643[ebp], edx
  015a8	8b 85 fc fe ff
	ff		 mov	 eax, DWORD PTR $T203643[ebp]
  015ae	89 85 00 ff ff
	ff		 mov	 DWORD PTR $T203642[ebp], eax
  015b4	83 bd 00 ff ff
	ff 00		 cmp	 DWORD PTR $T203642[ebp], 0
  015bb	74 15		 je	 SHORT $L203644
  015bd	6a 01		 push	 1
  015bf	8b 8d 00 ff ff
	ff		 mov	 ecx, DWORD PTR $T203642[ebp]
  015c5	e8 00 00 00 00	 call	 ??_GCallJSParam@@QAEPAXI@Z
  015ca	89 85 c4 fe ff
	ff		 mov	 DWORD PTR tv193[ebp], eax
  015d0	eb 0a		 jmp	 SHORT $L203645
$L203644:
  015d2	c7 85 c4 fe ff
	ff 00 00 00 00	 mov	 DWORD PTR tv193[ebp], 0
$L203645:

; 248  : 	pParam = NULL;

  015dc	c7 45 f0 00 00
	00 00		 mov	 DWORD PTR _pParam$[ebp], 0

; 249  : 
; 250  : 	return "";

  015e3	68 00 00 00 00	 push	 OFFSET FLAT:$SG202149
  015e8	8b 4d 08	 mov	 ecx, DWORD PTR ___$ReturnUdt$[ebp]
  015eb	ff 15 00 00 00
	00		 call	 DWORD PTR __imp_??0?$basic_string@DU?$char_traits@D@std@@V?$allocator@D@2@@std@@QAE@PBD@Z
  015f1	8b 8d f8 fe ff
	ff		 mov	 ecx, DWORD PTR $T203654[ebp]
  015f7	83 c9 01	 or	 ecx, 1
  015fa	89 8d f8 fe ff
	ff		 mov	 DWORD PTR $T203654[ebp], ecx
  01600	c6 45 fc 04	 mov	 BYTE PTR __$EHRec$[ebp+8], 4
  01604	8d 4d e0	 lea	 ecx, DWORD PTR _vTab$[ebp]
  01607	e8 00 00 00 00	 call	 ??1?$vector@UTAB_ITEM@@V?$allocator@UTAB_ITEM@@@std@@@std@@QAE@XZ ; std::vector<TAB_ITEM,std::allocator<TAB_ITEM> >::~vector<TAB_ITEM,std::allocator<TAB_ITEM> >
  0160c	c6 45 fc 02	 mov	 BYTE PTR __$EHRec$[ebp+8], 2
  01610	8d 4d c0	 lea	 ecx, DWORD PTR _strStatus$[ebp]
  01613	ff 15 00 00 00
	00		 call	 DWORD PTR __imp_??1?$basic_string@DU?$char_traits@D@std@@V?$allocator@D@2@@std@@QAE@XZ
  01619	c6 45 fc 01	 mov	 BYTE PTR __$EHRec$[ebp+8], 1
  0161d	8d 8d 14 ff ff
	ff		 lea	 ecx, DWORD PTR _olg$[ebp]
  01623	e8 00 00 00 00	 call	 ??1OneLocalGame@@QAE@XZ
  01628	c6 45 fc 00	 mov	 BYTE PTR __$EHRec$[ebp+8], 0
  0162c	8d 4d a4	 lea	 ecx, DWORD PTR _strID$[ebp]
  0162f	ff 15 00 00 00
	00		 call	 DWORD PTR __imp_??1?$basic_string@DU?$char_traits@D@std@@V?$allocator@D@2@@std@@QAE@XZ
  01635	8b 45 08	 mov	 eax, DWORD PTR ___$ReturnUdt$[ebp]

; 251  : }

  01638	8b 4d f4	 mov	 ecx, DWORD PTR __$EHRec$[ebp]
  0163b	64 89 0d 00 00
	00 00		 mov	 DWORD PTR fs:__except_list, ecx
  01642	8b 4d dc	 mov	 ecx, DWORD PTR __$ArrayPad$[ebp]
  01645	e8 00 00 00 00	 call	 @__security_check_cookie@4
  0164a	8b e5		 mov	 esp, ebp
  0164c	5d		 pop	 ebp
  0164d	c2 08 00	 ret	 8
_TEXT	ENDS
text$x	SEGMENT
$L203647:
  00286	8d 4d a4	 lea	 ecx, DWORD PTR _strID$[ebp]
  00289	ff 25 00 00 00
	00		 jmp	 DWORD PTR __imp_??1?$basic_string@DU?$char_traits@D@std@@V?$allocator@D@2@@std@@QAE@XZ
$L203648:
  0028f	8d 8d 14 ff ff
	ff		 lea	 ecx, DWORD PTR _olg$[ebp]
  00295	e9 00 00 00 00	 jmp	 ??1OneLocalGame@@QAE@XZ
$L203649:
  0029a	8b 8d 0c ff ff
	ff		 mov	 ecx, DWORD PTR $T203635[ebp]
  002a0	ff 25 00 00 00
	00		 jmp	 DWORD PTR __imp_??1?$basic_string@DU?$char_traits@D@std@@V?$allocator@D@2@@std@@QAE@XZ
$L203650:
  002a6	8d 4d c0	 lea	 ecx, DWORD PTR _strStatus$[ebp]
  002a9	ff 25 00 00 00
	00		 jmp	 DWORD PTR __imp_??1?$basic_string@DU?$char_traits@D@std@@V?$allocator@D@2@@std@@QAE@XZ
$L203651:
  002af	8d 4d e0	 lea	 ecx, DWORD PTR _vTab$[ebp]
  002b2	e9 00 00 00 00	 jmp	 ??1?$vector@UTAB_ITEM@@V?$allocator@UTAB_ITEM@@@std@@@std@@QAE@XZ ; std::vector<TAB_ITEM,std::allocator<TAB_ITEM> >::~vector<TAB_ITEM,std::allocator<TAB_ITEM> >
$L203652:
  002b7	8b 85 04 ff ff
	ff		 mov	 eax, DWORD PTR $T203639[ebp]
  002bd	50		 push	 eax
  002be	e8 00 00 00 00	 call	 ??3@YAXPAX@Z		; operator delete
  002c3	59		 pop	 ecx
  002c4	c3		 ret	 0
$L203653:
  002c5	8b 85 f8 fe ff
	ff		 mov	 eax, DWORD PTR $T203654[ebp]
  002cb	83 e0 01	 and	 eax, 1
  002ce	0f 84 10 00 00
	00		 je	 $L203655
  002d4	83 a5 f8 fe ff
	ff fe		 and	 DWORD PTR $T203654[ebp], -2 ; fffffffeH
  002db	8b 4d 08	 mov	 ecx, DWORD PTR ___$ReturnUdt$[ebp]
  002de	ff 25 00 00 00
	00		 jmp	 DWORD PTR __imp_??1?$basic_string@DU?$char_traits@D@std@@V?$allocator@D@2@@std@@QAE@XZ
$L203655:
  002e4	c3		 ret	 0
__ehhandler$?_command_checkdlstatus@CWebManager@@AAE?AV?$basic_string@DU?$char_traits@D@std@@V?$allocator@D@2@@std@@AAV23@@Z:
  002e5	b8 00 00 00 00	 mov	 eax, OFFSET FLAT:$T203657
  002ea	e9 00 00 00 00	 jmp	 ___CxxFrameHandler
text$x	ENDS
?_command_checkdlstatus@CWebManager@@AAE?AV?$basic_string@DU?$char_traits@D@std@@V?$allocator@D@2@@std@@AAV23@@Z ENDP ; CWebManager::_command_checkdlstatus
PUBLIC	?clear@OneLocalGame@@QAEXXZ			; OneLocalGame::clear
;	COMDAT xdata$x
; File d:\boxgit\playbox\playbox\dev\prj\playbox\src\datainterface\ilocalgamedata.h
xdata$x	SEGMENT
$T203670 DD	0ffffffffH
	DD	FLAT:$L203662
	DD	00H
	DD	FLAT:$L203663
	DD	01H
	DD	FLAT:$L203664
	DD	02H
	DD	FLAT:$L203665
	DD	03H
	DD	FLAT:$L203666
$T203668 DD	019930520H
	DD	05H
	DD	FLAT:$T203670
	DD	2 DUP(00H)
	DD	2 DUP(00H)
; Function compile flags: /Odt
xdata$x	ENDS
;	COMDAT ??0OneLocalGame@@QAE@XZ
_TEXT	SEGMENT
_this$ = -16						; size = 4
__$EHRec$ = -12						; size = 12
??0OneLocalGame@@QAE@XZ PROC NEAR			; OneLocalGame::OneLocalGame, COMDAT
; _this$ = ecx

; 20   : 	OneLocalGame()

  00000	55		 push	 ebp
  00001	8b ec		 mov	 ebp, esp
  00003	6a ff		 push	 -1
  00005	68 00 00 00 00	 push	 __ehhandler$??0OneLocalGame@@QAE@XZ
  0000a	64 a1 00 00 00
	00		 mov	 eax, DWORD PTR fs:__except_list
  00010	50		 push	 eax
  00011	64 89 25 00 00
	00 00		 mov	 DWORD PTR fs:__except_list, esp
  00018	51		 push	 ecx
  00019	89 4d f0	 mov	 DWORD PTR _this$[ebp], ecx
  0001c	8b 4d f0	 mov	 ecx, DWORD PTR _this$[ebp]
  0001f	ff 15 00 00 00
	00		 call	 DWORD PTR __imp_??0?$basic_string@DU?$char_traits@D@std@@V?$allocator@D@2@@std@@QAE@XZ
  00025	c7 45 fc 00 00
	00 00		 mov	 DWORD PTR __$EHRec$[ebp+8], 0
  0002c	8b 4d f0	 mov	 ecx, DWORD PTR _this$[ebp]
  0002f	83 c1 1c	 add	 ecx, 28			; 0000001cH
  00032	ff 15 00 00 00
	00		 call	 DWORD PTR __imp_??0?$basic_string@DU?$char_traits@D@std@@V?$allocator@D@2@@std@@QAE@XZ
  00038	c6 45 fc 01	 mov	 BYTE PTR __$EHRec$[ebp+8], 1
  0003c	8b 4d f0	 mov	 ecx, DWORD PTR _this$[ebp]
  0003f	83 c1 38	 add	 ecx, 56			; 00000038H
  00042	ff 15 00 00 00
	00		 call	 DWORD PTR __imp_??0?$basic_string@DU?$char_traits@D@std@@V?$allocator@D@2@@std@@QAE@XZ
  00048	c6 45 fc 02	 mov	 BYTE PTR __$EHRec$[ebp+8], 2
  0004c	8b 4d f0	 mov	 ecx, DWORD PTR _this$[ebp]
  0004f	83 c1 54	 add	 ecx, 84			; 00000054H
  00052	ff 15 00 00 00
	00		 call	 DWORD PTR __imp_??0?$basic_string@DU?$char_traits@D@std@@V?$allocator@D@2@@std@@QAE@XZ
  00058	c6 45 fc 03	 mov	 BYTE PTR __$EHRec$[ebp+8], 3
  0005c	8b 4d f0	 mov	 ecx, DWORD PTR _this$[ebp]
  0005f	83 c1 70	 add	 ecx, 112		; 00000070H
  00062	ff 15 00 00 00
	00		 call	 DWORD PTR __imp_??0?$basic_string@DU?$char_traits@D@std@@V?$allocator@D@2@@std@@QAE@XZ
  00068	c6 45 fc 04	 mov	 BYTE PTR __$EHRec$[ebp+8], 4

; 21   : 	{
; 22   : 		clear();

  0006c	8b 4d f0	 mov	 ecx, DWORD PTR _this$[ebp]
  0006f	e8 00 00 00 00	 call	 ?clear@OneLocalGame@@QAEXXZ ; OneLocalGame::clear

; 23   : 	}

  00074	c7 45 fc ff ff
	ff ff		 mov	 DWORD PTR __$EHRec$[ebp+8], -1
  0007b	8b 45 f0	 mov	 eax, DWORD PTR _this$[ebp]
  0007e	8b 4d f4	 mov	 ecx, DWORD PTR __$EHRec$[ebp]
  00081	64 89 0d 00 00
	00 00		 mov	 DWORD PTR fs:__except_list, ecx
  00088	8b e5		 mov	 esp, ebp
  0008a	5d		 pop	 ebp
  0008b	c3		 ret	 0
_TEXT	ENDS
;	COMDAT text$x
text$x	SEGMENT
$L203662:
  00000	8b 4d f0	 mov	 ecx, DWORD PTR _this$[ebp]
  00003	ff 25 00 00 00
	00		 jmp	 DWORD PTR __imp_??1?$basic_string@DU?$char_traits@D@std@@V?$allocator@D@2@@std@@QAE@XZ
$L203663:
  00009	8b 4d f0	 mov	 ecx, DWORD PTR _this$[ebp]
  0000c	83 c1 1c	 add	 ecx, 28			; 0000001cH
  0000f	ff 25 00 00 00
	00		 jmp	 DWORD PTR __imp_??1?$basic_string@DU?$char_traits@D@std@@V?$allocator@D@2@@std@@QAE@XZ
$L203664:
  00015	8b 4d f0	 mov	 ecx, DWORD PTR _this$[ebp]
  00018	83 c1 38	 add	 ecx, 56			; 00000038H
  0001b	ff 25 00 00 00
	00		 jmp	 DWORD PTR __imp_??1?$basic_string@DU?$char_traits@D@std@@V?$allocator@D@2@@std@@QAE@XZ
$L203665:
  00021	8b 4d f0	 mov	 ecx, DWORD PTR _this$[ebp]
  00024	83 c1 54	 add	 ecx, 84			; 00000054H
  00027	ff 25 00 00 00
	00		 jmp	 DWORD PTR __imp_??1?$basic_string@DU?$char_traits@D@std@@V?$allocator@D@2@@std@@QAE@XZ
$L203666:
  0002d	8b 4d f0	 mov	 ecx, DWORD PTR _this$[ebp]
  00030	83 c1 70	 add	 ecx, 112		; 00000070H
  00033	ff 25 00 00 00
	00		 jmp	 DWORD PTR __imp_??1?$basic_string@DU?$char_traits@D@std@@V?$allocator@D@2@@std@@QAE@XZ
__ehhandler$??0OneLocalGame@@QAE@XZ:
  00039	b8 00 00 00 00	 mov	 eax, OFFSET FLAT:$T203668
  0003e	e9 00 00 00 00	 jmp	 ___CxxFrameHandler
text$x	ENDS
??0OneLocalGame@@QAE@XZ ENDP				; OneLocalGame::OneLocalGame
EXTRN	__imp_?clear@?$basic_string@DU?$char_traits@D@std@@V?$allocator@D@2@@std@@QAEXXZ:NEAR
; Function compile flags: /Odt
;	COMDAT ?clear@OneLocalGame@@QAEXXZ
_TEXT	SEGMENT
_this$ = -4						; size = 4
?clear@OneLocalGame@@QAEXXZ PROC NEAR			; OneLocalGame::clear, COMDAT
; _this$ = ecx

; 25   : 	{

  00000	55		 push	 ebp
  00001	8b ec		 mov	 ebp, esp
  00003	51		 push	 ecx
  00004	89 4d fc	 mov	 DWORD PTR _this$[ebp], ecx

; 26   : 		strID.clear();

  00007	8b 4d fc	 mov	 ecx, DWORD PTR _this$[ebp]
  0000a	ff 15 00 00 00
	00		 call	 DWORD PTR __imp_?clear@?$basic_string@DU?$char_traits@D@std@@V?$allocator@D@2@@std@@QAEXXZ

; 27   : 		strName.clear();

  00010	8b 4d fc	 mov	 ecx, DWORD PTR _this$[ebp]
  00013	83 c1 1c	 add	 ecx, 28			; 0000001cH
  00016	ff 15 00 00 00
	00		 call	 DWORD PTR __imp_?clear@?$basic_string@DU?$char_traits@D@std@@V?$allocator@D@2@@std@@QAEXXZ

; 28   : 		strGamePath.clear();

  0001c	8b 4d fc	 mov	 ecx, DWORD PTR _this$[ebp]
  0001f	83 c1 38	 add	 ecx, 56			; 00000038H
  00022	ff 15 00 00 00
	00		 call	 DWORD PTR __imp_?clear@?$basic_string@DU?$char_traits@D@std@@V?$allocator@D@2@@std@@QAEXXZ

; 29   : 		strPicPath.clear();

  00028	8b 4d fc	 mov	 ecx, DWORD PTR _this$[ebp]
  0002b	83 c1 54	 add	 ecx, 84			; 00000054H
  0002e	ff 15 00 00 00
	00		 call	 DWORD PTR __imp_?clear@?$basic_string@DU?$char_traits@D@std@@V?$allocator@D@2@@std@@QAEXXZ

; 30   : 		strIntro.clear();

  00034	8b 4d fc	 mov	 ecx, DWORD PTR _this$[ebp]
  00037	83 c1 70	 add	 ecx, 112		; 00000070H
  0003a	ff 15 00 00 00
	00		 call	 DWORD PTR __imp_?clear@?$basic_string@DU?$char_traits@D@std@@V?$allocator@D@2@@std@@QAEXXZ

; 31   : 		uiFileSize    = 0;

  00040	8b 45 fc	 mov	 eax, DWORD PTR _this$[ebp]
  00043	c7 80 8c 00 00
	00 00 00 00 00	 mov	 DWORD PTR [eax+140], 0

; 32   : 	}

  0004d	8b e5		 mov	 esp, ebp
  0004f	5d		 pop	 ebp
  00050	c3		 ret	 0
?clear@OneLocalGame@@QAEXXZ ENDP			; OneLocalGame::clear
_TEXT	ENDS
;	COMDAT xdata$x
xdata$x	SEGMENT
$T203685 DD	0ffffffffH
	DD	FLAT:$L203677
	DD	00H
	DD	FLAT:$L203678
	DD	01H
	DD	FLAT:$L203679
	DD	02H
	DD	FLAT:$L203680
$T203683 DD	019930520H
	DD	04H
	DD	FLAT:$T203685
	DD	2 DUP(00H)
	DD	2 DUP(00H)
; Function compile flags: /Odt
xdata$x	ENDS
;	COMDAT ??1OneLocalGame@@QAE@XZ
_TEXT	SEGMENT
_this$ = -16						; size = 4
__$EHRec$ = -12						; size = 12
??1OneLocalGame@@QAE@XZ PROC NEAR			; OneLocalGame::~OneLocalGame, COMDAT
; _this$ = ecx
  00000	55		 push	 ebp
  00001	8b ec		 mov	 ebp, esp
  00003	6a ff		 push	 -1
  00005	68 00 00 00 00	 push	 __ehhandler$??1OneLocalGame@@QAE@XZ
  0000a	64 a1 00 00 00
	00		 mov	 eax, DWORD PTR fs:__except_list
  00010	50		 push	 eax
  00011	64 89 25 00 00
	00 00		 mov	 DWORD PTR fs:__except_list, esp
  00018	51		 push	 ecx
  00019	89 4d f0	 mov	 DWORD PTR _this$[ebp], ecx
  0001c	c7 45 fc 03 00
	00 00		 mov	 DWORD PTR __$EHRec$[ebp+8], 3
  00023	8b 4d f0	 mov	 ecx, DWORD PTR _this$[ebp]
  00026	83 c1 70	 add	 ecx, 112		; 00000070H
  00029	ff 15 00 00 00
	00		 call	 DWORD PTR __imp_??1?$basic_string@DU?$char_traits@D@std@@V?$allocator@D@2@@std@@QAE@XZ
  0002f	c6 45 fc 02	 mov	 BYTE PTR __$EHRec$[ebp+8], 2
  00033	8b 4d f0	 mov	 ecx, DWORD PTR _this$[ebp]
  00036	83 c1 54	 add	 ecx, 84			; 00000054H
  00039	ff 15 00 00 00
	00		 call	 DWORD PTR __imp_??1?$basic_string@DU?$char_traits@D@std@@V?$allocator@D@2@@std@@QAE@XZ
  0003f	c6 45 fc 01	 mov	 BYTE PTR __$EHRec$[ebp+8], 1
  00043	8b 4d f0	 mov	 ecx, DWORD PTR _this$[ebp]
  00046	83 c1 38	 add	 ecx, 56			; 00000038H
  00049	ff 15 00 00 00
	00		 call	 DWORD PTR __imp_??1?$basic_string@DU?$char_traits@D@std@@V?$allocator@D@2@@std@@QAE@XZ
  0004f	c6 45 fc 00	 mov	 BYTE PTR __$EHRec$[ebp+8], 0
  00053	8b 4d f0	 mov	 ecx, DWORD PTR _this$[ebp]
  00056	83 c1 1c	 add	 ecx, 28			; 0000001cH
  00059	ff 15 00 00 00
	00		 call	 DWORD PTR __imp_??1?$basic_string@DU?$char_traits@D@std@@V?$allocator@D@2@@std@@QAE@XZ
  0005f	c7 45 fc ff ff
	ff ff		 mov	 DWORD PTR __$EHRec$[ebp+8], -1
  00066	8b 4d f0	 mov	 ecx, DWORD PTR _this$[ebp]
  00069	ff 15 00 00 00
	00		 call	 DWORD PTR __imp_??1?$basic_string@DU?$char_traits@D@std@@V?$allocator@D@2@@std@@QAE@XZ
  0006f	8b 4d f4	 mov	 ecx, DWORD PTR __$EHRec$[ebp]
  00072	64 89 0d 00 00
	00 00		 mov	 DWORD PTR fs:__except_list, ecx
  00079	8b e5		 mov	 esp, ebp
  0007b	5d		 pop	 ebp
  0007c	c3		 ret	 0
_TEXT	ENDS
;	COMDAT text$x
text$x	SEGMENT
$L203677:
  00000	8b 4d f0	 mov	 ecx, DWORD PTR _this$[ebp]
  00003	ff 25 00 00 00
	00		 jmp	 DWORD PTR __imp_??1?$basic_string@DU?$char_traits@D@std@@V?$allocator@D@2@@std@@QAE@XZ
$L203678:
  00009	8b 4d f0	 mov	 ecx, DWORD PTR _this$[ebp]
  0000c	83 c1 1c	 add	 ecx, 28			; 0000001cH
  0000f	ff 25 00 00 00
	00		 jmp	 DWORD PTR __imp_??1?$basic_string@DU?$char_traits@D@std@@V?$allocator@D@2@@std@@QAE@XZ
$L203679:
  00015	8b 4d f0	 mov	 ecx, DWORD PTR _this$[ebp]
  00018	83 c1 38	 add	 ecx, 56			; 00000038H
  0001b	ff 25 00 00 00
	00		 jmp	 DWORD PTR __imp_??1?$basic_string@DU?$char_traits@D@std@@V?$allocator@D@2@@std@@QAE@XZ
$L203680:
  00021	8b 4d f0	 mov	 ecx, DWORD PTR _this$[ebp]
  00024	83 c1 54	 add	 ecx, 84			; 00000054H
  00027	ff 25 00 00 00
	00		 jmp	 DWORD PTR __imp_??1?$basic_string@DU?$char_traits@D@std@@V?$allocator@D@2@@std@@QAE@XZ
__ehhandler$??1OneLocalGame@@QAE@XZ:
  0002d	b8 00 00 00 00	 mov	 eax, OFFSET FLAT:$T203683
  00032	e9 00 00 00 00	 jmp	 ___CxxFrameHandler
text$x	ENDS
??1OneLocalGame@@QAE@XZ ENDP				; OneLocalGame::~OneLocalGame
;	COMDAT xdata$x
xdata$x	SEGMENT
$T203697 DD	0ffffffffH
	DD	FLAT:$L203690
	DD	00H
	DD	FLAT:$L203691
	DD	01H
	DD	FLAT:$L203692
$T203695 DD	019930520H
	DD	03H
	DD	FLAT:$T203697
	DD	2 DUP(00H)
	DD	2 DUP(00H)
; Function compile flags: /Odt
xdata$x	ENDS
;	COMDAT ??0CallJSParam@@QAE@XZ
_TEXT	SEGMENT
_this$ = -16						; size = 4
__$EHRec$ = -12						; size = 12
??0CallJSParam@@QAE@XZ PROC NEAR			; CallJSParam::CallJSParam, COMDAT
; _this$ = ecx
  00000	55		 push	 ebp
  00001	8b ec		 mov	 ebp, esp
  00003	6a ff		 push	 -1
  00005	68 00 00 00 00	 push	 __ehhandler$??0CallJSParam@@QAE@XZ
  0000a	64 a1 00 00 00
	00		 mov	 eax, DWORD PTR fs:__except_list
  00010	50		 push	 eax
  00011	64 89 25 00 00
	00 00		 mov	 DWORD PTR fs:__except_list, esp
  00018	51		 push	 ecx
  00019	89 4d f0	 mov	 DWORD PTR _this$[ebp], ecx
  0001c	8b 4d f0	 mov	 ecx, DWORD PTR _this$[ebp]
  0001f	83 c1 04	 add	 ecx, 4
  00022	ff 15 00 00 00
	00		 call	 DWORD PTR __imp_??0?$basic_string@DU?$char_traits@D@std@@V?$allocator@D@2@@std@@QAE@XZ
  00028	c7 45 fc 00 00
	00 00		 mov	 DWORD PTR __$EHRec$[ebp+8], 0
  0002f	8b 4d f0	 mov	 ecx, DWORD PTR _this$[ebp]
  00032	83 c1 20	 add	 ecx, 32			; 00000020H
  00035	ff 15 00 00 00
	00		 call	 DWORD PTR __imp_??0?$basic_string@DU?$char_traits@D@std@@V?$allocator@D@2@@std@@QAE@XZ
  0003b	c6 45 fc 01	 mov	 BYTE PTR __$EHRec$[ebp+8], 1
  0003f	8b 4d f0	 mov	 ecx, DWORD PTR _this$[ebp]
  00042	83 c1 3c	 add	 ecx, 60			; 0000003cH
  00045	ff 15 00 00 00
	00		 call	 DWORD PTR __imp_??0?$basic_string@DU?$char_traits@D@std@@V?$allocator@D@2@@std@@QAE@XZ
  0004b	c6 45 fc 02	 mov	 BYTE PTR __$EHRec$[ebp+8], 2
  0004f	8b 4d f0	 mov	 ecx, DWORD PTR _this$[ebp]
  00052	83 c1 58	 add	 ecx, 88			; 00000058H
  00055	ff 15 00 00 00
	00		 call	 DWORD PTR __imp_??0?$basic_string@DU?$char_traits@D@std@@V?$allocator@D@2@@std@@QAE@XZ
  0005b	c7 45 fc ff ff
	ff ff		 mov	 DWORD PTR __$EHRec$[ebp+8], -1
  00062	8b 45 f0	 mov	 eax, DWORD PTR _this$[ebp]
  00065	8b 4d f4	 mov	 ecx, DWORD PTR __$EHRec$[ebp]
  00068	64 89 0d 00 00
	00 00		 mov	 DWORD PTR fs:__except_list, ecx
  0006f	8b e5		 mov	 esp, ebp
  00071	5d		 pop	 ebp
  00072	c3		 ret	 0
_TEXT	ENDS
;	COMDAT text$x
text$x	SEGMENT
$L203690:
  00000	8b 4d f0	 mov	 ecx, DWORD PTR _this$[ebp]
  00003	83 c1 04	 add	 ecx, 4
  00006	ff 25 00 00 00
	00		 jmp	 DWORD PTR __imp_??1?$basic_string@DU?$char_traits@D@std@@V?$allocator@D@2@@std@@QAE@XZ
$L203691:
  0000c	8b 4d f0	 mov	 ecx, DWORD PTR _this$[ebp]
  0000f	83 c1 20	 add	 ecx, 32			; 00000020H
  00012	ff 25 00 00 00
	00		 jmp	 DWORD PTR __imp_??1?$basic_string@DU?$char_traits@D@std@@V?$allocator@D@2@@std@@QAE@XZ
$L203692:
  00018	8b 4d f0	 mov	 ecx, DWORD PTR _this$[ebp]
  0001b	83 c1 3c	 add	 ecx, 60			; 0000003cH
  0001e	ff 25 00 00 00
	00		 jmp	 DWORD PTR __imp_??1?$basic_string@DU?$char_traits@D@std@@V?$allocator@D@2@@std@@QAE@XZ
__ehhandler$??0CallJSParam@@QAE@XZ:
  00024	b8 00 00 00 00	 mov	 eax, OFFSET FLAT:$T203695
  00029	e9 00 00 00 00	 jmp	 ___CxxFrameHandler
text$x	ENDS
??0CallJSParam@@QAE@XZ ENDP				; CallJSParam::CallJSParam
PUBLIC	??1CallJSParam@@QAE@XZ				; CallJSParam::~CallJSParam
; Function compile flags: /Odt
;	COMDAT ??_GCallJSParam@@QAEPAXI@Z
_TEXT	SEGMENT
_this$ = -4						; size = 4
___flags$ = 8						; size = 4
??_GCallJSParam@@QAEPAXI@Z PROC NEAR			; CallJSParam::`scalar deleting destructor', COMDAT
; _this$ = ecx
  00000	55		 push	 ebp
  00001	8b ec		 mov	 ebp, esp
  00003	51		 push	 ecx
  00004	89 4d fc	 mov	 DWORD PTR _this$[ebp], ecx
  00007	8b 4d fc	 mov	 ecx, DWORD PTR _this$[ebp]
  0000a	e8 00 00 00 00	 call	 ??1CallJSParam@@QAE@XZ
  0000f	8b 45 08	 mov	 eax, DWORD PTR ___flags$[ebp]
  00012	83 e0 01	 and	 eax, 1
  00015	74 0c		 je	 SHORT $L202157
  00017	8b 4d fc	 mov	 ecx, DWORD PTR _this$[ebp]
  0001a	51		 push	 ecx
  0001b	e8 00 00 00 00	 call	 ??3@YAXPAX@Z		; operator delete
  00020	83 c4 04	 add	 esp, 4
$L202157:
  00023	8b 45 fc	 mov	 eax, DWORD PTR _this$[ebp]
  00026	8b e5		 mov	 esp, ebp
  00028	5d		 pop	 ebp
  00029	c2 04 00	 ret	 4
??_GCallJSParam@@QAEPAXI@Z ENDP				; CallJSParam::`scalar deleting destructor'
_TEXT	ENDS
;	COMDAT xdata$x
xdata$x	SEGMENT
$T203711 DD	0ffffffffH
	DD	FLAT:$L203704
	DD	00H
	DD	FLAT:$L203705
	DD	01H
	DD	FLAT:$L203706
$T203709 DD	019930520H
	DD	03H
	DD	FLAT:$T203711
	DD	2 DUP(00H)
	DD	2 DUP(00H)
; Function compile flags: /Odt
xdata$x	ENDS
;	COMDAT ??1CallJSParam@@QAE@XZ
_TEXT	SEGMENT
_this$ = -16						; size = 4
__$EHRec$ = -12						; size = 12
??1CallJSParam@@QAE@XZ PROC NEAR			; CallJSParam::~CallJSParam, COMDAT
; _this$ = ecx
  00000	55		 push	 ebp
  00001	8b ec		 mov	 ebp, esp
  00003	6a ff		 push	 -1
  00005	68 00 00 00 00	 push	 __ehhandler$??1CallJSParam@@QAE@XZ
  0000a	64 a1 00 00 00
	00		 mov	 eax, DWORD PTR fs:__except_list
  00010	50		 push	 eax
  00011	64 89 25 00 00
	00 00		 mov	 DWORD PTR fs:__except_list, esp
  00018	51		 push	 ecx
  00019	89 4d f0	 mov	 DWORD PTR _this$[ebp], ecx
  0001c	c7 45 fc 02 00
	00 00		 mov	 DWORD PTR __$EHRec$[ebp+8], 2
  00023	8b 4d f0	 mov	 ecx, DWORD PTR _this$[ebp]
  00026	83 c1 58	 add	 ecx, 88			; 00000058H
  00029	ff 15 00 00 00
	00		 call	 DWORD PTR __imp_??1?$basic_string@DU?$char_traits@D@std@@V?$allocator@D@2@@std@@QAE@XZ
  0002f	c6 45 fc 01	 mov	 BYTE PTR __$EHRec$[ebp+8], 1
  00033	8b 4d f0	 mov	 ecx, DWORD PTR _this$[ebp]
  00036	83 c1 3c	 add	 ecx, 60			; 0000003cH
  00039	ff 15 00 00 00
	00		 call	 DWORD PTR __imp_??1?$basic_string@DU?$char_traits@D@std@@V?$allocator@D@2@@std@@QAE@XZ
  0003f	c6 45 fc 00	 mov	 BYTE PTR __$EHRec$[ebp+8], 0
  00043	8b 4d f0	 mov	 ecx, DWORD PTR _this$[ebp]
  00046	83 c1 20	 add	 ecx, 32			; 00000020H
  00049	ff 15 00 00 00
	00		 call	 DWORD PTR __imp_??1?$basic_string@DU?$char_traits@D@std@@V?$allocator@D@2@@std@@QAE@XZ
  0004f	c7 45 fc ff ff
	ff ff		 mov	 DWORD PTR __$EHRec$[ebp+8], -1
  00056	8b 4d f0	 mov	 ecx, DWORD PTR _this$[ebp]
  00059	83 c1 04	 add	 ecx, 4
  0005c	ff 15 00 00 00
	00		 call	 DWORD PTR __imp_??1?$basic_string@DU?$char_traits@D@std@@V?$allocator@D@2@@std@@QAE@XZ
  00062	8b 4d f4	 mov	 ecx, DWORD PTR __$EHRec$[ebp]
  00065	64 89 0d 00 00
	00 00		 mov	 DWORD PTR fs:__except_list, ecx
  0006c	8b e5		 mov	 esp, ebp
  0006e	5d		 pop	 ebp
  0006f	c3		 ret	 0
_TEXT	ENDS
;	COMDAT text$x
text$x	SEGMENT
$L203704:
  00000	8b 4d f0	 mov	 ecx, DWORD PTR _this$[ebp]
  00003	83 c1 04	 add	 ecx, 4
  00006	ff 25 00 00 00
	00		 jmp	 DWORD PTR __imp_??1?$basic_string@DU?$char_traits@D@std@@V?$allocator@D@2@@std@@QAE@XZ
$L203705:
  0000c	8b 4d f0	 mov	 ecx, DWORD PTR _this$[ebp]
  0000f	83 c1 20	 add	 ecx, 32			; 00000020H
  00012	ff 25 00 00 00
	00		 jmp	 DWORD PTR __imp_??1?$basic_string@DU?$char_traits@D@std@@V?$allocator@D@2@@std@@QAE@XZ
$L203706:
  00018	8b 4d f0	 mov	 ecx, DWORD PTR _this$[ebp]
  0001b	83 c1 3c	 add	 ecx, 60			; 0000003cH
  0001e	ff 25 00 00 00
	00		 jmp	 DWORD PTR __imp_??1?$basic_string@DU?$char_traits@D@std@@V?$allocator@D@2@@std@@QAE@XZ
__ehhandler$??1CallJSParam@@QAE@XZ:
  00024	b8 00 00 00 00	 mov	 eax, OFFSET FLAT:$T203709
  00029	e9 00 00 00 00	 jmp	 ___CxxFrameHandler
text$x	ENDS
??1CallJSParam@@QAE@XZ ENDP				; CallJSParam::~CallJSParam
EXTRN	__imp_??B?$CSimpleStringT@D$00@ATL@@QBEPBDXZ:NEAR
EXTRN	__imp_?Compare@?$CStringT@DV?$StrTraitMFC_DLL@DV?$ChTraitsCRT@D@ATL@@@@@ATL@@QBEHPBD@Z:NEAR
xdata$x	SEGMENT
$T203734 DD	0ffffffffH
	DD	FLAT:$L203727
	DD	00H
	DD	FLAT:$L203719
	DD	01H
	DD	FLAT:$L203720
	DD	02H
	DD	FLAT:$L203721
	DD	03H
	DD	FLAT:$L203722
	DD	04H
	DD	FLAT:$L203723
	DD	04H
	DD	FLAT:$L203724
	DD	06H
	DD	FLAT:$L203725
	DD	07H
	DD	FLAT:$L203726
$T203731 DD	019930520H
	DD	09H
	DD	FLAT:$T203734
	DD	2 DUP(00H)
	DD	2 DUP(00H)
; Function compile flags: /Odt
; File d:\boxgit\playbox\playbox\dev\prj\playbox\src\module\webinteract\webmanager.cpp
xdata$x	ENDS
_TEXT	SEGMENT
tv167 = -96						; size = 4
tv95 = -92						; size = 4
tv161 = -88						; size = 4
tv75 = -84						; size = 4
_this$ = -80						; size = 4
$T203728 = -76						; size = 4
$T203718 = -72						; size = 4
$T203717 = -68						; size = 4
_strLeft$202176 = -64					; size = 4
_strRight$202177 = -60					; size = 4
_str$ = -56						; size = 4
_strRes$ = -52						; size = 28
__$ArrayPad$ = -24					; size = 4
_curPos$ = -20						; size = 4
_strOneItem$ = -16					; size = 4
__$EHRec$ = -12						; size = 12
__$ReturnAddr$ = 4					; size = 4
___$ReturnUdt$ = 8					; size = 4
_strContent$ = 12					; size = 4
_strKey$ = 16						; size = 28
?GetValue@CWebManager@@QAE?AV?$basic_string@DU?$char_traits@D@std@@V?$allocator@D@2@@std@@AAV23@V23@@Z PROC NEAR ; CWebManager::GetValue
; _this$ = ecx

; 254  : {

  01650	55		 push	 ebp
  01651	8b ec		 mov	 ebp, esp
  01653	6a ff		 push	 -1
  01655	68 00 00 00 00	 push	 __ehhandler$?GetValue@CWebManager@@QAE?AV?$basic_string@DU?$char_traits@D@std@@V?$allocator@D@2@@std@@AAV23@V23@@Z
  0165a	64 a1 00 00 00
	00		 mov	 eax, DWORD PTR fs:__except_list
  01660	50		 push	 eax
  01661	64 89 25 00 00
	00 00		 mov	 DWORD PTR fs:__except_list, esp
  01668	83 ec 54	 sub	 esp, 84			; 00000054H
  0166b	a1 00 00 00 00	 mov	 eax, DWORD PTR ___security_cookie
  01670	89 45 e8	 mov	 DWORD PTR __$ArrayPad$[ebp], eax
  01673	89 4d b0	 mov	 DWORD PTR _this$[ebp], ecx
  01676	c7 45 b4 00 00
	00 00		 mov	 DWORD PTR $T203728[ebp], 0
  0167d	c7 45 fc 01 00
	00 00		 mov	 DWORD PTR __$EHRec$[ebp+8], 1

; 255  : 	string strRes;

  01684	8d 4d cc	 lea	 ecx, DWORD PTR _strRes$[ebp]
  01687	ff 15 00 00 00
	00		 call	 DWORD PTR __imp_??0?$basic_string@DU?$char_traits@D@std@@V?$allocator@D@2@@std@@QAE@XZ
  0168d	c6 45 fc 02	 mov	 BYTE PTR __$EHRec$[ebp+8], 2

; 256  : 	CString str(strContent.c_str());

  01691	8b 4d 0c	 mov	 ecx, DWORD PTR _strContent$[ebp]
  01694	ff 15 00 00 00
	00		 call	 DWORD PTR __imp_?c_str@?$basic_string@DU?$char_traits@D@std@@V?$allocator@D@2@@std@@QBEPBDXZ
  0169a	50		 push	 eax
  0169b	8d 4d c8	 lea	 ecx, DWORD PTR _str$[ebp]
  0169e	ff 15 00 00 00
	00		 call	 DWORD PTR __imp_??0?$CStringT@DV?$StrTraitMFC_DLL@DV?$ChTraitsCRT@D@ATL@@@@@ATL@@QAE@PBD@Z
  016a4	c6 45 fc 03	 mov	 BYTE PTR __$EHRec$[ebp+8], 3

; 257  : 	CString strOneItem;

  016a8	8d 4d f0	 lea	 ecx, DWORD PTR _strOneItem$[ebp]
  016ab	ff 15 00 00 00
	00		 call	 DWORD PTR __imp_??0?$CStringT@DV?$StrTraitMFC_DLL@DV?$ChTraitsCRT@D@ATL@@@@@ATL@@QAE@XZ
  016b1	c6 45 fc 04	 mov	 BYTE PTR __$EHRec$[ebp+8], 4

; 258  : 	int curPos = 0;

  016b5	c7 45 ec 00 00
	00 00		 mov	 DWORD PTR _curPos$[ebp], 0

; 259  : 	strOneItem= str.Tokenize("\n",curPos);

  016bc	8d 45 ec	 lea	 eax, DWORD PTR _curPos$[ebp]
  016bf	50		 push	 eax
  016c0	68 00 00 00 00	 push	 OFFSET FLAT:$SG202171
  016c5	8d 4d bc	 lea	 ecx, DWORD PTR $T203717[ebp]
  016c8	51		 push	 ecx
  016c9	8d 4d c8	 lea	 ecx, DWORD PTR _str$[ebp]
  016cc	ff 15 00 00 00
	00		 call	 DWORD PTR __imp_?Tokenize@?$CStringT@DV?$StrTraitMFC_DLL@DV?$ChTraitsCRT@D@ATL@@@@@ATL@@QBE?AV12@PBDAAH@Z
  016d2	89 45 ac	 mov	 DWORD PTR tv75[ebp], eax
  016d5	8b 55 ac	 mov	 edx, DWORD PTR tv75[ebp]
  016d8	89 55 a8	 mov	 DWORD PTR tv161[ebp], edx
  016db	c6 45 fc 05	 mov	 BYTE PTR __$EHRec$[ebp+8], 5
  016df	8b 45 a8	 mov	 eax, DWORD PTR tv161[ebp]
  016e2	50		 push	 eax
  016e3	8d 4d f0	 lea	 ecx, DWORD PTR _strOneItem$[ebp]
  016e6	ff 15 00 00 00
	00		 call	 DWORD PTR __imp_??4?$CStringT@DV?$StrTraitMFC_DLL@DV?$ChTraitsCRT@D@ATL@@@@@ATL@@QAEAAV01@ABV01@@Z
  016ec	c6 45 fc 04	 mov	 BYTE PTR __$EHRec$[ebp+8], 4
  016f0	8d 4d bc	 lea	 ecx, DWORD PTR $T203717[ebp]
  016f3	ff 15 00 00 00
	00		 call	 DWORD PTR __imp_??1?$CStringT@DV?$StrTraitMFC_DLL@DV?$ChTraitsCRT@D@ATL@@@@@ATL@@QAE@XZ
$L202173:

; 260  : 	while(strOneItem != "")

  016f9	68 00 00 00 00	 push	 OFFSET FLAT:$SG202175
  016fe	8d 4d f0	 lea	 ecx, DWORD PTR _strOneItem$[ebp]
  01701	51		 push	 ecx
  01702	e8 00 00 00 00	 call	 ??9ATL@@YA_NABV?$CStringT@DV?$StrTraitMFC_DLL@DV?$ChTraitsCRT@D@ATL@@@@@0@PBD@Z ; ATL::operator!=
  01707	83 c4 08	 add	 esp, 8
  0170a	0f b6 d0	 movzx	 edx, al
  0170d	85 d2		 test	 edx, edx
  0170f	0f 84 d0 00 00
	00		 je	 $L202174

; 261  : 	{		
; 262  : 		CString strLeft,strRight;

  01715	8d 4d c0	 lea	 ecx, DWORD PTR _strLeft$202176[ebp]
  01718	ff 15 00 00 00
	00		 call	 DWORD PTR __imp_??0?$CStringT@DV?$StrTraitMFC_DLL@DV?$ChTraitsCRT@D@ATL@@@@@ATL@@QAE@XZ
  0171e	c6 45 fc 06	 mov	 BYTE PTR __$EHRec$[ebp+8], 6
  01722	8d 4d c4	 lea	 ecx, DWORD PTR _strRight$202177[ebp]
  01725	ff 15 00 00 00
	00		 call	 DWORD PTR __imp_??0?$CStringT@DV?$StrTraitMFC_DLL@DV?$ChTraitsCRT@D@ATL@@@@@ATL@@QAE@XZ
  0172b	c6 45 fc 07	 mov	 BYTE PTR __$EHRec$[ebp+8], 7

; 263  : 		_string_help( strOneItem,strLeft,strRight );

  0172f	8d 45 c4	 lea	 eax, DWORD PTR _strRight$202177[ebp]
  01732	50		 push	 eax
  01733	8d 4d c0	 lea	 ecx, DWORD PTR _strLeft$202176[ebp]
  01736	51		 push	 ecx
  01737	8d 55 f0	 lea	 edx, DWORD PTR _strOneItem$[ebp]
  0173a	52		 push	 edx
  0173b	8b 4d b0	 mov	 ecx, DWORD PTR _this$[ebp]
  0173e	e8 00 00 00 00	 call	 ?_string_help@CWebManager@@AAEXABV?$CStringT@DV?$StrTraitMFC_DLL@DV?$ChTraitsCRT@D@ATL@@@@@ATL@@AAV23@1@Z ; CWebManager::_string_help

; 264  : 		if( strLeft.Compare(strKey.c_str()) == 0 )

  01743	8d 4d 10	 lea	 ecx, DWORD PTR _strKey$[ebp]
  01746	ff 15 00 00 00
	00		 call	 DWORD PTR __imp_?c_str@?$basic_string@DU?$char_traits@D@std@@V?$allocator@D@2@@std@@QBEPBDXZ
  0174c	50		 push	 eax
  0174d	8d 4d c0	 lea	 ecx, DWORD PTR _strLeft$202176[ebp]
  01750	ff 15 00 00 00
	00		 call	 DWORD PTR __imp_?Compare@?$CStringT@DV?$StrTraitMFC_DLL@DV?$ChTraitsCRT@D@ATL@@@@@ATL@@QBEHPBD@Z
  01756	85 c0		 test	 eax, eax
  01758	75 2f		 jne	 SHORT $L202178

; 265  : 		{
; 266  : 			strRes = strRight;

  0175a	8d 4d c4	 lea	 ecx, DWORD PTR _strRight$202177[ebp]
  0175d	ff 15 00 00 00
	00		 call	 DWORD PTR __imp_??B?$CSimpleStringT@D$00@ATL@@QBEPBDXZ
  01763	50		 push	 eax
  01764	8d 4d cc	 lea	 ecx, DWORD PTR _strRes$[ebp]
  01767	ff 15 00 00 00
	00		 call	 DWORD PTR __imp_??4?$basic_string@DU?$char_traits@D@std@@V?$allocator@D@2@@std@@QAEAAV01@PBD@Z

; 267  : 			break;

  0176d	c6 45 fc 06	 mov	 BYTE PTR __$EHRec$[ebp+8], 6
  01771	8d 4d c4	 lea	 ecx, DWORD PTR _strRight$202177[ebp]
  01774	ff 15 00 00 00
	00		 call	 DWORD PTR __imp_??1?$CStringT@DV?$StrTraitMFC_DLL@DV?$ChTraitsCRT@D@ATL@@@@@ATL@@QAE@XZ
  0177a	c6 45 fc 04	 mov	 BYTE PTR __$EHRec$[ebp+8], 4
  0177e	8d 4d c0	 lea	 ecx, DWORD PTR _strLeft$202176[ebp]
  01781	ff 15 00 00 00
	00		 call	 DWORD PTR __imp_??1?$CStringT@DV?$StrTraitMFC_DLL@DV?$ChTraitsCRT@D@ATL@@@@@ATL@@QAE@XZ
  01787	eb 5c		 jmp	 SHORT $L202174
$L202178:

; 268  : 		}
; 269  : 		strOneItem = str.Tokenize("\n", curPos);

  01789	8d 45 ec	 lea	 eax, DWORD PTR _curPos$[ebp]
  0178c	50		 push	 eax
  0178d	68 00 00 00 00	 push	 OFFSET FLAT:$SG202180
  01792	8d 4d b8	 lea	 ecx, DWORD PTR $T203718[ebp]
  01795	51		 push	 ecx
  01796	8d 4d c8	 lea	 ecx, DWORD PTR _str$[ebp]
  01799	ff 15 00 00 00
	00		 call	 DWORD PTR __imp_?Tokenize@?$CStringT@DV?$StrTraitMFC_DLL@DV?$ChTraitsCRT@D@ATL@@@@@ATL@@QBE?AV12@PBDAAH@Z
  0179f	89 45 a4	 mov	 DWORD PTR tv95[ebp], eax
  017a2	8b 55 a4	 mov	 edx, DWORD PTR tv95[ebp]
  017a5	89 55 a0	 mov	 DWORD PTR tv167[ebp], edx
  017a8	c6 45 fc 08	 mov	 BYTE PTR __$EHRec$[ebp+8], 8
  017ac	8b 45 a0	 mov	 eax, DWORD PTR tv167[ebp]
  017af	50		 push	 eax
  017b0	8d 4d f0	 lea	 ecx, DWORD PTR _strOneItem$[ebp]
  017b3	ff 15 00 00 00
	00		 call	 DWORD PTR __imp_??4?$CStringT@DV?$StrTraitMFC_DLL@DV?$ChTraitsCRT@D@ATL@@@@@ATL@@QAEAAV01@ABV01@@Z
  017b9	c6 45 fc 07	 mov	 BYTE PTR __$EHRec$[ebp+8], 7
  017bd	8d 4d b8	 lea	 ecx, DWORD PTR $T203718[ebp]
  017c0	ff 15 00 00 00
	00		 call	 DWORD PTR __imp_??1?$CStringT@DV?$StrTraitMFC_DLL@DV?$ChTraitsCRT@D@ATL@@@@@ATL@@QAE@XZ

; 270  : 	};

  017c6	c6 45 fc 06	 mov	 BYTE PTR __$EHRec$[ebp+8], 6
  017ca	8d 4d c4	 lea	 ecx, DWORD PTR _strRight$202177[ebp]
  017cd	ff 15 00 00 00
	00		 call	 DWORD PTR __imp_??1?$CStringT@DV?$StrTraitMFC_DLL@DV?$ChTraitsCRT@D@ATL@@@@@ATL@@QAE@XZ
  017d3	c6 45 fc 04	 mov	 BYTE PTR __$EHRec$[ebp+8], 4
  017d7	8d 4d c0	 lea	 ecx, DWORD PTR _strLeft$202176[ebp]
  017da	ff 15 00 00 00
	00		 call	 DWORD PTR __imp_??1?$CStringT@DV?$StrTraitMFC_DLL@DV?$ChTraitsCRT@D@ATL@@@@@ATL@@QAE@XZ
  017e0	e9 14 ff ff ff	 jmp	 $L202173
$L202174:

; 271  : 	return strRes;

  017e5	8d 4d cc	 lea	 ecx, DWORD PTR _strRes$[ebp]
  017e8	51		 push	 ecx
  017e9	8b 4d 08	 mov	 ecx, DWORD PTR ___$ReturnUdt$[ebp]
  017ec	ff 15 00 00 00
	00		 call	 DWORD PTR __imp_??0?$basic_string@DU?$char_traits@D@std@@V?$allocator@D@2@@std@@QAE@ABV01@@Z
  017f2	8b 55 b4	 mov	 edx, DWORD PTR $T203728[ebp]
  017f5	83 ca 01	 or	 edx, 1
  017f8	89 55 b4	 mov	 DWORD PTR $T203728[ebp], edx
  017fb	c6 45 fc 03	 mov	 BYTE PTR __$EHRec$[ebp+8], 3
  017ff	8d 4d f0	 lea	 ecx, DWORD PTR _strOneItem$[ebp]
  01802	ff 15 00 00 00
	00		 call	 DWORD PTR __imp_??1?$CStringT@DV?$StrTraitMFC_DLL@DV?$ChTraitsCRT@D@ATL@@@@@ATL@@QAE@XZ
  01808	c6 45 fc 02	 mov	 BYTE PTR __$EHRec$[ebp+8], 2
  0180c	8d 4d c8	 lea	 ecx, DWORD PTR _str$[ebp]
  0180f	ff 15 00 00 00
	00		 call	 DWORD PTR __imp_??1?$CStringT@DV?$StrTraitMFC_DLL@DV?$ChTraitsCRT@D@ATL@@@@@ATL@@QAE@XZ
  01815	c6 45 fc 01	 mov	 BYTE PTR __$EHRec$[ebp+8], 1
  01819	8d 4d cc	 lea	 ecx, DWORD PTR _strRes$[ebp]
  0181c	ff 15 00 00 00
	00		 call	 DWORD PTR __imp_??1?$basic_string@DU?$char_traits@D@std@@V?$allocator@D@2@@std@@QAE@XZ
  01822	c6 45 fc 00	 mov	 BYTE PTR __$EHRec$[ebp+8], 0
  01826	8d 4d 10	 lea	 ecx, DWORD PTR _strKey$[ebp]
  01829	ff 15 00 00 00
	00		 call	 DWORD PTR __imp_??1?$basic_string@DU?$char_traits@D@std@@V?$allocator@D@2@@std@@QAE@XZ
  0182f	8b 45 08	 mov	 eax, DWORD PTR ___$ReturnUdt$[ebp]

; 272  : }

  01832	8b 4d f4	 mov	 ecx, DWORD PTR __$EHRec$[ebp]
  01835	64 89 0d 00 00
	00 00		 mov	 DWORD PTR fs:__except_list, ecx
  0183c	8b 4d e8	 mov	 ecx, DWORD PTR __$ArrayPad$[ebp]
  0183f	e8 00 00 00 00	 call	 @__security_check_cookie@4
  01844	8b e5		 mov	 esp, ebp
  01846	5d		 pop	 ebp
  01847	c2 24 00	 ret	 36			; 00000024H
_TEXT	ENDS
text$x	SEGMENT
$L203719:
  002ef	8d 4d 10	 lea	 ecx, DWORD PTR _strKey$[ebp]
  002f2	ff 25 00 00 00
	00		 jmp	 DWORD PTR __imp_??1?$basic_string@DU?$char_traits@D@std@@V?$allocator@D@2@@std@@QAE@XZ
$L203720:
  002f8	8d 4d cc	 lea	 ecx, DWORD PTR _strRes$[ebp]
  002fb	ff 25 00 00 00
	00		 jmp	 DWORD PTR __imp_??1?$basic_string@DU?$char_traits@D@std@@V?$allocator@D@2@@std@@QAE@XZ
$L203721:
  00301	8d 4d c8	 lea	 ecx, DWORD PTR _str$[ebp]
  00304	ff 25 00 00 00
	00		 jmp	 DWORD PTR __imp_??1?$CStringT@DV?$StrTraitMFC_DLL@DV?$ChTraitsCRT@D@ATL@@@@@ATL@@QAE@XZ
$L203722:
  0030a	8d 4d f0	 lea	 ecx, DWORD PTR _strOneItem$[ebp]
  0030d	ff 25 00 00 00
	00		 jmp	 DWORD PTR __imp_??1?$CStringT@DV?$StrTraitMFC_DLL@DV?$ChTraitsCRT@D@ATL@@@@@ATL@@QAE@XZ
$L203723:
  00313	8d 4d bc	 lea	 ecx, DWORD PTR $T203717[ebp]
  00316	ff 25 00 00 00
	00		 jmp	 DWORD PTR __imp_??1?$CStringT@DV?$StrTraitMFC_DLL@DV?$ChTraitsCRT@D@ATL@@@@@ATL@@QAE@XZ
$L203724:
  0031c	8d 4d c0	 lea	 ecx, DWORD PTR _strLeft$202176[ebp]
  0031f	ff 25 00 00 00
	00		 jmp	 DWORD PTR __imp_??1?$CStringT@DV?$StrTraitMFC_DLL@DV?$ChTraitsCRT@D@ATL@@@@@ATL@@QAE@XZ
$L203725:
  00325	8d 4d c4	 lea	 ecx, DWORD PTR _strRight$202177[ebp]
  00328	ff 25 00 00 00
	00		 jmp	 DWORD PTR __imp_??1?$CStringT@DV?$StrTraitMFC_DLL@DV?$ChTraitsCRT@D@ATL@@@@@ATL@@QAE@XZ
$L203726:
  0032e	8d 4d b8	 lea	 ecx, DWORD PTR $T203718[ebp]
  00331	ff 25 00 00 00
	00		 jmp	 DWORD PTR __imp_??1?$CStringT@DV?$StrTraitMFC_DLL@DV?$ChTraitsCRT@D@ATL@@@@@ATL@@QAE@XZ
$L203727:
  00337	8b 45 b4	 mov	 eax, DWORD PTR $T203728[ebp]
  0033a	83 e0 01	 and	 eax, 1
  0033d	0f 84 0d 00 00
	00		 je	 $L203729
  00343	83 65 b4 fe	 and	 DWORD PTR $T203728[ebp], -2 ; fffffffeH
  00347	8b 4d 08	 mov	 ecx, DWORD PTR ___$ReturnUdt$[ebp]
  0034a	ff 25 00 00 00
	00		 jmp	 DWORD PTR __imp_??1?$basic_string@DU?$char_traits@D@std@@V?$allocator@D@2@@std@@QAE@XZ
$L203729:
  00350	c3		 ret	 0
__ehhandler$?GetValue@CWebManager@@QAE?AV?$basic_string@DU?$char_traits@D@std@@V?$allocator@D@2@@std@@AAV23@V23@@Z:
  00351	b8 00 00 00 00	 mov	 eax, OFFSET FLAT:$T203731
  00356	e9 00 00 00 00	 jmp	 ___CxxFrameHandler
text$x	ENDS
?GetValue@CWebManager@@QAE?AV?$basic_string@DU?$char_traits@D@std@@V?$allocator@D@2@@std@@AAV23@V23@@Z ENDP ; CWebManager::GetValue
PUBLIC	?CallWebFromGBox@CWebManager@@QAEXPAVCHtmlView@@PAUCallJSParam@@@Z ; CWebManager::CallWebFromGBox
EXTRN	?SetDocument@CWebPage@@QAE_NPAUIDispatch@@@Z:NEAR ; CWebPage::SetDocument
EXTRN	?CallJScript@CWebPage@@QAE_NV?$CStringT@DV?$StrTraitMFC_DLL@DV?$ChTraitsCRT@D@ATL@@@@@ATL@@PAVCComVariant@3@@Z:NEAR ; CWebPage::CallJScript
EXTRN	?CallJScript@CWebPage@@QAE_NV?$CStringT@DV?$StrTraitMFC_DLL@DV?$ChTraitsCRT@D@ATL@@@@@ATL@@0PAVCComVariant@3@@Z:NEAR ; CWebPage::CallJScript
EXTRN	?CallJScript@CWebPage@@QAE_NV?$CStringT@DV?$StrTraitMFC_DLL@DV?$ChTraitsCRT@D@ATL@@@@@ATL@@00PAVCComVariant@3@@Z:NEAR ; CWebPage::CallJScript
EXTRN	?CallJScript@CWebPage@@QAE_NV?$CStringT@DV?$StrTraitMFC_DLL@DV?$ChTraitsCRT@D@ATL@@@@@ATL@@000PAVCComVariant@3@@Z:NEAR ; CWebPage::CallJScript
EXTRN	?GetHtmlDocument@CHtmlView@@QBEPAUIDispatch@@XZ:NEAR ; CHtmlView::GetHtmlDocument
xdata$x	SEGMENT
$T203760 DD	0ffffffffH
	DD	FLAT:$L203747
	DD	0ffffffffH
	DD	FLAT:$L203749
	DD	01H
	DD	FLAT:$L203750
	DD	0ffffffffH
	DD	FLAT:$L203752
	DD	03H
	DD	FLAT:$L203753
	DD	04H
	DD	FLAT:$L203754
$T203757 DD	019930520H
	DD	06H
	DD	FLAT:$T203760
	DD	2 DUP(00H)
	DD	2 DUP(00H)
; Function compile flags: /Odt
xdata$x	ENDS
_TEXT	SEGMENT
tv306 = -124						; size = 4
tv303 = -120						; size = 4
tv312 = -116						; size = 4
tv300 = -112						; size = 4
tv311 = -108						; size = 4
tv297 = -104						; size = 4
tv310 = -100						; size = 4
tv294 = -96						; size = 4
tv291 = -92						; size = 4
tv309 = -88						; size = 4
tv288 = -84						; size = 4
tv308 = -80						; size = 4
tv285 = -76						; size = 4
tv282 = -72						; size = 4
tv307 = -68						; size = 4
tv279 = -64						; size = 4
tv68 = -60						; size = 4
_this$ = -56						; size = 4
$T203745 = -52						; size = 4
$T203744 = -48						; size = 4
$T203743 = -44						; size = 4
$T203742 = -40						; size = 4
$T203741 = -36						; size = 4
$T203740 = -32						; size = 4
$T203739 = -28						; size = 4
$T203738 = -24						; size = 4
$T203737 = -20						; size = 4
$T203736 = -16						; size = 4
__$EHRec$ = -12						; size = 12
_pHTMLView$ = 8						; size = 4
_pParam$ = 12						; size = 4
?CallWebFromGBox@CWebManager@@QAEXPAVCHtmlView@@PAUCallJSParam@@@Z PROC NEAR ; CWebManager::CallWebFromGBox
; _this$ = ecx

; 275  : {

  01850	55		 push	 ebp
  01851	8b ec		 mov	 ebp, esp
  01853	6a ff		 push	 -1
  01855	68 00 00 00 00	 push	 __ehhandler$?CallWebFromGBox@CWebManager@@QAEXPAVCHtmlView@@PAUCallJSParam@@@Z
  0185a	64 a1 00 00 00
	00		 mov	 eax, DWORD PTR fs:__except_list
  01860	50		 push	 eax
  01861	64 89 25 00 00
	00 00		 mov	 DWORD PTR fs:__except_list, esp
  01868	83 ec 70	 sub	 esp, 112		; 00000070H
  0186b	89 4d c8	 mov	 DWORD PTR _this$[ebp], ecx

; 276  : 	if (pParam == NULL || pParam->nParam > 3)

  0186e	83 7d 0c 00	 cmp	 DWORD PTR _pParam$[ebp], 0
  01872	74 08		 je	 SHORT $L202187
  01874	8b 45 0c	 mov	 eax, DWORD PTR _pParam$[ebp]
  01877	83 38 03	 cmp	 DWORD PTR [eax], 3
  0187a	76 05		 jbe	 SHORT $L202186
$L202187:

; 277  : 		return;

  0187c	e9 e0 01 00 00	 jmp	 $L202185
$L202186:

; 278  : 
; 279  : 	if( pHTMLView)

  01881	83 7d 08 00	 cmp	 DWORD PTR _pHTMLView$[ebp], 0
  01885	0f 84 d6 01 00
	00		 je	 $L202185

; 280  : 	{
; 281  : 		m_WebPage.SetDocument( pHTMLView->GetHtmlDocument() );

  0188b	8b 4d 08	 mov	 ecx, DWORD PTR _pHTMLView$[ebp]
  0188e	e8 00 00 00 00	 call	 ?GetHtmlDocument@CHtmlView@@QBEPAUIDispatch@@XZ ; CHtmlView::GetHtmlDocument
  01893	50		 push	 eax
  01894	8b 4d c8	 mov	 ecx, DWORD PTR _this$[ebp]
  01897	e8 00 00 00 00	 call	 ?SetDocument@CWebPage@@QAE_NPAUIDispatch@@@Z ; CWebPage::SetDocument

; 282  : // 		m_WebPage.CallJScript("setdownloadpic",strCommand.c_str());
; 283  : 		switch (pParam->nParam)

  0189c	8b 4d 0c	 mov	 ecx, DWORD PTR _pParam$[ebp]
  0189f	8b 11		 mov	 edx, DWORD PTR [ecx]
  018a1	89 55 c4	 mov	 DWORD PTR tv68[ebp], edx
  018a4	83 7d c4 03	 cmp	 DWORD PTR tv68[ebp], 3
  018a8	0f 87 b3 01 00
	00		 ja	 $L202185
  018ae	8b 45 c4	 mov	 eax, DWORD PTR tv68[ebp]
  018b1	ff 24 85 00 00
	00 00		 jmp	 DWORD PTR $L203759[eax*4]
$L202193:

; 284  : 		{
; 285  : 		case 0:
; 286  : 			m_WebPage.CallJScript (pParam->strFunc.c_str ());

  018b8	6a 00		 push	 0
  018ba	8b 4d 0c	 mov	 ecx, DWORD PTR _pParam$[ebp]
  018bd	83 c1 04	 add	 ecx, 4
  018c0	ff 15 00 00 00
	00		 call	 DWORD PTR __imp_?c_str@?$basic_string@DU?$char_traits@D@std@@V?$allocator@D@2@@std@@QBEPBDXZ
  018c6	51		 push	 ecx
  018c7	8b cc		 mov	 ecx, esp
  018c9	89 65 f0	 mov	 DWORD PTR $T203736[ebp], esp
  018cc	50		 push	 eax
  018cd	ff 15 00 00 00
	00		 call	 DWORD PTR __imp_??0?$CStringT@DV?$StrTraitMFC_DLL@DV?$ChTraitsCRT@D@ATL@@@@@ATL@@QAE@PBD@Z
  018d3	89 45 c0	 mov	 DWORD PTR tv279[ebp], eax
  018d6	8b 4d c8	 mov	 ecx, DWORD PTR _this$[ebp]
  018d9	e8 00 00 00 00	 call	 ?CallJScript@CWebPage@@QAE_NV?$CStringT@DV?$StrTraitMFC_DLL@DV?$ChTraitsCRT@D@ATL@@@@@ATL@@PAVCComVariant@3@@Z ; CWebPage::CallJScript

; 287  : 			break;

  018de	e9 7e 01 00 00	 jmp	 $L202185
$L202195:

; 288  : 		case 1:
; 289  : 			m_WebPage.CallJScript (pParam->strFunc.c_str (), pParam->strParam1.c_str ());

  018e3	6a 00		 push	 0
  018e5	8b 4d 0c	 mov	 ecx, DWORD PTR _pParam$[ebp]
  018e8	83 c1 20	 add	 ecx, 32			; 00000020H
  018eb	ff 15 00 00 00
	00		 call	 DWORD PTR __imp_?c_str@?$basic_string@DU?$char_traits@D@std@@V?$allocator@D@2@@std@@QBEPBDXZ
  018f1	51		 push	 ecx
  018f2	8b cc		 mov	 ecx, esp
  018f4	89 65 ec	 mov	 DWORD PTR $T203737[ebp], esp
  018f7	50		 push	 eax
  018f8	ff 15 00 00 00
	00		 call	 DWORD PTR __imp_??0?$CStringT@DV?$StrTraitMFC_DLL@DV?$ChTraitsCRT@D@ATL@@@@@ATL@@QAE@PBD@Z
  018fe	89 45 bc	 mov	 DWORD PTR tv307[ebp], eax
  01901	8b 4d bc	 mov	 ecx, DWORD PTR tv307[ebp]
  01904	89 4d b8	 mov	 DWORD PTR tv282[ebp], ecx
  01907	c7 45 fc 00 00
	00 00		 mov	 DWORD PTR __$EHRec$[ebp+8], 0
  0190e	8b 4d 0c	 mov	 ecx, DWORD PTR _pParam$[ebp]
  01911	83 c1 04	 add	 ecx, 4
  01914	ff 15 00 00 00
	00		 call	 DWORD PTR __imp_?c_str@?$basic_string@DU?$char_traits@D@std@@V?$allocator@D@2@@std@@QBEPBDXZ
  0191a	51		 push	 ecx
  0191b	8b cc		 mov	 ecx, esp
  0191d	89 65 e8	 mov	 DWORD PTR $T203738[ebp], esp
  01920	50		 push	 eax
  01921	ff 15 00 00 00
	00		 call	 DWORD PTR __imp_??0?$CStringT@DV?$StrTraitMFC_DLL@DV?$ChTraitsCRT@D@ATL@@@@@ATL@@QAE@PBD@Z
  01927	89 45 b4	 mov	 DWORD PTR tv285[ebp], eax
  0192a	c7 45 fc ff ff
	ff ff		 mov	 DWORD PTR __$EHRec$[ebp+8], -1
  01931	8b 4d c8	 mov	 ecx, DWORD PTR _this$[ebp]
  01934	e8 00 00 00 00	 call	 ?CallJScript@CWebPage@@QAE_NV?$CStringT@DV?$StrTraitMFC_DLL@DV?$ChTraitsCRT@D@ATL@@@@@ATL@@0PAVCComVariant@3@@Z ; CWebPage::CallJScript

; 290  : 			break;

  01939	e9 23 01 00 00	 jmp	 $L202185
$L202198:

; 291  : 		case 2:
; 292  : 			m_WebPage.CallJScript (pParam->strFunc.c_str (), pParam->strParam1.c_str (), pParam->strParam2.c_str ());

  0193e	6a 00		 push	 0
  01940	8b 4d 0c	 mov	 ecx, DWORD PTR _pParam$[ebp]
  01943	83 c1 3c	 add	 ecx, 60			; 0000003cH
  01946	ff 15 00 00 00
	00		 call	 DWORD PTR __imp_?c_str@?$basic_string@DU?$char_traits@D@std@@V?$allocator@D@2@@std@@QBEPBDXZ
  0194c	51		 push	 ecx
  0194d	8b cc		 mov	 ecx, esp
  0194f	89 65 e4	 mov	 DWORD PTR $T203739[ebp], esp
  01952	50		 push	 eax
  01953	ff 15 00 00 00
	00		 call	 DWORD PTR __imp_??0?$CStringT@DV?$StrTraitMFC_DLL@DV?$ChTraitsCRT@D@ATL@@@@@ATL@@QAE@PBD@Z
  01959	89 45 b0	 mov	 DWORD PTR tv308[ebp], eax
  0195c	8b 55 b0	 mov	 edx, DWORD PTR tv308[ebp]
  0195f	89 55 ac	 mov	 DWORD PTR tv288[ebp], edx
  01962	c7 45 fc 01 00
	00 00		 mov	 DWORD PTR __$EHRec$[ebp+8], 1
  01969	8b 4d 0c	 mov	 ecx, DWORD PTR _pParam$[ebp]
  0196c	83 c1 20	 add	 ecx, 32			; 00000020H
  0196f	ff 15 00 00 00
	00		 call	 DWORD PTR __imp_?c_str@?$basic_string@DU?$char_traits@D@std@@V?$allocator@D@2@@std@@QBEPBDXZ
  01975	51		 push	 ecx
  01976	8b cc		 mov	 ecx, esp
  01978	89 65 e0	 mov	 DWORD PTR $T203740[ebp], esp
  0197b	50		 push	 eax
  0197c	ff 15 00 00 00
	00		 call	 DWORD PTR __imp_??0?$CStringT@DV?$StrTraitMFC_DLL@DV?$ChTraitsCRT@D@ATL@@@@@ATL@@QAE@PBD@Z
  01982	89 45 a8	 mov	 DWORD PTR tv309[ebp], eax
  01985	8b 45 a8	 mov	 eax, DWORD PTR tv309[ebp]
  01988	89 45 a4	 mov	 DWORD PTR tv291[ebp], eax
  0198b	c6 45 fc 02	 mov	 BYTE PTR __$EHRec$[ebp+8], 2
  0198f	8b 4d 0c	 mov	 ecx, DWORD PTR _pParam$[ebp]
  01992	83 c1 04	 add	 ecx, 4
  01995	ff 15 00 00 00
	00		 call	 DWORD PTR __imp_?c_str@?$basic_string@DU?$char_traits@D@std@@V?$allocator@D@2@@std@@QBEPBDXZ
  0199b	51		 push	 ecx
  0199c	8b cc		 mov	 ecx, esp
  0199e	89 65 dc	 mov	 DWORD PTR $T203741[ebp], esp
  019a1	50		 push	 eax
  019a2	ff 15 00 00 00
	00		 call	 DWORD PTR __imp_??0?$CStringT@DV?$StrTraitMFC_DLL@DV?$ChTraitsCRT@D@ATL@@@@@ATL@@QAE@PBD@Z
  019a8	89 45 a0	 mov	 DWORD PTR tv294[ebp], eax
  019ab	c7 45 fc ff ff
	ff ff		 mov	 DWORD PTR __$EHRec$[ebp+8], -1
  019b2	8b 4d c8	 mov	 ecx, DWORD PTR _this$[ebp]
  019b5	e8 00 00 00 00	 call	 ?CallJScript@CWebPage@@QAE_NV?$CStringT@DV?$StrTraitMFC_DLL@DV?$ChTraitsCRT@D@ATL@@@@@ATL@@00PAVCComVariant@3@@Z ; CWebPage::CallJScript

; 293  : 			break;

  019ba	e9 a2 00 00 00	 jmp	 $L202185
$L202202:

; 294  : 		case 3:
; 295  : 			m_WebPage.CallJScript (pParam->strFunc.c_str (), pParam->strParam1.c_str (), pParam->strParam2.c_str (), pParam->strParam3.c_str ());

  019bf	6a 00		 push	 0
  019c1	8b 4d 0c	 mov	 ecx, DWORD PTR _pParam$[ebp]
  019c4	83 c1 58	 add	 ecx, 88			; 00000058H
  019c7	ff 15 00 00 00
	00		 call	 DWORD PTR __imp_?c_str@?$basic_string@DU?$char_traits@D@std@@V?$allocator@D@2@@std@@QBEPBDXZ
  019cd	51		 push	 ecx
  019ce	8b cc		 mov	 ecx, esp
  019d0	89 65 d8	 mov	 DWORD PTR $T203742[ebp], esp
  019d3	50		 push	 eax
  019d4	ff 15 00 00 00
	00		 call	 DWORD PTR __imp_??0?$CStringT@DV?$StrTraitMFC_DLL@DV?$ChTraitsCRT@D@ATL@@@@@ATL@@QAE@PBD@Z
  019da	89 45 9c	 mov	 DWORD PTR tv310[ebp], eax
  019dd	8b 4d 9c	 mov	 ecx, DWORD PTR tv310[ebp]
  019e0	89 4d 98	 mov	 DWORD PTR tv297[ebp], ecx
  019e3	c7 45 fc 03 00
	00 00		 mov	 DWORD PTR __$EHRec$[ebp+8], 3
  019ea	8b 4d 0c	 mov	 ecx, DWORD PTR _pParam$[ebp]
  019ed	83 c1 3c	 add	 ecx, 60			; 0000003cH
  019f0	ff 15 00 00 00
	00		 call	 DWORD PTR __imp_?c_str@?$basic_string@DU?$char_traits@D@std@@V?$allocator@D@2@@std@@QBEPBDXZ
  019f6	51		 push	 ecx
  019f7	8b cc		 mov	 ecx, esp
  019f9	89 65 d4	 mov	 DWORD PTR $T203743[ebp], esp
  019fc	50		 push	 eax
  019fd	ff 15 00 00 00
	00		 call	 DWORD PTR __imp_??0?$CStringT@DV?$StrTraitMFC_DLL@DV?$ChTraitsCRT@D@ATL@@@@@ATL@@QAE@PBD@Z
  01a03	89 45 94	 mov	 DWORD PTR tv311[ebp], eax
  01a06	8b 55 94	 mov	 edx, DWORD PTR tv311[ebp]
  01a09	89 55 90	 mov	 DWORD PTR tv300[ebp], edx
  01a0c	c6 45 fc 04	 mov	 BYTE PTR __$EHRec$[ebp+8], 4
  01a10	8b 4d 0c	 mov	 ecx, DWORD PTR _pParam$[ebp]
  01a13	83 c1 20	 add	 ecx, 32			; 00000020H
  01a16	ff 15 00 00 00
	00		 call	 DWORD PTR __imp_?c_str@?$basic_string@DU?$char_traits@D@std@@V?$allocator@D@2@@std@@QBEPBDXZ
  01a1c	51		 push	 ecx
  01a1d	8b cc		 mov	 ecx, esp
  01a1f	89 65 d0	 mov	 DWORD PTR $T203744[ebp], esp
  01a22	50		 push	 eax
  01a23	ff 15 00 00 00
	00		 call	 DWORD PTR __imp_??0?$CStringT@DV?$StrTraitMFC_DLL@DV?$ChTraitsCRT@D@ATL@@@@@ATL@@QAE@PBD@Z
  01a29	89 45 8c	 mov	 DWORD PTR tv312[ebp], eax
  01a2c	8b 45 8c	 mov	 eax, DWORD PTR tv312[ebp]
  01a2f	89 45 88	 mov	 DWORD PTR tv303[ebp], eax
  01a32	c6 45 fc 05	 mov	 BYTE PTR __$EHRec$[ebp+8], 5
  01a36	8b 4d 0c	 mov	 ecx, DWORD PTR _pParam$[ebp]
  01a39	83 c1 04	 add	 ecx, 4
  01a3c	ff 15 00 00 00
	00		 call	 DWORD PTR __imp_?c_str@?$basic_string@DU?$char_traits@D@std@@V?$allocator@D@2@@std@@QBEPBDXZ
  01a42	51		 push	 ecx
  01a43	8b cc		 mov	 ecx, esp
  01a45	89 65 cc	 mov	 DWORD PTR $T203745[ebp], esp
  01a48	50		 push	 eax
  01a49	ff 15 00 00 00
	00		 call	 DWORD PTR __imp_??0?$CStringT@DV?$StrTraitMFC_DLL@DV?$ChTraitsCRT@D@ATL@@@@@ATL@@QAE@PBD@Z
  01a4f	89 45 84	 mov	 DWORD PTR tv306[ebp], eax
  01a52	c7 45 fc ff ff
	ff ff		 mov	 DWORD PTR __$EHRec$[ebp+8], -1
  01a59	8b 4d c8	 mov	 ecx, DWORD PTR _this$[ebp]
  01a5c	e8 00 00 00 00	 call	 ?CallJScript@CWebPage@@QAE_NV?$CStringT@DV?$StrTraitMFC_DLL@DV?$ChTraitsCRT@D@ATL@@@@@ATL@@000PAVCComVariant@3@@Z ; CWebPage::CallJScript
$L202185:

; 296  : 			break;
; 297  : 		default:
; 298  : 			break;
; 299  : 		}
; 300  : 	}
; 301  : }

  01a61	8b 4d f4	 mov	 ecx, DWORD PTR __$EHRec$[ebp]
  01a64	64 89 0d 00 00
	00 00		 mov	 DWORD PTR fs:__except_list, ecx
  01a6b	8b e5		 mov	 esp, ebp
  01a6d	5d		 pop	 ebp
  01a6e	c2 08 00	 ret	 8
$L203759:
  01a71	00 00 00 00	 DD	 $L202193
  01a75	00 00 00 00	 DD	 $L202195
  01a79	00 00 00 00	 DD	 $L202198
  01a7d	00 00 00 00	 DD	 $L202202
_TEXT	ENDS
text$x	SEGMENT
$L203747:
  0035b	8b 4d ec	 mov	 ecx, DWORD PTR $T203737[ebp]
  0035e	ff 25 00 00 00
	00		 jmp	 DWORD PTR __imp_??1?$CStringT@DV?$StrTraitMFC_DLL@DV?$ChTraitsCRT@D@ATL@@@@@ATL@@QAE@XZ
$L203749:
  00364	8b 4d e4	 mov	 ecx, DWORD PTR $T203739[ebp]
  00367	ff 25 00 00 00
	00		 jmp	 DWORD PTR __imp_??1?$CStringT@DV?$StrTraitMFC_DLL@DV?$ChTraitsCRT@D@ATL@@@@@ATL@@QAE@XZ
$L203750:
  0036d	8b 4d e0	 mov	 ecx, DWORD PTR $T203740[ebp]
  00370	ff 25 00 00 00
	00		 jmp	 DWORD PTR __imp_??1?$CStringT@DV?$StrTraitMFC_DLL@DV?$ChTraitsCRT@D@ATL@@@@@ATL@@QAE@XZ
$L203752:
  00376	8b 4d d8	 mov	 ecx, DWORD PTR $T203742[ebp]
  00379	ff 25 00 00 00
	00		 jmp	 DWORD PTR __imp_??1?$CStringT@DV?$StrTraitMFC_DLL@DV?$ChTraitsCRT@D@ATL@@@@@ATL@@QAE@XZ
$L203753:
  0037f	8b 4d d4	 mov	 ecx, DWORD PTR $T203743[ebp]
  00382	ff 25 00 00 00
	00		 jmp	 DWORD PTR __imp_??1?$CStringT@DV?$StrTraitMFC_DLL@DV?$ChTraitsCRT@D@ATL@@@@@ATL@@QAE@XZ
$L203754:
  00388	8b 4d d0	 mov	 ecx, DWORD PTR $T203744[ebp]
  0038b	ff 25 00 00 00
	00		 jmp	 DWORD PTR __imp_??1?$CStringT@DV?$StrTraitMFC_DLL@DV?$ChTraitsCRT@D@ATL@@@@@ATL@@QAE@XZ
__ehhandler$?CallWebFromGBox@CWebManager@@QAEXPAVCHtmlView@@PAUCallJSParam@@@Z:
  00391	b8 00 00 00 00	 mov	 eax, OFFSET FLAT:$T203757
  00396	e9 00 00 00 00	 jmp	 ___CxxFrameHandler
text$x	ENDS
?CallWebFromGBox@CWebManager@@QAEXPAVCHtmlView@@PAUCallJSParam@@@Z ENDP ; CWebManager::CallWebFromGBox
EXTRN	__imp_?GetLength@?$CSimpleStringT@D$00@ATL@@QBEHXZ:NEAR
EXTRN	__imp_??4?$CStringT@DV?$StrTraitMFC_DLL@DV?$ChTraitsCRT@D@ATL@@@@@ATL@@QAEAAV01@PBD@Z:NEAR
EXTRN	__imp_?Find@?$CStringT@DV?$StrTraitMFC_DLL@DV?$ChTraitsCRT@D@ATL@@@@@ATL@@QBEHDH@Z:NEAR
EXTRN	__imp_?Mid@?$CStringT@DV?$StrTraitMFC_DLL@DV?$ChTraitsCRT@D@ATL@@@@@ATL@@QBE?AV12@HH@Z:NEAR
xdata$x	SEGMENT
$T203769 DD	0ffffffffH
	DD	FLAT:$L203764
	DD	0ffffffffH
	DD	FLAT:$L203765
$T203767 DD	019930520H
	DD	02H
	DD	FLAT:$T203769
	DD	2 DUP(00H)
	DD	2 DUP(00H)
; Function compile flags: /Odt
xdata$x	ENDS
_TEXT	SEGMENT
tv131 = -44						; size = 4
tv133 = -40						; size = 4
tv129 = -36						; size = 4
tv132 = -32						; size = 4
_this$ = -28						; size = 4
$T203763 = -24						; size = 4
$T203762 = -20						; size = 4
_iPosEq$ = -16						; size = 4
__$EHRec$ = -12						; size = 12
_strInput$ = 8						; size = 4
_strLeft$ = 12						; size = 4
_strRight$ = 16						; size = 4
?_string_help@CWebManager@@AAEXABV?$CStringT@DV?$StrTraitMFC_DLL@DV?$ChTraitsCRT@D@ATL@@@@@ATL@@AAV23@1@Z PROC NEAR ; CWebManager::_string_help
; _this$ = ecx

; 304  : {

  01a90	55		 push	 ebp
  01a91	8b ec		 mov	 ebp, esp
  01a93	6a ff		 push	 -1
  01a95	68 00 00 00 00	 push	 __ehhandler$?_string_help@CWebManager@@AAEXABV?$CStringT@DV?$StrTraitMFC_DLL@DV?$ChTraitsCRT@D@ATL@@@@@ATL@@AAV23@1@Z
  01a9a	64 a1 00 00 00
	00		 mov	 eax, DWORD PTR fs:__except_list
  01aa0	50		 push	 eax
  01aa1	64 89 25 00 00
	00 00		 mov	 DWORD PTR fs:__except_list, esp
  01aa8	83 ec 20	 sub	 esp, 32			; 00000020H
  01aab	89 4d e4	 mov	 DWORD PTR _this$[ebp], ecx

; 305  : 	strLeft = strRight = "";

  01aae	68 00 00 00 00	 push	 OFFSET FLAT:$SG202214
  01ab3	8b 4d 10	 mov	 ecx, DWORD PTR _strRight$[ebp]
  01ab6	ff 15 00 00 00
	00		 call	 DWORD PTR __imp_??4?$CStringT@DV?$StrTraitMFC_DLL@DV?$ChTraitsCRT@D@ATL@@@@@ATL@@QAEAAV01@PBD@Z
  01abc	50		 push	 eax
  01abd	8b 4d 0c	 mov	 ecx, DWORD PTR _strLeft$[ebp]
  01ac0	ff 15 00 00 00
	00		 call	 DWORD PTR __imp_??4?$CStringT@DV?$StrTraitMFC_DLL@DV?$ChTraitsCRT@D@ATL@@@@@ATL@@QAEAAV01@ABV01@@Z

; 306  : 
; 307  : 	int iPosEq = strInput.Find('=');

  01ac6	6a 00		 push	 0
  01ac8	6a 3d		 push	 61			; 0000003dH
  01aca	8b 4d 08	 mov	 ecx, DWORD PTR _strInput$[ebp]
  01acd	ff 15 00 00 00
	00		 call	 DWORD PTR __imp_?Find@?$CStringT@DV?$StrTraitMFC_DLL@DV?$ChTraitsCRT@D@ATL@@@@@ATL@@QBEHDH@Z
  01ad3	89 45 f0	 mov	 DWORD PTR _iPosEq$[ebp], eax

; 308  : 	if( iPosEq == -1 )

  01ad6	83 7d f0 ff	 cmp	 DWORD PTR _iPosEq$[ebp], -1
  01ada	75 05		 jne	 SHORT $L202216

; 309  : 	{
; 310  : 		return;

  01adc	e9 8f 00 00 00	 jmp	 $L202213
$L202216:

; 311  : 	}
; 312  : 	strLeft		= strInput.Left(iPosEq);

  01ae1	8b 45 f0	 mov	 eax, DWORD PTR _iPosEq$[ebp]
  01ae4	50		 push	 eax
  01ae5	8d 4d ec	 lea	 ecx, DWORD PTR $T203762[ebp]
  01ae8	51		 push	 ecx
  01ae9	8b 4d 08	 mov	 ecx, DWORD PTR _strInput$[ebp]
  01aec	ff 15 00 00 00
	00		 call	 DWORD PTR __imp_?Left@?$CStringT@DV?$StrTraitMFC_DLL@DV?$ChTraitsCRT@D@ATL@@@@@ATL@@QBE?AV12@H@Z
  01af2	89 45 e0	 mov	 DWORD PTR tv132[ebp], eax
  01af5	8b 55 e0	 mov	 edx, DWORD PTR tv132[ebp]
  01af8	89 55 dc	 mov	 DWORD PTR tv129[ebp], edx
  01afb	c7 45 fc 00 00
	00 00		 mov	 DWORD PTR __$EHRec$[ebp+8], 0
  01b02	8b 45 dc	 mov	 eax, DWORD PTR tv129[ebp]
  01b05	50		 push	 eax
  01b06	8b 4d 0c	 mov	 ecx, DWORD PTR _strLeft$[ebp]
  01b09	ff 15 00 00 00
	00		 call	 DWORD PTR __imp_??4?$CStringT@DV?$StrTraitMFC_DLL@DV?$ChTraitsCRT@D@ATL@@@@@ATL@@QAEAAV01@ABV01@@Z
  01b0f	c7 45 fc ff ff
	ff ff		 mov	 DWORD PTR __$EHRec$[ebp+8], -1
  01b16	8d 4d ec	 lea	 ecx, DWORD PTR $T203762[ebp]
  01b19	ff 15 00 00 00
	00		 call	 DWORD PTR __imp_??1?$CStringT@DV?$StrTraitMFC_DLL@DV?$ChTraitsCRT@D@ATL@@@@@ATL@@QAE@XZ

; 313  : 	strRight	= strInput.Mid(iPosEq+1,strInput.GetLength()-iPosEq-1);

  01b1f	8b 4d 08	 mov	 ecx, DWORD PTR _strInput$[ebp]
  01b22	ff 15 00 00 00
	00		 call	 DWORD PTR __imp_?GetLength@?$CSimpleStringT@D$00@ATL@@QBEHXZ
  01b28	2b 45 f0	 sub	 eax, DWORD PTR _iPosEq$[ebp]
  01b2b	83 e8 01	 sub	 eax, 1
  01b2e	50		 push	 eax
  01b2f	8b 4d f0	 mov	 ecx, DWORD PTR _iPosEq$[ebp]
  01b32	83 c1 01	 add	 ecx, 1
  01b35	51		 push	 ecx
  01b36	8d 55 e8	 lea	 edx, DWORD PTR $T203763[ebp]
  01b39	52		 push	 edx
  01b3a	8b 4d 08	 mov	 ecx, DWORD PTR _strInput$[ebp]
  01b3d	ff 15 00 00 00
	00		 call	 DWORD PTR __imp_?Mid@?$CStringT@DV?$StrTraitMFC_DLL@DV?$ChTraitsCRT@D@ATL@@@@@ATL@@QBE?AV12@HH@Z
  01b43	89 45 d8	 mov	 DWORD PTR tv133[ebp], eax
  01b46	8b 45 d8	 mov	 eax, DWORD PTR tv133[ebp]
  01b49	89 45 d4	 mov	 DWORD PTR tv131[ebp], eax
  01b4c	c7 45 fc 01 00
	00 00		 mov	 DWORD PTR __$EHRec$[ebp+8], 1
  01b53	8b 4d d4	 mov	 ecx, DWORD PTR tv131[ebp]
  01b56	51		 push	 ecx
  01b57	8b 4d 10	 mov	 ecx, DWORD PTR _strRight$[ebp]
  01b5a	ff 15 00 00 00
	00		 call	 DWORD PTR __imp_??4?$CStringT@DV?$StrTraitMFC_DLL@DV?$ChTraitsCRT@D@ATL@@@@@ATL@@QAEAAV01@ABV01@@Z
  01b60	c7 45 fc ff ff
	ff ff		 mov	 DWORD PTR __$EHRec$[ebp+8], -1
  01b67	8d 4d e8	 lea	 ecx, DWORD PTR $T203763[ebp]
  01b6a	ff 15 00 00 00
	00		 call	 DWORD PTR __imp_??1?$CStringT@DV?$StrTraitMFC_DLL@DV?$ChTraitsCRT@D@ATL@@@@@ATL@@QAE@XZ
$L202213:

; 314  : }

  01b70	8b 4d f4	 mov	 ecx, DWORD PTR __$EHRec$[ebp]
  01b73	64 89 0d 00 00
	00 00		 mov	 DWORD PTR fs:__except_list, ecx
  01b7a	8b e5		 mov	 esp, ebp
  01b7c	5d		 pop	 ebp
  01b7d	c2 0c 00	 ret	 12			; 0000000cH
_TEXT	ENDS
text$x	SEGMENT
$L203764:
  0039b	8d 4d ec	 lea	 ecx, DWORD PTR $T203762[ebp]
  0039e	ff 25 00 00 00
	00		 jmp	 DWORD PTR __imp_??1?$CStringT@DV?$StrTraitMFC_DLL@DV?$ChTraitsCRT@D@ATL@@@@@ATL@@QAE@XZ
$L203765:
  003a4	8d 4d e8	 lea	 ecx, DWORD PTR $T203763[ebp]
  003a7	ff 25 00 00 00
	00		 jmp	 DWORD PTR __imp_??1?$CStringT@DV?$StrTraitMFC_DLL@DV?$ChTraitsCRT@D@ATL@@@@@ATL@@QAE@XZ
__ehhandler$?_string_help@CWebManager@@AAEXABV?$CStringT@DV?$StrTraitMFC_DLL@DV?$ChTraitsCRT@D@ATL@@@@@ATL@@AAV23@1@Z:
  003ad	b8 00 00 00 00	 mov	 eax, OFFSET FLAT:$T203767
  003b2	e9 00 00 00 00	 jmp	 ___CxxFrameHandler
text$x	ENDS
?_string_help@CWebManager@@AAEXABV?$CStringT@DV?$StrTraitMFC_DLL@DV?$ChTraitsCRT@D@ATL@@@@@ATL@@AAV23@1@Z ENDP ; CWebManager::_string_help
PUBLIC	?_AtlInstallStringThunk@ATL@@YAXPAPAXPAX1@Z	; ATL::_AtlInstallStringThunk
PUBLIC	?GetEnvironmentVariableWFake@ATL@@YGKPB_WPA_WK@Z ; ATL::GetEnvironmentVariableWFake
EXTRN	__imp__GetEnvironmentVariableW@12:NEAR
; Function compile flags: /Odt
; File d:\program files (x86)\microsoft visual studio .net 2003\vc7\atlmfc\include\cstringt.h
;	COMDAT ?GetEnvironmentVariableWThunk@ATL@@YGKPB_WPA_WK@Z
_TEXT	SEGMENT
_pszName$ = 8						; size = 4
_pszBuffer$ = 12					; size = 4
_nSize$ = 16						; size = 4
?GetEnvironmentVariableWThunk@ATL@@YGKPB_WPA_WK@Z PROC NEAR ; ATL::GetEnvironmentVariableWThunk, COMDAT

; 183  : {

  00000	55		 push	 ebp
  00001	8b ec		 mov	 ebp, esp

; 184  : 	_AtlInstallStringThunk(reinterpret_cast<void**>(&_strthunks.pfnGetEnvironmentVariableW), 
; 185  : 		GetEnvironmentVariableWFake, ::GetEnvironmentVariableW);

  00003	a1 00 00 00 00	 mov	 eax, DWORD PTR __imp__GetEnvironmentVariableW@12
  00008	50		 push	 eax
  00009	68 00 00 00 00	 push	 OFFSET FLAT:?GetEnvironmentVariableWFake@ATL@@YGKPB_WPA_WK@Z ; ATL::GetEnvironmentVariableWFake
  0000e	68 14 00 00 00	 push	 OFFSET FLAT:?_strthunks@ATL@@3U_AtlStringThunks@1@A+20
  00013	e8 00 00 00 00	 call	 ?_AtlInstallStringThunk@ATL@@YAXPAPAXPAX1@Z ; ATL::_AtlInstallStringThunk
  00018	83 c4 0c	 add	 esp, 12			; 0000000cH

; 186  : 
; 187  : 	return _strthunks.pfnGetEnvironmentVariableW(pszName, pszBuffer, nSize);

  0001b	8b 4d 10	 mov	 ecx, DWORD PTR _nSize$[ebp]
  0001e	51		 push	 ecx
  0001f	8b 55 0c	 mov	 edx, DWORD PTR _pszBuffer$[ebp]
  00022	52		 push	 edx
  00023	8b 45 08	 mov	 eax, DWORD PTR _pszName$[ebp]
  00026	50		 push	 eax
  00027	ff 15 14 00 00
	00		 call	 DWORD PTR ?_strthunks@ATL@@3U_AtlStringThunks@1@A+20

; 188  : }

  0002d	5d		 pop	 ebp
  0002e	c2 0c 00	 ret	 12			; 0000000cH
?GetEnvironmentVariableWThunk@ATL@@YGKPB_WPA_WK@Z ENDP	; ATL::GetEnvironmentVariableWThunk
_TEXT	ENDS
PUBLIC	?s_bWin9x@?1??_AtlInstallStringThunk@ATL@@YAXPAPAXPAX1@Z@4_NA ; `ATL::_AtlInstallStringThunk'::`2'::s_bWin9x
PUBLIC	??_B?1??_AtlInstallStringThunk@ATL@@YAXPAPAXPAX1@Z@51 ; `ATL::_AtlInstallStringThunk'::`2'::`local static guard'
EXTRN	__imp__GetVersion@0:NEAR
;	COMDAT ?s_bWin9x@?1??_AtlInstallStringThunk@ATL@@YAXPAPAXPAX1@Z@4_NA
_BSS	SEGMENT
?s_bWin9x@?1??_AtlInstallStringThunk@ATL@@YAXPAPAXPAX1@Z@4_NA DB 01H DUP (?) ; `ATL::_AtlInstallStringThunk'::`2'::s_bWin9x
_BSS	ENDS
;	COMDAT ??_B?1??_AtlInstallStringThunk@ATL@@YAXPAPAXPAX1@Z@51
_BSS	SEGMENT
??_B?1??_AtlInstallStringThunk@ATL@@YAXPAPAXPAX1@Z@51 DD 01H DUP (?) ; `ATL::_AtlInstallStringThunk'::`2'::`local static guard'
; Function compile flags: /Odt
_BSS	ENDS
;	COMDAT ?_AtlInstallStringThunk@ATL@@YAXPAPAXPAX1@Z
_TEXT	SEGMENT
_pfn$ = -4						; size = 4
_ppThunk$ = 8						; size = 4
_pfnWin9x$ = 12						; size = 4
_pfnNT$ = 16						; size = 4
?_AtlInstallStringThunk@ATL@@YAXPAPAXPAX1@Z PROC NEAR	; ATL::_AtlInstallStringThunk, COMDAT

; 115  : {

  00000	55		 push	 ebp
  00001	8b ec		 mov	 ebp, esp
  00003	51		 push	 ecx

; 116  : #pragma warning (push)
; 117  : #pragma warning (disable : 4640)	// construction of local static object is not thread-safe
; 118  : 
; 119  : 	static bool s_bWin9x = (::GetVersion()&0x80000000) != 0;

  00004	a1 00 00 00 00	 mov	 eax, DWORD PTR ??_B?1??_AtlInstallStringThunk@ATL@@YAXPAPAXPAX1@Z@51
  00009	83 e0 01	 and	 eax, 1
  0000c	75 25		 jne	 SHORT $L25641
  0000e	8b 0d 00 00 00
	00		 mov	 ecx, DWORD PTR ??_B?1??_AtlInstallStringThunk@ATL@@YAXPAPAXPAX1@Z@51
  00014	83 c9 01	 or	 ecx, 1
  00017	89 0d 00 00 00
	00		 mov	 DWORD PTR ??_B?1??_AtlInstallStringThunk@ATL@@YAXPAPAXPAX1@Z@51, ecx
  0001d	ff 15 00 00 00
	00		 call	 DWORD PTR __imp__GetVersion@0
  00023	25 00 00 00 80	 and	 eax, -2147483648	; 80000000H
  00028	f7 d8		 neg	 eax
  0002a	1b c0		 sbb	 eax, eax
  0002c	f7 d8		 neg	 eax
  0002e	a2 00 00 00 00	 mov	 BYTE PTR ?s_bWin9x@?1??_AtlInstallStringThunk@ATL@@YAXPAPAXPAX1@Z@4_NA, al ; `ATL::_AtlInstallStringThunk'::`2'::s_bWin9x
$L25641:

; 120  : 	
; 121  : #pragma warning (pop)
; 122  : 
; 123  : 	void* pfn;
; 124  : 	if (s_bWin9x)

  00033	0f b6 15 00 00
	00 00		 movzx	 edx, BYTE PTR ?s_bWin9x@?1??_AtlInstallStringThunk@ATL@@YAXPAPAXPAX1@Z@4_NA ; `ATL::_AtlInstallStringThunk'::`2'::s_bWin9x
  0003a	85 d2		 test	 edx, edx
  0003c	74 08		 je	 SHORT $L25643

; 125  : 		pfn = pfnWin9x;

  0003e	8b 45 0c	 mov	 eax, DWORD PTR _pfnWin9x$[ebp]
  00041	89 45 fc	 mov	 DWORD PTR _pfn$[ebp], eax

; 126  : 	else

  00044	eb 06		 jmp	 SHORT $L25644
$L25643:

; 127  : 	{
; 128  : #ifdef _CSTRING_ALWAYS_THUNK
; 129  : 		pfn = pfnWin9x;
; 130  : 		(void)pfnNT;
; 131  : #else
; 132  : 		pfn = pfnNT;

  00046	8b 4d 10	 mov	 ecx, DWORD PTR _pfnNT$[ebp]
  00049	89 4d fc	 mov	 DWORD PTR _pfn$[ebp], ecx
$L25644:

; 133  : #endif
; 134  : 	}
; 135  : 	InterlockedExchangePointer(ppThunk, pfn);

  0004c	8b 55 fc	 mov	 edx, DWORD PTR _pfn$[ebp]
  0004f	52		 push	 edx
  00050	8b 45 08	 mov	 eax, DWORD PTR _ppThunk$[ebp]
  00053	50		 push	 eax
  00054	e8 00 00 00 00	 call	 ?InterlockedExchangePointer@@YGPAXPAPAXPAX@Z ; InterlockedExchangePointer

; 136  : }

  00059	8b e5		 mov	 esp, ebp
  0005b	5d		 pop	 ebp
  0005c	c3		 ret	 0
?_AtlInstallStringThunk@ATL@@YAXPAPAXPAX1@Z ENDP	; ATL::_AtlInstallStringThunk
_TEXT	ENDS
PUBLIC	??0?$CTempBuffer@D$0IA@VCCRTAllocator@ATL@@@ATL@@QAE@XZ ; ATL::CTempBuffer<char,128,ATL::CCRTAllocator>::CTempBuffer<char,128,ATL::CCRTAllocator>
PUBLIC	??1?$CTempBuffer@D$0IA@VCCRTAllocator@ATL@@@ATL@@QAE@XZ ; ATL::CTempBuffer<char,128,ATL::CCRTAllocator>::~CTempBuffer<char,128,ATL::CCRTAllocator>
PUBLIC	??B?$CTempBuffer@D$0IA@VCCRTAllocator@ATL@@@ATL@@QBEPADXZ ; ATL::CTempBuffer<char,128,ATL::CCRTAllocator>::operator char *
PUBLIC	?Allocate@?$CTempBuffer@D$0IA@VCCRTAllocator@ATL@@@ATL@@QAEPADI@Z ; ATL::CTempBuffer<char,128,ATL::CCRTAllocator>::Allocate
PUBLIC	??0?$CW2AEX@$0IA@@ATL@@QAE@PB_W@Z		; ATL::CW2AEX<128>::CW2AEX<128>
PUBLIC	??1?$CW2AEX@$0IA@@ATL@@QAE@XZ			; ATL::CW2AEX<128>::~CW2AEX<128>
PUBLIC	??B?$CW2AEX@$0IA@@ATL@@QBEPADXZ			; ATL::CW2AEX<128>::operator char *
PUBLIC	?_AtlGetConversionACP@ATL@@YGIXZ		; ATL::_AtlGetConversionACP
EXTRN	__imp__MultiByteToWideChar@24:NEAR
EXTRN	__imp__GetEnvironmentVariableA@12:NEAR
;	COMDAT xdata$x
xdata$x	SEGMENT
$T203785 DD	0ffffffffH
	DD	FLAT:$L203779
	DD	00H
	DD	FLAT:$L203780
$T203782 DD	019930520H
	DD	02H
	DD	FLAT:$T203785
	DD	2 DUP(00H)
	DD	2 DUP(00H)
; Function compile flags: /Odt
xdata$x	ENDS
;	COMDAT ?GetEnvironmentVariableWFake@ATL@@YGKPB_WPA_WK@Z
_TEXT	SEGMENT
$T203778 = -312						; size = 4
$T203777 = -308						; size = 4
$T203776 = -304						; size = 4
_pszBufferA$ = -300					; size = 132
_nSizeW$ = -160						; size = 4
_pszNameA$ = -156					; size = 132
__$ArrayPad$ = -20					; size = 4
_nSizeA$ = -16						; size = 4
__$EHRec$ = -12						; size = 12
__$ReturnAddr$ = 4					; size = 4
_pszName$ = 8						; size = 4
_pszBuffer$ = 12					; size = 4
_nSize$ = 16						; size = 4
?GetEnvironmentVariableWFake@ATL@@YGKPB_WPA_WK@Z PROC NEAR ; ATL::GetEnvironmentVariableWFake, COMDAT

; 159  : {

  00000	55		 push	 ebp
  00001	8b ec		 mov	 ebp, esp
  00003	6a ff		 push	 -1
  00005	68 00 00 00 00	 push	 __ehhandler$?GetEnvironmentVariableWFake@ATL@@YGKPB_WPA_WK@Z
  0000a	64 a1 00 00 00
	00		 mov	 eax, DWORD PTR fs:__except_list
  00010	50		 push	 eax
  00011	64 89 25 00 00
	00 00		 mov	 DWORD PTR fs:__except_list, esp
  00018	81 ec 2c 01 00
	00		 sub	 esp, 300		; 0000012cH
  0001e	a1 00 00 00 00	 mov	 eax, DWORD PTR ___security_cookie
  00023	89 45 ec	 mov	 DWORD PTR __$ArrayPad$[ebp], eax

; 160  : 	ULONG nSizeA;
; 161  : 	ULONG nSizeW;
; 162  : 	CTempBuffer<char> pszBufferA;

  00026	8d 8d d4 fe ff
	ff		 lea	 ecx, DWORD PTR _pszBufferA$[ebp]
  0002c	e8 00 00 00 00	 call	 ??0?$CTempBuffer@D$0IA@VCCRTAllocator@ATL@@@ATL@@QAE@XZ ; ATL::CTempBuffer<char,128,ATL::CCRTAllocator>::CTempBuffer<char,128,ATL::CCRTAllocator>
  00031	c7 45 fc 00 00
	00 00		 mov	 DWORD PTR __$EHRec$[ebp+8], 0

; 163  : 	CW2A pszNameA(pszName);

  00038	8b 45 08	 mov	 eax, DWORD PTR _pszName$[ebp]
  0003b	50		 push	 eax
  0003c	8d 8d 64 ff ff
	ff		 lea	 ecx, DWORD PTR _pszNameA$[ebp]
  00042	e8 00 00 00 00	 call	 ??0?$CW2AEX@$0IA@@ATL@@QAE@PB_W@Z ; ATL::CW2AEX<128>::CW2AEX<128>
  00047	c6 45 fc 01	 mov	 BYTE PTR __$EHRec$[ebp+8], 1

; 164  : 
; 165  : 	nSizeA = ::GetEnvironmentVariableA(pszNameA, NULL, 0);

  0004b	6a 00		 push	 0
  0004d	6a 00		 push	 0
  0004f	8d 8d 64 ff ff
	ff		 lea	 ecx, DWORD PTR _pszNameA$[ebp]
  00055	e8 00 00 00 00	 call	 ??B?$CW2AEX@$0IA@@ATL@@QBEPADXZ ; ATL::CW2AEX<128>::operator char *
  0005a	50		 push	 eax
  0005b	ff 15 00 00 00
	00		 call	 DWORD PTR __imp__GetEnvironmentVariableA@12
  00061	89 45 f0	 mov	 DWORD PTR _nSizeA$[ebp], eax

; 166  : 	if (nSizeA == 0)

  00064	83 7d f0 00	 cmp	 DWORD PTR _nSizeA$[ebp], 0
  00068	75 36		 jne	 SHORT $L25746

; 167  : 		return 0;

  0006a	c7 85 d0 fe ff
	ff 00 00 00 00	 mov	 DWORD PTR $T203776[ebp], 0
  00074	c6 45 fc 00	 mov	 BYTE PTR __$EHRec$[ebp+8], 0
  00078	8d 8d 64 ff ff
	ff		 lea	 ecx, DWORD PTR _pszNameA$[ebp]
  0007e	e8 00 00 00 00	 call	 ??1?$CW2AEX@$0IA@@ATL@@QAE@XZ ; ATL::CW2AEX<128>::~CW2AEX<128>
  00083	c7 45 fc ff ff
	ff ff		 mov	 DWORD PTR __$EHRec$[ebp+8], -1
  0008a	8d 8d d4 fe ff
	ff		 lea	 ecx, DWORD PTR _pszBufferA$[ebp]
  00090	e8 00 00 00 00	 call	 ??1?$CTempBuffer@D$0IA@VCCRTAllocator@ATL@@@ATL@@QAE@XZ ; ATL::CTempBuffer<char,128,ATL::CCRTAllocator>::~CTempBuffer<char,128,ATL::CCRTAllocator>
  00095	8b 85 d0 fe ff
	ff		 mov	 eax, DWORD PTR $T203776[ebp]
  0009b	e9 ee 00 00 00	 jmp	 $L25687
$L25746:

; 168  : 
; 169  : 	pszBufferA.Allocate(nSizeA*2);

  000a0	8b 4d f0	 mov	 ecx, DWORD PTR _nSizeA$[ebp]
  000a3	d1 e1		 shl	 ecx, 1
  000a5	51		 push	 ecx
  000a6	8d 8d d4 fe ff
	ff		 lea	 ecx, DWORD PTR _pszBufferA$[ebp]
  000ac	e8 00 00 00 00	 call	 ?Allocate@?$CTempBuffer@D$0IA@VCCRTAllocator@ATL@@@ATL@@QAEPADI@Z ; ATL::CTempBuffer<char,128,ATL::CCRTAllocator>::Allocate

; 170  : 	::GetEnvironmentVariableA(pszNameA, pszBufferA, nSizeA);

  000b1	8b 55 f0	 mov	 edx, DWORD PTR _nSizeA$[ebp]
  000b4	52		 push	 edx
  000b5	8d 8d d4 fe ff
	ff		 lea	 ecx, DWORD PTR _pszBufferA$[ebp]
  000bb	e8 00 00 00 00	 call	 ??B?$CTempBuffer@D$0IA@VCCRTAllocator@ATL@@@ATL@@QBEPADXZ ; ATL::CTempBuffer<char,128,ATL::CCRTAllocator>::operator char *
  000c0	50		 push	 eax
  000c1	8d 8d 64 ff ff
	ff		 lea	 ecx, DWORD PTR _pszNameA$[ebp]
  000c7	e8 00 00 00 00	 call	 ??B?$CW2AEX@$0IA@@ATL@@QBEPADXZ ; ATL::CW2AEX<128>::operator char *
  000cc	50		 push	 eax
  000cd	ff 15 00 00 00
	00		 call	 DWORD PTR __imp__GetEnvironmentVariableA@12

; 171  : 
; 172  : 	nSizeW = ::MultiByteToWideChar(_AtlGetConversionACP(), 0, pszBufferA, -1, NULL, 0);

  000d3	6a 00		 push	 0
  000d5	6a 00		 push	 0
  000d7	6a ff		 push	 -1
  000d9	8d 8d d4 fe ff
	ff		 lea	 ecx, DWORD PTR _pszBufferA$[ebp]
  000df	e8 00 00 00 00	 call	 ??B?$CTempBuffer@D$0IA@VCCRTAllocator@ATL@@@ATL@@QBEPADXZ ; ATL::CTempBuffer<char,128,ATL::CCRTAllocator>::operator char *
  000e4	50		 push	 eax
  000e5	6a 00		 push	 0
  000e7	e8 00 00 00 00	 call	 ?_AtlGetConversionACP@ATL@@YGIXZ ; ATL::_AtlGetConversionACP
  000ec	50		 push	 eax
  000ed	ff 15 00 00 00
	00		 call	 DWORD PTR __imp__MultiByteToWideChar@24
  000f3	89 85 60 ff ff
	ff		 mov	 DWORD PTR _nSizeW$[ebp], eax

; 173  : 	if (nSize == 0)

  000f9	83 7d 10 00	 cmp	 DWORD PTR _nSize$[ebp], 0
  000fd	75 35		 jne	 SHORT $L25748

; 174  : 		return nSizeW;

  000ff	8b 85 60 ff ff
	ff		 mov	 eax, DWORD PTR _nSizeW$[ebp]
  00105	89 85 cc fe ff
	ff		 mov	 DWORD PTR $T203777[ebp], eax
  0010b	c6 45 fc 00	 mov	 BYTE PTR __$EHRec$[ebp+8], 0
  0010f	8d 8d 64 ff ff
	ff		 lea	 ecx, DWORD PTR _pszNameA$[ebp]
  00115	e8 00 00 00 00	 call	 ??1?$CW2AEX@$0IA@@ATL@@QAE@XZ ; ATL::CW2AEX<128>::~CW2AEX<128>
  0011a	c7 45 fc ff ff
	ff ff		 mov	 DWORD PTR __$EHRec$[ebp+8], -1
  00121	8d 8d d4 fe ff
	ff		 lea	 ecx, DWORD PTR _pszBufferA$[ebp]
  00127	e8 00 00 00 00	 call	 ??1?$CTempBuffer@D$0IA@VCCRTAllocator@ATL@@@ATL@@QAE@XZ ; ATL::CTempBuffer<char,128,ATL::CCRTAllocator>::~CTempBuffer<char,128,ATL::CCRTAllocator>
  0012c	8b 85 cc fe ff
	ff		 mov	 eax, DWORD PTR $T203777[ebp]
  00132	eb 5a		 jmp	 SHORT $L25687
$L25748:

; 175  : 	ATLASSERT(nSize >= nSizeW);
; 176  : 	::MultiByteToWideChar(_AtlGetConversionACP(), 0, pszBufferA, -1, pszBuffer, nSizeW);

  00134	8b 8d 60 ff ff
	ff		 mov	 ecx, DWORD PTR _nSizeW$[ebp]
  0013a	51		 push	 ecx
  0013b	8b 55 0c	 mov	 edx, DWORD PTR _pszBuffer$[ebp]
  0013e	52		 push	 edx
  0013f	6a ff		 push	 -1
  00141	8d 8d d4 fe ff
	ff		 lea	 ecx, DWORD PTR _pszBufferA$[ebp]
  00147	e8 00 00 00 00	 call	 ??B?$CTempBuffer@D$0IA@VCCRTAllocator@ATL@@@ATL@@QBEPADXZ ; ATL::CTempBuffer<char,128,ATL::CCRTAllocator>::operator char *
  0014c	50		 push	 eax
  0014d	6a 00		 push	 0
  0014f	e8 00 00 00 00	 call	 ?_AtlGetConversionACP@ATL@@YGIXZ ; ATL::_AtlGetConversionACP
  00154	50		 push	 eax
  00155	ff 15 00 00 00
