; Listing generated by Microsoft (R) Optimizing Compiler Version 13.10.3077 

	TITLE	.\src\LayoutMgr\SeperateMode\WindowsMover.cpp
	.386P
include listing.inc
if @Version gt 510
.model FLAT
else
_TEXT	SEGMENT PARA USE32 PUBLIC 'CODE'
_TEXT	ENDS
_DATA	SEGMENT DWORD USE32 PUBLIC 'DATA'
_DATA	ENDS
CONST	SEGMENT DWORD USE32 PUBLIC 'CONST'
CONST	ENDS
_BSS	SEGMENT DWORD USE32 PUBLIC 'BSS'
_BSS	ENDS
$$SYMBOLS	SEGMENT BYTE USE32 'DEBSYM'
$$SYMBOLS	ENDS
$$TYPES	SEGMENT BYTE USE32 'DEBTYP'
$$TYPES	ENDS
_TLS	SEGMENT DWORD USE32 PUBLIC 'TLS'
_TLS	ENDS
;	COMDAT ??_C@_0BE@JONHPENG@map?1set?$DMT?$DO?5too?5long?$AA@
CONST	SEGMENT DWORD USE32 PUBLIC 'CONST'
CONST	ENDS
rdata$r	SEGMENT DWORD USE32 PUBLIC 'CONST'
rdata$r	ENDS
xdata$x	SEGMENT DWORD USE32 PUBLIC 'CONST'
xdata$x	ENDS
text$AFX_COL1	SEGMENT PARA USE32 PUBLIC ''
text$AFX_COL1	ENDS
text$yc	SEGMENT PARA USE32 PUBLIC 'CODE'
text$yc	ENDS
CRT$XCA	SEGMENT DWORD USE32 PUBLIC 'DATA'
CRT$XCA	ENDS
CRT$XCU	SEGMENT DWORD USE32 PUBLIC 'DATA'
CRT$XCU	ENDS
CRT$XCL	SEGMENT DWORD USE32 PUBLIC 'DATA'
CRT$XCL	ENDS
CRT$XCC	SEGMENT DWORD USE32 PUBLIC 'DATA'
CRT$XCC	ENDS
CRT$XCZ	SEGMENT DWORD USE32 PUBLIC 'DATA'
CRT$XCZ	ENDS
text$yd	SEGMENT PARA USE32 PUBLIC 'CODE'
text$yd	ENDS
ATL$__m	SEGMENT DWORD USE32 PUBLIC ''
ATL$__m	ENDS
ATL$__z	SEGMENT DWORD USE32 PUBLIC ''
ATL$__z	ENDS
ATL$__a	SEGMENT DWORD USE32 PUBLIC ''
ATL$__a	ENDS
;	COMDAT ??1IData@@MAE@XZ
_TEXT	SEGMENT PARA USE32 PUBLIC 'CODE'
_TEXT	ENDS
;	COMDAT ?DataAppStart@IData@@UAEXXZ
_TEXT	SEGMENT PARA USE32 PUBLIC 'CODE'
_TEXT	ENDS
;	COMDAT ?DataAppExit@IData@@UAEXXZ
_TEXT	SEGMENT PARA USE32 PUBLIC 'CODE'
_TEXT	ENDS
;	COMDAT ??_GIData@@MAEPAXI@Z
_TEXT	SEGMENT PARA USE32 PUBLIC 'CODE'
_TEXT	ENDS
;	COMDAT ??_GCWindowsMover@@AAEPAXI@Z
_TEXT	SEGMENT PARA USE32 PUBLIC 'CODE'
_TEXT	ENDS
;	COMDAT ??1?$map@PAUHWND__@@UWndMoveData@@U?$less@PAUHWND__@@@std@@V?$allocator@U?$pair@QAUHWND__@@UWndMoveData@@@std@@@4@@std@@QAE@XZ
_TEXT	SEGMENT PARA USE32 PUBLIC 'CODE'
_TEXT	ENDS
;	COMDAT ??0WndMoveData@@QAE@XZ
_TEXT	SEGMENT PARA USE32 PUBLIC 'CODE'
_TEXT	ENDS
;	COMDAT ??B?$CComPtrBase@UITypeInfo2@@@ATL@@QBEPAUITypeInfo2@@XZ
_TEXT	SEGMENT PARA USE32 PUBLIC 'CODE'
_TEXT	ENDS
;	COMDAT ?equal@?$istreambuf_iterator@DU?$char_traits@D@std@@@std@@QBE_NABV12@@Z
_TEXT	SEGMENT PARA USE32 PUBLIC 'CODE'
_TEXT	ENDS
;	COMDAT ?equal@?$istreambuf_iterator@_WU?$char_traits@_W@std@@@std@@QBE_NABV12@@Z
_TEXT	SEGMENT PARA USE32 PUBLIC 'CODE'
_TEXT	ENDS
;	COMDAT ??0?$map@PAUHWND__@@UWndMoveData@@U?$less@PAUHWND__@@@std@@V?$allocator@U?$pair@QAUHWND__@@UWndMoveData@@@std@@@4@@std@@QAE@XZ
_TEXT	SEGMENT PARA USE32 PUBLIC 'CODE'
_TEXT	ENDS
;	COMDAT ??A?$map@PAUHWND__@@UWndMoveData@@U?$less@PAUHWND__@@@std@@V?$allocator@U?$pair@QAUHWND__@@UWndMoveData@@@std@@@4@@std@@QAEAAUWndMoveData@@ABQAUHWND__@@@Z
_TEXT	SEGMENT PARA USE32 PUBLIC 'CODE'
_TEXT	ENDS
;	COMDAT ??1?$_Tree@V?$_Tmap_traits@PAUHWND__@@UWndMoveData@@U?$less@PAUHWND__@@@std@@V?$allocator@U?$pair@QAUHWND__@@UWndMoveData@@@std@@@4@$0A@@std@@@std@@QAE@XZ
_TEXT	SEGMENT PARA USE32 PUBLIC 'CODE'
_TEXT	ENDS
;	COMDAT ?begin@?$_Tree@V?$_Tmap_traits@PAUHWND__@@UWndMoveData@@U?$less@PAUHWND__@@@std@@V?$allocator@U?$pair@QAUHWND__@@UWndMoveData@@@std@@@4@$0A@@std@@@std@@QAE?AViterator@12@XZ
_TEXT	SEGMENT PARA USE32 PUBLIC 'CODE'
_TEXT	ENDS
;	COMDAT ?end@?$_Tree@V?$_Tmap_traits@PAUHWND__@@UWndMoveData@@U?$less@PAUHWND__@@@std@@V?$allocator@U?$pair@QAUHWND__@@UWndMoveData@@@std@@@4@$0A@@std@@@std@@QAE?AViterator@12@XZ
_TEXT	SEGMENT PARA USE32 PUBLIC 'CODE'
_TEXT	ENDS
;	COMDAT ?clear@?$_Tree@V?$_Tmap_traits@PAUHWND__@@UWndMoveData@@U?$less@PAUHWND__@@@std@@V?$allocator@U?$pair@QAUHWND__@@UWndMoveData@@@std@@@4@$0A@@std@@@std@@QAEXXZ
_TEXT	SEGMENT PARA USE32 PUBLIC 'CODE'
_TEXT	ENDS
;	COMDAT ??0iterator@?$_Tree@V?$_Tmap_traits@PAUHWND__@@UWndMoveData@@U?$less@PAUHWND__@@@std@@V?$allocator@U?$pair@QAUHWND__@@UWndMoveData@@@std@@@4@$0A@@std@@@std@@QAE@XZ
_TEXT	SEGMENT PARA USE32 PUBLIC 'CODE'
_TEXT	ENDS
;	COMDAT ??Citerator@?$_Tree@V?$_Tmap_traits@PAUHWND__@@UWndMoveData@@U?$less@PAUHWND__@@@std@@V?$allocator@U?$pair@QAUHWND__@@UWndMoveData@@@std@@@4@$0A@@std@@@std@@QBEPAU?$pair@QAUHWND__@@UWndMoveData@@@2@XZ
_TEXT	SEGMENT PARA USE32 PUBLIC 'CODE'
_TEXT	ENDS
;	COMDAT ??Eiterator@?$_Tree@V?$_Tmap_traits@PAUHWND__@@UWndMoveData@@U?$less@PAUHWND__@@@std@@V?$allocator@U?$pair@QAUHWND__@@UWndMoveData@@@std@@@4@$0A@@std@@@std@@QAE?AV012@H@Z
_TEXT	SEGMENT PARA USE32 PUBLIC 'CODE'
_TEXT	ENDS
;	COMDAT ??9const_iterator@?$_Tree@V?$_Tmap_traits@PAUHWND__@@UWndMoveData@@U?$less@PAUHWND__@@@std@@V?$allocator@U?$pair@QAUHWND__@@UWndMoveData@@@std@@@4@$0A@@std@@@std@@QBE_NABV012@@Z
_TEXT	SEGMENT PARA USE32 PUBLIC 'CODE'
_TEXT	ENDS
;	COMDAT ?_Key@?$_Tree@V?$_Tmap_traits@PAUHWND__@@UWndMoveData@@U?$less@PAUHWND__@@@std@@V?$allocator@U?$pair@QAUHWND__@@UWndMoveData@@@std@@@4@$0A@@std@@@std@@KAABQAUHWND__@@PAU_Node@?$_Tree_nod@V?$_Tmap_traits@PAUHWND__@@UWndMoveData@@U?$less@PAUHWND__@@@std@@V?$allocator@U?$pair@QAUHWND__@@UWndMoveData@@@std@@@4@$0A@@std@@@2@@Z
_TEXT	SEGMENT PARA USE32 PUBLIC 'CODE'
_TEXT	ENDS
;	COMDAT ??0?$_Tree@V?$_Tmap_traits@PAUHWND__@@UWndMoveData@@U?$less@PAUHWND__@@@std@@V?$allocator@U?$pair@QAUHWND__@@UWndMoveData@@@std@@@4@$0A@@std@@@std@@QAE@ABU?$less@PAUHWND__@@@1@ABV?$allocator@U?$pair@QAUHWND__@@UWndMoveData@@@std@@@1@@Z
_TEXT	SEGMENT PARA USE32 PUBLIC 'CODE'
_TEXT	ENDS
;	COMDAT ?insert@?$_Tree@V?$_Tmap_traits@PAUHWND__@@UWndMoveData@@U?$less@PAUHWND__@@@std@@V?$allocator@U?$pair@QAUHWND__@@UWndMoveData@@@std@@@4@$0A@@std@@@std@@QAE?AViterator@12@V312@ABU?$pair@QAUHWND__@@UWndMoveData@@@2@@Z
_TEXT	SEGMENT PARA USE32 PUBLIC 'CODE'
_TEXT	ENDS
;	COMDAT ?lower_bound@?$_Tree@V?$_Tmap_traits@PAUHWND__@@UWndMoveData@@U?$less@PAUHWND__@@@std@@V?$allocator@U?$pair@QAUHWND__@@UWndMoveData@@@std@@@4@$0A@@std@@@std@@QAE?AViterator@12@ABQAUHWND__@@@Z
_TEXT	SEGMENT PARA USE32 PUBLIC 'CODE'
_TEXT	ENDS
;	COMDAT ?_Erase@?$_Tree@V?$_Tmap_traits@PAUHWND__@@UWndMoveData@@U?$less@PAUHWND__@@@std@@V?$allocator@U?$pair@QAUHWND__@@UWndMoveData@@@std@@@4@$0A@@std@@@std@@IAEXPAU_Node@?$_Tree_nod@V?$_Tmap_traits@PAUHWND__@@UWndMoveData@@U?$less@PAUHWND__@@@std@@V?$allocator@U?$pair@QAUHWND__@@UWndMoveData@@@std@@@4@$0A@@std@@@2@@Z
_TEXT	SEGMENT PARA USE32 PUBLIC 'CODE'
_TEXT	ENDS
;	COMDAT ?_Lmost@?$_Tree@V?$_Tmap_traits@PAUHWND__@@UWndMoveData@@U?$less@PAUHWND__@@@std@@V?$allocator@U?$pair@QAUHWND__@@UWndMoveData@@@std@@@4@$0A@@std@@@std@@IAEAAPAU_Node@?$_Tree_nod@V?$_Tmap_traits@PAUHWND__@@UWndMoveData@@U?$less@PAUHWND__@@@std@@V?$allocator@U?$pair@QAUHWND__@@UWndMoveData@@@std@@@4@$0A@@std@@@2@XZ
_TEXT	SEGMENT PARA USE32 PUBLIC 'CODE'
_TEXT	ENDS
;	COMDAT ?_Rmost@?$_Tree@V?$_Tmap_traits@PAUHWND__@@UWndMoveData@@U?$less@PAUHWND__@@@std@@V?$allocator@U?$pair@QAUHWND__@@UWndMoveData@@@std@@@4@$0A@@std@@@std@@IAEAAPAU_Node@?$_Tree_nod@V?$_Tmap_traits@PAUHWND__@@UWndMoveData@@U?$less@PAUHWND__@@@std@@V?$allocator@U?$pair@QAUHWND__@@UWndMoveData@@@std@@@4@$0A@@std@@@2@XZ
_TEXT	SEGMENT PARA USE32 PUBLIC 'CODE'
_TEXT	ENDS
;	COMDAT ?_Root@?$_Tree@V?$_Tmap_traits@PAUHWND__@@UWndMoveData@@U?$less@PAUHWND__@@@std@@V?$allocator@U?$pair@QAUHWND__@@UWndMoveData@@@std@@@4@$0A@@std@@@std@@IAEAAPAU_Node@?$_Tree_nod@V?$_Tmap_traits@PAUHWND__@@UWndMoveData@@U?$less@PAUHWND__@@@std@@V?$allocator@U?$pair@QAUHWND__@@UWndMoveData@@@std@@@4@$0A@@std@@@2@XZ
_TEXT	SEGMENT PARA USE32 PUBLIC 'CODE'
_TEXT	ENDS
;	COMDAT ?_Tidy@?$_Tree@V?$_Tmap_traits@PAUHWND__@@UWndMoveData@@U?$less@PAUHWND__@@@std@@V?$allocator@U?$pair@QAUHWND__@@UWndMoveData@@@std@@@4@$0A@@std@@@std@@IAEXXZ
_TEXT	SEGMENT PARA USE32 PUBLIC 'CODE'
_TEXT	ENDS
;	COMDAT ??0?$allocator@U?$pair@QAUHWND__@@UWndMoveData@@@std@@@std@@QAE@XZ
_TEXT	SEGMENT PARA USE32 PUBLIC 'CODE'
_TEXT	ENDS
;	COMDAT ??R?$less@PAUHWND__@@@std@@QBE_NABQAUHWND__@@0@Z
_TEXT	SEGMENT PARA USE32 PUBLIC 'CODE'
_TEXT	ENDS
;	COMDAT ??0iterator@?$_Tree@V?$_Tmap_traits@PAUHWND__@@UWndMoveData@@U?$less@PAUHWND__@@@std@@V?$allocator@U?$pair@QAUHWND__@@UWndMoveData@@@std@@@4@$0A@@std@@@std@@QAE@PAU_Node@?$_Tree_nod@V?$_Tmap_traits@PAUHWND__@@UWndMoveData@@U?$less@PAUHWND__@@@std@@V?$allocator@U?$pair@QAUHWND__@@UWndMoveData@@@std@@@4@$0A@@std@@@2@@Z
_TEXT	SEGMENT PARA USE32 PUBLIC 'CODE'
_TEXT	ENDS
;	COMDAT ??Diterator@?$_Tree@V?$_Tmap_traits@PAUHWND__@@UWndMoveData@@U?$less@PAUHWND__@@@std@@V?$allocator@U?$pair@QAUHWND__@@UWndMoveData@@@std@@@4@$0A@@std@@@std@@QBEAAU?$pair@QAUHWND__@@UWndMoveData@@@2@XZ
_TEXT	SEGMENT PARA USE32 PUBLIC 'CODE'
_TEXT	ENDS
;	COMDAT ??Eiterator@?$_Tree@V?$_Tmap_traits@PAUHWND__@@UWndMoveData@@U?$less@PAUHWND__@@@std@@V?$allocator@U?$pair@QAUHWND__@@UWndMoveData@@@std@@@4@$0A@@std@@@std@@QAEAAV012@XZ
_TEXT	SEGMENT PARA USE32 PUBLIC 'CODE'
_TEXT	ENDS
;	COMDAT ??0const_iterator@?$_Tree@V?$_Tmap_traits@PAUHWND__@@UWndMoveData@@U?$less@PAUHWND__@@@std@@V?$allocator@U?$pair@QAUHWND__@@UWndMoveData@@@std@@@4@$0A@@std@@@std@@QAE@XZ
_TEXT	SEGMENT PARA USE32 PUBLIC 'CODE'
_TEXT	ENDS
;	COMDAT ??8const_iterator@?$_Tree@V?$_Tmap_traits@PAUHWND__@@UWndMoveData@@U?$less@PAUHWND__@@@std@@V?$allocator@U?$pair@QAUHWND__@@UWndMoveData@@@std@@@4@$0A@@std@@@std@@QBE_NABV012@@Z
_TEXT	SEGMENT PARA USE32 PUBLIC 'CODE'
_TEXT	ENDS
;	COMDAT ?_Mynode@const_iterator@?$_Tree@V?$_Tmap_traits@PAUHWND__@@UWndMoveData@@U?$less@PAUHWND__@@@std@@V?$allocator@U?$pair@QAUHWND__@@UWndMoveData@@@std@@@4@$0A@@std@@@std@@QBEPAU_Node@?$_Tree_nod@V?$_Tmap_traits@PAUHWND__@@UWndMoveData@@U?$less@PAUHWND__@@@std@@V?$allocator@U?$pair@QAUHWND__@@UWndMoveData@@@std@@@4@$0A@@std@@@3@XZ
_TEXT	SEGMENT PARA USE32 PUBLIC 'CODE'
_TEXT	ENDS
;	COMDAT ??0?$pair@QAUHWND__@@UWndMoveData@@@std@@QAE@ABQAUHWND__@@ABUWndMoveData@@@Z
_TEXT	SEGMENT PARA USE32 PUBLIC 'CODE'
_TEXT	ENDS
;	COMDAT ?_Isnil@?$_Tree@V?$_Tmap_traits@PAUHWND__@@UWndMoveData@@U?$less@PAUHWND__@@@std@@V?$allocator@U?$pair@QAUHWND__@@UWndMoveData@@@std@@@4@$0A@@std@@@std@@KAAADPAU_Node@?$_Tree_nod@V?$_Tmap_traits@PAUHWND__@@UWndMoveData@@U?$less@PAUHWND__@@@std@@V?$allocator@U?$pair@QAUHWND__@@UWndMoveData@@@std@@@4@$0A@@std@@@2@@Z
_TEXT	SEGMENT PARA USE32 PUBLIC 'CODE'
_TEXT	ENDS
;	COMDAT ?_Left@?$_Tree@V?$_Tmap_traits@PAUHWND__@@UWndMoveData@@U?$less@PAUHWND__@@@std@@V?$allocator@U?$pair@QAUHWND__@@UWndMoveData@@@std@@@4@$0A@@std@@@std@@KAAAPAU_Node@?$_Tree_nod@V?$_Tmap_traits@PAUHWND__@@UWndMoveData@@U?$less@PAUHWND__@@@std@@V?$allocator@U?$pair@QAUHWND__@@UWndMoveData@@@std@@@4@$0A@@std@@@2@PAU342@@Z
_TEXT	SEGMENT PARA USE32 PUBLIC 'CODE'
_TEXT	ENDS
;	COMDAT ?_Parent@?$_Tree@V?$_Tmap_traits@PAUHWND__@@UWndMoveData@@U?$less@PAUHWND__@@@std@@V?$allocator@U?$pair@QAUHWND__@@UWndMoveData@@@std@@@4@$0A@@std@@@std@@KAAAPAU_Node@?$_Tree_nod@V?$_Tmap_traits@PAUHWND__@@UWndMoveData@@U?$less@PAUHWND__@@@std@@V?$allocator@U?$pair@QAUHWND__@@UWndMoveData@@@std@@@4@$0A@@std@@@2@PAU342@@Z
_TEXT	SEGMENT PARA USE32 PUBLIC 'CODE'
_TEXT	ENDS
;	COMDAT ?_Right@?$_Tree@V?$_Tmap_traits@PAUHWND__@@UWndMoveData@@U?$less@PAUHWND__@@@std@@V?$allocator@U?$pair@QAUHWND__@@UWndMoveData@@@std@@@4@$0A@@std@@@std@@KAAAPAU_Node@?$_Tree_nod@V?$_Tmap_traits@PAUHWND__@@UWndMoveData@@U?$less@PAUHWND__@@@std@@V?$allocator@U?$pair@QAUHWND__@@UWndMoveData@@@std@@@4@$0A@@std@@@2@PAU342@@Z
_TEXT	SEGMENT PARA USE32 PUBLIC 'CODE'
_TEXT	ENDS
;	COMDAT ?_Myval@?$_Tree@V?$_Tmap_traits@PAUHWND__@@UWndMoveData@@U?$less@PAUHWND__@@@std@@V?$allocator@U?$pair@QAUHWND__@@UWndMoveData@@@std@@@4@$0A@@std@@@std@@KAAAU?$pair@QAUHWND__@@UWndMoveData@@@2@PAU_Node@?$_Tree_nod@V?$_Tmap_traits@PAUHWND__@@UWndMoveData@@U?$less@PAUHWND__@@@std@@V?$allocator@U?$pair@QAUHWND__@@UWndMoveData@@@std@@@4@$0A@@std@@@2@@Z
_TEXT	SEGMENT PARA USE32 PUBLIC 'CODE'
_TEXT	ENDS
;	COMDAT ?size@?$_Tree@V?$_Tmap_traits@PAUHWND__@@UWndMoveData@@U?$less@PAUHWND__@@@std@@V?$allocator@U?$pair@QAUHWND__@@UWndMoveData@@@std@@@4@$0A@@std@@@std@@QBEIXZ
_TEXT	SEGMENT PARA USE32 PUBLIC 'CODE'
_TEXT	ENDS
;	COMDAT ?insert@?$_Tree@V?$_Tmap_traits@PAUHWND__@@UWndMoveData@@U?$less@PAUHWND__@@@std@@V?$allocator@U?$pair@QAUHWND__@@UWndMoveData@@@std@@@4@$0A@@std@@@std@@QAE?AU?$pair@Viterator@?$_Tree@V?$_Tmap_traits@PAUHWND__@@UWndMoveData@@U?$less@PAUHWND__@@@std@@V?$allocator@U?$pair@QAUHWND__@@UWndMoveData@@@std@@@4@$0A@@std@@@std@@_N@2@ABU?$pair@QAUHWND__@@UWndMoveData@@@2@@Z
_TEXT	SEGMENT PARA USE32 PUBLIC 'CODE'
_TEXT	ENDS
;	COMDAT ?erase@?$_Tree@V?$_Tmap_traits@PAUHWND__@@UWndMoveData@@U?$less@PAUHWND__@@@std@@V?$allocator@U?$pair@QAUHWND__@@UWndMoveData@@@std@@@4@$0A@@std@@@std@@QAE?AViterator@12@V312@0@Z
_TEXT	SEGMENT PARA USE32 PUBLIC 'CODE'
_TEXT	ENDS
;	COMDAT ?_Init@?$_Tree@V?$_Tmap_traits@PAUHWND__@@UWndMoveData@@U?$less@PAUHWND__@@@std@@V?$allocator@U?$pair@QAUHWND__@@UWndMoveData@@@std@@@4@$0A@@std@@@std@@IAEXXZ
_TEXT	SEGMENT PARA USE32 PUBLIC 'CODE'
_TEXT	ENDS
;	COMDAT ?_Insert@?$_Tree@V?$_Tmap_traits@PAUHWND__@@UWndMoveData@@U?$less@PAUHWND__@@@std@@V?$allocator@U?$pair@QAUHWND__@@UWndMoveData@@@std@@@4@$0A@@std@@@std@@IAE?AViterator@12@_NPAU_Node@?$_Tree_nod@V?$_Tmap_traits@PAUHWND__@@UWndMoveData@@U?$less@PAUHWND__@@@std@@V?$allocator@U?$pair@QAUHWND__@@UWndMoveData@@@std@@@4@$0A@@std@@@2@ABU?$pair@QAUHWND__@@UWndMoveData@@@2@@Z
_TEXT	SEGMENT PARA USE32 PUBLIC 'CODE'
_TEXT	ENDS
;	COMDAT ?_Lbound@?$_Tree@V?$_Tmap_traits@PAUHWND__@@UWndMoveData@@U?$less@PAUHWND__@@@std@@V?$allocator@U?$pair@QAUHWND__@@UWndMoveData@@@std@@@4@$0A@@std@@@std@@IBEPAU_Node@?$_Tree_nod@V?$_Tmap_traits@PAUHWND__@@UWndMoveData@@U?$less@PAUHWND__@@@std@@V?$allocator@U?$pair@QAUHWND__@@UWndMoveData@@@std@@@4@$0A@@std@@@2@ABQAUHWND__@@@Z
_TEXT	SEGMENT PARA USE32 PUBLIC 'CODE'
_TEXT	ENDS
;	COMDAT ??0?$_Tree_val@V?$_Tmap_traits@PAUHWND__@@UWndMoveData@@U?$less@PAUHWND__@@@std@@V?$allocator@U?$pair@QAUHWND__@@UWndMoveData@@@std@@@4@$0A@@std@@@std@@IAE@ABU?$less@PAUHWND__@@@1@V?$allocator@U?$pair@QAUHWND__@@UWndMoveData@@@std@@@1@@Z
_TEXT	SEGMENT PARA USE32 PUBLIC 'CODE'
_TEXT	ENDS
;	COMDAT ?_Kfn@?$_Tmap_traits@PAUHWND__@@UWndMoveData@@U?$less@PAUHWND__@@@std@@V?$allocator@U?$pair@QAUHWND__@@UWndMoveData@@@std@@@4@$0A@@std@@SAABQAUHWND__@@ABU?$pair@QAUHWND__@@UWndMoveData@@@2@@Z
_TEXT	SEGMENT PARA USE32 PUBLIC 'CODE'
_TEXT	ENDS
;	COMDAT ??0?$allocator@U?$pair@QAUHWND__@@UWndMoveData@@@std@@@std@@QAE@ABV01@@Z
_TEXT	SEGMENT PARA USE32 PUBLIC 'CODE'
_TEXT	ENDS
;	COMDAT ?deallocate@?$allocator@U_Node@?$_Tree_nod@V?$_Tmap_traits@PAUHWND__@@UWndMoveData@@U?$less@PAUHWND__@@@std@@V?$allocator@U?$pair@QAUHWND__@@UWndMoveData@@@std@@@4@$0A@@std@@@std@@@std@@QAEXPAU_Node@?$_Tree_nod@V?$_Tmap_traits@PAUHWND__@@UWndMoveData@@U?$less@PAUHWND__@@@std@@V?$allocator@U?$pair@QAUHWND__@@UWndMoveData@@@std@@@4@$0A@@std@@@2@I@Z
_TEXT	SEGMENT PARA USE32 PUBLIC 'CODE'
_TEXT	ENDS
;	COMDAT ?destroy@?$allocator@U_Node@?$_Tree_nod@V?$_Tmap_traits@PAUHWND__@@UWndMoveData@@U?$less@PAUHWND__@@@std@@V?$allocator@U?$pair@QAUHWND__@@UWndMoveData@@@std@@@4@$0A@@std@@@std@@@std@@QAEXPAU_Node@?$_Tree_nod@V?$_Tmap_traits@PAUHWND__@@UWndMoveData@@U?$less@PAUHWND__@@@std@@V?$allocator@U?$pair@QAUHWND__@@UWndMoveData@@@std@@@4@$0A@@std@@@2@@Z
_TEXT	SEGMENT PARA USE32 PUBLIC 'CODE'
_TEXT	ENDS
;	COMDAT ?destroy@?$allocator@PAU_Node@?$_Tree_nod@V?$_Tmap_traits@PAUHWND__@@UWndMoveData@@U?$less@PAUHWND__@@@std@@V?$allocator@U?$pair@QAUHWND__@@UWndMoveData@@@std@@@4@$0A@@std@@@std@@@std@@QAEXPAPAU_Node@?$_Tree_nod@V?$_Tmap_traits@PAUHWND__@@UWndMoveData@@U?$less@PAUHWND__@@@std@@V?$allocator@U?$pair@QAUHWND__@@UWndMoveData@@@std@@@4@$0A@@std@@@2@@Z
_TEXT	SEGMENT PARA USE32 PUBLIC 'CODE'
_TEXT	ENDS
;	COMDAT ??Fiterator@?$_Tree@V?$_Tmap_traits@PAUHWND__@@UWndMoveData@@U?$less@PAUHWND__@@@std@@V?$allocator@U?$pair@QAUHWND__@@UWndMoveData@@@std@@@4@$0A@@std@@@std@@QAEAAV012@XZ
_TEXT	SEGMENT PARA USE32 PUBLIC 'CODE'
_TEXT	ENDS
;	COMDAT ??0const_iterator@?$_Tree@V?$_Tmap_traits@PAUHWND__@@UWndMoveData@@U?$less@PAUHWND__@@@std@@V?$allocator@U?$pair@QAUHWND__@@UWndMoveData@@@std@@@4@$0A@@std@@@std@@QAE@PAU_Node@?$_Tree_nod@V?$_Tmap_traits@PAUHWND__@@UWndMoveData@@U?$less@PAUHWND__@@@std@@V?$allocator@U?$pair@QAUHWND__@@UWndMoveData@@@std@@@4@$0A@@std@@@2@@Z
_TEXT	SEGMENT PARA USE32 PUBLIC 'CODE'
_TEXT	ENDS
;	COMDAT ??Dconst_iterator@?$_Tree@V?$_Tmap_traits@PAUHWND__@@UWndMoveData@@U?$less@PAUHWND__@@@std@@V?$allocator@U?$pair@QAUHWND__@@UWndMoveData@@@std@@@4@$0A@@std@@@std@@QBEABU?$pair@QAUHWND__@@UWndMoveData@@@2@XZ
_TEXT	SEGMENT PARA USE32 PUBLIC 'CODE'
_TEXT	ENDS
;	COMDAT ??Econst_iterator@?$_Tree@V?$_Tmap_traits@PAUHWND__@@UWndMoveData@@U?$less@PAUHWND__@@@std@@V?$allocator@U?$pair@QAUHWND__@@UWndMoveData@@@std@@@4@$0A@@std@@@std@@QAEAAV012@XZ
_TEXT	SEGMENT PARA USE32 PUBLIC 'CODE'
_TEXT	ENDS
;	COMDAT ??0length_error@std@@QAE@ABV01@@Z
_TEXT	SEGMENT PARA USE32 PUBLIC 'CODE'
_TEXT	ENDS
;	COMDAT ?_Color@?$_Tree@V?$_Tmap_traits@PAUHWND__@@UWndMoveData@@U?$less@PAUHWND__@@@std@@V?$allocator@U?$pair@QAUHWND__@@UWndMoveData@@@std@@@4@$0A@@std@@@std@@KAAADPAU_Node@?$_Tree_nod@V?$_Tmap_traits@PAUHWND__@@UWndMoveData@@U?$less@PAUHWND__@@@std@@V?$allocator@U?$pair@QAUHWND__@@UWndMoveData@@@std@@@4@$0A@@std@@@2@@Z
_TEXT	SEGMENT PARA USE32 PUBLIC 'CODE'
_TEXT	ENDS
;	COMDAT ?max_size@?$_Tree@V?$_Tmap_traits@PAUHWND__@@UWndMoveData@@U?$less@PAUHWND__@@@std@@V?$allocator@U?$pair@QAUHWND__@@UWndMoveData@@@std@@@4@$0A@@std@@@std@@QBEIXZ
_TEXT	SEGMENT PARA USE32 PUBLIC 'CODE'
_TEXT	ENDS
;	COMDAT ?erase@?$_Tree@V?$_Tmap_traits@PAUHWND__@@UWndMoveData@@U?$less@PAUHWND__@@@std@@V?$allocator@U?$pair@QAUHWND__@@UWndMoveData@@@std@@@4@$0A@@std@@@std@@QAE?AViterator@12@V312@@Z
_TEXT	SEGMENT PARA USE32 PUBLIC 'CODE'
_TEXT	ENDS
;	COMDAT ?_Lrotate@?$_Tree@V?$_Tmap_traits@PAUHWND__@@UWndMoveData@@U?$less@PAUHWND__@@@std@@V?$allocator@U?$pair@QAUHWND__@@UWndMoveData@@@std@@@4@$0A@@std@@@std@@IAEXPAU_Node@?$_Tree_nod@V?$_Tmap_traits@PAUHWND__@@UWndMoveData@@U?$less@PAUHWND__@@@std@@V?$allocator@U?$pair@QAUHWND__@@UWndMoveData@@@std@@@4@$0A@@std@@@2@@Z
_TEXT	SEGMENT PARA USE32 PUBLIC 'CODE'
_TEXT	ENDS
;	COMDAT ?_Root@?$_Tree@V?$_Tmap_traits@PAUHWND__@@UWndMoveData@@U?$less@PAUHWND__@@@std@@V?$allocator@U?$pair@QAUHWND__@@UWndMoveData@@@std@@@4@$0A@@std@@@std@@IBEAAPAU_Node@?$_Tree_nod@V?$_Tmap_traits@PAUHWND__@@UWndMoveData@@U?$less@PAUHWND__@@@std@@V?$allocator@U?$pair@QAUHWND__@@UWndMoveData@@@std@@@4@$0A@@std@@@2@XZ
_TEXT	SEGMENT PARA USE32 PUBLIC 'CODE'
_TEXT	ENDS
;	COMDAT ?_Rrotate@?$_Tree@V?$_Tmap_traits@PAUHWND__@@UWndMoveData@@U?$less@PAUHWND__@@@std@@V?$allocator@U?$pair@QAUHWND__@@UWndMoveData@@@std@@@4@$0A@@std@@@std@@IAEXPAU_Node@?$_Tree_nod@V?$_Tmap_traits@PAUHWND__@@UWndMoveData@@U?$less@PAUHWND__@@@std@@V?$allocator@U?$pair@QAUHWND__@@UWndMoveData@@@std@@@4@$0A@@std@@@2@@Z
_TEXT	SEGMENT PARA USE32 PUBLIC 'CODE'
_TEXT	ENDS
;	COMDAT ?_Buynode@?$_Tree@V?$_Tmap_traits@PAUHWND__@@UWndMoveData@@U?$less@PAUHWND__@@@std@@V?$allocator@U?$pair@QAUHWND__@@UWndMoveData@@@std@@@4@$0A@@std@@@std@@IAEPAU_Node@?$_Tree_nod@V?$_Tmap_traits@PAUHWND__@@UWndMoveData@@U?$less@PAUHWND__@@@std@@V?$allocator@U?$pair@QAUHWND__@@UWndMoveData@@@std@@@4@$0A@@std@@@2@XZ
_TEXT	SEGMENT PARA USE32 PUBLIC 'CODE'
_TEXT	ENDS
;	COMDAT ?_Buynode@?$_Tree@V?$_Tmap_traits@PAUHWND__@@UWndMoveData@@U?$less@PAUHWND__@@@std@@V?$allocator@U?$pair@QAUHWND__@@UWndMoveData@@@std@@@4@$0A@@std@@@std@@IAEPAU_Node@?$_Tree_nod@V?$_Tmap_traits@PAUHWND__@@UWndMoveData@@U?$less@PAUHWND__@@@std@@V?$allocator@U?$pair@QAUHWND__@@UWndMoveData@@@std@@@4@$0A@@std@@@2@PAU342@00ABU?$pair@QAUHWND__@@UWndMoveData@@@2@D@Z
_TEXT	SEGMENT PARA USE32 PUBLIC 'CODE'
_TEXT	ENDS
;	COMDAT ??0?$_Tree_ptr@V?$_Tmap_traits@PAUHWND__@@UWndMoveData@@U?$less@PAUHWND__@@@std@@V?$allocator@U?$pair@QAUHWND__@@UWndMoveData@@@std@@@4@$0A@@std@@@std@@IAE@ABU?$less@PAUHWND__@@@1@V?$allocator@U?$pair@QAUHWND__@@UWndMoveData@@@std@@@1@@Z
_TEXT	SEGMENT PARA USE32 PUBLIC 'CODE'
_TEXT	ENDS
;	COMDAT ??Fconst_iterator@?$_Tree@V?$_Tmap_traits@PAUHWND__@@UWndMoveData@@U?$less@PAUHWND__@@@std@@V?$allocator@U?$pair@QAUHWND__@@UWndMoveData@@@std@@@4@$0A@@std@@@std@@QAEAAV012@XZ
_TEXT	SEGMENT PARA USE32 PUBLIC 'CODE'
_TEXT	ENDS
;	COMDAT ?_Inc@const_iterator@?$_Tree@V?$_Tmap_traits@PAUHWND__@@UWndMoveData@@U?$less@PAUHWND__@@@std@@V?$allocator@U?$pair@QAUHWND__@@UWndMoveData@@@std@@@4@$0A@@std@@@std@@QAEXXZ
_TEXT	SEGMENT PARA USE32 PUBLIC 'CODE'
_TEXT	ENDS
;	COMDAT ??0?$pair@Viterator@?$_Tree@V?$_Tmap_traits@PAUHWND__@@UWndMoveData@@U?$less@PAUHWND__@@@std@@V?$allocator@U?$pair@QAUHWND__@@UWndMoveData@@@std@@@4@$0A@@std@@@std@@_N@std@@QAE@ABViterator@?$_Tree@V?$_Tmap_traits@PAUHWND__@@UWndMoveData@@U?$less@PAUHWND__@@@std@@V?$allocator@U?$pair@QAUHWND__@@UWndMoveData@@@std@@@4@$0A@@std@@@1@AB_N@Z
_TEXT	SEGMENT PARA USE32 PUBLIC 'CODE'
_TEXT	ENDS
;	COMDAT ?_Max@?$_Tree@V?$_Tmap_traits@PAUHWND__@@UWndMoveData@@U?$less@PAUHWND__@@@std@@V?$allocator@U?$pair@QAUHWND__@@UWndMoveData@@@std@@@4@$0A@@std@@@std@@KAPAU_Node@?$_Tree_nod@V?$_Tmap_traits@PAUHWND__@@UWndMoveData@@U?$less@PAUHWND__@@@std@@V?$allocator@U?$pair@QAUHWND__@@UWndMoveData@@@std@@@4@$0A@@std@@@2@PAU342@@Z
_TEXT	SEGMENT PARA USE32 PUBLIC 'CODE'
_TEXT	ENDS
;	COMDAT ?_Min@?$_Tree@V?$_Tmap_traits@PAUHWND__@@UWndMoveData@@U?$less@PAUHWND__@@@std@@V?$allocator@U?$pair@QAUHWND__@@UWndMoveData@@@std@@@4@$0A@@std@@@std@@KAPAU_Node@?$_Tree_nod@V?$_Tmap_traits@PAUHWND__@@UWndMoveData@@U?$less@PAUHWND__@@@std@@V?$allocator@U?$pair@QAUHWND__@@UWndMoveData@@@std@@@4@$0A@@std@@@2@PAU342@@Z
_TEXT	SEGMENT PARA USE32 PUBLIC 'CODE'
_TEXT	ENDS
;	COMDAT ??0?$_Tree_nod@V?$_Tmap_traits@PAUHWND__@@UWndMoveData@@U?$less@PAUHWND__@@@std@@V?$allocator@U?$pair@QAUHWND__@@UWndMoveData@@@std@@@4@$0A@@std@@@std@@IAE@ABU?$less@PAUHWND__@@@1@V?$allocator@U?$pair@QAUHWND__@@UWndMoveData@@@std@@@1@@Z
_TEXT	SEGMENT PARA USE32 PUBLIC 'CODE'
_TEXT	ENDS
;	COMDAT ?max_size@?$allocator@U?$pair@QAUHWND__@@UWndMoveData@@@std@@@std@@QBEIXZ
_TEXT	SEGMENT PARA USE32 PUBLIC 'CODE'
_TEXT	ENDS
;	COMDAT ?allocate@?$allocator@U_Node@?$_Tree_nod@V?$_Tmap_traits@PAUHWND__@@UWndMoveData@@U?$less@PAUHWND__@@@std@@V?$allocator@U?$pair@QAUHWND__@@UWndMoveData@@@std@@@4@$0A@@std@@@std@@@std@@QAEPAU_Node@?$_Tree_nod@V?$_Tmap_traits@PAUHWND__@@UWndMoveData@@U?$less@PAUHWND__@@@std@@V?$allocator@U?$pair@QAUHWND__@@UWndMoveData@@@std@@@4@$0A@@std@@@2@I@Z
_TEXT	SEGMENT PARA USE32 PUBLIC 'CODE'
_TEXT	ENDS
;	COMDAT ?construct@?$allocator@PAU_Node@?$_Tree_nod@V?$_Tmap_traits@PAUHWND__@@UWndMoveData@@U?$less@PAUHWND__@@@std@@V?$allocator@U?$pair@QAUHWND__@@UWndMoveData@@@std@@@4@$0A@@std@@@std@@@std@@QAEXPAPAU_Node@?$_Tree_nod@V?$_Tmap_traits@PAUHWND__@@UWndMoveData@@U?$less@PAUHWND__@@@std@@V?$allocator@U?$pair@QAUHWND__@@UWndMoveData@@@std@@@4@$0A@@std@@@2@ABQAU342@@Z
_TEXT	SEGMENT PARA USE32 PUBLIC 'CODE'
_TEXT	ENDS
;	COMDAT ?_Dec@const_iterator@?$_Tree@V?$_Tmap_traits@PAUHWND__@@UWndMoveData@@U?$less@PAUHWND__@@@std@@V?$allocator@U?$pair@QAUHWND__@@UWndMoveData@@@std@@@4@$0A@@std@@@std@@QAEXXZ
_TEXT	SEGMENT PARA USE32 PUBLIC 'CODE'
_TEXT	ENDS
;	COMDAT ??0_Node@?$_Tree_nod@V?$_Tmap_traits@PAUHWND__@@UWndMoveData@@U?$less@PAUHWND__@@@std@@V?$allocator@U?$pair@QAUHWND__@@UWndMoveData@@@std@@@4@$0A@@std@@@std@@QAE@PAU012@00ABU?$pair@QAUHWND__@@UWndMoveData@@@2@D@Z
_TEXT	SEGMENT PARA USE32 PUBLIC 'CODE'
_TEXT	ENDS
;	COMDAT ??0?$_Tmap_traits@PAUHWND__@@UWndMoveData@@U?$less@PAUHWND__@@@std@@V?$allocator@U?$pair@QAUHWND__@@UWndMoveData@@@std@@@4@$0A@@std@@QAE@U?$less@PAUHWND__@@@1@@Z
_TEXT	SEGMENT PARA USE32 PUBLIC 'CODE'
_TEXT	ENDS
;	COMDAT ?Unlock@?$CComCritSecLock@VCComCriticalSection@ATL@@@ATL@@QAEXXZ
_TEXT	SEGMENT PARA USE32 PUBLIC 'CODE'
_TEXT	ENDS
;	COMDAT ??$_Maklocstr@D@std@@YAPADPBDPADABU_Cvtvec@@@Z
_TEXT	SEGMENT PARA USE32 PUBLIC 'CODE'
_TEXT	ENDS
;	COMDAT ??$_Destroy@U_Node@?$_Tree_nod@V?$_Tmap_traits@PAUHWND__@@UWndMoveData@@U?$less@PAUHWND__@@@std@@V?$allocator@U?$pair@QAUHWND__@@UWndMoveData@@@std@@@4@$0A@@std@@@std@@@std@@YAXPAU_Node@?$_Tree_nod@V?$_Tmap_traits@PAUHWND__@@UWndMoveData@@U?$less@PAUHWND__@@@std@@V?$allocator@U?$pair@QAUHWND__@@UWndMoveData@@@std@@@4@$0A@@std@@@0@@Z
_TEXT	SEGMENT PARA USE32 PUBLIC 'CODE'
_TEXT	ENDS
;	COMDAT ??$_Destroy@PAU_Node@?$_Tree_nod@V?$_Tmap_traits@PAUHWND__@@UWndMoveData@@U?$less@PAUHWND__@@@std@@V?$allocator@U?$pair@QAUHWND__@@UWndMoveData@@@std@@@4@$0A@@std@@@std@@@std@@YAXPAPAU_Node@?$_Tree_nod@V?$_Tmap_traits@PAUHWND__@@UWndMoveData@@U?$less@PAUHWND__@@@std@@V?$allocator@U?$pair@QAUHWND__@@UWndMoveData@@@std@@@4@$0A@@std@@@0@@Z
_TEXT	SEGMENT PARA USE32 PUBLIC 'CODE'
_TEXT	ENDS
;	COMDAT ??$?0U?$pair@QAUHWND__@@UWndMoveData@@@std@@@?$allocator@PAU_Node@?$_Tree_nod@V?$_Tmap_traits@PAUHWND__@@UWndMoveData@@U?$less@PAUHWND__@@@std@@V?$allocator@U?$pair@QAUHWND__@@UWndMoveData@@@std@@@4@$0A@@std@@@std@@@std@@QAE@ABV?$allocator@U?$pair@QAUHWND__@@UWndMoveData@@@std@@@1@@Z
_TEXT	SEGMENT PARA USE32 PUBLIC 'CODE'
_TEXT	ENDS
;	COMDAT ??$?0U?$pair@QAUHWND__@@UWndMoveData@@@std@@@?$allocator@U_Node@?$_Tree_nod@V?$_Tmap_traits@PAUHWND__@@UWndMoveData@@U?$less@PAUHWND__@@@std@@V?$allocator@U?$pair@QAUHWND__@@UWndMoveData@@@std@@@4@$0A@@std@@@std@@@std@@QAE@ABV?$allocator@U?$pair@QAUHWND__@@UWndMoveData@@@std@@@1@@Z
_TEXT	SEGMENT PARA USE32 PUBLIC 'CODE'
_TEXT	ENDS
;	COMDAT ??$_Allocate@U_Node@?$_Tree_nod@V?$_Tmap_traits@PAUHWND__@@UWndMoveData@@U?$less@PAUHWND__@@@std@@V?$allocator@U?$pair@QAUHWND__@@UWndMoveData@@@std@@@4@$0A@@std@@@std@@@std@@YAPAU_Node@?$_Tree_nod@V?$_Tmap_traits@PAUHWND__@@UWndMoveData@@U?$less@PAUHWND__@@@std@@V?$allocator@U?$pair@QAUHWND__@@UWndMoveData@@@std@@@4@$0A@@std@@@0@IPAU120@@Z
_TEXT	SEGMENT PARA USE32 PUBLIC 'CODE'
_TEXT	ENDS
;	COMDAT ??$_Construct@PAU_Node@?$_Tree_nod@V?$_Tmap_traits@PAUHWND__@@UWndMoveData@@U?$less@PAUHWND__@@@std@@V?$allocator@U?$pair@QAUHWND__@@UWndMoveData@@@std@@@4@$0A@@std@@@std@@PAU123@@std@@YAXPAPAU_Node@?$_Tree_nod@V?$_Tmap_traits@PAUHWND__@@UWndMoveData@@U?$less@PAUHWND__@@@std@@V?$allocator@U?$pair@QAUHWND__@@UWndMoveData@@@std@@@4@$0A@@std@@@0@ABQAU120@@Z
_TEXT	SEGMENT PARA USE32 PUBLIC 'CODE'
_TEXT	ENDS
;	COMDAT ??_R3IData@@8
rdata$r	SEGMENT DWORD USE32 PUBLIC 'CONST'
rdata$r	ENDS
;	COMDAT ??_R3?$numpunct@_W@std@@8
rdata$r	SEGMENT DWORD USE32 PUBLIC 'CONST'
rdata$r	ENDS
;	COMDAT ??_R3?$numpunct@D@std@@8
rdata$r	SEGMENT DWORD USE32 PUBLIC 'CONST'
rdata$r	ENDS
;	COMDAT ??_R2IData@@8
rdata$r	SEGMENT DWORD USE32 PUBLIC 'CONST'
rdata$r	ENDS
;	COMDAT ??_R2?$numpunct@_W@std@@8
rdata$r	SEGMENT DWORD USE32 PUBLIC 'CONST'
rdata$r	ENDS
;	COMDAT ??_R2?$numpunct@D@std@@8
rdata$r	SEGMENT DWORD USE32 PUBLIC 'CONST'
rdata$r	ENDS
;	COMDAT ??_R1A@?0A@A@IData@@8
rdata$r	SEGMENT DWORD USE32 PUBLIC 'CONST'
rdata$r	ENDS
;	COMDAT ??_R1A@?0A@A@?$numpunct@_W@std@@8
rdata$r	SEGMENT DWORD USE32 PUBLIC 'CONST'
rdata$r	ENDS
;	COMDAT ??_R1A@?0A@A@facet@locale@std@@8
rdata$r	SEGMENT DWORD USE32 PUBLIC 'CONST'
rdata$r	ENDS
;	COMDAT ??_R0?AVfacet@locale@std@@@8
_DATA	SEGMENT DWORD USE32 PUBLIC 'DATA'
_DATA	ENDS
;	COMDAT ??_R1A@?0A@A@?$numpunct@D@std@@8
rdata$r	SEGMENT DWORD USE32 PUBLIC 'CONST'
rdata$r	ENDS
;	COMDAT ??_R0?AVIData@@@8
_DATA	SEGMENT DWORD USE32 PUBLIC 'DATA'
_DATA	ENDS
;	COMDAT ??_R0?AV?$numpunct@_W@std@@@8
_DATA	SEGMENT DWORD USE32 PUBLIC 'DATA'
_DATA	ENDS
;	COMDAT ??_R0?AV?$numpunct@D@std@@@8
_DATA	SEGMENT DWORD USE32 PUBLIC 'DATA'
_DATA	ENDS
;	COMDAT ??_R4IData@@6B@
rdata$r	SEGMENT DWORD USE32 PUBLIC 'CONST'
rdata$r	ENDS
;	COMDAT ??0?$allocator@_W@std@@QAE@XZ
_TEXT	SEGMENT PARA USE32 PUBLIC 'CODE'
_TEXT	ENDS
;	COMDAT ??_G?$numpunct@_W@std@@MAEPAXI@Z
_TEXT	SEGMENT PARA USE32 PUBLIC 'CODE'
_TEXT	ENDS
;	COMDAT ??_R4?$numpunct@_W@std@@6B@
rdata$r	SEGMENT DWORD USE32 PUBLIC 'CONST'
rdata$r	ENDS
;	COMDAT ??_G?$numpunct@D@std@@MAEPAXI@Z
_TEXT	SEGMENT PARA USE32 PUBLIC 'CODE'
_TEXT	ENDS
;	COMDAT ??_R4?$numpunct@D@std@@6B@
rdata$r	SEGMENT DWORD USE32 PUBLIC 'CONST'
rdata$r	ENDS
;	COMDAT ?_Psave@?$_Facetptr@V?$numpunct@_W@std@@@std@@2PBVfacet@locale@2@B
_DATA	SEGMENT DWORD USE32 PUBLIC 'DATA'
_DATA	ENDS
;	COMDAT ?_Psave@?$_Facetptr@V?$numpunct@D@std@@@std@@2PBVfacet@locale@2@B
_DATA	SEGMENT DWORD USE32 PUBLIC 'DATA'
_DATA	ENDS
;	COMDAT ?Unlock@CComCriticalSection@ATL@@QAEJXZ
_TEXT	SEGMENT PARA USE32 PUBLIC 'CODE'
_TEXT	ENDS
;	COMDAT ?_Psave@?$_Facetptr@V?$ctype@_W@std@@@std@@2PBVfacet@locale@2@B
_DATA	SEGMENT DWORD USE32 PUBLIC 'DATA'
_DATA	ENDS
;	COMDAT ?_Psave@?$_Facetptr@V?$ctype@D@std@@@std@@2PBVfacet@locale@2@B
_DATA	SEGMENT DWORD USE32 PUBLIC 'DATA'
_DATA	ENDS
;	COMDAT ??3@YAXPAX0@Z
_TEXT	SEGMENT PARA USE32 PUBLIC 'CODE'
_TEXT	ENDS
;	COMDAT ??2@YAPAXIPAX@Z
_TEXT	SEGMENT PARA USE32 PUBLIC 'CODE'
_TEXT	ENDS
;	COMDAT ??$swap@D@std@@YAXAAD0@Z
_TEXT	SEGMENT PARA USE32 PUBLIC 'CODE'
_TEXT	ENDS
;	COMDAT __TI3?AVout_of_range@std@@
xdata$x	SEGMENT DWORD USE32 PUBLIC 'CONST'
xdata$x	ENDS
;	COMDAT ??1out_of_range@std@@UAE@XZ
_TEXT	SEGMENT PARA USE32 PUBLIC 'CODE'
_TEXT	ENDS
;	COMDAT ??_7out_of_range@std@@6B@
CONST	SEGMENT DWORD USE32 PUBLIC 'CONST'
CONST	ENDS
;	COMDAT ??_R4out_of_range@std@@6B@
rdata$r	SEGMENT DWORD USE32 PUBLIC 'CONST'
rdata$r	ENDS
;	COMDAT ??_R0?AVout_of_range@std@@@8
_DATA	SEGMENT DWORD USE32 PUBLIC 'DATA'
_DATA	ENDS
;	COMDAT ??_R3out_of_range@std@@8
rdata$r	SEGMENT DWORD USE32 PUBLIC 'CONST'
rdata$r	ENDS
;	COMDAT ??_R2out_of_range@std@@8
rdata$r	SEGMENT DWORD USE32 PUBLIC 'CONST'
rdata$r	ENDS
;	COMDAT ??_R1A@?0A@A@out_of_range@std@@8
rdata$r	SEGMENT DWORD USE32 PUBLIC 'CONST'
rdata$r	ENDS
;	COMDAT ??_R1A@?0A@A@logic_error@std@@8
rdata$r	SEGMENT DWORD USE32 PUBLIC 'CONST'
rdata$r	ENDS
;	COMDAT ??_R0?AVlogic_error@std@@@8
_DATA	SEGMENT DWORD USE32 PUBLIC 'DATA'
_DATA	ENDS
;	COMDAT ??_R1A@?0A@A@exception@@8
rdata$r	SEGMENT DWORD USE32 PUBLIC 'CONST'
rdata$r	ENDS
;	COMDAT ??_R0?AVexception@@@8
_DATA	SEGMENT DWORD USE32 PUBLIC 'DATA'
_DATA	ENDS
;	COMDAT ??_Gout_of_range@std@@UAEPAXI@Z
_TEXT	SEGMENT PARA USE32 PUBLIC 'CODE'
_TEXT	ENDS
;	COMDAT ?what@logic_error@std@@UBEPBDXZ
_TEXT	SEGMENT PARA USE32 PUBLIC 'CODE'
_TEXT	ENDS
;	COMDAT __CTA3?AVout_of_range@std@@
xdata$x	SEGMENT DWORD USE32 PUBLIC 'CONST'
xdata$x	ENDS
;	COMDAT __CT??_R0?AVout_of_range@std@@@8??0out_of_range@std@@QAE@ABV01@@Z40
xdata$x	SEGMENT DWORD USE32 PUBLIC 'CONST'
xdata$x	ENDS
;	COMDAT ??0out_of_range@std@@QAE@ABV01@@Z
_TEXT	SEGMENT PARA USE32 PUBLIC 'CODE'
_TEXT	ENDS
;	COMDAT ??_C@_0BM@PAPJHAGI@invalid?5map?1set?$DMT?$DO?5iterator?$AA@
CONST	SEGMENT DWORD USE32 PUBLIC 'CONST'
CONST	ENDS
;	COMDAT ??0out_of_range@std@@QAE@ABV?$basic_string@DU?$char_traits@D@std@@V?$allocator@D@2@@1@@Z
_TEXT	SEGMENT PARA USE32 PUBLIC 'CODE'
_TEXT	ENDS
;	COMDAT ??0logic_error@std@@QAE@ABV?$basic_string@DU?$char_traits@D@std@@V?$allocator@D@2@@1@@Z
_TEXT	SEGMENT PARA USE32 PUBLIC 'CODE'
_TEXT	ENDS
;	COMDAT ??_7logic_error@std@@6B@
CONST	SEGMENT DWORD USE32 PUBLIC 'CONST'
CONST	ENDS
;	COMDAT ??_R4logic_error@std@@6B@
rdata$r	SEGMENT DWORD USE32 PUBLIC 'CONST'
rdata$r	ENDS
;	COMDAT ??_R3logic_error@std@@8
rdata$r	SEGMENT DWORD USE32 PUBLIC 'CONST'
rdata$r	ENDS
;	COMDAT ??_R2logic_error@std@@8
rdata$r	SEGMENT DWORD USE32 PUBLIC 'CONST'
rdata$r	ENDS
;	COMDAT ??_Glogic_error@std@@UAEPAXI@Z
_TEXT	SEGMENT PARA USE32 PUBLIC 'CODE'
_TEXT	ENDS
;	COMDAT ??_7length_error@std@@6B@
CONST	SEGMENT DWORD USE32 PUBLIC 'CONST'
CONST	ENDS
;	COMDAT ??_R4length_error@std@@6B@
rdata$r	SEGMENT DWORD USE32 PUBLIC 'CONST'
rdata$r	ENDS
;	COMDAT ??_R3length_error@std@@8
rdata$r	SEGMENT DWORD USE32 PUBLIC 'CONST'
rdata$r	ENDS
;	COMDAT ??_R2length_error@std@@8
rdata$r	SEGMENT DWORD USE32 PUBLIC 'CONST'
rdata$r	ENDS
;	COMDAT ??_R1A@?0A@A@length_error@std@@8
rdata$r	SEGMENT DWORD USE32 PUBLIC 'CONST'
rdata$r	ENDS
;	COMDAT ??_Glength_error@std@@UAEPAXI@Z
_TEXT	SEGMENT PARA USE32 PUBLIC 'CODE'
_TEXT	ENDS
;	COMDAT ??1logic_error@std@@UAE@XZ
_TEXT	SEGMENT PARA USE32 PUBLIC 'CODE'
_TEXT	ENDS
;	COMDAT ??0logic_error@std@@QAE@ABV01@@Z
_TEXT	SEGMENT PARA USE32 PUBLIC 'CODE'
_TEXT	ENDS
;	COMDAT __CTA3?AVlength_error@std@@
xdata$x	SEGMENT DWORD USE32 PUBLIC 'CONST'
xdata$x	ENDS
;	COMDAT ??1length_error@std@@UAE@XZ
_TEXT	SEGMENT PARA USE32 PUBLIC 'CODE'
_TEXT	ENDS
;	COMDAT __CT??_R0?AVexception@@@8??0exception@@QAE@ABV0@@Z12
xdata$x	SEGMENT DWORD USE32 PUBLIC 'CONST'
xdata$x	ENDS
;	COMDAT __CT??_R0?AVlogic_error@std@@@8??0logic_error@std@@QAE@ABV01@@Z40
xdata$x	SEGMENT DWORD USE32 PUBLIC 'CONST'
xdata$x	ENDS
;	COMDAT __CT??_R0?AVlength_error@std@@@8??0length_error@std@@QAE@ABV01@@Z40
xdata$x	SEGMENT DWORD USE32 PUBLIC 'CONST'
xdata$x	ENDS
;	COMDAT ??_R0?AVlength_error@std@@@8
_DATA	SEGMENT DWORD USE32 PUBLIC 'DATA'
_DATA	ENDS
;	COMDAT __TI3?AVlength_error@std@@
xdata$x	SEGMENT DWORD USE32 PUBLIC 'CONST'
xdata$x	ENDS
;	COMDAT ??0?$allocator@D@std@@QAE@ABV01@@Z
_TEXT	SEGMENT PARA USE32 PUBLIC 'CODE'
_TEXT	ENDS
;	COMDAT ??0?$allocator@D@std@@QAE@XZ
_TEXT	SEGMENT PARA USE32 PUBLIC 'CODE'
_TEXT	ENDS
;	COMDAT ?deallocate@?$allocator@D@std@@QAEXPADI@Z
_TEXT	SEGMENT PARA USE32 PUBLIC 'CODE'
_TEXT	ENDS
;	COMDAT ?max_size@?$allocator@D@std@@QBEIXZ
_TEXT	SEGMENT PARA USE32 PUBLIC 'CODE'
_TEXT	ENDS
;	COMDAT ?allocate@?$allocator@D@std@@QAEPADI@Z
_TEXT	SEGMENT PARA USE32 PUBLIC 'CODE'
_TEXT	ENDS
;	COMDAT ??$_Allocate@D@std@@YAPADIPAD@Z
_TEXT	SEGMENT PARA USE32 PUBLIC 'CODE'
_TEXT	ENDS
;	COMDAT ??0length_error@std@@QAE@ABV?$basic_string@DU?$char_traits@D@std@@V?$allocator@D@2@@1@@Z
_TEXT	SEGMENT PARA USE32 PUBLIC 'CODE'
_TEXT	ENDS
;	COMDAT ??$_Maklocchr@_W@std@@YA_WDPA_WABU_Cvtvec@@@Z
_TEXT	SEGMENT PARA USE32 PUBLIC 'CODE'
_TEXT	ENDS
;	COMDAT ??$_Maklocstr@_W@std@@YAPA_WPBDPA_WABU_Cvtvec@@@Z
_TEXT	SEGMENT PARA USE32 PUBLIC 'CODE'
_TEXT	ENDS
;	COMDAT ??$_Maklocchr@D@std@@YADDPADABU_Cvtvec@@@Z
_TEXT	SEGMENT PARA USE32 PUBLIC 'CODE'
_TEXT	ENDS
;	COMDAT ??_C@_04LOAJBDKD@true?$AA@
CONST	SEGMENT DWORD USE32 PUBLIC 'CONST'
CONST	ENDS
;	COMDAT ??_C@_05LAPONLG@false?$AA@
CONST	SEGMENT DWORD USE32 PUBLIC 'CONST'
CONST	ENDS
;	COMDAT _wmemcpy
_TEXT	SEGMENT PARA USE32 PUBLIC 'CODE'
_TEXT	ENDS
;	COMDAT ?max_size@?$allocator@_W@std@@QBEIXZ
_TEXT	SEGMENT PARA USE32 PUBLIC 'CODE'
_TEXT	ENDS
;	COMDAT ?allocate@?$allocator@_W@std@@QAEPA_WI@Z
_TEXT	SEGMENT PARA USE32 PUBLIC 'CODE'
_TEXT	ENDS
;	COMDAT ??$_Allocate@_W@std@@YAPA_WIPA_W@Z
_TEXT	SEGMENT PARA USE32 PUBLIC 'CODE'
_TEXT	ENDS
;	COMDAT ??_C@_01GFHCPBMG@C?$AA@
CONST	SEGMENT DWORD USE32 PUBLIC 'CONST'
CONST	ENDS
;	COMDAT ?_Peek@?$istreambuf_iterator@_WU?$char_traits@_W@std@@@std@@AAE_WXZ
_TEXT	SEGMENT PARA USE32 PUBLIC 'CODE'
_TEXT	ENDS
;	COMDAT ?_Peek@?$istreambuf_iterator@DU?$char_traits@D@std@@@std@@AAEDXZ
_TEXT	SEGMENT PARA USE32 PUBLIC 'CODE'
_TEXT	ENDS
;	COMDAT ??$use_facet@V?$ctype@_W@std@@@std@@YAABV?$ctype@_W@0@ABVlocale@0@@Z
_TEXT	SEGMENT PARA USE32 PUBLIC 'CODE'
_TEXT	ENDS
;	COMDAT ??_S?$ctype@_W@std@@6B@
CONST	SEGMENT DWORD USE32 PUBLIC 'CONST'
CONST	ENDS
;	COMDAT ??_R4?$ctype@_W@std@@6B@
rdata$r	SEGMENT DWORD USE32 PUBLIC 'CONST'
rdata$r	ENDS
;	COMDAT ??_R0?AV?$ctype@_W@std@@@8
_DATA	SEGMENT DWORD USE32 PUBLIC 'DATA'
_DATA	ENDS
;	COMDAT ??_R3?$ctype@_W@std@@8
rdata$r	SEGMENT DWORD USE32 PUBLIC 'CONST'
rdata$r	ENDS
;	COMDAT ??_R2?$ctype@_W@std@@8
rdata$r	SEGMENT DWORD USE32 PUBLIC 'CONST'
rdata$r	ENDS
;	COMDAT ??_R1A@?0A@A@?$ctype@_W@std@@8
rdata$r	SEGMENT DWORD USE32 PUBLIC 'CONST'
rdata$r	ENDS
;	COMDAT ??_R1A@?0A@A@ctype_base@std@@8
rdata$r	SEGMENT DWORD USE32 PUBLIC 'CONST'
rdata$r	ENDS
;	COMDAT ??_R0?AUctype_base@std@@@8
_DATA	SEGMENT DWORD USE32 PUBLIC 'DATA'
_DATA	ENDS
;	COMDAT ??_G?$ctype@_W@std@@MAEPAXI@Z
_TEXT	SEGMENT PARA USE32 PUBLIC 'CODE'
_TEXT	ENDS
;	COMDAT ??_C@_08EPJLHIJG@bad?5cast?$AA@
CONST	SEGMENT DWORD USE32 PUBLIC 'CONST'
CONST	ENDS
;	COMDAT __TI2?AVbad_cast@@
xdata$x	SEGMENT DWORD USE32 PUBLIC 'CONST'
xdata$x	ENDS
;	COMDAT __CTA2?AVbad_cast@@
xdata$x	SEGMENT DWORD USE32 PUBLIC 'CONST'
xdata$x	ENDS
;	COMDAT __CT??_R0?AVbad_cast@@@8??0bad_cast@@QAE@ABV0@@Z12
xdata$x	SEGMENT DWORD USE32 PUBLIC 'CONST'
xdata$x	ENDS
;	COMDAT ??_R0?AVbad_cast@@@8
_DATA	SEGMENT DWORD USE32 PUBLIC 'DATA'
_DATA	ENDS
;	COMDAT ??$use_facet@V?$ctype@D@std@@@std@@YAABV?$ctype@D@0@ABVlocale@0@@Z
_TEXT	SEGMENT PARA USE32 PUBLIC 'CODE'
_TEXT	ENDS
;	COMDAT ??_S?$ctype@D@std@@6B@
CONST	SEGMENT DWORD USE32 PUBLIC 'CONST'
CONST	ENDS
;	COMDAT ??_R4?$ctype@D@std@@6B@
rdata$r	SEGMENT DWORD USE32 PUBLIC 'CONST'
rdata$r	ENDS
;	COMDAT ??_R0?AV?$ctype@D@std@@@8
_DATA	SEGMENT DWORD USE32 PUBLIC 'DATA'
_DATA	ENDS
;	COMDAT ??_R3?$ctype@D@std@@8
rdata$r	SEGMENT DWORD USE32 PUBLIC 'CONST'
rdata$r	ENDS
;	COMDAT ??_R2?$ctype@D@std@@8
rdata$r	SEGMENT DWORD USE32 PUBLIC 'CONST'
rdata$r	ENDS
;	COMDAT ??_R1A@?0A@A@?$ctype@D@std@@8
rdata$r	SEGMENT DWORD USE32 PUBLIC 'CONST'
rdata$r	ENDS
;	COMDAT ??_G?$ctype@D@std@@MAEPAXI@Z
_TEXT	SEGMENT PARA USE32 PUBLIC 'CODE'
_TEXT	ENDS
;	COMDAT ??_S?$numpunct@_W@std@@6B@
CONST	SEGMENT DWORD USE32 PUBLIC 'CONST'
CONST	ENDS
;	COMDAT ??_S?$numpunct@D@std@@6B@
CONST	SEGMENT DWORD USE32 PUBLIC 'CONST'
CONST	ENDS
;	COMDAT _wmemmove
_TEXT	SEGMENT PARA USE32 PUBLIC 'CODE'
_TEXT	ENDS
;	COMDAT ?deallocate@?$allocator@_W@std@@QAEXPA_WI@Z
_TEXT	SEGMENT PARA USE32 PUBLIC 'CODE'
_TEXT	ENDS
;	COMDAT ??0?$allocator@_W@std@@QAE@ABV01@@Z
_TEXT	SEGMENT PARA USE32 PUBLIC 'CODE'
_TEXT	ENDS
;	COMDAT ?PatBlt@CDC@@QAEHHHHHK@Z
_TEXT	SEGMENT PARA USE32 PUBLIC 'CODE'
_TEXT	ENDS
;	COMDAT ??1CBrush@@UAE@XZ
_TEXT	SEGMENT PARA USE32 PUBLIC 'CODE'
_TEXT	ENDS
;	COMDAT ??_7CBrush@@6B@
CONST	SEGMENT DWORD USE32 PUBLIC 'CONST'
CONST	ENDS
;	COMDAT ??_R4CBrush@@6B@
rdata$r	SEGMENT DWORD USE32 PUBLIC 'CONST'
rdata$r	ENDS
;	COMDAT ??_R0?AVCBrush@@@8
_DATA	SEGMENT DWORD USE32 PUBLIC 'DATA'
_DATA	ENDS
;	COMDAT ??_R3CBrush@@8
rdata$r	SEGMENT DWORD USE32 PUBLIC 'CONST'
rdata$r	ENDS
;	COMDAT ??_R2CBrush@@8
rdata$r	SEGMENT DWORD USE32 PUBLIC 'CONST'
rdata$r	ENDS
;	COMDAT ??_R1A@?0A@A@CBrush@@8
rdata$r	SEGMENT DWORD USE32 PUBLIC 'CONST'
rdata$r	ENDS
;	COMDAT ??_R1A@?0A@A@CGdiObject@@8
rdata$r	SEGMENT DWORD USE32 PUBLIC 'CONST'
rdata$r	ENDS
;	COMDAT ??_R0?AVCGdiObject@@@8
_DATA	SEGMENT DWORD USE32 PUBLIC 'DATA'
_DATA	ENDS
;	COMDAT ??_R1A@?0A@A@CObject@@8
rdata$r	SEGMENT DWORD USE32 PUBLIC 'CONST'
rdata$r	ENDS
;	COMDAT ??_R0?AVCObject@@@8
_DATA	SEGMENT DWORD USE32 PUBLIC 'DATA'
_DATA	ENDS
;	COMDAT ??_GCBrush@@UAEPAXI@Z
_TEXT	SEGMENT PARA USE32 PUBLIC 'CODE'
_TEXT	ENDS
;	COMDAT ??3CObject@@SGXPAX@Z
_TEXT	SEGMENT PARA USE32 PUBLIC 'CODE'
_TEXT	ENDS
;	COMDAT ?Serialize@CObject@@UAEXAAVCArchive@@@Z
_TEXT	SEGMENT PARA USE32 PUBLIC 'CODE'
_TEXT	ENDS
;	COMDAT ?AssertValid@CObject@@UBEXXZ
_TEXT	SEGMENT PARA USE32 PUBLIC 'CODE'
_TEXT	ENDS
;	COMDAT ?Dump@CObject@@UBEXAAVCDumpContext@@@Z
_TEXT	SEGMENT PARA USE32 PUBLIC 'CODE'
_TEXT	ENDS
;	COMDAT ??1CGdiObject@@UAE@XZ
_TEXT	SEGMENT PARA USE32 PUBLIC 'CODE'
_TEXT	ENDS
;	COMDAT ??_7CGdiObject@@6B@
CONST	SEGMENT DWORD USE32 PUBLIC 'CONST'
CONST	ENDS
;	COMDAT ??_R4CGdiObject@@6B@
rdata$r	SEGMENT DWORD USE32 PUBLIC 'CONST'
rdata$r	ENDS
;	COMDAT ??_R3CGdiObject@@8
rdata$r	SEGMENT DWORD USE32 PUBLIC 'CONST'
rdata$r	ENDS
;	COMDAT ??_R2CGdiObject@@8
rdata$r	SEGMENT DWORD USE32 PUBLIC 'CONST'
rdata$r	ENDS
;	COMDAT ??_GCGdiObject@@UAEPAXI@Z
_TEXT	SEGMENT PARA USE32 PUBLIC 'CODE'
_TEXT	ENDS
;	COMDAT ??1CObject@@UAE@XZ
_TEXT	SEGMENT PARA USE32 PUBLIC 'CODE'
_TEXT	ENDS
;	COMDAT ?LoadBitmapA@CBitmap@@QAEHI@Z
_TEXT	SEGMENT PARA USE32 PUBLIC 'CODE'
_TEXT	ENDS
;	COMDAT ??1CBitmap@@UAE@XZ
_TEXT	SEGMENT PARA USE32 PUBLIC 'CODE'
_TEXT	ENDS
;	COMDAT ??_7CBitmap@@6B@
CONST	SEGMENT DWORD USE32 PUBLIC 'CONST'
CONST	ENDS
;	COMDAT ??_R4CBitmap@@6B@
rdata$r	SEGMENT DWORD USE32 PUBLIC 'CONST'
rdata$r	ENDS
;	COMDAT ??_R0?AVCBitmap@@@8
_DATA	SEGMENT DWORD USE32 PUBLIC 'DATA'
_DATA	ENDS
;	COMDAT ??_R3CBitmap@@8
rdata$r	SEGMENT DWORD USE32 PUBLIC 'CONST'
rdata$r	ENDS
;	COMDAT ??_R2CBitmap@@8
rdata$r	SEGMENT DWORD USE32 PUBLIC 'CONST'
rdata$r	ENDS
;	COMDAT ??_R1A@?0A@A@CBitmap@@8
rdata$r	SEGMENT DWORD USE32 PUBLIC 'CONST'
rdata$r	ENDS
;	COMDAT ??_GCBitmap@@UAEPAXI@Z
_TEXT	SEGMENT PARA USE32 PUBLIC 'CODE'
_TEXT	ENDS
;	COMDAT ??0CBitmap@@QAE@XZ
_TEXT	SEGMENT PARA USE32 PUBLIC 'CODE'
_TEXT	ENDS
;	COMDAT ??0CGdiObject@@QAE@XZ
_TEXT	SEGMENT PARA USE32 PUBLIC 'CODE'
_TEXT	ENDS
;	COMDAT ??0CObject@@IAE@XZ
_TEXT	SEGMENT PARA USE32 PUBLIC 'CODE'
_TEXT	ENDS
;	COMDAT ?GetParent@CWnd@@QBEPAV1@XZ
_TEXT	SEGMENT PARA USE32 PUBLIC 'CODE'
_TEXT	ENDS
;	COMDAT ?abs@@YAJJ@Z
_TEXT	SEGMENT PARA USE32 PUBLIC 'CODE'
_TEXT	ENDS
;	COMDAT ??8CPoint@@QBEHUtagPOINT@@@Z
_TEXT	SEGMENT PARA USE32 PUBLIC 'CODE'
_TEXT	ENDS
;	COMDAT ?MoveWindow@CWnd@@QAEXPBUtagRECT@@H@Z
_TEXT	SEGMENT PARA USE32 PUBLIC 'CODE'
_TEXT	ENDS
;	COMDAT ??0CRect@@QAE@PBUtagRECT@@@Z
_TEXT	SEGMENT PARA USE32 PUBLIC 'CODE'
_TEXT	ENDS
;	COMDAT ??BCRect@@QAEPAUtagRECT@@XZ
_TEXT	SEGMENT PARA USE32 PUBLIC 'CODE'
_TEXT	ENDS
;	COMDAT ?RectInRegion@CRgn@@QBEHPBUtagRECT@@@Z
_TEXT	SEGMENT PARA USE32 PUBLIC 'CODE'
_TEXT	ENDS
;	COMDAT ?CreateRectRgn@CRgn@@QAEHHHHH@Z
_TEXT	SEGMENT PARA USE32 PUBLIC 'CODE'
_TEXT	ENDS
;	COMDAT ??1CRgn@@UAE@XZ
_TEXT	SEGMENT PARA USE32 PUBLIC 'CODE'
_TEXT	ENDS
;	COMDAT ??_7CRgn@@6B@
CONST	SEGMENT DWORD USE32 PUBLIC 'CONST'
CONST	ENDS
;	COMDAT ??_R4CRgn@@6B@
rdata$r	SEGMENT DWORD USE32 PUBLIC 'CONST'
rdata$r	ENDS
;	COMDAT ??_R0?AVCRgn@@@8
_DATA	SEGMENT DWORD USE32 PUBLIC 'DATA'
_DATA	ENDS
;	COMDAT ??_R3CRgn@@8
rdata$r	SEGMENT DWORD USE32 PUBLIC 'CONST'
rdata$r	ENDS
;	COMDAT ??_R2CRgn@@8
rdata$r	SEGMENT DWORD USE32 PUBLIC 'CONST'
rdata$r	ENDS
;	COMDAT ??_R1A@?0A@A@CRgn@@8
rdata$r	SEGMENT DWORD USE32 PUBLIC 'CONST'
rdata$r	ENDS
;	COMDAT ??_GCRgn@@UAEPAXI@Z
_TEXT	SEGMENT PARA USE32 PUBLIC 'CODE'
_TEXT	ENDS
;	COMDAT ??0CRgn@@QAE@XZ
_TEXT	SEGMENT PARA USE32 PUBLIC 'CODE'
_TEXT	ENDS
;	COMDAT ?Width@CRect@@QBEHXZ
_TEXT	SEGMENT PARA USE32 PUBLIC 'CODE'
_TEXT	ENDS
;	COMDAT ?Height@CRect@@QBEHXZ
_TEXT	SEGMENT PARA USE32 PUBLIC 'CODE'
_TEXT	ENDS
;	COMDAT ?OffsetRect@CRect@@QAEXHH@Z
_TEXT	SEGMENT PARA USE32 PUBLIC 'CODE'
_TEXT	ENDS
;	COMDAT ??0CRect@@QAE@XZ
_TEXT	SEGMENT PARA USE32 PUBLIC 'CODE'
_TEXT	ENDS
;	COMDAT ??0CPoint@@QAE@XZ
_TEXT	SEGMENT PARA USE32 PUBLIC 'CODE'
_TEXT	ENDS
;	COMDAT ?IsLocked@CStringData@ATL@@QBE_NXZ
_TEXT	SEGMENT PARA USE32 PUBLIC 'CODE'
_TEXT	ENDS
;	COMDAT ?AtlThrow@ATL@@YGXJ@Z
_TEXT	SEGMENT PARA USE32 PUBLIC 'CODE'
_TEXT	ENDS
;	COMDAT ?IsShared@CStringData@ATL@@QBE_NXZ
_TEXT	SEGMENT PARA USE32 PUBLIC 'CODE'
_TEXT	ENDS
;	COMDAT ?data@CStringData@ATL@@QAEPAXXZ
_TEXT	SEGMENT PARA USE32 PUBLIC 'CODE'
_TEXT	ENDS
;	COMDAT ?AddRef@CStringData@ATL@@QAEXXZ
_TEXT	SEGMENT PARA USE32 PUBLIC 'CODE'
_TEXT	ENDS
;	COMDAT ?Release@CStringData@ATL@@QAEXXZ
_TEXT	SEGMENT PARA USE32 PUBLIC 'CODE'
_TEXT	ENDS
;	COMDAT ??_7IData@@6B@
CONST	SEGMENT DWORD USE32 PUBLIC 'CONST'
CONST	ENDS
sxdata	SEGMENT DWORD USE32 'SXDATA'
sxdata	ENDS
FLAT	GROUP _DATA, CONST, _BSS
	ASSUME	CS: FLAT, DS: FLAT, SS: FLAT
endif

INCLUDELIB MSVCRT
INCLUDELIB OLDNAMES

PUBLIC	?m_pMover@CWindowsMover@@0PAV1@A		; CWindowsMover::m_pMover
_BSS	SEGMENT
?m_pMover@CWindowsMover@@0PAV1@A DD 01H DUP (?)		; CWindowsMover::m_pMover
_BSS	ENDS
PUBLIC	?GetInstance@CWindowsMover@@SAPAV1@XZ		; CWindowsMover::GetInstance
PUBLIC	??0CWindowsMover@@AAE@XZ			; CWindowsMover::CWindowsMover
EXTRN	??2@YAPAXI@Z:NEAR				; operator new
EXTRN	??3@YAXPAX@Z:NEAR				; operator delete
EXTRN	__except_list:DWORD
EXTRN	___CxxFrameHandler:NEAR
xdata$x	SEGMENT
$T199932 DD	0ffffffffH
	DD	FLAT:$L199925
$T199929 DD	019930520H
	DD	01H
	DD	FLAT:$T199932
	DD	2 DUP(00H)
	DD	2 DUP(00H)
; Function compile flags: /Odt
; File d:\boxgit\playbox\playbox\dev\prj\playbox\src\layoutmgr\seperatemode\windowsmover.cpp
xdata$x	ENDS
_TEXT	SEGMENT
tv72 = -24						; size = 4
$T199922 = -20						; size = 4
$T199921 = -16						; size = 4
__$EHRec$ = -12						; size = 12
?GetInstance@CWindowsMover@@SAPAV1@XZ PROC NEAR		; CWindowsMover::GetInstance

; 8    : {

  00000	55		 push	 ebp
  00001	8b ec		 mov	 ebp, esp
  00003	6a ff		 push	 -1
  00005	68 00 00 00 00	 push	 __ehhandler$?GetInstance@CWindowsMover@@SAPAV1@XZ
  0000a	64 a1 00 00 00
	00		 mov	 eax, DWORD PTR fs:__except_list
  00010	50		 push	 eax
  00011	64 89 25 00 00
	00 00		 mov	 DWORD PTR fs:__except_list, esp
  00018	83 ec 0c	 sub	 esp, 12			; 0000000cH

; 9    : 	if(m_pMover == NULL)

  0001b	83 3d 00 00 00
	00 00		 cmp	 DWORD PTR ?m_pMover@CWindowsMover@@0PAV1@A, 0 ; CWindowsMover::m_pMover
  00022	75 44		 jne	 SHORT $L198394

; 10   : 	{
; 11   : 		m_pMover = new CWindowsMover();

  00024	6a 40		 push	 64			; 00000040H
  00026	e8 00 00 00 00	 call	 ??2@YAPAXI@Z		; operator new
  0002b	83 c4 04	 add	 esp, 4
  0002e	89 45 ec	 mov	 DWORD PTR $T199922[ebp], eax
  00031	c7 45 fc 00 00
	00 00		 mov	 DWORD PTR __$EHRec$[ebp+8], 0
  00038	83 7d ec 00	 cmp	 DWORD PTR $T199922[ebp], 0
  0003c	74 0d		 je	 SHORT $L199923
  0003e	8b 4d ec	 mov	 ecx, DWORD PTR $T199922[ebp]
  00041	e8 00 00 00 00	 call	 ??0CWindowsMover@@AAE@XZ ; CWindowsMover::CWindowsMover
  00046	89 45 e8	 mov	 DWORD PTR tv72[ebp], eax
  00049	eb 07		 jmp	 SHORT $L199924
$L199923:
  0004b	c7 45 e8 00 00
	00 00		 mov	 DWORD PTR tv72[ebp], 0
$L199924:
  00052	8b 45 e8	 mov	 eax, DWORD PTR tv72[ebp]
  00055	89 45 f0	 mov	 DWORD PTR $T199921[ebp], eax
  00058	c7 45 fc ff ff
	ff ff		 mov	 DWORD PTR __$EHRec$[ebp+8], -1
  0005f	8b 4d f0	 mov	 ecx, DWORD PTR $T199921[ebp]
  00062	89 0d 00 00 00
	00		 mov	 DWORD PTR ?m_pMover@CWindowsMover@@0PAV1@A, ecx ; CWindowsMover::m_pMover
$L198394:

; 12   : 	}
; 13   : 
; 14   : 	return m_pMover;

  00068	a1 00 00 00 00	 mov	 eax, DWORD PTR ?m_pMover@CWindowsMover@@0PAV1@A ; CWindowsMover::m_pMover

; 15   : }

  0006d	8b 4d f4	 mov	 ecx, DWORD PTR __$EHRec$[ebp]
  00070	64 89 0d 00 00
	00 00		 mov	 DWORD PTR fs:__except_list, ecx
  00077	8b e5		 mov	 esp, ebp
  00079	5d		 pop	 ebp
  0007a	c3		 ret	 0
_TEXT	ENDS
text$x	SEGMENT
$L199925:
  00000	8b 45 ec	 mov	 eax, DWORD PTR $T199922[ebp]
  00003	50		 push	 eax
  00004	e8 00 00 00 00	 call	 ??3@YAXPAX@Z		; operator delete
  00009	59		 pop	 ecx
  0000a	c3		 ret	 0
__ehhandler$?GetInstance@CWindowsMover@@SAPAV1@XZ:
  0000b	b8 00 00 00 00	 mov	 eax, OFFSET FLAT:$T199929
  00010	e9 00 00 00 00	 jmp	 ___CxxFrameHandler
text$x	ENDS
?GetInstance@CWindowsMover@@SAPAV1@XZ ENDP		; CWindowsMover::GetInstance
PUBLIC	?DelInstance@CWindowsMover@@SAXXZ		; CWindowsMover::DelInstance
PUBLIC	??_GCWindowsMover@@AAEPAXI@Z			; CWindowsMover::`scalar deleting destructor'
; Function compile flags: /Odt
_TEXT	SEGMENT
tv68 = -12						; size = 4
$T199936 = -8						; size = 4
$T199935 = -4						; size = 4
?DelInstance@CWindowsMover@@SAXXZ PROC NEAR		; CWindowsMover::DelInstance

; 18   : {

  00080	55		 push	 ebp
  00081	8b ec		 mov	 ebp, esp
  00083	83 ec 0c	 sub	 esp, 12			; 0000000cH

; 19   : 	delete m_pMover;

  00086	a1 00 00 00 00	 mov	 eax, DWORD PTR ?m_pMover@CWindowsMover@@0PAV1@A ; CWindowsMover::m_pMover
  0008b	89 45 f8	 mov	 DWORD PTR $T199936[ebp], eax
  0008e	8b 4d f8	 mov	 ecx, DWORD PTR $T199936[ebp]
  00091	89 4d fc	 mov	 DWORD PTR $T199935[ebp], ecx
  00094	83 7d fc 00	 cmp	 DWORD PTR $T199935[ebp], 0
  00098	74 0f		 je	 SHORT $L199937
  0009a	6a 01		 push	 1
  0009c	8b 4d fc	 mov	 ecx, DWORD PTR $T199935[ebp]
  0009f	e8 00 00 00 00	 call	 ??_GCWindowsMover@@AAEPAXI@Z
  000a4	89 45 f4	 mov	 DWORD PTR tv68[ebp], eax
  000a7	eb 07		 jmp	 SHORT $L198400
$L199937:
  000a9	c7 45 f4 00 00
	00 00		 mov	 DWORD PTR tv68[ebp], 0
$L198400:

; 20   : }

  000b0	8b e5		 mov	 esp, ebp
  000b2	5d		 pop	 ebp
  000b3	c3		 ret	 0
?DelInstance@CWindowsMover@@SAXXZ ENDP			; CWindowsMover::DelInstance
_TEXT	ENDS
PUBLIC	??1CWindowsMover@@AAE@XZ			; CWindowsMover::~CWindowsMover
; Function compile flags: /Odt
;	COMDAT ??_GCWindowsMover@@AAEPAXI@Z
_TEXT	SEGMENT
_this$ = -4						; size = 4
___flags$ = 8						; size = 4
??_GCWindowsMover@@AAEPAXI@Z PROC NEAR			; CWindowsMover::`scalar deleting destructor', COMDAT
; _this$ = ecx
  00000	55		 push	 ebp
  00001	8b ec		 mov	 ebp, esp
  00003	51		 push	 ecx
  00004	89 4d fc	 mov	 DWORD PTR _this$[ebp], ecx
  00007	8b 4d fc	 mov	 ecx, DWORD PTR _this$[ebp]
  0000a	e8 00 00 00 00	 call	 ??1CWindowsMover@@AAE@XZ ; CWindowsMover::~CWindowsMover
  0000f	8b 45 08	 mov	 eax, DWORD PTR ___flags$[ebp]
  00012	83 e0 01	 and	 eax, 1
  00015	74 0c		 je	 SHORT $L198406
  00017	8b 4d fc	 mov	 ecx, DWORD PTR _this$[ebp]
  0001a	51		 push	 ecx
  0001b	e8 00 00 00 00	 call	 ??3@YAXPAX@Z		; operator delete
  00020	83 c4 04	 add	 esp, 4
$L198406:
  00023	8b 45 fc	 mov	 eax, DWORD PTR _this$[ebp]
  00026	8b e5		 mov	 esp, ebp
  00028	5d		 pop	 ebp
  00029	c2 04 00	 ret	 4
??_GCWindowsMover@@AAEPAXI@Z ENDP			; CWindowsMover::`scalar deleting destructor'
_TEXT	ENDS
PUBLIC	??0CPoint@@QAE@XZ				; CPoint::CPoint
PUBLIC	??0CRect@@QAE@XZ				; CRect::CRect
PUBLIC	??0?$map@PAUHWND__@@UWndMoveData@@U?$less@PAUHWND__@@@std@@V?$allocator@U?$pair@QAUHWND__@@UWndMoveData@@@std@@@4@@std@@QAE@XZ ; std::map<HWND__ *,WndMoveData,std::less<HWND__ *>,std::allocator<std::pair<HWND__ * const,WndMoveData> > >::map<HWND__ *,WndMoveData,std::less<HWND__ *>,std::allocator<std::pair<HWND__ * const,WndMoveData> > >
; Function compile flags: /Odt
_TEXT	SEGMENT
_this$ = -4						; size = 4
??0CWindowsMover@@AAE@XZ PROC NEAR			; CWindowsMover::CWindowsMover
; _this$ = ecx

; 23   : {

  000c0	55		 push	 ebp
  000c1	8b ec		 mov	 ebp, esp
  000c3	51		 push	 ecx
  000c4	89 4d fc	 mov	 DWORD PTR _this$[ebp], ecx
  000c7	8b 4d fc	 mov	 ecx, DWORD PTR _this$[ebp]
  000ca	83 c1 04	 add	 ecx, 4
  000cd	e8 00 00 00 00	 call	 ??0?$map@PAUHWND__@@UWndMoveData@@U?$less@PAUHWND__@@@std@@V?$allocator@U?$pair@QAUHWND__@@UWndMoveData@@@std@@@4@@std@@QAE@XZ ; std::map<HWND__ *,WndMoveData,std::less<HWND__ *>,std::allocator<std::pair<HWND__ * const,WndMoveData> > >::map<HWND__ *,WndMoveData,std::less<HWND__ *>,std::allocator<std::pair<HWND__ * const,WndMoveData> > >
  000d2	8b 4d fc	 mov	 ecx, DWORD PTR _this$[ebp]
  000d5	83 c1 14	 add	 ecx, 20			; 00000014H
  000d8	e8 00 00 00 00	 call	 ??0CPoint@@QAE@XZ	; CPoint::CPoint
  000dd	8b 4d fc	 mov	 ecx, DWORD PTR _this$[ebp]
  000e0	83 c1 1c	 add	 ecx, 28			; 0000001cH
  000e3	e8 00 00 00 00	 call	 ??0CPoint@@QAE@XZ	; CPoint::CPoint
  000e8	8b 4d fc	 mov	 ecx, DWORD PTR _this$[ebp]
  000eb	83 c1 2c	 add	 ecx, 44			; 0000002cH
  000ee	e8 00 00 00 00	 call	 ??0CRect@@QAE@XZ	; CRect::CRect

; 24   : 	m_bMouseDown = false;

  000f3	8b 45 fc	 mov	 eax, DWORD PTR _this$[ebp]
  000f6	c7 00 00 00 00
	00		 mov	 DWORD PTR [eax], 0

; 25   : 	m_bDontMoveContent = false;

  000fc	8b 4d fc	 mov	 ecx, DWORD PTR _this$[ebp]
  000ff	c7 41 3c 00 00
	00 00		 mov	 DWORD PTR [ecx+60], 0

; 26   : }

  00106	8b 45 fc	 mov	 eax, DWORD PTR _this$[ebp]
  00109	8b e5		 mov	 esp, ebp
  0010b	5d		 pop	 ebp
  0010c	c3		 ret	 0
??0CWindowsMover@@AAE@XZ ENDP				; CWindowsMover::CWindowsMover
_TEXT	ENDS
PUBLIC	??1?$map@PAUHWND__@@UWndMoveData@@U?$less@PAUHWND__@@@std@@V?$allocator@U?$pair@QAUHWND__@@UWndMoveData@@@std@@@4@@std@@QAE@XZ ; std::map<HWND__ *,WndMoveData,std::less<HWND__ *>,std::allocator<std::pair<HWND__ * const,WndMoveData> > >::~map<HWND__ *,WndMoveData,std::less<HWND__ *>,std::allocator<std::pair<HWND__ * const,WndMoveData> > >
; Function compile flags: /Odt
_TEXT	SEGMENT
_this$ = -4						; size = 4
??1CWindowsMover@@AAE@XZ PROC NEAR			; CWindowsMover::~CWindowsMover
; _this$ = ecx

; 29   : {

  00110	55		 push	 ebp
  00111	8b ec		 mov	 ebp, esp
  00113	51		 push	 ecx
  00114	89 4d fc	 mov	 DWORD PTR _this$[ebp], ecx

; 30   : }

  00117	8b 4d fc	 mov	 ecx, DWORD PTR _this$[ebp]
  0011a	83 c1 04	 add	 ecx, 4
  0011d	e8 00 00 00 00	 call	 ??1?$map@PAUHWND__@@UWndMoveData@@U?$less@PAUHWND__@@@std@@V?$allocator@U?$pair@QAUHWND__@@UWndMoveData@@@std@@@4@@std@@QAE@XZ
  00122	8b e5		 mov	 esp, ebp
  00124	5d		 pop	 ebp
  00125	c3		 ret	 0
??1CWindowsMover@@AAE@XZ ENDP				; CWindowsMover::~CWindowsMover
_TEXT	ENDS
PUBLIC	??1?$_Tree@V?$_Tmap_traits@PAUHWND__@@UWndMoveData@@U?$less@PAUHWND__@@@std@@V?$allocator@U?$pair@QAUHWND__@@UWndMoveData@@@std@@@4@$0A@@std@@@std@@QAE@XZ ; std::_Tree<std::_Tmap_traits<HWND__ *,WndMoveData,std::less<HWND__ *>,std::allocator<std::pair<HWND__ * const,WndMoveData> >,0> >::~_Tree<std::_Tmap_traits<HWND__ *,WndMoveData,std::less<HWND__ *>,std::allocator<std::pair<HWND__ * const,WndMoveData> >,0> >
; Function compile flags: /Odt
;	COMDAT ??1?$map@PAUHWND__@@UWndMoveData@@U?$less@PAUHWND__@@@std@@V?$allocator@U?$pair@QAUHWND__@@UWndMoveData@@@std@@@4@@std@@QAE@XZ
_TEXT	SEGMENT
_this$ = -4						; size = 4
??1?$map@PAUHWND__@@UWndMoveData@@U?$less@PAUHWND__@@@std@@V?$allocator@U?$pair@QAUHWND__@@UWndMoveData@@@std@@@4@@std@@QAE@XZ PROC NEAR ; std::map<HWND__ *,WndMoveData,std::less<HWND__ *>,std::allocator<std::pair<HWND__ * const,WndMoveData> > >::~map<HWND__ *,WndMoveData,std::less<HWND__ *>,std::allocator<std::pair<HWND__ * const,WndMoveData> > >, COMDAT
; _this$ = ecx
  00000	55		 push	 ebp
  00001	8b ec		 mov	 ebp, esp
  00003	51		 push	 ecx
  00004	89 4d fc	 mov	 DWORD PTR _this$[ebp], ecx
  00007	8b 4d fc	 mov	 ecx, DWORD PTR _this$[ebp]
  0000a	e8 00 00 00 00	 call	 ??1?$_Tree@V?$_Tmap_traits@PAUHWND__@@UWndMoveData@@U?$less@PAUHWND__@@@std@@V?$allocator@U?$pair@QAUHWND__@@UWndMoveData@@@std@@@4@$0A@@std@@@std@@QAE@XZ ; std::_Tree<std::_Tmap_traits<HWND__ *,WndMoveData,std::less<HWND__ *>,std::allocator<std::pair<HWND__ * const,WndMoveData> >,0> >::~_Tree<std::_Tmap_traits<HWND__ *,WndMoveData,std::less<HWND__ *>,std::allocator<std::pair<HWND__ * const,WndMoveData> >,0> >
  0000f	8b e5		 mov	 esp, ebp
  00011	5d		 pop	 ebp
  00012	c3		 ret	 0
??1?$map@PAUHWND__@@UWndMoveData@@U?$less@PAUHWND__@@@std@@V?$allocator@U?$pair@QAUHWND__@@UWndMoveData@@@std@@@4@@std@@QAE@XZ ENDP ; std::map<HWND__ *,WndMoveData,std::less<HWND__ *>,std::allocator<std::pair<HWND__ * const,WndMoveData> > >::~map<HWND__ *,WndMoveData,std::less<HWND__ *>,std::allocator<std::pair<HWND__ * const,WndMoveData> > >
_TEXT	ENDS
PUBLIC	??A?$map@PAUHWND__@@UWndMoveData@@U?$less@PAUHWND__@@@std@@V?$allocator@U?$pair@QAUHWND__@@UWndMoveData@@@std@@@4@@std@@QAEAAUWndMoveData@@ABQAUHWND__@@@Z ; std::map<HWND__ *,WndMoveData,std::less<HWND__ *>,std::allocator<std::pair<HWND__ * const,WndMoveData> > >::operator[]
PUBLIC	?AddWndindow@CWindowsMover@@QAEXPAVCWnd@@_N@Z	; CWindowsMover::AddWndindow
PUBLIC	??0WndMoveData@@QAE@XZ				; WndMoveData::WndMoveData
; Function compile flags: /Odt
_TEXT	SEGMENT
_this$ = -32						; size = 4
_data$ = -28						; size = 28
_pWnd$ = 8						; size = 4
_isMain$ = 12						; size = 1
?AddWndindow@CWindowsMover@@QAEXPAVCWnd@@_N@Z PROC NEAR	; CWindowsMover::AddWndindow
; _this$ = ecx

; 33   : {

  00130	55		 push	 ebp
  00131	8b ec		 mov	 ebp, esp
  00133	83 ec 20	 sub	 esp, 32			; 00000020H
  00136	56		 push	 esi
  00137	57		 push	 edi
  00138	89 4d e0	 mov	 DWORD PTR _this$[ebp], ecx

; 34   : 	WndMoveData data;

  0013b	8d 4d e4	 lea	 ecx, DWORD PTR _data$[ebp]
  0013e	e8 00 00 00 00	 call	 ??0WndMoveData@@QAE@XZ

; 35   : 	data.pWnd = pWnd;

  00143	8b 45 08	 mov	 eax, DWORD PTR _pWnd$[ebp]
  00146	89 45 e4	 mov	 DWORD PTR _data$[ebp], eax

; 36   : 	data.isMain = isMain;

  00149	8a 4d 0c	 mov	 cl, BYTE PTR _isMain$[ebp]
  0014c	88 4d fc	 mov	 BYTE PTR _data$[ebp+24], cl

; 37   : 	m_mapWndMoveData[pWnd->m_hWnd] = data;

  0014f	8b 55 08	 mov	 edx, DWORD PTR _pWnd$[ebp]
  00152	83 c2 20	 add	 edx, 32			; 00000020H
  00155	52		 push	 edx
  00156	8b 4d e0	 mov	 ecx, DWORD PTR _this$[ebp]
  00159	83 c1 04	 add	 ecx, 4
  0015c	e8 00 00 00 00	 call	 ??A?$map@PAUHWND__@@UWndMoveData@@U?$less@PAUHWND__@@@std@@V?$allocator@U?$pair@QAUHWND__@@UWndMoveData@@@std@@@4@@std@@QAEAAUWndMoveData@@ABQAUHWND__@@@Z ; std::map<HWND__ *,WndMoveData,std::less<HWND__ *>,std::allocator<std::pair<HWND__ * const,WndMoveData> > >::operator[]
  00161	b9 07 00 00 00	 mov	 ecx, 7
  00166	8d 75 e4	 lea	 esi, DWORD PTR _data$[ebp]
  00169	8b f8		 mov	 edi, eax
  0016b	f3 a5		 rep movsd

; 38   : }

  0016d	5f		 pop	 edi
  0016e	5e		 pop	 esi
  0016f	8b e5		 mov	 esp, ebp
  00171	5d		 pop	 ebp
  00172	c2 08 00	 ret	 8
?AddWndindow@CWindowsMover@@QAEXPAVCWnd@@_N@Z ENDP	; CWindowsMover::AddWndindow
; Function compile flags: /Odt
_TEXT	ENDS
;	COMDAT ??0WndMoveData@@QAE@XZ
_TEXT	SEGMENT
_this$ = -4						; size = 4
??0WndMoveData@@QAE@XZ PROC NEAR			; WndMoveData::WndMoveData, COMDAT
; _this$ = ecx
  00000	55		 push	 ebp
  00001	8b ec		 mov	 ebp, esp
  00003	51		 push	 ecx
  00004	89 4d fc	 mov	 DWORD PTR _this$[ebp], ecx
  00007	8b 4d fc	 mov	 ecx, DWORD PTR _this$[ebp]
  0000a	83 c1 04	 add	 ecx, 4
  0000d	e8 00 00 00 00	 call	 ??0CRect@@QAE@XZ	; CRect::CRect
  00012	8b 45 fc	 mov	 eax, DWORD PTR _this$[ebp]
  00015	8b e5		 mov	 esp, ebp
  00017	5d		 pop	 ebp
  00018	c3		 ret	 0
??0WndMoveData@@QAE@XZ ENDP				; WndMoveData::WndMoveData
_TEXT	ENDS
PUBLIC	?clear@?$_Tree@V?$_Tmap_traits@PAUHWND__@@UWndMoveData@@U?$less@PAUHWND__@@@std@@V?$allocator@U?$pair@QAUHWND__@@UWndMoveData@@@std@@@4@$0A@@std@@@std@@QAEXXZ ; std::_Tree<std::_Tmap_traits<HWND__ *,WndMoveData,std::less<HWND__ *>,std::allocator<std::pair<HWND__ * const,WndMoveData> >,0> >::clear
PUBLIC	?Clear@CWindowsMover@@QAEXXZ			; CWindowsMover::Clear
; Function compile flags: /Odt
_TEXT	SEGMENT
_this$ = -4						; size = 4
?Clear@CWindowsMover@@QAEXXZ PROC NEAR			; CWindowsMover::Clear
; _this$ = ecx

; 41   : {

  00180	55		 push	 ebp
  00181	8b ec		 mov	 ebp, esp
  00183	51		 push	 ecx
  00184	89 4d fc	 mov	 DWORD PTR _this$[ebp], ecx

; 42   : 	m_mapWndMoveData.clear();

  00187	8b 4d fc	 mov	 ecx, DWORD PTR _this$[ebp]
  0018a	83 c1 04	 add	 ecx, 4
  0018d	e8 00 00 00 00	 call	 ?clear@?$_Tree@V?$_Tmap_traits@PAUHWND__@@UWndMoveData@@U?$less@PAUHWND__@@@std@@V?$allocator@U?$pair@QAUHWND__@@UWndMoveData@@@std@@@4@$0A@@std@@@std@@QAEXXZ ; std::_Tree<std::_Tmap_traits<HWND__ *,WndMoveData,std::less<HWND__ *>,std::allocator<std::pair<HWND__ * const,WndMoveData> >,0> >::clear

; 43   : }

  00192	8b e5		 mov	 esp, ebp
  00194	5d		 pop	 ebp
  00195	c3		 ret	 0
?Clear@CWindowsMover@@QAEXXZ ENDP			; CWindowsMover::Clear
_TEXT	ENDS
PUBLIC	?GetAllWindowsRect@CWindowsMover@@AAEXXZ	; CWindowsMover::GetAllWindowsRect
; Function compile flags: /Odt
_TEXT	SEGMENT
_this$ = -4						; size = 4
?GetAllWindowsRect@CWindowsMover@@AAEXXZ PROC NEAR	; CWindowsMover::GetAllWindowsRect
; _this$ = ecx

; 46   : {

  001a0	55		 push	 ebp
  001a1	8b ec		 mov	 ebp, esp
  001a3	51		 push	 ecx
  001a4	89 4d fc	 mov	 DWORD PTR _this$[ebp], ecx

; 47   : 
; 48   : }

  001a7	8b e5		 mov	 esp, ebp
  001a9	5d		 pop	 ebp
  001aa	c3		 ret	 0
?GetAllWindowsRect@CWindowsMover@@AAEXXZ ENDP		; CWindowsMover::GetAllWindowsRect
_TEXT	ENDS
PUBLIC	?begin@?$_Tree@V?$_Tmap_traits@PAUHWND__@@UWndMoveData@@U?$less@PAUHWND__@@@std@@V?$allocator@U?$pair@QAUHWND__@@UWndMoveData@@@std@@@4@$0A@@std@@@std@@QAE?AViterator@12@XZ ; std::_Tree<std::_Tmap_traits<HWND__ *,WndMoveData,std::less<HWND__ *>,std::allocator<std::pair<HWND__ * const,WndMoveData> >,0> >::begin
PUBLIC	?end@?$_Tree@V?$_Tmap_traits@PAUHWND__@@UWndMoveData@@U?$less@PAUHWND__@@@std@@V?$allocator@U?$pair@QAUHWND__@@UWndMoveData@@@std@@@4@$0A@@std@@@std@@QAE?AViterator@12@XZ ; std::_Tree<std::_Tmap_traits<HWND__ *,WndMoveData,std::less<HWND__ *>,std::allocator<std::pair<HWND__ * const,WndMoveData> >,0> >::end
PUBLIC	?OffsetRect@CRect@@QAEXHH@Z			; CRect::OffsetRect
PUBLIC	?CalMovingWndNewPos@CWindowsMover@@AAEXXZ	; CWindowsMover::CalMovingWndNewPos
PUBLIC	??9const_iterator@?$_Tree@V?$_Tmap_traits@PAUHWND__@@UWndMoveData@@U?$less@PAUHWND__@@@std@@V?$allocator@U?$pair@QAUHWND__@@UWndMoveData@@@std@@@4@$0A@@std@@@std@@QBE_NABV012@@Z ; std::_Tree<std::_Tmap_traits<HWND__ *,WndMoveData,std::less<HWND__ *>,std::allocator<std::pair<HWND__ * const,WndMoveData> >,0> >::const_iterator::operator!=
PUBLIC	??Citerator@?$_Tree@V?$_Tmap_traits@PAUHWND__@@UWndMoveData@@U?$less@PAUHWND__@@@std@@V?$allocator@U?$pair@QAUHWND__@@UWndMoveData@@@std@@@4@$0A@@std@@@std@@QBEPAU?$pair@QAUHWND__@@UWndMoveData@@@2@XZ ; std::_Tree<std::_Tmap_traits<HWND__ *,WndMoveData,std::less<HWND__ *>,std::allocator<std::pair<HWND__ * const,WndMoveData> >,0> >::iterator::operator->
PUBLIC	??Eiterator@?$_Tree@V?$_Tmap_traits@PAUHWND__@@UWndMoveData@@U?$less@PAUHWND__@@@std@@V?$allocator@U?$pair@QAUHWND__@@UWndMoveData@@@std@@@4@$0A@@std@@@std@@QAE?AV012@H@Z ; std::_Tree<std::_Tmap_traits<HWND__ *,WndMoveData,std::less<HWND__ *>,std::allocator<std::pair<HWND__ * const,WndMoveData> >,0> >::iterator::operator++
; Function compile flags: /Odt
_TEXT	SEGMENT
_this$ = -32						; size = 4
$T199955 = -28						; size = 4
$T199954 = -24						; size = 4
_rc$198520 = -20					; size = 16
_it$ = -4						; size = 4
?CalMovingWndNewPos@CWindowsMover@@AAEXXZ PROC NEAR	; CWindowsMover::CalMovingWndNewPos
; _this$ = ecx

; 51   : {

  001b0	55		 push	 ebp
  001b1	8b ec		 mov	 ebp, esp
  001b3	83 ec 20	 sub	 esp, 32			; 00000020H
  001b6	89 4d e0	 mov	 DWORD PTR _this$[ebp], ecx

; 52   : 	map<HWND, WndMoveData>::iterator it = m_mapWndMoveData.begin();

  001b9	8d 45 fc	 lea	 eax, DWORD PTR _it$[ebp]
  001bc	50		 push	 eax
  001bd	8b 4d e0	 mov	 ecx, DWORD PTR _this$[ebp]
  001c0	83 c1 04	 add	 ecx, 4
  001c3	e8 00 00 00 00	 call	 ?begin@?$_Tree@V?$_Tmap_traits@PAUHWND__@@UWndMoveData@@U?$less@PAUHWND__@@@std@@V?$allocator@U?$pair@QAUHWND__@@UWndMoveData@@@std@@@4@$0A@@std@@@std@@QAE?AViterator@12@XZ ; std::_Tree<std::_Tmap_traits<HWND__ *,WndMoveData,std::less<HWND__ *>,std::allocator<std::pair<HWND__ * const,WndMoveData> >,0> >::begin
$L198517:

; 53   : 
; 54   : 	while(it != m_mapWndMoveData.end())

  001c8	8d 4d e8	 lea	 ecx, DWORD PTR $T199954[ebp]
  001cb	51		 push	 ecx
  001cc	8b 4d e0	 mov	 ecx, DWORD PTR _this$[ebp]
  001cf	83 c1 04	 add	 ecx, 4
  001d2	e8 00 00 00 00	 call	 ?end@?$_Tree@V?$_Tmap_traits@PAUHWND__@@UWndMoveData@@U?$less@PAUHWND__@@@std@@V?$allocator@U?$pair@QAUHWND__@@UWndMoveData@@@std@@@4@$0A@@std@@@std@@QAE?AViterator@12@XZ ; std::_Tree<std::_Tmap_traits<HWND__ *,WndMoveData,std::less<HWND__ *>,std::allocator<std::pair<HWND__ * const,WndMoveData> >,0> >::end
  001d7	50		 push	 eax
  001d8	8d 4d fc	 lea	 ecx, DWORD PTR _it$[ebp]
  001db	e8 00 00 00 00	 call	 ??9const_iterator@?$_Tree@V?$_Tmap_traits@PAUHWND__@@UWndMoveData@@U?$less@PAUHWND__@@@std@@V?$allocator@U?$pair@QAUHWND__@@UWndMoveData@@@std@@@4@$0A@@std@@@std@@QBE_NABV012@@Z ; std::_Tree<std::_Tmap_traits<HWND__ *,WndMoveData,std::less<HWND__ *>,std::allocator<std::pair<HWND__ * const,WndMoveData> >,0> >::const_iterator::operator!=
  001e0	0f b6 d0	 movzx	 edx, al
  001e3	85 d2		 test	 edx, edx
  001e5	74 46		 je	 SHORT $L198431

; 55   : 	{
; 56   : 		CRect rc;

  001e7	8d 4d ec	 lea	 ecx, DWORD PTR _rc$198520[ebp]
  001ea	e8 00 00 00 00	 call	 ??0CRect@@QAE@XZ	; CRect::CRect

; 57   : 		if(it->second.nState == STATE_MOVING)

  001ef	8d 4d fc	 lea	 ecx, DWORD PTR _it$[ebp]
  001f2	e8 00 00 00 00	 call	 ??Citerator@?$_Tree@V?$_Tmap_traits@PAUHWND__@@UWndMoveData@@U?$less@PAUHWND__@@@std@@V?$allocator@U?$pair@QAUHWND__@@UWndMoveData@@@std@@@4@$0A@@std@@@std@@QBEPAU?$pair@QAUHWND__@@UWndMoveData@@@2@XZ ; std::_Tree<std::_Tmap_traits<HWND__ *,WndMoveData,std::less<HWND__ *>,std::allocator<std::pair<HWND__ * const,WndMoveData> >,0> >::iterator::operator->
  001f7	83 78 18 00	 cmp	 DWORD PTR [eax+24], 0
  001fb	75 20		 jne	 SHORT $L198539

; 58   : 		{
; 59   : 			TRACE("offset:%d , %d\n", m_offsetX, m_offsetY);
; 60   : 			it->second.rc.OffsetRect(m_offsetX, m_offsetY);

  001fd	8b 45 e0	 mov	 eax, DWORD PTR _this$[ebp]
  00200	8b 48 28	 mov	 ecx, DWORD PTR [eax+40]
  00203	51		 push	 ecx
  00204	8b 55 e0	 mov	 edx, DWORD PTR _this$[ebp]
  00207	8b 42 24	 mov	 eax, DWORD PTR [edx+36]
  0020a	50		 push	 eax
  0020b	8d 4d fc	 lea	 ecx, DWORD PTR _it$[ebp]
  0020e	e8 00 00 00 00	 call	 ??Citerator@?$_Tree@V?$_Tmap_traits@PAUHWND__@@UWndMoveData@@U?$less@PAUHWND__@@@std@@V?$allocator@U?$pair@QAUHWND__@@UWndMoveData@@@std@@@4@$0A@@std@@@std@@QBEPAU?$pair@QAUHWND__@@UWndMoveData@@@2@XZ ; std::_Tree<std::_Tmap_traits<HWND__ *,WndMoveData,std::less<HWND__ *>,std::allocator<std::pair<HWND__ * const,WndMoveData> >,0> >::iterator::operator->
  00213	83 c0 08	 add	 eax, 8
  00216	8b c8		 mov	 ecx, eax
  00218	e8 00 00 00 00	 call	 ?OffsetRect@CRect@@QAEXHH@Z ; CRect::OffsetRect
$L198539:

; 61   : 		}
; 62   : 		it++;

  0021d	6a 00		 push	 0
  0021f	8d 4d e4	 lea	 ecx, DWORD PTR $T199955[ebp]
  00222	51		 push	 ecx
  00223	8d 4d fc	 lea	 ecx, DWORD PTR _it$[ebp]
  00226	e8 00 00 00 00	 call	 ??Eiterator@?$_Tree@V?$_Tmap_traits@PAUHWND__@@UWndMoveData@@U?$less@PAUHWND__@@@std@@V?$allocator@U?$pair@QAUHWND__@@UWndMoveData@@@std@@@4@$0A@@std@@@std@@QAE?AV012@H@Z ; std::_Tree<std::_Tmap_traits<HWND__ *,WndMoveData,std::less<HWND__ *>,std::allocator<std::pair<HWND__ * const,WndMoveData> >,0> >::iterator::operator++

; 63   : 	}

  0022b	eb 9b		 jmp	 SHORT $L198517
$L198431:

; 64   : }

  0022d	8b e5		 mov	 esp, ebp
  0022f	5d		 pop	 ebp
  00230	c3		 ret	 0
?CalMovingWndNewPos@CWindowsMover@@AAEXXZ ENDP		; CWindowsMover::CalMovingWndNewPos
_TEXT	ENDS
PUBLIC	?IsTwoWndStucked@CWindowsMover@@AAEHVCRect@@00@Z ; CWindowsMover::IsTwoWndStucked
PUBLIC	?DoMouseDown@CWindowsMover@@QAEXPAUHWND__@@VCPoint@@@Z ; CWindowsMover::DoMouseDown
PUBLIC	?DrawMoveFrame@CWindowsMover@@QAEXVCRect@@@Z	; CWindowsMover::DrawMoveFrame
PUBLIC	??0iterator@?$_Tree@V?$_Tmap_traits@PAUHWND__@@UWndMoveData@@U?$less@PAUHWND__@@@std@@V?$allocator@U?$pair@QAUHWND__@@UWndMoveData@@@std@@@4@$0A@@std@@@std@@QAE@XZ ; std::_Tree<std::_Tmap_traits<HWND__ *,WndMoveData,std::less<HWND__ *>,std::allocator<std::pair<HWND__ * const,WndMoveData> >,0> >::iterator::iterator
EXTRN	__imp__GetWindowRect@8:NEAR
EXTRN	__imp__SetCapture@4:NEAR
; Function compile flags: /Odt
_TEXT	SEGMENT
_this$ = -116						; size = 4
$T199966 = -112						; size = 4
$T199965 = -108						; size = 4
$T199964 = -104						; size = 4
$T199963 = -100						; size = 4
$T199962 = -96						; size = 4
$T199961 = -92						; size = 4
$T199960 = -88						; size = 4
$T199959 = -84						; size = 4
$T199958 = -80						; size = 4
$T199957 = -76						; size = 4
_data$198567 = -72					; size = 28
_rc$198566 = -44					; size = 16
_rcMain$ = -28						; size = 16
_bFind$ = -10						; size = 1
_isMain$ = -9						; size = 1
_it1$ = -8						; size = 4
_it$ = -4						; size = 4
_hwnd$ = 8						; size = 4
_p$ = 12						; size = 8
?DoMouseDown@CWindowsMover@@QAEXPAUHWND__@@VCPoint@@@Z PROC NEAR ; CWindowsMover::DoMouseDown
; _this$ = ecx

; 67   : {

  00240	55		 push	 ebp
  00241	8b ec		 mov	 ebp, esp
  00243	83 ec 74	 sub	 esp, 116		; 00000074H
  00246	56		 push	 esi
  00247	57		 push	 edi
  00248	89 4d 8c	 mov	 DWORD PTR _this$[ebp], ecx

; 68   : //	ClientToScreen(hwnd, &p);
; 69   : 	m_ptMouseDownPos = p;

  0024b	8b 45 8c	 mov	 eax, DWORD PTR _this$[ebp]
  0024e	8b 4d 0c	 mov	 ecx, DWORD PTR _p$[ebp]
  00251	89 48 14	 mov	 DWORD PTR [eax+20], ecx
  00254	8b 55 10	 mov	 edx, DWORD PTR _p$[ebp+4]
  00257	89 50 18	 mov	 DWORD PTR [eax+24], edx

; 70   : 	m_bMouseDown = true;

  0025a	8b 45 8c	 mov	 eax, DWORD PTR _this$[ebp]
  0025d	c7 00 01 00 00
	00		 mov	 DWORD PTR [eax], 1

; 71   : 	SetCapture(hwnd);

  00263	8b 4d 08	 mov	 ecx, DWORD PTR _hwnd$[ebp]
  00266	51		 push	 ecx
  00267	ff 15 00 00 00
	00		 call	 DWORD PTR __imp__SetCapture@4

; 72   : 	bool isMain = m_mapWndMoveData[hwnd].isMain;

  0026d	8d 55 08	 lea	 edx, DWORD PTR _hwnd$[ebp]
  00270	52		 push	 edx
  00271	8b 4d 8c	 mov	 ecx, DWORD PTR _this$[ebp]
  00274	83 c1 04	 add	 ecx, 4
  00277	e8 00 00 00 00	 call	 ??A?$map@PAUHWND__@@UWndMoveData@@U?$less@PAUHWND__@@@std@@V?$allocator@U?$pair@QAUHWND__@@UWndMoveData@@@std@@@4@@std@@QAEAAUWndMoveData@@ABQAUHWND__@@@Z ; std::map<HWND__ *,WndMoveData,std::less<HWND__ *>,std::allocator<std::pair<HWND__ * const,WndMoveData> > >::operator[]
  0027c	8a 40 18	 mov	 al, BYTE PTR [eax+24]
  0027f	88 45 f7	 mov	 BYTE PTR _isMain$[ebp], al

; 73   : 	CRect rcMain ;//= m_mapWndMoveData[hwnd].rc;

  00282	8d 4d e4	 lea	 ecx, DWORD PTR _rcMain$[ebp]
  00285	e8 00 00 00 00	 call	 ??0CRect@@QAE@XZ	; CRect::CRect

; 74   : 	GetWindowRect(hwnd, &rcMain);

  0028a	8d 4d e4	 lea	 ecx, DWORD PTR _rcMain$[ebp]
  0028d	51		 push	 ecx
  0028e	8b 55 08	 mov	 edx, DWORD PTR _hwnd$[ebp]
  00291	52		 push	 edx
  00292	ff 15 00 00 00
	00		 call	 DWORD PTR __imp__GetWindowRect@8

; 75   : 
; 76   : 	if(m_bDontMoveContent)

  00298	8b 45 8c	 mov	 eax, DWORD PTR _this$[ebp]
  0029b	83 78 3c 00	 cmp	 DWORD PTR [eax+60], 0
  0029f	74 4b		 je	 SHORT $L198548

; 77   : 	{
; 78   : 		m_rcKeep = rcMain;

  002a1	8b 4d 8c	 mov	 ecx, DWORD PTR _this$[ebp]
  002a4	83 c1 2c	 add	 ecx, 44			; 0000002cH
  002a7	8b 55 e4	 mov	 edx, DWORD PTR _rcMain$[ebp]
  002aa	89 11		 mov	 DWORD PTR [ecx], edx
  002ac	8b 45 e8	 mov	 eax, DWORD PTR _rcMain$[ebp+4]
  002af	89 41 04	 mov	 DWORD PTR [ecx+4], eax
  002b2	8b 55 ec	 mov	 edx, DWORD PTR _rcMain$[ebp+8]
  002b5	89 51 08	 mov	 DWORD PTR [ecx+8], edx
  002b8	8b 45 f0	 mov	 eax, DWORD PTR _rcMain$[ebp+12]
  002bb	89 41 0c	 mov	 DWORD PTR [ecx+12], eax

; 79   : 		DrawMoveFrame(m_rcKeep);

  002be	8b 4d 8c	 mov	 ecx, DWORD PTR _this$[ebp]
  002c1	83 c1 2c	 add	 ecx, 44			; 0000002cH
  002c4	83 ec 10	 sub	 esp, 16			; 00000010H
  002c7	8b d4		 mov	 edx, esp
  002c9	8b 01		 mov	 eax, DWORD PTR [ecx]
  002cb	89 02		 mov	 DWORD PTR [edx], eax
  002cd	8b 41 04	 mov	 eax, DWORD PTR [ecx+4]
  002d0	89 42 04	 mov	 DWORD PTR [edx+4], eax
  002d3	8b 41 08	 mov	 eax, DWORD PTR [ecx+8]
  002d6	89 42 08	 mov	 DWORD PTR [edx+8], eax
  002d9	8b 49 0c	 mov	 ecx, DWORD PTR [ecx+12]
  002dc	89 4a 0c	 mov	 DWORD PTR [edx+12], ecx
  002df	8b 4d 8c	 mov	 ecx, DWORD PTR _this$[ebp]
  002e2	e8 00 00 00 00	 call	 ?DrawMoveFrame@CWindowsMover@@QAEXVCRect@@@Z ; CWindowsMover::DrawMoveFrame

; 80   : 		return;

  002e7	e9 4f 02 00 00	 jmp	 $L198545
$L198548:

; 81   : 	}
; 82   : 
; 83   : 	map<HWND, WndMoveData>::iterator it;

  002ec	8d 4d fc	 lea	 ecx, DWORD PTR _it$[ebp]
  002ef	e8 00 00 00 00	 call	 ??0iterator@?$_Tree@V?$_Tmap_traits@PAUHWND__@@UWndMoveData@@U?$less@PAUHWND__@@@std@@V?$allocator@U?$pair@QAUHWND__@@UWndMoveData@@@std@@@4@$0A@@std@@@std@@QAE@XZ ; std::_Tree<std::_Tmap_traits<HWND__ *,WndMoveData,std::less<HWND__ *>,std::allocator<std::pair<HWND__ * const,WndMoveData> >,0> >::iterator::iterator

; 84   : 	map<HWND, WndMoveData>::iterator it1;

  002f4	8d 4d f8	 lea	 ecx, DWORD PTR _it1$[ebp]
  002f7	e8 00 00 00 00	 call	 ??0iterator@?$_Tree@V?$_Tmap_traits@PAUHWND__@@UWndMoveData@@U?$less@PAUHWND__@@@std@@V?$allocator@U?$pair@QAUHWND__@@UWndMoveData@@@std@@@4@$0A@@std@@@std@@QAE@XZ ; std::_Tree<std::_Tmap_traits<HWND__ *,WndMoveData,std::less<HWND__ *>,std::allocator<std::pair<HWND__ * const,WndMoveData> >,0> >::iterator::iterator

; 85   : 
; 86   : 	it = m_mapWndMoveData.begin();

  002fc	8d 55 b4	 lea	 edx, DWORD PTR $T199957[ebp]
  002ff	52		 push	 edx
  00300	8b 4d 8c	 mov	 ecx, DWORD PTR _this$[ebp]
  00303	83 c1 04	 add	 ecx, 4
  00306	e8 00 00 00 00	 call	 ?begin@?$_Tree@V?$_Tmap_traits@PAUHWND__@@UWndMoveData@@U?$less@PAUHWND__@@@std@@V?$allocator@U?$pair@QAUHWND__@@UWndMoveData@@@std@@@4@$0A@@std@@@std@@QAE?AViterator@12@XZ ; std::_Tree<std::_Tmap_traits<HWND__ *,WndMoveData,std::less<HWND__ *>,std::allocator<std::pair<HWND__ * const,WndMoveData> >,0> >::begin
  0030b	8b 00		 mov	 eax, DWORD PTR [eax]
  0030d	89 45 fc	 mov	 DWORD PTR _it$[ebp], eax
$L198563:

; 87   : 	while(it != m_mapWndMoveData.end())

  00310	8d 4d b0	 lea	 ecx, DWORD PTR $T199958[ebp]
  00313	51		 push	 ecx
  00314	8b 4d 8c	 mov	 ecx, DWORD PTR _this$[ebp]
  00317	83 c1 04	 add	 ecx, 4
  0031a	e8 00 00 00 00	 call	 ?end@?$_Tree@V?$_Tmap_traits@PAUHWND__@@UWndMoveData@@U?$less@PAUHWND__@@@std@@V?$allocator@U?$pair@QAUHWND__@@UWndMoveData@@@std@@@4@$0A@@std@@@std@@QAE?AViterator@12@XZ ; std::_Tree<std::_Tmap_traits<HWND__ *,WndMoveData,std::less<HWND__ *>,std::allocator<std::pair<HWND__ * const,WndMoveData> >,0> >::end
  0031f	50		 push	 eax
  00320	8d 4d fc	 lea	 ecx, DWORD PTR _it$[ebp]
  00323	e8 00 00 00 00	 call	 ??9const_iterator@?$_Tree@V?$_Tmap_traits@PAUHWND__@@UWndMoveData@@U?$less@PAUHWND__@@@std@@V?$allocator@U?$pair@QAUHWND__@@UWndMoveData@@@std@@@4@$0A@@std@@@std@@QBE_NABV012@@Z ; std::_Tree<std::_Tmap_traits<HWND__ *,WndMoveData,std::less<HWND__ *>,std::allocator<std::pair<HWND__ * const,WndMoveData> >,0> >::const_iterator::operator!=
  00328	0f b6 d0	 movzx	 edx, al
  0032b	85 d2		 test	 edx, edx
  0032d	0f 84 94 00 00
	00		 je	 $L198564

; 88   : 	{
; 89   : 		CRect rc;

  00333	8d 4d d4	 lea	 ecx, DWORD PTR _rc$198566[ebp]
  00336	e8 00 00 00 00	 call	 ??0CRect@@QAE@XZ	; CRect::CRect

; 90   : 		WndMoveData data = it->second;

  0033b	8d 4d fc	 lea	 ecx, DWORD PTR _it$[ebp]
  0033e	e8 00 00 00 00	 call	 ??Citerator@?$_Tree@V?$_Tmap_traits@PAUHWND__@@UWndMoveData@@U?$less@PAUHWND__@@@std@@V?$allocator@U?$pair@QAUHWND__@@UWndMoveData@@@std@@@4@$0A@@std@@@std@@QBEPAU?$pair@QAUHWND__@@UWndMoveData@@@2@XZ ; std::_Tree<std::_Tmap_traits<HWND__ *,WndMoveData,std::less<HWND__ *>,std::allocator<std::pair<HWND__ * const,WndMoveData> >,0> >::iterator::operator->
  00343	83 c0 04	 add	 eax, 4
  00346	b9 07 00 00 00	 mov	 ecx, 7
  0034b	8b f0		 mov	 esi, eax
  0034d	8d 7d b8	 lea	 edi, DWORD PTR _data$198567[ebp]
  00350	f3 a5		 rep movsd

; 91   : 		::GetWindowRect(data.pWnd->m_hWnd, &data.rc);

  00352	8d 45 bc	 lea	 eax, DWORD PTR _data$198567[ebp+4]
  00355	50		 push	 eax
  00356	8b 4d b8	 mov	 ecx, DWORD PTR _data$198567[ebp]
  00359	8b 51 20	 mov	 edx, DWORD PTR [ecx+32]
  0035c	52		 push	 edx
  0035d	ff 15 00 00 00
	00		 call	 DWORD PTR __imp__GetWindowRect@8

; 92   : 		it->second = data;

  00363	8d 4d fc	 lea	 ecx, DWORD PTR _it$[ebp]
  00366	e8 00 00 00 00	 call	 ??Citerator@?$_Tree@V?$_Tmap_traits@PAUHWND__@@UWndMoveData@@U?$less@PAUHWND__@@@std@@V?$allocator@U?$pair@QAUHWND__@@UWndMoveData@@@std@@@4@$0A@@std@@@std@@QBEPAU?$pair@QAUHWND__@@UWndMoveData@@@2@XZ ; std::_Tree<std::_Tmap_traits<HWND__ *,WndMoveData,std::less<HWND__ *>,std::allocator<std::pair<HWND__ * const,WndMoveData> >,0> >::iterator::operator->
  0036b	83 c0 04	 add	 eax, 4
  0036e	b9 07 00 00 00	 mov	 ecx, 7
  00373	8d 75 b8	 lea	 esi, DWORD PTR _data$198567[ebp]
  00376	8b f8		 mov	 edi, eax
  00378	f3 a5		 rep movsd

; 93   : 		if(it->second.pWnd->m_hWnd == hwnd)

  0037a	8d 4d fc	 lea	 ecx, DWORD PTR _it$[ebp]
  0037d	e8 00 00 00 00	 call	 ??Citerator@?$_Tree@V?$_Tmap_traits@PAUHWND__@@UWndMoveData@@U?$less@PAUHWND__@@@std@@V?$allocator@U?$pair@QAUHWND__@@UWndMoveData@@@std@@@4@$0A@@std@@@std@@QBEPAU?$pair@QAUHWND__@@UWndMoveData@@@2@XZ ; std::_Tree<std::_Tmap_traits<HWND__ *,WndMoveData,std::less<HWND__ *>,std::allocator<std::pair<HWND__ * const,WndMoveData> >,0> >::iterator::operator->
  00382	8b 40 04	 mov	 eax, DWORD PTR [eax+4]
  00385	8b 48 20	 mov	 ecx, DWORD PTR [eax+32]
  00388	3b 4d 08	 cmp	 ecx, DWORD PTR _hwnd$[ebp]
  0038b	75 18		 jne	 SHORT $L198568

; 94   : 			m_mapWndMoveData[hwnd].nState = STATE_MOVING;

  0038d	8d 55 08	 lea	 edx, DWORD PTR _hwnd$[ebp]
  00390	52		 push	 edx
  00391	8b 4d 8c	 mov	 ecx, DWORD PTR _this$[ebp]
  00394	83 c1 04	 add	 ecx, 4
  00397	e8 00 00 00 00	 call	 ??A?$map@PAUHWND__@@UWndMoveData@@U?$less@PAUHWND__@@@std@@V?$allocator@U?$pair@QAUHWND__@@UWndMoveData@@@std@@@4@@std@@QAEAAUWndMoveData@@ABQAUHWND__@@@Z ; std::map<HWND__ *,WndMoveData,std::less<HWND__ *>,std::allocator<std::pair<HWND__ * const,WndMoveData> > >::operator[]
  0039c	c7 40 14 00 00
	00 00		 mov	 DWORD PTR [eax+20], 0

; 95   : 		else

  003a3	eb 0f		 jmp	 SHORT $L198569
$L198568:

; 96   : 			it->second.nState = STATE_STAND;

  003a5	8d 4d fc	 lea	 ecx, DWORD PTR _it$[ebp]
  003a8	e8 00 00 00 00	 call	 ??Citerator@?$_Tree@V?$_Tmap_traits@PAUHWND__@@UWndMoveData@@U?$less@PAUHWND__@@@std@@V?$allocator@U?$pair@QAUHWND__@@UWndMoveData@@@std@@@4@$0A@@std@@@std@@QBEPAU?$pair@QAUHWND__@@UWndMoveData@@@2@XZ ; std::_Tree<std::_Tmap_traits<HWND__ *,WndMoveData,std::less<HWND__ *>,std::allocator<std::pair<HWND__ * const,WndMoveData> >,0> >::iterator::operator->
  003ad	c7 40 18 01 00
	00 00		 mov	 DWORD PTR [eax+24], 1
$L198569:

; 97   : 		it++;

  003b4	6a 00		 push	 0
  003b6	8d 45 ac	 lea	 eax, DWORD PTR $T199959[ebp]
  003b9	50		 push	 eax
  003ba	8d 4d fc	 lea	 ecx, DWORD PTR _it$[ebp]
  003bd	e8 00 00 00 00	 call	 ??Eiterator@?$_Tree@V?$_Tmap_traits@PAUHWND__@@UWndMoveData@@U?$less@PAUHWND__@@@std@@V?$allocator@U?$pair@QAUHWND__@@UWndMoveData@@@std@@@4@$0A@@std@@@std@@QAE?AV012@H@Z ; std::_Tree<std::_Tmap_traits<HWND__ *,WndMoveData,std::less<HWND__ *>,std::allocator<std::pair<HWND__ * const,WndMoveData> >,0> >::iterator::operator++

; 98   : 	}

  003c2	e9 49 ff ff ff	 jmp	 $L198563
$L198564:

; 99   : 
; 100  : 	bool bFind = false;

  003c7	c6 45 f6 00	 mov	 BYTE PTR _bFind$[ebp], 0

; 101  : 	if(isMain)

  003cb	0f b6 4d f7	 movzx	 ecx, BYTE PTR _isMain$[ebp]
  003cf	85 c9		 test	 ecx, ecx
  003d1	0f 84 64 01 00
	00		 je	 $L198545

; 102  : 	{
; 103  : 		it = m_mapWndMoveData.begin();

  003d7	8d 55 a8	 lea	 edx, DWORD PTR $T199960[ebp]
  003da	52		 push	 edx
  003db	8b 4d 8c	 mov	 ecx, DWORD PTR _this$[ebp]
  003de	83 c1 04	 add	 ecx, 4
  003e1	e8 00 00 00 00	 call	 ?begin@?$_Tree@V?$_Tmap_traits@PAUHWND__@@UWndMoveData@@U?$less@PAUHWND__@@@std@@V?$allocator@U?$pair@QAUHWND__@@UWndMoveData@@@std@@@4@$0A@@std@@@std@@QAE?AViterator@12@XZ ; std::_Tree<std::_Tmap_traits<HWND__ *,WndMoveData,std::less<HWND__ *>,std::allocator<std::pair<HWND__ * const,WndMoveData> >,0> >::begin
  003e6	8b 00		 mov	 eax, DWORD PTR [eax]
  003e8	89 45 fc	 mov	 DWORD PTR _it$[ebp], eax
$L198575:

; 104  : 		while(it != m_mapWndMoveData.end())

  003eb	8d 4d a4	 lea	 ecx, DWORD PTR $T199961[ebp]
  003ee	51		 push	 ecx
  003ef	8b 4d 8c	 mov	 ecx, DWORD PTR _this$[ebp]
  003f2	83 c1 04	 add	 ecx, 4
  003f5	e8 00 00 00 00	 call	 ?end@?$_Tree@V?$_Tmap_traits@PAUHWND__@@UWndMoveData@@U?$less@PAUHWND__@@@std@@V?$allocator@U?$pair@QAUHWND__@@UWndMoveData@@@std@@@4@$0A@@std@@@std@@QAE?AViterator@12@XZ ; std::_Tree<std::_Tmap_traits<HWND__ *,WndMoveData,std::less<HWND__ *>,std::allocator<std::pair<HWND__ * const,WndMoveData> >,0> >::end
  003fa	50		 push	 eax
  003fb	8d 4d fc	 lea	 ecx, DWORD PTR _it$[ebp]
  003fe	e8 00 00 00 00	 call	 ??9const_iterator@?$_Tree@V?$_Tmap_traits@PAUHWND__@@UWndMoveData@@U?$less@PAUHWND__@@@std@@V?$allocator@U?$pair@QAUHWND__@@UWndMoveData@@@std@@@4@$0A@@std@@@std@@QBE_NABV012@@Z ; std::_Tree<std::_Tmap_traits<HWND__ *,WndMoveData,std::less<HWND__ *>,std::allocator<std::pair<HWND__ * const,WndMoveData> >,0> >::const_iterator::operator!=
  00403	0f b6 d0	 movzx	 edx, al
  00406	85 d2		 test	 edx, edx
  00408	0f 84 2d 01 00
	00		 je	 $L198545

; 105  : 		{
; 106  : 			if(it->second.nState != STATE_MOVING)

  0040e	8d 4d fc	 lea	 ecx, DWORD PTR _it$[ebp]
  00411	e8 00 00 00 00	 call	 ??Citerator@?$_Tree@V?$_Tmap_traits@PAUHWND__@@UWndMoveData@@U?$less@PAUHWND__@@@std@@V?$allocator@U?$pair@QAUHWND__@@UWndMoveData@@@std@@@4@$0A@@std@@@std@@QBEPAU?$pair@QAUHWND__@@UWndMoveData@@@2@XZ ; std::_Tree<std::_Tmap_traits<HWND__ *,WndMoveData,std::less<HWND__ *>,std::allocator<std::pair<HWND__ * const,WndMoveData> >,0> >::iterator::operator->
  00416	83 78 18 00	 cmp	 DWORD PTR [eax+24], 0
  0041a	0f 84 e5 00 00
	00		 je	 $L198578

; 107  : 			{
; 108  : 				it1 = m_mapWndMoveData.begin();

  00420	8d 45 a0	 lea	 eax, DWORD PTR $T199962[ebp]
  00423	50		 push	 eax
  00424	8b 4d 8c	 mov	 ecx, DWORD PTR _this$[ebp]
  00427	83 c1 04	 add	 ecx, 4
  0042a	e8 00 00 00 00	 call	 ?begin@?$_Tree@V?$_Tmap_traits@PAUHWND__@@UWndMoveData@@U?$less@PAUHWND__@@@std@@V?$allocator@U?$pair@QAUHWND__@@UWndMoveData@@@std@@@4@$0A@@std@@@std@@QAE?AViterator@12@XZ ; std::_Tree<std::_Tmap_traits<HWND__ *,WndMoveData,std::less<HWND__ *>,std::allocator<std::pair<HWND__ * const,WndMoveData> >,0> >::begin
  0042f	8b 08		 mov	 ecx, DWORD PTR [eax]
  00431	89 4d f8	 mov	 DWORD PTR _it1$[ebp], ecx
$L198581:

; 109  : 				while(it1 != m_mapWndMoveData.end())

  00434	8d 55 9c	 lea	 edx, DWORD PTR $T199963[ebp]
  00437	52		 push	 edx
  00438	8b 4d 8c	 mov	 ecx, DWORD PTR _this$[ebp]
  0043b	83 c1 04	 add	 ecx, 4
  0043e	e8 00 00 00 00	 call	 ?end@?$_Tree@V?$_Tmap_traits@PAUHWND__@@UWndMoveData@@U?$less@PAUHWND__@@@std@@V?$allocator@U?$pair@QAUHWND__@@UWndMoveData@@@std@@@4@$0A@@std@@@std@@QAE?AViterator@12@XZ ; std::_Tree<std::_Tmap_traits<HWND__ *,WndMoveData,std::less<HWND__ *>,std::allocator<std::pair<HWND__ * const,WndMoveData> >,0> >::end
  00443	50		 push	 eax
  00444	8d 4d f8	 lea	 ecx, DWORD PTR _it1$[ebp]
  00447	e8 00 00 00 00	 call	 ??9const_iterator@?$_Tree@V?$_Tmap_traits@PAUHWND__@@UWndMoveData@@U?$less@PAUHWND__@@@std@@V?$allocator@U?$pair@QAUHWND__@@UWndMoveData@@@std@@@4@$0A@@std@@@std@@QBE_NABV012@@Z ; std::_Tree<std::_Tmap_traits<HWND__ *,WndMoveData,std::less<HWND__ *>,std::allocator<std::pair<HWND__ * const,WndMoveData> >,0> >::const_iterator::operator!=
  0044c	0f b6 c0	 movzx	 eax, al
  0044f	85 c0		 test	 eax, eax
  00451	0f 84 ae 00 00
	00		 je	 $L198578

; 110  : 				{
; 111  : 					if(it1->second.nState == STATE_MOVING
; 112  : 						&& IsTwoWndStucked(it->second.rc, it1->second.rc, rcMain))

  00457	8d 4d f8	 lea	 ecx, DWORD PTR _it1$[ebp]
  0045a	e8 00 00 00 00	 call	 ??Citerator@?$_Tree@V?$_Tmap_traits@PAUHWND__@@UWndMoveData@@U?$less@PAUHWND__@@@std@@V?$allocator@U?$pair@QAUHWND__@@UWndMoveData@@@std@@@4@$0A@@std@@@std@@QBEPAU?$pair@QAUHWND__@@UWndMoveData@@@2@XZ ; std::_Tree<std::_Tmap_traits<HWND__ *,WndMoveData,std::less<HWND__ *>,std::allocator<std::pair<HWND__ * const,WndMoveData> >,0> >::iterator::operator->
  0045f	83 78 18 00	 cmp	 DWORD PTR [eax+24], 0
  00463	0f 85 89 00 00
	00		 jne	 $L198584
  00469	83 ec 10	 sub	 esp, 16			; 00000010H
  0046c	8b cc		 mov	 ecx, esp
  0046e	8b 55 e4	 mov	 edx, DWORD PTR _rcMain$[ebp]
  00471	89 11		 mov	 DWORD PTR [ecx], edx
  00473	8b 45 e8	 mov	 eax, DWORD PTR _rcMain$[ebp+4]
  00476	89 41 04	 mov	 DWORD PTR [ecx+4], eax
  00479	8b 55 ec	 mov	 edx, DWORD PTR _rcMain$[ebp+8]
  0047c	89 51 08	 mov	 DWORD PTR [ecx+8], edx
  0047f	8b 45 f0	 mov	 eax, DWORD PTR _rcMain$[ebp+12]
  00482	89 41 0c	 mov	 DWORD PTR [ecx+12], eax
  00485	8d 4d f8	 lea	 ecx, DWORD PTR _it1$[ebp]
  00488	e8 00 00 00 00	 call	 ??Citerator@?$_Tree@V?$_Tmap_traits@PAUHWND__@@UWndMoveData@@U?$less@PAUHWND__@@@std@@V?$allocator@U?$pair@QAUHWND__@@UWndMoveData@@@std@@@4@$0A@@std@@@std@@QBEPAU?$pair@QAUHWND__@@UWndMoveData@@@2@XZ ; std::_Tree<std::_Tmap_traits<HWND__ *,WndMoveData,std::less<HWND__ *>,std::allocator<std::pair<HWND__ * const,WndMoveData> >,0> >::iterator::operator->
  0048d	83 c0 08	 add	 eax, 8
  00490	83 ec 10	 sub	 esp, 16			; 00000010H
  00493	8b cc		 mov	 ecx, esp
  00495	8b 10		 mov	 edx, DWORD PTR [eax]
  00497	89 11		 mov	 DWORD PTR [ecx], edx
  00499	8b 50 04	 mov	 edx, DWORD PTR [eax+4]
  0049c	89 51 04	 mov	 DWORD PTR [ecx+4], edx
  0049f	8b 50 08	 mov	 edx, DWORD PTR [eax+8]
  004a2	89 51 08	 mov	 DWORD PTR [ecx+8], edx
  004a5	8b 40 0c	 mov	 eax, DWORD PTR [eax+12]
  004a8	89 41 0c	 mov	 DWORD PTR [ecx+12], eax
  004ab	8d 4d fc	 lea	 ecx, DWORD PTR _it$[ebp]
  004ae	e8 00 00 00 00	 call	 ??Citerator@?$_Tree@V?$_Tmap_traits@PAUHWND__@@UWndMoveData@@U?$less@PAUHWND__@@@std@@V?$allocator@U?$pair@QAUHWND__@@UWndMoveData@@@std@@@4@$0A@@std@@@std@@QBEPAU?$pair@QAUHWND__@@UWndMoveData@@@2@XZ ; std::_Tree<std::_Tmap_traits<HWND__ *,WndMoveData,std::less<HWND__ *>,std::allocator<std::pair<HWND__ * const,WndMoveData> >,0> >::iterator::operator->
  004b3	83 c0 08	 add	 eax, 8
  004b6	83 ec 10	 sub	 esp, 16			; 00000010H
  004b9	8b cc		 mov	 ecx, esp
  004bb	8b 10		 mov	 edx, DWORD PTR [eax]
  004bd	89 11		 mov	 DWORD PTR [ecx], edx
  004bf	8b 50 04	 mov	 edx, DWORD PTR [eax+4]
  004c2	89 51 04	 mov	 DWORD PTR [ecx+4], edx
  004c5	8b 50 08	 mov	 edx, DWORD PTR [eax+8]
  004c8	89 51 08	 mov	 DWORD PTR [ecx+8], edx
  004cb	8b 40 0c	 mov	 eax, DWORD PTR [eax+12]
  004ce	89 41 0c	 mov	 DWORD PTR [ecx+12], eax
  004d1	8b 4d 8c	 mov	 ecx, DWORD PTR _this$[ebp]
  004d4	e8 00 00 00 00	 call	 ?IsTwoWndStucked@CWindowsMover@@AAEHVCRect@@00@Z ; CWindowsMover::IsTwoWndStucked
  004d9	85 c0		 test	 eax, eax
  004db	74 15		 je	 SHORT $L198584

; 113  : 					{
; 114  : 						it->second.nState = STATE_MOVING;

  004dd	8d 4d fc	 lea	 ecx, DWORD PTR _it$[ebp]
  004e0	e8 00 00 00 00	 call	 ??Citerator@?$_Tree@V?$_Tmap_traits@PAUHWND__@@UWndMoveData@@U?$less@PAUHWND__@@@std@@V?$allocator@U?$pair@QAUHWND__@@UWndMoveData@@@std@@@4@$0A@@std@@@std@@QBEPAU?$pair@QAUHWND__@@UWndMoveData@@@2@XZ ; std::_Tree<std::_Tmap_traits<HWND__ *,WndMoveData,std::less<HWND__ *>,std::allocator<std::pair<HWND__ * const,WndMoveData> >,0> >::iterator::operator->
  004e5	c7 40 18 00 00
	00 00		 mov	 DWORD PTR [eax+24], 0

; 115  : 						bFind = true;

  004ec	c6 45 f6 01	 mov	 BYTE PTR _bFind$[ebp], 1

; 116  : 						break;

  004f0	eb 13		 jmp	 SHORT $L198578
$L198584:

; 117  : 					}
; 118  : 					it1 ++;

  004f2	6a 00		 push	 0
  004f4	8d 4d 98	 lea	 ecx, DWORD PTR $T199964[ebp]
  004f7	51		 push	 ecx
  004f8	8d 4d f8	 lea	 ecx, DWORD PTR _it1$[ebp]
  004fb	e8 00 00 00 00	 call	 ??Eiterator@?$_Tree@V?$_Tmap_traits@PAUHWND__@@UWndMoveData@@U?$less@PAUHWND__@@@std@@V?$allocator@U?$pair@QAUHWND__@@UWndMoveData@@@std@@@4@$0A@@std@@@std@@QAE?AV012@H@Z ; std::_Tree<std::_Tmap_traits<HWND__ *,WndMoveData,std::less<HWND__ *>,std::allocator<std::pair<HWND__ * const,WndMoveData> >,0> >::iterator::operator++

; 119  : 				}

  00500	e9 2f ff ff ff	 jmp	 $L198581
$L198578:

; 120  : 
; 121  : 			}
; 122  : 			if(bFind == true)

  00505	0f b6 55 f6	 movzx	 edx, BYTE PTR _bFind$[ebp]
  00509	83 fa 01	 cmp	 edx, 1
  0050c	75 1a		 jne	 SHORT $L198586

; 123  : 			{
; 124  : 				it = m_mapWndMoveData.begin();

  0050e	8d 45 94	 lea	 eax, DWORD PTR $T199965[ebp]
  00511	50		 push	 eax
  00512	8b 4d 8c	 mov	 ecx, DWORD PTR _this$[ebp]
  00515	83 c1 04	 add	 ecx, 4
  00518	e8 00 00 00 00	 call	 ?begin@?$_Tree@V?$_Tmap_traits@PAUHWND__@@UWndMoveData@@U?$less@PAUHWND__@@@std@@V?$allocator@U?$pair@QAUHWND__@@UWndMoveData@@@std@@@4@$0A@@std@@@std@@QAE?AViterator@12@XZ ; std::_Tree<std::_Tmap_traits<HWND__ *,WndMoveData,std::less<HWND__ *>,std::allocator<std::pair<HWND__ * const,WndMoveData> >,0> >::begin
  0051d	8b 08		 mov	 ecx, DWORD PTR [eax]
  0051f	89 4d fc	 mov	 DWORD PTR _it$[ebp], ecx

; 125  : 				bFind = false;

  00522	c6 45 f6 00	 mov	 BYTE PTR _bFind$[ebp], 0

; 126  : 			}
; 127  : 			else

  00526	eb 0e		 jmp	 SHORT $L198588
$L198586:

; 128  : 				it++;

  00528	6a 00		 push	 0
  0052a	8d 55 90	 lea	 edx, DWORD PTR $T199966[ebp]
  0052d	52		 push	 edx
  0052e	8d 4d fc	 lea	 ecx, DWORD PTR _it$[ebp]
  00531	e8 00 00 00 00	 call	 ??Eiterator@?$_Tree@V?$_Tmap_traits@PAUHWND__@@UWndMoveData@@U?$less@PAUHWND__@@@std@@V?$allocator@U?$pair@QAUHWND__@@UWndMoveData@@@std@@@4@$0A@@std@@@std@@QAE?AV012@H@Z ; std::_Tree<std::_Tmap_traits<HWND__ *,WndMoveData,std::less<HWND__ *>,std::allocator<std::pair<HWND__ * const,WndMoveData> >,0> >::iterator::operator++
$L198588:

; 129  : 		}

  00536	e9 b0 fe ff ff	 jmp	 $L198575
$L198545:

; 130  : 	}
; 131  : }

  0053b	5f		 pop	 edi
  0053c	5e		 pop	 esi
  0053d	8b e5		 mov	 esp, ebp
  0053f	5d		 pop	 ebp
  00540	c2 0c 00	 ret	 12			; 0000000cH
?DoMouseDown@CWindowsMover@@QAEXPAUHWND__@@VCPoint@@@Z ENDP ; CWindowsMover::DoMouseDown
_TEXT	ENDS
PUBLIC	?Width@CRect@@QBEHXZ				; CRect::Width
PUBLIC	?Height@CRect@@QBEHXZ				; CRect::Height
PUBLIC	??BCRect@@QAEPAUtagRECT@@XZ			; CRect::operator tagRECT *
PUBLIC	??0CRgn@@QAE@XZ					; CRgn::CRgn
PUBLIC	?CreateRectRgn@CRgn@@QAEHHHHH@Z			; CRgn::CreateRectRgn
PUBLIC	?RectInRegion@CRgn@@QBEHPBUtagRECT@@@Z		; CRgn::RectInRegion
PUBLIC	??1CRgn@@UAE@XZ					; CRgn::~CRgn
EXTRN	?DeleteObject@CGdiObject@@QAEHXZ:NEAR		; CGdiObject::DeleteObject
xdata$x	SEGMENT
$T199983 DD	0ffffffffH
	DD	FLAT:$L199979
$T199981 DD	019930520H
	DD	01H
	DD	FLAT:$T199983
	DD	2 DUP(00H)
	DD	2 DUP(00H)
; Function compile flags: /Odt
xdata$x	ENDS
_TEXT	SEGMENT
tv81 = -56						; size = 4
tv79 = -52						; size = 4
tv67 = -48						; size = 4
tv65 = -44						; size = 4
_this$ = -40						; size = 4
$T199978 = -36						; size = 4
$T199977 = -32						; size = 4
$T199976 = -28						; size = 4
_bVertJoined$ = -22					; size = 1
_bHorzJoined$ = -21					; size = 1
_rgn$ = -20						; size = 8
__$EHRec$ = -12						; size = 12
_rc$ = 8						; size = 16
_rcTwo$ = 24						; size = 16
_rcMain$ = 40						; size = 16
?IsTwoWndStucked@CWindowsMover@@AAEHVCRect@@00@Z PROC NEAR ; CWindowsMover::IsTwoWndStucked
; _this$ = ecx

; 134  : {

  00550	55		 push	 ebp
  00551	8b ec		 mov	 ebp, esp
  00553	6a ff		 push	 -1
  00555	68 00 00 00 00	 push	 __ehhandler$?IsTwoWndStucked@CWindowsMover@@AAEHVCRect@@00@Z
  0055a	64 a1 00 00 00
	00		 mov	 eax, DWORD PTR fs:__except_list
  00560	50		 push	 eax
  00561	64 89 25 00 00
	00 00		 mov	 DWORD PTR fs:__except_list, esp
  00568	83 ec 2c	 sub	 esp, 44			; 0000002cH
  0056b	56		 push	 esi
  0056c	57		 push	 edi
  0056d	89 4d d8	 mov	 DWORD PTR _this$[ebp], ecx

; 135  : 	bool bVertJoined = max(rc.bottom, rcTwo.bottom) - min(rc.top , rcTwo.top) <= rc.Height() + rcTwo.Height() + 1;

  00570	8b 45 14	 mov	 eax, DWORD PTR _rc$[ebp+12]
  00573	3b 45 24	 cmp	 eax, DWORD PTR _rcTwo$[ebp+12]
  00576	7e 08		 jle	 SHORT $L199968
  00578	8b 4d 14	 mov	 ecx, DWORD PTR _rc$[ebp+12]
  0057b	89 4d d4	 mov	 DWORD PTR tv65[ebp], ecx
  0057e	eb 06		 jmp	 SHORT $L199969
$L199968:
  00580	8b 55 24	 mov	 edx, DWORD PTR _rcTwo$[ebp+12]
  00583	89 55 d4	 mov	 DWORD PTR tv65[ebp], edx
$L199969:
  00586	8b 45 0c	 mov	 eax, DWORD PTR _rc$[ebp+4]
  00589	3b 45 1c	 cmp	 eax, DWORD PTR _rcTwo$[ebp+4]
  0058c	7d 08		 jge	 SHORT $L199970
  0058e	8b 4d 0c	 mov	 ecx, DWORD PTR _rc$[ebp+4]
  00591	89 4d d0	 mov	 DWORD PTR tv67[ebp], ecx
  00594	eb 06		 jmp	 SHORT $L199971
$L199970:
  00596	8b 55 1c	 mov	 edx, DWORD PTR _rcTwo$[ebp+4]
  00599	89 55 d0	 mov	 DWORD PTR tv67[ebp], edx
$L199971:
  0059c	8b 75 d4	 mov	 esi, DWORD PTR tv65[ebp]
  0059f	2b 75 d0	 sub	 esi, DWORD PTR tv67[ebp]
  005a2	8d 4d 08	 lea	 ecx, DWORD PTR _rc$[ebp]
  005a5	e8 00 00 00 00	 call	 ?Height@CRect@@QBEHXZ	; CRect::Height
  005aa	8b f8		 mov	 edi, eax
  005ac	8d 4d 18	 lea	 ecx, DWORD PTR _rcTwo$[ebp]
  005af	e8 00 00 00 00	 call	 ?Height@CRect@@QBEHXZ	; CRect::Height
  005b4	8d 44 07 01	 lea	 eax, DWORD PTR [edi+eax+1]
  005b8	33 c9		 xor	 ecx, ecx
  005ba	3b f0		 cmp	 esi, eax
  005bc	0f 9e c1	 setle	 cl
  005bf	88 4d ea	 mov	 BYTE PTR _bVertJoined$[ebp], cl

; 136  : 	bool bHorzJoined = max(rc.right, rcTwo.right) - min(rc.left, rcTwo.left) <= rc.Width() + rcTwo.Width() + 1;

  005c2	8b 55 10	 mov	 edx, DWORD PTR _rc$[ebp+8]
  005c5	3b 55 20	 cmp	 edx, DWORD PTR _rcTwo$[ebp+8]
  005c8	7e 08		 jle	 SHORT $L199972
  005ca	8b 45 10	 mov	 eax, DWORD PTR _rc$[ebp+8]
  005cd	89 45 cc	 mov	 DWORD PTR tv79[ebp], eax
  005d0	eb 06		 jmp	 SHORT $L199973
$L199972:
  005d2	8b 4d 20	 mov	 ecx, DWORD PTR _rcTwo$[ebp+8]
  005d5	89 4d cc	 mov	 DWORD PTR tv79[ebp], ecx
$L199973:
  005d8	8b 55 08	 mov	 edx, DWORD PTR _rc$[ebp]
  005db	3b 55 18	 cmp	 edx, DWORD PTR _rcTwo$[ebp]
  005de	7d 08		 jge	 SHORT $L199974
  005e0	8b 45 08	 mov	 eax, DWORD PTR _rc$[ebp]
  005e3	89 45 c8	 mov	 DWORD PTR tv81[ebp], eax
  005e6	eb 06		 jmp	 SHORT $L199975
$L199974:
  005e8	8b 4d 18	 mov	 ecx, DWORD PTR _rcTwo$[ebp]
  005eb	89 4d c8	 mov	 DWORD PTR tv81[ebp], ecx
$L199975:
  005ee	8b 75 cc	 mov	 esi, DWORD PTR tv79[ebp]
  005f1	2b 75 c8	 sub	 esi, DWORD PTR tv81[ebp]
  005f4	8d 4d 08	 lea	 ecx, DWORD PTR _rc$[ebp]
  005f7	e8 00 00 00 00	 call	 ?Width@CRect@@QBEHXZ	; CRect::Width
  005fc	8b f8		 mov	 edi, eax
  005fe	8d 4d 18	 lea	 ecx, DWORD PTR _rcTwo$[ebp]
  00601	e8 00 00 00 00	 call	 ?Width@CRect@@QBEHXZ	; CRect::Width
  00606	8d 54 07 01	 lea	 edx, DWORD PTR [edi+eax+1]
  0060a	33 c0		 xor	 eax, eax
  0060c	3b f2		 cmp	 esi, edx
  0060e	0f 9e c0	 setle	 al
  00611	88 45 eb	 mov	 BYTE PTR _bHorzJoined$[ebp], al

; 137  : 
; 138  : 	// CRgn, 
; 139  : 	CRgn rgn;

  00614	8d 4d ec	 lea	 ecx, DWORD PTR _rgn$[ebp]
  00617	e8 00 00 00 00	 call	 ??0CRgn@@QAE@XZ		; CRgn::CRgn
  0061c	c7 45 fc 00 00
	00 00		 mov	 DWORD PTR __$EHRec$[ebp+8], 0

; 140  : 	rgn.CreateRectRgn(rc.left, rc.top, rc.right, rc.bottom);

  00623	8b 4d 14	 mov	 ecx, DWORD PTR _rc$[ebp+12]
  00626	51		 push	 ecx
  00627	8b 55 10	 mov	 edx, DWORD PTR _rc$[ebp+8]
  0062a	52		 push	 edx
  0062b	8b 45 0c	 mov	 eax, DWORD PTR _rc$[ebp+4]
  0062e	50		 push	 eax
  0062f	8b 4d 08	 mov	 ecx, DWORD PTR _rc$[ebp]
  00632	51		 push	 ecx
  00633	8d 4d ec	 lea	 ecx, DWORD PTR _rgn$[ebp]
  00636	e8 00 00 00 00	 call	 ?CreateRectRgn@CRgn@@QAEHHHHH@Z ; CRgn::CreateRectRgn

; 141  : 
; 142  : 	// 
; 143  : 	if (rgn.RectInRegion(&rcTwo) || rgn.RectInRegion(rcMain))

  0063b	8d 55 18	 lea	 edx, DWORD PTR _rcTwo$[ebp]
  0063e	52		 push	 edx
  0063f	8d 4d ec	 lea	 ecx, DWORD PTR _rgn$[ebp]
  00642	e8 00 00 00 00	 call	 ?RectInRegion@CRgn@@QBEHPBUtagRECT@@@Z ; CRgn::RectInRegion
  00647	85 c0		 test	 eax, eax
  00649	75 15		 jne	 SHORT $L198600
  0064b	8d 4d 28	 lea	 ecx, DWORD PTR _rcMain$[ebp]
  0064e	e8 00 00 00 00	 call	 ??BCRect@@QAEPAUtagRECT@@XZ ; CRect::operator tagRECT *
  00653	50		 push	 eax
  00654	8d 4d ec	 lea	 ecx, DWORD PTR _rgn$[ebp]
  00657	e8 00 00 00 00	 call	 ?RectInRegion@CRgn@@QBEHPBUtagRECT@@@Z ; CRgn::RectInRegion
  0065c	85 c0		 test	 eax, eax
  0065e	74 26		 je	 SHORT $L198599
$L198600:

; 144  : 	{
; 145  : 		rgn.DeleteObject();

  00660	8d 4d ec	 lea	 ecx, DWORD PTR _rgn$[ebp]
  00663	e8 00 00 00 00	 call	 ?DeleteObject@CGdiObject@@QAEHXZ ; CGdiObject::DeleteObject

; 146  : 		return false;

  00668	c7 45 e4 00 00
	00 00		 mov	 DWORD PTR $T199976[ebp], 0
  0066f	c7 45 fc ff ff
	ff ff		 mov	 DWORD PTR __$EHRec$[ebp+8], -1
  00676	8d 4d ec	 lea	 ecx, DWORD PTR _rgn$[ebp]
  00679	e8 00 00 00 00	 call	 ??1CRgn@@UAE@XZ		; CRgn::~CRgn
  0067e	8b 45 e4	 mov	 eax, DWORD PTR $T199976[ebp]
  00681	e9 bc 00 00 00	 jmp	 $L198595
$L198599:

; 147  : 	}
; 148  : 	rgn.DeleteObject();

  00686	8d 4d ec	 lea	 ecx, DWORD PTR _rgn$[ebp]
  00689	e8 00 00 00 00	 call	 ?DeleteObject@CGdiObject@@QAEHXZ ; CGdiObject::DeleteObject

; 149  : 
; 150  : 	if(
; 151  : 		(rc.left  == rcTwo.left && bVertJoined)	||
; 152  : 		(rc.left  == rcTwo.right	&& bVertJoined)	||
; 153  : 		(rc.right == rcTwo.left	&& bVertJoined)	||
; 154  : 		(rc.right == rcTwo.right && bVertJoined)	||
; 155  : 		(rc.top   == rcTwo.top && bHorzJoined	)	||
; 156  : 		(rc.top	  == rcTwo.bottom && bHorzJoined)	||
; 157  : 		(rc.bottom== rcTwo.top && bHorzJoined)		||
; 158  : 		(rc.bottom== rcTwo.bottom && bHorzJoined)
; 159  : 	)

  0068e	8b 45 08	 mov	 eax, DWORD PTR _rc$[ebp]
  00691	3b 45 18	 cmp	 eax, DWORD PTR _rcTwo$[ebp]
  00694	75 08		 jne	 SHORT $L198604
  00696	0f b6 4d ea	 movzx	 ecx, BYTE PTR _bVertJoined$[ebp]
  0069a	85 c9		 test	 ecx, ecx
  0069c	75 70		 jne	 SHORT $L198603
$L198604:
  0069e	8b 55 08	 mov	 edx, DWORD PTR _rc$[ebp]
  006a1	3b 55 20	 cmp	 edx, DWORD PTR _rcTwo$[ebp+8]
  006a4	75 08		 jne	 SHORT $L198605
  006a6	0f b6 45 ea	 movzx	 eax, BYTE PTR _bVertJoined$[ebp]
  006aa	85 c0		 test	 eax, eax
  006ac	75 60		 jne	 SHORT $L198603
$L198605:
  006ae	8b 4d 10	 mov	 ecx, DWORD PTR _rc$[ebp+8]
  006b1	3b 4d 18	 cmp	 ecx, DWORD PTR _rcTwo$[ebp]
  006b4	75 08		 jne	 SHORT $L198606
  006b6	0f b6 55 ea	 movzx	 edx, BYTE PTR _bVertJoined$[ebp]
  006ba	85 d2		 test	 edx, edx
  006bc	75 50		 jne	 SHORT $L198603
$L198606:
  006be	8b 45 10	 mov	 eax, DWORD PTR _rc$[ebp+8]
  006c1	3b 45 20	 cmp	 eax, DWORD PTR _rcTwo$[ebp+8]
  006c4	75 08		 jne	 SHORT $L198607
  006c6	0f b6 4d ea	 movzx	 ecx, BYTE PTR _bVertJoined$[ebp]
  006ca	85 c9		 test	 ecx, ecx
  006cc	75 40		 jne	 SHORT $L198603
$L198607:
  006ce	8b 55 0c	 mov	 edx, DWORD PTR _rc$[ebp+4]
  006d1	3b 55 1c	 cmp	 edx, DWORD PTR _rcTwo$[ebp+4]
  006d4	75 08		 jne	 SHORT $L198608
  006d6	0f b6 45 eb	 movzx	 eax, BYTE PTR _bHorzJoined$[ebp]
  006da	85 c0		 test	 eax, eax
  006dc	75 30		 jne	 SHORT $L198603
$L198608:
  006de	8b 4d 0c	 mov	 ecx, DWORD PTR _rc$[ebp+4]
  006e1	3b 4d 24	 cmp	 ecx, DWORD PTR _rcTwo$[ebp+12]
  006e4	75 08		 jne	 SHORT $L198609
  006e6	0f b6 55 eb	 movzx	 edx, BYTE PTR _bHorzJoined$[ebp]
  006ea	85 d2		 test	 edx, edx
  006ec	75 20		 jne	 SHORT $L198603
$L198609:
  006ee	8b 45 14	 mov	 eax, DWORD PTR _rc$[ebp+12]
  006f1	3b 45 1c	 cmp	 eax, DWORD PTR _rcTwo$[ebp+4]
  006f4	75 08		 jne	 SHORT $L198610
  006f6	0f b6 4d eb	 movzx	 ecx, BYTE PTR _bHorzJoined$[ebp]
  006fa	85 c9		 test	 ecx, ecx
  006fc	75 10		 jne	 SHORT $L198603
$L198610:
  006fe	8b 55 14	 mov	 edx, DWORD PTR _rc$[ebp+12]
  00701	3b 55 24	 cmp	 edx, DWORD PTR _rcTwo$[ebp+12]
  00704	75 23		 jne	 SHORT $L198602
  00706	0f b6 45 eb	 movzx	 eax, BYTE PTR _bHorzJoined$[ebp]
  0070a	85 c0		 test	 eax, eax
  0070c	74 1b		 je	 SHORT $L198602
$L198603:

; 160  : 		return true;

  0070e	c7 45 e0 01 00
	00 00		 mov	 DWORD PTR $T199977[ebp], 1
  00715	c7 45 fc ff ff
	ff ff		 mov	 DWORD PTR __$EHRec$[ebp+8], -1
  0071c	8d 4d ec	 lea	 ecx, DWORD PTR _rgn$[ebp]
  0071f	e8 00 00 00 00	 call	 ??1CRgn@@UAE@XZ		; CRgn::~CRgn
  00724	8b 45 e0	 mov	 eax, DWORD PTR $T199977[ebp]
  00727	eb 19		 jmp	 SHORT $L198595
$L198602:

; 161  : 	else
; 162  : 		return false;

  00729	c7 45 dc 00 00
	00 00		 mov	 DWORD PTR $T199978[ebp], 0
  00730	c7 45 fc ff ff
	ff ff		 mov	 DWORD PTR __$EHRec$[ebp+8], -1
  00737	8d 4d ec	 lea	 ecx, DWORD PTR _rgn$[ebp]
  0073a	e8 00 00 00 00	 call	 ??1CRgn@@UAE@XZ		; CRgn::~CRgn
  0073f	8b 45 dc	 mov	 eax, DWORD PTR $T199978[ebp]
$L198595:

; 163  : }

  00742	8b 4d f4	 mov	 ecx, DWORD PTR __$EHRec$[ebp]
  00745	64 89 0d 00 00
	00 00		 mov	 DWORD PTR fs:__except_list, ecx
  0074c	5f		 pop	 edi
  0074d	5e		 pop	 esi
  0074e	8b e5		 mov	 esp, ebp
  00750	5d		 pop	 ebp
  00751	c2 30 00	 ret	 48			; 00000030H
_TEXT	ENDS
text$x	SEGMENT
$L199979:
  00015	8d 4d ec	 lea	 ecx, DWORD PTR _rgn$[ebp]
  00018	e9 00 00 00 00	 jmp	 ??1CRgn@@UAE@XZ		; CRgn::~CRgn
__ehhandler$?IsTwoWndStucked@CWindowsMover@@AAEHVCRect@@00@Z:
  0001d	b8 00 00 00 00	 mov	 eax, OFFSET FLAT:$T199981
  00022	e9 00 00 00 00	 jmp	 ___CxxFrameHandler
text$x	ENDS
?IsTwoWndStucked@CWindowsMover@@AAEHVCRect@@00@Z ENDP	; CWindowsMover::IsTwoWndStucked
PUBLIC	??0CRect@@QAE@PBUtagRECT@@@Z			; CRect::CRect
PUBLIC	?MovingAllWindows@CWindowsMover@@AAEXXZ		; CWindowsMover::MovingAllWindows
PUBLIC	?DoMouseUp@CWindowsMover@@QAEXPAUHWND__@@VCPoint@@@Z ; CWindowsMover::DoMouseUp
PUBLIC	?MoveWindow@CWnd@@QAEXPBUtagRECT@@H@Z		; CWnd::MoveWindow
EXTRN	__imp__ReleaseCapture@0:NEAR
; Function compile flags: /Odt
_TEXT	SEGMENT
_this$ = -24						; size = 4
_rc$198620 = -16					; size = 16
_hwnd$ = 8						; size = 4
_p$ = 12						; size = 8
?DoMouseUp@CWindowsMover@@QAEXPAUHWND__@@VCPoint@@@Z PROC NEAR ; CWindowsMover::DoMouseUp
; _this$ = ecx

; 166  : {

  00760	55		 push	 ebp
  00761	8b ec		 mov	 ebp, esp
  00763	83 ec 18	 sub	 esp, 24			; 00000018H
  00766	89 4d e8	 mov	 DWORD PTR _this$[ebp], ecx

; 167  : 
; 168  : 	ReleaseCapture();

  00769	ff 15 00 00 00
	00		 call	 DWORD PTR __imp__ReleaseCapture@0

; 169  : 
; 170  : 	if(m_bDontMoveContent && m_bMouseDown)

  0076f	8b 45 e8	 mov	 eax, DWORD PTR _this$[ebp]
  00772	83 78 3c 00	 cmp	 DWORD PTR [eax+60], 0
  00776	0f 84 96 00 00
	00		 je	 $L198619
  0077c	8b 4d e8	 mov	 ecx, DWORD PTR _this$[ebp]
  0077f	83 39 00	 cmp	 DWORD PTR [ecx], 0
  00782	0f 84 8a 00 00
	00		 je	 $L198619

; 171  : 	{
; 172  : 		CRect rc;

  00788	8d 4d f0	 lea	 ecx, DWORD PTR _rc$198620[ebp]
  0078b	e8 00 00 00 00	 call	 ??0CRect@@QAE@XZ	; CRect::CRect

; 173  : 
; 174  : 		m_offsetX = p.x-m_ptMouseDownPos.x;

  00790	8b 55 e8	 mov	 edx, DWORD PTR _this$[ebp]
  00793	8b 45 0c	 mov	 eax, DWORD PTR _p$[ebp]
  00796	2b 42 14	 sub	 eax, DWORD PTR [edx+20]
  00799	8b 4d e8	 mov	 ecx, DWORD PTR _this$[ebp]
  0079c	89 41 24	 mov	 DWORD PTR [ecx+36], eax

; 175  : 		m_offsetY = p.y-m_ptMouseDownPos.y;

  0079f	8b 55 e8	 mov	 edx, DWORD PTR _this$[ebp]
  007a2	8b 45 10	 mov	 eax, DWORD PTR _p$[ebp+4]
  007a5	2b 42 18	 sub	 eax, DWORD PTR [edx+24]
  007a8	8b 4d e8	 mov	 ecx, DWORD PTR _this$[ebp]
  007ab	89 41 28	 mov	 DWORD PTR [ecx+40], eax

; 176  : 
; 177  : 		GetWindowRect(hwnd, &rc);

  007ae	8d 55 f0	 lea	 edx, DWORD PTR _rc$198620[ebp]
  007b1	52		 push	 edx
  007b2	8b 45 08	 mov	 eax, DWORD PTR _hwnd$[ebp]
  007b5	50		 push	 eax
  007b6	ff 15 00 00 00
	00		 call	 DWORD PTR __imp__GetWindowRect@8

; 178  : 		rc.OffsetRect(m_offsetX, m_offsetY);

  007bc	8b 4d e8	 mov	 ecx, DWORD PTR _this$[ebp]
  007bf	8b 51 28	 mov	 edx, DWORD PTR [ecx+40]
  007c2	52		 push	 edx
  007c3	8b 45 e8	 mov	 eax, DWORD PTR _this$[ebp]
  007c6	8b 48 24	 mov	 ecx, DWORD PTR [eax+36]
  007c9	51		 push	 ecx
  007ca	8d 4d f0	 lea	 ecx, DWORD PTR _rc$198620[ebp]
  007cd	e8 00 00 00 00	 call	 ?OffsetRect@CRect@@QAEXHH@Z ; CRect::OffsetRect

; 179  : 
; 180  : 		DrawMoveFrame(&m_rcKeep);

  007d2	8b 55 e8	 mov	 edx, DWORD PTR _this$[ebp]
  007d5	83 c2 2c	 add	 edx, 44			; 0000002cH
  007d8	83 ec 10	 sub	 esp, 16			; 00000010H
  007db	8b cc		 mov	 ecx, esp
  007dd	52		 push	 edx
  007de	e8 00 00 00 00	 call	 ??0CRect@@QAE@PBUtagRECT@@@Z ; CRect::CRect
  007e3	8b 4d e8	 mov	 ecx, DWORD PTR _this$[ebp]
  007e6	e8 00 00 00 00	 call	 ?DrawMoveFrame@CWindowsMover@@QAEXVCRect@@@Z ; CWindowsMover::DrawMoveFrame

; 181  : 
; 182  : 		m_mapWndMoveData[hwnd].pWnd->MoveWindow(&rc);

  007eb	6a 01		 push	 1
  007ed	8d 45 f0	 lea	 eax, DWORD PTR _rc$198620[ebp]
  007f0	50		 push	 eax
  007f1	8d 4d 08	 lea	 ecx, DWORD PTR _hwnd$[ebp]
  007f4	51		 push	 ecx
  007f5	8b 4d e8	 mov	 ecx, DWORD PTR _this$[ebp]
  007f8	83 c1 04	 add	 ecx, 4
  007fb	e8 00 00 00 00	 call	 ??A?$map@PAUHWND__@@UWndMoveData@@U?$less@PAUHWND__@@@std@@V?$allocator@U?$pair@QAUHWND__@@UWndMoveData@@@std@@@4@@std@@QAEAAUWndMoveData@@ABQAUHWND__@@@Z ; std::map<HWND__ *,WndMoveData,std::less<HWND__ *>,std::allocator<std::pair<HWND__ * const,WndMoveData> > >::operator[]
  00800	8b 08		 mov	 ecx, DWORD PTR [eax]
  00802	e8 00 00 00 00	 call	 ?MoveWindow@CWnd@@QAEXPBUtagRECT@@H@Z ; CWnd::MoveWindow

; 183  : 		m_bMouseDown = false;

  00807	8b 55 e8	 mov	 edx, DWORD PTR _this$[ebp]
  0080a	c7 02 00 00 00
	00		 mov	 DWORD PTR [edx], 0

; 184  : 		return;

  00810	eb 11		 jmp	 SHORT $L198618
$L198619:

; 185  : 	}
; 186  : 	m_bMouseDown = false;

  00812	8b 45 e8	 mov	 eax, DWORD PTR _this$[ebp]
  00815	c7 00 00 00 00
	00		 mov	 DWORD PTR [eax], 0

; 187  : 	MovingAllWindows();

  0081b	8b 4d e8	 mov	 ecx, DWORD PTR _this$[ebp]
  0081e	e8 00 00 00 00	 call	 ?MovingAllWindows@CWindowsMover@@AAEXXZ ; CWindowsMover::MovingAllWindows
$L198618:

; 188  : }

  00823	8b e5		 mov	 esp, ebp
  00825	5d		 pop	 ebp
  00826	c2 0c 00	 ret	 12			; 0000000cH
?DoMouseUp@CWindowsMover@@QAEXPAUHWND__@@VCPoint@@@Z ENDP ; CWindowsMover::DoMouseUp
_TEXT	ENDS
PUBLIC	??8CPoint@@QBEHUtagPOINT@@@Z			; CPoint::operator==
PUBLIC	?CalMinDistance@CWindowsMover@@AAEXAAH0@Z	; CWindowsMover::CalMinDistance
PUBLIC	?ModifyMovingWndPos@CWindowsMover@@AAEXHH@Z	; CWindowsMover::ModifyMovingWndPos
PUBLIC	?DoMouseMove@CWindowsMover@@QAEXPAUHWND__@@IVCPoint@@@Z ; CWindowsMover::DoMouseMove
PUBLIC	?abs@@YAJJ@Z					; abs
EXTRN	__imp__GetTickCount@0:NEAR
; Function compile flags: /Odt
_TEXT	SEGMENT
_this$ = -48						; size = 4
$T199989 = -44						; size = 8
_rc$198633 = -28					; size = 16
_nMinY$ = -12						; size = 4
_nMinX$ = -8						; size = 4
_count$ = -4						; size = 4
_hWnd$ = 8						; size = 4
_nFlags$ = 12						; size = 4
_p$ = 16						; size = 8
?DoMouseMove@CWindowsMover@@QAEXPAUHWND__@@IVCPoint@@@Z PROC NEAR ; CWindowsMover::DoMouseMove
; _this$ = ecx

; 191  : {

  00830	55		 push	 ebp
  00831	8b ec		 mov	 ebp, esp
  00833	83 ec 30	 sub	 esp, 48			; 00000030H
  00836	89 4d d0	 mov	 DWORD PTR _this$[ebp], ecx

; 192  : 	//ClientToScreen(hWnd, &p);
; 193  : 	if(!m_bMouseDown)

  00839	8b 45 d0	 mov	 eax, DWORD PTR _this$[ebp]
  0083c	83 38 00	 cmp	 DWORD PTR [eax], 0
  0083f	75 05		 jne	 SHORT $L198628

; 194  : 		return;

  00841	e9 89 01 00 00	 jmp	 $L198627
$L198628:

; 195  : 
; 196  : 	int nMinX, nMinY;
; 197  : 	if(!(nFlags & MK_LBUTTON))

  00846	8b 4d 0c	 mov	 ecx, DWORD PTR _nFlags$[ebp]
  00849	83 e1 01	 and	 ecx, 1
  0084c	75 05		 jne	 SHORT $L198631

; 198  : 	{
; 199  : 		return;

  0084e	e9 7c 01 00 00	 jmp	 $L198627
$L198631:

; 200  : 	}
; 201  : 
; 202  : 	if(m_bDontMoveContent)

  00853	8b 55 d0	 mov	 edx, DWORD PTR _this$[ebp]
  00856	83 7a 3c 00	 cmp	 DWORD PTR [edx+60], 0
  0085a	0f 84 9b 00 00
	00		 je	 $L198632

; 203  : 	{
; 204  : 		CRect rc;

  00860	8d 4d e4	 lea	 ecx, DWORD PTR _rc$198633[ebp]
  00863	e8 00 00 00 00	 call	 ??0CRect@@QAE@XZ	; CRect::CRect

; 205  : 
; 206  : 		m_offsetX = p.x-m_ptMouseDownPos.x;

  00868	8b 45 d0	 mov	 eax, DWORD PTR _this$[ebp]
  0086b	8b 4d 10	 mov	 ecx, DWORD PTR _p$[ebp]
  0086e	2b 48 14	 sub	 ecx, DWORD PTR [eax+20]
  00871	8b 55 d0	 mov	 edx, DWORD PTR _this$[ebp]
  00874	89 4a 24	 mov	 DWORD PTR [edx+36], ecx

; 207  : 		m_offsetY = p.y-m_ptMouseDownPos.y;

  00877	8b 45 d0	 mov	 eax, DWORD PTR _this$[ebp]
  0087a	8b 4d 14	 mov	 ecx, DWORD PTR _p$[ebp+4]
  0087d	2b 48 18	 sub	 ecx, DWORD PTR [eax+24]
  00880	8b 55 d0	 mov	 edx, DWORD PTR _this$[ebp]
  00883	89 4a 28	 mov	 DWORD PTR [edx+40], ecx

; 208  : 
; 209  : 		GetWindowRect(hWnd, &rc);

  00886	8d 45 e4	 lea	 eax, DWORD PTR _rc$198633[ebp]
  00889	50		 push	 eax
  0088a	8b 4d 08	 mov	 ecx, DWORD PTR _hWnd$[ebp]
  0088d	51		 push	 ecx
  0088e	ff 15 00 00 00
	00		 call	 DWORD PTR __imp__GetWindowRect@8

; 210  : 		rc.OffsetRect(m_offsetX, m_offsetY);

  00894	8b 55 d0	 mov	 edx, DWORD PTR _this$[ebp]
  00897	8b 42 28	 mov	 eax, DWORD PTR [edx+40]
  0089a	50		 push	 eax
  0089b	8b 4d d0	 mov	 ecx, DWORD PTR _this$[ebp]
  0089e	8b 51 24	 mov	 edx, DWORD PTR [ecx+36]
  008a1	52		 push	 edx
  008a2	8d 4d e4	 lea	 ecx, DWORD PTR _rc$198633[ebp]
  008a5	e8 00 00 00 00	 call	 ?OffsetRect@CRect@@QAEXHH@Z ; CRect::OffsetRect

; 211  : 
; 212  : 		DrawMoveFrame(&m_rcKeep);

  008aa	8b 45 d0	 mov	 eax, DWORD PTR _this$[ebp]
  008ad	83 c0 2c	 add	 eax, 44			; 0000002cH
  008b0	83 ec 10	 sub	 esp, 16			; 00000010H
  008b3	8b cc		 mov	 ecx, esp
  008b5	50		 push	 eax
  008b6	e8 00 00 00 00	 call	 ??0CRect@@QAE@PBUtagRECT@@@Z ; CRect::CRect
  008bb	8b 4d d0	 mov	 ecx, DWORD PTR _this$[ebp]
  008be	e8 00 00 00 00	 call	 ?DrawMoveFrame@CWindowsMover@@QAEXVCRect@@@Z ; CWindowsMover::DrawMoveFrame

; 213  : 		m_rcKeep = rc;

  008c3	8b 4d d0	 mov	 ecx, DWORD PTR _this$[ebp]
  008c6	83 c1 2c	 add	 ecx, 44			; 0000002cH
  008c9	8b 55 e4	 mov	 edx, DWORD PTR _rc$198633[ebp]
  008cc	89 11		 mov	 DWORD PTR [ecx], edx
  008ce	8b 45 e8	 mov	 eax, DWORD PTR _rc$198633[ebp+4]
  008d1	89 41 04	 mov	 DWORD PTR [ecx+4], eax
  008d4	8b 55 ec	 mov	 edx, DWORD PTR _rc$198633[ebp+8]
  008d7	89 51 08	 mov	 DWORD PTR [ecx+8], edx
  008da	8b 45 f0	 mov	 eax, DWORD PTR _rc$198633[ebp+12]
  008dd	89 41 0c	 mov	 DWORD PTR [ecx+12], eax

; 214  : 		DrawMoveFrame(&rc);

  008e0	83 ec 10	 sub	 esp, 16			; 00000010H
  008e3	8b cc		 mov	 ecx, esp
  008e5	8d 55 e4	 lea	 edx, DWORD PTR _rc$198633[ebp]
  008e8	52		 push	 edx
  008e9	e8 00 00 00 00	 call	 ??0CRect@@QAE@PBUtagRECT@@@Z ; CRect::CRect
  008ee	8b 4d d0	 mov	 ecx, DWORD PTR _this$[ebp]
  008f1	e8 00 00 00 00	 call	 ?DrawMoveFrame@CWindowsMover@@QAEXVCRect@@@Z ; CWindowsMover::DrawMoveFrame

; 215  : 		return;

  008f6	e9 d4 00 00 00	 jmp	 $L198627
$L198632:

; 216  : 	}
; 217  : 
; 218  : 	if(m_ptLastMousePos == p)

  008fb	8b 45 10	 mov	 eax, DWORD PTR _p$[ebp]
  008fe	89 45 d4	 mov	 DWORD PTR $T199989[ebp], eax
  00901	8b 4d 14	 mov	 ecx, DWORD PTR _p$[ebp+4]
  00904	89 4d d8	 mov	 DWORD PTR $T199989[ebp+4], ecx
  00907	8b 55 d8	 mov	 edx, DWORD PTR $T199989[ebp+4]
  0090a	52		 push	 edx
  0090b	8b 45 d4	 mov	 eax, DWORD PTR $T199989[ebp]
  0090e	50		 push	 eax
  0090f	8b 4d d0	 mov	 ecx, DWORD PTR _this$[ebp]
  00912	83 c1 1c	 add	 ecx, 28			; 0000001cH
  00915	e8 00 00 00 00	 call	 ??8CPoint@@QBEHUtagPOINT@@@Z ; CPoint::operator==
  0091a	85 c0		 test	 eax, eax
  0091c	74 05		 je	 SHORT $L198637

; 219  : 		return;

  0091e	e9 ac 00 00 00	 jmp	 $L198627
$L198637:

; 220  : 
; 221  : 	if(abs(m_ptLastMousePos.x - p.x) < 3 && abs(m_ptLastMousePos.y - p.y) < 3)

  00923	8b 4d d0	 mov	 ecx, DWORD PTR _this$[ebp]
  00926	8b 51 1c	 mov	 edx, DWORD PTR [ecx+28]
  00929	2b 55 10	 sub	 edx, DWORD PTR _p$[ebp]
  0092c	52		 push	 edx
  0092d	e8 00 00 00 00	 call	 ?abs@@YAJJ@Z		; abs
  00932	83 c4 04	 add	 esp, 4
  00935	83 f8 03	 cmp	 eax, 3
  00938	7d 19		 jge	 SHORT $L198638
  0093a	8b 45 d0	 mov	 eax, DWORD PTR _this$[ebp]
  0093d	8b 48 20	 mov	 ecx, DWORD PTR [eax+32]
  00940	2b 4d 14	 sub	 ecx, DWORD PTR _p$[ebp+4]
  00943	51		 push	 ecx
  00944	e8 00 00 00 00	 call	 ?abs@@YAJJ@Z		; abs
  00949	83 c4 04	 add	 esp, 4
  0094c	83 f8 03	 cmp	 eax, 3
  0094f	7d 02		 jge	 SHORT $L198638

; 222  : 		return;

  00951	eb 7c		 jmp	 SHORT $L198627
$L198638:

; 223  : 
; 224  : 	DWORD count = GetTickCount();

  00953	ff 15 00 00 00
	00		 call	 DWORD PTR __imp__GetTickCount@0
  00959	89 45 fc	 mov	 DWORD PTR _count$[ebp], eax

; 225  : 	m_ptLastMousePos = p;

  0095c	8b 55 d0	 mov	 edx, DWORD PTR _this$[ebp]
  0095f	8b 45 10	 mov	 eax, DWORD PTR _p$[ebp]
  00962	89 42 1c	 mov	 DWORD PTR [edx+28], eax
  00965	8b 4d 14	 mov	 ecx, DWORD PTR _p$[ebp+4]
  00968	89 4a 20	 mov	 DWORD PTR [edx+32], ecx

; 226  : 	m_hCurWnd = hWnd;

  0096b	8b 55 d0	 mov	 edx, DWORD PTR _this$[ebp]
  0096e	8b 45 08	 mov	 eax, DWORD PTR _hWnd$[ebp]
  00971	89 42 10	 mov	 DWORD PTR [edx+16], eax

; 227  : 	nMinX = nMinY = 0;

  00974	c7 45 f4 00 00
	00 00		 mov	 DWORD PTR _nMinY$[ebp], 0
  0097b	8b 4d f4	 mov	 ecx, DWORD PTR _nMinY$[ebp]
  0097e	89 4d f8	 mov	 DWORD PTR _nMinX$[ebp], ecx

; 228  : 	m_offsetX = p.x-m_ptMouseDownPos.x;

  00981	8b 55 d0	 mov	 edx, DWORD PTR _this$[ebp]
  00984	8b 45 10	 mov	 eax, DWORD PTR _p$[ebp]
  00987	2b 42 14	 sub	 eax, DWORD PTR [edx+20]
  0098a	8b 4d d0	 mov	 ecx, DWORD PTR _this$[ebp]
  0098d	89 41 24	 mov	 DWORD PTR [ecx+36], eax

; 229  : 	m_offsetY = p.y-m_ptMouseDownPos.y;

  00990	8b 55 d0	 mov	 edx, DWORD PTR _this$[ebp]
  00993	8b 45 14	 mov	 eax, DWORD PTR _p$[ebp+4]
  00996	2b 42 18	 sub	 eax, DWORD PTR [edx+24]
  00999	8b 4d d0	 mov	 ecx, DWORD PTR _this$[ebp]
  0099c	89 41 28	 mov	 DWORD PTR [ecx+40], eax

; 230  : 	CalMovingWndNewPos();

  0099f	8b 4d d0	 mov	 ecx, DWORD PTR _this$[ebp]
  009a2	e8 00 00 00 00	 call	 ?CalMovingWndNewPos@CWindowsMover@@AAEXXZ ; CWindowsMover::CalMovingWndNewPos

; 231  : 	CalMinDistance(nMinX, nMinY);

  009a7	8d 55 f4	 lea	 edx, DWORD PTR _nMinY$[ebp]
  009aa	52		 push	 edx
  009ab	8d 45 f8	 lea	 eax, DWORD PTR _nMinX$[ebp]
  009ae	50		 push	 eax
  009af	8b 4d d0	 mov	 ecx, DWORD PTR _this$[ebp]
  009b2	e8 00 00 00 00	 call	 ?CalMinDistance@CWindowsMover@@AAEXAAH0@Z ; CWindowsMover::CalMinDistance

; 232  : 	ModifyMovingWndPos(nMinX, nMinY);

  009b7	8b 4d f4	 mov	 ecx, DWORD PTR _nMinY$[ebp]
  009ba	51		 push	 ecx
  009bb	8b 55 f8	 mov	 edx, DWORD PTR _nMinX$[ebp]
  009be	52		 push	 edx
  009bf	8b 4d d0	 mov	 ecx, DWORD PTR _this$[ebp]
  009c2	e8 00 00 00 00	 call	 ?ModifyMovingWndPos@CWindowsMover@@AAEXHH@Z ; CWindowsMover::ModifyMovingWndPos

; 233  : 	MovingAllWindows();

  009c7	8b 4d d0	 mov	 ecx, DWORD PTR _this$[ebp]
  009ca	e8 00 00 00 00	 call	 ?MovingAllWindows@CWindowsMover@@AAEXXZ ; CWindowsMover::MovingAllWindows
$L198627:

; 234  : 
; 235  : 	//TRACE("%d\n", GetTickCount() - count);
; 236  : }

  009cf	8b e5		 mov	 esp, ebp
  009d1	5d		 pop	 ebp
  009d2	c2 10 00	 ret	 16			; 00000010H
?DoMouseMove@CWindowsMover@@QAEXPAUHWND__@@IVCPoint@@@Z ENDP ; CWindowsMover::DoMouseMove
_TEXT	ENDS
PUBLIC	?ModifyMovingWndPosAndSize@CWindowsMover@@AAEXHHH@Z ; CWindowsMover::ModifyMovingWndPosAndSize
PUBLIC	?DoMouseResizingFinished@CWindowsMover@@QAEXPAUHWND__@@IVCPoint@@H@Z ; CWindowsMover::DoMouseResizingFinished
; Function compile flags: /Odt
_TEXT	SEGMENT
_this$ = -36						; size = 4
$T199993 = -32						; size = 4
$T199992 = -28						; size = 4
$T199991 = -24						; size = 8
_nMinY$ = -16						; size = 4
_nMinX$ = -12						; size = 4
_count$ = -8						; size = 4
_it$ = -4						; size = 4
_hWnd$ = 8						; size = 4
_nFlags$ = 12						; size = 4
_p$ = 16						; size = 8
_iDirection$ = 24					; size = 4
?DoMouseResizingFinished@CWindowsMover@@QAEXPAUHWND__@@IVCPoint@@H@Z PROC NEAR ; CWindowsMover::DoMouseResizingFinished
; _this$ = ecx

; 239  : {

  009e0	55		 push	 ebp
  009e1	8b ec		 mov	 ebp, esp
  009e3	83 ec 24	 sub	 esp, 36			; 00000024H
  009e6	89 4d dc	 mov	 DWORD PTR _this$[ebp], ecx

; 240  : 	int nMinX, nMinY;
; 241  : 
; 242  : //	ClientToScreen(hWnd, &p);
; 243  : 	if(m_ptLastMousePos == p)

  009e9	8b 45 10	 mov	 eax, DWORD PTR _p$[ebp]
  009ec	89 45 e8	 mov	 DWORD PTR $T199991[ebp], eax
  009ef	8b 4d 14	 mov	 ecx, DWORD PTR _p$[ebp+4]
  009f2	89 4d ec	 mov	 DWORD PTR $T199991[ebp+4], ecx
  009f5	8b 55 ec	 mov	 edx, DWORD PTR $T199991[ebp+4]
  009f8	52		 push	 edx
  009f9	8b 45 e8	 mov	 eax, DWORD PTR $T199991[ebp]
  009fc	50		 push	 eax
  009fd	8b 4d dc	 mov	 ecx, DWORD PTR _this$[ebp]
  00a00	83 c1 1c	 add	 ecx, 28			; 0000001cH
  00a03	e8 00 00 00 00	 call	 ??8CPoint@@QBEHUtagPOINT@@@Z ; CPoint::operator==
  00a08	85 c0		 test	 eax, eax
  00a0a	74 05		 je	 SHORT $L198650

; 244  : 		return;

  00a0c	e9 08 01 00 00	 jmp	 $L198646
$L198650:

; 245  : 
; 246  : 	if(abs(m_ptLastMousePos.x - p.x) < 3 && abs(m_ptLastMousePos.y - p.y) < 3)

  00a11	8b 4d dc	 mov	 ecx, DWORD PTR _this$[ebp]
  00a14	8b 51 1c	 mov	 edx, DWORD PTR [ecx+28]
  00a17	2b 55 10	 sub	 edx, DWORD PTR _p$[ebp]
  00a1a	52		 push	 edx
  00a1b	e8 00 00 00 00	 call	 ?abs@@YAJJ@Z		; abs
  00a20	83 c4 04	 add	 esp, 4
  00a23	83 f8 03	 cmp	 eax, 3
  00a26	7d 1c		 jge	 SHORT $L198651
  00a28	8b 45 dc	 mov	 eax, DWORD PTR _this$[ebp]
  00a2b	8b 48 20	 mov	 ecx, DWORD PTR [eax+32]
  00a2e	2b 4d 14	 sub	 ecx, DWORD PTR _p$[ebp+4]
  00a31	51		 push	 ecx
  00a32	e8 00 00 00 00	 call	 ?abs@@YAJJ@Z		; abs
  00a37	83 c4 04	 add	 esp, 4
  00a3a	83 f8 03	 cmp	 eax, 3
  00a3d	7d 05		 jge	 SHORT $L198651

; 247  : 		return;

  00a3f	e9 d5 00 00 00	 jmp	 $L198646
$L198651:

; 248  : 
; 249  : 	DWORD count = GetTickCount();

  00a44	ff 15 00 00 00
	00		 call	 DWORD PTR __imp__GetTickCount@0
  00a4a	89 45 f8	 mov	 DWORD PTR _count$[ebp], eax

; 250  : 
; 251  : 	m_ptLastMousePos = p;

  00a4d	8b 55 dc	 mov	 edx, DWORD PTR _this$[ebp]
  00a50	8b 45 10	 mov	 eax, DWORD PTR _p$[ebp]
  00a53	89 42 1c	 mov	 DWORD PTR [edx+28], eax
  00a56	8b 4d 14	 mov	 ecx, DWORD PTR _p$[ebp+4]
  00a59	89 4a 20	 mov	 DWORD PTR [edx+32], ecx

; 252  : 	m_hCurWnd = hWnd;

  00a5c	8b 55 dc	 mov	 edx, DWORD PTR _this$[ebp]
  00a5f	8b 45 08	 mov	 eax, DWORD PTR _hWnd$[ebp]
  00a62	89 42 10	 mov	 DWORD PTR [edx+16], eax

; 253  : 
; 254  : 	nMinX = nMinY = 0;

  00a65	c7 45 f0 00 00
	00 00		 mov	 DWORD PTR _nMinY$[ebp], 0
  00a6c	8b 4d f0	 mov	 ecx, DWORD PTR _nMinY$[ebp]
  00a6f	89 4d f4	 mov	 DWORD PTR _nMinX$[ebp], ecx

; 255  : 	m_offsetX = 0;//p.x-m_ptMouseDownPos.x;

  00a72	8b 55 dc	 mov	 edx, DWORD PTR _this$[ebp]
  00a75	c7 42 24 00 00
	00 00		 mov	 DWORD PTR [edx+36], 0

; 256  : 	m_offsetY = 0;//p.y-m_ptMouseDownPos.y;

  00a7c	8b 45 dc	 mov	 eax, DWORD PTR _this$[ebp]
  00a7f	c7 40 28 00 00
	00 00		 mov	 DWORD PTR [eax+40], 0

; 257  : 
; 258  : 	map<HWND, WndMoveData>::iterator it = m_mapWndMoveData.begin();

  00a86	8d 4d fc	 lea	 ecx, DWORD PTR _it$[ebp]
  00a89	51		 push	 ecx
  00a8a	8b 4d dc	 mov	 ecx, DWORD PTR _this$[ebp]
  00a8d	83 c1 04	 add	 ecx, 4
  00a90	e8 00 00 00 00	 call	 ?begin@?$_Tree@V?$_Tmap_traits@PAUHWND__@@UWndMoveData@@U?$less@PAUHWND__@@@std@@V?$allocator@U?$pair@QAUHWND__@@UWndMoveData@@@std@@@4@$0A@@std@@@std@@QAE?AViterator@12@XZ ; std::_Tree<std::_Tmap_traits<HWND__ *,WndMoveData,std::less<HWND__ *>,std::allocator<std::pair<HWND__ * const,WndMoveData> >,0> >::begin
$L198661:

; 259  : 	while(it != m_mapWndMoveData.end())

  00a95	8d 55 e4	 lea	 edx, DWORD PTR $T199992[ebp]
  00a98	52		 push	 edx
  00a99	8b 4d dc	 mov	 ecx, DWORD PTR _this$[ebp]
  00a9c	83 c1 04	 add	 ecx, 4
  00a9f	e8 00 00 00 00	 call	 ?end@?$_Tree@V?$_Tmap_traits@PAUHWND__@@UWndMoveData@@U?$less@PAUHWND__@@@std@@V?$allocator@U?$pair@QAUHWND__@@UWndMoveData@@@std@@@4@$0A@@std@@@std@@QAE?AViterator@12@XZ ; std::_Tree<std::_Tmap_traits<HWND__ *,WndMoveData,std::less<HWND__ *>,std::allocator<std::pair<HWND__ * const,WndMoveData> >,0> >::end
  00aa4	50		 push	 eax
  00aa5	8d 4d fc	 lea	 ecx, DWORD PTR _it$[ebp]
  00aa8	e8 00 00 00 00	 call	 ??9const_iterator@?$_Tree@V?$_Tmap_traits@PAUHWND__@@UWndMoveData@@U?$less@PAUHWND__@@@std@@V?$allocator@U?$pair@QAUHWND__@@UWndMoveData@@@std@@@4@$0A@@std@@@std@@QBE_NABV012@@Z ; std::_Tree<std::_Tmap_traits<HWND__ *,WndMoveData,std::less<HWND__ *>,std::allocator<std::pair<HWND__ * const,WndMoveData> >,0> >::const_iterator::operator!=
  00aad	0f b6 c0	 movzx	 eax, al
  00ab0	85 c0		 test	 eax, eax
  00ab2	74 31		 je	 SHORT $L198662

; 260  : 	{
; 261  : 		//::GetWindowRect(hWnd, &m_mapWndMoveData[hWnd].rc);
; 262  : 		::GetWindowRect(it->second.pWnd->m_hWnd, &it->second.rc);

  00ab4	8d 4d fc	 lea	 ecx, DWORD PTR _it$[ebp]
  00ab7	e8 00 00 00 00	 call	 ??Citerator@?$_Tree@V?$_Tmap_traits@PAUHWND__@@UWndMoveData@@U?$less@PAUHWND__@@@std@@V?$allocator@U?$pair@QAUHWND__@@UWndMoveData@@@std@@@4@$0A@@std@@@std@@QBEPAU?$pair@QAUHWND__@@UWndMoveData@@@2@XZ ; std::_Tree<std::_Tmap_traits<HWND__ *,WndMoveData,std::less<HWND__ *>,std::allocator<std::pair<HWND__ * const,WndMoveData> >,0> >::iterator::operator->
  00abc	83 c0 08	 add	 eax, 8
  00abf	50		 push	 eax
  00ac0	8d 4d fc	 lea	 ecx, DWORD PTR _it$[ebp]
  00ac3	e8 00 00 00 00	 call	 ??Citerator@?$_Tree@V?$_Tmap_traits@PAUHWND__@@UWndMoveData@@U?$less@PAUHWND__@@@std@@V?$allocator@U?$pair@QAUHWND__@@UWndMoveData@@@std@@@4@$0A@@std@@@std@@QBEPAU?$pair@QAUHWND__@@UWndMoveData@@@2@XZ ; std::_Tree<std::_Tmap_traits<HWND__ *,WndMoveData,std::less<HWND__ *>,std::allocator<std::pair<HWND__ * const,WndMoveData> >,0> >::iterator::operator->
  00ac8	8b 48 04	 mov	 ecx, DWORD PTR [eax+4]
  00acb	8b 51 20	 mov	 edx, DWORD PTR [ecx+32]
  00ace	52		 push	 edx
  00acf	ff 15 00 00 00
	00		 call	 DWORD PTR __imp__GetWindowRect@8

; 263  : 		it++;

  00ad5	6a 00		 push	 0
  00ad7	8d 45 e0	 lea	 eax, DWORD PTR $T199993[ebp]
  00ada	50		 push	 eax
  00adb	8d 4d fc	 lea	 ecx, DWORD PTR _it$[ebp]
  00ade	e8 00 00 00 00	 call	 ??Eiterator@?$_Tree@V?$_Tmap_traits@PAUHWND__@@UWndMoveData@@U?$less@PAUHWND__@@@std@@V?$allocator@U?$pair@QAUHWND__@@UWndMoveData@@@std@@@4@$0A@@std@@@std@@QAE?AV012@H@Z ; std::_Tree<std::_Tmap_traits<HWND__ *,WndMoveData,std::less<HWND__ *>,std::allocator<std::pair<HWND__ * const,WndMoveData> >,0> >::iterator::operator++

; 264  : 	}

  00ae3	eb b0		 jmp	 SHORT $L198661
$L198662:

; 265  : 
; 266  : 	//	TRACE("OFFSET %d, %d, %d, %d\n", m_offsetX, m_offsetY, m_ptMouseDownPos.x, m_ptMouseDownPos.y);
; 267  : 
; 268  : 	CalMovingWndNewPos();

  00ae5	8b 4d dc	 mov	 ecx, DWORD PTR _this$[ebp]
  00ae8	e8 00 00 00 00	 call	 ?CalMovingWndNewPos@CWindowsMover@@AAEXXZ ; CWindowsMover::CalMovingWndNewPos

; 269  : 	CalMinDistance(nMinX, nMinY);

  00aed	8d 4d f0	 lea	 ecx, DWORD PTR _nMinY$[ebp]
  00af0	51		 push	 ecx
  00af1	8d 55 f4	 lea	 edx, DWORD PTR _nMinX$[ebp]
  00af4	52		 push	 edx
  00af5	8b 4d dc	 mov	 ecx, DWORD PTR _this$[ebp]
  00af8	e8 00 00 00 00	 call	 ?CalMinDistance@CWindowsMover@@AAEXAAH0@Z ; CWindowsMover::CalMinDistance

; 270  : 	//ModifyMovingWndPos(nMinX, nMinY);
; 271  : 	ModifyMovingWndPosAndSize(nMinX, nMinY, iDirection);

  00afd	8b 45 18	 mov	 eax, DWORD PTR _iDirection$[ebp]
  00b00	50		 push	 eax
  00b01	8b 4d f0	 mov	 ecx, DWORD PTR _nMinY$[ebp]
  00b04	51		 push	 ecx
  00b05	8b 55 f4	 mov	 edx, DWORD PTR _nMinX$[ebp]
  00b08	52		 push	 edx
  00b09	8b 4d dc	 mov	 ecx, DWORD PTR _this$[ebp]
  00b0c	e8 00 00 00 00	 call	 ?ModifyMovingWndPosAndSize@CWindowsMover@@AAEXHHH@Z ; CWindowsMover::ModifyMovingWndPosAndSize

; 272  : 	MovingAllWindows();

  00b11	8b 4d dc	 mov	 ecx, DWORD PTR _this$[ebp]
  00b14	e8 00 00 00 00	 call	 ?MovingAllWindows@CWindowsMover@@AAEXXZ ; CWindowsMover::MovingAllWindows
$L198646:

; 273  : 	//TRACE("%d\n", GetTickCount() - count);
; 274  : }

  00b19	8b e5		 mov	 esp, ebp
  00b1b	5d		 pop	 ebp
  00b1c	c2 14 00	 ret	 20			; 00000014H
?DoMouseResizingFinished@CWindowsMover@@QAEXPAUHWND__@@IVCPoint@@H@Z ENDP ; CWindowsMover::DoMouseResizingFinished
_TEXT	ENDS
PUBLIC	?IsRectValid@CWindowsMover@@AAEHVCRect@@@Z	; CWindowsMover::IsRectValid
; Function compile flags: /Odt
_TEXT	SEGMENT
_this$ = -32						; size = 4
$T199996 = -28						; size = 4
$T199995 = -24						; size = 4
_rc$198679 = -20					; size = 16
_it$ = -4						; size = 4
?MovingAllWindows@CWindowsMover@@AAEXXZ PROC NEAR	; CWindowsMover::MovingAllWindows
; _this$ = ecx

; 277  : {

  00b20	55		 push	 ebp
  00b21	8b ec		 mov	 ebp, esp
  00b23	83 ec 20	 sub	 esp, 32			; 00000020H
  00b26	89 4d e0	 mov	 DWORD PTR _this$[ebp], ecx

; 278  : 	map<HWND, WndMoveData>::iterator it = m_mapWndMoveData.begin();

  00b29	8d 45 fc	 lea	 eax, DWORD PTR _it$[ebp]
  00b2c	50		 push	 eax
  00b2d	8b 4d e0	 mov	 ecx, DWORD PTR _this$[ebp]
  00b30	83 c1 04	 add	 ecx, 4
  00b33	e8 00 00 00 00	 call	 ?begin@?$_Tree@V?$_Tmap_traits@PAUHWND__@@UWndMoveData@@U?$less@PAUHWND__@@@std@@V?$allocator@U?$pair@QAUHWND__@@UWndMoveData@@@std@@@4@$0A@@std@@@std@@QAE?AViterator@12@XZ ; std::_Tree<std::_Tmap_traits<HWND__ *,WndMoveData,std::less<HWND__ *>,std::allocator<std::pair<HWND__ * const,WndMoveData> >,0> >::begin
$L198676:

; 279  : 	while(it != m_mapWndMoveData.end())

  00b38	8d 4d e8	 lea	 ecx, DWORD PTR $T199995[ebp]
  00b3b	51		 push	 ecx
  00b3c	8b 4d e0	 mov	 ecx, DWORD PTR _this$[ebp]
  00b3f	83 c1 04	 add	 ecx, 4
  00b42	e8 00 00 00 00	 call	 ?end@?$_Tree@V?$_Tmap_traits@PAUHWND__@@UWndMoveData@@U?$less@PAUHWND__@@@std@@V?$allocator@U?$pair@QAUHWND__@@UWndMoveData@@@std@@@4@$0A@@std@@@std@@QAE?AViterator@12@XZ ; std::_Tree<std::_Tmap_traits<HWND__ *,WndMoveData,std::less<HWND__ *>,std::allocator<std::pair<HWND__ * const,WndMoveData> >,0> >::end
  00b47	50		 push	 eax
  00b48	8d 4d fc	 lea	 ecx, DWORD PTR _it$[ebp]
  00b4b	e8 00 00 00 00	 call	 ??9const_iterator@?$_Tree@V?$_Tmap_traits@PAUHWND__@@UWndMoveData@@U?$less@PAUHWND__@@@std@@V?$allocator@U?$pair@QAUHWND__@@UWndMoveData@@@std@@@4@$0A@@std@@@std@@QBE_NABV012@@Z ; std::_Tree<std::_Tmap_traits<HWND__ *,WndMoveData,std::less<HWND__ *>,std::allocator<std::pair<HWND__ * const,WndMoveData> >,0> >::const_iterator::operator!=
  00b50	0f b6 d0	 movzx	 edx, al
  00b53	85 d2		 test	 edx, edx
  00b55	0f 84 89 00 00
	00		 je	 $L198667

; 280  : 	{
; 281  : 		CRect rc;

  00b5b	8d 4d ec	 lea	 ecx, DWORD PTR _rc$198679[ebp]
  00b5e	e8 00 00 00 00	 call	 ??0CRect@@QAE@XZ	; CRect::CRect

; 282  : 		if(it->second.nState == STATE_MOVING)

  00b63	8d 4d fc	 lea	 ecx, DWORD PTR _it$[ebp]
  00b66	e8 00 00 00 00	 call	 ??Citerator@?$_Tree@V?$_Tmap_traits@PAUHWND__@@UWndMoveData@@U?$less@PAUHWND__@@@std@@V?$allocator@U?$pair@QAUHWND__@@UWndMoveData@@@std@@@4@$0A@@std@@@std@@QBEPAU?$pair@QAUHWND__@@UWndMoveData@@@2@XZ ; std::_Tree<std::_Tmap_traits<HWND__ *,WndMoveData,std::less<HWND__ *>,std::allocator<std::pair<HWND__ * const,WndMoveData> >,0> >::iterator::operator->
  00b6b	83 78 18 00	 cmp	 DWORD PTR [eax+24], 0
  00b6f	75 60		 jne	 SHORT $L198680

; 283  : 		{
; 284  : 			rc = it->second.rc;

  00b71	8d 4d fc	 lea	 ecx, DWORD PTR _it$[ebp]
  00b74	e8 00 00 00 00	 call	 ??Citerator@?$_Tree@V?$_Tmap_traits@PAUHWND__@@UWndMoveData@@U?$less@PAUHWND__@@@std@@V?$allocator@U?$pair@QAUHWND__@@UWndMoveData@@@std@@@4@$0A@@std@@@std@@QBEPAU?$pair@QAUHWND__@@UWndMoveData@@@2@XZ ; std::_Tree<std::_Tmap_traits<HWND__ *,WndMoveData,std::less<HWND__ *>,std::allocator<std::pair<HWND__ * const,WndMoveData> >,0> >::iterator::operator->
  00b79	83 c0 08	 add	 eax, 8
  00b7c	8b 08		 mov	 ecx, DWORD PTR [eax]
  00b7e	89 4d ec	 mov	 DWORD PTR _rc$198679[ebp], ecx
  00b81	8b 50 04	 mov	 edx, DWORD PTR [eax+4]
  00b84	89 55 f0	 mov	 DWORD PTR _rc$198679[ebp+4], edx
  00b87	8b 48 08	 mov	 ecx, DWORD PTR [eax+8]
  00b8a	89 4d f4	 mov	 DWORD PTR _rc$198679[ebp+8], ecx
  00b8d	8b 50 0c	 mov	 edx, DWORD PTR [eax+12]
  00b90	89 55 f8	 mov	 DWORD PTR _rc$198679[ebp+12], edx

; 285  : 			if(IsRectValid(rc))

  00b93	83 ec 10	 sub	 esp, 16			; 00000010H
  00b96	8b c4		 mov	 eax, esp
  00b98	8b 4d ec	 mov	 ecx, DWORD PTR _rc$198679[ebp]
  00b9b	89 08		 mov	 DWORD PTR [eax], ecx
  00b9d	8b 55 f0	 mov	 edx, DWORD PTR _rc$198679[ebp+4]
  00ba0	89 50 04	 mov	 DWORD PTR [eax+4], edx
  00ba3	8b 4d f4	 mov	 ecx, DWORD PTR _rc$198679[ebp+8]
  00ba6	89 48 08	 mov	 DWORD PTR [eax+8], ecx
  00ba9	8b 55 f8	 mov	 edx, DWORD PTR _rc$198679[ebp+12]
  00bac	89 50 0c	 mov	 DWORD PTR [eax+12], edx
  00baf	8b 4d e0	 mov	 ecx, DWORD PTR _this$[ebp]
  00bb2	e8 00 00 00 00	 call	 ?IsRectValid@CWindowsMover@@AAEHVCRect@@@Z ; CWindowsMover::IsRectValid
  00bb7	85 c0		 test	 eax, eax
  00bb9	74 16		 je	 SHORT $L198680

; 286  : 			{
; 287  : 				it->second.pWnd->MoveWindow(&rc, true);

  00bbb	6a 01		 push	 1
  00bbd	8d 45 ec	 lea	 eax, DWORD PTR _rc$198679[ebp]
  00bc0	50		 push	 eax
  00bc1	8d 4d fc	 lea	 ecx, DWORD PTR _it$[ebp]
  00bc4	e8 00 00 00 00	 call	 ??Citerator@?$_Tree@V?$_Tmap_traits@PAUHWND__@@UWndMoveData@@U?$less@PAUHWND__@@@std@@V?$allocator@U?$pair@QAUHWND__@@UWndMoveData@@@std@@@4@$0A@@std@@@std@@QBEPAU?$pair@QAUHWND__@@UWndMoveData@@@2@XZ ; std::_Tree<std::_Tmap_traits<HWND__ *,WndMoveData,std::less<HWND__ *>,std::allocator<std::pair<HWND__ * const,WndMoveData> >,0> >::iterator::operator->
  00bc9	8b 48 04	 mov	 ecx, DWORD PTR [eax+4]
  00bcc	e8 00 00 00 00	 call	 ?MoveWindow@CWnd@@QAEXPBUtagRECT@@H@Z ; CWnd::MoveWindow
$L198680:

; 288  : 			}
; 289  : 			TRACE("MOVING %d, %d, %d, %d\n", rc.left, rc.right, rc.top, rc.bottom);
; 290  : 		}
; 291  : 		it++;

  00bd1	6a 00		 push	 0
  00bd3	8d 4d e4	 lea	 ecx, DWORD PTR $T199996[ebp]
  00bd6	51		 push	 ecx
  00bd7	8d 4d fc	 lea	 ecx, DWORD PTR _it$[ebp]
  00bda	e8 00 00 00 00	 call	 ??Eiterator@?$_Tree@V?$_Tmap_traits@PAUHWND__@@UWndMoveData@@U?$less@PAUHWND__@@@std@@V?$allocator@U?$pair@QAUHWND__@@UWndMoveData@@@std@@@4@$0A@@std@@@std@@QAE?AV012@H@Z ; std::_Tree<std::_Tmap_traits<HWND__ *,WndMoveData,std::less<HWND__ *>,std::allocator<std::pair<HWND__ * const,WndMoveData> >,0> >::iterator::operator++

; 292  : 	}

  00bdf	e9 54 ff ff ff	 jmp	 $L198676
$L198667:

; 293  : }

  00be4	8b e5		 mov	 esp, ebp
  00be6	5d		 pop	 ebp
  00be7	c3		 ret	 0
?MovingAllWindows@CWindowsMover@@AAEXXZ ENDP		; CWindowsMover::MovingAllWindows
; Function compile flags: /Odt
_this$ = -4						; size = 4
_rc$ = 8						; size = 16
?IsRectValid@CWindowsMover@@AAEHVCRect@@@Z PROC NEAR	; CWindowsMover::IsRectValid
; _this$ = ecx

; 297  : {

  00bf0	55		 push	 ebp
  00bf1	8b ec		 mov	 ebp, esp
  00bf3	51		 push	 ecx
  00bf4	89 4d fc	 mov	 DWORD PTR _this$[ebp], ecx

; 298  : 	if(rc.left < -2000 || rc.left > 3000)

  00bf7	81 7d 08 30 f8
	ff ff		 cmp	 DWORD PTR _rc$[ebp], -2000 ; fffff830H
  00bfe	7c 09		 jl	 SHORT $L198688
  00c00	81 7d 08 b8 0b
	00 00		 cmp	 DWORD PTR _rc$[ebp], 3000 ; 00000bb8H
  00c07	7e 04		 jle	 SHORT $L198687
$L198688:

; 299  : 		return false; 

  00c09	33 c0		 xor	 eax, eax
  00c0b	eb 47		 jmp	 SHORT $L198686
$L198687:

; 300  : 	if(rc.right < -2000 || rc.right > 3000)

  00c0d	81 7d 10 30 f8
	ff ff		 cmp	 DWORD PTR _rc$[ebp+8], -2000 ; fffff830H
  00c14	7c 09		 jl	 SHORT $L198690
  00c16	81 7d 10 b8 0b
	00 00		 cmp	 DWORD PTR _rc$[ebp+8], 3000 ; 00000bb8H
  00c1d	7e 04		 jle	 SHORT $L198689
$L198690:

; 301  : 		return false;

  00c1f	33 c0		 xor	 eax, eax
  00c21	eb 31		 jmp	 SHORT $L198686
$L198689:

; 302  : 	if(rc.top < -2000 || rc.top > 3000)

  00c23	81 7d 0c 30 f8
	ff ff		 cmp	 DWORD PTR _rc$[ebp+4], -2000 ; fffff830H
  00c2a	7c 09		 jl	 SHORT $L198692
  00c2c	81 7d 0c b8 0b
	00 00		 cmp	 DWORD PTR _rc$[ebp+4], 3000 ; 00000bb8H
  00c33	7e 04		 jle	 SHORT $L198691
$L198692:

; 303  : 		return false;

  00c35	33 c0		 xor	 eax, eax
  00c37	eb 1b		 jmp	 SHORT $L198686
$L198691:

; 304  : 	if(rc.bottom < -2000 || rc.bottom > 3000)

  00c39	81 7d 14 30 f8
	ff ff		 cmp	 DWORD PTR _rc$[ebp+12], -2000 ; fffff830H
  00c40	7c 09		 jl	 SHORT $L198694
  00c42	81 7d 14 b8 0b
	00 00		 cmp	 DWORD PTR _rc$[ebp+12], 3000 ; 00000bb8H
  00c49	7e 04		 jle	 SHORT $L198693
$L198694:

; 305  : 		return false;

  00c4b	33 c0		 xor	 eax, eax
  00c4d	eb 05		 jmp	 SHORT $L198686
$L198693:

; 306  : 	return true;

  00c4f	b8 01 00 00 00	 mov	 eax, 1
$L198686:

; 307  : }

  00c54	8b e5		 mov	 esp, ebp
  00c56	5d		 pop	 ebp
  00c57	c2 10 00	 ret	 16			; 00000010H
?IsRectValid@CWindowsMover@@AAEHVCRect@@@Z ENDP		; CWindowsMover::IsRectValid
; Function compile flags: /Odt
tv157 = -48						; size = 4
tv148 = -44						; size = 4
tv139 = -40						; size = 4
tv130 = -36						; size = 4
_this$ = -32						; size = 4
$T200000 = -28						; size = 4
$T199999 = -24						; size = 4
_rc$198713 = -20					; size = 16
_it$ = -4						; size = 4
_deltaX$ = 8						; size = 4
_deltaY$ = 12						; size = 4
_iDirection$ = 16					; size = 4
?ModifyMovingWndPosAndSize@CWindowsMover@@AAEXHHH@Z PROC NEAR ; CWindowsMover::ModifyMovingWndPosAndSize
; _this$ = ecx

; 310  : {

  00c60	55		 push	 ebp
  00c61	8b ec		 mov	 ebp, esp
  00c63	83 ec 30	 sub	 esp, 48			; 00000030H
  00c66	89 4d e0	 mov	 DWORD PTR _this$[ebp], ecx

; 311  : 	if(deltaX == 0 && deltaY == 0)

  00c69	83 7d 08 00	 cmp	 DWORD PTR _deltaX$[ebp], 0
  00c6d	75 0b		 jne	 SHORT $L198701
  00c6f	83 7d 0c 00	 cmp	 DWORD PTR _deltaY$[ebp], 0
  00c73	75 05		 jne	 SHORT $L198701

; 312  : 		return;

  00c75	e9 2f 01 00 00	 jmp	 $L198700
$L198701:

; 313  : 
; 314  : 	map<HWND, WndMoveData>::iterator it = m_mapWndMoveData.begin();

  00c7a	8d 45 fc	 lea	 eax, DWORD PTR _it$[ebp]
  00c7d	50		 push	 eax
  00c7e	8b 4d e0	 mov	 ecx, DWORD PTR _this$[ebp]
  00c81	83 c1 04	 add	 ecx, 4
  00c84	e8 00 00 00 00	 call	 ?begin@?$_Tree@V?$_Tmap_traits@PAUHWND__@@UWndMoveData@@U?$less@PAUHWND__@@@std@@V?$allocator@U?$pair@QAUHWND__@@UWndMoveData@@@std@@@4@$0A@@std@@@std@@QAE?AViterator@12@XZ ; std::_Tree<std::_Tmap_traits<HWND__ *,WndMoveData,std::less<HWND__ *>,std::allocator<std::pair<HWND__ * const,WndMoveData> >,0> >::begin
$L198710:

; 315  : 	while(it != m_mapWndMoveData.end())

  00c89	8d 4d e8	 lea	 ecx, DWORD PTR $T199999[ebp]
  00c8c	51		 push	 ecx
  00c8d	8b 4d e0	 mov	 ecx, DWORD PTR _this$[ebp]
  00c90	83 c1 04	 add	 ecx, 4
  00c93	e8 00 00 00 00	 call	 ?end@?$_Tree@V?$_Tmap_traits@PAUHWND__@@UWndMoveData@@U?$less@PAUHWND__@@@std@@V?$allocator@U?$pair@QAUHWND__@@UWndMoveData@@@std@@@4@$0A@@std@@@std@@QAE?AViterator@12@XZ ; std::_Tree<std::_Tmap_traits<HWND__ *,WndMoveData,std::less<HWND__ *>,std::allocator<std::pair<HWND__ * const,WndMoveData> >,0> >::end
  00c98	50		 push	 eax
  00c99	8d 4d fc	 lea	 ecx, DWORD PTR _it$[ebp]
  00c9c	e8 00 00 00 00	 call	 ??9const_iterator@?$_Tree@V?$_Tmap_traits@PAUHWND__@@UWndMoveData@@U?$less@PAUHWND__@@@std@@V?$allocator@U?$pair@QAUHWND__@@UWndMoveData@@@std@@@4@$0A@@std@@@std@@QBE_NABV012@@Z ; std::_Tree<std::_Tmap_traits<HWND__ *,WndMoveData,std::less<HWND__ *>,std::allocator<std::pair<HWND__ * const,WndMoveData> >,0> >::const_iterator::operator!=
  00ca1	0f b6 d0	 movzx	 edx, al
  00ca4	85 d2		 test	 edx, edx
  00ca6	0f 84 fd 00 00
	00		 je	 $L198700

; 316  : 	{
; 317  : 		CRect rc;

  00cac	8d 4d ec	 lea	 ecx, DWORD PTR _rc$198713[ebp]
  00caf	e8 00 00 00 00	 call	 ??0CRect@@QAE@XZ	; CRect::CRect

; 318  : 		if(it->second.nState == STATE_MOVING)

  00cb4	8d 4d fc	 lea	 ecx, DWORD PTR _it$[ebp]
  00cb7	e8 00 00 00 00	 call	 ??Citerator@?$_Tree@V?$_Tmap_traits@PAUHWND__@@UWndMoveData@@U?$less@PAUHWND__@@@std@@V?$allocator@U?$pair@QAUHWND__@@UWndMoveData@@@std@@@4@$0A@@std@@@std@@QBEPAU?$pair@QAUHWND__@@UWndMoveData@@@2@XZ ; std::_Tree<std::_Tmap_traits<HWND__ *,WndMoveData,std::less<HWND__ *>,std::allocator<std::pair<HWND__ * const,WndMoveData> >,0> >::iterator::operator->
  00cbc	83 78 18 00	 cmp	 DWORD PTR [eax+24], 0
  00cc0	0f 85 d0 00 00
	00		 jne	 $L198714

; 319  : 		{
; 320  : 			rc = it->second.rc;

  00cc6	8d 4d fc	 lea	 ecx, DWORD PTR _it$[ebp]
  00cc9	e8 00 00 00 00	 call	 ??Citerator@?$_Tree@V?$_Tmap_traits@PAUHWND__@@UWndMoveData@@U?$less@PAUHWND__@@@std@@V?$allocator@U?$pair@QAUHWND__@@UWndMoveData@@@std@@@4@$0A@@std@@@std@@QBEPAU?$pair@QAUHWND__@@UWndMoveData@@@2@XZ ; std::_Tree<std::_Tmap_traits<HWND__ *,WndMoveData,std::less<HWND__ *>,std::allocator<std::pair<HWND__ * const,WndMoveData> >,0> >::iterator::operator->
  00cce	83 c0 08	 add	 eax, 8
  00cd1	8b 08		 mov	 ecx, DWORD PTR [eax]
  00cd3	89 4d ec	 mov	 DWORD PTR _rc$198713[ebp], ecx
  00cd6	8b 50 04	 mov	 edx, DWORD PTR [eax+4]
  00cd9	89 55 f0	 mov	 DWORD PTR _rc$198713[ebp+4], edx
  00cdc	8b 48 08	 mov	 ecx, DWORD PTR [eax+8]
  00cdf	89 4d f4	 mov	 DWORD PTR _rc$198713[ebp+8], ecx
  00ce2	8b 50 0c	 mov	 edx, DWORD PTR [eax+12]
  00ce5	89 55 f8	 mov	 DWORD PTR _rc$198713[ebp+12], edx

; 321  : 			if(iDirection & DIRECTION_LEFT)

  00ce8	8b 45 10	 mov	 eax, DWORD PTR _iDirection$[ebp]
  00ceb	83 e0 01	 and	 eax, 1
  00cee	74 1b		 je	 SHORT $L198715

; 322  : 				it->second.rc.left -= deltaX;

  00cf0	8d 4d fc	 lea	 ecx, DWORD PTR _it$[ebp]
  00cf3	e8 00 00 00 00	 call	 ??Citerator@?$_Tree@V?$_Tmap_traits@PAUHWND__@@UWndMoveData@@U?$less@PAUHWND__@@@std@@V?$allocator@U?$pair@QAUHWND__@@UWndMoveData@@@std@@@4@$0A@@std@@@std@@QBEPAU?$pair@QAUHWND__@@UWndMoveData@@@2@XZ ; std::_Tree<std::_Tmap_traits<HWND__ *,WndMoveData,std::less<HWND__ *>,std::allocator<std::pair<HWND__ * const,WndMoveData> >,0> >::iterator::operator->
  00cf8	83 c0 08	 add	 eax, 8
  00cfb	89 45 dc	 mov	 DWORD PTR tv130[ebp], eax
  00cfe	8b 4d dc	 mov	 ecx, DWORD PTR tv130[ebp]
  00d01	8b 11		 mov	 edx, DWORD PTR [ecx]
  00d03	2b 55 08	 sub	 edx, DWORD PTR _deltaX$[ebp]
  00d06	8b 45 dc	 mov	 eax, DWORD PTR tv130[ebp]
  00d09	89 10		 mov	 DWORD PTR [eax], edx
$L198715:

; 323  : 			if(iDirection & DIRECTION_RIGHT)

  00d0b	8b 4d 10	 mov	 ecx, DWORD PTR _iDirection$[ebp]
  00d0e	83 e1 02	 and	 ecx, 2
  00d11	74 1b		 je	 SHORT $L198716

; 324  : 				it->second.rc.right -= deltaX;

  00d13	8d 4d fc	 lea	 ecx, DWORD PTR _it$[ebp]
  00d16	e8 00 00 00 00	 call	 ??Citerator@?$_Tree@V?$_Tmap_traits@PAUHWND__@@UWndMoveData@@U?$less@PAUHWND__@@@std@@V?$allocator@U?$pair@QAUHWND__@@UWndMoveData@@@std@@@4@$0A@@std@@@std@@QBEPAU?$pair@QAUHWND__@@UWndMoveData@@@2@XZ ; std::_Tree<std::_Tmap_traits<HWND__ *,WndMoveData,std::less<HWND__ *>,std::allocator<std::pair<HWND__ * const,WndMoveData> >,0> >::iterator::operator->
  00d1b	83 c0 10	 add	 eax, 16			; 00000010H
  00d1e	89 45 d8	 mov	 DWORD PTR tv139[ebp], eax
  00d21	8b 55 d8	 mov	 edx, DWORD PTR tv139[ebp]
  00d24	8b 02		 mov	 eax, DWORD PTR [edx]
  00d26	2b 45 08	 sub	 eax, DWORD PTR _deltaX$[ebp]
  00d29	8b 4d d8	 mov	 ecx, DWORD PTR tv139[ebp]
  00d2c	89 01		 mov	 DWORD PTR [ecx], eax
$L198716:

; 325  : 			if(iDirection & DIRECTION_TOP)

  00d2e	8b 55 10	 mov	 edx, DWORD PTR _iDirection$[ebp]
  00d31	83 e2 04	 and	 edx, 4
  00d34	74 1b		 je	 SHORT $L198717

; 326  : 				it->second.rc.top -= deltaY;

  00d36	8d 4d fc	 lea	 ecx, DWORD PTR _it$[ebp]
  00d39	e8 00 00 00 00	 call	 ??Citerator@?$_Tree@V?$_Tmap_traits@PAUHWND__@@UWndMoveData@@U?$less@PAUHWND__@@@std@@V?$allocator@U?$pair@QAUHWND__@@UWndMoveData@@@std@@@4@$0A@@std@@@std@@QBEPAU?$pair@QAUHWND__@@UWndMoveData@@@2@XZ ; std::_Tree<std::_Tmap_traits<HWND__ *,WndMoveData,std::less<HWND__ *>,std::allocator<std::pair<HWND__ * const,WndMoveData> >,0> >::iterator::operator->
  00d3e	83 c0 0c	 add	 eax, 12			; 0000000cH
  00d41	89 45 d4	 mov	 DWORD PTR tv148[ebp], eax
  00d44	8b 45 d4	 mov	 eax, DWORD PTR tv148[ebp]
  00d47	8b 08		 mov	 ecx, DWORD PTR [eax]
  00d49	2b 4d 0c	 sub	 ecx, DWORD PTR _deltaY$[ebp]
  00d4c	8b 55 d4	 mov	 edx, DWORD PTR tv148[ebp]
  00d4f	89 0a		 mov	 DWORD PTR [edx], ecx
$L198717:

; 327  : 			if(iDirection & DIRECTION_BOTTOM)

  00d51	8b 45 10	 mov	 eax, DWORD PTR _iDirection$[ebp]
  00d54	83 e0 08	 and	 eax, 8
  00d57	74 1b		 je	 SHORT $L198718

; 328  : 				it->second.rc.bottom -= deltaY;

  00d59	8d 4d fc	 lea	 ecx, DWORD PTR _it$[ebp]
  00d5c	e8 00 00 00 00	 call	 ??Citerator@?$_Tree@V?$_Tmap_traits@PAUHWND__@@UWndMoveData@@U?$less@PAUHWND__@@@std@@V?$allocator@U?$pair@QAUHWND__@@UWndMoveData@@@std@@@4@$0A@@std@@@std@@QBEPAU?$pair@QAUHWND__@@UWndMoveData@@@2@XZ ; std::_Tree<std::_Tmap_traits<HWND__ *,WndMoveData,std::less<HWND__ *>,std::allocator<std::pair<HWND__ * const,WndMoveData> >,0> >::iterator::operator->
  00d61	83 c0 14	 add	 eax, 20			; 00000014H
  00d64	89 45 d0	 mov	 DWORD PTR tv157[ebp], eax
  00d67	8b 4d d0	 mov	 ecx, DWORD PTR tv157[ebp]
  00d6a	8b 11		 mov	 edx, DWORD PTR [ecx]
  00d6c	2b 55 0c	 sub	 edx, DWORD PTR _deltaY$[ebp]
  00d6f	8b 45 d0	 mov	 eax, DWORD PTR tv157[ebp]
  00d72	89 10		 mov	 DWORD PTR [eax], edx
$L198718:

; 329  : 			//it->second.rc.OffsetRect(-deltaX, -deltaY);
; 330  : 			rc = it->second.rc;

  00d74	8d 4d fc	 lea	 ecx, DWORD PTR _it$[ebp]
  00d77	e8 00 00 00 00	 call	 ??Citerator@?$_Tree@V?$_Tmap_traits@PAUHWND__@@UWndMoveData@@U?$less@PAUHWND__@@@std@@V?$allocator@U?$pair@QAUHWND__@@UWndMoveData@@@std@@@4@$0A@@std@@@std@@QBEPAU?$pair@QAUHWND__@@UWndMoveData@@@2@XZ ; std::_Tree<std::_Tmap_traits<HWND__ *,WndMoveData,std::less<HWND__ *>,std::allocator<std::pair<HWND__ * const,WndMoveData> >,0> >::iterator::operator->
  00d7c	83 c0 08	 add	 eax, 8
  00d7f	8b 08		 mov	 ecx, DWORD PTR [eax]
  00d81	89 4d ec	 mov	 DWORD PTR _rc$198713[ebp], ecx
  00d84	8b 50 04	 mov	 edx, DWORD PTR [eax+4]
  00d87	89 55 f0	 mov	 DWORD PTR _rc$198713[ebp+4], edx
  00d8a	8b 48 08	 mov	 ecx, DWORD PTR [eax+8]
  00d8d	89 4d f4	 mov	 DWORD PTR _rc$198713[ebp+8], ecx
  00d90	8b 50 0c	 mov	 edx, DWORD PTR [eax+12]
  00d93	89 55 f8	 mov	 DWORD PTR _rc$198713[ebp+12], edx
$L198714:

; 331  : 		}
; 332  : 		it++;

  00d96	6a 00		 push	 0
  00d98	8d 45 e4	 lea	 eax, DWORD PTR $T200000[ebp]
  00d9b	50		 push	 eax
  00d9c	8d 4d fc	 lea	 ecx, DWORD PTR _it$[ebp]
  00d9f	e8 00 00 00 00	 call	 ??Eiterator@?$_Tree@V?$_Tmap_traits@PAUHWND__@@UWndMoveData@@U?$less@PAUHWND__@@@std@@V?$allocator@U?$pair@QAUHWND__@@UWndMoveData@@@std@@@4@$0A@@std@@@std@@QAE?AV012@H@Z ; std::_Tree<std::_Tmap_traits<HWND__ *,WndMoveData,std::less<HWND__ *>,std::allocator<std::pair<HWND__ * const,WndMoveData> >,0> >::iterator::operator++

; 333  : 	}

  00da4	e9 e0 fe ff ff	 jmp	 $L198710
$L198700:

; 334  : }

  00da9	8b e5		 mov	 esp, ebp
  00dab	5d		 pop	 ebp
  00dac	c2 0c 00	 ret	 12			; 0000000cH
?ModifyMovingWndPosAndSize@CWindowsMover@@AAEXHHH@Z ENDP ; CWindowsMover::ModifyMovingWndPosAndSize
; Function compile flags: /Odt
_this$ = -32						; size = 4
$T200003 = -28						; size = 4
$T200002 = -24						; size = 4
_rc$198737 = -20					; size = 16
_it$ = -4						; size = 4
_deltaX$ = 8						; size = 4
_deltaY$ = 12						; size = 4
?ModifyMovingWndPos@CWindowsMover@@AAEXHH@Z PROC NEAR	; CWindowsMover::ModifyMovingWndPos
; _this$ = ecx

; 337  : {

  00db0	55		 push	 ebp
  00db1	8b ec		 mov	 ebp, esp
  00db3	83 ec 20	 sub	 esp, 32			; 00000020H
  00db6	89 4d e0	 mov	 DWORD PTR _this$[ebp], ecx

; 338  : 	if(deltaX == 0 && deltaY == 0)

  00db9	83 7d 08 00	 cmp	 DWORD PTR _deltaX$[ebp], 0
  00dbd	75 0b		 jne	 SHORT $L198725
  00dbf	83 7d 0c 00	 cmp	 DWORD PTR _deltaY$[ebp], 0
  00dc3	75 05		 jne	 SHORT $L198725

; 339  : 		return;

  00dc5	e9 bd 00 00 00	 jmp	 $L198724
$L198725:

; 340  : 
; 341  : 	map<HWND, WndMoveData>::iterator it = m_mapWndMoveData.begin();

  00dca	8d 45 fc	 lea	 eax, DWORD PTR _it$[ebp]
  00dcd	50		 push	 eax
  00dce	8b 4d e0	 mov	 ecx, DWORD PTR _this$[ebp]
  00dd1	83 c1 04	 add	 ecx, 4
  00dd4	e8 00 00 00 00	 call	 ?begin@?$_Tree@V?$_Tmap_traits@PAUHWND__@@UWndMoveData@@U?$less@PAUHWND__@@@std@@V?$allocator@U?$pair@QAUHWND__@@UWndMoveData@@@std@@@4@$0A@@std@@@std@@QAE?AViterator@12@XZ ; std::_Tree<std::_Tmap_traits<HWND__ *,WndMoveData,std::less<HWND__ *>,std::allocator<std::pair<HWND__ * const,WndMoveData> >,0> >::begin
$L198734:

; 342  : 	while(it != m_mapWndMoveData.end())

  00dd9	8d 4d e8	 lea	 ecx, DWORD PTR $T200002[ebp]
  00ddc	51		 push	 ecx
  00ddd	8b 4d e0	 mov	 ecx, DWORD PTR _this$[ebp]
  00de0	83 c1 04	 add	 ecx, 4
  00de3	e8 00 00 00 00	 call	 ?end@?$_Tree@V?$_Tmap_traits@PAUHWND__@@UWndMoveData@@U?$less@PAUHWND__@@@std@@V?$allocator@U?$pair@QAUHWND__@@UWndMoveData@@@std@@@4@$0A@@std@@@std@@QAE?AViterator@12@XZ ; std::_Tree<std::_Tmap_traits<HWND__ *,WndMoveData,std::less<HWND__ *>,std::allocator<std::pair<HWND__ * const,WndMoveData> >,0> >::end
  00de8	50		 push	 eax
  00de9	8d 4d fc	 lea	 ecx, DWORD PTR _it$[ebp]
  00dec	e8 00 00 00 00	 call	 ??9const_iterator@?$_Tree@V?$_Tmap_traits@PAUHWND__@@UWndMoveData@@U?$less@PAUHWND__@@@std@@V?$allocator@U?$pair@QAUHWND__@@UWndMoveData@@@std@@@4@$0A@@std@@@std@@QBE_NABV012@@Z ; std::_Tree<std::_Tmap_traits<HWND__ *,WndMoveData,std::less<HWND__ *>,std::allocator<std::pair<HWND__ * const,WndMoveData> >,0> >::const_iterator::operator!=
  00df1	0f b6 d0	 movzx	 edx, al
  00df4	85 d2		 test	 edx, edx
  00df6	0f 84 8b 00 00
	00		 je	 $L198724

; 343  : 	{
; 344  : 		CRect rc;

  00dfc	8d 4d ec	 lea	 ecx, DWORD PTR _rc$198737[ebp]
  00dff	e8 00 00 00 00	 call	 ??0CRect@@QAE@XZ	; CRect::CRect

; 345  : 		if(it->second.nState == STATE_MOVING)

  00e04	8d 4d fc	 lea	 ecx, DWORD PTR _it$[ebp]
  00e07	e8 00 00 00 00	 call	 ??Citerator@?$_Tree@V?$_Tmap_traits@PAUHWND__@@UWndMoveData@@U?$less@PAUHWND__@@@std@@V?$allocator@U?$pair@QAUHWND__@@UWndMoveData@@@std@@@4@$0A@@std@@@std@@QBEPAU?$pair@QAUHWND__@@UWndMoveData@@@2@XZ ; std::_Tree<std::_Tmap_traits<HWND__ *,WndMoveData,std::less<HWND__ *>,std::allocator<std::pair<HWND__ * const,WndMoveData> >,0> >::iterator::operator->
  00e0c	83 78 18 00	 cmp	 DWORD PTR [eax+24], 0
  00e10	75 62		 jne	 SHORT $L198738

; 346  : 		{
; 347  : 			rc = it->second.rc;

  00e12	8d 4d fc	 lea	 ecx, DWORD PTR _it$[ebp]
  00e15	e8 00 00 00 00	 call	 ??Citerator@?$_Tree@V?$_Tmap_traits@PAUHWND__@@UWndMoveData@@U?$less@PAUHWND__@@@std@@V?$allocator@U?$pair@QAUHWND__@@UWndMoveData@@@std@@@4@$0A@@std@@@std@@QBEPAU?$pair@QAUHWND__@@UWndMoveData@@@2@XZ ; std::_Tree<std::_Tmap_traits<HWND__ *,WndMoveData,std::less<HWND__ *>,std::allocator<std::pair<HWND__ * const,WndMoveData> >,0> >::iterator::operator->
  00e1a	83 c0 08	 add	 eax, 8
  00e1d	8b 08		 mov	 ecx, DWORD PTR [eax]
  00e1f	89 4d ec	 mov	 DWORD PTR _rc$198737[ebp], ecx
  00e22	8b 50 04	 mov	 edx, DWORD PTR [eax+4]
  00e25	89 55 f0	 mov	 DWORD PTR _rc$198737[ebp+4], edx
  00e28	8b 48 08	 mov	 ecx, DWORD PTR [eax+8]
  00e2b	89 4d f4	 mov	 DWORD PTR _rc$198737[ebp+8], ecx
  00e2e	8b 50 0c	 mov	 edx, DWORD PTR [eax+12]
  00e31	89 55 f8	 mov	 DWORD PTR _rc$198737[ebp+12], edx

; 348  : 			it->second.rc.OffsetRect(-deltaX, -deltaY);

  00e34	8b 45 0c	 mov	 eax, DWORD PTR _deltaY$[ebp]
  00e37	f7 d8		 neg	 eax
  00e39	50		 push	 eax
  00e3a	8b 4d 08	 mov	 ecx, DWORD PTR _deltaX$[ebp]
  00e3d	f7 d9		 neg	 ecx
  00e3f	51		 push	 ecx
  00e40	8d 4d fc	 lea	 ecx, DWORD PTR _it$[ebp]
  00e43	e8 00 00 00 00	 call	 ??Citerator@?$_Tree@V?$_Tmap_traits@PAUHWND__@@UWndMoveData@@U?$less@PAUHWND__@@@std@@V?$allocator@U?$pair@QAUHWND__@@UWndMoveData@@@std@@@4@$0A@@std@@@std@@QBEPAU?$pair@QAUHWND__@@UWndMoveData@@@2@XZ ; std::_Tree<std::_Tmap_traits<HWND__ *,WndMoveData,std::less<HWND__ *>,std::allocator<std::pair<HWND__ * const,WndMoveData> >,0> >::iterator::operator->
  00e48	83 c0 08	 add	 eax, 8
  00e4b	8b c8		 mov	 ecx, eax
  00e4d	e8 00 00 00 00	 call	 ?OffsetRect@CRect@@QAEXHH@Z ; CRect::OffsetRect

; 349  : 			rc = it->second.rc;

  00e52	8d 4d fc	 lea	 ecx, DWORD PTR _it$[ebp]
  00e55	e8 00 00 00 00	 call	 ??Citerator@?$_Tree@V?$_Tmap_traits@PAUHWND__@@UWndMoveData@@U?$less@PAUHWND__@@@std@@V?$allocator@U?$pair@QAUHWND__@@UWndMoveData@@@std@@@4@$0A@@std@@@std@@QBEPAU?$pair@QAUHWND__@@UWndMoveData@@@2@XZ ; std::_Tree<std::_Tmap_traits<HWND__ *,WndMoveData,std::less<HWND__ *>,std::allocator<std::pair<HWND__ * const,WndMoveData> >,0> >::iterator::operator->
  00e5a	83 c0 08	 add	 eax, 8
  00e5d	8b 10		 mov	 edx, DWORD PTR [eax]
  00e5f	89 55 ec	 mov	 DWORD PTR _rc$198737[ebp], edx
  00e62	8b 48 04	 mov	 ecx, DWORD PTR [eax+4]
  00e65	89 4d f0	 mov	 DWORD PTR _rc$198737[ebp+4], ecx
  00e68	8b 50 08	 mov	 edx, DWORD PTR [eax+8]
  00e6b	89 55 f4	 mov	 DWORD PTR _rc$198737[ebp+8], edx
  00e6e	8b 40 0c	 mov	 eax, DWORD PTR [eax+12]
  00e71	89 45 f8	 mov	 DWORD PTR _rc$198737[ebp+12], eax
$L198738:

; 350  : 		}
; 351  : 		it++;

  00e74	6a 00		 push	 0
  00e76	8d 4d e4	 lea	 ecx, DWORD PTR $T200003[ebp]
  00e79	51		 push	 ecx
  00e7a	8d 4d fc	 lea	 ecx, DWORD PTR _it$[ebp]
  00e7d	e8 00 00 00 00	 call	 ??Eiterator@?$_Tree@V?$_Tmap_traits@PAUHWND__@@UWndMoveData@@U?$less@PAUHWND__@@@std@@V?$allocator@U?$pair@QAUHWND__@@UWndMoveData@@@std@@@4@$0A@@std@@@std@@QAE?AV012@H@Z ; std::_Tree<std::_Tmap_traits<HWND__ *,WndMoveData,std::less<HWND__ *>,std::allocator<std::pair<HWND__ * const,WndMoveData> >,0> >::iterator::operator++

; 352  : 	}

  00e82	e9 52 ff ff ff	 jmp	 $L198734
$L198724:

; 353  : }

  00e87	8b e5		 mov	 esp, ebp
  00e89	5d		 pop	 ebp
  00e8a	c2 08 00	 ret	 8
?ModifyMovingWndPos@CWindowsMover@@AAEXHH@Z ENDP	; CWindowsMover::ModifyMovingWndPos
_TEXT	ENDS
PUBLIC	?CalMinDistanceBetweenTwoWindows@CWindowsMover@@AAEXAAUWndMoveData@@0AAH1@Z ; CWindowsMover::CalMinDistanceBetweenTwoWindows
EXTRN	_abs:NEAR
; Function compile flags: /Odt
_TEXT	SEGMENT
_this$ = -40						; size = 4
_diff$ = -36						; size = 4
_rcM$ = -32						; size = 16
_rcS$ = -16						; size = 16
_moving$ = 8						; size = 4
_stand$ = 12						; size = 4
_deltax$ = 16						; size = 4
_deltay$ = 20						; size = 4
?CalMinDistanceBetweenTwoWindows@CWindowsMover@@AAEXAAUWndMoveData@@0AAH1@Z PROC NEAR ; CWindowsMover::CalMinDistanceBetweenTwoWindows
; _this$ = ecx

; 356  : {

  00e90	55		 push	 ebp
  00e91	8b ec		 mov	 ebp, esp
  00e93	83 ec 28	 sub	 esp, 40			; 00000028H
  00e96	89 4d d8	 mov	 DWORD PTR _this$[ebp], ecx

; 357  : 	CRect rcM = moving.rc;

  00e99	8b 45 08	 mov	 eax, DWORD PTR _moving$[ebp]
  00e9c	83 c0 04	 add	 eax, 4
  00e9f	8b 08		 mov	 ecx, DWORD PTR [eax]
  00ea1	89 4d e0	 mov	 DWORD PTR _rcM$[ebp], ecx
  00ea4	8b 50 04	 mov	 edx, DWORD PTR [eax+4]
  00ea7	89 55 e4	 mov	 DWORD PTR _rcM$[ebp+4], edx
  00eaa	8b 48 08	 mov	 ecx, DWORD PTR [eax+8]
  00ead	89 4d e8	 mov	 DWORD PTR _rcM$[ebp+8], ecx
  00eb0	8b 50 0c	 mov	 edx, DWORD PTR [eax+12]
  00eb3	89 55 ec	 mov	 DWORD PTR _rcM$[ebp+12], edx

; 358  : 	CRect rcS = stand.rc;

  00eb6	8b 45 0c	 mov	 eax, DWORD PTR _stand$[ebp]
  00eb9	83 c0 04	 add	 eax, 4
  00ebc	8b 08		 mov	 ecx, DWORD PTR [eax]
  00ebe	89 4d f0	 mov	 DWORD PTR _rcS$[ebp], ecx
  00ec1	8b 50 04	 mov	 edx, DWORD PTR [eax+4]
  00ec4	89 55 f4	 mov	 DWORD PTR _rcS$[ebp+4], edx
  00ec7	8b 48 08	 mov	 ecx, DWORD PTR [eax+8]
  00eca	89 4d f8	 mov	 DWORD PTR _rcS$[ebp+8], ecx
  00ecd	8b 50 0c	 mov	 edx, DWORD PTR [eax+12]
  00ed0	89 55 fc	 mov	 DWORD PTR _rcS$[ebp+12], edx

; 359  : 
; 360  : 	int  diff;
; 361  : 	//if(	
; 362  : 	//	( rcS.left - STICK_DISTANCE < rcM.left && rcM.left < rcS.right + STICK_DISTANCE )
; 363  : 	//  ||( rcS.left - STICK_DISTANCE < rcM.right && rcM.right < rcS.right + STICK_DISTANCE)
; 364  : 	//  )
; 365  : 	if( !(rcS.right + STICK_DISTANCE < rcM.left || rcS.left - STICK_DISTANCE > rcM.right))

  00ed3	8b 45 f8	 mov	 eax, DWORD PTR _rcS$[ebp+8]
  00ed6	83 c0 0f	 add	 eax, 15			; 0000000fH
  00ed9	3b 45 e0	 cmp	 eax, DWORD PTR _rcM$[ebp]
  00edc	0f 8c af 00 00
	00		 jl	 $L198750
  00ee2	8b 4d f0	 mov	 ecx, DWORD PTR _rcS$[ebp]
  00ee5	83 e9 0f	 sub	 ecx, 15			; 0000000fH
  00ee8	3b 4d e8	 cmp	 ecx, DWORD PTR _rcM$[ebp+8]
  00eeb	0f 8f a0 00 00
	00		 jg	 $L198750

; 366  : 	{
; 367  : 		//|y2-y1|<D
; 368  : 		//top and top
; 369  : 		diff = rcM.top - rcS.top;

  00ef1	8b 55 e4	 mov	 edx, DWORD PTR _rcM$[ebp+4]
  00ef4	2b 55 f4	 sub	 edx, DWORD PTR _rcS$[ebp+4]
  00ef7	89 55 dc	 mov	 DWORD PTR _diff$[ebp], edx

; 370  : 		if(abs(diff)<STICK_DISTANCE && diff != 0)

  00efa	8b 45 dc	 mov	 eax, DWORD PTR _diff$[ebp]
  00efd	50		 push	 eax
  00efe	e8 00 00 00 00	 call	 _abs
  00f03	83 c4 04	 add	 esp, 4
  00f06	83 f8 0f	 cmp	 eax, 15			; 0000000fH
  00f09	7d 0e		 jge	 SHORT $L198751
  00f0b	83 7d dc 00	 cmp	 DWORD PTR _diff$[ebp], 0
  00f0f	74 08		 je	 SHORT $L198751

; 371  : 		{
; 372  : 			deltay = diff;

  00f11	8b 4d 14	 mov	 ecx, DWORD PTR _deltay$[ebp]
  00f14	8b 55 dc	 mov	 edx, DWORD PTR _diff$[ebp]
  00f17	89 11		 mov	 DWORD PTR [ecx], edx
$L198751:

; 373  : 		}
; 374  : 		//top and bottom
; 375  : 		diff=rcM.top-rcS.bottom;

  00f19	8b 45 e4	 mov	 eax, DWORD PTR _rcM$[ebp+4]
  00f1c	2b 45 fc	 sub	 eax, DWORD PTR _rcS$[ebp+12]
  00f1f	89 45 dc	 mov	 DWORD PTR _diff$[ebp], eax

; 376  : 		if(abs(diff)<STICK_DISTANCE && diff != 0)

  00f22	8b 4d dc	 mov	 ecx, DWORD PTR _diff$[ebp]
  00f25	51		 push	 ecx
  00f26	e8 00 00 00 00	 call	 _abs
  00f2b	83 c4 04	 add	 esp, 4
  00f2e	83 f8 0f	 cmp	 eax, 15			; 0000000fH
  00f31	7d 0e		 jge	 SHORT $L198752
  00f33	83 7d dc 00	 cmp	 DWORD PTR _diff$[ebp], 0
  00f37	74 08		 je	 SHORT $L198752

; 377  : 		{
; 378  : 			deltay = diff;

  00f39	8b 55 14	 mov	 edx, DWORD PTR _deltay$[ebp]
  00f3c	8b 45 dc	 mov	 eax, DWORD PTR _diff$[ebp]
  00f3f	89 02		 mov	 DWORD PTR [edx], eax
$L198752:

; 379  : 		}
; 380  : 
; 381  : 		//bottom and top
; 382  : 		diff=rcM.bottom-rcS.top;

  00f41	8b 4d ec	 mov	 ecx, DWORD PTR _rcM$[ebp+12]
  00f44	2b 4d f4	 sub	 ecx, DWORD PTR _rcS$[ebp+4]
  00f47	89 4d dc	 mov	 DWORD PTR _diff$[ebp], ecx

; 383  : 		if(abs(diff)<STICK_DISTANCE && diff != 0)

  00f4a	8b 55 dc	 mov	 edx, DWORD PTR _diff$[ebp]
  00f4d	52		 push	 edx
  00f4e	e8 00 00 00 00	 call	 _abs
  00f53	83 c4 04	 add	 esp, 4
  00f56	83 f8 0f	 cmp	 eax, 15			; 0000000fH
  00f59	7d 0e		 jge	 SHORT $L198753
  00f5b	83 7d dc 00	 cmp	 DWORD PTR _diff$[ebp], 0
  00f5f	74 08		 je	 SHORT $L198753

; 384  : 		{
; 385  : 			deltay = diff;

  00f61	8b 45 14	 mov	 eax, DWORD PTR _deltay$[ebp]
  00f64	8b 4d dc	 mov	 ecx, DWORD PTR _diff$[ebp]
  00f67	89 08		 mov	 DWORD PTR [eax], ecx
$L198753:

; 386  : 		}
; 387  : 
; 388  : 		//bottom and bottom
; 389  : 		diff=rcM.bottom-rcS.bottom;

  00f69	8b 55 ec	 mov	 edx, DWORD PTR _rcM$[ebp+12]
  00f6c	2b 55 fc	 sub	 edx, DWORD PTR _rcS$[ebp+12]
  00f6f	89 55 dc	 mov	 DWORD PTR _diff$[ebp], edx

; 390  : 		if(abs(diff)<STICK_DISTANCE && diff != 0)

  00f72	8b 45 dc	 mov	 eax, DWORD PTR _diff$[ebp]
  00f75	50		 push	 eax
  00f76	e8 00 00 00 00	 call	 _abs
  00f7b	83 c4 04	 add	 esp, 4
  00f7e	83 f8 0f	 cmp	 eax, 15			; 0000000fH
  00f81	7d 0e		 jge	 SHORT $L198750
  00f83	83 7d dc 00	 cmp	 DWORD PTR _diff$[ebp], 0
  00f87	74 08		 je	 SHORT $L198750

; 391  : 		{
; 392  : 			deltay = diff;

  00f89	8b 4d 14	 mov	 ecx, DWORD PTR _deltay$[ebp]
  00f8c	8b 55 dc	 mov	 edx, DWORD PTR _diff$[ebp]
  00f8f	89 11		 mov	 DWORD PTR [ecx], edx
$L198750:

; 393  : 		}
; 394  : 	}
; 395  : 
; 396  : 	if(!(rcS.bottom + STICK_DISTANCE < rcM.top || rcS.top - STICK_DISTANCE > rcM.bottom))

  00f91	8b 45 fc	 mov	 eax, DWORD PTR _rcS$[ebp+12]
  00f94	83 c0 0f	 add	 eax, 15			; 0000000fH
  00f97	3b 45 e4	 cmp	 eax, DWORD PTR _rcM$[ebp+4]
  00f9a	0f 8c af 00 00
	00		 jl	 $L198746
  00fa0	8b 4d f4	 mov	 ecx, DWORD PTR _rcS$[ebp+4]
  00fa3	83 e9 0f	 sub	 ecx, 15			; 0000000fH
  00fa6	3b 4d ec	 cmp	 ecx, DWORD PTR _rcM$[ebp+12]
  00fa9	0f 8f a0 00 00
	00		 jg	 $L198746

; 397  : 	{
; 398  : 		//|y2-y1|<D
; 399  : 		//left and left
; 400  : 		diff=rcM.left-rcS.left;

  00faf	8b 55 e0	 mov	 edx, DWORD PTR _rcM$[ebp]
  00fb2	2b 55 f0	 sub	 edx, DWORD PTR _rcS$[ebp]
  00fb5	89 55 dc	 mov	 DWORD PTR _diff$[ebp], edx

; 401  : 		if(abs(diff)<STICK_DISTANCE && diff != 0)

  00fb8	8b 45 dc	 mov	 eax, DWORD PTR _diff$[ebp]
  00fbb	50		 push	 eax
  00fbc	e8 00 00 00 00	 call	 _abs
  00fc1	83 c4 04	 add	 esp, 4
  00fc4	83 f8 0f	 cmp	 eax, 15			; 0000000fH
  00fc7	7d 0e		 jge	 SHORT $L198756
  00fc9	83 7d dc 00	 cmp	 DWORD PTR _diff$[ebp], 0
  00fcd	74 08		 je	 SHORT $L198756

; 402  : 		{
; 403  : 			deltax=diff;

  00fcf	8b 4d 10	 mov	 ecx, DWORD PTR _deltax$[ebp]
  00fd2	8b 55 dc	 mov	 edx, DWORD PTR _diff$[ebp]
  00fd5	89 11		 mov	 DWORD PTR [ecx], edx
$L198756:

; 404  : 		}
; 405  : 
; 406  : 		//left and right
; 407  : 		diff=rcM.left-rcS.right;

  00fd7	8b 45 e0	 mov	 eax, DWORD PTR _rcM$[ebp]
  00fda	2b 45 f8	 sub	 eax, DWORD PTR _rcS$[ebp+8]
  00fdd	89 45 dc	 mov	 DWORD PTR _diff$[ebp], eax

; 408  : 		if(abs(diff)<STICK_DISTANCE && diff != 0)

  00fe0	8b 4d dc	 mov	 ecx, DWORD PTR _diff$[ebp]
  00fe3	51		 push	 ecx
  00fe4	e8 00 00 00 00	 call	 _abs
  00fe9	83 c4 04	 add	 esp, 4
  00fec	83 f8 0f	 cmp	 eax, 15			; 0000000fH
  00fef	7d 0e		 jge	 SHORT $L198757
  00ff1	83 7d dc 00	 cmp	 DWORD PTR _diff$[ebp], 0
  00ff5	74 08		 je	 SHORT $L198757

; 409  : 		{
; 410  : 			deltax=diff;

  00ff7	8b 55 10	 mov	 edx, DWORD PTR _deltax$[ebp]
  00ffa	8b 45 dc	 mov	 eax, DWORD PTR _diff$[ebp]
  00ffd	89 02		 mov	 DWORD PTR [edx], eax
$L198757:

; 411  : 		}
; 412  : 
; 413  : 		//right and left
; 414  : 		diff=rcM.right-rcS.left;

  00fff	8b 4d e8	 mov	 ecx, DWORD PTR _rcM$[ebp+8]
  01002	2b 4d f0	 sub	 ecx, DWORD PTR _rcS$[ebp]
  01005	89 4d dc	 mov	 DWORD PTR _diff$[ebp], ecx

; 415  : 		if(abs(diff)<STICK_DISTANCE && diff != 0) 

  01008	8b 55 dc	 mov	 edx, DWORD PTR _diff$[ebp]
  0100b	52		 push	 edx
  0100c	e8 00 00 00 00	 call	 _abs
  01011	83 c4 04	 add	 esp, 4
  01014	83 f8 0f	 cmp	 eax, 15			; 0000000fH
  01017	7d 0e		 jge	 SHORT $L198758
  01019	83 7d dc 00	 cmp	 DWORD PTR _diff$[ebp], 0
  0101d	74 08		 je	 SHORT $L198758

; 416  : 		{
; 417  : 			deltax=diff;

  0101f	8b 45 10	 mov	 eax, DWORD PTR _deltax$[ebp]
  01022	8b 4d dc	 mov	 ecx, DWORD PTR _diff$[ebp]
  01025	89 08		 mov	 DWORD PTR [eax], ecx
$L198758:

; 418  : 		}
; 419  : 
; 420  : 		//right and right
; 421  : 		diff=rcM.right-rcS.right;

  01027	8b 55 e8	 mov	 edx, DWORD PTR _rcM$[ebp+8]
  0102a	2b 55 f8	 sub	 edx, DWORD PTR _rcS$[ebp+8]
  0102d	89 55 dc	 mov	 DWORD PTR _diff$[ebp], edx

; 422  : 		if(abs(diff)<STICK_DISTANCE && diff != 0)

  01030	8b 45 dc	 mov	 eax, DWORD PTR _diff$[ebp]
  01033	50		 push	 eax
  01034	e8 00 00 00 00	 call	 _abs
  01039	83 c4 04	 add	 esp, 4
  0103c	83 f8 0f	 cmp	 eax, 15			; 0000000fH
  0103f	7d 0e		 jge	 SHORT $L198746
  01041	83 7d dc 00	 cmp	 DWORD PTR _diff$[ebp], 0
  01045	74 08		 je	 SHORT $L198746

; 423  : 		{
; 424  : 			deltax=diff;

  01047	8b 4d 10	 mov	 ecx, DWORD PTR _deltax$[ebp]
  0104a	8b 55 dc	 mov	 edx, DWORD PTR _diff$[ebp]
  0104d	89 11		 mov	 DWORD PTR [ecx], edx
$L198746:

; 425  : 		}
; 426  : 	}
; 427  : }

  0104f	8b e5		 mov	 esp, ebp
  01051	5d		 pop	 ebp
  01052	c2 10 00	 ret	 16			; 00000010H
?CalMinDistanceBetweenTwoWindows@CWindowsMover@@AAEXAAUWndMoveData@@0AAH1@Z ENDP ; CWindowsMover::CalMinDistanceBetweenTwoWindows
; Function compile flags: /Odt
_this$ = -44						; size = 4
$T200009 = -40						; size = 4
$T200008 = -36						; size = 4
$T200007 = -32						; size = 4
$T200006 = -28						; size = 4
_itStand$198783 = -24					; size = 4
_rc$198776 = -20					; size = 16
_itMoving$ = -4						; size = 4
_deltaX$ = 8						; size = 4
_deltaY$ = 12						; size = 4
?CalMinDistance@CWindowsMover@@AAEXAAH0@Z PROC NEAR	; CWindowsMover::CalMinDistance
; _this$ = ecx

; 430  : {

  01060	55		 push	 ebp
  01061	8b ec		 mov	 ebp, esp
  01063	83 ec 2c	 sub	 esp, 44			; 0000002cH
  01066	89 4d d4	 mov	 DWORD PTR _this$[ebp], ecx

; 431  : 	map<HWND, WndMoveData>::iterator itMoving = m_mapWndMoveData.begin();

  01069	8d 45 fc	 lea	 eax, DWORD PTR _itMoving$[ebp]
  0106c	50		 push	 eax
  0106d	8b 4d d4	 mov	 ecx, DWORD PTR _this$[ebp]
  01070	83 c1 04	 add	 ecx, 4
  01073	e8 00 00 00 00	 call	 ?begin@?$_Tree@V?$_Tmap_traits@PAUHWND__@@UWndMoveData@@U?$less@PAUHWND__@@@std@@V?$allocator@U?$pair@QAUHWND__@@UWndMoveData@@@std@@@4@$0A@@std@@@std@@QAE?AViterator@12@XZ ; std::_Tree<std::_Tmap_traits<HWND__ *,WndMoveData,std::less<HWND__ *>,std::allocator<std::pair<HWND__ * const,WndMoveData> >,0> >::begin

; 432  : 	deltaX = deltaY = 0;

  01078	8b 4d 0c	 mov	 ecx, DWORD PTR _deltaY$[ebp]
  0107b	c7 01 00 00 00
	00		 mov	 DWORD PTR [ecx], 0
  01081	8b 55 08	 mov	 edx, DWORD PTR _deltaX$[ebp]
  01084	c7 02 00 00 00
	00		 mov	 DWORD PTR [edx], 0
$L198773:

; 433  : 	while(itMoving != m_mapWndMoveData.end())

  0108a	8d 45 e4	 lea	 eax, DWORD PTR $T200006[ebp]
  0108d	50		 push	 eax
  0108e	8b 4d d4	 mov	 ecx, DWORD PTR _this$[ebp]
  01091	83 c1 04	 add	 ecx, 4
  01094	e8 00 00 00 00	 call	 ?end@?$_Tree@V?$_Tmap_traits@PAUHWND__@@UWndMoveData@@U?$less@PAUHWND__@@@std@@V?$allocator@U?$pair@QAUHWND__@@UWndMoveData@@@std@@@4@$0A@@std@@@std@@QAE?AViterator@12@XZ ; std::_Tree<std::_Tmap_traits<HWND__ *,WndMoveData,std::less<HWND__ *>,std::allocator<std::pair<HWND__ * const,WndMoveData> >,0> >::end
  01099	50		 push	 eax
  0109a	8d 4d fc	 lea	 ecx, DWORD PTR _itMoving$[ebp]
  0109d	e8 00 00 00 00	 call	 ??9const_iterator@?$_Tree@V?$_Tmap_traits@PAUHWND__@@UWndMoveData@@U?$less@PAUHWND__@@@std@@V?$allocator@U?$pair@QAUHWND__@@UWndMoveData@@@std@@@4@$0A@@std@@@std@@QBE_NABV012@@Z ; std::_Tree<std::_Tmap_traits<HWND__ *,WndMoveData,std::less<HWND__ *>,std::allocator<std::pair<HWND__ * const,WndMoveData> >,0> >::const_iterator::operator!=
  010a2	0f b6 c8	 movzx	 ecx, al
  010a5	85 c9		 test	 ecx, ecx
  010a7	0f 84 9d 00 00
	00		 je	 $L198764

; 434  : 	{
; 435  : 		CRect rc;

  010ad	8d 4d ec	 lea	 ecx, DWORD PTR _rc$198776[ebp]
  010b0	e8 00 00 00 00	 call	 ??0CRect@@QAE@XZ	; CRect::CRect

; 436  : 		if(itMoving->second.nState == STATE_MOVING)

  010b5	8d 4d fc	 lea	 ecx, DWORD PTR _itMoving$[ebp]
  010b8	e8 00 00 00 00	 call	 ??Citerator@?$_Tree@V?$_Tmap_traits@PAUHWND__@@UWndMoveData@@U?$less@PAUHWND__@@@std@@V?$allocator@U?$pair@QAUHWND__@@UWndMoveData@@@std@@@4@$0A@@std@@@std@@QBEPAU?$pair@QAUHWND__@@UWndMoveData@@@2@XZ ; std::_Tree<std::_Tmap_traits<HWND__ *,WndMoveData,std::less<HWND__ *>,std::allocator<std::pair<HWND__ * const,WndMoveData> >,0> >::iterator::operator->
  010bd	83 78 18 00	 cmp	 DWORD PTR [eax+24], 0
  010c1	75 74		 jne	 SHORT $L198777

; 437  : 		{
; 438  : 			map<HWND, WndMoveData>::iterator itStand = m_mapWndMoveData.begin();

  010c3	8d 55 e8	 lea	 edx, DWORD PTR _itStand$198783[ebp]
  010c6	52		 push	 edx
  010c7	8b 4d d4	 mov	 ecx, DWORD PTR _this$[ebp]
  010ca	83 c1 04	 add	 ecx, 4
  010cd	e8 00 00 00 00	 call	 ?begin@?$_Tree@V?$_Tmap_traits@PAUHWND__@@UWndMoveData@@U?$less@PAUHWND__@@@std@@V?$allocator@U?$pair@QAUHWND__@@UWndMoveData@@@std@@@4@$0A@@std@@@std@@QAE?AViterator@12@XZ ; std::_Tree<std::_Tmap_traits<HWND__ *,WndMoveData,std::less<HWND__ *>,std::allocator<std::pair<HWND__ * const,WndMoveData> >,0> >::begin
$L198786:

; 439  : 			while(itStand != m_mapWndMoveData.end())

  010d2	8d 45 e0	 lea	 eax, DWORD PTR $T200007[ebp]
  010d5	50		 push	 eax
  010d6	8b 4d d4	 mov	 ecx, DWORD PTR _this$[ebp]
  010d9	83 c1 04	 add	 ecx, 4
  010dc	e8 00 00 00 00	 call	 ?end@?$_Tree@V?$_Tmap_traits@PAUHWND__@@UWndMoveData@@U?$less@PAUHWND__@@@std@@V?$allocator@U?$pair@QAUHWND__@@UWndMoveData@@@std@@@4@$0A@@std@@@std@@QAE?AViterator@12@XZ ; std::_Tree<std::_Tmap_traits<HWND__ *,WndMoveData,std::less<HWND__ *>,std::allocator<std::pair<HWND__ * const,WndMoveData> >,0> >::end
  010e1	50		 push	 eax
  010e2	8d 4d e8	 lea	 ecx, DWORD PTR _itStand$198783[ebp]
  010e5	e8 00 00 00 00	 call	 ??9const_iterator@?$_Tree@V?$_Tmap_traits@PAUHWND__@@UWndMoveData@@U?$less@PAUHWND__@@@std@@V?$allocator@U?$pair@QAUHWND__@@UWndMoveData@@@std@@@4@$0A@@std@@@std@@QBE_NABV012@@Z ; std::_Tree<std::_Tmap_traits<HWND__ *,WndMoveData,std::less<HWND__ *>,std::allocator<std::pair<HWND__ * const,WndMoveData> >,0> >::const_iterator::operator!=
  010ea	0f b6 c8	 movzx	 ecx, al
  010ed	85 c9		 test	 ecx, ecx
  010ef	74 46		 je	 SHORT $L198777

; 440  : 			{
; 441  : 				if(itStand->second.nState == STATE_STAND)

  010f1	8d 4d e8	 lea	 ecx, DWORD PTR _itStand$198783[ebp]
  010f4	e8 00 00 00 00	 call	 ??Citerator@?$_Tree@V?$_Tmap_traits@PAUHWND__@@UWndMoveData@@U?$less@PAUHWND__@@@std@@V?$allocator@U?$pair@QAUHWND__@@UWndMoveData@@@std@@@4@$0A@@std@@@std@@QBEPAU?$pair@QAUHWND__@@UWndMoveData@@@2@XZ ; std::_Tree<std::_Tmap_traits<HWND__ *,WndMoveData,std::less<HWND__ *>,std::allocator<std::pair<HWND__ * const,WndMoveData> >,0> >::iterator::operator->
  010f9	83 78 18 01	 cmp	 DWORD PTR [eax+24], 1
  010fd	75 28		 jne	 SHORT $L198789

; 442  : 				{
; 443  : 					CalMinDistanceBetweenTwoWindows(itMoving->second, itStand->second, deltaX, deltaY);

  010ff	8b 55 0c	 mov	 edx, DWORD PTR _deltaY$[ebp]
  01102	52		 push	 edx
  01103	8b 45 08	 mov	 eax, DWORD PTR _deltaX$[ebp]
  01106	50		 push	 eax
  01107	8d 4d e8	 lea	 ecx, DWORD PTR _itStand$198783[ebp]
  0110a	e8 00 00 00 00	 call	 ??Citerator@?$_Tree@V?$_Tmap_traits@PAUHWND__@@UWndMoveData@@U?$less@PAUHWND__@@@std@@V?$allocator@U?$pair@QAUHWND__@@UWndMoveData@@@std@@@4@$0A@@std@@@std@@QBEPAU?$pair@QAUHWND__@@UWndMoveData@@@2@XZ ; std::_Tree<std::_Tmap_traits<HWND__ *,WndMoveData,std::less<HWND__ *>,std::allocator<std::pair<HWND__ * const,WndMoveData> >,0> >::iterator::operator->
  0110f	83 c0 04	 add	 eax, 4
  01112	50		 push	 eax
  01113	8d 4d fc	 lea	 ecx, DWORD PTR _itMoving$[ebp]
  01116	e8 00 00 00 00	 call	 ??Citerator@?$_Tree@V?$_Tmap_traits@PAUHWND__@@UWndMoveData@@U?$less@PAUHWND__@@@std@@V?$allocator@U?$pair@QAUHWND__@@UWndMoveData@@@std@@@4@$0A@@std@@@std@@QBEPAU?$pair@QAUHWND__@@UWndMoveData@@@2@XZ ; std::_Tree<std::_Tmap_traits<HWND__ *,WndMoveData,std::less<HWND__ *>,std::allocator<std::pair<HWND__ * const,WndMoveData> >,0> >::iterator::operator->
  0111b	83 c0 04	 add	 eax, 4
  0111e	50		 push	 eax
  0111f	8b 4d d4	 mov	 ecx, DWORD PTR _this$[ebp]
  01122	e8 00 00 00 00	 call	 ?CalMinDistanceBetweenTwoWindows@CWindowsMover@@AAEXAAUWndMoveData@@0AAH1@Z ; CWindowsMover::CalMinDistanceBetweenTwoWindows
$L198789:

; 444  : 				}
; 445  : 				itStand ++;

  01127	6a 00		 push	 0
  01129	8d 4d dc	 lea	 ecx, DWORD PTR $T200008[ebp]
  0112c	51		 push	 ecx
  0112d	8d 4d e8	 lea	 ecx, DWORD PTR _itStand$198783[ebp]
  01130	e8 00 00 00 00	 call	 ??Eiterator@?$_Tree@V?$_Tmap_traits@PAUHWND__@@UWndMoveData@@U?$less@PAUHWND__@@@std@@V?$allocator@U?$pair@QAUHWND__@@UWndMoveData@@@std@@@4@$0A@@std@@@std@@QAE?AV012@H@Z ; std::_Tree<std::_Tmap_traits<HWND__ *,WndMoveData,std::less<HWND__ *>,std::allocator<std::pair<HWND__ * const,WndMoveData> >,0> >::iterator::operator++

; 446  : 			}

  01135	eb 9b		 jmp	 SHORT $L198786
$L198777:

; 447  : 			//it->second.rc.MoveToXY(m_offsetX, m_offsetY);
; 448  : 		}
; 449  : 		itMoving++;

  01137	6a 00		 push	 0
  01139	8d 55 d8	 lea	 edx, DWORD PTR $T200009[ebp]
  0113c	52		 push	 edx
  0113d	8d 4d fc	 lea	 ecx, DWORD PTR _itMoving$[ebp]
  01140	e8 00 00 00 00	 call	 ??Eiterator@?$_Tree@V?$_Tmap_traits@PAUHWND__@@UWndMoveData@@U?$less@PAUHWND__@@@std@@V?$allocator@U?$pair@QAUHWND__@@UWndMoveData@@@std@@@4@$0A@@std@@@std@@QAE?AV012@H@Z ; std::_Tree<std::_Tmap_traits<HWND__ *,WndMoveData,std::less<HWND__ *>,std::allocator<std::pair<HWND__ * const,WndMoveData> >,0> >::iterator::operator++

; 450  : 	}

  01145	e9 40 ff ff ff	 jmp	 $L198773
$L198764:

; 451  : }

  0114a	8b e5		 mov	 esp, ebp
  0114c	5d		 pop	 ebp
  0114d	c2 08 00	 ret	 8
?CalMinDistance@CWindowsMover@@AAEXAAH0@Z ENDP		; CWindowsMover::CalMinDistance
_TEXT	ENDS
PUBLIC	?GetParent@CWnd@@QBEPAV1@XZ			; CWnd::GetParent
PUBLIC	?PatBlt@CDC@@QAEHHHHHK@Z			; CDC::PatBlt
PUBLIC	??1CBrush@@UAE@XZ				; CBrush::~CBrush
PUBLIC	??0CBitmap@@QAE@XZ				; CBitmap::CBitmap
PUBLIC	?LoadBitmapA@CBitmap@@QAEHI@Z			; CBitmap::LoadBitmapA
PUBLIC	??1CBitmap@@UAE@XZ				; CBitmap::~CBitmap
EXTRN	?SelectObject@CDC@@QAEPAVCBrush@@PAV2@@Z:NEAR	; CDC::SelectObject
EXTRN	??0CBrush@@QAE@PAVCBitmap@@@Z:NEAR		; CBrush::CBrush
EXTRN	??0CWindowDC@@QAE@PAVCWnd@@@Z:NEAR		; CWindowDC::CWindowDC
EXTRN	??1CWindowDC@@UAE@XZ:NEAR			; CWindowDC::~CWindowDC
EXTRN	?AfxGetMainWindow@@YAPAVCWnd@@XZ:NEAR		; AfxGetMainWindow
xdata$x	SEGMENT
$T200017 DD	0ffffffffH
	DD	FLAT:$L200011
	DD	00H
	DD	FLAT:$L200012
	DD	01H
	DD	FLAT:$L200013
$T200015 DD	019930520H
	DD	03H
	DD	FLAT:$T200017
	DD	2 DUP(00H)
	DD	2 DUP(00H)
; Function compile flags: /Odt
xdata$x	ENDS
_TEXT	SEGMENT
_this$ = -60						; size = 4
_pOldBrush$ = -56					; size = 4
_brush$ = -52						; size = 8
_bmp$ = -44						; size = 8
_pParentWnd$ = -36					; size = 4
_dc$ = -32						; size = 20
__$EHRec$ = -12						; size = 12
_rc$ = 8						; size = 16
?DrawMoveFrame@CWindowsMover@@QAEXVCRect@@@Z PROC NEAR	; CWindowsMover::DrawMoveFrame
; _this$ = ecx

; 454  : {

  01150	55		 push	 ebp
  01151	8b ec		 mov	 ebp, esp
  01153	6a ff		 push	 -1
  01155	68 00 00 00 00	 push	 __ehhandler$?DrawMoveFrame@CWindowsMover@@QAEXVCRect@@@Z
  0115a	64 a1 00 00 00
	00		 mov	 eax, DWORD PTR fs:__except_list
  01160	50		 push	 eax
  01161	64 89 25 00 00
	00 00		 mov	 DWORD PTR fs:__except_list, esp
  01168	83 ec 30	 sub	 esp, 48			; 00000030H
  0116b	89 4d c4	 mov	 DWORD PTR _this$[ebp], ecx

; 455  : 	CWnd* pParentWnd = AfxGetMainWindow()->GetParent();

  0116e	e8 00 00 00 00	 call	 ?AfxGetMainWindow@@YAPAVCWnd@@XZ ; AfxGetMainWindow
  01173	8b c8		 mov	 ecx, eax
  01175	e8 00 00 00 00	 call	 ?GetParent@CWnd@@QBEPAV1@XZ ; CWnd::GetParent
  0117a	89 45 dc	 mov	 DWORD PTR _pParentWnd$[ebp], eax

; 456  : 	CWindowDC dc(pParentWnd);

  0117d	8b 45 dc	 mov	 eax, DWORD PTR _pParentWnd$[ebp]
  01180	50		 push	 eax
  01181	8d 4d e0	 lea	 ecx, DWORD PTR _dc$[ebp]
  01184	e8 00 00 00 00	 call	 ??0CWindowDC@@QAE@PAVCWnd@@@Z ; CWindowDC::CWindowDC
  01189	c7 45 fc 00 00
	00 00		 mov	 DWORD PTR __$EHRec$[ebp+8], 0

; 457  : 
; 458  : 
; 459  : 	//CRect rc;
; 460  : 	//this->GetWindowRect(&rc);
; 461  : 	//rc -= rcWin.TopLeft();					 
; 462  : 
; 463  : 	CBitmap bmp;

  01190	8d 4d d4	 lea	 ecx, DWORD PTR _bmp$[ebp]
  01193	e8 00 00 00 00	 call	 ??0CBitmap@@QAE@XZ	; CBitmap::CBitmap
  01198	c6 45 fc 01	 mov	 BYTE PTR __$EHRec$[ebp+8], 1

; 464  : 
; 465  : 	bmp.LoadBitmap(IDB_FRAME_LINE);

  0119c	68 84 00 00 00	 push	 132			; 00000084H
  011a1	8d 4d d4	 lea	 ecx, DWORD PTR _bmp$[ebp]
  011a4	e8 00 00 00 00	 call	 ?LoadBitmapA@CBitmap@@QAEHI@Z ; CBitmap::LoadBitmapA

; 466  : 
; 467  : 	CBrush brush(&bmp);

  011a9	8d 4d d4	 lea	 ecx, DWORD PTR _bmp$[ebp]
  011ac	51		 push	 ecx
  011ad	8d 4d cc	 lea	 ecx, DWORD PTR _brush$[ebp]
  011b0	e8 00 00 00 00	 call	 ??0CBrush@@QAE@PAVCBitmap@@@Z ; CBrush::CBrush
  011b5	c6 45 fc 02	 mov	 BYTE PTR __$EHRec$[ebp+8], 2

; 468  : 	CBrush* pOldBrush = dc.SelectObject(&brush);

  011b9	8d 55 cc	 lea	 edx, DWORD PTR _brush$[ebp]
  011bc	52		 push	 edx
  011bd	8d 4d e0	 lea	 ecx, DWORD PTR _dc$[ebp]
  011c0	e8 00 00 00 00	 call	 ?SelectObject@CDC@@QAEPAVCBrush@@PAV2@@Z ; CDC::SelectObject
  011c5	89 45 c8	 mov	 DWORD PTR _pOldBrush$[ebp], eax

; 469  : 
; 470  : 	dc.PatBlt(
; 471  : 		rc.left, 
; 472  : 		rc.top, 
; 473  : 		1, 
; 474  : 		rc.Height(), 
; 475  : 		PATINVERT);

  011c8	68 49 00 5a 00	 push	 5898313			; 005a0049H
  011cd	8d 4d 08	 lea	 ecx, DWORD PTR _rc$[ebp]
  011d0	e8 00 00 00 00	 call	 ?Height@CRect@@QBEHXZ	; CRect::Height
  011d5	50		 push	 eax
  011d6	6a 01		 push	 1
  011d8	8b 45 0c	 mov	 eax, DWORD PTR _rc$[ebp+4]
  011db	50		 push	 eax
  011dc	8b 4d 08	 mov	 ecx, DWORD PTR _rc$[ebp]
  011df	51		 push	 ecx
  011e0	8d 4d e0	 lea	 ecx, DWORD PTR _dc$[ebp]
  011e3	e8 00 00 00 00	 call	 ?PatBlt@CDC@@QAEHHHHHK@Z ; CDC::PatBlt

; 476  : 
; 477  : 	dc.PatBlt(
; 478  : 		rc.left, 
; 479  : 		rc.top, 
; 480  : 		rc.Width(), 
; 481  : 		1, 
; 482  : 		PATINVERT);

  011e8	68 49 00 5a 00	 push	 5898313			; 005a0049H
  011ed	6a 01		 push	 1
  011ef	8d 4d 08	 lea	 ecx, DWORD PTR _rc$[ebp]
  011f2	e8 00 00 00 00	 call	 ?Width@CRect@@QBEHXZ	; CRect::Width
  011f7	50		 push	 eax
  011f8	8b 55 0c	 mov	 edx, DWORD PTR _rc$[ebp+4]
  011fb	52		 push	 edx
  011fc	8b 45 08	 mov	 eax, DWORD PTR _rc$[ebp]
  011ff	50		 push	 eax
  01200	8d 4d e0	 lea	 ecx, DWORD PTR _dc$[ebp]
  01203	e8 00 00 00 00	 call	 ?PatBlt@CDC@@QAEHHHHHK@Z ; CDC::PatBlt

; 483  : 
; 484  : 	dc.PatBlt(
; 485  : 		rc.left, 
; 486  : 		rc.bottom - 4, 
; 487  : 		rc.Width(), 
; 488  : 		1, 
; 489  : 		PATINVERT);

  01208	68 49 00 5a 00	 push	 5898313			; 005a0049H
  0120d	6a 01		 push	 1
  0120f	8d 4d 08	 lea	 ecx, DWORD PTR _rc$[ebp]
  01212	e8 00 00 00 00	 call	 ?Width@CRect@@QBEHXZ	; CRect::Width
  01217	50		 push	 eax
  01218	8b 4d 14	 mov	 ecx, DWORD PTR _rc$[ebp+12]
  0121b	83 e9 04	 sub	 ecx, 4
  0121e	51		 push	 ecx
  0121f	8b 55 08	 mov	 edx, DWORD PTR _rc$[ebp]
  01222	52		 push	 edx
  01223	8d 4d e0	 lea	 ecx, DWORD PTR _dc$[ebp]
  01226	e8 00 00 00 00	 call	 ?PatBlt@CDC@@QAEHHHHHK@Z ; CDC::PatBlt

; 490  : 
; 491  : 	dc.PatBlt(
; 492  : 		rc.right, 
; 493  : 		rc.top, 
; 494  : 		1, 
; 495  : 		rc.Height(), 
; 496  : 		PATINVERT);

  0122b	68 49 00 5a 00	 push	 5898313			; 005a0049H
  01230	8d 4d 08	 lea	 ecx, DWORD PTR _rc$[ebp]
  01233	e8 00 00 00 00	 call	 ?Height@CRect@@QBEHXZ	; CRect::Height
  01238	50		 push	 eax
  01239	6a 01		 push	 1
  0123b	8b 45 0c	 mov	 eax, DWORD PTR _rc$[ebp+4]
  0123e	50		 push	 eax
  0123f	8b 4d 10	 mov	 ecx, DWORD PTR _rc$[ebp+8]
  01242	51		 push	 ecx
  01243	8d 4d e0	 lea	 ecx, DWORD PTR _dc$[ebp]
  01246	e8 00 00 00 00	 call	 ?PatBlt@CDC@@QAEHHHHHK@Z ; CDC::PatBlt

; 497  : 
; 498  : 	dc.SelectObject(pOldBrush);

  0124b	8b 55 c8	 mov	 edx, DWORD PTR _pOldBrush$[ebp]
  0124e	52		 push	 edx
  0124f	8d 4d e0	 lea	 ecx, DWORD PTR _dc$[ebp]
  01252	e8 00 00 00 00	 call	 ?SelectObject@CDC@@QAEPAVCBrush@@PAV2@@Z ; CDC::SelectObject

; 499  : }

  01257	c6 45 fc 01	 mov	 BYTE PTR __$EHRec$[ebp+8], 1
  0125b	8d 4d cc	 lea	 ecx, DWORD PTR _brush$[ebp]
  0125e	e8 00 00 00 00	 call	 ??1CBrush@@UAE@XZ	; CBrush::~CBrush
  01263	c6 45 fc 00	 mov	 BYTE PTR __$EHRec$[ebp+8], 0
  01267	8d 4d d4	 lea	 ecx, DWORD PTR _bmp$[ebp]
  0126a	e8 00 00 00 00	 call	 ??1CBitmap@@UAE@XZ	; CBitmap::~CBitmap
  0126f	c7 45 fc ff ff
	ff ff		 mov	 DWORD PTR __$EHRec$[ebp+8], -1
  01276	8d 4d e0	 lea	 ecx, DWORD PTR _dc$[ebp]
  01279	e8 00 00 00 00	 call	 ??1CWindowDC@@UAE@XZ	; CWindowDC::~CWindowDC
  0127e	8b 4d f4	 mov	 ecx, DWORD PTR __$EHRec$[ebp]
  01281	64 89 0d 00 00
	00 00		 mov	 DWORD PTR fs:__except_list, ecx
  01288	8b e5		 mov	 esp, ebp
  0128a	5d		 pop	 ebp
  0128b	c2 10 00	 ret	 16			; 00000010H
_TEXT	ENDS
text$x	SEGMENT
$L200011:
  00027	8d 4d e0	 lea	 ecx, DWORD PTR _dc$[ebp]
  0002a	e9 00 00 00 00	 jmp	 ??1CWindowDC@@UAE@XZ	; CWindowDC::~CWindowDC
$L200012:
  0002f	8d 4d d4	 lea	 ecx, DWORD PTR _bmp$[ebp]
  00032	e9 00 00 00 00	 jmp	 ??1CBitmap@@UAE@XZ	; CBitmap::~CBitmap
$L200013:
  00037	8d 4d cc	 lea	 ecx, DWORD PTR _brush$[ebp]
  0003a	e9 00 00 00 00	 jmp	 ??1CBrush@@UAE@XZ	; CBrush::~CBrush
__ehhandler$?DrawMoveFrame@CWindowsMover@@QAEXVCRect@@@Z:
  0003f	b8 00 00 00 00	 mov	 eax, OFFSET FLAT:$T200015
  00044	e9 00 00 00 00	 jmp	 ___CxxFrameHandler
text$x	ENDS
?DrawMoveFrame@CWindowsMover@@QAEXVCRect@@@Z ENDP	; CWindowsMover::DrawMoveFrame
PUBLIC	??0?$_Tree@V?$_Tmap_traits@PAUHWND__@@UWndMoveData@@U?$less@PAUHWND__@@@std@@V?$allocator@U?$pair@QAUHWND__@@UWndMoveData@@@std@@@4@$0A@@std@@@std@@QAE@ABU?$less@PAUHWND__@@@1@ABV?$allocator@U?$pair@QAUHWND__@@UWndMoveData@@@std@@@1@@Z ; std::_Tree<std::_Tmap_traits<HWND__ *,WndMoveData,std::less<HWND__ *>,std::allocator<std::pair<HWND__ * const,WndMoveData> >,0> >::_Tree<std::_Tmap_traits<HWND__ *,WndMoveData,std::less<HWND__ *>,std::allocator<std::pair<HWND__ * const,WndMoveData> >,0> >
PUBLIC	??0?$allocator@U?$pair@QAUHWND__@@UWndMoveData@@@std@@@std@@QAE@XZ ; std::allocator<std::pair<HWND__ * const,WndMoveData> >::allocator<std::pair<HWND__ * const,WndMoveData> >
; Function compile flags: /Odt
; File d:\program files (x86)\microsoft visual studio .net 2003\vc7\include\map
;	COMDAT ??0?$map@PAUHWND__@@UWndMoveData@@U?$less@PAUHWND__@@@std@@V?$allocator@U?$pair@QAUHWND__@@UWndMoveData@@@std@@@4@@std@@QAE@XZ
_TEXT	SEGMENT
_this$ = -8						; size = 4
$T200020 = -2						; size = 1
$T200019 = -1						; size = 1
??0?$map@PAUHWND__@@UWndMoveData@@U?$less@PAUHWND__@@@std@@V?$allocator@U?$pair@QAUHWND__@@UWndMoveData@@@std@@@4@@std@@QAE@XZ PROC NEAR ; std::map<HWND__ *,WndMoveData,std::less<HWND__ *>,std::allocator<std::pair<HWND__ * const,WndMoveData> > >::map<HWND__ *,WndMoveData,std::less<HWND__ *>,std::allocator<std::pair<HWND__ * const,WndMoveData> > >, COMDAT
; _this$ = ecx

; 102  : 		{	// construct empty map from defaults

  00000	55		 push	 ebp
  00001	8b ec		 mov	 ebp, esp
  00003	83 ec 08	 sub	 esp, 8
  00006	89 4d f8	 mov	 DWORD PTR _this$[ebp], ecx
  00009	8d 4d ff	 lea	 ecx, DWORD PTR $T200019[ebp]
  0000c	e8 00 00 00 00	 call	 ??0?$allocator@U?$pair@QAUHWND__@@UWndMoveData@@@std@@@std@@QAE@XZ ; std::allocator<std::pair<HWND__ * const,WndMoveData> >::allocator<std::pair<HWND__ * const,WndMoveData> >
  00011	50		 push	 eax
  00012	8d 45 fe	 lea	 eax, DWORD PTR $T200020[ebp]
  00015	50		 push	 eax
  00016	8b 4d f8	 mov	 ecx, DWORD PTR _this$[ebp]
  00019	e8 00 00 00 00	 call	 ??0?$_Tree@V?$_Tmap_traits@PAUHWND__@@UWndMoveData@@U?$less@PAUHWND__@@@std@@V?$allocator@U?$pair@QAUHWND__@@UWndMoveData@@@std@@@4@$0A@@std@@@std@@QAE@ABU?$less@PAUHWND__@@@1@ABV?$allocator@U?$pair@QAUHWND__@@UWndMoveData@@@std@@@1@@Z ; std::_Tree<std::_Tmap_traits<HWND__ *,WndMoveData,std::less<HWND__ *>,std::allocator<std::pair<HWND__ * const,WndMoveData> >,0> >::_Tree<std::_Tmap_traits<HWND__ *,WndMoveData,std::less<HWND__ *>,std::allocator<std::pair<HWND__ * const,WndMoveData> >,0> >

; 103  : 		}

  0001e	8b 45 f8	 mov	 eax, DWORD PTR _this$[ebp]
  00021	8b e5		 mov	 esp, ebp
  00023	5d		 pop	 ebp
  00024	c3		 ret	 0
??0?$map@PAUHWND__@@UWndMoveData@@U?$less@PAUHWND__@@@std@@V?$allocator@U?$pair@QAUHWND__@@UWndMoveData@@@std@@@4@@std@@QAE@XZ ENDP ; std::map<HWND__ *,WndMoveData,std::less<HWND__ *>,std::allocator<std::pair<HWND__ * const,WndMoveData> > >::map<HWND__ *,WndMoveData,std::less<HWND__ *>,std::allocator<std::pair<HWND__ * const,WndMoveData> > >
_TEXT	ENDS
PUBLIC	?_Key@?$_Tree@V?$_Tmap_traits@PAUHWND__@@UWndMoveData@@U?$less@PAUHWND__@@@std@@V?$allocator@U?$pair@QAUHWND__@@UWndMoveData@@@std@@@4@$0A@@std@@@std@@KAABQAUHWND__@@PAU_Node@?$_Tree_nod@V?$_Tmap_traits@PAUHWND__@@UWndMoveData@@U?$less@PAUHWND__@@@std@@V?$allocator@U?$pair@QAUHWND__@@UWndMoveData@@@std@@@4@$0A@@std@@@2@@Z ; std::_Tree<std::_Tmap_traits<HWND__ *,WndMoveData,std::less<HWND__ *>,std::allocator<std::pair<HWND__ * const,WndMoveData> >,0> >::_Key
PUBLIC	?insert@?$_Tree@V?$_Tmap_traits@PAUHWND__@@UWndMoveData@@U?$less@PAUHWND__@@@std@@V?$allocator@U?$pair@QAUHWND__@@UWndMoveData@@@std@@@4@$0A@@std@@@std@@QAE?AViterator@12@V312@ABU?$pair@QAUHWND__@@UWndMoveData@@@2@@Z ; std::_Tree<std::_Tmap_traits<HWND__ *,WndMoveData,std::less<HWND__ *>,std::allocator<std::pair<HWND__ * const,WndMoveData> >,0> >::insert
PUBLIC	?lower_bound@?$_Tree@V?$_Tmap_traits@PAUHWND__@@UWndMoveData@@U?$less@PAUHWND__@@@std@@V?$allocator@U?$pair@QAUHWND__@@UWndMoveData@@@std@@@4@$0A@@std@@@std@@QAE?AViterator@12@ABQAUHWND__@@@Z ; std::_Tree<std::_Tmap_traits<HWND__ *,WndMoveData,std::less<HWND__ *>,std::allocator<std::pair<HWND__ * const,WndMoveData> >,0> >::lower_bound
PUBLIC	??8const_iterator@?$_Tree@V?$_Tmap_traits@PAUHWND__@@UWndMoveData@@U?$less@PAUHWND__@@@std@@V?$allocator@U?$pair@QAUHWND__@@UWndMoveData@@@std@@@4@$0A@@std@@@std@@QBE_NABV012@@Z ; std::_Tree<std::_Tmap_traits<HWND__ *,WndMoveData,std::less<HWND__ *>,std::allocator<std::pair<HWND__ * const,WndMoveData> >,0> >::const_iterator::operator==
PUBLIC	?_Mynode@const_iterator@?$_Tree@V?$_Tmap_traits@PAUHWND__@@UWndMoveData@@U?$less@PAUHWND__@@@std@@V?$allocator@U?$pair@QAUHWND__@@UWndMoveData@@@std@@@4@$0A@@std@@@std@@QBEPAU_Node@?$_Tree_nod@V?$_Tmap_traits@PAUHWND__@@UWndMoveData@@U?$less@PAUHWND__@@@std@@V?$allocator@U?$pair@QAUHWND__@@UWndMoveData@@@std@@@4@$0A@@std@@@3@XZ ; std::_Tree<std::_Tmap_traits<HWND__ *,WndMoveData,std::less<HWND__ *>,std::allocator<std::pair<HWND__ * const,WndMoveData> >,0> >::const_iterator::_Mynode
PUBLIC	??Diterator@?$_Tree@V?$_Tmap_traits@PAUHWND__@@UWndMoveData@@U?$less@PAUHWND__@@@std@@V?$allocator@U?$pair@QAUHWND__@@UWndMoveData@@@std@@@4@$0A@@std@@@std@@QBEAAU?$pair@QAUHWND__@@UWndMoveData@@@2@XZ ; std::_Tree<std::_Tmap_traits<HWND__ *,WndMoveData,std::less<HWND__ *>,std::allocator<std::pair<HWND__ * const,WndMoveData> >,0> >::iterator::operator*
PUBLIC	??R?$less@PAUHWND__@@@std@@QBE_NABQAUHWND__@@0@Z ; std::less<HWND__ *>::operator()
PUBLIC	??0?$pair@QAUHWND__@@UWndMoveData@@@std@@QAE@ABQAUHWND__@@ABUWndMoveData@@@Z ; std::pair<HWND__ * const,WndMoveData>::pair<HWND__ * const,WndMoveData>
; Function compile flags: /Odt
;	COMDAT ??A?$map@PAUHWND__@@UWndMoveData@@U?$less@PAUHWND__@@@std@@V?$allocator@U?$pair@QAUHWND__@@UWndMoveData@@@std@@@4@@std@@QAEAAUWndMoveData@@ABQAUHWND__@@@Z
_TEXT	SEGMENT
_this$ = -76						; size = 4
$T200027 = -72						; size = 4
$T200026 = -68						; size = 28
$T200025 = -40						; size = 32
$T200024 = -8						; size = 4
__Where$ = -4						; size = 4
__Keyval$ = 8						; size = 4
??A?$map@PAUHWND__@@UWndMoveData@@U?$less@PAUHWND__@@@std@@V?$allocator@U?$pair@QAUHWND__@@UWndMoveData@@@std@@@4@@std@@QAEAAUWndMoveData@@ABQAUHWND__@@@Z PROC NEAR ; std::map<HWND__ *,WndMoveData,std::less<HWND__ *>,std::allocator<std::pair<HWND__ * const,WndMoveData> > >::operator[], COMDAT
; _this$ = ecx

; 142  : 		{	// find element matching _Keyval or insert with default mapped

  00000	55		 push	 ebp
  00001	8b ec		 mov	 ebp, esp
  00003	83 ec 4c	 sub	 esp, 76			; 0000004cH
  00006	89 4d b4	 mov	 DWORD PTR _this$[ebp], ecx

; 143  : 		iterator _Where = this->lower_bound(_Keyval);

  00009	8b 45 08	 mov	 eax, DWORD PTR __Keyval$[ebp]
  0000c	50		 push	 eax
  0000d	8d 4d fc	 lea	 ecx, DWORD PTR __Where$[ebp]
  00010	51		 push	 ecx
  00011	8b 4d b4	 mov	 ecx, DWORD PTR _this$[ebp]
  00014	e8 00 00 00 00	 call	 ?lower_bound@?$_Tree@V?$_Tmap_traits@PAUHWND__@@UWndMoveData@@U?$less@PAUHWND__@@@std@@V?$allocator@U?$pair@QAUHWND__@@UWndMoveData@@@std@@@4@$0A@@std@@@std@@QAE?AViterator@12@ABQAUHWND__@@@Z ; std::_Tree<std::_Tmap_traits<HWND__ *,WndMoveData,std::less<HWND__ *>,std::allocator<std::pair<HWND__ * const,WndMoveData> >,0> >::lower_bound

; 144  : 		if (_Where == this->end() || this->comp(_Keyval, this->_Key(_Where._Mynode())))

  00019	8d 55 f8	 lea	 edx, DWORD PTR $T200024[ebp]
  0001c	52		 push	 edx
  0001d	8b 4d b4	 mov	 ecx, DWORD PTR _this$[ebp]
  00020	e8 00 00 00 00	 call	 ?end@?$_Tree@V?$_Tmap_traits@PAUHWND__@@UWndMoveData@@U?$less@PAUHWND__@@@std@@V?$allocator@U?$pair@QAUHWND__@@UWndMoveData@@@std@@@4@$0A@@std@@@std@@QAE?AViterator@12@XZ ; std::_Tree<std::_Tmap_traits<HWND__ *,WndMoveData,std::less<HWND__ *>,std::allocator<std::pair<HWND__ * const,WndMoveData> >,0> >::end
  00025	50		 push	 eax
  00026	8d 4d fc	 lea	 ecx, DWORD PTR __Where$[ebp]
  00029	e8 00 00 00 00	 call	 ??8const_iterator@?$_Tree@V?$_Tmap_traits@PAUHWND__@@UWndMoveData@@U?$less@PAUHWND__@@@std@@V?$allocator@U?$pair@QAUHWND__@@UWndMoveData@@@std@@@4@$0A@@std@@@std@@QBE_NABV012@@Z ; std::_Tree<std::_Tmap_traits<HWND__ *,WndMoveData,std::less<HWND__ *>,std::allocator<std::pair<HWND__ * const,WndMoveData> >,0> >::const_iterator::operator==
  0002e	0f b6 c0	 movzx	 eax, al
  00031	85 c0		 test	 eax, eax
  00033	75 25		 jne	 SHORT $L198866
  00035	8d 4d fc	 lea	 ecx, DWORD PTR __Where$[ebp]
  00038	e8 00 00 00 00	 call	 ?_Mynode@const_iterator@?$_Tree@V?$_Tmap_traits@PAUHWND__@@UWndMoveData@@U?$less@PAUHWND__@@@std@@V?$allocator@U?$pair@QAUHWND__@@UWndMoveData@@@std@@@4@$0A@@std@@@std@@QBEPAU_Node@?$_Tree_nod@V?$_Tmap_traits@PAUHWND__@@UWndMoveData@@U?$less@PAUHWND__@@@std@@V?$allocator@U?$pair@QAUHWND__@@UWndMoveData@@@std@@@4@$0A@@std@@@3@XZ ; std::_Tree<std::_Tmap_traits<HWND__ *,WndMoveData,std::less<HWND__ *>,std::allocator<std::pair<HWND__ * const,WndMoveData> >,0> >::const_iterator::_Mynode
  0003d	50		 push	 eax
  0003e	e8 00 00 00 00	 call	 ?_Key@?$_Tree@V?$_Tmap_traits@PAUHWND__@@UWndMoveData@@U?$less@PAUHWND__@@@std@@V?$allocator@U?$pair@QAUHWND__@@UWndMoveData@@@std@@@4@$0A@@std@@@std@@KAABQAUHWND__@@PAU_Node@?$_Tree_nod@V?$_Tmap_traits@PAUHWND__@@UWndMoveData@@U?$less@PAUHWND__@@@std@@V?$allocator@U?$pair@QAUHWND__@@UWndMoveData@@@std@@@4@$0A@@std@@@2@@Z ; std::_Tree<std::_Tmap_traits<HWND__ *,WndMoveData,std::less<HWND__ *>,std::allocator<std::pair<HWND__ * const,WndMoveData> >,0> >::_Key
  00043	83 c4 04	 add	 esp, 4
  00046	50		 push	 eax
  00047	8b 4d 08	 mov	 ecx, DWORD PTR __Keyval$[ebp]
  0004a	51		 push	 ecx
  0004b	8b 4d b4	 mov	 ecx, DWORD PTR _this$[ebp]
  0004e	e8 00 00 00 00	 call	 ??R?$less@PAUHWND__@@@std@@QBE_NABQAUHWND__@@0@Z ; std::less<HWND__ *>::operator()
  00053	0f b6 d0	 movzx	 edx, al
  00056	85 d2		 test	 edx, edx
  00058	74 2b		 je	 SHORT $L198865
$L198866:

; 145  : 			_Where = this->insert(_Where,
; 146  : 				value_type(_Keyval, mapped_type()));

  0005a	8d 4d bc	 lea	 ecx, DWORD PTR $T200026[ebp]
  0005d	e8 00 00 00 00	 call	 ??0WndMoveData@@QAE@XZ
  00062	50		 push	 eax
  00063	8b 45 08	 mov	 eax, DWORD PTR __Keyval$[ebp]
  00066	50		 push	 eax
  00067	8d 4d d8	 lea	 ecx, DWORD PTR $T200025[ebp]
  0006a	e8 00 00 00 00	 call	 ??0?$pair@QAUHWND__@@UWndMoveData@@@std@@QAE@ABQAUHWND__@@ABUWndMoveData@@@Z ; std::pair<HWND__ * const,WndMoveData>::pair<HWND__ * const,WndMoveData>
  0006f	50		 push	 eax
  00070	8b 4d fc	 mov	 ecx, DWORD PTR __Where$[ebp]
  00073	51		 push	 ecx
  00074	8d 55 b8	 lea	 edx, DWORD PTR $T200027[ebp]
  00077	52		 push	 edx
  00078	8b 4d b4	 mov	 ecx, DWORD PTR _this$[ebp]
  0007b	e8 00 00 00 00	 call	 ?insert@?$_Tree@V?$_Tmap_traits@PAUHWND__@@UWndMoveData@@U?$less@PAUHWND__@@@std@@V?$allocator@U?$pair@QAUHWND__@@UWndMoveData@@@std@@@4@$0A@@std@@@std@@QAE?AViterator@12@V312@ABU?$pair@QAUHWND__@@UWndMoveData@@@2@@Z ; std::_Tree<std::_Tmap_traits<HWND__ *,WndMoveData,std::less<HWND__ *>,std::allocator<std::pair<HWND__ * const,WndMoveData> >,0> >::insert
  00080	8b 00		 mov	 eax, DWORD PTR [eax]
  00082	89 45 fc	 mov	 DWORD PTR __Where$[ebp], eax
$L198865:

; 147  : 		return ((*_Where).second);

  00085	8d 4d fc	 lea	 ecx, DWORD PTR __Where$[ebp]
  00088	e8 00 00 00 00	 call	 ??Diterator@?$_Tree@V?$_Tmap_traits@PAUHWND__@@UWndMoveData@@U?$less@PAUHWND__@@@std@@V?$allocator@U?$pair@QAUHWND__@@UWndMoveData@@@std@@@4@$0A@@std@@@std@@QBEAAU?$pair@QAUHWND__@@UWndMoveData@@@2@XZ ; std::_Tree<std::_Tmap_traits<HWND__ *,WndMoveData,std::less<HWND__ *>,std::allocator<std::pair<HWND__ * const,WndMoveData> >,0> >::iterator::operator*
  0008d	83 c0 04	 add	 eax, 4

; 148  : 		}

  00090	8b e5		 mov	 esp, ebp
  00092	5d		 pop	 ebp
  00093	c2 04 00	 ret	 4
??A?$map@PAUHWND__@@UWndMoveData@@U?$less@PAUHWND__@@@std@@V?$allocator@U?$pair@QAUHWND__@@UWndMoveData@@@std@@@4@@std@@QAEAAUWndMoveData@@ABQAUHWND__@@@Z ENDP ; std::map<HWND__ *,WndMoveData,std::less<HWND__ *>,std::allocator<std::pair<HWND__ * const,WndMoveData> > >::operator[]
_TEXT	ENDS
PUBLIC	?_Tidy@?$_Tree@V?$_Tmap_traits@PAUHWND__@@UWndMoveData@@U?$less@PAUHWND__@@@std@@V?$allocator@U?$pair@QAUHWND__@@UWndMoveData@@@std@@@4@$0A@@std@@@std@@IAEXXZ ; std::_Tree<std::_Tmap_traits<HWND__ *,WndMoveData,std::less<HWND__ *>,std::allocator<std::pair<HWND__ * const,WndMoveData> >,0> >::_Tidy
; Function compile flags: /Odt
; File d:\program files (x86)\microsoft visual studio .net 2003\vc7\include\xtree
;	COMDAT ??1?$_Tree@V?$_Tmap_traits@PAUHWND__@@UWndMoveData@@U?$less@PAUHWND__@@@std@@V?$allocator@U?$pair@QAUHWND__@@UWndMoveData@@@std@@@4@$0A@@std@@@std@@QAE@XZ
_TEXT	SEGMENT
_this$ = -4						; size = 4
??1?$_Tree@V?$_Tmap_traits@PAUHWND__@@UWndMoveData@@U?$less@PAUHWND__@@@std@@V?$allocator@U?$pair@QAUHWND__@@UWndMoveData@@@std@@@4@$0A@@std@@@std@@QAE@XZ PROC NEAR ; std::_Tree<std::_Tmap_traits<HWND__ *,WndMoveData,std::less<HWND__ *>,std::allocator<std::pair<HWND__ * const,WndMoveData> >,0> >::~_Tree<std::_Tmap_traits<HWND__ *,WndMoveData,std::less<HWND__ *>,std::allocator<std::pair<HWND__ * const,WndMoveData> >,0> >, COMDAT
; _this$ = ecx

; 391  : 		{	// destroy tree

  00000	55		 push	 ebp
  00001	8b ec		 mov	 ebp, esp
  00003	51		 push	 ecx
  00004	89 4d fc	 mov	 DWORD PTR _this$[ebp], ecx

; 392  : 		_Tidy();

  00007	8b 4d fc	 mov	 ecx, DWORD PTR _this$[ebp]
  0000a	e8 00 00 00 00	 call	 ?_Tidy@?$_Tree@V?$_Tmap_traits@PAUHWND__@@UWndMoveData@@U?$less@PAUHWND__@@@std@@V?$allocator@U?$pair@QAUHWND__@@UWndMoveData@@@std@@@4@$0A@@std@@@std@@IAEXXZ ; std::_Tree<std::_Tmap_traits<HWND__ *,WndMoveData,std::less<HWND__ *>,std::allocator<std::pair<HWND__ * const,WndMoveData> >,0> >::_Tidy

; 393  : 		}

  0000f	8b e5		 mov	 esp, ebp
  00011	5d		 pop	 ebp
  00012	c3		 ret	 0
??1?$_Tree@V?$_Tmap_traits@PAUHWND__@@UWndMoveData@@U?$less@PAUHWND__@@@std@@V?$allocator@U?$pair@QAUHWND__@@UWndMoveData@@@std@@@4@$0A@@std@@@std@@QAE@XZ ENDP ; std::_Tree<std::_Tmap_traits<HWND__ *,WndMoveData,std::less<HWND__ *>,std::allocator<std::pair<HWND__ * const,WndMoveData> >,0> >::~_Tree<std::_Tmap_traits<HWND__ *,WndMoveData,std::less<HWND__ *>,std::allocator<std::pair<HWND__ * const,WndMoveData> >,0> >
_TEXT	ENDS
PUBLIC	?_Lmost@?$_Tree@V?$_Tmap_traits@PAUHWND__@@UWndMoveData@@U?$less@PAUHWND__@@@std@@V?$allocator@U?$pair@QAUHWND__@@UWndMoveData@@@std@@@4@$0A@@std@@@std@@IAEAAPAU_Node@?$_Tree_nod@V?$_Tmap_traits@PAUHWND__@@UWndMoveData@@U?$less@PAUHWND__@@@std@@V?$allocator@U?$pair@QAUHWND__@@UWndMoveData@@@std@@@4@$0A@@std@@@2@XZ ; std::_Tree<std::_Tmap_traits<HWND__ *,WndMoveData,std::less<HWND__ *>,std::allocator<std::pair<HWND__ * const,WndMoveData> >,0> >::_Lmost
PUBLIC	??0iterator@?$_Tree@V?$_Tmap_traits@PAUHWND__@@UWndMoveData@@U?$less@PAUHWND__@@@std@@V?$allocator@U?$pair@QAUHWND__@@UWndMoveData@@@std@@@4@$0A@@std@@@std@@QAE@PAU_Node@?$_Tree_nod@V?$_Tmap_traits@PAUHWND__@@UWndMoveData@@U?$less@PAUHWND__@@@std@@V?$allocator@U?$pair@QAUHWND__@@UWndMoveData@@@std@@@4@$0A@@std@@@2@@Z ; std::_Tree<std::_Tmap_traits<HWND__ *,WndMoveData,std::less<HWND__ *>,std::allocator<std::pair<HWND__ * const,WndMoveData> >,0> >::iterator::iterator
; Function compile flags: /Odt
;	COMDAT ?begin@?$_Tree@V?$_Tmap_traits@PAUHWND__@@UWndMoveData@@U?$less@PAUHWND__@@@std@@V?$allocator@U?$pair@QAUHWND__@@UWndMoveData@@@std@@@4@$0A@@std@@@std@@QAE?AViterator@12@XZ
_TEXT	SEGMENT
_this$ = -4						; size = 4
___$ReturnUdt$ = 8					; size = 4
?begin@?$_Tree@V?$_Tmap_traits@PAUHWND__@@UWndMoveData@@U?$less@PAUHWND__@@@std@@V?$allocator@U?$pair@QAUHWND__@@UWndMoveData@@@std@@@4@$0A@@std@@@std@@QAE?AViterator@12@XZ PROC NEAR ; std::_Tree<std::_Tmap_traits<HWND__ *,WndMoveData,std::less<HWND__ *>,std::allocator<std::pair<HWND__ * const,WndMoveData> >,0> >::begin, COMDAT
; _this$ = ecx

; 407  : 		{	// return iterator for beginning of mutable sequence

  00000	55		 push	 ebp
  00001	8b ec		 mov	 ebp, esp
  00003	51		 push	 ecx
  00004	89 4d fc	 mov	 DWORD PTR _this$[ebp], ecx

; 408  : 		return (_TREE_ITERATOR(_Lmost()));

  00007	8b 4d fc	 mov	 ecx, DWORD PTR _this$[ebp]
  0000a	e8 00 00 00 00	 call	 ?_Lmost@?$_Tree@V?$_Tmap_traits@PAUHWND__@@UWndMoveData@@U?$less@PAUHWND__@@@std@@V?$allocator@U?$pair@QAUHWND__@@UWndMoveData@@@std@@@4@$0A@@std@@@std@@IAEAAPAU_Node@?$_Tree_nod@V?$_Tmap_traits@PAUHWND__@@UWndMoveData@@U?$less@PAUHWND__@@@std@@V?$allocator@U?$pair@QAUHWND__@@UWndMoveData@@@std@@@4@$0A@@std@@@2@XZ ; std::_Tree<std::_Tmap_traits<HWND__ *,WndMoveData,std::less<HWND__ *>,std::allocator<std::pair<HWND__ * const,WndMoveData> >,0> >::_Lmost
  0000f	8b 00		 mov	 eax, DWORD PTR [eax]
  00011	50		 push	 eax
  00012	8b 4d 08	 mov	 ecx, DWORD PTR ___$ReturnUdt$[ebp]
  00015	e8 00 00 00 00	 call	 ??0iterator@?$_Tree@V?$_Tmap_traits@PAUHWND__@@UWndMoveData@@U?$less@PAUHWND__@@@std@@V?$allocator@U?$pair@QAUHWND__@@UWndMoveData@@@std@@@4@$0A@@std@@@std@@QAE@PAU_Node@?$_Tree_nod@V?$_Tmap_traits@PAUHWND__@@UWndMoveData@@U?$less@PAUHWND__@@@std@@V?$allocator@U?$pair@QAUHWND__@@UWndMoveData@@@std@@@4@$0A@@std@@@2@@Z ; std::_Tree<std::_Tmap_traits<HWND__ *,WndMoveData,std::less<HWND__ *>,std::allocator<std::pair<HWND__ * const,WndMoveData> >,0> >::iterator::iterator
  0001a	8b 45 08	 mov	 eax, DWORD PTR ___$ReturnUdt$[ebp]

; 409  : 		}

  0001d	8b e5		 mov	 esp, ebp
  0001f	5d		 pop	 ebp
  00020	c2 04 00	 ret	 4
?begin@?$_Tree@V?$_Tmap_traits@PAUHWND__@@UWndMoveData@@U?$less@PAUHWND__@@@std@@V?$allocator@U?$pair@QAUHWND__@@UWndMoveData@@@std@@@4@$0A@@std@@@std@@QAE?AViterator@12@XZ ENDP ; std::_Tree<std::_Tmap_traits<HWND__ *,WndMoveData,std::less<HWND__ *>,std::allocator<std::pair<HWND__ * const,WndMoveData> >,0> >::begin
; Function compile flags: /Odt
_TEXT	ENDS
;	COMDAT ?end@?$_Tree@V?$_Tmap_traits@PAUHWND__@@UWndMoveData@@U?$less@PAUHWND__@@@std@@V?$allocator@U?$pair@QAUHWND__@@UWndMoveData@@@std@@@4@$0A@@std@@@std@@QAE?AViterator@12@XZ
_TEXT	SEGMENT
_this$ = -4						; size = 4
___$ReturnUdt$ = 8					; size = 4
?end@?$_Tree@V?$_Tmap_traits@PAUHWND__@@UWndMoveData@@U?$less@PAUHWND__@@@std@@V?$allocator@U?$pair@QAUHWND__@@UWndMoveData@@@std@@@4@$0A@@std@@@std@@QAE?AViterator@12@XZ PROC NEAR ; std::_Tree<std::_Tmap_traits<HWND__ *,WndMoveData,std::less<HWND__ *>,std::allocator<std::pair<HWND__ * const,WndMoveData> >,0> >::end, COMDAT
; _this$ = ecx

; 417  : 		{	// return iterator for end of mutable sequence

  00000	55		 push	 ebp
  00001	8b ec		 mov	 ebp, esp
  00003	51		 push	 ecx
  00004	89 4d fc	 mov	 DWORD PTR _this$[ebp], ecx

; 418  : 		return (_TREE_ITERATOR(_Myhead));

  00007	8b 45 fc	 mov	 eax, DWORD PTR _this$[ebp]
  0000a	8b 48 04	 mov	 ecx, DWORD PTR [eax+4]
  0000d	51		 push	 ecx
  0000e	8b 4d 08	 mov	 ecx, DWORD PTR ___$ReturnUdt$[ebp]
  00011	e8 00 00 00 00	 call	 ??0iterator@?$_Tree@V?$_Tmap_traits@PAUHWND__@@UWndMoveData@@U?$less@PAUHWND__@@@std@@V?$allocator@U?$pair@QAUHWND__@@UWndMoveData@@@std@@@4@$0A@@std@@@std@@QAE@PAU_Node@?$_Tree_nod@V?$_Tmap_traits@PAUHWND__@@UWndMoveData@@U?$less@PAUHWND__@@@std@@V?$allocator@U?$pair@QAUHWND__@@UWndMoveData@@@std@@@4@$0A@@std@@@2@@Z ; std::_Tree<std::_Tmap_traits<HWND__ *,WndMoveData,std::less<HWND__ *>,std::allocator<std::pair<HWND__ * const,WndMoveData> >,0> >::iterator::iterator
  00016	8b 45 08	 mov	 eax, DWORD PTR ___$ReturnUdt$[ebp]

; 419  : 		}

  00019	8b e5		 mov	 esp, ebp
  0001b	5d		 pop	 ebp
  0001c	c2 04 00	 ret	 4
?end@?$_Tree@V?$_Tmap_traits@PAUHWND__@@UWndMoveData@@U?$less@PAUHWND__@@@std@@V?$allocator@U?$pair@QAUHWND__@@UWndMoveData@@@std@@@4@$0A@@std@@@std@@QAE?AViterator@12@XZ ENDP ; std::_Tree<std::_Tmap_traits<HWND__ *,WndMoveData,std::less<HWND__ *>,std::allocator<std::pair<HWND__ * const,WndMoveData> >,0> >::end
_TEXT	ENDS
PUBLIC	?_Erase@?$_Tree@V?$_Tmap_traits@PAUHWND__@@UWndMoveData@@U?$less@PAUHWND__@@@std@@V?$allocator@U?$pair@QAUHWND__@@UWndMoveData@@@std@@@4@$0A@@std@@@std@@IAEXPAU_Node@?$_Tree_nod@V?$_Tmap_traits@PAUHWND__@@UWndMoveData@@U?$less@PAUHWND__@@@std@@V?$allocator@U?$pair@QAUHWND__@@UWndMoveData@@@std@@@4@$0A@@std@@@2@@Z ; std::_Tree<std::_Tmap_traits<HWND__ *,WndMoveData,std::less<HWND__ *>,std::allocator<std::pair<HWND__ * const,WndMoveData> >,0> >::_Erase
PUBLIC	?_Rmost@?$_Tree@V?$_Tmap_traits@PAUHWND__@@UWndMoveData@@U?$less@PAUHWND__@@@std@@V?$allocator@U?$pair@QAUHWND__@@UWndMoveData@@@std@@@4@$0A@@std@@@std@@IAEAAPAU_Node@?$_Tree_nod@V?$_Tmap_traits@PAUHWND__@@UWndMoveData@@U?$less@PAUHWND__@@@std@@V?$allocator@U?$pair@QAUHWND__@@UWndMoveData@@@std@@@4@$0A@@std@@@2@XZ ; std::_Tree<std::_Tmap_traits<HWND__ *,WndMoveData,std::less<HWND__ *>,std::allocator<std::pair<HWND__ * const,WndMoveData> >,0> >::_Rmost
PUBLIC	?_Root@?$_Tree@V?$_Tmap_traits@PAUHWND__@@UWndMoveData@@U?$less@PAUHWND__@@@std@@V?$allocator@U?$pair@QAUHWND__@@UWndMoveData@@@std@@@4@$0A@@std@@@std@@IAEAAPAU_Node@?$_Tree_nod@V?$_Tmap_traits@PAUHWND__@@UWndMoveData@@U?$less@PAUHWND__@@@std@@V?$allocator@U?$pair@QAUHWND__@@UWndMoveData@@@std@@@4@$0A@@std@@@2@XZ ; std::_Tree<std::_Tmap_traits<HWND__ *,WndMoveData,std::less<HWND__ *>,std::allocator<std::pair<HWND__ * const,WndMoveData> >,0> >::_Root
; Function compile flags: /Odt
;	COMDAT ?clear@?$_Tree@V?$_Tmap_traits@PAUHWND__@@UWndMoveData@@U?$less@PAUHWND__@@@std@@V?$allocator@U?$pair@QAUHWND__@@UWndMoveData@@@std@@@4@$0A@@std@@@std@@QAEXXZ
_TEXT	SEGMENT
_this$ = -4						; size = 4
?clear@?$_Tree@V?$_Tmap_traits@PAUHWND__@@UWndMoveData@@U?$less@PAUHWND__@@@std@@V?$allocator@U?$pair@QAUHWND__@@UWndMoveData@@@std@@@4@$0A@@std@@@std@@QAEXXZ PROC NEAR ; std::_Tree<std::_Tmap_traits<HWND__ *,WndMoveData,std::less<HWND__ *>,std::allocator<std::pair<HWND__ * const,WndMoveData> >,0> >::clear, COMDAT
; _this$ = ecx

; 780  : 		{	// erase all

  00000	55		 push	 ebp
  00001	8b ec		 mov	 ebp, esp
  00003	51		 push	 ecx
  00004	89 4d fc	 mov	 DWORD PTR _this$[ebp], ecx

; 781  : 		_Erase(_Root());

  00007	8b 4d fc	 mov	 ecx, DWORD PTR _this$[ebp]
  0000a	e8 00 00 00 00	 call	 ?_Root@?$_Tree@V?$_Tmap_traits@PAUHWND__@@UWndMoveData@@U?$less@PAUHWND__@@@std@@V?$allocator@U?$pair@QAUHWND__@@UWndMoveData@@@std@@@4@$0A@@std@@@std@@IAEAAPAU_Node@?$_Tree_nod@V?$_Tmap_traits@PAUHWND__@@UWndMoveData@@U?$less@PAUHWND__@@@std@@V?$allocator@U?$pair@QAUHWND__@@UWndMoveData@@@std@@@4@$0A@@std@@@2@XZ ; std::_Tree<std::_Tmap_traits<HWND__ *,WndMoveData,std::less<HWND__ *>,std::allocator<std::pair<HWND__ * const,WndMoveData> >,0> >::_Root
  0000f	8b 00		 mov	 eax, DWORD PTR [eax]
  00011	50		 push	 eax
  00012	8b 4d fc	 mov	 ecx, DWORD PTR _this$[ebp]
  00015	e8 00 00 00 00	 call	 ?_Erase@?$_Tree@V?$_Tmap_traits@PAUHWND__@@UWndMoveData@@U?$less@PAUHWND__@@@std@@V?$allocator@U?$pair@QAUHWND__@@UWndMoveData@@@std@@@4@$0A@@std@@@std@@IAEXPAU_Node@?$_Tree_nod@V?$_Tmap_traits@PAUHWND__@@UWndMoveData@@U?$less@PAUHWND__@@@std@@V?$allocator@U?$pair@QAUHWND__@@UWndMoveData@@@std@@@4@$0A@@std@@@2@@Z ; std::_Tree<std::_Tmap_traits<HWND__ *,WndMoveData,std::less<HWND__ *>,std::allocator<std::pair<HWND__ * const,WndMoveData> >,0> >::_Erase

; 782  : 		_Root() = _Myhead, _Mysize = 0;

  0001a	8b 4d fc	 mov	 ecx, DWORD PTR _this$[ebp]
  0001d	e8 00 00 00 00	 call	 ?_Root@?$_Tree@V?$_Tmap_traits@PAUHWND__@@UWndMoveData@@U?$less@PAUHWND__@@@std@@V?$allocator@U?$pair@QAUHWND__@@UWndMoveData@@@std@@@4@$0A@@std@@@std@@IAEAAPAU_Node@?$_Tree_nod@V?$_Tmap_traits@PAUHWND__@@UWndMoveData@@U?$less@PAUHWND__@@@std@@V?$allocator@U?$pair@QAUHWND__@@UWndMoveData@@@std@@@4@$0A@@std@@@2@XZ ; std::_Tree<std::_Tmap_traits<HWND__ *,WndMoveData,std::less<HWND__ *>,std::allocator<std::pair<HWND__ * const,WndMoveData> >,0> >::_Root
  00022	8b 4d fc	 mov	 ecx, DWORD PTR _this$[ebp]
  00025	8b 51 04	 mov	 edx, DWORD PTR [ecx+4]
  00028	89 10		 mov	 DWORD PTR [eax], edx
  0002a	8b 45 fc	 mov	 eax, DWORD PTR _this$[ebp]
  0002d	c7 40 08 00 00
	00 00		 mov	 DWORD PTR [eax+8], 0

; 783  : 		_Lmost() = _Myhead, _Rmost() = _Myhead;

  00034	8b 4d fc	 mov	 ecx, DWORD PTR _this$[ebp]
  00037	e8 00 00 00 00	 call	 ?_Lmost@?$_Tree@V?$_Tmap_traits@PAUHWND__@@UWndMoveData@@U?$less@PAUHWND__@@@std@@V?$allocator@U?$pair@QAUHWND__@@UWndMoveData@@@std@@@4@$0A@@std@@@std@@IAEAAPAU_Node@?$_Tree_nod@V?$_Tmap_traits@PAUHWND__@@UWndMoveData@@U?$less@PAUHWND__@@@std@@V?$allocator@U?$pair@QAUHWND__@@UWndMoveData@@@std@@@4@$0A@@std@@@2@XZ ; std::_Tree<std::_Tmap_traits<HWND__ *,WndMoveData,std::less<HWND__ *>,std::allocator<std::pair<HWND__ * const,WndMoveData> >,0> >::_Lmost
  0003c	8b 4d fc	 mov	 ecx, DWORD PTR _this$[ebp]
  0003f	8b 51 04	 mov	 edx, DWORD PTR [ecx+4]
  00042	89 10		 mov	 DWORD PTR [eax], edx
  00044	8b 4d fc	 mov	 ecx, DWORD PTR _this$[ebp]
  00047	e8 00 00 00 00	 call	 ?_Rmost@?$_Tree@V?$_Tmap_traits@PAUHWND__@@UWndMoveData@@U?$less@PAUHWND__@@@std@@V?$allocator@U?$pair@QAUHWND__@@UWndMoveData@@@std@@@4@$0A@@std@@@std@@IAEAAPAU_Node@?$_Tree_nod@V?$_Tmap_traits@PAUHWND__@@UWndMoveData@@U?$less@PAUHWND__@@@std@@V?$allocator@U?$pair@QAUHWND__@@UWndMoveData@@@std@@@4@$0A@@std@@@2@XZ ; std::_Tree<std::_Tmap_traits<HWND__ *,WndMoveData,std::less<HWND__ *>,std::allocator<std::pair<HWND__ * const,WndMoveData> >,0> >::_Rmost
  0004c	8b 4d fc	 mov	 ecx, DWORD PTR _this$[ebp]
  0004f	8b 51 04	 mov	 edx, DWORD PTR [ecx+4]
  00052	89 10		 mov	 DWORD PTR [eax], edx

; 784  : 		}

  00054	8b e5		 mov	 esp, ebp
  00056	5d		 pop	 ebp
  00057	c3		 ret	 0
?clear@?$_Tree@V?$_Tmap_traits@PAUHWND__@@UWndMoveData@@U?$less@PAUHWND__@@@std@@V?$allocator@U?$pair@QAUHWND__@@UWndMoveData@@@std@@@4@$0A@@std@@@std@@QAEXXZ ENDP ; std::_Tree<std::_Tmap_traits<HWND__ *,WndMoveData,std::less<HWND__ *>,std::allocator<std::pair<HWND__ * const,WndMoveData> >,0> >::clear
_TEXT	ENDS
PUBLIC	??0const_iterator@?$_Tree@V?$_Tmap_traits@PAUHWND__@@UWndMoveData@@U?$less@PAUHWND__@@@std@@V?$allocator@U?$pair@QAUHWND__@@UWndMoveData@@@std@@@4@$0A@@std@@@std@@QAE@XZ ; std::_Tree<std::_Tmap_traits<HWND__ *,WndMoveData,std::less<HWND__ *>,std::allocator<std::pair<HWND__ * const,WndMoveData> >,0> >::const_iterator::const_iterator
; Function compile flags: /Odt
;	COMDAT ??0iterator@?$_Tree@V?$_Tmap_traits@PAUHWND__@@UWndMoveData@@U?$less@PAUHWND__@@@std@@V?$allocator@U?$pair@QAUHWND__@@UWndMoveData@@@std@@@4@$0A@@std@@@std@@QAE@XZ
_TEXT	SEGMENT
_this$ = -4						; size = 4
??0iterator@?$_Tree@V?$_Tmap_traits@PAUHWND__@@UWndMoveData@@U?$less@PAUHWND__@@@std@@V?$allocator@U?$pair@QAUHWND__@@UWndMoveData@@@std@@@4@$0A@@std@@@std@@QAE@XZ PROC NEAR ; std::_Tree<std::_Tmap_traits<HWND__ *,WndMoveData,std::less<HWND__ *>,std::allocator<std::pair<HWND__ * const,WndMoveData> >,0> >::iterator::iterator, COMDAT
; _this$ = ecx

; 304  : 		iterator()

  00000	55		 push	 ebp
  00001	8b ec		 mov	 ebp, esp
  00003	51		 push	 ecx
  00004	89 4d fc	 mov	 DWORD PTR _this$[ebp], ecx
  00007	8b 4d fc	 mov	 ecx, DWORD PTR _this$[ebp]
  0000a	e8 00 00 00 00	 call	 ??0const_iterator@?$_Tree@V?$_Tmap_traits@PAUHWND__@@UWndMoveData@@U?$less@PAUHWND__@@@std@@V?$allocator@U?$pair@QAUHWND__@@UWndMoveData@@@std@@@4@$0A@@std@@@std@@QAE@XZ ; std::_Tree<std::_Tmap_traits<HWND__ *,WndMoveData,std::less<HWND__ *>,std::allocator<std::pair<HWND__ * const,WndMoveData> >,0> >::const_iterator::const_iterator

; 305  : 			{	// construct with null node pointer
; 306  : 			}

  0000f	8b 45 fc	 mov	 eax, DWORD PTR _this$[ebp]
  00012	8b e5		 mov	 esp, ebp
  00014	5d		 pop	 ebp
  00015	c3		 ret	 0
??0iterator@?$_Tree@V?$_Tmap_traits@PAUHWND__@@UWndMoveData@@U?$less@PAUHWND__@@@std@@V?$allocator@U?$pair@QAUHWND__@@UWndMoveData@@@std@@@4@$0A@@std@@@std@@QAE@XZ ENDP ; std::_Tree<std::_Tmap_traits<HWND__ *,WndMoveData,std::less<HWND__ *>,std::allocator<std::pair<HWND__ * const,WndMoveData> >,0> >::iterator::iterator
; Function compile flags: /Odt
_TEXT	ENDS
;	COMDAT ??Citerator@?$_Tree@V?$_Tmap_traits@PAUHWND__@@UWndMoveData@@U?$less@PAUHWND__@@@std@@V?$allocator@U?$pair@QAUHWND__@@UWndMoveData@@@std@@@4@$0A@@std@@@std@@QBEPAU?$pair@QAUHWND__@@UWndMoveData@@@2@XZ
_TEXT	SEGMENT
_this$ = -4						; size = 4
??Citerator@?$_Tree@V?$_Tmap_traits@PAUHWND__@@UWndMoveData@@U?$less@PAUHWND__@@@std@@V?$allocator@U?$pair@QAUHWND__@@UWndMoveData@@@std@@@4@$0A@@std@@@std@@QBEPAU?$pair@QAUHWND__@@UWndMoveData@@@2@XZ PROC NEAR ; std::_Tree<std::_Tmap_traits<HWND__ *,WndMoveData,std::less<HWND__ *>,std::allocator<std::pair<HWND__ * const,WndMoveData> >,0> >::iterator::operator->, COMDAT
; _this$ = ecx

; 321  : 			{	// return pointer to class object

  00000	55		 push	 ebp
  00001	8b ec		 mov	 ebp, esp
  00003	51		 push	 ecx
  00004	89 4d fc	 mov	 DWORD PTR _this$[ebp], ecx

; 322  : 			return (&**this);

  00007	8b 4d fc	 mov	 ecx, DWORD PTR _this$[ebp]
  0000a	e8 00 00 00 00	 call	 ??Diterator@?$_Tree@V?$_Tmap_traits@PAUHWND__@@UWndMoveData@@U?$less@PAUHWND__@@@std@@V?$allocator@U?$pair@QAUHWND__@@UWndMoveData@@@std@@@4@$0A@@std@@@std@@QBEAAU?$pair@QAUHWND__@@UWndMoveData@@@2@XZ ; std::_Tree<std::_Tmap_traits<HWND__ *,WndMoveData,std::less<HWND__ *>,std::allocator<std::pair<HWND__ * const,WndMoveData> >,0> >::iterator::operator*

; 323  : 			}

  0000f	8b e5		 mov	 esp, ebp
  00011	5d		 pop	 ebp
  00012	c3		 ret	 0
??Citerator@?$_Tree@V?$_Tmap_traits@PAUHWND__@@UWndMoveData@@U?$less@PAUHWND__@@@std@@V?$allocator@U?$pair@QAUHWND__@@UWndMoveData@@@std@@@4@$0A@@std@@@std@@QBEPAU?$pair@QAUHWND__@@UWndMoveData@@@2@XZ ENDP ; std::_Tree<std::_Tmap_traits<HWND__ *,WndMoveData,std::less<HWND__ *>,std::allocator<std::pair<HWND__ * const,WndMoveData> >,0> >::iterator::operator->
_TEXT	ENDS
PUBLIC	??Eiterator@?$_Tree@V?$_Tmap_traits@PAUHWND__@@UWndMoveData@@U?$less@PAUHWND__@@@std@@V?$allocator@U?$pair@QAUHWND__@@UWndMoveData@@@std@@@4@$0A@@std@@@std@@QAEAAV012@XZ ; std::_Tree<std::_Tmap_traits<HWND__ *,WndMoveData,std::less<HWND__ *>,std::allocator<std::pair<HWND__ * const,WndMoveData> >,0> >::iterator::operator++
; Function compile flags: /Odt
;	COMDAT ??Eiterator@?$_Tree@V?$_Tmap_traits@PAUHWND__@@UWndMoveData@@U?$less@PAUHWND__@@@std@@V?$allocator@U?$pair@QAUHWND__@@UWndMoveData@@@std@@@4@$0A@@std@@@std@@QAE?AV012@H@Z
_TEXT	SEGMENT
_this$ = -8						; size = 4
__Tmp$ = -4						; size = 4
___$ReturnUdt$ = 8					; size = 4
___formal$ = 12						; size = 4
??Eiterator@?$_Tree@V?$_Tmap_traits@PAUHWND__@@UWndMoveData@@U?$less@PAUHWND__@@@std@@V?$allocator@U?$pair@QAUHWND__@@UWndMoveData@@@std@@@4@$0A@@std@@@std@@QAE?AV012@H@Z PROC NEAR ; std::_Tree<std::_Tmap_traits<HWND__ *,WndMoveData,std::less<HWND__ *>,std::allocator<std::pair<HWND__ * const,WndMoveData> >,0> >::iterator::operator++, COMDAT
; _this$ = ecx

; 332  : 			{	// postincrement

  00000	55		 push	 ebp
  00001	8b ec		 mov	 ebp, esp
  00003	83 ec 08	 sub	 esp, 8
  00006	89 4d f8	 mov	 DWORD PTR _this$[ebp], ecx

; 333  : 			iterator _Tmp = *this;

  00009	8b 45 f8	 mov	 eax, DWORD PTR _this$[ebp]
  0000c	8b 08		 mov	 ecx, DWORD PTR [eax]
  0000e	89 4d fc	 mov	 DWORD PTR __Tmp$[ebp], ecx

; 334  : 			++*this;

  00011	8b 4d f8	 mov	 ecx, DWORD PTR _this$[ebp]
  00014	e8 00 00 00 00	 call	 ??Eiterator@?$_Tree@V?$_Tmap_traits@PAUHWND__@@UWndMoveData@@U?$less@PAUHWND__@@@std@@V?$allocator@U?$pair@QAUHWND__@@UWndMoveData@@@std@@@4@$0A@@std@@@std@@QAEAAV012@XZ ; std::_Tree<std::_Tmap_traits<HWND__ *,WndMoveData,std::less<HWND__ *>,std::allocator<std::pair<HWND__ * const,WndMoveData> >,0> >::iterator::operator++

; 335  : 			return (_Tmp);

  00019	8b 55 08	 mov	 edx, DWORD PTR ___$ReturnUdt$[ebp]
  0001c	8b 45 fc	 mov	 eax, DWORD PTR __Tmp$[ebp]
  0001f	89 02		 mov	 DWORD PTR [edx], eax
  00021	8b 45 08	 mov	 eax, DWORD PTR ___$ReturnUdt$[ebp]

; 336  : 			}

  00024	8b e5		 mov	 esp, ebp
  00026	5d		 pop	 ebp
  00027	c2 08 00	 ret	 8
??Eiterator@?$_Tree@V?$_Tmap_traits@PAUHWND__@@UWndMoveData@@U?$less@PAUHWND__@@@std@@V?$allocator@U?$pair@QAUHWND__@@UWndMoveData@@@std@@@4@$0A@@std@@@std@@QAE?AV012@H@Z ENDP ; std::_Tree<std::_Tmap_traits<HWND__ *,WndMoveData,std::less<HWND__ *>,std::allocator<std::pair<HWND__ * const,WndMoveData> >,0> >::iterator::operator++
; Function compile flags: /Odt
_TEXT	ENDS
;	COMDAT ??9const_iterator@?$_Tree@V?$_Tmap_traits@PAUHWND__@@UWndMoveData@@U?$less@PAUHWND__@@@std@@V?$allocator@U?$pair@QAUHWND__@@UWndMoveData@@@std@@@4@$0A@@std@@@std@@QBE_NABV012@@Z
_TEXT	SEGMENT
_this$ = -4						; size = 4
__Right$ = 8						; size = 4
??9const_iterator@?$_Tree@V?$_Tmap_traits@PAUHWND__@@UWndMoveData@@U?$less@PAUHWND__@@@std@@V?$allocator@U?$pair@QAUHWND__@@UWndMoveData@@@std@@@4@$0A@@std@@@std@@QBE_NABV012@@Z PROC NEAR ; std::_Tree<std::_Tmap_traits<HWND__ *,WndMoveData,std::less<HWND__ *>,std::allocator<std::pair<HWND__ * const,WndMoveData> >,0> >::const_iterator::operator!=, COMDAT
; _this$ = ecx

; 245  : 			{	// test for iterator inequality

  00000	55		 push	 ebp
  00001	8b ec		 mov	 ebp, esp
  00003	51		 push	 ecx
  00004	89 4d fc	 mov	 DWORD PTR _this$[ebp], ecx

; 246  : 			return (!(*this == _Right));

  00007	8b 45 08	 mov	 eax, DWORD PTR __Right$[ebp]
  0000a	50		 push	 eax
  0000b	8b 4d fc	 mov	 ecx, DWORD PTR _this$[ebp]
  0000e	e8 00 00 00 00	 call	 ??8const_iterator@?$_Tree@V?$_Tmap_traits@PAUHWND__@@UWndMoveData@@U?$less@PAUHWND__@@@std@@V?$allocator@U?$pair@QAUHWND__@@UWndMoveData@@@std@@@4@$0A@@std@@@std@@QBE_NABV012@@Z ; std::_Tree<std::_Tmap_traits<HWND__ *,WndMoveData,std::less<HWND__ *>,std::allocator<std::pair<HWND__ * const,WndMoveData> >,0> >::const_iterator::operator==
  00013	0f b6 c0	 movzx	 eax, al
  00016	f7 d8		 neg	 eax
  00018	1b c0		 sbb	 eax, eax
  0001a	40		 inc	 eax

; 247  : 			}

  0001b	8b e5		 mov	 esp, ebp
  0001d	5d		 pop	 ebp
  0001e	c2 04 00	 ret	 4
??9const_iterator@?$_Tree@V?$_Tmap_traits@PAUHWND__@@UWndMoveData@@U?$less@PAUHWND__@@@std@@V?$allocator@U?$pair@QAUHWND__@@UWndMoveData@@@std@@@4@$0A@@std@@@std@@QBE_NABV012@@Z ENDP ; std::_Tree<std::_Tmap_traits<HWND__ *,WndMoveData,std::less<HWND__ *>,std::allocator<std::pair<HWND__ * const,WndMoveData> >,0> >::const_iterator::operator!=
_TEXT	ENDS
PUBLIC	?_Myval@?$_Tree@V?$_Tmap_traits@PAUHWND__@@UWndMoveData@@U?$less@PAUHWND__@@@std@@V?$allocator@U?$pair@QAUHWND__@@UWndMoveData@@@std@@@4@$0A@@std@@@std@@KAAAU?$pair@QAUHWND__@@UWndMoveData@@@2@PAU_Node@?$_Tree_nod@V?$_Tmap_traits@PAUHWND__@@UWndMoveData@@U?$less@PAUHWND__@@@std@@V?$allocator@U?$pair@QAUHWND__@@UWndMoveData@@@std@@@4@$0A@@std@@@2@@Z ; std::_Tree<std::_Tmap_traits<HWND__ *,WndMoveData,std::less<HWND__ *>,std::allocator<std::pair<HWND__ * const,WndMoveData> >,0> >::_Myval
PUBLIC	?_Kfn@?$_Tmap_traits@PAUHWND__@@UWndMoveData@@U?$less@PAUHWND__@@@std@@V?$allocator@U?$pair@QAUHWND__@@UWndMoveData@@@std@@@4@$0A@@std@@SAABQAUHWND__@@ABU?$pair@QAUHWND__@@UWndMoveData@@@2@@Z ; std::_Tmap_traits<HWND__ *,WndMoveData,std::less<HWND__ *>,std::allocator<std::pair<HWND__ * const,WndMoveData> >,0>::_Kfn
; Function compile flags: /Odt
;	COMDAT ?_Key@?$_Tree@V?$_Tmap_traits@PAUHWND__@@UWndMoveData@@U?$less@PAUHWND__@@@std@@V?$allocator@U?$pair@QAUHWND__@@UWndMoveData@@@std@@@4@$0A@@std@@@std@@KAABQAUHWND__@@PAU_Node@?$_Tree_nod@V?$_Tmap_traits@PAUHWND__@@UWndMoveData@@U?$less@PAUHWND__@@@std@@V?$allocator@U?$pair@QAUHWND__@@UWndMoveData@@@std@@@4@$0A@@std@@@2@@Z
_TEXT	SEGMENT
__Pnode$ = 8						; size = 4
?_Key@?$_Tree@V?$_Tmap_traits@PAUHWND__@@UWndMoveData@@U?$less@PAUHWND__@@@std@@V?$allocator@U?$pair@QAUHWND__@@UWndMoveData@@@std@@@4@$0A@@std@@@std@@KAABQAUHWND__@@PAU_Node@?$_Tree_nod@V?$_Tmap_traits@PAUHWND__@@UWndMoveData@@U?$less@PAUHWND__@@@std@@V?$allocator@U?$pair@QAUHWND__@@UWndMoveData@@@std@@@4@$0A@@std@@@2@@Z PROC NEAR ; std::_Tree<std::_Tmap_traits<HWND__ *,WndMoveData,std::less<HWND__ *>,std::allocator<std::pair<HWND__ * const,WndMoveData> >,0> >::_Key, COMDAT

; 141  : 		{	// return reference to key in node

  00000	55		 push	 ebp
  00001	8b ec		 mov	 ebp, esp

; 142  : 		return (_Mybase::_Kfn(_Myval(_Pnode)));

  00003	8b 45 08	 mov	 eax, DWORD PTR __Pnode$[ebp]
  00006	50		 push	 eax
  00007	e8 00 00 00 00	 call	 ?_Myval@?$_Tree@V?$_Tmap_traits@PAUHWND__@@UWndMoveData@@U?$less@PAUHWND__@@@std@@V?$allocator@U?$pair@QAUHWND__@@UWndMoveData@@@std@@@4@$0A@@std@@@std@@KAAAU?$pair@QAUHWND__@@UWndMoveData@@@2@PAU_Node@?$_Tree_nod@V?$_Tmap_traits@PAUHWND__@@UWndMoveData@@U?$less@PAUHWND__@@@std@@V?$allocator@U?$pair@QAUHWND__@@UWndMoveData@@@std@@@4@$0A@@std@@@2@@Z ; std::_Tree<std::_Tmap_traits<HWND__ *,WndMoveData,std::less<HWND__ *>,std::allocator<std::pair<HWND__ * const,WndMoveData> >,0> >::_Myval
  0000c	83 c4 04	 add	 esp, 4
  0000f	50		 push	 eax
  00010	e8 00 00 00 00	 call	 ?_Kfn@?$_Tmap_traits@PAUHWND__@@UWndMoveData@@U?$less@PAUHWND__@@@std@@V?$allocator@U?$pair@QAUHWND__@@UWndMoveData@@@std@@@4@$0A@@std@@SAABQAUHWND__@@ABU?$pair@QAUHWND__@@UWndMoveData@@@2@@Z ; std::_Tmap_traits<HWND__ *,WndMoveData,std::less<HWND__ *>,std::allocator<std::pair<HWND__ * const,WndMoveData> >,0>::_Kfn
  00015	83 c4 04	 add	 esp, 4

; 143  : 		}

  00018	5d		 pop	 ebp
  00019	c3		 ret	 0
?_Key@?$_Tree@V?$_Tmap_traits@PAUHWND__@@UWndMoveData@@U?$less@PAUHWND__@@@std@@V?$allocator@U?$pair@QAUHWND__@@UWndMoveData@@@std@@@4@$0A@@std@@@std@@KAABQAUHWND__@@PAU_Node@?$_Tree_nod@V?$_Tmap_traits@PAUHWND__@@UWndMoveData@@U?$less@PAUHWND__@@@std@@V?$allocator@U?$pair@QAUHWND__@@UWndMoveData@@@std@@@4@$0A@@std@@@2@@Z ENDP ; std::_Tree<std::_Tmap_traits<HWND__ *,WndMoveData,std::less<HWND__ *>,std::allocator<std::pair<HWND__ * const,WndMoveData> >,0> >::_Key
_TEXT	ENDS
PUBLIC	??0?$_Tree_val@V?$_Tmap_traits@PAUHWND__@@UWndMoveData@@U?$less@PAUHWND__@@@std@@V?$allocator@U?$pair@QAUHWND__@@UWndMoveData@@@std@@@4@$0A@@std@@@std@@IAE@ABU?$less@PAUHWND__@@@1@V?$allocator@U?$pair@QAUHWND__@@UWndMoveData@@@std@@@1@@Z ; std::_Tree_val<std::_Tmap_traits<HWND__ *,WndMoveData,std::less<HWND__ *>,std::allocator<std::pair<HWND__ * const,WndMoveData> >,0> >::_Tree_val<std::_Tmap_traits<HWND__ *,WndMoveData,std::less<HWND__ *>,std::allocator<std::pair<HWND__ * const,WndMoveData> >,0> >
PUBLIC	?_Init@?$_Tree@V?$_Tmap_traits@PAUHWND__@@UWndMoveData@@U?$less@PAUHWND__@@@std@@V?$allocator@U?$pair@QAUHWND__@@UWndMoveData@@@std@@@4@$0A@@std@@@std@@IAEXXZ ; std::_Tree<std::_Tmap_traits<HWND__ *,WndMoveData,std::less<HWND__ *>,std::allocator<std::pair<HWND__ * const,WndMoveData> >,0> >::_Init
PUBLIC	??0?$allocator@U?$pair@QAUHWND__@@UWndMoveData@@@std@@@std@@QAE@ABV01@@Z ; std::allocator<std::pair<HWND__ * const,WndMoveData> >::allocator<std::pair<HWND__ * const,WndMoveData> >
; Function compile flags: /Odt
;	COMDAT ??0?$_Tree@V?$_Tmap_traits@PAUHWND__@@UWndMoveData@@U?$less@PAUHWND__@@@std@@V?$allocator@U?$pair@QAUHWND__@@UWndMoveData@@@std@@@4@$0A@@std@@@std@@QAE@ABU?$less@PAUHWND__@@@1@ABV?$allocator@U?$pair@QAUHWND__@@UWndMoveData@@@std@@@1@@Z
_TEXT	SEGMENT
_this$ = -8						; size = 4
__Parg$ = 8						; size = 4
__Al$ = 12						; size = 4
??0?$_Tree@V?$_Tmap_traits@PAUHWND__@@UWndMoveData@@U?$less@PAUHWND__@@@std@@V?$allocator@U?$pair@QAUHWND__@@UWndMoveData@@@std@@@4@$0A@@std@@@std@@QAE@ABU?$less@PAUHWND__@@@1@ABV?$allocator@U?$pair@QAUHWND__@@UWndMoveData@@@std@@@1@@Z PROC NEAR ; std::_Tree<std::_Tmap_traits<HWND__ *,WndMoveData,std::less<HWND__ *>,std::allocator<std::pair<HWND__ * const,WndMoveData> >,0> >::_Tree<std::_Tmap_traits<HWND__ *,WndMoveData,std::less<HWND__ *>,std::allocator<std::pair<HWND__ * const,WndMoveData> >,0> >, COMDAT
; _this$ = ecx

; 361  : 		{	// construct empty tree

  00000	55		 push	 ebp
  00001	8b ec		 mov	 ebp, esp
  00003	83 ec 08	 sub	 esp, 8
  00006	89 4d f8	 mov	 DWORD PTR _this$[ebp], ecx
  00009	51		 push	 ecx
  0000a	8b cc		 mov	 ecx, esp
  0000c	8b 45 0c	 mov	 eax, DWORD PTR __Al$[ebp]
  0000f	50		 push	 eax
  00010	e8 00 00 00 00	 call	 ??0?$allocator@U?$pair@QAUHWND__@@UWndMoveData@@@std@@@std@@QAE@ABV01@@Z ; std::allocator<std::pair<HWND__ * const,WndMoveData> >::allocator<std::pair<HWND__ * const,WndMoveData> >
  00015	8b 4d 08	 mov	 ecx, DWORD PTR __Parg$[ebp]
  00018	51		 push	 ecx
  00019	8b 4d f8	 mov	 ecx, DWORD PTR _this$[ebp]
  0001c	e8 00 00 00 00	 call	 ??0?$_Tree_val@V?$_Tmap_traits@PAUHWND__@@UWndMoveData@@U?$less@PAUHWND__@@@std@@V?$allocator@U?$pair@QAUHWND__@@UWndMoveData@@@std@@@4@$0A@@std@@@std@@IAE@ABU?$less@PAUHWND__@@@1@V?$allocator@U?$pair@QAUHWND__@@UWndMoveData@@@std@@@1@@Z ; std::_Tree_val<std::_Tmap_traits<HWND__ *,WndMoveData,std::less<HWND__ *>,std::allocator<std::pair<HWND__ * const,WndMoveData> >,0> >::_Tree_val<std::_Tmap_traits<HWND__ *,WndMoveData,std::less<HWND__ *>,std::allocator<std::pair<HWND__ * const,WndMoveData> >,0> >

; 362  : 		_Init();

  00021	8b 4d f8	 mov	 ecx, DWORD PTR _this$[ebp]
  00024	e8 00 00 00 00	 call	 ?_Init@?$_Tree@V?$_Tmap_traits@PAUHWND__@@UWndMoveData@@U?$less@PAUHWND__@@@std@@V?$allocator@U?$pair@QAUHWND__@@UWndMoveData@@@std@@@4@$0A@@std@@@std@@IAEXXZ ; std::_Tree<std::_Tmap_traits<HWND__ *,WndMoveData,std::less<HWND__ *>,std::allocator<std::pair<HWND__ * const,WndMoveData> >,0> >::_Init

; 363  : 		}

  00029	8b 45 f8	 mov	 eax, DWORD PTR _this$[ebp]
  0002c	8b e5		 mov	 esp, ebp
  0002e	5d		 pop	 ebp
  0002f	c2 08 00	 ret	 8
??0?$_Tree@V?$_Tmap_traits@PAUHWND__@@UWndMoveData@@U?$less@PAUHWND__@@@std@@V?$allocator@U?$pair@QAUHWND__@@UWndMoveData@@@std@@@4@$0A@@std@@@std@@QAE@ABU?$less@PAUHWND__@@@1@ABV?$allocator@U?$pair@QAUHWND__@@UWndMoveData@@@std@@@1@@Z ENDP ; std::_Tree<std::_Tmap_traits<HWND__ *,WndMoveData,std::less<HWND__ *>,std::allocator<std::pair<HWND__ * const,WndMoveData> >,0> >::_Tree<std::_Tmap_traits<HWND__ *,WndMoveData,std::less<HWND__ *>,std::allocator<std::pair<HWND__ * const,WndMoveData> >,0> >
_TEXT	ENDS
PUBLIC	?_Isnil@?$_Tree@V?$_Tmap_traits@PAUHWND__@@UWndMoveData@@U?$less@PAUHWND__@@@std@@V?$allocator@U?$pair@QAUHWND__@@UWndMoveData@@@std@@@4@$0A@@std@@@std@@KAAADPAU_Node@?$_Tree_nod@V?$_Tmap_traits@PAUHWND__@@UWndMoveData@@U?$less@PAUHWND__@@@std@@V?$allocator@U?$pair@QAUHWND__@@UWndMoveData@@@std@@@4@$0A@@std@@@2@@Z ; std::_Tree<std::_Tmap_traits<HWND__ *,WndMoveData,std::less<HWND__ *>,std::allocator<std::pair<HWND__ * const,WndMoveData> >,0> >::_Isnil
PUBLIC	?_Right@?$_Tree@V?$_Tmap_traits@PAUHWND__@@UWndMoveData@@U?$less@PAUHWND__@@@std@@V?$allocator@U?$pair@QAUHWND__@@UWndMoveData@@@std@@@4@$0A@@std@@@std@@KAAAPAU_Node@?$_Tree_nod@V?$_Tmap_traits@PAUHWND__@@UWndMoveData@@U?$less@PAUHWND__@@@std@@V?$allocator@U?$pair@QAUHWND__@@UWndMoveData@@@std@@@4@$0A@@std@@@2@PAU342@@Z ; std::_Tree<std::_Tmap_traits<HWND__ *,WndMoveData,std::less<HWND__ *>,std::allocator<std::pair<HWND__ * const,WndMoveData> >,0> >::_Right
PUBLIC	?size@?$_Tree@V?$_Tmap_traits@PAUHWND__@@UWndMoveData@@U?$less@PAUHWND__@@@std@@V?$allocator@U?$pair@QAUHWND__@@UWndMoveData@@@std@@@4@$0A@@std@@@std@@QBEIXZ ; std::_Tree<std::_Tmap_traits<HWND__ *,WndMoveData,std::less<HWND__ *>,std::allocator<std::pair<HWND__ * const,WndMoveData> >,0> >::size
PUBLIC	?insert@?$_Tree@V?$_Tmap_traits@PAUHWND__@@UWndMoveData@@U?$less@PAUHWND__@@@std@@V?$allocator@U?$pair@QAUHWND__@@UWndMoveData@@@std@@@4@$0A@@std@@@std@@QAE?AU?$pair@Viterator@?$_Tree@V?$_Tmap_traits@PAUHWND__@@UWndMoveData@@U?$less@PAUHWND__@@@std@@V?$allocator@U?$pair@QAUHWND__@@UWndMoveData@@@std@@@4@$0A@@std@@@std@@_N@2@ABU?$pair@QAUHWND__@@UWndMoveData@@@2@@Z ; std::_Tree<std::_Tmap_traits<HWND__ *,WndMoveData,std::less<HWND__ *>,std::allocator<std::pair<HWND__ * const,WndMoveData> >,0> >::insert
PUBLIC	?_Insert@?$_Tree@V?$_Tmap_traits@PAUHWND__@@UWndMoveData@@U?$less@PAUHWND__@@@std@@V?$allocator@U?$pair@QAUHWND__@@UWndMoveData@@@std@@@4@$0A@@std@@@std@@IAE?AViterator@12@_NPAU_Node@?$_Tree_nod@V?$_Tmap_traits@PAUHWND__@@UWndMoveData@@U?$less@PAUHWND__@@@std@@V?$allocator@U?$pair@QAUHWND__@@UWndMoveData@@@std@@@4@$0A@@std@@@2@ABU?$pair@QAUHWND__@@UWndMoveData@@@2@@Z ; std::_Tree<std::_Tmap_traits<HWND__ *,WndMoveData,std::less<HWND__ *>,std::allocator<std::pair<HWND__ * const,WndMoveData> >,0> >::_Insert
PUBLIC	??Fiterator@?$_Tree@V?$_Tmap_traits@PAUHWND__@@UWndMoveData@@U?$less@PAUHWND__@@@std@@V?$allocator@U?$pair@QAUHWND__@@UWndMoveData@@@std@@@4@$0A@@std@@@std@@QAEAAV012@XZ ; std::_Tree<std::_Tmap_traits<HWND__ *,WndMoveData,std::less<HWND__ *>,std::allocator<std::pair<HWND__ * const,WndMoveData> >,0> >::iterator::operator--
; Function compile flags: /Odt
;	COMDAT ?insert@?$_Tree@V?$_Tmap_traits@PAUHWND__@@UWndMoveData@@U?$less@PAUHWND__@@@std@@V?$allocator@U?$pair@QAUHWND__@@UWndMoveData@@@std@@@4@$0A@@std@@@std@@QAE?AViterator@12@V312@ABU?$pair@QAUHWND__@@UWndMoveData@@@2@@Z
_TEXT	SEGMENT
_this$ = -40						; size = 4
$T200057 = -36						; size = 8
$T200056 = -28						; size = 4
$T200055 = -24						; size = 4
$T200054 = -20						; size = 4
$T200053 = -16						; size = 4
$T200052 = -12						; size = 4
$T200051 = -8						; size = 4
__Next$ = -4						; size = 4
___$ReturnUdt$ = 8					; size = 4
__Where$ = 12						; size = 4
__Val$ = 16						; size = 4
?insert@?$_Tree@V?$_Tmap_traits@PAUHWND__@@UWndMoveData@@U?$less@PAUHWND__@@@std@@V?$allocator@U?$pair@QAUHWND__@@UWndMoveData@@@std@@@4@$0A@@std@@@std@@QAE?AViterator@12@V312@ABU?$pair@QAUHWND__@@UWndMoveData@@@2@@Z PROC NEAR ; std::_Tree<std::_Tmap_traits<HWND__ *,WndMoveData,std::less<HWND__ *>,std::allocator<std::pair<HWND__ * const,WndMoveData> >,0> >::insert, COMDAT
; _this$ = ecx

; 509  : 		{	// try to insert node with value _Val using _Where as a hint

  00000	55		 push	 ebp
  00001	8b ec		 mov	 ebp, esp
  00003	83 ec 28	 sub	 esp, 40			; 00000028H
  00006	89 4d d8	 mov	 DWORD PTR _this$[ebp], ecx

; 510  : 		iterator _Next;

  00009	8d 4d fc	 lea	 ecx, DWORD PTR __Next$[ebp]
  0000c	e8 00 00 00 00	 call	 ??0iterator@?$_Tree@V?$_Tmap_traits@PAUHWND__@@UWndMoveData@@U?$less@PAUHWND__@@@std@@V?$allocator@U?$pair@QAUHWND__@@UWndMoveData@@@std@@@4@$0A@@std@@@std@@QAE@XZ ; std::_Tree<std::_Tmap_traits<HWND__ *,WndMoveData,std::less<HWND__ *>,std::allocator<std::pair<HWND__ * const,WndMoveData> >,0> >::iterator::iterator

; 511  : 
; 512  : 		if (size() == 0)

  00011	8b 4d d8	 mov	 ecx, DWORD PTR _this$[ebp]
  00014	e8 00 00 00 00	 call	 ?size@?$_Tree@V?$_Tmap_traits@PAUHWND__@@UWndMoveData@@U?$less@PAUHWND__@@@std@@V?$allocator@U?$pair@QAUHWND__@@UWndMoveData@@@std@@@4@$0A@@std@@@std@@QBEIXZ ; std::_Tree<std::_Tmap_traits<HWND__ *,WndMoveData,std::less<HWND__ *>,std::allocator<std::pair<HWND__ * const,WndMoveData> >,0> >::size
  00019	85 c0		 test	 eax, eax
  0001b	75 21		 jne	 SHORT $L198913

; 513  : 			return (_Insert(true, _Myhead, _Val));	// insert into empty tree

  0001d	8b 45 10	 mov	 eax, DWORD PTR __Val$[ebp]
  00020	50		 push	 eax
  00021	8b 4d d8	 mov	 ecx, DWORD PTR _this$[ebp]
  00024	8b 51 04	 mov	 edx, DWORD PTR [ecx+4]
  00027	52		 push	 edx
  00028	6a 01		 push	 1
  0002a	8b 45 08	 mov	 eax, DWORD PTR ___$ReturnUdt$[ebp]
  0002d	50		 push	 eax
  0002e	8b 4d d8	 mov	 ecx, DWORD PTR _this$[ebp]
  00031	e8 00 00 00 00	 call	 ?_Insert@?$_Tree@V?$_Tmap_traits@PAUHWND__@@UWndMoveData@@U?$less@PAUHWND__@@@std@@V?$allocator@U?$pair@QAUHWND__@@UWndMoveData@@@std@@@4@$0A@@std@@@std@@IAE?AViterator@12@_NPAU_Node@?$_Tree_nod@V?$_Tmap_traits@PAUHWND__@@UWndMoveData@@U?$less@PAUHWND__@@@std@@V?$allocator@U?$pair@QAUHWND__@@UWndMoveData@@@std@@@4@$0A@@std@@@2@ABU?$pair@QAUHWND__@@UWndMoveData@@@2@@Z ; std::_Tree<std::_Tmap_traits<HWND__ *,WndMoveData,std::less<HWND__ *>,std::allocator<std::pair<HWND__ * const,WndMoveData> >,0> >::_Insert
  00036	8b 45 08	 mov	 eax, DWORD PTR ___$ReturnUdt$[ebp]
  00039	e9 81 05 00 00	 jmp	 $L198911
$L198913:

; 514  : 		else if (this->_Multi)

  0003e	33 c9		 xor	 ecx, ecx
  00040	0f 84 b5 02 00
	00		 je	 $L198916

; 515  : 			{	// insert even if duplicate
; 516  : 			if (_Where == begin())

  00046	8d 55 f8	 lea	 edx, DWORD PTR $T200051[ebp]
  00049	52		 push	 edx
  0004a	8b 4d d8	 mov	 ecx, DWORD PTR _this$[ebp]
  0004d	e8 00 00 00 00	 call	 ?begin@?$_Tree@V?$_Tmap_traits@PAUHWND__@@UWndMoveData@@U?$less@PAUHWND__@@@std@@V?$allocator@U?$pair@QAUHWND__@@UWndMoveData@@@std@@@4@$0A@@std@@@std@@QAE?AViterator@12@XZ ; std::_Tree<std::_Tmap_traits<HWND__ *,WndMoveData,std::less<HWND__ *>,std::allocator<std::pair<HWND__ * const,WndMoveData> >,0> >::begin
  00052	50		 push	 eax
  00053	8d 4d 0c	 lea	 ecx, DWORD PTR __Where$[ebp]
  00056	e8 00 00 00 00	 call	 ??8const_iterator@?$_Tree@V?$_Tmap_traits@PAUHWND__@@UWndMoveData@@U?$less@PAUHWND__@@@std@@V?$allocator@U?$pair@QAUHWND__@@UWndMoveData@@@std@@@4@$0A@@std@@@std@@QBE_NABV012@@Z ; std::_Tree<std::_Tmap_traits<HWND__ *,WndMoveData,std::less<HWND__ *>,std::allocator<std::pair<HWND__ * const,WndMoveData> >,0> >::const_iterator::operator==
  0005b	0f b6 c0	 movzx	 eax, al
  0005e	85 c0		 test	 eax, eax
  00060	74 56		 je	 SHORT $L198918

; 517  : 				{	// insert at beginning if before first element
; 518  : 				if (!this->comp(_Key(_Where._Mynode()), this->_Kfn(_Val)))

  00062	8b 4d 10	 mov	 ecx, DWORD PTR __Val$[ebp]
  00065	51		 push	 ecx
  00066	e8 00 00 00 00	 call	 ?_Kfn@?$_Tmap_traits@PAUHWND__@@UWndMoveData@@U?$less@PAUHWND__@@@std@@V?$allocator@U?$pair@QAUHWND__@@UWndMoveData@@@std@@@4@$0A@@std@@SAABQAUHWND__@@ABU?$pair@QAUHWND__@@UWndMoveData@@@2@@Z ; std::_Tmap_traits<HWND__ *,WndMoveData,std::less<HWND__ *>,std::allocator<std::pair<HWND__ * const,WndMoveData> >,0>::_Kfn
  0006b	83 c4 04	 add	 esp, 4
  0006e	50		 push	 eax
  0006f	8d 4d 0c	 lea	 ecx, DWORD PTR __Where$[ebp]
  00072	e8 00 00 00 00	 call	 ?_Mynode@const_iterator@?$_Tree@V?$_Tmap_traits@PAUHWND__@@UWndMoveData@@U?$less@PAUHWND__@@@std@@V?$allocator@U?$pair@QAUHWND__@@UWndMoveData@@@std@@@4@$0A@@std@@@std@@QBEPAU_Node@?$_Tree_nod@V?$_Tmap_traits@PAUHWND__@@UWndMoveData@@U?$less@PAUHWND__@@@std@@V?$allocator@U?$pair@QAUHWND__@@UWndMoveData@@@std@@@4@$0A@@std@@@3@XZ ; std::_Tree<std::_Tmap_traits<HWND__ *,WndMoveData,std::less<HWND__ *>,std::allocator<std::pair<HWND__ * const,WndMoveData> >,0> >::const_iterator::_Mynode
  00077	50		 push	 eax
  00078	e8 00 00 00 00	 call	 ?_Key@?$_Tree@V?$_Tmap_traits@PAUHWND__@@UWndMoveData@@U?$less@PAUHWND__@@@std@@V?$allocator@U?$pair@QAUHWND__@@UWndMoveData@@@std@@@4@$0A@@std@@@std@@KAABQAUHWND__@@PAU_Node@?$_Tree_nod@V?$_Tmap_traits@PAUHWND__@@UWndMoveData@@U?$less@PAUHWND__@@@std@@V?$allocator@U?$pair@QAUHWND__@@UWndMoveData@@@std@@@4@$0A@@std@@@2@@Z ; std::_Tree<std::_Tmap_traits<HWND__ *,WndMoveData,std::less<HWND__ *>,std::allocator<std::pair<HWND__ * const,WndMoveData> >,0> >::_Key
  0007d	83 c4 04	 add	 esp, 4
  00080	50		 push	 eax
  00081	8b 4d d8	 mov	 ecx, DWORD PTR _this$[ebp]
  00084	e8 00 00 00 00	 call	 ??R?$less@PAUHWND__@@@std@@QBE_NABQAUHWND__@@0@Z ; std::less<HWND__ *>::operator()
  00089	0f b6 d0	 movzx	 edx, al
  0008c	85 d2		 test	 edx, edx
  0008e	75 23		 jne	 SHORT $L198919

; 519  : 					return (_Insert(true, _Where._Mynode(), _Val));

  00090	8b 45 10	 mov	 eax, DWORD PTR __Val$[ebp]
  00093	50		 push	 eax
  00094	8d 4d 0c	 lea	 ecx, DWORD PTR __Where$[ebp]
  00097	e8 00 00 00 00	 call	 ?_Mynode@const_iterator@?$_Tree@V?$_Tmap_traits@PAUHWND__@@UWndMoveData@@U?$less@PAUHWND__@@@std@@V?$allocator@U?$pair@QAUHWND__@@UWndMoveData@@@std@@@4@$0A@@std@@@std@@QBEPAU_Node@?$_Tree_nod@V?$_Tmap_traits@PAUHWND__@@UWndMoveData@@U?$less@PAUHWND__@@@std@@V?$allocator@U?$pair@QAUHWND__@@UWndMoveData@@@std@@@4@$0A@@std@@@3@XZ ; std::_Tree<std::_Tmap_traits<HWND__ *,WndMoveData,std::less<HWND__ *>,std::allocator<std::pair<HWND__ * const,WndMoveData> >,0> >::const_iterator::_Mynode
  0009c	50		 push	 eax
  0009d	6a 01		 push	 1
  0009f	8b 4d 08	 mov	 ecx, DWORD PTR ___$ReturnUdt$[ebp]
  000a2	51		 push	 ecx
  000a3	8b 4d d8	 mov	 ecx, DWORD PTR _this$[ebp]
  000a6	e8 00 00 00 00	 call	 ?_Insert@?$_Tree@V?$_Tmap_traits@PAUHWND__@@UWndMoveData@@U?$less@PAUHWND__@@@std@@V?$allocator@U?$pair@QAUHWND__@@UWndMoveData@@@std@@@4@$0A@@std@@@std@@IAE?AViterator@12@_NPAU_Node@?$_Tree_nod@V?$_Tmap_traits@PAUHWND__@@UWndMoveData@@U?$less@PAUHWND__@@@std@@V?$allocator@U?$pair@QAUHWND__@@UWndMoveData@@@std@@@4@$0A@@std@@@2@ABU?$pair@QAUHWND__@@UWndMoveData@@@2@@Z ; std::_Tree<std::_Tmap_traits<HWND__ *,WndMoveData,std::less<HWND__ *>,std::allocator<std::pair<HWND__ * const,WndMoveData> >,0> >::_Insert
  000ab	8b 45 08	 mov	 eax, DWORD PTR ___$ReturnUdt$[ebp]
  000ae	e9 0c 05 00 00	 jmp	 $L198911
$L198919:

; 520  : 				}
; 521  : 			else if (_Where == end())

  000b3	e9 3e 02 00 00	 jmp	 $L198921
$L198918:
  000b8	8d 55 f4	 lea	 edx, DWORD PTR $T200052[ebp]
  000bb	52		 push	 edx
  000bc	8b 4d d8	 mov	 ecx, DWORD PTR _this$[ebp]
  000bf	e8 00 00 00 00	 call	 ?end@?$_Tree@V?$_Tmap_traits@PAUHWND__@@UWndMoveData@@U?$less@PAUHWND__@@@std@@V?$allocator@U?$pair@QAUHWND__@@UWndMoveData@@@std@@@4@$0A@@std@@@std@@QAE?AViterator@12@XZ ; std::_Tree<std::_Tmap_traits<HWND__ *,WndMoveData,std::less<HWND__ *>,std::allocator<std::pair<HWND__ * const,WndMoveData> >,0> >::end
  000c4	50		 push	 eax
  000c5	8d 4d 0c	 lea	 ecx, DWORD PTR __Where$[ebp]
  000c8	e8 00 00 00 00	 call	 ??8const_iterator@?$_Tree@V?$_Tmap_traits@PAUHWND__@@UWndMoveData@@U?$less@PAUHWND__@@@std@@V?$allocator@U?$pair@QAUHWND__@@UWndMoveData@@@std@@@4@$0A@@std@@@std@@QBE_NABV012@@Z ; std::_Tree<std::_Tmap_traits<HWND__ *,WndMoveData,std::less<HWND__ *>,std::allocator<std::pair<HWND__ * const,WndMoveData> >,0> >::const_iterator::operator==
  000cd	0f b6 c0	 movzx	 eax, al
  000d0	85 c0		 test	 eax, eax
  000d2	74 5a		 je	 SHORT $L198923

; 522  : 				{	// insert at end if after last element
; 523  : 				if (!this->comp(this->_Kfn(_Val), _Key(_Rmost())))

  000d4	8b 4d d8	 mov	 ecx, DWORD PTR _this$[ebp]
  000d7	e8 00 00 00 00	 call	 ?_Rmost@?$_Tree@V?$_Tmap_traits@PAUHWND__@@UWndMoveData@@U?$less@PAUHWND__@@@std@@V?$allocator@U?$pair@QAUHWND__@@UWndMoveData@@@std@@@4@$0A@@std@@@std@@IAEAAPAU_Node@?$_Tree_nod@V?$_Tmap_traits@PAUHWND__@@UWndMoveData@@U?$less@PAUHWND__@@@std@@V?$allocator@U?$pair@QAUHWND__@@UWndMoveData@@@std@@@4@$0A@@std@@@2@XZ ; std::_Tree<std::_Tmap_traits<HWND__ *,WndMoveData,std::less<HWND__ *>,std::allocator<std::pair<HWND__ * const,WndMoveData> >,0> >::_Rmost
  000dc	8b 08		 mov	 ecx, DWORD PTR [eax]
  000de	51		 push	 ecx
  000df	e8 00 00 00 00	 call	 ?_Key@?$_Tree@V?$_Tmap_traits@PAUHWND__@@UWndMoveData@@U?$less@PAUHWND__@@@std@@V?$allocator@U?$pair@QAUHWND__@@UWndMoveData@@@std@@@4@$0A@@std@@@std@@KAABQAUHWND__@@PAU_Node@?$_Tree_nod@V?$_Tmap_traits@PAUHWND__@@UWndMoveData@@U?$less@PAUHWND__@@@std@@V?$allocator@U?$pair@QAUHWND__@@UWndMoveData@@@std@@@4@$0A@@std@@@2@@Z ; std::_Tree<std::_Tmap_traits<HWND__ *,WndMoveData,std::less<HWND__ *>,std::allocator<std::pair<HWND__ * const,WndMoveData> >,0> >::_Key
  000e4	83 c4 04	 add	 esp, 4
  000e7	50		 push	 eax
  000e8	8b 55 10	 mov	 edx, DWORD PTR __Val$[ebp]
  000eb	52		 push	 edx
  000ec	e8 00 00 00 00	 call	 ?_Kfn@?$_Tmap_traits@PAUHWND__@@UWndMoveData@@U?$less@PAUHWND__@@@std@@V?$allocator@U?$pair@QAUHWND__@@UWndMoveData@@@std@@@4@$0A@@std@@SAABQAUHWND__@@ABU?$pair@QAUHWND__@@UWndMoveData@@@2@@Z ; std::_Tmap_traits<HWND__ *,WndMoveData,std::less<HWND__ *>,std::allocator<std::pair<HWND__ * const,WndMoveData> >,0>::_Kfn
  000f1	83 c4 04	 add	 esp, 4
  000f4	50		 push	 eax
  000f5	8b 4d d8	 mov	 ecx, DWORD PTR _this$[ebp]
  000f8	e8 00 00 00 00	 call	 ??R?$less@PAUHWND__@@@std@@QBE_NABQAUHWND__@@0@Z ; std::less<HWND__ *>::operator()
  000fd	0f b6 c0	 movzx	 eax, al
  00100	85 c0		 test	 eax, eax
  00102	75 25		 jne	 SHORT $L198924

; 524  : 					return (_Insert(false, _Rmost(), _Val));

  00104	8b 4d 10	 mov	 ecx, DWORD PTR __Val$[ebp]
  00107	51		 push	 ecx
  00108	8b 4d d8	 mov	 ecx, DWORD PTR _this$[ebp]
  0010b	e8 00 00 00 00	 call	 ?_Rmost@?$_Tree@V?$_Tmap_traits@PAUHWND__@@UWndMoveData@@U?$less@PAUHWND__@@@std@@V?$allocator@U?$pair@QAUHWND__@@UWndMoveData@@@std@@@4@$0A@@std@@@std@@IAEAAPAU_Node@?$_Tree_nod@V?$_Tmap_traits@PAUHWND__@@UWndMoveData@@U?$less@PAUHWND__@@@std@@V?$allocator@U?$pair@QAUHWND__@@UWndMoveData@@@std@@@4@$0A@@std@@@2@XZ ; std::_Tree<std::_Tmap_traits<HWND__ *,WndMoveData,std::less<HWND__ *>,std::allocator<std::pair<HWND__ * const,WndMoveData> >,0> >::_Rmost
  00110	8b 10		 mov	 edx, DWORD PTR [eax]
  00112	52		 push	 edx
  00113	6a 00		 push	 0
  00115	8b 45 08	 mov	 eax, DWORD PTR ___$ReturnUdt$[ebp]
  00118	50		 push	 eax
  00119	8b 4d d8	 mov	 ecx, DWORD PTR _this$[ebp]
  0011c	e8 00 00 00 00	 call	 ?_Insert@?$_Tree@V?$_Tmap_traits@PAUHWND__@@UWndMoveData@@U?$less@PAUHWND__@@@std@@V?$allocator@U?$pair@QAUHWND__@@UWndMoveData@@@std@@@4@$0A@@std@@@std@@IAE?AViterator@12@_NPAU_Node@?$_Tree_nod@V?$_Tmap_traits@PAUHWND__@@UWndMoveData@@U?$less@PAUHWND__@@@std@@V?$allocator@U?$pair@QAUHWND__@@UWndMoveData@@@std@@@4@$0A@@std@@@2@ABU?$pair@QAUHWND__@@UWndMoveData@@@2@@Z ; std::_Tree<std::_Tmap_traits<HWND__ *,WndMoveData,std::less<HWND__ *>,std::allocator<std::pair<HWND__ * const,WndMoveData> >,0> >::_Insert
  00121	8b 45 08	 mov	 eax, DWORD PTR ___$ReturnUdt$[ebp]
  00124	e9 96 04 00 00	 jmp	 $L198911
$L198924:

; 525  : 				}
; 526  : 			else if (!this->comp(_Key(_Where._Mynode()), this->_Kfn(_Val))

  00129	e9 c8 01 00 00	 jmp	 $L198921
$L198923:

; 527  : 				&& !this->comp(this->_Kfn(_Val),
; 528  : 					_Key((--(_Next = _Where))._Mynode())))

  0012e	8b 4d 10	 mov	 ecx, DWORD PTR __Val$[ebp]
  00131	51		 push	 ecx
  00132	e8 00 00 00 00	 call	 ?_Kfn@?$_Tmap_traits@PAUHWND__@@UWndMoveData@@U?$less@PAUHWND__@@@std@@V?$allocator@U?$pair@QAUHWND__@@UWndMoveData@@@std@@@4@$0A@@std@@SAABQAUHWND__@@ABU?$pair@QAUHWND__@@UWndMoveData@@@2@@Z ; std::_Tmap_traits<HWND__ *,WndMoveData,std::less<HWND__ *>,std::allocator<std::pair<HWND__ * const,WndMoveData> >,0>::_Kfn
  00137	83 c4 04	 add	 esp, 4
  0013a	50		 push	 eax
  0013b	8d 4d 0c	 lea	 ecx, DWORD PTR __Where$[ebp]
  0013e	e8 00 00 00 00	 call	 ?_Mynode@const_iterator@?$_Tree@V?$_Tmap_traits@PAUHWND__@@UWndMoveData@@U?$less@PAUHWND__@@@std@@V?$allocator@U?$pair@QAUHWND__@@UWndMoveData@@@std@@@4@$0A@@std@@@std@@QBEPAU_Node@?$_Tree_nod@V?$_Tmap_traits@PAUHWND__@@UWndMoveData@@U?$less@PAUHWND__@@@std@@V?$allocator@U?$pair@QAUHWND__@@UWndMoveData@@@std@@@4@$0A@@std@@@3@XZ ; std::_Tree<std::_Tmap_traits<HWND__ *,WndMoveData,std::less<HWND__ *>,std::allocator<std::pair<HWND__ * const,WndMoveData> >,0> >::const_iterator::_Mynode
  00143	50		 push	 eax
  00144	e8 00 00 00 00	 call	 ?_Key@?$_Tree@V?$_Tmap_traits@PAUHWND__@@UWndMoveData@@U?$less@PAUHWND__@@@std@@V?$allocator@U?$pair@QAUHWND__@@UWndMoveData@@@std@@@4@$0A@@std@@@std@@KAABQAUHWND__@@PAU_Node@?$_Tree_nod@V?$_Tmap_traits@PAUHWND__@@UWndMoveData@@U?$less@PAUHWND__@@@std@@V?$allocator@U?$pair@QAUHWND__@@UWndMoveData@@@std@@@4@$0A@@std@@@2@@Z ; std::_Tree<std::_Tmap_traits<HWND__ *,WndMoveData,std::less<HWND__ *>,std::allocator<std::pair<HWND__ * const,WndMoveData> >,0> >::_Key
  00149	83 c4 04	 add	 esp, 4
  0014c	50		 push	 eax
  0014d	8b 4d d8	 mov	 ecx, DWORD PTR _this$[ebp]
  00150	e8 00 00 00 00	 call	 ??R?$less@PAUHWND__@@@std@@QBE_NABQAUHWND__@@0@Z ; std::less<HWND__ *>::operator()
  00155	0f b6 d0	 movzx	 edx, al
  00158	85 d2		 test	 edx, edx
  0015a	0f 85 a4 00 00
	00		 jne	 $L198927
  00160	8b 45 0c	 mov	 eax, DWORD PTR __Where$[ebp]
  00163	89 45 fc	 mov	 DWORD PTR __Next$[ebp], eax
  00166	8d 4d fc	 lea	 ecx, DWORD PTR __Next$[ebp]
  00169	e8 00 00 00 00	 call	 ??Fiterator@?$_Tree@V?$_Tmap_traits@PAUHWND__@@UWndMoveData@@U?$less@PAUHWND__@@@std@@V?$allocator@U?$pair@QAUHWND__@@UWndMoveData@@@std@@@4@$0A@@std@@@std@@QAEAAV012@XZ ; std::_Tree<std::_Tmap_traits<HWND__ *,WndMoveData,std::less<HWND__ *>,std::allocator<std::pair<HWND__ * const,WndMoveData> >,0> >::iterator::operator--
  0016e	8b c8		 mov	 ecx, eax
  00170	e8 00 00 00 00	 call	 ?_Mynode@const_iterator@?$_Tree@V?$_Tmap_traits@PAUHWND__@@UWndMoveData@@U?$less@PAUHWND__@@@std@@V?$allocator@U?$pair@QAUHWND__@@UWndMoveData@@@std@@@4@$0A@@std@@@std@@QBEPAU_Node@?$_Tree_nod@V?$_Tmap_traits@PAUHWND__@@UWndMoveData@@U?$less@PAUHWND__@@@std@@V?$allocator@U?$pair@QAUHWND__@@UWndMoveData@@@std@@@4@$0A@@std@@@3@XZ ; std::_Tree<std::_Tmap_traits<HWND__ *,WndMoveData,std::less<HWND__ *>,std::allocator<std::pair<HWND__ * const,WndMoveData> >,0> >::const_iterator::_Mynode
  00175	50		 push	 eax
  00176	e8 00 00 00 00	 call	 ?_Key@?$_Tree@V?$_Tmap_traits@PAUHWND__@@UWndMoveData@@U?$less@PAUHWND__@@@std@@V?$allocator@U?$pair@QAUHWND__@@UWndMoveData@@@std@@@4@$0A@@std@@@std@@KAABQAUHWND__@@PAU_Node@?$_Tree_nod@V?$_Tmap_traits@PAUHWND__@@UWndMoveData@@U?$less@PAUHWND__@@@std@@V?$allocator@U?$pair@QAUHWND__@@UWndMoveData@@@std@@@4@$0A@@std@@@2@@Z ; std::_Tree<std::_Tmap_traits<HWND__ *,WndMoveData,std::less<HWND__ *>,std::allocator<std::pair<HWND__ * const,WndMoveData> >,0> >::_Key
  0017b	83 c4 04	 add	 esp, 4
  0017e	50		 push	 eax
  0017f	8b 4d 10	 mov	 ecx, DWORD PTR __Val$[ebp]
  00182	51		 push	 ecx
  00183	e8 00 00 00 00	 call	 ?_Kfn@?$_Tmap_traits@PAUHWND__@@UWndMoveData@@U?$less@PAUHWND__@@@std@@V?$allocator@U?$pair@QAUHWND__@@UWndMoveData@@@std@@@4@$0A@@std@@SAABQAUHWND__@@ABU?$pair@QAUHWND__@@UWndMoveData@@@2@@Z ; std::_Tmap_traits<HWND__ *,WndMoveData,std::less<HWND__ *>,std::allocator<std::pair<HWND__ * const,WndMoveData> >,0>::_Kfn
  00188	83 c4 04	 add	 esp, 4
  0018b	50		 push	 eax
  0018c	8b 4d d8	 mov	 ecx, DWORD PTR _this$[ebp]
  0018f	e8 00 00 00 00	 call	 ??R?$less@PAUHWND__@@@std@@QBE_NABQAUHWND__@@0@Z ; std::less<HWND__ *>::operator()
  00194	0f b6 d0	 movzx	 edx, al
  00197	85 d2		 test	 edx, edx
  00199	75 69		 jne	 SHORT $L198927

; 529  : 				{	// insert before _Where
; 530  : 				if (_Isnil(_Right(_Next._Mynode())))

  0019b	8d 4d fc	 lea	 ecx, DWORD PTR __Next$[ebp]
  0019e	e8 00 00 00 00	 call	 ?_Mynode@const_iterator@?$_Tree@V?$_Tmap_traits@PAUHWND__@@UWndMoveData@@U?$less@PAUHWND__@@@std@@V?$allocator@U?$pair@QAUHWND__@@UWndMoveData@@@std@@@4@$0A@@std@@@std@@QBEPAU_Node@?$_Tree_nod@V?$_Tmap_traits@PAUHWND__@@UWndMoveData@@U?$less@PAUHWND__@@@std@@V?$allocator@U?$pair@QAUHWND__@@UWndMoveData@@@std@@@4@$0A@@std@@@3@XZ ; std::_Tree<std::_Tmap_traits<HWND__ *,WndMoveData,std::less<HWND__ *>,std::allocator<std::pair<HWND__ * const,WndMoveData> >,0> >::const_iterator::_Mynode
  001a3	50		 push	 eax
  001a4	e8 00 00 00 00	 call	 ?_Right@?$_Tree@V?$_Tmap_traits@PAUHWND__@@UWndMoveData@@U?$less@PAUHWND__@@@std@@V?$allocator@U?$pair@QAUHWND__@@UWndMoveData@@@std@@@4@$0A@@std@@@std@@KAAAPAU_Node@?$_Tree_nod@V?$_Tmap_traits@PAUHWND__@@UWndMoveData@@U?$less@PAUHWND__@@@std@@V?$allocator@U?$pair@QAUHWND__@@UWndMoveData@@@std@@@4@$0A@@std@@@2@PAU342@@Z ; std::_Tree<std::_Tmap_traits<HWND__ *,WndMoveData,std::less<HWND__ *>,std::allocator<std::pair<HWND__ * const,WndMoveData> >,0> >::_Right
  001a9	83 c4 04	 add	 esp, 4
  001ac	8b 00		 mov	 eax, DWORD PTR [eax]
  001ae	50		 push	 eax
  001af	e8 00 00 00 00	 call	 ?_Isnil@?$_Tree@V?$_Tmap_traits@PAUHWND__@@UWndMoveData@@U?$less@PAUHWND__@@@std@@V?$allocator@U?$pair@QAUHWND__@@UWndMoveData@@@std@@@4@$0A@@std@@@std@@KAAADPAU_Node@?$_Tree_nod@V?$_Tmap_traits@PAUHWND__@@UWndMoveData@@U?$less@PAUHWND__@@@std@@V?$allocator@U?$pair@QAUHWND__@@UWndMoveData@@@std@@@4@$0A@@std@@@2@@Z ; std::_Tree<std::_Tmap_traits<HWND__ *,WndMoveData,std::less<HWND__ *>,std::allocator<std::pair<HWND__ * const,WndMoveData> >,0> >::_Isnil
  001b4	83 c4 04	 add	 esp, 4
  001b7	0f be 08	 movsx	 ecx, BYTE PTR [eax]
  001ba	85 c9		 test	 ecx, ecx
  001bc	74 23		 je	 SHORT $L198928

; 531  : 					return (_Insert(false, _Next._Mynode(), _Val));

  001be	8b 55 10	 mov	 edx, DWORD PTR __Val$[ebp]
  001c1	52		 push	 edx
  001c2	8d 4d fc	 lea	 ecx, DWORD PTR __Next$[ebp]
  001c5	e8 00 00 00 00	 call	 ?_Mynode@const_iterator@?$_Tree@V?$_Tmap_traits@PAUHWND__@@UWndMoveData@@U?$less@PAUHWND__@@@std@@V?$allocator@U?$pair@QAUHWND__@@UWndMoveData@@@std@@@4@$0A@@std@@@std@@QBEPAU_Node@?$_Tree_nod@V?$_Tmap_traits@PAUHWND__@@UWndMoveData@@U?$less@PAUHWND__@@@std@@V?$allocator@U?$pair@QAUHWND__@@UWndMoveData@@@std@@@4@$0A@@std@@@3@XZ ; std::_Tree<std::_Tmap_traits<HWND__ *,WndMoveData,std::less<HWND__ *>,std::allocator<std::pair<HWND__ * const,WndMoveData> >,0> >::const_iterator::_Mynode
  001ca	50		 push	 eax
  001cb	6a 00		 push	 0
  001cd	8b 45 08	 mov	 eax, DWORD PTR ___$ReturnUdt$[ebp]
  001d0	50		 push	 eax
  001d1	8b 4d d8	 mov	 ecx, DWORD PTR _this$[ebp]
  001d4	e8 00 00 00 00	 call	 ?_Insert@?$_Tree@V?$_Tmap_traits@PAUHWND__@@UWndMoveData@@U?$less@PAUHWND__@@@std@@V?$allocator@U?$pair@QAUHWND__@@UWndMoveData@@@std@@@4@$0A@@std@@@std@@IAE?AViterator@12@_NPAU_Node@?$_Tree_nod@V?$_Tmap_traits@PAUHWND__@@UWndMoveData@@U?$less@PAUHWND__@@@std@@V?$allocator@U?$pair@QAUHWND__@@UWndMoveData@@@std@@@4@$0A@@std@@@2@ABU?$pair@QAUHWND__@@UWndMoveData@@@2@@Z ; std::_Tree<std::_Tmap_traits<HWND__ *,WndMoveData,std::less<HWND__ *>,std::allocator<std::pair<HWND__ * const,WndMoveData> >,0> >::_Insert
  001d9	8b 45 08	 mov	 eax, DWORD PTR ___$ReturnUdt$[ebp]
  001dc	e9 de 03 00 00	 jmp	 $L198911
$L198928:

; 532  : 				else
; 533  : 					return (_Insert(true, _Where._Mynode(), _Val));

  001e1	8b 4d 10	 mov	 ecx, DWORD PTR __Val$[ebp]
  001e4	51		 push	 ecx
  001e5	8d 4d 0c	 lea	 ecx, DWORD PTR __Where$[ebp]
  001e8	e8 00 00 00 00	 call	 ?_Mynode@const_iterator@?$_Tree@V?$_Tmap_traits@PAUHWND__@@UWndMoveData@@U?$less@PAUHWND__@@@std@@V?$allocator@U?$pair@QAUHWND__@@UWndMoveData@@@std@@@4@$0A@@std@@@std@@QBEPAU_Node@?$_Tree_nod@V?$_Tmap_traits@PAUHWND__@@UWndMoveData@@U?$less@PAUHWND__@@@std@@V?$allocator@U?$pair@QAUHWND__@@UWndMoveData@@@std@@@4@$0A@@std@@@3@XZ ; std::_Tree<std::_Tmap_traits<HWND__ *,WndMoveData,std::less<HWND__ *>,std::allocator<std::pair<HWND__ * const,WndMoveData> >,0> >::const_iterator::_Mynode
  001ed	50		 push	 eax
  001ee	6a 01		 push	 1
  001f0	8b 55 08	 mov	 edx, DWORD PTR ___$ReturnUdt$[ebp]
  001f3	52		 push	 edx
  001f4	8b 4d d8	 mov	 ecx, DWORD PTR _this$[ebp]
  001f7	e8 00 00 00 00	 call	 ?_Insert@?$_Tree@V?$_Tmap_traits@PAUHWND__@@UWndMoveData@@U?$less@PAUHWND__@@@std@@V?$allocator@U?$pair@QAUHWND__@@UWndMoveData@@@std@@@4@$0A@@std@@@std@@IAE?AViterator@12@_NPAU_Node@?$_Tree_nod@V?$_Tmap_traits@PAUHWND__@@UWndMoveData@@U?$less@PAUHWND__@@@std@@V?$allocator@U?$pair@QAUHWND__@@UWndMoveData@@@std@@@4@$0A@@std@@@2@ABU?$pair@QAUHWND__@@UWndMoveData@@@2@@Z ; std::_Tree<std::_Tmap_traits<HWND__ *,WndMoveData,std::less<HWND__ *>,std::allocator<std::pair<HWND__ * const,WndMoveData> >,0> >::_Insert
  001fc	8b 45 08	 mov	 eax, DWORD PTR ___$ReturnUdt$[ebp]
  001ff	e9 bb 03 00 00	 jmp	 $L198911
$L198927:

; 534  : 				}
; 535  : 			else if (!this->comp(this->_Kfn(_Val), _Key(_Where._Mynode()))
; 536  : 				&& (++(_Next = _Where) == end()
; 537  : 					|| !this->comp(_Key(_Next._Mynode()),
; 538  : 						this->_Kfn(_Val))))

  00204	8d 4d 0c	 lea	 ecx, DWORD PTR __Where$[ebp]
  00207	e8 00 00 00 00	 call	 ?_Mynode@const_iterator@?$_Tree@V?$_Tmap_traits@PAUHWND__@@UWndMoveData@@U?$less@PAUHWND__@@@std@@V?$allocator@U?$pair@QAUHWND__@@UWndMoveData@@@std@@@4@$0A@@std@@@std@@QBEPAU_Node@?$_Tree_nod@V?$_Tmap_traits@PAUHWND__@@UWndMoveData@@U?$less@PAUHWND__@@@std@@V?$allocator@U?$pair@QAUHWND__@@UWndMoveData@@@std@@@4@$0A@@std@@@3@XZ ; std::_Tree<std::_Tmap_traits<HWND__ *,WndMoveData,std::less<HWND__ *>,std::allocator<std::pair<HWND__ * const,WndMoveData> >,0> >::const_iterator::_Mynode
  0020c	50		 push	 eax
  0020d	e8 00 00 00 00	 call	 ?_Key@?$_Tree@V?$_Tmap_traits@PAUHWND__@@UWndMoveData@@U?$less@PAUHWND__@@@std@@V?$allocator@U?$pair@QAUHWND__@@UWndMoveData@@@std@@@4@$0A@@std@@@std@@KAABQAUHWND__@@PAU_Node@?$_Tree_nod@V?$_Tmap_traits@PAUHWND__@@UWndMoveData@@U?$less@PAUHWND__@@@std@@V?$allocator@U?$pair@QAUHWND__@@UWndMoveData@@@std@@@4@$0A@@std@@@2@@Z ; std::_Tree<std::_Tmap_traits<HWND__ *,WndMoveData,std::less<HWND__ *>,std::allocator<std::pair<HWND__ * const,WndMoveData> >,0> >::_Key
  00212	83 c4 04	 add	 esp, 4
  00215	50		 push	 eax
  00216	8b 45 10	 mov	 eax, DWORD PTR __Val$[ebp]
  00219	50		 push	 eax
  0021a	e8 00 00 00 00	 call	 ?_Kfn@?$_Tmap_traits@PAUHWND__@@UWndMoveData@@U?$less@PAUHWND__@@@std@@V?$allocator@U?$pair@QAUHWND__@@UWndMoveData@@@std@@@4@$0A@@std@@SAABQAUHWND__@@ABU?$pair@QAUHWND__@@UWndMoveData@@@2@@Z ; std::_Tmap_traits<HWND__ *,WndMoveData,std::less<HWND__ *>,std::allocator<std::pair<HWND__ * const,WndMoveData> >,0>::_Kfn
  0021f	83 c4 04	 add	 esp, 4
  00222	50		 push	 eax
  00223	8b 4d d8	 mov	 ecx, DWORD PTR _this$[ebp]
  00226	e8 00 00 00 00	 call	 ??R?$less@PAUHWND__@@@std@@QBE_NABQAUHWND__@@0@Z ; std::less<HWND__ *>::operator()
  0022b	0f b6 c8	 movzx	 ecx, al
  0022e	85 c9		 test	 ecx, ecx
  00230	0f 85 c0 00 00
	00		 jne	 $L198921
  00236	8b 55 0c	 mov	 edx, DWORD PTR __Where$[ebp]
  00239	89 55 fc	 mov	 DWORD PTR __Next$[ebp], edx
  0023c	8d 45 f0	 lea	 eax, DWORD PTR $T200053[ebp]
  0023f	50		 push	 eax
  00240	8b 4d d8	 mov	 ecx, DWORD PTR _this$[ebp]
  00243	e8 00 00 00 00	 call	 ?end@?$_Tree@V?$_Tmap_traits@PAUHWND__@@UWndMoveData@@U?$less@PAUHWND__@@@std@@V?$allocator@U?$pair@QAUHWND__@@UWndMoveData@@@std@@@4@$0A@@std@@@std@@QAE?AViterator@12@XZ ; std::_Tree<std::_Tmap_traits<HWND__ *,WndMoveData,std::less<HWND__ *>,std::allocator<std::pair<HWND__ * const,WndMoveData> >,0> >::end
  00248	50		 push	 eax
  00249	8d 4d fc	 lea	 ecx, DWORD PTR __Next$[ebp]
  0024c	e8 00 00 00 00	 call	 ??Eiterator@?$_Tree@V?$_Tmap_traits@PAUHWND__@@UWndMoveData@@U?$less@PAUHWND__@@@std@@V?$allocator@U?$pair@QAUHWND__@@UWndMoveData@@@std@@@4@$0A@@std@@@std@@QAEAAV012@XZ ; std::_Tree<std::_Tmap_traits<HWND__ *,WndMoveData,std::less<HWND__ *>,std::allocator<std::pair<HWND__ * const,WndMoveData> >,0> >::iterator::operator++
  00251	8b c8		 mov	 ecx, eax
  00253	e8 00 00 00 00	 call	 ??8const_iterator@?$_Tree@V?$_Tmap_traits@PAUHWND__@@UWndMoveData@@U?$less@PAUHWND__@@@std@@V?$allocator@U?$pair@QAUHWND__@@UWndMoveData@@@std@@@4@$0A@@std@@@std@@QBE_NABV012@@Z ; std::_Tree<std::_Tmap_traits<HWND__ *,WndMoveData,std::less<HWND__ *>,std::allocator<std::pair<HWND__ * const,WndMoveData> >,0> >::const_iterator::operator==
  00258	0f b6 c8	 movzx	 ecx, al
  0025b	85 c9		 test	 ecx, ecx
  0025d	75 2e		 jne	 SHORT $L198935
  0025f	8b 55 10	 mov	 edx, DWORD PTR __Val$[ebp]
  00262	52		 push	 edx
  00263	e8 00 00 00 00	 call	 ?_Kfn@?$_Tmap_traits@PAUHWND__@@UWndMoveData@@U?$less@PAUHWND__@@@std@@V?$allocator@U?$pair@QAUHWND__@@UWndMoveData@@@std@@@4@$0A@@std@@SAABQAUHWND__@@ABU?$pair@QAUHWND__@@UWndMoveData@@@2@@Z ; std::_Tmap_traits<HWND__ *,WndMoveData,std::less<HWND__ *>,std::allocator<std::pair<HWND__ * const,WndMoveData> >,0>::_Kfn
  00268	83 c4 04	 add	 esp, 4
  0026b	50		 push	 eax
  0026c	8d 4d fc	 lea	 ecx, DWORD PTR __Next$[ebp]
  0026f	e8 00 00 00 00	 call	 ?_Mynode@const_iterator@?$_Tree@V?$_Tmap_traits@PAUHWND__@@UWndMoveData@@U?$less@PAUHWND__@@@std@@V?$allocator@U?$pair@QAUHWND__@@UWndMoveData@@@std@@@4@$0A@@std@@@std@@QBEPAU_Node@?$_Tree_nod@V?$_Tmap_traits@PAUHWND__@@UWndMoveData@@U?$less@PAUHWND__@@@std@@V?$allocator@U?$pair@QAUHWND__@@UWndMoveData@@@std@@@4@$0A@@std@@@3@XZ ; std::_Tree<std::_Tmap_traits<HWND__ *,WndMoveData,std::less<HWND__ *>,std::allocator<std::pair<HWND__ * const,WndMoveData> >,0> >::const_iterator::_Mynode
  00274	50		 push	 eax
  00275	e8 00 00 00 00	 call	 ?_Key@?$_Tree@V?$_Tmap_traits@PAUHWND__@@UWndMoveData@@U?$less@PAUHWND__@@@std@@V?$allocator@U?$pair@QAUHWND__@@UWndMoveData@@@std@@@4@$0A@@std@@@std@@KAABQAUHWND__@@PAU_Node@?$_Tree_nod@V?$_Tmap_traits@PAUHWND__@@UWndMoveData@@U?$less@PAUHWND__@@@std@@V?$allocator@U?$pair@QAUHWND__@@UWndMoveData@@@std@@@4@$0A@@std@@@2@@Z ; std::_Tree<std::_Tmap_traits<HWND__ *,WndMoveData,std::less<HWND__ *>,std::allocator<std::pair<HWND__ * const,WndMoveData> >,0> >::_Key
  0027a	83 c4 04	 add	 esp, 4
  0027d	50		 push	 eax
  0027e	8b 4d d8	 mov	 ecx, DWORD PTR _this$[ebp]
  00281	e8 00 00 00 00	 call	 ??R?$less@PAUHWND__@@@std@@QBE_NABQAUHWND__@@0@Z ; std::less<HWND__ *>::operator()
  00286	0f b6 c0	 movzx	 eax, al
  00289	85 c0		 test	 eax, eax
  0028b	75 69		 jne	 SHORT $L198921
$L198935:

; 539  : 				{	// insert after _Where
; 540  : 				if (_Isnil(_Right(_Where._Mynode())))

  0028d	8d 4d 0c	 lea	 ecx, DWORD PTR __Where$[ebp]
  00290	e8 00 00 00 00	 call	 ?_Mynode@const_iterator@?$_Tree@V?$_Tmap_traits@PAUHWND__@@UWndMoveData@@U?$less@PAUHWND__@@@std@@V?$allocator@U?$pair@QAUHWND__@@UWndMoveData@@@std@@@4@$0A@@std@@@std@@QBEPAU_Node@?$_Tree_nod@V?$_Tmap_traits@PAUHWND__@@UWndMoveData@@U?$less@PAUHWND__@@@std@@V?$allocator@U?$pair@QAUHWND__@@UWndMoveData@@@std@@@4@$0A@@std@@@3@XZ ; std::_Tree<std::_Tmap_traits<HWND__ *,WndMoveData,std::less<HWND__ *>,std::allocator<std::pair<HWND__ * const,WndMoveData> >,0> >::const_iterator::_Mynode
  00295	50		 push	 eax
  00296	e8 00 00 00 00	 call	 ?_Right@?$_Tree@V?$_Tmap_traits@PAUHWND__@@UWndMoveData@@U?$less@PAUHWND__@@@std@@V?$allocator@U?$pair@QAUHWND__@@UWndMoveData@@@std@@@4@$0A@@std@@@std@@KAAAPAU_Node@?$_Tree_nod@V?$_Tmap_traits@PAUHWND__@@UWndMoveData@@U?$less@PAUHWND__@@@std@@V?$allocator@U?$pair@QAUHWND__@@UWndMoveData@@@std@@@4@$0A@@std@@@2@PAU342@@Z ; std::_Tree<std::_Tmap_traits<HWND__ *,WndMoveData,std::less<HWND__ *>,std::allocator<std::pair<HWND__ * const,WndMoveData> >,0> >::_Right
  0029b	83 c4 04	 add	 esp, 4
  0029e	8b 08		 mov	 ecx, DWORD PTR [eax]
  002a0	51		 push	 ecx
  002a1	e8 00 00 00 00	 call	 ?_Isnil@?$_Tree@V?$_Tmap_traits@PAUHWND__@@UWndMoveData@@U?$less@PAUHWND__@@@std@@V?$allocator@U?$pair@QAUHWND__@@UWndMoveData@@@std@@@4@$0A@@std@@@std@@KAAADPAU_Node@?$_Tree_nod@V?$_Tmap_traits@PAUHWND__@@UWndMoveData@@U?$less@PAUHWND__@@@std@@V?$allocator@U?$pair@QAUHWND__@@UWndMoveData@@@std@@@4@$0A@@std@@@2@@Z ; std::_Tree<std::_Tmap_traits<HWND__ *,WndMoveData,std::less<HWND__ *>,std::allocator<std::pair<HWND__ * const,WndMoveData> >,0> >::_Isnil
  002a6	83 c4 04	 add	 esp, 4
  002a9	0f be 10	 movsx	 edx, BYTE PTR [eax]
  002ac	85 d2		 test	 edx, edx
  002ae	74 23		 je	 SHORT $L198936

; 541  : 					return (_Insert(false, _Where._Mynode(), _Val));

  002b0	8b 45 10	 mov	 eax, DWORD PTR __Val$[ebp]
  002b3	50		 push	 eax
  002b4	8d 4d 0c	 lea	 ecx, DWORD PTR __Where$[ebp]
  002b7	e8 00 00 00 00	 call	 ?_Mynode@const_iterator@?$_Tree@V?$_Tmap_traits@PAUHWND__@@UWndMoveData@@U?$less@PAUHWND__@@@std@@V?$allocator@U?$pair@QAUHWND__@@UWndMoveData@@@std@@@4@$0A@@std@@@std@@QBEPAU_Node@?$_Tree_nod@V?$_Tmap_traits@PAUHWND__@@UWndMoveData@@U?$less@PAUHWND__@@@std@@V?$allocator@U?$pair@QAUHWND__@@UWndMoveData@@@std@@@4@$0A@@std@@@3@XZ ; std::_Tree<std::_Tmap_traits<HWND__ *,WndMoveData,std::less<HWND__ *>,std::allocator<std::pair<HWND__ * const,WndMoveData> >,0> >::const_iterator::_Mynode
  002bc	50		 push	 eax
  002bd	6a 00		 push	 0
  002bf	8b 4d 08	 mov	 ecx, DWORD PTR ___$ReturnUdt$[ebp]
  002c2	51		 push	 ecx
  002c3	8b 4d d8	 mov	 ecx, DWORD PTR _this$[ebp]
  002c6	e8 00 00 00 00	 call	 ?_Insert@?$_Tree@V?$_Tmap_traits@PAUHWND__@@UWndMoveData@@U?$less@PAUHWND__@@@std@@V?$allocator@U?$pair@QAUHWND__@@UWndMoveData@@@std@@@4@$0A@@std@@@std@@IAE?AViterator@12@_NPAU_Node@?$_Tree_nod@V?$_Tmap_traits@PAUHWND__@@UWndMoveData@@U?$less@PAUHWND__@@@std@@V?$allocator@U?$pair@QAUHWND__@@UWndMoveData@@@std@@@4@$0A@@std@@@2@ABU?$pair@QAUHWND__@@UWndMoveData@@@2@@Z ; std::_Tree<std::_Tmap_traits<HWND__ *,WndMoveData,std::less<HWND__ *>,std::allocator<std::pair<HWND__ * const,WndMoveData> >,0> >::_Insert
  002cb	8b 45 08	 mov	 eax, DWORD PTR ___$ReturnUdt$[ebp]
  002ce	e9 ec 02 00 00	 jmp	 $L198911
$L198936:

; 542  : 				else
; 543  : 					return (_Insert(true, _Next._Mynode(), _Val));

  002d3	8b 55 10	 mov	 edx, DWORD PTR __Val$[ebp]
  002d6	52		 push	 edx
  002d7	8d 4d fc	 lea	 ecx, DWORD PTR __Next$[ebp]
  002da	e8 00 00 00 00	 call	 ?_Mynode@const_iterator@?$_Tree@V?$_Tmap_traits@PAUHWND__@@UWndMoveData@@U?$less@PAUHWND__@@@std@@V?$allocator@U?$pair@QAUHWND__@@UWndMoveData@@@std@@@4@$0A@@std@@@std@@QBEPAU_Node@?$_Tree_nod@V?$_Tmap_traits@PAUHWND__@@UWndMoveData@@U?$less@PAUHWND__@@@std@@V?$allocator@U?$pair@QAUHWND__@@UWndMoveData@@@std@@@4@$0A@@std@@@3@XZ ; std::_Tree<std::_Tmap_traits<HWND__ *,WndMoveData,std::less<HWND__ *>,std::allocator<std::pair<HWND__ * const,WndMoveData> >,0> >::const_iterator::_Mynode
  002df	50		 push	 eax
  002e0	6a 01		 push	 1
  002e2	8b 45 08	 mov	 eax, DWORD PTR ___$ReturnUdt$[ebp]
  002e5	50		 push	 eax
  002e6	8b 4d d8	 mov	 ecx, DWORD PTR _this$[ebp]
  002e9	e8 00 00 00 00	 call	 ?_Insert@?$_Tree@V?$_Tmap_traits@PAUHWND__@@UWndMoveData@@U?$less@PAUHWND__@@@std@@V?$allocator@U?$pair@QAUHWND__@@UWndMoveData@@@std@@@4@$0A@@std@@@std@@IAE?AViterator@12@_NPAU_Node@?$_Tree_nod@V?$_Tmap_traits@PAUHWND__@@UWndMoveData@@U?$less@PAUHWND__@@@std@@V?$allocator@U?$pair@QAUHWND__@@UWndMoveData@@@std@@@4@$0A@@std@@@2@ABU?$pair@QAUHWND__@@UWndMoveData@@@2@@Z ; std::_Tree<std::_Tmap_traits<HWND__ *,WndMoveData,std::less<HWND__ *>,std::allocator<std::pair<HWND__ * const,WndMoveData> >,0> >::_Insert
  002ee	8b 45 08	 mov	 eax, DWORD PTR ___$ReturnUdt$[ebp]
  002f1	e9 c9 02 00 00	 jmp	 $L198911
$L198921:

; 544  : 				}
; 545  : 			}
; 546  : 		else

  002f6	e9 aa 02 00 00	 jmp	 $L198915
$L198916:

; 547  : 			{	// insert only if unique
; 548  : 			if (_Where == begin())

  002fb	8d 4d ec	 lea	 ecx, DWORD PTR $T200054[ebp]
  002fe	51		 push	 ecx
  002ff	8b 4d d8	 mov	 ecx, DWORD PTR _this$[ebp]
  00302	e8 00 00 00 00	 call	 ?begin@?$_Tree@V?$_Tmap_traits@PAUHWND__@@UWndMoveData@@U?$less@PAUHWND__@@@std@@V?$allocator@U?$pair@QAUHWND__@@UWndMoveData@@@std@@@4@$0A@@std@@@std@@QAE?AViterator@12@XZ ; std::_Tree<std::_Tmap_traits<HWND__ *,WndMoveData,std::less<HWND__ *>,std::allocator<std::pair<HWND__ * const,WndMoveData> >,0> >::begin
  00307	50		 push	 eax
  00308	8d 4d 0c	 lea	 ecx, DWORD PTR __Where$[ebp]
  0030b	e8 00 00 00 00	 call	 ??8const_iterator@?$_Tree@V?$_Tmap_traits@PAUHWND__@@UWndMoveData@@U?$less@PAUHWND__@@@std@@V?$allocator@U?$pair@QAUHWND__@@UWndMoveData@@@std@@@4@$0A@@std@@@std@@QBE_NABV012@@Z ; std::_Tree<std::_Tmap_traits<HWND__ *,WndMoveData,std::less<HWND__ *>,std::allocator<std::pair<HWND__ * const,WndMoveData> >,0> >::const_iterator::operator==
  00310	0f b6 d0	 movzx	 edx, al
  00313	85 d2		 test	 edx, edx
  00315	74 56		 je	 SHORT $L198942

; 549  : 				{	// insert at beginning if before first element
; 550  : 				if (this->comp(this->_Kfn(_Val), _Key(_Where._Mynode())))

  00317	8d 4d 0c	 lea	 ecx, DWORD PTR __Where$[ebp]
  0031a	e8 00 00 00 00	 call	 ?_Mynode@const_iterator@?$_Tree@V?$_Tmap_traits@PAUHWND__@@UWndMoveData@@U?$less@PAUHWND__@@@std@@V?$allocator@U?$pair@QAUHWND__@@UWndMoveData@@@std@@@4@$0A@@std@@@std@@QBEPAU_Node@?$_Tree_nod@V?$_Tmap_traits@PAUHWND__@@UWndMoveData@@U?$less@PAUHWND__@@@std@@V?$allocator@U?$pair@QAUHWND__@@UWndMoveData@@@std@@@4@$0A@@std@@@3@XZ ; std::_Tree<std::_Tmap_traits<HWND__ *,WndMoveData,std::less<HWND__ *>,std::allocator<std::pair<HWND__ * const,WndMoveData> >,0> >::const_iterator::_Mynode
  0031f	50		 push	 eax
  00320	e8 00 00 00 00	 call	 ?_Key@?$_Tree@V?$_Tmap_traits@PAUHWND__@@UWndMoveData@@U?$less@PAUHWND__@@@std@@V?$allocator@U?$pair@QAUHWND__@@UWndMoveData@@@std@@@4@$0A@@std@@@std@@KAABQAUHWND__@@PAU_Node@?$_Tree_nod@V?$_Tmap_traits@PAUHWND__@@UWndMoveData@@U?$less@PAUHWND__@@@std@@V?$allocator@U?$pair@QAUHWND__@@UWndMoveData@@@std@@@4@$0A@@std@@@2@@Z ; std::_Tree<std::_Tmap_traits<HWND__ *,WndMoveData,std::less<HWND__ *>,std::allocator<std::pair<HWND__ * const,WndMoveData> >,0> >::_Key
  00325	83 c4 04	 add	 esp, 4
  00328	50		 push	 eax
  00329	8b 45 10	 mov	 eax, DWORD PTR __Val$[ebp]
  0032c	50		 push	 eax
  0032d	e8 00 00 00 00	 call	 ?_Kfn@?$_Tmap_traits@PAUHWND__@@UWndMoveData@@U?$less@PAUHWND__@@@std@@V?$allocator@U?$pair@QAUHWND__@@UWndMoveData@@@std@@@4@$0A@@std@@SAABQAUHWND__@@ABU?$pair@QAUHWND__@@UWndMoveData@@@2@@Z ; std::_Tmap_traits<HWND__ *,WndMoveData,std::less<HWND__ *>,std::allocator<std::pair<HWND__ * const,WndMoveData> >,0>::_Kfn
  00332	83 c4 04	 add	 esp, 4
  00335	50		 push	 eax
  00336	8b 4d d8	 mov	 ecx, DWORD PTR _this$[ebp]
  00339	e8 00 00 00 00	 call	 ??R?$less@PAUHWND__@@@std@@QBE_NABQAUHWND__@@0@Z ; std::less<HWND__ *>::operator()
  0033e	0f b6 c8	 movzx	 ecx, al
  00341	85 c9		 test	 ecx, ecx
  00343	74 23		 je	 SHORT $L198943

; 551  : 					return (_Insert(true, _Where._Mynode(), _Val));

  00345	8b 55 10	 mov	 edx, DWORD PTR __Val$[ebp]
  00348	52		 push	 edx
  00349	8d 4d 0c	 lea	 ecx, DWORD PTR __Where$[ebp]
  0034c	e8 00 00 00 00	 call	 ?_Mynode@const_iterator@?$_Tree@V?$_Tmap_traits@PAUHWND__@@UWndMoveData@@U?$less@PAUHWND__@@@std@@V?$allocator@U?$pair@QAUHWND__@@UWndMoveData@@@std@@@4@$0A@@std@@@std@@QBEPAU_Node@?$_Tree_nod@V?$_Tmap_traits@PAUHWND__@@UWndMoveData@@U?$less@PAUHWND__@@@std@@V?$allocator@U?$pair@QAUHWND__@@UWndMoveData@@@std@@@4@$0A@@std@@@3@XZ ; std::_Tree<std::_Tmap_traits<HWND__ *,WndMoveData,std::less<HWND__ *>,std::allocator<std::pair<HWND__ * const,WndMoveData> >,0> >::const_iterator::_Mynode
  00351	50		 push	 eax
  00352	6a 01		 push	 1
  00354	8b 45 08	 mov	 eax, DWORD PTR ___$ReturnUdt$[ebp]
  00357	50		 push	 eax
  00358	8b 4d d8	 mov	 ecx, DWORD PTR _this$[ebp]
  0035b	e8 00 00 00 00	 call	 ?_Insert@?$_Tree@V?$_Tmap_traits@PAUHWND__@@UWndMoveData@@U?$less@PAUHWND__@@@std@@V?$allocator@U?$pair@QAUHWND__@@UWndMoveData@@@std@@@4@$0A@@std@@@std@@IAE?AViterator@12@_NPAU_Node@?$_Tree_nod@V?$_Tmap_traits@PAUHWND__@@UWndMoveData@@U?$less@PAUHWND__@@@std@@V?$allocator@U?$pair@QAUHWND__@@UWndMoveData@@@std@@@4@$0A@@std@@@2@ABU?$pair@QAUHWND__@@UWndMoveData@@@2@@Z ; std::_Tree<std::_Tmap_traits<HWND__ *,WndMoveData,std::less<HWND__ *>,std::allocator<std::pair<HWND__ * const,WndMoveData> >,0> >::_Insert
  00360	8b 45 08	 mov	 eax, DWORD PTR ___$ReturnUdt$[ebp]
  00363	e9 57 02 00 00	 jmp	 $L198911
$L198943:

; 552  : 				}
; 553  : 			else if (_Where == end())

  00368	e9 38 02 00 00	 jmp	 $L198915
$L198942:
  0036d	8d 4d e8	 lea	 ecx, DWORD PTR $T200055[ebp]
  00370	51		 push	 ecx
  00371	8b 4d d8	 mov	 ecx, DWORD PTR _this$[ebp]
  00374	e8 00 00 00 00	 call	 ?end@?$_Tree@V?$_Tmap_traits@PAUHWND__@@UWndMoveData@@U?$less@PAUHWND__@@@std@@V?$allocator@U?$pair@QAUHWND__@@UWndMoveData@@@std@@@4@$0A@@std@@@std@@QAE?AViterator@12@XZ ; std::_Tree<std::_Tmap_traits<HWND__ *,WndMoveData,std::less<HWND__ *>,std::allocator<std::pair<HWND__ * const,WndMoveData> >,0> >::end
  00379	50		 push	 eax
  0037a	8d 4d 0c	 lea	 ecx, DWORD PTR __Where$[ebp]
  0037d	e8 00 00 00 00	 call	 ??8const_iterator@?$_Tree@V?$_Tmap_traits@PAUHWND__@@UWndMoveData@@U?$less@PAUHWND__@@@std@@V?$allocator@U?$pair@QAUHWND__@@UWndMoveData@@@std@@@4@$0A@@std@@@std@@QBE_NABV012@@Z ; std::_Tree<std::_Tmap_traits<HWND__ *,WndMoveData,std::less<HWND__ *>,std::allocator<std::pair<HWND__ * const,WndMoveData> >,0> >::const_iterator::operator==
  00382	0f b6 d0	 movzx	 edx, al
  00385	85 d2		 test	 edx, edx
  00387	74 5a		 je	 SHORT $L198947

; 554  : 				{	// insert at end if after last element
; 555  : 				if (this->comp(_Key(_Rmost()), this->_Kfn(_Val)))

  00389	8b 45 10	 mov	 eax, DWORD PTR __Val$[ebp]
  0038c	50		 push	 eax
  0038d	e8 00 00 00 00	 call	 ?_Kfn@?$_Tmap_traits@PAUHWND__@@UWndMoveData@@U?$less@PAUHWND__@@@std@@V?$allocator@U?$pair@QAUHWND__@@UWndMoveData@@@std@@@4@$0A@@std@@SAABQAUHWND__@@ABU?$pair@QAUHWND__@@UWndMoveData@@@2@@Z ; std::_Tmap_traits<HWND__ *,WndMoveData,std::less<HWND__ *>,std::allocator<std::pair<HWND__ * const,WndMoveData> >,0>::_Kfn
  00392	83 c4 04	 add	 esp, 4
  00395	50		 push	 eax
  00396	8b 4d d8	 mov	 ecx, DWORD PTR _this$[ebp]
  00399	e8 00 00 00 00	 call	 ?_Rmost@?$_Tree@V?$_Tmap_traits@PAUHWND__@@UWndMoveData@@U?$less@PAUHWND__@@@std@@V?$allocator@U?$pair@QAUHWND__@@UWndMoveData@@@std@@@4@$0A@@std@@@std@@IAEAAPAU_Node@?$_Tree_nod@V?$_Tmap_traits@PAUHWND__@@UWndMoveData@@U?$less@PAUHWND__@@@std@@V?$allocator@U?$pair@QAUHWND__@@UWndMoveData@@@std@@@4@$0A@@std@@@2@XZ ; std::_Tree<std::_Tmap_traits<HWND__ *,WndMoveData,std::less<HWND__ *>,std::allocator<std::pair<HWND__ * const,WndMoveData> >,0> >::_Rmost
  0039e	8b 08		 mov	 ecx, DWORD PTR [eax]
  003a0	51		 push	 ecx
  003a1	e8 00 00 00 00	 call	 ?_Key@?$_Tree@V?$_Tmap_traits@PAUHWND__@@UWndMoveData@@U?$less@PAUHWND__@@@std@@V?$allocator@U?$pair@QAUHWND__@@UWndMoveData@@@std@@@4@$0A@@std@@@std@@KAABQAUHWND__@@PAU_Node@?$_Tree_nod@V?$_Tmap_traits@PAUHWND__@@UWndMoveData@@U?$less@PAUHWND__@@@std@@V?$allocator@U?$pair@QAUHWND__@@UWndMoveData@@@std@@@4@$0A@@std@@@2@@Z ; std::_Tree<std::_Tmap_traits<HWND__ *,WndMoveData,std::less<HWND__ *>,std::allocator<std::pair<HWND__ * const,WndMoveData> >,0> >::_Key
  003a6	83 c4 04	 add	 esp, 4
  003a9	50		 push	 eax
  003aa	8b 4d d8	 mov	 ecx, DWORD PTR _this$[ebp]
  003ad	e8 00 00 00 00	 call	 ??R?$less@PAUHWND__@@@std@@QBE_NABQAUHWND__@@0@Z ; std::less<HWND__ *>::operator()
  003b2	0f b6 d0	 movzx	 edx, al
  003b5	85 d2		 test	 edx, edx
  003b7	74 25		 je	 SHORT $L198948

; 556  : 					return (_Insert(false, _Rmost(), _Val));

  003b9	8b 45 10	 mov	 eax, DWORD PTR __Val$[ebp]
  003bc	50		 push	 eax
  003bd	8b 4d d8	 mov	 ecx, DWORD PTR _this$[ebp]
  003c0	e8 00 00 00 00	 call	 ?_Rmost@?$_Tree@V?$_Tmap_traits@PAUHWND__@@UWndMoveData@@U?$less@PAUHWND__@@@std@@V?$allocator@U?$pair@QAUHWND__@@UWndMoveData@@@std@@@4@$0A@@std@@@std@@IAEAAPAU_Node@?$_Tree_nod@V?$_Tmap_traits@PAUHWND__@@UWndMoveData@@U?$less@PAUHWND__@@@std@@V?$allocator@U?$pair@QAUHWND__@@UWndMoveData@@@std@@@4@$0A@@std@@@2@XZ ; std::_Tree<std::_Tmap_traits<HWND__ *,WndMoveData,std::less<HWND__ *>,std::allocator<std::pair<HWND__ * const,WndMoveData> >,0> >::_Rmost
  003c5	8b 08		 mov	 ecx, DWORD PTR [eax]
  003c7	51		 push	 ecx
  003c8	6a 00		 push	 0
  003ca	8b 55 08	 mov	 edx, DWORD PTR ___$ReturnUdt$[ebp]
  003cd	52		 push	 edx
  003ce	8b 4d d8	 mov	 ecx, DWORD PTR _this$[ebp]
  003d1	e8 00 00 00 00	 call	 ?_Insert@?$_Tree@V?$_Tmap_traits@PAUHWND__@@UWndMoveData@@U?$less@PAUHWND__@@@std@@V?$allocator@U?$pair@QAUHWND__@@UWndMoveData@@@std@@@4@$0A@@std@@@std@@IAE?AViterator@12@_NPAU_Node@?$_Tree_nod@V?$_Tmap_traits@PAUHWND__@@UWndMoveData@@U?$less@PAUHWND__@@@std@@V?$allocator@U?$pair@QAUHWND__@@UWndMoveData@@@std@@@4@$0A@@std@@@2@ABU?$pair@QAUHWND__@@UWndMoveData@@@2@@Z ; std::_Tree<std::_Tmap_traits<HWND__ *,WndMoveData,std::less<HWND__ *>,std::allocator<std::pair<HWND__ * const,WndMoveData> >,0> >::_Insert
  003d6	8b 45 08	 mov	 eax, DWORD PTR ___$ReturnUdt$[ebp]
  003d9	e9 e1 01 00 00	 jmp	 $L198911
$L198948:

; 557  : 				}
; 558  : 			else if (this->comp(this->_Kfn(_Val), _Key(_Where._Mynode()))

  003de	e9 c2 01 00 00	 jmp	 $L198915
$L198947:

; 559  : 				&& this->comp(_Key((--(_Next = _Where))._Mynode()),
; 560  : 					this->_Kfn(_Val)))

  003e3	8d 4d 0c	 lea	 ecx, DWORD PTR __Where$[ebp]
  003e6	e8 00 00 00 00	 call	 ?_Mynode@const_iterator@?$_Tree@V?$_Tmap_traits@PAUHWND__@@UWndMoveData@@U?$less@PAUHWND__@@@std@@V?$allocator@U?$pair@QAUHWND__@@UWndMoveData@@@std@@@4@$0A@@std@@@std@@QBEPAU_Node@?$_Tree_nod@V?$_Tmap_traits@PAUHWND__@@UWndMoveData@@U?$less@PAUHWND__@@@std@@V?$allocator@U?$pair@QAUHWND__@@UWndMoveData@@@std@@@4@$0A@@std@@@3@XZ ; std::_Tree<std::_Tmap_traits<HWND__ *,WndMoveData,std::less<HWND__ *>,std::allocator<std::pair<HWND__ * const,WndMoveData> >,0> >::const_iterator::_Mynode
  003eb	50		 push	 eax
  003ec	e8 00 00 00 00	 call	 ?_Key@?$_Tree@V?$_Tmap_traits@PAUHWND__@@UWndMoveData@@U?$less@PAUHWND__@@@std@@V?$allocator@U?$pair@QAUHWND__@@UWndMoveData@@@std@@@4@$0A@@std@@@std@@KAABQAUHWND__@@PAU_Node@?$_Tree_nod@V?$_Tmap_traits@PAUHWND__@@UWndMoveData@@U?$less@PAUHWND__@@@std@@V?$allocator@U?$pair@QAUHWND__@@UWndMoveData@@@std@@@4@$0A@@std@@@2@@Z ; std::_Tree<std::_Tmap_traits<HWND__ *,WndMoveData,std::less<HWND__ *>,std::allocator<std::pair<HWND__ * const,WndMoveData> >,0> >::_Key
  003f1	83 c4 04	 add	 esp, 4
  003f4	50		 push	 eax
  003f5	8b 45 10	 mov	 eax, DWORD PTR __Val$[ebp]
  003f8	50		 push	 eax
  003f9	e8 00 00 00 00	 call	 ?_Kfn@?$_Tmap_traits@PAUHWND__@@UWndMoveData@@U?$less@PAUHWND__@@@std@@V?$allocator@U?$pair@QAUHWND__@@UWndMoveData@@@std@@@4@$0A@@std@@SAABQAUHWND__@@ABU?$pair@QAUHWND__@@UWndMoveData@@@2@@Z ; std::_Tmap_traits<HWND__ *,WndMoveData,std::less<HWND__ *>,std::allocator<std::pair<HWND__ * const,WndMoveData> >,0>::_Kfn
  003fe	83 c4 04	 add	 esp, 4
  00401	50		 push	 eax
  00402	8b 4d d8	 mov	 ecx, DWORD PTR _this$[ebp]
  00405	e8 00 00 00 00	 call	 ??R?$less@PAUHWND__@@@std@@QBE_NABQAUHWND__@@0@Z ; std::less<HWND__ *>::operator()
  0040a	0f b6 c8	 movzx	 ecx, al
  0040d	85 c9		 test	 ecx, ecx
  0040f	0f 84 a4 00 00
	00		 je	 $L198951
  00415	8b 55 0c	 mov	 edx, DWORD PTR __Where$[ebp]
  00418	89 55 fc	 mov	 DWORD PTR __Next$[ebp], edx
  0041b	8b 45 10	 mov	 eax, DWORD PTR __Val$[ebp]
  0041e	50		 push	 eax
  0041f	e8 00 00 00 00	 call	 ?_Kfn@?$_Tmap_traits@PAUHWND__@@UWndMoveData@@U?$less@PAUHWND__@@@std@@V?$allocator@U?$pair@QAUHWND__@@UWndMoveData@@@std@@@4@$0A@@std@@SAABQAUHWND__@@ABU?$pair@QAUHWND__@@UWndMoveData@@@2@@Z ; std::_Tmap_traits<HWND__ *,WndMoveData,std::less<HWND__ *>,std::allocator<std::pair<HWND__ * const,WndMoveData> >,0>::_Kfn
  00424	83 c4 04	 add	 esp, 4
  00427	50		 push	 eax
  00428	8d 4d fc	 lea	 ecx, DWORD PTR __Next$[ebp]
  0042b	e8 00 00 00 00	 call	 ??Fiterator@?$_Tree@V?$_Tmap_traits@PAUHWND__@@UWndMoveData@@U?$less@PAUHWND__@@@std@@V?$allocator@U?$pair@QAUHWND__@@UWndMoveData@@@std@@@4@$0A@@std@@@std@@QAEAAV012@XZ ; std::_Tree<std::_Tmap_traits<HWND__ *,WndMoveData,std::less<HWND__ *>,std::allocator<std::pair<HWND__ * const,WndMoveData> >,0> >::iterator::operator--
  00430	8b c8		 mov	 ecx, eax
  00432	e8 00 00 00 00	 call	 ?_Mynode@const_iterator@?$_Tree@V?$_Tmap_traits@PAUHWND__@@UWndMoveData@@U?$less@PAUHWND__@@@std@@V?$allocator@U?$pair@QAUHWND__@@UWndMoveData@@@std@@@4@$0A@@std@@@std@@QBEPAU_Node@?$_Tree_nod@V?$_Tmap_traits@PAUHWND__@@UWndMoveData@@U?$less@PAUHWND__@@@std@@V?$allocator@U?$pair@QAUHWND__@@UWndMoveData@@@std@@@4@$0A@@std@@@3@XZ ; std::_Tree<std::_Tmap_traits<HWND__ *,WndMoveData,std::less<HWND__ *>,std::allocator<std::pair<HWND__ * const,WndMoveData> >,0> >::const_iterator::_Mynode
  00437	50		 push	 eax
  00438	e8 00 00 00 00	 call	 ?_Key@?$_Tree@V?$_Tmap_traits@PAUHWND__@@UWndMoveData@@U?$less@PAUHWND__@@@std@@V?$allocator@U?$pair@QAUHWND__@@UWndMoveData@@@std@@@4@$0A@@std@@@std@@KAABQAUHWND__@@PAU_Node@?$_Tree_nod@V?$_Tmap_traits@PAUHWND__@@UWndMoveData@@U?$less@PAUHWND__@@@std@@V?$allocator@U?$pair@QAUHWND__@@UWndMoveData@@@std@@@4@$0A@@std@@@2@@Z ; std::_Tree<std::_Tmap_traits<HWND__ *,WndMoveData,std::less<HWND__ *>,std::allocator<std::pair<HWND__ * const,WndMoveData> >,0> >::_Key
  0043d	83 c4 04	 add	 esp, 4
  00440	50		 push	 eax
  00441	8b 4d d8	 mov	 ecx, DWORD PTR _this$[ebp]
  00444	e8 00 00 00 00	 call	 ??R?$less@PAUHWND__@@@std@@QBE_NABQAUHWND__@@0@Z ; std::less<HWND__ *>::operator()
  00449	0f b6 c8	 movzx	 ecx, al
  0044c	85 c9		 test	 ecx, ecx
  0044e	74 69		 je	 SHORT $L198951

; 561  : 				{	// insert before _Where
; 562  : 				if (_Isnil(_Right(_Next._Mynode())))

  00450	8d 4d fc	 lea	 ecx, DWORD PTR __Next$[ebp]
  00453	e8 00 00 00 00	 call	 ?_Mynode@const_iterator@?$_Tree@V?$_Tmap_traits@PAUHWND__@@UWndMoveData@@U?$less@PAUHWND__@@@std@@V?$allocator@U?$pair@QAUHWND__@@UWndMoveData@@@std@@@4@$0A@@std@@@std@@QBEPAU_Node@?$_Tree_nod@V?$_Tmap_traits@PAUHWND__@@UWndMoveData@@U?$less@PAUHWND__@@@std@@V?$allocator@U?$pair@QAUHWND__@@UWndMoveData@@@std@@@4@$0A@@std@@@3@XZ ; std::_Tree<std::_Tmap_traits<HWND__ *,WndMoveData,std::less<HWND__ *>,std::allocator<std::pair<HWND__ * const,WndMoveData> >,0> >::const_iterator::_Mynode
  00458	50		 push	 eax
  00459	e8 00 00 00 00	 call	 ?_Right@?$_Tree@V?$_Tmap_traits@PAUHWND__@@UWndMoveData@@U?$less@PAUHWND__@@@std@@V?$allocator@U?$pair@QAUHWND__@@UWndMoveData@@@std@@@4@$0A@@std@@@std@@KAAAPAU_Node@?$_Tree_nod@V?$_Tmap_traits@PAUHWND__@@UWndMoveData@@U?$less@PAUHWND__@@@std@@V?$allocator@U?$pair@QAUHWND__@@UWndMoveData@@@std@@@4@$0A@@std@@@2@PAU342@@Z ; std::_Tree<std::_Tmap_traits<HWND__ *,WndMoveData,std::less<HWND__ *>,std::allocator<std::pair<HWND__ * const,WndMoveData> >,0> >::_Right
  0045e	83 c4 04	 add	 esp, 4
  00461	8b 10		 mov	 edx, DWORD PTR [eax]
  00463	52		 push	 edx
  00464	e8 00 00 00 00	 call	 ?_Isnil@?$_Tree@V?$_Tmap_traits@PAUHWND__@@UWndMoveData@@U?$less@PAUHWND__@@@std@@V?$allocator@U?$pair@QAUHWND__@@UWndMoveData@@@std@@@4@$0A@@std@@@std@@KAAADPAU_Node@?$_Tree_nod@V?$_Tmap_traits@PAUHWND__@@UWndMoveData@@U?$less@PAUHWND__@@@std@@V?$allocator@U?$pair@QAUHWND__@@UWndMoveData@@@std@@@4@$0A@@std@@@2@@Z ; std::_Tree<std::_Tmap_traits<HWND__ *,WndMoveData,std::less<HWND__ *>,std::allocator<std::pair<HWND__ * const,WndMoveData> >,0> >::_Isnil
  00469	83 c4 04	 add	 esp, 4
  0046c	0f be 00	 movsx	 eax, BYTE PTR [eax]
  0046f	85 c0		 test	 eax, eax
  00471	74 23		 je	 SHORT $L198952

; 563  : 					return (_Insert(false, _Next._Mynode(), _Val));

  00473	8b 4d 10	 mov	 ecx, DWORD PTR __Val$[ebp]
  00476	51		 push	 ecx
  00477	8d 4d fc	 lea	 ecx, DWORD PTR __Next$[ebp]
  0047a	e8 00 00 00 00	 call	 ?_Mynode@const_iterator@?$_Tree@V?$_Tmap_traits@PAUHWND__@@UWndMoveData@@U?$less@PAUHWND__@@@std@@V?$allocator@U?$pair@QAUHWND__@@UWndMoveData@@@std@@@4@$0A@@std@@@std@@QBEPAU_Node@?$_Tree_nod@V?$_Tmap_traits@PAUHWND__@@UWndMoveData@@U?$less@PAUHWND__@@@std@@V?$allocator@U?$pair@QAUHWND__@@UWndMoveData@@@std@@@4@$0A@@std@@@3@XZ ; std::_Tree<std::_Tmap_traits<HWND__ *,WndMoveData,std::less<HWND__ *>,std::allocator<std::pair<HWND__ * const,WndMoveData> >,0> >::const_iterator::_Mynode
  0047f	50		 push	 eax
  00480	6a 00		 push	 0
  00482	8b 55 08	 mov	 edx, DWORD PTR ___$ReturnUdt$[ebp]
  00485	52		 push	 edx
  00486	8b 4d d8	 mov	 ecx, DWORD PTR _this$[ebp]
  00489	e8 00 00 00 00	 call	 ?_Insert@?$_Tree@V?$_Tmap_traits@PAUHWND__@@UWndMoveData@@U?$less@PAUHWND__@@@std@@V?$allocator@U?$pair@QAUHWND__@@UWndMoveData@@@std@@@4@$0A@@std@@@std@@IAE?AViterator@12@_NPAU_Node@?$_Tree_nod@V?$_Tmap_traits@PAUHWND__@@UWndMoveData@@U?$less@PAUHWND__@@@std@@V?$allocator@U?$pair@QAUHWND__@@UWndMoveData@@@std@@@4@$0A@@std@@@2@ABU?$pair@QAUHWND__@@UWndMoveData@@@2@@Z ; std::_Tree<std::_Tmap_traits<HWND__ *,WndMoveData,std::less<HWND__ *>,std::allocator<std::pair<HWND__ * const,WndMoveData> >,0> >::_Insert
  0048e	8b 45 08	 mov	 eax, DWORD PTR ___$ReturnUdt$[ebp]
  00491	e9 29 01 00 00	 jmp	 $L198911
$L198952:

; 564  : 				else
; 565  : 					return (_Insert(true, _Where._Mynode(), _Val));

  00496	8b 45 10	 mov	 eax, DWORD PTR __Val$[ebp]
  00499	50		 push	 eax
  0049a	8d 4d 0c	 lea	 ecx, DWORD PTR __Where$[ebp]
  0049d	e8 00 00 00 00	 call	 ?_Mynode@const_iterator@?$_Tree@V?$_Tmap_traits@PAUHWND__@@UWndMoveData@@U?$less@PAUHWND__@@@std@@V?$allocator@U?$pair@QAUHWND__@@UWndMoveData@@@std@@@4@$0A@@std@@@std@@QBEPAU_Node@?$_Tree_nod@V?$_Tmap_traits@PAUHWND__@@UWndMoveData@@U?$less@PAUHWND__@@@std@@V?$allocator@U?$pair@QAUHWND__@@UWndMoveData@@@std@@@4@$0A@@std@@@3@XZ ; std::_Tree<std::_Tmap_traits<HWND__ *,WndMoveData,std::less<HWND__ *>,std::allocator<std::pair<HWND__ * const,WndMoveData> >,0> >::const_iterator::_Mynode
  004a2	50		 push	 eax
  004a3	6a 01		 push	 1
  004a5	8b 4d 08	 mov	 ecx, DWORD PTR ___$ReturnUdt$[ebp]
  004a8	51		 push	 ecx
  004a9	8b 4d d8	 mov	 ecx, DWORD PTR _this$[ebp]
  004ac	e8 00 00 00 00	 call	 ?_Insert@?$_Tree@V?$_Tmap_traits@PAUHWND__@@UWndMoveData@@U?$less@PAUHWND__@@@std@@V?$allocator@U?$pair@QAUHWND__@@UWndMoveData@@@std@@@4@$0A@@std@@@std@@IAE?AViterator@12@_NPAU_Node@?$_Tree_nod@V?$_Tmap_traits@PAUHWND__@@UWndMoveData@@U?$less@PAUHWND__@@@std@@V?$allocator@U?$pair@QAUHWND__@@UWndMoveData@@@std@@@4@$0A@@std@@@2@ABU?$pair@QAUHWND__@@UWndMoveData@@@2@@Z ; std::_Tree<std::_Tmap_traits<HWND__ *,WndMoveData,std::less<HWND__ *>,std::allocator<std::pair<HWND__ * const,WndMoveData> >,0> >::_Insert
  004b1	8b 45 08	 mov	 eax, DWORD PTR ___$ReturnUdt$[ebp]
  004b4	e9 06 01 00 00	 jmp	 $L198911
$L198951:

; 566  : 				}
; 567  : 			else if (this->comp(_Key(_Where._Mynode()), this->_Kfn(_Val))
; 568  : 				&& (++(_Next = _Where) == end()
; 569  : 					|| this->comp(this->_Kfn(_Val),
; 570  : 						_Key(_Next._Mynode()))))

  004b9	8b 55 10	 mov	 edx, DWORD PTR __Val$[ebp]
  004bc	52		 push	 edx
  004bd	e8 00 00 00 00	 call	 ?_Kfn@?$_Tmap_traits@PAUHWND__@@UWndMoveData@@U?$less@PAUHWND__@@@std@@V?$allocator@U?$pair@QAUHWND__@@UWndMoveData@@@std@@@4@$0A@@std@@SAABQAUHWND__@@ABU?$pair@QAUHWND__@@UWndMoveData@@@2@@Z ; std::_Tmap_traits<HWND__ *,WndMoveData,std::less<HWND__ *>,std::allocator<std::pair<HWND__ * const,WndMoveData> >,0>::_Kfn
  004c2	83 c4 04	 add	 esp, 4
  004c5	50		 push	 eax
  004c6	8d 4d 0c	 lea	 ecx, DWORD PTR __Where$[ebp]
  004c9	e8 00 00 00 00	 call	 ?_Mynode@const_iterator@?$_Tree@V?$_Tmap_traits@PAUHWND__@@UWndMoveData@@U?$less@PAUHWND__@@@std@@V?$allocator@U?$pair@QAUHWND__@@UWndMoveData@@@std@@@4@$0A@@std@@@std@@QBEPAU_Node@?$_Tree_nod@V?$_Tmap_traits@PAUHWND__@@UWndMoveData@@U?$less@PAUHWND__@@@std@@V?$allocator@U?$pair@QAUHWND__@@UWndMoveData@@@std@@@4@$0A@@std@@@3@XZ ; std::_Tree<std::_Tmap_traits<HWND__ *,WndMoveData,std::less<HWND__ *>,std::allocator<std::pair<HWND__ * const,WndMoveData> >,0> >::const_iterator::_Mynode
  004ce	50		 push	 eax
  004cf	e8 00 00 00 00	 call	 ?_Key@?$_Tree@V?$_Tmap_traits@PAUHWND__@@UWndMoveData@@U?$less@PAUHWND__@@@std@@V?$allocator@U?$pair@QAUHWND__@@UWndMoveData@@@std@@@4@$0A@@std@@@std@@KAABQAUHWND__@@PAU_Node@?$_Tree_nod@V?$_Tmap_traits@PAUHWND__@@UWndMoveData@@U?$less@PAUHWND__@@@std@@V?$allocator@U?$pair@QAUHWND__@@UWndMoveData@@@std@@@4@$0A@@std@@@2@@Z ; std::_Tree<std::_Tmap_traits<HWND__ *,WndMoveData,std::less<HWND__ *>,std::allocator<std::pair<HWND__ * const,WndMoveData> >,0> >::_Key
  004d4	83 c4 04	 add	 esp, 4
  004d7	50		 push	 eax
  004d8	8b 4d d8	 mov	 ecx, DWORD PTR _this$[ebp]
  004db	e8 00 00 00 00	 call	 ??R?$less@PAUHWND__@@@std@@QBE_NABQAUHWND__@@0@Z ; std::less<HWND__ *>::operator()
  004e0	0f b6 c0	 movzx	 eax, al
  004e3	85 c0		 test	 eax, eax
  004e5	0f 84 ba 00 00
	00		 je	 $L198915
  004eb	8b 4d 0c	 mov	 ecx, DWORD PTR __Where$[ebp]
  004ee	89 4d fc	 mov	 DWORD PTR __Next$[ebp], ecx
  004f1	8d 55 e4	 lea	 edx, DWORD PTR $T200056[ebp]
  004f4	52		 push	 edx
  004f5	8b 4d d8	 mov	 ecx, DWORD PTR _this$[ebp]
  004f8	e8 00 00 00 00	 call	 ?end@?$_Tree@V?$_Tmap_traits@PAUHWND__@@UWndMoveData@@U?$less@PAUHWND__@@@std@@V?$allocator@U?$pair@QAUHWND__@@UWndMoveData@@@std@@@4@$0A@@std@@@std@@QAE?AViterator@12@XZ ; std::_Tree<std::_Tmap_traits<HWND__ *,WndMoveData,std::less<HWND__ *>,std::allocator<std::pair<HWND__ * const,WndMoveData> >,0> >::end
  004fd	50		 push	 eax
  004fe	8d 4d fc	 lea	 ecx, DWORD PTR __Next$[ebp]
  00501	e8 00 00 00 00	 call	 ??Eiterator@?$_Tree@V?$_Tmap_traits@PAUHWND__@@UWndMoveData@@U?$less@PAUHWND__@@@std@@V?$allocator@U?$pair@QAUHWND__@@UWndMoveData@@@std@@@4@$0A@@std@@@std@@QAEAAV012@XZ ; std::_Tree<std::_Tmap_traits<HWND__ *,WndMoveData,std::less<HWND__ *>,std::allocator<std::pair<HWND__ * const,WndMoveData> >,0> >::iterator::operator++
  00506	8b c8		 mov	 ecx, eax
  00508	e8 00 00 00 00	 call	 ??8const_iterator@?$_Tree@V?$_Tmap_traits@PAUHWND__@@UWndMoveData@@U?$less@PAUHWND__@@@std@@V?$allocator@U?$pair@QAUHWND__@@UWndMoveData@@@std@@@4@$0A@@std@@@std@@QBE_NABV012@@Z ; std::_Tree<std::_Tmap_traits<HWND__ *,WndMoveData,std::less<HWND__ *>,std::allocator<std::pair<HWND__ * const,WndMoveData> >,0> >::const_iterator::operator==
  0050d	0f b6 c0	 movzx	 eax, al
  00510	85 c0		 test	 eax, eax
  00512	75 2e		 jne	 SHORT $L198959
  00514	8d 4d fc	 lea	 ecx, DWORD PTR __Next$[ebp]
  00517	e8 00 00 00 00	 call	 ?_Mynode@const_iterator@?$_Tree@V?$_Tmap_traits@PAUHWND__@@UWndMoveData@@U?$less@PAUHWND__@@@std@@V?$allocator@U?$pair@QAUHWND__@@UWndMoveData@@@std@@@4@$0A@@std@@@std@@QBEPAU_Node@?$_Tree_nod@V?$_Tmap_traits@PAUHWND__@@UWndMoveData@@U?$less@PAUHWND__@@@std@@V?$allocator@U?$pair@QAUHWND__@@UWndMoveData@@@std@@@4@$0A@@std@@@3@XZ ; std::_Tree<std::_Tmap_traits<HWND__ *,WndMoveData,std::less<HWND__ *>,std::allocator<std::pair<HWND__ * const,WndMoveData> >,0> >::const_iterator::_Mynode
  0051c	50		 push	 eax
  0051d	e8 00 00 00 00	 call	 ?_Key@?$_Tree@V?$_Tmap_traits@PAUHWND__@@UWndMoveData@@U?$less@PAUHWND__@@@std@@V?$allocator@U?$pair@QAUHWND__@@UWndMoveData@@@std@@@4@$0A@@std@@@std@@KAABQAUHWND__@@PAU_Node@?$_Tree_nod@V?$_Tmap_traits@PAUHWND__@@UWndMoveData@@U?$less@PAUHWND__@@@std@@V?$allocator@U?$pair@QAUHWND__@@UWndMoveData@@@std@@@4@$0A@@std@@@2@@Z ; std::_Tree<std::_Tmap_traits<HWND__ *,WndMoveData,std::less<HWND__ *>,std::allocator<std::pair<HWND__ * const,WndMoveData> >,0> >::_Key
  00522	83 c4 04	 add	 esp, 4
  00525	50		 push	 eax
  00526	8b 4d 10	 mov	 ecx, DWORD PTR __Val$[ebp]
  00529	51		 push	 ecx
  0052a	e8 00 00 00 00	 call	 ?_Kfn@?$_Tmap_traits@PAUHWND__@@UWndMoveData@@U?$less@PAUHWND__@@@std@@V?$allocator@U?$pair@QAUHWND__@@UWndMoveData@@@std@@@4@$0A@@std@@SAABQAUHWND__@@ABU?$pair@QAUHWND__@@UWndMoveData@@@2@@Z ; std::_Tmap_traits<HWND__ *,WndMoveData,std::less<HWND__ *>,std::allocator<std::pair<HWND__ * const,WndMoveData> >,0>::_Kfn
  0052f	83 c4 04	 add	 esp, 4
  00532	50		 push	 eax
  00533	8b 4d d8	 mov	 ecx, DWORD PTR _this$[ebp]
  00536	e8 00 00 00 00	 call	 ??R?$less@PAUHWND__@@@std@@QBE_NABQAUHWND__@@0@Z ; std::less<HWND__ *>::operator()
  0053b	0f b6 d0	 movzx	 edx, al
  0053e	85 d2		 test	 edx, edx
  00540	74 63		 je	 SHORT $L198915
$L198959:

; 571  : 				{	// insert after _Where
; 572  : 				if (_Isnil(_Right(_Where._Mynode())))

  00542	8d 4d 0c	 lea	 ecx, DWORD PTR __Where$[ebp]
  00545	e8 00 00 00 00	 call	 ?_Mynode@const_iterator@?$_Tree@V?$_Tmap_traits@PAUHWND__@@UWndMoveData@@U?$less@PAUHWND__@@@std@@V?$allocator@U?$pair@QAUHWND__@@UWndMoveData@@@std@@@4@$0A@@std@@@std@@QBEPAU_Node@?$_Tree_nod@V?$_Tmap_traits@PAUHWND__@@UWndMoveData@@U?$less@PAUHWND__@@@std@@V?$allocator@U?$pair@QAUHWND__@@UWndMoveData@@@std@@@4@$0A@@std@@@3@XZ ; std::_Tree<std::_Tmap_traits<HWND__ *,WndMoveData,std::less<HWND__ *>,std::allocator<std::pair<HWND__ * const,WndMoveData> >,0> >::const_iterator::_Mynode
  0054a	50		 push	 eax
  0054b	e8 00 00 00 00	 call	 ?_Right@?$_Tree@V?$_Tmap_traits@PAUHWND__@@UWndMoveData@@U?$less@PAUHWND__@@@std@@V?$allocator@U?$pair@QAUHWND__@@UWndMoveData@@@std@@@4@$0A@@std@@@std@@KAAAPAU_Node@?$_Tree_nod@V?$_Tmap_traits@PAUHWND__@@UWndMoveData@@U?$less@PAUHWND__@@@std@@V?$allocator@U?$pair@QAUHWND__@@UWndMoveData@@@std@@@4@$0A@@std@@@2@PAU342@@Z ; std::_Tree<std::_Tmap_traits<HWND__ *,WndMoveData,std::less<HWND__ *>,std::allocator<std::pair<HWND__ * const,WndMoveData> >,0> >::_Right
  00550	83 c4 04	 add	 esp, 4
  00553	8b 00		 mov	 eax, DWORD PTR [eax]
  00555	50		 push	 eax
  00556	e8 00 00 00 00	 call	 ?_Isnil@?$_Tree@V?$_Tmap_traits@PAUHWND__@@UWndMoveData@@U?$less@PAUHWND__@@@std@@V?$allocator@U?$pair@QAUHWND__@@UWndMoveData@@@std@@@4@$0A@@std@@@std@@KAAADPAU_Node@?$_Tree_nod@V?$_Tmap_traits@PAUHWND__@@UWndMoveData@@U?$less@PAUHWND__@@@std@@V?$allocator@U?$pair@QAUHWND__@@UWndMoveData@@@std@@@4@$0A@@std@@@2@@Z ; std::_Tree<std::_Tmap_traits<HWND__ *,WndMoveData,std::less<HWND__ *>,std::allocator<std::pair<HWND__ * const,WndMoveData> >,0> >::_Isnil
  0055b	83 c4 04	 add	 esp, 4
  0055e	0f be 08	 movsx	 ecx, BYTE PTR [eax]
  00561	85 c9		 test	 ecx, ecx
  00563	74 20		 je	 SHORT $L198960

; 573  : 					return (_Insert(false, _Where._Mynode(), _Val));

  00565	8b 55 10	 mov	 edx, DWORD PTR __Val$[ebp]
  00568	52		 push	 edx
  00569	8d 4d 0c	 lea	 ecx, DWORD PTR __Where$[ebp]
  0056c	e8 00 00 00 00	 call	 ?_Mynode@const_iterator@?$_Tree@V?$_Tmap_traits@PAUHWND__@@UWndMoveData@@U?$less@PAUHWND__@@@std@@V?$allocator@U?$pair@QAUHWND__@@UWndMoveData@@@std@@@4@$0A@@std@@@std@@QBEPAU_Node@?$_Tree_nod@V?$_Tmap_traits@PAUHWND__@@UWndMoveData@@U?$less@PAUHWND__@@@std@@V?$allocator@U?$pair@QAUHWND__@@UWndMoveData@@@std@@@4@$0A@@std@@@3@XZ ; std::_Tree<std::_Tmap_traits<HWND__ *,WndMoveData,std::less<HWND__ *>,std::allocator<std::pair<HWND__ * const,WndMoveData> >,0> >::const_iterator::_Mynode
  00571	50		 push	 eax
  00572	6a 00		 push	 0
  00574	8b 45 08	 mov	 eax, DWORD PTR ___$ReturnUdt$[ebp]
  00577	50		 push	 eax
  00578	8b 4d d8	 mov	 ecx, DWORD PTR _this$[ebp]
  0057b	e8 00 00 00 00	 call	 ?_Insert@?$_Tree@V?$_Tmap_traits@PAUHWND__@@UWndMoveData@@U?$less@PAUHWND__@@@std@@V?$allocator@U?$pair@QAUHWND__@@UWndMoveData@@@std@@@4@$0A@@std@@@std@@IAE?AViterator@12@_NPAU_Node@?$_Tree_nod@V?$_Tmap_traits@PAUHWND__@@UWndMoveData@@U?$less@PAUHWND__@@@std@@V?$allocator@U?$pair@QAUHWND__@@UWndMoveData@@@std@@@4@$0A@@std@@@2@ABU?$pair@QAUHWND__@@UWndMoveData@@@2@@Z ; std::_Tree<std::_Tmap_traits<HWND__ *,WndMoveData,std::less<HWND__ *>,std::allocator<std::pair<HWND__ * const,WndMoveData> >,0> >::_Insert
  00580	8b 45 08	 mov	 eax, DWORD PTR ___$ReturnUdt$[ebp]
  00583	eb 3a		 jmp	 SHORT $L198911
$L198960:

; 574  : 				else
; 575  : 					return (_Insert(true, _Next._Mynode(), _Val));

  00585	8b 4d 10	 mov	 ecx, DWORD PTR __Val$[ebp]
  00588	51		 push	 ecx
  00589	8d 4d fc	 lea	 ecx, DWORD PTR __Next$[ebp]
  0058c	e8 00 00 00 00	 call	 ?_Mynode@const_iterator@?$_Tree@V?$_Tmap_traits@PAUHWND__@@UWndMoveData@@U?$less@PAUHWND__@@@std@@V?$allocator@U?$pair@QAUHWND__@@UWndMoveData@@@std@@@4@$0A@@std@@@std@@QBEPAU_Node@?$_Tree_nod@V?$_Tmap_traits@PAUHWND__@@UWndMoveData@@U?$less@PAUHWND__@@@std@@V?$allocator@U?$pair@QAUHWND__@@UWndMoveData@@@std@@@4@$0A@@std@@@3@XZ ; std::_Tree<std::_Tmap_traits<HWND__ *,WndMoveData,std::less<HWND__ *>,std::allocator<std::pair<HWND__ * const,WndMoveData> >,0> >::const_iterator::_Mynode
  00591	50		 push	 eax
  00592	6a 01		 push	 1
  00594	8b 55 08	 mov	 edx, DWORD PTR ___$ReturnUdt$[ebp]
  00597	52		 push	 edx
  00598	8b 4d d8	 mov	 ecx, DWORD PTR _this$[ebp]
  0059b	e8 00 00 00 00	 call	 ?_Insert@?$_Tree@V?$_Tmap_traits@PAUHWND__@@UWndMoveData@@U?$less@PAUHWND__@@@std@@V?$allocator@U?$pair@QAUHWND__@@UWndMoveData@@@std@@@4@$0A@@std@@@std@@IAE?AViterator@12@_NPAU_Node@?$_Tree_nod@V?$_Tmap_traits@PAUHWND__@@UWndMoveData@@U?$less@PAUHWND__@@@std@@V?$allocator@U?$pair@QAUHWND__@@UWndMoveData@@@std@@@4@$0A@@std@@@2@ABU?$pair@QAUHWND__@@UWndMoveData@@@2@@Z ; std::_Tree<std::_Tmap_traits<HWND__ *,WndMoveData,std::less<HWND__ *>,std::allocator<std::pair<HWND__ * const,WndMoveData> >,0> >::_Insert
  005a0	8b 45 08	 mov	 eax, DWORD PTR ___$ReturnUdt$[ebp]
  005a3	eb 1a		 jmp	 SHORT $L198911
$L198915:

; 576  : 				}
; 577  : 			}
; 578  : 
; 579  : 		return (insert(_Val).first);	// try usual insert if all else fails

  005a5	8b 45 10	 mov	 eax, DWORD PTR __Val$[ebp]
  005a8	50		 push	 eax
  005a9	8d 4d dc	 lea	 ecx, DWORD PTR $T200057[ebp]
  005ac	51		 push	 ecx
  005ad	8b 4d d8	 mov	 ecx, DWORD PTR _this$[ebp]
  005b0	e8 00 00 00 00	 call	 ?insert@?$_Tree@V?$_Tmap_traits@PAUHWND__@@UWndMoveData@@U?$less@PAUHWND__@@@std@@V?$allocator@U?$pair@QAUHWND__@@UWndMoveData@@@std@@@4@$0A@@std@@@std@@QAE?AU?$pair@Viterator@?$_Tree@V?$_Tmap_traits@PAUHWND__@@UWndMoveData@@U?$less@PAUHWND__@@@std@@V?$allocator@U?$pair@QAUHWND__@@UWndMoveData@@@std@@@4@$0A@@std@@@std@@_N@2@ABU?$pair@QAUHWND__@@UWndMoveData@@@2@@Z ; std::_Tree<std::_Tmap_traits<HWND__ *,WndMoveData,std::less<HWND__ *>,std::allocator<std::pair<HWND__ * const,WndMoveData> >,0> >::insert
  005b5	8b 10		 mov	 edx, DWORD PTR [eax]
  005b7	8b 45 08	 mov	 eax, DWORD PTR ___$ReturnUdt$[ebp]
  005ba	89 10		 mov	 DWORD PTR [eax], edx
  005bc	8b 45 08	 mov	 eax, DWORD PTR ___$ReturnUdt$[ebp]
$L198911:

; 580  : 		}

  005bf	8b e5		 mov	 esp, ebp
  005c1	5d		 pop	 ebp
  005c2	c2 0c 00	 ret	 12			; 0000000cH
?insert@?$_Tree@V?$_Tmap_traits@PAUHWND__@@UWndMoveData@@U?$less@PAUHWND__@@@std@@V?$allocator@U?$pair@QAUHWND__@@UWndMoveData@@@std@@@4@$0A@@std@@@std@@QAE?AViterator@12@V312@ABU?$pair@QAUHWND__@@UWndMoveData@@@2@@Z ENDP ; std::_Tree<std::_Tmap_traits<HWND__ *,WndMoveData,std::less<HWND__ *>,std::allocator<std::pair<HWND__ * const,WndMoveData> >,0> >::insert
_TEXT	ENDS
PUBLIC	?_Lbound@?$_Tree@V?$_Tmap_traits@PAUHWND__@@UWndMoveData@@U?$less@PAUHWND__@@@std@@V?$allocator@U?$pair@QAUHWND__@@UWndMoveData@@@std@@@4@$0A@@std@@@std@@IBEPAU_Node@?$_Tree_nod@V?$_Tmap_traits@PAUHWND__@@UWndMoveData@@U?$less@PAUHWND__@@@std@@V?$allocator@U?$pair@QAUHWND__@@UWndMoveData@@@std@@@4@$0A@@std@@@2@ABQAUHWND__@@@Z ; std::_Tree<std::_Tmap_traits<HWND__ *,WndMoveData,std::less<HWND__ *>,std::allocator<std::pair<HWND__ * const,WndMoveData> >,0> >::_Lbound
; Function compile flags: /Odt
;	COMDAT ?lower_bound@?$_Tree@V?$_Tmap_traits@PAUHWND__@@UWndMoveData@@U?$less@PAUHWND__@@@std@@V?$allocator@U?$pair@QAUHWND__@@UWndMoveData@@@std@@@4@$0A@@std@@@std@@QAE?AViterator@12@ABQAUHWND__@@@Z
_TEXT	SEGMENT
_this$ = -4						; size = 4
___$ReturnUdt$ = 8					; size = 4
__Keyval$ = 12						; size = 4
?lower_bound@?$_Tree@V?$_Tmap_traits@PAUHWND__@@UWndMoveData@@U?$less@PAUHWND__@@@std@@V?$allocator@U?$pair@QAUHWND__@@UWndMoveData@@@std@@@4@$0A@@std@@@std@@QAE?AViterator@12@ABQAUHWND__@@@Z PROC NEAR ; std::_Tree<std::_Tmap_traits<HWND__ *,WndMoveData,std::less<HWND__ *>,std::allocator<std::pair<HWND__ * const,WndMoveData> >,0> >::lower_bound, COMDAT
; _this$ = ecx

; 809  : 		{	// find leftmost node not less than _Keyval in mutable tree

  00000	55		 push	 ebp
  00001	8b ec		 mov	 ebp, esp
  00003	51		 push	 ecx
  00004	89 4d fc	 mov	 DWORD PTR _this$[ebp], ecx

; 810  : 		return (_TREE_ITERATOR(_Lbound(_Keyval)));

  00007	8b 45 0c	 mov	 eax, DWORD PTR __Keyval$[ebp]
  0000a	50		 push	 eax
  0000b	8b 4d fc	 mov	 ecx, DWORD PTR _this$[ebp]
  0000e	e8 00 00 00 00	 call	 ?_Lbound@?$_Tree@V?$_Tmap_traits@PAUHWND__@@UWndMoveData@@U?$less@PAUHWND__@@@std@@V?$allocator@U?$pair@QAUHWND__@@UWndMoveData@@@std@@@4@$0A@@std@@@std@@IBEPAU_Node@?$_Tree_nod@V?$_Tmap_traits@PAUHWND__@@UWndMoveData@@U?$less@PAUHWND__@@@std@@V?$allocator@U?$pair@QAUHWND__@@UWndMoveData@@@std@@@4@$0A@@std@@@2@ABQAUHWND__@@@Z ; std::_Tree<std::_Tmap_traits<HWND__ *,WndMoveData,std::less<HWND__ *>,std::allocator<std::pair<HWND__ * const,WndMoveData> >,0> >::_Lbound
  00013	50		 push	 eax
  00014	8b 4d 08	 mov	 ecx, DWORD PTR ___$ReturnUdt$[ebp]
  00017	e8 00 00 00 00	 call	 ??0iterator@?$_Tree@V?$_Tmap_traits@PAUHWND__@@UWndMoveData@@U?$less@PAUHWND__@@@std@@V?$allocator@U?$pair@QAUHWND__@@UWndMoveData@@@std@@@4@$0A@@std@@@std@@QAE@PAU_Node@?$_Tree_nod@V?$_Tmap_traits@PAUHWND__@@UWndMoveData@@U?$less@PAUHWND__@@@std@@V?$allocator@U?$pair@QAUHWND__@@UWndMoveData@@@std@@@4@$0A@@std@@@2@@Z ; std::_Tree<std::_Tmap_traits<HWND__ *,WndMoveData,std::less<HWND__ *>,std::allocator<std::pair<HWND__ * const,WndMoveData> >,0> >::iterator::iterator
  0001c	8b 45 08	 mov	 eax, DWORD PTR ___$ReturnUdt$[ebp]

; 811  : 		}

  0001f	8b e5		 mov	 esp, ebp
  00021	5d		 pop	 ebp
  00022	c2 08 00	 ret	 8
?lower_bound@?$_Tree@V?$_Tmap_traits@PAUHWND__@@UWndMoveData@@U?$less@PAUHWND__@@@std@@V?$allocator@U?$pair@QAUHWND__@@UWndMoveData@@@std@@@4@$0A@@std@@@std@@QAE?AViterator@12@ABQAUHWND__@@@Z ENDP ; std::_Tree<std::_Tmap_traits<HWND__ *,WndMoveData,std::less<HWND__ *>,std::allocator<std::pair<HWND__ * const,WndMoveData> >,0> >::lower_bound
_TEXT	ENDS
PUBLIC	?_Left@?$_Tree@V?$_Tmap_traits@PAUHWND__@@UWndMoveData@@U?$less@PAUHWND__@@@std@@V?$allocator@U?$pair@QAUHWND__@@UWndMoveData@@@std@@@4@$0A@@std@@@std@@KAAAPAU_Node@?$_Tree_nod@V?$_Tmap_traits@PAUHWND__@@UWndMoveData@@U?$less@PAUHWND__@@@std@@V?$allocator@U?$pair@QAUHWND__@@UWndMoveData@@@std@@@4@$0A@@std@@@2@PAU342@@Z ; std::_Tree<std::_Tmap_traits<HWND__ *,WndMoveData,std::less<HWND__ *>,std::allocator<std::pair<HWND__ * const,WndMoveData> >,0> >::_Left
PUBLIC	?deallocate@?$allocator@U_Node@?$_Tree_nod@V?$_Tmap_traits@PAUHWND__@@UWndMoveData@@U?$less@PAUHWND__@@@std@@V?$allocator@U?$pair@QAUHWND__@@UWndMoveData@@@std@@@4@$0A@@std@@@std@@@std@@QAEXPAU_Node@?$_Tree_nod@V?$_Tmap_traits@PAUHWND__@@UWndMoveData@@U?$less@PAUHWND__@@@std@@V?$allocator@U?$pair@QAUHWND__@@UWndMoveData@@@std@@@4@$0A@@std@@@2@I@Z ; std::allocator<std::_Tree_nod<std::_Tmap_traits<HWND__ *,WndMoveData,std::less<HWND__ *>,std::allocator<std::pair<HWND__ * const,WndMoveData> >,0> >::_Node>::deallocate
PUBLIC	?destroy@?$allocator@U_Node@?$_Tree_nod@V?$_Tmap_traits@PAUHWND__@@UWndMoveData@@U?$less@PAUHWND__@@@std@@V?$allocator@U?$pair@QAUHWND__@@UWndMoveData@@@std@@@4@$0A@@std@@@std@@@std@@QAEXPAU_Node@?$_Tree_nod@V?$_Tmap_traits@PAUHWND__@@UWndMoveData@@U?$less@PAUHWND__@@@std@@V?$allocator@U?$pair@QAUHWND__@@UWndMoveData@@@std@@@4@$0A@@std@@@2@@Z ; std::allocator<std::_Tree_nod<std::_Tmap_traits<HWND__ *,WndMoveData,std::less<HWND__ *>,std::allocator<std::pair<HWND__ * const,WndMoveData> >,0> >::_Node>::destroy
; Function compile flags: /Odt
;	COMDAT ?_Erase@?$_Tree@V?$_Tmap_traits@PAUHWND__@@UWndMoveData@@U?$less@PAUHWND__@@@std@@V?$allocator@U?$pair@QAUHWND__@@UWndMoveData@@@std@@@4@$0A@@std@@@std@@IAEXPAU_Node@?$_Tree_nod@V?$_Tmap_traits@PAUHWND__@@UWndMoveData@@U?$less@PAUHWND__@@@std@@V?$allocator@U?$pair@QAUHWND__@@UWndMoveData@@@std@@@4@$0A@@std@@@2@@Z
_TEXT	SEGMENT
_this$ = -8						; size = 4
__Pnode$198991 = -4					; size = 4
__Rootnode$ = 8						; size = 4
?_Erase@?$_Tree@V?$_Tmap_traits@PAUHWND__@@UWndMoveData@@U?$less@PAUHWND__@@@std@@V?$allocator@U?$pair@QAUHWND__@@UWndMoveData@@@std@@@4@$0A@@std@@@std@@IAEXPAU_Node@?$_Tree_nod@V?$_Tmap_traits@PAUHWND__@@UWndMoveData@@U?$less@PAUHWND__@@@std@@V?$allocator@U?$pair@QAUHWND__@@UWndMoveData@@@std@@@4@$0A@@std@@@2@@Z PROC NEAR ; std::_Tree<std::_Tmap_traits<HWND__ *,WndMoveData,std::less<HWND__ *>,std::allocator<std::pair<HWND__ * const,WndMoveData> >,0> >::_Erase, COMDAT
; _this$ = ecx

; 890  : 		{	// free entire subtree, recursively

  00000	55		 push	 ebp
  00001	8b ec		 mov	 ebp, esp
  00003	83 ec 08	 sub	 esp, 8
  00006	89 4d f8	 mov	 DWORD PTR _this$[ebp], ecx

; 891  : 		for (_Nodeptr _Pnode = _Rootnode; !_Isnil(_Pnode); _Rootnode = _Pnode)

  00009	8b 45 08	 mov	 eax, DWORD PTR __Rootnode$[ebp]
  0000c	89 45 fc	 mov	 DWORD PTR __Pnode$198991[ebp], eax
  0000f	eb 06		 jmp	 SHORT $L198992
$L198993:
  00011	8b 4d fc	 mov	 ecx, DWORD PTR __Pnode$198991[ebp]
  00014	89 4d 08	 mov	 DWORD PTR __Rootnode$[ebp], ecx
$L198992:
  00017	8b 55 fc	 mov	 edx, DWORD PTR __Pnode$198991[ebp]
  0001a	52		 push	 edx
  0001b	e8 00 00 00 00	 call	 ?_Isnil@?$_Tree@V?$_Tmap_traits@PAUHWND__@@UWndMoveData@@U?$less@PAUHWND__@@@std@@V?$allocator@U?$pair@QAUHWND__@@UWndMoveData@@@std@@@4@$0A@@std@@@std@@KAAADPAU_Node@?$_Tree_nod@V?$_Tmap_traits@PAUHWND__@@UWndMoveData@@U?$less@PAUHWND__@@@std@@V?$allocator@U?$pair@QAUHWND__@@UWndMoveData@@@std@@@4@$0A@@std@@@2@@Z ; std::_Tree<std::_Tmap_traits<HWND__ *,WndMoveData,std::less<HWND__ *>,std::allocator<std::pair<HWND__ * const,WndMoveData> >,0> >::_Isnil
  00020	83 c4 04	 add	 esp, 4
  00023	0f be 00	 movsx	 eax, BYTE PTR [eax]
  00026	85 c0		 test	 eax, eax
  00028	75 4a		 jne	 SHORT $L198990

; 892  : 			{	// free subtrees, then node
; 893  : 			_Erase(_Right(_Pnode));

  0002a	8b 4d fc	 mov	 ecx, DWORD PTR __Pnode$198991[ebp]
  0002d	51		 push	 ecx
  0002e	e8 00 00 00 00	 call	 ?_Right@?$_Tree@V?$_Tmap_traits@PAUHWND__@@UWndMoveData@@U?$less@PAUHWND__@@@std@@V?$allocator@U?$pair@QAUHWND__@@UWndMoveData@@@std@@@4@$0A@@std@@@std@@KAAAPAU_Node@?$_Tree_nod@V?$_Tmap_traits@PAUHWND__@@UWndMoveData@@U?$less@PAUHWND__@@@std@@V?$allocator@U?$pair@QAUHWND__@@UWndMoveData@@@std@@@4@$0A@@std@@@2@PAU342@@Z ; std::_Tree<std::_Tmap_traits<HWND__ *,WndMoveData,std::less<HWND__ *>,std::allocator<std::pair<HWND__ * const,WndMoveData> >,0> >::_Right
  00033	83 c4 04	 add	 esp, 4
  00036	8b 10		 mov	 edx, DWORD PTR [eax]
  00038	52		 push	 edx
  00039	8b 4d f8	 mov	 ecx, DWORD PTR _this$[ebp]
  0003c	e8 00 00 00 00	 call	 ?_Erase@?$_Tree@V?$_Tmap_traits@PAUHWND__@@UWndMoveData@@U?$less@PAUHWND__@@@std@@V?$allocator@U?$pair@QAUHWND__@@UWndMoveData@@@std@@@4@$0A@@std@@@std@@IAEXPAU_Node@?$_Tree_nod@V?$_Tmap_traits@PAUHWND__@@UWndMoveData@@U?$less@PAUHWND__@@@std@@V?$allocator@U?$pair@QAUHWND__@@UWndMoveData@@@std@@@4@$0A@@std@@@2@@Z ; std::_Tree<std::_Tmap_traits<HWND__ *,WndMoveData,std::less<HWND__ *>,std::allocator<std::pair<HWND__ * const,WndMoveData> >,0> >::_Erase

; 894  : 			_Pnode = _Left(_Pnode);

  00041	8b 45 fc	 mov	 eax, DWORD PTR __Pnode$198991[ebp]
  00044	50		 push	 eax
  00045	e8 00 00 00 00	 call	 ?_Left@?$_Tree@V?$_Tmap_traits@PAUHWND__@@UWndMoveData@@U?$less@PAUHWND__@@@std@@V?$allocator@U?$pair@QAUHWND__@@UWndMoveData@@@std@@@4@$0A@@std@@@std@@KAAAPAU_Node@?$_Tree_nod@V?$_Tmap_traits@PAUHWND__@@UWndMoveData@@U?$less@PAUHWND__@@@std@@V?$allocator@U?$pair@QAUHWND__@@UWndMoveData@@@std@@@4@$0A@@std@@@2@PAU342@@Z ; std::_Tree<std::_Tmap_traits<HWND__ *,WndMoveData,std::less<HWND__ *>,std::allocator<std::pair<HWND__ * const,WndMoveData> >,0> >::_Left
  0004a	83 c4 04	 add	 esp, 4
  0004d	8b 08		 mov	 ecx, DWORD PTR [eax]
  0004f	89 4d fc	 mov	 DWORD PTR __Pnode$198991[ebp], ecx

; 895  : 			this->_Alnod.destroy(_Rootnode);	// destroy, free erased node

  00052	8b 55 08	 mov	 edx, DWORD PTR __Rootnode$[ebp]
  00055	52		 push	 edx
  00056	8b 4d f8	 mov	 ecx, DWORD PTR _this$[ebp]
  00059	83 c1 01	 add	 ecx, 1
  0005c	e8 00 00 00 00	 call	 ?destroy@?$allocator@U_Node@?$_Tree_nod@V?$_Tmap_traits@PAUHWND__@@UWndMoveData@@U?$less@PAUHWND__@@@std@@V?$allocator@U?$pair@QAUHWND__@@UWndMoveData@@@std@@@4@$0A@@std@@@std@@@std@@QAEXPAU_Node@?$_Tree_nod@V?$_Tmap_traits@PAUHWND__@@UWndMoveData@@U?$less@PAUHWND__@@@std@@V?$allocator@U?$pair@QAUHWND__@@UWndMoveData@@@std@@@4@$0A@@std@@@2@@Z ; std::allocator<std::_Tree_nod<std::_Tmap_traits<HWND__ *,WndMoveData,std::less<HWND__ *>,std::allocator<std::pair<HWND__ * const,WndMoveData> >,0> >::_Node>::destroy

; 896  : 			this->_Alnod.deallocate(_Rootnode, 1);

  00061	6a 01		 push	 1
  00063	8b 45 08	 mov	 eax, DWORD PTR __Rootnode$[ebp]
  00066	50		 push	 eax
  00067	8b 4d f8	 mov	 ecx, DWORD PTR _this$[ebp]
  0006a	83 c1 01	 add	 ecx, 1
  0006d	e8 00 00 00 00	 call	 ?deallocate@?$allocator@U_Node@?$_Tree_nod@V?$_Tmap_traits@PAUHWND__@@UWndMoveData@@U?$less@PAUHWND__@@@std@@V?$allocator@U?$pair@QAUHWND__@@UWndMoveData@@@std@@@4@$0A@@std@@@std@@@std@@QAEXPAU_Node@?$_Tree_nod@V?$_Tmap_traits@PAUHWND__@@UWndMoveData@@U?$less@PAUHWND__@@@std@@V?$allocator@U?$pair@QAUHWND__@@UWndMoveData@@@std@@@4@$0A@@std@@@2@I@Z ; std::allocator<std::_Tree_nod<std::_Tmap_traits<HWND__ *,WndMoveData,std::less<HWND__ *>,std::allocator<std::pair<HWND__ * const,WndMoveData> >,0> >::_Node>::deallocate

; 897  : 			}

  00072	eb 9d		 jmp	 SHORT $L198993
$L198990:

; 898  : 		}

  00074	8b e5		 mov	 esp, ebp
  00076	5d		 pop	 ebp
  00077	c2 04 00	 ret	 4
?_Erase@?$_Tree@V?$_Tmap_traits@PAUHWND__@@UWndMoveData@@U?$less@PAUHWND__@@@std@@V?$allocator@U?$pair@QAUHWND__@@UWndMoveData@@@std@@@4@$0A@@std@@@std@@IAEXPAU_Node@?$_Tree_nod@V?$_Tmap_traits@PAUHWND__@@UWndMoveData@@U?$less@PAUHWND__@@@std@@V?$allocator@U?$pair@QAUHWND__@@UWndMoveData@@@std@@@4@$0A@@std@@@2@@Z ENDP ; std::_Tree<std::_Tmap_traits<HWND__ *,WndMoveData,std::less<HWND__ *>,std::allocator<std::pair<HWND__ * const,WndMoveData> >,0> >::_Erase
; Function compile flags: /Odt
_TEXT	ENDS
;	COMDAT ?_Lmost@?$_Tree@V?$_Tmap_traits@PAUHWND__@@UWndMoveData@@U?$less@PAUHWND__@@@std@@V?$allocator@U?$pair@QAUHWND__@@UWndMoveData@@@std@@@4@$0A@@std@@@std@@IAEAAPAU_Node@?$_Tree_nod@V?$_Tmap_traits@PAUHWND__@@UWndMoveData@@U?$less@PAUHWND__@@@std@@V?$allocator@U?$pair@QAUHWND__@@UWndMoveData@@@std@@@4@$0A@@std@@@2@XZ
_TEXT	SEGMENT
_this$ = -4						; size = 4
?_Lmost@?$_Tree@V?$_Tmap_traits@PAUHWND__@@UWndMoveData@@U?$less@PAUHWND__@@@std@@V?$allocator@U?$pair@QAUHWND__@@UWndMoveData@@@std@@@4@$0A@@std@@@std@@IAEAAPAU_Node@?$_Tree_nod@V?$_Tmap_traits@PAUHWND__@@UWndMoveData@@U?$less@PAUHWND__@@@std@@V?$allocator@U?$pair@QAUHWND__@@UWndMoveData@@@std@@@4@$0A@@std@@@2@XZ PROC NEAR ; std::_Tree<std::_Tmap_traits<HWND__ *,WndMoveData,std::less<HWND__ *>,std::allocator<std::pair<HWND__ * const,WndMoveData> >,0> >::_Lmost, COMDAT
; _this$ = ecx

; 1004 : 		{	// return leftmost node in mutable tree

  00000	55		 push	 ebp
  00001	8b ec		 mov	 ebp, esp
  00003	51		 push	 ecx
  00004	89 4d fc	 mov	 DWORD PTR _this$[ebp], ecx

; 1005 : 		return (_Left(_Myhead));

  00007	8b 45 fc	 mov	 eax, DWORD PTR _this$[ebp]
  0000a	8b 48 04	 mov	 ecx, DWORD PTR [eax+4]
  0000d	51		 push	 ecx
  0000e	e8 00 00 00 00	 call	 ?_Left@?$_Tree@V?$_Tmap_traits@PAUHWND__@@UWndMoveData@@U?$less@PAUHWND__@@@std@@V?$allocator@U?$pair@QAUHWND__@@UWndMoveData@@@std@@@4@$0A@@std@@@std@@KAAAPAU_Node@?$_Tree_nod@V?$_Tmap_traits@PAUHWND__@@UWndMoveData@@U?$less@PAUHWND__@@@std@@V?$allocator@U?$pair@QAUHWND__@@UWndMoveData@@@std@@@4@$0A@@std@@@2@PAU342@@Z ; std::_Tree<std::_Tmap_traits<HWND__ *,WndMoveData,std::less<HWND__ *>,std::allocator<std::pair<HWND__ * const,WndMoveData> >,0> >::_Left
  00013	83 c4 04	 add	 esp, 4

; 1006 : 		}

  00016	8b e5		 mov	 esp, ebp
  00018	5d		 pop	 ebp
  00019	c3		 ret	 0
?_Lmost@?$_Tree@V?$_Tmap_traits@PAUHWND__@@UWndMoveData@@U?$less@PAUHWND__@@@std@@V?$allocator@U?$pair@QAUHWND__@@UWndMoveData@@@std@@@4@$0A@@std@@@std@@IAEAAPAU_Node@?$_Tree_nod@V?$_Tmap_traits@PAUHWND__@@UWndMoveData@@U?$less@PAUHWND__@@@std@@V?$allocator@U?$pair@QAUHWND__@@UWndMoveData@@@std@@@4@$0A@@std@@@2@XZ ENDP ; std::_Tree<std::_Tmap_traits<HWND__ *,WndMoveData,std::less<HWND__ *>,std::allocator<std::pair<HWND__ * const,WndMoveData> >,0> >::_Lmost
; Function compile flags: /Odt
_TEXT	ENDS
;	COMDAT ?_Rmost@?$_Tree@V?$_Tmap_traits@PAUHWND__@@UWndMoveData@@U?$less@PAUHWND__@@@std@@V?$allocator@U?$pair@QAUHWND__@@UWndMoveData@@@std@@@4@$0A@@std@@@std@@IAEAAPAU_Node@?$_Tree_nod@V?$_Tmap_traits@PAUHWND__@@UWndMoveData@@U?$less@PAUHWND__@@@std@@V?$allocator@U?$pair@QAUHWND__@@UWndMoveData@@@std@@@4@$0A@@std@@@2@XZ
_TEXT	SEGMENT
_this$ = -4						; size = 4
?_Rmost@?$_Tree@V?$_Tmap_traits@PAUHWND__@@UWndMoveData@@U?$less@PAUHWND__@@@std@@V?$allocator@U?$pair@QAUHWND__@@UWndMoveData@@@std@@@4@$0A@@std@@@std@@IAEAAPAU_Node@?$_Tree_nod@V?$_Tmap_traits@PAUHWND__@@UWndMoveData@@U?$less@PAUHWND__@@@std@@V?$allocator@U?$pair@QAUHWND__@@UWndMoveData@@@std@@@4@$0A@@std@@@2@XZ PROC NEAR ; std::_Tree<std::_Tmap_traits<HWND__ *,WndMoveData,std::less<HWND__ *>,std::allocator<std::pair<HWND__ * const,WndMoveData> >,0> >::_Rmost, COMDAT
; _this$ = ecx

; 1048 : 		{	// return rightmost node in mutable tree

  00000	55		 push	 ebp
  00001	8b ec		 mov	 ebp, esp
  00003	51		 push	 ecx
  00004	89 4d fc	 mov	 DWORD PTR _this$[ebp], ecx

; 1049 : 		return (_Right(_Myhead));

  00007	8b 45 fc	 mov	 eax, DWORD PTR _this$[ebp]
  0000a	8b 48 04	 mov	 ecx, DWORD PTR [eax+4]
  0000d	51		 push	 ecx
  0000e	e8 00 00 00 00	 call	 ?_Right@?$_Tree@V?$_Tmap_traits@PAUHWND__@@UWndMoveData@@U?$less@PAUHWND__@@@std@@V?$allocator@U?$pair@QAUHWND__@@UWndMoveData@@@std@@@4@$0A@@std@@@std@@KAAAPAU_Node@?$_Tree_nod@V?$_Tmap_traits@PAUHWND__@@UWndMoveData@@U?$less@PAUHWND__@@@std@@V?$allocator@U?$pair@QAUHWND__@@UWndMoveData@@@std@@@4@$0A@@std@@@2@PAU342@@Z ; std::_Tree<std::_Tmap_traits<HWND__ *,WndMoveData,std::less<HWND__ *>,std::allocator<std::pair<HWND__ * const,WndMoveData> >,0> >::_Right
  00013	83 c4 04	 add	 esp, 4

; 1050 : 		}

  00016	8b e5		 mov	 esp, ebp
  00018	5d		 pop	 ebp
  00019	c3		 ret	 0
?_Rmost@?$_Tree@V?$_Tmap_traits@PAUHWND__@@UWndMoveData@@U?$less@PAUHWND__@@@std@@V?$allocator@U?$pair@QAUHWND__@@UWndMoveData@@@std@@@4@$0A@@std@@@std@@IAEAAPAU_Node@?$_Tree_nod@V?$_Tmap_traits@PAUHWND__@@UWndMoveData@@U?$less@PAUHWND__@@@std@@V?$allocator@U?$pair@QAUHWND__@@UWndMoveData@@@std@@@4@$0A@@std@@@2@XZ ENDP ; std::_Tree<std::_Tmap_traits<HWND__ *,WndMoveData,std::less<HWND__ *>,std::allocator<std::pair<HWND__ * const,WndMoveData> >,0> >::_Rmost
_TEXT	ENDS
PUBLIC	?_Parent@?$_Tree@V?$_Tmap_traits@PAUHWND__@@UWndMoveData@@U?$less@PAUHWND__@@@std@@V?$allocator@U?$pair@QAUHWND__@@UWndMoveData@@@std@@@4@$0A@@std@@@std@@KAAAPAU_Node@?$_Tree_nod@V?$_Tmap_traits@PAUHWND__@@UWndMoveData@@U?$less@PAUHWND__@@@std@@V?$allocator@U?$pair@QAUHWND__@@UWndMoveData@@@std@@@4@$0A@@std@@@2@PAU342@@Z ; std::_Tree<std::_Tmap_traits<HWND__ *,WndMoveData,std::less<HWND__ *>,std::allocator<std::pair<HWND__ * const,WndMoveData> >,0> >::_Parent
; Function compile flags: /Odt
;	COMDAT ?_Root@?$_Tree@V?$_Tmap_traits@PAUHWND__@@UWndMoveData@@U?$less@PAUHWND__@@@std@@V?$allocator@U?$pair@QAUHWND__@@UWndMoveData@@@std@@@4@$0A@@std@@@std@@IAEAAPAU_Node@?$_Tree_nod@V?$_Tmap_traits@PAUHWND__@@UWndMoveData@@U?$less@PAUHWND__@@@std@@V?$allocator@U?$pair@QAUHWND__@@UWndMoveData@@@std@@@4@$0A@@std@@@2@XZ
_TEXT	SEGMENT
_this$ = -4						; size = 4
?_Root@?$_Tree@V?$_Tmap_traits@PAUHWND__@@UWndMoveData@@U?$less@PAUHWND__@@@std@@V?$allocator@U?$pair@QAUHWND__@@UWndMoveData@@@std@@@4@$0A@@std@@@std@@IAEAAPAU_Node@?$_Tree_nod@V?$_Tmap_traits@PAUHWND__@@UWndMoveData@@U?$less@PAUHWND__@@@std@@V?$allocator@U?$pair@QAUHWND__@@UWndMoveData@@@std@@@4@$0A@@std@@@2@XZ PROC NEAR ; std::_Tree<std::_Tmap_traits<HWND__ *,WndMoveData,std::less<HWND__ *>,std::allocator<std::pair<HWND__ * const,WndMoveData> >,0> >::_Root, COMDAT
; _this$ = ecx

; 1058 : 		{	// return root of mutable tree

  00000	55		 push	 ebp
  00001	8b ec		 mov	 ebp, esp
  00003	51		 push	 ecx
  00004	89 4d fc	 mov	 DWORD PTR _this$[ebp], ecx

; 1059 : 		return (_Parent(_Myhead));

  00007	8b 45 fc	 mov	 eax, DWORD PTR _this$[ebp]
  0000a	8b 48 04	 mov	 ecx, DWORD PTR [eax+4]
  0000d	51		 push	 ecx
  0000e	e8 00 00 00 00	 call	 ?_Parent@?$_Tree@V?$_Tmap_traits@PAUHWND__@@UWndMoveData@@U?$less@PAUHWND__@@@std@@V?$allocator@U?$pair@QAUHWND__@@UWndMoveData@@@std@@@4@$0A@@std@@@std@@KAAAPAU_Node@?$_Tree_nod@V?$_Tmap_traits@PAUHWND__@@UWndMoveData@@U?$less@PAUHWND__@@@std@@V?$allocator@U?$pair@QAUHWND__@@UWndMoveData@@@std@@@4@$0A@@std@@@2@PAU342@@Z ; std::_Tree<std::_Tmap_traits<HWND__ *,WndMoveData,std::less<HWND__ *>,std::allocator<std::pair<HWND__ * const,WndMoveData> >,0> >::_Parent
  00013	83 c4 04	 add	 esp, 4

; 1060 : 		}

  00016	8b e5		 mov	 esp, ebp
  00018	5d		 pop	 ebp
  00019	c3		 ret	 0
?_Root@?$_Tree@V?$_Tmap_traits@PAUHWND__@@UWndMoveData@@U?$less@PAUHWND__@@@std@@V?$allocator@U?$pair@QAUHWND__@@UWndMoveData@@@std@@@4@$0A@@std@@@std@@IAEAAPAU_Node@?$_Tree_nod@V?$_Tmap_traits@PAUHWND__@@UWndMoveData@@U?$less@PAUHWND__@@@std@@V?$allocator@U?$pair@QAUHWND__@@UWndMoveData@@@std@@@4@$0A@@std@@@2@XZ ENDP ; std::_Tree<std::_Tmap_traits<HWND__ *,WndMoveData,std::less<HWND__ *>,std::allocator<std::pair<HWND__ * const,WndMoveData> >,0> >::_Root
_TEXT	ENDS
PUBLIC	?destroy@?$allocator@PAU_Node@?$_Tree_nod@V?$_Tmap_traits@PAUHWND__@@UWndMoveData@@U?$less@PAUHWND__@@@std@@V?$allocator@U?$pair@QAUHWND__@@UWndMoveData@@@std@@@4@$0A@@std@@@std@@@std@@QAEXPAPAU_Node@?$_Tree_nod@V?$_Tmap_traits@PAUHWND__@@UWndMoveData@@U?$less@PAUHWND__@@@std@@V?$allocator@U?$pair@QAUHWND__@@UWndMoveData@@@std@@@4@$0A@@std@@@2@@Z ; std::allocator<std::_Tree_nod<std::_Tmap_traits<HWND__ *,WndMoveData,std::less<HWND__ *>,std::allocator<std::pair<HWND__ * const,WndMoveData> >,0> >::_Node *>::destroy
PUBLIC	?erase@?$_Tree@V?$_Tmap_traits@PAUHWND__@@UWndMoveData@@U?$less@PAUHWND__@@@std@@V?$allocator@U?$pair@QAUHWND__@@UWndMoveData@@@std@@@4@$0A@@std@@@std@@QAE?AViterator@12@V312@0@Z ; std::_Tree<std::_Tmap_traits<HWND__ *,WndMoveData,std::less<HWND__ *>,std::allocator<std::pair<HWND__ * const,WndMoveData> >,0> >::erase
; Function compile flags: /Odt
;	COMDAT ?_Tidy@?$_Tree@V?$_Tmap_traits@PAUHWND__@@UWndMoveData@@U?$less@PAUHWND__@@@std@@V?$allocator@U?$pair@QAUHWND__@@UWndMoveData@@@std@@@4@$0A@@std@@@std@@IAEXXZ
_TEXT	SEGMENT
_this$ = -16						; size = 4
$T200072 = -12						; size = 4
$T200071 = -8						; size = 4
$T200070 = -4						; size = 4
?_Tidy@?$_Tree@V?$_Tmap_traits@PAUHWND__@@UWndMoveData@@U?$less@PAUHWND__@@@std@@V?$allocator@U?$pair@QAUHWND__@@UWndMoveData@@@std@@@4@$0A@@std@@@std@@IAEXXZ PROC NEAR ; std::_Tree<std::_Tmap_traits<HWND__ *,WndMoveData,std::less<HWND__ *>,std::allocator<std::pair<HWND__ * const,WndMoveData> >,0> >::_Tidy, COMDAT
; _this$ = ecx

; 1142 : 		{	// free all storage

  00000	55		 push	 ebp
  00001	8b ec		 mov	 ebp, esp
  00003	83 ec 10	 sub	 esp, 16			; 00000010H
  00006	89 4d f0	 mov	 DWORD PTR _this$[ebp], ecx

; 1143 : 		erase(begin(), end());

  00009	8d 45 fc	 lea	 eax, DWORD PTR $T200070[ebp]
  0000c	50		 push	 eax
  0000d	8b 4d f0	 mov	 ecx, DWORD PTR _this$[ebp]
  00010	e8 00 00 00 00	 call	 ?end@?$_Tree@V?$_Tmap_traits@PAUHWND__@@UWndMoveData@@U?$less@PAUHWND__@@@std@@V?$allocator@U?$pair@QAUHWND__@@UWndMoveData@@@std@@@4@$0A@@std@@@std@@QAE?AViterator@12@XZ ; std::_Tree<std::_Tmap_traits<HWND__ *,WndMoveData,std::less<HWND__ *>,std::allocator<std::pair<HWND__ * const,WndMoveData> >,0> >::end
  00015	8b 08		 mov	 ecx, DWORD PTR [eax]
  00017	51		 push	 ecx
  00018	8d 55 f8	 lea	 edx, DWORD PTR $T200071[ebp]
  0001b	52		 push	 edx
  0001c	8b 4d f0	 mov	 ecx, DWORD PTR _this$[ebp]
  0001f	e8 00 00 00 00	 call	 ?begin@?$_Tree@V?$_Tmap_traits@PAUHWND__@@UWndMoveData@@U?$less@PAUHWND__@@@std@@V?$allocator@U?$pair@QAUHWND__@@UWndMoveData@@@std@@@4@$0A@@std@@@std@@QAE?AViterator@12@XZ ; std::_Tree<std::_Tmap_traits<HWND__ *,WndMoveData,std::less<HWND__ *>,std::allocator<std::pair<HWND__ * const,WndMoveData> >,0> >::begin
  00024	8b 00		 mov	 eax, DWORD PTR [eax]
  00026	50		 push	 eax
  00027	8d 4d f4	 lea	 ecx, DWORD PTR $T200072[ebp]
  0002a	51		 push	 ecx
  0002b	8b 4d f0	 mov	 ecx, DWORD PTR _this$[ebp]
  0002e	e8 00 00 00 00	 call	 ?erase@?$_Tree@V?$_Tmap_traits@PAUHWND__@@UWndMoveData@@U?$less@PAUHWND__@@@std@@V?$allocator@U?$pair@QAUHWND__@@UWndMoveData@@@std@@@4@$0A@@std@@@std@@QAE?AViterator@12@V312@0@Z ; std::_Tree<std::_Tmap_traits<HWND__ *,WndMoveData,std::less<HWND__ *>,std::allocator<std::pair<HWND__ * const,WndMoveData> >,0> >::erase

; 1144 : 		this->_Alptr.destroy(&_Left(_Myhead));

  00033	8b 55 f0	 mov	 edx, DWORD PTR _this$[ebp]
  00036	8b 42 04	 mov	 eax, DWORD PTR [edx+4]
  00039	50		 push	 eax
  0003a	e8 00 00 00 00	 call	 ?_Left@?$_Tree@V?$_Tmap_traits@PAUHWND__@@UWndMoveData@@U?$less@PAUHWND__@@@std@@V?$allocator@U?$pair@QAUHWND__@@UWndMoveData@@@std@@@4@$0A@@std@@@std@@KAAAPAU_Node@?$_Tree_nod@V?$_Tmap_traits@PAUHWND__@@UWndMoveData@@U?$less@PAUHWND__@@@std@@V?$allocator@U?$pair@QAUHWND__@@UWndMoveData@@@std@@@4@$0A@@std@@@2@PAU342@@Z ; std::_Tree<std::_Tmap_traits<HWND__ *,WndMoveData,std::less<HWND__ *>,std::allocator<std::pair<HWND__ * const,WndMoveData> >,0> >::_Left
  0003f	83 c4 04	 add	 esp, 4
  00042	50		 push	 eax
  00043	8b 4d f0	 mov	 ecx, DWORD PTR _this$[ebp]
  00046	83 c1 02	 add	 ecx, 2
  00049	e8 00 00 00 00	 call	 ?destroy@?$allocator@PAU_Node@?$_Tree_nod@V?$_Tmap_traits@PAUHWND__@@UWndMoveData@@U?$less@PAUHWND__@@@std@@V?$allocator@U?$pair@QAUHWND__@@UWndMoveData@@@std@@@4@$0A@@std@@@std@@@std@@QAEXPAPAU_Node@?$_Tree_nod@V?$_Tmap_traits@PAUHWND__@@UWndMoveData@@U?$less@PAUHWND__@@@std@@V?$allocator@U?$pair@QAUHWND__@@UWndMoveData@@@std@@@4@$0A@@std@@@2@@Z ; std::allocator<std::_Tree_nod<std::_Tmap_traits<HWND__ *,WndMoveData,std::less<HWND__ *>,std::allocator<std::pair<HWND__ * const,WndMoveData> >,0> >::_Node *>::destroy

; 1145 : 		this->_Alptr.destroy(&_Parent(_Myhead));

  0004e	8b 4d f0	 mov	 ecx, DWORD PTR _this$[ebp]
  00051	8b 51 04	 mov	 edx, DWORD PTR [ecx+4]
  00054	52		 push	 edx
  00055	e8 00 00 00 00	 call	 ?_Parent@?$_Tree@V?$_Tmap_traits@PAUHWND__@@UWndMoveData@@U?$less@PAUHWND__@@@std@@V?$allocator@U?$pair@QAUHWND__@@UWndMoveData@@@std@@@4@$0A@@std@@@std@@KAAAPAU_Node@?$_Tree_nod@V?$_Tmap_traits@PAUHWND__@@UWndMoveData@@U?$less@PAUHWND__@@@std@@V?$allocator@U?$pair@QAUHWND__@@UWndMoveData@@@std@@@4@$0A@@std@@@2@PAU342@@Z ; std::_Tree<std::_Tmap_traits<HWND__ *,WndMoveData,std::less<HWND__ *>,std::allocator<std::pair<HWND__ * const,WndMoveData> >,0> >::_Parent
  0005a	83 c4 04	 add	 esp, 4
  0005d	50		 push	 eax
  0005e	8b 4d f0	 mov	 ecx, DWORD PTR _this$[ebp]
  00061	83 c1 02	 add	 ecx, 2
  00064	e8 00 00 00 00	 call	 ?destroy@?$allocator@PAU_Node@?$_Tree_nod@V?$_Tmap_traits@PAUHWND__@@UWndMoveData@@U?$less@PAUHWND__@@@std@@V?$allocator@U?$pair@QAUHWND__@@UWndMoveData@@@std@@@4@$0A@@std@@@std@@@std@@QAEXPAPAU_Node@?$_Tree_nod@V?$_Tmap_traits@PAUHWND__@@UWndMoveData@@U?$less@PAUHWND__@@@std@@V?$allocator@U?$pair@QAUHWND__@@UWndMoveData@@@std@@@4@$0A@@std@@@2@@Z ; std::allocator<std::_Tree_nod<std::_Tmap_traits<HWND__ *,WndMoveData,std::less<HWND__ *>,std::allocator<std::pair<HWND__ * const,WndMoveData> >,0> >::_Node *>::destroy

; 1146 : 		this->_Alptr.destroy(&_Right(_Myhead));

  00069	8b 45 f0	 mov	 eax, DWORD PTR _this$[ebp]
  0006c	8b 48 04	 mov	 ecx, DWORD PTR [eax+4]
  0006f	51		 push	 ecx
  00070	e8 00 00 00 00	 call	 ?_Right@?$_Tree@V?$_Tmap_traits@PAUHWND__@@UWndMoveData@@U?$less@PAUHWND__@@@std@@V?$allocator@U?$pair@QAUHWND__@@UWndMoveData@@@std@@@4@$0A@@std@@@std@@KAAAPAU_Node@?$_Tree_nod@V?$_Tmap_traits@PAUHWND__@@UWndMoveData@@U?$less@PAUHWND__@@@std@@V?$allocator@U?$pair@QAUHWND__@@UWndMoveData@@@std@@@4@$0A@@std@@@2@PAU342@@Z ; std::_Tree<std::_Tmap_traits<HWND__ *,WndMoveData,std::less<HWND__ *>,std::allocator<std::pair<HWND__ * const,WndMoveData> >,0> >::_Right
  00075	83 c4 04	 add	 esp, 4
  00078	50		 push	 eax
  00079	8b 4d f0	 mov	 ecx, DWORD PTR _this$[ebp]
  0007c	83 c1 02	 add	 ecx, 2
  0007f	e8 00 00 00 00	 call	 ?destroy@?$allocator@PAU_Node@?$_Tree_nod@V?$_Tmap_traits@PAUHWND__@@UWndMoveData@@U?$less@PAUHWND__@@@std@@V?$allocator@U?$pair@QAUHWND__@@UWndMoveData@@@std@@@4@$0A@@std@@@std@@@std@@QAEXPAPAU_Node@?$_Tree_nod@V?$_Tmap_traits@PAUHWND__@@UWndMoveData@@U?$less@PAUHWND__@@@std@@V?$allocator@U?$pair@QAUHWND__@@UWndMoveData@@@std@@@4@$0A@@std@@@2@@Z ; std::allocator<std::_Tree_nod<std::_Tmap_traits<HWND__ *,WndMoveData,std::less<HWND__ *>,std::allocator<std::pair<HWND__ * const,WndMoveData> >,0> >::_Node *>::destroy

; 1147 : 		this->_Alnod.deallocate(_Myhead, 1);

  00084	6a 01		 push	 1
  00086	8b 55 f0	 mov	 edx, DWORD PTR _this$[ebp]
  00089	8b 42 04	 mov	 eax, DWORD PTR [edx+4]
  0008c	50		 push	 eax
  0008d	8b 4d f0	 mov	 ecx, DWORD PTR _this$[ebp]
  00090	83 c1 01	 add	 ecx, 1
  00093	e8 00 00 00 00	 call	 ?deallocate@?$allocator@U_Node@?$_Tree_nod@V?$_Tmap_traits@PAUHWND__@@UWndMoveData@@U?$less@PAUHWND__@@@std@@V?$allocator@U?$pair@QAUHWND__@@UWndMoveData@@@std@@@4@$0A@@std@@@std@@@std@@QAEXPAU_Node@?$_Tree_nod@V?$_Tmap_traits@PAUHWND__@@UWndMoveData@@U?$less@PAUHWND__@@@std@@V?$allocator@U?$pair@QAUHWND__@@UWndMoveData@@@std@@@4@$0A@@std@@@2@I@Z ; std::allocator<std::_Tree_nod<std::_Tmap_traits<HWND__ *,WndMoveData,std::less<HWND__ *>,std::allocator<std::pair<HWND__ * const,WndMoveData> >,0> >::_Node>::deallocate

; 1148 : 		_Myhead = 0, _Mysize = 0;

  00098	8b 4d f0	 mov	 ecx, DWORD PTR _this$[ebp]
  0009b	c7 41 04 00 00
	00 00		 mov	 DWORD PTR [ecx+4], 0
  000a2	8b 55 f0	 mov	 edx, DWORD PTR _this$[ebp]
  000a5	c7 42 08 00 00
	00 00		 mov	 DWORD PTR [edx+8], 0

; 1149 : 		}

  000ac	8b e5		 mov	 esp, ebp
  000ae	5d		 pop	 ebp
  000af	c3		 ret	 0
?_Tidy@?$_Tree@V?$_Tmap_traits@PAUHWND__@@UWndMoveData@@U?$less@PAUHWND__@@@std@@V?$allocator@U?$pair@QAUHWND__@@UWndMoveData@@@std@@@4@$0A@@std@@@std@@IAEXXZ ENDP ; std::_Tree<std::_Tmap_traits<HWND__ *,WndMoveData,std::less<HWND__ *>,std::allocator<std::pair<HWND__ * const,WndMoveData> >,0> >::_Tidy
; Function compile flags: /Odt
; File d:\program files (x86)\microsoft visual studio .net 2003\vc7\include\xmemory
_TEXT	ENDS
;	COMDAT ??0?$allocator@U?$pair@QAUHWND__@@UWndMoveData@@@std@@@std@@QAE@XZ
_TEXT	SEGMENT
_this$ = -4						; size = 4
??0?$allocator@U?$pair@QAUHWND__@@UWndMoveData@@@std@@@std@@QAE@XZ PROC NEAR ; std::allocator<std::pair<HWND__ * const,WndMoveData> >::allocator<std::pair<HWND__ * const,WndMoveData> >, COMDAT
; _this$ = ecx

; 111  : 	allocator()

  00000	55		 push	 ebp
  00001	8b ec		 mov	 ebp, esp
  00003	51		 push	 ecx
  00004	89 4d fc	 mov	 DWORD PTR _this$[ebp], ecx

; 112  : 		{	// construct default allocator (do nothing)
; 113  : 		}

  00007	8b 45 fc	 mov	 eax, DWORD PTR _this$[ebp]
  0000a	8b e5		 mov	 esp, ebp
  0000c	5d		 pop	 ebp
  0000d	c3		 ret	 0
??0?$allocator@U?$pair@QAUHWND__@@UWndMoveData@@@std@@@std@@QAE@XZ ENDP ; std::allocator<std::pair<HWND__ * const,WndMoveData> >::allocator<std::pair<HWND__ * const,WndMoveData> >
; Function compile flags: /Odt
; File d:\program files (x86)\microsoft visual studio .net 2003\vc7\include\functional
_TEXT	ENDS
;	COMDAT ??R?$less@PAUHWND__@@@std@@QBE_NABQAUHWND__@@0@Z
_TEXT	SEGMENT
_this$ = -4						; size = 4
__Left$ = 8						; size = 4
__Right$ = 12						; size = 4
??R?$less@PAUHWND__@@@std@@QBE_NABQAUHWND__@@0@Z PROC NEAR ; std::less<HWND__ *>::operator(), COMDAT
; _this$ = ecx

; 138  : 		{	// apply operator< to operands

  00000	55		 push	 ebp
  00001	8b ec		 mov	 ebp, esp
  00003	51		 push	 ecx
  00004	89 4d fc	 mov	 DWORD PTR _this$[ebp], ecx

; 139  : 		return (_Left < _Right);

  00007	8b 45 08	 mov	 eax, DWORD PTR __Left$[ebp]
  0000a	8b 4d 0c	 mov	 ecx, DWORD PTR __Right$[ebp]
  0000d	8b 10		 mov	 edx, DWORD PTR [eax]
  0000f	3b 11		 cmp	 edx, DWORD PTR [ecx]
  00011	1b c0		 sbb	 eax, eax
  00013	f7 d8		 neg	 eax

; 140  : 		}

  00015	8b e5		 mov	 esp, ebp
  00017	5d		 pop	 ebp
  00018	c2 08 00	 ret	 8
??R?$less@PAUHWND__@@@std@@QBE_NABQAUHWND__@@0@Z ENDP	; std::less<HWND__ *>::operator()
_TEXT	ENDS
PUBLIC	??0const_iterator@?$_Tree@V?$_Tmap_traits@PAUHWND__@@UWndMoveData@@U?$less@PAUHWND__@@@std@@V?$allocator@U?$pair@QAUHWND__@@UWndMoveData@@@std@@@4@$0A@@std@@@std@@QAE@PAU_Node@?$_Tree_nod@V?$_Tmap_traits@PAUHWND__@@UWndMoveData@@U?$less@PAUHWND__@@@std@@V?$allocator@U?$pair@QAUHWND__@@UWndMoveData@@@std@@@4@$0A@@std@@@2@@Z ; std::_Tree<std::_Tmap_traits<HWND__ *,WndMoveData,std::less<HWND__ *>,std::allocator<std::pair<HWND__ * const,WndMoveData> >,0> >::const_iterator::const_iterator
; Function compile flags: /Odt
; File d:\program files (x86)\microsoft visual studio .net 2003\vc7\include\xtree
;	COMDAT ??0iterator@?$_Tree@V?$_Tmap_traits@PAUHWND__@@UWndMoveData@@U?$less@PAUHWND__@@@std@@V?$allocator@U?$pair@QAUHWND__@@UWndMoveData@@@std@@@4@$0A@@std@@@std@@QAE@PAU_Node@?$_Tree_nod@V?$_Tmap_traits@PAUHWND__@@UWndMoveData@@U?$less@PAUHWND__@@@std@@V?$allocator@U?$pair@QAUHWND__@@UWndMoveData@@@std@@@4@$0A@@std@@@2@@Z
_TEXT	SEGMENT
_this$ = -4						; size = 4
__Pnode$ = 8						; size = 4
??0iterator@?$_Tree@V?$_Tmap_traits@PAUHWND__@@UWndMoveData@@U?$less@PAUHWND__@@@std@@V?$allocator@U?$pair@QAUHWND__@@UWndMoveData@@@std@@@4@$0A@@std@@@std@@QAE@PAU_Node@?$_Tree_nod@V?$_Tmap_traits@PAUHWND__@@UWndMoveData@@U?$less@PAUHWND__@@@std@@V?$allocator@U?$pair@QAUHWND__@@UWndMoveData@@@std@@@4@$0A@@std@@@2@@Z PROC NEAR ; std::_Tree<std::_Tmap_traits<HWND__ *,WndMoveData,std::less<HWND__ *>,std::allocator<std::pair<HWND__ * const,WndMoveData> >,0> >::iterator::iterator, COMDAT
; _this$ = ecx

; 312  : 			{	// construct with node pointer _Pnode

  00000	55		 push	 ebp
  00001	8b ec		 mov	 ebp, esp
  00003	51		 push	 ecx
  00004	89 4d fc	 mov	 DWORD PTR _this$[ebp], ecx
  00007	8b 45 08	 mov	 eax, DWORD PTR __Pnode$[ebp]
  0000a	50		 push	 eax
  0000b	8b 4d fc	 mov	 ecx, DWORD PTR _this$[ebp]
  0000e	e8 00 00 00 00	 call	 ??0const_iterator@?$_Tree@V?$_Tmap_traits@PAUHWND__@@UWndMoveData@@U?$less@PAUHWND__@@@std@@V?$allocator@U?$pair@QAUHWND__@@UWndMoveData@@@std@@@4@$0A@@std@@@std@@QAE@PAU_Node@?$_Tree_nod@V?$_Tmap_traits@PAUHWND__@@UWndMoveData@@U?$less@PAUHWND__@@@std@@V?$allocator@U?$pair@QAUHWND__@@UWndMoveData@@@std@@@4@$0A@@std@@@2@@Z ; std::_Tree<std::_Tmap_traits<HWND__ *,WndMoveData,std::less<HWND__ *>,std::allocator<std::pair<HWND__ * const,WndMoveData> >,0> >::const_iterator::const_iterator

; 313  : 			}

  00013	8b 45 fc	 mov	 eax, DWORD PTR _this$[ebp]
  00016	8b e5		 mov	 esp, ebp
  00018	5d		 pop	 ebp
  00019	c2 04 00	 ret	 4
??0iterator@?$_Tree@V?$_Tmap_traits@PAUHWND__@@UWndMoveData@@U?$less@PAUHWND__@@@std@@V?$allocator@U?$pair@QAUHWND__@@UWndMoveData@@@std@@@4@$0A@@std@@@std@@QAE@PAU_Node@?$_Tree_nod@V?$_Tmap_traits@PAUHWND__@@UWndMoveData@@U?$less@PAUHWND__@@@std@@V?$allocator@U?$pair@QAUHWND__@@UWndMoveData@@@std@@@4@$0A@@std@@@2@@Z ENDP ; std::_Tree<std::_Tmap_traits<HWND__ *,WndMoveData,std::less<HWND__ *>,std::allocator<std::pair<HWND__ * const,WndMoveData> >,0> >::iterator::iterator
_TEXT	ENDS
PUBLIC	??Dconst_iterator@?$_Tree@V?$_Tmap_traits@PAUHWND__@@UWndMoveData@@U?$less@PAUHWND__@@@std@@V?$allocator@U?$pair@QAUHWND__@@UWndMoveData@@@std@@@4@$0A@@std@@@std@@QBEABU?$pair@QAUHWND__@@UWndMoveData@@@2@XZ ; std::_Tree<std::_Tmap_traits<HWND__ *,WndMoveData,std::less<HWND__ *>,std::allocator<std::pair<HWND__ * const,WndMoveData> >,0> >::const_iterator::operator*
; Function compile flags: /Odt
;	COMDAT ??Diterator@?$_Tree@V?$_Tmap_traits@PAUHWND__@@UWndMoveData@@U?$less@PAUHWND__@@@std@@V?$allocator@U?$pair@QAUHWND__@@UWndMoveData@@@std@@@4@$0A@@std@@@std@@QBEAAU?$pair@QAUHWND__@@UWndMoveData@@@2@XZ
_TEXT	SEGMENT
_this$ = -4						; size = 4
??Diterator@?$_Tree@V?$_Tmap_traits@PAUHWND__@@UWndMoveData@@U?$less@PAUHWND__@@@std@@V?$allocator@U?$pair@QAUHWND__@@UWndMoveData@@@std@@@4@$0A@@std@@@std@@QBEAAU?$pair@QAUHWND__@@UWndMoveData@@@2@XZ PROC NEAR ; std::_Tree<std::_Tmap_traits<HWND__ *,WndMoveData,std::less<HWND__ *>,std::allocator<std::pair<HWND__ * const,WndMoveData> >,0> >::iterator::operator*, COMDAT
; _this$ = ecx

; 316  : 			{	// return designated value

  00000	55		 push	 ebp
  00001	8b ec		 mov	 ebp, esp
  00003	51		 push	 ecx
  00004	89 4d fc	 mov	 DWORD PTR _this$[ebp], ecx

; 317  : 			return ((reference)**(const_iterator *)this);

  00007	8b 4d fc	 mov	 ecx, DWORD PTR _this$[ebp]
  0000a	e8 00 00 00 00	 call	 ??Dconst_iterator@?$_Tree@V?$_Tmap_traits@PAUHWND__@@UWndMoveData@@U?$less@PAUHWND__@@@std@@V?$allocator@U?$pair@QAUHWND__@@UWndMoveData@@@std@@@4@$0A@@std@@@std@@QBEABU?$pair@QAUHWND__@@UWndMoveData@@@2@XZ ; std::_Tree<std::_Tmap_traits<HWND__ *,WndMoveData,std::less<HWND__ *>,std::allocator<std::pair<HWND__ * const,WndMoveData> >,0> >::const_iterator::operator*

; 318  : 			}

  0000f	8b e5		 mov	 esp, ebp
  00011	5d		 pop	 ebp
  00012	c3		 ret	 0
??Diterator@?$_Tree@V?$_Tmap_traits@PAUHWND__@@UWndMoveData@@U?$less@PAUHWND__@@@std@@V?$allocator@U?$pair@QAUHWND__@@UWndMoveData@@@std@@@4@$0A@@std@@@std@@QBEAAU?$pair@QAUHWND__@@UWndMoveData@@@2@XZ ENDP ; std::_Tree<std::_Tmap_traits<HWND__ *,WndMoveData,std::less<HWND__ *>,std::allocator<std::pair<HWND__ * const,WndMoveData> >,0> >::iterator::operator*
_TEXT	ENDS
PUBLIC	??Econst_iterator@?$_Tree@V?$_Tmap_traits@PAUHWND__@@UWndMoveData@@U?$less@PAUHWND__@@@std@@V?$allocator@U?$pair@QAUHWND__@@UWndMoveData@@@std@@@4@$0A@@std@@@std@@QAEAAV012@XZ ; std::_Tree<std::_Tmap_traits<HWND__ *,WndMoveData,std::less<HWND__ *>,std::allocator<std::pair<HWND__ * const,WndMoveData> >,0> >::const_iterator::operator++
; Function compile flags: /Odt
;	COMDAT ??Eiterator@?$_Tree@V?$_Tmap_traits@PAUHWND__@@UWndMoveData@@U?$less@PAUHWND__@@@std@@V?$allocator@U?$pair@QAUHWND__@@UWndMoveData@@@std@@@4@$0A@@std@@@std@@QAEAAV012@XZ
_TEXT	SEGMENT
_this$ = -4						; size = 4
??Eiterator@?$_Tree@V?$_Tmap_traits@PAUHWND__@@UWndMoveData@@U?$less@PAUHWND__@@@std@@V?$allocator@U?$pair@QAUHWND__@@UWndMoveData@@@std@@@4@$0A@@std@@@std@@QAEAAV012@XZ PROC NEAR ; std::_Tree<std::_Tmap_traits<HWND__ *,WndMoveData,std::less<HWND__ *>,std::allocator<std::pair<HWND__ * const,WndMoveData> >,0> >::iterator::operator++, COMDAT
; _this$ = ecx

; 326  : 			{	// preincrement

  00000	55		 push	 ebp
  00001	8b ec		 mov	 ebp, esp
  00003	51		 push	 ecx
  00004	89 4d fc	 mov	 DWORD PTR _this$[ebp], ecx

; 327  : 			++(*(const_iterator *)this);

  00007	8b 4d fc	 mov	 ecx, DWORD PTR _this$[ebp]
  0000a	e8 00 00 00 00	 call	 ??Econst_iterator@?$_Tree@V?$_Tmap_traits@PAUHWND__@@UWndMoveData@@U?$less@PAUHWND__@@@std@@V?$allocator@U?$pair@QAUHWND__@@UWndMoveData@@@std@@@4@$0A@@std@@@std@@QAEAAV012@XZ ; std::_Tree<std::_Tmap_traits<HWND__ *,WndMoveData,std::less<HWND__ *>,std::allocator<std::pair<HWND__ * const,WndMoveData> >,0> >::const_iterator::operator++

; 328  : 			return (*this);

  0000f	8b 45 fc	 mov	 eax, DWORD PTR _this$[ebp]

; 329  : 			}

  00012	8b e5		 mov	 esp, ebp
  00014	5d		 pop	 ebp
  00015	c3		 ret	 0
??Eiterator@?$_Tree@V?$_Tmap_traits@PAUHWND__@@UWndMoveData@@U?$less@PAUHWND__@@@std@@V?$allocator@U?$pair@QAUHWND__@@UWndMoveData@@@std@@@4@$0A@@std@@@std@@QAEAAV012@XZ ENDP ; std::_Tree<std::_Tmap_traits<HWND__ *,WndMoveData,std::less<HWND__ *>,std::allocator<std::pair<HWND__ * const,WndMoveData> >,0> >::iterator::operator++
; Function compile flags: /Odt
_TEXT	ENDS
;	COMDAT ??0const_iterator@?$_Tree@V?$_Tmap_traits@PAUHWND__@@UWndMoveData@@U?$less@PAUHWND__@@@std@@V?$allocator@U?$pair@QAUHWND__@@UWndMoveData@@@std@@@4@$0A@@std@@@std@@QAE@XZ
_TEXT	SEGMENT
_this$ = -4						; size = 4
??0const_iterator@?$_Tree@V?$_Tmap_traits@PAUHWND__@@UWndMoveData@@U?$less@PAUHWND__@@@std@@V?$allocator@U?$pair@QAUHWND__@@UWndMoveData@@@std@@@4@$0A@@std@@@std@@QAE@XZ PROC NEAR ; std::_Tree<std::_Tmap_traits<HWND__ *,WndMoveData,std::less<HWND__ *>,std::allocator<std::pair<HWND__ * const,WndMoveData> >,0> >::const_iterator::const_iterator, COMDAT
; _this$ = ecx

; 193  : 			{	// construct with null node pointer

  00000	55		 push	 ebp
  00001	8b ec		 mov	 ebp, esp
  00003	51		 push	 ecx
  00004	89 4d fc	 mov	 DWORD PTR _this$[ebp], ecx
  00007	8b 45 fc	 mov	 eax, DWORD PTR _this$[ebp]
  0000a	c7 00 00 00 00
	00		 mov	 DWORD PTR [eax], 0

; 194  : 			}

  00010	8b 45 fc	 mov	 eax, DWORD PTR _this$[ebp]
  00013	8b e5		 mov	 esp, ebp
  00015	5d		 pop	 ebp
  00016	c3		 ret	 0
??0const_iterator@?$_Tree@V?$_Tmap_traits@PAUHWND__@@UWndMoveData@@U?$less@PAUHWND__@@@std@@V?$allocator@U?$pair@QAUHWND__@@UWndMoveData@@@std@@@4@$0A@@std@@@std@@QAE@XZ ENDP ; std::_Tree<std::_Tmap_traits<HWND__ *,WndMoveData,std::less<HWND__ *>,std::allocator<std::pair<HWND__ * const,WndMoveData> >,0> >::const_iterator::const_iterator
; Function compile flags: /Odt
_TEXT	ENDS
;	COMDAT ??8const_iterator@?$_Tree@V?$_Tmap_traits@PAUHWND__@@UWndMoveData@@U?$less@PAUHWND__@@@std@@V?$allocator@U?$pair@QAUHWND__@@UWndMoveData@@@std@@@4@$0A@@std@@@std@@QBE_NABV012@@Z
_TEXT	SEGMENT
_this$ = -4						; size = 4
__Right$ = 8						; size = 4
??8const_iterator@?$_Tree@V?$_Tmap_traits@PAUHWND__@@UWndMoveData@@U?$less@PAUHWND__@@@std@@V?$allocator@U?$pair@QAUHWND__@@UWndMoveData@@@std@@@4@$0A@@std@@@std@@QBE_NABV012@@Z PROC NEAR ; std::_Tree<std::_Tmap_traits<HWND__ *,WndMoveData,std::less<HWND__ *>,std::allocator<std::pair<HWND__ * const,WndMoveData> >,0> >::const_iterator::operator==, COMDAT
; _this$ = ecx

; 240  : 			{	// test for iterator equality

  00000	55		 push	 ebp
  00001	8b ec		 mov	 ebp, esp
  00003	51		 push	 ecx
  00004	89 4d fc	 mov	 DWORD PTR _this$[ebp], ecx

; 241  : 			return (_Ptr == _Right._Ptr);

  00007	8b 45 fc	 mov	 eax, DWORD PTR _this$[ebp]
  0000a	8b 4d 08	 mov	 ecx, DWORD PTR __Right$[ebp]
  0000d	8b 00		 mov	 eax, DWORD PTR [eax]
  0000f	2b 01		 sub	 eax, DWORD PTR [ecx]
  00011	f7 d8		 neg	 eax
  00013	1b c0		 sbb	 eax, eax
  00015	40		 inc	 eax

; 242  : 			}

  00016	8b e5		 mov	 esp, ebp
  00018	5d		 pop	 ebp
  00019	c2 04 00	 ret	 4
??8const_iterator@?$_Tree@V?$_Tmap_traits@PAUHWND__@@UWndMoveData@@U?$less@PAUHWND__@@@std@@V?$allocator@U?$pair@QAUHWND__@@UWndMoveData@@@std@@@4@$0A@@std@@@std@@QBE_NABV012@@Z ENDP ; std::_Tree<std::_Tmap_traits<HWND__ *,WndMoveData,std::less<HWND__ *>,std::allocator<std::pair<HWND__ * const,WndMoveData> >,0> >::const_iterator::operator==
; Function compile flags: /Odt
_TEXT	ENDS
;	COMDAT ?_Mynode@const_iterator@?$_Tree@V?$_Tmap_traits@PAUHWND__@@UWndMoveData@@U?$less@PAUHWND__@@@std@@V?$allocator@U?$pair@QAUHWND__@@UWndMoveData@@@std@@@4@$0A@@std@@@std@@QBEPAU_Node@?$_Tree_nod@V?$_Tmap_traits@PAUHWND__@@UWndMoveData@@U?$less@PAUHWND__@@@std@@V?$allocator@U?$pair@QAUHWND__@@UWndMoveData@@@std@@@4@$0A@@std@@@3@XZ
_TEXT	SEGMENT
_this$ = -4						; size = 4
?_Mynode@const_iterator@?$_Tree@V?$_Tmap_traits@PAUHWND__@@UWndMoveData@@U?$less@PAUHWND__@@@std@@V?$allocator@U?$pair@QAUHWND__@@UWndMoveData@@@std@@@4@$0A@@std@@@std@@QBEPAU_Node@?$_Tree_nod@V?$_Tmap_traits@PAUHWND__@@UWndMoveData@@U?$less@PAUHWND__@@@std@@V?$allocator@U?$pair@QAUHWND__@@UWndMoveData@@@std@@@4@$0A@@std@@@3@XZ PROC NEAR ; std::_Tree<std::_Tmap_traits<HWND__ *,WndMoveData,std::less<HWND__ *>,std::allocator<std::pair<HWND__ * const,WndMoveData> >,0> >::const_iterator::_Mynode, COMDAT
; _this$ = ecx

; 283  : 			{	// return node pointer

  00000	55		 push	 ebp
  00001	8b ec		 mov	 ebp, esp
  00003	51		 push	 ecx
  00004	89 4d fc	 mov	 DWORD PTR _this$[ebp], ecx

; 284  : 			return (_Ptr);

  00007	8b 45 fc	 mov	 eax, DWORD PTR _this$[ebp]
  0000a	8b 00		 mov	 eax, DWORD PTR [eax]

; 285  : 			}

  0000c	8b e5		 mov	 esp, ebp
  0000e	5d		 pop	 ebp
  0000f	c3		 ret	 0
?_Mynode@const_iterator@?$_Tree@V?$_Tmap_traits@PAUHWND__@@UWndMoveData@@U?$less@PAUHWND__@@@std@@V?$allocator@U?$pair@QAUHWND__@@UWndMoveData@@@std@@@4@$0A@@std@@@std@@QBEPAU_Node@?$_Tree_nod@V?$_Tmap_traits@PAUHWND__@@UWndMoveData@@U?$less@PAUHWND__@@@std@@V?$allocator@U?$pair@QAUHWND__@@UWndMoveData@@@std@@@4@$0A@@std@@@3@XZ ENDP ; std::_Tree<std::_Tmap_traits<HWND__ *,WndMoveData,std::less<HWND__ *>,std::allocator<std::pair<HWND__ * const,WndMoveData> >,0> >::const_iterator::_Mynode
; Function compile flags: /Odt
; File d:\program files (x86)\microsoft visual studio .net 2003\vc7\include\utility
_TEXT	ENDS
;	COMDAT ??0?$pair@QAUHWND__@@UWndMoveData@@@std@@QAE@ABQAUHWND__@@ABUWndMoveData@@@Z
_TEXT	SEGMENT
_this$ = -4						; size = 4
__Val1$ = 8						; size = 4
__Val2$ = 12						; size = 4
??0?$pair@QAUHWND__@@UWndMoveData@@@std@@QAE@ABQAUHWND__@@ABUWndMoveData@@@Z PROC NEAR ; std::pair<HWND__ * const,WndMoveData>::pair<HWND__ * const,WndMoveData>, COMDAT
; _this$ = ecx

; 34   : 		{	// construct from specified values

  00000	55		 push	 ebp
  00001	8b ec		 mov	 ebp, esp
  00003	51		 push	 ecx
  00004	56		 push	 esi
  00005	57		 push	 edi
  00006	89 4d fc	 mov	 DWORD PTR _this$[ebp], ecx
  00009	8b 45 fc	 mov	 eax, DWORD PTR _this$[ebp]
  0000c	8b 4d 08	 mov	 ecx, DWORD PTR __Val1$[ebp]
  0000f	8b 11		 mov	 edx, DWORD PTR [ecx]
  00011	89 10		 mov	 DWORD PTR [eax], edx
  00013	8b 75 0c	 mov	 esi, DWORD PTR __Val2$[ebp]
  00016	8b 7d fc	 mov	 edi, DWORD PTR _this$[ebp]
  00019	83 c7 04	 add	 edi, 4
  0001c	b9 07 00 00 00	 mov	 ecx, 7
  00021	f3 a5		 rep movsd

; 35   : 		}

  00023	8b 45 fc	 mov	 eax, DWORD PTR _this$[ebp]
  00026	5f		 pop	 edi
  00027	5e		 pop	 esi
  00028	8b e5		 mov	 esp, ebp
  0002a	5d		 pop	 ebp
  0002b	c2 08 00	 ret	 8
??0?$pair@QAUHWND__@@UWndMoveData@@@std@@QAE@ABQAUHWND__@@ABUWndMoveData@@@Z ENDP ; std::pair<HWND__ * const,WndMoveData>::pair<HWND__ * const,WndMoveData>
; Function compile flags: /Odt
; File d:\program files (x86)\microsoft visual studio .net 2003\vc7\include\xtree
_TEXT	ENDS
;	COMDAT ?_Isnil@?$_Tree@V?$_Tmap_traits@PAUHWND__@@UWndMoveData@@U?$less@PAUHWND__@@@std@@V?$allocator@U?$pair@QAUHWND__@@UWndMoveData@@@std@@@4@$0A@@std@@@std@@KAAADPAU_Node@?$_Tree_nod@V?$_Tmap_traits@PAUHWND__@@UWndMoveData@@U?$less@PAUHWND__@@@std@@V?$allocator@U?$pair@QAUHWND__@@UWndMoveData@@@std@@@4@$0A@@std@@@2@@Z
_TEXT	SEGMENT
__Pnode$ = 8						; size = 4
?_Isnil@?$_Tree@V?$_Tmap_traits@PAUHWND__@@UWndMoveData@@U?$less@PAUHWND__@@@std@@V?$allocator@U?$pair@QAUHWND__@@UWndMoveData@@@std@@@4@$0A@@std@@@std@@KAAADPAU_Node@?$_Tree_nod@V?$_Tmap_traits@PAUHWND__@@UWndMoveData@@U?$less@PAUHWND__@@@std@@V?$allocator@U?$pair@QAUHWND__@@UWndMoveData@@@std@@@4@$0A@@std@@@2@@Z PROC NEAR ; std::_Tree<std::_Tmap_traits<HWND__ *,WndMoveData,std::less<HWND__ *>,std::allocator<std::pair<HWND__ * const,WndMoveData> >,0> >::_Isnil, COMDAT

; 136  : 		{	// return reference to nil flag in node

  00000	55		 push	 ebp
  00001	8b ec		 mov	 ebp, esp

; 137  : 		return ((_Charref)(*_Pnode)._Isnil);

  00003	8b 45 08	 mov	 eax, DWORD PTR __Pnode$[ebp]
  00006	83 c0 2d	 add	 eax, 45			; 0000002dH

; 138  : 		}

  00009	5d		 pop	 ebp
  0000a	c3		 ret	 0
?_Isnil@?$_Tree@V?$_Tmap_traits@PAUHWND__@@UWndMoveData@@U?$less@PAUHWND__@@@std@@V?$allocator@U?$pair@QAUHWND__@@UWndMoveData@@@std@@@4@$0A@@std@@@std@@KAAADPAU_Node@?$_Tree_nod@V?$_Tmap_traits@PAUHWND__@@UWndMoveData@@U?$less@PAUHWND__@@@std@@V?$allocator@U?$pair@QAUHWND__@@UWndMoveData@@@std@@@4@$0A@@std@@@2@@Z ENDP ; std::_Tree<std::_Tmap_traits<HWND__ *,WndMoveData,std::less<HWND__ *>,std::allocator<std::pair<HWND__ * const,WndMoveData> >,0> >::_Isnil
; Function compile flags: /Odt
_TEXT	ENDS
;	COMDAT ?_Left@?$_Tree@V?$_Tmap_traits@PAUHWND__@@UWndMoveData@@U?$less@PAUHWND__@@@std@@V?$allocator@U?$pair@QAUHWND__@@UWndMoveData@@@std@@@4@$0A@@std@@@std@@KAAAPAU_Node@?$_Tree_nod@V?$_Tmap_traits@PAUHWND__@@UWndMoveData@@U?$less@PAUHWND__@@@std@@V?$allocator@U?$pair@QAUHWND__@@UWndMoveData@@@std@@@4@$0A@@std@@@2@PAU342@@Z
_TEXT	SEGMENT
__Pnode$ = 8						; size = 4
?_Left@?$_Tree@V?$_Tmap_traits@PAUHWND__@@UWndMoveData@@U?$less@PAUHWND__@@@std@@V?$allocator@U?$pair@QAUHWND__@@UWndMoveData@@@std@@@4@$0A@@std@@@std@@KAAAPAU_Node@?$_Tree_nod@V?$_Tmap_traits@PAUHWND__@@UWndMoveData@@U?$less@PAUHWND__@@@std@@V?$allocator@U?$pair@QAUHWND__@@UWndMoveData@@@std@@@4@$0A@@std@@@2@PAU342@@Z PROC NEAR ; std::_Tree<std::_Tmap_traits<HWND__ *,WndMoveData,std::less<HWND__ *>,std::allocator<std::pair<HWND__ * const,WndMoveData> >,0> >::_Left, COMDAT

; 146  : 		{	// return reference to left pointer in node

  00000	55		 push	 ebp
  00001	8b ec		 mov	 ebp, esp

; 147  : 		return ((_Nodepref)(*_Pnode)._Left);

  00003	8b 45 08	 mov	 eax, DWORD PTR __Pnode$[ebp]

; 148  : 		}

  00006	5d		 pop	 ebp
  00007	c3		 ret	 0
?_Left@?$_Tree@V?$_Tmap_traits@PAUHWND__@@UWndMoveData@@U?$less@PAUHWND__@@@std@@V?$allocator@U?$pair@QAUHWND__@@UWndMoveData@@@std@@@4@$0A@@std@@@std@@KAAAPAU_Node@?$_Tree_nod@V?$_Tmap_traits@PAUHWND__@@UWndMoveData@@U?$less@PAUHWND__@@@std@@V?$allocator@U?$pair@QAUHWND__@@UWndMoveData@@@std@@@4@$0A@@std@@@2@PAU342@@Z ENDP ; std::_Tree<std::_Tmap_traits<HWND__ *,WndMoveData,std::less<HWND__ *>,std::allocator<std::pair<HWND__ * const,WndMoveData> >,0> >::_Left
; Function compile flags: /Odt
_TEXT	ENDS
;	COMDAT ?_Parent@?$_Tree@V?$_Tmap_traits@PAUHWND__@@UWndMoveData@@U?$less@PAUHWND__@@@std@@V?$allocator@U?$pair@QAUHWND__@@UWndMoveData@@@std@@@4@$0A@@std@@@std@@KAAAPAU_Node@?$_Tree_nod@V?$_Tmap_traits@PAUHWND__@@UWndMoveData@@U?$less@PAUHWND__@@@std@@V?$allocator@U?$pair@QAUHWND__@@UWndMoveData@@@std@@@4@$0A@@std@@@2@PAU342@@Z
_TEXT	SEGMENT
__Pnode$ = 8						; size = 4
?_Parent@?$_Tree@V?$_Tmap_traits@PAUHWND__@@UWndMoveData@@U?$less@PAUHWND__@@@std@@V?$allocator@U?$pair@QAUHWND__@@UWndMoveData@@@std@@@4@$0A@@std@@@std@@KAAAPAU_Node@?$_Tree_nod@V?$_Tmap_traits@PAUHWND__@@UWndMoveData@@U?$less@PAUHWND__@@@std@@V?$allocator@U?$pair@QAUHWND__@@UWndMoveData@@@std@@@4@$0A@@std@@@2@PAU342@@Z PROC NEAR ; std::_Tree<std::_Tmap_traits<HWND__ *,WndMoveData,std::less<HWND__ *>,std::allocator<std::pair<HWND__ * const,WndMoveData> >,0> >::_Parent, COMDAT

; 151  : 		{	// return reference to parent pointer in node

  00000	55		 push	 ebp
  00001	8b ec		 mov	 ebp, esp

; 152  : 		return ((_Nodepref)(*_Pnode)._Parent);

  00003	8b 45 08	 mov	 eax, DWORD PTR __Pnode$[ebp]
  00006	83 c0 04	 add	 eax, 4

; 153  : 		}

  00009	5d		 pop	 ebp
  0000a	c3		 ret	 0
?_Parent@?$_Tree@V?$_Tmap_traits@PAUHWND__@@UWndMoveData@@U?$less@PAUHWND__@@@std@@V?$allocator@U?$pair@QAUHWND__@@UWndMoveData@@@std@@@4@$0A@@std@@@std@@KAAAPAU_Node@?$_Tree_nod@V?$_Tmap_traits@PAUHWND__@@UWndMoveData@@U?$less@PAUHWND__@@@std@@V?$allocator@U?$pair@QAUHWND__@@UWndMoveData@@@std@@@4@$0A@@std@@@2@PAU342@@Z ENDP ; std::_Tree<std::_Tmap_traits<HWND__ *,WndMoveData,std::less<HWND__ *>,std::allocator<std::pair<HWND__ * const,WndMoveData> >,0> >::_Parent
; Function compile flags: /Odt
_TEXT	ENDS
;	COMDAT ?_Right@?$_Tree@V?$_Tmap_traits@PAUHWND__@@UWndMoveData@@U?$less@PAUHWND__@@@std@@V?$allocator@U?$pair@QAUHWND__@@UWndMoveData@@@std@@@4@$0A@@std@@@std@@KAAAPAU_Node@?$_Tree_nod@V?$_Tmap_traits@PAUHWND__@@UWndMoveData@@U?$less@PAUHWND__@@@std@@V?$allocator@U?$pair@QAUHWND__@@UWndMoveData@@@std@@@4@$0A@@std@@@2@PAU342@@Z
_TEXT	SEGMENT
__Pnode$ = 8						; size = 4
?_Right@?$_Tree@V?$_Tmap_traits@PAUHWND__@@UWndMoveData@@U?$less@PAUHWND__@@@std@@V?$allocator@U?$pair@QAUHWND__@@UWndMoveData@@@std@@@4@$0A@@std@@@std@@KAAAPAU_Node@?$_Tree_nod@V?$_Tmap_traits@PAUHWND__@@UWndMoveData@@U?$less@PAUHWND__@@@std@@V?$allocator@U?$pair@QAUHWND__@@UWndMoveData@@@std@@@4@$0A@@std@@@2@PAU342@@Z PROC NEAR ; std::_Tree<std::_Tmap_traits<HWND__ *,WndMoveData,std::less<HWND__ *>,std::allocator<std::pair<HWND__ * const,WndMoveData> >,0> >::_Right, COMDAT

; 156  : 		{	// return reference to right pointer in node

  00000	55		 push	 ebp
  00001	8b ec		 mov	 ebp, esp

; 157  : 		return ((_Nodepref)(*_Pnode)._Right);

  00003	8b 45 08	 mov	 eax, DWORD PTR __Pnode$[ebp]
  00006	83 c0 08	 add	 eax, 8

; 158  : 		}

  00009	5d		 pop	 ebp
  0000a	c3		 ret	 0
?_Right@?$_Tree@V?$_Tmap_traits@PAUHWND__@@UWndMoveData@@U?$less@PAUHWND__@@@std@@V?$allocator@U?$pair@QAUHWND__@@UWndMoveData@@@std@@@4@$0A@@std@@@std@@KAAAPAU_Node@?$_Tree_nod@V?$_Tmap_traits@PAUHWND__@@UWndMoveData@@U?$less@PAUHWND__@@@std@@V?$allocator@U?$pair@QAUHWND__@@UWndMoveData@@@std@@@4@$0A@@std@@@2@PAU342@@Z ENDP ; std::_Tree<std::_Tmap_traits<HWND__ *,WndMoveData,std::less<HWND__ *>,std::allocator<std::pair<HWND__ * const,WndMoveData> >,0> >::_Right
; Function compile flags: /Odt
_TEXT	ENDS
;	COMDAT ?_Myval@?$_Tree@V?$_Tmap_traits@PAUHWND__@@UWndMoveData@@U?$less@PAUHWND__@@@std@@V?$allocator@U?$pair@QAUHWND__@@UWndMoveData@@@std@@@4@$0A@@std@@@std@@KAAAU?$pair@QAUHWND__@@UWndMoveData@@@2@PAU_Node@?$_Tree_nod@V?$_Tmap_traits@PAUHWND__@@UWndMoveData@@U?$less@PAUHWND__@@@std@@V?$allocator@U?$pair@QAUHWND__@@UWndMoveData@@@std@@@4@$0A@@std@@@2@@Z
_TEXT	SEGMENT
__Pnode$ = 8						; size = 4
?_Myval@?$_Tree@V?$_Tmap_traits@PAUHWND__@@UWndMoveData@@U?$less@PAUHWND__@@@std@@V?$allocator@U?$pair@QAUHWND__@@UWndMoveData@@@std@@@4@$0A@@std@@@std@@KAAAU?$pair@QAUHWND__@@UWndMoveData@@@2@PAU_Node@?$_Tree_nod@V?$_Tmap_traits@PAUHWND__@@UWndMoveData@@U?$less@PAUHWND__@@@std@@V?$allocator@U?$pair@QAUHWND__@@UWndMoveData@@@std@@@4@$0A@@std@@@2@@Z PROC NEAR ; std::_Tree<std::_Tmap_traits<HWND__ *,WndMoveData,std::less<HWND__ *>,std::allocator<std::pair<HWND__ * const,WndMoveData> >,0> >::_Myval, COMDAT

; 161  : 		{	// return reference to value in node

  00000	55		 push	 ebp
  00001	8b ec		 mov	 ebp, esp

; 162  : 		return ((_Vref)(*_Pnode)._Myval);

  00003	8b 45 08	 mov	 eax, DWORD PTR __Pnode$[ebp]
  00006	83 c0 0c	 add	 eax, 12			; 0000000cH

; 163  : 		}

  00009	5d		 pop	 ebp
  0000a	c3		 ret	 0
?_Myval@?$_Tree@V?$_Tmap_traits@PAUHWND__@@UWndMoveData@@U?$less@PAUHWND__@@@std@@V?$allocator@U?$pair@QAUHWND__@@UWndMoveData@@@std@@@4@$0A@@std@@@std@@KAAAU?$pair@QAUHWND__@@UWndMoveData@@@2@PAU_Node@?$_Tree_nod@V?$_Tmap_traits@PAUHWND__@@UWndMoveData@@U?$less@PAUHWND__@@@std@@V?$allocator@U?$pair@QAUHWND__@@UWndMoveData@@@std@@@4@$0A@@std@@@2@@Z ENDP ; std::_Tree<std::_Tmap_traits<HWND__ *,WndMoveData,std::less<HWND__ *>,std::allocator<std::pair<HWND__ * const,WndMoveData> >,0> >::_Myval
; Function compile flags: /Odt
_TEXT	ENDS
;	COMDAT ?size@?$_Tree@V?$_Tmap_traits@PAUHWND__@@UWndMoveData@@U?$less@PAUHWND__@@@std@@V?$allocator@U?$pair@QAUHWND__@@UWndMoveData@@@std@@@4@$0A@@std@@@std@@QBEIXZ
_TEXT	SEGMENT
_this$ = -4						; size = 4
?size@?$_Tree@V?$_Tmap_traits@PAUHWND__@@UWndMoveData@@U?$less@PAUHWND__@@@std@@V?$allocator@U?$pair@QAUHWND__@@UWndMoveData@@@std@@@4@$0A@@std@@@std@@QBEIXZ PROC NEAR ; std::_Tree<std::_Tmap_traits<HWND__ *,WndMoveData,std::less<HWND__ *>,std::allocator<std::pair<HWND__ * const,WndMoveData> >,0> >::size, COMDAT
; _this$ = ecx

; 447  : 		{	// return length of sequence

  00000	55		 push	 ebp
  00001	8b ec		 mov	 ebp, esp
  00003	51		 push	 ecx
  00004	89 4d fc	 mov	 DWORD PTR _this$[ebp], ecx

; 448  : 		return (_Mysize);

  00007	8b 45 fc	 mov	 eax, DWORD PTR _this$[ebp]
  0000a	8b 40 08	 mov	 eax, DWORD PTR [eax+8]

; 449  : 		}

  0000d	8b e5		 mov	 esp, ebp
  0000f	5d		 pop	 ebp
  00010	c3		 ret	 0
?size@?$_Tree@V?$_Tmap_traits@PAUHWND__@@UWndMoveData@@U?$less@PAUHWND__@@@std@@V?$allocator@U?$pair@QAUHWND__@@UWndMoveData@@@std@@@4@$0A@@std@@@std@@QBEIXZ ENDP ; std::_Tree<std::_Tmap_traits<HWND__ *,WndMoveData,std::less<HWND__ *>,std::allocator<std::pair<HWND__ * const,WndMoveData> >,0> >::size
_TEXT	ENDS
PUBLIC	??0?$pair@Viterator@?$_Tree@V?$_Tmap_traits@PAUHWND__@@UWndMoveData@@U?$less@PAUHWND__@@@std@@V?$allocator@U?$pair@QAUHWND__@@UWndMoveData@@@std@@@4@$0A@@std@@@std@@_N@std@@QAE@ABViterator@?$_Tree@V?$_Tmap_traits@PAUHWND__@@UWndMoveData@@U?$less@PAUHWND__@@@std@@V?$allocator@U?$pair@QAUHWND__@@UWndMoveData@@@std@@@4@$0A@@std@@@1@AB_N@Z ; std::pair<std::_Tree<std::_Tmap_traits<HWND__ *,WndMoveData,std::less<HWND__ *>,std::allocator<std::pair<HWND__ * const,WndMoveData> >,0> >::iterator,bool>::pair<std::_Tree<std::_Tmap_traits<HWND__ *,WndMoveData,std::less<HWND__ *>,std::allocator<std::pair<HWND__ * const,WndMoveData> >,0> >::iterator,bool>
; Function compile flags: /Odt
;	COMDAT ?insert@?$_Tree@V?$_Tmap_traits@PAUHWND__@@UWndMoveData@@U?$less@PAUHWND__@@@std@@V?$allocator@U?$pair@QAUHWND__@@UWndMoveData@@@std@@@4@$0A@@std@@@std@@QAE?AU?$pair@Viterator@?$_Tree@V?$_Tmap_traits@PAUHWND__@@UWndMoveData@@U?$less@PAUHWND__@@@std@@V?$allocator@U?$pair@QAUHWND__@@UWndMoveData@@@std@@@4@$0A@@std@@@std@@_N@2@ABU?$pair@QAUHWND__@@UWndMoveData@@@2@@Z
_TEXT	SEGMENT
tv85 = -56						; size = 4
_this$ = -52						; size = 4
$T200114 = -45						; size = 1
$T200113 = -44						; size = 4
$T200112 = -37						; size = 1
$T200111 = -36						; size = 4
$T200110 = -29						; size = 1
$T200109 = -28						; size = 4
$T200108 = -24						; size = 4
$T200107 = -17						; size = 1
__Where$199112 = -16					; size = 4
__Trynode$ = -12					; size = 4
__Wherenode$ = -8					; size = 4
__Addleft$ = -1						; size = 1
___$ReturnUdt$ = 8					; size = 4
__Val$ = 12						; size = 4
?insert@?$_Tree@V?$_Tmap_traits@PAUHWND__@@UWndMoveData@@U?$less@PAUHWND__@@@std@@V?$allocator@U?$pair@QAUHWND__@@UWndMoveData@@@std@@@4@$0A@@std@@@std@@QAE?AU?$pair@Viterator@?$_Tree@V?$_Tmap_traits@PAUHWND__@@UWndMoveData@@U?$less@PAUHWND__@@@std@@V?$allocator@U?$pair@QAUHWND__@@UWndMoveData@@@std@@@4@$0A@@std@@@std@@_N@2@ABU?$pair@QAUHWND__@@UWndMoveData@@@2@@Z PROC NEAR ; std::_Tree<std::_Tmap_traits<HWND__ *,WndMoveData,std::less<HWND__ *>,std::allocator<std::pair<HWND__ * const,WndMoveData> >,0> >::insert, COMDAT
; _this$ = ecx

; 477  : 		{	// try to insert node with value _Val

  00000	55		 push	 ebp
  00001	8b ec		 mov	 ebp, esp
  00003	83 ec 38	 sub	 esp, 56			; 00000038H
  00006	89 4d cc	 mov	 DWORD PTR _this$[ebp], ecx

; 478  : 		_Nodeptr _Trynode = _Root();

  00009	8b 4d cc	 mov	 ecx, DWORD PTR _this$[ebp]
  0000c	e8 00 00 00 00	 call	 ?_Root@?$_Tree@V?$_Tmap_traits@PAUHWND__@@UWndMoveData@@U?$less@PAUHWND__@@@std@@V?$allocator@U?$pair@QAUHWND__@@UWndMoveData@@@std@@@4@$0A@@std@@@std@@IAEAAPAU_Node@?$_Tree_nod@V?$_Tmap_traits@PAUHWND__@@UWndMoveData@@U?$less@PAUHWND__@@@std@@V?$allocator@U?$pair@QAUHWND__@@UWndMoveData@@@std@@@4@$0A@@std@@@2@XZ ; std::_Tree<std::_Tmap_traits<HWND__ *,WndMoveData,std::less<HWND__ *>,std::allocator<std::pair<HWND__ * const,WndMoveData> >,0> >::_Root
  00011	8b 00		 mov	 eax, DWORD PTR [eax]
  00013	89 45 f4	 mov	 DWORD PTR __Trynode$[ebp], eax

; 479  : 		_Nodeptr _Wherenode = _Myhead;

  00016	8b 4d cc	 mov	 ecx, DWORD PTR _this$[ebp]
  00019	8b 51 04	 mov	 edx, DWORD PTR [ecx+4]
  0001c	89 55 f8	 mov	 DWORD PTR __Wherenode$[ebp], edx

; 480  : 		bool _Addleft = true;	// add to left of head if tree empty

  0001f	c6 45 ff 01	 mov	 BYTE PTR __Addleft$[ebp], 1
$L199101:

; 481  : 		while (!_Isnil(_Trynode))

  00023	8b 45 f4	 mov	 eax, DWORD PTR __Trynode$[ebp]
  00026	50		 push	 eax
  00027	e8 00 00 00 00	 call	 ?_Isnil@?$_Tree@V?$_Tmap_traits@PAUHWND__@@UWndMoveData@@U?$less@PAUHWND__@@@std@@V?$allocator@U?$pair@QAUHWND__@@UWndMoveData@@@std@@@4@$0A@@std@@@std@@KAAADPAU_Node@?$_Tree_nod@V?$_Tmap_traits@PAUHWND__@@UWndMoveData@@U?$less@PAUHWND__@@@std@@V?$allocator@U?$pair@QAUHWND__@@UWndMoveData@@@std@@@4@$0A@@std@@@2@@Z ; std::_Tree<std::_Tmap_traits<HWND__ *,WndMoveData,std::less<HWND__ *>,std::allocator<std::pair<HWND__ * const,WndMoveData> >,0> >::_Isnil
  0002c	83 c4 04	 add	 esp, 4
  0002f	0f be 08	 movsx	 ecx, BYTE PTR [eax]
  00032	85 c9		 test	 ecx, ecx
  00034	75 5f		 jne	 SHORT $L199102

; 482  : 			{	// look for leaf to insert before (_Addleft) or after
; 483  : 			_Wherenode = _Trynode;

  00036	8b 55 f4	 mov	 edx, DWORD PTR __Trynode$[ebp]
  00039	89 55 f8	 mov	 DWORD PTR __Wherenode$[ebp], edx

; 484  : 			_Addleft = this->comp(this->_Kfn(_Val), _Key(_Trynode));

  0003c	8b 45 f4	 mov	 eax, DWORD PTR __Trynode$[ebp]
  0003f	50		 push	 eax
  00040	e8 00 00 00 00	 call	 ?_Key@?$_Tree@V?$_Tmap_traits@PAUHWND__@@UWndMoveData@@U?$less@PAUHWND__@@@std@@V?$allocator@U?$pair@QAUHWND__@@UWndMoveData@@@std@@@4@$0A@@std@@@std@@KAABQAUHWND__@@PAU_Node@?$_Tree_nod@V?$_Tmap_traits@PAUHWND__@@UWndMoveData@@U?$less@PAUHWND__@@@std@@V?$allocator@U?$pair@QAUHWND__@@UWndMoveData@@@std@@@4@$0A@@std@@@2@@Z ; std::_Tree<std::_Tmap_traits<HWND__ *,WndMoveData,std::less<HWND__ *>,std::allocator<std::pair<HWND__ * const,WndMoveData> >,0> >::_Key
  00045	83 c4 04	 add	 esp, 4
  00048	50		 push	 eax
  00049	8b 4d 0c	 mov	 ecx, DWORD PTR __Val$[ebp]
  0004c	51		 push	 ecx
  0004d	e8 00 00 00 00	 call	 ?_Kfn@?$_Tmap_traits@PAUHWND__@@UWndMoveData@@U?$less@PAUHWND__@@@std@@V?$allocator@U?$pair@QAUHWND__@@UWndMoveData@@@std@@@4@$0A@@std@@SAABQAUHWND__@@ABU?$pair@QAUHWND__@@UWndMoveData@@@2@@Z ; std::_Tmap_traits<HWND__ *,WndMoveData,std::less<HWND__ *>,std::allocator<std::pair<HWND__ * const,WndMoveData> >,0>::_Kfn
  00052	83 c4 04	 add	 esp, 4
  00055	50		 push	 eax
  00056	8b 4d cc	 mov	 ecx, DWORD PTR _this$[ebp]
  00059	e8 00 00 00 00	 call	 ??R?$less@PAUHWND__@@@std@@QBE_NABQAUHWND__@@0@Z ; std::less<HWND__ *>::operator()
  0005e	88 45 ff	 mov	 BYTE PTR __Addleft$[ebp], al

; 485  : 			_Trynode = _Addleft ? _Left(_Trynode) : _Right(_Trynode);

  00061	0f b6 55 ff	 movzx	 edx, BYTE PTR __Addleft$[ebp]
  00065	85 d2		 test	 edx, edx
  00067	74 13		 je	 SHORT $L200105
  00069	8b 45 f4	 mov	 eax, DWORD PTR __Trynode$[ebp]
  0006c	50		 push	 eax
  0006d	e8 00 00 00 00	 call	 ?_Left@?$_Tree@V?$_Tmap_traits@PAUHWND__@@UWndMoveData@@U?$less@PAUHWND__@@@std@@V?$allocator@U?$pair@QAUHWND__@@UWndMoveData@@@std@@@4@$0A@@std@@@std@@KAAAPAU_Node@?$_Tree_nod@V?$_Tmap_traits@PAUHWND__@@UWndMoveData@@U?$less@PAUHWND__@@@std@@V?$allocator@U?$pair@QAUHWND__@@UWndMoveData@@@std@@@4@$0A@@std@@@2@PAU342@@Z ; std::_Tree<std::_Tmap_traits<HWND__ *,WndMoveData,std::less<HWND__ *>,std::allocator<std::pair<HWND__ * const,WndMoveData> >,0> >::_Left
  00072	83 c4 04	 add	 esp, 4
  00075	8b 08		 mov	 ecx, DWORD PTR [eax]
  00077	89 4d c8	 mov	 DWORD PTR tv85[ebp], ecx
  0007a	eb 11		 jmp	 SHORT $L200106
$L200105:
  0007c	8b 55 f4	 mov	 edx, DWORD PTR __Trynode$[ebp]
  0007f	52		 push	 edx
  00080	e8 00 00 00 00	 call	 ?_Right@?$_Tree@V?$_Tmap_traits@PAUHWND__@@UWndMoveData@@U?$less@PAUHWND__@@@std@@V?$allocator@U?$pair@QAUHWND__@@UWndMoveData@@@std@@@4@$0A@@std@@@std@@KAAAPAU_Node@?$_Tree_nod@V?$_Tmap_traits@PAUHWND__@@UWndMoveData@@U?$less@PAUHWND__@@@std@@V?$allocator@U?$pair@QAUHWND__@@UWndMoveData@@@std@@@4@$0A@@std@@@2@PAU342@@Z ; std::_Tree<std::_Tmap_traits<HWND__ *,WndMoveData,std::less<HWND__ *>,std::allocator<std::pair<HWND__ * const,WndMoveData> >,0> >::_Right
  00085	83 c4 04	 add	 esp, 4
  00088	8b 00		 mov	 eax, DWORD PTR [eax]
  0008a	89 45 c8	 mov	 DWORD PTR tv85[ebp], eax
$L200106:
  0008d	8b 4d c8	 mov	 ecx, DWORD PTR tv85[ebp]
  00090	89 4d f4	 mov	 DWORD PTR __Trynode$[ebp], ecx

; 486  : 			}

  00093	eb 8e		 jmp	 SHORT $L199101
$L199102:

; 487  : 
; 488  : 		if (this->_Multi)

  00095	33 d2		 xor	 edx, edx
  00097	74 31		 je	 SHORT $L199103

; 489  : 			return (_Pairib(_Insert(_Addleft, _Wherenode, _Val), true));

  00099	c6 45 ef 01	 mov	 BYTE PTR $T200107[ebp], 1
  0009d	8d 45 ef	 lea	 eax, DWORD PTR $T200107[ebp]
  000a0	50		 push	 eax
  000a1	8b 4d 0c	 mov	 ecx, DWORD PTR __Val$[ebp]
  000a4	51		 push	 ecx
  000a5	8b 55 f8	 mov	 edx, DWORD PTR __Wherenode$[ebp]
  000a8	52		 push	 edx
  000a9	8a 45 ff	 mov	 al, BYTE PTR __Addleft$[ebp]
  000ac	50		 push	 eax
  000ad	8d 4d e8	 lea	 ecx, DWORD PTR $T200108[ebp]
  000b0	51		 push	 ecx
  000b1	8b 4d cc	 mov	 ecx, DWORD PTR _this$[ebp]
  000b4	e8 00 00 00 00	 call	 ?_Insert@?$_Tree@V?$_Tmap_traits@PAUHWND__@@UWndMoveData@@U?$less@PAUHWND__@@@std@@V?$allocator@U?$pair@QAUHWND__@@UWndMoveData@@@std@@@4@$0A@@std@@@std@@IAE?AViterator@12@_NPAU_Node@?$_Tree_nod@V?$_Tmap_traits@PAUHWND__@@UWndMoveData@@U?$less@PAUHWND__@@@std@@V?$allocator@U?$pair@QAUHWND__@@UWndMoveData@@@std@@@4@$0A@@std@@@2@ABU?$pair@QAUHWND__@@UWndMoveData@@@2@@Z ; std::_Tree<std::_Tmap_traits<HWND__ *,WndMoveData,std::less<HWND__ *>,std::allocator<std::pair<HWND__ * const,WndMoveData> >,0> >::_Insert
  000b9	50		 push	 eax
  000ba	8b 4d 08	 mov	 ecx, DWORD PTR ___$ReturnUdt$[ebp]
  000bd	e8 00 00 00 00	 call	 ??0?$pair@Viterator@?$_Tree@V?$_Tmap_traits@PAUHWND__@@UWndMoveData@@U?$less@PAUHWND__@@@std@@V?$allocator@U?$pair@QAUHWND__@@UWndMoveData@@@std@@@4@$0A@@std@@@std@@_N@std@@QAE@ABViterator@?$_Tree@V?$_Tmap_traits@PAUHWND__@@UWndMoveData@@U?$less@PAUHWND__@@@std@@V?$allocator@U?$pair@QAUHWND__@@UWndMoveData@@@std@@@4@$0A@@std@@@1@AB_N@Z ; std::pair<std::_Tree<std::_Tmap_traits<HWND__ *,WndMoveData,std::less<HWND__ *>,std::allocator<std::pair<HWND__ * const,WndMoveData> >,0> >::iterator,bool>::pair<std::_Tree<std::_Tmap_traits<HWND__ *,WndMoveData,std::less<HWND__ *>,std::allocator<std::pair<HWND__ * const,WndMoveData> >,0> >::iterator,bool>
  000c2	8b 45 08	 mov	 eax, DWORD PTR ___$ReturnUdt$[ebp]
  000c5	e9 d9 00 00 00	 jmp	 $L199096
$L199103:

; 490  : 		else
; 491  : 			{	// insert only if unique
; 492  : 			iterator _Where = _TREE_ITERATOR(_Wherenode);

  000ca	8b 55 f8	 mov	 edx, DWORD PTR __Wherenode$[ebp]
  000cd	52		 push	 edx
  000ce	8d 4d f0	 lea	 ecx, DWORD PTR __Where$199112[ebp]
  000d1	e8 00 00 00 00	 call	 ??0iterator@?$_Tree@V?$_Tmap_traits@PAUHWND__@@UWndMoveData@@U?$less@PAUHWND__@@@std@@V?$allocator@U?$pair@QAUHWND__@@UWndMoveData@@@std@@@4@$0A@@std@@@std@@QAE@PAU_Node@?$_Tree_nod@V?$_Tmap_traits@PAUHWND__@@UWndMoveData@@U?$less@PAUHWND__@@@std@@V?$allocator@U?$pair@QAUHWND__@@UWndMoveData@@@std@@@4@$0A@@std@@@2@@Z ; std::_Tree<std::_Tmap_traits<HWND__ *,WndMoveData,std::less<HWND__ *>,std::allocator<std::pair<HWND__ * const,WndMoveData> >,0> >::iterator::iterator

; 493  : 			if (!_Addleft)

  000d6	0f b6 45 ff	 movzx	 eax, BYTE PTR __Addleft$[ebp]
  000da	85 c0		 test	 eax, eax
  000dc	75 02		 jne	 SHORT $L199114

; 494  : 				;	// need to test if insert after is okay
; 495  : 			else if (_Where == begin())

  000de	eb 50		 jmp	 SHORT $L199115
$L199114:
  000e0	8d 4d e4	 lea	 ecx, DWORD PTR $T200109[ebp]
  000e3	51		 push	 ecx
  000e4	8b 4d cc	 mov	 ecx, DWORD PTR _this$[ebp]
  000e7	e8 00 00 00 00	 call	 ?begin@?$_Tree@V?$_Tmap_traits@PAUHWND__@@UWndMoveData@@U?$less@PAUHWND__@@@std@@V?$allocator@U?$pair@QAUHWND__@@UWndMoveData@@@std@@@4@$0A@@std@@@std@@QAE?AViterator@12@XZ ; std::_Tree<std::_Tmap_traits<HWND__ *,WndMoveData,std::less<HWND__ *>,std::allocator<std::pair<HWND__ * const,WndMoveData> >,0> >::begin
  000ec	50		 push	 eax
  000ed	8d 4d f0	 lea	 ecx, DWORD PTR __Where$199112[ebp]
  000f0	e8 00 00 00 00	 call	 ??8const_iterator@?$_Tree@V?$_Tmap_traits@PAUHWND__@@UWndMoveData@@U?$less@PAUHWND__@@@std@@V?$allocator@U?$pair@QAUHWND__@@UWndMoveData@@@std@@@4@$0A@@std@@@std@@QBE_NABV012@@Z ; std::_Tree<std::_Tmap_traits<HWND__ *,WndMoveData,std::less<HWND__ *>,std::allocator<std::pair<HWND__ * const,WndMoveData> >,0> >::const_iterator::operator==
  000f5	0f b6 d0	 movzx	 edx, al
  000f8	85 d2		 test	 edx, edx
  000fa	74 2c		 je	 SHORT $L199117

; 496  : 				return (_Pairib(_Insert(true, _Wherenode, _Val), true));

  000fc	c6 45 e3 01	 mov	 BYTE PTR $T200110[ebp], 1
  00100	8d 45 e3	 lea	 eax, DWORD PTR $T200110[ebp]
  00103	50		 push	 eax
  00104	8b 4d 0c	 mov	 ecx, DWORD PTR __Val$[ebp]
  00107	51		 push	 ecx
  00108	8b 55 f8	 mov	 edx, DWORD PTR __Wherenode$[ebp]
  0010b	52		 push	 edx
  0010c	6a 01		 push	 1
  0010e	8d 45 dc	 lea	 eax, DWORD PTR $T200111[ebp]
  00111	50		 push	 eax
  00112	8b 4d cc	 mov	 ecx, DWORD PTR _this$[ebp]
  00115	e8 00 00 00 00	 call	 ?_Insert@?$_Tree@V?$_Tmap_traits@PAUHWND__@@UWndMoveData@@U?$less@PAUHWND__@@@std@@V?$allocator@U?$pair@QAUHWND__@@UWndMoveData@@@std@@@4@$0A@@std@@@std@@IAE?AViterator@12@_NPAU_Node@?$_Tree_nod@V?$_Tmap_traits@PAUHWND__@@UWndMoveData@@U?$less@PAUHWND__@@@std@@V?$allocator@U?$pair@QAUHWND__@@UWndMoveData@@@std@@@4@$0A@@std@@@2@ABU?$pair@QAUHWND__@@UWndMoveData@@@2@@Z ; std::_Tree<std::_Tmap_traits<HWND__ *,WndMoveData,std::less<HWND__ *>,std::allocator<std::pair<HWND__ * const,WndMoveData> >,0> >::_Insert
  0011a	50		 push	 eax
  0011b	8b 4d 08	 mov	 ecx, DWORD PTR ___$ReturnUdt$[ebp]
  0011e	e8 00 00 00 00	 call	 ??0?$pair@Viterator@?$_Tree@V?$_Tmap_traits@PAUHWND__@@UWndMoveData@@U?$less@PAUHWND__@@@std@@V?$allocator@U?$pair@QAUHWND__@@UWndMoveData@@@std@@@4@$0A@@std@@@std@@_N@std@@QAE@ABViterator@?$_Tree@V?$_Tmap_traits@PAUHWND__@@UWndMoveData@@U?$less@PAUHWND__@@@std@@V?$allocator@U?$pair@QAUHWND__@@UWndMoveData@@@std@@@4@$0A@@std@@@1@AB_N@Z ; std::pair<std::_Tree<std::_Tmap_traits<HWND__ *,WndMoveData,std::less<HWND__ *>,std::allocator<std::pair<HWND__ * const,WndMoveData> >,0> >::iterator,bool>::pair<std::_Tree<std::_Tmap_traits<HWND__ *,WndMoveData,std::less<HWND__ *>,std::allocator<std::pair<HWND__ * const,WndMoveData> >,0> >::iterator,bool>
  00123	8b 45 08	 mov	 eax, DWORD PTR ___$ReturnUdt$[ebp]
  00126	eb 7b		 jmp	 SHORT $L199096
$L199117:

; 497  : 			else
; 498  : 				--_Where;	// need to test if insert before is okay

  00128	8d 4d f0	 lea	 ecx, DWORD PTR __Where$199112[ebp]
  0012b	e8 00 00 00 00	 call	 ??Fiterator@?$_Tree@V?$_Tmap_traits@PAUHWND__@@UWndMoveData@@U?$less@PAUHWND__@@@std@@V?$allocator@U?$pair@QAUHWND__@@UWndMoveData@@@std@@@4@$0A@@std@@@std@@QAEAAV012@XZ ; std::_Tree<std::_Tmap_traits<HWND__ *,WndMoveData,std::less<HWND__ *>,std::allocator<std::pair<HWND__ * const,WndMoveData> >,0> >::iterator::operator--
$L199115:

; 499  : 
; 500  : 			if (this->comp(_Key(_Where._Mynode()), this->_Kfn(_Val)))

  00130	8b 4d 0c	 mov	 ecx, DWORD PTR __Val$[ebp]
  00133	51		 push	 ecx
  00134	e8 00 00 00 00	 call	 ?_Kfn@?$_Tmap_traits@PAUHWND__@@UWndMoveData@@U?$less@PAUHWND__@@@std@@V?$allocator@U?$pair@QAUHWND__@@UWndMoveData@@@std@@@4@$0A@@std@@SAABQAUHWND__@@ABU?$pair@QAUHWND__@@UWndMoveData@@@2@@Z ; std::_Tmap_traits<HWND__ *,WndMoveData,std::less<HWND__ *>,std::allocator<std::pair<HWND__ * const,WndMoveData> >,0>::_Kfn
  00139	83 c4 04	 add	 esp, 4
  0013c	50		 push	 eax
  0013d	8d 4d f0	 lea	 ecx, DWORD PTR __Where$199112[ebp]
  00140	e8 00 00 00 00	 call	 ?_Mynode@const_iterator@?$_Tree@V?$_Tmap_traits@PAUHWND__@@UWndMoveData@@U?$less@PAUHWND__@@@std@@V?$allocator@U?$pair@QAUHWND__@@UWndMoveData@@@std@@@4@$0A@@std@@@std@@QBEPAU_Node@?$_Tree_nod@V?$_Tmap_traits@PAUHWND__@@UWndMoveData@@U?$less@PAUHWND__@@@std@@V?$allocator@U?$pair@QAUHWND__@@UWndMoveData@@@std@@@4@$0A@@std@@@3@XZ ; std::_Tree<std::_Tmap_traits<HWND__ *,WndMoveData,std::less<HWND__ *>,std::allocator<std::pair<HWND__ * const,WndMoveData> >,0> >::const_iterator::_Mynode
  00145	50		 push	 eax
  00146	e8 00 00 00 00	 call	 ?_Key@?$_Tree@V?$_Tmap_traits@PAUHWND__@@UWndMoveData@@U?$less@PAUHWND__@@@std@@V?$allocator@U?$pair@QAUHWND__@@UWndMoveData@@@std@@@4@$0A@@std@@@std@@KAABQAUHWND__@@PAU_Node@?$_Tree_nod@V?$_Tmap_traits@PAUHWND__@@UWndMoveData@@U?$less@PAUHWND__@@@std@@V?$allocator@U?$pair@QAUHWND__@@UWndMoveData@@@std@@@4@$0A@@std@@@2@@Z ; std::_Tree<std::_Tmap_traits<HWND__ *,WndMoveData,std::less<HWND__ *>,std::allocator<std::pair<HWND__ * const,WndMoveData> >,0> >::_Key
  0014b	83 c4 04	 add	 esp, 4
  0014e	50		 push	 eax
  0014f	8b 4d cc	 mov	 ecx, DWORD PTR _this$[ebp]
  00152	e8 00 00 00 00	 call	 ??R?$less@PAUHWND__@@@std@@QBE_NABQAUHWND__@@0@Z ; std::less<HWND__ *>::operator()
  00157	0f b6 d0	 movzx	 edx, al
  0015a	85 d2		 test	 edx, edx
  0015c	74 2e		 je	 SHORT $L199122

; 501  : 				return (_Pairib(_Insert(_Addleft, _Wherenode, _Val), true));

  0015e	c6 45 db 01	 mov	 BYTE PTR $T200112[ebp], 1
  00162	8d 45 db	 lea	 eax, DWORD PTR $T200112[ebp]
  00165	50		 push	 eax
  00166	8b 4d 0c	 mov	 ecx, DWORD PTR __Val$[ebp]
  00169	51		 push	 ecx
  0016a	8b 55 f8	 mov	 edx, DWORD PTR __Wherenode$[ebp]
  0016d	52		 push	 edx
  0016e	8a 45 ff	 mov	 al, BYTE PTR __Addleft$[ebp]
  00171	50		 push	 eax
  00172	8d 4d d4	 lea	 ecx, DWORD PTR $T200113[ebp]
  00175	51		 push	 ecx
  00176	8b 4d cc	 mov	 ecx, DWORD PTR _this$[ebp]
  00179	e8 00 00 00 00	 call	 ?_Insert@?$_Tree@V?$_Tmap_traits@PAUHWND__@@UWndMoveData@@U?$less@PAUHWND__@@@std@@V?$allocator@U?$pair@QAUHWND__@@UWndMoveData@@@std@@@4@$0A@@std@@@std@@IAE?AViterator@12@_NPAU_Node@?$_Tree_nod@V?$_Tmap_traits@PAUHWND__@@UWndMoveData@@U?$less@PAUHWND__@@@std@@V?$allocator@U?$pair@QAUHWND__@@UWndMoveData@@@std@@@4@$0A@@std@@@2@ABU?$pair@QAUHWND__@@UWndMoveData@@@2@@Z ; std::_Tree<std::_Tmap_traits<HWND__ *,WndMoveData,std::less<HWND__ *>,std::allocator<std::pair<HWND__ * const,WndMoveData> >,0> >::_Insert
  0017e	50		 push	 eax
  0017f	8b 4d 08	 mov	 ecx, DWORD PTR ___$ReturnUdt$[ebp]
  00182	e8 00 00 00 00	 call	 ??0?$pair@Viterator@?$_Tree@V?$_Tmap_traits@PAUHWND__@@UWndMoveData@@U?$less@PAUHWND__@@@std@@V?$allocator@U?$pair@QAUHWND__@@UWndMoveData@@@std@@@4@$0A@@std@@@std@@_N@std@@QAE@ABViterator@?$_Tree@V?$_Tmap_traits@PAUHWND__@@UWndMoveData@@U?$less@PAUHWND__@@@std@@V?$allocator@U?$pair@QAUHWND__@@UWndMoveData@@@std@@@4@$0A@@std@@@1@AB_N@Z ; std::pair<std::_Tree<std::_Tmap_traits<HWND__ *,WndMoveData,std::less<HWND__ *>,std::allocator<std::pair<HWND__ * const,WndMoveData> >,0> >::iterator,bool>::pair<std::_Tree<std::_Tmap_traits<HWND__ *,WndMoveData,std::less<HWND__ *>,std::allocator<std::pair<HWND__ * const,WndMoveData> >,0> >::iterator,bool>
  00187	8b 45 08	 mov	 eax, DWORD PTR ___$ReturnUdt$[ebp]
  0018a	eb 17		 jmp	 SHORT $L199096
$L199122:

; 502  : 			else
; 503  : 				return (_Pairib(_Where, false));

  0018c	c6 45 d3 00	 mov	 BYTE PTR $T200114[ebp], 0
  00190	8d 55 d3	 lea	 edx, DWORD PTR $T200114[ebp]
  00193	52		 push	 edx
  00194	8d 45 f0	 lea	 eax, DWORD PTR __Where$199112[ebp]
  00197	50		 push	 eax
  00198	8b 4d 08	 mov	 ecx, DWORD PTR ___$ReturnUdt$[ebp]
  0019b	e8 00 00 00 00	 call	 ??0?$pair@Viterator@?$_Tree@V?$_Tmap_traits@PAUHWND__@@UWndMoveData@@U?$less@PAUHWND__@@@std@@V?$allocator@U?$pair@QAUHWND__@@UWndMoveData@@@std@@@4@$0A@@std@@@std@@_N@std@@QAE@ABViterator@?$_Tree@V?$_Tmap_traits@PAUHWND__@@UWndMoveData@@U?$less@PAUHWND__@@@std@@V?$allocator@U?$pair@QAUHWND__@@UWndMoveData@@@std@@@4@$0A@@std@@@1@AB_N@Z ; std::pair<std::_Tree<std::_Tmap_traits<HWND__ *,WndMoveData,std::less<HWND__ *>,std::allocator<std::pair<HWND__ * const,WndMoveData> >,0> >::iterator,bool>::pair<std::_Tree<std::_Tmap_traits<HWND__ *,WndMoveData,std::less<HWND__ *>,std::allocator<std::pair<HWND__ * const,WndMoveData> >,0> >::iterator,bool>
  001a0	8b 45 08	 mov	 eax, DWORD PTR ___$ReturnUdt$[ebp]
$L199096:

; 504  : 			}
; 505  : 		}

  001a3	8b e5		 mov	 esp, ebp
  001a5	5d		 pop	 ebp
  001a6	c2 08 00	 ret	 8
?insert@?$_Tree@V?$_Tmap_traits@PAUHWND__@@UWndMoveData@@U?$less@PAUHWND__@@@std@@V?$allocator@U?$pair@QAUHWND__@@UWndMoveData@@@std@@@4@$0A@@std@@@std@@QAE?AU?$pair@Viterator@?$_Tree@V?$_Tmap_traits@PAUHWND__@@UWndMoveData@@U?$less@PAUHWND__@@@std@@V?$allocator@U?$pair@QAUHWND__@@UWndMoveData@@@std@@@4@$0A@@std@@@std@@_N@2@ABU?$pair@QAUHWND__@@UWndMoveData@@@2@@Z ENDP ; std::_Tree<std::_Tmap_traits<HWND__ *,WndMoveData,std::less<HWND__ *>,std::allocator<std::pair<HWND__ * const,WndMoveData> >,0> >::insert
_TEXT	ENDS
PUBLIC	?erase@?$_Tree@V?$_Tmap_traits@PAUHWND__@@UWndMoveData@@U?$less@PAUHWND__@@@std@@V?$allocator@U?$pair@QAUHWND__@@UWndMoveData@@@std@@@4@$0A@@std@@@std@@QAE?AViterator@12@V312@@Z ; std::_Tree<std::_Tmap_traits<HWND__ *,WndMoveData,std::less<HWND__ *>,std::allocator<std::pair<HWND__ * const,WndMoveData> >,0> >::erase
; Function compile flags: /Odt
;	COMDAT ?erase@?$_Tree@V?$_Tmap_traits@PAUHWND__@@UWndMoveData@@U?$less@PAUHWND__@@@std@@V?$allocator@U?$pair@QAUHWND__@@UWndMoveData@@@std@@@4@$0A@@std@@@std@@QAE?AViterator@12@V312@0@Z
_TEXT	SEGMENT
_this$ = -20						; size = 4
$T200120 = -16						; size = 4
$T200119 = -12						; size = 4
$T200118 = -8						; size = 4
$T200117 = -4						; size = 4
___$ReturnUdt$ = 8					; size = 4
__First$ = 12						; size = 4
__Last$ = 16						; size = 4
?erase@?$_Tree@V?$_Tmap_traits@PAUHWND__@@UWndMoveData@@U?$less@PAUHWND__@@@std@@V?$allocator@U?$pair@QAUHWND__@@UWndMoveData@@@std@@@4@$0A@@std@@@std@@QAE?AViterator@12@V312@0@Z PROC NEAR ; std::_Tree<std::_Tmap_traits<HWND__ *,WndMoveData,std::less<HWND__ *>,std::allocator<std::pair<HWND__ * const,WndMoveData> >,0> >::erase, COMDAT
; _this$ = ecx

; 750  : 		{	// erase [_First, _Last)

  00000	55		 push	 ebp
  00001	8b ec		 mov	 ebp, esp
  00003	83 ec 14	 sub	 esp, 20			; 00000014H
  00006	89 4d ec	 mov	 DWORD PTR _this$[ebp], ecx

; 751  : 		if (_First == begin() && _Last == end())

  00009	8d 45 fc	 lea	 eax, DWORD PTR $T200117[ebp]
  0000c	50		 push	 eax
  0000d	8b 4d ec	 mov	 ecx, DWORD PTR _this$[ebp]
  00010	e8 00 00 00 00	 call	 ?begin@?$_Tree@V?$_Tmap_traits@PAUHWND__@@UWndMoveData@@U?$less@PAUHWND__@@@std@@V?$allocator@U?$pair@QAUHWND__@@UWndMoveData@@@std@@@4@$0A@@std@@@std@@QAE?AViterator@12@XZ ; std::_Tree<std::_Tmap_traits<HWND__ *,WndMoveData,std::less<HWND__ *>,std::allocator<std::pair<HWND__ * const,WndMoveData> >,0> >::begin
  00015	50		 push	 eax
  00016	8d 4d 0c	 lea	 ecx, DWORD PTR __First$[ebp]
  00019	e8 00 00 00 00	 call	 ??8const_iterator@?$_Tree@V?$_Tmap_traits@PAUHWND__@@UWndMoveData@@U?$less@PAUHWND__@@@std@@V?$allocator@U?$pair@QAUHWND__@@UWndMoveData@@@std@@@4@$0A@@std@@@std@@QBE_NABV012@@Z ; std::_Tree<std::_Tmap_traits<HWND__ *,WndMoveData,std::less<HWND__ *>,std::allocator<std::pair<HWND__ * const,WndMoveData> >,0> >::const_iterator::operator==
  0001e	0f b6 c8	 movzx	 ecx, al
  00021	85 c9		 test	 ecx, ecx
  00023	74 35		 je	 SHORT $L199138
  00025	8d 55 f8	 lea	 edx, DWORD PTR $T200118[ebp]
  00028	52		 push	 edx
  00029	8b 4d ec	 mov	 ecx, DWORD PTR _this$[ebp]
  0002c	e8 00 00 00 00	 call	 ?end@?$_Tree@V?$_Tmap_traits@PAUHWND__@@UWndMoveData@@U?$less@PAUHWND__@@@std@@V?$allocator@U?$pair@QAUHWND__@@UWndMoveData@@@std@@@4@$0A@@std@@@std@@QAE?AViterator@12@XZ ; std::_Tree<std::_Tmap_traits<HWND__ *,WndMoveData,std::less<HWND__ *>,std::allocator<std::pair<HWND__ * const,WndMoveData> >,0> >::end
  00031	50		 push	 eax
  00032	8d 4d 10	 lea	 ecx, DWORD PTR __Last$[ebp]
  00035	e8 00 00 00 00	 call	 ??8const_iterator@?$_Tree@V?$_Tmap_traits@PAUHWND__@@UWndMoveData@@U?$less@PAUHWND__@@@std@@V?$allocator@U?$pair@QAUHWND__@@UWndMoveData@@@std@@@4@$0A@@std@@@std@@QBE_NABV012@@Z ; std::_Tree<std::_Tmap_traits<HWND__ *,WndMoveData,std::less<HWND__ *>,std::allocator<std::pair<HWND__ * const,WndMoveData> >,0> >::const_iterator::operator==
  0003a	0f b6 c0	 movzx	 eax, al
  0003d	85 c0		 test	 eax, eax
  0003f	74 19		 je	 SHORT $L199138

; 752  : 			{	// erase all
; 753  : 			clear();

  00041	8b 4d ec	 mov	 ecx, DWORD PTR _this$[ebp]
  00044	e8 00 00 00 00	 call	 ?clear@?$_Tree@V?$_Tmap_traits@PAUHWND__@@UWndMoveData@@U?$less@PAUHWND__@@@std@@V?$allocator@U?$pair@QAUHWND__@@UWndMoveData@@@std@@@4@$0A@@std@@@std@@QAEXXZ ; std::_Tree<std::_Tmap_traits<HWND__ *,WndMoveData,std::less<HWND__ *>,std::allocator<std::pair<HWND__ * const,WndMoveData> >,0> >::clear

; 754  : 			return (begin());

  00049	8b 4d 08	 mov	 ecx, DWORD PTR ___$ReturnUdt$[ebp]
  0004c	51		 push	 ecx
  0004d	8b 4d ec	 mov	 ecx, DWORD PTR _this$[ebp]
  00050	e8 00 00 00 00	 call	 ?begin@?$_Tree@V?$_Tmap_traits@PAUHWND__@@UWndMoveData@@U?$less@PAUHWND__@@@std@@V?$allocator@U?$pair@QAUHWND__@@UWndMoveData@@@std@@@4@$0A@@std@@@std@@QAE?AViterator@12@XZ ; std::_Tree<std::_Tmap_traits<HWND__ *,WndMoveData,std::less<HWND__ *>,std::allocator<std::pair<HWND__ * const,WndMoveData> >,0> >::begin
  00055	8b 45 08	 mov	 eax, DWORD PTR ___$ReturnUdt$[ebp]
  00058	eb 3d		 jmp	 SHORT $L199131
$L199138:

; 755  : 			}
; 756  : 		else
; 757  : 			{	// partial erase, one at a time
; 758  : 			while (_First != _Last)

  0005a	8d 55 10	 lea	 edx, DWORD PTR __Last$[ebp]
  0005d	52		 push	 edx
  0005e	8d 4d 0c	 lea	 ecx, DWORD PTR __First$[ebp]
  00061	e8 00 00 00 00	 call	 ??9const_iterator@?$_Tree@V?$_Tmap_traits@PAUHWND__@@UWndMoveData@@U?$less@PAUHWND__@@@std@@V?$allocator@U?$pair@QAUHWND__@@UWndMoveData@@@std@@@4@$0A@@std@@@std@@QBE_NABV012@@Z ; std::_Tree<std::_Tmap_traits<HWND__ *,WndMoveData,std::less<HWND__ *>,std::allocator<std::pair<HWND__ * const,WndMoveData> >,0> >::const_iterator::operator!=
  00066	0f b6 c0	 movzx	 eax, al
  00069	85 c0		 test	 eax, eax
  0006b	74 1f		 je	 SHORT $L199139

; 759  : 				erase(_First++);

  0006d	6a 00		 push	 0
  0006f	8d 4d f4	 lea	 ecx, DWORD PTR $T200119[ebp]
  00072	51		 push	 ecx
  00073	8d 4d 0c	 lea	 ecx, DWORD PTR __First$[ebp]
  00076	e8 00 00 00 00	 call	 ??Eiterator@?$_Tree@V?$_Tmap_traits@PAUHWND__@@UWndMoveData@@U?$less@PAUHWND__@@@std@@V?$allocator@U?$pair@QAUHWND__@@UWndMoveData@@@std@@@4@$0A@@std@@@std@@QAE?AV012@H@Z ; std::_Tree<std::_Tmap_traits<HWND__ *,WndMoveData,std::less<HWND__ *>,std::allocator<std::pair<HWND__ * const,WndMoveData> >,0> >::iterator::operator++
  0007b	8b 10		 mov	 edx, DWORD PTR [eax]
  0007d	52		 push	 edx
  0007e	8d 45 f0	 lea	 eax, DWORD PTR $T200120[ebp]
  00081	50		 push	 eax
  00082	8b 4d ec	 mov	 ecx, DWORD PTR _this$[ebp]
  00085	e8 00 00 00 00	 call	 ?erase@?$_Tree@V?$_Tmap_traits@PAUHWND__@@UWndMoveData@@U?$less@PAUHWND__@@@std@@V?$allocator@U?$pair@QAUHWND__@@UWndMoveData@@@std@@@4@$0A@@std@@@std@@QAE?AViterator@12@V312@@Z ; std::_Tree<std::_Tmap_traits<HWND__ *,WndMoveData,std::less<HWND__ *>,std::allocator<std::pair<HWND__ * const,WndMoveData> >,0> >::erase
  0008a	eb ce		 jmp	 SHORT $L199138
$L199139:

; 760  : 			return (_First);

  0008c	8b 4d 08	 mov	 ecx, DWORD PTR ___$ReturnUdt$[ebp]
  0008f	8b 55 0c	 mov	 edx, DWORD PTR __First$[ebp]
  00092	89 11		 mov	 DWORD PTR [ecx], edx
  00094	8b 45 08	 mov	 eax, DWORD PTR ___$ReturnUdt$[ebp]
$L199131:

; 761  : 			}
; 762  : 		}

  00097	8b e5		 mov	 esp, ebp
  00099	5d		 pop	 ebp
  0009a	c2 0c 00	 ret	 12			; 0000000cH
?erase@?$_Tree@V?$_Tmap_traits@PAUHWND__@@UWndMoveData@@U?$less@PAUHWND__@@@std@@V?$allocator@U?$pair@QAUHWND__@@UWndMoveData@@@std@@@4@$0A@@std@@@std@@QAE?AViterator@12@V312@0@Z ENDP ; std::_Tree<std::_Tmap_traits<HWND__ *,WndMoveData,std::less<HWND__ *>,std::allocator<std::pair<HWND__ * const,WndMoveData> >,0> >::erase
_TEXT	ENDS
PUBLIC	?_Buynode@?$_Tree@V?$_Tmap_traits@PAUHWND__@@UWndMoveData@@U?$less@PAUHWND__@@@std@@V?$allocator@U?$pair@QAUHWND__@@UWndMoveData@@@std@@@4@$0A@@std@@@std@@IAEPAU_Node@?$_Tree_nod@V?$_Tmap_traits@PAUHWND__@@UWndMoveData@@U?$less@PAUHWND__@@@std@@V?$allocator@U?$pair@QAUHWND__@@UWndMoveData@@@std@@@4@$0A@@std@@@2@XZ ; std::_Tree<std::_Tmap_traits<HWND__ *,WndMoveData,std::less<HWND__ *>,std::allocator<std::pair<HWND__ * const,WndMoveData> >,0> >::_Buynode
; Function compile flags: /Odt
;	COMDAT ?_Init@?$_Tree@V?$_Tmap_traits@PAUHWND__@@UWndMoveData@@U?$less@PAUHWND__@@@std@@V?$allocator@U?$pair@QAUHWND__@@UWndMoveData@@@std@@@4@$0A@@std@@@std@@IAEXXZ
_TEXT	SEGMENT
_this$ = -4						; size = 4
?_Init@?$_Tree@V?$_Tmap_traits@PAUHWND__@@UWndMoveData@@U?$less@PAUHWND__@@@std@@V?$allocator@U?$pair@QAUHWND__@@UWndMoveData@@@std@@@4@$0A@@std@@@std@@IAEXXZ PROC NEAR ; std::_Tree<std::_Tmap_traits<HWND__ *,WndMoveData,std::less<HWND__ *>,std::allocator<std::pair<HWND__ * const,WndMoveData> >,0> >::_Init, COMDAT
; _this$ = ecx

; 901  : 		{	// create head/nil node and make tree empty

  00000	55		 push	 ebp
  00001	8b ec		 mov	 ebp, esp
  00003	51		 push	 ecx
  00004	89 4d fc	 mov	 DWORD PTR _this$[ebp], ecx

; 902  : 		_Myhead = _Buynode();

  00007	8b 4d fc	 mov	 ecx, DWORD PTR _this$[ebp]
  0000a	e8 00 00 00 00	 call	 ?_Buynode@?$_Tree@V?$_Tmap_traits@PAUHWND__@@UWndMoveData@@U?$less@PAUHWND__@@@std@@V?$allocator@U?$pair@QAUHWND__@@UWndMoveData@@@std@@@4@$0A@@std@@@std@@IAEPAU_Node@?$_Tree_nod@V?$_Tmap_traits@PAUHWND__@@UWndMoveData@@U?$less@PAUHWND__@@@std@@V?$allocator@U?$pair@QAUHWND__@@UWndMoveData@@@std@@@4@$0A@@std@@@2@XZ ; std::_Tree<std::_Tmap_traits<HWND__ *,WndMoveData,std::less<HWND__ *>,std::allocator<std::pair<HWND__ * const,WndMoveData> >,0> >::_Buynode
  0000f	8b 4d fc	 mov	 ecx, DWORD PTR _this$[ebp]
  00012	89 41 04	 mov	 DWORD PTR [ecx+4], eax

; 903  : 		_Isnil(_Myhead) = true;

  00015	8b 55 fc	 mov	 edx, DWORD PTR _this$[ebp]
  00018	8b 42 04	 mov	 eax, DWORD PTR [edx+4]
  0001b	50		 push	 eax
  0001c	e8 00 00 00 00	 call	 ?_Isnil@?$_Tree@V?$_Tmap_traits@PAUHWND__@@UWndMoveData@@U?$less@PAUHWND__@@@std@@V?$allocator@U?$pair@QAUHWND__@@UWndMoveData@@@std@@@4@$0A@@std@@@std@@KAAADPAU_Node@?$_Tree_nod@V?$_Tmap_traits@PAUHWND__@@UWndMoveData@@U?$less@PAUHWND__@@@std@@V?$allocator@U?$pair@QAUHWND__@@UWndMoveData@@@std@@@4@$0A@@std@@@2@@Z ; std::_Tree<std::_Tmap_traits<HWND__ *,WndMoveData,std::less<HWND__ *>,std::allocator<std::pair<HWND__ * const,WndMoveData> >,0> >::_Isnil
  00021	83 c4 04	 add	 esp, 4
  00024	c6 00 01	 mov	 BYTE PTR [eax], 1

; 904  : 		_Root() = _Myhead;

  00027	8b 4d fc	 mov	 ecx, DWORD PTR _this$[ebp]
  0002a	e8 00 00 00 00	 call	 ?_Root@?$_Tree@V?$_Tmap_traits@PAUHWND__@@UWndMoveData@@U?$less@PAUHWND__@@@std@@V?$allocator@U?$pair@QAUHWND__@@UWndMoveData@@@std@@@4@$0A@@std@@@std@@IAEAAPAU_Node@?$_Tree_nod@V?$_Tmap_traits@PAUHWND__@@UWndMoveData@@U?$less@PAUHWND__@@@std@@V?$allocator@U?$pair@QAUHWND__@@UWndMoveData@@@std@@@4@$0A@@std@@@2@XZ ; std::_Tree<std::_Tmap_traits<HWND__ *,WndMoveData,std::less<HWND__ *>,std::allocator<std::pair<HWND__ * const,WndMoveData> >,0> >::_Root
  0002f	8b 4d fc	 mov	 ecx, DWORD PTR _this$[ebp]
  00032	8b 51 04	 mov	 edx, DWORD PTR [ecx+4]
  00035	89 10		 mov	 DWORD PTR [eax], edx

; 905  : 		_Lmost() = _Myhead, _Rmost() = _Myhead;

  00037	8b 4d fc	 mov	 ecx, DWORD PTR _this$[ebp]
  0003a	e8 00 00 00 00	 call	 ?_Lmost@?$_Tree@V?$_Tmap_traits@PAUHWND__@@UWndMoveData@@U?$less@PAUHWND__@@@std@@V?$allocator@U?$pair@QAUHWND__@@UWndMoveData@@@std@@@4@$0A@@std@@@std@@IAEAAPAU_Node@?$_Tree_nod@V?$_Tmap_traits@PAUHWND__@@UWndMoveData@@U?$less@PAUHWND__@@@std@@V?$allocator@U?$pair@QAUHWND__@@UWndMoveData@@@std@@@4@$0A@@std@@@2@XZ ; std::_Tree<std::_Tmap_traits<HWND__ *,WndMoveData,std::less<HWND__ *>,std::allocator<std::pair<HWND__ * const,WndMoveData> >,0> >::_Lmost
  0003f	8b 4d fc	 mov	 ecx, DWORD PTR _this$[ebp]
  00042	8b 51 04	 mov	 edx, DWORD PTR [ecx+4]
  00045	89 10		 mov	 DWORD PTR [eax], edx
  00047	8b 4d fc	 mov	 ecx, DWORD PTR _this$[ebp]
  0004a	e8 00 00 00 00	 call	 ?_Rmost@?$_Tree@V?$_Tmap_traits@PAUHWND__@@UWndMoveData@@U?$less@PAUHWND__@@@std@@V?$allocator@U?$pair@QAUHWND__@@UWndMoveData@@@std@@@4@$0A@@std@@@std@@IAEAAPAU_Node@?$_Tree_nod@V?$_Tmap_traits@PAUHWND__@@UWndMoveData@@U?$less@PAUHWND__@@@std@@V?$allocator@U?$pair@QAUHWND__@@UWndMoveData@@@std@@@4@$0A@@std@@@2@XZ ; std::_Tree<std::_Tmap_traits<HWND__ *,WndMoveData,std::less<HWND__ *>,std::allocator<std::pair<HWND__ * const,WndMoveData> >,0> >::_Rmost
  0004f	8b 4d fc	 mov	 ecx, DWORD PTR _this$[ebp]
  00052	8b 51 04	 mov	 edx, DWORD PTR [ecx+4]
  00055	89 10		 mov	 DWORD PTR [eax], edx

; 906  : 		_Mysize = 0;

  00057	8b 45 fc	 mov	 eax, DWORD PTR _this$[ebp]
  0005a	c7 40 08 00 00
	00 00		 mov	 DWORD PTR [eax+8], 0

; 907  : 		}

  00061	8b e5		 mov	 esp, ebp
  00063	5d		 pop	 ebp
  00064	c3		 ret	 0
?_Init@?$_Tree@V?$_Tmap_traits@PAUHWND__@@UWndMoveData@@U?$less@PAUHWND__@@@std@@V?$allocator@U?$pair@QAUHWND__@@UWndMoveData@@@std@@@4@$0A@@std@@@std@@IAEXXZ ENDP ; std::_Tree<std::_Tmap_traits<HWND__ *,WndMoveData,std::less<HWND__ *>,std::allocator<std::pair<HWND__ * const,WndMoveData> >,0> >::_Init
_TEXT	ENDS
PUBLIC	??_R0?AVlogic_error@std@@@8			; std::logic_error `RTTI Type Descriptor'
PUBLIC	__CT??_R0?AVlogic_error@std@@@8??0logic_error@std@@QAE@ABV01@@Z40
PUBLIC	??_R0?AVexception@@@8				; exception `RTTI Type Descriptor'
PUBLIC	__CT??_R0?AVexception@@@8??0exception@@QAE@ABV0@@Z12
PUBLIC	?_Color@?$_Tree@V?$_Tmap_traits@PAUHWND__@@UWndMoveData@@U?$less@PAUHWND__@@@std@@V?$allocator@U?$pair@QAUHWND__@@UWndMoveData@@@std@@@4@$0A@@std@@@std@@KAAADPAU_Node@?$_Tree_nod@V?$_Tmap_traits@PAUHWND__@@UWndMoveData@@U?$less@PAUHWND__@@@std@@V?$allocator@U?$pair@QAUHWND__@@UWndMoveData@@@std@@@4@$0A@@std@@@2@@Z ; std::_Tree<std::_Tmap_traits<HWND__ *,WndMoveData,std::less<HWND__ *>,std::allocator<std::pair<HWND__ * const,WndMoveData> >,0> >::_Color
PUBLIC	?max_size@?$_Tree@V?$_Tmap_traits@PAUHWND__@@UWndMoveData@@U?$less@PAUHWND__@@@std@@V?$allocator@U?$pair@QAUHWND__@@UWndMoveData@@@std@@@4@$0A@@std@@@std@@QBEIXZ ; std::_Tree<std::_Tmap_traits<HWND__ *,WndMoveData,std::less<HWND__ *>,std::allocator<std::pair<HWND__ * const,WndMoveData> >,0> >::max_size
PUBLIC	?_Lrotate@?$_Tree@V?$_Tmap_traits@PAUHWND__@@UWndMoveData@@U?$less@PAUHWND__@@@std@@V?$allocator@U?$pair@QAUHWND__@@UWndMoveData@@@std@@@4@$0A@@std@@@std@@IAEXPAU_Node@?$_Tree_nod@V?$_Tmap_traits@PAUHWND__@@UWndMoveData@@U?$less@PAUHWND__@@@std@@V?$allocator@U?$pair@QAUHWND__@@UWndMoveData@@@std@@@4@$0A@@std@@@2@@Z ; std::_Tree<std::_Tmap_traits<HWND__ *,WndMoveData,std::less<HWND__ *>,std::allocator<std::pair<HWND__ * const,WndMoveData> >,0> >::_Lrotate
PUBLIC	?_Rrotate@?$_Tree@V?$_Tmap_traits@PAUHWND__@@UWndMoveData@@U?$less@PAUHWND__@@@std@@V?$allocator@U?$pair@QAUHWND__@@UWndMoveData@@@std@@@4@$0A@@std@@@std@@IAEXPAU_Node@?$_Tree_nod@V?$_Tmap_traits@PAUHWND__@@UWndMoveData@@U?$less@PAUHWND__@@@std@@V?$allocator@U?$pair@QAUHWND__@@UWndMoveData@@@std@@@4@$0A@@std@@@2@@Z ; std::_Tree<std::_Tmap_traits<HWND__ *,WndMoveData,std::less<HWND__ *>,std::allocator<std::pair<HWND__ * const,WndMoveData> >,0> >::_Rrotate
PUBLIC	?_Buynode@?$_Tree@V?$_Tmap_traits@PAUHWND__@@UWndMoveData@@U?$less@PAUHWND__@@@std@@V?$allocator@U?$pair@QAUHWND__@@UWndMoveData@@@std@@@4@$0A@@std@@@std@@IAEPAU_Node@?$_Tree_nod@V?$_Tmap_traits@PAUHWND__@@UWndMoveData@@U?$less@PAUHWND__@@@std@@V?$allocator@U?$pair@QAUHWND__@@UWndMoveData@@@std@@@4@$0A@@std@@@2@PAU342@00ABU?$pair@QAUHWND__@@UWndMoveData@@@2@D@Z ; std::_Tree<std::_Tmap_traits<HWND__ *,WndMoveData,std::less<HWND__ *>,std::allocator<std::pair<HWND__ * const,WndMoveData> >,0> >::_Buynode
PUBLIC	??_R0?AVlength_error@std@@@8			; std::length_error `RTTI Type Descriptor'
PUBLIC	__TI3?AVlength_error@std@@
PUBLIC	__CTA3?AVlength_error@std@@
PUBLIC	__CT??_R0?AVlength_error@std@@@8??0length_error@std@@QAE@ABV01@@Z40
PUBLIC	??_C@_0BE@JONHPENG@map?1set?$DMT?$DO?5too?5long?$AA@ ; `string'
PUBLIC	??0logic_error@std@@QAE@ABV01@@Z		; std::logic_error::logic_error
PUBLIC	??0length_error@std@@QAE@ABV?$basic_string@DU?$char_traits@D@std@@V?$allocator@D@2@@1@@Z ; std::length_error::length_error
PUBLIC	??1length_error@std@@UAE@XZ			; std::length_error::~length_error
PUBLIC	??0length_error@std@@QAE@ABV01@@Z		; std::length_error::length_error
EXTRN	__CxxThrowException@8:NEAR
EXTRN	__imp_??0?$basic_string@DU?$char_traits@D@std@@V?$allocator@D@2@@std@@QAE@PBD@Z:NEAR
EXTRN	__imp_??1?$basic_string@DU?$char_traits@D@std@@V?$allocator@D@2@@std@@QAE@XZ:NEAR
EXTRN	??_7type_info@@6B@:QWORD			; type_info::`vftable'
EXTRN	??0exception@@QAE@ABV0@@Z:NEAR			; exception::exception
;	COMDAT xdata$x
xdata$x	SEGMENT
$T200132 DD	0ffffffffH
	DD	FLAT:$L200128
$T200130 DD	019930520H
	DD	01H
	DD	FLAT:$T200132
	DD	2 DUP(00H)
	DD	2 DUP(00H)
xdata$x	ENDS
;	COMDAT ??_C@_0BE@JONHPENG@map?1set?$DMT?$DO?5too?5long?$AA@
CONST	SEGMENT
??_C@_0BE@JONHPENG@map?1set?$DMT?$DO?5too?5long?$AA@ DB 'map/set<T> too l'
	DB	'ong', 00H					; `string'
CONST	ENDS
;	COMDAT __TI3?AVlength_error@std@@
xdata$x	SEGMENT
__TI3?AVlength_error@std@@ DD 00H
	DD	FLAT:??1length_error@std@@UAE@XZ
	DD	00H
	DD	FLAT:__CTA3?AVlength_error@std@@
xdata$x	ENDS
;	COMDAT __CTA3?AVlength_error@std@@
xdata$x	SEGMENT
__CTA3?AVlength_error@std@@ DD 03H
	DD	FLAT:__CT??_R0?AVlength_error@std@@@8??0length_error@std@@QAE@ABV01@@Z40
	DD	FLAT:__CT??_R0?AVlogic_error@std@@@8??0logic_error@std@@QAE@ABV01@@Z40
	DD	FLAT:__CT??_R0?AVexception@@@8??0exception@@QAE@ABV0@@Z12
xdata$x	ENDS
;	COMDAT __CT??_R0?AVlength_error@std@@@8??0length_error@std@@QAE@ABV01@@Z40
xdata$x	SEGMENT
__CT??_R0?AVlength_error@std@@@8??0length_error@std@@QAE@ABV01@@Z40 DD 00H
	DD	FLAT:??_R0?AVlength_error@std@@@8
	DD	00H
	DD	0ffffffffH
	ORG $+4
	DD	028H
	DD	FLAT:??0length_error@std@@QAE@ABV01@@Z
xdata$x	ENDS
;	COMDAT ??_R0?AVlength_error@std@@@8
_DATA	SEGMENT
??_R0?AVlength_error@std@@@8 DD FLAT:??_7type_info@@6B@	; std::length_error `RTTI Type Descriptor'
	DD	00H
	DB	'.?AVlength_error@std@@', 00H
	ORG $-31
	DD	FLAT:??_7type_info@@6B@
	DD	00H
	DB	'.?AVlength_error@std@@', 00H
_DATA	ENDS
;	COMDAT __CT??_R0?AVlogic_error@std@@@8??0logic_error@std@@QAE@ABV01@@Z40
xdata$x	SEGMENT
__CT??_R0?AVlogic_error@std@@@8??0logic_error@std@@QAE@ABV01@@Z40 DD 00H
	DD	FLAT:??_R0?AVlogic_error@std@@@8
	DD	00H
	DD	0ffffffffH
	ORG $+4
	DD	028H
	DD	FLAT:??0logic_error@std@@QAE@ABV01@@Z
xdata$x	ENDS
;	COMDAT ??_R0?AVlogic_error@std@@@8
_DATA	SEGMENT
??_R0?AVlogic_error@std@@@8 DD FLAT:??_7type_info@@6B@	; std::logic_error `RTTI Type Descriptor'
	DD	00H
	DB	'.?AVlogic_error@std@@', 00H
	ORG $-30
	DD	FLAT:??_7type_info@@6B@
	DD	00H
	DB	'.?AVlogic_error@std@@', 00H
_DATA	ENDS
;	COMDAT __CT??_R0?AVexception@@@8??0exception@@QAE@ABV0@@Z12
xdata$x	SEGMENT
__CT??_R0?AVexception@@@8??0exception@@QAE@ABV0@@Z12 DD 00H
	DD	FLAT:??_R0?AVexception@@@8
	DD	00H
	DD	0ffffffffH
	ORG $+4
	DD	0cH
	DD	FLAT:??0exception@@QAE@ABV0@@Z
xdata$x	ENDS
;	COMDAT ??_R0?AVexception@@@8
_DATA	SEGMENT
??_R0?AVexception@@@8 DD FLAT:??_7type_info@@6B@	; exception `RTTI Type Descriptor'
	DD	00H
	DB	'.?AVexception@@', 00H
	ORG $-24
	DD	FLAT:??_7type_info@@6B@
	DD	00H
	DB	'.?AVexception@@', 00H
; Function compile flags: /Odt
_DATA	ENDS
;	COMDAT ?_Insert@?$_Tree@V?$_Tmap_traits@PAUHWND__@@UWndMoveData@@U?$less@PAUHWND__@@@std@@V?$allocator@U?$pair@QAUHWND__@@UWndMoveData@@@std@@@4@$0A@@std@@@std@@IAE?AViterator@12@_NPAU_Node@?$_Tree_nod@V?$_Tmap_traits@PAUHWND__@@UWndMoveData@@U?$less@PAUHWND__@@@std@@V?$allocator@U?$pair@QAUHWND__@@UWndMoveData@@@std@@@4@$0A@@std@@@2@ABU?$pair@QAUHWND__@@UWndMoveData@@@2@@Z
_TEXT	SEGMENT
_this$ = -92						; size = 4
$T200126 = -88						; size = 28
$T200125 = -60						; size = 40
__Pnode$199162 = -20					; size = 4
__Newnode$ = -16					; size = 4
__$EHRec$ = -12						; size = 12
___$ReturnUdt$ = 8					; size = 4
__Addleft$ = 12						; size = 1
__Wherenode$ = 16					; size = 4
__Val$ = 20						; size = 4
?_Insert@?$_Tree@V?$_Tmap_traits@PAUHWND__@@UWndMoveData@@U?$less@PAUHWND__@@@std@@V?$allocator@U?$pair@QAUHWND__@@UWndMoveData@@@std@@@4@$0A@@std@@@std@@IAE?AViterator@12@_NPAU_Node@?$_Tree_nod@V?$_Tmap_traits@PAUHWND__@@UWndMoveData@@U?$less@PAUHWND__@@@std@@V?$allocator@U?$pair@QAUHWND__@@UWndMoveData@@@std@@@4@$0A@@std@@@2@ABU?$pair@QAUHWND__@@UWndMoveData@@@2@@Z PROC NEAR ; std::_Tree<std::_Tmap_traits<HWND__ *,WndMoveData,std::less<HWND__ *>,std::allocator<std::pair<HWND__ * const,WndMoveData> >,0> >::_Insert, COMDAT
; _this$ = ecx

; 911  : 		{	// add node with value next to _Wherenode, to left if _Addnode

  00000	55		 push	 ebp
  00001	8b ec		 mov	 ebp, esp
  00003	6a ff		 push	 -1
  00005	68 00 00 00 00	 push	 __ehhandler$?_Insert@?$_Tree@V?$_Tmap_traits@PAUHWND__@@UWndMoveData@@U?$less@PAUHWND__@@@std@@V?$allocator@U?$pair@QAUHWND__@@UWndMoveData@@@std@@@4@$0A@@std@@@std@@IAE?AViterator@12@_NPAU_Node@?$_Tree_nod@V?$_Tmap_traits@PAUHWND__@@UWndMoveData@@U?$less@PAUHWND__@@@std@@V?$allocator@U?$pair@QAUHWND__@@UWndMoveData@@@std@@@4@$0A@@std@@@2@ABU?$pair@QAUHWND__@@UWndMoveData@@@2@@Z
  0000a	64 a1 00 00 00
	00		 mov	 eax, DWORD PTR fs:__except_list
  00010	50		 push	 eax
  00011	64 89 25 00 00
	00 00		 mov	 DWORD PTR fs:__except_list, esp
  00018	83 ec 50	 sub	 esp, 80			; 00000050H
  0001b	56		 push	 esi
  0001c	89 4d a4	 mov	 DWORD PTR _this$[ebp], ecx

; 912  : 		if (max_size() - 1 <= _Mysize)

  0001f	8b 4d a4	 mov	 ecx, DWORD PTR _this$[ebp]
  00022	e8 00 00 00 00	 call	 ?max_size@?$_Tree@V?$_Tmap_traits@PAUHWND__@@UWndMoveData@@U?$less@PAUHWND__@@@std@@V?$allocator@U?$pair@QAUHWND__@@UWndMoveData@@@std@@@4@$0A@@std@@@std@@QBEIXZ ; std::_Tree<std::_Tmap_traits<HWND__ *,WndMoveData,std::less<HWND__ *>,std::allocator<std::pair<HWND__ * const,WndMoveData> >,0> >::max_size
  00027	83 e8 01	 sub	 eax, 1
  0002a	8b 4d a4	 mov	 ecx, DWORD PTR _this$[ebp]
  0002d	3b 41 08	 cmp	 eax, DWORD PTR [ecx+8]
  00030	77 2f		 ja	 SHORT $L199147

; 913  : 			_THROW(length_error, "map/set<T> too long");

  00032	68 00 00 00 00	 push	 OFFSET FLAT:??_C@_0BE@JONHPENG@map?1set?$DMT?$DO?5too?5long?$AA@
  00037	8d 4d a8	 lea	 ecx, DWORD PTR $T200126[ebp]
  0003a	ff 15 00 00 00
	00		 call	 DWORD PTR __imp_??0?$basic_string@DU?$char_traits@D@std@@V?$allocator@D@2@@std@@QAE@PBD@Z
  00040	c7 45 fc 00 00
	00 00		 mov	 DWORD PTR __$EHRec$[ebp+8], 0
  00047	8d 55 a8	 lea	 edx, DWORD PTR $T200126[ebp]
  0004a	52		 push	 edx
  0004b	8d 4d c4	 lea	 ecx, DWORD PTR $T200125[ebp]
  0004e	e8 00 00 00 00	 call	 ??0length_error@std@@QAE@ABV?$basic_string@DU?$char_traits@D@std@@V?$allocator@D@2@@1@@Z ; std::length_error::length_error
  00053	68 00 00 00 00	 push	 OFFSET FLAT:__TI3?AVlength_error@std@@
  00058	8d 45 c4	 lea	 eax, DWORD PTR $T200125[ebp]
  0005b	50		 push	 eax
  0005c	e8 00 00 00 00	 call	 __CxxThrowException@8
$L199147:

; 914  : 		_Nodeptr _Newnode = _Buynode(_Myhead, _Wherenode, _Myhead,
; 915  : 			_Val, _Red);

  00061	6a 00		 push	 0
  00063	8b 4d 14	 mov	 ecx, DWORD PTR __Val$[ebp]
  00066	51		 push	 ecx
  00067	8b 55 a4	 mov	 edx, DWORD PTR _this$[ebp]
  0006a	8b 42 04	 mov	 eax, DWORD PTR [edx+4]
  0006d	50		 push	 eax
  0006e	8b 4d 10	 mov	 ecx, DWORD PTR __Wherenode$[ebp]
  00071	51		 push	 ecx
  00072	8b 55 a4	 mov	 edx, DWORD PTR _this$[ebp]
  00075	8b 42 04	 mov	 eax, DWORD PTR [edx+4]
  00078	50		 push	 eax
  00079	8b 4d a4	 mov	 ecx, DWORD PTR _this$[ebp]
  0007c	e8 00 00 00 00	 call	 ?_Buynode@?$_Tree@V?$_Tmap_traits@PAUHWND__@@UWndMoveData@@U?$less@PAUHWND__@@@std@@V?$allocator@U?$pair@QAUHWND__@@UWndMoveData@@@std@@@4@$0A@@std@@@std@@IAEPAU_Node@?$_Tree_nod@V?$_Tmap_traits@PAUHWND__@@UWndMoveData@@U?$less@PAUHWND__@@@std@@V?$allocator@U?$pair@QAUHWND__@@UWndMoveData@@@std@@@4@$0A@@std@@@2@PAU342@00ABU?$pair@QAUHWND__@@UWndMoveData@@@2@D@Z ; std::_Tree<std::_Tmap_traits<HWND__ *,WndMoveData,std::less<HWND__ *>,std::allocator<std::pair<HWND__ * const,WndMoveData> >,0> >::_Buynode
  00081	89 45 f0	 mov	 DWORD PTR __Newnode$[ebp], eax

; 916  : 
; 917  : 		++_Mysize;

  00084	8b 4d a4	 mov	 ecx, DWORD PTR _this$[ebp]
  00087	8b 51 08	 mov	 edx, DWORD PTR [ecx+8]
  0008a	83 c2 01	 add	 edx, 1
  0008d	8b 45 a4	 mov	 eax, DWORD PTR _this$[ebp]
  00090	89 50 08	 mov	 DWORD PTR [eax+8], edx

; 918  : 		if (_Wherenode == _Myhead)

  00093	8b 4d a4	 mov	 ecx, DWORD PTR _this$[ebp]
  00096	8b 55 10	 mov	 edx, DWORD PTR __Wherenode$[ebp]
  00099	3b 51 04	 cmp	 edx, DWORD PTR [ecx+4]
  0009c	75 29		 jne	 SHORT $L199156

; 919  : 			{	// first node in tree, just set head values
; 920  : 			_Root() = _Newnode;

  0009e	8b 4d a4	 mov	 ecx, DWORD PTR _this$[ebp]
  000a1	e8 00 00 00 00	 call	 ?_Root@?$_Tree@V?$_Tmap_traits@PAUHWND__@@UWndMoveData@@U?$less@PAUHWND__@@@std@@V?$allocator@U?$pair@QAUHWND__@@UWndMoveData@@@std@@@4@$0A@@std@@@std@@IAEAAPAU_Node@?$_Tree_nod@V?$_Tmap_traits@PAUHWND__@@UWndMoveData@@U?$less@PAUHWND__@@@std@@V?$allocator@U?$pair@QAUHWND__@@UWndMoveData@@@std@@@4@$0A@@std@@@2@XZ ; std::_Tree<std::_Tmap_traits<HWND__ *,WndMoveData,std::less<HWND__ *>,std::allocator<std::pair<HWND__ * const,WndMoveData> >,0> >::_Root
  000a6	8b 4d f0	 mov	 ecx, DWORD PTR __Newnode$[ebp]
  000a9	89 08		 mov	 DWORD PTR [eax], ecx

; 921  : 			_Lmost() = _Newnode, _Rmost() = _Newnode;

  000ab	8b 4d a4	 mov	 ecx, DWORD PTR _this$[ebp]
  000ae	e8 00 00 00 00	 call	 ?_Lmost@?$_Tree@V?$_Tmap_traits@PAUHWND__@@UWndMoveData@@U?$less@PAUHWND__@@@std@@V?$allocator@U?$pair@QAUHWND__@@UWndMoveData@@@std@@@4@$0A@@std@@@std@@IAEAAPAU_Node@?$_Tree_nod@V?$_Tmap_traits@PAUHWND__@@UWndMoveData@@U?$less@PAUHWND__@@@std@@V?$allocator@U?$pair@QAUHWND__@@UWndMoveData@@@std@@@4@$0A@@std@@@2@XZ ; std::_Tree<std::_Tmap_traits<HWND__ *,WndMoveData,std::less<HWND__ *>,std::allocator<std::pair<HWND__ * const,WndMoveData> >,0> >::_Lmost
  000b3	8b 55 f0	 mov	 edx, DWORD PTR __Newnode$[ebp]
  000b6	89 10		 mov	 DWORD PTR [eax], edx
  000b8	8b 4d a4	 mov	 ecx, DWORD PTR _this$[ebp]
  000bb	e8 00 00 00 00	 call	 ?_Rmost@?$_Tree@V?$_Tmap_traits@PAUHWND__@@UWndMoveData@@U?$less@PAUHWND__@@@std@@V?$allocator@U?$pair@QAUHWND__@@UWndMoveData@@@std@@@4@$0A@@std@@@std@@IAEAAPAU_Node@?$_Tree_nod@V?$_Tmap_traits@PAUHWND__@@UWndMoveData@@U?$less@PAUHWND__@@@std@@V?$allocator@U?$pair@QAUHWND__@@UWndMoveData@@@std@@@4@$0A@@std@@@2@XZ ; std::_Tree<std::_Tmap_traits<HWND__ *,WndMoveData,std::less<HWND__ *>,std::allocator<std::pair<HWND__ * const,WndMoveData> >,0> >::_Rmost
  000c0	8b 4d f0	 mov	 ecx, DWORD PTR __Newnode$[ebp]
  000c3	89 08		 mov	 DWORD PTR [eax], ecx

; 922  : 			}
; 923  : 		else if (_Addleft)

  000c5	eb 64		 jmp	 SHORT $L199157
$L199156:
  000c7	0f b6 55 0c	 movzx	 edx, BYTE PTR __Addleft$[ebp]
  000cb	85 d2		 test	 edx, edx
  000cd	74 2f		 je	 SHORT $L199158

; 924  : 			{	// add to left of _Wherenode
; 925  : 			_Left(_Wherenode) = _Newnode;

  000cf	8b 45 10	 mov	 eax, DWORD PTR __Wherenode$[ebp]
  000d2	50		 push	 eax
  000d3	e8 00 00 00 00	 call	 ?_Left@?$_Tree@V?$_Tmap_traits@PAUHWND__@@UWndMoveData@@U?$less@PAUHWND__@@@std@@V?$allocator@U?$pair@QAUHWND__@@UWndMoveData@@@std@@@4@$0A@@std@@@std@@KAAAPAU_Node@?$_Tree_nod@V?$_Tmap_traits@PAUHWND__@@UWndMoveData@@U?$less@PAUHWND__@@@std@@V?$allocator@U?$pair@QAUHWND__@@UWndMoveData@@@std@@@4@$0A@@std@@@2@PAU342@@Z ; std::_Tree<std::_Tmap_traits<HWND__ *,WndMoveData,std::less<HWND__ *>,std::allocator<std::pair<HWND__ * const,WndMoveData> >,0> >::_Left
  000d8	83 c4 04	 add	 esp, 4
  000db	8b 4d f0	 mov	 ecx, DWORD PTR __Newnode$[ebp]
  000de	89 08		 mov	 DWORD PTR [eax], ecx

; 926  : 			if (_Wherenode == _Lmost())

  000e0	8b 4d a4	 mov	 ecx, DWORD PTR _this$[ebp]
  000e3	e8 00 00 00 00	 call	 ?_Lmost@?$_Tree@V?$_Tmap_traits@PAUHWND__@@UWndMoveData@@U?$less@PAUHWND__@@@std@@V?$allocator@U?$pair@QAUHWND__@@UWndMoveData@@@std@@@4@$0A@@std@@@std@@IAEAAPAU_Node@?$_Tree_nod@V?$_Tmap_traits@PAUHWND__@@UWndMoveData@@U?$less@PAUHWND__@@@std@@V?$allocator@U?$pair@QAUHWND__@@UWndMoveData@@@std@@@4@$0A@@std@@@2@XZ ; std::_Tree<std::_Tmap_traits<HWND__ *,WndMoveData,std::less<HWND__ *>,std::allocator<std::pair<HWND__ * const,WndMoveData> >,0> >::_Lmost
  000e8	8b 55 10	 mov	 edx, DWORD PTR __Wherenode$[ebp]
  000eb	3b 10		 cmp	 edx, DWORD PTR [eax]
  000ed	75 0d		 jne	 SHORT $L199159

; 927  : 				_Lmost() = _Newnode;

  000ef	8b 4d a4	 mov	 ecx, DWORD PTR _this$[ebp]
  000f2	e8 00 00 00 00	 call	 ?_Lmost@?$_Tree@V?$_Tmap_traits@PAUHWND__@@UWndMoveData@@U?$less@PAUHWND__@@@std@@V?$allocator@U?$pair@QAUHWND__@@UWndMoveData@@@std@@@4@$0A@@std@@@std@@IAEAAPAU_Node@?$_Tree_nod@V?$_Tmap_traits@PAUHWND__@@UWndMoveData@@U?$less@PAUHWND__@@@std@@V?$allocator@U?$pair@QAUHWND__@@UWndMoveData@@@std@@@4@$0A@@std@@@2@XZ ; std::_Tree<std::_Tmap_traits<HWND__ *,WndMoveData,std::less<HWND__ *>,std::allocator<std::pair<HWND__ * const,WndMoveData> >,0> >::_Lmost
  000f7	8b 4d f0	 mov	 ecx, DWORD PTR __Newnode$[ebp]
  000fa	89 08		 mov	 DWORD PTR [eax], ecx
$L199159:

; 928  : 			}
; 929  : 		else

  000fc	eb 2d		 jmp	 SHORT $L199157
$L199158:

; 930  : 			{	// add to right of _Wherenode
; 931  : 			_Right(_Wherenode) = _Newnode;

  000fe	8b 55 10	 mov	 edx, DWORD PTR __Wherenode$[ebp]
  00101	52		 push	 edx
  00102	e8 00 00 00 00	 call	 ?_Right@?$_Tree@V?$_Tmap_traits@PAUHWND__@@UWndMoveData@@U?$less@PAUHWND__@@@std@@V?$allocator@U?$pair@QAUHWND__@@UWndMoveData@@@std@@@4@$0A@@std@@@std@@KAAAPAU_Node@?$_Tree_nod@V?$_Tmap_traits@PAUHWND__@@UWndMoveData@@U?$less@PAUHWND__@@@std@@V?$allocator@U?$pair@QAUHWND__@@UWndMoveData@@@std@@@4@$0A@@std@@@2@PAU342@@Z ; std::_Tree<std::_Tmap_traits<HWND__ *,WndMoveData,std::less<HWND__ *>,std::allocator<std::pair<HWND__ * const,WndMoveData> >,0> >::_Right
  00107	83 c4 04	 add	 esp, 4
  0010a	8b 4d f0	 mov	 ecx, DWORD PTR __Newnode$[ebp]
  0010d	89 08		 mov	 DWORD PTR [eax], ecx

; 932  : 			if (_Wherenode == _Rmost())

  0010f	8b 4d a4	 mov	 ecx, DWORD PTR _this$[ebp]
  00112	e8 00 00 00 00	 call	 ?_Rmost@?$_Tree@V?$_Tmap_traits@PAUHWND__@@UWndMoveData@@U?$less@PAUHWND__@@@std@@V?$allocator@U?$pair@QAUHWND__@@UWndMoveData@@@std@@@4@$0A@@std@@@std@@IAEAAPAU_Node@?$_Tree_nod@V?$_Tmap_traits@PAUHWND__@@UWndMoveData@@U?$less@PAUHWND__@@@std@@V?$allocator@U?$pair@QAUHWND__@@UWndMoveData@@@std@@@4@$0A@@std@@@2@XZ ; std::_Tree<std::_Tmap_traits<HWND__ *,WndMoveData,std::less<HWND__ *>,std::allocator<std::pair<HWND__ * const,WndMoveData> >,0> >::_Rmost
  00117	8b 55 10	 mov	 edx, DWORD PTR __Wherenode$[ebp]
  0011a	3b 10		 cmp	 edx, DWORD PTR [eax]
  0011c	75 0d		 jne	 SHORT $L199157

; 933  : 				_Rmost() = _Newnode;

  0011e	8b 4d a4	 mov	 ecx, DWORD PTR _this$[ebp]
  00121	e8 00 00 00 00	 call	 ?_Rmost@?$_Tree@V?$_Tmap_traits@PAUHWND__@@UWndMoveData@@U?$less@PAUHWND__@@@std@@V?$allocator@U?$pair@QAUHWND__@@UWndMoveData@@@std@@@4@$0A@@std@@@std@@IAEAAPAU_Node@?$_Tree_nod@V?$_Tmap_traits@PAUHWND__@@UWndMoveData@@U?$less@PAUHWND__@@@std@@V?$allocator@U?$pair@QAUHWND__@@UWndMoveData@@@std@@@4@$0A@@std@@@2@XZ ; std::_Tree<std::_Tmap_traits<HWND__ *,WndMoveData,std::less<HWND__ *>,std::allocator<std::pair<HWND__ * const,WndMoveData> >,0> >::_Rmost
  00126	8b 4d f0	 mov	 ecx, DWORD PTR __Newnode$[ebp]
  00129	89 08		 mov	 DWORD PTR [eax], ecx
$L199157:

; 934  : 			}
; 935  : 
; 936  : 		for (_Nodeptr _Pnode = _Newnode; _Color(_Parent(_Pnode)) == _Red; )

  0012b	8b 55 f0	 mov	 edx, DWORD PTR __Newnode$[ebp]
  0012e	89 55 ec	 mov	 DWORD PTR __Pnode$199162[ebp], edx
$L199164:
  00131	8b 45 ec	 mov	 eax, DWORD PTR __Pnode$199162[ebp]
  00134	50		 push	 eax
  00135	e8 00 00 00 00	 call	 ?_Parent@?$_Tree@V?$_Tmap_traits@PAUHWND__@@UWndMoveData@@U?$less@PAUHWND__@@@std@@V?$allocator@U?$pair@QAUHWND__@@UWndMoveData@@@std@@@4@$0A@@std@@@std@@KAAAPAU_Node@?$_Tree_nod@V?$_Tmap_traits@PAUHWND__@@UWndMoveData@@U?$less@PAUHWND__@@@std@@V?$allocator@U?$pair@QAUHWND__@@UWndMoveData@@@std@@@4@$0A@@std@@@2@PAU342@@Z ; std::_Tree<std::_Tmap_traits<HWND__ *,WndMoveData,std::less<HWND__ *>,std::allocator<std::pair<HWND__ * const,WndMoveData> >,0> >::_Parent
  0013a	83 c4 04	 add	 esp, 4
  0013d	8b 08		 mov	 ecx, DWORD PTR [eax]
  0013f	51		 push	 ecx
  00140	e8 00 00 00 00	 call	 ?_Color@?$_Tree@V?$_Tmap_traits@PAUHWND__@@UWndMoveData@@U?$less@PAUHWND__@@@std@@V?$allocator@U?$pair@QAUHWND__@@UWndMoveData@@@std@@@4@$0A@@std@@@std@@KAAADPAU_Node@?$_Tree_nod@V?$_Tmap_traits@PAUHWND__@@UWndMoveData@@U?$less@PAUHWND__@@@std@@V?$allocator@U?$pair@QAUHWND__@@UWndMoveData@@@std@@@4@$0A@@std@@@2@@Z ; std::_Tree<std::_Tmap_traits<HWND__ *,WndMoveData,std::less<HWND__ *>,std::allocator<std::pair<HWND__ * const,WndMoveData> >,0> >::_Color
  00145	83 c4 04	 add	 esp, 4
  00148	0f be 10	 movsx	 edx, BYTE PTR [eax]
  0014b	85 d2		 test	 edx, edx
  0014d	0f 85 ce 02 00
	00		 jne	 $L199165

; 937  : 			if (_Parent(_Pnode) == _Left(_Parent(_Parent(_Pnode))))

  00153	8b 45 ec	 mov	 eax, DWORD PTR __Pnode$199162[ebp]
  00156	50		 push	 eax
  00157	e8 00 00 00 00	 call	 ?_Parent@?$_Tree@V?$_Tmap_traits@PAUHWND__@@UWndMoveData@@U?$less@PAUHWND__@@@std@@V?$allocator@U?$pair@QAUHWND__@@UWndMoveData@@@std@@@4@$0A@@std@@@std@@KAAAPAU_Node@?$_Tree_nod@V?$_Tmap_traits@PAUHWND__@@UWndMoveData@@U?$less@PAUHWND__@@@std@@V?$allocator@U?$pair@QAUHWND__@@UWndMoveData@@@std@@@4@$0A@@std@@@2@PAU342@@Z ; std::_Tree<std::_Tmap_traits<HWND__ *,WndMoveData,std::less<HWND__ *>,std::allocator<std::pair<HWND__ * const,WndMoveData> >,0> >::_Parent
  0015c	83 c4 04	 add	 esp, 4
  0015f	8b f0		 mov	 esi, eax
  00161	8b 4d ec	 mov	 ecx, DWORD PTR __Pnode$199162[ebp]
  00164	51		 push	 ecx
  00165	e8 00 00 00 00	 call	 ?_Parent@?$_Tree@V?$_Tmap_traits@PAUHWND__@@UWndMoveData@@U?$less@PAUHWND__@@@std@@V?$allocator@U?$pair@QAUHWND__@@UWndMoveData@@@std@@@4@$0A@@std@@@std@@KAAAPAU_Node@?$_Tree_nod@V?$_Tmap_traits@PAUHWND__@@UWndMoveData@@U?$less@PAUHWND__@@@std@@V?$allocator@U?$pair@QAUHWND__@@UWndMoveData@@@std@@@4@$0A@@std@@@2@PAU342@@Z ; std::_Tree<std::_Tmap_traits<HWND__ *,WndMoveData,std::less<HWND__ *>,std::allocator<std::pair<HWND__ * const,WndMoveData> >,0> >::_Parent
  0016a	83 c4 04	 add	 esp, 4
  0016d	8b 10		 mov	 edx, DWORD PTR [eax]
  0016f	52		 push	 edx
  00170	e8 00 00 00 00	 call	 ?_Parent@?$_Tree@V?$_Tmap_traits@PAUHWND__@@UWndMoveData@@U?$less@PAUHWND__@@@std@@V?$allocator@U?$pair@QAUHWND__@@UWndMoveData@@@std@@@4@$0A@@std@@@std@@KAAAPAU_Node@?$_Tree_nod@V?$_Tmap_traits@PAUHWND__@@UWndMoveData@@U?$less@PAUHWND__@@@std@@V?$allocator@U?$pair@QAUHWND__@@UWndMoveData@@@std@@@4@$0A@@std@@@2@PAU342@@Z ; std::_Tree<std::_Tmap_traits<HWND__ *,WndMoveData,std::less<HWND__ *>,std::allocator<std::pair<HWND__ * const,WndMoveData> >,0> >::_Parent
  00175	83 c4 04	 add	 esp, 4
  00178	8b 00		 mov	 eax, DWORD PTR [eax]
  0017a	50		 push	 eax
  0017b	e8 00 00 00 00	 call	 ?_Left@?$_Tree@V?$_Tmap_traits@PAUHWND__@@UWndMoveData@@U?$less@PAUHWND__@@@std@@V?$allocator@U?$pair@QAUHWND__@@UWndMoveData@@@std@@@4@$0A@@std@@@std@@KAAAPAU_Node@?$_Tree_nod@V?$_Tmap_traits@PAUHWND__@@UWndMoveData@@U?$less@PAUHWND__@@@std@@V?$allocator@U?$pair@QAUHWND__@@UWndMoveData@@@std@@@4@$0A@@std@@@2@PAU342@@Z ; std::_Tree<std::_Tmap_traits<HWND__ *,WndMoveData,std::less<HWND__ *>,std::allocator<std::pair<HWND__ * const,WndMoveData> >,0> >::_Left
  00180	83 c4 04	 add	 esp, 4
  00183	8b 0e		 mov	 ecx, DWORD PTR [esi]
  00185	3b 08		 cmp	 ecx, DWORD PTR [eax]
  00187	0f 85 4a 01 00
	00		 jne	 $L199166

; 938  : 				{	// fixup red-red in left subtree
; 939  : 				_Wherenode = _Right(_Parent(_Parent(_Pnode)));

  0018d	8b 55 ec	 mov	 edx, DWORD PTR __Pnode$199162[ebp]
  00190	52		 push	 edx
  00191	e8 00 00 00 00	 call	 ?_Parent@?$_Tree@V?$_Tmap_traits@PAUHWND__@@UWndMoveData@@U?$less@PAUHWND__@@@std@@V?$allocator@U?$pair@QAUHWND__@@UWndMoveData@@@std@@@4@$0A@@std@@@std@@KAAAPAU_Node@?$_Tree_nod@V?$_Tmap_traits@PAUHWND__@@UWndMoveData@@U?$less@PAUHWND__@@@std@@V?$allocator@U?$pair@QAUHWND__@@UWndMoveData@@@std@@@4@$0A@@std@@@2@PAU342@@Z ; std::_Tree<std::_Tmap_traits<HWND__ *,WndMoveData,std::less<HWND__ *>,std::allocator<std::pair<HWND__ * const,WndMoveData> >,0> >::_Parent
  00196	83 c4 04	 add	 esp, 4
  00199	8b 00		 mov	 eax, DWORD PTR [eax]
  0019b	50		 push	 eax
  0019c	e8 00 00 00 00	 call	 ?_Parent@?$_Tree@V?$_Tmap_traits@PAUHWND__@@UWndMoveData@@U?$less@PAUHWND__@@@std@@V?$allocator@U?$pair@QAUHWND__@@UWndMoveData@@@std@@@4@$0A@@std@@@std@@KAAAPAU_Node@?$_Tree_nod@V?$_Tmap_traits@PAUHWND__@@UWndMoveData@@U?$less@PAUHWND__@@@std@@V?$allocator@U?$pair@QAUHWND__@@UWndMoveData@@@std@@@4@$0A@@std@@@2@PAU342@@Z ; std::_Tree<std::_Tmap_traits<HWND__ *,WndMoveData,std::less<HWND__ *>,std::allocator<std::pair<HWND__ * const,WndMoveData> >,0> >::_Parent
  001a1	83 c4 04	 add	 esp, 4
  001a4	8b 08		 mov	 ecx, DWORD PTR [eax]
  001a6	51		 push	 ecx
  001a7	e8 00 00 00 00	 call	 ?_Right@?$_Tree@V?$_Tmap_traits@PAUHWND__@@UWndMoveData@@U?$less@PAUHWND__@@@std@@V?$allocator@U?$pair@QAUHWND__@@UWndMoveData@@@std@@@4@$0A@@std@@@std@@KAAAPAU_Node@?$_Tree_nod@V?$_Tmap_traits@PAUHWND__@@UWndMoveData@@U?$less@PAUHWND__@@@std@@V?$allocator@U?$pair@QAUHWND__@@UWndMoveData@@@std@@@4@$0A@@std@@@2@PAU342@@Z ; std::_Tree<std::_Tmap_traits<HWND__ *,WndMoveData,std::less<HWND__ *>,std::allocator<std::pair<HWND__ * const,WndMoveData> >,0> >::_Right
  001ac	83 c4 04	 add	 esp, 4
  001af	8b 10		 mov	 edx, DWORD PTR [eax]
  001b1	89 55 10	 mov	 DWORD PTR __Wherenode$[ebp], edx

; 940  : 				if (_Color(_Wherenode) == _Red)

  001b4	8b 45 10	 mov	 eax, DWORD PTR __Wherenode$[ebp]
  001b7	50		 push	 eax
  001b8	e8 00 00 00 00	 call	 ?_Color@?$_Tree@V?$_Tmap_traits@PAUHWND__@@UWndMoveData@@U?$less@PAUHWND__@@@std@@V?$allocator@U?$pair@QAUHWND__@@UWndMoveData@@@std@@@4@$0A@@std@@@std@@KAAADPAU_Node@?$_Tree_nod@V?$_Tmap_traits@PAUHWND__@@UWndMoveData@@U?$less@PAUHWND__@@@std@@V?$allocator@U?$pair@QAUHWND__@@UWndMoveData@@@std@@@4@$0A@@std@@@2@@Z ; std::_Tree<std::_Tmap_traits<HWND__ *,WndMoveData,std::less<HWND__ *>,std::allocator<std::pair<HWND__ * const,WndMoveData> >,0> >::_Color
  001bd	83 c4 04	 add	 esp, 4
  001c0	0f be 08	 movsx	 ecx, BYTE PTR [eax]
  001c3	85 c9		 test	 ecx, ecx
  001c5	75 6f		 jne	 SHORT $L199167

; 941  : 					{	// parent has two red children, blacken both
; 942  : 					_Color(_Parent(_Pnode)) = _Black;

  001c7	8b 55 ec	 mov	 edx, DWORD PTR __Pnode$199162[ebp]
  001ca	52		 push	 edx
  001cb	e8 00 00 00 00	 call	 ?_Parent@?$_Tree@V?$_Tmap_traits@PAUHWND__@@UWndMoveData@@U?$less@PAUHWND__@@@std@@V?$allocator@U?$pair@QAUHWND__@@UWndMoveData@@@std@@@4@$0A@@std@@@std@@KAAAPAU_Node@?$_Tree_nod@V?$_Tmap_traits@PAUHWND__@@UWndMoveData@@U?$less@PAUHWND__@@@std@@V?$allocator@U?$pair@QAUHWND__@@UWndMoveData@@@std@@@4@$0A@@std@@@2@PAU342@@Z ; std::_Tree<std::_Tmap_traits<HWND__ *,WndMoveData,std::less<HWND__ *>,std::allocator<std::pair<HWND__ * const,WndMoveData> >,0> >::_Parent
  001d0	83 c4 04	 add	 esp, 4
  001d3	8b 00		 mov	 eax, DWORD PTR [eax]
  001d5	50		 push	 eax
  001d6	e8 00 00 00 00	 call	 ?_Color@?$_Tree@V?$_Tmap_traits@PAUHWND__@@UWndMoveData@@U?$less@PAUHWND__@@@std@@V?$allocator@U?$pair@QAUHWND__@@UWndMoveData@@@std@@@4@$0A@@std@@@std@@KAAADPAU_Node@?$_Tree_nod@V?$_Tmap_traits@PAUHWND__@@UWndMoveData@@U?$less@PAUHWND__@@@std@@V?$allocator@U?$pair@QAUHWND__@@UWndMoveData@@@std@@@4@$0A@@std@@@2@@Z ; std::_Tree<std::_Tmap_traits<HWND__ *,WndMoveData,std::less<HWND__ *>,std::allocator<std::pair<HWND__ * const,WndMoveData> >,0> >::_Color
  001db	83 c4 04	 add	 esp, 4
  001de	c6 00 01	 mov	 BYTE PTR [eax], 1

; 943  : 					_Color(_Wherenode) = _Black;

  001e1	8b 4d 10	 mov	 ecx, DWORD PTR __Wherenode$[ebp]
  001e4	51		 push	 ecx
  001e5	e8 00 00 00 00	 call	 ?_Color@?$_Tree@V?$_Tmap_traits@PAUHWND__@@UWndMoveData@@U?$less@PAUHWND__@@@std@@V?$allocator@U?$pair@QAUHWND__@@UWndMoveData@@@std@@@4@$0A@@std@@@std@@KAAADPAU_Node@?$_Tree_nod@V?$_Tmap_traits@PAUHWND__@@UWndMoveData@@U?$less@PAUHWND__@@@std@@V?$allocator@U?$pair@QAUHWND__@@UWndMoveData@@@std@@@4@$0A@@std@@@2@@Z ; std::_Tree<std::_Tmap_traits<HWND__ *,WndMoveData,std::less<HWND__ *>,std::allocator<std::pair<HWND__ * const,WndMoveData> >,0> >::_Color
  001ea	83 c4 04	 add	 esp, 4
  001ed	c6 00 01	 mov	 BYTE PTR [eax], 1

; 944  : 					_Color(_Parent(_Parent(_Pnode))) = _Red;

  001f0	8b 55 ec	 mov	 edx, DWORD PTR __Pnode$199162[ebp]
  001f3	52		 push	 edx
  001f4	e8 00 00 00 00	 call	 ?_Parent@?$_Tree@V?$_Tmap_traits@PAUHWND__@@UWndMoveData@@U?$less@PAUHWND__@@@std@@V?$allocator@U?$pair@QAUHWND__@@UWndMoveData@@@std@@@4@$0A@@std@@@std@@KAAAPAU_Node@?$_Tree_nod@V?$_Tmap_traits@PAUHWND__@@UWndMoveData@@U?$less@PAUHWND__@@@std@@V?$allocator@U?$pair@QAUHWND__@@UWndMoveData@@@std@@@4@$0A@@std@@@2@PAU342@@Z ; std::_Tree<std::_Tmap_traits<HWND__ *,WndMoveData,std::less<HWND__ *>,std::allocator<std::pair<HWND__ * const,WndMoveData> >,0> >::_Parent
  001f9	83 c4 04	 add	 esp, 4
  001fc	8b 00		 mov	 eax, DWORD PTR [eax]
  001fe	50		 push	 eax
  001ff	e8 00 00 00 00	 call	 ?_Parent@?$_Tree@V?$_Tmap_traits@PAUHWND__@@UWndMoveData@@U?$less@PAUHWND__@@@std@@V?$allocator@U?$pair@QAUHWND__@@UWndMoveData@@@std@@@4@$0A@@std@@@std@@KAAAPAU_Node@?$_Tree_nod@V?$_Tmap_traits@PAUHWND__@@UWndMoveData@@U?$less@PAUHWND__@@@std@@V?$allocator@U?$pair@QAUHWND__@@UWndMoveData@@@std@@@4@$0A@@std@@@2@PAU342@@Z ; std::_Tree<std::_Tmap_traits<HWND__ *,WndMoveData,std::less<HWND__ *>,std::allocator<std::pair<HWND__ * const,WndMoveData> >,0> >::_Parent
  00204	83 c4 04	 add	 esp, 4
  00207	8b 08		 mov	 ecx, DWORD PTR [eax]
  00209	51		 push	 ecx
  0020a	e8 00 00 00 00	 call	 ?_Color@?$_Tree@V?$_Tmap_traits@PAUHWND__@@UWndMoveData@@U?$less@PAUHWND__@@@std@@V?$allocator@U?$pair@QAUHWND__@@UWndMoveData@@@std@@@4@$0A@@std@@@std@@KAAADPAU_Node@?$_Tree_nod@V?$_Tmap_traits@PAUHWND__@@UWndMoveData@@U?$less@PAUHWND__@@@std@@V?$allocator@U?$pair@QAUHWND__@@UWndMoveData@@@std@@@4@$0A@@std@@@2@@Z ; std::_Tree<std::_Tmap_traits<HWND__ *,WndMoveData,std::less<HWND__ *>,std::allocator<std::pair<HWND__ * const,WndMoveData> >,0> >::_Color
  0020f	83 c4 04	 add	 esp, 4
  00212	c6 00 00	 mov	 BYTE PTR [eax], 0

; 945  : 					_Pnode = _Parent(_Parent(_Pnode));

  00215	8b 55 ec	 mov	 edx, DWORD PTR __Pnode$199162[ebp]
  00218	52		 push	 edx
  00219	e8 00 00 00 00	 call	 ?_Parent@?$_Tree@V?$_Tmap_traits@PAUHWND__@@UWndMoveData@@U?$less@PAUHWND__@@@std@@V?$allocator@U?$pair@QAUHWND__@@UWndMoveData@@@std@@@4@$0A@@std@@@std@@KAAAPAU_Node@?$_Tree_nod@V?$_Tmap_traits@PAUHWND__@@UWndMoveData@@U?$less@PAUHWND__@@@std@@V?$allocator@U?$pair@QAUHWND__@@UWndMoveData@@@std@@@4@$0A@@std@@@2@PAU342@@Z ; std::_Tree<std::_Tmap_traits<HWND__ *,WndMoveData,std::less<HWND__ *>,std::allocator<std::pair<HWND__ * const,WndMoveData> >,0> >::_Parent
  0021e	83 c4 04	 add	 esp, 4
  00221	8b 00		 mov	 eax, DWORD PTR [eax]
  00223	50		 push	 eax
  00224	e8 00 00 00 00	 call	 ?_Parent@?$_Tree@V?$_Tmap_traits@PAUHWND__@@UWndMoveData@@U?$less@PAUHWND__@@@std@@V?$allocator@U?$pair@QAUHWND__@@UWndMoveData@@@std@@@4@$0A@@std@@@std@@KAAAPAU_Node@?$_Tree_nod@V?$_Tmap_traits@PAUHWND__@@UWndMoveData@@U?$less@PAUHWND__@@@std@@V?$allocator@U?$pair@QAUHWND__@@UWndMoveData@@@std@@@4@$0A@@std@@@2@PAU342@@Z ; std::_Tree<std::_Tmap_traits<HWND__ *,WndMoveData,std::less<HWND__ *>,std::allocator<std::pair<HWND__ * const,WndMoveData> >,0> >::_Parent
  00229	83 c4 04	 add	 esp, 4
  0022c	8b 08		 mov	 ecx, DWORD PTR [eax]
  0022e	89 4d ec	 mov	 DWORD PTR __Pnode$199162[ebp], ecx

; 946  : 					}
; 947  : 				else

  00231	e9 9c 00 00 00	 jmp	 $L199168
$L199167:

; 948  : 					{	// parent has red and black children
; 949  : 					if (_Pnode == _Right(_Parent(_Pnode)))

  00236	8b 55 ec	 mov	 edx, DWORD PTR __Pnode$199162[ebp]
  00239	52		 push	 edx
  0023a	e8 00 00 00 00	 call	 ?_Parent@?$_Tree@V?$_Tmap_traits@PAUHWND__@@UWndMoveData@@U?$less@PAUHWND__@@@std@@V?$allocator@U?$pair@QAUHWND__@@UWndMoveData@@@std@@@4@$0A@@std@@@std@@KAAAPAU_Node@?$_Tree_nod@V?$_Tmap_traits@PAUHWND__@@UWndMoveData@@U?$less@PAUHWND__@@@std@@V?$allocator@U?$pair@QAUHWND__@@UWndMoveData@@@std@@@4@$0A@@std@@@2@PAU342@@Z ; std::_Tree<std::_Tmap_traits<HWND__ *,WndMoveData,std::less<HWND__ *>,std::allocator<std::pair<HWND__ * const,WndMoveData> >,0> >::_Parent
  0023f	83 c4 04	 add	 esp, 4
  00242	8b 00		 mov	 eax, DWORD PTR [eax]
  00244	50		 push	 eax
  00245	e8 00 00 00 00	 call	 ?_Right@?$_Tree@V?$_Tmap_traits@PAUHWND__@@UWndMoveData@@U?$less@PAUHWND__@@@std@@V?$allocator@U?$pair@QAUHWND__@@UWndMoveData@@@std@@@4@$0A@@std@@@std@@KAAAPAU_Node@?$_Tree_nod@V?$_Tmap_traits@PAUHWND__@@UWndMoveData@@U?$less@PAUHWND__@@@std@@V?$allocator@U?$pair@QAUHWND__@@UWndMoveData@@@std@@@4@$0A@@std@@@2@PAU342@@Z ; std::_Tree<std::_Tmap_traits<HWND__ *,WndMoveData,std::less<HWND__ *>,std::allocator<std::pair<HWND__ * const,WndMoveData> >,0> >::_Right
  0024a	83 c4 04	 add	 esp, 4
  0024d	8b 4d ec	 mov	 ecx, DWORD PTR __Pnode$199162[ebp]
  00250	3b 08		 cmp	 ecx, DWORD PTR [eax]
  00252	75 1d		 jne	 SHORT $L199169

; 950  : 						{	// rotate right child to left
; 951  : 						_Pnode = _Parent(_Pnode);

  00254	8b 55 ec	 mov	 edx, DWORD PTR __Pnode$199162[ebp]
  00257	52		 push	 edx
  00258	e8 00 00 00 00	 call	 ?_Parent@?$_Tree@V?$_Tmap_traits@PAUHWND__@@UWndMoveData@@U?$less@PAUHWND__@@@std@@V?$allocator@U?$pair@QAUHWND__@@UWndMoveData@@@std@@@4@$0A@@std@@@std@@KAAAPAU_Node@?$_Tree_nod@V?$_Tmap_traits@PAUHWND__@@UWndMoveData@@U?$less@PAUHWND__@@@std@@V?$allocator@U?$pair@QAUHWND__@@UWndMoveData@@@std@@@4@$0A@@std@@@2@PAU342@@Z ; std::_Tree<std::_Tmap_traits<HWND__ *,WndMoveData,std::less<HWND__ *>,std::allocator<std::pair<HWND__ * const,WndMoveData> >,0> >::_Parent
  0025d	83 c4 04	 add	 esp, 4
  00260	8b 00		 mov	 eax, DWORD PTR [eax]
  00262	89 45 ec	 mov	 DWORD PTR __Pnode$199162[ebp], eax

; 952  : 						_Lrotate(_Pnode);

  00265	8b 4d ec	 mov	 ecx, DWORD PTR __Pnode$199162[ebp]
  00268	51		 push	 ecx
  00269	8b 4d a4	 mov	 ecx, DWORD PTR _this$[ebp]
  0026c	e8 00 00 00 00	 call	 ?_Lrotate@?$_Tree@V?$_Tmap_traits@PAUHWND__@@UWndMoveData@@U?$less@PAUHWND__@@@std@@V?$allocator@U?$pair@QAUHWND__@@UWndMoveData@@@std@@@4@$0A@@std@@@std@@IAEXPAU_Node@?$_Tree_nod@V?$_Tmap_traits@PAUHWND__@@UWndMoveData@@U?$less@PAUHWND__@@@std@@V?$allocator@U?$pair@QAUHWND__@@UWndMoveData@@@std@@@4@$0A@@std@@@2@@Z ; std::_Tree<std::_Tmap_traits<HWND__ *,WndMoveData,std::less<HWND__ *>,std::allocator<std::pair<HWND__ * const,WndMoveData> >,0> >::_Lrotate
$L199169:

; 953  : 						}
; 954  : 					_Color(_Parent(_Pnode)) = _Black;	// propagate red up

  00271	8b 55 ec	 mov	 edx, DWORD PTR __Pnode$199162[ebp]
  00274	52		 push	 edx
  00275	e8 00 00 00 00	 call	 ?_Parent@?$_Tree@V?$_Tmap_traits@PAUHWND__@@UWndMoveData@@U?$less@PAUHWND__@@@std@@V?$allocator@U?$pair@QAUHWND__@@UWndMoveData@@@std@@@4@$0A@@std@@@std@@KAAAPAU_Node@?$_Tree_nod@V?$_Tmap_traits@PAUHWND__@@UWndMoveData@@U?$less@PAUHWND__@@@std@@V?$allocator@U?$pair@QAUHWND__@@UWndMoveData@@@std@@@4@$0A@@std@@@2@PAU342@@Z ; std::_Tree<std::_Tmap_traits<HWND__ *,WndMoveData,std::less<HWND__ *>,std::allocator<std::pair<HWND__ * const,WndMoveData> >,0> >::_Parent
  0027a	83 c4 04	 add	 esp, 4
  0027d	8b 00		 mov	 eax, DWORD PTR [eax]
  0027f	50		 push	 eax
  00280	e8 00 00 00 00	 call	 ?_Color@?$_Tree@V?$_Tmap_traits@PAUHWND__@@UWndMoveData@@U?$less@PAUHWND__@@@std@@V?$allocator@U?$pair@QAUHWND__@@UWndMoveData@@@std@@@4@$0A@@std@@@std@@KAAADPAU_Node@?$_Tree_nod@V?$_Tmap_traits@PAUHWND__@@UWndMoveData@@U?$less@PAUHWND__@@@std@@V?$allocator@U?$pair@QAUHWND__@@UWndMoveData@@@std@@@4@$0A@@std@@@2@@Z ; std::_Tree<std::_Tmap_traits<HWND__ *,WndMoveData,std::less<HWND__ *>,std::allocator<std::pair<HWND__ * const,WndMoveData> >,0> >::_Color
  00285	83 c4 04	 add	 esp, 4
  00288	c6 00 01	 mov	 BYTE PTR [eax], 1

; 955  : 					_Color(_Parent(_Parent(_Pnode))) = _Red;

  0028b	8b 4d ec	 mov	 ecx, DWORD PTR __Pnode$199162[ebp]
  0028e	51		 push	 ecx
  0028f	e8 00 00 00 00	 call	 ?_Parent@?$_Tree@V?$_Tmap_traits@PAUHWND__@@UWndMoveData@@U?$less@PAUHWND__@@@std@@V?$allocator@U?$pair@QAUHWND__@@UWndMoveData@@@std@@@4@$0A@@std@@@std@@KAAAPAU_Node@?$_Tree_nod@V?$_Tmap_traits@PAUHWND__@@UWndMoveData@@U?$less@PAUHWND__@@@std@@V?$allocator@U?$pair@QAUHWND__@@UWndMoveData@@@std@@@4@$0A@@std@@@2@PAU342@@Z ; std::_Tree<std::_Tmap_traits<HWND__ *,WndMoveData,std::less<HWND__ *>,std::allocator<std::pair<HWND__ * const,WndMoveData> >,0> >::_Parent
  00294	83 c4 04	 add	 esp, 4
  00297	8b 10		 mov	 edx, DWORD PTR [eax]
  00299	52		 push	 edx
  0029a	e8 00 00 00 00	 call	 ?_Parent@?$_Tree@V?$_Tmap_traits@PAUHWND__@@UWndMoveData@@U?$less@PAUHWND__@@@std@@V?$allocator@U?$pair@QAUHWND__@@UWndMoveData@@@std@@@4@$0A@@std@@@std@@KAAAPAU_Node@?$_Tree_nod@V?$_Tmap_traits@PAUHWND__@@UWndMoveData@@U?$less@PAUHWND__@@@std@@V?$allocator@U?$pair@QAUHWND__@@UWndMoveData@@@std@@@4@$0A@@std@@@2@PAU342@@Z ; std::_Tree<std::_Tmap_traits<HWND__ *,WndMoveData,std::less<HWND__ *>,std::allocator<std::pair<HWND__ * const,WndMoveData> >,0> >::_Parent
  0029f	83 c4 04	 add	 esp, 4
  002a2	8b 00		 mov	 eax, DWORD PTR [eax]
  002a4	50		 push	 eax
  002a5	e8 00 00 00 00	 call	 ?_Color@?$_Tree@V?$_Tmap_traits@PAUHWND__@@UWndMoveData@@U?$less@PAUHWND__@@@std@@V?$allocator@U?$pair@QAUHWND__@@UWndMoveData@@@std@@@4@$0A@@std@@@std@@KAAADPAU_Node@?$_Tree_nod@V?$_Tmap_traits@PAUHWND__@@UWndMoveData@@U?$less@PAUHWND__@@@std@@V?$allocator@U?$pair@QAUHWND__@@UWndMoveData@@@std@@@4@$0A@@std@@@2@@Z ; std::_Tree<std::_Tmap_traits<HWND__ *,WndMoveData,std::less<HWND__ *>,std::allocator<std::pair<HWND__ * const,WndMoveData> >,0> >::_Color
  002aa	83 c4 04	 add	 esp, 4
  002ad	c6 00 00	 mov	 BYTE PTR [eax], 0

; 956  : 					_Rrotate(_Parent(_Parent(_Pnode)));

  002b0	8b 4d ec	 mov	 ecx, DWORD PTR __Pnode$199162[ebp]
  002b3	51		 push	 ecx
  002b4	e8 00 00 00 00	 call	 ?_Parent@?$_Tree@V?$_Tmap_traits@PAUHWND__@@UWndMoveData@@U?$less@PAUHWND__@@@std@@V?$allocator@U?$pair@QAUHWND__@@UWndMoveData@@@std@@@4@$0A@@std@@@std@@KAAAPAU_Node@?$_Tree_nod@V?$_Tmap_traits@PAUHWND__@@UWndMoveData@@U?$less@PAUHWND__@@@std@@V?$allocator@U?$pair@QAUHWND__@@UWndMoveData@@@std@@@4@$0A@@std@@@2@PAU342@@Z ; std::_Tree<std::_Tmap_traits<HWND__ *,WndMoveData,std::less<HWND__ *>,std::allocator<std::pair<HWND__ * const,WndMoveData> >,0> >::_Parent
  002b9	83 c4 04	 add	 esp, 4
  002bc	8b 10		 mov	 edx, DWORD PTR [eax]
  002be	52		 push	 edx
  002bf	e8 00 00 00 00	 call	 ?_Parent@?$_Tree@V?$_Tmap_traits@PAUHWND__@@UWndMoveData@@U?$less@PAUHWND__@@@std@@V?$allocator@U?$pair@QAUHWND__@@UWndMoveData@@@std@@@4@$0A@@std@@@std@@KAAAPAU_Node@?$_Tree_nod@V?$_Tmap_traits@PAUHWND__@@UWndMoveData@@U?$less@PAUHWND__@@@std@@V?$allocator@U?$pair@QAUHWND__@@UWndMoveData@@@std@@@4@$0A@@std@@@2@PAU342@@Z ; std::_Tree<std::_Tmap_traits<HWND__ *,WndMoveData,std::less<HWND__ *>,std::allocator<std::pair<HWND__ * const,WndMoveData> >,0> >::_Parent
  002c4	83 c4 04	 add	 esp, 4
  002c7	8b 00		 mov	 eax, DWORD PTR [eax]
  002c9	50		 push	 eax
  002ca	8b 4d a4	 mov	 ecx, DWORD PTR _this$[ebp]
  002cd	e8 00 00 00 00	 call	 ?_Rrotate@?$_Tree@V?$_Tmap_traits@PAUHWND__@@UWndMoveData@@U?$less@PAUHWND__@@@std@@V?$allocator@U?$pair@QAUHWND__@@UWndMoveData@@@std@@@4@$0A@@std@@@std@@IAEXPAU_Node@?$_Tree_nod@V?$_Tmap_traits@PAUHWND__@@UWndMoveData@@U?$less@PAUHWND__@@@std@@V?$allocator@U?$pair@QAUHWND__@@UWndMoveData@@@std@@@4@$0A@@std@@@2@@Z ; std::_Tree<std::_Tmap_traits<HWND__ *,WndMoveData,std::less<HWND__ *>,std::allocator<std::pair<HWND__ * const,WndMoveData> >,0> >::_Rrotate
$L199168:

; 957  : 					}
; 958  : 				}
; 959  : 			else

  002d2	e9 45 01 00 00	 jmp	 $L199170
$L199166:

; 960  : 				{	// fixup red-red in right subtree
; 961  : 				_Wherenode = _Left(_Parent(_Parent(_Pnode)));

  002d7	8b 4d ec	 mov	 ecx, DWORD PTR __Pnode$199162[ebp]
  002da	51		 push	 ecx
  002db	e8 00 00 00 00	 call	 ?_Parent@?$_Tree@V?$_Tmap_traits@PAUHWND__@@UWndMoveData@@U?$less@PAUHWND__@@@std@@V?$allocator@U?$pair@QAUHWND__@@UWndMoveData@@@std@@@4@$0A@@std@@@std@@KAAAPAU_Node@?$_Tree_nod@V?$_Tmap_traits@PAUHWND__@@UWndMoveData@@U?$less@PAUHWND__@@@std@@V?$allocator@U?$pair@QAUHWND__@@UWndMoveData@@@std@@@4@$0A@@std@@@2@PAU342@@Z ; std::_Tree<std::_Tmap_traits<HWND__ *,WndMoveData,std::less<HWND__ *>,std::allocator<std::pair<HWND__ * const,WndMoveData> >,0> >::_Parent
  002e0	83 c4 04	 add	 esp, 4
  002e3	8b 10		 mov	 edx, DWORD PTR [eax]
  002e5	52		 push	 edx
  002e6	e8 00 00 00 00	 call	 ?_Parent@?$_Tree@V?$_Tmap_traits@PAUHWND__@@UWndMoveData@@U?$less@PAUHWND__@@@std@@V?$allocator@U?$pair@QAUHWND__@@UWndMoveData@@@std@@@4@$0A@@std@@@std@@KAAAPAU_Node@?$_Tree_nod@V?$_Tmap_traits@PAUHWND__@@UWndMoveData@@U?$less@PAUHWND__@@@std@@V?$allocator@U?$pair@QAUHWND__@@UWndMoveData@@@std@@@4@$0A@@std@@@2@PAU342@@Z ; std::_Tree<std::_Tmap_traits<HWND__ *,WndMoveData,std::less<HWND__ *>,std::allocator<std::pair<HWND__ * const,WndMoveData> >,0> >::_Parent
  002eb	83 c4 04	 add	 esp, 4
  002ee	8b 00		 mov	 eax, DWORD PTR [eax]
  002f0	50		 push	 eax
  002f1	e8 00 00 00 00	 call	 ?_Left@?$_Tree@V?$_Tmap_traits@PAUHWND__@@UWndMoveData@@U?$less@PAUHWND__@@@std@@V?$allocator@U?$pair@QAUHWND__@@UWndMoveData@@@std@@@4@$0A@@std@@@std@@KAAAPAU_Node@?$_Tree_nod@V?$_Tmap_traits@PAUHWND__@@UWndMoveData@@U?$less@PAUHWND__@@@std@@V?$allocator@U?$pair@QAUHWND__@@UWndMoveData@@@std@@@4@$0A@@std@@@2@PAU342@@Z ; std::_Tree<std::_Tmap_traits<HWND__ *,WndMoveData,std::less<HWND__ *>,std::allocator<std::pair<HWND__ * const,WndMoveData> >,0> >::_Left
  002f6	83 c4 04	 add	 esp, 4
  002f9	8b 08		 mov	 ecx, DWORD PTR [eax]
  002fb	89 4d 10	 mov	 DWORD PTR __Wherenode$[ebp], ecx

; 962  : 				if (_Color(_Wherenode) == _Red)

  002fe	8b 55 10	 mov	 edx, DWORD PTR __Wherenode$[ebp]
  00301	52		 push	 edx
  00302	e8 00 00 00 00	 call	 ?_Color@?$_Tree@V?$_Tmap_traits@PAUHWND__@@UWndMoveData@@U?$less@PAUHWND__@@@std@@V?$allocator@U?$pair@QAUHWND__@@UWndMoveData@@@std@@@4@$0A@@std@@@std@@KAAADPAU_Node@?$_Tree_nod@V?$_Tmap_traits@PAUHWND__@@UWndMoveData@@U?$less@PAUHWND__@@@std@@V?$allocator@U?$pair@QAUHWND__@@UWndMoveData@@@std@@@4@$0A@@std@@@2@@Z ; std::_Tree<std::_Tmap_traits<HWND__ *,WndMoveData,std::less<HWND__ *>,std::allocator<std::pair<HWND__ * const,WndMoveData> >,0> >::_Color
  00307	83 c4 04	 add	 esp, 4
  0030a	0f be 00	 movsx	 eax, BYTE PTR [eax]
  0030d	85 c0		 test	 eax, eax
  0030f	75 6f		 jne	 SHORT $L199171

; 963  : 					{	// parent has two red children, blacken both
; 964  : 					_Color(_Parent(_Pnode)) = _Black;

  00311	8b 4d ec	 mov	 ecx, DWORD PTR __Pnode$199162[ebp]
  00314	51		 push	 ecx
  00315	e8 00 00 00 00	 call	 ?_Parent@?$_Tree@V?$_Tmap_traits@PAUHWND__@@UWndMoveData@@U?$less@PAUHWND__@@@std@@V?$allocator@U?$pair@QAUHWND__@@UWndMoveData@@@std@@@4@$0A@@std@@@std@@KAAAPAU_Node@?$_Tree_nod@V?$_Tmap_traits@PAUHWND__@@UWndMoveData@@U?$less@PAUHWND__@@@std@@V?$allocator@U?$pair@QAUHWND__@@UWndMoveData@@@std@@@4@$0A@@std@@@2@PAU342@@Z ; std::_Tree<std::_Tmap_traits<HWND__ *,WndMoveData,std::less<HWND__ *>,std::allocator<std::pair<HWND__ * const,WndMoveData> >,0> >::_Parent
  0031a	83 c4 04	 add	 esp, 4
  0031d	8b 10		 mov	 edx, DWORD PTR [eax]
  0031f	52		 push	 edx
  00320	e8 00 00 00 00	 call	 ?_Color@?$_Tree@V?$_Tmap_traits@PAUHWND__@@UWndMoveData@@U?$less@PAUHWND__@@@std@@V?$allocator@U?$pair@QAUHWND__@@UWndMoveData@@@std@@@4@$0A@@std@@@std@@KAAADPAU_Node@?$_Tree_nod@V?$_Tmap_traits@PAUHWND__@@UWndMoveData@@U?$less@PAUHWND__@@@std@@V?$allocator@U?$pair@QAUHWND__@@UWndMoveData@@@std@@@4@$0A@@std@@@2@@Z ; std::_Tree<std::_Tmap_traits<HWND__ *,WndMoveData,std::less<HWND__ *>,std::allocator<std::pair<HWND__ * const,WndMoveData> >,0> >::_Color
  00325	83 c4 04	 add	 esp, 4
  00328	c6 00 01	 mov	 BYTE PTR [eax], 1

; 965  : 					_Color(_Wherenode) = _Black;

  0032b	8b 45 10	 mov	 eax, DWORD PTR __Wherenode$[ebp]
  0032e	50		 push	 eax
  0032f	e8 00 00 00 00	 call	 ?_Color@?$_Tree@V?$_Tmap_traits@PAUHWND__@@UWndMoveData@@U?$less@PAUHWND__@@@std@@V?$allocator@U?$pair@QAUHWND__@@UWndMoveData@@@std@@@4@$0A@@std@@@std@@KAAADPAU_Node@?$_Tree_nod@V?$_Tmap_traits@PAUHWND__@@UWndMoveData@@U?$less@PAUHWND__@@@std@@V?$allocator@U?$pair@QAUHWND__@@UWndMoveData@@@std@@@4@$0A@@std@@@2@@Z ; std::_Tree<std::_Tmap_traits<HWND__ *,WndMoveData,std::less<HWND__ *>,std::allocator<std::pair<HWND__ * const,WndMoveData> >,0> >::_Color
  00334	83 c4 04	 add	 esp, 4
  00337	c6 00 01	 mov	 BYTE PTR [eax], 1

; 966  : 					_Color(_Parent(_Parent(_Pnode))) = _Red;

  0033a	8b 4d ec	 mov	 ecx, DWORD PTR __Pnode$199162[ebp]
  0033d	51		 push	 ecx
  0033e	e8 00 00 00 00	 call	 ?_Parent@?$_Tree@V?$_Tmap_traits@PAUHWND__@@UWndMoveData@@U?$less@PAUHWND__@@@std@@V?$allocator@U?$pair@QAUHWND__@@UWndMoveData@@@std@@@4@$0A@@std@@@std@@KAAAPAU_Node@?$_Tree_nod@V?$_Tmap_traits@PAUHWND__@@UWndMoveData@@U?$less@PAUHWND__@@@std@@V?$allocator@U?$pair@QAUHWND__@@UWndMoveData@@@std@@@4@$0A@@std@@@2@PAU342@@Z ; std::_Tree<std::_Tmap_traits<HWND__ *,WndMoveData,std::less<HWND__ *>,std::allocator<std::pair<HWND__ * const,WndMoveData> >,0> >::_Parent
  00343	83 c4 04	 add	 esp, 4
  00346	8b 10		 mov	 edx, DWORD PTR [eax]
  00348	52		 push	 edx
  00349	e8 00 00 00 00	 call	 ?_Parent@?$_Tree@V?$_Tmap_traits@PAUHWND__@@UWndMoveData@@U?$less@PAUHWND__@@@std@@V?$allocator@U?$pair@QAUHWND__@@UWndMoveData@@@std@@@4@$0A@@std@@@std@@KAAAPAU_Node@?$_Tree_nod@V?$_Tmap_traits@PAUHWND__@@UWndMoveData@@U?$less@PAUHWND__@@@std@@V?$allocator@U?$pair@QAUHWND__@@UWndMoveData@@@std@@@4@$0A@@std@@@2@PAU342@@Z ; std::_Tree<std::_Tmap_traits<HWND__ *,WndMoveData,std::less<HWND__ *>,std::allocator<std::pair<HWND__ * const,WndMoveData> >,0> >::_Parent
  0034e	83 c4 04	 add	 esp, 4
  00351	8b 00		 mov	 eax, DWORD PTR [eax]
  00353	50		 push	 eax
  00354	e8 00 00 00 00	 call	 ?_Color@?$_Tree@V?$_Tmap_traits@PAUHWND__@@UWndMoveData@@U?$less@PAUHWND__@@@std@@V?$allocator@U?$pair@QAUHWND__@@UWndMoveData@@@std@@@4@$0A@@std@@@std@@KAAADPAU_Node@?$_Tree_nod@V?$_Tmap_traits@PAUHWND__@@UWndMoveData@@U?$less@PAUHWND__@@@std@@V?$allocator@U?$pair@QAUHWND__@@UWndMoveData@@@std@@@4@$0A@@std@@@2@@Z ; std::_Tree<std::_Tmap_traits<HWND__ *,WndMoveData,std::less<HWND__ *>,std::allocator<std::pair<HWND__ * const,WndMoveData> >,0> >::_Color
  00359	83 c4 04	 add	 esp, 4
  0035c	c6 00 00	 mov	 BYTE PTR [eax], 0

; 967  : 					_Pnode = _Parent(_Parent(_Pnode));

  0035f	8b 4d ec	 mov	 ecx, DWORD PTR __Pnode$199162[ebp]
  00362	51		 push	 ecx
  00363	e8 00 00 00 00	 call	 ?_Parent@?$_Tree@V?$_Tmap_traits@PAUHWND__@@UWndMoveData@@U?$less@PAUHWND__@@@std@@V?$allocator@U?$pair@QAUHWND__@@UWndMoveData@@@std@@@4@$0A@@std@@@std@@KAAAPAU_Node@?$_Tree_nod@V?$_Tmap_traits@PAUHWND__@@UWndMoveData@@U?$less@PAUHWND__@@@std@@V?$allocator@U?$pair@QAUHWND__@@UWndMoveData@@@std@@@4@$0A@@std@@@2@PAU342@@Z ; std::_Tree<std::_Tmap_traits<HWND__ *,WndMoveData,std::less<HWND__ *>,std::allocator<std::pair<HWND__ * const,WndMoveData> >,0> >::_Parent
  00368	83 c4 04	 add	 esp, 4
  0036b	8b 10		 mov	 edx, DWORD PTR [eax]
  0036d	52		 push	 edx
  0036e	e8 00 00 00 00	 call	 ?_Parent@?$_Tree@V?$_Tmap_traits@PAUHWND__@@UWndMoveData@@U?$less@PAUHWND__@@@std@@V?$allocator@U?$pair@QAUHWND__@@UWndMoveData@@@std@@@4@$0A@@std@@@std@@KAAAPAU_Node@?$_Tree_nod@V?$_Tmap_traits@PAUHWND__@@UWndMoveData@@U?$less@PAUHWND__@@@std@@V?$allocator@U?$pair@QAUHWND__@@UWndMoveData@@@std@@@4@$0A@@std@@@2@PAU342@@Z ; std::_Tree<std::_Tmap_traits<HWND__ *,WndMoveData,std::less<HWND__ *>,std::allocator<std::pair<HWND__ * const,WndMoveData> >,0> >::_Parent
  00373	83 c4 04	 add	 esp, 4
  00376	8b 00		 mov	 eax, DWORD PTR [eax]
  00378	89 45 ec	 mov	 DWORD PTR __Pnode$199162[ebp], eax

; 968  : 					}
; 969  : 				else

  0037b	e9 9c 00 00 00	 jmp	 $L199170
$L199171:

; 970  : 					{	// parent has red and black children
; 971  : 					if (_Pnode == _Left(_Parent(_Pnode)))

  00380	8b 4d ec	 mov	 ecx, DWORD PTR __Pnode$199162[ebp]
  00383	51		 push	 ecx
  00384	e8 00 00 00 00	 call	 ?_Parent@?$_Tree@V?$_Tmap_traits@PAUHWND__@@UWndMoveData@@U?$less@PAUHWND__@@@std@@V?$allocator@U?$pair@QAUHWND__@@UWndMoveData@@@std@@@4@$0A@@std@@@std@@KAAAPAU_Node@?$_Tree_nod@V?$_Tmap_traits@PAUHWND__@@UWndMoveData@@U?$less@PAUHWND__@@@std@@V?$allocator@U?$pair@QAUHWND__@@UWndMoveData@@@std@@@4@$0A@@std@@@2@PAU342@@Z ; std::_Tree<std::_Tmap_traits<HWND__ *,WndMoveData,std::less<HWND__ *>,std::allocator<std::pair<HWND__ * const,WndMoveData> >,0> >::_Parent
  00389	83 c4 04	 add	 esp, 4
  0038c	8b 10		 mov	 edx, DWORD PTR [eax]
  0038e	52		 push	 edx
  0038f	e8 00 00 00 00	 call	 ?_Left@?$_Tree@V?$_Tmap_traits@PAUHWND__@@UWndMoveData@@U?$less@PAUHWND__@@@std@@V?$allocator@U?$pair@QAUHWND__@@UWndMoveData@@@std@@@4@$0A@@std@@@std@@KAAAPAU_Node@?$_Tree_nod@V?$_Tmap_traits@PAUHWND__@@UWndMoveData@@U?$less@PAUHWND__@@@std@@V?$allocator@U?$pair@QAUHWND__@@UWndMoveData@@@std@@@4@$0A@@std@@@2@PAU342@@Z ; std::_Tree<std::_Tmap_traits<HWND__ *,WndMoveData,std::less<HWND__ *>,std::allocator<std::pair<HWND__ * const,WndMoveData> >,0> >::_Left
  00394	83 c4 04	 add	 esp, 4
  00397	8b 4d ec	 mov	 ecx, DWORD PTR __Pnode$199162[ebp]
  0039a	3b 08		 cmp	 ecx, DWORD PTR [eax]
  0039c	75 1d		 jne	 SHORT $L199173

; 972  : 						{	// rotate left child to right
; 973  : 						_Pnode = _Parent(_Pnode);

  0039e	8b 55 ec	 mov	 edx, DWORD PTR __Pnode$199162[ebp]
  003a1	52		 push	 edx
  003a2	e8 00 00 00 00	 call	 ?_Parent@?$_Tree@V?$_Tmap_traits@PAUHWND__@@UWndMoveData@@U?$less@PAUHWND__@@@std@@V?$allocator@U?$pair@QAUHWND__@@UWndMoveData@@@std@@@4@$0A@@std@@@std@@KAAAPAU_Node@?$_Tree_nod@V?$_Tmap_traits@PAUHWND__@@UWndMoveData@@U?$less@PAUHWND__@@@std@@V?$allocator@U?$pair@QAUHWND__@@UWndMoveData@@@std@@@4@$0A@@std@@@2@PAU342@@Z ; std::_Tree<std::_Tmap_traits<HWND__ *,WndMoveData,std::less<HWND__ *>,std::allocator<std::pair<HWND__ * const,WndMoveData> >,0> >::_Parent
  003a7	83 c4 04	 add	 esp, 4
  003aa	8b 00		 mov	 eax, DWORD PTR [eax]
  003ac	89 45 ec	 mov	 DWORD PTR __Pnode$199162[ebp], eax

; 974  : 						_Rrotate(_Pnode);

  003af	8b 4d ec	 mov	 ecx, DWORD PTR __Pnode$199162[ebp]
  003b2	51		 push	 ecx
  003b3	8b 4d a4	 mov	 ecx, DWORD PTR _this$[ebp]
  003b6	e8 00 00 00 00	 call	 ?_Rrotate@?$_Tree@V?$_Tmap_traits@PAUHWND__@@UWndMoveData@@U?$less@PAUHWND__@@@std@@V?$allocator@U?$pair@QAUHWND__@@UWndMoveData@@@std@@@4@$0A@@std@@@std@@IAEXPAU_Node@?$_Tree_nod@V?$_Tmap_traits@PAUHWND__@@UWndMoveData@@U?$less@PAUHWND__@@@std@@V?$allocator@U?$pair@QAUHWND__@@UWndMoveData@@@std@@@4@$0A@@std@@@2@@Z ; std::_Tree<std::_Tmap_traits<HWND__ *,WndMoveData,std::less<HWND__ *>,std::allocator<std::pair<HWND__ * const,WndMoveData> >,0> >::_Rrotate
$L199173:

; 975  : 						}
; 976  : 					_Color(_Parent(_Pnode)) = _Black;	// propagate red up

  003bb	8b 55 ec	 mov	 edx, DWORD PTR __Pnode$199162[ebp]
  003be	52		 push	 edx
  003bf	e8 00 00 00 00	 call	 ?_Parent@?$_Tree@V?$_Tmap_traits@PAUHWND__@@UWndMoveData@@U?$less@PAUHWND__@@@std@@V?$allocator@U?$pair@QAUHWND__@@UWndMoveData@@@std@@@4@$0A@@std@@@std@@KAAAPAU_Node@?$_Tree_nod@V?$_Tmap_traits@PAUHWND__@@UWndMoveData@@U?$less@PAUHWND__@@@std@@V?$allocator@U?$pair@QAUHWND__@@UWndMoveData@@@std@@@4@$0A@@std@@@2@PAU342@@Z ; std::_Tree<std::_Tmap_traits<HWND__ *,WndMoveData,std::less<HWND__ *>,std::allocator<std::pair<HWND__ * const,WndMoveData> >,0> >::_Parent
  003c4	83 c4 04	 add	 esp, 4
  003c7	8b 00		 mov	 eax, DWORD PTR [eax]
  003c9	50		 push	 eax
  003ca	e8 00 00 00 00	 call	 ?_Color@?$_Tree@V?$_Tmap_traits@PAUHWND__@@UWndMoveData@@U?$less@PAUHWND__@@@std@@V?$allocator@U?$pair@QAUHWND__@@UWndMoveData@@@std@@@4@$0A@@std@@@std@@KAAADPAU_Node@?$_Tree_nod@V?$_Tmap_traits@PAUHWND__@@UWndMoveData@@U?$less@PAUHWND__@@@std@@V?$allocator@U?$pair@QAUHWND__@@UWndMoveData@@@std@@@4@$0A@@std@@@2@@Z ; std::_Tree<std::_Tmap_traits<HWND__ *,WndMoveData,std::less<HWND__ *>,std::allocator<std::pair<HWND__ * const,WndMoveData> >,0> >::_Color
  003cf	83 c4 04	 add	 esp, 4
  003d2	c6 00 01	 mov	 BYTE PTR [eax], 1

; 977  : 					_Color(_Parent(_Parent(_Pnode))) = _Red;

  003d5	8b 4d ec	 mov	 ecx, DWORD PTR __Pnode$199162[ebp]
  003d8	51		 push	 ecx
  003d9	e8 00 00 00 00	 call	 ?_Parent@?$_Tree@V?$_Tmap_traits@PAUHWND__@@UWndMoveData@@U?$less@PAUHWND__@@@std@@V?$allocator@U?$pair@QAUHWND__@@UWndMoveData@@@std@@@4@$0A@@std@@@std@@KAAAPAU_Node@?$_Tree_nod@V?$_Tmap_traits@PAUHWND__@@UWndMoveData@@U?$less@PAUHWND__@@@std@@V?$allocator@U?$pair@QAUHWND__@@UWndMoveData@@@std@@@4@$0A@@std@@@2@PAU342@@Z ; std::_Tree<std::_Tmap_traits<HWND__ *,WndMoveData,std::less<HWND__ *>,std::allocator<std::pair<HWND__ * const,WndMoveData> >,0> >::_Parent
  003de	83 c4 04	 add	 esp, 4
  003e1	8b 10		 mov	 edx, DWORD PTR [eax]
  003e3	52		 push	 edx
  003e4	e8 00 00 00 00	 call	 ?_Parent@?$_Tree@V?$_Tmap_traits@PAUHWND__@@UWndMoveData@@U?$less@PAUHWND__@@@std@@V?$allocator@U?$pair@QAUHWND__@@UWndMoveData@@@std@@@4@$0A@@std@@@std@@KAAAPAU_Node@?$_Tree_nod@V?$_Tmap_traits@PAUHWND__@@UWndMoveData@@U?$less@PAUHWND__@@@std@@V?$allocator@U?$pair@QAUHWND__@@UWndMoveData@@@std@@@4@$0A@@std@@@2@PAU342@@Z ; std::_Tree<std::_Tmap_traits<HWND__ *,WndMoveData,std::less<HWND__ *>,std::allocator<std::pair<HWND__ * const,WndMoveData> >,0> >::_Parent
  003e9	83 c4 04	 add	 esp, 4
  003ec	8b 00		 mov	 eax, DWORD PTR [eax]
  003ee	50		 push	 eax
  003ef	e8 00 00 00 00	 call	 ?_Color@?$_Tree@V?$_Tmap_traits@PAUHWND__@@UWndMoveData@@U?$less@PAUHWND__@@@std@@V?$allocator@U?$pair@QAUHWND__@@UWndMoveData@@@std@@@4@$0A@@std@@@std@@KAAADPAU_Node@?$_Tree_nod@V?$_Tmap_traits@PAUHWND__@@UWndMoveData@@U?$less@PAUHWND__@@@std@@V?$allocator@U?$pair@QAUHWND__@@UWndMoveData@@@std@@@4@$0A@@std@@@2@@Z ; std::_Tree<std::_Tmap_traits<HWND__ *,WndMoveData,std::less<HWND__ *>,std::allocator<std::pair<HWND__ * const,WndMoveData> >,0> >::_Color
  003f4	83 c4 04	 add	 esp, 4
  003f7	c6 00 00	 mov	 BYTE PTR [eax], 0

; 978  : 					_Lrotate(_Parent(_Parent(_Pnode)));

  003fa	8b 4d ec	 mov	 ecx, DWORD PTR __Pnode$199162[ebp]
  003fd	51		 push	 ecx
  003fe	e8 00 00 00 00	 call	 ?_Parent@?$_Tree@V?$_Tmap_traits@PAUHWND__@@UWndMoveData@@U?$less@PAUHWND__@@@std@@V?$allocator@U?$pair@QAUHWND__@@UWndMoveData@@@std@@@4@$0A@@std@@@std@@KAAAPAU_Node@?$_Tree_nod@V?$_Tmap_traits@PAUHWND__@@UWndMoveData@@U?$less@PAUHWND__@@@std@@V?$allocator@U?$pair@QAUHWND__@@UWndMoveData@@@std@@@4@$0A@@std@@@2@PAU342@@Z ; std::_Tree<std::_Tmap_traits<HWND__ *,WndMoveData,std::less<HWND__ *>,std::allocator<std::pair<HWND__ * const,WndMoveData> >,0> >::_Parent
  00403	83 c4 04	 add	 esp, 4
  00406	8b 10		 mov	 edx, DWORD PTR [eax]
  00408	52		 push	 edx
  00409	e8 00 00 00 00	 call	 ?_Parent@?$_Tree@V?$_Tmap_traits@PAUHWND__@@UWndMoveData@@U?$less@PAUHWND__@@@std@@V?$allocator@U?$pair@QAUHWND__@@UWndMoveData@@@std@@@4@$0A@@std@@@std@@KAAAPAU_Node@?$_Tree_nod@V?$_Tmap_traits@PAUHWND__@@UWndMoveData@@U?$less@PAUHWND__@@@std@@V?$allocator@U?$pair@QAUHWND__@@UWndMoveData@@@std@@@4@$0A@@std@@@2@PAU342@@Z ; std::_Tree<std::_Tmap_traits<HWND__ *,WndMoveData,std::less<HWND__ *>,std::allocator<std::pair<HWND__ * const,WndMoveData> >,0> >::_Parent
  0040e	83 c4 04	 add	 esp, 4
  00411	8b 00		 mov	 eax, DWORD PTR [eax]
  00413	50		 push	 eax
  00414	8b 4d a4	 mov	 ecx, DWORD PTR _this$[ebp]
  00417	e8 00 00 00 00	 call	 ?_Lrotate@?$_Tree@V?$_Tmap_traits@PAUHWND__@@UWndMoveData@@U?$less@PAUHWND__@@@std@@V?$allocator@U?$pair@QAUHWND__@@UWndMoveData@@@std@@@4@$0A@@std@@@std@@IAEXPAU_Node@?$_Tree_nod@V?$_Tmap_traits@PAUHWND__@@UWndMoveData@@U?$less@PAUHWND__@@@std@@V?$allocator@U?$pair@QAUHWND__@@UWndMoveData@@@std@@@4@$0A@@std@@@2@@Z ; std::_Tree<std::_Tmap_traits<HWND__ *,WndMoveData,std::less<HWND__ *>,std::allocator<std::pair<HWND__ * const,WndMoveData> >,0> >::_Lrotate
$L199170:

; 979  : 					}
; 980  : 				}

  0041c	e9 10 fd ff ff	 jmp	 $L199164
$L199165:

; 981  : 
; 982  : 		_Color(_Root()) = _Black;	// root is always black

  00421	8b 4d a4	 mov	 ecx, DWORD PTR _this$[ebp]
  00424	e8 00 00 00 00	 call	 ?_Root@?$_Tree@V?$_Tmap_traits@PAUHWND__@@UWndMoveData@@U?$less@PAUHWND__@@@std@@V?$allocator@U?$pair@QAUHWND__@@UWndMoveData@@@std@@@4@$0A@@std@@@std@@IAEAAPAU_Node@?$_Tree_nod@V?$_Tmap_traits@PAUHWND__@@UWndMoveData@@U?$less@PAUHWND__@@@std@@V?$allocator@U?$pair@QAUHWND__@@UWndMoveData@@@std@@@4@$0A@@std@@@2@XZ ; std::_Tree<std::_Tmap_traits<HWND__ *,WndMoveData,std::less<HWND__ *>,std::allocator<std::pair<HWND__ * const,WndMoveData> >,0> >::_Root
  00429	8b 08		 mov	 ecx, DWORD PTR [eax]
  0042b	51		 push	 ecx
  0042c	e8 00 00 00 00	 call	 ?_Color@?$_Tree@V?$_Tmap_traits@PAUHWND__@@UWndMoveData@@U?$less@PAUHWND__@@@std@@V?$allocator@U?$pair@QAUHWND__@@UWndMoveData@@@std@@@4@$0A@@std@@@std@@KAAADPAU_Node@?$_Tree_nod@V?$_Tmap_traits@PAUHWND__@@UWndMoveData@@U?$less@PAUHWND__@@@std@@V?$allocator@U?$pair@QAUHWND__@@UWndMoveData@@@std@@@4@$0A@@std@@@2@@Z ; std::_Tree<std::_Tmap_traits<HWND__ *,WndMoveData,std::less<HWND__ *>,std::allocator<std::pair<HWND__ * const,WndMoveData> >,0> >::_Color
  00431	83 c4 04	 add	 esp, 4
  00434	c6 00 01	 mov	 BYTE PTR [eax], 1

; 983  : 		return (_TREE_ITERATOR(_Newnode));

  00437	8b 55 f0	 mov	 edx, DWORD PTR __Newnode$[ebp]
  0043a	52		 push	 edx
  0043b	8b 4d 08	 mov	 ecx, DWORD PTR ___$ReturnUdt$[ebp]
  0043e	e8 00 00 00 00	 call	 ??0iterator@?$_Tree@V?$_Tmap_traits@PAUHWND__@@UWndMoveData@@U?$less@PAUHWND__@@@std@@V?$allocator@U?$pair@QAUHWND__@@UWndMoveData@@@std@@@4@$0A@@std@@@std@@QAE@PAU_Node@?$_Tree_nod@V?$_Tmap_traits@PAUHWND__@@UWndMoveData@@U?$less@PAUHWND__@@@std@@V?$allocator@U?$pair@QAUHWND__@@UWndMoveData@@@std@@@4@$0A@@std@@@2@@Z ; std::_Tree<std::_Tmap_traits<HWND__ *,WndMoveData,std::less<HWND__ *>,std::allocator<std::pair<HWND__ * const,WndMoveData> >,0> >::iterator::iterator
  00443	8b 45 08	 mov	 eax, DWORD PTR ___$ReturnUdt$[ebp]
$L200124:

; 984  : 		}

  00446	8b 4d f4	 mov	 ecx, DWORD PTR __$EHRec$[ebp]
  00449	64 89 0d 00 00
	00 00		 mov	 DWORD PTR fs:__except_list, ecx
  00450	5e		 pop	 esi
  00451	8b e5		 mov	 esp, ebp
  00453	5d		 pop	 ebp
  00454	c2 10 00	 ret	 16			; 00000010H
_TEXT	ENDS
;	COMDAT text$x
text$x	SEGMENT
$L200128:
  00000	8d 4d a8	 lea	 ecx, DWORD PTR $T200126[ebp]
  00003	ff 25 00 00 00
	00		 jmp	 DWORD PTR __imp_??1?$basic_string@DU?$char_traits@D@std@@V?$allocator@D@2@@std@@QAE@XZ
__ehhandler$?_Insert@?$_Tree@V?$_Tmap_traits@PAUHWND__@@UWndMoveData@@U?$less@PAUHWND__@@@std@@V?$allocator@U?$pair@QAUHWND__@@UWndMoveData@@@std@@@4@$0A@@std@@@std@@IAE?AViterator@12@_NPAU_Node@?$_Tree_nod@V?$_Tmap_traits@PAUHWND__@@UWndMoveData@@U?$less@PAUHWND__@@@std@@V?$allocator@U?$pair@QAUHWND__@@UWndMoveData@@@std@@@4@$0A@@std@@@2@ABU?$pair@QAUHWND__@@UWndMoveData@@@2@@Z:
  00009	b8 00 00 00 00	 mov	 eax, OFFSET FLAT:$T200130
  0000e	e9 00 00 00 00	 jmp	 ___CxxFrameHandler
text$x	ENDS
?_Insert@?$_Tree@V?$_Tmap_traits@PAUHWND__@@UWndMoveData@@U?$less@PAUHWND__@@@std@@V?$allocator@U?$pair@QAUHWND__@@UWndMoveData@@@std@@@4@$0A@@std@@@std@@IAE?AViterator@12@_NPAU_Node@?$_Tree_nod@V?$_Tmap_traits@PAUHWND__@@UWndMoveData@@U?$less@PAUHWND__@@@std@@V?$allocator@U?$pair@QAUHWND__@@UWndMoveData@@@std@@@4@$0A@@std@@@2@ABU?$pair@QAUHWND__@@UWndMoveData@@@2@@Z ENDP ; std::_Tree<std::_Tmap_traits<HWND__ *,WndMoveData,std::less<HWND__ *>,std::allocator<std::pair<HWND__ * const,WndMoveData> >,0> >::_Insert
PUBLIC	?_Root@?$_Tree@V?$_Tmap_traits@PAUHWND__@@UWndMoveData@@U?$less@PAUHWND__@@@std@@V?$allocator@U?$pair@QAUHWND__@@UWndMoveData@@@std@@@4@$0A@@std@@@std@@IBEAAPAU_Node@?$_Tree_nod@V?$_Tmap_traits@PAUHWND__@@UWndMoveData@@U?$less@PAUHWND__@@@std@@V?$allocator@U?$pair@QAUHWND__@@UWndMoveData@@@std@@@4@$0A@@std@@@2@XZ ; std::_Tree<std::_Tmap_traits<HWND__ *,WndMoveData,std::less<HWND__ *>,std::allocator<std::pair<HWND__ * const,WndMoveData> >,0> >::_Root
; Function compile flags: /Odt
;	COMDAT ?_Lbound@?$_Tree@V?$_Tmap_traits@PAUHWND__@@UWndMoveData@@U?$less@PAUHWND__@@@std@@V?$allocator@U?$pair@QAUHWND__@@UWndMoveData@@@std@@@4@$0A@@std@@@std@@IBEPAU_Node@?$_Tree_nod@V?$_Tmap_traits@PAUHWND__@@UWndMoveData@@U?$less@PAUHWND__@@@std@@V?$allocator@U?$pair@QAUHWND__@@UWndMoveData@@@std@@@4@$0A@@std@@@2@ABQAUHWND__@@@Z
_TEXT	SEGMENT
_this$ = -12						; size = 4
__Pnode$ = -8						; size = 4
__Wherenode$ = -4					; size = 4
__Keyval$ = 8						; size = 4
?_Lbound@?$_Tree@V?$_Tmap_traits@PAUHWND__@@UWndMoveData@@U?$less@PAUHWND__@@@std@@V?$allocator@U?$pair@QAUHWND__@@UWndMoveData@@@std@@@4@$0A@@std@@@std@@IBEPAU_Node@?$_Tree_nod@V?$_Tmap_traits@PAUHWND__@@UWndMoveData@@U?$less@PAUHWND__@@@std@@V?$allocator@U?$pair@QAUHWND__@@UWndMoveData@@@std@@@4@$0A@@std@@@2@ABQAUHWND__@@@Z PROC NEAR ; std::_Tree<std::_Tmap_traits<HWND__ *,WndMoveData,std::less<HWND__ *>,std::allocator<std::pair<HWND__ * const,WndMoveData> >,0> >::_Lbound, COMDAT
; _this$ = ecx

; 987  : 		{	// find leftmost node not less than _Keyval

  00000	55		 push	 ebp
  00001	8b ec		 mov	 ebp, esp
  00003	83 ec 0c	 sub	 esp, 12			; 0000000cH
  00006	89 4d f4	 mov	 DWORD PTR _this$[ebp], ecx

; 988  : 		_Nodeptr _Pnode = _Root();

  00009	8b 4d f4	 mov	 ecx, DWORD PTR _this$[ebp]
  0000c	e8 00 00 00 00	 call	 ?_Root@?$_Tree@V?$_Tmap_traits@PAUHWND__@@UWndMoveData@@U?$less@PAUHWND__@@@std@@V?$allocator@U?$pair@QAUHWND__@@UWndMoveData@@@std@@@4@$0A@@std@@@std@@IBEAAPAU_Node@?$_Tree_nod@V?$_Tmap_traits@PAUHWND__@@UWndMoveData@@U?$less@PAUHWND__@@@std@@V?$allocator@U?$pair@QAUHWND__@@UWndMoveData@@@std@@@4@$0A@@std@@@2@XZ ; std::_Tree<std::_Tmap_traits<HWND__ *,WndMoveData,std::less<HWND__ *>,std::allocator<std::pair<HWND__ * const,WndMoveData> >,0> >::_Root
  00011	8b 00		 mov	 eax, DWORD PTR [eax]
  00013	89 45 f8	 mov	 DWORD PTR __Pnode$[ebp], eax

; 989  : 		_Nodeptr _Wherenode = _Myhead;	// end() if search fails

  00016	8b 4d f4	 mov	 ecx, DWORD PTR _this$[ebp]
  00019	8b 51 04	 mov	 edx, DWORD PTR [ecx+4]
  0001c	89 55 fc	 mov	 DWORD PTR __Wherenode$[ebp], edx
$L199180:

; 990  : 
; 991  : 		while (!_Isnil(_Pnode))

  0001f	8b 45 f8	 mov	 eax, DWORD PTR __Pnode$[ebp]
  00022	50		 push	 eax
  00023	e8 00 00 00 00	 call	 ?_Isnil@?$_Tree@V?$_Tmap_traits@PAUHWND__@@UWndMoveData@@U?$less@PAUHWND__@@@std@@V?$allocator@U?$pair@QAUHWND__@@UWndMoveData@@@std@@@4@$0A@@std@@@std@@KAAADPAU_Node@?$_Tree_nod@V?$_Tmap_traits@PAUHWND__@@UWndMoveData@@U?$less@PAUHWND__@@@std@@V?$allocator@U?$pair@QAUHWND__@@UWndMoveData@@@std@@@4@$0A@@std@@@2@@Z ; std::_Tree<std::_Tmap_traits<HWND__ *,WndMoveData,std::less<HWND__ *>,std::allocator<std::pair<HWND__ * const,WndMoveData> >,0> >::_Isnil
  00028	83 c4 04	 add	 esp, 4
  0002b	0f be 08	 movsx	 ecx, BYTE PTR [eax]
  0002e	85 c9		 test	 ecx, ecx
  00030	75 4c		 jne	 SHORT $L199181

; 992  : 			if (this->comp(_Key(_Pnode), _Keyval))

  00032	8b 55 08	 mov	 edx, DWORD PTR __Keyval$[ebp]
  00035	52		 push	 edx
  00036	8b 45 f8	 mov	 eax, DWORD PTR __Pnode$[ebp]
  00039	50		 push	 eax
  0003a	e8 00 00 00 00	 call	 ?_Key@?$_Tree@V?$_Tmap_traits@PAUHWND__@@UWndMoveData@@U?$less@PAUHWND__@@@std@@V?$allocator@U?$pair@QAUHWND__@@UWndMoveData@@@std@@@4@$0A@@std@@@std@@KAABQAUHWND__@@PAU_Node@?$_Tree_nod@V?$_Tmap_traits@PAUHWND__@@UWndMoveData@@U?$less@PAUHWND__@@@std@@V?$allocator@U?$pair@QAUHWND__@@UWndMoveData@@@std@@@4@$0A@@std@@@2@@Z ; std::_Tree<std::_Tmap_traits<HWND__ *,WndMoveData,std::less<HWND__ *>,std::allocator<std::pair<HWND__ * const,WndMoveData> >,0> >::_Key
  0003f	83 c4 04	 add	 esp, 4
  00042	50		 push	 eax
  00043	8b 4d f4	 mov	 ecx, DWORD PTR _this$[ebp]
  00046	e8 00 00 00 00	 call	 ??R?$less@PAUHWND__@@@std@@QBE_NABQAUHWND__@@0@Z ; std::less<HWND__ *>::operator()
  0004b	0f b6 c8	 movzx	 ecx, al
  0004e	85 c9		 test	 ecx, ecx
  00050	74 13		 je	 SHORT $L199182

; 993  : 				_Pnode = _Right(_Pnode);	// descend right subtree

  00052	8b 55 f8	 mov	 edx, DWORD PTR __Pnode$[ebp]
  00055	52		 push	 edx
  00056	e8 00 00 00 00	 call	 ?_Right@?$_Tree@V?$_Tmap_traits@PAUHWND__@@UWndMoveData@@U?$less@PAUHWND__@@@std@@V?$allocator@U?$pair@QAUHWND__@@UWndMoveData@@@std@@@4@$0A@@std@@@std@@KAAAPAU_Node@?$_Tree_nod@V?$_Tmap_traits@PAUHWND__@@UWndMoveData@@U?$less@PAUHWND__@@@std@@V?$allocator@U?$pair@QAUHWND__@@UWndMoveData@@@std@@@4@$0A@@std@@@2@PAU342@@Z ; std::_Tree<std::_Tmap_traits<HWND__ *,WndMoveData,std::less<HWND__ *>,std::allocator<std::pair<HWND__ * const,WndMoveData> >,0> >::_Right
  0005b	83 c4 04	 add	 esp, 4
  0005e	8b 00		 mov	 eax, DWORD PTR [eax]
  00060	89 45 f8	 mov	 DWORD PTR __Pnode$[ebp], eax

; 994  : 			else

  00063	eb 17		 jmp	 SHORT $L199183
$L199182:

; 995  : 				{	// _Pnode not less than _Keyval, remember it
; 996  : 				_Wherenode = _Pnode;

  00065	8b 4d f8	 mov	 ecx, DWORD PTR __Pnode$[ebp]
  00068	89 4d fc	 mov	 DWORD PTR __Wherenode$[ebp], ecx

; 997  : 				_Pnode = _Left(_Pnode);	// descend left subtree

  0006b	8b 55 f8	 mov	 edx, DWORD PTR __Pnode$[ebp]
  0006e	52		 push	 edx
  0006f	e8 00 00 00 00	 call	 ?_Left@?$_Tree@V?$_Tmap_traits@PAUHWND__@@UWndMoveData@@U?$less@PAUHWND__@@@std@@V?$allocator@U?$pair@QAUHWND__@@UWndMoveData@@@std@@@4@$0A@@std@@@std@@KAAAPAU_Node@?$_Tree_nod@V?$_Tmap_traits@PAUHWND__@@UWndMoveData@@U?$less@PAUHWND__@@@std@@V?$allocator@U?$pair@QAUHWND__@@UWndMoveData@@@std@@@4@$0A@@std@@@2@PAU342@@Z ; std::_Tree<std::_Tmap_traits<HWND__ *,WndMoveData,std::less<HWND__ *>,std::allocator<std::pair<HWND__ * const,WndMoveData> >,0> >::_Left
  00074	83 c4 04	 add	 esp, 4
  00077	8b 00		 mov	 eax, DWORD PTR [eax]
  00079	89 45 f8	 mov	 DWORD PTR __Pnode$[ebp], eax
$L199183:

; 998  : 				}

  0007c	eb a1		 jmp	 SHORT $L199180
$L199181:

; 999  : 
; 1000 : 		return (_Wherenode);	// return best remembered candidate

  0007e	8b 45 fc	 mov	 eax, DWORD PTR __Wherenode$[ebp]

; 1001 : 		}

  00081	8b e5		 mov	 esp, ebp
  00083	5d		 pop	 ebp
  00084	c2 04 00	 ret	 4
?_Lbound@?$_Tree@V?$_Tmap_traits@PAUHWND__@@UWndMoveData@@U?$less@PAUHWND__@@@std@@V?$allocator@U?$pair@QAUHWND__@@UWndMoveData@@@std@@@4@$0A@@std@@@std@@IBEPAU_Node@?$_Tree_nod@V?$_Tmap_traits@PAUHWND__@@UWndMoveData@@U?$less@PAUHWND__@@@std@@V?$allocator@U?$pair@QAUHWND__@@UWndMoveData@@@std@@@4@$0A@@std@@@2@ABQAUHWND__@@@Z ENDP ; std::_Tree<std::_Tmap_traits<HWND__ *,WndMoveData,std::less<HWND__ *>,std::allocator<std::pair<HWND__ * const,WndMoveData> >,0> >::_Lbound
_TEXT	ENDS
PUBLIC	??0?$_Tree_ptr@V?$_Tmap_traits@PAUHWND__@@UWndMoveData@@U?$less@PAUHWND__@@@std@@V?$allocator@U?$pair@QAUHWND__@@UWndMoveData@@@std@@@4@$0A@@std@@@std@@IAE@ABU?$less@PAUHWND__@@@1@V?$allocator@U?$pair@QAUHWND__@@UWndMoveData@@@std@@@1@@Z ; std::_Tree_ptr<std::_Tmap_traits<HWND__ *,WndMoveData,std::less<HWND__ *>,std::allocator<std::pair<HWND__ * const,WndMoveData> >,0> >::_Tree_ptr<std::_Tmap_traits<HWND__ *,WndMoveData,std::less<HWND__ *>,std::allocator<std::pair<HWND__ * const,WndMoveData> >,0> >
; Function compile flags: /Odt
;	COMDAT ??0?$_Tree_val@V?$_Tmap_traits@PAUHWND__@@UWndMoveData@@U?$less@PAUHWND__@@@std@@V?$allocator@U?$pair@QAUHWND__@@UWndMoveData@@@std@@@4@$0A@@std@@@std@@IAE@ABU?$less@PAUHWND__@@@1@V?$allocator@U?$pair@QAUHWND__@@UWndMoveData@@@std@@@1@@Z
_TEXT	SEGMENT
_this$ = -8						; size = 4
__Parg$ = 8						; size = 4
__Al$ = 12						; size = 1
??0?$_Tree_val@V?$_Tmap_traits@PAUHWND__@@UWndMoveData@@U?$less@PAUHWND__@@@std@@V?$allocator@U?$pair@QAUHWND__@@UWndMoveData@@@std@@@4@$0A@@std@@@std@@IAE@ABU?$less@PAUHWND__@@@1@V?$allocator@U?$pair@QAUHWND__@@UWndMoveData@@@std@@@1@@Z PROC NEAR ; std::_Tree_val<std::_Tmap_traits<HWND__ *,WndMoveData,std::less<HWND__ *>,std::allocator<std::pair<HWND__ * const,WndMoveData> >,0> >::_Tree_val<std::_Tmap_traits<HWND__ *,WndMoveData,std::less<HWND__ *>,std::allocator<std::pair<HWND__ * const,WndMoveData> >,0> >, COMDAT
; _this$ = ecx

; 95   : 		{	// construct base, and allocator from _Al

  00000	55		 push	 ebp
  00001	8b ec		 mov	 ebp, esp
  00003	83 ec 08	 sub	 esp, 8
  00006	89 4d f8	 mov	 DWORD PTR _this$[ebp], ecx
  00009	51		 push	 ecx
  0000a	8b cc		 mov	 ecx, esp
  0000c	8d 45 0c	 lea	 eax, DWORD PTR __Al$[ebp]
  0000f	50		 push	 eax
  00010	e8 00 00 00 00	 call	 ??0?$allocator@U?$pair@QAUHWND__@@UWndMoveData@@@std@@@std@@QAE@ABV01@@Z ; std::allocator<std::pair<HWND__ * const,WndMoveData> >::allocator<std::pair<HWND__ * const,WndMoveData> >
  00015	8b 4d 08	 mov	 ecx, DWORD PTR __Parg$[ebp]
  00018	51		 push	 ecx
  00019	8b 4d f8	 mov	 ecx, DWORD PTR _this$[ebp]
  0001c	e8 00 00 00 00	 call	 ??0?$_Tree_ptr@V?$_Tmap_traits@PAUHWND__@@UWndMoveData@@U?$less@PAUHWND__@@@std@@V?$allocator@U?$pair@QAUHWND__@@UWndMoveData@@@std@@@4@$0A@@std@@@std@@IAE@ABU?$less@PAUHWND__@@@1@V?$allocator@U?$pair@QAUHWND__@@UWndMoveData@@@std@@@1@@Z ; std::_Tree_ptr<std::_Tmap_traits<HWND__ *,WndMoveData,std::less<HWND__ *>,std::allocator<std::pair<HWND__ * const,WndMoveData> >,0> >::_Tree_ptr<std::_Tmap_traits<HWND__ *,WndMoveData,std::less<HWND__ *>,std::allocator<std::pair<HWND__ * const,WndMoveData> >,0> >
  00021	8d 55 0c	 lea	 edx, DWORD PTR __Al$[ebp]
  00024	52		 push	 edx
  00025	8b 4d f8	 mov	 ecx, DWORD PTR _this$[ebp]
  00028	83 c1 03	 add	 ecx, 3
  0002b	e8 00 00 00 00	 call	 ??0?$allocator@U?$pair@QAUHWND__@@UWndMoveData@@@std@@@std@@QAE@ABV01@@Z ; std::allocator<std::pair<HWND__ * const,WndMoveData> >::allocator<std::pair<HWND__ * const,WndMoveData> >

; 96   : 		}

  00030	8b 45 f8	 mov	 eax, DWORD PTR _this$[ebp]
  00033	8b e5		 mov	 esp, ebp
  00035	5d		 pop	 ebp
  00036	c2 08 00	 ret	 8
??0?$_Tree_val@V?$_Tmap_traits@PAUHWND__@@UWndMoveData@@U?$less@PAUHWND__@@@std@@V?$allocator@U?$pair@QAUHWND__@@UWndMoveData@@@std@@@4@$0A@@std@@@std@@IAE@ABU?$less@PAUHWND__@@@1@V?$allocator@U?$pair@QAUHWND__@@UWndMoveData@@@std@@@1@@Z ENDP ; std::_Tree_val<std::_Tmap_traits<HWND__ *,WndMoveData,std::less<HWND__ *>,std::allocator<std::pair<HWND__ * const,WndMoveData> >,0> >::_Tree_val<std::_Tmap_traits<HWND__ *,WndMoveData,std::less<HWND__ *>,std::allocator<std::pair<HWND__ * const,WndMoveData> >,0> >
; Function compile flags: /Odt
; File d:\program files (x86)\microsoft visual studio .net 2003\vc7\include\map
_TEXT	ENDS
;	COMDAT ?_Kfn@?$_Tmap_traits@PAUHWND__@@UWndMoveData@@U?$less@PAUHWND__@@@std@@V?$allocator@U?$pair@QAUHWND__@@UWndMoveData@@@std@@@4@$0A@@std@@SAABQAUHWND__@@ABU?$pair@QAUHWND__@@UWndMoveData@@@2@@Z
_TEXT	SEGMENT
__Val$ = 8						; size = 4
?_Kfn@?$_Tmap_traits@PAUHWND__@@UWndMoveData@@U?$less@PAUHWND__@@@std@@V?$allocator@U?$pair@QAUHWND__@@UWndMoveData@@@std@@@4@$0A@@std@@SAABQAUHWND__@@ABU?$pair@QAUHWND__@@UWndMoveData@@@2@@Z PROC NEAR ; std::_Tmap_traits<HWND__ *,WndMoveData,std::less<HWND__ *>,std::allocator<std::pair<HWND__ * const,WndMoveData> >,0>::_Kfn, COMDAT

; 63   : 		{	// extract key from element value

  00000	55		 push	 ebp
  00001	8b ec		 mov	 ebp, esp

; 64   : 		return (_Val.first);

  00003	8b 45 08	 mov	 eax, DWORD PTR __Val$[ebp]

; 65   : 		}

  00006	5d		 pop	 ebp
  00007	c3		 ret	 0
?_Kfn@?$_Tmap_traits@PAUHWND__@@UWndMoveData@@U?$less@PAUHWND__@@@std@@V?$allocator@U?$pair@QAUHWND__@@UWndMoveData@@@std@@@4@$0A@@std@@SAABQAUHWND__@@ABU?$pair@QAUHWND__@@UWndMoveData@@@2@@Z ENDP ; std::_Tmap_traits<HWND__ *,WndMoveData,std::less<HWND__ *>,std::allocator<std::pair<HWND__ * const,WndMoveData> >,0>::_Kfn
; Function compile flags: /Odt
; File d:\program files (x86)\microsoft visual studio .net 2003\vc7\include\xmemory
_TEXT	ENDS
;	COMDAT ??0?$allocator@U?$pair@QAUHWND__@@UWndMoveData@@@std@@@std@@QAE@ABV01@@Z
_TEXT	SEGMENT
_this$ = -4						; size = 4
___formal$ = 8						; size = 4
??0?$allocator@U?$pair@QAUHWND__@@UWndMoveData@@@std@@@std@@QAE@ABV01@@Z PROC NEAR ; std::allocator<std::pair<HWND__ * const,WndMoveData> >::allocator<std::pair<HWND__ * const,WndMoveData> >, COMDAT
; _this$ = ecx

; 115  : 	allocator(const allocator<_Ty>&)

  00000	55		 push	 ebp
  00001	8b ec		 mov	 ebp, esp
  00003	51		 push	 ecx
  00004	89 4d fc	 mov	 DWORD PTR _this$[ebp], ecx

; 116  : 		{	// construct by copying (do nothing)
; 117  : 		}

  00007	8b 45 fc	 mov	 eax, DWORD PTR _this$[ebp]
  0000a	8b e5		 mov	 esp, ebp
  0000c	5d		 pop	 ebp
  0000d	c2 04 00	 ret	 4
??0?$allocator@U?$pair@QAUHWND__@@UWndMoveData@@@std@@@std@@QAE@ABV01@@Z ENDP ; std::allocator<std::pair<HWND__ * const,WndMoveData> >::allocator<std::pair<HWND__ * const,WndMoveData> >
; Function compile flags: /Odt
_TEXT	ENDS
;	COMDAT ?deallocate@?$allocator@U_Node@?$_Tree_nod@V?$_Tmap_traits@PAUHWND__@@UWndMoveData@@U?$less@PAUHWND__@@@std@@V?$allocator@U?$pair@QAUHWND__@@UWndMoveData@@@std@@@4@$0A@@std@@@std@@@std@@QAEXPAU_Node@?$_Tree_nod@V?$_Tmap_traits@PAUHWND__@@UWndMoveData@@U?$less@PAUHWND__@@@std@@V?$allocator@U?$pair@QAUHWND__@@UWndMoveData@@@std@@@4@$0A@@std@@@2@I@Z
_TEXT	SEGMENT
_this$ = -4						; size = 4
__Ptr$ = 8						; size = 4
___formal$ = 12						; size = 4
?deallocate@?$allocator@U_Node@?$_Tree_nod@V?$_Tmap_traits@PAUHWND__@@UWndMoveData@@U?$less@PAUHWND__@@@std@@V?$allocator@U?$pair@QAUHWND__@@UWndMoveData@@@std@@@4@$0A@@std@@@std@@@std@@QAEXPAU_Node@?$_Tree_nod@V?$_Tmap_traits@PAUHWND__@@UWndMoveData@@U?$less@PAUHWND__@@@std@@V?$allocator@U?$pair@QAUHWND__@@UWndMoveData@@@std@@@4@$0A@@std@@@2@I@Z PROC NEAR ; std::allocator<std::_Tree_nod<std::_Tmap_traits<HWND__ *,WndMoveData,std::less<HWND__ *>,std::allocator<std::pair<HWND__ * const,WndMoveData> >,0> >::_Node>::deallocate, COMDAT
; _this$ = ecx

; 131  : 		{	// deallocate object at _Ptr, ignore size

  00000	55		 push	 ebp
  00001	8b ec		 mov	 ebp, esp
  00003	51		 push	 ecx
  00004	89 4d fc	 mov	 DWORD PTR _this$[ebp], ecx

; 132  : 		operator delete(_Ptr);

  00007	8b 45 08	 mov	 eax, DWORD PTR __Ptr$[ebp]
  0000a	50		 push	 eax
  0000b	e8 00 00 00 00	 call	 ??3@YAXPAX@Z		; operator delete
  00010	83 c4 04	 add	 esp, 4

; 133  : 		}

  00013	8b e5		 mov	 esp, ebp
  00015	5d		 pop	 ebp
  00016	c2 08 00	 ret	 8
?deallocate@?$allocator@U_Node@?$_Tree_nod@V?$_Tmap_traits@PAUHWND__@@UWndMoveData@@U?$less@PAUHWND__@@@std@@V?$allocator@U?$pair@QAUHWND__@@UWndMoveData@@@std@@@4@$0A@@std@@@std@@@std@@QAEXPAU_Node@?$_Tree_nod@V?$_Tmap_traits@PAUHWND__@@UWndMoveData@@U?$less@PAUHWND__@@@std@@V?$allocator@U?$pair@QAUHWND__@@UWndMoveData@@@std@@@4@$0A@@std@@@2@I@Z ENDP ; std::allocator<std::_Tree_nod<std::_Tmap_traits<HWND__ *,WndMoveData,std::less<HWND__ *>,std::allocator<std::pair<HWND__ * const,WndMoveData> >,0> >::_Node>::deallocate
_TEXT	ENDS
PUBLIC	??$_Destroy@U_Node@?$_Tree_nod@V?$_Tmap_traits@PAUHWND__@@UWndMoveData@@U?$less@PAUHWND__@@@std@@V?$allocator@U?$pair@QAUHWND__@@UWndMoveData@@@std@@@4@$0A@@std@@@std@@@std@@YAXPAU_Node@?$_Tree_nod@V?$_Tmap_traits@PAUHWND__@@UWndMoveData@@U?$less@PAUHWND__@@@std@@V?$allocator@U?$pair@QAUHWND__@@UWndMoveData@@@std@@@4@$0A@@std@@@0@@Z ; std::_Destroy<std::_Tree_nod<std::_Tmap_traits<HWND__ *,WndMoveData,std::less<HWND__ *>,std::allocator<std::pair<HWND__ * const,WndMoveData> >,0> >::_Node>
; Function compile flags: /Odt
;	COMDAT ?destroy@?$allocator@U_Node@?$_Tree_nod@V?$_Tmap_traits@PAUHWND__@@UWndMoveData@@U?$less@PAUHWND__@@@std@@V?$allocator@U?$pair@QAUHWND__@@UWndMoveData@@@std@@@4@$0A@@std@@@std@@@std@@QAEXPAU_Node@?$_Tree_nod@V?$_Tmap_traits@PAUHWND__@@UWndMoveData@@U?$less@PAUHWND__@@@std@@V?$allocator@U?$pair@QAUHWND__@@UWndMoveData@@@std@@@4@$0A@@std@@@2@@Z
_TEXT	SEGMENT
_this$ = -4						; size = 4
__Ptr$ = 8						; size = 4
?destroy@?$allocator@U_Node@?$_Tree_nod@V?$_Tmap_traits@PAUHWND__@@UWndMoveData@@U?$less@PAUHWND__@@@std@@V?$allocator@U?$pair@QAUHWND__@@UWndMoveData@@@std@@@4@$0A@@std@@@std@@@std@@QAEXPAU_Node@?$_Tree_nod@V?$_Tmap_traits@PAUHWND__@@UWndMoveData@@U?$less@PAUHWND__@@@std@@V?$allocator@U?$pair@QAUHWND__@@UWndMoveData@@@std@@@4@$0A@@std@@@2@@Z PROC NEAR ; std::allocator<std::_Tree_nod<std::_Tmap_traits<HWND__ *,WndMoveData,std::less<HWND__ *>,std::allocator<std::pair<HWND__ * const,WndMoveData> >,0> >::_Node>::destroy, COMDAT
; _this$ = ecx

; 151  : 		{	// destroy object at _Ptr

  00000	55		 push	 ebp
  00001	8b ec		 mov	 ebp, esp
  00003	51		 push	 ecx
  00004	89 4d fc	 mov	 DWORD PTR _this$[ebp], ecx

; 152  : 		_Destroy(_Ptr);

  00007	8b 45 08	 mov	 eax, DWORD PTR __Ptr$[ebp]
  0000a	50		 push	 eax
  0000b	e8 00 00 00 00	 call	 ??$_Destroy@U_Node@?$_Tree_nod@V?$_Tmap_traits@PAUHWND__@@UWndMoveData@@U?$less@PAUHWND__@@@std@@V?$allocator@U?$pair@QAUHWND__@@UWndMoveData@@@std@@@4@$0A@@std@@@std@@@std@@YAXPAU_Node@?$_Tree_nod@V?$_Tmap_traits@PAUHWND__@@UWndMoveData@@U?$less@PAUHWND__@@@std@@V?$allocator@U?$pair@QAUHWND__@@UWndMoveData@@@std@@@4@$0A@@std@@@0@@Z ; std::_Destroy<std::_Tree_nod<std::_Tmap_traits<HWND__ *,WndMoveData,std::less<HWND__ *>,std::allocator<std::pair<HWND__ * const,WndMoveData> >,0> >::_Node>
  00010	83 c4 04	 add	 esp, 4

; 153  : 		}

  00013	8b e5		 mov	 esp, ebp
  00015	5d		 pop	 ebp
  00016	c2 04 00	 ret	 4
?destroy@?$allocator@U_Node@?$_Tree_nod@V?$_Tmap_traits@PAUHWND__@@UWndMoveData@@U?$less@PAUHWND__@@@std@@V?$allocator@U?$pair@QAUHWND__@@UWndMoveData@@@std@@@4@$0A@@std@@@std@@@std@@QAEXPAU_Node@?$_Tree_nod@V?$_Tmap_traits@PAUHWND__@@UWndMoveData@@U?$less@PAUHWND__@@@std@@V?$allocator@U?$pair@QAUHWND__@@UWndMoveData@@@std@@@4@$0A@@std@@@2@@Z ENDP ; std::allocator<std::_Tree_nod<std::_Tmap_traits<HWND__ *,WndMoveData,std::less<HWND__ *>,std::allocator<std::pair<HWND__ * const,WndMoveData> >,0> >::_Node>::destroy
_TEXT	ENDS
PUBLIC	??$_Destroy@PAU_Node@?$_Tree_nod@V?$_Tmap_traits@PAUHWND__@@UWndMoveData@@U?$less@PAUHWND__@@@std@@V?$allocator@U?$pair@QAUHWND__@@UWndMoveData@@@std@@@4@$0A@@std@@@std@@@std@@YAXPAPAU_Node@?$_Tree_nod@V?$_Tmap_traits@PAUHWND__@@UWndMoveData@@U?$less@PAUHWND__@@@std@@V?$allocator@U?$pair@QAUHWND__@@UWndMoveData@@@std@@@4@$0A@@std@@@0@@Z ; std::_Destroy<std::_Tree_nod<std::_Tmap_traits<HWND__ *,WndMoveData,std::less<HWND__ *>,std::allocator<std::pair<HWND__ * const,WndMoveData> >,0> >::_Node *>
; Function compile flags: /Odt
;	COMDAT ?destroy@?$allocator@PAU_Node@?$_Tree_nod@V?$_Tmap_traits@PAUHWND__@@UWndMoveData@@U?$less@PAUHWND__@@@std@@V?$allocator@U?$pair@QAUHWND__@@UWndMoveData@@@std@@@4@$0A@@std@@@std@@@std@@QAEXPAPAU_Node@?$_Tree_nod@V?$_Tmap_traits@PAUHWND__@@UWndMoveData@@U?$less@PAUHWND__@@@std@@V?$allocator@U?$pair@QAUHWND__@@UWndMoveData@@@std@@@4@$0A@@std@@@2@@Z
_TEXT	SEGMENT
_this$ = -4						; size = 4
__Ptr$ = 8						; size = 4
?destroy@?$allocator@PAU_Node@?$_Tree_nod@V?$_Tmap_traits@PAUHWND__@@UWndMoveData@@U?$less@PAUHWND__@@@std@@V?$allocator@U?$pair@QAUHWND__@@UWndMoveData@@@std@@@4@$0A@@std@@@std@@@std@@QAEXPAPAU_Node@?$_Tree_nod@V?$_Tmap_traits@PAUHWND__@@UWndMoveData@@U?$less@PAUHWND__@@@std@@V?$allocator@U?$pair@QAUHWND__@@UWndMoveData@@@std@@@4@$0A@@std@@@2@@Z PROC NEAR ; std::allocator<std::_Tree_nod<std::_Tmap_traits<HWND__ *,WndMoveData,std::less<HWND__ *>,std::allocator<std::pair<HWND__ * const,WndMoveData> >,0> >::_Node *>::destroy, COMDAT
; _this$ = ecx

; 151  : 		{	// destroy object at _Ptr

  00000	55		 push	 ebp
  00001	8b ec		 mov	 ebp, esp
  00003	51		 push	 ecx
  00004	89 4d fc	 mov	 DWORD PTR _this$[ebp], ecx

; 152  : 		_Destroy(_Ptr);

  00007	8b 45 08	 mov	 eax, DWORD PTR __Ptr$[ebp]
  0000a	50		 push	 eax
  0000b	e8 00 00 00 00	 call	 ??$_Destroy@PAU_Node@?$_Tree_nod@V?$_Tmap_traits@PAUHWND__@@UWndMoveData@@U?$less@PAUHWND__@@@std@@V?$allocator@U?$pair@QAUHWND__@@UWndMoveData@@@std@@@4@$0A@@std@@@std@@@std@@YAXPAPAU_Node@?$_Tree_nod@V?$_Tmap_traits@PAUHWND__@@UWndMoveData@@U?$less@PAUHWND__@@@std@@V?$allocator@U?$pair@QAUHWND__@@UWndMoveData@@@std@@@4@$0A@@std@@@0@@Z ; std::_Destroy<std::_Tree_nod<std::_Tmap_traits<HWND__ *,WndMoveData,std::less<HWND__ *>,std::allocator<std::pair<HWND__ * const,WndMoveData> >,0> >::_Node *>
  00010	83 c4 04	 add	 esp, 4

; 153  : 		}

  00013	8b e5		 mov	 esp, ebp
  00015	5d		 pop	 ebp
  00016	c2 04 00	 ret	 4
?destroy@?$allocator@PAU_Node@?$_Tree_nod@V?$_Tmap_traits@PAUHWND__@@UWndMoveData@@U?$less@PAUHWND__@@@std@@V?$allocator@U?$pair@QAUHWND__@@UWndMoveData@@@std@@@4@$0A@@std@@@std@@@std@@QAEXPAPAU_Node@?$_Tree_nod@V?$_Tmap_traits@PAUHWND__@@UWndMoveData@@U?$less@PAUHWND__@@@std@@V?$allocator@U?$pair@QAUHWND__@@UWndMoveData@@@std@@@4@$0A@@std@@@2@@Z ENDP ; std::allocator<std::_Tree_nod<std::_Tmap_traits<HWND__ *,WndMoveData,std::less<HWND__ *>,std::allocator<std::pair<HWND__ * const,WndMoveData> >,0> >::_Node *>::destroy
_TEXT	ENDS
PUBLIC	??Fconst_iterator@?$_Tree@V?$_Tmap_traits@PAUHWND__@@UWndMoveData@@U?$less@PAUHWND__@@@std@@V?$allocator@U?$pair@QAUHWND__@@UWndMoveData@@@std@@@4@$0A@@std@@@std@@QAEAAV012@XZ ; std::_Tree<std::_Tmap_traits<HWND__ *,WndMoveData,std::less<HWND__ *>,std::allocator<std::pair<HWND__ * const,WndMoveData> >,0> >::const_iterator::operator--
; Function compile flags: /Odt
; File d:\program files (x86)\microsoft visual studio .net 2003\vc7\include\xtree
;	COMDAT ??Fiterator@?$_Tree@V?$_Tmap_traits@PAUHWND__@@UWndMoveData@@U?$less@PAUHWND__@@@std@@V?$allocator@U?$pair@QAUHWND__@@UWndMoveData@@@std@@@4@$0A@@std@@@std@@QAEAAV012@XZ
_TEXT	SEGMENT
_this$ = -4						; size = 4
??Fiterator@?$_Tree@V?$_Tmap_traits@PAUHWND__@@UWndMoveData@@U?$less@PAUHWND__@@@std@@V?$allocator@U?$pair@QAUHWND__@@UWndMoveData@@@std@@@4@$0A@@std@@@std@@QAEAAV012@XZ PROC NEAR ; std::_Tree<std::_Tmap_traits<HWND__ *,WndMoveData,std::less<HWND__ *>,std::allocator<std::pair<HWND__ * const,WndMoveData> >,0> >::iterator::operator--, COMDAT
; _this$ = ecx

; 339  : 			{	// predecrement

  00000	55		 push	 ebp
  00001	8b ec		 mov	 ebp, esp
  00003	51		 push	 ecx
  00004	89 4d fc	 mov	 DWORD PTR _this$[ebp], ecx

; 340  : 			--(*(const_iterator *)this);

  00007	8b 4d fc	 mov	 ecx, DWORD PTR _this$[ebp]
  0000a	e8 00 00 00 00	 call	 ??Fconst_iterator@?$_Tree@V?$_Tmap_traits@PAUHWND__@@UWndMoveData@@U?$less@PAUHWND__@@@std@@V?$allocator@U?$pair@QAUHWND__@@UWndMoveData@@@std@@@4@$0A@@std@@@std@@QAEAAV012@XZ ; std::_Tree<std::_Tmap_traits<HWND__ *,WndMoveData,std::less<HWND__ *>,std::allocator<std::pair<HWND__ * const,WndMoveData> >,0> >::const_iterator::operator--

; 341  : 			return (*this);

  0000f	8b 45 fc	 mov	 eax, DWORD PTR _this$[ebp]

; 342  : 			}

  00012	8b e5		 mov	 esp, ebp
  00014	5d		 pop	 ebp
  00015	c3		 ret	 0
??Fiterator@?$_Tree@V?$_Tmap_traits@PAUHWND__@@UWndMoveData@@U?$less@PAUHWND__@@@std@@V?$allocator@U?$pair@QAUHWND__@@UWndMoveData@@@std@@@4@$0A@@std@@@std@@QAEAAV012@XZ ENDP ; std::_Tree<std::_Tmap_traits<HWND__ *,WndMoveData,std::less<HWND__ *>,std::allocator<std::pair<HWND__ * const,WndMoveData> >,0> >::iterator::operator--
; Function compile flags: /Odt
_TEXT	ENDS
;	COMDAT ??0const_iterator@?$_Tree@V?$_Tmap_traits@PAUHWND__@@UWndMoveData@@U?$less@PAUHWND__@@@std@@V?$allocator@U?$pair@QAUHWND__@@UWndMoveData@@@std@@@4@$0A@@std@@@std@@QAE@PAU_Node@?$_Tree_nod@V?$_Tmap_traits@PAUHWND__@@UWndMoveData@@U?$less@PAUHWND__@@@std@@V?$allocator@U?$pair@QAUHWND__@@UWndMoveData@@@std@@@4@$0A@@std@@@2@@Z
_TEXT	SEGMENT
_this$ = -4						; size = 4
__Pnode$ = 8						; size = 4
??0const_iterator@?$_Tree@V?$_Tmap_traits@PAUHWND__@@UWndMoveData@@U?$less@PAUHWND__@@@std@@V?$allocator@U?$pair@QAUHWND__@@UWndMoveData@@@std@@@4@$0A@@std@@@std@@QAE@PAU_Node@?$_Tree_nod@V?$_Tmap_traits@PAUHWND__@@UWndMoveData@@U?$less@PAUHWND__@@@std@@V?$allocator@U?$pair@QAUHWND__@@UWndMoveData@@@std@@@4@$0A@@std@@@2@@Z PROC NEAR ; std::_Tree<std::_Tmap_traits<HWND__ *,WndMoveData,std::less<HWND__ *>,std::allocator<std::pair<HWND__ * const,WndMoveData> >,0> >::const_iterator::const_iterator, COMDAT
; _this$ = ecx

; 200  : 			{	// construct with node pointer _Pnode

  00000	55		 push	 ebp
  00001	8b ec		 mov	 ebp, esp
  00003	51		 push	 ecx
  00004	89 4d fc	 mov	 DWORD PTR _this$[ebp], ecx
  00007	8b 45 fc	 mov	 eax, DWORD PTR _this$[ebp]
  0000a	8b 4d 08	 mov	 ecx, DWORD PTR __Pnode$[ebp]
  0000d	89 08		 mov	 DWORD PTR [eax], ecx

; 201  : 			}

  0000f	8b 45 fc	 mov	 eax, DWORD PTR _this$[ebp]
  00012	8b e5		 mov	 esp, ebp
  00014	5d		 pop	 ebp
  00015	c2 04 00	 ret	 4
??0const_iterator@?$_Tree@V?$_Tmap_traits@PAUHWND__@@UWndMoveData@@U?$less@PAUHWND__@@@std@@V?$allocator@U?$pair@QAUHWND__@@UWndMoveData@@@std@@@4@$0A@@std@@@std@@QAE@PAU_Node@?$_Tree_nod@V?$_Tmap_traits@PAUHWND__@@UWndMoveData@@U?$less@PAUHWND__@@@std@@V?$allocator@U?$pair@QAUHWND__@@UWndMoveData@@@std@@@4@$0A@@std@@@2@@Z ENDP ; std::_Tree<std::_Tmap_traits<HWND__ *,WndMoveData,std::less<HWND__ *>,std::allocator<std::pair<HWND__ * const,WndMoveData> >,0> >::const_iterator::const_iterator
; Function compile flags: /Odt
_TEXT	ENDS
;	COMDAT ??Dconst_iterator@?$_Tree@V?$_Tmap_traits@PAUHWND__@@UWndMoveData@@U?$less@PAUHWND__@@@std@@V?$allocator@U?$pair@QAUHWND__@@UWndMoveData@@@std@@@4@$0A@@std@@@std@@QBEABU?$pair@QAUHWND__@@UWndMoveData@@@2@XZ
_TEXT	SEGMENT
_this$ = -4						; size = 4
??Dconst_iterator@?$_Tree@V?$_Tmap_traits@PAUHWND__@@UWndMoveData@@U?$less@PAUHWND__@@@std@@V?$allocator@U?$pair@QAUHWND__@@UWndMoveData@@@std@@@4@$0A@@std@@@std@@QBEABU?$pair@QAUHWND__@@UWndMoveData@@@2@XZ PROC NEAR ; std::_Tree<std::_Tmap_traits<HWND__ *,WndMoveData,std::less<HWND__ *>,std::allocator<std::pair<HWND__ * const,WndMoveData> >,0> >::const_iterator::operator*, COMDAT
; _this$ = ecx

; 204  : 			{	// return designated value

  00000	55		 push	 ebp
  00001	8b ec		 mov	 ebp, esp
  00003	51		 push	 ecx
  00004	89 4d fc	 mov	 DWORD PTR _this$[ebp], ecx

; 205  : 			return (_Myval(_Ptr));

  00007	8b 45 fc	 mov	 eax, DWORD PTR _this$[ebp]
  0000a	8b 08		 mov	 ecx, DWORD PTR [eax]
  0000c	51		 push	 ecx
  0000d	e8 00 00 00 00	 call	 ?_Myval@?$_Tree@V?$_Tmap_traits@PAUHWND__@@UWndMoveData@@U?$less@PAUHWND__@@@std@@V?$allocator@U?$pair@QAUHWND__@@UWndMoveData@@@std@@@4@$0A@@std@@@std@@KAAAU?$pair@QAUHWND__@@UWndMoveData@@@2@PAU_Node@?$_Tree_nod@V?$_Tmap_traits@PAUHWND__@@UWndMoveData@@U?$less@PAUHWND__@@@std@@V?$allocator@U?$pair@QAUHWND__@@UWndMoveData@@@std@@@4@$0A@@std@@@2@@Z ; std::_Tree<std::_Tmap_traits<HWND__ *,WndMoveData,std::less<HWND__ *>,std::allocator<std::pair<HWND__ * const,WndMoveData> >,0> >::_Myval
  00012	83 c4 04	 add	 esp, 4

; 206  : 			}

  00015	8b e5		 mov	 esp, ebp
  00017	5d		 pop	 ebp
  00018	c3		 ret	 0
??Dconst_iterator@?$_Tree@V?$_Tmap_traits@PAUHWND__@@UWndMoveData@@U?$less@PAUHWND__@@@std@@V?$allocator@U?$pair@QAUHWND__@@UWndMoveData@@@std@@@4@$0A@@std@@@std@@QBEABU?$pair@QAUHWND__@@UWndMoveData@@@2@XZ ENDP ; std::_Tree<std::_Tmap_traits<HWND__ *,WndMoveData,std::less<HWND__ *>,std::allocator<std::pair<HWND__ * const,WndMoveData> >,0> >::const_iterator::operator*
_TEXT	ENDS
PUBLIC	?_Inc@const_iterator@?$_Tree@V?$_Tmap_traits@PAUHWND__@@UWndMoveData@@U?$less@PAUHWND__@@@std@@V?$allocator@U?$pair@QAUHWND__@@UWndMoveData@@@std@@@4@$0A@@std@@@std@@QAEXXZ ; std::_Tree<std::_Tmap_traits<HWND__ *,WndMoveData,std::less<HWND__ *>,std::allocator<std::pair<HWND__ * const,WndMoveData> >,0> >::const_iterator::_Inc
; Function compile flags: /Odt
;	COMDAT ??Econst_iterator@?$_Tree@V?$_Tmap_traits@PAUHWND__@@UWndMoveData@@U?$less@PAUHWND__@@@std@@V?$allocator@U?$pair@QAUHWND__@@UWndMoveData@@@std@@@4@$0A@@std@@@std@@QAEAAV012@XZ
_TEXT	SEGMENT
_this$ = -4						; size = 4
??Econst_iterator@?$_Tree@V?$_Tmap_traits@PAUHWND__@@UWndMoveData@@U?$less@PAUHWND__@@@std@@V?$allocator@U?$pair@QAUHWND__@@UWndMoveData@@@std@@@4@$0A@@std@@@std@@QAEAAV012@XZ PROC NEAR ; std::_Tree<std::_Tmap_traits<HWND__ *,WndMoveData,std::less<HWND__ *>,std::allocator<std::pair<HWND__ * const,WndMoveData> >,0> >::const_iterator::operator++, COMDAT
; _this$ = ecx

; 214  : 			{	// preincrement

  00000	55		 push	 ebp
  00001	8b ec		 mov	 ebp, esp
  00003	51		 push	 ecx
  00004	89 4d fc	 mov	 DWORD PTR _this$[ebp], ecx

; 215  : 			_Inc();

  00007	8b 4d fc	 mov	 ecx, DWORD PTR _this$[ebp]
  0000a	e8 00 00 00 00	 call	 ?_Inc@const_iterator@?$_Tree@V?$_Tmap_traits@PAUHWND__@@UWndMoveData@@U?$less@PAUHWND__@@@std@@V?$allocator@U?$pair@QAUHWND__@@UWndMoveData@@@std@@@4@$0A@@std@@@std@@QAEXXZ ; std::_Tree<std::_Tmap_traits<HWND__ *,WndMoveData,std::less<HWND__ *>,std::allocator<std::pair<HWND__ * const,WndMoveData> >,0> >::const_iterator::_Inc

; 216  : 			return (*this);

  0000f	8b 45 fc	 mov	 eax, DWORD PTR _this$[ebp]

; 217  : 			}

  00012	8b e5		 mov	 esp, ebp
  00014	5d		 pop	 ebp
  00015	c3		 ret	 0
??Econst_iterator@?$_Tree@V?$_Tmap_traits@PAUHWND__@@UWndMoveData@@U?$less@PAUHWND__@@@std@@V?$allocator@U?$pair@QAUHWND__@@UWndMoveData@@@std@@@4@$0A@@std@@@std@@QAEAAV012@XZ ENDP ; std::_Tree<std::_Tmap_traits<HWND__ *,WndMoveData,std::less<HWND__ *>,std::allocator<std::pair<HWND__ * const,WndMoveData> >,0> >::const_iterator::operator++
_TEXT	ENDS
PUBLIC	??_R1A@?0A@A@logic_error@std@@8			; std::logic_error::`RTTI Base Class Descriptor at (0,-1,0,0)'
PUBLIC	??_R1A@?0A@A@exception@@8			; exception::`RTTI Base Class Descriptor at (0,-1,0,0)'
PUBLIC	??_R4length_error@std@@6B@			; std::length_error::`RTTI Complete Object Locator'
PUBLIC	??_R3length_error@std@@8			; std::length_error::`RTTI Class Hierarchy Descriptor'
PUBLIC	??_R2length_error@std@@8			; std::length_error::`RTTI Base Class Array'
PUBLIC	??_R1A@?0A@A@length_error@std@@8		; std::length_error::`RTTI Base Class Descriptor at (0,-1,0,0)'
PUBLIC	?what@logic_error@std@@UBEPBDXZ			; std::logic_error::what
PUBLIC	??_7length_error@std@@6B@			; std::length_error::`vftable'
PUBLIC	??_Glength_error@std@@UAEPAXI@Z			; std::length_error::`scalar deleting destructor'
EXTRN	??_Elength_error@std@@UAEPAXI@Z:NEAR		; std::length_error::`vector deleting destructor'
;	COMDAT ??_7length_error@std@@6B@
CONST	SEGMENT
??_7length_error@std@@6B@ DD FLAT:??_R4length_error@std@@6B@ ; std::length_error::`vftable'
	DD	FLAT:??_Elength_error@std@@UAEPAXI@Z
	DD	FLAT:?what@logic_error@std@@UBEPBDXZ
CONST	ENDS
;	COMDAT ??_R4length_error@std@@6B@
rdata$r	SEGMENT
??_R4length_error@std@@6B@ DD 00H			; std::length_error::`RTTI Complete Object Locator'
	DD	00H
	DD	00H
	DD	FLAT:??_R0?AVlength_error@std@@@8
	DD	FLAT:??_R3length_error@std@@8
rdata$r	ENDS
;	COMDAT ??_R3length_error@std@@8
rdata$r	SEGMENT
??_R3length_error@std@@8 DD 00H				; std::length_error::`RTTI Class Hierarchy Descriptor'
	DD	00H
	DD	03H
	DD	FLAT:??_R2length_error@std@@8
rdata$r	ENDS
;	COMDAT ??_R2length_error@std@@8
rdata$r	SEGMENT
??_R2length_error@std@@8 DD FLAT:??_R1A@?0A@A@length_error@std@@8 ; std::length_error::`RTTI Base Class Array'
	DD	FLAT:??_R1A@?0A@A@logic_error@std@@8
	DD	FLAT:??_R1A@?0A@A@exception@@8
rdata$r	ENDS
;	COMDAT ??_R1A@?0A@A@length_error@std@@8
rdata$r	SEGMENT
??_R1A@?0A@A@length_error@std@@8 DD FLAT:??_R0?AVlength_error@std@@@8 ; std::length_error::`RTTI Base Class Descriptor at (0,-1,0,0)'
	DD	02H
	DD	00H
	DD	0ffffffffH
	DD	00H
	DD	00H
rdata$r	ENDS
;	COMDAT ??_R1A@?0A@A@logic_error@std@@8
rdata$r	SEGMENT
??_R1A@?0A@A@logic_error@std@@8 DD FLAT:??_R0?AVlogic_error@std@@@8 ; std::logic_error::`RTTI Base Class Descriptor at (0,-1,0,0)'
	DD	01H
	DD	00H
	DD	0ffffffffH
	DD	00H
	DD	00H
rdata$r	ENDS
;	COMDAT ??_R1A@?0A@A@exception@@8
rdata$r	SEGMENT
??_R1A@?0A@A@exception@@8 DD FLAT:??_R0?AVexception@@@8	; exception::`RTTI Base Class Descriptor at (0,-1,0,0)'
	DD	00H
	DD	00H
	DD	0ffffffffH
	DD	00H
	DD	00H
; Function compile flags: /Odt
rdata$r	ENDS
;	COMDAT ??0length_error@std@@QAE@ABV01@@Z
_TEXT	SEGMENT
_this$ = -4						; size = 4
___that$ = 8						; size = 4
??0length_error@std@@QAE@ABV01@@Z PROC NEAR		; std::length_error::length_error, COMDAT
; _this$ = ecx
  00000	55		 push	 ebp
  00001	8b ec		 mov	 ebp, esp
  00003	51		 push	 ecx
  00004	89 4d fc	 mov	 DWORD PTR _this$[ebp], ecx
  00007	8b 45 08	 mov	 eax, DWORD PTR ___that$[ebp]
  0000a	50		 push	 eax
  0000b	8b 4d fc	 mov	 ecx, DWORD PTR _this$[ebp]
  0000e	e8 00 00 00 00	 call	 ??0logic_error@std@@QAE@ABV01@@Z
  00013	8b 4d fc	 mov	 ecx, DWORD PTR _this$[ebp]
  00016	c7 01 00 00 00
	00		 mov	 DWORD PTR [ecx], OFFSET FLAT:??_7length_error@std@@6B@
  0001c	8b 45 fc	 mov	 eax, DWORD PTR _this$[ebp]
  0001f	8b e5		 mov	 esp, ebp
  00021	5d		 pop	 ebp
  00022	c2 04 00	 ret	 4
??0length_error@std@@QAE@ABV01@@Z ENDP			; std::length_error::length_error
; Function compile flags: /Odt
_TEXT	ENDS
;	COMDAT ?_Color@?$_Tree@V?$_Tmap_traits@PAUHWND__@@UWndMoveData@@U?$less@PAUHWND__@@@std@@V?$allocator@U?$pair@QAUHWND__@@UWndMoveData@@@std@@@4@$0A@@std@@@std@@KAAADPAU_Node@?$_Tree_nod@V?$_Tmap_traits@PAUHWND__@@UWndMoveData@@U?$less@PAUHWND__@@@std@@V?$allocator@U?$pair@QAUHWND__@@UWndMoveData@@@std@@@4@$0A@@std@@@2@@Z
_TEXT	SEGMENT
__Pnode$ = 8						; size = 4
?_Color@?$_Tree@V?$_Tmap_traits@PAUHWND__@@UWndMoveData@@U?$less@PAUHWND__@@@std@@V?$allocator@U?$pair@QAUHWND__@@UWndMoveData@@@std@@@4@$0A@@std@@@std@@KAAADPAU_Node@?$_Tree_nod@V?$_Tmap_traits@PAUHWND__@@UWndMoveData@@U?$less@PAUHWND__@@@std@@V?$allocator@U?$pair@QAUHWND__@@UWndMoveData@@@std@@@4@$0A@@std@@@2@@Z PROC NEAR ; std::_Tree<std::_Tmap_traits<HWND__ *,WndMoveData,std::less<HWND__ *>,std::allocator<std::pair<HWND__ * const,WndMoveData> >,0> >::_Color, COMDAT

; 131  : 		{	// return reference to color in node

  00000	55		 push	 ebp
  00001	8b ec		 mov	 ebp, esp

; 132  : 		return ((_Charref)(*_Pnode)._Color);

  00003	8b 45 08	 mov	 eax, DWORD PTR __Pnode$[ebp]
  00006	83 c0 2c	 add	 eax, 44			; 0000002cH

; 133  : 		}

  00009	5d		 pop	 ebp
  0000a	c3		 ret	 0
?_Color@?$_Tree@V?$_Tmap_traits@PAUHWND__@@UWndMoveData@@U?$less@PAUHWND__@@@std@@V?$allocator@U?$pair@QAUHWND__@@UWndMoveData@@@std@@@4@$0A@@std@@@std@@KAAADPAU_Node@?$_Tree_nod@V?$_Tmap_traits@PAUHWND__@@UWndMoveData@@U?$less@PAUHWND__@@@std@@V?$allocator@U?$pair@QAUHWND__@@UWndMoveData@@@std@@@4@$0A@@std@@@2@@Z ENDP ; std::_Tree<std::_Tmap_traits<HWND__ *,WndMoveData,std::less<HWND__ *>,std::allocator<std::pair<HWND__ * const,WndMoveData> >,0> >::_Color
_TEXT	ENDS
PUBLIC	?max_size@?$allocator@U?$pair@QAUHWND__@@UWndMoveData@@@std@@@std@@QBEIXZ ; std::allocator<std::pair<HWND__ * const,WndMoveData> >::max_size
; Function compile flags: /Odt
;	COMDAT ?max_size@?$_Tree@V?$_Tmap_traits@PAUHWND__@@UWndMoveData@@U?$less@PAUHWND__@@@std@@V?$allocator@U?$pair@QAUHWND__@@UWndMoveData@@@std@@@4@$0A@@std@@@std@@QBEIXZ
_TEXT	SEGMENT
_this$ = -4						; size = 4
?max_size@?$_Tree@V?$_Tmap_traits@PAUHWND__@@UWndMoveData@@U?$less@PAUHWND__@@@std@@V?$allocator@U?$pair@QAUHWND__@@UWndMoveData@@@std@@@4@$0A@@std@@@std@@QBEIXZ PROC NEAR ; std::_Tree<std::_Tmap_traits<HWND__ *,WndMoveData,std::less<HWND__ *>,std::allocator<std::pair<HWND__ * const,WndMoveData> >,0> >::max_size, COMDAT
; _this$ = ecx

; 452  : 		{	// return maximum possible length of sequence

  00000	55		 push	 ebp
  00001	8b ec		 mov	 ebp, esp
  00003	51		 push	 ecx
  00004	89 4d fc	 mov	 DWORD PTR _this$[ebp], ecx

; 453  : 		return (this->_Alval.max_size());

  00007	8b 4d fc	 mov	 ecx, DWORD PTR _this$[ebp]
  0000a	83 c1 03	 add	 ecx, 3
  0000d	e8 00 00 00 00	 call	 ?max_size@?$allocator@U?$pair@QAUHWND__@@UWndMoveData@@@std@@@std@@QBEIXZ ; std::allocator<std::pair<HWND__ * const,WndMoveData> >::max_size

; 454  : 		}

  00012	8b e5		 mov	 esp, ebp
  00014	5d		 pop	 ebp
  00015	c3		 ret	 0
?max_size@?$_Tree@V?$_Tmap_traits@PAUHWND__@@UWndMoveData@@U?$less@PAUHWND__@@@std@@V?$allocator@U?$pair@QAUHWND__@@UWndMoveData@@@std@@@4@$0A@@std@@@std@@QBEIXZ ENDP ; std::_Tree<std::_Tmap_traits<HWND__ *,WndMoveData,std::less<HWND__ *>,std::allocator<std::pair<HWND__ * const,WndMoveData> >,0> >::max_size
_TEXT	ENDS
PUBLIC	__TI3?AVout_of_range@std@@
PUBLIC	__CTA3?AVout_of_range@std@@
PUBLIC	??_R0?AVout_of_range@std@@@8			; std::out_of_range `RTTI Type Descriptor'
PUBLIC	__CT??_R0?AVout_of_range@std@@@8??0out_of_range@std@@QAE@ABV01@@Z40
PUBLIC	??_C@_0BM@PAPJHAGI@invalid?5map?1set?$DMT?$DO?5iterator?$AA@ ; `string'
PUBLIC	??$swap@D@std@@YAXAAD0@Z			; std::swap<char>
PUBLIC	?_Max@?$_Tree@V?$_Tmap_traits@PAUHWND__@@UWndMoveData@@U?$less@PAUHWND__@@@std@@V?$allocator@U?$pair@QAUHWND__@@UWndMoveData@@@std@@@4@$0A@@std@@@std@@KAPAU_Node@?$_Tree_nod@V?$_Tmap_traits@PAUHWND__@@UWndMoveData@@U?$less@PAUHWND__@@@std@@V?$allocator@U?$pair@QAUHWND__@@UWndMoveData@@@std@@@4@$0A@@std@@@2@PAU342@@Z ; std::_Tree<std::_Tmap_traits<HWND__ *,WndMoveData,std::less<HWND__ *>,std::allocator<std::pair<HWND__ * const,WndMoveData> >,0> >::_Max
PUBLIC	?_Min@?$_Tree@V?$_Tmap_traits@PAUHWND__@@UWndMoveData@@U?$less@PAUHWND__@@@std@@V?$allocator@U?$pair@QAUHWND__@@UWndMoveData@@@std@@@4@$0A@@std@@@std@@KAPAU_Node@?$_Tree_nod@V?$_Tmap_traits@PAUHWND__@@UWndMoveData@@U?$less@PAUHWND__@@@std@@V?$allocator@U?$pair@QAUHWND__@@UWndMoveData@@@std@@@4@$0A@@std@@@2@PAU342@@Z ; std::_Tree<std::_Tmap_traits<HWND__ *,WndMoveData,std::less<HWND__ *>,std::allocator<std::pair<HWND__ * const,WndMoveData> >,0> >::_Min
PUBLIC	??0out_of_range@std@@QAE@ABV?$basic_string@DU?$char_traits@D@std@@V?$allocator@D@2@@1@@Z ; std::out_of_range::out_of_range
PUBLIC	??1out_of_range@std@@UAE@XZ			; std::out_of_range::~out_of_range
PUBLIC	??0out_of_range@std@@QAE@ABV01@@Z		; std::out_of_range::out_of_range
;	COMDAT xdata$x
xdata$x	SEGMENT
$T200177 DD	0ffffffffH
	DD	FLAT:$L200173
$T200175 DD	019930520H
	DD	01H
	DD	FLAT:$T200177
	DD	2 DUP(00H)
	DD	2 DUP(00H)
xdata$x	ENDS
;	COMDAT ??_C@_0BM@PAPJHAGI@invalid?5map?1set?$DMT?$DO?5iterator?$AA@
CONST	SEGMENT
??_C@_0BM@PAPJHAGI@invalid?5map?1set?$DMT?$DO?5iterator?$AA@ DB 'invalid '
	DB	'map/set<T> iterator', 00H			; `string'
CONST	ENDS
;	COMDAT __TI3?AVout_of_range@std@@
xdata$x	SEGMENT
__TI3?AVout_of_range@std@@ DD 00H
	DD	FLAT:??1out_of_range@std@@UAE@XZ
	DD	00H
	DD	FLAT:__CTA3?AVout_of_range@std@@
xdata$x	ENDS
;	COMDAT __CTA3?AVout_of_range@std@@
xdata$x	SEGMENT
__CTA3?AVout_of_range@std@@ DD 03H
	DD	FLAT:__CT??_R0?AVout_of_range@std@@@8??0out_of_range@std@@QAE@ABV01@@Z40
	DD	FLAT:__CT??_R0?AVlogic_error@std@@@8??0logic_error@std@@QAE@ABV01@@Z40
	DD	FLAT:__CT??_R0?AVexception@@@8??0exception@@QAE@ABV0@@Z12
xdata$x	ENDS
;	COMDAT __CT??_R0?AVout_of_range@std@@@8??0out_of_range@std@@QAE@ABV01@@Z40
xdata$x	SEGMENT
__CT??_R0?AVout_of_range@std@@@8??0out_of_range@std@@QAE@ABV01@@Z40 DD 00H
	DD	FLAT:??_R0?AVout_of_range@std@@@8
	DD	00H
	DD	0ffffffffH
	ORG $+4
	DD	028H
	DD	FLAT:??0out_of_range@std@@QAE@ABV01@@Z
xdata$x	ENDS
;	COMDAT ??_R0?AVout_of_range@std@@@8
_DATA	SEGMENT
??_R0?AVout_of_range@std@@@8 DD FLAT:??_7type_info@@6B@	; std::out_of_range `RTTI Type Descriptor'
	DD	00H
	DB	'.?AVout_of_range@std@@', 00H
; Function compile flags: /Odt
_DATA	ENDS
;	COMDAT ?erase@?$_Tree@V?$_Tmap_traits@PAUHWND__@@UWndMoveData@@U?$less@PAUHWND__@@@std@@V?$allocator@U?$pair@QAUHWND__@@UWndMoveData@@@std@@@4@$0A@@std@@@std@@QAE?AViterator@12@V312@@Z
_TEXT	SEGMENT
tv177 = -108						; size = 4
tv165 = -104						; size = 4
_this$ = -100						; size = 4
$T200168 = -96						; size = 28
$T200167 = -68						; size = 40
__Fixnodeparent$ = -28					; size = 4
__Pnode$ = -24						; size = 4
__Fixnode$ = -20					; size = 4
__Erasednode$ = -16					; size = 4
__$EHRec$ = -12						; size = 12
___$ReturnUdt$ = 8					; size = 4
__Where$ = 12						; size = 4
?erase@?$_Tree@V?$_Tmap_traits@PAUHWND__@@UWndMoveData@@U?$less@PAUHWND__@@@std@@V?$allocator@U?$pair@QAUHWND__@@UWndMoveData@@@std@@@4@$0A@@std@@@std@@QAE?AViterator@12@V312@@Z PROC NEAR ; std::_Tree<std::_Tmap_traits<HWND__ *,WndMoveData,std::less<HWND__ *>,std::allocator<std::pair<HWND__ * const,WndMoveData> >,0> >::erase, COMDAT
; _this$ = ecx

; 590  : 		{	// erase element at _Where

  00000	55		 push	 ebp
  00001	8b ec		 mov	 ebp, esp
  00003	6a ff		 push	 -1
  00005	68 00 00 00 00	 push	 __ehhandler$?erase@?$_Tree@V?$_Tmap_traits@PAUHWND__@@UWndMoveData@@U?$less@PAUHWND__@@@std@@V?$allocator@U?$pair@QAUHWND__@@UWndMoveData@@@std@@@4@$0A@@std@@@std@@QAE?AViterator@12@V312@@Z
  0000a	64 a1 00 00 00
	00		 mov	 eax, DWORD PTR fs:__except_list
  00010	50		 push	 eax
  00011	64 89 25 00 00
	00 00		 mov	 DWORD PTR fs:__except_list, esp
  00018	83 ec 60	 sub	 esp, 96			; 00000060H
  0001b	56		 push	 esi
  0001c	89 4d 9c	 mov	 DWORD PTR _this$[ebp], ecx

; 591  : 		if (_Isnil(_Where._Mynode()))

  0001f	8d 4d 0c	 lea	 ecx, DWORD PTR __Where$[ebp]
  00022	e8 00 00 00 00	 call	 ?_Mynode@const_iterator@?$_Tree@V?$_Tmap_traits@PAUHWND__@@UWndMoveData@@U?$less@PAUHWND__@@@std@@V?$allocator@U?$pair@QAUHWND__@@UWndMoveData@@@std@@@4@$0A@@std@@@std@@QBEPAU_Node@?$_Tree_nod@V?$_Tmap_traits@PAUHWND__@@UWndMoveData@@U?$less@PAUHWND__@@@std@@V?$allocator@U?$pair@QAUHWND__@@UWndMoveData@@@std@@@4@$0A@@std@@@3@XZ ; std::_Tree<std::_Tmap_traits<HWND__ *,WndMoveData,std::less<HWND__ *>,std::allocator<std::pair<HWND__ * const,WndMoveData> >,0> >::const_iterator::_Mynode
  00027	50		 push	 eax
  00028	e8 00 00 00 00	 call	 ?_Isnil@?$_Tree@V?$_Tmap_traits@PAUHWND__@@UWndMoveData@@U?$less@PAUHWND__@@@std@@V?$allocator@U?$pair@QAUHWND__@@UWndMoveData@@@std@@@4@$0A@@std@@@std@@KAAADPAU_Node@?$_Tree_nod@V?$_Tmap_traits@PAUHWND__@@UWndMoveData@@U?$less@PAUHWND__@@@std@@V?$allocator@U?$pair@QAUHWND__@@UWndMoveData@@@std@@@4@$0A@@std@@@2@@Z ; std::_Tree<std::_Tmap_traits<HWND__ *,WndMoveData,std::less<HWND__ *>,std::allocator<std::pair<HWND__ * const,WndMoveData> >,0> >::_Isnil
  0002d	83 c4 04	 add	 esp, 4
  00030	0f be 00	 movsx	 eax, BYTE PTR [eax]
  00033	85 c0		 test	 eax, eax
  00035	74 2f		 je	 SHORT $L199223

; 592  : 			_THROW(out_of_range, "invalid map/set<T> iterator");

  00037	68 00 00 00 00	 push	 OFFSET FLAT:??_C@_0BM@PAPJHAGI@invalid?5map?1set?$DMT?$DO?5iterator?$AA@
  0003c	8d 4d a0	 lea	 ecx, DWORD PTR $T200168[ebp]
  0003f	ff 15 00 00 00
	00		 call	 DWORD PTR __imp_??0?$basic_string@DU?$char_traits@D@std@@V?$allocator@D@2@@std@@QAE@PBD@Z
  00045	c7 45 fc 00 00
	00 00		 mov	 DWORD PTR __$EHRec$[ebp+8], 0
  0004c	8d 4d a0	 lea	 ecx, DWORD PTR $T200168[ebp]
  0004f	51		 push	 ecx
  00050	8d 4d bc	 lea	 ecx, DWORD PTR $T200167[ebp]
  00053	e8 00 00 00 00	 call	 ??0out_of_range@std@@QAE@ABV?$basic_string@DU?$char_traits@D@std@@V?$allocator@D@2@@1@@Z ; std::out_of_range::out_of_range
  00058	68 00 00 00 00	 push	 OFFSET FLAT:__TI3?AVout_of_range@std@@
  0005d	8d 55 bc	 lea	 edx, DWORD PTR $T200167[ebp]
  00060	52		 push	 edx
  00061	e8 00 00 00 00	 call	 __CxxThrowException@8
$L199223:

; 593  : 		_Nodeptr _Erasednode = _Where._Mynode();	// node to erase

  00066	8d 4d 0c	 lea	 ecx, DWORD PTR __Where$[ebp]
  00069	e8 00 00 00 00	 call	 ?_Mynode@const_iterator@?$_Tree@V?$_Tmap_traits@PAUHWND__@@UWndMoveData@@U?$less@PAUHWND__@@@std@@V?$allocator@U?$pair@QAUHWND__@@UWndMoveData@@@std@@@4@$0A@@std@@@std@@QBEPAU_Node@?$_Tree_nod@V?$_Tmap_traits@PAUHWND__@@UWndMoveData@@U?$less@PAUHWND__@@@std@@V?$allocator@U?$pair@QAUHWND__@@UWndMoveData@@@std@@@4@$0A@@std@@@3@XZ ; std::_Tree<std::_Tmap_traits<HWND__ *,WndMoveData,std::less<HWND__ *>,std::allocator<std::pair<HWND__ * const,WndMoveData> >,0> >::const_iterator::_Mynode
  0006e	89 45 f0	 mov	 DWORD PTR __Erasednode$[ebp], eax

; 594  : 		++_Where;	// save successor iterator for return

  00071	8d 4d 0c	 lea	 ecx, DWORD PTR __Where$[ebp]
  00074	e8 00 00 00 00	 call	 ??Eiterator@?$_Tree@V?$_Tmap_traits@PAUHWND__@@UWndMoveData@@U?$less@PAUHWND__@@@std@@V?$allocator@U?$pair@QAUHWND__@@UWndMoveData@@@std@@@4@$0A@@std@@@std@@QAEAAV012@XZ ; std::_Tree<std::_Tmap_traits<HWND__ *,WndMoveData,std::less<HWND__ *>,std::allocator<std::pair<HWND__ * const,WndMoveData> >,0> >::iterator::operator++

; 595  : 
; 596  : 		_Nodeptr _Fixnode;	// the node to recolor as needed
; 597  : 		_Nodeptr _Fixnodeparent;	// parent of _Fixnode (which may be nil)
; 598  : 		_Nodeptr _Pnode = _Erasednode;

  00079	8b 45 f0	 mov	 eax, DWORD PTR __Erasednode$[ebp]
  0007c	89 45 e8	 mov	 DWORD PTR __Pnode$[ebp], eax

; 599  : 
; 600  : 		if (_Isnil(_Left(_Pnode)))

  0007f	8b 4d e8	 mov	 ecx, DWORD PTR __Pnode$[ebp]
  00082	51		 push	 ecx
  00083	e8 00 00 00 00	 call	 ?_Left@?$_Tree@V?$_Tmap_traits@PAUHWND__@@UWndMoveData@@U?$less@PAUHWND__@@@std@@V?$allocator@U?$pair@QAUHWND__@@UWndMoveData@@@std@@@4@$0A@@std@@@std@@KAAAPAU_Node@?$_Tree_nod@V?$_Tmap_traits@PAUHWND__@@UWndMoveData@@U?$less@PAUHWND__@@@std@@V?$allocator@U?$pair@QAUHWND__@@UWndMoveData@@@std@@@4@$0A@@std@@@2@PAU342@@Z ; std::_Tree<std::_Tmap_traits<HWND__ *,WndMoveData,std::less<HWND__ *>,std::allocator<std::pair<HWND__ * const,WndMoveData> >,0> >::_Left
  00088	83 c4 04	 add	 esp, 4
  0008b	8b 10		 mov	 edx, DWORD PTR [eax]
  0008d	52		 push	 edx
  0008e	e8 00 00 00 00	 call	 ?_Isnil@?$_Tree@V?$_Tmap_traits@PAUHWND__@@UWndMoveData@@U?$less@PAUHWND__@@@std@@V?$allocator@U?$pair@QAUHWND__@@UWndMoveData@@@std@@@4@$0A@@std@@@std@@KAAADPAU_Node@?$_Tree_nod@V?$_Tmap_traits@PAUHWND__@@UWndMoveData@@U?$less@PAUHWND__@@@std@@V?$allocator@U?$pair@QAUHWND__@@UWndMoveData@@@std@@@4@$0A@@std@@@2@@Z ; std::_Tree<std::_Tmap_traits<HWND__ *,WndMoveData,std::less<HWND__ *>,std::allocator<std::pair<HWND__ * const,WndMoveData> >,0> >::_Isnil
  00093	83 c4 04	 add	 esp, 4
  00096	0f be 00	 movsx	 eax, BYTE PTR [eax]
  00099	85 c0		 test	 eax, eax
  0009b	74 13		 je	 SHORT $L199231

; 601  : 			_Fixnode = _Right(_Pnode);	// must stitch up right subtree

  0009d	8b 4d e8	 mov	 ecx, DWORD PTR __Pnode$[ebp]
  000a0	51		 push	 ecx
  000a1	e8 00 00 00 00	 call	 ?_Right@?$_Tree@V?$_Tmap_traits@PAUHWND__@@UWndMoveData@@U?$less@PAUHWND__@@@std@@V?$allocator@U?$pair@QAUHWND__@@UWndMoveData@@@std@@@4@$0A@@std@@@std@@KAAAPAU_Node@?$_Tree_nod@V?$_Tmap_traits@PAUHWND__@@UWndMoveData@@U?$less@PAUHWND__@@@std@@V?$allocator@U?$pair@QAUHWND__@@UWndMoveData@@@std@@@4@$0A@@std@@@2@PAU342@@Z ; std::_Tree<std::_Tmap_traits<HWND__ *,WndMoveData,std::less<HWND__ *>,std::allocator<std::pair<HWND__ * const,WndMoveData> >,0> >::_Right
  000a6	83 c4 04	 add	 esp, 4
  000a9	8b 10		 mov	 edx, DWORD PTR [eax]
  000ab	89 55 ec	 mov	 DWORD PTR __Fixnode$[ebp], edx

; 602  : 		else if (_Isnil(_Right(_Pnode)))

  000ae	eb 4d		 jmp	 SHORT $L199232
$L199231:
  000b0	8b 45 e8	 mov	 eax, DWORD PTR __Pnode$[ebp]
  000b3	50		 push	 eax
  000b4	e8 00 00 00 00	 call	 ?_Right@?$_Tree@V?$_Tmap_traits@PAUHWND__@@UWndMoveData@@U?$less@PAUHWND__@@@std@@V?$allocator@U?$pair@QAUHWND__@@UWndMoveData@@@std@@@4@$0A@@std@@@std@@KAAAPAU_Node@?$_Tree_nod@V?$_Tmap_traits@PAUHWND__@@UWndMoveData@@U?$less@PAUHWND__@@@std@@V?$allocator@U?$pair@QAUHWND__@@UWndMoveData@@@std@@@4@$0A@@std@@@2@PAU342@@Z ; std::_Tree<std::_Tmap_traits<HWND__ *,WndMoveData,std::less<HWND__ *>,std::allocator<std::pair<HWND__ * const,WndMoveData> >,0> >::_Right
  000b9	83 c4 04	 add	 esp, 4
  000bc	8b 08		 mov	 ecx, DWORD PTR [eax]
  000be	51		 push	 ecx
  000bf	e8 00 00 00 00	 call	 ?_Isnil@?$_Tree@V?$_Tmap_traits@PAUHWND__@@UWndMoveData@@U?$less@PAUHWND__@@@std@@V?$allocator@U?$pair@QAUHWND__@@UWndMoveData@@@std@@@4@$0A@@std@@@std@@KAAADPAU_Node@?$_Tree_nod@V?$_Tmap_traits@PAUHWND__@@UWndMoveData@@U?$less@PAUHWND__@@@std@@V?$allocator@U?$pair@QAUHWND__@@UWndMoveData@@@std@@@4@$0A@@std@@@2@@Z ; std::_Tree<std::_Tmap_traits<HWND__ *,WndMoveData,std::less<HWND__ *>,std::allocator<std::pair<HWND__ * const,WndMoveData> >,0> >::_Isnil
  000c4	83 c4 04	 add	 esp, 4
  000c7	0f be 10	 movsx	 edx, BYTE PTR [eax]
  000ca	85 d2		 test	 edx, edx
  000cc	74 13		 je	 SHORT $L199233

; 603  : 			_Fixnode = _Left(_Pnode);	// must stitch up left subtree

  000ce	8b 45 e8	 mov	 eax, DWORD PTR __Pnode$[ebp]
  000d1	50		 push	 eax
  000d2	e8 00 00 00 00	 call	 ?_Left@?$_Tree@V?$_Tmap_traits@PAUHWND__@@UWndMoveData@@U?$less@PAUHWND__@@@std@@V?$allocator@U?$pair@QAUHWND__@@UWndMoveData@@@std@@@4@$0A@@std@@@std@@KAAAPAU_Node@?$_Tree_nod@V?$_Tmap_traits@PAUHWND__@@UWndMoveData@@U?$less@PAUHWND__@@@std@@V?$allocator@U?$pair@QAUHWND__@@UWndMoveData@@@std@@@4@$0A@@std@@@2@PAU342@@Z ; std::_Tree<std::_Tmap_traits<HWND__ *,WndMoveData,std::less<HWND__ *>,std::allocator<std::pair<HWND__ * const,WndMoveData> >,0> >::_Left
  000d7	83 c4 04	 add	 esp, 4
  000da	8b 08		 mov	 ecx, DWORD PTR [eax]
  000dc	89 4d ec	 mov	 DWORD PTR __Fixnode$[ebp], ecx

; 604  : 		else

  000df	eb 1c		 jmp	 SHORT $L199232
$L199233:

; 605  : 			{	// two subtrees, must lift successor node to replace erased
; 606  : 			_Pnode = _Where._Mynode();	// _Pnode is successor node

  000e1	8d 4d 0c	 lea	 ecx, DWORD PTR __Where$[ebp]
  000e4	e8 00 00 00 00	 call	 ?_Mynode@const_iterator@?$_Tree@V?$_Tmap_traits@PAUHWND__@@UWndMoveData@@U?$less@PAUHWND__@@@std@@V?$allocator@U?$pair@QAUHWND__@@UWndMoveData@@@std@@@4@$0A@@std@@@std@@QBEPAU_Node@?$_Tree_nod@V?$_Tmap_traits@PAUHWND__@@UWndMoveData@@U?$less@PAUHWND__@@@std@@V?$allocator@U?$pair@QAUHWND__@@UWndMoveData@@@std@@@4@$0A@@std@@@3@XZ ; std::_Tree<std::_Tmap_traits<HWND__ *,WndMoveData,std::less<HWND__ *>,std::allocator<std::pair<HWND__ * const,WndMoveData> >,0> >::const_iterator::_Mynode
  000e9	89 45 e8	 mov	 DWORD PTR __Pnode$[ebp], eax

; 607  : 			_Fixnode = _Right(_Pnode);	// _Fixnode is its only subtree

  000ec	8b 55 e8	 mov	 edx, DWORD PTR __Pnode$[ebp]
  000ef	52		 push	 edx
  000f0	e8 00 00 00 00	 call	 ?_Right@?$_Tree@V?$_Tmap_traits@PAUHWND__@@UWndMoveData@@U?$less@PAUHWND__@@@std@@V?$allocator@U?$pair@QAUHWND__@@UWndMoveData@@@std@@@4@$0A@@std@@@std@@KAAAPAU_Node@?$_Tree_nod@V?$_Tmap_traits@PAUHWND__@@UWndMoveData@@U?$less@PAUHWND__@@@std@@V?$allocator@U?$pair@QAUHWND__@@UWndMoveData@@@std@@@4@$0A@@std@@@2@PAU342@@Z ; std::_Tree<std::_Tmap_traits<HWND__ *,WndMoveData,std::less<HWND__ *>,std::allocator<std::pair<HWND__ * const,WndMoveData> >,0> >::_Right
  000f5	83 c4 04	 add	 esp, 4
  000f8	8b 00		 mov	 eax, DWORD PTR [eax]
  000fa	89 45 ec	 mov	 DWORD PTR __Fixnode$[ebp], eax
$L199232:

; 608  : 			}
; 609  : 
; 610  : 		if (_Pnode == _Erasednode)

  000fd	8b 4d e8	 mov	 ecx, DWORD PTR __Pnode$[ebp]
  00100	3b 4d f0	 cmp	 ecx, DWORD PTR __Erasednode$[ebp]
  00103	0f 85 1b 01 00
	00		 jne	 $L199235

; 611  : 			{	// at most one subtree, relink it
; 612  : 			_Fixnodeparent = _Parent(_Erasednode);

  00109	8b 55 f0	 mov	 edx, DWORD PTR __Erasednode$[ebp]
  0010c	52		 push	 edx
  0010d	e8 00 00 00 00	 call	 ?_Parent@?$_Tree@V?$_Tmap_traits@PAUHWND__@@UWndMoveData@@U?$less@PAUHWND__@@@std@@V?$allocator@U?$pair@QAUHWND__@@UWndMoveData@@@std@@@4@$0A@@std@@@std@@KAAAPAU_Node@?$_Tree_nod@V?$_Tmap_traits@PAUHWND__@@UWndMoveData@@U?$less@PAUHWND__@@@std@@V?$allocator@U?$pair@QAUHWND__@@UWndMoveData@@@std@@@4@$0A@@std@@@2@PAU342@@Z ; std::_Tree<std::_Tmap_traits<HWND__ *,WndMoveData,std::less<HWND__ *>,std::allocator<std::pair<HWND__ * const,WndMoveData> >,0> >::_Parent
  00112	83 c4 04	 add	 esp, 4
  00115	8b 00		 mov	 eax, DWORD PTR [eax]
  00117	89 45 e4	 mov	 DWORD PTR __Fixnodeparent$[ebp], eax

; 613  : 			if (!_Isnil(_Fixnode))

  0011a	8b 4d ec	 mov	 ecx, DWORD PTR __Fixnode$[ebp]
  0011d	51		 push	 ecx
  0011e	e8 00 00 00 00	 call	 ?_Isnil@?$_Tree@V?$_Tmap_traits@PAUHWND__@@UWndMoveData@@U?$less@PAUHWND__@@@std@@V?$allocator@U?$pair@QAUHWND__@@UWndMoveData@@@std@@@4@$0A@@std@@@std@@KAAADPAU_Node@?$_Tree_nod@V?$_Tmap_traits@PAUHWND__@@UWndMoveData@@U?$less@PAUHWND__@@@std@@V?$allocator@U?$pair@QAUHWND__@@UWndMoveData@@@std@@@4@$0A@@std@@@2@@Z ; std::_Tree<std::_Tmap_traits<HWND__ *,WndMoveData,std::less<HWND__ *>,std::allocator<std::pair<HWND__ * const,WndMoveData> >,0> >::_Isnil
  00123	83 c4 04	 add	 esp, 4
  00126	0f be 10	 movsx	 edx, BYTE PTR [eax]
  00129	85 d2		 test	 edx, edx
  0012b	75 11		 jne	 SHORT $L199236

; 614  : 				_Parent(_Fixnode) = _Fixnodeparent;	// link up

  0012d	8b 45 ec	 mov	 eax, DWORD PTR __Fixnode$[ebp]
  00130	50		 push	 eax
  00131	e8 00 00 00 00	 call	 ?_Parent@?$_Tree@V?$_Tmap_traits@PAUHWND__@@UWndMoveData@@U?$less@PAUHWND__@@@std@@V?$allocator@U?$pair@QAUHWND__@@UWndMoveData@@@std@@@4@$0A@@std@@@std@@KAAAPAU_Node@?$_Tree_nod@V?$_Tmap_traits@PAUHWND__@@UWndMoveData@@U?$less@PAUHWND__@@@std@@V?$allocator@U?$pair@QAUHWND__@@UWndMoveData@@@std@@@4@$0A@@std@@@2@PAU342@@Z ; std::_Tree<std::_Tmap_traits<HWND__ *,WndMoveData,std::less<HWND__ *>,std::allocator<std::pair<HWND__ * const,WndMoveData> >,0> >::_Parent
  00136	83 c4 04	 add	 esp, 4
  00139	8b 4d e4	 mov	 ecx, DWORD PTR __Fixnodeparent$[ebp]
  0013c	89 08		 mov	 DWORD PTR [eax], ecx
$L199236:

; 615  : 
; 616  : 			if (_Root() == _Erasednode)

  0013e	8b 4d 9c	 mov	 ecx, DWORD PTR _this$[ebp]
  00141	e8 00 00 00 00	 call	 ?_Root@?$_Tree@V?$_Tmap_traits@PAUHWND__@@UWndMoveData@@U?$less@PAUHWND__@@@std@@V?$allocator@U?$pair@QAUHWND__@@UWndMoveData@@@std@@@4@$0A@@std@@@std@@IAEAAPAU_Node@?$_Tree_nod@V?$_Tmap_traits@PAUHWND__@@UWndMoveData@@U?$less@PAUHWND__@@@std@@V?$allocator@U?$pair@QAUHWND__@@UWndMoveData@@@std@@@4@$0A@@std@@@2@XZ ; std::_Tree<std::_Tmap_traits<HWND__ *,WndMoveData,std::less<HWND__ *>,std::allocator<std::pair<HWND__ * const,WndMoveData> >,0> >::_Root
  00146	8b 10		 mov	 edx, DWORD PTR [eax]
  00148	3b 55 f0	 cmp	 edx, DWORD PTR __Erasednode$[ebp]
  0014b	75 0f		 jne	 SHORT $L199237

; 617  : 				_Root() = _Fixnode;	// link down from root

  0014d	8b 4d 9c	 mov	 ecx, DWORD PTR _this$[ebp]
  00150	e8 00 00 00 00	 call	 ?_Root@?$_Tree@V?$_Tmap_traits@PAUHWND__@@UWndMoveData@@U?$less@PAUHWND__@@@std@@V?$allocator@U?$pair@QAUHWND__@@UWndMoveData@@@std@@@4@$0A@@std@@@std@@IAEAAPAU_Node@?$_Tree_nod@V?$_Tmap_traits@PAUHWND__@@UWndMoveData@@U?$less@PAUHWND__@@@std@@V?$allocator@U?$pair@QAUHWND__@@UWndMoveData@@@std@@@4@$0A@@std@@@2@XZ ; std::_Tree<std::_Tmap_traits<HWND__ *,WndMoveData,std::less<HWND__ *>,std::allocator<std::pair<HWND__ * const,WndMoveData> >,0> >::_Root
  00155	8b 4d ec	 mov	 ecx, DWORD PTR __Fixnode$[ebp]
  00158	89 08		 mov	 DWORD PTR [eax], ecx

; 618  : 			else if (_Left(_Fixnodeparent) == _Erasednode)

  0015a	eb 37		 jmp	 SHORT $L199238
$L199237:
  0015c	8b 55 e4	 mov	 edx, DWORD PTR __Fixnodeparent$[ebp]
  0015f	52		 push	 edx
  00160	e8 00 00 00 00	 call	 ?_Left@?$_Tree@V?$_Tmap_traits@PAUHWND__@@UWndMoveData@@U?$less@PAUHWND__@@@std@@V?$allocator@U?$pair@QAUHWND__@@UWndMoveData@@@std@@@4@$0A@@std@@@std@@KAAAPAU_Node@?$_Tree_nod@V?$_Tmap_traits@PAUHWND__@@UWndMoveData@@U?$less@PAUHWND__@@@std@@V?$allocator@U?$pair@QAUHWND__@@UWndMoveData@@@std@@@4@$0A@@std@@@2@PAU342@@Z ; std::_Tree<std::_Tmap_traits<HWND__ *,WndMoveData,std::less<HWND__ *>,std::allocator<std::pair<HWND__ * const,WndMoveData> >,0> >::_Left
  00165	83 c4 04	 add	 esp, 4
  00168	8b 00		 mov	 eax, DWORD PTR [eax]
  0016a	3b 45 f0	 cmp	 eax, DWORD PTR __Erasednode$[ebp]
  0016d	75 13		 jne	 SHORT $L199239

; 619  : 				_Left(_Fixnodeparent) = _Fixnode;	// link down to left

  0016f	8b 4d e4	 mov	 ecx, DWORD PTR __Fixnodeparent$[ebp]
  00172	51		 push	 ecx
  00173	e8 00 00 00 00	 call	 ?_Left@?$_Tree@V?$_Tmap_traits@PAUHWND__@@UWndMoveData@@U?$less@PAUHWND__@@@std@@V?$allocator@U?$pair@QAUHWND__@@UWndMoveData@@@std@@@4@$0A@@std@@@std@@KAAAPAU_Node@?$_Tree_nod@V?$_Tmap_traits@PAUHWND__@@UWndMoveData@@U?$less@PAUHWND__@@@std@@V?$allocator@U?$pair@QAUHWND__@@UWndMoveData@@@std@@@4@$0A@@std@@@2@PAU342@@Z ; std::_Tree<std::_Tmap_traits<HWND__ *,WndMoveData,std::less<HWND__ *>,std::allocator<std::pair<HWND__ * const,WndMoveData> >,0> >::_Left
  00178	83 c4 04	 add	 esp, 4
  0017b	8b 55 ec	 mov	 edx, DWORD PTR __Fixnode$[ebp]
  0017e	89 10		 mov	 DWORD PTR [eax], edx

; 620  : 			else

  00180	eb 11		 jmp	 SHORT $L199238
$L199239:

; 621  : 				_Right(_Fixnodeparent) = _Fixnode;	// link down to right

  00182	8b 45 e4	 mov	 eax, DWORD PTR __Fixnodeparent$[ebp]
  00185	50		 push	 eax
  00186	e8 00 00 00 00	 call	 ?_Right@?$_Tree@V?$_Tmap_traits@PAUHWND__@@UWndMoveData@@U?$less@PAUHWND__@@@std@@V?$allocator@U?$pair@QAUHWND__@@UWndMoveData@@@std@@@4@$0A@@std@@@std@@KAAAPAU_Node@?$_Tree_nod@V?$_Tmap_traits@PAUHWND__@@UWndMoveData@@U?$less@PAUHWND__@@@std@@V?$allocator@U?$pair@QAUHWND__@@UWndMoveData@@@std@@@4@$0A@@std@@@2@PAU342@@Z ; std::_Tree<std::_Tmap_traits<HWND__ *,WndMoveData,std::less<HWND__ *>,std::allocator<std::pair<HWND__ * const,WndMoveData> >,0> >::_Right
  0018b	83 c4 04	 add	 esp, 4
  0018e	8b 4d ec	 mov	 ecx, DWORD PTR __Fixnode$[ebp]
  00191	89 08		 mov	 DWORD PTR [eax], ecx
$L199238:

; 622  : 
; 623  : 			if (_Lmost() == _Erasednode)

  00193	8b 4d 9c	 mov	 ecx, DWORD PTR _this$[ebp]
  00196	e8 00 00 00 00	 call	 ?_Lmost@?$_Tree@V?$_Tmap_traits@PAUHWND__@@UWndMoveData@@U?$less@PAUHWND__@@@std@@V?$allocator@U?$pair@QAUHWND__@@UWndMoveData@@@std@@@4@$0A@@std@@@std@@IAEAAPAU_Node@?$_Tree_nod@V?$_Tmap_traits@PAUHWND__@@UWndMoveData@@U?$less@PAUHWND__@@@std@@V?$allocator@U?$pair@QAUHWND__@@UWndMoveData@@@std@@@4@$0A@@std@@@2@XZ ; std::_Tree<std::_Tmap_traits<HWND__ *,WndMoveData,std::less<HWND__ *>,std::allocator<std::pair<HWND__ * const,WndMoveData> >,0> >::_Lmost
  0019b	8b 10		 mov	 edx, DWORD PTR [eax]
  0019d	3b 55 f0	 cmp	 edx, DWORD PTR __Erasednode$[ebp]
  001a0	75 37		 jne	 SHORT $L199241

; 624  : 				_Lmost() = _Isnil(_Fixnode)
; 625  : 					? _Fixnodeparent	// smallest is parent of erased node
; 626  : 					: _Min(_Fixnode);	// smallest in relinked subtree

  001a2	8b 45 ec	 mov	 eax, DWORD PTR __Fixnode$[ebp]
  001a5	50		 push	 eax
  001a6	e8 00 00 00 00	 call	 ?_Isnil@?$_Tree@V?$_Tmap_traits@PAUHWND__@@UWndMoveData@@U?$less@PAUHWND__@@@std@@V?$allocator@U?$pair@QAUHWND__@@UWndMoveData@@@std@@@4@$0A@@std@@@std@@KAAADPAU_Node@?$_Tree_nod@V?$_Tmap_traits@PAUHWND__@@UWndMoveData@@U?$less@PAUHWND__@@@std@@V?$allocator@U?$pair@QAUHWND__@@UWndMoveData@@@std@@@4@$0A@@std@@@2@@Z ; std::_Tree<std::_Tmap_traits<HWND__ *,WndMoveData,std::less<HWND__ *>,std::allocator<std::pair<HWND__ * const,WndMoveData> >,0> >::_Isnil
  001ab	83 c4 04	 add	 esp, 4
  001ae	0f be 08	 movsx	 ecx, BYTE PTR [eax]
  001b1	85 c9		 test	 ecx, ecx
  001b3	74 08		 je	 SHORT $L200169
  001b5	8b 55 e4	 mov	 edx, DWORD PTR __Fixnodeparent$[ebp]
  001b8	89 55 98	 mov	 DWORD PTR tv165[ebp], edx
  001bb	eb 0f		 jmp	 SHORT $L200170
$L200169:
  001bd	8b 45 ec	 mov	 eax, DWORD PTR __Fixnode$[ebp]
  001c0	50		 push	 eax
  001c1	e8 00 00 00 00	 call	 ?_Min@?$_Tree@V?$_Tmap_traits@PAUHWND__@@UWndMoveData@@U?$less@PAUHWND__@@@std@@V?$allocator@U?$pair@QAUHWND__@@UWndMoveData@@@std@@@4@$0A@@std@@@std@@KAPAU_Node@?$_Tree_nod@V?$_Tmap_traits@PAUHWND__@@UWndMoveData@@U?$less@PAUHWND__@@@std@@V?$allocator@U?$pair@QAUHWND__@@UWndMoveData@@@std@@@4@$0A@@std@@@2@PAU342@@Z ; std::_Tree<std::_Tmap_traits<HWND__ *,WndMoveData,std::less<HWND__ *>,std::allocator<std::pair<HWND__ * const,WndMoveData> >,0> >::_Min
  001c6	83 c4 04	 add	 esp, 4
  001c9	89 45 98	 mov	 DWORD PTR tv165[ebp], eax
$L200170:
  001cc	8b 4d 9c	 mov	 ecx, DWORD PTR _this$[ebp]
  001cf	e8 00 00 00 00	 call	 ?_Lmost@?$_Tree@V?$_Tmap_traits@PAUHWND__@@UWndMoveData@@U?$less@PAUHWND__@@@std@@V?$allocator@U?$pair@QAUHWND__@@UWndMoveData@@@std@@@4@$0A@@std@@@std@@IAEAAPAU_Node@?$_Tree_nod@V?$_Tmap_traits@PAUHWND__@@UWndMoveData@@U?$less@PAUHWND__@@@std@@V?$allocator@U?$pair@QAUHWND__@@UWndMoveData@@@std@@@4@$0A@@std@@@2@XZ ; std::_Tree<std::_Tmap_traits<HWND__ *,WndMoveData,std::less<HWND__ *>,std::allocator<std::pair<HWND__ * const,WndMoveData> >,0> >::_Lmost
  001d4	8b 4d 98	 mov	 ecx, DWORD PTR tv165[ebp]
  001d7	89 08		 mov	 DWORD PTR [eax], ecx
$L199241:

; 627  : 
; 628  : 			if (_Rmost() == _Erasednode)

  001d9	8b 4d 9c	 mov	 ecx, DWORD PTR _this$[ebp]
  001dc	e8 00 00 00 00	 call	 ?_Rmost@?$_Tree@V?$_Tmap_traits@PAUHWND__@@UWndMoveData@@U?$less@PAUHWND__@@@std@@V?$allocator@U?$pair@QAUHWND__@@UWndMoveData@@@std@@@4@$0A@@std@@@std@@IAEAAPAU_Node@?$_Tree_nod@V?$_Tmap_traits@PAUHWND__@@UWndMoveData@@U?$less@PAUHWND__@@@std@@V?$allocator@U?$pair@QAUHWND__@@UWndMoveData@@@std@@@4@$0A@@std@@@2@XZ ; std::_Tree<std::_Tmap_traits<HWND__ *,WndMoveData,std::less<HWND__ *>,std::allocator<std::pair<HWND__ * const,WndMoveData> >,0> >::_Rmost
  001e1	8b 10		 mov	 edx, DWORD PTR [eax]
  001e3	3b 55 f0	 cmp	 edx, DWORD PTR __Erasednode$[ebp]
  001e6	75 37		 jne	 SHORT $L199242

; 629  : 				_Rmost() = _Isnil(_Fixnode)
; 630  : 					? _Fixnodeparent	// largest is parent of erased node
; 631  : 					: _Max(_Fixnode);	// largest in relinked subtree

  001e8	8b 45 ec	 mov	 eax, DWORD PTR __Fixnode$[ebp]
  001eb	50		 push	 eax
  001ec	e8 00 00 00 00	 call	 ?_Isnil@?$_Tree@V?$_Tmap_traits@PAUHWND__@@UWndMoveData@@U?$less@PAUHWND__@@@std@@V?$allocator@U?$pair@QAUHWND__@@UWndMoveData@@@std@@@4@$0A@@std@@@std@@KAAADPAU_Node@?$_Tree_nod@V?$_Tmap_traits@PAUHWND__@@UWndMoveData@@U?$less@PAUHWND__@@@std@@V?$allocator@U?$pair@QAUHWND__@@UWndMoveData@@@std@@@4@$0A@@std@@@2@@Z ; std::_Tree<std::_Tmap_traits<HWND__ *,WndMoveData,std::less<HWND__ *>,std::allocator<std::pair<HWND__ * const,WndMoveData> >,0> >::_Isnil
  001f1	83 c4 04	 add	 esp, 4
  001f4	0f be 08	 movsx	 ecx, BYTE PTR [eax]
  001f7	85 c9		 test	 ecx, ecx
  001f9	74 08		 je	 SHORT $L200171
  001fb	8b 55 e4	 mov	 edx, DWORD PTR __Fixnodeparent$[ebp]
  001fe	89 55 94	 mov	 DWORD PTR tv177[ebp], edx
  00201	eb 0f		 jmp	 SHORT $L200172
$L200171:
  00203	8b 45 ec	 mov	 eax, DWORD PTR __Fixnode$[ebp]
  00206	50		 push	 eax
  00207	e8 00 00 00 00	 call	 ?_Max@?$_Tree@V?$_Tmap_traits@PAUHWND__@@UWndMoveData@@U?$less@PAUHWND__@@@std@@V?$allocator@U?$pair@QAUHWND__@@UWndMoveData@@@std@@@4@$0A@@std@@@std@@KAPAU_Node@?$_Tree_nod@V?$_Tmap_traits@PAUHWND__@@UWndMoveData@@U?$less@PAUHWND__@@@std@@V?$allocator@U?$pair@QAUHWND__@@UWndMoveData@@@std@@@4@$0A@@std@@@2@PAU342@@Z ; std::_Tree<std::_Tmap_traits<HWND__ *,WndMoveData,std::less<HWND__ *>,std::allocator<std::pair<HWND__ * const,WndMoveData> >,0> >::_Max
  0020c	83 c4 04	 add	 esp, 4
  0020f	89 45 94	 mov	 DWORD PTR tv177[ebp], eax
$L200172:
  00212	8b 4d 9c	 mov	 ecx, DWORD PTR _this$[ebp]
  00215	e8 00 00 00 00	 call	 ?_Rmost@?$_Tree@V?$_Tmap_traits@PAUHWND__@@UWndMoveData@@U?$less@PAUHWND__@@@std@@V?$allocator@U?$pair@QAUHWND__@@UWndMoveData@@@std@@@4@$0A@@std@@@std@@IAEAAPAU_Node@?$_Tree_nod@V?$_Tmap_traits@PAUHWND__@@UWndMoveData@@U?$less@PAUHWND__@@@std@@V?$allocator@U?$pair@QAUHWND__@@UWndMoveData@@@std@@@4@$0A@@std@@@2@XZ ; std::_Tree<std::_Tmap_traits<HWND__ *,WndMoveData,std::less<HWND__ *>,std::allocator<std::pair<HWND__ * const,WndMoveData> >,0> >::_Rmost
  0021a	8b 4d 94	 mov	 ecx, DWORD PTR tv177[ebp]
  0021d	89 08		 mov	 DWORD PTR [eax], ecx
$L199242:

; 632  : 			}
; 633  : 		else

  0021f	e9 8e 01 00 00	 jmp	 $L199243
$L199235:

; 634  : 			{	// erased has two subtrees, _Pnode is successor to erased
; 635  : 			_Parent(_Left(_Erasednode)) = _Pnode;	// link left up

  00224	8b 55 f0	 mov	 edx, DWORD PTR __Erasednode$[ebp]
  00227	52		 push	 edx
  00228	e8 00 00 00 00	 call	 ?_Left@?$_Tree@V?$_Tmap_traits@PAUHWND__@@UWndMoveData@@U?$less@PAUHWND__@@@std@@V?$allocator@U?$pair@QAUHWND__@@UWndMoveData@@@std@@@4@$0A@@std@@@std@@KAAAPAU_Node@?$_Tree_nod@V?$_Tmap_traits@PAUHWND__@@UWndMoveData@@U?$less@PAUHWND__@@@std@@V?$allocator@U?$pair@QAUHWND__@@UWndMoveData@@@std@@@4@$0A@@std@@@2@PAU342@@Z ; std::_Tree<std::_Tmap_traits<HWND__ *,WndMoveData,std::less<HWND__ *>,std::allocator<std::pair<HWND__ * const,WndMoveData> >,0> >::_Left
  0022d	83 c4 04	 add	 esp, 4
  00230	8b 00		 mov	 eax, DWORD PTR [eax]
  00232	50		 push	 eax
  00233	e8 00 00 00 00	 call	 ?_Parent@?$_Tree@V?$_Tmap_traits@PAUHWND__@@UWndMoveData@@U?$less@PAUHWND__@@@std@@V?$allocator@U?$pair@QAUHWND__@@UWndMoveData@@@std@@@4@$0A@@std@@@std@@KAAAPAU_Node@?$_Tree_nod@V?$_Tmap_traits@PAUHWND__@@UWndMoveData@@U?$less@PAUHWND__@@@std@@V?$allocator@U?$pair@QAUHWND__@@UWndMoveData@@@std@@@4@$0A@@std@@@2@PAU342@@Z ; std::_Tree<std::_Tmap_traits<HWND__ *,WndMoveData,std::less<HWND__ *>,std::allocator<std::pair<HWND__ * const,WndMoveData> >,0> >::_Parent
  00238	83 c4 04	 add	 esp, 4
  0023b	8b 4d e8	 mov	 ecx, DWORD PTR __Pnode$[ebp]
  0023e	89 08		 mov	 DWORD PTR [eax], ecx

; 636  : 			_Left(_Pnode) = _Left(_Erasednode);	// link successor down

  00240	8b 55 f0	 mov	 edx, DWORD PTR __Erasednode$[ebp]
  00243	52		 push	 edx
  00244	e8 00 00 00 00	 call	 ?_Left@?$_Tree@V?$_Tmap_traits@PAUHWND__@@UWndMoveData@@U?$less@PAUHWND__@@@std@@V?$allocator@U?$pair@QAUHWND__@@UWndMoveData@@@std@@@4@$0A@@std@@@std@@KAAAPAU_Node@?$_Tree_nod@V?$_Tmap_traits@PAUHWND__@@UWndMoveData@@U?$less@PAUHWND__@@@std@@V?$allocator@U?$pair@QAUHWND__@@UWndMoveData@@@std@@@4@$0A@@std@@@2@PAU342@@Z ; std::_Tree<std::_Tmap_traits<HWND__ *,WndMoveData,std::less<HWND__ *>,std::allocator<std::pair<HWND__ * const,WndMoveData> >,0> >::_Left
  00249	83 c4 04	 add	 esp, 4
  0024c	8b f0		 mov	 esi, eax
  0024e	8b 45 e8	 mov	 eax, DWORD PTR __Pnode$[ebp]
  00251	50		 push	 eax
  00252	e8 00 00 00 00	 call	 ?_Left@?$_Tree@V?$_Tmap_traits@PAUHWND__@@UWndMoveData@@U?$less@PAUHWND__@@@std@@V?$allocator@U?$pair@QAUHWND__@@UWndMoveData@@@std@@@4@$0A@@std@@@std@@KAAAPAU_Node@?$_Tree_nod@V?$_Tmap_traits@PAUHWND__@@UWndMoveData@@U?$less@PAUHWND__@@@std@@V?$allocator@U?$pair@QAUHWND__@@UWndMoveData@@@std@@@4@$0A@@std@@@2@PAU342@@Z ; std::_Tree<std::_Tmap_traits<HWND__ *,WndMoveData,std::less<HWND__ *>,std::allocator<std::pair<HWND__ * const,WndMoveData> >,0> >::_Left
  00257	83 c4 04	 add	 esp, 4
  0025a	8b 0e		 mov	 ecx, DWORD PTR [esi]
  0025c	89 08		 mov	 DWORD PTR [eax], ecx

; 637  : 
; 638  : 			if (_Pnode == _Right(_Erasednode))

  0025e	8b 55 f0	 mov	 edx, DWORD PTR __Erasednode$[ebp]
  00261	52		 push	 edx
  00262	e8 00 00 00 00	 call	 ?_Right@?$_Tree@V?$_Tmap_traits@PAUHWND__@@UWndMoveData@@U?$less@PAUHWND__@@@std@@V?$allocator@U?$pair@QAUHWND__@@UWndMoveData@@@std@@@4@$0A@@std@@@std@@KAAAPAU_Node@?$_Tree_nod@V?$_Tmap_traits@PAUHWND__@@UWndMoveData@@U?$less@PAUHWND__@@@std@@V?$allocator@U?$pair@QAUHWND__@@UWndMoveData@@@std@@@4@$0A@@std@@@2@PAU342@@Z ; std::_Tree<std::_Tmap_traits<HWND__ *,WndMoveData,std::less<HWND__ *>,std::allocator<std::pair<HWND__ * const,WndMoveData> >,0> >::_Right
  00267	83 c4 04	 add	 esp, 4
  0026a	8b 4d e8	 mov	 ecx, DWORD PTR __Pnode$[ebp]
  0026d	3b 08		 cmp	 ecx, DWORD PTR [eax]
  0026f	75 0b		 jne	 SHORT $L199244

; 639  : 				_Fixnodeparent = _Pnode;	// successor is next to erased

  00271	8b 55 e8	 mov	 edx, DWORD PTR __Pnode$[ebp]
  00274	89 55 e4	 mov	 DWORD PTR __Fixnodeparent$[ebp], edx

; 640  : 			else

  00277	e9 80 00 00 00	 jmp	 $L199245
$L199244:

; 641  : 				{	// successor further down, link in place of erased
; 642  : 				_Fixnodeparent = _Parent(_Pnode);	// parent is successor's

  0027c	8b 45 e8	 mov	 eax, DWORD PTR __Pnode$[ebp]
  0027f	50		 push	 eax
  00280	e8 00 00 00 00	 call	 ?_Parent@?$_Tree@V?$_Tmap_traits@PAUHWND__@@UWndMoveData@@U?$less@PAUHWND__@@@std@@V?$allocator@U?$pair@QAUHWND__@@UWndMoveData@@@std@@@4@$0A@@std@@@std@@KAAAPAU_Node@?$_Tree_nod@V?$_Tmap_traits@PAUHWND__@@UWndMoveData@@U?$less@PAUHWND__@@@std@@V?$allocator@U?$pair@QAUHWND__@@UWndMoveData@@@std@@@4@$0A@@std@@@2@PAU342@@Z ; std::_Tree<std::_Tmap_traits<HWND__ *,WndMoveData,std::less<HWND__ *>,std::allocator<std::pair<HWND__ * const,WndMoveData> >,0> >::_Parent
  00285	83 c4 04	 add	 esp, 4
  00288	8b 08		 mov	 ecx, DWORD PTR [eax]
  0028a	89 4d e4	 mov	 DWORD PTR __Fixnodeparent$[ebp], ecx

; 643  : 				if (!_Isnil(_Fixnode))

  0028d	8b 55 ec	 mov	 edx, DWORD PTR __Fixnode$[ebp]
  00290	52		 push	 edx
  00291	e8 00 00 00 00	 call	 ?_Isnil@?$_Tree@V?$_Tmap_traits@PAUHWND__@@UWndMoveData@@U?$less@PAUHWND__@@@std@@V?$allocator@U?$pair@QAUHWND__@@UWndMoveData@@@std@@@4@$0A@@std@@@std@@KAAADPAU_Node@?$_Tree_nod@V?$_Tmap_traits@PAUHWND__@@UWndMoveData@@U?$less@PAUHWND__@@@std@@V?$allocator@U?$pair@QAUHWND__@@UWndMoveData@@@std@@@4@$0A@@std@@@2@@Z ; std::_Tree<std::_Tmap_traits<HWND__ *,WndMoveData,std::less<HWND__ *>,std::allocator<std::pair<HWND__ * const,WndMoveData> >,0> >::_Isnil
  00296	83 c4 04	 add	 esp, 4
  00299	0f be 00	 movsx	 eax, BYTE PTR [eax]
  0029c	85 c0		 test	 eax, eax
  0029e	75 11		 jne	 SHORT $L199246

; 644  : 					_Parent(_Fixnode) = _Fixnodeparent;	// link fix up

  002a0	8b 4d ec	 mov	 ecx, DWORD PTR __Fixnode$[ebp]
  002a3	51		 push	 ecx
  002a4	e8 00 00 00 00	 call	 ?_Parent@?$_Tree@V?$_Tmap_traits@PAUHWND__@@UWndMoveData@@U?$less@PAUHWND__@@@std@@V?$allocator@U?$pair@QAUHWND__@@UWndMoveData@@@std@@@4@$0A@@std@@@std@@KAAAPAU_Node@?$_Tree_nod@V?$_Tmap_traits@PAUHWND__@@UWndMoveData@@U?$less@PAUHWND__@@@std@@V?$allocator@U?$pair@QAUHWND__@@UWndMoveData@@@std@@@4@$0A@@std@@@2@PAU342@@Z ; std::_Tree<std::_Tmap_traits<HWND__ *,WndMoveData,std::less<HWND__ *>,std::allocator<std::pair<HWND__ * const,WndMoveData> >,0> >::_Parent
  002a9	83 c4 04	 add	 esp, 4
  002ac	8b 55 e4	 mov	 edx, DWORD PTR __Fixnodeparent$[ebp]
  002af	89 10		 mov	 DWORD PTR [eax], edx
$L199246:

; 645  : 				_Left(_Fixnodeparent) = _Fixnode;	// link fix down

  002b1	8b 45 e4	 mov	 eax, DWORD PTR __Fixnodeparent$[ebp]
  002b4	50		 push	 eax
  002b5	e8 00 00 00 00	 call	 ?_Left@?$_Tree@V?$_Tmap_traits@PAUHWND__@@UWndMoveData@@U?$less@PAUHWND__@@@std@@V?$allocator@U?$pair@QAUHWND__@@UWndMoveData@@@std@@@4@$0A@@std@@@std@@KAAAPAU_Node@?$_Tree_nod@V?$_Tmap_traits@PAUHWND__@@UWndMoveData@@U?$less@PAUHWND__@@@std@@V?$allocator@U?$pair@QAUHWND__@@UWndMoveData@@@std@@@4@$0A@@std@@@2@PAU342@@Z ; std::_Tree<std::_Tmap_traits<HWND__ *,WndMoveData,std::less<HWND__ *>,std::allocator<std::pair<HWND__ * const,WndMoveData> >,0> >::_Left
  002ba	83 c4 04	 add	 esp, 4
  002bd	8b 4d ec	 mov	 ecx, DWORD PTR __Fixnode$[ebp]
  002c0	89 08		 mov	 DWORD PTR [eax], ecx

; 646  : 				_Right(_Pnode) = _Right(_Erasednode);	// link successor down

  002c2	8b 55 f0	 mov	 edx, DWORD PTR __Erasednode$[ebp]
  002c5	52		 push	 edx
  002c6	e8 00 00 00 00	 call	 ?_Right@?$_Tree@V?$_Tmap_traits@PAUHWND__@@UWndMoveData@@U?$less@PAUHWND__@@@std@@V?$allocator@U?$pair@QAUHWND__@@UWndMoveData@@@std@@@4@$0A@@std@@@std@@KAAAPAU_Node@?$_Tree_nod@V?$_Tmap_traits@PAUHWND__@@UWndMoveData@@U?$less@PAUHWND__@@@std@@V?$allocator@U?$pair@QAUHWND__@@UWndMoveData@@@std@@@4@$0A@@std@@@2@PAU342@@Z ; std::_Tree<std::_Tmap_traits<HWND__ *,WndMoveData,std::less<HWND__ *>,std::allocator<std::pair<HWND__ * const,WndMoveData> >,0> >::_Right
  002cb	83 c4 04	 add	 esp, 4
  002ce	8b f0		 mov	 esi, eax
  002d0	8b 45 e8	 mov	 eax, DWORD PTR __Pnode$[ebp]
  002d3	50		 push	 eax
  002d4	e8 00 00 00 00	 call	 ?_Right@?$_Tree@V?$_Tmap_traits@PAUHWND__@@UWndMoveData@@U?$less@PAUHWND__@@@std@@V?$allocator@U?$pair@QAUHWND__@@UWndMoveData@@@std@@@4@$0A@@std@@@std@@KAAAPAU_Node@?$_Tree_nod@V?$_Tmap_traits@PAUHWND__@@UWndMoveData@@U?$less@PAUHWND__@@@std@@V?$allocator@U?$pair@QAUHWND__@@UWndMoveData@@@std@@@4@$0A@@std@@@2@PAU342@@Z ; std::_Tree<std::_Tmap_traits<HWND__ *,WndMoveData,std::less<HWND__ *>,std::allocator<std::pair<HWND__ * const,WndMoveData> >,0> >::_Right
  002d9	83 c4 04	 add	 esp, 4
  002dc	8b 0e		 mov	 ecx, DWORD PTR [esi]
  002de	89 08		 mov	 DWORD PTR [eax], ecx

; 647  : 				_Parent(_Right(_Erasednode)) = _Pnode;	// link right up

  002e0	8b 55 f0	 mov	 edx, DWORD PTR __Erasednode$[ebp]
  002e3	52		 push	 edx
  002e4	e8 00 00 00 00	 call	 ?_Right@?$_Tree@V?$_Tmap_traits@PAUHWND__@@UWndMoveData@@U?$less@PAUHWND__@@@std@@V?$allocator@U?$pair@QAUHWND__@@UWndMoveData@@@std@@@4@$0A@@std@@@std@@KAAAPAU_Node@?$_Tree_nod@V?$_Tmap_traits@PAUHWND__@@UWndMoveData@@U?$less@PAUHWND__@@@std@@V?$allocator@U?$pair@QAUHWND__@@UWndMoveData@@@std@@@4@$0A@@std@@@2@PAU342@@Z ; std::_Tree<std::_Tmap_traits<HWND__ *,WndMoveData,std::less<HWND__ *>,std::allocator<std::pair<HWND__ * const,WndMoveData> >,0> >::_Right
  002e9	83 c4 04	 add	 esp, 4
  002ec	8b 00		 mov	 eax, DWORD PTR [eax]
  002ee	50		 push	 eax
  002ef	e8 00 00 00 00	 call	 ?_Parent@?$_Tree@V?$_Tmap_traits@PAUHWND__@@UWndMoveData@@U?$less@PAUHWND__@@@std@@V?$allocator@U?$pair@QAUHWND__@@UWndMoveData@@@std@@@4@$0A@@std@@@std@@KAAAPAU_Node@?$_Tree_nod@V?$_Tmap_traits@PAUHWND__@@UWndMoveData@@U?$less@PAUHWND__@@@std@@V?$allocator@U?$pair@QAUHWND__@@UWndMoveData@@@std@@@4@$0A@@std@@@2@PAU342@@Z ; std::_Tree<std::_Tmap_traits<HWND__ *,WndMoveData,std::less<HWND__ *>,std::allocator<std::pair<HWND__ * const,WndMoveData> >,0> >::_Parent
  002f4	83 c4 04	 add	 esp, 4
  002f7	8b 4d e8	 mov	 ecx, DWORD PTR __Pnode$[ebp]
  002fa	89 08		 mov	 DWORD PTR [eax], ecx
$L199245:

; 648  : 				}
; 649  : 
; 650  : 			if (_Root() == _Erasednode)

  002fc	8b 4d 9c	 mov	 ecx, DWORD PTR _this$[ebp]
  002ff	e8 00 00 00 00	 call	 ?_Root@?$_Tree@V?$_Tmap_traits@PAUHWND__@@UWndMoveData@@U?$less@PAUHWND__@@@std@@V?$allocator@U?$pair@QAUHWND__@@UWndMoveData@@@std@@@4@$0A@@std@@@std@@IAEAAPAU_Node@?$_Tree_nod@V?$_Tmap_traits@PAUHWND__@@UWndMoveData@@U?$less@PAUHWND__@@@std@@V?$allocator@U?$pair@QAUHWND__@@UWndMoveData@@@std@@@4@$0A@@std@@@2@XZ ; std::_Tree<std::_Tmap_traits<HWND__ *,WndMoveData,std::less<HWND__ *>,std::allocator<std::pair<HWND__ * const,WndMoveData> >,0> >::_Root
  00304	8b 10		 mov	 edx, DWORD PTR [eax]
  00306	3b 55 f0	 cmp	 edx, DWORD PTR __Erasednode$[ebp]
  00309	75 0f		 jne	 SHORT $L199247

; 651  : 				_Root() = _Pnode;	// link down from root

  0030b	8b 4d 9c	 mov	 ecx, DWORD PTR _this$[ebp]
  0030e	e8 00 00 00 00	 call	 ?_Root@?$_Tree@V?$_Tmap_traits@PAUHWND__@@UWndMoveData@@U?$less@PAUHWND__@@@std@@V?$allocator@U?$pair@QAUHWND__@@UWndMoveData@@@std@@@4@$0A@@std@@@std@@IAEAAPAU_Node@?$_Tree_nod@V?$_Tmap_traits@PAUHWND__@@UWndMoveData@@U?$less@PAUHWND__@@@std@@V?$allocator@U?$pair@QAUHWND__@@UWndMoveData@@@std@@@4@$0A@@std@@@2@XZ ; std::_Tree<std::_Tmap_traits<HWND__ *,WndMoveData,std::less<HWND__ *>,std::allocator<std::pair<HWND__ * const,WndMoveData> >,0> >::_Root
  00313	8b 4d e8	 mov	 ecx, DWORD PTR __Pnode$[ebp]
  00316	89 08		 mov	 DWORD PTR [eax], ecx

; 652  : 			else if (_Left(_Parent(_Erasednode)) == _Erasednode)

  00318	eb 58		 jmp	 SHORT $L199248
$L199247:
  0031a	8b 55 f0	 mov	 edx, DWORD PTR __Erasednode$[ebp]
  0031d	52		 push	 edx
  0031e	e8 00 00 00 00	 call	 ?_Parent@?$_Tree@V?$_Tmap_traits@PAUHWND__@@UWndMoveData@@U?$less@PAUHWND__@@@std@@V?$allocator@U?$pair@QAUHWND__@@UWndMoveData@@@std@@@4@$0A@@std@@@std@@KAAAPAU_Node@?$_Tree_nod@V?$_Tmap_traits@PAUHWND__@@UWndMoveData@@U?$less@PAUHWND__@@@std@@V?$allocator@U?$pair@QAUHWND__@@UWndMoveData@@@std@@@4@$0A@@std@@@2@PAU342@@Z ; std::_Tree<std::_Tmap_traits<HWND__ *,WndMoveData,std::less<HWND__ *>,std::allocator<std::pair<HWND__ * const,WndMoveData> >,0> >::_Parent
  00323	83 c4 04	 add	 esp, 4
  00326	8b 00		 mov	 eax, DWORD PTR [eax]
  00328	50		 push	 eax
  00329	e8 00 00 00 00	 call	 ?_Left@?$_Tree@V?$_Tmap_traits@PAUHWND__@@UWndMoveData@@U?$less@PAUHWND__@@@std@@V?$allocator@U?$pair@QAUHWND__@@UWndMoveData@@@std@@@4@$0A@@std@@@std@@KAAAPAU_Node@?$_Tree_nod@V?$_Tmap_traits@PAUHWND__@@UWndMoveData@@U?$less@PAUHWND__@@@std@@V?$allocator@U?$pair@QAUHWND__@@UWndMoveData@@@std@@@4@$0A@@std@@@2@PAU342@@Z ; std::_Tree<std::_Tmap_traits<HWND__ *,WndMoveData,std::less<HWND__ *>,std::allocator<std::pair<HWND__ * const,WndMoveData> >,0> >::_Left
  0032e	83 c4 04	 add	 esp, 4
  00331	8b 08		 mov	 ecx, DWORD PTR [eax]
  00333	3b 4d f0	 cmp	 ecx, DWORD PTR __Erasednode$[ebp]
  00336	75 1e		 jne	 SHORT $L199249

; 653  : 				_Left(_Parent(_Erasednode)) = _Pnode;	// link down to left

  00338	8b 55 f0	 mov	 edx, DWORD PTR __Erasednode$[ebp]
  0033b	52		 push	 edx
  0033c	e8 00 00 00 00	 call	 ?_Parent@?$_Tree@V?$_Tmap_traits@PAUHWND__@@UWndMoveData@@U?$less@PAUHWND__@@@std@@V?$allocator@U?$pair@QAUHWND__@@UWndMoveData@@@std@@@4@$0A@@std@@@std@@KAAAPAU_Node@?$_Tree_nod@V?$_Tmap_traits@PAUHWND__@@UWndMoveData@@U?$less@PAUHWND__@@@std@@V?$allocator@U?$pair@QAUHWND__@@UWndMoveData@@@std@@@4@$0A@@std@@@2@PAU342@@Z ; std::_Tree<std::_Tmap_traits<HWND__ *,WndMoveData,std::less<HWND__ *>,std::allocator<std::pair<HWND__ * const,WndMoveData> >,0> >::_Parent
  00341	83 c4 04	 add	 esp, 4
  00344	8b 00		 mov	 eax, DWORD PTR [eax]
  00346	50		 push	 eax
  00347	e8 00 00 00 00	 call	 ?_Left@?$_Tree@V?$_Tmap_traits@PAUHWND__@@UWndMoveData@@U?$less@PAUHWND__@@@std@@V?$allocator@U?$pair@QAUHWND__@@UWndMoveData@@@std@@@4@$0A@@std@@@std@@KAAAPAU_Node@?$_Tree_nod@V?$_Tmap_traits@PAUHWND__@@UWndMoveData@@U?$less@PAUHWND__@@@std@@V?$allocator@U?$pair@QAUHWND__@@UWndMoveData@@@std@@@4@$0A@@std@@@2@PAU342@@Z ; std::_Tree<std::_Tmap_traits<HWND__ *,WndMoveData,std::less<HWND__ *>,std::allocator<std::pair<HWND__ * const,WndMoveData> >,0> >::_Left
  0034c	83 c4 04	 add	 esp, 4
  0034f	8b 4d e8	 mov	 ecx, DWORD PTR __Pnode$[ebp]
  00352	89 08		 mov	 DWORD PTR [eax], ecx

; 654  : 			else

  00354	eb 1c		 jmp	 SHORT $L199248
$L199249:

; 655  : 				_Right(_Parent(_Erasednode)) = _Pnode;	// link down to right

  00356	8b 55 f0	 mov	 edx, DWORD PTR __Erasednode$[ebp]
  00359	52		 push	 edx
  0035a	e8 00 00 00 00	 call	 ?_Parent@?$_Tree@V?$_Tmap_traits@PAUHWND__@@UWndMoveData@@U?$less@PAUHWND__@@@std@@V?$allocator@U?$pair@QAUHWND__@@UWndMoveData@@@std@@@4@$0A@@std@@@std@@KAAAPAU_Node@?$_Tree_nod@V?$_Tmap_traits@PAUHWND__@@UWndMoveData@@U?$less@PAUHWND__@@@std@@V?$allocator@U?$pair@QAUHWND__@@UWndMoveData@@@std@@@4@$0A@@std@@@2@PAU342@@Z ; std::_Tree<std::_Tmap_traits<HWND__ *,WndMoveData,std::less<HWND__ *>,std::allocator<std::pair<HWND__ * const,WndMoveData> >,0> >::_Parent
  0035f	83 c4 04	 add	 esp, 4
  00362	8b 00		 mov	 eax, DWORD PTR [eax]
  00364	50		 push	 eax
  00365	e8 00 00 00 00	 call	 ?_Right@?$_Tree@V?$_Tmap_traits@PAUHWND__@@UWndMoveData@@U?$less@PAUHWND__@@@std@@V?$allocator@U?$pair@QAUHWND__@@UWndMoveData@@@std@@@4@$0A@@std@@@std@@KAAAPAU_Node@?$_Tree_nod@V?$_Tmap_traits@PAUHWND__@@UWndMoveData@@U?$less@PAUHWND__@@@std@@V?$allocator@U?$pair@QAUHWND__@@UWndMoveData@@@std@@@4@$0A@@std@@@2@PAU342@@Z ; std::_Tree<std::_Tmap_traits<HWND__ *,WndMoveData,std::less<HWND__ *>,std::allocator<std::pair<HWND__ * const,WndMoveData> >,0> >::_Right
  0036a	83 c4 04	 add	 esp, 4
  0036d	8b 4d e8	 mov	 ecx, DWORD PTR __Pnode$[ebp]
  00370	89 08		 mov	 DWORD PTR [eax], ecx
$L199248:

; 656  : 
; 657  : 			_Parent(_Pnode) = _Parent(_Erasednode);	// link successor up

  00372	8b 55 f0	 mov	 edx, DWORD PTR __Erasednode$[ebp]
  00375	52		 push	 edx
  00376	e8 00 00 00 00	 call	 ?_Parent@?$_Tree@V?$_Tmap_traits@PAUHWND__@@UWndMoveData@@U?$less@PAUHWND__@@@std@@V?$allocator@U?$pair@QAUHWND__@@UWndMoveData@@@std@@@4@$0A@@std@@@std@@KAAAPAU_Node@?$_Tree_nod@V?$_Tmap_traits@PAUHWND__@@UWndMoveData@@U?$less@PAUHWND__@@@std@@V?$allocator@U?$pair@QAUHWND__@@UWndMoveData@@@std@@@4@$0A@@std@@@2@PAU342@@Z ; std::_Tree<std::_Tmap_traits<HWND__ *,WndMoveData,std::less<HWND__ *>,std::allocator<std::pair<HWND__ * const,WndMoveData> >,0> >::_Parent
  0037b	83 c4 04	 add	 esp, 4
  0037e	8b f0		 mov	 esi, eax
  00380	8b 45 e8	 mov	 eax, DWORD PTR __Pnode$[ebp]
  00383	50		 push	 eax
  00384	e8 00 00 00 00	 call	 ?_Parent@?$_Tree@V?$_Tmap_traits@PAUHWND__@@UWndMoveData@@U?$less@PAUHWND__@@@std@@V?$allocator@U?$pair@QAUHWND__@@UWndMoveData@@@std@@@4@$0A@@std@@@std@@KAAAPAU_Node@?$_Tree_nod@V?$_Tmap_traits@PAUHWND__@@UWndMoveData@@U?$less@PAUHWND__@@@std@@V?$allocator@U?$pair@QAUHWND__@@UWndMoveData@@@std@@@4@$0A@@std@@@2@PAU342@@Z ; std::_Tree<std::_Tmap_traits<HWND__ *,WndMoveData,std::less<HWND__ *>,std::allocator<std::pair<HWND__ * const,WndMoveData> >,0> >::_Parent
  00389	83 c4 04	 add	 esp, 4
  0038c	8b 0e		 mov	 ecx, DWORD PTR [esi]
  0038e	89 08		 mov	 DWORD PTR [eax], ecx

; 658  : 			std::swap(_Color(_Pnode), _Color(_Erasednode));	// recolor it

  00390	8b 55 f0	 mov	 edx, DWORD PTR __Erasednode$[ebp]
  00393	52		 push	 edx
  00394	e8 00 00 00 00	 call	 ?_Color@?$_Tree@V?$_Tmap_traits@PAUHWND__@@UWndMoveData@@U?$less@PAUHWND__@@@std@@V?$allocator@U?$pair@QAUHWND__@@UWndMoveData@@@std@@@4@$0A@@std@@@std@@KAAADPAU_Node@?$_Tree_nod@V?$_Tmap_traits@PAUHWND__@@UWndMoveData@@U?$less@PAUHWND__@@@std@@V?$allocator@U?$pair@QAUHWND__@@UWndMoveData@@@std@@@4@$0A@@std@@@2@@Z ; std::_Tree<std::_Tmap_traits<HWND__ *,WndMoveData,std::less<HWND__ *>,std::allocator<std::pair<HWND__ * const,WndMoveData> >,0> >::_Color
  00399	83 c4 04	 add	 esp, 4
  0039c	50		 push	 eax
  0039d	8b 45 e8	 mov	 eax, DWORD PTR __Pnode$[ebp]
  003a0	50		 push	 eax
  003a1	e8 00 00 00 00	 call	 ?_Color@?$_Tree@V?$_Tmap_traits@PAUHWND__@@UWndMoveData@@U?$less@PAUHWND__@@@std@@V?$allocator@U?$pair@QAUHWND__@@UWndMoveData@@@std@@@4@$0A@@std@@@std@@KAAADPAU_Node@?$_Tree_nod@V?$_Tmap_traits@PAUHWND__@@UWndMoveData@@U?$less@PAUHWND__@@@std@@V?$allocator@U?$pair@QAUHWND__@@UWndMoveData@@@std@@@4@$0A@@std@@@2@@Z ; std::_Tree<std::_Tmap_traits<HWND__ *,WndMoveData,std::less<HWND__ *>,std::allocator<std::pair<HWND__ * const,WndMoveData> >,0> >::_Color
  003a6	83 c4 04	 add	 esp, 4
  003a9	50		 push	 eax
  003aa	e8 00 00 00 00	 call	 ??$swap@D@std@@YAXAAD0@Z ; std::swap<char>
  003af	83 c4 08	 add	 esp, 8
$L199243:

; 659  : 			}
; 660  : 
; 661  : 		if (_Color(_Erasednode) == _Black)

  003b2	8b 4d f0	 mov	 ecx, DWORD PTR __Erasednode$[ebp]
  003b5	51		 push	 ecx
  003b6	e8 00 00 00 00	 call	 ?_Color@?$_Tree@V?$_Tmap_traits@PAUHWND__@@UWndMoveData@@U?$less@PAUHWND__@@@std@@V?$allocator@U?$pair@QAUHWND__@@UWndMoveData@@@std@@@4@$0A@@std@@@std@@KAAADPAU_Node@?$_Tree_nod@V?$_Tmap_traits@PAUHWND__@@UWndMoveData@@U?$less@PAUHWND__@@@std@@V?$allocator@U?$pair@QAUHWND__@@UWndMoveData@@@std@@@4@$0A@@std@@@2@@Z ; std::_Tree<std::_Tmap_traits<HWND__ *,WndMoveData,std::less<HWND__ *>,std::allocator<std::pair<HWND__ * const,WndMoveData> >,0> >::_Color
  003bb	83 c4 04	 add	 esp, 4
  003be	0f be 10	 movsx	 edx, BYTE PTR [eax]
  003c1	83 fa 01	 cmp	 edx, 1
  003c4	0f 85 8f 03 00
	00		 jne	 $L199251

; 662  : 			{	// erasing black link, must recolor/rebalance tree
; 663  : 			for (; _Fixnode != _Root() && _Color(_Fixnode) == _Black;
; 664  : 				_Fixnodeparent = _Parent(_Fixnode))

  003ca	eb 11		 jmp	 SHORT $L199252
$L199253:
  003cc	8b 45 ec	 mov	 eax, DWORD PTR __Fixnode$[ebp]
  003cf	50		 push	 eax
  003d0	e8 00 00 00 00	 call	 ?_Parent@?$_Tree@V?$_Tmap_traits@PAUHWND__@@UWndMoveData@@U?$less@PAUHWND__@@@std@@V?$allocator@U?$pair@QAUHWND__@@UWndMoveData@@@std@@@4@$0A@@std@@@std@@KAAAPAU_Node@?$_Tree_nod@V?$_Tmap_traits@PAUHWND__@@UWndMoveData@@U?$less@PAUHWND__@@@std@@V?$allocator@U?$pair@QAUHWND__@@UWndMoveData@@@std@@@4@$0A@@std@@@2@PAU342@@Z ; std::_Tree<std::_Tmap_traits<HWND__ *,WndMoveData,std::less<HWND__ *>,std::allocator<std::pair<HWND__ * const,WndMoveData> >,0> >::_Parent
  003d5	83 c4 04	 add	 esp, 4
  003d8	8b 08		 mov	 ecx, DWORD PTR [eax]
  003da	89 4d e4	 mov	 DWORD PTR __Fixnodeparent$[ebp], ecx
$L199252:
  003dd	8b 4d 9c	 mov	 ecx, DWORD PTR _this$[ebp]
  003e0	e8 00 00 00 00	 call	 ?_Root@?$_Tree@V?$_Tmap_traits@PAUHWND__@@UWndMoveData@@U?$less@PAUHWND__@@@std@@V?$allocator@U?$pair@QAUHWND__@@UWndMoveData@@@std@@@4@$0A@@std@@@std@@IAEAAPAU_Node@?$_Tree_nod@V?$_Tmap_traits@PAUHWND__@@UWndMoveData@@U?$less@PAUHWND__@@@std@@V?$allocator@U?$pair@QAUHWND__@@UWndMoveData@@@std@@@4@$0A@@std@@@2@XZ ; std::_Tree<std::_Tmap_traits<HWND__ *,WndMoveData,std::less<HWND__ *>,std::allocator<std::pair<HWND__ * const,WndMoveData> >,0> >::_Root
  003e5	8b 55 ec	 mov	 edx, DWORD PTR __Fixnode$[ebp]
  003e8	3b 10		 cmp	 edx, DWORD PTR [eax]
  003ea	0f 84 5a 03 00
	00		 je	 $L199254
  003f0	8b 45 ec	 mov	 eax, DWORD PTR __Fixnode$[ebp]
  003f3	50		 push	 eax
  003f4	e8 00 00 00 00	 call	 ?_Color@?$_Tree@V?$_Tmap_traits@PAUHWND__@@UWndMoveData@@U?$less@PAUHWND__@@@std@@V?$allocator@U?$pair@QAUHWND__@@UWndMoveData@@@std@@@4@$0A@@std@@@std@@KAAADPAU_Node@?$_Tree_nod@V?$_Tmap_traits@PAUHWND__@@UWndMoveData@@U?$less@PAUHWND__@@@std@@V?$allocator@U?$pair@QAUHWND__@@UWndMoveData@@@std@@@4@$0A@@std@@@2@@Z ; std::_Tree<std::_Tmap_traits<HWND__ *,WndMoveData,std::less<HWND__ *>,std::allocator<std::pair<HWND__ * const,WndMoveData> >,0> >::_Color
  003f9	83 c4 04	 add	 esp, 4
  003fc	0f be 08	 movsx	 ecx, BYTE PTR [eax]
  003ff	83 f9 01	 cmp	 ecx, 1
  00402	0f 85 42 03 00
	00		 jne	 $L199254

; 665  : 				if (_Fixnode == _Left(_Fixnodeparent))

  00408	8b 55 e4	 mov	 edx, DWORD PTR __Fixnodeparent$[ebp]
  0040b	52		 push	 edx
  0040c	e8 00 00 00 00	 call	 ?_Left@?$_Tree@V?$_Tmap_traits@PAUHWND__@@UWndMoveData@@U?$less@PAUHWND__@@@std@@V?$allocator@U?$pair@QAUHWND__@@UWndMoveData@@@std@@@4@$0A@@std@@@std@@KAAAPAU_Node@?$_Tree_nod@V?$_Tmap_traits@PAUHWND__@@UWndMoveData@@U?$less@PAUHWND__@@@std@@V?$allocator@U?$pair@QAUHWND__@@UWndMoveData@@@std@@@4@$0A@@std@@@2@PAU342@@Z ; std::_Tree<std::_Tmap_traits<HWND__ *,WndMoveData,std::less<HWND__ *>,std::allocator<std::pair<HWND__ * const,WndMoveData> >,0> >::_Left
  00411	83 c4 04	 add	 esp, 4
  00414	8b 4d ec	 mov	 ecx, DWORD PTR __Fixnode$[ebp]
  00417	3b 08		 cmp	 ecx, DWORD PTR [eax]
  00419	0f 85 97 01 00
	00		 jne	 $L199255

; 666  : 					{	// fixup left subtree
; 667  : 					_Pnode = _Right(_Fixnodeparent);

  0041f	8b 55 e4	 mov	 edx, DWORD PTR __Fixnodeparent$[ebp]
  00422	52		 push	 edx
  00423	e8 00 00 00 00	 call	 ?_Right@?$_Tree@V?$_Tmap_traits@PAUHWND__@@UWndMoveData@@U?$less@PAUHWND__@@@std@@V?$allocator@U?$pair@QAUHWND__@@UWndMoveData@@@std@@@4@$0A@@std@@@std@@KAAAPAU_Node@?$_Tree_nod@V?$_Tmap_traits@PAUHWND__@@UWndMoveData@@U?$less@PAUHWND__@@@std@@V?$allocator@U?$pair@QAUHWND__@@UWndMoveData@@@std@@@4@$0A@@std@@@2@PAU342@@Z ; std::_Tree<std::_Tmap_traits<HWND__ *,WndMoveData,std::less<HWND__ *>,std::allocator<std::pair<HWND__ * const,WndMoveData> >,0> >::_Right
  00428	83 c4 04	 add	 esp, 4
  0042b	8b 00		 mov	 eax, DWORD PTR [eax]
  0042d	89 45 e8	 mov	 DWORD PTR __Pnode$[ebp], eax

; 668  : 					if (_Color(_Pnode) == _Red)

  00430	8b 4d e8	 mov	 ecx, DWORD PTR __Pnode$[ebp]
  00433	51		 push	 ecx
  00434	e8 00 00 00 00	 call	 ?_Color@?$_Tree@V?$_Tmap_traits@PAUHWND__@@UWndMoveData@@U?$less@PAUHWND__@@@std@@V?$allocator@U?$pair@QAUHWND__@@UWndMoveData@@@std@@@4@$0A@@std@@@std@@KAAADPAU_Node@?$_Tree_nod@V?$_Tmap_traits@PAUHWND__@@UWndMoveData@@U?$less@PAUHWND__@@@std@@V?$allocator@U?$pair@QAUHWND__@@UWndMoveData@@@std@@@4@$0A@@std@@@2@@Z ; std::_Tree<std::_Tmap_traits<HWND__ *,WndMoveData,std::less<HWND__ *>,std::allocator<std::pair<HWND__ * const,WndMoveData> >,0> >::_Color
  00439	83 c4 04	 add	 esp, 4
  0043c	0f be 10	 movsx	 edx, BYTE PTR [eax]
  0043f	85 d2		 test	 edx, edx
  00441	75 3b		 jne	 SHORT $L199256

; 669  : 						{	// rotate red up from right subtree
; 670  : 						_Color(_Pnode) = _Black;

  00443	8b 45 e8	 mov	 eax, DWORD PTR __Pnode$[ebp]
  00446	50		 push	 eax
  00447	e8 00 00 00 00	 call	 ?_Color@?$_Tree@V?$_Tmap_traits@PAUHWND__@@UWndMoveData@@U?$less@PAUHWND__@@@std@@V?$allocator@U?$pair@QAUHWND__@@UWndMoveData@@@std@@@4@$0A@@std@@@std@@KAAADPAU_Node@?$_Tree_nod@V?$_Tmap_traits@PAUHWND__@@UWndMoveData@@U?$less@PAUHWND__@@@std@@V?$allocator@U?$pair@QAUHWND__@@UWndMoveData@@@std@@@4@$0A@@std@@@2@@Z ; std::_Tree<std::_Tmap_traits<HWND__ *,WndMoveData,std::less<HWND__ *>,std::allocator<std::pair<HWND__ * const,WndMoveData> >,0> >::_Color
  0044c	83 c4 04	 add	 esp, 4
  0044f	c6 00 01	 mov	 BYTE PTR [eax], 1

; 671  : 						_Color(_Fixnodeparent) = _Red;

  00452	8b 4d e4	 mov	 ecx, DWORD PTR __Fixnodeparent$[ebp]
  00455	51		 push	 ecx
  00456	e8 00 00 00 00	 call	 ?_Color@?$_Tree@V?$_Tmap_traits@PAUHWND__@@UWndMoveData@@U?$less@PAUHWND__@@@std@@V?$allocator@U?$pair@QAUHWND__@@UWndMoveData@@@std@@@4@$0A@@std@@@std@@KAAADPAU_Node@?$_Tree_nod@V?$_Tmap_traits@PAUHWND__@@UWndMoveData@@U?$less@PAUHWND__@@@std@@V?$allocator@U?$pair@QAUHWND__@@UWndMoveData@@@std@@@4@$0A@@std@@@2@@Z ; std::_Tree<std::_Tmap_traits<HWND__ *,WndMoveData,std::less<HWND__ *>,std::allocator<std::pair<HWND__ * const,WndMoveData> >,0> >::_Color
  0045b	83 c4 04	 add	 esp, 4
  0045e	c6 00 00	 mov	 BYTE PTR [eax], 0

; 672  : 						_Lrotate(_Fixnodeparent);

  00461	8b 55 e4	 mov	 edx, DWORD PTR __Fixnodeparent$[ebp]
  00464	52		 push	 edx
  00465	8b 4d 9c	 mov	 ecx, DWORD PTR _this$[ebp]
  00468	e8 00 00 00 00	 call	 ?_Lrotate@?$_Tree@V?$_Tmap_traits@PAUHWND__@@UWndMoveData@@U?$less@PAUHWND__@@@std@@V?$allocator@U?$pair@QAUHWND__@@UWndMoveData@@@std@@@4@$0A@@std@@@std@@IAEXPAU_Node@?$_Tree_nod@V?$_Tmap_traits@PAUHWND__@@UWndMoveData@@U?$less@PAUHWND__@@@std@@V?$allocator@U?$pair@QAUHWND__@@UWndMoveData@@@std@@@4@$0A@@std@@@2@@Z ; std::_Tree<std::_Tmap_traits<HWND__ *,WndMoveData,std::less<HWND__ *>,std::allocator<std::pair<HWND__ * const,WndMoveData> >,0> >::_Lrotate

; 673  : 						_Pnode = _Right(_Fixnodeparent);

  0046d	8b 45 e4	 mov	 eax, DWORD PTR __Fixnodeparent$[ebp]
  00470	50		 push	 eax
  00471	e8 00 00 00 00	 call	 ?_Right@?$_Tree@V?$_Tmap_traits@PAUHWND__@@UWndMoveData@@U?$less@PAUHWND__@@@std@@V?$allocator@U?$pair@QAUHWND__@@UWndMoveData@@@std@@@4@$0A@@std@@@std@@KAAAPAU_Node@?$_Tree_nod@V?$_Tmap_traits@PAUHWND__@@UWndMoveData@@U?$less@PAUHWND__@@@std@@V?$allocator@U?$pair@QAUHWND__@@UWndMoveData@@@std@@@4@$0A@@std@@@2@PAU342@@Z ; std::_Tree<std::_Tmap_traits<HWND__ *,WndMoveData,std::less<HWND__ *>,std::allocator<std::pair<HWND__ * const,WndMoveData> >,0> >::_Right
  00476	83 c4 04	 add	 esp, 4
  00479	8b 08		 mov	 ecx, DWORD PTR [eax]
  0047b	89 4d e8	 mov	 DWORD PTR __Pnode$[ebp], ecx
$L199256:

; 674  : 						}
; 675  : 
; 676  : 					if (_Isnil(_Pnode))

  0047e	8b 55 e8	 mov	 edx, DWORD PTR __Pnode$[ebp]
  00481	52		 push	 edx
  00482	e8 00 00 00 00	 call	 ?_Isnil@?$_Tree@V?$_Tmap_traits@PAUHWND__@@UWndMoveData@@U?$less@PAUHWND__@@@std@@V?$allocator@U?$pair@QAUHWND__@@UWndMoveData@@@std@@@4@$0A@@std@@@std@@KAAADPAU_Node@?$_Tree_nod@V?$_Tmap_traits@PAUHWND__@@UWndMoveData@@U?$less@PAUHWND__@@@std@@V?$allocator@U?$pair@QAUHWND__@@UWndMoveData@@@std@@@4@$0A@@std@@@2@@Z ; std::_Tree<std::_Tmap_traits<HWND__ *,WndMoveData,std::less<HWND__ *>,std::allocator<std::pair<HWND__ * const,WndMoveData> >,0> >::_Isnil
  00487	83 c4 04	 add	 esp, 4
  0048a	0f be 00	 movsx	 eax, BYTE PTR [eax]
  0048d	85 c0		 test	 eax, eax
  0048f	74 0b		 je	 SHORT $L199257

; 677  : 						_Fixnode = _Fixnodeparent;	// shouldn't happen

  00491	8b 4d e4	 mov	 ecx, DWORD PTR __Fixnodeparent$[ebp]
  00494	89 4d ec	 mov	 DWORD PTR __Fixnode$[ebp], ecx

; 678  : 					else if (_Color(_Left(_Pnode)) == _Black

  00497	e9 15 01 00 00	 jmp	 $L199258
$L199257:

; 679  : 						&& _Color(_Right(_Pnode)) == _Black)

  0049c	8b 55 e8	 mov	 edx, DWORD PTR __Pnode$[ebp]
  0049f	52		 push	 edx
  004a0	e8 00 00 00 00	 call	 ?_Left@?$_Tree@V?$_Tmap_traits@PAUHWND__@@UWndMoveData@@U?$less@PAUHWND__@@@std@@V?$allocator@U?$pair@QAUHWND__@@UWndMoveData@@@std@@@4@$0A@@std@@@std@@KAAAPAU_Node@?$_Tree_nod@V?$_Tmap_traits@PAUHWND__@@UWndMoveData@@U?$less@PAUHWND__@@@std@@V?$allocator@U?$pair@QAUHWND__@@UWndMoveData@@@std@@@4@$0A@@std@@@2@PAU342@@Z ; std::_Tree<std::_Tmap_traits<HWND__ *,WndMoveData,std::less<HWND__ *>,std::allocator<std::pair<HWND__ * const,WndMoveData> >,0> >::_Left
  004a5	83 c4 04	 add	 esp, 4
  004a8	8b 00		 mov	 eax, DWORD PTR [eax]
  004aa	50		 push	 eax
  004ab	e8 00 00 00 00	 call	 ?_Color@?$_Tree@V?$_Tmap_traits@PAUHWND__@@UWndMoveData@@U?$less@PAUHWND__@@@std@@V?$allocator@U?$pair@QAUHWND__@@UWndMoveData@@@std@@@4@$0A@@std@@@std@@KAAADPAU_Node@?$_Tree_nod@V?$_Tmap_traits@PAUHWND__@@UWndMoveData@@U?$less@PAUHWND__@@@std@@V?$allocator@U?$pair@QAUHWND__@@UWndMoveData@@@std@@@4@$0A@@std@@@2@@Z ; std::_Tree<std::_Tmap_traits<HWND__ *,WndMoveData,std::less<HWND__ *>,std::allocator<std::pair<HWND__ * const,WndMoveData> >,0> >::_Color
  004b0	83 c4 04	 add	 esp, 4
  004b3	0f be 08	 movsx	 ecx, BYTE PTR [eax]
  004b6	83 f9 01	 cmp	 ecx, 1
  004b9	75 39		 jne	 SHORT $L199259
  004bb	8b 55 e8	 mov	 edx, DWORD PTR __Pnode$[ebp]
  004be	52		 push	 edx
  004bf	e8 00 00 00 00	 call	 ?_Right@?$_Tree@V?$_Tmap_traits@PAUHWND__@@UWndMoveData@@U?$less@PAUHWND__@@@std@@V?$allocator@U?$pair@QAUHWND__@@UWndMoveData@@@std@@@4@$0A@@std@@@std@@KAAAPAU_Node@?$_Tree_nod@V?$_Tmap_traits@PAUHWND__@@UWndMoveData@@U?$less@PAUHWND__@@@std@@V?$allocator@U?$pair@QAUHWND__@@UWndMoveData@@@std@@@4@$0A@@std@@@2@PAU342@@Z ; std::_Tree<std::_Tmap_traits<HWND__ *,WndMoveData,std::less<HWND__ *>,std::allocator<std::pair<HWND__ * const,WndMoveData> >,0> >::_Right
  004c4	83 c4 04	 add	 esp, 4
  004c7	8b 00		 mov	 eax, DWORD PTR [eax]
  004c9	50		 push	 eax
  004ca	e8 00 00 00 00	 call	 ?_Color@?$_Tree@V?$_Tmap_traits@PAUHWND__@@UWndMoveData@@U?$less@PAUHWND__@@@std@@V?$allocator@U?$pair@QAUHWND__@@UWndMoveData@@@std@@@4@$0A@@std@@@std@@KAAADPAU_Node@?$_Tree_nod@V?$_Tmap_traits@PAUHWND__@@UWndMoveData@@U?$less@PAUHWND__@@@std@@V?$allocator@U?$pair@QAUHWND__@@UWndMoveData@@@std@@@4@$0A@@std@@@2@@Z ; std::_Tree<std::_Tmap_traits<HWND__ *,WndMoveData,std::less<HWND__ *>,std::allocator<std::pair<HWND__ * const,WndMoveData> >,0> >::_Color
  004cf	83 c4 04	 add	 esp, 4
  004d2	0f be 08	 movsx	 ecx, BYTE PTR [eax]
  004d5	83 f9 01	 cmp	 ecx, 1
  004d8	75 1a		 jne	 SHORT $L199259

; 680  : 						{	// redden right subtree with black children
; 681  : 						_Color(_Pnode) = _Red;

  004da	8b 55 e8	 mov	 edx, DWORD PTR __Pnode$[ebp]
  004dd	52		 push	 edx
  004de	e8 00 00 00 00	 call	 ?_Color@?$_Tree@V?$_Tmap_traits@PAUHWND__@@UWndMoveData@@U?$less@PAUHWND__@@@std@@V?$allocator@U?$pair@QAUHWND__@@UWndMoveData@@@std@@@4@$0A@@std@@@std@@KAAADPAU_Node@?$_Tree_nod@V?$_Tmap_traits@PAUHWND__@@UWndMoveData@@U?$less@PAUHWND__@@@std@@V?$allocator@U?$pair@QAUHWND__@@UWndMoveData@@@std@@@4@$0A@@std@@@2@@Z ; std::_Tree<std::_Tmap_traits<HWND__ *,WndMoveData,std::less<HWND__ *>,std::allocator<std::pair<HWND__ * const,WndMoveData> >,0> >::_Color
  004e3	83 c4 04	 add	 esp, 4
  004e6	c6 00 00	 mov	 BYTE PTR [eax], 0

; 682  : 						_Fixnode = _Fixnodeparent;

  004e9	8b 45 e4	 mov	 eax, DWORD PTR __Fixnodeparent$[ebp]
  004ec	89 45 ec	 mov	 DWORD PTR __Fixnode$[ebp], eax

; 683  : 						}
; 684  : 					else

  004ef	e9 bd 00 00 00	 jmp	 $L199258
$L199259:

; 685  : 						{	// must rearrange right subtree
; 686  : 						if (_Color(_Right(_Pnode)) == _Black)

  004f4	8b 4d e8	 mov	 ecx, DWORD PTR __Pnode$[ebp]
  004f7	51		 push	 ecx
  004f8	e8 00 00 00 00	 call	 ?_Right@?$_Tree@V?$_Tmap_traits@PAUHWND__@@UWndMoveData@@U?$less@PAUHWND__@@@std@@V?$allocator@U?$pair@QAUHWND__@@UWndMoveData@@@std@@@4@$0A@@std@@@std@@KAAAPAU_Node@?$_Tree_nod@V?$_Tmap_traits@PAUHWND__@@UWndMoveData@@U?$less@PAUHWND__@@@std@@V?$allocator@U?$pair@QAUHWND__@@UWndMoveData@@@std@@@4@$0A@@std@@@2@PAU342@@Z ; std::_Tree<std::_Tmap_traits<HWND__ *,WndMoveData,std::less<HWND__ *>,std::allocator<std::pair<HWND__ * const,WndMoveData> >,0> >::_Right
  004fd	83 c4 04	 add	 esp, 4
  00500	8b 10		 mov	 edx, DWORD PTR [eax]
  00502	52		 push	 edx
  00503	e8 00 00 00 00	 call	 ?_Color@?$_Tree@V?$_Tmap_traits@PAUHWND__@@UWndMoveData@@U?$less@PAUHWND__@@@std@@V?$allocator@U?$pair@QAUHWND__@@UWndMoveData@@@std@@@4@$0A@@std@@@std@@KAAADPAU_Node@?$_Tree_nod@V?$_Tmap_traits@PAUHWND__@@UWndMoveData@@U?$less@PAUHWND__@@@std@@V?$allocator@U?$pair@QAUHWND__@@UWndMoveData@@@std@@@4@$0A@@std@@@2@@Z ; std::_Tree<std::_Tmap_traits<HWND__ *,WndMoveData,std::less<HWND__ *>,std::allocator<std::pair<HWND__ * const,WndMoveData> >,0> >::_Color
  00508	83 c4 04	 add	 esp, 4
  0050b	0f be 00	 movsx	 eax, BYTE PTR [eax]
  0050e	83 f8 01	 cmp	 eax, 1
  00511	75 46		 jne	 SHORT $L199261

; 687  : 							{	// rotate red up from left sub-subtree
; 688  : 							_Color(_Left(_Pnode)) = _Black;

  00513	8b 4d e8	 mov	 ecx, DWORD PTR __Pnode$[ebp]
  00516	51		 push	 ecx
  00517	e8 00 00 00 00	 call	 ?_Left@?$_Tree@V?$_Tmap_traits@PAUHWND__@@UWndMoveData@@U?$less@PAUHWND__@@@std@@V?$allocator@U?$pair@QAUHWND__@@UWndMoveData@@@std@@@4@$0A@@std@@@std@@KAAAPAU_Node@?$_Tree_nod@V?$_Tmap_traits@PAUHWND__@@UWndMoveData@@U?$less@PAUHWND__@@@std@@V?$allocator@U?$pair@QAUHWND__@@UWndMoveData@@@std@@@4@$0A@@std@@@2@PAU342@@Z ; std::_Tree<std::_Tmap_traits<HWND__ *,WndMoveData,std::less<HWND__ *>,std::allocator<std::pair<HWND__ * const,WndMoveData> >,0> >::_Left
  0051c	83 c4 04	 add	 esp, 4
  0051f	8b 10		 mov	 edx, DWORD PTR [eax]
  00521	52		 push	 edx
  00522	e8 00 00 00 00	 call	 ?_Color@?$_Tree@V?$_Tmap_traits@PAUHWND__@@UWndMoveData@@U?$less@PAUHWND__@@@std@@V?$allocator@U?$pair@QAUHWND__@@UWndMoveData@@@std@@@4@$0A@@std@@@std@@KAAADPAU_Node@?$_Tree_nod@V?$_Tmap_traits@PAUHWND__@@UWndMoveData@@U?$less@PAUHWND__@@@std@@V?$allocator@U?$pair@QAUHWND__@@UWndMoveData@@@std@@@4@$0A@@std@@@2@@Z ; std::_Tree<std::_Tmap_traits<HWND__ *,WndMoveData,std::less<HWND__ *>,std::allocator<std::pair<HWND__ * const,WndMoveData> >,0> >::_Color
  00527	83 c4 04	 add	 esp, 4
  0052a	c6 00 01	 mov	 BYTE PTR [eax], 1

; 689  : 							_Color(_Pnode) = _Red;

  0052d	8b 45 e8	 mov	 eax, DWORD PTR __Pnode$[ebp]
  00530	50		 push	 eax
  00531	e8 00 00 00 00	 call	 ?_Color@?$_Tree@V?$_Tmap_traits@PAUHWND__@@UWndMoveData@@U?$less@PAUHWND__@@@std@@V?$allocator@U?$pair@QAUHWND__@@UWndMoveData@@@std@@@4@$0A@@std@@@std@@KAAADPAU_Node@?$_Tree_nod@V?$_Tmap_traits@PAUHWND__@@UWndMoveData@@U?$less@PAUHWND__@@@std@@V?$allocator@U?$pair@QAUHWND__@@UWndMoveData@@@std@@@4@$0A@@std@@@2@@Z ; std::_Tree<std::_Tmap_traits<HWND__ *,WndMoveData,std::less<HWND__ *>,std::allocator<std::pair<HWND__ * const,WndMoveData> >,0> >::_Color
  00536	83 c4 04	 add	 esp, 4
  00539	c6 00 00	 mov	 BYTE PTR [eax], 0

; 690  : 							_Rrotate(_Pnode);

  0053c	8b 4d e8	 mov	 ecx, DWORD PTR __Pnode$[ebp]
  0053f	51		 push	 ecx
  00540	8b 4d 9c	 mov	 ecx, DWORD PTR _this$[ebp]
  00543	e8 00 00 00 00	 call	 ?_Rrotate@?$_Tree@V?$_Tmap_traits@PAUHWND__@@UWndMoveData@@U?$less@PAUHWND__@@@std@@V?$allocator@U?$pair@QAUHWND__@@UWndMoveData@@@std@@@4@$0A@@std@@@std@@IAEXPAU_Node@?$_Tree_nod@V?$_Tmap_traits@PAUHWND__@@UWndMoveData@@U?$less@PAUHWND__@@@std@@V?$allocator@U?$pair@QAUHWND__@@UWndMoveData@@@std@@@4@$0A@@std@@@2@@Z ; std::_Tree<std::_Tmap_traits<HWND__ *,WndMoveData,std::less<HWND__ *>,std::allocator<std::pair<HWND__ * const,WndMoveData> >,0> >::_Rrotate

; 691  : 							_Pnode = _Right(_Fixnodeparent);

  00548	8b 55 e4	 mov	 edx, DWORD PTR __Fixnodeparent$[ebp]
  0054b	52		 push	 edx
  0054c	e8 00 00 00 00	 call	 ?_Right@?$_Tree@V?$_Tmap_traits@PAUHWND__@@UWndMoveData@@U?$less@PAUHWND__@@@std@@V?$allocator@U?$pair@QAUHWND__@@UWndMoveData@@@std@@@4@$0A@@std@@@std@@KAAAPAU_Node@?$_Tree_nod@V?$_Tmap_traits@PAUHWND__@@UWndMoveData@@U?$less@PAUHWND__@@@std@@V?$allocator@U?$pair@QAUHWND__@@UWndMoveData@@@std@@@4@$0A@@std@@@2@PAU342@@Z ; std::_Tree<std::_Tmap_traits<HWND__ *,WndMoveData,std::less<HWND__ *>,std::allocator<std::pair<HWND__ * const,WndMoveData> >,0> >::_Right
  00551	83 c4 04	 add	 esp, 4
  00554	8b 00		 mov	 eax, DWORD PTR [eax]
  00556	89 45 e8	 mov	 DWORD PTR __Pnode$[ebp], eax
$L199261:

; 692  : 							}
; 693  : 
; 694  : 						_Color(_Pnode) = _Color(_Fixnodeparent);

  00559	8b 4d e4	 mov	 ecx, DWORD PTR __Fixnodeparent$[ebp]
  0055c	51		 push	 ecx
  0055d	e8 00 00 00 00	 call	 ?_Color@?$_Tree@V?$_Tmap_traits@PAUHWND__@@UWndMoveData@@U?$less@PAUHWND__@@@std@@V?$allocator@U?$pair@QAUHWND__@@UWndMoveData@@@std@@@4@$0A@@std@@@std@@KAAADPAU_Node@?$_Tree_nod@V?$_Tmap_traits@PAUHWND__@@UWndMoveData@@U?$less@PAUHWND__@@@std@@V?$allocator@U?$pair@QAUHWND__@@UWndMoveData@@@std@@@4@$0A@@std@@@2@@Z ; std::_Tree<std::_Tmap_traits<HWND__ *,WndMoveData,std::less<HWND__ *>,std::allocator<std::pair<HWND__ * const,WndMoveData> >,0> >::_Color
  00562	83 c4 04	 add	 esp, 4
  00565	8b f0		 mov	 esi, eax
  00567	8b 55 e8	 mov	 edx, DWORD PTR __Pnode$[ebp]
  0056a	52		 push	 edx
  0056b	e8 00 00 00 00	 call	 ?_Color@?$_Tree@V?$_Tmap_traits@PAUHWND__@@UWndMoveData@@U?$less@PAUHWND__@@@std@@V?$allocator@U?$pair@QAUHWND__@@UWndMoveData@@@std@@@4@$0A@@std@@@std@@KAAADPAU_Node@?$_Tree_nod@V?$_Tmap_traits@PAUHWND__@@UWndMoveData@@U?$less@PAUHWND__@@@std@@V?$allocator@U?$pair@QAUHWND__@@UWndMoveData@@@std@@@4@$0A@@std@@@2@@Z ; std::_Tree<std::_Tmap_traits<HWND__ *,WndMoveData,std::less<HWND__ *>,std::allocator<std::pair<HWND__ * const,WndMoveData> >,0> >::_Color
  00570	83 c4 04	 add	 esp, 4
  00573	8a 0e		 mov	 cl, BYTE PTR [esi]
  00575	88 08		 mov	 BYTE PTR [eax], cl

; 695  : 						_Color(_Fixnodeparent) = _Black;

  00577	8b 55 e4	 mov	 edx, DWORD PTR __Fixnodeparent$[ebp]
  0057a	52		 push	 edx
  0057b	e8 00 00 00 00	 call	 ?_Color@?$_Tree@V?$_Tmap_traits@PAUHWND__@@UWndMoveData@@U?$less@PAUHWND__@@@std@@V?$allocator@U?$pair@QAUHWND__@@UWndMoveData@@@std@@@4@$0A@@std@@@std@@KAAADPAU_Node@?$_Tree_nod@V?$_Tmap_traits@PAUHWND__@@UWndMoveData@@U?$less@PAUHWND__@@@std@@V?$allocator@U?$pair@QAUHWND__@@UWndMoveData@@@std@@@4@$0A@@std@@@2@@Z ; std::_Tree<std::_Tmap_traits<HWND__ *,WndMoveData,std::less<HWND__ *>,std::allocator<std::pair<HWND__ * const,WndMoveData> >,0> >::_Color
  00580	83 c4 04	 add	 esp, 4
  00583	c6 00 01	 mov	 BYTE PTR [eax], 1

; 696  : 						_Color(_Right(_Pnode)) = _Black;

  00586	8b 45 e8	 mov	 eax, DWORD PTR __Pnode$[ebp]
  00589	50		 push	 eax
  0058a	e8 00 00 00 00	 call	 ?_Right@?$_Tree@V?$_Tmap_traits@PAUHWND__@@UWndMoveData@@U?$less@PAUHWND__@@@std@@V?$allocator@U?$pair@QAUHWND__@@UWndMoveData@@@std@@@4@$0A@@std@@@std@@KAAAPAU_Node@?$_Tree_nod@V?$_Tmap_traits@PAUHWND__@@UWndMoveData@@U?$less@PAUHWND__@@@std@@V?$allocator@U?$pair@QAUHWND__@@UWndMoveData@@@std@@@4@$0A@@std@@@2@PAU342@@Z ; std::_Tree<std::_Tmap_traits<HWND__ *,WndMoveData,std::less<HWND__ *>,std::allocator<std::pair<HWND__ * const,WndMoveData> >,0> >::_Right
  0058f	83 c4 04	 add	 esp, 4
  00592	8b 08		 mov	 ecx, DWORD PTR [eax]
  00594	51		 push	 ecx
  00595	e8 00 00 00 00	 call	 ?_Color@?$_Tree@V?$_Tmap_traits@PAUHWND__@@UWndMoveData@@U?$less@PAUHWND__@@@std@@V?$allocator@U?$pair@QAUHWND__@@UWndMoveData@@@std@@@4@$0A@@std@@@std@@KAAADPAU_Node@?$_Tree_nod@V?$_Tmap_traits@PAUHWND__@@UWndMoveData@@U?$less@PAUHWND__@@@std@@V?$allocator@U?$pair@QAUHWND__@@UWndMoveData@@@std@@@4@$0A@@std@@@2@@Z ; std::_Tree<std::_Tmap_traits<HWND__ *,WndMoveData,std::less<HWND__ *>,std::allocator<std::pair<HWND__ * const,WndMoveData> >,0> >::_Color
  0059a	83 c4 04	 add	 esp, 4
  0059d	c6 00 01	 mov	 BYTE PTR [eax], 1

; 697  : 						_Lrotate(_Fixnodeparent);

  005a0	8b 55 e4	 mov	 edx, DWORD PTR __Fixnodeparent$[ebp]
  005a3	52		 push	 edx
  005a4	8b 4d 9c	 mov	 ecx, DWORD PTR _this$[ebp]
  005a7	e8 00 00 00 00	 call	 ?_Lrotate@?$_Tree@V?$_Tmap_traits@PAUHWND__@@UWndMoveData@@U?$less@PAUHWND__@@@std@@V?$allocator@U?$pair@QAUHWND__@@UWndMoveData@@@std@@@4@$0A@@std@@@std@@IAEXPAU_Node@?$_Tree_nod@V?$_Tmap_traits@PAUHWND__@@UWndMoveData@@U?$less@PAUHWND__@@@std@@V?$allocator@U?$pair@QAUHWND__@@UWndMoveData@@@std@@@4@$0A@@std@@@2@@Z ; std::_Tree<std::_Tmap_traits<HWND__ *,WndMoveData,std::less<HWND__ *>,std::allocator<std::pair<HWND__ * const,WndMoveData> >,0> >::_Lrotate

; 698  : 						break;	// tree now recolored/rebalanced

  005ac	e9 99 01 00 00	 jmp	 $L199254
$L199258:

; 699  : 						}
; 700  : 					}
; 701  : 				else

  005b1	e9 8f 01 00 00	 jmp	 $L199262
$L199255:

; 702  : 					{	// fixup right subtree
; 703  : 					_Pnode = _Left(_Fixnodeparent);

  005b6	8b 45 e4	 mov	 eax, DWORD PTR __Fixnodeparent$[ebp]
  005b9	50		 push	 eax
  005ba	e8 00 00 00 00	 call	 ?_Left@?$_Tree@V?$_Tmap_traits@PAUHWND__@@UWndMoveData@@U?$less@PAUHWND__@@@std@@V?$allocator@U?$pair@QAUHWND__@@UWndMoveData@@@std@@@4@$0A@@std@@@std@@KAAAPAU_Node@?$_Tree_nod@V?$_Tmap_traits@PAUHWND__@@UWndMoveData@@U?$less@PAUHWND__@@@std@@V?$allocator@U?$pair@QAUHWND__@@UWndMoveData@@@std@@@4@$0A@@std@@@2@PAU342@@Z ; std::_Tree<std::_Tmap_traits<HWND__ *,WndMoveData,std::less<HWND__ *>,std::allocator<std::pair<HWND__ * const,WndMoveData> >,0> >::_Left
  005bf	83 c4 04	 add	 esp, 4
  005c2	8b 08		 mov	 ecx, DWORD PTR [eax]
  005c4	89 4d e8	 mov	 DWORD PTR __Pnode$[ebp], ecx

; 704  : 					if (_Color(_Pnode) == _Red)

  005c7	8b 55 e8	 mov	 edx, DWORD PTR __Pnode$[ebp]
  005ca	52		 push	 edx
  005cb	e8 00 00 00 00	 call	 ?_Color@?$_Tree@V?$_Tmap_traits@PAUHWND__@@UWndMoveData@@U?$less@PAUHWND__@@@std@@V?$allocator@U?$pair@QAUHWND__@@UWndMoveData@@@std@@@4@$0A@@std@@@std@@KAAADPAU_Node@?$_Tree_nod@V?$_Tmap_traits@PAUHWND__@@UWndMoveData@@U?$less@PAUHWND__@@@std@@V?$allocator@U?$pair@QAUHWND__@@UWndMoveData@@@std@@@4@$0A@@std@@@2@@Z ; std::_Tree<std::_Tmap_traits<HWND__ *,WndMoveData,std::less<HWND__ *>,std::allocator<std::pair<HWND__ * const,WndMoveData> >,0> >::_Color
  005d0	83 c4 04	 add	 esp, 4
  005d3	0f be 00	 movsx	 eax, BYTE PTR [eax]
  005d6	85 c0		 test	 eax, eax
  005d8	75 3b		 jne	 SHORT $L199263

; 705  : 						{	// rotate red up from left subtree
; 706  : 						_Color(_Pnode) = _Black;

  005da	8b 4d e8	 mov	 ecx, DWORD PTR __Pnode$[ebp]
  005dd	51		 push	 ecx
  005de	e8 00 00 00 00	 call	 ?_Color@?$_Tree@V?$_Tmap_traits@PAUHWND__@@UWndMoveData@@U?$less@PAUHWND__@@@std@@V?$allocator@U?$pair@QAUHWND__@@UWndMoveData@@@std@@@4@$0A@@std@@@std@@KAAADPAU_Node@?$_Tree_nod@V?$_Tmap_traits@PAUHWND__@@UWndMoveData@@U?$less@PAUHWND__@@@std@@V?$allocator@U?$pair@QAUHWND__@@UWndMoveData@@@std@@@4@$0A@@std@@@2@@Z ; std::_Tree<std::_Tmap_traits<HWND__ *,WndMoveData,std::less<HWND__ *>,std::allocator<std::pair<HWND__ * const,WndMoveData> >,0> >::_Color
  005e3	83 c4 04	 add	 esp, 4
  005e6	c6 00 01	 mov	 BYTE PTR [eax], 1

; 707  : 						_Color(_Fixnodeparent) = _Red;

  005e9	8b 55 e4	 mov	 edx, DWORD PTR __Fixnodeparent$[ebp]
  005ec	52		 push	 edx
  005ed	e8 00 00 00 00	 call	 ?_Color@?$_Tree@V?$_Tmap_traits@PAUHWND__@@UWndMoveData@@U?$less@PAUHWND__@@@std@@V?$allocator@U?$pair@QAUHWND__@@UWndMoveData@@@std@@@4@$0A@@std@@@std@@KAAADPAU_Node@?$_Tree_nod@V?$_Tmap_traits@PAUHWND__@@UWndMoveData@@U?$less@PAUHWND__@@@std@@V?$allocator@U?$pair@QAUHWND__@@UWndMoveData@@@std@@@4@$0A@@std@@@2@@Z ; std::_Tree<std::_Tmap_traits<HWND__ *,WndMoveData,std::less<HWND__ *>,std::allocator<std::pair<HWND__ * const,WndMoveData> >,0> >::_Color
  005f2	83 c4 04	 add	 esp, 4
  005f5	c6 00 00	 mov	 BYTE PTR [eax], 0

; 708  : 						_Rrotate(_Fixnodeparent);

  005f8	8b 45 e4	 mov	 eax, DWORD PTR __Fixnodeparent$[ebp]
  005fb	50		 push	 eax
  005fc	8b 4d 9c	 mov	 ecx, DWORD PTR _this$[ebp]
  005ff	e8 00 00 00 00	 call	 ?_Rrotate@?$_Tree@V?$_Tmap_traits@PAUHWND__@@UWndMoveData@@U?$less@PAUHWND__@@@std@@V?$allocator@U?$pair@QAUHWND__@@UWndMoveData@@@std@@@4@$0A@@std@@@std@@IAEXPAU_Node@?$_Tree_nod@V?$_Tmap_traits@PAUHWND__@@UWndMoveData@@U?$less@PAUHWND__@@@std@@V?$allocator@U?$pair@QAUHWND__@@UWndMoveData@@@std@@@4@$0A@@std@@@2@@Z ; std::_Tree<std::_Tmap_traits<HWND__ *,WndMoveData,std::less<HWND__ *>,std::allocator<std::pair<HWND__ * const,WndMoveData> >,0> >::_Rrotate

; 709  : 						_Pnode = _Left(_Fixnodeparent);

  00604	8b 4d e4	 mov	 ecx, DWORD PTR __Fixnodeparent$[ebp]
  00607	51		 push	 ecx
  00608	e8 00 00 00 00	 call	 ?_Left@?$_Tree@V?$_Tmap_traits@PAUHWND__@@UWndMoveData@@U?$less@PAUHWND__@@@std@@V?$allocator@U?$pair@QAUHWND__@@UWndMoveData@@@std@@@4@$0A@@std@@@std@@KAAAPAU_Node@?$_Tree_nod@V?$_Tmap_traits@PAUHWND__@@UWndMoveData@@U?$less@PAUHWND__@@@std@@V?$allocator@U?$pair@QAUHWND__@@UWndMoveData@@@std@@@4@$0A@@std@@@2@PAU342@@Z ; std::_Tree<std::_Tmap_traits<HWND__ *,WndMoveData,std::less<HWND__ *>,std::allocator<std::pair<HWND__ * const,WndMoveData> >,0> >::_Left
  0060d	83 c4 04	 add	 esp, 4
  00610	8b 10		 mov	 edx, DWORD PTR [eax]
  00612	89 55 e8	 mov	 DWORD PTR __Pnode$[ebp], edx
$L199263:

; 710  : 						}
; 711  : 					if (_Isnil(_Pnode))

  00615	8b 45 e8	 mov	 eax, DWORD PTR __Pnode$[ebp]
  00618	50		 push	 eax
  00619	e8 00 00 00 00	 call	 ?_Isnil@?$_Tree@V?$_Tmap_traits@PAUHWND__@@UWndMoveData@@U?$less@PAUHWND__@@@std@@V?$allocator@U?$pair@QAUHWND__@@UWndMoveData@@@std@@@4@$0A@@std@@@std@@KAAADPAU_Node@?$_Tree_nod@V?$_Tmap_traits@PAUHWND__@@UWndMoveData@@U?$less@PAUHWND__@@@std@@V?$allocator@U?$pair@QAUHWND__@@UWndMoveData@@@std@@@4@$0A@@std@@@2@@Z ; std::_Tree<std::_Tmap_traits<HWND__ *,WndMoveData,std::less<HWND__ *>,std::allocator<std::pair<HWND__ * const,WndMoveData> >,0> >::_Isnil
  0061e	83 c4 04	 add	 esp, 4
  00621	0f be 08	 movsx	 ecx, BYTE PTR [eax]
  00624	85 c9		 test	 ecx, ecx
  00626	74 0b		 je	 SHORT $L199264

; 712  : 						_Fixnode = _Fixnodeparent;	// shouldn't happen

  00628	8b 55 e4	 mov	 edx, DWORD PTR __Fixnodeparent$[ebp]
  0062b	89 55 ec	 mov	 DWORD PTR __Fixnode$[ebp], edx

; 713  : 					else if (_Color(_Right(_Pnode)) == _Black

  0062e	e9 12 01 00 00	 jmp	 $L199262
$L199264:

; 714  : 						&& _Color(_Left(_Pnode)) == _Black)

  00633	8b 45 e8	 mov	 eax, DWORD PTR __Pnode$[ebp]
  00636	50		 push	 eax
  00637	e8 00 00 00 00	 call	 ?_Right@?$_Tree@V?$_Tmap_traits@PAUHWND__@@UWndMoveData@@U?$less@PAUHWND__@@@std@@V?$allocator@U?$pair@QAUHWND__@@UWndMoveData@@@std@@@4@$0A@@std@@@std@@KAAAPAU_Node@?$_Tree_nod@V?$_Tmap_traits@PAUHWND__@@UWndMoveData@@U?$less@PAUHWND__@@@std@@V?$allocator@U?$pair@QAUHWND__@@UWndMoveData@@@std@@@4@$0A@@std@@@2@PAU342@@Z ; std::_Tree<std::_Tmap_traits<HWND__ *,WndMoveData,std::less<HWND__ *>,std::allocator<std::pair<HWND__ * const,WndMoveData> >,0> >::_Right
  0063c	83 c4 04	 add	 esp, 4
  0063f	8b 08		 mov	 ecx, DWORD PTR [eax]
  00641	51		 push	 ecx
  00642	e8 00 00 00 00	 call	 ?_Color@?$_Tree@V?$_Tmap_traits@PAUHWND__@@UWndMoveData@@U?$less@PAUHWND__@@@std@@V?$allocator@U?$pair@QAUHWND__@@UWndMoveData@@@std@@@4@$0A@@std@@@std@@KAAADPAU_Node@?$_Tree_nod@V?$_Tmap_traits@PAUHWND__@@UWndMoveData@@U?$less@PAUHWND__@@@std@@V?$allocator@U?$pair@QAUHWND__@@UWndMoveData@@@std@@@4@$0A@@std@@@2@@Z ; std::_Tree<std::_Tmap_traits<HWND__ *,WndMoveData,std::less<HWND__ *>,std::allocator<std::pair<HWND__ * const,WndMoveData> >,0> >::_Color
  00647	83 c4 04	 add	 esp, 4
  0064a	0f be 10	 movsx	 edx, BYTE PTR [eax]
  0064d	83 fa 01	 cmp	 edx, 1
  00650	75 39		 jne	 SHORT $L199266
  00652	8b 45 e8	 mov	 eax, DWORD PTR __Pnode$[ebp]
  00655	50		 push	 eax
  00656	e8 00 00 00 00	 call	 ?_Left@?$_Tree@V?$_Tmap_traits@PAUHWND__@@UWndMoveData@@U?$less@PAUHWND__@@@std@@V?$allocator@U?$pair@QAUHWND__@@UWndMoveData@@@std@@@4@$0A@@std@@@std@@KAAAPAU_Node@?$_Tree_nod@V?$_Tmap_traits@PAUHWND__@@UWndMoveData@@U?$less@PAUHWND__@@@std@@V?$allocator@U?$pair@QAUHWND__@@UWndMoveData@@@std@@@4@$0A@@std@@@2@PAU342@@Z ; std::_Tree<std::_Tmap_traits<HWND__ *,WndMoveData,std::less<HWND__ *>,std::allocator<std::pair<HWND__ * const,WndMoveData> >,0> >::_Left
  0065b	83 c4 04	 add	 esp, 4
  0065e	8b 08		 mov	 ecx, DWORD PTR [eax]
  00660	51		 push	 ecx
  00661	e8 00 00 00 00	 call	 ?_Color@?$_Tree@V?$_Tmap_traits@PAUHWND__@@UWndMoveData@@U?$less@PAUHWND__@@@std@@V?$allocator@U?$pair@QAUHWND__@@UWndMoveData@@@std@@@4@$0A@@std@@@std@@KAAADPAU_Node@?$_Tree_nod@V?$_Tmap_traits@PAUHWND__@@UWndMoveData@@U?$less@PAUHWND__@@@std@@V?$allocator@U?$pair@QAUHWND__@@UWndMoveData@@@std@@@4@$0A@@std@@@2@@Z ; std::_Tree<std::_Tmap_traits<HWND__ *,WndMoveData,std::less<HWND__ *>,std::allocator<std::pair<HWND__ * const,WndMoveData> >,0> >::_Color
  00666	83 c4 04	 add	 esp, 4
  00669	0f be 10	 movsx	 edx, BYTE PTR [eax]
  0066c	83 fa 01	 cmp	 edx, 1
  0066f	75 1a		 jne	 SHORT $L199266

; 715  : 						{	// redden left subtree with black children
; 716  : 						_Color(_Pnode) = _Red;

  00671	8b 45 e8	 mov	 eax, DWORD PTR __Pnode$[ebp]
  00674	50		 push	 eax
  00675	e8 00 00 00 00	 call	 ?_Color@?$_Tree@V?$_Tmap_traits@PAUHWND__@@UWndMoveData@@U?$less@PAUHWND__@@@std@@V?$allocator@U?$pair@QAUHWND__@@UWndMoveData@@@std@@@4@$0A@@std@@@std@@KAAADPAU_Node@?$_Tree_nod@V?$_Tmap_traits@PAUHWND__@@UWndMoveData@@U?$less@PAUHWND__@@@std@@V?$allocator@U?$pair@QAUHWND__@@UWndMoveData@@@std@@@4@$0A@@std@@@2@@Z ; std::_Tree<std::_Tmap_traits<HWND__ *,WndMoveData,std::less<HWND__ *>,std::allocator<std::pair<HWND__ * const,WndMoveData> >,0> >::_Color
  0067a	83 c4 04	 add	 esp, 4
  0067d	c6 00 00	 mov	 BYTE PTR [eax], 0

; 717  : 						_Fixnode = _Fixnodeparent;

  00680	8b 4d e4	 mov	 ecx, DWORD PTR __Fixnodeparent$[ebp]
  00683	89 4d ec	 mov	 DWORD PTR __Fixnode$[ebp], ecx

; 718  : 						}
; 719  : 					else

  00686	e9 ba 00 00 00	 jmp	 $L199262
$L199266:

; 720  : 						{	// must rearrange left subtree
; 721  : 						if (_Color(_Left(_Pnode)) == _Black)

  0068b	8b 55 e8	 mov	 edx, DWORD PTR __Pnode$[ebp]
  0068e	52		 push	 edx
  0068f	e8 00 00 00 00	 call	 ?_Left@?$_Tree@V?$_Tmap_traits@PAUHWND__@@UWndMoveData@@U?$less@PAUHWND__@@@std@@V?$allocator@U?$pair@QAUHWND__@@UWndMoveData@@@std@@@4@$0A@@std@@@std@@KAAAPAU_Node@?$_Tree_nod@V?$_Tmap_traits@PAUHWND__@@UWndMoveData@@U?$less@PAUHWND__@@@std@@V?$allocator@U?$pair@QAUHWND__@@UWndMoveData@@@std@@@4@$0A@@std@@@2@PAU342@@Z ; std::_Tree<std::_Tmap_traits<HWND__ *,WndMoveData,std::less<HWND__ *>,std::allocator<std::pair<HWND__ * const,WndMoveData> >,0> >::_Left
  00694	83 c4 04	 add	 esp, 4
  00697	8b 00		 mov	 eax, DWORD PTR [eax]
  00699	50		 push	 eax
  0069a	e8 00 00 00 00	 call	 ?_Color@?$_Tree@V?$_Tmap_traits@PAUHWND__@@UWndMoveData@@U?$less@PAUHWND__@@@std@@V?$allocator@U?$pair@QAUHWND__@@UWndMoveData@@@std@@@4@$0A@@std@@@std@@KAAADPAU_Node@?$_Tree_nod@V?$_Tmap_traits@PAUHWND__@@UWndMoveData@@U?$less@PAUHWND__@@@std@@V?$allocator@U?$pair@QAUHWND__@@UWndMoveData@@@std@@@4@$0A@@std@@@2@@Z ; std::_Tree<std::_Tmap_traits<HWND__ *,WndMoveData,std::less<HWND__ *>,std::allocator<std::pair<HWND__ * const,WndMoveData> >,0> >::_Color
  0069f	83 c4 04	 add	 esp, 4
  006a2	0f be 08	 movsx	 ecx, BYTE PTR [eax]
  006a5	83 f9 01	 cmp	 ecx, 1
  006a8	75 46		 jne	 SHORT $L199268

; 722  : 							{	// rotate red up from right sub-subtree
; 723  : 							_Color(_Right(_Pnode)) = _Black;

  006aa	8b 55 e8	 mov	 edx, DWORD PTR __Pnode$[ebp]
  006ad	52		 push	 edx
  006ae	e8 00 00 00 00	 call	 ?_Right@?$_Tree@V?$_Tmap_traits@PAUHWND__@@UWndMoveData@@U?$less@PAUHWND__@@@std@@V?$allocator@U?$pair@QAUHWND__@@UWndMoveData@@@std@@@4@$0A@@std@@@std@@KAAAPAU_Node@?$_Tree_nod@V?$_Tmap_traits@PAUHWND__@@UWndMoveData@@U?$less@PAUHWND__@@@std@@V?$allocator@U?$pair@QAUHWND__@@UWndMoveData@@@std@@@4@$0A@@std@@@2@PAU342@@Z ; std::_Tree<std::_Tmap_traits<HWND__ *,WndMoveData,std::less<HWND__ *>,std::allocator<std::pair<HWND__ * const,WndMoveData> >,0> >::_Right
  006b3	83 c4 04	 add	 esp, 4
  006b6	8b 00		 mov	 eax, DWORD PTR [eax]
  006b8	50		 push	 eax
  006b9	e8 00 00 00 00	 call	 ?_Color@?$_Tree@V?$_Tmap_traits@PAUHWND__@@UWndMoveData@@U?$less@PAUHWND__@@@std@@V?$allocator@U?$pair@QAUHWND__@@UWndMoveData@@@std@@@4@$0A@@std@@@std@@KAAADPAU_Node@?$_Tree_nod@V?$_Tmap_traits@PAUHWND__@@UWndMoveData@@U?$less@PAUHWND__@@@std@@V?$allocator@U?$pair@QAUHWND__@@UWndMoveData@@@std@@@4@$0A@@std@@@2@@Z ; std::_Tree<std::_Tmap_traits<HWND__ *,WndMoveData,std::less<HWND__ *>,std::allocator<std::pair<HWND__ * const,WndMoveData> >,0> >::_Color
  006be	83 c4 04	 add	 esp, 4
  006c1	c6 00 01	 mov	 BYTE PTR [eax], 1

; 724  : 							_Color(_Pnode) = _Red;

  006c4	8b 4d e8	 mov	 ecx, DWORD PTR __Pnode$[ebp]
  006c7	51		 push	 ecx
  006c8	e8 00 00 00 00	 call	 ?_Color@?$_Tree@V?$_Tmap_traits@PAUHWND__@@UWndMoveData@@U?$less@PAUHWND__@@@std@@V?$allocator@U?$pair@QAUHWND__@@UWndMoveData@@@std@@@4@$0A@@std@@@std@@KAAADPAU_Node@?$_Tree_nod@V?$_Tmap_traits@PAUHWND__@@UWndMoveData@@U?$less@PAUHWND__@@@std@@V?$allocator@U?$pair@QAUHWND__@@UWndMoveData@@@std@@@4@$0A@@std@@@2@@Z ; std::_Tree<std::_Tmap_traits<HWND__ *,WndMoveData,std::less<HWND__ *>,std::allocator<std::pair<HWND__ * const,WndMoveData> >,0> >::_Color
  006cd	83 c4 04	 add	 esp, 4
  006d0	c6 00 00	 mov	 BYTE PTR [eax], 0

; 725  : 							_Lrotate(_Pnode);

  006d3	8b 55 e8	 mov	 edx, DWORD PTR __Pnode$[ebp]
  006d6	52		 push	 edx
  006d7	8b 4d 9c	 mov	 ecx, DWORD PTR _this$[ebp]
  006da	e8 00 00 00 00	 call	 ?_Lrotate@?$_Tree@V?$_Tmap_traits@PAUHWND__@@UWndMoveData@@U?$less@PAUHWND__@@@std@@V?$allocator@U?$pair@QAUHWND__@@UWndMoveData@@@std@@@4@$0A@@std@@@std@@IAEXPAU_Node@?$_Tree_nod@V?$_Tmap_traits@PAUHWND__@@UWndMoveData@@U?$less@PAUHWND__@@@std@@V?$allocator@U?$pair@QAUHWND__@@UWndMoveData@@@std@@@4@$0A@@std@@@2@@Z ; std::_Tree<std::_Tmap_traits<HWND__ *,WndMoveData,std::less<HWND__ *>,std::allocator<std::pair<HWND__ * const,WndMoveData> >,0> >::_Lrotate

; 726  : 							_Pnode = _Left(_Fixnodeparent);

  006df	8b 45 e4	 mov	 eax, DWORD PTR __Fixnodeparent$[ebp]
  006e2	50		 push	 eax
  006e3	e8 00 00 00 00	 call	 ?_Left@?$_Tree@V?$_Tmap_traits@PAUHWND__@@UWndMoveData@@U?$less@PAUHWND__@@@std@@V?$allocator@U?$pair@QAUHWND__@@UWndMoveData@@@std@@@4@$0A@@std@@@std@@KAAAPAU_Node@?$_Tree_nod@V?$_Tmap_traits@PAUHWND__@@UWndMoveData@@U?$less@PAUHWND__@@@std@@V?$allocator@U?$pair@QAUHWND__@@UWndMoveData@@@std@@@4@$0A@@std@@@2@PAU342@@Z ; std::_Tree<std::_Tmap_traits<HWND__ *,WndMoveData,std::less<HWND__ *>,std::allocator<std::pair<HWND__ * const,WndMoveData> >,0> >::_Left
  006e8	83 c4 04	 add	 esp, 4
  006eb	8b 08		 mov	 ecx, DWORD PTR [eax]
  006ed	89 4d e8	 mov	 DWORD PTR __Pnode$[ebp], ecx
$L199268:

; 727  : 							}
; 728  : 
; 729  : 						_Color(_Pnode) = _Color(_Fixnodeparent);

  006f0	8b 55 e4	 mov	 edx, DWORD PTR __Fixnodeparent$[ebp]
  006f3	52		 push	 edx
  006f4	e8 00 00 00 00	 call	 ?_Color@?$_Tree@V?$_Tmap_traits@PAUHWND__@@UWndMoveData@@U?$less@PAUHWND__@@@std@@V?$allocator@U?$pair@QAUHWND__@@UWndMoveData@@@std@@@4@$0A@@std@@@std@@KAAADPAU_Node@?$_Tree_nod@V?$_Tmap_traits@PAUHWND__@@UWndMoveData@@U?$less@PAUHWND__@@@std@@V?$allocator@U?$pair@QAUHWND__@@UWndMoveData@@@std@@@4@$0A@@std@@@2@@Z ; std::_Tree<std::_Tmap_traits<HWND__ *,WndMoveData,std::less<HWND__ *>,std::allocator<std::pair<HWND__ * const,WndMoveData> >,0> >::_Color
  006f9	83 c4 04	 add	 esp, 4
  006fc	8b f0		 mov	 esi, eax
  006fe	8b 45 e8	 mov	 eax, DWORD PTR __Pnode$[ebp]
  00701	50		 push	 eax
  00702	e8 00 00 00 00	 call	 ?_Color@?$_Tree@V?$_Tmap_traits@PAUHWND__@@UWndMoveData@@U?$less@PAUHWND__@@@std@@V?$allocator@U?$pair@QAUHWND__@@UWndMoveData@@@std@@@4@$0A@@std@@@std@@KAAADPAU_Node@?$_Tree_nod@V?$_Tmap_traits@PAUHWND__@@UWndMoveData@@U?$less@PAUHWND__@@@std@@V?$allocator@U?$pair@QAUHWND__@@UWndMoveData@@@std@@@4@$0A@@std@@@2@@Z ; std::_Tree<std::_Tmap_traits<HWND__ *,WndMoveData,std::less<HWND__ *>,std::allocator<std::pair<HWND__ * const,WndMoveData> >,0> >::_Color
  00707	83 c4 04	 add	 esp, 4
  0070a	8a 0e		 mov	 cl, BYTE PTR [esi]
  0070c	88 08		 mov	 BYTE PTR [eax], cl

; 730  : 						_Color(_Fixnodeparent) = _Black;

  0070e	8b 55 e4	 mov	 edx, DWORD PTR __Fixnodeparent$[ebp]
  00711	52		 push	 edx
  00712	e8 00 00 00 00	 call	 ?_Color@?$_Tree@V?$_Tmap_traits@PAUHWND__@@UWndMoveData@@U?$less@PAUHWND__@@@std@@V?$allocator@U?$pair@QAUHWND__@@UWndMoveData@@@std@@@4@$0A@@std@@@std@@KAAADPAU_Node@?$_Tree_nod@V?$_Tmap_traits@PAUHWND__@@UWndMoveData@@U?$less@PAUHWND__@@@std@@V?$allocator@U?$pair@QAUHWND__@@UWndMoveData@@@std@@@4@$0A@@std@@@2@@Z ; std::_Tree<std::_Tmap_traits<HWND__ *,WndMoveData,std::less<HWND__ *>,std::allocator<std::pair<HWND__ * const,WndMoveData> >,0> >::_Color
  00717	83 c4 04	 add	 esp, 4
  0071a	c6 00 01	 mov	 BYTE PTR [eax], 1

; 731  : 						_Color(_Left(_Pnode)) = _Black;

  0071d	8b 45 e8	 mov	 eax, DWORD PTR __Pnode$[ebp]
  00720	50		 push	 eax
  00721	e8 00 00 00 00	 call	 ?_Left@?$_Tree@V?$_Tmap_traits@PAUHWND__@@UWndMoveData@@U?$less@PAUHWND__@@@std@@V?$allocator@U?$pair@QAUHWND__@@UWndMoveData@@@std@@@4@$0A@@std@@@std@@KAAAPAU_Node@?$_Tree_nod@V?$_Tmap_traits@PAUHWND__@@UWndMoveData@@U?$less@PAUHWND__@@@std@@V?$allocator@U?$pair@QAUHWND__@@UWndMoveData@@@std@@@4@$0A@@std@@@2@PAU342@@Z ; std::_Tree<std::_Tmap_traits<HWND__ *,WndMoveData,std::less<HWND__ *>,std::allocator<std::pair<HWND__ * const,WndMoveData> >,0> >::_Left
  00726	83 c4 04	 add	 esp, 4
  00729	8b 08		 mov	 ecx, DWORD PTR [eax]
  0072b	51		 push	 ecx
  0072c	e8 00 00 00 00	 call	 ?_Color@?$_Tree@V?$_Tmap_traits@PAUHWND__@@UWndMoveData@@U?$less@PAUHWND__@@@std@@V?$allocator@U?$pair@QAUHWND__@@UWndMoveData@@@std@@@4@$0A@@std@@@std@@KAAADPAU_Node@?$_Tree_nod@V?$_Tmap_traits@PAUHWND__@@UWndMoveData@@U?$less@PAUHWND__@@@std@@V?$allocator@U?$pair@QAUHWND__@@UWndMoveData@@@std@@@4@$0A@@std@@@2@@Z ; std::_Tree<std::_Tmap_traits<HWND__ *,WndMoveData,std::less<HWND__ *>,std::allocator<std::pair<HWND__ * const,WndMoveData> >,0> >::_Color
  00731	83 c4 04	 add	 esp, 4
  00734	c6 00 01	 mov	 BYTE PTR [eax], 1

; 732  : 						_Rrotate(_Fixnodeparent);

  00737	8b 55 e4	 mov	 edx, DWORD PTR __Fixnodeparent$[ebp]
  0073a	52		 push	 edx
  0073b	8b 4d 9c	 mov	 ecx, DWORD PTR _this$[ebp]
  0073e	e8 00 00 00 00	 call	 ?_Rrotate@?$_Tree@V?$_Tmap_traits@PAUHWND__@@UWndMoveData@@U?$less@PAUHWND__@@@std@@V?$allocator@U?$pair@QAUHWND__@@UWndMoveData@@@std@@@4@$0A@@std@@@std@@IAEXPAU_Node@?$_Tree_nod@V?$_Tmap_traits@PAUHWND__@@UWndMoveData@@U?$less@PAUHWND__@@@std@@V?$allocator@U?$pair@QAUHWND__@@UWndMoveData@@@std@@@4@$0A@@std@@@2@@Z ; std::_Tree<std::_Tmap_traits<HWND__ *,WndMoveData,std::less<HWND__ *>,std::allocator<std::pair<HWND__ * const,WndMoveData> >,0> >::_Rrotate

; 733  : 						break;	// tree now recolored/rebalanced

  00743	eb 05		 jmp	 SHORT $L199254
$L199262:

; 734  : 						}
; 735  : 					}

  00745	e9 82 fc ff ff	 jmp	 $L199253
$L199254:

; 736  : 
; 737  : 			_Color(_Fixnode) = _Black;	// ensure stopping node is black

  0074a	8b 45 ec	 mov	 eax, DWORD PTR __Fixnode$[ebp]
  0074d	50		 push	 eax
  0074e	e8 00 00 00 00	 call	 ?_Color@?$_Tree@V?$_Tmap_traits@PAUHWND__@@UWndMoveData@@U?$less@PAUHWND__@@@std@@V?$allocator@U?$pair@QAUHWND__@@UWndMoveData@@@std@@@4@$0A@@std@@@std@@KAAADPAU_Node@?$_Tree_nod@V?$_Tmap_traits@PAUHWND__@@UWndMoveData@@U?$less@PAUHWND__@@@std@@V?$allocator@U?$pair@QAUHWND__@@UWndMoveData@@@std@@@4@$0A@@std@@@2@@Z ; std::_Tree<std::_Tmap_traits<HWND__ *,WndMoveData,std::less<HWND__ *>,std::allocator<std::pair<HWND__ * const,WndMoveData> >,0> >::_Color
  00753	83 c4 04	 add	 esp, 4
  00756	c6 00 01	 mov	 BYTE PTR [eax], 1
$L199251:

; 738  : 			}
; 739  : 
; 740  : 		this->_Alnod.destroy(_Erasednode);	// destroy, free erased node

  00759	8b 4d f0	 mov	 ecx, DWORD PTR __Erasednode$[ebp]
  0075c	51		 push	 ecx
  0075d	8b 4d 9c	 mov	 ecx, DWORD PTR _this$[ebp]
  00760	83 c1 01	 add	 ecx, 1
  00763	e8 00 00 00 00	 call	 ?destroy@?$allocator@U_Node@?$_Tree_nod@V?$_Tmap_traits@PAUHWND__@@UWndMoveData@@U?$less@PAUHWND__@@@std@@V?$allocator@U?$pair@QAUHWND__@@UWndMoveData@@@std@@@4@$0A@@std@@@std@@@std@@QAEXPAU_Node@?$_Tree_nod@V?$_Tmap_traits@PAUHWND__@@UWndMoveData@@U?$less@PAUHWND__@@@std@@V?$allocator@U?$pair@QAUHWND__@@UWndMoveData@@@std@@@4@$0A@@std@@@2@@Z ; std::allocator<std::_Tree_nod<std::_Tmap_traits<HWND__ *,WndMoveData,std::less<HWND__ *>,std::allocator<std::pair<HWND__ * const,WndMoveData> >,0> >::_Node>::destroy

; 741  : 		this->_Alnod.deallocate(_Erasednode, 1);

  00768	6a 01		 push	 1
  0076a	8b 55 f0	 mov	 edx, DWORD PTR __Erasednode$[ebp]
  0076d	52		 push	 edx
  0076e	8b 4d 9c	 mov	 ecx, DWORD PTR _this$[ebp]
  00771	83 c1 01	 add	 ecx, 1
  00774	e8 00 00 00 00	 call	 ?deallocate@?$allocator@U_Node@?$_Tree_nod@V?$_Tmap_traits@PAUHWND__@@UWndMoveData@@U?$less@PAUHWND__@@@std@@V?$allocator@U?$pair@QAUHWND__@@UWndMoveData@@@std@@@4@$0A@@std@@@std@@@std@@QAEXPAU_Node@?$_Tree_nod@V?$_Tmap_traits@PAUHWND__@@UWndMoveData@@U?$less@PAUHWND__@@@std@@V?$allocator@U?$pair@QAUHWND__@@UWndMoveData@@@std@@@4@$0A@@std@@@2@I@Z ; std::allocator<std::_Tree_nod<std::_Tmap_traits<HWND__ *,WndMoveData,std::less<HWND__ *>,std::allocator<std::pair<HWND__ * const,WndMoveData> >,0> >::_Node>::deallocate

; 742  : 
; 743  : 		if (0 < _Mysize)

  00779	8b 45 9c	 mov	 eax, DWORD PTR _this$[ebp]
  0077c	83 78 08 00	 cmp	 DWORD PTR [eax+8], 0
  00780	76 0f		 jbe	 SHORT $L199269

; 744  : 			--_Mysize;

  00782	8b 4d 9c	 mov	 ecx, DWORD PTR _this$[ebp]
  00785	8b 51 08	 mov	 edx, DWORD PTR [ecx+8]
  00788	83 ea 01	 sub	 edx, 1
  0078b	8b 45 9c	 mov	 eax, DWORD PTR _this$[ebp]
  0078e	89 50 08	 mov	 DWORD PTR [eax+8], edx
$L199269:

; 745  : 
; 746  : 		return (_Where);	// return successor iterator

  00791	8b 4d 08	 mov	 ecx, DWORD PTR ___$ReturnUdt$[ebp]
  00794	8b 55 0c	 mov	 edx, DWORD PTR __Where$[ebp]
  00797	89 11		 mov	 DWORD PTR [ecx], edx
  00799	8b 45 08	 mov	 eax, DWORD PTR ___$ReturnUdt$[ebp]
$L200166:

; 747  : 		}

  0079c	8b 4d f4	 mov	 ecx, DWORD PTR __$EHRec$[ebp]
  0079f	64 89 0d 00 00
	00 00		 mov	 DWORD PTR fs:__except_list, ecx
  007a6	5e		 pop	 esi
  007a7	8b e5		 mov	 esp, ebp
  007a9	5d		 pop	 ebp
  007aa	c2 08 00	 ret	 8
_TEXT	ENDS
;	COMDAT text$x
text$x	SEGMENT
$L200173:
  00000	8d 4d a0	 lea	 ecx, DWORD PTR $T200168[ebp]
  00003	ff 25 00 00 00
	00		 jmp	 DWORD PTR __imp_??1?$basic_string@DU?$char_traits@D@std@@V?$allocator@D@2@@std@@QAE@XZ
__ehhandler$?erase@?$_Tree@V?$_Tmap_traits@PAUHWND__@@UWndMoveData@@U?$less@PAUHWND__@@@std@@V?$allocator@U?$pair@QAUHWND__@@UWndMoveData@@@std@@@4@$0A@@std@@@std@@QAE?AViterator@12@V312@@Z:
  00009	b8 00 00 00 00	 mov	 eax, OFFSET FLAT:$T200175
  0000e	e9 00 00 00 00	 jmp	 ___CxxFrameHandler
text$x	ENDS
?erase@?$_Tree@V?$_Tmap_traits@PAUHWND__@@UWndMoveData@@U?$less@PAUHWND__@@@std@@V?$allocator@U?$pair@QAUHWND__@@UWndMoveData@@@std@@@4@$0A@@std@@@std@@QAE?AViterator@12@V312@@Z ENDP ; std::_Tree<std::_Tmap_traits<HWND__ *,WndMoveData,std::less<HWND__ *>,std::allocator<std::pair<HWND__ * const,WndMoveData> >,0> >::erase
; Function compile flags: /Odt
;	COMDAT ?_Lrotate@?$_Tree@V?$_Tmap_traits@PAUHWND__@@UWndMoveData@@U?$less@PAUHWND__@@@std@@V?$allocator@U?$pair@QAUHWND__@@UWndMoveData@@@std@@@4@$0A@@std@@@std@@IAEXPAU_Node@?$_Tree_nod@V?$_Tmap_traits@PAUHWND__@@UWndMoveData@@U?$less@PAUHWND__@@@std@@V?$allocator@U?$pair@QAUHWND__@@UWndMoveData@@@std@@@4@$0A@@std@@@2@@Z
_TEXT	SEGMENT
_this$ = -8						; size = 4
__Pnode$ = -4						; size = 4
__Wherenode$ = 8					; size = 4
?_Lrotate@?$_Tree@V?$_Tmap_traits@PAUHWND__@@UWndMoveData@@U?$less@PAUHWND__@@@std@@V?$allocator@U?$pair@QAUHWND__@@UWndMoveData@@@std@@@4@$0A@@std@@@std@@IAEXPAU_Node@?$_Tree_nod@V?$_Tmap_traits@PAUHWND__@@UWndMoveData@@U?$less@PAUHWND__@@@std@@V?$allocator@U?$pair@QAUHWND__@@UWndMoveData@@@std@@@4@$0A@@std@@@2@@Z PROC NEAR ; std::_Tree<std::_Tmap_traits<HWND__ *,WndMoveData,std::less<HWND__ *>,std::allocator<std::pair<HWND__ * const,WndMoveData> >,0> >::_Lrotate, COMDAT
; _this$ = ecx

; 1014 : 		{	// promote right node to root of subtree

  00000	55		 push	 ebp
  00001	8b ec		 mov	 ebp, esp
  00003	83 ec 08	 sub	 esp, 8
  00006	56		 push	 esi
  00007	89 4d f8	 mov	 DWORD PTR _this$[ebp], ecx

; 1015 : 		_Nodeptr _Pnode = _Right(_Wherenode);

  0000a	8b 45 08	 mov	 eax, DWORD PTR __Wherenode$[ebp]
  0000d	50		 push	 eax
  0000e	e8 00 00 00 00	 call	 ?_Right@?$_Tree@V?$_Tmap_traits@PAUHWND__@@UWndMoveData@@U?$less@PAUHWND__@@@std@@V?$allocator@U?$pair@QAUHWND__@@UWndMoveData@@@std@@@4@$0A@@std@@@std@@KAAAPAU_Node@?$_Tree_nod@V?$_Tmap_traits@PAUHWND__@@UWndMoveData@@U?$less@PAUHWND__@@@std@@V?$allocator@U?$pair@QAUHWND__@@UWndMoveData@@@std@@@4@$0A@@std@@@2@PAU342@@Z ; std::_Tree<std::_Tmap_traits<HWND__ *,WndMoveData,std::less<HWND__ *>,std::allocator<std::pair<HWND__ * const,WndMoveData> >,0> >::_Right
  00013	83 c4 04	 add	 esp, 4
  00016	8b 08		 mov	 ecx, DWORD PTR [eax]
  00018	89 4d fc	 mov	 DWORD PTR __Pnode$[ebp], ecx

; 1016 : 		_Right(_Wherenode) = _Left(_Pnode);

  0001b	8b 55 fc	 mov	 edx, DWORD PTR __Pnode$[ebp]
  0001e	52		 push	 edx
  0001f	e8 00 00 00 00	 call	 ?_Left@?$_Tree@V?$_Tmap_traits@PAUHWND__@@UWndMoveData@@U?$less@PAUHWND__@@@std@@V?$allocator@U?$pair@QAUHWND__@@UWndMoveData@@@std@@@4@$0A@@std@@@std@@KAAAPAU_Node@?$_Tree_nod@V?$_Tmap_traits@PAUHWND__@@UWndMoveData@@U?$less@PAUHWND__@@@std@@V?$allocator@U?$pair@QAUHWND__@@UWndMoveData@@@std@@@4@$0A@@std@@@2@PAU342@@Z ; std::_Tree<std::_Tmap_traits<HWND__ *,WndMoveData,std::less<HWND__ *>,std::allocator<std::pair<HWND__ * const,WndMoveData> >,0> >::_Left
  00024	83 c4 04	 add	 esp, 4
  00027	8b f0		 mov	 esi, eax
  00029	8b 45 08	 mov	 eax, DWORD PTR __Wherenode$[ebp]
  0002c	50		 push	 eax
  0002d	e8 00 00 00 00	 call	 ?_Right@?$_Tree@V?$_Tmap_traits@PAUHWND__@@UWndMoveData@@U?$less@PAUHWND__@@@std@@V?$allocator@U?$pair@QAUHWND__@@UWndMoveData@@@std@@@4@$0A@@std@@@std@@KAAAPAU_Node@?$_Tree_nod@V?$_Tmap_traits@PAUHWND__@@UWndMoveData@@U?$less@PAUHWND__@@@std@@V?$allocator@U?$pair@QAUHWND__@@UWndMoveData@@@std@@@4@$0A@@std@@@2@PAU342@@Z ; std::_Tree<std::_Tmap_traits<HWND__ *,WndMoveData,std::less<HWND__ *>,std::allocator<std::pair<HWND__ * const,WndMoveData> >,0> >::_Right
  00032	83 c4 04	 add	 esp, 4
  00035	8b 0e		 mov	 ecx, DWORD PTR [esi]
  00037	89 08		 mov	 DWORD PTR [eax], ecx

; 1017 : 
; 1018 : 		if (!_Isnil(_Left(_Pnode)))

  00039	8b 55 fc	 mov	 edx, DWORD PTR __Pnode$[ebp]
  0003c	52		 push	 edx
  0003d	e8 00 00 00 00	 call	 ?_Left@?$_Tree@V?$_Tmap_traits@PAUHWND__@@UWndMoveData@@U?$less@PAUHWND__@@@std@@V?$allocator@U?$pair@QAUHWND__@@UWndMoveData@@@std@@@4@$0A@@std@@@std@@KAAAPAU_Node@?$_Tree_nod@V?$_Tmap_traits@PAUHWND__@@UWndMoveData@@U?$less@PAUHWND__@@@std@@V?$allocator@U?$pair@QAUHWND__@@UWndMoveData@@@std@@@4@$0A@@std@@@2@PAU342@@Z ; std::_Tree<std::_Tmap_traits<HWND__ *,WndMoveData,std::less<HWND__ *>,std::allocator<std::pair<HWND__ * const,WndMoveData> >,0> >::_Left
  00042	83 c4 04	 add	 esp, 4
  00045	8b 00		 mov	 eax, DWORD PTR [eax]
  00047	50		 push	 eax
  00048	e8 00 00 00 00	 call	 ?_Isnil@?$_Tree@V?$_Tmap_traits@PAUHWND__@@UWndMoveData@@U?$less@PAUHWND__@@@std@@V?$allocator@U?$pair@QAUHWND__@@UWndMoveData@@@std@@@4@$0A@@std@@@std@@KAAADPAU_Node@?$_Tree_nod@V?$_Tmap_traits@PAUHWND__@@UWndMoveData@@U?$less@PAUHWND__@@@std@@V?$allocator@U?$pair@QAUHWND__@@UWndMoveData@@@std@@@4@$0A@@std@@@2@@Z ; std::_Tree<std::_Tmap_traits<HWND__ *,WndMoveData,std::less<HWND__ *>,std::allocator<std::pair<HWND__ * const,WndMoveData> >,0> >::_Isnil
  0004d	83 c4 04	 add	 esp, 4
  00050	0f be 08	 movsx	 ecx, BYTE PTR [eax]
  00053	85 c9		 test	 ecx, ecx
  00055	75 1c		 jne	 SHORT $L199273

; 1019 : 			_Parent(_Left(_Pnode)) = _Wherenode;

  00057	8b 55 fc	 mov	 edx, DWORD PTR __Pnode$[ebp]
  0005a	52		 push	 edx
  0005b	e8 00 00 00 00	 call	 ?_Left@?$_Tree@V?$_Tmap_traits@PAUHWND__@@UWndMoveData@@U?$less@PAUHWND__@@@std@@V?$allocator@U?$pair@QAUHWND__@@UWndMoveData@@@std@@@4@$0A@@std@@@std@@KAAAPAU_Node@?$_Tree_nod@V?$_Tmap_traits@PAUHWND__@@UWndMoveData@@U?$less@PAUHWND__@@@std@@V?$allocator@U?$pair@QAUHWND__@@UWndMoveData@@@std@@@4@$0A@@std@@@2@PAU342@@Z ; std::_Tree<std::_Tmap_traits<HWND__ *,WndMoveData,std::less<HWND__ *>,std::allocator<std::pair<HWND__ * const,WndMoveData> >,0> >::_Left
  00060	83 c4 04	 add	 esp, 4
  00063	8b 00		 mov	 eax, DWORD PTR [eax]
  00065	50		 push	 eax
  00066	e8 00 00 00 00	 call	 ?_Parent@?$_Tree@V?$_Tmap_traits@PAUHWND__@@UWndMoveData@@U?$less@PAUHWND__@@@std@@V?$allocator@U?$pair@QAUHWND__@@UWndMoveData@@@std@@@4@$0A@@std@@@std@@KAAAPAU_Node@?$_Tree_nod@V?$_Tmap_traits@PAUHWND__@@UWndMoveData@@U?$less@PAUHWND__@@@std@@V?$allocator@U?$pair@QAUHWND__@@UWndMoveData@@@std@@@4@$0A@@std@@@2@PAU342@@Z ; std::_Tree<std::_Tmap_traits<HWND__ *,WndMoveData,std::less<HWND__ *>,std::allocator<std::pair<HWND__ * const,WndMoveData> >,0> >::_Parent
  0006b	83 c4 04	 add	 esp, 4
  0006e	8b 4d 08	 mov	 ecx, DWORD PTR __Wherenode$[ebp]
  00071	89 08		 mov	 DWORD PTR [eax], ecx
$L199273:

; 1020 : 		_Parent(_Pnode) = _Parent(_Wherenode);

  00073	8b 55 08	 mov	 edx, DWORD PTR __Wherenode$[ebp]
  00076	52		 push	 edx
  00077	e8 00 00 00 00	 call	 ?_Parent@?$_Tree@V?$_Tmap_traits@PAUHWND__@@UWndMoveData@@U?$less@PAUHWND__@@@std@@V?$allocator@U?$pair@QAUHWND__@@UWndMoveData@@@std@@@4@$0A@@std@@@std@@KAAAPAU_Node@?$_Tree_nod@V?$_Tmap_traits@PAUHWND__@@UWndMoveData@@U?$less@PAUHWND__@@@std@@V?$allocator@U?$pair@QAUHWND__@@UWndMoveData@@@std@@@4@$0A@@std@@@2@PAU342@@Z ; std::_Tree<std::_Tmap_traits<HWND__ *,WndMoveData,std::less<HWND__ *>,std::allocator<std::pair<HWND__ * const,WndMoveData> >,0> >::_Parent
  0007c	83 c4 04	 add	 esp, 4
  0007f	8b f0		 mov	 esi, eax
  00081	8b 45 fc	 mov	 eax, DWORD PTR __Pnode$[ebp]
  00084	50		 push	 eax
  00085	e8 00 00 00 00	 call	 ?_Parent@?$_Tree@V?$_Tmap_traits@PAUHWND__@@UWndMoveData@@U?$less@PAUHWND__@@@std@@V?$allocator@U?$pair@QAUHWND__@@UWndMoveData@@@std@@@4@$0A@@std@@@std@@KAAAPAU_Node@?$_Tree_nod@V?$_Tmap_traits@PAUHWND__@@UWndMoveData@@U?$less@PAUHWND__@@@std@@V?$allocator@U?$pair@QAUHWND__@@UWndMoveData@@@std@@@4@$0A@@std@@@2@PAU342@@Z ; std::_Tree<std::_Tmap_traits<HWND__ *,WndMoveData,std::less<HWND__ *>,std::allocator<std::pair<HWND__ * const,WndMoveData> >,0> >::_Parent
  0008a	83 c4 04	 add	 esp, 4
  0008d	8b 0e		 mov	 ecx, DWORD PTR [esi]
  0008f	89 08		 mov	 DWORD PTR [eax], ecx

; 1021 : 
; 1022 : 		if (_Wherenode == _Root())

  00091	8b 4d f8	 mov	 ecx, DWORD PTR _this$[ebp]
  00094	e8 00 00 00 00	 call	 ?_Root@?$_Tree@V?$_Tmap_traits@PAUHWND__@@UWndMoveData@@U?$less@PAUHWND__@@@std@@V?$allocator@U?$pair@QAUHWND__@@UWndMoveData@@@std@@@4@$0A@@std@@@std@@IAEAAPAU_Node@?$_Tree_nod@V?$_Tmap_traits@PAUHWND__@@UWndMoveData@@U?$less@PAUHWND__@@@std@@V?$allocator@U?$pair@QAUHWND__@@UWndMoveData@@@std@@@4@$0A@@std@@@2@XZ ; std::_Tree<std::_Tmap_traits<HWND__ *,WndMoveData,std::less<HWND__ *>,std::allocator<std::pair<HWND__ * const,WndMoveData> >,0> >::_Root
  00099	8b 55 08	 mov	 edx, DWORD PTR __Wherenode$[ebp]
  0009c	3b 10		 cmp	 edx, DWORD PTR [eax]
  0009e	75 0f		 jne	 SHORT $L199274

; 1023 : 			_Root() = _Pnode;

  000a0	8b 4d f8	 mov	 ecx, DWORD PTR _this$[ebp]
  000a3	e8 00 00 00 00	 call	 ?_Root@?$_Tree@V?$_Tmap_traits@PAUHWND__@@UWndMoveData@@U?$less@PAUHWND__@@@std@@V?$allocator@U?$pair@QAUHWND__@@UWndMoveData@@@std@@@4@$0A@@std@@@std@@IAEAAPAU_Node@?$_Tree_nod@V?$_Tmap_traits@PAUHWND__@@UWndMoveData@@U?$less@PAUHWND__@@@std@@V?$allocator@U?$pair@QAUHWND__@@UWndMoveData@@@std@@@4@$0A@@std@@@2@XZ ; std::_Tree<std::_Tmap_traits<HWND__ *,WndMoveData,std::less<HWND__ *>,std::allocator<std::pair<HWND__ * const,WndMoveData> >,0> >::_Root
  000a8	8b 4d fc	 mov	 ecx, DWORD PTR __Pnode$[ebp]
  000ab	89 08		 mov	 DWORD PTR [eax], ecx

; 1024 : 		else if (_Wherenode == _Left(_Parent(_Wherenode)))

  000ad	eb 58		 jmp	 SHORT $L199275
$L199274:
  000af	8b 55 08	 mov	 edx, DWORD PTR __Wherenode$[ebp]
  000b2	52		 push	 edx
  000b3	e8 00 00 00 00	 call	 ?_Parent@?$_Tree@V?$_Tmap_traits@PAUHWND__@@UWndMoveData@@U?$less@PAUHWND__@@@std@@V?$allocator@U?$pair@QAUHWND__@@UWndMoveData@@@std@@@4@$0A@@std@@@std@@KAAAPAU_Node@?$_Tree_nod@V?$_Tmap_traits@PAUHWND__@@UWndMoveData@@U?$less@PAUHWND__@@@std@@V?$allocator@U?$pair@QAUHWND__@@UWndMoveData@@@std@@@4@$0A@@std@@@2@PAU342@@Z ; std::_Tree<std::_Tmap_traits<HWND__ *,WndMoveData,std::less<HWND__ *>,std::allocator<std::pair<HWND__ * const,WndMoveData> >,0> >::_Parent
  000b8	83 c4 04	 add	 esp, 4
  000bb	8b 00		 mov	 eax, DWORD PTR [eax]
  000bd	50		 push	 eax
  000be	e8 00 00 00 00	 call	 ?_Left@?$_Tree@V?$_Tmap_traits@PAUHWND__@@UWndMoveData@@U?$less@PAUHWND__@@@std@@V?$allocator@U?$pair@QAUHWND__@@UWndMoveData@@@std@@@4@$0A@@std@@@std@@KAAAPAU_Node@?$_Tree_nod@V?$_Tmap_traits@PAUHWND__@@UWndMoveData@@U?$less@PAUHWND__@@@std@@V?$allocator@U?$pair@QAUHWND__@@UWndMoveData@@@std@@@4@$0A@@std@@@2@PAU342@@Z ; std::_Tree<std::_Tmap_traits<HWND__ *,WndMoveData,std::less<HWND__ *>,std::allocator<std::pair<HWND__ * const,WndMoveData> >,0> >::_Left
  000c3	83 c4 04	 add	 esp, 4
  000c6	8b 4d 08	 mov	 ecx, DWORD PTR __Wherenode$[ebp]
  000c9	3b 08		 cmp	 ecx, DWORD PTR [eax]
  000cb	75 1e		 jne	 SHORT $L199276

; 1025 : 			_Left(_Parent(_Wherenode)) = _Pnode;

  000cd	8b 55 08	 mov	 edx, DWORD PTR __Wherenode$[ebp]
  000d0	52		 push	 edx
  000d1	e8 00 00 00 00	 call	 ?_Parent@?$_Tree@V?$_Tmap_traits@PAUHWND__@@UWndMoveData@@U?$less@PAUHWND__@@@std@@V?$allocator@U?$pair@QAUHWND__@@UWndMoveData@@@std@@@4@$0A@@std@@@std@@KAAAPAU_Node@?$_Tree_nod@V?$_Tmap_traits@PAUHWND__@@UWndMoveData@@U?$less@PAUHWND__@@@std@@V?$allocator@U?$pair@QAUHWND__@@UWndMoveData@@@std@@@4@$0A@@std@@@2@PAU342@@Z ; std::_Tree<std::_Tmap_traits<HWND__ *,WndMoveData,std::less<HWND__ *>,std::allocator<std::pair<HWND__ * const,WndMoveData> >,0> >::_Parent
  000d6	83 c4 04	 add	 esp, 4
  000d9	8b 00		 mov	 eax, DWORD PTR [eax]
  000db	50		 push	 eax
  000dc	e8 00 00 00 00	 call	 ?_Left@?$_Tree@V?$_Tmap_traits@PAUHWND__@@UWndMoveData@@U?$less@PAUHWND__@@@std@@V?$allocator@U?$pair@QAUHWND__@@UWndMoveData@@@std@@@4@$0A@@std@@@std@@KAAAPAU_Node@?$_Tree_nod@V?$_Tmap_traits@PAUHWND__@@UWndMoveData@@U?$less@PAUHWND__@@@std@@V?$allocator@U?$pair@QAUHWND__@@UWndMoveData@@@std@@@4@$0A@@std@@@2@PAU342@@Z ; std::_Tree<std::_Tmap_traits<HWND__ *,WndMoveData,std::less<HWND__ *>,std::allocator<std::pair<HWND__ * const,WndMoveData> >,0> >::_Left
  000e1	83 c4 04	 add	 esp, 4
  000e4	8b 4d fc	 mov	 ecx, DWORD PTR __Pnode$[ebp]
  000e7	89 08		 mov	 DWORD PTR [eax], ecx

; 1026 : 		else

  000e9	eb 1c		 jmp	 SHORT $L199275
$L199276:

; 1027 : 			_Right(_Parent(_Wherenode)) = _Pnode;

  000eb	8b 55 08	 mov	 edx, DWORD PTR __Wherenode$[ebp]
  000ee	52		 push	 edx
  000ef	e8 00 00 00 00	 call	 ?_Parent@?$_Tree@V?$_Tmap_traits@PAUHWND__@@UWndMoveData@@U?$less@PAUHWND__@@@std@@V?$allocator@U?$pair@QAUHWND__@@UWndMoveData@@@std@@@4@$0A@@std@@@std@@KAAAPAU_Node@?$_Tree_nod@V?$_Tmap_traits@PAUHWND__@@UWndMoveData@@U?$less@PAUHWND__@@@std@@V?$allocator@U?$pair@QAUHWND__@@UWndMoveData@@@std@@@4@$0A@@std@@@2@PAU342@@Z ; std::_Tree<std::_Tmap_traits<HWND__ *,WndMoveData,std::less<HWND__ *>,std::allocator<std::pair<HWND__ * const,WndMoveData> >,0> >::_Parent
  000f4	83 c4 04	 add	 esp, 4
  000f7	8b 00		 mov	 eax, DWORD PTR [eax]
  000f9	50		 push	 eax
  000fa	e8 00 00 00 00	 call	 ?_Right@?$_Tree@V?$_Tmap_traits@PAUHWND__@@UWndMoveData@@U?$less@PAUHWND__@@@std@@V?$allocator@U?$pair@QAUHWND__@@UWndMoveData@@@std@@@4@$0A@@std@@@std@@KAAAPAU_Node@?$_Tree_nod@V?$_Tmap_traits@PAUHWND__@@UWndMoveData@@U?$less@PAUHWND__@@@std@@V?$allocator@U?$pair@QAUHWND__@@UWndMoveData@@@std@@@4@$0A@@std@@@2@PAU342@@Z ; std::_Tree<std::_Tmap_traits<HWND__ *,WndMoveData,std::less<HWND__ *>,std::allocator<std::pair<HWND__ * const,WndMoveData> >,0> >::_Right
  000ff	83 c4 04	 add	 esp, 4
  00102	8b 4d fc	 mov	 ecx, DWORD PTR __Pnode$[ebp]
  00105	89 08		 mov	 DWORD PTR [eax], ecx
$L199275:

; 1028 : 
; 1029 : 		_Left(_Pnode) = _Wherenode;

  00107	8b 55 fc	 mov	 edx, DWORD PTR __Pnode$[ebp]
  0010a	52		 push	 edx
  0010b	e8 00 00 00 00	 call	 ?_Left@?$_Tree@V?$_Tmap_traits@PAUHWND__@@UWndMoveData@@U?$less@PAUHWND__@@@std@@V?$allocator@U?$pair@QAUHWND__@@UWndMoveData@@@std@@@4@$0A@@std@@@std@@KAAAPAU_Node@?$_Tree_nod@V?$_Tmap_traits@PAUHWND__@@UWndMoveData@@U?$less@PAUHWND__@@@std@@V?$allocator@U?$pair@QAUHWND__@@UWndMoveData@@@std@@@4@$0A@@std@@@2@PAU342@@Z ; std::_Tree<std::_Tmap_traits<HWND__ *,WndMoveData,std::less<HWND__ *>,std::allocator<std::pair<HWND__ * const,WndMoveData> >,0> >::_Left
  00110	83 c4 04	 add	 esp, 4
  00113	8b 4d 08	 mov	 ecx, DWORD PTR __Wherenode$[ebp]
  00116	89 08		 mov	 DWORD PTR [eax], ecx

; 1030 : 		_Parent(_Wherenode) = _Pnode;

  00118	8b 55 08	 mov	 edx, DWORD PTR __Wherenode$[ebp]
  0011b	52		 push	 edx
  0011c	e8 00 00 00 00	 call	 ?_Parent@?$_Tree@V?$_Tmap_traits@PAUHWND__@@UWndMoveData@@U?$less@PAUHWND__@@@std@@V?$allocator@U?$pair@QAUHWND__@@UWndMoveData@@@std@@@4@$0A@@std@@@std@@KAAAPAU_Node@?$_Tree_nod@V?$_Tmap_traits@PAUHWND__@@UWndMoveData@@U?$less@PAUHWND__@@@std@@V?$allocator@U?$pair@QAUHWND__@@UWndMoveData@@@std@@@4@$0A@@std@@@2@PAU342@@Z ; std::_Tree<std::_Tmap_traits<HWND__ *,WndMoveData,std::less<HWND__ *>,std::allocator<std::pair<HWND__ * const,WndMoveData> >,0> >::_Parent
  00121	83 c4 04	 add	 esp, 4
  00124	8b 4d fc	 mov	 ecx, DWORD PTR __Pnode$[ebp]
  00127	89 08		 mov	 DWORD PTR [eax], ecx

; 1031 : 		}

  00129	5e		 pop	 esi
  0012a	8b e5		 mov	 esp, ebp
  0012c	5d		 pop	 ebp
  0012d	c2 04 00	 ret	 4
?_Lrotate@?$_Tree@V?$_Tmap_traits@PAUHWND__@@UWndMoveData@@U?$less@PAUHWND__@@@std@@V?$allocator@U?$pair@QAUHWND__@@UWndMoveData@@@std@@@4@$0A@@std@@@std@@IAEXPAU_Node@?$_Tree_nod@V?$_Tmap_traits@PAUHWND__@@UWndMoveData@@U?$less@PAUHWND__@@@std@@V?$allocator@U?$pair@QAUHWND__@@UWndMoveData@@@std@@@4@$0A@@std@@@2@@Z ENDP ; std::_Tree<std::_Tmap_traits<HWND__ *,WndMoveData,std::less<HWND__ *>,std::allocator<std::pair<HWND__ * const,WndMoveData> >,0> >::_Lrotate
; Function compile flags: /Odt
_TEXT	ENDS
;	COMDAT ?_Root@?$_Tree@V?$_Tmap_traits@PAUHWND__@@UWndMoveData@@U?$less@PAUHWND__@@@std@@V?$allocator@U?$pair@QAUHWND__@@UWndMoveData@@@std@@@4@$0A@@std@@@std@@IBEAAPAU_Node@?$_Tree_nod@V?$_Tmap_traits@PAUHWND__@@UWndMoveData@@U?$less@PAUHWND__@@@std@@V?$allocator@U?$pair@QAUHWND__@@UWndMoveData@@@std@@@4@$0A@@std@@@2@XZ
_TEXT	SEGMENT
_this$ = -4						; size = 4
?_Root@?$_Tree@V?$_Tmap_traits@PAUHWND__@@UWndMoveData@@U?$less@PAUHWND__@@@std@@V?$allocator@U?$pair@QAUHWND__@@UWndMoveData@@@std@@@4@$0A@@std@@@std@@IBEAAPAU_Node@?$_Tree_nod@V?$_Tmap_traits@PAUHWND__@@UWndMoveData@@U?$less@PAUHWND__@@@std@@V?$allocator@U?$pair@QAUHWND__@@UWndMoveData@@@std@@@4@$0A@@std@@@2@XZ PROC NEAR ; std::_Tree<std::_Tmap_traits<HWND__ *,WndMoveData,std::less<HWND__ *>,std::allocator<std::pair<HWND__ * const,WndMoveData> >,0> >::_Root, COMDAT
; _this$ = ecx

; 1063 : 		{	// return root of nonmutable tree

  00000	55		 push	 ebp
  00001	8b ec		 mov	 ebp, esp
  00003	51		 push	 ecx
  00004	89 4d fc	 mov	 DWORD PTR _this$[ebp], ecx

; 1064 : 		return (_Parent(_Myhead));

  00007	8b 45 fc	 mov	 eax, DWORD PTR _this$[ebp]
  0000a	8b 48 04	 mov	 ecx, DWORD PTR [eax+4]
  0000d	51		 push	 ecx
  0000e	e8 00 00 00 00	 call	 ?_Parent@?$_Tree@V?$_Tmap_traits@PAUHWND__@@UWndMoveData@@U?$less@PAUHWND__@@@std@@V?$allocator@U?$pair@QAUHWND__@@UWndMoveData@@@std@@@4@$0A@@std@@@std@@KAAAPAU_Node@?$_Tree_nod@V?$_Tmap_traits@PAUHWND__@@UWndMoveData@@U?$less@PAUHWND__@@@std@@V?$allocator@U?$pair@QAUHWND__@@UWndMoveData@@@std@@@4@$0A@@std@@@2@PAU342@@Z ; std::_Tree<std::_Tmap_traits<HWND__ *,WndMoveData,std::less<HWND__ *>,std::allocator<std::pair<HWND__ * const,WndMoveData> >,0> >::_Parent
  00013	83 c4 04	 add	 esp, 4

; 1065 : 		}

  00016	8b e5		 mov	 esp, ebp
  00018	5d		 pop	 ebp
  00019	c3		 ret	 0
?_Root@?$_Tree@V?$_Tmap_traits@PAUHWND__@@UWndMoveData@@U?$less@PAUHWND__@@@std@@V?$allocator@U?$pair@QAUHWND__@@UWndMoveData@@@std@@@4@$0A@@std@@@std@@IBEAAPAU_Node@?$_Tree_nod@V?$_Tmap_traits@PAUHWND__@@UWndMoveData@@U?$less@PAUHWND__@@@std@@V?$allocator@U?$pair@QAUHWND__@@UWndMoveData@@@std@@@4@$0A@@std@@@2@XZ ENDP ; std::_Tree<std::_Tmap_traits<HWND__ *,WndMoveData,std::less<HWND__ *>,std::allocator<std::pair<HWND__ * const,WndMoveData> >,0> >::_Root
; Function compile flags: /Odt
_TEXT	ENDS
;	COMDAT ?_Rrotate@?$_Tree@V?$_Tmap_traits@PAUHWND__@@UWndMoveData@@U?$less@PAUHWND__@@@std@@V?$allocator@U?$pair@QAUHWND__@@UWndMoveData@@@std@@@4@$0A@@std@@@std@@IAEXPAU_Node@?$_Tree_nod@V?$_Tmap_traits@PAUHWND__@@UWndMoveData@@U?$less@PAUHWND__@@@std@@V?$allocator@U?$pair@QAUHWND__@@UWndMoveData@@@std@@@4@$0A@@std@@@2@@Z
_TEXT	SEGMENT
_this$ = -8						; size = 4
__Pnode$ = -4						; size = 4
__Wherenode$ = 8					; size = 4
?_Rrotate@?$_Tree@V?$_Tmap_traits@PAUHWND__@@UWndMoveData@@U?$less@PAUHWND__@@@std@@V?$allocator@U?$pair@QAUHWND__@@UWndMoveData@@@std@@@4@$0A@@std@@@std@@IAEXPAU_Node@?$_Tree_nod@V?$_Tmap_traits@PAUHWND__@@UWndMoveData@@U?$less@PAUHWND__@@@std@@V?$allocator@U?$pair@QAUHWND__@@UWndMoveData@@@std@@@4@$0A@@std@@@2@@Z PROC NEAR ; std::_Tree<std::_Tmap_traits<HWND__ *,WndMoveData,std::less<HWND__ *>,std::allocator<std::pair<HWND__ * const,WndMoveData> >,0> >::_Rrotate, COMDAT
; _this$ = ecx

; 1068 : 		{	// promote left node to root of subtree

  00000	55		 push	 ebp
  00001	8b ec		 mov	 ebp, esp
  00003	83 ec 08	 sub	 esp, 8
  00006	56		 push	 esi
  00007	89 4d f8	 mov	 DWORD PTR _this$[ebp], ecx

; 1069 : 		_Nodeptr _Pnode = _Left(_Wherenode);

  0000a	8b 45 08	 mov	 eax, DWORD PTR __Wherenode$[ebp]
  0000d	50		 push	 eax
  0000e	e8 00 00 00 00	 call	 ?_Left@?$_Tree@V?$_Tmap_traits@PAUHWND__@@UWndMoveData@@U?$less@PAUHWND__@@@std@@V?$allocator@U?$pair@QAUHWND__@@UWndMoveData@@@std@@@4@$0A@@std@@@std@@KAAAPAU_Node@?$_Tree_nod@V?$_Tmap_traits@PAUHWND__@@UWndMoveData@@U?$less@PAUHWND__@@@std@@V?$allocator@U?$pair@QAUHWND__@@UWndMoveData@@@std@@@4@$0A@@std@@@2@PAU342@@Z ; std::_Tree<std::_Tmap_traits<HWND__ *,WndMoveData,std::less<HWND__ *>,std::allocator<std::pair<HWND__ * const,WndMoveData> >,0> >::_Left
  00013	83 c4 04	 add	 esp, 4
  00016	8b 08		 mov	 ecx, DWORD PTR [eax]
  00018	89 4d fc	 mov	 DWORD PTR __Pnode$[ebp], ecx

; 1070 : 		_Left(_Wherenode) = _Right(_Pnode);

  0001b	8b 55 fc	 mov	 edx, DWORD PTR __Pnode$[ebp]
  0001e	52		 push	 edx
  0001f	e8 00 00 00 00	 call	 ?_Right@?$_Tree@V?$_Tmap_traits@PAUHWND__@@UWndMoveData@@U?$less@PAUHWND__@@@std@@V?$allocator@U?$pair@QAUHWND__@@UWndMoveData@@@std@@@4@$0A@@std@@@std@@KAAAPAU_Node@?$_Tree_nod@V?$_Tmap_traits@PAUHWND__@@UWndMoveData@@U?$less@PAUHWND__@@@std@@V?$allocator@U?$pair@QAUHWND__@@UWndMoveData@@@std@@@4@$0A@@std@@@2@PAU342@@Z ; std::_Tree<std::_Tmap_traits<HWND__ *,WndMoveData,std::less<HWND__ *>,std::allocator<std::pair<HWND__ * const,WndMoveData> >,0> >::_Right
  00024	83 c4 04	 add	 esp, 4
  00027	8b f0		 mov	 esi, eax
  00029	8b 45 08	 mov	 eax, DWORD PTR __Wherenode$[ebp]
  0002c	50		 push	 eax
  0002d	e8 00 00 00 00	 call	 ?_Left@?$_Tree@V?$_Tmap_traits@PAUHWND__@@UWndMoveData@@U?$less@PAUHWND__@@@std@@V?$allocator@U?$pair@QAUHWND__@@UWndMoveData@@@std@@@4@$0A@@std@@@std@@KAAAPAU_Node@?$_Tree_nod@V?$_Tmap_traits@PAUHWND__@@UWndMoveData@@U?$less@PAUHWND__@@@std@@V?$allocator@U?$pair@QAUHWND__@@UWndMoveData@@@std@@@4@$0A@@std@@@2@PAU342@@Z ; std::_Tree<std::_Tmap_traits<HWND__ *,WndMoveData,std::less<HWND__ *>,std::allocator<std::pair<HWND__ * const,WndMoveData> >,0> >::_Left
  00032	83 c4 04	 add	 esp, 4
  00035	8b 0e		 mov	 ecx, DWORD PTR [esi]
  00037	89 08		 mov	 DWORD PTR [eax], ecx

; 1071 : 
; 1072 : 		if (!_Isnil(_Right(_Pnode)))

  00039	8b 55 fc	 mov	 edx, DWORD PTR __Pnode$[ebp]
  0003c	52		 push	 edx
  0003d	e8 00 00 00 00	 call	 ?_Right@?$_Tree@V?$_Tmap_traits@PAUHWND__@@UWndMoveData@@U?$less@PAUHWND__@@@std@@V?$allocator@U?$pair@QAUHWND__@@UWndMoveData@@@std@@@4@$0A@@std@@@std@@KAAAPAU_Node@?$_Tree_nod@V?$_Tmap_traits@PAUHWND__@@UWndMoveData@@U?$less@PAUHWND__@@@std@@V?$allocator@U?$pair@QAUHWND__@@UWndMoveData@@@std@@@4@$0A@@std@@@2@PAU342@@Z ; std::_Tree<std::_Tmap_traits<HWND__ *,WndMoveData,std::less<HWND__ *>,std::allocator<std::pair<HWND__ * const,WndMoveData> >,0> >::_Right
  00042	83 c4 04	 add	 esp, 4
  00045	8b 00		 mov	 eax, DWORD PTR [eax]
  00047	50		 push	 eax
  00048	e8 00 00 00 00	 call	 ?_Isnil@?$_Tree@V?$_Tmap_traits@PAUHWND__@@UWndMoveData@@U?$less@PAUHWND__@@@std@@V?$allocator@U?$pair@QAUHWND__@@UWndMoveData@@@std@@@4@$0A@@std@@@std@@KAAADPAU_Node@?$_Tree_nod@V?$_Tmap_traits@PAUHWND__@@UWndMoveData@@U?$less@PAUHWND__@@@std@@V?$allocator@U?$pair@QAUHWND__@@UWndMoveData@@@std@@@4@$0A@@std@@@2@@Z ; std::_Tree<std::_Tmap_traits<HWND__ *,WndMoveData,std::less<HWND__ *>,std::allocator<std::pair<HWND__ * const,WndMoveData> >,0> >::_Isnil
  0004d	83 c4 04	 add	 esp, 4
  00050	0f be 08	 movsx	 ecx, BYTE PTR [eax]
  00053	85 c9		 test	 ecx, ecx
  00055	75 1c		 jne	 SHORT $L199283

; 1073 : 			_Parent(_Right(_Pnode)) = _Wherenode;

  00057	8b 55 fc	 mov	 edx, DWORD PTR __Pnode$[ebp]
  0005a	52		 push	 edx
  0005b	e8 00 00 00 00	 call	 ?_Right@?$_Tree@V?$_Tmap_traits@PAUHWND__@@UWndMoveData@@U?$less@PAUHWND__@@@std@@V?$allocator@U?$pair@QAUHWND__@@UWndMoveData@@@std@@@4@$0A@@std@@@std@@KAAAPAU_Node@?$_Tree_nod@V?$_Tmap_traits@PAUHWND__@@UWndMoveData@@U?$less@PAUHWND__@@@std@@V?$allocator@U?$pair@QAUHWND__@@UWndMoveData@@@std@@@4@$0A@@std@@@2@PAU342@@Z ; std::_Tree<std::_Tmap_traits<HWND__ *,WndMoveData,std::less<HWND__ *>,std::allocator<std::pair<HWND__ * const,WndMoveData> >,0> >::_Right
  00060	83 c4 04	 add	 esp, 4
  00063	8b 00		 mov	 eax, DWORD PTR [eax]
  00065	50		 push	 eax
  00066	e8 00 00 00 00	 call	 ?_Parent@?$_Tree@V?$_Tmap_traits@PAUHWND__@@UWndMoveData@@U?$less@PAUHWND__@@@std@@V?$allocator@U?$pair@QAUHWND__@@UWndMoveData@@@std@@@4@$0A@@std@@@std@@KAAAPAU_Node@?$_Tree_nod@V?$_Tmap_traits@PAUHWND__@@UWndMoveData@@U?$less@PAUHWND__@@@std@@V?$allocator@U?$pair@QAUHWND__@@UWndMoveData@@@std@@@4@$0A@@std@@@2@PAU342@@Z ; std::_Tree<std::_Tmap_traits<HWND__ *,WndMoveData,std::less<HWND__ *>,std::allocator<std::pair<HWND__ * const,WndMoveData> >,0> >::_Parent
  0006b	83 c4 04	 add	 esp, 4
  0006e	8b 4d 08	 mov	 ecx, DWORD PTR __Wherenode$[ebp]
  00071	89 08		 mov	 DWORD PTR [eax], ecx
$L199283:

; 1074 : 		_Parent(_Pnode) = _Parent(_Wherenode);

  00073	8b 55 08	 mov	 edx, DWORD PTR __Wherenode$[ebp]
  00076	52		 push	 edx
  00077	e8 00 00 00 00	 call	 ?_Parent@?$_Tree@V?$_Tmap_traits@PAUHWND__@@UWndMoveData@@U?$less@PAUHWND__@@@std@@V?$allocator@U?$pair@QAUHWND__@@UWndMoveData@@@std@@@4@$0A@@std@@@std@@KAAAPAU_Node@?$_Tree_nod@V?$_Tmap_traits@PAUHWND__@@UWndMoveData@@U?$less@PAUHWND__@@@std@@V?$allocator@U?$pair@QAUHWND__@@UWndMoveData@@@std@@@4@$0A@@std@@@2@PAU342@@Z ; std::_Tree<std::_Tmap_traits<HWND__ *,WndMoveData,std::less<HWND__ *>,std::allocator<std::pair<HWND__ * const,WndMoveData> >,0> >::_Parent
  0007c	83 c4 04	 add	 esp, 4
  0007f	8b f0		 mov	 esi, eax
  00081	8b 45 fc	 mov	 eax, DWORD PTR __Pnode$[ebp]
  00084	50		 push	 eax
  00085	e8 00 00 00 00	 call	 ?_Parent@?$_Tree@V?$_Tmap_traits@PAUHWND__@@UWndMoveData@@U?$less@PAUHWND__@@@std@@V?$allocator@U?$pair@QAUHWND__@@UWndMoveData@@@std@@@4@$0A@@std@@@std@@KAAAPAU_Node@?$_Tree_nod@V?$_Tmap_traits@PAUHWND__@@UWndMoveData@@U?$less@PAUHWND__@@@std@@V?$allocator@U?$pair@QAUHWND__@@UWndMoveData@@@std@@@4@$0A@@std@@@2@PAU342@@Z ; std::_Tree<std::_Tmap_traits<HWND__ *,WndMoveData,std::less<HWND__ *>,std::allocator<std::pair<HWND__ * const,WndMoveData> >,0> >::_Parent
  0008a	83 c4 04	 add	 esp, 4
  0008d	8b 0e		 mov	 ecx, DWORD PTR [esi]
  0008f	89 08		 mov	 DWORD PTR [eax], ecx

; 1075 : 
; 1076 : 		if (_Wherenode == _Root())

  00091	8b 4d f8	 mov	 ecx, DWORD PTR _this$[ebp]
  00094	e8 00 00 00 00	 call	 ?_Root@?$_Tree@V?$_Tmap_traits@PAUHWND__@@UWndMoveData@@U?$less@PAUHWND__@@@std@@V?$allocator@U?$pair@QAUHWND__@@UWndMoveData@@@std@@@4@$0A@@std@@@std@@IAEAAPAU_Node@?$_Tree_nod@V?$_Tmap_traits@PAUHWND__@@UWndMoveData@@U?$less@PAUHWND__@@@std@@V?$allocator@U?$pair@QAUHWND__@@UWndMoveData@@@std@@@4@$0A@@std@@@2@XZ ; std::_Tree<std::_Tmap_traits<HWND__ *,WndMoveData,std::less<HWND__ *>,std::allocator<std::pair<HWND__ * const,WndMoveData> >,0> >::_Root
  00099	8b 55 08	 mov	 edx, DWORD PTR __Wherenode$[ebp]
  0009c	3b 10		 cmp	 edx, DWORD PTR [eax]
  0009e	75 0f		 jne	 SHORT $L199284

; 1077 : 			_Root() = _Pnode;

  000a0	8b 4d f8	 mov	 ecx, DWORD PTR _this$[ebp]
  000a3	e8 00 00 00 00	 call	 ?_Root@?$_Tree@V?$_Tmap_traits@PAUHWND__@@UWndMoveData@@U?$less@PAUHWND__@@@std@@V?$allocator@U?$pair@QAUHWND__@@UWndMoveData@@@std@@@4@$0A@@std@@@std@@IAEAAPAU_Node@?$_Tree_nod@V?$_Tmap_traits@PAUHWND__@@UWndMoveData@@U?$less@PAUHWND__@@@std@@V?$allocator@U?$pair@QAUHWND__@@UWndMoveData@@@std@@@4@$0A@@std@@@2@XZ ; std::_Tree<std::_Tmap_traits<HWND__ *,WndMoveData,std::less<HWND__ *>,std::allocator<std::pair<HWND__ * const,WndMoveData> >,0> >::_Root
  000a8	8b 4d fc	 mov	 ecx, DWORD PTR __Pnode$[ebp]
  000ab	89 08		 mov	 DWORD PTR [eax], ecx

; 1078 : 		else if (_Wherenode == _Right(_Parent(_Wherenode)))

  000ad	eb 58		 jmp	 SHORT $L199285
$L199284:
  000af	8b 55 08	 mov	 edx, DWORD PTR __Wherenode$[ebp]
  000b2	52		 push	 edx
  000b3	e8 00 00 00 00	 call	 ?_Parent@?$_Tree@V?$_Tmap_traits@PAUHWND__@@UWndMoveData@@U?$less@PAUHWND__@@@std@@V?$allocator@U?$pair@QAUHWND__@@UWndMoveData@@@std@@@4@$0A@@std@@@std@@KAAAPAU_Node@?$_Tree_nod@V?$_Tmap_traits@PAUHWND__@@UWndMoveData@@U?$less@PAUHWND__@@@std@@V?$allocator@U?$pair@QAUHWND__@@UWndMoveData@@@std@@@4@$0A@@std@@@2@PAU342@@Z ; std::_Tree<std::_Tmap_traits<HWND__ *,WndMoveData,std::less<HWND__ *>,std::allocator<std::pair<HWND__ * const,WndMoveData> >,0> >::_Parent
  000b8	83 c4 04	 add	 esp, 4
  000bb	8b 00		 mov	 eax, DWORD PTR [eax]
  000bd	50		 push	 eax
  000be	e8 00 00 00 00	 call	 ?_Right@?$_Tree@V?$_Tmap_traits@PAUHWND__@@UWndMoveData@@U?$less@PAUHWND__@@@std@@V?$allocator@U?$pair@QAUHWND__@@UWndMoveData@@@std@@@4@$0A@@std@@@std@@KAAAPAU_Node@?$_Tree_nod@V?$_Tmap_traits@PAUHWND__@@UWndMoveData@@U?$less@PAUHWND__@@@std@@V?$allocator@U?$pair@QAUHWND__@@UWndMoveData@@@std@@@4@$0A@@std@@@2@PAU342@@Z ; std::_Tree<std::_Tmap_traits<HWND__ *,WndMoveData,std::less<HWND__ *>,std::allocator<std::pair<HWND__ * const,WndMoveData> >,0> >::_Right
  000c3	83 c4 04	 add	 esp, 4
  000c6	8b 4d 08	 mov	 ecx, DWORD PTR __Wherenode$[ebp]
  000c9	3b 08		 cmp	 ecx, DWORD PTR [eax]
  000cb	75 1e		 jne	 SHORT $L199286

; 1079 : 			_Right(_Parent(_Wherenode)) = _Pnode;

  000cd	8b 55 08	 mov	 edx, DWORD PTR __Wherenode$[ebp]
  000d0	52		 push	 edx
  000d1	e8 00 00 00 00	 call	 ?_Parent@?$_Tree@V?$_Tmap_traits@PAUHWND__@@UWndMoveData@@U?$less@PAUHWND__@@@std@@V?$allocator@U?$pair@QAUHWND__@@UWndMoveData@@@std@@@4@$0A@@std@@@std@@KAAAPAU_Node@?$_Tree_nod@V?$_Tmap_traits@PAUHWND__@@UWndMoveData@@U?$less@PAUHWND__@@@std@@V?$allocator@U?$pair@QAUHWND__@@UWndMoveData@@@std@@@4@$0A@@std@@@2@PAU342@@Z ; std::_Tree<std::_Tmap_traits<HWND__ *,WndMoveData,std::less<HWND__ *>,std::allocator<std::pair<HWND__ * const,WndMoveData> >,0> >::_Parent
  000d6	83 c4 04	 add	 esp, 4
  000d9	8b 00		 mov	 eax, DWORD PTR [eax]
  000db	50		 push	 eax
  000dc	e8 00 00 00 00	 call	 ?_Right@?$_Tree@V?$_Tmap_traits@PAUHWND__@@UWndMoveData@@U?$less@PAUHWND__@@@std@@V?$allocator@U?$pair@QAUHWND__@@UWndMoveData@@@std@@@4@$0A@@std@@@std@@KAAAPAU_Node@?$_Tree_nod@V?$_Tmap_traits@PAUHWND__@@UWndMoveData@@U?$less@PAUHWND__@@@std@@V?$allocator@U?$pair@QAUHWND__@@UWndMoveData@@@std@@@4@$0A@@std@@@2@PAU342@@Z ; std::_Tree<std::_Tmap_traits<HWND__ *,WndMoveData,std::less<HWND__ *>,std::allocator<std::pair<HWND__ * const,WndMoveData> >,0> >::_Right
  000e1	83 c4 04	 add	 esp, 4
  000e4	8b 4d fc	 mov	 ecx, DWORD PTR __Pnode$[ebp]
  000e7	89 08		 mov	 DWORD PTR [eax], ecx

; 1080 : 		else

  000e9	eb 1c		 jmp	 SHORT $L199285
$L199286:

; 1081 : 			_Left(_Parent(_Wherenode)) = _Pnode;

  000eb	8b 55 08	 mov	 edx, DWORD PTR __Wherenode$[ebp]
  000ee	52		 push	 edx
  000ef	e8 00 00 00 00	 call	 ?_Parent@?$_Tree@V?$_Tmap_traits@PAUHWND__@@UWndMoveData@@U?$less@PAUHWND__@@@std@@V?$allocator@U?$pair@QAUHWND__@@UWndMoveData@@@std@@@4@$0A@@std@@@std@@KAAAPAU_Node@?$_Tree_nod@V?$_Tmap_traits@PAUHWND__@@UWndMoveData@@U?$less@PAUHWND__@@@std@@V?$allocator@U?$pair@QAUHWND__@@UWndMoveData@@@std@@@4@$0A@@std@@@2@PAU342@@Z ; std::_Tree<std::_Tmap_traits<HWND__ *,WndMoveData,std::less<HWND__ *>,std::allocator<std::pair<HWND__ * const,WndMoveData> >,0> >::_Parent
  000f4	83 c4 04	 add	 esp, 4
  000f7	8b 00		 mov	 eax, DWORD PTR [eax]
  000f9	50		 push	 eax
  000fa	e8 00 00 00 00	 call	 ?_Left@?$_Tree@V?$_Tmap_traits@PAUHWND__@@UWndMoveData@@U?$less@PAUHWND__@@@std@@V?$allocator@U?$pair@QAUHWND__@@UWndMoveData@@@std@@@4@$0A@@std@@@std@@KAAAPAU_Node@?$_Tree_nod@V?$_Tmap_traits@PAUHWND__@@UWndMoveData@@U?$less@PAUHWND__@@@std@@V?$allocator@U?$pair@QAUHWND__@@UWndMoveData@@@std@@@4@$0A@@std@@@2@PAU342@@Z ; std::_Tree<std::_Tmap_traits<HWND__ *,WndMoveData,std::less<HWND__ *>,std::allocator<std::pair<HWND__ * const,WndMoveData> >,0> >::_Left
  000ff	83 c4 04	 add	 esp, 4
  00102	8b 4d fc	 mov	 ecx, DWORD PTR __Pnode$[ebp]
  00105	89 08		 mov	 DWORD PTR [eax], ecx
$L199285:

; 1082 : 
; 1083 : 		_Right(_Pnode) = _Wherenode;

  00107	8b 55 fc	 mov	 edx, DWORD PTR __Pnode$[ebp]
  0010a	52		 push	 edx
  0010b	e8 00 00 00 00	 call	 ?_Right@?$_Tree@V?$_Tmap_traits@PAUHWND__@@UWndMoveData@@U?$less@PAUHWND__@@@std@@V?$allocator@U?$pair@QAUHWND__@@UWndMoveData@@@std@@@4@$0A@@std@@@std@@KAAAPAU_Node@?$_Tree_nod@V?$_Tmap_traits@PAUHWND__@@UWndMoveData@@U?$less@PAUHWND__@@@std@@V?$allocator@U?$pair@QAUHWND__@@UWndMoveData@@@std@@@4@$0A@@std@@@2@PAU342@@Z ; std::_Tree<std::_Tmap_traits<HWND__ *,WndMoveData,std::less<HWND__ *>,std::allocator<std::pair<HWND__ * const,WndMoveData> >,0> >::_Right
  00110	83 c4 04	 add	 esp, 4
  00113	8b 4d 08	 mov	 ecx, DWORD PTR __Wherenode$[ebp]
  00116	89 08		 mov	 DWORD PTR [eax], ecx

; 1084 : 		_Parent(_Wherenode) = _Pnode;

  00118	8b 55 08	 mov	 edx, DWORD PTR __Wherenode$[ebp]
  0011b	52		 push	 edx
  0011c	e8 00 00 00 00	 call	 ?_Parent@?$_Tree@V?$_Tmap_traits@PAUHWND__@@UWndMoveData@@U?$less@PAUHWND__@@@std@@V?$allocator@U?$pair@QAUHWND__@@UWndMoveData@@@std@@@4@$0A@@std@@@std@@KAAAPAU_Node@?$_Tree_nod@V?$_Tmap_traits@PAUHWND__@@UWndMoveData@@U?$less@PAUHWND__@@@std@@V?$allocator@U?$pair@QAUHWND__@@UWndMoveData@@@std@@@4@$0A@@std@@@2@PAU342@@Z ; std::_Tree<std::_Tmap_traits<HWND__ *,WndMoveData,std::less<HWND__ *>,std::allocator<std::pair<HWND__ * const,WndMoveData> >,0> >::_Parent
  00121	83 c4 04	 add	 esp, 4
  00124	8b 4d fc	 mov	 ecx, DWORD PTR __Pnode$[ebp]
  00127	89 08		 mov	 DWORD PTR [eax], ecx

; 1085 : 		}

  00129	5e		 pop	 esi
  0012a	8b e5		 mov	 esp, ebp
  0012c	5d		 pop	 ebp
  0012d	c2 04 00	 ret	 4
?_Rrotate@?$_Tree@V?$_Tmap_traits@PAUHWND__@@UWndMoveData@@U?$less@PAUHWND__@@@std@@V?$allocator@U?$pair@QAUHWND__@@UWndMoveData@@@std@@@4@$0A@@std@@@std@@IAEXPAU_Node@?$_Tree_nod@V?$_Tmap_traits@PAUHWND__@@UWndMoveData@@U?$less@PAUHWND__@@@std@@V?$allocator@U?$pair@QAUHWND__@@UWndMoveData@@@std@@@4@$0A@@std@@@2@@Z ENDP ; std::_Tree<std::_Tmap_traits<HWND__ *,WndMoveData,std::less<HWND__ *>,std::allocator<std::pair<HWND__ * const,WndMoveData> >,0> >::_Rrotate
_TEXT	ENDS
PUBLIC	?construct@?$allocator@PAU_Node@?$_Tree_nod@V?$_Tmap_traits@PAUHWND__@@UWndMoveData@@U?$less@PAUHWND__@@@std@@V?$allocator@U?$pair@QAUHWND__@@UWndMoveData@@@std@@@4@$0A@@std@@@std@@@std@@QAEXPAPAU_Node@?$_Tree_nod@V?$_Tmap_traits@PAUHWND__@@UWndMoveData@@U?$less@PAUHWND__@@@std@@V?$allocator@U?$pair@QAUHWND__@@UWndMoveData@@@std@@@4@$0A@@std@@@2@ABQAU342@@Z ; std::allocator<std::_Tree_nod<std::_Tmap_traits<HWND__ *,WndMoveData,std::less<HWND__ *>,std::allocator<std::pair<HWND__ * const,WndMoveData> >,0> >::_Node *>::construct
PUBLIC	?allocate@?$allocator@U_Node@?$_Tree_nod@V?$_Tmap_traits@PAUHWND__@@UWndMoveData@@U?$less@PAUHWND__@@@std@@V?$allocator@U?$pair@QAUHWND__@@UWndMoveData@@@std@@@4@$0A@@std@@@std@@@std@@QAEPAU_Node@?$_Tree_nod@V?$_Tmap_traits@PAUHWND__@@UWndMoveData@@U?$less@PAUHWND__@@@std@@V?$allocator@U?$pair@QAUHWND__@@UWndMoveData@@@std@@@4@$0A@@std@@@2@I@Z ; std::allocator<std::_Tree_nod<std::_Tmap_traits<HWND__ *,WndMoveData,std::less<HWND__ *>,std::allocator<std::pair<HWND__ * const,WndMoveData> >,0> >::_Node>::allocate
;	COMDAT xdata$x
xdata$x	SEGMENT
$T200196 DD	0ffffffffH
	DD	00H
	DD	0ffffffffH
	DD	00H
$T200198 DD	00H
	DD	00H
	DD	00H
	DD	FLAT:$L200192
$T200197 DD	00H
	DD	00H
	DD	01H
	DD	01H
	DD	FLAT:$T200198
$T200194 DD	019930520H
	DD	02H
	DD	FLAT:$T200196
	DD	01H
	DD	FLAT:$T200197
	DD	2 DUP(00H)
; Function compile flags: /Odt
xdata$x	ENDS
;	COMDAT ?_Buynode@?$_Tree@V?$_Tmap_traits@PAUHWND__@@UWndMoveData@@U?$less@PAUHWND__@@@std@@V?$allocator@U?$pair@QAUHWND__@@UWndMoveData@@@std@@@4@$0A@@std@@@std@@IAEPAU_Node@?$_Tree_nod@V?$_Tmap_traits@PAUHWND__@@UWndMoveData@@U?$less@PAUHWND__@@@std@@V?$allocator@U?$pair@QAUHWND__@@UWndMoveData@@@std@@@4@$0A@@std@@@2@XZ
_TEXT	SEGMENT
tv145 = -52						; size = 4
tv144 = -48						; size = 4
tv143 = -44						; size = 4
_this$ = -40						; size = 4
$T200190 = -36						; size = 4
$T200189 = -32						; size = 4
$T200188 = -28						; size = 4
__Wherenode$ = -24					; size = 4
__Linkcnt$ = -20					; size = 4
__$EHRec$ = -16						; size = 16
?_Buynode@?$_Tree@V?$_Tmap_traits@PAUHWND__@@UWndMoveData@@U?$less@PAUHWND__@@@std@@V?$allocator@U?$pair@QAUHWND__@@UWndMoveData@@@std@@@4@$0A@@std@@@std@@IAEPAU_Node@?$_Tree_nod@V?$_Tmap_traits@PAUHWND__@@UWndMoveData@@U?$less@PAUHWND__@@@std@@V?$allocator@U?$pair@QAUHWND__@@UWndMoveData@@@std@@@4@$0A@@std@@@2@XZ PROC NEAR ; std::_Tree<std::_Tmap_traits<HWND__ *,WndMoveData,std::less<HWND__ *>,std::allocator<std::pair<HWND__ * const,WndMoveData> >,0> >::_Buynode, COMDAT
; _this$ = ecx

; 1105 : 		{	// allocate a head/nil node

  00000	55		 push	 ebp
  00001	8b ec		 mov	 ebp, esp
  00003	6a ff		 push	 -1
  00005	68 00 00 00 00	 push	 __ehhandler$?_Buynode@?$_Tree@V?$_Tmap_traits@PAUHWND__@@UWndMoveData@@U?$less@PAUHWND__@@@std@@V?$allocator@U?$pair@QAUHWND__@@UWndMoveData@@@std@@@4@$0A@@std@@@std@@IAEPAU_Node@?$_Tree_nod@V?$_Tmap_traits@PAUHWND__@@UWndMoveData@@U?$less@PAUHWND__@@@std@@V?$allocator@U?$pair@QAUHWND__@@UWndMoveData@@@std@@@4@$0A@@std@@@2@XZ
  0000a	64 a1 00 00 00
	00		 mov	 eax, DWORD PTR fs:__except_list
  00010	50		 push	 eax
  00011	64 89 25 00 00
	00 00		 mov	 DWORD PTR fs:__except_list, esp
  00018	51		 push	 ecx
  00019	83 ec 24	 sub	 esp, 36			; 00000024H
  0001c	53		 push	 ebx
  0001d	56		 push	 esi
  0001e	57		 push	 edi
  0001f	89 65 f0	 mov	 DWORD PTR __$EHRec$[ebp], esp
  00022	89 4d d8	 mov	 DWORD PTR _this$[ebp], ecx

; 1106 : 		_Nodeptr _Wherenode = this->_Alnod.allocate(1);

  00025	6a 01		 push	 1
  00027	8b 4d d8	 mov	 ecx, DWORD PTR _this$[ebp]
  0002a	83 c1 01	 add	 ecx, 1
  0002d	e8 00 00 00 00	 call	 ?allocate@?$allocator@U_Node@?$_Tree_nod@V?$_Tmap_traits@PAUHWND__@@UWndMoveData@@U?$less@PAUHWND__@@@std@@V?$allocator@U?$pair@QAUHWND__@@UWndMoveData@@@std@@@4@$0A@@std@@@std@@@std@@QAEPAU_Node@?$_Tree_nod@V?$_Tmap_traits@PAUHWND__@@UWndMoveData@@U?$less@PAUHWND__@@@std@@V?$allocator@U?$pair@QAUHWND__@@UWndMoveData@@@std@@@4@$0A@@std@@@2@I@Z ; std::allocator<std::_Tree_nod<std::_Tmap_traits<HWND__ *,WndMoveData,std::less<HWND__ *>,std::allocator<std::pair<HWND__ * const,WndMoveData> >,0> >::_Node>::allocate
  00032	89 45 e8	 mov	 DWORD PTR __Wherenode$[ebp], eax

; 1107 : 		int _Linkcnt = 0;

  00035	c7 45 ec 00 00
	00 00		 mov	 DWORD PTR __Linkcnt$[ebp], 0

; 1108 : 
; 1109 : 		_TRY_BEGIN

  0003c	c7 45 fc 00 00
	00 00		 mov	 DWORD PTR __$EHRec$[ebp+12], 0

; 1110 : 		this->_Alptr.construct(&_Left(_Wherenode), 0);

  00043	c7 45 e4 00 00
	00 00		 mov	 DWORD PTR $T200188[ebp], 0
  0004a	8b 45 e8	 mov	 eax, DWORD PTR __Wherenode$[ebp]
  0004d	50		 push	 eax
  0004e	e8 00 00 00 00	 call	 ?_Left@?$_Tree@V?$_Tmap_traits@PAUHWND__@@UWndMoveData@@U?$less@PAUHWND__@@@std@@V?$allocator@U?$pair@QAUHWND__@@UWndMoveData@@@std@@@4@$0A@@std@@@std@@KAAAPAU_Node@?$_Tree_nod@V?$_Tmap_traits@PAUHWND__@@UWndMoveData@@U?$less@PAUHWND__@@@std@@V?$allocator@U?$pair@QAUHWND__@@UWndMoveData@@@std@@@4@$0A@@std@@@2@PAU342@@Z ; std::_Tree<std::_Tmap_traits<HWND__ *,WndMoveData,std::less<HWND__ *>,std::allocator<std::pair<HWND__ * const,WndMoveData> >,0> >::_Left
  00053	83 c4 04	 add	 esp, 4
  00056	89 45 d4	 mov	 DWORD PTR tv143[ebp], eax
  00059	8d 4d e4	 lea	 ecx, DWORD PTR $T200188[ebp]
  0005c	51		 push	 ecx
  0005d	8b 55 d4	 mov	 edx, DWORD PTR tv143[ebp]
  00060	52		 push	 edx
  00061	8b 4d d8	 mov	 ecx, DWORD PTR _this$[ebp]
  00064	83 c1 02	 add	 ecx, 2
  00067	e8 00 00 00 00	 call	 ?construct@?$allocator@PAU_Node@?$_Tree_nod@V?$_Tmap_traits@PAUHWND__@@UWndMoveData@@U?$less@PAUHWND__@@@std@@V?$allocator@U?$pair@QAUHWND__@@UWndMoveData@@@std@@@4@$0A@@std@@@std@@@std@@QAEXPAPAU_Node@?$_Tree_nod@V?$_Tmap_traits@PAUHWND__@@UWndMoveData@@U?$less@PAUHWND__@@@std@@V?$allocator@U?$pair@QAUHWND__@@UWndMoveData@@@std@@@4@$0A@@std@@@2@ABQAU342@@Z ; std::allocator<std::_Tree_nod<std::_Tmap_traits<HWND__ *,WndMoveData,std::less<HWND__ *>,std::allocator<std::pair<HWND__ * const,WndMoveData> >,0> >::_Node *>::construct

; 1111 : 		++_Linkcnt;

  0006c	8b 45 ec	 mov	 eax, DWORD PTR __Linkcnt$[ebp]
  0006f	83 c0 01	 add	 eax, 1
  00072	89 45 ec	 mov	 DWORD PTR __Linkcnt$[ebp], eax

; 1112 : 		this->_Alptr.construct(&_Parent(_Wherenode), 0);

  00075	c7 45 e0 00 00
	00 00		 mov	 DWORD PTR $T200189[ebp], 0
  0007c	8b 4d e8	 mov	 ecx, DWORD PTR __Wherenode$[ebp]
  0007f	51		 push	 ecx
  00080	e8 00 00 00 00	 call	 ?_Parent@?$_Tree@V?$_Tmap_traits@PAUHWND__@@UWndMoveData@@U?$less@PAUHWND__@@@std@@V?$allocator@U?$pair@QAUHWND__@@UWndMoveData@@@std@@@4@$0A@@std@@@std@@KAAAPAU_Node@?$_Tree_nod@V?$_Tmap_traits@PAUHWND__@@UWndMoveData@@U?$less@PAUHWND__@@@std@@V?$allocator@U?$pair@QAUHWND__@@UWndMoveData@@@std@@@4@$0A@@std@@@2@PAU342@@Z ; std::_Tree<std::_Tmap_traits<HWND__ *,WndMoveData,std::less<HWND__ *>,std::allocator<std::pair<HWND__ * const,WndMoveData> >,0> >::_Parent
  00085	83 c4 04	 add	 esp, 4
  00088	89 45 d0	 mov	 DWORD PTR tv144[ebp], eax
  0008b	8d 55 e0	 lea	 edx, DWORD PTR $T200189[ebp]
  0008e	52		 push	 edx
  0008f	8b 45 d0	 mov	 eax, DWORD PTR tv144[ebp]
  00092	50		 push	 eax
  00093	8b 4d d8	 mov	 ecx, DWORD PTR _this$[ebp]
  00096	83 c1 02	 add	 ecx, 2
  00099	e8 00 00 00 00	 call	 ?construct@?$allocator@PAU_Node@?$_Tree_nod@V?$_Tmap_traits@PAUHWND__@@UWndMoveData@@U?$less@PAUHWND__@@@std@@V?$allocator@U?$pair@QAUHWND__@@UWndMoveData@@@std@@@4@$0A@@std@@@std@@@std@@QAEXPAPAU_Node@?$_Tree_nod@V?$_Tmap_traits@PAUHWND__@@UWndMoveData@@U?$less@PAUHWND__@@@std@@V?$allocator@U?$pair@QAUHWND__@@UWndMoveData@@@std@@@4@$0A@@std@@@2@ABQAU342@@Z ; std::allocator<std::_Tree_nod<std::_Tmap_traits<HWND__ *,WndMoveData,std::less<HWND__ *>,std::allocator<std::pair<HWND__ * const,WndMoveData> >,0> >::_Node *>::construct

; 1113 : 		++_Linkcnt;

  0009e	8b 4d ec	 mov	 ecx, DWORD PTR __Linkcnt$[ebp]
  000a1	83 c1 01	 add	 ecx, 1
  000a4	89 4d ec	 mov	 DWORD PTR __Linkcnt$[ebp], ecx

; 1114 : 		this->_Alptr.construct(&_Right(_Wherenode), 0);

  000a7	c7 45 dc 00 00
	00 00		 mov	 DWORD PTR $T200190[ebp], 0
  000ae	8b 55 e8	 mov	 edx, DWORD PTR __Wherenode$[ebp]
  000b1	52		 push	 edx
  000b2	e8 00 00 00 00	 call	 ?_Right@?$_Tree@V?$_Tmap_traits@PAUHWND__@@UWndMoveData@@U?$less@PAUHWND__@@@std@@V?$allocator@U?$pair@QAUHWND__@@UWndMoveData@@@std@@@4@$0A@@std@@@std@@KAAAPAU_Node@?$_Tree_nod@V?$_Tmap_traits@PAUHWND__@@UWndMoveData@@U?$less@PAUHWND__@@@std@@V?$allocator@U?$pair@QAUHWND__@@UWndMoveData@@@std@@@4@$0A@@std@@@2@PAU342@@Z ; std::_Tree<std::_Tmap_traits<HWND__ *,WndMoveData,std::less<HWND__ *>,std::allocator<std::pair<HWND__ * const,WndMoveData> >,0> >::_Right
  000b7	83 c4 04	 add	 esp, 4
  000ba	89 45 cc	 mov	 DWORD PTR tv145[ebp], eax
  000bd	8d 45 dc	 lea	 eax, DWORD PTR $T200190[ebp]
  000c0	50		 push	 eax
  000c1	8b 4d cc	 mov	 ecx, DWORD PTR tv145[ebp]
  000c4	51		 push	 ecx
  000c5	8b 4d d8	 mov	 ecx, DWORD PTR _this$[ebp]
  000c8	83 c1 02	 add	 ecx, 2
  000cb	e8 00 00 00 00	 call	 ?construct@?$allocator@PAU_Node@?$_Tree_nod@V?$_Tmap_traits@PAUHWND__@@UWndMoveData@@U?$less@PAUHWND__@@@std@@V?$allocator@U?$pair@QAUHWND__@@UWndMoveData@@@std@@@4@$0A@@std@@@std@@@std@@QAEXPAPAU_Node@?$_Tree_nod@V?$_Tmap_traits@PAUHWND__@@UWndMoveData@@U?$less@PAUHWND__@@@std@@V?$allocator@U?$pair@QAUHWND__@@UWndMoveData@@@std@@@4@$0A@@std@@@2@ABQAU342@@Z ; std::allocator<std::_Tree_nod<std::_Tmap_traits<HWND__ *,WndMoveData,std::less<HWND__ *>,std::allocator<std::pair<HWND__ * const,WndMoveData> >,0> >::_Node *>::construct
  000d0	eb 56		 jmp	 SHORT $L200191
$L200192:

; 1115 : 		_CATCH_ALL
; 1116 : 		if (1 < _Linkcnt)

  000d2	83 7d ec 01	 cmp	 DWORD PTR __Linkcnt$[ebp], 1
  000d6	7e 18		 jle	 SHORT $L199296

; 1117 : 			this->_Alptr.destroy(&_Parent(_Wherenode));

  000d8	8b 55 e8	 mov	 edx, DWORD PTR __Wherenode$[ebp]
  000db	52		 push	 edx
  000dc	e8 00 00 00 00	 call	 ?_Parent@?$_Tree@V?$_Tmap_traits@PAUHWND__@@UWndMoveData@@U?$less@PAUHWND__@@@std@@V?$allocator@U?$pair@QAUHWND__@@UWndMoveData@@@std@@@4@$0A@@std@@@std@@KAAAPAU_Node@?$_Tree_nod@V?$_Tmap_traits@PAUHWND__@@UWndMoveData@@U?$less@PAUHWND__@@@std@@V?$allocator@U?$pair@QAUHWND__@@UWndMoveData@@@std@@@4@$0A@@std@@@2@PAU342@@Z ; std::_Tree<std::_Tmap_traits<HWND__ *,WndMoveData,std::less<HWND__ *>,std::allocator<std::pair<HWND__ * const,WndMoveData> >,0> >::_Parent
  000e1	83 c4 04	 add	 esp, 4
  000e4	50		 push	 eax
  000e5	8b 4d d8	 mov	 ecx, DWORD PTR _this$[ebp]
  000e8	83 c1 02	 add	 ecx, 2
  000eb	e8 00 00 00 00	 call	 ?destroy@?$allocator@PAU_Node@?$_Tree_nod@V?$_Tmap_traits@PAUHWND__@@UWndMoveData@@U?$less@PAUHWND__@@@std@@V?$allocator@U?$pair@QAUHWND__@@UWndMoveData@@@std@@@4@$0A@@std@@@std@@@std@@QAEXPAPAU_Node@?$_Tree_nod@V?$_Tmap_traits@PAUHWND__@@UWndMoveData@@U?$less@PAUHWND__@@@std@@V?$allocator@U?$pair@QAUHWND__@@UWndMoveData@@@std@@@4@$0A@@std@@@2@@Z ; std::allocator<std::_Tree_nod<std::_Tmap_traits<HWND__ *,WndMoveData,std::less<HWND__ *>,std::allocator<std::pair<HWND__ * const,WndMoveData> >,0> >::_Node *>::destroy
$L199296:

; 1118 : 		if (0 < _Linkcnt)

  000f0	83 7d ec 00	 cmp	 DWORD PTR __Linkcnt$[ebp], 0
  000f4	7e 18		 jle	 SHORT $L199297

; 1119 : 			this->_Alptr.destroy(&_Left(_Wherenode));

  000f6	8b 45 e8	 mov	 eax, DWORD PTR __Wherenode$[ebp]
  000f9	50		 push	 eax
  000fa	e8 00 00 00 00	 call	 ?_Left@?$_Tree@V?$_Tmap_traits@PAUHWND__@@UWndMoveData@@U?$less@PAUHWND__@@@std@@V?$allocator@U?$pair@QAUHWND__@@UWndMoveData@@@std@@@4@$0A@@std@@@std@@KAAAPAU_Node@?$_Tree_nod@V?$_Tmap_traits@PAUHWND__@@UWndMoveData@@U?$less@PAUHWND__@@@std@@V?$allocator@U?$pair@QAUHWND__@@UWndMoveData@@@std@@@4@$0A@@std@@@2@PAU342@@Z ; std::_Tree<std::_Tmap_traits<HWND__ *,WndMoveData,std::less<HWND__ *>,std::allocator<std::pair<HWND__ * const,WndMoveData> >,0> >::_Left
  000ff	83 c4 04	 add	 esp, 4
  00102	50		 push	 eax
  00103	8b 4d d8	 mov	 ecx, DWORD PTR _this$[ebp]
  00106	83 c1 02	 add	 ecx, 2
  00109	e8 00 00 00 00	 call	 ?destroy@?$allocator@PAU_Node@?$_Tree_nod@V?$_Tmap_traits@PAUHWND__@@UWndMoveData@@U?$less@PAUHWND__@@@std@@V?$allocator@U?$pair@QAUHWND__@@UWndMoveData@@@std@@@4@$0A@@std@@@std@@@std@@QAEXPAPAU_Node@?$_Tree_nod@V?$_Tmap_traits@PAUHWND__@@UWndMoveData@@U?$less@PAUHWND__@@@std@@V?$allocator@U?$pair@QAUHWND__@@UWndMoveData@@@std@@@4@$0A@@std@@@2@@Z ; std::allocator<std::_Tree_nod<std::_Tmap_traits<HWND__ *,WndMoveData,std::less<HWND__ *>,std::allocator<std::pair<HWND__ * const,WndMoveData> >,0> >::_Node *>::destroy
$L199297:

; 1120 : 		this->_Alnod.deallocate(_Wherenode, 1);

  0010e	6a 01		 push	 1
  00110	8b 4d e8	 mov	 ecx, DWORD PTR __Wherenode$[ebp]
  00113	51		 push	 ecx
  00114	8b 4d d8	 mov	 ecx, DWORD PTR _this$[ebp]
  00117	83 c1 01	 add	 ecx, 1
  0011a	e8 00 00 00 00	 call	 ?deallocate@?$allocator@U_Node@?$_Tree_nod@V?$_Tmap_traits@PAUHWND__@@UWndMoveData@@U?$less@PAUHWND__@@@std@@V?$allocator@U?$pair@QAUHWND__@@UWndMoveData@@@std@@@4@$0A@@std@@@std@@@std@@QAEXPAU_Node@?$_Tree_nod@V?$_Tmap_traits@PAUHWND__@@UWndMoveData@@U?$less@PAUHWND__@@@std@@V?$allocator@U?$pair@QAUHWND__@@UWndMoveData@@@std@@@4@$0A@@std@@@2@I@Z ; std::allocator<std::_Tree_nod<std::_Tmap_traits<HWND__ *,WndMoveData,std::less<HWND__ *>,std::allocator<std::pair<HWND__ * const,WndMoveData> >,0> >::_Node>::deallocate

; 1121 : 		_RERAISE;

  0011f	6a 00		 push	 0
  00121	6a 00		 push	 0
  00123	e8 00 00 00 00	 call	 __CxxThrowException@8
$L200191:

; 1122 : 		_CATCH_END

  00128	c7 45 fc ff ff
	ff ff		 mov	 DWORD PTR __$EHRec$[ebp+12], -1

; 1123 : 		_Color(_Wherenode) = _Black;

  0012f	8b 55 e8	 mov	 edx, DWORD PTR __Wherenode$[ebp]
  00132	52		 push	 edx
  00133	e8 00 00 00 00	 call	 ?_Color@?$_Tree@V?$_Tmap_traits@PAUHWND__@@UWndMoveData@@U?$less@PAUHWND__@@@std@@V?$allocator@U?$pair@QAUHWND__@@UWndMoveData@@@std@@@4@$0A@@std@@@std@@KAAADPAU_Node@?$_Tree_nod@V?$_Tmap_traits@PAUHWND__@@UWndMoveData@@U?$less@PAUHWND__@@@std@@V?$allocator@U?$pair@QAUHWND__@@UWndMoveData@@@std@@@4@$0A@@std@@@2@@Z ; std::_Tree<std::_Tmap_traits<HWND__ *,WndMoveData,std::less<HWND__ *>,std::allocator<std::pair<HWND__ * const,WndMoveData> >,0> >::_Color
  00138	83 c4 04	 add	 esp, 4
  0013b	c6 00 01	 mov	 BYTE PTR [eax], 1

; 1124 : 		_Isnil(_Wherenode) = false;

  0013e	8b 45 e8	 mov	 eax, DWORD PTR __Wherenode$[ebp]
  00141	50		 push	 eax
  00142	e8 00 00 00 00	 call	 ?_Isnil@?$_Tree@V?$_Tmap_traits@PAUHWND__@@UWndMoveData@@U?$less@PAUHWND__@@@std@@V?$allocator@U?$pair@QAUHWND__@@UWndMoveData@@@std@@@4@$0A@@std@@@std@@KAAADPAU_Node@?$_Tree_nod@V?$_Tmap_traits@PAUHWND__@@UWndMoveData@@U?$less@PAUHWND__@@@std@@V?$allocator@U?$pair@QAUHWND__@@UWndMoveData@@@std@@@4@$0A@@std@@@2@@Z ; std::_Tree<std::_Tmap_traits<HWND__ *,WndMoveData,std::less<HWND__ *>,std::allocator<std::pair<HWND__ * const,WndMoveData> >,0> >::_Isnil
  00147	83 c4 04	 add	 esp, 4
  0014a	c6 00 00	 mov	 BYTE PTR [eax], 0

; 1125 : 		return (_Wherenode);

  0014d	8b 45 e8	 mov	 eax, DWORD PTR __Wherenode$[ebp]
$L200187:

; 1126 : 		}

  00150	8b 4d f4	 mov	 ecx, DWORD PTR __$EHRec$[ebp+4]
  00153	64 89 0d 00 00
	00 00		 mov	 DWORD PTR fs:__except_list, ecx
  0015a	5f		 pop	 edi
  0015b	5e		 pop	 esi
  0015c	5b		 pop	 ebx
  0015d	8b e5		 mov	 esp, ebp
  0015f	5d		 pop	 ebp
  00160	c3		 ret	 0
_TEXT	ENDS
;	COMDAT text$x
text$x	SEGMENT
__ehhandler$?_Buynode@?$_Tree@V?$_Tmap_traits@PAUHWND__@@UWndMoveData@@U?$less@PAUHWND__@@@std@@V?$allocator@U?$pair@QAUHWND__@@UWndMoveData@@@std@@@4@$0A@@std@@@std@@IAEPAU_Node@?$_Tree_nod@V?$_Tmap_traits@PAUHWND__@@UWndMoveData@@U?$less@PAUHWND__@@@std@@V?$allocator@U?$pair@QAUHWND__@@UWndMoveData@@@std@@@4@$0A@@std@@@2@XZ:
  00000	b8 00 00 00 00	 mov	 eax, OFFSET FLAT:$T200194
  00005	e9 00 00 00 00	 jmp	 ___CxxFrameHandler
text$x	ENDS
?_Buynode@?$_Tree@V?$_Tmap_traits@PAUHWND__@@UWndMoveData@@U?$less@PAUHWND__@@@std@@V?$allocator@U?$pair@QAUHWND__@@UWndMoveData@@@std@@@4@$0A@@std@@@std@@IAEPAU_Node@?$_Tree_nod@V?$_Tmap_traits@PAUHWND__@@UWndMoveData@@U?$less@PAUHWND__@@@std@@V?$allocator@U?$pair@QAUHWND__@@UWndMoveData@@@std@@@4@$0A@@std@@@2@XZ ENDP ; std::_Tree<std::_Tmap_traits<HWND__ *,WndMoveData,std::less<HWND__ *>,std::allocator<std::pair<HWND__ * const,WndMoveData> >,0> >::_Buynode
PUBLIC	??2@YAPAXIPAX@Z					; operator new
PUBLIC	??3@YAXPAX0@Z					; operator delete
PUBLIC	??0_Node@?$_Tree_nod@V?$_Tmap_traits@PAUHWND__@@UWndMoveData@@U?$less@PAUHWND__@@@std@@V?$allocator@U?$pair@QAUHWND__@@UWndMoveData@@@std@@@4@$0A@@std@@@std@@QAE@PAU012@00ABU?$pair@QAUHWND__@@UWndMoveData@@@2@D@Z ; std::_Tree_nod<std::_Tmap_traits<HWND__ *,WndMoveData,std::less<HWND__ *>,std::allocator<std::pair<HWND__ * const,WndMoveData> >,0> >::_Node::_Node
;	COMDAT xdata$x
xdata$x	SEGMENT
$T200213 DD	0ffffffffH
	DD	00H
	DD	00H
	DD	FLAT:$L200209
	DD	0ffffffffH
	DD	00H
$T200215 DD	00H
	DD	00H
	DD	00H
	DD	FLAT:$L200208
$T200214 DD	00H
	DD	01H
	DD	02H
	DD	01H
	DD	FLAT:$T200215
$T200211 DD	019930520H
	DD	03H
	DD	FLAT:$T200213
	DD	01H
	DD	FLAT:$T200214
	DD	2 DUP(00H)
; Function compile flags: /Odt
xdata$x	ENDS
;	COMDAT ?_Buynode@?$_Tree@V?$_Tmap_traits@PAUHWND__@@UWndMoveData@@U?$less@PAUHWND__@@@std@@V?$allocator@U?$pair@QAUHWND__@@UWndMoveData@@@std@@@4@$0A@@std@@@std@@IAEPAU_Node@?$_Tree_nod@V?$_Tmap_traits@PAUHWND__@@UWndMoveData@@U?$less@PAUHWND__@@@std@@V?$allocator@U?$pair@QAUHWND__@@UWndMoveData@@@std@@@4@$0A@@std@@@2@PAU342@00ABU?$pair@QAUHWND__@@UWndMoveData@@@2@D@Z
_TEXT	SEGMENT
tv82 = -44						; size = 4
tv94 = -40						; size = 4
tv91 = -36						; size = 4
_this$ = -32						; size = 4
$T200204 = -28						; size = 4
$T200203 = -24						; size = 4
__Wherenode$ = -20					; size = 4
__$EHRec$ = -16						; size = 16
__Larg$ = 8						; size = 4
__Parg$ = 12						; size = 4
__Rarg$ = 16						; size = 4
__Val$ = 20						; size = 4
__Carg$ = 24						; size = 1
?_Buynode@?$_Tree@V?$_Tmap_traits@PAUHWND__@@UWndMoveData@@U?$less@PAUHWND__@@@std@@V?$allocator@U?$pair@QAUHWND__@@UWndMoveData@@@std@@@4@$0A@@std@@@std@@IAEPAU_Node@?$_Tree_nod@V?$_Tmap_traits@PAUHWND__@@UWndMoveData@@U?$less@PAUHWND__@@@std@@V?$allocator@U?$pair@QAUHWND__@@UWndMoveData@@@std@@@4@$0A@@std@@@2@PAU342@00ABU?$pair@QAUHWND__@@UWndMoveData@@@2@D@Z PROC NEAR ; std::_Tree<std::_Tmap_traits<HWND__ *,WndMoveData,std::less<HWND__ *>,std::allocator<std::pair<HWND__ * const,WndMoveData> >,0> >::_Buynode, COMDAT
; _this$ = ecx

; 1130 : 		{	// allocate a node with pointers, value, and color

  00000	55		 push	 ebp
  00001	8b ec		 mov	 ebp, esp
  00003	6a ff		 push	 -1
  00005	68 00 00 00 00	 push	 __ehhandler$?_Buynode@?$_Tree@V?$_Tmap_traits@PAUHWND__@@UWndMoveData@@U?$less@PAUHWND__@@@std@@V?$allocator@U?$pair@QAUHWND__@@UWndMoveData@@@std@@@4@$0A@@std@@@std@@IAEPAU_Node@?$_Tree_nod@V?$_Tmap_traits@PAUHWND__@@UWndMoveData@@U?$less@PAUHWND__@@@std@@V?$allocator@U?$pair@QAUHWND__@@UWndMoveData@@@std@@@4@$0A@@std@@@2@PAU342@00ABU?$pair@QAUHWND__@@UWndMoveData@@@2@D@Z
  0000a	64 a1 00 00 00
	00		 mov	 eax, DWORD PTR fs:__except_list
  00010	50		 push	 eax
  00011	64 89 25 00 00
	00 00		 mov	 DWORD PTR fs:__except_list, esp
  00018	51		 push	 ecx
  00019	83 ec 1c	 sub	 esp, 28			; 0000001cH
  0001c	53		 push	 ebx
  0001d	56		 push	 esi
  0001e	57		 push	 edi
  0001f	89 65 f0	 mov	 DWORD PTR __$EHRec$[ebp], esp
  00022	89 4d e0	 mov	 DWORD PTR _this$[ebp], ecx

; 1131 : 		_Nodeptr _Wherenode = this->_Alnod.allocate(1);

  00025	6a 01		 push	 1
  00027	8b 4d e0	 mov	 ecx, DWORD PTR _this$[ebp]
  0002a	83 c1 01	 add	 ecx, 1
  0002d	e8 00 00 00 00	 call	 ?allocate@?$allocator@U_Node@?$_Tree_nod@V?$_Tmap_traits@PAUHWND__@@UWndMoveData@@U?$less@PAUHWND__@@@std@@V?$allocator@U?$pair@QAUHWND__@@UWndMoveData@@@std@@@4@$0A@@std@@@std@@@std@@QAEPAU_Node@?$_Tree_nod@V?$_Tmap_traits@PAUHWND__@@UWndMoveData@@U?$less@PAUHWND__@@@std@@V?$allocator@U?$pair@QAUHWND__@@UWndMoveData@@@std@@@4@$0A@@std@@@2@I@Z ; std::allocator<std::_Tree_nod<std::_Tmap_traits<HWND__ *,WndMoveData,std::less<HWND__ *>,std::allocator<std::pair<HWND__ * const,WndMoveData> >,0> >::_Node>::allocate
  00032	89 45 ec	 mov	 DWORD PTR __Wherenode$[ebp], eax

; 1132 : 		_TRY_BEGIN

  00035	c7 45 fc 00 00
	00 00		 mov	 DWORD PTR __$EHRec$[ebp+12], 0

; 1133 : 		new (_Wherenode) _Node(_Larg, _Parg, _Rarg, _Val, _Carg);

  0003c	8b 45 ec	 mov	 eax, DWORD PTR __Wherenode$[ebp]
  0003f	50		 push	 eax
  00040	6a 30		 push	 48			; 00000030H
  00042	e8 00 00 00 00	 call	 ??2@YAPAXIPAX@Z		; operator new
  00047	83 c4 08	 add	 esp, 8
  0004a	89 45 dc	 mov	 DWORD PTR tv91[ebp], eax
  0004d	8b 4d dc	 mov	 ecx, DWORD PTR tv91[ebp]
  00050	89 4d e4	 mov	 DWORD PTR $T200204[ebp], ecx
  00053	c6 45 fc 01	 mov	 BYTE PTR __$EHRec$[ebp+12], 1
  00057	83 7d e4 00	 cmp	 DWORD PTR $T200204[ebp], 0
  0005b	74 27		 je	 SHORT $L200205
  0005d	8a 55 18	 mov	 dl, BYTE PTR __Carg$[ebp]
  00060	52		 push	 edx
  00061	8b 45 14	 mov	 eax, DWORD PTR __Val$[ebp]
  00064	50		 push	 eax
  00065	8b 4d 10	 mov	 ecx, DWORD PTR __Rarg$[ebp]
  00068	51		 push	 ecx
  00069	8b 55 0c	 mov	 edx, DWORD PTR __Parg$[ebp]
  0006c	52		 push	 edx
  0006d	8b 45 08	 mov	 eax, DWORD PTR __Larg$[ebp]
  00070	50		 push	 eax
  00071	8b 4d e4	 mov	 ecx, DWORD PTR $T200204[ebp]
  00074	e8 00 00 00 00	 call	 ??0_Node@?$_Tree_nod@V?$_Tmap_traits@PAUHWND__@@UWndMoveData@@U?$less@PAUHWND__@@@std@@V?$allocator@U?$pair@QAUHWND__@@UWndMoveData@@@std@@@4@$0A@@std@@@std@@QAE@PAU012@00ABU?$pair@QAUHWND__@@UWndMoveData@@@2@D@Z ; std::_Tree_nod<std::_Tmap_traits<HWND__ *,WndMoveData,std::less<HWND__ *>,std::allocator<std::pair<HWND__ * const,WndMoveData> >,0> >::_Node::_Node
  00079	89 45 d8	 mov	 DWORD PTR tv94[ebp], eax
  0007c	8b 4d d8	 mov	 ecx, DWORD PTR tv94[ebp]
  0007f	89 4d d4	 mov	 DWORD PTR tv82[ebp], ecx
  00082	eb 07		 jmp	 SHORT $L200206
$L200205:
  00084	c7 45 d4 00 00
	00 00		 mov	 DWORD PTR tv82[ebp], 0
$L200206:
  0008b	8b 55 d4	 mov	 edx, DWORD PTR tv82[ebp]
  0008e	89 55 e8	 mov	 DWORD PTR $T200203[ebp], edx
  00091	c6 45 fc 00	 mov	 BYTE PTR __$EHRec$[ebp+12], 0
  00095	eb 1a		 jmp	 SHORT $L200207
$L200208:

; 1134 : 		_CATCH_ALL
; 1135 : 		this->_Alnod.deallocate(_Wherenode, 1);

  00097	6a 01		 push	 1
  00099	8b 45 ec	 mov	 eax, DWORD PTR __Wherenode$[ebp]
  0009c	50		 push	 eax
  0009d	8b 4d e0	 mov	 ecx, DWORD PTR _this$[ebp]
  000a0	83 c1 01	 add	 ecx, 1
  000a3	e8 00 00 00 00	 call	 ?deallocate@?$allocator@U_Node@?$_Tree_nod@V?$_Tmap_traits@PAUHWND__@@UWndMoveData@@U?$less@PAUHWND__@@@std@@V?$allocator@U?$pair@QAUHWND__@@UWndMoveData@@@std@@@4@$0A@@std@@@std@@@std@@QAEXPAU_Node@?$_Tree_nod@V?$_Tmap_traits@PAUHWND__@@UWndMoveData@@U?$less@PAUHWND__@@@std@@V?$allocator@U?$pair@QAUHWND__@@UWndMoveData@@@std@@@4@$0A@@std@@@2@I@Z ; std::allocator<std::_Tree_nod<std::_Tmap_traits<HWND__ *,WndMoveData,std::less<HWND__ *>,std::allocator<std::pair<HWND__ * const,WndMoveData> >,0> >::_Node>::deallocate

; 1136 : 		_RERAISE;

  000a8	6a 00		 push	 0
  000aa	6a 00		 push	 0
  000ac	e8 00 00 00 00	 call	 __CxxThrowException@8
$L200207:

; 1137 : 		_CATCH_END

  000b1	c7 45 fc ff ff
	ff ff		 mov	 DWORD PTR __$EHRec$[ebp+12], -1

; 1138 : 		return (_Wherenode);

  000b8	8b 45 ec	 mov	 eax, DWORD PTR __Wherenode$[ebp]
$L200202:

; 1139 : 		}

  000bb	8b 4d f4	 mov	 ecx, DWORD PTR __$EHRec$[ebp+4]
  000be	64 89 0d 00 00
	00 00		 mov	 DWORD PTR fs:__except_list, ecx
  000c5	5f		 pop	 edi
  000c6	5e		 pop	 esi
  000c7	5b		 pop	 ebx
  000c8	8b e5		 mov	 esp, ebp
  000ca	5d		 pop	 ebp
  000cb	c2 14 00	 ret	 20			; 00000014H
_TEXT	ENDS
;	COMDAT text$x
text$x	SEGMENT
$L200209:
  00000	8b 45 ec	 mov	 eax, DWORD PTR __Wherenode$[ebp]
  00003	50		 push	 eax
  00004	8b 4d e4	 mov	 ecx, DWORD PTR $T200204[ebp]
  00007	51		 push	 ecx
  00008	e8 00 00 00 00	 call	 ??3@YAXPAX0@Z		; operator delete
  0000d	83 c4 08	 add	 esp, 8
  00010	c3		 ret	 0
__ehhandler$?_Buynode@?$_Tree@V?$_Tmap_traits@PAUHWND__@@UWndMoveData@@U?$less@PAUHWND__@@@std@@V?$allocator@U?$pair@QAUHWND__@@UWndMoveData@@@std@@@4@$0A@@std@@@std@@IAEPAU_Node@?$_Tree_nod@V?$_Tmap_traits@PAUHWND__@@UWndMoveData@@U?$less@PAUHWND__@@@std@@V?$allocator@U?$pair@QAUHWND__@@UWndMoveData@@@std@@@4@$0A@@std@@@2@PAU342@00ABU?$pair@QAUHWND__@@UWndMoveData@@@2@D@Z:
  00011	b8 00 00 00 00	 mov	 eax, OFFSET FLAT:$T200211
  00016	e9 00 00 00 00	 jmp	 ___CxxFrameHandler
text$x	ENDS
?_Buynode@?$_Tree@V?$_Tmap_traits@PAUHWND__@@UWndMoveData@@U?$less@PAUHWND__@@@std@@V?$allocator@U?$pair@QAUHWND__@@UWndMoveData@@@std@@@4@$0A@@std@@@std@@IAEPAU_Node@?$_Tree_nod@V?$_Tmap_traits@PAUHWND__@@UWndMoveData@@U?$less@PAUHWND__@@@std@@V?$allocator@U?$pair@QAUHWND__@@UWndMoveData@@@std@@@4@$0A@@std@@@2@PAU342@00ABU?$pair@QAUHWND__@@UWndMoveData@@@2@D@Z ENDP ; std::_Tree<std::_Tmap_traits<HWND__ *,WndMoveData,std::less<HWND__ *>,std::allocator<std::pair<HWND__ * const,WndMoveData> >,0> >::_Buynode
; Function compile flags: /Odt
; File d:\program files (x86)\microsoft visual studio .net 2003\vc7\include\new.h
;	COMDAT ??2@YAPAXIPAX@Z
_TEXT	SEGMENT
___formal$ = 8						; size = 4
__P$ = 12						; size = 4
??2@YAPAXIPAX@Z PROC NEAR				; operator new, COMDAT

; 109  :         {return (_P); }

  00000	55		 push	 ebp
  00001	8b ec		 mov	 ebp, esp
  00003	8b 45 0c	 mov	 eax, DWORD PTR __P$[ebp]
  00006	5d		 pop	 ebp
  00007	c3		 ret	 0
??2@YAPAXIPAX@Z ENDP					; operator new
; Function compile flags: /Odt
_TEXT	ENDS
;	COMDAT ??3@YAXPAX0@Z
_TEXT	SEGMENT
___formal$ = 8						; size = 4
___formal$ = 12						; size = 4
??3@YAXPAX0@Z PROC NEAR					; operator delete, COMDAT

; 112  :         {return; }

  00000	55		 push	 ebp
  00001	8b ec		 mov	 ebp, esp
  00003	5d		 pop	 ebp
  00004	c3		 ret	 0
??3@YAXPAX0@Z ENDP					; operator delete
_TEXT	ENDS
PUBLIC	??$?0U?$pair@QAUHWND__@@UWndMoveData@@@std@@@?$allocator@PAU_Node@?$_Tree_nod@V?$_Tmap_traits@PAUHWND__@@UWndMoveData@@U?$less@PAUHWND__@@@std@@V?$allocator@U?$pair@QAUHWND__@@UWndMoveData@@@std@@@4@$0A@@std@@@std@@@std@@QAE@ABV?$allocator@U?$pair@QAUHWND__@@UWndMoveData@@@std@@@1@@Z ; std::allocator<std::_Tree_nod<std::_Tmap_traits<HWND__ *,WndMoveData,std::less<HWND__ *>,std::allocator<std::pair<HWND__ * const,WndMoveData> >,0> >::_Node *>::allocator<std::_Tree_nod<std::_Tmap_traits<HWND__ *,WndMoveData,std::less<HWND__ *>,std::allocator<std::pair<HWND__ * const,WndMoveData> >,0> >::_Node *><std::pair<HWND__ * const,WndMoveData> >
PUBLIC	??0?$_Tree_nod@V?$_Tmap_traits@PAUHWND__@@UWndMoveData@@U?$less@PAUHWND__@@@std@@V?$allocator@U?$pair@QAUHWND__@@UWndMoveData@@@std@@@4@$0A@@std@@@std@@IAE@ABU?$less@PAUHWND__@@@1@V?$allocator@U?$pair@QAUHWND__@@UWndMoveData@@@std@@@1@@Z ; std::_Tree_nod<std::_Tmap_traits<HWND__ *,WndMoveData,std::less<HWND__ *>,std::allocator<std::pair<HWND__ * const,WndMoveData> >,0> >::_Tree_nod<std::_Tmap_traits<HWND__ *,WndMoveData,std::less<HWND__ *>,std::allocator<std::pair<HWND__ * const,WndMoveData> >,0> >
; Function compile flags: /Odt
; File d:\program files (x86)\microsoft visual studio .net 2003\vc7\include\xtree
;	COMDAT ??0?$_Tree_ptr@V?$_Tmap_traits@PAUHWND__@@UWndMoveData@@U?$less@PAUHWND__@@@std@@V?$allocator@U?$pair@QAUHWND__@@UWndMoveData@@@std@@@4@$0A@@std@@@std@@IAE@ABU?$less@PAUHWND__@@@1@V?$allocator@U?$pair@QAUHWND__@@UWndMoveData@@@std@@@1@@Z
_TEXT	SEGMENT
_this$ = -8						; size = 4
__Parg$ = 8						; size = 4
__Al$ = 12						; size = 1
??0?$_Tree_ptr@V?$_Tmap_traits@PAUHWND__@@UWndMoveData@@U?$less@PAUHWND__@@@std@@V?$allocator@U?$pair@QAUHWND__@@UWndMoveData@@@std@@@4@$0A@@std@@@std@@IAE@ABU?$less@PAUHWND__@@@1@V?$allocator@U?$pair@QAUHWND__@@UWndMoveData@@@std@@@1@@Z PROC NEAR ; std::_Tree_ptr<std::_Tmap_traits<HWND__ *,WndMoveData,std::less<HWND__ *>,std::allocator<std::pair<HWND__ * const,WndMoveData> >,0> >::_Tree_ptr<std::_Tmap_traits<HWND__ *,WndMoveData,std::less<HWND__ *>,std::allocator<std::pair<HWND__ * const,WndMoveData> >,0> >, COMDAT
; _this$ = ecx

; 76   : 		{	// construct base, and allocator from _Al

  00000	55		 push	 ebp
  00001	8b ec		 mov	 ebp, esp
  00003	83 ec 08	 sub	 esp, 8
  00006	89 4d f8	 mov	 DWORD PTR _this$[ebp], ecx
  00009	51		 push	 ecx
  0000a	8b cc		 mov	 ecx, esp
  0000c	8d 45 0c	 lea	 eax, DWORD PTR __Al$[ebp]
  0000f	50		 push	 eax
  00010	e8 00 00 00 00	 call	 ??0?$allocator@U?$pair@QAUHWND__@@UWndMoveData@@@std@@@std@@QAE@ABV01@@Z ; std::allocator<std::pair<HWND__ * const,WndMoveData> >::allocator<std::pair<HWND__ * const,WndMoveData> >
  00015	8b 4d 08	 mov	 ecx, DWORD PTR __Parg$[ebp]
  00018	51		 push	 ecx
  00019	8b 4d f8	 mov	 ecx, DWORD PTR _this$[ebp]
  0001c	e8 00 00 00 00	 call	 ??0?$_Tree_nod@V?$_Tmap_traits@PAUHWND__@@UWndMoveData@@U?$less@PAUHWND__@@@std@@V?$allocator@U?$pair@QAUHWND__@@UWndMoveData@@@std@@@4@$0A@@std@@@std@@IAE@ABU?$less@PAUHWND__@@@1@V?$allocator@U?$pair@QAUHWND__@@UWndMoveData@@@std@@@1@@Z ; std::_Tree_nod<std::_Tmap_traits<HWND__ *,WndMoveData,std::less<HWND__ *>,std::allocator<std::pair<HWND__ * const,WndMoveData> >,0> >::_Tree_nod<std::_Tmap_traits<HWND__ *,WndMoveData,std::less<HWND__ *>,std::allocator<std::pair<HWND__ * const,WndMoveData> >,0> >
  00021	8d 55 0c	 lea	 edx, DWORD PTR __Al$[ebp]
  00024	52		 push	 edx
  00025	8b 4d f8	 mov	 ecx, DWORD PTR _this$[ebp]
  00028	83 c1 02	 add	 ecx, 2
  0002b	e8 00 00 00 00	 call	 ??$?0U?$pair@QAUHWND__@@UWndMoveData@@@std@@@?$allocator@PAU_Node@?$_Tree_nod@V?$_Tmap_traits@PAUHWND__@@UWndMoveData@@U?$less@PAUHWND__@@@std@@V?$allocator@U?$pair@QAUHWND__@@UWndMoveData@@@std@@@4@$0A@@std@@@std@@@std@@QAE@ABV?$allocator@U?$pair@QAUHWND__@@UWndMoveData@@@std@@@1@@Z ; std::allocator<std::_Tree_nod<std::_Tmap_traits<HWND__ *,WndMoveData,std::less<HWND__ *>,std::allocator<std::pair<HWND__ * const,WndMoveData> >,0> >::_Node *>::allocator<std::_Tree_nod<std::_Tmap_traits<HWND__ *,WndMoveData,std::less<HWND__ *>,std::allocator<std::pair<HWND__ * const,WndMoveData> >,0> >::_Node *><std::pair<HWND__ * const,WndMoveData> >

; 77   : 		}

  00030	8b 45 f8	 mov	 eax, DWORD PTR _this$[ebp]
  00033	8b e5		 mov	 esp, ebp
  00035	5d		 pop	 ebp
  00036	c2 08 00	 ret	 8
??0?$_Tree_ptr@V?$_Tmap_traits@PAUHWND__@@UWndMoveData@@U?$less@PAUHWND__@@@std@@V?$allocator@U?$pair@QAUHWND__@@UWndMoveData@@@std@@@4@$0A@@std@@@std@@IAE@ABU?$less@PAUHWND__@@@1@V?$allocator@U?$pair@QAUHWND__@@UWndMoveData@@@std@@@1@@Z ENDP ; std::_Tree_ptr<std::_Tmap_traits<HWND__ *,WndMoveData,std::less<HWND__ *>,std::allocator<std::pair<HWND__ * const,WndMoveData> >,0> >::_Tree_ptr<std::_Tmap_traits<HWND__ *,WndMoveData,std::less<HWND__ *>,std::allocator<std::pair<HWND__ * const,WndMoveData> >,0> >
_TEXT	ENDS
PUBLIC	?_Dec@const_iterator@?$_Tree@V?$_Tmap_traits@PAUHWND__@@UWndMoveData@@U?$less@PAUHWND__@@@std@@V?$allocator@U?$pair@QAUHWND__@@UWndMoveData@@@std@@@4@$0A@@std@@@std@@QAEXXZ ; std::_Tree<std::_Tmap_traits<HWND__ *,WndMoveData,std::less<HWND__ *>,std::allocator<std::pair<HWND__ * const,WndMoveData> >,0> >::const_iterator::_Dec
; Function compile flags: /Odt
;	COMDAT ??Fconst_iterator@?$_Tree@V?$_Tmap_traits@PAUHWND__@@UWndMoveData@@U?$less@PAUHWND__@@@std@@V?$allocator@U?$pair@QAUHWND__@@UWndMoveData@@@std@@@4@$0A@@std@@@std@@QAEAAV012@XZ
_TEXT	SEGMENT
_this$ = -4						; size = 4
??Fconst_iterator@?$_Tree@V?$_Tmap_traits@PAUHWND__@@UWndMoveData@@U?$less@PAUHWND__@@@std@@V?$allocator@U?$pair@QAUHWND__@@UWndMoveData@@@std@@@4@$0A@@std@@@std@@QAEAAV012@XZ PROC NEAR ; std::_Tree<std::_Tmap_traits<HWND__ *,WndMoveData,std::less<HWND__ *>,std::allocator<std::pair<HWND__ * const,WndMoveData> >,0> >::const_iterator::operator--, COMDAT
; _this$ = ecx

; 227  : 			{	// predecrement

  00000	55		 push	 ebp
  00001	8b ec		 mov	 ebp, esp
  00003	51		 push	 ecx
  00004	89 4d fc	 mov	 DWORD PTR _this$[ebp], ecx

; 228  : 			_Dec();

  00007	8b 4d fc	 mov	 ecx, DWORD PTR _this$[ebp]
  0000a	e8 00 00 00 00	 call	 ?_Dec@const_iterator@?$_Tree@V?$_Tmap_traits@PAUHWND__@@UWndMoveData@@U?$less@PAUHWND__@@@std@@V?$allocator@U?$pair@QAUHWND__@@UWndMoveData@@@std@@@4@$0A@@std@@@std@@QAEXXZ ; std::_Tree<std::_Tmap_traits<HWND__ *,WndMoveData,std::less<HWND__ *>,std::allocator<std::pair<HWND__ * const,WndMoveData> >,0> >::const_iterator::_Dec

; 229  : 			return (*this);

  0000f	8b 45 fc	 mov	 eax, DWORD PTR _this$[ebp]

; 230  : 			}

  00012	8b e5		 mov	 esp, ebp
  00014	5d		 pop	 ebp
  00015	c3		 ret	 0
??Fconst_iterator@?$_Tree@V?$_Tmap_traits@PAUHWND__@@UWndMoveData@@U?$less@PAUHWND__@@@std@@V?$allocator@U?$pair@QAUHWND__@@UWndMoveData@@@std@@@4@$0A@@std@@@std@@QAEAAV012@XZ ENDP ; std::_Tree<std::_Tmap_traits<HWND__ *,WndMoveData,std::less<HWND__ *>,std::allocator<std::pair<HWND__ * const,WndMoveData> >,0> >::const_iterator::operator--
; Function compile flags: /Odt
_TEXT	ENDS
;	COMDAT ?_Inc@const_iterator@?$_Tree@V?$_Tmap_traits@PAUHWND__@@UWndMoveData@@U?$less@PAUHWND__@@@std@@V?$allocator@U?$pair@QAUHWND__@@UWndMoveData@@@std@@@4@$0A@@std@@@std@@QAEXXZ
_TEXT	SEGMENT
_this$ = -8						; size = 4
__Pnode$199321 = -4					; size = 4
?_Inc@const_iterator@?$_Tree@V?$_Tmap_traits@PAUHWND__@@UWndMoveData@@U?$less@PAUHWND__@@@std@@V?$allocator@U?$pair@QAUHWND__@@UWndMoveData@@@std@@@4@$0A@@std@@@std@@QAEXXZ PROC NEAR ; std::_Tree<std::_Tmap_traits<HWND__ *,WndMoveData,std::less<HWND__ *>,std::allocator<std::pair<HWND__ * const,WndMoveData> >,0> >::const_iterator::_Inc, COMDAT
; _this$ = ecx

; 267  : 			{	// move to node with next larger value

  00000	55		 push	 ebp
  00001	8b ec		 mov	 ebp, esp
  00003	83 ec 08	 sub	 esp, 8
  00006	89 4d f8	 mov	 DWORD PTR _this$[ebp], ecx

; 268  : 			if (_Isnil(_Ptr))

  00009	8b 45 f8	 mov	 eax, DWORD PTR _this$[ebp]
  0000c	8b 08		 mov	 ecx, DWORD PTR [eax]
  0000e	51		 push	 ecx
  0000f	e8 00 00 00 00	 call	 ?_Isnil@?$_Tree@V?$_Tmap_traits@PAUHWND__@@UWndMoveData@@U?$less@PAUHWND__@@@std@@V?$allocator@U?$pair@QAUHWND__@@UWndMoveData@@@std@@@4@$0A@@std@@@std@@KAAADPAU_Node@?$_Tree_nod@V?$_Tmap_traits@PAUHWND__@@UWndMoveData@@U?$less@PAUHWND__@@@std@@V?$allocator@U?$pair@QAUHWND__@@UWndMoveData@@@std@@@4@$0A@@std@@@2@@Z ; std::_Tree<std::_Tmap_traits<HWND__ *,WndMoveData,std::less<HWND__ *>,std::allocator<std::pair<HWND__ * const,WndMoveData> >,0> >::_Isnil
  00014	83 c4 04	 add	 esp, 4
  00017	0f be 10	 movsx	 edx, BYTE PTR [eax]
  0001a	85 d2		 test	 edx, edx
  0001c	74 05		 je	 SHORT $L199317

; 269  : 				;	// end() shouldn't be incremented, don't move
; 270  : 			else if (!_Isnil(_Right(_Ptr)))

  0001e	e9 8d 00 00 00	 jmp	 $L199316
$L199317:
  00023	8b 45 f8	 mov	 eax, DWORD PTR _this$[ebp]
  00026	8b 08		 mov	 ecx, DWORD PTR [eax]
  00028	51		 push	 ecx
  00029	e8 00 00 00 00	 call	 ?_Right@?$_Tree@V?$_Tmap_traits@PAUHWND__@@UWndMoveData@@U?$less@PAUHWND__@@@std@@V?$allocator@U?$pair@QAUHWND__@@UWndMoveData@@@std@@@4@$0A@@std@@@std@@KAAAPAU_Node@?$_Tree_nod@V?$_Tmap_traits@PAUHWND__@@UWndMoveData@@U?$less@PAUHWND__@@@std@@V?$allocator@U?$pair@QAUHWND__@@UWndMoveData@@@std@@@4@$0A@@std@@@2@PAU342@@Z ; std::_Tree<std::_Tmap_traits<HWND__ *,WndMoveData,std::less<HWND__ *>,std::allocator<std::pair<HWND__ * const,WndMoveData> >,0> >::_Right
  0002e	83 c4 04	 add	 esp, 4
  00031	8b 10		 mov	 edx, DWORD PTR [eax]
  00033	52		 push	 edx
  00034	e8 00 00 00 00	 call	 ?_Isnil@?$_Tree@V?$_Tmap_traits@PAUHWND__@@UWndMoveData@@U?$less@PAUHWND__@@@std@@V?$allocator@U?$pair@QAUHWND__@@UWndMoveData@@@std@@@4@$0A@@std@@@std@@KAAADPAU_Node@?$_Tree_nod@V?$_Tmap_traits@PAUHWND__@@UWndMoveData@@U?$less@PAUHWND__@@@std@@V?$allocator@U?$pair@QAUHWND__@@UWndMoveData@@@std@@@4@$0A@@std@@@2@@Z ; std::_Tree<std::_Tmap_traits<HWND__ *,WndMoveData,std::less<HWND__ *>,std::allocator<std::pair<HWND__ * const,WndMoveData> >,0> >::_Isnil
  00039	83 c4 04	 add	 esp, 4
  0003c	0f be 00	 movsx	 eax, BYTE PTR [eax]
  0003f	85 c0		 test	 eax, eax
  00041	75 20		 jne	 SHORT $L199323

; 271  : 				_Ptr = _Min(_Right(_Ptr));	// ==> smallest of right subtree

  00043	8b 4d f8	 mov	 ecx, DWORD PTR _this$[ebp]
  00046	8b 11		 mov	 edx, DWORD PTR [ecx]
  00048	52		 push	 edx
  00049	e8 00 00 00 00	 call	 ?_Right@?$_Tree@V?$_Tmap_traits@PAUHWND__@@UWndMoveData@@U?$less@PAUHWND__@@@std@@V?$allocator@U?$pair@QAUHWND__@@UWndMoveData@@@std@@@4@$0A@@std@@@std@@KAAAPAU_Node@?$_Tree_nod@V?$_Tmap_traits@PAUHWND__@@UWndMoveData@@U?$less@PAUHWND__@@@std@@V?$allocator@U?$pair@QAUHWND__@@UWndMoveData@@@std@@@4@$0A@@std@@@2@PAU342@@Z ; std::_Tree<std::_Tmap_traits<HWND__ *,WndMoveData,std::less<HWND__ *>,std::allocator<std::pair<HWND__ * const,WndMoveData> >,0> >::_Right
  0004e	83 c4 04	 add	 esp, 4
  00051	8b 00		 mov	 eax, DWORD PTR [eax]
  00053	50		 push	 eax
  00054	e8 00 00 00 00	 call	 ?_Min@?$_Tree@V?$_Tmap_traits@PAUHWND__@@UWndMoveData@@U?$less@PAUHWND__@@@std@@V?$allocator@U?$pair@QAUHWND__@@UWndMoveData@@@std@@@4@$0A@@std@@@std@@KAPAU_Node@?$_Tree_nod@V?$_Tmap_traits@PAUHWND__@@UWndMoveData@@U?$less@PAUHWND__@@@std@@V?$allocator@U?$pair@QAUHWND__@@UWndMoveData@@@std@@@4@$0A@@std@@@2@PAU342@@Z ; std::_Tree<std::_Tmap_traits<HWND__ *,WndMoveData,std::less<HWND__ *>,std::allocator<std::pair<HWND__ * const,WndMoveData> >,0> >::_Min
  00059	83 c4 04	 add	 esp, 4
  0005c	8b 4d f8	 mov	 ecx, DWORD PTR _this$[ebp]
  0005f	89 01		 mov	 DWORD PTR [ecx], eax

; 272  : 			else

  00061	eb 4d		 jmp	 SHORT $L199316
$L199323:

; 273  : 				{	// climb looking for right subtree
; 274  : 				_Nodeptr _Pnode;
; 275  : 				while (!_Isnil(_Pnode = _Parent(_Ptr))
; 276  : 					&& _Ptr == _Right(_Pnode))

  00063	8b 55 f8	 mov	 edx, DWORD PTR _this$[ebp]
  00066	8b 02		 mov	 eax, DWORD PTR [edx]
  00068	50		 push	 eax
  00069	e8 00 00 00 00	 call	 ?_Parent@?$_Tree@V?$_Tmap_traits@PAUHWND__@@UWndMoveData@@U?$less@PAUHWND__@@@std@@V?$allocator@U?$pair@QAUHWND__@@UWndMoveData@@@std@@@4@$0A@@std@@@std@@KAAAPAU_Node@?$_Tree_nod@V?$_Tmap_traits@PAUHWND__@@UWndMoveData@@U?$less@PAUHWND__@@@std@@V?$allocator@U?$pair@QAUHWND__@@UWndMoveData@@@std@@@4@$0A@@std@@@2@PAU342@@Z ; std::_Tree<std::_Tmap_traits<HWND__ *,WndMoveData,std::less<HWND__ *>,std::allocator<std::pair<HWND__ * const,WndMoveData> >,0> >::_Parent
  0006e	83 c4 04	 add	 esp, 4
  00071	8b 08		 mov	 ecx, DWORD PTR [eax]
  00073	89 4d fc	 mov	 DWORD PTR __Pnode$199321[ebp], ecx
  00076	8b 55 fc	 mov	 edx, DWORD PTR __Pnode$199321[ebp]
  00079	52		 push	 edx
  0007a	e8 00 00 00 00	 call	 ?_Isnil@?$_Tree@V?$_Tmap_traits@PAUHWND__@@UWndMoveData@@U?$less@PAUHWND__@@@std@@V?$allocator@U?$pair@QAUHWND__@@UWndMoveData@@@std@@@4@$0A@@std@@@std@@KAAADPAU_Node@?$_Tree_nod@V?$_Tmap_traits@PAUHWND__@@UWndMoveData@@U?$less@PAUHWND__@@@std@@V?$allocator@U?$pair@QAUHWND__@@UWndMoveData@@@std@@@4@$0A@@std@@@2@@Z ; std::_Tree<std::_Tmap_traits<HWND__ *,WndMoveData,std::less<HWND__ *>,std::allocator<std::pair<HWND__ * const,WndMoveData> >,0> >::_Isnil
  0007f	83 c4 04	 add	 esp, 4
  00082	0f be 00	 movsx	 eax, BYTE PTR [eax]
  00085	85 c0		 test	 eax, eax
  00087	75 1f		 jne	 SHORT $L199324
  00089	8b 4d fc	 mov	 ecx, DWORD PTR __Pnode$199321[ebp]
  0008c	51		 push	 ecx
  0008d	e8 00 00 00 00	 call	 ?_Right@?$_Tree@V?$_Tmap_traits@PAUHWND__@@UWndMoveData@@U?$less@PAUHWND__@@@std@@V?$allocator@U?$pair@QAUHWND__@@UWndMoveData@@@std@@@4@$0A@@std@@@std@@KAAAPAU_Node@?$_Tree_nod@V?$_Tmap_traits@PAUHWND__@@UWndMoveData@@U?$less@PAUHWND__@@@std@@V?$allocator@U?$pair@QAUHWND__@@UWndMoveData@@@std@@@4@$0A@@std@@@2@PAU342@@Z ; std::_Tree<std::_Tmap_traits<HWND__ *,WndMoveData,std::less<HWND__ *>,std::allocator<std::pair<HWND__ * const,WndMoveData> >,0> >::_Right
  00092	83 c4 04	 add	 esp, 4
  00095	8b 55 f8	 mov	 edx, DWORD PTR _this$[ebp]
  00098	8b 0a		 mov	 ecx, DWORD PTR [edx]
  0009a	3b 08		 cmp	 ecx, DWORD PTR [eax]
  0009c	75 0a		 jne	 SHORT $L199324

; 277  : 					_Ptr = _Pnode;	// ==> parent while right subtree

  0009e	8b 55 f8	 mov	 edx, DWORD PTR _this$[ebp]
  000a1	8b 45 fc	 mov	 eax, DWORD PTR __Pnode$199321[ebp]
  000a4	89 02		 mov	 DWORD PTR [edx], eax
  000a6	eb bb		 jmp	 SHORT $L199323
$L199324:

; 278  : 				_Ptr = _Pnode;	// ==> parent (head if end())

  000a8	8b 4d f8	 mov	 ecx, DWORD PTR _this$[ebp]
  000ab	8b 55 fc	 mov	 edx, DWORD PTR __Pnode$199321[ebp]
  000ae	89 11		 mov	 DWORD PTR [ecx], edx
$L199316:

; 279  : 				}
; 280  : 			}

  000b0	8b e5		 mov	 esp, ebp
  000b2	5d		 pop	 ebp
  000b3	c3		 ret	 0
?_Inc@const_iterator@?$_Tree@V?$_Tmap_traits@PAUHWND__@@UWndMoveData@@U?$less@PAUHWND__@@@std@@V?$allocator@U?$pair@QAUHWND__@@UWndMoveData@@@std@@@4@$0A@@std@@@std@@QAEXXZ ENDP ; std::_Tree<std::_Tmap_traits<HWND__ *,WndMoveData,std::less<HWND__ *>,std::allocator<std::pair<HWND__ * const,WndMoveData> >,0> >::const_iterator::_Inc
; Function compile flags: /Odt
; File d:\program files (x86)\microsoft visual studio .net 2003\vc7\include\utility
_TEXT	ENDS
;	COMDAT ??0?$pair@Viterator@?$_Tree@V?$_Tmap_traits@PAUHWND__@@UWndMoveData@@U?$less@PAUHWND__@@@std@@V?$allocator@U?$pair@QAUHWND__@@UWndMoveData@@@std@@@4@$0A@@std@@@std@@_N@std@@QAE@ABViterator@?$_Tree@V?$_Tmap_traits@PAUHWND__@@UWndMoveData@@U?$less@PAUHWND__@@@std@@V?$allocator@U?$pair@QAUHWND__@@UWndMoveData@@@std@@@4@$0A@@std@@@1@AB_N@Z
_TEXT	SEGMENT
_this$ = -4						; size = 4
__Val1$ = 8						; size = 4
__Val2$ = 12						; size = 4
??0?$pair@Viterator@?$_Tree@V?$_Tmap_traits@PAUHWND__@@UWndMoveData@@U?$less@PAUHWND__@@@std@@V?$allocator@U?$pair@QAUHWND__@@UWndMoveData@@@std@@@4@$0A@@std@@@std@@_N@std@@QAE@ABViterator@?$_Tree@V?$_Tmap_traits@PAUHWND__@@UWndMoveData@@U?$less@PAUHWND__@@@std@@V?$allocator@U?$pair@QAUHWND__@@UWndMoveData@@@std@@@4@$0A@@std@@@1@AB_N@Z PROC NEAR ; std::pair<std::_Tree<std::_Tmap_traits<HWND__ *,WndMoveData,std::less<HWND__ *>,std::allocator<std::pair<HWND__ * const,WndMoveData> >,0> >::iterator,bool>::pair<std::_Tree<std::_Tmap_traits<HWND__ *,WndMoveData,std::less<HWND__ *>,std::allocator<std::pair<HWND__ * const,WndMoveData> >,0> >::iterator,bool>, COMDAT
; _this$ = ecx

; 34   : 		{	// construct from specified values

  00000	55		 push	 ebp
  00001	8b ec		 mov	 ebp, esp
  00003	51		 push	 ecx
  00004	89 4d fc	 mov	 DWORD PTR _this$[ebp], ecx
  00007	8b 45 08	 mov	 eax, DWORD PTR __Val1$[ebp]
  0000a	8b 08		 mov	 ecx, DWORD PTR [eax]
  0000c	8b 55 fc	 mov	 edx, DWORD PTR _this$[ebp]
  0000f	89 0a		 mov	 DWORD PTR [edx], ecx
  00011	8b 45 fc	 mov	 eax, DWORD PTR _this$[ebp]
  00014	8b 4d 0c	 mov	 ecx, DWORD PTR __Val2$[ebp]
  00017	8a 11		 mov	 dl, BYTE PTR [ecx]
  00019	88 50 04	 mov	 BYTE PTR [eax+4], dl

; 35   : 		}

  0001c	8b 45 fc	 mov	 eax, DWORD PTR _this$[ebp]
  0001f	8b e5		 mov	 esp, ebp
  00021	5d		 pop	 ebp
  00022	c2 08 00	 ret	 8
??0?$pair@Viterator@?$_Tree@V?$_Tmap_traits@PAUHWND__@@UWndMoveData@@U?$less@PAUHWND__@@@std@@V?$allocator@U?$pair@QAUHWND__@@UWndMoveData@@@std@@@4@$0A@@std@@@std@@_N@std@@QAE@ABViterator@?$_Tree@V?$_Tmap_traits@PAUHWND__@@UWndMoveData@@U?$less@PAUHWND__@@@std@@V?$allocator@U?$pair@QAUHWND__@@UWndMoveData@@@std@@@4@$0A@@std@@@1@AB_N@Z ENDP ; std::pair<std::_Tree<std::_Tmap_traits<HWND__ *,WndMoveData,std::less<HWND__ *>,std::allocator<std::pair<HWND__ * const,WndMoveData> >,0> >::iterator,bool>::pair<std::_Tree<std::_Tmap_traits<HWND__ *,WndMoveData,std::less<HWND__ *>,std::allocator<std::pair<HWND__ * const,WndMoveData> >,0> >::iterator,bool>
; Function compile flags: /Odt
; File d:\program files (x86)\microsoft visual studio .net 2003\vc7\include\xtree
_TEXT	ENDS
;	COMDAT ?_Max@?$_Tree@V?$_Tmap_traits@PAUHWND__@@UWndMoveData@@U?$less@PAUHWND__@@@std@@V?$allocator@U?$pair@QAUHWND__@@UWndMoveData@@@std@@@4@$0A@@std@@@std@@KAPAU_Node@?$_Tree_nod@V?$_Tmap_traits@PAUHWND__@@UWndMoveData@@U?$less@PAUHWND__@@@std@@V?$allocator@U?$pair@QAUHWND__@@UWndMoveData@@@std@@@4@$0A@@std@@@2@PAU342@@Z
_TEXT	SEGMENT
__Pnode$ = 8						; size = 4
?_Max@?$_Tree@V?$_Tmap_traits@PAUHWND__@@UWndMoveData@@U?$less@PAUHWND__@@@std@@V?$allocator@U?$pair@QAUHWND__@@UWndMoveData@@@std@@@4@$0A@@std@@@std@@KAPAU_Node@?$_Tree_nod@V?$_Tmap_traits@PAUHWND__@@UWndMoveData@@U?$less@PAUHWND__@@@std@@V?$allocator@U?$pair@QAUHWND__@@UWndMoveData@@@std@@@4@$0A@@std@@@2@PAU342@@Z PROC NEAR ; std::_Tree<std::_Tmap_traits<HWND__ *,WndMoveData,std::less<HWND__ *>,std::allocator<std::pair<HWND__ * const,WndMoveData> >,0> >::_Max, COMDAT

; 1034 : 		{	// return rightmost node in subtree at _Pnode

  00000	55		 push	 ebp
  00001	8b ec		 mov	 ebp, esp
$L199329:

; 1035 : 		while (!_Isnil(_Right(_Pnode)))

  00003	8b 45 08	 mov	 eax, DWORD PTR __Pnode$[ebp]
  00006	50		 push	 eax
  00007	e8 00 00 00 00	 call	 ?_Right@?$_Tree@V?$_Tmap_traits@PAUHWND__@@UWndMoveData@@U?$less@PAUHWND__@@@std@@V?$allocator@U?$pair@QAUHWND__@@UWndMoveData@@@std@@@4@$0A@@std@@@std@@KAAAPAU_Node@?$_Tree_nod@V?$_Tmap_traits@PAUHWND__@@UWndMoveData@@U?$less@PAUHWND__@@@std@@V?$allocator@U?$pair@QAUHWND__@@UWndMoveData@@@std@@@4@$0A@@std@@@2@PAU342@@Z ; std::_Tree<std::_Tmap_traits<HWND__ *,WndMoveData,std::less<HWND__ *>,std::allocator<std::pair<HWND__ * const,WndMoveData> >,0> >::_Right
  0000c	83 c4 04	 add	 esp, 4
  0000f	8b 08		 mov	 ecx, DWORD PTR [eax]
  00011	51		 push	 ecx
  00012	e8 00 00 00 00	 call	 ?_Isnil@?$_Tree@V?$_Tmap_traits@PAUHWND__@@UWndMoveData@@U?$less@PAUHWND__@@@std@@V?$allocator@U?$pair@QAUHWND__@@UWndMoveData@@@std@@@4@$0A@@std@@@std@@KAAADPAU_Node@?$_Tree_nod@V?$_Tmap_traits@PAUHWND__@@UWndMoveData@@U?$less@PAUHWND__@@@std@@V?$allocator@U?$pair@QAUHWND__@@UWndMoveData@@@std@@@4@$0A@@std@@@2@@Z ; std::_Tree<std::_Tmap_traits<HWND__ *,WndMoveData,std::less<HWND__ *>,std::allocator<std::pair<HWND__ * const,WndMoveData> >,0> >::_Isnil
  00017	83 c4 04	 add	 esp, 4
  0001a	0f be 10	 movsx	 edx, BYTE PTR [eax]
  0001d	85 d2		 test	 edx, edx
  0001f	75 13		 jne	 SHORT $L199330

; 1036 : 			_Pnode = _Right(_Pnode);

  00021	8b 45 08	 mov	 eax, DWORD PTR __Pnode$[ebp]
  00024	50		 push	 eax
  00025	e8 00 00 00 00	 call	 ?_Right@?$_Tree@V?$_Tmap_traits@PAUHWND__@@UWndMoveData@@U?$less@PAUHWND__@@@std@@V?$allocator@U?$pair@QAUHWND__@@UWndMoveData@@@std@@@4@$0A@@std@@@std@@KAAAPAU_Node@?$_Tree_nod@V?$_Tmap_traits@PAUHWND__@@UWndMoveData@@U?$less@PAUHWND__@@@std@@V?$allocator@U?$pair@QAUHWND__@@UWndMoveData@@@std@@@4@$0A@@std@@@2@PAU342@@Z ; std::_Tree<std::_Tmap_traits<HWND__ *,WndMoveData,std::less<HWND__ *>,std::allocator<std::pair<HWND__ * const,WndMoveData> >,0> >::_Right
  0002a	83 c4 04	 add	 esp, 4
  0002d	8b 08		 mov	 ecx, DWORD PTR [eax]
  0002f	89 4d 08	 mov	 DWORD PTR __Pnode$[ebp], ecx
  00032	eb cf		 jmp	 SHORT $L199329
$L199330:

; 1037 : 		return (_Pnode);

  00034	8b 45 08	 mov	 eax, DWORD PTR __Pnode$[ebp]

; 1038 : 		}

  00037	5d		 pop	 ebp
  00038	c3		 ret	 0
?_Max@?$_Tree@V?$_Tmap_traits@PAUHWND__@@UWndMoveData@@U?$less@PAUHWND__@@@std@@V?$allocator@U?$pair@QAUHWND__@@UWndMoveData@@@std@@@4@$0A@@std@@@std@@KAPAU_Node@?$_Tree_nod@V?$_Tmap_traits@PAUHWND__@@UWndMoveData@@U?$less@PAUHWND__@@@std@@V?$allocator@U?$pair@QAUHWND__@@UWndMoveData@@@std@@@4@$0A@@std@@@2@PAU342@@Z ENDP ; std::_Tree<std::_Tmap_traits<HWND__ *,WndMoveData,std::less<HWND__ *>,std::allocator<std::pair<HWND__ * const,WndMoveData> >,0> >::_Max
; Function compile flags: /Odt
_TEXT	ENDS
;	COMDAT ?_Min@?$_Tree@V?$_Tmap_traits@PAUHWND__@@UWndMoveData@@U?$less@PAUHWND__@@@std@@V?$allocator@U?$pair@QAUHWND__@@UWndMoveData@@@std@@@4@$0A@@std@@@std@@KAPAU_Node@?$_Tree_nod@V?$_Tmap_traits@PAUHWND__@@UWndMoveData@@U?$less@PAUHWND__@@@std@@V?$allocator@U?$pair@QAUHWND__@@UWndMoveData@@@std@@@4@$0A@@std@@@2@PAU342@@Z
_TEXT	SEGMENT
__Pnode$ = 8						; size = 4
?_Min@?$_Tree@V?$_Tmap_traits@PAUHWND__@@UWndMoveData@@U?$less@PAUHWND__@@@std@@V?$allocator@U?$pair@QAUHWND__@@UWndMoveData@@@std@@@4@$0A@@std@@@std@@KAPAU_Node@?$_Tree_nod@V?$_Tmap_traits@PAUHWND__@@UWndMoveData@@U?$less@PAUHWND__@@@std@@V?$allocator@U?$pair@QAUHWND__@@UWndMoveData@@@std@@@4@$0A@@std@@@2@PAU342@@Z PROC NEAR ; std::_Tree<std::_Tmap_traits<HWND__ *,WndMoveData,std::less<HWND__ *>,std::allocator<std::pair<HWND__ * const,WndMoveData> >,0> >::_Min, COMDAT

; 1041 : 		{	// return leftmost node in subtree at _Pnode

  00000	55		 push	 ebp
  00001	8b ec		 mov	 ebp, esp
$L199333:

; 1042 : 		while (!_Isnil(_Left(_Pnode)))

  00003	8b 45 08	 mov	 eax, DWORD PTR __Pnode$[ebp]
  00006	50		 push	 eax
  00007	e8 00 00 00 00	 call	 ?_Left@?$_Tree@V?$_Tmap_traits@PAUHWND__@@UWndMoveData@@U?$less@PAUHWND__@@@std@@V?$allocator@U?$pair@QAUHWND__@@UWndMoveData@@@std@@@4@$0A@@std@@@std@@KAAAPAU_Node@?$_Tree_nod@V?$_Tmap_traits@PAUHWND__@@UWndMoveData@@U?$less@PAUHWND__@@@std@@V?$allocator@U?$pair@QAUHWND__@@UWndMoveData@@@std@@@4@$0A@@std@@@2@PAU342@@Z ; std::_Tree<std::_Tmap_traits<HWND__ *,WndMoveData,std::less<HWND__ *>,std::allocator<std::pair<HWND__ * const,WndMoveData> >,0> >::_Left
  0000c	83 c4 04	 add	 esp, 4
  0000f	8b 08		 mov	 ecx, DWORD PTR [eax]
  00011	51		 push	 ecx
  00012	e8 00 00 00 00	 call	 ?_Isnil@?$_Tree@V?$_Tmap_traits@PAUHWND__@@UWndMoveData@@U?$less@PAUHWND__@@@std@@V?$allocator@U?$pair@QAUHWND__@@UWndMoveData@@@std@@@4@$0A@@std@@@std@@KAAADPAU_Node@?$_Tree_nod@V?$_Tmap_traits@PAUHWND__@@UWndMoveData@@U?$less@PAUHWND__@@@std@@V?$allocator@U?$pair@QAUHWND__@@UWndMoveData@@@std@@@4@$0A@@std@@@2@@Z ; std::_Tree<std::_Tmap_traits<HWND__ *,WndMoveData,std::less<HWND__ *>,std::allocator<std::pair<HWND__ * const,WndMoveData> >,0> >::_Isnil
  00017	83 c4 04	 add	 esp, 4
  0001a	0f be 10	 movsx	 edx, BYTE PTR [eax]
  0001d	85 d2		 test	 edx, edx
  0001f	75 13		 jne	 SHORT $L199334

; 1043 : 			_Pnode = _Left(_Pnode);

  00021	8b 45 08	 mov	 eax, DWORD PTR __Pnode$[ebp]
  00024	50		 push	 eax
  00025	e8 00 00 00 00	 call	 ?_Left@?$_Tree@V?$_Tmap_traits@PAUHWND__@@UWndMoveData@@U?$less@PAUHWND__@@@std@@V?$allocator@U?$pair@QAUHWND__@@UWndMoveData@@@std@@@4@$0A@@std@@@std@@KAAAPAU_Node@?$_Tree_nod@V?$_Tmap_traits@PAUHWND__@@UWndMoveData@@U?$less@PAUHWND__@@@std@@V?$allocator@U?$pair@QAUHWND__@@UWndMoveData@@@std@@@4@$0A@@std@@@2@PAU342@@Z ; std::_Tree<std::_Tmap_traits<HWND__ *,WndMoveData,std::less<HWND__ *>,std::allocator<std::pair<HWND__ * const,WndMoveData> >,0> >::_Left
  0002a	83 c4 04	 add	 esp, 4
  0002d	8b 08		 mov	 ecx, DWORD PTR [eax]
  0002f	89 4d 08	 mov	 DWORD PTR __Pnode$[ebp], ecx
  00032	eb cf		 jmp	 SHORT $L199333
$L199334:

; 1044 : 		return (_Pnode);

  00034	8b 45 08	 mov	 eax, DWORD PTR __Pnode$[ebp]

; 1045 : 		}

  00037	5d		 pop	 ebp
  00038	c3		 ret	 0
?_Min@?$_Tree@V?$_Tmap_traits@PAUHWND__@@UWndMoveData@@U?$less@PAUHWND__@@@std@@V?$allocator@U?$pair@QAUHWND__@@UWndMoveData@@@std@@@4@$0A@@std@@@std@@KAPAU_Node@?$_Tree_nod@V?$_Tmap_traits@PAUHWND__@@UWndMoveData@@U?$less@PAUHWND__@@@std@@V?$allocator@U?$pair@QAUHWND__@@UWndMoveData@@@std@@@4@$0A@@std@@@2@PAU342@@Z ENDP ; std::_Tree<std::_Tmap_traits<HWND__ *,WndMoveData,std::less<HWND__ *>,std::allocator<std::pair<HWND__ * const,WndMoveData> >,0> >::_Min
_TEXT	ENDS
PUBLIC	??$?0U?$pair@QAUHWND__@@UWndMoveData@@@std@@@?$allocator@U_Node@?$_Tree_nod@V?$_Tmap_traits@PAUHWND__@@UWndMoveData@@U?$less@PAUHWND__@@@std@@V?$allocator@U?$pair@QAUHWND__@@UWndMoveData@@@std@@@4@$0A@@std@@@std@@@std@@QAE@ABV?$allocator@U?$pair@QAUHWND__@@UWndMoveData@@@std@@@1@@Z ; std::allocator<std::_Tree_nod<std::_Tmap_traits<HWND__ *,WndMoveData,std::less<HWND__ *>,std::allocator<std::pair<HWND__ * const,WndMoveData> >,0> >::_Node>::allocator<std::_Tree_nod<std::_Tmap_traits<HWND__ *,WndMoveData,std::less<HWND__ *>,std::allocator<std::pair<HWND__ * const,WndMoveData> >,0> >::_Node><std::pair<HWND__ * const,WndMoveData> >
PUBLIC	??0?$_Tmap_traits@PAUHWND__@@UWndMoveData@@U?$less@PAUHWND__@@@std@@V?$allocator@U?$pair@QAUHWND__@@UWndMoveData@@@std@@@4@$0A@@std@@QAE@U?$less@PAUHWND__@@@1@@Z ; std::_Tmap_traits<HWND__ *,WndMoveData,std::less<HWND__ *>,std::allocator<std::pair<HWND__ * const,WndMoveData> >,0>::_Tmap_traits<HWND__ *,WndMoveData,std::less<HWND__ *>,std::allocator<std::pair<HWND__ * const,WndMoveData> >,0>
; Function compile flags: /Odt
;	COMDAT ??0?$_Tree_nod@V?$_Tmap_traits@PAUHWND__@@UWndMoveData@@U?$less@PAUHWND__@@@std@@V?$allocator@U?$pair@QAUHWND__@@UWndMoveData@@@std@@@4@$0A@@std@@@std@@IAE@ABU?$less@PAUHWND__@@@1@V?$allocator@U?$pair@QAUHWND__@@UWndMoveData@@@std@@@1@@Z
_TEXT	SEGMENT
_this$ = -4						; size = 4
__Parg$ = 8						; size = 4
__Al$ = 12						; size = 1
??0?$_Tree_nod@V?$_Tmap_traits@PAUHWND__@@UWndMoveData@@U?$less@PAUHWND__@@@std@@V?$allocator@U?$pair@QAUHWND__@@UWndMoveData@@@std@@@4@$0A@@std@@@std@@IAE@ABU?$less@PAUHWND__@@@1@V?$allocator@U?$pair@QAUHWND__@@UWndMoveData@@@std@@@1@@Z PROC NEAR ; std::_Tree_nod<std::_Tmap_traits<HWND__ *,WndMoveData,std::less<HWND__ *>,std::allocator<std::pair<HWND__ * const,WndMoveData> >,0> >::_Tree_nod<std::_Tmap_traits<HWND__ *,WndMoveData,std::less<HWND__ *>,std::allocator<std::pair<HWND__ * const,WndMoveData> >,0> >, COMDAT
; _this$ = ecx

; 54   : 		{	// construct traits from _Parg and allocator from _Al

  00000	55		 push	 ebp
  00001	8b ec		 mov	 ebp, esp
  00003	51		 push	 ecx
  00004	89 4d fc	 mov	 DWORD PTR _this$[ebp], ecx
  00007	8b 45 08	 mov	 eax, DWORD PTR __Parg$[ebp]
  0000a	8a 08		 mov	 cl, BYTE PTR [eax]
  0000c	51		 push	 ecx
  0000d	8b 4d fc	 mov	 ecx, DWORD PTR _this$[ebp]
  00010	e8 00 00 00 00	 call	 ??0?$_Tmap_traits@PAUHWND__@@UWndMoveData@@U?$less@PAUHWND__@@@std@@V?$allocator@U?$pair@QAUHWND__@@UWndMoveData@@@std@@@4@$0A@@std@@QAE@U?$less@PAUHWND__@@@1@@Z ; std::_Tmap_traits<HWND__ *,WndMoveData,std::less<HWND__ *>,std::allocator<std::pair<HWND__ * const,WndMoveData> >,0>::_Tmap_traits<HWND__ *,WndMoveData,std::less<HWND__ *>,std::allocator<std::pair<HWND__ * const,WndMoveData> >,0>
  00015	8d 55 0c	 lea	 edx, DWORD PTR __Al$[ebp]
  00018	52		 push	 edx
  00019	8b 4d fc	 mov	 ecx, DWORD PTR _this$[ebp]
  0001c	83 c1 01	 add	 ecx, 1
  0001f	e8 00 00 00 00	 call	 ??$?0U?$pair@QAUHWND__@@UWndMoveData@@@std@@@?$allocator@U_Node@?$_Tree_nod@V?$_Tmap_traits@PAUHWND__@@UWndMoveData@@U?$less@PAUHWND__@@@std@@V?$allocator@U?$pair@QAUHWND__@@UWndMoveData@@@std@@@4@$0A@@std@@@std@@@std@@QAE@ABV?$allocator@U?$pair@QAUHWND__@@UWndMoveData@@@std@@@1@@Z ; std::allocator<std::_Tree_nod<std::_Tmap_traits<HWND__ *,WndMoveData,std::less<HWND__ *>,std::allocator<std::pair<HWND__ * const,WndMoveData> >,0> >::_Node>::allocator<std::_Tree_nod<std::_Tmap_traits<HWND__ *,WndMoveData,std::less<HWND__ *>,std::allocator<std::pair<HWND__ * const,WndMoveData> >,0> >::_Node><std::pair<HWND__ * const,WndMoveData> >

; 55   : 		}

  00024	8b 45 fc	 mov	 eax, DWORD PTR _this$[ebp]
  00027	8b e5		 mov	 esp, ebp
  00029	5d		 pop	 ebp
  0002a	c2 08 00	 ret	 8
??0?$_Tree_nod@V?$_Tmap_traits@PAUHWND__@@UWndMoveData@@U?$less@PAUHWND__@@@std@@V?$allocator@U?$pair@QAUHWND__@@UWndMoveData@@@std@@@4@$0A@@std@@@std@@IAE@ABU?$less@PAUHWND__@@@1@V?$allocator@U?$pair@QAUHWND__@@UWndMoveData@@@std@@@1@@Z ENDP ; std::_Tree_nod<std::_Tmap_traits<HWND__ *,WndMoveData,std::less<HWND__ *>,std::allocator<std::pair<HWND__ * const,WndMoveData> >,0> >::_Tree_nod<std::_Tmap_traits<HWND__ *,WndMoveData,std::less<HWND__ *>,std::allocator<std::pair<HWND__ * const,WndMoveData> >,0> >
; Function compile flags: /Odt
; File d:\program files (x86)\microsoft visual studio .net 2003\vc7\include\xmemory
_TEXT	ENDS
;	COMDAT ?max_size@?$allocator@U?$pair@QAUHWND__@@UWndMoveData@@@std@@@std@@QBEIXZ
_TEXT	SEGMENT
tv65 = -12						; size = 4
_this$ = -8						; size = 4
__Count$ = -4						; size = 4
?max_size@?$allocator@U?$pair@QAUHWND__@@UWndMoveData@@@std@@@std@@QBEIXZ PROC NEAR ; std::allocator<std::pair<HWND__ * const,WndMoveData> >::max_size, COMDAT
; _this$ = ecx

; 156  : 		{	// estimate maximum array size

  00000	55		 push	 ebp
  00001	8b ec		 mov	 ebp, esp
  00003	83 ec 0c	 sub	 esp, 12			; 0000000cH
  00006	89 4d f8	 mov	 DWORD PTR _this$[ebp], ecx

; 157  : 		_SIZT _Count = (_SIZT)(-1) / sizeof (_Ty);

  00009	c7 45 fc ff ff
	ff 07		 mov	 DWORD PTR __Count$[ebp], 134217727 ; 07ffffffH

; 158  : 		return (0 < _Count ? _Count : 1);

  00010	83 7d fc 00	 cmp	 DWORD PTR __Count$[ebp], 0
  00014	76 08		 jbe	 SHORT $L200239
  00016	8b 45 fc	 mov	 eax, DWORD PTR __Count$[ebp]
  00019	89 45 f4	 mov	 DWORD PTR tv65[ebp], eax
  0001c	eb 07		 jmp	 SHORT $L200240
$L200239:
  0001e	c7 45 f4 01 00
	00 00		 mov	 DWORD PTR tv65[ebp], 1
$L200240:
  00025	8b 45 f4	 mov	 eax, DWORD PTR tv65[ebp]

; 159  : 		}

  00028	8b e5		 mov	 esp, ebp
  0002a	5d		 pop	 ebp
  0002b	c3		 ret	 0
?max_size@?$allocator@U?$pair@QAUHWND__@@UWndMoveData@@@std@@@std@@QBEIXZ ENDP ; std::allocator<std::pair<HWND__ * const,WndMoveData> >::max_size
_TEXT	ENDS
PUBLIC	??$_Allocate@U_Node@?$_Tree_nod@V?$_Tmap_traits@PAUHWND__@@UWndMoveData@@U?$less@PAUHWND__@@@std@@V?$allocator@U?$pair@QAUHWND__@@UWndMoveData@@@std@@@4@$0A@@std@@@std@@@std@@YAPAU_Node@?$_Tree_nod@V?$_Tmap_traits@PAUHWND__@@UWndMoveData@@U?$less@PAUHWND__@@@std@@V?$allocator@U?$pair@QAUHWND__@@UWndMoveData@@@std@@@4@$0A@@std@@@0@IPAU120@@Z ; std::_Allocate<std::_Tree_nod<std::_Tmap_traits<HWND__ *,WndMoveData,std::less<HWND__ *>,std::allocator<std::pair<HWND__ * const,WndMoveData> >,0> >::_Node>
; Function compile flags: /Odt
;	COMDAT ?allocate@?$allocator@U_Node@?$_Tree_nod@V?$_Tmap_traits@PAUHWND__@@UWndMoveData@@U?$less@PAUHWND__@@@std@@V?$allocator@U?$pair@QAUHWND__@@UWndMoveData@@@std@@@4@$0A@@std@@@std@@@std@@QAEPAU_Node@?$_Tree_nod@V?$_Tmap_traits@PAUHWND__@@UWndMoveData@@U?$less@PAUHWND__@@@std@@V?$allocator@U?$pair@QAUHWND__@@UWndMoveData@@@std@@@4@$0A@@std@@@2@I@Z
_TEXT	SEGMENT
_this$ = -4						; size = 4
__Count$ = 8						; size = 4
?allocate@?$allocator@U_Node@?$_Tree_nod@V?$_Tmap_traits@PAUHWND__@@UWndMoveData@@U?$less@PAUHWND__@@@std@@V?$allocator@U?$pair@QAUHWND__@@UWndMoveData@@@std@@@4@$0A@@std@@@std@@@std@@QAEPAU_Node@?$_Tree_nod@V?$_Tmap_traits@PAUHWND__@@UWndMoveData@@U?$less@PAUHWND__@@@std@@V?$allocator@U?$pair@QAUHWND__@@UWndMoveData@@@std@@@4@$0A@@std@@@2@I@Z PROC NEAR ; std::allocator<std::_Tree_nod<std::_Tmap_traits<HWND__ *,WndMoveData,std::less<HWND__ *>,std::allocator<std::pair<HWND__ * const,WndMoveData> >,0> >::_Node>::allocate, COMDAT
; _this$ = ecx

; 136  : 		{	// allocate array of _Count elements

  00000	55		 push	 ebp
  00001	8b ec		 mov	 ebp, esp
  00003	51		 push	 ecx
  00004	89 4d fc	 mov	 DWORD PTR _this$[ebp], ecx

; 137  : 		return (_Allocate(_Count, (pointer)0));

  00007	6a 00		 push	 0
  00009	8b 45 08	 mov	 eax, DWORD PTR __Count$[ebp]
  0000c	50		 push	 eax
  0000d	e8 00 00 00 00	 call	 ??$_Allocate@U_Node@?$_Tree_nod@V?$_Tmap_traits@PAUHWND__@@UWndMoveData@@U?$less@PAUHWND__@@@std@@V?$allocator@U?$pair@QAUHWND__@@UWndMoveData@@@std@@@4@$0A@@std@@@std@@@std@@YAPAU_Node@?$_Tree_nod@V?$_Tmap_traits@PAUHWND__@@UWndMoveData@@U?$less@PAUHWND__@@@std@@V?$allocator@U?$pair@QAUHWND__@@UWndMoveData@@@std@@@4@$0A@@std@@@0@IPAU120@@Z ; std::_Allocate<std::_Tree_nod<std::_Tmap_traits<HWND__ *,WndMoveData,std::less<HWND__ *>,std::allocator<std::pair<HWND__ * const,WndMoveData> >,0> >::_Node>
  00012	83 c4 08	 add	 esp, 8

; 138  : 		}

  00015	8b e5		 mov	 esp, ebp
  00017	5d		 pop	 ebp
  00018	c2 04 00	 ret	 4
?allocate@?$allocator@U_Node@?$_Tree_nod@V?$_Tmap_traits@PAUHWND__@@UWndMoveData@@U?$less@PAUHWND__@@@std@@V?$allocator@U?$pair@QAUHWND__@@UWndMoveData@@@std@@@4@$0A@@std@@@std@@@std@@QAEPAU_Node@?$_Tree_nod@V?$_Tmap_traits@PAUHWND__@@UWndMoveData@@U?$less@PAUHWND__@@@std@@V?$allocator@U?$pair@QAUHWND__@@UWndMoveData@@@std@@@4@$0A@@std@@@2@I@Z ENDP ; std::allocator<std::_Tree_nod<std::_Tmap_traits<HWND__ *,WndMoveData,std::less<HWND__ *>,std::allocator<std::pair<HWND__ * const,WndMoveData> >,0> >::_Node>::allocate
_TEXT	ENDS
PUBLIC	??$_Construct@PAU_Node@?$_Tree_nod@V?$_Tmap_traits@PAUHWND__@@UWndMoveData@@U?$less@PAUHWND__@@@std@@V?$allocator@U?$pair@QAUHWND__@@UWndMoveData@@@std@@@4@$0A@@std@@@std@@PAU123@@std@@YAXPAPAU_Node@?$_Tree_nod@V?$_Tmap_traits@PAUHWND__@@UWndMoveData@@U?$less@PAUHWND__@@@std@@V?$allocator@U?$pair@QAUHWND__@@UWndMoveData@@@std@@@4@$0A@@std@@@0@ABQAU120@@Z ; std::_Construct<std::_Tree_nod<std::_Tmap_traits<HWND__ *,WndMoveData,std::less<HWND__ *>,std::allocator<std::pair<HWND__ * const,WndMoveData> >,0> >::_Node *,std::_Tree_nod<std::_Tmap_traits<HWND__ *,WndMoveData,std::less<HWND__ *>,std::allocator<std::pair<HWND__ * const,WndMoveData> >,0> >::_Node *>
; Function compile flags: /Odt
;	COMDAT ?construct@?$allocator@PAU_Node@?$_Tree_nod@V?$_Tmap_traits@PAUHWND__@@UWndMoveData@@U?$less@PAUHWND__@@@std@@V?$allocator@U?$pair@QAUHWND__@@UWndMoveData@@@std@@@4@$0A@@std@@@std@@@std@@QAEXPAPAU_Node@?$_Tree_nod@V?$_Tmap_traits@PAUHWND__@@UWndMoveData@@U?$less@PAUHWND__@@@std@@V?$allocator@U?$pair@QAUHWND__@@UWndMoveData@@@std@@@4@$0A@@std@@@2@ABQAU342@@Z
_TEXT	SEGMENT
_this$ = -4						; size = 4
__Ptr$ = 8						; size = 4
__Val$ = 12						; size = 4
?construct@?$allocator@PAU_Node@?$_Tree_nod@V?$_Tmap_traits@PAUHWND__@@UWndMoveData@@U?$less@PAUHWND__@@@std@@V?$allocator@U?$pair@QAUHWND__@@UWndMoveData@@@std@@@4@$0A@@std@@@std@@@std@@QAEXPAPAU_Node@?$_Tree_nod@V?$_Tmap_traits@PAUHWND__@@UWndMoveData@@U?$less@PAUHWND__@@@std@@V?$allocator@U?$pair@QAUHWND__@@UWndMoveData@@@std@@@4@$0A@@std@@@2@ABQAU342@@Z PROC NEAR ; std::allocator<std::_Tree_nod<std::_Tmap_traits<HWND__ *,WndMoveData,std::less<HWND__ *>,std::allocator<std::pair<HWND__ * const,WndMoveData> >,0> >::_Node *>::construct, COMDAT
; _this$ = ecx

; 146  : 		{	// construct object at _Ptr with value _Val

  00000	55		 push	 ebp
  00001	8b ec		 mov	 ebp, esp
  00003	51		 push	 ecx
  00004	89 4d fc	 mov	 DWORD PTR _this$[ebp], ecx

; 147  : 		_Construct(_Ptr, _Val);

  00007	8b 45 0c	 mov	 eax, DWORD PTR __Val$[ebp]
  0000a	50		 push	 eax
  0000b	8b 4d 08	 mov	 ecx, DWORD PTR __Ptr$[ebp]
  0000e	51		 push	 ecx
  0000f	e8 00 00 00 00	 call	 ??$_Construct@PAU_Node@?$_Tree_nod@V?$_Tmap_traits@PAUHWND__@@UWndMoveData@@U?$less@PAUHWND__@@@std@@V?$allocator@U?$pair@QAUHWND__@@UWndMoveData@@@std@@@4@$0A@@std@@@std@@PAU123@@std@@YAXPAPAU_Node@?$_Tree_nod@V?$_Tmap_traits@PAUHWND__@@UWndMoveData@@U?$less@PAUHWND__@@@std@@V?$allocator@U?$pair@QAUHWND__@@UWndMoveData@@@std@@@4@$0A@@std@@@0@ABQAU120@@Z ; std::_Construct<std::_Tree_nod<std::_Tmap_traits<HWND__ *,WndMoveData,std::less<HWND__ *>,std::allocator<std::pair<HWND__ * const,WndMoveData> >,0> >::_Node *,std::_Tree_nod<std::_Tmap_traits<HWND__ *,WndMoveData,std::less<HWND__ *>,std::allocator<std::pair<HWND__ * const,WndMoveData> >,0> >::_Node *>
  00014	83 c4 08	 add	 esp, 8

; 148  : 		}

  00017	8b e5		 mov	 esp, ebp
  00019	5d		 pop	 ebp
  0001a	c2 08 00	 ret	 8
?construct@?$allocator@PAU_Node@?$_Tree_nod@V?$_Tmap_traits@PAUHWND__@@UWndMoveData@@U?$less@PAUHWND__@@@std@@V?$allocator@U?$pair@QAUHWND__@@UWndMoveData@@@std@@@4@$0A@@std@@@std@@@std@@QAEXPAPAU_Node@?$_Tree_nod@V?$_Tmap_traits@PAUHWND__@@UWndMoveData@@U?$less@PAUHWND__@@@std@@V?$allocator@U?$pair@QAUHWND__@@UWndMoveData@@@std@@@4@$0A@@std@@@2@ABQAU342@@Z ENDP ; std::allocator<std::_Tree_nod<std::_Tmap_traits<HWND__ *,WndMoveData,std::less<HWND__ *>,std::allocator<std::pair<HWND__ * const,WndMoveData> >,0> >::_Node *>::construct
; Function compile flags: /Odt
; File d:\program files (x86)\microsoft visual studio .net 2003\vc7\include\xtree
_TEXT	ENDS
;	COMDAT ?_Dec@const_iterator@?$_Tree@V?$_Tmap_traits@PAUHWND__@@UWndMoveData@@U?$less@PAUHWND__@@@std@@V?$allocator@U?$pair@QAUHWND__@@UWndMoveData@@@std@@@4@$0A@@std@@@std@@QAEXXZ
_TEXT	SEGMENT
_this$ = -8						; size = 4
__Pnode$199367 = -4					; size = 4
?_Dec@const_iterator@?$_Tree@V?$_Tmap_traits@PAUHWND__@@UWndMoveData@@U?$less@PAUHWND__@@@std@@V?$allocator@U?$pair@QAUHWND__@@UWndMoveData@@@std@@@4@$0A@@std@@@std@@QAEXXZ PROC NEAR ; std::_Tree<std::_Tmap_traits<HWND__ *,WndMoveData,std::less<HWND__ *>,std::allocator<std::pair<HWND__ * const,WndMoveData> >,0> >::const_iterator::_Dec, COMDAT
; _this$ = ecx

; 250  : 			{	// move to node with next smaller value

  00000	55		 push	 ebp
  00001	8b ec		 mov	 ebp, esp
  00003	83 ec 08	 sub	 esp, 8
  00006	89 4d f8	 mov	 DWORD PTR _this$[ebp], ecx

; 251  : 			if (_Isnil(_Ptr))

  00009	8b 45 f8	 mov	 eax, DWORD PTR _this$[ebp]
  0000c	8b 08		 mov	 ecx, DWORD PTR [eax]
  0000e	51		 push	 ecx
  0000f	e8 00 00 00 00	 call	 ?_Isnil@?$_Tree@V?$_Tmap_traits@PAUHWND__@@UWndMoveData@@U?$less@PAUHWND__@@@std@@V?$allocator@U?$pair@QAUHWND__@@UWndMoveData@@@std@@@4@$0A@@std@@@std@@KAAADPAU_Node@?$_Tree_nod@V?$_Tmap_traits@PAUHWND__@@UWndMoveData@@U?$less@PAUHWND__@@@std@@V?$allocator@U?$pair@QAUHWND__@@UWndMoveData@@@std@@@4@$0A@@std@@@2@@Z ; std::_Tree<std::_Tmap_traits<HWND__ *,WndMoveData,std::less<HWND__ *>,std::allocator<std::pair<HWND__ * const,WndMoveData> >,0> >::_Isnil
  00014	83 c4 04	 add	 esp, 4
  00017	0f be 10	 movsx	 edx, BYTE PTR [eax]
  0001a	85 d2		 test	 edx, edx
  0001c	74 1a		 je	 SHORT $L199363

; 252  : 				_Ptr = _Right(_Ptr);	// end() ==> rightmost

  0001e	8b 45 f8	 mov	 eax, DWORD PTR _this$[ebp]
  00021	8b 08		 mov	 ecx, DWORD PTR [eax]
  00023	51		 push	 ecx
  00024	e8 00 00 00 00	 call	 ?_Right@?$_Tree@V?$_Tmap_traits@PAUHWND__@@UWndMoveData@@U?$less@PAUHWND__@@@std@@V?$allocator@U?$pair@QAUHWND__@@UWndMoveData@@@std@@@4@$0A@@std@@@std@@KAAAPAU_Node@?$_Tree_nod@V?$_Tmap_traits@PAUHWND__@@UWndMoveData@@U?$less@PAUHWND__@@@std@@V?$allocator@U?$pair@QAUHWND__@@UWndMoveData@@@std@@@4@$0A@@std@@@2@PAU342@@Z ; std::_Tree<std::_Tmap_traits<HWND__ *,WndMoveData,std::less<HWND__ *>,std::allocator<std::pair<HWND__ * const,WndMoveData> >,0> >::_Right
  00029	83 c4 04	 add	 esp, 4
  0002c	8b 55 f8	 mov	 edx, DWORD PTR _this$[ebp]
  0002f	8b 00		 mov	 eax, DWORD PTR [eax]
  00031	89 02		 mov	 DWORD PTR [edx], eax

; 253  : 			else if (!_Isnil(_Left(_Ptr)))

  00033	e9 a0 00 00 00	 jmp	 $L199362
$L199363:
  00038	8b 4d f8	 mov	 ecx, DWORD PTR _this$[ebp]
  0003b	8b 11		 mov	 edx, DWORD PTR [ecx]
  0003d	52		 push	 edx
  0003e	e8 00 00 00 00	 call	 ?_Left@?$_Tree@V?$_Tmap_traits@PAUHWND__@@UWndMoveData@@U?$less@PAUHWND__@@@std@@V?$allocator@U?$pair@QAUHWND__@@UWndMoveData@@@std@@@4@$0A@@std@@@std@@KAAAPAU_Node@?$_Tree_nod@V?$_Tmap_traits@PAUHWND__@@UWndMoveData@@U?$less@PAUHWND__@@@std@@V?$allocator@U?$pair@QAUHWND__@@UWndMoveData@@@std@@@4@$0A@@std@@@2@PAU342@@Z ; std::_Tree<std::_Tmap_traits<HWND__ *,WndMoveData,std::less<HWND__ *>,std::allocator<std::pair<HWND__ * const,WndMoveData> >,0> >::_Left
  00043	83 c4 04	 add	 esp, 4
  00046	8b 00		 mov	 eax, DWORD PTR [eax]
  00048	50		 push	 eax
  00049	e8 00 00 00 00	 call	 ?_Isnil@?$_Tree@V?$_Tmap_traits@PAUHWND__@@UWndMoveData@@U?$less@PAUHWND__@@@std@@V?$allocator@U?$pair@QAUHWND__@@UWndMoveData@@@std@@@4@$0A@@std@@@std@@KAAADPAU_Node@?$_Tree_nod@V?$_Tmap_traits@PAUHWND__@@UWndMoveData@@U?$less@PAUHWND__@@@std@@V?$allocator@U?$pair@QAUHWND__@@UWndMoveData@@@std@@@4@$0A@@std@@@2@@Z ; std::_Tree<std::_Tmap_traits<HWND__ *,WndMoveData,std::less<HWND__ *>,std::allocator<std::pair<HWND__ * const,WndMoveData> >,0> >::_Isnil
  0004e	83 c4 04	 add	 esp, 4
  00051	0f be 08	 movsx	 ecx, BYTE PTR [eax]
  00054	85 c9		 test	 ecx, ecx
  00056	75 20		 jne	 SHORT $L199369

; 254  : 				_Ptr = _Max(_Left(_Ptr));	// ==> largest of left subtree

  00058	8b 55 f8	 mov	 edx, DWORD PTR _this$[ebp]
  0005b	8b 02		 mov	 eax, DWORD PTR [edx]
  0005d	50		 push	 eax
  0005e	e8 00 00 00 00	 call	 ?_Left@?$_Tree@V?$_Tmap_traits@PAUHWND__@@UWndMoveData@@U?$less@PAUHWND__@@@std@@V?$allocator@U?$pair@QAUHWND__@@UWndMoveData@@@std@@@4@$0A@@std@@@std@@KAAAPAU_Node@?$_Tree_nod@V?$_Tmap_traits@PAUHWND__@@UWndMoveData@@U?$less@PAUHWND__@@@std@@V?$allocator@U?$pair@QAUHWND__@@UWndMoveData@@@std@@@4@$0A@@std@@@2@PAU342@@Z ; std::_Tree<std::_Tmap_traits<HWND__ *,WndMoveData,std::less<HWND__ *>,std::allocator<std::pair<HWND__ * const,WndMoveData> >,0> >::_Left
  00063	83 c4 04	 add	 esp, 4
  00066	8b 08		 mov	 ecx, DWORD PTR [eax]
  00068	51		 push	 ecx
  00069	e8 00 00 00 00	 call	 ?_Max@?$_Tree@V?$_Tmap_traits@PAUHWND__@@UWndMoveData@@U?$less@PAUHWND__@@@std@@V?$allocator@U?$pair@QAUHWND__@@UWndMoveData@@@std@@@4@$0A@@std@@@std@@KAPAU_Node@?$_Tree_nod@V?$_Tmap_traits@PAUHWND__@@UWndMoveData@@U?$less@PAUHWND__@@@std@@V?$allocator@U?$pair@QAUHWND__@@UWndMoveData@@@std@@@4@$0A@@std@@@2@PAU342@@Z ; std::_Tree<std::_Tmap_traits<HWND__ *,WndMoveData,std::less<HWND__ *>,std::allocator<std::pair<HWND__ * const,WndMoveData> >,0> >::_Max
  0006e	83 c4 04	 add	 esp, 4
  00071	8b 55 f8	 mov	 edx, DWORD PTR _this$[ebp]
  00074	89 02		 mov	 DWORD PTR [edx], eax

; 255  : 			else

  00076	eb 60		 jmp	 SHORT $L199362
$L199369:

; 256  : 				{	// climb looking for left subtree
; 257  : 				_Nodeptr _Pnode;
; 258  : 				while (!_Isnil(_Pnode = _Parent(_Ptr))
; 259  : 					&& _Ptr == _Left(_Pnode))

  00078	8b 45 f8	 mov	 eax, DWORD PTR _this$[ebp]
  0007b	8b 08		 mov	 ecx, DWORD PTR [eax]
  0007d	51		 push	 ecx
  0007e	e8 00 00 00 00	 call	 ?_Parent@?$_Tree@V?$_Tmap_traits@PAUHWND__@@UWndMoveData@@U?$less@PAUHWND__@@@std@@V?$allocator@U?$pair@QAUHWND__@@UWndMoveData@@@std@@@4@$0A@@std@@@std@@KAAAPAU_Node@?$_Tree_nod@V?$_Tmap_traits@PAUHWND__@@UWndMoveData@@U?$less@PAUHWND__@@@std@@V?$allocator@U?$pair@QAUHWND__@@UWndMoveData@@@std@@@4@$0A@@std@@@2@PAU342@@Z ; std::_Tree<std::_Tmap_traits<HWND__ *,WndMoveData,std::less<HWND__ *>,std::allocator<std::pair<HWND__ * const,WndMoveData> >,0> >::_Parent
  00083	83 c4 04	 add	 esp, 4
  00086	8b 10		 mov	 edx, DWORD PTR [eax]
  00088	89 55 fc	 mov	 DWORD PTR __Pnode$199367[ebp], edx
  0008b	8b 45 fc	 mov	 eax, DWORD PTR __Pnode$199367[ebp]
  0008e	50		 push	 eax
  0008f	e8 00 00 00 00	 call	 ?_Isnil@?$_Tree@V?$_Tmap_traits@PAUHWND__@@UWndMoveData@@U?$less@PAUHWND__@@@std@@V?$allocator@U?$pair@QAUHWND__@@UWndMoveData@@@std@@@4@$0A@@std@@@std@@KAAADPAU_Node@?$_Tree_nod@V?$_Tmap_traits@PAUHWND__@@UWndMoveData@@U?$less@PAUHWND__@@@std@@V?$allocator@U?$pair@QAUHWND__@@UWndMoveData@@@std@@@4@$0A@@std@@@2@@Z ; std::_Tree<std::_Tmap_traits<HWND__ *,WndMoveData,std::less<HWND__ *>,std::allocator<std::pair<HWND__ * const,WndMoveData> >,0> >::_Isnil
  00094	83 c4 04	 add	 esp, 4
  00097	0f be 08	 movsx	 ecx, BYTE PTR [eax]
  0009a	85 c9		 test	 ecx, ecx
  0009c	75 1f		 jne	 SHORT $L199370
  0009e	8b 55 fc	 mov	 edx, DWORD PTR __Pnode$199367[ebp]
  000a1	52		 push	 edx
  000a2	e8 00 00 00 00	 call	 ?_Left@?$_Tree@V?$_Tmap_traits@PAUHWND__@@UWndMoveData@@U?$less@PAUHWND__@@@std@@V?$allocator@U?$pair@QAUHWND__@@UWndMoveData@@@std@@@4@$0A@@std@@@std@@KAAAPAU_Node@?$_Tree_nod@V?$_Tmap_traits@PAUHWND__@@UWndMoveData@@U?$less@PAUHWND__@@@std@@V?$allocator@U?$pair@QAUHWND__@@UWndMoveData@@@std@@@4@$0A@@std@@@2@PAU342@@Z ; std::_Tree<std::_Tmap_traits<HWND__ *,WndMoveData,std::less<HWND__ *>,std::allocator<std::pair<HWND__ * const,WndMoveData> >,0> >::_Left
  000a7	83 c4 04	 add	 esp, 4
  000aa	8b 4d f8	 mov	 ecx, DWORD PTR _this$[ebp]
  000ad	8b 11		 mov	 edx, DWORD PTR [ecx]
  000af	3b 10		 cmp	 edx, DWORD PTR [eax]
  000b1	75 0a		 jne	 SHORT $L199370

; 260  : 					_Ptr = _Pnode;	// ==> parent while left subtree

  000b3	8b 45 f8	 mov	 eax, DWORD PTR _this$[ebp]
  000b6	8b 4d fc	 mov	 ecx, DWORD PTR __Pnode$199367[ebp]
  000b9	89 08		 mov	 DWORD PTR [eax], ecx
  000bb	eb bb		 jmp	 SHORT $L199369
$L199370:

; 261  : 				if (!_Isnil(_Pnode))

  000bd	8b 55 fc	 mov	 edx, DWORD PTR __Pnode$199367[ebp]
  000c0	52		 push	 edx
  000c1	e8 00 00 00 00	 call	 ?_Isnil@?$_Tree@V?$_Tmap_traits@PAUHWND__@@UWndMoveData@@U?$less@PAUHWND__@@@std@@V?$allocator@U?$pair@QAUHWND__@@UWndMoveData@@@std@@@4@$0A@@std@@@std@@KAAADPAU_Node@?$_Tree_nod@V?$_Tmap_traits@PAUHWND__@@UWndMoveData@@U?$less@PAUHWND__@@@std@@V?$allocator@U?$pair@QAUHWND__@@UWndMoveData@@@std@@@4@$0A@@std@@@2@@Z ; std::_Tree<std::_Tmap_traits<HWND__ *,WndMoveData,std::less<HWND__ *>,std::allocator<std::pair<HWND__ * const,WndMoveData> >,0> >::_Isnil
  000c6	83 c4 04	 add	 esp, 4
  000c9	0f be 00	 movsx	 eax, BYTE PTR [eax]
  000cc	85 c0		 test	 eax, eax
  000ce	75 08		 jne	 SHORT $L199362

; 262  : 					_Ptr = _Pnode;	// ==> parent if not head

  000d0	8b 4d f8	 mov	 ecx, DWORD PTR _this$[ebp]
  000d3	8b 55 fc	 mov	 edx, DWORD PTR __Pnode$199367[ebp]
  000d6	89 11		 mov	 DWORD PTR [ecx], edx
$L199362:

; 263  : 				}
; 264  : 			}

  000d8	8b e5		 mov	 esp, ebp
  000da	5d		 pop	 ebp
  000db	c3		 ret	 0
?_Dec@const_iterator@?$_Tree@V?$_Tmap_traits@PAUHWND__@@UWndMoveData@@U?$less@PAUHWND__@@@std@@V?$allocator@U?$pair@QAUHWND__@@UWndMoveData@@@std@@@4@$0A@@std@@@std@@QAEXXZ ENDP ; std::_Tree<std::_Tmap_traits<HWND__ *,WndMoveData,std::less<HWND__ *>,std::allocator<std::pair<HWND__ * const,WndMoveData> >,0> >::const_iterator::_Dec
; Function compile flags: /Odt
_TEXT	ENDS
;	COMDAT ??0_Node@?$_Tree_nod@V?$_Tmap_traits@PAUHWND__@@UWndMoveData@@U?$less@PAUHWND__@@@std@@V?$allocator@U?$pair@QAUHWND__@@UWndMoveData@@@std@@@4@$0A@@std@@@std@@QAE@PAU012@00ABU?$pair@QAUHWND__@@UWndMoveData@@@2@D@Z
_TEXT	SEGMENT
_this$ = -4						; size = 4
__Larg$ = 8						; size = 4
__Parg$ = 12						; size = 4
__Rarg$ = 16						; size = 4
__Val$ = 20						; size = 4
__Carg$ = 24						; size = 1
??0_Node@?$_Tree_nod@V?$_Tmap_traits@PAUHWND__@@UWndMoveData@@U?$less@PAUHWND__@@@std@@V?$allocator@U?$pair@QAUHWND__@@UWndMoveData@@@std@@@4@$0A@@std@@@std@@QAE@PAU012@00ABU?$pair@QAUHWND__@@UWndMoveData@@@2@D@Z PROC NEAR ; std::_Tree_nod<std::_Tmap_traits<HWND__ *,WndMoveData,std::less<HWND__ *>,std::allocator<std::pair<HWND__ * const,WndMoveData> >,0> >::_Node::_Node, COMDAT
; _this$ = ecx

; 40   : 			{	// construct a node with value

  00000	55		 push	 ebp
  00001	8b ec		 mov	 ebp, esp
  00003	51		 push	 ecx
  00004	56		 push	 esi
  00005	57		 push	 edi
  00006	89 4d fc	 mov	 DWORD PTR _this$[ebp], ecx
  00009	8b 45 fc	 mov	 eax, DWORD PTR _this$[ebp]
  0000c	8b 4d 08	 mov	 ecx, DWORD PTR __Larg$[ebp]
  0000f	89 08		 mov	 DWORD PTR [eax], ecx
  00011	8b 55 fc	 mov	 edx, DWORD PTR _this$[ebp]
  00014	8b 45 0c	 mov	 eax, DWORD PTR __Parg$[ebp]
  00017	89 42 04	 mov	 DWORD PTR [edx+4], eax
  0001a	8b 4d fc	 mov	 ecx, DWORD PTR _this$[ebp]
  0001d	8b 55 10	 mov	 edx, DWORD PTR __Rarg$[ebp]
  00020	89 51 08	 mov	 DWORD PTR [ecx+8], edx
  00023	8b 75 14	 mov	 esi, DWORD PTR __Val$[ebp]
  00026	8b 7d fc	 mov	 edi, DWORD PTR _this$[ebp]
  00029	83 c7 0c	 add	 edi, 12			; 0000000cH
  0002c	b9 08 00 00 00	 mov	 ecx, 8
  00031	f3 a5		 rep movsd
  00033	8b 45 fc	 mov	 eax, DWORD PTR _this$[ebp]
  00036	8a 4d 18	 mov	 cl, BYTE PTR __Carg$[ebp]
  00039	88 48 2c	 mov	 BYTE PTR [eax+44], cl
  0003c	8b 55 fc	 mov	 edx, DWORD PTR _this$[ebp]
  0003f	c6 42 2d 00	 mov	 BYTE PTR [edx+45], 0

; 41   : 			}

  00043	8b 45 fc	 mov	 eax, DWORD PTR _this$[ebp]
  00046	5f		 pop	 edi
  00047	5e		 pop	 esi
  00048	8b e5		 mov	 esp, ebp
  0004a	5d		 pop	 ebp
  0004b	c2 14 00	 ret	 20			; 00000014H
??0_Node@?$_Tree_nod@V?$_Tmap_traits@PAUHWND__@@UWndMoveData@@U?$less@PAUHWND__@@@std@@V?$allocator@U?$pair@QAUHWND__@@UWndMoveData@@@std@@@4@$0A@@std@@@std@@QAE@PAU012@00ABU?$pair@QAUHWND__@@UWndMoveData@@@2@D@Z ENDP ; std::_Tree_nod<std::_Tmap_traits<HWND__ *,WndMoveData,std::less<HWND__ *>,std::allocator<std::pair<HWND__ * const,WndMoveData> >,0> >::_Node::_Node
; Function compile flags: /Odt
; File d:\program files (x86)\microsoft visual studio .net 2003\vc7\include\map
_TEXT	ENDS
;	COMDAT ??0?$_Tmap_traits@PAUHWND__@@UWndMoveData@@U?$less@PAUHWND__@@@std@@V?$allocator@U?$pair@QAUHWND__@@UWndMoveData@@@std@@@4@$0A@@std@@QAE@U?$less@PAUHWND__@@@1@@Z
_TEXT	SEGMENT
_this$ = -4						; size = 4
__Parg$ = 8						; size = 1
??0?$_Tmap_traits@PAUHWND__@@UWndMoveData@@U?$less@PAUHWND__@@@std@@V?$allocator@U?$pair@QAUHWND__@@UWndMoveData@@@std@@@4@$0A@@std@@QAE@U?$less@PAUHWND__@@@1@@Z PROC NEAR ; std::_Tmap_traits<HWND__ *,WndMoveData,std::less<HWND__ *>,std::allocator<std::pair<HWND__ * const,WndMoveData> >,0>::_Tmap_traits<HWND__ *,WndMoveData,std::less<HWND__ *>,std::allocator<std::pair<HWND__ * const,WndMoveData> >,0>, COMDAT
; _this$ = ecx

; 38   : 		{	// construct with specified comparator

  00000	55		 push	 ebp
  00001	8b ec		 mov	 ebp, esp
  00003	51		 push	 ecx
  00004	89 4d fc	 mov	 DWORD PTR _this$[ebp], ecx

; 39   : 		}

  00007	8b 45 fc	 mov	 eax, DWORD PTR _this$[ebp]
  0000a	8b e5		 mov	 esp, ebp
  0000c	5d		 pop	 ebp
  0000d	c2 04 00	 ret	 4
??0?$_Tmap_traits@PAUHWND__@@UWndMoveData@@U?$less@PAUHWND__@@@std@@V?$allocator@U?$pair@QAUHWND__@@UWndMoveData@@@std@@@4@$0A@@std@@QAE@U?$less@PAUHWND__@@@1@@Z ENDP ; std::_Tmap_traits<HWND__ *,WndMoveData,std::less<HWND__ *>,std::allocator<std::pair<HWND__ * const,WndMoveData> >,0>::_Tmap_traits<HWND__ *,WndMoveData,std::less<HWND__ *>,std::allocator<std::pair<HWND__ * const,WndMoveData> >,0>
; Function compile flags: /Odt
; File d:\program files (x86)\microsoft visual studio .net 2003\vc7\include\xmemory
_TEXT	ENDS
;	COMDAT ??$_Destroy@U_Node@?$_Tree_nod@V?$_Tmap_traits@PAUHWND__@@UWndMoveData@@U?$less@PAUHWND__@@@std@@V?$allocator@U?$pair@QAUHWND__@@UWndMoveData@@@std@@@4@$0A@@std@@@std@@@std@@YAXPAU_Node@?$_Tree_nod@V?$_Tmap_traits@PAUHWND__@@UWndMoveData@@U?$less@PAUHWND__@@@std@@V?$allocator@U?$pair@QAUHWND__@@UWndMoveData@@@std@@@4@$0A@@std@@@0@@Z
_TEXT	SEGMENT
__Ptr$ = 8						; size = 4
??$_Destroy@U_Node@?$_Tree_nod@V?$_Tmap_traits@PAUHWND__@@UWndMoveData@@U?$less@PAUHWND__@@@std@@V?$allocator@U?$pair@QAUHWND__@@UWndMoveData@@@std@@@4@$0A@@std@@@std@@@std@@YAXPAU_Node@?$_Tree_nod@V?$_Tmap_traits@PAUHWND__@@UWndMoveData@@U?$less@PAUHWND__@@@std@@V?$allocator@U?$pair@QAUHWND__@@UWndMoveData@@@std@@@4@$0A@@std@@@0@@Z PROC NEAR ; std::_Destroy<std::_Tree_nod<std::_Tmap_traits<HWND__ *,WndMoveData,std::less<HWND__ *>,std::allocator<std::pair<HWND__ * const,WndMoveData> >,0> >::_Node>, COMDAT

; 48   : 	{	// destroy object at _Ptr

  00000	55		 push	 ebp
  00001	8b ec		 mov	 ebp, esp

; 49   : 	_DESTRUCTOR(_Ty, _Ptr);
; 50   : 	}

  00003	5d		 pop	 ebp
  00004	c3		 ret	 0
??$_Destroy@U_Node@?$_Tree_nod@V?$_Tmap_traits@PAUHWND__@@UWndMoveData@@U?$less@PAUHWND__@@@std@@V?$allocator@U?$pair@QAUHWND__@@UWndMoveData@@@std@@@4@$0A@@std@@@std@@@std@@YAXPAU_Node@?$_Tree_nod@V?$_Tmap_traits@PAUHWND__@@UWndMoveData@@U?$less@PAUHWND__@@@std@@V?$allocator@U?$pair@QAUHWND__@@UWndMoveData@@@std@@@4@$0A@@std@@@0@@Z ENDP ; std::_Destroy<std::_Tree_nod<std::_Tmap_traits<HWND__ *,WndMoveData,std::less<HWND__ *>,std::allocator<std::pair<HWND__ * const,WndMoveData> >,0> >::_Node>
; Function compile flags: /Odt
_TEXT	ENDS
;	COMDAT ??$_Destroy@PAU_Node@?$_Tree_nod@V?$_Tmap_traits@PAUHWND__@@UWndMoveData@@U?$less@PAUHWND__@@@std@@V?$allocator@U?$pair@QAUHWND__@@UWndMoveData@@@std@@@4@$0A@@std@@@std@@@std@@YAXPAPAU_Node@?$_Tree_nod@V?$_Tmap_traits@PAUHWND__@@UWndMoveData@@U?$less@PAUHWND__@@@std@@V?$allocator@U?$pair@QAUHWND__@@UWndMoveData@@@std@@@4@$0A@@std@@@0@@Z
_TEXT	SEGMENT
__Ptr$ = 8						; size = 4
??$_Destroy@PAU_Node@?$_Tree_nod@V?$_Tmap_traits@PAUHWND__@@UWndMoveData@@U?$less@PAUHWND__@@@std@@V?$allocator@U?$pair@QAUHWND__@@UWndMoveData@@@std@@@4@$0A@@std@@@std@@@std@@YAXPAPAU_Node@?$_Tree_nod@V?$_Tmap_traits@PAUHWND__@@UWndMoveData@@U?$less@PAUHWND__@@@std@@V?$allocator@U?$pair@QAUHWND__@@UWndMoveData@@@std@@@4@$0A@@std@@@0@@Z PROC NEAR ; std::_Destroy<std::_Tree_nod<std::_Tmap_traits<HWND__ *,WndMoveData,std::less<HWND__ *>,std::allocator<std::pair<HWND__ * const,WndMoveData> >,0> >::_Node *>, COMDAT

; 48   : 	{	// destroy object at _Ptr

  00000	55		 push	 ebp
  00001	8b ec		 mov	 ebp, esp

; 49   : 	_DESTRUCTOR(_Ty, _Ptr);
; 50   : 	}

  00003	5d		 pop	 ebp
  00004	c3		 ret	 0
??$_Destroy@PAU_Node@?$_Tree_nod@V?$_Tmap_traits@PAUHWND__@@UWndMoveData@@U?$less@PAUHWND__@@@std@@V?$allocator@U?$pair@QAUHWND__@@UWndMoveData@@@std@@@4@$0A@@std@@@std@@@std@@YAXPAPAU_Node@?$_Tree_nod@V?$_Tmap_traits@PAUHWND__@@UWndMoveData@@U?$less@PAUHWND__@@@std@@V?$allocator@U?$pair@QAUHWND__@@UWndMoveData@@@std@@@4@$0A@@std@@@0@@Z ENDP ; std::_Destroy<std::_Tree_nod<std::_Tmap_traits<HWND__ *,WndMoveData,std::less<HWND__ *>,std::allocator<std::pair<HWND__ * const,WndMoveData> >,0> >::_Node *>
; Function compile flags: /Odt
_TEXT	ENDS
;	COMDAT ??$?0U?$pair@QAUHWND__@@UWndMoveData@@@std@@@?$allocator@PAU_Node@?$_Tree_nod@V?$_Tmap_traits@PAUHWND__@@UWndMoveData@@U?$less@PAUHWND__@@@std@@V?$allocator@U?$pair@QAUHWND__@@UWndMoveData@@@std@@@4@$0A@@std@@@std@@@std@@QAE@ABV?$allocator@U?$pair@QAUHWND__@@UWndMoveData@@@std@@@1@@Z
_TEXT	SEGMENT
_this$ = -4						; size = 4
___formal$ = 8						; size = 4
??$?0U?$pair@QAUHWND__@@UWndMoveData@@@std@@@?$allocator@PAU_Node@?$_Tree_nod@V?$_Tmap_traits@PAUHWND__@@UWndMoveData@@U?$less@PAUHWND__@@@std@@V?$allocator@U?$pair@QAUHWND__@@UWndMoveData@@@std@@@4@$0A@@std@@@std@@@std@@QAE@ABV?$allocator@U?$pair@QAUHWND__@@UWndMoveData@@@std@@@1@@Z PROC NEAR ; std::allocator<std::_Tree_nod<std::_Tmap_traits<HWND__ *,WndMoveData,std::less<HWND__ *>,std::allocator<std::pair<HWND__ * const,WndMoveData> >,0> >::_Node *>::allocator<std::_Tree_nod<std::_Tmap_traits<HWND__ *,WndMoveData,std::less<HWND__ *>,std::allocator<std::pair<HWND__ * const,WndMoveData> >,0> >::_Node *><std::pair<HWND__ * const,WndMoveData> >, COMDAT
; _this$ = ecx

; 120  : 		allocator(const allocator<_Other>&)

  00000	55		 push	 ebp
  00001	8b ec		 mov	 ebp, esp
  00003	51		 push	 ecx
  00004	89 4d fc	 mov	 DWORD PTR _this$[ebp], ecx

; 121  : 		{	// construct from a related allocator (do nothing)
; 122  : 		}

  00007	8b 45 fc	 mov	 eax, DWORD PTR _this$[ebp]
  0000a	8b e5		 mov	 esp, ebp
  0000c	5d		 pop	 ebp
  0000d	c2 04 00	 ret	 4
??$?0U?$pair@QAUHWND__@@UWndMoveData@@@std@@@?$allocator@PAU_Node@?$_Tree_nod@V?$_Tmap_traits@PAUHWND__@@UWndMoveData@@U?$less@PAUHWND__@@@std@@V?$allocator@U?$pair@QAUHWND__@@UWndMoveData@@@std@@@4@$0A@@std@@@std@@@std@@QAE@ABV?$allocator@U?$pair@QAUHWND__@@UWndMoveData@@@std@@@1@@Z ENDP ; std::allocator<std::_Tree_nod<std::_Tmap_traits<HWND__ *,WndMoveData,std::less<HWND__ *>,std::allocator<std::pair<HWND__ * const,WndMoveData> >,0> >::_Node *>::allocator<std::_Tree_nod<std::_Tmap_traits<HWND__ *,WndMoveData,std::less<HWND__ *>,std::allocator<std::pair<HWND__ * const,WndMoveData> >,0> >::_Node *><std::pair<HWND__ * const,WndMoveData> >
; Function compile flags: /Odt
_TEXT	ENDS
;	COMDAT ??$?0U?$pair@QAUHWND__@@UWndMoveData@@@std@@@?$allocator@U_Node@?$_Tree_nod@V?$_Tmap_traits@PAUHWND__@@UWndMoveData@@U?$less@PAUHWND__@@@std@@V?$allocator@U?$pair@QAUHWND__@@UWndMoveData@@@std@@@4@$0A@@std@@@std@@@std@@QAE@ABV?$allocator@U?$pair@QAUHWND__@@UWndMoveData@@@std@@@1@@Z
_TEXT	SEGMENT
_this$ = -4						; size = 4
___formal$ = 8						; size = 4
??$?0U?$pair@QAUHWND__@@UWndMoveData@@@std@@@?$allocator@U_Node@?$_Tree_nod@V?$_Tmap_traits@PAUHWND__@@UWndMoveData@@U?$less@PAUHWND__@@@std@@V?$allocator@U?$pair@QAUHWND__@@UWndMoveData@@@std@@@4@$0A@@std@@@std@@@std@@QAE@ABV?$allocator@U?$pair@QAUHWND__@@UWndMoveData@@@std@@@1@@Z PROC NEAR ; std::allocator<std::_Tree_nod<std::_Tmap_traits<HWND__ *,WndMoveData,std::less<HWND__ *>,std::allocator<std::pair<HWND__ * const,WndMoveData> >,0> >::_Node>::allocator<std::_Tree_nod<std::_Tmap_traits<HWND__ *,WndMoveData,std::less<HWND__ *>,std::allocator<std::pair<HWND__ * const,WndMoveData> >,0> >::_Node><std::pair<HWND__ * const,WndMoveData> >, COMDAT
; _this$ = ecx

; 120  : 		allocator(const allocator<_Other>&)

  00000	55		 push	 ebp
  00001	8b ec		 mov	 ebp, esp
  00003	51		 push	 ecx
  00004	89 4d fc	 mov	 DWORD PTR _this$[ebp], ecx

; 121  : 		{	// construct from a related allocator (do nothing)
; 122  : 		}

  00007	8b 45 fc	 mov	 eax, DWORD PTR _this$[ebp]
  0000a	8b e5		 mov	 esp, ebp
  0000c	5d		 pop	 ebp
  0000d	c2 04 00	 ret	 4
??$?0U?$pair@QAUHWND__@@UWndMoveData@@@std@@@?$allocator@U_Node@?$_Tree_nod@V?$_Tmap_traits@PAUHWND__@@UWndMoveData@@U?$less@PAUHWND__@@@std@@V?$allocator@U?$pair@QAUHWND__@@UWndMoveData@@@std@@@4@$0A@@std@@@std@@@std@@QAE@ABV?$allocator@U?$pair@QAUHWND__@@UWndMoveData@@@std@@@1@@Z ENDP ; std::allocator<std::_Tree_nod<std::_Tmap_traits<HWND__ *,WndMoveData,std::less<HWND__ *>,std::allocator<std::pair<HWND__ * const,WndMoveData> >,0> >::_Node>::allocator<std::_Tree_nod<std::_Tmap_traits<HWND__ *,WndMoveData,std::less<HWND__ *>,std::allocator<std::pair<HWND__ * const,WndMoveData> >,0> >::_Node><std::pair<HWND__ * const,WndMoveData> >
; Function compile flags: /Odt
_TEXT	ENDS
;	COMDAT ??$_Allocate@U_Node@?$_Tree_nod@V?$_Tmap_traits@PAUHWND__@@UWndMoveData@@U?$less@PAUHWND__@@@std@@V?$allocator@U?$pair@QAUHWND__@@UWndMoveData@@@std@@@4@$0A@@std@@@std@@@std@@YAPAU_Node@?$_Tree_nod@V?$_Tmap_traits@PAUHWND__@@UWndMoveData@@U?$less@PAUHWND__@@@std@@V?$allocator@U?$pair@QAUHWND__@@UWndMoveData@@@std@@@4@$0A@@std@@@0@IPAU120@@Z
_TEXT	SEGMENT
__Count$ = 8						; size = 4
___formal$ = 12						; size = 4
??$_Allocate@U_Node@?$_Tree_nod@V?$_Tmap_traits@PAUHWND__@@UWndMoveData@@U?$less@PAUHWND__@@@std@@V?$allocator@U?$pair@QAUHWND__@@UWndMoveData@@@std@@@4@$0A@@std@@@std@@@std@@YAPAU_Node@?$_Tree_nod@V?$_Tmap_traits@PAUHWND__@@UWndMoveData@@U?$less@PAUHWND__@@@std@@V?$allocator@U?$pair@QAUHWND__@@UWndMoveData@@@std@@@4@$0A@@std@@@0@IPAU120@@Z PROC NEAR ; std::_Allocate<std::_Tree_nod<std::_Tmap_traits<HWND__ *,WndMoveData,std::less<HWND__ *>,std::allocator<std::pair<HWND__ * const,WndMoveData> >,0> >::_Node>, COMDAT

; 33   : 	{	// allocate storage for _Count elements of type _Ty

  00000	55		 push	 ebp
  00001	8b ec		 mov	 ebp, esp

; 34   : 	return ((_Ty _FARQ *)operator new(_Count * sizeof (_Ty)));

  00003	8b 45 08	 mov	 eax, DWORD PTR __Count$[ebp]
  00006	6b c0 30	 imul	 eax, 48			; 00000030H
  00009	50		 push	 eax
  0000a	e8 00 00 00 00	 call	 ??2@YAPAXI@Z		; operator new
  0000f	83 c4 04	 add	 esp, 4

; 35   : 	}

  00012	5d		 pop	 ebp
  00013	c3		 ret	 0
??$_Allocate@U_Node@?$_Tree_nod@V?$_Tmap_traits@PAUHWND__@@UWndMoveData@@U?$less@PAUHWND__@@@std@@V?$allocator@U?$pair@QAUHWND__@@UWndMoveData@@@std@@@4@$0A@@std@@@std@@@std@@YAPAU_Node@?$_Tree_nod@V?$_Tmap_traits@PAUHWND__@@UWndMoveData@@U?$less@PAUHWND__@@@std@@V?$allocator@U?$pair@QAUHWND__@@UWndMoveData@@@std@@@4@$0A@@std@@@0@IPAU120@@Z ENDP ; std::_Allocate<std::_Tree_nod<std::_Tmap_traits<HWND__ *,WndMoveData,std::less<HWND__ *>,std::allocator<std::pair<HWND__ * const,WndMoveData> >,0> >::_Node>
; Function compile flags: /Odt
_TEXT	ENDS
;	COMDAT ??$_Construct@PAU_Node@?$_Tree_nod@V?$_Tmap_traits@PAUHWND__@@UWndMoveData@@U?$less@PAUHWND__@@@std@@V?$allocator@U?$pair@QAUHWND__@@UWndMoveData@@@std@@@4@$0A@@std@@@std@@PAU123@@std@@YAXPAPAU_Node@?$_Tree_nod@V?$_Tmap_traits@PAUHWND__@@UWndMoveData@@U?$less@PAUHWND__@@@std@@V?$allocator@U?$pair@QAUHWND__@@UWndMoveData@@@std@@@4@$0A@@std@@@0@ABQAU120@@Z
_TEXT	SEGMENT
tv68 = -8						; size = 4
$T200263 = -4						; size = 4
__Ptr$ = 8						; size = 4
__Val$ = 12						; size = 4
??$_Construct@PAU_Node@?$_Tree_nod@V?$_Tmap_traits@PAUHWND__@@UWndMoveData@@U?$less@PAUHWND__@@@std@@V?$allocator@U?$pair@QAUHWND__@@UWndMoveData@@@std@@@4@$0A@@std@@@std@@PAU123@@std@@YAXPAPAU_Node@?$_Tree_nod@V?$_Tmap_traits@PAUHWND__@@UWndMoveData@@U?$less@PAUHWND__@@@std@@V?$allocator@U?$pair@QAUHWND__@@UWndMoveData@@@std@@@4@$0A@@std@@@0@ABQAU120@@Z PROC NEAR ; std::_Construct<std::_Tree_nod<std::_Tmap_traits<HWND__ *,WndMoveData,std::less<HWND__ *>,std::allocator<std::pair<HWND__ * const,WndMoveData> >,0> >::_Node *,std::_Tree_nod<std::_Tmap_traits<HWND__ *,WndMoveData,std::less<HWND__ *>,std::allocator<std::pair<HWND__ * const,WndMoveData> >,0> >::_Node *>, COMDAT

; 41   : 	{	// construct object at _Ptr with value _Val

  00000	55		 push	 ebp
  00001	8b ec		 mov	 ebp, esp
  00003	83 ec 08	 sub	 esp, 8

; 42   : 	new ((void _FARQ *)_Ptr) _T1(_Val);

  00006	8b 45 08	 mov	 eax, DWORD PTR __Ptr$[ebp]
  00009	50		 push	 eax
  0000a	6a 04		 push	 4
  0000c	e8 00 00 00 00	 call	 ??2@YAPAXIPAX@Z		; operator new
  00011	83 c4 08	 add	 esp, 8
  00014	89 45 fc	 mov	 DWORD PTR $T200263[ebp], eax
  00017	83 7d fc 00	 cmp	 DWORD PTR $T200263[ebp], 0
  0001b	74 12		 je	 SHORT $L200264
  0001d	8b 4d fc	 mov	 ecx, DWORD PTR $T200263[ebp]
  00020	8b 55 0c	 mov	 edx, DWORD PTR __Val$[ebp]
  00023	8b 02		 mov	 eax, DWORD PTR [edx]
  00025	89 01		 mov	 DWORD PTR [ecx], eax
  00027	8b 4d fc	 mov	 ecx, DWORD PTR $T200263[ebp]
  0002a	89 4d f8	 mov	 DWORD PTR tv68[ebp], ecx
  0002d	eb 07		 jmp	 SHORT $L199409
$L200264:
  0002f	c7 45 f8 00 00
	00 00		 mov	 DWORD PTR tv68[ebp], 0
$L199409:

; 43   : 	}

  00036	8b e5		 mov	 esp, ebp
  00038	5d		 pop	 ebp
  00039	c3		 ret	 0
??$_Construct@PAU_Node@?$_Tree_nod@V?$_Tmap_traits@PAUHWND__@@UWndMoveData@@U?$less@PAUHWND__@@@std@@V?$allocator@U?$pair@QAUHWND__@@UWndMoveData@@@std@@@4@$0A@@std@@@std@@PAU123@@std@@YAXPAPAU_Node@?$_Tree_nod@V?$_Tmap_traits@PAUHWND__@@UWndMoveData@@U?$less@PAUHWND__@@@std@@V?$allocator@U?$pair@QAUHWND__@@UWndMoveData@@@std@@@4@$0A@@std@@@0@ABQAU120@@Z ENDP ; std::_Construct<std::_Tree_nod<std::_Tmap_traits<HWND__ *,WndMoveData,std::less<HWND__ *>,std::allocator<std::pair<HWND__ * const,WndMoveData> >,0> >::_Node *,std::_Tree_nod<std::_Tmap_traits<HWND__ *,WndMoveData,std::less<HWND__ *>,std::allocator<std::pair<HWND__ * const,WndMoveData> >,0> >::_Node *>
; Function compile flags: /Odt
; File d:\program files (x86)\microsoft visual studio .net 2003\vc7\atlmfc\include\atltypes.inl
_TEXT	ENDS
;	COMDAT ??0CPoint@@QAE@XZ
_TEXT	SEGMENT
_this$ = -4						; size = 4
??0CPoint@@QAE@XZ PROC NEAR				; CPoint::CPoint, COMDAT
; _this$ = ecx

; 61   : 	{ /* random filled */ }

  00000	55		 push	 ebp
  00001	8b ec		 mov	 ebp, esp
  00003	51		 push	 ecx
  00004	89 4d fc	 mov	 DWORD PTR _this$[ebp], ecx
  00007	8b 45 fc	 mov	 eax, DWORD PTR _this$[ebp]
  0000a	8b e5		 mov	 esp, ebp
  0000c	5d		 pop	 ebp
  0000d	c3		 ret	 0
??0CPoint@@QAE@XZ ENDP					; CPoint::CPoint
; Function compile flags: /Odt
_TEXT	ENDS
;	COMDAT ??8CPoint@@QBEHUtagPOINT@@@Z
_TEXT	SEGMENT
tv67 = -8						; size = 4
_this$ = -4						; size = 4
_point$ = 8						; size = 8
??8CPoint@@QBEHUtagPOINT@@@Z PROC NEAR			; CPoint::operator==, COMDAT
; _this$ = ecx

; 82   : 	{ return (x == point.x && y == point.y); }

  00000	55		 push	 ebp
  00001	8b ec		 mov	 ebp, esp
  00003	83 ec 08	 sub	 esp, 8
  00006	89 4d fc	 mov	 DWORD PTR _this$[ebp], ecx
  00009	8b 45 fc	 mov	 eax, DWORD PTR _this$[ebp]
  0000c	8b 08		 mov	 ecx, DWORD PTR [eax]
  0000e	3b 4d 08	 cmp	 ecx, DWORD PTR _point$[ebp]
  00011	75 14		 jne	 SHORT $L200270
  00013	8b 55 fc	 mov	 edx, DWORD PTR _this$[ebp]
  00016	8b 42 04	 mov	 eax, DWORD PTR [edx+4]
  00019	3b 45 0c	 cmp	 eax, DWORD PTR _point$[ebp+4]
  0001c	75 09		 jne	 SHORT $L200270
  0001e	c7 45 f8 01 00
	00 00		 mov	 DWORD PTR tv67[ebp], 1
  00025	eb 07		 jmp	 SHORT $L200271
$L200270:
  00027	c7 45 f8 00 00
	00 00		 mov	 DWORD PTR tv67[ebp], 0
$L200271:
  0002e	8b 45 f8	 mov	 eax, DWORD PTR tv67[ebp]
  00031	8b e5		 mov	 esp, ebp
  00033	5d		 pop	 ebp
  00034	c2 08 00	 ret	 8
??8CPoint@@QBEHUtagPOINT@@@Z ENDP			; CPoint::operator==
; Function compile flags: /Odt
_TEXT	ENDS
;	COMDAT ??0CRect@@QAE@XZ
_TEXT	SEGMENT
_this$ = -4						; size = 4
??0CRect@@QAE@XZ PROC NEAR				; CRect::CRect, COMDAT
; _this$ = ecx

; 110  : 	{ /* random filled */ }

  00000	55		 push	 ebp
  00001	8b ec		 mov	 ebp, esp
  00003	51		 push	 ecx
  00004	89 4d fc	 mov	 DWORD PTR _this$[ebp], ecx
  00007	8b 45 fc	 mov	 eax, DWORD PTR _this$[ebp]
  0000a	8b e5		 mov	 esp, ebp
  0000c	5d		 pop	 ebp
  0000d	c3		 ret	 0
??0CRect@@QAE@XZ ENDP					; CRect::CRect
_TEXT	ENDS
EXTRN	__imp__CopyRect@8:NEAR
; Function compile flags: /Odt
;	COMDAT ??0CRect@@QAE@PBUtagRECT@@@Z
_TEXT	SEGMENT
_this$ = -4						; size = 4
_lpSrcRect$ = 8						; size = 4
??0CRect@@QAE@PBUtagRECT@@@Z PROC NEAR			; CRect::CRect, COMDAT
; _this$ = ecx

; 116  : 	{ ::CopyRect(this, lpSrcRect); }

  00000	55		 push	 ebp
  00001	8b ec		 mov	 ebp, esp
  00003	51		 push	 ecx
  00004	89 4d fc	 mov	 DWORD PTR _this$[ebp], ecx
  00007	8b 45 08	 mov	 eax, DWORD PTR _lpSrcRect$[ebp]
  0000a	50		 push	 eax
  0000b	8b 4d fc	 mov	 ecx, DWORD PTR _this$[ebp]
  0000e	51		 push	 ecx
  0000f	ff 15 00 00 00
	00		 call	 DWORD PTR __imp__CopyRect@8
  00015	8b 45 fc	 mov	 eax, DWORD PTR _this$[ebp]
  00018	8b e5		 mov	 esp, ebp
  0001a	5d		 pop	 ebp
  0001b	c2 04 00	 ret	 4
??0CRect@@QAE@PBUtagRECT@@@Z ENDP			; CRect::CRect
; Function compile flags: /Odt
_TEXT	ENDS
;	COMDAT ?Width@CRect@@QBEHXZ
_TEXT	SEGMENT
_this$ = -4						; size = 4
?Width@CRect@@QBEHXZ PROC NEAR				; CRect::Width, COMDAT
; _this$ = ecx

; 123  : 	{ return right - left; }

  00000	55		 push	 ebp
  00001	8b ec		 mov	 ebp, esp
  00003	51		 push	 ecx
  00004	89 4d fc	 mov	 DWORD PTR _this$[ebp], ecx
  00007	8b 45 fc	 mov	 eax, DWORD PTR _this$[ebp]
  0000a	8b 4d fc	 mov	 ecx, DWORD PTR _this$[ebp]
  0000d	8b 40 08	 mov	 eax, DWORD PTR [eax+8]
  00010	2b 01		 sub	 eax, DWORD PTR [ecx]
  00012	8b e5		 mov	 esp, ebp
  00014	5d		 pop	 ebp
  00015	c3		 ret	 0
?Width@CRect@@QBEHXZ ENDP				; CRect::Width
; Function compile flags: /Odt
_TEXT	ENDS
;	COMDAT ?Height@CRect@@QBEHXZ
_TEXT	SEGMENT
_this$ = -4						; size = 4
?Height@CRect@@QBEHXZ PROC NEAR				; CRect::Height, COMDAT
; _this$ = ecx

; 125  : 	{ return bottom - top; }

  00000	55		 push	 ebp
  00001	8b ec		 mov	 ebp, esp
  00003	51		 push	 ecx
  00004	89 4d fc	 mov	 DWORD PTR _this$[ebp], ecx
  00007	8b 45 fc	 mov	 eax, DWORD PTR _this$[ebp]
  0000a	8b 4d fc	 mov	 ecx, DWORD PTR _this$[ebp]
  0000d	8b 40 0c	 mov	 eax, DWORD PTR [eax+12]
  00010	2b 41 04	 sub	 eax, DWORD PTR [ecx+4]
  00013	8b e5		 mov	 esp, ebp
  00015	5d		 pop	 ebp
  00016	c3		 ret	 0
?Height@CRect@@QBEHXZ ENDP				; CRect::Height
; Function compile flags: /Odt
_TEXT	ENDS
;	COMDAT ??BCRect@@QAEPAUtagRECT@@XZ
_TEXT	SEGMENT
_this$ = -4						; size = 4
??BCRect@@QAEPAUtagRECT@@XZ PROC NEAR			; CRect::operator tagRECT *, COMDAT
; _this$ = ecx

; 143  : 	{ return this; }

  00000	55		 push	 ebp
  00001	8b ec		 mov	 ebp, esp
  00003	51		 push	 ecx
  00004	89 4d fc	 mov	 DWORD PTR _this$[ebp], ecx
  00007	8b 45 fc	 mov	 eax, DWORD PTR _this$[ebp]
  0000a	8b e5		 mov	 esp, ebp
  0000c	5d		 pop	 ebp
  0000d	c3		 ret	 0
??BCRect@@QAEPAUtagRECT@@XZ ENDP			; CRect::operator tagRECT *
_TEXT	ENDS
EXTRN	__imp__OffsetRect@12:NEAR
; Function compile flags: /Odt
;	COMDAT ?OffsetRect@CRect@@QAEXHH@Z
_TEXT	SEGMENT
_this$ = -4						; size = 4
_x$ = 8							; size = 4
_y$ = 12						; size = 4
?OffsetRect@CRect@@QAEXHH@Z PROC NEAR			; CRect::OffsetRect, COMDAT
; _this$ = ecx

; 171  : 	{ ::OffsetRect(this, x, y); }

  00000	55		 push	 ebp
  00001	8b ec		 mov	 ebp, esp
  00003	51		 push	 ecx
  00004	89 4d fc	 mov	 DWORD PTR _this$[ebp], ecx
  00007	8b 45 0c	 mov	 eax, DWORD PTR _y$[ebp]
  0000a	50		 push	 eax
  0000b	8b 4d 08	 mov	 ecx, DWORD PTR _x$[ebp]
  0000e	51		 push	 ecx
  0000f	8b 55 fc	 mov	 edx, DWORD PTR _this$[ebp]
  00012	52		 push	 edx
  00013	ff 15 00 00 00
	00		 call	 DWORD PTR __imp__OffsetRect@12
  00019	8b e5		 mov	 esp, ebp
  0001b	5d		 pop	 ebp
  0001c	c2 08 00	 ret	 8
?OffsetRect@CRect@@QAEXHH@Z ENDP			; CRect::OffsetRect
_TEXT	ENDS
PUBLIC	??_R1A@?0A@A@CObject@@8				; CObject::`RTTI Base Class Descriptor at (0,-1,0,0)'
PUBLIC	??_R0?AVCObject@@@8				; CObject `RTTI Type Descriptor'
PUBLIC	??_R0?AVCGdiObject@@@8				; CGdiObject `RTTI Type Descriptor'
PUBLIC	??_R1A@?0A@A@CGdiObject@@8			; CGdiObject::`RTTI Base Class Descriptor at (0,-1,0,0)'
PUBLIC	??_R4CBrush@@6B@				; CBrush::`RTTI Complete Object Locator'
PUBLIC	??_R0?AVCBrush@@@8				; CBrush `RTTI Type Descriptor'
PUBLIC	??_R3CBrush@@8					; CBrush::`RTTI Class Hierarchy Descriptor'
PUBLIC	??_R2CBrush@@8					; CBrush::`RTTI Base Class Array'
PUBLIC	??_R1A@?0A@A@CBrush@@8				; CBrush::`RTTI Base Class Descriptor at (0,-1,0,0)'
PUBLIC	?Serialize@CObject@@UAEXAAVCArchive@@@Z		; CObject::Serialize
PUBLIC	?AssertValid@CObject@@UBEXXZ			; CObject::AssertValid
PUBLIC	?Dump@CObject@@UBEXAAVCDumpContext@@@Z		; CObject::Dump
PUBLIC	??1CGdiObject@@UAE@XZ				; CGdiObject::~CGdiObject
PUBLIC	??_7CBrush@@6B@					; CBrush::`vftable'
PUBLIC	??_GCBrush@@UAEPAXI@Z				; CBrush::`scalar deleting destructor'
EXTRN	?GetRuntimeClass@CBrush@@UBEPAUCRuntimeClass@@XZ:NEAR ; CBrush::GetRuntimeClass
EXTRN	??_ECBrush@@UAEPAXI@Z:NEAR			; CBrush::`vector deleting destructor'
;	COMDAT ??_7CBrush@@6B@
; File d:\program files (x86)\microsoft visual studio .net 2003\vc7\atlmfc\include\afxwin1.inl
CONST	SEGMENT
??_7CBrush@@6B@ DD FLAT:??_R4CBrush@@6B@		; CBrush::`vftable'
	DD	FLAT:?GetRuntimeClass@CBrush@@UBEPAUCRuntimeClass@@XZ
	DD	FLAT:??_ECBrush@@UAEPAXI@Z
	DD	FLAT:?Serialize@CObject@@UAEXAAVCArchive@@@Z
	DD	FLAT:?AssertValid@CObject@@UBEXXZ
	DD	FLAT:?Dump@CObject@@UBEXAAVCDumpContext@@@Z
CONST	ENDS
;	COMDAT ??_R4CBrush@@6B@
rdata$r	SEGMENT
??_R4CBrush@@6B@ DD 00H					; CBrush::`RTTI Complete Object Locator'
	DD	00H
	DD	00H
	DD	FLAT:??_R0?AVCBrush@@@8
	DD	FLAT:??_R3CBrush@@8
rdata$r	ENDS
;	COMDAT ??_R0?AVCBrush@@@8
_DATA	SEGMENT
??_R0?AVCBrush@@@8 DD FLAT:??_7type_info@@6B@		; CBrush `RTTI Type Descriptor'
	DD	00H
	DB	'.?AVCBrush@@', 00H
_DATA	ENDS
;	COMDAT ??_R3CBrush@@8
rdata$r	SEGMENT
??_R3CBrush@@8 DD 00H					; CBrush::`RTTI Class Hierarchy Descriptor'
	DD	00H
	DD	03H
	DD	FLAT:??_R2CBrush@@8
rdata$r	ENDS
;	COMDAT ??_R2CBrush@@8
rdata$r	SEGMENT
??_R2CBrush@@8 DD FLAT:??_R1A@?0A@A@CBrush@@8		; CBrush::`RTTI Base Class Array'
	DD	FLAT:??_R1A@?0A@A@CGdiObject@@8
	DD	FLAT:??_R1A@?0A@A@CObject@@8
rdata$r	ENDS
;	COMDAT ??_R1A@?0A@A@CBrush@@8
rdata$r	SEGMENT
??_R1A@?0A@A@CBrush@@8 DD FLAT:??_R0?AVCBrush@@@8	; CBrush::`RTTI Base Class Descriptor at (0,-1,0,0)'
	DD	02H
	DD	00H
	DD	0ffffffffH
	DD	00H
	DD	00H
rdata$r	ENDS
;	COMDAT ??_R1A@?0A@A@CGdiObject@@8
rdata$r	SEGMENT
??_R1A@?0A@A@CGdiObject@@8 DD FLAT:??_R0?AVCGdiObject@@@8 ; CGdiObject::`RTTI Base Class Descriptor at (0,-1,0,0)'
	DD	01H
	DD	00H
	DD	0ffffffffH
	DD	00H
	DD	00H
rdata$r	ENDS
;	COMDAT ??_R0?AVCGdiObject@@@8
_DATA	SEGMENT
??_R0?AVCGdiObject@@@8 DD FLAT:??_7type_info@@6B@	; CGdiObject `RTTI Type Descriptor'
	DD	00H
	DB	'.?AVCGdiObject@@', 00H
_DATA	ENDS
;	COMDAT ??_R1A@?0A@A@CObject@@8
rdata$r	SEGMENT
??_R1A@?0A@A@CObject@@8 DD FLAT:??_R0?AVCObject@@@8	; CObject::`RTTI Base Class Descriptor at (0,-1,0,0)'
	DD	00H
	DD	00H
	DD	0ffffffffH
	DD	00H
	DD	00H
rdata$r	ENDS
;	COMDAT ??_R0?AVCObject@@@8
_DATA	SEGMENT
??_R0?AVCObject@@@8 DD FLAT:??_7type_info@@6B@		; CObject `RTTI Type Descriptor'
	DD	00H
	DB	'.?AVCObject@@', 00H
; Function compile flags: /Odt
_DATA	ENDS
;	COMDAT ??1CBrush@@UAE@XZ
_TEXT	SEGMENT
_this$ = -4						; size = 4
??1CBrush@@UAE@XZ PROC NEAR				; CBrush::~CBrush, COMDAT
; _this$ = ecx

; 130  : 	{ }

  00000	55		 push	 ebp
  00001	8b ec		 mov	 ebp, esp
  00003	51		 push	 ecx
  00004	89 4d fc	 mov	 DWORD PTR _this$[ebp], ecx
  00007	8b 45 fc	 mov	 eax, DWORD PTR _this$[ebp]
  0000a	c7 00 00 00 00
	00		 mov	 DWORD PTR [eax], OFFSET FLAT:??_7CBrush@@6B@
  00010	8b 4d fc	 mov	 ecx, DWORD PTR _this$[ebp]
  00013	e8 00 00 00 00	 call	 ??1CGdiObject@@UAE@XZ	; CGdiObject::~CGdiObject
  00018	8b e5		 mov	 esp, ebp
  0001a	5d		 pop	 ebp
  0001b	c3		 ret	 0
??1CBrush@@UAE@XZ ENDP					; CBrush::~CBrush
; Function compile flags: /Odt
; File d:\program files (x86)\microsoft visual studio .net 2003\vc7\atlmfc\include\afx.inl
_TEXT	ENDS
;	COMDAT ?Serialize@CObject@@UAEXAAVCArchive@@@Z
_TEXT	SEGMENT
_this$ = -4						; size = 4
___formal$ = 8						; size = 4
?Serialize@CObject@@UAEXAAVCArchive@@@Z PROC NEAR	; CObject::Serialize, COMDAT
; _this$ = ecx

; 25   : 	{ /* CObject does not serialize anything by default */ }

  00000	55		 push	 ebp
  00001	8b ec		 mov	 ebp, esp
  00003	51		 push	 ecx
  00004	89 4d fc	 mov	 DWORD PTR _this$[ebp], ecx
  00007	8b e5		 mov	 esp, ebp
  00009	5d		 pop	 ebp
  0000a	c2 04 00	 ret	 4
?Serialize@CObject@@UAEXAAVCArchive@@@Z ENDP		; CObject::Serialize
; Function compile flags: /Odt
_TEXT	ENDS
;	COMDAT ?AssertValid@CObject@@UBEXXZ
_TEXT	SEGMENT
_this$ = -4						; size = 4
?AssertValid@CObject@@UBEXXZ PROC NEAR			; CObject::AssertValid, COMDAT
; _this$ = ecx

; 41   : 	{ /* no asserts in release builds */ }

  00000	55		 push	 ebp
  00001	8b ec		 mov	 ebp, esp
  00003	51		 push	 ecx
  00004	89 4d fc	 mov	 DWORD PTR _this$[ebp], ecx
  00007	8b e5		 mov	 esp, ebp
  00009	5d		 pop	 ebp
  0000a	c3		 ret	 0
?AssertValid@CObject@@UBEXXZ ENDP			; CObject::AssertValid
; Function compile flags: /Odt
_TEXT	ENDS
;	COMDAT ?Dump@CObject@@UBEXAAVCDumpContext@@@Z
_TEXT	SEGMENT
_this$ = -4						; size = 4
___formal$ = 8						; size = 4
?Dump@CObject@@UBEXAAVCDumpContext@@@Z PROC NEAR	; CObject::Dump, COMDAT
; _this$ = ecx

; 43   : 	{ /* no dumping in release builds */ }

  00000	55		 push	 ebp
  00001	8b ec		 mov	 ebp, esp
  00003	51		 push	 ecx
  00004	89 4d fc	 mov	 DWORD PTR _this$[ebp], ecx
  00007	8b e5		 mov	 esp, ebp
  00009	5d		 pop	 ebp
  0000a	c2 04 00	 ret	 4
?Dump@CObject@@UBEXAAVCDumpContext@@@Z ENDP		; CObject::Dump
_TEXT	ENDS
PUBLIC	??_R4CGdiObject@@6B@				; CGdiObject::`RTTI Complete Object Locator'
PUBLIC	??_R3CGdiObject@@8				; CGdiObject::`RTTI Class Hierarchy Descriptor'
PUBLIC	??_R2CGdiObject@@8				; CGdiObject::`RTTI Base Class Array'
PUBLIC	??1CObject@@UAE@XZ				; CObject::~CObject
PUBLIC	??_7CGdiObject@@6B@				; CGdiObject::`vftable'
PUBLIC	??_GCGdiObject@@UAEPAXI@Z			; CGdiObject::`scalar deleting destructor'
EXTRN	?GetRuntimeClass@CGdiObject@@UBEPAUCRuntimeClass@@XZ:NEAR ; CGdiObject::GetRuntimeClass
EXTRN	??_ECGdiObject@@UAEPAXI@Z:NEAR			; CGdiObject::`vector deleting destructor'
;	COMDAT xdata$x
; File d:\program files (x86)\microsoft visual studio .net 2003\vc7\atlmfc\include\afxwin1.inl
xdata$x	SEGMENT
$T200299 DD	0ffffffffH
	DD	FLAT:$L200295
$T200297 DD	019930520H
	DD	01H
	DD	FLAT:$T200299
	DD	2 DUP(00H)
	DD	2 DUP(00H)
xdata$x	ENDS
;	COMDAT ??_7CGdiObject@@6B@
CONST	SEGMENT
??_7CGdiObject@@6B@ DD FLAT:??_R4CGdiObject@@6B@	; CGdiObject::`vftable'
	DD	FLAT:?GetRuntimeClass@CGdiObject@@UBEPAUCRuntimeClass@@XZ
	DD	FLAT:??_ECGdiObject@@UAEPAXI@Z
	DD	FLAT:?Serialize@CObject@@UAEXAAVCArchive@@@Z
	DD	FLAT:?AssertValid@CObject@@UBEXXZ
	DD	FLAT:?Dump@CObject@@UBEXAAVCDumpContext@@@Z
CONST	ENDS
;	COMDAT ??_R4CGdiObject@@6B@
rdata$r	SEGMENT
??_R4CGdiObject@@6B@ DD 00H				; CGdiObject::`RTTI Complete Object Locator'
	DD	00H
	DD	00H
	DD	FLAT:??_R0?AVCGdiObject@@@8
	DD	FLAT:??_R3CGdiObject@@8
rdata$r	ENDS
;	COMDAT ??_R3CGdiObject@@8
rdata$r	SEGMENT
??_R3CGdiObject@@8 DD 00H				; CGdiObject::`RTTI Class Hierarchy Descriptor'
	DD	00H
	DD	02H
	DD	FLAT:??_R2CGdiObject@@8
rdata$r	ENDS
;	COMDAT ??_R2CGdiObject@@8
rdata$r	SEGMENT
??_R2CGdiObject@@8 DD FLAT:??_R1A@?0A@A@CGdiObject@@8	; CGdiObject::`RTTI Base Class Array'
	DD	FLAT:??_R1A@?0A@A@CObject@@8
; Function compile flags: /Odt
rdata$r	ENDS
;	COMDAT ??1CGdiObject@@UAE@XZ
_TEXT	SEGMENT
_this$ = -16						; size = 4
__$EHRec$ = -12						; size = 12
??1CGdiObject@@UAE@XZ PROC NEAR				; CGdiObject::~CGdiObject, COMDAT
; _this$ = ecx

; 84   : 	{ DeleteObject(); }

  00000	55		 push	 ebp
  00001	8b ec		 mov	 ebp, esp
  00003	6a ff		 push	 -1
  00005	68 00 00 00 00	 push	 __ehhandler$??1CGdiObject@@UAE@XZ
  0000a	64 a1 00 00 00
	00		 mov	 eax, DWORD PTR fs:__except_list
  00010	50		 push	 eax
  00011	64 89 25 00 00
	00 00		 mov	 DWORD PTR fs:__except_list, esp
  00018	51		 push	 ecx
  00019	89 4d f0	 mov	 DWORD PTR _this$[ebp], ecx
  0001c	8b 45 f0	 mov	 eax, DWORD PTR _this$[ebp]
  0001f	c7 00 00 00 00
	00		 mov	 DWORD PTR [eax], OFFSET FLAT:??_7CGdiObject@@6B@
  00025	c7 45 fc 00 00
	00 00		 mov	 DWORD PTR __$EHRec$[ebp+8], 0
  0002c	8b 4d f0	 mov	 ecx, DWORD PTR _this$[ebp]
  0002f	e8 00 00 00 00	 call	 ?DeleteObject@CGdiObject@@QAEHXZ ; CGdiObject::DeleteObject
  00034	c7 45 fc ff ff
	ff ff		 mov	 DWORD PTR __$EHRec$[ebp+8], -1
  0003b	8b 4d f0	 mov	 ecx, DWORD PTR _this$[ebp]
  0003e	e8 00 00 00 00	 call	 ??1CObject@@UAE@XZ	; CObject::~CObject
  00043	8b 4d f4	 mov	 ecx, DWORD PTR __$EHRec$[ebp]
  00046	64 89 0d 00 00
	00 00		 mov	 DWORD PTR fs:__except_list, ecx
  0004d	8b e5		 mov	 esp, ebp
  0004f	5d		 pop	 ebp
  00050	c3		 ret	 0
_TEXT	ENDS
;	COMDAT text$x
text$x	SEGMENT
$L200295:
  00000	8b 4d f0	 mov	 ecx, DWORD PTR _this$[ebp]
  00003	e9 00 00 00 00	 jmp	 ??1CObject@@UAE@XZ	; CObject::~CObject
__ehhandler$??1CGdiObject@@UAE@XZ:
  00008	b8 00 00 00 00	 mov	 eax, OFFSET FLAT:$T200297
  0000d	e9 00 00 00 00	 jmp	 ___CxxFrameHandler
text$x	ENDS
??1CGdiObject@@UAE@XZ ENDP				; CGdiObject::~CGdiObject
; Function compile flags: /Odt
; File d:\program files (x86)\microsoft visual studio .net 2003\vc7\atlmfc\include\afx.inl
;	COMDAT ??1CObject@@UAE@XZ
_TEXT	SEGMENT
_this$ = -4						; size = 4
??1CObject@@UAE@XZ PROC NEAR				; CObject::~CObject, COMDAT
; _this$ = ecx

; 23   : 	{ }

  00000	55		 push	 ebp
  00001	8b ec		 mov	 ebp, esp
  00003	51		 push	 ecx
  00004	89 4d fc	 mov	 DWORD PTR _this$[ebp], ecx
  00007	8b e5		 mov	 esp, ebp
  00009	5d		 pop	 ebp
  0000a	c3		 ret	 0
??1CObject@@UAE@XZ ENDP					; CObject::~CObject
_TEXT	ENDS
PUBLIC	??3CObject@@SGXPAX@Z				; CObject::operator delete
; Function compile flags: /Odt
;	COMDAT ??_GCGdiObject@@UAEPAXI@Z
_TEXT	SEGMENT
_this$ = -4						; size = 4
___flags$ = 8						; size = 4
??_GCGdiObject@@UAEPAXI@Z PROC NEAR			; CGdiObject::`scalar deleting destructor', COMDAT
; _this$ = ecx
  00000	55		 push	 ebp
  00001	8b ec		 mov	 ebp, esp
  00003	51		 push	 ecx
  00004	89 4d fc	 mov	 DWORD PTR _this$[ebp], ecx
  00007	8b 4d fc	 mov	 ecx, DWORD PTR _this$[ebp]
  0000a	e8 00 00 00 00	 call	 ??1CGdiObject@@UAE@XZ	; CGdiObject::~CGdiObject
  0000f	8b 45 08	 mov	 eax, DWORD PTR ___flags$[ebp]
  00012	83 e0 01	 and	 eax, 1
  00015	74 09		 je	 SHORT $L41495
  00017	8b 4d fc	 mov	 ecx, DWORD PTR _this$[ebp]
  0001a	51		 push	 ecx
  0001b	e8 00 00 00 00	 call	 ??3CObject@@SGXPAX@Z	; CObject::operator delete
$L41495:
  00020	8b 45 fc	 mov	 eax, DWORD PTR _this$[ebp]
  00023	8b e5		 mov	 esp, ebp
  00025	5d		 pop	 ebp
  00026	c2 04 00	 ret	 4
??_GCGdiObject@@UAEPAXI@Z ENDP				; CGdiObject::`scalar deleting destructor'
; Function compile flags: /Odt
_TEXT	ENDS
;	COMDAT ??3CObject@@SGXPAX@Z
_TEXT	SEGMENT
_p$ = 8							; size = 4
??3CObject@@SGXPAX@Z PROC NEAR				; CObject::operator delete, COMDAT

; 31   : 	{ ::operator delete(p); }

  00000	55		 push	 ebp
  00001	8b ec		 mov	 ebp, esp
  00003	8b 45 08	 mov	 eax, DWORD PTR _p$[ebp]
  00006	50		 push	 eax
  00007	e8 00 00 00 00	 call	 ??3@YAXPAX@Z		; operator delete
  0000c	83 c4 04	 add	 esp, 4
  0000f	5d		 pop	 ebp
  00010	c2 04 00	 ret	 4
??3CObject@@SGXPAX@Z ENDP				; CObject::operator delete
; Function compile flags: /Odt
_TEXT	ENDS
;	COMDAT ??_GCBrush@@UAEPAXI@Z
_TEXT	SEGMENT
_this$ = -4						; size = 4
___flags$ = 8						; size = 4
??_GCBrush@@UAEPAXI@Z PROC NEAR				; CBrush::`scalar deleting destructor', COMDAT
; _this$ = ecx
  00000	55		 push	 ebp
  00001	8b ec		 mov	 ebp, esp
  00003	51		 push	 ecx
  00004	89 4d fc	 mov	 DWORD PTR _this$[ebp], ecx
  00007	8b 4d fc	 mov	 ecx, DWORD PTR _this$[ebp]
  0000a	e8 00 00 00 00	 call	 ??1CBrush@@UAE@XZ	; CBrush::~CBrush
  0000f	8b 45 08	 mov	 eax, DWORD PTR ___flags$[ebp]
  00012	83 e0 01	 and	 eax, 1
  00015	74 09		 je	 SHORT $L41589
  00017	8b 4d fc	 mov	 ecx, DWORD PTR _this$[ebp]
  0001a	51		 push	 ecx
  0001b	e8 00 00 00 00	 call	 ??3CObject@@SGXPAX@Z	; CObject::operator delete
$L41589:
  00020	8b 45 fc	 mov	 eax, DWORD PTR _this$[ebp]
  00023	8b e5		 mov	 esp, ebp
  00025	5d		 pop	 ebp
  00026	c2 04 00	 ret	 4
??_GCBrush@@UAEPAXI@Z ENDP				; CBrush::`scalar deleting destructor'
_TEXT	ENDS
PUBLIC	??_R4CBitmap@@6B@				; CBitmap::`RTTI Complete Object Locator'
PUBLIC	??_R0?AVCBitmap@@@8				; CBitmap `RTTI Type Descriptor'
PUBLIC	??_R3CBitmap@@8					; CBitmap::`RTTI Class Hierarchy Descriptor'
PUBLIC	??_R2CBitmap@@8					; CBitmap::`RTTI Base Class Array'
PUBLIC	??_R1A@?0A@A@CBitmap@@8				; CBitmap::`RTTI Base Class Descriptor at (0,-1,0,0)'
PUBLIC	??0CGdiObject@@QAE@XZ				; CGdiObject::CGdiObject
PUBLIC	??_7CBitmap@@6B@				; CBitmap::`vftable'
PUBLIC	??_GCBitmap@@UAEPAXI@Z				; CBitmap::`scalar deleting destructor'
EXTRN	?GetRuntimeClass@CBitmap@@UBEPAUCRuntimeClass@@XZ:NEAR ; CBitmap::GetRuntimeClass
EXTRN	??_ECBitmap@@UAEPAXI@Z:NEAR			; CBitmap::`vector deleting destructor'
;	COMDAT ??_7CBitmap@@6B@
; File d:\program files (x86)\microsoft visual studio .net 2003\vc7\atlmfc\include\afxwin1.inl
CONST	SEGMENT
??_7CBitmap@@6B@ DD FLAT:??_R4CBitmap@@6B@		; CBitmap::`vftable'
	DD	FLAT:?GetRuntimeClass@CBitmap@@UBEPAUCRuntimeClass@@XZ
	DD	FLAT:??_ECBitmap@@UAEPAXI@Z
	DD	FLAT:?Serialize@CObject@@UAEXAAVCArchive@@@Z
	DD	FLAT:?AssertValid@CObject@@UBEXXZ
	DD	FLAT:?Dump@CObject@@UBEXAAVCDumpContext@@@Z
CONST	ENDS
;	COMDAT ??_R4CBitmap@@6B@
rdata$r	SEGMENT
??_R4CBitmap@@6B@ DD 00H				; CBitmap::`RTTI Complete Object Locator'
	DD	00H
	DD	00H
	DD	FLAT:??_R0?AVCBitmap@@@8
	DD	FLAT:??_R3CBitmap@@8
rdata$r	ENDS
;	COMDAT ??_R0?AVCBitmap@@@8
_DATA	SEGMENT
??_R0?AVCBitmap@@@8 DD FLAT:??_7type_info@@6B@		; CBitmap `RTTI Type Descriptor'
	DD	00H
	DB	'.?AVCBitmap@@', 00H
_DATA	ENDS
;	COMDAT ??_R3CBitmap@@8
rdata$r	SEGMENT
??_R3CBitmap@@8 DD 00H					; CBitmap::`RTTI Class Hierarchy Descriptor'
	DD	00H
	DD	03H
	DD	FLAT:??_R2CBitmap@@8
rdata$r	ENDS
;	COMDAT ??_R2CBitmap@@8
rdata$r	SEGMENT
??_R2CBitmap@@8 DD FLAT:??_R1A@?0A@A@CBitmap@@8		; CBitmap::`RTTI Base Class Array'
	DD	FLAT:??_R1A@?0A@A@CGdiObject@@8
	DD	FLAT:??_R1A@?0A@A@CObject@@8
rdata$r	ENDS
;	COMDAT ??_R1A@?0A@A@CBitmap@@8
rdata$r	SEGMENT
??_R1A@?0A@A@CBitmap@@8 DD FLAT:??_R0?AVCBitmap@@@8	; CBitmap::`RTTI Base Class Descriptor at (0,-1,0,0)'
	DD	02H
	DD	00H
	DD	0ffffffffH
	DD	00H
	DD	00H
; Function compile flags: /Odt
rdata$r	ENDS
;	COMDAT ??0CBitmap@@QAE@XZ
_TEXT	SEGMENT
_this$ = -4						; size = 4
??0CBitmap@@QAE@XZ PROC NEAR				; CBitmap::CBitmap, COMDAT
; _this$ = ecx

; 177  : 	{ }

  00000	55		 push	 ebp
  00001	8b ec		 mov	 ebp, esp
  00003	51		 push	 ecx
  00004	89 4d fc	 mov	 DWORD PTR _this$[ebp], ecx
  00007	8b 4d fc	 mov	 ecx, DWORD PTR _this$[ebp]
  0000a	e8 00 00 00 00	 call	 ??0CGdiObject@@QAE@XZ	; CGdiObject::CGdiObject
  0000f	8b 45 fc	 mov	 eax, DWORD PTR _this$[ebp]
  00012	c7 00 00 00 00
	00		 mov	 DWORD PTR [eax], OFFSET FLAT:??_7CBitmap@@6B@
  00018	8b 45 fc	 mov	 eax, DWORD PTR _this$[ebp]
  0001b	8b e5		 mov	 esp, ebp
  0001d	5d		 pop	 ebp
  0001e	c3		 ret	 0
??0CBitmap@@QAE@XZ ENDP					; CBitmap::CBitmap
_TEXT	ENDS
PUBLIC	??0CObject@@IAE@XZ				; CObject::CObject
; Function compile flags: /Odt
;	COMDAT ??0CGdiObject@@QAE@XZ
_TEXT	SEGMENT
_this$ = -4						; size = 4
??0CGdiObject@@QAE@XZ PROC NEAR				; CGdiObject::CGdiObject, COMDAT
; _this$ = ecx

; 82   : 	{ m_hObject = NULL; }

  00000	55		 push	 ebp
  00001	8b ec		 mov	 ebp, esp
  00003	51		 push	 ecx
  00004	89 4d fc	 mov	 DWORD PTR _this$[ebp], ecx
  00007	8b 4d fc	 mov	 ecx, DWORD PTR _this$[ebp]
  0000a	e8 00 00 00 00	 call	 ??0CObject@@IAE@XZ	; CObject::CObject
  0000f	8b 45 fc	 mov	 eax, DWORD PTR _this$[ebp]
  00012	c7 00 00 00 00
	00		 mov	 DWORD PTR [eax], OFFSET FLAT:??_7CGdiObject@@6B@
  00018	8b 4d fc	 mov	 ecx, DWORD PTR _this$[ebp]
  0001b	c7 41 04 00 00
	00 00		 mov	 DWORD PTR [ecx+4], 0
  00022	8b 45 fc	 mov	 eax, DWORD PTR _this$[ebp]
  00025	8b e5		 mov	 esp, ebp
  00027	5d		 pop	 ebp
  00028	c3		 ret	 0
??0CGdiObject@@QAE@XZ ENDP				; CGdiObject::CGdiObject
; Function compile flags: /Odt
; File d:\program files (x86)\microsoft visual studio .net 2003\vc7\atlmfc\include\afx.inl
_TEXT	ENDS
;	COMDAT ??0CObject@@IAE@XZ
_TEXT	SEGMENT
_this$ = -4						; size = 4
??0CObject@@IAE@XZ PROC NEAR				; CObject::CObject, COMDAT
; _this$ = ecx

; 21   : 	{ }

  00000	55		 push	 ebp
  00001	8b ec		 mov	 ebp, esp
  00003	51		 push	 ecx
  00004	89 4d fc	 mov	 DWORD PTR _this$[ebp], ecx
  00007	8b 45 fc	 mov	 eax, DWORD PTR _this$[ebp]
  0000a	8b e5		 mov	 esp, ebp
  0000c	5d		 pop	 ebp
  0000d	c3		 ret	 0
??0CObject@@IAE@XZ ENDP					; CObject::CObject
; Function compile flags: /Odt
_TEXT	ENDS
;	COMDAT ??_GCBitmap@@UAEPAXI@Z
_TEXT	SEGMENT
_this$ = -4						; size = 4
___flags$ = 8						; size = 4
??_GCBitmap@@UAEPAXI@Z PROC NEAR			; CBitmap::`scalar deleting destructor', COMDAT
; _this$ = ecx
  00000	55		 push	 ebp
  00001	8b ec		 mov	 ebp, esp
  00003	51		 push	 ecx
  00004	89 4d fc	 mov	 DWORD PTR _this$[ebp], ecx
  00007	8b 4d fc	 mov	 ecx, DWORD PTR _this$[ebp]
  0000a	e8 00 00 00 00	 call	 ??1CBitmap@@UAE@XZ	; CBitmap::~CBitmap
  0000f	8b 45 08	 mov	 eax, DWORD PTR ___flags$[ebp]
  00012	83 e0 01	 and	 eax, 1
  00015	74 09		 je	 SHORT $L41685
  00017	8b 4d fc	 mov	 ecx, DWORD PTR _this$[ebp]
  0001a	51		 push	 ecx
  0001b	e8 00 00 00 00	 call	 ??3CObject@@SGXPAX@Z	; CObject::operator delete
$L41685:
  00020	8b 45 fc	 mov	 eax, DWORD PTR _this$[ebp]
  00023	8b e5		 mov	 esp, ebp
  00025	5d		 pop	 ebp
  00026	c2 04 00	 ret	 4
??_GCBitmap@@UAEPAXI@Z ENDP				; CBitmap::`scalar deleting destructor'
; Function compile flags: /Odt
; File d:\program files (x86)\microsoft visual studio .net 2003\vc7\atlmfc\include\afxwin1.inl
_TEXT	ENDS
;	COMDAT ??1CBitmap@@UAE@XZ
_TEXT	SEGMENT
_this$ = -4						; size = 4
??1CBitmap@@UAE@XZ PROC NEAR				; CBitmap::~CBitmap, COMDAT
; _this$ = ecx

; 179  : 	{ }

  00000	55		 push	 ebp
  00001	8b ec		 mov	 ebp, esp
  00003	51		 push	 ecx
  00004	89 4d fc	 mov	 DWORD PTR _this$[ebp], ecx
  00007	8b 45 fc	 mov	 eax, DWORD PTR _this$[ebp]
  0000a	c7 00 00 00 00
	00		 mov	 DWORD PTR [eax], OFFSET FLAT:??_7CBitmap@@6B@
  00010	8b 4d fc	 mov	 ecx, DWORD PTR _this$[ebp]
  00013	e8 00 00 00 00	 call	 ??1CGdiObject@@UAE@XZ	; CGdiObject::~CGdiObject
  00018	8b e5		 mov	 esp, ebp
  0001a	5d		 pop	 ebp
  0001b	c3		 ret	 0
??1CBitmap@@UAE@XZ ENDP					; CBitmap::~CBitmap
_TEXT	ENDS
EXTRN	?Attach@CGdiObject@@QAEHPAX@Z:NEAR		; CGdiObject::Attach
EXTRN	?AfxFindResourceHandle@@YGPAUHINSTANCE__@@PBD0@Z:NEAR ; AfxFindResourceHandle
EXTRN	__imp__LoadBitmapA@8:NEAR
; Function compile flags: /Odt
;	COMDAT ?LoadBitmapA@CBitmap@@QAEHI@Z
_TEXT	SEGMENT
_this$ = -4						; size = 4
_nIDResource$ = 8					; size = 4
?LoadBitmapA@CBitmap@@QAEHI@Z PROC NEAR			; CBitmap::LoadBitmapA, COMDAT
; _this$ = ecx

; 212  : 	{ return Attach(::LoadBitmap(AfxFindResourceHandle(

  00000	55		 push	 ebp
  00001	8b ec		 mov	 ebp, esp
  00003	51		 push	 ecx
  00004	89 4d fc	 mov	 DWORD PTR _this$[ebp], ecx

; 213  : 		MAKEINTRESOURCE(nIDResource), RT_BITMAP), MAKEINTRESOURCE(nIDResource))); }

  00007	0f b7 45 08	 movzx	 eax, WORD PTR _nIDResource$[ebp]
  0000b	50		 push	 eax
  0000c	6a 02		 push	 2
  0000e	0f b7 4d 08	 movzx	 ecx, WORD PTR _nIDResource$[ebp]
  00012	51		 push	 ecx
  00013	e8 00 00 00 00	 call	 ?AfxFindResourceHandle@@YGPAUHINSTANCE__@@PBD0@Z ; AfxFindResourceHandle
  00018	50		 push	 eax
  00019	ff 15 00 00 00
	00		 call	 DWORD PTR __imp__LoadBitmapA@8
  0001f	50		 push	 eax
  00020	8b 4d fc	 mov	 ecx, DWORD PTR _this$[ebp]
  00023	e8 00 00 00 00	 call	 ?Attach@CGdiObject@@QAEHPAX@Z ; CGdiObject::Attach
  00028	8b e5		 mov	 esp, ebp
  0002a	5d		 pop	 ebp
  0002b	c2 04 00	 ret	 4
?LoadBitmapA@CBitmap@@QAEHI@Z ENDP			; CBitmap::LoadBitmapA
_TEXT	ENDS
PUBLIC	??_R4CRgn@@6B@					; CRgn::`RTTI Complete Object Locator'
PUBLIC	??_R0?AVCRgn@@@8				; CRgn `RTTI Type Descriptor'
PUBLIC	??_R3CRgn@@8					; CRgn::`RTTI Class Hierarchy Descriptor'
PUBLIC	??_R2CRgn@@8					; CRgn::`RTTI Base Class Array'
PUBLIC	??_R1A@?0A@A@CRgn@@8				; CRgn::`RTTI Base Class Descriptor at (0,-1,0,0)'
PUBLIC	??_7CRgn@@6B@					; CRgn::`vftable'
PUBLIC	??_GCRgn@@UAEPAXI@Z				; CRgn::`scalar deleting destructor'
EXTRN	?GetRuntimeClass@CRgn@@UBEPAUCRuntimeClass@@XZ:NEAR ; CRgn::GetRuntimeClass
EXTRN	??_ECRgn@@UAEPAXI@Z:NEAR			; CRgn::`vector deleting destructor'
;	COMDAT ??_7CRgn@@6B@
CONST	SEGMENT
??_7CRgn@@6B@ DD FLAT:??_R4CRgn@@6B@			; CRgn::`vftable'
	DD	FLAT:?GetRuntimeClass@CRgn@@UBEPAUCRuntimeClass@@XZ
	DD	FLAT:??_ECRgn@@UAEPAXI@Z
	DD	FLAT:?Serialize@CObject@@UAEXAAVCArchive@@@Z
	DD	FLAT:?AssertValid@CObject@@UBEXXZ
	DD	FLAT:?Dump@CObject@@UBEXAAVCDumpContext@@@Z
CONST	ENDS
;	COMDAT ??_R4CRgn@@6B@
rdata$r	SEGMENT
??_R4CRgn@@6B@ DD 00H					; CRgn::`RTTI Complete Object Locator'
	DD	00H
	DD	00H
	DD	FLAT:??_R0?AVCRgn@@@8
	DD	FLAT:??_R3CRgn@@8
rdata$r	ENDS
;	COMDAT ??_R0?AVCRgn@@@8
_DATA	SEGMENT
??_R0?AVCRgn@@@8 DD FLAT:??_7type_info@@6B@		; CRgn `RTTI Type Descriptor'
	DD	00H
	DB	'.?AVCRgn@@', 00H
_DATA	ENDS
;	COMDAT ??_R3CRgn@@8
rdata$r	SEGMENT
??_R3CRgn@@8 DD	00H					; CRgn::`RTTI Class Hierarchy Descriptor'
	DD	00H
	DD	03H
	DD	FLAT:??_R2CRgn@@8
rdata$r	ENDS
;	COMDAT ??_R2CRgn@@8
rdata$r	SEGMENT
??_R2CRgn@@8 DD	FLAT:??_R1A@?0A@A@CRgn@@8		; CRgn::`RTTI Base Class Array'
	DD	FLAT:??_R1A@?0A@A@CGdiObject@@8
	DD	FLAT:??_R1A@?0A@A@CObject@@8
rdata$r	ENDS
;	COMDAT ??_R1A@?0A@A@CRgn@@8
rdata$r	SEGMENT
??_R1A@?0A@A@CRgn@@8 DD FLAT:??_R0?AVCRgn@@@8		; CRgn::`RTTI Base Class Descriptor at (0,-1,0,0)'
	DD	02H
	DD	00H
	DD	0ffffffffH
	DD	00H
	DD	00H
; Function compile flags: /Odt
rdata$r	ENDS
;	COMDAT ??0CRgn@@QAE@XZ
_TEXT	SEGMENT
_this$ = -4						; size = 4
??0CRgn@@QAE@XZ PROC NEAR				; CRgn::CRgn, COMDAT
; _this$ = ecx

; 264  : 	{ }

  00000	55		 push	 ebp
  00001	8b ec		 mov	 ebp, esp
  00003	51		 push	 ecx
  00004	89 4d fc	 mov	 DWORD PTR _this$[ebp], ecx
  00007	8b 4d fc	 mov	 ecx, DWORD PTR _this$[ebp]
  0000a	e8 00 00 00 00	 call	 ??0CGdiObject@@QAE@XZ	; CGdiObject::CGdiObject
  0000f	8b 45 fc	 mov	 eax, DWORD PTR _this$[ebp]
  00012	c7 00 00 00 00
	00		 mov	 DWORD PTR [eax], OFFSET FLAT:??_7CRgn@@6B@
  00018	8b 45 fc	 mov	 eax, DWORD PTR _this$[ebp]
  0001b	8b e5		 mov	 esp, ebp
  0001d	5d		 pop	 ebp
  0001e	c3		 ret	 0
??0CRgn@@QAE@XZ ENDP					; CRgn::CRgn
; Function compile flags: /Odt
_TEXT	ENDS
;	COMDAT ??_GCRgn@@UAEPAXI@Z
_TEXT	SEGMENT
_this$ = -4						; size = 4
___flags$ = 8						; size = 4
??_GCRgn@@UAEPAXI@Z PROC NEAR				; CRgn::`scalar deleting destructor', COMDAT
; _this$ = ecx
  00000	55		 push	 ebp
  00001	8b ec		 mov	 ebp, esp
  00003	51		 push	 ecx
  00004	89 4d fc	 mov	 DWORD PTR _this$[ebp], ecx
  00007	8b 4d fc	 mov	 ecx, DWORD PTR _this$[ebp]
  0000a	e8 00 00 00 00	 call	 ??1CRgn@@UAE@XZ		; CRgn::~CRgn
  0000f	8b 45 08	 mov	 eax, DWORD PTR ___flags$[ebp]
  00012	83 e0 01	 and	 eax, 1
  00015	74 09		 je	 SHORT $L41872
  00017	8b 4d fc	 mov	 ecx, DWORD PTR _this$[ebp]
  0001a	51		 push	 ecx
  0001b	e8 00 00 00 00	 call	 ??3CObject@@SGXPAX@Z	; CObject::operator delete
$L41872:
  00020	8b 45 fc	 mov	 eax, DWORD PTR _this$[ebp]
  00023	8b e5		 mov	 esp, ebp
  00025	5d		 pop	 ebp
  00026	c2 04 00	 ret	 4
??_GCRgn@@UAEPAXI@Z ENDP				; CRgn::`scalar deleting destructor'
; Function compile flags: /Odt
_TEXT	ENDS
;	COMDAT ??1CRgn@@UAE@XZ
_TEXT	SEGMENT
_this$ = -4						; size = 4
??1CRgn@@UAE@XZ PROC NEAR				; CRgn::~CRgn, COMDAT
; _this$ = ecx

; 266  : 	{ }

  00000	55		 push	 ebp
  00001	8b ec		 mov	 ebp, esp
  00003	51		 push	 ecx
  00004	89 4d fc	 mov	 DWORD PTR _this$[ebp], ecx
  00007	8b 45 fc	 mov	 eax, DWORD PTR _this$[ebp]
  0000a	c7 00 00 00 00
	00		 mov	 DWORD PTR [eax], OFFSET FLAT:??_7CRgn@@6B@
  00010	8b 4d fc	 mov	 ecx, DWORD PTR _this$[ebp]
  00013	e8 00 00 00 00	 call	 ??1CGdiObject@@UAE@XZ	; CGdiObject::~CGdiObject
  00018	8b e5		 mov	 esp, ebp
  0001a	5d		 pop	 ebp
  0001b	c3		 ret	 0
??1CRgn@@UAE@XZ ENDP					; CRgn::~CRgn
_TEXT	ENDS
EXTRN	__imp__CreateRectRgn@16:NEAR
; Function compile flags: /Odt
;	COMDAT ?CreateRectRgn@CRgn@@QAEHHHHH@Z
_TEXT	SEGMENT
_this$ = -4						; size = 4
_x1$ = 8						; size = 4
_y1$ = 12						; size = 4
_x2$ = 16						; size = 4
_y2$ = 20						; size = 4
?CreateRectRgn@CRgn@@QAEHHHHH@Z PROC NEAR		; CRgn::CreateRectRgn, COMDAT
; _this$ = ecx

; 268  : 	{ return Attach(::CreateRectRgn(x1, y1, x2, y2)); }

  00000	55		 push	 ebp
  00001	8b ec		 mov	 ebp, esp
  00003	51		 push	 ecx
  00004	89 4d fc	 mov	 DWORD PTR _this$[ebp], ecx
  00007	8b 45 14	 mov	 eax, DWORD PTR _y2$[ebp]
  0000a	50		 push	 eax
  0000b	8b 4d 10	 mov	 ecx, DWORD PTR _x2$[ebp]
  0000e	51		 push	 ecx
  0000f	8b 55 0c	 mov	 edx, DWORD PTR _y1$[ebp]
  00012	52		 push	 edx
  00013	8b 45 08	 mov	 eax, DWORD PTR _x1$[ebp]
  00016	50		 push	 eax
  00017	ff 15 00 00 00
	00		 call	 DWORD PTR __imp__CreateRectRgn@16
  0001d	50		 push	 eax
  0001e	8b 4d fc	 mov	 ecx, DWORD PTR _this$[ebp]
  00021	e8 00 00 00 00	 call	 ?Attach@CGdiObject@@QAEHPAX@Z ; CGdiObject::Attach
  00026	8b e5		 mov	 esp, ebp
  00028	5d		 pop	 ebp
  00029	c2 10 00	 ret	 16			; 00000010H
?CreateRectRgn@CRgn@@QAEHHHHH@Z ENDP			; CRgn::CreateRectRgn
_TEXT	ENDS
EXTRN	__imp__RectInRegion@8:NEAR
; Function compile flags: /Odt
;	COMDAT ?RectInRegion@CRgn@@QBEHPBUtagRECT@@@Z
_TEXT	SEGMENT
_this$ = -4						; size = 4
_lpRect$ = 8						; size = 4
?RectInRegion@CRgn@@QBEHPBUtagRECT@@@Z PROC NEAR	; CRgn::RectInRegion, COMDAT
; _this$ = ecx

; 310  : 	{ ASSERT(m_hObject != NULL); return ::RectInRegion((HRGN)m_hObject, lpRect); }

  00000	55		 push	 ebp
  00001	8b ec		 mov	 ebp, esp
  00003	51		 push	 ecx
  00004	89 4d fc	 mov	 DWORD PTR _this$[ebp], ecx
  00007	8b 45 08	 mov	 eax, DWORD PTR _lpRect$[ebp]
  0000a	50		 push	 eax
  0000b	8b 4d fc	 mov	 ecx, DWORD PTR _this$[ebp]
  0000e	8b 51 04	 mov	 edx, DWORD PTR [ecx+4]
  00011	52		 push	 edx
  00012	ff 15 00 00 00
	00		 call	 DWORD PTR __imp__RectInRegion@8
  00018	8b e5		 mov	 esp, ebp
  0001a	5d		 pop	 ebp
  0001b	c2 04 00	 ret	 4
?RectInRegion@CRgn@@QBEHPBUtagRECT@@@Z ENDP		; CRgn::RectInRegion
_TEXT	ENDS
EXTRN	__imp__PatBlt@24:NEAR
; Function compile flags: /Odt
;	COMDAT ?PatBlt@CDC@@QAEHHHHHK@Z
_TEXT	SEGMENT
_this$ = -4						; size = 4
_x$ = 8							; size = 4
_y$ = 12						; size = 4
_nWidth$ = 16						; size = 4
_nHeight$ = 20						; size = 4
_dwRop$ = 24						; size = 4
?PatBlt@CDC@@QAEHHHHHK@Z PROC NEAR			; CDC::PatBlt, COMDAT
; _this$ = ecx

; 545  : 	{ ASSERT(m_hDC != NULL); return ::PatBlt(m_hDC, x, y, nWidth, nHeight, dwRop); }

  00000	55		 push	 ebp
  00001	8b ec		 mov	 ebp, esp
  00003	51		 push	 ecx
  00004	89 4d fc	 mov	 DWORD PTR _this$[ebp], ecx
  00007	8b 45 18	 mov	 eax, DWORD PTR _dwRop$[ebp]
  0000a	50		 push	 eax
  0000b	8b 4d 14	 mov	 ecx, DWORD PTR _nHeight$[ebp]
  0000e	51		 push	 ecx
  0000f	8b 55 10	 mov	 edx, DWORD PTR _nWidth$[ebp]
  00012	52		 push	 edx
  00013	8b 45 0c	 mov	 eax, DWORD PTR _y$[ebp]
  00016	50		 push	 eax
  00017	8b 4d 08	 mov	 ecx, DWORD PTR _x$[ebp]
  0001a	51		 push	 ecx
  0001b	8b 55 fc	 mov	 edx, DWORD PTR _this$[ebp]
  0001e	8b 42 04	 mov	 eax, DWORD PTR [edx+4]
  00021	50		 push	 eax
  00022	ff 15 00 00 00
	00		 call	 DWORD PTR __imp__PatBlt@24
  00028	8b e5		 mov	 esp, ebp
  0002a	5d		 pop	 ebp
  0002b	c2 14 00	 ret	 20			; 00000014H
?PatBlt@CDC@@QAEHHHHHK@Z ENDP				; CDC::PatBlt
_TEXT	ENDS
EXTRN	?MoveWindow@CWnd@@QAEXHHHHH@Z:NEAR		; CWnd::MoveWindow
; Function compile flags: /Odt
; File d:\program files (x86)\microsoft visual studio .net 2003\vc7\atlmfc\include\afxwin2.inl
;	COMDAT ?MoveWindow@CWnd@@QAEXPBUtagRECT@@H@Z
_TEXT	SEGMENT
_this$ = -4						; size = 4
_lpRect$ = 8						; size = 4
_bRepaint$ = 12						; size = 4
?MoveWindow@CWnd@@QAEXPBUtagRECT@@H@Z PROC NEAR		; CWnd::MoveWindow, COMDAT
; _this$ = ecx

; 89   : 	{ MoveWindow(lpRect->left, lpRect->top, lpRect->right - lpRect->left,

  00000	55		 push	 ebp
  00001	8b ec		 mov	 ebp, esp
  00003	51		 push	 ecx
  00004	89 4d fc	 mov	 DWORD PTR _this$[ebp], ecx

; 90   : 		lpRect->bottom - lpRect->top, bRepaint); }

  00007	8b 45 0c	 mov	 eax, DWORD PTR _bRepaint$[ebp]
  0000a	50		 push	 eax
  0000b	8b 4d 08	 mov	 ecx, DWORD PTR _lpRect$[ebp]
  0000e	8b 55 08	 mov	 edx, DWORD PTR _lpRect$[ebp]
  00011	8b 41 0c	 mov	 eax, DWORD PTR [ecx+12]
  00014	2b 42 04	 sub	 eax, DWORD PTR [edx+4]
  00017	50		 push	 eax
  00018	8b 4d 08	 mov	 ecx, DWORD PTR _lpRect$[ebp]
  0001b	8b 55 08	 mov	 edx, DWORD PTR _lpRect$[ebp]
  0001e	8b 41 08	 mov	 eax, DWORD PTR [ecx+8]
  00021	2b 02		 sub	 eax, DWORD PTR [edx]
  00023	50		 push	 eax
  00024	8b 4d 08	 mov	 ecx, DWORD PTR _lpRect$[ebp]
  00027	8b 51 04	 mov	 edx, DWORD PTR [ecx+4]
  0002a	52		 push	 edx
  0002b	8b 45 08	 mov	 eax, DWORD PTR _lpRect$[ebp]
  0002e	8b 08		 mov	 ecx, DWORD PTR [eax]
  00030	51		 push	 ecx
  00031	8b 4d fc	 mov	 ecx, DWORD PTR _this$[ebp]
  00034	e8 00 00 00 00	 call	 ?MoveWindow@CWnd@@QAEXHHHHH@Z ; CWnd::MoveWindow
  00039	8b e5		 mov	 esp, ebp
  0003b	5d		 pop	 ebp
  0003c	c2 08 00	 ret	 8
?MoveWindow@CWnd@@QAEXPBUtagRECT@@H@Z ENDP		; CWnd::MoveWindow
_TEXT	ENDS
EXTRN	__imp__GetParent@4:NEAR
EXTRN	?FromHandle@CWnd@@SGPAV1@PAUHWND__@@@Z:NEAR	; CWnd::FromHandle
; Function compile flags: /Odt
;	COMDAT ?GetParent@CWnd@@QBEPAV1@XZ
_TEXT	SEGMENT
_this$ = -4						; size = 4
?GetParent@CWnd@@QBEPAV1@XZ PROC NEAR			; CWnd::GetParent, COMDAT
; _this$ = ecx

; 282  : 	{ ASSERT(::IsWindow(m_hWnd)); return CWnd::FromHandle(::GetParent(m_hWnd)); }

  00000	55		 push	 ebp
  00001	8b ec		 mov	 ebp, esp
  00003	51		 push	 ecx
  00004	89 4d fc	 mov	 DWORD PTR _this$[ebp], ecx
  00007	8b 45 fc	 mov	 eax, DWORD PTR _this$[ebp]
  0000a	8b 48 20	 mov	 ecx, DWORD PTR [eax+32]
  0000d	51		 push	 ecx
  0000e	ff 15 00 00 00
	00		 call	 DWORD PTR __imp__GetParent@4
  00014	50		 push	 eax
  00015	e8 00 00 00 00	 call	 ?FromHandle@CWnd@@SGPAV1@PAUHWND__@@@Z ; CWnd::FromHandle
  0001a	8b e5		 mov	 esp, ebp
  0001c	5d		 pop	 ebp
  0001d	c3		 ret	 0
?GetParent@CWnd@@QBEPAV1@XZ ENDP			; CWnd::GetParent
_TEXT	ENDS
EXTRN	_labs:NEAR
; Function compile flags: /Odt
; File d:\program files (x86)\microsoft visual studio .net 2003\vc7\include\math.h
;	COMDAT ?abs@@YAJJ@Z
_TEXT	SEGMENT
__X$ = 8						; size = 4
?abs@@YAJJ@Z PROC NEAR					; abs, COMDAT

; 529  :         {return (labs(_X)); }

  00000	55		 push	 ebp
  00001	8b ec		 mov	 ebp, esp
  00003	8b 45 08	 mov	 eax, DWORD PTR __X$[ebp]
  00006	50		 push	 eax
  00007	e8 00 00 00 00	 call	 _labs
  0000c	83 c4 04	 add	 esp, 4
  0000f	5d		 pop	 ebp
  00010	c3		 ret	 0
?abs@@YAJJ@Z ENDP					; abs
_TEXT	ENDS
EXTRN	__imp_?c_str@?$basic_string@DU?$char_traits@D@std@@V?$allocator@D@2@@std@@QBEPBDXZ:NEAR
; Function compile flags: /Odt
; File d:\program files (x86)\microsoft visual studio .net 2003\vc7\include\stdexcept
;	COMDAT ?what@logic_error@std@@UBEPBDXZ
_TEXT	SEGMENT
_this$ = -4						; size = 4
?what@logic_error@std@@UBEPBDXZ PROC NEAR		; std::logic_error::what, COMDAT
; _this$ = ecx

; 26   : 		{	// return pointer to message string

  00000	55		 push	 ebp
  00001	8b ec		 mov	 ebp, esp
  00003	51		 push	 ecx
  00004	89 4d fc	 mov	 DWORD PTR _this$[ebp], ecx

; 27   : 		return (_Str.c_str());

  00007	8b 4d fc	 mov	 ecx, DWORD PTR _this$[ebp]
  0000a	83 c1 0c	 add	 ecx, 12			; 0000000cH
  0000d	ff 15 00 00 00
	00		 call	 DWORD PTR __imp_?c_str@?$basic_string@DU?$char_traits@D@std@@V?$allocator@D@2@@std@@QBEPBDXZ

; 28   : 		}

  00013	8b e5		 mov	 esp, ebp
  00015	5d		 pop	 ebp
  00016	c3		 ret	 0
?what@logic_error@std@@UBEPBDXZ ENDP			; std::logic_error::what
_TEXT	ENDS
PUBLIC	??0logic_error@std@@QAE@ABV?$basic_string@DU?$char_traits@D@std@@V?$allocator@D@2@@1@@Z ; std::logic_error::logic_error
; Function compile flags: /Odt
;	COMDAT ??0length_error@std@@QAE@ABV?$basic_string@DU?$char_traits@D@std@@V?$allocator@D@2@@1@@Z
_TEXT	SEGMENT
_this$ = -4						; size = 4
__Message$ = 8						; size = 4
??0length_error@std@@QAE@ABV?$basic_string@DU?$char_traits@D@std@@V?$allocator@D@2@@1@@Z PROC NEAR ; std::length_error::length_error, COMDAT
; _this$ = ecx

; 95   : 		{	// construct from message string

  00000	55		 push	 ebp
  00001	8b ec		 mov	 ebp, esp
  00003	51		 push	 ecx
  00004	89 4d fc	 mov	 DWORD PTR _this$[ebp], ecx
  00007	8b 45 08	 mov	 eax, DWORD PTR __Message$[ebp]
  0000a	50		 push	 eax
  0000b	8b 4d fc	 mov	 ecx, DWORD PTR _this$[ebp]
  0000e	e8 00 00 00 00	 call	 ??0logic_error@std@@QAE@ABV?$basic_string@DU?$char_traits@D@std@@V?$allocator@D@2@@1@@Z ; std::logic_error::logic_error
  00013	8b 4d fc	 mov	 ecx, DWORD PTR _this$[ebp]
  00016	c7 01 00 00 00
	00		 mov	 DWORD PTR [ecx], OFFSET FLAT:??_7length_error@std@@6B@

; 96   : 		}

  0001c	8b 45 fc	 mov	 eax, DWORD PTR _this$[ebp]
  0001f	8b e5		 mov	 esp, ebp
  00021	5d		 pop	 ebp
  00022	c2 04 00	 ret	 4
??0length_error@std@@QAE@ABV?$basic_string@DU?$char_traits@D@std@@V?$allocator@D@2@@1@@Z ENDP ; std::length_error::length_error
_TEXT	ENDS
PUBLIC	??_R4logic_error@std@@6B@			; std::logic_error::`RTTI Complete Object Locator'
PUBLIC	??_R3logic_error@std@@8				; std::logic_error::`RTTI Class Hierarchy Descriptor'
PUBLIC	??_R2logic_error@std@@8				; std::logic_error::`RTTI Base Class Array'
PUBLIC	??_7logic_error@std@@6B@			; std::logic_error::`vftable'
PUBLIC	??_Glogic_error@std@@UAEPAXI@Z			; std::logic_error::`scalar deleting destructor'
EXTRN	__imp_??0exception@@QAE@XZ:NEAR
EXTRN	__imp_??1exception@@UAE@XZ:NEAR
EXTRN	__imp_??0?$basic_string@DU?$char_traits@D@std@@V?$allocator@D@2@@std@@QAE@ABV01@@Z:NEAR
EXTRN	??_Elogic_error@std@@UAEPAXI@Z:NEAR		; std::logic_error::`vector deleting destructor'
;	COMDAT xdata$x
xdata$x	SEGMENT
$T200357 DD	0ffffffffH
	DD	FLAT:$L200352
$T200355 DD	019930520H
	DD	01H
	DD	FLAT:$T200357
	DD	2 DUP(00H)
	DD	2 DUP(00H)
xdata$x	ENDS
;	COMDAT ??_7logic_error@std@@6B@
CONST	SEGMENT
??_7logic_error@std@@6B@ DD FLAT:??_R4logic_error@std@@6B@ ; std::logic_error::`vftable'
	DD	FLAT:??_Elogic_error@std@@UAEPAXI@Z
	DD	FLAT:?what@logic_error@std@@UBEPBDXZ
CONST	ENDS
;	COMDAT ??_R4logic_error@std@@6B@
rdata$r	SEGMENT
??_R4logic_error@std@@6B@ DD 00H			; std::logic_error::`RTTI Complete Object Locator'
	DD	00H
	DD	00H
	DD	FLAT:??_R0?AVlogic_error@std@@@8
	DD	FLAT:??_R3logic_error@std@@8
rdata$r	ENDS
;	COMDAT ??_R3logic_error@std@@8
rdata$r	SEGMENT
??_R3logic_error@std@@8 DD 00H				; std::logic_error::`RTTI Class Hierarchy Descriptor'
	DD	00H
	DD	02H
	DD	FLAT:??_R2logic_error@std@@8
rdata$r	ENDS
;	COMDAT ??_R2logic_error@std@@8
rdata$r	SEGMENT
??_R2logic_error@std@@8 DD FLAT:??_R1A@?0A@A@logic_error@std@@8 ; std::logic_error::`RTTI Base Class Array'
	DD	FLAT:??_R1A@?0A@A@exception@@8
; Function compile flags: /Odt
rdata$r	ENDS
;	COMDAT ??0logic_error@std@@QAE@ABV?$basic_string@DU?$char_traits@D@std@@V?$allocator@D@2@@1@@Z
_TEXT	SEGMENT
_this$ = -16						; size = 4
__$EHRec$ = -12						; size = 12
__Message$ = 8						; size = 4
??0logic_error@std@@QAE@ABV?$basic_string@DU?$char_traits@D@std@@V?$allocator@D@2@@1@@Z PROC NEAR ; std::logic_error::logic_error, COMDAT
; _this$ = ecx

; 19   : 		{	// construct from message string

  00000	55		 push	 ebp
  00001	8b ec		 mov	 ebp, esp
  00003	6a ff		 push	 -1
  00005	68 00 00 00 00	 push	 __ehhandler$??0logic_error@std@@QAE@ABV?$basic_string@DU?$char_traits@D@std@@V?$allocator@D@2@@1@@Z
  0000a	64 a1 00 00 00
	00		 mov	 eax, DWORD PTR fs:__except_list
  00010	50		 push	 eax
  00011	64 89 25 00 00
	00 00		 mov	 DWORD PTR fs:__except_list, esp
  00018	51		 push	 ecx
  00019	89 4d f0	 mov	 DWORD PTR _this$[ebp], ecx
  0001c	8b 4d f0	 mov	 ecx, DWORD PTR _this$[ebp]
  0001f	ff 15 00 00 00
	00		 call	 DWORD PTR __imp_??0exception@@QAE@XZ
  00025	c7 45 fc 00 00
	00 00		 mov	 DWORD PTR __$EHRec$[ebp+8], 0
  0002c	8b 45 f0	 mov	 eax, DWORD PTR _this$[ebp]
  0002f	c7 00 00 00 00
	00		 mov	 DWORD PTR [eax], OFFSET FLAT:??_7logic_error@std@@6B@
  00035	8b 4d 08	 mov	 ecx, DWORD PTR __Message$[ebp]
  00038	51		 push	 ecx
  00039	8b 4d f0	 mov	 ecx, DWORD PTR _this$[ebp]
  0003c	83 c1 0c	 add	 ecx, 12			; 0000000cH
  0003f	ff 15 00 00 00
	00		 call	 DWORD PTR __imp_??0?$basic_string@DU?$char_traits@D@std@@V?$allocator@D@2@@std@@QAE@ABV01@@Z

; 20   : 		}

  00045	c7 45 fc ff ff
	ff ff		 mov	 DWORD PTR __$EHRec$[ebp+8], -1
  0004c	8b 45 f0	 mov	 eax, DWORD PTR _this$[ebp]
  0004f	8b 4d f4	 mov	 ecx, DWORD PTR __$EHRec$[ebp]
  00052	64 89 0d 00 00
	00 00		 mov	 DWORD PTR fs:__except_list, ecx
  00059	8b e5		 mov	 esp, ebp
  0005b	5d		 pop	 ebp
  0005c	c2 04 00	 ret	 4
_TEXT	ENDS
;	COMDAT text$x
text$x	SEGMENT
$L200352:
  00000	8b 4d f0	 mov	 ecx, DWORD PTR _this$[ebp]
  00003	ff 25 00 00 00
	00		 jmp	 DWORD PTR __imp_??1exception@@UAE@XZ
__ehhandler$??0logic_error@std@@QAE@ABV?$basic_string@DU?$char_traits@D@std@@V?$allocator@D@2@@1@@Z:
  00009	b8 00 00 00 00	 mov	 eax, OFFSET FLAT:$T200355
  0000e	e9 00 00 00 00	 jmp	 ___CxxFrameHandler
text$x	ENDS
??0logic_error@std@@QAE@ABV?$basic_string@DU?$char_traits@D@std@@V?$allocator@D@2@@1@@Z ENDP ; std::logic_error::logic_error
PUBLIC	??1logic_error@std@@UAE@XZ			; std::logic_error::~logic_error
; Function compile flags: /Odt
;	COMDAT ??_Glogic_error@std@@UAEPAXI@Z
_TEXT	SEGMENT
_this$ = -4						; size = 4
___flags$ = 8						; size = 4
??_Glogic_error@std@@UAEPAXI@Z PROC NEAR		; std::logic_error::`scalar deleting destructor', COMDAT
; _this$ = ecx
  00000	55		 push	 ebp
  00001	8b ec		 mov	 ebp, esp
  00003	51		 push	 ecx
  00004	89 4d fc	 mov	 DWORD PTR _this$[ebp], ecx
  00007	8b 4d fc	 mov	 ecx, DWORD PTR _this$[ebp]
  0000a	e8 00 00 00 00	 call	 ??1logic_error@std@@UAE@XZ ; std::logic_error::~logic_error
  0000f	8b 45 08	 mov	 eax, DWORD PTR ___flags$[ebp]
  00012	83 e0 01	 and	 eax, 1
  00015	74 0c		 je	 SHORT $L102266
  00017	8b 4d fc	 mov	 ecx, DWORD PTR _this$[ebp]
  0001a	51		 push	 ecx
  0001b	e8 00 00 00 00	 call	 ??3@YAXPAX@Z		; operator delete
  00020	83 c4 04	 add	 esp, 4
$L102266:
  00023	8b 45 fc	 mov	 eax, DWORD PTR _this$[ebp]
  00026	8b e5		 mov	 esp, ebp
  00028	5d		 pop	 ebp
  00029	c2 04 00	 ret	 4
??_Glogic_error@std@@UAEPAXI@Z ENDP			; std::logic_error::`scalar deleting destructor'
_TEXT	ENDS
;	COMDAT xdata$x
xdata$x	SEGMENT
$T200369 DD	0ffffffffH
	DD	FLAT:$L200364
$T200367 DD	019930520H
	DD	01H
	DD	FLAT:$T200369
	DD	2 DUP(00H)
	DD	2 DUP(00H)
; Function compile flags: /Odt
xdata$x	ENDS
;	COMDAT ??1logic_error@std@@UAE@XZ
_TEXT	SEGMENT
_this$ = -16						; size = 4
__$EHRec$ = -12						; size = 12
??1logic_error@std@@UAE@XZ PROC NEAR			; std::logic_error::~logic_error, COMDAT
; _this$ = ecx

; 23   : 		{}	// destroy the object

  00000	55		 push	 ebp
  00001	8b ec		 mov	 ebp, esp
  00003	6a ff		 push	 -1
  00005	68 00 00 00 00	 push	 __ehhandler$??1logic_error@std@@UAE@XZ
  0000a	64 a1 00 00 00
	00		 mov	 eax, DWORD PTR fs:__except_list
  00010	50		 push	 eax
  00011	64 89 25 00 00
	00 00		 mov	 DWORD PTR fs:__except_list, esp
  00018	51		 push	 ecx
  00019	89 4d f0	 mov	 DWORD PTR _this$[ebp], ecx
  0001c	8b 45 f0	 mov	 eax, DWORD PTR _this$[ebp]
  0001f	c7 00 00 00 00
	00		 mov	 DWORD PTR [eax], OFFSET FLAT:??_7logic_error@std@@6B@
  00025	c7 45 fc 00 00
	00 00		 mov	 DWORD PTR __$EHRec$[ebp+8], 0
  0002c	8b 4d f0	 mov	 ecx, DWORD PTR _this$[ebp]
  0002f	83 c1 0c	 add	 ecx, 12			; 0000000cH
  00032	ff 15 00 00 00
	00		 call	 DWORD PTR __imp_??1?$basic_string@DU?$char_traits@D@std@@V?$allocator@D@2@@std@@QAE@XZ
  00038	c7 45 fc ff ff
	ff ff		 mov	 DWORD PTR __$EHRec$[ebp+8], -1
  0003f	8b 4d f0	 mov	 ecx, DWORD PTR _this$[ebp]
  00042	ff 15 00 00 00
	00		 call	 DWORD PTR __imp_??1exception@@UAE@XZ
  00048	8b 4d f4	 mov	 ecx, DWORD PTR __$EHRec$[ebp]
  0004b	64 89 0d 00 00
	00 00		 mov	 DWORD PTR fs:__except_list, ecx
  00052	8b e5		 mov	 esp, ebp
  00054	5d		 pop	 ebp
  00055	c3		 ret	 0
_TEXT	ENDS
;	COMDAT text$x
text$x	SEGMENT
$L200364:
  00000	8b 4d f0	 mov	 ecx, DWORD PTR _this$[ebp]
  00003	ff 25 00 00 00
	00		 jmp	 DWORD PTR __imp_??1exception@@UAE@XZ
__ehhandler$??1logic_error@std@@UAE@XZ:
  00009	b8 00 00 00 00	 mov	 eax, OFFSET FLAT:$T200367
  0000e	e9 00 00 00 00	 jmp	 ___CxxFrameHandler
text$x	ENDS
??1logic_error@std@@UAE@XZ ENDP				; std::logic_error::~logic_error
; Function compile flags: /Odt
;	COMDAT ??1length_error@std@@UAE@XZ
_TEXT	SEGMENT
_this$ = -4						; size = 4
??1length_error@std@@UAE@XZ PROC NEAR			; std::length_error::~length_error, COMDAT
; _this$ = ecx

; 99   : 		{}	// destroy the object

  00000	55		 push	 ebp
  00001	8b ec		 mov	 ebp, esp
  00003	51		 push	 ecx
  00004	89 4d fc	 mov	 DWORD PTR _this$[ebp], ecx
  00007	8b 45 fc	 mov	 eax, DWORD PTR _this$[ebp]
  0000a	c7 00 00 00 00
	00		 mov	 DWORD PTR [eax], OFFSET FLAT:??_7length_error@std@@6B@
  00010	8b 4d fc	 mov	 ecx, DWORD PTR _this$[ebp]
  00013	e8 00 00 00 00	 call	 ??1logic_error@std@@UAE@XZ ; std::logic_error::~logic_error
  00018	8b e5		 mov	 esp, ebp
  0001a	5d		 pop	 ebp
  0001b	c3		 ret	 0
??1length_error@std@@UAE@XZ ENDP			; std::length_error::~length_error
; Function compile flags: /Odt
_TEXT	ENDS
;	COMDAT ??_Glength_error@std@@UAEPAXI@Z
_TEXT	SEGMENT
_this$ = -4						; size = 4
___flags$ = 8						; size = 4
??_Glength_error@std@@UAEPAXI@Z PROC NEAR		; std::length_error::`scalar deleting destructor', COMDAT
; _this$ = ecx
  00000	55		 push	 ebp
  00001	8b ec		 mov	 ebp, esp
  00003	51		 push	 ecx
  00004	89 4d fc	 mov	 DWORD PTR _this$[ebp], ecx
  00007	8b 4d fc	 mov	 ecx, DWORD PTR _this$[ebp]
  0000a	e8 00 00 00 00	 call	 ??1length_error@std@@UAE@XZ ; std::length_error::~length_error
  0000f	8b 45 08	 mov	 eax, DWORD PTR ___flags$[ebp]
  00012	83 e0 01	 and	 eax, 1
  00015	74 0c		 je	 SHORT $L102332
  00017	8b 4d fc	 mov	 ecx, DWORD PTR _this$[ebp]
  0001a	51		 push	 ecx
  0001b	e8 00 00 00 00	 call	 ??3@YAXPAX@Z		; operator delete
  00020	83 c4 04	 add	 esp, 4
$L102332:
  00023	8b 45 fc	 mov	 eax, DWORD PTR _this$[ebp]
  00026	8b e5		 mov	 esp, ebp
  00028	5d		 pop	 ebp
  00029	c2 04 00	 ret	 4
??_Glength_error@std@@UAEPAXI@Z ENDP			; std::length_error::`scalar deleting destructor'
_TEXT	ENDS
PUBLIC	??_R4out_of_range@std@@6B@			; std::out_of_range::`RTTI Complete Object Locator'
PUBLIC	??_R3out_of_range@std@@8			; std::out_of_range::`RTTI Class Hierarchy Descriptor'
PUBLIC	??_R2out_of_range@std@@8			; std::out_of_range::`RTTI Base Class Array'
PUBLIC	??_R1A@?0A@A@out_of_range@std@@8		; std::out_of_range::`RTTI Base Class Descriptor at (0,-1,0,0)'
PUBLIC	??_7out_of_range@std@@6B@			; std::out_of_range::`vftable'
PUBLIC	??_Gout_of_range@std@@UAEPAXI@Z			; std::out_of_range::`scalar deleting destructor'
EXTRN	??_Eout_of_range@std@@UAEPAXI@Z:NEAR		; std::out_of_range::`vector deleting destructor'
;	COMDAT ??_7out_of_range@std@@6B@
CONST	SEGMENT
??_7out_of_range@std@@6B@ DD FLAT:??_R4out_of_range@std@@6B@ ; std::out_of_range::`vftable'
	DD	FLAT:??_Eout_of_range@std@@UAEPAXI@Z
	DD	FLAT:?what@logic_error@std@@UBEPBDXZ
CONST	ENDS
;	COMDAT ??_R4out_of_range@std@@6B@
rdata$r	SEGMENT
??_R4out_of_range@std@@6B@ DD 00H			; std::out_of_range::`RTTI Complete Object Locator'
	DD	00H
	DD	00H
	DD	FLAT:??_R0?AVout_of_range@std@@@8
	DD	FLAT:??_R3out_of_range@std@@8
rdata$r	ENDS
;	COMDAT ??_R3out_of_range@std@@8
rdata$r	SEGMENT
??_R3out_of_range@std@@8 DD 00H				; std::out_of_range::`RTTI Class Hierarchy Descriptor'
	DD	00H
	DD	03H
	DD	FLAT:??_R2out_of_range@std@@8
rdata$r	ENDS
;	COMDAT ??_R2out_of_range@std@@8
rdata$r	SEGMENT
??_R2out_of_range@std@@8 DD FLAT:??_R1A@?0A@A@out_of_range@std@@8 ; std::out_of_range::`RTTI Base Class Array'
	DD	FLAT:??_R1A@?0A@A@logic_error@std@@8
	DD	FLAT:??_R1A@?0A@A@exception@@8
rdata$r	ENDS
;	COMDAT ??_R1A@?0A@A@out_of_range@std@@8
rdata$r	SEGMENT
??_R1A@?0A@A@out_of_range@std@@8 DD FLAT:??_R0?AVout_of_range@std@@@8 ; std::out_of_range::`RTTI Base Class Descriptor at (0,-1,0,0)'
	DD	02H
	DD	00H
	DD	0ffffffffH
	DD	00H
	DD	00H
; Function compile flags: /Odt
rdata$r	ENDS
;	COMDAT ??0out_of_range@std@@QAE@ABV?$basic_string@DU?$char_traits@D@std@@V?$allocator@D@2@@1@@Z
_TEXT	SEGMENT
_this$ = -4						; size = 4
__Message$ = 8						; size = 4
??0out_of_range@std@@QAE@ABV?$basic_string@DU?$char_traits@D@std@@V?$allocator@D@2@@1@@Z PROC NEAR ; std::out_of_range::out_of_range, COMDAT
; _this$ = ecx

; 118  : 		{	// construct from message string

  00000	55		 push	 ebp
  00001	8b ec		 mov	 ebp, esp
  00003	51		 push	 ecx
  00004	89 4d fc	 mov	 DWORD PTR _this$[ebp], ecx
  00007	8b 45 08	 mov	 eax, DWORD PTR __Message$[ebp]
  0000a	50		 push	 eax
  0000b	8b 4d fc	 mov	 ecx, DWORD PTR _this$[ebp]
  0000e	e8 00 00 00 00	 call	 ??0logic_error@std@@QAE@ABV?$basic_string@DU?$char_traits@D@std@@V?$allocator@D@2@@1@@Z ; std::logic_error::logic_error
  00013	8b 4d fc	 mov	 ecx, DWORD PTR _this$[ebp]
  00016	c7 01 00 00 00
	00		 mov	 DWORD PTR [ecx], OFFSET FLAT:??_7out_of_range@std@@6B@

; 119  : 		}

  0001c	8b 45 fc	 mov	 eax, DWORD PTR _this$[ebp]
  0001f	8b e5		 mov	 esp, ebp
  00021	5d		 pop	 ebp
  00022	c2 04 00	 ret	 4
??0out_of_range@std@@QAE@ABV?$basic_string@DU?$char_traits@D@std@@V?$allocator@D@2@@1@@Z ENDP ; std::out_of_range::out_of_range
; Function compile flags: /Odt
_TEXT	ENDS
;	COMDAT ??1out_of_range@std@@UAE@XZ
_TEXT	SEGMENT
_this$ = -4						; size = 4
??1out_of_range@std@@UAE@XZ PROC NEAR			; std::out_of_range::~out_of_range, COMDAT
; _this$ = ecx

; 122  : 		{}	// destroy the object

  00000	55		 push	 ebp
  00001	8b ec		 mov	 ebp, esp
  00003	51		 push	 ecx
  00004	89 4d fc	 mov	 DWORD PTR _this$[ebp], ecx
  00007	8b 45 fc	 mov	 eax, DWORD PTR _this$[ebp]
  0000a	c7 00 00 00 00
	00		 mov	 DWORD PTR [eax], OFFSET FLAT:??_7out_of_range@std@@6B@
  00010	8b 4d fc	 mov	 ecx, DWORD PTR _this$[ebp]
  00013	e8 00 00 00 00	 call	 ??1logic_error@std@@UAE@XZ ; std::logic_error::~logic_error
  00018	8b e5		 mov	 esp, ebp
  0001a	5d		 pop	 ebp
  0001b	c3		 ret	 0
??1out_of_range@std@@UAE@XZ ENDP			; std::out_of_range::~out_of_range
; Function compile flags: /Odt
_TEXT	ENDS
;	COMDAT ??_Gout_of_range@std@@UAEPAXI@Z
_TEXT	SEGMENT
_this$ = -4						; size = 4
___flags$ = 8						; size = 4
??_Gout_of_range@std@@UAEPAXI@Z PROC NEAR		; std::out_of_range::`scalar deleting destructor', COMDAT
; _this$ = ecx
  00000	55		 push	 ebp
  00001	8b ec		 mov	 ebp, esp
  00003	51		 push	 ecx
  00004	89 4d fc	 mov	 DWORD PTR _this$[ebp], ecx
  00007	8b 4d fc	 mov	 ecx, DWORD PTR _this$[ebp]
  0000a	e8 00 00 00 00	 call	 ??1out_of_range@std@@UAE@XZ ; std::out_of_range::~out_of_range
  0000f	8b 45 08	 mov	 eax, DWORD PTR ___flags$[ebp]
  00012	83 e0 01	 and	 eax, 1
  00015	74 0c		 je	 SHORT $L102354
  00017	8b 4d fc	 mov	 ecx, DWORD PTR _this$[ebp]
  0001a	51		 push	 ecx
  0001b	e8 00 00 00 00	 call	 ??3@YAXPAX@Z		; operator delete
  00020	83 c4 04	 add	 esp, 4
$L102354:
  00023	8b 45 fc	 mov	 eax, DWORD PTR _this$[ebp]
  00026	8b e5		 mov	 esp, ebp
  00028	5d		 pop	 ebp
  00029	c2 04 00	 ret	 4
??_Gout_of_range@std@@UAEPAXI@Z ENDP			; std::out_of_range::`scalar deleting destructor'
; Function compile flags: /Odt
_TEXT	ENDS
;	COMDAT ??0out_of_range@std@@QAE@ABV01@@Z
_TEXT	SEGMENT
_this$ = -4						; size = 4
___that$ = 8						; size = 4
??0out_of_range@std@@QAE@ABV01@@Z PROC NEAR		; std::out_of_range::out_of_range, COMDAT
; _this$ = ecx
  00000	55		 push	 ebp
  00001	8b ec		 mov	 ebp, esp
  00003	51		 push	 ecx
  00004	89 4d fc	 mov	 DWORD PTR _this$[ebp], ecx
  00007	8b 45 08	 mov	 eax, DWORD PTR ___that$[ebp]
  0000a	50		 push	 eax
  0000b	8b 4d fc	 mov	 ecx, DWORD PTR _this$[ebp]
  0000e	e8 00 00 00 00	 call	 ??0logic_error@std@@QAE@ABV01@@Z
  00013	8b 4d fc	 mov	 ecx, DWORD PTR _this$[ebp]
  00016	c7 01 00 00 00
	00		 mov	 DWORD PTR [ecx], OFFSET FLAT:??_7out_of_range@std@@6B@
  0001c	8b 45 fc	 mov	 eax, DWORD PTR _this$[ebp]
  0001f	8b e5		 mov	 esp, ebp
  00021	5d		 pop	 ebp
  00022	c2 04 00	 ret	 4
??0out_of_range@std@@QAE@ABV01@@Z ENDP			; std::out_of_range::out_of_range
_TEXT	ENDS
EXTRN	__imp_??0exception@@QAE@ABV0@@Z:NEAR
;	COMDAT xdata$x
xdata$x	SEGMENT
$T200395 DD	0ffffffffH
	DD	FLAT:$L200390
$T200393 DD	019930520H
	DD	01H
	DD	FLAT:$T200395
	DD	2 DUP(00H)
	DD	2 DUP(00H)
; Function compile flags: /Odt
xdata$x	ENDS
;	COMDAT ??0logic_error@std@@QAE@ABV01@@Z
_TEXT	SEGMENT
_this$ = -16						; size = 4
__$EHRec$ = -12						; size = 12
___that$ = 8						; size = 4
??0logic_error@std@@QAE@ABV01@@Z PROC NEAR		; std::logic_error::logic_error, COMDAT
; _this$ = ecx
  00000	55		 push	 ebp
  00001	8b ec		 mov	 ebp, esp
  00003	6a ff		 push	 -1
  00005	68 00 00 00 00	 push	 __ehhandler$??0logic_error@std@@QAE@ABV01@@Z
  0000a	64 a1 00 00 00
	00		 mov	 eax, DWORD PTR fs:__except_list
  00010	50		 push	 eax
  00011	64 89 25 00 00
	00 00		 mov	 DWORD PTR fs:__except_list, esp
  00018	51		 push	 ecx
  00019	89 4d f0	 mov	 DWORD PTR _this$[ebp], ecx
  0001c	8b 45 08	 mov	 eax, DWORD PTR ___that$[ebp]
  0001f	50		 push	 eax
  00020	8b 4d f0	 mov	 ecx, DWORD PTR _this$[ebp]
  00023	ff 15 00 00 00
	00		 call	 DWORD PTR __imp_??0exception@@QAE@ABV0@@Z
  00029	c7 45 fc 00 00
	00 00		 mov	 DWORD PTR __$EHRec$[ebp+8], 0
  00030	8b 4d f0	 mov	 ecx, DWORD PTR _this$[ebp]
  00033	c7 01 00 00 00
	00		 mov	 DWORD PTR [ecx], OFFSET FLAT:??_7logic_error@std@@6B@
  00039	8b 55 08	 mov	 edx, DWORD PTR ___that$[ebp]
  0003c	83 c2 0c	 add	 edx, 12			; 0000000cH
  0003f	52		 push	 edx
  00040	8b 4d f0	 mov	 ecx, DWORD PTR _this$[ebp]
  00043	83 c1 0c	 add	 ecx, 12			; 0000000cH
  00046	ff 15 00 00 00
	00		 call	 DWORD PTR __imp_??0?$basic_string@DU?$char_traits@D@std@@V?$allocator@D@2@@std@@QAE@ABV01@@Z
  0004c	c7 45 fc ff ff
	ff ff		 mov	 DWORD PTR __$EHRec$[ebp+8], -1
  00053	8b 45 f0	 mov	 eax, DWORD PTR _this$[ebp]
  00056	8b 4d f4	 mov	 ecx, DWORD PTR __$EHRec$[ebp]
  00059	64 89 0d 00 00
	00 00		 mov	 DWORD PTR fs:__except_list, ecx
  00060	8b e5		 mov	 esp, ebp
  00062	5d		 pop	 ebp
  00063	c2 04 00	 ret	 4
_TEXT	ENDS
;	COMDAT text$x
text$x	SEGMENT
$L200390:
  00000	8b 4d f0	 mov	 ecx, DWORD PTR _this$[ebp]
  00003	ff 25 00 00 00
	00		 jmp	 DWORD PTR __imp_??1exception@@UAE@XZ
__ehhandler$??0logic_error@std@@QAE@ABV01@@Z:
  00009	b8 00 00 00 00	 mov	 eax, OFFSET FLAT:$T200393
  0000e	e9 00 00 00 00	 jmp	 ___CxxFrameHandler
text$x	ENDS
??0logic_error@std@@QAE@ABV01@@Z ENDP			; std::logic_error::logic_error
; Function compile flags: /Odt
; File d:\program files (x86)\microsoft visual studio .net 2003\vc7\include\utility
;	COMDAT ??$swap@D@std@@YAXAAD0@Z
_TEXT	SEGMENT
__Tmp$ = -1						; size = 1
__Left$ = 8						; size = 4
__Right$ = 12						; size = 4
??$swap@D@std@@YAXAAD0@Z PROC NEAR			; std::swap<char>, COMDAT

; 14   : 	{	// exchange values stored at _Left and _Right

  00000	55		 push	 ebp
  00001	8b ec		 mov	 ebp, esp
  00003	51		 push	 ecx

; 15   : 	_Ty _Tmp = _Left;

  00004	8b 45 08	 mov	 eax, DWORD PTR __Left$[ebp]
  00007	8a 08		 mov	 cl, BYTE PTR [eax]
  00009	88 4d ff	 mov	 BYTE PTR __Tmp$[ebp], cl

; 16   : 	_Left = _Right, _Right = _Tmp;

  0000c	8b 55 08	 mov	 edx, DWORD PTR __Left$[ebp]
  0000f	8b 45 0c	 mov	 eax, DWORD PTR __Right$[ebp]
  00012	8a 08		 mov	 cl, BYTE PTR [eax]
  00014	88 0a		 mov	 BYTE PTR [edx], cl
  00016	8b 55 0c	 mov	 edx, DWORD PTR __Right$[ebp]
  00019	8a 45 ff	 mov	 al, BYTE PTR __Tmp$[ebp]
  0001c	88 02		 mov	 BYTE PTR [edx], al

; 17   : 	}

  0001e	8b e5		 mov	 esp, ebp
  00020	5d		 pop	 ebp
  00021	c3		 ret	 0
??$swap@D@std@@YAXAAD0@Z ENDP				; std::swap<char>
_TEXT	ENDS
END
