; Listing generated by Microsoft (R) Optimizing Compiler Version 13.10.3077 

	TITLE	.\src\LayoutMgr\ChangeColor\WndColorMgr.cpp
	.386P
include listing.inc
if @Version gt 510
.model FLAT
else
_TEXT	SEGMENT PARA USE32 PUBLIC 'CODE'
_TEXT	ENDS
_DATA	SEGMENT DWORD USE32 PUBLIC 'DATA'
_DATA	ENDS
CONST	SEGMENT DWORD USE32 PUBLIC 'CONST'
CONST	ENDS
_BSS	SEGMENT DWORD USE32 PUBLIC 'BSS'
_BSS	ENDS
$$SYMBOLS	SEGMENT BYTE USE32 'DEBSYM'
$$SYMBOLS	ENDS
$$TYPES	SEGMENT BYTE USE32 'DEBTYP'
$$TYPES	ENDS
_TLS	SEGMENT DWORD USE32 PUBLIC 'TLS'
_TLS	ENDS
rdata$r	SEGMENT DWORD USE32 PUBLIC 'CONST'
rdata$r	ENDS
xdata$x	SEGMENT DWORD USE32 PUBLIC 'CONST'
xdata$x	ENDS
text$AFX_COL1	SEGMENT PARA USE32 PUBLIC ''
text$AFX_COL1	ENDS
text$yc	SEGMENT PARA USE32 PUBLIC 'CODE'
text$yc	ENDS
CRT$XCA	SEGMENT DWORD USE32 PUBLIC 'DATA'
CRT$XCA	ENDS
CRT$XCU	SEGMENT DWORD USE32 PUBLIC 'DATA'
CRT$XCU	ENDS
CRT$XCL	SEGMENT DWORD USE32 PUBLIC 'DATA'
CRT$XCL	ENDS
CRT$XCC	SEGMENT DWORD USE32 PUBLIC 'DATA'
CRT$XCC	ENDS
CRT$XCZ	SEGMENT DWORD USE32 PUBLIC 'DATA'
CRT$XCZ	ENDS
text$yd	SEGMENT PARA USE32 PUBLIC 'CODE'
text$yd	ENDS
ATL$__m	SEGMENT DWORD USE32 PUBLIC ''
ATL$__m	ENDS
ATL$__z	SEGMENT DWORD USE32 PUBLIC ''
ATL$__z	ENDS
ATL$__a	SEGMENT DWORD USE32 PUBLIC ''
ATL$__a	ENDS
;	COMDAT ??0BaseColor@@QAE@XZ
_TEXT	SEGMENT PARA USE32 PUBLIC 'CODE'
_TEXT	ENDS
;	COMDAT ??1BaseColor@@QAE@XZ
_TEXT	SEGMENT PARA USE32 PUBLIC 'CODE'
_TEXT	ENDS
;	COMDAT ??0CtrColBase@@QAE@XZ
_TEXT	SEGMENT PARA USE32 PUBLIC 'CODE'
_TEXT	ENDS
;	COMDAT ??1CtrColBase@@QAE@XZ
_TEXT	SEGMENT PARA USE32 PUBLIC 'CODE'
_TEXT	ENDS
;	COMDAT ??_GBaseColor@@QAEPAXI@Z
_TEXT	SEGMENT PARA USE32 PUBLIC 'CODE'
_TEXT	ENDS
;	COMDAT ??_ECtrColBase@@QAEPAXI@Z
_TEXT	SEGMENT PARA USE32 PUBLIC 'CODE'
_TEXT	ENDS
;	COMDAT _$E5
text$yc	SEGMENT PARA USE32 PUBLIC 'CODE'
text$yc	ENDS
;	COMDAT _$E6
text$yd	SEGMENT PARA USE32 PUBLIC 'CODE'
text$yd	ENDS
;	COMDAT ??B?$CComPtrBase@UITypeInfo2@@@ATL@@QBEPAUITypeInfo2@@XZ
_TEXT	SEGMENT PARA USE32 PUBLIC 'CODE'
_TEXT	ENDS
;	COMDAT ?equal@?$istreambuf_iterator@DU?$char_traits@D@std@@@std@@QBE_NABV12@@Z
_TEXT	SEGMENT PARA USE32 PUBLIC 'CODE'
_TEXT	ENDS
;	COMDAT ?equal@?$istreambuf_iterator@_WU?$char_traits@_W@std@@@std@@QBE_NABV12@@Z
_TEXT	SEGMENT PARA USE32 PUBLIC 'CODE'
_TEXT	ENDS
;	COMDAT ?Unlock@?$CComCritSecLock@VCComCriticalSection@ATL@@@ATL@@QAEXXZ
_TEXT	SEGMENT PARA USE32 PUBLIC 'CODE'
_TEXT	ENDS
;	COMDAT ??$_Maklocstr@D@std@@YAPADPBDPADABU_Cvtvec@@@Z
_TEXT	SEGMENT PARA USE32 PUBLIC 'CODE'
_TEXT	ENDS
;	COMDAT ??_R3?$numpunct@_W@std@@8
rdata$r	SEGMENT DWORD USE32 PUBLIC 'CONST'
rdata$r	ENDS
;	COMDAT ??_R3?$numpunct@D@std@@8
rdata$r	SEGMENT DWORD USE32 PUBLIC 'CONST'
rdata$r	ENDS
;	COMDAT ??_R2?$numpunct@_W@std@@8
rdata$r	SEGMENT DWORD USE32 PUBLIC 'CONST'
rdata$r	ENDS
;	COMDAT ??_R2?$numpunct@D@std@@8
rdata$r	SEGMENT DWORD USE32 PUBLIC 'CONST'
rdata$r	ENDS
;	COMDAT ??_R1A@?0A@A@?$numpunct@_W@std@@8
rdata$r	SEGMENT DWORD USE32 PUBLIC 'CONST'
rdata$r	ENDS
;	COMDAT ??_R1A@?0A@A@facet@locale@std@@8
rdata$r	SEGMENT DWORD USE32 PUBLIC 'CONST'
rdata$r	ENDS
;	COMDAT ??_R0?AVfacet@locale@std@@@8
_DATA	SEGMENT DWORD USE32 PUBLIC 'DATA'
_DATA	ENDS
;	COMDAT ??_R1A@?0A@A@?$numpunct@D@std@@8
rdata$r	SEGMENT DWORD USE32 PUBLIC 'CONST'
rdata$r	ENDS
;	COMDAT ??_R0?AV?$numpunct@_W@std@@@8
_DATA	SEGMENT DWORD USE32 PUBLIC 'DATA'
_DATA	ENDS
;	COMDAT ??_R0?AV?$numpunct@D@std@@@8
_DATA	SEGMENT DWORD USE32 PUBLIC 'DATA'
_DATA	ENDS
;	COMDAT ??0?$allocator@_W@std@@QAE@XZ
_TEXT	SEGMENT PARA USE32 PUBLIC 'CODE'
_TEXT	ENDS
;	COMDAT ??0?$allocator@D@std@@QAE@ABV01@@Z
_TEXT	SEGMENT PARA USE32 PUBLIC 'CODE'
_TEXT	ENDS
;	COMDAT ??0?$allocator@D@std@@QAE@XZ
_TEXT	SEGMENT PARA USE32 PUBLIC 'CODE'
_TEXT	ENDS
;	COMDAT ?deallocate@?$allocator@D@std@@QAEXPADI@Z
_TEXT	SEGMENT PARA USE32 PUBLIC 'CODE'
_TEXT	ENDS
;	COMDAT ?max_size@?$allocator@D@std@@QBEIXZ
_TEXT	SEGMENT PARA USE32 PUBLIC 'CODE'
_TEXT	ENDS
;	COMDAT ?allocate@?$allocator@D@std@@QAEPADI@Z
_TEXT	SEGMENT PARA USE32 PUBLIC 'CODE'
_TEXT	ENDS
;	COMDAT ??$_Allocate@D@std@@YAPADIPAD@Z
_TEXT	SEGMENT PARA USE32 PUBLIC 'CODE'
_TEXT	ENDS
;	COMDAT ??_G?$numpunct@_W@std@@MAEPAXI@Z
_TEXT	SEGMENT PARA USE32 PUBLIC 'CODE'
_TEXT	ENDS
;	COMDAT ??_R4?$numpunct@_W@std@@6B@
rdata$r	SEGMENT DWORD USE32 PUBLIC 'CONST'
rdata$r	ENDS
;	COMDAT ??_G?$numpunct@D@std@@MAEPAXI@Z
_TEXT	SEGMENT PARA USE32 PUBLIC 'CODE'
_TEXT	ENDS
;	COMDAT ??_R4?$numpunct@D@std@@6B@
rdata$r	SEGMENT DWORD USE32 PUBLIC 'CONST'
rdata$r	ENDS
;	COMDAT ?_Psave@?$_Facetptr@V?$numpunct@_W@std@@@std@@2PBVfacet@locale@2@B
_DATA	SEGMENT DWORD USE32 PUBLIC 'DATA'
_DATA	ENDS
;	COMDAT ?_Psave@?$_Facetptr@V?$numpunct@D@std@@@std@@2PBVfacet@locale@2@B
_DATA	SEGMENT DWORD USE32 PUBLIC 'DATA'
_DATA	ENDS
;	COMDAT ?Unlock@CComCriticalSection@ATL@@QAEJXZ
_TEXT	SEGMENT PARA USE32 PUBLIC 'CODE'
_TEXT	ENDS
;	COMDAT ?_Psave@?$_Facetptr@V?$ctype@_W@std@@@std@@2PBVfacet@locale@2@B
_DATA	SEGMENT DWORD USE32 PUBLIC 'DATA'
_DATA	ENDS
;	COMDAT ?_Psave@?$_Facetptr@V?$ctype@D@std@@@std@@2PBVfacet@locale@2@B
_DATA	SEGMENT DWORD USE32 PUBLIC 'DATA'
_DATA	ENDS
;	COMDAT ??$_Maklocchr@_W@std@@YA_WDPA_WABU_Cvtvec@@@Z
_TEXT	SEGMENT PARA USE32 PUBLIC 'CODE'
_TEXT	ENDS
;	COMDAT ??$_Maklocstr@_W@std@@YAPA_WPBDPA_WABU_Cvtvec@@@Z
_TEXT	SEGMENT PARA USE32 PUBLIC 'CODE'
_TEXT	ENDS
;	COMDAT ??$_Maklocchr@D@std@@YADDPADABU_Cvtvec@@@Z
_TEXT	SEGMENT PARA USE32 PUBLIC 'CODE'
_TEXT	ENDS
;	COMDAT ??_C@_04LOAJBDKD@true?$AA@
CONST	SEGMENT DWORD USE32 PUBLIC 'CONST'
CONST	ENDS
;	COMDAT ??_C@_05LAPONLG@false?$AA@
CONST	SEGMENT DWORD USE32 PUBLIC 'CONST'
CONST	ENDS
;	COMDAT _wmemcpy
_TEXT	SEGMENT PARA USE32 PUBLIC 'CODE'
_TEXT	ENDS
;	COMDAT ?max_size@?$allocator@_W@std@@QBEIXZ
_TEXT	SEGMENT PARA USE32 PUBLIC 'CODE'
_TEXT	ENDS
;	COMDAT ?allocate@?$allocator@_W@std@@QAEPA_WI@Z
_TEXT	SEGMENT PARA USE32 PUBLIC 'CODE'
_TEXT	ENDS
;	COMDAT ??$_Allocate@_W@std@@YAPA_WIPA_W@Z
_TEXT	SEGMENT PARA USE32 PUBLIC 'CODE'
_TEXT	ENDS
;	COMDAT ??_C@_01GFHCPBMG@C?$AA@
CONST	SEGMENT DWORD USE32 PUBLIC 'CONST'
CONST	ENDS
;	COMDAT ?_Peek@?$istreambuf_iterator@_WU?$char_traits@_W@std@@@std@@AAE_WXZ
_TEXT	SEGMENT PARA USE32 PUBLIC 'CODE'
_TEXT	ENDS
;	COMDAT ?_Peek@?$istreambuf_iterator@DU?$char_traits@D@std@@@std@@AAEDXZ
_TEXT	SEGMENT PARA USE32 PUBLIC 'CODE'
_TEXT	ENDS
;	COMDAT ??$use_facet@V?$ctype@_W@std@@@std@@YAABV?$ctype@_W@0@ABVlocale@0@@Z
_TEXT	SEGMENT PARA USE32 PUBLIC 'CODE'
_TEXT	ENDS
;	COMDAT ??_S?$ctype@_W@std@@6B@
CONST	SEGMENT DWORD USE32 PUBLIC 'CONST'
CONST	ENDS
;	COMDAT ??_R4?$ctype@_W@std@@6B@
rdata$r	SEGMENT DWORD USE32 PUBLIC 'CONST'
rdata$r	ENDS
;	COMDAT ??_R0?AV?$ctype@_W@std@@@8
_DATA	SEGMENT DWORD USE32 PUBLIC 'DATA'
_DATA	ENDS
;	COMDAT ??_R3?$ctype@_W@std@@8
rdata$r	SEGMENT DWORD USE32 PUBLIC 'CONST'
rdata$r	ENDS
;	COMDAT ??_R2?$ctype@_W@std@@8
rdata$r	SEGMENT DWORD USE32 PUBLIC 'CONST'
rdata$r	ENDS
;	COMDAT ??_R1A@?0A@A@?$ctype@_W@std@@8
rdata$r	SEGMENT DWORD USE32 PUBLIC 'CONST'
rdata$r	ENDS
;	COMDAT ??_R1A@?0A@A@ctype_base@std@@8
rdata$r	SEGMENT DWORD USE32 PUBLIC 'CONST'
rdata$r	ENDS
;	COMDAT ??_R0?AUctype_base@std@@@8
_DATA	SEGMENT DWORD USE32 PUBLIC 'DATA'
_DATA	ENDS
;	COMDAT ??_G?$ctype@_W@std@@MAEPAXI@Z
_TEXT	SEGMENT PARA USE32 PUBLIC 'CODE'
_TEXT	ENDS
;	COMDAT ??_C@_08EPJLHIJG@bad?5cast?$AA@
CONST	SEGMENT DWORD USE32 PUBLIC 'CONST'
CONST	ENDS
;	COMDAT __TI2?AVbad_cast@@
xdata$x	SEGMENT DWORD USE32 PUBLIC 'CONST'
xdata$x	ENDS
;	COMDAT __CTA2?AVbad_cast@@
xdata$x	SEGMENT DWORD USE32 PUBLIC 'CONST'
xdata$x	ENDS
;	COMDAT __CT??_R0?AVbad_cast@@@8??0bad_cast@@QAE@ABV0@@Z12
xdata$x	SEGMENT DWORD USE32 PUBLIC 'CONST'
xdata$x	ENDS
;	COMDAT ??_R0?AVbad_cast@@@8
_DATA	SEGMENT DWORD USE32 PUBLIC 'DATA'
_DATA	ENDS
;	COMDAT __CT??_R0?AVexception@@@8??0exception@@QAE@ABV0@@Z12
xdata$x	SEGMENT DWORD USE32 PUBLIC 'CONST'
xdata$x	ENDS
;	COMDAT ??_R0?AVexception@@@8
_DATA	SEGMENT DWORD USE32 PUBLIC 'DATA'
_DATA	ENDS
;	COMDAT ??$use_facet@V?$ctype@D@std@@@std@@YAABV?$ctype@D@0@ABVlocale@0@@Z
_TEXT	SEGMENT PARA USE32 PUBLIC 'CODE'
_TEXT	ENDS
;	COMDAT ??_S?$ctype@D@std@@6B@
CONST	SEGMENT DWORD USE32 PUBLIC 'CONST'
CONST	ENDS
;	COMDAT ??_R4?$ctype@D@std@@6B@
rdata$r	SEGMENT DWORD USE32 PUBLIC 'CONST'
rdata$r	ENDS
;	COMDAT ??_R0?AV?$ctype@D@std@@@8
_DATA	SEGMENT DWORD USE32 PUBLIC 'DATA'
_DATA	ENDS
;	COMDAT ??_R3?$ctype@D@std@@8
rdata$r	SEGMENT DWORD USE32 PUBLIC 'CONST'
rdata$r	ENDS
;	COMDAT ??_R2?$ctype@D@std@@8
rdata$r	SEGMENT DWORD USE32 PUBLIC 'CONST'
rdata$r	ENDS
;	COMDAT ??_R1A@?0A@A@?$ctype@D@std@@8
rdata$r	SEGMENT DWORD USE32 PUBLIC 'CONST'
rdata$r	ENDS
;	COMDAT ??_G?$ctype@D@std@@MAEPAXI@Z
_TEXT	SEGMENT PARA USE32 PUBLIC 'CODE'
_TEXT	ENDS
;	COMDAT ??_S?$numpunct@_W@std@@6B@
CONST	SEGMENT DWORD USE32 PUBLIC 'CONST'
CONST	ENDS
;	COMDAT ??_S?$numpunct@D@std@@6B@
CONST	SEGMENT DWORD USE32 PUBLIC 'CONST'
CONST	ENDS
;	COMDAT _wmemmove
_TEXT	SEGMENT PARA USE32 PUBLIC 'CODE'
_TEXT	ENDS
;	COMDAT ?deallocate@?$allocator@_W@std@@QAEXPA_WI@Z
_TEXT	SEGMENT PARA USE32 PUBLIC 'CODE'
_TEXT	ENDS
;	COMDAT ??0?$allocator@_W@std@@QAE@ABV01@@Z
_TEXT	SEGMENT PARA USE32 PUBLIC 'CODE'
_TEXT	ENDS
sxdata	SEGMENT DWORD USE32 'SXDATA'
sxdata	ENDS
FLAT	GROUP _DATA, CONST, _BSS
	ASSUME	CS: FLAT, DS: FLAT, SS: FLAT
endif

INCLUDELIB MSVCRT
INCLUDELIB OLDNAMES

PUBLIC	??0CtrColBase@@QAE@XZ				; CtrColBase::CtrColBase
PUBLIC	??1CtrColBase@@QAE@XZ				; CtrColBase::~CtrColBase
PUBLIC	??0CWndColorMgr@@QAE@XZ				; CWndColorMgr::CWndColorMgr
PUBLIC	?inIt@CWndColorMgr@@AAEXXZ			; CWndColorMgr::inIt
EXTRN	??_L@YGXPAXIHP6EX0@Z1@Z:NEAR			; `eh vector constructor iterator'
EXTRN	??_U@YAPAXI@Z:NEAR				; operator new[]
EXTRN	??_V@YAXPAX@Z:NEAR				; operator delete[]
EXTRN	__except_list:DWORD
EXTRN	___CxxFrameHandler:NEAR
xdata$x	SEGMENT
$T198040 DD	0ffffffffH
	DD	FLAT:$L198033
$T198037 DD	019930520H
	DD	01H
	DD	FLAT:$T198040
	DD	2 DUP(00H)
	DD	2 DUP(00H)
; Function compile flags: /Odt
; File d:\boxgit\playbox\playbox\dev\prj\playbox\src\layoutmgr\changecolor\wndcolormgr.cpp
xdata$x	ENDS
_TEXT	SEGMENT
tv76 = -28						; size = 4
_this$ = -24						; size = 4
$T198030 = -20						; size = 4
$T198029 = -16						; size = 4
__$EHRec$ = -12						; size = 12
??0CWndColorMgr@@QAE@XZ PROC NEAR			; CWndColorMgr::CWndColorMgr
; _this$ = ecx

; 10   : {

  00000	55		 push	 ebp
  00001	8b ec		 mov	 ebp, esp
  00003	6a ff		 push	 -1
  00005	68 00 00 00 00	 push	 __ehhandler$??0CWndColorMgr@@QAE@XZ
  0000a	64 a1 00 00 00
	00		 mov	 eax, DWORD PTR fs:__except_list
  00010	50		 push	 eax
  00011	64 89 25 00 00
	00 00		 mov	 DWORD PTR fs:__except_list, esp
  00018	83 ec 10	 sub	 esp, 16			; 00000010H
  0001b	89 4d e8	 mov	 DWORD PTR _this$[ebp], ecx

; 11   : 	mpColor = new STRU_CTR_COL_BASE[WND_TYPE_NUM];

  0001e	68 1c 01 00 00	 push	 284			; 0000011cH
  00023	e8 00 00 00 00	 call	 ??_U@YAPAXI@Z		; operator new[]
  00028	83 c4 04	 add	 esp, 4
  0002b	89 45 ec	 mov	 DWORD PTR $T198030[ebp], eax
  0002e	c7 45 fc 00 00
	00 00		 mov	 DWORD PTR __$EHRec$[ebp+8], 0
  00035	83 7d ec 00	 cmp	 DWORD PTR $T198030[ebp], 0
  00039	74 2e		 je	 SHORT $L198031
  0003b	8b 45 ec	 mov	 eax, DWORD PTR $T198030[ebp]
  0003e	c7 00 07 00 00
	00		 mov	 DWORD PTR [eax], 7
  00044	68 00 00 00 00	 push	 OFFSET FLAT:??1CtrColBase@@QAE@XZ ; CtrColBase::~CtrColBase
  00049	68 00 00 00 00	 push	 OFFSET FLAT:??0CtrColBase@@QAE@XZ ; CtrColBase::CtrColBase
  0004e	6a 07		 push	 7
  00050	6a 28		 push	 40			; 00000028H
  00052	8b 4d ec	 mov	 ecx, DWORD PTR $T198030[ebp]
  00055	83 c1 04	 add	 ecx, 4
  00058	51		 push	 ecx
  00059	e8 00 00 00 00	 call	 ??_L@YGXPAXIHP6EX0@Z1@Z
  0005e	8b 55 ec	 mov	 edx, DWORD PTR $T198030[ebp]
  00061	83 c2 04	 add	 edx, 4
  00064	89 55 e4	 mov	 DWORD PTR tv76[ebp], edx
  00067	eb 07		 jmp	 SHORT $L198032
$L198031:
  00069	c7 45 e4 00 00
	00 00		 mov	 DWORD PTR tv76[ebp], 0
$L198032:
  00070	8b 45 e4	 mov	 eax, DWORD PTR tv76[ebp]
  00073	89 45 f0	 mov	 DWORD PTR $T198029[ebp], eax
  00076	c7 45 fc ff ff
	ff ff		 mov	 DWORD PTR __$EHRec$[ebp+8], -1
  0007d	8b 4d e8	 mov	 ecx, DWORD PTR _this$[ebp]
  00080	8b 55 f0	 mov	 edx, DWORD PTR $T198029[ebp]
  00083	89 11		 mov	 DWORD PTR [ecx], edx

; 12   : 	inIt();

  00085	8b 4d e8	 mov	 ecx, DWORD PTR _this$[ebp]
  00088	e8 00 00 00 00	 call	 ?inIt@CWndColorMgr@@AAEXXZ ; CWndColorMgr::inIt

; 13   : 
; 14   : }

  0008d	8b 45 e8	 mov	 eax, DWORD PTR _this$[ebp]
  00090	8b 4d f4	 mov	 ecx, DWORD PTR __$EHRec$[ebp]
  00093	64 89 0d 00 00
	00 00		 mov	 DWORD PTR fs:__except_list, ecx
  0009a	8b e5		 mov	 esp, ebp
  0009c	5d		 pop	 ebp
  0009d	c3		 ret	 0
_TEXT	ENDS
text$x	SEGMENT
$L198033:
  00000	8b 45 ec	 mov	 eax, DWORD PTR $T198030[ebp]
  00003	50		 push	 eax
  00004	e8 00 00 00 00	 call	 ??_V@YAXPAX@Z		; operator delete[]
  00009	59		 pop	 ecx
  0000a	c3		 ret	 0
__ehhandler$??0CWndColorMgr@@QAE@XZ:
  0000b	b8 00 00 00 00	 mov	 eax, OFFSET FLAT:$T198037
  00010	e9 00 00 00 00	 jmp	 ___CxxFrameHandler
text$x	ENDS
??0CWndColorMgr@@QAE@XZ ENDP				; CWndColorMgr::CWndColorMgr
PUBLIC	??0BaseColor@@QAE@XZ				; BaseColor::BaseColor
EXTRN	??2@YAPAXI@Z:NEAR				; operator new
EXTRN	??3@YAXPAX@Z:NEAR				; operator delete
;	COMDAT xdata$x
; File d:\boxgit\playbox\playbox\dev\prj\playbox\src\layoutmgr\changecolor\wndcolormgr.h
xdata$x	SEGMENT
$T198051 DD	0ffffffffH
	DD	FLAT:$L198047
$T198049 DD	019930520H
	DD	01H
	DD	FLAT:$T198051
	DD	2 DUP(00H)
	DD	2 DUP(00H)
; Function compile flags: /Odt
xdata$x	ENDS
;	COMDAT ??0CtrColBase@@QAE@XZ
_TEXT	SEGMENT
tv71 = -28						; size = 4
_this$ = -24						; size = 4
$T198044 = -20						; size = 4
$T198043 = -16						; size = 4
__$EHRec$ = -12						; size = 12
??0CtrColBase@@QAE@XZ PROC NEAR				; CtrColBase::CtrColBase, COMDAT
; _this$ = ecx

; 60   : 	CtrColBase()

  00000	55		 push	 ebp
  00001	8b ec		 mov	 ebp, esp
  00003	6a ff		 push	 -1
  00005	68 00 00 00 00	 push	 __ehhandler$??0CtrColBase@@QAE@XZ
  0000a	64 a1 00 00 00
	00		 mov	 eax, DWORD PTR fs:__except_list
  00010	50		 push	 eax
  00011	64 89 25 00 00
	00 00		 mov	 DWORD PTR fs:__except_list, esp
  00018	83 ec 10	 sub	 esp, 16			; 00000010H
  0001b	89 4d e8	 mov	 DWORD PTR _this$[ebp], ecx

; 61   : 	{
; 62   : 		structColBase = new STRU_BASE_COLOR;

  0001e	6a 14		 push	 20			; 00000014H
  00020	e8 00 00 00 00	 call	 ??2@YAPAXI@Z		; operator new
  00025	83 c4 04	 add	 esp, 4
  00028	89 45 ec	 mov	 DWORD PTR $T198044[ebp], eax
  0002b	c7 45 fc 00 00
	00 00		 mov	 DWORD PTR __$EHRec$[ebp+8], 0
  00032	83 7d ec 00	 cmp	 DWORD PTR $T198044[ebp], 0
  00036	74 0d		 je	 SHORT $L198045
  00038	8b 4d ec	 mov	 ecx, DWORD PTR $T198044[ebp]
  0003b	e8 00 00 00 00	 call	 ??0BaseColor@@QAE@XZ	; BaseColor::BaseColor
  00040	89 45 e4	 mov	 DWORD PTR tv71[ebp], eax
  00043	eb 07		 jmp	 SHORT $L198046
$L198045:
  00045	c7 45 e4 00 00
	00 00		 mov	 DWORD PTR tv71[ebp], 0
$L198046:
  0004c	8b 45 e4	 mov	 eax, DWORD PTR tv71[ebp]
  0004f	89 45 f0	 mov	 DWORD PTR $T198043[ebp], eax
  00052	c7 45 fc ff ff
	ff ff		 mov	 DWORD PTR __$EHRec$[ebp+8], -1
  00059	8b 4d e8	 mov	 ecx, DWORD PTR _this$[ebp]
  0005c	8b 55 f0	 mov	 edx, DWORD PTR $T198043[ebp]
  0005f	89 11		 mov	 DWORD PTR [ecx], edx

; 63   : 	};

  00061	8b 45 e8	 mov	 eax, DWORD PTR _this$[ebp]
  00064	8b 4d f4	 mov	 ecx, DWORD PTR __$EHRec$[ebp]
  00067	64 89 0d 00 00
	00 00		 mov	 DWORD PTR fs:__except_list, ecx
  0006e	8b e5		 mov	 esp, ebp
  00070	5d		 pop	 ebp
  00071	c3		 ret	 0
_TEXT	ENDS
;	COMDAT text$x
text$x	SEGMENT
$L198047:
  00000	8b 45 ec	 mov	 eax, DWORD PTR $T198044[ebp]
  00003	50		 push	 eax
  00004	e8 00 00 00 00	 call	 ??3@YAXPAX@Z		; operator delete
  00009	59		 pop	 ecx
  0000a	c3		 ret	 0
__ehhandler$??0CtrColBase@@QAE@XZ:
  0000b	b8 00 00 00 00	 mov	 eax, OFFSET FLAT:$T198049
  00010	e9 00 00 00 00	 jmp	 ___CxxFrameHandler
text$x	ENDS
??0CtrColBase@@QAE@XZ ENDP				; CtrColBase::CtrColBase
; Function compile flags: /Odt
;	COMDAT ??0BaseColor@@QAE@XZ
_TEXT	SEGMENT
_this$ = -4						; size = 4
??0BaseColor@@QAE@XZ PROC NEAR				; BaseColor::BaseColor, COMDAT
; _this$ = ecx

; 21   : 	BaseColor()	{};

  00000	55		 push	 ebp
  00001	8b ec		 mov	 ebp, esp
  00003	51		 push	 ecx
  00004	89 4d fc	 mov	 DWORD PTR _this$[ebp], ecx
  00007	8b 45 fc	 mov	 eax, DWORD PTR _this$[ebp]
  0000a	8b e5		 mov	 esp, ebp
  0000c	5d		 pop	 ebp
  0000d	c3		 ret	 0
??0BaseColor@@QAE@XZ ENDP				; BaseColor::BaseColor
_TEXT	ENDS
PUBLIC	??_GBaseColor@@QAEPAXI@Z			; BaseColor::`scalar deleting destructor'
; Function compile flags: /Odt
;	COMDAT ??1CtrColBase@@QAE@XZ
_TEXT	SEGMENT
tv68 = -16						; size = 4
_this$ = -12						; size = 4
$T198059 = -8						; size = 4
$T198058 = -4						; size = 4
??1CtrColBase@@QAE@XZ PROC NEAR				; CtrColBase::~CtrColBase, COMDAT
; _this$ = ecx

; 65   : 	{

  00000	55		 push	 ebp
  00001	8b ec		 mov	 ebp, esp
  00003	83 ec 10	 sub	 esp, 16			; 00000010H
  00006	89 4d f4	 mov	 DWORD PTR _this$[ebp], ecx

; 66   : 		delete structColBase;

  00009	8b 45 f4	 mov	 eax, DWORD PTR _this$[ebp]
  0000c	8b 08		 mov	 ecx, DWORD PTR [eax]
  0000e	89 4d f8	 mov	 DWORD PTR $T198059[ebp], ecx
  00011	8b 55 f8	 mov	 edx, DWORD PTR $T198059[ebp]
  00014	89 55 fc	 mov	 DWORD PTR $T198058[ebp], edx
  00017	83 7d fc 00	 cmp	 DWORD PTR $T198058[ebp], 0
  0001b	74 0f		 je	 SHORT $L198060
  0001d	6a 01		 push	 1
  0001f	8b 4d fc	 mov	 ecx, DWORD PTR $T198058[ebp]
  00022	e8 00 00 00 00	 call	 ??_GBaseColor@@QAEPAXI@Z
  00027	89 45 f0	 mov	 DWORD PTR tv68[ebp], eax
  0002a	eb 07		 jmp	 SHORT $L197456
$L198060:
  0002c	c7 45 f0 00 00
	00 00		 mov	 DWORD PTR tv68[ebp], 0
$L197456:

; 67   : 	};

  00033	8b e5		 mov	 esp, ebp
  00035	5d		 pop	 ebp
  00036	c3		 ret	 0
??1CtrColBase@@QAE@XZ ENDP				; CtrColBase::~CtrColBase
_TEXT	ENDS
PUBLIC	??1BaseColor@@QAE@XZ				; BaseColor::~BaseColor
; Function compile flags: /Odt
;	COMDAT ??_GBaseColor@@QAEPAXI@Z
_TEXT	SEGMENT
_this$ = -4						; size = 4
___flags$ = 8						; size = 4
??_GBaseColor@@QAEPAXI@Z PROC NEAR			; BaseColor::`scalar deleting destructor', COMDAT
; _this$ = ecx
  00000	55		 push	 ebp
  00001	8b ec		 mov	 ebp, esp
  00003	51		 push	 ecx
  00004	89 4d fc	 mov	 DWORD PTR _this$[ebp], ecx
  00007	8b 4d fc	 mov	 ecx, DWORD PTR _this$[ebp]
  0000a	e8 00 00 00 00	 call	 ??1BaseColor@@QAE@XZ	; BaseColor::~BaseColor
  0000f	8b 45 08	 mov	 eax, DWORD PTR ___flags$[ebp]
  00012	83 e0 01	 and	 eax, 1
  00015	74 0c		 je	 SHORT $L197462
  00017	8b 4d fc	 mov	 ecx, DWORD PTR _this$[ebp]
  0001a	51		 push	 ecx
  0001b	e8 00 00 00 00	 call	 ??3@YAXPAX@Z		; operator delete
  00020	83 c4 04	 add	 esp, 4
$L197462:
  00023	8b 45 fc	 mov	 eax, DWORD PTR _this$[ebp]
  00026	8b e5		 mov	 esp, ebp
  00028	5d		 pop	 ebp
  00029	c2 04 00	 ret	 4
??_GBaseColor@@QAEPAXI@Z ENDP				; BaseColor::`scalar deleting destructor'
; Function compile flags: /Odt
_TEXT	ENDS
;	COMDAT ??1BaseColor@@QAE@XZ
_TEXT	SEGMENT
_this$ = -4						; size = 4
??1BaseColor@@QAE@XZ PROC NEAR				; BaseColor::~BaseColor, COMDAT
; _this$ = ecx

; 22   : 	~BaseColor() {};

  00000	55		 push	 ebp
  00001	8b ec		 mov	 ebp, esp
  00003	51		 push	 ecx
  00004	89 4d fc	 mov	 DWORD PTR _this$[ebp], ecx
  00007	8b e5		 mov	 esp, ebp
  00009	5d		 pop	 ebp
  0000a	c3		 ret	 0
??1BaseColor@@QAE@XZ ENDP				; BaseColor::~BaseColor
_TEXT	ENDS
PUBLIC	??_ECtrColBase@@QAEPAXI@Z			; CtrColBase::`vector deleting destructor'
EXTRN	??_M@YGXPAXIHP6EX0@Z@Z:NEAR			; `eh vector destructor iterator'
; Function compile flags: /Odt
;	COMDAT ??_ECtrColBase@@QAEPAXI@Z
_TEXT	SEGMENT
_this$ = -4						; size = 4
___flags$ = 8						; size = 4
??_ECtrColBase@@QAEPAXI@Z PROC NEAR			; CtrColBase::`vector deleting destructor', COMDAT
; _this$ = ecx
  00000	55		 push	 ebp
  00001	8b ec		 mov	 ebp, esp
  00003	51		 push	 ecx
  00004	89 4d fc	 mov	 DWORD PTR _this$[ebp], ecx
  00007	8b 45 08	 mov	 eax, DWORD PTR ___flags$[ebp]
  0000a	83 e0 02	 and	 eax, 2
  0000d	74 36		 je	 SHORT $L197495
  0000f	68 00 00 00 00	 push	 OFFSET FLAT:??1CtrColBase@@QAE@XZ ; CtrColBase::~CtrColBase
  00014	8b 4d fc	 mov	 ecx, DWORD PTR _this$[ebp]
  00017	8b 51 fc	 mov	 edx, DWORD PTR [ecx-4]
  0001a	52		 push	 edx
  0001b	6a 28		 push	 40			; 00000028H
  0001d	8b 45 fc	 mov	 eax, DWORD PTR _this$[ebp]
  00020	50		 push	 eax
  00021	e8 00 00 00 00	 call	 ??_M@YGXPAXIHP6EX0@Z@Z
  00026	8b 4d 08	 mov	 ecx, DWORD PTR ___flags$[ebp]
  00029	83 e1 01	 and	 ecx, 1
  0002c	74 0f		 je	 SHORT $L197496
  0002e	8b 55 fc	 mov	 edx, DWORD PTR _this$[ebp]
  00031	83 ea 04	 sub	 edx, 4
  00034	52		 push	 edx
  00035	e8 00 00 00 00	 call	 ??_V@YAXPAX@Z		; operator delete[]
  0003a	83 c4 04	 add	 esp, 4
$L197496:
  0003d	8b 45 fc	 mov	 eax, DWORD PTR _this$[ebp]
  00040	83 e8 04	 sub	 eax, 4
  00043	eb 1f		 jmp	 SHORT $L197494
$L197495:
  00045	8b 4d fc	 mov	 ecx, DWORD PTR _this$[ebp]
  00048	e8 00 00 00 00	 call	 ??1CtrColBase@@QAE@XZ	; CtrColBase::~CtrColBase
  0004d	8b 45 08	 mov	 eax, DWORD PTR ___flags$[ebp]
  00050	83 e0 01	 and	 eax, 1
  00053	74 0c		 je	 SHORT $L197498
  00055	8b 4d fc	 mov	 ecx, DWORD PTR _this$[ebp]
  00058	51		 push	 ecx
  00059	e8 00 00 00 00	 call	 ??3@YAXPAX@Z		; operator delete
  0005e	83 c4 04	 add	 esp, 4
$L197498:
  00061	8b 45 fc	 mov	 eax, DWORD PTR _this$[ebp]
$L197494:
  00064	8b e5		 mov	 esp, ebp
  00066	5d		 pop	 ebp
  00067	c2 04 00	 ret	 4
??_ECtrColBase@@QAEPAXI@Z ENDP				; CtrColBase::`vector deleting destructor'
_TEXT	ENDS
PUBLIC	??1CWndColorMgr@@QAE@XZ				; CWndColorMgr::~CWndColorMgr
; Function compile flags: /Odt
; File d:\boxgit\playbox\playbox\dev\prj\playbox\src\layoutmgr\changecolor\wndcolormgr.cpp
_TEXT	SEGMENT
tv69 = -16						; size = 4
_this$ = -12						; size = 4
$T198071 = -8						; size = 4
$T198070 = -4						; size = 4
??1CWndColorMgr@@QAE@XZ PROC NEAR			; CWndColorMgr::~CWndColorMgr
; _this$ = ecx

; 22   : {

  000a0	55		 push	 ebp
  000a1	8b ec		 mov	 ebp, esp
  000a3	83 ec 10	 sub	 esp, 16			; 00000010H
  000a6	89 4d f4	 mov	 DWORD PTR _this$[ebp], ecx

; 23   : 	if(mpColor)

  000a9	8b 45 f4	 mov	 eax, DWORD PTR _this$[ebp]
  000ac	83 38 00	 cmp	 DWORD PTR [eax], 0
  000af	74 2a		 je	 SHORT $L197503

; 24   : 	{
; 25   : 		delete[] mpColor;

  000b1	8b 4d f4	 mov	 ecx, DWORD PTR _this$[ebp]
  000b4	8b 11		 mov	 edx, DWORD PTR [ecx]
  000b6	89 55 f8	 mov	 DWORD PTR $T198071[ebp], edx
  000b9	8b 45 f8	 mov	 eax, DWORD PTR $T198071[ebp]
  000bc	89 45 fc	 mov	 DWORD PTR $T198070[ebp], eax
  000bf	83 7d fc 00	 cmp	 DWORD PTR $T198070[ebp], 0
  000c3	74 0f		 je	 SHORT $L198072
  000c5	6a 03		 push	 3
  000c7	8b 4d fc	 mov	 ecx, DWORD PTR $T198070[ebp]
  000ca	e8 00 00 00 00	 call	 ??_ECtrColBase@@QAEPAXI@Z
  000cf	89 45 f0	 mov	 DWORD PTR tv69[ebp], eax
  000d2	eb 07		 jmp	 SHORT $L197503
$L198072:
  000d4	c7 45 f0 00 00
	00 00		 mov	 DWORD PTR tv69[ebp], 0
$L197503:

; 26   : 	}
; 27   : 	mpColor = NULL;

  000db	8b 4d f4	 mov	 ecx, DWORD PTR _this$[ebp]
  000de	c7 01 00 00 00
	00		 mov	 DWORD PTR [ecx], 0

; 28   : }

  000e4	8b e5		 mov	 esp, ebp
  000e6	5d		 pop	 ebp
  000e7	c3		 ret	 0
??1CWndColorMgr@@QAE@XZ ENDP				; CWndColorMgr::~CWndColorMgr
_TEXT	ENDS
PUBLIC	?getColor@CWndColorMgr@@QAEPAUCtrColBase@@I@Z	; CWndColorMgr::getColor
; Function compile flags: /Odt
_TEXT	SEGMENT
_this$ = -4						; size = 4
_aiFaceType$ = 8					; size = 4
?getColor@CWndColorMgr@@QAEPAUCtrColBase@@I@Z PROC NEAR	; CWndColorMgr::getColor
; _this$ = ecx

; 37   : {

  000f0	55		 push	 ebp
  000f1	8b ec		 mov	 ebp, esp
  000f3	51		 push	 ecx
  000f4	89 4d fc	 mov	 DWORD PTR _this$[ebp], ecx

; 38   : 	return &mpColor[aiFaceType];

  000f7	8b 45 08	 mov	 eax, DWORD PTR _aiFaceType$[ebp]
  000fa	6b c0 28	 imul	 eax, 40			; 00000028H
  000fd	8b 4d fc	 mov	 ecx, DWORD PTR _this$[ebp]
  00100	03 01		 add	 eax, DWORD PTR [ecx]

; 39   : }

  00102	8b e5		 mov	 esp, ebp
  00104	5d		 pop	 ebp
  00105	c2 04 00	 ret	 4
?getColor@CWndColorMgr@@QAEPAUCtrColBase@@I@Z ENDP	; CWndColorMgr::getColor
_TEXT	ENDS
PUBLIC	?setColor@CWndColorMgr@@QAEHI@Z			; CWndColorMgr::setColor
; Function compile flags: /Odt
_TEXT	SEGMENT
_this$ = -4						; size = 4
_aiFaceNum$ = 8						; size = 4
?setColor@CWndColorMgr@@QAEHI@Z PROC NEAR		; CWndColorMgr::setColor
; _this$ = ecx

; 47   : {

  00110	55		 push	 ebp
  00111	8b ec		 mov	 ebp, esp
  00113	51		 push	 ecx
  00114	89 4d fc	 mov	 DWORD PTR _this$[ebp], ecx

; 48   : 	return 1;

  00117	b8 01 00 00 00	 mov	 eax, 1

; 49   : }

  0011c	8b e5		 mov	 esp, ebp
  0011e	5d		 pop	 ebp
  0011f	c2 04 00	 ret	 4
?setColor@CWndColorMgr@@QAEHI@Z ENDP			; CWndColorMgr::setColor
; Function compile flags: /Odt
_this$ = -4						; size = 4
?inIt@CWndColorMgr@@AAEXXZ PROC NEAR			; CWndColorMgr::inIt
; _this$ = ecx

; 51   : {

  00130	55		 push	 ebp
  00131	8b ec		 mov	 ebp, esp
  00133	51		 push	 ecx
  00134	89 4d fc	 mov	 DWORD PTR _this$[ebp], ecx

; 52   : 	mpColor[BITMAP_WND].structColEX = 0;

  00137	8b 45 fc	 mov	 eax, DWORD PTR _this$[ebp]
  0013a	8b 08		 mov	 ecx, DWORD PTR [eax]
  0013c	c7 41 04 00 00
	00 00		 mov	 DWORD PTR [ecx+4], 0

; 53   : 	mpColor[BITMAP_WND].structColBase->colBK =  RGB(250,250,250);

  00143	8b 55 fc	 mov	 edx, DWORD PTR _this$[ebp]
  00146	8b 02		 mov	 eax, DWORD PTR [edx]
  00148	8b 08		 mov	 ecx, DWORD PTR [eax]
  0014a	c7 41 10 fa fa
	fa 00		 mov	 DWORD PTR [ecx+16], 16448250 ; 00fafafaH

; 54   : 	//mpColor[BITMAP_WND].colNormal2 =  RGB(255,255,255);
; 55   : 	mpColor[BITMAP_WND].structColBase->colFrame1 = RGB(109,109,109);

  00151	8b 55 fc	 mov	 edx, DWORD PTR _this$[ebp]
  00154	8b 02		 mov	 eax, DWORD PTR [edx]
  00156	8b 08		 mov	 ecx, DWORD PTR [eax]
  00158	c7 01 6d 6d 6d
	00		 mov	 DWORD PTR [ecx], 7171437 ; 006d6d6dH

; 56   : 
; 57   : 	mpColor[COLOR_WND].structColEX = 0;

  0015e	8b 55 fc	 mov	 edx, DWORD PTR _this$[ebp]
  00161	8b 02		 mov	 eax, DWORD PTR [edx]
  00163	c7 40 2c 00 00
	00 00		 mov	 DWORD PTR [eax+44], 0

; 58   : 	mpColor[COLOR_WND].structColBase->colBK =  RGB(250,250,250);

  0016a	8b 4d fc	 mov	 ecx, DWORD PTR _this$[ebp]
  0016d	8b 11		 mov	 edx, DWORD PTR [ecx]
  0016f	8b 42 28	 mov	 eax, DWORD PTR [edx+40]
  00172	c7 40 10 fa fa
	fa 00		 mov	 DWORD PTR [eax+16], 16448250 ; 00fafafaH

; 59   : 	//mpColor[COLOR_WND].colNormal2 =  RGB(255,255,255);
; 60   : 	mpColor[COLOR_WND].structColBase->colFrame1 = RGB(109,109,109);

  00179	8b 4d fc	 mov	 ecx, DWORD PTR _this$[ebp]
  0017c	8b 11		 mov	 edx, DWORD PTR [ecx]
  0017e	8b 42 28	 mov	 eax, DWORD PTR [edx+40]
  00181	c7 00 6d 6d 6d
	00		 mov	 DWORD PTR [eax], 7171437 ; 006d6d6dH

; 61   : 
; 62   : 	mpColor[TABLE_CTROL].structColEX = 0;

  00187	8b 4d fc	 mov	 ecx, DWORD PTR _this$[ebp]
  0018a	8b 11		 mov	 edx, DWORD PTR [ecx]
  0018c	c7 42 54 00 00
	00 00		 mov	 DWORD PTR [edx+84], 0

; 63   : 	mpColor[TABLE_CTROL].structColBase->colFont = RGB(0,0,0);

  00193	8b 45 fc	 mov	 eax, DWORD PTR _this$[ebp]
  00196	8b 08		 mov	 ecx, DWORD PTR [eax]
  00198	8b 51 50	 mov	 edx, DWORD PTR [ecx+80]
  0019b	c7 42 0c 00 00
	00 00		 mov	 DWORD PTR [edx+12], 0

; 64   : 	mpColor[TABLE_CTROL].structColBase->colBK = RGB(250,250,250);

  001a2	8b 45 fc	 mov	 eax, DWORD PTR _this$[ebp]
  001a5	8b 08		 mov	 ecx, DWORD PTR [eax]
  001a7	8b 51 50	 mov	 edx, DWORD PTR [ecx+80]
  001aa	c7 42 10 fa fa
	fa 00		 mov	 DWORD PTR [edx+16], 16448250 ; 00fafafaH

; 65   : 	mpColor[TABLE_CTROL].colNormal1 =  RGB(222,222,222);

  001b1	8b 45 fc	 mov	 eax, DWORD PTR _this$[ebp]
  001b4	8b 08		 mov	 ecx, DWORD PTR [eax]
  001b6	c7 41 58 de de
	de 00		 mov	 DWORD PTR [ecx+88], 14606046 ; 00dededeH

; 66   : 	mpColor[TABLE_CTROL].colNormal2 =  RGB(235,235,235);

  001bd	8b 55 fc	 mov	 edx, DWORD PTR _this$[ebp]
  001c0	8b 02		 mov	 eax, DWORD PTR [edx]
  001c2	c7 40 5c eb eb
	eb 00		 mov	 DWORD PTR [eax+92], 15461355 ; 00ebebebH

; 67   : 	mpColor[TABLE_CTROL].colDown1 = RGB(230,230,230);

  001c9	8b 4d fc	 mov	 ecx, DWORD PTR _this$[ebp]
  001cc	8b 11		 mov	 edx, DWORD PTR [ecx]
  001ce	c7 42 68 e6 e6
	e6 00		 mov	 DWORD PTR [edx+104], 15132390 ; 00e6e6e6H

; 68   : 	mpColor[TABLE_CTROL].colDown2 =  RGB(250,250,250);

  001d5	8b 45 fc	 mov	 eax, DWORD PTR _this$[ebp]
  001d8	8b 08		 mov	 ecx, DWORD PTR [eax]
  001da	c7 41 6c fa fa
	fa 00		 mov	 DWORD PTR [ecx+108], 16448250 ; 00fafafaH

; 69   : 	mpColor[TABLE_CTROL].structColBase->colFrame1 = RGB(109,109,109);

  001e1	8b 55 fc	 mov	 edx, DWORD PTR _this$[ebp]
  001e4	8b 02		 mov	 eax, DWORD PTR [edx]
  001e6	8b 48 50	 mov	 ecx, DWORD PTR [eax+80]
  001e9	c7 01 6d 6d 6d
	00		 mov	 DWORD PTR [ecx], 7171437 ; 006d6d6dH

; 70   : 
; 71   : 	mpColor[SCROLLBAR_CTROL].colNormal1 = 0xfbfbfb;

  001ef	8b 55 fc	 mov	 edx, DWORD PTR _this$[ebp]
  001f2	8b 02		 mov	 eax, DWORD PTR [edx]
  001f4	c7 80 80 00 00
	00 fb fb fb 00	 mov	 DWORD PTR [eax+128], 16514043 ; 00fbfbfbH

; 72   : 	mpColor[SCROLLBAR_CTROL].colNormal2 = 0xe9e9e9;

  001fe	8b 4d fc	 mov	 ecx, DWORD PTR _this$[ebp]
  00201	8b 11		 mov	 edx, DWORD PTR [ecx]
  00203	c7 82 84 00 00
	00 e9 e9 e9 00	 mov	 DWORD PTR [edx+132], 15329769 ; 00e9e9e9H

; 73   : 	mpColor[SCROLLBAR_CTROL].colEnter1 = 0xfcfbf6;

  0020d	8b 45 fc	 mov	 eax, DWORD PTR _this$[ebp]
  00210	8b 08		 mov	 ecx, DWORD PTR [eax]
  00212	c7 81 88 00 00
	00 f6 fb fc 00	 mov	 DWORD PTR [ecx+136], 16579574 ; 00fcfbf6H

; 74   : 	mpColor[SCROLLBAR_CTROL].colEnter2 = 0xebeae4;

  0021c	8b 55 fc	 mov	 edx, DWORD PTR _this$[ebp]
  0021f	8b 02		 mov	 eax, DWORD PTR [edx]
  00221	c7 80 8c 00 00
	00 e4 ea eb 00	 mov	 DWORD PTR [eax+140], 15461092 ; 00ebeae4H

; 75   : 	mpColor[SCROLLBAR_CTROL].colDown1 = 0xebeae4;

  0022b	8b 4d fc	 mov	 ecx, DWORD PTR _this$[ebp]
  0022e	8b 11		 mov	 edx, DWORD PTR [ecx]
  00230	c7 82 90 00 00
	00 e4 ea eb 00	 mov	 DWORD PTR [edx+144], 15461092 ; 00ebeae4H

; 76   : 	mpColor[SCROLLBAR_CTROL].colDown2 = 0xfcfbf6;

  0023a	8b 45 fc	 mov	 eax, DWORD PTR _this$[ebp]
  0023d	8b 08		 mov	 ecx, DWORD PTR [eax]
  0023f	c7 81 94 00 00
	00 f6 fb fc 00	 mov	 DWORD PTR [ecx+148], 16579574 ; 00fcfbf6H

; 77   : 	mpColor[SCROLLBAR_CTROL].structColBase->colFrame1 =0xb6b6b6;

  00249	8b 55 fc	 mov	 edx, DWORD PTR _this$[ebp]
  0024c	8b 02		 mov	 eax, DWORD PTR [edx]
  0024e	8b 48 78	 mov	 ecx, DWORD PTR [eax+120]
  00251	c7 01 b6 b6 b6
	00		 mov	 DWORD PTR [ecx], 11974326 ; 00b6b6b6H

; 78   : 	mpColor[SCROLLBAR_CTROL].structColBase->colFrame2 =0xf8f8f8;

  00257	8b 55 fc	 mov	 edx, DWORD PTR _this$[ebp]
  0025a	8b 02		 mov	 eax, DWORD PTR [edx]
  0025c	8b 48 78	 mov	 ecx, DWORD PTR [eax+120]
  0025f	c7 41 04 f8 f8
	f8 00		 mov	 DWORD PTR [ecx+4], 16316664 ; 00f8f8f8H

; 79   : 	mpColor[SCROLLBAR_CTROL].colDisable1 = 0xf7f3f3; // 用做按扭颜色

  00266	8b 55 fc	 mov	 edx, DWORD PTR _this$[ebp]
  00269	8b 02		 mov	 eax, DWORD PTR [edx]
  0026b	c7 80 98 00 00
	00 f3 f3 f7 00	 mov	 DWORD PTR [eax+152], 16249843 ; 00f7f3f3H

; 80   : 	mpColor[SCROLLBAR_CTROL].colDisable2 = 0xd7d2c5;

  00275	8b 4d fc	 mov	 ecx, DWORD PTR _this$[ebp]
  00278	8b 11		 mov	 edx, DWORD PTR [ecx]
  0027a	c7 82 9c 00 00
	00 c5 d2 d7 00	 mov	 DWORD PTR [edx+156], 14144197 ; 00d7d2c5H

; 81   : 	mpColor[SCROLLBAR_CTROL].structColBase->colFont =0x5a5956;

  00284	8b 45 fc	 mov	 eax, DWORD PTR _this$[ebp]
  00287	8b 08		 mov	 ecx, DWORD PTR [eax]
  00289	8b 51 78	 mov	 edx, DWORD PTR [ecx+120]
  0028c	c7 42 0c 56 59
	5a 00		 mov	 DWORD PTR [edx+12], 5921110 ; 005a5956H

; 82   : 	mpColor[SCROLLBAR_CTROL].structColBase->colBK = 0x837654;

  00293	8b 45 fc	 mov	 eax, DWORD PTR _this$[ebp]
  00296	8b 08		 mov	 ecx, DWORD PTR [eax]
  00298	8b 51 78	 mov	 edx, DWORD PTR [ecx+120]
  0029b	c7 42 10 54 76
	83 00		 mov	 DWORD PTR [edx+16], 8615508 ; 00837654H

; 83   : 
; 84   : 	mpColor[BITMAP_CTROL].structColEX  = 0;

  002a2	8b 45 fc	 mov	 eax, DWORD PTR _this$[ebp]
  002a5	8b 08		 mov	 ecx, DWORD PTR [eax]
  002a7	c7 81 a4 00 00
	00 00 00 00 00	 mov	 DWORD PTR [ecx+164], 0

; 85   : 	mpColor[BITMAP_CTROL].structColBase->colFont =   RGB(4,4,4);

  002b1	8b 55 fc	 mov	 edx, DWORD PTR _this$[ebp]
  002b4	8b 02		 mov	 eax, DWORD PTR [edx]
  002b6	8b 88 a0 00 00
	00		 mov	 ecx, DWORD PTR [eax+160]
  002bc	c7 41 0c 04 04
	04 00		 mov	 DWORD PTR [ecx+12], 263172 ; 00040404H

; 86   : 	mpColor[BITMAP_CTROL].structColBase->colFrame1 = RGB(250,250,250);

  002c3	8b 55 fc	 mov	 edx, DWORD PTR _this$[ebp]
  002c6	8b 02		 mov	 eax, DWORD PTR [edx]
  002c8	8b 88 a0 00 00
	00		 mov	 ecx, DWORD PTR [eax+160]
  002ce	c7 01 fa fa fa
	00		 mov	 DWORD PTR [ecx], 16448250 ; 00fafafaH

; 87   : 	mpColor[BITMAP_CTROL].structColBase->colFrame2 = RGB(225,150,0);

  002d4	8b 55 fc	 mov	 edx, DWORD PTR _this$[ebp]
  002d7	8b 02		 mov	 eax, DWORD PTR [edx]
  002d9	8b 88 a0 00 00
	00		 mov	 ecx, DWORD PTR [eax+160]
  002df	c7 41 04 e1 96
	00 00		 mov	 DWORD PTR [ecx+4], 38625 ; 000096e1H

; 88   : 
; 89   : 	mpColor[COLOL_CTROL].structColEX  = 0;

  002e6	8b 55 fc	 mov	 edx, DWORD PTR _this$[ebp]
  002e9	8b 02		 mov	 eax, DWORD PTR [edx]
  002eb	c7 80 cc 00 00
	00 00 00 00 00	 mov	 DWORD PTR [eax+204], 0

; 90   : 	mpColor[COLOL_CTROL].structColBase->colFont   = RGB(4,4,4);

  002f5	8b 4d fc	 mov	 ecx, DWORD PTR _this$[ebp]
  002f8	8b 11		 mov	 edx, DWORD PTR [ecx]
  002fa	8b 82 c8 00 00
	00		 mov	 eax, DWORD PTR [edx+200]
  00300	c7 40 0c 04 04
	04 00		 mov	 DWORD PTR [eax+12], 263172 ; 00040404H

; 91   : 	mpColor[COLOL_CTROL].structColBase->colFrame1 = RGB(250,250,250);

  00307	8b 4d fc	 mov	 ecx, DWORD PTR _this$[ebp]
  0030a	8b 11		 mov	 edx, DWORD PTR [ecx]
  0030c	8b 82 c8 00 00
	00		 mov	 eax, DWORD PTR [edx+200]
  00312	c7 00 fa fa fa
	00		 mov	 DWORD PTR [eax], 16448250 ; 00fafafaH

; 92   : 	mpColor[COLOL_CTROL].structColBase->colFrame2 = RGB(255,106,0);//RGB(225,150,0);

  00318	8b 4d fc	 mov	 ecx, DWORD PTR _this$[ebp]
  0031b	8b 11		 mov	 edx, DWORD PTR [ecx]
  0031d	8b 82 c8 00 00
	00		 mov	 eax, DWORD PTR [edx+200]
  00323	c7 40 04 ff 6a
	00 00		 mov	 DWORD PTR [eax+4], 27391 ; 00006affH

; 93   : 
; 94   : 	mpColor[SLIDER_CTROL].structColBase->colFrame1 = RGB(0,0,0); 

  0032a	8b 4d fc	 mov	 ecx, DWORD PTR _this$[ebp]
  0032d	8b 11		 mov	 edx, DWORD PTR [ecx]
  0032f	8b 82 f0 00 00
	00		 mov	 eax, DWORD PTR [edx+240]
  00335	c7 00 00 00 00
	00		 mov	 DWORD PTR [eax], 0

; 95   : 	mpColor[SLIDER_CTROL].structColBase->colFont    = RGB(109,109,109);

  0033b	8b 4d fc	 mov	 ecx, DWORD PTR _this$[ebp]
  0033e	8b 11		 mov	 edx, DWORD PTR [ecx]
  00340	8b 82 f0 00 00
	00		 mov	 eax, DWORD PTR [edx+240]
  00346	c7 40 0c 6d 6d
	6d 00		 mov	 DWORD PTR [eax+12], 7171437 ; 006d6d6dH

; 96   : 
; 97   : 
; 98   : }

  0034d	8b e5		 mov	 esp, ebp
  0034f	5d		 pop	 ebp
  00350	c3		 ret	 0
?inIt@CWndColorMgr@@AAEXXZ ENDP				; CWndColorMgr::inIt
_TEXT	ENDS
EXTRN	_atexit:NEAR
CRT$XCU	SEGMENT
_$S7	DD	FLAT:_$E5
; Function compile flags: /Odt
CRT$XCU	ENDS
;	COMDAT _$E5
text$yc	SEGMENT
_$E5	PROC NEAR					; COMDAT

; 99   :  CWndColorMgr   gWndColor;

  00000	55		 push	 ebp
  00001	8b ec		 mov	 ebp, esp
  00003	b9 00 00 00 00	 mov	 ecx, OFFSET FLAT:?gWndColor@@3VCWndColorMgr@@A ; gWndColor
  00008	e8 00 00 00 00	 call	 ??0CWndColorMgr@@QAE@XZ	; CWndColorMgr::CWndColorMgr
  0000d	68 00 00 00 00	 push	 OFFSET FLAT:_$E6
  00012	e8 00 00 00 00	 call	 _atexit
  00017	83 c4 04	 add	 esp, 4
  0001a	5d		 pop	 ebp
  0001b	c3		 ret	 0
_$E5	ENDP
; Function compile flags: /Odt
text$yc	ENDS
;	COMDAT _$E6
text$yd	SEGMENT
_$E6	PROC NEAR					; COMDAT
  00000	55		 push	 ebp
  00001	8b ec		 mov	 ebp, esp
  00003	b9 00 00 00 00	 mov	 ecx, OFFSET FLAT:?gWndColor@@3VCWndColorMgr@@A ; gWndColor
  00008	e8 00 00 00 00	 call	 ??1CWndColorMgr@@QAE@XZ	; CWndColorMgr::~CWndColorMgr
  0000d	5d		 pop	 ebp
  0000e	c3		 ret	 0
_$E6	ENDP
text$yd	ENDS
PUBLIC	?gWndColor@@3VCWndColorMgr@@A			; gWndColor
_BSS	SEGMENT
?gWndColor@@3VCWndColorMgr@@A DD 01H DUP (?)		; gWndColor
_BSS	ENDS
END
