; Listing generated by Microsoft (R) Optimizing Compiler Version 13.10.3077 

	TITLE	.\src\Gui\util\WToolTips.cpp
	.386P
include listing.inc
if @Version gt 510
.model FLAT
else
_TEXT	SEGMENT PARA USE32 PUBLIC 'CODE'
_TEXT	ENDS
_DATA	SEGMENT DWORD USE32 PUBLIC 'DATA'
_DATA	ENDS
CONST	SEGMENT DWORD USE32 PUBLIC 'CONST'
CONST	ENDS
_BSS	SEGMENT DWORD USE32 PUBLIC 'BSS'
_BSS	ENDS
$$SYMBOLS	SEGMENT BYTE USE32 'DEBSYM'
$$SYMBOLS	ENDS
$$TYPES	SEGMENT BYTE USE32 'DEBTYP'
$$TYPES	ENDS
_TLS	SEGMENT DWORD USE32 PUBLIC 'TLS'
_TLS	ENDS
rdata$r	SEGMENT DWORD USE32 PUBLIC 'CONST'
rdata$r	ENDS
xdata$x	SEGMENT DWORD USE32 PUBLIC 'CONST'
xdata$x	ENDS
text$AFX_COL1	SEGMENT PARA USE32 PUBLIC ''
text$AFX_COL1	ENDS
text$yc	SEGMENT PARA USE32 PUBLIC 'CODE'
text$yc	ENDS
CRT$XCA	SEGMENT DWORD USE32 PUBLIC 'DATA'
CRT$XCA	ENDS
CRT$XCU	SEGMENT DWORD USE32 PUBLIC 'DATA'
CRT$XCU	ENDS
CRT$XCL	SEGMENT DWORD USE32 PUBLIC 'DATA'
CRT$XCL	ENDS
CRT$XCC	SEGMENT DWORD USE32 PUBLIC 'DATA'
CRT$XCC	ENDS
CRT$XCZ	SEGMENT DWORD USE32 PUBLIC 'DATA'
CRT$XCZ	ENDS
text$yd	SEGMENT PARA USE32 PUBLIC 'CODE'
text$yd	ENDS
ATL$__m	SEGMENT DWORD USE32 PUBLIC ''
ATL$__m	ENDS
ATL$__z	SEGMENT DWORD USE32 PUBLIC ''
ATL$__z	ENDS
ATL$__a	SEGMENT DWORD USE32 PUBLIC ''
ATL$__a	ENDS
;	COMDAT ??_GCCWToolTips@@UAEPAXI@Z
_TEXT	SEGMENT PARA USE32 PUBLIC 'CODE'
_TEXT	ENDS
;	COMDAT ??B?$CComPtrBase@UITypeInfo2@@@ATL@@QBEPAUITypeInfo2@@XZ
_TEXT	SEGMENT PARA USE32 PUBLIC 'CODE'
_TEXT	ENDS
;	COMDAT ?equal@?$istreambuf_iterator@DU?$char_traits@D@std@@@std@@QBE_NABV12@@Z
_TEXT	SEGMENT PARA USE32 PUBLIC 'CODE'
_TEXT	ENDS
;	COMDAT ?equal@?$istreambuf_iterator@_WU?$char_traits@_W@std@@@std@@QBE_NABV12@@Z
_TEXT	SEGMENT PARA USE32 PUBLIC 'CODE'
_TEXT	ENDS
;	COMDAT ?StringFindString@?$ChTraitsCRT@D@ATL@@SAPBDPBD0@Z
_TEXT	SEGMENT PARA USE32 PUBLIC 'CODE'
_TEXT	ENDS
;	COMDAT ?Unlock@?$CComCritSecLock@VCComCriticalSection@ATL@@@ATL@@QAEXXZ
_TEXT	SEGMENT PARA USE32 PUBLIC 'CODE'
_TEXT	ENDS
;	COMDAT ??$_Maklocstr@D@std@@YAPADPBDPADABU_Cvtvec@@@Z
_TEXT	SEGMENT PARA USE32 PUBLIC 'CODE'
_TEXT	ENDS
;	COMDAT ??_R3CCWToolTips@@8
rdata$r	SEGMENT DWORD USE32 PUBLIC 'CONST'
rdata$r	ENDS
;	COMDAT ??_R3?$numpunct@_W@std@@8
rdata$r	SEGMENT DWORD USE32 PUBLIC 'CONST'
rdata$r	ENDS
;	COMDAT ??_R3?$numpunct@D@std@@8
rdata$r	SEGMENT DWORD USE32 PUBLIC 'CONST'
rdata$r	ENDS
;	COMDAT ??_R2CCWToolTips@@8
rdata$r	SEGMENT DWORD USE32 PUBLIC 'CONST'
rdata$r	ENDS
;	COMDAT ??_R2?$numpunct@_W@std@@8
rdata$r	SEGMENT DWORD USE32 PUBLIC 'CONST'
rdata$r	ENDS
;	COMDAT ??_R2?$numpunct@D@std@@8
rdata$r	SEGMENT DWORD USE32 PUBLIC 'CONST'
rdata$r	ENDS
;	COMDAT ??_R1A@?0A@A@CObject@@8
rdata$r	SEGMENT DWORD USE32 PUBLIC 'CONST'
rdata$r	ENDS
;	COMDAT ??_R0?AVCObject@@@8
_DATA	SEGMENT DWORD USE32 PUBLIC 'DATA'
_DATA	ENDS
;	COMDAT ??_R1A@?0A@A@CCmdTarget@@8
rdata$r	SEGMENT DWORD USE32 PUBLIC 'CONST'
rdata$r	ENDS
;	COMDAT ??_R0?AVCCmdTarget@@@8
_DATA	SEGMENT DWORD USE32 PUBLIC 'DATA'
_DATA	ENDS
;	COMDAT ??_R1A@?0A@A@CWnd@@8
rdata$r	SEGMENT DWORD USE32 PUBLIC 'CONST'
rdata$r	ENDS
;	COMDAT ??_R0?AVCWnd@@@8
_DATA	SEGMENT DWORD USE32 PUBLIC 'DATA'
_DATA	ENDS
;	COMDAT ??_R1A@?0A@A@CCWToolTips@@8
rdata$r	SEGMENT DWORD USE32 PUBLIC 'CONST'
rdata$r	ENDS
;	COMDAT ??_R1A@?0A@A@?$numpunct@_W@std@@8
rdata$r	SEGMENT DWORD USE32 PUBLIC 'CONST'
rdata$r	ENDS
;	COMDAT ??_R1A@?0A@A@facet@locale@std@@8
rdata$r	SEGMENT DWORD USE32 PUBLIC 'CONST'
rdata$r	ENDS
;	COMDAT ??_R0?AVfacet@locale@std@@@8
_DATA	SEGMENT DWORD USE32 PUBLIC 'DATA'
_DATA	ENDS
;	COMDAT ??_R1A@?0A@A@?$numpunct@D@std@@8
rdata$r	SEGMENT DWORD USE32 PUBLIC 'CONST'
rdata$r	ENDS
;	COMDAT ??_R0?AVCCWToolTips@@@8
_DATA	SEGMENT DWORD USE32 PUBLIC 'DATA'
_DATA	ENDS
;	COMDAT ??_R0?AV?$numpunct@_W@std@@@8
_DATA	SEGMENT DWORD USE32 PUBLIC 'DATA'
_DATA	ENDS
;	COMDAT ??_R0?AV?$numpunct@D@std@@@8
_DATA	SEGMENT DWORD USE32 PUBLIC 'DATA'
_DATA	ENDS
;	COMDAT ?EndModalState@CWnd@@UAEXXZ
_TEXT	SEGMENT PARA USE32 PUBLIC 'CODE'
_TEXT	ENDS
;	COMDAT ?BeginModalState@CWnd@@UAEXXZ
_TEXT	SEGMENT PARA USE32 PUBLIC 'CODE'
_TEXT	ENDS
;	COMDAT ?DoDataExchange@CWnd@@MAEXPAVCDataExchange@@@Z
_TEXT	SEGMENT PARA USE32 PUBLIC 'CODE'
_TEXT	ENDS
;	COMDAT ?Dump@CObject@@UBEXAAVCDumpContext@@@Z
_TEXT	SEGMENT PARA USE32 PUBLIC 'CODE'
_TEXT	ENDS
;	COMDAT ?AssertValid@CObject@@UBEXXZ
_TEXT	SEGMENT PARA USE32 PUBLIC 'CODE'
_TEXT	ENDS
;	COMDAT ?Serialize@CObject@@UAEXAAVCArchive@@@Z
_TEXT	SEGMENT PARA USE32 PUBLIC 'CODE'
_TEXT	ENDS
;	COMDAT ??_R4CCWToolTips@@6B@
rdata$r	SEGMENT DWORD USE32 PUBLIC 'CONST'
rdata$r	ENDS
;	COMDAT ??0?$allocator@_W@std@@QAE@XZ
_TEXT	SEGMENT PARA USE32 PUBLIC 'CODE'
_TEXT	ENDS
;	COMDAT ??0?$allocator@D@std@@QAE@ABV01@@Z
_TEXT	SEGMENT PARA USE32 PUBLIC 'CODE'
_TEXT	ENDS
;	COMDAT ??0?$allocator@D@std@@QAE@XZ
_TEXT	SEGMENT PARA USE32 PUBLIC 'CODE'
_TEXT	ENDS
;	COMDAT ?deallocate@?$allocator@D@std@@QAEXPADI@Z
_TEXT	SEGMENT PARA USE32 PUBLIC 'CODE'
_TEXT	ENDS
;	COMDAT ?max_size@?$allocator@D@std@@QBEIXZ
_TEXT	SEGMENT PARA USE32 PUBLIC 'CODE'
_TEXT	ENDS
;	COMDAT ?allocate@?$allocator@D@std@@QAEPADI@Z
_TEXT	SEGMENT PARA USE32 PUBLIC 'CODE'
_TEXT	ENDS
;	COMDAT ??$_Allocate@D@std@@YAPADIPAD@Z
_TEXT	SEGMENT PARA USE32 PUBLIC 'CODE'
_TEXT	ENDS
;	COMDAT ??_G?$numpunct@_W@std@@MAEPAXI@Z
_TEXT	SEGMENT PARA USE32 PUBLIC 'CODE'
_TEXT	ENDS
;	COMDAT ??_R4?$numpunct@_W@std@@6B@
rdata$r	SEGMENT DWORD USE32 PUBLIC 'CONST'
rdata$r	ENDS
;	COMDAT ??_G?$numpunct@D@std@@MAEPAXI@Z
_TEXT	SEGMENT PARA USE32 PUBLIC 'CODE'
_TEXT	ENDS
;	COMDAT ??_R4?$numpunct@D@std@@6B@
rdata$r	SEGMENT DWORD USE32 PUBLIC 'CONST'
rdata$r	ENDS
;	COMDAT ?_Psave@?$_Facetptr@V?$numpunct@_W@std@@@std@@2PBVfacet@locale@2@B
_DATA	SEGMENT DWORD USE32 PUBLIC 'DATA'
_DATA	ENDS
;	COMDAT ?_Psave@?$_Facetptr@V?$numpunct@D@std@@@std@@2PBVfacet@locale@2@B
_DATA	SEGMENT DWORD USE32 PUBLIC 'DATA'
_DATA	ENDS
;	COMDAT ?Unlock@CComCriticalSection@ATL@@QAEJXZ
_TEXT	SEGMENT PARA USE32 PUBLIC 'CODE'
_TEXT	ENDS
;	COMDAT ?_Psave@?$_Facetptr@V?$ctype@_W@std@@@std@@2PBVfacet@locale@2@B
_DATA	SEGMENT DWORD USE32 PUBLIC 'DATA'
_DATA	ENDS
;	COMDAT ?_Psave@?$_Facetptr@V?$ctype@D@std@@@std@@2PBVfacet@locale@2@B
_DATA	SEGMENT DWORD USE32 PUBLIC 'DATA'
_DATA	ENDS
;	COMDAT ??$_Maklocchr@_W@std@@YA_WDPA_WABU_Cvtvec@@@Z
_TEXT	SEGMENT PARA USE32 PUBLIC 'CODE'
_TEXT	ENDS
;	COMDAT ??$_Maklocstr@_W@std@@YAPA_WPBDPA_WABU_Cvtvec@@@Z
_TEXT	SEGMENT PARA USE32 PUBLIC 'CODE'
_TEXT	ENDS
;	COMDAT ??$_Maklocchr@D@std@@YADDPADABU_Cvtvec@@@Z
_TEXT	SEGMENT PARA USE32 PUBLIC 'CODE'
_TEXT	ENDS
;	COMDAT ??_C@_04LOAJBDKD@true?$AA@
CONST	SEGMENT DWORD USE32 PUBLIC 'CONST'
CONST	ENDS
;	COMDAT ??_C@_05LAPONLG@false?$AA@
CONST	SEGMENT DWORD USE32 PUBLIC 'CONST'
CONST	ENDS
;	COMDAT _wmemcpy
_TEXT	SEGMENT PARA USE32 PUBLIC 'CODE'
_TEXT	ENDS
;	COMDAT ?max_size@?$allocator@_W@std@@QBEIXZ
_TEXT	SEGMENT PARA USE32 PUBLIC 'CODE'
_TEXT	ENDS
;	COMDAT ?allocate@?$allocator@_W@std@@QAEPA_WI@Z
_TEXT	SEGMENT PARA USE32 PUBLIC 'CODE'
_TEXT	ENDS
;	COMDAT ??$_Allocate@_W@std@@YAPA_WIPA_W@Z
_TEXT	SEGMENT PARA USE32 PUBLIC 'CODE'
_TEXT	ENDS
;	COMDAT ?data@CStringData@ATL@@QAEPAXXZ
_TEXT	SEGMENT PARA USE32 PUBLIC 'CODE'
_TEXT	ENDS
;	COMDAT ?AtlThrow@ATL@@YGXJ@Z
_TEXT	SEGMENT PARA USE32 PUBLIC 'CODE'
_TEXT	ENDS
;	COMDAT ??_C@_01GFHCPBMG@C?$AA@
CONST	SEGMENT DWORD USE32 PUBLIC 'CONST'
CONST	ENDS
;	COMDAT ?Release@CStringData@ATL@@QAEXXZ
_TEXT	SEGMENT PARA USE32 PUBLIC 'CODE'
_TEXT	ENDS
;	COMDAT ?_Peek@?$istreambuf_iterator@_WU?$char_traits@_W@std@@@std@@AAE_WXZ
_TEXT	SEGMENT PARA USE32 PUBLIC 'CODE'
_TEXT	ENDS
;	COMDAT ?_Peek@?$istreambuf_iterator@DU?$char_traits@D@std@@@std@@AAEDXZ
_TEXT	SEGMENT PARA USE32 PUBLIC 'CODE'
_TEXT	ENDS
;	COMDAT ??$use_facet@V?$ctype@_W@std@@@std@@YAABV?$ctype@_W@0@ABVlocale@0@@Z
_TEXT	SEGMENT PARA USE32 PUBLIC 'CODE'
_TEXT	ENDS
;	COMDAT ??_S?$ctype@_W@std@@6B@
CONST	SEGMENT DWORD USE32 PUBLIC 'CONST'
CONST	ENDS
;	COMDAT ??_R4?$ctype@_W@std@@6B@
rdata$r	SEGMENT DWORD USE32 PUBLIC 'CONST'
rdata$r	ENDS
;	COMDAT ??_R0?AV?$ctype@_W@std@@@8
_DATA	SEGMENT DWORD USE32 PUBLIC 'DATA'
_DATA	ENDS
;	COMDAT ??_R3?$ctype@_W@std@@8
rdata$r	SEGMENT DWORD USE32 PUBLIC 'CONST'
rdata$r	ENDS
;	COMDAT ??_R2?$ctype@_W@std@@8
rdata$r	SEGMENT DWORD USE32 PUBLIC 'CONST'
rdata$r	ENDS
;	COMDAT ??_R1A@?0A@A@?$ctype@_W@std@@8
rdata$r	SEGMENT DWORD USE32 PUBLIC 'CONST'
rdata$r	ENDS
;	COMDAT ??_R1A@?0A@A@ctype_base@std@@8
rdata$r	SEGMENT DWORD USE32 PUBLIC 'CONST'
rdata$r	ENDS
;	COMDAT ??_R0?AUctype_base@std@@@8
_DATA	SEGMENT DWORD USE32 PUBLIC 'DATA'
_DATA	ENDS
;	COMDAT ??_G?$ctype@_W@std@@MAEPAXI@Z
_TEXT	SEGMENT PARA USE32 PUBLIC 'CODE'
_TEXT	ENDS
;	COMDAT ??_C@_08EPJLHIJG@bad?5cast?$AA@
CONST	SEGMENT DWORD USE32 PUBLIC 'CONST'
CONST	ENDS
;	COMDAT __TI2?AVbad_cast@@
xdata$x	SEGMENT DWORD USE32 PUBLIC 'CONST'
xdata$x	ENDS
;	COMDAT __CTA2?AVbad_cast@@
xdata$x	SEGMENT DWORD USE32 PUBLIC 'CONST'
xdata$x	ENDS
;	COMDAT __CT??_R0?AVbad_cast@@@8??0bad_cast@@QAE@ABV0@@Z12
xdata$x	SEGMENT DWORD USE32 PUBLIC 'CONST'
xdata$x	ENDS
;	COMDAT ??_R0?AVbad_cast@@@8
_DATA	SEGMENT DWORD USE32 PUBLIC 'DATA'
_DATA	ENDS
;	COMDAT __CT??_R0?AVexception@@@8??0exception@@QAE@ABV0@@Z12
xdata$x	SEGMENT DWORD USE32 PUBLIC 'CONST'
xdata$x	ENDS
;	COMDAT ??_R0?AVexception@@@8
_DATA	SEGMENT DWORD USE32 PUBLIC 'DATA'
_DATA	ENDS
;	COMDAT ??$use_facet@V?$ctype@D@std@@@std@@YAABV?$ctype@D@0@ABVlocale@0@@Z
_TEXT	SEGMENT PARA USE32 PUBLIC 'CODE'
_TEXT	ENDS
;	COMDAT ??_S?$ctype@D@std@@6B@
CONST	SEGMENT DWORD USE32 PUBLIC 'CONST'
CONST	ENDS
;	COMDAT ??_R4?$ctype@D@std@@6B@
rdata$r	SEGMENT DWORD USE32 PUBLIC 'CONST'
rdata$r	ENDS
;	COMDAT ??_R0?AV?$ctype@D@std@@@8
_DATA	SEGMENT DWORD USE32 PUBLIC 'DATA'
_DATA	ENDS
;	COMDAT ??_R3?$ctype@D@std@@8
rdata$r	SEGMENT DWORD USE32 PUBLIC 'CONST'
rdata$r	ENDS
;	COMDAT ??_R2?$ctype@D@std@@8
rdata$r	SEGMENT DWORD USE32 PUBLIC 'CONST'
rdata$r	ENDS
;	COMDAT ??_R1A@?0A@A@?$ctype@D@std@@8
rdata$r	SEGMENT DWORD USE32 PUBLIC 'CONST'
rdata$r	ENDS
;	COMDAT ??_G?$ctype@D@std@@MAEPAXI@Z
_TEXT	SEGMENT PARA USE32 PUBLIC 'CODE'
_TEXT	ENDS
;	COMDAT ??_S?$numpunct@_W@std@@6B@
CONST	SEGMENT DWORD USE32 PUBLIC 'CONST'
CONST	ENDS
;	COMDAT ??_S?$numpunct@D@std@@6B@
CONST	SEGMENT DWORD USE32 PUBLIC 'CONST'
CONST	ENDS
;	COMDAT _wmemmove
_TEXT	SEGMENT PARA USE32 PUBLIC 'CODE'
_TEXT	ENDS
;	COMDAT ?deallocate@?$allocator@_W@std@@QAEXPA_WI@Z
_TEXT	SEGMENT PARA USE32 PUBLIC 'CODE'
_TEXT	ENDS
;	COMDAT ??0?$allocator@_W@std@@QAE@ABV01@@Z
_TEXT	SEGMENT PARA USE32 PUBLIC 'CODE'
_TEXT	ENDS
;	COMDAT ?ReleaseDC@CWnd@@QAEHPAVCDC@@@Z
_TEXT	SEGMENT PARA USE32 PUBLIC 'CODE'
_TEXT	ENDS
;	COMDAT ?BottomRight@CRect@@QAEAAVCPoint@@XZ
_TEXT	SEGMENT PARA USE32 PUBLIC 'CODE'
_TEXT	ENDS
;	COMDAT ?TopLeft@CRect@@QAEAAVCPoint@@XZ
_TEXT	SEGMENT PARA USE32 PUBLIC 'CODE'
_TEXT	ENDS
;	COMDAT ??1CPen@@UAE@XZ
_TEXT	SEGMENT PARA USE32 PUBLIC 'CODE'
_TEXT	ENDS
;	COMDAT ??_7CPen@@6B@
CONST	SEGMENT DWORD USE32 PUBLIC 'CONST'
CONST	ENDS
;	COMDAT ??_R4CPen@@6B@
rdata$r	SEGMENT DWORD USE32 PUBLIC 'CONST'
rdata$r	ENDS
;	COMDAT ??_R0?AVCPen@@@8
_DATA	SEGMENT DWORD USE32 PUBLIC 'DATA'
_DATA	ENDS
;	COMDAT ??_R3CPen@@8
rdata$r	SEGMENT DWORD USE32 PUBLIC 'CONST'
rdata$r	ENDS
;	COMDAT ??_R2CPen@@8
rdata$r	SEGMENT DWORD USE32 PUBLIC 'CONST'
rdata$r	ENDS
;	COMDAT ??_R1A@?0A@A@CPen@@8
rdata$r	SEGMENT DWORD USE32 PUBLIC 'CONST'
rdata$r	ENDS
;	COMDAT ??_R1A@?0A@A@CGdiObject@@8
rdata$r	SEGMENT DWORD USE32 PUBLIC 'CONST'
rdata$r	ENDS
;	COMDAT ??_R0?AVCGdiObject@@@8
_DATA	SEGMENT DWORD USE32 PUBLIC 'DATA'
_DATA	ENDS
;	COMDAT ??_GCPen@@UAEPAXI@Z
_TEXT	SEGMENT PARA USE32 PUBLIC 'CODE'
_TEXT	ENDS
;	COMDAT ??1CGdiObject@@UAE@XZ
_TEXT	SEGMENT PARA USE32 PUBLIC 'CODE'
_TEXT	ENDS
;	COMDAT ??_7CGdiObject@@6B@
CONST	SEGMENT DWORD USE32 PUBLIC 'CONST'
CONST	ENDS
;	COMDAT ??_R4CGdiObject@@6B@
rdata$r	SEGMENT DWORD USE32 PUBLIC 'CONST'
rdata$r	ENDS
;	COMDAT ??_R3CGdiObject@@8
rdata$r	SEGMENT DWORD USE32 PUBLIC 'CONST'
rdata$r	ENDS
;	COMDAT ??_R2CGdiObject@@8
rdata$r	SEGMENT DWORD USE32 PUBLIC 'CONST'
rdata$r	ENDS
;	COMDAT ??_GCGdiObject@@UAEPAXI@Z
_TEXT	SEGMENT PARA USE32 PUBLIC 'CODE'
_TEXT	ENDS
;	COMDAT ??1CObject@@UAE@XZ
_TEXT	SEGMENT PARA USE32 PUBLIC 'CODE'
_TEXT	ENDS
;	COMDAT ?GetWindowDC@CWnd@@QAEPAVCDC@@XZ
_TEXT	SEGMENT PARA USE32 PUBLIC 'CODE'
_TEXT	ENDS
;	COMDAT ?OffsetRect@CRect@@QAEXHH@Z
_TEXT	SEGMENT PARA USE32 PUBLIC 'CODE'
_TEXT	ENDS
;	COMDAT ?GetWindowRect@CWnd@@QBEXPAUtagRECT@@@Z
_TEXT	SEGMENT PARA USE32 PUBLIC 'CODE'
_TEXT	ENDS
;	COMDAT ?OnTimer@CWnd@@IAEXI@Z
_TEXT	SEGMENT PARA USE32 PUBLIC 'CODE'
_TEXT	ENDS
;	COMDAT ?Invalidate@CWnd@@QAEXH@Z
_TEXT	SEGMENT PARA USE32 PUBLIC 'CODE'
_TEXT	ENDS
;	COMDAT ?GetParent@CWnd@@QBEPAV1@XZ
_TEXT	SEGMENT PARA USE32 PUBLIC 'CODE'
_TEXT	ENDS
;	COMDAT ??0CRect@@QAE@UtagPOINT@@0@Z
_TEXT	SEGMENT PARA USE32 PUBLIC 'CODE'
_TEXT	ENDS
;	COMDAT ?PtInRect@CRect@@QBEHUtagPOINT@@@Z
_TEXT	SEGMENT PARA USE32 PUBLIC 'CODE'
_TEXT	ENDS
;	COMDAT ??8CPoint@@QBEHUtagPOINT@@@Z
_TEXT	SEGMENT PARA USE32 PUBLIC 'CODE'
_TEXT	ENDS
;	COMDAT ??8CRect@@QBEHABUtagRECT@@@Z
_TEXT	SEGMENT PARA USE32 PUBLIC 'CODE'
_TEXT	ENDS
;	COMDAT ?ClientToScreen@CWnd@@QBEXPAUtagPOINT@@@Z
_TEXT	SEGMENT PARA USE32 PUBLIC 'CODE'
_TEXT	ENDS
;	COMDAT ?Height@CRect@@QBEHXZ
_TEXT	SEGMENT PARA USE32 PUBLIC 'CODE'
_TEXT	ENDS
;	COMDAT ?KillTimer@CWnd@@QAEHI@Z
_TEXT	SEGMENT PARA USE32 PUBLIC 'CODE'
_TEXT	ENDS
;	COMDAT ?SetTimer@CWnd@@QAEIIIP6GXPAUHWND__@@IIK@Z@Z
_TEXT	SEGMENT PARA USE32 PUBLIC 'CODE'
_TEXT	ENDS
;	COMDAT ?IsLocked@CStringData@ATL@@QBE_NXZ
_TEXT	SEGMENT PARA USE32 PUBLIC 'CODE'
_TEXT	ENDS
;	COMDAT ?IsShared@CStringData@ATL@@QBE_NXZ
_TEXT	SEGMENT PARA USE32 PUBLIC 'CODE'
_TEXT	ENDS
;	COMDAT ?DrawTextA@CDC@@QAEHABV?$CStringT@DV?$StrTraitMFC_DLL@DV?$ChTraitsCRT@D@ATL@@@@@ATL@@PAUtagRECT@@I@Z
_TEXT	SEGMENT PARA USE32 PUBLIC 'CODE'
_TEXT	ENDS
;	COMDAT ?Width@CRect@@QBEHXZ
_TEXT	SEGMENT PARA USE32 PUBLIC 'CODE'
_TEXT	ENDS
;	COMDAT ?GetDefaultManager@?$StrTraitMFC_DLL@DV?$ChTraitsCRT@D@ATL@@@@SAPAUIAtlStringMgr@ATL@@XZ
_TEXT	SEGMENT PARA USE32 PUBLIC 'CODE'
_TEXT	ENDS
;	COMDAT ?FindStringResourceInstance@?$StrTraitMFC_DLL@DV?$ChTraitsCRT@D@ATL@@@@SAPAUHINSTANCE__@@I@Z
_TEXT	SEGMENT PARA USE32 PUBLIC 'CODE'
_TEXT	ENDS
;	COMDAT ?AtlGetStringResourceImage@ATL@@YAPBUATLSTRINGRESOURCEIMAGE@1@PAUHINSTANCE__@@I@Z
_TEXT	SEGMENT PARA USE32 PUBLIC 'CODE'
_TEXT	ENDS
;	COMDAT ?_AtlGetStringResourceImage@ATL@@YAPBUATLSTRINGRESOURCEIMAGE@1@PAUHINSTANCE__@@PAUHRSRC__@@I@Z
_TEXT	SEGMENT PARA USE32 PUBLIC 'CODE'
_TEXT	ENDS
;	COMDAT ?GetBaseTypeLength@?$ChTraitsCRT@D@ATL@@SAHPB_WH@Z
_TEXT	SEGMENT PARA USE32 PUBLIC 'CODE'
_TEXT	ENDS
;	COMDAT ?_AtlGetConversionACP@ATL@@YGIXZ
_TEXT	SEGMENT PARA USE32 PUBLIC 'CODE'
_TEXT	ENDS
;	COMDAT ?g_pfnGetThreadACP@ATL@@3P6GIXZA
_DATA	SEGMENT DWORD USE32 PUBLIC 'DATA'
_DATA	ENDS
;	COMDAT ?_AtlGetThreadACPThunk@ATL@@YGIXZ
_TEXT	SEGMENT PARA USE32 PUBLIC 'CODE'
_TEXT	ENDS
;	COMDAT ?_AtlGetThreadACPReal@ATL@@YGIXZ
_TEXT	SEGMENT PARA USE32 PUBLIC 'CODE'
_TEXT	ENDS
;	COMDAT ?_AtlGetThreadACPFake@ATL@@YGIXZ
_TEXT	SEGMENT PARA USE32 PUBLIC 'CODE'
_TEXT	ENDS
;	COMDAT ?InterlockedExchangePointer@@YGPAXPAPAXPAX@Z
_TEXT	SEGMENT PARA USE32 PUBLIC 'CODE'
_TEXT	ENDS
;	COMDAT ?ConvertToBaseType@?$ChTraitsCRT@D@ATL@@SAXPADHPB_WH@Z
_TEXT	SEGMENT PARA USE32 PUBLIC 'CODE'
_TEXT	ENDS
;	COMDAT ?GetTextExtent@CDC@@QBE?AVCSize@@ABV?$CStringT@DV?$StrTraitMFC_DLL@DV?$ChTraitsCRT@D@ATL@@@@@ATL@@@Z
_TEXT	SEGMENT PARA USE32 PUBLIC 'CODE'
_TEXT	ENDS
;	COMDAT ??0CSize@@QAE@UtagSIZE@@@Z
_TEXT	SEGMENT PARA USE32 PUBLIC 'CODE'
_TEXT	ENDS
;	COMDAT ?AddRef@CStringData@ATL@@QAEXXZ
_TEXT	SEGMENT PARA USE32 PUBLIC 'CODE'
_TEXT	ENDS
;	COMDAT ??0CRect@@QAE@HHHH@Z
_TEXT	SEGMENT PARA USE32 PUBLIC 'CODE'
_TEXT	ENDS
;	COMDAT ?FillRect@CDC@@QAEXPBUtagRECT@@PAVCBrush@@@Z
_TEXT	SEGMENT PARA USE32 PUBLIC 'CODE'
_TEXT	ENDS
;	COMDAT ?GetSafeHandle@CGdiObject@@QBEPAXXZ
_TEXT	SEGMENT PARA USE32 PUBLIC 'CODE'
_TEXT	ENDS
;	COMDAT ??1CBrush@@UAE@XZ
_TEXT	SEGMENT PARA USE32 PUBLIC 'CODE'
_TEXT	ENDS
;	COMDAT ??_7CBrush@@6B@
CONST	SEGMENT DWORD USE32 PUBLIC 'CONST'
CONST	ENDS
;	COMDAT ??_R4CBrush@@6B@
rdata$r	SEGMENT DWORD USE32 PUBLIC 'CONST'
rdata$r	ENDS
;	COMDAT ??_R0?AVCBrush@@@8
_DATA	SEGMENT DWORD USE32 PUBLIC 'DATA'
_DATA	ENDS
;	COMDAT ??_R3CBrush@@8
rdata$r	SEGMENT DWORD USE32 PUBLIC 'CONST'
rdata$r	ENDS
;	COMDAT ??_R2CBrush@@8
rdata$r	SEGMENT DWORD USE32 PUBLIC 'CONST'
rdata$r	ENDS
;	COMDAT ??_R1A@?0A@A@CBrush@@8
rdata$r	SEGMENT DWORD USE32 PUBLIC 'CONST'
rdata$r	ENDS
;	COMDAT ??_GCBrush@@UAEPAXI@Z
_TEXT	SEGMENT PARA USE32 PUBLIC 'CODE'
_TEXT	ENDS
;	COMDAT ??BCRect@@QAEPAUtagRECT@@XZ
_TEXT	SEGMENT PARA USE32 PUBLIC 'CODE'
_TEXT	ENDS
;	COMDAT ?GetClientRect@CWnd@@QBEXPAUtagRECT@@@Z
_TEXT	SEGMENT PARA USE32 PUBLIC 'CODE'
_TEXT	ENDS
;	COMDAT ??1CFont@@UAE@XZ
_TEXT	SEGMENT PARA USE32 PUBLIC 'CODE'
_TEXT	ENDS
;	COMDAT ??_7CFont@@6B@
CONST	SEGMENT DWORD USE32 PUBLIC 'CONST'
CONST	ENDS
;	COMDAT ??_R4CFont@@6B@
rdata$r	SEGMENT DWORD USE32 PUBLIC 'CONST'
rdata$r	ENDS
;	COMDAT ??_R0?AVCFont@@@8
_DATA	SEGMENT DWORD USE32 PUBLIC 'DATA'
_DATA	ENDS
;	COMDAT ??_R3CFont@@8
rdata$r	SEGMENT DWORD USE32 PUBLIC 'CONST'
rdata$r	ENDS
;	COMDAT ??_R2CFont@@8
rdata$r	SEGMENT DWORD USE32 PUBLIC 'CONST'
rdata$r	ENDS
;	COMDAT ??_R1A@?0A@A@CFont@@8
rdata$r	SEGMENT DWORD USE32 PUBLIC 'CONST'
rdata$r	ENDS
;	COMDAT ??_GCFont@@UAEPAXI@Z
_TEXT	SEGMENT PARA USE32 PUBLIC 'CODE'
_TEXT	ENDS
;	COMDAT ??0CFont@@QAE@XZ
_TEXT	SEGMENT PARA USE32 PUBLIC 'CODE'
_TEXT	ENDS
;	COMDAT ??0CGdiObject@@QAE@XZ
_TEXT	SEGMENT PARA USE32 PUBLIC 'CODE'
_TEXT	ENDS
;	COMDAT ??0CObject@@IAE@XZ
_TEXT	SEGMENT PARA USE32 PUBLIC 'CODE'
_TEXT	ENDS
;	COMDAT ?_messageEntries@CCWToolTips@@0QBUAFX_MSGMAP_ENTRY@@B
CONST	SEGMENT DWORD USE32 PUBLIC 'CONST'
CONST	ENDS
;	COMDAT ?messageMap@CCWToolTips@@1UAFX_MSGMAP@@B
CONST	SEGMENT DWORD USE32 PUBLIC 'CONST'
CONST	ENDS
;	COMDAT ??3CObject@@SGXPAX@Z
_TEXT	SEGMENT PARA USE32 PUBLIC 'CODE'
_TEXT	ENDS
;	COMDAT ??0CPoint@@QAE@HH@Z
_TEXT	SEGMENT PARA USE32 PUBLIC 'CODE'
_TEXT	ENDS
;	COMDAT ??0CRect@@QAE@XZ
_TEXT	SEGMENT PARA USE32 PUBLIC 'CODE'
_TEXT	ENDS
;	COMDAT ??0CPoint@@QAE@XZ
_TEXT	SEGMENT PARA USE32 PUBLIC 'CODE'
_TEXT	ENDS
;	COMDAT ??_7CCWToolTips@@6B@
CONST	SEGMENT DWORD USE32 PUBLIC 'CONST'
CONST	ENDS
;	COMDAT ?classCCWToolTips@CCWToolTips@@2UCRuntimeClass@@B
CONST	SEGMENT DWORD USE32 PUBLIC 'CONST'
CONST	ENDS
sxdata	SEGMENT DWORD USE32 'SXDATA'
sxdata	ENDS
FLAT	GROUP _DATA, CONST, _BSS
	ASSUME	CS: FLAT, DS: FLAT, SS: FLAT
endif

INCLUDELIB MSVCRT
INCLUDELIB OLDNAMES

PUBLIC	?g_pfnGetThreadACP@ATL@@3P6GIXZA		; ATL::g_pfnGetThreadACP
PUBLIC	?_AtlGetThreadACPThunk@ATL@@YGIXZ		; ATL::_AtlGetThreadACPThunk
PUBLIC	?classCCWToolTips@CCWToolTips@@2UCRuntimeClass@@B ; CCWToolTips::classCCWToolTips
PUBLIC	?_messageEntries@CCWToolTips@@0QBUAFX_MSGMAP_ENTRY@@B ; CCWToolTips::_messageEntries
PUBLIC	?messageMap@CCWToolTips@@1UAFX_MSGMAP@@B	; CCWToolTips::messageMap
PUBLIC	?OnPaint@CCWToolTips@@QAEXXZ			; CCWToolTips::OnPaint
PUBLIC	?OnTimer@CCWToolTips@@QAEXI@Z			; CCWToolTips::OnTimer
PUBLIC	?OnNcPaint@CCWToolTips@@QAEXXZ			; CCWToolTips::OnNcPaint
EXTRN	?GetThisMessageMap@CWnd@@KGPBUAFX_MSGMAP@@XZ:NEAR ; CWnd::GetThisMessageMap
EXTRN	?GetThisClass@CWnd@@SGPAUCRuntimeClass@@XZ:NEAR	; CWnd::GetThisClass
CONST	SEGMENT
$SG197423 DB	'CCWToolTips', 00H
CONST	ENDS
;	COMDAT ?classCCWToolTips@CCWToolTips@@2UCRuntimeClass@@B
CONST	SEGMENT
?classCCWToolTips@CCWToolTips@@2UCRuntimeClass@@B DD FLAT:$SG197423 ; CCWToolTips::classCCWToolTips
	DD	090H
	DD	0ffffH
	DD	00H
	DD	FLAT:?GetThisClass@CWnd@@SGPAUCRuntimeClass@@XZ
	DD	00H
	DD	00H
CONST	ENDS
;	COMDAT ?_messageEntries@CCWToolTips@@0QBUAFX_MSGMAP_ENTRY@@B
CONST	SEGMENT
?_messageEntries@CCWToolTips@@0QBUAFX_MSGMAP_ENTRY@@B DD 0fH ; CCWToolTips::_messageEntries
	DD	00H
	DD	00H
	DD	00H
	DD	010H
	DD	FLAT:?OnPaint@CCWToolTips@@QAEXXZ
	DD	0113H
	DD	00H
	DD	00H
	DD	00H
	DD	011H
	DD	FLAT:?OnTimer@CCWToolTips@@QAEXI@Z
	DD	085H
	DD	00H
	DD	00H
	DD	00H
	DD	010H
	DD	FLAT:?OnNcPaint@CCWToolTips@@QAEXXZ
	DD	00H
	DD	00H
	DD	00H
	DD	00H
	DD	00H
	DD	00H
CONST	ENDS
;	COMDAT ?messageMap@CCWToolTips@@1UAFX_MSGMAP@@B
CONST	SEGMENT
?messageMap@CCWToolTips@@1UAFX_MSGMAP@@B DD FLAT:?GetThisMessageMap@CWnd@@KGPBUAFX_MSGMAP@@XZ ; CCWToolTips::messageMap
	DD	FLAT:?_messageEntries@CCWToolTips@@0QBUAFX_MSGMAP_ENTRY@@B
CONST	ENDS
CONST	SEGMENT
$SG197488 DB	'TooltipTextColor', 00H
	ORG $+3
$SG197489 DB	'TooltipBorderColor', 00H
	ORG $+1
$SG197490 DB	'TooltipBKColor', 00H
	ORG $+1
$SG197493 DB	0cbH, 0ceH, 0ccH, 0e5H, 00H
	ORG $+3
$SG197504 DB	'$#', 00H
	ORG $+1
$SG197523 DB	'a', 00H
$SG197544 DB	00H
	ORG $+1
$SG197591 DB	0cbH, 0ceH, 0ccH, 0e5H, 00H
	ORG $+3
$SG197600 DB	'$#', 00H
	ORG $+1
$SG197634 DB	'TooltipBorderColor', 00H
CONST	ENDS
;	COMDAT ?g_pfnGetThreadACP@ATL@@3P6GIXZA
_DATA	SEGMENT
?g_pfnGetThreadACP@ATL@@3P6GIXZA DD FLAT:?_AtlGetThreadACPThunk@ATL@@YGIXZ ; ATL::g_pfnGetThreadACP
_DATA	ENDS
PUBLIC	?GetThisClass@CCWToolTips@@SGPAUCRuntimeClass@@XZ ; CCWToolTips::GetThisClass
; Function compile flags: /Odt
; File d:\boxgit\playbox\playbox\dev\prj\playbox\src\gui\util\wtooltips.cpp
_TEXT	SEGMENT
?GetThisClass@CCWToolTips@@SGPAUCRuntimeClass@@XZ PROC NEAR ; CCWToolTips::GetThisClass

; 6    : IMPLEMENT_DYNAMIC(CCWToolTips, CWnd)

  00000	55		 push	 ebp
  00001	8b ec		 mov	 ebp, esp
  00003	b8 00 00 00 00	 mov	 eax, OFFSET FLAT:?classCCWToolTips@CCWToolTips@@2UCRuntimeClass@@B ; CCWToolTips::classCCWToolTips
  00008	5d		 pop	 ebp
  00009	c3		 ret	 0
?GetThisClass@CCWToolTips@@SGPAUCRuntimeClass@@XZ ENDP	; CCWToolTips::GetThisClass
_TEXT	ENDS
PUBLIC	?GetRuntimeClass@CCWToolTips@@UBEPAUCRuntimeClass@@XZ ; CCWToolTips::GetRuntimeClass
; Function compile flags: /Odt
_TEXT	SEGMENT
_this$ = -4						; size = 4
?GetRuntimeClass@CCWToolTips@@UBEPAUCRuntimeClass@@XZ PROC NEAR ; CCWToolTips::GetRuntimeClass
; _this$ = ecx

; 6    : IMPLEMENT_DYNAMIC(CCWToolTips, CWnd)

  00010	55		 push	 ebp
  00011	8b ec		 mov	 ebp, esp
  00013	51		 push	 ecx
  00014	89 4d fc	 mov	 DWORD PTR _this$[ebp], ecx
  00017	b8 00 00 00 00	 mov	 eax, OFFSET FLAT:?classCCWToolTips@CCWToolTips@@2UCRuntimeClass@@B ; CCWToolTips::classCCWToolTips
  0001c	8b e5		 mov	 esp, ebp
  0001e	5d		 pop	 ebp
  0001f	c3		 ret	 0
?GetRuntimeClass@CCWToolTips@@UBEPAUCRuntimeClass@@XZ ENDP ; CCWToolTips::GetRuntimeClass
_TEXT	ENDS
PUBLIC	??0CPoint@@QAE@XZ				; CPoint::CPoint
PUBLIC	??0CPoint@@QAE@HH@Z				; CPoint::CPoint
PUBLIC	??0CRect@@QAE@XZ				; CRect::CRect
PUBLIC	??_R4CCWToolTips@@6B@				; CCWToolTips::`RTTI Complete Object Locator'
PUBLIC	??_R0?AVCCWToolTips@@@8				; CCWToolTips `RTTI Type Descriptor'
PUBLIC	??_R3CCWToolTips@@8				; CCWToolTips::`RTTI Class Hierarchy Descriptor'
PUBLIC	??_R2CCWToolTips@@8				; CCWToolTips::`RTTI Base Class Array'
PUBLIC	??_R1A@?0A@A@CCWToolTips@@8			; CCWToolTips::`RTTI Base Class Descriptor at (0,-1,0,0)'
PUBLIC	??_R1A@?0A@A@CObject@@8				; CObject::`RTTI Base Class Descriptor at (0,-1,0,0)'
PUBLIC	??_R0?AVCObject@@@8				; CObject `RTTI Type Descriptor'
PUBLIC	??_R1A@?0A@A@CWnd@@8				; CWnd::`RTTI Base Class Descriptor at (0,-1,0,0)'
PUBLIC	??_R0?AVCWnd@@@8				; CWnd `RTTI Type Descriptor'
PUBLIC	??_R1A@?0A@A@CCmdTarget@@8			; CCmdTarget::`RTTI Base Class Descriptor at (0,-1,0,0)'
PUBLIC	??_R0?AVCCmdTarget@@@8				; CCmdTarget `RTTI Type Descriptor'
PUBLIC	?Serialize@CObject@@UAEXAAVCArchive@@@Z		; CObject::Serialize
PUBLIC	?AssertValid@CObject@@UBEXXZ			; CObject::AssertValid
PUBLIC	?Dump@CObject@@UBEXAAVCDumpContext@@@Z		; CObject::Dump
PUBLIC	??0CCWToolTips@@QAE@XZ				; CCWToolTips::CCWToolTips
PUBLIC	?PreTranslateMessage@CCWToolTips@@UAEHPAUtagMSG@@@Z ; CCWToolTips::PreTranslateMessage
PUBLIC	?GetMessageMap@CCWToolTips@@MBEPBUAFX_MSGMAP@@XZ ; CCWToolTips::GetMessageMap
PUBLIC	??_7CCWToolTips@@6B@				; CCWToolTips::`vftable'
PUBLIC	??_GCCWToolTips@@UAEPAXI@Z			; CCWToolTips::`scalar deleting destructor'
PUBLIC	?DoDataExchange@CWnd@@MAEXPAVCDataExchange@@@Z	; CWnd::DoDataExchange
PUBLIC	?BeginModalState@CWnd@@UAEXXZ			; CWnd::BeginModalState
PUBLIC	?EndModalState@CWnd@@UAEXXZ			; CWnd::EndModalState
EXTRN	?CreateControlContainer@CWnd@@MAEHPAPAVCOleControlContainer@@@Z:NEAR ; CWnd::CreateControlContainer
EXTRN	?CreateControlSite@CWnd@@MAEHPAVCOleControlContainer@@PAPAVCOleControlSite@@IABU_GUID@@@Z:NEAR ; CWnd::CreateControlSite
EXTRN	?SetOccDialogInfo@CWnd@@MAEHPAU_AFX_OCC_DIALOG_INFO@@@Z:NEAR ; CWnd::SetOccDialogInfo
EXTRN	?OnToolHitTest@CWnd@@UBEHVCPoint@@PAUtagTOOLINFOA@@@Z:NEAR ; CWnd::OnToolHitTest
EXTRN	__imp_??0?$CStringT@DV?$StrTraitMFC_DLL@DV?$ChTraitsCRT@D@ATL@@@@@ATL@@QAE@XZ:NEAR
EXTRN	?GetScrollBarCtrl@CWnd@@UBEPAVCScrollBar@@H@Z:NEAR ; CWnd::GetScrollBarCtrl
EXTRN	?WinHelpA@CWnd@@UAEXKI@Z:NEAR			; CWnd::WinHelpA
EXTRN	?HtmlHelpA@CWnd@@UAEXKI@Z:NEAR			; CWnd::HtmlHelpA
EXTRN	?WinHelpInternal@CWnd@@UAEXKI@Z:NEAR		; CWnd::WinHelpInternal
EXTRN	?ContinueModal@CWnd@@UAEHXZ:NEAR		; CWnd::ContinueModal
EXTRN	?EndModalLoop@CWnd@@UAEXH@Z:NEAR		; CWnd::EndModalLoop
EXTRN	?GetInterfaceMap@CWnd@@MBEPBUAFX_INTERFACEMAP@@XZ:NEAR ; CWnd::GetInterfaceMap
EXTRN	?EnsureStdObj@CWnd@@UAEJXZ:NEAR			; CWnd::EnsureStdObj
EXTRN	?get_accParent@CWnd@@UAEJPAPAUIDispatch@@@Z:NEAR ; CWnd::get_accParent
EXTRN	?get_accChildCount@CWnd@@UAEJPAJ@Z:NEAR		; CWnd::get_accChildCount
EXTRN	?OnCmdMsg@CCmdTarget@@UAEHIHPAXPAUAFX_CMDHANDLERINFO@@@Z:NEAR ; CCmdTarget::OnCmdMsg
EXTRN	?get_accChild@CWnd@@UAEJUtagVARIANT@@PAPAUIDispatch@@@Z:NEAR ; CWnd::get_accChild
EXTRN	?IsInvokeAllowed@CCmdTarget@@UAEHJ@Z:NEAR	; CCmdTarget::IsInvokeAllowed
EXTRN	?get_accName@CWnd@@UAEJUtagVARIANT@@PAPA_W@Z:NEAR ; CWnd::get_accName
EXTRN	?get_accValue@CWnd@@UAEJUtagVARIANT@@PAPA_W@Z:NEAR ; CWnd::get_accValue
EXTRN	?get_accDescription@CWnd@@UAEJUtagVARIANT@@PAPA_W@Z:NEAR ; CWnd::get_accDescription
EXTRN	?GetDispatchIID@CCmdTarget@@UAEHPAU_GUID@@@Z:NEAR ; CCmdTarget::GetDispatchIID
EXTRN	?GetTypeInfoCount@CCmdTarget@@UAEIXZ:NEAR	; CCmdTarget::GetTypeInfoCount
EXTRN	?GetTypeLibCache@CCmdTarget@@UAEPAVCTypeLibCache@@XZ:NEAR ; CCmdTarget::GetTypeLibCache
EXTRN	?get_accRole@CWnd@@UAEJUtagVARIANT@@PAU2@@Z:NEAR ; CWnd::get_accRole
EXTRN	?GetTypeLib@CCmdTarget@@UAEJKPAPAUITypeLib@@@Z:NEAR ; CCmdTarget::GetTypeLib
EXTRN	?get_accState@CWnd@@UAEJUtagVARIANT@@PAU2@@Z:NEAR ; CWnd::get_accState
EXTRN	?get_accHelp@CWnd@@UAEJUtagVARIANT@@PAPA_W@Z:NEAR ; CWnd::get_accHelp
EXTRN	?get_accHelpTopic@CWnd@@UAEJPAPA_WUtagVARIANT@@PAJ@Z:NEAR ; CWnd::get_accHelpTopic
EXTRN	?get_accKeyboardShortcut@CWnd@@UAEJUtagVARIANT@@PAPA_W@Z:NEAR ; CWnd::get_accKeyboardShortcut
EXTRN	?get_accFocus@CWnd@@UAEJPAUtagVARIANT@@@Z:NEAR	; CWnd::get_accFocus
EXTRN	?get_accSelection@CWnd@@UAEJPAUtagVARIANT@@@Z:NEAR ; CWnd::get_accSelection
EXTRN	?get_accDefaultAction@CWnd@@UAEJUtagVARIANT@@PAPA_W@Z:NEAR ; CWnd::get_accDefaultAction
EXTRN	?GetCommandMap@CCmdTarget@@MBEPBUAFX_OLECMDMAP@@XZ:NEAR ; CCmdTarget::GetCommandMap
EXTRN	?accSelect@CWnd@@UAEJJUtagVARIANT@@@Z:NEAR	; CWnd::accSelect
EXTRN	?accLocation@CWnd@@UAEJPAJ000UtagVARIANT@@@Z:NEAR ; CWnd::accLocation
EXTRN	?GetDispatchMap@CCmdTarget@@MBEPBUAFX_DISPMAP@@XZ:NEAR ; CCmdTarget::GetDispatchMap
EXTRN	?accNavigate@CWnd@@UAEJJUtagVARIANT@@PAU2@@Z:NEAR ; CWnd::accNavigate
EXTRN	?accHitTest@CWnd@@UAEJJJPAUtagVARIANT@@@Z:NEAR	; CWnd::accHitTest
EXTRN	?GetConnectionMap@CCmdTarget@@MBEPBUAFX_CONNECTIONMAP@@XZ:NEAR ; CCmdTarget::GetConnectionMap
EXTRN	?accDoDefaultAction@CWnd@@UAEJUtagVARIANT@@@Z:NEAR ; CWnd::accDoDefaultAction
EXTRN	?put_accName@CWnd@@UAEJUtagVARIANT@@PA_W@Z:NEAR	; CWnd::put_accName
EXTRN	?put_accValue@CWnd@@UAEJUtagVARIANT@@PA_W@Z:NEAR ; CWnd::put_accValue
EXTRN	?SetProxy@CWnd@@UAEJPAUIAccessibleProxy@@@Z:NEAR ; CWnd::SetProxy
EXTRN	?CreateAccessibleProxy@CWnd@@UAEJIJPAJ@Z:NEAR	; CWnd::CreateAccessibleProxy
EXTRN	?GetEventSinkMap@CCmdTarget@@MBEPBUAFX_EVENTSINKMAP@@XZ:NEAR ; CCmdTarget::GetEventSinkMap
EXTRN	?OnCreateAggregates@CCmdTarget@@UAEHXZ:NEAR	; CCmdTarget::OnCreateAggregates
EXTRN	?OnCommand@CWnd@@MAEHIJ@Z:NEAR			; CWnd::OnCommand
EXTRN	?GetInterfaceHook@CCmdTarget@@UAEPAUIUnknown@@PBX@Z:NEAR ; CCmdTarget::GetInterfaceHook
EXTRN	?OnNotify@CWnd@@MAEHIJPAJ@Z:NEAR		; CWnd::OnNotify
EXTRN	?GetExtraConnectionPoints@CCmdTarget@@MAEHPAVCPtrArray@@@Z:NEAR ; CCmdTarget::GetExtraConnectionPoints
EXTRN	?GetConnectionHook@CCmdTarget@@MAEPAUIConnectionPoint@@ABU_GUID@@@Z:NEAR ; CCmdTarget::GetConnectionHook
EXTRN	??_ECCWToolTips@@UAEPAXI@Z:NEAR			; CCWToolTips::`vector deleting destructor'
EXTRN	??0CWnd@@QAE@XZ:NEAR				; CWnd::CWnd
EXTRN	?PreSubclassWindow@CWnd@@UAEXXZ:NEAR		; CWnd::PreSubclassWindow
EXTRN	?Create@CWnd@@UAEHPBD0KABUtagRECT@@PAV1@IPAUCCreateContext@@@Z:NEAR ; CWnd::Create
EXTRN	?CreateEx@CWnd@@UAEHKPBD0KHHHHPAUHWND__@@PAUHMENU__@@PAX@Z:NEAR ; CWnd::CreateEx
EXTRN	?CreateEx@CWnd@@UAEHKPBD0KABUtagRECT@@PAV1@IPAX@Z:NEAR ; CWnd::CreateEx
EXTRN	?DestroyWindow@CWnd@@UAEHXZ:NEAR		; CWnd::DestroyWindow
EXTRN	?PreCreateWindow@CWnd@@UAEHAAUtagCREATESTRUCTA@@@Z:NEAR ; CWnd::PreCreateWindow
EXTRN	?CalcWindowRect@CWnd@@UAEXPAUtagRECT@@I@Z:NEAR	; CWnd::CalcWindowRect
EXTRN	?GetSuperWndProcAddr@CWnd@@MAEPAP6GJPAUHWND__@@IIJ@ZXZ:NEAR ; CWnd::GetSuperWndProcAddr
EXTRN	??_7type_info@@6B@:QWORD			; type_info::`vftable'
EXTRN	?OnAmbientProperty@CWnd@@UAEHPAVCOleControlSite@@JPAUtagVARIANT@@@Z:NEAR ; CWnd::OnAmbientProperty
EXTRN	?WindowProc@CWnd@@MAEJIIJ@Z:NEAR		; CWnd::WindowProc
EXTRN	?OnWndMsg@CWnd@@MAEHIIJPAJ@Z:NEAR		; CWnd::OnWndMsg
EXTRN	?DefWindowProcA@CWnd@@MAEJIIJ@Z:NEAR		; CWnd::DefWindowProcA
EXTRN	?PostNcDestroy@CWnd@@MAEXXZ:NEAR		; CWnd::PostNcDestroy
EXTRN	?OnChildNotify@CWnd@@MAEHIIJPAJ@Z:NEAR		; CWnd::OnChildNotify
EXTRN	?CheckAutoCenter@CWnd@@UAEHXZ:NEAR		; CWnd::CheckAutoCenter
EXTRN	?IsFrameWnd@CWnd@@UBEHXZ:NEAR			; CWnd::IsFrameWnd
EXTRN	?OnFinalRelease@CWnd@@UAEXXZ:NEAR		; CWnd::OnFinalRelease
;	COMDAT ??_7CCWToolTips@@6B@
CONST	SEGMENT
??_7CCWToolTips@@6B@ DD FLAT:??_R4CCWToolTips@@6B@	; CCWToolTips::`vftable'
	DD	FLAT:?GetRuntimeClass@CCWToolTips@@UBEPAUCRuntimeClass@@XZ
	DD	FLAT:??_ECCWToolTips@@UAEPAXI@Z
	DD	FLAT:?Serialize@CObject@@UAEXAAVCArchive@@@Z
	DD	FLAT:?AssertValid@CObject@@UBEXXZ
	DD	FLAT:?Dump@CObject@@UBEXAAVCDumpContext@@@Z
	DD	FLAT:?OnCmdMsg@CCmdTarget@@UAEHIHPAXPAUAFX_CMDHANDLERINFO@@@Z
	DD	FLAT:?OnFinalRelease@CWnd@@UAEXXZ
	DD	FLAT:?IsInvokeAllowed@CCmdTarget@@UAEHJ@Z
	DD	FLAT:?GetDispatchIID@CCmdTarget@@UAEHPAU_GUID@@@Z
	DD	FLAT:?GetTypeInfoCount@CCmdTarget@@UAEIXZ
	DD	FLAT:?GetTypeLibCache@CCmdTarget@@UAEPAVCTypeLibCache@@XZ
	DD	FLAT:?GetTypeLib@CCmdTarget@@UAEJKPAPAUITypeLib@@@Z
	DD	FLAT:?GetMessageMap@CCWToolTips@@MBEPBUAFX_MSGMAP@@XZ
	DD	FLAT:?GetCommandMap@CCmdTarget@@MBEPBUAFX_OLECMDMAP@@XZ
	DD	FLAT:?GetDispatchMap@CCmdTarget@@MBEPBUAFX_DISPMAP@@XZ
	DD	FLAT:?GetConnectionMap@CCmdTarget@@MBEPBUAFX_CONNECTIONMAP@@XZ
	DD	FLAT:?GetInterfaceMap@CWnd@@MBEPBUAFX_INTERFACEMAP@@XZ
	DD	FLAT:?GetEventSinkMap@CCmdTarget@@MBEPBUAFX_EVENTSINKMAP@@XZ
	DD	FLAT:?OnCreateAggregates@CCmdTarget@@UAEHXZ
	DD	FLAT:?GetInterfaceHook@CCmdTarget@@UAEPAUIUnknown@@PBX@Z
	DD	FLAT:?GetExtraConnectionPoints@CCmdTarget@@MAEHPAVCPtrArray@@@Z
	DD	FLAT:?GetConnectionHook@CCmdTarget@@MAEPAUIConnectionPoint@@ABU_GUID@@@Z
	DD	FLAT:?PreSubclassWindow@CWnd@@UAEXXZ
	DD	FLAT:?Create@CWnd@@UAEHPBD0KABUtagRECT@@PAV1@IPAUCCreateContext@@@Z
	DD	FLAT:?CreateEx@CWnd@@UAEHKPBD0KABUtagRECT@@PAV1@IPAX@Z
	DD	FLAT:?CreateEx@CWnd@@UAEHKPBD0KHHHHPAUHWND__@@PAUHMENU__@@PAX@Z
	DD	FLAT:?DestroyWindow@CWnd@@UAEHXZ
	DD	FLAT:?PreCreateWindow@CWnd@@UAEHAAUtagCREATESTRUCTA@@@Z
	DD	FLAT:?CalcWindowRect@CWnd@@UAEXPAUtagRECT@@I@Z
	DD	FLAT:?OnToolHitTest@CWnd@@UBEHVCPoint@@PAUtagTOOLINFOA@@@Z
	DD	FLAT:?GetScrollBarCtrl@CWnd@@UBEPAVCScrollBar@@H@Z
	DD	FLAT:?WinHelpA@CWnd@@UAEXKI@Z
	DD	FLAT:?HtmlHelpA@CWnd@@UAEXKI@Z
	DD	FLAT:?WinHelpInternal@CWnd@@UAEXKI@Z
	DD	FLAT:?ContinueModal@CWnd@@UAEHXZ
	DD	FLAT:?EndModalLoop@CWnd@@UAEXH@Z
	DD	FLAT:?EnsureStdObj@CWnd@@UAEJXZ
	DD	FLAT:?get_accParent@CWnd@@UAEJPAPAUIDispatch@@@Z
	DD	FLAT:?get_accChildCount@CWnd@@UAEJPAJ@Z
	DD	FLAT:?get_accChild@CWnd@@UAEJUtagVARIANT@@PAPAUIDispatch@@@Z
	DD	FLAT:?get_accName@CWnd@@UAEJUtagVARIANT@@PAPA_W@Z
	DD	FLAT:?get_accValue@CWnd@@UAEJUtagVARIANT@@PAPA_W@Z
	DD	FLAT:?get_accDescription@CWnd@@UAEJUtagVARIANT@@PAPA_W@Z
	DD	FLAT:?get_accRole@CWnd@@UAEJUtagVARIANT@@PAU2@@Z
	DD	FLAT:?get_accState@CWnd@@UAEJUtagVARIANT@@PAU2@@Z
	DD	FLAT:?get_accHelp@CWnd@@UAEJUtagVARIANT@@PAPA_W@Z
	DD	FLAT:?get_accHelpTopic@CWnd@@UAEJPAPA_WUtagVARIANT@@PAJ@Z
	DD	FLAT:?get_accKeyboardShortcut@CWnd@@UAEJUtagVARIANT@@PAPA_W@Z
	DD	FLAT:?get_accFocus@CWnd@@UAEJPAUtagVARIANT@@@Z
	DD	FLAT:?get_accSelection@CWnd@@UAEJPAUtagVARIANT@@@Z
	DD	FLAT:?get_accDefaultAction@CWnd@@UAEJUtagVARIANT@@PAPA_W@Z
	DD	FLAT:?accSelect@CWnd@@UAEJJUtagVARIANT@@@Z
	DD	FLAT:?accLocation@CWnd@@UAEJPAJ000UtagVARIANT@@@Z
	DD	FLAT:?accNavigate@CWnd@@UAEJJUtagVARIANT@@PAU2@@Z
	DD	FLAT:?accHitTest@CWnd@@UAEJJJPAUtagVARIANT@@@Z
	DD	FLAT:?accDoDefaultAction@CWnd@@UAEJUtagVARIANT@@@Z
	DD	FLAT:?put_accName@CWnd@@UAEJUtagVARIANT@@PA_W@Z
	DD	FLAT:?put_accValue@CWnd@@UAEJUtagVARIANT@@PA_W@Z
	DD	FLAT:?SetProxy@CWnd@@UAEJPAUIAccessibleProxy@@@Z
	DD	FLAT:?CreateAccessibleProxy@CWnd@@UAEJIJPAJ@Z
	DD	FLAT:?OnCommand@CWnd@@MAEHIJ@Z
	DD	FLAT:?OnNotify@CWnd@@MAEHIJPAJ@Z
	DD	FLAT:?GetSuperWndProcAddr@CWnd@@MAEPAP6GJPAUHWND__@@IIJ@ZXZ
	DD	FLAT:?DoDataExchange@CWnd@@MAEXPAVCDataExchange@@@Z
	DD	FLAT:?BeginModalState@CWnd@@UAEXXZ
	DD	FLAT:?EndModalState@CWnd@@UAEXXZ
	DD	FLAT:?PreTranslateMessage@CCWToolTips@@UAEHPAUtagMSG@@@Z
	DD	FLAT:?OnAmbientProperty@CWnd@@UAEHPAVCOleControlSite@@JPAUtagVARIANT@@@Z
	DD	FLAT:?WindowProc@CWnd@@MAEJIIJ@Z
	DD	FLAT:?OnWndMsg@CWnd@@MAEHIIJPAJ@Z
	DD	FLAT:?DefWindowProcA@CWnd@@MAEJIIJ@Z
	DD	FLAT:?PostNcDestroy@CWnd@@MAEXXZ
	DD	FLAT:?OnChildNotify@CWnd@@MAEHIIJPAJ@Z
	DD	FLAT:?CheckAutoCenter@CWnd@@UAEHXZ
	DD	FLAT:?IsFrameWnd@CWnd@@UBEHXZ
	DD	FLAT:?CreateControlContainer@CWnd@@MAEHPAPAVCOleControlContainer@@@Z
	DD	FLAT:?CreateControlSite@CWnd@@MAEHPAVCOleControlContainer@@PAPAVCOleControlSite@@IABU_GUID@@@Z
	DD	FLAT:?SetOccDialogInfo@CWnd@@MAEHPAU_AFX_OCC_DIALOG_INFO@@@Z
CONST	ENDS
;	COMDAT ??_R4CCWToolTips@@6B@
rdata$r	SEGMENT
??_R4CCWToolTips@@6B@ DD 00H				; CCWToolTips::`RTTI Complete Object Locator'
	DD	00H
	DD	00H
	DD	FLAT:??_R0?AVCCWToolTips@@@8
	DD	FLAT:??_R3CCWToolTips@@8
rdata$r	ENDS
;	COMDAT ??_R0?AVCCWToolTips@@@8
_DATA	SEGMENT
??_R0?AVCCWToolTips@@@8 DD FLAT:??_7type_info@@6B@	; CCWToolTips `RTTI Type Descriptor'
	DD	00H
	DB	'.?AVCCWToolTips@@', 00H
_DATA	ENDS
;	COMDAT ??_R3CCWToolTips@@8
rdata$r	SEGMENT
??_R3CCWToolTips@@8 DD 00H				; CCWToolTips::`RTTI Class Hierarchy Descriptor'
	DD	00H
	DD	04H
	DD	FLAT:??_R2CCWToolTips@@8
rdata$r	ENDS
;	COMDAT ??_R2CCWToolTips@@8
rdata$r	SEGMENT
??_R2CCWToolTips@@8 DD FLAT:??_R1A@?0A@A@CCWToolTips@@8	; CCWToolTips::`RTTI Base Class Array'
	DD	FLAT:??_R1A@?0A@A@CWnd@@8
	DD	FLAT:??_R1A@?0A@A@CCmdTarget@@8
	DD	FLAT:??_R1A@?0A@A@CObject@@8
rdata$r	ENDS
;	COMDAT ??_R1A@?0A@A@CCWToolTips@@8
rdata$r	SEGMENT
??_R1A@?0A@A@CCWToolTips@@8 DD FLAT:??_R0?AVCCWToolTips@@@8 ; CCWToolTips::`RTTI Base Class Descriptor at (0,-1,0,0)'
	DD	03H
	DD	00H
	DD	0ffffffffH
	DD	00H
	DD	00H
rdata$r	ENDS
;	COMDAT ??_R1A@?0A@A@CWnd@@8
rdata$r	SEGMENT
??_R1A@?0A@A@CWnd@@8 DD FLAT:??_R0?AVCWnd@@@8		; CWnd::`RTTI Base Class Descriptor at (0,-1,0,0)'
	DD	02H
	DD	00H
	DD	0ffffffffH
	DD	00H
	DD	00H
rdata$r	ENDS
;	COMDAT ??_R0?AVCWnd@@@8
_DATA	SEGMENT
??_R0?AVCWnd@@@8 DD FLAT:??_7type_info@@6B@		; CWnd `RTTI Type Descriptor'
	DD	00H
	DB	'.?AVCWnd@@', 00H
_DATA	ENDS
;	COMDAT ??_R1A@?0A@A@CCmdTarget@@8
rdata$r	SEGMENT
??_R1A@?0A@A@CCmdTarget@@8 DD FLAT:??_R0?AVCCmdTarget@@@8 ; CCmdTarget::`RTTI Base Class Descriptor at (0,-1,0,0)'
	DD	01H
	DD	00H
	DD	0ffffffffH
	DD	00H
	DD	00H
rdata$r	ENDS
;	COMDAT ??_R0?AVCCmdTarget@@@8
_DATA	SEGMENT
??_R0?AVCCmdTarget@@@8 DD FLAT:??_7type_info@@6B@	; CCmdTarget `RTTI Type Descriptor'
	DD	00H
	DB	'.?AVCCmdTarget@@', 00H
_DATA	ENDS
;	COMDAT ??_R1A@?0A@A@CObject@@8
rdata$r	SEGMENT
??_R1A@?0A@A@CObject@@8 DD FLAT:??_R0?AVCObject@@@8	; CObject::`RTTI Base Class Descriptor at (0,-1,0,0)'
	DD	00H
	DD	00H
	DD	0ffffffffH
	DD	00H
	DD	00H
rdata$r	ENDS
;	COMDAT ??_R0?AVCObject@@@8
_DATA	SEGMENT
??_R0?AVCObject@@@8 DD FLAT:??_7type_info@@6B@		; CObject `RTTI Type Descriptor'
	DD	00H
	DB	'.?AVCObject@@', 00H
; Function compile flags: /Odt
_DATA	ENDS
_TEXT	SEGMENT
_this$ = -12						; size = 4
$T198250 = -8						; size = 8
??0CCWToolTips@@QAE@XZ PROC NEAR			; CCWToolTips::CCWToolTips
; _this$ = ecx

; 8    : {

  00020	55		 push	 ebp
  00021	8b ec		 mov	 ebp, esp
  00023	83 ec 0c	 sub	 esp, 12			; 0000000cH
  00026	89 4d f4	 mov	 DWORD PTR _this$[ebp], ecx
  00029	8b 4d f4	 mov	 ecx, DWORD PTR _this$[ebp]
  0002c	e8 00 00 00 00	 call	 ??0CWnd@@QAE@XZ		; CWnd::CWnd
  00031	8b 45 f4	 mov	 eax, DWORD PTR _this$[ebp]
  00034	c7 00 00 00 00
	00		 mov	 DWORD PTR [eax], OFFSET FLAT:??_7CCWToolTips@@6B@
  0003a	8b 4d f4	 mov	 ecx, DWORD PTR _this$[ebp]
  0003d	83 c1 64	 add	 ecx, 100		; 00000064H
  00040	ff 15 00 00 00
	00		 call	 DWORD PTR __imp_??0?$CStringT@DV?$StrTraitMFC_DLL@DV?$ChTraitsCRT@D@ATL@@@@@ATL@@QAE@XZ
  00046	8b 4d f4	 mov	 ecx, DWORD PTR _this$[ebp]
  00049	83 c1 68	 add	 ecx, 104		; 00000068H
  0004c	e8 00 00 00 00	 call	 ??0CPoint@@QAE@XZ	; CPoint::CPoint
  00051	8b 4d f4	 mov	 ecx, DWORD PTR _this$[ebp]
  00054	83 c1 70	 add	 ecx, 112		; 00000070H
  00057	e8 00 00 00 00	 call	 ??0CRect@@QAE@XZ	; CRect::CRect

; 9    : 	m_lastPoint = CPoint(0,0);

  0005c	6a 00		 push	 0
  0005e	6a 00		 push	 0
  00060	8d 4d f8	 lea	 ecx, DWORD PTR $T198250[ebp]
  00063	e8 00 00 00 00	 call	 ??0CPoint@@QAE@HH@Z	; CPoint::CPoint
  00068	8b 08		 mov	 ecx, DWORD PTR [eax]
  0006a	8b 50 04	 mov	 edx, DWORD PTR [eax+4]
  0006d	8b 45 f4	 mov	 eax, DWORD PTR _this$[ebp]
  00070	89 48 68	 mov	 DWORD PTR [eax+104], ecx
  00073	89 50 6c	 mov	 DWORD PTR [eax+108], edx

; 10   : 	m_pClientWnd = NULL;

  00076	8b 4d f4	 mov	 ecx, DWORD PTR _this$[ebp]
  00079	c7 41 60 00 00
	00 00		 mov	 DWORD PTR [ecx+96], 0

; 11   : 	m_type = CLIENT_TOOLTIPS;

  00080	8b 55 f4	 mov	 edx, DWORD PTR _this$[ebp]
  00083	c7 82 80 00 00
	00 00 00 00 00	 mov	 DWORD PTR [edx+128], 0

; 12   : 
; 13   : 	m_clrFontText = RGB(0x00,0x00,0x00);

  0008d	8b 45 f4	 mov	 eax, DWORD PTR _this$[ebp]
  00090	c7 40 54 00 00
	00 00		 mov	 DWORD PTR [eax+84], 0

; 14   : 	m_clrBorder = RGB(0x00,0x00,0x00);

  00097	8b 4d f4	 mov	 ecx, DWORD PTR _this$[ebp]
  0009a	c7 41 58 00 00
	00 00		 mov	 DWORD PTR [ecx+88], 0

; 15   : 	m_clrBK=RGB(0xFF,0xFF,0xFF);

  000a1	8b 55 f4	 mov	 edx, DWORD PTR _this$[ebp]
  000a4	c7 42 5c ff ff
	ff 00		 mov	 DWORD PTR [edx+92], 16777215 ; 00ffffffH

; 16   : 	m_hParent = NULL;

  000ab	8b 45 f4	 mov	 eax, DWORD PTR _this$[ebp]
  000ae	c7 80 88 00 00
	00 00 00 00 00	 mov	 DWORD PTR [eax+136], 0

; 17   : 	m_nTimer = 800;

  000b8	8b 4d f4	 mov	 ecx, DWORD PTR _this$[ebp]
  000bb	c7 81 84 00 00
	00 20 03 00 00	 mov	 DWORD PTR [ecx+132], 800 ; 00000320H

; 18   : 	m_bChangeColor = TRUE;

  000c5	8b 55 f4	 mov	 edx, DWORD PTR _this$[ebp]
  000c8	c7 82 8c 00 00
	00 01 00 00 00	 mov	 DWORD PTR [edx+140], 1

; 19   : }

  000d2	8b 45 f4	 mov	 eax, DWORD PTR _this$[ebp]
  000d5	8b e5		 mov	 esp, ebp
  000d7	5d		 pop	 ebp
  000d8	c3		 ret	 0
??0CCWToolTips@@QAE@XZ ENDP				; CCWToolTips::CCWToolTips
_TEXT	ENDS
PUBLIC	??3CObject@@SGXPAX@Z				; CObject::operator delete
PUBLIC	??1CCWToolTips@@UAE@XZ				; CCWToolTips::~CCWToolTips
; Function compile flags: /Odt
;	COMDAT ??_GCCWToolTips@@UAEPAXI@Z
_TEXT	SEGMENT
_this$ = -4						; size = 4
___flags$ = 8						; size = 4
??_GCCWToolTips@@UAEPAXI@Z PROC NEAR			; CCWToolTips::`scalar deleting destructor', COMDAT
; _this$ = ecx
  00000	55		 push	 ebp
  00001	8b ec		 mov	 ebp, esp
  00003	51		 push	 ecx
  00004	89 4d fc	 mov	 DWORD PTR _this$[ebp], ecx
  00007	8b 4d fc	 mov	 ecx, DWORD PTR _this$[ebp]
  0000a	e8 00 00 00 00	 call	 ??1CCWToolTips@@UAE@XZ	; CCWToolTips::~CCWToolTips
  0000f	8b 45 08	 mov	 eax, DWORD PTR ___flags$[ebp]
  00012	83 e0 01	 and	 eax, 1
  00015	74 09		 je	 SHORT $L197457
  00017	8b 4d fc	 mov	 ecx, DWORD PTR _this$[ebp]
  0001a	51		 push	 ecx
  0001b	e8 00 00 00 00	 call	 ??3CObject@@SGXPAX@Z	; CObject::operator delete
$L197457:
  00020	8b 45 fc	 mov	 eax, DWORD PTR _this$[ebp]
  00023	8b e5		 mov	 esp, ebp
  00025	5d		 pop	 ebp
  00026	c2 04 00	 ret	 4
??_GCCWToolTips@@UAEPAXI@Z ENDP				; CCWToolTips::`scalar deleting destructor'
_TEXT	ENDS
EXTRN	__imp_??1?$CStringT@DV?$StrTraitMFC_DLL@DV?$ChTraitsCRT@D@ATL@@@@@ATL@@QAE@XZ:NEAR
EXTRN	??1CWnd@@UAE@XZ:NEAR				; CWnd::~CWnd
; Function compile flags: /Odt
_TEXT	SEGMENT
_this$ = -4						; size = 4
??1CCWToolTips@@UAE@XZ PROC NEAR			; CCWToolTips::~CCWToolTips
; _this$ = ecx

; 22   : {

  000e0	55		 push	 ebp
  000e1	8b ec		 mov	 ebp, esp
  000e3	51		 push	 ecx
  000e4	89 4d fc	 mov	 DWORD PTR _this$[ebp], ecx
  000e7	8b 45 fc	 mov	 eax, DWORD PTR _this$[ebp]
  000ea	c7 00 00 00 00
	00		 mov	 DWORD PTR [eax], OFFSET FLAT:??_7CCWToolTips@@6B@

; 23   : }

  000f0	8b 4d fc	 mov	 ecx, DWORD PTR _this$[ebp]
  000f3	83 c1 64	 add	 ecx, 100		; 00000064H
  000f6	ff 15 00 00 00
	00		 call	 DWORD PTR __imp_??1?$CStringT@DV?$StrTraitMFC_DLL@DV?$ChTraitsCRT@D@ATL@@@@@ATL@@QAE@XZ
  000fc	8b 4d fc	 mov	 ecx, DWORD PTR _this$[ebp]
  000ff	e8 00 00 00 00	 call	 ??1CWnd@@UAE@XZ		; CWnd::~CWnd
  00104	8b e5		 mov	 esp, ebp
  00106	5d		 pop	 ebp
  00107	c3		 ret	 0
??1CCWToolTips@@UAE@XZ ENDP				; CCWToolTips::~CCWToolTips
_TEXT	ENDS
PUBLIC	?GetThisMessageMap@CCWToolTips@@KGPBUAFX_MSGMAP@@XZ ; CCWToolTips::GetThisMessageMap
; Function compile flags: /Odt
_TEXT	SEGMENT
?GetThisMessageMap@CCWToolTips@@KGPBUAFX_MSGMAP@@XZ PROC NEAR ; CCWToolTips::GetThisMessageMap

; 25   : BEGIN_MESSAGE_MAP(CCWToolTips, CWnd)

  00110	55		 push	 ebp
  00111	8b ec		 mov	 ebp, esp
  00113	b8 00 00 00 00	 mov	 eax, OFFSET FLAT:?messageMap@CCWToolTips@@1UAFX_MSGMAP@@B ; CCWToolTips::messageMap
  00118	5d		 pop	 ebp
  00119	c3		 ret	 0
?GetThisMessageMap@CCWToolTips@@KGPBUAFX_MSGMAP@@XZ ENDP ; CCWToolTips::GetThisMessageMap
; Function compile flags: /Odt
_this$ = -4						; size = 4
?GetMessageMap@CCWToolTips@@MBEPBUAFX_MSGMAP@@XZ PROC NEAR ; CCWToolTips::GetMessageMap
; _this$ = ecx

; 25   : BEGIN_MESSAGE_MAP(CCWToolTips, CWnd)

  00120	55		 push	 ebp
  00121	8b ec		 mov	 ebp, esp
  00123	51		 push	 ecx
  00124	89 4d fc	 mov	 DWORD PTR _this$[ebp], ecx
  00127	b8 00 00 00 00	 mov	 eax, OFFSET FLAT:?messageMap@CCWToolTips@@1UAFX_MSGMAP@@B ; CCWToolTips::messageMap
  0012c	8b e5		 mov	 esp, ebp
  0012e	5d		 pop	 ebp
  0012f	c3		 ret	 0
?GetMessageMap@CCWToolTips@@MBEPBUAFX_MSGMAP@@XZ ENDP	; CCWToolTips::GetMessageMap
_TEXT	ENDS
PUBLIC	?SetChangeColor@CCWToolTips@@QAEXH@Z		; CCWToolTips::SetChangeColor
; Function compile flags: /Odt
_TEXT	SEGMENT
_this$ = -4						; size = 4
_bchange$ = 8						; size = 4
?SetChangeColor@CCWToolTips@@QAEXH@Z PROC NEAR		; CCWToolTips::SetChangeColor
; _this$ = ecx

; 34   : {

  00130	55		 push	 ebp
  00131	8b ec		 mov	 ebp, esp
  00133	51		 push	 ecx
  00134	89 4d fc	 mov	 DWORD PTR _this$[ebp], ecx

; 35   : 	m_bChangeColor = bchange;

  00137	8b 45 fc	 mov	 eax, DWORD PTR _this$[ebp]
  0013a	8b 4d 08	 mov	 ecx, DWORD PTR _bchange$[ebp]
  0013d	89 88 8c 00 00
	00		 mov	 DWORD PTR [eax+140], ecx

; 36   : }

  00143	8b e5		 mov	 esp, ebp
  00145	5d		 pop	 ebp
  00146	c2 04 00	 ret	 4
?SetChangeColor@CCWToolTips@@QAEXH@Z ENDP		; CCWToolTips::SetChangeColor
_TEXT	ENDS
PUBLIC	?GetClientRect@CWnd@@QBEXPAUtagRECT@@@Z		; CWnd::GetClientRect
PUBLIC	??0CRect@@QAE@HHHH@Z				; CRect::CRect
PUBLIC	??BCRect@@QAEPAUtagRECT@@XZ			; CRect::operator tagRECT *
PUBLIC	?FillRect@CDC@@QAEXPBUtagRECT@@PAVCBrush@@@Z	; CDC::FillRect
PUBLIC	?DrawMultiLine@CCWToolTips@@QAEHV?$CStringT@DV?$StrTraitMFC_DLL@DV?$ChTraitsCRT@D@ATL@@@@@ATL@@VCRect@@AAVCDC@@@Z ; CCWToolTips::DrawMultiLine
PUBLIC	??1CBrush@@UAE@XZ				; CBrush::~CBrush
PUBLIC	??0CFont@@QAE@XZ				; CFont::CFont
PUBLIC	??1CFont@@UAE@XZ				; CFont::~CFont
EXTRN	?SelectObject@CDC@@QAEPAVCBrush@@PAV2@@Z:NEAR	; CDC::SelectObject
EXTRN	?SelectObject@CDC@@UAEPAVCFont@@PAV2@@Z:NEAR	; CDC::SelectObject
EXTRN	?SetBkMode@CDC@@QAEHH@Z:NEAR			; CDC::SetBkMode
EXTRN	__imp_?GetLength@?$CSimpleStringT@D$00@ATL@@QBEHXZ:NEAR
EXTRN	?SetTextColor@CDC@@UAEKK@Z:NEAR			; CDC::SetTextColor
EXTRN	__imp_??0?$CStringT@DV?$StrTraitMFC_DLL@DV?$ChTraitsCRT@D@ATL@@@@@ATL@@QAE@ABV01@@Z:NEAR
EXTRN	__imp_??4?$CStringT@DV?$StrTraitMFC_DLL@DV?$ChTraitsCRT@D@ATL@@@@@ATL@@QAEAAV01@ABV01@@Z:NEAR
EXTRN	__imp_?Find@?$CStringT@DV?$StrTraitMFC_DLL@DV?$ChTraitsCRT@D@ATL@@@@@ATL@@QBEHPBDH@Z:NEAR
EXTRN	__imp_?Right@?$CStringT@DV?$StrTraitMFC_DLL@DV?$ChTraitsCRT@D@ATL@@@@@ATL@@QBE?AV12@H@Z:NEAR
EXTRN	__imp_?Left@?$CStringT@DV?$StrTraitMFC_DLL@DV?$ChTraitsCRT@D@ATL@@@@@ATL@@QBE?AV12@H@Z:NEAR
EXTRN	__except_list:DWORD
EXTRN	___security_cookie:DWORD
EXTRN	@__security_check_cookie@4:NEAR
EXTRN	___CxxFrameHandler:NEAR
EXTRN	??0CBrush@@QAE@K@Z:NEAR				; CBrush::CBrush
EXTRN	?CreatePointFont@CFont@@QAEHHPBDPAVCDC@@@Z:NEAR	; CFont::CreatePointFont
EXTRN	??0CPaintDC@@QAE@PAVCWnd@@@Z:NEAR		; CPaintDC::CPaintDC
EXTRN	??1CPaintDC@@UAE@XZ:NEAR			; CPaintDC::~CPaintDC
EXTRN	?AfxGetUIManager@@YAPAVIUIManager@@XZ:NEAR	; AfxGetUIManager
xdata$x	SEGMENT
$T198283 DD	0ffffffffH
	DD	FLAT:$L198266
	DD	00H
	DD	FLAT:$L198267
	DD	01H
	DD	FLAT:$L198268
	DD	02H
	DD	FLAT:$L198269
	DD	03H
	DD	FLAT:$L198270
	DD	04H
	DD	FLAT:$L198272
$T198277 DD	019930520H
	DD	06H
	DD	FLAT:$T198283
	DD	2 DUP(00H)
	DD	2 DUP(00H)
; Function compile flags: /Odt
xdata$x	ENDS
_TEXT	SEGMENT
tv264 = -240						; size = 4
tv260 = -236						; size = 4
tv194 = -232						; size = 4
tv258 = -228						; size = 4
tv257 = -224						; size = 4
tv136 = -220						; size = 4
tv131 = -216						; size = 4
tv91 = -212						; size = 4
tv86 = -208						; size = 4
tv78 = -204						; size = 4
tv73 = -200						; size = 4
_this$ = -196						; size = 4
$T198265 = -192						; size = 4
$T198264 = -188						; size = 4
$T198263 = -184						; size = 4
_temp$197505 = -180					; size = 4
_rows$197507 = -176					; size = 4
_font$ = -172						; size = 8
_pOldBrush$ = -164					; size = 4
_brush$ = -160						; size = 8
_nowindex$ = -152					; size = 4
_pDC$ = -148						; size = 4
_tempStrInfo$ = -144					; size = 4
_dc$ = -140						; size = 84
__$ArrayPad$ = -48					; size = 4
_rect$ = -44						; size = 16
_textRect$ = -28					; size = 16
__$EHRec$ = -12						; size = 12
__$ReturnAddr$ = 4					; size = 4
?OnPaint@CCWToolTips@@QAEXXZ PROC NEAR			; CCWToolTips::OnPaint
; _this$ = ecx

; 38   : {

  00150	55		 push	 ebp
  00151	8b ec		 mov	 ebp, esp
  00153	6a ff		 push	 -1
  00155	68 00 00 00 00	 push	 __ehhandler$?OnPaint@CCWToolTips@@QAEXXZ
  0015a	64 a1 00 00 00
	00		 mov	 eax, DWORD PTR fs:__except_list
  00160	50		 push	 eax
  00161	64 89 25 00 00
	00 00		 mov	 DWORD PTR fs:__except_list, esp
  00168	81 ec e4 00 00
	00		 sub	 esp, 228		; 000000e4H
  0016e	a1 00 00 00 00	 mov	 eax, DWORD PTR ___security_cookie
  00173	89 45 d0	 mov	 DWORD PTR __$ArrayPad$[ebp], eax
  00176	89 8d 3c ff ff
	ff		 mov	 DWORD PTR _this$[ebp], ecx

; 39   : 	CPaintDC dc(this); 

  0017c	8b 85 3c ff ff
	ff		 mov	 eax, DWORD PTR _this$[ebp]
  00182	50		 push	 eax
  00183	8d 8d 74 ff ff
	ff		 lea	 ecx, DWORD PTR _dc$[ebp]
  00189	e8 00 00 00 00	 call	 ??0CPaintDC@@QAE@PAVCWnd@@@Z ; CPaintDC::CPaintDC
  0018e	c7 45 fc 00 00
	00 00		 mov	 DWORD PTR __$EHRec$[ebp+8], 0

; 40   : 	if(m_bChangeColor)

  00195	8b 8d 3c ff ff
	ff		 mov	 ecx, DWORD PTR _this$[ebp]
  0019b	83 b9 8c 00 00
	00 00		 cmp	 DWORD PTR [ecx+140], 0
  001a2	0f 84 c3 00 00
	00		 je	 $L197487

; 41   : 	{
; 42   : 		m_clrFontText = ::AfxGetUIManager()->UIGetSkinMgr()->GetColor("TooltipTextColor");

  001a8	e8 00 00 00 00	 call	 ?AfxGetUIManager@@YAPAVIUIManager@@XZ ; AfxGetUIManager
  001ad	89 85 38 ff ff
	ff		 mov	 DWORD PTR tv73[ebp], eax
  001b3	8b 95 38 ff ff
	ff		 mov	 edx, DWORD PTR tv73[ebp]
  001b9	8b 02		 mov	 eax, DWORD PTR [edx]
  001bb	8b 8d 38 ff ff
	ff		 mov	 ecx, DWORD PTR tv73[ebp]
  001c1	ff 50 28	 call	 DWORD PTR [eax+40]
  001c4	89 85 34 ff ff
	ff		 mov	 DWORD PTR tv78[ebp], eax
  001ca	68 00 00 00 00	 push	 OFFSET FLAT:$SG197488
  001cf	8b 8d 34 ff ff
	ff		 mov	 ecx, DWORD PTR tv78[ebp]
  001d5	8b 11		 mov	 edx, DWORD PTR [ecx]
  001d7	8b 8d 34 ff ff
	ff		 mov	 ecx, DWORD PTR tv78[ebp]
  001dd	ff 52 08	 call	 DWORD PTR [edx+8]
  001e0	8b 8d 3c ff ff
	ff		 mov	 ecx, DWORD PTR _this$[ebp]
  001e6	89 41 54	 mov	 DWORD PTR [ecx+84], eax

; 43   : 		m_clrBorder = ::AfxGetUIManager()->UIGetSkinMgr()->GetColor("TooltipBorderColor");

  001e9	e8 00 00 00 00	 call	 ?AfxGetUIManager@@YAPAVIUIManager@@XZ ; AfxGetUIManager
  001ee	89 85 30 ff ff
	ff		 mov	 DWORD PTR tv86[ebp], eax
  001f4	8b 95 30 ff ff
	ff		 mov	 edx, DWORD PTR tv86[ebp]
  001fa	8b 02		 mov	 eax, DWORD PTR [edx]
  001fc	8b 8d 30 ff ff
	ff		 mov	 ecx, DWORD PTR tv86[ebp]
  00202	ff 50 28	 call	 DWORD PTR [eax+40]
  00205	89 85 2c ff ff
	ff		 mov	 DWORD PTR tv91[ebp], eax
  0020b	68 00 00 00 00	 push	 OFFSET FLAT:$SG197489
  00210	8b 8d 2c ff ff
	ff		 mov	 ecx, DWORD PTR tv91[ebp]
  00216	8b 11		 mov	 edx, DWORD PTR [ecx]
  00218	8b 8d 2c ff ff
	ff		 mov	 ecx, DWORD PTR tv91[ebp]
  0021e	ff 52 08	 call	 DWORD PTR [edx+8]
  00221	8b 8d 3c ff ff
	ff		 mov	 ecx, DWORD PTR _this$[ebp]
  00227	89 41 58	 mov	 DWORD PTR [ecx+88], eax

; 44   : 		m_clrBK = ::AfxGetUIManager()->UIGetSkinMgr()->GetColor("TooltipBKColor");

  0022a	e8 00 00 00 00	 call	 ?AfxGetUIManager@@YAPAVIUIManager@@XZ ; AfxGetUIManager
  0022f	89 85 28 ff ff
	ff		 mov	 DWORD PTR tv131[ebp], eax
  00235	8b 95 28 ff ff
	ff		 mov	 edx, DWORD PTR tv131[ebp]
  0023b	8b 02		 mov	 eax, DWORD PTR [edx]
  0023d	8b 8d 28 ff ff
	ff		 mov	 ecx, DWORD PTR tv131[ebp]
  00243	ff 50 28	 call	 DWORD PTR [eax+40]
  00246	89 85 24 ff ff
	ff		 mov	 DWORD PTR tv136[ebp], eax
  0024c	68 00 00 00 00	 push	 OFFSET FLAT:$SG197490
  00251	8b 8d 24 ff ff
	ff		 mov	 ecx, DWORD PTR tv136[ebp]
  00257	8b 11		 mov	 edx, DWORD PTR [ecx]
  00259	8b 8d 24 ff ff
	ff		 mov	 ecx, DWORD PTR tv136[ebp]
  0025f	ff 52 08	 call	 DWORD PTR [edx+8]
  00262	8b 8d 3c ff ff
	ff		 mov	 ecx, DWORD PTR _this$[ebp]
  00268	89 41 5c	 mov	 DWORD PTR [ecx+92], eax
$L197487:

; 45   : 	}
; 46   : 	CDC *pDC = &dc;

  0026b	8d 95 74 ff ff
	ff		 lea	 edx, DWORD PTR _dc$[ebp]
  00271	89 95 6c ff ff
	ff		 mov	 DWORD PTR _pDC$[ebp], edx

; 47   : 	dc.SetBkMode(TRANSPARENT);	

  00277	6a 01		 push	 1
  00279	8d 8d 74 ff ff
	ff		 lea	 ecx, DWORD PTR _dc$[ebp]
  0027f	e8 00 00 00 00	 call	 ?SetBkMode@CDC@@QAEHH@Z	; CDC::SetBkMode

; 48   : 	CFont font;

  00284	8d 8d 54 ff ff
	ff		 lea	 ecx, DWORD PTR _font$[ebp]
  0028a	e8 00 00 00 00	 call	 ??0CFont@@QAE@XZ	; CFont::CFont
  0028f	c6 45 fc 01	 mov	 BYTE PTR __$EHRec$[ebp+8], 1

; 49   : 	font.CreatePointFont(90,_T(""));	

  00293	6a 00		 push	 0
  00295	68 00 00 00 00	 push	 OFFSET FLAT:$SG197493
  0029a	6a 5a		 push	 90			; 0000005aH
  0029c	8d 8d 54 ff ff
	ff		 lea	 ecx, DWORD PTR _font$[ebp]
  002a2	e8 00 00 00 00	 call	 ?CreatePointFont@CFont@@QAEHHPBDPAVCDC@@@Z ; CFont::CreatePointFont

; 50   : 	dc.SelectObject(&font);	

  002a7	8d 85 54 ff ff
	ff		 lea	 eax, DWORD PTR _font$[ebp]
  002ad	50		 push	 eax
  002ae	8d 8d 74 ff ff
	ff		 lea	 ecx, DWORD PTR _dc$[ebp]
  002b4	e8 00 00 00 00	 call	 ?SelectObject@CDC@@UAEPAVCFont@@PAV2@@Z ; CDC::SelectObject

; 51   : 	CRect rect;

  002b9	8d 4d d4	 lea	 ecx, DWORD PTR _rect$[ebp]
  002bc	e8 00 00 00 00	 call	 ??0CRect@@QAE@XZ	; CRect::CRect

; 52   : 	GetClientRect(rect);	

  002c1	8d 4d d4	 lea	 ecx, DWORD PTR _rect$[ebp]
  002c4	e8 00 00 00 00	 call	 ??BCRect@@QAEPAUtagRECT@@XZ ; CRect::operator tagRECT *
  002c9	50		 push	 eax
  002ca	8b 8d 3c ff ff
	ff		 mov	 ecx, DWORD PTR _this$[ebp]
  002d0	e8 00 00 00 00	 call	 ?GetClientRect@CWnd@@QBEXPAUtagRECT@@@Z ; CWnd::GetClientRect

; 53   : //	rect.InflateRect(1,1,1,1);
; 54   : 	CBrush brush(m_clrBK);

  002d5	8b 8d 3c ff ff
	ff		 mov	 ecx, DWORD PTR _this$[ebp]
  002db	8b 51 5c	 mov	 edx, DWORD PTR [ecx+92]
  002de	52		 push	 edx
  002df	8d 8d 60 ff ff
	ff		 lea	 ecx, DWORD PTR _brush$[ebp]
  002e5	e8 00 00 00 00	 call	 ??0CBrush@@QAE@K@Z	; CBrush::CBrush
  002ea	c6 45 fc 02	 mov	 BYTE PTR __$EHRec$[ebp+8], 2

; 55   : 	CBrush* pOldBrush = dc.SelectObject(&brush);

  002ee	8d 85 60 ff ff
	ff		 lea	 eax, DWORD PTR _brush$[ebp]
  002f4	50		 push	 eax
  002f5	8d 8d 74 ff ff
	ff		 lea	 ecx, DWORD PTR _dc$[ebp]
  002fb	e8 00 00 00 00	 call	 ?SelectObject@CDC@@QAEPAVCBrush@@PAV2@@Z ; CDC::SelectObject
  00300	89 85 5c ff ff
	ff		 mov	 DWORD PTR _pOldBrush$[ebp], eax

; 56   : 	dc.FillRect(rect,&brush);

  00306	8d 8d 60 ff ff
	ff		 lea	 ecx, DWORD PTR _brush$[ebp]
  0030c	51		 push	 ecx
  0030d	8d 4d d4	 lea	 ecx, DWORD PTR _rect$[ebp]
  00310	e8 00 00 00 00	 call	 ??BCRect@@QAEPAUtagRECT@@XZ ; CRect::operator tagRECT *
  00315	50		 push	 eax
  00316	8d 8d 74 ff ff
	ff		 lea	 ecx, DWORD PTR _dc$[ebp]
  0031c	e8 00 00 00 00	 call	 ?FillRect@CDC@@QAEXPBUtagRECT@@PAVCBrush@@@Z ; CDC::FillRect

; 57   : 	dc.SelectObject(pOldBrush);

  00321	8b 95 5c ff ff
	ff		 mov	 edx, DWORD PTR _pOldBrush$[ebp]
  00327	52		 push	 edx
  00328	8d 8d 74 ff ff
	ff		 lea	 ecx, DWORD PTR _dc$[ebp]
  0032e	e8 00 00 00 00	 call	 ?SelectObject@CDC@@QAEPAVCBrush@@PAV2@@Z ; CDC::SelectObject

; 58   : 
; 59   : 	CString tempStrInfo = m_strInfo;

  00333	8b 85 3c ff ff
	ff		 mov	 eax, DWORD PTR _this$[ebp]
  00339	83 c0 64	 add	 eax, 100		; 00000064H
  0033c	50		 push	 eax
  0033d	8d 8d 70 ff ff
	ff		 lea	 ecx, DWORD PTR _tempStrInfo$[ebp]
  00343	ff 15 00 00 00
	00		 call	 DWORD PTR __imp_??0?$CStringT@DV?$StrTraitMFC_DLL@DV?$ChTraitsCRT@D@ATL@@@@@ATL@@QAE@ABV01@@Z
  00349	c6 45 fc 03	 mov	 BYTE PTR __$EHRec$[ebp+8], 3

; 60   : 	CRect textRect = CRect(rect.left+5,rect.top+3,rect.right,rect.top + 23);

  0034d	8b 4d d8	 mov	 ecx, DWORD PTR _rect$[ebp+4]
  00350	83 c1 17	 add	 ecx, 23			; 00000017H
  00353	51		 push	 ecx
  00354	8b 55 dc	 mov	 edx, DWORD PTR _rect$[ebp+8]
  00357	52		 push	 edx
  00358	8b 45 d8	 mov	 eax, DWORD PTR _rect$[ebp+4]
  0035b	83 c0 03	 add	 eax, 3
  0035e	50		 push	 eax
  0035f	8b 4d d4	 mov	 ecx, DWORD PTR _rect$[ebp]
  00362	83 c1 05	 add	 ecx, 5
  00365	51		 push	 ecx
  00366	8d 4d e4	 lea	 ecx, DWORD PTR _textRect$[ebp]
  00369	e8 00 00 00 00	 call	 ??0CRect@@QAE@HHHH@Z	; CRect::CRect

; 61   : 	int nowindex = -1;

  0036e	c7 85 68 ff ff
	ff ff ff ff ff	 mov	 DWORD PTR _nowindex$[ebp], -1

; 62   : 	dc.SetTextColor(m_clrFontText);

  00378	8b 95 3c ff ff
	ff		 mov	 edx, DWORD PTR _this$[ebp]
  0037e	8b 42 54	 mov	 eax, DWORD PTR [edx+84]
  00381	50		 push	 eax
  00382	8d 8d 74 ff ff
	ff		 lea	 ecx, DWORD PTR _dc$[ebp]
  00388	e8 00 00 00 00	 call	 ?SetTextColor@CDC@@UAEKK@Z ; CDC::SetTextColor
$L197502:

; 63   : 	while((nowindex = tempStrInfo.Find("$#",0))!= -1)

  0038d	6a 00		 push	 0
  0038f	68 00 00 00 00	 push	 OFFSET FLAT:$SG197504
  00394	8d 8d 70 ff ff
	ff		 lea	 ecx, DWORD PTR _tempStrInfo$[ebp]
  0039a	ff 15 00 00 00
	00		 call	 DWORD PTR __imp_?Find@?$CStringT@DV?$StrTraitMFC_DLL@DV?$ChTraitsCRT@D@ATL@@@@@ATL@@QBEHPBDH@Z
  003a0	89 85 68 ff ff
	ff		 mov	 DWORD PTR _nowindex$[ebp], eax
  003a6	83 bd 68 ff ff
	ff ff		 cmp	 DWORD PTR _nowindex$[ebp], -1
  003ad	0f 84 0f 01 00
	00		 je	 $L197503

; 64   : 	{
; 65   : 		CString temp = tempStrInfo.Left(nowindex);		

  003b3	8b 8d 68 ff ff
	ff		 mov	 ecx, DWORD PTR _nowindex$[ebp]
  003b9	51		 push	 ecx
  003ba	8d 95 4c ff ff
	ff		 lea	 edx, DWORD PTR _temp$197505[ebp]
  003c0	52		 push	 edx
  003c1	8d 8d 70 ff ff
	ff		 lea	 ecx, DWORD PTR _tempStrInfo$[ebp]
  003c7	ff 15 00 00 00
	00		 call	 DWORD PTR __imp_?Left@?$CStringT@DV?$StrTraitMFC_DLL@DV?$ChTraitsCRT@D@ATL@@@@@ATL@@QBE?AV12@H@Z
  003cd	c6 45 fc 04	 mov	 BYTE PTR __$EHRec$[ebp+8], 4

; 66   : 		//dc.DrawText(temp,textRect,DT_NOPREFIX);
; 67   : 		int rows = DrawMultiLine(temp, textRect, dc );

  003d1	8d 85 74 ff ff
	ff		 lea	 eax, DWORD PTR _dc$[ebp]
  003d7	50		 push	 eax
  003d8	83 ec 10	 sub	 esp, 16			; 00000010H
  003db	8b cc		 mov	 ecx, esp
  003dd	8b 55 e4	 mov	 edx, DWORD PTR _textRect$[ebp]
  003e0	89 11		 mov	 DWORD PTR [ecx], edx
  003e2	8b 45 e8	 mov	 eax, DWORD PTR _textRect$[ebp+4]
  003e5	89 41 04	 mov	 DWORD PTR [ecx+4], eax
  003e8	8b 55 ec	 mov	 edx, DWORD PTR _textRect$[ebp+8]
  003eb	89 51 08	 mov	 DWORD PTR [ecx+8], edx
  003ee	8b 45 f0	 mov	 eax, DWORD PTR _textRect$[ebp+12]
  003f1	89 41 0c	 mov	 DWORD PTR [ecx+12], eax
  003f4	51		 push	 ecx
  003f5	8b cc		 mov	 ecx, esp
  003f7	89 a5 48 ff ff
	ff		 mov	 DWORD PTR $T198263[ebp], esp
  003fd	8d 95 4c ff ff
	ff		 lea	 edx, DWORD PTR _temp$197505[ebp]
  00403	52		 push	 edx
  00404	ff 15 00 00 00
	00		 call	 DWORD PTR __imp_??0?$CStringT@DV?$StrTraitMFC_DLL@DV?$ChTraitsCRT@D@ATL@@@@@ATL@@QAE@ABV01@@Z
  0040a	89 85 20 ff ff
	ff		 mov	 DWORD PTR tv257[ebp], eax
  00410	8b 8d 3c ff ff
	ff		 mov	 ecx, DWORD PTR _this$[ebp]
  00416	e8 00 00 00 00	 call	 ?DrawMultiLine@CCWToolTips@@QAEHV?$CStringT@DV?$StrTraitMFC_DLL@DV?$ChTraitsCRT@D@ATL@@@@@ATL@@VCRect@@AAVCDC@@@Z ; CCWToolTips::DrawMultiLine
  0041b	89 85 1c ff ff
	ff		 mov	 DWORD PTR tv258[ebp], eax
  00421	8b 85 1c ff ff
	ff		 mov	 eax, DWORD PTR tv258[ebp]
  00427	89 85 50 ff ff
	ff		 mov	 DWORD PTR _rows$197507[ebp], eax

; 68   : 		textRect.top+= rows * LINE_HIGHT;

  0042d	8b 8d 50 ff ff
	ff		 mov	 ecx, DWORD PTR _rows$197507[ebp]
  00433	6b c9 0f	 imul	 ecx, 15			; 0000000fH
  00436	03 4d e8	 add	 ecx, DWORD PTR _textRect$[ebp+4]
  00439	89 4d e8	 mov	 DWORD PTR _textRect$[ebp+4], ecx

; 69   : 		textRect.bottom += rows * LINE_HIGHT;	

  0043c	8b 95 50 ff ff
	ff		 mov	 edx, DWORD PTR _rows$197507[ebp]
  00442	6b d2 0f	 imul	 edx, 15			; 0000000fH
  00445	03 55 f0	 add	 edx, DWORD PTR _textRect$[ebp+12]
  00448	89 55 f0	 mov	 DWORD PTR _textRect$[ebp+12], edx

; 70   : 		tempStrInfo = tempStrInfo.Right(tempStrInfo.GetLength() - 2 - nowindex);

  0044b	8d 8d 70 ff ff
	ff		 lea	 ecx, DWORD PTR _tempStrInfo$[ebp]
  00451	ff 15 00 00 00
	00		 call	 DWORD PTR __imp_?GetLength@?$CSimpleStringT@D$00@ATL@@QBEHXZ
  00457	83 e8 02	 sub	 eax, 2
  0045a	2b 85 68 ff ff
	ff		 sub	 eax, DWORD PTR _nowindex$[ebp]
  00460	50		 push	 eax
  00461	8d 85 44 ff ff
	ff		 lea	 eax, DWORD PTR $T198264[ebp]
  00467	50		 push	 eax
  00468	8d 8d 70 ff ff
	ff		 lea	 ecx, DWORD PTR _tempStrInfo$[ebp]
  0046e	ff 15 00 00 00
	00		 call	 DWORD PTR __imp_?Right@?$CStringT@DV?$StrTraitMFC_DLL@DV?$ChTraitsCRT@D@ATL@@@@@ATL@@QBE?AV12@H@Z
  00474	89 85 18 ff ff
	ff		 mov	 DWORD PTR tv194[ebp], eax
  0047a	8b 8d 18 ff ff
	ff		 mov	 ecx, DWORD PTR tv194[ebp]
  00480	89 8d 14 ff ff
	ff		 mov	 DWORD PTR tv260[ebp], ecx
  00486	c6 45 fc 05	 mov	 BYTE PTR __$EHRec$[ebp+8], 5
  0048a	8b 95 14 ff ff
	ff		 mov	 edx, DWORD PTR tv260[ebp]
  00490	52		 push	 edx
  00491	8d 8d 70 ff ff
	ff		 lea	 ecx, DWORD PTR _tempStrInfo$[ebp]
  00497	ff 15 00 00 00
	00		 call	 DWORD PTR __imp_??4?$CStringT@DV?$StrTraitMFC_DLL@DV?$ChTraitsCRT@D@ATL@@@@@ATL@@QAEAAV01@ABV01@@Z
  0049d	c6 45 fc 04	 mov	 BYTE PTR __$EHRec$[ebp+8], 4
  004a1	8d 8d 44 ff ff
	ff		 lea	 ecx, DWORD PTR $T198264[ebp]
  004a7	ff 15 00 00 00
	00		 call	 DWORD PTR __imp_??1?$CStringT@DV?$StrTraitMFC_DLL@DV?$ChTraitsCRT@D@ATL@@@@@ATL@@QAE@XZ

; 71   : 	}

  004ad	c6 45 fc 03	 mov	 BYTE PTR __$EHRec$[ebp+8], 3
  004b1	8d 8d 4c ff ff
	ff		 lea	 ecx, DWORD PTR _temp$197505[ebp]
  004b7	ff 15 00 00 00
	00		 call	 DWORD PTR __imp_??1?$CStringT@DV?$StrTraitMFC_DLL@DV?$ChTraitsCRT@D@ATL@@@@@ATL@@QAE@XZ
  004bd	e9 cb fe ff ff	 jmp	 $L197502
$L197503:

; 72   : 
; 73   : 	DrawMultiLine(tempStrInfo, textRect, dc );

  004c2	8d 85 74 ff ff
	ff		 lea	 eax, DWORD PTR _dc$[ebp]
  004c8	50		 push	 eax
  004c9	83 ec 10	 sub	 esp, 16			; 00000010H
  004cc	8b cc		 mov	 ecx, esp
  004ce	8b 55 e4	 mov	 edx, DWORD PTR _textRect$[ebp]
  004d1	89 11		 mov	 DWORD PTR [ecx], edx
  004d3	8b 45 e8	 mov	 eax, DWORD PTR _textRect$[ebp+4]
  004d6	89 41 04	 mov	 DWORD PTR [ecx+4], eax
  004d9	8b 55 ec	 mov	 edx, DWORD PTR _textRect$[ebp+8]
  004dc	89 51 08	 mov	 DWORD PTR [ecx+8], edx
  004df	8b 45 f0	 mov	 eax, DWORD PTR _textRect$[ebp+12]
  004e2	89 41 0c	 mov	 DWORD PTR [ecx+12], eax
  004e5	51		 push	 ecx
  004e6	8b cc		 mov	 ecx, esp
  004e8	89 a5 40 ff ff
	ff		 mov	 DWORD PTR $T198265[ebp], esp
  004ee	8d 95 70 ff ff
	ff		 lea	 edx, DWORD PTR _tempStrInfo$[ebp]
  004f4	52		 push	 edx
  004f5	ff 15 00 00 00
	00		 call	 DWORD PTR __imp_??0?$CStringT@DV?$StrTraitMFC_DLL@DV?$ChTraitsCRT@D@ATL@@@@@ATL@@QAE@ABV01@@Z
  004fb	89 85 10 ff ff
	ff		 mov	 DWORD PTR tv264[ebp], eax
  00501	8b 8d 3c ff ff
	ff		 mov	 ecx, DWORD PTR _this$[ebp]
  00507	e8 00 00 00 00	 call	 ?DrawMultiLine@CCWToolTips@@QAEHV?$CStringT@DV?$StrTraitMFC_DLL@DV?$ChTraitsCRT@D@ATL@@@@@ATL@@VCRect@@AAVCDC@@@Z ; CCWToolTips::DrawMultiLine

; 74   : }

  0050c	c6 45 fc 02	 mov	 BYTE PTR __$EHRec$[ebp+8], 2
  00510	8d 8d 70 ff ff
	ff		 lea	 ecx, DWORD PTR _tempStrInfo$[ebp]
  00516	ff 15 00 00 00
	00		 call	 DWORD PTR __imp_??1?$CStringT@DV?$StrTraitMFC_DLL@DV?$ChTraitsCRT@D@ATL@@@@@ATL@@QAE@XZ
  0051c	c6 45 fc 01	 mov	 BYTE PTR __$EHRec$[ebp+8], 1
  00520	8d 8d 60 ff ff
	ff		 lea	 ecx, DWORD PTR _brush$[ebp]
  00526	e8 00 00 00 00	 call	 ??1CBrush@@UAE@XZ	; CBrush::~CBrush
  0052b	c6 45 fc 00	 mov	 BYTE PTR __$EHRec$[ebp+8], 0
  0052f	8d 8d 54 ff ff
	ff		 lea	 ecx, DWORD PTR _font$[ebp]
  00535	e8 00 00 00 00	 call	 ??1CFont@@UAE@XZ	; CFont::~CFont
  0053a	c7 45 fc ff ff
	ff ff		 mov	 DWORD PTR __$EHRec$[ebp+8], -1
  00541	8d 8d 74 ff ff
	ff		 lea	 ecx, DWORD PTR _dc$[ebp]
  00547	e8 00 00 00 00	 call	 ??1CPaintDC@@UAE@XZ	; CPaintDC::~CPaintDC
  0054c	8b 4d f4	 mov	 ecx, DWORD PTR __$EHRec$[ebp]
  0054f	64 89 0d 00 00
	00 00		 mov	 DWORD PTR fs:__except_list, ecx
  00556	8b 4d d0	 mov	 ecx, DWORD PTR __$ArrayPad$[ebp]
  00559	e8 00 00 00 00	 call	 @__security_check_cookie@4
  0055e	8b e5		 mov	 esp, ebp
  00560	5d		 pop	 ebp
  00561	c3		 ret	 0
_TEXT	ENDS
text$x	SEGMENT
$L198266:
  00000	8d 8d 74 ff ff
	ff		 lea	 ecx, DWORD PTR _dc$[ebp]
  00006	e9 00 00 00 00	 jmp	 ??1CPaintDC@@UAE@XZ	; CPaintDC::~CPaintDC
$L198267:
  0000b	8d 8d 54 ff ff
	ff		 lea	 ecx, DWORD PTR _font$[ebp]
  00011	e9 00 00 00 00	 jmp	 ??1CFont@@UAE@XZ	; CFont::~CFont
$L198268:
  00016	8d 8d 60 ff ff
	ff		 lea	 ecx, DWORD PTR _brush$[ebp]
  0001c	e9 00 00 00 00	 jmp	 ??1CBrush@@UAE@XZ	; CBrush::~CBrush
$L198269:
  00021	8d 8d 70 ff ff
	ff		 lea	 ecx, DWORD PTR _tempStrInfo$[ebp]
  00027	ff 25 00 00 00
	00		 jmp	 DWORD PTR __imp_??1?$CStringT@DV?$StrTraitMFC_DLL@DV?$ChTraitsCRT@D@ATL@@@@@ATL@@QAE@XZ
$L198270:
  0002d	8d 8d 4c ff ff
	ff		 lea	 ecx, DWORD PTR _temp$197505[ebp]
  00033	ff 25 00 00 00
	00		 jmp	 DWORD PTR __imp_??1?$CStringT@DV?$StrTraitMFC_DLL@DV?$ChTraitsCRT@D@ATL@@@@@ATL@@QAE@XZ
$L198272:
  00039	8d 8d 44 ff ff
	ff		 lea	 ecx, DWORD PTR $T198264[ebp]
  0003f	ff 25 00 00 00
	00		 jmp	 DWORD PTR __imp_??1?$CStringT@DV?$StrTraitMFC_DLL@DV?$ChTraitsCRT@D@ATL@@@@@ATL@@QAE@XZ
__ehhandler$?OnPaint@CCWToolTips@@QAEXXZ:
  00045	b8 00 00 00 00	 mov	 eax, OFFSET FLAT:$T198277
  0004a	e9 00 00 00 00	 jmp	 ___CxxFrameHandler
text$x	ENDS
?OnPaint@CCWToolTips@@QAEXXZ ENDP			; CCWToolTips::OnPaint
PUBLIC	?Width@CRect@@QBEHXZ				; CRect::Width
PUBLIC	?DrawTextA@CDC@@QAEHABV?$CStringT@DV?$StrTraitMFC_DLL@DV?$ChTraitsCRT@D@ATL@@@@@ATL@@PAUtagRECT@@I@Z ; CDC::DrawTextA
PUBLIC	?GetTextExtent@CDC@@QBE?AVCSize@@ABV?$CStringT@DV?$StrTraitMFC_DLL@DV?$ChTraitsCRT@D@ATL@@@@@ATL@@@Z ; CDC::GetTextExtent
EXTRN	__imp_?GetBuffer@?$CSimpleStringT@D$00@ATL@@QAEPADXZ:NEAR
EXTRN	__imp_??0?$CStringT@DV?$StrTraitMFC_DLL@DV?$ChTraitsCRT@D@ATL@@@@@ATL@@QAE@PBD@Z:NEAR
EXTRN	__imp_??4?$CStringT@DV?$StrTraitMFC_DLL@DV?$ChTraitsCRT@D@ATL@@@@@ATL@@QAEAAV01@PBD@Z:NEAR
EXTRN	__imp_??Y?$CStringT@DV?$StrTraitMFC_DLL@DV?$ChTraitsCRT@D@ATL@@@@@ATL@@QAEAAV01@D@Z:NEAR
xdata$x	SEGMENT
$T198294 DD	0ffffffffH
	DD	FLAT:$L198288
	DD	00H
	DD	FLAT:$L198289
	DD	00H
	DD	FLAT:$L198290
$T198292 DD	019930520H
	DD	03H
	DD	FLAT:$T198294
	DD	2 DUP(00H)
	DD	2 DUP(00H)
; Function compile flags: /Odt
xdata$x	ENDS
_TEXT	SEGMENT
_this$ = -72						; size = 4
$T198287 = -68						; size = 4
$T198286 = -64						; size = 4
_i$197538 = -60						; size = 4
_pos$ = -56						; size = 4
_one$ = -52						; size = 8
_total$ = -44						; size = 4
_size$ = -40						; size = 8
_rows$ = -32						; size = 4
_line$ = -28						; size = 4
_lastpos$ = -24						; size = 4
_isMultiByte$ = -20					; size = 4
_p$ = -16						; size = 4
__$EHRec$ = -12						; size = 12
_tempStrInfo$ = 8					; size = 4
_textRect$ = 12						; size = 16
_dc$ = 28						; size = 4
?DrawMultiLine@CCWToolTips@@QAEHV?$CStringT@DV?$StrTraitMFC_DLL@DV?$ChTraitsCRT@D@ATL@@@@@ATL@@VCRect@@AAVCDC@@@Z PROC NEAR ; CCWToolTips::DrawMultiLine
; _this$ = ecx

; 78   : {

  00570	55		 push	 ebp
  00571	8b ec		 mov	 ebp, esp
  00573	6a ff		 push	 -1
  00575	68 00 00 00 00	 push	 __ehhandler$?DrawMultiLine@CCWToolTips@@QAEHV?$CStringT@DV?$StrTraitMFC_DLL@DV?$ChTraitsCRT@D@ATL@@@@@ATL@@VCRect@@AAVCDC@@@Z
  0057a	64 a1 00 00 00
	00		 mov	 eax, DWORD PTR fs:__except_list
  00580	50		 push	 eax
  00581	64 89 25 00 00
	00 00		 mov	 DWORD PTR fs:__except_list, esp
  00588	83 ec 3c	 sub	 esp, 60			; 0000003cH
  0058b	89 4d b8	 mov	 DWORD PTR _this$[ebp], ecx
  0058e	c7 45 fc 00 00
	00 00		 mov	 DWORD PTR __$EHRec$[ebp+8], 0

; 79   : 	int rows = 0;

  00595	c7 45 e0 00 00
	00 00		 mov	 DWORD PTR _rows$[ebp], 0

; 80   : 	CSize size = dc.GetTextExtent(tempStrInfo);

  0059c	8d 45 08	 lea	 eax, DWORD PTR _tempStrInfo$[ebp]
  0059f	50		 push	 eax
  005a0	8d 4d d8	 lea	 ecx, DWORD PTR _size$[ebp]
  005a3	51		 push	 ecx
  005a4	8b 4d 1c	 mov	 ecx, DWORD PTR _dc$[ebp]
  005a7	e8 00 00 00 00	 call	 ?GetTextExtent@CDC@@QBE?AVCSize@@ABV?$CStringT@DV?$StrTraitMFC_DLL@DV?$ChTraitsCRT@D@ATL@@@@@ATL@@@Z ; CDC::GetTextExtent

; 81   : 	CSize one = dc.GetTextExtent("a");

  005ac	68 00 00 00 00	 push	 OFFSET FLAT:$SG197523
  005b1	8d 4d c0	 lea	 ecx, DWORD PTR $T198286[ebp]
  005b4	ff 15 00 00 00
	00		 call	 DWORD PTR __imp_??0?$CStringT@DV?$StrTraitMFC_DLL@DV?$ChTraitsCRT@D@ATL@@@@@ATL@@QAE@PBD@Z
  005ba	c6 45 fc 01	 mov	 BYTE PTR __$EHRec$[ebp+8], 1
  005be	8d 55 c0	 lea	 edx, DWORD PTR $T198286[ebp]
  005c1	52		 push	 edx
  005c2	8d 45 cc	 lea	 eax, DWORD PTR _one$[ebp]
  005c5	50		 push	 eax
  005c6	8b 4d 1c	 mov	 ecx, DWORD PTR _dc$[ebp]
  005c9	e8 00 00 00 00	 call	 ?GetTextExtent@CDC@@QBE?AVCSize@@ABV?$CStringT@DV?$StrTraitMFC_DLL@DV?$ChTraitsCRT@D@ATL@@@@@ATL@@@Z ; CDC::GetTextExtent
  005ce	c6 45 fc 00	 mov	 BYTE PTR __$EHRec$[ebp+8], 0
  005d2	8d 4d c0	 lea	 ecx, DWORD PTR $T198286[ebp]
  005d5	ff 15 00 00 00
	00		 call	 DWORD PTR __imp_??1?$CStringT@DV?$StrTraitMFC_DLL@DV?$ChTraitsCRT@D@ATL@@@@@ATL@@QAE@XZ

; 82   : 
; 83   : 	textRect.right -= one.cx;

  005db	8b 4d 14	 mov	 ecx, DWORD PTR _textRect$[ebp+8]
  005de	2b 4d cc	 sub	 ecx, DWORD PTR _one$[ebp]
  005e1	89 4d 14	 mov	 DWORD PTR _textRect$[ebp+8], ecx

; 84   : 	int pos = textRect.Width()/one.cx - 1;

  005e4	8d 4d 0c	 lea	 ecx, DWORD PTR _textRect$[ebp]
  005e7	e8 00 00 00 00	 call	 ?Width@CRect@@QBEHXZ	; CRect::Width
  005ec	99		 cdq
  005ed	f7 7d cc	 idiv	 DWORD PTR _one$[ebp]
  005f0	83 e8 01	 sub	 eax, 1
  005f3	89 45 c8	 mov	 DWORD PTR _pos$[ebp], eax

; 85   : 	LPTSTR p = tempStrInfo.GetBuffer();

  005f6	8d 4d 08	 lea	 ecx, DWORD PTR _tempStrInfo$[ebp]
  005f9	ff 15 00 00 00
	00		 call	 DWORD PTR __imp_?GetBuffer@?$CSimpleStringT@D$00@ATL@@QAEPADXZ
  005ff	89 45 f0	 mov	 DWORD PTR _p$[ebp], eax

; 86   : 	int total = 0;

  00602	c7 45 d4 00 00
	00 00		 mov	 DWORD PTR _total$[ebp], 0
$L197528:

; 87   : 	while(p[total] != 0)

  00609	8b 55 f0	 mov	 edx, DWORD PTR _p$[ebp]
  0060c	03 55 d4	 add	 edx, DWORD PTR _total$[ebp]
  0060f	0f be 02	 movsx	 eax, BYTE PTR [edx]
  00612	85 c0		 test	 eax, eax
  00614	74 0b		 je	 SHORT $L197529

; 88   : 	{
; 89   : 		total ++;

  00616	8b 4d d4	 mov	 ecx, DWORD PTR _total$[ebp]
  00619	83 c1 01	 add	 ecx, 1
  0061c	89 4d d4	 mov	 DWORD PTR _total$[ebp], ecx

; 90   : 	}

  0061f	eb e8		 jmp	 SHORT $L197528
$L197529:

; 91   : 
; 92   : 	CString line;

  00621	8d 4d e4	 lea	 ecx, DWORD PTR _line$[ebp]
  00624	ff 15 00 00 00
	00		 call	 DWORD PTR __imp_??0?$CStringT@DV?$StrTraitMFC_DLL@DV?$ChTraitsCRT@D@ATL@@@@@ATL@@QAE@XZ
  0062a	c6 45 fc 02	 mov	 BYTE PTR __$EHRec$[ebp+8], 2

; 93   : 	int lastpos = 0;

  0062e	c7 45 e8 00 00
	00 00		 mov	 DWORD PTR _lastpos$[ebp], 0

; 94   : 	int isMultiByte = 0;

  00635	c7 45 ec 00 00
	00 00		 mov	 DWORD PTR _isMultiByte$[ebp], 0

; 95   : 	if(textRect.Width() < size.cx)

  0063c	8d 4d 0c	 lea	 ecx, DWORD PTR _textRect$[ebp]
  0063f	e8 00 00 00 00	 call	 ?Width@CRect@@QBEHXZ	; CRect::Width
  00644	3b 45 d8	 cmp	 eax, DWORD PTR _size$[ebp]
  00647	0f 8d fc 00 00
	00		 jge	 $L197533

; 96   : 	{
; 97   : 		textRect.right += 2;

  0064d	8b 55 14	 mov	 edx, DWORD PTR _textRect$[ebp+8]
  00650	83 c2 02	 add	 edx, 2
  00653	89 55 14	 mov	 DWORD PTR _textRect$[ebp+8], edx
$L197535:

; 98   : 		while(lastpos < total)

  00656	8b 45 e8	 mov	 eax, DWORD PTR _lastpos$[ebp]
  00659	3b 45 d4	 cmp	 eax, DWORD PTR _total$[ebp]
  0065c	0f 8d e5 00 00
	00		 jge	 $L197536

; 99   : 		{
; 100  : 			if(pos > total)

  00662	8b 4d c8	 mov	 ecx, DWORD PTR _pos$[ebp]
  00665	3b 4d d4	 cmp	 ecx, DWORD PTR _total$[ebp]
  00668	7e 09		 jle	 SHORT $L197537

; 101  : 				pos = total - 1;

  0066a	8b 55 d4	 mov	 edx, DWORD PTR _total$[ebp]
  0066d	83 ea 01	 sub	 edx, 1
  00670	89 55 c8	 mov	 DWORD PTR _pos$[ebp], edx
$L197537:

; 102  : 			for(int i = lastpos ; i<pos+1; i++ )

  00673	8b 45 e8	 mov	 eax, DWORD PTR _lastpos$[ebp]
  00676	89 45 c4	 mov	 DWORD PTR _i$197538[ebp], eax
  00679	eb 09		 jmp	 SHORT $L197539
$L197540:
  0067b	8b 4d c4	 mov	 ecx, DWORD PTR _i$197538[ebp]
  0067e	83 c1 01	 add	 ecx, 1
  00681	89 4d c4	 mov	 DWORD PTR _i$197538[ebp], ecx
$L197539:
  00684	8b 55 c8	 mov	 edx, DWORD PTR _pos$[ebp]
  00687	83 c2 01	 add	 edx, 1
  0068a	39 55 c4	 cmp	 DWORD PTR _i$197538[ebp], edx
  0068d	7d 51		 jge	 SHORT $L197541

; 103  : 			{
; 104  : 				line += p[i];

  0068f	8b 45 f0	 mov	 eax, DWORD PTR _p$[ebp]
  00692	03 45 c4	 add	 eax, DWORD PTR _i$197538[ebp]
  00695	8a 08		 mov	 cl, BYTE PTR [eax]
  00697	51		 push	 ecx
  00698	8d 4d e4	 lea	 ecx, DWORD PTR _line$[ebp]
  0069b	ff 15 00 00 00
	00		 call	 DWORD PTR __imp_??Y?$CStringT@DV?$StrTraitMFC_DLL@DV?$ChTraitsCRT@D@ATL@@@@@ATL@@QAEAAV01@D@Z

; 105  : 				if(p[i] & 0x80)

  006a1	8b 55 f0	 mov	 edx, DWORD PTR _p$[ebp]
  006a4	03 55 c4	 add	 edx, DWORD PTR _i$197538[ebp]
  006a7	0f be 02	 movsx	 eax, BYTE PTR [edx]
  006aa	25 80 00 00 00	 and	 eax, 128		; 00000080H
  006af	74 2d		 je	 SHORT $L197542

; 106  : 				{
; 107  : 					line += p[i+1];

  006b1	8b 4d f0	 mov	 ecx, DWORD PTR _p$[ebp]
  006b4	03 4d c4	 add	 ecx, DWORD PTR _i$197538[ebp]
  006b7	8a 51 01	 mov	 dl, BYTE PTR [ecx+1]
  006ba	52		 push	 edx
  006bb	8d 4d e4	 lea	 ecx, DWORD PTR _line$[ebp]
  006be	ff 15 00 00 00
	00		 call	 DWORD PTR __imp_??Y?$CStringT@DV?$StrTraitMFC_DLL@DV?$ChTraitsCRT@D@ATL@@@@@ATL@@QAEAAV01@D@Z

; 108  : 					if(i == pos)

  006c4	8b 45 c4	 mov	 eax, DWORD PTR _i$197538[ebp]
  006c7	3b 45 c8	 cmp	 eax, DWORD PTR _pos$[ebp]
  006ca	75 09		 jne	 SHORT $L197543

; 109  : 						pos ++;

  006cc	8b 4d c8	 mov	 ecx, DWORD PTR _pos$[ebp]
  006cf	83 c1 01	 add	 ecx, 1
  006d2	89 4d c8	 mov	 DWORD PTR _pos$[ebp], ecx
$L197543:

; 110  : 					i++;

  006d5	8b 55 c4	 mov	 edx, DWORD PTR _i$197538[ebp]
  006d8	83 c2 01	 add	 edx, 1
  006db	89 55 c4	 mov	 DWORD PTR _i$197538[ebp], edx
$L197542:

; 111  : 				}
; 112  : 			}

  006de	eb 9b		 jmp	 SHORT $L197540
$L197541:

; 113  : 
; 114  : 			lastpos = pos+1;

  006e0	8b 45 c8	 mov	 eax, DWORD PTR _pos$[ebp]
  006e3	83 c0 01	 add	 eax, 1
  006e6	89 45 e8	 mov	 DWORD PTR _lastpos$[ebp], eax

; 115  : 			dc.DrawText(line,textRect,DT_NOPREFIX);

  006e9	68 00 08 00 00	 push	 2048			; 00000800H
  006ee	8d 4d 0c	 lea	 ecx, DWORD PTR _textRect$[ebp]
  006f1	e8 00 00 00 00	 call	 ??BCRect@@QAEPAUtagRECT@@XZ ; CRect::operator tagRECT *
  006f6	50		 push	 eax
  006f7	8d 4d e4	 lea	 ecx, DWORD PTR _line$[ebp]
  006fa	51		 push	 ecx
  006fb	8b 4d 1c	 mov	 ecx, DWORD PTR _dc$[ebp]
  006fe	e8 00 00 00 00	 call	 ?DrawTextA@CDC@@QAEHABV?$CStringT@DV?$StrTraitMFC_DLL@DV?$ChTraitsCRT@D@ATL@@@@@ATL@@PAUtagRECT@@I@Z ; CDC::DrawTextA

; 116  : 			rows ++;

  00703	8b 55 e0	 mov	 edx, DWORD PTR _rows$[ebp]
  00706	83 c2 01	 add	 edx, 1
  00709	89 55 e0	 mov	 DWORD PTR _rows$[ebp], edx

; 117  : 
; 118  : 			line = "";

  0070c	68 00 00 00 00	 push	 OFFSET FLAT:$SG197544
  00711	8d 4d e4	 lea	 ecx, DWORD PTR _line$[ebp]
  00714	ff 15 00 00 00
	00		 call	 DWORD PTR __imp_??4?$CStringT@DV?$StrTraitMFC_DLL@DV?$ChTraitsCRT@D@ATL@@@@@ATL@@QAEAAV01@PBD@Z

; 119  : 			textRect.top += LINE_HIGHT;

  0071a	8b 45 10	 mov	 eax, DWORD PTR _textRect$[ebp+4]
  0071d	83 c0 0f	 add	 eax, 15			; 0000000fH
  00720	89 45 10	 mov	 DWORD PTR _textRect$[ebp+4], eax

; 120  : 			textRect.bottom += LINE_HIGHT;

  00723	8b 4d 18	 mov	 ecx, DWORD PTR _textRect$[ebp+12]
  00726	83 c1 0f	 add	 ecx, 15			; 0000000fH
  00729	89 4d 18	 mov	 DWORD PTR _textRect$[ebp+12], ecx

; 121  : 			pos += textRect.Width()/one.cx - 1;

  0072c	8d 4d 0c	 lea	 ecx, DWORD PTR _textRect$[ebp]
  0072f	e8 00 00 00 00	 call	 ?Width@CRect@@QBEHXZ	; CRect::Width
  00734	99		 cdq
  00735	f7 7d cc	 idiv	 DWORD PTR _one$[ebp]
  00738	8b 55 c8	 mov	 edx, DWORD PTR _pos$[ebp]
  0073b	8d 44 02 ff	 lea	 eax, DWORD PTR [edx+eax-1]
  0073f	89 45 c8	 mov	 DWORD PTR _pos$[ebp], eax

; 122  : 		}

  00742	e9 0f ff ff ff	 jmp	 $L197535
$L197536:

; 123  : 	}
; 124  : 	else

  00747	eb 23		 jmp	 SHORT $L197545
$L197533:

; 125  : 	{
; 126  : 		rows ++;

  00749	8b 4d e0	 mov	 ecx, DWORD PTR _rows$[ebp]
  0074c	83 c1 01	 add	 ecx, 1
  0074f	89 4d e0	 mov	 DWORD PTR _rows$[ebp], ecx

; 127  : 		dc.DrawText(tempStrInfo,textRect,DT_NOPREFIX);

  00752	68 00 08 00 00	 push	 2048			; 00000800H
  00757	8d 4d 0c	 lea	 ecx, DWORD PTR _textRect$[ebp]
  0075a	e8 00 00 00 00	 call	 ??BCRect@@QAEPAUtagRECT@@XZ ; CRect::operator tagRECT *
  0075f	50		 push	 eax
  00760	8d 55 08	 lea	 edx, DWORD PTR _tempStrInfo$[ebp]
  00763	52		 push	 edx
  00764	8b 4d 1c	 mov	 ecx, DWORD PTR _dc$[ebp]
  00767	e8 00 00 00 00	 call	 ?DrawTextA@CDC@@QAEHABV?$CStringT@DV?$StrTraitMFC_DLL@DV?$ChTraitsCRT@D@ATL@@@@@ATL@@PAUtagRECT@@I@Z ; CDC::DrawTextA
$L197545:

; 128  : 	}
; 129  : 
; 130  : 	return rows;

  0076c	8b 45 e0	 mov	 eax, DWORD PTR _rows$[ebp]
  0076f	89 45 bc	 mov	 DWORD PTR $T198287[ebp], eax
  00772	c6 45 fc 00	 mov	 BYTE PTR __$EHRec$[ebp+8], 0
  00776	8d 4d e4	 lea	 ecx, DWORD PTR _line$[ebp]
  00779	ff 15 00 00 00
	00		 call	 DWORD PTR __imp_??1?$CStringT@DV?$StrTraitMFC_DLL@DV?$ChTraitsCRT@D@ATL@@@@@ATL@@QAE@XZ
  0077f	c7 45 fc ff ff
	ff ff		 mov	 DWORD PTR __$EHRec$[ebp+8], -1
  00786	8d 4d 08	 lea	 ecx, DWORD PTR _tempStrInfo$[ebp]
  00789	ff 15 00 00 00
	00		 call	 DWORD PTR __imp_??1?$CStringT@DV?$StrTraitMFC_DLL@DV?$ChTraitsCRT@D@ATL@@@@@ATL@@QAE@XZ
  0078f	8b 45 bc	 mov	 eax, DWORD PTR $T198287[ebp]

; 131  : }

  00792	8b 4d f4	 mov	 ecx, DWORD PTR __$EHRec$[ebp]
  00795	64 89 0d 00 00
	00 00		 mov	 DWORD PTR fs:__except_list, ecx
  0079c	8b e5		 mov	 esp, ebp
  0079e	5d		 pop	 ebp
  0079f	c2 18 00	 ret	 24			; 00000018H
_TEXT	ENDS
text$x	SEGMENT
$L198288:
  0004f	8d 4d 08	 lea	 ecx, DWORD PTR _tempStrInfo$[ebp]
  00052	ff 25 00 00 00
	00		 jmp	 DWORD PTR __imp_??1?$CStringT@DV?$StrTraitMFC_DLL@DV?$ChTraitsCRT@D@ATL@@@@@ATL@@QAE@XZ
$L198289:
  00058	8d 4d c0	 lea	 ecx, DWORD PTR $T198286[ebp]
  0005b	ff 25 00 00 00
	00		 jmp	 DWORD PTR __imp_??1?$CStringT@DV?$StrTraitMFC_DLL@DV?$ChTraitsCRT@D@ATL@@@@@ATL@@QAE@XZ
$L198290:
  00061	8d 4d e4	 lea	 ecx, DWORD PTR _line$[ebp]
  00064	ff 25 00 00 00
	00		 jmp	 DWORD PTR __imp_??1?$CStringT@DV?$StrTraitMFC_DLL@DV?$ChTraitsCRT@D@ATL@@@@@ATL@@QAE@XZ
__ehhandler$?DrawMultiLine@CCWToolTips@@QAEHV?$CStringT@DV?$StrTraitMFC_DLL@DV?$ChTraitsCRT@D@ATL@@@@@ATL@@VCRect@@AAVCDC@@@Z:
  0006a	b8 00 00 00 00	 mov	 eax, OFFSET FLAT:$T198292
  0006f	e9 00 00 00 00	 jmp	 ___CxxFrameHandler
text$x	ENDS
?DrawMultiLine@CCWToolTips@@QAEHV?$CStringT@DV?$StrTraitMFC_DLL@DV?$ChTraitsCRT@D@ATL@@@@@ATL@@VCRect@@AAVCDC@@@Z ENDP ; CCWToolTips::DrawMultiLine
PUBLIC	?SetTimer@CWnd@@QAEIIIP6GXPAUHWND__@@IIK@Z@Z	; CWnd::SetTimer
PUBLIC	?ShowToolTips@CCWToolTips@@QAEXV?$CStringT@DV?$StrTraitMFC_DLL@DV?$ChTraitsCRT@D@ATL@@@@@ATL@@VCPoint@@VCRect@@H@Z ; CCWToolTips::ShowToolTips
xdata$x	SEGMENT
$T198300 DD	0ffffffffH
	DD	FLAT:$L198296
$T198298 DD	019930520H
	DD	01H
	DD	FLAT:$T198300
	DD	2 DUP(00H)
	DD	2 DUP(00H)
; Function compile flags: /Odt
xdata$x	ENDS
_TEXT	SEGMENT
_this$ = -16						; size = 4
__$EHRec$ = -12						; size = 12
_info$ = 8						; size = 4
_point$ = 12						; size = 8
_rect$ = 20						; size = 16
_type$ = 36						; size = 4
?ShowToolTips@CCWToolTips@@QAEXV?$CStringT@DV?$StrTraitMFC_DLL@DV?$ChTraitsCRT@D@ATL@@@@@ATL@@VCPoint@@VCRect@@H@Z PROC NEAR ; CCWToolTips::ShowToolTips
; _this$ = ecx

; 133  : {

  007b0	55		 push	 ebp
  007b1	8b ec		 mov	 ebp, esp
  007b3	6a ff		 push	 -1
  007b5	68 00 00 00 00	 push	 __ehhandler$?ShowToolTips@CCWToolTips@@QAEXV?$CStringT@DV?$StrTraitMFC_DLL@DV?$ChTraitsCRT@D@ATL@@@@@ATL@@VCPoint@@VCRect@@H@Z
  007ba	64 a1 00 00 00
	00		 mov	 eax, DWORD PTR fs:__except_list
  007c0	50		 push	 eax
  007c1	64 89 25 00 00
	00 00		 mov	 DWORD PTR fs:__except_list, esp
  007c8	51		 push	 ecx
  007c9	89 4d f0	 mov	 DWORD PTR _this$[ebp], ecx
  007cc	c7 45 fc 00 00
	00 00		 mov	 DWORD PTR __$EHRec$[ebp+8], 0

; 134  : 	SetTimer(ID_TEMER_TOOLTIPS,m_nTimer,NULL);

  007d3	6a 00		 push	 0
  007d5	8b 45 f0	 mov	 eax, DWORD PTR _this$[ebp]
  007d8	8b 88 84 00 00
	00		 mov	 ecx, DWORD PTR [eax+132]
  007de	51		 push	 ecx
  007df	68 e6 00 00 00	 push	 230			; 000000e6H
  007e4	8b 4d f0	 mov	 ecx, DWORD PTR _this$[ebp]
  007e7	e8 00 00 00 00	 call	 ?SetTimer@CWnd@@QAEIIIP6GXPAUHWND__@@IIK@Z@Z ; CWnd::SetTimer

; 135  : 	m_rcRange = rect;

  007ec	8b 55 f0	 mov	 edx, DWORD PTR _this$[ebp]
  007ef	83 c2 70	 add	 edx, 112		; 00000070H
  007f2	8b 45 14	 mov	 eax, DWORD PTR _rect$[ebp]
  007f5	89 02		 mov	 DWORD PTR [edx], eax
  007f7	8b 4d 18	 mov	 ecx, DWORD PTR _rect$[ebp+4]
  007fa	89 4a 04	 mov	 DWORD PTR [edx+4], ecx
  007fd	8b 45 1c	 mov	 eax, DWORD PTR _rect$[ebp+8]
  00800	89 42 08	 mov	 DWORD PTR [edx+8], eax
  00803	8b 4d 20	 mov	 ecx, DWORD PTR _rect$[ebp+12]
  00806	89 4a 0c	 mov	 DWORD PTR [edx+12], ecx

; 136  : 	m_type = type;

  00809	8b 55 f0	 mov	 edx, DWORD PTR _this$[ebp]
  0080c	8b 45 24	 mov	 eax, DWORD PTR _type$[ebp]
  0080f	89 82 80 00 00
	00		 mov	 DWORD PTR [edx+128], eax

; 137  : 	m_lastPoint = point;

  00815	8b 4d f0	 mov	 ecx, DWORD PTR _this$[ebp]
  00818	8b 55 0c	 mov	 edx, DWORD PTR _point$[ebp]
  0081b	89 51 68	 mov	 DWORD PTR [ecx+104], edx
  0081e	8b 45 10	 mov	 eax, DWORD PTR _point$[ebp+4]
  00821	89 41 6c	 mov	 DWORD PTR [ecx+108], eax

; 138  : 	m_strInfo = info;

  00824	8d 4d 08	 lea	 ecx, DWORD PTR _info$[ebp]
  00827	51		 push	 ecx
  00828	8b 4d f0	 mov	 ecx, DWORD PTR _this$[ebp]
  0082b	83 c1 64	 add	 ecx, 100		; 00000064H
  0082e	ff 15 00 00 00
	00		 call	 DWORD PTR __imp_??4?$CStringT@DV?$StrTraitMFC_DLL@DV?$ChTraitsCRT@D@ATL@@@@@ATL@@QAEAAV01@ABV01@@Z

; 139  : }

  00834	c7 45 fc ff ff
	ff ff		 mov	 DWORD PTR __$EHRec$[ebp+8], -1
  0083b	8d 4d 08	 lea	 ecx, DWORD PTR _info$[ebp]
  0083e	ff 15 00 00 00
	00		 call	 DWORD PTR __imp_??1?$CStringT@DV?$StrTraitMFC_DLL@DV?$ChTraitsCRT@D@ATL@@@@@ATL@@QAE@XZ
  00844	8b 4d f4	 mov	 ecx, DWORD PTR __$EHRec$[ebp]
  00847	64 89 0d 00 00
	00 00		 mov	 DWORD PTR fs:__except_list, ecx
  0084e	8b e5		 mov	 esp, ebp
  00850	5d		 pop	 ebp
  00851	c2 20 00	 ret	 32			; 00000020H
_TEXT	ENDS
text$x	SEGMENT
$L198296:
  00074	8d 4d 08	 lea	 ecx, DWORD PTR _info$[ebp]
  00077	ff 25 00 00 00
	00		 jmp	 DWORD PTR __imp_??1?$CStringT@DV?$StrTraitMFC_DLL@DV?$ChTraitsCRT@D@ATL@@@@@ATL@@QAE@XZ
__ehhandler$?ShowToolTips@CCWToolTips@@QAEXV?$CStringT@DV?$StrTraitMFC_DLL@DV?$ChTraitsCRT@D@ATL@@@@@ATL@@VCPoint@@VCRect@@H@Z:
  0007d	b8 00 00 00 00	 mov	 eax, OFFSET FLAT:$T198298
  00082	e9 00 00 00 00	 jmp	 ___CxxFrameHandler
text$x	ENDS
?ShowToolTips@CCWToolTips@@QAEXV?$CStringT@DV?$StrTraitMFC_DLL@DV?$ChTraitsCRT@D@ATL@@@@@ATL@@VCPoint@@VCRect@@H@Z ENDP ; CCWToolTips::ShowToolTips
PUBLIC	?ShowToolTips@CCWToolTips@@QAEXV?$CStringT@DV?$StrTraitMFC_DLL@DV?$ChTraitsCRT@D@ATL@@@@@ATL@@VCPoint@@H@Z ; CCWToolTips::ShowToolTips
xdata$x	SEGMENT
$T198307 DD	0ffffffffH
	DD	FLAT:$L198303
$T198305 DD	019930520H
	DD	01H
	DD	FLAT:$T198307
	DD	2 DUP(00H)
	DD	2 DUP(00H)
; Function compile flags: /Odt
xdata$x	ENDS
_TEXT	SEGMENT
_this$ = -32						; size = 4
$T198302 = -28						; size = 16
__$EHRec$ = -12						; size = 12
_info$ = 8						; size = 4
_point$ = 12						; size = 8
_type$ = 20						; size = 4
?ShowToolTips@CCWToolTips@@QAEXV?$CStringT@DV?$StrTraitMFC_DLL@DV?$ChTraitsCRT@D@ATL@@@@@ATL@@VCPoint@@H@Z PROC NEAR ; CCWToolTips::ShowToolTips
; _this$ = ecx

; 142  : {

  00860	55		 push	 ebp
  00861	8b ec		 mov	 ebp, esp
  00863	6a ff		 push	 -1
  00865	68 00 00 00 00	 push	 __ehhandler$?ShowToolTips@CCWToolTips@@QAEXV?$CStringT@DV?$StrTraitMFC_DLL@DV?$ChTraitsCRT@D@ATL@@@@@ATL@@VCPoint@@H@Z
  0086a	64 a1 00 00 00
	00		 mov	 eax, DWORD PTR fs:__except_list
  00870	50		 push	 eax
  00871	64 89 25 00 00
	00 00		 mov	 DWORD PTR fs:__except_list, esp
  00878	83 ec 14	 sub	 esp, 20			; 00000014H
  0087b	89 4d e0	 mov	 DWORD PTR _this$[ebp], ecx
  0087e	c7 45 fc 00 00
	00 00		 mov	 DWORD PTR __$EHRec$[ebp+8], 0

; 143  : 	SetTimer(ID_TEMER_TOOLTIPS,m_nTimer,NULL);

  00885	6a 00		 push	 0
  00887	8b 45 e0	 mov	 eax, DWORD PTR _this$[ebp]
  0088a	8b 88 84 00 00
	00		 mov	 ecx, DWORD PTR [eax+132]
  00890	51		 push	 ecx
  00891	68 e6 00 00 00	 push	 230			; 000000e6H
  00896	8b 4d e0	 mov	 ecx, DWORD PTR _this$[ebp]
  00899	e8 00 00 00 00	 call	 ?SetTimer@CWnd@@QAEIIIP6GXPAUHWND__@@IIK@Z@Z ; CWnd::SetTimer

; 144  : 	m_rcRange = CRect(0,0,0,0);

  0089e	6a 00		 push	 0
  008a0	6a 00		 push	 0
  008a2	6a 00		 push	 0
  008a4	6a 00		 push	 0
  008a6	8d 4d e4	 lea	 ecx, DWORD PTR $T198302[ebp]
  008a9	e8 00 00 00 00	 call	 ??0CRect@@QAE@HHHH@Z	; CRect::CRect
  008ae	8b 55 e0	 mov	 edx, DWORD PTR _this$[ebp]
  008b1	83 c2 70	 add	 edx, 112		; 00000070H
  008b4	8b 08		 mov	 ecx, DWORD PTR [eax]
  008b6	89 0a		 mov	 DWORD PTR [edx], ecx
  008b8	8b 48 04	 mov	 ecx, DWORD PTR [eax+4]
  008bb	89 4a 04	 mov	 DWORD PTR [edx+4], ecx
  008be	8b 48 08	 mov	 ecx, DWORD PTR [eax+8]
  008c1	89 4a 08	 mov	 DWORD PTR [edx+8], ecx
  008c4	8b 40 0c	 mov	 eax, DWORD PTR [eax+12]
  008c7	89 42 0c	 mov	 DWORD PTR [edx+12], eax

; 145  : 	m_type = type;

  008ca	8b 4d e0	 mov	 ecx, DWORD PTR _this$[ebp]
  008cd	8b 55 14	 mov	 edx, DWORD PTR _type$[ebp]
  008d0	89 91 80 00 00
	00		 mov	 DWORD PTR [ecx+128], edx

; 146  : 	m_lastPoint = point;

  008d6	8b 45 e0	 mov	 eax, DWORD PTR _this$[ebp]
  008d9	8b 4d 0c	 mov	 ecx, DWORD PTR _point$[ebp]
  008dc	89 48 68	 mov	 DWORD PTR [eax+104], ecx
  008df	8b 55 10	 mov	 edx, DWORD PTR _point$[ebp+4]
  008e2	89 50 6c	 mov	 DWORD PTR [eax+108], edx

; 147  : 	m_strInfo = info;

  008e5	8d 45 08	 lea	 eax, DWORD PTR _info$[ebp]
  008e8	50		 push	 eax
  008e9	8b 4d e0	 mov	 ecx, DWORD PTR _this$[ebp]
  008ec	83 c1 64	 add	 ecx, 100		; 00000064H
  008ef	ff 15 00 00 00
	00		 call	 DWORD PTR __imp_??4?$CStringT@DV?$StrTraitMFC_DLL@DV?$ChTraitsCRT@D@ATL@@@@@ATL@@QAEAAV01@ABV01@@Z

; 148  : }

  008f5	c7 45 fc ff ff
	ff ff		 mov	 DWORD PTR __$EHRec$[ebp+8], -1
  008fc	8d 4d 08	 lea	 ecx, DWORD PTR _info$[ebp]
  008ff	ff 15 00 00 00
	00		 call	 DWORD PTR __imp_??1?$CStringT@DV?$StrTraitMFC_DLL@DV?$ChTraitsCRT@D@ATL@@@@@ATL@@QAE@XZ
  00905	8b 4d f4	 mov	 ecx, DWORD PTR __$EHRec$[ebp]
  00908	64 89 0d 00 00
	00 00		 mov	 DWORD PTR fs:__except_list, ecx
  0090f	8b e5		 mov	 esp, ebp
  00911	5d		 pop	 ebp
  00912	c2 10 00	 ret	 16			; 00000010H
_TEXT	ENDS
text$x	SEGMENT
$L198303:
  00087	8d 4d 08	 lea	 ecx, DWORD PTR _info$[ebp]
  0008a	ff 25 00 00 00
	00		 jmp	 DWORD PTR __imp_??1?$CStringT@DV?$StrTraitMFC_DLL@DV?$ChTraitsCRT@D@ATL@@@@@ATL@@QAE@XZ
__ehhandler$?ShowToolTips@CCWToolTips@@QAEXV?$CStringT@DV?$StrTraitMFC_DLL@DV?$ChTraitsCRT@D@ATL@@@@@ATL@@VCPoint@@H@Z:
  00090	b8 00 00 00 00	 mov	 eax, OFFSET FLAT:$T198305
  00095	e9 00 00 00 00	 jmp	 ___CxxFrameHandler
text$x	ENDS
?ShowToolTips@CCWToolTips@@QAEXV?$CStringT@DV?$StrTraitMFC_DLL@DV?$ChTraitsCRT@D@ATL@@@@@ATL@@VCPoint@@H@Z ENDP ; CCWToolTips::ShowToolTips
PUBLIC	?KillTimer@CWnd@@QAEHI@Z			; CWnd::KillTimer
PUBLIC	?HideTooTips@CCWToolTips@@QAEXXZ		; CCWToolTips::HideTooTips
EXTRN	?ShowWindow@CWnd@@QAEHH@Z:NEAR			; CWnd::ShowWindow
EXTRN	__imp__IsWindow@4:NEAR
; Function compile flags: /Odt
_TEXT	SEGMENT
_this$ = -4						; size = 4
?HideTooTips@CCWToolTips@@QAEXXZ PROC NEAR		; CCWToolTips::HideTooTips
; _this$ = ecx

; 151  : {

  00920	55		 push	 ebp
  00921	8b ec		 mov	 ebp, esp
  00923	51		 push	 ecx
  00924	89 4d fc	 mov	 DWORD PTR _this$[ebp], ecx

; 152  : 	if(IsWindow(m_hWnd))

  00927	8b 45 fc	 mov	 eax, DWORD PTR _this$[ebp]
  0092a	8b 48 20	 mov	 ecx, DWORD PTR [eax+32]
  0092d	51		 push	 ecx
  0092e	ff 15 00 00 00
	00		 call	 DWORD PTR __imp__IsWindow@4
  00934	85 c0		 test	 eax, eax
  00936	74 17		 je	 SHORT $L197563

; 153  : 	{
; 154  : 		this->ShowWindow(SW_HIDE);

  00938	6a 00		 push	 0
  0093a	8b 4d fc	 mov	 ecx, DWORD PTR _this$[ebp]
  0093d	e8 00 00 00 00	 call	 ?ShowWindow@CWnd@@QAEHH@Z ; CWnd::ShowWindow

; 155  : 		KillTimer(ID_TEMER_TOOLTIPS);

  00942	68 e6 00 00 00	 push	 230			; 000000e6H
  00947	8b 4d fc	 mov	 ecx, DWORD PTR _this$[ebp]
  0094a	e8 00 00 00 00	 call	 ?KillTimer@CWnd@@QAEHI@Z ; CWnd::KillTimer
$L197563:

; 156  : 	}
; 157  : }

  0094f	8b e5		 mov	 esp, ebp
  00951	5d		 pop	 ebp
  00952	c3		 ret	 0
?HideTooTips@CCWToolTips@@QAEXXZ ENDP			; CCWToolTips::HideTooTips
_TEXT	ENDS
PUBLIC	?Height@CRect@@QBEHXZ				; CRect::Height
PUBLIC	?ShowToolTips@CCWToolTips@@QAEXV?$CStringT@DV?$StrTraitMFC_DLL@DV?$ChTraitsCRT@D@ATL@@@@@ATL@@VCRect@@H@Z ; CCWToolTips::ShowToolTips
EXTRN	__imp_?wndTopMost@CWnd@@2V1@B:BYTE
EXTRN	?SetWindowPos@CWnd@@QAEHPBV1@HHHHI@Z:NEAR	; CWnd::SetWindowPos
xdata$x	SEGMENT
$T198314 DD	0ffffffffH
	DD	FLAT:$L198310
$T198312 DD	019930520H
	DD	01H
	DD	FLAT:$T198314
	DD	2 DUP(00H)
	DD	2 DUP(00H)
; Function compile flags: /Odt
xdata$x	ENDS
_TEXT	SEGMENT
_this$ = -16						; size = 4
__$EHRec$ = -12						; size = 12
_info$ = 8						; size = 4
_rect$ = 12						; size = 16
_timeout$ = 28						; size = 4
?ShowToolTips@CCWToolTips@@QAEXV?$CStringT@DV?$StrTraitMFC_DLL@DV?$ChTraitsCRT@D@ATL@@@@@ATL@@VCRect@@H@Z PROC NEAR ; CCWToolTips::ShowToolTips
; _this$ = ecx

; 160  : {

  00960	55		 push	 ebp
  00961	8b ec		 mov	 ebp, esp
  00963	6a ff		 push	 -1
  00965	68 00 00 00 00	 push	 __ehhandler$?ShowToolTips@CCWToolTips@@QAEXV?$CStringT@DV?$StrTraitMFC_DLL@DV?$ChTraitsCRT@D@ATL@@@@@ATL@@VCRect@@H@Z
  0096a	64 a1 00 00 00
	00		 mov	 eax, DWORD PTR fs:__except_list
  00970	50		 push	 eax
  00971	64 89 25 00 00
	00 00		 mov	 DWORD PTR fs:__except_list, esp
  00978	51		 push	 ecx
  00979	89 4d f0	 mov	 DWORD PTR _this$[ebp], ecx
  0097c	c7 45 fc 00 00
	00 00		 mov	 DWORD PTR __$EHRec$[ebp+8], 0

; 161  : 	m_strInfo = info;

  00983	8d 45 08	 lea	 eax, DWORD PTR _info$[ebp]
  00986	50		 push	 eax
  00987	8b 4d f0	 mov	 ecx, DWORD PTR _this$[ebp]
  0098a	83 c1 64	 add	 ecx, 100		; 00000064H
  0098d	ff 15 00 00 00
	00		 call	 DWORD PTR __imp_??4?$CStringT@DV?$StrTraitMFC_DLL@DV?$ChTraitsCRT@D@ATL@@@@@ATL@@QAEAAV01@ABV01@@Z

; 162  : 	SetWindowPos(&wndTopMost,rect.left,rect.top,rect.Width(),rect.Height(), SWP_NOACTIVATE);

  00993	6a 10		 push	 16			; 00000010H
  00995	8d 4d 0c	 lea	 ecx, DWORD PTR _rect$[ebp]
  00998	e8 00 00 00 00	 call	 ?Height@CRect@@QBEHXZ	; CRect::Height
  0099d	50		 push	 eax
  0099e	8d 4d 0c	 lea	 ecx, DWORD PTR _rect$[ebp]
  009a1	e8 00 00 00 00	 call	 ?Width@CRect@@QBEHXZ	; CRect::Width
  009a6	50		 push	 eax
  009a7	8b 4d 10	 mov	 ecx, DWORD PTR _rect$[ebp+4]
  009aa	51		 push	 ecx
  009ab	8b 55 0c	 mov	 edx, DWORD PTR _rect$[ebp]
  009ae	52		 push	 edx
  009af	a1 00 00 00 00	 mov	 eax, DWORD PTR __imp_?wndTopMost@CWnd@@2V1@B
  009b4	50		 push	 eax
  009b5	8b 4d f0	 mov	 ecx, DWORD PTR _this$[ebp]
  009b8	e8 00 00 00 00	 call	 ?SetWindowPos@CWnd@@QAEHPBV1@HHHHI@Z ; CWnd::SetWindowPos

; 163  : 	ShowWindow(SW_SHOWNOACTIVATE);

  009bd	6a 04		 push	 4
  009bf	8b 4d f0	 mov	 ecx, DWORD PTR _this$[ebp]
  009c2	e8 00 00 00 00	 call	 ?ShowWindow@CWnd@@QAEHH@Z ; CWnd::ShowWindow

; 164  : 	SetTimer(ID_TIMER_HIDE, timeout, NULL);

  009c7	6a 00		 push	 0
  009c9	8b 4d 1c	 mov	 ecx, DWORD PTR _timeout$[ebp]
  009cc	51		 push	 ecx
  009cd	68 e7 00 00 00	 push	 231			; 000000e7H
  009d2	8b 4d f0	 mov	 ecx, DWORD PTR _this$[ebp]
  009d5	e8 00 00 00 00	 call	 ?SetTimer@CWnd@@QAEIIIP6GXPAUHWND__@@IIK@Z@Z ; CWnd::SetTimer

; 165  : 	OnPaint();

  009da	8b 4d f0	 mov	 ecx, DWORD PTR _this$[ebp]
  009dd	e8 00 00 00 00	 call	 ?OnPaint@CCWToolTips@@QAEXXZ ; CCWToolTips::OnPaint

; 166  : 	//Invalidate();
; 167  : }

  009e2	c7 45 fc ff ff
	ff ff		 mov	 DWORD PTR __$EHRec$[ebp+8], -1
  009e9	8d 4d 08	 lea	 ecx, DWORD PTR _info$[ebp]
  009ec	ff 15 00 00 00
	00		 call	 DWORD PTR __imp_??1?$CStringT@DV?$StrTraitMFC_DLL@DV?$ChTraitsCRT@D@ATL@@@@@ATL@@QAE@XZ
  009f2	8b 4d f4	 mov	 ecx, DWORD PTR __$EHRec$[ebp]
  009f5	64 89 0d 00 00
	00 00		 mov	 DWORD PTR fs:__except_list, ecx
  009fc	8b e5		 mov	 esp, ebp
  009fe	5d		 pop	 ebp
  009ff	c2 18 00	 ret	 24			; 00000018H
_TEXT	ENDS
text$x	SEGMENT
$L198310:
  0009a	8d 4d 08	 lea	 ecx, DWORD PTR _info$[ebp]
  0009d	ff 25 00 00 00
	00		 jmp	 DWORD PTR __imp_??1?$CStringT@DV?$StrTraitMFC_DLL@DV?$ChTraitsCRT@D@ATL@@@@@ATL@@QAE@XZ
__ehhandler$?ShowToolTips@CCWToolTips@@QAEXV?$CStringT@DV?$StrTraitMFC_DLL@DV?$ChTraitsCRT@D@ATL@@@@@ATL@@VCRect@@H@Z:
  000a3	b8 00 00 00 00	 mov	 eax, OFFSET FLAT:$T198312
  000a8	e9 00 00 00 00	 jmp	 ___CxxFrameHandler
text$x	ENDS
?ShowToolTips@CCWToolTips@@QAEXV?$CStringT@DV?$StrTraitMFC_DLL@DV?$ChTraitsCRT@D@ATL@@@@@ATL@@VCRect@@H@Z ENDP ; CCWToolTips::ShowToolTips
PUBLIC	?ClientToScreen@CWnd@@QBEXPAUtagPOINT@@@Z	; CWnd::ClientToScreen
PUBLIC	?Invalidate@CWnd@@QAEXH@Z			; CWnd::Invalidate
PUBLIC	??8CPoint@@QBEHUtagPOINT@@@Z			; CPoint::operator==
PUBLIC	??0CRect@@QAE@UtagPOINT@@0@Z			; CRect::CRect
PUBLIC	?PtInRect@CRect@@QBEHUtagPOINT@@@Z		; CRect::PtInRect
PUBLIC	??8CRect@@QBEHABUtagRECT@@@Z			; CRect::operator==
PUBLIC	?GetParent@CWnd@@QBEPAV1@XZ			; CWnd::GetParent
PUBLIC	?OnTimer@CWnd@@IAEXI@Z				; CWnd::OnTimer
EXTRN	?ClientToScreen@CWnd@@QBEXPAUtagRECT@@@Z:NEAR	; CWnd::ClientToScreen
EXTRN	?ScreenToClient@CWnd@@QBEXPAUtagRECT@@@Z:NEAR	; CWnd::ScreenToClient
EXTRN	__imp__GetCursorPos@4:NEAR
xdata$x	SEGMENT
$T198333 DD	0ffffffffH
	DD	FLAT:$L198324
	DD	00H
	DD	FLAT:$L198325
	DD	01H
	DD	FLAT:$L198326
	DD	02H
	DD	FLAT:$L198327
	DD	03H
	DD	FLAT:$L198328
$T198330 DD	019930520H
	DD	05H
	DD	FLAT:$T198333
	DD	2 DUP(00H)
	DD	2 DUP(00H)
; Function compile flags: /Odt
xdata$x	ENDS
_TEXT	SEGMENT
tv313 = -308						; size = 4
tv161 = -304						; size = 4
_this$ = -300						; size = 4
$T198323 = -296						; size = 8
$T198322 = -288						; size = 8
$T198321 = -280						; size = 16
$T198320 = -264						; size = 4
$T198319 = -260						; size = 8
$T198318 = -252						; size = 8
$T198317 = -244						; size = 16
_size$197603 = -228					; size = 8
_temp$197601 = -220					; size = 4
_font$197590 = -216					; size = 8
_rectNew$197615 = -208					; size = 16
_maxxsize$197594 = -192					; size = 4
_start$197592 = -188					; size = 4
_nowindex$197593 = -184					; size = 4
_size$197608 = -180					; size = 8
_opoint$197613 = -172					; size = 8
_maxysize$197595 = -164					; size = 4
_clientRect$197616 = -160				; size = 16
_tempStrInfo$197596 = -144				; size = 4
_mainRect$197617 = -140					; size = 16
_dc$197589 = -124					; size = 84
__$ArrayPad$ = -36					; size = 4
_point$197614 = -32					; size = 8
_bShowToolTips$197578 = -21				; size = 1
_pt$197579 = -20					; size = 8
__$EHRec$ = -12						; size = 12
__$ReturnAddr$ = 4					; size = 4
_nIDEvent$ = 8						; size = 4
?OnTimer@CCWToolTips@@QAEXI@Z PROC NEAR			; CCWToolTips::OnTimer
; _this$ = ecx

; 170  : {

  00a10	55		 push	 ebp
  00a11	8b ec		 mov	 ebp, esp
  00a13	6a ff		 push	 -1
  00a15	68 00 00 00 00	 push	 __ehhandler$?OnTimer@CCWToolTips@@QAEXI@Z
  00a1a	64 a1 00 00 00
	00		 mov	 eax, DWORD PTR fs:__except_list
  00a20	50		 push	 eax
  00a21	64 89 25 00 00
	00 00		 mov	 DWORD PTR fs:__except_list, esp
  00a28	81 ec 28 01 00
	00		 sub	 esp, 296		; 00000128H
  00a2e	a1 00 00 00 00	 mov	 eax, DWORD PTR ___security_cookie
  00a33	89 45 dc	 mov	 DWORD PTR __$ArrayPad$[ebp], eax
  00a36	89 8d d4 fe ff
	ff		 mov	 DWORD PTR _this$[ebp], ecx

; 171  : 	if(nIDEvent == ID_TIMER_HIDE)

  00a3c	81 7d 08 e7 00
	00 00		 cmp	 DWORD PTR _nIDEvent$[ebp], 231 ; 000000e7H
  00a43	75 1b		 jne	 SHORT $L197575

; 172  : 	{
; 173  : 		HideTooTips();

  00a45	8b 8d d4 fe ff
	ff		 mov	 ecx, DWORD PTR _this$[ebp]
  00a4b	e8 00 00 00 00	 call	 ?HideTooTips@CCWToolTips@@QAEXXZ ; CCWToolTips::HideTooTips

; 174  : 		KillTimer(ID_TIMER_HIDE);

  00a50	68 e7 00 00 00	 push	 231			; 000000e7H
  00a55	8b 8d d4 fe ff
	ff		 mov	 ecx, DWORD PTR _this$[ebp]
  00a5b	e8 00 00 00 00	 call	 ?KillTimer@CWnd@@QAEHI@Z ; CWnd::KillTimer
$L197575:

; 175  : 	}
; 176  : 	if(m_pClientWnd == NULL )

  00a60	8b 85 d4 fe ff
	ff		 mov	 eax, DWORD PTR _this$[ebp]
  00a66	83 78 60 00	 cmp	 DWORD PTR [eax+96], 0
  00a6a	75 05		 jne	 SHORT $L197576

; 177  : 	{
; 178  : 		return;

  00a6c	e9 73 05 00 00	 jmp	 $L197574
$L197576:

; 179  : 	}
; 180  : 
; 181  : 	if(nIDEvent == ID_TEMER_TOOLTIPS)

  00a71	81 7d 08 e6 00
	00 00		 cmp	 DWORD PTR _nIDEvent$[ebp], 230 ; 000000e6H
  00a78	0f 85 57 05 00
	00		 jne	 $L197577

; 182  : 	{
; 183  : 		bool bShowToolTips = false;

  00a7e	c6 45 eb 00	 mov	 BYTE PTR _bShowToolTips$197578[ebp], 0

; 184  : 		CPoint pt(0,0);

  00a82	6a 00		 push	 0
  00a84	6a 00		 push	 0
  00a86	8d 4d ec	 lea	 ecx, DWORD PTR _pt$197579[ebp]
  00a89	e8 00 00 00 00	 call	 ??0CPoint@@QAE@HH@Z	; CPoint::CPoint

; 185  : 		::GetCursorPos(&pt);

  00a8e	8d 4d ec	 lea	 ecx, DWORD PTR _pt$197579[ebp]
  00a91	51		 push	 ecx
  00a92	ff 15 00 00 00
	00		 call	 DWORD PTR __imp__GetCursorPos@4

; 186  : 		if(m_type == FRAME_TOOLTIPS )

  00a98	8b 95 d4 fe ff
	ff		 mov	 edx, DWORD PTR _this$[ebp]
  00a9e	83 ba 80 00 00
	00 01		 cmp	 DWORD PTR [edx+128], 1
  00aa5	75 0f		 jne	 SHORT $L197580

; 187  : 		{
; 188  : 			this->ClientToScreen(&pt);

  00aa7	8d 45 ec	 lea	 eax, DWORD PTR _pt$197579[ebp]
  00aaa	50		 push	 eax
  00aab	8b 8d d4 fe ff
	ff		 mov	 ecx, DWORD PTR _this$[ebp]
  00ab1	e8 00 00 00 00	 call	 ?ClientToScreen@CWnd@@QBEXPAUtagPOINT@@@Z ; CWnd::ClientToScreen
$L197580:

; 189  : 		}
; 190  : 
; 191  : 		if(m_rcRange == CRect(0,0,0,0))

  00ab6	6a 00		 push	 0
  00ab8	6a 00		 push	 0
  00aba	6a 00		 push	 0
  00abc	6a 00		 push	 0
  00abe	8d 8d 0c ff ff
	ff		 lea	 ecx, DWORD PTR $T198317[ebp]
  00ac4	e8 00 00 00 00	 call	 ??0CRect@@QAE@HHHH@Z	; CRect::CRect
  00ac9	50		 push	 eax
  00aca	8b 8d d4 fe ff
	ff		 mov	 ecx, DWORD PTR _this$[ebp]
  00ad0	83 c1 70	 add	 ecx, 112		; 00000070H
  00ad3	e8 00 00 00 00	 call	 ??8CRect@@QBEHABUtagRECT@@@Z ; CRect::operator==
  00ad8	85 c0		 test	 eax, eax
  00ada	74 38		 je	 SHORT $L197582

; 192  : 		{
; 193  : 			if(pt == m_lastPoint)

  00adc	8b 8d d4 fe ff
	ff		 mov	 ecx, DWORD PTR _this$[ebp]
  00ae2	8b 51 68	 mov	 edx, DWORD PTR [ecx+104]
  00ae5	8b 41 6c	 mov	 eax, DWORD PTR [ecx+108]
  00ae8	89 95 04 ff ff
	ff		 mov	 DWORD PTR $T198318[ebp], edx
  00aee	89 85 08 ff ff
	ff		 mov	 DWORD PTR $T198318[ebp+4], eax
  00af4	8b 8d 08 ff ff
	ff		 mov	 ecx, DWORD PTR $T198318[ebp+4]
  00afa	51		 push	 ecx
  00afb	8b 95 04 ff ff
	ff		 mov	 edx, DWORD PTR $T198318[ebp]
  00b01	52		 push	 edx
  00b02	8d 4d ec	 lea	 ecx, DWORD PTR _pt$197579[ebp]
  00b05	e8 00 00 00 00	 call	 ??8CPoint@@QBEHUtagPOINT@@@Z ; CPoint::operator==
  00b0a	85 c0		 test	 eax, eax
  00b0c	74 04		 je	 SHORT $L197584

; 194  : 				bShowToolTips = true;

  00b0e	c6 45 eb 01	 mov	 BYTE PTR _bShowToolTips$197578[ebp], 1
$L197584:

; 195  : 		}
; 196  : 		else

  00b12	eb 36		 jmp	 SHORT $L197585
$L197582:

; 197  : 		{
; 198  : 			if(m_rcRange.PtInRect(pt))

  00b14	8b 45 ec	 mov	 eax, DWORD PTR _pt$197579[ebp]
  00b17	89 85 fc fe ff
	ff		 mov	 DWORD PTR $T198319[ebp], eax
  00b1d	8b 4d f0	 mov	 ecx, DWORD PTR _pt$197579[ebp+4]
  00b20	89 8d 00 ff ff
	ff		 mov	 DWORD PTR $T198319[ebp+4], ecx
  00b26	8b 95 00 ff ff
	ff		 mov	 edx, DWORD PTR $T198319[ebp+4]
  00b2c	52		 push	 edx
  00b2d	8b 85 fc fe ff
	ff		 mov	 eax, DWORD PTR $T198319[ebp]
  00b33	50		 push	 eax
  00b34	8b 8d d4 fe ff
	ff		 mov	 ecx, DWORD PTR _this$[ebp]
  00b3a	83 c1 70	 add	 ecx, 112		; 00000070H
  00b3d	e8 00 00 00 00	 call	 ?PtInRect@CRect@@QBEHUtagPOINT@@@Z ; CRect::PtInRect
  00b42	85 c0		 test	 eax, eax
  00b44	74 04		 je	 SHORT $L197585

; 199  : 				bShowToolTips = true;

  00b46	c6 45 eb 01	 mov	 BYTE PTR _bShowToolTips$197578[ebp], 1
$L197585:

; 200  : 		}
; 201  : 
; 202  : 		if(bShowToolTips)

  00b4a	0f b6 4d eb	 movzx	 ecx, BYTE PTR _bShowToolTips$197578[ebp]
  00b4e	85 c9		 test	 ecx, ecx
  00b50	0f 84 62 04 00
	00		 je	 $L197588

; 203  : 		{
; 204  : 			CPaintDC dc(this); 

  00b56	8b 95 d4 fe ff
	ff		 mov	 edx, DWORD PTR _this$[ebp]
  00b5c	52		 push	 edx
  00b5d	8d 4d 84	 lea	 ecx, DWORD PTR _dc$197589[ebp]
  00b60	e8 00 00 00 00	 call	 ??0CPaintDC@@QAE@PAVCWnd@@@Z ; CPaintDC::CPaintDC
  00b65	c7 45 fc 00 00
	00 00		 mov	 DWORD PTR __$EHRec$[ebp+8], 0

; 205  : 			dc.SetBkMode(TRANSPARENT);	

  00b6c	6a 01		 push	 1
  00b6e	8d 4d 84	 lea	 ecx, DWORD PTR _dc$197589[ebp]
  00b71	e8 00 00 00 00	 call	 ?SetBkMode@CDC@@QAEHH@Z	; CDC::SetBkMode

; 206  : 			CFont font;

  00b76	8d 8d 28 ff ff
	ff		 lea	 ecx, DWORD PTR _font$197590[ebp]
  00b7c	e8 00 00 00 00	 call	 ??0CFont@@QAE@XZ	; CFont::CFont
  00b81	c6 45 fc 01	 mov	 BYTE PTR __$EHRec$[ebp+8], 1

; 207  : 			font.CreatePointFont(90,_T(""));	

  00b85	6a 00		 push	 0
  00b87	68 00 00 00 00	 push	 OFFSET FLAT:$SG197591
  00b8c	6a 5a		 push	 90			; 0000005aH
  00b8e	8d 8d 28 ff ff
	ff		 lea	 ecx, DWORD PTR _font$197590[ebp]
  00b94	e8 00 00 00 00	 call	 ?CreatePointFont@CFont@@QAEHHPBDPAVCDC@@@Z ; CFont::CreatePointFont

; 208  : 			dc.SelectObject(&font);	

  00b99	8d 85 28 ff ff
	ff		 lea	 eax, DWORD PTR _font$197590[ebp]
  00b9f	50		 push	 eax
  00ba0	8d 4d 84	 lea	 ecx, DWORD PTR _dc$197589[ebp]
  00ba3	e8 00 00 00 00	 call	 ?SelectObject@CDC@@UAEPAVCFont@@PAV2@@Z ; CDC::SelectObject

; 209  : 			int start = 0;

  00ba8	c7 85 44 ff ff
	ff 00 00 00 00	 mov	 DWORD PTR _start$197592[ebp], 0

; 210  : 			int nowindex = -1;

  00bb2	c7 85 48 ff ff
	ff ff ff ff ff	 mov	 DWORD PTR _nowindex$197593[ebp], -1

; 211  : 			int maxxsize = 0;

  00bbc	c7 85 40 ff ff
	ff 00 00 00 00	 mov	 DWORD PTR _maxxsize$197594[ebp], 0

; 212  : 			int maxysize = LINE_HIGHT;

  00bc6	c7 85 5c ff ff
	ff 0f 00 00 00	 mov	 DWORD PTR _maxysize$197595[ebp], 15 ; 0000000fH

; 213  : 			CString tempStrInfo = m_strInfo;

  00bd0	8b 8d d4 fe ff
	ff		 mov	 ecx, DWORD PTR _this$[ebp]
  00bd6	83 c1 64	 add	 ecx, 100		; 00000064H
  00bd9	51		 push	 ecx
  00bda	8d 8d 70 ff ff
	ff		 lea	 ecx, DWORD PTR _tempStrInfo$197596[ebp]
  00be0	ff 15 00 00 00
	00		 call	 DWORD PTR __imp_??0?$CStringT@DV?$StrTraitMFC_DLL@DV?$ChTraitsCRT@D@ATL@@@@@ATL@@QAE@ABV01@@Z
  00be6	c6 45 fc 02	 mov	 BYTE PTR __$EHRec$[ebp+8], 2
$L197598:

; 214  : 			while((nowindex = tempStrInfo.Find("$#",0))!= -1)

  00bea	6a 00		 push	 0
  00bec	68 00 00 00 00	 push	 OFFSET FLAT:$SG197600
  00bf1	8d 8d 70 ff ff
	ff		 lea	 ecx, DWORD PTR _tempStrInfo$197596[ebp]
  00bf7	ff 15 00 00 00
	00		 call	 DWORD PTR __imp_?Find@?$CStringT@DV?$StrTraitMFC_DLL@DV?$ChTraitsCRT@D@ATL@@@@@ATL@@QBEHPBDH@Z
  00bfd	89 85 48 ff ff
	ff		 mov	 DWORD PTR _nowindex$197593[ebp], eax
  00c03	83 bd 48 ff ff
	ff ff		 cmp	 DWORD PTR _nowindex$197593[ebp], -1
  00c0a	0f 84 07 01 00
	00		 je	 $L197599

; 215  : 			{
; 216  : 				CString temp = tempStrInfo.Left(nowindex);

  00c10	8b 95 48 ff ff
	ff		 mov	 edx, DWORD PTR _nowindex$197593[ebp]
  00c16	52		 push	 edx
  00c17	8d 85 24 ff ff
	ff		 lea	 eax, DWORD PTR _temp$197601[ebp]
  00c1d	50		 push	 eax
  00c1e	8d 8d 70 ff ff
	ff		 lea	 ecx, DWORD PTR _tempStrInfo$197596[ebp]
  00c24	ff 15 00 00 00
	00		 call	 DWORD PTR __imp_?Left@?$CStringT@DV?$StrTraitMFC_DLL@DV?$ChTraitsCRT@D@ATL@@@@@ATL@@QBE?AV12@H@Z
  00c2a	c6 45 fc 03	 mov	 BYTE PTR __$EHRec$[ebp+8], 3

; 217  : 				CSize size = dc.GetTextExtent(temp);

  00c2e	8d 8d 24 ff ff
	ff		 lea	 ecx, DWORD PTR _temp$197601[ebp]
  00c34	51		 push	 ecx
  00c35	8d 95 1c ff ff
	ff		 lea	 edx, DWORD PTR _size$197603[ebp]
  00c3b	52		 push	 edx
  00c3c	8d 4d 84	 lea	 ecx, DWORD PTR _dc$197589[ebp]
  00c3f	e8 00 00 00 00	 call	 ?GetTextExtent@CDC@@QBE?AVCSize@@ABV?$CStringT@DV?$StrTraitMFC_DLL@DV?$ChTraitsCRT@D@ATL@@@@@ATL@@@Z ; CDC::GetTextExtent

; 218  : 				if(size.cx>maxxsize)

  00c44	8b 85 1c ff ff
	ff		 mov	 eax, DWORD PTR _size$197603[ebp]
  00c4a	3b 85 40 ff ff
	ff		 cmp	 eax, DWORD PTR _maxxsize$197594[ebp]
  00c50	7e 0c		 jle	 SHORT $L197605

; 219  : 					maxxsize = size.cx;

  00c52	8b 8d 1c ff ff
	ff		 mov	 ecx, DWORD PTR _size$197603[ebp]
  00c58	89 8d 40 ff ff
	ff		 mov	 DWORD PTR _maxxsize$197594[ebp], ecx
$L197605:

; 220  : 				//300
; 221  : 				if(maxxsize > 300)

  00c5e	81 bd 40 ff ff
	ff 2c 01 00 00	 cmp	 DWORD PTR _maxxsize$197594[ebp], 300 ; 0000012cH
  00c68	7e 27		 jle	 SHORT $L197606

; 222  : 				{
; 223  : 					maxysize += (maxxsize / 300) * LINE_HIGHT;

  00c6a	8b 85 40 ff ff
	ff		 mov	 eax, DWORD PTR _maxxsize$197594[ebp]
  00c70	99		 cdq
  00c71	b9 2c 01 00 00	 mov	 ecx, 300		; 0000012cH
  00c76	f7 f9		 idiv	 ecx
  00c78	6b c0 0f	 imul	 eax, 15			; 0000000fH
  00c7b	03 85 5c ff ff
	ff		 add	 eax, DWORD PTR _maxysize$197595[ebp]
  00c81	89 85 5c ff ff
	ff		 mov	 DWORD PTR _maxysize$197595[ebp], eax

; 224  : 					maxxsize = 300;

  00c87	c7 85 40 ff ff
	ff 2c 01 00 00	 mov	 DWORD PTR _maxxsize$197594[ebp], 300 ; 0000012cH
$L197606:

; 225  : 				}
; 226  : 				tempStrInfo = tempStrInfo.Right(tempStrInfo.GetLength() - 2 - nowindex);

  00c91	8d 8d 70 ff ff
	ff		 lea	 ecx, DWORD PTR _tempStrInfo$197596[ebp]
  00c97	ff 15 00 00 00
	00		 call	 DWORD PTR __imp_?GetLength@?$CSimpleStringT@D$00@ATL@@QBEHXZ
  00c9d	83 e8 02	 sub	 eax, 2
  00ca0	2b 85 48 ff ff
	ff		 sub	 eax, DWORD PTR _nowindex$197593[ebp]
  00ca6	50		 push	 eax
  00ca7	8d 95 f8 fe ff
	ff		 lea	 edx, DWORD PTR $T198320[ebp]
  00cad	52		 push	 edx
  00cae	8d 8d 70 ff ff
	ff		 lea	 ecx, DWORD PTR _tempStrInfo$197596[ebp]
  00cb4	ff 15 00 00 00
	00		 call	 DWORD PTR __imp_?Right@?$CStringT@DV?$StrTraitMFC_DLL@DV?$ChTraitsCRT@D@ATL@@@@@ATL@@QBE?AV12@H@Z
  00cba	89 85 d0 fe ff
	ff		 mov	 DWORD PTR tv161[ebp], eax
  00cc0	8b 85 d0 fe ff
	ff		 mov	 eax, DWORD PTR tv161[ebp]
  00cc6	89 85 cc fe ff
	ff		 mov	 DWORD PTR tv313[ebp], eax
  00ccc	c6 45 fc 04	 mov	 BYTE PTR __$EHRec$[ebp+8], 4
  00cd0	8b 8d cc fe ff
	ff		 mov	 ecx, DWORD PTR tv313[ebp]
  00cd6	51		 push	 ecx
  00cd7	8d 8d 70 ff ff
	ff		 lea	 ecx, DWORD PTR _tempStrInfo$197596[ebp]
  00cdd	ff 15 00 00 00
	00		 call	 DWORD PTR __imp_??4?$CStringT@DV?$StrTraitMFC_DLL@DV?$ChTraitsCRT@D@ATL@@@@@ATL@@QAEAAV01@ABV01@@Z
  00ce3	c6 45 fc 03	 mov	 BYTE PTR __$EHRec$[ebp+8], 3
  00ce7	8d 8d f8 fe ff
	ff		 lea	 ecx, DWORD PTR $T198320[ebp]
  00ced	ff 15 00 00 00
	00		 call	 DWORD PTR __imp_??1?$CStringT@DV?$StrTraitMFC_DLL@DV?$ChTraitsCRT@D@ATL@@@@@ATL@@QAE@XZ

; 227  : 				maxysize+=LINE_HIGHT;

  00cf3	8b 95 5c ff ff
	ff		 mov	 edx, DWORD PTR _maxysize$197595[ebp]
  00cf9	83 c2 0f	 add	 edx, 15			; 0000000fH
  00cfc	89 95 5c ff ff
	ff		 mov	 DWORD PTR _maxysize$197595[ebp], edx

; 228  : 			}

  00d02	c6 45 fc 02	 mov	 BYTE PTR __$EHRec$[ebp+8], 2
  00d06	8d 8d 24 ff ff
	ff		 lea	 ecx, DWORD PTR _temp$197601[ebp]
  00d0c	ff 15 00 00 00
	00		 call	 DWORD PTR __imp_??1?$CStringT@DV?$StrTraitMFC_DLL@DV?$ChTraitsCRT@D@ATL@@@@@ATL@@QAE@XZ
  00d12	e9 d3 fe ff ff	 jmp	 $L197598
$L197599:

; 229  : 			CSize size = dc.GetTextExtent(tempStrInfo);

  00d17	8d 85 70 ff ff
	ff		 lea	 eax, DWORD PTR _tempStrInfo$197596[ebp]
  00d1d	50		 push	 eax
  00d1e	8d 8d 4c ff ff
	ff		 lea	 ecx, DWORD PTR _size$197608[ebp]
  00d24	51		 push	 ecx
  00d25	8d 4d 84	 lea	 ecx, DWORD PTR _dc$197589[ebp]
  00d28	e8 00 00 00 00	 call	 ?GetTextExtent@CDC@@QBE?AVCSize@@ABV?$CStringT@DV?$StrTraitMFC_DLL@DV?$ChTraitsCRT@D@ATL@@@@@ATL@@@Z ; CDC::GetTextExtent

; 230  : 			if(size.cx>maxxsize)

  00d2d	8b 95 4c ff ff
	ff		 mov	 edx, DWORD PTR _size$197608[ebp]
  00d33	3b 95 40 ff ff
	ff		 cmp	 edx, DWORD PTR _maxxsize$197594[ebp]
  00d39	7e 0c		 jle	 SHORT $L197610

; 231  : 				maxxsize = size.cx;

  00d3b	8b 85 4c ff ff
	ff		 mov	 eax, DWORD PTR _size$197608[ebp]
  00d41	89 85 40 ff ff
	ff		 mov	 DWORD PTR _maxxsize$197594[ebp], eax
$L197610:

; 232  : 
; 233  : 			//300
; 234  : 			if(maxxsize > 300)

  00d47	81 bd 40 ff ff
	ff 2c 01 00 00	 cmp	 DWORD PTR _maxxsize$197594[ebp], 300 ; 0000012cH
  00d51	7e 2d		 jle	 SHORT $L197611

; 235  : 			{
; 236  : 				maxysize += (maxxsize / 300) * LINE_HIGHT + 20;

  00d53	8b 85 40 ff ff
	ff		 mov	 eax, DWORD PTR _maxxsize$197594[ebp]
  00d59	99		 cdq
  00d5a	b9 2c 01 00 00	 mov	 ecx, 300		; 0000012cH
  00d5f	f7 f9		 idiv	 ecx
  00d61	6b c0 0f	 imul	 eax, 15			; 0000000fH
  00d64	8b 95 5c ff ff
	ff		 mov	 edx, DWORD PTR _maxysize$197595[ebp]
  00d6a	8d 44 02 14	 lea	 eax, DWORD PTR [edx+eax+20]
  00d6e	89 85 5c ff ff
	ff		 mov	 DWORD PTR _maxysize$197595[ebp], eax

; 237  : 				maxxsize = 326;

  00d74	c7 85 40 ff ff
	ff 46 01 00 00	 mov	 DWORD PTR _maxxsize$197594[ebp], 326 ; 00000146H

; 238  : 			}
; 239  : 			else 

  00d7e	eb 1e		 jmp	 SHORT $L197612
$L197611:

; 240  : 			{
; 241  : 				maxxsize+=25;

  00d80	8b 8d 40 ff ff
	ff		 mov	 ecx, DWORD PTR _maxxsize$197594[ebp]
  00d86	83 c1 19	 add	 ecx, 25			; 00000019H
  00d89	89 8d 40 ff ff
	ff		 mov	 DWORD PTR _maxxsize$197594[ebp], ecx

; 242  : 				maxysize+=20;

  00d8f	8b 95 5c ff ff
	ff		 mov	 edx, DWORD PTR _maxysize$197595[ebp]
  00d95	83 c2 14	 add	 edx, 20			; 00000014H
  00d98	89 95 5c ff ff
	ff		 mov	 DWORD PTR _maxysize$197595[ebp], edx
$L197612:

; 243  : 			}
; 244  : 			
; 245  : 			CPoint opoint(m_lastPoint.x+10,m_lastPoint.y+20), point(m_lastPoint.x+maxxsize,m_lastPoint.y+maxysize+20-LINE_HIGHT);

  00d9e	8b 85 d4 fe ff
	ff		 mov	 eax, DWORD PTR _this$[ebp]
  00da4	8b 48 6c	 mov	 ecx, DWORD PTR [eax+108]
  00da7	83 c1 14	 add	 ecx, 20			; 00000014H
  00daa	51		 push	 ecx
  00dab	8b 95 d4 fe ff
	ff		 mov	 edx, DWORD PTR _this$[ebp]
  00db1	8b 42 68	 mov	 eax, DWORD PTR [edx+104]
  00db4	83 c0 0a	 add	 eax, 10			; 0000000aH
  00db7	50		 push	 eax
  00db8	8d 8d 54 ff ff
	ff		 lea	 ecx, DWORD PTR _opoint$197613[ebp]
  00dbe	e8 00 00 00 00	 call	 ??0CPoint@@QAE@HH@Z	; CPoint::CPoint
  00dc3	8b 8d d4 fe ff
	ff		 mov	 ecx, DWORD PTR _this$[ebp]
  00dc9	8b 51 6c	 mov	 edx, DWORD PTR [ecx+108]
  00dcc	8b 85 5c ff ff
	ff		 mov	 eax, DWORD PTR _maxysize$197595[ebp]
  00dd2	8d 4c 02 05	 lea	 ecx, DWORD PTR [edx+eax+5]
  00dd6	51		 push	 ecx
  00dd7	8b 95 d4 fe ff
	ff		 mov	 edx, DWORD PTR _this$[ebp]
  00ddd	8b 42 68	 mov	 eax, DWORD PTR [edx+104]
  00de0	03 85 40 ff ff
	ff		 add	 eax, DWORD PTR _maxxsize$197594[ebp]
  00de6	50		 push	 eax
  00de7	8d 4d e0	 lea	 ecx, DWORD PTR _point$197614[ebp]
  00dea	e8 00 00 00 00	 call	 ??0CPoint@@QAE@HH@Z	; CPoint::CPoint

; 246  : 			CRect rectNew, clientRect, mainRect;

  00def	8d 8d 30 ff ff
	ff		 lea	 ecx, DWORD PTR _rectNew$197615[ebp]
  00df5	e8 00 00 00 00	 call	 ??0CRect@@QAE@XZ	; CRect::CRect
  00dfa	8d 8d 60 ff ff
	ff		 lea	 ecx, DWORD PTR _clientRect$197616[ebp]
  00e00	e8 00 00 00 00	 call	 ??0CRect@@QAE@XZ	; CRect::CRect
  00e05	8d 8d 74 ff ff
	ff		 lea	 ecx, DWORD PTR _mainRect$197617[ebp]
  00e0b	e8 00 00 00 00	 call	 ??0CRect@@QAE@XZ	; CRect::CRect

; 247  : 			m_pClientWnd->GetClientRect(clientRect);

  00e10	8d 8d 60 ff ff
	ff		 lea	 ecx, DWORD PTR _clientRect$197616[ebp]
  00e16	e8 00 00 00 00	 call	 ??BCRect@@QAEPAUtagRECT@@XZ ; CRect::operator tagRECT *
  00e1b	50		 push	 eax
  00e1c	8b 8d d4 fe ff
	ff		 mov	 ecx, DWORD PTR _this$[ebp]
  00e22	8b 49 60	 mov	 ecx, DWORD PTR [ecx+96]
  00e25	e8 00 00 00 00	 call	 ?GetClientRect@CWnd@@QBEXPAUtagRECT@@@Z ; CWnd::GetClientRect

; 248  : 			m_pClientWnd->ClientToScreen(clientRect);			

  00e2a	8d 8d 60 ff ff
	ff		 lea	 ecx, DWORD PTR _clientRect$197616[ebp]
  00e30	e8 00 00 00 00	 call	 ??BCRect@@QAEPAUtagRECT@@XZ ; CRect::operator tagRECT *
  00e35	50		 push	 eax
  00e36	8b 95 d4 fe ff
	ff		 mov	 edx, DWORD PTR _this$[ebp]
  00e3c	8b 4a 60	 mov	 ecx, DWORD PTR [edx+96]
  00e3f	e8 00 00 00 00	 call	 ?ClientToScreen@CWnd@@QBEXPAUtagRECT@@@Z ; CWnd::ClientToScreen

; 249  : 
; 250  : 			//tooltip
; 251  : 			if(point.y > clientRect.bottom && pt.y-maxysize+LINE_HIGHT > 0)

  00e44	8b 45 e4	 mov	 eax, DWORD PTR _point$197614[ebp+4]
  00e47	3b 85 6c ff ff
	ff		 cmp	 eax, DWORD PTR _clientRect$197616[ebp+12]
  00e4d	7e 28		 jle	 SHORT $L197618
  00e4f	8b 4d f0	 mov	 ecx, DWORD PTR _pt$197579[ebp+4]
  00e52	2b 8d 5c ff ff
	ff		 sub	 ecx, DWORD PTR _maxysize$197595[ebp]
  00e58	83 c1 0f	 add	 ecx, 15			; 0000000fH
  00e5b	85 c9		 test	 ecx, ecx
  00e5d	7e 18		 jle	 SHORT $L197618

; 252  : 			{
; 253  : 				opoint.y = pt.y-maxysize+LINE_HIGHT;

  00e5f	8b 55 f0	 mov	 edx, DWORD PTR _pt$197579[ebp+4]
  00e62	2b 95 5c ff ff
	ff		 sub	 edx, DWORD PTR _maxysize$197595[ebp]
  00e68	83 c2 0f	 add	 edx, 15			; 0000000fH
  00e6b	89 95 58 ff ff
	ff		 mov	 DWORD PTR _opoint$197613[ebp+4], edx

; 254  : 				point.y  = pt.y;

  00e71	8b 45 f0	 mov	 eax, DWORD PTR _pt$197579[ebp+4]
  00e74	89 45 e4	 mov	 DWORD PTR _point$197614[ebp+4], eax
$L197618:

; 255  : 			}
; 256  : 
; 257  : 			//tooltip
; 258  : 			if(point.x > clientRect.right && pt.x - maxxsize > 0)

  00e77	8b 4d e0	 mov	 ecx, DWORD PTR _point$197614[ebp]
  00e7a	3b 8d 68 ff ff
	ff		 cmp	 ecx, DWORD PTR _clientRect$197616[ebp+8]
  00e80	7e 25		 jle	 SHORT $L197619
  00e82	8b 55 ec	 mov	 edx, DWORD PTR _pt$197579[ebp]
  00e85	2b 95 40 ff ff
	ff		 sub	 edx, DWORD PTR _maxxsize$197594[ebp]
  00e8b	85 d2		 test	 edx, edx
  00e8d	7e 18		 jle	 SHORT $L197619

; 259  : 			{
; 260  : 				point.x = pt.x;

  00e8f	8b 45 ec	 mov	 eax, DWORD PTR _pt$197579[ebp]
  00e92	89 45 e0	 mov	 DWORD PTR _point$197614[ebp], eax

; 261  : 				opoint.x = pt.x - maxxsize + 10;

  00e95	8b 4d ec	 mov	 ecx, DWORD PTR _pt$197579[ebp]
  00e98	2b 8d 40 ff ff
	ff		 sub	 ecx, DWORD PTR _maxxsize$197594[ebp]
  00e9e	83 c1 0a	 add	 ecx, 10			; 0000000aH
  00ea1	89 8d 54 ff ff
	ff		 mov	 DWORD PTR _opoint$197613[ebp], ecx
$L197619:

; 262  : 			}
; 263  : 			rectNew = CRect(opoint, point);

  00ea7	8b 55 e0	 mov	 edx, DWORD PTR _point$197614[ebp]
  00eaa	89 95 e0 fe ff
	ff		 mov	 DWORD PTR $T198322[ebp], edx
  00eb0	8b 45 e4	 mov	 eax, DWORD PTR _point$197614[ebp+4]
  00eb3	89 85 e4 fe ff
	ff		 mov	 DWORD PTR $T198322[ebp+4], eax
  00eb9	8b 8d 54 ff ff
	ff		 mov	 ecx, DWORD PTR _opoint$197613[ebp]
  00ebf	89 8d d8 fe ff
	ff		 mov	 DWORD PTR $T198323[ebp], ecx
  00ec5	8b 95 58 ff ff
	ff		 mov	 edx, DWORD PTR _opoint$197613[ebp+4]
  00ecb	89 95 dc fe ff
	ff		 mov	 DWORD PTR $T198323[ebp+4], edx
  00ed1	8b 85 e4 fe ff
	ff		 mov	 eax, DWORD PTR $T198322[ebp+4]
  00ed7	50		 push	 eax
  00ed8	8b 8d e0 fe ff
	ff		 mov	 ecx, DWORD PTR $T198322[ebp]
  00ede	51		 push	 ecx
  00edf	8b 95 dc fe ff
	ff		 mov	 edx, DWORD PTR $T198323[ebp+4]
  00ee5	52		 push	 edx
  00ee6	8b 85 d8 fe ff
	ff		 mov	 eax, DWORD PTR $T198323[ebp]
  00eec	50		 push	 eax
  00eed	8d 8d e8 fe ff
	ff		 lea	 ecx, DWORD PTR $T198321[ebp]
  00ef3	e8 00 00 00 00	 call	 ??0CRect@@QAE@UtagPOINT@@0@Z ; CRect::CRect
  00ef8	8b 08		 mov	 ecx, DWORD PTR [eax]
  00efa	89 8d 30 ff ff
	ff		 mov	 DWORD PTR _rectNew$197615[ebp], ecx
  00f00	8b 50 04	 mov	 edx, DWORD PTR [eax+4]
  00f03	89 95 34 ff ff
	ff		 mov	 DWORD PTR _rectNew$197615[ebp+4], edx
  00f09	8b 48 08	 mov	 ecx, DWORD PTR [eax+8]
  00f0c	89 8d 38 ff ff
	ff		 mov	 DWORD PTR _rectNew$197615[ebp+8], ecx
  00f12	8b 50 0c	 mov	 edx, DWORD PTR [eax+12]
  00f15	89 95 3c ff ff
	ff		 mov	 DWORD PTR _rectNew$197615[ebp+12], edx

; 264  : 
; 265  : 			if(GetParent() != NULL)

  00f1b	8b 8d d4 fe ff
	ff		 mov	 ecx, DWORD PTR _this$[ebp]
  00f21	e8 00 00 00 00	 call	 ?GetParent@CWnd@@QBEPAV1@XZ ; CWnd::GetParent
  00f26	85 c0		 test	 eax, eax
  00f28	74 1a		 je	 SHORT $L197623

; 266  : 			{
; 267  : 				m_pClientWnd->ScreenToClient(rectNew);

  00f2a	8d 8d 30 ff ff
	ff		 lea	 ecx, DWORD PTR _rectNew$197615[ebp]
  00f30	e8 00 00 00 00	 call	 ??BCRect@@QAEPAUtagRECT@@XZ ; CRect::operator tagRECT *
  00f35	50		 push	 eax
  00f36	8b 85 d4 fe ff
	ff		 mov	 eax, DWORD PTR _this$[ebp]
  00f3c	8b 48 60	 mov	 ecx, DWORD PTR [eax+96]
  00f3f	e8 00 00 00 00	 call	 ?ScreenToClient@CWnd@@QBEXPAUtagRECT@@@Z ; CWnd::ScreenToClient
$L197623:

; 268  : 			}
; 269  : 			SetWindowPos(&wndTopMost,rectNew.left,rectNew.top,rectNew.Width(),rectNew.Height(), SWP_NOACTIVATE);

  00f44	6a 10		 push	 16			; 00000010H
  00f46	8d 8d 30 ff ff
	ff		 lea	 ecx, DWORD PTR _rectNew$197615[ebp]
  00f4c	e8 00 00 00 00	 call	 ?Height@CRect@@QBEHXZ	; CRect::Height
  00f51	50		 push	 eax
  00f52	8d 8d 30 ff ff
	ff		 lea	 ecx, DWORD PTR _rectNew$197615[ebp]
  00f58	e8 00 00 00 00	 call	 ?Width@CRect@@QBEHXZ	; CRect::Width
  00f5d	50		 push	 eax
  00f5e	8b 8d 34 ff ff
	ff		 mov	 ecx, DWORD PTR _rectNew$197615[ebp+4]
  00f64	51		 push	 ecx
  00f65	8b 95 30 ff ff
	ff		 mov	 edx, DWORD PTR _rectNew$197615[ebp]
  00f6b	52		 push	 edx
  00f6c	a1 00 00 00 00	 mov	 eax, DWORD PTR __imp_?wndTopMost@CWnd@@2V1@B
  00f71	50		 push	 eax
  00f72	8b 8d d4 fe ff
	ff		 mov	 ecx, DWORD PTR _this$[ebp]
  00f78	e8 00 00 00 00	 call	 ?SetWindowPos@CWnd@@QAEHPBV1@HHHHI@Z ; CWnd::SetWindowPos

; 270  : 		    ShowWindow(SW_SHOWNOACTIVATE);

  00f7d	6a 04		 push	 4
  00f7f	8b 8d d4 fe ff
	ff		 mov	 ecx, DWORD PTR _this$[ebp]
  00f85	e8 00 00 00 00	 call	 ?ShowWindow@CWnd@@QAEHH@Z ; CWnd::ShowWindow

; 271  : 		}

  00f8a	c6 45 fc 01	 mov	 BYTE PTR __$EHRec$[ebp+8], 1
  00f8e	8d 8d 70 ff ff
	ff		 lea	 ecx, DWORD PTR _tempStrInfo$197596[ebp]
  00f94	ff 15 00 00 00
	00		 call	 DWORD PTR __imp_??1?$CStringT@DV?$StrTraitMFC_DLL@DV?$ChTraitsCRT@D@ATL@@@@@ATL@@QAE@XZ
  00f9a	c6 45 fc 00	 mov	 BYTE PTR __$EHRec$[ebp+8], 0
  00f9e	8d 8d 28 ff ff
	ff		 lea	 ecx, DWORD PTR _font$197590[ebp]
  00fa4	e8 00 00 00 00	 call	 ??1CFont@@UAE@XZ	; CFont::~CFont
  00fa9	c7 45 fc ff ff
	ff ff		 mov	 DWORD PTR __$EHRec$[ebp+8], -1
  00fb0	8d 4d 84	 lea	 ecx, DWORD PTR _dc$197589[ebp]
  00fb3	e8 00 00 00 00	 call	 ??1CPaintDC@@UAE@XZ	; CPaintDC::~CPaintDC
$L197588:

; 272  : 		this->Invalidate(TRUE);

  00fb8	6a 01		 push	 1
  00fba	8b 8d d4 fe ff
	ff		 mov	 ecx, DWORD PTR _this$[ebp]
  00fc0	e8 00 00 00 00	 call	 ?Invalidate@CWnd@@QAEXH@Z ; CWnd::Invalidate

; 273  : 		KillTimer(ID_TEMER_TOOLTIPS);

  00fc5	68 e6 00 00 00	 push	 230			; 000000e6H
  00fca	8b 8d d4 fe ff
	ff		 mov	 ecx, DWORD PTR _this$[ebp]
  00fd0	e8 00 00 00 00	 call	 ?KillTimer@CWnd@@QAEHI@Z ; CWnd::KillTimer
$L197577:

; 274  : 	}
; 275  : 
; 276  : 	CWnd::OnTimer(nIDEvent);

  00fd5	8b 4d 08	 mov	 ecx, DWORD PTR _nIDEvent$[ebp]
  00fd8	51		 push	 ecx
  00fd9	8b 8d d4 fe ff
	ff		 mov	 ecx, DWORD PTR _this$[ebp]
  00fdf	e8 00 00 00 00	 call	 ?OnTimer@CWnd@@IAEXI@Z	; CWnd::OnTimer
$L197574:

; 277  : }

  00fe4	8b 4d f4	 mov	 ecx, DWORD PTR __$EHRec$[ebp]
  00fe7	64 89 0d 00 00
	00 00		 mov	 DWORD PTR fs:__except_list, ecx
  00fee	8b 4d dc	 mov	 ecx, DWORD PTR __$ArrayPad$[ebp]
  00ff1	e8 00 00 00 00	 call	 @__security_check_cookie@4
  00ff6	8b e5		 mov	 esp, ebp
  00ff8	5d		 pop	 ebp
  00ff9	c2 04 00	 ret	 4
_TEXT	ENDS
text$x	SEGMENT
$L198324:
  000ad	8d 4d 84	 lea	 ecx, DWORD PTR _dc$197589[ebp]
  000b0	e9 00 00 00 00	 jmp	 ??1CPaintDC@@UAE@XZ	; CPaintDC::~CPaintDC
$L198325:
  000b5	8d 8d 28 ff ff
	ff		 lea	 ecx, DWORD PTR _font$197590[ebp]
  000bb	e9 00 00 00 00	 jmp	 ??1CFont@@UAE@XZ	; CFont::~CFont
$L198326:
  000c0	8d 8d 70 ff ff
	ff		 lea	 ecx, DWORD PTR _tempStrInfo$197596[ebp]
  000c6	ff 25 00 00 00
	00		 jmp	 DWORD PTR __imp_??1?$CStringT@DV?$StrTraitMFC_DLL@DV?$ChTraitsCRT@D@ATL@@@@@ATL@@QAE@XZ
$L198327:
  000cc	8d 8d 24 ff ff
	ff		 lea	 ecx, DWORD PTR _temp$197601[ebp]
  000d2	ff 25 00 00 00
	00		 jmp	 DWORD PTR __imp_??1?$CStringT@DV?$StrTraitMFC_DLL@DV?$ChTraitsCRT@D@ATL@@@@@ATL@@QAE@XZ
$L198328:
  000d8	8d 8d f8 fe ff
	ff		 lea	 ecx, DWORD PTR $T198320[ebp]
  000de	ff 25 00 00 00
	00		 jmp	 DWORD PTR __imp_??1?$CStringT@DV?$StrTraitMFC_DLL@DV?$ChTraitsCRT@D@ATL@@@@@ATL@@QAE@XZ
__ehhandler$?OnTimer@CCWToolTips@@QAEXI@Z:
  000e4	b8 00 00 00 00	 mov	 eax, OFFSET FLAT:$T198330
  000e9	e9 00 00 00 00	 jmp	 ___CxxFrameHandler
text$x	ENDS
?OnTimer@CCWToolTips@@QAEXI@Z ENDP			; CCWToolTips::OnTimer
EXTRN	__imp__PostMessageA@16:NEAR
EXTRN	?PreTranslateMessage@CWnd@@UAEHPAUtagMSG@@@Z:NEAR ; CWnd::PreTranslateMessage
; Function compile flags: /Odt
_TEXT	SEGMENT
_this$ = -4						; size = 4
_pMsg$ = 8						; size = 4
?PreTranslateMessage@CCWToolTips@@UAEHPAUtagMSG@@@Z PROC NEAR ; CCWToolTips::PreTranslateMessage
; _this$ = ecx

; 280  : {

  01000	55		 push	 ebp
  01001	8b ec		 mov	 ebp, esp
  01003	51		 push	 ecx
  01004	89 4d fc	 mov	 DWORD PTR _this$[ebp], ecx

; 281  : 	if(pMsg->message != WM_PAINT && pMsg->message != WM_SIZE && pMsg->message != WM_SIZING)

  01007	8b 45 08	 mov	 eax, DWORD PTR _pMsg$[ebp]
  0100a	83 78 04 0f	 cmp	 DWORD PTR [eax+4], 15	; 0000000fH
  0100e	74 46		 je	 SHORT $L197628
  01010	8b 4d 08	 mov	 ecx, DWORD PTR _pMsg$[ebp]
  01013	83 79 04 05	 cmp	 DWORD PTR [ecx+4], 5
  01017	74 3d		 je	 SHORT $L197628
  01019	8b 55 08	 mov	 edx, DWORD PTR _pMsg$[ebp]
  0101c	81 7a 04 14 02
	00 00		 cmp	 DWORD PTR [edx+4], 532	; 00000214H
  01023	74 31		 je	 SHORT $L197628

; 282  : 	{
; 283  : 		if(m_hParent != NULL)

  01025	8b 45 fc	 mov	 eax, DWORD PTR _this$[ebp]
  01028	83 b8 88 00 00
	00 00		 cmp	 DWORD PTR [eax+136], 0
  0102f	74 25		 je	 SHORT $L197628

; 284  : 			::PostMessage(m_hParent, pMsg->message, pMsg->wParam, pMsg->lParam);

  01031	8b 4d 08	 mov	 ecx, DWORD PTR _pMsg$[ebp]
  01034	8b 51 0c	 mov	 edx, DWORD PTR [ecx+12]
  01037	52		 push	 edx
  01038	8b 45 08	 mov	 eax, DWORD PTR _pMsg$[ebp]
  0103b	8b 48 08	 mov	 ecx, DWORD PTR [eax+8]
  0103e	51		 push	 ecx
  0103f	8b 55 08	 mov	 edx, DWORD PTR _pMsg$[ebp]
  01042	8b 42 04	 mov	 eax, DWORD PTR [edx+4]
  01045	50		 push	 eax
  01046	8b 4d fc	 mov	 ecx, DWORD PTR _this$[ebp]
  01049	8b 91 88 00 00
	00		 mov	 edx, DWORD PTR [ecx+136]
  0104f	52		 push	 edx
  01050	ff 15 00 00 00
	00		 call	 DWORD PTR __imp__PostMessageA@16
$L197628:

; 285  : 	}
; 286  : 	return CWnd::PreTranslateMessage(pMsg);

  01056	8b 45 08	 mov	 eax, DWORD PTR _pMsg$[ebp]
  01059	50		 push	 eax
  0105a	8b 4d fc	 mov	 ecx, DWORD PTR _this$[ebp]
  0105d	e8 00 00 00 00	 call	 ?PreTranslateMessage@CWnd@@UAEHPAUtagMSG@@@Z ; CWnd::PreTranslateMessage

; 287  : }

  01062	8b e5		 mov	 esp, ebp
  01064	5d		 pop	 ebp
  01065	c2 04 00	 ret	 4
?PreTranslateMessage@CCWToolTips@@UAEHPAUtagMSG@@@Z ENDP ; CCWToolTips::PreTranslateMessage
_TEXT	ENDS
PUBLIC	?GetWindowRect@CWnd@@QBEXPAUtagRECT@@@Z		; CWnd::GetWindowRect
PUBLIC	?GetWindowDC@CWnd@@QAEPAVCDC@@XZ		; CWnd::GetWindowDC
PUBLIC	?ReleaseDC@CWnd@@QAEHPAVCDC@@@Z			; CWnd::ReleaseDC
PUBLIC	?TopLeft@CRect@@QAEAAVCPoint@@XZ		; CRect::TopLeft
PUBLIC	?BottomRight@CRect@@QAEAAVCPoint@@XZ		; CRect::BottomRight
PUBLIC	?OffsetRect@CRect@@QAEXHH@Z			; CRect::OffsetRect
PUBLIC	??1CPen@@UAE@XZ					; CPen::~CPen
EXTRN	?SelectObject@CDC@@QAEPAVCPen@@PAV2@@Z:NEAR	; CDC::SelectObject
EXTRN	?MoveTo@CDC@@QAE?AVCPoint@@HH@Z:NEAR		; CDC::MoveTo
EXTRN	?LineTo@CDC@@QAEHHH@Z:NEAR			; CDC::LineTo
EXTRN	?DeleteObject@CGdiObject@@QAEHXZ:NEAR		; CGdiObject::DeleteObject
EXTRN	??0CPen@@QAE@HHK@Z:NEAR				; CPen::CPen
xdata$x	SEGMENT
$T198341 DD	0ffffffffH
	DD	FLAT:$L198337
$T198339 DD	019930520H
	DD	01H
	DD	FLAT:$T198341
	DD	2 DUP(00H)
	DD	2 DUP(00H)
; Function compile flags: /Odt
xdata$x	ENDS
_TEXT	SEGMENT
tv77 = -64						; size = 4
tv72 = -60						; size = 4
_this$ = -56						; size = 4
$T198336 = -52						; size = 8
_pen$ = -44						; size = 8
_pOldPen$ = -36						; size = 4
_pWinDC$ = -32						; size = 4
_rect$ = -28						; size = 16
__$EHRec$ = -12						; size = 12
?OnNcPaint@CCWToolTips@@QAEXXZ PROC NEAR		; CCWToolTips::OnNcPaint
; _this$ = ecx

; 290  : {

  01070	55		 push	 ebp
  01071	8b ec		 mov	 ebp, esp
  01073	6a ff		 push	 -1
  01075	68 00 00 00 00	 push	 __ehhandler$?OnNcPaint@CCWToolTips@@QAEXXZ
  0107a	64 a1 00 00 00
	00		 mov	 eax, DWORD PTR fs:__except_list
  01080	50		 push	 eax
  01081	64 89 25 00 00
	00 00		 mov	 DWORD PTR fs:__except_list, esp
  01088	83 ec 34	 sub	 esp, 52			; 00000034H
  0108b	89 4d c8	 mov	 DWORD PTR _this$[ebp], ecx

; 291  : 	CRect rect;

  0108e	8d 4d e4	 lea	 ecx, DWORD PTR _rect$[ebp]
  01091	e8 00 00 00 00	 call	 ??0CRect@@QAE@XZ	; CRect::CRect

; 292  : 	GetWindowRect(rect);

  01096	8d 4d e4	 lea	 ecx, DWORD PTR _rect$[ebp]
  01099	e8 00 00 00 00	 call	 ??BCRect@@QAEPAUtagRECT@@XZ ; CRect::operator tagRECT *
  0109e	50		 push	 eax
  0109f	8b 4d c8	 mov	 ecx, DWORD PTR _this$[ebp]
  010a2	e8 00 00 00 00	 call	 ?GetWindowRect@CWnd@@QBEXPAUtagRECT@@@Z ; CWnd::GetWindowRect

; 293  : 
; 294  : 	m_clrBorder = ::AfxGetUIManager()->UIGetSkinMgr()->GetColor("TooltipBorderColor");

  010a7	e8 00 00 00 00	 call	 ?AfxGetUIManager@@YAPAVIUIManager@@XZ ; AfxGetUIManager
  010ac	89 45 c4	 mov	 DWORD PTR tv72[ebp], eax
  010af	8b 45 c4	 mov	 eax, DWORD PTR tv72[ebp]
  010b2	8b 10		 mov	 edx, DWORD PTR [eax]
  010b4	8b 4d c4	 mov	 ecx, DWORD PTR tv72[ebp]
  010b7	ff 52 28	 call	 DWORD PTR [edx+40]
  010ba	89 45 c0	 mov	 DWORD PTR tv77[ebp], eax
  010bd	68 00 00 00 00	 push	 OFFSET FLAT:$SG197634
  010c2	8b 45 c0	 mov	 eax, DWORD PTR tv77[ebp]
  010c5	8b 10		 mov	 edx, DWORD PTR [eax]
  010c7	8b 4d c0	 mov	 ecx, DWORD PTR tv77[ebp]
  010ca	ff 52 08	 call	 DWORD PTR [edx+8]
  010cd	8b 4d c8	 mov	 ecx, DWORD PTR _this$[ebp]
  010d0	89 41 58	 mov	 DWORD PTR [ecx+88], eax

; 295  : 	rect.OffsetRect(-rect.left, -rect.top);

  010d3	8b 55 e8	 mov	 edx, DWORD PTR _rect$[ebp+4]
  010d6	f7 da		 neg	 edx
  010d8	52		 push	 edx
  010d9	8b 45 e4	 mov	 eax, DWORD PTR _rect$[ebp]
  010dc	f7 d8		 neg	 eax
  010de	50		 push	 eax
  010df	8d 4d e4	 lea	 ecx, DWORD PTR _rect$[ebp]
  010e2	e8 00 00 00 00	 call	 ?OffsetRect@CRect@@QAEXHH@Z ; CRect::OffsetRect

; 296  : 
; 297  : 	CDC *pWinDC = GetWindowDC();	

  010e7	8b 4d c8	 mov	 ecx, DWORD PTR _this$[ebp]
  010ea	e8 00 00 00 00	 call	 ?GetWindowDC@CWnd@@QAEPAVCDC@@XZ ; CWnd::GetWindowDC
  010ef	89 45 e0	 mov	 DWORD PTR _pWinDC$[ebp], eax

; 298  : 
; 299  : 	CPen pen(PS_SOLID,1,m_clrBorder);

  010f2	8b 4d c8	 mov	 ecx, DWORD PTR _this$[ebp]
  010f5	8b 51 58	 mov	 edx, DWORD PTR [ecx+88]
  010f8	52		 push	 edx
  010f9	6a 01		 push	 1
  010fb	6a 00		 push	 0
  010fd	8d 4d d4	 lea	 ecx, DWORD PTR _pen$[ebp]
  01100	e8 00 00 00 00	 call	 ??0CPen@@QAE@HHK@Z	; CPen::CPen
  01105	c7 45 fc 00 00
	00 00		 mov	 DWORD PTR __$EHRec$[ebp+8], 0

; 300  : 
; 301  : 	CPen* pOldPen = pWinDC->SelectObject(&pen);

  0110c	8d 45 d4	 lea	 eax, DWORD PTR _pen$[ebp]
  0110f	50		 push	 eax
  01110	8b 4d e0	 mov	 ecx, DWORD PTR _pWinDC$[ebp]
  01113	e8 00 00 00 00	 call	 ?SelectObject@CDC@@QAEPAVCPen@@PAV2@@Z ; CDC::SelectObject
  01118	89 45 dc	 mov	 DWORD PTR _pOldPen$[ebp], eax

; 302  : 	pWinDC->MoveTo(rect.TopLeft().x,rect.TopLeft().y);

  0111b	8d 4d e4	 lea	 ecx, DWORD PTR _rect$[ebp]
  0111e	e8 00 00 00 00	 call	 ?TopLeft@CRect@@QAEAAVCPoint@@XZ ; CRect::TopLeft
  01123	8b 48 04	 mov	 ecx, DWORD PTR [eax+4]
  01126	51		 push	 ecx
  01127	8d 4d e4	 lea	 ecx, DWORD PTR _rect$[ebp]
  0112a	e8 00 00 00 00	 call	 ?TopLeft@CRect@@QAEAAVCPoint@@XZ ; CRect::TopLeft
  0112f	8b 10		 mov	 edx, DWORD PTR [eax]
  01131	52		 push	 edx
  01132	8d 45 cc	 lea	 eax, DWORD PTR $T198336[ebp]
  01135	50		 push	 eax
  01136	8b 4d e0	 mov	 ecx, DWORD PTR _pWinDC$[ebp]
  01139	e8 00 00 00 00	 call	 ?MoveTo@CDC@@QAE?AVCPoint@@HH@Z ; CDC::MoveTo

; 303  : 	pWinDC->LineTo(rect.BottomRight().x-1,rect.TopLeft().y);

  0113e	8d 4d e4	 lea	 ecx, DWORD PTR _rect$[ebp]
  01141	e8 00 00 00 00	 call	 ?TopLeft@CRect@@QAEAAVCPoint@@XZ ; CRect::TopLeft
  01146	8b 48 04	 mov	 ecx, DWORD PTR [eax+4]
  01149	51		 push	 ecx
  0114a	8d 4d e4	 lea	 ecx, DWORD PTR _rect$[ebp]
  0114d	e8 00 00 00 00	 call	 ?BottomRight@CRect@@QAEAAVCPoint@@XZ ; CRect::BottomRight
  01152	8b 10		 mov	 edx, DWORD PTR [eax]
  01154	83 ea 01	 sub	 edx, 1
  01157	52		 push	 edx
  01158	8b 4d e0	 mov	 ecx, DWORD PTR _pWinDC$[ebp]
  0115b	e8 00 00 00 00	 call	 ?LineTo@CDC@@QAEHHH@Z	; CDC::LineTo

; 304  : 	pWinDC->LineTo(rect.BottomRight().x-1,rect.BottomRight().y-1);

  01160	8d 4d e4	 lea	 ecx, DWORD PTR _rect$[ebp]
  01163	e8 00 00 00 00	 call	 ?BottomRight@CRect@@QAEAAVCPoint@@XZ ; CRect::BottomRight
  01168	8b 40 04	 mov	 eax, DWORD PTR [eax+4]
  0116b	83 e8 01	 sub	 eax, 1
  0116e	50		 push	 eax
  0116f	8d 4d e4	 lea	 ecx, DWORD PTR _rect$[ebp]
  01172	e8 00 00 00 00	 call	 ?BottomRight@CRect@@QAEAAVCPoint@@XZ ; CRect::BottomRight
  01177	8b 08		 mov	 ecx, DWORD PTR [eax]
  01179	83 e9 01	 sub	 ecx, 1
  0117c	51		 push	 ecx
  0117d	8b 4d e0	 mov	 ecx, DWORD PTR _pWinDC$[ebp]
  01180	e8 00 00 00 00	 call	 ?LineTo@CDC@@QAEHHH@Z	; CDC::LineTo

; 305  : 	pWinDC->LineTo(rect.TopLeft().x,rect.BottomRight().y-1);

  01185	8d 4d e4	 lea	 ecx, DWORD PTR _rect$[ebp]
  01188	e8 00 00 00 00	 call	 ?BottomRight@CRect@@QAEAAVCPoint@@XZ ; CRect::BottomRight
  0118d	8b 50 04	 mov	 edx, DWORD PTR [eax+4]
  01190	83 ea 01	 sub	 edx, 1
  01193	52		 push	 edx
  01194	8d 4d e4	 lea	 ecx, DWORD PTR _rect$[ebp]
  01197	e8 00 00 00 00	 call	 ?TopLeft@CRect@@QAEAAVCPoint@@XZ ; CRect::TopLeft
  0119c	8b 00		 mov	 eax, DWORD PTR [eax]
  0119e	50		 push	 eax
  0119f	8b 4d e0	 mov	 ecx, DWORD PTR _pWinDC$[ebp]
  011a2	e8 00 00 00 00	 call	 ?LineTo@CDC@@QAEHHH@Z	; CDC::LineTo

; 306  : 	pWinDC->LineTo(rect.TopLeft().x,rect.TopLeft().y);

  011a7	8d 4d e4	 lea	 ecx, DWORD PTR _rect$[ebp]
  011aa	e8 00 00 00 00	 call	 ?TopLeft@CRect@@QAEAAVCPoint@@XZ ; CRect::TopLeft
  011af	8b 48 04	 mov	 ecx, DWORD PTR [eax+4]
  011b2	51		 push	 ecx
  011b3	8d 4d e4	 lea	 ecx, DWORD PTR _rect$[ebp]
  011b6	e8 00 00 00 00	 call	 ?TopLeft@CRect@@QAEAAVCPoint@@XZ ; CRect::TopLeft
  011bb	8b 10		 mov	 edx, DWORD PTR [eax]
  011bd	52		 push	 edx
  011be	8b 4d e0	 mov	 ecx, DWORD PTR _pWinDC$[ebp]
  011c1	e8 00 00 00 00	 call	 ?LineTo@CDC@@QAEHHH@Z	; CDC::LineTo

; 307  : 	pWinDC->SelectObject(pOldPen);

  011c6	8b 45 dc	 mov	 eax, DWORD PTR _pOldPen$[ebp]
  011c9	50		 push	 eax
  011ca	8b 4d e0	 mov	 ecx, DWORD PTR _pWinDC$[ebp]
  011cd	e8 00 00 00 00	 call	 ?SelectObject@CDC@@QAEPAVCPen@@PAV2@@Z ; CDC::SelectObject

; 308  : 	pen.DeleteObject();

  011d2	8d 4d d4	 lea	 ecx, DWORD PTR _pen$[ebp]
  011d5	e8 00 00 00 00	 call	 ?DeleteObject@CGdiObject@@QAEHXZ ; CGdiObject::DeleteObject

; 309  : 
; 310  : 	ReleaseDC(pWinDC);

  011da	8b 4d e0	 mov	 ecx, DWORD PTR _pWinDC$[ebp]
  011dd	51		 push	 ecx
  011de	8b 4d c8	 mov	 ecx, DWORD PTR _this$[ebp]
  011e1	e8 00 00 00 00	 call	 ?ReleaseDC@CWnd@@QAEHPAVCDC@@@Z ; CWnd::ReleaseDC

; 311  : }

  011e6	c7 45 fc ff ff
	ff ff		 mov	 DWORD PTR __$EHRec$[ebp+8], -1
  011ed	8d 4d d4	 lea	 ecx, DWORD PTR _pen$[ebp]
  011f0	e8 00 00 00 00	 call	 ??1CPen@@UAE@XZ		; CPen::~CPen
  011f5	8b 4d f4	 mov	 ecx, DWORD PTR __$EHRec$[ebp]
  011f8	64 89 0d 00 00
	00 00		 mov	 DWORD PTR fs:__except_list, ecx
  011ff	8b e5		 mov	 esp, ebp
  01201	5d		 pop	 ebp
  01202	c3		 ret	 0
_TEXT	ENDS
text$x	SEGMENT
$L198337:
  000ee	8d 4d d4	 lea	 ecx, DWORD PTR _pen$[ebp]
  000f1	e9 00 00 00 00	 jmp	 ??1CPen@@UAE@XZ		; CPen::~CPen
__ehhandler$?OnNcPaint@CCWToolTips@@QAEXXZ:
  000f6	b8 00 00 00 00	 mov	 eax, OFFSET FLAT:$T198339
  000fb	e9 00 00 00 00	 jmp	 ___CxxFrameHandler
text$x	ENDS
?OnNcPaint@CCWToolTips@@QAEXXZ ENDP			; CCWToolTips::OnNcPaint
PUBLIC	?InterlockedExchangePointer@@YGPAXPAPAXPAX@Z	; InterlockedExchangePointer
PUBLIC	?_AtlGetThreadACPFake@ATL@@YGIXZ		; ATL::_AtlGetThreadACPFake
PUBLIC	?_AtlGetThreadACPReal@ATL@@YGIXZ		; ATL::_AtlGetThreadACPReal
EXTRN	__imp__GetVersionExA@4:NEAR
; Function compile flags: /Odt
; File d:\program files (x86)\microsoft visual studio .net 2003\vc7\atlmfc\include\atlconv.h
;	COMDAT ?_AtlGetThreadACPThunk@ATL@@YGIXZ
_TEXT	SEGMENT
_pfnGetThreadACP$ = -164				; size = 4
_ver$ = -160						; size = 148
__$ArrayPad$ = -4					; size = 4
__$ReturnAddr$ = 4					; size = 4
?_AtlGetThreadACPThunk@ATL@@YGIXZ PROC NEAR		; ATL::_AtlGetThreadACPThunk, COMDAT

; 134  : {

  00000	55		 push	 ebp
  00001	8b ec		 mov	 ebp, esp
  00003	81 ec a4 00 00
	00		 sub	 esp, 164		; 000000a4H
  00009	a1 00 00 00 00	 mov	 eax, DWORD PTR ___security_cookie
  0000e	89 45 fc	 mov	 DWORD PTR __$ArrayPad$[ebp], eax

; 135  : 	OSVERSIONINFO ver;
; 136  : 	ATLGETTHREADACP pfnGetThreadACP;
; 137  : 
; 138  : 	ver.dwOSVersionInfoSize = sizeof( ver );

  00011	c7 85 60 ff ff
	ff 94 00 00 00	 mov	 DWORD PTR _ver$[ebp], 148 ; 00000094H

; 139  : 	::GetVersionEx( &ver );

  0001b	8d 85 60 ff ff
	ff		 lea	 eax, DWORD PTR _ver$[ebp]
  00021	50		 push	 eax
  00022	ff 15 00 00 00
	00		 call	 DWORD PTR __imp__GetVersionExA@4

; 140  : 	if( (ver.dwPlatformId == VER_PLATFORM_WIN32_NT) && (ver.dwMajorVersion >= 5) )

  00028	83 bd 70 ff ff
	ff 02		 cmp	 DWORD PTR _ver$[ebp+16], 2
  0002f	75 15		 jne	 SHORT $L24173
  00031	83 bd 64 ff ff
	ff 05		 cmp	 DWORD PTR _ver$[ebp+4], 5
  00038	72 0c		 jb	 SHORT $L24173

; 141  : 	{
; 142  : 		// On Win2K, CP_THREAD_ACP is supported
; 143  : 		pfnGetThreadACP = _AtlGetThreadACPReal;

  0003a	c7 85 5c ff ff
	ff 00 00 00 00	 mov	 DWORD PTR _pfnGetThreadACP$[ebp], OFFSET FLAT:?_AtlGetThreadACPReal@ATL@@YGIXZ ; ATL::_AtlGetThreadACPReal

; 144  : 	}
; 145  : 	else

  00044	eb 0a		 jmp	 SHORT $L24174
$L24173:

; 146  : 	{
; 147  : 		pfnGetThreadACP = _AtlGetThreadACPFake;

  00046	c7 85 5c ff ff
	ff 00 00 00 00	 mov	 DWORD PTR _pfnGetThreadACP$[ebp], OFFSET FLAT:?_AtlGetThreadACPFake@ATL@@YGIXZ ; ATL::_AtlGetThreadACPFake
$L24174:

; 148  : 	}
; 149  : 	InterlockedExchangePointer( reinterpret_cast< void** >(&g_pfnGetThreadACP), pfnGetThreadACP );

  00050	8b 8d 5c ff ff
	ff		 mov	 ecx, DWORD PTR _pfnGetThreadACP$[ebp]
  00056	51		 push	 ecx
  00057	68 00 00 00 00	 push	 OFFSET FLAT:?g_pfnGetThreadACP@ATL@@3P6GIXZA ; ATL::g_pfnGetThreadACP
  0005c	e8 00 00 00 00	 call	 ?InterlockedExchangePointer@@YGPAXPAPAXPAX@Z ; InterlockedExchangePointer

; 150  : 
; 151  : 	return( g_pfnGetThreadACP() );

  00061	ff 15 00 00 00
	00		 call	 DWORD PTR ?g_pfnGetThreadACP@ATL@@3P6GIXZA ; ATL::g_pfnGetThreadACP

; 152  : }

  00067	8b 4d fc	 mov	 ecx, DWORD PTR __$ArrayPad$[ebp]
  0006a	e8 00 00 00 00	 call	 @__security_check_cookie@4
  0006f	8b e5		 mov	 esp, ebp
  00071	5d		 pop	 ebp
  00072	c3		 ret	 0
?_AtlGetThreadACPThunk@ATL@@YGIXZ ENDP			; ATL::_AtlGetThreadACPThunk
_TEXT	ENDS
EXTRN	__imp__InterlockedExchange@8:NEAR
; Function compile flags: /Odt
;	COMDAT ?InterlockedExchangePointer@@YGPAXPAPAXPAX@Z
_TEXT	SEGMENT
_pp$ = 8						; size = 4
_pNew$ = 12						; size = 4
?InterlockedExchangePointer@@YGPAXPAPAXPAX@Z PROC NEAR	; InterlockedExchangePointer, COMDAT

; 91   : {

  00000	55		 push	 ebp
  00001	8b ec		 mov	 ebp, esp

; 92   : 	return( reinterpret_cast<void*>(static_cast<LONG_PTR>(::InterlockedExchange(reinterpret_cast<LONG*>(pp), static_cast<LONG>(reinterpret_cast<LONG_PTR>(pNew))))) );

  00003	8b 45 0c	 mov	 eax, DWORD PTR _pNew$[ebp]
  00006	50		 push	 eax
  00007	8b 4d 08	 mov	 ecx, DWORD PTR _pp$[ebp]
  0000a	51		 push	 ecx
  0000b	ff 15 00 00 00
	00		 call	 DWORD PTR __imp__InterlockedExchange@8

; 93   : }

  00011	5d		 pop	 ebp
  00012	c2 08 00	 ret	 8
?InterlockedExchangePointer@@YGPAXPAPAXPAX@Z ENDP	; InterlockedExchangePointer
_TEXT	ENDS
EXTRN	__imp__GetACP@0:NEAR
EXTRN	__imp__GetLocaleInfoA@16:NEAR
EXTRN	__imp__GetThreadLocale@0:NEAR
; Function compile flags: /Odt
;	COMDAT ?_AtlGetThreadACPFake@ATL@@YGIXZ
_TEXT	SEGMENT
_pch$24161 = -24					; size = 4
_lcidThread$ = -20					; size = 4
_szACP$ = -16						; size = 7
__$ArrayPad$ = -8					; size = 4
_nACP$ = -4						; size = 4
__$ReturnAddr$ = 4					; size = 4
?_AtlGetThreadACPFake@ATL@@YGIXZ PROC NEAR		; ATL::_AtlGetThreadACPFake, COMDAT

; 101  : {

  00000	55		 push	 ebp
  00001	8b ec		 mov	 ebp, esp
  00003	83 ec 18	 sub	 esp, 24			; 00000018H
  00006	a1 00 00 00 00	 mov	 eax, DWORD PTR ___security_cookie
  0000b	89 45 f8	 mov	 DWORD PTR __$ArrayPad$[ebp], eax

; 102  : 	UINT nACP = 0;

  0000e	c7 45 fc 00 00
	00 00		 mov	 DWORD PTR _nACP$[ebp], 0

; 103  : 
; 104  : 	LCID lcidThread = ::GetThreadLocale();

  00015	ff 15 00 00 00
	00		 call	 DWORD PTR __imp__GetThreadLocale@0
  0001b	89 45 ec	 mov	 DWORD PTR _lcidThread$[ebp], eax

; 105  : 
; 106  : 	char szACP[7];
; 107  : 	// GetLocaleInfoA will fail for a Unicode-only LCID, but those are only supported on 
; 108  : 	// Windows 2000.  Since Windows 2000 supports CP_THREAD_ACP, this code path is never
; 109  : 	// executed on Windows 2000.
; 110  : 	if (::GetLocaleInfoA(lcidThread, LOCALE_IDEFAULTANSICODEPAGE, szACP, 7) != 0)

  0001e	6a 07		 push	 7
  00020	8d 45 f0	 lea	 eax, DWORD PTR _szACP$[ebp]
  00023	50		 push	 eax
  00024	68 04 10 00 00	 push	 4100			; 00001004H
  00029	8b 4d ec	 mov	 ecx, DWORD PTR _lcidThread$[ebp]
  0002c	51		 push	 ecx
  0002d	ff 15 00 00 00
	00		 call	 DWORD PTR __imp__GetLocaleInfoA@16
  00033	85 c0		 test	 eax, eax
  00035	74 34		 je	 SHORT $L24160

; 111  : 	{
; 112  : 		char* pch = szACP;

  00037	8d 55 f0	 lea	 edx, DWORD PTR _szACP$[ebp]
  0003a	89 55 e8	 mov	 DWORD PTR _pch$24161[ebp], edx
$L24163:

; 113  : 		while (*pch != '\0')

  0003d	8b 45 e8	 mov	 eax, DWORD PTR _pch$24161[ebp]
  00040	0f be 08	 movsx	 ecx, BYTE PTR [eax]
  00043	85 c9		 test	 ecx, ecx
  00045	74 24		 je	 SHORT $L24160

; 114  : 		{
; 115  : 			nACP *= 10;

  00047	8b 55 fc	 mov	 edx, DWORD PTR _nACP$[ebp]
  0004a	6b d2 0a	 imul	 edx, 10			; 0000000aH
  0004d	89 55 fc	 mov	 DWORD PTR _nACP$[ebp], edx

; 116  : 			nACP += *pch++ - '0';

  00050	8b 45 e8	 mov	 eax, DWORD PTR _pch$24161[ebp]
  00053	0f be 08	 movsx	 ecx, BYTE PTR [eax]
  00056	8b 55 fc	 mov	 edx, DWORD PTR _nACP$[ebp]
  00059	8d 44 0a d0	 lea	 eax, DWORD PTR [edx+ecx-48]
  0005d	89 45 fc	 mov	 DWORD PTR _nACP$[ebp], eax
  00060	8b 4d e8	 mov	 ecx, DWORD PTR _pch$24161[ebp]
  00063	83 c1 01	 add	 ecx, 1
  00066	89 4d e8	 mov	 DWORD PTR _pch$24161[ebp], ecx

; 117  : 		}

  00069	eb d2		 jmp	 SHORT $L24163
$L24160:

; 118  : 	}
; 119  : 	// Use the Default ANSI Code Page if we were unable to get the thread ACP or if one does not exist.
; 120  : 	if (nACP == 0)

  0006b	83 7d fc 00	 cmp	 DWORD PTR _nACP$[ebp], 0
  0006f	75 09		 jne	 SHORT $L24165

; 121  : 		nACP = ::GetACP();

  00071	ff 15 00 00 00
	00		 call	 DWORD PTR __imp__GetACP@0
  00077	89 45 fc	 mov	 DWORD PTR _nACP$[ebp], eax
$L24165:

; 122  : 
; 123  : 	return nACP;

  0007a	8b 45 fc	 mov	 eax, DWORD PTR _nACP$[ebp]

; 124  : }

  0007d	8b 4d f8	 mov	 ecx, DWORD PTR __$ArrayPad$[ebp]
  00080	e8 00 00 00 00	 call	 @__security_check_cookie@4
  00085	8b e5		 mov	 esp, ebp
  00087	5d		 pop	 ebp
  00088	c3		 ret	 0
?_AtlGetThreadACPFake@ATL@@YGIXZ ENDP			; ATL::_AtlGetThreadACPFake
; Function compile flags: /Odt
_TEXT	ENDS
;	COMDAT ?_AtlGetThreadACPReal@ATL@@YGIXZ
_TEXT	SEGMENT
?_AtlGetThreadACPReal@ATL@@YGIXZ PROC NEAR		; ATL::_AtlGetThreadACPReal, COMDAT

; 127  : {

  00000	55		 push	 ebp
  00001	8b ec		 mov	 ebp, esp

; 128  : 	return( CP_THREAD_ACP );

  00003	b8 03 00 00 00	 mov	 eax, 3

; 129  : }

  00008	5d		 pop	 ebp
  00009	c3		 ret	 0
?_AtlGetThreadACPReal@ATL@@YGIXZ ENDP			; ATL::_AtlGetThreadACPReal
; Function compile flags: /Odt
; File d:\program files (x86)\microsoft visual studio .net 2003\vc7\atlmfc\include\atltypes.inl
_TEXT	ENDS
;	COMDAT ??0CPoint@@QAE@XZ
_TEXT	SEGMENT
_this$ = -4						; size = 4
??0CPoint@@QAE@XZ PROC NEAR				; CPoint::CPoint, COMDAT
; _this$ = ecx

; 61   : 	{ /* random filled */ }

  00000	55		 push	 ebp
  00001	8b ec		 mov	 ebp, esp
  00003	51		 push	 ecx
  00004	89 4d fc	 mov	 DWORD PTR _this$[ebp], ecx
  00007	8b 45 fc	 mov	 eax, DWORD PTR _this$[ebp]
  0000a	8b e5		 mov	 esp, ebp
  0000c	5d		 pop	 ebp
  0000d	c3		 ret	 0
??0CPoint@@QAE@XZ ENDP					; CPoint::CPoint
; Function compile flags: /Odt
_TEXT	ENDS
;	COMDAT ??0CPoint@@QAE@HH@Z
_TEXT	SEGMENT
_this$ = -4						; size = 4
_initX$ = 8						; size = 4
_initY$ = 12						; size = 4
??0CPoint@@QAE@HH@Z PROC NEAR				; CPoint::CPoint, COMDAT
; _this$ = ecx

; 63   : 	{ x = initX; y = initY; }

  00000	55		 push	 ebp
  00001	8b ec		 mov	 ebp, esp
  00003	51		 push	 ecx
  00004	89 4d fc	 mov	 DWORD PTR _this$[ebp], ecx
  00007	8b 45 fc	 mov	 eax, DWORD PTR _this$[ebp]
  0000a	8b 4d 08	 mov	 ecx, DWORD PTR _initX$[ebp]
  0000d	89 08		 mov	 DWORD PTR [eax], ecx
  0000f	8b 55 fc	 mov	 edx, DWORD PTR _this$[ebp]
  00012	8b 45 0c	 mov	 eax, DWORD PTR _initY$[ebp]
  00015	89 42 04	 mov	 DWORD PTR [edx+4], eax
  00018	8b 45 fc	 mov	 eax, DWORD PTR _this$[ebp]
  0001b	8b e5		 mov	 esp, ebp
  0001d	5d		 pop	 ebp
  0001e	c2 08 00	 ret	 8
??0CPoint@@QAE@HH@Z ENDP				; CPoint::CPoint
; Function compile flags: /Odt
_TEXT	ENDS
;	COMDAT ??8CPoint@@QBEHUtagPOINT@@@Z
_TEXT	SEGMENT
tv67 = -8						; size = 4
_this$ = -4						; size = 4
_point$ = 8						; size = 8
??8CPoint@@QBEHUtagPOINT@@@Z PROC NEAR			; CPoint::operator==, COMDAT
; _this$ = ecx

; 82   : 	{ return (x == point.x && y == point.y); }

  00000	55		 push	 ebp
  00001	8b ec		 mov	 ebp, esp
  00003	83 ec 08	 sub	 esp, 8
  00006	89 4d fc	 mov	 DWORD PTR _this$[ebp], ecx
  00009	8b 45 fc	 mov	 eax, DWORD PTR _this$[ebp]
  0000c	8b 08		 mov	 ecx, DWORD PTR [eax]
  0000e	3b 4d 08	 cmp	 ecx, DWORD PTR _point$[ebp]
  00011	75 14		 jne	 SHORT $L198359
  00013	8b 55 fc	 mov	 edx, DWORD PTR _this$[ebp]
  00016	8b 42 04	 mov	 eax, DWORD PTR [edx+4]
  00019	3b 45 0c	 cmp	 eax, DWORD PTR _point$[ebp+4]
  0001c	75 09		 jne	 SHORT $L198359
  0001e	c7 45 f8 01 00
	00 00		 mov	 DWORD PTR tv67[ebp], 1
  00025	eb 07		 jmp	 SHORT $L198360
$L198359:
  00027	c7 45 f8 00 00
	00 00		 mov	 DWORD PTR tv67[ebp], 0
$L198360:
  0002e	8b 45 f8	 mov	 eax, DWORD PTR tv67[ebp]
  00031	8b e5		 mov	 esp, ebp
  00033	5d		 pop	 ebp
  00034	c2 08 00	 ret	 8
??8CPoint@@QBEHUtagPOINT@@@Z ENDP			; CPoint::operator==
; Function compile flags: /Odt
_TEXT	ENDS
;	COMDAT ??0CRect@@QAE@XZ
_TEXT	SEGMENT
_this$ = -4						; size = 4
??0CRect@@QAE@XZ PROC NEAR				; CRect::CRect, COMDAT
; _this$ = ecx

; 110  : 	{ /* random filled */ }

  00000	55		 push	 ebp
  00001	8b ec		 mov	 ebp, esp
  00003	51		 push	 ecx
  00004	89 4d fc	 mov	 DWORD PTR _this$[ebp], ecx
  00007	8b 45 fc	 mov	 eax, DWORD PTR _this$[ebp]
  0000a	8b e5		 mov	 esp, ebp
  0000c	5d		 pop	 ebp
  0000d	c3		 ret	 0
??0CRect@@QAE@XZ ENDP					; CRect::CRect
; Function compile flags: /Odt
_TEXT	ENDS
;	COMDAT ??0CRect@@QAE@HHHH@Z
_TEXT	SEGMENT
_this$ = -4						; size = 4
_l$ = 8							; size = 4
_t$ = 12						; size = 4
_r$ = 16						; size = 4
_b$ = 20						; size = 4
??0CRect@@QAE@HHHH@Z PROC NEAR				; CRect::CRect, COMDAT
; _this$ = ecx

; 112  : 	{ left = l; top = t; right = r; bottom = b; }

  00000	55		 push	 ebp
  00001	8b ec		 mov	 ebp, esp
  00003	51		 push	 ecx
  00004	89 4d fc	 mov	 DWORD PTR _this$[ebp], ecx
  00007	8b 45 fc	 mov	 eax, DWORD PTR _this$[ebp]
  0000a	8b 4d 08	 mov	 ecx, DWORD PTR _l$[ebp]
  0000d	89 08		 mov	 DWORD PTR [eax], ecx
  0000f	8b 55 fc	 mov	 edx, DWORD PTR _this$[ebp]
  00012	8b 45 0c	 mov	 eax, DWORD PTR _t$[ebp]
  00015	89 42 04	 mov	 DWORD PTR [edx+4], eax
  00018	8b 4d fc	 mov	 ecx, DWORD PTR _this$[ebp]
  0001b	8b 55 10	 mov	 edx, DWORD PTR _r$[ebp]
  0001e	89 51 08	 mov	 DWORD PTR [ecx+8], edx
  00021	8b 45 fc	 mov	 eax, DWORD PTR _this$[ebp]
  00024	8b 4d 14	 mov	 ecx, DWORD PTR _b$[ebp]
  00027	89 48 0c	 mov	 DWORD PTR [eax+12], ecx
  0002a	8b 45 fc	 mov	 eax, DWORD PTR _this$[ebp]
  0002d	8b e5		 mov	 esp, ebp
  0002f	5d		 pop	 ebp
  00030	c2 10 00	 ret	 16			; 00000010H
??0CRect@@QAE@HHHH@Z ENDP				; CRect::CRect
; Function compile flags: /Odt
_TEXT	ENDS
;	COMDAT ??0CRect@@QAE@UtagPOINT@@0@Z
_TEXT	SEGMENT
_this$ = -4						; size = 4
_topLeft$ = 8						; size = 8
_bottomRight$ = 16					; size = 8
??0CRect@@QAE@UtagPOINT@@0@Z PROC NEAR			; CRect::CRect, COMDAT
; _this$ = ecx

; 120  : 	{ left = topLeft.x; top = topLeft.y;

  00000	55		 push	 ebp
  00001	8b ec		 mov	 ebp, esp
  00003	51		 push	 ecx
  00004	89 4d fc	 mov	 DWORD PTR _this$[ebp], ecx
  00007	8b 45 fc	 mov	 eax, DWORD PTR _this$[ebp]
  0000a	8b 4d 08	 mov	 ecx, DWORD PTR _topLeft$[ebp]
  0000d	89 08		 mov	 DWORD PTR [eax], ecx
  0000f	8b 55 fc	 mov	 edx, DWORD PTR _this$[ebp]
  00012	8b 45 0c	 mov	 eax, DWORD PTR _topLeft$[ebp+4]
  00015	89 42 04	 mov	 DWORD PTR [edx+4], eax

; 121  : 		right = bottomRight.x; bottom = bottomRight.y; }

  00018	8b 4d fc	 mov	 ecx, DWORD PTR _this$[ebp]
  0001b	8b 55 10	 mov	 edx, DWORD PTR _bottomRight$[ebp]
  0001e	89 51 08	 mov	 DWORD PTR [ecx+8], edx
  00021	8b 45 fc	 mov	 eax, DWORD PTR _this$[ebp]
  00024	8b 4d 14	 mov	 ecx, DWORD PTR _bottomRight$[ebp+4]
  00027	89 48 0c	 mov	 DWORD PTR [eax+12], ecx
  0002a	8b 45 fc	 mov	 eax, DWORD PTR _this$[ebp]
  0002d	8b e5		 mov	 esp, ebp
  0002f	5d		 pop	 ebp
  00030	c2 10 00	 ret	 16			; 00000010H
??0CRect@@QAE@UtagPOINT@@0@Z ENDP			; CRect::CRect
; Function compile flags: /Odt
_TEXT	ENDS
;	COMDAT ?Width@CRect@@QBEHXZ
_TEXT	SEGMENT
_this$ = -4						; size = 4
?Width@CRect@@QBEHXZ PROC NEAR				; CRect::Width, COMDAT
; _this$ = ecx

; 123  : 	{ return right - left; }

  00000	55		 push	 ebp
  00001	8b ec		 mov	 ebp, esp
  00003	51		 push	 ecx
  00004	89 4d fc	 mov	 DWORD PTR _this$[ebp], ecx
  00007	8b 45 fc	 mov	 eax, DWORD PTR _this$[ebp]
  0000a	8b 4d fc	 mov	 ecx, DWORD PTR _this$[ebp]
  0000d	8b 40 08	 mov	 eax, DWORD PTR [eax+8]
  00010	2b 01		 sub	 eax, DWORD PTR [ecx]
  00012	8b e5		 mov	 esp, ebp
  00014	5d		 pop	 ebp
  00015	c3		 ret	 0
?Width@CRect@@QBEHXZ ENDP				; CRect::Width
; Function compile flags: /Odt
_TEXT	ENDS
;	COMDAT ?Height@CRect@@QBEHXZ
_TEXT	SEGMENT
_this$ = -4						; size = 4
?Height@CRect@@QBEHXZ PROC NEAR				; CRect::Height, COMDAT
; _this$ = ecx

; 125  : 	{ return bottom - top; }

  00000	55		 push	 ebp
  00001	8b ec		 mov	 ebp, esp
  00003	51		 push	 ecx
  00004	89 4d fc	 mov	 DWORD PTR _this$[ebp], ecx
  00007	8b 45 fc	 mov	 eax, DWORD PTR _this$[ebp]
  0000a	8b 4d fc	 mov	 ecx, DWORD PTR _this$[ebp]
  0000d	8b 40 0c	 mov	 eax, DWORD PTR [eax+12]
  00010	2b 41 04	 sub	 eax, DWORD PTR [ecx+4]
  00013	8b e5		 mov	 esp, ebp
  00015	5d		 pop	 ebp
  00016	c3		 ret	 0
?Height@CRect@@QBEHXZ ENDP				; CRect::Height
; Function compile flags: /Odt
_TEXT	ENDS
;	COMDAT ?TopLeft@CRect@@QAEAAVCPoint@@XZ
_TEXT	SEGMENT
_this$ = -4						; size = 4
?TopLeft@CRect@@QAEAAVCPoint@@XZ PROC NEAR		; CRect::TopLeft, COMDAT
; _this$ = ecx

; 129  : 	{ return *((CPoint*)this); }

  00000	55		 push	 ebp
  00001	8b ec		 mov	 ebp, esp
  00003	51		 push	 ecx
  00004	89 4d fc	 mov	 DWORD PTR _this$[ebp], ecx
  00007	8b 45 fc	 mov	 eax, DWORD PTR _this$[ebp]
  0000a	8b e5		 mov	 esp, ebp
  0000c	5d		 pop	 ebp
  0000d	c3		 ret	 0
?TopLeft@CRect@@QAEAAVCPoint@@XZ ENDP			; CRect::TopLeft
; Function compile flags: /Odt
_TEXT	ENDS
;	COMDAT ?BottomRight@CRect@@QAEAAVCPoint@@XZ
_TEXT	SEGMENT
_this$ = -4						; size = 4
?BottomRight@CRect@@QAEAAVCPoint@@XZ PROC NEAR		; CRect::BottomRight, COMDAT
; _this$ = ecx

; 131  : 	{ return *((CPoint*)this+1); }

  00000	55		 push	 ebp
  00001	8b ec		 mov	 ebp, esp
  00003	51		 push	 ecx
  00004	89 4d fc	 mov	 DWORD PTR _this$[ebp], ecx
  00007	8b 45 fc	 mov	 eax, DWORD PTR _this$[ebp]
  0000a	83 c0 08	 add	 eax, 8
  0000d	8b e5		 mov	 esp, ebp
  0000f	5d		 pop	 ebp
  00010	c3		 ret	 0
?BottomRight@CRect@@QAEAAVCPoint@@XZ ENDP		; CRect::BottomRight
; Function compile flags: /Odt
_TEXT	ENDS
;	COMDAT ??BCRect@@QAEPAUtagRECT@@XZ
_TEXT	SEGMENT
_this$ = -4						; size = 4
??BCRect@@QAEPAUtagRECT@@XZ PROC NEAR			; CRect::operator tagRECT *, COMDAT
; _this$ = ecx

; 143  : 	{ return this; }

  00000	55		 push	 ebp
  00001	8b ec		 mov	 ebp, esp
  00003	51		 push	 ecx
  00004	89 4d fc	 mov	 DWORD PTR _this$[ebp], ecx
  00007	8b 45 fc	 mov	 eax, DWORD PTR _this$[ebp]
  0000a	8b e5		 mov	 esp, ebp
  0000c	5d		 pop	 ebp
  0000d	c3		 ret	 0
??BCRect@@QAEPAUtagRECT@@XZ ENDP			; CRect::operator tagRECT *
_TEXT	ENDS
EXTRN	__imp__PtInRect@12:NEAR
; Function compile flags: /Odt
;	COMDAT ?PtInRect@CRect@@QBEHUtagPOINT@@@Z
_TEXT	SEGMENT
_this$ = -4						; size = 4
_point$ = 8						; size = 8
?PtInRect@CRect@@QBEHUtagPOINT@@@Z PROC NEAR		; CRect::PtInRect, COMDAT
; _this$ = ecx

; 151  : 	{ return ::PtInRect(this, point); }

  00000	55		 push	 ebp
  00001	8b ec		 mov	 ebp, esp
  00003	51		 push	 ecx
  00004	89 4d fc	 mov	 DWORD PTR _this$[ebp], ecx
  00007	8b 45 0c	 mov	 eax, DWORD PTR _point$[ebp+4]
  0000a	50		 push	 eax
  0000b	8b 4d 08	 mov	 ecx, DWORD PTR _point$[ebp]
  0000e	51		 push	 ecx
  0000f	8b 55 fc	 mov	 edx, DWORD PTR _this$[ebp]
  00012	52		 push	 edx
  00013	ff 15 00 00 00
	00		 call	 DWORD PTR __imp__PtInRect@12
  00019	8b e5		 mov	 esp, ebp
  0001b	5d		 pop	 ebp
  0001c	c2 08 00	 ret	 8
?PtInRect@CRect@@QBEHUtagPOINT@@@Z ENDP			; CRect::PtInRect
_TEXT	ENDS
EXTRN	__imp__OffsetRect@12:NEAR
; Function compile flags: /Odt
;	COMDAT ?OffsetRect@CRect@@QAEXHH@Z
_TEXT	SEGMENT
_this$ = -4						; size = 4
_x$ = 8							; size = 4
_y$ = 12						; size = 4
?OffsetRect@CRect@@QAEXHH@Z PROC NEAR			; CRect::OffsetRect, COMDAT
; _this$ = ecx

; 171  : 	{ ::OffsetRect(this, x, y); }

  00000	55		 push	 ebp
  00001	8b ec		 mov	 ebp, esp
  00003	51		 push	 ecx
  00004	89 4d fc	 mov	 DWORD PTR _this$[ebp], ecx
  00007	8b 45 0c	 mov	 eax, DWORD PTR _y$[ebp]
  0000a	50		 push	 eax
  0000b	8b 4d 08	 mov	 ecx, DWORD PTR _x$[ebp]
  0000e	51		 push	 ecx
  0000f	8b 55 fc	 mov	 edx, DWORD PTR _this$[ebp]
  00012	52		 push	 edx
  00013	ff 15 00 00 00
	00		 call	 DWORD PTR __imp__OffsetRect@12
  00019	8b e5		 mov	 esp, ebp
  0001b	5d		 pop	 ebp
  0001c	c2 08 00	 ret	 8
?OffsetRect@CRect@@QAEXHH@Z ENDP			; CRect::OffsetRect
_TEXT	ENDS
EXTRN	__imp__EqualRect@8:NEAR
; Function compile flags: /Odt
;	COMDAT ??8CRect@@QBEHABUtagRECT@@@Z
_TEXT	SEGMENT
_this$ = -4						; size = 4
_rect$ = 8						; size = 4
??8CRect@@QBEHABUtagRECT@@@Z PROC NEAR			; CRect::operator==, COMDAT
; _this$ = ecx

; 191  : 	{ return ::EqualRect(this, &rect); }

  00000	55		 push	 ebp
  00001	8b ec		 mov	 ebp, esp
  00003	51		 push	 ecx
  00004	89 4d fc	 mov	 DWORD PTR _this$[ebp], ecx
  00007	8b 45 08	 mov	 eax, DWORD PTR _rect$[ebp]
  0000a	50		 push	 eax
  0000b	8b 4d fc	 mov	 ecx, DWORD PTR _this$[ebp]
  0000e	51		 push	 ecx
  0000f	ff 15 00 00 00
	00		 call	 DWORD PTR __imp__EqualRect@8
  00015	8b e5		 mov	 esp, ebp
  00017	5d		 pop	 ebp
  00018	c2 04 00	 ret	 4
??8CRect@@QBEHABUtagRECT@@@Z ENDP			; CRect::operator==
; Function compile flags: /Odt
; File d:\program files (x86)\microsoft visual studio .net 2003\vc7\atlmfc\include\afx.inl
_TEXT	ENDS
;	COMDAT ?Serialize@CObject@@UAEXAAVCArchive@@@Z
_TEXT	SEGMENT
_this$ = -4						; size = 4
___formal$ = 8						; size = 4
?Serialize@CObject@@UAEXAAVCArchive@@@Z PROC NEAR	; CObject::Serialize, COMDAT
; _this$ = ecx

; 25   : 	{ /* CObject does not serialize anything by default */ }

  00000	55		 push	 ebp
  00001	8b ec		 mov	 ebp, esp
  00003	51		 push	 ecx
  00004	89 4d fc	 mov	 DWORD PTR _this$[ebp], ecx
  00007	8b e5		 mov	 esp, ebp
  00009	5d		 pop	 ebp
  0000a	c2 04 00	 ret	 4
?Serialize@CObject@@UAEXAAVCArchive@@@Z ENDP		; CObject::Serialize
_TEXT	ENDS
EXTRN	??3@YAXPAX@Z:NEAR				; operator delete
; Function compile flags: /Odt
;	COMDAT ??3CObject@@SGXPAX@Z
_TEXT	SEGMENT
_p$ = 8							; size = 4
??3CObject@@SGXPAX@Z PROC NEAR				; CObject::operator delete, COMDAT

; 31   : 	{ ::operator delete(p); }

  00000	55		 push	 ebp
  00001	8b ec		 mov	 ebp, esp
  00003	8b 45 08	 mov	 eax, DWORD PTR _p$[ebp]
  00006	50		 push	 eax
  00007	e8 00 00 00 00	 call	 ??3@YAXPAX@Z		; operator delete
  0000c	83 c4 04	 add	 esp, 4
  0000f	5d		 pop	 ebp
  00010	c2 04 00	 ret	 4
??3CObject@@SGXPAX@Z ENDP				; CObject::operator delete
; Function compile flags: /Odt
_TEXT	ENDS
;	COMDAT ?AssertValid@CObject@@UBEXXZ
_TEXT	SEGMENT
_this$ = -4						; size = 4
?AssertValid@CObject@@UBEXXZ PROC NEAR			; CObject::AssertValid, COMDAT
; _this$ = ecx

; 41   : 	{ /* no asserts in release builds */ }

  00000	55		 push	 ebp
  00001	8b ec		 mov	 ebp, esp
  00003	51		 push	 ecx
  00004	89 4d fc	 mov	 DWORD PTR _this$[ebp], ecx
  00007	8b e5		 mov	 esp, ebp
  00009	5d		 pop	 ebp
  0000a	c3		 ret	 0
?AssertValid@CObject@@UBEXXZ ENDP			; CObject::AssertValid
; Function compile flags: /Odt
_TEXT	ENDS
;	COMDAT ?Dump@CObject@@UBEXAAVCDumpContext@@@Z
_TEXT	SEGMENT
_this$ = -4						; size = 4
___formal$ = 8						; size = 4
?Dump@CObject@@UBEXAAVCDumpContext@@@Z PROC NEAR	; CObject::Dump, COMDAT
; _this$ = ecx

; 43   : 	{ /* no dumping in release builds */ }

  00000	55		 push	 ebp
  00001	8b ec		 mov	 ebp, esp
  00003	51		 push	 ecx
  00004	89 4d fc	 mov	 DWORD PTR _this$[ebp], ecx
  00007	8b e5		 mov	 esp, ebp
  00009	5d		 pop	 ebp
  0000a	c2 04 00	 ret	 4
?Dump@CObject@@UBEXAAVCDumpContext@@@Z ENDP		; CObject::Dump
_TEXT	ENDS
PUBLIC	??_R0?AVCGdiObject@@@8				; CGdiObject `RTTI Type Descriptor'
PUBLIC	??_R1A@?0A@A@CGdiObject@@8			; CGdiObject::`RTTI Base Class Descriptor at (0,-1,0,0)'
PUBLIC	??_R4CPen@@6B@					; CPen::`RTTI Complete Object Locator'
PUBLIC	??_R0?AVCPen@@@8				; CPen `RTTI Type Descriptor'
PUBLIC	??_R3CPen@@8					; CPen::`RTTI Class Hierarchy Descriptor'
PUBLIC	??_R2CPen@@8					; CPen::`RTTI Base Class Array'
PUBLIC	??_R1A@?0A@A@CPen@@8				; CPen::`RTTI Base Class Descriptor at (0,-1,0,0)'
PUBLIC	??1CGdiObject@@UAE@XZ				; CGdiObject::~CGdiObject
PUBLIC	??_7CPen@@6B@					; CPen::`vftable'
PUBLIC	??_GCPen@@UAEPAXI@Z				; CPen::`scalar deleting destructor'
EXTRN	?GetRuntimeClass@CPen@@UBEPAUCRuntimeClass@@XZ:NEAR ; CPen::GetRuntimeClass
EXTRN	??_ECPen@@UAEPAXI@Z:NEAR			; CPen::`vector deleting destructor'
;	COMDAT ??_7CPen@@6B@
; File d:\program files (x86)\microsoft visual studio .net 2003\vc7\atlmfc\include\afxwin1.inl
CONST	SEGMENT
??_7CPen@@6B@ DD FLAT:??_R4CPen@@6B@			; CPen::`vftable'
	DD	FLAT:?GetRuntimeClass@CPen@@UBEPAUCRuntimeClass@@XZ
	DD	FLAT:??_ECPen@@UAEPAXI@Z
	DD	FLAT:?Serialize@CObject@@UAEXAAVCArchive@@@Z
	DD	FLAT:?AssertValid@CObject@@UBEXXZ
	DD	FLAT:?Dump@CObject@@UBEXAAVCDumpContext@@@Z
CONST	ENDS
;	COMDAT ??_R4CPen@@6B@
rdata$r	SEGMENT
??_R4CPen@@6B@ DD 00H					; CPen::`RTTI Complete Object Locator'
	DD	00H
	DD	00H
	DD	FLAT:??_R0?AVCPen@@@8
	DD	FLAT:??_R3CPen@@8
rdata$r	ENDS
;	COMDAT ??_R0?AVCPen@@@8
_DATA	SEGMENT
??_R0?AVCPen@@@8 DD FLAT:??_7type_info@@6B@		; CPen `RTTI Type Descriptor'
	DD	00H
	DB	'.?AVCPen@@', 00H
_DATA	ENDS
;	COMDAT ??_R3CPen@@8
rdata$r	SEGMENT
??_R3CPen@@8 DD	00H					; CPen::`RTTI Class Hierarchy Descriptor'
	DD	00H
	DD	03H
	DD	FLAT:??_R2CPen@@8
rdata$r	ENDS
;	COMDAT ??_R2CPen@@8
rdata$r	SEGMENT
??_R2CPen@@8 DD	FLAT:??_R1A@?0A@A@CPen@@8		; CPen::`RTTI Base Class Array'
	DD	FLAT:??_R1A@?0A@A@CGdiObject@@8
	DD	FLAT:??_R1A@?0A@A@CObject@@8
rdata$r	ENDS
;	COMDAT ??_R1A@?0A@A@CPen@@8
rdata$r	SEGMENT
??_R1A@?0A@A@CPen@@8 DD FLAT:??_R0?AVCPen@@@8		; CPen::`RTTI Base Class Descriptor at (0,-1,0,0)'
	DD	02H
	DD	00H
	DD	0ffffffffH
	DD	00H
	DD	00H
rdata$r	ENDS
;	COMDAT ??_R1A@?0A@A@CGdiObject@@8
rdata$r	SEGMENT
??_R1A@?0A@A@CGdiObject@@8 DD FLAT:??_R0?AVCGdiObject@@@8 ; CGdiObject::`RTTI Base Class Descriptor at (0,-1,0,0)'
	DD	01H
	DD	00H
	DD	0ffffffffH
	DD	00H
	DD	00H
rdata$r	ENDS
;	COMDAT ??_R0?AVCGdiObject@@@8
_DATA	SEGMENT
??_R0?AVCGdiObject@@@8 DD FLAT:??_7type_info@@6B@	; CGdiObject `RTTI Type Descriptor'
	DD	00H
	DB	'.?AVCGdiObject@@', 00H
; Function compile flags: /Odt
_DATA	ENDS
;	COMDAT ??1CPen@@UAE@XZ
_TEXT	SEGMENT
_this$ = -4						; size = 4
??1CPen@@UAE@XZ PROC NEAR				; CPen::~CPen, COMDAT
; _this$ = ecx

; 106  : 	{ }

  00000	55		 push	 ebp
  00001	8b ec		 mov	 ebp, esp
  00003	51		 push	 ecx
  00004	89 4d fc	 mov	 DWORD PTR _this$[ebp], ecx
  00007	8b 45 fc	 mov	 eax, DWORD PTR _this$[ebp]
  0000a	c7 00 00 00 00
	00		 mov	 DWORD PTR [eax], OFFSET FLAT:??_7CPen@@6B@
  00010	8b 4d fc	 mov	 ecx, DWORD PTR _this$[ebp]
  00013	e8 00 00 00 00	 call	 ??1CGdiObject@@UAE@XZ	; CGdiObject::~CGdiObject
  00018	8b e5		 mov	 esp, ebp
  0001a	5d		 pop	 ebp
  0001b	c3		 ret	 0
??1CPen@@UAE@XZ ENDP					; CPen::~CPen
_TEXT	ENDS
PUBLIC	??_R4CGdiObject@@6B@				; CGdiObject::`RTTI Complete Object Locator'
PUBLIC	??_R3CGdiObject@@8				; CGdiObject::`RTTI Class Hierarchy Descriptor'
PUBLIC	??_R2CGdiObject@@8				; CGdiObject::`RTTI Base Class Array'
PUBLIC	??1CObject@@UAE@XZ				; CObject::~CObject
PUBLIC	??_7CGdiObject@@6B@				; CGdiObject::`vftable'
PUBLIC	??_GCGdiObject@@UAEPAXI@Z			; CGdiObject::`scalar deleting destructor'
EXTRN	?GetRuntimeClass@CGdiObject@@UBEPAUCRuntimeClass@@XZ:NEAR ; CGdiObject::GetRuntimeClass
EXTRN	??_ECGdiObject@@UAEPAXI@Z:NEAR			; CGdiObject::`vector deleting destructor'
;	COMDAT xdata$x
xdata$x	SEGMENT
$T198400 DD	0ffffffffH
	DD	FLAT:$L198396
$T198398 DD	019930520H
	DD	01H
	DD	FLAT:$T198400
	DD	2 DUP(00H)
	DD	2 DUP(00H)
xdata$x	ENDS
;	COMDAT ??_7CGdiObject@@6B@
CONST	SEGMENT
??_7CGdiObject@@6B@ DD FLAT:??_R4CGdiObject@@6B@	; CGdiObject::`vftable'
	DD	FLAT:?GetRuntimeClass@CGdiObject@@UBEPAUCRuntimeClass@@XZ
	DD	FLAT:??_ECGdiObject@@UAEPAXI@Z
	DD	FLAT:?Serialize@CObject@@UAEXAAVCArchive@@@Z
	DD	FLAT:?AssertValid@CObject@@UBEXXZ
	DD	FLAT:?Dump@CObject@@UBEXAAVCDumpContext@@@Z
CONST	ENDS
;	COMDAT ??_R4CGdiObject@@6B@
rdata$r	SEGMENT
??_R4CGdiObject@@6B@ DD 00H				; CGdiObject::`RTTI Complete Object Locator'
	DD	00H
	DD	00H
	DD	FLAT:??_R0?AVCGdiObject@@@8
	DD	FLAT:??_R3CGdiObject@@8
rdata$r	ENDS
;	COMDAT ??_R3CGdiObject@@8
rdata$r	SEGMENT
??_R3CGdiObject@@8 DD 00H				; CGdiObject::`RTTI Class Hierarchy Descriptor'
	DD	00H
	DD	02H
	DD	FLAT:??_R2CGdiObject@@8
rdata$r	ENDS
;	COMDAT ??_R2CGdiObject@@8
rdata$r	SEGMENT
??_R2CGdiObject@@8 DD FLAT:??_R1A@?0A@A@CGdiObject@@8	; CGdiObject::`RTTI Base Class Array'
	DD	FLAT:??_R1A@?0A@A@CObject@@8
; Function compile flags: /Odt
rdata$r	ENDS
;	COMDAT ??1CGdiObject@@UAE@XZ
_TEXT	SEGMENT
_this$ = -16						; size = 4
__$EHRec$ = -12						; size = 12
??1CGdiObject@@UAE@XZ PROC NEAR				; CGdiObject::~CGdiObject, COMDAT
; _this$ = ecx

; 84   : 	{ DeleteObject(); }

  00000	55		 push	 ebp
  00001	8b ec		 mov	 ebp, esp
  00003	6a ff		 push	 -1
  00005	68 00 00 00 00	 push	 __ehhandler$??1CGdiObject@@UAE@XZ
  0000a	64 a1 00 00 00
	00		 mov	 eax, DWORD PTR fs:__except_list
  00010	50		 push	 eax
  00011	64 89 25 00 00
	00 00		 mov	 DWORD PTR fs:__except_list, esp
  00018	51		 push	 ecx
  00019	89 4d f0	 mov	 DWORD PTR _this$[ebp], ecx
  0001c	8b 45 f0	 mov	 eax, DWORD PTR _this$[ebp]
  0001f	c7 00 00 00 00
	00		 mov	 DWORD PTR [eax], OFFSET FLAT:??_7CGdiObject@@6B@
  00025	c7 45 fc 00 00
	00 00		 mov	 DWORD PTR __$EHRec$[ebp+8], 0
  0002c	8b 4d f0	 mov	 ecx, DWORD PTR _this$[ebp]
  0002f	e8 00 00 00 00	 call	 ?DeleteObject@CGdiObject@@QAEHXZ ; CGdiObject::DeleteObject
  00034	c7 45 fc ff ff
	ff ff		 mov	 DWORD PTR __$EHRec$[ebp+8], -1
  0003b	8b 4d f0	 mov	 ecx, DWORD PTR _this$[ebp]
  0003e	e8 00 00 00 00	 call	 ??1CObject@@UAE@XZ	; CObject::~CObject
  00043	8b 4d f4	 mov	 ecx, DWORD PTR __$EHRec$[ebp]
  00046	64 89 0d 00 00
	00 00		 mov	 DWORD PTR fs:__except_list, ecx
  0004d	8b e5		 mov	 esp, ebp
  0004f	5d		 pop	 ebp
  00050	c3		 ret	 0
_TEXT	ENDS
;	COMDAT text$x
text$x	SEGMENT
$L198396:
  00000	8b 4d f0	 mov	 ecx, DWORD PTR _this$[ebp]
  00003	e9 00 00 00 00	 jmp	 ??1CObject@@UAE@XZ	; CObject::~CObject
__ehhandler$??1CGdiObject@@UAE@XZ:
  00008	b8 00 00 00 00	 mov	 eax, OFFSET FLAT:$T198398
  0000d	e9 00 00 00 00	 jmp	 ___CxxFrameHandler
text$x	ENDS
??1CGdiObject@@UAE@XZ ENDP				; CGdiObject::~CGdiObject
; Function compile flags: /Odt
; File d:\program files (x86)\microsoft visual studio .net 2003\vc7\atlmfc\include\afx.inl
;	COMDAT ??1CObject@@UAE@XZ
_TEXT	SEGMENT
_this$ = -4						; size = 4
??1CObject@@UAE@XZ PROC NEAR				; CObject::~CObject, COMDAT
; _this$ = ecx

; 23   : 	{ }

  00000	55		 push	 ebp
  00001	8b ec		 mov	 ebp, esp
  00003	51		 push	 ecx
  00004	89 4d fc	 mov	 DWORD PTR _this$[ebp], ecx
  00007	8b e5		 mov	 esp, ebp
  00009	5d		 pop	 ebp
  0000a	c3		 ret	 0
??1CObject@@UAE@XZ ENDP					; CObject::~CObject
; Function compile flags: /Odt
_TEXT	ENDS
;	COMDAT ??_GCGdiObject@@UAEPAXI@Z
_TEXT	SEGMENT
_this$ = -4						; size = 4
___flags$ = 8						; size = 4
??_GCGdiObject@@UAEPAXI@Z PROC NEAR			; CGdiObject::`scalar deleting destructor', COMDAT
; _this$ = ecx
  00000	55		 push	 ebp
  00001	8b ec		 mov	 ebp, esp
  00003	51		 push	 ecx
  00004	89 4d fc	 mov	 DWORD PTR _this$[ebp], ecx
  00007	8b 4d fc	 mov	 ecx, DWORD PTR _this$[ebp]
  0000a	e8 00 00 00 00	 call	 ??1CGdiObject@@UAE@XZ	; CGdiObject::~CGdiObject
  0000f	8b 45 08	 mov	 eax, DWORD PTR ___flags$[ebp]
  00012	83 e0 01	 and	 eax, 1
  00015	74 09		 je	 SHORT $L41495
  00017	8b 4d fc	 mov	 ecx, DWORD PTR _this$[ebp]
  0001a	51		 push	 ecx
  0001b	e8 00 00 00 00	 call	 ??3CObject@@SGXPAX@Z	; CObject::operator delete
$L41495:
  00020	8b 45 fc	 mov	 eax, DWORD PTR _this$[ebp]
  00023	8b e5		 mov	 esp, ebp
  00025	5d		 pop	 ebp
  00026	c2 04 00	 ret	 4
??_GCGdiObject@@UAEPAXI@Z ENDP				; CGdiObject::`scalar deleting destructor'
; Function compile flags: /Odt
_TEXT	ENDS
;	COMDAT ??_GCPen@@UAEPAXI@Z
_TEXT	SEGMENT
_this$ = -4						; size = 4
___flags$ = 8						; size = 4
??_GCPen@@UAEPAXI@Z PROC NEAR				; CPen::`scalar deleting destructor', COMDAT
; _this$ = ecx
  00000	55		 push	 ebp
  00001	8b ec		 mov	 ebp, esp
  00003	51		 push	 ecx
  00004	89 4d fc	 mov	 DWORD PTR _this$[ebp], ecx
  00007	8b 4d fc	 mov	 ecx, DWORD PTR _this$[ebp]
  0000a	e8 00 00 00 00	 call	 ??1CPen@@UAE@XZ		; CPen::~CPen
  0000f	8b 45 08	 mov	 eax, DWORD PTR ___flags$[ebp]
  00012	83 e0 01	 and	 eax, 1
  00015	74 09		 je	 SHORT $L41541
  00017	8b 4d fc	 mov	 ecx, DWORD PTR _this$[ebp]
  0001a	51		 push	 ecx
  0001b	e8 00 00 00 00	 call	 ??3CObject@@SGXPAX@Z	; CObject::operator delete
$L41541:
  00020	8b 45 fc	 mov	 eax, DWORD PTR _this$[ebp]
  00023	8b e5		 mov	 esp, ebp
  00025	5d		 pop	 ebp
  00026	c2 04 00	 ret	 4
??_GCPen@@UAEPAXI@Z ENDP				; CPen::`scalar deleting destructor'
_TEXT	ENDS
PUBLIC	??_R4CBrush@@6B@				; CBrush::`RTTI Complete Object Locator'
PUBLIC	??_R0?AVCBrush@@@8				; CBrush `RTTI Type Descriptor'
PUBLIC	??_R3CBrush@@8					; CBrush::`RTTI Class Hierarchy Descriptor'
PUBLIC	??_R2CBrush@@8					; CBrush::`RTTI Base Class Array'
PUBLIC	??_R1A@?0A@A@CBrush@@8				; CBrush::`RTTI Base Class Descriptor at (0,-1,0,0)'
PUBLIC	??_7CBrush@@6B@					; CBrush::`vftable'
PUBLIC	??_GCBrush@@UAEPAXI@Z				; CBrush::`scalar deleting destructor'
EXTRN	?GetRuntimeClass@CBrush@@UBEPAUCRuntimeClass@@XZ:NEAR ; CBrush::GetRuntimeClass
EXTRN	??_ECBrush@@UAEPAXI@Z:NEAR			; CBrush::`vector deleting destructor'
;	COMDAT ??_7CBrush@@6B@
; File d:\program files (x86)\microsoft visual studio .net 2003\vc7\atlmfc\include\afxwin1.inl
CONST	SEGMENT
??_7CBrush@@6B@ DD FLAT:??_R4CBrush@@6B@		; CBrush::`vftable'
	DD	FLAT:?GetRuntimeClass@CBrush@@UBEPAUCRuntimeClass@@XZ
	DD	FLAT:??_ECBrush@@UAEPAXI@Z
	DD	FLAT:?Serialize@CObject@@UAEXAAVCArchive@@@Z
	DD	FLAT:?AssertValid@CObject@@UBEXXZ
	DD	FLAT:?Dump@CObject@@UBEXAAVCDumpContext@@@Z
CONST	ENDS
;	COMDAT ??_R4CBrush@@6B@
rdata$r	SEGMENT
??_R4CBrush@@6B@ DD 00H					; CBrush::`RTTI Complete Object Locator'
	DD	00H
	DD	00H
	DD	FLAT:??_R0?AVCBrush@@@8
	DD	FLAT:??_R3CBrush@@8
rdata$r	ENDS
;	COMDAT ??_R0?AVCBrush@@@8
_DATA	SEGMENT
??_R0?AVCBrush@@@8 DD FLAT:??_7type_info@@6B@		; CBrush `RTTI Type Descriptor'
	DD	00H
	DB	'.?AVCBrush@@', 00H
_DATA	ENDS
;	COMDAT ??_R3CBrush@@8
rdata$r	SEGMENT
??_R3CBrush@@8 DD 00H					; CBrush::`RTTI Class Hierarchy Descriptor'
	DD	00H
	DD	03H
	DD	FLAT:??_R2CBrush@@8
rdata$r	ENDS
;	COMDAT ??_R2CBrush@@8
rdata$r	SEGMENT
??_R2CBrush@@8 DD FLAT:??_R1A@?0A@A@CBrush@@8		; CBrush::`RTTI Base Class Array'
	DD	FLAT:??_R1A@?0A@A@CGdiObject@@8
	DD	FLAT:??_R1A@?0A@A@CObject@@8
rdata$r	ENDS
;	COMDAT ??_R1A@?0A@A@CBrush@@8
rdata$r	SEGMENT
??_R1A@?0A@A@CBrush@@8 DD FLAT:??_R0?AVCBrush@@@8	; CBrush::`RTTI Base Class Descriptor at (0,-1,0,0)'
	DD	02H
	DD	00H
	DD	0ffffffffH
	DD	00H
	DD	00H
; Function compile flags: /Odt
rdata$r	ENDS
;	COMDAT ??1CBrush@@UAE@XZ
_TEXT	SEGMENT
_this$ = -4						; size = 4
??1CBrush@@UAE@XZ PROC NEAR				; CBrush::~CBrush, COMDAT
; _this$ = ecx

; 130  : 	{ }

  00000	55		 push	 ebp
  00001	8b ec		 mov	 ebp, esp
  00003	51		 push	 ecx
  00004	89 4d fc	 mov	 DWORD PTR _this$[ebp], ecx
  00007	8b 45 fc	 mov	 eax, DWORD PTR _this$[ebp]
  0000a	c7 00 00 00 00
	00		 mov	 DWORD PTR [eax], OFFSET FLAT:??_7CBrush@@6B@
  00010	8b 4d fc	 mov	 ecx, DWORD PTR _this$[ebp]
  00013	e8 00 00 00 00	 call	 ??1CGdiObject@@UAE@XZ	; CGdiObject::~CGdiObject
  00018	8b e5		 mov	 esp, ebp
  0001a	5d		 pop	 ebp
  0001b	c3		 ret	 0
??1CBrush@@UAE@XZ ENDP					; CBrush::~CBrush
; Function compile flags: /Odt
_TEXT	ENDS
;	COMDAT ??_GCBrush@@UAEPAXI@Z
_TEXT	SEGMENT
_this$ = -4						; size = 4
___flags$ = 8						; size = 4
??_GCBrush@@UAEPAXI@Z PROC NEAR				; CBrush::`scalar deleting destructor', COMDAT
; _this$ = ecx
  00000	55		 push	 ebp
  00001	8b ec		 mov	 ebp, esp
  00003	51		 push	 ecx
  00004	89 4d fc	 mov	 DWORD PTR _this$[ebp], ecx
  00007	8b 4d fc	 mov	 ecx, DWORD PTR _this$[ebp]
  0000a	e8 00 00 00 00	 call	 ??1CBrush@@UAE@XZ	; CBrush::~CBrush
  0000f	8b 45 08	 mov	 eax, DWORD PTR ___flags$[ebp]
  00012	83 e0 01	 and	 eax, 1
  00015	74 09		 je	 SHORT $L41589
  00017	8b 4d fc	 mov	 ecx, DWORD PTR _this$[ebp]
  0001a	51		 push	 ecx
  0001b	e8 00 00 00 00	 call	 ??3CObject@@SGXPAX@Z	; CObject::operator delete
$L41589:
  00020	8b 45 fc	 mov	 eax, DWORD PTR _this$[ebp]
  00023	8b e5		 mov	 esp, ebp
  00025	5d		 pop	 ebp
  00026	c2 04 00	 ret	 4
??_GCBrush@@UAEPAXI@Z ENDP				; CBrush::`scalar deleting destructor'
_TEXT	ENDS
PUBLIC	??_R4CFont@@6B@					; CFont::`RTTI Complete Object Locator'
PUBLIC	??_R0?AVCFont@@@8				; CFont `RTTI Type Descriptor'
PUBLIC	??_R3CFont@@8					; CFont::`RTTI Class Hierarchy Descriptor'
PUBLIC	??_R2CFont@@8					; CFont::`RTTI Base Class Array'
PUBLIC	??_R1A@?0A@A@CFont@@8				; CFont::`RTTI Base Class Descriptor at (0,-1,0,0)'
PUBLIC	??0CGdiObject@@QAE@XZ				; CGdiObject::CGdiObject
PUBLIC	??_7CFont@@6B@					; CFont::`vftable'
PUBLIC	??_GCFont@@UAEPAXI@Z				; CFont::`scalar deleting destructor'
EXTRN	?GetRuntimeClass@CFont@@UBEPAUCRuntimeClass@@XZ:NEAR ; CFont::GetRuntimeClass
EXTRN	??_ECFont@@UAEPAXI@Z:NEAR			; CFont::`vector deleting destructor'
;	COMDAT ??_7CFont@@6B@
CONST	SEGMENT
??_7CFont@@6B@ DD FLAT:??_R4CFont@@6B@			; CFont::`vftable'
	DD	FLAT:?GetRuntimeClass@CFont@@UBEPAUCRuntimeClass@@XZ
	DD	FLAT:??_ECFont@@UAEPAXI@Z
	DD	FLAT:?Serialize@CObject@@UAEXAAVCArchive@@@Z
	DD	FLAT:?AssertValid@CObject@@UBEXXZ
	DD	FLAT:?Dump@CObject@@UBEXAAVCDumpContext@@@Z
CONST	ENDS
;	COMDAT ??_R4CFont@@6B@
rdata$r	SEGMENT
??_R4CFont@@6B@ DD 00H					; CFont::`RTTI Complete Object Locator'
	DD	00H
	DD	00H
	DD	FLAT:??_R0?AVCFont@@@8
	DD	FLAT:??_R3CFont@@8
rdata$r	ENDS
;	COMDAT ??_R0?AVCFont@@@8
_DATA	SEGMENT
??_R0?AVCFont@@@8 DD FLAT:??_7type_info@@6B@		; CFont `RTTI Type Descriptor'
	DD	00H
	DB	'.?AVCFont@@', 00H
_DATA	ENDS
;	COMDAT ??_R3CFont@@8
rdata$r	SEGMENT
??_R3CFont@@8 DD 00H					; CFont::`RTTI Class Hierarchy Descriptor'
	DD	00H
	DD	03H
	DD	FLAT:??_R2CFont@@8
rdata$r	ENDS
;	COMDAT ??_R2CFont@@8
rdata$r	SEGMENT
??_R2CFont@@8 DD FLAT:??_R1A@?0A@A@CFont@@8		; CFont::`RTTI Base Class Array'
	DD	FLAT:??_R1A@?0A@A@CGdiObject@@8
	DD	FLAT:??_R1A@?0A@A@CObject@@8
rdata$r	ENDS
;	COMDAT ??_R1A@?0A@A@CFont@@8
rdata$r	SEGMENT
??_R1A@?0A@A@CFont@@8 DD FLAT:??_R0?AVCFont@@@8		; CFont::`RTTI Base Class Descriptor at (0,-1,0,0)'
	DD	02H
	DD	00H
	DD	0ffffffffH
	DD	00H
	DD	00H
; Function compile flags: /Odt
rdata$r	ENDS
;	COMDAT ??0CFont@@QAE@XZ
_TEXT	SEGMENT
_this$ = -4						; size = 4
??0CFont@@QAE@XZ PROC NEAR				; CFont::CFont, COMDAT
; _this$ = ecx

; 153  : 	{ }

  00000	55		 push	 ebp
  00001	8b ec		 mov	 ebp, esp
  00003	51		 push	 ecx
  00004	89 4d fc	 mov	 DWORD PTR _this$[ebp], ecx
  00007	8b 4d fc	 mov	 ecx, DWORD PTR _this$[ebp]
  0000a	e8 00 00 00 00	 call	 ??0CGdiObject@@QAE@XZ	; CGdiObject::CGdiObject
  0000f	8b 45 fc	 mov	 eax, DWORD PTR _this$[ebp]
  00012	c7 00 00 00 00
	00		 mov	 DWORD PTR [eax], OFFSET FLAT:??_7CFont@@6B@
  00018	8b 45 fc	 mov	 eax, DWORD PTR _this$[ebp]
  0001b	8b e5		 mov	 esp, ebp
  0001d	5d		 pop	 ebp
  0001e	c3		 ret	 0
??0CFont@@QAE@XZ ENDP					; CFont::CFont
_TEXT	ENDS
PUBLIC	??0CObject@@IAE@XZ				; CObject::CObject
; Function compile flags: /Odt
;	COMDAT ??0CGdiObject@@QAE@XZ
_TEXT	SEGMENT
_this$ = -4						; size = 4
??0CGdiObject@@QAE@XZ PROC NEAR				; CGdiObject::CGdiObject, COMDAT
; _this$ = ecx

; 82   : 	{ m_hObject = NULL; }

  00000	55		 push	 ebp
  00001	8b ec		 mov	 ebp, esp
  00003	51		 push	 ecx
  00004	89 4d fc	 mov	 DWORD PTR _this$[ebp], ecx
  00007	8b 4d fc	 mov	 ecx, DWORD PTR _this$[ebp]
  0000a	e8 00 00 00 00	 call	 ??0CObject@@IAE@XZ	; CObject::CObject
  0000f	8b 45 fc	 mov	 eax, DWORD PTR _this$[ebp]
  00012	c7 00 00 00 00
	00		 mov	 DWORD PTR [eax], OFFSET FLAT:??_7CGdiObject@@6B@
  00018	8b 4d fc	 mov	 ecx, DWORD PTR _this$[ebp]
  0001b	c7 41 04 00 00
	00 00		 mov	 DWORD PTR [ecx+4], 0
  00022	8b 45 fc	 mov	 eax, DWORD PTR _this$[ebp]
  00025	8b e5		 mov	 esp, ebp
  00027	5d		 pop	 ebp
  00028	c3		 ret	 0
??0CGdiObject@@QAE@XZ ENDP				; CGdiObject::CGdiObject
; Function compile flags: /Odt
; File d:\program files (x86)\microsoft visual studio .net 2003\vc7\atlmfc\include\afx.inl
_TEXT	ENDS
;	COMDAT ??0CObject@@IAE@XZ
_TEXT	SEGMENT
_this$ = -4						; size = 4
??0CObject@@IAE@XZ PROC NEAR				; CObject::CObject, COMDAT
; _this$ = ecx

; 21   : 	{ }

  00000	55		 push	 ebp
  00001	8b ec		 mov	 ebp, esp
  00003	51		 push	 ecx
  00004	89 4d fc	 mov	 DWORD PTR _this$[ebp], ecx
  00007	8b 45 fc	 mov	 eax, DWORD PTR _this$[ebp]
  0000a	8b e5		 mov	 esp, ebp
  0000c	5d		 pop	 ebp
  0000d	c3		 ret	 0
??0CObject@@IAE@XZ ENDP					; CObject::CObject
; Function compile flags: /Odt
_TEXT	ENDS
;	COMDAT ??_GCFont@@UAEPAXI@Z
_TEXT	SEGMENT
_this$ = -4						; size = 4
___flags$ = 8						; size = 4
??_GCFont@@UAEPAXI@Z PROC NEAR				; CFont::`scalar deleting destructor', COMDAT
; _this$ = ecx
  00000	55		 push	 ebp
  00001	8b ec		 mov	 ebp, esp
  00003	51		 push	 ecx
  00004	89 4d fc	 mov	 DWORD PTR _this$[ebp], ecx
  00007	8b 4d fc	 mov	 ecx, DWORD PTR _this$[ebp]
  0000a	e8 00 00 00 00	 call	 ??1CFont@@UAE@XZ	; CFont::~CFont
  0000f	8b 45 08	 mov	 eax, DWORD PTR ___flags$[ebp]
  00012	83 e0 01	 and	 eax, 1
  00015	74 09		 je	 SHORT $L41640
  00017	8b 4d fc	 mov	 ecx, DWORD PTR _this$[ebp]
  0001a	51		 push	 ecx
  0001b	e8 00 00 00 00	 call	 ??3CObject@@SGXPAX@Z	; CObject::operator delete
$L41640:
  00020	8b 45 fc	 mov	 eax, DWORD PTR _this$[ebp]
  00023	8b e5		 mov	 esp, ebp
  00025	5d		 pop	 ebp
  00026	c2 04 00	 ret	 4
??_GCFont@@UAEPAXI@Z ENDP				; CFont::`scalar deleting destructor'
; Function compile flags: /Odt
; File d:\program files (x86)\microsoft visual studio .net 2003\vc7\atlmfc\include\afxwin1.inl
_TEXT	ENDS
;	COMDAT ??1CFont@@UAE@XZ
_TEXT	SEGMENT
_this$ = -4						; size = 4
??1CFont@@UAE@XZ PROC NEAR				; CFont::~CFont, COMDAT
; _this$ = ecx

; 155  : 	{ }

  00000	55		 push	 ebp
  00001	8b ec		 mov	 ebp, esp
  00003	51		 push	 ecx
  00004	89 4d fc	 mov	 DWORD PTR _this$[ebp], ecx
  00007	8b 45 fc	 mov	 eax, DWORD PTR _this$[ebp]
  0000a	c7 00 00 00 00
	00		 mov	 DWORD PTR [eax], OFFSET FLAT:??_7CFont@@6B@
  00010	8b 4d fc	 mov	 ecx, DWORD PTR _this$[ebp]
  00013	e8 00 00 00 00	 call	 ??1CGdiObject@@UAE@XZ	; CGdiObject::~CGdiObject
  00018	8b e5		 mov	 esp, ebp
  0001a	5d		 pop	 ebp
  0001b	c3		 ret	 0
??1CFont@@UAE@XZ ENDP					; CFont::~CFont
_TEXT	ENDS
PUBLIC	?GetSafeHandle@CGdiObject@@QBEPAXXZ		; CGdiObject::GetSafeHandle
EXTRN	__imp__FillRect@12:NEAR
; Function compile flags: /Odt
;	COMDAT ?FillRect@CDC@@QAEXPBUtagRECT@@PAVCBrush@@@Z
_TEXT	SEGMENT
_this$ = -4						; size = 4
_lpRect$ = 8						; size = 4
_pBrush$ = 12						; size = 4
?FillRect@CDC@@QAEXPBUtagRECT@@PAVCBrush@@@Z PROC NEAR	; CDC::FillRect, COMDAT
; _this$ = ecx

; 472  : 	{ ASSERT(m_hDC != NULL); ::FillRect(m_hDC, lpRect, (HBRUSH)pBrush->GetSafeHandle()); }

  00000	55		 push	 ebp
  00001	8b ec		 mov	 ebp, esp
  00003	51		 push	 ecx
  00004	89 4d fc	 mov	 DWORD PTR _this$[ebp], ecx
  00007	8b 4d 0c	 mov	 ecx, DWORD PTR _pBrush$[ebp]
  0000a	e8 00 00 00 00	 call	 ?GetSafeHandle@CGdiObject@@QBEPAXXZ ; CGdiObject::GetSafeHandle
  0000f	50		 push	 eax
  00010	8b 45 08	 mov	 eax, DWORD PTR _lpRect$[ebp]
  00013	50		 push	 eax
  00014	8b 4d fc	 mov	 ecx, DWORD PTR _this$[ebp]
  00017	8b 51 04	 mov	 edx, DWORD PTR [ecx+4]
  0001a	52		 push	 edx
  0001b	ff 15 00 00 00
	00		 call	 DWORD PTR __imp__FillRect@12
  00021	8b e5		 mov	 esp, ebp
  00023	5d		 pop	 ebp
  00024	c2 08 00	 ret	 8
?FillRect@CDC@@QAEXPBUtagRECT@@PAVCBrush@@@Z ENDP	; CDC::FillRect
; Function compile flags: /Odt
_TEXT	ENDS
;	COMDAT ?GetSafeHandle@CGdiObject@@QBEPAXXZ
_TEXT	SEGMENT
tv66 = -8						; size = 4
_this$ = -4						; size = 4
?GetSafeHandle@CGdiObject@@QBEPAXXZ PROC NEAR		; CGdiObject::GetSafeHandle, COMDAT
; _this$ = ecx

; 80   : 	{ return this == NULL ? NULL : m_hObject; }

  00000	55		 push	 ebp
  00001	8b ec		 mov	 ebp, esp
  00003	83 ec 08	 sub	 esp, 8
  00006	89 4d fc	 mov	 DWORD PTR _this$[ebp], ecx
  00009	83 7d fc 00	 cmp	 DWORD PTR _this$[ebp], 0
  0000d	75 09		 jne	 SHORT $L198431
  0000f	c7 45 f8 00 00
	00 00		 mov	 DWORD PTR tv66[ebp], 0
  00016	eb 09		 jmp	 SHORT $L198432
$L198431:
  00018	8b 45 fc	 mov	 eax, DWORD PTR _this$[ebp]
  0001b	8b 48 04	 mov	 ecx, DWORD PTR [eax+4]
  0001e	89 4d f8	 mov	 DWORD PTR tv66[ebp], ecx
$L198432:
  00021	8b 45 f8	 mov	 eax, DWORD PTR tv66[ebp]
  00024	8b e5		 mov	 esp, ebp
  00026	5d		 pop	 ebp
  00027	c3		 ret	 0
?GetSafeHandle@CGdiObject@@QBEPAXXZ ENDP		; CGdiObject::GetSafeHandle
_TEXT	ENDS
EXTRN	__imp_??B?$CSimpleStringT@D$00@ATL@@QBEPBDXZ:NEAR
; Function compile flags: /Odt
;	COMDAT ?DrawTextA@CDC@@QAEHABV?$CStringT@DV?$StrTraitMFC_DLL@DV?$ChTraitsCRT@D@ATL@@@@@ATL@@PAUtagRECT@@I@Z
_TEXT	SEGMENT
_this$ = -4						; size = 4
_str$ = 8						; size = 4
_lpRect$ = 12						; size = 4
_nFormat$ = 16						; size = 4
?DrawTextA@CDC@@QAEHABV?$CStringT@DV?$StrTraitMFC_DLL@DV?$ChTraitsCRT@D@ATL@@@@@ATL@@PAUtagRECT@@I@Z PROC NEAR ; CDC::DrawTextA, COMDAT
; _this$ = ecx

; 592  : 	{ ASSERT(m_hDC != NULL);

  00000	55		 push	 ebp
  00001	8b ec		 mov	 ebp, esp
  00003	51		 push	 ecx
  00004	89 4d fc	 mov	 DWORD PTR _this$[ebp], ecx

; 593  : 		// these flags would modify the string
; 594  : 		ASSERT((nFormat & (DT_END_ELLIPSIS | DT_MODIFYSTRING)) != (DT_END_ELLIPSIS | DT_MODIFYSTRING));
; 595  : 		ASSERT((nFormat & (DT_PATH_ELLIPSIS | DT_MODIFYSTRING)) != (DT_PATH_ELLIPSIS | DT_MODIFYSTRING));
; 596  : 		return DrawText((LPCTSTR)str, (int)str.GetLength(), lpRect, nFormat); }

  00007	8b 45 10	 mov	 eax, DWORD PTR _nFormat$[ebp]
  0000a	50		 push	 eax
  0000b	8b 4d 0c	 mov	 ecx, DWORD PTR _lpRect$[ebp]
  0000e	51		 push	 ecx
  0000f	8b 4d 08	 mov	 ecx, DWORD PTR _str$[ebp]
  00012	ff 15 00 00 00
	00		 call	 DWORD PTR __imp_?GetLength@?$CSimpleStringT@D$00@ATL@@QBEHXZ
  00018	50		 push	 eax
  00019	8b 4d 08	 mov	 ecx, DWORD PTR _str$[ebp]
  0001c	ff 15 00 00 00
	00		 call	 DWORD PTR __imp_??B?$CSimpleStringT@D$00@ATL@@QBEPBDXZ
  00022	50		 push	 eax
  00023	8b 55 fc	 mov	 edx, DWORD PTR _this$[ebp]
  00026	8b 02		 mov	 eax, DWORD PTR [edx]
  00028	8b 4d fc	 mov	 ecx, DWORD PTR _this$[ebp]
  0002b	ff 50 70	 call	 DWORD PTR [eax+112]
  0002e	8b e5		 mov	 esp, ebp
  00030	5d		 pop	 ebp
  00031	c2 0c 00	 ret	 12			; 0000000cH
?DrawTextA@CDC@@QAEHABV?$CStringT@DV?$StrTraitMFC_DLL@DV?$ChTraitsCRT@D@ATL@@@@@ATL@@PAUtagRECT@@I@Z ENDP ; CDC::DrawTextA
_TEXT	ENDS
PUBLIC	??0CSize@@QAE@UtagSIZE@@@Z			; CSize::CSize
EXTRN	__imp__GetTextExtentPoint32A@16:NEAR
; Function compile flags: /Odt
;	COMDAT ?GetTextExtent@CDC@@QBE?AVCSize@@ABV?$CStringT@DV?$StrTraitMFC_DLL@DV?$ChTraitsCRT@D@ATL@@@@@ATL@@@Z
_TEXT	SEGMENT
_this$ = -12						; size = 4
_size$ = -8						; size = 8
___$ReturnUdt$ = 8					; size = 4
_str$ = 12						; size = 4
?GetTextExtent@CDC@@QBE?AVCSize@@ABV?$CStringT@DV?$StrTraitMFC_DLL@DV?$ChTraitsCRT@D@ATL@@@@@ATL@@@Z PROC NEAR ; CDC::GetTextExtent, COMDAT
; _this$ = ecx

; 617  : 	{

  00000	55		 push	 ebp
  00001	8b ec		 mov	 ebp, esp
  00003	83 ec 0c	 sub	 esp, 12			; 0000000cH
  00006	89 4d f4	 mov	 DWORD PTR _this$[ebp], ecx

; 618  : 		ASSERT(m_hAttribDC != NULL);
; 619  : 		SIZE size;
; 620  : 		VERIFY(::GetTextExtentPoint32(m_hAttribDC, str, (int)str.GetLength(), &size));

  00009	8d 45 f8	 lea	 eax, DWORD PTR _size$[ebp]
  0000c	50		 push	 eax
  0000d	8b 4d 0c	 mov	 ecx, DWORD PTR _str$[ebp]
  00010	ff 15 00 00 00
	00		 call	 DWORD PTR __imp_?GetLength@?$CSimpleStringT@D$00@ATL@@QBEHXZ
  00016	50		 push	 eax
  00017	8b 4d 0c	 mov	 ecx, DWORD PTR _str$[ebp]
  0001a	ff 15 00 00 00
	00		 call	 DWORD PTR __imp_??B?$CSimpleStringT@D$00@ATL@@QBEPBDXZ
  00020	50		 push	 eax
  00021	8b 4d f4	 mov	 ecx, DWORD PTR _this$[ebp]
  00024	8b 51 08	 mov	 edx, DWORD PTR [ecx+8]
  00027	52		 push	 edx
  00028	ff 15 00 00 00
	00		 call	 DWORD PTR __imp__GetTextExtentPoint32A@16

; 621  : 		return size;

  0002e	8b 45 fc	 mov	 eax, DWORD PTR _size$[ebp+4]
  00031	50		 push	 eax
  00032	8b 4d f8	 mov	 ecx, DWORD PTR _size$[ebp]
  00035	51		 push	 ecx
  00036	8b 4d 08	 mov	 ecx, DWORD PTR ___$ReturnUdt$[ebp]
  00039	e8 00 00 00 00	 call	 ??0CSize@@QAE@UtagSIZE@@@Z ; CSize::CSize
  0003e	8b 45 08	 mov	 eax, DWORD PTR ___$ReturnUdt$[ebp]

; 622  : 	}

  00041	8b e5		 mov	 esp, ebp
  00043	5d		 pop	 ebp
  00044	c2 08 00	 ret	 8
?GetTextExtent@CDC@@QBE?AVCSize@@ABV?$CStringT@DV?$StrTraitMFC_DLL@DV?$ChTraitsCRT@D@ATL@@@@@ATL@@@Z ENDP ; CDC::GetTextExtent
; Function compile flags: /Odt
; File d:\program files (x86)\microsoft visual studio .net 2003\vc7\atlmfc\include\atltypes.inl
_TEXT	ENDS
;	COMDAT ??0CSize@@QAE@UtagSIZE@@@Z
_TEXT	SEGMENT
_this$ = -4						; size = 4
_initSize$ = 8						; size = 8
??0CSize@@QAE@UtagSIZE@@@Z PROC NEAR			; CSize::CSize, COMDAT
; _this$ = ecx

; 26   : 	{ *(SIZE*)this = initSize; }

  00000	55		 push	 ebp
  00001	8b ec		 mov	 ebp, esp
  00003	51		 push	 ecx
  00004	89 4d fc	 mov	 DWORD PTR _this$[ebp], ecx
  00007	8b 45 fc	 mov	 eax, DWORD PTR _this$[ebp]
  0000a	8b 4d 08	 mov	 ecx, DWORD PTR _initSize$[ebp]
  0000d	89 08		 mov	 DWORD PTR [eax], ecx
  0000f	8b 55 0c	 mov	 edx, DWORD PTR _initSize$[ebp+4]
  00012	89 50 04	 mov	 DWORD PTR [eax+4], edx
  00015	8b 45 fc	 mov	 eax, DWORD PTR _this$[ebp]
  00018	8b e5		 mov	 esp, ebp
  0001a	5d		 pop	 ebp
  0001b	c2 08 00	 ret	 8
??0CSize@@QAE@UtagSIZE@@@Z ENDP				; CSize::CSize
_TEXT	ENDS
EXTRN	__imp__GetWindowRect@8:NEAR
; Function compile flags: /Odt
; File d:\program files (x86)\microsoft visual studio .net 2003\vc7\atlmfc\include\afxwin2.inl
;	COMDAT ?GetWindowRect@CWnd@@QBEXPAUtagRECT@@@Z
_TEXT	SEGMENT
_this$ = -4						; size = 4
_lpRect$ = 8						; size = 4
?GetWindowRect@CWnd@@QBEXPAUtagRECT@@@Z PROC NEAR	; CWnd::GetWindowRect, COMDAT
; _this$ = ecx

; 105  : 	{ ASSERT(::IsWindow(m_hWnd)); ::GetWindowRect(m_hWnd, lpRect); }

  00000	55		 push	 ebp
  00001	8b ec		 mov	 ebp, esp
  00003	51		 push	 ecx
  00004	89 4d fc	 mov	 DWORD PTR _this$[ebp], ecx
  00007	8b 45 08	 mov	 eax, DWORD PTR _lpRect$[ebp]
  0000a	50		 push	 eax
  0000b	8b 4d fc	 mov	 ecx, DWORD PTR _this$[ebp]
  0000e	8b 51 20	 mov	 edx, DWORD PTR [ecx+32]
  00011	52		 push	 edx
  00012	ff 15 00 00 00
	00		 call	 DWORD PTR __imp__GetWindowRect@8
  00018	8b e5		 mov	 esp, ebp
  0001a	5d		 pop	 ebp
  0001b	c2 04 00	 ret	 4
?GetWindowRect@CWnd@@QBEXPAUtagRECT@@@Z ENDP		; CWnd::GetWindowRect
_TEXT	ENDS
EXTRN	__imp__GetClientRect@8:NEAR
; Function compile flags: /Odt
;	COMDAT ?GetClientRect@CWnd@@QBEXPAUtagRECT@@@Z
_TEXT	SEGMENT
_this$ = -4						; size = 4
_lpRect$ = 8						; size = 4
?GetClientRect@CWnd@@QBEXPAUtagRECT@@@Z PROC NEAR	; CWnd::GetClientRect, COMDAT
; _this$ = ecx

; 107  : 	{ ASSERT(::IsWindow(m_hWnd)); ::GetClientRect(m_hWnd, lpRect); }

  00000	55		 push	 ebp
  00001	8b ec		 mov	 ebp, esp
  00003	51		 push	 ecx
  00004	89 4d fc	 mov	 DWORD PTR _this$[ebp], ecx
  00007	8b 45 08	 mov	 eax, DWORD PTR _lpRect$[ebp]
  0000a	50		 push	 eax
  0000b	8b 4d fc	 mov	 ecx, DWORD PTR _this$[ebp]
  0000e	8b 51 20	 mov	 edx, DWORD PTR [ecx+32]
  00011	52		 push	 edx
  00012	ff 15 00 00 00
	00		 call	 DWORD PTR __imp__GetClientRect@8
  00018	8b e5		 mov	 esp, ebp
  0001a	5d		 pop	 ebp
  0001b	c2 04 00	 ret	 4
?GetClientRect@CWnd@@QBEXPAUtagRECT@@@Z ENDP		; CWnd::GetClientRect
_TEXT	ENDS
EXTRN	__imp__ClientToScreen@8:NEAR
; Function compile flags: /Odt
;	COMDAT ?ClientToScreen@CWnd@@QBEXPAUtagPOINT@@@Z
_TEXT	SEGMENT
_this$ = -4						; size = 4
_lpPoint$ = 8						; size = 4
?ClientToScreen@CWnd@@QBEXPAUtagPOINT@@@Z PROC NEAR	; CWnd::ClientToScreen, COMDAT
; _this$ = ecx

; 113  : 	{ ASSERT(::IsWindow(m_hWnd)); ::ClientToScreen(m_hWnd, lpPoint); }

  00000	55		 push	 ebp
  00001	8b ec		 mov	 ebp, esp
  00003	51		 push	 ecx
  00004	89 4d fc	 mov	 DWORD PTR _this$[ebp], ecx
  00007	8b 45 08	 mov	 eax, DWORD PTR _lpPoint$[ebp]
  0000a	50		 push	 eax
  0000b	8b 4d fc	 mov	 ecx, DWORD PTR _this$[ebp]
  0000e	8b 51 20	 mov	 edx, DWORD PTR [ecx+32]
  00011	52		 push	 edx
  00012	ff 15 00 00 00
	00		 call	 DWORD PTR __imp__ClientToScreen@8
  00018	8b e5		 mov	 esp, ebp
  0001a	5d		 pop	 ebp
  0001b	c2 04 00	 ret	 4
?ClientToScreen@CWnd@@QBEXPAUtagPOINT@@@Z ENDP		; CWnd::ClientToScreen
_TEXT	ENDS
EXTRN	?FromHandle@CDC@@SGPAV1@PAUHDC__@@@Z:NEAR	; CDC::FromHandle
EXTRN	__imp__GetWindowDC@4:NEAR
; Function compile flags: /Odt
;	COMDAT ?GetWindowDC@CWnd@@QAEPAVCDC@@XZ
_TEXT	SEGMENT
_this$ = -4						; size = 4
?GetWindowDC@CWnd@@QAEPAVCDC@@XZ PROC NEAR		; CWnd::GetWindowDC, COMDAT
; _this$ = ecx

; 123  : 	{ ASSERT(::IsWindow(m_hWnd)); return CDC::FromHandle(::GetWindowDC(m_hWnd)); }

  00000	55		 push	 ebp
  00001	8b ec		 mov	 ebp, esp
  00003	51		 push	 ecx
  00004	89 4d fc	 mov	 DWORD PTR _this$[ebp], ecx
  00007	8b 45 fc	 mov	 eax, DWORD PTR _this$[ebp]
  0000a	8b 48 20	 mov	 ecx, DWORD PTR [eax+32]
  0000d	51		 push	 ecx
  0000e	ff 15 00 00 00
	00		 call	 DWORD PTR __imp__GetWindowDC@4
  00014	50		 push	 eax
  00015	e8 00 00 00 00	 call	 ?FromHandle@CDC@@SGPAV1@PAUHDC__@@@Z ; CDC::FromHandle
  0001a	8b e5		 mov	 esp, ebp
  0001c	5d		 pop	 ebp
  0001d	c3		 ret	 0
?GetWindowDC@CWnd@@QAEPAVCDC@@XZ ENDP			; CWnd::GetWindowDC
_TEXT	ENDS
EXTRN	__imp__ReleaseDC@8:NEAR
; Function compile flags: /Odt
;	COMDAT ?ReleaseDC@CWnd@@QAEHPAVCDC@@@Z
_TEXT	SEGMENT
_this$ = -4						; size = 4
_pDC$ = 8						; size = 4
?ReleaseDC@CWnd@@QAEHPAVCDC@@@Z PROC NEAR		; CWnd::ReleaseDC, COMDAT
; _this$ = ecx

; 125  : 	{ ASSERT(::IsWindow(m_hWnd)); return ::ReleaseDC(m_hWnd, pDC->m_hDC); }

  00000	55		 push	 ebp
  00001	8b ec		 mov	 ebp, esp
  00003	51		 push	 ecx
  00004	89 4d fc	 mov	 DWORD PTR _this$[ebp], ecx
  00007	8b 45 08	 mov	 eax, DWORD PTR _pDC$[ebp]
  0000a	8b 48 04	 mov	 ecx, DWORD PTR [eax+4]
  0000d	51		 push	 ecx
  0000e	8b 55 fc	 mov	 edx, DWORD PTR _this$[ebp]
  00011	8b 42 20	 mov	 eax, DWORD PTR [edx+32]
  00014	50		 push	 eax
  00015	ff 15 00 00 00
	00		 call	 DWORD PTR __imp__ReleaseDC@8
  0001b	8b e5		 mov	 esp, ebp
  0001d	5d		 pop	 ebp
  0001e	c2 04 00	 ret	 4
?ReleaseDC@CWnd@@QAEHPAVCDC@@@Z ENDP			; CWnd::ReleaseDC
_TEXT	ENDS
EXTRN	__imp__InvalidateRect@12:NEAR
; Function compile flags: /Odt
;	COMDAT ?Invalidate@CWnd@@QAEXH@Z
_TEXT	SEGMENT
_this$ = -4						; size = 4
_bErase$ = 8						; size = 4
?Invalidate@CWnd@@QAEXH@Z PROC NEAR			; CWnd::Invalidate, COMDAT
; _this$ = ecx

; 135  : 	{ ASSERT(::IsWindow(m_hWnd)); ::InvalidateRect(m_hWnd, NULL, bErase); }

  00000	55		 push	 ebp
  00001	8b ec		 mov	 ebp, esp
  00003	51		 push	 ecx
  00004	89 4d fc	 mov	 DWORD PTR _this$[ebp], ecx
  00007	8b 45 08	 mov	 eax, DWORD PTR _bErase$[ebp]
  0000a	50		 push	 eax
  0000b	6a 00		 push	 0
  0000d	8b 4d fc	 mov	 ecx, DWORD PTR _this$[ebp]
  00010	8b 51 20	 mov	 edx, DWORD PTR [ecx+32]
  00013	52		 push	 edx
  00014	ff 15 00 00 00
	00		 call	 DWORD PTR __imp__InvalidateRect@12
  0001a	8b e5		 mov	 esp, ebp
  0001c	5d		 pop	 ebp
  0001d	c2 04 00	 ret	 4
?Invalidate@CWnd@@QAEXH@Z ENDP				; CWnd::Invalidate
_TEXT	ENDS
EXTRN	__imp__SetTimer@16:NEAR
; Function compile flags: /Odt
;	COMDAT ?SetTimer@CWnd@@QAEIIIP6GXPAUHWND__@@IIK@Z@Z
_TEXT	SEGMENT
_this$ = -4						; size = 4
_nIDEvent$ = 8						; size = 4
_nElapse$ = 12						; size = 4
_lpfnTimer$ = 16					; size = 4
?SetTimer@CWnd@@QAEIIIP6GXPAUHWND__@@IIK@Z@Z PROC NEAR	; CWnd::SetTimer, COMDAT
; _this$ = ecx

; 182  : 	{ ASSERT(::IsWindow(m_hWnd)); return ::SetTimer(m_hWnd, nIDEvent, nElapse,

  00000	55		 push	 ebp
  00001	8b ec		 mov	 ebp, esp
  00003	51		 push	 ecx
  00004	89 4d fc	 mov	 DWORD PTR _this$[ebp], ecx

; 183  : 		lpfnTimer); }

  00007	8b 45 10	 mov	 eax, DWORD PTR _lpfnTimer$[ebp]
  0000a	50		 push	 eax
  0000b	8b 4d 0c	 mov	 ecx, DWORD PTR _nElapse$[ebp]
  0000e	51		 push	 ecx
  0000f	8b 55 08	 mov	 edx, DWORD PTR _nIDEvent$[ebp]
  00012	52		 push	 edx
  00013	8b 45 fc	 mov	 eax, DWORD PTR _this$[ebp]
  00016	8b 48 20	 mov	 ecx, DWORD PTR [eax+32]
  00019	51		 push	 ecx
  0001a	ff 15 00 00 00
	00		 call	 DWORD PTR __imp__SetTimer@16
  00020	8b e5		 mov	 esp, ebp
  00022	5d		 pop	 ebp
  00023	c2 0c 00	 ret	 12			; 0000000cH
?SetTimer@CWnd@@QAEIIIP6GXPAUHWND__@@IIK@Z@Z ENDP	; CWnd::SetTimer
_TEXT	ENDS
EXTRN	__imp__KillTimer@8:NEAR
; Function compile flags: /Odt
;	COMDAT ?KillTimer@CWnd@@QAEHI@Z
_TEXT	SEGMENT
_this$ = -4						; size = 4
_nIDEvent$ = 8						; size = 4
?KillTimer@CWnd@@QAEHI@Z PROC NEAR			; CWnd::KillTimer, COMDAT
; _this$ = ecx

; 185  : 	{ ASSERT(::IsWindow(m_hWnd)); return ::KillTimer(m_hWnd, nIDEvent); }

  00000	55		 push	 ebp
  00001	8b ec		 mov	 ebp, esp
  00003	51		 push	 ecx
  00004	89 4d fc	 mov	 DWORD PTR _this$[ebp], ecx
  00007	8b 45 08	 mov	 eax, DWORD PTR _nIDEvent$[ebp]
  0000a	50		 push	 eax
  0000b	8b 4d fc	 mov	 ecx, DWORD PTR _this$[ebp]
  0000e	8b 51 20	 mov	 edx, DWORD PTR [ecx+32]
  00011	52		 push	 edx
  00012	ff 15 00 00 00
	00		 call	 DWORD PTR __imp__KillTimer@8
  00018	8b e5		 mov	 esp, ebp
  0001a	5d		 pop	 ebp
  0001b	c2 04 00	 ret	 4
?KillTimer@CWnd@@QAEHI@Z ENDP				; CWnd::KillTimer
_TEXT	ENDS
EXTRN	__imp__GetParent@4:NEAR
EXTRN	?FromHandle@CWnd@@SGPAV1@PAUHWND__@@@Z:NEAR	; CWnd::FromHandle
; Function compile flags: /Odt
;	COMDAT ?GetParent@CWnd@@QBEPAV1@XZ
_TEXT	SEGMENT
_this$ = -4						; size = 4
?GetParent@CWnd@@QBEPAV1@XZ PROC NEAR			; CWnd::GetParent, COMDAT
; _this$ = ecx

; 282  : 	{ ASSERT(::IsWindow(m_hWnd)); return CWnd::FromHandle(::GetParent(m_hWnd)); }

  00000	55		 push	 ebp
  00001	8b ec		 mov	 ebp, esp
  00003	51		 push	 ecx
  00004	89 4d fc	 mov	 DWORD PTR _this$[ebp], ecx
  00007	8b 45 fc	 mov	 eax, DWORD PTR _this$[ebp]
  0000a	8b 48 20	 mov	 ecx, DWORD PTR [eax+32]
  0000d	51		 push	 ecx
  0000e	ff 15 00 00 00
	00		 call	 DWORD PTR __imp__GetParent@4
  00014	50		 push	 eax
  00015	e8 00 00 00 00	 call	 ?FromHandle@CWnd@@SGPAV1@PAUHWND__@@@Z ; CWnd::FromHandle
  0001a	8b e5		 mov	 esp, ebp
  0001c	5d		 pop	 ebp
  0001d	c3		 ret	 0
?GetParent@CWnd@@QBEPAV1@XZ ENDP			; CWnd::GetParent
_TEXT	ENDS
EXTRN	?Default@CWnd@@IAEJXZ:NEAR			; CWnd::Default
; Function compile flags: /Odt
;	COMDAT ?OnTimer@CWnd@@IAEXI@Z
_TEXT	SEGMENT
_this$ = -4						; size = 4
___formal$ = 8						; size = 4
?OnTimer@CWnd@@IAEXI@Z PROC NEAR			; CWnd::OnTimer, COMDAT
; _this$ = ecx

; 488  : 	{ Default(); }

  00000	55		 push	 ebp
  00001	8b ec		 mov	 ebp, esp
  00003	51		 push	 ecx
  00004	89 4d fc	 mov	 DWORD PTR _this$[ebp], ecx
  00007	8b 4d fc	 mov	 ecx, DWORD PTR _this$[ebp]
  0000a	e8 00 00 00 00	 call	 ?Default@CWnd@@IAEJXZ	; CWnd::Default
  0000f	8b e5		 mov	 esp, ebp
  00011	5d		 pop	 ebp
  00012	c2 04 00	 ret	 4
?OnTimer@CWnd@@IAEXI@Z ENDP				; CWnd::OnTimer
; Function compile flags: /Odt
_TEXT	ENDS
;	COMDAT ?DoDataExchange@CWnd@@MAEXPAVCDataExchange@@@Z
_TEXT	SEGMENT
_this$ = -4						; size = 4
___formal$ = 8						; size = 4
?DoDataExchange@CWnd@@MAEXPAVCDataExchange@@@Z PROC NEAR ; CWnd::DoDataExchange, COMDAT
; _this$ = ecx

; 545  : 	{ } // default does nothing

  00000	55		 push	 ebp
  00001	8b ec		 mov	 ebp, esp
  00003	51		 push	 ecx
  00004	89 4d fc	 mov	 DWORD PTR _this$[ebp], ecx
  00007	8b e5		 mov	 esp, ebp
  00009	5d		 pop	 ebp
  0000a	c2 04 00	 ret	 4
?DoDataExchange@CWnd@@MAEXPAVCDataExchange@@@Z ENDP	; CWnd::DoDataExchange
_TEXT	ENDS
EXTRN	__imp__EnableWindow@8:NEAR
; Function compile flags: /Odt
;	COMDAT ?BeginModalState@CWnd@@UAEXXZ
_TEXT	SEGMENT
_this$ = -4						; size = 4
?BeginModalState@CWnd@@UAEXXZ PROC NEAR			; CWnd::BeginModalState, COMDAT
; _this$ = ecx

; 549  : 	{ ::EnableWindow(m_hWnd, FALSE); }

  00000	55		 push	 ebp
  00001	8b ec		 mov	 ebp, esp
  00003	51		 push	 ecx
  00004	89 4d fc	 mov	 DWORD PTR _this$[ebp], ecx
  00007	6a 00		 push	 0
  00009	8b 45 fc	 mov	 eax, DWORD PTR _this$[ebp]
  0000c	8b 48 20	 mov	 ecx, DWORD PTR [eax+32]
  0000f	51		 push	 ecx
  00010	ff 15 00 00 00
	00		 call	 DWORD PTR __imp__EnableWindow@8
  00016	8b e5		 mov	 esp, ebp
  00018	5d		 pop	 ebp
  00019	c3		 ret	 0
?BeginModalState@CWnd@@UAEXXZ ENDP			; CWnd::BeginModalState
; Function compile flags: /Odt
_TEXT	ENDS
;	COMDAT ?EndModalState@CWnd@@UAEXXZ
_TEXT	SEGMENT
_this$ = -4						; size = 4
?EndModalState@CWnd@@UAEXXZ PROC NEAR			; CWnd::EndModalState, COMDAT
; _this$ = ecx

; 551  : 	{ ::EnableWindow(m_hWnd, TRUE); }

  00000	55		 push	 ebp
  00001	8b ec		 mov	 ebp, esp
  00003	51		 push	 ecx
  00004	89 4d fc	 mov	 DWORD PTR _this$[ebp], ecx
  00007	6a 01		 push	 1
  00009	8b 45 fc	 mov	 eax, DWORD PTR _this$[ebp]
  0000c	8b 48 20	 mov	 ecx, DWORD PTR [eax+32]
  0000f	51		 push	 ecx
  00010	ff 15 00 00 00
	00		 call	 DWORD PTR __imp__EnableWindow@8
  00016	8b e5		 mov	 esp, ebp
  00018	5d		 pop	 ebp
  00019	c3		 ret	 0
?EndModalState@CWnd@@UAEXXZ ENDP			; CWnd::EndModalState
_TEXT	ENDS
END
