; Listing generated by Microsoft (R) Optimizing Compiler Version 13.10.3077 

	TITLE	.\src\Gui\CommonControl\xSkinButton.cpp
	.386P
include listing.inc
if @Version gt 510
.model FLAT
else
_TEXT	SEGMENT PARA USE32 PUBLIC 'CODE'
_TEXT	ENDS
_DATA	SEGMENT DWORD USE32 PUBLIC 'DATA'
_DATA	ENDS
CONST	SEGMENT DWORD USE32 PUBLIC 'CONST'
CONST	ENDS
_BSS	SEGMENT DWORD USE32 PUBLIC 'BSS'
_BSS	ENDS
$$SYMBOLS	SEGMENT BYTE USE32 'DEBSYM'
$$SYMBOLS	ENDS
$$TYPES	SEGMENT BYTE USE32 'DEBTYP'
$$TYPES	ENDS
_TLS	SEGMENT DWORD USE32 PUBLIC 'TLS'
_TLS	ENDS
rdata$r	SEGMENT DWORD USE32 PUBLIC 'CONST'
rdata$r	ENDS
xdata$x	SEGMENT DWORD USE32 PUBLIC 'CONST'
xdata$x	ENDS
text$AFX_COL1	SEGMENT PARA USE32 PUBLIC ''
text$AFX_COL1	ENDS
text$yc	SEGMENT PARA USE32 PUBLIC 'CODE'
text$yc	ENDS
CRT$XCA	SEGMENT DWORD USE32 PUBLIC 'DATA'
CRT$XCA	ENDS
CRT$XCU	SEGMENT DWORD USE32 PUBLIC 'DATA'
CRT$XCU	ENDS
CRT$XCL	SEGMENT DWORD USE32 PUBLIC 'DATA'
CRT$XCL	ENDS
CRT$XCC	SEGMENT DWORD USE32 PUBLIC 'DATA'
CRT$XCC	ENDS
CRT$XCZ	SEGMENT DWORD USE32 PUBLIC 'DATA'
CRT$XCZ	ENDS
text$yd	SEGMENT PARA USE32 PUBLIC 'CODE'
text$yd	ENDS
ATL$__m	SEGMENT DWORD USE32 PUBLIC ''
ATL$__m	ENDS
ATL$__z	SEGMENT DWORD USE32 PUBLIC ''
ATL$__z	ENDS
ATL$__a	SEGMENT DWORD USE32 PUBLIC ''
ATL$__a	ENDS
;	COMDAT ??1IData@@MAE@XZ
_TEXT	SEGMENT PARA USE32 PUBLIC 'CODE'
_TEXT	ENDS
;	COMDAT ?DataAppStart@IData@@UAEXXZ
_TEXT	SEGMENT PARA USE32 PUBLIC 'CODE'
_TEXT	ENDS
;	COMDAT ?DataAppExit@IData@@UAEXXZ
_TEXT	SEGMENT PARA USE32 PUBLIC 'CODE'
_TEXT	ENDS
;	COMDAT ??_GIData@@MAEPAXI@Z
_TEXT	SEGMENT PARA USE32 PUBLIC 'CODE'
_TEXT	ENDS
;	COMDAT ??_GCxSkinButton@@UAEPAXI@Z
_TEXT	SEGMENT PARA USE32 PUBLIC 'CODE'
_TEXT	ENDS
;	COMDAT ??8ATL@@YA_NABV?$CStringT@DV?$StrTraitMFC_DLL@DV?$ChTraitsCRT@D@ATL@@@@@0@PBD@Z
_TEXT	SEGMENT PARA USE32 PUBLIC 'CODE'
_TEXT	ENDS
;	COMDAT ??9ATL@@YA_NABV?$CStringT@DV?$StrTraitMFC_DLL@DV?$ChTraitsCRT@D@ATL@@@@@0@PBD@Z
_TEXT	SEGMENT PARA USE32 PUBLIC 'CODE'
_TEXT	ENDS
;	COMDAT ??B?$CComPtrBase@UITypeInfo2@@@ATL@@QBEPAUITypeInfo2@@XZ
_TEXT	SEGMENT PARA USE32 PUBLIC 'CODE'
_TEXT	ENDS
;	COMDAT ?equal@?$istreambuf_iterator@DU?$char_traits@D@std@@@std@@QBE_NABV12@@Z
_TEXT	SEGMENT PARA USE32 PUBLIC 'CODE'
_TEXT	ENDS
;	COMDAT ?equal@?$istreambuf_iterator@_WU?$char_traits@_W@std@@@std@@QBE_NABV12@@Z
_TEXT	SEGMENT PARA USE32 PUBLIC 'CODE'
_TEXT	ENDS
;	COMDAT ?StringCompare@?$ChTraitsCRT@D@ATL@@SAHPBD0@Z
_TEXT	SEGMENT PARA USE32 PUBLIC 'CODE'
_TEXT	ENDS
;	COMDAT ?Unlock@?$CComCritSecLock@VCComCriticalSection@ATL@@@ATL@@QAEXXZ
_TEXT	SEGMENT PARA USE32 PUBLIC 'CODE'
_TEXT	ENDS
;	COMDAT ??$_Maklocstr@D@std@@YAPADPBDPADABU_Cvtvec@@@Z
_TEXT	SEGMENT PARA USE32 PUBLIC 'CODE'
_TEXT	ENDS
;	COMDAT ??_R3IData@@8
rdata$r	SEGMENT DWORD USE32 PUBLIC 'CONST'
rdata$r	ENDS
;	COMDAT ??_R3CxSkinButton@@8
rdata$r	SEGMENT DWORD USE32 PUBLIC 'CONST'
rdata$r	ENDS
;	COMDAT ??_R3?$numpunct@_W@std@@8
rdata$r	SEGMENT DWORD USE32 PUBLIC 'CONST'
rdata$r	ENDS
;	COMDAT ??_R3?$numpunct@D@std@@8
rdata$r	SEGMENT DWORD USE32 PUBLIC 'CONST'
rdata$r	ENDS
;	COMDAT ??_R2IData@@8
rdata$r	SEGMENT DWORD USE32 PUBLIC 'CONST'
rdata$r	ENDS
;	COMDAT ??_R2CxSkinButton@@8
rdata$r	SEGMENT DWORD USE32 PUBLIC 'CONST'
rdata$r	ENDS
;	COMDAT ??_R2?$numpunct@_W@std@@8
rdata$r	SEGMENT DWORD USE32 PUBLIC 'CONST'
rdata$r	ENDS
;	COMDAT ??_R2?$numpunct@D@std@@8
rdata$r	SEGMENT DWORD USE32 PUBLIC 'CONST'
rdata$r	ENDS
;	COMDAT ??_R1A@?0A@A@IData@@8
rdata$r	SEGMENT DWORD USE32 PUBLIC 'CONST'
rdata$r	ENDS
;	COMDAT ??_R1A@?0A@A@CObject@@8
rdata$r	SEGMENT DWORD USE32 PUBLIC 'CONST'
rdata$r	ENDS
;	COMDAT ??_R0?AVCObject@@@8
_DATA	SEGMENT DWORD USE32 PUBLIC 'DATA'
_DATA	ENDS
;	COMDAT ??_R1A@?0A@A@CCmdTarget@@8
rdata$r	SEGMENT DWORD USE32 PUBLIC 'CONST'
rdata$r	ENDS
;	COMDAT ??_R0?AVCCmdTarget@@@8
_DATA	SEGMENT DWORD USE32 PUBLIC 'DATA'
_DATA	ENDS
;	COMDAT ??_R1A@?0A@A@CWnd@@8
rdata$r	SEGMENT DWORD USE32 PUBLIC 'CONST'
rdata$r	ENDS
;	COMDAT ??_R0?AVCWnd@@@8
_DATA	SEGMENT DWORD USE32 PUBLIC 'DATA'
_DATA	ENDS
;	COMDAT ??_R1A@?0A@A@CButton@@8
rdata$r	SEGMENT DWORD USE32 PUBLIC 'CONST'
rdata$r	ENDS
;	COMDAT ??_R0?AVCButton@@@8
_DATA	SEGMENT DWORD USE32 PUBLIC 'DATA'
_DATA	ENDS
;	COMDAT ??_R1A@?0A@A@CxSkinButton@@8
rdata$r	SEGMENT DWORD USE32 PUBLIC 'CONST'
rdata$r	ENDS
;	COMDAT ??_R1A@?0A@A@?$numpunct@_W@std@@8
rdata$r	SEGMENT DWORD USE32 PUBLIC 'CONST'
rdata$r	ENDS
;	COMDAT ??_R1A@?0A@A@facet@locale@std@@8
rdata$r	SEGMENT DWORD USE32 PUBLIC 'CONST'
rdata$r	ENDS
;	COMDAT ??_R0?AVfacet@locale@std@@@8
_DATA	SEGMENT DWORD USE32 PUBLIC 'DATA'
_DATA	ENDS
;	COMDAT ??_R1A@?0A@A@?$numpunct@D@std@@8
rdata$r	SEGMENT DWORD USE32 PUBLIC 'CONST'
rdata$r	ENDS
;	COMDAT ??_R0?AVIData@@@8
_DATA	SEGMENT DWORD USE32 PUBLIC 'DATA'
_DATA	ENDS
;	COMDAT ??_R0?AVCxSkinButton@@@8
_DATA	SEGMENT DWORD USE32 PUBLIC 'DATA'
_DATA	ENDS
;	COMDAT ??_R0?AV?$numpunct@_W@std@@@8
_DATA	SEGMENT DWORD USE32 PUBLIC 'DATA'
_DATA	ENDS
;	COMDAT ??_R0?AV?$numpunct@D@std@@@8
_DATA	SEGMENT DWORD USE32 PUBLIC 'DATA'
_DATA	ENDS
;	COMDAT ??_R4IData@@6B@
rdata$r	SEGMENT DWORD USE32 PUBLIC 'CONST'
rdata$r	ENDS
;	COMDAT ?EndModalState@CWnd@@UAEXXZ
_TEXT	SEGMENT PARA USE32 PUBLIC 'CODE'
_TEXT	ENDS
;	COMDAT ?BeginModalState@CWnd@@UAEXXZ
_TEXT	SEGMENT PARA USE32 PUBLIC 'CODE'
_TEXT	ENDS
;	COMDAT ?DoDataExchange@CWnd@@MAEXPAVCDataExchange@@@Z
_TEXT	SEGMENT PARA USE32 PUBLIC 'CODE'
_TEXT	ENDS
;	COMDAT ?Dump@CObject@@UBEXAAVCDumpContext@@@Z
_TEXT	SEGMENT PARA USE32 PUBLIC 'CODE'
_TEXT	ENDS
;	COMDAT ?AssertValid@CObject@@UBEXXZ
_TEXT	SEGMENT PARA USE32 PUBLIC 'CODE'
_TEXT	ENDS
;	COMDAT ?Serialize@CObject@@UAEXAAVCArchive@@@Z
_TEXT	SEGMENT PARA USE32 PUBLIC 'CODE'
_TEXT	ENDS
;	COMDAT ??_R4CxSkinButton@@6B@
rdata$r	SEGMENT DWORD USE32 PUBLIC 'CONST'
rdata$r	ENDS
;	COMDAT ??0?$allocator@_W@std@@QAE@XZ
_TEXT	SEGMENT PARA USE32 PUBLIC 'CODE'
_TEXT	ENDS
;	COMDAT ??0?$allocator@D@std@@QAE@ABV01@@Z
_TEXT	SEGMENT PARA USE32 PUBLIC 'CODE'
_TEXT	ENDS
;	COMDAT ??0?$allocator@D@std@@QAE@XZ
_TEXT	SEGMENT PARA USE32 PUBLIC 'CODE'
_TEXT	ENDS
;	COMDAT ?deallocate@?$allocator@D@std@@QAEXPADI@Z
_TEXT	SEGMENT PARA USE32 PUBLIC 'CODE'
_TEXT	ENDS
;	COMDAT ?max_size@?$allocator@D@std@@QBEIXZ
_TEXT	SEGMENT PARA USE32 PUBLIC 'CODE'
_TEXT	ENDS
;	COMDAT ?allocate@?$allocator@D@std@@QAEPADI@Z
_TEXT	SEGMENT PARA USE32 PUBLIC 'CODE'
_TEXT	ENDS
;	COMDAT ??$_Allocate@D@std@@YAPADIPAD@Z
_TEXT	SEGMENT PARA USE32 PUBLIC 'CODE'
_TEXT	ENDS
;	COMDAT ??_G?$numpunct@_W@std@@MAEPAXI@Z
_TEXT	SEGMENT PARA USE32 PUBLIC 'CODE'
_TEXT	ENDS
;	COMDAT ??_R4?$numpunct@_W@std@@6B@
rdata$r	SEGMENT DWORD USE32 PUBLIC 'CONST'
rdata$r	ENDS
;	COMDAT ??_G?$numpunct@D@std@@MAEPAXI@Z
_TEXT	SEGMENT PARA USE32 PUBLIC 'CODE'
_TEXT	ENDS
;	COMDAT ??_R4?$numpunct@D@std@@6B@
rdata$r	SEGMENT DWORD USE32 PUBLIC 'CONST'
rdata$r	ENDS
;	COMDAT ?_Psave@?$_Facetptr@V?$numpunct@_W@std@@@std@@2PBVfacet@locale@2@B
_DATA	SEGMENT DWORD USE32 PUBLIC 'DATA'
_DATA	ENDS
;	COMDAT ?_Psave@?$_Facetptr@V?$numpunct@D@std@@@std@@2PBVfacet@locale@2@B
_DATA	SEGMENT DWORD USE32 PUBLIC 'DATA'
_DATA	ENDS
;	COMDAT ?Unlock@CComCriticalSection@ATL@@QAEJXZ
_TEXT	SEGMENT PARA USE32 PUBLIC 'CODE'
_TEXT	ENDS
;	COMDAT ?_Psave@?$_Facetptr@V?$ctype@_W@std@@@std@@2PBVfacet@locale@2@B
_DATA	SEGMENT DWORD USE32 PUBLIC 'DATA'
_DATA	ENDS
;	COMDAT ?_Psave@?$_Facetptr@V?$ctype@D@std@@@std@@2PBVfacet@locale@2@B
_DATA	SEGMENT DWORD USE32 PUBLIC 'DATA'
_DATA	ENDS
;	COMDAT ??$_Maklocchr@_W@std@@YA_WDPA_WABU_Cvtvec@@@Z
_TEXT	SEGMENT PARA USE32 PUBLIC 'CODE'
_TEXT	ENDS
;	COMDAT ??$_Maklocstr@_W@std@@YAPA_WPBDPA_WABU_Cvtvec@@@Z
_TEXT	SEGMENT PARA USE32 PUBLIC 'CODE'
_TEXT	ENDS
;	COMDAT ??$_Maklocchr@D@std@@YADDPADABU_Cvtvec@@@Z
_TEXT	SEGMENT PARA USE32 PUBLIC 'CODE'
_TEXT	ENDS
;	COMDAT ??_C@_04LOAJBDKD@true?$AA@
CONST	SEGMENT DWORD USE32 PUBLIC 'CONST'
CONST	ENDS
;	COMDAT ??_C@_05LAPONLG@false?$AA@
CONST	SEGMENT DWORD USE32 PUBLIC 'CONST'
CONST	ENDS
;	COMDAT _wmemcpy
_TEXT	SEGMENT PARA USE32 PUBLIC 'CODE'
_TEXT	ENDS
;	COMDAT ?max_size@?$allocator@_W@std@@QBEIXZ
_TEXT	SEGMENT PARA USE32 PUBLIC 'CODE'
_TEXT	ENDS
;	COMDAT ?allocate@?$allocator@_W@std@@QAEPA_WI@Z
_TEXT	SEGMENT PARA USE32 PUBLIC 'CODE'
_TEXT	ENDS
;	COMDAT ??$_Allocate@_W@std@@YAPA_WIPA_W@Z
_TEXT	SEGMENT PARA USE32 PUBLIC 'CODE'
_TEXT	ENDS
;	COMDAT ??_C@_01GFHCPBMG@C?$AA@
CONST	SEGMENT DWORD USE32 PUBLIC 'CONST'
CONST	ENDS
;	COMDAT ?_Peek@?$istreambuf_iterator@_WU?$char_traits@_W@std@@@std@@AAE_WXZ
_TEXT	SEGMENT PARA USE32 PUBLIC 'CODE'
_TEXT	ENDS
;	COMDAT ?_Peek@?$istreambuf_iterator@DU?$char_traits@D@std@@@std@@AAEDXZ
_TEXT	SEGMENT PARA USE32 PUBLIC 'CODE'
_TEXT	ENDS
;	COMDAT ??$use_facet@V?$ctype@_W@std@@@std@@YAABV?$ctype@_W@0@ABVlocale@0@@Z
_TEXT	SEGMENT PARA USE32 PUBLIC 'CODE'
_TEXT	ENDS
;	COMDAT ??_S?$ctype@_W@std@@6B@
CONST	SEGMENT DWORD USE32 PUBLIC 'CONST'
CONST	ENDS
;	COMDAT ??_R4?$ctype@_W@std@@6B@
rdata$r	SEGMENT DWORD USE32 PUBLIC 'CONST'
rdata$r	ENDS
;	COMDAT ??_R0?AV?$ctype@_W@std@@@8
_DATA	SEGMENT DWORD USE32 PUBLIC 'DATA'
_DATA	ENDS
;	COMDAT ??_R3?$ctype@_W@std@@8
rdata$r	SEGMENT DWORD USE32 PUBLIC 'CONST'
rdata$r	ENDS
;	COMDAT ??_R2?$ctype@_W@std@@8
rdata$r	SEGMENT DWORD USE32 PUBLIC 'CONST'
rdata$r	ENDS
;	COMDAT ??_R1A@?0A@A@?$ctype@_W@std@@8
rdata$r	SEGMENT DWORD USE32 PUBLIC 'CONST'
rdata$r	ENDS
;	COMDAT ??_R1A@?0A@A@ctype_base@std@@8
rdata$r	SEGMENT DWORD USE32 PUBLIC 'CONST'
rdata$r	ENDS
;	COMDAT ??_R0?AUctype_base@std@@@8
_DATA	SEGMENT DWORD USE32 PUBLIC 'DATA'
_DATA	ENDS
;	COMDAT ??_G?$ctype@_W@std@@MAEPAXI@Z
_TEXT	SEGMENT PARA USE32 PUBLIC 'CODE'
_TEXT	ENDS
;	COMDAT ??_C@_08EPJLHIJG@bad?5cast?$AA@
CONST	SEGMENT DWORD USE32 PUBLIC 'CONST'
CONST	ENDS
;	COMDAT __TI2?AVbad_cast@@
xdata$x	SEGMENT DWORD USE32 PUBLIC 'CONST'
xdata$x	ENDS
;	COMDAT __CTA2?AVbad_cast@@
xdata$x	SEGMENT DWORD USE32 PUBLIC 'CONST'
xdata$x	ENDS
;	COMDAT __CT??_R0?AVbad_cast@@@8??0bad_cast@@QAE@ABV0@@Z12
xdata$x	SEGMENT DWORD USE32 PUBLIC 'CONST'
xdata$x	ENDS
;	COMDAT ??_R0?AVbad_cast@@@8
_DATA	SEGMENT DWORD USE32 PUBLIC 'DATA'
_DATA	ENDS
;	COMDAT __CT??_R0?AVexception@@@8??0exception@@QAE@ABV0@@Z12
xdata$x	SEGMENT DWORD USE32 PUBLIC 'CONST'
xdata$x	ENDS
;	COMDAT ??_R0?AVexception@@@8
_DATA	SEGMENT DWORD USE32 PUBLIC 'DATA'
_DATA	ENDS
;	COMDAT ??$use_facet@V?$ctype@D@std@@@std@@YAABV?$ctype@D@0@ABVlocale@0@@Z
_TEXT	SEGMENT PARA USE32 PUBLIC 'CODE'
_TEXT	ENDS
;	COMDAT ??_S?$ctype@D@std@@6B@
CONST	SEGMENT DWORD USE32 PUBLIC 'CONST'
CONST	ENDS
;	COMDAT ??_R4?$ctype@D@std@@6B@
rdata$r	SEGMENT DWORD USE32 PUBLIC 'CONST'
rdata$r	ENDS
;	COMDAT ??_R0?AV?$ctype@D@std@@@8
_DATA	SEGMENT DWORD USE32 PUBLIC 'DATA'
_DATA	ENDS
;	COMDAT ??_R3?$ctype@D@std@@8
rdata$r	SEGMENT DWORD USE32 PUBLIC 'CONST'
rdata$r	ENDS
;	COMDAT ??_R2?$ctype@D@std@@8
rdata$r	SEGMENT DWORD USE32 PUBLIC 'CONST'
rdata$r	ENDS
;	COMDAT ??_R1A@?0A@A@?$ctype@D@std@@8
rdata$r	SEGMENT DWORD USE32 PUBLIC 'CONST'
rdata$r	ENDS
;	COMDAT ??_G?$ctype@D@std@@MAEPAXI@Z
_TEXT	SEGMENT PARA USE32 PUBLIC 'CODE'
_TEXT	ENDS
;	COMDAT ??_S?$numpunct@_W@std@@6B@
CONST	SEGMENT DWORD USE32 PUBLIC 'CONST'
CONST	ENDS
;	COMDAT ??_S?$numpunct@D@std@@6B@
CONST	SEGMENT DWORD USE32 PUBLIC 'CONST'
CONST	ENDS
;	COMDAT _wmemmove
_TEXT	SEGMENT PARA USE32 PUBLIC 'CODE'
_TEXT	ENDS
;	COMDAT ?deallocate@?$allocator@_W@std@@QAEXPA_WI@Z
_TEXT	SEGMENT PARA USE32 PUBLIC 'CODE'
_TEXT	ENDS
;	COMDAT ??0?$allocator@_W@std@@QAE@ABV01@@Z
_TEXT	SEGMENT PARA USE32 PUBLIC 'CODE'
_TEXT	ENDS
;	COMDAT ?GetSafeHwnd@CWnd@@QBEPAUHWND__@@XZ
_TEXT	SEGMENT PARA USE32 PUBLIC 'CODE'
_TEXT	ENDS
;	COMDAT ?OnKeyDown@CWnd@@IAEXIII@Z
_TEXT	SEGMENT PARA USE32 PUBLIC 'CODE'
_TEXT	ENDS
;	COMDAT ?OnKillFocus@CWnd@@IAEXPAV1@@Z
_TEXT	SEGMENT PARA USE32 PUBLIC 'CODE'
_TEXT	ENDS
;	COMDAT ?GetParent@CWnd@@QBEPAV1@XZ
_TEXT	SEGMENT PARA USE32 PUBLIC 'CODE'
_TEXT	ENDS
;	COMDAT ?OnMouseMove@CWnd@@IAEXIVCPoint@@@Z
_TEXT	SEGMENT PARA USE32 PUBLIC 'CODE'
_TEXT	ENDS
;	COMDAT ?OnRButtonUp@CWnd@@IAEXIVCPoint@@@Z
_TEXT	SEGMENT PARA USE32 PUBLIC 'CODE'
_TEXT	ENDS
;	COMDAT ?OnLButtonUp@CWnd@@IAEXIVCPoint@@@Z
_TEXT	SEGMENT PARA USE32 PUBLIC 'CODE'
_TEXT	ENDS
;	COMDAT ?SetCheck@CButton@@QAEXH@Z
_TEXT	SEGMENT PARA USE32 PUBLIC 'CODE'
_TEXT	ENDS
;	COMDAT ?PostMessageA@CWnd@@QAEHIIJ@Z
_TEXT	SEGMENT PARA USE32 PUBLIC 'CODE'
_TEXT	ENDS
;	COMDAT ?OnRButtonDown@CWnd@@IAEXIVCPoint@@@Z
_TEXT	SEGMENT PARA USE32 PUBLIC 'CODE'
_TEXT	ENDS
;	COMDAT ?OnLButtonDown@CWnd@@IAEXIVCPoint@@@Z
_TEXT	SEGMENT PARA USE32 PUBLIC 'CODE'
_TEXT	ENDS
;	COMDAT ?SendMessageA@CWnd@@QAEJIIJ@Z
_TEXT	SEGMENT PARA USE32 PUBLIC 'CODE'
_TEXT	ENDS
;	COMDAT ?RelayEvent@CToolTipCtrl@@QAEXPAUtagMSG@@@Z
_TEXT	SEGMENT PARA USE32 PUBLIC 'CODE'
_TEXT	ENDS
;	COMDAT ?IsLocked@CStringData@ATL@@QBE_NXZ
_TEXT	SEGMENT PARA USE32 PUBLIC 'CODE'
_TEXT	ENDS
;	COMDAT ?AddRef@CStringData@ATL@@QAEXXZ
_TEXT	SEGMENT PARA USE32 PUBLIC 'CODE'
_TEXT	ENDS
;	COMDAT ?AtlThrow@ATL@@YGXJ@Z
_TEXT	SEGMENT PARA USE32 PUBLIC 'CODE'
_TEXT	ENDS
;	COMDAT ?data@CStringData@ATL@@QAEPAXXZ
_TEXT	SEGMENT PARA USE32 PUBLIC 'CODE'
_TEXT	ENDS
;	COMDAT ?Release@CStringData@ATL@@QAEXXZ
_TEXT	SEGMENT PARA USE32 PUBLIC 'CODE'
_TEXT	ENDS
;	COMDAT ?Activate@CToolTipCtrl@@QAEXH@Z
_TEXT	SEGMENT PARA USE32 PUBLIC 'CODE'
_TEXT	ENDS
;	COMDAT ?IsShared@CStringData@ATL@@QBE_NXZ
_TEXT	SEGMENT PARA USE32 PUBLIC 'CODE'
_TEXT	ENDS
;	COMDAT ?GetPixel@CDC@@QBEKHH@Z
_TEXT	SEGMENT PARA USE32 PUBLIC 'CODE'
_TEXT	ENDS
;	COMDAT ?Invalidate@CWnd@@QAEXH@Z
_TEXT	SEGMENT PARA USE32 PUBLIC 'CODE'
_TEXT	ENDS
;	COMDAT ?ReleaseDC@CWnd@@QAEHPAVCDC@@@Z
_TEXT	SEGMENT PARA USE32 PUBLIC 'CODE'
_TEXT	ENDS
;	COMDAT ?SetWindowRgn@CWnd@@QAEHPAUHRGN__@@H@Z
_TEXT	SEGMENT PARA USE32 PUBLIC 'CODE'
_TEXT	ENDS
;	COMDAT ??BCDC@@QBEPAUHDC__@@XZ
_TEXT	SEGMENT PARA USE32 PUBLIC 'CODE'
_TEXT	ENDS
;	COMDAT ?StretchBlt@CDC@@QAEHHHHHPAV1@HHHHK@Z
_TEXT	SEGMENT PARA USE32 PUBLIC 'CODE'
_TEXT	ENDS
;	COMDAT ?GetSafeHdc@CDC@@QBEPAUHDC__@@XZ
_TEXT	SEGMENT PARA USE32 PUBLIC 'CODE'
_TEXT	ENDS
;	COMDAT ?BitBlt@CDC@@QAEHHHHHPAV1@HHK@Z
_TEXT	SEGMENT PARA USE32 PUBLIC 'CODE'
_TEXT	ENDS
;	COMDAT ??BCGdiObject@@QBEPAXXZ
_TEXT	SEGMENT PARA USE32 PUBLIC 'CODE'
_TEXT	ENDS
;	COMDAT ?SelectObject@CDC@@QAEPAXPAX@Z
_TEXT	SEGMENT PARA USE32 PUBLIC 'CODE'
_TEXT	ENDS
;	COMDAT ?SelectObject@CDC@@QAEPAVCBitmap@@PAV2@@Z
_TEXT	SEGMENT PARA USE32 PUBLIC 'CODE'
_TEXT	ENDS
;	COMDAT ?GetSafeHandle@CGdiObject@@QBEPAXXZ
_TEXT	SEGMENT PARA USE32 PUBLIC 'CODE'
_TEXT	ENDS
;	COMDAT ?CreateCompatibleBitmap@CBitmap@@QAEHPAVCDC@@HH@Z
_TEXT	SEGMENT PARA USE32 PUBLIC 'CODE'
_TEXT	ENDS
;	COMDAT ??1CBitmap@@UAE@XZ
_TEXT	SEGMENT PARA USE32 PUBLIC 'CODE'
_TEXT	ENDS
;	COMDAT ??_7CBitmap@@6B@
CONST	SEGMENT DWORD USE32 PUBLIC 'CONST'
CONST	ENDS
;	COMDAT ??_R4CBitmap@@6B@
rdata$r	SEGMENT DWORD USE32 PUBLIC 'CONST'
rdata$r	ENDS
;	COMDAT ??_R0?AVCBitmap@@@8
_DATA	SEGMENT DWORD USE32 PUBLIC 'DATA'
_DATA	ENDS
;	COMDAT ??_R3CBitmap@@8
rdata$r	SEGMENT DWORD USE32 PUBLIC 'CONST'
rdata$r	ENDS
;	COMDAT ??_R2CBitmap@@8
rdata$r	SEGMENT DWORD USE32 PUBLIC 'CONST'
rdata$r	ENDS
;	COMDAT ??_R1A@?0A@A@CBitmap@@8
rdata$r	SEGMENT DWORD USE32 PUBLIC 'CONST'
rdata$r	ENDS
;	COMDAT ??_R1A@?0A@A@CGdiObject@@8
rdata$r	SEGMENT DWORD USE32 PUBLIC 'CONST'
rdata$r	ENDS
;	COMDAT ??_R0?AVCGdiObject@@@8
_DATA	SEGMENT DWORD USE32 PUBLIC 'DATA'
_DATA	ENDS
;	COMDAT ??_GCBitmap@@UAEPAXI@Z
_TEXT	SEGMENT PARA USE32 PUBLIC 'CODE'
_TEXT	ENDS
;	COMDAT ??1CGdiObject@@UAE@XZ
_TEXT	SEGMENT PARA USE32 PUBLIC 'CODE'
_TEXT	ENDS
;	COMDAT ??_7CGdiObject@@6B@
CONST	SEGMENT DWORD USE32 PUBLIC 'CONST'
CONST	ENDS
;	COMDAT ??_R4CGdiObject@@6B@
rdata$r	SEGMENT DWORD USE32 PUBLIC 'CONST'
rdata$r	ENDS
;	COMDAT ??_R3CGdiObject@@8
rdata$r	SEGMENT DWORD USE32 PUBLIC 'CONST'
rdata$r	ENDS
;	COMDAT ??_R2CGdiObject@@8
rdata$r	SEGMENT DWORD USE32 PUBLIC 'CONST'
rdata$r	ENDS
;	COMDAT ??_GCGdiObject@@UAEPAXI@Z
_TEXT	SEGMENT PARA USE32 PUBLIC 'CODE'
_TEXT	ENDS
;	COMDAT ??1CObject@@UAE@XZ
_TEXT	SEGMENT PARA USE32 PUBLIC 'CODE'
_TEXT	ENDS
;	COMDAT ??0CBitmap@@QAE@XZ
_TEXT	SEGMENT PARA USE32 PUBLIC 'CODE'
_TEXT	ENDS
;	COMDAT ??0CGdiObject@@QAE@XZ
_TEXT	SEGMENT PARA USE32 PUBLIC 'CODE'
_TEXT	ENDS
;	COMDAT ??0CObject@@IAE@XZ
_TEXT	SEGMENT PARA USE32 PUBLIC 'CODE'
_TEXT	ENDS
;	COMDAT ?CreateCompatibleDC@CDC@@QAEHPAV1@@Z
_TEXT	SEGMENT PARA USE32 PUBLIC 'CODE'
_TEXT	ENDS
;	COMDAT ?DrawTextA@CDC@@QAEHABV?$CStringT@DV?$StrTraitMFC_DLL@DV?$ChTraitsCRT@D@ATL@@@@@ATL@@PAUtagRECT@@I@Z
_TEXT	SEGMENT PARA USE32 PUBLIC 'CODE'
_TEXT	ENDS
;	COMDAT ?DrawEdge@CDC@@QAEHPAUtagRECT@@II@Z
_TEXT	SEGMENT PARA USE32 PUBLIC 'CODE'
_TEXT	ENDS
;	COMDAT ?CreateFontA@CFont@@QAEHHHHHHEEEEEEEEPBD@Z
_TEXT	SEGMENT PARA USE32 PUBLIC 'CODE'
_TEXT	ENDS
;	COMDAT ??1CFont@@UAE@XZ
_TEXT	SEGMENT PARA USE32 PUBLIC 'CODE'
_TEXT	ENDS
;	COMDAT ??_7CFont@@6B@
CONST	SEGMENT DWORD USE32 PUBLIC 'CONST'
CONST	ENDS
;	COMDAT ??_R4CFont@@6B@
rdata$r	SEGMENT DWORD USE32 PUBLIC 'CONST'
rdata$r	ENDS
;	COMDAT ??_R0?AVCFont@@@8
_DATA	SEGMENT DWORD USE32 PUBLIC 'DATA'
_DATA	ENDS
;	COMDAT ??_R3CFont@@8
rdata$r	SEGMENT DWORD USE32 PUBLIC 'CONST'
rdata$r	ENDS
;	COMDAT ??_R2CFont@@8
rdata$r	SEGMENT DWORD USE32 PUBLIC 'CONST'
rdata$r	ENDS
;	COMDAT ??_R1A@?0A@A@CFont@@8
rdata$r	SEGMENT DWORD USE32 PUBLIC 'CONST'
rdata$r	ENDS
;	COMDAT ??_GCFont@@UAEPAXI@Z
_TEXT	SEGMENT PARA USE32 PUBLIC 'CODE'
_TEXT	ENDS
;	COMDAT ??0CFont@@QAE@XZ
_TEXT	SEGMENT PARA USE32 PUBLIC 'CODE'
_TEXT	ENDS
;	COMDAT ?SetState@CButton@@QAEXH@Z
_TEXT	SEGMENT PARA USE32 PUBLIC 'CODE'
_TEXT	ENDS
;	COMDAT ?GetState@CButton@@QBEIXZ
_TEXT	SEGMENT PARA USE32 PUBLIC 'CODE'
_TEXT	ENDS
;	COMDAT ?GetButtonStyle@CButton@@QBEIXZ
_TEXT	SEGMENT PARA USE32 PUBLIC 'CODE'
_TEXT	ENDS
;	COMDAT ?_messageEntries@CxSkinButton@@0QBUAFX_MSGMAP_ENTRY@@B
CONST	SEGMENT DWORD USE32 PUBLIC 'CONST'
CONST	ENDS
;	COMDAT ?messageMap@CxSkinButton@@1UAFX_MSGMAP@@B
CONST	SEGMENT DWORD USE32 PUBLIC 'CONST'
CONST	ENDS
;	COMDAT ??3CObject@@SGXPAX@Z
_TEXT	SEGMENT PARA USE32 PUBLIC 'CODE'
_TEXT	ENDS
;	COMDAT ??2CObject@@SGPAXI@Z
_TEXT	SEGMENT PARA USE32 PUBLIC 'CODE'
_TEXT	ENDS
;	COMDAT ??0CPoint@@QAE@XZ
_TEXT	SEGMENT PARA USE32 PUBLIC 'CODE'
_TEXT	ENDS
;	COMDAT ?GetDefaultManager@?$StrTraitMFC_DLL@DV?$ChTraitsCRT@D@ATL@@@@SAPAUIAtlStringMgr@ATL@@XZ
_TEXT	SEGMENT PARA USE32 PUBLIC 'CODE'
_TEXT	ENDS
;	COMDAT ??_7CxSkinButton@@6B@
CONST	SEGMENT DWORD USE32 PUBLIC 'CONST'
CONST	ENDS
;	COMDAT ??0CButton@@QAE@XZ
_TEXT	SEGMENT PARA USE32 PUBLIC 'CODE'
_TEXT	ENDS
;	COMDAT ??_7CButton@@6B@
CONST	SEGMENT DWORD USE32 PUBLIC 'CONST'
CONST	ENDS
;	COMDAT ??_R4CButton@@6B@
rdata$r	SEGMENT DWORD USE32 PUBLIC 'CONST'
rdata$r	ENDS
;	COMDAT ??_R3CButton@@8
rdata$r	SEGMENT DWORD USE32 PUBLIC 'CONST'
rdata$r	ENDS
;	COMDAT ??_R2CButton@@8
rdata$r	SEGMENT DWORD USE32 PUBLIC 'CONST'
rdata$r	ENDS
;	COMDAT ??_GCButton@@UAEPAXI@Z
_TEXT	SEGMENT PARA USE32 PUBLIC 'CODE'
_TEXT	ENDS
;	COMDAT ??0CRect@@QAE@HHHH@Z
_TEXT	SEGMENT PARA USE32 PUBLIC 'CODE'
_TEXT	ENDS
;	COMDAT ?GetDC@CWnd@@QAEPAVCDC@@XZ
_TEXT	SEGMENT PARA USE32 PUBLIC 'CODE'
_TEXT	ENDS
;	COMDAT ??_7IData@@6B@
CONST	SEGMENT DWORD USE32 PUBLIC 'CONST'
CONST	ENDS
sxdata	SEGMENT DWORD USE32 'SXDATA'
sxdata	ENDS
FLAT	GROUP _DATA, CONST, _BSS
	ASSUME	CS: FLAT, DS: FLAT, SS: FLAT
endif

INCLUDELIB MSVCRT
INCLUDELIB OLDNAMES

PUBLIC	?OnEraseBkgnd@CxSkinButton@@QAEHPAVCDC@@@Z	; CxSkinButton::OnEraseBkgnd
PUBLIC	?OnLButtonDown@CxSkinButton@@QAEXIVCPoint@@@Z	; CxSkinButton::OnLButtonDown
PUBLIC	?OnRButtonDown@CxSkinButton@@QAEXIVCPoint@@@Z	; CxSkinButton::OnRButtonDown
PUBLIC	?OnLButtonUp@CxSkinButton@@QAEXIVCPoint@@@Z	; CxSkinButton::OnLButtonUp
PUBLIC	?OnRButtonUp@CxSkinButton@@QAEXIVCPoint@@@Z	; CxSkinButton::OnRButtonUp
PUBLIC	?OnMouseMove@CxSkinButton@@QAEXIVCPoint@@@Z	; CxSkinButton::OnMouseMove
PUBLIC	?OnLButtonDblClk@CxSkinButton@@QAEXIVCPoint@@@Z	; CxSkinButton::OnLButtonDblClk
PUBLIC	?OnKillFocus@CxSkinButton@@QAEXPAVCWnd@@@Z	; CxSkinButton::OnKillFocus
PUBLIC	?OnKeyDown@CxSkinButton@@QAEXIII@Z		; CxSkinButton::OnKeyDown
PUBLIC	?OnMouseLeave@CxSkinButton@@QAEJIJ@Z		; CxSkinButton::OnMouseLeave
PUBLIC	?OnMouseHover@CxSkinButton@@QAEJIJ@Z		; CxSkinButton::OnMouseHover
PUBLIC	?OnRadioInfo@CxSkinButton@@QAEJIJ@Z		; CxSkinButton::OnRadioInfo
PUBLIC	?OnBMSetCheck@CxSkinButton@@QAEJIJ@Z		; CxSkinButton::OnBMSetCheck
PUBLIC	?OnBMGetCheck@CxSkinButton@@QAEJIJ@Z		; CxSkinButton::OnBMGetCheck
PUBLIC	?_messageEntries@CxSkinButton@@0QBUAFX_MSGMAP_ENTRY@@B ; CxSkinButton::_messageEntries
PUBLIC	?messageMap@CxSkinButton@@1UAFX_MSGMAP@@B	; CxSkinButton::messageMap
EXTRN	?GetThisMessageMap@CWnd@@KGPBUAFX_MSGMAP@@XZ:NEAR ; CWnd::GetThisMessageMap
CONST	SEGMENT
$SG197636 DB	'DISPLAY', 00H
$SG197746 DB	00H
CONST	ENDS
;	COMDAT ?_messageEntries@CxSkinButton@@0QBUAFX_MSGMAP_ENTRY@@B
CONST	SEGMENT
?_messageEntries@CxSkinButton@@0QBUAFX_MSGMAP_ENTRY@@B DD 014H ; CxSkinButton::_messageEntries
	DD	00H
	DD	00H
	DD	00H
	DD	01H
	DD	FLAT:?OnEraseBkgnd@CxSkinButton@@QAEHPAVCDC@@@Z
	DD	0201H
	DD	00H
	DD	00H
	DD	00H
	DD	032H
	DD	FLAT:?OnLButtonDown@CxSkinButton@@QAEXIVCPoint@@@Z
	DD	0204H
	DD	00H
	DD	00H
	DD	00H
	DD	032H
	DD	FLAT:?OnRButtonDown@CxSkinButton@@QAEXIVCPoint@@@Z
	DD	0202H
	DD	00H
	DD	00H
	DD	00H
	DD	032H
	DD	FLAT:?OnLButtonUp@CxSkinButton@@QAEXIVCPoint@@@Z
	DD	0205H
	DD	00H
	DD	00H
	DD	00H
	DD	032H
	DD	FLAT:?OnRButtonUp@CxSkinButton@@QAEXIVCPoint@@@Z
	DD	0200H
	DD	00H
	DD	00H
	DD	00H
	DD	032H
	DD	FLAT:?OnMouseMove@CxSkinButton@@QAEXIVCPoint@@@Z
	DD	0203H
	DD	00H
	DD	00H
	DD	00H
	DD	032H
	DD	FLAT:?OnLButtonDblClk@CxSkinButton@@QAEXIVCPoint@@@Z
	DD	08H
	DD	00H
	DD	00H
	DD	00H
	DD	020H
	DD	FLAT:?OnKillFocus@CxSkinButton@@QAEXPAVCWnd@@@Z
	DD	0100H
	DD	00H
	DD	00H
	DD	00H
	DD	015H
	DD	FLAT:?OnKeyDown@CxSkinButton@@QAEXIII@Z
	DD	02a3H
	DD	00H
	DD	00H
	DD	00H
	DD	0eH
	DD	FLAT:?OnMouseLeave@CxSkinButton@@QAEJIJ@Z
	DD	02a1H
	DD	00H
	DD	00H
	DD	00H
	DD	0eH
	DD	FLAT:?OnMouseHover@CxSkinButton@@QAEJIJ@Z
	DD	0500H
	DD	00H
	DD	00H
	DD	00H
	DD	0eH
	DD	FLAT:?OnRadioInfo@CxSkinButton@@QAEJIJ@Z
	DD	0f1H
	DD	00H
	DD	00H
	DD	00H
	DD	0eH
	DD	FLAT:?OnBMSetCheck@CxSkinButton@@QAEJIJ@Z
	DD	0f0H
	DD	00H
	DD	00H
	DD	00H
	DD	0eH
	DD	FLAT:?OnBMGetCheck@CxSkinButton@@QAEJIJ@Z
	DD	00H
	DD	00H
	DD	00H
	DD	00H
	DD	00H
	DD	00H
CONST	ENDS
;	COMDAT ?messageMap@CxSkinButton@@1UAFX_MSGMAP@@B
CONST	SEGMENT
?messageMap@CxSkinButton@@1UAFX_MSGMAP@@B DD FLAT:?GetThisMessageMap@CWnd@@KGPBUAFX_MSGMAP@@XZ ; CxSkinButton::messageMap
	DD	FLAT:?_messageEntries@CxSkinButton@@0QBUAFX_MSGMAP_ENTRY@@B
CONST	ENDS
CONST	SEGMENT
	ORG $+3
$SG197852 DB	0b9H, 0dbH, 0bfH, 0b4H, 0cfH, 0e0H, 0b9H, 0d8H, 'MV', 00H
	ORG $+1
$SG197866 DB	0cbH, 0ceH, 0ccH, 0e5H, 00H
$SG198098 DB	00H
$SG198117 DB	00H
$SG198332 DB	00H
$SG198333 DB	'tooltips_class32', 00H
CONST	ENDS
PUBLIC	?GetDC@CWnd@@QAEPAVCDC@@XZ			; CWnd::GetDC
PUBLIC	??0CRect@@QAE@HHHH@Z				; CRect::CRect
PUBLIC	?CreateRegionFromDib@CxSkinButton@@QAEPAUHRGN__@@PAVCDibBitmap@@K@Z ; CxSkinButton::CreateRegionFromDib
EXTRN	??3@YAXPAX@Z:NEAR				; operator delete
EXTRN	?CreateBitmap@CDibBitmap@@QAEPAUHBITMAP__@@PAVCDC@@@Z:NEAR ; CDibBitmap::CreateBitmap
EXTRN	??_U@YAPAXI@Z:NEAR				; operator new[]
EXTRN	??_V@YAXPAX@Z:NEAR				; operator delete[]
EXTRN	__imp__ReleaseDC@8:NEAR
EXTRN	__imp__CreateICA@16:NEAR
EXTRN	__imp__DeleteDC@4:NEAR
EXTRN	__imp__ExtCreateRegion@12:NEAR
EXTRN	__imp__GetDIBits@28:NEAR
EXTRN	__imp__GetObjectA@12:NEAR
EXTRN	_memcpy:NEAR
EXTRN	_memset:NEAR
; Function compile flags: /Odt
; File d:\boxgit\playbox\playbox\dev\prj\playbox\src\gui\commoncontrol\xskinbutton.cpp
_TEXT	SEGMENT
tv245 = -256						; size = 4
_this$ = -252						; size = 4
$T198941 = -248						; size = 4
$T198940 = -244						; size = 4
$T198939 = -240						; size = 4
$T198938 = -236						; size = 4
$T198937 = -232						; size = 4
$T198936 = -228						; size = 16
$T198935 = -212						; size = 4
$T198934 = -208						; size = 4
$T198933 = -204						; size = 16
$T198932 = -188						; size = 4
$T198931 = -184						; size = 4
$T198930 = -180						; size = 4
$T198929 = -176						; size = 4
$T198928 = -172						; size = 4
_i$197732 = -168					; size = 4
_pRgnDataNew$197722 = -164				; size = 4
_pRgnDataNew$197708 = -160				; size = 4
_k$197688 = -156					; size = 4
_old_bi$197642 = -152					; size = 4
_pClr$ = -148						; size = 4
_j$ = -144						; size = 4
_RGNDATAHEADER_SIZE$ = -140				; size = 4
_bi$ = -136						; size = 4
_bm$ = -132						; size = 24
_dwRectsCount$ = -108					; size = 4
_ismask$ = -101						; size = 1
_pRects$ = -100						; size = 4
_hRgn$ = -96						; size = 4
_clr_tbl$ = -92						; size = 4
_pDC$ = -88						; size = 4
_bmp$ = -84						; size = 24
_tmp$ = -57						; size = 1
_m_dwAlignedWidthBytes$ = -56				; size = 4
_pBits$ = -52						; size = 4
_ADD_RECTS_COUNT$ = -48					; size = 4
_Bpp$ = -41						; size = 1
_i$ = -40						; size = 4
_wasfirst$ = -33					; size = 1
_dc$ = -32						; size = 4
_hBmp$ = -28						; size = 4
_res$ = -24						; size = 4
_dwLineBackLen$ = -20					; size = 4
_pRgnData$ = -16					; size = 4
_bih$ = -12						; size = 4
_pColor$ = -8						; size = 4
_first$ = -4						; size = 4
_dib$ = 8						; size = 4
_color$ = 12						; size = 4
?CreateRegionFromDib@CxSkinButton@@QAEPAUHRGN__@@PAVCDibBitmap@@K@Z PROC NEAR ; CxSkinButton::CreateRegionFromDib
; _this$ = ecx

; 36   : {

  00000	55		 push	 ebp
  00001	8b ec		 mov	 ebp, esp
  00003	81 ec 00 01 00
	00		 sub	 esp, 256		; 00000100H
  00009	89 8d 04 ff ff
	ff		 mov	 DWORD PTR _this$[ebp], ecx

; 37   : 	CDC *pDC = GetDC();

  0000f	8b 8d 04 ff ff
	ff		 mov	 ecx, DWORD PTR _this$[ebp]
  00015	e8 00 00 00 00	 call	 ?GetDC@CWnd@@QAEPAVCDC@@XZ ; CWnd::GetDC
  0001a	89 45 a8	 mov	 DWORD PTR _pDC$[ebp], eax

; 38   : 	HBITMAP hBmp = dib->CreateBitmap(pDC);

  0001d	8b 45 a8	 mov	 eax, DWORD PTR _pDC$[ebp]
  00020	50		 push	 eax
  00021	8b 4d 08	 mov	 ecx, DWORD PTR _dib$[ebp]
  00024	e8 00 00 00 00	 call	 ?CreateBitmap@CDibBitmap@@QAEPAUHBITMAP__@@PAVCDC@@@Z ; CDibBitmap::CreateBitmap
  00029	89 45 e4	 mov	 DWORD PTR _hBmp$[ebp], eax

; 39   : 	::ReleaseDC(m_hWnd, pDC->m_hDC);

  0002c	8b 4d a8	 mov	 ecx, DWORD PTR _pDC$[ebp]
  0002f	8b 51 04	 mov	 edx, DWORD PTR [ecx+4]
  00032	52		 push	 edx
  00033	8b 85 04 ff ff
	ff		 mov	 eax, DWORD PTR _this$[ebp]
  00039	8b 48 20	 mov	 ecx, DWORD PTR [eax+32]
  0003c	51		 push	 ecx
  0003d	ff 15 00 00 00
	00		 call	 DWORD PTR __imp__ReleaseDC@8

; 40   : 	// get image properties
; 41   : 	BITMAP bmp = { 0 };

  00043	c7 45 ac 00 00
	00 00		 mov	 DWORD PTR _bmp$[ebp], 0
  0004a	33 d2		 xor	 edx, edx
  0004c	89 55 b0	 mov	 DWORD PTR _bmp$[ebp+4], edx
  0004f	89 55 b4	 mov	 DWORD PTR _bmp$[ebp+8], edx
  00052	89 55 b8	 mov	 DWORD PTR _bmp$[ebp+12], edx
  00055	89 55 bc	 mov	 DWORD PTR _bmp$[ebp+16], edx
  00058	89 55 c0	 mov	 DWORD PTR _bmp$[ebp+20], edx

; 42   : 	GetObject( hBmp, sizeof(BITMAP), &bmp );

  0005b	8d 45 ac	 lea	 eax, DWORD PTR _bmp$[ebp]
  0005e	50		 push	 eax
  0005f	6a 18		 push	 24			; 00000018H
  00061	8b 4d e4	 mov	 ecx, DWORD PTR _hBmp$[ebp]
  00064	51		 push	 ecx
  00065	ff 15 00 00 00
	00		 call	 DWORD PTR __imp__GetObjectA@12

; 43   : 	// allocate memory for extended image information
; 44   : 	LPBITMAPINFO bi = (LPBITMAPINFO) new BYTE[ sizeof(BITMAPINFO) + 8 ];

  0006b	6a 34		 push	 52			; 00000034H
  0006d	e8 00 00 00 00	 call	 ??_U@YAPAXI@Z		; operator new[]
  00072	83 c4 04	 add	 esp, 4
  00075	89 85 54 ff ff
	ff		 mov	 DWORD PTR $T198928[ebp], eax
  0007b	8b 95 54 ff ff
	ff		 mov	 edx, DWORD PTR $T198928[ebp]
  00081	89 95 78 ff ff
	ff		 mov	 DWORD PTR _bi$[ebp], edx

; 45   : 	memset( bi, 0, sizeof(BITMAPINFO) + 8 );

  00087	6a 34		 push	 52			; 00000034H
  00089	6a 00		 push	 0
  0008b	8b 85 78 ff ff
	ff		 mov	 eax, DWORD PTR _bi$[ebp]
  00091	50		 push	 eax
  00092	e8 00 00 00 00	 call	 _memset
  00097	83 c4 0c	 add	 esp, 12			; 0000000cH

; 46   : 	bi->bmiHeader.biSize = sizeof(BITMAPINFOHEADER);

  0009a	8b 8d 78 ff ff
	ff		 mov	 ecx, DWORD PTR _bi$[ebp]
  000a0	c7 01 28 00 00
	00		 mov	 DWORD PTR [ecx], 40	; 00000028H

; 47   : 	// set window size
; 48   : 	//m_dwWidth	= bmp.bmWidth;		// bitmap width
; 49   : 	//m_dwHeight	= bmp.bmHeight;		// bitmap height
; 50   : 	// create temporary dc
; 51   : 	HDC dc = CreateIC( "DISPLAY",NULL,NULL,NULL );

  000a6	6a 00		 push	 0
  000a8	6a 00		 push	 0
  000aa	6a 00		 push	 0
  000ac	68 00 00 00 00	 push	 OFFSET FLAT:$SG197636
  000b1	ff 15 00 00 00
	00		 call	 DWORD PTR __imp__CreateICA@16
  000b7	89 45 e0	 mov	 DWORD PTR _dc$[ebp], eax

; 52   : 	// get extended information about image (length, compression, length of color table if exist, ...)
; 53   : 	DWORD res = GetDIBits( dc, hBmp, 0, bmp.bmHeight, 0, bi, DIB_RGB_COLORS );

  000ba	6a 00		 push	 0
  000bc	8b 95 78 ff ff
	ff		 mov	 edx, DWORD PTR _bi$[ebp]
  000c2	52		 push	 edx
  000c3	6a 00		 push	 0
  000c5	8b 45 b4	 mov	 eax, DWORD PTR _bmp$[ebp+8]
  000c8	50		 push	 eax
  000c9	6a 00		 push	 0
  000cb	8b 4d e4	 mov	 ecx, DWORD PTR _hBmp$[ebp]
  000ce	51		 push	 ecx
  000cf	8b 55 e0	 mov	 edx, DWORD PTR _dc$[ebp]
  000d2	52		 push	 edx
  000d3	ff 15 00 00 00
	00		 call	 DWORD PTR __imp__GetDIBits@28
  000d9	89 45 e8	 mov	 DWORD PTR _res$[ebp], eax

; 54   : 	// allocate memory for image data (colors)
; 55   : 	LPBYTE pBits = new BYTE[ bi->bmiHeader.biSizeImage + 4 ];

  000dc	8b 85 78 ff ff
	ff		 mov	 eax, DWORD PTR _bi$[ebp]
  000e2	8b 48 14	 mov	 ecx, DWORD PTR [eax+20]
  000e5	83 c1 04	 add	 ecx, 4
  000e8	51		 push	 ecx
  000e9	e8 00 00 00 00	 call	 ??_U@YAPAXI@Z		; operator new[]
  000ee	83 c4 04	 add	 esp, 4
  000f1	89 85 50 ff ff
	ff		 mov	 DWORD PTR $T198929[ebp], eax
  000f7	8b 95 50 ff ff
	ff		 mov	 edx, DWORD PTR $T198929[ebp]
  000fd	89 55 cc	 mov	 DWORD PTR _pBits$[ebp], edx

; 56   : 	// allocate memory for color table
; 57   : 	if ( bi->bmiHeader.biBitCount == 8 )

  00100	8b 85 78 ff ff
	ff		 mov	 eax, DWORD PTR _bi$[ebp]
  00106	0f b7 48 0e	 movzx	 ecx, WORD PTR [eax+14]
  0010a	83 f9 08	 cmp	 ecx, 8
  0010d	75 5e		 jne	 SHORT $L197641

; 58   : 	{
; 59   : 		// actually color table should be appended to this header(BITMAPINFO),
; 60   : 		// so we have to reallocate and copy it
; 61   : 		LPBITMAPINFO old_bi = bi;

  0010f	8b 95 78 ff ff
	ff		 mov	 edx, DWORD PTR _bi$[ebp]
  00115	89 95 68 ff ff
	ff		 mov	 DWORD PTR _old_bi$197642[ebp], edx

; 62   : 		// 255 - because there is one in BITMAPINFOHEADER
; 63   : 		bi = (LPBITMAPINFO)new char[ sizeof(BITMAPINFO) + 255 * sizeof(RGBQUAD) ];

  0011b	68 28 04 00 00	 push	 1064			; 00000428H
  00120	e8 00 00 00 00	 call	 ??_U@YAPAXI@Z		; operator new[]
  00125	83 c4 04	 add	 esp, 4
  00128	89 85 4c ff ff
	ff		 mov	 DWORD PTR $T198930[ebp], eax
  0012e	8b 85 4c ff ff
	ff		 mov	 eax, DWORD PTR $T198930[ebp]
  00134	89 85 78 ff ff
	ff		 mov	 DWORD PTR _bi$[ebp], eax

; 64   : 		memcpy( bi, old_bi, sizeof(BITMAPINFO) );

  0013a	6a 2c		 push	 44			; 0000002cH
  0013c	8b 8d 68 ff ff
	ff		 mov	 ecx, DWORD PTR _old_bi$197642[ebp]
  00142	51		 push	 ecx
  00143	8b 95 78 ff ff
	ff		 mov	 edx, DWORD PTR _bi$[ebp]
  00149	52		 push	 edx
  0014a	e8 00 00 00 00	 call	 _memcpy
  0014f	83 c4 0c	 add	 esp, 12			; 0000000cH

; 65   : 		// release old header
; 66   : 		delete old_bi;

  00152	8b 85 68 ff ff
	ff		 mov	 eax, DWORD PTR _old_bi$197642[ebp]
  00158	89 85 48 ff ff
	ff		 mov	 DWORD PTR $T198931[ebp], eax
  0015e	8b 8d 48 ff ff
	ff		 mov	 ecx, DWORD PTR $T198931[ebp]
  00164	51		 push	 ecx
  00165	e8 00 00 00 00	 call	 ??3@YAXPAX@Z		; operator delete
  0016a	83 c4 04	 add	 esp, 4
$L197641:

; 67   : 	}
; 68   : 	// get bitmap info header
; 69   : 	BITMAPINFOHEADER& bih = bi->bmiHeader;

  0016d	8b 95 78 ff ff
	ff		 mov	 edx, DWORD PTR _bi$[ebp]
  00173	89 55 f4	 mov	 DWORD PTR _bih$[ebp], edx

; 70   : 	// get color table (for 256 color mode contains 256 entries of RGBQUAD(=DWORD))
; 71   : 	LPDWORD clr_tbl = (LPDWORD)&bi->bmiColors;

  00176	8b 85 78 ff ff
	ff		 mov	 eax, DWORD PTR _bi$[ebp]
  0017c	83 c0 28	 add	 eax, 40			; 00000028H
  0017f	89 45 a4	 mov	 DWORD PTR _clr_tbl$[ebp], eax

; 72   : 	// fill bits buffer
; 73   : 	res = GetDIBits( dc, hBmp, 0, bih.biHeight, pBits, bi, DIB_RGB_COLORS );

  00182	6a 00		 push	 0
  00184	8b 8d 78 ff ff
	ff		 mov	 ecx, DWORD PTR _bi$[ebp]
  0018a	51		 push	 ecx
  0018b	8b 55 cc	 mov	 edx, DWORD PTR _pBits$[ebp]
  0018e	52		 push	 edx
  0018f	8b 45 f4	 mov	 eax, DWORD PTR _bih$[ebp]
  00192	8b 48 08	 mov	 ecx, DWORD PTR [eax+8]
  00195	51		 push	 ecx
  00196	6a 00		 push	 0
  00198	8b 55 e4	 mov	 edx, DWORD PTR _hBmp$[ebp]
  0019b	52		 push	 edx
  0019c	8b 45 e0	 mov	 eax, DWORD PTR _dc$[ebp]
  0019f	50		 push	 eax
  001a0	ff 15 00 00 00
	00		 call	 DWORD PTR __imp__GetDIBits@28
  001a6	89 45 e8	 mov	 DWORD PTR _res$[ebp], eax

; 74   : 	DeleteDC( dc );

  001a9	8b 4d e0	 mov	 ecx, DWORD PTR _dc$[ebp]
  001ac	51		 push	 ecx
  001ad	ff 15 00 00 00
	00		 call	 DWORD PTR __imp__DeleteDC@4

; 75   : 
; 76   : 	BITMAP bm;
; 77   : 	GetObject( hBmp, sizeof(BITMAP), &bm );

  001b3	8d 95 7c ff ff
	ff		 lea	 edx, DWORD PTR _bm$[ebp]
  001b9	52		 push	 edx
  001ba	6a 18		 push	 24			; 00000018H
  001bc	8b 45 e4	 mov	 eax, DWORD PTR _hBmp$[ebp]
  001bf	50		 push	 eax
  001c0	ff 15 00 00 00
	00		 call	 DWORD PTR __imp__GetObjectA@12

; 78   : 	// shift bits and byte per pixel (for comparing colors)
; 79   : 	LPBYTE pClr = (LPBYTE)&color;

  001c6	8d 4d 0c	 lea	 ecx, DWORD PTR _color$[ebp]
  001c9	89 8d 6c ff ff
	ff		 mov	 DWORD PTR _pClr$[ebp], ecx

; 80   : 	// swap red and blue components
; 81   : 	BYTE tmp = pClr[0]; pClr[0] = pClr[2]; pClr[2] = tmp;

  001cf	8b 95 6c ff ff
	ff		 mov	 edx, DWORD PTR _pClr$[ebp]
  001d5	8a 02		 mov	 al, BYTE PTR [edx]
  001d7	88 45 c7	 mov	 BYTE PTR _tmp$[ebp], al
  001da	8b 8d 6c ff ff
	ff		 mov	 ecx, DWORD PTR _pClr$[ebp]
  001e0	8b 95 6c ff ff
	ff		 mov	 edx, DWORD PTR _pClr$[ebp]
  001e6	8a 42 02	 mov	 al, BYTE PTR [edx+2]
  001e9	88 01		 mov	 BYTE PTR [ecx], al
  001eb	8b 8d 6c ff ff
	ff		 mov	 ecx, DWORD PTR _pClr$[ebp]
  001f1	8a 55 c7	 mov	 dl, BYTE PTR _tmp$[ebp]
  001f4	88 51 02	 mov	 BYTE PTR [ecx+2], dl

; 82   : 	// convert color if curent DC is 16-bit (5:6:5) or 15-bit (5:5:5)
; 83   : 	if ( bih.biBitCount == 16 )

  001f7	8b 45 f4	 mov	 eax, DWORD PTR _bih$[ebp]
  001fa	0f b7 48 0e	 movzx	 ecx, WORD PTR [eax+14]
  001fe	83 f9 10	 cmp	 ecx, 16			; 00000010H
  00201	75 3e		 jne	 SHORT $L197658

; 84   : 	{
; 85   : 		// for 16 bit
; 86   : 		color = ((DWORD)(pClr[0] & 0xf8) >> 3) |
; 87   : 				((DWORD)(pClr[1] & 0xfc) << 3) |
; 88   : 				((DWORD)(pClr[2] & 0xf8) << 8);

  00203	8b 95 6c ff ff
	ff		 mov	 edx, DWORD PTR _pClr$[ebp]
  00209	0f b6 02	 movzx	 eax, BYTE PTR [edx]
  0020c	25 f8 00 00 00	 and	 eax, 248		; 000000f8H
  00211	c1 e8 03	 shr	 eax, 3
  00214	8b 8d 6c ff ff
	ff		 mov	 ecx, DWORD PTR _pClr$[ebp]
  0021a	0f b6 51 01	 movzx	 edx, BYTE PTR [ecx+1]
  0021e	81 e2 fc 00 00
	00		 and	 edx, 252		; 000000fcH
  00224	c1 e2 03	 shl	 edx, 3
  00227	0b c2		 or	 eax, edx
  00229	8b 8d 6c ff ff
	ff		 mov	 ecx, DWORD PTR _pClr$[ebp]
  0022f	0f b6 51 02	 movzx	 edx, BYTE PTR [ecx+2]
  00233	81 e2 f8 00 00
	00		 and	 edx, 248		; 000000f8H
  00239	c1 e2 08	 shl	 edx, 8
  0023c	0b c2		 or	 eax, edx
  0023e	89 45 0c	 mov	 DWORD PTR _color$[ebp], eax
$L197658:

; 89   : 		// for 15 bit
; 90   : //		color = ((DWORD)(pClr[0] & 0xf8) >> 3) |
; 91   : //				((DWORD)(pClr[1] & 0xf8) << 2) |
; 92   : //				((DWORD)(pClr[2] & 0xf8) << 7);
; 93   : 	}
; 94   : 
; 95   : 	const DWORD RGNDATAHEADER_SIZE	= sizeof(RGNDATAHEADER);

  00241	c7 85 74 ff ff
	ff 20 00 00 00	 mov	 DWORD PTR _RGNDATAHEADER_SIZE$[ebp], 32 ; 00000020H

; 96   : 	const DWORD ADD_RECTS_COUNT		= 40;			// number of rects to be appended

  0024b	c7 45 d0 28 00
	00 00		 mov	 DWORD PTR _ADD_RECTS_COUNT$[ebp], 40 ; 00000028H

; 97   : 													// to region data buffer
; 98   : 
; 99   : 	// BitPerPixel
; 100  : 	BYTE	Bpp = bih.biBitCount >> 3;				// bytes per pixel

  00252	8b 45 f4	 mov	 eax, DWORD PTR _bih$[ebp]
  00255	0f b7 48 0e	 movzx	 ecx, WORD PTR [eax+14]
  00259	c1 f9 03	 sar	 ecx, 3
  0025c	88 4d d7	 mov	 BYTE PTR _Bpp$[ebp], cl

; 101  : 	// bytes per line in pBits is DWORD aligned and bmp.bmWidthBytes is WORD aligned
; 102  : 	// so, both of them not
; 103  : 	DWORD m_dwAlignedWidthBytes = (bmp.bmWidthBytes & ~0x3) + (!!(bmp.bmWidthBytes & 0x3) << 2);

  0025f	8b 55 b8	 mov	 edx, DWORD PTR _bmp$[ebp+12]
  00262	83 e2 fc	 and	 edx, -4			; fffffffcH
  00265	8b 45 b8	 mov	 eax, DWORD PTR _bmp$[ebp+12]
  00268	83 e0 03	 and	 eax, 3
  0026b	f7 d8		 neg	 eax
  0026d	1b c0		 sbb	 eax, eax
  0026f	f7 d8		 neg	 eax
  00271	8d 0c 82	 lea	 ecx, DWORD PTR [edx+eax*4]
  00274	89 4d c8	 mov	 DWORD PTR _m_dwAlignedWidthBytes$[ebp], ecx

; 104  : 	// DIB image is flipped that's why we scan it from the last line
; 105  : 	LPBYTE	pColor = pBits + (bih.biHeight - 1) * m_dwAlignedWidthBytes;

  00277	8b 55 f4	 mov	 edx, DWORD PTR _bih$[ebp]
  0027a	8b 42 08	 mov	 eax, DWORD PTR [edx+8]
  0027d	83 e8 01	 sub	 eax, 1
  00280	0f af 45 c8	 imul	 eax, DWORD PTR _m_dwAlignedWidthBytes$[ebp]
  00284	03 45 cc	 add	 eax, DWORD PTR _pBits$[ebp]
  00287	89 45 f8	 mov	 DWORD PTR _pColor$[ebp], eax

; 106  : 	DWORD	dwLineBackLen = m_dwAlignedWidthBytes + bih.biWidth * Bpp;	// offset of previous scan line

  0028a	0f b6 4d d7	 movzx	 ecx, BYTE PTR _Bpp$[ebp]
  0028e	8b 55 f4	 mov	 edx, DWORD PTR _bih$[ebp]
  00291	0f af 4a 04	 imul	 ecx, DWORD PTR [edx+4]
  00295	03 4d c8	 add	 ecx, DWORD PTR _m_dwAlignedWidthBytes$[ebp]
  00298	89 4d ec	 mov	 DWORD PTR _dwLineBackLen$[ebp], ecx

; 107  : 													// (after processing of current)
; 108  : 	DWORD	dwRectsCount = bih.biHeight;			// number of rects in allocated buffer

  0029b	8b 45 f4	 mov	 eax, DWORD PTR _bih$[ebp]
  0029e	8b 48 08	 mov	 ecx, DWORD PTR [eax+8]
  002a1	89 4d 94	 mov	 DWORD PTR _dwRectsCount$[ebp], ecx

; 109  : 	INT		i, j;									// current position in mask image
; 110  : 	INT		first = 0;								// left position of current scan line

  002a4	c7 45 fc 00 00
	00 00		 mov	 DWORD PTR _first$[ebp], 0

; 111  : 													// where mask was found
; 112  : 	bool	wasfirst = false;						// set when mask has been found in current scan line

  002ab	c6 45 df 00	 mov	 BYTE PTR _wasfirst$[ebp], 0

; 113  : 	bool	ismask;									// set when current color is mask color
; 114  : 
; 115  : 	// allocate memory for region data
; 116  : 	// region data here is set of regions that are rectangles with height 1 pixel (scan line)
; 117  : 	// that's why first allocation is <bm.biHeight> RECTs - number of scan lines in image
; 118  : 	RGNDATAHEADER* pRgnData = 
; 119  : 		(RGNDATAHEADER*)new BYTE[ RGNDATAHEADER_SIZE + dwRectsCount * sizeof(RECT) ];

  002af	8b 55 94	 mov	 edx, DWORD PTR _dwRectsCount$[ebp]
  002b2	c1 e2 04	 shl	 edx, 4
  002b5	83 c2 20	 add	 edx, 32			; 00000020H
  002b8	52		 push	 edx
  002b9	e8 00 00 00 00	 call	 ??_U@YAPAXI@Z		; operator new[]
  002be	83 c4 04	 add	 esp, 4
  002c1	89 85 44 ff ff
	ff		 mov	 DWORD PTR $T198932[ebp], eax
  002c7	8b 85 44 ff ff
	ff		 mov	 eax, DWORD PTR $T198932[ebp]
  002cd	89 45 f0	 mov	 DWORD PTR _pRgnData$[ebp], eax

; 120  : 	// get pointer to RECT table
; 121  : 	LPRECT pRects = (LPRECT)((LPBYTE)pRgnData + RGNDATAHEADER_SIZE);

  002d0	8b 4d f0	 mov	 ecx, DWORD PTR _pRgnData$[ebp]
  002d3	83 c1 20	 add	 ecx, 32			; 00000020H
  002d6	89 4d 9c	 mov	 DWORD PTR _pRects$[ebp], ecx

; 122  : 	// zero region data header memory (header  part only)
; 123  : 	memset( pRgnData, 0, RGNDATAHEADER_SIZE + dwRectsCount * sizeof(RECT) );

  002d9	8b 55 94	 mov	 edx, DWORD PTR _dwRectsCount$[ebp]
  002dc	c1 e2 04	 shl	 edx, 4
  002df	83 c2 20	 add	 edx, 32			; 00000020H
  002e2	52		 push	 edx
  002e3	6a 00		 push	 0
  002e5	8b 45 f0	 mov	 eax, DWORD PTR _pRgnData$[ebp]
  002e8	50		 push	 eax
  002e9	e8 00 00 00 00	 call	 _memset
  002ee	83 c4 0c	 add	 esp, 12			; 0000000cH

; 124  : 	// fill it by default
; 125  : 	pRgnData->dwSize	= RGNDATAHEADER_SIZE;

  002f1	8b 4d f0	 mov	 ecx, DWORD PTR _pRgnData$[ebp]
  002f4	c7 01 20 00 00
	00		 mov	 DWORD PTR [ecx], 32	; 00000020H

; 126  : 	pRgnData->iType		= RDH_RECTANGLES;

  002fa	8b 55 f0	 mov	 edx, DWORD PTR _pRgnData$[ebp]
  002fd	c7 42 04 01 00
	00 00		 mov	 DWORD PTR [edx+4], 1

; 127  : 
; 128  : 	for ( i = 0; i < bih.biHeight; i++ )

  00304	c7 45 d8 00 00
	00 00		 mov	 DWORD PTR _i$[ebp], 0
  0030b	eb 09		 jmp	 SHORT $L197684
$L197685:
  0030d	8b 45 d8	 mov	 eax, DWORD PTR _i$[ebp]
  00310	83 c0 01	 add	 eax, 1
  00313	89 45 d8	 mov	 DWORD PTR _i$[ebp], eax
$L197684:
  00316	8b 4d f4	 mov	 ecx, DWORD PTR _bih$[ebp]
  00319	8b 55 d8	 mov	 edx, DWORD PTR _i$[ebp]
  0031c	3b 51 08	 cmp	 edx, DWORD PTR [ecx+8]
  0031f	0f 8d eb 02 00
	00		 jge	 $L197686

; 129  : 	{
; 130  : 		if(i == 35)

  00325	83 7d d8 23	 cmp	 DWORD PTR _i$[ebp], 35	; 00000023H
  00329	75 0a		 jne	 SHORT $L197687

; 131  : 			int k = 0;

  0032b	c7 85 64 ff ff
	ff 00 00 00 00	 mov	 DWORD PTR _k$197688[ebp], 0
$L197687:

; 132  : 		for ( j = 0; j < bih.biWidth; j++ )

  00335	c7 85 70 ff ff
	ff 00 00 00 00	 mov	 DWORD PTR _j$[ebp], 0
  0033f	eb 0f		 jmp	 SHORT $L197689
$L197690:
  00341	8b 85 70 ff ff
	ff		 mov	 eax, DWORD PTR _j$[ebp]
  00347	83 c0 01	 add	 eax, 1
  0034a	89 85 70 ff ff
	ff		 mov	 DWORD PTR _j$[ebp], eax
$L197689:
  00350	8b 4d f4	 mov	 ecx, DWORD PTR _bih$[ebp]
  00353	8b 95 70 ff ff
	ff		 mov	 edx, DWORD PTR _j$[ebp]
  00359	3b 51 04	 cmp	 edx, DWORD PTR [ecx+4]
  0035c	0f 8d a5 01 00
	00		 jge	 $L197691

; 133  : 		{
; 134  : 			// get color
; 135  : 			switch ( bih.biBitCount )

  00362	8b 45 f4	 mov	 eax, DWORD PTR _bih$[ebp]
  00365	0f b7 48 0e	 movzx	 ecx, WORD PTR [eax+14]
  00369	89 8d 00 ff ff
	ff		 mov	 DWORD PTR tv245[ebp], ecx
  0036f	8b 95 00 ff ff
	ff		 mov	 edx, DWORD PTR tv245[ebp]
  00375	83 ea 08	 sub	 edx, 8
  00378	89 95 00 ff ff
	ff		 mov	 DWORD PTR tv245[ebp], edx
  0037e	83 bd 00 ff ff
	ff 18		 cmp	 DWORD PTR tv245[ebp], 24 ; 00000018H
  00385	77 6a		 ja	 SHORT $L197693
  00387	8b 85 00 ff ff
	ff		 mov	 eax, DWORD PTR tv245[ebp]
  0038d	0f b6 88 00 00
	00 00		 movzx	 ecx, BYTE PTR $L198942[eax]
  00394	ff 24 8d 00 00
	00 00		 jmp	 DWORD PTR $L198943[ecx*4]
$L197696:

; 136  : 			{
; 137  : 			case 8:
; 138  : 				ismask = (clr_tbl[ *pColor ] != color);

  0039b	8b 55 f8	 mov	 edx, DWORD PTR _pColor$[ebp]
  0039e	0f b6 02	 movzx	 eax, BYTE PTR [edx]
  003a1	8b 4d a4	 mov	 ecx, DWORD PTR _clr_tbl$[ebp]
  003a4	8b 14 81	 mov	 edx, DWORD PTR [ecx+eax*4]
  003a7	33 c0		 xor	 eax, eax
  003a9	3b 55 0c	 cmp	 edx, DWORD PTR _color$[ebp]
  003ac	0f 95 c0	 setne	 al
  003af	88 45 9b	 mov	 BYTE PTR _ismask$[ebp], al

; 139  : 				break;

  003b2	eb 3d		 jmp	 SHORT $L197693
$L197697:

; 140  : 			case 16:
; 141  : 				ismask = (*(LPWORD)pColor != (WORD)color);

  003b4	8b 4d f8	 mov	 ecx, DWORD PTR _pColor$[ebp]
  003b7	0f b7 11	 movzx	 edx, WORD PTR [ecx]
  003ba	0f b7 45 0c	 movzx	 eax, WORD PTR _color$[ebp]
  003be	33 c9		 xor	 ecx, ecx
  003c0	3b d0		 cmp	 edx, eax
  003c2	0f 95 c1	 setne	 cl
  003c5	88 4d 9b	 mov	 BYTE PTR _ismask$[ebp], cl

; 142  : 				break;

  003c8	eb 27		 jmp	 SHORT $L197693
$L197700:

; 143  : 			case 24:
; 144  : 				ismask = ((*(LPDWORD)pColor & 0x00ffffff) != color);

  003ca	8b 55 f8	 mov	 edx, DWORD PTR _pColor$[ebp]
  003cd	8b 02		 mov	 eax, DWORD PTR [edx]
  003cf	25 ff ff ff 00	 and	 eax, 16777215		; 00ffffffH
  003d4	33 c9		 xor	 ecx, ecx
  003d6	3b 45 0c	 cmp	 eax, DWORD PTR _color$[ebp]
  003d9	0f 95 c1	 setne	 cl
  003dc	88 4d 9b	 mov	 BYTE PTR _ismask$[ebp], cl

; 145  : 				break;

  003df	eb 10		 jmp	 SHORT $L197693
$L197702:

; 146  : 			case 32:
; 147  : 				ismask = (*(LPDWORD)pColor != color);

  003e1	8b 55 f8	 mov	 edx, DWORD PTR _pColor$[ebp]
  003e4	8b 02		 mov	 eax, DWORD PTR [edx]
  003e6	33 c9		 xor	 ecx, ecx
  003e8	3b 45 0c	 cmp	 eax, DWORD PTR _color$[ebp]
  003eb	0f 95 c1	 setne	 cl
  003ee	88 4d 9b	 mov	 BYTE PTR _ismask$[ebp], cl
$L197693:

; 148  : 			}
; 149  : 			// shift pointer to next color
; 150  : 			pColor += Bpp;

  003f1	0f b6 55 d7	 movzx	 edx, BYTE PTR _Bpp$[ebp]
  003f5	03 55 f8	 add	 edx, DWORD PTR _pColor$[ebp]
  003f8	89 55 f8	 mov	 DWORD PTR _pColor$[ebp], edx

; 151  : 			// place part of scan line as RECT region if transparent color found after mask color or
; 152  : 			// mask color found at the end of mask image
; 153  : 			if ( wasfirst )

  003fb	0f b6 45 df	 movzx	 eax, BYTE PTR _wasfirst$[ebp]
  003ff	85 c0		 test	 eax, eax
  00401	0f 84 e6 00 00
	00		 je	 $L197704

; 154  : 			{
; 155  : 				if ( !ismask )

  00407	0f b6 4d 9b	 movzx	 ecx, BYTE PTR _ismask$[ebp]
  0040b	85 c9		 test	 ecx, ecx
  0040d	0f 85 d8 00 00
	00		 jne	 $L197705

; 156  : 				{
; 157  : 					// save current RECT
; 158  : 					pRects[ pRgnData->nCount++ ] = CRect( first, i, j, i + 1 );

  00413	8b 55 d8	 mov	 edx, DWORD PTR _i$[ebp]
  00416	83 c2 01	 add	 edx, 1
  00419	52		 push	 edx
  0041a	8b 85 70 ff ff
	ff		 mov	 eax, DWORD PTR _j$[ebp]
  00420	50		 push	 eax
  00421	8b 4d d8	 mov	 ecx, DWORD PTR _i$[ebp]
  00424	51		 push	 ecx
  00425	8b 55 fc	 mov	 edx, DWORD PTR _first$[ebp]
  00428	52		 push	 edx
  00429	8d 8d 34 ff ff
	ff		 lea	 ecx, DWORD PTR $T198933[ebp]
  0042f	e8 00 00 00 00	 call	 ??0CRect@@QAE@HHHH@Z	; CRect::CRect
  00434	8b 4d f0	 mov	 ecx, DWORD PTR _pRgnData$[ebp]
  00437	8b 51 08	 mov	 edx, DWORD PTR [ecx+8]
  0043a	c1 e2 04	 shl	 edx, 4
  0043d	03 55 9c	 add	 edx, DWORD PTR _pRects$[ebp]
  00440	8b 08		 mov	 ecx, DWORD PTR [eax]
  00442	89 0a		 mov	 DWORD PTR [edx], ecx
  00444	8b 48 04	 mov	 ecx, DWORD PTR [eax+4]
  00447	89 4a 04	 mov	 DWORD PTR [edx+4], ecx
  0044a	8b 48 08	 mov	 ecx, DWORD PTR [eax+8]
  0044d	89 4a 08	 mov	 DWORD PTR [edx+8], ecx
  00450	8b 40 0c	 mov	 eax, DWORD PTR [eax+12]
  00453	89 42 0c	 mov	 DWORD PTR [edx+12], eax
  00456	8b 4d f0	 mov	 ecx, DWORD PTR _pRgnData$[ebp]
  00459	8b 51 08	 mov	 edx, DWORD PTR [ecx+8]
  0045c	83 c2 01	 add	 edx, 1
  0045f	8b 45 f0	 mov	 eax, DWORD PTR _pRgnData$[ebp]
  00462	89 50 08	 mov	 DWORD PTR [eax+8], edx

; 159  : 					// if buffer full reallocate it with more room
; 160  : 					if ( pRgnData->nCount >= dwRectsCount )

  00465	8b 4d f0	 mov	 ecx, DWORD PTR _pRgnData$[ebp]
  00468	8b 51 08	 mov	 edx, DWORD PTR [ecx+8]
  0046b	3b 55 94	 cmp	 edx, DWORD PTR _dwRectsCount$[ebp]
  0046e	72 77		 jb	 SHORT $L197707

; 161  : 					{
; 162  : 						dwRectsCount += ADD_RECTS_COUNT;

  00470	8b 45 94	 mov	 eax, DWORD PTR _dwRectsCount$[ebp]
  00473	83 c0 28	 add	 eax, 40			; 00000028H
  00476	89 45 94	 mov	 DWORD PTR _dwRectsCount$[ebp], eax

; 163  : 						// allocate new buffer
; 164  : 						LPBYTE pRgnDataNew = new BYTE[ RGNDATAHEADER_SIZE + dwRectsCount * sizeof(RECT) ];

  00479	8b 4d 94	 mov	 ecx, DWORD PTR _dwRectsCount$[ebp]
  0047c	c1 e1 04	 shl	 ecx, 4
  0047f	83 c1 20	 add	 ecx, 32			; 00000020H
  00482	51		 push	 ecx
  00483	e8 00 00 00 00	 call	 ??_U@YAPAXI@Z		; operator new[]
  00488	83 c4 04	 add	 esp, 4
  0048b	89 85 30 ff ff
	ff		 mov	 DWORD PTR $T198934[ebp], eax
  00491	8b 95 30 ff ff
	ff		 mov	 edx, DWORD PTR $T198934[ebp]
  00497	89 95 60 ff ff
	ff		 mov	 DWORD PTR _pRgnDataNew$197708[ebp], edx

; 165  : 						// copy current region data to it
; 166  : 						memcpy( pRgnDataNew, pRgnData, RGNDATAHEADER_SIZE + pRgnData->nCount * sizeof(RECT) );

  0049d	8b 45 f0	 mov	 eax, DWORD PTR _pRgnData$[ebp]
  004a0	8b 48 08	 mov	 ecx, DWORD PTR [eax+8]
  004a3	c1 e1 04	 shl	 ecx, 4
  004a6	83 c1 20	 add	 ecx, 32			; 00000020H
  004a9	51		 push	 ecx
  004aa	8b 55 f0	 mov	 edx, DWORD PTR _pRgnData$[ebp]
  004ad	52		 push	 edx
  004ae	8b 85 60 ff ff
	ff		 mov	 eax, DWORD PTR _pRgnDataNew$197708[ebp]
  004b4	50		 push	 eax
  004b5	e8 00 00 00 00	 call	 _memcpy
  004ba	83 c4 0c	 add	 esp, 12			; 0000000cH

; 167  : 						// delte old region data buffer
; 168  : 						delete []pRgnData;

  004bd	8b 4d f0	 mov	 ecx, DWORD PTR _pRgnData$[ebp]
  004c0	89 8d 2c ff ff
	ff		 mov	 DWORD PTR $T198935[ebp], ecx
  004c6	8b 95 2c ff ff
	ff		 mov	 edx, DWORD PTR $T198935[ebp]
  004cc	52		 push	 edx
  004cd	e8 00 00 00 00	 call	 ??_V@YAXPAX@Z		; operator delete[]
  004d2	83 c4 04	 add	 esp, 4

; 169  : 						// set pointer to new regiondata buffer to current
; 170  : 						pRgnData = (RGNDATAHEADER*)pRgnDataNew;

  004d5	8b 85 60 ff ff
	ff		 mov	 eax, DWORD PTR _pRgnDataNew$197708[ebp]
  004db	89 45 f0	 mov	 DWORD PTR _pRgnData$[ebp], eax

; 171  : 						// correct pointer to RECT table
; 172  : 						pRects = (LPRECT)((LPBYTE)pRgnData + RGNDATAHEADER_SIZE);

  004de	8b 4d f0	 mov	 ecx, DWORD PTR _pRgnData$[ebp]
  004e1	83 c1 20	 add	 ecx, 32			; 00000020H
  004e4	89 4d 9c	 mov	 DWORD PTR _pRects$[ebp], ecx
$L197707:

; 173  : 					}
; 174  : 					wasfirst = false;

  004e7	c6 45 df 00	 mov	 BYTE PTR _wasfirst$[ebp], 0
$L197705:

; 175  : 				}
; 176  : 			}
; 177  : 			else if ( ismask )		// set wasfirst when mask is found

  004eb	eb 15		 jmp	 SHORT $L197717
$L197704:
  004ed	0f b6 55 9b	 movzx	 edx, BYTE PTR _ismask$[ebp]
  004f1	85 d2		 test	 edx, edx
  004f3	74 0d		 je	 SHORT $L197717

; 178  : 			{
; 179  : 				first = j;

  004f5	8b 85 70 ff ff
	ff		 mov	 eax, DWORD PTR _j$[ebp]
  004fb	89 45 fc	 mov	 DWORD PTR _first$[ebp], eax

; 180  : 				wasfirst = true;

  004fe	c6 45 df 01	 mov	 BYTE PTR _wasfirst$[ebp], 1
$L197717:

; 181  : 			}
; 182  : 		}

  00502	e9 3a fe ff ff	 jmp	 $L197690
$L197691:

; 183  : 
; 184  : 		if ( wasfirst && ismask )

  00507	0f b6 4d df	 movzx	 ecx, BYTE PTR _wasfirst$[ebp]
  0050b	85 c9		 test	 ecx, ecx
  0050d	0f 84 e4 00 00
	00		 je	 $L197719
  00513	0f b6 55 9b	 movzx	 edx, BYTE PTR _ismask$[ebp]
  00517	85 d2		 test	 edx, edx
  00519	0f 84 d8 00 00
	00		 je	 $L197719

; 185  : 		{
; 186  : 			// save current RECT
; 187  : 			pRects[ pRgnData->nCount++ ] = CRect( first, i, j, i + 1 );

  0051f	8b 45 d8	 mov	 eax, DWORD PTR _i$[ebp]
  00522	83 c0 01	 add	 eax, 1
  00525	50		 push	 eax
  00526	8b 8d 70 ff ff
	ff		 mov	 ecx, DWORD PTR _j$[ebp]
  0052c	51		 push	 ecx
  0052d	8b 55 d8	 mov	 edx, DWORD PTR _i$[ebp]
  00530	52		 push	 edx
  00531	8b 45 fc	 mov	 eax, DWORD PTR _first$[ebp]
  00534	50		 push	 eax
  00535	8d 8d 1c ff ff
	ff		 lea	 ecx, DWORD PTR $T198936[ebp]
  0053b	e8 00 00 00 00	 call	 ??0CRect@@QAE@HHHH@Z	; CRect::CRect
  00540	8b 4d f0	 mov	 ecx, DWORD PTR _pRgnData$[ebp]
  00543	8b 51 08	 mov	 edx, DWORD PTR [ecx+8]
  00546	c1 e2 04	 shl	 edx, 4
  00549	03 55 9c	 add	 edx, DWORD PTR _pRects$[ebp]
  0054c	8b 08		 mov	 ecx, DWORD PTR [eax]
  0054e	89 0a		 mov	 DWORD PTR [edx], ecx
  00550	8b 48 04	 mov	 ecx, DWORD PTR [eax+4]
  00553	89 4a 04	 mov	 DWORD PTR [edx+4], ecx
  00556	8b 48 08	 mov	 ecx, DWORD PTR [eax+8]
  00559	89 4a 08	 mov	 DWORD PTR [edx+8], ecx
  0055c	8b 40 0c	 mov	 eax, DWORD PTR [eax+12]
  0055f	89 42 0c	 mov	 DWORD PTR [edx+12], eax
  00562	8b 4d f0	 mov	 ecx, DWORD PTR _pRgnData$[ebp]
  00565	8b 51 08	 mov	 edx, DWORD PTR [ecx+8]
  00568	83 c2 01	 add	 edx, 1
  0056b	8b 45 f0	 mov	 eax, DWORD PTR _pRgnData$[ebp]
  0056e	89 50 08	 mov	 DWORD PTR [eax+8], edx

; 188  : 			// if buffer full reallocate it with more room
; 189  : 			if ( pRgnData->nCount >= dwRectsCount )

  00571	8b 4d f0	 mov	 ecx, DWORD PTR _pRgnData$[ebp]
  00574	8b 51 08	 mov	 edx, DWORD PTR [ecx+8]
  00577	3b 55 94	 cmp	 edx, DWORD PTR _dwRectsCount$[ebp]
  0057a	72 77		 jb	 SHORT $L197721

; 190  : 			{
; 191  : 				dwRectsCount += ADD_RECTS_COUNT;

  0057c	8b 45 94	 mov	 eax, DWORD PTR _dwRectsCount$[ebp]
  0057f	83 c0 28	 add	 eax, 40			; 00000028H
  00582	89 45 94	 mov	 DWORD PTR _dwRectsCount$[ebp], eax

; 192  : 				// allocate new buffer
; 193  : 				LPBYTE pRgnDataNew = new BYTE[ RGNDATAHEADER_SIZE + dwRectsCount * sizeof(RECT) ];

  00585	8b 4d 94	 mov	 ecx, DWORD PTR _dwRectsCount$[ebp]
  00588	c1 e1 04	 shl	 ecx, 4
  0058b	83 c1 20	 add	 ecx, 32			; 00000020H
  0058e	51		 push	 ecx
  0058f	e8 00 00 00 00	 call	 ??_U@YAPAXI@Z		; operator new[]
  00594	83 c4 04	 add	 esp, 4
  00597	89 85 18 ff ff
	ff		 mov	 DWORD PTR $T198937[ebp], eax
  0059d	8b 95 18 ff ff
	ff		 mov	 edx, DWORD PTR $T198937[ebp]
  005a3	89 95 5c ff ff
	ff		 mov	 DWORD PTR _pRgnDataNew$197722[ebp], edx

; 194  : 				// copy current region data to it
; 195  : 				memcpy( pRgnDataNew, pRgnData, RGNDATAHEADER_SIZE + pRgnData->nCount * sizeof(RECT) );

  005a9	8b 45 f0	 mov	 eax, DWORD PTR _pRgnData$[ebp]
  005ac	8b 48 08	 mov	 ecx, DWORD PTR [eax+8]
  005af	c1 e1 04	 shl	 ecx, 4
  005b2	83 c1 20	 add	 ecx, 32			; 00000020H
  005b5	51		 push	 ecx
  005b6	8b 55 f0	 mov	 edx, DWORD PTR _pRgnData$[ebp]
  005b9	52		 push	 edx
  005ba	8b 85 5c ff ff
	ff		 mov	 eax, DWORD PTR _pRgnDataNew$197722[ebp]
  005c0	50		 push	 eax
  005c1	e8 00 00 00 00	 call	 _memcpy
  005c6	83 c4 0c	 add	 esp, 12			; 0000000cH

; 196  : 				// delte old region data buffer
; 197  : 				delete []pRgnData;

  005c9	8b 4d f0	 mov	 ecx, DWORD PTR _pRgnData$[ebp]
  005cc	89 8d 14 ff ff
	ff		 mov	 DWORD PTR $T198938[ebp], ecx
  005d2	8b 95 14 ff ff
	ff		 mov	 edx, DWORD PTR $T198938[ebp]
  005d8	52		 push	 edx
  005d9	e8 00 00 00 00	 call	 ??_V@YAXPAX@Z		; operator delete[]
  005de	83 c4 04	 add	 esp, 4

; 198  : 				// set pointer to new regiondata buffer to current
; 199  : 				pRgnData = (RGNDATAHEADER*)pRgnDataNew;

  005e1	8b 85 5c ff ff
	ff		 mov	 eax, DWORD PTR _pRgnDataNew$197722[ebp]
  005e7	89 45 f0	 mov	 DWORD PTR _pRgnData$[ebp], eax

; 200  : 				// correct pointer to RECT table
; 201  : 				pRects = (LPRECT)((LPBYTE)pRgnData + RGNDATAHEADER_SIZE);

  005ea	8b 4d f0	 mov	 ecx, DWORD PTR _pRgnData$[ebp]
  005ed	83 c1 20	 add	 ecx, 32			; 00000020H
  005f0	89 4d 9c	 mov	 DWORD PTR _pRects$[ebp], ecx
$L197721:

; 202  : 			}
; 203  : 			wasfirst = false;

  005f3	c6 45 df 00	 mov	 BYTE PTR _wasfirst$[ebp], 0
$L197719:

; 204  : 		}
; 205  : 
; 206  : 
; 207  : 		if(pColor - dwLineBackLen >= pBits)

  005f7	8b 55 f8	 mov	 edx, DWORD PTR _pColor$[ebp]
  005fa	2b 55 ec	 sub	 edx, DWORD PTR _dwLineBackLen$[ebp]
  005fd	3b 55 cc	 cmp	 edx, DWORD PTR _pBits$[ebp]
  00600	72 09		 jb	 SHORT $L197731

; 208  : 			pColor -= dwLineBackLen;

  00602	8b 45 f8	 mov	 eax, DWORD PTR _pColor$[ebp]
  00605	2b 45 ec	 sub	 eax, DWORD PTR _dwLineBackLen$[ebp]
  00608	89 45 f8	 mov	 DWORD PTR _pColor$[ebp], eax
$L197731:

; 209  : 	}

  0060b	e9 fd fc ff ff	 jmp	 $L197685
$L197686:

; 210  : 
; 211  : 	for(int i = 0 ; i< (int)pRgnData->nCount; i++)

  00610	c7 85 58 ff ff
	ff 00 00 00 00	 mov	 DWORD PTR _i$197732[ebp], 0
  0061a	eb 0f		 jmp	 SHORT $L197734
$L197735:
  0061c	8b 8d 58 ff ff
	ff		 mov	 ecx, DWORD PTR _i$197732[ebp]
  00622	83 c1 01	 add	 ecx, 1
  00625	89 8d 58 ff ff
	ff		 mov	 DWORD PTR _i$197732[ebp], ecx
$L197734:
  0062b	8b 55 f0	 mov	 edx, DWORD PTR _pRgnData$[ebp]
  0062e	8b 85 58 ff ff
	ff		 mov	 eax, DWORD PTR _i$197732[ebp]
  00634	3b 42 08	 cmp	 eax, DWORD PTR [edx+8]
  00637	7d 02		 jge	 SHORT $L197736

; 212  : 	{
; 213  : 	//	TRACE("\n count:%2d, [%2d, %2d, %2d,%2d]", i, pRects[i].left,  pRects[i].right,  pRects[i].top,  pRects[i].bottom);
; 214  : 	}

  00639	eb e1		 jmp	 SHORT $L197735
$L197736:

; 215  : 	// release image data
; 216  : 	delete []pBits;

  0063b	8b 4d cc	 mov	 ecx, DWORD PTR _pBits$[ebp]
  0063e	89 8d 10 ff ff
	ff		 mov	 DWORD PTR $T198939[ebp], ecx
  00644	8b 95 10 ff ff
	ff		 mov	 edx, DWORD PTR $T198939[ebp]
  0064a	52		 push	 edx
  0064b	e8 00 00 00 00	 call	 ??_V@YAXPAX@Z		; operator delete[]
  00650	83 c4 04	 add	 esp, 4

; 217  : 	delete []bi;

  00653	8b 85 78 ff ff
	ff		 mov	 eax, DWORD PTR _bi$[ebp]
  00659	89 85 0c ff ff
	ff		 mov	 DWORD PTR $T198940[ebp], eax
  0065f	8b 8d 0c ff ff
	ff		 mov	 ecx, DWORD PTR $T198940[ebp]
  00665	51		 push	 ecx
  00666	e8 00 00 00 00	 call	 ??_V@YAXPAX@Z		; operator delete[]
  0066b	83 c4 04	 add	 esp, 4

; 218  : 
; 219  : 	// create region
; 220  : 	HRGN hRgn = ExtCreateRegion( NULL, RGNDATAHEADER_SIZE + pRgnData->nCount * sizeof(RECT), (LPRGNDATA)pRgnData );

  0066e	8b 55 f0	 mov	 edx, DWORD PTR _pRgnData$[ebp]
  00671	52		 push	 edx
  00672	8b 45 f0	 mov	 eax, DWORD PTR _pRgnData$[ebp]
  00675	8b 48 08	 mov	 ecx, DWORD PTR [eax+8]
  00678	c1 e1 04	 shl	 ecx, 4
  0067b	83 c1 20	 add	 ecx, 32			; 00000020H
  0067e	51		 push	 ecx
  0067f	6a 00		 push	 0
  00681	ff 15 00 00 00
	00		 call	 DWORD PTR __imp__ExtCreateRegion@12
  00687	89 45 a0	 mov	 DWORD PTR _hRgn$[ebp], eax

; 221  : 	// release region data
; 222  : 	delete []pRgnData;

  0068a	8b 55 f0	 mov	 edx, DWORD PTR _pRgnData$[ebp]
  0068d	89 95 08 ff ff
	ff		 mov	 DWORD PTR $T198941[ebp], edx
  00693	8b 85 08 ff ff
	ff		 mov	 eax, DWORD PTR $T198941[ebp]
  00699	50		 push	 eax
  0069a	e8 00 00 00 00	 call	 ??_V@YAXPAX@Z		; operator delete[]
  0069f	83 c4 04	 add	 esp, 4

; 223  : 	return hRgn;

  006a2	8b 45 a0	 mov	 eax, DWORD PTR _hRgn$[ebp]

; 224  : }

  006a5	8b e5		 mov	 esp, ebp
  006a7	5d		 pop	 ebp
  006a8	c2 08 00	 ret	 8
$L198943:
  006ab	00 00 00 00	 DD	 $L197696
  006af	00 00 00 00	 DD	 $L197697
  006b3	00 00 00 00	 DD	 $L197700
  006b7	00 00 00 00	 DD	 $L197702
  006bb	00 00 00 00	 DD	 $L197693
$L198942:
  006bf	00		 DB	 0
  006c0	04		 DB	 4
  006c1	04		 DB	 4
  006c2	04		 DB	 4
  006c3	04		 DB	 4
  006c4	04		 DB	 4
  006c5	04		 DB	 4
  006c6	04		 DB	 4
  006c7	01		 DB	 1
  006c8	04		 DB	 4
  006c9	04		 DB	 4
  006ca	04		 DB	 4
  006cb	04		 DB	 4
  006cc	04		 DB	 4
  006cd	04		 DB	 4
  006ce	04		 DB	 4
  006cf	02		 DB	 2
  006d0	04		 DB	 4
  006d1	04		 DB	 4
  006d2	04		 DB	 4
  006d3	04		 DB	 4
  006d4	04		 DB	 4
  006d5	04		 DB	 4
  006d6	04		 DB	 4
  006d7	03		 DB	 3
?CreateRegionFromDib@CxSkinButton@@QAEPAUHRGN__@@PAVCDibBitmap@@K@Z ENDP ; CxSkinButton::CreateRegionFromDib
_TEXT	ENDS
PUBLIC	??0CPoint@@QAE@XZ				; CPoint::CPoint
PUBLIC	??_R1A@?0A@A@CObject@@8				; CObject::`RTTI Base Class Descriptor at (0,-1,0,0)'
PUBLIC	??_R0?AVCObject@@@8				; CObject `RTTI Type Descriptor'
PUBLIC	??0CButton@@QAE@XZ				; CButton::CButton
PUBLIC	??_R1A@?0A@A@CWnd@@8				; CWnd::`RTTI Base Class Descriptor at (0,-1,0,0)'
PUBLIC	??_R0?AVCWnd@@@8				; CWnd `RTTI Type Descriptor'
PUBLIC	??_R1A@?0A@A@CCmdTarget@@8			; CCmdTarget::`RTTI Base Class Descriptor at (0,-1,0,0)'
PUBLIC	??_R0?AVCCmdTarget@@@8				; CCmdTarget `RTTI Type Descriptor'
PUBLIC	??2CObject@@SGPAXI@Z				; CObject::operator new
PUBLIC	??3CObject@@SGXPAX@Z				; CObject::operator delete
PUBLIC	?Serialize@CObject@@UAEXAAVCArchive@@@Z		; CObject::Serialize
PUBLIC	?AssertValid@CObject@@UBEXXZ			; CObject::AssertValid
PUBLIC	?Dump@CObject@@UBEXAAVCDumpContext@@@Z		; CObject::Dump
PUBLIC	??_R1A@?0A@A@CButton@@8				; CButton::`RTTI Base Class Descriptor at (0,-1,0,0)'
PUBLIC	??_R0?AVCButton@@@8				; CButton `RTTI Type Descriptor'
PUBLIC	??_R4CxSkinButton@@6B@				; CxSkinButton::`RTTI Complete Object Locator'
PUBLIC	??_R0?AVCxSkinButton@@@8			; CxSkinButton `RTTI Type Descriptor'
PUBLIC	??_R3CxSkinButton@@8				; CxSkinButton::`RTTI Class Hierarchy Descriptor'
PUBLIC	??_R2CxSkinButton@@8				; CxSkinButton::`RTTI Base Class Array'
PUBLIC	??_R1A@?0A@A@CxSkinButton@@8			; CxSkinButton::`RTTI Base Class Descriptor at (0,-1,0,0)'
PUBLIC	??0CxSkinButton@@QAE@XZ				; CxSkinButton::CxSkinButton
PUBLIC	?DrawItem@CxSkinButton@@UAEXPAUtagDRAWITEMSTRUCT@@@Z ; CxSkinButton::DrawItem
PUBLIC	?PreSubclassWindow@CxSkinButton@@MAEXXZ		; CxSkinButton::PreSubclassWindow
PUBLIC	?DestroyWindow@CxSkinButton@@UAEHXZ		; CxSkinButton::DestroyWindow
PUBLIC	?Create@CxSkinButton@@UAEHPBDKABUtagRECT@@PAVCWnd@@I@Z ; CxSkinButton::Create
PUBLIC	?DoDataExchange@CWnd@@MAEXPAVCDataExchange@@@Z	; CWnd::DoDataExchange
PUBLIC	?BeginModalState@CWnd@@UAEXXZ			; CWnd::BeginModalState
PUBLIC	?EndModalState@CWnd@@UAEXXZ			; CWnd::EndModalState
PUBLIC	?GetMessageMap@CxSkinButton@@MBEPBUAFX_MSGMAP@@XZ ; CxSkinButton::GetMessageMap
PUBLIC	??_7CxSkinButton@@6B@				; CxSkinButton::`vftable'
PUBLIC	??_GCxSkinButton@@UAEPAXI@Z			; CxSkinButton::`scalar deleting destructor'
EXTRN	?CreateControlContainer@CWnd@@MAEHPAPAVCOleControlContainer@@@Z:NEAR ; CWnd::CreateControlContainer
EXTRN	?CreateControlSite@CWnd@@MAEHPAVCOleControlContainer@@PAPAVCOleControlSite@@IABU_GUID@@@Z:NEAR ; CWnd::CreateControlSite
EXTRN	?SetOccDialogInfo@CWnd@@MAEHPAU_AFX_OCC_DIALOG_INFO@@@Z:NEAR ; CWnd::SetOccDialogInfo
EXTRN	?OnToolHitTest@CWnd@@UBEHVCPoint@@PAUtagTOOLINFOA@@@Z:NEAR ; CWnd::OnToolHitTest
EXTRN	__imp_??0?$CStringT@DV?$StrTraitMFC_DLL@DV?$ChTraitsCRT@D@ATL@@@@@ATL@@QAE@XZ:NEAR
EXTRN	?GetScrollBarCtrl@CWnd@@UBEPAVCScrollBar@@H@Z:NEAR ; CWnd::GetScrollBarCtrl
EXTRN	__imp_??1?$CStringT@DV?$StrTraitMFC_DLL@DV?$ChTraitsCRT@D@ATL@@@@@ATL@@QAE@XZ:NEAR
EXTRN	__imp_??4?$CStringT@DV?$StrTraitMFC_DLL@DV?$ChTraitsCRT@D@ATL@@@@@ATL@@QAEAAV01@PBD@Z:NEAR
EXTRN	?GetRuntimeClass@CButton@@UBEPAUCRuntimeClass@@XZ:NEAR ; CButton::GetRuntimeClass
EXTRN	??1CButton@@UAE@XZ:NEAR				; CButton::~CButton
EXTRN	?OnChildNotify@CButton@@MAEHIIJPAJ@Z:NEAR	; CButton::OnChildNotify
EXTRN	__except_list:DWORD
EXTRN	___CxxFrameHandler:NEAR
EXTRN	?WinHelpA@CWnd@@UAEXKI@Z:NEAR			; CWnd::WinHelpA
EXTRN	?HtmlHelpA@CWnd@@UAEXKI@Z:NEAR			; CWnd::HtmlHelpA
EXTRN	?WinHelpInternal@CWnd@@UAEXKI@Z:NEAR		; CWnd::WinHelpInternal
EXTRN	?ContinueModal@CWnd@@UAEHXZ:NEAR		; CWnd::ContinueModal
EXTRN	?EndModalLoop@CWnd@@UAEXH@Z:NEAR		; CWnd::EndModalLoop
EXTRN	?GetInterfaceMap@CWnd@@MBEPBUAFX_INTERFACEMAP@@XZ:NEAR ; CWnd::GetInterfaceMap
EXTRN	?EnsureStdObj@CWnd@@UAEJXZ:NEAR			; CWnd::EnsureStdObj
EXTRN	?get_accParent@CWnd@@UAEJPAPAUIDispatch@@@Z:NEAR ; CWnd::get_accParent
EXTRN	?get_accChildCount@CWnd@@UAEJPAJ@Z:NEAR		; CWnd::get_accChildCount
EXTRN	?OnCmdMsg@CCmdTarget@@UAEHIHPAXPAUAFX_CMDHANDLERINFO@@@Z:NEAR ; CCmdTarget::OnCmdMsg
EXTRN	?get_accChild@CWnd@@UAEJUtagVARIANT@@PAPAUIDispatch@@@Z:NEAR ; CWnd::get_accChild
EXTRN	?IsInvokeAllowed@CCmdTarget@@UAEHJ@Z:NEAR	; CCmdTarget::IsInvokeAllowed
EXTRN	?get_accName@CWnd@@UAEJUtagVARIANT@@PAPA_W@Z:NEAR ; CWnd::get_accName
EXTRN	?get_accValue@CWnd@@UAEJUtagVARIANT@@PAPA_W@Z:NEAR ; CWnd::get_accValue
EXTRN	?get_accDescription@CWnd@@UAEJUtagVARIANT@@PAPA_W@Z:NEAR ; CWnd::get_accDescription
EXTRN	?GetDispatchIID@CCmdTarget@@UAEHPAU_GUID@@@Z:NEAR ; CCmdTarget::GetDispatchIID
EXTRN	?GetTypeInfoCount@CCmdTarget@@UAEIXZ:NEAR	; CCmdTarget::GetTypeInfoCount
EXTRN	?GetTypeLibCache@CCmdTarget@@UAEPAVCTypeLibCache@@XZ:NEAR ; CCmdTarget::GetTypeLibCache
EXTRN	?get_accRole@CWnd@@UAEJUtagVARIANT@@PAU2@@Z:NEAR ; CWnd::get_accRole
EXTRN	?GetTypeLib@CCmdTarget@@UAEJKPAPAUITypeLib@@@Z:NEAR ; CCmdTarget::GetTypeLib
EXTRN	?get_accState@CWnd@@UAEJUtagVARIANT@@PAU2@@Z:NEAR ; CWnd::get_accState
EXTRN	?get_accHelp@CWnd@@UAEJUtagVARIANT@@PAPA_W@Z:NEAR ; CWnd::get_accHelp
EXTRN	?get_accHelpTopic@CWnd@@UAEJPAPA_WUtagVARIANT@@PAJ@Z:NEAR ; CWnd::get_accHelpTopic
EXTRN	?get_accKeyboardShortcut@CWnd@@UAEJUtagVARIANT@@PAPA_W@Z:NEAR ; CWnd::get_accKeyboardShortcut
EXTRN	?get_accFocus@CWnd@@UAEJPAUtagVARIANT@@@Z:NEAR	; CWnd::get_accFocus
EXTRN	?get_accSelection@CWnd@@UAEJPAUtagVARIANT@@@Z:NEAR ; CWnd::get_accSelection
EXTRN	?get_accDefaultAction@CWnd@@UAEJUtagVARIANT@@PAPA_W@Z:NEAR ; CWnd::get_accDefaultAction
EXTRN	?GetCommandMap@CCmdTarget@@MBEPBUAFX_OLECMDMAP@@XZ:NEAR ; CCmdTarget::GetCommandMap
EXTRN	?accSelect@CWnd@@UAEJJUtagVARIANT@@@Z:NEAR	; CWnd::accSelect
EXTRN	?accLocation@CWnd@@UAEJPAJ000UtagVARIANT@@@Z:NEAR ; CWnd::accLocation
EXTRN	?GetDispatchMap@CCmdTarget@@MBEPBUAFX_DISPMAP@@XZ:NEAR ; CCmdTarget::GetDispatchMap
EXTRN	?accNavigate@CWnd@@UAEJJUtagVARIANT@@PAU2@@Z:NEAR ; CWnd::accNavigate
EXTRN	?accHitTest@CWnd@@UAEJJJPAUtagVARIANT@@@Z:NEAR	; CWnd::accHitTest
EXTRN	?GetConnectionMap@CCmdTarget@@MBEPBUAFX_CONNECTIONMAP@@XZ:NEAR ; CCmdTarget::GetConnectionMap
EXTRN	?accDoDefaultAction@CWnd@@UAEJUtagVARIANT@@@Z:NEAR ; CWnd::accDoDefaultAction
EXTRN	?put_accName@CWnd@@UAEJUtagVARIANT@@PA_W@Z:NEAR	; CWnd::put_accName
EXTRN	?put_accValue@CWnd@@UAEJUtagVARIANT@@PA_W@Z:NEAR ; CWnd::put_accValue
EXTRN	?SetProxy@CWnd@@UAEJPAUIAccessibleProxy@@@Z:NEAR ; CWnd::SetProxy
EXTRN	?CreateAccessibleProxy@CWnd@@UAEJIJPAJ@Z:NEAR	; CWnd::CreateAccessibleProxy
EXTRN	?GetEventSinkMap@CCmdTarget@@MBEPBUAFX_EVENTSINKMAP@@XZ:NEAR ; CCmdTarget::GetEventSinkMap
EXTRN	?OnCreateAggregates@CCmdTarget@@UAEHXZ:NEAR	; CCmdTarget::OnCreateAggregates
EXTRN	?OnCommand@CWnd@@MAEHIJ@Z:NEAR			; CWnd::OnCommand
EXTRN	?GetInterfaceHook@CCmdTarget@@UAEPAUIUnknown@@PBX@Z:NEAR ; CCmdTarget::GetInterfaceHook
EXTRN	?OnNotify@CWnd@@MAEHIJPAJ@Z:NEAR		; CWnd::OnNotify
EXTRN	__imp__GetSysColor@4:NEAR
EXTRN	?GetExtraConnectionPoints@CCmdTarget@@MAEHPAVCPtrArray@@@Z:NEAR ; CCmdTarget::GetExtraConnectionPoints
EXTRN	?GetConnectionHook@CCmdTarget@@MAEPAUIConnectionPoint@@ABU_GUID@@@Z:NEAR ; CCmdTarget::GetConnectionHook
EXTRN	??0CCWToolTips@@QAE@XZ:NEAR			; CCWToolTips::CCWToolTips
EXTRN	??0CToolTipCtrl@@QAE@XZ:NEAR			; CToolTipCtrl::CToolTipCtrl
EXTRN	?Create@CWnd@@UAEHPBD0KABUtagRECT@@PAV1@IPAUCCreateContext@@@Z:NEAR ; CWnd::Create
EXTRN	?CreateEx@CWnd@@UAEHKPBD0KHHHHPAUHWND__@@PAUHMENU__@@PAX@Z:NEAR ; CWnd::CreateEx
EXTRN	?CreateEx@CWnd@@UAEHKPBD0KABUtagRECT@@PAV1@IPAX@Z:NEAR ; CWnd::CreateEx
EXTRN	?PreCreateWindow@CWnd@@UAEHAAUtagCREATESTRUCTA@@@Z:NEAR ; CWnd::PreCreateWindow
EXTRN	?CalcWindowRect@CWnd@@UAEXPAUtagRECT@@I@Z:NEAR	; CWnd::CalcWindowRect
EXTRN	??1CToolTipCtrl@@UAE@XZ:NEAR			; CToolTipCtrl::~CToolTipCtrl
EXTRN	?GetSuperWndProcAddr@CWnd@@MAEPAP6GJPAUHWND__@@IIJ@ZXZ:NEAR ; CWnd::GetSuperWndProcAddr
EXTRN	??_7type_info@@6B@:QWORD			; type_info::`vftable'
EXTRN	?PreTranslateMessage@CWnd@@UAEHPAUtagMSG@@@Z:NEAR ; CWnd::PreTranslateMessage
EXTRN	?OnAmbientProperty@CWnd@@UAEHPAVCOleControlSite@@JPAUtagVARIANT@@@Z:NEAR ; CWnd::OnAmbientProperty
EXTRN	?WindowProc@CWnd@@MAEJIIJ@Z:NEAR		; CWnd::WindowProc
EXTRN	?OnWndMsg@CWnd@@MAEHIIJPAJ@Z:NEAR		; CWnd::OnWndMsg
EXTRN	?DefWindowProcA@CWnd@@MAEJIIJ@Z:NEAR		; CWnd::DefWindowProcA
EXTRN	?PostNcDestroy@CWnd@@MAEXXZ:NEAR		; CWnd::PostNcDestroy
EXTRN	?CheckAutoCenter@CWnd@@UAEHXZ:NEAR		; CWnd::CheckAutoCenter
EXTRN	??_ECxSkinButton@@UAEPAXI@Z:NEAR		; CxSkinButton::`vector deleting destructor'
EXTRN	?IsFrameWnd@CWnd@@UBEHXZ:NEAR			; CWnd::IsFrameWnd
EXTRN	?OnFinalRelease@CWnd@@UAEXXZ:NEAR		; CWnd::OnFinalRelease
xdata$x	SEGMENT
$T198959 DD	0ffffffffH
	DD	FLAT:$L198949
	DD	00H
	DD	FLAT:$L198950
	DD	01H
	DD	FLAT:$L198951
	DD	02H
	DD	FLAT:$L198952
$T198956 DD	019930520H
	DD	04H
	DD	FLAT:$T198959
	DD	2 DUP(00H)
	DD	2 DUP(00H)
xdata$x	ENDS
;	COMDAT ??_7CxSkinButton@@6B@
CONST	SEGMENT
??_7CxSkinButton@@6B@ DD FLAT:??_R4CxSkinButton@@6B@	; CxSkinButton::`vftable'
	DD	FLAT:?GetRuntimeClass@CButton@@UBEPAUCRuntimeClass@@XZ
	DD	FLAT:??_ECxSkinButton@@UAEPAXI@Z
	DD	FLAT:?Serialize@CObject@@UAEXAAVCArchive@@@Z
	DD	FLAT:?AssertValid@CObject@@UBEXXZ
	DD	FLAT:?Dump@CObject@@UBEXAAVCDumpContext@@@Z
	DD	FLAT:?OnCmdMsg@CCmdTarget@@UAEHIHPAXPAUAFX_CMDHANDLERINFO@@@Z
	DD	FLAT:?OnFinalRelease@CWnd@@UAEXXZ
	DD	FLAT:?IsInvokeAllowed@CCmdTarget@@UAEHJ@Z
	DD	FLAT:?GetDispatchIID@CCmdTarget@@UAEHPAU_GUID@@@Z
	DD	FLAT:?GetTypeInfoCount@CCmdTarget@@UAEIXZ
	DD	FLAT:?GetTypeLibCache@CCmdTarget@@UAEPAVCTypeLibCache@@XZ
	DD	FLAT:?GetTypeLib@CCmdTarget@@UAEJKPAPAUITypeLib@@@Z
	DD	FLAT:?GetMessageMap@CxSkinButton@@MBEPBUAFX_MSGMAP@@XZ
	DD	FLAT:?GetCommandMap@CCmdTarget@@MBEPBUAFX_OLECMDMAP@@XZ
	DD	FLAT:?GetDispatchMap@CCmdTarget@@MBEPBUAFX_DISPMAP@@XZ
	DD	FLAT:?GetConnectionMap@CCmdTarget@@MBEPBUAFX_CONNECTIONMAP@@XZ
	DD	FLAT:?GetInterfaceMap@CWnd@@MBEPBUAFX_INTERFACEMAP@@XZ
	DD	FLAT:?GetEventSinkMap@CCmdTarget@@MBEPBUAFX_EVENTSINKMAP@@XZ
	DD	FLAT:?OnCreateAggregates@CCmdTarget@@UAEHXZ
	DD	FLAT:?GetInterfaceHook@CCmdTarget@@UAEPAUIUnknown@@PBX@Z
	DD	FLAT:?GetExtraConnectionPoints@CCmdTarget@@MAEHPAVCPtrArray@@@Z
	DD	FLAT:?GetConnectionHook@CCmdTarget@@MAEPAUIConnectionPoint@@ABU_GUID@@@Z
	DD	FLAT:?PreSubclassWindow@CxSkinButton@@MAEXXZ
	DD	FLAT:?Create@CWnd@@UAEHPBD0KABUtagRECT@@PAV1@IPAUCCreateContext@@@Z
	DD	FLAT:?CreateEx@CWnd@@UAEHKPBD0KABUtagRECT@@PAV1@IPAX@Z
	DD	FLAT:?CreateEx@CWnd@@UAEHKPBD0KHHHHPAUHWND__@@PAUHMENU__@@PAX@Z
	DD	FLAT:?DestroyWindow@CxSkinButton@@UAEHXZ
	DD	FLAT:?PreCreateWindow@CWnd@@UAEHAAUtagCREATESTRUCTA@@@Z
	DD	FLAT:?CalcWindowRect@CWnd@@UAEXPAUtagRECT@@I@Z
	DD	FLAT:?OnToolHitTest@CWnd@@UBEHVCPoint@@PAUtagTOOLINFOA@@@Z
	DD	FLAT:?GetScrollBarCtrl@CWnd@@UBEPAVCScrollBar@@H@Z
	DD	FLAT:?WinHelpA@CWnd@@UAEXKI@Z
	DD	FLAT:?HtmlHelpA@CWnd@@UAEXKI@Z
	DD	FLAT:?WinHelpInternal@CWnd@@UAEXKI@Z
	DD	FLAT:?ContinueModal@CWnd@@UAEHXZ
	DD	FLAT:?EndModalLoop@CWnd@@UAEXH@Z
	DD	FLAT:?EnsureStdObj@CWnd@@UAEJXZ
	DD	FLAT:?get_accParent@CWnd@@UAEJPAPAUIDispatch@@@Z
	DD	FLAT:?get_accChildCount@CWnd@@UAEJPAJ@Z
	DD	FLAT:?get_accChild@CWnd@@UAEJUtagVARIANT@@PAPAUIDispatch@@@Z
	DD	FLAT:?get_accName@CWnd@@UAEJUtagVARIANT@@PAPA_W@Z
	DD	FLAT:?get_accValue@CWnd@@UAEJUtagVARIANT@@PAPA_W@Z
	DD	FLAT:?get_accDescription@CWnd@@UAEJUtagVARIANT@@PAPA_W@Z
	DD	FLAT:?get_accRole@CWnd@@UAEJUtagVARIANT@@PAU2@@Z
	DD	FLAT:?get_accState@CWnd@@UAEJUtagVARIANT@@PAU2@@Z
	DD	FLAT:?get_accHelp@CWnd@@UAEJUtagVARIANT@@PAPA_W@Z
	DD	FLAT:?get_accHelpTopic@CWnd@@UAEJPAPA_WUtagVARIANT@@PAJ@Z
	DD	FLAT:?get_accKeyboardShortcut@CWnd@@UAEJUtagVARIANT@@PAPA_W@Z
	DD	FLAT:?get_accFocus@CWnd@@UAEJPAUtagVARIANT@@@Z
	DD	FLAT:?get_accSelection@CWnd@@UAEJPAUtagVARIANT@@@Z
	DD	FLAT:?get_accDefaultAction@CWnd@@UAEJUtagVARIANT@@PAPA_W@Z
	DD	FLAT:?accSelect@CWnd@@UAEJJUtagVARIANT@@@Z
	DD	FLAT:?accLocation@CWnd@@UAEJPAJ000UtagVARIANT@@@Z
	DD	FLAT:?accNavigate@CWnd@@UAEJJUtagVARIANT@@PAU2@@Z
	DD	FLAT:?accHitTest@CWnd@@UAEJJJPAUtagVARIANT@@@Z
	DD	FLAT:?accDoDefaultAction@CWnd@@UAEJUtagVARIANT@@@Z
	DD	FLAT:?put_accName@CWnd@@UAEJUtagVARIANT@@PA_W@Z
	DD	FLAT:?put_accValue@CWnd@@UAEJUtagVARIANT@@PA_W@Z
	DD	FLAT:?SetProxy@CWnd@@UAEJPAUIAccessibleProxy@@@Z
	DD	FLAT:?CreateAccessibleProxy@CWnd@@UAEJIJPAJ@Z
	DD	FLAT:?OnCommand@CWnd@@MAEHIJ@Z
	DD	FLAT:?OnNotify@CWnd@@MAEHIJPAJ@Z
	DD	FLAT:?GetSuperWndProcAddr@CWnd@@MAEPAP6GJPAUHWND__@@IIJ@ZXZ
	DD	FLAT:?DoDataExchange@CWnd@@MAEXPAVCDataExchange@@@Z
	DD	FLAT:?BeginModalState@CWnd@@UAEXXZ
	DD	FLAT:?EndModalState@CWnd@@UAEXXZ
	DD	FLAT:?PreTranslateMessage@CWnd@@UAEHPAUtagMSG@@@Z
	DD	FLAT:?OnAmbientProperty@CWnd@@UAEHPAVCOleControlSite@@JPAUtagVARIANT@@@Z
	DD	FLAT:?WindowProc@CWnd@@MAEJIIJ@Z
	DD	FLAT:?OnWndMsg@CWnd@@MAEHIIJPAJ@Z
	DD	FLAT:?DefWindowProcA@CWnd@@MAEJIIJ@Z
	DD	FLAT:?PostNcDestroy@CWnd@@MAEXXZ
	DD	FLAT:?OnChildNotify@CButton@@MAEHIIJPAJ@Z
	DD	FLAT:?CheckAutoCenter@CWnd@@UAEHXZ
	DD	FLAT:?IsFrameWnd@CWnd@@UBEHXZ
	DD	FLAT:?CreateControlContainer@CWnd@@MAEHPAPAVCOleControlContainer@@@Z
	DD	FLAT:?CreateControlSite@CWnd@@MAEHPAVCOleControlContainer@@PAPAVCOleControlSite@@IABU_GUID@@@Z
	DD	FLAT:?SetOccDialogInfo@CWnd@@MAEHPAU_AFX_OCC_DIALOG_INFO@@@Z
	DD	FLAT:?Create@CxSkinButton@@UAEHPBDKABUtagRECT@@PAVCWnd@@I@Z
	DD	FLAT:?DrawItem@CxSkinButton@@UAEXPAUtagDRAWITEMSTRUCT@@@Z
CONST	ENDS
;	COMDAT ??_R4CxSkinButton@@6B@
rdata$r	SEGMENT
??_R4CxSkinButton@@6B@ DD 00H				; CxSkinButton::`RTTI Complete Object Locator'
	DD	00H
	DD	00H
	DD	FLAT:??_R0?AVCxSkinButton@@@8
	DD	FLAT:??_R3CxSkinButton@@8
rdata$r	ENDS
;	COMDAT ??_R0?AVCxSkinButton@@@8
_DATA	SEGMENT
??_R0?AVCxSkinButton@@@8 DD FLAT:??_7type_info@@6B@	; CxSkinButton `RTTI Type Descriptor'
	DD	00H
	DB	'.?AVCxSkinButton@@', 00H
_DATA	ENDS
;	COMDAT ??_R3CxSkinButton@@8
rdata$r	SEGMENT
??_R3CxSkinButton@@8 DD 00H				; CxSkinButton::`RTTI Class Hierarchy Descriptor'
	DD	00H
	DD	05H
	DD	FLAT:??_R2CxSkinButton@@8
rdata$r	ENDS
;	COMDAT ??_R2CxSkinButton@@8
rdata$r	SEGMENT
??_R2CxSkinButton@@8 DD FLAT:??_R1A@?0A@A@CxSkinButton@@8 ; CxSkinButton::`RTTI Base Class Array'
	DD	FLAT:??_R1A@?0A@A@CButton@@8
	DD	FLAT:??_R1A@?0A@A@CWnd@@8
	DD	FLAT:??_R1A@?0A@A@CCmdTarget@@8
	DD	FLAT:??_R1A@?0A@A@CObject@@8
rdata$r	ENDS
;	COMDAT ??_R1A@?0A@A@CxSkinButton@@8
rdata$r	SEGMENT
??_R1A@?0A@A@CxSkinButton@@8 DD FLAT:??_R0?AVCxSkinButton@@@8 ; CxSkinButton::`RTTI Base Class Descriptor at (0,-1,0,0)'
	DD	04H
	DD	00H
	DD	0ffffffffH
	DD	00H
	DD	00H
rdata$r	ENDS
;	COMDAT ??_R1A@?0A@A@CButton@@8
rdata$r	SEGMENT
??_R1A@?0A@A@CButton@@8 DD FLAT:??_R0?AVCButton@@@8	; CButton::`RTTI Base Class Descriptor at (0,-1,0,0)'
	DD	03H
	DD	00H
	DD	0ffffffffH
	DD	00H
	DD	00H
rdata$r	ENDS
;	COMDAT ??_R0?AVCButton@@@8
_DATA	SEGMENT
??_R0?AVCButton@@@8 DD FLAT:??_7type_info@@6B@		; CButton `RTTI Type Descriptor'
	DD	00H
	DB	'.?AVCButton@@', 00H
_DATA	ENDS
;	COMDAT ??_R1A@?0A@A@CWnd@@8
rdata$r	SEGMENT
??_R1A@?0A@A@CWnd@@8 DD FLAT:??_R0?AVCWnd@@@8		; CWnd::`RTTI Base Class Descriptor at (0,-1,0,0)'
	DD	02H
	DD	00H
	DD	0ffffffffH
	DD	00H
	DD	00H
rdata$r	ENDS
;	COMDAT ??_R0?AVCWnd@@@8
_DATA	SEGMENT
??_R0?AVCWnd@@@8 DD FLAT:??_7type_info@@6B@		; CWnd `RTTI Type Descriptor'
	DD	00H
	DB	'.?AVCWnd@@', 00H
_DATA	ENDS
;	COMDAT ??_R1A@?0A@A@CCmdTarget@@8
rdata$r	SEGMENT
??_R1A@?0A@A@CCmdTarget@@8 DD FLAT:??_R0?AVCCmdTarget@@@8 ; CCmdTarget::`RTTI Base Class Descriptor at (0,-1,0,0)'
	DD	01H
	DD	00H
	DD	0ffffffffH
	DD	00H
	DD	00H
rdata$r	ENDS
;	COMDAT ??_R0?AVCCmdTarget@@@8
_DATA	SEGMENT
??_R0?AVCCmdTarget@@@8 DD FLAT:??_7type_info@@6B@	; CCmdTarget `RTTI Type Descriptor'
	DD	00H
	DB	'.?AVCCmdTarget@@', 00H
_DATA	ENDS
;	COMDAT ??_R1A@?0A@A@CObject@@8
rdata$r	SEGMENT
??_R1A@?0A@A@CObject@@8 DD FLAT:??_R0?AVCObject@@@8	; CObject::`RTTI Base Class Descriptor at (0,-1,0,0)'
	DD	00H
	DD	00H
	DD	0ffffffffH
	DD	00H
	DD	00H
rdata$r	ENDS
;	COMDAT ??_R0?AVCObject@@@8
_DATA	SEGMENT
??_R0?AVCObject@@@8 DD FLAT:??_7type_info@@6B@		; CObject `RTTI Type Descriptor'
	DD	00H
	DB	'.?AVCObject@@', 00H
; Function compile flags: /Odt
_DATA	ENDS
_TEXT	SEGMENT
tv151 = -28						; size = 4
_this$ = -24						; size = 4
$T198946 = -20						; size = 4
$T198945 = -16						; size = 4
__$EHRec$ = -12						; size = 12
??0CxSkinButton@@QAE@XZ PROC NEAR			; CxSkinButton::CxSkinButton
; _this$ = ecx

; 228  : {

  006e0	55		 push	 ebp
  006e1	8b ec		 mov	 ebp, esp
  006e3	6a ff		 push	 -1
  006e5	68 00 00 00 00	 push	 __ehhandler$??0CxSkinButton@@QAE@XZ
  006ea	64 a1 00 00 00
	00		 mov	 eax, DWORD PTR fs:__except_list
  006f0	50		 push	 eax
  006f1	64 89 25 00 00
	00 00		 mov	 DWORD PTR fs:__except_list, esp
  006f8	83 ec 10	 sub	 esp, 16			; 00000010H
  006fb	89 4d e8	 mov	 DWORD PTR _this$[ebp], ecx
  006fe	8b 4d e8	 mov	 ecx, DWORD PTR _this$[ebp]
  00701	e8 00 00 00 00	 call	 ??0CButton@@QAE@XZ	; CButton::CButton
  00706	c7 45 fc 00 00
	00 00		 mov	 DWORD PTR __$EHRec$[ebp+8], 0
  0070d	8b 45 e8	 mov	 eax, DWORD PTR _this$[ebp]
  00710	c7 00 00 00 00
	00		 mov	 DWORD PTR [eax], OFFSET FLAT:??_7CxSkinButton@@6B@
  00716	8b 4d e8	 mov	 ecx, DWORD PTR _this$[ebp]
  00719	83 c1 58	 add	 ecx, 88			; 00000058H
  0071c	ff 15 00 00 00
	00		 call	 DWORD PTR __imp_??0?$CStringT@DV?$StrTraitMFC_DLL@DV?$ChTraitsCRT@D@ATL@@@@@ATL@@QAE@XZ
  00722	c6 45 fc 01	 mov	 BYTE PTR __$EHRec$[ebp+8], 1
  00726	8b 4d e8	 mov	 ecx, DWORD PTR _this$[ebp]
  00729	83 c1 60	 add	 ecx, 96			; 00000060H
  0072c	e8 00 00 00 00	 call	 ??0CPoint@@QAE@XZ	; CPoint::CPoint
  00731	8b 4d e8	 mov	 ecx, DWORD PTR _this$[ebp]
  00734	83 c1 7c	 add	 ecx, 124		; 0000007cH
  00737	e8 00 00 00 00	 call	 ??0CToolTipCtrl@@QAE@XZ	; CToolTipCtrl::CToolTipCtrl
  0073c	c6 45 fc 02	 mov	 BYTE PTR __$EHRec$[ebp+8], 2

; 229  : 	m_DrawMode=1;			// normal drawing mode

  00740	8b 4d e8	 mov	 ecx, DWORD PTR _this$[ebp]
  00743	66 c7 81 20 01
	00 00 01 00	 mov	 WORD PTR [ecx+288], 1

; 230  : 	m_FocusRectMargin=0;	// disable focus dotted rect

  0074c	8b 55 e8	 mov	 edx, DWORD PTR _this$[ebp]
  0074f	66 c7 82 04 01
	00 00 00 00	 mov	 WORD PTR [edx+260], 0

; 231  : 	hClipRgn=NULL;			// no clipping region

  00758	8b 45 e8	 mov	 eax, DWORD PTR _this$[ebp]
  0075b	c7 80 18 01 00
	00 00 00 00 00	 mov	 DWORD PTR [eax+280], 0

; 232  : 	m_normalTextColor=GetSysColor(COLOR_BTNTEXT); // default button text color

  00765	6a 12		 push	 18			; 00000012H
  00767	ff 15 00 00 00
	00		 call	 DWORD PTR __imp__GetSysColor@4
  0076d	8b 4d e8	 mov	 ecx, DWORD PTR _this$[ebp]
  00770	89 81 08 01 00
	00		 mov	 DWORD PTR [ecx+264], eax

; 233  : 	m_downTextColor	= m_normalTextColor;

  00776	8b 55 e8	 mov	 edx, DWORD PTR _this$[ebp]
  00779	8b 45 e8	 mov	 eax, DWORD PTR _this$[ebp]
  0077c	8b 88 08 01 00
	00		 mov	 ecx, DWORD PTR [eax+264]
  00782	89 8a 0c 01 00
	00		 mov	 DWORD PTR [edx+268], ecx

; 234  : 	m_OverTextColor	= m_normalTextColor;

  00788	8b 55 e8	 mov	 edx, DWORD PTR _this$[ebp]
  0078b	8b 45 e8	 mov	 eax, DWORD PTR _this$[ebp]
  0078e	8b 88 08 01 00
	00		 mov	 ecx, DWORD PTR [eax+264]
  00794	89 8a 10 01 00
	00		 mov	 DWORD PTR [edx+272], ecx

; 235  : 	m_disableTextColor = m_normalTextColor;

  0079a	8b 55 e8	 mov	 edx, DWORD PTR _this$[ebp]
  0079d	8b 45 e8	 mov	 eax, DWORD PTR _this$[ebp]
  007a0	8b 88 08 01 00
	00		 mov	 ecx, DWORD PTR [eax+264]
  007a6	89 8a 14 01 00
	00		 mov	 DWORD PTR [edx+276], ecx

; 236  : 	m_button_down = m_tracking = m_Checked = false;

  007ac	8b 55 e8	 mov	 edx, DWORD PTR _this$[ebp]
  007af	c6 42 71 00	 mov	 BYTE PTR [edx+113], 0
  007b3	8b 45 e8	 mov	 eax, DWORD PTR _this$[ebp]
  007b6	c6 40 78 00	 mov	 BYTE PTR [eax+120], 0
  007ba	8b 4d e8	 mov	 ecx, DWORD PTR _this$[ebp]
  007bd	c6 41 79 00	 mov	 BYTE PTR [ecx+121], 0

; 237  : 
; 238  : 	m_bNormal = NULL;

  007c1	8b 55 e8	 mov	 edx, DWORD PTR _this$[ebp]
  007c4	c7 82 ec 00 00
	00 00 00 00 00	 mov	 DWORD PTR [edx+236], 0

; 239  : 	m_bDown = NULL;

  007ce	8b 45 e8	 mov	 eax, DWORD PTR _this$[ebp]
  007d1	c7 80 f0 00 00
	00 00 00 00 00	 mov	 DWORD PTR [eax+240], 0

; 240  : 	m_bOver = NULL;

  007db	8b 4d e8	 mov	 ecx, DWORD PTR _this$[ebp]
  007de	c7 81 fc 00 00
	00 00 00 00 00	 mov	 DWORD PTR [ecx+252], 0

; 241  : 	m_bDisabled = NULL;

  007e8	8b 55 e8	 mov	 edx, DWORD PTR _this$[ebp]
  007eb	c7 82 f4 00 00
	00 00 00 00 00	 mov	 DWORD PTR [edx+244], 0

; 242  : 	m_bMask = NULL;

  007f5	8b 45 e8	 mov	 eax, DWORD PTR _this$[ebp]
  007f8	c7 80 f8 00 00
	00 00 00 00 00	 mov	 DWORD PTR [eax+248], 0

; 243  : 	m_bFocus = NULL;

  00802	8b 4d e8	 mov	 ecx, DWORD PTR _this$[ebp]
  00805	c7 81 00 01 00
	00 00 00 00 00	 mov	 DWORD PTR [ecx+256], 0

; 244  : 
; 245  : 	m_bRClick = false;

  0080f	8b 55 e8	 mov	 edx, DWORD PTR _this$[ebp]
  00812	c7 42 54 00 00
	00 00		 mov	 DWORD PTR [edx+84], 0

; 246  : 	m_bSetMask = false;

  00819	8b 45 e8	 mov	 eax, DWORD PTR _this$[ebp]
  0081c	c6 40 70 00	 mov	 BYTE PTR [eax+112], 0

; 247  : 	
; 248  : 	m_nTextOffsetX = 0;

  00820	8b 4d e8	 mov	 ecx, DWORD PTR _this$[ebp]
  00823	c7 41 68 00 00
	00 00		 mov	 DWORD PTR [ecx+104], 0

; 249  : 	m_nTextOffsetY = 0;

  0082a	8b 55 e8	 mov	 edx, DWORD PTR _this$[ebp]
  0082d	c7 42 6c 00 00
	00 00		 mov	 DWORD PTR [edx+108], 0

; 250  : 	m_strToolTip = "";

  00834	68 00 00 00 00	 push	 OFFSET FLAT:$SG197746
  00839	8b 4d e8	 mov	 ecx, DWORD PTR _this$[ebp]
  0083c	83 c1 58	 add	 ecx, 88			; 00000058H
  0083f	ff 15 00 00 00
	00		 call	 DWORD PTR __imp_??4?$CStringT@DV?$StrTraitMFC_DLL@DV?$ChTraitsCRT@D@ATL@@@@@ATL@@QAEAAV01@PBD@Z

; 251  : 	m_pToolTip = new CCWToolTips();

  00845	68 90 00 00 00	 push	 144			; 00000090H
  0084a	e8 00 00 00 00	 call	 ??2CObject@@SGPAXI@Z	; CObject::operator new
  0084f	89 45 ec	 mov	 DWORD PTR $T198946[ebp], eax
  00852	c6 45 fc 03	 mov	 BYTE PTR __$EHRec$[ebp+8], 3
  00856	83 7d ec 00	 cmp	 DWORD PTR $T198946[ebp], 0
  0085a	74 0d		 je	 SHORT $L198947
  0085c	8b 4d ec	 mov	 ecx, DWORD PTR $T198946[ebp]
  0085f	e8 00 00 00 00	 call	 ??0CCWToolTips@@QAE@XZ	; CCWToolTips::CCWToolTips
  00864	89 45 e4	 mov	 DWORD PTR tv151[ebp], eax
  00867	eb 07		 jmp	 SHORT $L198948
$L198947:
  00869	c7 45 e4 00 00
	00 00		 mov	 DWORD PTR tv151[ebp], 0
$L198948:
  00870	8b 45 e4	 mov	 eax, DWORD PTR tv151[ebp]
  00873	89 45 f0	 mov	 DWORD PTR $T198945[ebp], eax
  00876	c6 45 fc 02	 mov	 BYTE PTR __$EHRec$[ebp+8], 2
  0087a	8b 4d e8	 mov	 ecx, DWORD PTR _this$[ebp]
  0087d	8b 55 f0	 mov	 edx, DWORD PTR $T198945[ebp]
  00880	89 51 5c	 mov	 DWORD PTR [ecx+92], edx

; 252  : 
; 253  : 
; 254  : }

  00883	c7 45 fc ff ff
	ff ff		 mov	 DWORD PTR __$EHRec$[ebp+8], -1
  0088a	8b 45 e8	 mov	 eax, DWORD PTR _this$[ebp]
  0088d	8b 4d f4	 mov	 ecx, DWORD PTR __$EHRec$[ebp]
  00890	64 89 0d 00 00
	00 00		 mov	 DWORD PTR fs:__except_list, ecx
  00897	8b e5		 mov	 esp, ebp
  00899	5d		 pop	 ebp
  0089a	c3		 ret	 0
_TEXT	ENDS
text$x	SEGMENT
$L198949:
  00000	8b 4d e8	 mov	 ecx, DWORD PTR _this$[ebp]
  00003	e9 00 00 00 00	 jmp	 ??1CButton@@UAE@XZ	; CButton::~CButton
$L198950:
  00008	8b 4d e8	 mov	 ecx, DWORD PTR _this$[ebp]
  0000b	83 c1 58	 add	 ecx, 88			; 00000058H
  0000e	ff 25 00 00 00
	00		 jmp	 DWORD PTR __imp_??1?$CStringT@DV?$StrTraitMFC_DLL@DV?$ChTraitsCRT@D@ATL@@@@@ATL@@QAE@XZ
$L198951:
  00014	8b 4d e8	 mov	 ecx, DWORD PTR _this$[ebp]
  00017	83 c1 7c	 add	 ecx, 124		; 0000007cH
  0001a	e9 00 00 00 00	 jmp	 ??1CToolTipCtrl@@UAE@XZ	; CToolTipCtrl::~CToolTipCtrl
$L198952:
  0001f	8b 45 ec	 mov	 eax, DWORD PTR $T198946[ebp]
  00022	50		 push	 eax
  00023	e8 00 00 00 00	 call	 ??3CObject@@SGXPAX@Z	; CObject::operator delete
  00028	c3		 ret	 0
__ehhandler$??0CxSkinButton@@QAE@XZ:
  00029	b8 00 00 00 00	 mov	 eax, OFFSET FLAT:$T198956
  0002e	e9 00 00 00 00	 jmp	 ___CxxFrameHandler
text$x	ENDS
??0CxSkinButton@@QAE@XZ ENDP				; CxSkinButton::CxSkinButton
PUBLIC	??1CxSkinButton@@UAE@XZ				; CxSkinButton::~CxSkinButton
; Function compile flags: /Odt
;	COMDAT ??_GCxSkinButton@@UAEPAXI@Z
_TEXT	SEGMENT
_this$ = -4						; size = 4
___flags$ = 8						; size = 4
??_GCxSkinButton@@UAEPAXI@Z PROC NEAR			; CxSkinButton::`scalar deleting destructor', COMDAT
; _this$ = ecx
  00000	55		 push	 ebp
  00001	8b ec		 mov	 ebp, esp
  00003	51		 push	 ecx
  00004	89 4d fc	 mov	 DWORD PTR _this$[ebp], ecx
  00007	8b 4d fc	 mov	 ecx, DWORD PTR _this$[ebp]
  0000a	e8 00 00 00 00	 call	 ??1CxSkinButton@@UAE@XZ	; CxSkinButton::~CxSkinButton
  0000f	8b 45 08	 mov	 eax, DWORD PTR ___flags$[ebp]
  00012	83 e0 01	 and	 eax, 1
  00015	74 09		 je	 SHORT $L197754
  00017	8b 4d fc	 mov	 ecx, DWORD PTR _this$[ebp]
  0001a	51		 push	 ecx
  0001b	e8 00 00 00 00	 call	 ??3CObject@@SGXPAX@Z	; CObject::operator delete
$L197754:
  00020	8b 45 fc	 mov	 eax, DWORD PTR _this$[ebp]
  00023	8b e5		 mov	 esp, ebp
  00025	5d		 pop	 ebp
  00026	c2 04 00	 ret	 4
??_GCxSkinButton@@UAEPAXI@Z ENDP			; CxSkinButton::`scalar deleting destructor'
_TEXT	ENDS
EXTRN	__imp__DeleteObject@4:NEAR
xdata$x	SEGMENT
$T198974 DD	0ffffffffH
	DD	FLAT:$L198968
	DD	00H
	DD	FLAT:$L198969
	DD	01H
	DD	FLAT:$L198970
$T198972 DD	019930520H
	DD	03H
	DD	FLAT:$T198974
	DD	2 DUP(00H)
	DD	2 DUP(00H)
; Function compile flags: /Odt
xdata$x	ENDS
_TEXT	SEGMENT
tv84 = -28						; size = 4
_this$ = -24						; size = 4
$T198965 = -20						; size = 4
$T198964 = -16						; size = 4
__$EHRec$ = -12						; size = 12
??1CxSkinButton@@UAE@XZ PROC NEAR			; CxSkinButton::~CxSkinButton
; _this$ = ecx

; 257  : {

  008a0	55		 push	 ebp
  008a1	8b ec		 mov	 ebp, esp
  008a3	6a ff		 push	 -1
  008a5	68 00 00 00 00	 push	 __ehhandler$??1CxSkinButton@@UAE@XZ
  008aa	64 a1 00 00 00
	00		 mov	 eax, DWORD PTR fs:__except_list
  008b0	50		 push	 eax
  008b1	64 89 25 00 00
	00 00		 mov	 DWORD PTR fs:__except_list, esp
  008b8	83 ec 10	 sub	 esp, 16			; 00000010H
  008bb	89 4d e8	 mov	 DWORD PTR _this$[ebp], ecx
  008be	8b 45 e8	 mov	 eax, DWORD PTR _this$[ebp]
  008c1	c7 00 00 00 00
	00		 mov	 DWORD PTR [eax], OFFSET FLAT:??_7CxSkinButton@@6B@
  008c7	c7 45 fc 02 00
	00 00		 mov	 DWORD PTR __$EHRec$[ebp+8], 2

; 258  : 	if (hClipRgn) DeleteObject(hClipRgn);	// free clip region

  008ce	8b 4d e8	 mov	 ecx, DWORD PTR _this$[ebp]
  008d1	83 b9 18 01 00
	00 00		 cmp	 DWORD PTR [ecx+280], 0
  008d8	74 10		 je	 SHORT $L197758
  008da	8b 55 e8	 mov	 edx, DWORD PTR _this$[ebp]
  008dd	8b 82 18 01 00
	00		 mov	 eax, DWORD PTR [edx+280]
  008e3	50		 push	 eax
  008e4	ff 15 00 00 00
	00		 call	 DWORD PTR __imp__DeleteObject@4
$L197758:

; 259  : 
; 260  : 	delete m_pToolTip;

  008ea	8b 4d e8	 mov	 ecx, DWORD PTR _this$[ebp]
  008ed	8b 51 5c	 mov	 edx, DWORD PTR [ecx+92]
  008f0	89 55 ec	 mov	 DWORD PTR $T198965[ebp], edx
  008f3	8b 45 ec	 mov	 eax, DWORD PTR $T198965[ebp]
  008f6	89 45 f0	 mov	 DWORD PTR $T198964[ebp], eax
  008f9	83 7d f0 00	 cmp	 DWORD PTR $T198964[ebp], 0
  008fd	74 12		 je	 SHORT $L198966
  008ff	6a 01		 push	 1
  00901	8b 4d f0	 mov	 ecx, DWORD PTR $T198964[ebp]
  00904	8b 11		 mov	 edx, DWORD PTR [ecx]
  00906	8b 4d f0	 mov	 ecx, DWORD PTR $T198964[ebp]
  00909	ff 52 04	 call	 DWORD PTR [edx+4]
  0090c	89 45 e4	 mov	 DWORD PTR tv84[ebp], eax
  0090f	eb 07		 jmp	 SHORT $L197757
$L198966:
  00911	c7 45 e4 00 00
	00 00		 mov	 DWORD PTR tv84[ebp], 0
$L197757:

; 261  : 
; 262  : }

  00918	c6 45 fc 01	 mov	 BYTE PTR __$EHRec$[ebp+8], 1
  0091c	8b 4d e8	 mov	 ecx, DWORD PTR _this$[ebp]
  0091f	83 c1 7c	 add	 ecx, 124		; 0000007cH
  00922	e8 00 00 00 00	 call	 ??1CToolTipCtrl@@UAE@XZ	; CToolTipCtrl::~CToolTipCtrl
  00927	c6 45 fc 00	 mov	 BYTE PTR __$EHRec$[ebp+8], 0
  0092b	8b 4d e8	 mov	 ecx, DWORD PTR _this$[ebp]
  0092e	83 c1 58	 add	 ecx, 88			; 00000058H
  00931	ff 15 00 00 00
	00		 call	 DWORD PTR __imp_??1?$CStringT@DV?$StrTraitMFC_DLL@DV?$ChTraitsCRT@D@ATL@@@@@ATL@@QAE@XZ
  00937	c7 45 fc ff ff
	ff ff		 mov	 DWORD PTR __$EHRec$[ebp+8], -1
  0093e	8b 4d e8	 mov	 ecx, DWORD PTR _this$[ebp]
  00941	e8 00 00 00 00	 call	 ??1CButton@@UAE@XZ	; CButton::~CButton
  00946	8b 4d f4	 mov	 ecx, DWORD PTR __$EHRec$[ebp]
  00949	64 89 0d 00 00
	00 00		 mov	 DWORD PTR fs:__except_list, ecx
  00950	8b e5		 mov	 esp, ebp
  00952	5d		 pop	 ebp
  00953	c3		 ret	 0
_TEXT	ENDS
text$x	SEGMENT
$L198968:
  00033	8b 4d e8	 mov	 ecx, DWORD PTR _this$[ebp]
  00036	e9 00 00 00 00	 jmp	 ??1CButton@@UAE@XZ	; CButton::~CButton
$L198969:
  0003b	8b 4d e8	 mov	 ecx, DWORD PTR _this$[ebp]
  0003e	83 c1 58	 add	 ecx, 88			; 00000058H
  00041	ff 25 00 00 00
	00		 jmp	 DWORD PTR __imp_??1?$CStringT@DV?$StrTraitMFC_DLL@DV?$ChTraitsCRT@D@ATL@@@@@ATL@@QAE@XZ
$L198970:
  00047	8b 4d e8	 mov	 ecx, DWORD PTR _this$[ebp]
  0004a	83 c1 7c	 add	 ecx, 124		; 0000007cH
  0004d	e9 00 00 00 00	 jmp	 ??1CToolTipCtrl@@UAE@XZ	; CToolTipCtrl::~CToolTipCtrl
__ehhandler$??1CxSkinButton@@UAE@XZ:
  00052	b8 00 00 00 00	 mov	 eax, OFFSET FLAT:$T198972
  00057	e9 00 00 00 00	 jmp	 ___CxxFrameHandler
text$x	ENDS
??1CxSkinButton@@UAE@XZ ENDP				; CxSkinButton::~CxSkinButton
PUBLIC	?GetThisMessageMap@CxSkinButton@@KGPBUAFX_MSGMAP@@XZ ; CxSkinButton::GetThisMessageMap
; Function compile flags: /Odt
_TEXT	SEGMENT
?GetThisMessageMap@CxSkinButton@@KGPBUAFX_MSGMAP@@XZ PROC NEAR ; CxSkinButton::GetThisMessageMap

; 264  : BEGIN_MESSAGE_MAP(CxSkinButton, CButton)

  00960	55		 push	 ebp
  00961	8b ec		 mov	 ebp, esp
  00963	b8 00 00 00 00	 mov	 eax, OFFSET FLAT:?messageMap@CxSkinButton@@1UAFX_MSGMAP@@B ; CxSkinButton::messageMap
  00968	5d		 pop	 ebp
  00969	c3		 ret	 0
?GetThisMessageMap@CxSkinButton@@KGPBUAFX_MSGMAP@@XZ ENDP ; CxSkinButton::GetThisMessageMap
; Function compile flags: /Odt
_this$ = -4						; size = 4
?GetMessageMap@CxSkinButton@@MBEPBUAFX_MSGMAP@@XZ PROC NEAR ; CxSkinButton::GetMessageMap
; _this$ = ecx

; 264  : BEGIN_MESSAGE_MAP(CxSkinButton, CButton)

  00970	55		 push	 ebp
  00971	8b ec		 mov	 ebp, esp
  00973	51		 push	 ecx
  00974	89 4d fc	 mov	 DWORD PTR _this$[ebp], ecx
  00977	b8 00 00 00 00	 mov	 eax, OFFSET FLAT:?messageMap@CxSkinButton@@1UAFX_MSGMAP@@B ; CxSkinButton::messageMap
  0097c	8b e5		 mov	 esp, ebp
  0097e	5d		 pop	 ebp
  0097f	c3		 ret	 0
?GetMessageMap@CxSkinButton@@MBEPBUAFX_MSGMAP@@XZ ENDP	; CxSkinButton::GetMessageMap
_TEXT	ENDS
PUBLIC	?GetButtonStyle@CButton@@QBEIXZ			; CButton::GetButtonStyle
EXTRN	?ModifyStyle@CWnd@@QAEHKKI@Z:NEAR		; CWnd::ModifyStyle
EXTRN	?PreSubclassWindow@CWnd@@UAEXXZ:NEAR		; CWnd::PreSubclassWindow
; Function compile flags: /Odt
_TEXT	SEGMENT
_this$ = -4						; size = 4
?PreSubclassWindow@CxSkinButton@@MAEXXZ PROC NEAR	; CxSkinButton::PreSubclassWindow
; _this$ = ecx

; 287  : {

  00980	55		 push	 ebp
  00981	8b ec		 mov	 ebp, esp
  00983	51		 push	 ecx
  00984	89 4d fc	 mov	 DWORD PTR _this$[ebp], ecx

; 288  : 	m_Style=GetButtonStyle();	///get specific BS_ styles

  00987	8b 4d fc	 mov	 ecx, DWORD PTR _this$[ebp]
  0098a	e8 00 00 00 00	 call	 ?GetButtonStyle@CButton@@QBEIXZ ; CButton::GetButtonStyle
  0098f	8b 4d fc	 mov	 ecx, DWORD PTR _this$[ebp]
  00992	89 41 74	 mov	 DWORD PTR [ecx+116], eax

; 289  : 	if ((m_Style & BS_AUTOCHECKBOX)==BS_AUTOCHECKBOX)

  00995	8b 55 fc	 mov	 edx, DWORD PTR _this$[ebp]
  00998	8b 42 74	 mov	 eax, DWORD PTR [edx+116]
  0099b	83 e0 03	 and	 eax, 3
  0099e	83 f8 03	 cmp	 eax, 3
  009a1	75 0c		 jne	 SHORT $L197839

; 290  : //		||((m_Style & BS_CHECKBOX)==BS_CHECKBOX))
; 291  : 		m_Style=BS_CHECKBOX;

  009a3	8b 4d fc	 mov	 ecx, DWORD PTR _this$[ebp]
  009a6	c7 41 74 02 00
	00 00		 mov	 DWORD PTR [ecx+116], 2

; 292  : 	else if ((m_Style & BS_AUTORADIOBUTTON)==BS_AUTORADIOBUTTON)

  009ad	eb 24		 jmp	 SHORT $L197840
$L197839:
  009af	8b 55 fc	 mov	 edx, DWORD PTR _this$[ebp]
  009b2	8b 42 74	 mov	 eax, DWORD PTR [edx+116]
  009b5	83 e0 09	 and	 eax, 9
  009b8	83 f8 09	 cmp	 eax, 9
  009bb	75 0c		 jne	 SHORT $L197841

; 293  : //			||((m_Style & BS_RADIOBUTTON)==BS_RADIOBUTTON))
; 294  : 		m_Style=BS_RADIOBUTTON;

  009bd	8b 4d fc	 mov	 ecx, DWORD PTR _this$[ebp]
  009c0	c7 41 74 04 00
	00 00		 mov	 DWORD PTR [ecx+116], 4

; 295  : 	else { m_Style=BS_PUSHBUTTON; }

  009c7	eb 0a		 jmp	 SHORT $L197840
$L197841:
  009c9	8b 55 fc	 mov	 edx, DWORD PTR _this$[ebp]
  009cc	c7 42 74 00 00
	00 00		 mov	 DWORD PTR [edx+116], 0
$L197840:

; 296  : 
; 297  : 	CButton::PreSubclassWindow();

  009d3	8b 4d fc	 mov	 ecx, DWORD PTR _this$[ebp]
  009d6	e8 00 00 00 00	 call	 ?PreSubclassWindow@CWnd@@UAEXXZ ; CWnd::PreSubclassWindow

; 298  : 	ModifyStyle(0, BS_OWNERDRAW);

  009db	6a 00		 push	 0
  009dd	6a 0b		 push	 11			; 0000000bH
  009df	6a 00		 push	 0
  009e1	8b 4d fc	 mov	 ecx, DWORD PTR _this$[ebp]
  009e4	e8 00 00 00 00	 call	 ?ModifyStyle@CWnd@@QAEHKKI@Z ; CWnd::ModifyStyle

; 299  : }

  009e9	8b e5		 mov	 esp, ebp
  009eb	5d		 pop	 ebp
  009ec	c3		 ret	 0
?PreSubclassWindow@CxSkinButton@@MAEXXZ ENDP		; CxSkinButton::PreSubclassWindow
; Function compile flags: /Odt
_this$ = -4						; size = 4
_pDC$ = 8						; size = 4
?OnEraseBkgnd@CxSkinButton@@QAEHPAVCDC@@@Z PROC NEAR	; CxSkinButton::OnEraseBkgnd
; _this$ = ecx

; 302  : {	return 1; }	// doesn't erase the button background

  009f0	55		 push	 ebp
  009f1	8b ec		 mov	 ebp, esp
  009f3	51		 push	 ecx
  009f4	89 4d fc	 mov	 DWORD PTR _this$[ebp], ecx
  009f7	b8 01 00 00 00	 mov	 eax, 1
  009fc	8b e5		 mov	 esp, ebp
  009fe	5d		 pop	 ebp
  009ff	c2 04 00	 ret	 4
?OnEraseBkgnd@CxSkinButton@@QAEHPAVCDC@@@Z ENDP		; CxSkinButton::OnEraseBkgnd
_TEXT	ENDS
PUBLIC	?GetState@CButton@@QBEIXZ			; CButton::GetState
PUBLIC	?SetState@CButton@@QAEXH@Z			; CButton::SetState
PUBLIC	??8ATL@@YA_NABV?$CStringT@DV?$StrTraitMFC_DLL@DV?$ChTraitsCRT@D@ATL@@@@@0@PBD@Z ; ATL::operator==
PUBLIC	?DrawTextA@CDC@@QAEHABV?$CStringT@DV?$StrTraitMFC_DLL@DV?$ChTraitsCRT@D@ATL@@@@@ATL@@PAUtagRECT@@I@Z ; CDC::DrawTextA
PUBLIC	?DrawEdge@CDC@@QAEHPAUtagRECT@@II@Z		; CDC::DrawEdge
PUBLIC	??0CFont@@QAE@XZ				; CFont::CFont
PUBLIC	?CreateFontA@CFont@@QAEHHHHHHEEEEEEEEPBD@Z	; CFont::CreateFontA
PUBLIC	??1CFont@@UAE@XZ				; CFont::~CFont
PUBLIC	?DrawBitmap@CxSkinButton@@QAEXPAVCDC@@PAVCDibBitmap@@UtagRECT@@H@Z ; CxSkinButton::DrawBitmap
EXTRN	?FromHandle@CDC@@SGPAV1@PAUHDC__@@@Z:NEAR	; CDC::FromHandle
EXTRN	?SetBkMode@CDC@@QAEHH@Z:NEAR			; CDC::SetBkMode
EXTRN	__imp__GetCursorPos@4:NEAR
EXTRN	__imp__WindowFromPoint@8:NEAR
EXTRN	__imp__DrawFocusRect@8:NEAR
EXTRN	__imp__OffsetRect@12:NEAR
EXTRN	?FillSolidRect@CDC@@QAEXPBUtagRECT@@K@Z:NEAR	; CDC::FillSolidRect
EXTRN	__imp__GetCapture@0:NEAR
EXTRN	?GetWindowTextA@CWnd@@QBEXAAV?$CStringT@DV?$StrTraitMFC_DLL@DV?$ChTraitsCRT@D@ATL@@@@@ATL@@@Z:NEAR ; CWnd::GetWindowTextA
xdata$x	SEGMENT
$T198986 DD	0ffffffffH
	DD	FLAT:$L198981
	DD	00H
	DD	FLAT:$L198982
$T198984 DD	019930520H
	DD	02H
	DD	FLAT:$T198986
	DD	2 DUP(00H)
	DD	2 DUP(00H)
; Function compile flags: /Odt
xdata$x	ENDS
_TEXT	SEGMENT
_this$ = -112						; size = 4
$T198980 = -108						; size = 16
_i$197855 = -92						; size = 4
_i$197853 = -88						; size = 4
_mouse_position$ = -84					; size = 8
_font$ = -76						; size = 8
_r$ = -68						; size = 16
_cy$ = -52						; size = 4
_pDC$ = -48						; size = 4
_tr$ = -44						; size = 16
_pOldFont$ = -28					; size = 4
_cx$ = -24						; size = 4
_sCaption$ = -20					; size = 4
_colorText$ = -16					; size = 4
__$EHRec$ = -12						; size = 12
_lpDrawItemStruct$ = 8					; size = 4
?DrawItem@CxSkinButton@@UAEXPAUtagDRAWITEMSTRUCT@@@Z PROC NEAR ; CxSkinButton::DrawItem
; _this$ = ecx

; 305  : {

  00a10	55		 push	 ebp
  00a11	8b ec		 mov	 ebp, esp
  00a13	6a ff		 push	 -1
  00a15	68 00 00 00 00	 push	 __ehhandler$?DrawItem@CxSkinButton@@UAEXPAUtagDRAWITEMSTRUCT@@@Z
  00a1a	64 a1 00 00 00
	00		 mov	 eax, DWORD PTR fs:__except_list
  00a20	50		 push	 eax
  00a21	64 89 25 00 00
	00 00		 mov	 DWORD PTR fs:__except_list, esp
  00a28	83 ec 64	 sub	 esp, 100		; 00000064H
  00a2b	89 4d 90	 mov	 DWORD PTR _this$[ebp], ecx

; 306  : 	if( m_strToolTip == "MV" )

  00a2e	68 00 00 00 00	 push	 OFFSET FLAT:$SG197852
  00a33	8b 45 90	 mov	 eax, DWORD PTR _this$[ebp]
  00a36	83 c0 58	 add	 eax, 88			; 00000058H
  00a39	50		 push	 eax
  00a3a	e8 00 00 00 00	 call	 ??8ATL@@YA_NABV?$CStringT@DV?$StrTraitMFC_DLL@DV?$ChTraitsCRT@D@ATL@@@@@0@PBD@Z ; ATL::operator==
  00a3f	83 c4 08	 add	 esp, 8
  00a42	0f b6 c8	 movzx	 ecx, al
  00a45	85 c9		 test	 ecx, ecx
  00a47	74 07		 je	 SHORT $L197851

; 307  : 	{
; 308  : 		int i = 0;

  00a49	c7 45 a8 00 00
	00 00		 mov	 DWORD PTR _i$197853[ebp], 0
$L197851:

; 309  : 	}
; 310  : 	if(m_bMask != NULL)

  00a50	8b 55 90	 mov	 edx, DWORD PTR _this$[ebp]
  00a53	83 ba f8 00 00
	00 00		 cmp	 DWORD PTR [edx+248], 0
  00a5a	74 07		 je	 SHORT $L197854

; 311  : 		int i = 0;

  00a5c	c7 45 a4 00 00
	00 00		 mov	 DWORD PTR _i$197855[ebp], 0
$L197854:

; 312  :     ASSERT (lpDrawItemStruct);
; 313  :     //TRACE("* Captured: %08X\n", ::GetCapture());
; 314  : 
; 315  :     //Check if the button state in not in inconsistent mode...
; 316  :     POINT mouse_position;
; 317  :     if ((m_button_down) && (::GetCapture() == m_hWnd) && (::GetCursorPos(&mouse_position))){

  00a63	8b 45 90	 mov	 eax, DWORD PTR _this$[ebp]
  00a66	0f b6 48 79	 movzx	 ecx, BYTE PTR [eax+121]
  00a6a	85 c9		 test	 ecx, ecx
  00a6c	74 6c		 je	 SHORT $L197858
  00a6e	ff 15 00 00 00
	00		 call	 DWORD PTR __imp__GetCapture@0
  00a74	8b 55 90	 mov	 edx, DWORD PTR _this$[ebp]
  00a77	3b 42 20	 cmp	 eax, DWORD PTR [edx+32]
  00a7a	75 5e		 jne	 SHORT $L197858
  00a7c	8d 45 ac	 lea	 eax, DWORD PTR _mouse_position$[ebp]
  00a7f	50		 push	 eax
  00a80	ff 15 00 00 00
	00		 call	 DWORD PTR __imp__GetCursorPos@4
  00a86	85 c0		 test	 eax, eax
  00a88	74 50		 je	 SHORT $L197858

; 318  : 		if (::WindowFromPoint(mouse_position) == m_hWnd){

  00a8a	8b 4d b0	 mov	 ecx, DWORD PTR _mouse_position$[ebp+4]
  00a8d	51		 push	 ecx
  00a8e	8b 55 ac	 mov	 edx, DWORD PTR _mouse_position$[ebp]
  00a91	52		 push	 edx
  00a92	ff 15 00 00 00
	00		 call	 DWORD PTR __imp__WindowFromPoint@8
  00a98	8b 4d 90	 mov	 ecx, DWORD PTR _this$[ebp]
  00a9b	3b 41 20	 cmp	 eax, DWORD PTR [ecx+32]
  00a9e	75 1e		 jne	 SHORT $L197859

; 319  : 			if ((GetState() & BST_PUSHED) != BST_PUSHED) {

  00aa0	8b 4d 90	 mov	 ecx, DWORD PTR _this$[ebp]
  00aa3	e8 00 00 00 00	 call	 ?GetState@CButton@@QBEIXZ ; CButton::GetState
  00aa8	83 e0 04	 and	 eax, 4
  00aab	75 0f		 jne	 SHORT $L197860

; 320  : 				//TRACE("* Inconsistency up detected! Fixing.\n");
; 321  : 				SetState(TRUE);

  00aad	6a 01		 push	 1
  00aaf	8b 4d 90	 mov	 ecx, DWORD PTR _this$[ebp]
  00ab2	e8 00 00 00 00	 call	 ?SetState@CButton@@QAEXH@Z ; CButton::SetState

; 322  : 				return;

  00ab7	e9 10 05 00 00	 jmp	 $L197850
$L197860:

; 323  : 			}
; 324  : 		} else {

  00abc	eb 1c		 jmp	 SHORT $L197858
$L197859:

; 325  : 			if ((GetState() & BST_PUSHED) == BST_PUSHED) {

  00abe	8b 4d 90	 mov	 ecx, DWORD PTR _this$[ebp]
  00ac1	e8 00 00 00 00	 call	 ?GetState@CButton@@QBEIXZ ; CButton::GetState
  00ac6	83 e0 04	 and	 eax, 4
  00ac9	74 0f		 je	 SHORT $L197858

; 326  : 				//TRACE("* Inconsistency up detected! Fixing.\n");
; 327  : 				SetState(FALSE);

  00acb	6a 00		 push	 0
  00acd	8b 4d 90	 mov	 ecx, DWORD PTR _this$[ebp]
  00ad0	e8 00 00 00 00	 call	 ?SetState@CButton@@QAEXH@Z ; CButton::SetState

; 328  : 				return;

  00ad5	e9 f2 04 00 00	 jmp	 $L197850
$L197858:

; 329  : 			}
; 330  : 		}
; 331  : 	}
; 332  : 	
; 333  :     //TRACE("* Drawing: %08x\n", lpDrawItemStruct->itemState);
; 334  : 	CString sCaption;

  00ada	8d 4d ec	 lea	 ecx, DWORD PTR _sCaption$[ebp]
  00add	ff 15 00 00 00
	00		 call	 DWORD PTR __imp_??0?$CStringT@DV?$StrTraitMFC_DLL@DV?$ChTraitsCRT@D@ATL@@@@@ATL@@QAE@XZ
  00ae3	c7 45 fc 00 00
	00 00		 mov	 DWORD PTR __$EHRec$[ebp+8], 0

; 335  : 	CDC *pDC = CDC::FromHandle(lpDrawItemStruct->hDC);	// get device context

  00aea	8b 55 08	 mov	 edx, DWORD PTR _lpDrawItemStruct$[ebp]
  00aed	8b 42 18	 mov	 eax, DWORD PTR [edx+24]
  00af0	50		 push	 eax
  00af1	e8 00 00 00 00	 call	 ?FromHandle@CDC@@SGPAV1@PAUHDC__@@@Z ; CDC::FromHandle
  00af6	89 45 d0	 mov	 DWORD PTR _pDC$[ebp], eax

; 336  : 	CFont font;

  00af9	8d 4d b4	 lea	 ecx, DWORD PTR _font$[ebp]
  00afc	e8 00 00 00 00	 call	 ??0CFont@@QAE@XZ	; CFont::CFont
  00b01	c6 45 fc 01	 mov	 BYTE PTR __$EHRec$[ebp+8], 1

; 337  : 	font.CreateFont(
; 338  : 			12,                        // nHeight
; 339  : 			0,                         // nWidth
; 340  : 			0,                         // nEscapement
; 341  : 			0,                         // nOrientation
; 342  : 			FW_NORMAL,                 // nWeight
; 343  : 			FALSE,                     // bItalic
; 344  : 			FALSE,                     // bUnderline
; 345  : 			0,                         // cStrikeOut
; 346  : 			ANSI_CHARSET,              // nCharSet
; 347  : 			OUT_DEFAULT_PRECIS,        // nOutPrecision
; 348  : 			CLIP_DEFAULT_PRECIS,       // nClipPrecision
; 349  : 			DEFAULT_QUALITY,           // nQuality
; 350  : 			DEFAULT_PITCH | FF_SWISS,  // nPitchAndFamily
; 351  : 			"");                 // lpszFacename

  00b05	68 00 00 00 00	 push	 OFFSET FLAT:$SG197866
  00b0a	6a 20		 push	 32			; 00000020H
  00b0c	6a 00		 push	 0
  00b0e	6a 00		 push	 0
  00b10	6a 00		 push	 0
  00b12	6a 00		 push	 0
  00b14	6a 00		 push	 0
  00b16	6a 00		 push	 0
  00b18	6a 00		 push	 0
  00b1a	68 90 01 00 00	 push	 400			; 00000190H
  00b1f	6a 00		 push	 0
  00b21	6a 00		 push	 0
  00b23	6a 00		 push	 0
  00b25	6a 0c		 push	 12			; 0000000cH
  00b27	8d 4d b4	 lea	 ecx, DWORD PTR _font$[ebp]
  00b2a	e8 00 00 00 00	 call	 ?CreateFontA@CFont@@QAEHHHHHHEEEEEEEEPBD@Z ; CFont::CreateFontA

; 352  : 	CFont *pOldFont = pDC->SelectObject(&font);

  00b2f	8d 4d b4	 lea	 ecx, DWORD PTR _font$[ebp]
  00b32	51		 push	 ecx
  00b33	8b 55 d0	 mov	 edx, DWORD PTR _pDC$[ebp]
  00b36	8b 02		 mov	 eax, DWORD PTR [edx]
  00b38	8b 4d d0	 mov	 ecx, DWORD PTR _pDC$[ebp]
  00b3b	ff 50 30	 call	 DWORD PTR [eax+48]
  00b3e	89 45 e4	 mov	 DWORD PTR _pOldFont$[ebp], eax

; 353  : 
; 354  : 	RECT r=lpDrawItemStruct->rcItem;					// context rectangle

  00b41	8b 4d 08	 mov	 ecx, DWORD PTR _lpDrawItemStruct$[ebp]
  00b44	83 c1 1c	 add	 ecx, 28			; 0000001cH
  00b47	8b 11		 mov	 edx, DWORD PTR [ecx]
  00b49	89 55 bc	 mov	 DWORD PTR _r$[ebp], edx
  00b4c	8b 41 04	 mov	 eax, DWORD PTR [ecx+4]
  00b4f	89 45 c0	 mov	 DWORD PTR _r$[ebp+4], eax
  00b52	8b 51 08	 mov	 edx, DWORD PTR [ecx+8]
  00b55	89 55 c4	 mov	 DWORD PTR _r$[ebp+8], edx
  00b58	8b 41 0c	 mov	 eax, DWORD PTR [ecx+12]
  00b5b	89 45 c8	 mov	 DWORD PTR _r$[ebp+12], eax

; 355  : 	int cx = r.right  - r.left ;						// get width

  00b5e	8b 4d c4	 mov	 ecx, DWORD PTR _r$[ebp+8]
  00b61	2b 4d bc	 sub	 ecx, DWORD PTR _r$[ebp]
  00b64	89 4d e8	 mov	 DWORD PTR _cx$[ebp], ecx

; 356  : 	int cy = r.bottom - r.top  ;						// get height

  00b67	8b 55 c8	 mov	 edx, DWORD PTR _r$[ebp+12]
  00b6a	2b 55 c0	 sub	 edx, DWORD PTR _r$[ebp+4]
  00b6d	89 55 cc	 mov	 DWORD PTR _cy$[ebp], edx

; 357  : 	// get text box position
; 358  : 	RECT tr={r.left+m_FocusRectMargin+2,r.top,r.right-m_FocusRectMargin-2,r.bottom};

  00b70	8b 45 90	 mov	 eax, DWORD PTR _this$[ebp]
  00b73	0f bf 88 04 01
	00 00		 movsx	 ecx, WORD PTR [eax+260]
  00b7a	8b 55 bc	 mov	 edx, DWORD PTR _r$[ebp]
  00b7d	8d 44 0a 02	 lea	 eax, DWORD PTR [edx+ecx+2]
  00b81	89 45 d4	 mov	 DWORD PTR _tr$[ebp], eax
  00b84	8b 4d c0	 mov	 ecx, DWORD PTR _r$[ebp+4]
  00b87	89 4d d8	 mov	 DWORD PTR _tr$[ebp+4], ecx
  00b8a	8b 55 90	 mov	 edx, DWORD PTR _this$[ebp]
  00b8d	0f bf 82 04 01
	00 00		 movsx	 eax, WORD PTR [edx+260]
  00b94	8b 4d c4	 mov	 ecx, DWORD PTR _r$[ebp+8]
  00b97	2b c8		 sub	 ecx, eax
  00b99	83 e9 02	 sub	 ecx, 2
  00b9c	89 4d dc	 mov	 DWORD PTR _tr$[ebp+8], ecx
  00b9f	8b 55 c8	 mov	 edx, DWORD PTR _r$[ebp+12]
  00ba2	89 55 e0	 mov	 DWORD PTR _tr$[ebp+12], edx

; 359  : 
; 360  : 	if(m_nTextOffsetX != 0 || m_nTextOffsetY != 0)

  00ba5	8b 45 90	 mov	 eax, DWORD PTR _this$[ebp]
  00ba8	83 78 68 00	 cmp	 DWORD PTR [eax+104], 0
  00bac	75 09		 jne	 SHORT $L197873
  00bae	8b 4d 90	 mov	 ecx, DWORD PTR _this$[ebp]
  00bb1	83 79 6c 00	 cmp	 DWORD PTR [ecx+108], 0
  00bb5	74 3b		 je	 SHORT $L197872
$L197873:

; 361  : 		tr = CRect(r.left + m_nTextOffsetX, r.top + m_nTextOffsetY, r.right, r.bottom);

  00bb7	8b 55 c8	 mov	 edx, DWORD PTR _r$[ebp+12]
  00bba	52		 push	 edx
  00bbb	8b 45 c4	 mov	 eax, DWORD PTR _r$[ebp+8]
  00bbe	50		 push	 eax
  00bbf	8b 4d 90	 mov	 ecx, DWORD PTR _this$[ebp]
  00bc2	8b 55 c0	 mov	 edx, DWORD PTR _r$[ebp+4]
  00bc5	03 51 6c	 add	 edx, DWORD PTR [ecx+108]
  00bc8	52		 push	 edx
  00bc9	8b 45 90	 mov	 eax, DWORD PTR _this$[ebp]
  00bcc	8b 4d bc	 mov	 ecx, DWORD PTR _r$[ebp]
  00bcf	03 48 68	 add	 ecx, DWORD PTR [eax+104]
  00bd2	51		 push	 ecx
  00bd3	8d 4d 94	 lea	 ecx, DWORD PTR $T198980[ebp]
  00bd6	e8 00 00 00 00	 call	 ??0CRect@@QAE@HHHH@Z	; CRect::CRect
  00bdb	8b 10		 mov	 edx, DWORD PTR [eax]
  00bdd	89 55 d4	 mov	 DWORD PTR _tr$[ebp], edx
  00be0	8b 48 04	 mov	 ecx, DWORD PTR [eax+4]
  00be3	89 4d d8	 mov	 DWORD PTR _tr$[ebp+4], ecx
  00be6	8b 50 08	 mov	 edx, DWORD PTR [eax+8]
  00be9	89 55 dc	 mov	 DWORD PTR _tr$[ebp+8], edx
  00bec	8b 40 0c	 mov	 eax, DWORD PTR [eax+12]
  00bef	89 45 e0	 mov	 DWORD PTR _tr$[ebp+12], eax
$L197872:

; 362  : 
; 363  : 	GetWindowText(sCaption);							// get button text

  00bf2	8d 4d ec	 lea	 ecx, DWORD PTR _sCaption$[ebp]
  00bf5	51		 push	 ecx
  00bf6	8b 4d 90	 mov	 ecx, DWORD PTR _this$[ebp]
  00bf9	e8 00 00 00 00	 call	 ?GetWindowTextA@CWnd@@QBEXAAV?$CStringT@DV?$StrTraitMFC_DLL@DV?$ChTraitsCRT@D@ATL@@@@@ATL@@@Z ; CWnd::GetWindowTextA

; 364  : 	pDC->SetBkMode(TRANSPARENT);

  00bfe	6a 01		 push	 1
  00c00	8b 4d d0	 mov	 ecx, DWORD PTR _pDC$[ebp]
  00c03	e8 00 00 00 00	 call	 ?SetBkMode@CDC@@QAEHH@Z	; CDC::SetBkMode

; 365  : 
; 366  : 	COLORREF colorText = m_normalTextColor;

  00c08	8b 55 90	 mov	 edx, DWORD PTR _this$[ebp]
  00c0b	8b 82 08 01 00
	00		 mov	 eax, DWORD PTR [edx+264]
  00c11	89 45 f0	 mov	 DWORD PTR _colorText$[ebp], eax

; 367  : 	// Select the correct skin 
; 368  : 	if (lpDrawItemStruct->itemState & ODS_DISABLED)

  00c14	8b 4d 08	 mov	 ecx, DWORD PTR _lpDrawItemStruct$[ebp]
  00c17	8b 51 10	 mov	 edx, DWORD PTR [ecx+16]
  00c1a	83 e2 04	 and	 edx, 4
  00c1d	0f 84 ce 00 00
	00		 je	 $L197876

; 369  : 	{	// DISABLED BUTTON
; 370  : 		if(m_bDisabled==NULL)

  00c23	8b 45 90	 mov	 eax, DWORD PTR _this$[ebp]
  00c26	83 b8 f4 00 00
	00 00		 cmp	 DWORD PTR [eax+244], 0
  00c2d	75 17		 jne	 SHORT $L197877

; 371  : 			 // no skin selected for disabled state -> standard button
; 372  : 			pDC->FillSolidRect(&r,GetSysColor(COLOR_BTNFACE));

  00c2f	6a 0f		 push	 15			; 0000000fH
  00c31	ff 15 00 00 00
	00		 call	 DWORD PTR __imp__GetSysColor@4
  00c37	50		 push	 eax
  00c38	8d 4d bc	 lea	 ecx, DWORD PTR _r$[ebp]
  00c3b	51		 push	 ecx
  00c3c	8b 4d d0	 mov	 ecx, DWORD PTR _pDC$[ebp]
  00c3f	e8 00 00 00 00	 call	 ?FillSolidRect@CDC@@QAEXPBUtagRECT@@K@Z ; CDC::FillSolidRect

; 373  : 		else // paint the skin

  00c44	eb 3d		 jmp	 SHORT $L197878
$L197877:

; 374  : 			DrawBitmap(pDC,m_bDisabled,r,m_DrawMode);

  00c46	8b 55 90	 mov	 edx, DWORD PTR _this$[ebp]
  00c49	0f bf 82 20 01
	00 00		 movsx	 eax, WORD PTR [edx+288]
  00c50	50		 push	 eax
  00c51	83 ec 10	 sub	 esp, 16			; 00000010H
  00c54	8b cc		 mov	 ecx, esp
  00c56	8b 55 bc	 mov	 edx, DWORD PTR _r$[ebp]
  00c59	89 11		 mov	 DWORD PTR [ecx], edx
  00c5b	8b 45 c0	 mov	 eax, DWORD PTR _r$[ebp+4]
  00c5e	89 41 04	 mov	 DWORD PTR [ecx+4], eax
  00c61	8b 55 c4	 mov	 edx, DWORD PTR _r$[ebp+8]
  00c64	89 51 08	 mov	 DWORD PTR [ecx+8], edx
  00c67	8b 45 c8	 mov	 eax, DWORD PTR _r$[ebp+12]
  00c6a	89 41 0c	 mov	 DWORD PTR [ecx+12], eax
  00c6d	8b 4d 90	 mov	 ecx, DWORD PTR _this$[ebp]
  00c70	8b 91 f4 00 00
	00		 mov	 edx, DWORD PTR [ecx+244]
  00c76	52		 push	 edx
  00c77	8b 45 d0	 mov	 eax, DWORD PTR _pDC$[ebp]
  00c7a	50		 push	 eax
  00c7b	8b 4d 90	 mov	 ecx, DWORD PTR _this$[ebp]
  00c7e	e8 00 00 00 00	 call	 ?DrawBitmap@CxSkinButton@@QAEXPAVCDC@@PAVCDibBitmap@@UtagRECT@@H@Z ; CxSkinButton::DrawBitmap
$L197878:

; 375  : 		// if needed, draw the standard 3D rectangular border
; 376  : 		if (m_Border) pDC->DrawEdge(&r,EDGE_RAISED,BF_RECT);

  00c83	8b 4d 90	 mov	 ecx, DWORD PTR _this$[ebp]
  00c86	83 b9 1c 01 00
	00 00		 cmp	 DWORD PTR [ecx+284], 0
  00c8d	74 10		 je	 SHORT $L197879
  00c8f	6a 0f		 push	 15			; 0000000fH
  00c91	6a 05		 push	 5
  00c93	8d 55 bc	 lea	 edx, DWORD PTR _r$[ebp]
  00c96	52		 push	 edx
  00c97	8b 4d d0	 mov	 ecx, DWORD PTR _pDC$[ebp]
  00c9a	e8 00 00 00 00	 call	 ?DrawEdge@CDC@@QAEHPAUtagRECT@@II@Z ; CDC::DrawEdge
$L197879:

; 377  : 		// paint the etched button text
; 378  : //		pDC->SetTextColor(GetSysColor(COLOR_3DHILIGHT));
; 379  : //		pDC->DrawText(sCaption,&tr,DT_SINGLELINE|DT_VCENTER|DT_CENTER);
; 380  : 		pDC->SetTextColor( m_disableTextColor );

  00c9f	8b 45 90	 mov	 eax, DWORD PTR _this$[ebp]
  00ca2	8b 88 14 01 00
	00		 mov	 ecx, DWORD PTR [eax+276]
  00ca8	51		 push	 ecx
  00ca9	8b 55 d0	 mov	 edx, DWORD PTR _pDC$[ebp]
  00cac	8b 02		 mov	 eax, DWORD PTR [edx]
  00cae	8b 4d d0	 mov	 ecx, DWORD PTR _pDC$[ebp]
  00cb1	ff 50 38	 call	 DWORD PTR [eax+56]

; 381  : 		//OffsetRect(&tr,-1,-1);
; 382  : 		
; 383  : 		if(m_nTextOffsetX != 0 || m_nTextOffsetY != 0)

  00cb4	8b 4d 90	 mov	 ecx, DWORD PTR _this$[ebp]
  00cb7	83 79 68 00	 cmp	 DWORD PTR [ecx+104], 0
  00cbb	75 09		 jne	 SHORT $L197881
  00cbd	8b 55 90	 mov	 edx, DWORD PTR _this$[ebp]
  00cc0	83 7a 6c 00	 cmp	 DWORD PTR [edx+108], 0
  00cc4	74 14		 je	 SHORT $L197880
$L197881:

; 384  : 			pDC->DrawText(sCaption,&tr,DT_SINGLELINE|DT_TOP|DT_LEFT);

  00cc6	6a 20		 push	 32			; 00000020H
  00cc8	8d 45 d4	 lea	 eax, DWORD PTR _tr$[ebp]
  00ccb	50		 push	 eax
  00ccc	8d 4d ec	 lea	 ecx, DWORD PTR _sCaption$[ebp]
  00ccf	51		 push	 ecx
  00cd0	8b 4d d0	 mov	 ecx, DWORD PTR _pDC$[ebp]
  00cd3	e8 00 00 00 00	 call	 ?DrawTextA@CDC@@QAEHABV?$CStringT@DV?$StrTraitMFC_DLL@DV?$ChTraitsCRT@D@ATL@@@@@ATL@@PAUtagRECT@@I@Z ; CDC::DrawTextA

; 385  : 		else

  00cd8	eb 12		 jmp	 SHORT $L197882
$L197880:

; 386  : 			pDC->DrawText(sCaption,&tr,DT_SINGLELINE|DT_VCENTER|DT_CENTER);

  00cda	6a 25		 push	 37			; 00000025H
  00cdc	8d 55 d4	 lea	 edx, DWORD PTR _tr$[ebp]
  00cdf	52		 push	 edx
  00ce0	8d 45 ec	 lea	 eax, DWORD PTR _sCaption$[ebp]
  00ce3	50		 push	 eax
  00ce4	8b 4d d0	 mov	 ecx, DWORD PTR _pDC$[ebp]
  00ce7	e8 00 00 00 00	 call	 ?DrawTextA@CDC@@QAEHABV?$CStringT@DV?$StrTraitMFC_DLL@DV?$ChTraitsCRT@D@ATL@@@@@ATL@@PAUtagRECT@@I@Z ; CDC::DrawTextA
$L197882:

; 387  : 
; 388  : 	}
; 389  : 	else

  00cec	e9 b0 02 00 00	 jmp	 $L197883
$L197876:

; 390  : 	{										// SELECTED (DOWN) BUTTON
; 391  : 		if ((lpDrawItemStruct->itemState & ODS_SELECTED)||m_Checked)

  00cf1	8b 4d 08	 mov	 ecx, DWORD PTR _lpDrawItemStruct$[ebp]
  00cf4	8b 51 10	 mov	 edx, DWORD PTR [ecx+16]
  00cf7	83 e2 01	 and	 edx, 1
  00cfa	75 0f		 jne	 SHORT $L197885
  00cfc	8b 45 90	 mov	 eax, DWORD PTR _this$[ebp]
  00cff	0f b6 48 71	 movzx	 ecx, BYTE PTR [eax+113]
  00d03	85 c9		 test	 ecx, ecx
  00d05	0f 84 9b 00 00
	00		 je	 $L197884
$L197885:

; 392  : 		{
; 393  : 			if(m_bDown==NULL)

  00d0b	8b 55 90	 mov	 edx, DWORD PTR _this$[ebp]
  00d0e	83 ba f0 00 00
	00 00		 cmp	 DWORD PTR [edx+240], 0
  00d15	75 17		 jne	 SHORT $L197886

; 394  : 				 // no skin selected for selected state -> standard button
; 395  : 				pDC->FillSolidRect(&r,GetSysColor(COLOR_BTNFACE));

  00d17	6a 0f		 push	 15			; 0000000fH
  00d19	ff 15 00 00 00
	00		 call	 DWORD PTR __imp__GetSysColor@4
  00d1f	50		 push	 eax
  00d20	8d 45 bc	 lea	 eax, DWORD PTR _r$[ebp]
  00d23	50		 push	 eax
  00d24	8b 4d d0	 mov	 ecx, DWORD PTR _pDC$[ebp]
  00d27	e8 00 00 00 00	 call	 ?FillSolidRect@CDC@@QAEXPBUtagRECT@@K@Z ; CDC::FillSolidRect

; 396  :             else 

  00d2c	eb 3d		 jmp	 SHORT $L197887
$L197886:

; 397  : 			{ // paint the skin
; 398  : 				DrawBitmap(pDC,m_bDown,r,m_DrawMode);

  00d2e	8b 4d 90	 mov	 ecx, DWORD PTR _this$[ebp]
  00d31	0f bf 91 20 01
	00 00		 movsx	 edx, WORD PTR [ecx+288]
  00d38	52		 push	 edx
  00d39	83 ec 10	 sub	 esp, 16			; 00000010H
  00d3c	8b c4		 mov	 eax, esp
  00d3e	8b 4d bc	 mov	 ecx, DWORD PTR _r$[ebp]
  00d41	89 08		 mov	 DWORD PTR [eax], ecx
  00d43	8b 55 c0	 mov	 edx, DWORD PTR _r$[ebp+4]
  00d46	89 50 04	 mov	 DWORD PTR [eax+4], edx
  00d49	8b 4d c4	 mov	 ecx, DWORD PTR _r$[ebp+8]
  00d4c	89 48 08	 mov	 DWORD PTR [eax+8], ecx
  00d4f	8b 55 c8	 mov	 edx, DWORD PTR _r$[ebp+12]
  00d52	89 50 0c	 mov	 DWORD PTR [eax+12], edx
  00d55	8b 45 90	 mov	 eax, DWORD PTR _this$[ebp]
  00d58	8b 88 f0 00 00
	00		 mov	 ecx, DWORD PTR [eax+240]
  00d5e	51		 push	 ecx
  00d5f	8b 55 d0	 mov	 edx, DWORD PTR _pDC$[ebp]
  00d62	52		 push	 edx
  00d63	8b 4d 90	 mov	 ecx, DWORD PTR _this$[ebp]
  00d66	e8 00 00 00 00	 call	 ?DrawBitmap@CxSkinButton@@QAEXPAVCDC@@PAVCDibBitmap@@UtagRECT@@H@Z ; CxSkinButton::DrawBitmap
$L197887:

; 399  :             }
; 400  : 			OffsetRect(&tr,1,1);  //shift text

  00d6b	6a 01		 push	 1
  00d6d	6a 01		 push	 1
  00d6f	8d 45 d4	 lea	 eax, DWORD PTR _tr$[ebp]
  00d72	50		 push	 eax
  00d73	ff 15 00 00 00
	00		 call	 DWORD PTR __imp__OffsetRect@12

; 401  : 			// if needed, draw the standard 3D rectangular border
; 402  : 			if (m_Border) pDC->DrawEdge(&r,EDGE_SUNKEN,BF_RECT);

  00d79	8b 4d 90	 mov	 ecx, DWORD PTR _this$[ebp]
  00d7c	83 b9 1c 01 00
	00 00		 cmp	 DWORD PTR [ecx+284], 0
  00d83	74 10		 je	 SHORT $L197888
  00d85	6a 0f		 push	 15			; 0000000fH
  00d87	6a 0a		 push	 10			; 0000000aH
  00d89	8d 55 bc	 lea	 edx, DWORD PTR _r$[ebp]
  00d8c	52		 push	 edx
  00d8d	8b 4d d0	 mov	 ecx, DWORD PTR _pDC$[ebp]
  00d90	e8 00 00 00 00	 call	 ?DrawEdge@CDC@@QAEHPAUtagRECT@@II@Z ; CDC::DrawEdge
$L197888:

; 403  : 			colorText = m_downTextColor;

  00d95	8b 45 90	 mov	 eax, DWORD PTR _this$[ebp]
  00d98	8b 88 0c 01 00
	00		 mov	 ecx, DWORD PTR [eax+268]
  00d9e	89 4d f0	 mov	 DWORD PTR _colorText$[ebp], ecx

; 404  : 		} 
; 405  : 		else

  00da1	e9 46 01 00 00	 jmp	 $L197889
$L197884:

; 406  : 		{											// DEFAULT BUTTON
; 407  : 			if(m_bNormal==NULL)

  00da6	8b 55 90	 mov	 edx, DWORD PTR _this$[ebp]
  00da9	83 ba ec 00 00
	00 00		 cmp	 DWORD PTR [edx+236], 0
  00db0	75 1a		 jne	 SHORT $L197890

; 408  : 				 // no skin selected for normal state -> standard button
; 409  : 				pDC->FillSolidRect(&r,GetSysColor(COLOR_BTNFACE));

  00db2	6a 0f		 push	 15			; 0000000fH
  00db4	ff 15 00 00 00
	00		 call	 DWORD PTR __imp__GetSysColor@4
  00dba	50		 push	 eax
  00dbb	8d 45 bc	 lea	 eax, DWORD PTR _r$[ebp]
  00dbe	50		 push	 eax
  00dbf	8b 4d d0	 mov	 ecx, DWORD PTR _pDC$[ebp]
  00dc2	e8 00 00 00 00	 call	 ?FillSolidRect@CDC@@QAEXPBUtagRECT@@K@Z ; CDC::FillSolidRect

; 410  : 			else // paint the skin

  00dc7	e9 04 01 00 00	 jmp	 $L197891
$L197890:

; 411  :                 if ((m_tracking)&&(m_bOver!=NULL))

  00dcc	8b 4d 90	 mov	 ecx, DWORD PTR _this$[ebp]
  00dcf	0f b6 51 78	 movzx	 edx, BYTE PTR [ecx+120]
  00dd3	85 d2		 test	 edx, edx
  00dd5	74 5a		 je	 SHORT $L197892
  00dd7	8b 45 90	 mov	 eax, DWORD PTR _this$[ebp]
  00dda	83 b8 fc 00 00
	00 00		 cmp	 DWORD PTR [eax+252], 0
  00de1	74 4e		 je	 SHORT $L197892

; 412  : 				{
; 413  : 					DrawBitmap(pDC,m_bOver,r,m_DrawMode);

  00de3	8b 4d 90	 mov	 ecx, DWORD PTR _this$[ebp]
  00de6	0f bf 91 20 01
	00 00		 movsx	 edx, WORD PTR [ecx+288]
  00ded	52		 push	 edx
  00dee	83 ec 10	 sub	 esp, 16			; 00000010H
  00df1	8b c4		 mov	 eax, esp
  00df3	8b 4d bc	 mov	 ecx, DWORD PTR _r$[ebp]
  00df6	89 08		 mov	 DWORD PTR [eax], ecx
  00df8	8b 55 c0	 mov	 edx, DWORD PTR _r$[ebp+4]
  00dfb	89 50 04	 mov	 DWORD PTR [eax+4], edx
  00dfe	8b 4d c4	 mov	 ecx, DWORD PTR _r$[ebp+8]
  00e01	89 48 08	 mov	 DWORD PTR [eax+8], ecx
  00e04	8b 55 c8	 mov	 edx, DWORD PTR _r$[ebp+12]
  00e07	89 50 0c	 mov	 DWORD PTR [eax+12], edx
  00e0a	8b 45 90	 mov	 eax, DWORD PTR _this$[ebp]
  00e0d	8b 88 fc 00 00
	00		 mov	 ecx, DWORD PTR [eax+252]
  00e13	51		 push	 ecx
  00e14	8b 55 d0	 mov	 edx, DWORD PTR _pDC$[ebp]
  00e17	52		 push	 edx
  00e18	8b 4d 90	 mov	 ecx, DWORD PTR _this$[ebp]
  00e1b	e8 00 00 00 00	 call	 ?DrawBitmap@CxSkinButton@@QAEXPAVCDC@@PAVCDibBitmap@@UtagRECT@@H@Z ; CxSkinButton::DrawBitmap

; 414  : 					colorText = m_OverTextColor;

  00e20	8b 45 90	 mov	 eax, DWORD PTR _this$[ebp]
  00e23	8b 88 10 01 00
	00		 mov	 ecx, DWORD PTR [eax+272]
  00e29	89 4d f0	 mov	 DWORD PTR _colorText$[ebp], ecx

; 415  : 				} 
; 416  : 				else

  00e2c	e9 9f 00 00 00	 jmp	 $L197891
$L197892:

; 417  : 				{
; 418  : 					if ((lpDrawItemStruct->itemState & ODS_FOCUS)&&(m_bFocus!=NULL)){

  00e31	8b 55 08	 mov	 edx, DWORD PTR _lpDrawItemStruct$[ebp]
  00e34	8b 42 10	 mov	 eax, DWORD PTR [edx+16]
  00e37	83 e0 10	 and	 eax, 16			; 00000010H
  00e3a	74 4b		 je	 SHORT $L197894
  00e3c	8b 4d 90	 mov	 ecx, DWORD PTR _this$[ebp]
  00e3f	83 b9 00 01 00
	00 00		 cmp	 DWORD PTR [ecx+256], 0
  00e46	74 3f		 je	 SHORT $L197894

; 419  : 						DrawBitmap(pDC,m_bFocus,r,m_DrawMode);

  00e48	8b 55 90	 mov	 edx, DWORD PTR _this$[ebp]
  00e4b	0f bf 82 20 01
	00 00		 movsx	 eax, WORD PTR [edx+288]
  00e52	50		 push	 eax
  00e53	83 ec 10	 sub	 esp, 16			; 00000010H
  00e56	8b cc		 mov	 ecx, esp
  00e58	8b 55 bc	 mov	 edx, DWORD PTR _r$[ebp]
  00e5b	89 11		 mov	 DWORD PTR [ecx], edx
  00e5d	8b 45 c0	 mov	 eax, DWORD PTR _r$[ebp+4]
  00e60	89 41 04	 mov	 DWORD PTR [ecx+4], eax
  00e63	8b 55 c4	 mov	 edx, DWORD PTR _r$[ebp+8]
  00e66	89 51 08	 mov	 DWORD PTR [ecx+8], edx
  00e69	8b 45 c8	 mov	 eax, DWORD PTR _r$[ebp+12]
  00e6c	89 41 0c	 mov	 DWORD PTR [ecx+12], eax
  00e6f	8b 4d 90	 mov	 ecx, DWORD PTR _this$[ebp]
  00e72	8b 91 00 01 00
	00		 mov	 edx, DWORD PTR [ecx+256]
  00e78	52		 push	 edx
  00e79	8b 45 d0	 mov	 eax, DWORD PTR _pDC$[ebp]
  00e7c	50		 push	 eax
  00e7d	8b 4d 90	 mov	 ecx, DWORD PTR _this$[ebp]
  00e80	e8 00 00 00 00	 call	 ?DrawBitmap@CxSkinButton@@QAEXPAVCDC@@PAVCDibBitmap@@UtagRECT@@H@Z ; CxSkinButton::DrawBitmap

; 420  : 					} 
; 421  : 					else 

  00e85	eb 3d		 jmp	 SHORT $L197895
$L197894:

; 422  : 					{
; 423  : 						DrawBitmap(pDC,m_bNormal,r,m_DrawMode);

  00e87	8b 4d 90	 mov	 ecx, DWORD PTR _this$[ebp]
  00e8a	0f bf 91 20 01
	00 00		 movsx	 edx, WORD PTR [ecx+288]
  00e91	52		 push	 edx
  00e92	83 ec 10	 sub	 esp, 16			; 00000010H
  00e95	8b c4		 mov	 eax, esp
  00e97	8b 4d bc	 mov	 ecx, DWORD PTR _r$[ebp]
  00e9a	89 08		 mov	 DWORD PTR [eax], ecx
  00e9c	8b 55 c0	 mov	 edx, DWORD PTR _r$[ebp+4]
  00e9f	89 50 04	 mov	 DWORD PTR [eax+4], edx
  00ea2	8b 4d c4	 mov	 ecx, DWORD PTR _r$[ebp+8]
  00ea5	89 48 08	 mov	 DWORD PTR [eax+8], ecx
  00ea8	8b 55 c8	 mov	 edx, DWORD PTR _r$[ebp+12]
  00eab	89 50 0c	 mov	 DWORD PTR [eax+12], edx
  00eae	8b 45 90	 mov	 eax, DWORD PTR _this$[ebp]
  00eb1	8b 88 ec 00 00
	00		 mov	 ecx, DWORD PTR [eax+236]
  00eb7	51		 push	 ecx
  00eb8	8b 55 d0	 mov	 edx, DWORD PTR _pDC$[ebp]
  00ebb	52		 push	 edx
  00ebc	8b 4d 90	 mov	 ecx, DWORD PTR _this$[ebp]
  00ebf	e8 00 00 00 00	 call	 ?DrawBitmap@CxSkinButton@@QAEXPAVCDC@@PAVCDibBitmap@@UtagRECT@@H@Z ; CxSkinButton::DrawBitmap
$L197895:

; 424  : 					}
; 425  : 					colorText = m_normalTextColor;

  00ec4	8b 45 90	 mov	 eax, DWORD PTR _this$[ebp]
  00ec7	8b 88 08 01 00
	00		 mov	 ecx, DWORD PTR [eax+264]
  00ecd	89 4d f0	 mov	 DWORD PTR _colorText$[ebp], ecx
$L197891:

; 426  : 				}
; 427  : 			// if needed, draw the standard 3D rectangular border
; 428  : 			if (m_Border) pDC->DrawEdge(&r,EDGE_RAISED,BF_RECT);

  00ed0	8b 55 90	 mov	 edx, DWORD PTR _this$[ebp]
  00ed3	83 ba 1c 01 00
	00 00		 cmp	 DWORD PTR [edx+284], 0
  00eda	74 10		 je	 SHORT $L197889
  00edc	6a 0f		 push	 15			; 0000000fH
  00ede	6a 05		 push	 5
  00ee0	8d 45 bc	 lea	 eax, DWORD PTR _r$[ebp]
  00ee3	50		 push	 eax
  00ee4	8b 4d d0	 mov	 ecx, DWORD PTR _pDC$[ebp]
  00ee7	e8 00 00 00 00	 call	 ?DrawEdge@CDC@@QAEHPAUtagRECT@@II@Z ; CDC::DrawEdge
$L197889:

; 429  : 		}
; 430  : 		// paint the focus rect
; 431  : 		if ((lpDrawItemStruct->itemState & ODS_FOCUS)&&(m_FocusRectMargin>0)){

  00eec	8b 4d 08	 mov	 ecx, DWORD PTR _lpDrawItemStruct$[ebp]
  00eef	8b 51 10	 mov	 edx, DWORD PTR [ecx+16]
  00ef2	83 e2 10	 and	 edx, 16			; 00000010H
  00ef5	74 63		 je	 SHORT $L197897
  00ef7	8b 45 90	 mov	 eax, DWORD PTR _this$[ebp]
  00efa	0f bf 88 04 01
	00 00		 movsx	 ecx, WORD PTR [eax+260]
  00f01	85 c9		 test	 ecx, ecx
  00f03	7e 55		 jle	 SHORT $L197897

; 432  : 			r.left   += m_FocusRectMargin ;

  00f05	8b 55 90	 mov	 edx, DWORD PTR _this$[ebp]
  00f08	0f bf 82 04 01
	00 00		 movsx	 eax, WORD PTR [edx+260]
  00f0f	03 45 bc	 add	 eax, DWORD PTR _r$[ebp]
  00f12	89 45 bc	 mov	 DWORD PTR _r$[ebp], eax

; 433  : 			r.top    += m_FocusRectMargin ;

  00f15	8b 4d 90	 mov	 ecx, DWORD PTR _this$[ebp]
  00f18	0f bf 91 04 01
	00 00		 movsx	 edx, WORD PTR [ecx+260]
  00f1f	03 55 c0	 add	 edx, DWORD PTR _r$[ebp+4]
  00f22	89 55 c0	 mov	 DWORD PTR _r$[ebp+4], edx

; 434  : 			r.right  -= m_FocusRectMargin ;

  00f25	8b 45 90	 mov	 eax, DWORD PTR _this$[ebp]
  00f28	0f bf 88 04 01
	00 00		 movsx	 ecx, WORD PTR [eax+260]
  00f2f	8b 55 c4	 mov	 edx, DWORD PTR _r$[ebp+8]
  00f32	2b d1		 sub	 edx, ecx
  00f34	89 55 c4	 mov	 DWORD PTR _r$[ebp+8], edx

; 435  : 			r.bottom -= m_FocusRectMargin ;

  00f37	8b 45 90	 mov	 eax, DWORD PTR _this$[ebp]
  00f3a	0f bf 88 04 01
	00 00		 movsx	 ecx, WORD PTR [eax+260]
  00f41	8b 55 c8	 mov	 edx, DWORD PTR _r$[ebp+12]
  00f44	2b d1		 sub	 edx, ecx
  00f46	89 55 c8	 mov	 DWORD PTR _r$[ebp+12], edx

; 436  : 			DrawFocusRect (lpDrawItemStruct->hDC, &r) ;

  00f49	8d 45 bc	 lea	 eax, DWORD PTR _r$[ebp]
  00f4c	50		 push	 eax
  00f4d	8b 4d 08	 mov	 ecx, DWORD PTR _lpDrawItemStruct$[ebp]
  00f50	8b 51 18	 mov	 edx, DWORD PTR [ecx+24]
  00f53	52		 push	 edx
  00f54	ff 15 00 00 00
	00		 call	 DWORD PTR __imp__DrawFocusRect@8
$L197897:

; 437  : 		}
; 438  : 		// paint the enabled button text		
; 439  : 		pDC->SetTextColor(colorText);

  00f5a	8b 45 f0	 mov	 eax, DWORD PTR _colorText$[ebp]
  00f5d	50		 push	 eax
  00f5e	8b 4d d0	 mov	 ecx, DWORD PTR _pDC$[ebp]
  00f61	8b 11		 mov	 edx, DWORD PTR [ecx]
  00f63	8b 4d d0	 mov	 ecx, DWORD PTR _pDC$[ebp]
  00f66	ff 52 38	 call	 DWORD PTR [edx+56]

; 440  : 
; 441  : 		if(m_nTextOffsetX != 0 || m_nTextOffsetY != 0)

  00f69	8b 45 90	 mov	 eax, DWORD PTR _this$[ebp]
  00f6c	83 78 68 00	 cmp	 DWORD PTR [eax+104], 0
  00f70	75 09		 jne	 SHORT $L197899
  00f72	8b 4d 90	 mov	 ecx, DWORD PTR _this$[ebp]
  00f75	83 79 6c 00	 cmp	 DWORD PTR [ecx+108], 0
  00f79	74 14		 je	 SHORT $L197898
$L197899:

; 442  : 			pDC->DrawText(sCaption,&tr,DT_SINGLELINE|DT_TOP|DT_LEFT);

  00f7b	6a 20		 push	 32			; 00000020H
  00f7d	8d 55 d4	 lea	 edx, DWORD PTR _tr$[ebp]
  00f80	52		 push	 edx
  00f81	8d 45 ec	 lea	 eax, DWORD PTR _sCaption$[ebp]
  00f84	50		 push	 eax
  00f85	8b 4d d0	 mov	 ecx, DWORD PTR _pDC$[ebp]
  00f88	e8 00 00 00 00	 call	 ?DrawTextA@CDC@@QAEHABV?$CStringT@DV?$StrTraitMFC_DLL@DV?$ChTraitsCRT@D@ATL@@@@@ATL@@PAUtagRECT@@I@Z ; CDC::DrawTextA

; 443  : 		else

  00f8d	eb 12		 jmp	 SHORT $L197883
$L197898:

; 444  : 			pDC->DrawText(sCaption,&tr,DT_SINGLELINE|DT_VCENTER|DT_CENTER);

  00f8f	6a 25		 push	 37			; 00000025H
  00f91	8d 4d d4	 lea	 ecx, DWORD PTR _tr$[ebp]
  00f94	51		 push	 ecx
  00f95	8d 55 ec	 lea	 edx, DWORD PTR _sCaption$[ebp]
  00f98	52		 push	 edx
  00f99	8b 4d d0	 mov	 ecx, DWORD PTR _pDC$[ebp]
  00f9c	e8 00 00 00 00	 call	 ?DrawTextA@CDC@@QAEHABV?$CStringT@DV?$StrTraitMFC_DLL@DV?$ChTraitsCRT@D@ATL@@@@@ATL@@PAUtagRECT@@I@Z ; CDC::DrawTextA
$L197883:

; 445  : 	}
; 446  : 
; 447  : 	pDC->SelectObject(pOldFont);

  00fa1	8b 45 e4	 mov	 eax, DWORD PTR _pOldFont$[ebp]
  00fa4	50		 push	 eax
  00fa5	8b 4d d0	 mov	 ecx, DWORD PTR _pDC$[ebp]
  00fa8	8b 11		 mov	 edx, DWORD PTR [ecx]
  00faa	8b 4d d0	 mov	 ecx, DWORD PTR _pDC$[ebp]
  00fad	ff 52 30	 call	 DWORD PTR [edx+48]

; 448  : }

  00fb0	c6 45 fc 00	 mov	 BYTE PTR __$EHRec$[ebp+8], 0
  00fb4	8d 4d b4	 lea	 ecx, DWORD PTR _font$[ebp]
  00fb7	e8 00 00 00 00	 call	 ??1CFont@@UAE@XZ	; CFont::~CFont
  00fbc	c7 45 fc ff ff
	ff ff		 mov	 DWORD PTR __$EHRec$[ebp+8], -1
  00fc3	8d 4d ec	 lea	 ecx, DWORD PTR _sCaption$[ebp]
  00fc6	ff 15 00 00 00
	00		 call	 DWORD PTR __imp_??1?$CStringT@DV?$StrTraitMFC_DLL@DV?$ChTraitsCRT@D@ATL@@@@@ATL@@QAE@XZ
$L197850:
  00fcc	8b 4d f4	 mov	 ecx, DWORD PTR __$EHRec$[ebp]
  00fcf	64 89 0d 00 00
	00 00		 mov	 DWORD PTR fs:__except_list, ecx
  00fd6	8b e5		 mov	 esp, ebp
  00fd8	5d		 pop	 ebp
  00fd9	c2 04 00	 ret	 4
_TEXT	ENDS
text$x	SEGMENT
$L198981:
  0005c	8d 4d ec	 lea	 ecx, DWORD PTR _sCaption$[ebp]
  0005f	ff 25 00 00 00
	00		 jmp	 DWORD PTR __imp_??1?$CStringT@DV?$StrTraitMFC_DLL@DV?$ChTraitsCRT@D@ATL@@@@@ATL@@QAE@XZ
$L198982:
  00065	8d 4d b4	 lea	 ecx, DWORD PTR _font$[ebp]
  00068	e9 00 00 00 00	 jmp	 ??1CFont@@UAE@XZ	; CFont::~CFont
__ehhandler$?DrawItem@CxSkinButton@@UAEXPAUtagDRAWITEMSTRUCT@@@Z:
  0006d	b8 00 00 00 00	 mov	 eax, OFFSET FLAT:$T198984
  00072	e9 00 00 00 00	 jmp	 ___CxxFrameHandler
text$x	ENDS
?DrawItem@CxSkinButton@@UAEXPAUtagDRAWITEMSTRUCT@@@Z ENDP ; CxSkinButton::DrawItem
PUBLIC	?GetBitmapWidth@CxSkinButton@@QAEHPAVCDibBitmap@@@Z ; CxSkinButton::GetBitmapWidth
EXTRN	?GetWidth@CDibBitmap@@QAEHXZ:NEAR		; CDibBitmap::GetWidth
; Function compile flags: /Odt
_TEXT	SEGMENT
_this$ = -4						; size = 4
_hBitmap$ = 8						; size = 4
?GetBitmapWidth@CxSkinButton@@QAEHPAVCDibBitmap@@@Z PROC NEAR ; CxSkinButton::GetBitmapWidth
; _this$ = ecx

; 451  : {

  00fe0	55		 push	 ebp
  00fe1	8b ec		 mov	 ebp, esp
  00fe3	51		 push	 ecx
  00fe4	89 4d fc	 mov	 DWORD PTR _this$[ebp], ecx

; 452  : 	return hBitmap->GetWidth();

  00fe7	8b 4d 08	 mov	 ecx, DWORD PTR _hBitmap$[ebp]
  00fea	e8 00 00 00 00	 call	 ?GetWidth@CDibBitmap@@QAEHXZ ; CDibBitmap::GetWidth

; 453  : 	//return hBitmap->m_lpBMIH->biWidth;
; 454  : }

  00fef	8b e5		 mov	 esp, ebp
  00ff1	5d		 pop	 ebp
  00ff2	c2 04 00	 ret	 4
?GetBitmapWidth@CxSkinButton@@QAEHPAVCDibBitmap@@@Z ENDP ; CxSkinButton::GetBitmapWidth
_TEXT	ENDS
PUBLIC	?GetBitmapHeight@CxSkinButton@@QAEHPAVCDibBitmap@@@Z ; CxSkinButton::GetBitmapHeight
EXTRN	?GetHeight@CDibBitmap@@QAEHXZ:NEAR		; CDibBitmap::GetHeight
; Function compile flags: /Odt
_TEXT	SEGMENT
_this$ = -4						; size = 4
_hBitmap$ = 8						; size = 4
?GetBitmapHeight@CxSkinButton@@QAEHPAVCDibBitmap@@@Z PROC NEAR ; CxSkinButton::GetBitmapHeight
; _this$ = ecx

; 457  : {

  01000	55		 push	 ebp
  01001	8b ec		 mov	 ebp, esp
  01003	51		 push	 ecx
  01004	89 4d fc	 mov	 DWORD PTR _this$[ebp], ecx

; 458  : 	return hBitmap->GetHeight();

  01007	8b 4d 08	 mov	 ecx, DWORD PTR _hBitmap$[ebp]
  0100a	e8 00 00 00 00	 call	 ?GetHeight@CDibBitmap@@QAEHXZ ; CDibBitmap::GetHeight

; 459  : 	//return hBitmap->m_lpBMIH->biHeight;
; 460  : }

  0100f	8b e5		 mov	 esp, ebp
  01011	5d		 pop	 ebp
  01012	c2 04 00	 ret	 4
?GetBitmapHeight@CxSkinButton@@QAEHPAVCDibBitmap@@@Z ENDP ; CxSkinButton::GetBitmapHeight
_TEXT	ENDS
PUBLIC	??BCDC@@QBEPAUHDC__@@XZ				; CDC::operator HDC__ *
PUBLIC	?CreateCompatibleDC@CDC@@QAEHPAV1@@Z		; CDC::CreateCompatibleDC
PUBLIC	?SelectObject@CDC@@QAEPAVCBitmap@@PAV2@@Z	; CDC::SelectObject
PUBLIC	?BitBlt@CDC@@QAEHHHHHPAV1@HHK@Z			; CDC::BitBlt
PUBLIC	?StretchBlt@CDC@@QAEHHHHHPAV1@HHHHK@Z		; CDC::StretchBlt
PUBLIC	??BCGdiObject@@QBEPAXXZ				; CGdiObject::operator void *
PUBLIC	?SelectObject@CDC@@QAEPAXPAX@Z			; CDC::SelectObject
PUBLIC	??0CBitmap@@QAE@XZ				; CBitmap::CBitmap
PUBLIC	?CreateCompatibleBitmap@CBitmap@@QAEHPAVCDC@@HH@Z ; CBitmap::CreateCompatibleBitmap
PUBLIC	??1CBitmap@@UAE@XZ				; CBitmap::~CBitmap
PUBLIC	?FillWithBitmap@CxSkinButton@@QAEXPAVCDC@@PAVCDibBitmap@@UtagRECT@@@Z ; CxSkinButton::FillWithBitmap
EXTRN	??0CDC@@QAE@XZ:NEAR				; CDC::CDC
EXTRN	?DeleteDC@CDC@@QAEHXZ:NEAR			; CDC::DeleteDC
EXTRN	?SaveDC@CDC@@UAEHXZ:NEAR			; CDC::SaveDC
EXTRN	?RestoreDC@CDC@@UAEHH@Z:NEAR			; CDC::RestoreDC
EXTRN	?Draw@CDibBitmap@@QAEHPAVCDC@@HKH@Z:NEAR	; CDibBitmap::Draw
EXTRN	?SetCDibRect@CDibBitmap@@QAEXVCRect@@@Z:NEAR	; CDibBitmap::SetCDibRect
EXTRN	?DeleteObject@CGdiObject@@QAEHXZ:NEAR		; CGdiObject::DeleteObject
EXTRN	??1CDC@@UAE@XZ:NEAR				; CDC::~CDC
xdata$x	SEGMENT
$T199001 DD	0ffffffffH
	DD	FLAT:$L198992
	DD	00H
	DD	FLAT:$L198993
	DD	01H
	DD	FLAT:$L198994
	DD	02H
	DD	FLAT:$L198995
	DD	03H
	DD	FLAT:$L198996
	DD	04H
	DD	FLAT:$L198997
$T198999 DD	019930520H
	DD	06H
	DD	FLAT:$T199001
	DD	2 DUP(00H)
	DD	2 DUP(00H)
; Function compile flags: /Odt
xdata$x	ENDS
_TEXT	SEGMENT
_this$ = -164						; size = 4
$T198991 = -160						; size = 16
$T198990 = -144						; size = 16
_by$197952 = -128					; size = 4
_bx$197951 = -124					; size = 4
_by$197942 = -120					; size = 4
_bx$197941 = -116					; size = 4
_iSaveDC$197933 = -112					; size = 4
_hBitmapMask$197930 = -108				; size = 8
_hBitmap$197934 = -100					; size = 8
_iSaveMaskDC$197929 = -92				; size = 4
_hdcMem$197932 = -88					; size = 16
_i$197917 = -72						; size = 4
_cy$ = -68						; size = 4
_iSaveDC$ = -64						; size = 4
_dcMask$ = -60						; size = 16
_dcBmp$ = -44						; size = 16
_hBitmapBmp$ = -28					; size = 8
_cx$ = -20						; size = 4
_pOldBitmap$ = -16					; size = 4
__$EHRec$ = -12						; size = 12
_dc$ = 8						; size = 4
_hbmp$ = 12						; size = 4
_r$ = 16						; size = 16
_DrawMode$ = 32						; size = 4
?DrawBitmap@CxSkinButton@@QAEXPAVCDC@@PAVCDibBitmap@@UtagRECT@@H@Z PROC NEAR ; CxSkinButton::DrawBitmap
; _this$ = ecx

; 463  : {

  01020	55		 push	 ebp
  01021	8b ec		 mov	 ebp, esp
  01023	6a ff		 push	 -1
  01025	68 00 00 00 00	 push	 __ehhandler$?DrawBitmap@CxSkinButton@@QAEXPAVCDC@@PAVCDibBitmap@@UtagRECT@@H@Z
  0102a	64 a1 00 00 00
	00		 mov	 eax, DWORD PTR fs:__except_list
  01030	50		 push	 eax
  01031	64 89 25 00 00
	00 00		 mov	 DWORD PTR fs:__except_list, esp
  01038	81 ec 98 00 00
	00		 sub	 esp, 152		; 00000098H
  0103e	89 8d 5c ff ff
	ff		 mov	 DWORD PTR _this$[ebp], ecx

; 464  : //	hbmp->SetCDibRect(r);
; 465  : //	if(m_bSetMask)
; 466  : //		hbmp->Draw(dc, true);
; 467  : //	else
; 468  : //		hbmp->Draw(dc, false);
; 469  : ////	hbmp->DrawTransParent(dc, r,r, RGB(0,0,0));
; 470  : //	return;
; 471  : //	DrawMode: 0=Normal; 1=stretch; 2=tiled fill
; 472  : 
; 473  : 	if (m_bMask!=NULL){

  01044	8b 85 5c ff ff
	ff		 mov	 eax, DWORD PTR _this$[ebp]
  0104a	83 b8 f8 00 00
	00 00		 cmp	 DWORD PTR [eax+248], 0
  01051	74 07		 je	 SHORT $L197916

; 474  : 		int i = 0;

  01053	c7 45 b8 00 00
	00 00		 mov	 DWORD PTR _i$197917[ebp], 0
$L197916:

; 475  : 	}
; 476  : 	if(DrawMode==2){

  0105a	83 7d 20 02	 cmp	 DWORD PTR _DrawMode$[ebp], 2
  0105e	75 34		 jne	 SHORT $L197918

; 477  : 		FillWithBitmap(dc,hbmp,r);

  01060	83 ec 10	 sub	 esp, 16			; 00000010H
  01063	8b cc		 mov	 ecx, esp
  01065	8b 55 10	 mov	 edx, DWORD PTR _r$[ebp]
  01068	89 11		 mov	 DWORD PTR [ecx], edx
  0106a	8b 45 14	 mov	 eax, DWORD PTR _r$[ebp+4]
  0106d	89 41 04	 mov	 DWORD PTR [ecx+4], eax
  01070	8b 55 18	 mov	 edx, DWORD PTR _r$[ebp+8]
  01073	89 51 08	 mov	 DWORD PTR [ecx+8], edx
  01076	8b 45 1c	 mov	 eax, DWORD PTR _r$[ebp+12]
  01079	89 41 0c	 mov	 DWORD PTR [ecx+12], eax
  0107c	8b 4d 0c	 mov	 ecx, DWORD PTR _hbmp$[ebp]
  0107f	51		 push	 ecx
  01080	8b 55 08	 mov	 edx, DWORD PTR _dc$[ebp]
  01083	52		 push	 edx
  01084	8b 8d 5c ff ff
	ff		 mov	 ecx, DWORD PTR _this$[ebp]
  0108a	e8 00 00 00 00	 call	 ?FillWithBitmap@CxSkinButton@@QAEXPAVCDC@@PAVCDibBitmap@@UtagRECT@@@Z ; CxSkinButton::FillWithBitmap

; 478  : 		return;

  0108f	e9 e6 04 00 00	 jmp	 $L197915
$L197918:

; 479  : 	}
; 480  : 	if(!hbmp) return;	//safe check

  01094	83 7d 0c 00	 cmp	 DWORD PTR _hbmp$[ebp], 0
  01098	75 05		 jne	 SHORT $L197919
  0109a	e9 db 04 00 00	 jmp	 $L197915
$L197919:

; 481  : 
; 482  : 	int cx=r.right  - r.left;

  0109f	8b 45 18	 mov	 eax, DWORD PTR _r$[ebp+8]
  010a2	2b 45 10	 sub	 eax, DWORD PTR _r$[ebp]
  010a5	89 45 ec	 mov	 DWORD PTR _cx$[ebp], eax

; 483  : 	int cy=r.bottom - r.top;

  010a8	8b 4d 1c	 mov	 ecx, DWORD PTR _r$[ebp+12]
  010ab	2b 4d 14	 sub	 ecx, DWORD PTR _r$[ebp+4]
  010ae	89 4d bc	 mov	 DWORD PTR _cy$[ebp], ecx

; 484  : 
; 485  : 	CDC dcBmp,dcMask;

  010b1	8d 4d d4	 lea	 ecx, DWORD PTR _dcBmp$[ebp]
  010b4	e8 00 00 00 00	 call	 ??0CDC@@QAE@XZ		; CDC::CDC
  010b9	c7 45 fc 00 00
	00 00		 mov	 DWORD PTR __$EHRec$[ebp+8], 0
  010c0	8d 4d c4	 lea	 ecx, DWORD PTR _dcMask$[ebp]
  010c3	e8 00 00 00 00	 call	 ??0CDC@@QAE@XZ		; CDC::CDC
  010c8	c6 45 fc 01	 mov	 BYTE PTR __$EHRec$[ebp+8], 1

; 486  : 	dcBmp.CreateCompatibleDC(dc);

  010cc	8b 55 08	 mov	 edx, DWORD PTR _dc$[ebp]
  010cf	52		 push	 edx
  010d0	8d 4d d4	 lea	 ecx, DWORD PTR _dcBmp$[ebp]
  010d3	e8 00 00 00 00	 call	 ?CreateCompatibleDC@CDC@@QAEHPAV1@@Z ; CDC::CreateCompatibleDC

; 487  : 	int iSaveDC = dcBmp.SaveDC();

  010d8	8d 4d d4	 lea	 ecx, DWORD PTR _dcBmp$[ebp]
  010db	e8 00 00 00 00	 call	 ?SaveDC@CDC@@UAEHXZ	; CDC::SaveDC
  010e0	89 45 c0	 mov	 DWORD PTR _iSaveDC$[ebp], eax

; 488  : 
; 489  : 	CBitmap hBitmapBmp;                     //

  010e3	8d 4d e4	 lea	 ecx, DWORD PTR _hBitmapBmp$[ebp]
  010e6	e8 00 00 00 00	 call	 ??0CBitmap@@QAE@XZ	; CBitmap::CBitmap
  010eb	c6 45 fc 02	 mov	 BYTE PTR __$EHRec$[ebp+8], 2

; 490  : 	hBitmapBmp.CreateCompatibleBitmap(dc,hbmp->m_lpBMIH->biWidth,hbmp->m_lpBMIH->biHeight);

  010ef	8b 45 0c	 mov	 eax, DWORD PTR _hbmp$[ebp]
  010f2	8b 48 04	 mov	 ecx, DWORD PTR [eax+4]
  010f5	8b 51 08	 mov	 edx, DWORD PTR [ecx+8]
  010f8	52		 push	 edx
  010f9	8b 45 0c	 mov	 eax, DWORD PTR _hbmp$[ebp]
  010fc	8b 48 04	 mov	 ecx, DWORD PTR [eax+4]
  010ff	8b 51 04	 mov	 edx, DWORD PTR [ecx+4]
  01102	52		 push	 edx
  01103	8b 45 08	 mov	 eax, DWORD PTR _dc$[ebp]
  01106	50		 push	 eax
  01107	8d 4d e4	 lea	 ecx, DWORD PTR _hBitmapBmp$[ebp]
  0110a	e8 00 00 00 00	 call	 ?CreateCompatibleBitmap@CBitmap@@QAEHPAVCDC@@HH@Z ; CBitmap::CreateCompatibleBitmap

; 491  : 	CBitmap *pOldBitmap = dcBmp.SelectObject(&hBitmapBmp);

  0110f	8d 4d e4	 lea	 ecx, DWORD PTR _hBitmapBmp$[ebp]
  01112	51		 push	 ecx
  01113	8d 4d d4	 lea	 ecx, DWORD PTR _dcBmp$[ebp]
  01116	e8 00 00 00 00	 call	 ?SelectObject@CDC@@QAEPAVCBitmap@@PAV2@@Z ; CDC::SelectObject
  0111b	89 45 f0	 mov	 DWORD PTR _pOldBitmap$[ebp], eax

; 492  : 	hbmp->SetCDibRect(CRect(0,0,hbmp->m_lpBMIH->biWidth,hbmp->m_lpBMIH->biHeight));

  0111e	8b 55 0c	 mov	 edx, DWORD PTR _hbmp$[ebp]
  01121	8b 42 04	 mov	 eax, DWORD PTR [edx+4]
  01124	8b 48 08	 mov	 ecx, DWORD PTR [eax+8]
  01127	51		 push	 ecx
  01128	8b 55 0c	 mov	 edx, DWORD PTR _hbmp$[ebp]
  0112b	8b 42 04	 mov	 eax, DWORD PTR [edx+4]
  0112e	8b 48 04	 mov	 ecx, DWORD PTR [eax+4]
  01131	51		 push	 ecx
  01132	6a 00		 push	 0
  01134	6a 00		 push	 0
  01136	8d 8d 70 ff ff
	ff		 lea	 ecx, DWORD PTR $T198990[ebp]
  0113c	e8 00 00 00 00	 call	 ??0CRect@@QAE@HHHH@Z	; CRect::CRect
  01141	83 ec 10	 sub	 esp, 16			; 00000010H
  01144	8b d4		 mov	 edx, esp
  01146	8b 08		 mov	 ecx, DWORD PTR [eax]
  01148	89 0a		 mov	 DWORD PTR [edx], ecx
  0114a	8b 48 04	 mov	 ecx, DWORD PTR [eax+4]
  0114d	89 4a 04	 mov	 DWORD PTR [edx+4], ecx
  01150	8b 48 08	 mov	 ecx, DWORD PTR [eax+8]
  01153	89 4a 08	 mov	 DWORD PTR [edx+8], ecx
  01156	8b 40 0c	 mov	 eax, DWORD PTR [eax+12]
  01159	89 42 0c	 mov	 DWORD PTR [edx+12], eax
  0115c	8b 4d 0c	 mov	 ecx, DWORD PTR _hbmp$[ebp]
  0115f	e8 00 00 00 00	 call	 ?SetCDibRect@CDibBitmap@@QAEXVCRect@@@Z ; CDibBitmap::SetCDibRect

; 493  : 	hbmp->Draw(&dcBmp,FALSE);

  01164	6a 01		 push	 1
  01166	6a 00		 push	 0
  01168	6a 00		 push	 0
  0116a	8d 4d d4	 lea	 ecx, DWORD PTR _dcBmp$[ebp]
  0116d	51		 push	 ecx
  0116e	8b 4d 0c	 mov	 ecx, DWORD PTR _hbmp$[ebp]
  01171	e8 00 00 00 00	 call	 ?Draw@CDibBitmap@@QAEHPAVCDC@@HKH@Z ; CDibBitmap::Draw

; 494  : 	
; 495  : 	if (m_bMask!=NULL && m_bMask->is_Loaded){

  01176	8b 95 5c ff ff
	ff		 mov	 edx, DWORD PTR _this$[ebp]
  0117c	83 ba f8 00 00
	00 00		 cmp	 DWORD PTR [edx+248], 0
  01183	0f 84 1d 03 00
	00		 je	 $L197928
  01189	8b 85 5c ff ff
	ff		 mov	 eax, DWORD PTR _this$[ebp]
  0118f	8b 88 f8 00 00
	00		 mov	 ecx, DWORD PTR [eax+248]
  01195	0f b6 51 5c	 movzx	 edx, BYTE PTR [ecx+92]
  01199	85 d2		 test	 edx, edx
  0119b	0f 84 05 03 00
	00		 je	 $L197928

; 496  : 		dcMask.CreateCompatibleDC(dc);

  011a1	8b 45 08	 mov	 eax, DWORD PTR _dc$[ebp]
  011a4	50		 push	 eax
  011a5	8d 4d c4	 lea	 ecx, DWORD PTR _dcMask$[ebp]
  011a8	e8 00 00 00 00	 call	 ?CreateCompatibleDC@CDC@@QAEHPAV1@@Z ; CDC::CreateCompatibleDC

; 497  : 
; 498  : 		int iSaveMaskDC = dcMask.SaveDC();

  011ad	8d 4d c4	 lea	 ecx, DWORD PTR _dcMask$[ebp]
  011b0	e8 00 00 00 00	 call	 ?SaveDC@CDC@@UAEHXZ	; CDC::SaveDC
  011b5	89 45 a4	 mov	 DWORD PTR _iSaveMaskDC$197929[ebp], eax

; 499  : 
; 500  : 		CBitmap hBitmapMask;//		 

  011b8	8d 4d 94	 lea	 ecx, DWORD PTR _hBitmapMask$197930[ebp]
  011bb	e8 00 00 00 00	 call	 ??0CBitmap@@QAE@XZ	; CBitmap::CBitmap
  011c0	c6 45 fc 03	 mov	 BYTE PTR __$EHRec$[ebp+8], 3

; 501  : 		hBitmapMask.CreateCompatibleBitmap(dc,  m_bMask->m_lpBMIH->biWidth,m_bMask->m_lpBMIH->biHeight);

  011c4	8b 8d 5c ff ff
	ff		 mov	 ecx, DWORD PTR _this$[ebp]
  011ca	8b 91 f8 00 00
	00		 mov	 edx, DWORD PTR [ecx+248]
  011d0	8b 42 04	 mov	 eax, DWORD PTR [edx+4]
  011d3	8b 48 08	 mov	 ecx, DWORD PTR [eax+8]
  011d6	51		 push	 ecx
  011d7	8b 95 5c ff ff
	ff		 mov	 edx, DWORD PTR _this$[ebp]
  011dd	8b 82 f8 00 00
	00		 mov	 eax, DWORD PTR [edx+248]
  011e3	8b 48 04	 mov	 ecx, DWORD PTR [eax+4]
  011e6	8b 51 04	 mov	 edx, DWORD PTR [ecx+4]
  011e9	52		 push	 edx
  011ea	8b 45 08	 mov	 eax, DWORD PTR _dc$[ebp]
  011ed	50		 push	 eax
  011ee	8d 4d 94	 lea	 ecx, DWORD PTR _hBitmapMask$197930[ebp]
  011f1	e8 00 00 00 00	 call	 ?CreateCompatibleBitmap@CBitmap@@QAEHPAVCDC@@HH@Z ; CBitmap::CreateCompatibleBitmap

; 502  : 		dcMask.SelectObject(&hBitmapMask);

  011f6	8d 4d 94	 lea	 ecx, DWORD PTR _hBitmapMask$197930[ebp]
  011f9	51		 push	 ecx
  011fa	8d 4d c4	 lea	 ecx, DWORD PTR _dcMask$[ebp]
  011fd	e8 00 00 00 00	 call	 ?SelectObject@CDC@@QAEPAVCBitmap@@PAV2@@Z ; CDC::SelectObject

; 503  : 		m_bMask->SetCDibRect(CRect(0,0,m_bMask->m_lpBMIH->biWidth,m_bMask->m_lpBMIH->biHeight));

  01202	8b 95 5c ff ff
	ff		 mov	 edx, DWORD PTR _this$[ebp]
  01208	8b 82 f8 00 00
	00		 mov	 eax, DWORD PTR [edx+248]
  0120e	8b 48 04	 mov	 ecx, DWORD PTR [eax+4]
  01211	8b 51 08	 mov	 edx, DWORD PTR [ecx+8]
  01214	52		 push	 edx
  01215	8b 85 5c ff ff
	ff		 mov	 eax, DWORD PTR _this$[ebp]
  0121b	8b 88 f8 00 00
	00		 mov	 ecx, DWORD PTR [eax+248]
  01221	8b 51 04	 mov	 edx, DWORD PTR [ecx+4]
  01224	8b 42 04	 mov	 eax, DWORD PTR [edx+4]
  01227	50		 push	 eax
  01228	6a 00		 push	 0
  0122a	6a 00		 push	 0
  0122c	8d 8d 60 ff ff
	ff		 lea	 ecx, DWORD PTR $T198991[ebp]
  01232	e8 00 00 00 00	 call	 ??0CRect@@QAE@HHHH@Z	; CRect::CRect
  01237	83 ec 10	 sub	 esp, 16			; 00000010H
  0123a	8b cc		 mov	 ecx, esp
  0123c	8b 10		 mov	 edx, DWORD PTR [eax]
  0123e	89 11		 mov	 DWORD PTR [ecx], edx
  01240	8b 50 04	 mov	 edx, DWORD PTR [eax+4]
  01243	89 51 04	 mov	 DWORD PTR [ecx+4], edx
  01246	8b 50 08	 mov	 edx, DWORD PTR [eax+8]
  01249	89 51 08	 mov	 DWORD PTR [ecx+8], edx
  0124c	8b 40 0c	 mov	 eax, DWORD PTR [eax+12]
  0124f	89 41 0c	 mov	 DWORD PTR [ecx+12], eax
  01252	8b 8d 5c ff ff
	ff		 mov	 ecx, DWORD PTR _this$[ebp]
  01258	8b 89 f8 00 00
	00		 mov	 ecx, DWORD PTR [ecx+248]
  0125e	e8 00 00 00 00	 call	 ?SetCDibRect@CDibBitmap@@QAEXVCRect@@@Z ; CDibBitmap::SetCDibRect

; 504  : 		m_bMask->Draw(&dcMask,FALSE);

  01263	6a 01		 push	 1
  01265	6a 00		 push	 0
  01267	6a 00		 push	 0
  01269	8d 55 c4	 lea	 edx, DWORD PTR _dcMask$[ebp]
  0126c	52		 push	 edx
  0126d	8b 85 5c ff ff
	ff		 mov	 eax, DWORD PTR _this$[ebp]
  01273	8b 88 f8 00 00
	00		 mov	 ecx, DWORD PTR [eax+248]
  01279	e8 00 00 00 00	 call	 ?Draw@CDibBitmap@@QAEHPAVCDC@@HKH@Z ; CDibBitmap::Draw

; 505  : 
; 506  : 		CDC hdcMem;

  0127e	8d 4d a8	 lea	 ecx, DWORD PTR _hdcMem$197932[ebp]
  01281	e8 00 00 00 00	 call	 ??0CDC@@QAE@XZ		; CDC::CDC
  01286	c6 45 fc 04	 mov	 BYTE PTR __$EHRec$[ebp+8], 4

; 507  : 		hdcMem.CreateCompatibleDC(dc);

  0128a	8b 4d 08	 mov	 ecx, DWORD PTR _dc$[ebp]
  0128d	51		 push	 ecx
  0128e	8d 4d a8	 lea	 ecx, DWORD PTR _hdcMem$197932[ebp]
  01291	e8 00 00 00 00	 call	 ?CreateCompatibleDC@CDC@@QAEHPAV1@@Z ; CDC::CreateCompatibleDC

; 508  : 
; 509  : 		int iSaveDC = hdcMem.SaveDC();

  01296	8d 4d a8	 lea	 ecx, DWORD PTR _hdcMem$197932[ebp]
  01299	e8 00 00 00 00	 call	 ?SaveDC@CDC@@UAEHXZ	; CDC::SaveDC
  0129e	89 45 90	 mov	 DWORD PTR _iSaveDC$197933[ebp], eax

; 510  : 
; 511  : 	    CBitmap hBitmap;

  012a1	8d 4d 9c	 lea	 ecx, DWORD PTR _hBitmap$197934[ebp]
  012a4	e8 00 00 00 00	 call	 ??0CBitmap@@QAE@XZ	; CBitmap::CBitmap
  012a9	c6 45 fc 05	 mov	 BYTE PTR __$EHRec$[ebp+8], 5

; 512  : 		hBitmap.CreateCompatibleBitmap(dc,cx,cy);

  012ad	8b 55 bc	 mov	 edx, DWORD PTR _cy$[ebp]
  012b0	52		 push	 edx
  012b1	8b 45 ec	 mov	 eax, DWORD PTR _cx$[ebp]
  012b4	50		 push	 eax
  012b5	8b 4d 08	 mov	 ecx, DWORD PTR _dc$[ebp]
  012b8	51		 push	 ecx
  012b9	8d 4d 9c	 lea	 ecx, DWORD PTR _hBitmap$197934[ebp]
  012bc	e8 00 00 00 00	 call	 ?CreateCompatibleBitmap@CBitmap@@QAEHPAVCDC@@HH@Z ; CBitmap::CreateCompatibleBitmap

; 513  : 	    hdcMem.SelectObject(hBitmap);		

  012c1	8d 4d 9c	 lea	 ecx, DWORD PTR _hBitmap$197934[ebp]
  012c4	e8 00 00 00 00	 call	 ??BCGdiObject@@QBEPAXXZ	; CGdiObject::operator void *
  012c9	50		 push	 eax
  012ca	8d 4d a8	 lea	 ecx, DWORD PTR _hdcMem$197932[ebp]
  012cd	e8 00 00 00 00	 call	 ?SelectObject@CDC@@QAEPAXPAX@Z ; CDC::SelectObject

; 514  :         hdcMem.BitBlt(r.left,r.top,cx,cy,dc,0,0,SRCCOPY);

  012d2	68 20 00 cc 00	 push	 13369376		; 00cc0020H
  012d7	6a 00		 push	 0
  012d9	6a 00		 push	 0
  012db	8b 55 08	 mov	 edx, DWORD PTR _dc$[ebp]
  012de	52		 push	 edx
  012df	8b 45 bc	 mov	 eax, DWORD PTR _cy$[ebp]
  012e2	50		 push	 eax
  012e3	8b 4d ec	 mov	 ecx, DWORD PTR _cx$[ebp]
  012e6	51		 push	 ecx
  012e7	8b 55 14	 mov	 edx, DWORD PTR _r$[ebp+4]
  012ea	52		 push	 edx
  012eb	8b 45 10	 mov	 eax, DWORD PTR _r$[ebp]
  012ee	50		 push	 eax
  012ef	8d 4d a8	 lea	 ecx, DWORD PTR _hdcMem$197932[ebp]
  012f2	e8 00 00 00 00	 call	 ?BitBlt@CDC@@QAEHHHHHPAV1@HHK@Z ; CDC::BitBlt

; 515  : 		if(!DrawMode){

  012f7	83 7d 20 00	 cmp	 DWORD PTR _DrawMode$[ebp], 0
  012fb	75 74		 jne	 SHORT $L197936

; 516  : 			hdcMem.BitBlt(r.left,r.top,cx,cy,&dcBmp,0,0,SRCINVERT);

  012fd	68 46 00 66 00	 push	 6684742			; 00660046H
  01302	6a 00		 push	 0
  01304	6a 00		 push	 0
  01306	8d 4d d4	 lea	 ecx, DWORD PTR _dcBmp$[ebp]
  01309	51		 push	 ecx
  0130a	8b 55 bc	 mov	 edx, DWORD PTR _cy$[ebp]
  0130d	52		 push	 edx
  0130e	8b 45 ec	 mov	 eax, DWORD PTR _cx$[ebp]
  01311	50		 push	 eax
  01312	8b 4d 14	 mov	 ecx, DWORD PTR _r$[ebp+4]
  01315	51		 push	 ecx
  01316	8b 55 10	 mov	 edx, DWORD PTR _r$[ebp]
  01319	52		 push	 edx
  0131a	8d 4d a8	 lea	 ecx, DWORD PTR _hdcMem$197932[ebp]
  0131d	e8 00 00 00 00	 call	 ?BitBlt@CDC@@QAEHHHHHPAV1@HHK@Z ; CDC::BitBlt

; 517  : 			hdcMem.BitBlt(r.left,r.top,cx,cy,&dcMask,0,0,SRCAND);

  01322	68 c6 00 88 00	 push	 8913094			; 008800c6H
  01327	6a 00		 push	 0
  01329	6a 00		 push	 0
  0132b	8d 45 c4	 lea	 eax, DWORD PTR _dcMask$[ebp]
  0132e	50		 push	 eax
  0132f	8b 4d bc	 mov	 ecx, DWORD PTR _cy$[ebp]
  01332	51		 push	 ecx
  01333	8b 55 ec	 mov	 edx, DWORD PTR _cx$[ebp]
  01336	52		 push	 edx
  01337	8b 45 14	 mov	 eax, DWORD PTR _r$[ebp+4]
  0133a	50		 push	 eax
  0133b	8b 4d 10	 mov	 ecx, DWORD PTR _r$[ebp]
  0133e	51		 push	 ecx
  0133f	8d 4d a8	 lea	 ecx, DWORD PTR _hdcMem$197932[ebp]
  01342	e8 00 00 00 00	 call	 ?BitBlt@CDC@@QAEHHHHHPAV1@HHK@Z ; CDC::BitBlt

; 518  : 			hdcMem.BitBlt(r.left,r.top,cx,cy,&dcBmp,0,0,SRCINVERT);

  01347	68 46 00 66 00	 push	 6684742			; 00660046H
  0134c	6a 00		 push	 0
  0134e	6a 00		 push	 0
  01350	8d 55 d4	 lea	 edx, DWORD PTR _dcBmp$[ebp]
  01353	52		 push	 edx
  01354	8b 45 bc	 mov	 eax, DWORD PTR _cy$[ebp]
  01357	50		 push	 eax
  01358	8b 4d ec	 mov	 ecx, DWORD PTR _cx$[ebp]
  0135b	51		 push	 ecx
  0135c	8b 55 14	 mov	 edx, DWORD PTR _r$[ebp+4]
  0135f	52		 push	 edx
  01360	8b 45 10	 mov	 eax, DWORD PTR _r$[ebp]
  01363	50		 push	 eax
  01364	8d 4d a8	 lea	 ecx, DWORD PTR _hdcMem$197932[ebp]
  01367	e8 00 00 00 00	 call	 ?BitBlt@CDC@@QAEHHHHHPAV1@HHK@Z ; CDC::BitBlt

; 519  : 		} else {

  0136c	e9 ab 00 00 00	 jmp	 $L197940
$L197936:

; 520  : 			int bx=GetBitmapWidth(hbmp);

  01371	8b 4d 0c	 mov	 ecx, DWORD PTR _hbmp$[ebp]
  01374	51		 push	 ecx
  01375	8b 8d 5c ff ff
	ff		 mov	 ecx, DWORD PTR _this$[ebp]
  0137b	e8 00 00 00 00	 call	 ?GetBitmapWidth@CxSkinButton@@QAEHPAVCDibBitmap@@@Z ; CxSkinButton::GetBitmapWidth
  01380	89 45 8c	 mov	 DWORD PTR _bx$197941[ebp], eax

; 521  : 			int by=GetBitmapHeight(hbmp);

  01383	8b 55 0c	 mov	 edx, DWORD PTR _hbmp$[ebp]
  01386	52		 push	 edx
  01387	8b 8d 5c ff ff
	ff		 mov	 ecx, DWORD PTR _this$[ebp]
  0138d	e8 00 00 00 00	 call	 ?GetBitmapHeight@CxSkinButton@@QAEHPAVCDibBitmap@@@Z ; CxSkinButton::GetBitmapHeight
  01392	89 45 88	 mov	 DWORD PTR _by$197942[ebp], eax

; 522  : 			hdcMem.StretchBlt(r.left,r.top,cx,cy,&dcBmp,0,0,bx,by,SRCINVERT);

  01395	68 46 00 66 00	 push	 6684742			; 00660046H
  0139a	8b 45 88	 mov	 eax, DWORD PTR _by$197942[ebp]
  0139d	50		 push	 eax
  0139e	8b 4d 8c	 mov	 ecx, DWORD PTR _bx$197941[ebp]
  013a1	51		 push	 ecx
  013a2	6a 00		 push	 0
  013a4	6a 00		 push	 0
  013a6	8d 55 d4	 lea	 edx, DWORD PTR _dcBmp$[ebp]
  013a9	52		 push	 edx
  013aa	8b 45 bc	 mov	 eax, DWORD PTR _cy$[ebp]
  013ad	50		 push	 eax
  013ae	8b 4d ec	 mov	 ecx, DWORD PTR _cx$[ebp]
  013b1	51		 push	 ecx
  013b2	8b 55 14	 mov	 edx, DWORD PTR _r$[ebp+4]
  013b5	52		 push	 edx
  013b6	8b 45 10	 mov	 eax, DWORD PTR _r$[ebp]
  013b9	50		 push	 eax
  013ba	8d 4d a8	 lea	 ecx, DWORD PTR _hdcMem$197932[ebp]
  013bd	e8 00 00 00 00	 call	 ?StretchBlt@CDC@@QAEHHHHHPAV1@HHHHK@Z ; CDC::StretchBlt

; 523  : 			hdcMem.StretchBlt(r.left,r.top,cx,cy,&dcMask,0,0,bx,by,SRCAND);

  013c2	68 c6 00 88 00	 push	 8913094			; 008800c6H
  013c7	8b 4d 88	 mov	 ecx, DWORD PTR _by$197942[ebp]
  013ca	51		 push	 ecx
  013cb	8b 55 8c	 mov	 edx, DWORD PTR _bx$197941[ebp]
  013ce	52		 push	 edx
  013cf	6a 00		 push	 0
  013d1	6a 00		 push	 0
  013d3	8d 45 c4	 lea	 eax, DWORD PTR _dcMask$[ebp]
  013d6	50		 push	 eax
  013d7	8b 4d bc	 mov	 ecx, DWORD PTR _cy$[ebp]
  013da	51		 push	 ecx
  013db	8b 55 ec	 mov	 edx, DWORD PTR _cx$[ebp]
  013de	52		 push	 edx
  013df	8b 45 14	 mov	 eax, DWORD PTR _r$[ebp+4]
  013e2	50		 push	 eax
  013e3	8b 4d 10	 mov	 ecx, DWORD PTR _r$[ebp]
  013e6	51		 push	 ecx
  013e7	8d 4d a8	 lea	 ecx, DWORD PTR _hdcMem$197932[ebp]
  013ea	e8 00 00 00 00	 call	 ?StretchBlt@CDC@@QAEHHHHHPAV1@HHHHK@Z ; CDC::StretchBlt

; 524  : 			hdcMem.StretchBlt(r.left,r.top,cx,cy,&dcBmp,0,0,bx,by,SRCINVERT);

  013ef	68 46 00 66 00	 push	 6684742			; 00660046H
  013f4	8b 55 88	 mov	 edx, DWORD PTR _by$197942[ebp]
  013f7	52		 push	 edx
  013f8	8b 45 8c	 mov	 eax, DWORD PTR _bx$197941[ebp]
  013fb	50		 push	 eax
  013fc	6a 00		 push	 0
  013fe	6a 00		 push	 0
  01400	8d 4d d4	 lea	 ecx, DWORD PTR _dcBmp$[ebp]
  01403	51		 push	 ecx
  01404	8b 55 bc	 mov	 edx, DWORD PTR _cy$[ebp]
  01407	52		 push	 edx
  01408	8b 45 ec	 mov	 eax, DWORD PTR _cx$[ebp]
  0140b	50		 push	 eax
  0140c	8b 4d 14	 mov	 ecx, DWORD PTR _r$[ebp+4]
  0140f	51		 push	 ecx
  01410	8b 55 10	 mov	 edx, DWORD PTR _r$[ebp]
  01413	52		 push	 edx
  01414	8d 4d a8	 lea	 ecx, DWORD PTR _hdcMem$197932[ebp]
  01417	e8 00 00 00 00	 call	 ?StretchBlt@CDC@@QAEHHHHHPAV1@HHHHK@Z ; CDC::StretchBlt
$L197940:

; 525  : 		}
; 526  :         dc->BitBlt(r.left,r.top,cx,cy,&hdcMem,0,0,SRCCOPY);

  0141c	68 20 00 cc 00	 push	 13369376		; 00cc0020H
  01421	6a 00		 push	 0
  01423	6a 00		 push	 0
  01425	8d 45 a8	 lea	 eax, DWORD PTR _hdcMem$197932[ebp]
  01428	50		 push	 eax
  01429	8b 4d bc	 mov	 ecx, DWORD PTR _cy$[ebp]
  0142c	51		 push	 ecx
  0142d	8b 55 ec	 mov	 edx, DWORD PTR _cx$[ebp]
  01430	52		 push	 edx
  01431	8b 45 14	 mov	 eax, DWORD PTR _r$[ebp+4]
  01434	50		 push	 eax
  01435	8b 4d 10	 mov	 ecx, DWORD PTR _r$[ebp]
  01438	51		 push	 ecx
  01439	8b 4d 08	 mov	 ecx, DWORD PTR _dc$[ebp]
  0143c	e8 00 00 00 00	 call	 ?BitBlt@CDC@@QAEHHHHHPAV1@HHK@Z ; CDC::BitBlt

; 527  : 
; 528  : 		hdcMem.RestoreDC( iSaveDC );

  01441	8b 55 90	 mov	 edx, DWORD PTR _iSaveDC$197933[ebp]
  01444	52		 push	 edx
  01445	8d 4d a8	 lea	 ecx, DWORD PTR _hdcMem$197932[ebp]
  01448	e8 00 00 00 00	 call	 ?RestoreDC@CDC@@UAEHH@Z	; CDC::RestoreDC

; 529  : 
; 530  : 		hdcMem.DeleteDC();

  0144d	8d 4d a8	 lea	 ecx, DWORD PTR _hdcMem$197932[ebp]
  01450	e8 00 00 00 00	 call	 ?DeleteDC@CDC@@QAEHXZ	; CDC::DeleteDC

; 531  : 		dcMask.RestoreDC( iSaveMaskDC );

  01455	8b 45 a4	 mov	 eax, DWORD PTR _iSaveMaskDC$197929[ebp]
  01458	50		 push	 eax
  01459	8d 4d c4	 lea	 ecx, DWORD PTR _dcMask$[ebp]
  0145c	e8 00 00 00 00	 call	 ?RestoreDC@CDC@@UAEHH@Z	; CDC::RestoreDC

; 532  : 
; 533  : 		DeleteDC(dcMask);

  01461	8d 4d c4	 lea	 ecx, DWORD PTR _dcMask$[ebp]
  01464	e8 00 00 00 00	 call	 ??BCDC@@QBEPAUHDC__@@XZ	; CDC::operator HDC__ *
  01469	50		 push	 eax
  0146a	ff 15 00 00 00
	00		 call	 DWORD PTR __imp__DeleteDC@4

; 534  : 
; 535  : 		hBitmap.DeleteObject();

  01470	8d 4d 9c	 lea	 ecx, DWORD PTR _hBitmap$197934[ebp]
  01473	e8 00 00 00 00	 call	 ?DeleteObject@CGdiObject@@QAEHXZ ; CGdiObject::DeleteObject

; 536  : 		hBitmapMask.DeleteObject();

  01478	8d 4d 94	 lea	 ecx, DWORD PTR _hBitmapMask$197930[ebp]
  0147b	e8 00 00 00 00	 call	 ?DeleteObject@CGdiObject@@QAEHXZ ; CGdiObject::DeleteObject

; 537  : 
; 538  : 	} else {

  01480	c6 45 fc 04	 mov	 BYTE PTR __$EHRec$[ebp+8], 4
  01484	8d 4d 9c	 lea	 ecx, DWORD PTR _hBitmap$197934[ebp]
  01487	e8 00 00 00 00	 call	 ??1CBitmap@@UAE@XZ	; CBitmap::~CBitmap
  0148c	c6 45 fc 03	 mov	 BYTE PTR __$EHRec$[ebp+8], 3
  01490	8d 4d a8	 lea	 ecx, DWORD PTR _hdcMem$197932[ebp]
  01493	e8 00 00 00 00	 call	 ??1CDC@@UAE@XZ		; CDC::~CDC
  01498	c6 45 fc 02	 mov	 BYTE PTR __$EHRec$[ebp+8], 2
  0149c	8d 4d 94	 lea	 ecx, DWORD PTR _hBitmapMask$197930[ebp]
  0149f	e8 00 00 00 00	 call	 ??1CBitmap@@UAE@XZ	; CBitmap::~CBitmap
  014a4	eb 7e		 jmp	 SHORT $L197947
$L197928:

; 539  : 		if(!DrawMode){

  014a6	83 7d 20 00	 cmp	 DWORD PTR _DrawMode$[ebp], 0
  014aa	75 27		 jne	 SHORT $L197948

; 540  : 			dc->BitBlt(r.left,r.top,cx,cy,&dcBmp,0,0,SRCCOPY);

  014ac	68 20 00 cc 00	 push	 13369376		; 00cc0020H
  014b1	6a 00		 push	 0
  014b3	6a 00		 push	 0
  014b5	8d 4d d4	 lea	 ecx, DWORD PTR _dcBmp$[ebp]
  014b8	51		 push	 ecx
  014b9	8b 55 bc	 mov	 edx, DWORD PTR _cy$[ebp]
  014bc	52		 push	 edx
  014bd	8b 45 ec	 mov	 eax, DWORD PTR _cx$[ebp]
  014c0	50		 push	 eax
  014c1	8b 4d 14	 mov	 ecx, DWORD PTR _r$[ebp+4]
  014c4	51		 push	 ecx
  014c5	8b 55 10	 mov	 edx, DWORD PTR _r$[ebp]
  014c8	52		 push	 edx
  014c9	8b 4d 08	 mov	 ecx, DWORD PTR _dc$[ebp]
  014cc	e8 00 00 00 00	 call	 ?BitBlt@CDC@@QAEHHHHHPAV1@HHK@Z ; CDC::BitBlt

; 541  : 		} else {

  014d1	eb 51		 jmp	 SHORT $L197947
$L197948:

; 542  : 			int bx=GetBitmapWidth(hbmp);

  014d3	8b 45 0c	 mov	 eax, DWORD PTR _hbmp$[ebp]
  014d6	50		 push	 eax
  014d7	8b 8d 5c ff ff
	ff		 mov	 ecx, DWORD PTR _this$[ebp]
  014dd	e8 00 00 00 00	 call	 ?GetBitmapWidth@CxSkinButton@@QAEHPAVCDibBitmap@@@Z ; CxSkinButton::GetBitmapWidth
  014e2	89 45 84	 mov	 DWORD PTR _bx$197951[ebp], eax

; 543  : 			int by=GetBitmapHeight(hbmp);

  014e5	8b 4d 0c	 mov	 ecx, DWORD PTR _hbmp$[ebp]
  014e8	51		 push	 ecx
  014e9	8b 8d 5c ff ff
	ff		 mov	 ecx, DWORD PTR _this$[ebp]
  014ef	e8 00 00 00 00	 call	 ?GetBitmapHeight@CxSkinButton@@QAEHPAVCDibBitmap@@@Z ; CxSkinButton::GetBitmapHeight
  014f4	89 45 80	 mov	 DWORD PTR _by$197952[ebp], eax

; 544  : 			dc->StretchBlt(r.left,r.top,cx,cy,&dcBmp,0,0,bx,by,SRCCOPY);

  014f7	68 20 00 cc 00	 push	 13369376		; 00cc0020H
  014fc	8b 55 80	 mov	 edx, DWORD PTR _by$197952[ebp]
  014ff	52		 push	 edx
  01500	8b 45 84	 mov	 eax, DWORD PTR _bx$197951[ebp]
  01503	50		 push	 eax
  01504	6a 00		 push	 0
  01506	6a 00		 push	 0
  01508	8d 4d d4	 lea	 ecx, DWORD PTR _dcBmp$[ebp]
  0150b	51		 push	 ecx
  0150c	8b 55 bc	 mov	 edx, DWORD PTR _cy$[ebp]
  0150f	52		 push	 edx
  01510	8b 45 ec	 mov	 eax, DWORD PTR _cx$[ebp]
  01513	50		 push	 eax
  01514	8b 4d 14	 mov	 ecx, DWORD PTR _r$[ebp+4]
  01517	51		 push	 ecx
  01518	8b 55 10	 mov	 edx, DWORD PTR _r$[ebp]
  0151b	52		 push	 edx
  0151c	8b 4d 08	 mov	 ecx, DWORD PTR _dc$[ebp]
  0151f	e8 00 00 00 00	 call	 ?StretchBlt@CDC@@QAEHHHHHPAV1@HHHHK@Z ; CDC::StretchBlt
$L197947:

; 545  : 		}
; 546  : 	}	
; 547  : 
; 548  : 	dcBmp.SelectObject(pOldBitmap);

  01524	8b 45 f0	 mov	 eax, DWORD PTR _pOldBitmap$[ebp]
  01527	50		 push	 eax
  01528	8d 4d d4	 lea	 ecx, DWORD PTR _dcBmp$[ebp]
  0152b	e8 00 00 00 00	 call	 ?SelectObject@CDC@@QAEPAVCBitmap@@PAV2@@Z ; CDC::SelectObject

; 549  : 	dcBmp.RestoreDC( iSaveDC );

  01530	8b 4d c0	 mov	 ecx, DWORD PTR _iSaveDC$[ebp]
  01533	51		 push	 ecx
  01534	8d 4d d4	 lea	 ecx, DWORD PTR _dcBmp$[ebp]
  01537	e8 00 00 00 00	 call	 ?RestoreDC@CDC@@UAEHH@Z	; CDC::RestoreDC

; 550  : 
; 551  : 	DeleteDC(dcBmp);

  0153c	8d 4d d4	 lea	 ecx, DWORD PTR _dcBmp$[ebp]
  0153f	e8 00 00 00 00	 call	 ??BCDC@@QBEPAUHDC__@@XZ	; CDC::operator HDC__ *
  01544	50		 push	 eax
  01545	ff 15 00 00 00
	00		 call	 DWORD PTR __imp__DeleteDC@4

; 552  : 	hBitmapBmp.DeleteObject();

  0154b	8d 4d e4	 lea	 ecx, DWORD PTR _hBitmapBmp$[ebp]
  0154e	e8 00 00 00 00	 call	 ?DeleteObject@CGdiObject@@QAEHXZ ; CGdiObject::DeleteObject

; 553  : }

  01553	c6 45 fc 01	 mov	 BYTE PTR __$EHRec$[ebp+8], 1
  01557	8d 4d e4	 lea	 ecx, DWORD PTR _hBitmapBmp$[ebp]
  0155a	e8 00 00 00 00	 call	 ??1CBitmap@@UAE@XZ	; CBitmap::~CBitmap
  0155f	c6 45 fc 00	 mov	 BYTE PTR __$EHRec$[ebp+8], 0
  01563	8d 4d c4	 lea	 ecx, DWORD PTR _dcMask$[ebp]
  01566	e8 00 00 00 00	 call	 ??1CDC@@UAE@XZ		; CDC::~CDC
  0156b	c7 45 fc ff ff
	ff ff		 mov	 DWORD PTR __$EHRec$[ebp+8], -1
  01572	8d 4d d4	 lea	 ecx, DWORD PTR _dcBmp$[ebp]
  01575	e8 00 00 00 00	 call	 ??1CDC@@UAE@XZ		; CDC::~CDC
$L197915:
  0157a	8b 4d f4	 mov	 ecx, DWORD PTR __$EHRec$[ebp]
  0157d	64 89 0d 00 00
	00 00		 mov	 DWORD PTR fs:__except_list, ecx
  01584	8b e5		 mov	 esp, ebp
  01586	5d		 pop	 ebp
  01587	c2 1c 00	 ret	 28			; 0000001cH
_TEXT	ENDS
text$x	SEGMENT
$L198992:
  00077	8d 4d d4	 lea	 ecx, DWORD PTR _dcBmp$[ebp]
  0007a	e9 00 00 00 00	 jmp	 ??1CDC@@UAE@XZ		; CDC::~CDC
$L198993:
  0007f	8d 4d c4	 lea	 ecx, DWORD PTR _dcMask$[ebp]
  00082	e9 00 00 00 00	 jmp	 ??1CDC@@UAE@XZ		; CDC::~CDC
$L198994:
  00087	8d 4d e4	 lea	 ecx, DWORD PTR _hBitmapBmp$[ebp]
  0008a	e9 00 00 00 00	 jmp	 ??1CBitmap@@UAE@XZ	; CBitmap::~CBitmap
$L198995:
  0008f	8d 4d 94	 lea	 ecx, DWORD PTR _hBitmapMask$197930[ebp]
  00092	e9 00 00 00 00	 jmp	 ??1CBitmap@@UAE@XZ	; CBitmap::~CBitmap
$L198996:
  00097	8d 4d a8	 lea	 ecx, DWORD PTR _hdcMem$197932[ebp]
  0009a	e9 00 00 00 00	 jmp	 ??1CDC@@UAE@XZ		; CDC::~CDC
$L198997:
  0009f	8d 4d 9c	 lea	 ecx, DWORD PTR _hBitmap$197934[ebp]
  000a2	e9 00 00 00 00	 jmp	 ??1CBitmap@@UAE@XZ	; CBitmap::~CBitmap
__ehhandler$?DrawBitmap@CxSkinButton@@QAEXPAVCDC@@PAVCDibBitmap@@UtagRECT@@H@Z:
  000a7	b8 00 00 00 00	 mov	 eax, OFFSET FLAT:$T198999
  000ac	e9 00 00 00 00	 jmp	 ___CxxFrameHandler
text$x	ENDS
?DrawBitmap@CxSkinButton@@QAEXPAVCDC@@PAVCDibBitmap@@UtagRECT@@H@Z ENDP ; CxSkinButton::DrawBitmap
xdata$x	SEGMENT
$T199009 DD	0ffffffffH
	DD	FLAT:$L199004
	DD	00H
	DD	FLAT:$L199005
$T199007 DD	019930520H
	DD	02H
	DD	FLAT:$T199009
	DD	2 DUP(00H)
	DD	2 DUP(00H)
; Function compile flags: /Odt
xdata$x	ENDS
_TEXT	SEGMENT
_this$ = -84						; size = 4
$T199003 = -80						; size = 16
_by$ = -64						; size = 4
_memdc$ = -60						; size = 16
_z$ = -44						; size = 4
_bx$ = -40						; size = 4
_hBitmapBmp$ = -36					; size = 8
_x$ = -28						; size = 4
_y$ = -24						; size = 4
_h$ = -20						; size = 4
_w$ = -16						; size = 4
__$EHRec$ = -12						; size = 12
_dc$ = 8						; size = 4
_hbmp$ = 12						; size = 4
_r$ = 16						; size = 16
?FillWithBitmap@CxSkinButton@@QAEXPAVCDC@@PAVCDibBitmap@@UtagRECT@@@Z PROC NEAR ; CxSkinButton::FillWithBitmap
; _this$ = ecx

; 556  : {

  01590	55		 push	 ebp
  01591	8b ec		 mov	 ebp, esp
  01593	6a ff		 push	 -1
  01595	68 00 00 00 00	 push	 __ehhandler$?FillWithBitmap@CxSkinButton@@QAEXPAVCDC@@PAVCDibBitmap@@UtagRECT@@@Z
  0159a	64 a1 00 00 00
	00		 mov	 eax, DWORD PTR fs:__except_list
  015a0	50		 push	 eax
  015a1	64 89 25 00 00
	00 00		 mov	 DWORD PTR fs:__except_list, esp
  015a8	83 ec 48	 sub	 esp, 72			; 00000048H
  015ab	89 4d ac	 mov	 DWORD PTR _this$[ebp], ecx

; 557  : 	if(!hbmp) return;

  015ae	83 7d 0c 00	 cmp	 DWORD PTR _hbmp$[ebp], 0
  015b2	75 05		 jne	 SHORT $L197960
  015b4	e9 96 01 00 00	 jmp	 $L197959
$L197960:

; 558  : 	CDC memdc;

  015b9	8d 4d c4	 lea	 ecx, DWORD PTR _memdc$[ebp]
  015bc	e8 00 00 00 00	 call	 ??0CDC@@QAE@XZ		; CDC::CDC
  015c1	c7 45 fc 00 00
	00 00		 mov	 DWORD PTR __$EHRec$[ebp+8], 0

; 559  : 	memdc.CreateCompatibleDC(dc);

  015c8	8b 45 08	 mov	 eax, DWORD PTR _dc$[ebp]
  015cb	50		 push	 eax
  015cc	8d 4d c4	 lea	 ecx, DWORD PTR _memdc$[ebp]
  015cf	e8 00 00 00 00	 call	 ?CreateCompatibleDC@CDC@@QAEHPAV1@@Z ; CDC::CreateCompatibleDC

; 560  : 	CBitmap hBitmapBmp;                     //

  015d4	8d 4d dc	 lea	 ecx, DWORD PTR _hBitmapBmp$[ebp]
  015d7	e8 00 00 00 00	 call	 ??0CBitmap@@QAE@XZ	; CBitmap::CBitmap
  015dc	c6 45 fc 01	 mov	 BYTE PTR __$EHRec$[ebp+8], 1

; 561  : 	hBitmapBmp.CreateCompatibleBitmap(dc,hbmp->m_lpBMIH->biWidth,hbmp->m_lpBMIH->biHeight);

  015e0	8b 4d 0c	 mov	 ecx, DWORD PTR _hbmp$[ebp]
  015e3	8b 51 04	 mov	 edx, DWORD PTR [ecx+4]
  015e6	8b 42 08	 mov	 eax, DWORD PTR [edx+8]
  015e9	50		 push	 eax
  015ea	8b 4d 0c	 mov	 ecx, DWORD PTR _hbmp$[ebp]
  015ed	8b 51 04	 mov	 edx, DWORD PTR [ecx+4]
  015f0	8b 42 04	 mov	 eax, DWORD PTR [edx+4]
  015f3	50		 push	 eax
  015f4	8b 4d 08	 mov	 ecx, DWORD PTR _dc$[ebp]
  015f7	51		 push	 ecx
  015f8	8d 4d dc	 lea	 ecx, DWORD PTR _hBitmapBmp$[ebp]
  015fb	e8 00 00 00 00	 call	 ?CreateCompatibleBitmap@CBitmap@@QAEHPAVCDC@@HH@Z ; CBitmap::CreateCompatibleBitmap

; 562  : 	memdc.SelectObject(&hBitmapBmp);

  01600	8d 55 dc	 lea	 edx, DWORD PTR _hBitmapBmp$[ebp]
  01603	52		 push	 edx
  01604	8d 4d c4	 lea	 ecx, DWORD PTR _memdc$[ebp]
  01607	e8 00 00 00 00	 call	 ?SelectObject@CDC@@QAEPAVCBitmap@@PAV2@@Z ; CDC::SelectObject

; 563  : 	hbmp->SetCDibRect(CRect(0,0,hbmp->m_lpBMIH->biWidth,hbmp->m_lpBMIH->biHeight));

  0160c	8b 45 0c	 mov	 eax, DWORD PTR _hbmp$[ebp]
  0160f	8b 48 04	 mov	 ecx, DWORD PTR [eax+4]
  01612	8b 51 08	 mov	 edx, DWORD PTR [ecx+8]
  01615	52		 push	 edx
  01616	8b 45 0c	 mov	 eax, DWORD PTR _hbmp$[ebp]
  01619	8b 48 04	 mov	 ecx, DWORD PTR [eax+4]
  0161c	8b 51 04	 mov	 edx, DWORD PTR [ecx+4]
  0161f	52		 push	 edx
  01620	6a 00		 push	 0
  01622	6a 00		 push	 0
  01624	8d 4d b0	 lea	 ecx, DWORD PTR $T199003[ebp]
  01627	e8 00 00 00 00	 call	 ??0CRect@@QAE@HHHH@Z	; CRect::CRect
  0162c	83 ec 10	 sub	 esp, 16			; 00000010H
  0162f	8b cc		 mov	 ecx, esp
  01631	8b 10		 mov	 edx, DWORD PTR [eax]
  01633	89 11		 mov	 DWORD PTR [ecx], edx
  01635	8b 50 04	 mov	 edx, DWORD PTR [eax+4]
  01638	89 51 04	 mov	 DWORD PTR [ecx+4], edx
  0163b	8b 50 08	 mov	 edx, DWORD PTR [eax+8]
  0163e	89 51 08	 mov	 DWORD PTR [ecx+8], edx
  01641	8b 40 0c	 mov	 eax, DWORD PTR [eax+12]
  01644	89 41 0c	 mov	 DWORD PTR [ecx+12], eax
  01647	8b 4d 0c	 mov	 ecx, DWORD PTR _hbmp$[ebp]
  0164a	e8 00 00 00 00	 call	 ?SetCDibRect@CDibBitmap@@QAEXVCRect@@@Z ; CDibBitmap::SetCDibRect

; 564  : 	hbmp->Draw(&memdc,FALSE);

  0164f	6a 01		 push	 1
  01651	6a 00		 push	 0
  01653	6a 00		 push	 0
  01655	8d 4d c4	 lea	 ecx, DWORD PTR _memdc$[ebp]
  01658	51		 push	 ecx
  01659	8b 4d 0c	 mov	 ecx, DWORD PTR _hbmp$[ebp]
  0165c	e8 00 00 00 00	 call	 ?Draw@CDibBitmap@@QAEHPAVCDC@@HKH@Z ; CDibBitmap::Draw

; 565  : 
; 566  : 	int w = r.right - r.left;

  01661	8b 55 18	 mov	 edx, DWORD PTR _r$[ebp+8]
  01664	2b 55 10	 sub	 edx, DWORD PTR _r$[ebp]
  01667	89 55 f0	 mov	 DWORD PTR _w$[ebp], edx

; 567  : 	int	h = r.bottom - r.top;

  0166a	8b 45 1c	 mov	 eax, DWORD PTR _r$[ebp+12]
  0166d	2b 45 14	 sub	 eax, DWORD PTR _r$[ebp+4]
  01670	89 45 ec	 mov	 DWORD PTR _h$[ebp], eax

; 568  : 	int x,y,z;
; 569  : 	int	bx=GetBitmapWidth(hbmp);

  01673	8b 4d 0c	 mov	 ecx, DWORD PTR _hbmp$[ebp]
  01676	51		 push	 ecx
  01677	8b 4d ac	 mov	 ecx, DWORD PTR _this$[ebp]
  0167a	e8 00 00 00 00	 call	 ?GetBitmapWidth@CxSkinButton@@QAEHPAVCDibBitmap@@@Z ; CxSkinButton::GetBitmapWidth
  0167f	89 45 d8	 mov	 DWORD PTR _bx$[ebp], eax

; 570  : 	int	by=GetBitmapHeight(hbmp);

  01682	8b 55 0c	 mov	 edx, DWORD PTR _hbmp$[ebp]
  01685	52		 push	 edx
  01686	8b 4d ac	 mov	 ecx, DWORD PTR _this$[ebp]
  01689	e8 00 00 00 00	 call	 ?GetBitmapHeight@CxSkinButton@@QAEHPAVCDibBitmap@@@Z ; CxSkinButton::GetBitmapHeight
  0168e	89 45 c0	 mov	 DWORD PTR _by$[ebp], eax

; 571  : 	for (y = r.top ; y < h ; y += by){

  01691	8b 45 14	 mov	 eax, DWORD PTR _r$[ebp+4]
  01694	89 45 e8	 mov	 DWORD PTR _y$[ebp], eax
  01697	eb 09		 jmp	 SHORT $L197971
$L197972:
  01699	8b 4d e8	 mov	 ecx, DWORD PTR _y$[ebp]
  0169c	03 4d c0	 add	 ecx, DWORD PTR _by$[ebp]
  0169f	89 4d e8	 mov	 DWORD PTR _y$[ebp], ecx
$L197971:
  016a2	8b 55 e8	 mov	 edx, DWORD PTR _y$[ebp]
  016a5	3b 55 ec	 cmp	 edx, DWORD PTR _h$[ebp]
  016a8	7d 73		 jge	 SHORT $L197973

; 572  : 		if ((y+by)>h) by=h-y;

  016aa	8b 45 e8	 mov	 eax, DWORD PTR _y$[ebp]
  016ad	03 45 c0	 add	 eax, DWORD PTR _by$[ebp]
  016b0	3b 45 ec	 cmp	 eax, DWORD PTR _h$[ebp]
  016b3	7e 09		 jle	 SHORT $L197974
  016b5	8b 4d ec	 mov	 ecx, DWORD PTR _h$[ebp]
  016b8	2b 4d e8	 sub	 ecx, DWORD PTR _y$[ebp]
  016bb	89 4d c0	 mov	 DWORD PTR _by$[ebp], ecx
$L197974:

; 573  : 		z=bx;

  016be	8b 55 d8	 mov	 edx, DWORD PTR _bx$[ebp]
  016c1	89 55 d4	 mov	 DWORD PTR _z$[ebp], edx

; 574  : 		for (x = r.left ; x < w ; x += z){

  016c4	8b 45 10	 mov	 eax, DWORD PTR _r$[ebp]
  016c7	89 45 e4	 mov	 DWORD PTR _x$[ebp], eax
  016ca	eb 09		 jmp	 SHORT $L197975
$L197976:
  016cc	8b 4d e4	 mov	 ecx, DWORD PTR _x$[ebp]
  016cf	03 4d d4	 add	 ecx, DWORD PTR _z$[ebp]
  016d2	89 4d e4	 mov	 DWORD PTR _x$[ebp], ecx
$L197975:
  016d5	8b 55 e4	 mov	 edx, DWORD PTR _x$[ebp]
  016d8	3b 55 f0	 cmp	 edx, DWORD PTR _w$[ebp]
  016db	7d 3b		 jge	 SHORT $L197977

; 575  : 			if ((x+z)>w) z=w-x;

  016dd	8b 45 e4	 mov	 eax, DWORD PTR _x$[ebp]
  016e0	03 45 d4	 add	 eax, DWORD PTR _z$[ebp]
  016e3	3b 45 f0	 cmp	 eax, DWORD PTR _w$[ebp]
  016e6	7e 09		 jle	 SHORT $L197978
  016e8	8b 4d f0	 mov	 ecx, DWORD PTR _w$[ebp]
  016eb	2b 4d e4	 sub	 ecx, DWORD PTR _x$[ebp]
  016ee	89 4d d4	 mov	 DWORD PTR _z$[ebp], ecx
$L197978:

; 576  : 			dc->BitBlt(x, y, z, by, &memdc, 0, 0, SRCCOPY);

  016f1	68 20 00 cc 00	 push	 13369376		; 00cc0020H
  016f6	6a 00		 push	 0
  016f8	6a 00		 push	 0
  016fa	8d 55 c4	 lea	 edx, DWORD PTR _memdc$[ebp]
  016fd	52		 push	 edx
  016fe	8b 45 c0	 mov	 eax, DWORD PTR _by$[ebp]
  01701	50		 push	 eax
  01702	8b 4d d4	 mov	 ecx, DWORD PTR _z$[ebp]
  01705	51		 push	 ecx
  01706	8b 55 e8	 mov	 edx, DWORD PTR _y$[ebp]
  01709	52		 push	 edx
  0170a	8b 45 e4	 mov	 eax, DWORD PTR _x$[ebp]
  0170d	50		 push	 eax
  0170e	8b 4d 08	 mov	 ecx, DWORD PTR _dc$[ebp]
  01711	e8 00 00 00 00	 call	 ?BitBlt@CDC@@QAEHHHHHPAV1@HHK@Z ; CDC::BitBlt

; 577  : 		}

  01716	eb b4		 jmp	 SHORT $L197976
$L197977:

; 578  : 	}

  01718	e9 7c ff ff ff	 jmp	 $L197972
$L197973:

; 579  : 	hBitmapBmp.DeleteObject();

  0171d	8d 4d dc	 lea	 ecx, DWORD PTR _hBitmapBmp$[ebp]
  01720	e8 00 00 00 00	 call	 ?DeleteObject@CGdiObject@@QAEHXZ ; CGdiObject::DeleteObject

; 580  : 	DeleteDC(memdc);

  01725	8d 4d c4	 lea	 ecx, DWORD PTR _memdc$[ebp]
  01728	e8 00 00 00 00	 call	 ??BCDC@@QBEPAUHDC__@@XZ	; CDC::operator HDC__ *
  0172d	50		 push	 eax
  0172e	ff 15 00 00 00
	00		 call	 DWORD PTR __imp__DeleteDC@4

; 581  : }

  01734	c6 45 fc 00	 mov	 BYTE PTR __$EHRec$[ebp+8], 0
  01738	8d 4d dc	 lea	 ecx, DWORD PTR _hBitmapBmp$[ebp]
  0173b	e8 00 00 00 00	 call	 ??1CBitmap@@UAE@XZ	; CBitmap::~CBitmap
  01740	c7 45 fc ff ff
	ff ff		 mov	 DWORD PTR __$EHRec$[ebp+8], -1
  01747	8d 4d c4	 lea	 ecx, DWORD PTR _memdc$[ebp]
  0174a	e8 00 00 00 00	 call	 ??1CDC@@UAE@XZ		; CDC::~CDC
$L197959:
  0174f	8b 4d f4	 mov	 ecx, DWORD PTR __$EHRec$[ebp]
  01752	64 89 0d 00 00
	00 00		 mov	 DWORD PTR fs:__except_list, ecx
  01759	8b e5		 mov	 esp, ebp
  0175b	5d		 pop	 ebp
  0175c	c2 18 00	 ret	 24			; 00000018H
_TEXT	ENDS
text$x	SEGMENT
$L199004:
  000b1	8d 4d c4	 lea	 ecx, DWORD PTR _memdc$[ebp]
  000b4	e9 00 00 00 00	 jmp	 ??1CDC@@UAE@XZ		; CDC::~CDC
$L199005:
  000b9	8d 4d dc	 lea	 ecx, DWORD PTR _hBitmapBmp$[ebp]
  000bc	e9 00 00 00 00	 jmp	 ??1CBitmap@@UAE@XZ	; CBitmap::~CBitmap
__ehhandler$?FillWithBitmap@CxSkinButton@@QAEXPAVCDC@@PAVCDibBitmap@@UtagRECT@@@Z:
  000c1	b8 00 00 00 00	 mov	 eax, OFFSET FLAT:$T199007
  000c6	e9 00 00 00 00	 jmp	 ___CxxFrameHandler
text$x	ENDS
?FillWithBitmap@CxSkinButton@@QAEXPAVCDC@@PAVCDibBitmap@@UtagRECT@@@Z ENDP ; CxSkinButton::FillWithBitmap
PUBLIC	?ReleaseDC@CWnd@@QAEHPAVCDC@@@Z			; CWnd::ReleaseDC
PUBLIC	?Invalidate@CWnd@@QAEXH@Z			; CWnd::Invalidate
PUBLIC	?SetSkin@CxSkinButton@@QAEXPAVCDibBitmap@@00000FFF_N@Z ; CxSkinButton::SetSkin
PUBLIC	?SetWindowRgn@CWnd@@QAEHPAUHRGN__@@H@Z		; CWnd::SetWindowRgn
EXTRN	__imp__SelectClipRgn@8:NEAR
EXTRN	?SetWindowPos@CWnd@@QAEHPBV1@HHHHI@Z:NEAR	; CWnd::SetWindowPos
; Function compile flags: /Odt
_TEXT	SEGMENT
tv90 = -24						; size = 4
tv81 = -20						; size = 4
tv82 = -16						; size = 4
tv76 = -12						; size = 4
_this$ = -8						; size = 4
_dc$198005 = -4						; size = 4
_normal$ = 8						; size = 4
_down$ = 12						; size = 4
_over$ = 16						; size = 4
_disabled$ = 20						; size = 4
_focus$ = 24						; size = 4
_mask$ = 28						; size = 4
_drawmode$ = 32						; size = 2
_border$ = 36						; size = 2
_margin$ = 40						; size = 2
_bSetSizeBySkin$ = 44					; size = 1
?SetSkin@CxSkinButton@@QAEXPAVCDibBitmap@@00000FFF_N@Z PROC NEAR ; CxSkinButton::SetSkin
; _this$ = ecx

; 585  : {

  01760	55		 push	 ebp
  01761	8b ec		 mov	 ebp, esp
  01763	83 ec 18	 sub	 esp, 24			; 00000018H
  01766	89 4d f8	 mov	 DWORD PTR _this$[ebp], ecx

; 586  : 	m_bNormal = normal;

  01769	8b 45 f8	 mov	 eax, DWORD PTR _this$[ebp]
  0176c	8b 4d 08	 mov	 ecx, DWORD PTR _normal$[ebp]
  0176f	89 88 ec 00 00
	00		 mov	 DWORD PTR [eax+236], ecx

; 587  : 	m_bDown = down;

  01775	8b 55 f8	 mov	 edx, DWORD PTR _this$[ebp]
  01778	8b 45 0c	 mov	 eax, DWORD PTR _down$[ebp]
  0177b	89 82 f0 00 00
	00		 mov	 DWORD PTR [edx+240], eax

; 588  : 	m_bOver = over;

  01781	8b 4d f8	 mov	 ecx, DWORD PTR _this$[ebp]
  01784	8b 55 10	 mov	 edx, DWORD PTR _over$[ebp]
  01787	89 91 fc 00 00
	00		 mov	 DWORD PTR [ecx+252], edx

; 589  : 	m_bFocus = focus;

  0178d	8b 45 f8	 mov	 eax, DWORD PTR _this$[ebp]
  01790	8b 4d 18	 mov	 ecx, DWORD PTR _focus$[ebp]
  01793	89 88 00 01 00
	00		 mov	 DWORD PTR [eax+256], ecx

; 590  : 	if( disabled == 0 )

  01799	83 7d 14 00	 cmp	 DWORD PTR _disabled$[ebp], 0
  0179d	75 0e		 jne	 SHORT $L197993

; 591  : 		m_bDisabled = normal;

  0179f	8b 55 f8	 mov	 edx, DWORD PTR _this$[ebp]
  017a2	8b 45 08	 mov	 eax, DWORD PTR _normal$[ebp]
  017a5	89 82 f4 00 00
	00		 mov	 DWORD PTR [edx+244], eax

; 592  : 	else

  017ab	eb 0c		 jmp	 SHORT $L197994
$L197993:

; 593  : 		m_bDisabled = disabled;

  017ad	8b 4d f8	 mov	 ecx, DWORD PTR _this$[ebp]
  017b0	8b 55 14	 mov	 edx, DWORD PTR _disabled$[ebp]
  017b3	89 91 f4 00 00
	00		 mov	 DWORD PTR [ecx+244], edx
$L197994:

; 594  : 
; 595  : 	m_bMask = mask;

  017b9	8b 45 f8	 mov	 eax, DWORD PTR _this$[ebp]
  017bc	8b 4d 1c	 mov	 ecx, DWORD PTR _mask$[ebp]
  017bf	89 88 f8 00 00
	00		 mov	 DWORD PTR [eax+248], ecx

; 596  : 
; 597  : 	m_DrawMode=max(0,min(drawmode,2));

  017c5	0f bf 55 20	 movsx	 edx, WORD PTR _drawmode$[ebp]
  017c9	83 fa 02	 cmp	 edx, 2
  017cc	7d 09		 jge	 SHORT $L199011
  017ce	0f bf 45 20	 movsx	 eax, WORD PTR _drawmode$[ebp]
  017d2	89 45 f4	 mov	 DWORD PTR tv76[ebp], eax
  017d5	eb 07		 jmp	 SHORT $L199012
$L199011:
  017d7	c7 45 f4 02 00
	00 00		 mov	 DWORD PTR tv76[ebp], 2
$L199012:
  017de	83 7d f4 00	 cmp	 DWORD PTR tv76[ebp], 0
  017e2	7d 09		 jge	 SHORT $L199015
  017e4	c7 45 f0 00 00
	00 00		 mov	 DWORD PTR tv82[ebp], 0
  017eb	eb 1f		 jmp	 SHORT $L199016
$L199015:
  017ed	0f bf 4d 20	 movsx	 ecx, WORD PTR _drawmode$[ebp]
  017f1	83 f9 02	 cmp	 ecx, 2
  017f4	7d 09		 jge	 SHORT $L199013
  017f6	0f bf 55 20	 movsx	 edx, WORD PTR _drawmode$[ebp]
  017fa	89 55 ec	 mov	 DWORD PTR tv81[ebp], edx
  017fd	eb 07		 jmp	 SHORT $L199014
$L199013:
  017ff	c7 45 ec 02 00
	00 00		 mov	 DWORD PTR tv81[ebp], 2
$L199014:
  01806	8b 45 ec	 mov	 eax, DWORD PTR tv81[ebp]
  01809	89 45 f0	 mov	 DWORD PTR tv82[ebp], eax
$L199016:
  0180c	8b 4d f8	 mov	 ecx, DWORD PTR _this$[ebp]
  0180f	66 8b 55 f0	 mov	 dx, WORD PTR tv82[ebp]
  01813	66 89 91 20 01
	00 00		 mov	 WORD PTR [ecx+288], dx

; 598  : 	m_Border=border;

  0181a	0f bf 45 24	 movsx	 eax, WORD PTR _border$[ebp]
  0181e	8b 4d f8	 mov	 ecx, DWORD PTR _this$[ebp]
  01821	89 81 1c 01 00
	00		 mov	 DWORD PTR [ecx+284], eax

; 599  : 	m_FocusRectMargin=max(0,margin);

  01827	0f bf 55 28	 movsx	 edx, WORD PTR _margin$[ebp]
  0182b	85 d2		 test	 edx, edx
  0182d	7d 09		 jge	 SHORT $L199017
  0182f	c7 45 e8 00 00
	00 00		 mov	 DWORD PTR tv90[ebp], 0
  01836	eb 07		 jmp	 SHORT $L199018
$L199017:
  01838	0f bf 45 28	 movsx	 eax, WORD PTR _margin$[ebp]
  0183c	89 45 e8	 mov	 DWORD PTR tv90[ebp], eax
$L199018:
  0183f	8b 4d f8	 mov	 ecx, DWORD PTR _this$[ebp]
  01842	66 8b 55 e8	 mov	 dx, WORD PTR tv90[ebp]
  01846	66 89 91 04 01
	00 00		 mov	 WORD PTR [ecx+260], dx

; 600  : 	
; 601  : 	if(this->m_hWnd == NULL)

  0184d	8b 45 f8	 mov	 eax, DWORD PTR _this$[ebp]
  01850	83 78 20 00	 cmp	 DWORD PTR [eax+32], 0
  01854	75 05		 jne	 SHORT $L197995

; 602  : 		return;

  01856	e9 4b 01 00 00	 jmp	 $L197992
$L197995:

; 603  : 
; 604  : 	//if (m_bMask==0 && m_bSetMask){	
; 605  : 	//	m_bMask = normal;//hClipRgn = CreateRegionFromDib(normal,0);
; 606  : 	//}
; 607  : 
; 608  : 	if (m_bMask!=0 && m_bMask->is_Loaded){		

  0185b	8b 4d f8	 mov	 ecx, DWORD PTR _this$[ebp]
  0185e	83 b9 f8 00 00
	00 00		 cmp	 DWORD PTR [ecx+248], 0
  01865	0f 84 e5 00 00
	00		 je	 $L197996
  0186b	8b 55 f8	 mov	 edx, DWORD PTR _this$[ebp]
  0186e	8b 82 f8 00 00
	00		 mov	 eax, DWORD PTR [edx+248]
  01874	0f b6 48 5c	 movzx	 ecx, BYTE PTR [eax+92]
  01878	85 c9		 test	 ecx, ecx
  0187a	0f 84 d0 00 00
	00		 je	 $L197996

; 609  : 		if (hClipRgn) DeleteObject(hClipRgn);

  01880	8b 55 f8	 mov	 edx, DWORD PTR _this$[ebp]
  01883	83 ba 18 01 00
	00 00		 cmp	 DWORD PTR [edx+280], 0
  0188a	74 10		 je	 SHORT $L197997
  0188c	8b 45 f8	 mov	 eax, DWORD PTR _this$[ebp]
  0188f	8b 88 18 01 00
	00		 mov	 ecx, DWORD PTR [eax+280]
  01895	51		 push	 ecx
  01896	ff 15 00 00 00
	00		 call	 DWORD PTR __imp__DeleteObject@4
$L197997:

; 610  : 
; 611  : 		hClipRgn = CreateRegionFromDib(m_bMask, RGB(255,255,255));//m_bMask->CreateRgnFromBitmap(RGB(255,255,255), this->GetDC());//CreateRgnFromBitmap(m_bMask,RGB(255,255,255));

  0189c	68 ff ff ff 00	 push	 16777215		; 00ffffffH
  018a1	8b 55 f8	 mov	 edx, DWORD PTR _this$[ebp]
  018a4	8b 82 f8 00 00
	00		 mov	 eax, DWORD PTR [edx+248]
  018aa	50		 push	 eax
  018ab	8b 4d f8	 mov	 ecx, DWORD PTR _this$[ebp]
  018ae	e8 00 00 00 00	 call	 ?CreateRegionFromDib@CxSkinButton@@QAEPAUHRGN__@@PAVCDibBitmap@@K@Z ; CxSkinButton::CreateRegionFromDib
  018b3	8b 4d f8	 mov	 ecx, DWORD PTR _this$[ebp]
  018b6	89 81 18 01 00
	00		 mov	 DWORD PTR [ecx+280], eax

; 612  : 
; 613  : 		if (hClipRgn){

  018bc	8b 55 f8	 mov	 edx, DWORD PTR _this$[ebp]
  018bf	83 ba 18 01 00
	00 00		 cmp	 DWORD PTR [edx+280], 0
  018c6	74 42		 je	 SHORT $L198004

; 614  : 			SetWindowRgn(hClipRgn, TRUE);

  018c8	6a 01		 push	 1
  018ca	8b 45 f8	 mov	 eax, DWORD PTR _this$[ebp]
  018cd	8b 88 18 01 00
	00		 mov	 ecx, DWORD PTR [eax+280]
  018d3	51		 push	 ecx
  018d4	8b 4d f8	 mov	 ecx, DWORD PTR _this$[ebp]
  018d7	e8 00 00 00 00	 call	 ?SetWindowRgn@CWnd@@QAEHPAUHRGN__@@H@Z ; CWnd::SetWindowRgn

; 615  : 			CDC* dc = GetDC();

  018dc	8b 4d f8	 mov	 ecx, DWORD PTR _this$[ebp]
  018df	e8 00 00 00 00	 call	 ?GetDC@CWnd@@QAEPAVCDC@@XZ ; CWnd::GetDC
  018e4	89 45 fc	 mov	 DWORD PTR _dc$198005[ebp], eax

; 616  : 			SelectClipRgn( dc->m_hDC ,hClipRgn);

  018e7	8b 55 f8	 mov	 edx, DWORD PTR _this$[ebp]
  018ea	8b 82 18 01 00
	00		 mov	 eax, DWORD PTR [edx+280]
  018f0	50		 push	 eax
  018f1	8b 4d fc	 mov	 ecx, DWORD PTR _dc$198005[ebp]
  018f4	8b 51 04	 mov	 edx, DWORD PTR [ecx+4]
  018f7	52		 push	 edx
  018f8	ff 15 00 00 00
	00		 call	 DWORD PTR __imp__SelectClipRgn@8

; 617  : 			ReleaseDC( dc );

  018fe	8b 45 fc	 mov	 eax, DWORD PTR _dc$198005[ebp]
  01901	50		 push	 eax
  01902	8b 4d f8	 mov	 ecx, DWORD PTR _this$[ebp]
  01905	e8 00 00 00 00	 call	 ?ReleaseDC@CWnd@@QAEHPAVCDC@@@Z ; CWnd::ReleaseDC
$L198004:

; 618  : 		}
; 619  : 		if (m_DrawMode==0){

  0190a	8b 4d f8	 mov	 ecx, DWORD PTR _this$[ebp]
  0190d	0f bf 91 20 01
	00 00		 movsx	 edx, WORD PTR [ecx+288]
  01914	85 d2		 test	 edx, edx
  01916	75 36		 jne	 SHORT $L198006

; 620  : 		SetWindowPos(NULL,0,0,GetBitmapWidth(m_bMask),
; 621  : 					GetBitmapHeight(m_bMask),SWP_NOZORDER|SWP_NOMOVE);

  01918	6a 06		 push	 6
  0191a	8b 45 f8	 mov	 eax, DWORD PTR _this$[ebp]
  0191d	8b 88 f8 00 00
	00		 mov	 ecx, DWORD PTR [eax+248]
  01923	51		 push	 ecx
  01924	8b 4d f8	 mov	 ecx, DWORD PTR _this$[ebp]
  01927	e8 00 00 00 00	 call	 ?GetBitmapHeight@CxSkinButton@@QAEHPAVCDibBitmap@@@Z ; CxSkinButton::GetBitmapHeight
  0192c	50		 push	 eax
  0192d	8b 55 f8	 mov	 edx, DWORD PTR _this$[ebp]
  01930	8b 82 f8 00 00
	00		 mov	 eax, DWORD PTR [edx+248]
  01936	50		 push	 eax
  01937	8b 4d f8	 mov	 ecx, DWORD PTR _this$[ebp]
  0193a	e8 00 00 00 00	 call	 ?GetBitmapWidth@CxSkinButton@@QAEHPAVCDibBitmap@@@Z ; CxSkinButton::GetBitmapWidth
  0193f	50		 push	 eax
  01940	6a 00		 push	 0
  01942	6a 00		 push	 0
  01944	6a 00		 push	 0
  01946	8b 4d f8	 mov	 ecx, DWORD PTR _this$[ebp]
  01949	e8 00 00 00 00	 call	 ?SetWindowPos@CWnd@@QAEHPBV1@HHHHI@Z ; CWnd::SetWindowPos
$L198006:

; 622  : 		}
; 623  : 	}
; 624  : 	else

  0194e	eb 4c		 jmp	 SHORT $L198007
$L197996:

; 625  : 	{
; 626  : 		if (m_DrawMode==0 && bSetSizeBySkin){

  01950	8b 4d f8	 mov	 ecx, DWORD PTR _this$[ebp]
  01953	0f bf 91 20 01
	00 00		 movsx	 edx, WORD PTR [ecx+288]
  0195a	85 d2		 test	 edx, edx
  0195c	75 3e		 jne	 SHORT $L198007
  0195e	0f b6 45 2c	 movzx	 eax, BYTE PTR _bSetSizeBySkin$[ebp]
  01962	85 c0		 test	 eax, eax
  01964	74 36		 je	 SHORT $L198007

; 627  : 			SetWindowPos(NULL,0,0,GetBitmapWidth(m_bNormal), GetBitmapHeight(m_bNormal),SWP_NOZORDER|SWP_NOMOVE);

  01966	6a 06		 push	 6
  01968	8b 4d f8	 mov	 ecx, DWORD PTR _this$[ebp]
  0196b	8b 91 ec 00 00
	00		 mov	 edx, DWORD PTR [ecx+236]
  01971	52		 push	 edx
  01972	8b 4d f8	 mov	 ecx, DWORD PTR _this$[ebp]
  01975	e8 00 00 00 00	 call	 ?GetBitmapHeight@CxSkinButton@@QAEHPAVCDibBitmap@@@Z ; CxSkinButton::GetBitmapHeight
  0197a	50		 push	 eax
  0197b	8b 45 f8	 mov	 eax, DWORD PTR _this$[ebp]
  0197e	8b 88 ec 00 00
	00		 mov	 ecx, DWORD PTR [eax+236]
  01984	51		 push	 ecx
  01985	8b 4d f8	 mov	 ecx, DWORD PTR _this$[ebp]
  01988	e8 00 00 00 00	 call	 ?GetBitmapWidth@CxSkinButton@@QAEHPAVCDibBitmap@@@Z ; CxSkinButton::GetBitmapWidth
  0198d	50		 push	 eax
  0198e	6a 00		 push	 0
  01990	6a 00		 push	 0
  01992	6a 00		 push	 0
  01994	8b 4d f8	 mov	 ecx, DWORD PTR _this$[ebp]
  01997	e8 00 00 00 00	 call	 ?SetWindowPos@CWnd@@QAEHPBV1@HHHHI@Z ; CWnd::SetWindowPos
$L198007:

; 628  : 		}
; 629  : 	}
; 630  : 	Invalidate(true);

  0199c	6a 01		 push	 1
  0199e	8b 4d f8	 mov	 ecx, DWORD PTR _this$[ebp]
  019a1	e8 00 00 00 00	 call	 ?Invalidate@CWnd@@QAEXH@Z ; CWnd::Invalidate
$L197992:

; 631  : 
; 632  : }

  019a6	8b e5		 mov	 esp, ebp
  019a8	5d		 pop	 ebp
  019a9	c2 28 00	 ret	 40			; 00000028H
?SetSkin@CxSkinButton@@QAEXPAVCDibBitmap@@00000FFF_N@Z ENDP ; CxSkinButton::SetSkin
_TEXT	ENDS
PUBLIC	?GetPixel@CDC@@QBEKHH@Z				; CDC::GetPixel
PUBLIC	?CreateRgnFromBitmap@CxSkinButton@@QAEPAUHRGN__@@PAVCDibBitmap@@K@Z ; CxSkinButton::CreateRgnFromBitmap
EXTRN	__imp__CombineRgn@16:NEAR
EXTRN	__imp__CreateRectRgn@16:NEAR
xdata$x	SEGMENT
$T199030 DD	0ffffffffH
	DD	FLAT:$L199026
$T199028 DD	019930520H
	DD	01H
	DD	FLAT:$T199030
	DD	2 DUP(00H)
	DD	2 DUP(00H)
; Function compile flags: /Odt
xdata$x	ENDS
_TEXT	SEGMENT
_this$ = -152						; size = 4
$T199025 = -148						; size = 4
$T199024 = -144						; size = 4
$T199023 = -140						; size = 4
$T199022 = -136						; size = 4
$T199021 = -132						; size = 16
$T199020 = -116						; size = 4
_hr$198065 = -112					; size = 4
_pRgnDataNew$198048 = -108				; size = 4
_pixcolor$198040 = -104					; size = 4
_j$ = -100						; size = 4
_RDHDR$ = -96						; size = 4
_bm$ = -92						; size = 24
_ismask$ = -65						; size = 1
_pRects$ = -64						; size = 4
_hRgn$ = -60						; size = 4
_dcBmp$ = -56						; size = 16
_MAXBUF$ = -40						; size = 4
_i$ = -36						; size = 4
_wasfirst$ = -29					; size = 1
_hBmp$ = -28						; size = 4
_pRgnData$ = -24					; size = 4
_cBlocks$ = -20						; size = 4
_first$ = -16						; size = 4
__$EHRec$ = -12						; size = 12
_hDib$ = 8						; size = 4
_color$ = 12						; size = 4
?CreateRgnFromBitmap@CxSkinButton@@QAEPAUHRGN__@@PAVCDibBitmap@@K@Z PROC NEAR ; CxSkinButton::CreateRgnFromBitmap
; _this$ = ecx

; 636  : {

  019b0	55		 push	 ebp
  019b1	8b ec		 mov	 ebp, esp
  019b3	6a ff		 push	 -1
  019b5	68 00 00 00 00	 push	 __ehhandler$?CreateRgnFromBitmap@CxSkinButton@@QAEPAUHRGN__@@PAVCDibBitmap@@K@Z
  019ba	64 a1 00 00 00
	00		 mov	 eax, DWORD PTR fs:__except_list
  019c0	50		 push	 eax
  019c1	64 89 25 00 00
	00 00		 mov	 DWORD PTR fs:__except_list, esp
  019c8	81 ec 8c 00 00
	00		 sub	 esp, 140		; 0000008cH
  019ce	89 8d 68 ff ff
	ff		 mov	 DWORD PTR _this$[ebp], ecx

; 637  : 
; 638  : 	HBITMAP hBmp = hDib->CreateBitmap(this->GetDC());

  019d4	8b 8d 68 ff ff
	ff		 mov	 ecx, DWORD PTR _this$[ebp]
  019da	e8 00 00 00 00	 call	 ?GetDC@CWnd@@QAEPAVCDC@@XZ ; CWnd::GetDC
  019df	50		 push	 eax
  019e0	8b 4d 08	 mov	 ecx, DWORD PTR _hDib$[ebp]
  019e3	e8 00 00 00 00	 call	 ?CreateBitmap@CDibBitmap@@QAEPAUHBITMAP__@@PAVCDC@@@Z ; CDibBitmap::CreateBitmap
  019e8	89 45 e4	 mov	 DWORD PTR _hBmp$[ebp], eax

; 639  : 	BITMAP bm;
; 640  : 	GetObject( hBmp, sizeof(BITMAP), &bm );	// get bitmap attributes

  019eb	8d 45 a4	 lea	 eax, DWORD PTR _bm$[ebp]
  019ee	50		 push	 eax
  019ef	6a 18		 push	 24			; 00000018H
  019f1	8b 4d e4	 mov	 ecx, DWORD PTR _hBmp$[ebp]
  019f4	51		 push	 ecx
  019f5	ff 15 00 00 00
	00		 call	 DWORD PTR __imp__GetObjectA@12

; 641  : 
; 642  : 	CDC dcBmp;

  019fb	8d 4d c8	 lea	 ecx, DWORD PTR _dcBmp$[ebp]
  019fe	e8 00 00 00 00	 call	 ??0CDC@@QAE@XZ		; CDC::CDC
  01a03	c7 45 fc 00 00
	00 00		 mov	 DWORD PTR __$EHRec$[ebp+8], 0

; 643  : 	dcBmp.CreateCompatibleDC(GetDC());	//Creates a memory device context for the bitmap

  01a0a	8b 8d 68 ff ff
	ff		 mov	 ecx, DWORD PTR _this$[ebp]
  01a10	e8 00 00 00 00	 call	 ?GetDC@CWnd@@QAEPAVCDC@@XZ ; CWnd::GetDC
  01a15	50		 push	 eax
  01a16	8d 4d c8	 lea	 ecx, DWORD PTR _dcBmp$[ebp]
  01a19	e8 00 00 00 00	 call	 ?CreateCompatibleDC@CDC@@QAEHPAV1@@Z ; CDC::CreateCompatibleDC

; 644  : 	dcBmp.SelectObject(hBmp);			//selects the bitmap in the device context

  01a1e	8b 55 e4	 mov	 edx, DWORD PTR _hBmp$[ebp]
  01a21	52		 push	 edx
  01a22	8d 4d c8	 lea	 ecx, DWORD PTR _dcBmp$[ebp]
  01a25	e8 00 00 00 00	 call	 ?SelectObject@CDC@@QAEPAXPAX@Z ; CDC::SelectObject

; 645  : 
; 646  : 	const DWORD RDHDR = sizeof(RGNDATAHEADER);

  01a2a	c7 45 a0 20 00
	00 00		 mov	 DWORD PTR _RDHDR$[ebp], 32 ; 00000020H

; 647  : 	const DWORD MAXBUF = 40;		// size of one block in RECTs

  01a31	c7 45 d8 28 00
	00 00		 mov	 DWORD PTR _MAXBUF$[ebp], 40 ; 00000028H

; 648  : 									// (i.e. MAXBUF*sizeof(RECT) in bytes)
; 649  : 	LPRECT	pRects;								
; 650  : 	DWORD	cBlocks = 0;			// number of allocated blocks

  01a38	c7 45 ec 00 00
	00 00		 mov	 DWORD PTR _cBlocks$[ebp], 0

; 651  : 
; 652  : 	INT		i, j;					// current position in mask image
; 653  : 	INT		first = 0;				// left position of current scan line

  01a3f	c7 45 f0 00 00
	00 00		 mov	 DWORD PTR _first$[ebp], 0

; 654  : 									// where mask was found
; 655  : 	bool	wasfirst = false;		// set when if mask was found in current scan line

  01a46	c6 45 e3 00	 mov	 BYTE PTR _wasfirst$[ebp], 0

; 656  : 	bool	ismask;					// set when current color is mask color
; 657  : 
; 658  : 	// allocate memory for region data
; 659  : 	RGNDATAHEADER* pRgnData = (RGNDATAHEADER*)new BYTE[ RDHDR + ++cBlocks * MAXBUF * sizeof(RECT) ];

  01a4a	8b 45 ec	 mov	 eax, DWORD PTR _cBlocks$[ebp]
  01a4d	83 c0 01	 add	 eax, 1
  01a50	89 45 ec	 mov	 DWORD PTR _cBlocks$[ebp], eax
  01a53	8b 4d ec	 mov	 ecx, DWORD PTR _cBlocks$[ebp]
  01a56	6b c9 28	 imul	 ecx, 40			; 00000028H
  01a59	c1 e1 04	 shl	 ecx, 4
  01a5c	83 c1 20	 add	 ecx, 32			; 00000020H
  01a5f	51		 push	 ecx
  01a60	e8 00 00 00 00	 call	 ??_U@YAPAXI@Z		; operator new[]
  01a65	83 c4 04	 add	 esp, 4
  01a68	89 45 8c	 mov	 DWORD PTR $T199020[ebp], eax
  01a6b	8b 55 8c	 mov	 edx, DWORD PTR $T199020[ebp]
  01a6e	89 55 e8	 mov	 DWORD PTR _pRgnData$[ebp], edx

; 660  : 	memset( pRgnData, 0, RDHDR + cBlocks * MAXBUF * sizeof(RECT) );

  01a71	8b 45 ec	 mov	 eax, DWORD PTR _cBlocks$[ebp]
  01a74	6b c0 28	 imul	 eax, 40			; 00000028H
  01a77	c1 e0 04	 shl	 eax, 4
  01a7a	83 c0 20	 add	 eax, 32			; 00000020H
  01a7d	50		 push	 eax
  01a7e	6a 00		 push	 0
  01a80	8b 4d e8	 mov	 ecx, DWORD PTR _pRgnData$[ebp]
  01a83	51		 push	 ecx
  01a84	e8 00 00 00 00	 call	 _memset
  01a89	83 c4 0c	 add	 esp, 12			; 0000000cH

; 661  : 	// fill it by default
; 662  : 	pRgnData->dwSize	= RDHDR;

  01a8c	8b 55 e8	 mov	 edx, DWORD PTR _pRgnData$[ebp]
  01a8f	c7 02 20 00 00
	00		 mov	 DWORD PTR [edx], 32	; 00000020H

; 663  : 	pRgnData->iType		= RDH_RECTANGLES;

  01a95	8b 45 e8	 mov	 eax, DWORD PTR _pRgnData$[ebp]
  01a98	c7 40 04 01 00
	00 00		 mov	 DWORD PTR [eax+4], 1

; 664  : 	pRgnData->nCount	= 0;

  01a9f	8b 4d e8	 mov	 ecx, DWORD PTR _pRgnData$[ebp]
  01aa2	c7 41 08 00 00
	00 00		 mov	 DWORD PTR [ecx+8], 0

; 665  : 	for ( i = 0; i < bm.bmHeight; i++ )

  01aa9	c7 45 dc 00 00
	00 00		 mov	 DWORD PTR _i$[ebp], 0
  01ab0	eb 09		 jmp	 SHORT $L198034
$L198035:
  01ab2	8b 55 dc	 mov	 edx, DWORD PTR _i$[ebp]
  01ab5	83 c2 01	 add	 edx, 1
  01ab8	89 55 dc	 mov	 DWORD PTR _i$[ebp], edx
$L198034:
  01abb	8b 45 dc	 mov	 eax, DWORD PTR _i$[ebp]
  01abe	3b 45 ac	 cmp	 eax, DWORD PTR _bm$[ebp+8]
  01ac1	0f 8d 8a 01 00
	00		 jge	 $L198036

; 666  : 	for ( j = 0; j < bm.bmWidth; j++ ){

  01ac7	c7 45 9c 00 00
	00 00		 mov	 DWORD PTR _j$[ebp], 0
  01ace	eb 09		 jmp	 SHORT $L198037
$L198038:
  01ad0	8b 4d 9c	 mov	 ecx, DWORD PTR _j$[ebp]
  01ad3	83 c1 01	 add	 ecx, 1
  01ad6	89 4d 9c	 mov	 DWORD PTR _j$[ebp], ecx
$L198037:
  01ad9	8b 55 9c	 mov	 edx, DWORD PTR _j$[ebp]
  01adc	3b 55 a8	 cmp	 edx, DWORD PTR _bm$[ebp+4]
  01adf	0f 8d 67 01 00
	00		 jge	 $L198039

; 667  : 		// get color
; 668  : 		COLORREF pixcolor = dcBmp.GetPixel(j,bm.bmHeight-i-1);

  01ae5	8b 45 ac	 mov	 eax, DWORD PTR _bm$[ebp+8]
  01ae8	2b 45 dc	 sub	 eax, DWORD PTR _i$[ebp]
  01aeb	83 e8 01	 sub	 eax, 1
  01aee	50		 push	 eax
  01aef	8b 4d 9c	 mov	 ecx, DWORD PTR _j$[ebp]
  01af2	51		 push	 ecx
  01af3	8d 4d c8	 lea	 ecx, DWORD PTR _dcBmp$[ebp]
  01af6	e8 00 00 00 00	 call	 ?GetPixel@CDC@@QBEKHH@Z	; CDC::GetPixel
  01afb	89 45 98	 mov	 DWORD PTR _pixcolor$198040[ebp], eax

; 669  : 		ismask=(pixcolor!=color);

  01afe	8b 55 98	 mov	 edx, DWORD PTR _pixcolor$198040[ebp]
  01b01	33 c0		 xor	 eax, eax
  01b03	3b 55 0c	 cmp	 edx, DWORD PTR _color$[ebp]
  01b06	0f 95 c0	 setne	 al
  01b09	88 45 bf	 mov	 BYTE PTR _ismask$[ebp], al

; 670  : 		// place part of scan line as RECT region if transparent color found after mask color or
; 671  : 		// mask color found at the end of mask image
; 672  : 		if (wasfirst && ((ismask && (j==(bm.bmWidth-1)))||(ismask ^ (j<bm.bmWidth)))){

  01b0c	0f b6 4d e3	 movzx	 ecx, BYTE PTR _wasfirst$[ebp]
  01b10	85 c9		 test	 ecx, ecx
  01b12	0f 84 15 01 00
	00		 je	 $L198041
  01b18	0f b6 55 bf	 movzx	 edx, BYTE PTR _ismask$[ebp]
  01b1c	85 d2		 test	 edx, edx
  01b1e	74 0b		 je	 SHORT $L198043
  01b20	8b 45 a8	 mov	 eax, DWORD PTR _bm$[ebp+4]
  01b23	83 e8 01	 sub	 eax, 1
  01b26	39 45 9c	 cmp	 DWORD PTR _j$[ebp], eax
  01b29	74 17		 je	 SHORT $L198042
$L198043:
  01b2b	0f b6 4d bf	 movzx	 ecx, BYTE PTR _ismask$[ebp]
  01b2f	8b 55 9c	 mov	 edx, DWORD PTR _j$[ebp]
  01b32	33 c0		 xor	 eax, eax
  01b34	3b 55 a8	 cmp	 edx, DWORD PTR _bm$[ebp+4]
  01b37	0f 9c c0	 setl	 al
  01b3a	33 c8		 xor	 ecx, eax
  01b3c	0f 84 eb 00 00
	00		 je	 $L198041
$L198042:

; 673  : 			// get offset to RECT array if RGNDATA buffer
; 674  : 			pRects = (LPRECT)((LPBYTE)pRgnData + RDHDR);

  01b42	8b 4d e8	 mov	 ecx, DWORD PTR _pRgnData$[ebp]
  01b45	83 c1 20	 add	 ecx, 32			; 00000020H
  01b48	89 4d c0	 mov	 DWORD PTR _pRects$[ebp], ecx

; 675  : 			// save current RECT
; 676  : 			pRects[ pRgnData->nCount++ ] = CRect( first, bm.bmHeight - i - 1, j+(j==(bm.bmWidth-1)), bm.bmHeight - i );

  01b4b	8b 55 ac	 mov	 edx, DWORD PTR _bm$[ebp+8]
  01b4e	2b 55 dc	 sub	 edx, DWORD PTR _i$[ebp]
  01b51	52		 push	 edx
  01b52	8b 45 a8	 mov	 eax, DWORD PTR _bm$[ebp+4]
  01b55	83 e8 01	 sub	 eax, 1
  01b58	33 c9		 xor	 ecx, ecx
  01b5a	39 45 9c	 cmp	 DWORD PTR _j$[ebp], eax
  01b5d	0f 94 c1	 sete	 cl
  01b60	03 4d 9c	 add	 ecx, DWORD PTR _j$[ebp]
  01b63	51		 push	 ecx
  01b64	8b 55 ac	 mov	 edx, DWORD PTR _bm$[ebp+8]
  01b67	2b 55 dc	 sub	 edx, DWORD PTR _i$[ebp]
  01b6a	83 ea 01	 sub	 edx, 1
  01b6d	52		 push	 edx
  01b6e	8b 45 f0	 mov	 eax, DWORD PTR _first$[ebp]
  01b71	50		 push	 eax
  01b72	8d 8d 7c ff ff
	ff		 lea	 ecx, DWORD PTR $T199021[ebp]
  01b78	e8 00 00 00 00	 call	 ??0CRect@@QAE@HHHH@Z	; CRect::CRect
  01b7d	8b 4d e8	 mov	 ecx, DWORD PTR _pRgnData$[ebp]
  01b80	8b 51 08	 mov	 edx, DWORD PTR [ecx+8]
  01b83	c1 e2 04	 shl	 edx, 4
  01b86	03 55 c0	 add	 edx, DWORD PTR _pRects$[ebp]
  01b89	8b 08		 mov	 ecx, DWORD PTR [eax]
  01b8b	89 0a		 mov	 DWORD PTR [edx], ecx
  01b8d	8b 48 04	 mov	 ecx, DWORD PTR [eax+4]
  01b90	89 4a 04	 mov	 DWORD PTR [edx+4], ecx
  01b93	8b 48 08	 mov	 ecx, DWORD PTR [eax+8]
  01b96	89 4a 08	 mov	 DWORD PTR [edx+8], ecx
  01b99	8b 40 0c	 mov	 eax, DWORD PTR [eax+12]
  01b9c	89 42 0c	 mov	 DWORD PTR [edx+12], eax
  01b9f	8b 4d e8	 mov	 ecx, DWORD PTR _pRgnData$[ebp]
  01ba2	8b 51 08	 mov	 edx, DWORD PTR [ecx+8]
  01ba5	83 c2 01	 add	 edx, 1
  01ba8	8b 45 e8	 mov	 eax, DWORD PTR _pRgnData$[ebp]
  01bab	89 50 08	 mov	 DWORD PTR [eax+8], edx

; 677  : 			// if buffer full reallocate it
; 678  : 			if ( pRgnData->nCount >= cBlocks * MAXBUF ){

  01bae	8b 4d ec	 mov	 ecx, DWORD PTR _cBlocks$[ebp]
  01bb1	6b c9 28	 imul	 ecx, 40			; 00000028H
  01bb4	8b 55 e8	 mov	 edx, DWORD PTR _pRgnData$[ebp]
  01bb7	39 4a 08	 cmp	 DWORD PTR [edx+8], ecx
  01bba	72 6b		 jb	 SHORT $L198047

; 679  : 				LPBYTE pRgnDataNew = new BYTE[ RDHDR + ++cBlocks * MAXBUF * sizeof(RECT) ];

  01bbc	8b 45 ec	 mov	 eax, DWORD PTR _cBlocks$[ebp]
  01bbf	83 c0 01	 add	 eax, 1
  01bc2	89 45 ec	 mov	 DWORD PTR _cBlocks$[ebp], eax
  01bc5	8b 4d ec	 mov	 ecx, DWORD PTR _cBlocks$[ebp]
  01bc8	6b c9 28	 imul	 ecx, 40			; 00000028H
  01bcb	c1 e1 04	 shl	 ecx, 4
  01bce	83 c1 20	 add	 ecx, 32			; 00000020H
  01bd1	51		 push	 ecx
  01bd2	e8 00 00 00 00	 call	 ??_U@YAPAXI@Z		; operator new[]
  01bd7	83 c4 04	 add	 esp, 4
  01bda	89 85 78 ff ff
	ff		 mov	 DWORD PTR $T199022[ebp], eax
  01be0	8b 95 78 ff ff
	ff		 mov	 edx, DWORD PTR $T199022[ebp]
  01be6	89 55 94	 mov	 DWORD PTR _pRgnDataNew$198048[ebp], edx

; 680  : 				memcpy( pRgnDataNew, pRgnData, RDHDR + (cBlocks - 1) * MAXBUF * sizeof(RECT) );

  01be9	8b 45 ec	 mov	 eax, DWORD PTR _cBlocks$[ebp]
  01bec	83 e8 01	 sub	 eax, 1
  01bef	6b c0 28	 imul	 eax, 40			; 00000028H
  01bf2	c1 e0 04	 shl	 eax, 4
  01bf5	83 c0 20	 add	 eax, 32			; 00000020H
  01bf8	50		 push	 eax
  01bf9	8b 4d e8	 mov	 ecx, DWORD PTR _pRgnData$[ebp]
  01bfc	51		 push	 ecx
  01bfd	8b 55 94	 mov	 edx, DWORD PTR _pRgnDataNew$198048[ebp]
  01c00	52		 push	 edx
  01c01	e8 00 00 00 00	 call	 _memcpy
  01c06	83 c4 0c	 add	 esp, 12			; 0000000cH

; 681  : 				delete pRgnData;

  01c09	8b 45 e8	 mov	 eax, DWORD PTR _pRgnData$[ebp]
  01c0c	89 85 74 ff ff
	ff		 mov	 DWORD PTR $T199023[ebp], eax
  01c12	8b 8d 74 ff ff
	ff		 mov	 ecx, DWORD PTR $T199023[ebp]
  01c18	51		 push	 ecx
  01c19	e8 00 00 00 00	 call	 ??3@YAXPAX@Z		; operator delete
  01c1e	83 c4 04	 add	 esp, 4

; 682  : 				pRgnData = (RGNDATAHEADER*)pRgnDataNew;

  01c21	8b 55 94	 mov	 edx, DWORD PTR _pRgnDataNew$198048[ebp]
  01c24	89 55 e8	 mov	 DWORD PTR _pRgnData$[ebp], edx
$L198047:

; 683  : 			}
; 684  : 			wasfirst = false;

  01c27	c6 45 e3 00	 mov	 BYTE PTR _wasfirst$[ebp], 0

; 685  : 		} else if ( !wasfirst && ismask ){		// set wasfirst when mask is found

  01c2b	eb 1a		 jmp	 SHORT $L198055
$L198041:
  01c2d	0f b6 45 e3	 movzx	 eax, BYTE PTR _wasfirst$[ebp]
  01c31	85 c0		 test	 eax, eax
  01c33	75 12		 jne	 SHORT $L198055
  01c35	0f b6 4d bf	 movzx	 ecx, BYTE PTR _ismask$[ebp]
  01c39	85 c9		 test	 ecx, ecx
  01c3b	74 0a		 je	 SHORT $L198055

; 686  : 			first = j;

  01c3d	8b 55 9c	 mov	 edx, DWORD PTR _j$[ebp]
  01c40	89 55 f0	 mov	 DWORD PTR _first$[ebp], edx

; 687  : 			wasfirst = true;

  01c43	c6 45 e3 01	 mov	 BYTE PTR _wasfirst$[ebp], 1
$L198055:

; 688  : 		}
; 689  : 	}

  01c47	e9 84 fe ff ff	 jmp	 $L198038
$L198039:
  01c4c	e9 61 fe ff ff	 jmp	 $L198035
$L198036:

; 690  : 	dcBmp.DeleteDC();	//release the bitmap

  01c51	8d 4d c8	 lea	 ecx, DWORD PTR _dcBmp$[ebp]
  01c54	e8 00 00 00 00	 call	 ?DeleteDC@CDC@@QAEHXZ	; CDC::DeleteDC

; 691  : 	// create region
; 692  : /*  Under WinNT the ExtCreateRegion returns NULL (by Fable@aramszu.net) */
; 693  : //	HRGN hRgn = ExtCreateRegion( NULL, RDHDR + pRgnData->nCount * sizeof(RECT), (LPRGNDATA)pRgnData );
; 694  : /* ExtCreateRegion replacement { */
; 695  : 	HRGN hRgn=CreateRectRgn(0, 0, 0, 0);

  01c59	6a 00		 push	 0
  01c5b	6a 00		 push	 0
  01c5d	6a 00		 push	 0
  01c5f	6a 00		 push	 0
  01c61	ff 15 00 00 00
	00		 call	 DWORD PTR __imp__CreateRectRgn@16
  01c67	89 45 c4	 mov	 DWORD PTR _hRgn$[ebp], eax

; 696  : 	ASSERT( hRgn!=NULL );
; 697  : 	pRects = (LPRECT)((LPBYTE)pRgnData + RDHDR);

  01c6a	8b 45 e8	 mov	 eax, DWORD PTR _pRgnData$[ebp]
  01c6d	83 c0 20	 add	 eax, 32			; 00000020H
  01c70	89 45 c0	 mov	 DWORD PTR _pRects$[ebp], eax

; 698  : 	for(i=0;i<(int)pRgnData->nCount;i++)

  01c73	c7 45 dc 00 00
	00 00		 mov	 DWORD PTR _i$[ebp], 0
  01c7a	eb 09		 jmp	 SHORT $L198062
$L198063:
  01c7c	8b 4d dc	 mov	 ecx, DWORD PTR _i$[ebp]
  01c7f	83 c1 01	 add	 ecx, 1
  01c82	89 4d dc	 mov	 DWORD PTR _i$[ebp], ecx
$L198062:
  01c85	8b 55 e8	 mov	 edx, DWORD PTR _pRgnData$[ebp]
  01c88	8b 45 dc	 mov	 eax, DWORD PTR _i$[ebp]
  01c8b	3b 42 08	 cmp	 eax, DWORD PTR [edx+8]
  01c8e	7d 66		 jge	 SHORT $L198064

; 699  : 	{
; 700  : 		HRGN hr=CreateRectRgn(pRects[i].left, pRects[i].top, pRects[i].right, pRects[i].bottom);

  01c90	8b 4d dc	 mov	 ecx, DWORD PTR _i$[ebp]
  01c93	c1 e1 04	 shl	 ecx, 4
  01c96	8b 55 c0	 mov	 edx, DWORD PTR _pRects$[ebp]
  01c99	8b 44 0a 0c	 mov	 eax, DWORD PTR [edx+ecx+12]
  01c9d	50		 push	 eax
  01c9e	8b 4d dc	 mov	 ecx, DWORD PTR _i$[ebp]
  01ca1	c1 e1 04	 shl	 ecx, 4
  01ca4	8b 55 c0	 mov	 edx, DWORD PTR _pRects$[ebp]
  01ca7	8b 44 0a 08	 mov	 eax, DWORD PTR [edx+ecx+8]
  01cab	50		 push	 eax
  01cac	8b 4d dc	 mov	 ecx, DWORD PTR _i$[ebp]
  01caf	c1 e1 04	 shl	 ecx, 4
  01cb2	8b 55 c0	 mov	 edx, DWORD PTR _pRects$[ebp]
  01cb5	8b 44 0a 04	 mov	 eax, DWORD PTR [edx+ecx+4]
  01cb9	50		 push	 eax
  01cba	8b 4d dc	 mov	 ecx, DWORD PTR _i$[ebp]
  01cbd	c1 e1 04	 shl	 ecx, 4
  01cc0	8b 55 c0	 mov	 edx, DWORD PTR _pRects$[ebp]
  01cc3	8b 04 0a	 mov	 eax, DWORD PTR [edx+ecx]
  01cc6	50		 push	 eax
  01cc7	ff 15 00 00 00
	00		 call	 DWORD PTR __imp__CreateRectRgn@16
  01ccd	89 45 90	 mov	 DWORD PTR _hr$198065[ebp], eax

; 701  : 		VERIFY(CombineRgn(hRgn, hRgn, hr, RGN_OR)!=ERROR);

  01cd0	6a 02		 push	 2
  01cd2	8b 4d 90	 mov	 ecx, DWORD PTR _hr$198065[ebp]
  01cd5	51		 push	 ecx
  01cd6	8b 55 c4	 mov	 edx, DWORD PTR _hRgn$[ebp]
  01cd9	52		 push	 edx
  01cda	8b 45 c4	 mov	 eax, DWORD PTR _hRgn$[ebp]
  01cdd	50		 push	 eax
  01cde	ff 15 00 00 00
	00		 call	 DWORD PTR __imp__CombineRgn@16

; 702  : 		if (hr) DeleteObject(hr);

  01ce4	83 7d 90 00	 cmp	 DWORD PTR _hr$198065[ebp], 0
  01ce8	74 0a		 je	 SHORT $L198067
  01cea	8b 4d 90	 mov	 ecx, DWORD PTR _hr$198065[ebp]
  01ced	51		 push	 ecx
  01cee	ff 15 00 00 00
	00		 call	 DWORD PTR __imp__DeleteObject@4
$L198067:

; 703  : 	}

  01cf4	eb 86		 jmp	 SHORT $L198063
$L198064:

; 704  : 	ASSERT( hRgn!=NULL );
; 705  : /* } ExtCreateRegion replacement */
; 706  : 
; 707  : 	delete pRgnData;

  01cf6	8b 55 e8	 mov	 edx, DWORD PTR _pRgnData$[ebp]
  01cf9	89 95 70 ff ff
	ff		 mov	 DWORD PTR $T199024[ebp], edx
  01cff	8b 85 70 ff ff
	ff		 mov	 eax, DWORD PTR $T199024[ebp]
  01d05	50		 push	 eax
  01d06	e8 00 00 00 00	 call	 ??3@YAXPAX@Z		; operator delete
  01d0b	83 c4 04	 add	 esp, 4

; 708  : 	return hRgn;

  01d0e	8b 4d c4	 mov	 ecx, DWORD PTR _hRgn$[ebp]
  01d11	89 8d 6c ff ff
	ff		 mov	 DWORD PTR $T199025[ebp], ecx
  01d17	c7 45 fc ff ff
	ff ff		 mov	 DWORD PTR __$EHRec$[ebp+8], -1
  01d1e	8d 4d c8	 lea	 ecx, DWORD PTR _dcBmp$[ebp]
  01d21	e8 00 00 00 00	 call	 ??1CDC@@UAE@XZ		; CDC::~CDC
  01d26	8b 85 6c ff ff
	ff		 mov	 eax, DWORD PTR $T199025[ebp]

; 709  : }

  01d2c	8b 4d f4	 mov	 ecx, DWORD PTR __$EHRec$[ebp]
  01d2f	64 89 0d 00 00
	00 00		 mov	 DWORD PTR fs:__except_list, ecx
  01d36	8b e5		 mov	 esp, ebp
  01d38	5d		 pop	 ebp
  01d39	c2 08 00	 ret	 8
_TEXT	ENDS
text$x	SEGMENT
$L199026:
  000cb	8d 4d c8	 lea	 ecx, DWORD PTR _dcBmp$[ebp]
  000ce	e9 00 00 00 00	 jmp	 ??1CDC@@UAE@XZ		; CDC::~CDC
__ehhandler$?CreateRgnFromBitmap@CxSkinButton@@QAEPAUHRGN__@@PAVCDibBitmap@@K@Z:
  000d3	b8 00 00 00 00	 mov	 eax, OFFSET FLAT:$T199028
  000d8	e9 00 00 00 00	 jmp	 ___CxxFrameHandler
text$x	ENDS
?CreateRgnFromBitmap@CxSkinButton@@QAEPAUHRGN__@@PAVCDibBitmap@@K@Z ENDP ; CxSkinButton::CreateRgnFromBitmap
PUBLIC	?SetNormalTextColor@CxSkinButton@@QAEKK@Z	; CxSkinButton::SetNormalTextColor
; Function compile flags: /Odt
_TEXT	SEGMENT
_this$ = -8						; size = 4
_tmp_color$ = -4					; size = 4
_normalcolor$ = 8					; size = 4
?SetNormalTextColor@CxSkinButton@@QAEKK@Z PROC NEAR	; CxSkinButton::SetNormalTextColor
; _this$ = ecx

; 712  : {

  01d40	55		 push	 ebp
  01d41	8b ec		 mov	 ebp, esp
  01d43	83 ec 08	 sub	 esp, 8
  01d46	89 4d f8	 mov	 DWORD PTR _this$[ebp], ecx

; 713  : 	COLORREF tmp_color=m_normalTextColor;

  01d49	8b 45 f8	 mov	 eax, DWORD PTR _this$[ebp]
  01d4c	8b 88 08 01 00
	00		 mov	 ecx, DWORD PTR [eax+264]
  01d52	89 4d fc	 mov	 DWORD PTR _tmp_color$[ebp], ecx

; 714  : 	m_normalTextColor=normalcolor;

  01d55	8b 55 f8	 mov	 edx, DWORD PTR _this$[ebp]
  01d58	8b 45 08	 mov	 eax, DWORD PTR _normalcolor$[ebp]
  01d5b	89 82 08 01 00
	00		 mov	 DWORD PTR [edx+264], eax

; 715  : 	return tmp_color;			//r

  01d61	8b 45 fc	 mov	 eax, DWORD PTR _tmp_color$[ebp]

; 716  : }

  01d64	8b e5		 mov	 esp, ebp
  01d66	5d		 pop	 ebp
  01d67	c2 04 00	 ret	 4
?SetNormalTextColor@CxSkinButton@@QAEKK@Z ENDP		; CxSkinButton::SetNormalTextColor
_TEXT	ENDS
PUBLIC	?SetDownTextColor@CxSkinButton@@QAEKK@Z		; CxSkinButton::SetDownTextColor
; Function compile flags: /Odt
_TEXT	SEGMENT
_this$ = -8						; size = 4
_tmp_color$ = -4					; size = 4
_downColor$ = 8						; size = 4
?SetDownTextColor@CxSkinButton@@QAEKK@Z PROC NEAR	; CxSkinButton::SetDownTextColor
; _this$ = ecx

; 718  : {

  01d70	55		 push	 ebp
  01d71	8b ec		 mov	 ebp, esp
  01d73	83 ec 08	 sub	 esp, 8
  01d76	89 4d f8	 mov	 DWORD PTR _this$[ebp], ecx

; 719  : 	COLORREF tmp_color=m_downTextColor;

  01d79	8b 45 f8	 mov	 eax, DWORD PTR _this$[ebp]
  01d7c	8b 88 0c 01 00
	00		 mov	 ecx, DWORD PTR [eax+268]
  01d82	89 4d fc	 mov	 DWORD PTR _tmp_color$[ebp], ecx

; 720  : 	m_downTextColor=downColor;

  01d85	8b 55 f8	 mov	 edx, DWORD PTR _this$[ebp]
  01d88	8b 45 08	 mov	 eax, DWORD PTR _downColor$[ebp]
  01d8b	89 82 0c 01 00
	00		 mov	 DWORD PTR [edx+268], eax

; 721  : 	return tmp_color;

  01d91	8b 45 fc	 mov	 eax, DWORD PTR _tmp_color$[ebp]

; 722  : }

  01d94	8b e5		 mov	 esp, ebp
  01d96	5d		 pop	 ebp
  01d97	c2 04 00	 ret	 4
?SetDownTextColor@CxSkinButton@@QAEKK@Z ENDP		; CxSkinButton::SetDownTextColor
_TEXT	ENDS
PUBLIC	?SetOverTextColor@CxSkinButton@@QAEKK@Z		; CxSkinButton::SetOverTextColor
; Function compile flags: /Odt
_TEXT	SEGMENT
_this$ = -8						; size = 4
_tmp_color$ = -4					; size = 4
_overColor$ = 8						; size = 4
?SetOverTextColor@CxSkinButton@@QAEKK@Z PROC NEAR	; CxSkinButton::SetOverTextColor
; _this$ = ecx

; 725  : {

  01da0	55		 push	 ebp
  01da1	8b ec		 mov	 ebp, esp
  01da3	83 ec 08	 sub	 esp, 8
  01da6	89 4d f8	 mov	 DWORD PTR _this$[ebp], ecx

; 726  : 	COLORREF tmp_color=m_OverTextColor;

  01da9	8b 45 f8	 mov	 eax, DWORD PTR _this$[ebp]
  01dac	8b 88 10 01 00
	00		 mov	 ecx, DWORD PTR [eax+272]
  01db2	89 4d fc	 mov	 DWORD PTR _tmp_color$[ebp], ecx

; 727  : 	m_OverTextColor=overColor;

  01db5	8b 55 f8	 mov	 edx, DWORD PTR _this$[ebp]
  01db8	8b 45 08	 mov	 eax, DWORD PTR _overColor$[ebp]
  01dbb	89 82 10 01 00
	00		 mov	 DWORD PTR [edx+272], eax

; 728  : 	return tmp_color;

  01dc1	8b 45 fc	 mov	 eax, DWORD PTR _tmp_color$[ebp]

; 729  : }

  01dc4	8b e5		 mov	 esp, ebp
  01dc6	5d		 pop	 ebp
  01dc7	c2 04 00	 ret	 4
?SetOverTextColor@CxSkinButton@@QAEKK@Z ENDP		; CxSkinButton::SetOverTextColor
_TEXT	ENDS
PUBLIC	?SetDisableTextColor@CxSkinButton@@QAEKK@Z	; CxSkinButton::SetDisableTextColor
; Function compile flags: /Odt
_TEXT	SEGMENT
_this$ = -8						; size = 4
_tmp_color$ = -4					; size = 4
_disableColor$ = 8					; size = 4
?SetDisableTextColor@CxSkinButton@@QAEKK@Z PROC NEAR	; CxSkinButton::SetDisableTextColor
; _this$ = ecx

; 731  : {

  01dd0	55		 push	 ebp
  01dd1	8b ec		 mov	 ebp, esp
  01dd3	83 ec 08	 sub	 esp, 8
  01dd6	89 4d f8	 mov	 DWORD PTR _this$[ebp], ecx

; 732  : 	COLORREF tmp_color=m_disableTextColor;

  01dd9	8b 45 f8	 mov	 eax, DWORD PTR _this$[ebp]
  01ddc	8b 88 14 01 00
	00		 mov	 ecx, DWORD PTR [eax+276]
  01de2	89 4d fc	 mov	 DWORD PTR _tmp_color$[ebp], ecx

; 733  : 	m_disableTextColor=disableColor;

  01de5	8b 55 f8	 mov	 edx, DWORD PTR _this$[ebp]
  01de8	8b 45 08	 mov	 eax, DWORD PTR _disableColor$[ebp]
  01deb	89 82 14 01 00
	00		 mov	 DWORD PTR [edx+276], eax

; 734  : 	return tmp_color;

  01df1	8b 45 fc	 mov	 eax, DWORD PTR _tmp_color$[ebp]

; 735  : }

  01df4	8b e5		 mov	 esp, ebp
  01df6	5d		 pop	 ebp
  01df7	c2 04 00	 ret	 4
?SetDisableTextColor@CxSkinButton@@QAEKK@Z ENDP		; CxSkinButton::SetDisableTextColor
_TEXT	ENDS
PUBLIC	?SetToolTipText@CxSkinButton@@QAEXV?$CStringT@DV?$StrTraitMFC_DLL@DV?$ChTraitsCRT@D@ATL@@@@@ATL@@@Z ; CxSkinButton::SetToolTipText
PUBLIC	?Activate@CToolTipCtrl@@QAEXH@Z			; CToolTipCtrl::Activate
EXTRN	__imp_??B?$CSimpleStringT@D$00@ATL@@QBEPBDXZ:NEAR
EXTRN	__imp_??4?$CStringT@DV?$StrTraitMFC_DLL@DV?$ChTraitsCRT@D@ATL@@@@@ATL@@QAEAAV01@ABV01@@Z:NEAR
EXTRN	__imp__IsWindow@4:NEAR
EXTRN	?AddTool@CToolTipCtrl@@QAEHPAVCWnd@@PBDPBUtagRECT@@I@Z:NEAR ; CToolTipCtrl::AddTool
EXTRN	?UpdateTipText@CToolTipCtrl@@QAEXPBDPAVCWnd@@I@Z:NEAR ; CToolTipCtrl::UpdateTipText
xdata$x	SEGMENT
$T199040 DD	0ffffffffH
	DD	FLAT:$L199036
$T199038 DD	019930520H
	DD	01H
	DD	FLAT:$T199040
	DD	2 DUP(00H)
	DD	2 DUP(00H)
; Function compile flags: /Odt
xdata$x	ENDS
_TEXT	SEGMENT
_this$ = -24						; size = 4
__$EHRec$ = -12						; size = 12
_s$ = 8							; size = 4
?SetToolTipText@CxSkinButton@@QAEXV?$CStringT@DV?$StrTraitMFC_DLL@DV?$ChTraitsCRT@D@ATL@@@@@ATL@@@Z PROC NEAR ; CxSkinButton::SetToolTipText
; _this$ = ecx

; 739  : {

  01e00	55		 push	 ebp
  01e01	8b ec		 mov	 ebp, esp
  01e03	6a ff		 push	 -1
  01e05	68 00 00 00 00	 push	 __ehhandler$?SetToolTipText@CxSkinButton@@QAEXV?$CStringT@DV?$StrTraitMFC_DLL@DV?$ChTraitsCRT@D@ATL@@@@@ATL@@@Z
  01e0a	64 a1 00 00 00
	00		 mov	 eax, DWORD PTR fs:__except_list
  01e10	50		 push	 eax
  01e11	64 89 25 00 00
	00 00		 mov	 DWORD PTR fs:__except_list, esp
  01e18	83 ec 0c	 sub	 esp, 12			; 0000000cH
  01e1b	89 4d e8	 mov	 DWORD PTR _this$[ebp], ecx
  01e1e	c7 45 fc 00 00
	00 00		 mov	 DWORD PTR __$EHRec$[ebp+8], 0

; 740  : 	CWnd *pParent;
; 741  : 	CWnd *pWnd;
; 742  : 
; 743  : 	if(m_strToolTip == "")

  01e25	68 00 00 00 00	 push	 OFFSET FLAT:$SG198098
  01e2a	8b 45 e8	 mov	 eax, DWORD PTR _this$[ebp]
  01e2d	83 c0 58	 add	 eax, 88			; 00000058H
  01e30	50		 push	 eax
  01e31	e8 00 00 00 00	 call	 ??8ATL@@YA_NABV?$CStringT@DV?$StrTraitMFC_DLL@DV?$ChTraitsCRT@D@ATL@@@@@0@PBD@Z ; ATL::operator==
  01e36	83 c4 08	 add	 esp, 8
  01e39	0f b6 c8	 movzx	 ecx, al
  01e3c	85 c9		 test	 ecx, ecx
  01e3e	74 25		 je	 SHORT $L198097

; 744  : 	{
; 745  : 		m_strToolTip = s;

  01e40	8d 55 08	 lea	 edx, DWORD PTR _s$[ebp]
  01e43	52		 push	 edx
  01e44	8b 4d e8	 mov	 ecx, DWORD PTR _this$[ebp]
  01e47	83 c1 58	 add	 ecx, 88			; 00000058H
  01e4a	ff 15 00 00 00
	00		 call	 DWORD PTR __imp_??4?$CStringT@DV?$StrTraitMFC_DLL@DV?$ChTraitsCRT@D@ATL@@@@@ATL@@QAEAAV01@ABV01@@Z

; 746  : 		return;

  01e50	c7 45 fc ff ff
	ff ff		 mov	 DWORD PTR __$EHRec$[ebp+8], -1
  01e57	8d 4d 08	 lea	 ecx, DWORD PTR _s$[ebp]
  01e5a	ff 15 00 00 00
	00		 call	 DWORD PTR __imp_??1?$CStringT@DV?$StrTraitMFC_DLL@DV?$ChTraitsCRT@D@ATL@@@@@ATL@@QAE@XZ
  01e60	e9 af 00 00 00	 jmp	 $L198094
$L198097:

; 747  : 	}
; 748  : 	m_strToolTip = s;

  01e65	8d 45 08	 lea	 eax, DWORD PTR _s$[ebp]
  01e68	50		 push	 eax
  01e69	8b 4d e8	 mov	 ecx, DWORD PTR _this$[ebp]
  01e6c	83 c1 58	 add	 ecx, 88			; 00000058H
  01e6f	ff 15 00 00 00
	00		 call	 DWORD PTR __imp_??4?$CStringT@DV?$StrTraitMFC_DLL@DV?$ChTraitsCRT@D@ATL@@@@@ATL@@QAEAAV01@ABV01@@Z

; 749  : 	if(m_tooltip.m_hWnd != NULL && ::IsWindow(m_tooltip.m_hWnd))

  01e75	8b 4d e8	 mov	 ecx, DWORD PTR _this$[ebp]
  01e78	83 b9 9c 00 00
	00 00		 cmp	 DWORD PTR [ecx+156], 0
  01e7f	74 10		 je	 SHORT $L198099
  01e81	8b 55 e8	 mov	 edx, DWORD PTR _this$[ebp]
  01e84	8b 82 9c 00 00
	00		 mov	 eax, DWORD PTR [edx+156]
  01e8a	50		 push	 eax
  01e8b	ff 15 00 00 00
	00		 call	 DWORD PTR __imp__IsWindow@4
$L198099:

; 750  : 	{
; 751  : 		//m_tooltip.DestroyToolTipCtrl();
; 752  : 		//m_tooltip.m_hWnd = NULL;
; 753  : 	}
; 754  : 	if(m_tooltip.m_hWnd==NULL){

  01e91	8b 4d e8	 mov	 ecx, DWORD PTR _this$[ebp]
  01e94	83 b9 9c 00 00
	00 00		 cmp	 DWORD PTR [ecx+156], 0
  01e9b	75 4c		 jne	 SHORT $L198100

; 755  : 		if(m_tooltip.Create(this,TTS_ALWAYSTIP))	//first assignment

  01e9d	6a 01		 push	 1
  01e9f	8b 55 e8	 mov	 edx, DWORD PTR _this$[ebp]
  01ea2	52		 push	 edx
  01ea3	8b 4d e8	 mov	 ecx, DWORD PTR _this$[ebp]
  01ea6	83 c1 7c	 add	 ecx, 124		; 0000007cH
  01ea9	8b 45 e8	 mov	 eax, DWORD PTR _this$[ebp]
  01eac	8b 50 7c	 mov	 edx, DWORD PTR [eax+124]
  01eaf	ff 92 38 01 00
	00		 call	 DWORD PTR [edx+312]
  01eb5	85 c0		 test	 eax, eax
  01eb7	74 2e		 je	 SHORT $L198101

; 756  : 			if(m_tooltip.AddTool(this, (LPCTSTR)s))

  01eb9	6a 00		 push	 0
  01ebb	6a 00		 push	 0
  01ebd	8d 4d 08	 lea	 ecx, DWORD PTR _s$[ebp]
  01ec0	ff 15 00 00 00
	00		 call	 DWORD PTR __imp_??B?$CSimpleStringT@D$00@ATL@@QBEPBDXZ
  01ec6	50		 push	 eax
  01ec7	8b 45 e8	 mov	 eax, DWORD PTR _this$[ebp]
  01eca	50		 push	 eax
  01ecb	8b 4d e8	 mov	 ecx, DWORD PTR _this$[ebp]
  01ece	83 c1 7c	 add	 ecx, 124		; 0000007cH
  01ed1	e8 00 00 00 00	 call	 ?AddTool@CToolTipCtrl@@QAEHPAVCWnd@@PBDPBUtagRECT@@I@Z ; CToolTipCtrl::AddTool
  01ed6	85 c0		 test	 eax, eax
  01ed8	74 0d		 je	 SHORT $L198101

; 757  : 				m_tooltip.Activate(1);

  01eda	6a 01		 push	 1
  01edc	8b 4d e8	 mov	 ecx, DWORD PTR _this$[ebp]
  01edf	83 c1 7c	 add	 ecx, 124		; 0000007cH
  01ee2	e8 00 00 00 00	 call	 ?Activate@CToolTipCtrl@@QAEXH@Z ; CToolTipCtrl::Activate
$L198101:

; 758  : 	} else {

  01ee7	eb 1b		 jmp	 SHORT $L198104
$L198100:

; 759  : 		m_tooltip.UpdateTipText((LPCTSTR)s,this);

  01ee9	6a 00		 push	 0
  01eeb	8b 4d e8	 mov	 ecx, DWORD PTR _this$[ebp]
  01eee	51		 push	 ecx
  01eef	8d 4d 08	 lea	 ecx, DWORD PTR _s$[ebp]
  01ef2	ff 15 00 00 00
	00		 call	 DWORD PTR __imp_??B?$CSimpleStringT@D$00@ATL@@QBEPBDXZ
  01ef8	50		 push	 eax
  01ef9	8b 4d e8	 mov	 ecx, DWORD PTR _this$[ebp]
  01efc	83 c1 7c	 add	 ecx, 124		; 0000007cH
  01eff	e8 00 00 00 00	 call	 ?UpdateTipText@CToolTipCtrl@@QAEXPBDPAVCWnd@@I@Z ; CToolTipCtrl::UpdateTipText
$L198104:

; 760  : 	}
; 761  : }

  01f04	c7 45 fc ff ff
	ff ff		 mov	 DWORD PTR __$EHRec$[ebp+8], -1
  01f0b	8d 4d 08	 lea	 ecx, DWORD PTR _s$[ebp]
  01f0e	ff 15 00 00 00
	00		 call	 DWORD PTR __imp_??1?$CStringT@DV?$StrTraitMFC_DLL@DV?$ChTraitsCRT@D@ATL@@@@@ATL@@QAE@XZ
$L198094:
  01f14	8b 4d f4	 mov	 ecx, DWORD PTR __$EHRec$[ebp]
  01f17	64 89 0d 00 00
	00 00		 mov	 DWORD PTR fs:__except_list, ecx
  01f1e	8b e5		 mov	 esp, ebp
  01f20	5d		 pop	 ebp
  01f21	c2 04 00	 ret	 4
_TEXT	ENDS
text$x	SEGMENT
$L199036:
  000dd	8d 4d 08	 lea	 ecx, DWORD PTR _s$[ebp]
  000e0	ff 25 00 00 00
	00		 jmp	 DWORD PTR __imp_??1?$CStringT@DV?$StrTraitMFC_DLL@DV?$ChTraitsCRT@D@ATL@@@@@ATL@@QAE@XZ
__ehhandler$?SetToolTipText@CxSkinButton@@QAEXV?$CStringT@DV?$StrTraitMFC_DLL@DV?$ChTraitsCRT@D@ATL@@@@@ATL@@@Z:
  000e6	b8 00 00 00 00	 mov	 eax, OFFSET FLAT:$T199038
  000eb	e9 00 00 00 00	 jmp	 ___CxxFrameHandler
text$x	ENDS
?SetToolTipText@CxSkinButton@@QAEXV?$CStringT@DV?$StrTraitMFC_DLL@DV?$ChTraitsCRT@D@ATL@@@@@ATL@@@Z ENDP ; CxSkinButton::SetToolTipText
PUBLIC	?GetToolTipText@CxSkinButton@@QAE?AV?$CStringT@DV?$StrTraitMFC_DLL@DV?$ChTraitsCRT@D@ATL@@@@@ATL@@XZ ; CxSkinButton::GetToolTipText
EXTRN	__imp_??0?$CStringT@DV?$StrTraitMFC_DLL@DV?$ChTraitsCRT@D@ATL@@@@@ATL@@QAE@ABV01@@Z:NEAR
; Function compile flags: /Odt
_TEXT	SEGMENT
_this$ = -8						; size = 4
$T199043 = -4						; size = 4
___$ReturnUdt$ = 8					; size = 4
?GetToolTipText@CxSkinButton@@QAE?AV?$CStringT@DV?$StrTraitMFC_DLL@DV?$ChTraitsCRT@D@ATL@@@@@ATL@@XZ PROC NEAR ; CxSkinButton::GetToolTipText
; _this$ = ecx

; 763  : {

  01f30	55		 push	 ebp
  01f31	8b ec		 mov	 ebp, esp
  01f33	83 ec 08	 sub	 esp, 8
  01f36	89 4d f8	 mov	 DWORD PTR _this$[ebp], ecx
  01f39	c7 45 fc 00 00
	00 00		 mov	 DWORD PTR $T199043[ebp], 0

; 764  : 	return m_strToolTip;

  01f40	8b 45 f8	 mov	 eax, DWORD PTR _this$[ebp]
  01f43	83 c0 58	 add	 eax, 88			; 00000058H
  01f46	50		 push	 eax
  01f47	8b 4d 08	 mov	 ecx, DWORD PTR ___$ReturnUdt$[ebp]
  01f4a	ff 15 00 00 00
	00		 call	 DWORD PTR __imp_??0?$CStringT@DV?$StrTraitMFC_DLL@DV?$ChTraitsCRT@D@ATL@@@@@ATL@@QAE@ABV01@@Z
  01f50	8b 4d fc	 mov	 ecx, DWORD PTR $T199043[ebp]
  01f53	83 c9 01	 or	 ecx, 1
  01f56	89 4d fc	 mov	 DWORD PTR $T199043[ebp], ecx
  01f59	8b 45 08	 mov	 eax, DWORD PTR ___$ReturnUdt$[ebp]

; 765  : }

  01f5c	8b e5		 mov	 esp, ebp
  01f5e	5d		 pop	 ebp
  01f5f	c2 04 00	 ret	 4
?GetToolTipText@CxSkinButton@@QAE?AV?$CStringT@DV?$StrTraitMFC_DLL@DV?$ChTraitsCRT@D@ATL@@@@@ATL@@XZ ENDP ; CxSkinButton::GetToolTipText
_TEXT	ENDS
PUBLIC	??9ATL@@YA_NABV?$CStringT@DV?$StrTraitMFC_DLL@DV?$ChTraitsCRT@D@ATL@@@@@0@PBD@Z ; ATL::operator!=
PUBLIC	?RelayEvent@CxSkinButton@@QAEXIIJ@Z		; CxSkinButton::RelayEvent
PUBLIC	?RelayEvent@CToolTipCtrl@@QAEXPAUtagMSG@@@Z	; CToolTipCtrl::RelayEvent
EXTRN	__imp__PostMessageA@16:NEAR
; Function compile flags: /Odt
_TEXT	SEGMENT
tv141 = -40						; size = 4
_this$ = -36						; size = 4
$T199046 = -32						; size = 4
_msg$198120 = -28					; size = 28
_message$ = 8						; size = 4
_wParam$ = 12						; size = 4
_lParam$ = 16						; size = 4
?RelayEvent@CxSkinButton@@QAEXIIJ@Z PROC NEAR		; CxSkinButton::RelayEvent
; _this$ = ecx

; 768  : {

  01f70	55		 push	 ebp
  01f71	8b ec		 mov	 ebp, esp
  01f73	83 ec 28	 sub	 esp, 40			; 00000028H
  01f76	89 4d dc	 mov	 DWORD PTR _this$[ebp], ecx

; 769  : // This function will create a MSG structure, fill it in a pass it to
; 770  : // the ToolTip control, m_ttip.  Note that we ensure the point is in window
; 771  : // coordinates (relative to the control's window).
; 772  : 	if(m_tooltip.m_hWnd == NULL && m_strToolTip != "")

  01f79	8b 45 dc	 mov	 eax, DWORD PTR _this$[ebp]
  01f7c	83 b8 9c 00 00
	00 00		 cmp	 DWORD PTR [eax+156], 0
  01f83	75 39		 jne	 SHORT $L198116
  01f85	68 00 00 00 00	 push	 OFFSET FLAT:$SG198117
  01f8a	8b 4d dc	 mov	 ecx, DWORD PTR _this$[ebp]
  01f8d	83 c1 58	 add	 ecx, 88			; 00000058H
  01f90	51		 push	 ecx
  01f91	e8 00 00 00 00	 call	 ??9ATL@@YA_NABV?$CStringT@DV?$StrTraitMFC_DLL@DV?$ChTraitsCRT@D@ATL@@@@@0@PBD@Z ; ATL::operator!=
  01f96	83 c4 08	 add	 esp, 8
  01f99	0f b6 d0	 movzx	 edx, al
  01f9c	85 d2		 test	 edx, edx
  01f9e	74 1e		 je	 SHORT $L198116

; 773  : 		SetToolTipText(m_strToolTip);

  01fa0	8b 45 dc	 mov	 eax, DWORD PTR _this$[ebp]
  01fa3	83 c0 58	 add	 eax, 88			; 00000058H
  01fa6	51		 push	 ecx
  01fa7	8b cc		 mov	 ecx, esp
  01fa9	89 65 e0	 mov	 DWORD PTR $T199046[ebp], esp
  01fac	50		 push	 eax
  01fad	ff 15 00 00 00
	00		 call	 DWORD PTR __imp_??0?$CStringT@DV?$StrTraitMFC_DLL@DV?$ChTraitsCRT@D@ATL@@@@@ATL@@QAE@ABV01@@Z
  01fb3	89 45 d8	 mov	 DWORD PTR tv141[ebp], eax
  01fb6	8b 4d dc	 mov	 ecx, DWORD PTR _this$[ebp]
  01fb9	e8 00 00 00 00	 call	 ?SetToolTipText@CxSkinButton@@QAEXV?$CStringT@DV?$StrTraitMFC_DLL@DV?$ChTraitsCRT@D@ATL@@@@@ATL@@@Z ; CxSkinButton::SetToolTipText
$L198116:

; 774  : 	if(NULL != m_tooltip.m_hWnd){

  01fbe	8b 4d dc	 mov	 ecx, DWORD PTR _this$[ebp]
  01fc1	83 b9 9c 00 00
	00 00		 cmp	 DWORD PTR [ecx+156], 0
  01fc8	74 67		 je	 SHORT $L198115

; 775  : 		MSG msg;
; 776  : 		msg.hwnd = m_hWnd;

  01fca	8b 55 dc	 mov	 edx, DWORD PTR _this$[ebp]
  01fcd	8b 42 20	 mov	 eax, DWORD PTR [edx+32]
  01fd0	89 45 e4	 mov	 DWORD PTR _msg$198120[ebp], eax

; 777  : 		msg.message = message;

  01fd3	8b 4d 08	 mov	 ecx, DWORD PTR _message$[ebp]
  01fd6	89 4d e8	 mov	 DWORD PTR _msg$198120[ebp+4], ecx

; 778  : 		msg.wParam = wParam;

  01fd9	8b 55 0c	 mov	 edx, DWORD PTR _wParam$[ebp]
  01fdc	89 55 ec	 mov	 DWORD PTR _msg$198120[ebp+8], edx

; 779  : 		msg.lParam = lParam;

  01fdf	8b 45 10	 mov	 eax, DWORD PTR _lParam$[ebp]
  01fe2	89 45 f0	 mov	 DWORD PTR _msg$198120[ebp+12], eax

; 780  : 		msg.time = 0;

  01fe5	c7 45 f4 00 00
	00 00		 mov	 DWORD PTR _msg$198120[ebp+16], 0

; 781  : 		msg.pt.x = LOWORD(lParam);

  01fec	8b 4d 10	 mov	 ecx, DWORD PTR _lParam$[ebp]
  01fef	81 e1 ff ff 00
	00		 and	 ecx, 65535		; 0000ffffH
  01ff5	0f b7 d1	 movzx	 edx, cx
  01ff8	89 55 f8	 mov	 DWORD PTR _msg$198120[ebp+20], edx

; 782  : 		msg.pt.y = HIWORD(lParam);

  01ffb	8b 45 10	 mov	 eax, DWORD PTR _lParam$[ebp]
  01ffe	c1 e8 10	 shr	 eax, 16			; 00000010H
  02001	0f b7 c8	 movzx	 ecx, ax
  02004	89 4d fc	 mov	 DWORD PTR _msg$198120[ebp+24], ecx

; 783  : 
; 784  : 		m_tooltip.RelayEvent(&msg);

  02007	8d 55 e4	 lea	 edx, DWORD PTR _msg$198120[ebp]
  0200a	52		 push	 edx
  0200b	8b 4d dc	 mov	 ecx, DWORD PTR _this$[ebp]
  0200e	83 c1 7c	 add	 ecx, 124		; 0000007cH
  02011	e8 00 00 00 00	 call	 ?RelayEvent@CToolTipCtrl@@QAEXPAUtagMSG@@@Z ; CToolTipCtrl::RelayEvent

; 785  : 		 ::PostMessage(m_tooltip.m_hWnd, TTM_RELAYEVENT, 0, (LPARAM)&msg);

  02016	8d 45 e4	 lea	 eax, DWORD PTR _msg$198120[ebp]
  02019	50		 push	 eax
  0201a	6a 00		 push	 0
  0201c	68 07 04 00 00	 push	 1031			; 00000407H
  02021	8b 4d dc	 mov	 ecx, DWORD PTR _this$[ebp]
  02024	8b 91 9c 00 00
	00		 mov	 edx, DWORD PTR [ecx+156]
  0202a	52		 push	 edx
  0202b	ff 15 00 00 00
	00		 call	 DWORD PTR __imp__PostMessageA@16
$L198115:

; 786  : 	}
; 787  : }

  02031	8b e5		 mov	 esp, ebp
  02033	5d		 pop	 ebp
  02034	c2 0c 00	 ret	 12			; 0000000cH
?RelayEvent@CxSkinButton@@QAEXIIJ@Z ENDP		; CxSkinButton::RelayEvent
_TEXT	ENDS
PUBLIC	?SendMessageA@CWnd@@QAEJIIJ@Z			; CWnd::SendMessageA
; Function compile flags: /Odt
_TEXT	SEGMENT
_this$ = -4						; size = 4
_flags$ = 8						; size = 4
_point$ = 12						; size = 8
?OnLButtonDblClk@CxSkinButton@@QAEXIVCPoint@@@Z PROC NEAR ; CxSkinButton::OnLButtonDblClk
; _this$ = ecx

; 809  : {

  02040	55		 push	 ebp
  02041	8b ec		 mov	 ebp, esp
  02043	51		 push	 ecx
  02044	89 4d fc	 mov	 DWORD PTR _this$[ebp], ecx

; 810  :     SendMessage(WM_LBUTTONDOWN, flags, MAKELPARAM(point.x, point.y));

  02047	8b 45 0c	 mov	 eax, DWORD PTR _point$[ebp]
  0204a	25 ff ff 00 00	 and	 eax, 65535		; 0000ffffH
  0204f	0f b7 c8	 movzx	 ecx, ax
  02052	8b 55 10	 mov	 edx, DWORD PTR _point$[ebp+4]
  02055	81 e2 ff ff 00
	00		 and	 edx, 65535		; 0000ffffH
  0205b	0f b7 c2	 movzx	 eax, dx
  0205e	c1 e0 10	 shl	 eax, 16			; 00000010H
  02061	0b c8		 or	 ecx, eax
  02063	51		 push	 ecx
  02064	8b 4d 08	 mov	 ecx, DWORD PTR _flags$[ebp]
  02067	51		 push	 ecx
  02068	68 01 02 00 00	 push	 513			; 00000201H
  0206d	8b 4d fc	 mov	 ecx, DWORD PTR _this$[ebp]
  02070	e8 00 00 00 00	 call	 ?SendMessageA@CWnd@@QAEJIIJ@Z ; CWnd::SendMessageA

; 811  : }

  02075	8b e5		 mov	 esp, ebp
  02077	5d		 pop	 ebp
  02078	c2 0c 00	 ret	 12			; 0000000cH
?OnLButtonDblClk@CxSkinButton@@QAEXIVCPoint@@@Z ENDP	; CxSkinButton::OnLButtonDblClk
_TEXT	ENDS
PUBLIC	?OnLButtonDown@CWnd@@IAEXIVCPoint@@@Z		; CWnd::OnLButtonDown
EXTRN	__imp___TrackMouseEvent@4:NEAR
; Function compile flags: /Odt
_TEXT	SEGMENT
_this$ = -20						; size = 4
_t$198158 = -16						; size = 16
_nFlags$ = 8						; size = 4
_point$ = 12						; size = 8
?OnLButtonDown@CxSkinButton@@QAEXIVCPoint@@@Z PROC NEAR	; CxSkinButton::OnLButtonDown
; _this$ = ecx

; 834  : {

  02080	55		 push	 ebp
  02081	8b ec		 mov	 ebp, esp
  02083	83 ec 14	 sub	 esp, 20			; 00000014H
  02086	89 4d ec	 mov	 DWORD PTR _this$[ebp], ecx

; 835  :     //TRACE("* %08X: down\n", ::GetTickCount());
; 836  : 
; 837  : 	//Pass this message to the ToolTip control
; 838  : 
; 839  : 	RelayEvent(WM_LBUTTONDOWN,(WPARAM)nFlags,MAKELPARAM(LOWORD(point.x),LOWORD(point.y)));

  02089	8b 45 0c	 mov	 eax, DWORD PTR _point$[ebp]
  0208c	25 ff ff 00 00	 and	 eax, 65535		; 0000ffffH
  02091	0f b7 c8	 movzx	 ecx, ax
  02094	81 e1 ff ff 00
	00		 and	 ecx, 65535		; 0000ffffH
  0209a	0f b7 d1	 movzx	 edx, cx
  0209d	8b 45 10	 mov	 eax, DWORD PTR _point$[ebp+4]
  020a0	25 ff ff 00 00	 and	 eax, 65535		; 0000ffffH
  020a5	0f b7 c8	 movzx	 ecx, ax
  020a8	81 e1 ff ff 00
	00		 and	 ecx, 65535		; 0000ffffH
  020ae	0f b7 c1	 movzx	 eax, cx
  020b1	c1 e0 10	 shl	 eax, 16			; 00000010H
  020b4	0b d0		 or	 edx, eax
  020b6	52		 push	 edx
  020b7	8b 4d 08	 mov	 ecx, DWORD PTR _nFlags$[ebp]
  020ba	51		 push	 ecx
  020bb	68 01 02 00 00	 push	 513			; 00000201H
  020c0	8b 4d ec	 mov	 ecx, DWORD PTR _this$[ebp]
  020c3	e8 00 00 00 00	 call	 ?RelayEvent@CxSkinButton@@QAEXIIJ@Z ; CxSkinButton::RelayEvent

; 840  : 
; 841  :     //If we are tracking this button, cancel it
; 842  :     if (m_tracking) {

  020c8	8b 55 ec	 mov	 edx, DWORD PTR _this$[ebp]
  020cb	0f b6 42 78	 movzx	 eax, BYTE PTR [edx+120]
  020cf	85 c0		 test	 eax, eax
  020d1	74 33		 je	 SHORT $L198157

; 843  :         TRACKMOUSEEVENT t = {
; 844  :             sizeof(TRACKMOUSEEVENT),

  020d3	c7 45 f0 10 00
	00 00		 mov	 DWORD PTR _t$198158[ebp], 16 ; 00000010H

; 845  :             TME_CANCEL | TME_LEAVE,

  020da	c7 45 f4 02 00
	00 80		 mov	 DWORD PTR _t$198158[ebp+4], -2147483646 ; 80000002H

; 846  :             m_hWnd,

  020e1	8b 4d ec	 mov	 ecx, DWORD PTR _this$[ebp]
  020e4	8b 51 20	 mov	 edx, DWORD PTR [ecx+32]
  020e7	89 55 f8	 mov	 DWORD PTR _t$198158[ebp+8], edx

; 847  :             0
; 848  :         };

  020ea	c7 45 fc 00 00
	00 00		 mov	 DWORD PTR _t$198158[ebp+12], 0

; 849  :         if (::_TrackMouseEvent(&t)) {

  020f1	8d 45 f0	 lea	 eax, DWORD PTR _t$198158[ebp]
  020f4	50		 push	 eax
  020f5	ff 15 00 00 00
	00		 call	 DWORD PTR __imp___TrackMouseEvent@4
  020fb	85 c0		 test	 eax, eax
  020fd	74 07		 je	 SHORT $L198157

; 850  :             m_tracking = false;

  020ff	8b 4d ec	 mov	 ecx, DWORD PTR _this$[ebp]
  02102	c6 41 78 00	 mov	 BYTE PTR [ecx+120], 0
$L198157:

; 851  :         }
; 852  :     }
; 853  : 
; 854  :     //Default-process the message
; 855  : 	CButton::OnLButtonDown(nFlags, point);

  02106	8b 55 10	 mov	 edx, DWORD PTR _point$[ebp+4]
  02109	52		 push	 edx
  0210a	8b 45 0c	 mov	 eax, DWORD PTR _point$[ebp]
  0210d	50		 push	 eax
  0210e	8b 4d 08	 mov	 ecx, DWORD PTR _nFlags$[ebp]
  02111	51		 push	 ecx
  02112	8b 4d ec	 mov	 ecx, DWORD PTR _this$[ebp]
  02115	e8 00 00 00 00	 call	 ?OnLButtonDown@CWnd@@IAEXIVCPoint@@@Z ; CWnd::OnLButtonDown

; 856  :     m_button_down = true;

  0211a	8b 55 ec	 mov	 edx, DWORD PTR _this$[ebp]
  0211d	c6 42 79 01	 mov	 BYTE PTR [edx+121], 1

; 857  : }

  02121	8b e5		 mov	 esp, ebp
  02123	5d		 pop	 ebp
  02124	c2 0c 00	 ret	 12			; 0000000cH
?OnLButtonDown@CxSkinButton@@QAEXIVCPoint@@@Z ENDP	; CxSkinButton::OnLButtonDown
_TEXT	ENDS
PUBLIC	?OnRButtonDown@CWnd@@IAEXIVCPoint@@@Z		; CWnd::OnRButtonDown
PUBLIC	?PostMessageA@CWnd@@QAEHIIJ@Z			; CWnd::PostMessageA
; Function compile flags: /Odt
_TEXT	SEGMENT
_this$ = -4						; size = 4
_nFlags$ = 8						; size = 4
_point$ = 12						; size = 8
?OnRButtonDown@CxSkinButton@@QAEXIVCPoint@@@Z PROC NEAR	; CxSkinButton::OnRButtonDown
; _this$ = ecx

; 860  : {

  02130	55		 push	 ebp
  02131	8b ec		 mov	 ebp, esp
  02133	51		 push	 ecx
  02134	89 4d fc	 mov	 DWORD PTR _this$[ebp], ecx

; 861  : 	CButton::OnRButtonDown(nFlags, point);

  02137	8b 45 10	 mov	 eax, DWORD PTR _point$[ebp+4]
  0213a	50		 push	 eax
  0213b	8b 4d 0c	 mov	 ecx, DWORD PTR _point$[ebp]
  0213e	51		 push	 ecx
  0213f	8b 55 08	 mov	 edx, DWORD PTR _nFlags$[ebp]
  02142	52		 push	 edx
  02143	8b 4d fc	 mov	 ecx, DWORD PTR _this$[ebp]
  02146	e8 00 00 00 00	 call	 ?OnRButtonDown@CWnd@@IAEXIVCPoint@@@Z ; CWnd::OnRButtonDown

; 862  : 
; 863  : 	if(m_bRClick)

  0214b	8b 45 fc	 mov	 eax, DWORD PTR _this$[ebp]
  0214e	83 78 54 00	 cmp	 DWORD PTR [eax+84], 0
  02152	74 41		 je	 SHORT $L198165

; 864  : 		PostMessage(WM_LBUTTONDOWN, (WPARAM)nFlags,MAKELPARAM(LOWORD(point.x),LOWORD(point.y)));

  02154	8b 4d 0c	 mov	 ecx, DWORD PTR _point$[ebp]
  02157	81 e1 ff ff 00
	00		 and	 ecx, 65535		; 0000ffffH
  0215d	0f b7 d1	 movzx	 edx, cx
  02160	81 e2 ff ff 00
	00		 and	 edx, 65535		; 0000ffffH
  02166	0f b7 c2	 movzx	 eax, dx
  02169	8b 4d 10	 mov	 ecx, DWORD PTR _point$[ebp+4]
  0216c	81 e1 ff ff 00
	00		 and	 ecx, 65535		; 0000ffffH
  02172	0f b7 d1	 movzx	 edx, cx
  02175	81 e2 ff ff 00
	00		 and	 edx, 65535		; 0000ffffH
  0217b	0f b7 ca	 movzx	 ecx, dx
  0217e	c1 e1 10	 shl	 ecx, 16			; 00000010H
  02181	0b c1		 or	 eax, ecx
  02183	50		 push	 eax
  02184	8b 55 08	 mov	 edx, DWORD PTR _nFlags$[ebp]
  02187	52		 push	 edx
  02188	68 01 02 00 00	 push	 513			; 00000201H
  0218d	8b 4d fc	 mov	 ecx, DWORD PTR _this$[ebp]
  02190	e8 00 00 00 00	 call	 ?PostMessageA@CWnd@@QAEHIIJ@Z ; CWnd::PostMessageA
$L198165:

; 865  : }

  02195	8b e5		 mov	 esp, ebp
  02197	5d		 pop	 ebp
  02198	c2 0c 00	 ret	 12			; 0000000cH
?OnRButtonDown@CxSkinButton@@QAEXIVCPoint@@@Z ENDP	; CxSkinButton::OnRButtonDown
_TEXT	ENDS
PUBLIC	?SetCheck@CButton@@QAEXH@Z			; CButton::SetCheck
PUBLIC	?OnLButtonUp@CWnd@@IAEXIVCPoint@@@Z		; CWnd::OnLButtonUp
EXTRN	__imp__ClientToScreen@8:NEAR
; Function compile flags: /Odt
_TEXT	SEGMENT
_this$ = -16						; size = 4
_mouse_wnd$198187 = -12					; size = 4
_p2$198186 = -8						; size = 8
_nFlags$ = 8						; size = 4
_point$ = 12						; size = 8
?OnLButtonUp@CxSkinButton@@QAEXIVCPoint@@@Z PROC NEAR	; CxSkinButton::OnLButtonUp
; _this$ = ecx

; 886  : {

  021a0	55		 push	 ebp
  021a1	8b ec		 mov	 ebp, esp
  021a3	83 ec 10	 sub	 esp, 16			; 00000010H
  021a6	89 4d f0	 mov	 DWORD PTR _this$[ebp], ecx

; 887  :     //TRACE("* %08X: up\n", ::GetTickCount());
; 888  : 
; 889  : 	if (m_Style){ //track mouse for radio & check buttons

  021a9	8b 45 f0	 mov	 eax, DWORD PTR _this$[ebp]
  021ac	83 78 74 00	 cmp	 DWORD PTR [eax+116], 0
  021b0	74 6a		 je	 SHORT $L198185

; 890  : 		POINT p2 = point;

  021b2	8b 4d 0c	 mov	 ecx, DWORD PTR _point$[ebp]
  021b5	89 4d f8	 mov	 DWORD PTR _p2$198186[ebp], ecx
  021b8	8b 55 10	 mov	 edx, DWORD PTR _point$[ebp+4]
  021bb	89 55 fc	 mov	 DWORD PTR _p2$198186[ebp+4], edx

; 891  : 		::ClientToScreen(m_hWnd, &p2);

  021be	8d 45 f8	 lea	 eax, DWORD PTR _p2$198186[ebp]
  021c1	50		 push	 eax
  021c2	8b 4d f0	 mov	 ecx, DWORD PTR _this$[ebp]
  021c5	8b 51 20	 mov	 edx, DWORD PTR [ecx+32]
  021c8	52		 push	 edx
  021c9	ff 15 00 00 00
	00		 call	 DWORD PTR __imp__ClientToScreen@8

; 892  : 		HWND mouse_wnd = ::WindowFromPoint(p2);

  021cf	8b 45 fc	 mov	 eax, DWORD PTR _p2$198186[ebp+4]
  021d2	50		 push	 eax
  021d3	8b 4d f8	 mov	 ecx, DWORD PTR _p2$198186[ebp]
  021d6	51		 push	 ecx
  021d7	ff 15 00 00 00
	00		 call	 DWORD PTR __imp__WindowFromPoint@8
  021dd	89 45 f4	 mov	 DWORD PTR _mouse_wnd$198187[ebp], eax

; 893  : 		if (mouse_wnd == m_hWnd){ // mouse is in button

  021e0	8b 55 f0	 mov	 edx, DWORD PTR _this$[ebp]
  021e3	8b 45 f4	 mov	 eax, DWORD PTR _mouse_wnd$198187[ebp]
  021e6	3b 42 20	 cmp	 eax, DWORD PTR [edx+32]
  021e9	75 31		 jne	 SHORT $L198185

; 894  : 			if (m_Style==BS_CHECKBOX) SetCheck(m_Checked ? 0 : 1);

  021eb	8b 4d f0	 mov	 ecx, DWORD PTR _this$[ebp]
  021ee	83 79 74 02	 cmp	 DWORD PTR [ecx+116], 2
  021f2	75 15		 jne	 SHORT $L198189
  021f4	8b 55 f0	 mov	 edx, DWORD PTR _this$[ebp]
  021f7	0f b6 42 71	 movzx	 eax, BYTE PTR [edx+113]
  021fb	f7 d8		 neg	 eax
  021fd	1b c0		 sbb	 eax, eax
  021ff	40		 inc	 eax
  02200	50		 push	 eax
  02201	8b 4d f0	 mov	 ecx, DWORD PTR _this$[ebp]
  02204	e8 00 00 00 00	 call	 ?SetCheck@CButton@@QAEXH@Z ; CButton::SetCheck
$L198189:

; 895  : 			if (m_Style==BS_RADIOBUTTON) SetCheck(1);

  02209	8b 4d f0	 mov	 ecx, DWORD PTR _this$[ebp]
  0220c	83 79 74 04	 cmp	 DWORD PTR [ecx+116], 4
  02210	75 0a		 jne	 SHORT $L198185
  02212	6a 01		 push	 1
  02214	8b 4d f0	 mov	 ecx, DWORD PTR _this$[ebp]
  02217	e8 00 00 00 00	 call	 ?SetCheck@CButton@@QAEXH@Z ; CButton::SetCheck
$L198185:

; 896  : 		}
; 897  : 	}
; 898  : 	//Pass this message to the ToolTip control
; 899  : 	RelayEvent(WM_LBUTTONUP,(WPARAM)nFlags,MAKELPARAM(LOWORD(point.x),LOWORD(point.y)));

  0221c	8b 55 0c	 mov	 edx, DWORD PTR _point$[ebp]
  0221f	81 e2 ff ff 00
	00		 and	 edx, 65535		; 0000ffffH
  02225	0f b7 c2	 movzx	 eax, dx
  02228	25 ff ff 00 00	 and	 eax, 65535		; 0000ffffH
  0222d	0f b7 c8	 movzx	 ecx, ax
  02230	8b 55 10	 mov	 edx, DWORD PTR _point$[ebp+4]
  02233	81 e2 ff ff 00
	00		 and	 edx, 65535		; 0000ffffH
  02239	0f b7 c2	 movzx	 eax, dx
  0223c	25 ff ff 00 00	 and	 eax, 65535		; 0000ffffH
  02241	0f b7 d0	 movzx	 edx, ax
  02244	c1 e2 10	 shl	 edx, 16			; 00000010H
  02247	0b ca		 or	 ecx, edx
  02249	51		 push	 ecx
  0224a	8b 45 08	 mov	 eax, DWORD PTR _nFlags$[ebp]
  0224d	50		 push	 eax
  0224e	68 02 02 00 00	 push	 514			; 00000202H
  02253	8b 4d f0	 mov	 ecx, DWORD PTR _this$[ebp]
  02256	e8 00 00 00 00	 call	 ?RelayEvent@CxSkinButton@@QAEXIIJ@Z ; CxSkinButton::RelayEvent

; 900  : 
; 901  :     //Default-process the message
; 902  :     m_button_down = false;

  0225b	8b 4d f0	 mov	 ecx, DWORD PTR _this$[ebp]
  0225e	c6 41 79 00	 mov	 BYTE PTR [ecx+121], 0

; 903  : 	CButton::OnLButtonUp(nFlags, point);

  02262	8b 55 10	 mov	 edx, DWORD PTR _point$[ebp+4]
  02265	52		 push	 edx
  02266	8b 45 0c	 mov	 eax, DWORD PTR _point$[ebp]
  02269	50		 push	 eax
  0226a	8b 4d 08	 mov	 ecx, DWORD PTR _nFlags$[ebp]
  0226d	51		 push	 ecx
  0226e	8b 4d f0	 mov	 ecx, DWORD PTR _this$[ebp]
  02271	e8 00 00 00 00	 call	 ?OnLButtonUp@CWnd@@IAEXIVCPoint@@@Z ; CWnd::OnLButtonUp

; 904  : }

  02276	8b e5		 mov	 esp, ebp
  02278	5d		 pop	 ebp
  02279	c2 0c 00	 ret	 12			; 0000000cH
?OnLButtonUp@CxSkinButton@@QAEXIVCPoint@@@Z ENDP	; CxSkinButton::OnLButtonUp
_TEXT	ENDS
PUBLIC	?SetRightClick@CxSkinButton@@QAEXH@Z		; CxSkinButton::SetRightClick
; Function compile flags: /Odt
_TEXT	SEGMENT
_this$ = -4						; size = 4
_bRightClick$ = 8					; size = 4
?SetRightClick@CxSkinButton@@QAEXH@Z PROC NEAR		; CxSkinButton::SetRightClick
; _this$ = ecx

; 906  : {

  02280	55		 push	 ebp
  02281	8b ec		 mov	 ebp, esp
  02283	51		 push	 ecx
  02284	89 4d fc	 mov	 DWORD PTR _this$[ebp], ecx

; 907  : 	this->m_bRClick = bRightClick;

  02287	8b 45 fc	 mov	 eax, DWORD PTR _this$[ebp]
  0228a	8b 4d 08	 mov	 ecx, DWORD PTR _bRightClick$[ebp]
  0228d	89 48 54	 mov	 DWORD PTR [eax+84], ecx

; 908  : }

  02290	8b e5		 mov	 esp, ebp
  02292	5d		 pop	 ebp
  02293	c2 04 00	 ret	 4
?SetRightClick@CxSkinButton@@QAEXH@Z ENDP		; CxSkinButton::SetRightClick
_TEXT	ENDS
PUBLIC	?OnRButtonUp@CWnd@@IAEXIVCPoint@@@Z		; CWnd::OnRButtonUp
; Function compile flags: /Odt
_TEXT	SEGMENT
_this$ = -4						; size = 4
_nFlags$ = 8						; size = 4
_point$ = 12						; size = 8
?OnRButtonUp@CxSkinButton@@QAEXIVCPoint@@@Z PROC NEAR	; CxSkinButton::OnRButtonUp
; _this$ = ecx

; 911  : {

  022a0	55		 push	 ebp
  022a1	8b ec		 mov	 ebp, esp
  022a3	51		 push	 ecx
  022a4	89 4d fc	 mov	 DWORD PTR _this$[ebp], ecx

; 912  : 	CButton::OnRButtonUp(nFlags, point);

  022a7	8b 45 10	 mov	 eax, DWORD PTR _point$[ebp+4]
  022aa	50		 push	 eax
  022ab	8b 4d 0c	 mov	 ecx, DWORD PTR _point$[ebp]
  022ae	51		 push	 ecx
  022af	8b 55 08	 mov	 edx, DWORD PTR _nFlags$[ebp]
  022b2	52		 push	 edx
  022b3	8b 4d fc	 mov	 ecx, DWORD PTR _this$[ebp]
  022b6	e8 00 00 00 00	 call	 ?OnRButtonUp@CWnd@@IAEXIVCPoint@@@Z ; CWnd::OnRButtonUp

; 913  : 	if(m_bRClick)

  022bb	8b 45 fc	 mov	 eax, DWORD PTR _this$[ebp]
  022be	83 78 54 00	 cmp	 DWORD PTR [eax+84], 0
  022c2	74 41		 je	 SHORT $L198212

; 914  : 		PostMessage(WM_LBUTTONUP, (WPARAM)nFlags,MAKELPARAM(LOWORD(point.x),LOWORD(point.y)));

  022c4	8b 4d 0c	 mov	 ecx, DWORD PTR _point$[ebp]
  022c7	81 e1 ff ff 00
	00		 and	 ecx, 65535		; 0000ffffH
  022cd	0f b7 d1	 movzx	 edx, cx
  022d0	81 e2 ff ff 00
	00		 and	 edx, 65535		; 0000ffffH
  022d6	0f b7 c2	 movzx	 eax, dx
  022d9	8b 4d 10	 mov	 ecx, DWORD PTR _point$[ebp+4]
  022dc	81 e1 ff ff 00
	00		 and	 ecx, 65535		; 0000ffffH
  022e2	0f b7 d1	 movzx	 edx, cx
  022e5	81 e2 ff ff 00
	00		 and	 edx, 65535		; 0000ffffH
  022eb	0f b7 ca	 movzx	 ecx, dx
  022ee	c1 e1 10	 shl	 ecx, 16			; 00000010H
  022f1	0b c1		 or	 eax, ecx
  022f3	50		 push	 eax
  022f4	8b 55 08	 mov	 edx, DWORD PTR _nFlags$[ebp]
  022f7	52		 push	 edx
  022f8	68 02 02 00 00	 push	 514			; 00000202H
  022fd	8b 4d fc	 mov	 ecx, DWORD PTR _this$[ebp]
  02300	e8 00 00 00 00	 call	 ?PostMessageA@CWnd@@QAEHIIJ@Z ; CWnd::PostMessageA
$L198212:

; 915  : }

  02305	8b e5		 mov	 esp, ebp
  02307	5d		 pop	 ebp
  02308	c2 0c 00	 ret	 12			; 0000000cH
?OnRButtonUp@CxSkinButton@@QAEXIVCPoint@@@Z ENDP	; CxSkinButton::OnRButtonUp
_TEXT	ENDS
PUBLIC	?OnMouseMove@CWnd@@IAEXIVCPoint@@@Z		; CWnd::OnMouseMove
; Function compile flags: /Odt
_TEXT	SEGMENT
_this$ = -40						; size = 4
_t$198253 = -36						; size = 16
_mouse_wnd$198247 = -20					; size = 4
_need_pressed$198249 = -13				; size = 1
_p2$198246 = -12					; size = 8
_pressed$198248 = -1					; size = 1
_nFlags$ = 8						; size = 4
_point$ = 12						; size = 8
?OnMouseMove@CxSkinButton@@QAEXIVCPoint@@@Z PROC NEAR	; CxSkinButton::OnMouseMove
; _this$ = ecx

; 938  : {

  02310	55		 push	 ebp
  02311	8b ec		 mov	 ebp, esp
  02313	83 ec 28	 sub	 esp, 40			; 00000028H
  02316	89 4d d8	 mov	 DWORD PTR _this$[ebp], ecx

; 939  :     //TRACE("* %08X: Mouse\n", ::GetTickCount());
; 940  : 
; 941  : 	//Pass this message to the ToolTip control
; 942  : 	RelayEvent(WM_MOUSEMOVE,(WPARAM)nFlags,MAKELPARAM(LOWORD(point.x),LOWORD(point.y)));

  02319	8b 45 0c	 mov	 eax, DWORD PTR _point$[ebp]
  0231c	25 ff ff 00 00	 and	 eax, 65535		; 0000ffffH
  02321	0f b7 c8	 movzx	 ecx, ax
  02324	81 e1 ff ff 00
	00		 and	 ecx, 65535		; 0000ffffH
  0232a	0f b7 d1	 movzx	 edx, cx
  0232d	8b 45 10	 mov	 eax, DWORD PTR _point$[ebp+4]
  02330	25 ff ff 00 00	 and	 eax, 65535		; 0000ffffH
  02335	0f b7 c8	 movzx	 ecx, ax
  02338	81 e1 ff ff 00
	00		 and	 ecx, 65535		; 0000ffffH
  0233e	0f b7 c1	 movzx	 eax, cx
  02341	c1 e0 10	 shl	 eax, 16			; 00000010H
  02344	0b d0		 or	 edx, eax
  02346	52		 push	 edx
  02347	8b 4d 08	 mov	 ecx, DWORD PTR _nFlags$[ebp]
  0234a	51		 push	 ecx
  0234b	68 00 02 00 00	 push	 512			; 00000200H
  02350	8b 4d d8	 mov	 ecx, DWORD PTR _this$[ebp]
  02353	e8 00 00 00 00	 call	 ?RelayEvent@CxSkinButton@@QAEXIIJ@Z ; CxSkinButton::RelayEvent

; 943  : 
; 944  : 
; 945  :     //If we are in capture mode, button has been pressed down
; 946  :     //recently and not yet released - therefore check is we are
; 947  :     //actually over the button or somewhere else. If the mouse
; 948  :     //position changed considerably (e.g. we moved mouse pointer
; 949  :     //from the button to some other place outside button area)
; 950  :     //force the control to redraw
; 951  :     //
; 952  :     if ((m_button_down) && (::GetCapture() == m_hWnd)) {

  02358	8b 55 d8	 mov	 edx, DWORD PTR _this$[ebp]
  0235b	0f b6 42 79	 movzx	 eax, BYTE PTR [edx+121]
  0235f	85 c0		 test	 eax, eax
  02361	0f 84 92 00 00
	00		 je	 $L198245
  02367	ff 15 00 00 00
	00		 call	 DWORD PTR __imp__GetCapture@0
  0236d	8b 4d d8	 mov	 ecx, DWORD PTR _this$[ebp]
  02370	3b 41 20	 cmp	 eax, DWORD PTR [ecx+32]
  02373	0f 85 80 00 00
	00		 jne	 $L198245

; 953  : 	    POINT p2 = point;

  02379	8b 55 0c	 mov	 edx, DWORD PTR _point$[ebp]
  0237c	89 55 f4	 mov	 DWORD PTR _p2$198246[ebp], edx
  0237f	8b 45 10	 mov	 eax, DWORD PTR _point$[ebp+4]
  02382	89 45 f8	 mov	 DWORD PTR _p2$198246[ebp+4], eax

; 954  :         ::ClientToScreen(m_hWnd, &p2);

  02385	8d 4d f4	 lea	 ecx, DWORD PTR _p2$198246[ebp]
  02388	51		 push	 ecx
  02389	8b 55 d8	 mov	 edx, DWORD PTR _this$[ebp]
  0238c	8b 42 20	 mov	 eax, DWORD PTR [edx+32]
  0238f	50		 push	 eax
  02390	ff 15 00 00 00
	00		 call	 DWORD PTR __imp__ClientToScreen@8

; 955  :         HWND mouse_wnd = ::WindowFromPoint(p2);

  02396	8b 4d f8	 mov	 ecx, DWORD PTR _p2$198246[ebp+4]
  02399	51		 push	 ecx
  0239a	8b 55 f4	 mov	 edx, DWORD PTR _p2$198246[ebp]
  0239d	52		 push	 edx
  0239e	ff 15 00 00 00
	00		 call	 DWORD PTR __imp__WindowFromPoint@8
  023a4	89 45 ec	 mov	 DWORD PTR _mouse_wnd$198247[ebp], eax

; 956  : 
; 957  :         bool pressed = ((GetState() & BST_PUSHED) == BST_PUSHED);

  023a7	8b 4d d8	 mov	 ecx, DWORD PTR _this$[ebp]
  023aa	e8 00 00 00 00	 call	 ?GetState@CButton@@QBEIXZ ; CButton::GetState
  023af	83 e0 04	 and	 eax, 4
  023b2	83 e8 04	 sub	 eax, 4
  023b5	f7 d8		 neg	 eax
  023b7	1b c0		 sbb	 eax, eax
  023b9	40		 inc	 eax
  023ba	88 45 ff	 mov	 BYTE PTR _pressed$198248[ebp], al

; 958  :         bool need_pressed = (mouse_wnd == m_hWnd);

  023bd	8b 45 d8	 mov	 eax, DWORD PTR _this$[ebp]
  023c0	8b 4d ec	 mov	 ecx, DWORD PTR _mouse_wnd$198247[ebp]
  023c3	2b 48 20	 sub	 ecx, DWORD PTR [eax+32]
  023c6	f7 d9		 neg	 ecx
  023c8	1b c9		 sbb	 ecx, ecx
  023ca	41		 inc	 ecx
  023cb	88 4d f3	 mov	 BYTE PTR _need_pressed$198249[ebp], cl

; 959  :         if (pressed != need_pressed) {

  023ce	0f b6 55 ff	 movzx	 edx, BYTE PTR _pressed$198248[ebp]
  023d2	0f b6 45 f3	 movzx	 eax, BYTE PTR _need_pressed$198249[ebp]
  023d6	3b d0		 cmp	 edx, eax
  023d8	74 1d		 je	 SHORT $L198250

; 960  :             //TRACE("* %08X Redraw\n", GetTickCount());
; 961  :             SetState(need_pressed ? TRUE : FALSE);

  023da	0f b6 4d f3	 movzx	 ecx, BYTE PTR _need_pressed$198249[ebp]
  023de	f7 d9		 neg	 ecx
  023e0	1b c9		 sbb	 ecx, ecx
  023e2	f7 d9		 neg	 ecx
  023e4	51		 push	 ecx
  023e5	8b 4d d8	 mov	 ecx, DWORD PTR _this$[ebp]
  023e8	e8 00 00 00 00	 call	 ?SetState@CButton@@QAEXH@Z ; CButton::SetState

; 962  :             Invalidate();

  023ed	6a 01		 push	 1
  023ef	8b 4d d8	 mov	 ecx, DWORD PTR _this$[ebp]
  023f2	e8 00 00 00 00	 call	 ?Invalidate@CWnd@@QAEXH@Z ; CWnd::Invalidate
$L198250:

; 963  :         }
; 964  :     } else {

  023f7	eb 48		 jmp	 SHORT $L198251
$L198245:

; 965  : 
; 966  : 	//Otherwise the button is released. That means we should
; 967  :     //know when we leave its area - and so if we are not tracking
; 968  :     //this mouse leave event yet, start now!
; 969  :     //
; 970  :         if (!m_tracking) {

  023f9	8b 55 d8	 mov	 edx, DWORD PTR _this$[ebp]
  023fc	0f b6 42 78	 movzx	 eax, BYTE PTR [edx+120]
  02400	85 c0		 test	 eax, eax
  02402	75 3d		 jne	 SHORT $L198251

; 971  :             TRACKMOUSEEVENT t = {
; 972  :                 sizeof(TRACKMOUSEEVENT),

  02404	c7 45 dc 10 00
	00 00		 mov	 DWORD PTR _t$198253[ebp], 16 ; 00000010H

; 973  :                 TME_LEAVE|TME_HOVER,

  0240b	c7 45 e0 03 00
	00 00		 mov	 DWORD PTR _t$198253[ebp+4], 3

; 974  :                 m_hWnd,

  02412	8b 4d d8	 mov	 ecx, DWORD PTR _this$[ebp]
  02415	8b 51 20	 mov	 edx, DWORD PTR [ecx+32]
  02418	89 55 e4	 mov	 DWORD PTR _t$198253[ebp+8], edx

; 975  :                 0
; 976  :             };

  0241b	c7 45 e8 00 00
	00 00		 mov	 DWORD PTR _t$198253[ebp+12], 0

; 977  :             if (::_TrackMouseEvent(&t)) {

  02422	8d 45 dc	 lea	 eax, DWORD PTR _t$198253[ebp]
  02425	50		 push	 eax
  02426	ff 15 00 00 00
	00		 call	 DWORD PTR __imp___TrackMouseEvent@4
  0242c	85 c0		 test	 eax, eax
  0242e	74 11		 je	 SHORT $L198251

; 978  :                 //TRACE("* Mouse enter\n");
; 979  :                 m_tracking = true;

  02430	8b 4d d8	 mov	 ecx, DWORD PTR _this$[ebp]
  02433	c6 41 78 01	 mov	 BYTE PTR [ecx+120], 1

; 980  :                 Invalidate();

  02437	6a 01		 push	 1
  02439	8b 4d d8	 mov	 ecx, DWORD PTR _this$[ebp]
  0243c	e8 00 00 00 00	 call	 ?Invalidate@CWnd@@QAEXH@Z ; CWnd::Invalidate
$L198251:

; 981  :             }
; 982  :         }
; 983  :     }
; 984  : 
; 985  :     //Forward this event to superclass
; 986  :     CButton::OnMouseMove(nFlags, point);

  02441	8b 55 10	 mov	 edx, DWORD PTR _point$[ebp+4]
  02444	52		 push	 edx
  02445	8b 45 0c	 mov	 eax, DWORD PTR _point$[ebp]
  02448	50		 push	 eax
  02449	8b 4d 08	 mov	 ecx, DWORD PTR _nFlags$[ebp]
  0244c	51		 push	 ecx
  0244d	8b 4d d8	 mov	 ecx, DWORD PTR _this$[ebp]
  02450	e8 00 00 00 00	 call	 ?OnMouseMove@CWnd@@IAEXIVCPoint@@@Z ; CWnd::OnMouseMove

; 987  : }

  02455	8b e5		 mov	 esp, ebp
  02457	5d		 pop	 ebp
  02458	c2 0c 00	 ret	 12			; 0000000cH
?OnMouseMove@CxSkinButton@@QAEXIVCPoint@@@Z ENDP	; CxSkinButton::OnMouseMove
_TEXT	ENDS
PUBLIC	?GetParent@CWnd@@QBEPAV1@XZ			; CWnd::GetParent
EXTRN	__imp__SendMessageA@16:NEAR
EXTRN	__imp__GetWindowLongA@8:NEAR
EXTRN	?HideTooTips@CCWToolTips@@QAEXXZ:NEAR		; CCWToolTips::HideTooTips
; Function compile flags: /Odt
_TEXT	SEGMENT
_this$ = -4						; size = 4
___formal$ = 8						; size = 4
___formal$ = 12						; size = 4
?OnMouseLeave@CxSkinButton@@QAEJIJ@Z PROC NEAR		; CxSkinButton::OnMouseLeave
; _this$ = ecx

; 1017 : {

  02460	55		 push	 ebp
  02461	8b ec		 mov	 ebp, esp
  02463	51		 push	 ecx
  02464	89 4d fc	 mov	 DWORD PTR _this$[ebp], ecx

; 1018 :     //ASSERT (m_tracking);
; 1019 :     //TRACE("* Mouse leave\n");
; 1020 : 	m_pToolTip->HideTooTips();

  02467	8b 45 fc	 mov	 eax, DWORD PTR _this$[ebp]
  0246a	8b 48 5c	 mov	 ecx, DWORD PTR [eax+92]
  0246d	e8 00 00 00 00	 call	 ?HideTooTips@CCWToolTips@@QAEXXZ ; CCWToolTips::HideTooTips

; 1021 : 
; 1022 :     m_tracking = false;

  02472	8b 4d fc	 mov	 ecx, DWORD PTR _this$[ebp]
  02475	c6 41 78 00	 mov	 BYTE PTR [ecx+120], 0

; 1023 :     Invalidate();

  02479	6a 01		 push	 1
  0247b	8b 4d fc	 mov	 ecx, DWORD PTR _this$[ebp]
  0247e	e8 00 00 00 00	 call	 ?Invalidate@CWnd@@QAEXH@Z ; CWnd::Invalidate

; 1024 : 	::SendMessage( this->GetParent()->m_hWnd, MSG_MOUSELEAVE_BTN, (WPARAM)GetWindowLong(this->m_hWnd, GWL_ID),0 );

  02483	6a 00		 push	 0
  02485	6a f4		 push	 -12			; fffffff4H
  02487	8b 55 fc	 mov	 edx, DWORD PTR _this$[ebp]
  0248a	8b 42 20	 mov	 eax, DWORD PTR [edx+32]
  0248d	50		 push	 eax
  0248e	ff 15 00 00 00
	00		 call	 DWORD PTR __imp__GetWindowLongA@8
  02494	50		 push	 eax
  02495	68 01 05 00 00	 push	 1281			; 00000501H
  0249a	8b 4d fc	 mov	 ecx, DWORD PTR _this$[ebp]
  0249d	e8 00 00 00 00	 call	 ?GetParent@CWnd@@QBEPAV1@XZ ; CWnd::GetParent
  024a2	8b 48 20	 mov	 ecx, DWORD PTR [eax+32]
  024a5	51		 push	 ecx
  024a6	ff 15 00 00 00
	00		 call	 DWORD PTR __imp__SendMessageA@16

; 1025 : 	return 0;

  024ac	33 c0		 xor	 eax, eax

; 1026 : }

  024ae	8b e5		 mov	 esp, ebp
  024b0	5d		 pop	 ebp
  024b1	c2 08 00	 ret	 8
?OnMouseLeave@CxSkinButton@@QAEJIJ@Z ENDP		; CxSkinButton::OnMouseLeave
; Function compile flags: /Odt
_this$ = -4						; size = 4
_wParam$ = 8						; size = 4
_lParam$ = 12						; size = 4
?OnMouseHover@CxSkinButton@@QAEJIJ@Z PROC NEAR		; CxSkinButton::OnMouseHover
; _this$ = ecx

; 1029 : { 	

  024c0	55		 push	 ebp
  024c1	8b ec		 mov	 ebp, esp
  024c3	51		 push	 ecx
  024c4	89 4d fc	 mov	 DWORD PTR _this$[ebp], ecx

; 1030 : 	m_tracking = true;

  024c7	8b 45 fc	 mov	 eax, DWORD PTR _this$[ebp]
  024ca	c6 40 78 01	 mov	 BYTE PTR [eax+120], 1

; 1031 : 	::SendMessage( this->GetParent()->m_hWnd, MSG_MOUSEHOVER_BTN, (WPARAM)GetWindowLong(this->m_hWnd, GWL_ID),0 );

  024ce	6a 00		 push	 0
  024d0	6a f4		 push	 -12			; fffffff4H
  024d2	8b 4d fc	 mov	 ecx, DWORD PTR _this$[ebp]
  024d5	8b 51 20	 mov	 edx, DWORD PTR [ecx+32]
  024d8	52		 push	 edx
  024d9	ff 15 00 00 00
	00		 call	 DWORD PTR __imp__GetWindowLongA@8
  024df	50		 push	 eax
  024e0	68 02 05 00 00	 push	 1282			; 00000502H
  024e5	8b 4d fc	 mov	 ecx, DWORD PTR _this$[ebp]
  024e8	e8 00 00 00 00	 call	 ?GetParent@CWnd@@QBEPAV1@XZ ; CWnd::GetParent
  024ed	8b 40 20	 mov	 eax, DWORD PTR [eax+32]
  024f0	50		 push	 eax
  024f1	ff 15 00 00 00
	00		 call	 DWORD PTR __imp__SendMessageA@16

; 1032 : 	return 0;

  024f7	33 c0		 xor	 eax, eax

; 1033 : } 

  024f9	8b e5		 mov	 esp, ebp
  024fb	5d		 pop	 ebp
  024fc	c2 08 00	 ret	 8
?OnMouseHover@CxSkinButton@@QAEJIJ@Z ENDP		; CxSkinButton::OnMouseHover
_TEXT	ENDS
PUBLIC	?OnKillFocus@CWnd@@IAEXPAV1@@Z			; CWnd::OnKillFocus
EXTRN	__imp__ReleaseCapture@0:NEAR
; Function compile flags: /Odt
_TEXT	SEGMENT
_this$ = -4						; size = 4
_new_wnd$ = 8						; size = 4
?OnKillFocus@CxSkinButton@@QAEXPAVCWnd@@@Z PROC NEAR	; CxSkinButton::OnKillFocus
; _this$ = ecx

; 1058 : {

  02500	55		 push	 ebp
  02501	8b ec		 mov	 ebp, esp
  02503	51		 push	 ecx
  02504	89 4d fc	 mov	 DWORD PTR _this$[ebp], ecx

; 1059 :     if (::GetCapture() == m_hWnd) {

  02507	ff 15 00 00 00
	00		 call	 DWORD PTR __imp__GetCapture@0
  0250d	8b 4d fc	 mov	 ecx, DWORD PTR _this$[ebp]
  02510	3b 41 20	 cmp	 eax, DWORD PTR [ecx+32]
  02513	75 0d		 jne	 SHORT $L198272

; 1060 :         ::ReleaseCapture();

  02515	ff 15 00 00 00
	00		 call	 DWORD PTR __imp__ReleaseCapture@0

; 1061 :         ASSERT (!m_tracking);
; 1062 :         m_button_down = false;

  0251b	8b 55 fc	 mov	 edx, DWORD PTR _this$[ebp]
  0251e	c6 42 79 00	 mov	 BYTE PTR [edx+121], 0
$L198272:

; 1063 :     }
; 1064 :     CButton::OnKillFocus(new_wnd);

  02522	8b 45 08	 mov	 eax, DWORD PTR _new_wnd$[ebp]
  02525	50		 push	 eax
  02526	8b 4d fc	 mov	 ecx, DWORD PTR _this$[ebp]
  02529	e8 00 00 00 00	 call	 ?OnKillFocus@CWnd@@IAEXPAV1@@Z ; CWnd::OnKillFocus

; 1065 : }

  0252e	8b e5		 mov	 esp, ebp
  02530	5d		 pop	 ebp
  02531	c2 04 00	 ret	 4
?OnKillFocus@CxSkinButton@@QAEXPAVCWnd@@@Z ENDP		; CxSkinButton::OnKillFocus
_TEXT	ENDS
PUBLIC	?OnClicked@CxSkinButton@@QAEHXZ			; CxSkinButton::OnClicked
; Function compile flags: /Odt
_TEXT	SEGMENT
_this$ = -4						; size = 4
?OnClicked@CxSkinButton@@QAEHXZ PROC NEAR		; CxSkinButton::OnClicked
; _this$ = ecx

; 1091 : {

  02540	55		 push	 ebp
  02541	8b ec		 mov	 ebp, esp
  02543	51		 push	 ecx
  02544	89 4d fc	 mov	 DWORD PTR _this$[ebp], ecx

; 1092 :     if (::GetCapture() == m_hWnd) {

  02547	ff 15 00 00 00
	00		 call	 DWORD PTR __imp__GetCapture@0
  0254d	8b 4d fc	 mov	 ecx, DWORD PTR _this$[ebp]
  02550	3b 41 20	 cmp	 eax, DWORD PTR [ecx+32]
  02553	75 06		 jne	 SHORT $L198277

; 1093 :         ::ReleaseCapture();

  02555	ff 15 00 00 00
	00		 call	 DWORD PTR __imp__ReleaseCapture@0
$L198277:

; 1094 :         ASSERT (!m_tracking);
; 1095 :     }
; 1096 :     m_button_down = false;

  0255b	8b 55 fc	 mov	 edx, DWORD PTR _this$[ebp]
  0255e	c6 42 79 00	 mov	 BYTE PTR [edx+121], 0

; 1097 :     //Invalidate();
; 1098 :     return FALSE;

  02562	33 c0		 xor	 eax, eax

; 1099 : }

  02564	8b e5		 mov	 esp, ebp
  02566	5d		 pop	 ebp
  02567	c3		 ret	 0
?OnClicked@CxSkinButton@@QAEHXZ ENDP			; CxSkinButton::OnClicked
; Function compile flags: /Odt
_this$ = -4						; size = 4
_wparam$ = 8						; size = 4
___formal$ = 12						; size = 4
?OnRadioInfo@CxSkinButton@@QAEJIJ@Z PROC NEAR		; CxSkinButton::OnRadioInfo
; _this$ = ecx

; 1119 : {

  02570	55		 push	 ebp
  02571	8b ec		 mov	 ebp, esp
  02573	51		 push	 ecx
  02574	89 4d fc	 mov	 DWORD PTR _this$[ebp], ecx

; 1120 : 	if (m_Checked){	//only checked buttons need to be unchecked

  02577	8b 45 fc	 mov	 eax, DWORD PTR _this$[ebp]
  0257a	0f b6 48 71	 movzx	 ecx, BYTE PTR [eax+113]
  0257e	85 c9		 test	 ecx, ecx
  02580	74 11		 je	 SHORT $L198284

; 1121 : 		m_Checked = false;

  02582	8b 55 fc	 mov	 edx, DWORD PTR _this$[ebp]
  02585	c6 42 71 00	 mov	 BYTE PTR [edx+113], 0

; 1122 : 		Invalidate();

  02589	6a 01		 push	 1
  0258b	8b 4d fc	 mov	 ecx, DWORD PTR _this$[ebp]
  0258e	e8 00 00 00 00	 call	 ?Invalidate@CWnd@@QAEXH@Z ; CWnd::Invalidate
$L198284:

; 1123 : 	}
; 1124 : 	return 0;

  02593	33 c0		 xor	 eax, eax

; 1125 : }

  02595	8b e5		 mov	 esp, ebp
  02597	5d		 pop	 ebp
  02598	c2 08 00	 ret	 8
?OnRadioInfo@CxSkinButton@@QAEJIJ@Z ENDP		; CxSkinButton::OnRadioInfo
_TEXT	ENDS
PUBLIC	?OnKeyDown@CWnd@@IAEXIII@Z			; CWnd::OnKeyDown
; Function compile flags: /Odt
_TEXT	SEGMENT
_this$ = -4						; size = 4
_nChar$ = 8						; size = 4
_nRepCnt$ = 12						; size = 4
_nFlags$ = 16						; size = 4
?OnKeyDown@CxSkinButton@@QAEXIII@Z PROC NEAR		; CxSkinButton::OnKeyDown
; _this$ = ecx

; 1128 : {

  025a0	55		 push	 ebp
  025a1	8b ec		 mov	 ebp, esp
  025a3	51		 push	 ecx
  025a4	89 4d fc	 mov	 DWORD PTR _this$[ebp], ecx

; 1129 : 	if ((m_Style)&&(nChar==' ')){ //needed stuff for check & radio buttons

  025a7	8b 45 fc	 mov	 eax, DWORD PTR _this$[ebp]
  025aa	83 78 74 00	 cmp	 DWORD PTR [eax+116], 0
  025ae	74 37		 je	 SHORT $L198291
  025b0	83 7d 08 20	 cmp	 DWORD PTR _nChar$[ebp], 32 ; 00000020H
  025b4	75 31		 jne	 SHORT $L198291

; 1130 : 		if (m_Style==BS_CHECKBOX) SetCheck(m_Checked ? 0 : 1);

  025b6	8b 4d fc	 mov	 ecx, DWORD PTR _this$[ebp]
  025b9	83 79 74 02	 cmp	 DWORD PTR [ecx+116], 2
  025bd	75 15		 jne	 SHORT $L198292
  025bf	8b 55 fc	 mov	 edx, DWORD PTR _this$[ebp]
  025c2	0f b6 42 71	 movzx	 eax, BYTE PTR [edx+113]
  025c6	f7 d8		 neg	 eax
  025c8	1b c0		 sbb	 eax, eax
  025ca	40		 inc	 eax
  025cb	50		 push	 eax
  025cc	8b 4d fc	 mov	 ecx, DWORD PTR _this$[ebp]
  025cf	e8 00 00 00 00	 call	 ?SetCheck@CButton@@QAEXH@Z ; CButton::SetCheck
$L198292:

; 1131 : 		if (m_Style==BS_RADIOBUTTON) SetCheck(1);

  025d4	8b 4d fc	 mov	 ecx, DWORD PTR _this$[ebp]
  025d7	83 79 74 04	 cmp	 DWORD PTR [ecx+116], 4
  025db	75 0a		 jne	 SHORT $L198291
  025dd	6a 01		 push	 1
  025df	8b 4d fc	 mov	 ecx, DWORD PTR _this$[ebp]
  025e2	e8 00 00 00 00	 call	 ?SetCheck@CButton@@QAEXH@Z ; CButton::SetCheck
$L198291:

; 1132 : 	}
; 1133 : 	CButton::OnKeyDown(nChar, nRepCnt, nFlags);

  025e7	8b 55 10	 mov	 edx, DWORD PTR _nFlags$[ebp]
  025ea	52		 push	 edx
  025eb	8b 45 0c	 mov	 eax, DWORD PTR _nRepCnt$[ebp]
  025ee	50		 push	 eax
  025ef	8b 4d 08	 mov	 ecx, DWORD PTR _nChar$[ebp]
  025f2	51		 push	 ecx
  025f3	8b 4d fc	 mov	 ecx, DWORD PTR _this$[ebp]
  025f6	e8 00 00 00 00	 call	 ?OnKeyDown@CWnd@@IAEXIII@Z ; CWnd::OnKeyDown

; 1134 : }

  025fb	8b e5		 mov	 esp, ebp
  025fd	5d		 pop	 ebp
  025fe	c2 0c 00	 ret	 12			; 0000000cH
?OnKeyDown@CxSkinButton@@QAEXIII@Z ENDP			; CxSkinButton::OnKeyDown
_TEXT	ENDS
PUBLIC	?GetSafeHwnd@CWnd@@QBEPAUHWND__@@XZ		; CWnd::GetSafeHwnd
EXTRN	__imp__GetNextDlgGroupItem@12:NEAR
; Function compile flags: /Odt
_TEXT	SEGMENT
tv69 = -20						; size = 4
_this$ = -16						; size = 4
_hthis$198305 = -12					; size = 4
_hwnd2$198306 = -8					; size = 4
_hpwnd$198307 = -4					; size = 4
_wparam$ = 8						; size = 4
___formal$ = 12						; size = 4
?OnBMSetCheck@CxSkinButton@@QAEJIJ@Z PROC NEAR		; CxSkinButton::OnBMSetCheck
; _this$ = ecx

; 1154 : {

  02610	55		 push	 ebp
  02611	8b ec		 mov	 ebp, esp
  02613	83 ec 14	 sub	 esp, 20			; 00000014H
  02616	89 4d f0	 mov	 DWORD PTR _this$[ebp], ecx

; 1155 : 	m_Checked=wparam!=0;

  02619	33 c0		 xor	 eax, eax
  0261b	83 7d 08 00	 cmp	 DWORD PTR _wparam$[ebp], 0
  0261f	0f 95 c0	 setne	 al
  02622	8b 4d f0	 mov	 ecx, DWORD PTR _this$[ebp]
  02625	88 41 71	 mov	 BYTE PTR [ecx+113], al

; 1156 : 	switch (m_Style)

  02628	8b 55 f0	 mov	 edx, DWORD PTR _this$[ebp]
  0262b	8b 42 74	 mov	 eax, DWORD PTR [edx+116]
  0262e	89 45 ec	 mov	 DWORD PTR tv69[ebp], eax
  02631	83 7d ec 04	 cmp	 DWORD PTR tv69[ebp], 4
  02635	74 02		 je	 SHORT $L198303
  02637	eb 72		 jmp	 SHORT $L198300
$L198303:

; 1157 : 	{
; 1158 : 	case BS_RADIOBUTTON:
; 1159 : 		if (m_Checked) { //uncheck the other radio buttons (in the same group)

  02639	8b 4d f0	 mov	 ecx, DWORD PTR _this$[ebp]
  0263c	0f b6 51 71	 movzx	 edx, BYTE PTR [ecx+113]
  02640	85 d2		 test	 edx, edx
  02642	74 67		 je	 SHORT $L198300

; 1160 : 			HWND hthis,hwnd2,hpwnd;
; 1161 : 			hpwnd=GetParent()->GetSafeHwnd();	//get button parent handle

  02644	8b 4d f0	 mov	 ecx, DWORD PTR _this$[ebp]
  02647	e8 00 00 00 00	 call	 ?GetParent@CWnd@@QBEPAV1@XZ ; CWnd::GetParent
  0264c	8b c8		 mov	 ecx, eax
  0264e	e8 00 00 00 00	 call	 ?GetSafeHwnd@CWnd@@QBEPAUHWND__@@XZ ; CWnd::GetSafeHwnd
  02653	89 45 fc	 mov	 DWORD PTR _hpwnd$198307[ebp], eax

; 1162 : 			hwnd2=hthis=GetSafeHwnd();			//get this button handle

  02656	8b 4d f0	 mov	 ecx, DWORD PTR _this$[ebp]
  02659	e8 00 00 00 00	 call	 ?GetSafeHwnd@CWnd@@QBEPAUHWND__@@XZ ; CWnd::GetSafeHwnd
  0265e	89 45 f4	 mov	 DWORD PTR _hthis$198305[ebp], eax
  02661	8b 45 f4	 mov	 eax, DWORD PTR _hthis$198305[ebp]
  02664	89 45 f8	 mov	 DWORD PTR _hwnd2$198306[ebp], eax

; 1163 : 			if (hthis && hpwnd){				//consistency check

  02667	83 7d f4 00	 cmp	 DWORD PTR _hthis$198305[ebp], 0
  0266b	74 3e		 je	 SHORT $L198300
  0266d	83 7d fc 00	 cmp	 DWORD PTR _hpwnd$198307[ebp], 0
  02671	74 38		 je	 SHORT $L198300
$L198310:

; 1164 : 				for( ; ; ){	//scan the buttons within the group
; 1165 : 					hwnd2=::GetNextDlgGroupItem(hpwnd,hwnd2,0);

  02673	6a 00		 push	 0
  02675	8b 4d f8	 mov	 ecx, DWORD PTR _hwnd2$198306[ebp]
  02678	51		 push	 ecx
  02679	8b 55 fc	 mov	 edx, DWORD PTR _hpwnd$198307[ebp]
  0267c	52		 push	 edx
  0267d	ff 15 00 00 00
	00		 call	 DWORD PTR __imp__GetNextDlgGroupItem@12
  02683	89 45 f8	 mov	 DWORD PTR _hwnd2$198306[ebp], eax

; 1166 : 					//until we reach again this button
; 1167 : 					if ((hwnd2==hthis)||(hwnd2==NULL)) break;

  02686	8b 45 f8	 mov	 eax, DWORD PTR _hwnd2$198306[ebp]
  02689	3b 45 f4	 cmp	 eax, DWORD PTR _hthis$198305[ebp]
  0268c	74 06		 je	 SHORT $L198313
  0268e	83 7d f8 00	 cmp	 DWORD PTR _hwnd2$198306[ebp], 0
  02692	75 02		 jne	 SHORT $L198312
$L198313:
  02694	eb 15		 jmp	 SHORT $L198300
$L198312:

; 1168 : 					//post the uncheck message
; 1169 : 					::PostMessage(hwnd2, WM_CXSHADE_RADIO, 0, 0);

  02696	6a 00		 push	 0
  02698	6a 00		 push	 0
  0269a	68 00 05 00 00	 push	 1280			; 00000500H
  0269f	8b 4d f8	 mov	 ecx, DWORD PTR _hwnd2$198306[ebp]
  026a2	51		 push	 ecx
  026a3	ff 15 00 00 00
	00		 call	 DWORD PTR __imp__PostMessageA@16

; 1170 : 				}

  026a9	eb c8		 jmp	 SHORT $L198310
$L198300:

; 1171 : 			}
; 1172 : 		}
; 1173 : 		break;
; 1174 : 	case BS_PUSHBUTTON:
; 1175 : 		//m_Checked=false;
; 1176 : 		//ASSERT(false); // Must be a Check or Radio button to use this function
; 1177 : 		break;
; 1178 : 	}
; 1179 : 
; 1180 : 	Invalidate();

  026ab	6a 01		 push	 1
  026ad	8b 4d f0	 mov	 ecx, DWORD PTR _this$[ebp]
  026b0	e8 00 00 00 00	 call	 ?Invalidate@CWnd@@QAEXH@Z ; CWnd::Invalidate

; 1181 : 	return 0;

  026b5	33 c0		 xor	 eax, eax

; 1182 : }

  026b7	8b e5		 mov	 esp, ebp
  026b9	5d		 pop	 ebp
  026ba	c2 08 00	 ret	 8
?OnBMSetCheck@CxSkinButton@@QAEJIJ@Z ENDP		; CxSkinButton::OnBMSetCheck
; Function compile flags: /Odt
_this$ = -4						; size = 4
_wparam$ = 8						; size = 4
___formal$ = 12						; size = 4
?OnBMGetCheck@CxSkinButton@@QAEJIJ@Z PROC NEAR		; CxSkinButton::OnBMGetCheck
; _this$ = ecx

; 1185 : { return m_Checked; }	//returns the state for check & radio buttons

  026c0	55		 push	 ebp
  026c1	8b ec		 mov	 ebp, esp
  026c3	51		 push	 ecx
  026c4	89 4d fc	 mov	 DWORD PTR _this$[ebp], ecx
  026c7	8b 45 fc	 mov	 eax, DWORD PTR _this$[ebp]
  026ca	0f b6 40 71	 movzx	 eax, BYTE PTR [eax+113]
  026ce	8b e5		 mov	 esp, ebp
  026d0	5d		 pop	 ebp
  026d1	c2 08 00	 ret	 8
?OnBMGetCheck@CxSkinButton@@QAEJIJ@Z ENDP		; CxSkinButton::OnBMGetCheck
_TEXT	ENDS
EXTRN	?DestroyWindow@CWnd@@UAEHXZ:NEAR		; CWnd::DestroyWindow
; Function compile flags: /Odt
_TEXT	SEGMENT
_this$ = -4						; size = 4
?DestroyWindow@CxSkinButton@@UAEHXZ PROC NEAR		; CxSkinButton::DestroyWindow
; _this$ = ecx

; 1190 : {

  026e0	55		 push	 ebp
  026e1	8b ec		 mov	 ebp, esp
  026e3	51		 push	 ecx
  026e4	89 4d fc	 mov	 DWORD PTR _this$[ebp], ecx

; 1191 : 	// TODO: /
; 1192 : 	m_pToolTip->DestroyWindow();

  026e7	8b 45 fc	 mov	 eax, DWORD PTR _this$[ebp]
  026ea	8b 48 5c	 mov	 ecx, DWORD PTR [eax+92]
  026ed	8b 55 fc	 mov	 edx, DWORD PTR _this$[ebp]
  026f0	8b 42 5c	 mov	 eax, DWORD PTR [edx+92]
  026f3	8b 11		 mov	 edx, DWORD PTR [ecx]
  026f5	8b c8		 mov	 ecx, eax
  026f7	ff 52 68	 call	 DWORD PTR [edx+104]

; 1193 : 
; 1194 : 	return CButton::DestroyWindow();

  026fa	8b 4d fc	 mov	 ecx, DWORD PTR _this$[ebp]
  026fd	e8 00 00 00 00	 call	 ?DestroyWindow@CWnd@@UAEHXZ ; CWnd::DestroyWindow

; 1195 : }

  02702	8b e5		 mov	 esp, ebp
  02704	5d		 pop	 ebp
  02705	c3		 ret	 0
?DestroyWindow@CxSkinButton@@UAEHXZ ENDP		; CxSkinButton::DestroyWindow
_TEXT	ENDS
EXTRN	?Create@CButton@@UAEHPBDKABUtagRECT@@PAVCWnd@@I@Z:NEAR ; CButton::Create
EXTRN	?AfxGetMainWindow@@YAPAVCWnd@@XZ:NEAR		; AfxGetMainWindow
; Function compile flags: /Odt
_TEXT	SEGMENT
_this$ = -20						; size = 4
$T199065 = -16						; size = 16
_lpszCaption$ = 8					; size = 4
_dwStyle$ = 12						; size = 4
_rect$ = 16						; size = 4
_pParentWnd$ = 20					; size = 4
_nID$ = 24						; size = 4
?Create@CxSkinButton@@UAEHPBDKABUtagRECT@@PAVCWnd@@I@Z PROC NEAR ; CxSkinButton::Create
; _this$ = ecx

; 1198 : {

  02710	55		 push	 ebp
  02711	8b ec		 mov	 ebp, esp
  02713	83 ec 14	 sub	 esp, 20			; 00000014H
  02716	89 4d ec	 mov	 DWORD PTR _this$[ebp], ecx

; 1199 : 	// TODO: /
; 1200 : 	m_pToolTip->m_pClientWnd = AfxGetMainWindow();

  02719	e8 00 00 00 00	 call	 ?AfxGetMainWindow@@YAPAVCWnd@@XZ ; AfxGetMainWindow
  0271e	8b 4d ec	 mov	 ecx, DWORD PTR _this$[ebp]
  02721	8b 51 5c	 mov	 edx, DWORD PTR [ecx+92]
  02724	89 42 60	 mov	 DWORD PTR [edx+96], eax

; 1201 : 	m_pToolTip->m_hParent	 = m_hWnd;

  02727	8b 45 ec	 mov	 eax, DWORD PTR _this$[ebp]
  0272a	8b 48 5c	 mov	 ecx, DWORD PTR [eax+92]
  0272d	8b 55 ec	 mov	 edx, DWORD PTR _this$[ebp]
  02730	8b 42 20	 mov	 eax, DWORD PTR [edx+32]
  02733	89 81 88 00 00
	00		 mov	 DWORD PTR [ecx+136], eax

; 1202 : 	m_pToolTip->CreateEx(WS_EX_TOOLWINDOW|WS_EX_TOPMOST,TOOLTIPS_CLASS,"",0,CRect(0,0,0,0),NULL,0);	

  02739	6a 00		 push	 0
  0273b	6a 00		 push	 0
  0273d	6a 00		 push	 0
  0273f	6a 00		 push	 0
  02741	6a 00		 push	 0
  02743	6a 00		 push	 0
  02745	6a 00		 push	 0
  02747	8d 4d f0	 lea	 ecx, DWORD PTR $T199065[ebp]
  0274a	e8 00 00 00 00	 call	 ??0CRect@@QAE@HHHH@Z	; CRect::CRect
  0274f	50		 push	 eax
  02750	6a 00		 push	 0
  02752	68 00 00 00 00	 push	 OFFSET FLAT:$SG198332
  02757	68 00 00 00 00	 push	 OFFSET FLAT:$SG198333
  0275c	68 88 00 00 00	 push	 136			; 00000088H
  02761	8b 4d ec	 mov	 ecx, DWORD PTR _this$[ebp]
  02764	8b 51 5c	 mov	 edx, DWORD PTR [ecx+92]
  02767	8b 45 ec	 mov	 eax, DWORD PTR _this$[ebp]
  0276a	8b 48 5c	 mov	 ecx, DWORD PTR [eax+92]
  0276d	8b 12		 mov	 edx, DWORD PTR [edx]
  0276f	ff 52 60	 call	 DWORD PTR [edx+96]

; 1203 : 	m_pToolTip->m_clrBK = RGB(255, 255, 225);

  02772	8b 45 ec	 mov	 eax, DWORD PTR _this$[ebp]
  02775	8b 48 5c	 mov	 ecx, DWORD PTR [eax+92]
  02778	c7 41 5c ff ff
	e1 00		 mov	 DWORD PTR [ecx+92], 14811135 ; 00e1ffffH

; 1204 : 
; 1205 : 	return CButton::Create(lpszCaption, dwStyle, rect, pParentWnd, nID);

  0277f	8b 55 18	 mov	 edx, DWORD PTR _nID$[ebp]
  02782	52		 push	 edx
  02783	8b 45 14	 mov	 eax, DWORD PTR _pParentWnd$[ebp]
  02786	50		 push	 eax
  02787	8b 4d 10	 mov	 ecx, DWORD PTR _rect$[ebp]
  0278a	51		 push	 ecx
  0278b	8b 55 0c	 mov	 edx, DWORD PTR _dwStyle$[ebp]
  0278e	52		 push	 edx
  0278f	8b 45 08	 mov	 eax, DWORD PTR _lpszCaption$[ebp]
  02792	50		 push	 eax
  02793	8b 4d ec	 mov	 ecx, DWORD PTR _this$[ebp]
  02796	e8 00 00 00 00	 call	 ?Create@CButton@@UAEHPBDKABUtagRECT@@PAVCWnd@@I@Z ; CButton::Create

; 1206 : }

  0279b	8b e5		 mov	 esp, ebp
  0279d	5d		 pop	 ebp
  0279e	c2 14 00	 ret	 20			; 00000014H
?Create@CxSkinButton@@UAEHPBDKABUtagRECT@@PAVCWnd@@I@Z ENDP ; CxSkinButton::Create
_TEXT	ENDS
EXTRN	__imp_?Compare@?$CStringT@DV?$StrTraitMFC_DLL@DV?$ChTraitsCRT@D@ATL@@@@@ATL@@QBEHPBD@Z:NEAR
; Function compile flags: /Odt
; File d:\program files (x86)\microsoft visual studio .net 2003\vc7\atlmfc\include\cstringt.h
