; Listing generated by Microsoft (R) Optimizing Compiler Version 13.10.3077 

	TITLE	.\src\Gui\CommonControl\xSkinComboBox.cpp
	.386P
include listing.inc
if @Version gt 510
.model FLAT
else
_TEXT	SEGMENT PARA USE32 PUBLIC 'CODE'
_TEXT	ENDS
_DATA	SEGMENT DWORD USE32 PUBLIC 'DATA'
_DATA	ENDS
CONST	SEGMENT DWORD USE32 PUBLIC 'CONST'
CONST	ENDS
_BSS	SEGMENT DWORD USE32 PUBLIC 'BSS'
_BSS	ENDS
$$SYMBOLS	SEGMENT BYTE USE32 'DEBSYM'
$$SYMBOLS	ENDS
$$TYPES	SEGMENT BYTE USE32 'DEBTYP'
$$TYPES	ENDS
_TLS	SEGMENT DWORD USE32 PUBLIC 'TLS'
_TLS	ENDS
;	COMDAT ??_C@_0BM@NMJKDPPO@invalid?5vector?$DMT?$DO?5subscript?$AA@
CONST	SEGMENT DWORD USE32 PUBLIC 'CONST'
CONST	ENDS
;	COMDAT ??_C@_0BD@OLBABOEK@vector?$DMT?$DO?5too?5long?$AA@
CONST	SEGMENT DWORD USE32 PUBLIC 'CONST'
CONST	ENDS
rdata$r	SEGMENT DWORD USE32 PUBLIC 'CONST'
rdata$r	ENDS
xdata$x	SEGMENT DWORD USE32 PUBLIC 'CONST'
xdata$x	ENDS
text$AFX_COL1	SEGMENT PARA USE32 PUBLIC ''
text$AFX_COL1	ENDS
text$yc	SEGMENT PARA USE32 PUBLIC 'CODE'
text$yc	ENDS
CRT$XCA	SEGMENT DWORD USE32 PUBLIC 'DATA'
CRT$XCA	ENDS
CRT$XCU	SEGMENT DWORD USE32 PUBLIC 'DATA'
CRT$XCU	ENDS
CRT$XCL	SEGMENT DWORD USE32 PUBLIC 'DATA'
CRT$XCL	ENDS
CRT$XCC	SEGMENT DWORD USE32 PUBLIC 'DATA'
CRT$XCC	ENDS
CRT$XCZ	SEGMENT DWORD USE32 PUBLIC 'DATA'
CRT$XCZ	ENDS
text$yd	SEGMENT PARA USE32 PUBLIC 'CODE'
text$yd	ENDS
ATL$__m	SEGMENT DWORD USE32 PUBLIC ''
ATL$__m	ENDS
ATL$__z	SEGMENT DWORD USE32 PUBLIC ''
ATL$__z	ENDS
ATL$__a	SEGMENT DWORD USE32 PUBLIC ''
ATL$__a	ENDS
;	COMDAT ??1IData@@MAE@XZ
_TEXT	SEGMENT PARA USE32 PUBLIC 'CODE'
_TEXT	ENDS
;	COMDAT ?DataAppStart@IData@@UAEXXZ
_TEXT	SEGMENT PARA USE32 PUBLIC 'CODE'
_TEXT	ENDS
;	COMDAT ?DataAppExit@IData@@UAEXXZ
_TEXT	SEGMENT PARA USE32 PUBLIC 'CODE'
_TEXT	ENDS
;	COMDAT ??_GIData@@MAEPAXI@Z
_TEXT	SEGMENT PARA USE32 PUBLIC 'CODE'
_TEXT	ENDS
;	COMDAT ??_GCComboBoxEdit@@UAEPAXI@Z
_TEXT	SEGMENT PARA USE32 PUBLIC 'CODE'
_TEXT	ENDS
;	COMDAT ??1CComboBoxEdit@@UAE@XZ
_TEXT	SEGMENT PARA USE32 PUBLIC 'CODE'
_TEXT	ENDS
;	COMDAT ??_GCComboBoxHistoryList@@UAEPAXI@Z
_TEXT	SEGMENT PARA USE32 PUBLIC 'CODE'
_TEXT	ENDS
;	COMDAT ??_GCComboBoxHistory@@UAEPAXI@Z
_TEXT	SEGMENT PARA USE32 PUBLIC 'CODE'
_TEXT	ENDS
;	COMDAT ??1CComboBoxHistory@@UAE@XZ
_TEXT	SEGMENT PARA USE32 PUBLIC 'CODE'
_TEXT	ENDS
;	COMDAT ??_GCxSkinComboBox@@UAEPAXI@Z
_TEXT	SEGMENT PARA USE32 PUBLIC 'CODE'
_TEXT	ENDS
;	COMDAT ??B?$CComPtrBase@UITypeInfo2@@@ATL@@QBEPAUITypeInfo2@@XZ
_TEXT	SEGMENT PARA USE32 PUBLIC 'CODE'
_TEXT	ENDS
;	COMDAT ?equal@?$istreambuf_iterator@DU?$char_traits@D@std@@@std@@QBE_NABV12@@Z
_TEXT	SEGMENT PARA USE32 PUBLIC 'CODE'
_TEXT	ENDS
;	COMDAT ?equal@?$istreambuf_iterator@_WU?$char_traits@_W@std@@@std@@QBE_NABV12@@Z
_TEXT	SEGMENT PARA USE32 PUBLIC 'CODE'
_TEXT	ENDS
;	COMDAT ??0?$vector@V?$basic_string@DU?$char_traits@D@std@@V?$allocator@D@2@@std@@V?$allocator@V?$basic_string@DU?$char_traits@D@std@@V?$allocator@D@2@@std@@@2@@std@@QAE@XZ
_TEXT	SEGMENT PARA USE32 PUBLIC 'CODE'
_TEXT	ENDS
;	COMDAT ??1?$vector@V?$basic_string@DU?$char_traits@D@std@@V?$allocator@D@2@@std@@V?$allocator@V?$basic_string@DU?$char_traits@D@std@@V?$allocator@D@2@@std@@@2@@std@@QAE@XZ
_TEXT	SEGMENT PARA USE32 PUBLIC 'CODE'
_TEXT	ENDS
;	COMDAT ?size@?$vector@V?$basic_string@DU?$char_traits@D@std@@V?$allocator@D@2@@std@@V?$allocator@V?$basic_string@DU?$char_traits@D@std@@V?$allocator@D@2@@std@@@2@@std@@QBEIXZ
_TEXT	SEGMENT PARA USE32 PUBLIC 'CODE'
_TEXT	ENDS
;	COMDAT ?at@?$vector@V?$basic_string@DU?$char_traits@D@std@@V?$allocator@D@2@@std@@V?$allocator@V?$basic_string@DU?$char_traits@D@std@@V?$allocator@D@2@@std@@@2@@std@@QAEAAV?$basic_string@DU?$char_traits@D@std@@V?$allocator@D@2@@2@I@Z
_TEXT	SEGMENT PARA USE32 PUBLIC 'CODE'
_TEXT	ENDS
;	COMDAT ?push_back@?$vector@V?$basic_string@DU?$char_traits@D@std@@V?$allocator@D@2@@std@@V?$allocator@V?$basic_string@DU?$char_traits@D@std@@V?$allocator@D@2@@std@@@2@@std@@QAEXABV?$basic_string@DU?$char_traits@D@std@@V?$allocator@D@2@@2@@Z
_TEXT	SEGMENT PARA USE32 PUBLIC 'CODE'
_TEXT	ENDS
;	COMDAT ?clear@?$vector@V?$basic_string@DU?$char_traits@D@std@@V?$allocator@D@2@@std@@V?$allocator@V?$basic_string@DU?$char_traits@D@std@@V?$allocator@D@2@@std@@@2@@std@@QAEXXZ
_TEXT	SEGMENT PARA USE32 PUBLIC 'CODE'
_TEXT	ENDS
;	COMDAT ??0?$allocator@V?$basic_string@DU?$char_traits@D@std@@V?$allocator@D@2@@std@@@std@@QAE@XZ
_TEXT	SEGMENT PARA USE32 PUBLIC 'CODE'
_TEXT	ENDS
;	COMDAT ?capacity@?$vector@V?$basic_string@DU?$char_traits@D@std@@V?$allocator@D@2@@std@@V?$allocator@V?$basic_string@DU?$char_traits@D@std@@V?$allocator@D@2@@std@@@2@@std@@QBEIXZ
_TEXT	SEGMENT PARA USE32 PUBLIC 'CODE'
_TEXT	ENDS
;	COMDAT ?begin@?$vector@V?$basic_string@DU?$char_traits@D@std@@V?$allocator@D@2@@std@@V?$allocator@V?$basic_string@DU?$char_traits@D@std@@V?$allocator@D@2@@std@@@2@@std@@QAE?AViterator@12@XZ
_TEXT	SEGMENT PARA USE32 PUBLIC 'CODE'
_TEXT	ENDS
;	COMDAT ?end@?$vector@V?$basic_string@DU?$char_traits@D@std@@V?$allocator@D@2@@std@@V?$allocator@V?$basic_string@DU?$char_traits@D@std@@V?$allocator@D@2@@std@@@2@@std@@QAE?AViterator@12@XZ
_TEXT	SEGMENT PARA USE32 PUBLIC 'CODE'
_TEXT	ENDS
;	COMDAT ?insert@?$vector@V?$basic_string@DU?$char_traits@D@std@@V?$allocator@D@2@@std@@V?$allocator@V?$basic_string@DU?$char_traits@D@std@@V?$allocator@D@2@@std@@@2@@std@@QAE?AViterator@12@V312@ABV?$basic_string@DU?$char_traits@D@std@@V?$allocator@D@2@@2@@Z
_TEXT	SEGMENT PARA USE32 PUBLIC 'CODE'
_TEXT	ENDS
;	COMDAT ?_Buy@?$vector@V?$basic_string@DU?$char_traits@D@std@@V?$allocator@D@2@@std@@V?$allocator@V?$basic_string@DU?$char_traits@D@std@@V?$allocator@D@2@@std@@@2@@std@@IAE_NI@Z
_TEXT	SEGMENT PARA USE32 PUBLIC 'CODE'
_TEXT	ENDS
;	COMDAT ?_Tidy@?$vector@V?$basic_string@DU?$char_traits@D@std@@V?$allocator@D@2@@std@@V?$allocator@V?$basic_string@DU?$char_traits@D@std@@V?$allocator@D@2@@std@@@2@@std@@IAEXXZ
_TEXT	SEGMENT PARA USE32 PUBLIC 'CODE'
_TEXT	ENDS
;	COMDAT ?_Ufill@?$vector@V?$basic_string@DU?$char_traits@D@std@@V?$allocator@D@2@@std@@V?$allocator@V?$basic_string@DU?$char_traits@D@std@@V?$allocator@D@2@@std@@@2@@std@@IAEPAV?$basic_string@DU?$char_traits@D@std@@V?$allocator@D@2@@2@PAV32@IABV32@@Z
_TEXT	SEGMENT PARA USE32 PUBLIC 'CODE'
_TEXT	ENDS
;	COMDAT ?_Xran@?$vector@V?$basic_string@DU?$char_traits@D@std@@V?$allocator@D@2@@std@@V?$allocator@V?$basic_string@DU?$char_traits@D@std@@V?$allocator@D@2@@std@@@2@@std@@IBEXXZ
_TEXT	SEGMENT PARA USE32 PUBLIC 'CODE'
_TEXT	ENDS
;	COMDAT ??0?$_Vector_val@V?$basic_string@DU?$char_traits@D@std@@V?$allocator@D@2@@std@@V?$allocator@V?$basic_string@DU?$char_traits@D@std@@V?$allocator@D@2@@std@@@2@@std@@IAE@V?$allocator@V?$basic_string@DU?$char_traits@D@std@@V?$allocator@D@2@@std@@@1@@Z
_TEXT	SEGMENT PARA USE32 PUBLIC 'CODE'
_TEXT	ENDS
;	COMDAT ??Diterator@?$vector@V?$basic_string@DU?$char_traits@D@std@@V?$allocator@D@2@@std@@V?$allocator@V?$basic_string@DU?$char_traits@D@std@@V?$allocator@D@2@@std@@@2@@std@@QBEAAV?$basic_string@DU?$char_traits@D@std@@V?$allocator@D@2@@2@XZ
_TEXT	SEGMENT PARA USE32 PUBLIC 'CODE'
_TEXT	ENDS
;	COMDAT ??Hiterator@?$vector@V?$basic_string@DU?$char_traits@D@std@@V?$allocator@D@2@@std@@V?$allocator@V?$basic_string@DU?$char_traits@D@std@@V?$allocator@D@2@@std@@@2@@std@@QBE?AV012@H@Z
_TEXT	SEGMENT PARA USE32 PUBLIC 'CODE'
_TEXT	ENDS
;	COMDAT ?CharNextA@?$ChTraitsCRT@D@ATL@@SAPADPBD@Z
_TEXT	SEGMENT PARA USE32 PUBLIC 'CODE'
_TEXT	ENDS
;	COMDAT ?IsSpace@?$ChTraitsCRT@D@ATL@@SAHD@Z
_TEXT	SEGMENT PARA USE32 PUBLIC 'CODE'
_TEXT	ENDS
;	COMDAT ??0?$allocator@V?$basic_string@DU?$char_traits@D@std@@V?$allocator@D@2@@std@@@std@@QAE@ABV01@@Z
_TEXT	SEGMENT PARA USE32 PUBLIC 'CODE'
_TEXT	ENDS
;	COMDAT ?deallocate@?$allocator@V?$basic_string@DU?$char_traits@D@std@@V?$allocator@D@2@@std@@@std@@QAEXPAV?$basic_string@DU?$char_traits@D@std@@V?$allocator@D@2@@2@I@Z
_TEXT	SEGMENT PARA USE32 PUBLIC 'CODE'
_TEXT	ENDS
;	COMDAT ?allocate@?$allocator@V?$basic_string@DU?$char_traits@D@std@@V?$allocator@D@2@@std@@@std@@QAEPAV?$basic_string@DU?$char_traits@D@std@@V?$allocator@D@2@@2@I@Z
_TEXT	SEGMENT PARA USE32 PUBLIC 'CODE'
_TEXT	ENDS
;	COMDAT ?max_size@?$vector@V?$basic_string@DU?$char_traits@D@std@@V?$allocator@D@2@@std@@V?$allocator@V?$basic_string@DU?$char_traits@D@std@@V?$allocator@D@2@@std@@@2@@std@@QBEIXZ
_TEXT	SEGMENT PARA USE32 PUBLIC 'CODE'
_TEXT	ENDS
;	COMDAT ?_Destroy@?$vector@V?$basic_string@DU?$char_traits@D@std@@V?$allocator@D@2@@std@@V?$allocator@V?$basic_string@DU?$char_traits@D@std@@V?$allocator@D@2@@std@@@2@@std@@IAEXPAV?$basic_string@DU?$char_traits@D@std@@V?$allocator@D@2@@2@0@Z
_TEXT	SEGMENT PARA USE32 PUBLIC 'CODE'
_TEXT	ENDS
;	COMDAT ?_Insert_n@?$vector@V?$basic_string@DU?$char_traits@D@std@@V?$allocator@D@2@@std@@V?$allocator@V?$basic_string@DU?$char_traits@D@std@@V?$allocator@D@2@@std@@@2@@std@@IAEXViterator@12@IABV?$basic_string@DU?$char_traits@D@std@@V?$allocator@D@2@@2@@Z
_TEXT	SEGMENT PARA USE32 PUBLIC 'CODE'
_TEXT	ENDS
;	COMDAT ?_Xlen@?$vector@V?$basic_string@DU?$char_traits@D@std@@V?$allocator@D@2@@std@@V?$allocator@V?$basic_string@DU?$char_traits@D@std@@V?$allocator@D@2@@std@@@2@@std@@IBEXXZ
_TEXT	SEGMENT PARA USE32 PUBLIC 'CODE'
_TEXT	ENDS
;	COMDAT ??0iterator@?$vector@V?$basic_string@DU?$char_traits@D@std@@V?$allocator@D@2@@std@@V?$allocator@V?$basic_string@DU?$char_traits@D@std@@V?$allocator@D@2@@std@@@2@@std@@QAE@PAV?$basic_string@DU?$char_traits@D@std@@V?$allocator@D@2@@2@@Z
_TEXT	SEGMENT PARA USE32 PUBLIC 'CODE'
_TEXT	ENDS
;	COMDAT ??Yiterator@?$vector@V?$basic_string@DU?$char_traits@D@std@@V?$allocator@D@2@@std@@V?$allocator@V?$basic_string@DU?$char_traits@D@std@@V?$allocator@D@2@@std@@@2@@std@@QAEAAV012@H@Z
_TEXT	SEGMENT PARA USE32 PUBLIC 'CODE'
_TEXT	ENDS
;	COMDAT ??Giterator@?$vector@V?$basic_string@DU?$char_traits@D@std@@V?$allocator@D@2@@std@@V?$allocator@V?$basic_string@DU?$char_traits@D@std@@V?$allocator@D@2@@std@@@2@@std@@QBEHABVconst_iterator@12@@Z
_TEXT	SEGMENT PARA USE32 PUBLIC 'CODE'
_TEXT	ENDS
;	COMDAT ??Dconst_iterator@?$vector@V?$basic_string@DU?$char_traits@D@std@@V?$allocator@D@2@@std@@V?$allocator@V?$basic_string@DU?$char_traits@D@std@@V?$allocator@D@2@@std@@@2@@std@@QBEABV?$basic_string@DU?$char_traits@D@std@@V?$allocator@D@2@@2@XZ
_TEXT	SEGMENT PARA USE32 PUBLIC 'CODE'
_TEXT	ENDS
;	COMDAT ??0length_error@std@@QAE@ABV01@@Z
_TEXT	SEGMENT PARA USE32 PUBLIC 'CODE'
_TEXT	ENDS
;	COMDAT ?max_size@?$allocator@V?$basic_string@DU?$char_traits@D@std@@V?$allocator@D@2@@std@@@std@@QBEIXZ
_TEXT	SEGMENT PARA USE32 PUBLIC 'CODE'
_TEXT	ENDS
;	COMDAT ??0const_iterator@?$vector@V?$basic_string@DU?$char_traits@D@std@@V?$allocator@D@2@@std@@V?$allocator@V?$basic_string@DU?$char_traits@D@std@@V?$allocator@D@2@@std@@@2@@std@@QAE@PAV?$basic_string@DU?$char_traits@D@std@@V?$allocator@D@2@@2@@Z
_TEXT	SEGMENT PARA USE32 PUBLIC 'CODE'
_TEXT	ENDS
;	COMDAT ??Gconst_iterator@?$vector@V?$basic_string@DU?$char_traits@D@std@@V?$allocator@D@2@@std@@V?$allocator@V?$basic_string@DU?$char_traits@D@std@@V?$allocator@D@2@@std@@@2@@std@@QBEHABV012@@Z
_TEXT	SEGMENT PARA USE32 PUBLIC 'CODE'
_TEXT	ENDS
;	COMDAT ?Unlock@?$CComCritSecLock@VCComCriticalSection@ATL@@@ATL@@QAEXXZ
_TEXT	SEGMENT PARA USE32 PUBLIC 'CODE'
_TEXT	ENDS
;	COMDAT ??$_Uninitialized_fill_n@PAV?$basic_string@DU?$char_traits@D@std@@V?$allocator@D@2@@std@@IV12@V?$allocator@V?$basic_string@DU?$char_traits@D@std@@V?$allocator@D@2@@std@@@2@@std@@YAXPAV?$basic_string@DU?$char_traits@D@std@@V?$allocator@D@2@@0@IABV10@AAV?$allocator@V?$basic_string@DU?$char_traits@D@std@@V?$allocator@D@2@@std@@@0@@Z
_TEXT	SEGMENT PARA USE32 PUBLIC 'CODE'
_TEXT	ENDS
;	COMDAT ??$_Maklocstr@D@std@@YAPADPBDPADABU_Cvtvec@@@Z
_TEXT	SEGMENT PARA USE32 PUBLIC 'CODE'
_TEXT	ENDS
;	COMDAT ??$_Allocate@V?$basic_string@DU?$char_traits@D@std@@V?$allocator@D@2@@std@@@std@@YAPAV?$basic_string@DU?$char_traits@D@std@@V?$allocator@D@2@@0@IPAV10@@Z
_TEXT	SEGMENT PARA USE32 PUBLIC 'CODE'
_TEXT	ENDS
;	COMDAT ??$_Destroy_range@V?$basic_string@DU?$char_traits@D@std@@V?$allocator@D@2@@std@@V?$allocator@V?$basic_string@DU?$char_traits@D@std@@V?$allocator@D@2@@std@@@2@@std@@YAXPAV?$basic_string@DU?$char_traits@D@std@@V?$allocator@D@2@@0@0AAV?$allocator@V?$basic_string@DU?$char_traits@D@std@@V?$allocator@D@2@@std@@@0@@Z
_TEXT	SEGMENT PARA USE32 PUBLIC 'CODE'
_TEXT	ENDS
;	COMDAT ??$_Ucopy@PAV?$basic_string@DU?$char_traits@D@std@@V?$allocator@D@2@@std@@@?$vector@V?$basic_string@DU?$char_traits@D@std@@V?$allocator@D@2@@std@@V?$allocator@V?$basic_string@DU?$char_traits@D@std@@V?$allocator@D@2@@std@@@2@@std@@IAEPAV?$basic_string@DU?$char_traits@D@std@@V?$allocator@D@2@@1@PAV21@00@Z
_TEXT	SEGMENT PARA USE32 PUBLIC 'CODE'
_TEXT	ENDS
;	COMDAT ??$fill@PAV?$basic_string@DU?$char_traits@D@std@@V?$allocator@D@2@@std@@V12@@std@@YAXPAV?$basic_string@DU?$char_traits@D@std@@V?$allocator@D@2@@0@0ABV10@@Z
_TEXT	SEGMENT PARA USE32 PUBLIC 'CODE'
_TEXT	ENDS
;	COMDAT ??$copy_backward@PAV?$basic_string@DU?$char_traits@D@std@@V?$allocator@D@2@@std@@PAV12@@std@@YAPAV?$basic_string@DU?$char_traits@D@std@@V?$allocator@D@2@@0@PAV10@00@Z
_TEXT	SEGMENT PARA USE32 PUBLIC 'CODE'
_TEXT	ENDS
;	COMDAT ??$_Ptr_cat@PAV?$basic_string@DU?$char_traits@D@std@@V?$allocator@D@2@@std@@PAV12@@std@@YA?AU_Nonscalar_ptr_iterator_tag@0@AAPAV?$basic_string@DU?$char_traits@D@std@@V?$allocator@D@2@@0@0@Z
_TEXT	SEGMENT PARA USE32 PUBLIC 'CODE'
_TEXT	ENDS
;	COMDAT ??$_Uninit_fill_n@PAV?$basic_string@DU?$char_traits@D@std@@V?$allocator@D@2@@std@@IV12@V?$allocator@V?$basic_string@DU?$char_traits@D@std@@V?$allocator@D@2@@std@@@2@@std@@YAXPAV?$basic_string@DU?$char_traits@D@std@@V?$allocator@D@2@@0@IABV10@AAV?$allocator@V?$basic_string@DU?$char_traits@D@std@@V?$allocator@D@2@@std@@@0@U_Nonscalar_ptr_iterator_tag@0@@Z
_TEXT	SEGMENT PARA USE32 PUBLIC 'CODE'
_TEXT	ENDS
;	COMDAT ??$_Destroy_range@V?$basic_string@DU?$char_traits@D@std@@V?$allocator@D@2@@std@@V?$allocator@V?$basic_string@DU?$char_traits@D@std@@V?$allocator@D@2@@std@@@2@@std@@YAXPAV?$basic_string@DU?$char_traits@D@std@@V?$allocator@D@2@@0@0AAV?$allocator@V?$basic_string@DU?$char_traits@D@std@@V?$allocator@D@2@@std@@@0@U_Nonscalar_ptr_iterator_tag@0@@Z
_TEXT	SEGMENT PARA USE32 PUBLIC 'CODE'
_TEXT	ENDS
;	COMDAT ??$_Uninitialized_copy@PAV?$basic_string@DU?$char_traits@D@std@@V?$allocator@D@2@@std@@PAV12@V?$allocator@V?$basic_string@DU?$char_traits@D@std@@V?$allocator@D@2@@std@@@2@@std@@YAPAV?$basic_string@DU?$char_traits@D@std@@V?$allocator@D@2@@0@PAV10@00AAV?$allocator@V?$basic_string@DU?$char_traits@D@std@@V?$allocator@D@2@@std@@@0@@Z
_TEXT	SEGMENT PARA USE32 PUBLIC 'CODE'
_TEXT	ENDS
;	COMDAT ??$_Copy_backward_opt@PAV?$basic_string@DU?$char_traits@D@std@@V?$allocator@D@2@@std@@PAV12@@std@@YAPAV?$basic_string@DU?$char_traits@D@std@@V?$allocator@D@2@@0@PAV10@00U_Nonscalar_ptr_iterator_tag@0@@Z
_TEXT	SEGMENT PARA USE32 PUBLIC 'CODE'
_TEXT	ENDS
;	COMDAT ?construct@?$allocator@V?$basic_string@DU?$char_traits@D@std@@V?$allocator@D@2@@std@@@std@@QAEXPAV?$basic_string@DU?$char_traits@D@std@@V?$allocator@D@2@@2@ABV32@@Z
_TEXT	SEGMENT PARA USE32 PUBLIC 'CODE'
_TEXT	ENDS
;	COMDAT ?destroy@?$allocator@V?$basic_string@DU?$char_traits@D@std@@V?$allocator@D@2@@std@@@std@@QAEXPAV?$basic_string@DU?$char_traits@D@std@@V?$allocator@D@2@@2@@Z
_TEXT	SEGMENT PARA USE32 PUBLIC 'CODE'
_TEXT	ENDS
;	COMDAT ??$_Uninit_copy@PAV?$basic_string@DU?$char_traits@D@std@@V?$allocator@D@2@@std@@PAV12@V?$allocator@V?$basic_string@DU?$char_traits@D@std@@V?$allocator@D@2@@std@@@2@@std@@YAPAV?$basic_string@DU?$char_traits@D@std@@V?$allocator@D@2@@0@PAV10@00AAV?$allocator@V?$basic_string@DU?$char_traits@D@std@@V?$allocator@D@2@@std@@@0@U_Nonscalar_ptr_iterator_tag@0@@Z
_TEXT	SEGMENT PARA USE32 PUBLIC 'CODE'
_TEXT	ENDS
;	COMDAT ??$_Construct@V?$basic_string@DU?$char_traits@D@std@@V?$allocator@D@2@@std@@V12@@std@@YAXPAV?$basic_string@DU?$char_traits@D@std@@V?$allocator@D@2@@0@ABV10@@Z
_TEXT	SEGMENT PARA USE32 PUBLIC 'CODE'
_TEXT	ENDS
;	COMDAT ??$_Destroy@V?$basic_string@DU?$char_traits@D@std@@V?$allocator@D@2@@std@@@std@@YAXPAV?$basic_string@DU?$char_traits@D@std@@V?$allocator@D@2@@0@@Z
_TEXT	SEGMENT PARA USE32 PUBLIC 'CODE'
_TEXT	ENDS
;	COMDAT ??_G?$basic_string@DU?$char_traits@D@std@@V?$allocator@D@2@@std@@QAEPAXI@Z
_TEXT	SEGMENT PARA USE32 PUBLIC 'CODE'
_TEXT	ENDS
;	COMDAT ??_R3CxSkinComboBox@@8
rdata$r	SEGMENT DWORD USE32 PUBLIC 'CONST'
rdata$r	ENDS
;	COMDAT ??_R3IData@@8
rdata$r	SEGMENT DWORD USE32 PUBLIC 'CONST'
rdata$r	ENDS
;	COMDAT ??_R3CComboBoxHistory@@8
rdata$r	SEGMENT DWORD USE32 PUBLIC 'CONST'
rdata$r	ENDS
;	COMDAT ??_R3CComboBoxHistoryList@@8
rdata$r	SEGMENT DWORD USE32 PUBLIC 'CONST'
rdata$r	ENDS
;	COMDAT ??_R3CComboBoxEdit@@8
rdata$r	SEGMENT DWORD USE32 PUBLIC 'CONST'
rdata$r	ENDS
;	COMDAT ??_R3?$numpunct@_W@std@@8
rdata$r	SEGMENT DWORD USE32 PUBLIC 'CONST'
rdata$r	ENDS
;	COMDAT ??_R3?$numpunct@D@std@@8
rdata$r	SEGMENT DWORD USE32 PUBLIC 'CONST'
rdata$r	ENDS
;	COMDAT ??_R2CxSkinComboBox@@8
rdata$r	SEGMENT DWORD USE32 PUBLIC 'CONST'
rdata$r	ENDS
;	COMDAT ??_R2IData@@8
rdata$r	SEGMENT DWORD USE32 PUBLIC 'CONST'
rdata$r	ENDS
;	COMDAT ??_R2CComboBoxHistory@@8
rdata$r	SEGMENT DWORD USE32 PUBLIC 'CONST'
rdata$r	ENDS
;	COMDAT ??_R2CComboBoxHistoryList@@8
rdata$r	SEGMENT DWORD USE32 PUBLIC 'CONST'
rdata$r	ENDS
;	COMDAT ??_R2CComboBoxEdit@@8
rdata$r	SEGMENT DWORD USE32 PUBLIC 'CONST'
rdata$r	ENDS
;	COMDAT ??_R2?$numpunct@_W@std@@8
rdata$r	SEGMENT DWORD USE32 PUBLIC 'CONST'
rdata$r	ENDS
;	COMDAT ??_R2?$numpunct@D@std@@8
rdata$r	SEGMENT DWORD USE32 PUBLIC 'CONST'
rdata$r	ENDS
;	COMDAT ??_R1A@?0A@A@CxSkinComboBox@@8
rdata$r	SEGMENT DWORD USE32 PUBLIC 'CONST'
rdata$r	ENDS
;	COMDAT ??_R1A@?0A@A@IData@@8
rdata$r	SEGMENT DWORD USE32 PUBLIC 'CONST'
rdata$r	ENDS
;	COMDAT ??_R1A@?0A@A@CComboBoxHistory@@8
rdata$r	SEGMENT DWORD USE32 PUBLIC 'CONST'
rdata$r	ENDS
;	COMDAT ??_R1A@?0A@A@CListCtrl@@8
rdata$r	SEGMENT DWORD USE32 PUBLIC 'CONST'
rdata$r	ENDS
;	COMDAT ??_R0?AVCListCtrl@@@8
_DATA	SEGMENT DWORD USE32 PUBLIC 'DATA'
_DATA	ENDS
;	COMDAT ??_R1A@?0A@A@CComboBoxHistoryList@@8
rdata$r	SEGMENT DWORD USE32 PUBLIC 'CONST'
rdata$r	ENDS
;	COMDAT ??_R1A@?0A@A@CObject@@8
rdata$r	SEGMENT DWORD USE32 PUBLIC 'CONST'
rdata$r	ENDS
;	COMDAT ??_R0?AVCObject@@@8
_DATA	SEGMENT DWORD USE32 PUBLIC 'DATA'
_DATA	ENDS
;	COMDAT ??_R1A@?0A@A@CCmdTarget@@8
rdata$r	SEGMENT DWORD USE32 PUBLIC 'CONST'
rdata$r	ENDS
;	COMDAT ??_R0?AVCCmdTarget@@@8
_DATA	SEGMENT DWORD USE32 PUBLIC 'DATA'
_DATA	ENDS
;	COMDAT ??_R1A@?0A@A@CWnd@@8
rdata$r	SEGMENT DWORD USE32 PUBLIC 'CONST'
rdata$r	ENDS
;	COMDAT ??_R0?AVCWnd@@@8
_DATA	SEGMENT DWORD USE32 PUBLIC 'DATA'
_DATA	ENDS
;	COMDAT ??_R1A@?0A@A@CEdit@@8
rdata$r	SEGMENT DWORD USE32 PUBLIC 'CONST'
rdata$r	ENDS
;	COMDAT ??_R0?AVCEdit@@@8
_DATA	SEGMENT DWORD USE32 PUBLIC 'DATA'
_DATA	ENDS
;	COMDAT ??_R1A@?0A@A@CComboBoxEdit@@8
rdata$r	SEGMENT DWORD USE32 PUBLIC 'CONST'
rdata$r	ENDS
;	COMDAT ??_R1A@?0A@A@?$numpunct@_W@std@@8
rdata$r	SEGMENT DWORD USE32 PUBLIC 'CONST'
rdata$r	ENDS
;	COMDAT ??_R1A@?0A@A@facet@locale@std@@8
rdata$r	SEGMENT DWORD USE32 PUBLIC 'CONST'
rdata$r	ENDS
;	COMDAT ??_R0?AVfacet@locale@std@@@8
_DATA	SEGMENT DWORD USE32 PUBLIC 'DATA'
_DATA	ENDS
;	COMDAT ??_R1A@?0A@A@?$numpunct@D@std@@8
rdata$r	SEGMENT DWORD USE32 PUBLIC 'CONST'
rdata$r	ENDS
;	COMDAT ??_R0?AVCxSkinComboBox@@@8
_DATA	SEGMENT DWORD USE32 PUBLIC 'DATA'
_DATA	ENDS
;	COMDAT ??_R0?AVIData@@@8
_DATA	SEGMENT DWORD USE32 PUBLIC 'DATA'
_DATA	ENDS
;	COMDAT ??_R0?AVCComboBoxHistory@@@8
_DATA	SEGMENT DWORD USE32 PUBLIC 'DATA'
_DATA	ENDS
;	COMDAT ??_R0?AVCComboBoxHistoryList@@@8
_DATA	SEGMENT DWORD USE32 PUBLIC 'DATA'
_DATA	ENDS
;	COMDAT ??_R0?AVCComboBoxEdit@@@8
_DATA	SEGMENT DWORD USE32 PUBLIC 'DATA'
_DATA	ENDS
;	COMDAT ??_R0?AV?$numpunct@_W@std@@@8
_DATA	SEGMENT DWORD USE32 PUBLIC 'DATA'
_DATA	ENDS
;	COMDAT ??_R0?AV?$numpunct@D@std@@@8
_DATA	SEGMENT DWORD USE32 PUBLIC 'DATA'
_DATA	ENDS
;	COMDAT ??_R4CxSkinComboBox@@6B@
rdata$r	SEGMENT DWORD USE32 PUBLIC 'CONST'
rdata$r	ENDS
;	COMDAT ??_R4IData@@6B@
rdata$r	SEGMENT DWORD USE32 PUBLIC 'CONST'
rdata$r	ENDS
;	COMDAT ??_R4CComboBoxHistory@@6B@
rdata$r	SEGMENT DWORD USE32 PUBLIC 'CONST'
rdata$r	ENDS
;	COMDAT ??_R4CComboBoxHistoryList@@6B@
rdata$r	SEGMENT DWORD USE32 PUBLIC 'CONST'
rdata$r	ENDS
;	COMDAT ?EndModalState@CWnd@@UAEXXZ
_TEXT	SEGMENT PARA USE32 PUBLIC 'CODE'
_TEXT	ENDS
;	COMDAT ?BeginModalState@CWnd@@UAEXXZ
_TEXT	SEGMENT PARA USE32 PUBLIC 'CODE'
_TEXT	ENDS
;	COMDAT ?DoDataExchange@CWnd@@MAEXPAVCDataExchange@@@Z
_TEXT	SEGMENT PARA USE32 PUBLIC 'CODE'
_TEXT	ENDS
;	COMDAT ?Dump@CObject@@UBEXAAVCDumpContext@@@Z
_TEXT	SEGMENT PARA USE32 PUBLIC 'CODE'
_TEXT	ENDS
;	COMDAT ?AssertValid@CObject@@UBEXXZ
_TEXT	SEGMENT PARA USE32 PUBLIC 'CODE'
_TEXT	ENDS
;	COMDAT ?Serialize@CObject@@UAEXAAVCArchive@@@Z
_TEXT	SEGMENT PARA USE32 PUBLIC 'CODE'
_TEXT	ENDS
;	COMDAT ??_R4CComboBoxEdit@@6B@
rdata$r	SEGMENT DWORD USE32 PUBLIC 'CONST'
rdata$r	ENDS
;	COMDAT ??0?$allocator@_W@std@@QAE@XZ
_TEXT	SEGMENT PARA USE32 PUBLIC 'CODE'
_TEXT	ENDS
;	COMDAT ??_G?$numpunct@_W@std@@MAEPAXI@Z
_TEXT	SEGMENT PARA USE32 PUBLIC 'CODE'
_TEXT	ENDS
;	COMDAT ??_R4?$numpunct@_W@std@@6B@
rdata$r	SEGMENT DWORD USE32 PUBLIC 'CONST'
rdata$r	ENDS
;	COMDAT ??_G?$numpunct@D@std@@MAEPAXI@Z
_TEXT	SEGMENT PARA USE32 PUBLIC 'CODE'
_TEXT	ENDS
;	COMDAT ??_R4?$numpunct@D@std@@6B@
rdata$r	SEGMENT DWORD USE32 PUBLIC 'CONST'
rdata$r	ENDS
;	COMDAT ??3@YAXPAX0@Z
_TEXT	SEGMENT PARA USE32 PUBLIC 'CODE'
_TEXT	ENDS
;	COMDAT ??2@YAPAXIPAX@Z
_TEXT	SEGMENT PARA USE32 PUBLIC 'CODE'
_TEXT	ENDS
;	COMDAT ?max_size@?$allocator@D@std@@QBEIXZ
_TEXT	SEGMENT PARA USE32 PUBLIC 'CODE'
_TEXT	ENDS
;	COMDAT ?allocate@?$allocator@D@std@@QAEPADI@Z
_TEXT	SEGMENT PARA USE32 PUBLIC 'CODE'
_TEXT	ENDS
;	COMDAT ??$_Allocate@D@std@@YAPADIPAD@Z
_TEXT	SEGMENT PARA USE32 PUBLIC 'CODE'
_TEXT	ENDS
;	COMDAT ?deallocate@?$allocator@D@std@@QAEXPADI@Z
_TEXT	SEGMENT PARA USE32 PUBLIC 'CODE'
_TEXT	ENDS
;	COMDAT ?_Psave@?$_Facetptr@V?$numpunct@_W@std@@@std@@2PBVfacet@locale@2@B
_DATA	SEGMENT DWORD USE32 PUBLIC 'DATA'
_DATA	ENDS
;	COMDAT ?_Psave@?$_Facetptr@V?$numpunct@D@std@@@std@@2PBVfacet@locale@2@B
_DATA	SEGMENT DWORD USE32 PUBLIC 'DATA'
_DATA	ENDS
;	COMDAT ?Unlock@CComCriticalSection@ATL@@QAEJXZ
_TEXT	SEGMENT PARA USE32 PUBLIC 'CODE'
_TEXT	ENDS
;	COMDAT ?_Psave@?$_Facetptr@V?$ctype@_W@std@@@std@@2PBVfacet@locale@2@B
_DATA	SEGMENT DWORD USE32 PUBLIC 'DATA'
_DATA	ENDS
;	COMDAT ?_Psave@?$_Facetptr@V?$ctype@D@std@@@std@@2PBVfacet@locale@2@B
_DATA	SEGMENT DWORD USE32 PUBLIC 'DATA'
_DATA	ENDS
;	COMDAT ??_7length_error@std@@6B@
CONST	SEGMENT DWORD USE32 PUBLIC 'CONST'
CONST	ENDS
;	COMDAT ??_R4length_error@std@@6B@
rdata$r	SEGMENT DWORD USE32 PUBLIC 'CONST'
rdata$r	ENDS
;	COMDAT ??_R3length_error@std@@8
rdata$r	SEGMENT DWORD USE32 PUBLIC 'CONST'
rdata$r	ENDS
;	COMDAT ??_R2length_error@std@@8
rdata$r	SEGMENT DWORD USE32 PUBLIC 'CONST'
rdata$r	ENDS
;	COMDAT ??_R1A@?0A@A@length_error@std@@8
rdata$r	SEGMENT DWORD USE32 PUBLIC 'CONST'
rdata$r	ENDS
;	COMDAT ??_R1A@?0A@A@logic_error@std@@8
rdata$r	SEGMENT DWORD USE32 PUBLIC 'CONST'
rdata$r	ENDS
;	COMDAT ??_R0?AVlogic_error@std@@@8
_DATA	SEGMENT DWORD USE32 PUBLIC 'DATA'
_DATA	ENDS
;	COMDAT ??_R1A@?0A@A@exception@@8
rdata$r	SEGMENT DWORD USE32 PUBLIC 'CONST'
rdata$r	ENDS
;	COMDAT ??_R0?AVexception@@@8
_DATA	SEGMENT DWORD USE32 PUBLIC 'DATA'
_DATA	ENDS
;	COMDAT ??_Glength_error@std@@UAEPAXI@Z
_TEXT	SEGMENT PARA USE32 PUBLIC 'CODE'
_TEXT	ENDS
;	COMDAT ?what@logic_error@std@@UBEPBDXZ
_TEXT	SEGMENT PARA USE32 PUBLIC 'CODE'
_TEXT	ENDS
;	COMDAT ??1logic_error@std@@UAE@XZ
_TEXT	SEGMENT PARA USE32 PUBLIC 'CODE'
_TEXT	ENDS
;	COMDAT ??_7logic_error@std@@6B@
CONST	SEGMENT DWORD USE32 PUBLIC 'CONST'
CONST	ENDS
;	COMDAT ??_R4logic_error@std@@6B@
rdata$r	SEGMENT DWORD USE32 PUBLIC 'CONST'
rdata$r	ENDS
;	COMDAT ??_R3logic_error@std@@8
rdata$r	SEGMENT DWORD USE32 PUBLIC 'CONST'
rdata$r	ENDS
;	COMDAT ??_R2logic_error@std@@8
rdata$r	SEGMENT DWORD USE32 PUBLIC 'CONST'
rdata$r	ENDS
;	COMDAT ??_Glogic_error@std@@UAEPAXI@Z
_TEXT	SEGMENT PARA USE32 PUBLIC 'CODE'
_TEXT	ENDS
;	COMDAT ??0logic_error@std@@QAE@ABV01@@Z
_TEXT	SEGMENT PARA USE32 PUBLIC 'CODE'
_TEXT	ENDS
;	COMDAT __CTA3?AVlength_error@std@@
xdata$x	SEGMENT DWORD USE32 PUBLIC 'CONST'
xdata$x	ENDS
;	COMDAT ??1length_error@std@@UAE@XZ
_TEXT	SEGMENT PARA USE32 PUBLIC 'CODE'
_TEXT	ENDS
;	COMDAT __CT??_R0?AVexception@@@8??0exception@@QAE@ABV0@@Z12
xdata$x	SEGMENT DWORD USE32 PUBLIC 'CONST'
xdata$x	ENDS
;	COMDAT __CT??_R0?AVlogic_error@std@@@8??0logic_error@std@@QAE@ABV01@@Z40
xdata$x	SEGMENT DWORD USE32 PUBLIC 'CONST'
xdata$x	ENDS
;	COMDAT __CT??_R0?AVlength_error@std@@@8??0length_error@std@@QAE@ABV01@@Z40
xdata$x	SEGMENT DWORD USE32 PUBLIC 'CONST'
xdata$x	ENDS
;	COMDAT ??_R0?AVlength_error@std@@@8
_DATA	SEGMENT DWORD USE32 PUBLIC 'DATA'
_DATA	ENDS
;	COMDAT __TI3?AVlength_error@std@@
xdata$x	SEGMENT DWORD USE32 PUBLIC 'CONST'
xdata$x	ENDS
;	COMDAT ??0length_error@std@@QAE@ABV?$basic_string@DU?$char_traits@D@std@@V?$allocator@D@2@@1@@Z
_TEXT	SEGMENT PARA USE32 PUBLIC 'CODE'
_TEXT	ENDS
;	COMDAT ??0logic_error@std@@QAE@ABV?$basic_string@DU?$char_traits@D@std@@V?$allocator@D@2@@1@@Z
_TEXT	SEGMENT PARA USE32 PUBLIC 'CODE'
_TEXT	ENDS
;	COMDAT ??0?$allocator@D@std@@QAE@ABV01@@Z
_TEXT	SEGMENT PARA USE32 PUBLIC 'CODE'
_TEXT	ENDS
;	COMDAT ??$_Maklocchr@_W@std@@YA_WDPA_WABU_Cvtvec@@@Z
_TEXT	SEGMENT PARA USE32 PUBLIC 'CODE'
_TEXT	ENDS
;	COMDAT ??$_Maklocstr@_W@std@@YAPA_WPBDPA_WABU_Cvtvec@@@Z
_TEXT	SEGMENT PARA USE32 PUBLIC 'CODE'
_TEXT	ENDS
;	COMDAT ??$_Maklocchr@D@std@@YADDPADABU_Cvtvec@@@Z
_TEXT	SEGMENT PARA USE32 PUBLIC 'CODE'
_TEXT	ENDS
;	COMDAT ??_C@_04LOAJBDKD@true?$AA@
CONST	SEGMENT DWORD USE32 PUBLIC 'CONST'
CONST	ENDS
;	COMDAT ??_C@_05LAPONLG@false?$AA@
CONST	SEGMENT DWORD USE32 PUBLIC 'CONST'
CONST	ENDS
;	COMDAT _wmemcpy
_TEXT	SEGMENT PARA USE32 PUBLIC 'CODE'
_TEXT	ENDS
;	COMDAT ?max_size@?$allocator@_W@std@@QBEIXZ
_TEXT	SEGMENT PARA USE32 PUBLIC 'CODE'
_TEXT	ENDS
;	COMDAT ?allocate@?$allocator@_W@std@@QAEPA_WI@Z
_TEXT	SEGMENT PARA USE32 PUBLIC 'CODE'
_TEXT	ENDS
;	COMDAT ??$_Allocate@_W@std@@YAPA_WIPA_W@Z
_TEXT	SEGMENT PARA USE32 PUBLIC 'CODE'
_TEXT	ENDS
;	COMDAT __TI3?AVout_of_range@std@@
xdata$x	SEGMENT DWORD USE32 PUBLIC 'CONST'
xdata$x	ENDS
;	COMDAT ??1out_of_range@std@@UAE@XZ
_TEXT	SEGMENT PARA USE32 PUBLIC 'CODE'
_TEXT	ENDS
;	COMDAT ??_7out_of_range@std@@6B@
CONST	SEGMENT DWORD USE32 PUBLIC 'CONST'
CONST	ENDS
;	COMDAT ??_R4out_of_range@std@@6B@
rdata$r	SEGMENT DWORD USE32 PUBLIC 'CONST'
rdata$r	ENDS
;	COMDAT ??_R0?AVout_of_range@std@@@8
_DATA	SEGMENT DWORD USE32 PUBLIC 'DATA'
_DATA	ENDS
;	COMDAT ??_R3out_of_range@std@@8
rdata$r	SEGMENT DWORD USE32 PUBLIC 'CONST'
rdata$r	ENDS
;	COMDAT ??_R2out_of_range@std@@8
rdata$r	SEGMENT DWORD USE32 PUBLIC 'CONST'
rdata$r	ENDS
;	COMDAT ??_R1A@?0A@A@out_of_range@std@@8
rdata$r	SEGMENT DWORD USE32 PUBLIC 'CONST'
rdata$r	ENDS
;	COMDAT ??_Gout_of_range@std@@UAEPAXI@Z
_TEXT	SEGMENT PARA USE32 PUBLIC 'CODE'
_TEXT	ENDS
;	COMDAT __CTA3?AVout_of_range@std@@
xdata$x	SEGMENT DWORD USE32 PUBLIC 'CONST'
xdata$x	ENDS
;	COMDAT __CT??_R0?AVout_of_range@std@@@8??0out_of_range@std@@QAE@ABV01@@Z40
xdata$x	SEGMENT DWORD USE32 PUBLIC 'CONST'
xdata$x	ENDS
;	COMDAT ??0out_of_range@std@@QAE@ABV01@@Z
_TEXT	SEGMENT PARA USE32 PUBLIC 'CODE'
_TEXT	ENDS
;	COMDAT ??0out_of_range@std@@QAE@ABV?$basic_string@DU?$char_traits@D@std@@V?$allocator@D@2@@1@@Z
_TEXT	SEGMENT PARA USE32 PUBLIC 'CODE'
_TEXT	ENDS
;	COMDAT ??_C@_01GFHCPBMG@C?$AA@
CONST	SEGMENT DWORD USE32 PUBLIC 'CONST'
CONST	ENDS
;	COMDAT ?AtlThrow@ATL@@YGXJ@Z
_TEXT	SEGMENT PARA USE32 PUBLIC 'CODE'
_TEXT	ENDS
;	COMDAT ?IsShared@CStringData@ATL@@QBE_NXZ
_TEXT	SEGMENT PARA USE32 PUBLIC 'CODE'
_TEXT	ENDS
;	COMDAT ?data@CStringData@ATL@@QAEPAXXZ
_TEXT	SEGMENT PARA USE32 PUBLIC 'CODE'
_TEXT	ENDS
;	COMDAT ?Release@CStringData@ATL@@QAEXXZ
_TEXT	SEGMENT PARA USE32 PUBLIC 'CODE'
_TEXT	ENDS
;	COMDAT ?_Peek@?$istreambuf_iterator@_WU?$char_traits@_W@std@@@std@@AAE_WXZ
_TEXT	SEGMENT PARA USE32 PUBLIC 'CODE'
_TEXT	ENDS
;	COMDAT ?_Peek@?$istreambuf_iterator@DU?$char_traits@D@std@@@std@@AAEDXZ
_TEXT	SEGMENT PARA USE32 PUBLIC 'CODE'
_TEXT	ENDS
;	COMDAT ??$use_facet@V?$ctype@_W@std@@@std@@YAABV?$ctype@_W@0@ABVlocale@0@@Z
_TEXT	SEGMENT PARA USE32 PUBLIC 'CODE'
_TEXT	ENDS
;	COMDAT ??_S?$ctype@_W@std@@6B@
CONST	SEGMENT DWORD USE32 PUBLIC 'CONST'
CONST	ENDS
;	COMDAT ??_R4?$ctype@_W@std@@6B@
rdata$r	SEGMENT DWORD USE32 PUBLIC 'CONST'
rdata$r	ENDS
;	COMDAT ??_R0?AV?$ctype@_W@std@@@8
_DATA	SEGMENT DWORD USE32 PUBLIC 'DATA'
_DATA	ENDS
;	COMDAT ??_R3?$ctype@_W@std@@8
rdata$r	SEGMENT DWORD USE32 PUBLIC 'CONST'
rdata$r	ENDS
;	COMDAT ??_R2?$ctype@_W@std@@8
rdata$r	SEGMENT DWORD USE32 PUBLIC 'CONST'
rdata$r	ENDS
;	COMDAT ??_R1A@?0A@A@?$ctype@_W@std@@8
rdata$r	SEGMENT DWORD USE32 PUBLIC 'CONST'
rdata$r	ENDS
;	COMDAT ??_R1A@?0A@A@ctype_base@std@@8
rdata$r	SEGMENT DWORD USE32 PUBLIC 'CONST'
rdata$r	ENDS
;	COMDAT ??_R0?AUctype_base@std@@@8
_DATA	SEGMENT DWORD USE32 PUBLIC 'DATA'
_DATA	ENDS
;	COMDAT ??_G?$ctype@_W@std@@MAEPAXI@Z
_TEXT	SEGMENT PARA USE32 PUBLIC 'CODE'
_TEXT	ENDS
;	COMDAT ??_C@_08EPJLHIJG@bad?5cast?$AA@
CONST	SEGMENT DWORD USE32 PUBLIC 'CONST'
CONST	ENDS
;	COMDAT __TI2?AVbad_cast@@
xdata$x	SEGMENT DWORD USE32 PUBLIC 'CONST'
xdata$x	ENDS
;	COMDAT __CTA2?AVbad_cast@@
xdata$x	SEGMENT DWORD USE32 PUBLIC 'CONST'
xdata$x	ENDS
;	COMDAT __CT??_R0?AVbad_cast@@@8??0bad_cast@@QAE@ABV0@@Z12
xdata$x	SEGMENT DWORD USE32 PUBLIC 'CONST'
xdata$x	ENDS
;	COMDAT ??_R0?AVbad_cast@@@8
_DATA	SEGMENT DWORD USE32 PUBLIC 'DATA'
_DATA	ENDS
;	COMDAT ??$use_facet@V?$ctype@D@std@@@std@@YAABV?$ctype@D@0@ABVlocale@0@@Z
_TEXT	SEGMENT PARA USE32 PUBLIC 'CODE'
_TEXT	ENDS
;	COMDAT ??_S?$ctype@D@std@@6B@
CONST	SEGMENT DWORD USE32 PUBLIC 'CONST'
CONST	ENDS
;	COMDAT ??_R4?$ctype@D@std@@6B@
rdata$r	SEGMENT DWORD USE32 PUBLIC 'CONST'
rdata$r	ENDS
;	COMDAT ??_R0?AV?$ctype@D@std@@@8
_DATA	SEGMENT DWORD USE32 PUBLIC 'DATA'
_DATA	ENDS
;	COMDAT ??_R3?$ctype@D@std@@8
rdata$r	SEGMENT DWORD USE32 PUBLIC 'CONST'
rdata$r	ENDS
;	COMDAT ??_R2?$ctype@D@std@@8
rdata$r	SEGMENT DWORD USE32 PUBLIC 'CONST'
rdata$r	ENDS
;	COMDAT ??_R1A@?0A@A@?$ctype@D@std@@8
rdata$r	SEGMENT DWORD USE32 PUBLIC 'CONST'
rdata$r	ENDS
;	COMDAT ??_G?$ctype@D@std@@MAEPAXI@Z
_TEXT	SEGMENT PARA USE32 PUBLIC 'CODE'
_TEXT	ENDS
;	COMDAT ??_S?$numpunct@_W@std@@6B@
CONST	SEGMENT DWORD USE32 PUBLIC 'CONST'
CONST	ENDS
;	COMDAT ??_S?$numpunct@D@std@@6B@
CONST	SEGMENT DWORD USE32 PUBLIC 'CONST'
CONST	ENDS
;	COMDAT _wmemmove
_TEXT	SEGMENT PARA USE32 PUBLIC 'CODE'
_TEXT	ENDS
;	COMDAT ?deallocate@?$allocator@_W@std@@QAEXPA_WI@Z
_TEXT	SEGMENT PARA USE32 PUBLIC 'CODE'
_TEXT	ENDS
;	COMDAT ??0?$allocator@_W@std@@QAE@ABV01@@Z
_TEXT	SEGMENT PARA USE32 PUBLIC 'CODE'
_TEXT	ENDS
;	COMDAT ?GetParent@CWnd@@QBEPAV1@XZ
_TEXT	SEGMENT PARA USE32 PUBLIC 'CODE'
_TEXT	ENDS
;	COMDAT ??BCWnd@@QBEPAUHWND__@@XZ
_TEXT	SEGMENT PARA USE32 PUBLIC 'CODE'
_TEXT	ENDS
;	COMDAT ?GetDesktopWindow@CWnd@@SGPAV1@XZ
_TEXT	SEGMENT PARA USE32 PUBLIC 'CODE'
_TEXT	ENDS
;	COMDAT ?SetParent@CWnd@@QAEPAV1@PAV1@@Z
_TEXT	SEGMENT PARA USE32 PUBLIC 'CODE'
_TEXT	ENDS
;	COMDAT ?IsWindowVisible@CWnd@@QBEHXZ
_TEXT	SEGMENT PARA USE32 PUBLIC 'CODE'
_TEXT	ENDS
;	COMDAT ?IsLocked@CStringData@ATL@@QBE_NXZ
_TEXT	SEGMENT PARA USE32 PUBLIC 'CODE'
_TEXT	ENDS
;	COMDAT ??0?$allocator@D@std@@QAE@XZ
_TEXT	SEGMENT PARA USE32 PUBLIC 'CODE'
_TEXT	ENDS
;	COMDAT ?FillRect@CDC@@QAEXPBUtagRECT@@PAVCBrush@@@Z
_TEXT	SEGMENT PARA USE32 PUBLIC 'CODE'
_TEXT	ENDS
;	COMDAT ?GetSafeHandle@CGdiObject@@QBEPAXXZ
_TEXT	SEGMENT PARA USE32 PUBLIC 'CODE'
_TEXT	ENDS
;	COMDAT ?CreateSolidBrush@CBrush@@QAEHK@Z
_TEXT	SEGMENT PARA USE32 PUBLIC 'CODE'
_TEXT	ENDS
;	COMDAT ?SetMargins@CEdit@@QAEXII@Z
_TEXT	SEGMENT PARA USE32 PUBLIC 'CODE'
_TEXT	ENDS
;	COMDAT ?CreateFontA@CFont@@QAEHHHHHHEEEEEEEEPBD@Z
_TEXT	SEGMENT PARA USE32 PUBLIC 'CODE'
_TEXT	ENDS
;	COMDAT ?_messageEntries@CxSkinComboBox@@0QBUAFX_MSGMAP_ENTRY@@B
CONST	SEGMENT DWORD USE32 PUBLIC 'CONST'
CONST	ENDS
;	COMDAT ?messageMap@CxSkinComboBox@@1UAFX_MSGMAP@@B
CONST	SEGMENT DWORD USE32 PUBLIC 'CONST'
CONST	ENDS
;	COMDAT ?AfxGetApp@@YGPAVCWinApp@@XZ
_TEXT	SEGMENT PARA USE32 PUBLIC 'CODE'
_TEXT	ENDS
;	COMDAT ?LoadStandardCursor@CWinApp@@QBEPAUHICON__@@PBD@Z
_TEXT	SEGMENT PARA USE32 PUBLIC 'CODE'
_TEXT	ENDS
;	COMDAT ?AfxGetInstanceHandle@@YGPAUHINSTANCE__@@XZ
_TEXT	SEGMENT PARA USE32 PUBLIC 'CODE'
_TEXT	ENDS
;	COMDAT ??1CBrush@@UAE@XZ
_TEXT	SEGMENT PARA USE32 PUBLIC 'CODE'
_TEXT	ENDS
;	COMDAT ??_7CBrush@@6B@
CONST	SEGMENT DWORD USE32 PUBLIC 'CONST'
CONST	ENDS
;	COMDAT ??_R4CBrush@@6B@
rdata$r	SEGMENT DWORD USE32 PUBLIC 'CONST'
rdata$r	ENDS
;	COMDAT ??_R0?AVCBrush@@@8
_DATA	SEGMENT DWORD USE32 PUBLIC 'DATA'
_DATA	ENDS
;	COMDAT ??_R3CBrush@@8
rdata$r	SEGMENT DWORD USE32 PUBLIC 'CONST'
rdata$r	ENDS
;	COMDAT ??_R2CBrush@@8
rdata$r	SEGMENT DWORD USE32 PUBLIC 'CONST'
rdata$r	ENDS
;	COMDAT ??_R1A@?0A@A@CBrush@@8
rdata$r	SEGMENT DWORD USE32 PUBLIC 'CONST'
rdata$r	ENDS
;	COMDAT ??_R1A@?0A@A@CGdiObject@@8
rdata$r	SEGMENT DWORD USE32 PUBLIC 'CONST'
rdata$r	ENDS
;	COMDAT ??_R0?AVCGdiObject@@@8
_DATA	SEGMENT DWORD USE32 PUBLIC 'DATA'
_DATA	ENDS
;	COMDAT ??_GCBrush@@UAEPAXI@Z
_TEXT	SEGMENT PARA USE32 PUBLIC 'CODE'
_TEXT	ENDS
;	COMDAT ??1CGdiObject@@UAE@XZ
_TEXT	SEGMENT PARA USE32 PUBLIC 'CODE'
_TEXT	ENDS
;	COMDAT ??_7CGdiObject@@6B@
CONST	SEGMENT DWORD USE32 PUBLIC 'CONST'
CONST	ENDS
;	COMDAT ??_R4CGdiObject@@6B@
rdata$r	SEGMENT DWORD USE32 PUBLIC 'CONST'
rdata$r	ENDS
;	COMDAT ??_R3CGdiObject@@8
rdata$r	SEGMENT DWORD USE32 PUBLIC 'CONST'
rdata$r	ENDS
;	COMDAT ??_R2CGdiObject@@8
rdata$r	SEGMENT DWORD USE32 PUBLIC 'CONST'
rdata$r	ENDS
;	COMDAT ??_GCGdiObject@@UAEPAXI@Z
_TEXT	SEGMENT PARA USE32 PUBLIC 'CODE'
_TEXT	ENDS
;	COMDAT ??1CObject@@UAE@XZ
_TEXT	SEGMENT PARA USE32 PUBLIC 'CODE'
_TEXT	ENDS
;	COMDAT ??0CBrush@@QAE@XZ
_TEXT	SEGMENT PARA USE32 PUBLIC 'CODE'
_TEXT	ENDS
;	COMDAT ??0CGdiObject@@QAE@XZ
_TEXT	SEGMENT PARA USE32 PUBLIC 'CODE'
_TEXT	ENDS
;	COMDAT ??0CObject@@IAE@XZ
_TEXT	SEGMENT PARA USE32 PUBLIC 'CODE'
_TEXT	ENDS
;	COMDAT ??_7CxSkinComboBox@@6B@
CONST	SEGMENT DWORD USE32 PUBLIC 'CONST'
CONST	ENDS
;	COMDAT ?Height@CRect@@QBEHXZ
_TEXT	SEGMENT PARA USE32 PUBLIC 'CODE'
_TEXT	ENDS
;	COMDAT ?MoveWindow@CWnd@@QAEXPBUtagRECT@@H@Z
_TEXT	SEGMENT PARA USE32 PUBLIC 'CODE'
_TEXT	ENDS
;	COMDAT ?Width@CRect@@QBEHXZ
_TEXT	SEGMENT PARA USE32 PUBLIC 'CODE'
_TEXT	ENDS
;	COMDAT ?SetColumnWidth@CListCtrl@@QAEHHH@Z
_TEXT	SEGMENT PARA USE32 PUBLIC 'CODE'
_TEXT	ENDS
;	COMDAT ?OnShowWindow@CWnd@@IAEXHI@Z
_TEXT	SEGMENT PARA USE32 PUBLIC 'CODE'
_TEXT	ENDS
;	COMDAT ?InsertItem@CListCtrl@@QAEHHPBD@Z
_TEXT	SEGMENT PARA USE32 PUBLIC 'CODE'
_TEXT	ENDS
;	COMDAT ?GetDefaultManager@?$StrTraitMFC_DLL@DV?$ChTraitsCRT@D@ATL@@@@SAPAUIAtlStringMgr@ATL@@XZ
_TEXT	SEGMENT PARA USE32 PUBLIC 'CODE'
_TEXT	ENDS
;	COMDAT ?FindStringResourceInstance@?$StrTraitMFC_DLL@DV?$ChTraitsCRT@D@ATL@@@@SAPAUHINSTANCE__@@I@Z
_TEXT	SEGMENT PARA USE32 PUBLIC 'CODE'
_TEXT	ENDS
;	COMDAT ?AtlGetStringResourceImage@ATL@@YAPBUATLSTRINGRESOURCEIMAGE@1@PAUHINSTANCE__@@I@Z
_TEXT	SEGMENT PARA USE32 PUBLIC 'CODE'
_TEXT	ENDS
;	COMDAT ?_AtlGetStringResourceImage@ATL@@YAPBUATLSTRINGRESOURCEIMAGE@1@PAUHINSTANCE__@@PAUHRSRC__@@I@Z
_TEXT	SEGMENT PARA USE32 PUBLIC 'CODE'
_TEXT	ENDS
;	COMDAT ?GetBaseTypeLength@?$ChTraitsCRT@D@ATL@@SAHPB_WH@Z
_TEXT	SEGMENT PARA USE32 PUBLIC 'CODE'
_TEXT	ENDS
;	COMDAT ?_AtlGetConversionACP@ATL@@YGIXZ
_TEXT	SEGMENT PARA USE32 PUBLIC 'CODE'
_TEXT	ENDS
;	COMDAT ?g_pfnGetThreadACP@ATL@@3P6GIXZA
_DATA	SEGMENT DWORD USE32 PUBLIC 'DATA'
_DATA	ENDS
;	COMDAT ?_AtlGetThreadACPThunk@ATL@@YGIXZ
_TEXT	SEGMENT PARA USE32 PUBLIC 'CODE'
_TEXT	ENDS
;	COMDAT ?_AtlGetThreadACPReal@ATL@@YGIXZ
_TEXT	SEGMENT PARA USE32 PUBLIC 'CODE'
_TEXT	ENDS
;	COMDAT ?_AtlGetThreadACPFake@ATL@@YGIXZ
_TEXT	SEGMENT PARA USE32 PUBLIC 'CODE'
_TEXT	ENDS
;	COMDAT ?InterlockedExchangePointer@@YGPAXPAPAXPAX@Z
_TEXT	SEGMENT PARA USE32 PUBLIC 'CODE'
_TEXT	ENDS
;	COMDAT ?ConvertToBaseType@?$ChTraitsCRT@D@ATL@@SAXPADHPB_WH@Z
_TEXT	SEGMENT PARA USE32 PUBLIC 'CODE'
_TEXT	ENDS
;	COMDAT ?SelectObject@CDC@@QAEPAXPAX@Z
_TEXT	SEGMENT PARA USE32 PUBLIC 'CODE'
_TEXT	ENDS
;	COMDAT ?GetDC@CWnd@@QAEPAVCDC@@XZ
_TEXT	SEGMENT PARA USE32 PUBLIC 'CODE'
_TEXT	ENDS
;	COMDAT ?DeleteAllItems@CListCtrl@@QAEHXZ
_TEXT	SEGMENT PARA USE32 PUBLIC 'CODE'
_TEXT	ENDS
;	COMDAT ??1CPen@@UAE@XZ
_TEXT	SEGMENT PARA USE32 PUBLIC 'CODE'
_TEXT	ENDS
;	COMDAT ??_7CPen@@6B@
CONST	SEGMENT DWORD USE32 PUBLIC 'CONST'
CONST	ENDS
;	COMDAT ??_R4CPen@@6B@
rdata$r	SEGMENT DWORD USE32 PUBLIC 'CONST'
rdata$r	ENDS
;	COMDAT ??_R0?AVCPen@@@8
_DATA	SEGMENT DWORD USE32 PUBLIC 'DATA'
_DATA	ENDS
;	COMDAT ??_R3CPen@@8
rdata$r	SEGMENT DWORD USE32 PUBLIC 'CONST'
rdata$r	ENDS
;	COMDAT ??_R2CPen@@8
rdata$r	SEGMENT DWORD USE32 PUBLIC 'CONST'
rdata$r	ENDS
;	COMDAT ??_R1A@?0A@A@CPen@@8
rdata$r	SEGMENT DWORD USE32 PUBLIC 'CONST'
rdata$r	ENDS
;	COMDAT ??_GCPen@@UAEPAXI@Z
_TEXT	SEGMENT PARA USE32 PUBLIC 'CODE'
_TEXT	ENDS
;	COMDAT ?GetSafeHwnd@CWnd@@QBEPAUHWND__@@XZ
_TEXT	SEGMENT PARA USE32 PUBLIC 'CODE'
_TEXT	ENDS
;	COMDAT ?GetExtendedStyle@CListCtrl@@QAEKXZ
_TEXT	SEGMENT PARA USE32 PUBLIC 'CODE'
_TEXT	ENDS
;	COMDAT ?SetExtendedStyle@CListCtrl@@QAEKK@Z
_TEXT	SEGMENT PARA USE32 PUBLIC 'CODE'
_TEXT	ENDS
;	COMDAT ?SetFont@CWnd@@QAEXPAVCFont@@H@Z
_TEXT	SEGMENT PARA USE32 PUBLIC 'CODE'
_TEXT	ENDS
;	COMDAT ?CreateFontIndirectA@CFont@@QAEHPBUtagLOGFONTA@@@Z
_TEXT	SEGMENT PARA USE32 PUBLIC 'CODE'
_TEXT	ENDS
;	COMDAT ??0CRect@@QAE@HHHH@Z
_TEXT	SEGMENT PARA USE32 PUBLIC 'CODE'
_TEXT	ENDS
;	COMDAT ?_messageEntries@CComboBoxHistory@@0QBUAFX_MSGMAP_ENTRY@@B
CONST	SEGMENT DWORD USE32 PUBLIC 'CONST'
CONST	ENDS
;	COMDAT ?messageMap@CComboBoxHistory@@1UAFX_MSGMAP@@B
CONST	SEGMENT DWORD USE32 PUBLIC 'CONST'
CONST	ENDS
;	COMDAT ??1CFont@@UAE@XZ
_TEXT	SEGMENT PARA USE32 PUBLIC 'CODE'
_TEXT	ENDS
;	COMDAT ??_7CFont@@6B@
CONST	SEGMENT DWORD USE32 PUBLIC 'CONST'
CONST	ENDS
;	COMDAT ??_R4CFont@@6B@
rdata$r	SEGMENT DWORD USE32 PUBLIC 'CONST'
rdata$r	ENDS
;	COMDAT ??_R0?AVCFont@@@8
_DATA	SEGMENT DWORD USE32 PUBLIC 'DATA'
_DATA	ENDS
;	COMDAT ??_R3CFont@@8
rdata$r	SEGMENT DWORD USE32 PUBLIC 'CONST'
rdata$r	ENDS
;	COMDAT ??_R2CFont@@8
rdata$r	SEGMENT DWORD USE32 PUBLIC 'CONST'
rdata$r	ENDS
;	COMDAT ??_R1A@?0A@A@CFont@@8
rdata$r	SEGMENT DWORD USE32 PUBLIC 'CONST'
rdata$r	ENDS
;	COMDAT ??_GCFont@@UAEPAXI@Z
_TEXT	SEGMENT PARA USE32 PUBLIC 'CODE'
_TEXT	ENDS
;	COMDAT ??0CFont@@QAE@XZ
_TEXT	SEGMENT PARA USE32 PUBLIC 'CODE'
_TEXT	ENDS
;	COMDAT ??_7CComboBoxHistory@@6B@
CONST	SEGMENT DWORD USE32 PUBLIC 'CONST'
CONST	ENDS
;	COMDAT ?OnSize@CWnd@@IAEXIHH@Z
_TEXT	SEGMENT PARA USE32 PUBLIC 'CODE'
_TEXT	ENDS
;	COMDAT ?ShowScrollBar@CWnd@@QAEXIH@Z
_TEXT	SEGMENT PARA USE32 PUBLIC 'CODE'
_TEXT	ENDS
;	COMDAT ?OnCreate@CWnd@@IAEHPAUtagCREATESTRUCTA@@@Z
_TEXT	SEGMENT PARA USE32 PUBLIC 'CODE'
_TEXT	ENDS
;	COMDAT ?OnMouseMove@CWnd@@IAEXIVCPoint@@@Z
_TEXT	SEGMENT PARA USE32 PUBLIC 'CODE'
_TEXT	ENDS
;	COMDAT ?SubItemHitTest@CListCtrl@@QAEHPAUtagLVHITTESTINFO@@@Z
_TEXT	SEGMENT PARA USE32 PUBLIC 'CODE'
_TEXT	ENDS
;	COMDAT ??0CPoint@@QAE@XZ
_TEXT	SEGMENT PARA USE32 PUBLIC 'CODE'
_TEXT	ENDS
;	COMDAT ?GetWindowRect@CWnd@@QBEXPAUtagRECT@@@Z
_TEXT	SEGMENT PARA USE32 PUBLIC 'CODE'
_TEXT	ENDS
;	COMDAT ?DrawTextA@CDC@@QAEHABV?$CStringT@DV?$StrTraitMFC_DLL@DV?$ChTraitsCRT@D@ATL@@@@@ATL@@PAUtagRECT@@I@Z
_TEXT	SEGMENT PARA USE32 PUBLIC 'CODE'
_TEXT	ENDS
;	COMDAT ?GetTextExtent@CDC@@QBE?AVCSize@@ABV?$CStringT@DV?$StrTraitMFC_DLL@DV?$ChTraitsCRT@D@ATL@@@@@ATL@@@Z
_TEXT	SEGMENT PARA USE32 PUBLIC 'CODE'
_TEXT	ENDS
;	COMDAT ??0CSize@@QAE@UtagSIZE@@@Z
_TEXT	SEGMENT PARA USE32 PUBLIC 'CODE'
_TEXT	ENDS
;	COMDAT ??0CSize@@QAE@XZ
_TEXT	SEGMENT PARA USE32 PUBLIC 'CODE'
_TEXT	ENDS
;	COMDAT ?AddRef@CStringData@ATL@@QAEXXZ
_TEXT	SEGMENT PARA USE32 PUBLIC 'CODE'
_TEXT	ENDS
;	COMDAT ?GetNextSelectedItem@CListCtrl@@QBEHAAPAU__POSITION@@@Z
_TEXT	SEGMENT PARA USE32 PUBLIC 'CODE'
_TEXT	ENDS
;	COMDAT ?GetNextItem@CListCtrl@@QBEHHH@Z
_TEXT	SEGMENT PARA USE32 PUBLIC 'CODE'
_TEXT	ENDS
;	COMDAT ?GetFirstSelectedItemPosition@CListCtrl@@QBEPAU__POSITION@@XZ
_TEXT	SEGMENT PARA USE32 PUBLIC 'CODE'
_TEXT	ENDS
;	COMDAT ?_messageEntries@CComboBoxHistoryList@@0QBUAFX_MSGMAP_ENTRY@@B
CONST	SEGMENT DWORD USE32 PUBLIC 'CONST'
CONST	ENDS
;	COMDAT ?messageMap@CComboBoxHistoryList@@1UAFX_MSGMAP@@B
CONST	SEGMENT DWORD USE32 PUBLIC 'CONST'
CONST	ENDS
;	COMDAT ??_7CComboBoxHistoryList@@6B@
CONST	SEGMENT DWORD USE32 PUBLIC 'CONST'
CONST	ENDS
;	COMDAT ??0CListCtrl@@QAE@XZ
_TEXT	SEGMENT PARA USE32 PUBLIC 'CODE'
_TEXT	ENDS
;	COMDAT ??_7CListCtrl@@6B@
CONST	SEGMENT DWORD USE32 PUBLIC 'CONST'
CONST	ENDS
;	COMDAT ??_R4CListCtrl@@6B@
rdata$r	SEGMENT DWORD USE32 PUBLIC 'CONST'
rdata$r	ENDS
;	COMDAT ??_R3CListCtrl@@8
rdata$r	SEGMENT DWORD USE32 PUBLIC 'CONST'
rdata$r	ENDS
;	COMDAT ??_R2CListCtrl@@8
rdata$r	SEGMENT DWORD USE32 PUBLIC 'CONST'
rdata$r	ENDS
;	COMDAT ??_GCListCtrl@@UAEPAXI@Z
_TEXT	SEGMENT PARA USE32 PUBLIC 'CODE'
_TEXT	ENDS
;	COMDAT ?classCComboBoxHistoryList@CComboBoxHistoryList@@2UCRuntimeClass@@B
CONST	SEGMENT DWORD USE32 PUBLIC 'CONST'
CONST	ENDS
;	COMDAT ??BCRect@@QAEPAUtagRECT@@XZ
_TEXT	SEGMENT PARA USE32 PUBLIC 'CODE'
_TEXT	ENDS
;	COMDAT ?DrawTextA@CDC@@UAEHPBDHPAUtagRECT@@I@Z
_TEXT	SEGMENT PARA USE32 PUBLIC 'CODE'
_TEXT	ENDS
;	COMDAT ?GetFont@CWnd@@QBEPAVCFont@@XZ
_TEXT	SEGMENT PARA USE32 PUBLIC 'CODE'
_TEXT	ENDS
;	COMDAT ?FromHandle@CFont@@SGPAV1@PAUHFONT__@@@Z
_TEXT	SEGMENT PARA USE32 PUBLIC 'CODE'
_TEXT	ENDS
;	COMDAT ?OffsetRect@CRect@@QAEXHH@Z
_TEXT	SEGMENT PARA USE32 PUBLIC 'CODE'
_TEXT	ENDS
;	COMDAT ?GetClientRect@CWnd@@QBEXPAUtagRECT@@@Z
_TEXT	SEGMENT PARA USE32 PUBLIC 'CODE'
_TEXT	ENDS
;	COMDAT ??0CRect@@QAE@XZ
_TEXT	SEGMENT PARA USE32 PUBLIC 'CODE'
_TEXT	ENDS
;	COMDAT ?OnLButtonDblClk@CWnd@@IAEXIVCPoint@@@Z
_TEXT	SEGMENT PARA USE32 PUBLIC 'CODE'
_TEXT	ENDS
;	COMDAT ?SetSel@CEdit@@QAEXHHH@Z
_TEXT	SEGMENT PARA USE32 PUBLIC 'CODE'
_TEXT	ENDS
;	COMDAT ?OnLButtonDown@CWnd@@IAEXIVCPoint@@@Z
_TEXT	SEGMENT PARA USE32 PUBLIC 'CODE'
_TEXT	ENDS
;	COMDAT ?SendMessageA@CWnd@@QAEJIIJ@Z
_TEXT	SEGMENT PARA USE32 PUBLIC 'CODE'
_TEXT	ENDS
;	COMDAT ??3CObject@@SGXPAX@Z
_TEXT	SEGMENT PARA USE32 PUBLIC 'CODE'
_TEXT	ENDS
;	COMDAT ??_7CComboBoxEdit@@6B@
CONST	SEGMENT DWORD USE32 PUBLIC 'CONST'
CONST	ENDS
;	COMDAT ??0CEdit@@QAE@XZ
_TEXT	SEGMENT PARA USE32 PUBLIC 'CODE'
_TEXT	ENDS
;	COMDAT ??_7CEdit@@6B@
CONST	SEGMENT DWORD USE32 PUBLIC 'CONST'
CONST	ENDS
;	COMDAT ??_R4CEdit@@6B@
rdata$r	SEGMENT DWORD USE32 PUBLIC 'CONST'
rdata$r	ENDS
;	COMDAT ??_R3CEdit@@8
rdata$r	SEGMENT DWORD USE32 PUBLIC 'CONST'
rdata$r	ENDS
;	COMDAT ??_R2CEdit@@8
rdata$r	SEGMENT DWORD USE32 PUBLIC 'CONST'
rdata$r	ENDS
;	COMDAT ??_GCEdit@@UAEPAXI@Z
_TEXT	SEGMENT PARA USE32 PUBLIC 'CODE'
_TEXT	ENDS
;	COMDAT ?_messageEntries@CComboBoxEdit@@0QBUAFX_MSGMAP_ENTRY@@B
CONST	SEGMENT DWORD USE32 PUBLIC 'CONST'
CONST	ENDS
;	COMDAT ?messageMap@CComboBoxEdit@@1UAFX_MSGMAP@@B
CONST	SEGMENT DWORD USE32 PUBLIC 'CONST'
CONST	ENDS
;	COMDAT ??_7IData@@6B@
CONST	SEGMENT DWORD USE32 PUBLIC 'CONST'
CONST	ENDS
sxdata	SEGMENT DWORD USE32 'SXDATA'
sxdata	ENDS
FLAT	GROUP _DATA, CONST, _BSS
	ASSUME	CS: FLAT, DS: FLAT, SS: FLAT
endif

INCLUDELIB MSVCRT
INCLUDELIB OLDNAMES

PUBLIC	?_messageEntries@CComboBoxEdit@@0QBUAFX_MSGMAP_ENTRY@@B ; CComboBoxEdit::_messageEntries
PUBLIC	?messageMap@CComboBoxEdit@@1UAFX_MSGMAP@@B	; CComboBoxEdit::messageMap
PUBLIC	?OnLButtonDown@CComboBoxEdit@@IAEXIVCPoint@@@Z	; CComboBoxEdit::OnLButtonDown
PUBLIC	?OnLButtonDblClk@CComboBoxEdit@@IAEXIVCPoint@@@Z ; CComboBoxEdit::OnLButtonDblClk
PUBLIC	?OnPaint@CComboBoxEdit@@IAEXXZ			; CComboBoxEdit::OnPaint
PUBLIC	?classCComboBoxHistoryList@CComboBoxHistoryList@@2UCRuntimeClass@@B ; CComboBoxHistoryList::classCComboBoxHistoryList
PUBLIC	?_messageEntries@CComboBoxHistoryList@@0QBUAFX_MSGMAP_ENTRY@@B ; CComboBoxHistoryList::_messageEntries
PUBLIC	?messageMap@CComboBoxHistoryList@@1UAFX_MSGMAP@@B ; CComboBoxHistoryList::messageMap
PUBLIC	?OnNMCustomdraw@CComboBoxHistoryList@@IAEXPAUtagNMHDR@@PAJ@Z ; CComboBoxHistoryList::OnNMCustomdraw
PUBLIC	?OnMouseMove@CComboBoxHistoryList@@IAEXIVCPoint@@@Z ; CComboBoxHistoryList::OnMouseMove
PUBLIC	?OnDestroy@CComboBoxHistoryList@@IAEXXZ		; CComboBoxHistoryList::OnDestroy
PUBLIC	?OnCoolSBCustomdraw@CComboBoxHistoryList@@IAEXPAUtagNMHDR@@PAJ@Z ; CComboBoxHistoryList::OnCoolSBCustomdraw
PUBLIC	?OnCreate@CComboBoxHistoryList@@IAEHPAUtagCREATESTRUCTA@@@Z ; CComboBoxHistoryList::OnCreate
PUBLIC	?OnSize@CComboBoxHistoryList@@IAEXIHH@Z		; CComboBoxHistoryList::OnSize
PUBLIC	?OnLButtonDown@CComboBoxHistoryList@@IAEXIVCPoint@@@Z ; CComboBoxHistoryList::OnLButtonDown
PUBLIC	?OnEraseBkgnd@CComboBoxHistoryList@@IAEHPAVCDC@@@Z ; CComboBoxHistoryList::OnEraseBkgnd
PUBLIC	?_messageEntries@CComboBoxHistory@@0QBUAFX_MSGMAP_ENTRY@@B ; CComboBoxHistory::_messageEntries
PUBLIC	?messageMap@CComboBoxHistory@@1UAFX_MSGMAP@@B	; CComboBoxHistory::messageMap
PUBLIC	?OnCreate@CComboBoxHistory@@IAEHPAUtagCREATESTRUCTA@@@Z ; CComboBoxHistory::OnCreate
PUBLIC	?OnShowWindow@CComboBoxHistory@@IAEXHI@Z	; CComboBoxHistory::OnShowWindow
PUBLIC	?OnEraseBkgnd@CComboBoxHistory@@IAEHPAVCDC@@@Z	; CComboBoxHistory::OnEraseBkgnd
PUBLIC	?_messageEntries@CxSkinComboBox@@0QBUAFX_MSGMAP_ENTRY@@B ; CxSkinComboBox::_messageEntries
PUBLIC	?messageMap@CxSkinComboBox@@1UAFX_MSGMAP@@B	; CxSkinComboBox::messageMap
PUBLIC	?OnCreate@CxSkinComboBox@@IAEHPAUtagCREATESTRUCTA@@@Z ; CxSkinComboBox::OnCreate
PUBLIC	?OnSize@CxSkinComboBox@@IAEXIHH@Z		; CxSkinComboBox::OnSize
PUBLIC	?OnShowWindow@CxSkinComboBox@@IAEXHI@Z		; CxSkinComboBox::OnShowWindow
PUBLIC	?OnEraseBkgnd@CxSkinComboBox@@IAEHPAVCDC@@@Z	; CxSkinComboBox::OnEraseBkgnd
PUBLIC	?OnListClicked@CxSkinComboBox@@IAEJIJ@Z		; CxSkinComboBox::OnListClicked
PUBLIC	?OnEditClicked@CxSkinComboBox@@IAEJIJ@Z		; CxSkinComboBox::OnEditClicked
PUBLIC	?g_pfnGetThreadACP@ATL@@3P6GIXZA		; ATL::g_pfnGetThreadACP
PUBLIC	?_AtlGetThreadACPThunk@ATL@@YGIXZ		; ATL::_AtlGetThreadACPThunk
EXTRN	?GetThisMessageMap@CWnd@@KGPBUAFX_MSGMAP@@XZ:NEAR ; CWnd::GetThisMessageMap
EXTRN	?GetThisMessageMap@CListCtrl@@KGPBUAFX_MSGMAP@@XZ:NEAR ; CListCtrl::GetThisMessageMap
EXTRN	?GetThisClass@CListCtrl@@SGPAUCRuntimeClass@@XZ:NEAR ; CListCtrl::GetThisClass
;	COMDAT ?_messageEntries@CComboBoxEdit@@0QBUAFX_MSGMAP_ENTRY@@B
CONST	SEGMENT
?_messageEntries@CComboBoxEdit@@0QBUAFX_MSGMAP_ENTRY@@B DD 0201H ; CComboBoxEdit::_messageEntries
	DD	00H
	DD	00H
	DD	00H
	DD	032H
	DD	FLAT:?OnLButtonDown@CComboBoxEdit@@IAEXIVCPoint@@@Z
	DD	0203H
	DD	00H
	DD	00H
	DD	00H
	DD	032H
	DD	FLAT:?OnLButtonDblClk@CComboBoxEdit@@IAEXIVCPoint@@@Z
	DD	0fH
	DD	00H
	DD	00H
	DD	00H
	DD	010H
	DD	FLAT:?OnPaint@CComboBoxEdit@@IAEXXZ
	DD	00H
	DD	00H
	DD	00H
	DD	00H
	DD	00H
	DD	00H
CONST	ENDS
;	COMDAT ?messageMap@CComboBoxEdit@@1UAFX_MSGMAP@@B
CONST	SEGMENT
?messageMap@CComboBoxEdit@@1UAFX_MSGMAP@@B DD FLAT:?GetThisMessageMap@CWnd@@KGPBUAFX_MSGMAP@@XZ ; CComboBoxEdit::messageMap
	DD	FLAT:?_messageEntries@CComboBoxEdit@@0QBUAFX_MSGMAP_ENTRY@@B
CONST	ENDS
CONST	SEGMENT
$SG198298 DB	'CComboBoxHistoryList', 00H
CONST	ENDS
;	COMDAT ?classCComboBoxHistoryList@CComboBoxHistoryList@@2UCRuntimeClass@@B
CONST	SEGMENT
?classCComboBoxHistoryList@CComboBoxHistoryList@@2UCRuntimeClass@@B DD FLAT:$SG198298 ; CComboBoxHistoryList::classCComboBoxHistoryList
	DD	070H
	DD	0ffffH
	DD	00H
	DD	FLAT:?GetThisClass@CListCtrl@@SGPAUCRuntimeClass@@XZ
	DD	00H
	DD	00H
CONST	ENDS
;	COMDAT ?_messageEntries@CComboBoxHistoryList@@0QBUAFX_MSGMAP_ENTRY@@B
CONST	SEGMENT
?_messageEntries@CComboBoxHistoryList@@0QBUAFX_MSGMAP_ENTRY@@B DD 0bc4eH ; CComboBoxHistoryList::_messageEntries
	DD	0fff4H
	DD	00H
	DD	00H
	DD	039H
	DD	FLAT:?OnNMCustomdraw@CComboBoxHistoryList@@IAEXPAUtagNMHDR@@PAJ@Z
	DD	0200H
	DD	00H
	DD	00H
	DD	00H
	DD	032H
	DD	FLAT:?OnMouseMove@CComboBoxHistoryList@@IAEXIVCPoint@@@Z
	DD	0bc4eH
	DD	0f001H
	DD	00H
	DD	00H
	DD	039H
	DD	FLAT:?OnCoolSBCustomdraw@CComboBoxHistoryList@@IAEXPAUtagNMHDR@@PAJ@Z
	DD	01H
	DD	00H
	DD	00H
	DD	00H
	DD	0dH
	DD	FLAT:?OnCreate@CComboBoxHistoryList@@IAEHPAUtagCREATESTRUCTA@@@Z
	DD	02H
	DD	00H
	DD	00H
	DD	00H
	DD	010H
	DD	FLAT:?OnDestroy@CComboBoxHistoryList@@IAEXXZ
	DD	05H
	DD	00H
	DD	00H
	DD	00H
	DD	016H
	DD	FLAT:?OnSize@CComboBoxHistoryList@@IAEXIHH@Z
	DD	0201H
	DD	00H
	DD	00H
	DD	00H
	DD	032H
	DD	FLAT:?OnLButtonDown@CComboBoxHistoryList@@IAEXIVCPoint@@@Z
	DD	014H
	DD	00H
	DD	00H
	DD	00H
	DD	01H
	DD	FLAT:?OnEraseBkgnd@CComboBoxHistoryList@@IAEHPAVCDC@@@Z
	DD	00H
	DD	00H
	DD	00H
	DD	00H
	DD	00H
	DD	00H
CONST	ENDS
;	COMDAT ?messageMap@CComboBoxHistoryList@@1UAFX_MSGMAP@@B
CONST	SEGMENT
?messageMap@CComboBoxHistoryList@@1UAFX_MSGMAP@@B DD FLAT:?GetThisMessageMap@CListCtrl@@KGPBUAFX_MSGMAP@@XZ ; CComboBoxHistoryList::messageMap
	DD	FLAT:?_messageEntries@CComboBoxHistoryList@@0QBUAFX_MSGMAP_ENTRY@@B
CONST	ENDS
;	COMDAT ?_messageEntries@CComboBoxHistory@@0QBUAFX_MSGMAP_ENTRY@@B
CONST	SEGMENT
?_messageEntries@CComboBoxHistory@@0QBUAFX_MSGMAP_ENTRY@@B DD 01H ; CComboBoxHistory::_messageEntries
	DD	00H
	DD	00H
	DD	00H
	DD	0dH
	DD	FLAT:?OnCreate@CComboBoxHistory@@IAEHPAUtagCREATESTRUCTA@@@Z
	DD	018H
	DD	00H
	DD	00H
	DD	00H
	DD	012H
	DD	FLAT:?OnShowWindow@CComboBoxHistory@@IAEXHI@Z
	DD	014H
	DD	00H
	DD	00H
	DD	00H
	DD	01H
	DD	FLAT:?OnEraseBkgnd@CComboBoxHistory@@IAEHPAVCDC@@@Z
	DD	00H
	DD	00H
	DD	00H
	DD	00H
	DD	00H
	DD	00H
CONST	ENDS
;	COMDAT ?messageMap@CComboBoxHistory@@1UAFX_MSGMAP@@B
CONST	SEGMENT
?messageMap@CComboBoxHistory@@1UAFX_MSGMAP@@B DD FLAT:?GetThisMessageMap@CWnd@@KGPBUAFX_MSGMAP@@XZ ; CComboBoxHistory::messageMap
	DD	FLAT:?_messageEntries@CComboBoxHistory@@0QBUAFX_MSGMAP_ENTRY@@B
CONST	ENDS
CONST	SEGMENT
	ORG $+3
$SG198546 DB	0cbH, 0ceH, 0ccH, 0e5H, 00H
$SG198547 DB	00H
	ORG $+2
$SG198565 DB	0cbH, 0ceH, 0ccH, 0e5H, 00H
	ORG $+3
$SG198612 DB	'MFCxSkinComboBoxCtrl', 00H
	ORG $+3
$SG198617 DB	'MFCxSkinComboBoxCtrl', 00H
$SG198630 DB	00H
	ORG $+2
$SG198631 DB	'MFCxSkinComboBoxCtrl', 00H
CONST	ENDS
;	COMDAT ?_messageEntries@CxSkinComboBox@@0QBUAFX_MSGMAP_ENTRY@@B
CONST	SEGMENT
?_messageEntries@CxSkinComboBox@@0QBUAFX_MSGMAP_ENTRY@@B DD 01H ; CxSkinComboBox::_messageEntries
	DD	00H
	DD	00H
	DD	00H
	DD	0dH
	DD	FLAT:?OnCreate@CxSkinComboBox@@IAEHPAUtagCREATESTRUCTA@@@Z
	DD	05H
	DD	00H
	DD	00H
	DD	00H
	DD	016H
	DD	FLAT:?OnSize@CxSkinComboBox@@IAEXIHH@Z
	DD	018H
	DD	00H
	DD	00H
	DD	00H
	DD	012H
	DD	FLAT:?OnShowWindow@CxSkinComboBox@@IAEXHI@Z
	DD	014H
	DD	00H
	DD	00H
	DD	00H
	DD	01H
	DD	FLAT:?OnEraseBkgnd@CxSkinComboBox@@IAEHPAVCDC@@@Z
	DD	0465H
	DD	00H
	DD	00H
	DD	00H
	DD	0eH
	DD	FLAT:?OnListClicked@CxSkinComboBox@@IAEJIJ@Z
	DD	0466H
	DD	00H
	DD	00H
	DD	00H
	DD	0eH
	DD	FLAT:?OnEditClicked@CxSkinComboBox@@IAEJIJ@Z
	DD	00H
	DD	00H
	DD	00H
	DD	00H
	DD	00H
	DD	00H
CONST	ENDS
;	COMDAT ?messageMap@CxSkinComboBox@@1UAFX_MSGMAP@@B
CONST	SEGMENT
?messageMap@CxSkinComboBox@@1UAFX_MSGMAP@@B DD FLAT:?GetThisMessageMap@CWnd@@KGPBUAFX_MSGMAP@@XZ ; CxSkinComboBox::messageMap
	DD	FLAT:?_messageEntries@CxSkinComboBox@@0QBUAFX_MSGMAP_ENTRY@@B
CONST	ENDS
CONST	SEGMENT
	ORG $+3
$SG198673 DB	0cbH, 0ceH, 0ccH, 0e5H, 00H
CONST	ENDS
;	COMDAT ?g_pfnGetThreadACP@ATL@@3P6GIXZA
_DATA	SEGMENT
?g_pfnGetThreadACP@ATL@@3P6GIXZA DD FLAT:?_AtlGetThreadACPThunk@ATL@@YGIXZ ; ATL::g_pfnGetThreadACP
_DATA	ENDS
PUBLIC	??0COMBOBOXSKIN@@QAE@XZ				; COMBOBOXSKIN::COMBOBOXSKIN
; Function compile flags: /Odt
; File d:\boxgit\playbox\playbox\dev\prj\playbox\src\gui\commoncontrol\xskincombobox.cpp
_TEXT	SEGMENT
_this$ = -4						; size = 4
??0COMBOBOXSKIN@@QAE@XZ PROC NEAR			; COMBOBOXSKIN::COMBOBOXSKIN
; _this$ = ecx

; 18   : {

  00000	55		 push	 ebp
  00001	8b ec		 mov	 ebp, esp
  00003	51		 push	 ecx
  00004	89 4d fc	 mov	 DWORD PTR _this$[ebp], ecx
  00007	8b 45 fc	 mov	 eax, DWORD PTR _this$[ebp]
  0000a	c7 00 00 00 00
	00		 mov	 DWORD PTR [eax], 0
  00010	8b 4d fc	 mov	 ecx, DWORD PTR _this$[ebp]
  00013	c7 41 04 00 00
	00 00		 mov	 DWORD PTR [ecx+4], 0
  0001a	8b 55 fc	 mov	 edx, DWORD PTR _this$[ebp]
  0001d	c7 42 08 00 00
	00 00		 mov	 DWORD PTR [edx+8], 0
  00024	8b 45 fc	 mov	 eax, DWORD PTR _this$[ebp]
  00027	c7 40 0c 00 00
	00 00		 mov	 DWORD PTR [eax+12], 0
  0002e	8b 4d fc	 mov	 ecx, DWORD PTR _this$[ebp]
  00031	c7 41 10 00 00
	00 00		 mov	 DWORD PTR [ecx+16], 0
  00038	8b 55 fc	 mov	 edx, DWORD PTR _this$[ebp]
  0003b	c7 42 14 ff ff
	ff 00		 mov	 DWORD PTR [edx+20], 16777215 ; 00ffffffH
  00042	8b 45 fc	 mov	 eax, DWORD PTR _this$[ebp]
  00045	c7 40 18 ff ff
	ff 00		 mov	 DWORD PTR [eax+24], 16777215 ; 00ffffffH
  0004c	8b 4d fc	 mov	 ecx, DWORD PTR _this$[ebp]
  0004f	c7 41 24 31 6a
	c5 00		 mov	 DWORD PTR [ecx+36], 12937777 ; 00c56a31H
  00056	8b 55 fc	 mov	 edx, DWORD PTR _this$[ebp]
  00059	c7 42 28 0c 00
	00 00		 mov	 DWORD PTR [edx+40], 12	; 0000000cH

; 19   : }

  00060	8b 45 fc	 mov	 eax, DWORD PTR _this$[ebp]
  00063	8b e5		 mov	 esp, ebp
  00065	5d		 pop	 ebp
  00066	c3		 ret	 0
??0COMBOBOXSKIN@@QAE@XZ ENDP				; COMBOBOXSKIN::COMBOBOXSKIN
_TEXT	ENDS
PUBLIC	?GetThisMessageMap@CComboBoxEdit@@KGPBUAFX_MSGMAP@@XZ ; CComboBoxEdit::GetThisMessageMap
; Function compile flags: /Odt
_TEXT	SEGMENT
?GetThisMessageMap@CComboBoxEdit@@KGPBUAFX_MSGMAP@@XZ PROC NEAR ; CComboBoxEdit::GetThisMessageMap

; 23   : BEGIN_MESSAGE_MAP(CComboBoxEdit, CEdit)

  00070	55		 push	 ebp
  00071	8b ec		 mov	 ebp, esp
  00073	b8 00 00 00 00	 mov	 eax, OFFSET FLAT:?messageMap@CComboBoxEdit@@1UAFX_MSGMAP@@B ; CComboBoxEdit::messageMap
  00078	5d		 pop	 ebp
  00079	c3		 ret	 0
?GetThisMessageMap@CComboBoxEdit@@KGPBUAFX_MSGMAP@@XZ ENDP ; CComboBoxEdit::GetThisMessageMap
_TEXT	ENDS
PUBLIC	?GetMessageMap@CComboBoxEdit@@MBEPBUAFX_MSGMAP@@XZ ; CComboBoxEdit::GetMessageMap
; Function compile flags: /Odt
_TEXT	SEGMENT
_this$ = -4						; size = 4
?GetMessageMap@CComboBoxEdit@@MBEPBUAFX_MSGMAP@@XZ PROC NEAR ; CComboBoxEdit::GetMessageMap
; _this$ = ecx

; 23   : BEGIN_MESSAGE_MAP(CComboBoxEdit, CEdit)

  00080	55		 push	 ebp
  00081	8b ec		 mov	 ebp, esp
  00083	51		 push	 ecx
  00084	89 4d fc	 mov	 DWORD PTR _this$[ebp], ecx
  00087	b8 00 00 00 00	 mov	 eax, OFFSET FLAT:?messageMap@CComboBoxEdit@@1UAFX_MSGMAP@@B ; CComboBoxEdit::messageMap
  0008c	8b e5		 mov	 esp, ebp
  0008e	5d		 pop	 ebp
  0008f	c3		 ret	 0
?GetMessageMap@CComboBoxEdit@@MBEPBUAFX_MSGMAP@@XZ ENDP	; CComboBoxEdit::GetMessageMap
_TEXT	ENDS
PUBLIC	??0CComboBoxEdit@@QAE@XZ			; CComboBoxEdit::CComboBoxEdit
PUBLIC	?OnChildNotify@CComboBoxEdit@@MAEHIIJPAJ@Z	; CComboBoxEdit::OnChildNotify
PUBLIC	??_7CComboBoxEdit@@6B@				; CComboBoxEdit::`vftable'
PUBLIC	??_GCComboBoxEdit@@UAEPAXI@Z			; CComboBoxEdit::`scalar deleting destructor'
PUBLIC	??_R1A@?0A@A@CObject@@8				; CObject::`RTTI Base Class Descriptor at (0,-1,0,0)'
PUBLIC	??_R0?AVCObject@@@8				; CObject `RTTI Type Descriptor'
PUBLIC	??_R1A@?0A@A@CWnd@@8				; CWnd::`RTTI Base Class Descriptor at (0,-1,0,0)'
PUBLIC	??_R0?AVCWnd@@@8				; CWnd `RTTI Type Descriptor'
PUBLIC	??_R1A@?0A@A@CCmdTarget@@8			; CCmdTarget::`RTTI Base Class Descriptor at (0,-1,0,0)'
PUBLIC	??_R0?AVCCmdTarget@@@8				; CCmdTarget `RTTI Type Descriptor'
PUBLIC	?Serialize@CObject@@UAEXAAVCArchive@@@Z		; CObject::Serialize
PUBLIC	?AssertValid@CObject@@UBEXXZ			; CObject::AssertValid
PUBLIC	?Dump@CObject@@UBEXAAVCDumpContext@@@Z		; CObject::Dump
PUBLIC	??_R0?AVCEdit@@@8				; CEdit `RTTI Type Descriptor'
PUBLIC	??_R1A@?0A@A@CEdit@@8				; CEdit::`RTTI Base Class Descriptor at (0,-1,0,0)'
PUBLIC	??0CEdit@@QAE@XZ				; CEdit::CEdit
PUBLIC	??_R4CComboBoxEdit@@6B@				; CComboBoxEdit::`RTTI Complete Object Locator'
PUBLIC	??_R0?AVCComboBoxEdit@@@8			; CComboBoxEdit `RTTI Type Descriptor'
PUBLIC	??_R3CComboBoxEdit@@8				; CComboBoxEdit::`RTTI Class Hierarchy Descriptor'
PUBLIC	??_R2CComboBoxEdit@@8				; CComboBoxEdit::`RTTI Base Class Array'
PUBLIC	??_R1A@?0A@A@CComboBoxEdit@@8			; CComboBoxEdit::`RTTI Base Class Descriptor at (0,-1,0,0)'
PUBLIC	?DoDataExchange@CWnd@@MAEXPAVCDataExchange@@@Z	; CWnd::DoDataExchange
PUBLIC	?BeginModalState@CWnd@@UAEXXZ			; CWnd::BeginModalState
PUBLIC	?EndModalState@CWnd@@UAEXXZ			; CWnd::EndModalState
EXTRN	?CreateControlContainer@CWnd@@MAEHPAPAVCOleControlContainer@@@Z:NEAR ; CWnd::CreateControlContainer
EXTRN	?CreateControlSite@CWnd@@MAEHPAVCOleControlContainer@@PAPAVCOleControlSite@@IABU_GUID@@@Z:NEAR ; CWnd::CreateControlSite
EXTRN	?SetOccDialogInfo@CWnd@@MAEHPAU_AFX_OCC_DIALOG_INFO@@@Z:NEAR ; CWnd::SetOccDialogInfo
EXTRN	??_ECComboBoxEdit@@UAEPAXI@Z:NEAR		; CComboBoxEdit::`vector deleting destructor'
EXTRN	?OnToolHitTest@CWnd@@UBEHVCPoint@@PAUtagTOOLINFOA@@@Z:NEAR ; CWnd::OnToolHitTest
EXTRN	?GetScrollBarCtrl@CWnd@@UBEPAVCScrollBar@@H@Z:NEAR ; CWnd::GetScrollBarCtrl
EXTRN	?WinHelpA@CWnd@@UAEXKI@Z:NEAR			; CWnd::WinHelpA
EXTRN	?HtmlHelpA@CWnd@@UAEXKI@Z:NEAR			; CWnd::HtmlHelpA
EXTRN	?WinHelpInternal@CWnd@@UAEXKI@Z:NEAR		; CWnd::WinHelpInternal
EXTRN	?ContinueModal@CWnd@@UAEHXZ:NEAR		; CWnd::ContinueModal
EXTRN	?EndModalLoop@CWnd@@UAEXH@Z:NEAR		; CWnd::EndModalLoop
EXTRN	?GetInterfaceMap@CWnd@@MBEPBUAFX_INTERFACEMAP@@XZ:NEAR ; CWnd::GetInterfaceMap
EXTRN	?EnsureStdObj@CWnd@@UAEJXZ:NEAR			; CWnd::EnsureStdObj
EXTRN	?get_accParent@CWnd@@UAEJPAPAUIDispatch@@@Z:NEAR ; CWnd::get_accParent
EXTRN	?get_accChildCount@CWnd@@UAEJPAJ@Z:NEAR		; CWnd::get_accChildCount
EXTRN	?OnCmdMsg@CCmdTarget@@UAEHIHPAXPAUAFX_CMDHANDLERINFO@@@Z:NEAR ; CCmdTarget::OnCmdMsg
EXTRN	?get_accChild@CWnd@@UAEJUtagVARIANT@@PAPAUIDispatch@@@Z:NEAR ; CWnd::get_accChild
EXTRN	?IsInvokeAllowed@CCmdTarget@@UAEHJ@Z:NEAR	; CCmdTarget::IsInvokeAllowed
EXTRN	?get_accName@CWnd@@UAEJUtagVARIANT@@PAPA_W@Z:NEAR ; CWnd::get_accName
EXTRN	?get_accValue@CWnd@@UAEJUtagVARIANT@@PAPA_W@Z:NEAR ; CWnd::get_accValue
EXTRN	?get_accDescription@CWnd@@UAEJUtagVARIANT@@PAPA_W@Z:NEAR ; CWnd::get_accDescription
EXTRN	?GetDispatchIID@CCmdTarget@@UAEHPAU_GUID@@@Z:NEAR ; CCmdTarget::GetDispatchIID
EXTRN	?GetTypeInfoCount@CCmdTarget@@UAEIXZ:NEAR	; CCmdTarget::GetTypeInfoCount
EXTRN	?GetTypeLibCache@CCmdTarget@@UAEPAVCTypeLibCache@@XZ:NEAR ; CCmdTarget::GetTypeLibCache
EXTRN	?get_accRole@CWnd@@UAEJUtagVARIANT@@PAU2@@Z:NEAR ; CWnd::get_accRole
EXTRN	?GetTypeLib@CCmdTarget@@UAEJKPAPAUITypeLib@@@Z:NEAR ; CCmdTarget::GetTypeLib
EXTRN	?get_accState@CWnd@@UAEJUtagVARIANT@@PAU2@@Z:NEAR ; CWnd::get_accState
EXTRN	?get_accHelp@CWnd@@UAEJUtagVARIANT@@PAPA_W@Z:NEAR ; CWnd::get_accHelp
EXTRN	?get_accHelpTopic@CWnd@@UAEJPAPA_WUtagVARIANT@@PAJ@Z:NEAR ; CWnd::get_accHelpTopic
EXTRN	?get_accKeyboardShortcut@CWnd@@UAEJUtagVARIANT@@PAPA_W@Z:NEAR ; CWnd::get_accKeyboardShortcut
EXTRN	?get_accFocus@CWnd@@UAEJPAUtagVARIANT@@@Z:NEAR	; CWnd::get_accFocus
EXTRN	?get_accSelection@CWnd@@UAEJPAUtagVARIANT@@@Z:NEAR ; CWnd::get_accSelection
EXTRN	?get_accDefaultAction@CWnd@@UAEJUtagVARIANT@@PAPA_W@Z:NEAR ; CWnd::get_accDefaultAction
EXTRN	?GetCommandMap@CCmdTarget@@MBEPBUAFX_OLECMDMAP@@XZ:NEAR ; CCmdTarget::GetCommandMap
EXTRN	?accSelect@CWnd@@UAEJJUtagVARIANT@@@Z:NEAR	; CWnd::accSelect
EXTRN	?accLocation@CWnd@@UAEJPAJ000UtagVARIANT@@@Z:NEAR ; CWnd::accLocation
EXTRN	?GetDispatchMap@CCmdTarget@@MBEPBUAFX_DISPMAP@@XZ:NEAR ; CCmdTarget::GetDispatchMap
EXTRN	?accNavigate@CWnd@@UAEJJUtagVARIANT@@PAU2@@Z:NEAR ; CWnd::accNavigate
EXTRN	?accHitTest@CWnd@@UAEJJJPAUtagVARIANT@@@Z:NEAR	; CWnd::accHitTest
EXTRN	?GetConnectionMap@CCmdTarget@@MBEPBUAFX_CONNECTIONMAP@@XZ:NEAR ; CCmdTarget::GetConnectionMap
EXTRN	?accDoDefaultAction@CWnd@@UAEJUtagVARIANT@@@Z:NEAR ; CWnd::accDoDefaultAction
EXTRN	?put_accName@CWnd@@UAEJUtagVARIANT@@PA_W@Z:NEAR	; CWnd::put_accName
EXTRN	?put_accValue@CWnd@@UAEJUtagVARIANT@@PA_W@Z:NEAR ; CWnd::put_accValue
EXTRN	?SetProxy@CWnd@@UAEJPAUIAccessibleProxy@@@Z:NEAR ; CWnd::SetProxy
EXTRN	?CreateAccessibleProxy@CWnd@@UAEJIJPAJ@Z:NEAR	; CWnd::CreateAccessibleProxy
EXTRN	?GetEventSinkMap@CCmdTarget@@MBEPBUAFX_EVENTSINKMAP@@XZ:NEAR ; CCmdTarget::GetEventSinkMap
EXTRN	?OnCommand@CWnd@@MAEHIJ@Z:NEAR			; CWnd::OnCommand
EXTRN	?OnCreateAggregates@CCmdTarget@@UAEHXZ:NEAR	; CCmdTarget::OnCreateAggregates
EXTRN	?GetInterfaceHook@CCmdTarget@@UAEPAUIUnknown@@PBX@Z:NEAR ; CCmdTarget::GetInterfaceHook
EXTRN	?OnNotify@CWnd@@MAEHIJPAJ@Z:NEAR		; CWnd::OnNotify
EXTRN	?GetRuntimeClass@CEdit@@UBEPAUCRuntimeClass@@XZ:NEAR ; CEdit::GetRuntimeClass
EXTRN	?Create@CEdit@@UAEHKABUtagRECT@@PAVCWnd@@I@Z:NEAR ; CEdit::Create
EXTRN	?GetExtraConnectionPoints@CCmdTarget@@MAEHPAVCPtrArray@@@Z:NEAR ; CCmdTarget::GetExtraConnectionPoints
EXTRN	?GetConnectionHook@CCmdTarget@@MAEPAUIConnectionPoint@@ABU_GUID@@@Z:NEAR ; CCmdTarget::GetConnectionHook
EXTRN	?PreSubclassWindow@CWnd@@UAEXXZ:NEAR		; CWnd::PreSubclassWindow
EXTRN	?Create@CWnd@@UAEHPBD0KABUtagRECT@@PAV1@IPAUCCreateContext@@@Z:NEAR ; CWnd::Create
EXTRN	?CreateEx@CWnd@@UAEHKPBD0KHHHHPAUHWND__@@PAUHMENU__@@PAX@Z:NEAR ; CWnd::CreateEx
EXTRN	?CreateEx@CWnd@@UAEHKPBD0KABUtagRECT@@PAV1@IPAX@Z:NEAR ; CWnd::CreateEx
EXTRN	?DestroyWindow@CWnd@@UAEHXZ:NEAR		; CWnd::DestroyWindow
EXTRN	?PreCreateWindow@CWnd@@UAEHAAUtagCREATESTRUCTA@@@Z:NEAR ; CWnd::PreCreateWindow
EXTRN	?CalcWindowRect@CWnd@@UAEXPAUtagRECT@@I@Z:NEAR	; CWnd::CalcWindowRect
EXTRN	?GetSuperWndProcAddr@CWnd@@MAEPAP6GJPAUHWND__@@IIJ@ZXZ:NEAR ; CWnd::GetSuperWndProcAddr
EXTRN	??_7type_info@@6B@:QWORD			; type_info::`vftable'
EXTRN	?PreTranslateMessage@CWnd@@UAEHPAUtagMSG@@@Z:NEAR ; CWnd::PreTranslateMessage
EXTRN	?OnAmbientProperty@CWnd@@UAEHPAVCOleControlSite@@JPAUtagVARIANT@@@Z:NEAR ; CWnd::OnAmbientProperty
EXTRN	?WindowProc@CWnd@@MAEJIIJ@Z:NEAR		; CWnd::WindowProc
EXTRN	?OnWndMsg@CWnd@@MAEHIIJPAJ@Z:NEAR		; CWnd::OnWndMsg
EXTRN	?DefWindowProcA@CWnd@@MAEJIIJ@Z:NEAR		; CWnd::DefWindowProcA
EXTRN	?PostNcDestroy@CWnd@@MAEXXZ:NEAR		; CWnd::PostNcDestroy
EXTRN	?CheckAutoCenter@CWnd@@UAEHXZ:NEAR		; CWnd::CheckAutoCenter
EXTRN	?IsFrameWnd@CWnd@@UBEHXZ:NEAR			; CWnd::IsFrameWnd
EXTRN	?OnFinalRelease@CWnd@@UAEXXZ:NEAR		; CWnd::OnFinalRelease
;	COMDAT ??_7CComboBoxEdit@@6B@
CONST	SEGMENT
??_7CComboBoxEdit@@6B@ DD FLAT:??_R4CComboBoxEdit@@6B@	; CComboBoxEdit::`vftable'
	DD	FLAT:?GetRuntimeClass@CEdit@@UBEPAUCRuntimeClass@@XZ
	DD	FLAT:??_ECComboBoxEdit@@UAEPAXI@Z
	DD	FLAT:?Serialize@CObject@@UAEXAAVCArchive@@@Z
	DD	FLAT:?AssertValid@CObject@@UBEXXZ
	DD	FLAT:?Dump@CObject@@UBEXAAVCDumpContext@@@Z
	DD	FLAT:?OnCmdMsg@CCmdTarget@@UAEHIHPAXPAUAFX_CMDHANDLERINFO@@@Z
	DD	FLAT:?OnFinalRelease@CWnd@@UAEXXZ
	DD	FLAT:?IsInvokeAllowed@CCmdTarget@@UAEHJ@Z
	DD	FLAT:?GetDispatchIID@CCmdTarget@@UAEHPAU_GUID@@@Z
	DD	FLAT:?GetTypeInfoCount@CCmdTarget@@UAEIXZ
	DD	FLAT:?GetTypeLibCache@CCmdTarget@@UAEPAVCTypeLibCache@@XZ
	DD	FLAT:?GetTypeLib@CCmdTarget@@UAEJKPAPAUITypeLib@@@Z
	DD	FLAT:?GetMessageMap@CComboBoxEdit@@MBEPBUAFX_MSGMAP@@XZ
	DD	FLAT:?GetCommandMap@CCmdTarget@@MBEPBUAFX_OLECMDMAP@@XZ
	DD	FLAT:?GetDispatchMap@CCmdTarget@@MBEPBUAFX_DISPMAP@@XZ
	DD	FLAT:?GetConnectionMap@CCmdTarget@@MBEPBUAFX_CONNECTIONMAP@@XZ
	DD	FLAT:?GetInterfaceMap@CWnd@@MBEPBUAFX_INTERFACEMAP@@XZ
	DD	FLAT:?GetEventSinkMap@CCmdTarget@@MBEPBUAFX_EVENTSINKMAP@@XZ
	DD	FLAT:?OnCreateAggregates@CCmdTarget@@UAEHXZ
	DD	FLAT:?GetInterfaceHook@CCmdTarget@@UAEPAUIUnknown@@PBX@Z
	DD	FLAT:?GetExtraConnectionPoints@CCmdTarget@@MAEHPAVCPtrArray@@@Z
	DD	FLAT:?GetConnectionHook@CCmdTarget@@MAEPAUIConnectionPoint@@ABU_GUID@@@Z
	DD	FLAT:?PreSubclassWindow@CWnd@@UAEXXZ
	DD	FLAT:?Create@CWnd@@UAEHPBD0KABUtagRECT@@PAV1@IPAUCCreateContext@@@Z
	DD	FLAT:?CreateEx@CWnd@@UAEHKPBD0KABUtagRECT@@PAV1@IPAX@Z
	DD	FLAT:?CreateEx@CWnd@@UAEHKPBD0KHHHHPAUHWND__@@PAUHMENU__@@PAX@Z
	DD	FLAT:?DestroyWindow@CWnd@@UAEHXZ
	DD	FLAT:?PreCreateWindow@CWnd@@UAEHAAUtagCREATESTRUCTA@@@Z
	DD	FLAT:?CalcWindowRect@CWnd@@UAEXPAUtagRECT@@I@Z
	DD	FLAT:?OnToolHitTest@CWnd@@UBEHVCPoint@@PAUtagTOOLINFOA@@@Z
	DD	FLAT:?GetScrollBarCtrl@CWnd@@UBEPAVCScrollBar@@H@Z
	DD	FLAT:?WinHelpA@CWnd@@UAEXKI@Z
	DD	FLAT:?HtmlHelpA@CWnd@@UAEXKI@Z
	DD	FLAT:?WinHelpInternal@CWnd@@UAEXKI@Z
	DD	FLAT:?ContinueModal@CWnd@@UAEHXZ
	DD	FLAT:?EndModalLoop@CWnd@@UAEXH@Z
	DD	FLAT:?EnsureStdObj@CWnd@@UAEJXZ
	DD	FLAT:?get_accParent@CWnd@@UAEJPAPAUIDispatch@@@Z
	DD	FLAT:?get_accChildCount@CWnd@@UAEJPAJ@Z
	DD	FLAT:?get_accChild@CWnd@@UAEJUtagVARIANT@@PAPAUIDispatch@@@Z
	DD	FLAT:?get_accName@CWnd@@UAEJUtagVARIANT@@PAPA_W@Z
	DD	FLAT:?get_accValue@CWnd@@UAEJUtagVARIANT@@PAPA_W@Z
	DD	FLAT:?get_accDescription@CWnd@@UAEJUtagVARIANT@@PAPA_W@Z
	DD	FLAT:?get_accRole@CWnd@@UAEJUtagVARIANT@@PAU2@@Z
	DD	FLAT:?get_accState@CWnd@@UAEJUtagVARIANT@@PAU2@@Z
	DD	FLAT:?get_accHelp@CWnd@@UAEJUtagVARIANT@@PAPA_W@Z
	DD	FLAT:?get_accHelpTopic@CWnd@@UAEJPAPA_WUtagVARIANT@@PAJ@Z
	DD	FLAT:?get_accKeyboardShortcut@CWnd@@UAEJUtagVARIANT@@PAPA_W@Z
	DD	FLAT:?get_accFocus@CWnd@@UAEJPAUtagVARIANT@@@Z
	DD	FLAT:?get_accSelection@CWnd@@UAEJPAUtagVARIANT@@@Z
	DD	FLAT:?get_accDefaultAction@CWnd@@UAEJUtagVARIANT@@PAPA_W@Z
	DD	FLAT:?accSelect@CWnd@@UAEJJUtagVARIANT@@@Z
	DD	FLAT:?accLocation@CWnd@@UAEJPAJ000UtagVARIANT@@@Z
	DD	FLAT:?accNavigate@CWnd@@UAEJJUtagVARIANT@@PAU2@@Z
	DD	FLAT:?accHitTest@CWnd@@UAEJJJPAUtagVARIANT@@@Z
	DD	FLAT:?accDoDefaultAction@CWnd@@UAEJUtagVARIANT@@@Z
	DD	FLAT:?put_accName@CWnd@@UAEJUtagVARIANT@@PA_W@Z
	DD	FLAT:?put_accValue@CWnd@@UAEJUtagVARIANT@@PA_W@Z
	DD	FLAT:?SetProxy@CWnd@@UAEJPAUIAccessibleProxy@@@Z
	DD	FLAT:?CreateAccessibleProxy@CWnd@@UAEJIJPAJ@Z
	DD	FLAT:?OnCommand@CWnd@@MAEHIJ@Z
	DD	FLAT:?OnNotify@CWnd@@MAEHIJPAJ@Z
	DD	FLAT:?GetSuperWndProcAddr@CWnd@@MAEPAP6GJPAUHWND__@@IIJ@ZXZ
	DD	FLAT:?DoDataExchange@CWnd@@MAEXPAVCDataExchange@@@Z
	DD	FLAT:?BeginModalState@CWnd@@UAEXXZ
	DD	FLAT:?EndModalState@CWnd@@UAEXXZ
	DD	FLAT:?PreTranslateMessage@CWnd@@UAEHPAUtagMSG@@@Z
	DD	FLAT:?OnAmbientProperty@CWnd@@UAEHPAVCOleControlSite@@JPAUtagVARIANT@@@Z
	DD	FLAT:?WindowProc@CWnd@@MAEJIIJ@Z
	DD	FLAT:?OnWndMsg@CWnd@@MAEHIIJPAJ@Z
	DD	FLAT:?DefWindowProcA@CWnd@@MAEJIIJ@Z
	DD	FLAT:?PostNcDestroy@CWnd@@MAEXXZ
	DD	FLAT:?OnChildNotify@CComboBoxEdit@@MAEHIIJPAJ@Z
	DD	FLAT:?CheckAutoCenter@CWnd@@UAEHXZ
	DD	FLAT:?IsFrameWnd@CWnd@@UBEHXZ
	DD	FLAT:?CreateControlContainer@CWnd@@MAEHPAPAVCOleControlContainer@@@Z
	DD	FLAT:?CreateControlSite@CWnd@@MAEHPAVCOleControlContainer@@PAPAVCOleControlSite@@IABU_GUID@@@Z
	DD	FLAT:?SetOccDialogInfo@CWnd@@MAEHPAU_AFX_OCC_DIALOG_INFO@@@Z
	DD	FLAT:?Create@CEdit@@UAEHKABUtagRECT@@PAVCWnd@@I@Z
CONST	ENDS
;	COMDAT ??_R4CComboBoxEdit@@6B@
rdata$r	SEGMENT
??_R4CComboBoxEdit@@6B@ DD 00H				; CComboBoxEdit::`RTTI Complete Object Locator'
	DD	00H
	DD	00H
	DD	FLAT:??_R0?AVCComboBoxEdit@@@8
	DD	FLAT:??_R3CComboBoxEdit@@8
rdata$r	ENDS
;	COMDAT ??_R0?AVCComboBoxEdit@@@8
_DATA	SEGMENT
??_R0?AVCComboBoxEdit@@@8 DD FLAT:??_7type_info@@6B@	; CComboBoxEdit `RTTI Type Descriptor'
	DD	00H
	DB	'.?AVCComboBoxEdit@@', 00H
_DATA	ENDS
;	COMDAT ??_R3CComboBoxEdit@@8
rdata$r	SEGMENT
??_R3CComboBoxEdit@@8 DD 00H				; CComboBoxEdit::`RTTI Class Hierarchy Descriptor'
	DD	00H
	DD	05H
	DD	FLAT:??_R2CComboBoxEdit@@8
rdata$r	ENDS
;	COMDAT ??_R2CComboBoxEdit@@8
rdata$r	SEGMENT
??_R2CComboBoxEdit@@8 DD FLAT:??_R1A@?0A@A@CComboBoxEdit@@8 ; CComboBoxEdit::`RTTI Base Class Array'
	DD	FLAT:??_R1A@?0A@A@CEdit@@8
	DD	FLAT:??_R1A@?0A@A@CWnd@@8
	DD	FLAT:??_R1A@?0A@A@CCmdTarget@@8
	DD	FLAT:??_R1A@?0A@A@CObject@@8
rdata$r	ENDS
;	COMDAT ??_R1A@?0A@A@CComboBoxEdit@@8
rdata$r	SEGMENT
??_R1A@?0A@A@CComboBoxEdit@@8 DD FLAT:??_R0?AVCComboBoxEdit@@@8 ; CComboBoxEdit::`RTTI Base Class Descriptor at (0,-1,0,0)'
	DD	04H
	DD	00H
	DD	0ffffffffH
	DD	00H
	DD	00H
rdata$r	ENDS
;	COMDAT ??_R1A@?0A@A@CEdit@@8
rdata$r	SEGMENT
??_R1A@?0A@A@CEdit@@8 DD FLAT:??_R0?AVCEdit@@@8		; CEdit::`RTTI Base Class Descriptor at (0,-1,0,0)'
	DD	03H
	DD	00H
	DD	0ffffffffH
	DD	00H
	DD	00H
rdata$r	ENDS
;	COMDAT ??_R0?AVCEdit@@@8
_DATA	SEGMENT
??_R0?AVCEdit@@@8 DD FLAT:??_7type_info@@6B@		; CEdit `RTTI Type Descriptor'
	DD	00H
	DB	'.?AVCEdit@@', 00H
_DATA	ENDS
;	COMDAT ??_R1A@?0A@A@CWnd@@8
rdata$r	SEGMENT
??_R1A@?0A@A@CWnd@@8 DD FLAT:??_R0?AVCWnd@@@8		; CWnd::`RTTI Base Class Descriptor at (0,-1,0,0)'
	DD	02H
	DD	00H
	DD	0ffffffffH
	DD	00H
	DD	00H
rdata$r	ENDS
;	COMDAT ??_R0?AVCWnd@@@8
_DATA	SEGMENT
??_R0?AVCWnd@@@8 DD FLAT:??_7type_info@@6B@		; CWnd `RTTI Type Descriptor'
	DD	00H
	DB	'.?AVCWnd@@', 00H
_DATA	ENDS
;	COMDAT ??_R1A@?0A@A@CCmdTarget@@8
rdata$r	SEGMENT
??_R1A@?0A@A@CCmdTarget@@8 DD FLAT:??_R0?AVCCmdTarget@@@8 ; CCmdTarget::`RTTI Base Class Descriptor at (0,-1,0,0)'
	DD	01H
	DD	00H
	DD	0ffffffffH
	DD	00H
	DD	00H
rdata$r	ENDS
;	COMDAT ??_R0?AVCCmdTarget@@@8
_DATA	SEGMENT
??_R0?AVCCmdTarget@@@8 DD FLAT:??_7type_info@@6B@	; CCmdTarget `RTTI Type Descriptor'
	DD	00H
	DB	'.?AVCCmdTarget@@', 00H
_DATA	ENDS
;	COMDAT ??_R1A@?0A@A@CObject@@8
rdata$r	SEGMENT
??_R1A@?0A@A@CObject@@8 DD FLAT:??_R0?AVCObject@@@8	; CObject::`RTTI Base Class Descriptor at (0,-1,0,0)'
	DD	00H
	DD	00H
	DD	0ffffffffH
	DD	00H
	DD	00H
rdata$r	ENDS
;	COMDAT ??_R0?AVCObject@@@8
_DATA	SEGMENT
??_R0?AVCObject@@@8 DD FLAT:??_7type_info@@6B@		; CObject `RTTI Type Descriptor'
	DD	00H
	DB	'.?AVCObject@@', 00H
; Function compile flags: /Odt
_DATA	ENDS
_TEXT	SEGMENT
_this$ = -4						; size = 4
??0CComboBoxEdit@@QAE@XZ PROC NEAR			; CComboBoxEdit::CComboBoxEdit
; _this$ = ecx

; 33   : {

  00090	55		 push	 ebp
  00091	8b ec		 mov	 ebp, esp
  00093	51		 push	 ecx
  00094	89 4d fc	 mov	 DWORD PTR _this$[ebp], ecx
  00097	8b 4d fc	 mov	 ecx, DWORD PTR _this$[ebp]
  0009a	e8 00 00 00 00	 call	 ??0CEdit@@QAE@XZ	; CEdit::CEdit
  0009f	8b 45 fc	 mov	 eax, DWORD PTR _this$[ebp]
  000a2	c7 00 00 00 00
	00		 mov	 DWORD PTR [eax], OFFSET FLAT:??_7CComboBoxEdit@@6B@
  000a8	8b 4d fc	 mov	 ecx, DWORD PTR _this$[ebp]
  000ab	c7 41 54 00 00
	00 00		 mov	 DWORD PTR [ecx+84], 0
  000b2	8b 55 fc	 mov	 edx, DWORD PTR _this$[ebp]
  000b5	c7 42 58 ff ff
	ff 00		 mov	 DWORD PTR [edx+88], 16777215 ; 00ffffffH
  000bc	8b 45 fc	 mov	 eax, DWORD PTR _this$[ebp]
  000bf	c7 40 5c 00 00
	00 00		 mov	 DWORD PTR [eax+92], 0

; 34   : }

  000c6	8b 45 fc	 mov	 eax, DWORD PTR _this$[ebp]
  000c9	8b e5		 mov	 esp, ebp
  000cb	5d		 pop	 ebp
  000cc	c3		 ret	 0
??0CComboBoxEdit@@QAE@XZ ENDP				; CComboBoxEdit::CComboBoxEdit
_TEXT	ENDS
PUBLIC	??1CComboBoxEdit@@UAE@XZ			; CComboBoxEdit::~CComboBoxEdit
PUBLIC	??3CObject@@SGXPAX@Z				; CObject::operator delete
; Function compile flags: /Odt
;	COMDAT ??_GCComboBoxEdit@@UAEPAXI@Z
_TEXT	SEGMENT
_this$ = -4						; size = 4
___flags$ = 8						; size = 4
??_GCComboBoxEdit@@UAEPAXI@Z PROC NEAR			; CComboBoxEdit::`scalar deleting destructor', COMDAT
; _this$ = ecx
  00000	55		 push	 ebp
  00001	8b ec		 mov	 ebp, esp
  00003	51		 push	 ecx
  00004	89 4d fc	 mov	 DWORD PTR _this$[ebp], ecx
  00007	8b 4d fc	 mov	 ecx, DWORD PTR _this$[ebp]
  0000a	e8 00 00 00 00	 call	 ??1CComboBoxEdit@@UAE@XZ
  0000f	8b 45 08	 mov	 eax, DWORD PTR ___flags$[ebp]
  00012	83 e0 01	 and	 eax, 1
  00015	74 09		 je	 SHORT $L198255
  00017	8b 4d fc	 mov	 ecx, DWORD PTR _this$[ebp]
  0001a	51		 push	 ecx
  0001b	e8 00 00 00 00	 call	 ??3CObject@@SGXPAX@Z	; CObject::operator delete
$L198255:
  00020	8b 45 fc	 mov	 eax, DWORD PTR _this$[ebp]
  00023	8b e5		 mov	 esp, ebp
  00025	5d		 pop	 ebp
  00026	c2 04 00	 ret	 4
??_GCComboBoxEdit@@UAEPAXI@Z ENDP			; CComboBoxEdit::`scalar deleting destructor'
_TEXT	ENDS
EXTRN	??1CEdit@@UAE@XZ:NEAR				; CEdit::~CEdit
; Function compile flags: /Odt
;	COMDAT ??1CComboBoxEdit@@UAE@XZ
_TEXT	SEGMENT
_this$ = -4						; size = 4
??1CComboBoxEdit@@UAE@XZ PROC NEAR			; CComboBoxEdit::~CComboBoxEdit, COMDAT
; _this$ = ecx
  00000	55		 push	 ebp
  00001	8b ec		 mov	 ebp, esp
  00003	51		 push	 ecx
  00004	89 4d fc	 mov	 DWORD PTR _this$[ebp], ecx
  00007	8b 4d fc	 mov	 ecx, DWORD PTR _this$[ebp]
  0000a	e8 00 00 00 00	 call	 ??1CEdit@@UAE@XZ	; CEdit::~CEdit
  0000f	8b e5		 mov	 esp, ebp
  00011	5d		 pop	 ebp
  00012	c3		 ret	 0
??1CComboBoxEdit@@UAE@XZ ENDP				; CComboBoxEdit::~CComboBoxEdit
_TEXT	ENDS
PUBLIC	?SetSkin@CComboBoxEdit@@QAEXAAK0@Z		; CComboBoxEdit::SetSkin
; Function compile flags: /Odt
_TEXT	SEGMENT
_this$ = -4						; size = 4
_colorBkg$ = 8						; size = 4
_colorText$ = 12					; size = 4
?SetSkin@CComboBoxEdit@@QAEXAAK0@Z PROC NEAR		; CComboBoxEdit::SetSkin
; _this$ = ecx

; 38   : {

  000d0	55		 push	 ebp
  000d1	8b ec		 mov	 ebp, esp
  000d3	51		 push	 ecx
  000d4	89 4d fc	 mov	 DWORD PTR _this$[ebp], ecx

; 39   : 	m_colorBkg=colorBkg;

  000d7	8b 45 fc	 mov	 eax, DWORD PTR _this$[ebp]
  000da	8b 4d 08	 mov	 ecx, DWORD PTR _colorBkg$[ebp]
  000dd	8b 11		 mov	 edx, DWORD PTR [ecx]
  000df	89 50 58	 mov	 DWORD PTR [eax+88], edx

; 40   : 
; 41   : 	m_colorText=colorText;

  000e2	8b 45 fc	 mov	 eax, DWORD PTR _this$[ebp]
  000e5	8b 4d 0c	 mov	 ecx, DWORD PTR _colorText$[ebp]
  000e8	8b 11		 mov	 edx, DWORD PTR [ecx]
  000ea	89 50 5c	 mov	 DWORD PTR [eax+92], edx

; 42   : 
; 43   : }

  000ed	8b e5		 mov	 esp, ebp
  000ef	5d		 pop	 ebp
  000f0	c2 08 00	 ret	 8
?SetSkin@CComboBoxEdit@@QAEXAAK0@Z ENDP			; CComboBoxEdit::SetSkin
_TEXT	ENDS
PUBLIC	?SetMsgWnd@CComboBoxEdit@@QAEXPAVCWnd@@@Z	; CComboBoxEdit::SetMsgWnd
; Function compile flags: /Odt
_TEXT	SEGMENT
_this$ = -4						; size = 4
_pMsgWnd$ = 8						; size = 4
?SetMsgWnd@CComboBoxEdit@@QAEXPAVCWnd@@@Z PROC NEAR	; CComboBoxEdit::SetMsgWnd
; _this$ = ecx

; 46   : {

  00100	55		 push	 ebp
  00101	8b ec		 mov	 ebp, esp
  00103	51		 push	 ecx
  00104	89 4d fc	 mov	 DWORD PTR _this$[ebp], ecx

; 47   : 	m_pMsgWnd=pMsgWnd;

  00107	8b 45 fc	 mov	 eax, DWORD PTR _this$[ebp]
  0010a	8b 4d 08	 mov	 ecx, DWORD PTR _pMsgWnd$[ebp]
  0010d	89 48 54	 mov	 DWORD PTR [eax+84], ecx

; 48   : }

  00110	8b e5		 mov	 esp, ebp
  00112	5d		 pop	 ebp
  00113	c2 04 00	 ret	 4
?SetMsgWnd@CComboBoxEdit@@QAEXPAVCWnd@@@Z ENDP		; CComboBoxEdit::SetMsgWnd
_TEXT	ENDS
PUBLIC	?OnLButtonDown@CWnd@@IAEXIVCPoint@@@Z		; CWnd::OnLButtonDown
PUBLIC	?SendMessageA@CWnd@@QAEJIIJ@Z			; CWnd::SendMessageA
; Function compile flags: /Odt
_TEXT	SEGMENT
_this$ = -4						; size = 4
_nFlags$ = 8						; size = 4
_point$ = 12						; size = 8
?OnLButtonDown@CComboBoxEdit@@IAEXIVCPoint@@@Z PROC NEAR ; CComboBoxEdit::OnLButtonDown
; _this$ = ecx

; 52   : {

  00120	55		 push	 ebp
  00121	8b ec		 mov	 ebp, esp
  00123	51		 push	 ecx
  00124	89 4d fc	 mov	 DWORD PTR _this$[ebp], ecx

; 53   : 	m_pMsgWnd->SendMessage(MSG_EDIT_CLICKED);

  00127	6a 00		 push	 0
  00129	6a 00		 push	 0
  0012b	68 66 04 00 00	 push	 1126			; 00000466H
  00130	8b 45 fc	 mov	 eax, DWORD PTR _this$[ebp]
  00133	8b 48 54	 mov	 ecx, DWORD PTR [eax+84]
  00136	e8 00 00 00 00	 call	 ?SendMessageA@CWnd@@QAEJIIJ@Z ; CWnd::SendMessageA

; 54   : 	
; 55   : 	CEdit::OnLButtonDown(nFlags, point);

  0013b	8b 4d 10	 mov	 ecx, DWORD PTR _point$[ebp+4]
  0013e	51		 push	 ecx
  0013f	8b 55 0c	 mov	 edx, DWORD PTR _point$[ebp]
  00142	52		 push	 edx
  00143	8b 45 08	 mov	 eax, DWORD PTR _nFlags$[ebp]
  00146	50		 push	 eax
  00147	8b 4d fc	 mov	 ecx, DWORD PTR _this$[ebp]
  0014a	e8 00 00 00 00	 call	 ?OnLButtonDown@CWnd@@IAEXIVCPoint@@@Z ; CWnd::OnLButtonDown

; 56   : }

  0014f	8b e5		 mov	 esp, ebp
  00151	5d		 pop	 ebp
  00152	c2 0c 00	 ret	 12			; 0000000cH
?OnLButtonDown@CComboBoxEdit@@IAEXIVCPoint@@@Z ENDP	; CComboBoxEdit::OnLButtonDown
_TEXT	ENDS
PUBLIC	?SetSel@CEdit@@QAEXHHH@Z			; CEdit::SetSel
PUBLIC	?OnLButtonDblClk@CWnd@@IAEXIVCPoint@@@Z		; CWnd::OnLButtonDblClk
; Function compile flags: /Odt
_TEXT	SEGMENT
_this$ = -4						; size = 4
_nFlags$ = 8						; size = 4
_point$ = 12						; size = 8
?OnLButtonDblClk@CComboBoxEdit@@IAEXIVCPoint@@@Z PROC NEAR ; CComboBoxEdit::OnLButtonDblClk
; _this$ = ecx

; 59   : {

  00160	55		 push	 ebp
  00161	8b ec		 mov	 ebp, esp
  00163	51		 push	 ecx
  00164	89 4d fc	 mov	 DWORD PTR _this$[ebp], ecx

; 60   : 	SetSel(0,-1);

  00167	6a 00		 push	 0
  00169	6a ff		 push	 -1
  0016b	6a 00		 push	 0
  0016d	8b 4d fc	 mov	 ecx, DWORD PTR _this$[ebp]
  00170	e8 00 00 00 00	 call	 ?SetSel@CEdit@@QAEXHHH@Z ; CEdit::SetSel

; 61   : 
; 62   : 	CEdit::OnLButtonDblClk(nFlags, point);

  00175	8b 45 10	 mov	 eax, DWORD PTR _point$[ebp+4]
  00178	50		 push	 eax
  00179	8b 4d 0c	 mov	 ecx, DWORD PTR _point$[ebp]
  0017c	51		 push	 ecx
  0017d	8b 55 08	 mov	 edx, DWORD PTR _nFlags$[ebp]
  00180	52		 push	 edx
  00181	8b 4d fc	 mov	 ecx, DWORD PTR _this$[ebp]
  00184	e8 00 00 00 00	 call	 ?OnLButtonDblClk@CWnd@@IAEXIVCPoint@@@Z ; CWnd::OnLButtonDblClk

; 63   : }

  00189	8b e5		 mov	 esp, ebp
  0018b	5d		 pop	 ebp
  0018c	c2 0c 00	 ret	 12			; 0000000cH
?OnLButtonDblClk@CComboBoxEdit@@IAEXIVCPoint@@@Z ENDP	; CComboBoxEdit::OnLButtonDblClk
_TEXT	ENDS
PUBLIC	?GetClientRect@CWnd@@QBEXPAUtagRECT@@@Z		; CWnd::GetClientRect
PUBLIC	??0CRect@@QAE@XZ				; CRect::CRect
PUBLIC	??BCRect@@QAEPAUtagRECT@@XZ			; CRect::operator tagRECT *
PUBLIC	?OffsetRect@CRect@@QAEXHH@Z			; CRect::OffsetRect
PUBLIC	?DrawTextA@CDC@@UAEHPBDHPAUtagRECT@@I@Z		; CDC::DrawTextA
PUBLIC	?GetFont@CWnd@@QBEPAVCFont@@XZ			; CWnd::GetFont
EXTRN	?SelectObject@CDC@@UAEPAVCFont@@PAV2@@Z:NEAR	; CDC::SelectObject
EXTRN	__imp_??B?$CSimpleStringT@D$00@ATL@@QBEPBDXZ:NEAR
EXTRN	__imp_?GetLength@?$CSimpleStringT@D$00@ATL@@QBEHXZ:NEAR
EXTRN	?SetTextColor@CDC@@UAEKK@Z:NEAR			; CDC::SetTextColor
EXTRN	__imp_??0?$CStringT@DV?$StrTraitMFC_DLL@DV?$ChTraitsCRT@D@ATL@@@@@ATL@@QAE@XZ:NEAR
EXTRN	__imp_??1?$CStringT@DV?$StrTraitMFC_DLL@DV?$ChTraitsCRT@D@ATL@@@@@ATL@@QAE@XZ:NEAR
EXTRN	__except_list:DWORD
EXTRN	___security_cookie:DWORD
EXTRN	@__security_check_cookie@4:NEAR
EXTRN	___CxxFrameHandler:NEAR
EXTRN	?FillSolidRect@CDC@@QAEXPBUtagRECT@@K@Z:NEAR	; CDC::FillSolidRect
EXTRN	??0CPaintDC@@QAE@PAVCWnd@@@Z:NEAR		; CPaintDC::CPaintDC
EXTRN	??1CPaintDC@@UAE@XZ:NEAR			; CPaintDC::~CPaintDC
EXTRN	?GetWindowTextA@CWnd@@QBEXAAV?$CStringT@DV?$StrTraitMFC_DLL@DV?$ChTraitsCRT@D@ATL@@@@@ATL@@@Z:NEAR ; CWnd::GetWindowTextA
xdata$x	SEGMENT
$T200146 DD	0ffffffffH
	DD	FLAT:$L200135
	DD	00H
	DD	FLAT:$L200136
$T200140 DD	019930520H
	DD	02H
	DD	FLAT:$T200146
	DD	2 DUP(00H)
	DD	2 DUP(00H)
; Function compile flags: /Odt
xdata$x	ENDS
_TEXT	SEGMENT
_this$ = -132						; size = 4
_strText$ = -128					; size = 4
_dc$ = -124						; size = 84
__$ArrayPad$ = -32					; size = 4
_rectEdit$ = -28					; size = 16
__$EHRec$ = -12						; size = 12
__$ReturnAddr$ = 4					; size = 4
?OnPaint@CComboBoxEdit@@IAEXXZ PROC NEAR		; CComboBoxEdit::OnPaint
; _this$ = ecx

; 66   : {

  00190	55		 push	 ebp
  00191	8b ec		 mov	 ebp, esp
  00193	6a ff		 push	 -1
  00195	68 00 00 00 00	 push	 __ehhandler$?OnPaint@CComboBoxEdit@@IAEXXZ
  0019a	64 a1 00 00 00
	00		 mov	 eax, DWORD PTR fs:__except_list
  001a0	50		 push	 eax
  001a1	64 89 25 00 00
	00 00		 mov	 DWORD PTR fs:__except_list, esp
  001a8	83 ec 78	 sub	 esp, 120		; 00000078H
  001ab	a1 00 00 00 00	 mov	 eax, DWORD PTR ___security_cookie
  001b0	89 45 e0	 mov	 DWORD PTR __$ArrayPad$[ebp], eax
  001b3	89 8d 7c ff ff
	ff		 mov	 DWORD PTR _this$[ebp], ecx

; 67   : 	CPaintDC dc(this); 

  001b9	8b 85 7c ff ff
	ff		 mov	 eax, DWORD PTR _this$[ebp]
  001bf	50		 push	 eax
  001c0	8d 4d 84	 lea	 ecx, DWORD PTR _dc$[ebp]
  001c3	e8 00 00 00 00	 call	 ??0CPaintDC@@QAE@PAVCWnd@@@Z ; CPaintDC::CPaintDC
  001c8	c7 45 fc 00 00
	00 00		 mov	 DWORD PTR __$EHRec$[ebp+8], 0

; 68   : 
; 69   : 	CRect rectEdit;

  001cf	8d 4d e4	 lea	 ecx, DWORD PTR _rectEdit$[ebp]
  001d2	e8 00 00 00 00	 call	 ??0CRect@@QAE@XZ	; CRect::CRect

; 70   : 	GetClientRect(&rectEdit);

  001d7	8d 4d e4	 lea	 ecx, DWORD PTR _rectEdit$[ebp]
  001da	51		 push	 ecx
  001db	8b 8d 7c ff ff
	ff		 mov	 ecx, DWORD PTR _this$[ebp]
  001e1	e8 00 00 00 00	 call	 ?GetClientRect@CWnd@@QBEXPAUtagRECT@@@Z ; CWnd::GetClientRect

; 71   : 	dc.FillSolidRect(&rectEdit,m_colorBkg);

  001e6	8b 95 7c ff ff
	ff		 mov	 edx, DWORD PTR _this$[ebp]
  001ec	8b 42 58	 mov	 eax, DWORD PTR [edx+88]
  001ef	50		 push	 eax
  001f0	8d 4d e4	 lea	 ecx, DWORD PTR _rectEdit$[ebp]
  001f3	51		 push	 ecx
  001f4	8d 4d 84	 lea	 ecx, DWORD PTR _dc$[ebp]
  001f7	e8 00 00 00 00	 call	 ?FillSolidRect@CDC@@QAEXPBUtagRECT@@K@Z ; CDC::FillSolidRect

; 72   : 
; 73   : 	rectEdit.OffsetRect(3,0);

  001fc	6a 00		 push	 0
  001fe	6a 03		 push	 3
  00200	8d 4d e4	 lea	 ecx, DWORD PTR _rectEdit$[ebp]
  00203	e8 00 00 00 00	 call	 ?OffsetRect@CRect@@QAEXHH@Z ; CRect::OffsetRect

; 74   : 	rectEdit.right -= 6;

  00208	8b 55 ec	 mov	 edx, DWORD PTR _rectEdit$[ebp+8]
  0020b	83 ea 06	 sub	 edx, 6
  0020e	89 55 ec	 mov	 DWORD PTR _rectEdit$[ebp+8], edx

; 75   : 	dc.SelectObject( GetFont() );

  00211	8b 8d 7c ff ff
	ff		 mov	 ecx, DWORD PTR _this$[ebp]
  00217	e8 00 00 00 00	 call	 ?GetFont@CWnd@@QBEPAVCFont@@XZ ; CWnd::GetFont
  0021c	50		 push	 eax
  0021d	8d 4d 84	 lea	 ecx, DWORD PTR _dc$[ebp]
  00220	e8 00 00 00 00	 call	 ?SelectObject@CDC@@UAEPAVCFont@@PAV2@@Z ; CDC::SelectObject

; 76   : 	dc.SetTextColor(m_colorText);

  00225	8b 85 7c ff ff
	ff		 mov	 eax, DWORD PTR _this$[ebp]
  0022b	8b 48 5c	 mov	 ecx, DWORD PTR [eax+92]
  0022e	51		 push	 ecx
  0022f	8d 4d 84	 lea	 ecx, DWORD PTR _dc$[ebp]
  00232	e8 00 00 00 00	 call	 ?SetTextColor@CDC@@UAEKK@Z ; CDC::SetTextColor

; 77   : 	CString strText;

  00237	8d 4d 80	 lea	 ecx, DWORD PTR _strText$[ebp]
  0023a	ff 15 00 00 00
	00		 call	 DWORD PTR __imp_??0?$CStringT@DV?$StrTraitMFC_DLL@DV?$ChTraitsCRT@D@ATL@@@@@ATL@@QAE@XZ
  00240	c6 45 fc 01	 mov	 BYTE PTR __$EHRec$[ebp+8], 1

; 78   : 	GetWindowText(strText);

  00244	8d 55 80	 lea	 edx, DWORD PTR _strText$[ebp]
  00247	52		 push	 edx
  00248	8b 8d 7c ff ff
	ff		 mov	 ecx, DWORD PTR _this$[ebp]
  0024e	e8 00 00 00 00	 call	 ?GetWindowTextA@CWnd@@QBEXAAV?$CStringT@DV?$StrTraitMFC_DLL@DV?$ChTraitsCRT@D@ATL@@@@@ATL@@@Z ; CWnd::GetWindowTextA

; 79   : 	dc.DrawText(strText, strText.GetLength(), rectEdit, DT_NOPREFIX|DT_VCENTER);

  00253	68 04 08 00 00	 push	 2052			; 00000804H
  00258	8d 4d e4	 lea	 ecx, DWORD PTR _rectEdit$[ebp]
  0025b	e8 00 00 00 00	 call	 ??BCRect@@QAEPAUtagRECT@@XZ ; CRect::operator tagRECT *
  00260	50		 push	 eax
  00261	8d 4d 80	 lea	 ecx, DWORD PTR _strText$[ebp]
  00264	ff 15 00 00 00
	00		 call	 DWORD PTR __imp_?GetLength@?$CSimpleStringT@D$00@ATL@@QBEHXZ
  0026a	50		 push	 eax
  0026b	8d 4d 80	 lea	 ecx, DWORD PTR _strText$[ebp]
  0026e	ff 15 00 00 00
	00		 call	 DWORD PTR __imp_??B?$CSimpleStringT@D$00@ATL@@QBEPBDXZ
  00274	50		 push	 eax
  00275	8d 4d 84	 lea	 ecx, DWORD PTR _dc$[ebp]
  00278	e8 00 00 00 00	 call	 ?DrawTextA@CDC@@UAEHPBDHPAUtagRECT@@I@Z ; CDC::DrawTextA

; 80   : 
; 81   : }

  0027d	c6 45 fc 00	 mov	 BYTE PTR __$EHRec$[ebp+8], 0
  00281	8d 4d 80	 lea	 ecx, DWORD PTR _strText$[ebp]
  00284	ff 15 00 00 00
	00		 call	 DWORD PTR __imp_??1?$CStringT@DV?$StrTraitMFC_DLL@DV?$ChTraitsCRT@D@ATL@@@@@ATL@@QAE@XZ
  0028a	c7 45 fc ff ff
	ff ff		 mov	 DWORD PTR __$EHRec$[ebp+8], -1
  00291	8d 4d 84	 lea	 ecx, DWORD PTR _dc$[ebp]
  00294	e8 00 00 00 00	 call	 ??1CPaintDC@@UAE@XZ	; CPaintDC::~CPaintDC
  00299	8b 4d f4	 mov	 ecx, DWORD PTR __$EHRec$[ebp]
  0029c	64 89 0d 00 00
	00 00		 mov	 DWORD PTR fs:__except_list, ecx
  002a3	8b 4d e0	 mov	 ecx, DWORD PTR __$ArrayPad$[ebp]
  002a6	e8 00 00 00 00	 call	 @__security_check_cookie@4
  002ab	8b e5		 mov	 esp, ebp
  002ad	5d		 pop	 ebp
  002ae	c3		 ret	 0
_TEXT	ENDS
text$x	SEGMENT
$L200135:
  00000	8d 4d 84	 lea	 ecx, DWORD PTR _dc$[ebp]
  00003	e9 00 00 00 00	 jmp	 ??1CPaintDC@@UAE@XZ	; CPaintDC::~CPaintDC
$L200136:
  00008	8d 4d 80	 lea	 ecx, DWORD PTR _strText$[ebp]
  0000b	ff 25 00 00 00
	00		 jmp	 DWORD PTR __imp_??1?$CStringT@DV?$StrTraitMFC_DLL@DV?$ChTraitsCRT@D@ATL@@@@@ATL@@QAE@XZ
__ehhandler$?OnPaint@CComboBoxEdit@@IAEXXZ:
  00011	b8 00 00 00 00	 mov	 eax, OFFSET FLAT:$T200140
  00016	e9 00 00 00 00	 jmp	 ___CxxFrameHandler
text$x	ENDS
?OnPaint@CComboBoxEdit@@IAEXXZ ENDP			; CComboBoxEdit::OnPaint
EXTRN	__imp__SetBkColor@8:NEAR
EXTRN	__imp__SetTextColor@8:NEAR
EXTRN	?OnChildNotify@CWnd@@MAEHIIJPAJ@Z:NEAR		; CWnd::OnChildNotify
; Function compile flags: /Odt
_TEXT	SEGMENT
_this$ = -8						; size = 4
_hdcChild$ = -4						; size = 4
_message$ = 8						; size = 4
_wParam$ = 12						; size = 4
_lParam$ = 16						; size = 4
_pLResult$ = 20						; size = 4
?OnChildNotify@CComboBoxEdit@@MAEHIIJPAJ@Z PROC NEAR	; CComboBoxEdit::OnChildNotify
; _this$ = ecx

; 84   : {

  002b0	55		 push	 ebp
  002b1	8b ec		 mov	 ebp, esp
  002b3	83 ec 08	 sub	 esp, 8
  002b6	89 4d f8	 mov	 DWORD PTR _this$[ebp], ecx

; 85   : 	if (message != WM_CTLCOLOREDIT) 

  002b9	81 7d 08 33 01
	00 00		 cmp	 DWORD PTR _message$[ebp], 307 ; 00000133H
  002c0	74 1a		 je	 SHORT $L198290

; 86   : 	{
; 87   : 		return CEdit::OnChildNotify(message, wParam, lParam, pLResult);

  002c2	8b 45 14	 mov	 eax, DWORD PTR _pLResult$[ebp]
  002c5	50		 push	 eax
  002c6	8b 4d 10	 mov	 ecx, DWORD PTR _lParam$[ebp]
  002c9	51		 push	 ecx
  002ca	8b 55 0c	 mov	 edx, DWORD PTR _wParam$[ebp]
  002cd	52		 push	 edx
  002ce	8b 45 08	 mov	 eax, DWORD PTR _message$[ebp]
  002d1	50		 push	 eax
  002d2	8b 4d f8	 mov	 ecx, DWORD PTR _this$[ebp]
  002d5	e8 00 00 00 00	 call	 ?OnChildNotify@CWnd@@MAEHIIJPAJ@Z ; CWnd::OnChildNotify
  002da	eb 2d		 jmp	 SHORT $L198289
$L198290:

; 88   : 	}
; 89   : 
; 90   : 	HDC hdcChild = (HDC)wParam;

  002dc	8b 4d 0c	 mov	 ecx, DWORD PTR _wParam$[ebp]
  002df	89 4d fc	 mov	 DWORD PTR _hdcChild$[ebp], ecx

; 91   : 
; 92   : 	SetTextColor(hdcChild, m_colorText);

  002e2	8b 55 f8	 mov	 edx, DWORD PTR _this$[ebp]
  002e5	8b 42 5c	 mov	 eax, DWORD PTR [edx+92]
  002e8	50		 push	 eax
  002e9	8b 4d fc	 mov	 ecx, DWORD PTR _hdcChild$[ebp]
  002ec	51		 push	 ecx
  002ed	ff 15 00 00 00
	00		 call	 DWORD PTR __imp__SetTextColor@8

; 93   : 	SetBkColor(hdcChild, m_colorBkg);

  002f3	8b 55 f8	 mov	 edx, DWORD PTR _this$[ebp]
  002f6	8b 42 58	 mov	 eax, DWORD PTR [edx+88]
  002f9	50		 push	 eax
  002fa	8b 4d fc	 mov	 ecx, DWORD PTR _hdcChild$[ebp]
  002fd	51		 push	 ecx
  002fe	ff 15 00 00 00
	00		 call	 DWORD PTR __imp__SetBkColor@8

; 94   : 	return TRUE;

  00304	b8 01 00 00 00	 mov	 eax, 1
$L198289:

; 95   : }

  00309	8b e5		 mov	 esp, ebp
  0030b	5d		 pop	 ebp
  0030c	c2 10 00	 ret	 16			; 00000010H
?OnChildNotify@CComboBoxEdit@@MAEHIIJPAJ@Z ENDP		; CComboBoxEdit::OnChildNotify
_TEXT	ENDS
PUBLIC	?GetThisClass@CComboBoxHistoryList@@SGPAUCRuntimeClass@@XZ ; CComboBoxHistoryList::GetThisClass
; Function compile flags: /Odt
_TEXT	SEGMENT
?GetThisClass@CComboBoxHistoryList@@SGPAUCRuntimeClass@@XZ PROC NEAR ; CComboBoxHistoryList::GetThisClass

; 101  : IMPLEMENT_DYNAMIC(CComboBoxHistoryList, CListCtrl)

  00310	55		 push	 ebp
  00311	8b ec		 mov	 ebp, esp
  00313	b8 00 00 00 00	 mov	 eax, OFFSET FLAT:?classCComboBoxHistoryList@CComboBoxHistoryList@@2UCRuntimeClass@@B ; CComboBoxHistoryList::classCComboBoxHistoryList
  00318	5d		 pop	 ebp
  00319	c3		 ret	 0
?GetThisClass@CComboBoxHistoryList@@SGPAUCRuntimeClass@@XZ ENDP ; CComboBoxHistoryList::GetThisClass
_TEXT	ENDS
PUBLIC	?GetRuntimeClass@CComboBoxHistoryList@@UBEPAUCRuntimeClass@@XZ ; CComboBoxHistoryList::GetRuntimeClass
; Function compile flags: /Odt
_TEXT	SEGMENT
_this$ = -4						; size = 4
?GetRuntimeClass@CComboBoxHistoryList@@UBEPAUCRuntimeClass@@XZ PROC NEAR ; CComboBoxHistoryList::GetRuntimeClass
; _this$ = ecx

; 101  : IMPLEMENT_DYNAMIC(CComboBoxHistoryList, CListCtrl)

  00320	55		 push	 ebp
  00321	8b ec		 mov	 ebp, esp
  00323	51		 push	 ecx
  00324	89 4d fc	 mov	 DWORD PTR _this$[ebp], ecx
  00327	b8 00 00 00 00	 mov	 eax, OFFSET FLAT:?classCComboBoxHistoryList@CComboBoxHistoryList@@2UCRuntimeClass@@B ; CComboBoxHistoryList::classCComboBoxHistoryList
  0032c	8b e5		 mov	 esp, ebp
  0032e	5d		 pop	 ebp
  0032f	c3		 ret	 0
?GetRuntimeClass@CComboBoxHistoryList@@UBEPAUCRuntimeClass@@XZ ENDP ; CComboBoxHistoryList::GetRuntimeClass
_TEXT	ENDS
PUBLIC	??0CComboBoxHistoryList@@QAE@XZ			; CComboBoxHistoryList::CComboBoxHistoryList
PUBLIC	?GetMessageMap@CComboBoxHistoryList@@MBEPBUAFX_MSGMAP@@XZ ; CComboBoxHistoryList::GetMessageMap
PUBLIC	??_7CComboBoxHistoryList@@6B@			; CComboBoxHistoryList::`vftable'
PUBLIC	??_GCComboBoxHistoryList@@UAEPAXI@Z		; CComboBoxHistoryList::`scalar deleting destructor'
PUBLIC	??_R0?AVCListCtrl@@@8				; CListCtrl `RTTI Type Descriptor'
PUBLIC	??_R1A@?0A@A@CListCtrl@@8			; CListCtrl::`RTTI Base Class Descriptor at (0,-1,0,0)'
PUBLIC	??_R4CComboBoxHistoryList@@6B@			; CComboBoxHistoryList::`RTTI Complete Object Locator'
PUBLIC	??_R0?AVCComboBoxHistoryList@@@8		; CComboBoxHistoryList `RTTI Type Descriptor'
PUBLIC	??_R3CComboBoxHistoryList@@8			; CComboBoxHistoryList::`RTTI Class Hierarchy Descriptor'
PUBLIC	??_R2CComboBoxHistoryList@@8			; CComboBoxHistoryList::`RTTI Base Class Array'
PUBLIC	??_R1A@?0A@A@CComboBoxHistoryList@@8		; CComboBoxHistoryList::`RTTI Base Class Descriptor at (0,-1,0,0)'
PUBLIC	??0CListCtrl@@QAE@XZ				; CListCtrl::CListCtrl
EXTRN	??_ECComboBoxHistoryList@@UAEPAXI@Z:NEAR	; CComboBoxHistoryList::`vector deleting destructor'
EXTRN	?DrawItem@CListCtrl@@UAEXPAUtagDRAWITEMSTRUCT@@@Z:NEAR ; CListCtrl::DrawItem
EXTRN	?OnChildNotify@CListCtrl@@MAEHIIJPAJ@Z:NEAR	; CListCtrl::OnChildNotify
EXTRN	?Create@CListCtrl@@UAEHKABUtagRECT@@PAVCWnd@@I@Z:NEAR ; CListCtrl::Create
EXTRN	?CreateEx@CListCtrl@@UAEHKKABUtagRECT@@PAVCWnd@@I@Z:NEAR ; CListCtrl::CreateEx
;	COMDAT ??_7CComboBoxHistoryList@@6B@
CONST	SEGMENT
??_7CComboBoxHistoryList@@6B@ DD FLAT:??_R4CComboBoxHistoryList@@6B@ ; CComboBoxHistoryList::`vftable'
	DD	FLAT:?GetRuntimeClass@CComboBoxHistoryList@@UBEPAUCRuntimeClass@@XZ
	DD	FLAT:??_ECComboBoxHistoryList@@UAEPAXI@Z
	DD	FLAT:?Serialize@CObject@@UAEXAAVCArchive@@@Z
	DD	FLAT:?AssertValid@CObject@@UBEXXZ
	DD	FLAT:?Dump@CObject@@UBEXAAVCDumpContext@@@Z
	DD	FLAT:?OnCmdMsg@CCmdTarget@@UAEHIHPAXPAUAFX_CMDHANDLERINFO@@@Z
	DD	FLAT:?OnFinalRelease@CWnd@@UAEXXZ
	DD	FLAT:?IsInvokeAllowed@CCmdTarget@@UAEHJ@Z
	DD	FLAT:?GetDispatchIID@CCmdTarget@@UAEHPAU_GUID@@@Z
	DD	FLAT:?GetTypeInfoCount@CCmdTarget@@UAEIXZ
	DD	FLAT:?GetTypeLibCache@CCmdTarget@@UAEPAVCTypeLibCache@@XZ
	DD	FLAT:?GetTypeLib@CCmdTarget@@UAEJKPAPAUITypeLib@@@Z
	DD	FLAT:?GetMessageMap@CComboBoxHistoryList@@MBEPBUAFX_MSGMAP@@XZ
	DD	FLAT:?GetCommandMap@CCmdTarget@@MBEPBUAFX_OLECMDMAP@@XZ
	DD	FLAT:?GetDispatchMap@CCmdTarget@@MBEPBUAFX_DISPMAP@@XZ
	DD	FLAT:?GetConnectionMap@CCmdTarget@@MBEPBUAFX_CONNECTIONMAP@@XZ
	DD	FLAT:?GetInterfaceMap@CWnd@@MBEPBUAFX_INTERFACEMAP@@XZ
	DD	FLAT:?GetEventSinkMap@CCmdTarget@@MBEPBUAFX_EVENTSINKMAP@@XZ
	DD	FLAT:?OnCreateAggregates@CCmdTarget@@UAEHXZ
	DD	FLAT:?GetInterfaceHook@CCmdTarget@@UAEPAUIUnknown@@PBX@Z
	DD	FLAT:?GetExtraConnectionPoints@CCmdTarget@@MAEHPAVCPtrArray@@@Z
	DD	FLAT:?GetConnectionHook@CCmdTarget@@MAEPAUIConnectionPoint@@ABU_GUID@@@Z
	DD	FLAT:?PreSubclassWindow@CWnd@@UAEXXZ
	DD	FLAT:?Create@CWnd@@UAEHPBD0KABUtagRECT@@PAV1@IPAUCCreateContext@@@Z
	DD	FLAT:?CreateEx@CWnd@@UAEHKPBD0KABUtagRECT@@PAV1@IPAX@Z
	DD	FLAT:?CreateEx@CWnd@@UAEHKPBD0KHHHHPAUHWND__@@PAUHMENU__@@PAX@Z
	DD	FLAT:?DestroyWindow@CWnd@@UAEHXZ
	DD	FLAT:?PreCreateWindow@CWnd@@UAEHAAUtagCREATESTRUCTA@@@Z
	DD	FLAT:?CalcWindowRect@CWnd@@UAEXPAUtagRECT@@I@Z
	DD	FLAT:?OnToolHitTest@CWnd@@UBEHVCPoint@@PAUtagTOOLINFOA@@@Z
	DD	FLAT:?GetScrollBarCtrl@CWnd@@UBEPAVCScrollBar@@H@Z
	DD	FLAT:?WinHelpA@CWnd@@UAEXKI@Z
	DD	FLAT:?HtmlHelpA@CWnd@@UAEXKI@Z
	DD	FLAT:?WinHelpInternal@CWnd@@UAEXKI@Z
	DD	FLAT:?ContinueModal@CWnd@@UAEHXZ
	DD	FLAT:?EndModalLoop@CWnd@@UAEXH@Z
	DD	FLAT:?EnsureStdObj@CWnd@@UAEJXZ
	DD	FLAT:?get_accParent@CWnd@@UAEJPAPAUIDispatch@@@Z
	DD	FLAT:?get_accChildCount@CWnd@@UAEJPAJ@Z
	DD	FLAT:?get_accChild@CWnd@@UAEJUtagVARIANT@@PAPAUIDispatch@@@Z
	DD	FLAT:?get_accName@CWnd@@UAEJUtagVARIANT@@PAPA_W@Z
	DD	FLAT:?get_accValue@CWnd@@UAEJUtagVARIANT@@PAPA_W@Z
	DD	FLAT:?get_accDescription@CWnd@@UAEJUtagVARIANT@@PAPA_W@Z
	DD	FLAT:?get_accRole@CWnd@@UAEJUtagVARIANT@@PAU2@@Z
	DD	FLAT:?get_accState@CWnd@@UAEJUtagVARIANT@@PAU2@@Z
	DD	FLAT:?get_accHelp@CWnd@@UAEJUtagVARIANT@@PAPA_W@Z
	DD	FLAT:?get_accHelpTopic@CWnd@@UAEJPAPA_WUtagVARIANT@@PAJ@Z
	DD	FLAT:?get_accKeyboardShortcut@CWnd@@UAEJUtagVARIANT@@PAPA_W@Z
	DD	FLAT:?get_accFocus@CWnd@@UAEJPAUtagVARIANT@@@Z
	DD	FLAT:?get_accSelection@CWnd@@UAEJPAUtagVARIANT@@@Z
	DD	FLAT:?get_accDefaultAction@CWnd@@UAEJUtagVARIANT@@PAPA_W@Z
	DD	FLAT:?accSelect@CWnd@@UAEJJUtagVARIANT@@@Z
	DD	FLAT:?accLocation@CWnd@@UAEJPAJ000UtagVARIANT@@@Z
	DD	FLAT:?accNavigate@CWnd@@UAEJJUtagVARIANT@@PAU2@@Z
	DD	FLAT:?accHitTest@CWnd@@UAEJJJPAUtagVARIANT@@@Z
	DD	FLAT:?accDoDefaultAction@CWnd@@UAEJUtagVARIANT@@@Z
	DD	FLAT:?put_accName@CWnd@@UAEJUtagVARIANT@@PA_W@Z
	DD	FLAT:?put_accValue@CWnd@@UAEJUtagVARIANT@@PA_W@Z
	DD	FLAT:?SetProxy@CWnd@@UAEJPAUIAccessibleProxy@@@Z
	DD	FLAT:?CreateAccessibleProxy@CWnd@@UAEJIJPAJ@Z
	DD	FLAT:?OnCommand@CWnd@@MAEHIJ@Z
	DD	FLAT:?OnNotify@CWnd@@MAEHIJPAJ@Z
	DD	FLAT:?GetSuperWndProcAddr@CWnd@@MAEPAP6GJPAUHWND__@@IIJ@ZXZ
	DD	FLAT:?DoDataExchange@CWnd@@MAEXPAVCDataExchange@@@Z
	DD	FLAT:?BeginModalState@CWnd@@UAEXXZ
	DD	FLAT:?EndModalState@CWnd@@UAEXXZ
	DD	FLAT:?PreTranslateMessage@CWnd@@UAEHPAUtagMSG@@@Z
	DD	FLAT:?OnAmbientProperty@CWnd@@UAEHPAVCOleControlSite@@JPAUtagVARIANT@@@Z
	DD	FLAT:?WindowProc@CWnd@@MAEJIIJ@Z
	DD	FLAT:?OnWndMsg@CWnd@@MAEHIIJPAJ@Z
	DD	FLAT:?DefWindowProcA@CWnd@@MAEJIIJ@Z
	DD	FLAT:?PostNcDestroy@CWnd@@MAEXXZ
	DD	FLAT:?OnChildNotify@CListCtrl@@MAEHIIJPAJ@Z
	DD	FLAT:?CheckAutoCenter@CWnd@@UAEHXZ
	DD	FLAT:?IsFrameWnd@CWnd@@UBEHXZ
	DD	FLAT:?CreateControlContainer@CWnd@@MAEHPAPAVCOleControlContainer@@@Z
	DD	FLAT:?CreateControlSite@CWnd@@MAEHPAVCOleControlContainer@@PAPAVCOleControlSite@@IABU_GUID@@@Z
	DD	FLAT:?SetOccDialogInfo@CWnd@@MAEHPAU_AFX_OCC_DIALOG_INFO@@@Z
	DD	FLAT:?Create@CListCtrl@@UAEHKABUtagRECT@@PAVCWnd@@I@Z
	DD	FLAT:?CreateEx@CListCtrl@@UAEHKKABUtagRECT@@PAVCWnd@@I@Z
	DD	FLAT:?DrawItem@CListCtrl@@UAEXPAUtagDRAWITEMSTRUCT@@@Z
CONST	ENDS
;	COMDAT ??_R4CComboBoxHistoryList@@6B@
rdata$r	SEGMENT
??_R4CComboBoxHistoryList@@6B@ DD 00H			; CComboBoxHistoryList::`RTTI Complete Object Locator'
	DD	00H
	DD	00H
	DD	FLAT:??_R0?AVCComboBoxHistoryList@@@8
	DD	FLAT:??_R3CComboBoxHistoryList@@8
rdata$r	ENDS
;	COMDAT ??_R0?AVCComboBoxHistoryList@@@8
_DATA	SEGMENT
??_R0?AVCComboBoxHistoryList@@@8 DD FLAT:??_7type_info@@6B@ ; CComboBoxHistoryList `RTTI Type Descriptor'
	DD	00H
	DB	'.?AVCComboBoxHistoryList@@', 00H
_DATA	ENDS
;	COMDAT ??_R3CComboBoxHistoryList@@8
rdata$r	SEGMENT
??_R3CComboBoxHistoryList@@8 DD 00H			; CComboBoxHistoryList::`RTTI Class Hierarchy Descriptor'
	DD	00H
	DD	05H
	DD	FLAT:??_R2CComboBoxHistoryList@@8
rdata$r	ENDS
;	COMDAT ??_R2CComboBoxHistoryList@@8
rdata$r	SEGMENT
??_R2CComboBoxHistoryList@@8 DD FLAT:??_R1A@?0A@A@CComboBoxHistoryList@@8 ; CComboBoxHistoryList::`RTTI Base Class Array'
	DD	FLAT:??_R1A@?0A@A@CListCtrl@@8
	DD	FLAT:??_R1A@?0A@A@CWnd@@8
	DD	FLAT:??_R1A@?0A@A@CCmdTarget@@8
	DD	FLAT:??_R1A@?0A@A@CObject@@8
rdata$r	ENDS
;	COMDAT ??_R1A@?0A@A@CComboBoxHistoryList@@8
rdata$r	SEGMENT
??_R1A@?0A@A@CComboBoxHistoryList@@8 DD FLAT:??_R0?AVCComboBoxHistoryList@@@8 ; CComboBoxHistoryList::`RTTI Base Class Descriptor at (0,-1,0,0)'
	DD	04H
	DD	00H
	DD	0ffffffffH
	DD	00H
	DD	00H
rdata$r	ENDS
;	COMDAT ??_R1A@?0A@A@CListCtrl@@8
rdata$r	SEGMENT
??_R1A@?0A@A@CListCtrl@@8 DD FLAT:??_R0?AVCListCtrl@@@8	; CListCtrl::`RTTI Base Class Descriptor at (0,-1,0,0)'
	DD	03H
	DD	00H
	DD	0ffffffffH
	DD	00H
	DD	00H
rdata$r	ENDS
;	COMDAT ??_R0?AVCListCtrl@@@8
_DATA	SEGMENT
??_R0?AVCListCtrl@@@8 DD FLAT:??_7type_info@@6B@	; CListCtrl `RTTI Type Descriptor'
	DD	00H
	DB	'.?AVCListCtrl@@', 00H
; Function compile flags: /Odt
_DATA	ENDS
_TEXT	SEGMENT
_this$ = -4						; size = 4
??0CComboBoxHistoryList@@QAE@XZ PROC NEAR		; CComboBoxHistoryList::CComboBoxHistoryList
; _this$ = ecx

; 110  : {

  00330	55		 push	 ebp
  00331	8b ec		 mov	 ebp, esp
  00333	51		 push	 ecx
  00334	89 4d fc	 mov	 DWORD PTR _this$[ebp], ecx
  00337	8b 4d fc	 mov	 ecx, DWORD PTR _this$[ebp]
  0033a	e8 00 00 00 00	 call	 ??0CListCtrl@@QAE@XZ	; CListCtrl::CListCtrl
  0033f	8b 45 fc	 mov	 eax, DWORD PTR _this$[ebp]
  00342	c7 00 00 00 00
	00		 mov	 DWORD PTR [eax], OFFSET FLAT:??_7CComboBoxHistoryList@@6B@
  00348	8b 4d fc	 mov	 ecx, DWORD PTR _this$[ebp]
  0034b	c7 41 58 ff ff
	ff 00		 mov	 DWORD PTR [ecx+88], 16777215 ; 00ffffffH
  00352	8b 55 fc	 mov	 edx, DWORD PTR _this$[ebp]
  00355	c7 42 5c 00 00
	00 00		 mov	 DWORD PTR [edx+92], 0
  0035c	8b 45 fc	 mov	 eax, DWORD PTR _this$[ebp]
  0035f	c7 40 60 31 6a
	c5 00		 mov	 DWORD PTR [eax+96], 12937777 ; 00c56a31H
  00366	8b 4d fc	 mov	 ecx, DWORD PTR _this$[ebp]
  00369	c7 41 64 00 00
	00 00		 mov	 DWORD PTR [ecx+100], 0
  00370	8b 55 fc	 mov	 edx, DWORD PTR _this$[ebp]
  00373	c7 42 68 00 00
	00 00		 mov	 DWORD PTR [edx+104], 0
  0037a	8b 45 fc	 mov	 eax, DWORD PTR _this$[ebp]
  0037d	c7 40 6c 00 00
	00 00		 mov	 DWORD PTR [eax+108], 0

; 111  : }

  00384	8b 45 fc	 mov	 eax, DWORD PTR _this$[ebp]
  00387	8b e5		 mov	 esp, ebp
  00389	5d		 pop	 ebp
  0038a	c3		 ret	 0
??0CComboBoxHistoryList@@QAE@XZ ENDP			; CComboBoxHistoryList::CComboBoxHistoryList
_TEXT	ENDS
PUBLIC	??1CComboBoxHistoryList@@UAE@XZ			; CComboBoxHistoryList::~CComboBoxHistoryList
; Function compile flags: /Odt
;	COMDAT ??_GCComboBoxHistoryList@@UAEPAXI@Z
_TEXT	SEGMENT
_this$ = -4						; size = 4
___flags$ = 8						; size = 4
??_GCComboBoxHistoryList@@UAEPAXI@Z PROC NEAR		; CComboBoxHistoryList::`scalar deleting destructor', COMDAT
; _this$ = ecx
  00000	55		 push	 ebp
  00001	8b ec		 mov	 ebp, esp
  00003	51		 push	 ecx
  00004	89 4d fc	 mov	 DWORD PTR _this$[ebp], ecx
  00007	8b 4d fc	 mov	 ecx, DWORD PTR _this$[ebp]
  0000a	e8 00 00 00 00	 call	 ??1CComboBoxHistoryList@@UAE@XZ ; CComboBoxHistoryList::~CComboBoxHistoryList
  0000f	8b 45 08	 mov	 eax, DWORD PTR ___flags$[ebp]
  00012	83 e0 01	 and	 eax, 1
  00015	74 09		 je	 SHORT $L198331
  00017	8b 4d fc	 mov	 ecx, DWORD PTR _this$[ebp]
  0001a	51		 push	 ecx
  0001b	e8 00 00 00 00	 call	 ??3CObject@@SGXPAX@Z	; CObject::operator delete
$L198331:
  00020	8b 45 fc	 mov	 eax, DWORD PTR _this$[ebp]
  00023	8b e5		 mov	 esp, ebp
  00025	5d		 pop	 ebp
  00026	c2 04 00	 ret	 4
??_GCComboBoxHistoryList@@UAEPAXI@Z ENDP		; CComboBoxHistoryList::`scalar deleting destructor'
_TEXT	ENDS
EXTRN	??1CListCtrl@@UAE@XZ:NEAR			; CListCtrl::~CListCtrl
; Function compile flags: /Odt
_TEXT	SEGMENT
_this$ = -4						; size = 4
??1CComboBoxHistoryList@@UAE@XZ PROC NEAR		; CComboBoxHistoryList::~CComboBoxHistoryList
; _this$ = ecx

; 114  : {

  00390	55		 push	 ebp
  00391	8b ec		 mov	 ebp, esp
  00393	51		 push	 ecx
  00394	89 4d fc	 mov	 DWORD PTR _this$[ebp], ecx
  00397	8b 45 fc	 mov	 eax, DWORD PTR _this$[ebp]
  0039a	c7 00 00 00 00
	00		 mov	 DWORD PTR [eax], OFFSET FLAT:??_7CComboBoxHistoryList@@6B@

; 115  : 
; 116  : }

  003a0	8b 4d fc	 mov	 ecx, DWORD PTR _this$[ebp]
  003a3	e8 00 00 00 00	 call	 ??1CListCtrl@@UAE@XZ	; CListCtrl::~CListCtrl
  003a8	8b e5		 mov	 esp, ebp
  003aa	5d		 pop	 ebp
  003ab	c3		 ret	 0
??1CComboBoxHistoryList@@UAE@XZ ENDP			; CComboBoxHistoryList::~CComboBoxHistoryList
_TEXT	ENDS
PUBLIC	?GetThisMessageMap@CComboBoxHistoryList@@KGPBUAFX_MSGMAP@@XZ ; CComboBoxHistoryList::GetThisMessageMap
; Function compile flags: /Odt
_TEXT	SEGMENT
?GetThisMessageMap@CComboBoxHistoryList@@KGPBUAFX_MSGMAP@@XZ PROC NEAR ; CComboBoxHistoryList::GetThisMessageMap

; 118  : BEGIN_MESSAGE_MAP(CComboBoxHistoryList, CListCtrl)

  003b0	55		 push	 ebp
  003b1	8b ec		 mov	 ebp, esp
  003b3	b8 00 00 00 00	 mov	 eax, OFFSET FLAT:?messageMap@CComboBoxHistoryList@@1UAFX_MSGMAP@@B ; CComboBoxHistoryList::messageMap
  003b8	5d		 pop	 ebp
  003b9	c3		 ret	 0
?GetThisMessageMap@CComboBoxHistoryList@@KGPBUAFX_MSGMAP@@XZ ENDP ; CComboBoxHistoryList::GetThisMessageMap
; Function compile flags: /Odt
_this$ = -4						; size = 4
?GetMessageMap@CComboBoxHistoryList@@MBEPBUAFX_MSGMAP@@XZ PROC NEAR ; CComboBoxHistoryList::GetMessageMap
; _this$ = ecx

; 118  : BEGIN_MESSAGE_MAP(CComboBoxHistoryList, CListCtrl)

  003c0	55		 push	 ebp
  003c1	8b ec		 mov	 ebp, esp
  003c3	51		 push	 ecx
  003c4	89 4d fc	 mov	 DWORD PTR _this$[ebp], ecx
  003c7	b8 00 00 00 00	 mov	 eax, OFFSET FLAT:?messageMap@CComboBoxHistoryList@@1UAFX_MSGMAP@@B ; CComboBoxHistoryList::messageMap
  003cc	8b e5		 mov	 esp, ebp
  003ce	5d		 pop	 ebp
  003cf	c3		 ret	 0
?GetMessageMap@CComboBoxHistoryList@@MBEPBUAFX_MSGMAP@@XZ ENDP ; CComboBoxHistoryList::GetMessageMap
_TEXT	ENDS
PUBLIC	?SetSkin@CComboBoxHistoryList@@QAEXAAK00PAVCDibBitmap@@1@Z ; CComboBoxHistoryList::SetSkin
; Function compile flags: /Odt
_TEXT	SEGMENT
_this$ = -4						; size = 4
_colorBkg$ = 8						; size = 4
_colorText$ = 12					; size = 4
_colorSelect$ = 16					; size = 4
_pBitmapVert$ = 20					; size = 4
_pBitmapHorz$ = 24					; size = 4
?SetSkin@CComboBoxHistoryList@@QAEXAAK00PAVCDibBitmap@@1@Z PROC NEAR ; CComboBoxHistoryList::SetSkin
; _this$ = ecx

; 130  : {

  003d0	55		 push	 ebp
  003d1	8b ec		 mov	 ebp, esp
  003d3	51		 push	 ecx
  003d4	89 4d fc	 mov	 DWORD PTR _this$[ebp], ecx

; 131  : 	m_colorBkg=colorBkg;

  003d7	8b 45 fc	 mov	 eax, DWORD PTR _this$[ebp]
  003da	8b 4d 08	 mov	 ecx, DWORD PTR _colorBkg$[ebp]
  003dd	8b 11		 mov	 edx, DWORD PTR [ecx]
  003df	89 50 58	 mov	 DWORD PTR [eax+88], edx

; 132  : 	m_colorText=colorText;

  003e2	8b 45 fc	 mov	 eax, DWORD PTR _this$[ebp]
  003e5	8b 4d 0c	 mov	 ecx, DWORD PTR _colorText$[ebp]
  003e8	8b 11		 mov	 edx, DWORD PTR [ecx]
  003ea	89 50 5c	 mov	 DWORD PTR [eax+92], edx

; 133  : 	m_colorSelect=colorSelect;

  003ed	8b 45 fc	 mov	 eax, DWORD PTR _this$[ebp]
  003f0	8b 4d 10	 mov	 ecx, DWORD PTR _colorSelect$[ebp]
  003f3	8b 11		 mov	 edx, DWORD PTR [ecx]
  003f5	89 50 60	 mov	 DWORD PTR [eax+96], edx

; 134  : 	m_pBitmapScrollHorz = pBitmapHorz;

  003f8	8b 45 fc	 mov	 eax, DWORD PTR _this$[ebp]
  003fb	8b 4d 18	 mov	 ecx, DWORD PTR _pBitmapHorz$[ebp]
  003fe	89 48 6c	 mov	 DWORD PTR [eax+108], ecx

; 135  : 	m_pBitmapScrollVert = pBitmapVert;

  00401	8b 55 fc	 mov	 edx, DWORD PTR _this$[ebp]
  00404	8b 45 14	 mov	 eax, DWORD PTR _pBitmapVert$[ebp]
  00407	89 42 68	 mov	 DWORD PTR [edx+104], eax

; 136  : }

  0040a	8b e5		 mov	 esp, ebp
  0040c	5d		 pop	 ebp
  0040d	c2 14 00	 ret	 20			; 00000014H
?SetSkin@CComboBoxHistoryList@@QAEXAAK00PAVCDibBitmap@@1@Z ENDP ; CComboBoxHistoryList::SetSkin
_TEXT	ENDS
PUBLIC	?GetFirstSelectedItemPosition@CListCtrl@@QBEPAU__POSITION@@XZ ; CListCtrl::GetFirstSelectedItemPosition
PUBLIC	?GetNextSelectedItem@CListCtrl@@QBEHAAPAU__POSITION@@@Z ; CListCtrl::GetNextSelectedItem
PUBLIC	??0CSize@@QAE@XZ				; CSize::CSize
PUBLIC	?DrawTextA@CDC@@QAEHABV?$CStringT@DV?$StrTraitMFC_DLL@DV?$ChTraitsCRT@D@ATL@@@@@ATL@@PAUtagRECT@@I@Z ; CDC::DrawTextA
PUBLIC	?GetTextExtent@CDC@@QBE?AVCSize@@ABV?$CStringT@DV?$StrTraitMFC_DLL@DV?$ChTraitsCRT@D@ATL@@@@@ATL@@@Z ; CDC::GetTextExtent
EXTRN	?FromHandle@CDC@@SGPAV1@PAUHDC__@@@Z:NEAR	; CDC::FromHandle
EXTRN	?GetItemText@CListCtrl@@QBE?AV?$CStringT@DV?$StrTraitMFC_DLL@DV?$ChTraitsCRT@D@ATL@@@@@ATL@@HH@Z:NEAR ; CListCtrl::GetItemText
EXTRN	?GetSubItemRect@CListCtrl@@QAEHHHHAAVCRect@@@Z:NEAR ; CListCtrl::GetSubItemRect
EXTRN	__imp_??4?$CStringT@DV?$StrTraitMFC_DLL@DV?$ChTraitsCRT@D@ATL@@@@@ATL@@QAEAAV01@ABV01@@Z:NEAR
xdata$x	SEGMENT
$T200168 DD	0ffffffffH
	DD	FLAT:$L200163
	DD	00H
	DD	FLAT:$L200164
$T200166 DD	019930520H
	DD	02H
	DD	FLAT:$T200168
	DD	2 DUP(00H)
	DD	2 DUP(00H)
; Function compile flags: /Odt
xdata$x	ENDS
_TEXT	SEGMENT
tv163 = -92						; size = 4
tv78 = -88						; size = 4
tv65 = -84						; size = 4
_this$ = -80						; size = 4
$T200162 = -76						; size = 8
$T200161 = -68						; size = 4
_str$198409 = -64					; size = 4
_pDC$198408 = -60					; size = 4
_msize$198413 = -56					; size = 8
_nFormat$198411 = -48					; size = 4
_rect$198410 = -44					; size = 16
_nitem$198403 = -28					; size = 4
_pos$198406 = -24					; size = 4
_nsubitem$198405 = -20					; size = 4
_lplvcd$ = -16						; size = 4
__$EHRec$ = -12						; size = 12
_pNMHDR$ = 8						; size = 4
_pResult$ = 12						; size = 4
?OnNMCustomdraw@CComboBoxHistoryList@@IAEXPAUtagNMHDR@@PAJ@Z PROC NEAR ; CComboBoxHistoryList::OnNMCustomdraw
; _this$ = ecx

; 139  : {

  00410	55		 push	 ebp
  00411	8b ec		 mov	 ebp, esp
  00413	6a ff		 push	 -1
  00415	68 00 00 00 00	 push	 __ehhandler$?OnNMCustomdraw@CComboBoxHistoryList@@IAEXPAUtagNMHDR@@PAJ@Z
  0041a	64 a1 00 00 00
	00		 mov	 eax, DWORD PTR fs:__except_list
  00420	50		 push	 eax
  00421	64 89 25 00 00
	00 00		 mov	 DWORD PTR fs:__except_list, esp
  00428	83 ec 50	 sub	 esp, 80			; 00000050H
  0042b	89 4d b0	 mov	 DWORD PTR _this$[ebp], ecx

; 140  : 	LPNMLVCUSTOMDRAW   lplvcd   =   (LPNMLVCUSTOMDRAW)pNMHDR;   

  0042e	8b 45 08	 mov	 eax, DWORD PTR _pNMHDR$[ebp]
  00431	89 45 f0	 mov	 DWORD PTR _lplvcd$[ebp], eax

; 141  : 
; 142  : 	switch(lplvcd->nmcd.dwDrawStage)   

  00434	8b 4d f0	 mov	 ecx, DWORD PTR _lplvcd$[ebp]
  00437	8b 51 0c	 mov	 edx, DWORD PTR [ecx+12]
  0043a	89 55 ac	 mov	 DWORD PTR tv65[ebp], edx
  0043d	83 7d ac 01	 cmp	 DWORD PTR tv65[ebp], 1
  00441	74 17		 je	 SHORT $L198400
  00443	81 7d ac 01 00
	01 00		 cmp	 DWORD PTR tv65[ebp], 65537 ; 00010001H
  0044a	74 1c		 je	 SHORT $L198401
  0044c	81 7d ac 01 00
	03 00		 cmp	 DWORD PTR tv65[ebp], 196609 ; 00030001H
  00453	74 21		 je	 SHORT $L198402
  00455	e9 92 01 00 00	 jmp	 $L198393
$L198400:

; 143  : 	{   
; 144  : 	case CDDS_PREPAINT:   
; 145  : 		*pResult=CDRF_NOTIFYITEMDRAW;   

  0045a	8b 45 0c	 mov	 eax, DWORD PTR _pResult$[ebp]
  0045d	c7 00 20 00 00
	00		 mov	 DWORD PTR [eax], 32	; 00000020H

; 146  : 		break;   

  00463	e9 84 01 00 00	 jmp	 $L198393
$L198401:

; 147  : 
; 148  : 	case CDDS_ITEMPREPAINT:   
; 149  : 		*pResult=CDRF_NOTIFYSUBITEMDRAW;   

  00468	8b 4d 0c	 mov	 ecx, DWORD PTR _pResult$[ebp]
  0046b	c7 01 20 00 00
	00		 mov	 DWORD PTR [ecx], 32	; 00000020H

; 150  : 		break;   

  00471	e9 76 01 00 00	 jmp	 $L198393
$L198402:

; 151  : 
; 152  : 	case CDDS_ITEMPREPAINT|CDDS_SUBITEM:   
; 153  : 		{   
; 154  : 			int nitem=static_cast<int>(lplvcd->nmcd.dwItemSpec);   

  00476	8b 55 f0	 mov	 edx, DWORD PTR _lplvcd$[ebp]
  00479	8b 42 24	 mov	 eax, DWORD PTR [edx+36]
  0047c	89 45 e4	 mov	 DWORD PTR _nitem$198403[ebp], eax

; 155  : 			int nsubitem=lplvcd->iSubItem;   

  0047f	8b 4d f0	 mov	 ecx, DWORD PTR _lplvcd$[ebp]
  00482	8b 51 38	 mov	 edx, DWORD PTR [ecx+56]
  00485	89 55 ec	 mov	 DWORD PTR _nsubitem$198405[ebp], edx

; 156  : 			POSITION pos=GetFirstSelectedItemPosition();   

  00488	8b 4d b0	 mov	 ecx, DWORD PTR _this$[ebp]
  0048b	e8 00 00 00 00	 call	 ?GetFirstSelectedItemPosition@CListCtrl@@QBEPAU__POSITION@@XZ ; CListCtrl::GetFirstSelectedItemPosition
  00490	89 45 e8	 mov	 DWORD PTR _pos$198406[ebp], eax

; 157  : 			if(nitem==GetNextSelectedItem(pos))

  00493	8d 45 e8	 lea	 eax, DWORD PTR _pos$198406[ebp]
  00496	50		 push	 eax
  00497	8b 4d b0	 mov	 ecx, DWORD PTR _this$[ebp]
  0049a	e8 00 00 00 00	 call	 ?GetNextSelectedItem@CListCtrl@@QBEHAAPAU__POSITION@@@Z ; CListCtrl::GetNextSelectedItem
  0049f	39 45 e4	 cmp	 DWORD PTR _nitem$198403[ebp], eax
  004a2	0f 85 23 01 00
	00		 jne	 $L198407

; 158  : 			{ 
; 159  : 				CDC* pDC=CDC::FromHandle(lplvcd->nmcd.hdc);   

  004a8	8b 4d f0	 mov	 ecx, DWORD PTR _lplvcd$[ebp]
  004ab	8b 51 10	 mov	 edx, DWORD PTR [ecx+16]
  004ae	52		 push	 edx
  004af	e8 00 00 00 00	 call	 ?FromHandle@CDC@@SGPAV1@PAUHDC__@@@Z ; CDC::FromHandle
  004b4	89 45 c4	 mov	 DWORD PTR _pDC$198408[ebp], eax

; 160  : 				CString str;   

  004b7	8d 4d c0	 lea	 ecx, DWORD PTR _str$198409[ebp]
  004ba	ff 15 00 00 00
	00		 call	 DWORD PTR __imp_??0?$CStringT@DV?$StrTraitMFC_DLL@DV?$ChTraitsCRT@D@ATL@@@@@ATL@@QAE@XZ
  004c0	c7 45 fc 00 00
	00 00		 mov	 DWORD PTR __$EHRec$[ebp+8], 0

; 161  : 				CRect rect;   

  004c7	8d 4d d4	 lea	 ecx, DWORD PTR _rect$198410[ebp]
  004ca	e8 00 00 00 00	 call	 ??0CRect@@QAE@XZ	; CRect::CRect

; 162  : 				UINT nFormat=DT_VCENTER|DT_SINGLELINE;   

  004cf	c7 45 d0 24 00
	00 00		 mov	 DWORD PTR _nFormat$198411[ebp], 36 ; 00000024H

; 163  : 				GetSubItemRect(nitem,nsubitem,LVIR_BOUNDS,rect);   

  004d6	8d 45 d4	 lea	 eax, DWORD PTR _rect$198410[ebp]
  004d9	50		 push	 eax
  004da	6a 00		 push	 0
  004dc	8b 4d ec	 mov	 ecx, DWORD PTR _nsubitem$198405[ebp]
  004df	51		 push	 ecx
  004e0	8b 55 e4	 mov	 edx, DWORD PTR _nitem$198403[ebp]
  004e3	52		 push	 edx
  004e4	8b 4d b0	 mov	 ecx, DWORD PTR _this$[ebp]
  004e7	e8 00 00 00 00	 call	 ?GetSubItemRect@CListCtrl@@QAEHHHHAAVCRect@@@Z ; CListCtrl::GetSubItemRect

; 164  : 				str=GetItemText(nitem,nsubitem);   

  004ec	8b 45 ec	 mov	 eax, DWORD PTR _nsubitem$198405[ebp]
  004ef	50		 push	 eax
  004f0	8b 4d e4	 mov	 ecx, DWORD PTR _nitem$198403[ebp]
  004f3	51		 push	 ecx
  004f4	8d 55 bc	 lea	 edx, DWORD PTR $T200161[ebp]
  004f7	52		 push	 edx
  004f8	8b 4d b0	 mov	 ecx, DWORD PTR _this$[ebp]
  004fb	e8 00 00 00 00	 call	 ?GetItemText@CListCtrl@@QBE?AV?$CStringT@DV?$StrTraitMFC_DLL@DV?$ChTraitsCRT@D@ATL@@@@@ATL@@HH@Z ; CListCtrl::GetItemText
  00500	89 45 a8	 mov	 DWORD PTR tv78[ebp], eax
  00503	8b 45 a8	 mov	 eax, DWORD PTR tv78[ebp]
  00506	89 45 a4	 mov	 DWORD PTR tv163[ebp], eax
  00509	c6 45 fc 01	 mov	 BYTE PTR __$EHRec$[ebp+8], 1
  0050d	8b 4d a4	 mov	 ecx, DWORD PTR tv163[ebp]
  00510	51		 push	 ecx
  00511	8d 4d c0	 lea	 ecx, DWORD PTR _str$198409[ebp]
  00514	ff 15 00 00 00
	00		 call	 DWORD PTR __imp_??4?$CStringT@DV?$StrTraitMFC_DLL@DV?$ChTraitsCRT@D@ATL@@@@@ATL@@QAEAAV01@ABV01@@Z
  0051a	c6 45 fc 00	 mov	 BYTE PTR __$EHRec$[ebp+8], 0
  0051e	8d 4d bc	 lea	 ecx, DWORD PTR $T200161[ebp]
  00521	ff 15 00 00 00
	00		 call	 DWORD PTR __imp_??1?$CStringT@DV?$StrTraitMFC_DLL@DV?$ChTraitsCRT@D@ATL@@@@@ATL@@QAE@XZ

; 165  : 				pDC->SetTextColor(m_colorBkg);

  00527	8b 55 b0	 mov	 edx, DWORD PTR _this$[ebp]
  0052a	8b 42 58	 mov	 eax, DWORD PTR [edx+88]
  0052d	50		 push	 eax
  0052e	8b 4d c4	 mov	 ecx, DWORD PTR _pDC$198408[ebp]
  00531	8b 11		 mov	 edx, DWORD PTR [ecx]
  00533	8b 4d c4	 mov	 ecx, DWORD PTR _pDC$198408[ebp]
  00536	ff 52 38	 call	 DWORD PTR [edx+56]

; 166  : 				rect.left+=2;

  00539	8b 45 d4	 mov	 eax, DWORD PTR _rect$198410[ebp]
  0053c	83 c0 02	 add	 eax, 2
  0053f	89 45 d4	 mov	 DWORD PTR _rect$198410[ebp], eax

; 167  : 				rect.right-=1;

  00542	8b 4d dc	 mov	 ecx, DWORD PTR _rect$198410[ebp+8]
  00545	83 e9 01	 sub	 ecx, 1
  00548	89 4d dc	 mov	 DWORD PTR _rect$198410[ebp+8], ecx

; 168  : 				pDC->FillSolidRect(&rect,m_colorSelect);

  0054b	8b 55 b0	 mov	 edx, DWORD PTR _this$[ebp]
  0054e	8b 42 60	 mov	 eax, DWORD PTR [edx+96]
  00551	50		 push	 eax
  00552	8d 4d d4	 lea	 ecx, DWORD PTR _rect$198410[ebp]
  00555	51		 push	 ecx
  00556	8b 4d c4	 mov	 ecx, DWORD PTR _pDC$198408[ebp]
  00559	e8 00 00 00 00	 call	 ?FillSolidRect@CDC@@QAEXPBUtagRECT@@K@Z ; CDC::FillSolidRect

; 169  : 				pDC->SetBkColor(m_colorBkg);

  0055e	8b 55 b0	 mov	 edx, DWORD PTR _this$[ebp]
  00561	8b 42 58	 mov	 eax, DWORD PTR [edx+88]
  00564	50		 push	 eax
  00565	8b 4d c4	 mov	 ecx, DWORD PTR _pDC$198408[ebp]
  00568	8b 11		 mov	 edx, DWORD PTR [ecx]
  0056a	8b 4d c4	 mov	 ecx, DWORD PTR _pDC$198408[ebp]
  0056d	ff 52 34	 call	 DWORD PTR [edx+52]

; 170  : 				rect.left+=2;

  00570	8b 45 d4	 mov	 eax, DWORD PTR _rect$198410[ebp]
  00573	83 c0 02	 add	 eax, 2
  00576	89 45 d4	 mov	 DWORD PTR _rect$198410[ebp], eax

; 171  : 				CSize msize;   

  00579	8d 4d c8	 lea	 ecx, DWORD PTR _msize$198413[ebp]
  0057c	e8 00 00 00 00	 call	 ??0CSize@@QAE@XZ	; CSize::CSize

; 172  : 				msize=pDC->GetTextExtent(str);	   

  00581	8d 4d c0	 lea	 ecx, DWORD PTR _str$198409[ebp]
  00584	51		 push	 ecx
  00585	8d 55 b4	 lea	 edx, DWORD PTR $T200162[ebp]
  00588	52		 push	 edx
  00589	8b 4d c4	 mov	 ecx, DWORD PTR _pDC$198408[ebp]
  0058c	e8 00 00 00 00	 call	 ?GetTextExtent@CDC@@QBE?AVCSize@@ABV?$CStringT@DV?$StrTraitMFC_DLL@DV?$ChTraitsCRT@D@ATL@@@@@ATL@@@Z ; CDC::GetTextExtent
  00591	8b 08		 mov	 ecx, DWORD PTR [eax]
  00593	8b 50 04	 mov	 edx, DWORD PTR [eax+4]
  00596	89 4d c8	 mov	 DWORD PTR _msize$198413[ebp], ecx
  00599	89 55 cc	 mov	 DWORD PTR _msize$198413[ebp+4], edx

; 173  : 				pDC->DrawText(str,&rect,nFormat);

  0059c	8b 45 d0	 mov	 eax, DWORD PTR _nFormat$198411[ebp]
  0059f	50		 push	 eax
  005a0	8d 4d d4	 lea	 ecx, DWORD PTR _rect$198410[ebp]
  005a3	51		 push	 ecx
  005a4	8d 55 c0	 lea	 edx, DWORD PTR _str$198409[ebp]
  005a7	52		 push	 edx
  005a8	8b 4d c4	 mov	 ecx, DWORD PTR _pDC$198408[ebp]
  005ab	e8 00 00 00 00	 call	 ?DrawTextA@CDC@@QAEHABV?$CStringT@DV?$StrTraitMFC_DLL@DV?$ChTraitsCRT@D@ATL@@@@@ATL@@PAUtagRECT@@I@Z ; CDC::DrawTextA

; 174  : 
; 175  : 				*pResult=CDRF_SKIPDEFAULT;

  005b0	8b 45 0c	 mov	 eax, DWORD PTR _pResult$[ebp]
  005b3	c7 00 04 00 00
	00		 mov	 DWORD PTR [eax], 4

; 176  : 
; 177  : 			}  

  005b9	c7 45 fc ff ff
	ff ff		 mov	 DWORD PTR __$EHRec$[ebp+8], -1
  005c0	8d 4d c0	 lea	 ecx, DWORD PTR _str$198409[ebp]
  005c3	ff 15 00 00 00
	00		 call	 DWORD PTR __imp_??1?$CStringT@DV?$StrTraitMFC_DLL@DV?$ChTraitsCRT@D@ATL@@@@@ATL@@QAE@XZ

; 178  : 			else

  005c9	eb 21		 jmp	 SHORT $L198393
$L198407:

; 179  : 			{
; 180  : 				lplvcd->clrTextBk=m_colorBkg;

  005cb	8b 4d f0	 mov	 ecx, DWORD PTR _lplvcd$[ebp]
  005ce	8b 55 b0	 mov	 edx, DWORD PTR _this$[ebp]
  005d1	8b 42 58	 mov	 eax, DWORD PTR [edx+88]
  005d4	89 41 34	 mov	 DWORD PTR [ecx+52], eax

; 181  : 				lplvcd->clrText=m_colorText;

  005d7	8b 4d f0	 mov	 ecx, DWORD PTR _lplvcd$[ebp]
  005da	8b 55 b0	 mov	 edx, DWORD PTR _this$[ebp]
  005dd	8b 42 5c	 mov	 eax, DWORD PTR [edx+92]
  005e0	89 41 30	 mov	 DWORD PTR [ecx+48], eax

; 182  : 				*pResult=CDRF_DODEFAULT;   

  005e3	8b 4d 0c	 mov	 ecx, DWORD PTR _pResult$[ebp]
  005e6	c7 01 00 00 00
	00		 mov	 DWORD PTR [ecx], 0
$L198393:

; 183  : 			}
; 184  : 			break;   
; 185  : 		}
; 186  : 	}
; 187  : }

  005ec	8b 4d f4	 mov	 ecx, DWORD PTR __$EHRec$[ebp]
  005ef	64 89 0d 00 00
	00 00		 mov	 DWORD PTR fs:__except_list, ecx
  005f6	8b e5		 mov	 esp, ebp
  005f8	5d		 pop	 ebp
  005f9	c2 08 00	 ret	 8
_TEXT	ENDS
text$x	SEGMENT
$L200163:
  0001b	8d 4d c0	 lea	 ecx, DWORD PTR _str$198409[ebp]
  0001e	ff 25 00 00 00
	00		 jmp	 DWORD PTR __imp_??1?$CStringT@DV?$StrTraitMFC_DLL@DV?$ChTraitsCRT@D@ATL@@@@@ATL@@QAE@XZ
$L200164:
  00024	8d 4d bc	 lea	 ecx, DWORD PTR $T200161[ebp]
  00027	ff 25 00 00 00
	00		 jmp	 DWORD PTR __imp_??1?$CStringT@DV?$StrTraitMFC_DLL@DV?$ChTraitsCRT@D@ATL@@@@@ATL@@QAE@XZ
__ehhandler$?OnNMCustomdraw@CComboBoxHistoryList@@IAEXPAUtagNMHDR@@PAJ@Z:
  0002d	b8 00 00 00 00	 mov	 eax, OFFSET FLAT:$T200166
  00032	e9 00 00 00 00	 jmp	 ___CxxFrameHandler
text$x	ENDS
?OnNMCustomdraw@CComboBoxHistoryList@@IAEXPAUtagNMHDR@@PAJ@Z ENDP ; CComboBoxHistoryList::OnNMCustomdraw
; Function compile flags: /Odt
_TEXT	SEGMENT
_this$ = -20						; size = 4
_rectList$ = -16					; size = 16
_pDC$ = 8						; size = 4
?OnEraseBkgnd@CComboBoxHistoryList@@IAEHPAVCDC@@@Z PROC NEAR ; CComboBoxHistoryList::OnEraseBkgnd
; _this$ = ecx

; 191  : {

  00600	55		 push	 ebp
  00601	8b ec		 mov	 ebp, esp
  00603	83 ec 14	 sub	 esp, 20			; 00000014H
  00606	89 4d ec	 mov	 DWORD PTR _this$[ebp], ecx

; 192  : 	CRect rectList;

  00609	8d 4d f0	 lea	 ecx, DWORD PTR _rectList$[ebp]
  0060c	e8 00 00 00 00	 call	 ??0CRect@@QAE@XZ	; CRect::CRect

; 193  : 	GetClientRect(&rectList);

  00611	8d 45 f0	 lea	 eax, DWORD PTR _rectList$[ebp]
  00614	50		 push	 eax
  00615	8b 4d ec	 mov	 ecx, DWORD PTR _this$[ebp]
  00618	e8 00 00 00 00	 call	 ?GetClientRect@CWnd@@QBEXPAUtagRECT@@@Z ; CWnd::GetClientRect

; 194  : 	pDC->FillSolidRect(&rectList,m_colorBkg);

  0061d	8b 4d ec	 mov	 ecx, DWORD PTR _this$[ebp]
  00620	8b 51 58	 mov	 edx, DWORD PTR [ecx+88]
  00623	52		 push	 edx
  00624	8d 45 f0	 lea	 eax, DWORD PTR _rectList$[ebp]
  00627	50		 push	 eax
  00628	8b 4d 08	 mov	 ecx, DWORD PTR _pDC$[ebp]
  0062b	e8 00 00 00 00	 call	 ?FillSolidRect@CDC@@QAEXPBUtagRECT@@K@Z ; CDC::FillSolidRect

; 195  : 	return FALSE;

  00630	33 c0		 xor	 eax, eax

; 196  : }

  00632	8b e5		 mov	 esp, ebp
  00634	5d		 pop	 ebp
  00635	c2 04 00	 ret	 4
?OnEraseBkgnd@CComboBoxHistoryList@@IAEHPAVCDC@@@Z ENDP	; CComboBoxHistoryList::OnEraseBkgnd
_TEXT	ENDS
PUBLIC	?GetWindowRect@CWnd@@QBEXPAUtagRECT@@@Z		; CWnd::GetWindowRect
PUBLIC	??0CPoint@@QAE@XZ				; CPoint::CPoint
EXTRN	__imp__GetCursorPos@4:NEAR
EXTRN	__imp__PtInRect@12:NEAR
xdata$x	SEGMENT
$T200176 DD	0ffffffffH
	DD	FLAT:$L200172
$T200174 DD	019930520H
	DD	01H
	DD	FLAT:$T200176
	DD	2 DUP(00H)
	DD	2 DUP(00H)
; Function compile flags: /Odt
xdata$x	ENDS
_TEXT	SEGMENT
_this$ = -60						; size = 4
$T200171 = -56						; size = 8
_strItemText$198433 = -48				; size = 4
_iItem$198432 = -44					; size = 4
_pos$ = -40						; size = 4
_pt$ = -36						; size = 8
_rect$ = -28						; size = 16
__$EHRec$ = -12						; size = 12
_nFlags$ = 8						; size = 4
_point$ = 12						; size = 8
?OnLButtonDown@CComboBoxHistoryList@@IAEXIVCPoint@@@Z PROC NEAR ; CComboBoxHistoryList::OnLButtonDown
; _this$ = ecx

; 199  : {

  00640	55		 push	 ebp
  00641	8b ec		 mov	 ebp, esp
  00643	6a ff		 push	 -1
  00645	68 00 00 00 00	 push	 __ehhandler$?OnLButtonDown@CComboBoxHistoryList@@IAEXIVCPoint@@@Z
  0064a	64 a1 00 00 00
	00		 mov	 eax, DWORD PTR fs:__except_list
  00650	50		 push	 eax
  00651	64 89 25 00 00
	00 00		 mov	 DWORD PTR fs:__except_list, esp
  00658	83 ec 30	 sub	 esp, 48			; 00000030H
  0065b	89 4d c4	 mov	 DWORD PTR _this$[ebp], ecx

; 200  : 	CRect rect;

  0065e	8d 4d e4	 lea	 ecx, DWORD PTR _rect$[ebp]
  00661	e8 00 00 00 00	 call	 ??0CRect@@QAE@XZ	; CRect::CRect

; 201  : 	GetWindowRect(&rect);

  00666	8d 45 e4	 lea	 eax, DWORD PTR _rect$[ebp]
  00669	50		 push	 eax
  0066a	8b 4d c4	 mov	 ecx, DWORD PTR _this$[ebp]
  0066d	e8 00 00 00 00	 call	 ?GetWindowRect@CWnd@@QBEXPAUtagRECT@@@Z ; CWnd::GetWindowRect

; 202  : 
; 203  : 	CPoint pt;

  00672	8d 4d dc	 lea	 ecx, DWORD PTR _pt$[ebp]
  00675	e8 00 00 00 00	 call	 ??0CPoint@@QAE@XZ	; CPoint::CPoint

; 204  : 	GetCursorPos(&pt);

  0067a	8d 4d dc	 lea	 ecx, DWORD PTR _pt$[ebp]
  0067d	51		 push	 ecx
  0067e	ff 15 00 00 00
	00		 call	 DWORD PTR __imp__GetCursorPos@4

; 205  : 	if (!PtInRect(&rect,pt))

  00684	8b 55 dc	 mov	 edx, DWORD PTR _pt$[ebp]
  00687	89 55 c8	 mov	 DWORD PTR $T200171[ebp], edx
  0068a	8b 45 e0	 mov	 eax, DWORD PTR _pt$[ebp+4]
  0068d	89 45 cc	 mov	 DWORD PTR $T200171[ebp+4], eax
  00690	8b 4d cc	 mov	 ecx, DWORD PTR $T200171[ebp+4]
  00693	51		 push	 ecx
  00694	8b 55 c8	 mov	 edx, DWORD PTR $T200171[ebp]
  00697	52		 push	 edx
  00698	8d 45 e4	 lea	 eax, DWORD PTR _rect$[ebp]
  0069b	50		 push	 eax
  0069c	ff 15 00 00 00
	00		 call	 DWORD PTR __imp__PtInRect@12
  006a2	85 c0		 test	 eax, eax
  006a4	75 16		 jne	 SHORT $L198429

; 206  : 	{
; 207  : 		m_pMsgWnd->SendMessage(MSG_EDIT_CLICKED);

  006a6	6a 00		 push	 0
  006a8	6a 00		 push	 0
  006aa	68 66 04 00 00	 push	 1126			; 00000466H
  006af	8b 4d c4	 mov	 ecx, DWORD PTR _this$[ebp]
  006b2	8b 49 54	 mov	 ecx, DWORD PTR [ecx+84]
  006b5	e8 00 00 00 00	 call	 ?SendMessageA@CWnd@@QAEJIIJ@Z ; CWnd::SendMessageA

; 208  : 		return;

  006ba	eb 75		 jmp	 SHORT $L198425
$L198429:

; 209  : 	}
; 210  : 
; 211  : 	POSITION pos=GetFirstSelectedItemPosition();

  006bc	8b 4d c4	 mov	 ecx, DWORD PTR _this$[ebp]
  006bf	e8 00 00 00 00	 call	 ?GetFirstSelectedItemPosition@CListCtrl@@QBEPAU__POSITION@@XZ ; CListCtrl::GetFirstSelectedItemPosition
  006c4	89 45 d8	 mov	 DWORD PTR _pos$[ebp], eax

; 212  : 	if (pos)

  006c7	83 7d d8 00	 cmp	 DWORD PTR _pos$[ebp], 0
  006cb	74 50		 je	 SHORT $L198431

; 213  : 	{
; 214  : 		int iItem=GetNextSelectedItem(pos);

  006cd	8d 55 d8	 lea	 edx, DWORD PTR _pos$[ebp]
  006d0	52		 push	 edx
  006d1	8b 4d c4	 mov	 ecx, DWORD PTR _this$[ebp]
  006d4	e8 00 00 00 00	 call	 ?GetNextSelectedItem@CListCtrl@@QBEHAAPAU__POSITION@@@Z ; CListCtrl::GetNextSelectedItem
  006d9	89 45 d4	 mov	 DWORD PTR _iItem$198432[ebp], eax

; 215  : 		CString strItemText=GetItemText(iItem,0);

  006dc	6a 00		 push	 0
  006de	8b 45 d4	 mov	 eax, DWORD PTR _iItem$198432[ebp]
  006e1	50		 push	 eax
  006e2	8d 4d d0	 lea	 ecx, DWORD PTR _strItemText$198433[ebp]
  006e5	51		 push	 ecx
  006e6	8b 4d c4	 mov	 ecx, DWORD PTR _this$[ebp]
  006e9	e8 00 00 00 00	 call	 ?GetItemText@CListCtrl@@QBE?AV?$CStringT@DV?$StrTraitMFC_DLL@DV?$ChTraitsCRT@D@ATL@@@@@ATL@@HH@Z ; CListCtrl::GetItemText
  006ee	c7 45 fc 00 00
	00 00		 mov	 DWORD PTR __$EHRec$[ebp+8], 0

; 216  : 		m_pMsgWnd->SendMessage(MSG_LIST_CLICKED,(WPARAM)&strItemText,(LPARAM)iItem);

  006f5	8b 55 d4	 mov	 edx, DWORD PTR _iItem$198432[ebp]
  006f8	52		 push	 edx
  006f9	8d 45 d0	 lea	 eax, DWORD PTR _strItemText$198433[ebp]
  006fc	50		 push	 eax
  006fd	68 65 04 00 00	 push	 1125			; 00000465H
  00702	8b 4d c4	 mov	 ecx, DWORD PTR _this$[ebp]
  00705	8b 49 54	 mov	 ecx, DWORD PTR [ecx+84]
  00708	e8 00 00 00 00	 call	 ?SendMessageA@CWnd@@QAEJIIJ@Z ; CWnd::SendMessageA

; 217  : 	}

  0070d	c7 45 fc ff ff
	ff ff		 mov	 DWORD PTR __$EHRec$[ebp+8], -1
  00714	8d 4d d0	 lea	 ecx, DWORD PTR _strItemText$198433[ebp]
  00717	ff 15 00 00 00
	00		 call	 DWORD PTR __imp_??1?$CStringT@DV?$StrTraitMFC_DLL@DV?$ChTraitsCRT@D@ATL@@@@@ATL@@QAE@XZ
$L198431:

; 218  : 	CListCtrl::OnLButtonDown(nFlags, point);

  0071d	8b 55 10	 mov	 edx, DWORD PTR _point$[ebp+4]
  00720	52		 push	 edx
  00721	8b 45 0c	 mov	 eax, DWORD PTR _point$[ebp]
  00724	50		 push	 eax
  00725	8b 4d 08	 mov	 ecx, DWORD PTR _nFlags$[ebp]
  00728	51		 push	 ecx
  00729	8b 4d c4	 mov	 ecx, DWORD PTR _this$[ebp]
  0072c	e8 00 00 00 00	 call	 ?OnLButtonDown@CWnd@@IAEXIVCPoint@@@Z ; CWnd::OnLButtonDown
$L198425:

; 219  : }

  00731	8b 4d f4	 mov	 ecx, DWORD PTR __$EHRec$[ebp]
  00734	64 89 0d 00 00
	00 00		 mov	 DWORD PTR fs:__except_list, ecx
  0073b	8b e5		 mov	 esp, ebp
  0073d	5d		 pop	 ebp
  0073e	c2 0c 00	 ret	 12			; 0000000cH
_TEXT	ENDS
text$x	SEGMENT
$L200172:
  00037	8d 4d d0	 lea	 ecx, DWORD PTR _strItemText$198433[ebp]
  0003a	ff 25 00 00 00
	00		 jmp	 DWORD PTR __imp_??1?$CStringT@DV?$StrTraitMFC_DLL@DV?$ChTraitsCRT@D@ATL@@@@@ATL@@QAE@XZ
__ehhandler$?OnLButtonDown@CComboBoxHistoryList@@IAEXIVCPoint@@@Z:
  00040	b8 00 00 00 00	 mov	 eax, OFFSET FLAT:$T200174
  00045	e9 00 00 00 00	 jmp	 ___CxxFrameHandler
text$x	ENDS
?OnLButtonDown@CComboBoxHistoryList@@IAEXIVCPoint@@@Z ENDP ; CComboBoxHistoryList::OnLButtonDown
PUBLIC	?SubItemHitTest@CListCtrl@@QAEHPAUtagLVHITTESTINFO@@@Z ; CListCtrl::SubItemHitTest
PUBLIC	?OnMouseMove@CWnd@@IAEXIVCPoint@@@Z		; CWnd::OnMouseMove
EXTRN	?SetItemState@CListCtrl@@QAEHHII@Z:NEAR		; CListCtrl::SetItemState
EXTRN	__imp__GetCapture@0:NEAR
EXTRN	__imp__SetCapture@4:NEAR
; Function compile flags: /Odt
_TEXT	SEGMENT
_this$ = -44						; size = 4
_iItem$198449 = -40					; size = 4
_pos$198445 = -36					; size = 4
_iCurrentCursorItem$198450 = -32			; size = 4
_ret$ = -28						; size = 4
_lvhti$ = -24						; size = 20
_hWnd$ = -4						; size = 4
_nFlags$ = 8						; size = 4
_point$ = 12						; size = 8
?OnMouseMove@CComboBoxHistoryList@@IAEXIVCPoint@@@Z PROC NEAR ; CComboBoxHistoryList::OnMouseMove
; _this$ = ecx

; 223  : {

  00750	55		 push	 ebp
  00751	8b ec		 mov	 ebp, esp
  00753	83 ec 2c	 sub	 esp, 44			; 0000002cH
  00756	89 4d d4	 mov	 DWORD PTR _this$[ebp], ecx

; 224  : 
; 225  : 	LVHITTESTINFO lvhti;
; 226  : 	lvhti.pt = point;

  00759	8b 45 0c	 mov	 eax, DWORD PTR _point$[ebp]
  0075c	89 45 e8	 mov	 DWORD PTR _lvhti$[ebp], eax
  0075f	8b 4d 10	 mov	 ecx, DWORD PTR _point$[ebp+4]
  00762	89 4d ec	 mov	 DWORD PTR _lvhti$[ebp+4], ecx

; 227  : 	int ret = SubItemHitTest(&lvhti);

  00765	8d 55 e8	 lea	 edx, DWORD PTR _lvhti$[ebp]
  00768	52		 push	 edx
  00769	8b 4d d4	 mov	 ecx, DWORD PTR _this$[ebp]
  0076c	e8 00 00 00 00	 call	 ?SubItemHitTest@CListCtrl@@QAEHPAUtagLVHITTESTINFO@@@Z ; CListCtrl::SubItemHitTest
  00771	89 45 e4	 mov	 DWORD PTR _ret$[ebp], eax

; 228  : 	if( ret != -1 )

  00774	83 7d e4 ff	 cmp	 DWORD PTR _ret$[ebp], -1
  00778	74 48		 je	 SHORT $L198444

; 229  : 	{
; 230  : 		POSITION pos=GetFirstSelectedItemPosition();

  0077a	8b 4d d4	 mov	 ecx, DWORD PTR _this$[ebp]
  0077d	e8 00 00 00 00	 call	 ?GetFirstSelectedItemPosition@CListCtrl@@QBEPAU__POSITION@@XZ ; CListCtrl::GetFirstSelectedItemPosition
  00782	89 45 dc	 mov	 DWORD PTR _pos$198445[ebp], eax
$L198447:

; 231  : 		while(pos)

  00785	83 7d dc 00	 cmp	 DWORD PTR _pos$198445[ebp], 0
  00789	74 21		 je	 SHORT $L198448

; 232  : 		{
; 233  : 			int iItem=GetNextSelectedItem(pos);

  0078b	8d 45 dc	 lea	 eax, DWORD PTR _pos$198445[ebp]
  0078e	50		 push	 eax
  0078f	8b 4d d4	 mov	 ecx, DWORD PTR _this$[ebp]
  00792	e8 00 00 00 00	 call	 ?GetNextSelectedItem@CListCtrl@@QBEHAAPAU__POSITION@@@Z ; CListCtrl::GetNextSelectedItem
  00797	89 45 d8	 mov	 DWORD PTR _iItem$198449[ebp], eax

; 234  : 			SetItemState(iItem,~LVIS_SELECTED,LVIS_SELECTED);

  0079a	6a 02		 push	 2
  0079c	6a fd		 push	 -3			; fffffffdH
  0079e	8b 4d d8	 mov	 ecx, DWORD PTR _iItem$198449[ebp]
  007a1	51		 push	 ecx
  007a2	8b 4d d4	 mov	 ecx, DWORD PTR _this$[ebp]
  007a5	e8 00 00 00 00	 call	 ?SetItemState@CListCtrl@@QAEHHII@Z ; CListCtrl::SetItemState

; 235  : 		}

  007aa	eb d9		 jmp	 SHORT $L198447
$L198448:

; 236  : 		int iCurrentCursorItem	= lvhti.iItem;

  007ac	8b 55 f4	 mov	 edx, DWORD PTR _lvhti$[ebp+12]
  007af	89 55 e0	 mov	 DWORD PTR _iCurrentCursorItem$198450[ebp], edx

; 237  : 		SetItemState(iCurrentCursorItem,LVIS_SELECTED,LVIS_SELECTED);

  007b2	6a 02		 push	 2
  007b4	6a 02		 push	 2
  007b6	8b 45 e0	 mov	 eax, DWORD PTR _iCurrentCursorItem$198450[ebp]
  007b9	50		 push	 eax
  007ba	8b 4d d4	 mov	 ecx, DWORD PTR _this$[ebp]
  007bd	e8 00 00 00 00	 call	 ?SetItemState@CListCtrl@@QAEHHII@Z ; CListCtrl::SetItemState
$L198444:

; 238  : 	}
; 239  : 
; 240  : 	CListCtrl::OnMouseMove(nFlags, point);

  007c2	8b 4d 10	 mov	 ecx, DWORD PTR _point$[ebp+4]
  007c5	51		 push	 ecx
  007c6	8b 55 0c	 mov	 edx, DWORD PTR _point$[ebp]
  007c9	52		 push	 edx
  007ca	8b 45 08	 mov	 eax, DWORD PTR _nFlags$[ebp]
  007cd	50		 push	 eax
  007ce	8b 4d d4	 mov	 ecx, DWORD PTR _this$[ebp]
  007d1	e8 00 00 00 00	 call	 ?OnMouseMove@CWnd@@IAEXIVCPoint@@@Z ; CWnd::OnMouseMove

; 241  : 
; 242  : 	HWND hWnd=::GetCapture();

  007d6	ff 15 00 00 00
	00		 call	 DWORD PTR __imp__GetCapture@0
  007dc	89 45 fc	 mov	 DWORD PTR _hWnd$[ebp], eax

; 243  : 	if (hWnd!=m_hWnd)

  007df	8b 4d d4	 mov	 ecx, DWORD PTR _this$[ebp]
  007e2	8b 55 fc	 mov	 edx, DWORD PTR _hWnd$[ebp]
  007e5	3b 51 20	 cmp	 edx, DWORD PTR [ecx+32]
  007e8	74 0d		 je	 SHORT $L198441

; 244  : 	{
; 245  : 		::SetCapture(m_hWnd);

  007ea	8b 45 d4	 mov	 eax, DWORD PTR _this$[ebp]
  007ed	8b 48 20	 mov	 ecx, DWORD PTR [eax+32]
  007f0	51		 push	 ecx
  007f1	ff 15 00 00 00
	00		 call	 DWORD PTR __imp__SetCapture@4
$L198441:

; 246  : 	}
; 247  : }

  007f7	8b e5		 mov	 esp, ebp
  007f9	5d		 pop	 ebp
  007fa	c2 0c 00	 ret	 12			; 0000000cH
?OnMouseMove@CComboBoxHistoryList@@IAEXIVCPoint@@@Z ENDP ; CComboBoxHistoryList::OnMouseMove
_TEXT	ENDS
PUBLIC	?SetMsgWnd@CComboBoxHistoryList@@QAEXPAVCWnd@@@Z ; CComboBoxHistoryList::SetMsgWnd
; Function compile flags: /Odt
_TEXT	SEGMENT
_this$ = -4						; size = 4
_pMsgWnd$ = 8						; size = 4
?SetMsgWnd@CComboBoxHistoryList@@QAEXPAVCWnd@@@Z PROC NEAR ; CComboBoxHistoryList::SetMsgWnd
; _this$ = ecx

; 251  : {

  00800	55		 push	 ebp
  00801	8b ec		 mov	 ebp, esp
  00803	51		 push	 ecx
  00804	89 4d fc	 mov	 DWORD PTR _this$[ebp], ecx

; 252  : 	m_pMsgWnd=pMsgWnd;

  00807	8b 45 fc	 mov	 eax, DWORD PTR _this$[ebp]
  0080a	8b 4d 08	 mov	 ecx, DWORD PTR _pMsgWnd$[ebp]
  0080d	89 48 54	 mov	 DWORD PTR [eax+84], ecx

; 253  : }

  00810	8b e5		 mov	 esp, ebp
  00812	5d		 pop	 ebp
  00813	c2 04 00	 ret	 4
?SetMsgWnd@CComboBoxHistoryList@@QAEXPAVCWnd@@@Z ENDP	; CComboBoxHistoryList::SetMsgWnd
_TEXT	ENDS
PUBLIC	?OnInit@CComboBoxHistoryList@@AAEXXZ		; CComboBoxHistoryList::OnInit
PUBLIC	?ShowScrollBar@CWnd@@QAEXIH@Z			; CWnd::ShowScrollBar
PUBLIC	?OnCreate@CWnd@@IAEHPAUtagCREATESTRUCTA@@@Z	; CWnd::OnCreate
; Function compile flags: /Odt
_TEXT	SEGMENT
_this$ = -4						; size = 4
_lpCreateStruct$ = 8					; size = 4
?OnCreate@CComboBoxHistoryList@@IAEHPAUtagCREATESTRUCTA@@@Z PROC NEAR ; CComboBoxHistoryList::OnCreate
; _this$ = ecx

; 257  : {

  00820	55		 push	 ebp
  00821	8b ec		 mov	 ebp, esp
  00823	51		 push	 ecx
  00824	89 4d fc	 mov	 DWORD PTR _this$[ebp], ecx

; 258  : 	if (CListCtrl::OnCreate(lpCreateStruct) == -1)

  00827	8b 45 08	 mov	 eax, DWORD PTR _lpCreateStruct$[ebp]
  0082a	50		 push	 eax
  0082b	8b 4d fc	 mov	 ecx, DWORD PTR _this$[ebp]
  0082e	e8 00 00 00 00	 call	 ?OnCreate@CWnd@@IAEHPAUtagCREATESTRUCTA@@@Z ; CWnd::OnCreate
  00833	83 f8 ff	 cmp	 eax, -1
  00836	75 05		 jne	 SHORT $L198461

; 259  : 		return -1;

  00838	83 c8 ff	 or	 eax, -1
  0083b	eb 22		 jmp	 SHORT $L198460
$L198461:

; 260  : 	OnInit();

  0083d	8b 4d fc	 mov	 ecx, DWORD PTR _this$[ebp]
  00840	e8 00 00 00 00	 call	 ?OnInit@CComboBoxHistoryList@@AAEXXZ ; CComboBoxHistoryList::OnInit

; 261  : 
; 262  : 	ShowScrollBar(SB_HORZ,FALSE);

  00845	6a 00		 push	 0
  00847	6a 00		 push	 0
  00849	8b 4d fc	 mov	 ecx, DWORD PTR _this$[ebp]
  0084c	e8 00 00 00 00	 call	 ?ShowScrollBar@CWnd@@QAEXIH@Z ; CWnd::ShowScrollBar

; 263  : 	ShowScrollBar(SB_VERT,FALSE);

  00851	6a 00		 push	 0
  00853	6a 01		 push	 1
  00855	8b 4d fc	 mov	 ecx, DWORD PTR _this$[ebp]
  00858	e8 00 00 00 00	 call	 ?ShowScrollBar@CWnd@@QAEXIH@Z ; CWnd::ShowScrollBar

; 264  : 
; 265  : 	return 0;

  0085d	33 c0		 xor	 eax, eax
$L198460:

; 266  : }

  0085f	8b e5		 mov	 esp, ebp
  00861	5d		 pop	 ebp
  00862	c2 04 00	 ret	 4
?OnCreate@CComboBoxHistoryList@@IAEHPAUtagCREATESTRUCTA@@@Z ENDP ; CComboBoxHistoryList::OnCreate
_TEXT	ENDS
EXTRN	?GetWidth@CDibBitmap@@QAEHXZ:NEAR		; CDibBitmap::GetWidth
EXTRN	?GetHeight@CDibBitmap@@QAEHXZ:NEAR		; CDibBitmap::GetHeight
EXTRN	_InitializeCoolSB@4:NEAR
EXTRN	_CoolSB_SetMinThumbSize@12:NEAR
EXTRN	_CoolSB_SetSize@16:NEAR
EXTRN	_CoolSB_SetStyle@12:NEAR
; Function compile flags: /Odt
_TEXT	SEGMENT
_this$ = -12						; size = 4
_h$ = -8						; size = 4
_w$ = -4						; size = 4
?OnInit@CComboBoxHistoryList@@AAEXXZ PROC NEAR		; CComboBoxHistoryList::OnInit
; _this$ = ecx

; 270  : {

  00870	55		 push	 ebp
  00871	8b ec		 mov	 ebp, esp
  00873	83 ec 0c	 sub	 esp, 12			; 0000000cH
  00876	89 4d f4	 mov	 DWORD PTR _this$[ebp], ecx

; 271  : 	if(!m_pBitmapScrollVert)

  00879	8b 45 f4	 mov	 eax, DWORD PTR _this$[ebp]
  0087c	83 78 68 00	 cmp	 DWORD PTR [eax+104], 0
  00880	75 05		 jne	 SHORT $L198465

; 272  : 	{
; 273  : 		return;

  00882	e9 8e 00 00 00	 jmp	 $L198464
$L198465:

; 274  : 	}
; 275  : 	int w,h;
; 276  : 	if(!m_bInit )

  00887	8b 4d f4	 mov	 ecx, DWORD PTR _this$[ebp]
  0088a	83 79 64 00	 cmp	 DWORD PTR [ecx+100], 0
  0088e	0f 85 81 00 00
	00		 jne	 $L198464

; 277  : 	{
; 278  : 		if( m_pBitmapScrollVert  != NULL )

  00894	8b 55 f4	 mov	 edx, DWORD PTR _this$[ebp]
  00897	83 7a 68 00	 cmp	 DWORD PTR [edx+104], 0
  0089b	74 2c		 je	 SHORT $L198469

; 279  : 		{
; 280  : 			h = m_pBitmapScrollVert->GetHeight()/3;

  0089d	8b 45 f4	 mov	 eax, DWORD PTR _this$[ebp]
  008a0	8b 48 68	 mov	 ecx, DWORD PTR [eax+104]
  008a3	e8 00 00 00 00	 call	 ?GetHeight@CDibBitmap@@QAEHXZ ; CDibBitmap::GetHeight
  008a8	99		 cdq
  008a9	b9 03 00 00 00	 mov	 ecx, 3
  008ae	f7 f9		 idiv	 ecx
  008b0	89 45 f8	 mov	 DWORD PTR _h$[ebp], eax

; 281  : 			w = m_pBitmapScrollVert->GetWidth()/6;

  008b3	8b 55 f4	 mov	 edx, DWORD PTR _this$[ebp]
  008b6	8b 4a 68	 mov	 ecx, DWORD PTR [edx+104]
  008b9	e8 00 00 00 00	 call	 ?GetWidth@CDibBitmap@@QAEHXZ ; CDibBitmap::GetWidth
  008be	99		 cdq
  008bf	b9 06 00 00 00	 mov	 ecx, 6
  008c4	f7 f9		 idiv	 ecx
  008c6	89 45 fc	 mov	 DWORD PTR _w$[ebp], eax
$L198469:

; 282  : 		}
; 283  : 		InitializeCoolSB(m_hWnd);

  008c9	8b 55 f4	 mov	 edx, DWORD PTR _this$[ebp]
  008cc	8b 42 20	 mov	 eax, DWORD PTR [edx+32]
  008cf	50		 push	 eax
  008d0	e8 00 00 00 00	 call	 _InitializeCoolSB@4

; 284  : 		CoolSB_SetStyle(m_hWnd, SB_VERT, CSBS_HOTTRACKED);

  008d5	6a 02		 push	 2
  008d7	6a 01		 push	 1
  008d9	8b 4d f4	 mov	 ecx, DWORD PTR _this$[ebp]
  008dc	8b 51 20	 mov	 edx, DWORD PTR [ecx+32]
  008df	52		 push	 edx
  008e0	e8 00 00 00 00	 call	 _CoolSB_SetStyle@12

; 285  : 		CoolSB_SetSize(m_hWnd, SB_VERT,  h,w);

  008e5	8b 45 fc	 mov	 eax, DWORD PTR _w$[ebp]
  008e8	50		 push	 eax
  008e9	8b 4d f8	 mov	 ecx, DWORD PTR _h$[ebp]
  008ec	51		 push	 ecx
  008ed	6a 01		 push	 1
  008ef	8b 55 f4	 mov	 edx, DWORD PTR _this$[ebp]
  008f2	8b 42 20	 mov	 eax, DWORD PTR [edx+32]
  008f5	50		 push	 eax
  008f6	e8 00 00 00 00	 call	 _CoolSB_SetSize@16

; 286  : 		::CoolSB_SetMinThumbSize(m_hWnd, SB_VERT, 8);

  008fb	6a 08		 push	 8
  008fd	6a 01		 push	 1
  008ff	8b 4d f4	 mov	 ecx, DWORD PTR _this$[ebp]
  00902	8b 51 20	 mov	 edx, DWORD PTR [ecx+32]
  00905	52		 push	 edx
  00906	e8 00 00 00 00	 call	 _CoolSB_SetMinThumbSize@12

; 287  : 		m_bInit = true;

  0090b	8b 45 f4	 mov	 eax, DWORD PTR _this$[ebp]
  0090e	c7 40 64 01 00
	00 00		 mov	 DWORD PTR [eax+100], 1
$L198464:

; 288  : 	}
; 289  : }

  00915	8b e5		 mov	 esp, ebp
  00917	5d		 pop	 ebp
  00918	c3		 ret	 0
?OnInit@CComboBoxHistoryList@@AAEXXZ ENDP		; CComboBoxHistoryList::OnInit
_TEXT	ENDS
EXTRN	_UninitializeCoolSB@4:NEAR
EXTRN	?OnDestroy@CWnd@@IAEXXZ:NEAR			; CWnd::OnDestroy
; Function compile flags: /Odt
_TEXT	SEGMENT
_this$ = -4						; size = 4
?OnDestroy@CComboBoxHistoryList@@IAEXXZ PROC NEAR	; CComboBoxHistoryList::OnDestroy
; _this$ = ecx

; 293  : {

  00920	55		 push	 ebp
  00921	8b ec		 mov	 ebp, esp
  00923	51		 push	 ecx
  00924	89 4d fc	 mov	 DWORD PTR _this$[ebp], ecx

; 294  : 	if( m_bInit )

  00927	8b 45 fc	 mov	 eax, DWORD PTR _this$[ebp]
  0092a	83 78 64 00	 cmp	 DWORD PTR [eax+100], 0
  0092e	74 0c		 je	 SHORT $L198473

; 295  : 	{
; 296  : 		UninitializeCoolSB( m_hWnd );

  00930	8b 4d fc	 mov	 ecx, DWORD PTR _this$[ebp]
  00933	8b 51 20	 mov	 edx, DWORD PTR [ecx+32]
  00936	52		 push	 edx
  00937	e8 00 00 00 00	 call	 _UninitializeCoolSB@4
$L198473:

; 297  : 	}
; 298  : 	__super::OnDestroy();

  0093c	8b 4d fc	 mov	 ecx, DWORD PTR _this$[ebp]
  0093f	e8 00 00 00 00	 call	 ?OnDestroy@CWnd@@IAEXXZ	; CWnd::OnDestroy

; 299  : }

  00944	8b e5		 mov	 esp, ebp
  00946	5d		 pop	 ebp
  00947	c3		 ret	 0
?OnDestroy@CComboBoxHistoryList@@IAEXXZ ENDP		; CComboBoxHistoryList::OnDestroy
_TEXT	ENDS
EXTRN	?HandleCustomDraw@@YAJIPAUNMCSBCUSTOMDRAW@@PAVCDibBitmap@@1@Z:NEAR ; HandleCustomDraw
; Function compile flags: /Odt
_TEXT	SEGMENT
_this$ = -8						; size = 4
_pNMCD$ = -4						; size = 4
_pNMHDR$ = 8						; size = 4
_pResult$ = 12						; size = 4
?OnCoolSBCustomdraw@CComboBoxHistoryList@@IAEXPAUtagNMHDR@@PAJ@Z PROC NEAR ; CComboBoxHistoryList::OnCoolSBCustomdraw
; _this$ = ecx

; 302  : {

  00950	55		 push	 ebp
  00951	8b ec		 mov	 ebp, esp
  00953	83 ec 08	 sub	 esp, 8
  00956	89 4d f8	 mov	 DWORD PTR _this$[ebp], ecx

; 303  : 	NMCSBCUSTOMDRAW* pNMCD = reinterpret_cast<NMCSBCUSTOMDRAW*>(pNMHDR);

  00959	8b 45 08	 mov	 eax, DWORD PTR _pNMHDR$[ebp]
  0095c	89 45 fc	 mov	 DWORD PTR _pNMCD$[ebp], eax

; 304  : 	if(m_pBitmapScrollVert && m_pBitmapScrollHorz)

  0095f	8b 4d f8	 mov	 ecx, DWORD PTR _this$[ebp]
  00962	83 79 68 00	 cmp	 DWORD PTR [ecx+104], 0
  00966	74 2a		 je	 SHORT $L198478
  00968	8b 55 f8	 mov	 edx, DWORD PTR _this$[ebp]
  0096b	83 7a 6c 00	 cmp	 DWORD PTR [edx+108], 0
  0096f	74 21		 je	 SHORT $L198478

; 305  : 	{
; 306  : 		*pResult = HandleCustomDraw(0,(NMCSBCUSTOMDRAW*)pNMHDR,m_pBitmapScrollVert,m_pBitmapScrollHorz );

  00971	8b 45 f8	 mov	 eax, DWORD PTR _this$[ebp]
  00974	8b 48 6c	 mov	 ecx, DWORD PTR [eax+108]
  00977	51		 push	 ecx
  00978	8b 55 f8	 mov	 edx, DWORD PTR _this$[ebp]
  0097b	8b 42 68	 mov	 eax, DWORD PTR [edx+104]
  0097e	50		 push	 eax
  0097f	8b 4d 08	 mov	 ecx, DWORD PTR _pNMHDR$[ebp]
  00982	51		 push	 ecx
  00983	6a 00		 push	 0
  00985	e8 00 00 00 00	 call	 ?HandleCustomDraw@@YAJIPAUNMCSBCUSTOMDRAW@@PAVCDibBitmap@@1@Z ; HandleCustomDraw
  0098a	83 c4 10	 add	 esp, 16			; 00000010H
  0098d	8b 55 0c	 mov	 edx, DWORD PTR _pResult$[ebp]
  00990	89 02		 mov	 DWORD PTR [edx], eax
$L198478:

; 307  : 	}
; 308  : }

  00992	8b e5		 mov	 esp, ebp
  00994	5d		 pop	 ebp
  00995	c2 08 00	 ret	 8
?OnCoolSBCustomdraw@CComboBoxHistoryList@@IAEXPAUtagNMHDR@@PAJ@Z ENDP ; CComboBoxHistoryList::OnCoolSBCustomdraw
_TEXT	ENDS
PUBLIC	?OnSize@CWnd@@IAEXIHH@Z				; CWnd::OnSize
; Function compile flags: /Odt
_TEXT	SEGMENT
_this$ = -4						; size = 4
_nType$ = 8						; size = 4
_cx$ = 12						; size = 4
_cy$ = 16						; size = 4
?OnSize@CComboBoxHistoryList@@IAEXIHH@Z PROC NEAR	; CComboBoxHistoryList::OnSize
; _this$ = ecx

; 312  : {

  009a0	55		 push	 ebp
  009a1	8b ec		 mov	 ebp, esp
  009a3	51		 push	 ecx
  009a4	89 4d fc	 mov	 DWORD PTR _this$[ebp], ecx

; 313  : 	CListCtrl::OnSize(nType, cx, cy);

  009a7	8b 45 10	 mov	 eax, DWORD PTR _cy$[ebp]
  009aa	50		 push	 eax
  009ab	8b 4d 0c	 mov	 ecx, DWORD PTR _cx$[ebp]
  009ae	51		 push	 ecx
  009af	8b 55 08	 mov	 edx, DWORD PTR _nType$[ebp]
  009b2	52		 push	 edx
  009b3	8b 4d fc	 mov	 ecx, DWORD PTR _this$[ebp]
  009b6	e8 00 00 00 00	 call	 ?OnSize@CWnd@@IAEXIHH@Z	; CWnd::OnSize

; 314  : 
; 315  : 	ShowScrollBar(SB_HORZ,FALSE);

  009bb	6a 00		 push	 0
  009bd	6a 00		 push	 0
  009bf	8b 4d fc	 mov	 ecx, DWORD PTR _this$[ebp]
  009c2	e8 00 00 00 00	 call	 ?ShowScrollBar@CWnd@@QAEXIH@Z ; CWnd::ShowScrollBar

; 316  : 	ShowScrollBar(SB_VERT,FALSE);

  009c7	6a 00		 push	 0
  009c9	6a 01		 push	 1
  009cb	8b 4d fc	 mov	 ecx, DWORD PTR _this$[ebp]
  009ce	e8 00 00 00 00	 call	 ?ShowScrollBar@CWnd@@QAEXIH@Z ; CWnd::ShowScrollBar

; 317  : }

  009d3	8b e5		 mov	 esp, ebp
  009d5	5d		 pop	 ebp
  009d6	c2 0c 00	 ret	 12			; 0000000cH
?OnSize@CComboBoxHistoryList@@IAEXIHH@Z ENDP		; CComboBoxHistoryList::OnSize
_TEXT	ENDS
PUBLIC	??0CComboBoxHistory@@QAE@XZ			; CComboBoxHistory::CComboBoxHistory
PUBLIC	?GetMessageMap@CComboBoxHistory@@MBEPBUAFX_MSGMAP@@XZ ; CComboBoxHistory::GetMessageMap
PUBLIC	??_7CComboBoxHistory@@6B@			; CComboBoxHistory::`vftable'
PUBLIC	??_GCComboBoxHistory@@UAEPAXI@Z			; CComboBoxHistory::`scalar deleting destructor'
PUBLIC	??0CFont@@QAE@XZ				; CFont::CFont
PUBLIC	??_R4CComboBoxHistory@@6B@			; CComboBoxHistory::`RTTI Complete Object Locator'
PUBLIC	??_R0?AVCComboBoxHistory@@@8			; CComboBoxHistory `RTTI Type Descriptor'
PUBLIC	??_R3CComboBoxHistory@@8			; CComboBoxHistory::`RTTI Class Hierarchy Descriptor'
PUBLIC	??_R2CComboBoxHistory@@8			; CComboBoxHistory::`RTTI Base Class Array'
PUBLIC	??_R1A@?0A@A@CComboBoxHistory@@8		; CComboBoxHistory::`RTTI Base Class Descriptor at (0,-1,0,0)'
EXTRN	??_ECComboBoxHistory@@UAEPAXI@Z:NEAR		; CComboBoxHistory::`vector deleting destructor'
EXTRN	?GetRuntimeClass@CWnd@@UBEPAUCRuntimeClass@@XZ:NEAR ; CWnd::GetRuntimeClass
EXTRN	??0CWnd@@QAE@XZ:NEAR				; CWnd::CWnd
EXTRN	??1CWnd@@UAE@XZ:NEAR				; CWnd::~CWnd
xdata$x	SEGMENT
$T200191 DD	0ffffffffH
	DD	FLAT:$L200185
	DD	00H
	DD	FLAT:$L200186
$T200189 DD	019930520H
	DD	02H
	DD	FLAT:$T200191
	DD	2 DUP(00H)
	DD	2 DUP(00H)
xdata$x	ENDS
;	COMDAT ??_7CComboBoxHistory@@6B@
CONST	SEGMENT
??_7CComboBoxHistory@@6B@ DD FLAT:??_R4CComboBoxHistory@@6B@ ; CComboBoxHistory::`vftable'
	DD	FLAT:?GetRuntimeClass@CWnd@@UBEPAUCRuntimeClass@@XZ
	DD	FLAT:??_ECComboBoxHistory@@UAEPAXI@Z
	DD	FLAT:?Serialize@CObject@@UAEXAAVCArchive@@@Z
	DD	FLAT:?AssertValid@CObject@@UBEXXZ
	DD	FLAT:?Dump@CObject@@UBEXAAVCDumpContext@@@Z
	DD	FLAT:?OnCmdMsg@CCmdTarget@@UAEHIHPAXPAUAFX_CMDHANDLERINFO@@@Z
	DD	FLAT:?OnFinalRelease@CWnd@@UAEXXZ
	DD	FLAT:?IsInvokeAllowed@CCmdTarget@@UAEHJ@Z
	DD	FLAT:?GetDispatchIID@CCmdTarget@@UAEHPAU_GUID@@@Z
	DD	FLAT:?GetTypeInfoCount@CCmdTarget@@UAEIXZ
	DD	FLAT:?GetTypeLibCache@CCmdTarget@@UAEPAVCTypeLibCache@@XZ
	DD	FLAT:?GetTypeLib@CCmdTarget@@UAEJKPAPAUITypeLib@@@Z
	DD	FLAT:?GetMessageMap@CComboBoxHistory@@MBEPBUAFX_MSGMAP@@XZ
	DD	FLAT:?GetCommandMap@CCmdTarget@@MBEPBUAFX_OLECMDMAP@@XZ
	DD	FLAT:?GetDispatchMap@CCmdTarget@@MBEPBUAFX_DISPMAP@@XZ
	DD	FLAT:?GetConnectionMap@CCmdTarget@@MBEPBUAFX_CONNECTIONMAP@@XZ
	DD	FLAT:?GetInterfaceMap@CWnd@@MBEPBUAFX_INTERFACEMAP@@XZ
	DD	FLAT:?GetEventSinkMap@CCmdTarget@@MBEPBUAFX_EVENTSINKMAP@@XZ
	DD	FLAT:?OnCreateAggregates@CCmdTarget@@UAEHXZ
	DD	FLAT:?GetInterfaceHook@CCmdTarget@@UAEPAUIUnknown@@PBX@Z
	DD	FLAT:?GetExtraConnectionPoints@CCmdTarget@@MAEHPAVCPtrArray@@@Z
	DD	FLAT:?GetConnectionHook@CCmdTarget@@MAEPAUIConnectionPoint@@ABU_GUID@@@Z
	DD	FLAT:?PreSubclassWindow@CWnd@@UAEXXZ
	DD	FLAT:?Create@CWnd@@UAEHPBD0KABUtagRECT@@PAV1@IPAUCCreateContext@@@Z
	DD	FLAT:?CreateEx@CWnd@@UAEHKPBD0KABUtagRECT@@PAV1@IPAX@Z
	DD	FLAT:?CreateEx@CWnd@@UAEHKPBD0KHHHHPAUHWND__@@PAUHMENU__@@PAX@Z
	DD	FLAT:?DestroyWindow@CWnd@@UAEHXZ
	DD	FLAT:?PreCreateWindow@CWnd@@UAEHAAUtagCREATESTRUCTA@@@Z
	DD	FLAT:?CalcWindowRect@CWnd@@UAEXPAUtagRECT@@I@Z
	DD	FLAT:?OnToolHitTest@CWnd@@UBEHVCPoint@@PAUtagTOOLINFOA@@@Z
	DD	FLAT:?GetScrollBarCtrl@CWnd@@UBEPAVCScrollBar@@H@Z
	DD	FLAT:?WinHelpA@CWnd@@UAEXKI@Z
	DD	FLAT:?HtmlHelpA@CWnd@@UAEXKI@Z
	DD	FLAT:?WinHelpInternal@CWnd@@UAEXKI@Z
	DD	FLAT:?ContinueModal@CWnd@@UAEHXZ
	DD	FLAT:?EndModalLoop@CWnd@@UAEXH@Z
	DD	FLAT:?EnsureStdObj@CWnd@@UAEJXZ
	DD	FLAT:?get_accParent@CWnd@@UAEJPAPAUIDispatch@@@Z
	DD	FLAT:?get_accChildCount@CWnd@@UAEJPAJ@Z
	DD	FLAT:?get_accChild@CWnd@@UAEJUtagVARIANT@@PAPAUIDispatch@@@Z
	DD	FLAT:?get_accName@CWnd@@UAEJUtagVARIANT@@PAPA_W@Z
	DD	FLAT:?get_accValue@CWnd@@UAEJUtagVARIANT@@PAPA_W@Z
	DD	FLAT:?get_accDescription@CWnd@@UAEJUtagVARIANT@@PAPA_W@Z
	DD	FLAT:?get_accRole@CWnd@@UAEJUtagVARIANT@@PAU2@@Z
	DD	FLAT:?get_accState@CWnd@@UAEJUtagVARIANT@@PAU2@@Z
	DD	FLAT:?get_accHelp@CWnd@@UAEJUtagVARIANT@@PAPA_W@Z
	DD	FLAT:?get_accHelpTopic@CWnd@@UAEJPAPA_WUtagVARIANT@@PAJ@Z
	DD	FLAT:?get_accKeyboardShortcut@CWnd@@UAEJUtagVARIANT@@PAPA_W@Z
	DD	FLAT:?get_accFocus@CWnd@@UAEJPAUtagVARIANT@@@Z
	DD	FLAT:?get_accSelection@CWnd@@UAEJPAUtagVARIANT@@@Z
	DD	FLAT:?get_accDefaultAction@CWnd@@UAEJUtagVARIANT@@PAPA_W@Z
	DD	FLAT:?accSelect@CWnd@@UAEJJUtagVARIANT@@@Z
	DD	FLAT:?accLocation@CWnd@@UAEJPAJ000UtagVARIANT@@@Z
	DD	FLAT:?accNavigate@CWnd@@UAEJJUtagVARIANT@@PAU2@@Z
	DD	FLAT:?accHitTest@CWnd@@UAEJJJPAUtagVARIANT@@@Z
	DD	FLAT:?accDoDefaultAction@CWnd@@UAEJUtagVARIANT@@@Z
	DD	FLAT:?put_accName@CWnd@@UAEJUtagVARIANT@@PA_W@Z
	DD	FLAT:?put_accValue@CWnd@@UAEJUtagVARIANT@@PA_W@Z
	DD	FLAT:?SetProxy@CWnd@@UAEJPAUIAccessibleProxy@@@Z
	DD	FLAT:?CreateAccessibleProxy@CWnd@@UAEJIJPAJ@Z
	DD	FLAT:?OnCommand@CWnd@@MAEHIJ@Z
	DD	FLAT:?OnNotify@CWnd@@MAEHIJPAJ@Z
	DD	FLAT:?GetSuperWndProcAddr@CWnd@@MAEPAP6GJPAUHWND__@@IIJ@ZXZ
	DD	FLAT:?DoDataExchange@CWnd@@MAEXPAVCDataExchange@@@Z
	DD	FLAT:?BeginModalState@CWnd@@UAEXXZ
	DD	FLAT:?EndModalState@CWnd@@UAEXXZ
	DD	FLAT:?PreTranslateMessage@CWnd@@UAEHPAUtagMSG@@@Z
	DD	FLAT:?OnAmbientProperty@CWnd@@UAEHPAVCOleControlSite@@JPAUtagVARIANT@@@Z
	DD	FLAT:?WindowProc@CWnd@@MAEJIIJ@Z
	DD	FLAT:?OnWndMsg@CWnd@@MAEHIIJPAJ@Z
	DD	FLAT:?DefWindowProcA@CWnd@@MAEJIIJ@Z
	DD	FLAT:?PostNcDestroy@CWnd@@MAEXXZ
	DD	FLAT:?OnChildNotify@CWnd@@MAEHIIJPAJ@Z
	DD	FLAT:?CheckAutoCenter@CWnd@@UAEHXZ
	DD	FLAT:?IsFrameWnd@CWnd@@UBEHXZ
	DD	FLAT:?CreateControlContainer@CWnd@@MAEHPAPAVCOleControlContainer@@@Z
	DD	FLAT:?CreateControlSite@CWnd@@MAEHPAVCOleControlContainer@@PAPAVCOleControlSite@@IABU_GUID@@@Z
	DD	FLAT:?SetOccDialogInfo@CWnd@@MAEHPAU_AFX_OCC_DIALOG_INFO@@@Z
CONST	ENDS
;	COMDAT ??_R4CComboBoxHistory@@6B@
rdata$r	SEGMENT
??_R4CComboBoxHistory@@6B@ DD 00H			; CComboBoxHistory::`RTTI Complete Object Locator'
	DD	00H
	DD	00H
	DD	FLAT:??_R0?AVCComboBoxHistory@@@8
	DD	FLAT:??_R3CComboBoxHistory@@8
rdata$r	ENDS
;	COMDAT ??_R0?AVCComboBoxHistory@@@8
_DATA	SEGMENT
??_R0?AVCComboBoxHistory@@@8 DD FLAT:??_7type_info@@6B@	; CComboBoxHistory `RTTI Type Descriptor'
	DD	00H
	DB	'.?AVCComboBoxHistory@@', 00H
_DATA	ENDS
;	COMDAT ??_R3CComboBoxHistory@@8
rdata$r	SEGMENT
??_R3CComboBoxHistory@@8 DD 00H				; CComboBoxHistory::`RTTI Class Hierarchy Descriptor'
	DD	00H
	DD	04H
	DD	FLAT:??_R2CComboBoxHistory@@8
rdata$r	ENDS
;	COMDAT ??_R2CComboBoxHistory@@8
rdata$r	SEGMENT
??_R2CComboBoxHistory@@8 DD FLAT:??_R1A@?0A@A@CComboBoxHistory@@8 ; CComboBoxHistory::`RTTI Base Class Array'
	DD	FLAT:??_R1A@?0A@A@CWnd@@8
	DD	FLAT:??_R1A@?0A@A@CCmdTarget@@8
	DD	FLAT:??_R1A@?0A@A@CObject@@8
rdata$r	ENDS
;	COMDAT ??_R1A@?0A@A@CComboBoxHistory@@8
rdata$r	SEGMENT
??_R1A@?0A@A@CComboBoxHistory@@8 DD FLAT:??_R0?AVCComboBoxHistory@@@8 ; CComboBoxHistory::`RTTI Base Class Descriptor at (0,-1,0,0)'
	DD	03H
	DD	00H
	DD	0ffffffffH
	DD	00H
	DD	00H
; Function compile flags: /Odt
rdata$r	ENDS
_TEXT	SEGMENT
_this$ = -16						; size = 4
__$EHRec$ = -12						; size = 12
??0CComboBoxHistory@@QAE@XZ PROC NEAR			; CComboBoxHistory::CComboBoxHistory
; _this$ = ecx

; 325  : {

  009e0	55		 push	 ebp
  009e1	8b ec		 mov	 ebp, esp
  009e3	6a ff		 push	 -1
  009e5	68 00 00 00 00	 push	 __ehhandler$??0CComboBoxHistory@@QAE@XZ
  009ea	64 a1 00 00 00
	00		 mov	 eax, DWORD PTR fs:__except_list
  009f0	50		 push	 eax
  009f1	64 89 25 00 00
	00 00		 mov	 DWORD PTR fs:__except_list, esp
  009f8	51		 push	 ecx
  009f9	89 4d f0	 mov	 DWORD PTR _this$[ebp], ecx
  009fc	8b 4d f0	 mov	 ecx, DWORD PTR _this$[ebp]
  009ff	e8 00 00 00 00	 call	 ??0CWnd@@QAE@XZ		; CWnd::CWnd
  00a04	c7 45 fc 00 00
	00 00		 mov	 DWORD PTR __$EHRec$[ebp+8], 0
  00a0b	8b 45 f0	 mov	 eax, DWORD PTR _this$[ebp]
  00a0e	c7 00 00 00 00
	00		 mov	 DWORD PTR [eax], OFFSET FLAT:??_7CComboBoxHistory@@6B@
  00a14	8b 4d f0	 mov	 ecx, DWORD PTR _this$[ebp]
  00a17	83 c1 58	 add	 ecx, 88			; 00000058H
  00a1a	e8 00 00 00 00	 call	 ??0CComboBoxHistoryList@@QAE@XZ ; CComboBoxHistoryList::CComboBoxHistoryList
  00a1f	c6 45 fc 01	 mov	 BYTE PTR __$EHRec$[ebp+8], 1
  00a23	8b 4d f0	 mov	 ecx, DWORD PTR _this$[ebp]
  00a26	c7 81 c8 00 00
	00 00 00 00 00	 mov	 DWORD PTR [ecx+200], 0
  00a30	8b 55 f0	 mov	 edx, DWORD PTR _this$[ebp]
  00a33	c7 82 cc 00 00
	00 ff ff ff 00	 mov	 DWORD PTR [edx+204], 16777215 ; 00ffffffH
  00a3d	8b 4d f0	 mov	 ecx, DWORD PTR _this$[ebp]
  00a40	81 c1 d0 00 00
	00		 add	 ecx, 208		; 000000d0H
  00a46	e8 00 00 00 00	 call	 ??0CFont@@QAE@XZ	; CFont::CFont
  00a4b	8b 45 f0	 mov	 eax, DWORD PTR _this$[ebp]
  00a4e	c7 80 d8 00 00
	00 00 00 00 00	 mov	 DWORD PTR [eax+216], 0

; 326  : }

  00a58	c7 45 fc ff ff
	ff ff		 mov	 DWORD PTR __$EHRec$[ebp+8], -1
  00a5f	8b 45 f0	 mov	 eax, DWORD PTR _this$[ebp]
  00a62	8b 4d f4	 mov	 ecx, DWORD PTR __$EHRec$[ebp]
  00a65	64 89 0d 00 00
	00 00		 mov	 DWORD PTR fs:__except_list, ecx
  00a6c	8b e5		 mov	 esp, ebp
  00a6e	5d		 pop	 ebp
  00a6f	c3		 ret	 0
_TEXT	ENDS
text$x	SEGMENT
$L200185:
  0004a	8b 4d f0	 mov	 ecx, DWORD PTR _this$[ebp]
  0004d	e9 00 00 00 00	 jmp	 ??1CWnd@@UAE@XZ		; CWnd::~CWnd
$L200186:
  00052	8b 4d f0	 mov	 ecx, DWORD PTR _this$[ebp]
  00055	83 c1 58	 add	 ecx, 88			; 00000058H
  00058	e9 00 00 00 00	 jmp	 ??1CComboBoxHistoryList@@UAE@XZ ; CComboBoxHistoryList::~CComboBoxHistoryList
__ehhandler$??0CComboBoxHistory@@QAE@XZ:
  0005d	b8 00 00 00 00	 mov	 eax, OFFSET FLAT:$T200189
  00062	e9 00 00 00 00	 jmp	 ___CxxFrameHandler
text$x	ENDS
??0CComboBoxHistory@@QAE@XZ ENDP			; CComboBoxHistory::CComboBoxHistory
PUBLIC	??1CComboBoxHistory@@UAE@XZ			; CComboBoxHistory::~CComboBoxHistory
; Function compile flags: /Odt
;	COMDAT ??_GCComboBoxHistory@@UAEPAXI@Z
_TEXT	SEGMENT
_this$ = -4						; size = 4
___flags$ = 8						; size = 4
??_GCComboBoxHistory@@UAEPAXI@Z PROC NEAR		; CComboBoxHistory::`scalar deleting destructor', COMDAT
; _this$ = ecx
  00000	55		 push	 ebp
  00001	8b ec		 mov	 ebp, esp
  00003	51		 push	 ecx
  00004	89 4d fc	 mov	 DWORD PTR _this$[ebp], ecx
  00007	8b 4d fc	 mov	 ecx, DWORD PTR _this$[ebp]
  0000a	e8 00 00 00 00	 call	 ??1CComboBoxHistory@@UAE@XZ
  0000f	8b 45 08	 mov	 eax, DWORD PTR ___flags$[ebp]
  00012	83 e0 01	 and	 eax, 1
  00015	74 09		 je	 SHORT $L198507
  00017	8b 4d fc	 mov	 ecx, DWORD PTR _this$[ebp]
  0001a	51		 push	 ecx
  0001b	e8 00 00 00 00	 call	 ??3CObject@@SGXPAX@Z	; CObject::operator delete
$L198507:
  00020	8b 45 fc	 mov	 eax, DWORD PTR _this$[ebp]
  00023	8b e5		 mov	 esp, ebp
  00025	5d		 pop	 ebp
  00026	c2 04 00	 ret	 4
??_GCComboBoxHistory@@UAEPAXI@Z ENDP			; CComboBoxHistory::`scalar deleting destructor'
_TEXT	ENDS
PUBLIC	??1CFont@@UAE@XZ				; CFont::~CFont
;	COMDAT xdata$x
xdata$x	SEGMENT
$T200201 DD	0ffffffffH
	DD	FLAT:$L200195
	DD	00H
	DD	FLAT:$L200196
$T200199 DD	019930520H
	DD	02H
	DD	FLAT:$T200201
	DD	2 DUP(00H)
	DD	2 DUP(00H)
; Function compile flags: /Odt
xdata$x	ENDS
;	COMDAT ??1CComboBoxHistory@@UAE@XZ
_TEXT	SEGMENT
_this$ = -16						; size = 4
__$EHRec$ = -12						; size = 12
??1CComboBoxHistory@@UAE@XZ PROC NEAR			; CComboBoxHistory::~CComboBoxHistory, COMDAT
; _this$ = ecx
  00000	55		 push	 ebp
  00001	8b ec		 mov	 ebp, esp
  00003	6a ff		 push	 -1
  00005	68 00 00 00 00	 push	 __ehhandler$??1CComboBoxHistory@@UAE@XZ
  0000a	64 a1 00 00 00
	00		 mov	 eax, DWORD PTR fs:__except_list
  00010	50		 push	 eax
  00011	64 89 25 00 00
	00 00		 mov	 DWORD PTR fs:__except_list, esp
  00018	51		 push	 ecx
  00019	89 4d f0	 mov	 DWORD PTR _this$[ebp], ecx
  0001c	c7 45 fc 01 00
	00 00		 mov	 DWORD PTR __$EHRec$[ebp+8], 1
  00023	8b 4d f0	 mov	 ecx, DWORD PTR _this$[ebp]
  00026	81 c1 d0 00 00
	00		 add	 ecx, 208		; 000000d0H
  0002c	e8 00 00 00 00	 call	 ??1CFont@@UAE@XZ	; CFont::~CFont
  00031	c6 45 fc 00	 mov	 BYTE PTR __$EHRec$[ebp+8], 0
  00035	8b 4d f0	 mov	 ecx, DWORD PTR _this$[ebp]
  00038	83 c1 58	 add	 ecx, 88			; 00000058H
  0003b	e8 00 00 00 00	 call	 ??1CComboBoxHistoryList@@UAE@XZ ; CComboBoxHistoryList::~CComboBoxHistoryList
  00040	c7 45 fc ff ff
	ff ff		 mov	 DWORD PTR __$EHRec$[ebp+8], -1
  00047	8b 4d f0	 mov	 ecx, DWORD PTR _this$[ebp]
  0004a	e8 00 00 00 00	 call	 ??1CWnd@@UAE@XZ		; CWnd::~CWnd
  0004f	8b 4d f4	 mov	 ecx, DWORD PTR __$EHRec$[ebp]
  00052	64 89 0d 00 00
	00 00		 mov	 DWORD PTR fs:__except_list, ecx
  00059	8b e5		 mov	 esp, ebp
  0005b	5d		 pop	 ebp
  0005c	c3		 ret	 0
_TEXT	ENDS
;	COMDAT text$x
text$x	SEGMENT
$L200195:
  00000	8b 4d f0	 mov	 ecx, DWORD PTR _this$[ebp]
  00003	e9 00 00 00 00	 jmp	 ??1CWnd@@UAE@XZ		; CWnd::~CWnd
$L200196:
  00008	8b 4d f0	 mov	 ecx, DWORD PTR _this$[ebp]
  0000b	83 c1 58	 add	 ecx, 88			; 00000058H
  0000e	e9 00 00 00 00	 jmp	 ??1CComboBoxHistoryList@@UAE@XZ ; CComboBoxHistoryList::~CComboBoxHistoryList
__ehhandler$??1CComboBoxHistory@@UAE@XZ:
  00013	b8 00 00 00 00	 mov	 eax, OFFSET FLAT:$T200199
  00018	e9 00 00 00 00	 jmp	 ___CxxFrameHandler
text$x	ENDS
??1CComboBoxHistory@@UAE@XZ ENDP			; CComboBoxHistory::~CComboBoxHistory
PUBLIC	?GetThisMessageMap@CComboBoxHistory@@KGPBUAFX_MSGMAP@@XZ ; CComboBoxHistory::GetThisMessageMap
; Function compile flags: /Odt
_TEXT	SEGMENT
?GetThisMessageMap@CComboBoxHistory@@KGPBUAFX_MSGMAP@@XZ PROC NEAR ; CComboBoxHistory::GetThisMessageMap

; 328  : BEGIN_MESSAGE_MAP(CComboBoxHistory, CWnd)

  00a70	55		 push	 ebp
  00a71	8b ec		 mov	 ebp, esp
  00a73	b8 00 00 00 00	 mov	 eax, OFFSET FLAT:?messageMap@CComboBoxHistory@@1UAFX_MSGMAP@@B ; CComboBoxHistory::messageMap
  00a78	5d		 pop	 ebp
  00a79	c3		 ret	 0
?GetThisMessageMap@CComboBoxHistory@@KGPBUAFX_MSGMAP@@XZ ENDP ; CComboBoxHistory::GetThisMessageMap
; Function compile flags: /Odt
_this$ = -4						; size = 4
?GetMessageMap@CComboBoxHistory@@MBEPBUAFX_MSGMAP@@XZ PROC NEAR ; CComboBoxHistory::GetMessageMap
; _this$ = ecx

; 328  : BEGIN_MESSAGE_MAP(CComboBoxHistory, CWnd)

  00a80	55		 push	 ebp
  00a81	8b ec		 mov	 ebp, esp
  00a83	51		 push	 ecx
  00a84	89 4d fc	 mov	 DWORD PTR _this$[ebp], ecx
  00a87	b8 00 00 00 00	 mov	 eax, OFFSET FLAT:?messageMap@CComboBoxHistory@@1UAFX_MSGMAP@@B ; CComboBoxHistory::messageMap
  00a8c	8b e5		 mov	 esp, ebp
  00a8e	5d		 pop	 ebp
  00a8f	c3		 ret	 0
?GetMessageMap@CComboBoxHistory@@MBEPBUAFX_MSGMAP@@XZ ENDP ; CComboBoxHistory::GetMessageMap
_TEXT	ENDS
PUBLIC	?SetSkin@CComboBoxHistory@@QAEXAAK000PAVCDibBitmap@@1@Z ; CComboBoxHistory::SetSkin
; Function compile flags: /Odt
_TEXT	SEGMENT
_this$ = -4						; size = 4
_colorEdge$ = 8						; size = 4
_colorListBkg$ = 12					; size = 4
_colorListText$ = 16					; size = 4
_colorListSelect$ = 20					; size = 4
_pBitmapVert$ = 24					; size = 4
_pBitmapHorz$ = 28					; size = 4
?SetSkin@CComboBoxHistory@@QAEXAAK000PAVCDibBitmap@@1@Z PROC NEAR ; CComboBoxHistory::SetSkin
; _this$ = ecx

; 335  : {

  00a90	55		 push	 ebp
  00a91	8b ec		 mov	 ebp, esp
  00a93	51		 push	 ecx
  00a94	89 4d fc	 mov	 DWORD PTR _this$[ebp], ecx

; 336  : 	m_colorEdge=colorEdge;

  00a97	8b 45 fc	 mov	 eax, DWORD PTR _this$[ebp]
  00a9a	8b 4d 08	 mov	 ecx, DWORD PTR _colorEdge$[ebp]
  00a9d	8b 11		 mov	 edx, DWORD PTR [ecx]
  00a9f	89 90 c8 00 00
	00		 mov	 DWORD PTR [eax+200], edx

; 337  : 	m_colorBkg=colorListBkg;

  00aa5	8b 45 fc	 mov	 eax, DWORD PTR _this$[ebp]
  00aa8	8b 4d 0c	 mov	 ecx, DWORD PTR _colorListBkg$[ebp]
  00aab	8b 11		 mov	 edx, DWORD PTR [ecx]
  00aad	89 90 cc 00 00
	00		 mov	 DWORD PTR [eax+204], edx

; 338  : 	m_pList.SetSkin(colorListBkg,colorListText,colorListSelect,pBitmapVert,pBitmapHorz);

  00ab3	8b 45 1c	 mov	 eax, DWORD PTR _pBitmapHorz$[ebp]
  00ab6	50		 push	 eax
  00ab7	8b 4d 18	 mov	 ecx, DWORD PTR _pBitmapVert$[ebp]
  00aba	51		 push	 ecx
  00abb	8b 55 14	 mov	 edx, DWORD PTR _colorListSelect$[ebp]
  00abe	52		 push	 edx
  00abf	8b 45 10	 mov	 eax, DWORD PTR _colorListText$[ebp]
  00ac2	50		 push	 eax
  00ac3	8b 4d 0c	 mov	 ecx, DWORD PTR _colorListBkg$[ebp]
  00ac6	51		 push	 ecx
  00ac7	8b 4d fc	 mov	 ecx, DWORD PTR _this$[ebp]
  00aca	83 c1 58	 add	 ecx, 88			; 00000058H
  00acd	e8 00 00 00 00	 call	 ?SetSkin@CComboBoxHistoryList@@QAEXAAK00PAVCDibBitmap@@1@Z ; CComboBoxHistoryList::SetSkin

; 339  : }

  00ad2	8b e5		 mov	 esp, ebp
  00ad4	5d		 pop	 ebp
  00ad5	c2 18 00	 ret	 24			; 00000018H
?SetSkin@CComboBoxHistory@@QAEXAAK000PAVCDibBitmap@@1@Z ENDP ; CComboBoxHistory::SetSkin
_TEXT	ENDS
PUBLIC	?GetExtendedStyle@CListCtrl@@QAEKXZ		; CListCtrl::GetExtendedStyle
PUBLIC	?SetExtendedStyle@CListCtrl@@QAEKK@Z		; CListCtrl::SetExtendedStyle
PUBLIC	??0CRect@@QAE@HHHH@Z				; CRect::CRect
PUBLIC	?CreateFontIndirectA@CFont@@QAEHPBUtagLOGFONTA@@@Z ; CFont::CreateFontIndirectA
PUBLIC	?GetSafeHwnd@CWnd@@QBEPAUHWND__@@XZ		; CWnd::GetSafeHwnd
PUBLIC	?SetFont@CWnd@@QAEXPAVCFont@@H@Z		; CWnd::SetFont
EXTRN	__imp__SendMessageA@16:NEAR
EXTRN	?InsertColumn@CListCtrl@@QAEHHPBDHHH@Z:NEAR	; CListCtrl::InsertColumn
EXTRN	_memset:NEAR
EXTRN	_strcpy:NEAR
; Function compile flags: /Odt
_TEXT	SEGMENT
_this$ = -84						; size = 4
$T200210 = -80						; size = 16
_lf$ = -64						; size = 60
__$ArrayPad$ = -4					; size = 4
__$ReturnAddr$ = 4					; size = 4
_lpCreateStruct$ = 8					; size = 4
?OnCreate@CComboBoxHistory@@IAEHPAUtagCREATESTRUCTA@@@Z PROC NEAR ; CComboBoxHistory::OnCreate
; _this$ = ecx

; 342  : {

  00ae0	55		 push	 ebp
  00ae1	8b ec		 mov	 ebp, esp
  00ae3	83 ec 54	 sub	 esp, 84			; 00000054H
  00ae6	a1 00 00 00 00	 mov	 eax, DWORD PTR ___security_cookie
  00aeb	89 45 fc	 mov	 DWORD PTR __$ArrayPad$[ebp], eax
  00aee	89 4d ac	 mov	 DWORD PTR _this$[ebp], ecx

; 343  : 	if (CWnd::OnCreate(lpCreateStruct) == -1)

  00af1	8b 45 08	 mov	 eax, DWORD PTR _lpCreateStruct$[ebp]
  00af4	50		 push	 eax
  00af5	8b 4d ac	 mov	 ecx, DWORD PTR _this$[ebp]
  00af8	e8 00 00 00 00	 call	 ?OnCreate@CWnd@@IAEHPAUtagCREATESTRUCTA@@@Z ; CWnd::OnCreate
  00afd	83 f8 ff	 cmp	 eax, -1
  00b00	75 08		 jne	 SHORT $L198542

; 344  : 		return -1;

  00b02	83 c8 ff	 or	 eax, -1
  00b05	e9 e6 00 00 00	 jmp	 $L198541
$L198542:

; 345  : 
; 346  : 	m_pList.SetMsgWnd(m_pMsgWnd);

  00b0a	8b 4d ac	 mov	 ecx, DWORD PTR _this$[ebp]
  00b0d	8b 51 54	 mov	 edx, DWORD PTR [ecx+84]
  00b10	52		 push	 edx
  00b11	8b 4d ac	 mov	 ecx, DWORD PTR _this$[ebp]
  00b14	83 c1 58	 add	 ecx, 88			; 00000058H
  00b17	e8 00 00 00 00	 call	 ?SetMsgWnd@CComboBoxHistoryList@@QAEXPAVCWnd@@@Z ; CComboBoxHistoryList::SetMsgWnd

; 347  : 	m_pList.Create(WS_VISIBLE|LVS_REPORT|LVS_NOCOLUMNHEADER|LVS_SHOWSELALWAYS,CRect(0,0,0,0),this,XSKINCOMBOBOX_HISTORY_LIST);

  00b1c	68 14 27 00 00	 push	 10004			; 00002714H
  00b21	8b 45 ac	 mov	 eax, DWORD PTR _this$[ebp]
  00b24	50		 push	 eax
  00b25	6a 00		 push	 0
  00b27	6a 00		 push	 0
  00b29	6a 00		 push	 0
  00b2b	6a 00		 push	 0
  00b2d	8d 4d b0	 lea	 ecx, DWORD PTR $T200210[ebp]
  00b30	e8 00 00 00 00	 call	 ??0CRect@@QAE@HHHH@Z	; CRect::CRect
  00b35	50		 push	 eax
  00b36	68 09 40 00 10	 push	 268451849		; 10004009H
  00b3b	8b 4d ac	 mov	 ecx, DWORD PTR _this$[ebp]
  00b3e	83 c1 58	 add	 ecx, 88			; 00000058H
  00b41	8b 55 ac	 mov	 edx, DWORD PTR _this$[ebp]
  00b44	8b 42 58	 mov	 eax, DWORD PTR [edx+88]
  00b47	ff 90 38 01 00
	00		 call	 DWORD PTR [eax+312]

; 348  : 
; 349  : 	LOGFONT   lf;   
; 350  : 	memset(&lf,0,sizeof(LOGFONT));   

  00b4d	6a 3c		 push	 60			; 0000003cH
  00b4f	6a 00		 push	 0
  00b51	8d 4d c0	 lea	 ecx, DWORD PTR _lf$[ebp]
  00b54	51		 push	 ecx
  00b55	e8 00 00 00 00	 call	 _memset
  00b5a	83 c4 0c	 add	 esp, 12			; 0000000cH

; 351  : 	strcpy(lf.lfFaceName,   "");   

  00b5d	68 00 00 00 00	 push	 OFFSET FLAT:$SG198546
  00b62	8d 55 dc	 lea	 edx, DWORD PTR _lf$[ebp+28]
  00b65	52		 push	 edx
  00b66	e8 00 00 00 00	 call	 _strcpy
  00b6b	83 c4 08	 add	 esp, 8

; 352  : 	lf.lfHeight   =   12;   

  00b6e	c7 45 c0 0c 00
	00 00		 mov	 DWORD PTR _lf$[ebp], 12	; 0000000cH

; 353  : 
; 354  : 	m_fontList.CreateFontIndirect(&lf);

  00b75	8d 45 c0	 lea	 eax, DWORD PTR _lf$[ebp]
  00b78	50		 push	 eax
  00b79	8b 4d ac	 mov	 ecx, DWORD PTR _this$[ebp]
  00b7c	81 c1 d0 00 00
	00		 add	 ecx, 208		; 000000d0H
  00b82	e8 00 00 00 00	 call	 ?CreateFontIndirectA@CFont@@QAEHPBUtagLOGFONTA@@@Z ; CFont::CreateFontIndirectA

; 355  : 
; 356  : 	m_pList.SetFont(&m_fontList);

  00b87	6a 01		 push	 1
  00b89	8b 4d ac	 mov	 ecx, DWORD PTR _this$[ebp]
  00b8c	81 c1 d0 00 00
	00		 add	 ecx, 208		; 000000d0H
  00b92	51		 push	 ecx
  00b93	8b 4d ac	 mov	 ecx, DWORD PTR _this$[ebp]
  00b96	83 c1 58	 add	 ecx, 88			; 00000058H
  00b99	e8 00 00 00 00	 call	 ?SetFont@CWnd@@QAEXPAVCFont@@H@Z ; CWnd::SetFont

; 357  : 
; 358  : 	m_pList.SetExtendedStyle( m_pList.GetExtendedStyle()| LVS_EX_FULLROWSELECT | LVS_EX_TRACKSELECT );

  00b9e	8b 4d ac	 mov	 ecx, DWORD PTR _this$[ebp]
  00ba1	83 c1 58	 add	 ecx, 88			; 00000058H
  00ba4	e8 00 00 00 00	 call	 ?GetExtendedStyle@CListCtrl@@QAEKXZ ; CListCtrl::GetExtendedStyle
  00ba9	83 c8 20	 or	 eax, 32			; 00000020H
  00bac	83 c8 08	 or	 eax, 8
  00baf	50		 push	 eax
  00bb0	8b 4d ac	 mov	 ecx, DWORD PTR _this$[ebp]
  00bb3	83 c1 58	 add	 ecx, 88			; 00000058H
  00bb6	e8 00 00 00 00	 call	 ?SetExtendedStyle@CListCtrl@@QAEKK@Z ; CListCtrl::SetExtendedStyle

; 359  : 
; 360  : 	::SendMessage(m_pList.GetSafeHwnd(), LVM_SETHOVERTIME, 0, 10);

  00bbb	6a 0a		 push	 10			; 0000000aH
  00bbd	6a 00		 push	 0
  00bbf	68 47 10 00 00	 push	 4167			; 00001047H
  00bc4	8b 4d ac	 mov	 ecx, DWORD PTR _this$[ebp]
  00bc7	83 c1 58	 add	 ecx, 88			; 00000058H
  00bca	e8 00 00 00 00	 call	 ?GetSafeHwnd@CWnd@@QBEPAUHWND__@@XZ ; CWnd::GetSafeHwnd
  00bcf	50		 push	 eax
  00bd0	ff 15 00 00 00
	00		 call	 DWORD PTR __imp__SendMessageA@16

; 361  : 
; 362  : 	m_pList.InsertColumn(0, "");

  00bd6	6a ff		 push	 -1
  00bd8	6a ff		 push	 -1
  00bda	6a 00		 push	 0
  00bdc	68 00 00 00 00	 push	 OFFSET FLAT:$SG198547
  00be1	6a 00		 push	 0
  00be3	8b 4d ac	 mov	 ecx, DWORD PTR _this$[ebp]
  00be6	83 c1 58	 add	 ecx, 88			; 00000058H
  00be9	e8 00 00 00 00	 call	 ?InsertColumn@CListCtrl@@QAEHHPBDHHH@Z ; CListCtrl::InsertColumn

; 363  : 
; 364  : 	return 0;

  00bee	33 c0		 xor	 eax, eax
$L198541:

; 365  : }

  00bf0	8b 4d fc	 mov	 ecx, DWORD PTR __$ArrayPad$[ebp]
  00bf3	e8 00 00 00 00	 call	 @__security_check_cookie@4
  00bf8	8b e5		 mov	 esp, ebp
  00bfa	5d		 pop	 ebp
  00bfb	c2 04 00	 ret	 4
?OnCreate@CComboBoxHistory@@IAEHPAUtagCREATESTRUCTA@@@Z ENDP ; CComboBoxHistory::OnCreate
_TEXT	ENDS
PUBLIC	??1CPen@@UAE@XZ					; CPen::~CPen
EXTRN	?SelectObject@CDC@@QAEPAVCPen@@PAV2@@Z:NEAR	; CDC::SelectObject
EXTRN	?MoveTo@CDC@@QAE?AVCPoint@@HH@Z:NEAR		; CDC::MoveTo
EXTRN	?LineTo@CDC@@QAEHHH@Z:NEAR			; CDC::LineTo
EXTRN	??0CPen@@QAE@HHK@Z:NEAR				; CPen::CPen
xdata$x	SEGMENT
$T200219 DD	0ffffffffH
	DD	FLAT:$L200215
$T200217 DD	019930520H
	DD	01H
	DD	FLAT:$T200219
	DD	2 DUP(00H)
	DD	2 DUP(00H)
; Function compile flags: /Odt
xdata$x	ENDS
_TEXT	SEGMENT
_this$ = -56						; size = 4
$T200214 = -52						; size = 4
$T200213 = -48						; size = 8
_pOldPen$ = -40						; size = 4
_rectWnd$ = -36						; size = 16
_newPen$ = -20						; size = 8
__$EHRec$ = -12						; size = 12
_pDC$ = 8						; size = 4
?OnEraseBkgnd@CComboBoxHistory@@IAEHPAVCDC@@@Z PROC NEAR ; CComboBoxHistory::OnEraseBkgnd
; _this$ = ecx

; 369  : {

  00c00	55		 push	 ebp
  00c01	8b ec		 mov	 ebp, esp
  00c03	6a ff		 push	 -1
  00c05	68 00 00 00 00	 push	 __ehhandler$?OnEraseBkgnd@CComboBoxHistory@@IAEHPAVCDC@@@Z
  00c0a	64 a1 00 00 00
	00		 mov	 eax, DWORD PTR fs:__except_list
  00c10	50		 push	 eax
  00c11	64 89 25 00 00
	00 00		 mov	 DWORD PTR fs:__except_list, esp
  00c18	83 ec 2c	 sub	 esp, 44			; 0000002cH
  00c1b	89 4d c8	 mov	 DWORD PTR _this$[ebp], ecx

; 370  : 	CRect rectWnd;

  00c1e	8d 4d dc	 lea	 ecx, DWORD PTR _rectWnd$[ebp]
  00c21	e8 00 00 00 00	 call	 ??0CRect@@QAE@XZ	; CRect::CRect

; 371  : 	GetClientRect(&rectWnd);

  00c26	8d 45 dc	 lea	 eax, DWORD PTR _rectWnd$[ebp]
  00c29	50		 push	 eax
  00c2a	8b 4d c8	 mov	 ecx, DWORD PTR _this$[ebp]
  00c2d	e8 00 00 00 00	 call	 ?GetClientRect@CWnd@@QBEXPAUtagRECT@@@Z ; CWnd::GetClientRect

; 372  : 	CPen newPen(PS_DASHDOTDOT,10,m_colorEdge);   

  00c32	8b 4d c8	 mov	 ecx, DWORD PTR _this$[ebp]
  00c35	8b 91 c8 00 00
	00		 mov	 edx, DWORD PTR [ecx+200]
  00c3b	52		 push	 edx
  00c3c	6a 0a		 push	 10			; 0000000aH
  00c3e	6a 04		 push	 4
  00c40	8d 4d ec	 lea	 ecx, DWORD PTR _newPen$[ebp]
  00c43	e8 00 00 00 00	 call	 ??0CPen@@QAE@HHK@Z	; CPen::CPen
  00c48	c7 45 fc 00 00
	00 00		 mov	 DWORD PTR __$EHRec$[ebp+8], 0

; 373  : 	CPen *pOldPen=pDC->SelectObject(&newPen);

  00c4f	8d 45 ec	 lea	 eax, DWORD PTR _newPen$[ebp]
  00c52	50		 push	 eax
  00c53	8b 4d 08	 mov	 ecx, DWORD PTR _pDC$[ebp]
  00c56	e8 00 00 00 00	 call	 ?SelectObject@CDC@@QAEPAVCPen@@PAV2@@Z ; CDC::SelectObject
  00c5b	89 45 d8	 mov	 DWORD PTR _pOldPen$[ebp], eax

; 374  : 	pDC->MoveTo(rectWnd.left,rectWnd.top);

  00c5e	8b 4d e0	 mov	 ecx, DWORD PTR _rectWnd$[ebp+4]
  00c61	51		 push	 ecx
  00c62	8b 55 dc	 mov	 edx, DWORD PTR _rectWnd$[ebp]
  00c65	52		 push	 edx
  00c66	8d 45 d0	 lea	 eax, DWORD PTR $T200213[ebp]
  00c69	50		 push	 eax
  00c6a	8b 4d 08	 mov	 ecx, DWORD PTR _pDC$[ebp]
  00c6d	e8 00 00 00 00	 call	 ?MoveTo@CDC@@QAE?AVCPoint@@HH@Z ; CDC::MoveTo

; 375  : 	pDC->LineTo(rectWnd.right-1,rectWnd.top);

  00c72	8b 4d e0	 mov	 ecx, DWORD PTR _rectWnd$[ebp+4]
  00c75	51		 push	 ecx
  00c76	8b 55 e4	 mov	 edx, DWORD PTR _rectWnd$[ebp+8]
  00c79	83 ea 01	 sub	 edx, 1
  00c7c	52		 push	 edx
  00c7d	8b 4d 08	 mov	 ecx, DWORD PTR _pDC$[ebp]
  00c80	e8 00 00 00 00	 call	 ?LineTo@CDC@@QAEHHH@Z	; CDC::LineTo

; 376  : 	pDC->LineTo(rectWnd.right-1,rectWnd.bottom-1);

  00c85	8b 45 e8	 mov	 eax, DWORD PTR _rectWnd$[ebp+12]
  00c88	83 e8 01	 sub	 eax, 1
  00c8b	50		 push	 eax
  00c8c	8b 4d e4	 mov	 ecx, DWORD PTR _rectWnd$[ebp+8]
  00c8f	83 e9 01	 sub	 ecx, 1
  00c92	51		 push	 ecx
  00c93	8b 4d 08	 mov	 ecx, DWORD PTR _pDC$[ebp]
  00c96	e8 00 00 00 00	 call	 ?LineTo@CDC@@QAEHHH@Z	; CDC::LineTo

; 377  : 	pDC->LineTo(rectWnd.left,rectWnd.bottom-1);

  00c9b	8b 55 e8	 mov	 edx, DWORD PTR _rectWnd$[ebp+12]
  00c9e	83 ea 01	 sub	 edx, 1
  00ca1	52		 push	 edx
  00ca2	8b 45 dc	 mov	 eax, DWORD PTR _rectWnd$[ebp]
  00ca5	50		 push	 eax
  00ca6	8b 4d 08	 mov	 ecx, DWORD PTR _pDC$[ebp]
  00ca9	e8 00 00 00 00	 call	 ?LineTo@CDC@@QAEHHH@Z	; CDC::LineTo

; 378  : 	pDC->LineTo(rectWnd.left,rectWnd.top);

  00cae	8b 4d e0	 mov	 ecx, DWORD PTR _rectWnd$[ebp+4]
  00cb1	51		 push	 ecx
  00cb2	8b 55 dc	 mov	 edx, DWORD PTR _rectWnd$[ebp]
  00cb5	52		 push	 edx
  00cb6	8b 4d 08	 mov	 ecx, DWORD PTR _pDC$[ebp]
  00cb9	e8 00 00 00 00	 call	 ?LineTo@CDC@@QAEHHH@Z	; CDC::LineTo

; 379  : 	pDC->SelectObject(pOldPen);

  00cbe	8b 45 d8	 mov	 eax, DWORD PTR _pOldPen$[ebp]
  00cc1	50		 push	 eax
  00cc2	8b 4d 08	 mov	 ecx, DWORD PTR _pDC$[ebp]
  00cc5	e8 00 00 00 00	 call	 ?SelectObject@CDC@@QAEPAVCPen@@PAV2@@Z ; CDC::SelectObject

; 380  : 	rectWnd.top+=1;

  00cca	8b 4d e0	 mov	 ecx, DWORD PTR _rectWnd$[ebp+4]
  00ccd	83 c1 01	 add	 ecx, 1
  00cd0	89 4d e0	 mov	 DWORD PTR _rectWnd$[ebp+4], ecx

; 381  : 	rectWnd.left+=1;

  00cd3	8b 55 dc	 mov	 edx, DWORD PTR _rectWnd$[ebp]
  00cd6	83 c2 01	 add	 edx, 1
  00cd9	89 55 dc	 mov	 DWORD PTR _rectWnd$[ebp], edx

; 382  : 	rectWnd.bottom-=1;

  00cdc	8b 45 e8	 mov	 eax, DWORD PTR _rectWnd$[ebp+12]
  00cdf	83 e8 01	 sub	 eax, 1
  00ce2	89 45 e8	 mov	 DWORD PTR _rectWnd$[ebp+12], eax

; 383  : 	rectWnd.right-=1;

  00ce5	8b 4d e4	 mov	 ecx, DWORD PTR _rectWnd$[ebp+8]
  00ce8	83 e9 01	 sub	 ecx, 1
  00ceb	89 4d e4	 mov	 DWORD PTR _rectWnd$[ebp+8], ecx

; 384  : 
; 385  : 	pDC->FillSolidRect(&rectWnd,m_colorBkg);

  00cee	8b 55 c8	 mov	 edx, DWORD PTR _this$[ebp]
  00cf1	8b 82 cc 00 00
	00		 mov	 eax, DWORD PTR [edx+204]
  00cf7	50		 push	 eax
  00cf8	8d 4d dc	 lea	 ecx, DWORD PTR _rectWnd$[ebp]
  00cfb	51		 push	 ecx
  00cfc	8b 4d 08	 mov	 ecx, DWORD PTR _pDC$[ebp]
  00cff	e8 00 00 00 00	 call	 ?FillSolidRect@CDC@@QAEXPBUtagRECT@@K@Z ; CDC::FillSolidRect

; 386  : 	return FALSE;

  00d04	c7 45 cc 00 00
	00 00		 mov	 DWORD PTR $T200214[ebp], 0
  00d0b	c7 45 fc ff ff
	ff ff		 mov	 DWORD PTR __$EHRec$[ebp+8], -1
  00d12	8d 4d ec	 lea	 ecx, DWORD PTR _newPen$[ebp]
  00d15	e8 00 00 00 00	 call	 ??1CPen@@UAE@XZ		; CPen::~CPen
  00d1a	8b 45 cc	 mov	 eax, DWORD PTR $T200214[ebp]

; 387  : }

  00d1d	8b 4d f4	 mov	 ecx, DWORD PTR __$EHRec$[ebp]
  00d20	64 89 0d 00 00
	00 00		 mov	 DWORD PTR fs:__except_list, ecx
  00d27	8b e5		 mov	 esp, ebp
  00d29	5d		 pop	 ebp
  00d2a	c2 04 00	 ret	 4
_TEXT	ENDS
text$x	SEGMENT
$L200215:
  00067	8d 4d ec	 lea	 ecx, DWORD PTR _newPen$[ebp]
  0006a	e9 00 00 00 00	 jmp	 ??1CPen@@UAE@XZ		; CPen::~CPen
__ehhandler$?OnEraseBkgnd@CComboBoxHistory@@IAEHPAVCDC@@@Z:
  0006f	b8 00 00 00 00	 mov	 eax, OFFSET FLAT:$T200217
  00074	e9 00 00 00 00	 jmp	 ___CxxFrameHandler
text$x	ENDS
?OnEraseBkgnd@CComboBoxHistory@@IAEHPAVCDC@@@Z ENDP	; CComboBoxHistory::OnEraseBkgnd
PUBLIC	?GetDC@CWnd@@QAEPAVCDC@@XZ			; CWnd::GetDC
PUBLIC	?RefreshData@CComboBoxHistory@@QAEXAAV?$vector@V?$basic_string@DU?$char_traits@D@std@@V?$allocator@D@2@@std@@V?$allocator@V?$basic_string@DU?$char_traits@D@std@@V?$allocator@D@2@@std@@@2@@std@@@Z ; CComboBoxHistory::RefreshData
PUBLIC	?InsertItem@CListCtrl@@QAEHHPBD@Z		; CListCtrl::InsertItem
PUBLIC	?DeleteAllItems@CListCtrl@@QAEHXZ		; CListCtrl::DeleteAllItems
PUBLIC	?size@?$vector@V?$basic_string@DU?$char_traits@D@std@@V?$allocator@D@2@@std@@V?$allocator@V?$basic_string@DU?$char_traits@D@std@@V?$allocator@D@2@@std@@@2@@std@@QBEIXZ ; std::vector<std::basic_string<char,std::char_traits<char>,std::allocator<char> >,std::allocator<std::basic_string<char,std::char_traits<char>,std::allocator<char> > > >::size
PUBLIC	?at@?$vector@V?$basic_string@DU?$char_traits@D@std@@V?$allocator@D@2@@std@@V?$allocator@V?$basic_string@DU?$char_traits@D@std@@V?$allocator@D@2@@std@@@2@@std@@QAEAAV?$basic_string@DU?$char_traits@D@std@@V?$allocator@D@2@@2@I@Z ; std::vector<std::basic_string<char,std::char_traits<char>,std::allocator<char> >,std::allocator<std::basic_string<char,std::char_traits<char>,std::allocator<char> > > >::at
PUBLIC	?SelectObject@CDC@@QAEPAXPAX@Z			; CDC::SelectObject
EXTRN	__imp_?GetString@?$CSimpleStringT@D$00@ATL@@QBEPBDXZ:NEAR
EXTRN	__imp_?c_str@?$basic_string@DU?$char_traits@D@std@@V?$allocator@D@2@@std@@QBEPBDXZ:NEAR
EXTRN	__imp_??0?$CStringT@DV?$StrTraitMFC_DLL@DV?$ChTraitsCRT@D@ATL@@@@@ATL@@QAE@PBD@Z:NEAR
EXTRN	__imp__CreateFontIndirectA@4:NEAR
EXTRN	__imp_?Trim@?$CStringT@DV?$StrTraitMFC_DLL@DV?$ChTraitsCRT@D@ATL@@@@@ATL@@QAEAAV12@XZ:NEAR
EXTRN	__imp__DeleteObject@4:NEAR
xdata$x	SEGMENT
$T200227 DD	0ffffffffH
	DD	FLAT:$L200222
$T200224 DD	019930520H
	DD	01H
	DD	FLAT:$T200227
	DD	2 DUP(00H)
	DD	2 DUP(00H)
; Function compile flags: /Odt
xdata$x	ENDS
_TEXT	SEGMENT
_this$ = -108						; size = 4
_str$198573 = -104					; size = 4
_size$198574 = -100					; size = 8
_i$198569 = -92						; size = 4
_lf$ = -88						; size = 60
__$ArrayPad$ = -28					; size = 4
_hfont$ = -24						; size = 4
_hOldFont$ = -20					; size = 4
_pDc$ = -16						; size = 4
__$EHRec$ = -12						; size = 12
__$ReturnAddr$ = 4					; size = 4
_vecString$ = 8						; size = 4
?RefreshData@CComboBoxHistory@@QAEXAAV?$vector@V?$basic_string@DU?$char_traits@D@std@@V?$allocator@D@2@@std@@V?$allocator@V?$basic_string@DU?$char_traits@D@std@@V?$allocator@D@2@@std@@@2@@std@@@Z PROC NEAR ; CComboBoxHistory::RefreshData
; _this$ = ecx

; 390  : {

  00d30	55		 push	 ebp
  00d31	8b ec		 mov	 ebp, esp
  00d33	6a ff		 push	 -1
  00d35	68 00 00 00 00	 push	 __ehhandler$?RefreshData@CComboBoxHistory@@QAEXAAV?$vector@V?$basic_string@DU?$char_traits@D@std@@V?$allocator@D@2@@std@@V?$allocator@V?$basic_string@DU?$char_traits@D@std@@V?$allocator@D@2@@std@@@2@@std@@@Z
  00d3a	64 a1 00 00 00
	00		 mov	 eax, DWORD PTR fs:__except_list
  00d40	50		 push	 eax
  00d41	64 89 25 00 00
	00 00		 mov	 DWORD PTR fs:__except_list, esp
  00d48	83 ec 60	 sub	 esp, 96			; 00000060H
  00d4b	a1 00 00 00 00	 mov	 eax, DWORD PTR ___security_cookie
  00d50	89 45 e4	 mov	 DWORD PTR __$ArrayPad$[ebp], eax
  00d53	89 4d 94	 mov	 DWORD PTR _this$[ebp], ecx

; 391  : 	m_pList.DeleteAllItems();

  00d56	8b 4d 94	 mov	 ecx, DWORD PTR _this$[ebp]
  00d59	83 c1 58	 add	 ecx, 88			; 00000058H
  00d5c	e8 00 00 00 00	 call	 ?DeleteAllItems@CListCtrl@@QAEHXZ ; CListCtrl::DeleteAllItems

; 392  : 
; 393  : 	m_iMaxWidth=0;

  00d61	8b 45 94	 mov	 eax, DWORD PTR _this$[ebp]
  00d64	c7 80 d8 00 00
	00 00 00 00 00	 mov	 DWORD PTR [eax+216], 0

; 394  : 	CDC *pDc=m_pList.GetDC();

  00d6e	8b 4d 94	 mov	 ecx, DWORD PTR _this$[ebp]
  00d71	83 c1 58	 add	 ecx, 88			; 00000058H
  00d74	e8 00 00 00 00	 call	 ?GetDC@CWnd@@QAEPAVCDC@@XZ ; CWnd::GetDC
  00d79	89 45 f0	 mov	 DWORD PTR _pDc$[ebp], eax

; 395  : 	LOGFONT   lf;   
; 396  : 	memset(&lf,0,sizeof(LOGFONT));   

  00d7c	6a 3c		 push	 60			; 0000003cH
  00d7e	6a 00		 push	 0
  00d80	8d 4d a8	 lea	 ecx, DWORD PTR _lf$[ebp]
  00d83	51		 push	 ecx
  00d84	e8 00 00 00 00	 call	 _memset
  00d89	83 c4 0c	 add	 esp, 12			; 0000000cH

; 397  : 	strcpy(lf.lfFaceName,   "");   

  00d8c	68 00 00 00 00	 push	 OFFSET FLAT:$SG198565
  00d91	8d 55 c4	 lea	 edx, DWORD PTR _lf$[ebp+28]
  00d94	52		 push	 edx
  00d95	e8 00 00 00 00	 call	 _strcpy
  00d9a	83 c4 08	 add	 esp, 8

; 398  : 	lf.lfHeight   =   12;   

  00d9d	c7 45 a8 0c 00
	00 00		 mov	 DWORD PTR _lf$[ebp], 12	; 0000000cH

; 399  : 	HFONT hfont=CreateFontIndirect(&lf);   

  00da4	8d 45 a8	 lea	 eax, DWORD PTR _lf$[ebp]
  00da7	50		 push	 eax
  00da8	ff 15 00 00 00
	00		 call	 DWORD PTR __imp__CreateFontIndirectA@4
  00dae	89 45 e8	 mov	 DWORD PTR _hfont$[ebp], eax

; 400  : 	HFONT hOldFont=(HFONT)pDc->SelectObject(hfont);

  00db1	8b 4d e8	 mov	 ecx, DWORD PTR _hfont$[ebp]
  00db4	51		 push	 ecx
  00db5	8b 4d f0	 mov	 ecx, DWORD PTR _pDc$[ebp]
  00db8	e8 00 00 00 00	 call	 ?SelectObject@CDC@@QAEPAXPAX@Z ; CDC::SelectObject
  00dbd	89 45 ec	 mov	 DWORD PTR _hOldFont$[ebp], eax

; 401  : 	for (int i=0;i<vecString.size();++i)

  00dc0	c7 45 a4 00 00
	00 00		 mov	 DWORD PTR _i$198569[ebp], 0
  00dc7	eb 09		 jmp	 SHORT $L198570
$L198571:
  00dc9	8b 55 a4	 mov	 edx, DWORD PTR _i$198569[ebp]
  00dcc	83 c2 01	 add	 edx, 1
  00dcf	89 55 a4	 mov	 DWORD PTR _i$198569[ebp], edx
$L198570:
  00dd2	8b 4d 08	 mov	 ecx, DWORD PTR _vecString$[ebp]
  00dd5	e8 00 00 00 00	 call	 ?size@?$vector@V?$basic_string@DU?$char_traits@D@std@@V?$allocator@D@2@@std@@V?$allocator@V?$basic_string@DU?$char_traits@D@std@@V?$allocator@D@2@@std@@@2@@std@@QBEIXZ ; std::vector<std::basic_string<char,std::char_traits<char>,std::allocator<char> >,std::allocator<std::basic_string<char,std::char_traits<char>,std::allocator<char> > > >::size
  00dda	39 45 a4	 cmp	 DWORD PTR _i$198569[ebp], eax
  00ddd	0f 83 83 00 00
	00		 jae	 $L198572

; 402  : 	{
; 403  : 		CString str=vecString.at(i).c_str();

  00de3	8b 45 a4	 mov	 eax, DWORD PTR _i$198569[ebp]
  00de6	50		 push	 eax
  00de7	8b 4d 08	 mov	 ecx, DWORD PTR _vecString$[ebp]
  00dea	e8 00 00 00 00	 call	 ?at@?$vector@V?$basic_string@DU?$char_traits@D@std@@V?$allocator@D@2@@std@@V?$allocator@V?$basic_string@DU?$char_traits@D@std@@V?$allocator@D@2@@std@@@2@@std@@QAEAAV?$basic_string@DU?$char_traits@D@std@@V?$allocator@D@2@@2@I@Z ; std::vector<std::basic_string<char,std::char_traits<char>,std::allocator<char> >,std::allocator<std::basic_string<char,std::char_traits<char>,std::allocator<char> > > >::at
  00def	8b c8		 mov	 ecx, eax
  00df1	ff 15 00 00 00
	00		 call	 DWORD PTR __imp_?c_str@?$basic_string@DU?$char_traits@D@std@@V?$allocator@D@2@@std@@QBEPBDXZ
  00df7	50		 push	 eax
  00df8	8d 4d 98	 lea	 ecx, DWORD PTR _str$198573[ebp]
  00dfb	ff 15 00 00 00
	00		 call	 DWORD PTR __imp_??0?$CStringT@DV?$StrTraitMFC_DLL@DV?$ChTraitsCRT@D@ATL@@@@@ATL@@QAE@PBD@Z
  00e01	c7 45 fc 00 00
	00 00		 mov	 DWORD PTR __$EHRec$[ebp+8], 0

; 404  : 		m_pList.InsertItem(i,str.GetString());

  00e08	8d 4d 98	 lea	 ecx, DWORD PTR _str$198573[ebp]
  00e0b	ff 15 00 00 00
	00		 call	 DWORD PTR __imp_?GetString@?$CSimpleStringT@D$00@ATL@@QBEPBDXZ
  00e11	50		 push	 eax
  00e12	8b 4d a4	 mov	 ecx, DWORD PTR _i$198569[ebp]
  00e15	51		 push	 ecx
  00e16	8b 4d 94	 mov	 ecx, DWORD PTR _this$[ebp]
  00e19	83 c1 58	 add	 ecx, 88			; 00000058H
  00e1c	e8 00 00 00 00	 call	 ?InsertItem@CListCtrl@@QAEHHPBD@Z ; CListCtrl::InsertItem

; 405  : 
; 406  : 		CSize size=pDc->GetTextExtent(str.Trim());

  00e21	8d 4d 98	 lea	 ecx, DWORD PTR _str$198573[ebp]
  00e24	ff 15 00 00 00
	00		 call	 DWORD PTR __imp_?Trim@?$CStringT@DV?$StrTraitMFC_DLL@DV?$ChTraitsCRT@D@ATL@@@@@ATL@@QAEAAV12@XZ
  00e2a	50		 push	 eax
  00e2b	8d 55 9c	 lea	 edx, DWORD PTR _size$198574[ebp]
  00e2e	52		 push	 edx
  00e2f	8b 4d f0	 mov	 ecx, DWORD PTR _pDc$[ebp]
  00e32	e8 00 00 00 00	 call	 ?GetTextExtent@CDC@@QBE?AVCSize@@ABV?$CStringT@DV?$StrTraitMFC_DLL@DV?$ChTraitsCRT@D@ATL@@@@@ATL@@@Z ; CDC::GetTextExtent

; 407  : 
; 408  : 		if (size.cx>m_iMaxWidth)

  00e37	8b 45 94	 mov	 eax, DWORD PTR _this$[ebp]
  00e3a	8b 4d 9c	 mov	 ecx, DWORD PTR _size$198574[ebp]
  00e3d	3b 88 d8 00 00
	00		 cmp	 ecx, DWORD PTR [eax+216]
  00e43	7e 0c		 jle	 SHORT $L198576

; 409  : 		{
; 410  : 			m_iMaxWidth=size.cx;

  00e45	8b 55 94	 mov	 edx, DWORD PTR _this$[ebp]
  00e48	8b 45 9c	 mov	 eax, DWORD PTR _size$198574[ebp]
  00e4b	89 82 d8 00 00
	00		 mov	 DWORD PTR [edx+216], eax
$L198576:

; 411  : 		}
; 412  : 	}

  00e51	c7 45 fc ff ff
	ff ff		 mov	 DWORD PTR __$EHRec$[ebp+8], -1
  00e58	8d 4d 98	 lea	 ecx, DWORD PTR _str$198573[ebp]
  00e5b	ff 15 00 00 00
	00		 call	 DWORD PTR __imp_??1?$CStringT@DV?$StrTraitMFC_DLL@DV?$ChTraitsCRT@D@ATL@@@@@ATL@@QAE@XZ
  00e61	e9 63 ff ff ff	 jmp	 $L198571
$L198572:

; 413  : 	pDc->SelectObject(hOldFont);

  00e66	8b 4d ec	 mov	 ecx, DWORD PTR _hOldFont$[ebp]
  00e69	51		 push	 ecx
  00e6a	8b 4d f0	 mov	 ecx, DWORD PTR _pDc$[ebp]
  00e6d	e8 00 00 00 00	 call	 ?SelectObject@CDC@@QAEPAXPAX@Z ; CDC::SelectObject

; 414  : 	DeleteObject(hfont);

  00e72	8b 55 e8	 mov	 edx, DWORD PTR _hfont$[ebp]
  00e75	52		 push	 edx
  00e76	ff 15 00 00 00
	00		 call	 DWORD PTR __imp__DeleteObject@4

; 415  : }

  00e7c	8b 4d f4	 mov	 ecx, DWORD PTR __$EHRec$[ebp]
  00e7f	64 89 0d 00 00
	00 00		 mov	 DWORD PTR fs:__except_list, ecx
  00e86	8b 4d e4	 mov	 ecx, DWORD PTR __$ArrayPad$[ebp]
  00e89	e8 00 00 00 00	 call	 @__security_check_cookie@4
  00e8e	8b e5		 mov	 esp, ebp
  00e90	5d		 pop	 ebp
  00e91	c2 04 00	 ret	 4
_TEXT	ENDS
text$x	SEGMENT
$L200222:
  00079	8d 4d 98	 lea	 ecx, DWORD PTR _str$198573[ebp]
  0007c	ff 25 00 00 00
	00		 jmp	 DWORD PTR __imp_??1?$CStringT@DV?$StrTraitMFC_DLL@DV?$ChTraitsCRT@D@ATL@@@@@ATL@@QAE@XZ
__ehhandler$?RefreshData@CComboBoxHistory@@QAEXAAV?$vector@V?$basic_string@DU?$char_traits@D@std@@V?$allocator@D@2@@std@@V?$allocator@V?$basic_string@DU?$char_traits@D@std@@V?$allocator@D@2@@std@@@2@@std@@@Z:
  00082	b8 00 00 00 00	 mov	 eax, OFFSET FLAT:$T200224
  00087	e9 00 00 00 00	 jmp	 ___CxxFrameHandler
text$x	ENDS
?RefreshData@CComboBoxHistory@@QAEXAAV?$vector@V?$basic_string@DU?$char_traits@D@std@@V?$allocator@D@2@@std@@V?$allocator@V?$basic_string@DU?$char_traits@D@std@@V?$allocator@D@2@@std@@@2@@std@@@Z ENDP ; CComboBoxHistory::RefreshData
PUBLIC	?InterlockedExchangePointer@@YGPAXPAPAXPAX@Z	; InterlockedExchangePointer
PUBLIC	?_AtlGetThreadACPFake@ATL@@YGIXZ		; ATL::_AtlGetThreadACPFake
PUBLIC	?_AtlGetThreadACPReal@ATL@@YGIXZ		; ATL::_AtlGetThreadACPReal
EXTRN	__imp__GetVersionExA@4:NEAR
; Function compile flags: /Odt
; File d:\program files (x86)\microsoft visual studio .net 2003\vc7\atlmfc\include\atlconv.h
;	COMDAT ?_AtlGetThreadACPThunk@ATL@@YGIXZ
_TEXT	SEGMENT
_pfnGetThreadACP$ = -164				; size = 4
_ver$ = -160						; size = 148
__$ArrayPad$ = -4					; size = 4
__$ReturnAddr$ = 4					; size = 4
?_AtlGetThreadACPThunk@ATL@@YGIXZ PROC NEAR		; ATL::_AtlGetThreadACPThunk, COMDAT

; 134  : {

  00000	55		 push	 ebp
  00001	8b ec		 mov	 ebp, esp
  00003	81 ec a4 00 00
	00		 sub	 esp, 164		; 000000a4H
  00009	a1 00 00 00 00	 mov	 eax, DWORD PTR ___security_cookie
  0000e	89 45 fc	 mov	 DWORD PTR __$ArrayPad$[ebp], eax

; 135  : 	OSVERSIONINFO ver;
; 136  : 	ATLGETTHREADACP pfnGetThreadACP;
; 137  : 
; 138  : 	ver.dwOSVersionInfoSize = sizeof( ver );

  00011	c7 85 60 ff ff
	ff 94 00 00 00	 mov	 DWORD PTR _ver$[ebp], 148 ; 00000094H

; 139  : 	::GetVersionEx( &ver );

  0001b	8d 85 60 ff ff
	ff		 lea	 eax, DWORD PTR _ver$[ebp]
  00021	50		 push	 eax
  00022	ff 15 00 00 00
	00		 call	 DWORD PTR __imp__GetVersionExA@4

; 140  : 	if( (ver.dwPlatformId == VER_PLATFORM_WIN32_NT) && (ver.dwMajorVersion >= 5) )

  00028	83 bd 70 ff ff
	ff 02		 cmp	 DWORD PTR _ver$[ebp+16], 2
  0002f	75 15		 jne	 SHORT $L24173
  00031	83 bd 64 ff ff
	ff 05		 cmp	 DWORD PTR _ver$[ebp+4], 5
  00038	72 0c		 jb	 SHORT $L24173

; 141  : 	{
; 142  : 		// On Win2K, CP_THREAD_ACP is supported
; 143  : 		pfnGetThreadACP = _AtlGetThreadACPReal;

  0003a	c7 85 5c ff ff
	ff 00 00 00 00	 mov	 DWORD PTR _pfnGetThreadACP$[ebp], OFFSET FLAT:?_AtlGetThreadACPReal@ATL@@YGIXZ ; ATL::_AtlGetThreadACPReal

; 144  : 	}
; 145  : 	else

  00044	eb 0a		 jmp	 SHORT $L24174
$L24173:

; 146  : 	{
; 147  : 		pfnGetThreadACP = _AtlGetThreadACPFake;

  00046	c7 85 5c ff ff
	ff 00 00 00 00	 mov	 DWORD PTR _pfnGetThreadACP$[ebp], OFFSET FLAT:?_AtlGetThreadACPFake@ATL@@YGIXZ ; ATL::_AtlGetThreadACPFake
$L24174:

; 148  : 	}
; 149  : 	InterlockedExchangePointer( reinterpret_cast< void** >(&g_pfnGetThreadACP), pfnGetThreadACP );

  00050	8b 8d 5c ff ff
	ff		 mov	 ecx, DWORD PTR _pfnGetThreadACP$[ebp]
  00056	51		 push	 ecx
  00057	68 00 00 00 00	 push	 OFFSET FLAT:?g_pfnGetThreadACP@ATL@@3P6GIXZA ; ATL::g_pfnGetThreadACP
  0005c	e8 00 00 00 00	 call	 ?InterlockedExchangePointer@@YGPAXPAPAXPAX@Z ; InterlockedExchangePointer

; 150  : 
; 151  : 	return( g_pfnGetThreadACP() );

  00061	ff 15 00 00 00
	00		 call	 DWORD PTR ?g_pfnGetThreadACP@ATL@@3P6GIXZA ; ATL::g_pfnGetThreadACP

; 152  : }

  00067	8b 4d fc	 mov	 ecx, DWORD PTR __$ArrayPad$[ebp]
  0006a	e8 00 00 00 00	 call	 @__security_check_cookie@4
  0006f	8b e5		 mov	 esp, ebp
  00071	5d		 pop	 ebp
  00072	c3		 ret	 0
?_AtlGetThreadACPThunk@ATL@@YGIXZ ENDP			; ATL::_AtlGetThreadACPThunk
_TEXT	ENDS
EXTRN	__imp__InterlockedExchange@8:NEAR
; Function compile flags: /Odt
;	COMDAT ?InterlockedExchangePointer@@YGPAXPAPAXPAX@Z
_TEXT	SEGMENT
_pp$ = 8						; size = 4
_pNew$ = 12						; size = 4
?InterlockedExchangePointer@@YGPAXPAPAXPAX@Z PROC NEAR	; InterlockedExchangePointer, COMDAT

; 91   : {

  00000	55		 push	 ebp
  00001	8b ec		 mov	 ebp, esp

; 92   : 	return( reinterpret_cast<void*>(static_cast<LONG_PTR>(::InterlockedExchange(reinterpret_cast<LONG*>(pp), static_cast<LONG>(reinterpret_cast<LONG_PTR>(pNew))))) );

  00003	8b 45 0c	 mov	 eax, DWORD PTR _pNew$[ebp]
  00006	50		 push	 eax
  00007	8b 4d 08	 mov	 ecx, DWORD PTR _pp$[ebp]
  0000a	51		 push	 ecx
  0000b	ff 15 00 00 00
	00		 call	 DWORD PTR __imp__InterlockedExchange@8

; 93   : }

  00011	5d		 pop	 ebp
  00012	c2 08 00	 ret	 8
?InterlockedExchangePointer@@YGPAXPAPAXPAX@Z ENDP	; InterlockedExchangePointer
_TEXT	ENDS
EXTRN	__imp__GetACP@0:NEAR
EXTRN	__imp__GetLocaleInfoA@16:NEAR
EXTRN	__imp__GetThreadLocale@0:NEAR
; Function compile flags: /Odt
;	COMDAT ?_AtlGetThreadACPFake@ATL@@YGIXZ
_TEXT	SEGMENT
_pch$24161 = -24					; size = 4
_lcidThread$ = -20					; size = 4
_szACP$ = -16						; size = 7
__$ArrayPad$ = -8					; size = 4
_nACP$ = -4						; size = 4
__$ReturnAddr$ = 4					; size = 4
?_AtlGetThreadACPFake@ATL@@YGIXZ PROC NEAR		; ATL::_AtlGetThreadACPFake, COMDAT

; 101  : {

  00000	55		 push	 ebp
  00001	8b ec		 mov	 ebp, esp
  00003	83 ec 18	 sub	 esp, 24			; 00000018H
  00006	a1 00 00 00 00	 mov	 eax, DWORD PTR ___security_cookie
  0000b	89 45 f8	 mov	 DWORD PTR __$ArrayPad$[ebp], eax

; 102  : 	UINT nACP = 0;

  0000e	c7 45 fc 00 00
	00 00		 mov	 DWORD PTR _nACP$[ebp], 0

; 103  : 
; 104  : 	LCID lcidThread = ::GetThreadLocale();

  00015	ff 15 00 00 00
	00		 call	 DWORD PTR __imp__GetThreadLocale@0
  0001b	89 45 ec	 mov	 DWORD PTR _lcidThread$[ebp], eax

; 105  : 
; 106  : 	char szACP[7];
; 107  : 	// GetLocaleInfoA will fail for a Unicode-only LCID, but those are only supported on 
; 108  : 	// Windows 2000.  Since Windows 2000 supports CP_THREAD_ACP, this code path is never
; 109  : 	// executed on Windows 2000.
; 110  : 	if (::GetLocaleInfoA(lcidThread, LOCALE_IDEFAULTANSICODEPAGE, szACP, 7) != 0)

  0001e	6a 07		 push	 7
  00020	8d 45 f0	 lea	 eax, DWORD PTR _szACP$[ebp]
  00023	50		 push	 eax
  00024	68 04 10 00 00	 push	 4100			; 00001004H
  00029	8b 4d ec	 mov	 ecx, DWORD PTR _lcidThread$[ebp]
  0002c	51		 push	 ecx
  0002d	ff 15 00 00 00
	00		 call	 DWORD PTR __imp__GetLocaleInfoA@16
  00033	85 c0		 test	 eax, eax
  00035	74 34		 je	 SHORT $L24160

; 111  : 	{
; 112  : 		char* pch = szACP;

  00037	8d 55 f0	 lea	 edx, DWORD PTR _szACP$[ebp]
  0003a	89 55 e8	 mov	 DWORD PTR _pch$24161[ebp], edx
$L24163:

; 113  : 		while (*pch != '\0')

  0003d	8b 45 e8	 mov	 eax, DWORD PTR _pch$24161[ebp]
  00040	0f be 08	 movsx	 ecx, BYTE PTR [eax]
  00043	85 c9		 test	 ecx, ecx
  00045	74 24		 je	 SHORT $L24160

; 114  : 		{
; 115  : 			nACP *= 10;

  00047	8b 55 fc	 mov	 edx, DWORD PTR _nACP$[ebp]
  0004a	6b d2 0a	 imul	 edx, 10			; 0000000aH
  0004d	89 55 fc	 mov	 DWORD PTR _nACP$[ebp], edx

; 116  : 			nACP += *pch++ - '0';

  00050	8b 45 e8	 mov	 eax, DWORD PTR _pch$24161[ebp]
  00053	0f be 08	 movsx	 ecx, BYTE PTR [eax]
  00056	8b 55 fc	 mov	 edx, DWORD PTR _nACP$[ebp]
  00059	8d 44 0a d0	 lea	 eax, DWORD PTR [edx+ecx-48]
  0005d	89 45 fc	 mov	 DWORD PTR _nACP$[ebp], eax
  00060	8b 4d e8	 mov	 ecx, DWORD PTR _pch$24161[ebp]
  00063	83 c1 01	 add	 ecx, 1
  00066	89 4d e8	 mov	 DWORD PTR _pch$24161[ebp], ecx

; 117  : 		}

  00069	eb d2		 jmp	 SHORT $L24163
$L24160:

; 118  : 	}
; 119  : 	// Use the Default ANSI Code Page if we were unable to get the thread ACP or if one does not exist.
; 120  : 	if (nACP == 0)

  0006b	83 7d fc 00	 cmp	 DWORD PTR _nACP$[ebp], 0
  0006f	75 09		 jne	 SHORT $L24165

; 121  : 		nACP = ::GetACP();

  00071	ff 15 00 00 00
	00		 call	 DWORD PTR __imp__GetACP@0
  00077	89 45 fc	 mov	 DWORD PTR _nACP$[ebp], eax
$L24165:

; 122  : 
; 123  : 	return nACP;

  0007a	8b 45 fc	 mov	 eax, DWORD PTR _nACP$[ebp]

; 124  : }

  0007d	8b 4d f8	 mov	 ecx, DWORD PTR __$ArrayPad$[ebp]
  00080	e8 00 00 00 00	 call	 @__security_check_cookie@4
  00085	8b e5		 mov	 esp, ebp
  00087	5d		 pop	 ebp
  00088	c3		 ret	 0
?_AtlGetThreadACPFake@ATL@@YGIXZ ENDP			; ATL::_AtlGetThreadACPFake
; Function compile flags: /Odt
_TEXT	ENDS
;	COMDAT ?_AtlGetThreadACPReal@ATL@@YGIXZ
_TEXT	SEGMENT
?_AtlGetThreadACPReal@ATL@@YGIXZ PROC NEAR		; ATL::_AtlGetThreadACPReal, COMDAT

; 127  : {

  00000	55		 push	 ebp
  00001	8b ec		 mov	 ebp, esp

; 128  : 	return( CP_THREAD_ACP );

  00003	b8 03 00 00 00	 mov	 eax, 3

; 129  : }

  00008	5d		 pop	 ebp
  00009	c3		 ret	 0
?_AtlGetThreadACPReal@ATL@@YGIXZ ENDP			; ATL::_AtlGetThreadACPReal
_TEXT	ENDS
PUBLIC	?SetColumnWidth@CListCtrl@@QAEHHH@Z		; CListCtrl::SetColumnWidth
PUBLIC	?Width@CRect@@QBEHXZ				; CRect::Width
PUBLIC	?OnShowWindow@CWnd@@IAEXHI@Z			; CWnd::OnShowWindow
PUBLIC	?MoveWindow@CWnd@@QAEXPBUtagRECT@@H@Z		; CWnd::MoveWindow
EXTRN	__imp__ReleaseCapture@0:NEAR
; Function compile flags: /Odt
; File d:\boxgit\playbox\playbox\dev\prj\playbox\src\gui\commoncontrol\xskincombobox.cpp
_TEXT	SEGMENT
_this$ = -20						; size = 4
_rect$198583 = -16					; size = 16
_bShow$ = 8						; size = 4
_nStatus$ = 12						; size = 4
?OnShowWindow@CComboBoxHistory@@IAEXHI@Z PROC NEAR	; CComboBoxHistory::OnShowWindow
; _this$ = ecx

; 417  : {

  00ea0	55		 push	 ebp
  00ea1	8b ec		 mov	 ebp, esp
  00ea3	83 ec 14	 sub	 esp, 20			; 00000014H
  00ea6	89 4d ec	 mov	 DWORD PTR _this$[ebp], ecx

; 418  : 	CWnd::OnShowWindow(bShow, nStatus);

  00ea9	8b 45 0c	 mov	 eax, DWORD PTR _nStatus$[ebp]
  00eac	50		 push	 eax
  00ead	8b 4d 08	 mov	 ecx, DWORD PTR _bShow$[ebp]
  00eb0	51		 push	 ecx
  00eb1	8b 4d ec	 mov	 ecx, DWORD PTR _this$[ebp]
  00eb4	e8 00 00 00 00	 call	 ?OnShowWindow@CWnd@@IAEXHI@Z ; CWnd::OnShowWindow

; 419  : 	if (bShow)

  00eb9	83 7d 08 00	 cmp	 DWORD PTR _bShow$[ebp], 0
  00ebd	74 7b		 je	 SHORT $L198582

; 420  : 	{
; 421  : 		CRect rect;

  00ebf	8d 4d f0	 lea	 ecx, DWORD PTR _rect$198583[ebp]
  00ec2	e8 00 00 00 00	 call	 ??0CRect@@QAE@XZ	; CRect::CRect

; 422  : 		GetClientRect(&rect);

  00ec7	8d 55 f0	 lea	 edx, DWORD PTR _rect$198583[ebp]
  00eca	52		 push	 edx
  00ecb	8b 4d ec	 mov	 ecx, DWORD PTR _this$[ebp]
  00ece	e8 00 00 00 00	 call	 ?GetClientRect@CWnd@@QBEXPAUtagRECT@@@Z ; CWnd::GetClientRect

; 423  : 		m_pList.SetColumnWidth(0,rect.Width()-2);

  00ed3	8d 4d f0	 lea	 ecx, DWORD PTR _rect$198583[ebp]
  00ed6	e8 00 00 00 00	 call	 ?Width@CRect@@QBEHXZ	; CRect::Width
  00edb	83 e8 02	 sub	 eax, 2
  00ede	50		 push	 eax
  00edf	6a 00		 push	 0
  00ee1	8b 4d ec	 mov	 ecx, DWORD PTR _this$[ebp]
  00ee4	83 c1 58	 add	 ecx, 88			; 00000058H
  00ee7	e8 00 00 00 00	 call	 ?SetColumnWidth@CListCtrl@@QAEHHH@Z ; CListCtrl::SetColumnWidth

; 424  : 
; 425  : 		rect.top+=1;

  00eec	8b 45 f4	 mov	 eax, DWORD PTR _rect$198583[ebp+4]
  00eef	83 c0 01	 add	 eax, 1
  00ef2	89 45 f4	 mov	 DWORD PTR _rect$198583[ebp+4], eax

; 426  : 		rect.bottom-=1;

  00ef5	8b 4d fc	 mov	 ecx, DWORD PTR _rect$198583[ebp+12]
  00ef8	83 e9 01	 sub	 ecx, 1
  00efb	89 4d fc	 mov	 DWORD PTR _rect$198583[ebp+12], ecx

; 427  : 		rect.left+=1;

  00efe	8b 55 f0	 mov	 edx, DWORD PTR _rect$198583[ebp]
  00f01	83 c2 01	 add	 edx, 1
  00f04	89 55 f0	 mov	 DWORD PTR _rect$198583[ebp], edx

; 428  : 		rect.right-=1;

  00f07	8b 45 f8	 mov	 eax, DWORD PTR _rect$198583[ebp+8]
  00f0a	83 e8 01	 sub	 eax, 1
  00f0d	89 45 f8	 mov	 DWORD PTR _rect$198583[ebp+8], eax

; 429  : 		m_pList.MoveWindow(rect);

  00f10	6a 01		 push	 1
  00f12	8d 4d f0	 lea	 ecx, DWORD PTR _rect$198583[ebp]
  00f15	e8 00 00 00 00	 call	 ??BCRect@@QAEPAUtagRECT@@XZ ; CRect::operator tagRECT *
  00f1a	50		 push	 eax
  00f1b	8b 4d ec	 mov	 ecx, DWORD PTR _this$[ebp]
  00f1e	83 c1 58	 add	 ecx, 88			; 00000058H
  00f21	e8 00 00 00 00	 call	 ?MoveWindow@CWnd@@QAEXPBUtagRECT@@H@Z ; CWnd::MoveWindow

; 430  : 		::SetCapture(m_pList.GetSafeHwnd());

  00f26	8b 4d ec	 mov	 ecx, DWORD PTR _this$[ebp]
  00f29	83 c1 58	 add	 ecx, 88			; 00000058H
  00f2c	e8 00 00 00 00	 call	 ?GetSafeHwnd@CWnd@@QBEPAUHWND__@@XZ ; CWnd::GetSafeHwnd
  00f31	50		 push	 eax
  00f32	ff 15 00 00 00
	00		 call	 DWORD PTR __imp__SetCapture@4

; 431  : 	}
; 432  : 	else

  00f38	eb 06		 jmp	 SHORT $L198581
$L198582:

; 433  : 	{
; 434  : 		::ReleaseCapture();

  00f3a	ff 15 00 00 00
	00		 call	 DWORD PTR __imp__ReleaseCapture@0
$L198581:

; 435  : 	}
; 436  : }

  00f40	8b e5		 mov	 esp, ebp
  00f42	5d		 pop	 ebp
  00f43	c2 08 00	 ret	 8
?OnShowWindow@CComboBoxHistory@@IAEXHI@Z ENDP		; CComboBoxHistory::OnShowWindow
_TEXT	ENDS
PUBLIC	?SetMsgWnd@CComboBoxHistory@@QAEXPAVCWnd@@@Z	; CComboBoxHistory::SetMsgWnd
; Function compile flags: /Odt
_TEXT	SEGMENT
_this$ = -4						; size = 4
_pMsgWnd$ = 8						; size = 4
?SetMsgWnd@CComboBoxHistory@@QAEXPAVCWnd@@@Z PROC NEAR	; CComboBoxHistory::SetMsgWnd
; _this$ = ecx

; 438  : {

  00f50	55		 push	 ebp
  00f51	8b ec		 mov	 ebp, esp
  00f53	51		 push	 ecx
  00f54	89 4d fc	 mov	 DWORD PTR _this$[ebp], ecx

; 439  : 	m_pMsgWnd=pMsgWnd;

  00f57	8b 45 fc	 mov	 eax, DWORD PTR _this$[ebp]
  00f5a	8b 4d 08	 mov	 ecx, DWORD PTR _pMsgWnd$[ebp]
  00f5d	89 48 54	 mov	 DWORD PTR [eax+84], ecx

; 440  : }

  00f60	8b e5		 mov	 esp, ebp
  00f62	5d		 pop	 ebp
  00f63	c2 04 00	 ret	 4
?SetMsgWnd@CComboBoxHistory@@QAEXPAVCWnd@@@Z ENDP	; CComboBoxHistory::SetMsgWnd
_TEXT	ENDS
PUBLIC	?GetMaxItemTextWidth@CComboBoxHistory@@QAEHXZ	; CComboBoxHistory::GetMaxItemTextWidth
; Function compile flags: /Odt
_TEXT	SEGMENT
_this$ = -4						; size = 4
?GetMaxItemTextWidth@CComboBoxHistory@@QAEHXZ PROC NEAR	; CComboBoxHistory::GetMaxItemTextWidth
; _this$ = ecx

; 443  : {

  00f70	55		 push	 ebp
  00f71	8b ec		 mov	 ebp, esp
  00f73	51		 push	 ecx
  00f74	89 4d fc	 mov	 DWORD PTR _this$[ebp], ecx

; 444  : 	return m_iMaxWidth;

  00f77	8b 45 fc	 mov	 eax, DWORD PTR _this$[ebp]
  00f7a	8b 80 d8 00 00
	00		 mov	 eax, DWORD PTR [eax+216]

; 445  : }

  00f80	8b e5		 mov	 esp, ebp
  00f82	5d		 pop	 ebp
  00f83	c3		 ret	 0
?GetMaxItemTextWidth@CComboBoxHistory@@QAEHXZ ENDP	; CComboBoxHistory::GetMaxItemTextWidth
_TEXT	ENDS
PUBLIC	?GetItemHeight@CComboBoxHistory@@QAEHXZ		; CComboBoxHistory::GetItemHeight
PUBLIC	?Height@CRect@@QBEHXZ				; CRect::Height
EXTRN	?GetItemRect@CListCtrl@@QBEHHPAUtagRECT@@I@Z:NEAR ; CListCtrl::GetItemRect
; Function compile flags: /Odt
_TEXT	SEGMENT
_this$ = -20						; size = 4
_rect$ = -16						; size = 16
?GetItemHeight@CComboBoxHistory@@QAEHXZ PROC NEAR	; CComboBoxHistory::GetItemHeight
; _this$ = ecx

; 449  : {

  00f90	55		 push	 ebp
  00f91	8b ec		 mov	 ebp, esp
  00f93	83 ec 14	 sub	 esp, 20			; 00000014H
  00f96	89 4d ec	 mov	 DWORD PTR _this$[ebp], ecx

; 450  : 	CRect rect;

  00f99	8d 4d f0	 lea	 ecx, DWORD PTR _rect$[ebp]
  00f9c	e8 00 00 00 00	 call	 ??0CRect@@QAE@XZ	; CRect::CRect

; 451  : 	m_pList.GetItemRect(0,&rect,LVIR_BOUNDS);

  00fa1	6a 00		 push	 0
  00fa3	8d 45 f0	 lea	 eax, DWORD PTR _rect$[ebp]
  00fa6	50		 push	 eax
  00fa7	6a 00		 push	 0
  00fa9	8b 4d ec	 mov	 ecx, DWORD PTR _this$[ebp]
  00fac	83 c1 58	 add	 ecx, 88			; 00000058H
  00faf	e8 00 00 00 00	 call	 ?GetItemRect@CListCtrl@@QBEHHPAUtagRECT@@I@Z ; CListCtrl::GetItemRect

; 452  : 
; 453  : 	return rect.Height();

  00fb4	8d 4d f0	 lea	 ecx, DWORD PTR _rect$[ebp]
  00fb7	e8 00 00 00 00	 call	 ?Height@CRect@@QBEHXZ	; CRect::Height

; 454  : }

  00fbc	8b e5		 mov	 esp, ebp
  00fbe	5d		 pop	 ebp
  00fbf	c3		 ret	 0
?GetItemHeight@CComboBoxHistory@@QAEHXZ ENDP		; CComboBoxHistory::GetItemHeight
_TEXT	ENDS
PUBLIC	??0CxSkinComboBox@@QAE@XZ			; CxSkinComboBox::CxSkinComboBox
PUBLIC	?RegisterWindowClass@CxSkinComboBox@@AAEHXZ	; CxSkinComboBox::RegisterWindowClass
PUBLIC	??0?$vector@V?$basic_string@DU?$char_traits@D@std@@V?$allocator@D@2@@std@@V?$allocator@V?$basic_string@DU?$char_traits@D@std@@V?$allocator@D@2@@std@@@2@@std@@QAE@XZ ; std::vector<std::basic_string<char,std::char_traits<char>,std::allocator<char> >,std::allocator<std::basic_string<char,std::char_traits<char>,std::allocator<char> > > >::vector<std::basic_string<char,std::char_traits<char>,std::allocator<char> >,std::allocator<std::basic_string<char,std::char_traits<char>,std::allocator<char> > > >
PUBLIC	??1?$vector@V?$basic_string@DU?$char_traits@D@std@@V?$allocator@D@2@@std@@V?$allocator@V?$basic_string@DU?$char_traits@D@std@@V?$allocator@D@2@@std@@@2@@std@@QAE@XZ ; std::vector<std::basic_string<char,std::char_traits<char>,std::allocator<char> >,std::allocator<std::basic_string<char,std::char_traits<char>,std::allocator<char> > > >::~vector<std::basic_string<char,std::char_traits<char>,std::allocator<char> >,std::allocator<std::basic_string<char,std::char_traits<char>,std::allocator<char> > > >
PUBLIC	?GetMessageMap@CxSkinComboBox@@MBEPBUAFX_MSGMAP@@XZ ; CxSkinComboBox::GetMessageMap
PUBLIC	?OnCommand@CxSkinComboBox@@MAEHIJ@Z		; CxSkinComboBox::OnCommand
PUBLIC	??_7CxSkinComboBox@@6B@				; CxSkinComboBox::`vftable'
PUBLIC	??_GCxSkinComboBox@@UAEPAXI@Z			; CxSkinComboBox::`scalar deleting destructor'
PUBLIC	??0CBrush@@QAE@XZ				; CBrush::CBrush
PUBLIC	??1CBrush@@UAE@XZ				; CBrush::~CBrush
PUBLIC	??_R4CxSkinComboBox@@6B@			; CxSkinComboBox::`RTTI Complete Object Locator'
PUBLIC	??_R0?AVCxSkinComboBox@@@8			; CxSkinComboBox `RTTI Type Descriptor'
PUBLIC	??_R3CxSkinComboBox@@8				; CxSkinComboBox::`RTTI Class Hierarchy Descriptor'
PUBLIC	??_R2CxSkinComboBox@@8				; CxSkinComboBox::`RTTI Base Class Array'
PUBLIC	??_R1A@?0A@A@CxSkinComboBox@@8			; CxSkinComboBox::`RTTI Base Class Descriptor at (0,-1,0,0)'
EXTRN	??_ECxSkinComboBox@@UAEPAXI@Z:NEAR		; CxSkinComboBox::`vector deleting destructor'
EXTRN	??0CxSkinButton@@QAE@XZ:NEAR			; CxSkinButton::CxSkinButton
EXTRN	??1CxSkinButton@@UAE@XZ:NEAR			; CxSkinButton::~CxSkinButton
xdata$x	SEGMENT
$T200256 DD	0ffffffffH
	DD	FLAT:$L200245
	DD	00H
	DD	FLAT:$L200246
	DD	01H
	DD	FLAT:$L200247
	DD	02H
	DD	FLAT:$L200248
	DD	03H
	DD	FLAT:$L200249
	DD	04H
	DD	FLAT:$L200250
	DD	05H
	DD	FLAT:$L200251
	DD	06H
	DD	FLAT:$L200252
$T200254 DD	019930520H
	DD	08H
	DD	FLAT:$T200256
	DD	2 DUP(00H)
	DD	2 DUP(00H)
xdata$x	ENDS
;	COMDAT ??_7CxSkinComboBox@@6B@
CONST	SEGMENT
??_7CxSkinComboBox@@6B@ DD FLAT:??_R4CxSkinComboBox@@6B@ ; CxSkinComboBox::`vftable'
	DD	FLAT:?GetRuntimeClass@CWnd@@UBEPAUCRuntimeClass@@XZ
	DD	FLAT:??_ECxSkinComboBox@@UAEPAXI@Z
	DD	FLAT:?Serialize@CObject@@UAEXAAVCArchive@@@Z
	DD	FLAT:?AssertValid@CObject@@UBEXXZ
	DD	FLAT:?Dump@CObject@@UBEXAAVCDumpContext@@@Z
	DD	FLAT:?OnCmdMsg@CCmdTarget@@UAEHIHPAXPAUAFX_CMDHANDLERINFO@@@Z
	DD	FLAT:?OnFinalRelease@CWnd@@UAEXXZ
	DD	FLAT:?IsInvokeAllowed@CCmdTarget@@UAEHJ@Z
	DD	FLAT:?GetDispatchIID@CCmdTarget@@UAEHPAU_GUID@@@Z
	DD	FLAT:?GetTypeInfoCount@CCmdTarget@@UAEIXZ
	DD	FLAT:?GetTypeLibCache@CCmdTarget@@UAEPAVCTypeLibCache@@XZ
	DD	FLAT:?GetTypeLib@CCmdTarget@@UAEJKPAPAUITypeLib@@@Z
	DD	FLAT:?GetMessageMap@CxSkinComboBox@@MBEPBUAFX_MSGMAP@@XZ
	DD	FLAT:?GetCommandMap@CCmdTarget@@MBEPBUAFX_OLECMDMAP@@XZ
	DD	FLAT:?GetDispatchMap@CCmdTarget@@MBEPBUAFX_DISPMAP@@XZ
	DD	FLAT:?GetConnectionMap@CCmdTarget@@MBEPBUAFX_CONNECTIONMAP@@XZ
	DD	FLAT:?GetInterfaceMap@CWnd@@MBEPBUAFX_INTERFACEMAP@@XZ
	DD	FLAT:?GetEventSinkMap@CCmdTarget@@MBEPBUAFX_EVENTSINKMAP@@XZ
	DD	FLAT:?OnCreateAggregates@CCmdTarget@@UAEHXZ
	DD	FLAT:?GetInterfaceHook@CCmdTarget@@UAEPAUIUnknown@@PBX@Z
	DD	FLAT:?GetExtraConnectionPoints@CCmdTarget@@MAEHPAVCPtrArray@@@Z
	DD	FLAT:?GetConnectionHook@CCmdTarget@@MAEPAUIConnectionPoint@@ABU_GUID@@@Z
	DD	FLAT:?PreSubclassWindow@CWnd@@UAEXXZ
	DD	FLAT:?Create@CWnd@@UAEHPBD0KABUtagRECT@@PAV1@IPAUCCreateContext@@@Z
	DD	FLAT:?CreateEx@CWnd@@UAEHKPBD0KABUtagRECT@@PAV1@IPAX@Z
	DD	FLAT:?CreateEx@CWnd@@UAEHKPBD0KHHHHPAUHWND__@@PAUHMENU__@@PAX@Z
	DD	FLAT:?DestroyWindow@CWnd@@UAEHXZ
	DD	FLAT:?PreCreateWindow@CWnd@@UAEHAAUtagCREATESTRUCTA@@@Z
	DD	FLAT:?CalcWindowRect@CWnd@@UAEXPAUtagRECT@@I@Z
	DD	FLAT:?OnToolHitTest@CWnd@@UBEHVCPoint@@PAUtagTOOLINFOA@@@Z
	DD	FLAT:?GetScrollBarCtrl@CWnd@@UBEPAVCScrollBar@@H@Z
	DD	FLAT:?WinHelpA@CWnd@@UAEXKI@Z
	DD	FLAT:?HtmlHelpA@CWnd@@UAEXKI@Z
	DD	FLAT:?WinHelpInternal@CWnd@@UAEXKI@Z
	DD	FLAT:?ContinueModal@CWnd@@UAEHXZ
	DD	FLAT:?EndModalLoop@CWnd@@UAEXH@Z
	DD	FLAT:?EnsureStdObj@CWnd@@UAEJXZ
	DD	FLAT:?get_accParent@CWnd@@UAEJPAPAUIDispatch@@@Z
	DD	FLAT:?get_accChildCount@CWnd@@UAEJPAJ@Z
	DD	FLAT:?get_accChild@CWnd@@UAEJUtagVARIANT@@PAPAUIDispatch@@@Z
	DD	FLAT:?get_accName@CWnd@@UAEJUtagVARIANT@@PAPA_W@Z
	DD	FLAT:?get_accValue@CWnd@@UAEJUtagVARIANT@@PAPA_W@Z
	DD	FLAT:?get_accDescription@CWnd@@UAEJUtagVARIANT@@PAPA_W@Z
	DD	FLAT:?get_accRole@CWnd@@UAEJUtagVARIANT@@PAU2@@Z
	DD	FLAT:?get_accState@CWnd@@UAEJUtagVARIANT@@PAU2@@Z
	DD	FLAT:?get_accHelp@CWnd@@UAEJUtagVARIANT@@PAPA_W@Z
	DD	FLAT:?get_accHelpTopic@CWnd@@UAEJPAPA_WUtagVARIANT@@PAJ@Z
	DD	FLAT:?get_accKeyboardShortcut@CWnd@@UAEJUtagVARIANT@@PAPA_W@Z
	DD	FLAT:?get_accFocus@CWnd@@UAEJPAUtagVARIANT@@@Z
	DD	FLAT:?get_accSelection@CWnd@@UAEJPAUtagVARIANT@@@Z
	DD	FLAT:?get_accDefaultAction@CWnd@@UAEJUtagVARIANT@@PAPA_W@Z
	DD	FLAT:?accSelect@CWnd@@UAEJJUtagVARIANT@@@Z
	DD	FLAT:?accLocation@CWnd@@UAEJPAJ000UtagVARIANT@@@Z
	DD	FLAT:?accNavigate@CWnd@@UAEJJUtagVARIANT@@PAU2@@Z
	DD	FLAT:?accHitTest@CWnd@@UAEJJJPAUtagVARIANT@@@Z
	DD	FLAT:?accDoDefaultAction@CWnd@@UAEJUtagVARIANT@@@Z
	DD	FLAT:?put_accName@CWnd@@UAEJUtagVARIANT@@PA_W@Z
	DD	FLAT:?put_accValue@CWnd@@UAEJUtagVARIANT@@PA_W@Z
	DD	FLAT:?SetProxy@CWnd@@UAEJPAUIAccessibleProxy@@@Z
	DD	FLAT:?CreateAccessibleProxy@CWnd@@UAEJIJPAJ@Z
	DD	FLAT:?OnCommand@CxSkinComboBox@@MAEHIJ@Z
	DD	FLAT:?OnNotify@CWnd@@MAEHIJPAJ@Z
	DD	FLAT:?GetSuperWndProcAddr@CWnd@@MAEPAP6GJPAUHWND__@@IIJ@ZXZ
	DD	FLAT:?DoDataExchange@CWnd@@MAEXPAVCDataExchange@@@Z
	DD	FLAT:?BeginModalState@CWnd@@UAEXXZ
	DD	FLAT:?EndModalState@CWnd@@UAEXXZ
	DD	FLAT:?PreTranslateMessage@CWnd@@UAEHPAUtagMSG@@@Z
	DD	FLAT:?OnAmbientProperty@CWnd@@UAEHPAVCOleControlSite@@JPAUtagVARIANT@@@Z
	DD	FLAT:?WindowProc@CWnd@@MAEJIIJ@Z
	DD	FLAT:?OnWndMsg@CWnd@@MAEHIIJPAJ@Z
	DD	FLAT:?DefWindowProcA@CWnd@@MAEJIIJ@Z
	DD	FLAT:?PostNcDestroy@CWnd@@MAEXXZ
	DD	FLAT:?OnChildNotify@CWnd@@MAEHIIJPAJ@Z
	DD	FLAT:?CheckAutoCenter@CWnd@@UAEHXZ
	DD	FLAT:?IsFrameWnd@CWnd@@UBEHXZ
	DD	FLAT:?CreateControlContainer@CWnd@@MAEHPAPAVCOleControlContainer@@@Z
	DD	FLAT:?CreateControlSite@CWnd@@MAEHPAVCOleControlContainer@@PAPAVCOleControlSite@@IABU_GUID@@@Z
	DD	FLAT:?SetOccDialogInfo@CWnd@@MAEHPAU_AFX_OCC_DIALOG_INFO@@@Z
CONST	ENDS
;	COMDAT ??_R4CxSkinComboBox@@6B@
rdata$r	SEGMENT
??_R4CxSkinComboBox@@6B@ DD 00H				; CxSkinComboBox::`RTTI Complete Object Locator'
	DD	00H
	DD	00H
	DD	FLAT:??_R0?AVCxSkinComboBox@@@8
	DD	FLAT:??_R3CxSkinComboBox@@8
rdata$r	ENDS
;	COMDAT ??_R0?AVCxSkinComboBox@@@8
_DATA	SEGMENT
??_R0?AVCxSkinComboBox@@@8 DD FLAT:??_7type_info@@6B@	; CxSkinComboBox `RTTI Type Descriptor'
	DD	00H
	DB	'.?AVCxSkinComboBox@@', 00H
_DATA	ENDS
;	COMDAT ??_R3CxSkinComboBox@@8
rdata$r	SEGMENT
??_R3CxSkinComboBox@@8 DD 00H				; CxSkinComboBox::`RTTI Class Hierarchy Descriptor'
	DD	00H
	DD	04H
	DD	FLAT:??_R2CxSkinComboBox@@8
rdata$r	ENDS
;	COMDAT ??_R2CxSkinComboBox@@8
rdata$r	SEGMENT
??_R2CxSkinComboBox@@8 DD FLAT:??_R1A@?0A@A@CxSkinComboBox@@8 ; CxSkinComboBox::`RTTI Base Class Array'
	DD	FLAT:??_R1A@?0A@A@CWnd@@8
	DD	FLAT:??_R1A@?0A@A@CCmdTarget@@8
	DD	FLAT:??_R1A@?0A@A@CObject@@8
rdata$r	ENDS
;	COMDAT ??_R1A@?0A@A@CxSkinComboBox@@8
rdata$r	SEGMENT
??_R1A@?0A@A@CxSkinComboBox@@8 DD FLAT:??_R0?AVCxSkinComboBox@@@8 ; CxSkinComboBox::`RTTI Base Class Descriptor at (0,-1,0,0)'
	DD	03H
	DD	00H
	DD	0ffffffffH
	DD	00H
	DD	00H
; Function compile flags: /Odt
rdata$r	ENDS
_TEXT	SEGMENT
_this$ = -16						; size = 4
__$EHRec$ = -12						; size = 12
??0CxSkinComboBox@@QAE@XZ PROC NEAR			; CxSkinComboBox::CxSkinComboBox
; _this$ = ecx

; 464  : {

  00fc0	55		 push	 ebp
  00fc1	8b ec		 mov	 ebp, esp
  00fc3	6a ff		 push	 -1
  00fc5	68 00 00 00 00	 push	 __ehhandler$??0CxSkinComboBox@@QAE@XZ
  00fca	64 a1 00 00 00
	00		 mov	 eax, DWORD PTR fs:__except_list
  00fd0	50		 push	 eax
  00fd1	64 89 25 00 00
	00 00		 mov	 DWORD PTR fs:__except_list, esp
  00fd8	51		 push	 ecx
  00fd9	89 4d f0	 mov	 DWORD PTR _this$[ebp], ecx
  00fdc	8b 4d f0	 mov	 ecx, DWORD PTR _this$[ebp]
  00fdf	e8 00 00 00 00	 call	 ??0CWnd@@QAE@XZ		; CWnd::CWnd
  00fe4	c7 45 fc 00 00
	00 00		 mov	 DWORD PTR __$EHRec$[ebp+8], 0
  00feb	8b 45 f0	 mov	 eax, DWORD PTR _this$[ebp]
  00fee	c7 00 00 00 00
	00		 mov	 DWORD PTR [eax], OFFSET FLAT:??_7CxSkinComboBox@@6B@
  00ff4	8b 4d f0	 mov	 ecx, DWORD PTR _this$[ebp]
  00ff7	83 c1 54	 add	 ecx, 84			; 00000054H
  00ffa	e8 00 00 00 00	 call	 ??0COMBOBOXSKIN@@QAE@XZ	; COMBOBOXSKIN::COMBOBOXSKIN
  00fff	8b 4d f0	 mov	 ecx, DWORD PTR _this$[ebp]
  01002	81 c1 88 00 00
	00		 add	 ecx, 136		; 00000088H
  01008	e8 00 00 00 00	 call	 ??0CComboBoxEdit@@QAE@XZ ; CComboBoxEdit::CComboBoxEdit
  0100d	c6 45 fc 01	 mov	 BYTE PTR __$EHRec$[ebp+8], 1
  01011	8b 4d f0	 mov	 ecx, DWORD PTR _this$[ebp]
  01014	81 c1 e8 00 00
	00		 add	 ecx, 232		; 000000e8H
  0101a	e8 00 00 00 00	 call	 ??0CComboBoxHistory@@QAE@XZ ; CComboBoxHistory::CComboBoxHistory
  0101f	c6 45 fc 02	 mov	 BYTE PTR __$EHRec$[ebp+8], 2
  01023	8b 4d f0	 mov	 ecx, DWORD PTR _this$[ebp]
  01026	81 c1 c4 01 00
	00		 add	 ecx, 452		; 000001c4H
  0102c	e8 00 00 00 00	 call	 ??0CxSkinButton@@QAE@XZ	; CxSkinButton::CxSkinButton
  01031	c6 45 fc 03	 mov	 BYTE PTR __$EHRec$[ebp+8], 3
  01035	8b 4d f0	 mov	 ecx, DWORD PTR _this$[ebp]
  01038	81 c1 e8 02 00
	00		 add	 ecx, 744		; 000002e8H
  0103e	e8 00 00 00 00	 call	 ??0CFont@@QAE@XZ	; CFont::CFont
  01043	c6 45 fc 04	 mov	 BYTE PTR __$EHRec$[ebp+8], 4
  01047	8b 4d f0	 mov	 ecx, DWORD PTR _this$[ebp]
  0104a	c7 81 f0 02 00
	00 14 00 00 00	 mov	 DWORD PTR [ecx+752], 20	; 00000014H
  01054	8b 55 f0	 mov	 edx, DWORD PTR _this$[ebp]
  01057	c7 82 f4 02 00
	00 14 00 00 00	 mov	 DWORD PTR [edx+756], 20	; 00000014H
  01061	8b 4d f0	 mov	 ecx, DWORD PTR _this$[ebp]
  01064	81 c1 f8 02 00
	00		 add	 ecx, 760		; 000002f8H
  0106a	e8 00 00 00 00	 call	 ??0CBrush@@QAE@XZ	; CBrush::CBrush
  0106f	c6 45 fc 05	 mov	 BYTE PTR __$EHRec$[ebp+8], 5
  01073	8b 4d f0	 mov	 ecx, DWORD PTR _this$[ebp]
  01076	81 c1 00 03 00
	00		 add	 ecx, 768		; 00000300H
  0107c	e8 00 00 00 00	 call	 ??0CBrush@@QAE@XZ	; CBrush::CBrush
  01081	c6 45 fc 06	 mov	 BYTE PTR __$EHRec$[ebp+8], 6
  01085	8b 4d f0	 mov	 ecx, DWORD PTR _this$[ebp]
  01088	81 c1 08 03 00
	00		 add	 ecx, 776		; 00000308H
  0108e	e8 00 00 00 00	 call	 ??0?$vector@V?$basic_string@DU?$char_traits@D@std@@V?$allocator@D@2@@std@@V?$allocator@V?$basic_string@DU?$char_traits@D@std@@V?$allocator@D@2@@std@@@2@@std@@QAE@XZ ; std::vector<std::basic_string<char,std::char_traits<char>,std::allocator<char> >,std::allocator<std::basic_string<char,std::char_traits<char>,std::allocator<char> > > >::vector<std::basic_string<char,std::char_traits<char>,std::allocator<char> >,std::allocator<std::basic_string<char,std::char_traits<char>,std::allocator<char> > > >
  01093	c6 45 fc 07	 mov	 BYTE PTR __$EHRec$[ebp+8], 7
  01097	8b 45 f0	 mov	 eax, DWORD PTR _this$[ebp]
  0109a	c7 80 18 03 00
	00 ff ff ff ff	 mov	 DWORD PTR [eax+792], -1
  010a4	8b 4d f0	 mov	 ecx, DWORD PTR _this$[ebp]
  010a7	c7 81 1c 03 00
	00 05 00 00 00	 mov	 DWORD PTR [ecx+796], 5

; 465  : 	RegisterWindowClass();

  010b1	8b 4d f0	 mov	 ecx, DWORD PTR _this$[ebp]
  010b4	e8 00 00 00 00	 call	 ?RegisterWindowClass@CxSkinComboBox@@AAEHXZ ; CxSkinComboBox::RegisterWindowClass

; 466  : }

  010b9	c7 45 fc ff ff
	ff ff		 mov	 DWORD PTR __$EHRec$[ebp+8], -1
  010c0	8b 45 f0	 mov	 eax, DWORD PTR _this$[ebp]
  010c3	8b 4d f4	 mov	 ecx, DWORD PTR __$EHRec$[ebp]
  010c6	64 89 0d 00 00
	00 00		 mov	 DWORD PTR fs:__except_list, ecx
  010cd	8b e5		 mov	 esp, ebp
  010cf	5d		 pop	 ebp
  010d0	c3		 ret	 0
_TEXT	ENDS
text$x	SEGMENT
$L200245:
  0008c	8b 4d f0	 mov	 ecx, DWORD PTR _this$[ebp]
  0008f	e9 00 00 00 00	 jmp	 ??1CWnd@@UAE@XZ		; CWnd::~CWnd
$L200246:
  00094	8b 4d f0	 mov	 ecx, DWORD PTR _this$[ebp]
  00097	81 c1 88 00 00
	00		 add	 ecx, 136		; 00000088H
  0009d	e9 00 00 00 00	 jmp	 ??1CComboBoxEdit@@UAE@XZ
$L200247:
  000a2	8b 4d f0	 mov	 ecx, DWORD PTR _this$[ebp]
  000a5	81 c1 e8 00 00
	00		 add	 ecx, 232		; 000000e8H
  000ab	e9 00 00 00 00	 jmp	 ??1CComboBoxHistory@@UAE@XZ
$L200248:
  000b0	8b 4d f0	 mov	 ecx, DWORD PTR _this$[ebp]
  000b3	81 c1 c4 01 00
	00		 add	 ecx, 452		; 000001c4H
  000b9	e9 00 00 00 00	 jmp	 ??1CxSkinButton@@UAE@XZ	; CxSkinButton::~CxSkinButton
$L200249:
  000be	8b 4d f0	 mov	 ecx, DWORD PTR _this$[ebp]
  000c1	81 c1 e8 02 00
	00		 add	 ecx, 744		; 000002e8H
  000c7	e9 00 00 00 00	 jmp	 ??1CFont@@UAE@XZ	; CFont::~CFont
$L200250:
  000cc	8b 4d f0	 mov	 ecx, DWORD PTR _this$[ebp]
  000cf	81 c1 f8 02 00
	00		 add	 ecx, 760		; 000002f8H
  000d5	e9 00 00 00 00	 jmp	 ??1CBrush@@UAE@XZ	; CBrush::~CBrush
$L200251:
  000da	8b 4d f0	 mov	 ecx, DWORD PTR _this$[ebp]
  000dd	81 c1 00 03 00
	00		 add	 ecx, 768		; 00000300H
  000e3	e9 00 00 00 00	 jmp	 ??1CBrush@@UAE@XZ	; CBrush::~CBrush
$L200252:
  000e8	8b 4d f0	 mov	 ecx, DWORD PTR _this$[ebp]
  000eb	81 c1 08 03 00
	00		 add	 ecx, 776		; 00000308H
  000f1	e9 00 00 00 00	 jmp	 ??1?$vector@V?$basic_string@DU?$char_traits@D@std@@V?$allocator@D@2@@std@@V?$allocator@V?$basic_string@DU?$char_traits@D@std@@V?$allocator@D@2@@std@@@2@@std@@QAE@XZ ; std::vector<std::basic_string<char,std::char_traits<char>,std::allocator<char> >,std::allocator<std::basic_string<char,std::char_traits<char>,std::allocator<char> > > >::~vector<std::basic_string<char,std::char_traits<char>,std::allocator<char> >,std::allocator<std::basic_string<char,std::char_traits<char>,std::allocator<char> > > >
__ehhandler$??0CxSkinComboBox@@QAE@XZ:
  000f6	b8 00 00 00 00	 mov	 eax, OFFSET FLAT:$T200254
  000fb	e9 00 00 00 00	 jmp	 ___CxxFrameHandler
text$x	ENDS
??0CxSkinComboBox@@QAE@XZ ENDP				; CxSkinComboBox::CxSkinComboBox
PUBLIC	??1CxSkinComboBox@@UAE@XZ			; CxSkinComboBox::~CxSkinComboBox
; Function compile flags: /Odt
;	COMDAT ??_GCxSkinComboBox@@UAEPAXI@Z
_TEXT	SEGMENT
_this$ = -4						; size = 4
___flags$ = 8						; size = 4
??_GCxSkinComboBox@@UAEPAXI@Z PROC NEAR			; CxSkinComboBox::`scalar deleting destructor', COMDAT
; _this$ = ecx
  00000	55		 push	 ebp
  00001	8b ec		 mov	 ebp, esp
  00003	51		 push	 ecx
  00004	89 4d fc	 mov	 DWORD PTR _this$[ebp], ecx
  00007	8b 4d fc	 mov	 ecx, DWORD PTR _this$[ebp]
  0000a	e8 00 00 00 00	 call	 ??1CxSkinComboBox@@UAE@XZ ; CxSkinComboBox::~CxSkinComboBox
  0000f	8b 45 08	 mov	 eax, DWORD PTR ___flags$[ebp]
  00012	83 e0 01	 and	 eax, 1
  00015	74 09		 je	 SHORT $L198602
  00017	8b 4d fc	 mov	 ecx, DWORD PTR _this$[ebp]
  0001a	51		 push	 ecx
  0001b	e8 00 00 00 00	 call	 ??3CObject@@SGXPAX@Z	; CObject::operator delete
$L198602:
  00020	8b 45 fc	 mov	 eax, DWORD PTR _this$[ebp]
  00023	8b e5		 mov	 esp, ebp
  00025	5d		 pop	 ebp
  00026	c2 04 00	 ret	 4
??_GCxSkinComboBox@@UAEPAXI@Z ENDP			; CxSkinComboBox::`scalar deleting destructor'
_TEXT	ENDS
xdata$x	SEGMENT
$T200271 DD	0ffffffffH
	DD	FLAT:$L200260
	DD	00H
	DD	FLAT:$L200261
	DD	01H
	DD	FLAT:$L200262
	DD	02H
	DD	FLAT:$L200263
	DD	03H
	DD	FLAT:$L200264
	DD	04H
	DD	FLAT:$L200265
	DD	05H
	DD	FLAT:$L200266
$T200269 DD	019930520H
	DD	07H
	DD	FLAT:$T200271
	DD	2 DUP(00H)
	DD	2 DUP(00H)
; Function compile flags: /Odt
xdata$x	ENDS
_TEXT	SEGMENT
_this$ = -16						; size = 4
__$EHRec$ = -12						; size = 12
??1CxSkinComboBox@@UAE@XZ PROC NEAR			; CxSkinComboBox::~CxSkinComboBox
; _this$ = ecx

; 469  : {

  010e0	55		 push	 ebp
  010e1	8b ec		 mov	 ebp, esp
  010e3	6a ff		 push	 -1
  010e5	68 00 00 00 00	 push	 __ehhandler$??1CxSkinComboBox@@UAE@XZ
  010ea	64 a1 00 00 00
	00		 mov	 eax, DWORD PTR fs:__except_list
  010f0	50		 push	 eax
  010f1	64 89 25 00 00
	00 00		 mov	 DWORD PTR fs:__except_list, esp
  010f8	51		 push	 ecx
  010f9	89 4d f0	 mov	 DWORD PTR _this$[ebp], ecx
  010fc	8b 45 f0	 mov	 eax, DWORD PTR _this$[ebp]
  010ff	c7 00 00 00 00
	00		 mov	 DWORD PTR [eax], OFFSET FLAT:??_7CxSkinComboBox@@6B@
  01105	c7 45 fc 06 00
	00 00		 mov	 DWORD PTR __$EHRec$[ebp+8], 6

; 470  : 
; 471  : }

  0110c	8b 4d f0	 mov	 ecx, DWORD PTR _this$[ebp]
  0110f	81 c1 08 03 00
	00		 add	 ecx, 776		; 00000308H
  01115	e8 00 00 00 00	 call	 ??1?$vector@V?$basic_string@DU?$char_traits@D@std@@V?$allocator@D@2@@std@@V?$allocator@V?$basic_string@DU?$char_traits@D@std@@V?$allocator@D@2@@std@@@2@@std@@QAE@XZ ; std::vector<std::basic_string<char,std::char_traits<char>,std::allocator<char> >,std::allocator<std::basic_string<char,std::char_traits<char>,std::allocator<char> > > >::~vector<std::basic_string<char,std::char_traits<char>,std::allocator<char> >,std::allocator<std::basic_string<char,std::char_traits<char>,std::allocator<char> > > >
  0111a	c6 45 fc 05	 mov	 BYTE PTR __$EHRec$[ebp+8], 5
  0111e	8b 4d f0	 mov	 ecx, DWORD PTR _this$[ebp]
  01121	81 c1 00 03 00
	00		 add	 ecx, 768		; 00000300H
  01127	e8 00 00 00 00	 call	 ??1CBrush@@UAE@XZ	; CBrush::~CBrush
  0112c	c6 45 fc 04	 mov	 BYTE PTR __$EHRec$[ebp+8], 4
  01130	8b 4d f0	 mov	 ecx, DWORD PTR _this$[ebp]
  01133	81 c1 f8 02 00
	00		 add	 ecx, 760		; 000002f8H
  01139	e8 00 00 00 00	 call	 ??1CBrush@@UAE@XZ	; CBrush::~CBrush
  0113e	c6 45 fc 03	 mov	 BYTE PTR __$EHRec$[ebp+8], 3
  01142	8b 4d f0	 mov	 ecx, DWORD PTR _this$[ebp]
  01145	81 c1 e8 02 00
	00		 add	 ecx, 744		; 000002e8H
  0114b	e8 00 00 00 00	 call	 ??1CFont@@UAE@XZ	; CFont::~CFont
  01150	c6 45 fc 02	 mov	 BYTE PTR __$EHRec$[ebp+8], 2
  01154	8b 4d f0	 mov	 ecx, DWORD PTR _this$[ebp]
  01157	81 c1 c4 01 00
	00		 add	 ecx, 452		; 000001c4H
  0115d	e8 00 00 00 00	 call	 ??1CxSkinButton@@UAE@XZ	; CxSkinButton::~CxSkinButton
  01162	c6 45 fc 01	 mov	 BYTE PTR __$EHRec$[ebp+8], 1
  01166	8b 4d f0	 mov	 ecx, DWORD PTR _this$[ebp]
  01169	81 c1 e8 00 00
	00		 add	 ecx, 232		; 000000e8H
  0116f	e8 00 00 00 00	 call	 ??1CComboBoxHistory@@UAE@XZ
  01174	c6 45 fc 00	 mov	 BYTE PTR __$EHRec$[ebp+8], 0
  01178	8b 4d f0	 mov	 ecx, DWORD PTR _this$[ebp]
  0117b	81 c1 88 00 00
	00		 add	 ecx, 136		; 00000088H
  01181	e8 00 00 00 00	 call	 ??1CComboBoxEdit@@UAE@XZ
  01186	c7 45 fc ff ff
	ff ff		 mov	 DWORD PTR __$EHRec$[ebp+8], -1
  0118d	8b 4d f0	 mov	 ecx, DWORD PTR _this$[ebp]
  01190	e8 00 00 00 00	 call	 ??1CWnd@@UAE@XZ		; CWnd::~CWnd
  01195	8b 4d f4	 mov	 ecx, DWORD PTR __$EHRec$[ebp]
  01198	64 89 0d 00 00
	00 00		 mov	 DWORD PTR fs:__except_list, ecx
  0119f	8b e5		 mov	 esp, ebp
  011a1	5d		 pop	 ebp
  011a2	c3		 ret	 0
_TEXT	ENDS
text$x	SEGMENT
$L200260:
  00100	8b 4d f0	 mov	 ecx, DWORD PTR _this$[ebp]
  00103	e9 00 00 00 00	 jmp	 ??1CWnd@@UAE@XZ		; CWnd::~CWnd
$L200261:
  00108	8b 4d f0	 mov	 ecx, DWORD PTR _this$[ebp]
  0010b	81 c1 88 00 00
	00		 add	 ecx, 136		; 00000088H
  00111	e9 00 00 00 00	 jmp	 ??1CComboBoxEdit@@UAE@XZ
$L200262:
  00116	8b 4d f0	 mov	 ecx, DWORD PTR _this$[ebp]
  00119	81 c1 e8 00 00
	00		 add	 ecx, 232		; 000000e8H
  0011f	e9 00 00 00 00	 jmp	 ??1CComboBoxHistory@@UAE@XZ
$L200263:
  00124	8b 4d f0	 mov	 ecx, DWORD PTR _this$[ebp]
  00127	81 c1 c4 01 00
	00		 add	 ecx, 452		; 000001c4H
  0012d	e9 00 00 00 00	 jmp	 ??1CxSkinButton@@UAE@XZ	; CxSkinButton::~CxSkinButton
$L200264:
  00132	8b 4d f0	 mov	 ecx, DWORD PTR _this$[ebp]
  00135	81 c1 e8 02 00
	00		 add	 ecx, 744		; 000002e8H
  0013b	e9 00 00 00 00	 jmp	 ??1CFont@@UAE@XZ	; CFont::~CFont
$L200265:
  00140	8b 4d f0	 mov	 ecx, DWORD PTR _this$[ebp]
  00143	81 c1 f8 02 00
	00		 add	 ecx, 760		; 000002f8H
  00149	e9 00 00 00 00	 jmp	 ??1CBrush@@UAE@XZ	; CBrush::~CBrush
$L200266:
  0014e	8b 4d f0	 mov	 ecx, DWORD PTR _this$[ebp]
  00151	81 c1 00 03 00
	00		 add	 ecx, 768		; 00000300H
  00157	e9 00 00 00 00	 jmp	 ??1CBrush@@UAE@XZ	; CBrush::~CBrush
__ehhandler$??1CxSkinComboBox@@UAE@XZ:
  0015c	b8 00 00 00 00	 mov	 eax, OFFSET FLAT:$T200269
  00161	e9 00 00 00 00	 jmp	 ___CxxFrameHandler
text$x	ENDS
??1CxSkinComboBox@@UAE@XZ ENDP				; CxSkinComboBox::~CxSkinComboBox
PUBLIC	?AfxGetApp@@YGPAVCWinApp@@XZ			; AfxGetApp
PUBLIC	?AfxGetInstanceHandle@@YGPAUHINSTANCE__@@XZ	; AfxGetInstanceHandle
PUBLIC	?LoadStandardCursor@CWinApp@@QBEPAUHICON__@@PBD@Z ; CWinApp::LoadStandardCursor
EXTRN	?AfxRegisterClass@@YGHPAUtagWNDCLASSA@@@Z:NEAR	; AfxRegisterClass
EXTRN	__imp__DefWindowProcA@16:NEAR
EXTRN	__imp__GetClassInfoA@12:NEAR
EXTRN	?AfxThrowResourceException@@YGXXZ:NEAR		; AfxThrowResourceException
; Function compile flags: /Odt
_TEXT	SEGMENT
_this$ = -48						; size = 4
_wndcls$ = -44						; size = 40
_hInst$ = -4						; size = 4
?RegisterWindowClass@CxSkinComboBox@@AAEHXZ PROC NEAR	; CxSkinComboBox::RegisterWindowClass
; _this$ = ecx

; 474  : {

  011b0	55		 push	 ebp
  011b1	8b ec		 mov	 ebp, esp
  011b3	83 ec 30	 sub	 esp, 48			; 00000030H
  011b6	89 4d d0	 mov	 DWORD PTR _this$[ebp], ecx

; 475  : 	WNDCLASS wndcls;
; 476  : 	HINSTANCE hInst = AfxGetInstanceHandle();

  011b9	e8 00 00 00 00	 call	 ?AfxGetInstanceHandle@@YGPAUHINSTANCE__@@XZ ; AfxGetInstanceHandle
  011be	89 45 fc	 mov	 DWORD PTR _hInst$[ebp], eax

; 477  : 
; 478  : 	if (!(::GetClassInfo(hInst, XSKINCOMBOBOX_CLASSNAME, &wndcls)))

  011c1	8d 45 d4	 lea	 eax, DWORD PTR _wndcls$[ebp]
  011c4	50		 push	 eax
  011c5	68 00 00 00 00	 push	 OFFSET FLAT:$SG198612
  011ca	8b 4d fc	 mov	 ecx, DWORD PTR _hInst$[ebp]
  011cd	51		 push	 ecx
  011ce	ff 15 00 00 00
	00		 call	 DWORD PTR __imp__GetClassInfoA@12
  011d4	85 c0		 test	 eax, eax
  011d6	75 69		 jne	 SHORT $L198611

; 479  : 	{
; 480  : 		wndcls.style            = CS_DBLCLKS | CS_HREDRAW | CS_VREDRAW;

  011d8	c7 45 d4 0b 00
	00 00		 mov	 DWORD PTR _wndcls$[ebp], 11 ; 0000000bH

; 481  : 		wndcls.lpfnWndProc      = ::DefWindowProc;

  011df	8b 15 00 00 00
	00		 mov	 edx, DWORD PTR __imp__DefWindowProcA@16
  011e5	89 55 d8	 mov	 DWORD PTR _wndcls$[ebp+4], edx

; 482  : 		wndcls.cbClsExtra       = wndcls.cbWndExtra = 0;

  011e8	c7 45 e0 00 00
	00 00		 mov	 DWORD PTR _wndcls$[ebp+12], 0
  011ef	8b 45 e0	 mov	 eax, DWORD PTR _wndcls$[ebp+12]
  011f2	89 45 dc	 mov	 DWORD PTR _wndcls$[ebp+8], eax

; 483  : 		wndcls.hInstance        = hInst;

  011f5	8b 4d fc	 mov	 ecx, DWORD PTR _hInst$[ebp]
  011f8	89 4d e4	 mov	 DWORD PTR _wndcls$[ebp+16], ecx

; 484  : 		wndcls.hIcon            = NULL;

  011fb	c7 45 e8 00 00
	00 00		 mov	 DWORD PTR _wndcls$[ebp+20], 0

; 485  : 		wndcls.hCursor          = AfxGetApp()->LoadStandardCursor(IDC_ARROW);

  01202	68 00 7f 00 00	 push	 32512			; 00007f00H
  01207	e8 00 00 00 00	 call	 ?AfxGetApp@@YGPAVCWinApp@@XZ ; AfxGetApp
  0120c	8b c8		 mov	 ecx, eax
  0120e	e8 00 00 00 00	 call	 ?LoadStandardCursor@CWinApp@@QBEPAUHICON__@@PBD@Z ; CWinApp::LoadStandardCursor
  01213	89 45 ec	 mov	 DWORD PTR _wndcls$[ebp+24], eax

; 486  : 		wndcls.hbrBackground    = (HBRUSH) (COLOR_3DFACE + 1);

  01216	c7 45 f0 10 00
	00 00		 mov	 DWORD PTR _wndcls$[ebp+28], 16 ; 00000010H

; 487  : 		wndcls.lpszMenuName     = NULL;

  0121d	c7 45 f4 00 00
	00 00		 mov	 DWORD PTR _wndcls$[ebp+32], 0

; 488  : 		wndcls.lpszClassName    = XSKINCOMBOBOX_CLASSNAME;

  01224	c7 45 f8 00 00
	00 00		 mov	 DWORD PTR _wndcls$[ebp+36], OFFSET FLAT:$SG198617

; 489  : 
; 490  : 		if (!AfxRegisterClass(&wndcls))

  0122b	8d 55 d4	 lea	 edx, DWORD PTR _wndcls$[ebp]
  0122e	52		 push	 edx
  0122f	e8 00 00 00 00	 call	 ?AfxRegisterClass@@YGHPAUtagWNDCLASSA@@@Z ; AfxRegisterClass
  01234	85 c0		 test	 eax, eax
  01236	75 09		 jne	 SHORT $L198611

; 491  : 		{
; 492  : 			AfxThrowResourceException();

  01238	e8 00 00 00 00	 call	 ?AfxThrowResourceException@@YGXXZ ; AfxThrowResourceException

; 493  : 			return FALSE;

  0123d	33 c0		 xor	 eax, eax
  0123f	eb 05		 jmp	 SHORT $L198608
$L198611:

; 494  : 		}
; 495  : 	}
; 496  : 	return TRUE;

  01241	b8 01 00 00 00	 mov	 eax, 1
$L198608:

; 497  : }

  01246	8b e5		 mov	 esp, ebp
  01248	5d		 pop	 ebp
  01249	c3		 ret	 0
?RegisterWindowClass@CxSkinComboBox@@AAEHXZ ENDP	; CxSkinComboBox::RegisterWindowClass
_TEXT	ENDS
PUBLIC	?SetSkin@CxSkinComboBox@@QAEXAAVCOMBOBOXSKIN@@@Z ; CxSkinComboBox::SetSkin
EXTRN	?SetSkin@CxSkinButton@@QAEXPAVCDibBitmap@@00000FFF_N@Z:NEAR ; CxSkinButton::SetSkin
; Function compile flags: /Odt
_TEXT	SEGMENT
_this$ = -4						; size = 4
_skin$ = 8						; size = 4
?SetSkin@CxSkinComboBox@@QAEXAAVCOMBOBOXSKIN@@@Z PROC NEAR ; CxSkinComboBox::SetSkin
; _this$ = ecx

; 500  : {

  01250	55		 push	 ebp
  01251	8b ec		 mov	 ebp, esp
  01253	51		 push	 ecx
  01254	56		 push	 esi
  01255	57		 push	 edi
  01256	89 4d fc	 mov	 DWORD PTR _this$[ebp], ecx

; 501  : 	m_pSkin=skin;

  01259	8b 75 08	 mov	 esi, DWORD PTR _skin$[ebp]
  0125c	8b 7d fc	 mov	 edi, DWORD PTR _this$[ebp]
  0125f	83 c7 54	 add	 edi, 84			; 00000054H
  01262	b9 0d 00 00 00	 mov	 ecx, 13			; 0000000dH
  01267	f3 a5		 rep movsd

; 502  : 
; 503  : 	m_pEdit.SetSkin(skin.colorEditBkg,skin.colorEditText);

  01269	8b 45 08	 mov	 eax, DWORD PTR _skin$[ebp]
  0126c	83 c0 1c	 add	 eax, 28			; 0000001cH
  0126f	50		 push	 eax
  01270	8b 4d 08	 mov	 ecx, DWORD PTR _skin$[ebp]
  01273	83 c1 14	 add	 ecx, 20			; 00000014H
  01276	51		 push	 ecx
  01277	8b 4d fc	 mov	 ecx, DWORD PTR _this$[ebp]
  0127a	81 c1 88 00 00
	00		 add	 ecx, 136		; 00000088H
  01280	e8 00 00 00 00	 call	 ?SetSkin@CComboBoxEdit@@QAEXAAK0@Z ; CComboBoxEdit::SetSkin

; 504  : 	m_pHistoryWnd.SetSkin(skin.colorEdge,skin.colorListBkg,skin.colorListText,skin.colorListSelect,skin.pBmpScrollVert,skin.pBmpScrollHorz);

  01285	8b 55 08	 mov	 edx, DWORD PTR _skin$[ebp]
  01288	8b 42 30	 mov	 eax, DWORD PTR [edx+48]
  0128b	50		 push	 eax
  0128c	8b 4d 08	 mov	 ecx, DWORD PTR _skin$[ebp]
  0128f	8b 51 2c	 mov	 edx, DWORD PTR [ecx+44]
  01292	52		 push	 edx
  01293	8b 45 08	 mov	 eax, DWORD PTR _skin$[ebp]
  01296	83 c0 24	 add	 eax, 36			; 00000024H
  01299	50		 push	 eax
  0129a	8b 4d 08	 mov	 ecx, DWORD PTR _skin$[ebp]
  0129d	83 c1 20	 add	 ecx, 32			; 00000020H
  012a0	51		 push	 ecx
  012a1	8b 55 08	 mov	 edx, DWORD PTR _skin$[ebp]
  012a4	83 c2 18	 add	 edx, 24			; 00000018H
  012a7	52		 push	 edx
  012a8	8b 45 08	 mov	 eax, DWORD PTR _skin$[ebp]
  012ab	83 c0 10	 add	 eax, 16			; 00000010H
  012ae	50		 push	 eax
  012af	8b 4d fc	 mov	 ecx, DWORD PTR _this$[ebp]
  012b2	81 c1 e8 00 00
	00		 add	 ecx, 232		; 000000e8H
  012b8	e8 00 00 00 00	 call	 ?SetSkin@CComboBoxHistory@@QAEXAAK000PAVCDibBitmap@@1@Z ; CComboBoxHistory::SetSkin

; 505  : 	m_pHistoryBtn.SetSkin(skin.pBmpButtonNormal,skin.pBmpButtonDown,skin.pBmpButtonOver,skin.pBmpButtonDisable,0,0,0,0,0);

  012bd	6a 00		 push	 0
  012bf	6a 00		 push	 0
  012c1	6a 00		 push	 0
  012c3	6a 00		 push	 0
  012c5	6a 00		 push	 0
  012c7	6a 00		 push	 0
  012c9	8b 4d 08	 mov	 ecx, DWORD PTR _skin$[ebp]
  012cc	8b 51 0c	 mov	 edx, DWORD PTR [ecx+12]
  012cf	52		 push	 edx
  012d0	8b 45 08	 mov	 eax, DWORD PTR _skin$[ebp]
  012d3	8b 48 04	 mov	 ecx, DWORD PTR [eax+4]
  012d6	51		 push	 ecx
  012d7	8b 55 08	 mov	 edx, DWORD PTR _skin$[ebp]
  012da	8b 42 08	 mov	 eax, DWORD PTR [edx+8]
  012dd	50		 push	 eax
  012de	8b 4d 08	 mov	 ecx, DWORD PTR _skin$[ebp]
  012e1	8b 11		 mov	 edx, DWORD PTR [ecx]
  012e3	52		 push	 edx
  012e4	8b 4d fc	 mov	 ecx, DWORD PTR _this$[ebp]
  012e7	81 c1 c4 01 00
	00		 add	 ecx, 452		; 000001c4H
  012ed	e8 00 00 00 00	 call	 ?SetSkin@CxSkinButton@@QAEXPAVCDibBitmap@@00000FFF_N@Z ; CxSkinButton::SetSkin

; 506  : }

  012f2	5f		 pop	 edi
  012f3	5e		 pop	 esi
  012f4	8b e5		 mov	 esp, ebp
  012f6	5d		 pop	 ebp
  012f7	c2 04 00	 ret	 4
?SetSkin@CxSkinComboBox@@QAEXAAVCOMBOBOXSKIN@@@Z ENDP	; CxSkinComboBox::SetSkin
_TEXT	ENDS
PUBLIC	?Create@CxSkinComboBox@@QAEHKABUtagRECT@@PAVCWnd@@I@Z ; CxSkinComboBox::Create
; Function compile flags: /Odt
_TEXT	SEGMENT
_this$ = -4						; size = 4
_dwStyle$ = 8						; size = 4
_rect$ = 12						; size = 4
_pParentWnd$ = 16					; size = 4
_nID$ = 20						; size = 4
?Create@CxSkinComboBox@@QAEHKABUtagRECT@@PAVCWnd@@I@Z PROC NEAR ; CxSkinComboBox::Create
; _this$ = ecx

; 509  : {

  01300	55		 push	 ebp
  01301	8b ec		 mov	 ebp, esp
  01303	51		 push	 ecx
  01304	89 4d fc	 mov	 DWORD PTR _this$[ebp], ecx

; 510  : 	return CWnd::Create(XSKINCOMBOBOX_CLASSNAME, _T(""), dwStyle, rect, pParentWnd, nID);

  01307	6a 00		 push	 0
  01309	8b 45 14	 mov	 eax, DWORD PTR _nID$[ebp]
  0130c	50		 push	 eax
  0130d	8b 4d 10	 mov	 ecx, DWORD PTR _pParentWnd$[ebp]
  01310	51		 push	 ecx
  01311	8b 55 0c	 mov	 edx, DWORD PTR _rect$[ebp]
  01314	52		 push	 edx
  01315	8b 45 08	 mov	 eax, DWORD PTR _dwStyle$[ebp]
  01318	50		 push	 eax
  01319	68 00 00 00 00	 push	 OFFSET FLAT:$SG198630
  0131e	68 00 00 00 00	 push	 OFFSET FLAT:$SG198631
  01323	8b 4d fc	 mov	 ecx, DWORD PTR _this$[ebp]
  01326	e8 00 00 00 00	 call	 ?Create@CWnd@@UAEHPBD0KABUtagRECT@@PAV1@IPAUCCreateContext@@@Z ; CWnd::Create

; 511  : }

  0132b	8b e5		 mov	 esp, ebp
  0132d	5d		 pop	 ebp
  0132e	c2 10 00	 ret	 16			; 00000010H
?Create@CxSkinComboBox@@QAEHKABUtagRECT@@PAVCWnd@@I@Z ENDP ; CxSkinComboBox::Create
_TEXT	ENDS
PUBLIC	?GetThisMessageMap@CxSkinComboBox@@KGPBUAFX_MSGMAP@@XZ ; CxSkinComboBox::GetThisMessageMap
; Function compile flags: /Odt
_TEXT	SEGMENT
?GetThisMessageMap@CxSkinComboBox@@KGPBUAFX_MSGMAP@@XZ PROC NEAR ; CxSkinComboBox::GetThisMessageMap

; 512  : BEGIN_MESSAGE_MAP(CxSkinComboBox, CWnd)

  01340	55		 push	 ebp
  01341	8b ec		 mov	 ebp, esp
  01343	b8 00 00 00 00	 mov	 eax, OFFSET FLAT:?messageMap@CxSkinComboBox@@1UAFX_MSGMAP@@B ; CxSkinComboBox::messageMap
  01348	5d		 pop	 ebp
  01349	c3		 ret	 0
?GetThisMessageMap@CxSkinComboBox@@KGPBUAFX_MSGMAP@@XZ ENDP ; CxSkinComboBox::GetThisMessageMap
; Function compile flags: /Odt
_this$ = -4						; size = 4
?GetMessageMap@CxSkinComboBox@@MBEPBUAFX_MSGMAP@@XZ PROC NEAR ; CxSkinComboBox::GetMessageMap
; _this$ = ecx

; 512  : BEGIN_MESSAGE_MAP(CxSkinComboBox, CWnd)

  01350	55		 push	 ebp
  01351	8b ec		 mov	 ebp, esp
  01353	51		 push	 ecx
  01354	89 4d fc	 mov	 DWORD PTR _this$[ebp], ecx
  01357	b8 00 00 00 00	 mov	 eax, OFFSET FLAT:?messageMap@CxSkinComboBox@@1UAFX_MSGMAP@@B ; CxSkinComboBox::messageMap
  0135c	8b e5		 mov	 esp, ebp
  0135e	5d		 pop	 ebp
  0135f	c3		 ret	 0
?GetMessageMap@CxSkinComboBox@@MBEPBUAFX_MSGMAP@@XZ ENDP ; CxSkinComboBox::GetMessageMap
_TEXT	ENDS
PUBLIC	?SetMargins@CEdit@@QAEXII@Z			; CEdit::SetMargins
PUBLIC	?CreateSolidBrush@CBrush@@QAEHK@Z		; CBrush::CreateSolidBrush
PUBLIC	?CreateFontA@CFont@@QAEHHHHHHEEEEEEEEPBD@Z	; CFont::CreateFontA
EXTRN	?ShowWindow@CWnd@@QAEHH@Z:NEAR			; CWnd::ShowWindow
EXTRN	?ModifyStyleEx@CWnd@@QAEHKKI@Z:NEAR		; CWnd::ModifyStyleEx
; Function compile flags: /Odt
_TEXT	SEGMENT
_this$ = -68						; size = 4
$T200281 = -64						; size = 16
$T200280 = -48						; size = 16
$T200279 = -32						; size = 16
$T200278 = -16						; size = 16
_lpCreateStruct$ = 8					; size = 4
?OnCreate@CxSkinComboBox@@IAEHPAUtagCREATESTRUCTA@@@Z PROC NEAR ; CxSkinComboBox::OnCreate
; _this$ = ecx

; 522  : {

  01360	55		 push	 ebp
  01361	8b ec		 mov	 ebp, esp
  01363	83 ec 44	 sub	 esp, 68			; 00000044H
  01366	89 4d bc	 mov	 DWORD PTR _this$[ebp], ecx

; 523  : 	if (CWnd::OnCreate(lpCreateStruct) == -1)

  01369	8b 45 08	 mov	 eax, DWORD PTR _lpCreateStruct$[ebp]
  0136c	50		 push	 eax
  0136d	8b 4d bc	 mov	 ecx, DWORD PTR _this$[ebp]
  01370	e8 00 00 00 00	 call	 ?OnCreate@CWnd@@IAEHPAUtagCREATESTRUCTA@@@Z ; CWnd::OnCreate
  01375	83 f8 ff	 cmp	 eax, -1
  01378	75 08		 jne	 SHORT $L198671

; 524  : 		return -1;

  0137a	83 c8 ff	 or	 eax, -1
  0137d	e9 d8 01 00 00	 jmp	 $L198670
$L198671:

; 525  : 
; 526  : 	m_pEdit.SetMsgWnd(this);

  01382	8b 4d bc	 mov	 ecx, DWORD PTR _this$[ebp]
  01385	51		 push	 ecx
  01386	8b 4d bc	 mov	 ecx, DWORD PTR _this$[ebp]
  01389	81 c1 88 00 00
	00		 add	 ecx, 136		; 00000088H
  0138f	e8 00 00 00 00	 call	 ?SetMsgWnd@CComboBoxEdit@@QAEXPAVCWnd@@@Z ; CComboBoxEdit::SetMsgWnd

; 527  : 	m_pEdit.Create(WS_CHILD | WS_VISIBLE | WS_TABSTOP|ES_AUTOHSCROLL, CRect(1, 1, DEFAULT_COMBOBOX_SIZE_WIDTH-11, DEFAULT_COMBOBOX_SIZE_HEIGHT-1), this, XSKINCOMBOBOX_EDIT);

  01394	68 11 27 00 00	 push	 10001			; 00002711H
  01399	8b 55 bc	 mov	 edx, DWORD PTR _this$[ebp]
  0139c	52		 push	 edx
  0139d	6a 13		 push	 19			; 00000013H
  0139f	6a 59		 push	 89			; 00000059H
  013a1	6a 01		 push	 1
  013a3	6a 01		 push	 1
  013a5	8d 4d f0	 lea	 ecx, DWORD PTR $T200278[ebp]
  013a8	e8 00 00 00 00	 call	 ??0CRect@@QAE@HHHH@Z	; CRect::CRect
  013ad	50		 push	 eax
  013ae	68 80 00 01 50	 push	 1342242944		; 50010080H
  013b3	8b 4d bc	 mov	 ecx, DWORD PTR _this$[ebp]
  013b6	81 c1 88 00 00
	00		 add	 ecx, 136		; 00000088H
  013bc	8b 45 bc	 mov	 eax, DWORD PTR _this$[ebp]
  013bf	8b 90 88 00 00
	00		 mov	 edx, DWORD PTR [eax+136]
  013c5	ff 92 38 01 00
	00		 call	 DWORD PTR [edx+312]

; 528  : 
; 529  : 	m_pEditFont.CreateFont(
; 530  : 		m_pSkin.iFontSize,         // nHeight
; 531  : 		0,                         // nWidth
; 532  : 		0,                         // nEscapement
; 533  : 		0,                         // nOrientation
; 534  : 		FW_NORMAL,                 // nWeight
; 535  : 		FALSE,                     // bItalic
; 536  : 		FALSE,                     // bUnderline
; 537  : 		0,                         // cStrikeOut
; 538  : 		ANSI_CHARSET,              // nCharSet 
; 539  : 		OUT_DEFAULT_PRECIS,        // nOutPrecision
; 540  : 		CLIP_DEFAULT_PRECIS,       // nClipPrecision
; 541  : 		DEFAULT_QUALITY,           // nQuality
; 542  : 		DEFAULT_PITCH | FF_SWISS,  // nPitchAndFamily
; 543  : 		"");  

  013cb	68 00 00 00 00	 push	 OFFSET FLAT:$SG198673
  013d0	6a 20		 push	 32			; 00000020H
  013d2	6a 00		 push	 0
  013d4	6a 00		 push	 0
  013d6	6a 00		 push	 0
  013d8	6a 00		 push	 0
  013da	6a 00		 push	 0
  013dc	6a 00		 push	 0
  013de	6a 00		 push	 0
  013e0	68 90 01 00 00	 push	 400			; 00000190H
  013e5	6a 00		 push	 0
  013e7	6a 00		 push	 0
  013e9	6a 00		 push	 0
  013eb	8b 45 bc	 mov	 eax, DWORD PTR _this$[ebp]
  013ee	8b 48 7c	 mov	 ecx, DWORD PTR [eax+124]
  013f1	51		 push	 ecx
  013f2	8b 4d bc	 mov	 ecx, DWORD PTR _this$[ebp]
  013f5	81 c1 e8 02 00
	00		 add	 ecx, 744		; 000002e8H
  013fb	e8 00 00 00 00	 call	 ?CreateFontA@CFont@@QAEHHHHHHEEEEEEEEPBD@Z ; CFont::CreateFontA

; 544  : 
; 545  : 	m_pEdit.SetFont(&m_pEditFont);

  01400	6a 01		 push	 1
  01402	8b 55 bc	 mov	 edx, DWORD PTR _this$[ebp]
  01405	81 c2 e8 02 00
	00		 add	 edx, 744		; 000002e8H
  0140b	52		 push	 edx
  0140c	8b 4d bc	 mov	 ecx, DWORD PTR _this$[ebp]
  0140f	81 c1 88 00 00
	00		 add	 ecx, 136		; 00000088H
  01415	e8 00 00 00 00	 call	 ?SetFont@CWnd@@QAEXPAVCFont@@H@Z ; CWnd::SetFont

; 546  : 	m_pEdit.SetMargins(3,2);

  0141a	6a 02		 push	 2
  0141c	6a 03		 push	 3
  0141e	8b 4d bc	 mov	 ecx, DWORD PTR _this$[ebp]
  01421	81 c1 88 00 00
	00		 add	 ecx, 136		; 00000088H
  01427	e8 00 00 00 00	 call	 ?SetMargins@CEdit@@QAEXII@Z ; CEdit::SetMargins

; 547  : 
; 548  : 	m_pHistoryWnd.SetMsgWnd(this);

  0142c	8b 45 bc	 mov	 eax, DWORD PTR _this$[ebp]
  0142f	50		 push	 eax
  01430	8b 4d bc	 mov	 ecx, DWORD PTR _this$[ebp]
  01433	81 c1 e8 00 00
	00		 add	 ecx, 232		; 000000e8H
  01439	e8 00 00 00 00	 call	 ?SetMsgWnd@CComboBoxHistory@@QAEXPAVCWnd@@@Z ; CComboBoxHistory::SetMsgWnd

; 549  : 	m_pHistoryWnd.Create(NULL,NULL,WS_CHILD,CRect(0,0,0,0),this,XSKINCOMBOBOX_HISTORYWND );

  0143e	6a 00		 push	 0
  01440	68 13 27 00 00	 push	 10003			; 00002713H
  01445	8b 4d bc	 mov	 ecx, DWORD PTR _this$[ebp]
  01448	51		 push	 ecx
  01449	6a 00		 push	 0
  0144b	6a 00		 push	 0
  0144d	6a 00		 push	 0
  0144f	6a 00		 push	 0
  01451	8d 4d e0	 lea	 ecx, DWORD PTR $T200279[ebp]
  01454	e8 00 00 00 00	 call	 ??0CRect@@QAE@HHHH@Z	; CRect::CRect
  01459	50		 push	 eax
  0145a	68 00 00 00 40	 push	 1073741824		; 40000000H
  0145f	6a 00		 push	 0
  01461	6a 00		 push	 0
  01463	8b 4d bc	 mov	 ecx, DWORD PTR _this$[ebp]
  01466	81 c1 e8 00 00
	00		 add	 ecx, 232		; 000000e8H
  0146c	8b 55 bc	 mov	 edx, DWORD PTR _this$[ebp]
  0146f	8b 82 e8 00 00
	00		 mov	 eax, DWORD PTR [edx+232]
  01475	ff 50 5c	 call	 DWORD PTR [eax+92]

; 550  : 	m_pHistoryWnd.ModifyStyleEx(WS_EX_APPWINDOW,WS_EX_TOOLWINDOW);

  01478	6a 00		 push	 0
  0147a	68 80 00 00 00	 push	 128			; 00000080H
  0147f	68 00 00 04 00	 push	 262144			; 00040000H
  01484	8b 4d bc	 mov	 ecx, DWORD PTR _this$[ebp]
  01487	81 c1 e8 00 00
	00		 add	 ecx, 232		; 000000e8H
  0148d	e8 00 00 00 00	 call	 ?ModifyStyleEx@CWnd@@QAEHKKI@Z ; CWnd::ModifyStyleEx

; 551  : 
; 552  : 	m_pHistoryBtn.Create(NULL,WS_VISIBLE,CRect(DEFAULT_COMBOBOX_SIZE_WIDTH-10,1,DEFAULT_COMBOBOX_SIZE_WIDTH-1,DEFAULT_COMBOBOX_SIZE_HEIGHT-1),this,XSKINCOMBOBOX_BUTTON );

  01492	68 12 27 00 00	 push	 10002			; 00002712H
  01497	8b 4d bc	 mov	 ecx, DWORD PTR _this$[ebp]
  0149a	51		 push	 ecx
  0149b	6a 13		 push	 19			; 00000013H
  0149d	6a 63		 push	 99			; 00000063H
  0149f	6a 01		 push	 1
  014a1	6a 5a		 push	 90			; 0000005aH
  014a3	8d 4d d0	 lea	 ecx, DWORD PTR $T200280[ebp]
  014a6	e8 00 00 00 00	 call	 ??0CRect@@QAE@HHHH@Z	; CRect::CRect
  014ab	50		 push	 eax
  014ac	68 00 00 00 10	 push	 268435456		; 10000000H
  014b1	6a 00		 push	 0
  014b3	8b 4d bc	 mov	 ecx, DWORD PTR _this$[ebp]
  014b6	81 c1 c4 01 00
	00		 add	 ecx, 452		; 000001c4H
  014bc	8b 55 bc	 mov	 edx, DWORD PTR _this$[ebp]
  014bf	8b 82 c4 01 00
	00		 mov	 eax, DWORD PTR [edx+452]
  014c5	ff 90 38 01 00
	00		 call	 DWORD PTR [eax+312]

; 553  : 
; 554  : 	if (m_pSkin.pBmpButtonNormal)

  014cb	8b 4d bc	 mov	 ecx, DWORD PTR _this$[ebp]
  014ce	83 79 54 00	 cmp	 DWORD PTR [ecx+84], 0
  014d2	74 28		 je	 SHORT $L198676

; 555  : 	{
; 556  : 		m_iBtnWidth=m_pSkin.pBmpButtonNormal->GetWidth();

  014d4	8b 55 bc	 mov	 edx, DWORD PTR _this$[ebp]
  014d7	8b 4a 54	 mov	 ecx, DWORD PTR [edx+84]
  014da	e8 00 00 00 00	 call	 ?GetWidth@CDibBitmap@@QAEHXZ ; CDibBitmap::GetWidth
  014df	8b 4d bc	 mov	 ecx, DWORD PTR _this$[ebp]
  014e2	89 81 f0 02 00
	00		 mov	 DWORD PTR [ecx+752], eax

; 557  : 		m_iBtnHeight=m_pSkin.pBmpButtonNormal->GetHeight();

  014e8	8b 55 bc	 mov	 edx, DWORD PTR _this$[ebp]
  014eb	8b 4a 54	 mov	 ecx, DWORD PTR [edx+84]
  014ee	e8 00 00 00 00	 call	 ?GetHeight@CDibBitmap@@QAEHXZ ; CDibBitmap::GetHeight
  014f3	8b 4d bc	 mov	 ecx, DWORD PTR _this$[ebp]
  014f6	89 81 f4 02 00
	00		 mov	 DWORD PTR [ecx+756], eax
$L198676:

; 558  : 	}
; 559  : 
; 560  : 	m_brushBkg.CreateSolidBrush(m_pSkin.colorEdge);

  014fc	8b 55 bc	 mov	 edx, DWORD PTR _this$[ebp]
  014ff	8b 42 64	 mov	 eax, DWORD PTR [edx+100]
  01502	50		 push	 eax
  01503	8b 4d bc	 mov	 ecx, DWORD PTR _this$[ebp]
  01506	81 c1 f8 02 00
	00		 add	 ecx, 760		; 000002f8H
  0150c	e8 00 00 00 00	 call	 ?CreateSolidBrush@CBrush@@QAEHK@Z ; CBrush::CreateSolidBrush

; 561  : 
; 562  : 	m_brushEditAddBkg.CreateSolidBrush(m_pSkin.colorEditBkg);

  01511	8b 4d bc	 mov	 ecx, DWORD PTR _this$[ebp]
  01514	8b 51 68	 mov	 edx, DWORD PTR [ecx+104]
  01517	52		 push	 edx
  01518	8b 4d bc	 mov	 ecx, DWORD PTR _this$[ebp]
  0151b	81 c1 00 03 00
	00		 add	 ecx, 768		; 00000300H
  01521	e8 00 00 00 00	 call	 ?CreateSolidBrush@CBrush@@QAEHK@Z ; CBrush::CreateSolidBrush

; 563  : 
; 564  : 	MoveWindow(CRect(0,0,DEFAULT_COMBOBOX_SIZE_WIDTH,DEFAULT_COMBOBOX_SIZE_HEIGHT));

  01526	6a 01		 push	 1
  01528	6a 14		 push	 20			; 00000014H
  0152a	6a 64		 push	 100			; 00000064H
  0152c	6a 00		 push	 0
  0152e	6a 00		 push	 0
  01530	8d 4d c0	 lea	 ecx, DWORD PTR $T200281[ebp]
  01533	e8 00 00 00 00	 call	 ??0CRect@@QAE@HHHH@Z	; CRect::CRect
  01538	8b c8		 mov	 ecx, eax
  0153a	e8 00 00 00 00	 call	 ??BCRect@@QAEPAUtagRECT@@XZ ; CRect::operator tagRECT *
  0153f	50		 push	 eax
  01540	8b 4d bc	 mov	 ecx, DWORD PTR _this$[ebp]
  01543	e8 00 00 00 00	 call	 ?MoveWindow@CWnd@@QAEXPBUtagRECT@@H@Z ; CWnd::MoveWindow

; 565  : 	
; 566  : 	m_pHistoryWnd.ShowWindow(SW_HIDE);

  01548	6a 00		 push	 0
  0154a	8b 4d bc	 mov	 ecx, DWORD PTR _this$[ebp]
  0154d	81 c1 e8 00 00
	00		 add	 ecx, 232		; 000000e8H
  01553	e8 00 00 00 00	 call	 ?ShowWindow@CWnd@@QAEHH@Z ; CWnd::ShowWindow

; 567  : 	return 0;

  01558	33 c0		 xor	 eax, eax
$L198670:

; 568  : }

  0155a	8b e5		 mov	 esp, ebp
  0155c	5d		 pop	 ebp
  0155d	c2 04 00	 ret	 4
?OnCreate@CxSkinComboBox@@IAEHPAUtagCREATESTRUCTA@@@Z ENDP ; CxSkinComboBox::OnCreate
_TEXT	ENDS
PUBLIC	?FillRect@CDC@@QAEXPBUtagRECT@@PAVCBrush@@@Z	; CDC::FillRect
xdata$x	SEGMENT
$T200289 DD	0ffffffffH
	DD	FLAT:$L200285
$T200287 DD	019930520H
	DD	01H
	DD	FLAT:$T200289
	DD	2 DUP(00H)
	DD	2 DUP(00H)
; Function compile flags: /Odt
xdata$x	ENDS
_TEXT	SEGMENT
_this$ = -56						; size = 4
$T200284 = -52						; size = 4
$T200283 = -48						; size = 8
_pOldPen$ = -40						; size = 4
_rectWnd$ = -36						; size = 16
_newPen$ = -20						; size = 8
__$EHRec$ = -12						; size = 12
_pDC$ = 8						; size = 4
?OnEraseBkgnd@CxSkinComboBox@@IAEHPAVCDC@@@Z PROC NEAR	; CxSkinComboBox::OnEraseBkgnd
; _this$ = ecx

; 572  : {

  01560	55		 push	 ebp
  01561	8b ec		 mov	 ebp, esp
  01563	6a ff		 push	 -1
  01565	68 00 00 00 00	 push	 __ehhandler$?OnEraseBkgnd@CxSkinComboBox@@IAEHPAVCDC@@@Z
  0156a	64 a1 00 00 00
	00		 mov	 eax, DWORD PTR fs:__except_list
  01570	50		 push	 eax
  01571	64 89 25 00 00
	00 00		 mov	 DWORD PTR fs:__except_list, esp
  01578	83 ec 2c	 sub	 esp, 44			; 0000002cH
  0157b	89 4d c8	 mov	 DWORD PTR _this$[ebp], ecx

; 573  : 	// TODO: /
; 574  : 	CRect rectWnd;

  0157e	8d 4d dc	 lea	 ecx, DWORD PTR _rectWnd$[ebp]
  01581	e8 00 00 00 00	 call	 ??0CRect@@QAE@XZ	; CRect::CRect

; 575  : 	GetClientRect(&rectWnd);

  01586	8d 45 dc	 lea	 eax, DWORD PTR _rectWnd$[ebp]
  01589	50		 push	 eax
  0158a	8b 4d c8	 mov	 ecx, DWORD PTR _this$[ebp]
  0158d	e8 00 00 00 00	 call	 ?GetClientRect@CWnd@@QBEXPAUtagRECT@@@Z ; CWnd::GetClientRect

; 576  : 	CPen newPen(PS_DASHDOTDOT,10,m_pSkin.colorEdge);   

  01592	8b 4d c8	 mov	 ecx, DWORD PTR _this$[ebp]
  01595	8b 51 64	 mov	 edx, DWORD PTR [ecx+100]
  01598	52		 push	 edx
  01599	6a 0a		 push	 10			; 0000000aH
  0159b	6a 04		 push	 4
  0159d	8d 4d ec	 lea	 ecx, DWORD PTR _newPen$[ebp]
  015a0	e8 00 00 00 00	 call	 ??0CPen@@QAE@HHK@Z	; CPen::CPen
  015a5	c7 45 fc 00 00
	00 00		 mov	 DWORD PTR __$EHRec$[ebp+8], 0

; 577  : 	CPen *pOldPen=pDC->SelectObject(&newPen);

  015ac	8d 45 ec	 lea	 eax, DWORD PTR _newPen$[ebp]
  015af	50		 push	 eax
  015b0	8b 4d 08	 mov	 ecx, DWORD PTR _pDC$[ebp]
  015b3	e8 00 00 00 00	 call	 ?SelectObject@CDC@@QAEPAVCPen@@PAV2@@Z ; CDC::SelectObject
  015b8	89 45 d8	 mov	 DWORD PTR _pOldPen$[ebp], eax

; 578  : 	pDC->MoveTo(rectWnd.left,rectWnd.top);

  015bb	8b 4d e0	 mov	 ecx, DWORD PTR _rectWnd$[ebp+4]
  015be	51		 push	 ecx
  015bf	8b 55 dc	 mov	 edx, DWORD PTR _rectWnd$[ebp]
  015c2	52		 push	 edx
  015c3	8d 45 d0	 lea	 eax, DWORD PTR $T200283[ebp]
  015c6	50		 push	 eax
  015c7	8b 4d 08	 mov	 ecx, DWORD PTR _pDC$[ebp]
  015ca	e8 00 00 00 00	 call	 ?MoveTo@CDC@@QAE?AVCPoint@@HH@Z ; CDC::MoveTo

; 579  : 	pDC->LineTo(rectWnd.right-1,rectWnd.top);

  015cf	8b 4d e0	 mov	 ecx, DWORD PTR _rectWnd$[ebp+4]
  015d2	51		 push	 ecx
  015d3	8b 55 e4	 mov	 edx, DWORD PTR _rectWnd$[ebp+8]
  015d6	83 ea 01	 sub	 edx, 1
  015d9	52		 push	 edx
  015da	8b 4d 08	 mov	 ecx, DWORD PTR _pDC$[ebp]
  015dd	e8 00 00 00 00	 call	 ?LineTo@CDC@@QAEHHH@Z	; CDC::LineTo

; 580  : 	pDC->LineTo(rectWnd.right-1,rectWnd.bottom-1);

  015e2	8b 45 e8	 mov	 eax, DWORD PTR _rectWnd$[ebp+12]
  015e5	83 e8 01	 sub	 eax, 1
  015e8	50		 push	 eax
  015e9	8b 4d e4	 mov	 ecx, DWORD PTR _rectWnd$[ebp+8]
  015ec	83 e9 01	 sub	 ecx, 1
  015ef	51		 push	 ecx
  015f0	8b 4d 08	 mov	 ecx, DWORD PTR _pDC$[ebp]
  015f3	e8 00 00 00 00	 call	 ?LineTo@CDC@@QAEHHH@Z	; CDC::LineTo

; 581  : 	pDC->LineTo(rectWnd.left,rectWnd.bottom-1);

  015f8	8b 55 e8	 mov	 edx, DWORD PTR _rectWnd$[ebp+12]
  015fb	83 ea 01	 sub	 edx, 1
  015fe	52		 push	 edx
  015ff	8b 45 dc	 mov	 eax, DWORD PTR _rectWnd$[ebp]
  01602	50		 push	 eax
  01603	8b 4d 08	 mov	 ecx, DWORD PTR _pDC$[ebp]
  01606	e8 00 00 00 00	 call	 ?LineTo@CDC@@QAEHHH@Z	; CDC::LineTo

; 582  : 	pDC->LineTo(rectWnd.left,rectWnd.top);

  0160b	8b 4d e0	 mov	 ecx, DWORD PTR _rectWnd$[ebp+4]
  0160e	51		 push	 ecx
  0160f	8b 55 dc	 mov	 edx, DWORD PTR _rectWnd$[ebp]
  01612	52		 push	 edx
  01613	8b 4d 08	 mov	 ecx, DWORD PTR _pDC$[ebp]
  01616	e8 00 00 00 00	 call	 ?LineTo@CDC@@QAEHHH@Z	; CDC::LineTo

; 583  : 	pDC->SelectObject(pOldPen);

  0161b	8b 45 d8	 mov	 eax, DWORD PTR _pOldPen$[ebp]
  0161e	50		 push	 eax
  0161f	8b 4d 08	 mov	 ecx, DWORD PTR _pDC$[ebp]
  01622	e8 00 00 00 00	 call	 ?SelectObject@CDC@@QAEPAVCPen@@PAV2@@Z ; CDC::SelectObject

; 584  : 	rectWnd.top+=1;

  01627	8b 4d e0	 mov	 ecx, DWORD PTR _rectWnd$[ebp+4]
  0162a	83 c1 01	 add	 ecx, 1
  0162d	89 4d e0	 mov	 DWORD PTR _rectWnd$[ebp+4], ecx

; 585  : 	rectWnd.left+=1;

  01630	8b 55 dc	 mov	 edx, DWORD PTR _rectWnd$[ebp]
  01633	83 c2 01	 add	 edx, 1
  01636	89 55 dc	 mov	 DWORD PTR _rectWnd$[ebp], edx

; 586  : 	rectWnd.bottom-=1;

  01639	8b 45 e8	 mov	 eax, DWORD PTR _rectWnd$[ebp+12]
  0163c	83 e8 01	 sub	 eax, 1
  0163f	89 45 e8	 mov	 DWORD PTR _rectWnd$[ebp+12], eax

; 587  : 	rectWnd.right-=1;

  01642	8b 4d e4	 mov	 ecx, DWORD PTR _rectWnd$[ebp+8]
  01645	83 e9 01	 sub	 ecx, 1
  01648	89 4d e4	 mov	 DWORD PTR _rectWnd$[ebp+8], ecx

; 588  : 
; 589  : 	pDC->FillRect(&rectWnd,&m_brushEditAddBkg);

  0164b	8b 55 c8	 mov	 edx, DWORD PTR _this$[ebp]
  0164e	81 c2 00 03 00
	00		 add	 edx, 768		; 00000300H
  01654	52		 push	 edx
  01655	8d 45 dc	 lea	 eax, DWORD PTR _rectWnd$[ebp]
  01658	50		 push	 eax
  01659	8b 4d 08	 mov	 ecx, DWORD PTR _pDC$[ebp]
  0165c	e8 00 00 00 00	 call	 ?FillRect@CDC@@QAEXPBUtagRECT@@PAVCBrush@@@Z ; CDC::FillRect

; 590  : 
; 591  : 	return FALSE;

  01661	c7 45 cc 00 00
	00 00		 mov	 DWORD PTR $T200284[ebp], 0
  01668	c7 45 fc ff ff
	ff ff		 mov	 DWORD PTR __$EHRec$[ebp+8], -1
  0166f	8d 4d ec	 lea	 ecx, DWORD PTR _newPen$[ebp]
  01672	e8 00 00 00 00	 call	 ??1CPen@@UAE@XZ		; CPen::~CPen
  01677	8b 45 cc	 mov	 eax, DWORD PTR $T200284[ebp]

; 592  : }

  0167a	8b 4d f4	 mov	 ecx, DWORD PTR __$EHRec$[ebp]
  0167d	64 89 0d 00 00
	00 00		 mov	 DWORD PTR fs:__except_list, ecx
  01684	8b e5		 mov	 esp, ebp
  01686	5d		 pop	 ebp
  01687	c2 04 00	 ret	 4
_TEXT	ENDS
text$x	SEGMENT
$L200285:
  00166	8d 4d ec	 lea	 ecx, DWORD PTR _newPen$[ebp]
  00169	e9 00 00 00 00	 jmp	 ??1CPen@@UAE@XZ		; CPen::~CPen
__ehhandler$?OnEraseBkgnd@CxSkinComboBox@@IAEHPAVCDC@@@Z:
  0016e	b8 00 00 00 00	 mov	 eax, OFFSET FLAT:$T200287
  00173	e9 00 00 00 00	 jmp	 ___CxxFrameHandler
text$x	ENDS
?OnEraseBkgnd@CxSkinComboBox@@IAEHPAVCDC@@@Z ENDP	; CxSkinComboBox::OnEraseBkgnd
; Function compile flags: /Odt
_TEXT	SEGMENT
_this$ = -52						; size = 4
_rectBtn$ = -48						; size = 16
_rect$ = -32						; size = 16
_rectEdit$ = -16					; size = 16
_nType$ = 8						; size = 4
_cx$ = 12						; size = 4
_cy$ = 16						; size = 4
?OnSize@CxSkinComboBox@@IAEXIHH@Z PROC NEAR		; CxSkinComboBox::OnSize
; _this$ = ecx

; 596  : {

  01690	55		 push	 ebp
  01691	8b ec		 mov	 ebp, esp
  01693	83 ec 34	 sub	 esp, 52			; 00000034H
  01696	89 4d cc	 mov	 DWORD PTR _this$[ebp], ecx

; 597  : 	CWnd::OnSize(nType, cx, cy);

  01699	8b 45 10	 mov	 eax, DWORD PTR _cy$[ebp]
  0169c	50		 push	 eax
  0169d	8b 4d 0c	 mov	 ecx, DWORD PTR _cx$[ebp]
  016a0	51		 push	 ecx
  016a1	8b 55 08	 mov	 edx, DWORD PTR _nType$[ebp]
  016a4	52		 push	 edx
  016a5	8b 4d cc	 mov	 ecx, DWORD PTR _this$[ebp]
  016a8	e8 00 00 00 00	 call	 ?OnSize@CWnd@@IAEXIHH@Z	; CWnd::OnSize

; 598  : 
; 599  : 
; 600  : 	CRect rect,rectEdit,rectBtn;

  016ad	8d 4d e0	 lea	 ecx, DWORD PTR _rect$[ebp]
  016b0	e8 00 00 00 00	 call	 ??0CRect@@QAE@XZ	; CRect::CRect
  016b5	8d 4d f0	 lea	 ecx, DWORD PTR _rectEdit$[ebp]
  016b8	e8 00 00 00 00	 call	 ??0CRect@@QAE@XZ	; CRect::CRect
  016bd	8d 4d d0	 lea	 ecx, DWORD PTR _rectBtn$[ebp]
  016c0	e8 00 00 00 00	 call	 ??0CRect@@QAE@XZ	; CRect::CRect

; 601  : 	GetClientRect(&rect);

  016c5	8d 45 e0	 lea	 eax, DWORD PTR _rect$[ebp]
  016c8	50		 push	 eax
  016c9	8b 4d cc	 mov	 ecx, DWORD PTR _this$[ebp]
  016cc	e8 00 00 00 00	 call	 ?GetClientRect@CWnd@@QBEXPAUtagRECT@@@Z ; CWnd::GetClientRect

; 602  : 
; 603  : 	rectEdit.left=rect.left+1;

  016d1	8b 4d e0	 mov	 ecx, DWORD PTR _rect$[ebp]
  016d4	83 c1 01	 add	 ecx, 1
  016d7	89 4d f0	 mov	 DWORD PTR _rectEdit$[ebp], ecx

; 604  : 	rectEdit.top=rect.top+3;

  016da	8b 55 e4	 mov	 edx, DWORD PTR _rect$[ebp+4]
  016dd	83 c2 03	 add	 edx, 3
  016e0	89 55 f4	 mov	 DWORD PTR _rectEdit$[ebp+4], edx

; 605  : 	rectEdit.right=rect.right-m_iBtnWidth;

  016e3	8b 45 cc	 mov	 eax, DWORD PTR _this$[ebp]
  016e6	8b 4d e8	 mov	 ecx, DWORD PTR _rect$[ebp+8]
  016e9	2b 88 f0 02 00
	00		 sub	 ecx, DWORD PTR [eax+752]
  016ef	89 4d f8	 mov	 DWORD PTR _rectEdit$[ebp+8], ecx

; 606  : 	rectEdit.bottom=rect.bottom-1;

  016f2	8b 55 ec	 mov	 edx, DWORD PTR _rect$[ebp+12]
  016f5	83 ea 01	 sub	 edx, 1
  016f8	89 55 fc	 mov	 DWORD PTR _rectEdit$[ebp+12], edx

; 607  : 	m_pEdit.MoveWindow(rectEdit);

  016fb	6a 01		 push	 1
  016fd	8d 4d f0	 lea	 ecx, DWORD PTR _rectEdit$[ebp]
  01700	e8 00 00 00 00	 call	 ??BCRect@@QAEPAUtagRECT@@XZ ; CRect::operator tagRECT *
  01705	50		 push	 eax
  01706	8b 4d cc	 mov	 ecx, DWORD PTR _this$[ebp]
  01709	81 c1 88 00 00
	00		 add	 ecx, 136		; 00000088H
  0170f	e8 00 00 00 00	 call	 ?MoveWindow@CWnd@@QAEXPBUtagRECT@@H@Z ; CWnd::MoveWindow

; 608  : 
; 609  : 	rectBtn.left=rect.right-m_iBtnWidth;

  01714	8b 45 cc	 mov	 eax, DWORD PTR _this$[ebp]
  01717	8b 4d e8	 mov	 ecx, DWORD PTR _rect$[ebp+8]
  0171a	2b 88 f0 02 00
	00		 sub	 ecx, DWORD PTR [eax+752]
  01720	89 4d d0	 mov	 DWORD PTR _rectBtn$[ebp], ecx

; 610  : 	rectBtn.top=rect.top+1;

  01723	8b 55 e4	 mov	 edx, DWORD PTR _rect$[ebp+4]
  01726	83 c2 01	 add	 edx, 1
  01729	89 55 d4	 mov	 DWORD PTR _rectBtn$[ebp+4], edx

; 611  : 	rectBtn.right=rect.right-1;

  0172c	8b 45 e8	 mov	 eax, DWORD PTR _rect$[ebp+8]
  0172f	83 e8 01	 sub	 eax, 1
  01732	89 45 d8	 mov	 DWORD PTR _rectBtn$[ebp+8], eax

; 612  : 	rectBtn.bottom=rect.bottom-1;

  01735	8b 4d ec	 mov	 ecx, DWORD PTR _rect$[ebp+12]
  01738	83 e9 01	 sub	 ecx, 1
  0173b	89 4d dc	 mov	 DWORD PTR _rectBtn$[ebp+12], ecx

; 613  : 	m_pHistoryBtn.MoveWindow(rectBtn);

  0173e	6a 01		 push	 1
  01740	8d 4d d0	 lea	 ecx, DWORD PTR _rectBtn$[ebp]
  01743	e8 00 00 00 00	 call	 ??BCRect@@QAEPAUtagRECT@@XZ ; CRect::operator tagRECT *
  01748	50		 push	 eax
  01749	8b 4d cc	 mov	 ecx, DWORD PTR _this$[ebp]
  0174c	81 c1 c4 01 00
	00		 add	 ecx, 452		; 000001c4H
  01752	e8 00 00 00 00	 call	 ?MoveWindow@CWnd@@QAEXPBUtagRECT@@H@Z ; CWnd::MoveWindow

; 614  : 
; 615  : }

  01757	8b e5		 mov	 esp, ebp
  01759	5d		 pop	 ebp
  0175a	c2 0c 00	 ret	 12			; 0000000cH
?OnSize@CxSkinComboBox@@IAEXIHH@Z ENDP			; CxSkinComboBox::OnSize
; Function compile flags: /Odt
_this$ = -4						; size = 4
_bShow$ = 8						; size = 4
_nStatus$ = 12						; size = 4
?OnShowWindow@CxSkinComboBox@@IAEXHI@Z PROC NEAR	; CxSkinComboBox::OnShowWindow
; _this$ = ecx

; 618  : {

  01760	55		 push	 ebp
  01761	8b ec		 mov	 ebp, esp
  01763	51		 push	 ecx
  01764	89 4d fc	 mov	 DWORD PTR _this$[ebp], ecx

; 619  : 	CWnd::OnShowWindow(bShow, nStatus);

  01767	8b 45 0c	 mov	 eax, DWORD PTR _nStatus$[ebp]
  0176a	50		 push	 eax
  0176b	8b 4d 08	 mov	 ecx, DWORD PTR _bShow$[ebp]
  0176e	51		 push	 ecx
  0176f	8b 4d fc	 mov	 ecx, DWORD PTR _this$[ebp]
  01772	e8 00 00 00 00	 call	 ?OnShowWindow@CWnd@@IAEXHI@Z ; CWnd::OnShowWindow

; 620  : }

  01777	8b e5		 mov	 esp, ebp
  01779	5d		 pop	 ebp
  0177a	c2 08 00	 ret	 8
?OnShowWindow@CxSkinComboBox@@IAEXHI@Z ENDP		; CxSkinComboBox::OnShowWindow
_TEXT	ENDS
PUBLIC	?AddString@CxSkinComboBox@@QAEHPBD@Z		; CxSkinComboBox::AddString
PUBLIC	?push_back@?$vector@V?$basic_string@DU?$char_traits@D@std@@V?$allocator@D@2@@std@@V?$allocator@V?$basic_string@DU?$char_traits@D@std@@V?$allocator@D@2@@std@@@2@@std@@QAEXABV?$basic_string@DU?$char_traits@D@std@@V?$allocator@D@2@@2@@Z ; std::vector<std::basic_string<char,std::char_traits<char>,std::allocator<char> >,std::allocator<std::basic_string<char,std::char_traits<char>,std::allocator<char> > > >::push_back
EXTRN	__imp_??0?$basic_string@DU?$char_traits@D@std@@V?$allocator@D@2@@std@@QAE@PBD@Z:NEAR
EXTRN	__imp_??1?$basic_string@DU?$char_traits@D@std@@V?$allocator@D@2@@std@@QAE@XZ:NEAR
xdata$x	SEGMENT
$T200298 DD	0ffffffffH
	DD	FLAT:$L200294
$T200296 DD	019930520H
	DD	01H
	DD	FLAT:$T200298
	DD	2 DUP(00H)
	DD	2 DUP(00H)
; Function compile flags: /Odt
xdata$x	ENDS
_TEXT	SEGMENT
tv82 = -52						; size = 4
tv83 = -48						; size = 4
_this$ = -44						; size = 4
$T200293 = -40						; size = 28
__$EHRec$ = -12						; size = 12
_lpszString$ = 8					; size = 4
?AddString@CxSkinComboBox@@QAEHPBD@Z PROC NEAR		; CxSkinComboBox::AddString
; _this$ = ecx

; 623  : {

  01780	55		 push	 ebp
  01781	8b ec		 mov	 ebp, esp
  01783	6a ff		 push	 -1
  01785	68 00 00 00 00	 push	 __ehhandler$?AddString@CxSkinComboBox@@QAEHPBD@Z
  0178a	64 a1 00 00 00
	00		 mov	 eax, DWORD PTR fs:__except_list
  01790	50		 push	 eax
  01791	64 89 25 00 00
	00 00		 mov	 DWORD PTR fs:__except_list, esp
  01798	83 ec 28	 sub	 esp, 40			; 00000028H
  0179b	89 4d d4	 mov	 DWORD PTR _this$[ebp], ecx

; 624  : 	if (m_vecString.size()<1)

  0179e	8b 4d d4	 mov	 ecx, DWORD PTR _this$[ebp]
  017a1	81 c1 08 03 00
	00		 add	 ecx, 776		; 00000308H
  017a7	e8 00 00 00 00	 call	 ?size@?$vector@V?$basic_string@DU?$char_traits@D@std@@V?$allocator@D@2@@std@@V?$allocator@V?$basic_string@DU?$char_traits@D@std@@V?$allocator@D@2@@std@@@2@@std@@QBEIXZ ; std::vector<std::basic_string<char,std::char_traits<char>,std::allocator<char> >,std::allocator<std::basic_string<char,std::char_traits<char>,std::allocator<char> > > >::size
  017ac	83 f8 01	 cmp	 eax, 1
  017af	73 0d		 jae	 SHORT $L198705

; 625  : 	{
; 626  : 		m_iCurSel=0;

  017b1	8b 45 d4	 mov	 eax, DWORD PTR _this$[ebp]
  017b4	c7 80 18 03 00
	00 00 00 00 00	 mov	 DWORD PTR [eax+792], 0
$L198705:

; 627  : 	}
; 628  : 	m_vecString.push_back(string(lpszString));

  017be	8b 4d 08	 mov	 ecx, DWORD PTR _lpszString$[ebp]
  017c1	51		 push	 ecx
  017c2	8d 4d d8	 lea	 ecx, DWORD PTR $T200293[ebp]
  017c5	ff 15 00 00 00
	00		 call	 DWORD PTR __imp_??0?$basic_string@DU?$char_traits@D@std@@V?$allocator@D@2@@std@@QAE@PBD@Z
  017cb	89 45 d0	 mov	 DWORD PTR tv83[ebp], eax
  017ce	8b 55 d0	 mov	 edx, DWORD PTR tv83[ebp]
  017d1	89 55 cc	 mov	 DWORD PTR tv82[ebp], edx
  017d4	c7 45 fc 00 00
	00 00		 mov	 DWORD PTR __$EHRec$[ebp+8], 0
  017db	8b 45 cc	 mov	 eax, DWORD PTR tv82[ebp]
  017de	50		 push	 eax
  017df	8b 4d d4	 mov	 ecx, DWORD PTR _this$[ebp]
  017e2	81 c1 08 03 00
	00		 add	 ecx, 776		; 00000308H
  017e8	e8 00 00 00 00	 call	 ?push_back@?$vector@V?$basic_string@DU?$char_traits@D@std@@V?$allocator@D@2@@std@@V?$allocator@V?$basic_string@DU?$char_traits@D@std@@V?$allocator@D@2@@std@@@2@@std@@QAEXABV?$basic_string@DU?$char_traits@D@std@@V?$allocator@D@2@@2@@Z ; std::vector<std::basic_string<char,std::char_traits<char>,std::allocator<char> >,std::allocator<std::basic_string<char,std::char_traits<char>,std::allocator<char> > > >::push_back
  017ed	c7 45 fc ff ff
	ff ff		 mov	 DWORD PTR __$EHRec$[ebp+8], -1
  017f4	8d 4d d8	 lea	 ecx, DWORD PTR $T200293[ebp]
  017f7	ff 15 00 00 00
	00		 call	 DWORD PTR __imp_??1?$basic_string@DU?$char_traits@D@std@@V?$allocator@D@2@@std@@QAE@XZ

; 629  : 
; 630  : 	return m_vecString.size()-1;

  017fd	8b 4d d4	 mov	 ecx, DWORD PTR _this$[ebp]
  01800	81 c1 08 03 00
	00		 add	 ecx, 776		; 00000308H
  01806	e8 00 00 00 00	 call	 ?size@?$vector@V?$basic_string@DU?$char_traits@D@std@@V?$allocator@D@2@@std@@V?$allocator@V?$basic_string@DU?$char_traits@D@std@@V?$allocator@D@2@@std@@@2@@std@@QBEIXZ ; std::vector<std::basic_string<char,std::char_traits<char>,std::allocator<char> >,std::allocator<std::basic_string<char,std::char_traits<char>,std::allocator<char> > > >::size
  0180b	83 e8 01	 sub	 eax, 1

; 631  : }

  0180e	8b 4d f4	 mov	 ecx, DWORD PTR __$EHRec$[ebp]
  01811	64 89 0d 00 00
	00 00		 mov	 DWORD PTR fs:__except_list, ecx
  01818	8b e5		 mov	 esp, ebp
  0181a	5d		 pop	 ebp
  0181b	c2 04 00	 ret	 4
_TEXT	ENDS
text$x	SEGMENT
$L200294:
  00178	8d 4d d8	 lea	 ecx, DWORD PTR $T200293[ebp]
  0017b	ff 25 00 00 00
	00		 jmp	 DWORD PTR __imp_??1?$basic_string@DU?$char_traits@D@std@@V?$allocator@D@2@@std@@QAE@XZ
__ehhandler$?AddString@CxSkinComboBox@@QAEHPBD@Z:
  00181	b8 00 00 00 00	 mov	 eax, OFFSET FLAT:$T200296
  00186	e9 00 00 00 00	 jmp	 ___CxxFrameHandler
text$x	ENDS
?AddString@CxSkinComboBox@@QAEHPBD@Z ENDP		; CxSkinComboBox::AddString
PUBLIC	?SetCurSel@CxSkinComboBox@@QAEXH@Z		; CxSkinComboBox::SetCurSel
EXTRN	?SetWindowTextA@CWnd@@QAEXPBD@Z:NEAR		; CWnd::SetWindowTextA
; Function compile flags: /Odt
_TEXT	SEGMENT
_this$ = -4						; size = 4
_iSel$ = 8						; size = 4
?SetCurSel@CxSkinComboBox@@QAEXH@Z PROC NEAR		; CxSkinComboBox::SetCurSel
; _this$ = ecx

; 634  : {

  01820	55		 push	 ebp
  01821	8b ec		 mov	 ebp, esp
  01823	51		 push	 ecx
  01824	89 4d fc	 mov	 DWORD PTR _this$[ebp], ecx

; 635  : 	if (iSel<0 || iSel>=m_vecString.size())

  01827	83 7d 08 00	 cmp	 DWORD PTR _iSel$[ebp], 0
  0182b	7c 13		 jl	 SHORT $L198712
  0182d	8b 4d fc	 mov	 ecx, DWORD PTR _this$[ebp]
  01830	81 c1 08 03 00
	00		 add	 ecx, 776		; 00000308H
  01836	e8 00 00 00 00	 call	 ?size@?$vector@V?$basic_string@DU?$char_traits@D@std@@V?$allocator@D@2@@std@@V?$allocator@V?$basic_string@DU?$char_traits@D@std@@V?$allocator@D@2@@std@@@2@@std@@QBEIXZ ; std::vector<std::basic_string<char,std::char_traits<char>,std::allocator<char> >,std::allocator<std::basic_string<char,std::char_traits<char>,std::allocator<char> > > >::size
  0183b	39 45 08	 cmp	 DWORD PTR _iSel$[ebp], eax
  0183e	72 02		 jb	 SHORT $L198711
$L198712:

; 636  : 	{
; 637  : 		return;

  01840	eb 35		 jmp	 SHORT $L198710
$L198711:

; 638  : 	}
; 639  : 	m_iCurSel=iSel;

  01842	8b 45 fc	 mov	 eax, DWORD PTR _this$[ebp]
  01845	8b 4d 08	 mov	 ecx, DWORD PTR _iSel$[ebp]
  01848	89 88 18 03 00
	00		 mov	 DWORD PTR [eax+792], ecx

; 640  : 	m_pEdit.SetWindowText(m_vecString.at(iSel).c_str());

  0184e	8b 55 08	 mov	 edx, DWORD PTR _iSel$[ebp]
  01851	52		 push	 edx
  01852	8b 4d fc	 mov	 ecx, DWORD PTR _this$[ebp]
  01855	81 c1 08 03 00
	00		 add	 ecx, 776		; 00000308H
  0185b	e8 00 00 00 00	 call	 ?at@?$vector@V?$basic_string@DU?$char_traits@D@std@@V?$allocator@D@2@@std@@V?$allocator@V?$basic_string@DU?$char_traits@D@std@@V?$allocator@D@2@@std@@@2@@std@@QAEAAV?$basic_string@DU?$char_traits@D@std@@V?$allocator@D@2@@2@I@Z ; std::vector<std::basic_string<char,std::char_traits<char>,std::allocator<char> >,std::allocator<std::basic_string<char,std::char_traits<char>,std::allocator<char> > > >::at
  01860	8b c8		 mov	 ecx, eax
  01862	ff 15 00 00 00
	00		 call	 DWORD PTR __imp_?c_str@?$basic_string@DU?$char_traits@D@std@@V?$allocator@D@2@@std@@QBEPBDXZ
  01868	50		 push	 eax
  01869	8b 4d fc	 mov	 ecx, DWORD PTR _this$[ebp]
  0186c	81 c1 88 00 00
	00		 add	 ecx, 136		; 00000088H
  01872	e8 00 00 00 00	 call	 ?SetWindowTextA@CWnd@@QAEXPBD@Z ; CWnd::SetWindowTextA
$L198710:

; 641  : }

  01877	8b e5		 mov	 esp, ebp
  01879	5d		 pop	 ebp
  0187a	c2 04 00	 ret	 4
?SetCurSel@CxSkinComboBox@@QAEXH@Z ENDP			; CxSkinComboBox::SetCurSel
_TEXT	ENDS
PUBLIC	?GetCurSel@CxSkinComboBox@@QAEHXZ		; CxSkinComboBox::GetCurSel
; Function compile flags: /Odt
_TEXT	SEGMENT
_this$ = -4						; size = 4
?GetCurSel@CxSkinComboBox@@QAEHXZ PROC NEAR		; CxSkinComboBox::GetCurSel
; _this$ = ecx

; 644  : {

  01880	55		 push	 ebp
  01881	8b ec		 mov	 ebp, esp
  01883	51		 push	 ecx
  01884	89 4d fc	 mov	 DWORD PTR _this$[ebp], ecx

; 645  : 	return m_iCurSel;

  01887	8b 45 fc	 mov	 eax, DWORD PTR _this$[ebp]
  0188a	8b 80 18 03 00
	00		 mov	 eax, DWORD PTR [eax+792]

; 646  : }

  01890	8b e5		 mov	 esp, ebp
  01892	5d		 pop	 ebp
  01893	c3		 ret	 0
?GetCurSel@CxSkinComboBox@@QAEHXZ ENDP			; CxSkinComboBox::GetCurSel
_TEXT	ENDS
PUBLIC	?SetEditSel@CxSkinComboBox@@QAEXHH@Z		; CxSkinComboBox::SetEditSel
EXTRN	?SetFocus@CWnd@@QAEPAV1@XZ:NEAR			; CWnd::SetFocus
; Function compile flags: /Odt
_TEXT	SEGMENT
_this$ = -4						; size = 4
_iSel$ = 8						; size = 4
_iLength$ = 12						; size = 4
?SetEditSel@CxSkinComboBox@@QAEXHH@Z PROC NEAR		; CxSkinComboBox::SetEditSel
; _this$ = ecx

; 649  : {

  018a0	55		 push	 ebp
  018a1	8b ec		 mov	 ebp, esp
  018a3	51		 push	 ecx
  018a4	89 4d fc	 mov	 DWORD PTR _this$[ebp], ecx

; 650  : 	m_pEdit.SetFocus();

  018a7	8b 4d fc	 mov	 ecx, DWORD PTR _this$[ebp]
  018aa	81 c1 88 00 00
	00		 add	 ecx, 136		; 00000088H
  018b0	e8 00 00 00 00	 call	 ?SetFocus@CWnd@@QAEPAV1@XZ ; CWnd::SetFocus

; 651  : 	m_pEdit.SetSel(iSel,iLength);

  018b5	6a 00		 push	 0
  018b7	8b 45 0c	 mov	 eax, DWORD PTR _iLength$[ebp]
  018ba	50		 push	 eax
  018bb	8b 4d 08	 mov	 ecx, DWORD PTR _iSel$[ebp]
  018be	51		 push	 ecx
  018bf	8b 4d fc	 mov	 ecx, DWORD PTR _this$[ebp]
  018c2	81 c1 88 00 00
	00		 add	 ecx, 136		; 00000088H
  018c8	e8 00 00 00 00	 call	 ?SetSel@CEdit@@QAEXHHH@Z ; CEdit::SetSel

; 652  : }

  018cd	8b e5		 mov	 esp, ebp
  018cf	5d		 pop	 ebp
  018d0	c2 08 00	 ret	 8
?SetEditSel@CxSkinComboBox@@QAEXHH@Z ENDP		; CxSkinComboBox::SetEditSel
_TEXT	ENDS
PUBLIC	?GetCount@CxSkinComboBox@@QAEHXZ		; CxSkinComboBox::GetCount
; Function compile flags: /Odt
_TEXT	SEGMENT
_this$ = -4						; size = 4
?GetCount@CxSkinComboBox@@QAEHXZ PROC NEAR		; CxSkinComboBox::GetCount
; _this$ = ecx

; 655  : {

  018e0	55		 push	 ebp
  018e1	8b ec		 mov	 ebp, esp
  018e3	51		 push	 ecx
  018e4	89 4d fc	 mov	 DWORD PTR _this$[ebp], ecx

; 656  : 	return m_vecString.size();

  018e7	8b 4d fc	 mov	 ecx, DWORD PTR _this$[ebp]
  018ea	81 c1 08 03 00
	00		 add	 ecx, 776		; 00000308H
  018f0	e8 00 00 00 00	 call	 ?size@?$vector@V?$basic_string@DU?$char_traits@D@std@@V?$allocator@D@2@@std@@V?$allocator@V?$basic_string@DU?$char_traits@D@std@@V?$allocator@D@2@@std@@@2@@std@@QBEIXZ ; std::vector<std::basic_string<char,std::char_traits<char>,std::allocator<char> >,std::allocator<std::basic_string<char,std::char_traits<char>,std::allocator<char> > > >::size

; 657  : }

  018f5	8b e5		 mov	 esp, ebp
  018f7	5d		 pop	 ebp
  018f8	c3		 ret	 0
?GetCount@CxSkinComboBox@@QAEHXZ ENDP			; CxSkinComboBox::GetCount
_TEXT	ENDS
PUBLIC	?GetLBText@CxSkinComboBox@@QAEXHAAV?$CStringT@DV?$StrTraitMFC_DLL@DV?$ChTraitsCRT@D@ATL@@@@@ATL@@@Z ; CxSkinComboBox::GetLBText
EXTRN	__imp_??4?$CStringT@DV?$StrTraitMFC_DLL@DV?$ChTraitsCRT@D@ATL@@@@@ATL@@QAEAAV01@PBD@Z:NEAR
; Function compile flags: /Odt
_TEXT	SEGMENT
_this$ = -4						; size = 4
_iSel$ = 8						; size = 4
_strText$ = 12						; size = 4
?GetLBText@CxSkinComboBox@@QAEXHAAV?$CStringT@DV?$StrTraitMFC_DLL@DV?$ChTraitsCRT@D@ATL@@@@@ATL@@@Z PROC NEAR ; CxSkinComboBox::GetLBText
; _this$ = ecx

; 660  : {

  01900	55		 push	 ebp
  01901	8b ec		 mov	 ebp, esp
  01903	51		 push	 ecx
  01904	89 4d fc	 mov	 DWORD PTR _this$[ebp], ecx

; 661  : 	strText=m_vecString.at(iSel).c_str();

  01907	8b 45 08	 mov	 eax, DWORD PTR _iSel$[ebp]
  0190a	50		 push	 eax
  0190b	8b 4d fc	 mov	 ecx, DWORD PTR _this$[ebp]
  0190e	81 c1 08 03 00
	00		 add	 ecx, 776		; 00000308H
  01914	e8 00 00 00 00	 call	 ?at@?$vector@V?$basic_string@DU?$char_traits@D@std@@V?$allocator@D@2@@std@@V?$allocator@V?$basic_string@DU?$char_traits@D@std@@V?$allocator@D@2@@std@@@2@@std@@QAEAAV?$basic_string@DU?$char_traits@D@std@@V?$allocator@D@2@@2@I@Z ; std::vector<std::basic_string<char,std::char_traits<char>,std::allocator<char> >,std::allocator<std::basic_string<char,std::char_traits<char>,std::allocator<char> > > >::at
  01919	8b c8		 mov	 ecx, eax
  0191b	ff 15 00 00 00
	00		 call	 DWORD PTR __imp_?c_str@?$basic_string@DU?$char_traits@D@std@@V?$allocator@D@2@@std@@QBEPBDXZ
  01921	50		 push	 eax
  01922	8b 4d 0c	 mov	 ecx, DWORD PTR _strText$[ebp]
  01925	ff 15 00 00 00
	00		 call	 DWORD PTR __imp_??4?$CStringT@DV?$StrTraitMFC_DLL@DV?$ChTraitsCRT@D@ATL@@@@@ATL@@QAEAAV01@PBD@Z

; 662  : }

  0192b	8b e5		 mov	 esp, ebp
  0192d	5d		 pop	 ebp
  0192e	c2 08 00	 ret	 8
?GetLBText@CxSkinComboBox@@QAEXHAAV?$CStringT@DV?$StrTraitMFC_DLL@DV?$ChTraitsCRT@D@ATL@@@@@ATL@@@Z ENDP ; CxSkinComboBox::GetLBText
_TEXT	ENDS
PUBLIC	?ResetContent@CxSkinComboBox@@QAEXXZ		; CxSkinComboBox::ResetContent
PUBLIC	?clear@?$vector@V?$basic_string@DU?$char_traits@D@std@@V?$allocator@D@2@@std@@V?$allocator@V?$basic_string@DU?$char_traits@D@std@@V?$allocator@D@2@@std@@@2@@std@@QAEXXZ ; std::vector<std::basic_string<char,std::char_traits<char>,std::allocator<char> >,std::allocator<std::basic_string<char,std::char_traits<char>,std::allocator<char> > > >::clear
; Function compile flags: /Odt
_TEXT	SEGMENT
_this$ = -4						; size = 4
?ResetContent@CxSkinComboBox@@QAEXXZ PROC NEAR		; CxSkinComboBox::ResetContent
; _this$ = ecx

; 665  : {

  01940	55		 push	 ebp
  01941	8b ec		 mov	 ebp, esp
  01943	51		 push	 ecx
  01944	89 4d fc	 mov	 DWORD PTR _this$[ebp], ecx

; 666  : 	m_vecString.clear();

  01947	8b 4d fc	 mov	 ecx, DWORD PTR _this$[ebp]
  0194a	81 c1 08 03 00
	00		 add	 ecx, 776		; 00000308H
  01950	e8 00 00 00 00	 call	 ?clear@?$vector@V?$basic_string@DU?$char_traits@D@std@@V?$allocator@D@2@@std@@V?$allocator@V?$basic_string@DU?$char_traits@D@std@@V?$allocator@D@2@@std@@@2@@std@@QAEXXZ ; std::vector<std::basic_string<char,std::char_traits<char>,std::allocator<char> >,std::allocator<std::basic_string<char,std::char_traits<char>,std::allocator<char> > > >::clear

; 667  : }

  01955	8b e5		 mov	 esp, ebp
  01957	5d		 pop	 ebp
  01958	c3		 ret	 0
?ResetContent@CxSkinComboBox@@QAEXXZ ENDP		; CxSkinComboBox::ResetContent
_TEXT	ENDS
PUBLIC	?SetWindowTextA@CxSkinComboBox@@QAEXPBD@Z	; CxSkinComboBox::SetWindowTextA
; Function compile flags: /Odt
_TEXT	SEGMENT
_this$ = -4						; size = 4
_lpszString$ = 8					; size = 4
?SetWindowTextA@CxSkinComboBox@@QAEXPBD@Z PROC NEAR	; CxSkinComboBox::SetWindowTextA
; _this$ = ecx

; 670  : {

  01960	55		 push	 ebp
  01961	8b ec		 mov	 ebp, esp
  01963	51		 push	 ecx
  01964	89 4d fc	 mov	 DWORD PTR _this$[ebp], ecx

; 671  : 	m_pEdit.SetWindowText(lpszString);

  01967	8b 45 08	 mov	 eax, DWORD PTR _lpszString$[ebp]
  0196a	50		 push	 eax
  0196b	8b 4d fc	 mov	 ecx, DWORD PTR _this$[ebp]
  0196e	81 c1 88 00 00
	00		 add	 ecx, 136		; 00000088H
  01974	e8 00 00 00 00	 call	 ?SetWindowTextA@CWnd@@QAEXPBD@Z ; CWnd::SetWindowTextA

; 672  : 	m_pEdit.SetFocus();

  01979	8b 4d fc	 mov	 ecx, DWORD PTR _this$[ebp]
  0197c	81 c1 88 00 00
	00		 add	 ecx, 136		; 00000088H
  01982	e8 00 00 00 00	 call	 ?SetFocus@CWnd@@QAEPAV1@XZ ; CWnd::SetFocus

; 673  : 	m_pEdit.SetSel(0,-1);

  01987	6a 00		 push	 0
  01989	6a ff		 push	 -1
  0198b	6a 00		 push	 0
  0198d	8b 4d fc	 mov	 ecx, DWORD PTR _this$[ebp]
  01990	81 c1 88 00 00
	00		 add	 ecx, 136		; 00000088H
  01996	e8 00 00 00 00	 call	 ?SetSel@CEdit@@QAEXHHH@Z ; CEdit::SetSel

; 674  : }

  0199b	8b e5		 mov	 esp, ebp
  0199d	5d		 pop	 ebp
  0199e	c2 04 00	 ret	 4
?SetWindowTextA@CxSkinComboBox@@QAEXPBD@Z ENDP		; CxSkinComboBox::SetWindowTextA
_TEXT	ENDS
PUBLIC	?GetWindowTextA@CxSkinComboBox@@QAEXAAV?$CStringT@DV?$StrTraitMFC_DLL@DV?$ChTraitsCRT@D@ATL@@@@@ATL@@@Z ; CxSkinComboBox::GetWindowTextA
; Function compile flags: /Odt
_TEXT	SEGMENT
_this$ = -4						; size = 4
_strText$ = 8						; size = 4
?GetWindowTextA@CxSkinComboBox@@QAEXAAV?$CStringT@DV?$StrTraitMFC_DLL@DV?$ChTraitsCRT@D@ATL@@@@@ATL@@@Z PROC NEAR ; CxSkinComboBox::GetWindowTextA
; _this$ = ecx

; 677  : {

  019b0	55		 push	 ebp
  019b1	8b ec		 mov	 ebp, esp
  019b3	51		 push	 ecx
  019b4	89 4d fc	 mov	 DWORD PTR _this$[ebp], ecx

; 678  : 	m_pEdit.GetWindowText(strText);

  019b7	8b 45 08	 mov	 eax, DWORD PTR _strText$[ebp]
  019ba	50		 push	 eax
  019bb	8b 4d fc	 mov	 ecx, DWORD PTR _this$[ebp]
  019be	81 c1 88 00 00
	00		 add	 ecx, 136		; 00000088H
  019c4	e8 00 00 00 00	 call	 ?GetWindowTextA@CWnd@@QBEXAAV?$CStringT@DV?$StrTraitMFC_DLL@DV?$ChTraitsCRT@D@ATL@@@@@ATL@@@Z ; CWnd::GetWindowTextA

; 679  : }

  019c9	8b e5		 mov	 esp, ebp
  019cb	5d		 pop	 ebp
  019cc	c2 04 00	 ret	 4
?GetWindowTextA@CxSkinComboBox@@QAEXAAV?$CStringT@DV?$StrTraitMFC_DLL@DV?$ChTraitsCRT@D@ATL@@@@@ATL@@@Z ENDP ; CxSkinComboBox::GetWindowTextA
_TEXT	ENDS
PUBLIC	?IsWindowVisible@CWnd@@QBEHXZ			; CWnd::IsWindowVisible
PUBLIC	?GetDesktopWindow@CWnd@@SGPAV1@XZ		; CWnd::GetDesktopWindow
PUBLIC	?SetParent@CWnd@@QAEPAV1@PAV1@@Z		; CWnd::SetParent
PUBLIC	??BCWnd@@QBEPAUHWND__@@XZ			; CWnd::operator HWND__ *
EXTRN	__imp__SetWindowPos@28:NEAR
; Function compile flags: /Odt
_TEXT	SEGMENT
tv90 = -44						; size = 4
_this$ = -40						; size = 4
_iHeight$198752 = -36					; size = 4
_iItemHeight$198751 = -32				; size = 4
_iWidth$198753 = -28					; size = 4
_rect$198754 = -24					; size = 16
_bIsHistoryVisuable$198749 = -8				; size = 4
_lowWord$ = -4						; size = 2
_wParam$ = 8						; size = 4
_lParam$ = 12						; size = 4
?OnCommand@CxSkinComboBox@@MAEHIJ@Z PROC NEAR		; CxSkinComboBox::OnCommand
; _this$ = ecx

; 682  : {

  019d0	55		 push	 ebp
  019d1	8b ec		 mov	 ebp, esp
  019d3	83 ec 2c	 sub	 esp, 44			; 0000002cH
  019d6	89 4d d8	 mov	 DWORD PTR _this$[ebp], ecx

; 683  : 	WORD lowWord	= LOWORD( wParam );

  019d9	8b 45 08	 mov	 eax, DWORD PTR _wParam$[ebp]
  019dc	25 ff ff 00 00	 and	 eax, 65535		; 0000ffffH
  019e1	66 89 45 fc	 mov	 WORD PTR _lowWord$[ebp], ax

; 684  : 
; 685  : 	if (lowWord==XSKINCOMBOBOX_BUTTON)

  019e5	0f b7 4d fc	 movzx	 ecx, WORD PTR _lowWord$[ebp]
  019e9	81 f9 12 27 00
	00		 cmp	 ecx, 10002		; 00002712H
  019ef	0f 85 a5 01 00
	00		 jne	 $L198748

; 686  : 	{
; 687  : 		BOOL bIsHistoryVisuable=m_pHistoryWnd.IsWindowVisible();

  019f5	8b 4d d8	 mov	 ecx, DWORD PTR _this$[ebp]
  019f8	81 c1 e8 00 00
	00		 add	 ecx, 232		; 000000e8H
  019fe	e8 00 00 00 00	 call	 ?IsWindowVisible@CWnd@@QBEHXZ ; CWnd::IsWindowVisible
  01a03	89 45 f8	 mov	 DWORD PTR _bIsHistoryVisuable$198749[ebp], eax

; 688  : 		if (!bIsHistoryVisuable)

  01a06	83 7d f8 00	 cmp	 DWORD PTR _bIsHistoryVisuable$198749[ebp], 0
  01a0a	0f 85 58 01 00
	00		 jne	 $L198750

; 689  : 		{
; 690  : 			m_pHistoryWnd.RefreshData(m_vecString);

  01a10	8b 55 d8	 mov	 edx, DWORD PTR _this$[ebp]
  01a13	81 c2 08 03 00
	00		 add	 edx, 776		; 00000308H
  01a19	52		 push	 edx
  01a1a	8b 4d d8	 mov	 ecx, DWORD PTR _this$[ebp]
  01a1d	81 c1 e8 00 00
	00		 add	 ecx, 232		; 000000e8H
  01a23	e8 00 00 00 00	 call	 ?RefreshData@CComboBoxHistory@@QAEXAAV?$vector@V?$basic_string@DU?$char_traits@D@std@@V?$allocator@D@2@@std@@V?$allocator@V?$basic_string@DU?$char_traits@D@std@@V?$allocator@D@2@@std@@@2@@std@@@Z ; CComboBoxHistory::RefreshData

; 691  : 			
; 692  : 			int iItemHeight=m_pHistoryWnd.GetItemHeight()+1;

  01a28	8b 4d d8	 mov	 ecx, DWORD PTR _this$[ebp]
  01a2b	81 c1 e8 00 00
	00		 add	 ecx, 232		; 000000e8H
  01a31	e8 00 00 00 00	 call	 ?GetItemHeight@CComboBoxHistory@@QAEHXZ ; CComboBoxHistory::GetItemHeight
  01a36	83 c0 01	 add	 eax, 1
  01a39	89 45 e0	 mov	 DWORD PTR _iItemHeight$198751[ebp], eax

; 693  : 			int iHeight=4+iItemHeight*(m_vecString.size()>m_iMaxShowLines?m_iMaxShowLines:m_vecString.size());

  01a3c	8b 4d d8	 mov	 ecx, DWORD PTR _this$[ebp]
  01a3f	81 c1 08 03 00
	00		 add	 ecx, 776		; 00000308H
  01a45	e8 00 00 00 00	 call	 ?size@?$vector@V?$basic_string@DU?$char_traits@D@std@@V?$allocator@D@2@@std@@V?$allocator@V?$basic_string@DU?$char_traits@D@std@@V?$allocator@D@2@@std@@@2@@std@@QBEIXZ ; std::vector<std::basic_string<char,std::char_traits<char>,std::allocator<char> >,std::allocator<std::basic_string<char,std::char_traits<char>,std::allocator<char> > > >::size
  01a4a	8b 4d d8	 mov	 ecx, DWORD PTR _this$[ebp]
  01a4d	3b 81 1c 03 00
	00		 cmp	 eax, DWORD PTR [ecx+796]
  01a53	76 0e		 jbe	 SHORT $L200308
  01a55	8b 55 d8	 mov	 edx, DWORD PTR _this$[ebp]
  01a58	8b 82 1c 03 00
	00		 mov	 eax, DWORD PTR [edx+796]
  01a5e	89 45 d4	 mov	 DWORD PTR tv90[ebp], eax
  01a61	eb 11		 jmp	 SHORT $L200309
$L200308:
  01a63	8b 4d d8	 mov	 ecx, DWORD PTR _this$[ebp]
  01a66	81 c1 08 03 00
	00		 add	 ecx, 776		; 00000308H
  01a6c	e8 00 00 00 00	 call	 ?size@?$vector@V?$basic_string@DU?$char_traits@D@std@@V?$allocator@D@2@@std@@V?$allocator@V?$basic_string@DU?$char_traits@D@std@@V?$allocator@D@2@@std@@@2@@std@@QBEIXZ ; std::vector<std::basic_string<char,std::char_traits<char>,std::allocator<char> >,std::allocator<std::basic_string<char,std::char_traits<char>,std::allocator<char> > > >::size
  01a71	89 45 d4	 mov	 DWORD PTR tv90[ebp], eax
$L200309:
  01a74	8b 4d e0	 mov	 ecx, DWORD PTR _iItemHeight$198751[ebp]
  01a77	0f af 4d d4	 imul	 ecx, DWORD PTR tv90[ebp]
  01a7b	83 c1 04	 add	 ecx, 4
  01a7e	89 4d dc	 mov	 DWORD PTR _iHeight$198752[ebp], ecx

; 694  : 			int iWidth=m_pHistoryWnd.GetMaxItemTextWidth()+10;

  01a81	8b 4d d8	 mov	 ecx, DWORD PTR _this$[ebp]
  01a84	81 c1 e8 00 00
	00		 add	 ecx, 232		; 000000e8H
  01a8a	e8 00 00 00 00	 call	 ?GetMaxItemTextWidth@CComboBoxHistory@@QAEHXZ ; CComboBoxHistory::GetMaxItemTextWidth
  01a8f	83 c0 0a	 add	 eax, 10			; 0000000aH
  01a92	89 45 e4	 mov	 DWORD PTR _iWidth$198753[ebp], eax

; 695  : 			CRect rect;

  01a95	8d 4d e8	 lea	 ecx, DWORD PTR _rect$198754[ebp]
  01a98	e8 00 00 00 00	 call	 ??0CRect@@QAE@XZ	; CRect::CRect

; 696  : 			GetWindowRect(&rect);

  01a9d	8d 55 e8	 lea	 edx, DWORD PTR _rect$198754[ebp]
  01aa0	52		 push	 edx
  01aa1	8b 4d d8	 mov	 ecx, DWORD PTR _this$[ebp]
  01aa4	e8 00 00 00 00	 call	 ?GetWindowRect@CWnd@@QBEXPAUtagRECT@@@Z ; CWnd::GetWindowRect

; 697  : 			rect.top=rect.bottom-1;

  01aa9	8b 45 f4	 mov	 eax, DWORD PTR _rect$198754[ebp+12]
  01aac	83 e8 01	 sub	 eax, 1
  01aaf	89 45 ec	 mov	 DWORD PTR _rect$198754[ebp+4], eax

; 698  : 			rect.bottom=rect.top+iHeight;

  01ab2	8b 4d ec	 mov	 ecx, DWORD PTR _rect$198754[ebp+4]
  01ab5	03 4d dc	 add	 ecx, DWORD PTR _iHeight$198752[ebp]
  01ab8	89 4d f4	 mov	 DWORD PTR _rect$198754[ebp+12], ecx

; 699  : 
; 700  : 			if (iWidth>rect.Width())

  01abb	8d 4d e8	 lea	 ecx, DWORD PTR _rect$198754[ebp]
  01abe	e8 00 00 00 00	 call	 ?Width@CRect@@QBEHXZ	; CRect::Width
  01ac3	39 45 e4	 cmp	 DWORD PTR _iWidth$198753[ebp], eax
  01ac6	7e 09		 jle	 SHORT $L198755

; 701  : 			{
; 702  : 				rect.right=rect.left+iWidth;

  01ac8	8b 55 e8	 mov	 edx, DWORD PTR _rect$198754[ebp]
  01acb	03 55 e4	 add	 edx, DWORD PTR _iWidth$198753[ebp]
  01ace	89 55 f0	 mov	 DWORD PTR _rect$198754[ebp+8], edx
$L198755:

; 703  : 			}
; 704  : 
; 705  : 			m_pHistoryWnd.SetParent(GetDesktopWindow());

  01ad1	e8 00 00 00 00	 call	 ?GetDesktopWindow@CWnd@@SGPAV1@XZ ; CWnd::GetDesktopWindow
  01ad6	50		 push	 eax
  01ad7	8b 4d d8	 mov	 ecx, DWORD PTR _this$[ebp]
  01ada	81 c1 e8 00 00
	00		 add	 ecx, 232		; 000000e8H
  01ae0	e8 00 00 00 00	 call	 ?SetParent@CWnd@@QAEPAV1@PAV1@@Z ; CWnd::SetParent

; 706  : 			::SetWindowPos(m_pHistoryWnd,HWND_TOPMOST,rect.left,rect.top,rect.Width(),rect.Height(),NULL);

  01ae5	6a 00		 push	 0
  01ae7	8d 4d e8	 lea	 ecx, DWORD PTR _rect$198754[ebp]
  01aea	e8 00 00 00 00	 call	 ?Height@CRect@@QBEHXZ	; CRect::Height
  01aef	50		 push	 eax
  01af0	8d 4d e8	 lea	 ecx, DWORD PTR _rect$198754[ebp]
  01af3	e8 00 00 00 00	 call	 ?Width@CRect@@QBEHXZ	; CRect::Width
  01af8	50		 push	 eax
  01af9	8b 45 ec	 mov	 eax, DWORD PTR _rect$198754[ebp+4]
  01afc	50		 push	 eax
  01afd	8b 4d e8	 mov	 ecx, DWORD PTR _rect$198754[ebp]
  01b00	51		 push	 ecx
  01b01	6a ff		 push	 -1
  01b03	8b 4d d8	 mov	 ecx, DWORD PTR _this$[ebp]
  01b06	81 c1 e8 00 00
	00		 add	 ecx, 232		; 000000e8H
  01b0c	e8 00 00 00 00	 call	 ??BCWnd@@QBEPAUHWND__@@XZ ; CWnd::operator HWND__ *
  01b11	50		 push	 eax
  01b12	ff 15 00 00 00
	00		 call	 DWORD PTR __imp__SetWindowPos@28

; 707  : 
; 708  : 			m_pHistoryWnd.ShowWindow(SW_SHOW);

  01b18	6a 05		 push	 5
  01b1a	8b 4d d8	 mov	 ecx, DWORD PTR _this$[ebp]
  01b1d	81 c1 e8 00 00
	00		 add	 ecx, 232		; 000000e8H
  01b23	e8 00 00 00 00	 call	 ?ShowWindow@CWnd@@QAEHH@Z ; CWnd::ShowWindow

; 709  : 			m_pHistoryBtn.SendMessage(WM_KILLFOCUS);

  01b28	6a 00		 push	 0
  01b2a	6a 00		 push	 0
  01b2c	6a 08		 push	 8
  01b2e	8b 4d d8	 mov	 ecx, DWORD PTR _this$[ebp]
  01b31	81 c1 c4 01 00
	00		 add	 ecx, 452		; 000001c4H
  01b37	e8 00 00 00 00	 call	 ?SendMessageA@CWnd@@QAEJIIJ@Z ; CWnd::SendMessageA

; 710  : 			m_pHistoryWnd.SetFocus();

  01b3c	8b 4d d8	 mov	 ecx, DWORD PTR _this$[ebp]
  01b3f	81 c1 e8 00 00
	00		 add	 ecx, 232		; 000000e8H
  01b45	e8 00 00 00 00	 call	 ?SetFocus@CWnd@@QAEPAV1@XZ ; CWnd::SetFocus

; 711  : 			m_pHistoryWnd.m_pList.SetItemState(m_iCurSel,LVIS_SELECTED,LVIS_SELECTED);

  01b4a	6a 02		 push	 2
  01b4c	6a 02		 push	 2
  01b4e	8b 55 d8	 mov	 edx, DWORD PTR _this$[ebp]
  01b51	8b 82 18 03 00
	00		 mov	 eax, DWORD PTR [edx+792]
  01b57	50		 push	 eax
  01b58	8b 4d d8	 mov	 ecx, DWORD PTR _this$[ebp]
  01b5b	81 c1 40 01 00
	00		 add	 ecx, 320		; 00000140H
  01b61	e8 00 00 00 00	 call	 ?SetItemState@CListCtrl@@QAEHHII@Z ; CListCtrl::SetItemState

; 712  : 		}
; 713  : 		else

  01b66	eb 32		 jmp	 SHORT $L198748
$L198750:

; 714  : 		{
; 715  : 			m_pHistoryWnd.ShowWindow(SW_HIDE);

  01b68	6a 00		 push	 0
  01b6a	8b 4d d8	 mov	 ecx, DWORD PTR _this$[ebp]
  01b6d	81 c1 e8 00 00
	00		 add	 ecx, 232		; 000000e8H
  01b73	e8 00 00 00 00	 call	 ?ShowWindow@CWnd@@QAEHH@Z ; CWnd::ShowWindow

; 716  : 			m_pEdit.SetFocus();

  01b78	8b 4d d8	 mov	 ecx, DWORD PTR _this$[ebp]
  01b7b	81 c1 88 00 00
	00		 add	 ecx, 136		; 00000088H
  01b81	e8 00 00 00 00	 call	 ?SetFocus@CWnd@@QAEPAV1@XZ ; CWnd::SetFocus

; 717  : 			m_pEdit.SetSel(0,-1);

  01b86	6a 00		 push	 0
  01b88	6a ff		 push	 -1
  01b8a	6a 00		 push	 0
  01b8c	8b 4d d8	 mov	 ecx, DWORD PTR _this$[ebp]
  01b8f	81 c1 88 00 00
	00		 add	 ecx, 136		; 00000088H
  01b95	e8 00 00 00 00	 call	 ?SetSel@CEdit@@QAEXHHH@Z ; CEdit::SetSel
$L198748:

; 718  : 		}
; 719  : 	}
; 720  : 
; 721  : 	return CWnd::OnCommand(wParam, lParam);

  01b9a	8b 4d 0c	 mov	 ecx, DWORD PTR _lParam$[ebp]
  01b9d	51		 push	 ecx
  01b9e	8b 55 08	 mov	 edx, DWORD PTR _wParam$[ebp]
  01ba1	52		 push	 edx
  01ba2	8b 4d d8	 mov	 ecx, DWORD PTR _this$[ebp]
  01ba5	e8 00 00 00 00	 call	 ?OnCommand@CWnd@@MAEHIJ@Z ; CWnd::OnCommand

; 722  : }

  01baa	8b e5		 mov	 esp, ebp
  01bac	5d		 pop	 ebp
  01bad	c2 08 00	 ret	 8
?OnCommand@CxSkinComboBox@@MAEHIJ@Z ENDP		; CxSkinComboBox::OnCommand
_TEXT	ENDS
PUBLIC	?GetParent@CWnd@@QBEPAV1@XZ			; CWnd::GetParent
EXTRN	?GetDlgCtrlID@CWnd@@QBEHXZ:NEAR			; CWnd::GetDlgCtrlID
; Function compile flags: /Odt
_TEXT	SEGMENT
_this$ = -8						; size = 4
_strText$ = -4						; size = 4
_wParam$ = 8						; size = 4
_lParama$ = 12						; size = 4
?OnListClicked@CxSkinComboBox@@IAEJIJ@Z PROC NEAR	; CxSkinComboBox::OnListClicked
; _this$ = ecx

; 725  : {

  01bb0	55		 push	 ebp
  01bb1	8b ec		 mov	 ebp, esp
  01bb3	83 ec 08	 sub	 esp, 8
  01bb6	89 4d f8	 mov	 DWORD PTR _this$[ebp], ecx

; 726  : 	CString *strText=(CString*)wParam;

  01bb9	8b 45 08	 mov	 eax, DWORD PTR _wParam$[ebp]
  01bbc	89 45 fc	 mov	 DWORD PTR _strText$[ebp], eax

; 727  : 	m_iCurSel=(int)lParama;

  01bbf	8b 4d f8	 mov	 ecx, DWORD PTR _this$[ebp]
  01bc2	8b 55 0c	 mov	 edx, DWORD PTR _lParama$[ebp]
  01bc5	89 91 18 03 00
	00		 mov	 DWORD PTR [ecx+792], edx

; 728  : 	m_pHistoryWnd.ShowWindow(SW_HIDE);

  01bcb	6a 00		 push	 0
  01bcd	8b 4d f8	 mov	 ecx, DWORD PTR _this$[ebp]
  01bd0	81 c1 e8 00 00
	00		 add	 ecx, 232		; 000000e8H
  01bd6	e8 00 00 00 00	 call	 ?ShowWindow@CWnd@@QAEHH@Z ; CWnd::ShowWindow

; 729  : 	m_pEdit.SetWindowText(*strText);

  01bdb	8b 4d fc	 mov	 ecx, DWORD PTR _strText$[ebp]
  01bde	ff 15 00 00 00
	00		 call	 DWORD PTR __imp_??B?$CSimpleStringT@D$00@ATL@@QBEPBDXZ
  01be4	50		 push	 eax
  01be5	8b 4d f8	 mov	 ecx, DWORD PTR _this$[ebp]
  01be8	81 c1 88 00 00
	00		 add	 ecx, 136		; 00000088H
  01bee	e8 00 00 00 00	 call	 ?SetWindowTextA@CWnd@@QAEXPBD@Z ; CWnd::SetWindowTextA

; 730  : 	m_pEdit.SetFocus();

  01bf3	8b 4d f8	 mov	 ecx, DWORD PTR _this$[ebp]
  01bf6	81 c1 88 00 00
	00		 add	 ecx, 136		; 00000088H
  01bfc	e8 00 00 00 00	 call	 ?SetFocus@CWnd@@QAEPAV1@XZ ; CWnd::SetFocus

; 731  : 	m_pEdit.SetSel(0,-1);

  01c01	6a 00		 push	 0
  01c03	6a ff		 push	 -1
  01c05	6a 00		 push	 0
  01c07	8b 4d f8	 mov	 ecx, DWORD PTR _this$[ebp]
  01c0a	81 c1 88 00 00
	00		 add	 ecx, 136		; 00000088H
  01c10	e8 00 00 00 00	 call	 ?SetSel@CEdit@@QAEXHHH@Z ; CEdit::SetSel

; 732  : 	GetParent()->SendMessage(MSG_COMBOBOX_SELECTE_CHANGE,GetDlgCtrlID());

  01c15	6a 00		 push	 0
  01c17	8b 4d f8	 mov	 ecx, DWORD PTR _this$[ebp]
  01c1a	e8 00 00 00 00	 call	 ?GetDlgCtrlID@CWnd@@QBEHXZ ; CWnd::GetDlgCtrlID
  01c1f	50		 push	 eax
  01c20	68 46 16 00 00	 push	 5702			; 00001646H
  01c25	8b 4d f8	 mov	 ecx, DWORD PTR _this$[ebp]
  01c28	e8 00 00 00 00	 call	 ?GetParent@CWnd@@QBEPAV1@XZ ; CWnd::GetParent
  01c2d	8b c8		 mov	 ecx, eax
  01c2f	e8 00 00 00 00	 call	 ?SendMessageA@CWnd@@QAEJIIJ@Z ; CWnd::SendMessageA

; 733  : 	return 0;

  01c34	33 c0		 xor	 eax, eax

; 734  : }

  01c36	8b e5		 mov	 esp, ebp
  01c38	5d		 pop	 ebp
  01c39	c2 08 00	 ret	 8
?OnListClicked@CxSkinComboBox@@IAEJIJ@Z ENDP		; CxSkinComboBox::OnListClicked
; Function compile flags: /Odt
_this$ = -4						; size = 4
_wParam$ = 8						; size = 4
_lParama$ = 12						; size = 4
?OnEditClicked@CxSkinComboBox@@IAEJIJ@Z PROC NEAR	; CxSkinComboBox::OnEditClicked
; _this$ = ecx

; 737  : {

  01c40	55		 push	 ebp
  01c41	8b ec		 mov	 ebp, esp
  01c43	51		 push	 ecx
  01c44	89 4d fc	 mov	 DWORD PTR _this$[ebp], ecx

; 738  : 	m_pHistoryWnd.ShowWindow(SW_HIDE);

  01c47	6a 00		 push	 0
  01c49	8b 4d fc	 mov	 ecx, DWORD PTR _this$[ebp]
  01c4c	81 c1 e8 00 00
	00		 add	 ecx, 232		; 000000e8H
  01c52	e8 00 00 00 00	 call	 ?ShowWindow@CWnd@@QAEHH@Z ; CWnd::ShowWindow

; 739  : 	m_pEdit.SetFocus();

  01c57	8b 4d fc	 mov	 ecx, DWORD PTR _this$[ebp]
  01c5a	81 c1 88 00 00
	00		 add	 ecx, 136		; 00000088H
  01c60	e8 00 00 00 00	 call	 ?SetFocus@CWnd@@QAEPAV1@XZ ; CWnd::SetFocus

; 740  : 	m_pEdit.SetSel(0,-1);

  01c65	6a 00		 push	 0
  01c67	6a ff		 push	 -1
  01c69	6a 00		 push	 0
  01c6b	8b 4d fc	 mov	 ecx, DWORD PTR _this$[ebp]
  01c6e	81 c1 88 00 00
	00		 add	 ecx, 136		; 00000088H
  01c74	e8 00 00 00 00	 call	 ?SetSel@CEdit@@QAEXHHH@Z ; CEdit::SetSel

; 741  : 	return 0;

  01c79	33 c0		 xor	 eax, eax

; 742  : }

  01c7b	8b e5		 mov	 esp, ebp
  01c7d	5d		 pop	 ebp
  01c7e	c2 08 00	 ret	 8
?OnEditClicked@CxSkinComboBox@@IAEJIJ@Z ENDP		; CxSkinComboBox::OnEditClicked
_TEXT	ENDS
PUBLIC	?SetMaxShowLines@CxSkinComboBox@@QAEXH@Z	; CxSkinComboBox::SetMaxShowLines
; Function compile flags: /Odt
_TEXT	SEGMENT
_this$ = -4						; size = 4
_iNum$ = 8						; size = 4
?SetMaxShowLines@CxSkinComboBox@@QAEXH@Z PROC NEAR	; CxSkinComboBox::SetMaxShowLines
; _this$ = ecx

; 745  : {

  01c90	55		 push	 ebp
  01c91	8b ec		 mov	 ebp, esp
  01c93	51		 push	 ecx
  01c94	89 4d fc	 mov	 DWORD PTR _this$[ebp], ecx

; 746  : 	m_iMaxShowLines=iNum;

  01c97	8b 45 fc	 mov	 eax, DWORD PTR _this$[ebp]
  01c9a	8b 4d 08	 mov	 ecx, DWORD PTR _iNum$[ebp]
  01c9d	89 88 1c 03 00
	00		 mov	 DWORD PTR [eax+796], ecx

; 747  : }

  01ca3	8b e5		 mov	 esp, ebp
  01ca5	5d		 pop	 ebp
  01ca6	c2 04 00	 ret	 4
?SetMaxShowLines@CxSkinComboBox@@QAEXH@Z ENDP		; CxSkinComboBox::SetMaxShowLines
_TEXT	ENDS
PUBLIC	??0?$allocator@V?$basic_string@DU?$char_traits@D@std@@V?$allocator@D@2@@std@@@std@@QAE@XZ ; std::allocator<std::basic_string<char,std::char_traits<char>,std::allocator<char> > >::allocator<std::basic_string<char,std::char_traits<char>,std::allocator<char> > >
PUBLIC	??0?$_Vector_val@V?$basic_string@DU?$char_traits@D@std@@V?$allocator@D@2@@std@@V?$allocator@V?$basic_string@DU?$char_traits@D@std@@V?$allocator@D@2@@std@@@2@@std@@IAE@V?$allocator@V?$basic_string@DU?$char_traits@D@std@@V?$allocator@D@2@@std@@@1@@Z ; std::_Vector_val<std::basic_string<char,std::char_traits<char>,std::allocator<char> >,std::allocator<std::basic_string<char,std::char_traits<char>,std::allocator<char> > > >::_Vector_val<std::basic_string<char,std::char_traits<char>,std::allocator<char> >,std::allocator<std::basic_string<char,std::char_traits<char>,std::allocator<char> > > >
PUBLIC	?_Buy@?$vector@V?$basic_string@DU?$char_traits@D@std@@V?$allocator@D@2@@std@@V?$allocator@V?$basic_string@DU?$char_traits@D@std@@V?$allocator@D@2@@std@@@2@@std@@IAE_NI@Z ; std::vector<std::basic_string<char,std::char_traits<char>,std::allocator<char> >,std::allocator<std::basic_string<char,std::char_traits<char>,std::allocator<char> > > >::_Buy
; Function compile flags: /Odt
; File d:\program files (x86)\microsoft visual studio .net 2003\vc7\include\vector
;	COMDAT ??0?$vector@V?$basic_string@DU?$char_traits@D@std@@V?$allocator@D@2@@std@@V?$allocator@V?$basic_string@DU?$char_traits@D@std@@V?$allocator@D@2@@std@@@2@@std@@QAE@XZ
_TEXT	SEGMENT
_this$ = -8						; size = 4
??0?$vector@V?$basic_string@DU?$char_traits@D@std@@V?$allocator@D@2@@std@@V?$allocator@V?$basic_string@DU?$char_traits@D@std@@V?$allocator@D@2@@std@@@2@@std@@QAE@XZ PROC NEAR ; std::vector<std::basic_string<char,std::char_traits<char>,std::allocator<char> >,std::allocator<std::basic_string<char,std::char_traits<char>,std::allocator<char> > > >::vector<std::basic_string<char,std::char_traits<char>,std::allocator<char> >,std::allocator<std::basic_string<char,std::char_traits<char>,std::allocator<char> > > >, COMDAT
; _this$ = ecx

; 299  : 		{	// construct empty vector

  00000	55		 push	 ebp
  00001	8b ec		 mov	 ebp, esp
  00003	83 ec 08	 sub	 esp, 8
  00006	89 4d f8	 mov	 DWORD PTR _this$[ebp], ecx
  00009	51		 push	 ecx
  0000a	8b cc		 mov	 ecx, esp
  0000c	e8 00 00 00 00	 call	 ??0?$allocator@V?$basic_string@DU?$char_traits@D@std@@V?$allocator@D@2@@std@@@std@@QAE@XZ ; std::allocator<std::basic_string<char,std::char_traits<char>,std::allocator<char> > >::allocator<std::basic_string<char,std::char_traits<char>,std::allocator<char> > >
  00011	8b 4d f8	 mov	 ecx, DWORD PTR _this$[ebp]
  00014	e8 00 00 00 00	 call	 ??0?$_Vector_val@V?$basic_string@DU?$char_traits@D@std@@V?$allocator@D@2@@std@@V?$allocator@V?$basic_string@DU?$char_traits@D@std@@V?$allocator@D@2@@std@@@2@@std@@IAE@V?$allocator@V?$basic_string@DU?$char_traits@D@std@@V?$allocator@D@2@@std@@@1@@Z ; std::_Vector_val<std::basic_string<char,std::char_traits<char>,std::allocator<char> >,std::allocator<std::basic_string<char,std::char_traits<char>,std::allocator<char> > > >::_Vector_val<std::basic_string<char,std::char_traits<char>,std::allocator<char> >,std::allocator<std::basic_string<char,std::char_traits<char>,std::allocator<char> > > >

; 300  : 		_Buy(0);

  00019	6a 00		 push	 0
  0001b	8b 4d f8	 mov	 ecx, DWORD PTR _this$[ebp]
  0001e	e8 00 00 00 00	 call	 ?_Buy@?$vector@V?$basic_string@DU?$char_traits@D@std@@V?$allocator@D@2@@std@@V?$allocator@V?$basic_string@DU?$char_traits@D@std@@V?$allocator@D@2@@std@@@2@@std@@IAE_NI@Z ; std::vector<std::basic_string<char,std::char_traits<char>,std::allocator<char> >,std::allocator<std::basic_string<char,std::char_traits<char>,std::allocator<char> > > >::_Buy

; 301  : 		}

  00023	8b 45 f8	 mov	 eax, DWORD PTR _this$[ebp]
  00026	8b e5		 mov	 esp, ebp
  00028	5d		 pop	 ebp
  00029	c3		 ret	 0
??0?$vector@V?$basic_string@DU?$char_traits@D@std@@V?$allocator@D@2@@std@@V?$allocator@V?$basic_string@DU?$char_traits@D@std@@V?$allocator@D@2@@std@@@2@@std@@QAE@XZ ENDP ; std::vector<std::basic_string<char,std::char_traits<char>,std::allocator<char> >,std::allocator<std::basic_string<char,std::char_traits<char>,std::allocator<char> > > >::vector<std::basic_string<char,std::char_traits<char>,std::allocator<char> >,std::allocator<std::basic_string<char,std::char_traits<char>,std::allocator<char> > > >
_TEXT	ENDS
PUBLIC	?_Tidy@?$vector@V?$basic_string@DU?$char_traits@D@std@@V?$allocator@D@2@@std@@V?$allocator@V?$basic_string@DU?$char_traits@D@std@@V?$allocator@D@2@@std@@@2@@std@@IAEXXZ ; std::vector<std::basic_string<char,std::char_traits<char>,std::allocator<char> >,std::allocator<std::basic_string<char,std::char_traits<char>,std::allocator<char> > > >::_Tidy
; Function compile flags: /Odt
;	COMDAT ??1?$vector@V?$basic_string@DU?$char_traits@D@std@@V?$allocator@D@2@@std@@V?$allocator@V?$basic_string@DU?$char_traits@D@std@@V?$allocator@D@2@@std@@@2@@std@@QAE@XZ
_TEXT	SEGMENT
_this$ = -4						; size = 4
??1?$vector@V?$basic_string@DU?$char_traits@D@std@@V?$allocator@D@2@@std@@V?$allocator@V?$basic_string@DU?$char_traits@D@std@@V?$allocator@D@2@@std@@@2@@std@@QAE@XZ PROC NEAR ; std::vector<std::basic_string<char,std::char_traits<char>,std::allocator<char> >,std::allocator<std::basic_string<char,std::char_traits<char>,std::allocator<char> > > >::~vector<std::basic_string<char,std::char_traits<char>,std::allocator<char> >,std::allocator<std::basic_string<char,std::char_traits<char>,std::allocator<char> > > >, COMDAT
; _this$ = ecx

; 387  : 		{	// destroy the object

  00000	55		 push	 ebp
  00001	8b ec		 mov	 ebp, esp
  00003	51		 push	 ecx
  00004	89 4d fc	 mov	 DWORD PTR _this$[ebp], ecx

; 388  : 		_Tidy();

  00007	8b 4d fc	 mov	 ecx, DWORD PTR _this$[ebp]
  0000a	e8 00 00 00 00	 call	 ?_Tidy@?$vector@V?$basic_string@DU?$char_traits@D@std@@V?$allocator@D@2@@std@@V?$allocator@V?$basic_string@DU?$char_traits@D@std@@V?$allocator@D@2@@std@@@2@@std@@IAEXXZ ; std::vector<std::basic_string<char,std::char_traits<char>,std::allocator<char> >,std::allocator<std::basic_string<char,std::char_traits<char>,std::allocator<char> > > >::_Tidy

; 389  : 		}

  0000f	8b e5		 mov	 esp, ebp
  00011	5d		 pop	 ebp
  00012	c3		 ret	 0
??1?$vector@V?$basic_string@DU?$char_traits@D@std@@V?$allocator@D@2@@std@@V?$allocator@V?$basic_string@DU?$char_traits@D@std@@V?$allocator@D@2@@std@@@2@@std@@QAE@XZ ENDP ; std::vector<std::basic_string<char,std::char_traits<char>,std::allocator<char> >,std::allocator<std::basic_string<char,std::char_traits<char>,std::allocator<char> > > >::~vector<std::basic_string<char,std::char_traits<char>,std::allocator<char> >,std::allocator<std::basic_string<char,std::char_traits<char>,std::allocator<char> > > >
; Function compile flags: /Odt
_TEXT	ENDS
;	COMDAT ?size@?$vector@V?$basic_string@DU?$char_traits@D@std@@V?$allocator@D@2@@std@@V?$allocator@V?$basic_string@DU?$char_traits@D@std@@V?$allocator@D@2@@std@@@2@@std@@QBEIXZ
_TEXT	SEGMENT
tv70 = -8						; size = 4
_this$ = -4						; size = 4
?size@?$vector@V?$basic_string@DU?$char_traits@D@std@@V?$allocator@D@2@@std@@V?$allocator@V?$basic_string@DU?$char_traits@D@std@@V?$allocator@D@2@@std@@@2@@std@@QBEIXZ PROC NEAR ; std::vector<std::basic_string<char,std::char_traits<char>,std::allocator<char> >,std::allocator<std::basic_string<char,std::char_traits<char>,std::allocator<char> > > >::size, COMDAT
; _this$ = ecx

; 515  : 		{	// return length of sequence

  00000	55		 push	 ebp
  00001	8b ec		 mov	 ebp, esp
  00003	83 ec 08	 sub	 esp, 8
  00006	89 4d fc	 mov	 DWORD PTR _this$[ebp], ecx

; 516  : 		return (_Myfirst == 0 ? 0 : _Mylast - _Myfirst);

  00009	8b 45 fc	 mov	 eax, DWORD PTR _this$[ebp]
  0000c	83 78 04 00	 cmp	 DWORD PTR [eax+4], 0
  00010	75 09		 jne	 SHORT $L200319
  00012	c7 45 f8 00 00
	00 00		 mov	 DWORD PTR tv70[ebp], 0
  00019	eb 17		 jmp	 SHORT $L200320
$L200319:
  0001b	8b 4d fc	 mov	 ecx, DWORD PTR _this$[ebp]
  0001e	8b 55 fc	 mov	 edx, DWORD PTR _this$[ebp]
  00021	8b 41 08	 mov	 eax, DWORD PTR [ecx+8]
  00024	2b 42 04	 sub	 eax, DWORD PTR [edx+4]
  00027	99		 cdq
  00028	b9 1c 00 00 00	 mov	 ecx, 28			; 0000001cH
  0002d	f7 f9		 idiv	 ecx
  0002f	89 45 f8	 mov	 DWORD PTR tv70[ebp], eax
$L200320:
  00032	8b 45 f8	 mov	 eax, DWORD PTR tv70[ebp]

; 517  : 		}

  00035	8b e5		 mov	 esp, ebp
  00037	5d		 pop	 ebp
  00038	c3		 ret	 0
?size@?$vector@V?$basic_string@DU?$char_traits@D@std@@V?$allocator@D@2@@std@@V?$allocator@V?$basic_string@DU?$char_traits@D@std@@V?$allocator@D@2@@std@@@2@@std@@QBEIXZ ENDP ; std::vector<std::basic_string<char,std::char_traits<char>,std::allocator<char> >,std::allocator<std::basic_string<char,std::char_traits<char>,std::allocator<char> > > >::size
_TEXT	ENDS
PUBLIC	?begin@?$vector@V?$basic_string@DU?$char_traits@D@std@@V?$allocator@D@2@@std@@V?$allocator@V?$basic_string@DU?$char_traits@D@std@@V?$allocator@D@2@@std@@@2@@std@@QAE?AViterator@12@XZ ; std::vector<std::basic_string<char,std::char_traits<char>,std::allocator<char> >,std::allocator<std::basic_string<char,std::char_traits<char>,std::allocator<char> > > >::begin
PUBLIC	??Diterator@?$vector@V?$basic_string@DU?$char_traits@D@std@@V?$allocator@D@2@@std@@V?$allocator@V?$basic_string@DU?$char_traits@D@std@@V?$allocator@D@2@@std@@@2@@std@@QBEAAV?$basic_string@DU?$char_traits@D@std@@V?$allocator@D@2@@2@XZ ; std::vector<std::basic_string<char,std::char_traits<char>,std::allocator<char> >,std::allocator<std::basic_string<char,std::char_traits<char>,std::allocator<char> > > >::iterator::operator*
PUBLIC	??Hiterator@?$vector@V?$basic_string@DU?$char_traits@D@std@@V?$allocator@D@2@@std@@V?$allocator@V?$basic_string@DU?$char_traits@D@std@@V?$allocator@D@2@@std@@@2@@std@@QBE?AV012@H@Z ; std::vector<std::basic_string<char,std::char_traits<char>,std::allocator<char> >,std::allocator<std::basic_string<char,std::char_traits<char>,std::allocator<char> > > >::iterator::operator+
PUBLIC	?_Xran@?$vector@V?$basic_string@DU?$char_traits@D@std@@V?$allocator@D@2@@std@@V?$allocator@V?$basic_string@DU?$char_traits@D@std@@V?$allocator@D@2@@std@@@2@@std@@IBEXXZ ; std::vector<std::basic_string<char,std::char_traits<char>,std::allocator<char> >,std::allocator<std::basic_string<char,std::char_traits<char>,std::allocator<char> > > >::_Xran
; Function compile flags: /Odt
;	COMDAT ?at@?$vector@V?$basic_string@DU?$char_traits@D@std@@V?$allocator@D@2@@std@@V?$allocator@V?$basic_string@DU?$char_traits@D@std@@V?$allocator@D@2@@std@@@2@@std@@QAEAAV?$basic_string@DU?$char_traits@D@std@@V?$allocator@D@2@@2@I@Z
_TEXT	SEGMENT
_this$ = -12						; size = 4
$T200324 = -8						; size = 4
$T200323 = -4						; size = 4
__Pos$ = 8						; size = 4
?at@?$vector@V?$basic_string@DU?$char_traits@D@std@@V?$allocator@D@2@@std@@V?$allocator@V?$basic_string@DU?$char_traits@D@std@@V?$allocator@D@2@@std@@@2@@std@@QAEAAV?$basic_string@DU?$char_traits@D@std@@V?$allocator@D@2@@2@I@Z PROC NEAR ; std::vector<std::basic_string<char,std::char_traits<char>,std::allocator<char> >,std::allocator<std::basic_string<char,std::char_traits<char>,std::allocator<char> > > >::at, COMDAT
; _this$ = ecx

; 542  : 		{	// subscript mutable sequence with checking

  00000	55		 push	 ebp
  00001	8b ec		 mov	 ebp, esp
  00003	83 ec 0c	 sub	 esp, 12			; 0000000cH
  00006	89 4d f4	 mov	 DWORD PTR _this$[ebp], ecx

; 543  : 		if (size() <= _Pos)

  00009	8b 4d f4	 mov	 ecx, DWORD PTR _this$[ebp]
  0000c	e8 00 00 00 00	 call	 ?size@?$vector@V?$basic_string@DU?$char_traits@D@std@@V?$allocator@D@2@@std@@V?$allocator@V?$basic_string@DU?$char_traits@D@std@@V?$allocator@D@2@@std@@@2@@std@@QBEIXZ ; std::vector<std::basic_string<char,std::char_traits<char>,std::allocator<char> >,std::allocator<std::basic_string<char,std::char_traits<char>,std::allocator<char> > > >::size
  00011	3b 45 08	 cmp	 eax, DWORD PTR __Pos$[ebp]
  00014	77 08		 ja	 SHORT $L198840

; 544  : 			_Xran();

  00016	8b 4d f4	 mov	 ecx, DWORD PTR _this$[ebp]
  00019	e8 00 00 00 00	 call	 ?_Xran@?$vector@V?$basic_string@DU?$char_traits@D@std@@V?$allocator@D@2@@std@@V?$allocator@V?$basic_string@DU?$char_traits@D@std@@V?$allocator@D@2@@std@@@2@@std@@IBEXXZ ; std::vector<std::basic_string<char,std::char_traits<char>,std::allocator<char> >,std::allocator<std::basic_string<char,std::char_traits<char>,std::allocator<char> > > >::_Xran
$L198840:

; 545  : 		return (*(begin() + _Pos));

  0001e	8b 45 08	 mov	 eax, DWORD PTR __Pos$[ebp]
  00021	50		 push	 eax
  00022	8d 4d f8	 lea	 ecx, DWORD PTR $T200324[ebp]
  00025	51		 push	 ecx
  00026	8d 55 fc	 lea	 edx, DWORD PTR $T200323[ebp]
  00029	52		 push	 edx
  0002a	8b 4d f4	 mov	 ecx, DWORD PTR _this$[ebp]
  0002d	e8 00 00 00 00	 call	 ?begin@?$vector@V?$basic_string@DU?$char_traits@D@std@@V?$allocator@D@2@@std@@V?$allocator@V?$basic_string@DU?$char_traits@D@std@@V?$allocator@D@2@@std@@@2@@std@@QAE?AViterator@12@XZ ; std::vector<std::basic_string<char,std::char_traits<char>,std::allocator<char> >,std::allocator<std::basic_string<char,std::char_traits<char>,std::allocator<char> > > >::begin
  00032	8b c8		 mov	 ecx, eax
  00034	e8 00 00 00 00	 call	 ??Hiterator@?$vector@V?$basic_string@DU?$char_traits@D@std@@V?$allocator@D@2@@std@@V?$allocator@V?$basic_string@DU?$char_traits@D@std@@V?$allocator@D@2@@std@@@2@@std@@QBE?AV012@H@Z ; std::vector<std::basic_string<char,std::char_traits<char>,std::allocator<char> >,std::allocator<std::basic_string<char,std::char_traits<char>,std::allocator<char> > > >::iterator::operator+
  00039	8b c8		 mov	 ecx, eax
  0003b	e8 00 00 00 00	 call	 ??Diterator@?$vector@V?$basic_string@DU?$char_traits@D@std@@V?$allocator@D@2@@std@@V?$allocator@V?$basic_string@DU?$char_traits@D@std@@V?$allocator@D@2@@std@@@2@@std@@QBEAAV?$basic_string@DU?$char_traits@D@std@@V?$allocator@D@2@@2@XZ ; std::vector<std::basic_string<char,std::char_traits<char>,std::allocator<char> >,std::allocator<std::basic_string<char,std::char_traits<char>,std::allocator<char> > > >::iterator::operator*

; 546  : 		}

  00040	8b e5		 mov	 esp, ebp
  00042	5d		 pop	 ebp
  00043	c2 04 00	 ret	 4
?at@?$vector@V?$basic_string@DU?$char_traits@D@std@@V?$allocator@D@2@@std@@V?$allocator@V?$basic_string@DU?$char_traits@D@std@@V?$allocator@D@2@@std@@@2@@std@@QAEAAV?$basic_string@DU?$char_traits@D@std@@V?$allocator@D@2@@2@I@Z ENDP ; std::vector<std::basic_string<char,std::char_traits<char>,std::allocator<char> >,std::allocator<std::basic_string<char,std::char_traits<char>,std::allocator<char> > > >::at
_TEXT	ENDS
PUBLIC	?capacity@?$vector@V?$basic_string@DU?$char_traits@D@std@@V?$allocator@D@2@@std@@V?$allocator@V?$basic_string@DU?$char_traits@D@std@@V?$allocator@D@2@@std@@@2@@std@@QBEIXZ ; std::vector<std::basic_string<char,std::char_traits<char>,std::allocator<char> >,std::allocator<std::basic_string<char,std::char_traits<char>,std::allocator<char> > > >::capacity
PUBLIC	?end@?$vector@V?$basic_string@DU?$char_traits@D@std@@V?$allocator@D@2@@std@@V?$allocator@V?$basic_string@DU?$char_traits@D@std@@V?$allocator@D@2@@std@@@2@@std@@QAE?AViterator@12@XZ ; std::vector<std::basic_string<char,std::char_traits<char>,std::allocator<char> >,std::allocator<std::basic_string<char,std::char_traits<char>,std::allocator<char> > > >::end
PUBLIC	?insert@?$vector@V?$basic_string@DU?$char_traits@D@std@@V?$allocator@D@2@@std@@V?$allocator@V?$basic_string@DU?$char_traits@D@std@@V?$allocator@D@2@@std@@@2@@std@@QAE?AViterator@12@V312@ABV?$basic_string@DU?$char_traits@D@std@@V?$allocator@D@2@@2@@Z ; std::vector<std::basic_string<char,std::char_traits<char>,std::allocator<char> >,std::allocator<std::basic_string<char,std::char_traits<char>,std::allocator<char> > > >::insert
PUBLIC	?_Ufill@?$vector@V?$basic_string@DU?$char_traits@D@std@@V?$allocator@D@2@@std@@V?$allocator@V?$basic_string@DU?$char_traits@D@std@@V?$allocator@D@2@@std@@@2@@std@@IAEPAV?$basic_string@DU?$char_traits@D@std@@V?$allocator@D@2@@2@PAV32@IABV32@@Z ; std::vector<std::basic_string<char,std::char_traits<char>,std::allocator<char> >,std::allocator<std::basic_string<char,std::char_traits<char>,std::allocator<char> > > >::_Ufill
; Function compile flags: /Odt
;	COMDAT ?push_back@?$vector@V?$basic_string@DU?$char_traits@D@std@@V?$allocator@D@2@@std@@V?$allocator@V?$basic_string@DU?$char_traits@D@std@@V?$allocator@D@2@@std@@@2@@std@@QAEXABV?$basic_string@DU?$char_traits@D@std@@V?$allocator@D@2@@2@@Z
_TEXT	SEGMENT
_this$ = -12						; size = 4
$T200328 = -8						; size = 4
$T200327 = -4						; size = 4
__Val$ = 8						; size = 4
?push_back@?$vector@V?$basic_string@DU?$char_traits@D@std@@V?$allocator@D@2@@std@@V?$allocator@V?$basic_string@DU?$char_traits@D@std@@V?$allocator@D@2@@std@@@2@@std@@QAEXABV?$basic_string@DU?$char_traits@D@std@@V?$allocator@D@2@@2@@Z PROC NEAR ; std::vector<std::basic_string<char,std::char_traits<char>,std::allocator<char> >,std::allocator<std::basic_string<char,std::char_traits<char>,std::allocator<char> > > >::push_back, COMDAT
; _this$ = ecx

; 579  : 		{	// insert element at end

  00000	55		 push	 ebp
  00001	8b ec		 mov	 ebp, esp
  00003	83 ec 0c	 sub	 esp, 12			; 0000000cH
  00006	56		 push	 esi
  00007	89 4d f4	 mov	 DWORD PTR _this$[ebp], ecx

; 580  : 		if (size() < capacity())

  0000a	8b 4d f4	 mov	 ecx, DWORD PTR _this$[ebp]
  0000d	e8 00 00 00 00	 call	 ?size@?$vector@V?$basic_string@DU?$char_traits@D@std@@V?$allocator@D@2@@std@@V?$allocator@V?$basic_string@DU?$char_traits@D@std@@V?$allocator@D@2@@std@@@2@@std@@QBEIXZ ; std::vector<std::basic_string<char,std::char_traits<char>,std::allocator<char> >,std::allocator<std::basic_string<char,std::char_traits<char>,std::allocator<char> > > >::size
  00012	8b f0		 mov	 esi, eax
  00014	8b 4d f4	 mov	 ecx, DWORD PTR _this$[ebp]
  00017	e8 00 00 00 00	 call	 ?capacity@?$vector@V?$basic_string@DU?$char_traits@D@std@@V?$allocator@D@2@@std@@V?$allocator@V?$basic_string@DU?$char_traits@D@std@@V?$allocator@D@2@@std@@@2@@std@@QBEIXZ ; std::vector<std::basic_string<char,std::char_traits<char>,std::allocator<char> >,std::allocator<std::basic_string<char,std::char_traits<char>,std::allocator<char> > > >::capacity
  0001c	3b f0		 cmp	 esi, eax
  0001e	73 1d		 jae	 SHORT $L198961

; 581  : 			_Mylast = _Ufill(_Mylast, 1, _Val);

  00020	8b 45 08	 mov	 eax, DWORD PTR __Val$[ebp]
  00023	50		 push	 eax
  00024	6a 01		 push	 1
  00026	8b 4d f4	 mov	 ecx, DWORD PTR _this$[ebp]
  00029	8b 51 08	 mov	 edx, DWORD PTR [ecx+8]
  0002c	52		 push	 edx
  0002d	8b 4d f4	 mov	 ecx, DWORD PTR _this$[ebp]
  00030	e8 00 00 00 00	 call	 ?_Ufill@?$vector@V?$basic_string@DU?$char_traits@D@std@@V?$allocator@D@2@@std@@V?$allocator@V?$basic_string@DU?$char_traits@D@std@@V?$allocator@D@2@@std@@@2@@std@@IAEPAV?$basic_string@DU?$char_traits@D@std@@V?$allocator@D@2@@2@PAV32@IABV32@@Z ; std::vector<std::basic_string<char,std::char_traits<char>,std::allocator<char> >,std::allocator<std::basic_string<char,std::char_traits<char>,std::allocator<char> > > >::_Ufill
  00035	8b 4d f4	 mov	 ecx, DWORD PTR _this$[ebp]
  00038	89 41 08	 mov	 DWORD PTR [ecx+8], eax

; 582  : 		else

  0003b	eb 1f		 jmp	 SHORT $L198960
$L198961:

; 583  : 			insert(end(), _Val);

  0003d	8b 55 08	 mov	 edx, DWORD PTR __Val$[ebp]
  00040	52		 push	 edx
  00041	8d 45 fc	 lea	 eax, DWORD PTR $T200327[ebp]
  00044	50		 push	 eax
  00045	8b 4d f4	 mov	 ecx, DWORD PTR _this$[ebp]
  00048	e8 00 00 00 00	 call	 ?end@?$vector@V?$basic_string@DU?$char_traits@D@std@@V?$allocator@D@2@@std@@V?$allocator@V?$basic_string@DU?$char_traits@D@std@@V?$allocator@D@2@@std@@@2@@std@@QAE?AViterator@12@XZ ; std::vector<std::basic_string<char,std::char_traits<char>,std::allocator<char> >,std::allocator<std::basic_string<char,std::char_traits<char>,std::allocator<char> > > >::end
  0004d	8b 08		 mov	 ecx, DWORD PTR [eax]
  0004f	51		 push	 ecx
  00050	8d 55 f8	 lea	 edx, DWORD PTR $T200328[ebp]
  00053	52		 push	 edx
  00054	8b 4d f4	 mov	 ecx, DWORD PTR _this$[ebp]
  00057	e8 00 00 00 00	 call	 ?insert@?$vector@V?$basic_string@DU?$char_traits@D@std@@V?$allocator@D@2@@std@@V?$allocator@V?$basic_string@DU?$char_traits@D@std@@V?$allocator@D@2@@std@@@2@@std@@QAE?AViterator@12@V312@ABV?$basic_string@DU?$char_traits@D@std@@V?$allocator@D@2@@2@@Z ; std::vector<std::basic_string<char,std::char_traits<char>,std::allocator<char> >,std::allocator<std::basic_string<char,std::char_traits<char>,std::allocator<char> > > >::insert
$L198960:

; 584  : 		}

  0005c	5e		 pop	 esi
  0005d	8b e5		 mov	 esp, ebp
  0005f	5d		 pop	 ebp
  00060	c2 04 00	 ret	 4
?push_back@?$vector@V?$basic_string@DU?$char_traits@D@std@@V?$allocator@D@2@@std@@V?$allocator@V?$basic_string@DU?$char_traits@D@std@@V?$allocator@D@2@@std@@@2@@std@@QAEXABV?$basic_string@DU?$char_traits@D@std@@V?$allocator@D@2@@2@@Z ENDP ; std::vector<std::basic_string<char,std::char_traits<char>,std::allocator<char> >,std::allocator<std::basic_string<char,std::char_traits<char>,std::allocator<char> > > >::push_back
; Function compile flags: /Odt
_TEXT	ENDS
;	COMDAT ?clear@?$vector@V?$basic_string@DU?$char_traits@D@std@@V?$allocator@D@2@@std@@V?$allocator@V?$basic_string@DU?$char_traits@D@std@@V?$allocator@D@2@@std@@@2@@std@@QAEXXZ
_TEXT	SEGMENT
_this$ = -4						; size = 4
?clear@?$vector@V?$basic_string@DU?$char_traits@D@std@@V?$allocator@D@2@@std@@V?$allocator@V?$basic_string@DU?$char_traits@D@std@@V?$allocator@D@2@@std@@@2@@std@@QAEXXZ PROC NEAR ; std::vector<std::basic_string<char,std::char_traits<char>,std::allocator<char> >,std::allocator<std::basic_string<char,std::char_traits<char>,std::allocator<char> > > >::clear, COMDAT
; _this$ = ecx

; 743  : 		{	// erase all

  00000	55		 push	 ebp
  00001	8b ec		 mov	 ebp, esp
  00003	51		 push	 ecx
  00004	89 4d fc	 mov	 DWORD PTR _this$[ebp], ecx

; 744  : 		_Tidy();

  00007	8b 4d fc	 mov	 ecx, DWORD PTR _this$[ebp]
  0000a	e8 00 00 00 00	 call	 ?_Tidy@?$vector@V?$basic_string@DU?$char_traits@D@std@@V?$allocator@D@2@@std@@V?$allocator@V?$basic_string@DU?$char_traits@D@std@@V?$allocator@D@2@@std@@@2@@std@@IAEXXZ ; std::vector<std::basic_string<char,std::char_traits<char>,std::allocator<char> >,std::allocator<std::basic_string<char,std::char_traits<char>,std::allocator<char> > > >::_Tidy

; 745  : 		}

  0000f	8b e5		 mov	 esp, ebp
  00011	5d		 pop	 ebp
  00012	c3		 ret	 0
?clear@?$vector@V?$basic_string@DU?$char_traits@D@std@@V?$allocator@D@2@@std@@V?$allocator@V?$basic_string@DU?$char_traits@D@std@@V?$allocator@D@2@@std@@@2@@std@@QAEXXZ ENDP ; std::vector<std::basic_string<char,std::char_traits<char>,std::allocator<char> >,std::allocator<std::basic_string<char,std::char_traits<char>,std::allocator<char> > > >::clear
; Function compile flags: /Odt
; File d:\program files (x86)\microsoft visual studio .net 2003\vc7\include\xmemory
_TEXT	ENDS
;	COMDAT ??0?$allocator@V?$basic_string@DU?$char_traits@D@std@@V?$allocator@D@2@@std@@@std@@QAE@XZ
_TEXT	SEGMENT
_this$ = -4						; size = 4
??0?$allocator@V?$basic_string@DU?$char_traits@D@std@@V?$allocator@D@2@@std@@@std@@QAE@XZ PROC NEAR ; std::allocator<std::basic_string<char,std::char_traits<char>,std::allocator<char> > >::allocator<std::basic_string<char,std::char_traits<char>,std::allocator<char> > >, COMDAT
; _this$ = ecx

; 111  : 	allocator()

  00000	55		 push	 ebp
  00001	8b ec		 mov	 ebp, esp
  00003	51		 push	 ecx
  00004	89 4d fc	 mov	 DWORD PTR _this$[ebp], ecx

; 112  : 		{	// construct default allocator (do nothing)
; 113  : 		}

  00007	8b 45 fc	 mov	 eax, DWORD PTR _this$[ebp]
  0000a	8b e5		 mov	 esp, ebp
  0000c	5d		 pop	 ebp
  0000d	c3		 ret	 0
??0?$allocator@V?$basic_string@DU?$char_traits@D@std@@V?$allocator@D@2@@std@@@std@@QAE@XZ ENDP ; std::allocator<std::basic_string<char,std::char_traits<char>,std::allocator<char> > >::allocator<std::basic_string<char,std::char_traits<char>,std::allocator<char> > >
; Function compile flags: /Odt
; File d:\program files (x86)\microsoft visual studio .net 2003\vc7\include\vector
_TEXT	ENDS
;	COMDAT ?capacity@?$vector@V?$basic_string@DU?$char_traits@D@std@@V?$allocator@D@2@@std@@V?$allocator@V?$basic_string@DU?$char_traits@D@std@@V?$allocator@D@2@@std@@@2@@std@@QBEIXZ
_TEXT	SEGMENT
tv70 = -8						; size = 4
_this$ = -4						; size = 4
?capacity@?$vector@V?$basic_string@DU?$char_traits@D@std@@V?$allocator@D@2@@std@@V?$allocator@V?$basic_string@DU?$char_traits@D@std@@V?$allocator@D@2@@std@@@2@@std@@QBEIXZ PROC NEAR ; std::vector<std::basic_string<char,std::char_traits<char>,std::allocator<char> >,std::allocator<std::basic_string<char,std::char_traits<char>,std::allocator<char> > > >::capacity, COMDAT
; _this$ = ecx

; 457  : 		{	// return current length of allocated storage

  00000	55		 push	 ebp
  00001	8b ec		 mov	 ebp, esp
  00003	83 ec 08	 sub	 esp, 8
  00006	89 4d fc	 mov	 DWORD PTR _this$[ebp], ecx

; 458  : 		return (_Myfirst == 0 ? 0 : _Myend - _Myfirst);

  00009	8b 45 fc	 mov	 eax, DWORD PTR _this$[ebp]
  0000c	83 78 04 00	 cmp	 DWORD PTR [eax+4], 0
  00010	75 09		 jne	 SHORT $L200335
  00012	c7 45 f8 00 00
	00 00		 mov	 DWORD PTR tv70[ebp], 0
  00019	eb 17		 jmp	 SHORT $L200336
$L200335:
  0001b	8b 4d fc	 mov	 ecx, DWORD PTR _this$[ebp]
  0001e	8b 55 fc	 mov	 edx, DWORD PTR _this$[ebp]
  00021	8b 41 0c	 mov	 eax, DWORD PTR [ecx+12]
  00024	2b 42 04	 sub	 eax, DWORD PTR [edx+4]
  00027	99		 cdq
  00028	b9 1c 00 00 00	 mov	 ecx, 28			; 0000001cH
  0002d	f7 f9		 idiv	 ecx
  0002f	89 45 f8	 mov	 DWORD PTR tv70[ebp], eax
$L200336:
  00032	8b 45 f8	 mov	 eax, DWORD PTR tv70[ebp]

; 459  : 		}

  00035	8b e5		 mov	 esp, ebp
  00037	5d		 pop	 ebp
  00038	c3		 ret	 0
?capacity@?$vector@V?$basic_string@DU?$char_traits@D@std@@V?$allocator@D@2@@std@@V?$allocator@V?$basic_string@DU?$char_traits@D@std@@V?$allocator@D@2@@std@@@2@@std@@QBEIXZ ENDP ; std::vector<std::basic_string<char,std::char_traits<char>,std::allocator<char> >,std::allocator<std::basic_string<char,std::char_traits<char>,std::allocator<char> > > >::capacity
_TEXT	ENDS
PUBLIC	??0iterator@?$vector@V?$basic_string@DU?$char_traits@D@std@@V?$allocator@D@2@@std@@V?$allocator@V?$basic_string@DU?$char_traits@D@std@@V?$allocator@D@2@@std@@@2@@std@@QAE@PAV?$basic_string@DU?$char_traits@D@std@@V?$allocator@D@2@@2@@Z ; std::vector<std::basic_string<char,std::char_traits<char>,std::allocator<char> >,std::allocator<std::basic_string<char,std::char_traits<char>,std::allocator<char> > > >::iterator::iterator
; Function compile flags: /Odt
;	COMDAT ?begin@?$vector@V?$basic_string@DU?$char_traits@D@std@@V?$allocator@D@2@@std@@V?$allocator@V?$basic_string@DU?$char_traits@D@std@@V?$allocator@D@2@@std@@@2@@std@@QAE?AViterator@12@XZ
_TEXT	SEGMENT
_this$ = -4						; size = 4
___$ReturnUdt$ = 8					; size = 4
?begin@?$vector@V?$basic_string@DU?$char_traits@D@std@@V?$allocator@D@2@@std@@V?$allocator@V?$basic_string@DU?$char_traits@D@std@@V?$allocator@D@2@@std@@@2@@std@@QAE?AViterator@12@XZ PROC NEAR ; std::vector<std::basic_string<char,std::char_traits<char>,std::allocator<char> >,std::allocator<std::basic_string<char,std::char_traits<char>,std::allocator<char> > > >::begin, COMDAT
; _this$ = ecx

; 462  : 		{	// return iterator for beginning of mutable sequence

  00000	55		 push	 ebp
  00001	8b ec		 mov	 ebp, esp
  00003	51		 push	 ecx
  00004	89 4d fc	 mov	 DWORD PTR _this$[ebp], ecx

; 463  : 		return (iterator(_Myfirst));

  00007	8b 45 fc	 mov	 eax, DWORD PTR _this$[ebp]
  0000a	8b 48 04	 mov	 ecx, DWORD PTR [eax+4]
  0000d	51		 push	 ecx
  0000e	8b 4d 08	 mov	 ecx, DWORD PTR ___$ReturnUdt$[ebp]
  00011	e8 00 00 00 00	 call	 ??0iterator@?$vector@V?$basic_string@DU?$char_traits@D@std@@V?$allocator@D@2@@std@@V?$allocator@V?$basic_string@DU?$char_traits@D@std@@V?$allocator@D@2@@std@@@2@@std@@QAE@PAV?$basic_string@DU?$char_traits@D@std@@V?$allocator@D@2@@2@@Z ; std::vector<std::basic_string<char,std::char_traits<char>,std::allocator<char> >,std::allocator<std::basic_string<char,std::char_traits<char>,std::allocator<char> > > >::iterator::iterator
  00016	8b 45 08	 mov	 eax, DWORD PTR ___$ReturnUdt$[ebp]

; 464  : 		}

  00019	8b e5		 mov	 esp, ebp
  0001b	5d		 pop	 ebp
  0001c	c2 04 00	 ret	 4
?begin@?$vector@V?$basic_string@DU?$char_traits@D@std@@V?$allocator@D@2@@std@@V?$allocator@V?$basic_string@DU?$char_traits@D@std@@V?$allocator@D@2@@std@@@2@@std@@QAE?AViterator@12@XZ ENDP ; std::vector<std::basic_string<char,std::char_traits<char>,std::allocator<char> >,std::allocator<std::basic_string<char,std::char_traits<char>,std::allocator<char> > > >::begin
; Function compile flags: /Odt
_TEXT	ENDS
;	COMDAT ?end@?$vector@V?$basic_string@DU?$char_traits@D@std@@V?$allocator@D@2@@std@@V?$allocator@V?$basic_string@DU?$char_traits@D@std@@V?$allocator@D@2@@std@@@2@@std@@QAE?AViterator@12@XZ
_TEXT	SEGMENT
_this$ = -4						; size = 4
___$ReturnUdt$ = 8					; size = 4
?end@?$vector@V?$basic_string@DU?$char_traits@D@std@@V?$allocator@D@2@@std@@V?$allocator@V?$basic_string@DU?$char_traits@D@std@@V?$allocator@D@2@@std@@@2@@std@@QAE?AViterator@12@XZ PROC NEAR ; std::vector<std::basic_string<char,std::char_traits<char>,std::allocator<char> >,std::allocator<std::basic_string<char,std::char_traits<char>,std::allocator<char> > > >::end, COMDAT
; _this$ = ecx

; 472  : 		{	// return iterator for end of mutable sequence

  00000	55		 push	 ebp
  00001	8b ec		 mov	 ebp, esp
  00003	51		 push	 ecx
  00004	89 4d fc	 mov	 DWORD PTR _this$[ebp], ecx

; 473  : 		return (iterator(_Mylast));

  00007	8b 45 fc	 mov	 eax, DWORD PTR _this$[ebp]
  0000a	8b 48 08	 mov	 ecx, DWORD PTR [eax+8]
  0000d	51		 push	 ecx
  0000e	8b 4d 08	 mov	 ecx, DWORD PTR ___$ReturnUdt$[ebp]
  00011	e8 00 00 00 00	 call	 ??0iterator@?$vector@V?$basic_string@DU?$char_traits@D@std@@V?$allocator@D@2@@std@@V?$allocator@V?$basic_string@DU?$char_traits@D@std@@V?$allocator@D@2@@std@@@2@@std@@QAE@PAV?$basic_string@DU?$char_traits@D@std@@V?$allocator@D@2@@2@@Z ; std::vector<std::basic_string<char,std::char_traits<char>,std::allocator<char> >,std::allocator<std::basic_string<char,std::char_traits<char>,std::allocator<char> > > >::iterator::iterator
  00016	8b 45 08	 mov	 eax, DWORD PTR ___$ReturnUdt$[ebp]

; 474  : 		}

  00019	8b e5		 mov	 esp, ebp
  0001b	5d		 pop	 ebp
  0001c	c2 04 00	 ret	 4
?end@?$vector@V?$basic_string@DU?$char_traits@D@std@@V?$allocator@D@2@@std@@V?$allocator@V?$basic_string@DU?$char_traits@D@std@@V?$allocator@D@2@@std@@@2@@std@@QAE?AViterator@12@XZ ENDP ; std::vector<std::basic_string<char,std::char_traits<char>,std::allocator<char> >,std::allocator<std::basic_string<char,std::char_traits<char>,std::allocator<char> > > >::end
_TEXT	ENDS
PUBLIC	??Giterator@?$vector@V?$basic_string@DU?$char_traits@D@std@@V?$allocator@D@2@@std@@V?$allocator@V?$basic_string@DU?$char_traits@D@std@@V?$allocator@D@2@@std@@@2@@std@@QBEHABVconst_iterator@12@@Z ; std::vector<std::basic_string<char,std::char_traits<char>,std::allocator<char> >,std::allocator<std::basic_string<char,std::char_traits<char>,std::allocator<char> > > >::iterator::operator-
PUBLIC	?_Insert_n@?$vector@V?$basic_string@DU?$char_traits@D@std@@V?$allocator@D@2@@std@@V?$allocator@V?$basic_string@DU?$char_traits@D@std@@V?$allocator@D@2@@std@@@2@@std@@IAEXViterator@12@IABV?$basic_string@DU?$char_traits@D@std@@V?$allocator@D@2@@2@@Z ; std::vector<std::basic_string<char,std::char_traits<char>,std::allocator<char> >,std::allocator<std::basic_string<char,std::char_traits<char>,std::allocator<char> > > >::_Insert_n
; Function compile flags: /Odt
;	COMDAT ?insert@?$vector@V?$basic_string@DU?$char_traits@D@std@@V?$allocator@D@2@@std@@V?$allocator@V?$basic_string@DU?$char_traits@D@std@@V?$allocator@D@2@@std@@@2@@std@@QAE?AViterator@12@V312@ABV?$basic_string@DU?$char_traits@D@std@@V?$allocator@D@2@@2@@Z
_TEXT	SEGMENT
tv73 = -20						; size = 4
_this$ = -16						; size = 4
$T200346 = -12						; size = 4
$T200343 = -8						; size = 4
__Off$ = -4						; size = 4
___$ReturnUdt$ = 8					; size = 4
__Where$ = 12						; size = 4
__Val$ = 16						; size = 4
?insert@?$vector@V?$basic_string@DU?$char_traits@D@std@@V?$allocator@D@2@@std@@V?$allocator@V?$basic_string@DU?$char_traits@D@std@@V?$allocator@D@2@@std@@@2@@std@@QAE?AViterator@12@V312@ABV?$basic_string@DU?$char_traits@D@std@@V?$allocator@D@2@@2@@Z PROC NEAR ; std::vector<std::basic_string<char,std::char_traits<char>,std::allocator<char> >,std::allocator<std::basic_string<char,std::char_traits<char>,std::allocator<char> > > >::insert, COMDAT
; _this$ = ecx

; 620  : 		{	// insert _Val at _Where

  00000	55		 push	 ebp
  00001	8b ec		 mov	 ebp, esp
  00003	83 ec 14	 sub	 esp, 20			; 00000014H
  00006	89 4d f0	 mov	 DWORD PTR _this$[ebp], ecx

; 621  : 		size_type _Off = size() == 0 ? 0 : _Where - begin();

  00009	8b 4d f0	 mov	 ecx, DWORD PTR _this$[ebp]
  0000c	e8 00 00 00 00	 call	 ?size@?$vector@V?$basic_string@DU?$char_traits@D@std@@V?$allocator@D@2@@std@@V?$allocator@V?$basic_string@DU?$char_traits@D@std@@V?$allocator@D@2@@std@@@2@@std@@QBEIXZ ; std::vector<std::basic_string<char,std::char_traits<char>,std::allocator<char> >,std::allocator<std::basic_string<char,std::char_traits<char>,std::allocator<char> > > >::size
  00011	85 c0		 test	 eax, eax
  00013	75 09		 jne	 SHORT $L200344
  00015	c7 45 ec 00 00
	00 00		 mov	 DWORD PTR tv73[ebp], 0
  0001c	eb 18		 jmp	 SHORT $L200345
$L200344:
  0001e	8d 45 f8	 lea	 eax, DWORD PTR $T200343[ebp]
  00021	50		 push	 eax
  00022	8b 4d f0	 mov	 ecx, DWORD PTR _this$[ebp]
  00025	e8 00 00 00 00	 call	 ?begin@?$vector@V?$basic_string@DU?$char_traits@D@std@@V?$allocator@D@2@@std@@V?$allocator@V?$basic_string@DU?$char_traits@D@std@@V?$allocator@D@2@@std@@@2@@std@@QAE?AViterator@12@XZ ; std::vector<std::basic_string<char,std::char_traits<char>,std::allocator<char> >,std::allocator<std::basic_string<char,std::char_traits<char>,std::allocator<char> > > >::begin
  0002a	50		 push	 eax
  0002b	8d 4d 0c	 lea	 ecx, DWORD PTR __Where$[ebp]
  0002e	e8 00 00 00 00	 call	 ??Giterator@?$vector@V?$basic_string@DU?$char_traits@D@std@@V?$allocator@D@2@@std@@V?$allocator@V?$basic_string@DU?$char_traits@D@std@@V?$allocator@D@2@@std@@@2@@std@@QBEHABVconst_iterator@12@@Z ; std::vector<std::basic_string<char,std::char_traits<char>,std::allocator<char> >,std::allocator<std::basic_string<char,std::char_traits<char>,std::allocator<char> > > >::iterator::operator-
  00033	89 45 ec	 mov	 DWORD PTR tv73[ebp], eax
$L200345:
  00036	8b 4d ec	 mov	 ecx, DWORD PTR tv73[ebp]
  00039	89 4d fc	 mov	 DWORD PTR __Off$[ebp], ecx

; 622  : 		_Insert_n(_Where, (size_type)1, _Val);

  0003c	8b 55 10	 mov	 edx, DWORD PTR __Val$[ebp]
  0003f	52		 push	 edx
  00040	6a 01		 push	 1
  00042	8b 45 0c	 mov	 eax, DWORD PTR __Where$[ebp]
  00045	50		 push	 eax
  00046	8b 4d f0	 mov	 ecx, DWORD PTR _this$[ebp]
  00049	e8 00 00 00 00	 call	 ?_Insert_n@?$vector@V?$basic_string@DU?$char_traits@D@std@@V?$allocator@D@2@@std@@V?$allocator@V?$basic_string@DU?$char_traits@D@std@@V?$allocator@D@2@@std@@@2@@std@@IAEXViterator@12@IABV?$basic_string@DU?$char_traits@D@std@@V?$allocator@D@2@@2@@Z ; std::vector<std::basic_string<char,std::char_traits<char>,std::allocator<char> >,std::allocator<std::basic_string<char,std::char_traits<char>,std::allocator<char> > > >::_Insert_n

; 623  : 		return (begin() + _Off);

  0004e	8b 4d fc	 mov	 ecx, DWORD PTR __Off$[ebp]
  00051	51		 push	 ecx
  00052	8b 55 08	 mov	 edx, DWORD PTR ___$ReturnUdt$[ebp]
  00055	52		 push	 edx
  00056	8d 45 f4	 lea	 eax, DWORD PTR $T200346[ebp]
  00059	50		 push	 eax
  0005a	8b 4d f0	 mov	 ecx, DWORD PTR _this$[ebp]
  0005d	e8 00 00 00 00	 call	 ?begin@?$vector@V?$basic_string@DU?$char_traits@D@std@@V?$allocator@D@2@@std@@V?$allocator@V?$basic_string@DU?$char_traits@D@std@@V?$allocator@D@2@@std@@@2@@std@@QAE?AViterator@12@XZ ; std::vector<std::basic_string<char,std::char_traits<char>,std::allocator<char> >,std::allocator<std::basic_string<char,std::char_traits<char>,std::allocator<char> > > >::begin
  00062	8b c8		 mov	 ecx, eax
  00064	e8 00 00 00 00	 call	 ??Hiterator@?$vector@V?$basic_string@DU?$char_traits@D@std@@V?$allocator@D@2@@std@@V?$allocator@V?$basic_string@DU?$char_traits@D@std@@V?$allocator@D@2@@std@@@2@@std@@QBE?AV012@H@Z ; std::vector<std::basic_string<char,std::char_traits<char>,std::allocator<char> >,std::allocator<std::basic_string<char,std::char_traits<char>,std::allocator<char> > > >::iterator::operator+
  00069	8b 45 08	 mov	 eax, DWORD PTR ___$ReturnUdt$[ebp]

; 624  : 		}

  0006c	8b e5		 mov	 esp, ebp
  0006e	5d		 pop	 ebp
  0006f	c2 0c 00	 ret	 12			; 0000000cH
?insert@?$vector@V?$basic_string@DU?$char_traits@D@std@@V?$allocator@D@2@@std@@V?$allocator@V?$basic_string@DU?$char_traits@D@std@@V?$allocator@D@2@@std@@@2@@std@@QAE?AViterator@12@V312@ABV?$basic_string@DU?$char_traits@D@std@@V?$allocator@D@2@@2@@Z ENDP ; std::vector<std::basic_string<char,std::char_traits<char>,std::allocator<char> >,std::allocator<std::basic_string<char,std::char_traits<char>,std::allocator<char> > > >::insert
_TEXT	ENDS
PUBLIC	?allocate@?$allocator@V?$basic_string@DU?$char_traits@D@std@@V?$allocator@D@2@@std@@@std@@QAEPAV?$basic_string@DU?$char_traits@D@std@@V?$allocator@D@2@@2@I@Z ; std::allocator<std::basic_string<char,std::char_traits<char>,std::allocator<char> > >::allocate
PUBLIC	?max_size@?$vector@V?$basic_string@DU?$char_traits@D@std@@V?$allocator@D@2@@std@@V?$allocator@V?$basic_string@DU?$char_traits@D@std@@V?$allocator@D@2@@std@@@2@@std@@QBEIXZ ; std::vector<std::basic_string<char,std::char_traits<char>,std::allocator<char> >,std::allocator<std::basic_string<char,std::char_traits<char>,std::allocator<char> > > >::max_size
PUBLIC	?_Xlen@?$vector@V?$basic_string@DU?$char_traits@D@std@@V?$allocator@D@2@@std@@V?$allocator@V?$basic_string@DU?$char_traits@D@std@@V?$allocator@D@2@@std@@@2@@std@@IBEXXZ ; std::vector<std::basic_string<char,std::char_traits<char>,std::allocator<char> >,std::allocator<std::basic_string<char,std::char_traits<char>,std::allocator<char> > > >::_Xlen
; Function compile flags: /Odt
;	COMDAT ?_Buy@?$vector@V?$basic_string@DU?$char_traits@D@std@@V?$allocator@D@2@@std@@V?$allocator@V?$basic_string@DU?$char_traits@D@std@@V?$allocator@D@2@@std@@@2@@std@@IAE_NI@Z
_TEXT	SEGMENT
_this$ = -4						; size = 4
__Capacity$ = 8						; size = 4
?_Buy@?$vector@V?$basic_string@DU?$char_traits@D@std@@V?$allocator@D@2@@std@@V?$allocator@V?$basic_string@DU?$char_traits@D@std@@V?$allocator@D@2@@std@@@2@@std@@IAE_NI@Z PROC NEAR ; std::vector<std::basic_string<char,std::char_traits<char>,std::allocator<char> >,std::allocator<std::basic_string<char,std::char_traits<char>,std::allocator<char> > > >::_Buy, COMDAT
; _this$ = ecx

; 770  : 		{	// allocate array with _Capacity elements

  00000	55		 push	 ebp
  00001	8b ec		 mov	 ebp, esp
  00003	51		 push	 ecx
  00004	89 4d fc	 mov	 DWORD PTR _this$[ebp], ecx

; 771  : 		_Myfirst = 0, _Mylast = 0, _Myend = 0;

  00007	8b 45 fc	 mov	 eax, DWORD PTR _this$[ebp]
  0000a	c7 40 04 00 00
	00 00		 mov	 DWORD PTR [eax+4], 0
  00011	8b 4d fc	 mov	 ecx, DWORD PTR _this$[ebp]
  00014	c7 41 08 00 00
	00 00		 mov	 DWORD PTR [ecx+8], 0
  0001b	8b 55 fc	 mov	 edx, DWORD PTR _this$[ebp]
  0001e	c7 42 0c 00 00
	00 00		 mov	 DWORD PTR [edx+12], 0

; 772  : 		if (_Capacity == 0)

  00025	83 7d 08 00	 cmp	 DWORD PTR __Capacity$[ebp], 0
  00029	75 04		 jne	 SHORT $L199022

; 773  : 			return (false);

  0002b	32 c0		 xor	 al, al
  0002d	eb 49		 jmp	 SHORT $L199021
$L199022:

; 774  : 		else if (max_size() < _Capacity)

  0002f	8b 4d fc	 mov	 ecx, DWORD PTR _this$[ebp]
  00032	e8 00 00 00 00	 call	 ?max_size@?$vector@V?$basic_string@DU?$char_traits@D@std@@V?$allocator@D@2@@std@@V?$allocator@V?$basic_string@DU?$char_traits@D@std@@V?$allocator@D@2@@std@@@2@@std@@QBEIXZ ; std::vector<std::basic_string<char,std::char_traits<char>,std::allocator<char> >,std::allocator<std::basic_string<char,std::char_traits<char>,std::allocator<char> > > >::max_size
  00037	3b 45 08	 cmp	 eax, DWORD PTR __Capacity$[ebp]
  0003a	73 0a		 jae	 SHORT $L199024

; 775  : 			_Xlen();	// result too long

  0003c	8b 4d fc	 mov	 ecx, DWORD PTR _this$[ebp]
  0003f	e8 00 00 00 00	 call	 ?_Xlen@?$vector@V?$basic_string@DU?$char_traits@D@std@@V?$allocator@D@2@@std@@V?$allocator@V?$basic_string@DU?$char_traits@D@std@@V?$allocator@D@2@@std@@@2@@std@@IBEXXZ ; std::vector<std::basic_string<char,std::char_traits<char>,std::allocator<char> >,std::allocator<std::basic_string<char,std::char_traits<char>,std::allocator<char> > > >::_Xlen

; 776  : 		else

  00044	eb 30		 jmp	 SHORT $L199023
$L199024:

; 777  : 			{	// nonempty array, allocate storage
; 778  : 			_Myfirst = this->_Alval.allocate(_Capacity);

  00046	8b 45 08	 mov	 eax, DWORD PTR __Capacity$[ebp]
  00049	50		 push	 eax
  0004a	8b 4d fc	 mov	 ecx, DWORD PTR _this$[ebp]
  0004d	e8 00 00 00 00	 call	 ?allocate@?$allocator@V?$basic_string@DU?$char_traits@D@std@@V?$allocator@D@2@@std@@@std@@QAEPAV?$basic_string@DU?$char_traits@D@std@@V?$allocator@D@2@@2@I@Z ; std::allocator<std::basic_string<char,std::char_traits<char>,std::allocator<char> > >::allocate
  00052	8b 4d fc	 mov	 ecx, DWORD PTR _this$[ebp]
  00055	89 41 04	 mov	 DWORD PTR [ecx+4], eax

; 779  : 			_Mylast = _Myfirst;

  00058	8b 55 fc	 mov	 edx, DWORD PTR _this$[ebp]
  0005b	8b 45 fc	 mov	 eax, DWORD PTR _this$[ebp]
  0005e	8b 48 04	 mov	 ecx, DWORD PTR [eax+4]
  00061	89 4a 08	 mov	 DWORD PTR [edx+8], ecx

; 780  : 			_Myend = _Myfirst + _Capacity;

  00064	8b 55 08	 mov	 edx, DWORD PTR __Capacity$[ebp]
  00067	6b d2 1c	 imul	 edx, 28			; 0000001cH
  0006a	8b 45 fc	 mov	 eax, DWORD PTR _this$[ebp]
  0006d	03 50 04	 add	 edx, DWORD PTR [eax+4]
  00070	8b 4d fc	 mov	 ecx, DWORD PTR _this$[ebp]
  00073	89 51 0c	 mov	 DWORD PTR [ecx+12], edx
$L199023:

; 781  : 			}
; 782  : 		return (true);

  00076	b0 01		 mov	 al, 1
$L199021:

; 783  : 		}

  00078	8b e5		 mov	 esp, ebp
  0007a	5d		 pop	 ebp
  0007b	c2 04 00	 ret	 4
?_Buy@?$vector@V?$basic_string@DU?$char_traits@D@std@@V?$allocator@D@2@@std@@V?$allocator@V?$basic_string@DU?$char_traits@D@std@@V?$allocator@D@2@@std@@@2@@std@@IAE_NI@Z ENDP ; std::vector<std::basic_string<char,std::char_traits<char>,std::allocator<char> >,std::allocator<std::basic_string<char,std::char_traits<char>,std::allocator<char> > > >::_Buy
_TEXT	ENDS
PUBLIC	?deallocate@?$allocator@V?$basic_string@DU?$char_traits@D@std@@V?$allocator@D@2@@std@@@std@@QAEXPAV?$basic_string@DU?$char_traits@D@std@@V?$allocator@D@2@@2@I@Z ; std::allocator<std::basic_string<char,std::char_traits<char>,std::allocator<char> > >::deallocate
PUBLIC	?_Destroy@?$vector@V?$basic_string@DU?$char_traits@D@std@@V?$allocator@D@2@@std@@V?$allocator@V?$basic_string@DU?$char_traits@D@std@@V?$allocator@D@2@@std@@@2@@std@@IAEXPAV?$basic_string@DU?$char_traits@D@std@@V?$allocator@D@2@@2@0@Z ; std::vector<std::basic_string<char,std::char_traits<char>,std::allocator<char> >,std::allocator<std::basic_string<char,std::char_traits<char>,std::allocator<char> > > >::_Destroy
; Function compile flags: /Odt
;	COMDAT ?_Tidy@?$vector@V?$basic_string@DU?$char_traits@D@std@@V?$allocator@D@2@@std@@V?$allocator@V?$basic_string@DU?$char_traits@D@std@@V?$allocator@D@2@@std@@@2@@std@@IAEXXZ
_TEXT	SEGMENT
_this$ = -4						; size = 4
?_Tidy@?$vector@V?$basic_string@DU?$char_traits@D@std@@V?$allocator@D@2@@std@@V?$allocator@V?$basic_string@DU?$char_traits@D@std@@V?$allocator@D@2@@std@@@2@@std@@IAEXXZ PROC NEAR ; std::vector<std::basic_string<char,std::char_traits<char>,std::allocator<char> >,std::allocator<std::basic_string<char,std::char_traits<char>,std::allocator<char> > > >::_Tidy, COMDAT
; _this$ = ecx

; 791  : 		{	// free all storage

  00000	55		 push	 ebp
  00001	8b ec		 mov	 ebp, esp
  00003	51		 push	 ecx
  00004	89 4d fc	 mov	 DWORD PTR _this$[ebp], ecx

; 792  : 		if (_Myfirst != 0)

  00007	8b 45 fc	 mov	 eax, DWORD PTR _this$[ebp]
  0000a	83 78 04 00	 cmp	 DWORD PTR [eax+4], 0
  0000e	74 3c		 je	 SHORT $L199028

; 793  : 			{	// something to free, destroy and deallocate it
; 794  : 			_Destroy(_Myfirst, _Mylast);

  00010	8b 4d fc	 mov	 ecx, DWORD PTR _this$[ebp]
  00013	8b 51 08	 mov	 edx, DWORD PTR [ecx+8]
  00016	52		 push	 edx
  00017	8b 45 fc	 mov	 eax, DWORD PTR _this$[ebp]
  0001a	8b 48 04	 mov	 ecx, DWORD PTR [eax+4]
  0001d	51		 push	 ecx
  0001e	8b 4d fc	 mov	 ecx, DWORD PTR _this$[ebp]
  00021	e8 00 00 00 00	 call	 ?_Destroy@?$vector@V?$basic_string@DU?$char_traits@D@std@@V?$allocator@D@2@@std@@V?$allocator@V?$basic_string@DU?$char_traits@D@std@@V?$allocator@D@2@@std@@@2@@std@@IAEXPAV?$basic_string@DU?$char_traits@D@std@@V?$allocator@D@2@@2@0@Z ; std::vector<std::basic_string<char,std::char_traits<char>,std::allocator<char> >,std::allocator<std::basic_string<char,std::char_traits<char>,std::allocator<char> > > >::_Destroy

; 795  : 			this->_Alval.deallocate(_Myfirst, _Myend - _Myfirst);

  00026	8b 55 fc	 mov	 edx, DWORD PTR _this$[ebp]
  00029	8b 45 fc	 mov	 eax, DWORD PTR _this$[ebp]
  0002c	8b 4a 0c	 mov	 ecx, DWORD PTR [edx+12]
  0002f	2b 48 04	 sub	 ecx, DWORD PTR [eax+4]
  00032	8b c1		 mov	 eax, ecx
  00034	99		 cdq
  00035	b9 1c 00 00 00	 mov	 ecx, 28			; 0000001cH
  0003a	f7 f9		 idiv	 ecx
  0003c	50		 push	 eax
  0003d	8b 55 fc	 mov	 edx, DWORD PTR _this$[ebp]
  00040	8b 42 04	 mov	 eax, DWORD PTR [edx+4]
  00043	50		 push	 eax
  00044	8b 4d fc	 mov	 ecx, DWORD PTR _this$[ebp]
  00047	e8 00 00 00 00	 call	 ?deallocate@?$allocator@V?$basic_string@DU?$char_traits@D@std@@V?$allocator@D@2@@std@@@std@@QAEXPAV?$basic_string@DU?$char_traits@D@std@@V?$allocator@D@2@@2@I@Z ; std::allocator<std::basic_string<char,std::char_traits<char>,std::allocator<char> > >::deallocate
$L199028:

; 796  : 			}
; 797  : 		_Myfirst = 0, _Mylast = 0, _Myend = 0;

  0004c	8b 4d fc	 mov	 ecx, DWORD PTR _this$[ebp]
  0004f	c7 41 04 00 00
	00 00		 mov	 DWORD PTR [ecx+4], 0
  00056	8b 55 fc	 mov	 edx, DWORD PTR _this$[ebp]
  00059	c7 42 08 00 00
	00 00		 mov	 DWORD PTR [edx+8], 0
  00060	8b 45 fc	 mov	 eax, DWORD PTR _this$[ebp]
  00063	c7 40 0c 00 00
	00 00		 mov	 DWORD PTR [eax+12], 0

; 798  : 		}

  0006a	8b e5		 mov	 esp, ebp
  0006c	5d		 pop	 ebp
  0006d	c3		 ret	 0
?_Tidy@?$vector@V?$basic_string@DU?$char_traits@D@std@@V?$allocator@D@2@@std@@V?$allocator@V?$basic_string@DU?$char_traits@D@std@@V?$allocator@D@2@@std@@@2@@std@@IAEXXZ ENDP ; std::vector<std::basic_string<char,std::char_traits<char>,std::allocator<char> >,std::allocator<std::basic_string<char,std::char_traits<char>,std::allocator<char> > > >::_Tidy
_TEXT	ENDS
PUBLIC	??$_Uninitialized_fill_n@PAV?$basic_string@DU?$char_traits@D@std@@V?$allocator@D@2@@std@@IV12@V?$allocator@V?$basic_string@DU?$char_traits@D@std@@V?$allocator@D@2@@std@@@2@@std@@YAXPAV?$basic_string@DU?$char_traits@D@std@@V?$allocator@D@2@@0@IABV10@AAV?$allocator@V?$basic_string@DU?$char_traits@D@std@@V?$allocator@D@2@@std@@@0@@Z ; std::_Uninitialized_fill_n<std::basic_string<char,std::char_traits<char>,std::allocator<char> > *,unsigned int,std::basic_string<char,std::char_traits<char>,std::allocator<char> >,std::allocator<std::basic_string<char,std::char_traits<char>,std::allocator<char> > > >
; Function compile flags: /Odt
;	COMDAT ?_Ufill@?$vector@V?$basic_string@DU?$char_traits@D@std@@V?$allocator@D@2@@std@@V?$allocator@V?$basic_string@DU?$char_traits@D@std@@V?$allocator@D@2@@std@@@2@@std@@IAEPAV?$basic_string@DU?$char_traits@D@std@@V?$allocator@D@2@@2@PAV32@IABV32@@Z
_TEXT	SEGMENT
_this$ = -4						; size = 4
__Ptr$ = 8						; size = 4
__Count$ = 12						; size = 4
__Val$ = 16						; size = 4
?_Ufill@?$vector@V?$basic_string@DU?$char_traits@D@std@@V?$allocator@D@2@@std@@V?$allocator@V?$basic_string@DU?$char_traits@D@std@@V?$allocator@D@2@@std@@@2@@std@@IAEPAV?$basic_string@DU?$char_traits@D@std@@V?$allocator@D@2@@2@PAV32@IABV32@@Z PROC NEAR ; std::vector<std::basic_string<char,std::char_traits<char>,std::allocator<char> >,std::allocator<std::basic_string<char,std::char_traits<char>,std::allocator<char> > > >::_Ufill, COMDAT
; _this$ = ecx

; 877  : 		{	// copy initializing _Count * _Val, using allocator

  00000	55		 push	 ebp
  00001	8b ec		 mov	 ebp, esp
  00003	51		 push	 ecx
  00004	89 4d fc	 mov	 DWORD PTR _this$[ebp], ecx

; 878  : 		_Uninitialized_fill_n(_Ptr, _Count, _Val, this->_Alval);

  00007	8b 45 fc	 mov	 eax, DWORD PTR _this$[ebp]
  0000a	50		 push	 eax
  0000b	8b 4d 10	 mov	 ecx, DWORD PTR __Val$[ebp]
  0000e	51		 push	 ecx
  0000f	8b 55 0c	 mov	 edx, DWORD PTR __Count$[ebp]
  00012	52		 push	 edx
  00013	8b 45 08	 mov	 eax, DWORD PTR __Ptr$[ebp]
  00016	50		 push	 eax
  00017	e8 00 00 00 00	 call	 ??$_Uninitialized_fill_n@PAV?$basic_string@DU?$char_traits@D@std@@V?$allocator@D@2@@std@@IV12@V?$allocator@V?$basic_string@DU?$char_traits@D@std@@V?$allocator@D@2@@std@@@2@@std@@YAXPAV?$basic_string@DU?$char_traits@D@std@@V?$allocator@D@2@@0@IABV10@AAV?$allocator@V?$basic_string@DU?$char_traits@D@std@@V?$allocator@D@2@@std@@@0@@Z ; std::_Uninitialized_fill_n<std::basic_string<char,std::char_traits<char>,std::allocator<char> > *,unsigned int,std::basic_string<char,std::char_traits<char>,std::allocator<char> >,std::allocator<std::basic_string<char,std::char_traits<char>,std::allocator<char> > > >
  0001c	83 c4 10	 add	 esp, 16			; 00000010H

; 879  : 		return (_Ptr + _Count);

  0001f	8b 45 0c	 mov	 eax, DWORD PTR __Count$[ebp]
  00022	6b c0 1c	 imul	 eax, 28			; 0000001cH
  00025	03 45 08	 add	 eax, DWORD PTR __Ptr$[ebp]

; 880  : 		}

  00028	8b e5		 mov	 esp, ebp
  0002a	5d		 pop	 ebp
  0002b	c2 0c 00	 ret	 12			; 0000000cH
?_Ufill@?$vector@V?$basic_string@DU?$char_traits@D@std@@V?$allocator@D@2@@std@@V?$allocator@V?$basic_string@DU?$char_traits@D@std@@V?$allocator@D@2@@std@@@2@@std@@IAEPAV?$basic_string@DU?$char_traits@D@std@@V?$allocator@D@2@@2@PAV32@IABV32@@Z ENDP ; std::vector<std::basic_string<char,std::char_traits<char>,std::allocator<char> >,std::allocator<std::basic_string<char,std::char_traits<char>,std::allocator<char> > > >::_Ufill
_TEXT	ENDS
PUBLIC	__TI3?AVout_of_range@std@@
PUBLIC	__CTA3?AVout_of_range@std@@
PUBLIC	??_R0?AVout_of_range@std@@@8			; std::out_of_range `RTTI Type Descriptor'
PUBLIC	__CT??_R0?AVout_of_range@std@@@8??0out_of_range@std@@QAE@ABV01@@Z40
PUBLIC	??_R0?AVlogic_error@std@@@8			; std::logic_error `RTTI Type Descriptor'
PUBLIC	__CT??_R0?AVlogic_error@std@@@8??0logic_error@std@@QAE@ABV01@@Z40
PUBLIC	??_R0?AVexception@@@8				; exception `RTTI Type Descriptor'
PUBLIC	__CT??_R0?AVexception@@@8??0exception@@QAE@ABV0@@Z12
PUBLIC	??_C@_0BM@NMJKDPPO@invalid?5vector?$DMT?$DO?5subscript?$AA@ ; `string'
PUBLIC	??0logic_error@std@@QAE@ABV01@@Z		; std::logic_error::logic_error
PUBLIC	??0out_of_range@std@@QAE@ABV?$basic_string@DU?$char_traits@D@std@@V?$allocator@D@2@@1@@Z ; std::out_of_range::out_of_range
PUBLIC	??1out_of_range@std@@UAE@XZ			; std::out_of_range::~out_of_range
PUBLIC	??0out_of_range@std@@QAE@ABV01@@Z		; std::out_of_range::out_of_range
EXTRN	??0exception@@QAE@ABV0@@Z:NEAR			; exception::exception
EXTRN	__CxxThrowException@8:NEAR
;	COMDAT xdata$x
xdata$x	SEGMENT
$T200362 DD	0ffffffffH
	DD	FLAT:$L200358
$T200360 DD	019930520H
	DD	01H
	DD	FLAT:$T200362
	DD	2 DUP(00H)
	DD	2 DUP(00H)
xdata$x	ENDS
;	COMDAT ??_C@_0BM@NMJKDPPO@invalid?5vector?$DMT?$DO?5subscript?$AA@
CONST	SEGMENT
??_C@_0BM@NMJKDPPO@invalid?5vector?$DMT?$DO?5subscript?$AA@ DB 'invalid v'
	DB	'ector<T> subscript', 00H			; `string'
CONST	ENDS
;	COMDAT __TI3?AVout_of_range@std@@
xdata$x	SEGMENT
__TI3?AVout_of_range@std@@ DD 00H
	DD	FLAT:??1out_of_range@std@@UAE@XZ
	DD	00H
	DD	FLAT:__CTA3?AVout_of_range@std@@
xdata$x	ENDS
;	COMDAT __CTA3?AVout_of_range@std@@
xdata$x	SEGMENT
__CTA3?AVout_of_range@std@@ DD 03H
	DD	FLAT:__CT??_R0?AVout_of_range@std@@@8??0out_of_range@std@@QAE@ABV01@@Z40
	DD	FLAT:__CT??_R0?AVlogic_error@std@@@8??0logic_error@std@@QAE@ABV01@@Z40
	DD	FLAT:__CT??_R0?AVexception@@@8??0exception@@QAE@ABV0@@Z12
xdata$x	ENDS
;	COMDAT __CT??_R0?AVout_of_range@std@@@8??0out_of_range@std@@QAE@ABV01@@Z40
xdata$x	SEGMENT
__CT??_R0?AVout_of_range@std@@@8??0out_of_range@std@@QAE@ABV01@@Z40 DD 00H
	DD	FLAT:??_R0?AVout_of_range@std@@@8
	DD	00H
	DD	0ffffffffH
	ORG $+4
	DD	028H
	DD	FLAT:??0out_of_range@std@@QAE@ABV01@@Z
xdata$x	ENDS
;	COMDAT ??_R0?AVout_of_range@std@@@8
_DATA	SEGMENT
??_R0?AVout_of_range@std@@@8 DD FLAT:??_7type_info@@6B@	; std::out_of_range `RTTI Type Descriptor'
	DD	00H
	DB	'.?AVout_of_range@std@@', 00H
_DATA	ENDS
;	COMDAT __CT??_R0?AVlogic_error@std@@@8??0logic_error@std@@QAE@ABV01@@Z40
xdata$x	SEGMENT
__CT??_R0?AVlogic_error@std@@@8??0logic_error@std@@QAE@ABV01@@Z40 DD 00H
	DD	FLAT:??_R0?AVlogic_error@std@@@8
	DD	00H
	DD	0ffffffffH
	ORG $+4
	DD	028H
	DD	FLAT:??0logic_error@std@@QAE@ABV01@@Z
xdata$x	ENDS
;	COMDAT ??_R0?AVlogic_error@std@@@8
_DATA	SEGMENT
??_R0?AVlogic_error@std@@@8 DD FLAT:??_7type_info@@6B@	; std::logic_error `RTTI Type Descriptor'
	DD	00H
	DB	'.?AVlogic_error@std@@', 00H
	ORG $-30
	DD	FLAT:??_7type_info@@6B@
	DD	00H
	DB	'.?AVlogic_error@std@@', 00H
_DATA	ENDS
;	COMDAT __CT??_R0?AVexception@@@8??0exception@@QAE@ABV0@@Z12
xdata$x	SEGMENT
__CT??_R0?AVexception@@@8??0exception@@QAE@ABV0@@Z12 DD 00H
	DD	FLAT:??_R0?AVexception@@@8
	DD	00H
	DD	0ffffffffH
	ORG $+4
	DD	0cH
	DD	FLAT:??0exception@@QAE@ABV0@@Z
xdata$x	ENDS
;	COMDAT ??_R0?AVexception@@@8
_DATA	SEGMENT
??_R0?AVexception@@@8 DD FLAT:??_7type_info@@6B@	; exception `RTTI Type Descriptor'
	DD	00H
	DB	'.?AVexception@@', 00H
	ORG $-24
	DD	FLAT:??_7type_info@@6B@
	DD	00H
	DB	'.?AVexception@@', 00H
; Function compile flags: /Odt
_DATA	ENDS
;	COMDAT ?_Xran@?$vector@V?$basic_string@DU?$char_traits@D@std@@V?$allocator@D@2@@std@@V?$allocator@V?$basic_string@DU?$char_traits@D@std@@V?$allocator@D@2@@std@@@2@@std@@IBEXXZ
_TEXT	SEGMENT
_this$ = -84						; size = 4
$T200356 = -80						; size = 28
$T200355 = -52						; size = 40
__$EHRec$ = -12						; size = 12
?_Xran@?$vector@V?$basic_string@DU?$char_traits@D@std@@V?$allocator@D@2@@std@@V?$allocator@V?$basic_string@DU?$char_traits@D@std@@V?$allocator@D@2@@std@@@2@@std@@IBEXXZ PROC NEAR ; std::vector<std::basic_string<char,std::char_traits<char>,std::allocator<char> >,std::allocator<std::basic_string<char,std::char_traits<char>,std::allocator<char> > > >::_Xran, COMDAT
; _this$ = ecx

; 888  : 		{	// report an out_of_range error

  00000	55		 push	 ebp
  00001	8b ec		 mov	 ebp, esp
  00003	6a ff		 push	 -1
  00005	68 00 00 00 00	 push	 __ehhandler$?_Xran@?$vector@V?$basic_string@DU?$char_traits@D@std@@V?$allocator@D@2@@std@@V?$allocator@V?$basic_string@DU?$char_traits@D@std@@V?$allocator@D@2@@std@@@2@@std@@IBEXXZ
  0000a	64 a1 00 00 00
	00		 mov	 eax, DWORD PTR fs:__except_list
  00010	50		 push	 eax
  00011	64 89 25 00 00
	00 00		 mov	 DWORD PTR fs:__except_list, esp
  00018	83 ec 48	 sub	 esp, 72			; 00000048H
  0001b	89 4d ac	 mov	 DWORD PTR _this$[ebp], ecx

; 889  : 		_THROW(out_of_range, "invalid vector<T> subscript");

  0001e	68 00 00 00 00	 push	 OFFSET FLAT:??_C@_0BM@NMJKDPPO@invalid?5vector?$DMT?$DO?5subscript?$AA@
  00023	8d 4d b0	 lea	 ecx, DWORD PTR $T200356[ebp]
  00026	ff 15 00 00 00
	00		 call	 DWORD PTR __imp_??0?$basic_string@DU?$char_traits@D@std@@V?$allocator@D@2@@std@@QAE@PBD@Z
  0002c	c7 45 fc 00 00
	00 00		 mov	 DWORD PTR __$EHRec$[ebp+8], 0
  00033	8d 45 b0	 lea	 eax, DWORD PTR $T200356[ebp]
  00036	50		 push	 eax
  00037	8d 4d cc	 lea	 ecx, DWORD PTR $T200355[ebp]
  0003a	e8 00 00 00 00	 call	 ??0out_of_range@std@@QAE@ABV?$basic_string@DU?$char_traits@D@std@@V?$allocator@D@2@@1@@Z ; std::out_of_range::out_of_range
  0003f	68 00 00 00 00	 push	 OFFSET FLAT:__TI3?AVout_of_range@std@@
  00044	8d 4d cc	 lea	 ecx, DWORD PTR $T200355[ebp]
  00047	51		 push	 ecx
  00048	e8 00 00 00 00	 call	 __CxxThrowException@8
$L200354:

; 890  : 		}

  0004d	8b 4d f4	 mov	 ecx, DWORD PTR __$EHRec$[ebp]
  00050	64 89 0d 00 00
	00 00		 mov	 DWORD PTR fs:__except_list, ecx
  00057	8b e5		 mov	 esp, ebp
  00059	5d		 pop	 ebp
  0005a	c3		 ret	 0
_TEXT	ENDS
;	COMDAT text$x
text$x	SEGMENT
$L200358:
  00000	8d 4d b0	 lea	 ecx, DWORD PTR $T200356[ebp]
  00003	ff 25 00 00 00
	00		 jmp	 DWORD PTR __imp_??1?$basic_string@DU?$char_traits@D@std@@V?$allocator@D@2@@std@@QAE@XZ
__ehhandler$?_Xran@?$vector@V?$basic_string@DU?$char_traits@D@std@@V?$allocator@D@2@@std@@V?$allocator@V?$basic_string@DU?$char_traits@D@std@@V?$allocator@D@2@@std@@@2@@std@@IBEXXZ:
  00009	b8 00 00 00 00	 mov	 eax, OFFSET FLAT:$T200360
  0000e	e9 00 00 00 00	 jmp	 ___CxxFrameHandler
text$x	ENDS
?_Xran@?$vector@V?$basic_string@DU?$char_traits@D@std@@V?$allocator@D@2@@std@@V?$allocator@V?$basic_string@DU?$char_traits@D@std@@V?$allocator@D@2@@std@@@2@@std@@IBEXXZ ENDP ; std::vector<std::basic_string<char,std::char_traits<char>,std::allocator<char> >,std::allocator<std::basic_string<char,std::char_traits<char>,std::allocator<char> > > >::_Xran
PUBLIC	??0?$allocator@V?$basic_string@DU?$char_traits@D@std@@V?$allocator@D@2@@std@@@std@@QAE@ABV01@@Z ; std::allocator<std::basic_string<char,std::char_traits<char>,std::allocator<char> > >::allocator<std::basic_string<char,std::char_traits<char>,std::allocator<char> > >
; Function compile flags: /Odt
;	COMDAT ??0?$_Vector_val@V?$basic_string@DU?$char_traits@D@std@@V?$allocator@D@2@@std@@V?$allocator@V?$basic_string@DU?$char_traits@D@std@@V?$allocator@D@2@@std@@@2@@std@@IAE@V?$allocator@V?$basic_string@DU?$char_traits@D@std@@V?$allocator@D@2@@std@@@1@@Z
_TEXT	SEGMENT
_this$ = -4						; size = 4
__Al$ = 8						; size = 1
??0?$_Vector_val@V?$basic_string@DU?$char_traits@D@std@@V?$allocator@D@2@@std@@V?$allocator@V?$basic_string@DU?$char_traits@D@std@@V?$allocator@D@2@@std@@@2@@std@@IAE@V?$allocator@V?$basic_string@DU?$char_traits@D@std@@V?$allocator@D@2@@std@@@1@@Z PROC NEAR ; std::_Vector_val<std::basic_string<char,std::char_traits<char>,std::allocator<char> >,std::allocator<std::basic_string<char,std::char_traits<char>,std::allocator<char> > > >::_Vector_val<std::basic_string<char,std::char_traits<char>,std::allocator<char> >,std::allocator<std::basic_string<char,std::char_traits<char>,std::allocator<char> > > >, COMDAT
; _this$ = ecx

; 21   : 		{	// construct allocator from _Al

  00000	55		 push	 ebp
  00001	8b ec		 mov	 ebp, esp
  00003	51		 push	 ecx
  00004	89 4d fc	 mov	 DWORD PTR _this$[ebp], ecx
  00007	8d 45 08	 lea	 eax, DWORD PTR __Al$[ebp]
  0000a	50		 push	 eax
  0000b	8b 4d fc	 mov	 ecx, DWORD PTR _this$[ebp]
  0000e	e8 00 00 00 00	 call	 ??0?$allocator@V?$basic_string@DU?$char_traits@D@std@@V?$allocator@D@2@@std@@@std@@QAE@ABV01@@Z ; std::allocator<std::basic_string<char,std::char_traits<char>,std::allocator<char> > >::allocator<std::basic_string<char,std::char_traits<char>,std::allocator<char> > >

; 22   : 		}

  00013	8b 45 fc	 mov	 eax, DWORD PTR _this$[ebp]
  00016	8b e5		 mov	 esp, ebp
  00018	5d		 pop	 ebp
  00019	c2 04 00	 ret	 4
??0?$_Vector_val@V?$basic_string@DU?$char_traits@D@std@@V?$allocator@D@2@@std@@V?$allocator@V?$basic_string@DU?$char_traits@D@std@@V?$allocator@D@2@@std@@@2@@std@@IAE@V?$allocator@V?$basic_string@DU?$char_traits@D@std@@V?$allocator@D@2@@std@@@1@@Z ENDP ; std::_Vector_val<std::basic_string<char,std::char_traits<char>,std::allocator<char> >,std::allocator<std::basic_string<char,std::char_traits<char>,std::allocator<char> > > >::_Vector_val<std::basic_string<char,std::char_traits<char>,std::allocator<char> >,std::allocator<std::basic_string<char,std::char_traits<char>,std::allocator<char> > > >
_TEXT	ENDS
PUBLIC	??Dconst_iterator@?$vector@V?$basic_string@DU?$char_traits@D@std@@V?$allocator@D@2@@std@@V?$allocator@V?$basic_string@DU?$char_traits@D@std@@V?$allocator@D@2@@std@@@2@@std@@QBEABV?$basic_string@DU?$char_traits@D@std@@V?$allocator@D@2@@2@XZ ; std::vector<std::basic_string<char,std::char_traits<char>,std::allocator<char> >,std::allocator<std::basic_string<char,std::char_traits<char>,std::allocator<char> > > >::const_iterator::operator*
; Function compile flags: /Odt
;	COMDAT ??Diterator@?$vector@V?$basic_string@DU?$char_traits@D@std@@V?$allocator@D@2@@std@@V?$allocator@V?$basic_string@DU?$char_traits@D@std@@V?$allocator@D@2@@std@@@2@@std@@QBEAAV?$basic_string@DU?$char_traits@D@std@@V?$allocator@D@2@@2@XZ
_TEXT	SEGMENT
_this$ = -4						; size = 4
??Diterator@?$vector@V?$basic_string@DU?$char_traits@D@std@@V?$allocator@D@2@@std@@V?$allocator@V?$basic_string@DU?$char_traits@D@std@@V?$allocator@D@2@@std@@@2@@std@@QBEAAV?$basic_string@DU?$char_traits@D@std@@V?$allocator@D@2@@2@XZ PROC NEAR ; std::vector<std::basic_string<char,std::char_traits<char>,std::allocator<char> >,std::allocator<std::basic_string<char,std::char_traits<char>,std::allocator<char> > > >::iterator::operator*, COMDAT
; _this$ = ecx

; 219  : 			{	// return designated object

  00000	55		 push	 ebp
  00001	8b ec		 mov	 ebp, esp
  00003	51		 push	 ecx
  00004	89 4d fc	 mov	 DWORD PTR _this$[ebp], ecx

; 220  : 			return ((reference)**(const_iterator *)this);

  00007	8b 4d fc	 mov	 ecx, DWORD PTR _this$[ebp]
  0000a	e8 00 00 00 00	 call	 ??Dconst_iterator@?$vector@V?$basic_string@DU?$char_traits@D@std@@V?$allocator@D@2@@std@@V?$allocator@V?$basic_string@DU?$char_traits@D@std@@V?$allocator@D@2@@std@@@2@@std@@QBEABV?$basic_string@DU?$char_traits@D@std@@V?$allocator@D@2@@2@XZ ; std::vector<std::basic_string<char,std::char_traits<char>,std::allocator<char> >,std::allocator<std::basic_string<char,std::char_traits<char>,std::allocator<char> > > >::const_iterator::operator*

; 221  : 			}

  0000f	8b e5		 mov	 esp, ebp
  00011	5d		 pop	 ebp
  00012	c3		 ret	 0
??Diterator@?$vector@V?$basic_string@DU?$char_traits@D@std@@V?$allocator@D@2@@std@@V?$allocator@V?$basic_string@DU?$char_traits@D@std@@V?$allocator@D@2@@std@@@2@@std@@QBEAAV?$basic_string@DU?$char_traits@D@std@@V?$allocator@D@2@@2@XZ ENDP ; std::vector<std::basic_string<char,std::char_traits<char>,std::allocator<char> >,std::allocator<std::basic_string<char,std::char_traits<char>,std::allocator<char> > > >::iterator::operator*
_TEXT	ENDS
PUBLIC	??Yiterator@?$vector@V?$basic_string@DU?$char_traits@D@std@@V?$allocator@D@2@@std@@V?$allocator@V?$basic_string@DU?$char_traits@D@std@@V?$allocator@D@2@@std@@@2@@std@@QAEAAV012@H@Z ; std::vector<std::basic_string<char,std::char_traits<char>,std::allocator<char> >,std::allocator<std::basic_string<char,std::char_traits<char>,std::allocator<char> > > >::iterator::operator+=
; Function compile flags: /Odt
;	COMDAT ??Hiterator@?$vector@V?$basic_string@DU?$char_traits@D@std@@V?$allocator@D@2@@std@@V?$allocator@V?$basic_string@DU?$char_traits@D@std@@V?$allocator@D@2@@std@@@2@@std@@QBE?AV012@H@Z
_TEXT	SEGMENT
_this$ = -8						; size = 4
__Tmp$ = -4						; size = 4
___$ReturnUdt$ = 8					; size = 4
__Off$ = 12						; size = 4
??Hiterator@?$vector@V?$basic_string@DU?$char_traits@D@std@@V?$allocator@D@2@@std@@V?$allocator@V?$basic_string@DU?$char_traits@D@std@@V?$allocator@D@2@@std@@@2@@std@@QBE?AV012@H@Z PROC NEAR ; std::vector<std::basic_string<char,std::char_traits<char>,std::allocator<char> >,std::allocator<std::basic_string<char,std::char_traits<char>,std::allocator<char> > > >::iterator::operator+, COMDAT
; _this$ = ecx

; 261  : 			{	// return this + integer

  00000	55		 push	 ebp
  00001	8b ec		 mov	 ebp, esp
  00003	83 ec 08	 sub	 esp, 8
  00006	89 4d f8	 mov	 DWORD PTR _this$[ebp], ecx

; 262  : 			iterator _Tmp = *this;

  00009	8b 45 f8	 mov	 eax, DWORD PTR _this$[ebp]
  0000c	8b 08		 mov	 ecx, DWORD PTR [eax]
  0000e	89 4d fc	 mov	 DWORD PTR __Tmp$[ebp], ecx

; 263  : 			return (_Tmp += _Off);

  00011	8b 55 0c	 mov	 edx, DWORD PTR __Off$[ebp]
  00014	52		 push	 edx
  00015	8d 4d fc	 lea	 ecx, DWORD PTR __Tmp$[ebp]
  00018	e8 00 00 00 00	 call	 ??Yiterator@?$vector@V?$basic_string@DU?$char_traits@D@std@@V?$allocator@D@2@@std@@V?$allocator@V?$basic_string@DU?$char_traits@D@std@@V?$allocator@D@2@@std@@@2@@std@@QAEAAV012@H@Z ; std::vector<std::basic_string<char,std::char_traits<char>,std::allocator<char> >,std::allocator<std::basic_string<char,std::char_traits<char>,std::allocator<char> > > >::iterator::operator+=
  0001d	8b 00		 mov	 eax, DWORD PTR [eax]
  0001f	8b 4d 08	 mov	 ecx, DWORD PTR ___$ReturnUdt$[ebp]
  00022	89 01		 mov	 DWORD PTR [ecx], eax
  00024	8b 45 08	 mov	 eax, DWORD PTR ___$ReturnUdt$[ebp]

; 264  : 			}

  00027	8b e5		 mov	 esp, ebp
  00029	5d		 pop	 ebp
  0002a	c2 08 00	 ret	 8
??Hiterator@?$vector@V?$basic_string@DU?$char_traits@D@std@@V?$allocator@D@2@@std@@V?$allocator@V?$basic_string@DU?$char_traits@D@std@@V?$allocator@D@2@@std@@@2@@std@@QBE?AV012@H@Z ENDP ; std::vector<std::basic_string<char,std::char_traits<char>,std::allocator<char> >,std::allocator<std::basic_string<char,std::char_traits<char>,std::allocator<char> > > >::iterator::operator+
; Function compile flags: /Odt
; File d:\program files (x86)\microsoft visual studio .net 2003\vc7\include\xmemory
_TEXT	ENDS
;	COMDAT ??0?$allocator@V?$basic_string@DU?$char_traits@D@std@@V?$allocator@D@2@@std@@@std@@QAE@ABV01@@Z
_TEXT	SEGMENT
_this$ = -4						; size = 4
___formal$ = 8						; size = 4
??0?$allocator@V?$basic_string@DU?$char_traits@D@std@@V?$allocator@D@2@@std@@@std@@QAE@ABV01@@Z PROC NEAR ; std::allocator<std::basic_string<char,std::char_traits<char>,std::allocator<char> > >::allocator<std::basic_string<char,std::char_traits<char>,std::allocator<char> > >, COMDAT
; _this$ = ecx

; 115  : 	allocator(const allocator<_Ty>&)

  00000	55		 push	 ebp
  00001	8b ec		 mov	 ebp, esp
  00003	51		 push	 ecx
  00004	89 4d fc	 mov	 DWORD PTR _this$[ebp], ecx

; 116  : 		{	// construct by copying (do nothing)
; 117  : 		}

  00007	8b 45 fc	 mov	 eax, DWORD PTR _this$[ebp]
  0000a	8b e5		 mov	 esp, ebp
  0000c	5d		 pop	 ebp
  0000d	c2 04 00	 ret	 4
??0?$allocator@V?$basic_string@DU?$char_traits@D@std@@V?$allocator@D@2@@std@@@std@@QAE@ABV01@@Z ENDP ; std::allocator<std::basic_string<char,std::char_traits<char>,std::allocator<char> > >::allocator<std::basic_string<char,std::char_traits<char>,std::allocator<char> > >
_TEXT	ENDS
EXTRN	??3@YAXPAX@Z:NEAR				; operator delete
; Function compile flags: /Odt
;	COMDAT ?deallocate@?$allocator@V?$basic_string@DU?$char_traits@D@std@@V?$allocator@D@2@@std@@@std@@QAEXPAV?$basic_string@DU?$char_traits@D@std@@V?$allocator@D@2@@2@I@Z
_TEXT	SEGMENT
_this$ = -4						; size = 4
__Ptr$ = 8						; size = 4
___formal$ = 12						; size = 4
?deallocate@?$allocator@V?$basic_string@DU?$char_traits@D@std@@V?$allocator@D@2@@std@@@std@@QAEXPAV?$basic_string@DU?$char_traits@D@std@@V?$allocator@D@2@@2@I@Z PROC NEAR ; std::allocator<std::basic_string<char,std::char_traits<char>,std::allocator<char> > >::deallocate, COMDAT
; _this$ = ecx

; 131  : 		{	// deallocate object at _Ptr, ignore size

  00000	55		 push	 ebp
  00001	8b ec		 mov	 ebp, esp
  00003	51		 push	 ecx
  00004	89 4d fc	 mov	 DWORD PTR _this$[ebp], ecx

; 132  : 		operator delete(_Ptr);

  00007	8b 45 08	 mov	 eax, DWORD PTR __Ptr$[ebp]
  0000a	50		 push	 eax
  0000b	e8 00 00 00 00	 call	 ??3@YAXPAX@Z		; operator delete
  00010	83 c4 04	 add	 esp, 4

; 133  : 		}

  00013	8b e5		 mov	 esp, ebp
  00015	5d		 pop	 ebp
  00016	c2 08 00	 ret	 8
?deallocate@?$allocator@V?$basic_string@DU?$char_traits@D@std@@V?$allocator@D@2@@std@@@std@@QAEXPAV?$basic_string@DU?$char_traits@D@std@@V?$allocator@D@2@@2@I@Z ENDP ; std::allocator<std::basic_string<char,std::char_traits<char>,std::allocator<char> > >::deallocate
_TEXT	ENDS
PUBLIC	??$_Allocate@V?$basic_string@DU?$char_traits@D@std@@V?$allocator@D@2@@std@@@std@@YAPAV?$basic_string@DU?$char_traits@D@std@@V?$allocator@D@2@@0@IPAV10@@Z ; std::_Allocate<std::basic_string<char,std::char_traits<char>,std::allocator<char> > >
; Function compile flags: /Odt
;	COMDAT ?allocate@?$allocator@V?$basic_string@DU?$char_traits@D@std@@V?$allocator@D@2@@std@@@std@@QAEPAV?$basic_string@DU?$char_traits@D@std@@V?$allocator@D@2@@2@I@Z
_TEXT	SEGMENT
_this$ = -4						; size = 4
__Count$ = 8						; size = 4
?allocate@?$allocator@V?$basic_string@DU?$char_traits@D@std@@V?$allocator@D@2@@std@@@std@@QAEPAV?$basic_string@DU?$char_traits@D@std@@V?$allocator@D@2@@2@I@Z PROC NEAR ; std::allocator<std::basic_string<char,std::char_traits<char>,std::allocator<char> > >::allocate, COMDAT
; _this$ = ecx

; 136  : 		{	// allocate array of _Count elements

  00000	55		 push	 ebp
  00001	8b ec		 mov	 ebp, esp
  00003	51		 push	 ecx
  00004	89 4d fc	 mov	 DWORD PTR _this$[ebp], ecx

; 137  : 		return (_Allocate(_Count, (pointer)0));

  00007	6a 00		 push	 0
  00009	8b 45 08	 mov	 eax, DWORD PTR __Count$[ebp]
  0000c	50		 push	 eax
  0000d	e8 00 00 00 00	 call	 ??$_Allocate@V?$basic_string@DU?$char_traits@D@std@@V?$allocator@D@2@@std@@@std@@YAPAV?$basic_string@DU?$char_traits@D@std@@V?$allocator@D@2@@0@IPAV10@@Z ; std::_Allocate<std::basic_string<char,std::char_traits<char>,std::allocator<char> > >
  00012	83 c4 08	 add	 esp, 8

; 138  : 		}

  00015	8b e5		 mov	 esp, ebp
  00017	5d		 pop	 ebp
  00018	c2 04 00	 ret	 4
?allocate@?$allocator@V?$basic_string@DU?$char_traits@D@std@@V?$allocator@D@2@@std@@@std@@QAEPAV?$basic_string@DU?$char_traits@D@std@@V?$allocator@D@2@@2@I@Z ENDP ; std::allocator<std::basic_string<char,std::char_traits<char>,std::allocator<char> > >::allocate
_TEXT	ENDS
PUBLIC	?max_size@?$allocator@V?$basic_string@DU?$char_traits@D@std@@V?$allocator@D@2@@std@@@std@@QBEIXZ ; std::allocator<std::basic_string<char,std::char_traits<char>,std::allocator<char> > >::max_size
; Function compile flags: /Odt
; File d:\program files (x86)\microsoft visual studio .net 2003\vc7\include\vector
;	COMDAT ?max_size@?$vector@V?$basic_string@DU?$char_traits@D@std@@V?$allocator@D@2@@std@@V?$allocator@V?$basic_string@DU?$char_traits@D@std@@V?$allocator@D@2@@std@@@2@@std@@QBEIXZ
_TEXT	SEGMENT
_this$ = -4						; size = 4
?max_size@?$vector@V?$basic_string@DU?$char_traits@D@std@@V?$allocator@D@2@@std@@V?$allocator@V?$basic_string@DU?$char_traits@D@std@@V?$allocator@D@2@@std@@@2@@std@@QBEIXZ PROC NEAR ; std::vector<std::basic_string<char,std::char_traits<char>,std::allocator<char> >,std::allocator<std::basic_string<char,std::char_traits<char>,std::allocator<char> > > >::max_size, COMDAT
; _this$ = ecx

; 520  : 		{	// return maximum possible length of sequence

  00000	55		 push	 ebp
  00001	8b ec		 mov	 ebp, esp
  00003	51		 push	 ecx
  00004	89 4d fc	 mov	 DWORD PTR _this$[ebp], ecx

; 521  : 		return (this->_Alval.max_size());

  00007	8b 4d fc	 mov	 ecx, DWORD PTR _this$[ebp]
  0000a	e8 00 00 00 00	 call	 ?max_size@?$allocator@V?$basic_string@DU?$char_traits@D@std@@V?$allocator@D@2@@std@@@std@@QBEIXZ ; std::allocator<std::basic_string<char,std::char_traits<char>,std::allocator<char> > >::max_size

; 522  : 		}

  0000f	8b e5		 mov	 esp, ebp
  00011	5d		 pop	 ebp
  00012	c3		 ret	 0
?max_size@?$vector@V?$basic_string@DU?$char_traits@D@std@@V?$allocator@D@2@@std@@V?$allocator@V?$basic_string@DU?$char_traits@D@std@@V?$allocator@D@2@@std@@@2@@std@@QBEIXZ ENDP ; std::vector<std::basic_string<char,std::char_traits<char>,std::allocator<char> >,std::allocator<std::basic_string<char,std::char_traits<char>,std::allocator<char> > > >::max_size
_TEXT	ENDS
PUBLIC	??$_Destroy_range@V?$basic_string@DU?$char_traits@D@std@@V?$allocator@D@2@@std@@V?$allocator@V?$basic_string@DU?$char_traits@D@std@@V?$allocator@D@2@@std@@@2@@std@@YAXPAV?$basic_string@DU?$char_traits@D@std@@V?$allocator@D@2@@0@0AAV?$allocator@V?$basic_string@DU?$char_traits@D@std@@V?$allocator@D@2@@std@@@0@@Z ; std::_Destroy_range<std::basic_string<char,std::char_traits<char>,std::allocator<char> >,std::allocator<std::basic_string<char,std::char_traits<char>,std::allocator<char> > > >
; Function compile flags: /Odt
;	COMDAT ?_Destroy@?$vector@V?$basic_string@DU?$char_traits@D@std@@V?$allocator@D@2@@std@@V?$allocator@V?$basic_string@DU?$char_traits@D@std@@V?$allocator@D@2@@std@@@2@@std@@IAEXPAV?$basic_string@DU?$char_traits@D@std@@V?$allocator@D@2@@2@0@Z
_TEXT	SEGMENT
_this$ = -4						; size = 4
__First$ = 8						; size = 4
__Last$ = 12						; size = 4
?_Destroy@?$vector@V?$basic_string@DU?$char_traits@D@std@@V?$allocator@D@2@@std@@V?$allocator@V?$basic_string@DU?$char_traits@D@std@@V?$allocator@D@2@@std@@@2@@std@@IAEXPAV?$basic_string@DU?$char_traits@D@std@@V?$allocator@D@2@@2@0@Z PROC NEAR ; std::vector<std::basic_string<char,std::char_traits<char>,std::allocator<char> >,std::allocator<std::basic_string<char,std::char_traits<char>,std::allocator<char> > > >::_Destroy, COMDAT
; _this$ = ecx

; 786  : 		{	// destroy [_First, _Last) using allocator

  00000	55		 push	 ebp
  00001	8b ec		 mov	 ebp, esp
  00003	51		 push	 ecx
  00004	89 4d fc	 mov	 DWORD PTR _this$[ebp], ecx

; 787  : 		_Destroy_range(_First, _Last, this->_Alval);

  00007	8b 45 fc	 mov	 eax, DWORD PTR _this$[ebp]
  0000a	50		 push	 eax
  0000b	8b 4d 0c	 mov	 ecx, DWORD PTR __Last$[ebp]
  0000e	51		 push	 ecx
  0000f	8b 55 08	 mov	 edx, DWORD PTR __First$[ebp]
  00012	52		 push	 edx
  00013	e8 00 00 00 00	 call	 ??$_Destroy_range@V?$basic_string@DU?$char_traits@D@std@@V?$allocator@D@2@@std@@V?$allocator@V?$basic_string@DU?$char_traits@D@std@@V?$allocator@D@2@@std@@@2@@std@@YAXPAV?$basic_string@DU?$char_traits@D@std@@V?$allocator@D@2@@0@0AAV?$allocator@V?$basic_string@DU?$char_traits@D@std@@V?$allocator@D@2@@std@@@0@@Z ; std::_Destroy_range<std::basic_string<char,std::char_traits<char>,std::allocator<char> >,std::allocator<std::basic_string<char,std::char_traits<char>,std::allocator<char> > > >
  00018	83 c4 0c	 add	 esp, 12			; 0000000cH

; 788  : 		}

  0001b	8b e5		 mov	 esp, ebp
  0001d	5d		 pop	 ebp
  0001e	c2 08 00	 ret	 8
?_Destroy@?$vector@V?$basic_string@DU?$char_traits@D@std@@V?$allocator@D@2@@std@@V?$allocator@V?$basic_string@DU?$char_traits@D@std@@V?$allocator@D@2@@std@@@2@@std@@IAEXPAV?$basic_string@DU?$char_traits@D@std@@V?$allocator@D@2@@2@0@Z ENDP ; std::vector<std::basic_string<char,std::char_traits<char>,std::allocator<char> >,std::allocator<std::basic_string<char,std::char_traits<char>,std::allocator<char> > > >::_Destroy
_TEXT	ENDS
PUBLIC	??$_Ucopy@PAV?$basic_string@DU?$char_traits@D@std@@V?$allocator@D@2@@std@@@?$vector@V?$basic_string@DU?$char_traits@D@std@@V?$allocator@D@2@@std@@V?$allocator@V?$basic_string@DU?$char_traits@D@std@@V?$allocator@D@2@@std@@@2@@std@@IAEPAV?$basic_string@DU?$char_traits@D@std@@V?$allocator@D@2@@1@PAV21@00@Z ; std::vector<std::basic_string<char,std::char_traits<char>,std::allocator<char> >,std::allocator<std::basic_string<char,std::char_traits<char>,std::allocator<char> > > >::_Ucopy<std::basic_string<char,std::char_traits<char>,std::allocator<char> > *>
PUBLIC	??$fill@PAV?$basic_string@DU?$char_traits@D@std@@V?$allocator@D@2@@std@@V12@@std@@YAXPAV?$basic_string@DU?$char_traits@D@std@@V?$allocator@D@2@@0@0ABV10@@Z ; std::fill<std::basic_string<char,std::char_traits<char>,std::allocator<char> > *,std::basic_string<char,std::char_traits<char>,std::allocator<char> > >
PUBLIC	??$copy_backward@PAV?$basic_string@DU?$char_traits@D@std@@V?$allocator@D@2@@std@@PAV12@@std@@YAPAV?$basic_string@DU?$char_traits@D@std@@V?$allocator@D@2@@0@PAV10@00@Z ; std::copy_backward<std::basic_string<char,std::char_traits<char>,std::allocator<char> > *,std::basic_string<char,std::char_traits<char>,std::allocator<char> > *>
EXTRN	__imp_??0?$basic_string@DU?$char_traits@D@std@@V?$allocator@D@2@@std@@QAE@ABV01@@Z:NEAR
;	COMDAT xdata$x
xdata$x	SEGMENT
$T200395 DD	0ffffffffH
	DD	FLAT:$L200390
	DD	00H
	DD	00H
	DD	00H
	DD	00H
	DD	00H
	DD	00H
	DD	00H
	DD	00H
$T200397 DD	00H
	DD	00H
	DD	00H
	DD	FLAT:$L200387
$T200398 DD	00H
	DD	00H
	DD	00H
	DD	FLAT:$L200389
$T200396 DD	01H
	DD	01H
	DD	02H
	DD	01H
	DD	FLAT:$T200397
	DD	03H
	DD	03H
	DD	04H
	DD	01H
	DD	FLAT:$T200398
$T200392 DD	019930520H
	DD	05H
	DD	FLAT:$T200395
	DD	02H
	DD	FLAT:$T200396
	DD	2 DUP(00H)
; Function compile flags: /Odt
xdata$x	ENDS
;	COMDAT ?_Insert_n@?$vector@V?$basic_string@DU?$char_traits@D@std@@V?$allocator@D@2@@std@@V?$allocator@V?$basic_string@DU?$char_traits@D@std@@V?$allocator@D@2@@std@@@2@@std@@IAEXViterator@12@IABV?$basic_string@DU?$char_traits@D@std@@V?$allocator@D@2@@2@@Z
_TEXT	SEGMENT
tv244 = -80						; size = 4
tv65 = -76						; size = 4
tv89 = -72						; size = 4
_this$ = -68						; size = 4
__Oldend$199158 = -64					; size = 4
__Newvec$199137 = -60					; size = 4
__Ptr$199138 = -56					; size = 4
__Capacity$ = -52					; size = 4
__Tmp$ = -48						; size = 28
__$ArrayPad$ = -20					; size = 4
__$EHRec$ = -16						; size = 16
__$ReturnAddr$ = 4					; size = 4
__Where$ = 8						; size = 4
__Count$ = 12						; size = 4
__Val$ = 16						; size = 4
?_Insert_n@?$vector@V?$basic_string@DU?$char_traits@D@std@@V?$allocator@D@2@@std@@V?$allocator@V?$basic_string@DU?$char_traits@D@std@@V?$allocator@D@2@@std@@@2@@std@@IAEXViterator@12@IABV?$basic_string@DU?$char_traits@D@std@@V?$allocator@D@2@@2@@Z PROC NEAR ; std::vector<std::basic_string<char,std::char_traits<char>,std::allocator<char> >,std::allocator<std::basic_string<char,std::char_traits<char>,std::allocator<char> > > >::_Insert_n, COMDAT
; _this$ = ecx

; 809  : 		{	// insert _Count * _Val at _Where

  00000	55		 push	 ebp
  00001	8b ec		 mov	 ebp, esp
  00003	6a ff		 push	 -1
  00005	68 00 00 00 00	 push	 __ehhandler$?_Insert_n@?$vector@V?$basic_string@DU?$char_traits@D@std@@V?$allocator@D@2@@std@@V?$allocator@V?$basic_string@DU?$char_traits@D@std@@V?$allocator@D@2@@std@@@2@@std@@IAEXViterator@12@IABV?$basic_string@DU?$char_traits@D@std@@V?$allocator@D@2@@2@@Z
  0000a	64 a1 00 00 00
	00		 mov	 eax, DWORD PTR fs:__except_list
  00010	50		 push	 eax
  00011	64 89 25 00 00
	00 00		 mov	 DWORD PTR fs:__except_list, esp
  00018	51		 push	 ecx
  00019	83 ec 40	 sub	 esp, 64			; 00000040H
  0001c	a1 00 00 00 00	 mov	 eax, DWORD PTR ___security_cookie
  00021	89 45 ec	 mov	 DWORD PTR __$ArrayPad$[ebp], eax
  00024	53		 push	 ebx
  00025	56		 push	 esi
  00026	57		 push	 edi
  00027	89 65 f0	 mov	 DWORD PTR __$EHRec$[ebp], esp
  0002a	89 4d bc	 mov	 DWORD PTR _this$[ebp], ecx

; 810  : 		_Ty _Tmp = _Val;	// in case _Val is in sequence

  0002d	8b 45 10	 mov	 eax, DWORD PTR __Val$[ebp]
  00030	50		 push	 eax
  00031	8d 4d d0	 lea	 ecx, DWORD PTR __Tmp$[ebp]
  00034	ff 15 00 00 00
	00		 call	 DWORD PTR __imp_??0?$basic_string@DU?$char_traits@D@std@@V?$allocator@D@2@@std@@QAE@ABV01@@Z
  0003a	c7 45 fc 00 00
	00 00		 mov	 DWORD PTR __$EHRec$[ebp+12], 0

; 811  : 		size_type _Capacity = capacity();

  00041	8b 4d bc	 mov	 ecx, DWORD PTR _this$[ebp]
  00044	e8 00 00 00 00	 call	 ?capacity@?$vector@V?$basic_string@DU?$char_traits@D@std@@V?$allocator@D@2@@std@@V?$allocator@V?$basic_string@DU?$char_traits@D@std@@V?$allocator@D@2@@std@@@2@@std@@QBEIXZ ; std::vector<std::basic_string<char,std::char_traits<char>,std::allocator<char> >,std::allocator<std::basic_string<char,std::char_traits<char>,std::allocator<char> > > >::capacity
  00049	89 45 cc	 mov	 DWORD PTR __Capacity$[ebp], eax

; 812  : 
; 813  : 		if (_Count == 0)

  0004c	83 7d 0c 00	 cmp	 DWORD PTR __Count$[ebp], 0
  00050	75 05		 jne	 SHORT $L199131

; 814  : 			;
; 815  : 		else if (max_size() - size() < _Count)

  00052	e9 cf 02 00 00	 jmp	 $L199132
$L199131:
  00057	8b 4d bc	 mov	 ecx, DWORD PTR _this$[ebp]
  0005a	e8 00 00 00 00	 call	 ?size@?$vector@V?$basic_string@DU?$char_traits@D@std@@V?$allocator@D@2@@std@@V?$allocator@V?$basic_string@DU?$char_traits@D@std@@V?$allocator@D@2@@std@@@2@@std@@QBEIXZ ; std::vector<std::basic_string<char,std::char_traits<char>,std::allocator<char> >,std::allocator<std::basic_string<char,std::char_traits<char>,std::allocator<char> > > >::size
  0005f	8b f0		 mov	 esi, eax
  00061	8b 4d bc	 mov	 ecx, DWORD PTR _this$[ebp]
  00064	e8 00 00 00 00	 call	 ?max_size@?$vector@V?$basic_string@DU?$char_traits@D@std@@V?$allocator@D@2@@std@@V?$allocator@V?$basic_string@DU?$char_traits@D@std@@V?$allocator@D@2@@std@@@2@@std@@QBEIXZ ; std::vector<std::basic_string<char,std::char_traits<char>,std::allocator<char> >,std::allocator<std::basic_string<char,std::char_traits<char>,std::allocator<char> > > >::max_size
  00069	2b c6		 sub	 eax, esi
  0006b	3b 45 0c	 cmp	 eax, DWORD PTR __Count$[ebp]
  0006e	73 0d		 jae	 SHORT $L199133

; 816  : 			_Xlen();	// result too long

  00070	8b 4d bc	 mov	 ecx, DWORD PTR _this$[ebp]
  00073	e8 00 00 00 00	 call	 ?_Xlen@?$vector@V?$basic_string@DU?$char_traits@D@std@@V?$allocator@D@2@@std@@V?$allocator@V?$basic_string@DU?$char_traits@D@std@@V?$allocator@D@2@@std@@@2@@std@@IBEXXZ ; std::vector<std::basic_string<char,std::char_traits<char>,std::allocator<char> >,std::allocator<std::basic_string<char,std::char_traits<char>,std::allocator<char> > > >::_Xlen

; 817  : 		else if (_Capacity < size() + _Count)

  00078	e9 a9 02 00 00	 jmp	 $L199132
$L199133:
  0007d	8b 4d bc	 mov	 ecx, DWORD PTR _this$[ebp]
  00080	e8 00 00 00 00	 call	 ?size@?$vector@V?$basic_string@DU?$char_traits@D@std@@V?$allocator@D@2@@std@@V?$allocator@V?$basic_string@DU?$char_traits@D@std@@V?$allocator@D@2@@std@@@2@@std@@QBEIXZ ; std::vector<std::basic_string<char,std::char_traits<char>,std::allocator<char> >,std::allocator<std::basic_string<char,std::char_traits<char>,std::allocator<char> > > >::size
  00085	03 45 0c	 add	 eax, DWORD PTR __Count$[ebp]
  00088	39 45 cc	 cmp	 DWORD PTR __Capacity$[ebp], eax
  0008b	0f 83 68 01 00
	00		 jae	 $L199135

; 818  : 			{	// not enough room, reallocate
; 819  : 			_Capacity = max_size() - _Capacity / 2 < _Capacity
; 820  : 				? 0 : _Capacity + _Capacity / 2;	// try to grow by 50%

  00091	8b 75 cc	 mov	 esi, DWORD PTR __Capacity$[ebp]
  00094	d1 ee		 shr	 esi, 1
  00096	8b 4d bc	 mov	 ecx, DWORD PTR _this$[ebp]
  00099	e8 00 00 00 00	 call	 ?max_size@?$vector@V?$basic_string@DU?$char_traits@D@std@@V?$allocator@D@2@@std@@V?$allocator@V?$basic_string@DU?$char_traits@D@std@@V?$allocator@D@2@@std@@@2@@std@@QBEIXZ ; std::vector<std::basic_string<char,std::char_traits<char>,std::allocator<char> >,std::allocator<std::basic_string<char,std::char_traits<char>,std::allocator<char> > > >::max_size
  0009e	2b c6		 sub	 eax, esi
  000a0	3b 45 cc	 cmp	 eax, DWORD PTR __Capacity$[ebp]
  000a3	73 09		 jae	 SHORT $L200384
  000a5	c7 45 b8 00 00
	00 00		 mov	 DWORD PTR tv89[ebp], 0
  000ac	eb 0b		 jmp	 SHORT $L200385
$L200384:
  000ae	8b 4d cc	 mov	 ecx, DWORD PTR __Capacity$[ebp]
  000b1	d1 e9		 shr	 ecx, 1
  000b3	03 4d cc	 add	 ecx, DWORD PTR __Capacity$[ebp]
  000b6	89 4d b8	 mov	 DWORD PTR tv89[ebp], ecx
$L200385:
  000b9	8b 55 b8	 mov	 edx, DWORD PTR tv89[ebp]
  000bc	89 55 cc	 mov	 DWORD PTR __Capacity$[ebp], edx

; 821  : 			if (_Capacity < size() + _Count)

  000bf	8b 4d bc	 mov	 ecx, DWORD PTR _this$[ebp]
  000c2	e8 00 00 00 00	 call	 ?size@?$vector@V?$basic_string@DU?$char_traits@D@std@@V?$allocator@D@2@@std@@V?$allocator@V?$basic_string@DU?$char_traits@D@std@@V?$allocator@D@2@@std@@@2@@std@@QBEIXZ ; std::vector<std::basic_string<char,std::char_traits<char>,std::allocator<char> >,std::allocator<std::basic_string<char,std::char_traits<char>,std::allocator<char> > > >::size
  000c7	03 45 0c	 add	 eax, DWORD PTR __Count$[ebp]
  000ca	39 45 cc	 cmp	 DWORD PTR __Capacity$[ebp], eax
  000cd	73 0e		 jae	 SHORT $L199136

; 822  : 				_Capacity = size() + _Count;

  000cf	8b 4d bc	 mov	 ecx, DWORD PTR _this$[ebp]
  000d2	e8 00 00 00 00	 call	 ?size@?$vector@V?$basic_string@DU?$char_traits@D@std@@V?$allocator@D@2@@std@@V?$allocator@V?$basic_string@DU?$char_traits@D@std@@V?$allocator@D@2@@std@@@2@@std@@QBEIXZ ; std::vector<std::basic_string<char,std::char_traits<char>,std::allocator<char> >,std::allocator<std::basic_string<char,std::char_traits<char>,std::allocator<char> > > >::size
  000d7	03 45 0c	 add	 eax, DWORD PTR __Count$[ebp]
  000da	89 45 cc	 mov	 DWORD PTR __Capacity$[ebp], eax
$L199136:

; 823  : 			pointer _Newvec = this->_Alval.allocate(_Capacity);

  000dd	8b 45 cc	 mov	 eax, DWORD PTR __Capacity$[ebp]
  000e0	50		 push	 eax
  000e1	8b 4d bc	 mov	 ecx, DWORD PTR _this$[ebp]
  000e4	e8 00 00 00 00	 call	 ?allocate@?$allocator@V?$basic_string@DU?$char_traits@D@std@@V?$allocator@D@2@@std@@@std@@QAEPAV?$basic_string@DU?$char_traits@D@std@@V?$allocator@D@2@@2@I@Z ; std::allocator<std::basic_string<char,std::char_traits<char>,std::allocator<char> > >::allocate
  000e9	89 45 c4	 mov	 DWORD PTR __Newvec$199137[ebp], eax

; 824  : 			pointer _Ptr = _Newvec;

  000ec	8b 4d c4	 mov	 ecx, DWORD PTR __Newvec$199137[ebp]
  000ef	89 4d c8	 mov	 DWORD PTR __Ptr$199138[ebp], ecx

; 825  : 
; 826  : 			_TRY_BEGIN

  000f2	c6 45 fc 01	 mov	 BYTE PTR __$EHRec$[ebp+12], 1

; 827  : 			_Ptr = _Ucopy(_Myfirst, _ITER_BASE(_Where),
; 828  : 				_Newvec);	// copy prefix

  000f6	8b 55 c4	 mov	 edx, DWORD PTR __Newvec$199137[ebp]
  000f9	52		 push	 edx
  000fa	8b 45 08	 mov	 eax, DWORD PTR __Where$[ebp]
  000fd	50		 push	 eax
  000fe	8b 4d bc	 mov	 ecx, DWORD PTR _this$[ebp]
  00101	8b 51 04	 mov	 edx, DWORD PTR [ecx+4]
  00104	52		 push	 edx
  00105	8b 4d bc	 mov	 ecx, DWORD PTR _this$[ebp]
  00108	e8 00 00 00 00	 call	 ??$_Ucopy@PAV?$basic_string@DU?$char_traits@D@std@@V?$allocator@D@2@@std@@@?$vector@V?$basic_string@DU?$char_traits@D@std@@V?$allocator@D@2@@std@@V?$allocator@V?$basic_string@DU?$char_traits@D@std@@V?$allocator@D@2@@std@@@2@@std@@IAEPAV?$basic_string@DU?$char_traits@D@std@@V?$allocator@D@2@@1@PAV21@00@Z ; std::vector<std::basic_string<char,std::char_traits<char>,std::allocator<char> >,std::allocator<std::basic_string<char,std::char_traits<char>,std::allocator<char> > > >::_Ucopy<std::basic_string<char,std::char_traits<char>,std::allocator<char> > *>
  0010d	89 45 b4	 mov	 DWORD PTR tv65[ebp], eax
  00110	8b 45 b4	 mov	 eax, DWORD PTR tv65[ebp]
  00113	89 45 c8	 mov	 DWORD PTR __Ptr$199138[ebp], eax

; 829  : 			_Ptr = _Ufill(_Ptr, _Count, _Tmp);	// add new stuff

  00116	8d 4d d0	 lea	 ecx, DWORD PTR __Tmp$[ebp]
  00119	51		 push	 ecx
  0011a	8b 55 0c	 mov	 edx, DWORD PTR __Count$[ebp]
  0011d	52		 push	 edx
  0011e	8b 45 c8	 mov	 eax, DWORD PTR __Ptr$199138[ebp]
  00121	50		 push	 eax
  00122	8b 4d bc	 mov	 ecx, DWORD PTR _this$[ebp]
  00125	e8 00 00 00 00	 call	 ?_Ufill@?$vector@V?$basic_string@DU?$char_traits@D@std@@V?$allocator@D@2@@std@@V?$allocator@V?$basic_string@DU?$char_traits@D@std@@V?$allocator@D@2@@std@@@2@@std@@IAEPAV?$basic_string@DU?$char_traits@D@std@@V?$allocator@D@2@@2@PAV32@IABV32@@Z ; std::vector<std::basic_string<char,std::char_traits<char>,std::allocator<char> >,std::allocator<std::basic_string<char,std::char_traits<char>,std::allocator<char> > > >::_Ufill
  0012a	89 45 b0	 mov	 DWORD PTR tv244[ebp], eax
  0012d	8b 4d b0	 mov	 ecx, DWORD PTR tv244[ebp]
  00130	89 4d c8	 mov	 DWORD PTR __Ptr$199138[ebp], ecx

; 830  : 			_Ucopy(_ITER_BASE(_Where), _Mylast, _Ptr);	// copy suffix

  00133	8b 55 c8	 mov	 edx, DWORD PTR __Ptr$199138[ebp]
  00136	52		 push	 edx
  00137	8b 45 bc	 mov	 eax, DWORD PTR _this$[ebp]
  0013a	8b 48 08	 mov	 ecx, DWORD PTR [eax+8]
  0013d	51		 push	 ecx
  0013e	8b 55 08	 mov	 edx, DWORD PTR __Where$[ebp]
  00141	52		 push	 edx
  00142	8b 4d bc	 mov	 ecx, DWORD PTR _this$[ebp]
  00145	e8 00 00 00 00	 call	 ??$_Ucopy@PAV?$basic_string@DU?$char_traits@D@std@@V?$allocator@D@2@@std@@@?$vector@V?$basic_string@DU?$char_traits@D@std@@V?$allocator@D@2@@std@@V?$allocator@V?$basic_string@DU?$char_traits@D@std@@V?$allocator@D@2@@std@@@2@@std@@IAEPAV?$basic_string@DU?$char_traits@D@std@@V?$allocator@D@2@@1@PAV21@00@Z ; std::vector<std::basic_string<char,std::char_traits<char>,std::allocator<char> >,std::allocator<std::basic_string<char,std::char_traits<char>,std::allocator<char> > > >::_Ucopy<std::basic_string<char,std::char_traits<char>,std::allocator<char> > *>
  0014a	eb 29		 jmp	 SHORT $L200386
$L200387:

; 831  : 			_CATCH_ALL
; 832  : 			_Destroy(_Newvec, _Ptr);

  0014c	8b 45 c8	 mov	 eax, DWORD PTR __Ptr$199138[ebp]
  0014f	50		 push	 eax
  00150	8b 4d c4	 mov	 ecx, DWORD PTR __Newvec$199137[ebp]
  00153	51		 push	 ecx
  00154	8b 4d bc	 mov	 ecx, DWORD PTR _this$[ebp]
  00157	e8 00 00 00 00	 call	 ?_Destroy@?$vector@V?$basic_string@DU?$char_traits@D@std@@V?$allocator@D@2@@std@@V?$allocator@V?$basic_string@DU?$char_traits@D@std@@V?$allocator@D@2@@std@@@2@@std@@IAEXPAV?$basic_string@DU?$char_traits@D@std@@V?$allocator@D@2@@2@0@Z ; std::vector<std::basic_string<char,std::char_traits<char>,std::allocator<char> >,std::allocator<std::basic_string<char,std::char_traits<char>,std::allocator<char> > > >::_Destroy

; 833  : 			this->_Alval.deallocate(_Newvec, _Capacity);

  0015c	8b 55 cc	 mov	 edx, DWORD PTR __Capacity$[ebp]
  0015f	52		 push	 edx
  00160	8b 45 c4	 mov	 eax, DWORD PTR __Newvec$199137[ebp]
  00163	50		 push	 eax
  00164	8b 4d bc	 mov	 ecx, DWORD PTR _this$[ebp]
  00167	e8 00 00 00 00	 call	 ?deallocate@?$allocator@V?$basic_string@DU?$char_traits@D@std@@V?$allocator@D@2@@std@@@std@@QAEXPAV?$basic_string@DU?$char_traits@D@std@@V?$allocator@D@2@@2@I@Z ; std::allocator<std::basic_string<char,std::char_traits<char>,std::allocator<char> > >::deallocate

; 834  : 			_RERAISE;

  0016c	6a 00		 push	 0
  0016e	6a 00		 push	 0
  00170	e8 00 00 00 00	 call	 __CxxThrowException@8
$L200386:

; 835  : 			_CATCH_END

  00175	c7 45 fc 00 00
	00 00		 mov	 DWORD PTR __$EHRec$[ebp+12], 0

; 836  : 
; 837  : 			_Count += size();

  0017c	8b 4d bc	 mov	 ecx, DWORD PTR _this$[ebp]
  0017f	e8 00 00 00 00	 call	 ?size@?$vector@V?$basic_string@DU?$char_traits@D@std@@V?$allocator@D@2@@std@@V?$allocator@V?$basic_string@DU?$char_traits@D@std@@V?$allocator@D@2@@std@@@2@@std@@QBEIXZ ; std::vector<std::basic_string<char,std::char_traits<char>,std::allocator<char> >,std::allocator<std::basic_string<char,std::char_traits<char>,std::allocator<char> > > >::size
  00184	03 45 0c	 add	 eax, DWORD PTR __Count$[ebp]
  00187	89 45 0c	 mov	 DWORD PTR __Count$[ebp], eax

; 838  : 			if (_Myfirst != 0)

  0018a	8b 4d bc	 mov	 ecx, DWORD PTR _this$[ebp]
  0018d	83 79 04 00	 cmp	 DWORD PTR [ecx+4], 0
  00191	74 3a		 je	 SHORT $L199145

; 839  : 				{	// destroy and deallocate old array
; 840  : 				_Destroy(_Myfirst, _Mylast);

  00193	8b 55 bc	 mov	 edx, DWORD PTR _this$[ebp]
  00196	8b 42 08	 mov	 eax, DWORD PTR [edx+8]
  00199	50		 push	 eax
  0019a	8b 4d bc	 mov	 ecx, DWORD PTR _this$[ebp]
  0019d	8b 51 04	 mov	 edx, DWORD PTR [ecx+4]
  001a0	52		 push	 edx
  001a1	8b 4d bc	 mov	 ecx, DWORD PTR _this$[ebp]
  001a4	e8 00 00 00 00	 call	 ?_Destroy@?$vector@V?$basic_string@DU?$char_traits@D@std@@V?$allocator@D@2@@std@@V?$allocator@V?$basic_string@DU?$char_traits@D@std@@V?$allocator@D@2@@std@@@2@@std@@IAEXPAV?$basic_string@DU?$char_traits@D@std@@V?$allocator@D@2@@2@0@Z ; std::vector<std::basic_string<char,std::char_traits<char>,std::allocator<char> >,std::allocator<std::basic_string<char,std::char_traits<char>,std::allocator<char> > > >::_Destroy

; 841  : 				this->_Alval.deallocate(_Myfirst, _Myend - _Myfirst);

  001a9	8b 45 bc	 mov	 eax, DWORD PTR _this$[ebp]
  001ac	8b 4d bc	 mov	 ecx, DWORD PTR _this$[ebp]
  001af	8b 40 0c	 mov	 eax, DWORD PTR [eax+12]
  001b2	2b 41 04	 sub	 eax, DWORD PTR [ecx+4]
  001b5	99		 cdq
  001b6	b9 1c 00 00 00	 mov	 ecx, 28			; 0000001cH
  001bb	f7 f9		 idiv	 ecx
  001bd	50		 push	 eax
  001be	8b 55 bc	 mov	 edx, DWORD PTR _this$[ebp]
  001c1	8b 42 04	 mov	 eax, DWORD PTR [edx+4]
  001c4	50		 push	 eax
  001c5	8b 4d bc	 mov	 ecx, DWORD PTR _this$[ebp]
  001c8	e8 00 00 00 00	 call	 ?deallocate@?$allocator@V?$basic_string@DU?$char_traits@D@std@@V?$allocator@D@2@@std@@@std@@QAEXPAV?$basic_string@DU?$char_traits@D@std@@V?$allocator@D@2@@2@I@Z ; std::allocator<std::basic_string<char,std::char_traits<char>,std::allocator<char> > >::deallocate
$L199145:

; 842  : 				}
; 843  : 			_Myend = _Newvec + _Capacity;

  001cd	8b 4d cc	 mov	 ecx, DWORD PTR __Capacity$[ebp]
  001d0	6b c9 1c	 imul	 ecx, 28			; 0000001cH
  001d3	03 4d c4	 add	 ecx, DWORD PTR __Newvec$199137[ebp]
  001d6	8b 55 bc	 mov	 edx, DWORD PTR _this$[ebp]
  001d9	89 4a 0c	 mov	 DWORD PTR [edx+12], ecx

; 844  : 			_Mylast = _Newvec + _Count;

  001dc	8b 45 0c	 mov	 eax, DWORD PTR __Count$[ebp]
  001df	6b c0 1c	 imul	 eax, 28			; 0000001cH
  001e2	03 45 c4	 add	 eax, DWORD PTR __Newvec$199137[ebp]
  001e5	8b 4d bc	 mov	 ecx, DWORD PTR _this$[ebp]
  001e8	89 41 08	 mov	 DWORD PTR [ecx+8], eax

; 845  : 			_Myfirst = _Newvec;

  001eb	8b 55 bc	 mov	 edx, DWORD PTR _this$[ebp]
  001ee	8b 45 c4	 mov	 eax, DWORD PTR __Newvec$199137[ebp]
  001f1	89 42 04	 mov	 DWORD PTR [edx+4], eax

; 846  : 			}
; 847  : 		else if ((size_type)(_Mylast - _ITER_BASE(_Where)) < _Count)

  001f4	e9 2d 01 00 00	 jmp	 $L199132
$L199135:
  001f9	8b 4d bc	 mov	 ecx, DWORD PTR _this$[ebp]
  001fc	8b 41 08	 mov	 eax, DWORD PTR [ecx+8]
  001ff	2b 45 08	 sub	 eax, DWORD PTR __Where$[ebp]
  00202	99		 cdq
  00203	b9 1c 00 00 00	 mov	 ecx, 28			; 0000001cH
  00208	f7 f9		 idiv	 ecx
  0020a	3b 45 0c	 cmp	 eax, DWORD PTR __Count$[ebp]
  0020d	0f 83 af 00 00
	00		 jae	 $L199148

; 848  : 			{	// new stuff spills off end
; 849  : 			_Ucopy(_ITER_BASE(_Where), _Mylast,
; 850  : 				_ITER_BASE(_Where) + _Count);	// copy suffix

  00213	8b 55 0c	 mov	 edx, DWORD PTR __Count$[ebp]
  00216	6b d2 1c	 imul	 edx, 28			; 0000001cH
  00219	03 55 08	 add	 edx, DWORD PTR __Where$[ebp]
  0021c	52		 push	 edx
  0021d	8b 45 bc	 mov	 eax, DWORD PTR _this$[ebp]
  00220	8b 48 08	 mov	 ecx, DWORD PTR [eax+8]
  00223	51		 push	 ecx
  00224	8b 55 08	 mov	 edx, DWORD PTR __Where$[ebp]
  00227	52		 push	 edx
  00228	8b 4d bc	 mov	 ecx, DWORD PTR _this$[ebp]
  0022b	e8 00 00 00 00	 call	 ??$_Ucopy@PAV?$basic_string@DU?$char_traits@D@std@@V?$allocator@D@2@@std@@@?$vector@V?$basic_string@DU?$char_traits@D@std@@V?$allocator@D@2@@std@@V?$allocator@V?$basic_string@DU?$char_traits@D@std@@V?$allocator@D@2@@std@@@2@@std@@IAEPAV?$basic_string@DU?$char_traits@D@std@@V?$allocator@D@2@@1@PAV21@00@Z ; std::vector<std::basic_string<char,std::char_traits<char>,std::allocator<char> >,std::allocator<std::basic_string<char,std::char_traits<char>,std::allocator<char> > > >::_Ucopy<std::basic_string<char,std::char_traits<char>,std::allocator<char> > *>

; 851  : 
; 852  : 			_TRY_BEGIN

  00230	c6 45 fc 03	 mov	 BYTE PTR __$EHRec$[ebp+12], 3

; 853  : 			_Ufill(_Mylast, _Count - (_Mylast - _ITER_BASE(_Where)),
; 854  : 				_Tmp);	// insert new stuff off end

  00234	8d 45 d0	 lea	 eax, DWORD PTR __Tmp$[ebp]
  00237	50		 push	 eax
  00238	8b 4d bc	 mov	 ecx, DWORD PTR _this$[ebp]
  0023b	8b 41 08	 mov	 eax, DWORD PTR [ecx+8]
  0023e	2b 45 08	 sub	 eax, DWORD PTR __Where$[ebp]
  00241	99		 cdq
  00242	b9 1c 00 00 00	 mov	 ecx, 28			; 0000001cH
  00247	f7 f9		 idiv	 ecx
  00249	8b 55 0c	 mov	 edx, DWORD PTR __Count$[ebp]
  0024c	2b d0		 sub	 edx, eax
  0024e	52		 push	 edx
  0024f	8b 45 bc	 mov	 eax, DWORD PTR _this$[ebp]
  00252	8b 48 08	 mov	 ecx, DWORD PTR [eax+8]
  00255	51		 push	 ecx
  00256	8b 4d bc	 mov	 ecx, DWORD PTR _this$[ebp]
  00259	e8 00 00 00 00	 call	 ?_Ufill@?$vector@V?$basic_string@DU?$char_traits@D@std@@V?$allocator@D@2@@std@@V?$allocator@V?$basic_string@DU?$char_traits@D@std@@V?$allocator@D@2@@std@@@2@@std@@IAEPAV?$basic_string@DU?$char_traits@D@std@@V?$allocator@D@2@@2@PAV32@IABV32@@Z ; std::vector<std::basic_string<char,std::char_traits<char>,std::allocator<char> >,std::allocator<std::basic_string<char,std::char_traits<char>,std::allocator<char> > > >::_Ufill
  0025e	eb 28		 jmp	 SHORT $L200388
$L200389:

; 855  : 			_CATCH_ALL
; 856  : 			_Destroy(_ITER_BASE(_Where) + _Count, _Mylast + _Count);

  00260	8b 55 0c	 mov	 edx, DWORD PTR __Count$[ebp]
  00263	6b d2 1c	 imul	 edx, 28			; 0000001cH
  00266	8b 45 bc	 mov	 eax, DWORD PTR _this$[ebp]
  00269	03 50 08	 add	 edx, DWORD PTR [eax+8]
  0026c	52		 push	 edx
  0026d	8b 4d 0c	 mov	 ecx, DWORD PTR __Count$[ebp]
  00270	6b c9 1c	 imul	 ecx, 28			; 0000001cH
  00273	03 4d 08	 add	 ecx, DWORD PTR __Where$[ebp]
  00276	51		 push	 ecx
  00277	8b 4d bc	 mov	 ecx, DWORD PTR _this$[ebp]
  0027a	e8 00 00 00 00	 call	 ?_Destroy@?$vector@V?$basic_string@DU?$char_traits@D@std@@V?$allocator@D@2@@std@@V?$allocator@V?$basic_string@DU?$char_traits@D@std@@V?$allocator@D@2@@std@@@2@@std@@IAEXPAV?$basic_string@DU?$char_traits@D@std@@V?$allocator@D@2@@2@0@Z ; std::vector<std::basic_string<char,std::char_traits<char>,std::allocator<char> >,std::allocator<std::basic_string<char,std::char_traits<char>,std::allocator<char> > > >::_Destroy

; 857  : 			_RERAISE;

  0027f	6a 00		 push	 0
  00281	6a 00		 push	 0
  00283	e8 00 00 00 00	 call	 __CxxThrowException@8
$L200388:

; 858  : 			_CATCH_END

  00288	c7 45 fc 00 00
	00 00		 mov	 DWORD PTR __$EHRec$[ebp+12], 0

; 859  : 
; 860  : 			_Mylast += _Count;

  0028f	8b 55 0c	 mov	 edx, DWORD PTR __Count$[ebp]
  00292	6b d2 1c	 imul	 edx, 28			; 0000001cH
  00295	8b 45 bc	 mov	 eax, DWORD PTR _this$[ebp]
  00298	03 50 08	 add	 edx, DWORD PTR [eax+8]
  0029b	8b 4d bc	 mov	 ecx, DWORD PTR _this$[ebp]
  0029e	89 51 08	 mov	 DWORD PTR [ecx+8], edx

; 861  : 			fill(_ITER_BASE(_Where), _Mylast - _Count,
; 862  : 				_Tmp);	// insert up to old end

  002a1	8d 55 d0	 lea	 edx, DWORD PTR __Tmp$[ebp]
  002a4	52		 push	 edx
  002a5	8b 45 0c	 mov	 eax, DWORD PTR __Count$[ebp]
  002a8	6b c0 1c	 imul	 eax, 28			; 0000001cH
  002ab	8b 4d bc	 mov	 ecx, DWORD PTR _this$[ebp]
  002ae	8b 51 08	 mov	 edx, DWORD PTR [ecx+8]
  002b1	2b d0		 sub	 edx, eax
  002b3	52		 push	 edx
  002b4	8b 45 08	 mov	 eax, DWORD PTR __Where$[ebp]
  002b7	50		 push	 eax
  002b8	e8 00 00 00 00	 call	 ??$fill@PAV?$basic_string@DU?$char_traits@D@std@@V?$allocator@D@2@@std@@V12@@std@@YAXPAV?$basic_string@DU?$char_traits@D@std@@V?$allocator@D@2@@0@0ABV10@@Z ; std::fill<std::basic_string<char,std::char_traits<char>,std::allocator<char> > *,std::basic_string<char,std::char_traits<char>,std::allocator<char> > >
  002bd	83 c4 0c	 add	 esp, 12			; 0000000cH

; 863  : 			}
; 864  : 		else

  002c0	eb 64		 jmp	 SHORT $L199132
$L199148:

; 865  : 			{	// new stuff can all be assigned
; 866  : 			pointer _Oldend = _Mylast;

  002c2	8b 4d bc	 mov	 ecx, DWORD PTR _this$[ebp]
  002c5	8b 51 08	 mov	 edx, DWORD PTR [ecx+8]
  002c8	89 55 c0	 mov	 DWORD PTR __Oldend$199158[ebp], edx

; 867  : 			_Mylast = _Ucopy(_Oldend - _Count, _Oldend,
; 868  : 				_Mylast);	// copy suffix

  002cb	8b 45 bc	 mov	 eax, DWORD PTR _this$[ebp]
  002ce	8b 48 08	 mov	 ecx, DWORD PTR [eax+8]
  002d1	51		 push	 ecx
  002d2	8b 55 c0	 mov	 edx, DWORD PTR __Oldend$199158[ebp]
  002d5	52		 push	 edx
  002d6	8b 45 0c	 mov	 eax, DWORD PTR __Count$[ebp]
  002d9	6b c0 1c	 imul	 eax, 28			; 0000001cH
  002dc	8b 4d c0	 mov	 ecx, DWORD PTR __Oldend$199158[ebp]
  002df	2b c8		 sub	 ecx, eax
  002e1	51		 push	 ecx
  002e2	8b 4d bc	 mov	 ecx, DWORD PTR _this$[ebp]
  002e5	e8 00 00 00 00	 call	 ??$_Ucopy@PAV?$basic_string@DU?$char_traits@D@std@@V?$allocator@D@2@@std@@@?$vector@V?$basic_string@DU?$char_traits@D@std@@V?$allocator@D@2@@std@@V?$allocator@V?$basic_string@DU?$char_traits@D@std@@V?$allocator@D@2@@std@@@2@@std@@IAEPAV?$basic_string@DU?$char_traits@D@std@@V?$allocator@D@2@@1@PAV21@00@Z ; std::vector<std::basic_string<char,std::char_traits<char>,std::allocator<char> >,std::allocator<std::basic_string<char,std::char_traits<char>,std::allocator<char> > > >::_Ucopy<std::basic_string<char,std::char_traits<char>,std::allocator<char> > *>
  002ea	8b 55 bc	 mov	 edx, DWORD PTR _this$[ebp]
  002ed	89 42 08	 mov	 DWORD PTR [edx+8], eax

; 869  : 			copy_backward(_ITER_BASE(_Where), _Oldend - _Count,
; 870  : 				_Oldend);	// copy hole

  002f0	8b 45 c0	 mov	 eax, DWORD PTR __Oldend$199158[ebp]
  002f3	50		 push	 eax
  002f4	8b 4d 0c	 mov	 ecx, DWORD PTR __Count$[ebp]
  002f7	6b c9 1c	 imul	 ecx, 28			; 0000001cH
  002fa	8b 55 c0	 mov	 edx, DWORD PTR __Oldend$199158[ebp]
  002fd	2b d1		 sub	 edx, ecx
  002ff	52		 push	 edx
  00300	8b 45 08	 mov	 eax, DWORD PTR __Where$[ebp]
  00303	50		 push	 eax
  00304	e8 00 00 00 00	 call	 ??$copy_backward@PAV?$basic_string@DU?$char_traits@D@std@@V?$allocator@D@2@@std@@PAV12@@std@@YAPAV?$basic_string@DU?$char_traits@D@std@@V?$allocator@D@2@@0@PAV10@00@Z ; std::copy_backward<std::basic_string<char,std::char_traits<char>,std::allocator<char> > *,std::basic_string<char,std::char_traits<char>,std::allocator<char> > *>
  00309	83 c4 0c	 add	 esp, 12			; 0000000cH

; 871  : 			fill(_ITER_BASE(_Where), _ITER_BASE(_Where) + _Count,
; 872  : 				_Tmp);	// insert into hole

  0030c	8d 4d d0	 lea	 ecx, DWORD PTR __Tmp$[ebp]
  0030f	51		 push	 ecx
  00310	8b 55 0c	 mov	 edx, DWORD PTR __Count$[ebp]
  00313	6b d2 1c	 imul	 edx, 28			; 0000001cH
  00316	03 55 08	 add	 edx, DWORD PTR __Where$[ebp]
  00319	52		 push	 edx
  0031a	8b 45 08	 mov	 eax, DWORD PTR __Where$[ebp]
  0031d	50		 push	 eax
  0031e	e8 00 00 00 00	 call	 ??$fill@PAV?$basic_string@DU?$char_traits@D@std@@V?$allocator@D@2@@std@@V12@@std@@YAXPAV?$basic_string@DU?$char_traits@D@std@@V?$allocator@D@2@@0@0ABV10@@Z ; std::fill<std::basic_string<char,std::char_traits<char>,std::allocator<char> > *,std::basic_string<char,std::char_traits<char>,std::allocator<char> > >
  00323	83 c4 0c	 add	 esp, 12			; 0000000cH
$L199132:

; 873  : 			}
; 874  : 		}

  00326	c7 45 fc ff ff
	ff ff		 mov	 DWORD PTR __$EHRec$[ebp+12], -1
  0032d	8d 4d d0	 lea	 ecx, DWORD PTR __Tmp$[ebp]
  00330	ff 15 00 00 00
	00		 call	 DWORD PTR __imp_??1?$basic_string@DU?$char_traits@D@std@@V?$allocator@D@2@@std@@QAE@XZ
$L200383:
  00336	8b 4d f4	 mov	 ecx, DWORD PTR __$EHRec$[ebp+4]
  00339	64 89 0d 00 00
	00 00		 mov	 DWORD PTR fs:__except_list, ecx
  00340	8b 4d ec	 mov	 ecx, DWORD PTR __$ArrayPad$[ebp]
  00343	e8 00 00 00 00	 call	 @__security_check_cookie@4
  00348	5f		 pop	 edi
  00349	5e		 pop	 esi
  0034a	5b		 pop	 ebx
  0034b	8b e5		 mov	 esp, ebp
  0034d	5d		 pop	 ebp
  0034e	c2 0c 00	 ret	 12			; 0000000cH
_TEXT	ENDS
;	COMDAT text$x
text$x	SEGMENT
$L200390:
  00000	8d 4d d0	 lea	 ecx, DWORD PTR __Tmp$[ebp]
  00003	ff 25 00 00 00
	00		 jmp	 DWORD PTR __imp_??1?$basic_string@DU?$char_traits@D@std@@V?$allocator@D@2@@std@@QAE@XZ
__ehhandler$?_Insert_n@?$vector@V?$basic_string@DU?$char_traits@D@std@@V?$allocator@D@2@@std@@V?$allocator@V?$basic_string@DU?$char_traits@D@std@@V?$allocator@D@2@@std@@@2@@std@@IAEXViterator@12@IABV?$basic_string@DU?$char_traits@D@std@@V?$allocator@D@2@@2@@Z:
  00009	b8 00 00 00 00	 mov	 eax, OFFSET FLAT:$T200392
  0000e	e9 00 00 00 00	 jmp	 ___CxxFrameHandler
text$x	ENDS
?_Insert_n@?$vector@V?$basic_string@DU?$char_traits@D@std@@V?$allocator@D@2@@std@@V?$allocator@V?$basic_string@DU?$char_traits@D@std@@V?$allocator@D@2@@std@@@2@@std@@IAEXViterator@12@IABV?$basic_string@DU?$char_traits@D@std@@V?$allocator@D@2@@2@@Z ENDP ; std::vector<std::basic_string<char,std::char_traits<char>,std::allocator<char> >,std::allocator<std::basic_string<char,std::char_traits<char>,std::allocator<char> > > >::_Insert_n
PUBLIC	??_R0?AVlength_error@std@@@8			; std::length_error `RTTI Type Descriptor'
PUBLIC	__TI3?AVlength_error@std@@
PUBLIC	__CTA3?AVlength_error@std@@
PUBLIC	__CT??_R0?AVlength_error@std@@@8??0length_error@std@@QAE@ABV01@@Z40
PUBLIC	??_C@_0BD@OLBABOEK@vector?$DMT?$DO?5too?5long?$AA@ ; `string'
PUBLIC	??0length_error@std@@QAE@ABV?$basic_string@DU?$char_traits@D@std@@V?$allocator@D@2@@1@@Z ; std::length_error::length_error
PUBLIC	??1length_error@std@@UAE@XZ			; std::length_error::~length_error
PUBLIC	??0length_error@std@@QAE@ABV01@@Z		; std::length_error::length_error
;	COMDAT xdata$x
xdata$x	SEGMENT
$T200409 DD	0ffffffffH
	DD	FLAT:$L200405
$T200407 DD	019930520H
	DD	01H
	DD	FLAT:$T200409
	DD	2 DUP(00H)
	DD	2 DUP(00H)
xdata$x	ENDS
;	COMDAT ??_C@_0BD@OLBABOEK@vector?$DMT?$DO?5too?5long?$AA@
CONST	SEGMENT
??_C@_0BD@OLBABOEK@vector?$DMT?$DO?5too?5long?$AA@ DB 'vector<T> too long'
	DB	00H						; `string'
CONST	ENDS
;	COMDAT __TI3?AVlength_error@std@@
xdata$x	SEGMENT
__TI3?AVlength_error@std@@ DD 00H
	DD	FLAT:??1length_error@std@@UAE@XZ
	DD	00H
	DD	FLAT:__CTA3?AVlength_error@std@@
xdata$x	ENDS
;	COMDAT __CTA3?AVlength_error@std@@
xdata$x	SEGMENT
__CTA3?AVlength_error@std@@ DD 03H
	DD	FLAT:__CT??_R0?AVlength_error@std@@@8??0length_error@std@@QAE@ABV01@@Z40
	DD	FLAT:__CT??_R0?AVlogic_error@std@@@8??0logic_error@std@@QAE@ABV01@@Z40
	DD	FLAT:__CT??_R0?AVexception@@@8??0exception@@QAE@ABV0@@Z12
xdata$x	ENDS
;	COMDAT __CT??_R0?AVlength_error@std@@@8??0length_error@std@@QAE@ABV01@@Z40
xdata$x	SEGMENT
__CT??_R0?AVlength_error@std@@@8??0length_error@std@@QAE@ABV01@@Z40 DD 00H
	DD	FLAT:??_R0?AVlength_error@std@@@8
	DD	00H
	DD	0ffffffffH
	ORG $+4
	DD	028H
	DD	FLAT:??0length_error@std@@QAE@ABV01@@Z
xdata$x	ENDS
;	COMDAT ??_R0?AVlength_error@std@@@8
_DATA	SEGMENT
??_R0?AVlength_error@std@@@8 DD FLAT:??_7type_info@@6B@	; std::length_error `RTTI Type Descriptor'
	DD	00H
	DB	'.?AVlength_error@std@@', 00H
	ORG $-31
	DD	FLAT:??_7type_info@@6B@
	DD	00H
	DB	'.?AVlength_error@std@@', 00H
; Function compile flags: /Odt
_DATA	ENDS
;	COMDAT ?_Xlen@?$vector@V?$basic_string@DU?$char_traits@D@std@@V?$allocator@D@2@@std@@V?$allocator@V?$basic_string@DU?$char_traits@D@std@@V?$allocator@D@2@@std@@@2@@std@@IBEXXZ
_TEXT	SEGMENT
_this$ = -84						; size = 4
$T200404 = -80						; size = 28
$T200403 = -52						; size = 40
__$EHRec$ = -12						; size = 12
?_Xlen@?$vector@V?$basic_string@DU?$char_traits@D@std@@V?$allocator@D@2@@std@@V?$allocator@V?$basic_string@DU?$char_traits@D@std@@V?$allocator@D@2@@std@@@2@@std@@IBEXXZ PROC NEAR ; std::vector<std::basic_string<char,std::char_traits<char>,std::allocator<char> >,std::allocator<std::basic_string<char,std::char_traits<char>,std::allocator<char> > > >::_Xlen, COMDAT
; _this$ = ecx

; 883  : 		{	// report a length_error

  00000	55		 push	 ebp
  00001	8b ec		 mov	 ebp, esp
  00003	6a ff		 push	 -1
  00005	68 00 00 00 00	 push	 __ehhandler$?_Xlen@?$vector@V?$basic_string@DU?$char_traits@D@std@@V?$allocator@D@2@@std@@V?$allocator@V?$basic_string@DU?$char_traits@D@std@@V?$allocator@D@2@@std@@@2@@std@@IBEXXZ
  0000a	64 a1 00 00 00
	00		 mov	 eax, DWORD PTR fs:__except_list
  00010	50		 push	 eax
  00011	64 89 25 00 00
	00 00		 mov	 DWORD PTR fs:__except_list, esp
  00018	83 ec 48	 sub	 esp, 72			; 00000048H
  0001b	89 4d ac	 mov	 DWORD PTR _this$[ebp], ecx

; 884  : 		_THROW(length_error, "vector<T> too long");

  0001e	68 00 00 00 00	 push	 OFFSET FLAT:??_C@_0BD@OLBABOEK@vector?$DMT?$DO?5too?5long?$AA@
  00023	8d 4d b0	 lea	 ecx, DWORD PTR $T200404[ebp]
  00026	ff 15 00 00 00
	00		 call	 DWORD PTR __imp_??0?$basic_string@DU?$char_traits@D@std@@V?$allocator@D@2@@std@@QAE@PBD@Z
  0002c	c7 45 fc 00 00
	00 00		 mov	 DWORD PTR __$EHRec$[ebp+8], 0
  00033	8d 45 b0	 lea	 eax, DWORD PTR $T200404[ebp]
  00036	50		 push	 eax
  00037	8d 4d cc	 lea	 ecx, DWORD PTR $T200403[ebp]
  0003a	e8 00 00 00 00	 call	 ??0length_error@std@@QAE@ABV?$basic_string@DU?$char_traits@D@std@@V?$allocator@D@2@@1@@Z ; std::length_error::length_error
  0003f	68 00 00 00 00	 push	 OFFSET FLAT:__TI3?AVlength_error@std@@
  00044	8d 4d cc	 lea	 ecx, DWORD PTR $T200403[ebp]
  00047	51		 push	 ecx
  00048	e8 00 00 00 00	 call	 __CxxThrowException@8
$L200402:

; 885  : 		}

  0004d	8b 4d f4	 mov	 ecx, DWORD PTR __$EHRec$[ebp]
  00050	64 89 0d 00 00
	00 00		 mov	 DWORD PTR fs:__except_list, ecx
  00057	8b e5		 mov	 esp, ebp
  00059	5d		 pop	 ebp
  0005a	c3		 ret	 0
_TEXT	ENDS
;	COMDAT text$x
text$x	SEGMENT
$L200405:
  00000	8d 4d b0	 lea	 ecx, DWORD PTR $T200404[ebp]
  00003	ff 25 00 00 00
	00		 jmp	 DWORD PTR __imp_??1?$basic_string@DU?$char_traits@D@std@@V?$allocator@D@2@@std@@QAE@XZ
__ehhandler$?_Xlen@?$vector@V?$basic_string@DU?$char_traits@D@std@@V?$allocator@D@2@@std@@V?$allocator@V?$basic_string@DU?$char_traits@D@std@@V?$allocator@D@2@@std@@@2@@std@@IBEXXZ:
  00009	b8 00 00 00 00	 mov	 eax, OFFSET FLAT:$T200407
  0000e	e9 00 00 00 00	 jmp	 ___CxxFrameHandler
text$x	ENDS
?_Xlen@?$vector@V?$basic_string@DU?$char_traits@D@std@@V?$allocator@D@2@@std@@V?$allocator@V?$basic_string@DU?$char_traits@D@std@@V?$allocator@D@2@@std@@@2@@std@@IBEXXZ ENDP ; std::vector<std::basic_string<char,std::char_traits<char>,std::allocator<char> >,std::allocator<std::basic_string<char,std::char_traits<char>,std::allocator<char> > > >::_Xlen
PUBLIC	??0const_iterator@?$vector@V?$basic_string@DU?$char_traits@D@std@@V?$allocator@D@2@@std@@V?$allocator@V?$basic_string@DU?$char_traits@D@std@@V?$allocator@D@2@@std@@@2@@std@@QAE@PAV?$basic_string@DU?$char_traits@D@std@@V?$allocator@D@2@@2@@Z ; std::vector<std::basic_string<char,std::char_traits<char>,std::allocator<char> >,std::allocator<std::basic_string<char,std::char_traits<char>,std::allocator<char> > > >::const_iterator::const_iterator
; Function compile flags: /Odt
;	COMDAT ??0iterator@?$vector@V?$basic_string@DU?$char_traits@D@std@@V?$allocator@D@2@@std@@V?$allocator@V?$basic_string@DU?$char_traits@D@std@@V?$allocator@D@2@@std@@@2@@std@@QAE@PAV?$basic_string@DU?$char_traits@D@std@@V?$allocator@D@2@@2@@Z
_TEXT	SEGMENT
_this$ = -4						; size = 4
__Ptr$ = 8						; size = 4
??0iterator@?$vector@V?$basic_string@DU?$char_traits@D@std@@V?$allocator@D@2@@std@@V?$allocator@V?$basic_string@DU?$char_traits@D@std@@V?$allocator@D@2@@std@@@2@@std@@QAE@PAV?$basic_string@DU?$char_traits@D@std@@V?$allocator@D@2@@2@@Z PROC NEAR ; std::vector<std::basic_string<char,std::char_traits<char>,std::allocator<char> >,std::allocator<std::basic_string<char,std::char_traits<char>,std::allocator<char> > > >::iterator::iterator, COMDAT
; _this$ = ecx

; 215  : 			{	// construct with pointer _Ptr

  00000	55		 push	 ebp
  00001	8b ec		 mov	 ebp, esp
  00003	51		 push	 ecx
  00004	89 4d fc	 mov	 DWORD PTR _this$[ebp], ecx
  00007	8b 45 08	 mov	 eax, DWORD PTR __Ptr$[ebp]
  0000a	50		 push	 eax
  0000b	8b 4d fc	 mov	 ecx, DWORD PTR _this$[ebp]
  0000e	e8 00 00 00 00	 call	 ??0const_iterator@?$vector@V?$basic_string@DU?$char_traits@D@std@@V?$allocator@D@2@@std@@V?$allocator@V?$basic_string@DU?$char_traits@D@std@@V?$allocator@D@2@@std@@@2@@std@@QAE@PAV?$basic_string@DU?$char_traits@D@std@@V?$allocator@D@2@@2@@Z ; std::vector<std::basic_string<char,std::char_traits<char>,std::allocator<char> >,std::allocator<std::basic_string<char,std::char_traits<char>,std::allocator<char> > > >::const_iterator::const_iterator

; 216  : 			}

  00013	8b 45 fc	 mov	 eax, DWORD PTR _this$[ebp]
  00016	8b e5		 mov	 esp, ebp
  00018	5d		 pop	 ebp
  00019	c2 04 00	 ret	 4
??0iterator@?$vector@V?$basic_string@DU?$char_traits@D@std@@V?$allocator@D@2@@std@@V?$allocator@V?$basic_string@DU?$char_traits@D@std@@V?$allocator@D@2@@std@@@2@@std@@QAE@PAV?$basic_string@DU?$char_traits@D@std@@V?$allocator@D@2@@2@@Z ENDP ; std::vector<std::basic_string<char,std::char_traits<char>,std::allocator<char> >,std::allocator<std::basic_string<char,std::char_traits<char>,std::allocator<char> > > >::iterator::iterator
; Function compile flags: /Odt
_TEXT	ENDS
;	COMDAT ??Yiterator@?$vector@V?$basic_string@DU?$char_traits@D@std@@V?$allocator@D@2@@std@@V?$allocator@V?$basic_string@DU?$char_traits@D@std@@V?$allocator@D@2@@std@@@2@@std@@QAEAAV012@H@Z
_TEXT	SEGMENT
_this$ = -4						; size = 4
__Off$ = 8						; size = 4
??Yiterator@?$vector@V?$basic_string@DU?$char_traits@D@std@@V?$allocator@D@2@@std@@V?$allocator@V?$basic_string@DU?$char_traits@D@std@@V?$allocator@D@2@@std@@@2@@std@@QAEAAV012@H@Z PROC NEAR ; std::vector<std::basic_string<char,std::char_traits<char>,std::allocator<char> >,std::allocator<std::basic_string<char,std::char_traits<char>,std::allocator<char> > > >::iterator::operator+=, COMDAT
; _this$ = ecx

; 255  : 			{	// increment by integer

  00000	55		 push	 ebp
  00001	8b ec		 mov	 ebp, esp
  00003	51		 push	 ecx
  00004	89 4d fc	 mov	 DWORD PTR _this$[ebp], ecx

; 256  : 			this->_Myptr += _Off;

  00007	8b 45 08	 mov	 eax, DWORD PTR __Off$[ebp]
  0000a	6b c0 1c	 imul	 eax, 28			; 0000001cH
  0000d	8b 4d fc	 mov	 ecx, DWORD PTR _this$[ebp]
  00010	03 01		 add	 eax, DWORD PTR [ecx]
  00012	8b 55 fc	 mov	 edx, DWORD PTR _this$[ebp]
  00015	89 02		 mov	 DWORD PTR [edx], eax

; 257  : 			return (*this);

  00017	8b 45 fc	 mov	 eax, DWORD PTR _this$[ebp]

; 258  : 			}

  0001a	8b e5		 mov	 esp, ebp
  0001c	5d		 pop	 ebp
  0001d	c2 04 00	 ret	 4
??Yiterator@?$vector@V?$basic_string@DU?$char_traits@D@std@@V?$allocator@D@2@@std@@V?$allocator@V?$basic_string@DU?$char_traits@D@std@@V?$allocator@D@2@@std@@@2@@std@@QAEAAV012@H@Z ENDP ; std::vector<std::basic_string<char,std::char_traits<char>,std::allocator<char> >,std::allocator<std::basic_string<char,std::char_traits<char>,std::allocator<char> > > >::iterator::operator+=
_TEXT	ENDS
PUBLIC	??Gconst_iterator@?$vector@V?$basic_string@DU?$char_traits@D@std@@V?$allocator@D@2@@std@@V?$allocator@V?$basic_string@DU?$char_traits@D@std@@V?$allocator@D@2@@std@@@2@@std@@QBEHABV012@@Z ; std::vector<std::basic_string<char,std::char_traits<char>,std::allocator<char> >,std::allocator<std::basic_string<char,std::char_traits<char>,std::allocator<char> > > >::const_iterator::operator-
; Function compile flags: /Odt
;	COMDAT ??Giterator@?$vector@V?$basic_string@DU?$char_traits@D@std@@V?$allocator@D@2@@std@@V?$allocator@V?$basic_string@DU?$char_traits@D@std@@V?$allocator@D@2@@std@@@2@@std@@QBEHABVconst_iterator@12@@Z
_TEXT	SEGMENT
_this$ = -8						; size = 4
$T200418 = -4						; size = 4
__Right$ = 8						; size = 4
??Giterator@?$vector@V?$basic_string@DU?$char_traits@D@std@@V?$allocator@D@2@@std@@V?$allocator@V?$basic_string@DU?$char_traits@D@std@@V?$allocator@D@2@@std@@@2@@std@@QBEHABVconst_iterator@12@@Z PROC NEAR ; std::vector<std::basic_string<char,std::char_traits<char>,std::allocator<char> >,std::allocator<std::basic_string<char,std::char_traits<char>,std::allocator<char> > > >::iterator::operator-, COMDAT
; _this$ = ecx

; 278  : 			{	// return difference of iterators

  00000	55		 push	 ebp
  00001	8b ec		 mov	 ebp, esp
  00003	83 ec 08	 sub	 esp, 8
  00006	89 4d f8	 mov	 DWORD PTR _this$[ebp], ecx

; 279  : 			return ((const_iterator)*this - _Right);

  00009	8b 45 f8	 mov	 eax, DWORD PTR _this$[ebp]
  0000c	8b 08		 mov	 ecx, DWORD PTR [eax]
  0000e	89 4d fc	 mov	 DWORD PTR $T200418[ebp], ecx
  00011	8b 55 08	 mov	 edx, DWORD PTR __Right$[ebp]
  00014	52		 push	 edx
  00015	8d 4d fc	 lea	 ecx, DWORD PTR $T200418[ebp]
  00018	e8 00 00 00 00	 call	 ??Gconst_iterator@?$vector@V?$basic_string@DU?$char_traits@D@std@@V?$allocator@D@2@@std@@V?$allocator@V?$basic_string@DU?$char_traits@D@std@@V?$allocator@D@2@@std@@@2@@std@@QBEHABV012@@Z ; std::vector<std::basic_string<char,std::char_traits<char>,std::allocator<char> >,std::allocator<std::basic_string<char,std::char_traits<char>,std::allocator<char> > > >::const_iterator::operator-

; 280  : 			}

  0001d	8b e5		 mov	 esp, ebp
  0001f	5d		 pop	 ebp
  00020	c2 04 00	 ret	 4
??Giterator@?$vector@V?$basic_string@DU?$char_traits@D@std@@V?$allocator@D@2@@std@@V?$allocator@V?$basic_string@DU?$char_traits@D@std@@V?$allocator@D@2@@std@@@2@@std@@QBEHABVconst_iterator@12@@Z ENDP ; std::vector<std::basic_string<char,std::char_traits<char>,std::allocator<char> >,std::allocator<std::basic_string<char,std::char_traits<char>,std::allocator<char> > > >::iterator::operator-
; Function compile flags: /Odt
_TEXT	ENDS
;	COMDAT ??Dconst_iterator@?$vector@V?$basic_string@DU?$char_traits@D@std@@V?$allocator@D@2@@std@@V?$allocator@V?$basic_string@DU?$char_traits@D@std@@V?$allocator@D@2@@std@@@2@@std@@QBEABV?$basic_string@DU?$char_traits@D@std@@V?$allocator@D@2@@2@XZ
_TEXT	SEGMENT
_this$ = -4						; size = 4
??Dconst_iterator@?$vector@V?$basic_string@DU?$char_traits@D@std@@V?$allocator@D@2@@std@@V?$allocator@V?$basic_string@DU?$char_traits@D@std@@V?$allocator@D@2@@std@@@2@@std@@QBEABV?$basic_string@DU?$char_traits@D@std@@V?$allocator@D@2@@2@XZ PROC NEAR ; std::vector<std::basic_string<char,std::char_traits<char>,std::allocator<char> >,std::allocator<std::basic_string<char,std::char_traits<char>,std::allocator<char> > > >::const_iterator::operator*, COMDAT
; _this$ = ecx

; 79   : 			{	// return designated object

  00000	55		 push	 ebp
  00001	8b ec		 mov	 ebp, esp
  00003	51		 push	 ecx
  00004	89 4d fc	 mov	 DWORD PTR _this$[ebp], ecx

; 80   : 
; 81   : 
; 82   : 			return (*_Myptr);

  00007	8b 45 fc	 mov	 eax, DWORD PTR _this$[ebp]
  0000a	8b 00		 mov	 eax, DWORD PTR [eax]

; 83   : 			}

  0000c	8b e5		 mov	 esp, ebp
  0000e	5d		 pop	 ebp
  0000f	c3		 ret	 0
??Dconst_iterator@?$vector@V?$basic_string@DU?$char_traits@D@std@@V?$allocator@D@2@@std@@V?$allocator@V?$basic_string@DU?$char_traits@D@std@@V?$allocator@D@2@@std@@@2@@std@@QBEABV?$basic_string@DU?$char_traits@D@std@@V?$allocator@D@2@@2@XZ ENDP ; std::vector<std::basic_string<char,std::char_traits<char>,std::allocator<char> >,std::allocator<std::basic_string<char,std::char_traits<char>,std::allocator<char> > > >::const_iterator::operator*
_TEXT	ENDS
PUBLIC	??_R1A@?0A@A@logic_error@std@@8			; std::logic_error::`RTTI Base Class Descriptor at (0,-1,0,0)'
PUBLIC	??_R1A@?0A@A@exception@@8			; exception::`RTTI Base Class Descriptor at (0,-1,0,0)'
PUBLIC	??_R4length_error@std@@6B@			; std::length_error::`RTTI Complete Object Locator'
PUBLIC	??_R3length_error@std@@8			; std::length_error::`RTTI Class Hierarchy Descriptor'
PUBLIC	??_R2length_error@std@@8			; std::length_error::`RTTI Base Class Array'
PUBLIC	??_R1A@?0A@A@length_error@std@@8		; std::length_error::`RTTI Base Class Descriptor at (0,-1,0,0)'
PUBLIC	?what@logic_error@std@@UBEPBDXZ			; std::logic_error::what
PUBLIC	??_7length_error@std@@6B@			; std::length_error::`vftable'
PUBLIC	??_Glength_error@std@@UAEPAXI@Z			; std::length_error::`scalar deleting destructor'
EXTRN	??_Elength_error@std@@UAEPAXI@Z:NEAR		; std::length_error::`vector deleting destructor'
;	COMDAT ??_7length_error@std@@6B@
CONST	SEGMENT
??_7length_error@std@@6B@ DD FLAT:??_R4length_error@std@@6B@ ; std::length_error::`vftable'
	DD	FLAT:??_Elength_error@std@@UAEPAXI@Z
	DD	FLAT:?what@logic_error@std@@UBEPBDXZ
CONST	ENDS
;	COMDAT ??_R4length_error@std@@6B@
rdata$r	SEGMENT
??_R4length_error@std@@6B@ DD 00H			; std::length_error::`RTTI Complete Object Locator'
	DD	00H
	DD	00H
	DD	FLAT:??_R0?AVlength_error@std@@@8
	DD	FLAT:??_R3length_error@std@@8
rdata$r	ENDS
;	COMDAT ??_R3length_error@std@@8
rdata$r	SEGMENT
??_R3length_error@std@@8 DD 00H				; std::length_error::`RTTI Class Hierarchy Descriptor'
	DD	00H
	DD	03H
	DD	FLAT:??_R2length_error@std@@8
rdata$r	ENDS
;	COMDAT ??_R2length_error@std@@8
rdata$r	SEGMENT
??_R2length_error@std@@8 DD FLAT:??_R1A@?0A@A@length_error@std@@8 ; std::length_error::`RTTI Base Class Array'
	DD	FLAT:??_R1A@?0A@A@logic_error@std@@8
	DD	FLAT:??_R1A@?0A@A@exception@@8
rdata$r	ENDS
;	COMDAT ??_R1A@?0A@A@length_error@std@@8
rdata$r	SEGMENT
??_R1A@?0A@A@length_error@std@@8 DD FLAT:??_R0?AVlength_error@std@@@8 ; std::length_error::`RTTI Base Class Descriptor at (0,-1,0,0)'
	DD	02H
	DD	00H
	DD	0ffffffffH
	DD	00H
	DD	00H
rdata$r	ENDS
;	COMDAT ??_R1A@?0A@A@logic_error@std@@8
rdata$r	SEGMENT
??_R1A@?0A@A@logic_error@std@@8 DD FLAT:??_R0?AVlogic_error@std@@@8 ; std::logic_error::`RTTI Base Class Descriptor at (0,-1,0,0)'
	DD	01H
	DD	00H
	DD	0ffffffffH
	DD	00H
	DD	00H
rdata$r	ENDS
;	COMDAT ??_R1A@?0A@A@exception@@8
rdata$r	SEGMENT
??_R1A@?0A@A@exception@@8 DD FLAT:??_R0?AVexception@@@8	; exception::`RTTI Base Class Descriptor at (0,-1,0,0)'
	DD	00H
	DD	00H
	DD	0ffffffffH
	DD	00H
	DD	00H
; Function compile flags: /Odt
rdata$r	ENDS
;	COMDAT ??0length_error@std@@QAE@ABV01@@Z
_TEXT	SEGMENT
_this$ = -4						; size = 4
___that$ = 8						; size = 4
??0length_error@std@@QAE@ABV01@@Z PROC NEAR		; std::length_error::length_error, COMDAT
; _this$ = ecx
  00000	55		 push	 ebp
  00001	8b ec		 mov	 ebp, esp
  00003	51		 push	 ecx
  00004	89 4d fc	 mov	 DWORD PTR _this$[ebp], ecx
  00007	8b 45 08	 mov	 eax, DWORD PTR ___that$[ebp]
  0000a	50		 push	 eax
  0000b	8b 4d fc	 mov	 ecx, DWORD PTR _this$[ebp]
  0000e	e8 00 00 00 00	 call	 ??0logic_error@std@@QAE@ABV01@@Z
  00013	8b 4d fc	 mov	 ecx, DWORD PTR _this$[ebp]
  00016	c7 01 00 00 00
	00		 mov	 DWORD PTR [ecx], OFFSET FLAT:??_7length_error@std@@6B@
  0001c	8b 45 fc	 mov	 eax, DWORD PTR _this$[ebp]
  0001f	8b e5		 mov	 esp, ebp
  00021	5d		 pop	 ebp
  00022	c2 04 00	 ret	 4
??0length_error@std@@QAE@ABV01@@Z ENDP			; std::length_error::length_error
; Function compile flags: /Odt
; File d:\program files (x86)\microsoft visual studio .net 2003\vc7\include\xmemory
_TEXT	ENDS
;	COMDAT ?max_size@?$allocator@V?$basic_string@DU?$char_traits@D@std@@V?$allocator@D@2@@std@@@std@@QBEIXZ
_TEXT	SEGMENT
tv65 = -12						; size = 4
_this$ = -8						; size = 4
__Count$ = -4						; size = 4
?max_size@?$allocator@V?$basic_string@DU?$char_traits@D@std@@V?$allocator@D@2@@std@@@std@@QBEIXZ PROC NEAR ; std::allocator<std::basic_string<char,std::char_traits<char>,std::allocator<char> > >::max_size, COMDAT
; _this$ = ecx

; 156  : 		{	// estimate maximum array size

  00000	55		 push	 ebp
  00001	8b ec		 mov	 ebp, esp
  00003	83 ec 0c	 sub	 esp, 12			; 0000000cH
  00006	89 4d f8	 mov	 DWORD PTR _this$[ebp], ecx

; 157  : 		_SIZT _Count = (_SIZT)(-1) / sizeof (_Ty);

  00009	c7 45 fc 49 92
	24 09		 mov	 DWORD PTR __Count$[ebp], 153391689 ; 09249249H

; 158  : 		return (0 < _Count ? _Count : 1);

  00010	83 7d fc 00	 cmp	 DWORD PTR __Count$[ebp], 0
  00014	76 08		 jbe	 SHORT $L200426
  00016	8b 45 fc	 mov	 eax, DWORD PTR __Count$[ebp]
  00019	89 45 f4	 mov	 DWORD PTR tv65[ebp], eax
  0001c	eb 07		 jmp	 SHORT $L200427
$L200426:
  0001e	c7 45 f4 01 00
	00 00		 mov	 DWORD PTR tv65[ebp], 1
$L200427:
  00025	8b 45 f4	 mov	 eax, DWORD PTR tv65[ebp]

; 159  : 		}

  00028	8b e5		 mov	 esp, ebp
  0002a	5d		 pop	 ebp
  0002b	c3		 ret	 0
?max_size@?$allocator@V?$basic_string@DU?$char_traits@D@std@@V?$allocator@D@2@@std@@@std@@QBEIXZ ENDP ; std::allocator<std::basic_string<char,std::char_traits<char>,std::allocator<char> > >::max_size
; Function compile flags: /Odt
; File d:\program files (x86)\microsoft visual studio .net 2003\vc7\include\vector
_TEXT	ENDS
;	COMDAT ??0const_iterator@?$vector@V?$basic_string@DU?$char_traits@D@std@@V?$allocator@D@2@@std@@V?$allocator@V?$basic_string@DU?$char_traits@D@std@@V?$allocator@D@2@@std@@@2@@std@@QAE@PAV?$basic_string@DU?$char_traits@D@std@@V?$allocator@D@2@@2@@Z
_TEXT	SEGMENT
_this$ = -4						; size = 4
__Ptr$ = 8						; size = 4
??0const_iterator@?$vector@V?$basic_string@DU?$char_traits@D@std@@V?$allocator@D@2@@std@@V?$allocator@V?$basic_string@DU?$char_traits@D@std@@V?$allocator@D@2@@std@@@2@@std@@QAE@PAV?$basic_string@DU?$char_traits@D@std@@V?$allocator@D@2@@2@@Z PROC NEAR ; std::vector<std::basic_string<char,std::char_traits<char>,std::allocator<char> >,std::allocator<std::basic_string<char,std::char_traits<char>,std::allocator<char> > > >::const_iterator::const_iterator, COMDAT
; _this$ = ecx

; 73   : 		const_iterator(_Tptr _Ptr)

  00000	55		 push	 ebp
  00001	8b ec		 mov	 ebp, esp
  00003	51		 push	 ecx
  00004	89 4d fc	 mov	 DWORD PTR _this$[ebp], ecx

; 74   : 			{	// construct with pointer _Ptr
; 75   : 			_Myptr = _Ptr;

  00007	8b 45 fc	 mov	 eax, DWORD PTR _this$[ebp]
  0000a	8b 4d 08	 mov	 ecx, DWORD PTR __Ptr$[ebp]
  0000d	89 08		 mov	 DWORD PTR [eax], ecx

; 76   : 			}

  0000f	8b 45 fc	 mov	 eax, DWORD PTR _this$[ebp]
  00012	8b e5		 mov	 esp, ebp
  00014	5d		 pop	 ebp
  00015	c2 04 00	 ret	 4
??0const_iterator@?$vector@V?$basic_string@DU?$char_traits@D@std@@V?$allocator@D@2@@std@@V?$allocator@V?$basic_string@DU?$char_traits@D@std@@V?$allocator@D@2@@std@@@2@@std@@QAE@PAV?$basic_string@DU?$char_traits@D@std@@V?$allocator@D@2@@2@@Z ENDP ; std::vector<std::basic_string<char,std::char_traits<char>,std::allocator<char> >,std::allocator<std::basic_string<char,std::char_traits<char>,std::allocator<char> > > >::const_iterator::const_iterator
; Function compile flags: /Odt
_TEXT	ENDS
;	COMDAT ??Gconst_iterator@?$vector@V?$basic_string@DU?$char_traits@D@std@@V?$allocator@D@2@@std@@V?$allocator@V?$basic_string@DU?$char_traits@D@std@@V?$allocator@D@2@@std@@@2@@std@@QBEHABV012@@Z
_TEXT	SEGMENT
_this$ = -4						; size = 4
__Right$ = 8						; size = 4
??Gconst_iterator@?$vector@V?$basic_string@DU?$char_traits@D@std@@V?$allocator@D@2@@std@@V?$allocator@V?$basic_string@DU?$char_traits@D@std@@V?$allocator@D@2@@std@@@2@@std@@QBEHABV012@@Z PROC NEAR ; std::vector<std::basic_string<char,std::char_traits<char>,std::allocator<char> >,std::allocator<std::basic_string<char,std::char_traits<char>,std::allocator<char> > > >::const_iterator::operator-, COMDAT
; _this$ = ecx

; 140  : 			{	// return difference of iterators

  00000	55		 push	 ebp
  00001	8b ec		 mov	 ebp, esp
  00003	51		 push	 ecx
  00004	89 4d fc	 mov	 DWORD PTR _this$[ebp], ecx

; 141  : 
; 142  : 
; 143  : 			return (_Myptr - _Right._Myptr);

  00007	8b 45 fc	 mov	 eax, DWORD PTR _this$[ebp]
  0000a	8b 4d 08	 mov	 ecx, DWORD PTR __Right$[ebp]
  0000d	8b 00		 mov	 eax, DWORD PTR [eax]
  0000f	2b 01		 sub	 eax, DWORD PTR [ecx]
  00011	99		 cdq
  00012	b9 1c 00 00 00	 mov	 ecx, 28			; 0000001cH
  00017	f7 f9		 idiv	 ecx

; 144  : 			}

  00019	8b e5		 mov	 esp, ebp
  0001b	5d		 pop	 ebp
  0001c	c2 04 00	 ret	 4
??Gconst_iterator@?$vector@V?$basic_string@DU?$char_traits@D@std@@V?$allocator@D@2@@std@@V?$allocator@V?$basic_string@DU?$char_traits@D@std@@V?$allocator@D@2@@std@@@2@@std@@QBEHABV012@@Z ENDP ; std::vector<std::basic_string<char,std::char_traits<char>,std::allocator<char> >,std::allocator<std::basic_string<char,std::char_traits<char>,std::allocator<char> > > >::const_iterator::operator-
_TEXT	ENDS
PUBLIC	??$_Ptr_cat@PAV?$basic_string@DU?$char_traits@D@std@@V?$allocator@D@2@@std@@PAV12@@std@@YA?AU_Nonscalar_ptr_iterator_tag@0@AAPAV?$basic_string@DU?$char_traits@D@std@@V?$allocator@D@2@@0@0@Z ; std::_Ptr_cat<std::basic_string<char,std::char_traits<char>,std::allocator<char> > *,std::basic_string<char,std::char_traits<char>,std::allocator<char> > *>
PUBLIC	??$_Uninit_fill_n@PAV?$basic_string@DU?$char_traits@D@std@@V?$allocator@D@2@@std@@IV12@V?$allocator@V?$basic_string@DU?$char_traits@D@std@@V?$allocator@D@2@@std@@@2@@std@@YAXPAV?$basic_string@DU?$char_traits@D@std@@V?$allocator@D@2@@0@IABV10@AAV?$allocator@V?$basic_string@DU?$char_traits@D@std@@V?$allocator@D@2@@std@@@0@U_Nonscalar_ptr_iterator_tag@0@@Z ; std::_Uninit_fill_n<std::basic_string<char,std::char_traits<char>,std::allocator<char> > *,unsigned int,std::basic_string<char,std::char_traits<char>,std::allocator<char> >,std::allocator<std::basic_string<char,std::char_traits<char>,std::allocator<char> > > >
; Function compile flags: /Odt
; File d:\program files (x86)\microsoft visual studio .net 2003\vc7\include\memory
;	COMDAT ??$_Uninitialized_fill_n@PAV?$basic_string@DU?$char_traits@D@std@@V?$allocator@D@2@@std@@IV12@V?$allocator@V?$basic_string@DU?$char_traits@D@std@@V?$allocator@D@2@@std@@@2@@std@@YAXPAV?$basic_string@DU?$char_traits@D@std@@V?$allocator@D@2@@0@IABV10@AAV?$allocator@V?$basic_string@DU?$char_traits@D@std@@V?$allocator@D@2@@std@@@0@@Z
_TEXT	SEGMENT
$T200434 = -1						; size = 1
__First$ = 8						; size = 4
__Count$ = 12						; size = 4
__Val$ = 16						; size = 4
__Al$ = 20						; size = 4
??$_Uninitialized_fill_n@PAV?$basic_string@DU?$char_traits@D@std@@V?$allocator@D@2@@std@@IV12@V?$allocator@V?$basic_string@DU?$char_traits@D@std@@V?$allocator@D@2@@std@@@2@@std@@YAXPAV?$basic_string@DU?$char_traits@D@std@@V?$allocator@D@2@@0@IABV10@AAV?$allocator@V?$basic_string@DU?$char_traits@D@std@@V?$allocator@D@2@@std@@@0@@Z PROC NEAR ; std::_Uninitialized_fill_n<std::basic_string<char,std::char_traits<char>,std::allocator<char> > *,unsigned int,std::basic_string<char,std::char_traits<char>,std::allocator<char> >,std::allocator<std::basic_string<char,std::char_traits<char>,std::allocator<char> > > >, COMDAT

; 255  : 	{	// copy _Count *_Val to raw _First, using _Al

  00000	55		 push	 ebp
  00001	8b ec		 mov	 ebp, esp
  00003	51		 push	 ecx

; 256  : 	_Uninit_fill_n(_First, _Count, _Val, _Al,
; 257  : 		_Ptr_cat(_First, _First));

  00004	8d 45 08	 lea	 eax, DWORD PTR __First$[ebp]
  00007	50		 push	 eax
  00008	8d 4d 08	 lea	 ecx, DWORD PTR __First$[ebp]
  0000b	51		 push	 ecx
  0000c	e8 00 00 00 00	 call	 ??$_Ptr_cat@PAV?$basic_string@DU?$char_traits@D@std@@V?$allocator@D@2@@std@@PAV12@@std@@YA?AU_Nonscalar_ptr_iterator_tag@0@AAPAV?$basic_string@DU?$char_traits@D@std@@V?$allocator@D@2@@0@0@Z ; std::_Ptr_cat<std::basic_string<char,std::char_traits<char>,std::allocator<char> > *,std::basic_string<char,std::char_traits<char>,std::allocator<char> > *>
  00011	83 c4 08	 add	 esp, 8
  00014	88 45 ff	 mov	 BYTE PTR $T200434[ebp], al
  00017	8a 55 ff	 mov	 dl, BYTE PTR $T200434[ebp]
  0001a	52		 push	 edx
  0001b	8b 45 14	 mov	 eax, DWORD PTR __Al$[ebp]
  0001e	50		 push	 eax
  0001f	8b 4d 10	 mov	 ecx, DWORD PTR __Val$[ebp]
  00022	51		 push	 ecx
  00023	8b 55 0c	 mov	 edx, DWORD PTR __Count$[ebp]
  00026	52		 push	 edx
  00027	8b 45 08	 mov	 eax, DWORD PTR __First$[ebp]
  0002a	50		 push	 eax
  0002b	e8 00 00 00 00	 call	 ??$_Uninit_fill_n@PAV?$basic_string@DU?$char_traits@D@std@@V?$allocator@D@2@@std@@IV12@V?$allocator@V?$basic_string@DU?$char_traits@D@std@@V?$allocator@D@2@@std@@@2@@std@@YAXPAV?$basic_string@DU?$char_traits@D@std@@V?$allocator@D@2@@0@IABV10@AAV?$allocator@V?$basic_string@DU?$char_traits@D@std@@V?$allocator@D@2@@std@@@0@U_Nonscalar_ptr_iterator_tag@0@@Z ; std::_Uninit_fill_n<std::basic_string<char,std::char_traits<char>,std::allocator<char> > *,unsigned int,std::basic_string<char,std::char_traits<char>,std::allocator<char> >,std::allocator<std::basic_string<char,std::char_traits<char>,std::allocator<char> > > >
  00030	83 c4 14	 add	 esp, 20			; 00000014H

; 258  : 	}

  00033	8b e5		 mov	 esp, ebp
  00035	5d		 pop	 ebp
  00036	c3		 ret	 0
??$_Uninitialized_fill_n@PAV?$basic_string@DU?$char_traits@D@std@@V?$allocator@D@2@@std@@IV12@V?$allocator@V?$basic_string@DU?$char_traits@D@std@@V?$allocator@D@2@@std@@@2@@std@@YAXPAV?$basic_string@DU?$char_traits@D@std@@V?$allocator@D@2@@0@IABV10@AAV?$allocator@V?$basic_string@DU?$char_traits@D@std@@V?$allocator@D@2@@std@@@0@@Z ENDP ; std::_Uninitialized_fill_n<std::basic_string<char,std::char_traits<char>,std::allocator<char> > *,unsigned int,std::basic_string<char,std::char_traits<char>,std::allocator<char> >,std::allocator<std::basic_string<char,std::char_traits<char>,std::allocator<char> > > >
_TEXT	ENDS
EXTRN	??2@YAPAXI@Z:NEAR				; operator new
; Function compile flags: /Odt
; File d:\program files (x86)\microsoft visual studio .net 2003\vc7\include\xmemory
;	COMDAT ??$_Allocate@V?$basic_string@DU?$char_traits@D@std@@V?$allocator@D@2@@std@@@std@@YAPAV?$basic_string@DU?$char_traits@D@std@@V?$allocator@D@2@@0@IPAV10@@Z
_TEXT	SEGMENT
__Count$ = 8						; size = 4
___formal$ = 12						; size = 4
??$_Allocate@V?$basic_string@DU?$char_traits@D@std@@V?$allocator@D@2@@std@@@std@@YAPAV?$basic_string@DU?$char_traits@D@std@@V?$allocator@D@2@@0@IPAV10@@Z PROC NEAR ; std::_Allocate<std::basic_string<char,std::char_traits<char>,std::allocator<char> > >, COMDAT

; 33   : 	{	// allocate storage for _Count elements of type _Ty

  00000	55		 push	 ebp
  00001	8b ec		 mov	 ebp, esp

; 34   : 	return ((_Ty _FARQ *)operator new(_Count * sizeof (_Ty)));

  00003	8b 45 08	 mov	 eax, DWORD PTR __Count$[ebp]
  00006	6b c0 1c	 imul	 eax, 28			; 0000001cH
  00009	50		 push	 eax
  0000a	e8 00 00 00 00	 call	 ??2@YAPAXI@Z		; operator new
  0000f	83 c4 04	 add	 esp, 4

; 35   : 	}

  00012	5d		 pop	 ebp
  00013	c3		 ret	 0
??$_Allocate@V?$basic_string@DU?$char_traits@D@std@@V?$allocator@D@2@@std@@@std@@YAPAV?$basic_string@DU?$char_traits@D@std@@V?$allocator@D@2@@0@IPAV10@@Z ENDP ; std::_Allocate<std::basic_string<char,std::char_traits<char>,std::allocator<char> > >
_TEXT	ENDS
PUBLIC	??$_Destroy_range@V?$basic_string@DU?$char_traits@D@std@@V?$allocator@D@2@@std@@V?$allocator@V?$basic_string@DU?$char_traits@D@std@@V?$allocator@D@2@@std@@@2@@std@@YAXPAV?$basic_string@DU?$char_traits@D@std@@V?$allocator@D@2@@0@0AAV?$allocator@V?$basic_string@DU?$char_traits@D@std@@V?$allocator@D@2@@std@@@0@U_Nonscalar_ptr_iterator_tag@0@@Z ; std::_Destroy_range<std::basic_string<char,std::char_traits<char>,std::allocator<char> >,std::allocator<std::basic_string<char,std::char_traits<char>,std::allocator<char> > > >
; Function compile flags: /Odt
;	COMDAT ??$_Destroy_range@V?$basic_string@DU?$char_traits@D@std@@V?$allocator@D@2@@std@@V?$allocator@V?$basic_string@DU?$char_traits@D@std@@V?$allocator@D@2@@std@@@2@@std@@YAXPAV?$basic_string@DU?$char_traits@D@std@@V?$allocator@D@2@@0@0AAV?$allocator@V?$basic_string@DU?$char_traits@D@std@@V?$allocator@D@2@@std@@@0@@Z
_TEXT	SEGMENT
$T200439 = -1						; size = 1
__First$ = 8						; size = 4
__Last$ = 12						; size = 4
__Al$ = 16						; size = 4
??$_Destroy_range@V?$basic_string@DU?$char_traits@D@std@@V?$allocator@D@2@@std@@V?$allocator@V?$basic_string@DU?$char_traits@D@std@@V?$allocator@D@2@@std@@@2@@std@@YAXPAV?$basic_string@DU?$char_traits@D@std@@V?$allocator@D@2@@0@0AAV?$allocator@V?$basic_string@DU?$char_traits@D@std@@V?$allocator@D@2@@std@@@0@@Z PROC NEAR ; std::_Destroy_range<std::basic_string<char,std::char_traits<char>,std::allocator<char> >,std::allocator<std::basic_string<char,std::char_traits<char>,std::allocator<char> > > >, COMDAT

; 216  : 	{	// destroy [_First, _Last)

  00000	55		 push	 ebp
  00001	8b ec		 mov	 ebp, esp
  00003	51		 push	 ecx

; 217  : 	_Destroy_range(_First, _Last, _Al, _Ptr_cat(_First, _Last));

  00004	8d 45 0c	 lea	 eax, DWORD PTR __Last$[ebp]
  00007	50		 push	 eax
  00008	8d 4d 08	 lea	 ecx, DWORD PTR __First$[ebp]
  0000b	51		 push	 ecx
  0000c	e8 00 00 00 00	 call	 ??$_Ptr_cat@PAV?$basic_string@DU?$char_traits@D@std@@V?$allocator@D@2@@std@@PAV12@@std@@YA?AU_Nonscalar_ptr_iterator_tag@0@AAPAV?$basic_string@DU?$char_traits@D@std@@V?$allocator@D@2@@0@0@Z ; std::_Ptr_cat<std::basic_string<char,std::char_traits<char>,std::allocator<char> > *,std::basic_string<char,std::char_traits<char>,std::allocator<char> > *>
  00011	83 c4 08	 add	 esp, 8
  00014	88 45 ff	 mov	 BYTE PTR $T200439[ebp], al
  00017	8a 55 ff	 mov	 dl, BYTE PTR $T200439[ebp]
  0001a	52		 push	 edx
  0001b	8b 45 10	 mov	 eax, DWORD PTR __Al$[ebp]
  0001e	50		 push	 eax
  0001f	8b 4d 0c	 mov	 ecx, DWORD PTR __Last$[ebp]
  00022	51		 push	 ecx
  00023	8b 55 08	 mov	 edx, DWORD PTR __First$[ebp]
  00026	52		 push	 edx
  00027	e8 00 00 00 00	 call	 ??$_Destroy_range@V?$basic_string@DU?$char_traits@D@std@@V?$allocator@D@2@@std@@V?$allocator@V?$basic_string@DU?$char_traits@D@std@@V?$allocator@D@2@@std@@@2@@std@@YAXPAV?$basic_string@DU?$char_traits@D@std@@V?$allocator@D@2@@0@0AAV?$allocator@V?$basic_string@DU?$char_traits@D@std@@V?$allocator@D@2@@std@@@0@U_Nonscalar_ptr_iterator_tag@0@@Z ; std::_Destroy_range<std::basic_string<char,std::char_traits<char>,std::allocator<char> >,std::allocator<std::basic_string<char,std::char_traits<char>,std::allocator<char> > > >
  0002c	83 c4 10	 add	 esp, 16			; 00000010H

; 218  : 	}

  0002f	8b e5		 mov	 esp, ebp
  00031	5d		 pop	 ebp
  00032	c3		 ret	 0
??$_Destroy_range@V?$basic_string@DU?$char_traits@D@std@@V?$allocator@D@2@@std@@V?$allocator@V?$basic_string@DU?$char_traits@D@std@@V?$allocator@D@2@@std@@@2@@std@@YAXPAV?$basic_string@DU?$char_traits@D@std@@V?$allocator@D@2@@0@0AAV?$allocator@V?$basic_string@DU?$char_traits@D@std@@V?$allocator@D@2@@std@@@0@@Z ENDP ; std::_Destroy_range<std::basic_string<char,std::char_traits<char>,std::allocator<char> >,std::allocator<std::basic_string<char,std::char_traits<char>,std::allocator<char> > > >
_TEXT	ENDS
PUBLIC	??$_Uninitialized_copy@PAV?$basic_string@DU?$char_traits@D@std@@V?$allocator@D@2@@std@@PAV12@V?$allocator@V?$basic_string@DU?$char_traits@D@std@@V?$allocator@D@2@@std@@@2@@std@@YAPAV?$basic_string@DU?$char_traits@D@std@@V?$allocator@D@2@@0@PAV10@00AAV?$allocator@V?$basic_string@DU?$char_traits@D@std@@V?$allocator@D@2@@std@@@0@@Z ; std::_Uninitialized_copy<std::basic_string<char,std::char_traits<char>,std::allocator<char> > *,std::basic_string<char,std::char_traits<char>,std::allocator<char> > *,std::allocator<std::basic_string<char,std::char_traits<char>,std::allocator<char> > > >
; Function compile flags: /Odt
; File d:\program files (x86)\microsoft visual studio .net 2003\vc7\include\vector
;	COMDAT ??$_Ucopy@PAV?$basic_string@DU?$char_traits@D@std@@V?$allocator@D@2@@std@@@?$vector@V?$basic_string@DU?$char_traits@D@std@@V?$allocator@D@2@@std@@V?$allocator@V?$basic_string@DU?$char_traits@D@std@@V?$allocator@D@2@@std@@@2@@std@@IAEPAV?$basic_string@DU?$char_traits@D@std@@V?$allocator@D@2@@1@PAV21@00@Z
_TEXT	SEGMENT
_this$ = -4						; size = 4
__First$ = 8						; size = 4
__Last$ = 12						; size = 4
__Ptr$ = 16						; size = 4
??$_Ucopy@PAV?$basic_string@DU?$char_traits@D@std@@V?$allocator@D@2@@std@@@?$vector@V?$basic_string@DU?$char_traits@D@std@@V?$allocator@D@2@@std@@V?$allocator@V?$basic_string@DU?$char_traits@D@std@@V?$allocator@D@2@@std@@@2@@std@@IAEPAV?$basic_string@DU?$char_traits@D@std@@V?$allocator@D@2@@1@PAV21@00@Z PROC NEAR ; std::vector<std::basic_string<char,std::char_traits<char>,std::allocator<char> >,std::allocator<std::basic_string<char,std::char_traits<char>,std::allocator<char> > > >::_Ucopy<std::basic_string<char,std::char_traits<char>,std::allocator<char> > *>, COMDAT
; _this$ = ecx

; 801  : 		pointer _Ucopy(_Iter _First, _Iter _Last, pointer _Ptr)

  00000	55		 push	 ebp
  00001	8b ec		 mov	 ebp, esp
  00003	51		 push	 ecx
  00004	89 4d fc	 mov	 DWORD PTR _this$[ebp], ecx

; 802  : 		{	// copy initializing [_First, _Last), using allocator
; 803  : 		return (_Uninitialized_copy(_First, _Last,
; 804  : 			_Ptr, this->_Alval));

  00007	8b 45 fc	 mov	 eax, DWORD PTR _this$[ebp]
  0000a	50		 push	 eax
  0000b	8b 4d 10	 mov	 ecx, DWORD PTR __Ptr$[ebp]
  0000e	51		 push	 ecx
  0000f	8b 55 0c	 mov	 edx, DWORD PTR __Last$[ebp]
  00012	52		 push	 edx
  00013	8b 45 08	 mov	 eax, DWORD PTR __First$[ebp]
  00016	50		 push	 eax
  00017	e8 00 00 00 00	 call	 ??$_Uninitialized_copy@PAV?$basic_string@DU?$char_traits@D@std@@V?$allocator@D@2@@std@@PAV12@V?$allocator@V?$basic_string@DU?$char_traits@D@std@@V?$allocator@D@2@@std@@@2@@std@@YAPAV?$basic_string@DU?$char_traits@D@std@@V?$allocator@D@2@@0@PAV10@00AAV?$allocator@V?$basic_string@DU?$char_traits@D@std@@V?$allocator@D@2@@std@@@0@@Z ; std::_Uninitialized_copy<std::basic_string<char,std::char_traits<char>,std::allocator<char> > *,std::basic_string<char,std::char_traits<char>,std::allocator<char> > *,std::allocator<std::basic_string<char,std::char_traits<char>,std::allocator<char> > > >
  0001c	83 c4 10	 add	 esp, 16			; 00000010H

; 805  : 		}

  0001f	8b e5		 mov	 esp, ebp
  00021	5d		 pop	 ebp
  00022	c2 0c 00	 ret	 12			; 0000000cH
??$_Ucopy@PAV?$basic_string@DU?$char_traits@D@std@@V?$allocator@D@2@@std@@@?$vector@V?$basic_string@DU?$char_traits@D@std@@V?$allocator@D@2@@std@@V?$allocator@V?$basic_string@DU?$char_traits@D@std@@V?$allocator@D@2@@std@@@2@@std@@IAEPAV?$basic_string@DU?$char_traits@D@std@@V?$allocator@D@2@@1@PAV21@00@Z ENDP ; std::vector<std::basic_string<char,std::char_traits<char>,std::allocator<char> >,std::allocator<std::basic_string<char,std::char_traits<char>,std::allocator<char> > > >::_Ucopy<std::basic_string<char,std::char_traits<char>,std::allocator<char> > *>
_TEXT	ENDS
EXTRN	__imp_??4?$basic_string@DU?$char_traits@D@std@@V?$allocator@D@2@@std@@QAEAAV01@ABV01@@Z:NEAR
; Function compile flags: /Odt
; File d:\program files (x86)\microsoft visual studio .net 2003\vc7\include\xutility
;	COMDAT ??$fill@PAV?$basic_string@DU?$char_traits@D@std@@V?$allocator@D@2@@std@@V12@@std@@YAXPAV?$basic_string@DU?$char_traits@D@std@@V?$allocator@D@2@@0@0ABV10@@Z
_TEXT	SEGMENT
__First$ = 8						; size = 4
__Last$ = 12						; size = 4
__Val$ = 16						; size = 4
??$fill@PAV?$basic_string@DU?$char_traits@D@std@@V?$allocator@D@2@@std@@V12@@std@@YAXPAV?$basic_string@DU?$char_traits@D@std@@V?$allocator@D@2@@0@0ABV10@@Z PROC NEAR ; std::fill<std::basic_string<char,std::char_traits<char>,std::allocator<char> > *,std::basic_string<char,std::char_traits<char>,std::allocator<char> > >, COMDAT

; 1134 : 	{	// copy _Val through [_First, _Last)

  00000	55		 push	 ebp
  00001	8b ec		 mov	 ebp, esp

; 1135 : 	for (; _First != _Last; ++_First)

  00003	eb 09		 jmp	 SHORT $L199349
$L199350:
  00005	8b 45 08	 mov	 eax, DWORD PTR __First$[ebp]
  00008	83 c0 1c	 add	 eax, 28			; 0000001cH
  0000b	89 45 08	 mov	 DWORD PTR __First$[ebp], eax
$L199349:
  0000e	8b 4d 08	 mov	 ecx, DWORD PTR __First$[ebp]
  00011	3b 4d 0c	 cmp	 ecx, DWORD PTR __Last$[ebp]
  00014	74 0f		 je	 SHORT $L199348

; 1136 : 		*_First = _Val;

  00016	8b 55 10	 mov	 edx, DWORD PTR __Val$[ebp]
  00019	52		 push	 edx
  0001a	8b 4d 08	 mov	 ecx, DWORD PTR __First$[ebp]
  0001d	ff 15 00 00 00
	00		 call	 DWORD PTR __imp_??4?$basic_string@DU?$char_traits@D@std@@V?$allocator@D@2@@std@@QAEAAV01@ABV01@@Z
  00023	eb e0		 jmp	 SHORT $L199350
$L199348:

; 1137 : 	}

  00025	5d		 pop	 ebp
  00026	c3		 ret	 0
??$fill@PAV?$basic_string@DU?$char_traits@D@std@@V?$allocator@D@2@@std@@V12@@std@@YAXPAV?$basic_string@DU?$char_traits@D@std@@V?$allocator@D@2@@0@0ABV10@@Z ENDP ; std::fill<std::basic_string<char,std::char_traits<char>,std::allocator<char> > *,std::basic_string<char,std::char_traits<char>,std::allocator<char> > >
_TEXT	ENDS
PUBLIC	??$_Copy_backward_opt@PAV?$basic_string@DU?$char_traits@D@std@@V?$allocator@D@2@@std@@PAV12@@std@@YAPAV?$basic_string@DU?$char_traits@D@std@@V?$allocator@D@2@@0@PAV10@00U_Nonscalar_ptr_iterator_tag@0@@Z ; std::_Copy_backward_opt<std::basic_string<char,std::char_traits<char>,std::allocator<char> > *,std::basic_string<char,std::char_traits<char>,std::allocator<char> > *>
; Function compile flags: /Odt
;	COMDAT ??$copy_backward@PAV?$basic_string@DU?$char_traits@D@std@@V?$allocator@D@2@@std@@PAV12@@std@@YAPAV?$basic_string@DU?$char_traits@D@std@@V?$allocator@D@2@@0@PAV10@00@Z
_TEXT	SEGMENT
$T200446 = -1						; size = 1
__First$ = 8						; size = 4
__Last$ = 12						; size = 4
__Dest$ = 16						; size = 4
??$copy_backward@PAV?$basic_string@DU?$char_traits@D@std@@V?$allocator@D@2@@std@@PAV12@@std@@YAPAV?$basic_string@DU?$char_traits@D@std@@V?$allocator@D@2@@0@PAV10@00@Z PROC NEAR ; std::copy_backward<std::basic_string<char,std::char_traits<char>,std::allocator<char> > *,std::basic_string<char,std::char_traits<char>,std::allocator<char> > *>, COMDAT

; 1067 : 	{	// copy [_First, _Last) backwards to [..., _Dest)

  00000	55		 push	 ebp
  00001	8b ec		 mov	 ebp, esp
  00003	51		 push	 ecx

; 1068 : 	return (_Copy_backward_opt(_First, _Last, _Dest,
; 1069 : 		_Ptr_cat(_First, _Dest)));

  00004	8d 45 10	 lea	 eax, DWORD PTR __Dest$[ebp]
  00007	50		 push	 eax
  00008	8d 4d 08	 lea	 ecx, DWORD PTR __First$[ebp]
  0000b	51		 push	 ecx
  0000c	e8 00 00 00 00	 call	 ??$_Ptr_cat@PAV?$basic_string@DU?$char_traits@D@std@@V?$allocator@D@2@@std@@PAV12@@std@@YA?AU_Nonscalar_ptr_iterator_tag@0@AAPAV?$basic_string@DU?$char_traits@D@std@@V?$allocator@D@2@@0@0@Z ; std::_Ptr_cat<std::basic_string<char,std::char_traits<char>,std::allocator<char> > *,std::basic_string<char,std::char_traits<char>,std::allocator<char> > *>
  00011	83 c4 08	 add	 esp, 8
  00014	88 45 ff	 mov	 BYTE PTR $T200446[ebp], al
  00017	8a 55 ff	 mov	 dl, BYTE PTR $T200446[ebp]
  0001a	52		 push	 edx
  0001b	8b 45 10	 mov	 eax, DWORD PTR __Dest$[ebp]
  0001e	50		 push	 eax
  0001f	8b 4d 0c	 mov	 ecx, DWORD PTR __Last$[ebp]
  00022	51		 push	 ecx
  00023	8b 55 08	 mov	 edx, DWORD PTR __First$[ebp]
  00026	52		 push	 edx
  00027	e8 00 00 00 00	 call	 ??$_Copy_backward_opt@PAV?$basic_string@DU?$char_traits@D@std@@V?$allocator@D@2@@std@@PAV12@@std@@YAPAV?$basic_string@DU?$char_traits@D@std@@V?$allocator@D@2@@0@PAV10@00U_Nonscalar_ptr_iterator_tag@0@@Z ; std::_Copy_backward_opt<std::basic_string<char,std::char_traits<char>,std::allocator<char> > *,std::basic_string<char,std::char_traits<char>,std::allocator<char> > *>
  0002c	83 c4 10	 add	 esp, 16			; 00000010H

; 1070 : 	}

  0002f	8b e5		 mov	 esp, ebp
  00031	5d		 pop	 ebp
  00032	c3		 ret	 0
??$copy_backward@PAV?$basic_string@DU?$char_traits@D@std@@V?$allocator@D@2@@std@@PAV12@@std@@YAPAV?$basic_string@DU?$char_traits@D@std@@V?$allocator@D@2@@0@PAV10@00@Z ENDP ; std::copy_backward<std::basic_string<char,std::char_traits<char>,std::allocator<char> > *,std::basic_string<char,std::char_traits<char>,std::allocator<char> > *>
; Function compile flags: /Odt
_TEXT	ENDS
;	COMDAT ??$_Ptr_cat@PAV?$basic_string@DU?$char_traits@D@std@@V?$allocator@D@2@@std@@PAV12@@std@@YA?AU_Nonscalar_ptr_iterator_tag@0@AAPAV?$basic_string@DU?$char_traits@D@std@@V?$allocator@D@2@@0@0@Z
_TEXT	SEGMENT
__Cat$ = -1						; size = 1
___formal$ = 8						; size = 4
___formal$ = 12						; size = 4
??$_Ptr_cat@PAV?$basic_string@DU?$char_traits@D@std@@V?$allocator@D@2@@std@@PAV12@@std@@YA?AU_Nonscalar_ptr_iterator_tag@0@AAPAV?$basic_string@DU?$char_traits@D@std@@V?$allocator@D@2@@0@0@Z PROC NEAR ; std::_Ptr_cat<std::basic_string<char,std::char_traits<char>,std::allocator<char> > *,std::basic_string<char,std::char_traits<char>,std::allocator<char> > *>, COMDAT

; 211  : 	{	// return pointer category from arbitrary arguments

  00000	55		 push	 ebp
  00001	8b ec		 mov	 ebp, esp
  00003	51		 push	 ecx

; 212  : 	_Nonscalar_ptr_iterator_tag _Cat;
; 213  : 	return (_Cat);

  00004	8a 45 ff	 mov	 al, BYTE PTR __Cat$[ebp]

; 214  : 	}

  00007	8b e5		 mov	 esp, ebp
  00009	5d		 pop	 ebp
  0000a	c3		 ret	 0
??$_Ptr_cat@PAV?$basic_string@DU?$char_traits@D@std@@V?$allocator@D@2@@std@@PAV12@@std@@YA?AU_Nonscalar_ptr_iterator_tag@0@AAPAV?$basic_string@DU?$char_traits@D@std@@V?$allocator@D@2@@0@0@Z ENDP ; std::_Ptr_cat<std::basic_string<char,std::char_traits<char>,std::allocator<char> > *,std::basic_string<char,std::char_traits<char>,std::allocator<char> > *>
_TEXT	ENDS
PUBLIC	?construct@?$allocator@V?$basic_string@DU?$char_traits@D@std@@V?$allocator@D@2@@std@@@std@@QAEXPAV?$basic_string@DU?$char_traits@D@std@@V?$allocator@D@2@@2@ABV32@@Z ; std::allocator<std::basic_string<char,std::char_traits<char>,std::allocator<char> > >::construct
PUBLIC	?destroy@?$allocator@V?$basic_string@DU?$char_traits@D@std@@V?$allocator@D@2@@std@@@std@@QAEXPAV?$basic_string@DU?$char_traits@D@std@@V?$allocator@D@2@@2@@Z ; std::allocator<std::basic_string<char,std::char_traits<char>,std::allocator<char> > >::destroy
;	COMDAT xdata$x
; File d:\program files (x86)\microsoft visual studio .net 2003\vc7\include\memory
xdata$x	SEGMENT
$T200456 DD	0ffffffffH
	DD	00H
	DD	0ffffffffH
	DD	00H
$T200458 DD	00H
	DD	00H
	DD	00H
	DD	FLAT:$L200452
$T200457 DD	00H
	DD	00H
	DD	01H
	DD	01H
	DD	FLAT:$T200458
$T200454 DD	019930520H
	DD	02H
	DD	FLAT:$T200456
	DD	01H
	DD	FLAT:$T200457
	DD	2 DUP(00H)
; Function compile flags: /Odt
xdata$x	ENDS
;	COMDAT ??$_Uninit_fill_n@PAV?$basic_string@DU?$char_traits@D@std@@V?$allocator@D@2@@std@@IV12@V?$allocator@V?$basic_string@DU?$char_traits@D@std@@V?$allocator@D@2@@std@@@2@@std@@YAXPAV?$basic_string@DU?$char_traits@D@std@@V?$allocator@D@2@@0@IABV10@AAV?$allocator@V?$basic_string@DU?$char_traits@D@std@@V?$allocator@D@2@@std@@@0@U_Nonscalar_ptr_iterator_tag@0@@Z
_TEXT	SEGMENT
__Next$ = -20						; size = 4
__$EHRec$ = -16						; size = 16
__First$ = 8						; size = 4
__Count$ = 12						; size = 4
__Val$ = 16						; size = 4
__Al$ = 20						; size = 4
___formal$ = 24						; size = 1
??$_Uninit_fill_n@PAV?$basic_string@DU?$char_traits@D@std@@V?$allocator@D@2@@std@@IV12@V?$allocator@V?$basic_string@DU?$char_traits@D@std@@V?$allocator@D@2@@std@@@2@@std@@YAXPAV?$basic_string@DU?$char_traits@D@std@@V?$allocator@D@2@@0@IABV10@AAV?$allocator@V?$basic_string@DU?$char_traits@D@std@@V?$allocator@D@2@@std@@@0@U_Nonscalar_ptr_iterator_tag@0@@Z PROC NEAR ; std::_Uninit_fill_n<std::basic_string<char,std::char_traits<char>,std::allocator<char> > *,unsigned int,std::basic_string<char,std::char_traits<char>,std::allocator<char> >,std::allocator<std::basic_string<char,std::char_traits<char>,std::allocator<char> > > >, COMDAT

; 207  : 	{	// copy _Count *_Val to raw _First, using _Al, arbitrary type

  00000	55		 push	 ebp
  00001	8b ec		 mov	 ebp, esp
  00003	6a ff		 push	 -1
  00005	68 00 00 00 00	 push	 __ehhandler$??$_Uninit_fill_n@PAV?$basic_string@DU?$char_traits@D@std@@V?$allocator@D@2@@std@@IV12@V?$allocator@V?$basic_string@DU?$char_traits@D@std@@V?$allocator@D@2@@std@@@2@@std@@YAXPAV?$basic_string@DU?$char_traits@D@std@@V?$allocator@D@2@@0@IABV10@AAV?$allocator@V?$basic_string@DU?$char_traits@D@std@@V?$allocator@D@2@@std@@@0@U_Nonscalar_ptr_iterator_tag@0@@Z
  0000a	64 a1 00 00 00
	00		 mov	 eax, DWORD PTR fs:__except_list
  00010	50		 push	 eax
  00011	64 89 25 00 00
	00 00		 mov	 DWORD PTR fs:__except_list, esp
  00018	51		 push	 ecx
  00019	51		 push	 ecx
  0001a	53		 push	 ebx
  0001b	56		 push	 esi
  0001c	57		 push	 edi
  0001d	89 65 f0	 mov	 DWORD PTR __$EHRec$[ebp], esp

; 208  : 	_FwdIt _Next = _First;

  00020	8b 45 08	 mov	 eax, DWORD PTR __First$[ebp]
  00023	89 45 ec	 mov	 DWORD PTR __Next$[ebp], eax

; 209  : 
; 210  : 	_TRY_BEGIN

  00026	c7 45 fc 00 00
	00 00		 mov	 DWORD PTR __$EHRec$[ebp+12], 0

; 211  : 	for (; 0 < _Count; --_Count, ++_First)

  0002d	eb 12		 jmp	 SHORT $L199377
$L199378:
  0002f	8b 4d 0c	 mov	 ecx, DWORD PTR __Count$[ebp]
  00032	83 e9 01	 sub	 ecx, 1
  00035	89 4d 0c	 mov	 DWORD PTR __Count$[ebp], ecx
  00038	8b 55 08	 mov	 edx, DWORD PTR __First$[ebp]
  0003b	83 c2 1c	 add	 edx, 28			; 0000001cH
  0003e	89 55 08	 mov	 DWORD PTR __First$[ebp], edx
$L199377:
  00041	83 7d 0c 00	 cmp	 DWORD PTR __Count$[ebp], 0
  00045	76 12		 jbe	 SHORT $L199379

; 212  : 		_Al.construct(_First, _Val);

  00047	8b 45 10	 mov	 eax, DWORD PTR __Val$[ebp]
  0004a	50		 push	 eax
  0004b	8b 4d 08	 mov	 ecx, DWORD PTR __First$[ebp]
  0004e	51		 push	 ecx
  0004f	8b 4d 14	 mov	 ecx, DWORD PTR __Al$[ebp]
  00052	e8 00 00 00 00	 call	 ?construct@?$allocator@V?$basic_string@DU?$char_traits@D@std@@V?$allocator@D@2@@std@@@std@@QAEXPAV?$basic_string@DU?$char_traits@D@std@@V?$allocator@D@2@@2@ABV32@@Z ; std::allocator<std::basic_string<char,std::char_traits<char>,std::allocator<char> > >::construct
  00057	eb d6		 jmp	 SHORT $L199378
$L199379:
  00059	eb 2a		 jmp	 SHORT $L200451
$L200452:

; 213  : 	_CATCH_ALL
; 214  : 	for (; _Next != _First; ++_Next)

  0005b	eb 09		 jmp	 SHORT $L199380
$L199381:
  0005d	8b 55 ec	 mov	 edx, DWORD PTR __Next$[ebp]
  00060	83 c2 1c	 add	 edx, 28			; 0000001cH
  00063	89 55 ec	 mov	 DWORD PTR __Next$[ebp], edx
$L199380:
  00066	8b 45 ec	 mov	 eax, DWORD PTR __Next$[ebp]
  00069	3b 45 08	 cmp	 eax, DWORD PTR __First$[ebp]
  0006c	74 0e		 je	 SHORT $L199382

; 215  : 		_Al.destroy(_Next);

  0006e	8b 4d ec	 mov	 ecx, DWORD PTR __Next$[ebp]
  00071	51		 push	 ecx
  00072	8b 4d 14	 mov	 ecx, DWORD PTR __Al$[ebp]
  00075	e8 00 00 00 00	 call	 ?destroy@?$allocator@V?$basic_string@DU?$char_traits@D@std@@V?$allocator@D@2@@std@@@std@@QAEXPAV?$basic_string@DU?$char_traits@D@std@@V?$allocator@D@2@@2@@Z ; std::allocator<std::basic_string<char,std::char_traits<char>,std::allocator<char> > >::destroy
  0007a	eb e1		 jmp	 SHORT $L199381
$L199382:

; 216  : 	_RERAISE;

  0007c	6a 00		 push	 0
  0007e	6a 00		 push	 0
  00080	e8 00 00 00 00	 call	 __CxxThrowException@8
$L200451:

; 217  : 	_CATCH_END

  00085	c7 45 fc ff ff
	ff ff		 mov	 DWORD PTR __$EHRec$[ebp+12], -1
$L200450:

; 218  : 	}

  0008c	8b 4d f4	 mov	 ecx, DWORD PTR __$EHRec$[ebp+4]
  0008f	64 89 0d 00 00
	00 00		 mov	 DWORD PTR fs:__except_list, ecx
  00096	5f		 pop	 edi
  00097	5e		 pop	 esi
  00098	5b		 pop	 ebx
  00099	8b e5		 mov	 esp, ebp
  0009b	5d		 pop	 ebp
  0009c	c3		 ret	 0
_TEXT	ENDS
;	COMDAT text$x
text$x	SEGMENT
__ehhandler$??$_Uninit_fill_n@PAV?$basic_string@DU?$char_traits@D@std@@V?$allocator@D@2@@std@@IV12@V?$allocator@V?$basic_string@DU?$char_traits@D@std@@V?$allocator@D@2@@std@@@2@@std@@YAXPAV?$basic_string@DU?$char_traits@D@std@@V?$allocator@D@2@@0@IABV10@AAV?$allocator@V?$basic_string@DU?$char_traits@D@std@@V?$allocator@D@2@@std@@@0@U_Nonscalar_ptr_iterator_tag@0@@Z:
  00000	b8 00 00 00 00	 mov	 eax, OFFSET FLAT:$T200454
  00005	e9 00 00 00 00	 jmp	 ___CxxFrameHandler
text$x	ENDS
??$_Uninit_fill_n@PAV?$basic_string@DU?$char_traits@D@std@@V?$allocator@D@2@@std@@IV12@V?$allocator@V?$basic_string@DU?$char_traits@D@std@@V?$allocator@D@2@@std@@@2@@std@@YAXPAV?$basic_string@DU?$char_traits@D@std@@V?$allocator@D@2@@0@IABV10@AAV?$allocator@V?$basic_string@DU?$char_traits@D@std@@V?$allocator@D@2@@std@@@0@U_Nonscalar_ptr_iterator_tag@0@@Z ENDP ; std::_Uninit_fill_n<std::basic_string<char,std::char_traits<char>,std::allocator<char> > *,unsigned int,std::basic_string<char,std::char_traits<char>,std::allocator<char> >,std::allocator<std::basic_string<char,std::char_traits<char>,std::allocator<char> > > >
; Function compile flags: /Odt
; File d:\program files (x86)\microsoft visual studio .net 2003\vc7\include\xmemory
;	COMDAT ??$_Destroy_range@V?$basic_string@DU?$char_traits@D@std@@V?$allocator@D@2@@std@@V?$allocator@V?$basic_string@DU?$char_traits@D@std@@V?$allocator@D@2@@std@@@2@@std@@YAXPAV?$basic_string@DU?$char_traits@D@std@@V?$allocator@D@2@@0@0AAV?$allocator@V?$basic_string@DU?$char_traits@D@std@@V?$allocator@D@2@@std@@@0@U_Nonscalar_ptr_iterator_tag@0@@Z
_TEXT	SEGMENT
__First$ = 8						; size = 4
__Last$ = 12						; size = 4
__Al$ = 16						; size = 4
___formal$ = 20						; size = 1
??$_Destroy_range@V?$basic_string@DU?$char_traits@D@std@@V?$allocator@D@2@@std@@V?$allocator@V?$basic_string@DU?$char_traits@D@std@@V?$allocator@D@2@@std@@@2@@std@@YAXPAV?$basic_string@DU?$char_traits@D@std@@V?$allocator@D@2@@0@0AAV?$allocator@V?$basic_string@DU?$char_traits@D@std@@V?$allocator@D@2@@std@@@0@U_Nonscalar_ptr_iterator_tag@0@@Z PROC NEAR ; std::_Destroy_range<std::basic_string<char,std::char_traits<char>,std::allocator<char> >,std::allocator<std::basic_string<char,std::char_traits<char>,std::allocator<char> > > >, COMDAT

; 224  : 	{	// destroy [_First, _Last), arbitrary type

  00000	55		 push	 ebp
  00001	8b ec		 mov	 ebp, esp

; 225  : 	for (; _First != _Last; ++_First)

  00003	eb 09		 jmp	 SHORT $L199384
$L199385:
  00005	8b 45 08	 mov	 eax, DWORD PTR __First$[ebp]
  00008	83 c0 1c	 add	 eax, 28			; 0000001cH
  0000b	89 45 08	 mov	 DWORD PTR __First$[ebp], eax
$L199384:
  0000e	8b 4d 08	 mov	 ecx, DWORD PTR __First$[ebp]
  00011	3b 4d 0c	 cmp	 ecx, DWORD PTR __Last$[ebp]
  00014	74 0e		 je	 SHORT $L199383

; 226  : 		_Al.destroy(_First);

  00016	8b 55 08	 mov	 edx, DWORD PTR __First$[ebp]
  00019	52		 push	 edx
  0001a	8b 4d 10	 mov	 ecx, DWORD PTR __Al$[ebp]
  0001d	e8 00 00 00 00	 call	 ?destroy@?$allocator@V?$basic_string@DU?$char_traits@D@std@@V?$allocator@D@2@@std@@@std@@QAEXPAV?$basic_string@DU?$char_traits@D@std@@V?$allocator@D@2@@2@@Z ; std::allocator<std::basic_string<char,std::char_traits<char>,std::allocator<char> > >::destroy
  00022	eb e1		 jmp	 SHORT $L199385
$L199383:

; 227  : 	}

  00024	5d		 pop	 ebp
  00025	c3		 ret	 0
??$_Destroy_range@V?$basic_string@DU?$char_traits@D@std@@V?$allocator@D@2@@std@@V?$allocator@V?$basic_string@DU?$char_traits@D@std@@V?$allocator@D@2@@std@@@2@@std@@YAXPAV?$basic_string@DU?$char_traits@D@std@@V?$allocator@D@2@@0@0AAV?$allocator@V?$basic_string@DU?$char_traits@D@std@@V?$allocator@D@2@@std@@@0@U_Nonscalar_ptr_iterator_tag@0@@Z ENDP ; std::_Destroy_range<std::basic_string<char,std::char_traits<char>,std::allocator<char> >,std::allocator<std::basic_string<char,std::char_traits<char>,std::allocator<char> > > >
_TEXT	ENDS
PUBLIC	??$_Uninit_copy@PAV?$basic_string@DU?$char_traits@D@std@@V?$allocator@D@2@@std@@PAV12@V?$allocator@V?$basic_string@DU?$char_traits@D@std@@V?$allocator@D@2@@std@@@2@@std@@YAPAV?$basic_string@DU?$char_traits@D@std@@V?$allocator@D@2@@0@PAV10@00AAV?$allocator@V?$basic_string@DU?$char_traits@D@std@@V?$allocator@D@2@@std@@@0@U_Nonscalar_ptr_iterator_tag@0@@Z ; std::_Uninit_copy<std::basic_string<char,std::char_traits<char>,std::allocator<char> > *,std::basic_string<char,std::char_traits<char>,std::allocator<char> > *,std::allocator<std::basic_string<char,std::char_traits<char>,std::allocator<char> > > >
; Function compile flags: /Odt
; File d:\program files (x86)\microsoft visual studio .net 2003\vc7\include\memory
;	COMDAT ??$_Uninitialized_copy@PAV?$basic_string@DU?$char_traits@D@std@@V?$allocator@D@2@@std@@PAV12@V?$allocator@V?$basic_string@DU?$char_traits@D@std@@V?$allocator@D@2@@std@@@2@@std@@YAPAV?$basic_string@DU?$char_traits@D@std@@V?$allocator@D@2@@0@PAV10@00AAV?$allocator@V?$basic_string@DU?$char_traits@D@std@@V?$allocator@D@2@@std@@@0@@Z
_TEXT	SEGMENT
$T200465 = -1						; size = 1
__First$ = 8						; size = 4
__Last$ = 12						; size = 4
__Dest$ = 16						; size = 4
__Al$ = 20						; size = 4
??$_Uninitialized_copy@PAV?$basic_string@DU?$char_traits@D@std@@V?$allocator@D@2@@std@@PAV12@V?$allocator@V?$basic_string@DU?$char_traits@D@std@@V?$allocator@D@2@@std@@@2@@std@@YAPAV?$basic_string@DU?$char_traits@D@std@@V?$allocator@D@2@@0@PAV10@00AAV?$allocator@V?$basic_string@DU?$char_traits@D@std@@V?$allocator@D@2@@std@@@0@@Z PROC NEAR ; std::_Uninitialized_copy<std::basic_string<char,std::char_traits<char>,std::allocator<char> > *,std::basic_string<char,std::char_traits<char>,std::allocator<char> > *,std::allocator<std::basic_string<char,std::char_traits<char>,std::allocator<char> > > >, COMDAT

; 126  : 	{	// copy [_First, _Last) to raw _Dest, using _Al

  00000	55		 push	 ebp
  00001	8b ec		 mov	 ebp, esp
  00003	51		 push	 ecx

; 127  : 	return (_Uninit_copy(_First, _Last, _Dest, _Al,
; 128  : 		_Ptr_cat(_First, _Dest)));

  00004	8d 45 10	 lea	 eax, DWORD PTR __Dest$[ebp]
  00007	50		 push	 eax
  00008	8d 4d 08	 lea	 ecx, DWORD PTR __First$[ebp]
  0000b	51		 push	 ecx
  0000c	e8 00 00 00 00	 call	 ??$_Ptr_cat@PAV?$basic_string@DU?$char_traits@D@std@@V?$allocator@D@2@@std@@PAV12@@std@@YA?AU_Nonscalar_ptr_iterator_tag@0@AAPAV?$basic_string@DU?$char_traits@D@std@@V?$allocator@D@2@@0@0@Z ; std::_Ptr_cat<std::basic_string<char,std::char_traits<char>,std::allocator<char> > *,std::basic_string<char,std::char_traits<char>,std::allocator<char> > *>
  00011	83 c4 08	 add	 esp, 8
  00014	88 45 ff	 mov	 BYTE PTR $T200465[ebp], al
  00017	8a 55 ff	 mov	 dl, BYTE PTR $T200465[ebp]
  0001a	52		 push	 edx
  0001b	8b 45 14	 mov	 eax, DWORD PTR __Al$[ebp]
  0001e	50		 push	 eax
  0001f	8b 4d 10	 mov	 ecx, DWORD PTR __Dest$[ebp]
  00022	51		 push	 ecx
  00023	8b 55 0c	 mov	 edx, DWORD PTR __Last$[ebp]
  00026	52		 push	 edx
  00027	8b 45 08	 mov	 eax, DWORD PTR __First$[ebp]
  0002a	50		 push	 eax
  0002b	e8 00 00 00 00	 call	 ??$_Uninit_copy@PAV?$basic_string@DU?$char_traits@D@std@@V?$allocator@D@2@@std@@PAV12@V?$allocator@V?$basic_string@DU?$char_traits@D@std@@V?$allocator@D@2@@std@@@2@@std@@YAPAV?$basic_string@DU?$char_traits@D@std@@V?$allocator@D@2@@0@PAV10@00AAV?$allocator@V?$basic_string@DU?$char_traits@D@std@@V?$allocator@D@2@@std@@@0@U_Nonscalar_ptr_iterator_tag@0@@Z ; std::_Uninit_copy<std::basic_string<char,std::char_traits<char>,std::allocator<char> > *,std::basic_string<char,std::char_traits<char>,std::allocator<char> > *,std::allocator<std::basic_string<char,std::char_traits<char>,std::allocator<char> > > >
  00030	83 c4 14	 add	 esp, 20			; 00000014H

; 129  : 	}

  00033	8b e5		 mov	 esp, ebp
  00035	5d		 pop	 ebp
  00036	c3		 ret	 0
??$_Uninitialized_copy@PAV?$basic_string@DU?$char_traits@D@std@@V?$allocator@D@2@@std@@PAV12@V?$allocator@V?$basic_string@DU?$char_traits@D@std@@V?$allocator@D@2@@std@@@2@@std@@YAPAV?$basic_string@DU?$char_traits@D@std@@V?$allocator@D@2@@0@PAV10@00AAV?$allocator@V?$basic_string@DU?$char_traits@D@std@@V?$allocator@D@2@@std@@@0@@Z ENDP ; std::_Uninitialized_copy<std::basic_string<char,std::char_traits<char>,std::allocator<char> > *,std::basic_string<char,std::char_traits<char>,std::allocator<char> > *,std::allocator<std::basic_string<char,std::char_traits<char>,std::allocator<char> > > >
; Function compile flags: /Odt
; File d:\program files (x86)\microsoft visual studio .net 2003\vc7\include\xutility
_TEXT	ENDS
;	COMDAT ??$_Copy_backward_opt@PAV?$basic_string@DU?$char_traits@D@std@@V?$allocator@D@2@@std@@PAV12@@std@@YAPAV?$basic_string@DU?$char_traits@D@std@@V?$allocator@D@2@@0@PAV10@00U_Nonscalar_ptr_iterator_tag@0@@Z
_TEXT	SEGMENT
__First$ = 8						; size = 4
__Last$ = 12						; size = 4
__Dest$ = 16						; size = 4
___formal$ = 20						; size = 1
??$_Copy_backward_opt@PAV?$basic_string@DU?$char_traits@D@std@@V?$allocator@D@2@@std@@PAV12@@std@@YAPAV?$basic_string@DU?$char_traits@D@std@@V?$allocator@D@2@@0@PAV10@00U_Nonscalar_ptr_iterator_tag@0@@Z PROC NEAR ; std::_Copy_backward_opt<std::basic_string<char,std::char_traits<char>,std::allocator<char> > *,std::basic_string<char,std::char_traits<char>,std::allocator<char> > *>, COMDAT

; 1048 : 	{	// copy [_First, _Last) backwards to [..., _Dest), arbitrary iterators

  00000	55		 push	 ebp
  00001	8b ec		 mov	 ebp, esp
$L199429:

; 1049 : 	while (_First != _Last)

  00003	8b 45 08	 mov	 eax, DWORD PTR __First$[ebp]
  00006	3b 45 0c	 cmp	 eax, DWORD PTR __Last$[ebp]
  00009	74 21		 je	 SHORT $L199430

; 1050 : 		*--_Dest = *--_Last;

  0000b	8b 4d 0c	 mov	 ecx, DWORD PTR __Last$[ebp]
  0000e	83 e9 1c	 sub	 ecx, 28			; 0000001cH
  00011	89 4d 0c	 mov	 DWORD PTR __Last$[ebp], ecx
  00014	8b 55 10	 mov	 edx, DWORD PTR __Dest$[ebp]
  00017	83 ea 1c	 sub	 edx, 28			; 0000001cH
  0001a	89 55 10	 mov	 DWORD PTR __Dest$[ebp], edx
  0001d	8b 45 0c	 mov	 eax, DWORD PTR __Last$[ebp]
  00020	50		 push	 eax
  00021	8b 4d 10	 mov	 ecx, DWORD PTR __Dest$[ebp]
  00024	ff 15 00 00 00
	00		 call	 DWORD PTR __imp_??4?$basic_string@DU?$char_traits@D@std@@V?$allocator@D@2@@std@@QAEAAV01@ABV01@@Z
  0002a	eb d7		 jmp	 SHORT $L199429
$L199430:

; 1051 : 	return (_Dest);

  0002c	8b 45 10	 mov	 eax, DWORD PTR __Dest$[ebp]

; 1052 : 	}

  0002f	5d		 pop	 ebp
  00030	c3		 ret	 0
??$_Copy_backward_opt@PAV?$basic_string@DU?$char_traits@D@std@@V?$allocator@D@2@@std@@PAV12@@std@@YAPAV?$basic_string@DU?$char_traits@D@std@@V?$allocator@D@2@@0@PAV10@00U_Nonscalar_ptr_iterator_tag@0@@Z ENDP ; std::_Copy_backward_opt<std::basic_string<char,std::char_traits<char>,std::allocator<char> > *,std::basic_string<char,std::char_traits<char>,std::allocator<char> > *>
_TEXT	ENDS
PUBLIC	??$_Construct@V?$basic_string@DU?$char_traits@D@std@@V?$allocator@D@2@@std@@V12@@std@@YAXPAV?$basic_string@DU?$char_traits@D@std@@V?$allocator@D@2@@0@ABV10@@Z ; std::_Construct<std::basic_string<char,std::char_traits<char>,std::allocator<char> >,std::basic_string<char,std::char_traits<char>,std::allocator<char> > >
; Function compile flags: /Odt
; File d:\program files (x86)\microsoft visual studio .net 2003\vc7\include\xmemory
;	COMDAT ?construct@?$allocator@V?$basic_string@DU?$char_traits@D@std@@V?$allocator@D@2@@std@@@std@@QAEXPAV?$basic_string@DU?$char_traits@D@std@@V?$allocator@D@2@@2@ABV32@@Z
_TEXT	SEGMENT
_this$ = -4						; size = 4
__Ptr$ = 8						; size = 4
__Val$ = 12						; size = 4
?construct@?$allocator@V?$basic_string@DU?$char_traits@D@std@@V?$allocator@D@2@@std@@@std@@QAEXPAV?$basic_string@DU?$char_traits@D@std@@V?$allocator@D@2@@2@ABV32@@Z PROC NEAR ; std::allocator<std::basic_string<char,std::char_traits<char>,std::allocator<char> > >::construct, COMDAT
; _this$ = ecx

; 146  : 		{	// construct object at _Ptr with value _Val

  00000	55		 push	 ebp
  00001	8b ec		 mov	 ebp, esp
  00003	51		 push	 ecx
  00004	89 4d fc	 mov	 DWORD PTR _this$[ebp], ecx

; 147  : 		_Construct(_Ptr, _Val);

  00007	8b 45 0c	 mov	 eax, DWORD PTR __Val$[ebp]
  0000a	50		 push	 eax
  0000b	8b 4d 08	 mov	 ecx, DWORD PTR __Ptr$[ebp]
  0000e	51		 push	 ecx
  0000f	e8 00 00 00 00	 call	 ??$_Construct@V?$basic_string@DU?$char_traits@D@std@@V?$allocator@D@2@@std@@V12@@std@@YAXPAV?$basic_string@DU?$char_traits@D@std@@V?$allocator@D@2@@0@ABV10@@Z ; std::_Construct<std::basic_string<char,std::char_traits<char>,std::allocator<char> >,std::basic_string<char,std::char_traits<char>,std::allocator<char> > >
  00014	83 c4 08	 add	 esp, 8

; 148  : 		}

  00017	8b e5		 mov	 esp, ebp
  00019	5d		 pop	 ebp
  0001a	c2 08 00	 ret	 8
?construct@?$allocator@V?$basic_string@DU?$char_traits@D@std@@V?$allocator@D@2@@std@@@std@@QAEXPAV?$basic_string@DU?$char_traits@D@std@@V?$allocator@D@2@@2@ABV32@@Z ENDP ; std::allocator<std::basic_string<char,std::char_traits<char>,std::allocator<char> > >::construct
_TEXT	ENDS
PUBLIC	??$_Destroy@V?$basic_string@DU?$char_traits@D@std@@V?$allocator@D@2@@std@@@std@@YAXPAV?$basic_string@DU?$char_traits@D@std@@V?$allocator@D@2@@0@@Z ; std::_Destroy<std::basic_string<char,std::char_traits<char>,std::allocator<char> > >
; Function compile flags: /Odt
;	COMDAT ?destroy@?$allocator@V?$basic_string@DU?$char_traits@D@std@@V?$allocator@D@2@@std@@@std@@QAEXPAV?$basic_string@DU?$char_traits@D@std@@V?$allocator@D@2@@2@@Z
_TEXT	SEGMENT
_this$ = -4						; size = 4
__Ptr$ = 8						; size = 4
?destroy@?$allocator@V?$basic_string@DU?$char_traits@D@std@@V?$allocator@D@2@@std@@@std@@QAEXPAV?$basic_string@DU?$char_traits@D@std@@V?$allocator@D@2@@2@@Z PROC NEAR ; std::allocator<std::basic_string<char,std::char_traits<char>,std::allocator<char> > >::destroy, COMDAT
; _this$ = ecx

; 151  : 		{	// destroy object at _Ptr

  00000	55		 push	 ebp
  00001	8b ec		 mov	 ebp, esp
  00003	51		 push	 ecx
  00004	89 4d fc	 mov	 DWORD PTR _this$[ebp], ecx

; 152  : 		_Destroy(_Ptr);

  00007	8b 45 08	 mov	 eax, DWORD PTR __Ptr$[ebp]
  0000a	50		 push	 eax
  0000b	e8 00 00 00 00	 call	 ??$_Destroy@V?$basic_string@DU?$char_traits@D@std@@V?$allocator@D@2@@std@@@std@@YAXPAV?$basic_string@DU?$char_traits@D@std@@V?$allocator@D@2@@0@@Z ; std::_Destroy<std::basic_string<char,std::char_traits<char>,std::allocator<char> > >
  00010	83 c4 04	 add	 esp, 4

; 153  : 		}

  00013	8b e5		 mov	 esp, ebp
  00015	5d		 pop	 ebp
  00016	c2 04 00	 ret	 4
?destroy@?$allocator@V?$basic_string@DU?$char_traits@D@std@@V?$allocator@D@2@@std@@@std@@QAEXPAV?$basic_string@DU?$char_traits@D@std@@V?$allocator@D@2@@2@@Z ENDP ; std::allocator<std::basic_string<char,std::char_traits<char>,std::allocator<char> > >::destroy
_TEXT	ENDS
;	COMDAT xdata$x
; File d:\program files (x86)\microsoft visual studio .net 2003\vc7\include\memory
xdata$x	SEGMENT
$T200479 DD	0ffffffffH
	DD	00H
	DD	0ffffffffH
	DD	00H
$T200481 DD	00H
	DD	00H
	DD	00H
	DD	FLAT:$L200475
$T200480 DD	00H
	DD	00H
	DD	01H
	DD	01H
	DD	FLAT:$T200481
$T200477 DD	019930520H
	DD	02H
	DD	FLAT:$T200479
	DD	01H
	DD	FLAT:$T200480
	DD	2 DUP(00H)
; Function compile flags: /Odt
xdata$x	ENDS
;	COMDAT ??$_Uninit_copy@PAV?$basic_string@DU?$char_traits@D@std@@V?$allocator@D@2@@std@@PAV12@V?$allocator@V?$basic_string@DU?$char_traits@D@std@@V?$allocator@D@2@@std@@@2@@std@@YAPAV?$basic_string@DU?$char_traits@D@std@@V?$allocator@D@2@@0@PAV10@00AAV?$allocator@V?$basic_string@DU?$char_traits@D@std@@V?$allocator@D@2@@std@@@0@U_Nonscalar_ptr_iterator_tag@0@@Z
_TEXT	SEGMENT
__Next$ = -20						; size = 4
__$EHRec$ = -16						; size = 16
__First$ = 8						; size = 4
__Last$ = 12						; size = 4
__Dest$ = 16						; size = 4
__Al$ = 20						; size = 4
___formal$ = 24						; size = 1
??$_Uninit_copy@PAV?$basic_string@DU?$char_traits@D@std@@V?$allocator@D@2@@std@@PAV12@V?$allocator@V?$basic_string@DU?$char_traits@D@std@@V?$allocator@D@2@@std@@@2@@std@@YAPAV?$basic_string@DU?$char_traits@D@std@@V?$allocator@D@2@@0@PAV10@00AAV?$allocator@V?$basic_string@DU?$char_traits@D@std@@V?$allocator@D@2@@std@@@0@U_Nonscalar_ptr_iterator_tag@0@@Z PROC NEAR ; std::_Uninit_copy<std::basic_string<char,std::char_traits<char>,std::allocator<char> > *,std::basic_string<char,std::char_traits<char>,std::allocator<char> > *,std::allocator<std::basic_string<char,std::char_traits<char>,std::allocator<char> > > >, COMDAT

; 77   : 	{	// copy [_First, _Last) to raw _Dest, using _Al, arbitrary type

  00000	55		 push	 ebp
  00001	8b ec		 mov	 ebp, esp
  00003	6a ff		 push	 -1
  00005	68 00 00 00 00	 push	 __ehhandler$??$_Uninit_copy@PAV?$basic_string@DU?$char_traits@D@std@@V?$allocator@D@2@@std@@PAV12@V?$allocator@V?$basic_string@DU?$char_traits@D@std@@V?$allocator@D@2@@std@@@2@@std@@YAPAV?$basic_string@DU?$char_traits@D@std@@V?$allocator@D@2@@0@PAV10@00AAV?$allocator@V?$basic_string@DU?$char_traits@D@std@@V?$allocator@D@2@@std@@@0@U_Nonscalar_ptr_iterator_tag@0@@Z
  0000a	64 a1 00 00 00
	00		 mov	 eax, DWORD PTR fs:__except_list
  00010	50		 push	 eax
  00011	64 89 25 00 00
	00 00		 mov	 DWORD PTR fs:__except_list, esp
  00018	51		 push	 ecx
  00019	51		 push	 ecx
  0001a	53		 push	 ebx
  0001b	56		 push	 esi
  0001c	57		 push	 edi
  0001d	89 65 f0	 mov	 DWORD PTR __$EHRec$[ebp], esp

; 78   : 	_FwdIt _Next = _Dest;

  00020	8b 45 10	 mov	 eax, DWORD PTR __Dest$[ebp]
  00023	89 45 ec	 mov	 DWORD PTR __Next$[ebp], eax

; 79   : 
; 80   : 	_TRY_BEGIN

  00026	c7 45 fc 00 00
	00 00		 mov	 DWORD PTR __$EHRec$[ebp+12], 0

; 81   : 	for (; _First != _Last; ++_Dest, ++_First)

  0002d	eb 12		 jmp	 SHORT $L199448
$L199449:
  0002f	8b 4d 10	 mov	 ecx, DWORD PTR __Dest$[ebp]
  00032	83 c1 1c	 add	 ecx, 28			; 0000001cH
  00035	89 4d 10	 mov	 DWORD PTR __Dest$[ebp], ecx
  00038	8b 55 08	 mov	 edx, DWORD PTR __First$[ebp]
  0003b	83 c2 1c	 add	 edx, 28			; 0000001cH
  0003e	89 55 08	 mov	 DWORD PTR __First$[ebp], edx
$L199448:
  00041	8b 45 08	 mov	 eax, DWORD PTR __First$[ebp]
  00044	3b 45 0c	 cmp	 eax, DWORD PTR __Last$[ebp]
  00047	74 12		 je	 SHORT $L199450

; 82   : 		_Al.construct(_Dest, *_First);

  00049	8b 4d 08	 mov	 ecx, DWORD PTR __First$[ebp]
  0004c	51		 push	 ecx
  0004d	8b 55 10	 mov	 edx, DWORD PTR __Dest$[ebp]
  00050	52		 push	 edx
  00051	8b 4d 14	 mov	 ecx, DWORD PTR __Al$[ebp]
  00054	e8 00 00 00 00	 call	 ?construct@?$allocator@V?$basic_string@DU?$char_traits@D@std@@V?$allocator@D@2@@std@@@std@@QAEXPAV?$basic_string@DU?$char_traits@D@std@@V?$allocator@D@2@@2@ABV32@@Z ; std::allocator<std::basic_string<char,std::char_traits<char>,std::allocator<char> > >::construct
  00059	eb d4		 jmp	 SHORT $L199449
$L199450:
  0005b	eb 2a		 jmp	 SHORT $L200474
$L200475:

; 83   : 	_CATCH_ALL
; 84   : 	for (; _Next != _Dest; ++_Next)

  0005d	eb 09		 jmp	 SHORT $L199451
$L199452:
  0005f	8b 45 ec	 mov	 eax, DWORD PTR __Next$[ebp]
  00062	83 c0 1c	 add	 eax, 28			; 0000001cH
  00065	89 45 ec	 mov	 DWORD PTR __Next$[ebp], eax
$L199451:
  00068	8b 4d ec	 mov	 ecx, DWORD PTR __Next$[ebp]
  0006b	3b 4d 10	 cmp	 ecx, DWORD PTR __Dest$[ebp]
  0006e	74 0e		 je	 SHORT $L199453

; 85   : 		_Al.destroy(_Next);

  00070	8b 55 ec	 mov	 edx, DWORD PTR __Next$[ebp]
  00073	52		 push	 edx
  00074	8b 4d 14	 mov	 ecx, DWORD PTR __Al$[ebp]
  00077	e8 00 00 00 00	 call	 ?destroy@?$allocator@V?$basic_string@DU?$char_traits@D@std@@V?$allocator@D@2@@std@@@std@@QAEXPAV?$basic_string@DU?$char_traits@D@std@@V?$allocator@D@2@@2@@Z ; std::allocator<std::basic_string<char,std::char_traits<char>,std::allocator<char> > >::destroy
  0007c	eb e1		 jmp	 SHORT $L199452
$L199453:

; 86   : 	_RERAISE;

  0007e	6a 00		 push	 0
  00080	6a 00		 push	 0
  00082	e8 00 00 00 00	 call	 __CxxThrowException@8
$L200474:

; 87   : 	_CATCH_END

  00087	c7 45 fc ff ff
	ff ff		 mov	 DWORD PTR __$EHRec$[ebp+12], -1

; 88   : 	return (_Dest);

  0008e	8b 45 10	 mov	 eax, DWORD PTR __Dest$[ebp]
$L200473:

; 89   : 	}

  00091	8b 4d f4	 mov	 ecx, DWORD PTR __$EHRec$[ebp+4]
  00094	64 89 0d 00 00
	00 00		 mov	 DWORD PTR fs:__except_list, ecx
  0009b	5f		 pop	 edi
  0009c	5e		 pop	 esi
  0009d	5b		 pop	 ebx
  0009e	8b e5		 mov	 esp, ebp
  000a0	5d		 pop	 ebp
  000a1	c3		 ret	 0
_TEXT	ENDS
;	COMDAT text$x
text$x	SEGMENT
__ehhandler$??$_Uninit_copy@PAV?$basic_string@DU?$char_traits@D@std@@V?$allocator@D@2@@std@@PAV12@V?$allocator@V?$basic_string@DU?$char_traits@D@std@@V?$allocator@D@2@@std@@@2@@std@@YAPAV?$basic_string@DU?$char_traits@D@std@@V?$allocator@D@2@@0@PAV10@00AAV?$allocator@V?$basic_string@DU?$char_traits@D@std@@V?$allocator@D@2@@std@@@0@U_Nonscalar_ptr_iterator_tag@0@@Z:
  00000	b8 00 00 00 00	 mov	 eax, OFFSET FLAT:$T200477
  00005	e9 00 00 00 00	 jmp	 ___CxxFrameHandler
text$x	ENDS
??$_Uninit_copy@PAV?$basic_string@DU?$char_traits@D@std@@V?$allocator@D@2@@std@@PAV12@V?$allocator@V?$basic_string@DU?$char_traits@D@std@@V?$allocator@D@2@@std@@@2@@std@@YAPAV?$basic_string@DU?$char_traits@D@std@@V?$allocator@D@2@@0@PAV10@00AAV?$allocator@V?$basic_string@DU?$char_traits@D@std@@V?$allocator@D@2@@std@@@0@U_Nonscalar_ptr_iterator_tag@0@@Z ENDP ; std::_Uninit_copy<std::basic_string<char,std::char_traits<char>,std::allocator<char> > *,std::basic_string<char,std::char_traits<char>,std::allocator<char> > *,std::allocator<std::basic_string<char,std::char_traits<char>,std::allocator<char> > > >
PUBLIC	??2@YAPAXIPAX@Z					; operator new
PUBLIC	??3@YAXPAX0@Z					; operator delete
;	COMDAT xdata$x
; File d:\program files (x86)\microsoft visual studio .net 2003\vc7\include\xmemory
xdata$x	SEGMENT
$T200494 DD	0ffffffffH
	DD	FLAT:$L200490
$T200492 DD	019930520H
	DD	01H
	DD	FLAT:$T200494
	DD	2 DUP(00H)
	DD	2 DUP(00H)
; Function compile flags: /Odt
xdata$x	ENDS
;	COMDAT ??$_Construct@V?$basic_string@DU?$char_traits@D@std@@V?$allocator@D@2@@std@@V12@@std@@YAXPAV?$basic_string@DU?$char_traits@D@std@@V?$allocator@D@2@@0@ABV10@@Z
_TEXT	SEGMENT
tv74 = -24						; size = 4
$T200487 = -20						; size = 4
$T200486 = -16						; size = 4
__$EHRec$ = -12						; size = 12
__Ptr$ = 8						; size = 4
__Val$ = 12						; size = 4
??$_Construct@V?$basic_string@DU?$char_traits@D@std@@V?$allocator@D@2@@std@@V12@@std@@YAXPAV?$basic_string@DU?$char_traits@D@std@@V?$allocator@D@2@@0@ABV10@@Z PROC NEAR ; std::_Construct<std::basic_string<char,std::char_traits<char>,std::allocator<char> >,std::basic_string<char,std::char_traits<char>,std::allocator<char> > >, COMDAT

; 41   : 	{	// construct object at _Ptr with value _Val

  00000	55		 push	 ebp
  00001	8b ec		 mov	 ebp, esp
  00003	6a ff		 push	 -1
  00005	68 00 00 00 00	 push	 __ehhandler$??$_Construct@V?$basic_string@DU?$char_traits@D@std@@V?$allocator@D@2@@std@@V12@@std@@YAXPAV?$basic_string@DU?$char_traits@D@std@@V?$allocator@D@2@@0@ABV10@@Z
  0000a	64 a1 00 00 00
	00		 mov	 eax, DWORD PTR fs:__except_list
  00010	50		 push	 eax
  00011	64 89 25 00 00
	00 00		 mov	 DWORD PTR fs:__except_list, esp
  00018	83 ec 0c	 sub	 esp, 12			; 0000000cH

; 42   : 	new ((void _FARQ *)_Ptr) _T1(_Val);

  0001b	8b 45 08	 mov	 eax, DWORD PTR __Ptr$[ebp]
  0001e	50		 push	 eax
  0001f	6a 1c		 push	 28			; 0000001cH
  00021	e8 00 00 00 00	 call	 ??2@YAPAXIPAX@Z		; operator new
  00026	83 c4 08	 add	 esp, 8
  00029	89 45 ec	 mov	 DWORD PTR $T200487[ebp], eax
  0002c	c7 45 fc 00 00
	00 00		 mov	 DWORD PTR __$EHRec$[ebp+8], 0
  00033	83 7d ec 00	 cmp	 DWORD PTR $T200487[ebp], 0
  00037	74 12		 je	 SHORT $L200488
  00039	8b 4d 0c	 mov	 ecx, DWORD PTR __Val$[ebp]
  0003c	51		 push	 ecx
  0003d	8b 4d ec	 mov	 ecx, DWORD PTR $T200487[ebp]
  00040	ff 15 00 00 00
	00		 call	 DWORD PTR __imp_??0?$basic_string@DU?$char_traits@D@std@@V?$allocator@D@2@@std@@QAE@ABV01@@Z
  00046	89 45 e8	 mov	 DWORD PTR tv74[ebp], eax
  00049	eb 07		 jmp	 SHORT $L200489
$L200488:
  0004b	c7 45 e8 00 00
	00 00		 mov	 DWORD PTR tv74[ebp], 0
$L200489:
  00052	8b 55 e8	 mov	 edx, DWORD PTR tv74[ebp]
  00055	89 55 f0	 mov	 DWORD PTR $T200486[ebp], edx
  00058	c7 45 fc ff ff
	ff ff		 mov	 DWORD PTR __$EHRec$[ebp+8], -1

; 43   : 	}

  0005f	8b 4d f4	 mov	 ecx, DWORD PTR __$EHRec$[ebp]
  00062	64 89 0d 00 00
	00 00		 mov	 DWORD PTR fs:__except_list, ecx
  00069	8b e5		 mov	 esp, ebp
  0006b	5d		 pop	 ebp
  0006c	c3		 ret	 0
_TEXT	ENDS
;	COMDAT text$x
text$x	SEGMENT
$L200490:
  00000	8b 45 08	 mov	 eax, DWORD PTR __Ptr$[ebp]
  00003	50		 push	 eax
  00004	8b 4d ec	 mov	 ecx, DWORD PTR $T200487[ebp]
  00007	51		 push	 ecx
  00008	e8 00 00 00 00	 call	 ??3@YAXPAX0@Z		; operator delete
  0000d	83 c4 08	 add	 esp, 8
  00010	c3		 ret	 0
__ehhandler$??$_Construct@V?$basic_string@DU?$char_traits@D@std@@V?$allocator@D@2@@std@@V12@@std@@YAXPAV?$basic_string@DU?$char_traits@D@std@@V?$allocator@D@2@@0@ABV10@@Z:
  00011	b8 00 00 00 00	 mov	 eax, OFFSET FLAT:$T200492
  00016	e9 00 00 00 00	 jmp	 ___CxxFrameHandler
text$x	ENDS
??$_Construct@V?$basic_string@DU?$char_traits@D@std@@V?$allocator@D@2@@std@@V12@@std@@YAXPAV?$basic_string@DU?$char_traits@D@std@@V?$allocator@D@2@@0@ABV10@@Z ENDP ; std::_Construct<std::basic_string<char,std::char_traits<char>,std::allocator<char> >,std::basic_string<char,std::char_traits<char>,std::allocator<char> > >
; Function compile flags: /Odt
; File d:\program files (x86)\microsoft visual studio .net 2003\vc7\include\new.h
;	COMDAT ??2@YAPAXIPAX@Z
_TEXT	SEGMENT
___formal$ = 8						; size = 4
__P$ = 12						; size = 4
??2@YAPAXIPAX@Z PROC NEAR				; operator new, COMDAT

; 109  :         {return (_P); }

  00000	55		 push	 ebp
  00001	8b ec		 mov	 ebp, esp
  00003	8b 45 0c	 mov	 eax, DWORD PTR __P$[ebp]
  00006	5d		 pop	 ebp
  00007	c3		 ret	 0
??2@YAPAXIPAX@Z ENDP					; operator new
; Function compile flags: /Odt
_TEXT	ENDS
;	COMDAT ??3@YAXPAX0@Z
_TEXT	SEGMENT
___formal$ = 8						; size = 4
___formal$ = 12						; size = 4
??3@YAXPAX0@Z PROC NEAR					; operator delete, COMDAT

; 112  :         {return; }

  00000	55		 push	 ebp
  00001	8b ec		 mov	 ebp, esp
  00003	5d		 pop	 ebp
  00004	c3		 ret	 0
??3@YAXPAX0@Z ENDP					; operator delete
_TEXT	ENDS
PUBLIC	??_G?$basic_string@DU?$char_traits@D@std@@V?$allocator@D@2@@std@@QAEPAXI@Z ; std::basic_string<char,std::char_traits<char>,std::allocator<char> >::`scalar deleting destructor'
; Function compile flags: /Odt
; File d:\program files (x86)\microsoft visual studio .net 2003\vc7\include\xmemory
;	COMDAT ??$_Destroy@V?$basic_string@DU?$char_traits@D@std@@V?$allocator@D@2@@std@@@std@@YAXPAV?$basic_string@DU?$char_traits@D@std@@V?$allocator@D@2@@0@@Z
_TEXT	SEGMENT
__Ptr$ = 8						; size = 4
??$_Destroy@V?$basic_string@DU?$char_traits@D@std@@V?$allocator@D@2@@std@@@std@@YAXPAV?$basic_string@DU?$char_traits@D@std@@V?$allocator@D@2@@0@@Z PROC NEAR ; std::_Destroy<std::basic_string<char,std::char_traits<char>,std::allocator<char> > >, COMDAT

; 48   : 	{	// destroy object at _Ptr

  00000	55		 push	 ebp
  00001	8b ec		 mov	 ebp, esp

; 49   : 	_DESTRUCTOR(_Ty, _Ptr);

  00003	6a 00		 push	 0
  00005	8b 4d 08	 mov	 ecx, DWORD PTR __Ptr$[ebp]
  00008	e8 00 00 00 00	 call	 ??_G?$basic_string@DU?$char_traits@D@std@@V?$allocator@D@2@@std@@QAEPAXI@Z

; 50   : 	}

  0000d	5d		 pop	 ebp
  0000e	c3		 ret	 0
??$_Destroy@V?$basic_string@DU?$char_traits@D@std@@V?$allocator@D@2@@std@@@std@@YAXPAV?$basic_string@DU?$char_traits@D@std@@V?$allocator@D@2@@0@@Z ENDP ; std::_Destroy<std::basic_string<char,std::char_traits<char>,std::allocator<char> > >
; Function compile flags: /Odt
_TEXT	ENDS
;	COMDAT ??_G?$basic_string@DU?$char_traits@D@std@@V?$allocator@D@2@@std@@QAEPAXI@Z
_TEXT	SEGMENT
_this$ = -4						; size = 4
___flags$ = 8						; size = 4
??_G?$basic_string@DU?$char_traits@D@std@@V?$allocator@D@2@@std@@QAEPAXI@Z PROC NEAR ; std::basic_string<char,std::char_traits<char>,std::allocator<char> >::`scalar deleting destructor', COMDAT
; _this$ = ecx
  00000	55		 push	 ebp
  00001	8b ec		 mov	 ebp, esp
  00003	51		 push	 ecx
  00004	89 4d fc	 mov	 DWORD PTR _this$[ebp], ecx
  00007	8b 4d fc	 mov	 ecx, DWORD PTR _this$[ebp]
  0000a	ff 15 00 00 00
	00		 call	 DWORD PTR __imp_??1?$basic_string@DU?$char_traits@D@std@@V?$allocator@D@2@@std@@QAE@XZ
  00010	8b 45 08	 mov	 eax, DWORD PTR ___flags$[ebp]
  00013	83 e0 01	 and	 eax, 1
  00016	74 0c		 je	 SHORT $L199465
  00018	8b 4d fc	 mov	 ecx, DWORD PTR _this$[ebp]
  0001b	51		 push	 ecx
  0001c	e8 00 00 00 00	 call	 ??3@YAXPAX@Z		; operator delete
  00021	83 c4 04	 add	 esp, 4
$L199465:
  00024	8b 45 fc	 mov	 eax, DWORD PTR _this$[ebp]
  00027	8b e5		 mov	 esp, ebp
  00029	5d		 pop	 ebp
  0002a	c2 04 00	 ret	 4
??_G?$basic_string@DU?$char_traits@D@std@@V?$allocator@D@2@@std@@QAEPAXI@Z ENDP ; std::basic_string<char,std::char_traits<char>,std::allocator<char> >::`scalar deleting destructor'
; Function compile flags: /Odt
; File d:\program files (x86)\microsoft visual studio .net 2003\vc7\atlmfc\include\atltypes.inl
_TEXT	ENDS
;	COMDAT ??0CSize@@QAE@XZ
_TEXT	SEGMENT
_this$ = -4						; size = 4
??0CSize@@QAE@XZ PROC NEAR				; CSize::CSize, COMDAT
; _this$ = ecx

; 22   : 	{ /* random filled */ }

  00000	55		 push	 ebp
  00001	8b ec		 mov	 ebp, esp
  00003	51		 push	 ecx
  00004	89 4d fc	 mov	 DWORD PTR _this$[ebp], ecx
  00007	8b 45 fc	 mov	 eax, DWORD PTR _this$[ebp]
  0000a	8b e5		 mov	 esp, ebp
  0000c	5d		 pop	 ebp
  0000d	c3		 ret	 0
??0CSize@@QAE@XZ ENDP					; CSize::CSize
; Function compile flags: /Odt
_TEXT	ENDS
;	COMDAT ??0CPoint@@QAE@XZ
_TEXT	SEGMENT
_this$ = -4						; size = 4
??0CPoint@@QAE@XZ PROC NEAR				; CPoint::CPoint, COMDAT
; _this$ = ecx

; 61   : 	{ /* random filled */ }

  00000	55		 push	 ebp
  00001	8b ec		 mov	 ebp, esp
  00003	51		 push	 ecx
  00004	89 4d fc	 mov	 DWORD PTR _this$[ebp], ecx
  00007	8b 45 fc	 mov	 eax, DWORD PTR _this$[ebp]
  0000a	8b e5		 mov	 esp, ebp
  0000c	5d		 pop	 ebp
  0000d	c3		 ret	 0
??0CPoint@@QAE@XZ ENDP					; CPoint::CPoint
; Function compile flags: /Odt
_TEXT	ENDS
;	COMDAT ??0CRect@@QAE@XZ
_TEXT	SEGMENT
_this$ = -4						; size = 4
??0CRect@@QAE@XZ PROC NEAR				; CRect::CRect, COMDAT
; _this$ = ecx

; 110  : 	{ /* random filled */ }

  00000	55		 push	 ebp
  00001	8b ec		 mov	 ebp, esp
  00003	51		 push	 ecx
  00004	89 4d fc	 mov	 DWORD PTR _this$[ebp], ecx
  00007	8b 45 fc	 mov	 eax, DWORD PTR _this$[ebp]
  0000a	8b e5		 mov	 esp, ebp
  0000c	5d		 pop	 ebp
  0000d	c3		 ret	 0
??0CRect@@QAE@XZ ENDP					; CRect::CRect
; Function compile flags: /Odt
_TEXT	ENDS
;	COMDAT ??0CRect@@QAE@HHHH@Z
_TEXT	SEGMENT
_this$ = -4						; size = 4
_l$ = 8							; size = 4
_t$ = 12						; size = 4
_r$ = 16						; size = 4
_b$ = 20						; size = 4
??0CRect@@QAE@HHHH@Z PROC NEAR				; CRect::CRect, COMDAT
; _this$ = ecx

; 112  : 	{ left = l; top = t; right = r; bottom = b; }

  00000	55		 push	 ebp
  00001	8b ec		 mov	 ebp, esp
  00003	51		 push	 ecx
  00004	89 4d fc	 mov	 DWORD PTR _this$[ebp], ecx
  00007	8b 45 fc	 mov	 eax, DWORD PTR _this$[ebp]
  0000a	8b 4d 08	 mov	 ecx, DWORD PTR _l$[ebp]
  0000d	89 08		 mov	 DWORD PTR [eax], ecx
  0000f	8b 55 fc	 mov	 edx, DWORD PTR _this$[ebp]
  00012	8b 45 0c	 mov	 eax, DWORD PTR _t$[ebp]
  00015	89 42 04	 mov	 DWORD PTR [edx+4], eax
  00018	8b 4d fc	 mov	 ecx, DWORD PTR _this$[ebp]
  0001b	8b 55 10	 mov	 edx, DWORD PTR _r$[ebp]
  0001e	89 51 08	 mov	 DWORD PTR [ecx+8], edx
  00021	8b 45 fc	 mov	 eax, DWORD PTR _this$[ebp]
  00024	8b 4d 14	 mov	 ecx, DWORD PTR _b$[ebp]
  00027	89 48 0c	 mov	 DWORD PTR [eax+12], ecx
  0002a	8b 45 fc	 mov	 eax, DWORD PTR _this$[ebp]
  0002d	8b e5		 mov	 esp, ebp
  0002f	5d		 pop	 ebp
  00030	c2 10 00	 ret	 16			; 00000010H
??0CRect@@QAE@HHHH@Z ENDP				; CRect::CRect
; Function compile flags: /Odt
_TEXT	ENDS
;	COMDAT ?Width@CRect@@QBEHXZ
_TEXT	SEGMENT
_this$ = -4						; size = 4
?Width@CRect@@QBEHXZ PROC NEAR				; CRect::Width, COMDAT
; _this$ = ecx

; 123  : 	{ return right - left; }

  00000	55		 push	 ebp
  00001	8b ec		 mov	 ebp, esp
  00003	51		 push	 ecx
  00004	89 4d fc	 mov	 DWORD PTR _this$[ebp], ecx
  00007	8b 45 fc	 mov	 eax, DWORD PTR _this$[ebp]
  0000a	8b 4d fc	 mov	 ecx, DWORD PTR _this$[ebp]
  0000d	8b 40 08	 mov	 eax, DWORD PTR [eax+8]
  00010	2b 01		 sub	 eax, DWORD PTR [ecx]
  00012	8b e5		 mov	 esp, ebp
  00014	5d		 pop	 ebp
  00015	c3		 ret	 0
?Width@CRect@@QBEHXZ ENDP				; CRect::Width
; Function compile flags: /Odt
_TEXT	ENDS
;	COMDAT ?Height@CRect@@QBEHXZ
_TEXT	SEGMENT
_this$ = -4						; size = 4
?Height@CRect@@QBEHXZ PROC NEAR				; CRect::Height, COMDAT
; _this$ = ecx

; 125  : 	{ return bottom - top; }

  00000	55		 push	 ebp
  00001	8b ec		 mov	 ebp, esp
  00003	51		 push	 ecx
  00004	89 4d fc	 mov	 DWORD PTR _this$[ebp], ecx
  00007	8b 45 fc	 mov	 eax, DWORD PTR _this$[ebp]
  0000a	8b 4d fc	 mov	 ecx, DWORD PTR _this$[ebp]
  0000d	8b 40 0c	 mov	 eax, DWORD PTR [eax+12]
  00010	2b 41 04	 sub	 eax, DWORD PTR [ecx+4]
  00013	8b e5		 mov	 esp, ebp
  00015	5d		 pop	 ebp
  00016	c3		 ret	 0
?Height@CRect@@QBEHXZ ENDP				; CRect::Height
; Function compile flags: /Odt
_TEXT	ENDS
;	COMDAT ??BCRect@@QAEPAUtagRECT@@XZ
_TEXT	SEGMENT
_this$ = -4						; size = 4
??BCRect@@QAEPAUtagRECT@@XZ PROC NEAR			; CRect::operator tagRECT *, COMDAT
; _this$ = ecx

; 143  : 	{ return this; }

  00000	55		 push	 ebp
  00001	8b ec		 mov	 ebp, esp
  00003	51		 push	 ecx
  00004	89 4d fc	 mov	 DWORD PTR _this$[ebp], ecx
  00007	8b 45 fc	 mov	 eax, DWORD PTR _this$[ebp]
  0000a	8b e5		 mov	 esp, ebp
  0000c	5d		 pop	 ebp
  0000d	c3		 ret	 0
??BCRect@@QAEPAUtagRECT@@XZ ENDP			; CRect::operator tagRECT *
_TEXT	ENDS
EXTRN	__imp__OffsetRect@12:NEAR
; Function compile flags: /Odt
;	COMDAT ?OffsetRect@CRect@@QAEXHH@Z
_TEXT	SEGMENT
_this$ = -4						; size = 4
_x$ = 8							; size = 4
_y$ = 12						; size = 4
?OffsetRect@CRect@@QAEXHH@Z PROC NEAR			; CRect::OffsetRect, COMDAT
; _this$ = ecx

; 171  : 	{ ::OffsetRect(this, x, y); }

  00000	55		 push	 ebp
  00001	8b ec		 mov	 ebp, esp
  00003	51		 push	 ecx
  00004	89 4d fc	 mov	 DWORD PTR _this$[ebp], ecx
  00007	8b 45 0c	 mov	 eax, DWORD PTR _y$[ebp]
  0000a	50		 push	 eax
  0000b	8b 4d 08	 mov	 ecx, DWORD PTR _x$[ebp]
  0000e	51		 push	 ecx
  0000f	8b 55 fc	 mov	 edx, DWORD PTR _this$[ebp]
  00012	52		 push	 edx
  00013	ff 15 00 00 00
	00		 call	 DWORD PTR __imp__OffsetRect@12
  00019	8b e5		 mov	 esp, ebp
  0001b	5d		 pop	 ebp
  0001c	c2 08 00	 ret	 8
?OffsetRect@CRect@@QAEXHH@Z ENDP			; CRect::OffsetRect
; Function compile flags: /Odt
; File d:\program files (x86)\microsoft visual studio .net 2003\vc7\atlmfc\include\afx.inl
_TEXT	ENDS
;	COMDAT ?Serialize@CObject@@UAEXAAVCArchive@@@Z
_TEXT	SEGMENT
_this$ = -4						; size = 4
___formal$ = 8						; size = 4
?Serialize@CObject@@UAEXAAVCArchive@@@Z PROC NEAR	; CObject::Serialize, COMDAT
; _this$ = ecx

; 25   : 	{ /* CObject does not serialize anything by default */ }

  00000	55		 push	 ebp
  00001	8b ec		 mov	 ebp, esp
  00003	51		 push	 ecx
  00004	89 4d fc	 mov	 DWORD PTR _this$[ebp], ecx
  00007	8b e5		 mov	 esp, ebp
  00009	5d		 pop	 ebp
  0000a	c2 04 00	 ret	 4
?Serialize@CObject@@UAEXAAVCArchive@@@Z ENDP		; CObject::Serialize
; Function compile flags: /Odt
_TEXT	ENDS
;	COMDAT ??3CObject@@SGXPAX@Z
_TEXT	SEGMENT
_p$ = 8							; size = 4
??3CObject@@SGXPAX@Z PROC NEAR				; CObject::operator delete, COMDAT

; 31   : 	{ ::operator delete(p); }

  00000	55		 push	 ebp
  00001	8b ec		 mov	 ebp, esp
  00003	8b 45 08	 mov	 eax, DWORD PTR _p$[ebp]
  00006	50		 push	 eax
  00007	e8 00 00 00 00	 call	 ??3@YAXPAX@Z		; operator delete
  0000c	83 c4 04	 add	 esp, 4
  0000f	5d		 pop	 ebp
  00010	c2 04 00	 ret	 4
??3CObject@@SGXPAX@Z ENDP				; CObject::operator delete
; Function compile flags: /Odt
_TEXT	ENDS
;	COMDAT ?AssertValid@CObject@@UBEXXZ
_TEXT	SEGMENT
_this$ = -4						; size = 4
?AssertValid@CObject@@UBEXXZ PROC NEAR			; CObject::AssertValid, COMDAT
; _this$ = ecx

; 41   : 	{ /* no asserts in release builds */ }

  00000	55		 push	 ebp
  00001	8b ec		 mov	 ebp, esp
  00003	51		 push	 ecx
  00004	89 4d fc	 mov	 DWORD PTR _this$[ebp], ecx
  00007	8b e5		 mov	 esp, ebp
  00009	5d		 pop	 ebp
  0000a	c3		 ret	 0
?AssertValid@CObject@@UBEXXZ ENDP			; CObject::AssertValid
; Function compile flags: /Odt
_TEXT	ENDS
;	COMDAT ?Dump@CObject@@UBEXAAVCDumpContext@@@Z
_TEXT	SEGMENT
_this$ = -4						; size = 4
___formal$ = 8						; size = 4
?Dump@CObject@@UBEXAAVCDumpContext@@@Z PROC NEAR	; CObject::Dump, COMDAT
; _this$ = ecx

; 43   : 	{ /* no dumping in release builds */ }

  00000	55		 push	 ebp
  00001	8b ec		 mov	 ebp, esp
  00003	51		 push	 ecx
  00004	89 4d fc	 mov	 DWORD PTR _this$[ebp], ecx
  00007	8b e5		 mov	 esp, ebp
  00009	5d		 pop	 ebp
  0000a	c2 04 00	 ret	 4
?Dump@CObject@@UBEXAAVCDumpContext@@@Z ENDP		; CObject::Dump
_TEXT	ENDS
EXTRN	?AfxGetModuleState@@YGPAVAFX_MODULE_STATE@@XZ:NEAR ; AfxGetModuleState
; Function compile flags: /Odt
; File d:\program files (x86)\microsoft visual studio .net 2003\vc7\atlmfc\include\afxwin1.inl
;	COMDAT ?AfxGetApp@@YGPAVCWinApp@@XZ
_TEXT	SEGMENT
?AfxGetApp@@YGPAVCWinApp@@XZ PROC NEAR			; AfxGetApp, COMDAT

; 21   : 	{ return afxCurrentWinApp; }

  00000	55		 push	 ebp
  00001	8b ec		 mov	 ebp, esp
  00003	e8 00 00 00 00	 call	 ?AfxGetModuleState@@YGPAVAFX_MODULE_STATE@@XZ ; AfxGetModuleState
  00008	8b 40 04	 mov	 eax, DWORD PTR [eax+4]
  0000b	5d		 pop	 ebp
  0000c	c3		 ret	 0
?AfxGetApp@@YGPAVCWinApp@@XZ ENDP			; AfxGetApp
; Function compile flags: /Odt
_TEXT	ENDS
;	COMDAT ?AfxGetInstanceHandle@@YGPAUHINSTANCE__@@XZ
_TEXT	SEGMENT
?AfxGetInstanceHandle@@YGPAUHINSTANCE__@@XZ PROC NEAR	; AfxGetInstanceHandle, COMDAT

; 23   : 	{ ASSERT(afxCurrentInstanceHandle != NULL);

  00000	55		 push	 ebp
  00001	8b ec		 mov	 ebp, esp

; 24   : 		return afxCurrentInstanceHandle; }

  00003	e8 00 00 00 00	 call	 ?AfxGetModuleState@@YGPAVAFX_MODULE_STATE@@XZ ; AfxGetModuleState
  00008	8b 40 08	 mov	 eax, DWORD PTR [eax+8]
  0000b	5d		 pop	 ebp
  0000c	c3		 ret	 0
?AfxGetInstanceHandle@@YGPAUHINSTANCE__@@XZ ENDP	; AfxGetInstanceHandle
_TEXT	ENDS
PUBLIC	??_R0?AVCGdiObject@@@8				; CGdiObject `RTTI Type Descriptor'
PUBLIC	??_R1A@?0A@A@CGdiObject@@8			; CGdiObject::`RTTI Base Class Descriptor at (0,-1,0,0)'
PUBLIC	??_R4CPen@@6B@					; CPen::`RTTI Complete Object Locator'
PUBLIC	??_R0?AVCPen@@@8				; CPen `RTTI Type Descriptor'
PUBLIC	??_R3CPen@@8					; CPen::`RTTI Class Hierarchy Descriptor'
PUBLIC	??_R2CPen@@8					; CPen::`RTTI Base Class Array'
PUBLIC	??_R1A@?0A@A@CPen@@8				; CPen::`RTTI Base Class Descriptor at (0,-1,0,0)'
PUBLIC	??1CGdiObject@@UAE@XZ				; CGdiObject::~CGdiObject
PUBLIC	??_7CPen@@6B@					; CPen::`vftable'
PUBLIC	??_GCPen@@UAEPAXI@Z				; CPen::`scalar deleting destructor'
EXTRN	?GetRuntimeClass@CPen@@UBEPAUCRuntimeClass@@XZ:NEAR ; CPen::GetRuntimeClass
EXTRN	??_ECPen@@UAEPAXI@Z:NEAR			; CPen::`vector deleting destructor'
;	COMDAT ??_7CPen@@6B@
CONST	SEGMENT
??_7CPen@@6B@ DD FLAT:??_R4CPen@@6B@			; CPen::`vftable'
	DD	FLAT:?GetRuntimeClass@CPen@@UBEPAUCRuntimeClass@@XZ
	DD	FLAT:??_ECPen@@UAEPAXI@Z
	DD	FLAT:?Serialize@CObject@@UAEXAAVCArchive@@@Z
	DD	FLAT:?AssertValid@CObject@@UBEXXZ
	DD	FLAT:?Dump@CObject@@UBEXAAVCDumpContext@@@Z
CONST	ENDS
;	COMDAT ??_R4CPen@@6B@
rdata$r	SEGMENT
??_R4CPen@@6B@ DD 00H					; CPen::`RTTI Complete Object Locator'
	DD	00H
	DD	00H
	DD	FLAT:??_R0?AVCPen@@@8
	DD	FLAT:??_R3CPen@@8
rdata$r	ENDS
;	COMDAT ??_R0?AVCPen@@@8
_DATA	SEGMENT
??_R0?AVCPen@@@8 DD FLAT:??_7type_info@@6B@		; CPen `RTTI Type Descriptor'
	DD	00H
	DB	'.?AVCPen@@', 00H
_DATA	ENDS
;	COMDAT ??_R3CPen@@8
rdata$r	SEGMENT
??_R3CPen@@8 DD	00H					; CPen::`RTTI Class Hierarchy Descriptor'
	DD	00H
	DD	03H
	DD	FLAT:??_R2CPen@@8
rdata$r	ENDS
;	COMDAT ??_R2CPen@@8
rdata$r	SEGMENT
??_R2CPen@@8 DD	FLAT:??_R1A@?0A@A@CPen@@8		; CPen::`RTTI Base Class Array'
	DD	FLAT:??_R1A@?0A@A@CGdiObject@@8
	DD	FLAT:??_R1A@?0A@A@CObject@@8
rdata$r	ENDS
;	COMDAT ??_R1A@?0A@A@CPen@@8
rdata$r	SEGMENT
??_R1A@?0A@A@CPen@@8 DD FLAT:??_R0?AVCPen@@@8		; CPen::`RTTI Base Class Descriptor at (0,-1,0,0)'
	DD	02H
	DD	00H
	DD	0ffffffffH
	DD	00H
	DD	00H
rdata$r	ENDS
;	COMDAT ??_R1A@?0A@A@CGdiObject@@8
rdata$r	SEGMENT
??_R1A@?0A@A@CGdiObject@@8 DD FLAT:??_R0?AVCGdiObject@@@8 ; CGdiObject::`RTTI Base Class Descriptor at (0,-1,0,0)'
	DD	01H
	DD	00H
	DD	0ffffffffH
	DD	00H
	DD	00H
rdata$r	ENDS
;	COMDAT ??_R0?AVCGdiObject@@@8
_DATA	SEGMENT
??_R0?AVCGdiObject@@@8 DD FLAT:??_7type_info@@6B@	; CGdiObject `RTTI Type Descriptor'
	DD	00H
	DB	'.?AVCGdiObject@@', 00H
; Function compile flags: /Odt
_DATA	ENDS
;	COMDAT ??1CPen@@UAE@XZ
_TEXT	SEGMENT
_this$ = -4						; size = 4
??1CPen@@UAE@XZ PROC NEAR				; CPen::~CPen, COMDAT
; _this$ = ecx

; 106  : 	{ }

  00000	55		 push	 ebp
  00001	8b ec		 mov	 ebp, esp
  00003	51		 push	 ecx
  00004	89 4d fc	 mov	 DWORD PTR _this$[ebp], ecx
  00007	8b 45 fc	 mov	 eax, DWORD PTR _this$[ebp]
  0000a	c7 00 00 00 00
	00		 mov	 DWORD PTR [eax], OFFSET FLAT:??_7CPen@@6B@
  00010	8b 4d fc	 mov	 ecx, DWORD PTR _this$[ebp]
  00013	e8 00 00 00 00	 call	 ??1CGdiObject@@UAE@XZ	; CGdiObject::~CGdiObject
  00018	8b e5		 mov	 esp, ebp
  0001a	5d		 pop	 ebp
  0001b	c3		 ret	 0
??1CPen@@UAE@XZ ENDP					; CPen::~CPen
_TEXT	ENDS
PUBLIC	??_R4CGdiObject@@6B@				; CGdiObject::`RTTI Complete Object Locator'
PUBLIC	??_R3CGdiObject@@8				; CGdiObject::`RTTI Class Hierarchy Descriptor'
PUBLIC	??_R2CGdiObject@@8				; CGdiObject::`RTTI Base Class Array'
PUBLIC	??1CObject@@UAE@XZ				; CObject::~CObject
PUBLIC	??_7CGdiObject@@6B@				; CGdiObject::`vftable'
PUBLIC	??_GCGdiObject@@UAEPAXI@Z			; CGdiObject::`scalar deleting destructor'
EXTRN	?GetRuntimeClass@CGdiObject@@UBEPAUCRuntimeClass@@XZ:NEAR ; CGdiObject::GetRuntimeClass
EXTRN	?DeleteObject@CGdiObject@@QAEHXZ:NEAR		; CGdiObject::DeleteObject
EXTRN	??_ECGdiObject@@UAEPAXI@Z:NEAR			; CGdiObject::`vector deleting destructor'
;	COMDAT xdata$x
xdata$x	SEGMENT
$T200542 DD	0ffffffffH
	DD	FLAT:$L200538
$T200540 DD	019930520H
	DD	01H
	DD	FLAT:$T200542
	DD	2 DUP(00H)
	DD	2 DUP(00H)
xdata$x	ENDS
;	COMDAT ??_7CGdiObject@@6B@
CONST	SEGMENT
??_7CGdiObject@@6B@ DD FLAT:??_R4CGdiObject@@6B@	; CGdiObject::`vftable'
	DD	FLAT:?GetRuntimeClass@CGdiObject@@UBEPAUCRuntimeClass@@XZ
	DD	FLAT:??_ECGdiObject@@UAEPAXI@Z
	DD	FLAT:?Serialize@CObject@@UAEXAAVCArchive@@@Z
	DD	FLAT:?AssertValid@CObject@@UBEXXZ
	DD	FLAT:?Dump@CObject@@UBEXAAVCDumpContext@@@Z
CONST	ENDS
;	COMDAT ??_R4CGdiObject@@6B@
rdata$r	SEGMENT
??_R4CGdiObject@@6B@ DD 00H				; CGdiObject::`RTTI Complete Object Locator'
	DD	00H
	DD	00H
	DD	FLAT:??_R0?AVCGdiObject@@@8
	DD	FLAT:??_R3CGdiObject@@8
rdata$r	ENDS
;	COMDAT ??_R3CGdiObject@@8
rdata$r	SEGMENT
??_R3CGdiObject@@8 DD 00H				; CGdiObject::`RTTI Class Hierarchy Descriptor'
	DD	00H
	DD	02H
	DD	FLAT:??_R2CGdiObject@@8
rdata$r	ENDS
;	COMDAT ??_R2CGdiObject@@8
rdata$r	SEGMENT
??_R2CGdiObject@@8 DD FLAT:??_R1A@?0A@A@CGdiObject@@8	; CGdiObject::`RTTI Base Class Array'
	DD	FLAT:??_R1A@?0A@A@CObject@@8
; Function compile flags: /Odt
rdata$r	ENDS
;	COMDAT ??1CGdiObject@@UAE@XZ
_TEXT	SEGMENT
_this$ = -16						; size = 4
__$EHRec$ = -12						; size = 12
??1CGdiObject@@UAE@XZ PROC NEAR				; CGdiObject::~CGdiObject, COMDAT
; _this$ = ecx

; 84   : 	{ DeleteObject(); }

  00000	55		 push	 ebp
  00001	8b ec		 mov	 ebp, esp
  00003	6a ff		 push	 -1
  00005	68 00 00 00 00	 push	 __ehhandler$??1CGdiObject@@UAE@XZ
  0000a	64 a1 00 00 00
	00		 mov	 eax, DWORD PTR fs:__except_list
  00010	50		 push	 eax
  00011	64 89 25 00 00
	00 00		 mov	 DWORD PTR fs:__except_list, esp
  00018	51		 push	 ecx
  00019	89 4d f0	 mov	 DWORD PTR _this$[ebp], ecx
  0001c	8b 45 f0	 mov	 eax, DWORD PTR _this$[ebp]
  0001f	c7 00 00 00 00
	00		 mov	 DWORD PTR [eax], OFFSET FLAT:??_7CGdiObject@@6B@
  00025	c7 45 fc 00 00
	00 00		 mov	 DWORD PTR __$EHRec$[ebp+8], 0
  0002c	8b 4d f0	 mov	 ecx, DWORD PTR _this$[ebp]
  0002f	e8 00 00 00 00	 call	 ?DeleteObject@CGdiObject@@QAEHXZ ; CGdiObject::DeleteObject
  00034	c7 45 fc ff ff
	ff ff		 mov	 DWORD PTR __$EHRec$[ebp+8], -1
  0003b	8b 4d f0	 mov	 ecx, DWORD PTR _this$[ebp]
  0003e	e8 00 00 00 00	 call	 ??1CObject@@UAE@XZ	; CObject::~CObject
  00043	8b 4d f4	 mov	 ecx, DWORD PTR __$EHRec$[ebp]
  00046	64 89 0d 00 00
	00 00		 mov	 DWORD PTR fs:__except_list, ecx
  0004d	8b e5		 mov	 esp, ebp
  0004f	5d		 pop	 ebp
  00050	c3		 ret	 0
_TEXT	ENDS
;	COMDAT text$x
text$x	SEGMENT
$L200538:
  00000	8b 4d f0	 mov	 ecx, DWORD PTR _this$[ebp]
  00003	e9 00 00 00 00	 jmp	 ??1CObject@@UAE@XZ	; CObject::~CObject
__ehhandler$??1CGdiObject@@UAE@XZ:
  00008	b8 00 00 00 00	 mov	 eax, OFFSET FLAT:$T200540
  0000d	e9 00 00 00 00	 jmp	 ___CxxFrameHandler
text$x	ENDS
??1CGdiObject@@UAE@XZ ENDP				; CGdiObject::~CGdiObject
; Function compile flags: /Odt
; File d:\program files (x86)\microsoft visual studio .net 2003\vc7\atlmfc\include\afx.inl
;	COMDAT ??1CObject@@UAE@XZ
_TEXT	SEGMENT
_this$ = -4						; size = 4
??1CObject@@UAE@XZ PROC NEAR				; CObject::~CObject, COMDAT
; _this$ = ecx

; 23   : 	{ }

  00000	55		 push	 ebp
  00001	8b ec		 mov	 ebp, esp
  00003	51		 push	 ecx
  00004	89 4d fc	 mov	 DWORD PTR _this$[ebp], ecx
  00007	8b e5		 mov	 esp, ebp
  00009	5d		 pop	 ebp
  0000a	c3		 ret	 0
??1CObject@@UAE@XZ ENDP					; CObject::~CObject
; Function compile flags: /Odt
_TEXT	ENDS
;	COMDAT ??_GCGdiObject@@UAEPAXI@Z
_TEXT	SEGMENT
_this$ = -4						; size = 4
___flags$ = 8						; size = 4
??_GCGdiObject@@UAEPAXI@Z PROC NEAR			; CGdiObject::`scalar deleting destructor', COMDAT
; _this$ = ecx
  00000	55		 push	 ebp
  00001	8b ec		 mov	 ebp, esp
  00003	51		 push	 ecx
  00004	89 4d fc	 mov	 DWORD PTR _this$[ebp], ecx
  00007	8b 4d fc	 mov	 ecx, DWORD PTR _this$[ebp]
  0000a	e8 00 00 00 00	 call	 ??1CGdiObject@@UAE@XZ	; CGdiObject::~CGdiObject
  0000f	8b 45 08	 mov	 eax, DWORD PTR ___flags$[ebp]
  00012	83 e0 01	 and	 eax, 1
  00015	74 09		 je	 SHORT $L41495
  00017	8b 4d fc	 mov	 ecx, DWORD PTR _this$[ebp]
  0001a	51		 push	 ecx
  0001b	e8 00 00 00 00	 call	 ??3CObject@@SGXPAX@Z	; CObject::operator delete
$L41495:
  00020	8b 45 fc	 mov	 eax, DWORD PTR _this$[ebp]
  00023	8b e5		 mov	 esp, ebp
  00025	5d		 pop	 ebp
  00026	c2 04 00	 ret	 4
??_GCGdiObject@@UAEPAXI@Z ENDP				; CGdiObject::`scalar deleting destructor'
; Function compile flags: /Odt
_TEXT	ENDS
;	COMDAT ??_GCPen@@UAEPAXI@Z
_TEXT	SEGMENT
_this$ = -4						; size = 4
___flags$ = 8						; size = 4
??_GCPen@@UAEPAXI@Z PROC NEAR				; CPen::`scalar deleting destructor', COMDAT
; _this$ = ecx
  00000	55		 push	 ebp
  00001	8b ec		 mov	 ebp, esp
  00003	51		 push	 ecx
  00004	89 4d fc	 mov	 DWORD PTR _this$[ebp], ecx
  00007	8b 4d fc	 mov	 ecx, DWORD PTR _this$[ebp]
  0000a	e8 00 00 00 00	 call	 ??1CPen@@UAE@XZ		; CPen::~CPen
  0000f	8b 45 08	 mov	 eax, DWORD PTR ___flags$[ebp]
  00012	83 e0 01	 and	 eax, 1
  00015	74 09		 je	 SHORT $L41541
  00017	8b 4d fc	 mov	 ecx, DWORD PTR _this$[ebp]
  0001a	51		 push	 ecx
  0001b	e8 00 00 00 00	 call	 ??3CObject@@SGXPAX@Z	; CObject::operator delete
$L41541:
  00020	8b 45 fc	 mov	 eax, DWORD PTR _this$[ebp]
  00023	8b e5		 mov	 esp, ebp
  00025	5d		 pop	 ebp
  00026	c2 04 00	 ret	 4
??_GCPen@@UAEPAXI@Z ENDP				; CPen::`scalar deleting destructor'
_TEXT	ENDS
PUBLIC	??_R4CBrush@@6B@				; CBrush::`RTTI Complete Object Locator'
PUBLIC	??_R0?AVCBrush@@@8				; CBrush `RTTI Type Descriptor'
PUBLIC	??_R3CBrush@@8					; CBrush::`RTTI Class Hierarchy Descriptor'
PUBLIC	??_R2CBrush@@8					; CBrush::`RTTI Base Class Array'
PUBLIC	??_R1A@?0A@A@CBrush@@8				; CBrush::`RTTI Base Class Descriptor at (0,-1,0,0)'
PUBLIC	??0CGdiObject@@QAE@XZ				; CGdiObject::CGdiObject
PUBLIC	??_7CBrush@@6B@					; CBrush::`vftable'
PUBLIC	??_GCBrush@@UAEPAXI@Z				; CBrush::`scalar deleting destructor'
EXTRN	?GetRuntimeClass@CBrush@@UBEPAUCRuntimeClass@@XZ:NEAR ; CBrush::GetRuntimeClass
EXTRN	??_ECBrush@@UAEPAXI@Z:NEAR			; CBrush::`vector deleting destructor'
;	COMDAT ??_7CBrush@@6B@
; File d:\program files (x86)\microsoft visual studio .net 2003\vc7\atlmfc\include\afxwin1.inl
CONST	SEGMENT
??_7CBrush@@6B@ DD FLAT:??_R4CBrush@@6B@		; CBrush::`vftable'
	DD	FLAT:?GetRuntimeClass@CBrush@@UBEPAUCRuntimeClass@@XZ
	DD	FLAT:??_ECBrush@@UAEPAXI@Z
	DD	FLAT:?Serialize@CObject@@UAEXAAVCArchive@@@Z
	DD	FLAT:?AssertValid@CObject@@UBEXXZ
	DD	FLAT:?Dump@CObject@@UBEXAAVCDumpContext@@@Z
CONST	ENDS
;	COMDAT ??_R4CBrush@@6B@
rdata$r	SEGMENT
??_R4CBrush@@6B@ DD 00H					; CBrush::`RTTI Complete Object Locator'
	DD	00H
	DD	00H
	DD	FLAT:??_R0?AVCBrush@@@8
	DD	FLAT:??_R3CBrush@@8
rdata$r	ENDS
;	COMDAT ??_R0?AVCBrush@@@8
_DATA	SEGMENT
??_R0?AVCBrush@@@8 DD FLAT:??_7type_info@@6B@		; CBrush `RTTI Type Descriptor'
	DD	00H
	DB	'.?AVCBrush@@', 00H
_DATA	ENDS
;	COMDAT ??_R3CBrush@@8
rdata$r	SEGMENT
??_R3CBrush@@8 DD 00H					; CBrush::`RTTI Class Hierarchy Descriptor'
	DD	00H
	DD	03H
	DD	FLAT:??_R2CBrush@@8
rdata$r	ENDS
;	COMDAT ??_R2CBrush@@8
rdata$r	SEGMENT
??_R2CBrush@@8 DD FLAT:??_R1A@?0A@A@CBrush@@8		; CBrush::`RTTI Base Class Array'
	DD	FLAT:??_R1A@?0A@A@CGdiObject@@8
	DD	FLAT:??_R1A@?0A@A@CObject@@8
rdata$r	ENDS
;	COMDAT ??_R1A@?0A@A@CBrush@@8
rdata$r	SEGMENT
??_R1A@?0A@A@CBrush@@8 DD FLAT:??_R0?AVCBrush@@@8	; CBrush::`RTTI Base Class Descriptor at (0,-1,0,0)'
	DD	02H
	DD	00H
	DD	0ffffffffH
	DD	00H
	DD	00H
; Function compile flags: /Odt
rdata$r	ENDS
;	COMDAT ??0CBrush@@QAE@XZ
_TEXT	SEGMENT
_this$ = -4						; size = 4
??0CBrush@@QAE@XZ PROC NEAR				; CBrush::CBrush, COMDAT
; _this$ = ecx

; 128  : 	{ }

  00000	55		 push	 ebp
  00001	8b ec		 mov	 ebp, esp
  00003	51		 push	 ecx
  00004	89 4d fc	 mov	 DWORD PTR _this$[ebp], ecx
  00007	8b 4d fc	 mov	 ecx, DWORD PTR _this$[ebp]
  0000a	e8 00 00 00 00	 call	 ??0CGdiObject@@QAE@XZ	; CGdiObject::CGdiObject
  0000f	8b 45 fc	 mov	 eax, DWORD PTR _this$[ebp]
  00012	c7 00 00 00 00
	00		 mov	 DWORD PTR [eax], OFFSET FLAT:??_7CBrush@@6B@
  00018	8b 45 fc	 mov	 eax, DWORD PTR _this$[ebp]
  0001b	8b e5		 mov	 esp, ebp
  0001d	5d		 pop	 ebp
  0001e	c3		 ret	 0
??0CBrush@@QAE@XZ ENDP					; CBrush::CBrush
_TEXT	ENDS
PUBLIC	??0CObject@@IAE@XZ				; CObject::CObject
; Function compile flags: /Odt
;	COMDAT ??0CGdiObject@@QAE@XZ
_TEXT	SEGMENT
_this$ = -4						; size = 4
??0CGdiObject@@QAE@XZ PROC NEAR				; CGdiObject::CGdiObject, COMDAT
; _this$ = ecx

; 82   : 	{ m_hObject = NULL; }

  00000	55		 push	 ebp
  00001	8b ec		 mov	 ebp, esp
  00003	51		 push	 ecx
  00004	89 4d fc	 mov	 DWORD PTR _this$[ebp], ecx
  00007	8b 4d fc	 mov	 ecx, DWORD PTR _this$[ebp]
  0000a	e8 00 00 00 00	 call	 ??0CObject@@IAE@XZ	; CObject::CObject
  0000f	8b 45 fc	 mov	 eax, DWORD PTR _this$[ebp]
  00012	c7 00 00 00 00
	00		 mov	 DWORD PTR [eax], OFFSET FLAT:??_7CGdiObject@@6B@
  00018	8b 4d fc	 mov	 ecx, DWORD PTR _this$[ebp]
  0001b	c7 41 04 00 00
	00 00		 mov	 DWORD PTR [ecx+4], 0
  00022	8b 45 fc	 mov	 eax, DWORD PTR _this$[ebp]
  00025	8b e5		 mov	 esp, ebp
  00027	5d		 pop	 ebp
  00028	c3		 ret	 0
??0CGdiObject@@QAE@XZ ENDP				; CGdiObject::CGdiObject
; Function compile flags: /Odt
; File d:\program files (x86)\microsoft visual studio .net 2003\vc7\atlmfc\include\afx.inl
_TEXT	ENDS
;	COMDAT ??0CObject@@IAE@XZ
_TEXT	SEGMENT
_this$ = -4						; size = 4
??0CObject@@IAE@XZ PROC NEAR				; CObject::CObject, COMDAT
; _this$ = ecx

; 21   : 	{ }

  00000	55		 push	 ebp
  00001	8b ec		 mov	 ebp, esp
  00003	51		 push	 ecx
  00004	89 4d fc	 mov	 DWORD PTR _this$[ebp], ecx
  00007	8b 45 fc	 mov	 eax, DWORD PTR _this$[ebp]
  0000a	8b e5		 mov	 esp, ebp
  0000c	5d		 pop	 ebp
  0000d	c3		 ret	 0
??0CObject@@IAE@XZ ENDP					; CObject::CObject
; Function compile flags: /Odt
_TEXT	ENDS
;	COMDAT ??_GCBrush@@UAEPAXI@Z
_TEXT	SEGMENT
_this$ = -4						; size = 4
___flags$ = 8						; size = 4
??_GCBrush@@UAEPAXI@Z PROC NEAR				; CBrush::`scalar deleting destructor', COMDAT
; _this$ = ecx
  00000	55		 push	 ebp
  00001	8b ec		 mov	 ebp, esp
  00003	51		 push	 ecx
  00004	89 4d fc	 mov	 DWORD PTR _this$[ebp], ecx
  00007	8b 4d fc	 mov	 ecx, DWORD PTR _this$[ebp]
  0000a	e8 00 00 00 00	 call	 ??1CBrush@@UAE@XZ	; CBrush::~CBrush
  0000f	8b 45 08	 mov	 eax, DWORD PTR ___flags$[ebp]
  00012	83 e0 01	 and	 eax, 1
  00015	74 09		 je	 SHORT $L41589
  00017	8b 4d fc	 mov	 ecx, DWORD PTR _this$[ebp]
  0001a	51		 push	 ecx
  0001b	e8 00 00 00 00	 call	 ??3CObject@@SGXPAX@Z	; CObject::operator delete
$L41589:
  00020	8b 45 fc	 mov	 eax, DWORD PTR _this$[ebp]
  00023	8b e5		 mov	 esp, ebp
  00025	5d		 pop	 ebp
  00026	c2 04 00	 ret	 4
??_GCBrush@@UAEPAXI@Z ENDP				; CBrush::`scalar deleting destructor'
; Function compile flags: /Odt
; File d:\program files (x86)\microsoft visual studio .net 2003\vc7\atlmfc\include\afxwin1.inl
_TEXT	ENDS
;	COMDAT ??1CBrush@@UAE@XZ
_TEXT	SEGMENT
_this$ = -4						; size = 4
??1CBrush@@UAE@XZ PROC NEAR				; CBrush::~CBrush, COMDAT
; _this$ = ecx

; 130  : 	{ }

  00000	55		 push	 ebp
  00001	8b ec		 mov	 ebp, esp
  00003	51		 push	 ecx
  00004	89 4d fc	 mov	 DWORD PTR _this$[ebp], ecx
  00007	8b 45 fc	 mov	 eax, DWORD PTR _this$[ebp]
  0000a	c7 00 00 00 00
	00		 mov	 DWORD PTR [eax], OFFSET FLAT:??_7CBrush@@6B@
  00010	8b 4d fc	 mov	 ecx, DWORD PTR _this$[ebp]
  00013	e8 00 00 00 00	 call	 ??1CGdiObject@@UAE@XZ	; CGdiObject::~CGdiObject
  00018	8b e5		 mov	 esp, ebp
  0001a	5d		 pop	 ebp
  0001b	c3		 ret	 0
??1CBrush@@UAE@XZ ENDP					; CBrush::~CBrush
_TEXT	ENDS
EXTRN	__imp__CreateSolidBrush@4:NEAR
EXTRN	?Attach@CGdiObject@@QAEHPAX@Z:NEAR		; CGdiObject::Attach
; Function compile flags: /Odt
;	COMDAT ?CreateSolidBrush@CBrush@@QAEHK@Z
_TEXT	SEGMENT
_this$ = -4						; size = 4
_crColor$ = 8						; size = 4
?CreateSolidBrush@CBrush@@QAEHK@Z PROC NEAR		; CBrush::CreateSolidBrush, COMDAT
; _this$ = ecx

; 132  : 	{ return Attach(::CreateSolidBrush(crColor)); }

  00000	55		 push	 ebp
  00001	8b ec		 mov	 ebp, esp
  00003	51		 push	 ecx
  00004	89 4d fc	 mov	 DWORD PTR _this$[ebp], ecx
  00007	8b 45 08	 mov	 eax, DWORD PTR _crColor$[ebp]
  0000a	50		 push	 eax
  0000b	ff 15 00 00 00
	00		 call	 DWORD PTR __imp__CreateSolidBrush@4
  00011	50		 push	 eax
  00012	8b 4d fc	 mov	 ecx, DWORD PTR _this$[ebp]
  00015	e8 00 00 00 00	 call	 ?Attach@CGdiObject@@QAEHPAX@Z ; CGdiObject::Attach
  0001a	8b e5		 mov	 esp, ebp
  0001c	5d		 pop	 ebp
  0001d	c2 04 00	 ret	 4
?CreateSolidBrush@CBrush@@QAEHK@Z ENDP			; CBrush::CreateSolidBrush
_TEXT	ENDS
PUBLIC	??_R4CFont@@6B@					; CFont::`RTTI Complete Object Locator'
PUBLIC	??_R0?AVCFont@@@8				; CFont `RTTI Type Descriptor'
PUBLIC	??_R3CFont@@8					; CFont::`RTTI Class Hierarchy Descriptor'
PUBLIC	??_R2CFont@@8					; CFont::`RTTI Base Class Array'
PUBLIC	??_R1A@?0A@A@CFont@@8				; CFont::`RTTI Base Class Descriptor at (0,-1,0,0)'
PUBLIC	??_7CFont@@6B@					; CFont::`vftable'
PUBLIC	??_GCFont@@UAEPAXI@Z				; CFont::`scalar deleting destructor'
EXTRN	?GetRuntimeClass@CFont@@UBEPAUCRuntimeClass@@XZ:NEAR ; CFont::GetRuntimeClass
EXTRN	??_ECFont@@UAEPAXI@Z:NEAR			; CFont::`vector deleting destructor'
;	COMDAT ??_7CFont@@6B@
CONST	SEGMENT
??_7CFont@@6B@ DD FLAT:??_R4CFont@@6B@			; CFont::`vftable'
	DD	FLAT:?GetRuntimeClass@CFont@@UBEPAUCRuntimeClass@@XZ
	DD	FLAT:??_ECFont@@UAEPAXI@Z
	DD	FLAT:?Serialize@CObject@@UAEXAAVCArchive@@@Z
	DD	FLAT:?AssertValid@CObject@@UBEXXZ
	DD	FLAT:?Dump@CObject@@UBEXAAVCDumpContext@@@Z
CONST	ENDS
;	COMDAT ??_R4CFont@@6B@
rdata$r	SEGMENT
??_R4CFont@@6B@ DD 00H					; CFont::`RTTI Complete Object Locator'
	DD	00H
	DD	00H
	DD	FLAT:??_R0?AVCFont@@@8
	DD	FLAT:??_R3CFont@@8
rdata$r	ENDS
;	COMDAT ??_R0?AVCFont@@@8
_DATA	SEGMENT
??_R0?AVCFont@@@8 DD FLAT:??_7type_info@@6B@		; CFont `RTTI Type Descriptor'
	DD	00H
	DB	'.?AVCFont@@', 00H
_DATA	ENDS
;	COMDAT ??_R3CFont@@8
rdata$r	SEGMENT
??_R3CFont@@8 DD 00H					; CFont::`RTTI Class Hierarchy Descriptor'
	DD	00H
	DD	03H
	DD	FLAT:??_R2CFont@@8
rdata$r	ENDS
;	COMDAT ??_R2CFont@@8
rdata$r	SEGMENT
??_R2CFont@@8 DD FLAT:??_R1A@?0A@A@CFont@@8		; CFont::`RTTI Base Class Array'
	DD	FLAT:??_R1A@?0A@A@CGdiObject@@8
	DD	FLAT:??_R1A@?0A@A@CObject@@8
rdata$r	ENDS
;	COMDAT ??_R1A@?0A@A@CFont@@8
rdata$r	SEGMENT
??_R1A@?0A@A@CFont@@8 DD FLAT:??_R0?AVCFont@@@8		; CFont::`RTTI Base Class Descriptor at (0,-1,0,0)'
	DD	02H
	DD	00H
	DD	0ffffffffH
	DD	00H
	DD	00H
; Function compile flags: /Odt
rdata$r	ENDS
;	COMDAT ??0CFont@@QAE@XZ
_TEXT	SEGMENT
_this$ = -4						; size = 4
??0CFont@@QAE@XZ PROC NEAR				; CFont::CFont, COMDAT
; _this$ = ecx

; 153  : 	{ }

  00000	55		 push	 ebp
  00001	8b ec		 mov	 ebp, esp
  00003	51		 push	 ecx
  00004	89 4d fc	 mov	 DWORD PTR _this$[ebp], ecx
  00007	8b 4d fc	 mov	 ecx, DWORD PTR _this$[ebp]
  0000a	e8 00 00 00 00	 call	 ??0CGdiObject@@QAE@XZ	; CGdiObject::CGdiObject
  0000f	8b 45 fc	 mov	 eax, DWORD PTR _this$[ebp]
  00012	c7 00 00 00 00
	00		 mov	 DWORD PTR [eax], OFFSET FLAT:??_7CFont@@6B@
  00018	8b 45 fc	 mov	 eax, DWORD PTR _this$[ebp]
  0001b	8b e5		 mov	 esp, ebp
  0001d	5d		 pop	 ebp
  0001e	c3		 ret	 0
??0CFont@@QAE@XZ ENDP					; CFont::CFont
; Function compile flags: /Odt
_TEXT	ENDS
;	COMDAT ??_GCFont@@UAEPAXI@Z
_TEXT	SEGMENT
_this$ = -4						; size = 4
___flags$ = 8						; size = 4
??_GCFont@@UAEPAXI@Z PROC NEAR				; CFont::`scalar deleting destructor', COMDAT
; _this$ = ecx
  00000	55		 push	 ebp
  00001	8b ec		 mov	 ebp, esp
  00003	51		 push	 ecx
  00004	89 4d fc	 mov	 DWORD PTR _this$[ebp], ecx
  00007	8b 4d fc	 mov	 ecx, DWORD PTR _this$[ebp]
  0000a	e8 00 00 00 00	 call	 ??1CFont@@UAE@XZ	; CFont::~CFont
  0000f	8b 45 08	 mov	 eax, DWORD PTR ___flags$[ebp]
  00012	83 e0 01	 and	 eax, 1
  00015	74 09		 je	 SHORT $L41640
  00017	8b 4d fc	 mov	 ecx, DWORD PTR _this$[ebp]
  0001a	51		 push	 ecx
  0001b	e8 00 00 00 00	 call	 ??3CObject@@SGXPAX@Z	; CObject::operator delete
$L41640:
  00020	8b 45 fc	 mov	 eax, DWORD PTR _this$[ebp]
  00023	8b e5		 mov	 esp, ebp
  00025	5d		 pop	 ebp
  00026	c2 04 00	 ret	 4
??_GCFont@@UAEPAXI@Z ENDP				; CFont::`scalar deleting destructor'
; Function compile flags: /Odt
_TEXT	ENDS
;	COMDAT ??1CFont@@UAE@XZ
_TEXT	SEGMENT
_this$ = -4						; size = 4
??1CFont@@UAE@XZ PROC NEAR				; CFont::~CFont, COMDAT
; _this$ = ecx

; 155  : 	{ }

  00000	55		 push	 ebp
  00001	8b ec		 mov	 ebp, esp
  00003	51		 push	 ecx
  00004	89 4d fc	 mov	 DWORD PTR _this$[ebp], ecx
  00007	8b 45 fc	 mov	 eax, DWORD PTR _this$[ebp]
  0000a	c7 00 00 00 00
	00		 mov	 DWORD PTR [eax], OFFSET FLAT:??_7CFont@@6B@
  00010	8b 4d fc	 mov	 ecx, DWORD PTR _this$[ebp]
  00013	e8 00 00 00 00	 call	 ??1CGdiObject@@UAE@XZ	; CGdiObject::~CGdiObject
  00018	8b e5		 mov	 esp, ebp
  0001a	5d		 pop	 ebp
  0001b	c3		 ret	 0
??1CFont@@UAE@XZ ENDP					; CFont::~CFont
; Function compile flags: /Odt
_TEXT	ENDS
;	COMDAT ?CreateFontIndirectA@CFont@@QAEHPBUtagLOGFONTA@@@Z
_TEXT	SEGMENT
_this$ = -4						; size = 4
_lpLogFont$ = 8						; size = 4
?CreateFontIndirectA@CFont@@QAEHPBUtagLOGFONTA@@@Z PROC NEAR ; CFont::CreateFontIndirectA, COMDAT
; _this$ = ecx

; 157  : 	{ return Attach(::CreateFontIndirect(lpLogFont)); }

  00000	55		 push	 ebp
  00001	8b ec		 mov	 ebp, esp
  00003	51		 push	 ecx
  00004	89 4d fc	 mov	 DWORD PTR _this$[ebp], ecx
  00007	8b 45 08	 mov	 eax, DWORD PTR _lpLogFont$[ebp]
  0000a	50		 push	 eax
  0000b	ff 15 00 00 00
	00		 call	 DWORD PTR __imp__CreateFontIndirectA@4
  00011	50		 push	 eax
  00012	8b 4d fc	 mov	 ecx, DWORD PTR _this$[ebp]
  00015	e8 00 00 00 00	 call	 ?Attach@CGdiObject@@QAEHPAX@Z ; CGdiObject::Attach
  0001a	8b e5		 mov	 esp, ebp
  0001c	5d		 pop	 ebp
  0001d	c2 04 00	 ret	 4
?CreateFontIndirectA@CFont@@QAEHPBUtagLOGFONTA@@@Z ENDP	; CFont::CreateFontIndirectA
_TEXT	ENDS
EXTRN	__imp__CreateFontA@56:NEAR
; Function compile flags: /Odt
;	COMDAT ?CreateFontA@CFont@@QAEHHHHHHEEEEEEEEPBD@Z
_TEXT	SEGMENT
_this$ = -4						; size = 4
_nHeight$ = 8						; size = 4
_nWidth$ = 12						; size = 4
_nEscapement$ = 16					; size = 4
_nOrientation$ = 20					; size = 4
_nWeight$ = 24						; size = 4
_bItalic$ = 28						; size = 1
_bUnderline$ = 32					; size = 1
_cStrikeOut$ = 36					; size = 1
_nCharSet$ = 40						; size = 1
_nOutPrecision$ = 44					; size = 1
_nClipPrecision$ = 48					; size = 1
_nQuality$ = 52						; size = 1
_nPitchAndFamily$ = 56					; size = 1
_lpszFacename$ = 60					; size = 4
?CreateFontA@CFont@@QAEHHHHHHEEEEEEEEPBD@Z PROC NEAR	; CFont::CreateFontA, COMDAT
; _this$ = ecx

; 163  : 	{ return Attach(::CreateFont(nHeight, nWidth, nEscapement,

  00000	55		 push	 ebp
  00001	8b ec		 mov	 ebp, esp
  00003	51		 push	 ecx
  00004	89 4d fc	 mov	 DWORD PTR _this$[ebp], ecx

; 164  : 		nOrientation, nWeight, bItalic, bUnderline, cStrikeOut,
; 165  : 		nCharSet, nOutPrecision, nClipPrecision, nQuality,
; 166  : 		nPitchAndFamily, lpszFacename)); }

  00007	8b 45 3c	 mov	 eax, DWORD PTR _lpszFacename$[ebp]
  0000a	50		 push	 eax
  0000b	0f b6 4d 38	 movzx	 ecx, BYTE PTR _nPitchAndFamily$[ebp]
  0000f	51		 push	 ecx
  00010	0f b6 55 34	 movzx	 edx, BYTE PTR _nQuality$[ebp]
  00014	52		 push	 edx
  00015	0f b6 45 30	 movzx	 eax, BYTE PTR _nClipPrecision$[ebp]
  00019	50		 push	 eax
  0001a	0f b6 4d 2c	 movzx	 ecx, BYTE PTR _nOutPrecision$[ebp]
  0001e	51		 push	 ecx
  0001f	0f b6 55 28	 movzx	 edx, BYTE PTR _nCharSet$[ebp]
  00023	52		 push	 edx
  00024	0f b6 45 24	 movzx	 eax, BYTE PTR _cStrikeOut$[ebp]
  00028	50		 push	 eax
  00029	0f b6 4d 20	 movzx	 ecx, BYTE PTR _bUnderline$[ebp]
  0002d	51		 push	 ecx
  0002e	0f b6 55 1c	 movzx	 edx, BYTE PTR _bItalic$[ebp]
  00032	52		 push	 edx
  00033	8b 45 18	 mov	 eax, DWORD PTR _nWeight$[ebp]
  00036	50		 push	 eax
  00037	8b 4d 14	 mov	 ecx, DWORD PTR _nOrientation$[ebp]
  0003a	51		 push	 ecx
  0003b	8b 55 10	 mov	 edx, DWORD PTR _nEscapement$[ebp]
  0003e	52		 push	 edx
  0003f	8b 45 0c	 mov	 eax, DWORD PTR _nWidth$[ebp]
  00042	50		 push	 eax
  00043	8b 4d 08	 mov	 ecx, DWORD PTR _nHeight$[ebp]
  00046	51		 push	 ecx
  00047	ff 15 00 00 00
	00		 call	 DWORD PTR __imp__CreateFontA@56
  0004d	50		 push	 eax
  0004e	8b 4d fc	 mov	 ecx, DWORD PTR _this$[ebp]
  00051	e8 00 00 00 00	 call	 ?Attach@CGdiObject@@QAEHPAX@Z ; CGdiObject::Attach
  00056	8b e5		 mov	 esp, ebp
  00058	5d		 pop	 ebp
  00059	c2 38 00	 ret	 56			; 00000038H
?CreateFontA@CFont@@QAEHHHHHHEEEEEEEEPBD@Z ENDP		; CFont::CreateFontA
_TEXT	ENDS
EXTRN	__imp__SelectObject@8:NEAR
; Function compile flags: /Odt
;	COMDAT ?SelectObject@CDC@@QAEPAXPAX@Z
_TEXT	SEGMENT
tv69 = -8						; size = 4
_this$ = -4						; size = 4
_hObject$ = 8						; size = 4
?SelectObject@CDC@@QAEPAXPAX@Z PROC NEAR		; CDC::SelectObject, COMDAT
; _this$ = ecx

; 365  : 	{ ASSERT(m_hDC == m_hAttribDC); // ASSERT a simple CDC object

  00000	55		 push	 ebp
  00001	8b ec		 mov	 ebp, esp
  00003	83 ec 08	 sub	 esp, 8
  00006	89 4d fc	 mov	 DWORD PTR _this$[ebp], ecx

; 366  : 		return (hObject != NULL) ? ::SelectObject(m_hDC, hObject) : NULL; }

  00009	83 7d 08 00	 cmp	 DWORD PTR _hObject$[ebp], 0
  0000d	74 16		 je	 SHORT $L200580
  0000f	8b 45 08	 mov	 eax, DWORD PTR _hObject$[ebp]
  00012	50		 push	 eax
  00013	8b 4d fc	 mov	 ecx, DWORD PTR _this$[ebp]
  00016	8b 51 04	 mov	 edx, DWORD PTR [ecx+4]
  00019	52		 push	 edx
  0001a	ff 15 00 00 00
	00		 call	 DWORD PTR __imp__SelectObject@8
  00020	89 45 f8	 mov	 DWORD PTR tv69[ebp], eax
  00023	eb 07		 jmp	 SHORT $L200581
$L200580:
  00025	c7 45 f8 00 00
	00 00		 mov	 DWORD PTR tv69[ebp], 0
$L200581:
  0002c	8b 45 f8	 mov	 eax, DWORD PTR tv69[ebp]
  0002f	8b e5		 mov	 esp, ebp
  00031	5d		 pop	 ebp
  00032	c2 04 00	 ret	 4
?SelectObject@CDC@@QAEPAXPAX@Z ENDP			; CDC::SelectObject
_TEXT	ENDS
PUBLIC	?GetSafeHandle@CGdiObject@@QBEPAXXZ		; CGdiObject::GetSafeHandle
EXTRN	__imp__FillRect@12:NEAR
; Function compile flags: /Odt
;	COMDAT ?FillRect@CDC@@QAEXPBUtagRECT@@PAVCBrush@@@Z
_TEXT	SEGMENT
_this$ = -4						; size = 4
_lpRect$ = 8						; size = 4
_pBrush$ = 12						; size = 4
?FillRect@CDC@@QAEXPBUtagRECT@@PAVCBrush@@@Z PROC NEAR	; CDC::FillRect, COMDAT
; _this$ = ecx

; 472  : 	{ ASSERT(m_hDC != NULL); ::FillRect(m_hDC, lpRect, (HBRUSH)pBrush->GetSafeHandle()); }

  00000	55		 push	 ebp
  00001	8b ec		 mov	 ebp, esp
  00003	51		 push	 ecx
  00004	89 4d fc	 mov	 DWORD PTR _this$[ebp], ecx
  00007	8b 4d 0c	 mov	 ecx, DWORD PTR _pBrush$[ebp]
  0000a	e8 00 00 00 00	 call	 ?GetSafeHandle@CGdiObject@@QBEPAXXZ ; CGdiObject::GetSafeHandle
  0000f	50		 push	 eax
  00010	8b 45 08	 mov	 eax, DWORD PTR _lpRect$[ebp]
  00013	50		 push	 eax
  00014	8b 4d fc	 mov	 ecx, DWORD PTR _this$[ebp]
  00017	8b 51 04	 mov	 edx, DWORD PTR [ecx+4]
  0001a	52		 push	 edx
  0001b	ff 15 00 00 00
	00		 call	 DWORD PTR __imp__FillRect@12
  00021	8b e5		 mov	 esp, ebp
  00023	5d		 pop	 ebp
  00024	c2 08 00	 ret	 8
?FillRect@CDC@@QAEXPBUtagRECT@@PAVCBrush@@@Z ENDP	; CDC::FillRect
; Function compile flags: /Odt
_TEXT	ENDS
;	COMDAT ?GetSafeHandle@CGdiObject@@QBEPAXXZ
_TEXT	SEGMENT
tv66 = -8						; size = 4
_this$ = -4						; size = 4
?GetSafeHandle@CGdiObject@@QBEPAXXZ PROC NEAR		; CGdiObject::GetSafeHandle, COMDAT
; _this$ = ecx

; 80   : 	{ return this == NULL ? NULL : m_hObject; }

  00000	55		 push	 ebp
  00001	8b ec		 mov	 ebp, esp
  00003	83 ec 08	 sub	 esp, 8
  00006	89 4d fc	 mov	 DWORD PTR _this$[ebp], ecx
  00009	83 7d fc 00	 cmp	 DWORD PTR _this$[ebp], 0
  0000d	75 09		 jne	 SHORT $L200586
  0000f	c7 45 f8 00 00
	00 00		 mov	 DWORD PTR tv66[ebp], 0
  00016	eb 09		 jmp	 SHORT $L200587
$L200586:
  00018	8b 45 fc	 mov	 eax, DWORD PTR _this$[ebp]
  0001b	8b 48 04	 mov	 ecx, DWORD PTR [eax+4]
  0001e	89 4d f8	 mov	 DWORD PTR tv66[ebp], ecx
$L200587:
  00021	8b 45 f8	 mov	 eax, DWORD PTR tv66[ebp]
  00024	8b e5		 mov	 esp, ebp
  00026	5d		 pop	 ebp
  00027	c3		 ret	 0
?GetSafeHandle@CGdiObject@@QBEPAXXZ ENDP		; CGdiObject::GetSafeHandle
_TEXT	ENDS
EXTRN	__imp__DrawTextA@20:NEAR
; Function compile flags: /Odt
;	COMDAT ?DrawTextA@CDC@@UAEHPBDHPAUtagRECT@@I@Z
_TEXT	SEGMENT
_this$ = -4						; size = 4
_lpszString$ = 8					; size = 4
_nCount$ = 12						; size = 4
_lpRect$ = 16						; size = 4
_nFormat$ = 20						; size = 4
?DrawTextA@CDC@@UAEHPBDHPAUtagRECT@@I@Z PROC NEAR	; CDC::DrawTextA, COMDAT
; _this$ = ecx

; 589  : 	{ ASSERT(m_hDC != NULL);

  00000	55		 push	 ebp
  00001	8b ec		 mov	 ebp, esp
  00003	51		 push	 ecx
  00004	89 4d fc	 mov	 DWORD PTR _this$[ebp], ecx

; 590  : 		return ::DrawText(m_hDC, lpszString, nCount, lpRect, nFormat); }

  00007	8b 45 14	 mov	 eax, DWORD PTR _nFormat$[ebp]
  0000a	50		 push	 eax
  0000b	8b 4d 10	 mov	 ecx, DWORD PTR _lpRect$[ebp]
  0000e	51		 push	 ecx
  0000f	8b 55 0c	 mov	 edx, DWORD PTR _nCount$[ebp]
  00012	52		 push	 edx
  00013	8b 45 08	 mov	 eax, DWORD PTR _lpszString$[ebp]
  00016	50		 push	 eax
  00017	8b 4d fc	 mov	 ecx, DWORD PTR _this$[ebp]
  0001a	8b 51 04	 mov	 edx, DWORD PTR [ecx+4]
  0001d	52		 push	 edx
  0001e	ff 15 00 00 00
	00		 call	 DWORD PTR __imp__DrawTextA@20
  00024	8b e5		 mov	 esp, ebp
  00026	5d		 pop	 ebp
  00027	c2 10 00	 ret	 16			; 00000010H
?DrawTextA@CDC@@UAEHPBDHPAUtagRECT@@I@Z ENDP		; CDC::DrawTextA
; Function compile flags: /Odt
_TEXT	ENDS
;	COMDAT ?DrawTextA@CDC@@QAEHABV?$CStringT@DV?$StrTraitMFC_DLL@DV?$ChTraitsCRT@D@ATL@@@@@ATL@@PAUtagRECT@@I@Z
_TEXT	SEGMENT
_this$ = -4						; size = 4
_str$ = 8						; size = 4
_lpRect$ = 12						; size = 4
_nFormat$ = 16						; size = 4
?DrawTextA@CDC@@QAEHABV?$CStringT@DV?$StrTraitMFC_DLL@DV?$ChTraitsCRT@D@ATL@@@@@ATL@@PAUtagRECT@@I@Z PROC NEAR ; CDC::DrawTextA, COMDAT
; _this$ = ecx

; 592  : 	{ ASSERT(m_hDC != NULL);

  00000	55		 push	 ebp
  00001	8b ec		 mov	 ebp, esp
  00003	51		 push	 ecx
  00004	89 4d fc	 mov	 DWORD PTR _this$[ebp], ecx

; 593  : 		// these flags would modify the string
; 594  : 		ASSERT((nFormat & (DT_END_ELLIPSIS | DT_MODIFYSTRING)) != (DT_END_ELLIPSIS | DT_MODIFYSTRING));
; 595  : 		ASSERT((nFormat & (DT_PATH_ELLIPSIS | DT_MODIFYSTRING)) != (DT_PATH_ELLIPSIS | DT_MODIFYSTRING));
; 596  : 		return DrawText((LPCTSTR)str, (int)str.GetLength(), lpRect, nFormat); }

  00007	8b 45 10	 mov	 eax, DWORD PTR _nFormat$[ebp]
  0000a	50		 push	 eax
  0000b	8b 4d 0c	 mov	 ecx, DWORD PTR _lpRect$[ebp]
  0000e	51		 push	 ecx
  0000f	8b 4d 08	 mov	 ecx, DWORD PTR _str$[ebp]
  00012	ff 15 00 00 00
	00		 call	 DWORD PTR __imp_?GetLength@?$CSimpleStringT@D$00@ATL@@QBEHXZ
  00018	50		 push	 eax
  00019	8b 4d 08	 mov	 ecx, DWORD PTR _str$[ebp]
  0001c	ff 15 00 00 00
	00		 call	 DWORD PTR __imp_??B?$CSimpleStringT@D$00@ATL@@QBEPBDXZ
  00022	50		 push	 eax
  00023	8b 55 fc	 mov	 edx, DWORD PTR _this$[ebp]
  00026	8b 02		 mov	 eax, DWORD PTR [edx]
  00028	8b 4d fc	 mov	 ecx, DWORD PTR _this$[ebp]
  0002b	ff 50 70	 call	 DWORD PTR [eax+112]
  0002e	8b e5		 mov	 esp, ebp
  00030	5d		 pop	 ebp
  00031	c2 0c 00	 ret	 12			; 0000000cH
?DrawTextA@CDC@@QAEHABV?$CStringT@DV?$StrTraitMFC_DLL@DV?$ChTraitsCRT@D@ATL@@@@@ATL@@PAUtagRECT@@I@Z ENDP ; CDC::DrawTextA
_TEXT	ENDS
PUBLIC	??0CSize@@QAE@UtagSIZE@@@Z			; CSize::CSize
EXTRN	__imp__GetTextExtentPoint32A@16:NEAR
; Function compile flags: /Odt
;	COMDAT ?GetTextExtent@CDC@@QBE?AVCSize@@ABV?$CStringT@DV?$StrTraitMFC_DLL@DV?$ChTraitsCRT@D@ATL@@@@@ATL@@@Z
_TEXT	SEGMENT
_this$ = -12						; size = 4
_size$ = -8						; size = 8
___$ReturnUdt$ = 8					; size = 4
_str$ = 12						; size = 4
?GetTextExtent@CDC@@QBE?AVCSize@@ABV?$CStringT@DV?$StrTraitMFC_DLL@DV?$ChTraitsCRT@D@ATL@@@@@ATL@@@Z PROC NEAR ; CDC::GetTextExtent, COMDAT
; _this$ = ecx

; 617  : 	{

  00000	55		 push	 ebp
  00001	8b ec		 mov	 ebp, esp
  00003	83 ec 0c	 sub	 esp, 12			; 0000000cH
  00006	89 4d f4	 mov	 DWORD PTR _this$[ebp], ecx

; 618  : 		ASSERT(m_hAttribDC != NULL);
; 619  : 		SIZE size;
; 620  : 		VERIFY(::GetTextExtentPoint32(m_hAttribDC, str, (int)str.GetLength(), &size));

  00009	8d 45 f8	 lea	 eax, DWORD PTR _size$[ebp]
  0000c	50		 push	 eax
  0000d	8b 4d 0c	 mov	 ecx, DWORD PTR _str$[ebp]
  00010	ff 15 00 00 00
	00		 call	 DWORD PTR __imp_?GetLength@?$CSimpleStringT@D$00@ATL@@QBEHXZ
  00016	50		 push	 eax
  00017	8b 4d 0c	 mov	 ecx, DWORD PTR _str$[ebp]
  0001a	ff 15 00 00 00
	00		 call	 DWORD PTR __imp_??B?$CSimpleStringT@D$00@ATL@@QBEPBDXZ
  00020	50		 push	 eax
  00021	8b 4d f4	 mov	 ecx, DWORD PTR _this$[ebp]
  00024	8b 51 08	 mov	 edx, DWORD PTR [ecx+8]
  00027	52		 push	 edx
  00028	ff 15 00 00 00
	00		 call	 DWORD PTR __imp__GetTextExtentPoint32A@16

; 621  : 		return size;

  0002e	8b 45 fc	 mov	 eax, DWORD PTR _size$[ebp+4]
  00031	50		 push	 eax
  00032	8b 4d f8	 mov	 ecx, DWORD PTR _size$[ebp]
  00035	51		 push	 ecx
  00036	8b 4d 08	 mov	 ecx, DWORD PTR ___$ReturnUdt$[ebp]
  00039	e8 00 00 00 00	 call	 ??0CSize@@QAE@UtagSIZE@@@Z ; CSize::CSize
  0003e	8b 45 08	 mov	 eax, DWORD PTR ___$ReturnUdt$[ebp]

; 622  : 	}

  00041	8b e5		 mov	 esp, ebp
  00043	5d		 pop	 ebp
  00044	c2 08 00	 ret	 8
?GetTextExtent@CDC@@QBE?AVCSize@@ABV?$CStringT@DV?$StrTraitMFC_DLL@DV?$ChTraitsCRT@D@ATL@@@@@ATL@@@Z ENDP ; CDC::GetTextExtent
; Function compile flags: /Odt
; File d:\program files (x86)\microsoft visual studio .net 2003\vc7\atlmfc\include\atltypes.inl
_TEXT	ENDS
;	COMDAT ??0CSize@@QAE@UtagSIZE@@@Z
_TEXT	SEGMENT
_this$ = -4						; size = 4
_initSize$ = 8						; size = 8
??0CSize@@QAE@UtagSIZE@@@Z PROC NEAR			; CSize::CSize, COMDAT
; _this$ = ecx

; 26   : 	{ *(SIZE*)this = initSize; }

  00000	55		 push	 ebp
  00001	8b ec		 mov	 ebp, esp
  00003	51		 push	 ecx
  00004	89 4d fc	 mov	 DWORD PTR _this$[ebp], ecx
  00007	8b 45 fc	 mov	 eax, DWORD PTR _this$[ebp]
  0000a	8b 4d 08	 mov	 ecx, DWORD PTR _initSize$[ebp]
  0000d	89 08		 mov	 DWORD PTR [eax], ecx
  0000f	8b 55 0c	 mov	 edx, DWORD PTR _initSize$[ebp+4]
  00012	89 50 04	 mov	 DWORD PTR [eax+4], edx
  00015	8b 45 fc	 mov	 eax, DWORD PTR _this$[ebp]
  00018	8b e5		 mov	 esp, ebp
  0001a	5d		 pop	 ebp
  0001b	c2 08 00	 ret	 8
??0CSize@@QAE@UtagSIZE@@@Z ENDP				; CSize::CSize
; Function compile flags: /Odt
; File d:\program files (x86)\microsoft visual studio .net 2003\vc7\atlmfc\include\afxwin2.inl
_TEXT	ENDS
;	COMDAT ??BCWnd@@QBEPAUHWND__@@XZ
_TEXT	SEGMENT
tv66 = -8						; size = 4
_this$ = -4						; size = 4
??BCWnd@@QBEPAUHWND__@@XZ PROC NEAR			; CWnd::operator HWND__ *, COMDAT
; _this$ = ecx

; 21   : 	{ return this == NULL ? NULL : m_hWnd; }

  00000	55		 push	 ebp
  00001	8b ec		 mov	 ebp, esp
  00003	83 ec 08	 sub	 esp, 8
  00006	89 4d fc	 mov	 DWORD PTR _this$[ebp], ecx
  00009	83 7d fc 00	 cmp	 DWORD PTR _this$[ebp], 0
  0000d	75 09		 jne	 SHORT $L200598
  0000f	c7 45 f8 00 00
	00 00		 mov	 DWORD PTR tv66[ebp], 0
  00016	eb 09		 jmp	 SHORT $L200599
$L200598:
  00018	8b 45 fc	 mov	 eax, DWORD PTR _this$[ebp]
  0001b	8b 48 20	 mov	 ecx, DWORD PTR [eax+32]
  0001e	89 4d f8	 mov	 DWORD PTR tv66[ebp], ecx
$L200599:
  00021	8b 45 f8	 mov	 eax, DWORD PTR tv66[ebp]
  00024	8b e5		 mov	 esp, ebp
  00026	5d		 pop	 ebp
  00027	c3		 ret	 0
??BCWnd@@QBEPAUHWND__@@XZ ENDP				; CWnd::operator HWND__ *
; Function compile flags: /Odt
_TEXT	ENDS
;	COMDAT ?GetSafeHwnd@CWnd@@QBEPAUHWND__@@XZ
_TEXT	SEGMENT
tv66 = -8						; size = 4
_this$ = -4						; size = 4
?GetSafeHwnd@CWnd@@QBEPAUHWND__@@XZ PROC NEAR		; CWnd::GetSafeHwnd, COMDAT
; _this$ = ecx

; 27   : 	{ return this == NULL ? NULL : m_hWnd; }

  00000	55		 push	 ebp
  00001	8b ec		 mov	 ebp, esp
  00003	83 ec 08	 sub	 esp, 8
  00006	89 4d fc	 mov	 DWORD PTR _this$[ebp], ecx
  00009	83 7d fc 00	 cmp	 DWORD PTR _this$[ebp], 0
  0000d	75 09		 jne	 SHORT $L200602
  0000f	c7 45 f8 00 00
	00 00		 mov	 DWORD PTR tv66[ebp], 0
  00016	eb 09		 jmp	 SHORT $L200603
$L200602:
  00018	8b 45 fc	 mov	 eax, DWORD PTR _this$[ebp]
  0001b	8b 48 20	 mov	 ecx, DWORD PTR [eax+32]
  0001e	89 4d f8	 mov	 DWORD PTR tv66[ebp], ecx
$L200603:
  00021	8b 45 f8	 mov	 eax, DWORD PTR tv66[ebp]
  00024	8b e5		 mov	 esp, ebp
  00026	5d		 pop	 ebp
  00027	c3		 ret	 0
?GetSafeHwnd@CWnd@@QBEPAUHWND__@@XZ ENDP		; CWnd::GetSafeHwnd
; Function compile flags: /Odt
_TEXT	ENDS
;	COMDAT ?SendMessageA@CWnd@@QAEJIIJ@Z
_TEXT	SEGMENT
_this$ = -4						; size = 4
_message$ = 8						; size = 4
_wParam$ = 12						; size = 4
_lParam$ = 16						; size = 4
?SendMessageA@CWnd@@QAEJIIJ@Z PROC NEAR			; CWnd::SendMessageA, COMDAT
; _this$ = ecx

; 44   : 	{ ASSERT(::IsWindow(m_hWnd)); return ::SendMessage(m_hWnd, message, wParam, lParam); }

  00000	55		 push	 ebp
  00001	8b ec		 mov	 ebp, esp
  00003	51		 push	 ecx
  00004	89 4d fc	 mov	 DWORD PTR _this$[ebp], ecx
  00007	8b 45 10	 mov	 eax, DWORD PTR _lParam$[ebp]
  0000a	50		 push	 eax
  0000b	8b 4d 0c	 mov	 ecx, DWORD PTR _wParam$[ebp]
  0000e	51		 push	 ecx
  0000f	8b 55 08	 mov	 edx, DWORD PTR _message$[ebp]
  00012	52		 push	 edx
  00013	8b 45 fc	 mov	 eax, DWORD PTR _this$[ebp]
  00016	8b 48 20	 mov	 ecx, DWORD PTR [eax+32]
  00019	51		 push	 ecx
  0001a	ff 15 00 00 00
	00		 call	 DWORD PTR __imp__SendMessageA@16
  00020	8b e5		 mov	 esp, ebp
  00022	5d		 pop	 ebp
  00023	c2 0c 00	 ret	 12			; 0000000cH
?SendMessageA@CWnd@@QAEJIIJ@Z ENDP			; CWnd::SendMessageA
; Function compile flags: /Odt
_TEXT	ENDS
;	COMDAT ?SetFont@CWnd@@QAEXPAVCFont@@H@Z
_TEXT	SEGMENT
_this$ = -4						; size = 4
_pFont$ = 8						; size = 4
_bRedraw$ = 12						; size = 4
?SetFont@CWnd@@QAEXPAVCFont@@H@Z PROC NEAR		; CWnd::SetFont, COMDAT
; _this$ = ecx

; 58   : 	{ ASSERT(::IsWindow(m_hWnd)); ::SendMessage(m_hWnd, WM_SETFONT, (WPARAM)pFont->GetSafeHandle(), bRedraw); }

  00000	55		 push	 ebp
  00001	8b ec		 mov	 ebp, esp
  00003	51		 push	 ecx
  00004	89 4d fc	 mov	 DWORD PTR _this$[ebp], ecx
  00007	8b 45 0c	 mov	 eax, DWORD PTR _bRedraw$[ebp]
  0000a	50		 push	 eax
  0000b	8b 4d 08	 mov	 ecx, DWORD PTR _pFont$[ebp]
  0000e	e8 00 00 00 00	 call	 ?GetSafeHandle@CGdiObject@@QBEPAXXZ ; CGdiObject::GetSafeHandle
  00013	50		 push	 eax
  00014	6a 30		 push	 48			; 00000030H
  00016	8b 4d fc	 mov	 ecx, DWORD PTR _this$[ebp]
  00019	8b 51 20	 mov	 edx, DWORD PTR [ecx+32]
  0001c	52		 push	 edx
  0001d	ff 15 00 00 00
	00		 call	 DWORD PTR __imp__SendMessageA@16
  00023	8b e5		 mov	 esp, ebp
  00025	5d		 pop	 ebp
  00026	c2 08 00	 ret	 8
?SetFont@CWnd@@QAEXPAVCFont@@H@Z ENDP			; CWnd::SetFont
_TEXT	ENDS
PUBLIC	?FromHandle@CFont@@SGPAV1@PAUHFONT__@@@Z	; CFont::FromHandle
; Function compile flags: /Odt
;	COMDAT ?GetFont@CWnd@@QBEPAVCFont@@XZ
_TEXT	SEGMENT
_this$ = -4						; size = 4
?GetFont@CWnd@@QBEPAVCFont@@XZ PROC NEAR		; CWnd::GetFont, COMDAT
; _this$ = ecx

; 60   : 	{ ASSERT(::IsWindow(m_hWnd)); return CFont::FromHandle(

  00000	55		 push	 ebp
  00001	8b ec		 mov	 ebp, esp
  00003	51		 push	 ecx
  00004	89 4d fc	 mov	 DWORD PTR _this$[ebp], ecx

; 61   : 		(HFONT)::SendMessage(m_hWnd, WM_GETFONT, 0, 0)); }

  00007	6a 00		 push	 0
  00009	6a 00		 push	 0
  0000b	6a 31		 push	 49			; 00000031H
  0000d	8b 45 fc	 mov	 eax, DWORD PTR _this$[ebp]
  00010	8b 48 20	 mov	 ecx, DWORD PTR [eax+32]
  00013	51		 push	 ecx
  00014	ff 15 00 00 00
	00		 call	 DWORD PTR __imp__SendMessageA@16
  0001a	50		 push	 eax
  0001b	e8 00 00 00 00	 call	 ?FromHandle@CFont@@SGPAV1@PAUHFONT__@@@Z ; CFont::FromHandle
  00020	8b e5		 mov	 esp, ebp
  00022	5d		 pop	 ebp
  00023	c3		 ret	 0
?GetFont@CWnd@@QBEPAVCFont@@XZ ENDP			; CWnd::GetFont
_TEXT	ENDS
EXTRN	?FromHandle@CGdiObject@@SGPAV1@PAX@Z:NEAR	; CGdiObject::FromHandle
; Function compile flags: /Odt
; File d:\program files (x86)\microsoft visual studio .net 2003\vc7\atlmfc\include\afxwin1.inl
;	COMDAT ?FromHandle@CFont@@SGPAV1@PAUHFONT__@@@Z
_TEXT	SEGMENT
_hFont$ = 8						; size = 4
?FromHandle@CFont@@SGPAV1@PAUHFONT__@@@Z PROC NEAR	; CFont::FromHandle, COMDAT

; 151  : 	{ return (CFont*) CGdiObject::FromHandle(hFont); }

  00000	55		 push	 ebp
  00001	8b ec		 mov	 ebp, esp
  00003	8b 45 08	 mov	 eax, DWORD PTR _hFont$[ebp]
  00006	50		 push	 eax
  00007	e8 00 00 00 00	 call	 ?FromHandle@CGdiObject@@SGPAV1@PAX@Z ; CGdiObject::FromHandle
  0000c	5d		 pop	 ebp
  0000d	c2 04 00	 ret	 4
?FromHandle@CFont@@SGPAV1@PAUHFONT__@@@Z ENDP		; CFont::FromHandle
_TEXT	ENDS
EXTRN	?MoveWindow@CWnd@@QAEXHHHHH@Z:NEAR		; CWnd::MoveWindow
; Function compile flags: /Odt
; File d:\program files (x86)\microsoft visual studio .net 2003\vc7\atlmfc\include\afxwin2.inl
;	COMDAT ?MoveWindow@CWnd@@QAEXPBUtagRECT@@H@Z
_TEXT	SEGMENT
_this$ = -4						; size = 4
_lpRect$ = 8						; size = 4
_bRepaint$ = 12						; size = 4
?MoveWindow@CWnd@@QAEXPBUtagRECT@@H@Z PROC NEAR		; CWnd::MoveWindow, COMDAT
; _this$ = ecx

; 89   : 	{ MoveWindow(lpRect->left, lpRect->top, lpRect->right - lpRect->left,

  00000	55		 push	 ebp
  00001	8b ec		 mov	 ebp, esp
  00003	51		 push	 ecx
  00004	89 4d fc	 mov	 DWORD PTR _this$[ebp], ecx

; 90   : 		lpRect->bottom - lpRect->top, bRepaint); }

  00007	8b 45 0c	 mov	 eax, DWORD PTR _bRepaint$[ebp]
  0000a	50		 push	 eax
  0000b	8b 4d 08	 mov	 ecx, DWORD PTR _lpRect$[ebp]
  0000e	8b 55 08	 mov	 edx, DWORD PTR _lpRect$[ebp]
  00011	8b 41 0c	 mov	 eax, DWORD PTR [ecx+12]
  00014	2b 42 04	 sub	 eax, DWORD PTR [edx+4]
  00017	50		 push	 eax
  00018	8b 4d 08	 mov	 ecx, DWORD PTR _lpRect$[ebp]
  0001b	8b 55 08	 mov	 edx, DWORD PTR _lpRect$[ebp]
  0001e	8b 41 08	 mov	 eax, DWORD PTR [ecx+8]
  00021	2b 02		 sub	 eax, DWORD PTR [edx]
  00023	50		 push	 eax
  00024	8b 4d 08	 mov	 ecx, DWORD PTR _lpRect$[ebp]
  00027	8b 51 04	 mov	 edx, DWORD PTR [ecx+4]
  0002a	52		 push	 edx
  0002b	8b 45 08	 mov	 eax, DWORD PTR _lpRect$[ebp]
  0002e	8b 08		 mov	 ecx, DWORD PTR [eax]
  00030	51		 push	 ecx
  00031	8b 4d fc	 mov	 ecx, DWORD PTR _this$[ebp]
  00034	e8 00 00 00 00	 call	 ?MoveWindow@CWnd@@QAEXHHHHH@Z ; CWnd::MoveWindow
  00039	8b e5		 mov	 esp, ebp
  0003b	5d		 pop	 ebp
  0003c	c2 08 00	 ret	 8
?MoveWindow@CWnd@@QAEXPBUtagRECT@@H@Z ENDP		; CWnd::MoveWindow
_TEXT	ENDS
EXTRN	__imp__GetWindowRect@8:NEAR
; Function compile flags: /Odt
;	COMDAT ?GetWindowRect@CWnd@@QBEXPAUtagRECT@@@Z
_TEXT	SEGMENT
_this$ = -4						; size = 4
_lpRect$ = 8						; size = 4
?GetWindowRect@CWnd@@QBEXPAUtagRECT@@@Z PROC NEAR	; CWnd::GetWindowRect, COMDAT
; _this$ = ecx

; 105  : 	{ ASSERT(::IsWindow(m_hWnd)); ::GetWindowRect(m_hWnd, lpRect); }

  00000	55		 push	 ebp
  00001	8b ec		 mov	 ebp, esp
  00003	51		 push	 ecx
  00004	89 4d fc	 mov	 DWORD PTR _this$[ebp], ecx
  00007	8b 45 08	 mov	 eax, DWORD PTR _lpRect$[ebp]
  0000a	50		 push	 eax
  0000b	8b 4d fc	 mov	 ecx, DWORD PTR _this$[ebp]
  0000e	8b 51 20	 mov	 edx, DWORD PTR [ecx+32]
  00011	52		 push	 edx
  00012	ff 15 00 00 00
	00		 call	 DWORD PTR __imp__GetWindowRect@8
  00018	8b e5		 mov	 esp, ebp
  0001a	5d		 pop	 ebp
  0001b	c2 04 00	 ret	 4
?GetWindowRect@CWnd@@QBEXPAUtagRECT@@@Z ENDP		; CWnd::GetWindowRect
_TEXT	ENDS
EXTRN	__imp__GetClientRect@8:NEAR
; Function compile flags: /Odt
;	COMDAT ?GetClientRect@CWnd@@QBEXPAUtagRECT@@@Z
_TEXT	SEGMENT
_this$ = -4						; size = 4
_lpRect$ = 8						; size = 4
?GetClientRect@CWnd@@QBEXPAUtagRECT@@@Z PROC NEAR	; CWnd::GetClientRect, COMDAT
; _this$ = ecx

; 107  : 	{ ASSERT(::IsWindow(m_hWnd)); ::GetClientRect(m_hWnd, lpRect); }

  00000	55		 push	 ebp
  00001	8b ec		 mov	 ebp, esp
  00003	51		 push	 ecx
  00004	89 4d fc	 mov	 DWORD PTR _this$[ebp], ecx
  00007	8b 45 08	 mov	 eax, DWORD PTR _lpRect$[ebp]
  0000a	50		 push	 eax
  0000b	8b 4d fc	 mov	 ecx, DWORD PTR _this$[ebp]
  0000e	8b 51 20	 mov	 edx, DWORD PTR [ecx+32]
  00011	52		 push	 edx
  00012	ff 15 00 00 00
	00		 call	 DWORD PTR __imp__GetClientRect@8
  00018	8b e5		 mov	 esp, ebp
  0001a	5d		 pop	 ebp
  0001b	c2 04 00	 ret	 4
?GetClientRect@CWnd@@QBEXPAUtagRECT@@@Z ENDP		; CWnd::GetClientRect
_TEXT	ENDS
EXTRN	__imp__GetDC@4:NEAR
; Function compile flags: /Odt
;	COMDAT ?GetDC@CWnd@@QAEPAVCDC@@XZ
_TEXT	SEGMENT
_this$ = -4						; size = 4
?GetDC@CWnd@@QAEPAVCDC@@XZ PROC NEAR			; CWnd::GetDC, COMDAT
; _this$ = ecx

; 121  : 	{ ASSERT(::IsWindow(m_hWnd)); return CDC::FromHandle(::GetDC(m_hWnd)); }

  00000	55		 push	 ebp
  00001	8b ec		 mov	 ebp, esp
  00003	51		 push	 ecx
  00004	89 4d fc	 mov	 DWORD PTR _this$[ebp], ecx
  00007	8b 45 fc	 mov	 eax, DWORD PTR _this$[ebp]
  0000a	8b 48 20	 mov	 ecx, DWORD PTR [eax+32]
  0000d	51		 push	 ecx
  0000e	ff 15 00 00 00
	00		 call	 DWORD PTR __imp__GetDC@4
  00014	50		 push	 eax
  00015	e8 00 00 00 00	 call	 ?FromHandle@CDC@@SGPAV1@PAUHDC__@@@Z ; CDC::FromHandle
  0001a	8b e5		 mov	 esp, ebp
  0001c	5d		 pop	 ebp
  0001d	c3		 ret	 0
?GetDC@CWnd@@QAEPAVCDC@@XZ ENDP				; CWnd::GetDC
_TEXT	ENDS
EXTRN	__imp__IsWindowVisible@4:NEAR
; Function compile flags: /Odt
;	COMDAT ?IsWindowVisible@CWnd@@QBEHXZ
_TEXT	SEGMENT
_this$ = -4						; size = 4
?IsWindowVisible@CWnd@@QBEHXZ PROC NEAR			; CWnd::IsWindowVisible, COMDAT
; _this$ = ecx

; 149  : 	{ ASSERT(::IsWindow(m_hWnd)); return ::IsWindowVisible(m_hWnd); }

  00000	55		 push	 ebp
  00001	8b ec		 mov	 ebp, esp
  00003	51		 push	 ecx
  00004	89 4d fc	 mov	 DWORD PTR _this$[ebp], ecx
  00007	8b 45 fc	 mov	 eax, DWORD PTR _this$[ebp]
  0000a	8b 48 20	 mov	 ecx, DWORD PTR [eax+32]
  0000d	51		 push	 ecx
  0000e	ff 15 00 00 00
	00		 call	 DWORD PTR __imp__IsWindowVisible@4
  00014	8b e5		 mov	 esp, ebp
  00016	5d		 pop	 ebp
  00017	c3		 ret	 0
?IsWindowVisible@CWnd@@QBEHXZ ENDP			; CWnd::IsWindowVisible
_TEXT	ENDS
EXTRN	__imp__GetDesktopWindow@0:NEAR
EXTRN	?FromHandle@CWnd@@SGPAV1@PAUHWND__@@@Z:NEAR	; CWnd::FromHandle
; Function compile flags: /Odt
;	COMDAT ?GetDesktopWindow@CWnd@@SGPAV1@XZ
_TEXT	SEGMENT
?GetDesktopWindow@CWnd@@SGPAV1@XZ PROC NEAR		; CWnd::GetDesktopWindow, COMDAT

; 207  : 	{ return CWnd::FromHandle(::GetDesktopWindow()); }

  00000	55		 push	 ebp
  00001	8b ec		 mov	 ebp, esp
  00003	ff 15 00 00 00
	00		 call	 DWORD PTR __imp__GetDesktopWindow@0
  00009	50		 push	 eax
  0000a	e8 00 00 00 00	 call	 ?FromHandle@CWnd@@SGPAV1@PAUHWND__@@@Z ; CWnd::FromHandle
  0000f	5d		 pop	 ebp
  00010	c3		 ret	 0
?GetDesktopWindow@CWnd@@SGPAV1@XZ ENDP			; CWnd::GetDesktopWindow
_TEXT	ENDS
EXTRN	__imp__ShowScrollBar@12:NEAR
; Function compile flags: /Odt
;	COMDAT ?ShowScrollBar@CWnd@@QAEXIH@Z
_TEXT	SEGMENT
_this$ = -4						; size = 4
_nBar$ = 8						; size = 4
_bShow$ = 12						; size = 4
?ShowScrollBar@CWnd@@QAEXIH@Z PROC NEAR			; CWnd::ShowScrollBar, COMDAT
; _this$ = ecx

; 261  : 	{ ASSERT(::IsWindow(m_hWnd)); ::ShowScrollBar(m_hWnd, nBar, bShow); }

  00000	55		 push	 ebp
  00001	8b ec		 mov	 ebp, esp
  00003	51		 push	 ecx
  00004	89 4d fc	 mov	 DWORD PTR _this$[ebp], ecx
  00007	8b 45 0c	 mov	 eax, DWORD PTR _bShow$[ebp]
  0000a	50		 push	 eax
  0000b	8b 4d 08	 mov	 ecx, DWORD PTR _nBar$[ebp]
  0000e	51		 push	 ecx
  0000f	8b 55 fc	 mov	 edx, DWORD PTR _this$[ebp]
  00012	8b 42 20	 mov	 eax, DWORD PTR [edx+32]
  00015	50		 push	 eax
  00016	ff 15 00 00 00
	00		 call	 DWORD PTR __imp__ShowScrollBar@12
  0001c	8b e5		 mov	 esp, ebp
  0001e	5d		 pop	 ebp
  0001f	c2 08 00	 ret	 8
?ShowScrollBar@CWnd@@QAEXIH@Z ENDP			; CWnd::ShowScrollBar
_TEXT	ENDS
EXTRN	__imp__GetParent@4:NEAR
; Function compile flags: /Odt
;	COMDAT ?GetParent@CWnd@@QBEPAV1@XZ
_TEXT	SEGMENT
_this$ = -4						; size = 4
?GetParent@CWnd@@QBEPAV1@XZ PROC NEAR			; CWnd::GetParent, COMDAT
; _this$ = ecx

; 282  : 	{ ASSERT(::IsWindow(m_hWnd)); return CWnd::FromHandle(::GetParent(m_hWnd)); }

  00000	55		 push	 ebp
  00001	8b ec		 mov	 ebp, esp
  00003	51		 push	 ecx
  00004	89 4d fc	 mov	 DWORD PTR _this$[ebp], ecx
  00007	8b 45 fc	 mov	 eax, DWORD PTR _this$[ebp]
  0000a	8b 48 20	 mov	 ecx, DWORD PTR [eax+32]
  0000d	51		 push	 ecx
  0000e	ff 15 00 00 00
	00		 call	 DWORD PTR __imp__GetParent@4
  00014	50		 push	 eax
  00015	e8 00 00 00 00	 call	 ?FromHandle@CWnd@@SGPAV1@PAUHWND__@@@Z ; CWnd::FromHandle
  0001a	8b e5		 mov	 esp, ebp
  0001c	5d		 pop	 ebp
  0001d	c3		 ret	 0
?GetParent@CWnd@@QBEPAV1@XZ ENDP			; CWnd::GetParent
_TEXT	ENDS
EXTRN	__imp__SetParent@8:NEAR
; Function compile flags: /Odt
;	COMDAT ?SetParent@CWnd@@QAEPAV1@PAV1@@Z
_TEXT	SEGMENT
_this$ = -4						; size = 4
_pWndNewParent$ = 8					; size = 4
?SetParent@CWnd@@QAEPAV1@PAV1@@Z PROC NEAR		; CWnd::SetParent, COMDAT
; _this$ = ecx

; 284  : 	{ ASSERT(::IsWindow(m_hWnd)); return CWnd::FromHandle(::SetParent(m_hWnd,

  00000	55		 push	 ebp
  00001	8b ec		 mov	 ebp, esp
  00003	51		 push	 ecx
  00004	89 4d fc	 mov	 DWORD PTR _this$[ebp], ecx

; 285  : 			pWndNewParent->GetSafeHwnd())); }

  00007	8b 4d 08	 mov	 ecx, DWORD PTR _pWndNewParent$[ebp]
  0000a	e8 00 00 00 00	 call	 ?GetSafeHwnd@CWnd@@QBEPAUHWND__@@XZ ; CWnd::GetSafeHwnd
  0000f	50		 push	 eax
  00010	8b 45 fc	 mov	 eax, DWORD PTR _this$[ebp]
  00013	8b 48 20	 mov	 ecx, DWORD PTR [eax+32]
  00016	51		 push	 ecx
  00017	ff 15 00 00 00
	00		 call	 DWORD PTR __imp__SetParent@8
  0001d	50		 push	 eax
  0001e	e8 00 00 00 00	 call	 ?FromHandle@CWnd@@SGPAV1@PAUHWND__@@@Z ; CWnd::FromHandle
  00023	8b e5		 mov	 esp, ebp
  00025	5d		 pop	 ebp
  00026	c2 04 00	 ret	 4
?SetParent@CWnd@@QAEPAV1@PAV1@@Z ENDP			; CWnd::SetParent
_TEXT	ENDS
EXTRN	?Default@CWnd@@IAEJXZ:NEAR			; CWnd::Default
; Function compile flags: /Odt
;	COMDAT ?OnCreate@CWnd@@IAEHPAUtagCREATESTRUCTA@@@Z
_TEXT	SEGMENT
_this$ = -4						; size = 4
___formal$ = 8						; size = 4
?OnCreate@CWnd@@IAEHPAUtagCREATESTRUCTA@@@Z PROC NEAR	; CWnd::OnCreate, COMDAT
; _this$ = ecx

; 360  : 	{ return (int)Default(); }

  00000	55		 push	 ebp
  00001	8b ec		 mov	 ebp, esp
  00003	51		 push	 ecx
  00004	89 4d fc	 mov	 DWORD PTR _this$[ebp], ecx
  00007	8b 4d fc	 mov	 ecx, DWORD PTR _this$[ebp]
  0000a	e8 00 00 00 00	 call	 ?Default@CWnd@@IAEJXZ	; CWnd::Default
  0000f	8b e5		 mov	 esp, ebp
  00011	5d		 pop	 ebp
  00012	c2 04 00	 ret	 4
?OnCreate@CWnd@@IAEHPAUtagCREATESTRUCTA@@@Z ENDP	; CWnd::OnCreate
; Function compile flags: /Odt
_TEXT	ENDS
;	COMDAT ?OnShowWindow@CWnd@@IAEXHI@Z
_TEXT	SEGMENT
_this$ = -4						; size = 4
___formal$ = 8						; size = 4
___formal$ = 12						; size = 4
?OnShowWindow@CWnd@@IAEXHI@Z PROC NEAR			; CWnd::OnShowWindow, COMDAT
; _this$ = ecx

; 390  : 	{ Default(); }

  00000	55		 push	 ebp
  00001	8b ec		 mov	 ebp, esp
  00003	51		 push	 ecx
  00004	89 4d fc	 mov	 DWORD PTR _this$[ebp], ecx
  00007	8b 4d fc	 mov	 ecx, DWORD PTR _this$[ebp]
  0000a	e8 00 00 00 00	 call	 ?Default@CWnd@@IAEJXZ	; CWnd::Default
  0000f	8b e5		 mov	 esp, ebp
  00011	5d		 pop	 ebp
  00012	c2 08 00	 ret	 8
?OnShowWindow@CWnd@@IAEXHI@Z ENDP			; CWnd::OnShowWindow
; Function compile flags: /Odt
_TEXT	ENDS
;	COMDAT ?OnSize@CWnd@@IAEXIHH@Z
_TEXT	SEGMENT
_this$ = -4						; size = 4
___formal$ = 8						; size = 4
___formal$ = 12						; size = 4
___formal$ = 16						; size = 4
?OnSize@CWnd@@IAEXIHH@Z PROC NEAR			; CWnd::OnSize, COMDAT
; _this$ = ecx

; 392  : 	{ Default(); }

  00000	55		 push	 ebp
  00001	8b ec		 mov	 ebp, esp
  00003	51		 push	 ecx
  00004	89 4d fc	 mov	 DWORD PTR _this$[ebp], ecx
  00007	8b 4d fc	 mov	 ecx, DWORD PTR _this$[ebp]
  0000a	e8 00 00 00 00	 call	 ?Default@CWnd@@IAEJXZ	; CWnd::Default
  0000f	8b e5		 mov	 esp, ebp
  00011	5d		 pop	 ebp
  00012	c2 0c 00	 ret	 12			; 0000000cH
?OnSize@CWnd@@IAEXIHH@Z ENDP				; CWnd::OnSize
; Function compile flags: /Odt
_TEXT	ENDS
;	COMDAT ?OnLButtonDblClk@CWnd@@IAEXIVCPoint@@@Z
_TEXT	SEGMENT
_this$ = -4						; size = 4
___formal$ = 8						; size = 4
___formal$ = 12						; size = 8
?OnLButtonDblClk@CWnd@@IAEXIVCPoint@@@Z PROC NEAR	; CWnd::OnLButtonDblClk, COMDAT
; _this$ = ecx

; 462  : 	{ Default(); }

  00000	55		 push	 ebp
  00001	8b ec		 mov	 ebp, esp
  00003	51		 push	 ecx
  00004	89 4d fc	 mov	 DWORD PTR _this$[ebp], ecx
  00007	8b 4d fc	 mov	 ecx, DWORD PTR _this$[ebp]
  0000a	e8 00 00 00 00	 call	 ?Default@CWnd@@IAEJXZ	; CWnd::Default
  0000f	8b e5		 mov	 esp, ebp
  00011	5d		 pop	 ebp
  00012	c2 0c 00	 ret	 12			; 0000000cH
?OnLButtonDblClk@CWnd@@IAEXIVCPoint@@@Z ENDP		; CWnd::OnLButtonDblClk
; Function compile flags: /Odt
_TEXT	ENDS
;	COMDAT ?OnLButtonDown@CWnd@@IAEXIVCPoint@@@Z
_TEXT	SEGMENT
_this$ = -4						; size = 4
___formal$ = 8						; size = 4
___formal$ = 12						; size = 8
?OnLButtonDown@CWnd@@IAEXIVCPoint@@@Z PROC NEAR		; CWnd::OnLButtonDown, COMDAT
; _this$ = ecx

; 464  : 	{ Default(); }

  00000	55		 push	 ebp
  00001	8b ec		 mov	 ebp, esp
  00003	51		 push	 ecx
  00004	89 4d fc	 mov	 DWORD PTR _this$[ebp], ecx
  00007	8b 4d fc	 mov	 ecx, DWORD PTR _this$[ebp]
  0000a	e8 00 00 00 00	 call	 ?Default@CWnd@@IAEJXZ	; CWnd::Default
  0000f	8b e5		 mov	 esp, ebp
  00011	5d		 pop	 ebp
  00012	c2 0c 00	 ret	 12			; 0000000cH
?OnLButtonDown@CWnd@@IAEXIVCPoint@@@Z ENDP		; CWnd::OnLButtonDown
; Function compile flags: /Odt
_TEXT	ENDS
;	COMDAT ?OnMouseMove@CWnd@@IAEXIVCPoint@@@Z
_TEXT	SEGMENT
_this$ = -4						; size = 4
___formal$ = 8						; size = 4
___formal$ = 12						; size = 8
?OnMouseMove@CWnd@@IAEXIVCPoint@@@Z PROC NEAR		; CWnd::OnMouseMove, COMDAT
; _this$ = ecx

; 476  : 	{ Default(); }

  00000	55		 push	 ebp
  00001	8b ec		 mov	 ebp, esp
  00003	51		 push	 ecx
  00004	89 4d fc	 mov	 DWORD PTR _this$[ebp], ecx
  00007	8b 4d fc	 mov	 ecx, DWORD PTR _this$[ebp]
  0000a	e8 00 00 00 00	 call	 ?Default@CWnd@@IAEJXZ	; CWnd::Default
  0000f	8b e5		 mov	 esp, ebp
  00011	5d		 pop	 ebp
  00012	c2 0c 00	 ret	 12			; 0000000cH
?OnMouseMove@CWnd@@IAEXIVCPoint@@@Z ENDP		; CWnd::OnMouseMove
; Function compile flags: /Odt
_TEXT	ENDS
;	COMDAT ?DoDataExchange@CWnd@@MAEXPAVCDataExchange@@@Z
_TEXT	SEGMENT
_this$ = -4						; size = 4
___formal$ = 8						; size = 4
?DoDataExchange@CWnd@@MAEXPAVCDataExchange@@@Z PROC NEAR ; CWnd::DoDataExchange, COMDAT
; _this$ = ecx

; 545  : 	{ } // default does nothing

  00000	55		 push	 ebp
  00001	8b ec		 mov	 ebp, esp
  00003	51		 push	 ecx
  00004	89 4d fc	 mov	 DWORD PTR _this$[ebp], ecx
  00007	8b e5		 mov	 esp, ebp
  00009	5d		 pop	 ebp
  0000a	c2 04 00	 ret	 4
?DoDataExchange@CWnd@@MAEXPAVCDataExchange@@@Z ENDP	; CWnd::DoDataExchange
_TEXT	ENDS
EXTRN	__imp__EnableWindow@8:NEAR
; Function compile flags: /Odt
;	COMDAT ?BeginModalState@CWnd@@UAEXXZ
_TEXT	SEGMENT
_this$ = -4						; size = 4
?BeginModalState@CWnd@@UAEXXZ PROC NEAR			; CWnd::BeginModalState, COMDAT
; _this$ = ecx

; 549  : 	{ ::EnableWindow(m_hWnd, FALSE); }

  00000	55		 push	 ebp
  00001	8b ec		 mov	 ebp, esp
  00003	51		 push	 ecx
  00004	89 4d fc	 mov	 DWORD PTR _this$[ebp], ecx
  00007	6a 00		 push	 0
  00009	8b 45 fc	 mov	 eax, DWORD PTR _this$[ebp]
  0000c	8b 48 20	 mov	 ecx, DWORD PTR [eax+32]
  0000f	51		 push	 ecx
  00010	ff 15 00 00 00
	00		 call	 DWORD PTR __imp__EnableWindow@8
  00016	8b e5		 mov	 esp, ebp
  00018	5d		 pop	 ebp
  00019	c3		 ret	 0
?BeginModalState@CWnd@@UAEXXZ ENDP			; CWnd::BeginModalState
; Function compile flags: /Odt
_TEXT	ENDS
;	COMDAT ?EndModalState@CWnd@@UAEXXZ
_TEXT	SEGMENT
_this$ = -4						; size = 4
?EndModalState@CWnd@@UAEXXZ PROC NEAR			; CWnd::EndModalState, COMDAT
; _this$ = ecx

; 551  : 	{ ::EnableWindow(m_hWnd, TRUE); }

  00000	55		 push	 ebp
  00001	8b ec		 mov	 ebp, esp
  00003	51		 push	 ecx
  00004	89 4d fc	 mov	 DWORD PTR _this$[ebp], ecx
  00007	6a 01		 push	 1
  00009	8b 45 fc	 mov	 eax, DWORD PTR _this$[ebp]
  0000c	8b 48 20	 mov	 ecx, DWORD PTR [eax+32]
  0000f	51		 push	 ecx
  00010	ff 15 00 00 00
	00		 call	 DWORD PTR __imp__EnableWindow@8
  00016	8b e5		 mov	 esp, ebp
  00018	5d		 pop	 ebp
  00019	c3		 ret	 0
?EndModalState@CWnd@@UAEXXZ ENDP			; CWnd::EndModalState
_TEXT	ENDS
PUBLIC	??_R4CEdit@@6B@					; CEdit::`RTTI Complete Object Locator'
PUBLIC	??_R3CEdit@@8					; CEdit::`RTTI Class Hierarchy Descriptor'
PUBLIC	??_R2CEdit@@8					; CEdit::`RTTI Base Class Array'
PUBLIC	??_7CEdit@@6B@					; CEdit::`vftable'
PUBLIC	??_GCEdit@@UAEPAXI@Z				; CEdit::`scalar deleting destructor'
EXTRN	?GetMessageMap@CWnd@@MBEPBUAFX_MSGMAP@@XZ:NEAR	; CWnd::GetMessageMap
EXTRN	??_ECEdit@@UAEPAXI@Z:NEAR			; CEdit::`vector deleting destructor'
;	COMDAT ??_7CEdit@@6B@
CONST	SEGMENT
??_7CEdit@@6B@ DD FLAT:??_R4CEdit@@6B@			; CEdit::`vftable'
	DD	FLAT:?GetRuntimeClass@CEdit@@UBEPAUCRuntimeClass@@XZ
	DD	FLAT:??_ECEdit@@UAEPAXI@Z
	DD	FLAT:?Serialize@CObject@@UAEXAAVCArchive@@@Z
	DD	FLAT:?AssertValid@CObject@@UBEXXZ
	DD	FLAT:?Dump@CObject@@UBEXAAVCDumpContext@@@Z
	DD	FLAT:?OnCmdMsg@CCmdTarget@@UAEHIHPAXPAUAFX_CMDHANDLERINFO@@@Z
	DD	FLAT:?OnFinalRelease@CWnd@@UAEXXZ
	DD	FLAT:?IsInvokeAllowed@CCmdTarget@@UAEHJ@Z
	DD	FLAT:?GetDispatchIID@CCmdTarget@@UAEHPAU_GUID@@@Z
	DD	FLAT:?GetTypeInfoCount@CCmdTarget@@UAEIXZ
	DD	FLAT:?GetTypeLibCache@CCmdTarget@@UAEPAVCTypeLibCache@@XZ
	DD	FLAT:?GetTypeLib@CCmdTarget@@UAEJKPAPAUITypeLib@@@Z
	DD	FLAT:?GetMessageMap@CWnd@@MBEPBUAFX_MSGMAP@@XZ
	DD	FLAT:?GetCommandMap@CCmdTarget@@MBEPBUAFX_OLECMDMAP@@XZ
	DD	FLAT:?GetDispatchMap@CCmdTarget@@MBEPBUAFX_DISPMAP@@XZ
	DD	FLAT:?GetConnectionMap@CCmdTarget@@MBEPBUAFX_CONNECTIONMAP@@XZ
	DD	FLAT:?GetInterfaceMap@CWnd@@MBEPBUAFX_INTERFACEMAP@@XZ
	DD	FLAT:?GetEventSinkMap@CCmdTarget@@MBEPBUAFX_EVENTSINKMAP@@XZ
	DD	FLAT:?OnCreateAggregates@CCmdTarget@@UAEHXZ
	DD	FLAT:?GetInterfaceHook@CCmdTarget@@UAEPAUIUnknown@@PBX@Z
	DD	FLAT:?GetExtraConnectionPoints@CCmdTarget@@MAEHPAVCPtrArray@@@Z
	DD	FLAT:?GetConnectionHook@CCmdTarget@@MAEPAUIConnectionPoint@@ABU_GUID@@@Z
	DD	FLAT:?PreSubclassWindow@CWnd@@UAEXXZ
	DD	FLAT:?Create@CWnd@@UAEHPBD0KABUtagRECT@@PAV1@IPAUCCreateContext@@@Z
	DD	FLAT:?CreateEx@CWnd@@UAEHKPBD0KABUtagRECT@@PAV1@IPAX@Z
	DD	FLAT:?CreateEx@CWnd@@UAEHKPBD0KHHHHPAUHWND__@@PAUHMENU__@@PAX@Z
	DD	FLAT:?DestroyWindow@CWnd@@UAEHXZ
	DD	FLAT:?PreCreateWindow@CWnd@@UAEHAAUtagCREATESTRUCTA@@@Z
	DD	FLAT:?CalcWindowRect@CWnd@@UAEXPAUtagRECT@@I@Z
	DD	FLAT:?OnToolHitTest@CWnd@@UBEHVCPoint@@PAUtagTOOLINFOA@@@Z
	DD	FLAT:?GetScrollBarCtrl@CWnd@@UBEPAVCScrollBar@@H@Z
	DD	FLAT:?WinHelpA@CWnd@@UAEXKI@Z
	DD	FLAT:?HtmlHelpA@CWnd@@UAEXKI@Z
	DD	FLAT:?WinHelpInternal@CWnd@@UAEXKI@Z
	DD	FLAT:?ContinueModal@CWnd@@UAEHXZ
	DD	FLAT:?EndModalLoop@CWnd@@UAEXH@Z
	DD	FLAT:?EnsureStdObj@CWnd@@UAEJXZ
	DD	FLAT:?get_accParent@CWnd@@UAEJPAPAUIDispatch@@@Z
	DD	FLAT:?get_accChildCount@CWnd@@UAEJPAJ@Z
	DD	FLAT:?get_accChild@CWnd@@UAEJUtagVARIANT@@PAPAUIDispatch@@@Z
	DD	FLAT:?get_accName@CWnd@@UAEJUtagVARIANT@@PAPA_W@Z
	DD	FLAT:?get_accValue@CWnd@@UAEJUtagVARIANT@@PAPA_W@Z
	DD	FLAT:?get_accDescription@CWnd@@UAEJUtagVARIANT@@PAPA_W@Z
	DD	FLAT:?get_accRole@CWnd@@UAEJUtagVARIANT@@PAU2@@Z
	DD	FLAT:?get_accState@CWnd@@UAEJUtagVARIANT@@PAU2@@Z
	DD	FLAT:?get_accHelp@CWnd@@UAEJUtagVARIANT@@PAPA_W@Z
	DD	FLAT:?get_accHelpTopic@CWnd@@UAEJPAPA_WUtagVARIANT@@PAJ@Z
	DD	FLAT:?get_accKeyboardShortcut@CWnd@@UAEJUtagVARIANT@@PAPA_W@Z
	DD	FLAT:?get_accFocus@CWnd@@UAEJPAUtagVARIANT@@@Z
	DD	FLAT:?get_accSelection@CWnd@@UAEJPAUtagVARIANT@@@Z
	DD	FLAT:?get_accDefaultAction@CWnd@@UAEJUtagVARIANT@@PAPA_W@Z
	DD	FLAT:?accSelect@CWnd@@UAEJJUtagVARIANT@@@Z
	DD	FLAT:?accLocation@CWnd@@UAEJPAJ000UtagVARIANT@@@Z
	DD	FLAT:?accNavigate@CWnd@@UAEJJUtagVARIANT@@PAU2@@Z
	DD	FLAT:?accHitTest@CWnd@@UAEJJJPAUtagVARIANT@@@Z
	DD	FLAT:?accDoDefaultAction@CWnd@@UAEJUtagVARIANT@@@Z
	DD	FLAT:?put_accName@CWnd@@UAEJUtagVARIANT@@PA_W@Z
	DD	FLAT:?put_accValue@CWnd@@UAEJUtagVARIANT@@PA_W@Z
	DD	FLAT:?SetProxy@CWnd@@UAEJPAUIAccessibleProxy@@@Z
	DD	FLAT:?CreateAccessibleProxy@CWnd@@UAEJIJPAJ@Z
	DD	FLAT:?OnCommand@CWnd@@MAEHIJ@Z
	DD	FLAT:?OnNotify@CWnd@@MAEHIJPAJ@Z
	DD	FLAT:?GetSuperWndProcAddr@CWnd@@MAEPAP6GJPAUHWND__@@IIJ@ZXZ
	DD	FLAT:?DoDataExchange@CWnd@@MAEXPAVCDataExchange@@@Z
	DD	FLAT:?BeginModalState@CWnd@@UAEXXZ
	DD	FLAT:?EndModalState@CWnd@@UAEXXZ
	DD	FLAT:?PreTranslateMessage@CWnd@@UAEHPAUtagMSG@@@Z
	DD	FLAT:?OnAmbientProperty@CWnd@@UAEHPAVCOleControlSite@@JPAUtagVARIANT@@@Z
	DD	FLAT:?WindowProc@CWnd@@MAEJIIJ@Z
	DD	FLAT:?OnWndMsg@CWnd@@MAEHIIJPAJ@Z
	DD	FLAT:?DefWindowProcA@CWnd@@MAEJIIJ@Z
	DD	FLAT:?PostNcDestroy@CWnd@@MAEXXZ
	DD	FLAT:?OnChildNotify@CWnd@@MAEHIIJPAJ@Z
	DD	FLAT:?CheckAutoCenter@CWnd@@UAEHXZ
	DD	FLAT:?IsFrameWnd@CWnd@@UBEHXZ
	DD	FLAT:?CreateControlContainer@CWnd@@MAEHPAPAVCOleControlContainer@@@Z
	DD	FLAT:?CreateControlSite@CWnd@@MAEHPAVCOleControlContainer@@PAPAVCOleControlSite@@IABU_GUID@@@Z
	DD	FLAT:?SetOccDialogInfo@CWnd@@MAEHPAU_AFX_OCC_DIALOG_INFO@@@Z
	DD	FLAT:?Create@CEdit@@UAEHKABUtagRECT@@PAVCWnd@@I@Z
CONST	ENDS
;	COMDAT ??_R4CEdit@@6B@
rdata$r	SEGMENT
??_R4CEdit@@6B@ DD 00H					; CEdit::`RTTI Complete Object Locator'
	DD	00H
	DD	00H
	DD	FLAT:??_R0?AVCEdit@@@8
	DD	FLAT:??_R3CEdit@@8
rdata$r	ENDS
;	COMDAT ??_R3CEdit@@8
rdata$r	SEGMENT
??_R3CEdit@@8 DD 00H					; CEdit::`RTTI Class Hierarchy Descriptor'
	DD	00H
	DD	04H
	DD	FLAT:??_R2CEdit@@8
rdata$r	ENDS
;	COMDAT ??_R2CEdit@@8
rdata$r	SEGMENT
??_R2CEdit@@8 DD FLAT:??_R1A@?0A@A@CEdit@@8		; CEdit::`RTTI Base Class Array'
	DD	FLAT:??_R1A@?0A@A@CWnd@@8
	DD	FLAT:??_R1A@?0A@A@CCmdTarget@@8
	DD	FLAT:??_R1A@?0A@A@CObject@@8
; Function compile flags: /Odt
rdata$r	ENDS
;	COMDAT ??0CEdit@@QAE@XZ
_TEXT	SEGMENT
_this$ = -4						; size = 4
??0CEdit@@QAE@XZ PROC NEAR				; CEdit::CEdit, COMDAT
; _this$ = ecx

; 813  : 	{ }

  00000	55		 push	 ebp
  00001	8b ec		 mov	 ebp, esp
  00003	51		 push	 ecx
  00004	89 4d fc	 mov	 DWORD PTR _this$[ebp], ecx
  00007	8b 4d fc	 mov	 ecx, DWORD PTR _this$[ebp]
  0000a	e8 00 00 00 00	 call	 ??0CWnd@@QAE@XZ		; CWnd::CWnd
  0000f	8b 45 fc	 mov	 eax, DWORD PTR _this$[ebp]
  00012	c7 00 00 00 00
	00		 mov	 DWORD PTR [eax], OFFSET FLAT:??_7CEdit@@6B@
  00018	8b 45 fc	 mov	 eax, DWORD PTR _this$[ebp]
  0001b	8b e5		 mov	 esp, ebp
  0001d	5d		 pop	 ebp
  0001e	c3		 ret	 0
??0CEdit@@QAE@XZ ENDP					; CEdit::CEdit
; Function compile flags: /Odt
_TEXT	ENDS
;	COMDAT ??_GCEdit@@UAEPAXI@Z
_TEXT	SEGMENT
_this$ = -4						; size = 4
___flags$ = 8						; size = 4
??_GCEdit@@UAEPAXI@Z PROC NEAR				; CEdit::`scalar deleting destructor', COMDAT
; _this$ = ecx
  00000	55		 push	 ebp
  00001	8b ec		 mov	 ebp, esp
  00003	51		 push	 ecx
  00004	89 4d fc	 mov	 DWORD PTR _this$[ebp], ecx
  00007	8b 4d fc	 mov	 ecx, DWORD PTR _this$[ebp]
  0000a	e8 00 00 00 00	 call	 ??1CEdit@@UAE@XZ	; CEdit::~CEdit
  0000f	8b 45 08	 mov	 eax, DWORD PTR ___flags$[ebp]
  00012	83 e0 01	 and	 eax, 1
  00015	74 09		 je	 SHORT $L45201
  00017	8b 4d fc	 mov	 ecx, DWORD PTR _this$[ebp]
  0001a	51		 push	 ecx
  0001b	e8 00 00 00 00	 call	 ??3CObject@@SGXPAX@Z	; CObject::operator delete
$L45201:
  00020	8b 45 fc	 mov	 eax, DWORD PTR _this$[ebp]
  00023	8b e5		 mov	 esp, ebp
  00025	5d		 pop	 ebp
  00026	c2 04 00	 ret	 4
??_GCEdit@@UAEPAXI@Z ENDP				; CEdit::`scalar deleting destructor'
; Function compile flags: /Odt
_TEXT	ENDS
;	COMDAT ?SetSel@CEdit@@QAEXHHH@Z
_TEXT	SEGMENT
_this$ = -4						; size = 4
_nStartChar$ = 8					; size = 4
_nEndChar$ = 12						; size = 4
_bNoScroll$ = 16					; size = 4
?SetSel@CEdit@@QAEXHHH@Z PROC NEAR			; CEdit::SetSel, COMDAT
; _this$ = ecx

; 869  : 	{ ASSERT(::IsWindow(m_hWnd)); ::SendMessage(m_hWnd, EM_SETSEL, nStartChar, nEndChar);

  00000	55		 push	 ebp
  00001	8b ec		 mov	 ebp, esp
  00003	51		 push	 ecx
  00004	89 4d fc	 mov	 DWORD PTR _this$[ebp], ecx
  00007	8b 45 0c	 mov	 eax, DWORD PTR _nEndChar$[ebp]
  0000a	50		 push	 eax
  0000b	8b 4d 08	 mov	 ecx, DWORD PTR _nStartChar$[ebp]
  0000e	51		 push	 ecx
  0000f	68 b1 00 00 00	 push	 177			; 000000b1H
  00014	8b 55 fc	 mov	 edx, DWORD PTR _this$[ebp]
  00017	8b 42 20	 mov	 eax, DWORD PTR [edx+32]
  0001a	50		 push	 eax
  0001b	ff 15 00 00 00
	00		 call	 DWORD PTR __imp__SendMessageA@16

; 870  : 	  if (!bNoScroll)

  00021	83 7d 10 00	 cmp	 DWORD PTR _bNoScroll$[ebp], 0
  00025	75 16		 jne	 SHORT $L45350

; 871  : 		::SendMessage(m_hWnd, EM_SCROLLCARET, 0, 0); }

  00027	6a 00		 push	 0
  00029	6a 00		 push	 0
  0002b	68 b7 00 00 00	 push	 183			; 000000b7H
  00030	8b 4d fc	 mov	 ecx, DWORD PTR _this$[ebp]
  00033	8b 51 20	 mov	 edx, DWORD PTR [ecx+32]
  00036	52		 push	 edx
  00037	ff 15 00 00 00
	00		 call	 DWORD PTR __imp__SendMessageA@16
$L45350:
  0003d	8b e5		 mov	 esp, ebp
  0003f	5d		 pop	 ebp
  00040	c2 0c 00	 ret	 12			; 0000000cH
?SetSel@CEdit@@QAEXHHH@Z ENDP				; CEdit::SetSel
; Function compile flags: /Odt
_TEXT	ENDS
;	COMDAT ?SetMargins@CEdit@@QAEXII@Z
_TEXT	SEGMENT
_this$ = -4						; size = 4
_nLeft$ = 8						; size = 4
_nRight$ = 12						; size = 4
?SetMargins@CEdit@@QAEXII@Z PROC NEAR			; CEdit::SetMargins, COMDAT
; _this$ = ecx

; 897  : 	{ ASSERT(::IsWindow(m_hWnd)); ::SendMessage(m_hWnd, EM_SETMARGINS, EC_LEFTMARGIN|EC_RIGHTMARGIN, MAKELONG(nLeft, nRight)); }

  00000	55		 push	 ebp
  00001	8b ec		 mov	 ebp, esp
  00003	51		 push	 ecx
  00004	89 4d fc	 mov	 DWORD PTR _this$[ebp], ecx
  00007	8b 45 08	 mov	 eax, DWORD PTR _nLeft$[ebp]
  0000a	25 ff ff 00 00	 and	 eax, 65535		; 0000ffffH
  0000f	0f b7 c8	 movzx	 ecx, ax
  00012	8b 55 0c	 mov	 edx, DWORD PTR _nRight$[ebp]
  00015	81 e2 ff ff 00
	00		 and	 edx, 65535		; 0000ffffH
  0001b	0f b7 c2	 movzx	 eax, dx
  0001e	c1 e0 10	 shl	 eax, 16			; 00000010H
  00021	0b c8		 or	 ecx, eax
  00023	51		 push	 ecx
  00024	6a 03		 push	 3
  00026	68 d3 00 00 00	 push	 211			; 000000d3H
  0002b	8b 4d fc	 mov	 ecx, DWORD PTR _this$[ebp]
  0002e	8b 51 20	 mov	 edx, DWORD PTR [ecx+32]
  00031	52		 push	 edx
  00032	ff 15 00 00 00
	00		 call	 DWORD PTR __imp__SendMessageA@16
  00038	8b e5		 mov	 esp, ebp
  0003a	5d		 pop	 ebp
  0003b	c2 08 00	 ret	 8
?SetMargins@CEdit@@QAEXII@Z ENDP			; CEdit::SetMargins
_TEXT	ENDS
EXTRN	__imp__LoadCursorA@8:NEAR
; Function compile flags: /Odt
;	COMDAT ?LoadStandardCursor@CWinApp@@QBEPAUHICON__@@PBD@Z
_TEXT	SEGMENT
_this$ = -4						; size = 4
_lpszCursorName$ = 8					; size = 4
?LoadStandardCursor@CWinApp@@QBEPAUHICON__@@PBD@Z PROC NEAR ; CWinApp::LoadStandardCursor, COMDAT
; _this$ = ecx

; 1007 : 	{ return ::LoadCursor(NULL, lpszCursorName); }

  00000	55		 push	 ebp
  00001	8b ec		 mov	 ebp, esp
  00003	51		 push	 ecx
  00004	89 4d fc	 mov	 DWORD PTR _this$[ebp], ecx
  00007	8b 45 08	 mov	 eax, DWORD PTR _lpszCursorName$[ebp]
  0000a	50		 push	 eax
  0000b	6a 00		 push	 0
  0000d	ff 15 00 00 00
	00		 call	 DWORD PTR __imp__LoadCursorA@8
  00013	8b e5		 mov	 esp, ebp
  00015	5d		 pop	 ebp
  00016	c2 04 00	 ret	 4
?LoadStandardCursor@CWinApp@@QBEPAUHICON__@@PBD@Z ENDP	; CWinApp::LoadStandardCursor
_TEXT	ENDS
PUBLIC	??_7CListCtrl@@6B@				; CListCtrl::`vftable'
PUBLIC	??_GCListCtrl@@UAEPAXI@Z			; CListCtrl::`scalar deleting destructor'
PUBLIC	??_R4CListCtrl@@6B@				; CListCtrl::`RTTI Complete Object Locator'
PUBLIC	??_R3CListCtrl@@8				; CListCtrl::`RTTI Class Hierarchy Descriptor'
PUBLIC	??_R2CListCtrl@@8				; CListCtrl::`RTTI Base Class Array'
EXTRN	?GetMessageMap@CListCtrl@@MBEPBUAFX_MSGMAP@@XZ:NEAR ; CListCtrl::GetMessageMap
EXTRN	??_ECListCtrl@@UAEPAXI@Z:NEAR			; CListCtrl::`vector deleting destructor'
EXTRN	?GetRuntimeClass@CListCtrl@@UBEPAUCRuntimeClass@@XZ:NEAR ; CListCtrl::GetRuntimeClass
;	COMDAT ??_7CListCtrl@@6B@
; File d:\program files (x86)\microsoft visual studio .net 2003\vc7\atlmfc\include\afxcmn.inl
CONST	SEGMENT
??_7CListCtrl@@6B@ DD FLAT:??_R4CListCtrl@@6B@		; CListCtrl::`vftable'
	DD	FLAT:?GetRuntimeClass@CListCtrl@@UBEPAUCRuntimeClass@@XZ
	DD	FLAT:??_ECListCtrl@@UAEPAXI@Z
	DD	FLAT:?Serialize@CObject@@UAEXAAVCArchive@@@Z
	DD	FLAT:?AssertValid@CObject@@UBEXXZ
	DD	FLAT:?Dump@CObject@@UBEXAAVCDumpContext@@@Z
	DD	FLAT:?OnCmdMsg@CCmdTarget@@UAEHIHPAXPAUAFX_CMDHANDLERINFO@@@Z
	DD	FLAT:?OnFinalRelease@CWnd@@UAEXXZ
	DD	FLAT:?IsInvokeAllowed@CCmdTarget@@UAEHJ@Z
	DD	FLAT:?GetDispatchIID@CCmdTarget@@UAEHPAU_GUID@@@Z
	DD	FLAT:?GetTypeInfoCount@CCmdTarget@@UAEIXZ
	DD	FLAT:?GetTypeLibCache@CCmdTarget@@UAEPAVCTypeLibCache@@XZ
	DD	FLAT:?GetTypeLib@CCmdTarget@@UAEJKPAPAUITypeLib@@@Z
	DD	FLAT:?GetMessageMap@CListCtrl@@MBEPBUAFX_MSGMAP@@XZ
	DD	FLAT:?GetCommandMap@CCmdTarget@@MBEPBUAFX_OLECMDMAP@@XZ
	DD	FLAT:?GetDispatchMap@CCmdTarget@@MBEPBUAFX_DISPMAP@@XZ
	DD	FLAT:?GetConnectionMap@CCmdTarget@@MBEPBUAFX_CONNECTIONMAP@@XZ
	DD	FLAT:?GetInterfaceMap@CWnd@@MBEPBUAFX_INTERFACEMAP@@XZ
	DD	FLAT:?GetEventSinkMap@CCmdTarget@@MBEPBUAFX_EVENTSINKMAP@@XZ
	DD	FLAT:?OnCreateAggregates@CCmdTarget@@UAEHXZ
	DD	FLAT:?GetInterfaceHook@CCmdTarget@@UAEPAUIUnknown@@PBX@Z
	DD	FLAT:?GetExtraConnectionPoints@CCmdTarget@@MAEHPAVCPtrArray@@@Z
	DD	FLAT:?GetConnectionHook@CCmdTarget@@MAEPAUIConnectionPoint@@ABU_GUID@@@Z
	DD	FLAT:?PreSubclassWindow@CWnd@@UAEXXZ
	DD	FLAT:?Create@CWnd@@UAEHPBD0KABUtagRECT@@PAV1@IPAUCCreateContext@@@Z
	DD	FLAT:?CreateEx@CWnd@@UAEHKPBD0KABUtagRECT@@PAV1@IPAX@Z
	DD	FLAT:?CreateEx@CWnd@@UAEHKPBD0KHHHHPAUHWND__@@PAUHMENU__@@PAX@Z
	DD	FLAT:?DestroyWindow@CWnd@@UAEHXZ
	DD	FLAT:?PreCreateWindow@CWnd@@UAEHAAUtagCREATESTRUCTA@@@Z
	DD	FLAT:?CalcWindowRect@CWnd@@UAEXPAUtagRECT@@I@Z
	DD	FLAT:?OnToolHitTest@CWnd@@UBEHVCPoint@@PAUtagTOOLINFOA@@@Z
	DD	FLAT:?GetScrollBarCtrl@CWnd@@UBEPAVCScrollBar@@H@Z
	DD	FLAT:?WinHelpA@CWnd@@UAEXKI@Z
	DD	FLAT:?HtmlHelpA@CWnd@@UAEXKI@Z
	DD	FLAT:?WinHelpInternal@CWnd@@UAEXKI@Z
	DD	FLAT:?ContinueModal@CWnd@@UAEHXZ
	DD	FLAT:?EndModalLoop@CWnd@@UAEXH@Z
	DD	FLAT:?EnsureStdObj@CWnd@@UAEJXZ
	DD	FLAT:?get_accParent@CWnd@@UAEJPAPAUIDispatch@@@Z
	DD	FLAT:?get_accChildCount@CWnd@@UAEJPAJ@Z
	DD	FLAT:?get_accChild@CWnd@@UAEJUtagVARIANT@@PAPAUIDispatch@@@Z
	DD	FLAT:?get_accName@CWnd@@UAEJUtagVARIANT@@PAPA_W@Z
	DD	FLAT:?get_accValue@CWnd@@UAEJUtagVARIANT@@PAPA_W@Z
	DD	FLAT:?get_accDescription@CWnd@@UAEJUtagVARIANT@@PAPA_W@Z
	DD	FLAT:?get_accRole@CWnd@@UAEJUtagVARIANT@@PAU2@@Z
	DD	FLAT:?get_accState@CWnd@@UAEJUtagVARIANT@@PAU2@@Z
	DD	FLAT:?get_accHelp@CWnd@@UAEJUtagVARIANT@@PAPA_W@Z
	DD	FLAT:?get_accHelpTopic@CWnd@@UAEJPAPA_WUtagVARIANT@@PAJ@Z
	DD	FLAT:?get_accKeyboardShortcut@CWnd@@UAEJUtagVARIANT@@PAPA_W@Z
	DD	FLAT:?get_accFocus@CWnd@@UAEJPAUtagVARIANT@@@Z
	DD	FLAT:?get_accSelection@CWnd@@UAEJPAUtagVARIANT@@@Z
	DD	FLAT:?get_accDefaultAction@CWnd@@UAEJUtagVARIANT@@PAPA_W@Z
	DD	FLAT:?accSelect@CWnd@@UAEJJUtagVARIANT@@@Z
	DD	FLAT:?accLocation@CWnd@@UAEJPAJ000UtagVARIANT@@@Z
	DD	FLAT:?accNavigate@CWnd@@UAEJJUtagVARIANT@@PAU2@@Z
	DD	FLAT:?accHitTest@CWnd@@UAEJJJPAUtagVARIANT@@@Z
	DD	FLAT:?accDoDefaultAction@CWnd@@UAEJUtagVARIANT@@@Z
	DD	FLAT:?put_accName@CWnd@@UAEJUtagVARIANT@@PA_W@Z
	DD	FLAT:?put_accValue@CWnd@@UAEJUtagVARIANT@@PA_W@Z
	DD	FLAT:?SetProxy@CWnd@@UAEJPAUIAccessibleProxy@@@Z
	DD	FLAT:?CreateAccessibleProxy@CWnd@@UAEJIJPAJ@Z
	DD	FLAT:?OnCommand@CWnd@@MAEHIJ@Z
	DD	FLAT:?OnNotify@CWnd@@MAEHIJPAJ@Z
	DD	FLAT:?GetSuperWndProcAddr@CWnd@@MAEPAP6GJPAUHWND__@@IIJ@ZXZ
	DD	FLAT:?DoDataExchange@CWnd@@MAEXPAVCDataExchange@@@Z
	DD	FLAT:?BeginModalState@CWnd@@UAEXXZ
	DD	FLAT:?EndModalState@CWnd@@UAEXXZ
	DD	FLAT:?PreTranslateMessage@CWnd@@UAEHPAUtagMSG@@@Z
	DD	FLAT:?OnAmbientProperty@CWnd@@UAEHPAVCOleControlSite@@JPAUtagVARIANT@@@Z
	DD	FLAT:?WindowProc@CWnd@@MAEJIIJ@Z
	DD	FLAT:?OnWndMsg@CWnd@@MAEHIIJPAJ@Z
	DD	FLAT:?DefWindowProcA@CWnd@@MAEJIIJ@Z
	DD	FLAT:?PostNcDestroy@CWnd@@MAEXXZ
	DD	FLAT:?OnChildNotify@CListCtrl@@MAEHIIJPAJ@Z
	DD	FLAT:?CheckAutoCenter@CWnd@@UAEHXZ
	DD	FLAT:?IsFrameWnd@CWnd@@UBEHXZ
	DD	FLAT:?CreateControlContainer@CWnd@@MAEHPAPAVCOleControlContainer@@@Z
	DD	FLAT:?CreateControlSite@CWnd@@MAEHPAVCOleControlContainer@@PAPAVCOleControlSite@@IABU_GUID@@@Z
	DD	FLAT:?SetOccDialogInfo@CWnd@@MAEHPAU_AFX_OCC_DIALOG_INFO@@@Z
	DD	FLAT:?Create@CListCtrl@@UAEHKABUtagRECT@@PAVCWnd@@I@Z
	DD	FLAT:?CreateEx@CListCtrl@@UAEHKKABUtagRECT@@PAVCWnd@@I@Z
	DD	FLAT:?DrawItem@CListCtrl@@UAEXPAUtagDRAWITEMSTRUCT@@@Z
CONST	ENDS
;	COMDAT ??_R4CListCtrl@@6B@
rdata$r	SEGMENT
??_R4CListCtrl@@6B@ DD 00H				; CListCtrl::`RTTI Complete Object Locator'
	DD	00H
	DD	00H
	DD	FLAT:??_R0?AVCListCtrl@@@8
	DD	FLAT:??_R3CListCtrl@@8
rdata$r	ENDS
;	COMDAT ??_R3CListCtrl@@8
rdata$r	SEGMENT
??_R3CListCtrl@@8 DD 00H				; CListCtrl::`RTTI Class Hierarchy Descriptor'
	DD	00H
	DD	04H
	DD	FLAT:??_R2CListCtrl@@8
rdata$r	ENDS
;	COMDAT ??_R2CListCtrl@@8
rdata$r	SEGMENT
??_R2CListCtrl@@8 DD FLAT:??_R1A@?0A@A@CListCtrl@@8	; CListCtrl::`RTTI Base Class Array'
	DD	FLAT:??_R1A@?0A@A@CWnd@@8
	DD	FLAT:??_R1A@?0A@A@CCmdTarget@@8
	DD	FLAT:??_R1A@?0A@A@CObject@@8
; Function compile flags: /Odt
rdata$r	ENDS
;	COMDAT ??0CListCtrl@@QAE@XZ
_TEXT	SEGMENT
_this$ = -4						; size = 4
??0CListCtrl@@QAE@XZ PROC NEAR				; CListCtrl::CListCtrl, COMDAT
; _this$ = ecx

; 128  : 	{ }

  00000	55		 push	 ebp
  00001	8b ec		 mov	 ebp, esp
  00003	51		 push	 ecx
  00004	89 4d fc	 mov	 DWORD PTR _this$[ebp], ecx
  00007	8b 4d fc	 mov	 ecx, DWORD PTR _this$[ebp]
  0000a	e8 00 00 00 00	 call	 ??0CWnd@@QAE@XZ		; CWnd::CWnd
  0000f	8b 45 fc	 mov	 eax, DWORD PTR _this$[ebp]
  00012	c7 00 00 00 00
	00		 mov	 DWORD PTR [eax], OFFSET FLAT:??_7CListCtrl@@6B@
  00018	8b 45 fc	 mov	 eax, DWORD PTR _this$[ebp]
  0001b	8b e5		 mov	 esp, ebp
  0001d	5d		 pop	 ebp
  0001e	c3		 ret	 0
??0CListCtrl@@QAE@XZ ENDP				; CListCtrl::CListCtrl
; Function compile flags: /Odt
_TEXT	ENDS
;	COMDAT ??_GCListCtrl@@UAEPAXI@Z
_TEXT	SEGMENT
_this$ = -4						; size = 4
___flags$ = 8						; size = 4
??_GCListCtrl@@UAEPAXI@Z PROC NEAR			; CListCtrl::`scalar deleting destructor', COMDAT
; _this$ = ecx
  00000	55		 push	 ebp
  00001	8b ec		 mov	 ebp, esp
  00003	51		 push	 ecx
  00004	89 4d fc	 mov	 DWORD PTR _this$[ebp], ecx
  00007	8b 4d fc	 mov	 ecx, DWORD PTR _this$[ebp]
  0000a	e8 00 00 00 00	 call	 ??1CListCtrl@@UAE@XZ	; CListCtrl::~CListCtrl
  0000f	8b 45 08	 mov	 eax, DWORD PTR ___flags$[ebp]
  00012	83 e0 01	 and	 eax, 1
  00015	74 09		 je	 SHORT $L95454
  00017	8b 4d fc	 mov	 ecx, DWORD PTR _this$[ebp]
  0001a	51		 push	 ecx
  0001b	e8 00 00 00 00	 call	 ??3CObject@@SGXPAX@Z	; CObject::operator delete
$L95454:
  00020	8b 45 fc	 mov	 eax, DWORD PTR _this$[ebp]
  00023	8b e5		 mov	 esp, ebp
  00025	5d		 pop	 ebp
  00026	c2 04 00	 ret	 4
??_GCListCtrl@@UAEPAXI@Z ENDP				; CListCtrl::`scalar deleting destructor'
_TEXT	ENDS
EXTRN	?InsertItem@CListCtrl@@QAEHIHPBDIIHJ@Z:NEAR	; CListCtrl::InsertItem
; Function compile flags: /Odt
;	COMDAT ?InsertItem@CListCtrl@@QAEHHPBD@Z
_TEXT	SEGMENT
_this$ = -4						; size = 4
_nItem$ = 8						; size = 4
_lpszItem$ = 12						; size = 4
?InsertItem@CListCtrl@@QAEHHPBD@Z PROC NEAR		; CListCtrl::InsertItem, COMDAT
; _this$ = ecx

; 152  : 	{ ASSERT(::IsWindow(m_hWnd)); return InsertItem(LVIF_TEXT, nItem, lpszItem, 0, 0, 0, 0); }

  00000	55		 push	 ebp
  00001	8b ec		 mov	 ebp, esp
  00003	51		 push	 ecx
  00004	89 4d fc	 mov	 DWORD PTR _this$[ebp], ecx
  00007	6a 00		 push	 0
  00009	6a 00		 push	 0
  0000b	6a 00		 push	 0
  0000d	6a 00		 push	 0
  0000f	8b 45 0c	 mov	 eax, DWORD PTR _lpszItem$[ebp]
  00012	50		 push	 eax
  00013	8b 4d 08	 mov	 ecx, DWORD PTR _nItem$[ebp]
  00016	51		 push	 ecx
  00017	6a 01		 push	 1
  00019	8b 4d fc	 mov	 ecx, DWORD PTR _this$[ebp]
  0001c	e8 00 00 00 00	 call	 ?InsertItem@CListCtrl@@QAEHIHPBDIIHJ@Z ; CListCtrl::InsertItem
  00021	8b e5		 mov	 esp, ebp
  00023	5d		 pop	 ebp
  00024	c2 08 00	 ret	 8
?InsertItem@CListCtrl@@QAEHHPBD@Z ENDP			; CListCtrl::InsertItem
; Function compile flags: /Odt
_TEXT	ENDS
;	COMDAT ?DeleteAllItems@CListCtrl@@QAEHXZ
_TEXT	SEGMENT
_this$ = -4						; size = 4
?DeleteAllItems@CListCtrl@@QAEHXZ PROC NEAR		; CListCtrl::DeleteAllItems, COMDAT
; _this$ = ecx

; 158  : 	{ ASSERT(::IsWindow(m_hWnd)); return (BOOL) ::SendMessage(m_hWnd, LVM_DELETEALLITEMS, 0, 0L); }

  00000	55		 push	 ebp
  00001	8b ec		 mov	 ebp, esp
  00003	51		 push	 ecx
  00004	89 4d fc	 mov	 DWORD PTR _this$[ebp], ecx
  00007	6a 00		 push	 0
  00009	6a 00		 push	 0
  0000b	68 09 10 00 00	 push	 4105			; 00001009H
  00010	8b 45 fc	 mov	 eax, DWORD PTR _this$[ebp]
  00013	8b 48 20	 mov	 ecx, DWORD PTR [eax+32]
  00016	51		 push	 ecx
  00017	ff 15 00 00 00
	00		 call	 DWORD PTR __imp__SendMessageA@16
  0001d	8b e5		 mov	 esp, ebp
  0001f	5d		 pop	 ebp
  00020	c3		 ret	 0
?DeleteAllItems@CListCtrl@@QAEHXZ ENDP			; CListCtrl::DeleteAllItems
_TEXT	ENDS
PUBLIC	?GetNextItem@CListCtrl@@QBEHHH@Z		; CListCtrl::GetNextItem
; Function compile flags: /Odt
;	COMDAT ?GetFirstSelectedItemPosition@CListCtrl@@QBEPAU__POSITION@@XZ
_TEXT	SEGMENT
_this$ = -4						; size = 4
?GetFirstSelectedItemPosition@CListCtrl@@QBEPAU__POSITION@@XZ PROC NEAR ; CListCtrl::GetFirstSelectedItemPosition, COMDAT
; _this$ = ecx

; 166  : 	{ ASSERT(::IsWindow(m_hWnd)); return (POSITION)(DWORD_PTR)(1+GetNextItem(-1, LVIS_SELECTED)); }

  00000	55		 push	 ebp
  00001	8b ec		 mov	 ebp, esp
  00003	51		 push	 ecx
  00004	89 4d fc	 mov	 DWORD PTR _this$[ebp], ecx
  00007	6a 02		 push	 2
  00009	6a ff		 push	 -1
  0000b	8b 4d fc	 mov	 ecx, DWORD PTR _this$[ebp]
  0000e	e8 00 00 00 00	 call	 ?GetNextItem@CListCtrl@@QBEHHH@Z ; CListCtrl::GetNextItem
  00013	83 c0 01	 add	 eax, 1
  00016	8b e5		 mov	 esp, ebp
  00018	5d		 pop	 ebp
  00019	c3		 ret	 0
?GetFirstSelectedItemPosition@CListCtrl@@QBEPAU__POSITION@@XZ ENDP ; CListCtrl::GetFirstSelectedItemPosition
; Function compile flags: /Odt
_TEXT	ENDS
;	COMDAT ?GetNextItem@CListCtrl@@QBEHHH@Z
_TEXT	SEGMENT
_this$ = -4						; size = 4
_nItem$ = 8						; size = 4
_nFlags$ = 12						; size = 4
?GetNextItem@CListCtrl@@QBEHHH@Z PROC NEAR		; CListCtrl::GetNextItem, COMDAT
; _this$ = ecx

; 164  : 	{ ASSERT(::IsWindow(m_hWnd)); return (int) ::SendMessage(m_hWnd, LVM_GETNEXTITEM, nItem, MAKELPARAM(nFlags, 0)); }

  00000	55		 push	 ebp
  00001	8b ec		 mov	 ebp, esp
  00003	51		 push	 ecx
  00004	89 4d fc	 mov	 DWORD PTR _this$[ebp], ecx
  00007	8b 45 0c	 mov	 eax, DWORD PTR _nFlags$[ebp]
  0000a	25 ff ff 00 00	 and	 eax, 65535		; 0000ffffH
  0000f	0f b7 c8	 movzx	 ecx, ax
  00012	51		 push	 ecx
  00013	8b 55 08	 mov	 edx, DWORD PTR _nItem$[ebp]
  00016	52		 push	 edx
  00017	68 0c 10 00 00	 push	 4108			; 0000100cH
  0001c	8b 45 fc	 mov	 eax, DWORD PTR _this$[ebp]
  0001f	8b 48 20	 mov	 ecx, DWORD PTR [eax+32]
  00022	51		 push	 ecx
  00023	ff 15 00 00 00
	00		 call	 DWORD PTR __imp__SendMessageA@16
  00029	8b e5		 mov	 esp, ebp
  0002b	5d		 pop	 ebp
  0002c	c2 08 00	 ret	 8
?GetNextItem@CListCtrl@@QBEHHH@Z ENDP			; CListCtrl::GetNextItem
; Function compile flags: /Odt
_TEXT	ENDS
;	COMDAT ?GetNextSelectedItem@CListCtrl@@QBEHAAPAU__POSITION@@@Z
_TEXT	SEGMENT
_this$ = -8						; size = 4
_nOldPos$ = -4						; size = 4
_pos$ = 8						; size = 4
?GetNextSelectedItem@CListCtrl@@QBEHAAPAU__POSITION@@@Z PROC NEAR ; CListCtrl::GetNextSelectedItem, COMDAT
; _this$ = ecx

; 168  : 	{ ASSERT(::IsWindow(m_hWnd)); DWORD_PTR nOldPos = (DWORD_PTR)pos-1; pos = (POSITION)(DWORD_PTR)(1+GetNextItem((UINT)nOldPos, LVIS_SELECTED)); return (UINT)nOldPos; }

  00000	55		 push	 ebp
  00001	8b ec		 mov	 ebp, esp
  00003	83 ec 08	 sub	 esp, 8
  00006	89 4d f8	 mov	 DWORD PTR _this$[ebp], ecx
  00009	8b 45 08	 mov	 eax, DWORD PTR _pos$[ebp]
  0000c	8b 08		 mov	 ecx, DWORD PTR [eax]
  0000e	83 e9 01	 sub	 ecx, 1
  00011	89 4d fc	 mov	 DWORD PTR _nOldPos$[ebp], ecx
  00014	6a 02		 push	 2
  00016	8b 55 fc	 mov	 edx, DWORD PTR _nOldPos$[ebp]
  00019	52		 push	 edx
  0001a	8b 4d f8	 mov	 ecx, DWORD PTR _this$[ebp]
  0001d	e8 00 00 00 00	 call	 ?GetNextItem@CListCtrl@@QBEHHH@Z ; CListCtrl::GetNextItem
  00022	83 c0 01	 add	 eax, 1
  00025	8b 4d 08	 mov	 ecx, DWORD PTR _pos$[ebp]
  00028	89 01		 mov	 DWORD PTR [ecx], eax
  0002a	8b 45 fc	 mov	 eax, DWORD PTR _nOldPos$[ebp]
  0002d	8b e5		 mov	 esp, ebp
  0002f	5d		 pop	 ebp
  00030	c2 04 00	 ret	 4
?GetNextSelectedItem@CListCtrl@@QBEHAAPAU__POSITION@@@Z ENDP ; CListCtrl::GetNextSelectedItem
; Function compile flags: /Odt
_TEXT	ENDS
;	COMDAT ?SetColumnWidth@CListCtrl@@QAEHHH@Z
_TEXT	SEGMENT
_this$ = -4						; size = 4
_nCol$ = 8						; size = 4
_cx$ = 12						; size = 4
?SetColumnWidth@CListCtrl@@QAEHHH@Z PROC NEAR		; CListCtrl::SetColumnWidth, COMDAT
; _this$ = ecx

; 202  : 	{ ASSERT(::IsWindow(m_hWnd)); return (BOOL) ::SendMessage(m_hWnd, LVM_SETCOLUMNWIDTH, nCol, MAKELPARAM(cx, 0)); }

  00000	55		 push	 ebp
  00001	8b ec		 mov	 ebp, esp
  00003	51		 push	 ecx
  00004	89 4d fc	 mov	 DWORD PTR _this$[ebp], ecx
  00007	8b 45 0c	 mov	 eax, DWORD PTR _cx$[ebp]
  0000a	25 ff ff 00 00	 and	 eax, 65535		; 0000ffffH
  0000f	0f b7 c8	 movzx	 ecx, ax
  00012	51		 push	 ecx
  00013	8b 55 08	 mov	 edx, DWORD PTR _nCol$[ebp]
  00016	52		 push	 edx
  00017	68 1e 10 00 00	 push	 4126			; 0000101eH
  0001c	8b 45 fc	 mov	 eax, DWORD PTR _this$[ebp]
  0001f	8b 48 20	 mov	 ecx, DWORD PTR [eax+32]
  00022	51		 push	 ecx
  00023	ff 15 00 00 00
	00		 call	 DWORD PTR __imp__SendMessageA@16
  00029	8b e5		 mov	 esp, ebp
  0002b	5d		 pop	 ebp
  0002c	c2 08 00	 ret	 8
?SetColumnWidth@CListCtrl@@QAEHHH@Z ENDP		; CListCtrl::SetColumnWidth
; Function compile flags: /Odt
; File d:\program files (x86)\microsoft visual studio .net 2003\vc7\atlmfc\include\afxcmn2.inl
_TEXT	ENDS
;	COMDAT ?SetExtendedStyle@CListCtrl@@QAEKK@Z
_TEXT	SEGMENT
_this$ = -4						; size = 4
_dwNewStyle$ = 8					; size = 4
?SetExtendedStyle@CListCtrl@@QAEKK@Z PROC NEAR		; CListCtrl::SetExtendedStyle, COMDAT
; _this$ = ecx

; 115  : 	{ ASSERT(::IsWindow(m_hWnd)); return (DWORD) ::SendMessage(m_hWnd, LVM_SETEXTENDEDLISTVIEWSTYLE, 0, (LPARAM) dwNewStyle); }

  00000	55		 push	 ebp
  00001	8b ec		 mov	 ebp, esp
  00003	51		 push	 ecx
  00004	89 4d fc	 mov	 DWORD PTR _this$[ebp], ecx
  00007	8b 45 08	 mov	 eax, DWORD PTR _dwNewStyle$[ebp]
  0000a	50		 push	 eax
  0000b	6a 00		 push	 0
  0000d	68 36 10 00 00	 push	 4150			; 00001036H
  00012	8b 4d fc	 mov	 ecx, DWORD PTR _this$[ebp]
  00015	8b 51 20	 mov	 edx, DWORD PTR [ecx+32]
  00018	52		 push	 edx
  00019	ff 15 00 00 00
	00		 call	 DWORD PTR __imp__SendMessageA@16
  0001f	8b e5		 mov	 esp, ebp
  00021	5d		 pop	 ebp
  00022	c2 04 00	 ret	 4
?SetExtendedStyle@CListCtrl@@QAEKK@Z ENDP		; CListCtrl::SetExtendedStyle
; Function compile flags: /Odt
_TEXT	ENDS
;	COMDAT ?SubItemHitTest@CListCtrl@@QAEHPAUtagLVHITTESTINFO@@@Z
_TEXT	SEGMENT
_this$ = -4						; size = 4
_pInfo$ = 8						; size = 4
?SubItemHitTest@CListCtrl@@QAEHPAUtagLVHITTESTINFO@@@Z PROC NEAR ; CListCtrl::SubItemHitTest, COMDAT
; _this$ = ecx

; 123  : 	{ ASSERT(::IsWindow(m_hWnd)); return (int) ::SendMessage(m_hWnd, LVM_SUBITEMHITTEST, 0, (LPARAM) pInfo); }

  00000	55		 push	 ebp
  00001	8b ec		 mov	 ebp, esp
  00003	51		 push	 ecx
  00004	89 4d fc	 mov	 DWORD PTR _this$[ebp], ecx
  00007	8b 45 08	 mov	 eax, DWORD PTR _pInfo$[ebp]
  0000a	50		 push	 eax
  0000b	6a 00		 push	 0
  0000d	68 39 10 00 00	 push	 4153			; 00001039H
  00012	8b 4d fc	 mov	 ecx, DWORD PTR _this$[ebp]
  00015	8b 51 20	 mov	 edx, DWORD PTR [ecx+32]
  00018	52		 push	 edx
  00019	ff 15 00 00 00
	00		 call	 DWORD PTR __imp__SendMessageA@16
  0001f	8b e5		 mov	 esp, ebp
  00021	5d		 pop	 ebp
  00022	c2 04 00	 ret	 4
?SubItemHitTest@CListCtrl@@QAEHPAUtagLVHITTESTINFO@@@Z ENDP ; CListCtrl::SubItemHitTest
; Function compile flags: /Odt
_TEXT	ENDS
;	COMDAT ?GetExtendedStyle@CListCtrl@@QAEKXZ
_TEXT	SEGMENT
_this$ = -4						; size = 4
?GetExtendedStyle@CListCtrl@@QAEKXZ PROC NEAR		; CListCtrl::GetExtendedStyle, COMDAT
; _this$ = ecx

; 129  : 	{ ASSERT(::IsWindow(m_hWnd)); return (DWORD) ::SendMessage(m_hWnd, LVM_GETEXTENDEDLISTVIEWSTYLE, 0, 0); }

  00000	55		 push	 ebp
  00001	8b ec		 mov	 ebp, esp
  00003	51		 push	 ecx
  00004	89 4d fc	 mov	 DWORD PTR _this$[ebp], ecx
  00007	6a 00		 push	 0
  00009	6a 00		 push	 0
  0000b	68 37 10 00 00	 push	 4151			; 00001037H
  00010	8b 45 fc	 mov	 eax, DWORD PTR _this$[ebp]
  00013	8b 48 20	 mov	 ecx, DWORD PTR [eax+32]
  00016	51		 push	 ecx
  00017	ff 15 00 00 00
	00		 call	 DWORD PTR __imp__SendMessageA@16
  0001d	8b e5		 mov	 esp, ebp
  0001f	5d		 pop	 ebp
  00020	c3		 ret	 0
?GetExtendedStyle@CListCtrl@@QAEKXZ ENDP		; CListCtrl::GetExtendedStyle
; Function compile flags: /Odt
; File d:\program files (x86)\microsoft visual studio .net 2003\vc7\include\stdexcept
_TEXT	ENDS
;	COMDAT ?what@logic_error@std@@UBEPBDXZ
_TEXT	SEGMENT
_this$ = -4						; size = 4
?what@logic_error@std@@UBEPBDXZ PROC NEAR		; std::logic_error::what, COMDAT
; _this$ = ecx

; 26   : 		{	// return pointer to message string

  00000	55		 push	 ebp
  00001	8b ec		 mov	 ebp, esp
  00003	51		 push	 ecx
  00004	89 4d fc	 mov	 DWORD PTR _this$[ebp], ecx

; 27   : 		return (_Str.c_str());

  00007	8b 4d fc	 mov	 ecx, DWORD PTR _this$[ebp]
  0000a	83 c1 0c	 add	 ecx, 12			; 0000000cH
  0000d	ff 15 00 00 00
	00		 call	 DWORD PTR __imp_?c_str@?$basic_string@DU?$char_traits@D@std@@V?$allocator@D@2@@std@@QBEPBDXZ

; 28   : 		}

  00013	8b e5		 mov	 esp, ebp
  00015	5d		 pop	 ebp
  00016	c3		 ret	 0
?what@logic_error@std@@UBEPBDXZ ENDP			; std::logic_error::what
_TEXT	ENDS
PUBLIC	??0logic_error@std@@QAE@ABV?$basic_string@DU?$char_traits@D@std@@V?$allocator@D@2@@1@@Z ; std::logic_error::logic_error
; Function compile flags: /Odt
;	COMDAT ??0length_error@std@@QAE@ABV?$basic_string@DU?$char_traits@D@std@@V?$allocator@D@2@@1@@Z
_TEXT	SEGMENT
_this$ = -4						; size = 4
__Message$ = 8						; size = 4
??0length_error@std@@QAE@ABV?$basic_string@DU?$char_traits@D@std@@V?$allocator@D@2@@1@@Z PROC NEAR ; std::length_error::length_error, COMDAT
; _this$ = ecx

; 95   : 		{	// construct from message string

  00000	55		 push	 ebp
  00001	8b ec		 mov	 ebp, esp
  00003	51		 push	 ecx
  00004	89 4d fc	 mov	 DWORD PTR _this$[ebp], ecx
  00007	8b 45 08	 mov	 eax, DWORD PTR __Message$[ebp]
  0000a	50		 push	 eax
  0000b	8b 4d fc	 mov	 ecx, DWORD PTR _this$[ebp]
  0000e	e8 00 00 00 00	 call	 ??0logic_error@std@@QAE@ABV?$basic_string@DU?$char_traits@D@std@@V?$allocator@D@2@@1@@Z ; std::logic_error::logic_error
  00013	8b 4d fc	 mov	 ecx, DWORD PTR _this$[ebp]
  00016	c7 01 00 00 00
	00		 mov	 DWORD PTR [ecx], OFFSET FLAT:??_7length_error@std@@6B@

; 96   : 		}

  0001c	8b 45 fc	 mov	 eax, DWORD PTR _this$[ebp]
  0001f	8b e5		 mov	 esp, ebp
  00021	5d		 pop	 ebp
  00022	c2 04 00	 ret	 4
??0length_error@std@@QAE@ABV?$basic_string@DU?$char_traits@D@std@@V?$allocator@D@2@@1@@Z ENDP ; std::length_error::length_error
_TEXT	ENDS
PUBLIC	??_R4logic_error@std@@6B@			; std::logic_error::`RTTI Complete Object Locator'
PUBLIC	??_R3logic_error@std@@8				; std::logic_error::`RTTI Class Hierarchy Descriptor'
PUBLIC	??_R2logic_error@std@@8				; std::logic_error::`RTTI Base Class Array'
PUBLIC	??_7logic_error@std@@6B@			; std::logic_error::`vftable'
PUBLIC	??_Glogic_error@std@@UAEPAXI@Z			; std::logic_error::`scalar deleting destructor'
EXTRN	__imp_??0exception@@QAE@XZ:NEAR
EXTRN	__imp_??1exception@@UAE@XZ:NEAR
EXTRN	??_Elogic_error@std@@UAEPAXI@Z:NEAR		; std::logic_error::`vector deleting destructor'
;	COMDAT xdata$x
xdata$x	SEGMENT
$T200694 DD	0ffffffffH
	DD	FLAT:$L200689
$T200692 DD	019930520H
	DD	01H
	DD	FLAT:$T200694
	DD	2 DUP(00H)
	DD	2 DUP(00H)
xdata$x	ENDS
;	COMDAT ??_7logic_error@std@@6B@
CONST	SEGMENT
??_7logic_error@std@@6B@ DD FLAT:??_R4logic_error@std@@6B@ ; std::logic_error::`vftable'
	DD	FLAT:??_Elogic_error@std@@UAEPAXI@Z
	DD	FLAT:?what@logic_error@std@@UBEPBDXZ
CONST	ENDS
;	COMDAT ??_R4logic_error@std@@6B@
rdata$r	SEGMENT
??_R4logic_error@std@@6B@ DD 00H			; std::logic_error::`RTTI Complete Object Locator'
	DD	00H
	DD	00H
	DD	FLAT:??_R0?AVlogic_error@std@@@8
	DD	FLAT:??_R3logic_error@std@@8
rdata$r	ENDS
;	COMDAT ??_R3logic_error@std@@8
rdata$r	SEGMENT
??_R3logic_error@std@@8 DD 00H				; std::logic_error::`RTTI Class Hierarchy Descriptor'
	DD	00H
	DD	02H
	DD	FLAT:??_R2logic_error@std@@8
rdata$r	ENDS
;	COMDAT ??_R2logic_error@std@@8
rdata$r	SEGMENT
??_R2logic_error@std@@8 DD FLAT:??_R1A@?0A@A@logic_error@std@@8 ; std::logic_error::`RTTI Base Class Array'
	DD	FLAT:??_R1A@?0A@A@exception@@8
; Function compile flags: /Odt
rdata$r	ENDS
;	COMDAT ??0logic_error@std@@QAE@ABV?$basic_string@DU?$char_traits@D@std@@V?$allocator@D@2@@1@@Z
_TEXT	SEGMENT
_this$ = -16						; size = 4
__$EHRec$ = -12						; size = 12
__Message$ = 8						; size = 4
??0logic_error@std@@QAE@ABV?$basic_string@DU?$char_traits@D@std@@V?$allocator@D@2@@1@@Z PROC NEAR ; std::logic_error::logic_error, COMDAT
; _this$ = ecx

; 19   : 		{	// construct from message string

  00000	55		 push	 ebp
  00001	8b ec		 mov	 ebp, esp
  00003	6a ff		 push	 -1
  00005	68 00 00 00 00	 push	 __ehhandler$??0logic_error@std@@QAE@ABV?$basic_string@DU?$char_traits@D@std@@V?$allocator@D@2@@1@@Z
  0000a	64 a1 00 00 00
	00		 mov	 eax, DWORD PTR fs:__except_list
  00010	50		 push	 eax
  00011	64 89 25 00 00
	00 00		 mov	 DWORD PTR fs:__except_list, esp
  00018	51		 push	 ecx
  00019	89 4d f0	 mov	 DWORD PTR _this$[ebp], ecx
  0001c	8b 4d f0	 mov	 ecx, DWORD PTR _this$[ebp]
  0001f	ff 15 00 00 00
	00		 call	 DWORD PTR __imp_??0exception@@QAE@XZ
  00025	c7 45 fc 00 00
	00 00		 mov	 DWORD PTR __$EHRec$[ebp+8], 0
  0002c	8b 45 f0	 mov	 eax, DWORD PTR _this$[ebp]
  0002f	c7 00 00 00 00
	00		 mov	 DWORD PTR [eax], OFFSET FLAT:??_7logic_error@std@@6B@
  00035	8b 4d 08	 mov	 ecx, DWORD PTR __Message$[ebp]
  00038	51		 push	 ecx
  00039	8b 4d f0	 mov	 ecx, DWORD PTR _this$[ebp]
  0003c	83 c1 0c	 add	 ecx, 12			; 0000000cH
  0003f	ff 15 00 00 00
	00		 call	 DWORD PTR __imp_??0?$basic_string@DU?$char_traits@D@std@@V?$allocator@D@2@@std@@QAE@ABV01@@Z

; 20   : 		}

  00045	c7 45 fc ff ff
	ff ff		 mov	 DWORD PTR __$EHRec$[ebp+8], -1
  0004c	8b 45 f0	 mov	 eax, DWORD PTR _this$[ebp]
  0004f	8b 4d f4	 mov	 ecx, DWORD PTR __$EHRec$[ebp]
  00052	64 89 0d 00 00
	00 00		 mov	 DWORD PTR fs:__except_list, ecx
  00059	8b e5		 mov	 esp, ebp
  0005b	5d		 pop	 ebp
  0005c	c2 04 00	 ret	 4
_TEXT	ENDS
;	COMDAT text$x
text$x	SEGMENT
$L200689:
  00000	8b 4d f0	 mov	 ecx, DWORD PTR _this$[ebp]
  00003	ff 25 00 00 00
	00		 jmp	 DWORD PTR __imp_??1exception@@UAE@XZ
__ehhandler$??0logic_error@std@@QAE@ABV?$basic_string@DU?$char_traits@D@std@@V?$allocator@D@2@@1@@Z:
  00009	b8 00 00 00 00	 mov	 eax, OFFSET FLAT:$T200692
  0000e	e9 00 00 00 00	 jmp	 ___CxxFrameHandler
text$x	ENDS
??0logic_error@std@@QAE@ABV?$basic_string@DU?$char_traits@D@std@@V?$allocator@D@2@@1@@Z ENDP ; std::logic_error::logic_error
PUBLIC	??1logic_error@std@@UAE@XZ			; std::logic_error::~logic_error
; Function compile flags: /Odt
;	COMDAT ??_Glogic_error@std@@UAEPAXI@Z
_TEXT	SEGMENT
_this$ = -4						; size = 4
___flags$ = 8						; size = 4
??_Glogic_error@std@@UAEPAXI@Z PROC NEAR		; std::logic_error::`scalar deleting destructor', COMDAT
; _this$ = ecx
  00000	55		 push	 ebp
  00001	8b ec		 mov	 ebp, esp
  00003	51		 push	 ecx
  00004	89 4d fc	 mov	 DWORD PTR _this$[ebp], ecx
  00007	8b 4d fc	 mov	 ecx, DWORD PTR _this$[ebp]
  0000a	e8 00 00 00 00	 call	 ??1logic_error@std@@UAE@XZ ; std::logic_error::~logic_error
  0000f	8b 45 08	 mov	 eax, DWORD PTR ___flags$[ebp]
  00012	83 e0 01	 and	 eax, 1
  00015	74 0c		 je	 SHORT $L102266
  00017	8b 4d fc	 mov	 ecx, DWORD PTR _this$[ebp]
  0001a	51		 push	 ecx
  0001b	e8 00 00 00 00	 call	 ??3@YAXPAX@Z		; operator delete
  00020	83 c4 04	 add	 esp, 4
$L102266:
  00023	8b 45 fc	 mov	 eax, DWORD PTR _this$[ebp]
  00026	8b e5		 mov	 esp, ebp
  00028	5d		 pop	 ebp
  00029	c2 04 00	 ret	 4
??_Glogic_error@std@@UAEPAXI@Z ENDP			; std::logic_error::`scalar deleting destructor'
_TEXT	ENDS
;	COMDAT xdata$x
xdata$x	SEGMENT
$T200706 DD	0ffffffffH
	DD	FLAT:$L200701
$T200704 DD	019930520H
	DD	01H
	DD	FLAT:$T200706
	DD	2 DUP(00H)
	DD	2 DUP(00H)
; Function compile flags: /Odt
xdata$x	ENDS
;	COMDAT ??1logic_error@std@@UAE@XZ
_TEXT	SEGMENT
_this$ = -16						; size = 4
__$EHRec$ = -12						; size = 12
??1logic_error@std@@UAE@XZ PROC NEAR			; std::logic_error::~logic_error, COMDAT
; _this$ = ecx

; 23   : 		{}	// destroy the object

  00000	55		 push	 ebp
  00001	8b ec		 mov	 ebp, esp
  00003	6a ff		 push	 -1
  00005	68 00 00 00 00	 push	 __ehhandler$??1logic_error@std@@UAE@XZ
  0000a	64 a1 00 00 00
	00		 mov	 eax, DWORD PTR fs:__except_list
  00010	50		 push	 eax
  00011	64 89 25 00 00
	00 00		 mov	 DWORD PTR fs:__except_list, esp
  00018	51		 push	 ecx
  00019	89 4d f0	 mov	 DWORD PTR _this$[ebp], ecx
  0001c	8b 45 f0	 mov	 eax, DWORD PTR _this$[ebp]
  0001f	c7 00 00 00 00
	00		 mov	 DWORD PTR [eax], OFFSET FLAT:??_7logic_error@std@@6B@
  00025	c7 45 fc 00 00
	00 00		 mov	 DWORD PTR __$EHRec$[ebp+8], 0
  0002c	8b 4d f0	 mov	 ecx, DWORD PTR _this$[ebp]
  0002f	83 c1 0c	 add	 ecx, 12			; 0000000cH
  00032	ff 15 00 00 00
	00		 call	 DWORD PTR __imp_??1?$basic_string@DU?$char_traits@D@std@@V?$allocator@D@2@@std@@QAE@XZ
  00038	c7 45 fc ff ff
	ff ff		 mov	 DWORD PTR __$EHRec$[ebp+8], -1
  0003f	8b 4d f0	 mov	 ecx, DWORD PTR _this$[ebp]
  00042	ff 15 00 00 00
	00		 call	 DWORD PTR __imp_??1exception@@UAE@XZ
  00048	8b 4d f4	 mov	 ecx, DWORD PTR __$EHRec$[ebp]
  0004b	64 89 0d 00 00
	00 00		 mov	 DWORD PTR fs:__except_list, ecx
  00052	8b e5		 mov	 esp, ebp
  00054	5d		 pop	 ebp
  00055	c3		 ret	 0
_TEXT	ENDS
;	COMDAT text$x
text$x	SEGMENT
$L200701:
  00000	8b 4d f0	 mov	 ecx, DWORD PTR _this$[ebp]
  00003	ff 25 00 00 00
	00		 jmp	 DWORD PTR __imp_??1exception@@UAE@XZ
__ehhandler$??1logic_error@std@@UAE@XZ:
  00009	b8 00 00 00 00	 mov	 eax, OFFSET FLAT:$T200704
  0000e	e9 00 00 00 00	 jmp	 ___CxxFrameHandler
text$x	ENDS
??1logic_error@std@@UAE@XZ ENDP				; std::logic_error::~logic_error
; Function compile flags: /Odt
;	COMDAT ??1length_error@std@@UAE@XZ
_TEXT	SEGMENT
_this$ = -4						; size = 4
??1length_error@std@@UAE@XZ PROC NEAR			; std::length_error::~length_error, COMDAT
; _this$ = ecx

; 99   : 		{}	// destroy the object

  00000	55		 push	 ebp
  00001	8b ec		 mov	 ebp, esp
  00003	51		 push	 ecx
  00004	89 4d fc	 mov	 DWORD PTR _this$[ebp], ecx
  00007	8b 45 fc	 mov	 eax, DWORD PTR _this$[ebp]
  0000a	c7 00 00 00 00
	00		 mov	 DWORD PTR [eax], OFFSET FLAT:??_7length_error@std@@6B@
  00010	8b 4d fc	 mov	 ecx, DWORD PTR _this$[ebp]
  00013	e8 00 00 00 00	 call	 ??1logic_error@std@@UAE@XZ ; std::logic_error::~logic_error
  00018	8b e5		 mov	 esp, ebp
  0001a	5d		 pop	 ebp
  0001b	c3		 ret	 0
??1length_error@std@@UAE@XZ ENDP			; std::length_error::~length_error
; Function compile flags: /Odt
_TEXT	ENDS
;	COMDAT ??_Glength_error@std@@UAEPAXI@Z
_TEXT	SEGMENT
_this$ = -4						; size = 4
___flags$ = 8						; size = 4
??_Glength_error@std@@UAEPAXI@Z PROC NEAR		; std::length_error::`scalar deleting destructor', COMDAT
; _this$ = ecx
  00000	55		 push	 ebp
  00001	8b ec		 mov	 ebp, esp
  00003	51		 push	 ecx
  00004	89 4d fc	 mov	 DWORD PTR _this$[ebp], ecx
  00007	8b 4d fc	 mov	 ecx, DWORD PTR _this$[ebp]
  0000a	e8 00 00 00 00	 call	 ??1length_error@std@@UAE@XZ ; std::length_error::~length_error
  0000f	8b 45 08	 mov	 eax, DWORD PTR ___flags$[ebp]
  00012	83 e0 01	 and	 eax, 1
  00015	74 0c		 je	 SHORT $L102332
  00017	8b 4d fc	 mov	 ecx, DWORD PTR _this$[ebp]
  0001a	51		 push	 ecx
  0001b	e8 00 00 00 00	 call	 ??3@YAXPAX@Z		; operator delete
  00020	83 c4 04	 add	 esp, 4
$L102332:
  00023	8b 45 fc	 mov	 eax, DWORD PTR _this$[ebp]
  00026	8b e5		 mov	 esp, ebp
  00028	5d		 pop	 ebp
  00029	c2 04 00	 ret	 4
??_Glength_error@std@@UAEPAXI@Z ENDP			; std::length_error::`scalar deleting destructor'
_TEXT	ENDS
PUBLIC	??_R4out_of_range@std@@6B@			; std::out_of_range::`RTTI Complete Object Locator'
PUBLIC	??_R3out_of_range@std@@8			; std::out_of_range::`RTTI Class Hierarchy Descriptor'
PUBLIC	??_R2out_of_range@std@@8			; std::out_of_range::`RTTI Base Class Array'
PUBLIC	??_R1A@?0A@A@out_of_range@std@@8		; std::out_of_range::`RTTI Base Class Descriptor at (0,-1,0,0)'
PUBLIC	??_7out_of_range@std@@6B@			; std::out_of_range::`vftable'
PUBLIC	??_Gout_of_range@std@@UAEPAXI@Z			; std::out_of_range::`scalar deleting destructor'
EXTRN	??_Eout_of_range@std@@UAEPAXI@Z:NEAR		; std::out_of_range::`vector deleting destructor'
;	COMDAT ??_7out_of_range@std@@6B@
CONST	SEGMENT
??_7out_of_range@std@@6B@ DD FLAT:??_R4out_of_range@std@@6B@ ; std::out_of_range::`vftable'
	DD	FLAT:??_Eout_of_range@std@@UAEPAXI@Z
	DD	FLAT:?what@logic_error@std@@UBEPBDXZ
CONST	ENDS
;	COMDAT ??_R4out_of_range@std@@6B@
rdata$r	SEGMENT
??_R4out_of_range@std@@6B@ DD 00H			; std::out_of_range::`RTTI Complete Object Locator'
	DD	00H
	DD	00H
	DD	FLAT:??_R0?AVout_of_range@std@@@8
	DD	FLAT:??_R3out_of_range@std@@8
rdata$r	ENDS
;	COMDAT ??_R3out_of_range@std@@8
rdata$r	SEGMENT
??_R3out_of_range@std@@8 DD 00H				; std::out_of_range::`RTTI Class Hierarchy Descriptor'
	DD	00H
	DD	03H
	DD	FLAT:??_R2out_of_range@std@@8
rdata$r	ENDS
;	COMDAT ??_R2out_of_range@std@@8
rdata$r	SEGMENT
??_R2out_of_range@std@@8 DD FLAT:??_R1A@?0A@A@out_of_range@std@@8 ; std::out_of_range::`RTTI Base Class Array'
	DD	FLAT:??_R1A@?0A@A@logic_error@std@@8
	DD	FLAT:??_R1A@?0A@A@exception@@8
rdata$r	ENDS
;	COMDAT ??_R1A@?0A@A@out_of_range@std@@8
rdata$r	SEGMENT
??_R1A@?0A@A@out_of_range@std@@8 DD FLAT:??_R0?AVout_of_range@std@@@8 ; std::out_of_range::`RTTI Base Class Descriptor at (0,-1,0,0)'
	DD	02H
	DD	00H
	DD	0ffffffffH
	DD	00H
	DD	00H
; Function compile flags: /Odt
rdata$r	ENDS
;	COMDAT ??0out_of_range@std@@QAE@ABV?$basic_string@DU?$char_traits@D@std@@V?$allocator@D@2@@1@@Z
_TEXT	SEGMENT
_this$ = -4						; size = 4
__Message$ = 8						; size = 4
??0out_of_range@std@@QAE@ABV?$basic_string@DU?$char_traits@D@std@@V?$allocator@D@2@@1@@Z PROC NEAR ; std::out_of_range::out_of_range, COMDAT
; _this$ = ecx

; 118  : 		{	// construct from message string

  00000	55		 push	 ebp
  00001	8b ec		 mov	 ebp, esp
  00003	51		 push	 ecx
  00004	89 4d fc	 mov	 DWORD PTR _this$[ebp], ecx
  00007	8b 45 08	 mov	 eax, DWORD PTR __Message$[ebp]
  0000a	50		 push	 eax
  0000b	8b 4d fc	 mov	 ecx, DWORD PTR _this$[ebp]
  0000e	e8 00 00 00 00	 call	 ??0logic_error@std@@QAE@ABV?$basic_string@DU?$char_traits@D@std@@V?$allocator@D@2@@1@@Z ; std::logic_error::logic_error
  00013	8b 4d fc	 mov	 ecx, DWORD PTR _this$[ebp]
  00016	c7 01 00 00 00
	00		 mov	 DWORD PTR [ecx], OFFSET FLAT:??_7out_of_range@std@@6B@

; 119  : 		}

  0001c	8b 45 fc	 mov	 eax, DWORD PTR _this$[ebp]
  0001f	8b e5		 mov	 esp, ebp
  00021	5d		 pop	 ebp
  00022	c2 04 00	 ret	 4
??0out_of_range@std@@QAE@ABV?$basic_string@DU?$char_traits@D@std@@V?$allocator@D@2@@1@@Z ENDP ; std::out_of_range::out_of_range
; Function compile flags: /Odt
_TEXT	ENDS
;	COMDAT ??1out_of_range@std@@UAE@XZ
_TEXT	SEGMENT
_this$ = -4						; size = 4
??1out_of_range@std@@UAE@XZ PROC NEAR			; std::out_of_range::~out_of_range, COMDAT
; _this$ = ecx

; 122  : 		{}	// destroy the object

  00000	55		 push	 ebp
  00001	8b ec		 mov	 ebp, esp
  00003	51		 push	 ecx
  00004	89 4d fc	 mov	 DWORD PTR _this$[ebp], ecx
  00007	8b 45 fc	 mov	 eax, DWORD PTR _this$[ebp]
  0000a	c7 00 00 00 00
	00		 mov	 DWORD PTR [eax], OFFSET FLAT:??_7out_of_range@std@@6B@
  00010	8b 4d fc	 mov	 ecx, DWORD PTR _this$[ebp]
  00013	e8 00 00 00 00	 call	 ??1logic_error@std@@UAE@XZ ; std::logic_error::~logic_error
  00018	8b e5		 mov	 esp, ebp
  0001a	5d		 pop	 ebp
  0001b	c3		 ret	 0
??1out_of_range@std@@UAE@XZ ENDP			; std::out_of_range::~out_of_range
; Function compile flags: /Odt
_TEXT	ENDS
;	COMDAT ??_Gout_of_range@std@@UAEPAXI@Z
_TEXT	SEGMENT
_this$ = -4						; size = 4
___flags$ = 8						; size = 4
??_Gout_of_range@std@@UAEPAXI@Z PROC NEAR		; std::out_of_range::`scalar deleting destructor', COMDAT
; _this$ = ecx
  00000	55		 push	 ebp
  00001	8b ec		 mov	 ebp, esp
  00003	51		 push	 ecx
  00004	89 4d fc	 mov	 DWORD PTR _this$[ebp], ecx
  00007	8b 4d fc	 mov	 ecx, DWORD PTR _this$[ebp]
  0000a	e8 00 00 00 00	 call	 ??1out_of_range@std@@UAE@XZ ; std::out_of_range::~out_of_range
  0000f	8b 45 08	 mov	 eax, DWORD PTR ___flags$[ebp]
  00012	83 e0 01	 and	 eax, 1
  00015	74 0c		 je	 SHORT $L102354
  00017	8b 4d fc	 mov	 ecx, DWORD PTR _this$[ebp]
  0001a	51		 push	 ecx
  0001b	e8 00 00 00 00	 call	 ??3@YAXPAX@Z		; operator delete
  00020	83 c4 04	 add	 esp, 4
$L102354:
  00023	8b 45 fc	 mov	 eax, DWORD PTR _this$[ebp]
  00026	8b e5		 mov	 esp, ebp
  00028	5d		 pop	 ebp
  00029	c2 04 00	 ret	 4
??_Gout_of_range@std@@UAEPAXI@Z ENDP			; std::out_of_range::`scalar deleting destructor'
; Function compile flags: /Odt
_TEXT	ENDS
;	COMDAT ??0out_of_range@std@@QAE@ABV01@@Z
_TEXT	SEGMENT
_this$ = -4						; size = 4
___that$ = 8						; size = 4
??0out_of_range@std@@QAE@ABV01@@Z PROC NEAR		; std::out_of_range::out_of_range, COMDAT
; _this$ = ecx
  00000	55		 push	 ebp
  00001	8b ec		 mov	 ebp, esp
  00003	51		 push	 ecx
  00004	89 4d fc	 mov	 DWORD PTR _this$[ebp], ecx
  00007	8b 45 08	 mov	 eax, DWORD PTR ___that$[ebp]
  0000a	50		 push	 eax
  0000b	8b 4d fc	 mov	 ecx, DWORD PTR _this$[ebp]
  0000e	e8 00 00 00 00	 call	 ??0logic_error@std@@QAE@ABV01@@Z
  00013	8b 4d fc	 mov	 ecx, DWORD PTR _this$[ebp]
  00016	c7 01 00 00 00
	00		 mov	 DWORD PTR [ecx], OFFSET FLAT:??_7out_of_range@std@@6B@
  0001c	8b 45 fc	 mov	 eax, DWORD PTR _this$[ebp]
  0001f	8b e5		 mov	 esp, ebp
  00021	5d		 pop	 ebp
  00022	c2 04 00	 ret	 4
??0out_of_range@std@@QAE@ABV01@@Z ENDP			; std::out_of_range::out_of_range
_TEXT	ENDS
EXTRN	__imp_??0exception@@QAE@ABV0@@Z:NEAR
;	COMDAT xdata$x
xdata$x	SEGMENT
$T200732 DD	0ffffffffH
	DD	FLAT:$L200727
$T200730 DD	019930520H
	DD	01H
	DD	FLAT:$T200732
	DD	2 DUP(00H)
	DD	2 DUP(00H)
; Function compile flags: /Odt
xdata$x	ENDS
;	COMDAT ??0logic_error@std@@QAE@ABV01@@Z
_TEXT	SEGMENT
_this$ = -16						; size = 4
__$EHRec$ = -12						; size = 12
___that$ = 8						; size = 4
??0logic_error@std@@QAE@ABV01@@Z PROC NEAR		; std::logic_error::logic_error, COMDAT
; _this$ = ecx
  00000	55		 push	 ebp
  00001	8b ec		 mov	 ebp, esp
  00003	6a ff		 push	 -1
  00005	68 00 00 00 00	 push	 __ehhandler$??0logic_error@std@@QAE@ABV01@@Z
  0000a	64 a1 00 00 00
	00		 mov	 eax, DWORD PTR fs:__except_list
  00010	50		 push	 eax
  00011	64 89 25 00 00
	00 00		 mov	 DWORD PTR fs:__except_list, esp
  00018	51		 push	 ecx
  00019	89 4d f0	 mov	 DWORD PTR _this$[ebp], ecx
  0001c	8b 45 08	 mov	 eax, DWORD PTR ___that$[ebp]
  0001f	50		 push	 eax
  00020	8b 4d f0	 mov	 ecx, DWORD PTR _this$[ebp]
  00023	ff 15 00 00 00
	00		 call	 DWORD PTR __imp_??0exception@@QAE@ABV0@@Z
  00029	c7 45 fc 00 00
	00 00		 mov	 DWORD PTR __$EHRec$[ebp+8], 0
  00030	8b 4d f0	 mov	 ecx, DWORD PTR _this$[ebp]
  00033	c7 01 00 00 00
	00		 mov	 DWORD PTR [ecx], OFFSET FLAT:??_7logic_error@std@@6B@
  00039	8b 55 08	 mov	 edx, DWORD PTR ___that$[ebp]
  0003c	83 c2 0c	 add	 edx, 12			; 0000000cH
  0003f	52		 push	 edx
  00040	8b 4d f0	 mov	 ecx, DWORD PTR _this$[ebp]
  00043	83 c1 0c	 add	 ecx, 12			; 0000000cH
  00046	ff 15 00 00 00
	00		 call	 DWORD PTR __imp_??0?$basic_string@DU?$char_traits@D@std@@V?$allocator@D@2@@std@@QAE@ABV01@@Z
  0004c	c7 45 fc ff ff
	ff ff		 mov	 DWORD PTR __$EHRec$[ebp+8], -1
  00053	8b 45 f0	 mov	 eax, DWORD PTR _this$[ebp]
  00056	8b 4d f4	 mov	 ecx, DWORD PTR __$EHRec$[ebp]
  00059	64 89 0d 00 00
	00 00		 mov	 DWORD PTR fs:__except_list, ecx
  00060	8b e5		 mov	 esp, ebp
  00062	5d		 pop	 ebp
  00063	c2 04 00	 ret	 4
_TEXT	ENDS
;	COMDAT text$x
text$x	SEGMENT
$L200727:
  00000	8b 4d f0	 mov	 ecx, DWORD PTR _this$[ebp]
  00003	ff 25 00 00 00
	00		 jmp	 DWORD PTR __imp_??1exception@@UAE@XZ
__ehhandler$??0logic_error@std@@QAE@ABV01@@Z:
  00009	b8 00 00 00 00	 mov	 eax, OFFSET FLAT:$T200730
  0000e	e9 00 00 00 00	 jmp	 ___CxxFrameHandler
text$x	ENDS
??0logic_error@std@@QAE@ABV01@@Z ENDP			; std::logic_error::logic_error
END
