; Listing generated by Microsoft (R) Optimizing Compiler Version 13.10.3077 

	TITLE	.\src\Gui\CommonControl\xStaticText.cpp
	.386P
include listing.inc
if @Version gt 510
.model FLAT
else
_TEXT	SEGMENT PARA USE32 PUBLIC 'CODE'
_TEXT	ENDS
_DATA	SEGMENT DWORD USE32 PUBLIC 'DATA'
_DATA	ENDS
CONST	SEGMENT DWORD USE32 PUBLIC 'CONST'
CONST	ENDS
_BSS	SEGMENT DWORD USE32 PUBLIC 'BSS'
_BSS	ENDS
$$SYMBOLS	SEGMENT BYTE USE32 'DEBSYM'
$$SYMBOLS	ENDS
$$TYPES	SEGMENT BYTE USE32 'DEBTYP'
$$TYPES	ENDS
_TLS	SEGMENT DWORD USE32 PUBLIC 'TLS'
_TLS	ENDS
rdata$r	SEGMENT DWORD USE32 PUBLIC 'CONST'
rdata$r	ENDS
xdata$x	SEGMENT DWORD USE32 PUBLIC 'CONST'
xdata$x	ENDS
text$AFX_COL1	SEGMENT PARA USE32 PUBLIC ''
text$AFX_COL1	ENDS
text$yc	SEGMENT PARA USE32 PUBLIC 'CODE'
text$yc	ENDS
CRT$XCA	SEGMENT DWORD USE32 PUBLIC 'DATA'
CRT$XCA	ENDS
CRT$XCU	SEGMENT DWORD USE32 PUBLIC 'DATA'
CRT$XCU	ENDS
CRT$XCL	SEGMENT DWORD USE32 PUBLIC 'DATA'
CRT$XCL	ENDS
CRT$XCC	SEGMENT DWORD USE32 PUBLIC 'DATA'
CRT$XCC	ENDS
CRT$XCZ	SEGMENT DWORD USE32 PUBLIC 'DATA'
CRT$XCZ	ENDS
text$yd	SEGMENT PARA USE32 PUBLIC 'CODE'
text$yd	ENDS
ATL$__m	SEGMENT DWORD USE32 PUBLIC ''
ATL$__m	ENDS
ATL$__z	SEGMENT DWORD USE32 PUBLIC ''
ATL$__z	ENDS
ATL$__a	SEGMENT DWORD USE32 PUBLIC ''
ATL$__a	ENDS
;	COMDAT ??_GCxStaticText@@UAEPAXI@Z
_TEXT	SEGMENT PARA USE32 PUBLIC 'CODE'
_TEXT	ENDS
;	COMDAT ??HATL@@YA?AV?$CStringT@DV?$StrTraitMFC_DLL@DV?$ChTraitsCRT@D@ATL@@@@@0@ABV10@PBD@Z
_TEXT	SEGMENT PARA USE32 PUBLIC 'CODE'
_TEXT	ENDS
;	COMDAT ??B?$CComPtrBase@UITypeInfo2@@@ATL@@QBEPAUITypeInfo2@@XZ
_TEXT	SEGMENT PARA USE32 PUBLIC 'CODE'
_TEXT	ENDS
;	COMDAT ?equal@?$istreambuf_iterator@DU?$char_traits@D@std@@@std@@QBE_NABV12@@Z
_TEXT	SEGMENT PARA USE32 PUBLIC 'CODE'
_TEXT	ENDS
;	COMDAT ?equal@?$istreambuf_iterator@_WU?$char_traits@_W@std@@@std@@QBE_NABV12@@Z
_TEXT	SEGMENT PARA USE32 PUBLIC 'CODE'
_TEXT	ENDS
;	COMDAT ??Diterator@?$basic_string@_WU?$char_traits@_W@std@@V?$allocator@_W@2@@std@@QBEAA_WXZ
_TEXT	SEGMENT PARA USE32 PUBLIC 'CODE'
_TEXT	ENDS
;	COMDAT ??Fiterator@?$basic_string@_WU?$char_traits@_W@std@@V?$allocator@_W@2@@std@@QAEAAV012@XZ
_TEXT	SEGMENT PARA USE32 PUBLIC 'CODE'
_TEXT	ENDS
;	COMDAT ??Giterator@?$basic_string@_WU?$char_traits@_W@std@@V?$allocator@_W@2@@std@@QBE?AV012@H@Z
_TEXT	SEGMENT PARA USE32 PUBLIC 'CODE'
_TEXT	ENDS
;	COMDAT ??B?$fpos@H@std@@QBEJXZ
_TEXT	SEGMENT PARA USE32 PUBLIC 'CODE'
_TEXT	ENDS
;	COMDAT ??Dconst_iterator@?$basic_string@_WU?$char_traits@_W@std@@V?$allocator@_W@2@@std@@QBEAB_WXZ
_TEXT	SEGMENT PARA USE32 PUBLIC 'CODE'
_TEXT	ENDS
;	COMDAT ??0iterator@?$basic_string@_WU?$char_traits@_W@std@@V?$allocator@_W@2@@std@@QAE@PA_W@Z
_TEXT	SEGMENT PARA USE32 PUBLIC 'CODE'
_TEXT	ENDS
;	COMDAT ??Ziterator@?$basic_string@_WU?$char_traits@_W@std@@V?$allocator@_W@2@@std@@QAEAAV012@H@Z
_TEXT	SEGMENT PARA USE32 PUBLIC 'CODE'
_TEXT	ENDS
;	COMDAT ??0const_iterator@?$basic_string@_WU?$char_traits@_W@std@@V?$allocator@_W@2@@std@@QAE@PB_W@Z
_TEXT	SEGMENT PARA USE32 PUBLIC 'CODE'
_TEXT	ENDS
;	COMDAT ??Gconst_iterator@?$basic_string@_WU?$char_traits@_W@std@@V?$allocator@_W@2@@std@@QBEHABV012@@Z
_TEXT	SEGMENT PARA USE32 PUBLIC 'CODE'
_TEXT	ENDS
;	COMDAT ??Yiterator@?$basic_string@_WU?$char_traits@_W@std@@V?$allocator@_W@2@@std@@QAEAAV012@H@Z
_TEXT	SEGMENT PARA USE32 PUBLIC 'CODE'
_TEXT	ENDS
;	COMDAT ?Unlock@?$CComCritSecLock@VCComCriticalSection@ATL@@@ATL@@QAEXXZ
_TEXT	SEGMENT PARA USE32 PUBLIC 'CODE'
_TEXT	ENDS
;	COMDAT ??$_Maklocstr@D@std@@YAPADPBDPADABU_Cvtvec@@@Z
_TEXT	SEGMENT PARA USE32 PUBLIC 'CODE'
_TEXT	ENDS
;	COMDAT ??_R3CxStaticText@@8
rdata$r	SEGMENT DWORD USE32 PUBLIC 'CONST'
rdata$r	ENDS
;	COMDAT ??_R3?$numpunct@_W@std@@8
rdata$r	SEGMENT DWORD USE32 PUBLIC 'CONST'
rdata$r	ENDS
;	COMDAT ??_R3?$numpunct@D@std@@8
rdata$r	SEGMENT DWORD USE32 PUBLIC 'CONST'
rdata$r	ENDS
;	COMDAT ??_R2CxStaticText@@8
rdata$r	SEGMENT DWORD USE32 PUBLIC 'CONST'
rdata$r	ENDS
;	COMDAT ??_R2?$numpunct@_W@std@@8
rdata$r	SEGMENT DWORD USE32 PUBLIC 'CONST'
rdata$r	ENDS
;	COMDAT ??_R2?$numpunct@D@std@@8
rdata$r	SEGMENT DWORD USE32 PUBLIC 'CONST'
rdata$r	ENDS
;	COMDAT ??_R1A@?0A@A@CObject@@8
rdata$r	SEGMENT DWORD USE32 PUBLIC 'CONST'
rdata$r	ENDS
;	COMDAT ??_R0?AVCObject@@@8
_DATA	SEGMENT DWORD USE32 PUBLIC 'DATA'
_DATA	ENDS
;	COMDAT ??_R1A@?0A@A@CCmdTarget@@8
rdata$r	SEGMENT DWORD USE32 PUBLIC 'CONST'
rdata$r	ENDS
;	COMDAT ??_R0?AVCCmdTarget@@@8
_DATA	SEGMENT DWORD USE32 PUBLIC 'DATA'
_DATA	ENDS
;	COMDAT ??_R1A@?0A@A@CWnd@@8
rdata$r	SEGMENT DWORD USE32 PUBLIC 'CONST'
rdata$r	ENDS
;	COMDAT ??_R0?AVCWnd@@@8
_DATA	SEGMENT DWORD USE32 PUBLIC 'DATA'
_DATA	ENDS
;	COMDAT ??_R1A@?0A@A@CStatic@@8
rdata$r	SEGMENT DWORD USE32 PUBLIC 'CONST'
rdata$r	ENDS
;	COMDAT ??_R0?AVCStatic@@@8
_DATA	SEGMENT DWORD USE32 PUBLIC 'DATA'
_DATA	ENDS
;	COMDAT ??_R1A@?0A@A@CxStaticText@@8
rdata$r	SEGMENT DWORD USE32 PUBLIC 'CONST'
rdata$r	ENDS
;	COMDAT ??_R1A@?0A@A@?$numpunct@_W@std@@8
rdata$r	SEGMENT DWORD USE32 PUBLIC 'CONST'
rdata$r	ENDS
;	COMDAT ??_R1A@?0A@A@facet@locale@std@@8
rdata$r	SEGMENT DWORD USE32 PUBLIC 'CONST'
rdata$r	ENDS
;	COMDAT ??_R0?AVfacet@locale@std@@@8
_DATA	SEGMENT DWORD USE32 PUBLIC 'DATA'
_DATA	ENDS
;	COMDAT ??_R1A@?0A@A@?$numpunct@D@std@@8
rdata$r	SEGMENT DWORD USE32 PUBLIC 'CONST'
rdata$r	ENDS
;	COMDAT ??_R0?AVCxStaticText@@@8
_DATA	SEGMENT DWORD USE32 PUBLIC 'DATA'
_DATA	ENDS
;	COMDAT ??_R0?AV?$numpunct@_W@std@@@8
_DATA	SEGMENT DWORD USE32 PUBLIC 'DATA'
_DATA	ENDS
;	COMDAT ??_R0?AV?$numpunct@D@std@@@8
_DATA	SEGMENT DWORD USE32 PUBLIC 'DATA'
_DATA	ENDS
;	COMDAT ?EndModalState@CWnd@@UAEXXZ
_TEXT	SEGMENT PARA USE32 PUBLIC 'CODE'
_TEXT	ENDS
;	COMDAT ?BeginModalState@CWnd@@UAEXXZ
_TEXT	SEGMENT PARA USE32 PUBLIC 'CODE'
_TEXT	ENDS
;	COMDAT ?DoDataExchange@CWnd@@MAEXPAVCDataExchange@@@Z
_TEXT	SEGMENT PARA USE32 PUBLIC 'CODE'
_TEXT	ENDS
;	COMDAT ?Dump@CObject@@UBEXAAVCDumpContext@@@Z
_TEXT	SEGMENT PARA USE32 PUBLIC 'CODE'
_TEXT	ENDS
;	COMDAT ?AssertValid@CObject@@UBEXXZ
_TEXT	SEGMENT PARA USE32 PUBLIC 'CODE'
_TEXT	ENDS
;	COMDAT ?Serialize@CObject@@UAEXAAVCArchive@@@Z
_TEXT	SEGMENT PARA USE32 PUBLIC 'CODE'
_TEXT	ENDS
;	COMDAT ??_R4CxStaticText@@6B@
rdata$r	SEGMENT DWORD USE32 PUBLIC 'CONST'
rdata$r	ENDS
;	COMDAT ??0?$allocator@D@std@@QAE@ABV01@@Z
_TEXT	SEGMENT PARA USE32 PUBLIC 'CODE'
_TEXT	ENDS
;	COMDAT ??0?$allocator@D@std@@QAE@XZ
_TEXT	SEGMENT PARA USE32 PUBLIC 'CODE'
_TEXT	ENDS
;	COMDAT ?max_size@?$allocator@D@std@@QBEIXZ
_TEXT	SEGMENT PARA USE32 PUBLIC 'CODE'
_TEXT	ENDS
;	COMDAT ??_G?$numpunct@_W@std@@MAEPAXI@Z
_TEXT	SEGMENT PARA USE32 PUBLIC 'CODE'
_TEXT	ENDS
;	COMDAT ??_R4?$numpunct@_W@std@@6B@
rdata$r	SEGMENT DWORD USE32 PUBLIC 'CONST'
rdata$r	ENDS
;	COMDAT ??_G?$numpunct@D@std@@MAEPAXI@Z
_TEXT	SEGMENT PARA USE32 PUBLIC 'CODE'
_TEXT	ENDS
;	COMDAT ??_R4?$numpunct@D@std@@6B@
rdata$r	SEGMENT DWORD USE32 PUBLIC 'CONST'
rdata$r	ENDS
;	COMDAT ?_Psave@?$_Facetptr@V?$numpunct@_W@std@@@std@@2PBVfacet@locale@2@B
_DATA	SEGMENT DWORD USE32 PUBLIC 'DATA'
_DATA	ENDS
;	COMDAT ?_Psave@?$_Facetptr@V?$numpunct@D@std@@@std@@2PBVfacet@locale@2@B
_DATA	SEGMENT DWORD USE32 PUBLIC 'DATA'
_DATA	ENDS
;	COMDAT ?Unlock@CComCriticalSection@ATL@@QAEJXZ
_TEXT	SEGMENT PARA USE32 PUBLIC 'CODE'
_TEXT	ENDS
;	COMDAT ?_Psave@?$_Facetptr@V?$ctype@_W@std@@@std@@2PBVfacet@locale@2@B
_DATA	SEGMENT DWORD USE32 PUBLIC 'DATA'
_DATA	ENDS
;	COMDAT ?_Psave@?$_Facetptr@V?$ctype@D@std@@@std@@2PBVfacet@locale@2@B
_DATA	SEGMENT DWORD USE32 PUBLIC 'DATA'
_DATA	ENDS
;	COMDAT ??$_Maklocchr@_W@std@@YA_WDPA_WABU_Cvtvec@@@Z
_TEXT	SEGMENT PARA USE32 PUBLIC 'CODE'
_TEXT	ENDS
;	COMDAT ??$_Maklocstr@_W@std@@YAPA_WPBDPA_WABU_Cvtvec@@@Z
_TEXT	SEGMENT PARA USE32 PUBLIC 'CODE'
_TEXT	ENDS
;	COMDAT ??$_Maklocchr@D@std@@YADDPADABU_Cvtvec@@@Z
_TEXT	SEGMENT PARA USE32 PUBLIC 'CODE'
_TEXT	ENDS
;	COMDAT ??_C@_04LOAJBDKD@true?$AA@
CONST	SEGMENT DWORD USE32 PUBLIC 'CONST'
CONST	ENDS
;	COMDAT ??_C@_05LAPONLG@false?$AA@
CONST	SEGMENT DWORD USE32 PUBLIC 'CONST'
CONST	ENDS
;	COMDAT _wmemmove
_TEXT	SEGMENT PARA USE32 PUBLIC 'CODE'
_TEXT	ENDS
;	COMDAT ?max_size@?$allocator@_W@std@@QBEIXZ
_TEXT	SEGMENT PARA USE32 PUBLIC 'CODE'
_TEXT	ENDS
;	COMDAT ??_C@_01GFHCPBMG@C?$AA@
CONST	SEGMENT DWORD USE32 PUBLIC 'CONST'
CONST	ENDS
;	COMDAT _wmemcmp
_TEXT	SEGMENT PARA USE32 PUBLIC 'CODE'
_TEXT	ENDS
;	COMDAT _wmemchr
_TEXT	SEGMENT PARA USE32 PUBLIC 'CODE'
_TEXT	ENDS
;	COMDAT ??0?$allocator@_W@std@@QAE@XZ
_TEXT	SEGMENT PARA USE32 PUBLIC 'CODE'
_TEXT	ENDS
;	COMDAT ?Release@CStringData@ATL@@QAEXXZ
_TEXT	SEGMENT PARA USE32 PUBLIC 'CODE'
_TEXT	ENDS
;	COMDAT ?data@CStringData@ATL@@QAEPAXXZ
_TEXT	SEGMENT PARA USE32 PUBLIC 'CODE'
_TEXT	ENDS
;	COMDAT ?AtlThrow@ATL@@YGXJ@Z
_TEXT	SEGMENT PARA USE32 PUBLIC 'CODE'
_TEXT	ENDS
;	COMDAT ?IsShared@CStringData@ATL@@QBE_NXZ
_TEXT	SEGMENT PARA USE32 PUBLIC 'CODE'
_TEXT	ENDS
;	COMDAT ?deallocate@?$allocator@_W@std@@QAEXPA_WI@Z
_TEXT	SEGMENT PARA USE32 PUBLIC 'CODE'
_TEXT	ENDS
;	COMDAT _wmemcpy
_TEXT	SEGMENT PARA USE32 PUBLIC 'CODE'
_TEXT	ENDS
;	COMDAT ?allocate@?$allocator@_W@std@@QAEPA_WI@Z
_TEXT	SEGMENT PARA USE32 PUBLIC 'CODE'
_TEXT	ENDS
;	COMDAT ??$_Allocate@_W@std@@YAPA_WIPA_W@Z
_TEXT	SEGMENT PARA USE32 PUBLIC 'CODE'
_TEXT	ENDS
;	COMDAT ??_Glocale@std@@QAEPAXI@Z
_TEXT	SEGMENT PARA USE32 PUBLIC 'CODE'
_TEXT	ENDS
;	COMDAT ??0?$fpos@H@std@@QAE@J@Z
_TEXT	SEGMENT PARA USE32 PUBLIC 'CODE'
_TEXT	ENDS
;	COMDAT ?_Stz@?$fpos@H@std@@0HA
_BSS	SEGMENT DWORD USE32 PUBLIC 'BSS'
_BSS	ENDS
;	COMDAT ?deallocate@?$allocator@D@std@@QAEXPADI@Z
_TEXT	SEGMENT PARA USE32 PUBLIC 'CODE'
_TEXT	ENDS
;	COMDAT ?allocate@?$allocator@D@std@@QAEPADI@Z
_TEXT	SEGMENT PARA USE32 PUBLIC 'CODE'
_TEXT	ENDS
;	COMDAT ??$_Allocate@D@std@@YAPADIPAD@Z
_TEXT	SEGMENT PARA USE32 PUBLIC 'CODE'
_TEXT	ENDS
;	COMDAT ?_Peek@?$istreambuf_iterator@_WU?$char_traits@_W@std@@@std@@AAE_WXZ
_TEXT	SEGMENT PARA USE32 PUBLIC 'CODE'
_TEXT	ENDS
;	COMDAT ?_Peek@?$istreambuf_iterator@DU?$char_traits@D@std@@@std@@AAEDXZ
_TEXT	SEGMENT PARA USE32 PUBLIC 'CODE'
_TEXT	ENDS
;	COMDAT ??$use_facet@V?$ctype@_W@std@@@std@@YAABV?$ctype@_W@0@ABVlocale@0@@Z
_TEXT	SEGMENT PARA USE32 PUBLIC 'CODE'
_TEXT	ENDS
;	COMDAT ??_S?$ctype@_W@std@@6B@
CONST	SEGMENT DWORD USE32 PUBLIC 'CONST'
CONST	ENDS
;	COMDAT ??_R4?$ctype@_W@std@@6B@
rdata$r	SEGMENT DWORD USE32 PUBLIC 'CONST'
rdata$r	ENDS
;	COMDAT ??_R0?AV?$ctype@_W@std@@@8
_DATA	SEGMENT DWORD USE32 PUBLIC 'DATA'
_DATA	ENDS
;	COMDAT ??_R3?$ctype@_W@std@@8
rdata$r	SEGMENT DWORD USE32 PUBLIC 'CONST'
rdata$r	ENDS
;	COMDAT ??_R2?$ctype@_W@std@@8
rdata$r	SEGMENT DWORD USE32 PUBLIC 'CONST'
rdata$r	ENDS
;	COMDAT ??_R1A@?0A@A@?$ctype@_W@std@@8
rdata$r	SEGMENT DWORD USE32 PUBLIC 'CONST'
rdata$r	ENDS
;	COMDAT ??_R1A@?0A@A@ctype_base@std@@8
rdata$r	SEGMENT DWORD USE32 PUBLIC 'CONST'
rdata$r	ENDS
;	COMDAT ??_R0?AUctype_base@std@@@8
_DATA	SEGMENT DWORD USE32 PUBLIC 'DATA'
_DATA	ENDS
;	COMDAT ??_G?$ctype@_W@std@@MAEPAXI@Z
_TEXT	SEGMENT PARA USE32 PUBLIC 'CODE'
_TEXT	ENDS
;	COMDAT ??_C@_08EPJLHIJG@bad?5cast?$AA@
CONST	SEGMENT DWORD USE32 PUBLIC 'CONST'
CONST	ENDS
;	COMDAT __TI2?AVbad_cast@@
xdata$x	SEGMENT DWORD USE32 PUBLIC 'CONST'
xdata$x	ENDS
;	COMDAT __CTA2?AVbad_cast@@
xdata$x	SEGMENT DWORD USE32 PUBLIC 'CONST'
xdata$x	ENDS
;	COMDAT __CT??_R0?AVbad_cast@@@8??0bad_cast@@QAE@ABV0@@Z12
xdata$x	SEGMENT DWORD USE32 PUBLIC 'CONST'
xdata$x	ENDS
;	COMDAT ??_R0?AVbad_cast@@@8
_DATA	SEGMENT DWORD USE32 PUBLIC 'DATA'
_DATA	ENDS
;	COMDAT __CT??_R0?AVexception@@@8??0exception@@QAE@ABV0@@Z12
xdata$x	SEGMENT DWORD USE32 PUBLIC 'CONST'
xdata$x	ENDS
;	COMDAT ??_R0?AVexception@@@8
_DATA	SEGMENT DWORD USE32 PUBLIC 'DATA'
_DATA	ENDS
;	COMDAT ??$use_facet@V?$ctype@D@std@@@std@@YAABV?$ctype@D@0@ABVlocale@0@@Z
_TEXT	SEGMENT PARA USE32 PUBLIC 'CODE'
_TEXT	ENDS
;	COMDAT ??_S?$ctype@D@std@@6B@
CONST	SEGMENT DWORD USE32 PUBLIC 'CONST'
CONST	ENDS
;	COMDAT ??_R4?$ctype@D@std@@6B@
rdata$r	SEGMENT DWORD USE32 PUBLIC 'CONST'
rdata$r	ENDS
;	COMDAT ??_R0?AV?$ctype@D@std@@@8
_DATA	SEGMENT DWORD USE32 PUBLIC 'DATA'
_DATA	ENDS
;	COMDAT ??_R3?$ctype@D@std@@8
rdata$r	SEGMENT DWORD USE32 PUBLIC 'CONST'
rdata$r	ENDS
;	COMDAT ??_R2?$ctype@D@std@@8
rdata$r	SEGMENT DWORD USE32 PUBLIC 'CONST'
rdata$r	ENDS
;	COMDAT ??_R1A@?0A@A@?$ctype@D@std@@8
rdata$r	SEGMENT DWORD USE32 PUBLIC 'CONST'
rdata$r	ENDS
;	COMDAT ??_G?$ctype@D@std@@MAEPAXI@Z
_TEXT	SEGMENT PARA USE32 PUBLIC 'CODE'
_TEXT	ENDS
;	COMDAT ??_S?$numpunct@_W@std@@6B@
CONST	SEGMENT DWORD USE32 PUBLIC 'CONST'
CONST	ENDS
;	COMDAT ??_S?$numpunct@D@std@@6B@
CONST	SEGMENT DWORD USE32 PUBLIC 'CONST'
CONST	ENDS
;	COMDAT ??0?$allocator@_W@std@@QAE@ABV01@@Z
_TEXT	SEGMENT PARA USE32 PUBLIC 'CODE'
_TEXT	ENDS
;	COMDAT ?IsLocked@CStringData@ATL@@QBE_NXZ
_TEXT	SEGMENT PARA USE32 PUBLIC 'CODE'
_TEXT	ENDS
;	COMDAT ?AddRef@CStringData@ATL@@QAEXXZ
_TEXT	SEGMENT PARA USE32 PUBLIC 'CODE'
_TEXT	ENDS
;	COMDAT ?RelayEvent@CToolTipCtrl@@QAEXPAUtagMSG@@@Z
_TEXT	SEGMENT PARA USE32 PUBLIC 'CODE'
_TEXT	ENDS
;	COMDAT ?Activate@CToolTipCtrl@@QAEXH@Z
_TEXT	SEGMENT PARA USE32 PUBLIC 'CODE'
_TEXT	ENDS
;	COMDAT ?SendMessageA@CWnd@@QAEJIIJ@Z
_TEXT	SEGMENT PARA USE32 PUBLIC 'CODE'
_TEXT	ENDS
;	COMDAT ?MoveWindow@CWnd@@QAEXPBUtagRECT@@H@Z
_TEXT	SEGMENT PARA USE32 PUBLIC 'CODE'
_TEXT	ENDS
;	COMDAT ?DrawTextA@CDC@@QAEHABV?$CStringT@DV?$StrTraitMFC_DLL@DV?$ChTraitsCRT@D@ATL@@@@@ATL@@PAUtagRECT@@I@Z
_TEXT	SEGMENT PARA USE32 PUBLIC 'CODE'
_TEXT	ENDS
;	COMDAT ?OnLButtonDown@CWnd@@IAEXIVCPoint@@@Z
_TEXT	SEGMENT PARA USE32 PUBLIC 'CODE'
_TEXT	ENDS
;	COMDAT ??BCDC@@QBEPAUHDC__@@XZ
_TEXT	SEGMENT PARA USE32 PUBLIC 'CODE'
_TEXT	ENDS
;	COMDAT ?StretchBlt@CDC@@QAEHHHHHPAV1@HHHHK@Z
_TEXT	SEGMENT PARA USE32 PUBLIC 'CODE'
_TEXT	ENDS
;	COMDAT ?GetSafeHdc@CDC@@QBEPAUHDC__@@XZ
_TEXT	SEGMENT PARA USE32 PUBLIC 'CODE'
_TEXT	ENDS
;	COMDAT ?BitBlt@CDC@@QAEHHHHHPAV1@HHK@Z
_TEXT	SEGMENT PARA USE32 PUBLIC 'CODE'
_TEXT	ENDS
;	COMDAT ??BCGdiObject@@QBEPAXXZ
_TEXT	SEGMENT PARA USE32 PUBLIC 'CODE'
_TEXT	ENDS
;	COMDAT ?SelectObject@CDC@@QAEPAXPAX@Z
_TEXT	SEGMENT PARA USE32 PUBLIC 'CODE'
_TEXT	ENDS
;	COMDAT ?GetPixel@CDC@@QBEKHH@Z
_TEXT	SEGMENT PARA USE32 PUBLIC 'CODE'
_TEXT	ENDS
;	COMDAT ??0CRect@@QAE@HHHH@Z
_TEXT	SEGMENT PARA USE32 PUBLIC 'CODE'
_TEXT	ENDS
;	COMDAT ?SelectObject@CDC@@QAEPAVCBitmap@@PAV2@@Z
_TEXT	SEGMENT PARA USE32 PUBLIC 'CODE'
_TEXT	ENDS
;	COMDAT ?GetSafeHandle@CGdiObject@@QBEPAXXZ
_TEXT	SEGMENT PARA USE32 PUBLIC 'CODE'
_TEXT	ENDS
;	COMDAT ?CreateCompatibleBitmap@CBitmap@@QAEHPAVCDC@@HH@Z
_TEXT	SEGMENT PARA USE32 PUBLIC 'CODE'
_TEXT	ENDS
;	COMDAT ??1CBitmap@@UAE@XZ
_TEXT	SEGMENT PARA USE32 PUBLIC 'CODE'
_TEXT	ENDS
;	COMDAT ??_7CBitmap@@6B@
CONST	SEGMENT DWORD USE32 PUBLIC 'CONST'
CONST	ENDS
;	COMDAT ??_R4CBitmap@@6B@
rdata$r	SEGMENT DWORD USE32 PUBLIC 'CONST'
rdata$r	ENDS
;	COMDAT ??_R0?AVCBitmap@@@8
_DATA	SEGMENT DWORD USE32 PUBLIC 'DATA'
_DATA	ENDS
;	COMDAT ??_R3CBitmap@@8
rdata$r	SEGMENT DWORD USE32 PUBLIC 'CONST'
rdata$r	ENDS
;	COMDAT ??_R2CBitmap@@8
rdata$r	SEGMENT DWORD USE32 PUBLIC 'CONST'
rdata$r	ENDS
;	COMDAT ??_R1A@?0A@A@CBitmap@@8
rdata$r	SEGMENT DWORD USE32 PUBLIC 'CONST'
rdata$r	ENDS
;	COMDAT ??_R1A@?0A@A@CGdiObject@@8
rdata$r	SEGMENT DWORD USE32 PUBLIC 'CONST'
rdata$r	ENDS
;	COMDAT ??_R0?AVCGdiObject@@@8
_DATA	SEGMENT DWORD USE32 PUBLIC 'DATA'
_DATA	ENDS
;	COMDAT ??_GCBitmap@@UAEPAXI@Z
_TEXT	SEGMENT PARA USE32 PUBLIC 'CODE'
_TEXT	ENDS
;	COMDAT ??1CGdiObject@@UAE@XZ
_TEXT	SEGMENT PARA USE32 PUBLIC 'CODE'
_TEXT	ENDS
;	COMDAT ??_7CGdiObject@@6B@
CONST	SEGMENT DWORD USE32 PUBLIC 'CONST'
CONST	ENDS
;	COMDAT ??_R4CGdiObject@@6B@
rdata$r	SEGMENT DWORD USE32 PUBLIC 'CONST'
rdata$r	ENDS
;	COMDAT ??_R3CGdiObject@@8
rdata$r	SEGMENT DWORD USE32 PUBLIC 'CONST'
rdata$r	ENDS
;	COMDAT ??_R2CGdiObject@@8
rdata$r	SEGMENT DWORD USE32 PUBLIC 'CONST'
rdata$r	ENDS
;	COMDAT ??_GCGdiObject@@UAEPAXI@Z
_TEXT	SEGMENT PARA USE32 PUBLIC 'CODE'
_TEXT	ENDS
;	COMDAT ??1CObject@@UAE@XZ
_TEXT	SEGMENT PARA USE32 PUBLIC 'CODE'
_TEXT	ENDS
;	COMDAT ??0CBitmap@@QAE@XZ
_TEXT	SEGMENT PARA USE32 PUBLIC 'CODE'
_TEXT	ENDS
;	COMDAT ??0CGdiObject@@QAE@XZ
_TEXT	SEGMENT PARA USE32 PUBLIC 'CODE'
_TEXT	ENDS
;	COMDAT ??0CObject@@IAE@XZ
_TEXT	SEGMENT PARA USE32 PUBLIC 'CODE'
_TEXT	ENDS
;	COMDAT ?CreateCompatibleDC@CDC@@QAEHPAV1@@Z
_TEXT	SEGMENT PARA USE32 PUBLIC 'CODE'
_TEXT	ENDS
;	COMDAT ?GetDC@CWnd@@QAEPAVCDC@@XZ
_TEXT	SEGMENT PARA USE32 PUBLIC 'CODE'
_TEXT	ENDS
;	COMDAT ?SetWindowRgn@CWnd@@QAEHPAUHRGN__@@H@Z
_TEXT	SEGMENT PARA USE32 PUBLIC 'CODE'
_TEXT	ENDS
;	COMDAT ?InvalidateRect@CWnd@@QAEXPBUtagRECT@@H@Z
_TEXT	SEGMENT PARA USE32 PUBLIC 'CODE'
_TEXT	ENDS
;	COMDAT ?GetWindowRect@CWnd@@QBEXPAUtagRECT@@@Z
_TEXT	SEGMENT PARA USE32 PUBLIC 'CODE'
_TEXT	ENDS
;	COMDAT ?GetParent@CWnd@@QBEPAV1@XZ
_TEXT	SEGMENT PARA USE32 PUBLIC 'CODE'
_TEXT	ENDS
;	COMDAT ?OnTimer@CWnd@@IAEXI@Z
_TEXT	SEGMENT PARA USE32 PUBLIC 'CODE'
_TEXT	ENDS
;	COMDAT ?KillTimer@CWnd@@QAEHI@Z
_TEXT	SEGMENT PARA USE32 PUBLIC 'CODE'
_TEXT	ENDS
;	COMDAT ?SetTimer@CWnd@@QAEIIIP6GXPAUHWND__@@IIK@Z@Z
_TEXT	SEGMENT PARA USE32 PUBLIC 'CODE'
_TEXT	ENDS
;	COMDAT ?Invalidate@CWnd@@QAEXH@Z
_TEXT	SEGMENT PARA USE32 PUBLIC 'CODE'
_TEXT	ENDS
;	COMDAT ??$getline@_WU?$char_traits@_W@std@@V?$allocator@_W@2@@std@@YAAAV?$basic_istream@_WU?$char_traits@_W@std@@@0@AAV10@AAV?$basic_string@_WU?$char_traits@_W@std@@V?$allocator@_W@2@@0@_W@Z
_TEXT	SEGMENT PARA USE32 PUBLIC 'CODE'
_TEXT	ENDS
;	COMDAT ??0sentry@?$basic_istream@_WU?$char_traits@_W@std@@@std@@QAE@AAV12@_N@Z
_TEXT	SEGMENT PARA USE32 PUBLIC 'CODE'
_TEXT	ENDS
;	COMDAT ??0_Sentry_base@?$basic_istream@_WU?$char_traits@_W@std@@@std@@QAE@AAV12@@Z
_TEXT	SEGMENT PARA USE32 PUBLIC 'CODE'
_TEXT	ENDS
;	COMDAT ??1_Sentry_base@?$basic_istream@_WU?$char_traits@_W@std@@@std@@QAE@XZ
_TEXT	SEGMENT PARA USE32 PUBLIC 'CODE'
_TEXT	ENDS
;	COMDAT ??1sentry@?$basic_istream@_WU?$char_traits@_W@std@@@std@@QAE@XZ
_TEXT	SEGMENT PARA USE32 PUBLIC 'CODE'
_TEXT	ENDS
;	COMDAT ??Bsentry@?$basic_istream@_WU?$char_traits@_W@std@@@std@@QBE_NXZ
_TEXT	SEGMENT PARA USE32 PUBLIC 'CODE'
_TEXT	ENDS
;	COMDAT _wmemset
_TEXT	SEGMENT PARA USE32 PUBLIC 'CODE'
_TEXT	ENDS
;	COMDAT ?CreateFontIndirectA@CFont@@QAEHPBUtagLOGFONTA@@@Z
_TEXT	SEGMENT PARA USE32 PUBLIC 'CODE'
_TEXT	ENDS
;	COMDAT ??1CFont@@UAE@XZ
_TEXT	SEGMENT PARA USE32 PUBLIC 'CODE'
_TEXT	ENDS
;	COMDAT ??_7CFont@@6B@
CONST	SEGMENT DWORD USE32 PUBLIC 'CONST'
CONST	ENDS
;	COMDAT ??_R4CFont@@6B@
rdata$r	SEGMENT DWORD USE32 PUBLIC 'CONST'
rdata$r	ENDS
;	COMDAT ??_R0?AVCFont@@@8
_DATA	SEGMENT DWORD USE32 PUBLIC 'DATA'
_DATA	ENDS
;	COMDAT ??_R3CFont@@8
rdata$r	SEGMENT DWORD USE32 PUBLIC 'CONST'
rdata$r	ENDS
;	COMDAT ??_R2CFont@@8
rdata$r	SEGMENT DWORD USE32 PUBLIC 'CONST'
rdata$r	ENDS
;	COMDAT ??_R1A@?0A@A@CFont@@8
rdata$r	SEGMENT DWORD USE32 PUBLIC 'CONST'
rdata$r	ENDS
;	COMDAT ??_GCFont@@UAEPAXI@Z
_TEXT	SEGMENT PARA USE32 PUBLIC 'CODE'
_TEXT	ENDS
;	COMDAT ??0CFont@@QAE@XZ
_TEXT	SEGMENT PARA USE32 PUBLIC 'CODE'
_TEXT	ENDS
;	COMDAT ?GetClientRect@CWnd@@QBEXPAUtagRECT@@@Z
_TEXT	SEGMENT PARA USE32 PUBLIC 'CODE'
_TEXT	ENDS
;	COMDAT ?_messageEntries@CxStaticText@@0QBUAFX_MSGMAP_ENTRY@@B
CONST	SEGMENT DWORD USE32 PUBLIC 'CONST'
CONST	ENDS
;	COMDAT ?messageMap@CxStaticText@@1UAFX_MSGMAP@@B
CONST	SEGMENT DWORD USE32 PUBLIC 'CONST'
CONST	ENDS
;	COMDAT ??3CObject@@SGXPAX@Z
_TEXT	SEGMENT PARA USE32 PUBLIC 'CODE'
_TEXT	ENDS
;	COMDAT ?GetDefaultManager@?$StrTraitMFC_DLL@DV?$ChTraitsCRT@D@ATL@@@@SAPAUIAtlStringMgr@ATL@@XZ
_TEXT	SEGMENT PARA USE32 PUBLIC 'CODE'
_TEXT	ENDS
;	COMDAT ?FindStringResourceInstance@?$StrTraitMFC_DLL@DV?$ChTraitsCRT@D@ATL@@@@SAPAUHINSTANCE__@@I@Z
_TEXT	SEGMENT PARA USE32 PUBLIC 'CODE'
_TEXT	ENDS
;	COMDAT ?AtlGetStringResourceImage@ATL@@YAPBUATLSTRINGRESOURCEIMAGE@1@PAUHINSTANCE__@@I@Z
_TEXT	SEGMENT PARA USE32 PUBLIC 'CODE'
_TEXT	ENDS
;	COMDAT ?_AtlGetStringResourceImage@ATL@@YAPBUATLSTRINGRESOURCEIMAGE@1@PAUHINSTANCE__@@PAUHRSRC__@@I@Z
_TEXT	SEGMENT PARA USE32 PUBLIC 'CODE'
_TEXT	ENDS
;	COMDAT ?GetBaseTypeLength@?$ChTraitsCRT@D@ATL@@SAHPB_WH@Z
_TEXT	SEGMENT PARA USE32 PUBLIC 'CODE'
_TEXT	ENDS
;	COMDAT ?_AtlGetConversionACP@ATL@@YGIXZ
_TEXT	SEGMENT PARA USE32 PUBLIC 'CODE'
_TEXT	ENDS
;	COMDAT ?g_pfnGetThreadACP@ATL@@3P6GIXZA
_DATA	SEGMENT DWORD USE32 PUBLIC 'DATA'
_DATA	ENDS
;	COMDAT ?_AtlGetThreadACPThunk@ATL@@YGIXZ
_TEXT	SEGMENT PARA USE32 PUBLIC 'CODE'
_TEXT	ENDS
;	COMDAT ?_AtlGetThreadACPReal@ATL@@YGIXZ
_TEXT	SEGMENT PARA USE32 PUBLIC 'CODE'
_TEXT	ENDS
;	COMDAT ?_AtlGetThreadACPFake@ATL@@YGIXZ
_TEXT	SEGMENT PARA USE32 PUBLIC 'CODE'
_TEXT	ENDS
;	COMDAT ?InterlockedExchangePointer@@YGPAXPAPAXPAX@Z
_TEXT	SEGMENT PARA USE32 PUBLIC 'CODE'
_TEXT	ENDS
;	COMDAT ?ConvertToBaseType@?$ChTraitsCRT@D@ATL@@SAXPADHPB_WH@Z
_TEXT	SEGMENT PARA USE32 PUBLIC 'CODE'
_TEXT	ENDS
;	COMDAT ??_7CxStaticText@@6B@
CONST	SEGMENT DWORD USE32 PUBLIC 'CONST'
CONST	ENDS
;	COMDAT ??0CStatic@@QAE@XZ
_TEXT	SEGMENT PARA USE32 PUBLIC 'CODE'
_TEXT	ENDS
;	COMDAT ??_7CStatic@@6B@
CONST	SEGMENT DWORD USE32 PUBLIC 'CONST'
CONST	ENDS
;	COMDAT ??_R4CStatic@@6B@
rdata$r	SEGMENT DWORD USE32 PUBLIC 'CONST'
rdata$r	ENDS
;	COMDAT ??_R3CStatic@@8
rdata$r	SEGMENT DWORD USE32 PUBLIC 'CONST'
rdata$r	ENDS
;	COMDAT ??_R2CStatic@@8
rdata$r	SEGMENT DWORD USE32 PUBLIC 'CONST'
rdata$r	ENDS
;	COMDAT ??_GCStatic@@UAEPAXI@Z
_TEXT	SEGMENT PARA USE32 PUBLIC 'CODE'
_TEXT	ENDS
sxdata	SEGMENT DWORD USE32 'SXDATA'
sxdata	ENDS
FLAT	GROUP _DATA, CONST, _BSS
	ASSUME	CS: FLAT, DS: FLAT, SS: FLAT
endif

INCLUDELIB MSVCRT
INCLUDELIB OLDNAMES

PUBLIC	?g_pfnGetThreadACP@ATL@@3P6GIXZA		; ATL::g_pfnGetThreadACP
PUBLIC	?_AtlGetThreadACPThunk@ATL@@YGIXZ		; ATL::_AtlGetThreadACPThunk
PUBLIC	?OnPaint@CxStaticText@@IAEXXZ			; CxStaticText::OnPaint
PUBLIC	?OnEnable@CxStaticText@@IAEXH@Z			; CxStaticText::OnEnable
PUBLIC	?OnTimer@CxStaticText@@IAEXI@Z			; CxStaticText::OnTimer
PUBLIC	?OnMouseMove@CxStaticText@@IAEXIVCPoint@@@Z	; CxStaticText::OnMouseMove
PUBLIC	?_messageEntries@CxStaticText@@0QBUAFX_MSGMAP_ENTRY@@B ; CxStaticText::_messageEntries
PUBLIC	?messageMap@CxStaticText@@1UAFX_MSGMAP@@B	; CxStaticText::messageMap
PUBLIC	?OnStnClicked@CxStaticText@@QAEXXZ		; CxStaticText::OnStnClicked
EXTRN	?GetThisMessageMap@CWnd@@KGPBUAFX_MSGMAP@@XZ:NEAR ; CWnd::GetThisMessageMap
CONST	SEGMENT
$SG197875 DB	00H
	ORG $+3
$SG197876 DB	'Arial', 00H
CONST	ENDS
;	COMDAT ?_messageEntries@CxStaticText@@0QBUAFX_MSGMAP_ENTRY@@B
CONST	SEGMENT
?_messageEntries@CxStaticText@@0QBUAFX_MSGMAP_ENTRY@@B DD 0fH ; CxStaticText::_messageEntries
	DD	00H
	DD	00H
	DD	00H
	DD	010H
	DD	FLAT:?OnPaint@CxStaticText@@IAEXXZ
	DD	0aH
	DD	00H
	DD	00H
	DD	00H
	DD	011H
	DD	FLAT:?OnEnable@CxStaticText@@IAEXH@Z
	DD	0113H
	DD	00H
	DD	00H
	DD	00H
	DD	011H
	DD	FLAT:?OnTimer@CxStaticText@@IAEXI@Z
	DD	0200H
	DD	00H
	DD	00H
	DD	00H
	DD	032H
	DD	FLAT:?OnMouseMove@CxStaticText@@IAEXIVCPoint@@@Z
	DD	0bd11H
	DD	00H
	DD	00H
	DD	00H
	DD	035H
	DD	FLAT:?OnStnClicked@CxStaticText@@QAEXXZ
	DD	00H
	DD	00H
	DD	00H
	DD	00H
	DD	00H
	DD	00H
CONST	ENDS
;	COMDAT ?messageMap@CxStaticText@@1UAFX_MSGMAP@@B
CONST	SEGMENT
?messageMap@CxStaticText@@1UAFX_MSGMAP@@B DD FLAT:?GetThisMessageMap@CWnd@@KGPBUAFX_MSGMAP@@XZ ; CxStaticText::messageMap
	DD	FLAT:?_messageEntries@CxStaticText@@0QBUAFX_MSGMAP_ENTRY@@B
CONST	ENDS
CONST	SEGMENT
	ORG $+2
$SG197931 DB	',', 00H, '.', 00H, '''', 00H, '"', 00H, '?', 00H, '!', 00H
	DB	'.', 00H, 0cH, 0ffH, 02H, '0', 01cH, ' ', 01dH, ' ', 01fH, 0ffH
	DB	01H, 0ffH, ')', 00H, 09H, 0ffH, 011H, '0]', 00H, ';', 00H, 01bH
	DB	0ffH, 01H, '0', 01aH, 0ffH, ':', 00H, 00H, 00H
	ORG $+2
$SG197992 DB	'.', 00H, '.', 00H, '.', 00H, 00H, 00H
$SG198262 DB	' ', 00H
CONST	ENDS
;	COMDAT ?g_pfnGetThreadACP@ATL@@3P6GIXZA
_DATA	SEGMENT
?g_pfnGetThreadACP@ATL@@3P6GIXZA DD FLAT:?_AtlGetThreadACPThunk@ATL@@YGIXZ ; ATL::g_pfnGetThreadACP
_DATA	ENDS
PUBLIC	??_R4CxStaticText@@6B@				; CxStaticText::`RTTI Complete Object Locator'
PUBLIC	??_R0?AVCxStaticText@@@8			; CxStaticText `RTTI Type Descriptor'
PUBLIC	??_R3CxStaticText@@8				; CxStaticText::`RTTI Class Hierarchy Descriptor'
PUBLIC	??_R1A@?0A@A@CObject@@8				; CObject::`RTTI Base Class Descriptor at (0,-1,0,0)'
PUBLIC	??_R2CxStaticText@@8				; CxStaticText::`RTTI Base Class Array'
PUBLIC	??_R1A@?0A@A@CxStaticText@@8			; CxStaticText::`RTTI Base Class Descriptor at (0,-1,0,0)'
PUBLIC	??_R0?AVCObject@@@8				; CObject `RTTI Type Descriptor'
PUBLIC	??0CStatic@@QAE@XZ				; CStatic::CStatic
PUBLIC	??_R1A@?0A@A@CWnd@@8				; CWnd::`RTTI Base Class Descriptor at (0,-1,0,0)'
PUBLIC	??_R0?AVCWnd@@@8				; CWnd `RTTI Type Descriptor'
PUBLIC	??_R1A@?0A@A@CCmdTarget@@8			; CCmdTarget::`RTTI Base Class Descriptor at (0,-1,0,0)'
PUBLIC	??_R0?AVCCmdTarget@@@8				; CCmdTarget `RTTI Type Descriptor'
PUBLIC	?Serialize@CObject@@UAEXAAVCArchive@@@Z		; CObject::Serialize
PUBLIC	?AssertValid@CObject@@UBEXXZ			; CObject::AssertValid
PUBLIC	?Dump@CObject@@UBEXAAVCDumpContext@@@Z		; CObject::Dump
PUBLIC	??_R0?AVCStatic@@@8				; CStatic `RTTI Type Descriptor'
PUBLIC	??_R1A@?0A@A@CStatic@@8				; CStatic::`RTTI Base Class Descriptor at (0,-1,0,0)'
PUBLIC	??0CxStaticText@@QAE@XZ				; CxStaticText::CxStaticText
PUBLIC	?PreSubclassWindow@CxStaticText@@MAEXXZ		; CxStaticText::PreSubclassWindow
PUBLIC	?GetMessageMap@CxStaticText@@MBEPBUAFX_MSGMAP@@XZ ; CxStaticText::GetMessageMap
PUBLIC	??_7CxStaticText@@6B@				; CxStaticText::`vftable'
PUBLIC	??_GCxStaticText@@UAEPAXI@Z			; CxStaticText::`scalar deleting destructor'
PUBLIC	?DoDataExchange@CWnd@@MAEXPAVCDataExchange@@@Z	; CWnd::DoDataExchange
PUBLIC	?BeginModalState@CWnd@@UAEXXZ			; CWnd::BeginModalState
PUBLIC	?EndModalState@CWnd@@UAEXXZ			; CWnd::EndModalState
EXTRN	?CreateControlContainer@CWnd@@MAEHPAPAVCOleControlContainer@@@Z:NEAR ; CWnd::CreateControlContainer
EXTRN	?CreateControlSite@CWnd@@MAEHPAVCOleControlContainer@@PAPAVCOleControlSite@@IABU_GUID@@@Z:NEAR ; CWnd::CreateControlSite
EXTRN	?SetOccDialogInfo@CWnd@@MAEHPAU_AFX_OCC_DIALOG_INFO@@@Z:NEAR ; CWnd::SetOccDialogInfo
EXTRN	?OnToolHitTest@CWnd@@UBEHVCPoint@@PAUtagTOOLINFOA@@@Z:NEAR ; CWnd::OnToolHitTest
EXTRN	__imp_??0?$CStringT@DV?$StrTraitMFC_DLL@DV?$ChTraitsCRT@D@ATL@@@@@ATL@@QAE@XZ:NEAR
EXTRN	__imp_??0?$CStringT@DV?$StrTraitMFC_DLL@DV?$ChTraitsCRT@D@ATL@@@@@ATL@@QAE@PBD@Z:NEAR
EXTRN	?GetRuntimeClass@CStatic@@UBEPAUCRuntimeClass@@XZ:NEAR ; CStatic::GetRuntimeClass
EXTRN	?Create@CStatic@@UAEHPBDKABUtagRECT@@PAVCWnd@@I@Z:NEAR ; CStatic::Create
EXTRN	?GetScrollBarCtrl@CWnd@@UBEPAVCScrollBar@@H@Z:NEAR ; CWnd::GetScrollBarCtrl
EXTRN	?DrawItem@CStatic@@UAEXPAUtagDRAWITEMSTRUCT@@@Z:NEAR ; CStatic::DrawItem
EXTRN	??1CStatic@@UAE@XZ:NEAR				; CStatic::~CStatic
EXTRN	__imp_??1?$CStringT@DV?$StrTraitMFC_DLL@DV?$ChTraitsCRT@D@ATL@@@@@ATL@@QAE@XZ:NEAR
EXTRN	?OnChildNotify@CStatic@@MAEHIIJPAJ@Z:NEAR	; CStatic::OnChildNotify
EXTRN	__imp_??4?$CStringT@DV?$StrTraitMFC_DLL@DV?$ChTraitsCRT@D@ATL@@@@@ATL@@QAEAAV01@PBD@Z:NEAR
EXTRN	?WinHelpA@CWnd@@UAEXKI@Z:NEAR			; CWnd::WinHelpA
EXTRN	?HtmlHelpA@CWnd@@UAEXKI@Z:NEAR			; CWnd::HtmlHelpA
EXTRN	?WinHelpInternal@CWnd@@UAEXKI@Z:NEAR		; CWnd::WinHelpInternal
EXTRN	?ContinueModal@CWnd@@UAEHXZ:NEAR		; CWnd::ContinueModal
EXTRN	?EndModalLoop@CWnd@@UAEXH@Z:NEAR		; CWnd::EndModalLoop
EXTRN	?GetInterfaceMap@CWnd@@MBEPBUAFX_INTERFACEMAP@@XZ:NEAR ; CWnd::GetInterfaceMap
EXTRN	?EnsureStdObj@CWnd@@UAEJXZ:NEAR			; CWnd::EnsureStdObj
EXTRN	?get_accParent@CWnd@@UAEJPAPAUIDispatch@@@Z:NEAR ; CWnd::get_accParent
EXTRN	?get_accChildCount@CWnd@@UAEJPAJ@Z:NEAR		; CWnd::get_accChildCount
EXTRN	?OnCmdMsg@CCmdTarget@@UAEHIHPAXPAUAFX_CMDHANDLERINFO@@@Z:NEAR ; CCmdTarget::OnCmdMsg
EXTRN	?get_accChild@CWnd@@UAEJUtagVARIANT@@PAPAUIDispatch@@@Z:NEAR ; CWnd::get_accChild
EXTRN	?IsInvokeAllowed@CCmdTarget@@UAEHJ@Z:NEAR	; CCmdTarget::IsInvokeAllowed
EXTRN	?get_accName@CWnd@@UAEJUtagVARIANT@@PAPA_W@Z:NEAR ; CWnd::get_accName
EXTRN	?get_accValue@CWnd@@UAEJUtagVARIANT@@PAPA_W@Z:NEAR ; CWnd::get_accValue
EXTRN	?get_accDescription@CWnd@@UAEJUtagVARIANT@@PAPA_W@Z:NEAR ; CWnd::get_accDescription
EXTRN	?GetDispatchIID@CCmdTarget@@UAEHPAU_GUID@@@Z:NEAR ; CCmdTarget::GetDispatchIID
EXTRN	?GetTypeInfoCount@CCmdTarget@@UAEIXZ:NEAR	; CCmdTarget::GetTypeInfoCount
EXTRN	?GetTypeLibCache@CCmdTarget@@UAEPAVCTypeLibCache@@XZ:NEAR ; CCmdTarget::GetTypeLibCache
EXTRN	?get_accRole@CWnd@@UAEJUtagVARIANT@@PAU2@@Z:NEAR ; CWnd::get_accRole
EXTRN	?GetTypeLib@CCmdTarget@@UAEJKPAPAUITypeLib@@@Z:NEAR ; CCmdTarget::GetTypeLib
EXTRN	?get_accState@CWnd@@UAEJUtagVARIANT@@PAU2@@Z:NEAR ; CWnd::get_accState
EXTRN	?get_accHelp@CWnd@@UAEJUtagVARIANT@@PAPA_W@Z:NEAR ; CWnd::get_accHelp
EXTRN	?get_accHelpTopic@CWnd@@UAEJPAPA_WUtagVARIANT@@PAJ@Z:NEAR ; CWnd::get_accHelpTopic
EXTRN	?get_accKeyboardShortcut@CWnd@@UAEJUtagVARIANT@@PAPA_W@Z:NEAR ; CWnd::get_accKeyboardShortcut
EXTRN	?get_accFocus@CWnd@@UAEJPAUtagVARIANT@@@Z:NEAR	; CWnd::get_accFocus
EXTRN	?get_accSelection@CWnd@@UAEJPAUtagVARIANT@@@Z:NEAR ; CWnd::get_accSelection
EXTRN	?get_accDefaultAction@CWnd@@UAEJUtagVARIANT@@PAPA_W@Z:NEAR ; CWnd::get_accDefaultAction
EXTRN	?GetCommandMap@CCmdTarget@@MBEPBUAFX_OLECMDMAP@@XZ:NEAR ; CCmdTarget::GetCommandMap
EXTRN	?accSelect@CWnd@@UAEJJUtagVARIANT@@@Z:NEAR	; CWnd::accSelect
EXTRN	?accLocation@CWnd@@UAEJPAJ000UtagVARIANT@@@Z:NEAR ; CWnd::accLocation
EXTRN	?GetDispatchMap@CCmdTarget@@MBEPBUAFX_DISPMAP@@XZ:NEAR ; CCmdTarget::GetDispatchMap
EXTRN	?accNavigate@CWnd@@UAEJJUtagVARIANT@@PAU2@@Z:NEAR ; CWnd::accNavigate
EXTRN	?accHitTest@CWnd@@UAEJJJPAUtagVARIANT@@@Z:NEAR	; CWnd::accHitTest
EXTRN	?GetConnectionMap@CCmdTarget@@MBEPBUAFX_CONNECTIONMAP@@XZ:NEAR ; CCmdTarget::GetConnectionMap
EXTRN	?accDoDefaultAction@CWnd@@UAEJUtagVARIANT@@@Z:NEAR ; CWnd::accDoDefaultAction
EXTRN	?put_accName@CWnd@@UAEJUtagVARIANT@@PA_W@Z:NEAR	; CWnd::put_accName
EXTRN	?put_accValue@CWnd@@UAEJUtagVARIANT@@PA_W@Z:NEAR ; CWnd::put_accValue
EXTRN	?SetProxy@CWnd@@UAEJPAUIAccessibleProxy@@@Z:NEAR ; CWnd::SetProxy
EXTRN	?CreateAccessibleProxy@CWnd@@UAEJIJPAJ@Z:NEAR	; CWnd::CreateAccessibleProxy
EXTRN	?GetEventSinkMap@CCmdTarget@@MBEPBUAFX_EVENTSINKMAP@@XZ:NEAR ; CCmdTarget::GetEventSinkMap
EXTRN	?OnCreateAggregates@CCmdTarget@@UAEHXZ:NEAR	; CCmdTarget::OnCreateAggregates
EXTRN	?OnCommand@CWnd@@MAEHIJ@Z:NEAR			; CWnd::OnCommand
EXTRN	?GetInterfaceHook@CCmdTarget@@UAEPAUIUnknown@@PBX@Z:NEAR ; CCmdTarget::GetInterfaceHook
EXTRN	?OnNotify@CWnd@@MAEHIJPAJ@Z:NEAR		; CWnd::OnNotify
EXTRN	__imp__GetSysColor@4:NEAR
EXTRN	?GetExtraConnectionPoints@CCmdTarget@@MAEHPAVCPtrArray@@@Z:NEAR ; CCmdTarget::GetExtraConnectionPoints
EXTRN	?GetConnectionHook@CCmdTarget@@MAEPAUIConnectionPoint@@ABU_GUID@@@Z:NEAR ; CCmdTarget::GetConnectionHook
EXTRN	__except_list:DWORD
EXTRN	___CxxFrameHandler:NEAR
EXTRN	??0CToolTipCtrl@@QAE@XZ:NEAR			; CToolTipCtrl::CToolTipCtrl
EXTRN	?Create@CWnd@@UAEHPBD0KABUtagRECT@@PAV1@IPAUCCreateContext@@@Z:NEAR ; CWnd::Create
EXTRN	??_ECxStaticText@@UAEPAXI@Z:NEAR		; CxStaticText::`vector deleting destructor'
EXTRN	?CreateEx@CWnd@@UAEHKPBD0KHHHHPAUHWND__@@PAUHMENU__@@PAX@Z:NEAR ; CWnd::CreateEx
EXTRN	?CreateEx@CWnd@@UAEHKPBD0KABUtagRECT@@PAV1@IPAX@Z:NEAR ; CWnd::CreateEx
EXTRN	__imp__LoadCursorA@8:NEAR
EXTRN	?DestroyWindow@CWnd@@UAEHXZ:NEAR		; CWnd::DestroyWindow
EXTRN	?PreCreateWindow@CWnd@@UAEHAAUtagCREATESTRUCTA@@@Z:NEAR ; CWnd::PreCreateWindow
EXTRN	?CalcWindowRect@CWnd@@UAEXPAUtagRECT@@I@Z:NEAR	; CWnd::CalcWindowRect
EXTRN	??1CToolTipCtrl@@UAE@XZ:NEAR			; CToolTipCtrl::~CToolTipCtrl
EXTRN	?GetSuperWndProcAddr@CWnd@@MAEPAP6GJPAUHWND__@@IIJ@ZXZ:NEAR ; CWnd::GetSuperWndProcAddr
EXTRN	??_7type_info@@6B@:QWORD			; type_info::`vftable'
EXTRN	?PreTranslateMessage@CWnd@@UAEHPAUtagMSG@@@Z:NEAR ; CWnd::PreTranslateMessage
EXTRN	?OnAmbientProperty@CWnd@@UAEHPAVCOleControlSite@@JPAUtagVARIANT@@@Z:NEAR ; CWnd::OnAmbientProperty
EXTRN	?WindowProc@CWnd@@MAEJIIJ@Z:NEAR		; CWnd::WindowProc
EXTRN	?OnWndMsg@CWnd@@MAEHIIJPAJ@Z:NEAR		; CWnd::OnWndMsg
EXTRN	?DefWindowProcA@CWnd@@MAEJIIJ@Z:NEAR		; CWnd::DefWindowProcA
EXTRN	?PostNcDestroy@CWnd@@MAEXXZ:NEAR		; CWnd::PostNcDestroy
EXTRN	?CheckAutoCenter@CWnd@@UAEHXZ:NEAR		; CWnd::CheckAutoCenter
EXTRN	?IsFrameWnd@CWnd@@UBEHXZ:NEAR			; CWnd::IsFrameWnd
EXTRN	?OnFinalRelease@CWnd@@UAEXXZ:NEAR		; CWnd::OnFinalRelease
xdata$x	SEGMENT
$T199475 DD	0ffffffffH
	DD	FLAT:$L199464
	DD	00H
	DD	FLAT:$L199465
	DD	01H
	DD	FLAT:$L199466
	DD	02H
	DD	FLAT:$L199467
	DD	03H
	DD	FLAT:$L199468
$T199472 DD	019930520H
	DD	05H
	DD	FLAT:$T199475
	DD	2 DUP(00H)
	DD	2 DUP(00H)
xdata$x	ENDS
;	COMDAT ??_7CxStaticText@@6B@
; File d:\boxgit\playbox\playbox\dev\prj\playbox\src\gui\commoncontrol\xstatictext.cpp
CONST	SEGMENT
??_7CxStaticText@@6B@ DD FLAT:??_R4CxStaticText@@6B@	; CxStaticText::`vftable'
	DD	FLAT:?GetRuntimeClass@CStatic@@UBEPAUCRuntimeClass@@XZ
	DD	FLAT:??_ECxStaticText@@UAEPAXI@Z
	DD	FLAT:?Serialize@CObject@@UAEXAAVCArchive@@@Z
	DD	FLAT:?AssertValid@CObject@@UBEXXZ
	DD	FLAT:?Dump@CObject@@UBEXAAVCDumpContext@@@Z
	DD	FLAT:?OnCmdMsg@CCmdTarget@@UAEHIHPAXPAUAFX_CMDHANDLERINFO@@@Z
	DD	FLAT:?OnFinalRelease@CWnd@@UAEXXZ
	DD	FLAT:?IsInvokeAllowed@CCmdTarget@@UAEHJ@Z
	DD	FLAT:?GetDispatchIID@CCmdTarget@@UAEHPAU_GUID@@@Z
	DD	FLAT:?GetTypeInfoCount@CCmdTarget@@UAEIXZ
	DD	FLAT:?GetTypeLibCache@CCmdTarget@@UAEPAVCTypeLibCache@@XZ
	DD	FLAT:?GetTypeLib@CCmdTarget@@UAEJKPAPAUITypeLib@@@Z
	DD	FLAT:?GetMessageMap@CxStaticText@@MBEPBUAFX_MSGMAP@@XZ
	DD	FLAT:?GetCommandMap@CCmdTarget@@MBEPBUAFX_OLECMDMAP@@XZ
	DD	FLAT:?GetDispatchMap@CCmdTarget@@MBEPBUAFX_DISPMAP@@XZ
	DD	FLAT:?GetConnectionMap@CCmdTarget@@MBEPBUAFX_CONNECTIONMAP@@XZ
	DD	FLAT:?GetInterfaceMap@CWnd@@MBEPBUAFX_INTERFACEMAP@@XZ
	DD	FLAT:?GetEventSinkMap@CCmdTarget@@MBEPBUAFX_EVENTSINKMAP@@XZ
	DD	FLAT:?OnCreateAggregates@CCmdTarget@@UAEHXZ
	DD	FLAT:?GetInterfaceHook@CCmdTarget@@UAEPAUIUnknown@@PBX@Z
	DD	FLAT:?GetExtraConnectionPoints@CCmdTarget@@MAEHPAVCPtrArray@@@Z
	DD	FLAT:?GetConnectionHook@CCmdTarget@@MAEPAUIConnectionPoint@@ABU_GUID@@@Z
	DD	FLAT:?PreSubclassWindow@CxStaticText@@MAEXXZ
	DD	FLAT:?Create@CWnd@@UAEHPBD0KABUtagRECT@@PAV1@IPAUCCreateContext@@@Z
	DD	FLAT:?CreateEx@CWnd@@UAEHKPBD0KABUtagRECT@@PAV1@IPAX@Z
	DD	FLAT:?CreateEx@CWnd@@UAEHKPBD0KHHHHPAUHWND__@@PAUHMENU__@@PAX@Z
	DD	FLAT:?DestroyWindow@CWnd@@UAEHXZ
	DD	FLAT:?PreCreateWindow@CWnd@@UAEHAAUtagCREATESTRUCTA@@@Z
	DD	FLAT:?CalcWindowRect@CWnd@@UAEXPAUtagRECT@@I@Z
	DD	FLAT:?OnToolHitTest@CWnd@@UBEHVCPoint@@PAUtagTOOLINFOA@@@Z
	DD	FLAT:?GetScrollBarCtrl@CWnd@@UBEPAVCScrollBar@@H@Z
	DD	FLAT:?WinHelpA@CWnd@@UAEXKI@Z
	DD	FLAT:?HtmlHelpA@CWnd@@UAEXKI@Z
	DD	FLAT:?WinHelpInternal@CWnd@@UAEXKI@Z
	DD	FLAT:?ContinueModal@CWnd@@UAEHXZ
	DD	FLAT:?EndModalLoop@CWnd@@UAEXH@Z
	DD	FLAT:?EnsureStdObj@CWnd@@UAEJXZ
	DD	FLAT:?get_accParent@CWnd@@UAEJPAPAUIDispatch@@@Z
	DD	FLAT:?get_accChildCount@CWnd@@UAEJPAJ@Z
	DD	FLAT:?get_accChild@CWnd@@UAEJUtagVARIANT@@PAPAUIDispatch@@@Z
	DD	FLAT:?get_accName@CWnd@@UAEJUtagVARIANT@@PAPA_W@Z
	DD	FLAT:?get_accValue@CWnd@@UAEJUtagVARIANT@@PAPA_W@Z
	DD	FLAT:?get_accDescription@CWnd@@UAEJUtagVARIANT@@PAPA_W@Z
	DD	FLAT:?get_accRole@CWnd@@UAEJUtagVARIANT@@PAU2@@Z
	DD	FLAT:?get_accState@CWnd@@UAEJUtagVARIANT@@PAU2@@Z
	DD	FLAT:?get_accHelp@CWnd@@UAEJUtagVARIANT@@PAPA_W@Z
	DD	FLAT:?get_accHelpTopic@CWnd@@UAEJPAPA_WUtagVARIANT@@PAJ@Z
	DD	FLAT:?get_accKeyboardShortcut@CWnd@@UAEJUtagVARIANT@@PAPA_W@Z
	DD	FLAT:?get_accFocus@CWnd@@UAEJPAUtagVARIANT@@@Z
	DD	FLAT:?get_accSelection@CWnd@@UAEJPAUtagVARIANT@@@Z
	DD	FLAT:?get_accDefaultAction@CWnd@@UAEJUtagVARIANT@@PAPA_W@Z
	DD	FLAT:?accSelect@CWnd@@UAEJJUtagVARIANT@@@Z
	DD	FLAT:?accLocation@CWnd@@UAEJPAJ000UtagVARIANT@@@Z
	DD	FLAT:?accNavigate@CWnd@@UAEJJUtagVARIANT@@PAU2@@Z
	DD	FLAT:?accHitTest@CWnd@@UAEJJJPAUtagVARIANT@@@Z
	DD	FLAT:?accDoDefaultAction@CWnd@@UAEJUtagVARIANT@@@Z
	DD	FLAT:?put_accName@CWnd@@UAEJUtagVARIANT@@PA_W@Z
	DD	FLAT:?put_accValue@CWnd@@UAEJUtagVARIANT@@PA_W@Z
	DD	FLAT:?SetProxy@CWnd@@UAEJPAUIAccessibleProxy@@@Z
	DD	FLAT:?CreateAccessibleProxy@CWnd@@UAEJIJPAJ@Z
	DD	FLAT:?OnCommand@CWnd@@MAEHIJ@Z
	DD	FLAT:?OnNotify@CWnd@@MAEHIJPAJ@Z
	DD	FLAT:?GetSuperWndProcAddr@CWnd@@MAEPAP6GJPAUHWND__@@IIJ@ZXZ
	DD	FLAT:?DoDataExchange@CWnd@@MAEXPAVCDataExchange@@@Z
	DD	FLAT:?BeginModalState@CWnd@@UAEXXZ
	DD	FLAT:?EndModalState@CWnd@@UAEXXZ
	DD	FLAT:?PreTranslateMessage@CWnd@@UAEHPAUtagMSG@@@Z
	DD	FLAT:?OnAmbientProperty@CWnd@@UAEHPAVCOleControlSite@@JPAUtagVARIANT@@@Z
	DD	FLAT:?WindowProc@CWnd@@MAEJIIJ@Z
	DD	FLAT:?OnWndMsg@CWnd@@MAEHIIJPAJ@Z
	DD	FLAT:?DefWindowProcA@CWnd@@MAEJIIJ@Z
	DD	FLAT:?PostNcDestroy@CWnd@@MAEXXZ
	DD	FLAT:?OnChildNotify@CStatic@@MAEHIIJPAJ@Z
	DD	FLAT:?CheckAutoCenter@CWnd@@UAEHXZ
	DD	FLAT:?IsFrameWnd@CWnd@@UBEHXZ
	DD	FLAT:?CreateControlContainer@CWnd@@MAEHPAPAVCOleControlContainer@@@Z
	DD	FLAT:?CreateControlSite@CWnd@@MAEHPAVCOleControlContainer@@PAPAVCOleControlSite@@IABU_GUID@@@Z
	DD	FLAT:?SetOccDialogInfo@CWnd@@MAEHPAU_AFX_OCC_DIALOG_INFO@@@Z
	DD	FLAT:?Create@CStatic@@UAEHPBDKABUtagRECT@@PAVCWnd@@I@Z
	DD	FLAT:?DrawItem@CStatic@@UAEXPAUtagDRAWITEMSTRUCT@@@Z
CONST	ENDS
;	COMDAT ??_R4CxStaticText@@6B@
rdata$r	SEGMENT
??_R4CxStaticText@@6B@ DD 00H				; CxStaticText::`RTTI Complete Object Locator'
	DD	00H
	DD	00H
	DD	FLAT:??_R0?AVCxStaticText@@@8
	DD	FLAT:??_R3CxStaticText@@8
rdata$r	ENDS
;	COMDAT ??_R0?AVCxStaticText@@@8
_DATA	SEGMENT
??_R0?AVCxStaticText@@@8 DD FLAT:??_7type_info@@6B@	; CxStaticText `RTTI Type Descriptor'
	DD	00H
	DB	'.?AVCxStaticText@@', 00H
_DATA	ENDS
;	COMDAT ??_R3CxStaticText@@8
rdata$r	SEGMENT
??_R3CxStaticText@@8 DD 00H				; CxStaticText::`RTTI Class Hierarchy Descriptor'
	DD	00H
	DD	05H
	DD	FLAT:??_R2CxStaticText@@8
rdata$r	ENDS
;	COMDAT ??_R2CxStaticText@@8
rdata$r	SEGMENT
??_R2CxStaticText@@8 DD FLAT:??_R1A@?0A@A@CxStaticText@@8 ; CxStaticText::`RTTI Base Class Array'
	DD	FLAT:??_R1A@?0A@A@CStatic@@8
	DD	FLAT:??_R1A@?0A@A@CWnd@@8
	DD	FLAT:??_R1A@?0A@A@CCmdTarget@@8
	DD	FLAT:??_R1A@?0A@A@CObject@@8
rdata$r	ENDS
;	COMDAT ??_R1A@?0A@A@CxStaticText@@8
rdata$r	SEGMENT
??_R1A@?0A@A@CxStaticText@@8 DD FLAT:??_R0?AVCxStaticText@@@8 ; CxStaticText::`RTTI Base Class Descriptor at (0,-1,0,0)'
	DD	04H
	DD	00H
	DD	0ffffffffH
	DD	00H
	DD	00H
rdata$r	ENDS
;	COMDAT ??_R1A@?0A@A@CStatic@@8
rdata$r	SEGMENT
??_R1A@?0A@A@CStatic@@8 DD FLAT:??_R0?AVCStatic@@@8	; CStatic::`RTTI Base Class Descriptor at (0,-1,0,0)'
	DD	03H
	DD	00H
	DD	0ffffffffH
	DD	00H
	DD	00H
rdata$r	ENDS
;	COMDAT ??_R0?AVCStatic@@@8
_DATA	SEGMENT
??_R0?AVCStatic@@@8 DD FLAT:??_7type_info@@6B@		; CStatic `RTTI Type Descriptor'
	DD	00H
	DB	'.?AVCStatic@@', 00H
_DATA	ENDS
;	COMDAT ??_R1A@?0A@A@CWnd@@8
rdata$r	SEGMENT
??_R1A@?0A@A@CWnd@@8 DD FLAT:??_R0?AVCWnd@@@8		; CWnd::`RTTI Base Class Descriptor at (0,-1,0,0)'
	DD	02H
	DD	00H
	DD	0ffffffffH
	DD	00H
	DD	00H
rdata$r	ENDS
;	COMDAT ??_R0?AVCWnd@@@8
_DATA	SEGMENT
??_R0?AVCWnd@@@8 DD FLAT:??_7type_info@@6B@		; CWnd `RTTI Type Descriptor'
	DD	00H
	DB	'.?AVCWnd@@', 00H
_DATA	ENDS
;	COMDAT ??_R1A@?0A@A@CCmdTarget@@8
rdata$r	SEGMENT
??_R1A@?0A@A@CCmdTarget@@8 DD FLAT:??_R0?AVCCmdTarget@@@8 ; CCmdTarget::`RTTI Base Class Descriptor at (0,-1,0,0)'
	DD	01H
	DD	00H
	DD	0ffffffffH
	DD	00H
	DD	00H
rdata$r	ENDS
;	COMDAT ??_R0?AVCCmdTarget@@@8
_DATA	SEGMENT
??_R0?AVCCmdTarget@@@8 DD FLAT:??_7type_info@@6B@	; CCmdTarget `RTTI Type Descriptor'
	DD	00H
	DB	'.?AVCCmdTarget@@', 00H
_DATA	ENDS
;	COMDAT ??_R1A@?0A@A@CObject@@8
rdata$r	SEGMENT
??_R1A@?0A@A@CObject@@8 DD FLAT:??_R0?AVCObject@@@8	; CObject::`RTTI Base Class Descriptor at (0,-1,0,0)'
	DD	00H
	DD	00H
	DD	0ffffffffH
	DD	00H
	DD	00H
rdata$r	ENDS
;	COMDAT ??_R0?AVCObject@@@8
_DATA	SEGMENT
??_R0?AVCObject@@@8 DD FLAT:??_7type_info@@6B@		; CObject `RTTI Type Descriptor'
	DD	00H
	DB	'.?AVCObject@@', 00H
; Function compile flags: /Odt
_DATA	ENDS
_TEXT	SEGMENT
_this$ = -16						; size = 4
__$EHRec$ = -12						; size = 12
??0CxStaticText@@QAE@XZ PROC NEAR			; CxStaticText::CxStaticText
; _this$ = ecx

; 18   : {

  00000	55		 push	 ebp
  00001	8b ec		 mov	 ebp, esp
  00003	6a ff		 push	 -1
  00005	68 00 00 00 00	 push	 __ehhandler$??0CxStaticText@@QAE@XZ
  0000a	64 a1 00 00 00
	00		 mov	 eax, DWORD PTR fs:__except_list
  00010	50		 push	 eax
  00011	64 89 25 00 00
	00 00		 mov	 DWORD PTR fs:__except_list, esp
  00018	51		 push	 ecx
  00019	89 4d f0	 mov	 DWORD PTR _this$[ebp], ecx
  0001c	8b 4d f0	 mov	 ecx, DWORD PTR _this$[ebp]
  0001f	e8 00 00 00 00	 call	 ??0CStatic@@QAE@XZ	; CStatic::CStatic
  00024	c7 45 fc 00 00
	00 00		 mov	 DWORD PTR __$EHRec$[ebp+8], 0
  0002b	8b 45 f0	 mov	 eax, DWORD PTR _this$[ebp]
  0002e	c7 00 00 00 00
	00		 mov	 DWORD PTR [eax], OFFSET FLAT:??_7CxStaticText@@6B@
  00034	8b 4d f0	 mov	 ecx, DWORD PTR _this$[ebp]
  00037	83 c1 70	 add	 ecx, 112		; 00000070H
  0003a	ff 15 00 00 00
	00		 call	 DWORD PTR __imp_??0?$CStringT@DV?$StrTraitMFC_DLL@DV?$ChTraitsCRT@D@ATL@@@@@ATL@@QAE@XZ
  00040	c6 45 fc 01	 mov	 BYTE PTR __$EHRec$[ebp+8], 1
  00044	68 00 00 00 00	 push	 OFFSET FLAT:$SG197875
  00049	8b 4d f0	 mov	 ecx, DWORD PTR _this$[ebp]
  0004c	83 c1 78	 add	 ecx, 120		; 00000078H
  0004f	ff 15 00 00 00
	00		 call	 DWORD PTR __imp_??0?$CStringT@DV?$StrTraitMFC_DLL@DV?$ChTraitsCRT@D@ATL@@@@@ATL@@QAE@PBD@Z
  00055	c6 45 fc 02	 mov	 BYTE PTR __$EHRec$[ebp+8], 2
  00059	8b 4d f0	 mov	 ecx, DWORD PTR _this$[ebp]
  0005c	c6 41 7c 00	 mov	 BYTE PTR [ecx+124], 0
  00060	8b 4d f0	 mov	 ecx, DWORD PTR _this$[ebp]
  00063	81 c1 90 00 00
	00		 add	 ecx, 144		; 00000090H
  00069	e8 00 00 00 00	 call	 ??0CToolTipCtrl@@QAE@XZ	; CToolTipCtrl::CToolTipCtrl
  0006e	c6 45 fc 03	 mov	 BYTE PTR __$EHRec$[ebp+8], 3
  00072	8b 4d f0	 mov	 ecx, DWORD PTR _this$[ebp]
  00075	81 c1 00 01 00
	00		 add	 ecx, 256		; 00000100H
  0007b	ff 15 00 00 00
	00		 call	 DWORD PTR __imp_??0?$CStringT@DV?$StrTraitMFC_DLL@DV?$ChTraitsCRT@D@ATL@@@@@ATL@@QAE@XZ
  00081	c6 45 fc 04	 mov	 BYTE PTR __$EHRec$[ebp+8], 4

; 19   : 	m_ActualColor=m_TextColor=m_BackgroundColor=GetSysColor(COLOR_BTNTEXT); // default text color

  00085	6a 12		 push	 18			; 00000012H
  00087	ff 15 00 00 00
	00		 call	 DWORD PTR __imp__GetSysColor@4
  0008d	8b 55 f0	 mov	 edx, DWORD PTR _this$[ebp]
  00090	89 42 58	 mov	 DWORD PTR [edx+88], eax
  00093	8b 45 f0	 mov	 eax, DWORD PTR _this$[ebp]
  00096	8b 4d f0	 mov	 ecx, DWORD PTR _this$[ebp]
  00099	8b 51 58	 mov	 edx, DWORD PTR [ecx+88]
  0009c	89 50 60	 mov	 DWORD PTR [eax+96], edx
  0009f	8b 45 f0	 mov	 eax, DWORD PTR _this$[ebp]
  000a2	8b 4d f0	 mov	 ecx, DWORD PTR _this$[ebp]
  000a5	8b 51 60	 mov	 edx, DWORD PTR [ecx+96]
  000a8	89 50 64	 mov	 DWORD PTR [eax+100], edx

; 20   : 	m_BlinkColor=GetSysColor(COLOR_3DLIGHT);		// default blink text color

  000ab	6a 16		 push	 22			; 00000016H
  000ad	ff 15 00 00 00
	00		 call	 DWORD PTR __imp__GetSysColor@4
  000b3	8b 4d f0	 mov	 ecx, DWORD PTR _this$[ebp]
  000b6	89 41 5c	 mov	 DWORD PTR [ecx+92], eax

; 21   : 	m_TimerID=0;

  000b9	8b 55 f0	 mov	 edx, DWORD PTR _this$[ebp]
  000bc	c7 82 80 00 00
	00 00 00 00 00	 mov	 DWORD PTR [edx+128], 0

; 22   : 	m_BlinkCounter=-1;

  000c6	8b 45 f0	 mov	 eax, DWORD PTR _this$[ebp]
  000c9	c7 40 54 ff ff
	ff ff		 mov	 DWORD PTR [eax+84], -1

; 23   : 	//m_Style=SST_NORMAL;
; 24   : 	mpBmpNormal = NULL;

  000d0	8b 4d f0	 mov	 ecx, DWORD PTR _this$[ebp]
  000d3	c7 81 88 00 00
	00 00 00 00 00	 mov	 DWORD PTR [ecx+136], 0

; 25   : 	m_SingleLine = true;

  000dd	8b 55 f0	 mov	 edx, DWORD PTR _this$[ebp]
  000e0	c6 42 68 01	 mov	 BYTE PTR [edx+104], 1

; 26   : 	m_UnderLine = false;

  000e4	8b 45 f0	 mov	 eax, DWORD PTR _this$[ebp]
  000e7	c6 40 69 00	 mov	 BYTE PTR [eax+105], 0

; 27   : 	m_EnableClick = false;

  000eb	8b 4d f0	 mov	 ecx, DWORD PTR _this$[ebp]
  000ee	c6 41 6a 00	 mov	 BYTE PTR [ecx+106], 0

; 28   : 
; 29   : 	m_FontFace = "Arial";

  000f2	68 00 00 00 00	 push	 OFFSET FLAT:$SG197876
  000f7	8b 4d f0	 mov	 ecx, DWORD PTR _this$[ebp]
  000fa	83 c1 70	 add	 ecx, 112		; 00000070H
  000fd	ff 15 00 00 00
	00		 call	 DWORD PTR __imp_??4?$CStringT@DV?$StrTraitMFC_DLL@DV?$ChTraitsCRT@D@ATL@@@@@ATL@@QAEAAV01@PBD@Z

; 30   : 	m_FontSize = 12;

  00103	8b 55 f0	 mov	 edx, DWORD PTR _this$[ebp]
  00106	c7 42 74 0c 00
	00 00		 mov	 DWORD PTR [edx+116], 12	; 0000000cH

; 31   : 	m_hCurFinger = ::LoadCursor(NULL, IDC_HAND);

  0010d	68 89 7f 00 00	 push	 32649			; 00007f89H
  00112	6a 00		 push	 0
  00114	ff 15 00 00 00
	00		 call	 DWORD PTR __imp__LoadCursorA@8
  0011a	8b 4d f0	 mov	 ecx, DWORD PTR _this$[ebp]
  0011d	89 41 6c	 mov	 DWORD PTR [ecx+108], eax

; 32   : }

  00120	c7 45 fc ff ff
	ff ff		 mov	 DWORD PTR __$EHRec$[ebp+8], -1
  00127	8b 45 f0	 mov	 eax, DWORD PTR _this$[ebp]
  0012a	8b 4d f4	 mov	 ecx, DWORD PTR __$EHRec$[ebp]
  0012d	64 89 0d 00 00
	00 00		 mov	 DWORD PTR fs:__except_list, ecx
  00134	8b e5		 mov	 esp, ebp
  00136	5d		 pop	 ebp
  00137	c3		 ret	 0
_TEXT	ENDS
text$x	SEGMENT
$L199464:
  00000	8b 4d f0	 mov	 ecx, DWORD PTR _this$[ebp]
  00003	e9 00 00 00 00	 jmp	 ??1CStatic@@UAE@XZ	; CStatic::~CStatic
$L199465:
  00008	8b 4d f0	 mov	 ecx, DWORD PTR _this$[ebp]
  0000b	83 c1 70	 add	 ecx, 112		; 00000070H
  0000e	ff 25 00 00 00
	00		 jmp	 DWORD PTR __imp_??1?$CStringT@DV?$StrTraitMFC_DLL@DV?$ChTraitsCRT@D@ATL@@@@@ATL@@QAE@XZ
$L199466:
  00014	8b 4d f0	 mov	 ecx, DWORD PTR _this$[ebp]
  00017	83 c1 78	 add	 ecx, 120		; 00000078H
  0001a	ff 25 00 00 00
	00		 jmp	 DWORD PTR __imp_??1?$CStringT@DV?$StrTraitMFC_DLL@DV?$ChTraitsCRT@D@ATL@@@@@ATL@@QAE@XZ
$L199467:
  00020	8b 4d f0	 mov	 ecx, DWORD PTR _this$[ebp]
  00023	81 c1 90 00 00
	00		 add	 ecx, 144		; 00000090H
  00029	e9 00 00 00 00	 jmp	 ??1CToolTipCtrl@@UAE@XZ	; CToolTipCtrl::~CToolTipCtrl
$L199468:
  0002e	8b 4d f0	 mov	 ecx, DWORD PTR _this$[ebp]
  00031	81 c1 00 01 00
	00		 add	 ecx, 256		; 00000100H
  00037	ff 25 00 00 00
	00		 jmp	 DWORD PTR __imp_??1?$CStringT@DV?$StrTraitMFC_DLL@DV?$ChTraitsCRT@D@ATL@@@@@ATL@@QAE@XZ
__ehhandler$??0CxStaticText@@QAE@XZ:
  0003d	b8 00 00 00 00	 mov	 eax, OFFSET FLAT:$T199472
  00042	e9 00 00 00 00	 jmp	 ___CxxFrameHandler
text$x	ENDS
??0CxStaticText@@QAE@XZ ENDP				; CxStaticText::CxStaticText
PUBLIC	??3CObject@@SGXPAX@Z				; CObject::operator delete
PUBLIC	??1CxStaticText@@UAE@XZ				; CxStaticText::~CxStaticText
; Function compile flags: /Odt
;	COMDAT ??_GCxStaticText@@UAEPAXI@Z
_TEXT	SEGMENT
_this$ = -4						; size = 4
___flags$ = 8						; size = 4
??_GCxStaticText@@UAEPAXI@Z PROC NEAR			; CxStaticText::`scalar deleting destructor', COMDAT
; _this$ = ecx
  00000	55		 push	 ebp
  00001	8b ec		 mov	 ebp, esp
  00003	51		 push	 ecx
  00004	89 4d fc	 mov	 DWORD PTR _this$[ebp], ecx
  00007	8b 4d fc	 mov	 ecx, DWORD PTR _this$[ebp]
  0000a	e8 00 00 00 00	 call	 ??1CxStaticText@@UAE@XZ	; CxStaticText::~CxStaticText
  0000f	8b 45 08	 mov	 eax, DWORD PTR ___flags$[ebp]
  00012	83 e0 01	 and	 eax, 1
  00015	74 09		 je	 SHORT $L197883
  00017	8b 4d fc	 mov	 ecx, DWORD PTR _this$[ebp]
  0001a	51		 push	 ecx
  0001b	e8 00 00 00 00	 call	 ??3CObject@@SGXPAX@Z	; CObject::operator delete
$L197883:
  00020	8b 45 fc	 mov	 eax, DWORD PTR _this$[ebp]
  00023	8b e5		 mov	 esp, ebp
  00025	5d		 pop	 ebp
  00026	c2 04 00	 ret	 4
??_GCxStaticText@@UAEPAXI@Z ENDP			; CxStaticText::`scalar deleting destructor'
_TEXT	ENDS
xdata$x	SEGMENT
$T199488 DD	0ffffffffH
	DD	FLAT:$L199480
	DD	00H
	DD	FLAT:$L199481
	DD	01H
	DD	FLAT:$L199482
$T199486 DD	019930520H
	DD	03H
	DD	FLAT:$T199488
	DD	2 DUP(00H)
	DD	2 DUP(00H)
; Function compile flags: /Odt
xdata$x	ENDS
_TEXT	SEGMENT
_this$ = -16						; size = 4
__$EHRec$ = -12						; size = 12
??1CxStaticText@@UAE@XZ PROC NEAR			; CxStaticText::~CxStaticText
; _this$ = ecx

; 35   : {

  00140	55		 push	 ebp
  00141	8b ec		 mov	 ebp, esp
  00143	6a ff		 push	 -1
  00145	68 00 00 00 00	 push	 __ehhandler$??1CxStaticText@@UAE@XZ
  0014a	64 a1 00 00 00
	00		 mov	 eax, DWORD PTR fs:__except_list
  00150	50		 push	 eax
  00151	64 89 25 00 00
	00 00		 mov	 DWORD PTR fs:__except_list, esp
  00158	51		 push	 ecx
  00159	89 4d f0	 mov	 DWORD PTR _this$[ebp], ecx
  0015c	8b 45 f0	 mov	 eax, DWORD PTR _this$[ebp]
  0015f	c7 00 00 00 00
	00		 mov	 DWORD PTR [eax], OFFSET FLAT:??_7CxStaticText@@6B@
  00165	c7 45 fc 02 00
	00 00		 mov	 DWORD PTR __$EHRec$[ebp+8], 2

; 36   : }

  0016c	8b 4d f0	 mov	 ecx, DWORD PTR _this$[ebp]
  0016f	81 c1 00 01 00
	00		 add	 ecx, 256		; 00000100H
  00175	ff 15 00 00 00
	00		 call	 DWORD PTR __imp_??1?$CStringT@DV?$StrTraitMFC_DLL@DV?$ChTraitsCRT@D@ATL@@@@@ATL@@QAE@XZ
  0017b	8b 4d f0	 mov	 ecx, DWORD PTR _this$[ebp]
  0017e	81 c1 90 00 00
	00		 add	 ecx, 144		; 00000090H
  00184	e8 00 00 00 00	 call	 ??1CToolTipCtrl@@UAE@XZ	; CToolTipCtrl::~CToolTipCtrl
  00189	c6 45 fc 01	 mov	 BYTE PTR __$EHRec$[ebp+8], 1
  0018d	8b 4d f0	 mov	 ecx, DWORD PTR _this$[ebp]
  00190	83 c1 78	 add	 ecx, 120		; 00000078H
  00193	ff 15 00 00 00
	00		 call	 DWORD PTR __imp_??1?$CStringT@DV?$StrTraitMFC_DLL@DV?$ChTraitsCRT@D@ATL@@@@@ATL@@QAE@XZ
  00199	c6 45 fc 00	 mov	 BYTE PTR __$EHRec$[ebp+8], 0
  0019d	8b 4d f0	 mov	 ecx, DWORD PTR _this$[ebp]
  001a0	83 c1 70	 add	 ecx, 112		; 00000070H
  001a3	ff 15 00 00 00
	00		 call	 DWORD PTR __imp_??1?$CStringT@DV?$StrTraitMFC_DLL@DV?$ChTraitsCRT@D@ATL@@@@@ATL@@QAE@XZ
  001a9	c7 45 fc ff ff
	ff ff		 mov	 DWORD PTR __$EHRec$[ebp+8], -1
  001b0	8b 4d f0	 mov	 ecx, DWORD PTR _this$[ebp]
  001b3	e8 00 00 00 00	 call	 ??1CStatic@@UAE@XZ	; CStatic::~CStatic
  001b8	8b 4d f4	 mov	 ecx, DWORD PTR __$EHRec$[ebp]
  001bb	64 89 0d 00 00
	00 00		 mov	 DWORD PTR fs:__except_list, ecx
  001c2	8b e5		 mov	 esp, ebp
  001c4	5d		 pop	 ebp
  001c5	c3		 ret	 0
_TEXT	ENDS
text$x	SEGMENT
$L199480:
  00047	8b 4d f0	 mov	 ecx, DWORD PTR _this$[ebp]
  0004a	e9 00 00 00 00	 jmp	 ??1CStatic@@UAE@XZ	; CStatic::~CStatic
$L199481:
  0004f	8b 4d f0	 mov	 ecx, DWORD PTR _this$[ebp]
  00052	83 c1 70	 add	 ecx, 112		; 00000070H
  00055	ff 25 00 00 00
	00		 jmp	 DWORD PTR __imp_??1?$CStringT@DV?$StrTraitMFC_DLL@DV?$ChTraitsCRT@D@ATL@@@@@ATL@@QAE@XZ
$L199482:
  0005b	8b 4d f0	 mov	 ecx, DWORD PTR _this$[ebp]
  0005e	83 c1 78	 add	 ecx, 120		; 00000078H
  00061	ff 25 00 00 00
	00		 jmp	 DWORD PTR __imp_??1?$CStringT@DV?$StrTraitMFC_DLL@DV?$ChTraitsCRT@D@ATL@@@@@ATL@@QAE@XZ
__ehhandler$??1CxStaticText@@UAE@XZ:
  00067	b8 00 00 00 00	 mov	 eax, OFFSET FLAT:$T199486
  0006c	e9 00 00 00 00	 jmp	 ___CxxFrameHandler
text$x	ENDS
??1CxStaticText@@UAE@XZ ENDP				; CxStaticText::~CxStaticText
PUBLIC	?GetThisMessageMap@CxStaticText@@KGPBUAFX_MSGMAP@@XZ ; CxStaticText::GetThisMessageMap
; Function compile flags: /Odt
_TEXT	SEGMENT
?GetThisMessageMap@CxStaticText@@KGPBUAFX_MSGMAP@@XZ PROC NEAR ; CxStaticText::GetThisMessageMap

; 38   : BEGIN_MESSAGE_MAP(CxStaticText, CStatic)

  001d0	55		 push	 ebp
  001d1	8b ec		 mov	 ebp, esp
  001d3	b8 00 00 00 00	 mov	 eax, OFFSET FLAT:?messageMap@CxStaticText@@1UAFX_MSGMAP@@B ; CxStaticText::messageMap
  001d8	5d		 pop	 ebp
  001d9	c3		 ret	 0
?GetThisMessageMap@CxStaticText@@KGPBUAFX_MSGMAP@@XZ ENDP ; CxStaticText::GetThisMessageMap
; Function compile flags: /Odt
_this$ = -4						; size = 4
?GetMessageMap@CxStaticText@@MBEPBUAFX_MSGMAP@@XZ PROC NEAR ; CxStaticText::GetMessageMap
; _this$ = ecx

; 38   : BEGIN_MESSAGE_MAP(CxStaticText, CStatic)

  001e0	55		 push	 ebp
  001e1	8b ec		 mov	 ebp, esp
  001e3	51		 push	 ecx
  001e4	89 4d fc	 mov	 DWORD PTR _this$[ebp], ecx
  001e7	b8 00 00 00 00	 mov	 eax, OFFSET FLAT:?messageMap@CxStaticText@@1UAFX_MSGMAP@@B ; CxStaticText::messageMap
  001ec	8b e5		 mov	 esp, ebp
  001ee	5d		 pop	 ebp
  001ef	c3		 ret	 0
?GetMessageMap@CxStaticText@@MBEPBUAFX_MSGMAP@@XZ ENDP	; CxStaticText::GetMessageMap
_TEXT	ENDS
PUBLIC	?GetClientRect@CWnd@@QBEXPAUtagRECT@@@Z		; CWnd::GetClientRect
PUBLIC	??Diterator@?$basic_string@_WU?$char_traits@_W@std@@V?$allocator@_W@2@@std@@QBEAA_WXZ ; std::basic_string<wchar_t,std::char_traits<wchar_t>,std::allocator<wchar_t> >::iterator::operator*
PUBLIC	??Fiterator@?$basic_string@_WU?$char_traits@_W@std@@V?$allocator@_W@2@@std@@QAEAAV012@XZ ; std::basic_string<wchar_t,std::char_traits<wchar_t>,std::allocator<wchar_t> >::iterator::operator--
PUBLIC	??Giterator@?$basic_string@_WU?$char_traits@_W@std@@V?$allocator@_W@2@@std@@QBE?AV012@H@Z ; std::basic_string<wchar_t,std::char_traits<wchar_t>,std::allocator<wchar_t> >::iterator::operator-
PUBLIC	??0CFont@@QAE@XZ				; CFont::CFont
PUBLIC	?CreateFontIndirectA@CFont@@QAEHPBUtagLOGFONTA@@@Z ; CFont::CreateFontIndirectA
PUBLIC	?DrawBitmap@CxStaticText@@IAEXPAVCDC@@PAVCDibBitmap@@UtagRECT@@H@Z ; CxStaticText::DrawBitmap
PUBLIC	??1CFont@@UAE@XZ				; CFont::~CFont
PUBLIC	??$getline@_WU?$char_traits@_W@std@@V?$allocator@_W@2@@std@@YAAAV?$basic_istream@_WU?$char_traits@_W@std@@@0@AAV10@AAV?$basic_string@_WU?$char_traits@_W@std@@V?$allocator@_W@2@@0@_W@Z ; std::getline<wchar_t,std::char_traits<wchar_t>,std::allocator<wchar_t> >
EXTRN	__imp_??0?$basic_istringstream@_WU?$char_traits@_W@std@@V?$allocator@_W@2@@std@@QAE@ABV?$basic_string@_WU?$char_traits@_W@std@@V?$allocator@_W@2@@1@H@Z:NEAR
EXTRN	?SelectObject@CDC@@UAEPAVCFont@@PAV2@@Z:NEAR	; CDC::SelectObject
EXTRN	__imp_??_D?$basic_istringstream@_WU?$char_traits@_W@std@@V?$allocator@_W@2@@std@@QAEXXZ:NEAR
EXTRN	__imp_??B?$CSimpleStringT@D$00@ATL@@QBEPBDXZ:NEAR
EXTRN	?SetBkMode@CDC@@QAEHH@Z:NEAR			; CDC::SetBkMode
EXTRN	__imp_?GetLength@?$CSimpleStringT@D$00@ATL@@QBEHXZ:NEAR
EXTRN	?SetTextColor@CDC@@UAEKK@Z:NEAR			; CDC::SetTextColor
EXTRN	__imp__DrawTextW@20:NEAR
EXTRN	??_U@YAPAXI@Z:NEAR				; operator new[]
EXTRN	??_V@YAXPAX@Z:NEAR				; operator delete[]
EXTRN	__imp_??0?$basic_string@_WU?$char_traits@_W@std@@V?$allocator@_W@2@@std@@QAE@XZ:NEAR
EXTRN	__imp__MultiByteToWideChar@24:NEAR
EXTRN	__imp_??0?$basic_string@_WU?$char_traits@_W@std@@V?$allocator@_W@2@@std@@QAE@PB_W@Z:NEAR
EXTRN	__imp_??1?$basic_string@_WU?$char_traits@_W@std@@V?$allocator@_W@2@@std@@QAE@XZ:NEAR
EXTRN	__imp_?npos@?$basic_string@_WU?$char_traits@_W@std@@V?$allocator@_W@2@@std@@2IB:DWORD
EXTRN	__imp_??4?$basic_string@_WU?$char_traits@_W@std@@V?$allocator@_W@2@@std@@QAEAAV01@ABV01@@Z:NEAR
EXTRN	__imp_?erase@?$basic_string@_WU?$char_traits@_W@std@@V?$allocator@_W@2@@std@@QAE?AViterator@12@V312@@Z:NEAR
EXTRN	__imp_?replace@?$basic_string@_WU?$char_traits@_W@std@@V?$allocator@_W@2@@std@@QAEAAV12@Viterator@12@0PB_W@Z:NEAR
EXTRN	__imp_?end@?$basic_string@_WU?$char_traits@_W@std@@V?$allocator@_W@2@@std@@QAE?AViterator@12@XZ:NEAR
EXTRN	__imp_??A?$basic_string@_WU?$char_traits@_W@std@@V?$allocator@_W@2@@std@@QAEAA_WI@Z:NEAR
EXTRN	__imp_?c_str@?$basic_string@_WU?$char_traits@_W@std@@V?$allocator@_W@2@@std@@QBEPB_WXZ:NEAR
EXTRN	__imp_?size@?$basic_string@_WU?$char_traits@_W@std@@V?$allocator@_W@2@@std@@QBEIXZ:NEAR
EXTRN	__imp_?empty@?$basic_string@_WU?$char_traits@_W@std@@V?$allocator@_W@2@@std@@QBE_NXZ:NEAR
EXTRN	?DeleteObject@CGdiObject@@QAEHXZ:NEAR		; CGdiObject::DeleteObject
EXTRN	__imp_?find@?$basic_string@_WU?$char_traits@_W@std@@V?$allocator@_W@2@@std@@QBEI_WI@Z:NEAR
EXTRN	__imp__GetTextExtentPointW@16:NEAR
EXTRN	_memset:NEAR
EXTRN	_strcpy:NEAR
EXTRN	__imp_?substr@?$basic_string@_WU?$char_traits@_W@std@@V?$allocator@_W@2@@std@@QBE?AV12@II@Z:NEAR
EXTRN	?FillSolidRect@CDC@@QAEXPBUtagRECT@@K@Z:NEAR	; CDC::FillSolidRect
EXTRN	??0CPaintDC@@QAE@PAVCWnd@@@Z:NEAR		; CPaintDC::CPaintDC
EXTRN	??1CPaintDC@@UAE@XZ:NEAR			; CPaintDC::~CPaintDC
EXTRN	__ftol2:NEAR
EXTRN	___security_cookie:DWORD
EXTRN	@__security_check_cookie@4:NEAR
EXTRN	__fltused:NEAR
EXTRN	__imp_??Bios_base@std@@QBEPAXXZ:NEAR
EXTRN	__imp__wcslen:NEAR
xdata$x	SEGMENT
$T199532 DD	0ffffffffH
	DD	FLAT:$L199510
	DD	00H
	DD	FLAT:$L199511
	DD	01H
	DD	FLAT:$L199512
	DD	02H
	DD	FLAT:$L199513
	DD	03H
	DD	FLAT:$L199514
	DD	02H
	DD	FLAT:$L199514
	DD	05H
	DD	FLAT:$L199515
	DD	06H
	DD	FLAT:$L199516
	DD	07H
	DD	FLAT:$L199517
	DD	07H
	DD	FLAT:$L199518
	DD	07H
	DD	FLAT:$L199519
	DD	07H
	DD	FLAT:$L199520
	DD	07H
	DD	FLAT:$L199521
$T199523 DD	019930520H
	DD	0dH
	DD	FLAT:$T199532
	DD	2 DUP(00H)
	DD	2 DUP(00H)
; Function compile flags: /Odt
xdata$x	ENDS
_TEXT	SEGMENT
tv493 = -744						; size = 4
tv171 = -740						; size = 4
tv491 = -736						; size = 4
tv189 = -732						; size = 4
tv489 = -728						; size = 4
tv185 = -724						; size = 4
tv487 = -720						; size = 4
tv227 = -716						; size = 4
tv485 = -712						; size = 4
tv288 = -708						; size = 4
tv584 = -704						; size = 8
tv247 = -696						; size = 4
_this$ = -692						; size = 4
$T199509 = -688						; size = 4
$T199508 = -684						; size = 4
$T199507 = -680						; size = 4
$T199506 = -676						; size = 4
$T199505 = -672						; size = 28
$T199504 = -644						; size = 28
$T199503 = -616						; size = 28
$T199502 = -588						; size = 28
$T199501 = -560						; size = 28
$T199500 = -532						; size = 4
$T199499 = -528						; size = 4
$T199498 = -524						; size = 4
$T199495 = -520						; size = 4
$T199494 = -516						; size = 28
$T199493 = -488						; size = 4
_line_len$197957 = -484					; size = 4
_strOutput$197961 = -480				; size = 28
_temp$197981 = -452					; size = 4
_i$197962 = -448					; size = 4
_output_rect$197993 = -444				; size = 16
_line_spacing$197938 = -428				; size = 4
_out_line$197937 = -424					; size = 4
_iss$197934 = -420					; size = 132
_size$197941 = -280					; size = 8
_strline$197936 = -272					; size = 28
_text_width$197942 = -244				; size = 4
_wnd_width$197939 = -240				; size = 4
_line_num$197943 = -236					; size = 4
_wnd_height$197940 = -232				; size = 4
_oldFont$ = -228					; size = 4
_font$ = -224						; size = 8
_lf$ = -216						; size = 60
_nBufLen$ = -156					; size = 4
_wszWndText$ = -152					; size = 4
_dc$ = -148						; size = 84
_rect$ = -60						; size = 16
_wszPunctuation$ = -44					; size = 28
__$ArrayPad$ = -16					; size = 4
__$EHRec$ = -12						; size = 12
__$ReturnAddr$ = 4					; size = 4
?OnPaint@CxStaticText@@IAEXXZ PROC NEAR			; CxStaticText::OnPaint
; _this$ = ecx

; 49   : {

  001f0	55		 push	 ebp
  001f1	8b ec		 mov	 ebp, esp
  001f3	6a ff		 push	 -1
  001f5	68 00 00 00 00	 push	 __ehhandler$?OnPaint@CxStaticText@@IAEXXZ
  001fa	64 a1 00 00 00
	00		 mov	 eax, DWORD PTR fs:__except_list
  00200	50		 push	 eax
  00201	64 89 25 00 00
	00 00		 mov	 DWORD PTR fs:__except_list, esp
  00208	81 ec dc 02 00
	00		 sub	 esp, 732		; 000002dcH
  0020e	a1 00 00 00 00	 mov	 eax, DWORD PTR ___security_cookie
  00213	89 45 f0	 mov	 DWORD PTR __$ArrayPad$[ebp], eax
  00216	89 8d 4c fd ff
	ff		 mov	 DWORD PTR _this$[ebp], ecx

; 50   : 	CPaintDC dc(this);				// device context for painting

  0021c	8b 85 4c fd ff
	ff		 mov	 eax, DWORD PTR _this$[ebp]
  00222	50		 push	 eax
  00223	8d 8d 6c ff ff
	ff		 lea	 ecx, DWORD PTR _dc$[ebp]
  00229	e8 00 00 00 00	 call	 ??0CPaintDC@@QAE@PAVCWnd@@@Z ; CPaintDC::CPaintDC
  0022e	c7 45 fc 00 00
	00 00		 mov	 DWORD PTR __$EHRec$[ebp+8], 0

; 51   : 
; 52   : 	RECT rect;
; 53   : 	GetClientRect(&rect);			// get clip region

  00235	8d 4d c4	 lea	 ecx, DWORD PTR _rect$[ebp]
  00238	51		 push	 ecx
  00239	8b 8d 4c fd ff
	ff		 mov	 ecx, DWORD PTR _this$[ebp]
  0023f	e8 00 00 00 00	 call	 ?GetClientRect@CWnd@@QBEXPAUtagRECT@@@Z ; CWnd::GetClientRect

; 54   : 	dc.SetBkMode(TRANSPARENT);		// preserve background

  00244	6a 01		 push	 1
  00246	8d 8d 6c ff ff
	ff		 lea	 ecx, DWORD PTR _dc$[ebp]
  0024c	e8 00 00 00 00	 call	 ?SetBkMode@CDC@@QAEHH@Z	; CDC::SetBkMode

; 55   : 
; 56   : 	dc.FillSolidRect(&rect,m_BackgroundColor);	// update background color

  00251	8b 95 4c fd ff
	ff		 mov	 edx, DWORD PTR _this$[ebp]
  00257	8b 42 58	 mov	 eax, DWORD PTR [edx+88]
  0025a	50		 push	 eax
  0025b	8d 4d c4	 lea	 ecx, DWORD PTR _rect$[ebp]
  0025e	51		 push	 ecx
  0025f	8d 8d 6c ff ff
	ff		 lea	 ecx, DWORD PTR _dc$[ebp]
  00265	e8 00 00 00 00	 call	 ?FillSolidRect@CDC@@QAEXPBUtagRECT@@K@Z ; CDC::FillSolidRect

; 57   : 
; 58   : 	if (mpBmpNormal)				// draw background

  0026a	8b 95 4c fd ff
	ff		 mov	 edx, DWORD PTR _this$[ebp]
  00270	83 ba 88 00 00
	00 00		 cmp	 DWORD PTR [edx+136], 0
  00277	74 49		 je	 SHORT $L197917

; 59   : 	{
; 60   : 		DrawBitmap(&dc,mpBmpNormal,rect,m_DrawMode);

  00279	8b 85 4c fd ff
	ff		 mov	 eax, DWORD PTR _this$[ebp]
  0027f	0f bf 88 84 00
	00 00		 movsx	 ecx, WORD PTR [eax+132]
  00286	51		 push	 ecx
  00287	83 ec 10	 sub	 esp, 16			; 00000010H
  0028a	8b d4		 mov	 edx, esp
  0028c	8b 45 c4	 mov	 eax, DWORD PTR _rect$[ebp]
  0028f	89 02		 mov	 DWORD PTR [edx], eax
  00291	8b 4d c8	 mov	 ecx, DWORD PTR _rect$[ebp+4]
  00294	89 4a 04	 mov	 DWORD PTR [edx+4], ecx
  00297	8b 45 cc	 mov	 eax, DWORD PTR _rect$[ebp+8]
  0029a	89 42 08	 mov	 DWORD PTR [edx+8], eax
  0029d	8b 4d d0	 mov	 ecx, DWORD PTR _rect$[ebp+12]
  002a0	89 4a 0c	 mov	 DWORD PTR [edx+12], ecx
  002a3	8b 95 4c fd ff
	ff		 mov	 edx, DWORD PTR _this$[ebp]
  002a9	8b 82 88 00 00
	00		 mov	 eax, DWORD PTR [edx+136]
  002af	50		 push	 eax
  002b0	8d 8d 6c ff ff
	ff		 lea	 ecx, DWORD PTR _dc$[ebp]
  002b6	51		 push	 ecx
  002b7	8b 8d 4c fd ff
	ff		 mov	 ecx, DWORD PTR _this$[ebp]
  002bd	e8 00 00 00 00	 call	 ?DrawBitmap@CxStaticText@@IAEXPAVCDC@@PAVCDibBitmap@@UtagRECT@@H@Z ; CxStaticText::DrawBitmap
$L197917:

; 61   : 	}
; 62   : 
; 63   : 	int nBufLen = MultiByteToWideChar(CP_ACP, 0, m_strWindowText, -1, NULL, 0);

  002c2	6a 00		 push	 0
  002c4	6a 00		 push	 0
  002c6	6a ff		 push	 -1
  002c8	8b 8d 4c fd ff
	ff		 mov	 ecx, DWORD PTR _this$[ebp]
  002ce	83 c1 78	 add	 ecx, 120		; 00000078H
  002d1	ff 15 00 00 00
	00		 call	 DWORD PTR __imp_??B?$CSimpleStringT@D$00@ATL@@QBEPBDXZ
  002d7	50		 push	 eax
  002d8	6a 00		 push	 0
  002da	6a 00		 push	 0
  002dc	ff 15 00 00 00
	00		 call	 DWORD PTR __imp__MultiByteToWideChar@24
  002e2	89 85 64 ff ff
	ff		 mov	 DWORD PTR _nBufLen$[ebp], eax

; 64   : 	if(nBufLen <= 0)

  002e8	83 bd 64 ff ff
	ff 00		 cmp	 DWORD PTR _nBufLen$[ebp], 0
  002ef	7f 17		 jg	 SHORT $L197919

; 65   : 		return;

  002f1	c7 45 fc ff ff
	ff ff		 mov	 DWORD PTR __$EHRec$[ebp+8], -1
  002f8	8d 8d 6c ff ff
	ff		 lea	 ecx, DWORD PTR _dc$[ebp]
  002fe	e8 00 00 00 00	 call	 ??1CPaintDC@@UAE@XZ	; CPaintDC::~CPaintDC
  00303	e9 af 09 00 00	 jmp	 $L197914
$L197919:

; 66   : 	wchar_t * wszWndText = new wchar_t[nBufLen];

  00308	8b 95 64 ff ff
	ff		 mov	 edx, DWORD PTR _nBufLen$[ebp]
  0030e	d1 e2		 shl	 edx, 1
  00310	52		 push	 edx
  00311	e8 00 00 00 00	 call	 ??_U@YAPAXI@Z		; operator new[]
  00316	83 c4 04	 add	 esp, 4
  00319	89 85 18 fe ff
	ff		 mov	 DWORD PTR $T199493[ebp], eax
  0031f	8b 85 18 fe ff
	ff		 mov	 eax, DWORD PTR $T199493[ebp]
  00325	89 85 68 ff ff
	ff		 mov	 DWORD PTR _wszWndText$[ebp], eax

; 67   : 	if(wszWndText == NULL)

  0032b	83 bd 68 ff ff
	ff 00		 cmp	 DWORD PTR _wszWndText$[ebp], 0
  00332	75 17		 jne	 SHORT $L197923

; 68   : 		return;

  00334	c7 45 fc ff ff
	ff ff		 mov	 DWORD PTR __$EHRec$[ebp+8], -1
  0033b	8d 8d 6c ff ff
	ff		 lea	 ecx, DWORD PTR _dc$[ebp]
  00341	e8 00 00 00 00	 call	 ??1CPaintDC@@UAE@XZ	; CPaintDC::~CPaintDC
  00346	e9 6c 09 00 00	 jmp	 $L197914
$L197923:

; 69   : 	if(MultiByteToWideChar(CP_ACP, 0, m_strWindowText, -1, wszWndText, nBufLen) == 0)

  0034b	8b 8d 64 ff ff
	ff		 mov	 ecx, DWORD PTR _nBufLen$[ebp]
  00351	51		 push	 ecx
  00352	8b 95 68 ff ff
	ff		 mov	 edx, DWORD PTR _wszWndText$[ebp]
  00358	52		 push	 edx
  00359	6a ff		 push	 -1
  0035b	8b 8d 4c fd ff
	ff		 mov	 ecx, DWORD PTR _this$[ebp]
  00361	83 c1 78	 add	 ecx, 120		; 00000078H
  00364	ff 15 00 00 00
	00		 call	 DWORD PTR __imp_??B?$CSimpleStringT@D$00@ATL@@QBEPBDXZ
  0036a	50		 push	 eax
  0036b	6a 00		 push	 0
  0036d	6a 00		 push	 0
  0036f	ff 15 00 00 00
	00		 call	 DWORD PTR __imp__MultiByteToWideChar@24
  00375	85 c0		 test	 eax, eax
  00377	75 17		 jne	 SHORT $L197924

; 70   : 		return;

  00379	c7 45 fc ff ff
	ff ff		 mov	 DWORD PTR __$EHRec$[ebp+8], -1
  00380	8d 8d 6c ff ff
	ff		 lea	 ecx, DWORD PTR _dc$[ebp]
  00386	e8 00 00 00 00	 call	 ??1CPaintDC@@UAE@XZ	; CPaintDC::~CPaintDC
  0038b	e9 27 09 00 00	 jmp	 $L197914
$L197924:

; 71   : 
; 72   : 	dc.SetTextColor(m_TextColor);

  00390	8b 85 4c fd ff
	ff		 mov	 eax, DWORD PTR _this$[ebp]
  00396	8b 48 60	 mov	 ecx, DWORD PTR [eax+96]
  00399	51		 push	 ecx
  0039a	8d 8d 6c ff ff
	ff		 lea	 ecx, DWORD PTR _dc$[ebp]
  003a0	e8 00 00 00 00	 call	 ?SetTextColor@CDC@@UAEKK@Z ; CDC::SetTextColor

; 73   : 
; 74   : 	//COLORREF ltempColor = dc.GetTextColor();
; 75   : 
; 76   : 	LOGFONT  lf;
; 77   : 	ZeroMemory(&lf,sizeof(lf));

  003a5	6a 3c		 push	 60			; 0000003cH
  003a7	6a 00		 push	 0
  003a9	8d 95 28 ff ff
	ff		 lea	 edx, DWORD PTR _lf$[ebp]
  003af	52		 push	 edx
  003b0	e8 00 00 00 00	 call	 _memset
  003b5	83 c4 0c	 add	 esp, 12			; 0000000cH

; 78   : 
; 79   : 	lf.lfHeight = m_FontSize; /*-MulDiv(m_FontSize,GetDeviceCaps(dc.m_hDC,LOGPIXELSY),72);*/

  003b8	8b 85 4c fd ff
	ff		 mov	 eax, DWORD PTR _this$[ebp]
  003be	8b 48 74	 mov	 ecx, DWORD PTR [eax+116]
  003c1	89 8d 28 ff ff
	ff		 mov	 DWORD PTR _lf$[ebp], ecx

; 80   : 	lf.lfWeight = FW_NORMAL;

  003c7	c7 85 38 ff ff
	ff 90 01 00 00	 mov	 DWORD PTR _lf$[ebp+16], 400 ; 00000190H

; 81   : 	lf.lfWidth = 0;

  003d1	c7 85 2c ff ff
	ff 00 00 00 00	 mov	 DWORD PTR _lf$[ebp+4], 0

; 82   : 	lf.lfCharSet = GB2312_CHARSET;

  003db	c6 85 3f ff ff
	ff 86		 mov	 BYTE PTR _lf$[ebp+23], 134 ; 00000086H

; 83   : 	lf.lfStrikeOut = FALSE;

  003e2	c6 85 3e ff ff
	ff 00		 mov	 BYTE PTR _lf$[ebp+22], 0

; 84   : 	//	lf.lfCharSet= 0;
; 85   : 	lf.lfOutPrecision = OUT_DEFAULT_PRECIS;

  003e9	c6 85 40 ff ff
	ff 00		 mov	 BYTE PTR _lf$[ebp+24], 0

; 86   : 	lf.lfClipPrecision = CLIP_DEFAULT_PRECIS;

  003f0	c6 85 41 ff ff
	ff 00		 mov	 BYTE PTR _lf$[ebp+25], 0

; 87   : 	lf.lfQuality = DEFAULT_QUALITY;

  003f7	c6 85 42 ff ff
	ff 00		 mov	 BYTE PTR _lf$[ebp+26], 0

; 88   : 	lf.lfPitchAndFamily = FF_DONTCARE | DEFAULT_PITCH;

  003fe	c6 85 43 ff ff
	ff 00		 mov	 BYTE PTR _lf$[ebp+27], 0

; 89   : 	lf.lfUnderline = m_UnderLine;

  00405	8b 95 4c fd ff
	ff		 mov	 edx, DWORD PTR _this$[ebp]
  0040b	8a 42 69	 mov	 al, BYTE PTR [edx+105]
  0040e	88 85 3d ff ff
	ff		 mov	 BYTE PTR _lf$[ebp+21], al

; 90   : 
; 91   : 	//TEXTMETRIC metric;
; 92   : 
; 93   : 	//GetTextMetrics(dc,&metric);
; 94   : 	//
; 95   : 	//SetTextMetrics(dc,&metric);
; 96   : 
; 97   : 
; 98   : 	if( m_FontFace.GetLength() != 0)

  00414	8b 8d 4c fd ff
	ff		 mov	 ecx, DWORD PTR _this$[ebp]
  0041a	83 c1 70	 add	 ecx, 112		; 00000070H
  0041d	ff 15 00 00 00
	00		 call	 DWORD PTR __imp_?GetLength@?$CSimpleStringT@D$00@ATL@@QBEHXZ
  00423	85 c0		 test	 eax, eax
  00425	74 1f		 je	 SHORT $L197926

; 99   : 	{
; 100  : 		strcpy(lf.lfFaceName, m_FontFace);

  00427	8b 8d 4c fd ff
	ff		 mov	 ecx, DWORD PTR _this$[ebp]
  0042d	83 c1 70	 add	 ecx, 112		; 00000070H
  00430	ff 15 00 00 00
	00		 call	 DWORD PTR __imp_??B?$CSimpleStringT@D$00@ATL@@QBEPBDXZ
  00436	50		 push	 eax
  00437	8d 8d 44 ff ff
	ff		 lea	 ecx, DWORD PTR _lf$[ebp+28]
  0043d	51		 push	 ecx
  0043e	e8 00 00 00 00	 call	 _strcpy
  00443	83 c4 08	 add	 esp, 8
$L197926:

; 101  : 	}
; 102  : 
; 103  : 	CFont font;

  00446	8d 8d 20 ff ff
	ff		 lea	 ecx, DWORD PTR _font$[ebp]
  0044c	e8 00 00 00 00	 call	 ??0CFont@@QAE@XZ	; CFont::CFont
  00451	c6 45 fc 01	 mov	 BYTE PTR __$EHRec$[ebp+8], 1

; 104  : 	font.CreateFontIndirect(&lf);

  00455	8d 95 28 ff ff
	ff		 lea	 edx, DWORD PTR _lf$[ebp]
  0045b	52		 push	 edx
  0045c	8d 8d 20 ff ff
	ff		 lea	 ecx, DWORD PTR _font$[ebp]
  00462	e8 00 00 00 00	 call	 ?CreateFontIndirectA@CFont@@QAEHPBUtagLOGFONTA@@@Z ; CFont::CreateFontIndirectA

; 105  : 	CFont* oldFont = (CFont*)dc.SelectObject(&font);

  00467	8d 85 20 ff ff
	ff		 lea	 eax, DWORD PTR _font$[ebp]
  0046d	50		 push	 eax
  0046e	8d 8d 6c ff ff
	ff		 lea	 ecx, DWORD PTR _dc$[ebp]
  00474	e8 00 00 00 00	 call	 ?SelectObject@CDC@@UAEPAVCFont@@PAV2@@Z ; CDC::SelectObject
  00479	89 85 1c ff ff
	ff		 mov	 DWORD PTR _oldFont$[ebp], eax

; 106  : 
; 107  : 	//CString sCaption;
; 108  : 	//GetWindowText(sCaption);		// get label text
; 109  : 	wstring wszPunctuation = L",.\'\"?!.)];:";

  0047f	68 00 00 00 00	 push	 OFFSET FLAT:$SG197931
  00484	8d 4d d4	 lea	 ecx, DWORD PTR _wszPunctuation$[ebp]
  00487	ff 15 00 00 00
	00		 call	 DWORD PTR __imp_??0?$basic_string@_WU?$char_traits@_W@std@@V?$allocator@_W@2@@std@@QAE@PB_W@Z
  0048d	c6 45 fc 02	 mov	 BYTE PTR __$EHRec$[ebp+8], 2

; 110  : 	if ( m_SingleLine )

  00491	8b 8d 4c fd ff
	ff		 mov	 ecx, DWORD PTR _this$[ebp]
  00497	0f b6 51 68	 movzx	 edx, BYTE PTR [ecx+104]
  0049b	85 d2		 test	 edx, edx
  0049d	74 33		 je	 SHORT $L197932

; 111  : 	{
; 112  : 		::DrawTextW(
; 113  : 			dc.m_hDC,
; 114  : 			wszWndText,
; 115  : 			wcslen(wszWndText),
; 116  : 			&rect,
; 117  : 			DT_SINGLELINE|DT_END_ELLIPSIS|DT_NOPREFIX/*|DT_EXTERNALLEADING|DT_WORDBREAK|DT_END_ELLIPSIS|DT_EDITCONTROL*/
; 118  : 			);

  0049f	68 20 88 00 00	 push	 34848			; 00008820H
  004a4	8d 45 c4	 lea	 eax, DWORD PTR _rect$[ebp]
  004a7	50		 push	 eax
  004a8	8b 8d 68 ff ff
	ff		 mov	 ecx, DWORD PTR _wszWndText$[ebp]
  004ae	51		 push	 ecx
  004af	ff 15 00 00 00
	00		 call	 DWORD PTR __imp__wcslen
  004b5	83 c4 04	 add	 esp, 4
  004b8	50		 push	 eax
  004b9	8b 95 68 ff ff
	ff		 mov	 edx, DWORD PTR _wszWndText$[ebp]
  004bf	52		 push	 edx
  004c0	8b 85 70 ff ff
	ff		 mov	 eax, DWORD PTR _dc$[ebp+4]
  004c6	50		 push	 eax
  004c7	ff 15 00 00 00
	00		 call	 DWORD PTR __imp__DrawTextW@20

; 119  : 	}
; 120  : 	else

  004cd	e9 7f 07 00 00	 jmp	 $L197933
$L197932:

; 121  : 	{
; 122  : 		wistringstream iss(wszWndText);

  004d2	8b 8d 68 ff ff
	ff		 mov	 ecx, DWORD PTR _wszWndText$[ebp]
  004d8	51		 push	 ecx
  004d9	8d 8d fc fd ff
	ff		 lea	 ecx, DWORD PTR $T199494[ebp]
  004df	ff 15 00 00 00
	00		 call	 DWORD PTR __imp_??0?$basic_string@_WU?$char_traits@_W@std@@V?$allocator@_W@2@@std@@QAE@PB_W@Z
  004e5	c6 45 fc 03	 mov	 BYTE PTR __$EHRec$[ebp+8], 3
  004e9	6a 01		 push	 1
  004eb	6a 01		 push	 1
  004ed	8d 95 fc fd ff
	ff		 lea	 edx, DWORD PTR $T199494[ebp]
  004f3	52		 push	 edx
  004f4	8d 8d 5c fe ff
	ff		 lea	 ecx, DWORD PTR _iss$197934[ebp]
  004fa	ff 15 00 00 00
	00		 call	 DWORD PTR __imp_??0?$basic_istringstream@_WU?$char_traits@_W@std@@V?$allocator@_W@2@@std@@QAE@ABV?$basic_string@_WU?$char_traits@_W@std@@V?$allocator@_W@2@@1@H@Z
  00500	c6 45 fc 05	 mov	 BYTE PTR __$EHRec$[ebp+8], 5
  00504	8d 8d fc fd ff
	ff		 lea	 ecx, DWORD PTR $T199494[ebp]
  0050a	ff 15 00 00 00
	00		 call	 DWORD PTR __imp_??1?$basic_string@_WU?$char_traits@_W@std@@V?$allocator@_W@2@@std@@QAE@XZ

; 123  : 		wstring strline;

  00510	8d 8d f0 fe ff
	ff		 lea	 ecx, DWORD PTR _strline$197936[ebp]
  00516	ff 15 00 00 00
	00		 call	 DWORD PTR __imp_??0?$basic_string@_WU?$char_traits@_W@std@@V?$allocator@_W@2@@std@@QAE@XZ
  0051c	c6 45 fc 06	 mov	 BYTE PTR __$EHRec$[ebp+8], 6

; 124  : 		int out_line = 0;

  00520	c7 85 58 fe ff
	ff 00 00 00 00	 mov	 DWORD PTR _out_line$197937[ebp], 0

; 125  : 		int line_spacing = 5;

  0052a	c7 85 54 fe ff
	ff 05 00 00 00	 mov	 DWORD PTR _line_spacing$197938[ebp], 5

; 126  : 		int wnd_width = rect.right - rect.left;

  00534	8b 45 cc	 mov	 eax, DWORD PTR _rect$[ebp+8]
  00537	2b 45 c4	 sub	 eax, DWORD PTR _rect$[ebp]
  0053a	89 85 10 ff ff
	ff		 mov	 DWORD PTR _wnd_width$197939[ebp], eax

; 127  : 		int wnd_height = rect.bottom - rect.top;

  00540	8b 4d d0	 mov	 ecx, DWORD PTR _rect$[ebp+12]
  00543	2b 4d c8	 sub	 ecx, DWORD PTR _rect$[ebp+4]
  00546	89 8d 18 ff ff
	ff		 mov	 DWORD PTR _wnd_height$197940[ebp], ecx

; 128  : 		SIZE size;
; 129  : 		::GetTextExtentPointW(dc.m_hDC, wszWndText, wcslen(wszWndText), &size);

  0054c	8d 95 e8 fe ff
	ff		 lea	 edx, DWORD PTR _size$197941[ebp]
  00552	52		 push	 edx
  00553	8b 85 68 ff ff
	ff		 mov	 eax, DWORD PTR _wszWndText$[ebp]
  00559	50		 push	 eax
  0055a	ff 15 00 00 00
	00		 call	 DWORD PTR __imp__wcslen
  00560	83 c4 04	 add	 esp, 4
  00563	50		 push	 eax
  00564	8b 8d 68 ff ff
	ff		 mov	 ecx, DWORD PTR _wszWndText$[ebp]
  0056a	51		 push	 ecx
  0056b	8b 95 70 ff ff
	ff		 mov	 edx, DWORD PTR _dc$[ebp+4]
  00571	52		 push	 edx
  00572	ff 15 00 00 00
	00		 call	 DWORD PTR __imp__GetTextExtentPointW@16

; 130  : 		int text_width = size.cx;

  00578	8b 85 e8 fe ff
	ff		 mov	 eax, DWORD PTR _size$197941[ebp]
  0057e	89 85 0c ff ff
	ff		 mov	 DWORD PTR _text_width$197942[ebp], eax

; 131  : 		int line_num = wnd_height / (size.cy + line_spacing);

  00584	8b 8d ec fe ff
	ff		 mov	 ecx, DWORD PTR _size$197941[ebp+4]
  0058a	03 8d 54 fe ff
	ff		 add	 ecx, DWORD PTR _line_spacing$197938[ebp]
  00590	8b 85 18 ff ff
	ff		 mov	 eax, DWORD PTR _wnd_height$197940[ebp]
  00596	99		 cdq
  00597	f7 f9		 idiv	 ecx
  00599	89 85 14 ff ff
	ff		 mov	 DWORD PTR _line_num$197943[ebp], eax

; 132  : 		if(text_width > wnd_width)

  0059f	8b 95 0c ff ff
	ff		 mov	 edx, DWORD PTR _text_width$197942[ebp]
  005a5	3b 95 10 ff ff
	ff		 cmp	 edx, DWORD PTR _wnd_width$197939[ebp]
  005ab	0f 8e 52 06 00
	00		 jle	 $L197944
$L197946:

; 133  : 		{
; 134  : 			while(getline(iss, strline, L'\n') && out_line <= line_num)

  005b1	6a 0a		 push	 10			; 0000000aH
  005b3	8d 85 f0 fe ff
	ff		 lea	 eax, DWORD PTR _strline$197936[ebp]
  005b9	50		 push	 eax
  005ba	8d 8d 5c fe ff
	ff		 lea	 ecx, DWORD PTR _iss$197934[ebp]
  005c0	51		 push	 ecx
  005c1	e8 00 00 00 00	 call	 ??$getline@_WU?$char_traits@_W@std@@V?$allocator@_W@2@@std@@YAAAV?$basic_istream@_WU?$char_traits@_W@std@@@0@AAV10@AAV?$basic_string@_WU?$char_traits@_W@std@@V?$allocator@_W@2@@0@_W@Z ; std::getline<wchar_t,std::char_traits<wchar_t>,std::allocator<wchar_t> >
  005c6	83 c4 0c	 add	 esp, 12			; 0000000cH
  005c9	89 85 f8 fd ff
	ff		 mov	 DWORD PTR $T199495[ebp], eax
  005cf	83 bd f8 fd ff
	ff 00		 cmp	 DWORD PTR $T199495[ebp], 0
  005d6	75 0c		 jne	 SHORT $L199496
  005d8	c7 85 48 fd ff
	ff 00 00 00 00	 mov	 DWORD PTR tv247[ebp], 0
  005e2	eb 17		 jmp	 SHORT $L199497
$L199496:
  005e4	8b 95 f8 fd ff
	ff		 mov	 edx, DWORD PTR $T199495[ebp]
  005ea	8b 02		 mov	 eax, DWORD PTR [edx]
  005ec	8b 8d f8 fd ff
	ff		 mov	 ecx, DWORD PTR $T199495[ebp]
  005f2	03 48 04	 add	 ecx, DWORD PTR [eax+4]
  005f5	89 8d 48 fd ff
	ff		 mov	 DWORD PTR tv247[ebp], ecx
$L199497:
  005fb	8b 8d 48 fd ff
	ff		 mov	 ecx, DWORD PTR tv247[ebp]
  00601	ff 15 00 00 00
	00		 call	 DWORD PTR __imp_??Bios_base@std@@QBEPAXXZ
  00607	85 c0		 test	 eax, eax
  00609	0f 84 f2 05 00
	00		 je	 $L197947
  0060f	8b 95 58 fe ff
	ff		 mov	 edx, DWORD PTR _out_line$197937[ebp]
  00615	3b 95 14 ff ff
	ff		 cmp	 edx, DWORD PTR _line_num$197943[ebp]
  0061b	0f 9e c0	 setle	 al
  0061e	0f b6 c8	 movzx	 ecx, al
  00621	85 c9		 test	 ecx, ecx
  00623	0f 84 d8 05 00
	00		 je	 $L197947

; 135  : 			{
; 136  : 				if(strline.size() == 0)

  00629	8d 8d f0 fe ff
	ff		 lea	 ecx, DWORD PTR _strline$197936[ebp]
  0062f	ff 15 00 00 00
	00		 call	 DWORD PTR __imp_?size@?$basic_string@_WU?$char_traits@_W@std@@V?$allocator@_W@2@@std@@QBEIXZ
  00635	85 c0		 test	 eax, eax
  00637	75 05		 jne	 SHORT $L197949

; 137  : 					continue;

  00639	e9 73 ff ff ff	 jmp	 $L197946
$L197949:

; 138  : 				if(*(--strline.end()) == L'\r')

  0063e	8d 95 f4 fd ff
	ff		 lea	 edx, DWORD PTR $T199498[ebp]
  00644	52		 push	 edx
  00645	8d 8d f0 fe ff
	ff		 lea	 ecx, DWORD PTR _strline$197936[ebp]
  0064b	ff 15 00 00 00
	00		 call	 DWORD PTR __imp_?end@?$basic_string@_WU?$char_traits@_W@std@@V?$allocator@_W@2@@std@@QAE?AViterator@12@XZ
  00651	8b c8		 mov	 ecx, eax
  00653	e8 00 00 00 00	 call	 ??Fiterator@?$basic_string@_WU?$char_traits@_W@std@@V?$allocator@_W@2@@std@@QAEAAV012@XZ ; std::basic_string<wchar_t,std::char_traits<wchar_t>,std::allocator<wchar_t> >::iterator::operator--
  00658	8b c8		 mov	 ecx, eax
  0065a	e8 00 00 00 00	 call	 ??Diterator@?$basic_string@_WU?$char_traits@_W@std@@V?$allocator@_W@2@@std@@QBEAA_WXZ ; std::basic_string<wchar_t,std::char_traits<wchar_t>,std::allocator<wchar_t> >::iterator::operator*
  0065f	0f b7 00	 movzx	 eax, WORD PTR [eax]
  00662	83 f8 0d	 cmp	 eax, 13			; 0000000dH
  00665	75 30		 jne	 SHORT $L197955

; 139  : 					strline.erase(--strline.end());

  00667	8d 8d f0 fd ff
	ff		 lea	 ecx, DWORD PTR $T199499[ebp]
  0066d	51		 push	 ecx
  0066e	8d 8d f0 fe ff
	ff		 lea	 ecx, DWORD PTR _strline$197936[ebp]
  00674	ff 15 00 00 00
	00		 call	 DWORD PTR __imp_?end@?$basic_string@_WU?$char_traits@_W@std@@V?$allocator@_W@2@@std@@QAE?AViterator@12@XZ
  0067a	8b c8		 mov	 ecx, eax
  0067c	e8 00 00 00 00	 call	 ??Fiterator@?$basic_string@_WU?$char_traits@_W@std@@V?$allocator@_W@2@@std@@QAEAAV012@XZ ; std::basic_string<wchar_t,std::char_traits<wchar_t>,std::allocator<wchar_t> >::iterator::operator--
  00681	8b 10		 mov	 edx, DWORD PTR [eax]
  00683	52		 push	 edx
  00684	8d 85 ec fd ff
	ff		 lea	 eax, DWORD PTR $T199500[ebp]
  0068a	50		 push	 eax
  0068b	8d 8d f0 fe ff
	ff		 lea	 ecx, DWORD PTR _strline$197936[ebp]
  00691	ff 15 00 00 00
	00		 call	 DWORD PTR __imp_?erase@?$basic_string@_WU?$char_traits@_W@std@@V?$allocator@_W@2@@std@@QAE?AViterator@12@V312@@Z
$L197955:

; 140  : 				while(strline.size())

  00697	8d 8d f0 fe ff
	ff		 lea	 ecx, DWORD PTR _strline$197936[ebp]
  0069d	ff 15 00 00 00
	00		 call	 DWORD PTR __imp_?size@?$basic_string@_WU?$char_traits@_W@std@@V?$allocator@_W@2@@std@@QBEIXZ
  006a3	85 c0		 test	 eax, eax
  006a5	0f 84 51 05 00
	00		 je	 $L197956

; 141  : 				{
; 142  : 					int line_len = (int)(wcslen(wszWndText) * wnd_width / (float)text_width);//

  006ab	8b 8d 68 ff ff
	ff		 mov	 ecx, DWORD PTR _wszWndText$[ebp]
  006b1	51		 push	 ecx
  006b2	ff 15 00 00 00
	00		 call	 DWORD PTR __imp__wcslen
  006b8	83 c4 04	 add	 esp, 4
  006bb	0f af 85 10 ff
	ff ff		 imul	 eax, DWORD PTR _wnd_width$197939[ebp]
  006c2	89 85 40 fd ff
	ff		 mov	 DWORD PTR tv584[ebp], eax
  006c8	c7 85 44 fd ff
	ff 00 00 00 00	 mov	 DWORD PTR tv584[ebp+4], 0
  006d2	df ad 40 fd ff
	ff		 fild	 QWORD PTR tv584[ebp]
  006d8	da b5 0c ff ff
	ff		 fidiv	 DWORD PTR _text_width$197942[ebp]
  006de	e8 00 00 00 00	 call	 __ftol2
  006e3	89 85 1c fe ff
	ff		 mov	 DWORD PTR _line_len$197957[ebp], eax

; 143  : 					if(line_len == 0)

  006e9	83 bd 1c fe ff
	ff 00		 cmp	 DWORD PTR _line_len$197957[ebp], 0
  006f0	75 02		 jne	 SHORT $L197960

; 144  : 						continue;

  006f2	eb a3		 jmp	 SHORT $L197955
$L197960:

; 145  : 					wstring strOutput;

  006f4	8d 8d 20 fe ff
	ff		 lea	 ecx, DWORD PTR _strOutput$197961[ebp]
  006fa	ff 15 00 00 00
	00		 call	 DWORD PTR __imp_??0?$basic_string@_WU?$char_traits@_W@std@@V?$allocator@_W@2@@std@@QAE@XZ
  00700	c6 45 fc 07	 mov	 BYTE PTR __$EHRec$[ebp+8], 7

; 146  : 					int i = 0;

  00704	c7 85 40 fe ff
	ff 00 00 00 00	 mov	 DWORD PTR _i$197962[ebp], 0

; 147  : 					if(line_len < strline.size())

  0070e	8d 8d f0 fe ff
	ff		 lea	 ecx, DWORD PTR _strline$197936[ebp]
  00714	ff 15 00 00 00
	00		 call	 DWORD PTR __imp_?size@?$basic_string@_WU?$char_traits@_W@std@@V?$allocator@_W@2@@std@@QBEIXZ
  0071a	39 85 1c fe ff
	ff		 cmp	 DWORD PTR _line_len$197957[ebp], eax
  00720	73 57		 jae	 SHORT $L197963

; 148  : 					{
; 149  : 						strOutput = strline.substr(0, line_len);

  00722	8b 95 1c fe ff
	ff		 mov	 edx, DWORD PTR _line_len$197957[ebp]
  00728	52		 push	 edx
  00729	6a 00		 push	 0
  0072b	8d 85 d0 fd ff
	ff		 lea	 eax, DWORD PTR $T199501[ebp]
  00731	50		 push	 eax
  00732	8d 8d f0 fe ff
	ff		 lea	 ecx, DWORD PTR _strline$197936[ebp]
  00738	ff 15 00 00 00
	00		 call	 DWORD PTR __imp_?substr@?$basic_string@_WU?$char_traits@_W@std@@V?$allocator@_W@2@@std@@QBE?AV12@II@Z
  0073e	89 85 3c fd ff
	ff		 mov	 DWORD PTR tv288[ebp], eax
  00744	8b 8d 3c fd ff
	ff		 mov	 ecx, DWORD PTR tv288[ebp]
  0074a	89 8d 38 fd ff
	ff		 mov	 DWORD PTR tv485[ebp], ecx
  00750	c6 45 fc 08	 mov	 BYTE PTR __$EHRec$[ebp+8], 8
  00754	8b 95 38 fd ff
	ff		 mov	 edx, DWORD PTR tv485[ebp]
  0075a	52		 push	 edx
  0075b	8d 8d 20 fe ff
	ff		 lea	 ecx, DWORD PTR _strOutput$197961[ebp]
  00761	ff 15 00 00 00
	00		 call	 DWORD PTR __imp_??4?$basic_string@_WU?$char_traits@_W@std@@V?$allocator@_W@2@@std@@QAEAAV01@ABV01@@Z
  00767	c6 45 fc 07	 mov	 BYTE PTR __$EHRec$[ebp+8], 7
  0076b	8d 8d d0 fd ff
	ff		 lea	 ecx, DWORD PTR $T199501[ebp]
  00771	ff 15 00 00 00
	00		 call	 DWORD PTR __imp_??1?$basic_string@_WU?$char_traits@_W@std@@V?$allocator@_W@2@@std@@QAE@XZ

; 150  : 					}
; 151  : 					else

  00777	eb 25		 jmp	 SHORT $L197965
$L197963:

; 152  : 					{
; 153  : 						strOutput = strline;

  00779	8d 85 f0 fe ff
	ff		 lea	 eax, DWORD PTR _strline$197936[ebp]
  0077f	50		 push	 eax
  00780	8d 8d 20 fe ff
	ff		 lea	 ecx, DWORD PTR _strOutput$197961[ebp]
  00786	ff 15 00 00 00
	00		 call	 DWORD PTR __imp_??4?$basic_string@_WU?$char_traits@_W@std@@V?$allocator@_W@2@@std@@QAEAAV01@ABV01@@Z

; 154  : 						line_len = strline.size();

  0078c	8d 8d f0 fe ff
	ff		 lea	 ecx, DWORD PTR _strline$197936[ebp]
  00792	ff 15 00 00 00
	00		 call	 DWORD PTR __imp_?size@?$basic_string@_WU?$char_traits@_W@std@@V?$allocator@_W@2@@std@@QBEIXZ
  00798	89 85 1c fe ff
	ff		 mov	 DWORD PTR _line_len$197957[ebp], eax
$L197965:

; 155  : 					}
; 156  : 						::GetTextExtentPointW(dc.m_hDC, strOutput.c_str(), strOutput.size(), &size);

  0079e	8d 8d e8 fe ff
	ff		 lea	 ecx, DWORD PTR _size$197941[ebp]
  007a4	51		 push	 ecx
  007a5	8d 8d 20 fe ff
	ff		 lea	 ecx, DWORD PTR _strOutput$197961[ebp]
  007ab	ff 15 00 00 00
	00		 call	 DWORD PTR __imp_?size@?$basic_string@_WU?$char_traits@_W@std@@V?$allocator@_W@2@@std@@QBEIXZ
  007b1	50		 push	 eax
  007b2	8d 8d 20 fe ff
	ff		 lea	 ecx, DWORD PTR _strOutput$197961[ebp]
  007b8	ff 15 00 00 00
	00		 call	 DWORD PTR __imp_?c_str@?$basic_string@_WU?$char_traits@_W@std@@V?$allocator@_W@2@@std@@QBEPB_WXZ
  007be	50		 push	 eax
  007bf	8b 95 70 ff ff
	ff		 mov	 edx, DWORD PTR _dc$[ebp+4]
  007c5	52		 push	 edx
  007c6	ff 15 00 00 00
	00		 call	 DWORD PTR __imp__GetTextExtentPointW@16

; 157  : 						if(size.cx > wnd_width)

  007cc	8b 85 e8 fe ff
	ff		 mov	 eax, DWORD PTR _size$197941[ebp]
  007d2	3b 85 10 ff ff
	ff		 cmp	 eax, DWORD PTR _wnd_width$197939[ebp]
  007d8	0f 8e ca 00 00
	00		 jle	 $L197966

; 158  : 						{
; 159  : 							line_len --;

  007de	8b 8d 1c fe ff
	ff		 mov	 ecx, DWORD PTR _line_len$197957[ebp]
  007e4	83 e9 01	 sub	 ecx, 1
  007e7	89 8d 1c fe ff
	ff		 mov	 DWORD PTR _line_len$197957[ebp], ecx
$L197968:

; 160  : 							while(line_len > 0)

  007ed	83 bd 1c fe ff
	ff 00		 cmp	 DWORD PTR _line_len$197957[ebp], 0
  007f4	0f 8e a9 00 00
	00		 jle	 $L197969

; 161  : 							{
; 162  : 								strOutput = strline.substr(0, line_len);

  007fa	8b 95 1c fe ff
	ff		 mov	 edx, DWORD PTR _line_len$197957[ebp]
  00800	52		 push	 edx
  00801	6a 00		 push	 0
  00803	8d 85 b4 fd ff
	ff		 lea	 eax, DWORD PTR $T199502[ebp]
  00809	50		 push	 eax
  0080a	8d 8d f0 fe ff
	ff		 lea	 ecx, DWORD PTR _strline$197936[ebp]
  00810	ff 15 00 00 00
	00		 call	 DWORD PTR __imp_?substr@?$basic_string@_WU?$char_traits@_W@std@@V?$allocator@_W@2@@std@@QBE?AV12@II@Z
  00816	89 85 34 fd ff
	ff		 mov	 DWORD PTR tv227[ebp], eax
  0081c	8b 8d 34 fd ff
	ff		 mov	 ecx, DWORD PTR tv227[ebp]
  00822	89 8d 30 fd ff
	ff		 mov	 DWORD PTR tv487[ebp], ecx
  00828	c6 45 fc 09	 mov	 BYTE PTR __$EHRec$[ebp+8], 9
  0082c	8b 95 30 fd ff
	ff		 mov	 edx, DWORD PTR tv487[ebp]
  00832	52		 push	 edx
  00833	8d 8d 20 fe ff
	ff		 lea	 ecx, DWORD PTR _strOutput$197961[ebp]
  00839	ff 15 00 00 00
	00		 call	 DWORD PTR __imp_??4?$basic_string@_WU?$char_traits@_W@std@@V?$allocator@_W@2@@std@@QAEAAV01@ABV01@@Z
  0083f	c6 45 fc 07	 mov	 BYTE PTR __$EHRec$[ebp+8], 7
  00843	8d 8d b4 fd ff
	ff		 lea	 ecx, DWORD PTR $T199502[ebp]
  00849	ff 15 00 00 00
	00		 call	 DWORD PTR __imp_??1?$basic_string@_WU?$char_traits@_W@std@@V?$allocator@_W@2@@std@@QAE@XZ

; 163  : 								::GetTextExtentPointW(dc.m_hDC, strOutput.c_str(), strOutput.size(), &size);

  0084f	8d 85 e8 fe ff
	ff		 lea	 eax, DWORD PTR _size$197941[ebp]
  00855	50		 push	 eax
  00856	8d 8d 20 fe ff
	ff		 lea	 ecx, DWORD PTR _strOutput$197961[ebp]
  0085c	ff 15 00 00 00
	00		 call	 DWORD PTR __imp_?size@?$basic_string@_WU?$char_traits@_W@std@@V?$allocator@_W@2@@std@@QBEIXZ
  00862	50		 push	 eax
  00863	8d 8d 20 fe ff
	ff		 lea	 ecx, DWORD PTR _strOutput$197961[ebp]
  00869	ff 15 00 00 00
	00		 call	 DWORD PTR __imp_?c_str@?$basic_string@_WU?$char_traits@_W@std@@V?$allocator@_W@2@@std@@QBEPB_WXZ
  0086f	50		 push	 eax
  00870	8b 8d 70 ff ff
	ff		 mov	 ecx, DWORD PTR _dc$[ebp+4]
  00876	51		 push	 ecx
  00877	ff 15 00 00 00
	00		 call	 DWORD PTR __imp__GetTextExtentPointW@16

; 164  : 								if(size.cx > wnd_width)

  0087d	8b 95 e8 fe ff
	ff		 mov	 edx, DWORD PTR _size$197941[ebp]
  00883	3b 95 10 ff ff
	ff		 cmp	 edx, DWORD PTR _wnd_width$197939[ebp]
  00889	7e 11		 jle	 SHORT $L197971

; 165  : 									line_len --;

  0088b	8b 85 1c fe ff
	ff		 mov	 eax, DWORD PTR _line_len$197957[ebp]
  00891	83 e8 01	 sub	 eax, 1
  00894	89 85 1c fe ff
	ff		 mov	 DWORD PTR _line_len$197957[ebp], eax

; 166  : 								else

  0089a	eb 02		 jmp	 SHORT $L197972
$L197971:

; 167  : 									break;

  0089c	eb 05		 jmp	 SHORT $L197969
$L197972:

; 168  : 							}

  0089e	e9 4a ff ff ff	 jmp	 $L197968
$L197969:

; 169  : 						}
; 170  : 						else if(size.cx < wnd_width)

  008a3	e9 f1 00 00 00	 jmp	 $L197973
$L197966:
  008a8	8b 8d e8 fe ff
	ff		 mov	 ecx, DWORD PTR _size$197941[ebp]
  008ae	3b 8d 10 ff ff
	ff		 cmp	 ecx, DWORD PTR _wnd_width$197939[ebp]
  008b4	0f 8d df 00 00
	00		 jge	 $L197973

; 171  : 						{
; 172  : 							line_len ++;

  008ba	8b 95 1c fe ff
	ff		 mov	 edx, DWORD PTR _line_len$197957[ebp]
  008c0	83 c2 01	 add	 edx, 1
  008c3	89 95 1c fe ff
	ff		 mov	 DWORD PTR _line_len$197957[ebp], edx
$L197976:

; 173  : 							while(line_len <= strline.size()) 

  008c9	8d 8d f0 fe ff
	ff		 lea	 ecx, DWORD PTR _strline$197936[ebp]
  008cf	ff 15 00 00 00
	00		 call	 DWORD PTR __imp_?size@?$basic_string@_WU?$char_traits@_W@std@@V?$allocator@_W@2@@std@@QBEIXZ
  008d5	39 85 1c fe ff
	ff		 cmp	 DWORD PTR _line_len$197957[ebp], eax
  008db	0f 87 a9 00 00
	00		 ja	 $L197977

; 174  : 							{
; 175  : 								strOutput = strline.substr(0, line_len);

  008e1	8b 85 1c fe ff
	ff		 mov	 eax, DWORD PTR _line_len$197957[ebp]
  008e7	50		 push	 eax
  008e8	6a 00		 push	 0
  008ea	8d 8d 98 fd ff
	ff		 lea	 ecx, DWORD PTR $T199503[ebp]
  008f0	51		 push	 ecx
  008f1	8d 8d f0 fe ff
	ff		 lea	 ecx, DWORD PTR _strline$197936[ebp]
  008f7	ff 15 00 00 00
	00		 call	 DWORD PTR __imp_?substr@?$basic_string@_WU?$char_traits@_W@std@@V?$allocator@_W@2@@std@@QBE?AV12@II@Z
  008fd	89 85 2c fd ff
	ff		 mov	 DWORD PTR tv185[ebp], eax
  00903	8b 95 2c fd ff
	ff		 mov	 edx, DWORD PTR tv185[ebp]
  00909	89 95 28 fd ff
	ff		 mov	 DWORD PTR tv489[ebp], edx
  0090f	c6 45 fc 0a	 mov	 BYTE PTR __$EHRec$[ebp+8], 10 ; 0000000aH
  00913	8b 85 28 fd ff
	ff		 mov	 eax, DWORD PTR tv489[ebp]
  00919	50		 push	 eax
  0091a	8d 8d 20 fe ff
	ff		 lea	 ecx, DWORD PTR _strOutput$197961[ebp]
  00920	ff 15 00 00 00
	00		 call	 DWORD PTR __imp_??4?$basic_string@_WU?$char_traits@_W@std@@V?$allocator@_W@2@@std@@QAEAAV01@ABV01@@Z
  00926	c6 45 fc 07	 mov	 BYTE PTR __$EHRec$[ebp+8], 7
  0092a	8d 8d 98 fd ff
	ff		 lea	 ecx, DWORD PTR $T199503[ebp]
  00930	ff 15 00 00 00
	00		 call	 DWORD PTR __imp_??1?$basic_string@_WU?$char_traits@_W@std@@V?$allocator@_W@2@@std@@QAE@XZ

; 176  : 								::GetTextExtentPointW(dc.m_hDC, strOutput.c_str(), strOutput.size(), &size);								

  00936	8d 8d e8 fe ff
	ff		 lea	 ecx, DWORD PTR _size$197941[ebp]
  0093c	51		 push	 ecx
  0093d	8d 8d 20 fe ff
	ff		 lea	 ecx, DWORD PTR _strOutput$197961[ebp]
  00943	ff 15 00 00 00
	00		 call	 DWORD PTR __imp_?size@?$basic_string@_WU?$char_traits@_W@std@@V?$allocator@_W@2@@std@@QBEIXZ
  00949	50		 push	 eax
  0094a	8d 8d 20 fe ff
	ff		 lea	 ecx, DWORD PTR _strOutput$197961[ebp]
  00950	ff 15 00 00 00
	00		 call	 DWORD PTR __imp_?c_str@?$basic_string@_WU?$char_traits@_W@std@@V?$allocator@_W@2@@std@@QBEPB_WXZ
  00956	50		 push	 eax
  00957	8b 95 70 ff ff
	ff		 mov	 edx, DWORD PTR _dc$[ebp+4]
  0095d	52		 push	 edx
  0095e	ff 15 00 00 00
	00		 call	 DWORD PTR __imp__GetTextExtentPointW@16

; 177  : 								if(size.cx < wnd_width)

  00964	8b 85 e8 fe ff
	ff		 mov	 eax, DWORD PTR _size$197941[ebp]
  0096a	3b 85 10 ff ff
	ff		 cmp	 eax, DWORD PTR _wnd_width$197939[ebp]
  00970	7d 11		 jge	 SHORT $L197979

; 178  : 									line_len ++;

  00972	8b 8d 1c fe ff
	ff		 mov	 ecx, DWORD PTR _line_len$197957[ebp]
  00978	83 c1 01	 add	 ecx, 1
  0097b	89 8d 1c fe ff
	ff		 mov	 DWORD PTR _line_len$197957[ebp], ecx

; 179  : 								else

  00981	eb 02		 jmp	 SHORT $L197980
$L197979:

; 180  : 									break;

  00983	eb 05		 jmp	 SHORT $L197977
$L197980:

; 181  : 							}

  00985	e9 3f ff ff ff	 jmp	 $L197976
$L197977:

; 182  : 							line_len --;

  0098a	8b 95 1c fe ff
	ff		 mov	 edx, DWORD PTR _line_len$197957[ebp]
  00990	83 ea 01	 sub	 edx, 1
  00993	89 95 1c fe ff
	ff		 mov	 DWORD PTR _line_len$197957[ebp], edx
$L197973:

; 183  : 						}
; 184  : 						//
; 185  : 						int temp = line_len;

  00999	8b 85 1c fe ff
	ff		 mov	 eax, DWORD PTR _line_len$197957[ebp]
  0099f	89 85 3c fe ff
	ff		 mov	 DWORD PTR _temp$197981[ebp], eax
$L197983:

; 186  : 						while(line_len < strline.size() && line_len >= 0 && wszPunctuation.find(strline[line_len]) != wstring::npos)

  009a5	8d 8d f0 fe ff
	ff		 lea	 ecx, DWORD PTR _strline$197936[ebp]
  009ab	ff 15 00 00 00
	00		 call	 DWORD PTR __imp_?size@?$basic_string@_WU?$char_traits@_W@std@@V?$allocator@_W@2@@std@@QBEIXZ
  009b1	39 85 1c fe ff
	ff		 cmp	 DWORD PTR _line_len$197957[ebp], eax
  009b7	73 46		 jae	 SHORT $L197984
  009b9	83 bd 1c fe ff
	ff 00		 cmp	 DWORD PTR _line_len$197957[ebp], 0
  009c0	7c 3d		 jl	 SHORT $L197984
  009c2	6a 00		 push	 0
  009c4	8b 8d 1c fe ff
	ff		 mov	 ecx, DWORD PTR _line_len$197957[ebp]
  009ca	51		 push	 ecx
  009cb	8d 8d f0 fe ff
	ff		 lea	 ecx, DWORD PTR _strline$197936[ebp]
  009d1	ff 15 00 00 00
	00		 call	 DWORD PTR __imp_??A?$basic_string@_WU?$char_traits@_W@std@@V?$allocator@_W@2@@std@@QAEAA_WI@Z
  009d7	66 8b 10	 mov	 dx, WORD PTR [eax]
  009da	52		 push	 edx
  009db	8d 4d d4	 lea	 ecx, DWORD PTR _wszPunctuation$[ebp]
  009de	ff 15 00 00 00
	00		 call	 DWORD PTR __imp_?find@?$basic_string@_WU?$char_traits@_W@std@@V?$allocator@_W@2@@std@@QBEI_WI@Z
  009e4	8b 0d 00 00 00
	00		 mov	 ecx, DWORD PTR __imp_?npos@?$basic_string@_WU?$char_traits@_W@std@@V?$allocator@_W@2@@std@@2IB
  009ea	3b 01		 cmp	 eax, DWORD PTR [ecx]
  009ec	74 11		 je	 SHORT $L197984

; 187  : 							line_len --;

  009ee	8b 95 1c fe ff
	ff		 mov	 edx, DWORD PTR _line_len$197957[ebp]
  009f4	83 ea 01	 sub	 edx, 1
  009f7	89 95 1c fe ff
	ff		 mov	 DWORD PTR _line_len$197957[ebp], edx
  009fd	eb a6		 jmp	 SHORT $L197983
$L197984:

; 188  : 						if(line_len == 0)

  009ff	83 bd 1c fe ff
	ff 00		 cmp	 DWORD PTR _line_len$197957[ebp], 0
  00a06	75 0c		 jne	 SHORT $L197985

; 189  : 							line_len = temp;

  00a08	8b 85 3c fe ff
	ff		 mov	 eax, DWORD PTR _temp$197981[ebp]
  00a0e	89 85 1c fe ff
	ff		 mov	 DWORD PTR _line_len$197957[ebp], eax
$L197985:

; 190  : 						strOutput = strline.substr(0, line_len);

  00a14	8b 8d 1c fe ff
	ff		 mov	 ecx, DWORD PTR _line_len$197957[ebp]
  00a1a	51		 push	 ecx
  00a1b	6a 00		 push	 0
  00a1d	8d 95 7c fd ff
	ff		 lea	 edx, DWORD PTR $T199504[ebp]
  00a23	52		 push	 edx
  00a24	8d 8d f0 fe ff
	ff		 lea	 ecx, DWORD PTR _strline$197936[ebp]
  00a2a	ff 15 00 00 00
	00		 call	 DWORD PTR __imp_?substr@?$basic_string@_WU?$char_traits@_W@std@@V?$allocator@_W@2@@std@@QBE?AV12@II@Z
  00a30	89 85 24 fd ff
	ff		 mov	 DWORD PTR tv189[ebp], eax
  00a36	8b 85 24 fd ff
	ff		 mov	 eax, DWORD PTR tv189[ebp]
  00a3c	89 85 20 fd ff
	ff		 mov	 DWORD PTR tv491[ebp], eax
  00a42	c6 45 fc 0b	 mov	 BYTE PTR __$EHRec$[ebp+8], 11 ; 0000000bH
  00a46	8b 8d 20 fd ff
	ff		 mov	 ecx, DWORD PTR tv491[ebp]
  00a4c	51		 push	 ecx
  00a4d	8d 8d 20 fe ff
	ff		 lea	 ecx, DWORD PTR _strOutput$197961[ebp]
  00a53	ff 15 00 00 00
	00		 call	 DWORD PTR __imp_??4?$basic_string@_WU?$char_traits@_W@std@@V?$allocator@_W@2@@std@@QAEAAV01@ABV01@@Z
  00a59	c6 45 fc 07	 mov	 BYTE PTR __$EHRec$[ebp+8], 7
  00a5d	8d 8d 7c fd ff
	ff		 lea	 ecx, DWORD PTR $T199504[ebp]
  00a63	ff 15 00 00 00
	00		 call	 DWORD PTR __imp_??1?$basic_string@_WU?$char_traits@_W@std@@V?$allocator@_W@2@@std@@QAE@XZ

; 191  : 						strline = strline.substr(line_len);

  00a69	8b 15 00 00 00
	00		 mov	 edx, DWORD PTR __imp_?npos@?$basic_string@_WU?$char_traits@_W@std@@V?$allocator@_W@2@@std@@2IB
  00a6f	8b 02		 mov	 eax, DWORD PTR [edx]
  00a71	50		 push	 eax
  00a72	8b 8d 1c fe ff
	ff		 mov	 ecx, DWORD PTR _line_len$197957[ebp]
  00a78	51		 push	 ecx
  00a79	8d 95 60 fd ff
	ff		 lea	 edx, DWORD PTR $T199505[ebp]
  00a7f	52		 push	 edx
  00a80	8d 8d f0 fe ff
	ff		 lea	 ecx, DWORD PTR _strline$197936[ebp]
  00a86	ff 15 00 00 00
	00		 call	 DWORD PTR __imp_?substr@?$basic_string@_WU?$char_traits@_W@std@@V?$allocator@_W@2@@std@@QBE?AV12@II@Z
  00a8c	89 85 1c fd ff
	ff		 mov	 DWORD PTR tv171[ebp], eax
  00a92	8b 85 1c fd ff
	ff		 mov	 eax, DWORD PTR tv171[ebp]
  00a98	89 85 18 fd ff
	ff		 mov	 DWORD PTR tv493[ebp], eax
  00a9e	c6 45 fc 0c	 mov	 BYTE PTR __$EHRec$[ebp+8], 12 ; 0000000cH
  00aa2	8b 8d 18 fd ff
	ff		 mov	 ecx, DWORD PTR tv493[ebp]
  00aa8	51		 push	 ecx
  00aa9	8d 8d f0 fe ff
	ff		 lea	 ecx, DWORD PTR _strline$197936[ebp]
  00aaf	ff 15 00 00 00
	00		 call	 DWORD PTR __imp_??4?$basic_string@_WU?$char_traits@_W@std@@V?$allocator@_W@2@@std@@QAEAAV01@ABV01@@Z
  00ab5	c6 45 fc 07	 mov	 BYTE PTR __$EHRec$[ebp+8], 7
  00ab9	8d 8d 60 fd ff
	ff		 lea	 ecx, DWORD PTR $T199505[ebp]
  00abf	ff 15 00 00 00
	00		 call	 DWORD PTR __imp_??1?$basic_string@_WU?$char_traits@_W@std@@V?$allocator@_W@2@@std@@QAE@XZ

; 192  : 						//...
; 193  : 						if(out_line == line_num - 1 && !strline.empty())

  00ac5	8b 95 14 ff ff
	ff		 mov	 edx, DWORD PTR _line_num$197943[ebp]
  00acb	83 ea 01	 sub	 edx, 1
  00ace	39 95 58 fe ff
	ff		 cmp	 DWORD PTR _out_line$197937[ebp], edx
  00ad4	75 60		 jne	 SHORT $L197988
  00ad6	8d 8d f0 fe ff
	ff		 lea	 ecx, DWORD PTR _strline$197936[ebp]
  00adc	ff 15 00 00 00
	00		 call	 DWORD PTR __imp_?empty@?$basic_string@_WU?$char_traits@_W@std@@V?$allocator@_W@2@@std@@QBE_NXZ
  00ae2	0f b6 c0	 movzx	 eax, al
  00ae5	85 c0		 test	 eax, eax
  00ae7	75 4d		 jne	 SHORT $L197988

; 194  : 						{
; 195  : 							strOutput.replace(strOutput.end() - 2, strOutput.end(), L"...");

  00ae9	68 00 00 00 00	 push	 OFFSET FLAT:$SG197992
  00aee	8d 8d 5c fd ff
	ff		 lea	 ecx, DWORD PTR $T199506[ebp]
  00af4	51		 push	 ecx
  00af5	8d 8d 20 fe ff
	ff		 lea	 ecx, DWORD PTR _strOutput$197961[ebp]
  00afb	ff 15 00 00 00
	00		 call	 DWORD PTR __imp_?end@?$basic_string@_WU?$char_traits@_W@std@@V?$allocator@_W@2@@std@@QAE?AViterator@12@XZ
  00b01	8b 10		 mov	 edx, DWORD PTR [eax]
  00b03	52		 push	 edx
  00b04	6a 02		 push	 2
  00b06	8d 85 54 fd ff
	ff		 lea	 eax, DWORD PTR $T199508[ebp]
  00b0c	50		 push	 eax
  00b0d	8d 8d 58 fd ff
	ff		 lea	 ecx, DWORD PTR $T199507[ebp]
  00b13	51		 push	 ecx
  00b14	8d 8d 20 fe ff
	ff		 lea	 ecx, DWORD PTR _strOutput$197961[ebp]
  00b1a	ff 15 00 00 00
	00		 call	 DWORD PTR __imp_?end@?$basic_string@_WU?$char_traits@_W@std@@V?$allocator@_W@2@@std@@QAE?AViterator@12@XZ
  00b20	8b c8		 mov	 ecx, eax
  00b22	e8 00 00 00 00	 call	 ??Giterator@?$basic_string@_WU?$char_traits@_W@std@@V?$allocator@_W@2@@std@@QBE?AV012@H@Z ; std::basic_string<wchar_t,std::char_traits<wchar_t>,std::allocator<wchar_t> >::iterator::operator-
  00b27	8b 10		 mov	 edx, DWORD PTR [eax]
  00b29	52		 push	 edx
  00b2a	8d 8d 20 fe ff
	ff		 lea	 ecx, DWORD PTR _strOutput$197961[ebp]
  00b30	ff 15 00 00 00
	00		 call	 DWORD PTR __imp_?replace@?$basic_string@_WU?$char_traits@_W@std@@V?$allocator@_W@2@@std@@QAEAAV12@Viterator@12@0PB_W@Z
$L197988:

; 196  : 						}
; 197  : //					}
; 198  : 					//else
; 199  : 					//{
; 200  : 					//	strOutput = strline;
; 201  : 					//	strline = L"";
; 202  : 					//}
; 203  : 					RECT output_rect = {rect.left, rect.top + (size.cy + line_spacing) * out_line, rect.right,

  00b36	8b 45 c4	 mov	 eax, DWORD PTR _rect$[ebp]
  00b39	89 85 44 fe ff
	ff		 mov	 DWORD PTR _output_rect$197993[ebp], eax
  00b3f	8b 8d ec fe ff
	ff		 mov	 ecx, DWORD PTR _size$197941[ebp+4]
  00b45	03 8d 54 fe ff
	ff		 add	 ecx, DWORD PTR _line_spacing$197938[ebp]
  00b4b	0f af 8d 58 fe
	ff ff		 imul	 ecx, DWORD PTR _out_line$197937[ebp]
  00b52	03 4d c8	 add	 ecx, DWORD PTR _rect$[ebp+4]
  00b55	89 8d 48 fe ff
	ff		 mov	 DWORD PTR _output_rect$197993[ebp+4], ecx
  00b5b	8b 55 cc	 mov	 edx, DWORD PTR _rect$[ebp+8]
  00b5e	89 95 4c fe ff
	ff		 mov	 DWORD PTR _output_rect$197993[ebp+8], edx

; 204  : 						rect.top + (size.cy + line_spacing) * (out_line + 1)};

  00b64	8b 85 ec fe ff
	ff		 mov	 eax, DWORD PTR _size$197941[ebp+4]
  00b6a	03 85 54 fe ff
	ff		 add	 eax, DWORD PTR _line_spacing$197938[ebp]
  00b70	8b 8d 58 fe ff
	ff		 mov	 ecx, DWORD PTR _out_line$197937[ebp]
  00b76	83 c1 01	 add	 ecx, 1
  00b79	0f af c1	 imul	 eax, ecx
  00b7c	03 45 c8	 add	 eax, DWORD PTR _rect$[ebp+4]
  00b7f	89 85 50 fe ff
	ff		 mov	 DWORD PTR _output_rect$197993[ebp+12], eax

; 205  : 					::DrawTextW(
; 206  : 						dc.m_hDC,
; 207  : 						strOutput.c_str(),
; 208  : 						strOutput.size(),
; 209  : 						&output_rect,
; 210  : 						DT_WORDBREAK|DT_END_ELLIPSIS|DT_EDITCONTROL|DT_EXTERNALLEADING|DT_NOPREFIX
; 211  : 						);

  00b85	68 10 aa 00 00	 push	 43536			; 0000aa10H
  00b8a	8d 95 44 fe ff
	ff		 lea	 edx, DWORD PTR _output_rect$197993[ebp]
  00b90	52		 push	 edx
  00b91	8d 8d 20 fe ff
	ff		 lea	 ecx, DWORD PTR _strOutput$197961[ebp]
  00b97	ff 15 00 00 00
	00		 call	 DWORD PTR __imp_?size@?$basic_string@_WU?$char_traits@_W@std@@V?$allocator@_W@2@@std@@QBEIXZ
  00b9d	50		 push	 eax
  00b9e	8d 8d 20 fe ff
	ff		 lea	 ecx, DWORD PTR _strOutput$197961[ebp]
  00ba4	ff 15 00 00 00
	00		 call	 DWORD PTR __imp_?c_str@?$basic_string@_WU?$char_traits@_W@std@@V?$allocator@_W@2@@std@@QBEPB_WXZ
  00baa	50		 push	 eax
  00bab	8b 85 70 ff ff
	ff		 mov	 eax, DWORD PTR _dc$[ebp+4]
  00bb1	50		 push	 eax
  00bb2	ff 15 00 00 00
	00		 call	 DWORD PTR __imp__DrawTextW@20

; 212  : 					if(++out_line >= line_num)

  00bb8	8b 8d 58 fe ff
	ff		 mov	 ecx, DWORD PTR _out_line$197937[ebp]
  00bbe	83 c1 01	 add	 ecx, 1
  00bc1	89 8d 58 fe ff
	ff		 mov	 DWORD PTR _out_line$197937[ebp], ecx
  00bc7	8b 95 58 fe ff
	ff		 mov	 edx, DWORD PTR _out_line$197937[ebp]
  00bcd	3b 95 14 ff ff
	ff		 cmp	 edx, DWORD PTR _line_num$197943[ebp]
  00bd3	7c 12		 jl	 SHORT $L197994

; 213  : 						break;

  00bd5	c6 45 fc 06	 mov	 BYTE PTR __$EHRec$[ebp+8], 6
  00bd9	8d 8d 20 fe ff
	ff		 lea	 ecx, DWORD PTR _strOutput$197961[ebp]
  00bdf	ff 15 00 00 00
	00		 call	 DWORD PTR __imp_??1?$basic_string@_WU?$char_traits@_W@std@@V?$allocator@_W@2@@std@@QAE@XZ
  00be5	eb 15		 jmp	 SHORT $L197956
$L197994:

; 214  : 				}

  00be7	c6 45 fc 06	 mov	 BYTE PTR __$EHRec$[ebp+8], 6
  00beb	8d 8d 20 fe ff
	ff		 lea	 ecx, DWORD PTR _strOutput$197961[ebp]
  00bf1	ff 15 00 00 00
	00		 call	 DWORD PTR __imp_??1?$basic_string@_WU?$char_traits@_W@std@@V?$allocator@_W@2@@std@@QAE@XZ
  00bf7	e9 9b fa ff ff	 jmp	 $L197955
$L197956:

; 215  : 			}

  00bfc	e9 b0 f9 ff ff	 jmp	 $L197946
$L197947:

; 216  : 		}
; 217  : 		else

  00c01	eb 2e		 jmp	 SHORT $L197995
$L197944:

; 218  : 		{
; 219  : 			::DrawTextW(
; 220  : 				dc.m_hDC,
; 221  : 				wszWndText,
; 222  : 				wcslen(wszWndText),
; 223  : 				&rect,
; 224  : 				DT_WORDBREAK|DT_END_ELLIPSIS|DT_EDITCONTROL|DT_EXTERNALLEADING|DT_NOPREFIX
; 225  : 				);

  00c03	68 10 aa 00 00	 push	 43536			; 0000aa10H
  00c08	8d 45 c4	 lea	 eax, DWORD PTR _rect$[ebp]
  00c0b	50		 push	 eax
  00c0c	8b 8d 68 ff ff
	ff		 mov	 ecx, DWORD PTR _wszWndText$[ebp]
  00c12	51		 push	 ecx
  00c13	ff 15 00 00 00
	00		 call	 DWORD PTR __imp__wcslen
  00c19	83 c4 04	 add	 esp, 4
  00c1c	50		 push	 eax
  00c1d	8b 95 68 ff ff
	ff		 mov	 edx, DWORD PTR _wszWndText$[ebp]
  00c23	52		 push	 edx
  00c24	8b 85 70 ff ff
	ff		 mov	 eax, DWORD PTR _dc$[ebp+4]
  00c2a	50		 push	 eax
  00c2b	ff 15 00 00 00
	00		 call	 DWORD PTR __imp__DrawTextW@20
$L197995:

; 226  : 		}
; 227  : 	}

  00c31	c6 45 fc 05	 mov	 BYTE PTR __$EHRec$[ebp+8], 5
  00c35	8d 8d f0 fe ff
	ff		 lea	 ecx, DWORD PTR _strline$197936[ebp]
  00c3b	ff 15 00 00 00
	00		 call	 DWORD PTR __imp_??1?$basic_string@_WU?$char_traits@_W@std@@V?$allocator@_W@2@@std@@QAE@XZ
  00c41	c6 45 fc 02	 mov	 BYTE PTR __$EHRec$[ebp+8], 2
  00c45	8d 8d 5c fe ff
	ff		 lea	 ecx, DWORD PTR _iss$197934[ebp]
  00c4b	ff 15 00 00 00
	00		 call	 DWORD PTR __imp_??_D?$basic_istringstream@_WU?$char_traits@_W@std@@V?$allocator@_W@2@@std@@QAEXXZ
$L197933:

; 228  : 
; 229  : 	//dc.SetTextColor(ltempColor);
; 230  : 	delete[] wszWndText;

  00c51	8b 8d 68 ff ff
	ff		 mov	 ecx, DWORD PTR _wszWndText$[ebp]
  00c57	89 8d 50 fd ff
	ff		 mov	 DWORD PTR $T199509[ebp], ecx
  00c5d	8b 95 50 fd ff
	ff		 mov	 edx, DWORD PTR $T199509[ebp]
  00c63	52		 push	 edx
  00c64	e8 00 00 00 00	 call	 ??_V@YAXPAX@Z		; operator delete[]
  00c69	83 c4 04	 add	 esp, 4

; 231  : 	dc.SelectObject(oldFont);

  00c6c	8b 85 1c ff ff
	ff		 mov	 eax, DWORD PTR _oldFont$[ebp]
  00c72	50		 push	 eax
  00c73	8d 8d 6c ff ff
	ff		 lea	 ecx, DWORD PTR _dc$[ebp]
  00c79	e8 00 00 00 00	 call	 ?SelectObject@CDC@@UAEPAVCFont@@PAV2@@Z ; CDC::SelectObject

; 232  : 	font.DeleteObject();

  00c7e	8d 8d 20 ff ff
	ff		 lea	 ecx, DWORD PTR _font$[ebp]
  00c84	e8 00 00 00 00	 call	 ?DeleteObject@CGdiObject@@QAEHXZ ; CGdiObject::DeleteObject

; 233  : }

  00c89	c6 45 fc 01	 mov	 BYTE PTR __$EHRec$[ebp+8], 1
  00c8d	8d 4d d4	 lea	 ecx, DWORD PTR _wszPunctuation$[ebp]
  00c90	ff 15 00 00 00
	00		 call	 DWORD PTR __imp_??1?$basic_string@_WU?$char_traits@_W@std@@V?$allocator@_W@2@@std@@QAE@XZ
  00c96	c6 45 fc 00	 mov	 BYTE PTR __$EHRec$[ebp+8], 0
  00c9a	8d 8d 20 ff ff
	ff		 lea	 ecx, DWORD PTR _font$[ebp]
  00ca0	e8 00 00 00 00	 call	 ??1CFont@@UAE@XZ	; CFont::~CFont
  00ca5	c7 45 fc ff ff
	ff ff		 mov	 DWORD PTR __$EHRec$[ebp+8], -1
  00cac	8d 8d 6c ff ff
	ff		 lea	 ecx, DWORD PTR _dc$[ebp]
  00cb2	e8 00 00 00 00	 call	 ??1CPaintDC@@UAE@XZ	; CPaintDC::~CPaintDC
$L197914:
  00cb7	8b 4d f4	 mov	 ecx, DWORD PTR __$EHRec$[ebp]
  00cba	64 89 0d 00 00
	00 00		 mov	 DWORD PTR fs:__except_list, ecx
  00cc1	8b 4d f0	 mov	 ecx, DWORD PTR __$ArrayPad$[ebp]
  00cc4	e8 00 00 00 00	 call	 @__security_check_cookie@4
  00cc9	8b e5		 mov	 esp, ebp
  00ccb	5d		 pop	 ebp
  00ccc	c3		 ret	 0
_TEXT	ENDS
text$x	SEGMENT
$L199510:
  00071	8d 8d 6c ff ff
	ff		 lea	 ecx, DWORD PTR _dc$[ebp]
  00077	e9 00 00 00 00	 jmp	 ??1CPaintDC@@UAE@XZ	; CPaintDC::~CPaintDC
$L199511:
  0007c	8d 8d 20 ff ff
	ff		 lea	 ecx, DWORD PTR _font$[ebp]
  00082	e9 00 00 00 00	 jmp	 ??1CFont@@UAE@XZ	; CFont::~CFont
$L199512:
  00087	8d 4d d4	 lea	 ecx, DWORD PTR _wszPunctuation$[ebp]
  0008a	ff 25 00 00 00
	00		 jmp	 DWORD PTR __imp_??1?$basic_string@_WU?$char_traits@_W@std@@V?$allocator@_W@2@@std@@QAE@XZ
$L199513:
  00090	8d 8d fc fd ff
	ff		 lea	 ecx, DWORD PTR $T199494[ebp]
  00096	ff 25 00 00 00
	00		 jmp	 DWORD PTR __imp_??1?$basic_string@_WU?$char_traits@_W@std@@V?$allocator@_W@2@@std@@QAE@XZ
$L199514:
  0009c	8d 8d 5c fe ff
	ff		 lea	 ecx, DWORD PTR _iss$197934[ebp]
  000a2	ff 25 00 00 00
	00		 jmp	 DWORD PTR __imp_??_D?$basic_istringstream@_WU?$char_traits@_W@std@@V?$allocator@_W@2@@std@@QAEXXZ
$L199515:
  000a8	8d 8d f0 fe ff
	ff		 lea	 ecx, DWORD PTR _strline$197936[ebp]
  000ae	ff 25 00 00 00
	00		 jmp	 DWORD PTR __imp_??1?$basic_string@_WU?$char_traits@_W@std@@V?$allocator@_W@2@@std@@QAE@XZ
$L199516:
  000b4	8d 8d 20 fe ff
	ff		 lea	 ecx, DWORD PTR _strOutput$197961[ebp]
  000ba	ff 25 00 00 00
	00		 jmp	 DWORD PTR __imp_??1?$basic_string@_WU?$char_traits@_W@std@@V?$allocator@_W@2@@std@@QAE@XZ
$L199517:
  000c0	8d 8d d0 fd ff
	ff		 lea	 ecx, DWORD PTR $T199501[ebp]
  000c6	ff 25 00 00 00
	00		 jmp	 DWORD PTR __imp_??1?$basic_string@_WU?$char_traits@_W@std@@V?$allocator@_W@2@@std@@QAE@XZ
$L199518:
  000cc	8d 8d b4 fd ff
	ff		 lea	 ecx, DWORD PTR $T199502[ebp]
  000d2	ff 25 00 00 00
	00		 jmp	 DWORD PTR __imp_??1?$basic_string@_WU?$char_traits@_W@std@@V?$allocator@_W@2@@std@@QAE@XZ
$L199519:
  000d8	8d 8d 98 fd ff
	ff		 lea	 ecx, DWORD PTR $T199503[ebp]
  000de	ff 25 00 00 00
	00		 jmp	 DWORD PTR __imp_??1?$basic_string@_WU?$char_traits@_W@std@@V?$allocator@_W@2@@std@@QAE@XZ
$L199520:
  000e4	8d 8d 7c fd ff
	ff		 lea	 ecx, DWORD PTR $T199504[ebp]
  000ea	ff 25 00 00 00
	00		 jmp	 DWORD PTR __imp_??1?$basic_string@_WU?$char_traits@_W@std@@V?$allocator@_W@2@@std@@QAE@XZ
$L199521:
  000f0	8d 8d 60 fd ff
	ff		 lea	 ecx, DWORD PTR $T199505[ebp]
  000f6	ff 25 00 00 00
	00		 jmp	 DWORD PTR __imp_??1?$basic_string@_WU?$char_traits@_W@std@@V?$allocator@_W@2@@std@@QAE@XZ
__ehhandler$?OnPaint@CxStaticText@@IAEXXZ:
  000fc	b8 00 00 00 00	 mov	 eax, OFFSET FLAT:$T199523
  00101	e9 00 00 00 00	 jmp	 ___CxxFrameHandler
text$x	ENDS
?OnPaint@CxStaticText@@IAEXXZ ENDP			; CxStaticText::OnPaint
PUBLIC	?Invalidate@CWnd@@QAEXH@Z			; CWnd::Invalidate
PUBLIC	?InvalidateParent@CxStaticText@@IAEXXZ		; CxStaticText::InvalidateParent
; Function compile flags: /Odt
_TEXT	SEGMENT
_this$ = -4						; size = 4
_bEnable$ = 8						; size = 4
?OnEnable@CxStaticText@@IAEXH@Z PROC NEAR		; CxStaticText::OnEnable
; _this$ = ecx

; 238  : {

  00cd0	55		 push	 ebp
  00cd1	8b ec		 mov	 ebp, esp
  00cd3	51		 push	 ecx
  00cd4	89 4d fc	 mov	 DWORD PTR _this$[ebp], ecx

; 239  : 	// the background must be drawn by the object owner
; 240  : 	InvalidateParent();

  00cd7	8b 4d fc	 mov	 ecx, DWORD PTR _this$[ebp]
  00cda	e8 00 00 00 00	 call	 ?InvalidateParent@CxStaticText@@IAEXXZ ; CxStaticText::InvalidateParent

; 241  : 	Invalidate(0);	//update screen

  00cdf	6a 00		 push	 0
  00ce1	8b 4d fc	 mov	 ecx, DWORD PTR _this$[ebp]
  00ce4	e8 00 00 00 00	 call	 ?Invalidate@CWnd@@QAEXH@Z ; CWnd::Invalidate

; 242  : }

  00ce9	8b e5		 mov	 esp, ebp
  00ceb	5d		 pop	 ebp
  00cec	c2 04 00	 ret	 4
?OnEnable@CxStaticText@@IAEXH@Z ENDP			; CxStaticText::OnEnable
_TEXT	ENDS
PUBLIC	?SetTextColor@CxStaticText@@QAEKK@Z		; CxStaticText::SetTextColor
; Function compile flags: /Odt
_TEXT	SEGMENT
_this$ = -8						; size = 4
_tmp_color$ = -4					; size = 4
_new_color$ = 8						; size = 4
?SetTextColor@CxStaticText@@QAEKK@Z PROC NEAR		; CxStaticText::SetTextColor
; _this$ = ecx

; 246  : {

  00cf0	55		 push	 ebp
  00cf1	8b ec		 mov	 ebp, esp
  00cf3	83 ec 08	 sub	 esp, 8
  00cf6	89 4d f8	 mov	 DWORD PTR _this$[ebp], ecx

; 247  : 	COLORREF tmp_color=m_TextColor;

  00cf9	8b 45 f8	 mov	 eax, DWORD PTR _this$[ebp]
  00cfc	8b 48 60	 mov	 ecx, DWORD PTR [eax+96]
  00cff	89 4d fc	 mov	 DWORD PTR _tmp_color$[ebp], ecx

; 248  : 	m_ActualColor=m_TextColor=new_color;

  00d02	8b 55 f8	 mov	 edx, DWORD PTR _this$[ebp]
  00d05	8b 45 08	 mov	 eax, DWORD PTR _new_color$[ebp]
  00d08	89 42 60	 mov	 DWORD PTR [edx+96], eax
  00d0b	8b 4d f8	 mov	 ecx, DWORD PTR _this$[ebp]
  00d0e	8b 55 08	 mov	 edx, DWORD PTR _new_color$[ebp]
  00d11	89 51 64	 mov	 DWORD PTR [ecx+100], edx

; 249  : 	Invalidate(0);				//update screen

  00d14	6a 00		 push	 0
  00d16	8b 4d f8	 mov	 ecx, DWORD PTR _this$[ebp]
  00d19	e8 00 00 00 00	 call	 ?Invalidate@CWnd@@QAEXH@Z ; CWnd::Invalidate

; 250  : 	return tmp_color;			//returns the previous color

  00d1e	8b 45 fc	 mov	 eax, DWORD PTR _tmp_color$[ebp]

; 251  : }

  00d21	8b e5		 mov	 esp, ebp
  00d23	5d		 pop	 ebp
  00d24	c2 04 00	 ret	 4
?SetTextColor@CxStaticText@@QAEKK@Z ENDP		; CxStaticText::SetTextColor
_TEXT	ENDS
PUBLIC	?SetBlinkColor@CxStaticText@@QAEKK@Z		; CxStaticText::SetBlinkColor
; Function compile flags: /Odt
_TEXT	SEGMENT
_this$ = -8						; size = 4
_tmp_color$ = -4					; size = 4
_new_color$ = 8						; size = 4
?SetBlinkColor@CxStaticText@@QAEKK@Z PROC NEAR		; CxStaticText::SetBlinkColor
; _this$ = ecx

; 255  : {

  00d30	55		 push	 ebp
  00d31	8b ec		 mov	 ebp, esp
  00d33	83 ec 08	 sub	 esp, 8
  00d36	89 4d f8	 mov	 DWORD PTR _this$[ebp], ecx

; 256  : 	COLORREF tmp_color=m_BlinkColor;

  00d39	8b 45 f8	 mov	 eax, DWORD PTR _this$[ebp]
  00d3c	8b 48 5c	 mov	 ecx, DWORD PTR [eax+92]
  00d3f	89 4d fc	 mov	 DWORD PTR _tmp_color$[ebp], ecx

; 257  : 	m_BlinkColor=new_color;

  00d42	8b 55 f8	 mov	 edx, DWORD PTR _this$[ebp]
  00d45	8b 45 08	 mov	 eax, DWORD PTR _new_color$[ebp]
  00d48	89 42 5c	 mov	 DWORD PTR [edx+92], eax

; 258  : 	return tmp_color;			//returns the previous color

  00d4b	8b 45 fc	 mov	 eax, DWORD PTR _tmp_color$[ebp]

; 259  : }

  00d4e	8b e5		 mov	 esp, ebp
  00d50	5d		 pop	 ebp
  00d51	c2 04 00	 ret	 4
?SetBlinkColor@CxStaticText@@QAEKK@Z ENDP		; CxStaticText::SetBlinkColor
_TEXT	ENDS
PUBLIC	?SetBackgroundColor@CxStaticText@@QAEKK@Z	; CxStaticText::SetBackgroundColor
; Function compile flags: /Odt
_TEXT	SEGMENT
_this$ = -8						; size = 4
_tmp_color$ = -4					; size = 4
_new_color$ = 8						; size = 4
?SetBackgroundColor@CxStaticText@@QAEKK@Z PROC NEAR	; CxStaticText::SetBackgroundColor
; _this$ = ecx

; 262  : {

  00d60	55		 push	 ebp
  00d61	8b ec		 mov	 ebp, esp
  00d63	83 ec 08	 sub	 esp, 8
  00d66	89 4d f8	 mov	 DWORD PTR _this$[ebp], ecx

; 263  : 	COLORREF tmp_color=m_BackgroundColor;

  00d69	8b 45 f8	 mov	 eax, DWORD PTR _this$[ebp]
  00d6c	8b 48 58	 mov	 ecx, DWORD PTR [eax+88]
  00d6f	89 4d fc	 mov	 DWORD PTR _tmp_color$[ebp], ecx

; 264  : 	m_BackgroundColor=new_color;

  00d72	8b 55 f8	 mov	 edx, DWORD PTR _this$[ebp]
  00d75	8b 45 08	 mov	 eax, DWORD PTR _new_color$[ebp]
  00d78	89 42 58	 mov	 DWORD PTR [edx+88], eax

; 265  : 	return tmp_color;			//returns the previous color

  00d7b	8b 45 fc	 mov	 eax, DWORD PTR _tmp_color$[ebp]

; 266  : }

  00d7e	8b e5		 mov	 esp, ebp
  00d80	5d		 pop	 ebp
  00d81	c2 04 00	 ret	 4
?SetBackgroundColor@CxStaticText@@QAEKK@Z ENDP		; CxStaticText::SetBackgroundColor
_TEXT	ENDS
PUBLIC	?SetTimer@CWnd@@QAEIIIP6GXPAUHWND__@@IIK@Z@Z	; CWnd::SetTimer
PUBLIC	?KillTimer@CWnd@@QAEHI@Z			; CWnd::KillTimer
PUBLIC	?SetBlink@CxStaticText@@QAEXHHH@Z		; CxStaticText::SetBlink
; Function compile flags: /Odt
_TEXT	SEGMENT
_this$ = -4						; size = 4
_bBlink$ = 8						; size = 4
_blink_time$ = 12					; size = 4
_blink_count$ = 16					; size = 4
?SetBlink@CxStaticText@@QAEXHHH@Z PROC NEAR		; CxStaticText::SetBlink
; _this$ = ecx

; 270  : {

  00d90	55		 push	 ebp
  00d91	8b ec		 mov	 ebp, esp
  00d93	51		 push	 ecx
  00d94	89 4d fc	 mov	 DWORD PTR _this$[ebp], ecx

; 271  : 	if (blink_count<0){

  00d97	83 7d 10 00	 cmp	 DWORD PTR _blink_count$[ebp], 0
  00d9b	7d 0c		 jge	 SHORT $L198024

; 272  : 		m_BlinkCounter=0;

  00d9d	8b 45 fc	 mov	 eax, DWORD PTR _this$[ebp]
  00da0	c7 40 54 00 00
	00 00		 mov	 DWORD PTR [eax+84], 0

; 273  : 	} else {

  00da7	eb 0b		 jmp	 SHORT $L198025
$L198024:

; 274  : 		m_BlinkCounter=2*blink_count;

  00da9	8b 4d 10	 mov	 ecx, DWORD PTR _blink_count$[ebp]
  00dac	d1 e1		 shl	 ecx, 1
  00dae	8b 55 fc	 mov	 edx, DWORD PTR _this$[ebp]
  00db1	89 4a 54	 mov	 DWORD PTR [edx+84], ecx
$L198025:

; 275  : 	}
; 276  : 
; 277  : 	if(bBlink){

  00db4	83 7d 08 00	 cmp	 DWORD PTR _bBlink$[ebp], 0
  00db8	74 27		 je	 SHORT $L198026

; 278  : 		if (m_TimerID==0) m_TimerID=(UINT)(SetTimer(1, (UINT)blink_time,NULL));

  00dba	8b 45 fc	 mov	 eax, DWORD PTR _this$[ebp]
  00dbd	83 b8 80 00 00
	00 00		 cmp	 DWORD PTR [eax+128], 0
  00dc4	75 19		 jne	 SHORT $L198027
  00dc6	6a 00		 push	 0
  00dc8	8b 4d 0c	 mov	 ecx, DWORD PTR _blink_time$[ebp]
  00dcb	51		 push	 ecx
  00dcc	6a 01		 push	 1
  00dce	8b 4d fc	 mov	 ecx, DWORD PTR _this$[ebp]
  00dd1	e8 00 00 00 00	 call	 ?SetTimer@CWnd@@QAEIIIP6GXPAUHWND__@@IIK@Z@Z ; CWnd::SetTimer
  00dd6	8b 55 fc	 mov	 edx, DWORD PTR _this$[ebp]
  00dd9	89 82 80 00 00
	00		 mov	 DWORD PTR [edx+128], eax
$L198027:

; 279  : 	} else {

  00ddf	eb 2b		 jmp	 SHORT $L198023
$L198026:

; 280  : 		if (m_TimerID!=0){

  00de1	8b 45 fc	 mov	 eax, DWORD PTR _this$[ebp]
  00de4	83 b8 80 00 00
	00 00		 cmp	 DWORD PTR [eax+128], 0
  00deb	74 1f		 je	 SHORT $L198023

; 281  : 			KillTimer(m_TimerID);

  00ded	8b 4d fc	 mov	 ecx, DWORD PTR _this$[ebp]
  00df0	8b 91 80 00 00
	00		 mov	 edx, DWORD PTR [ecx+128]
  00df6	52		 push	 edx
  00df7	8b 4d fc	 mov	 ecx, DWORD PTR _this$[ebp]
  00dfa	e8 00 00 00 00	 call	 ?KillTimer@CWnd@@QAEHI@Z ; CWnd::KillTimer

; 282  : 			m_TimerID=0;

  00dff	8b 45 fc	 mov	 eax, DWORD PTR _this$[ebp]
  00e02	c7 80 80 00 00
	00 00 00 00 00	 mov	 DWORD PTR [eax+128], 0
$L198023:

; 283  : 		}
; 284  : 	}
; 285  : }

  00e0c	8b e5		 mov	 esp, ebp
  00e0e	5d		 pop	 ebp
  00e0f	c2 0c 00	 ret	 12			; 0000000cH
?SetBlink@CxStaticText@@QAEXHHH@Z ENDP			; CxStaticText::SetBlink
_TEXT	ENDS
PUBLIC	?OnTimer@CWnd@@IAEXI@Z				; CWnd::OnTimer
; Function compile flags: /Odt
_TEXT	SEGMENT
_this$ = -4						; size = 4
_nIDEvent$ = 8						; size = 4
?OnTimer@CxStaticText@@IAEXI@Z PROC NEAR		; CxStaticText::OnTimer
; _this$ = ecx

; 288  : {

  00e20	55		 push	 ebp
  00e21	8b ec		 mov	 ebp, esp
  00e23	51		 push	 ecx
  00e24	89 4d fc	 mov	 DWORD PTR _this$[ebp], ecx

; 289  : 	if (nIDEvent==m_TimerID){

  00e27	8b 45 fc	 mov	 eax, DWORD PTR _this$[ebp]
  00e2a	8b 4d 08	 mov	 ecx, DWORD PTR _nIDEvent$[ebp]
  00e2d	3b 88 80 00 00
	00		 cmp	 ecx, DWORD PTR [eax+128]
  00e33	75 7e		 jne	 SHORT $L198036

; 290  : 		if (m_BlinkCounter>0){

  00e35	8b 55 fc	 mov	 edx, DWORD PTR _this$[ebp]
  00e38	83 7a 54 00	 cmp	 DWORD PTR [edx+84], 0
  00e3c	7e 43		 jle	 SHORT $L198037

; 291  : 			m_BlinkCounter--;

  00e3e	8b 45 fc	 mov	 eax, DWORD PTR _this$[ebp]
  00e41	8b 48 54	 mov	 ecx, DWORD PTR [eax+84]
  00e44	83 e9 01	 sub	 ecx, 1
  00e47	8b 55 fc	 mov	 edx, DWORD PTR _this$[ebp]
  00e4a	89 4a 54	 mov	 DWORD PTR [edx+84], ecx

; 292  : 			if (m_BlinkCounter==0){

  00e4d	8b 45 fc	 mov	 eax, DWORD PTR _this$[ebp]
  00e50	83 78 54 00	 cmp	 DWORD PTR [eax+84], 0
  00e54	75 2b		 jne	 SHORT $L198037

; 293  : 				if (m_TimerID!=0){

  00e56	8b 4d fc	 mov	 ecx, DWORD PTR _this$[ebp]
  00e59	83 b9 80 00 00
	00 00		 cmp	 DWORD PTR [ecx+128], 0
  00e60	74 1f		 je	 SHORT $L198037

; 294  : 					KillTimer(m_TimerID);

  00e62	8b 55 fc	 mov	 edx, DWORD PTR _this$[ebp]
  00e65	8b 82 80 00 00
	00		 mov	 eax, DWORD PTR [edx+128]
  00e6b	50		 push	 eax
  00e6c	8b 4d fc	 mov	 ecx, DWORD PTR _this$[ebp]
  00e6f	e8 00 00 00 00	 call	 ?KillTimer@CWnd@@QAEHI@Z ; CWnd::KillTimer

; 295  : 					m_TimerID=0;

  00e74	8b 4d fc	 mov	 ecx, DWORD PTR _this$[ebp]
  00e77	c7 81 80 00 00
	00 00 00 00 00	 mov	 DWORD PTR [ecx+128], 0
$L198037:

; 296  : 				}
; 297  : 			}
; 298  : 		}
; 299  : 		if (m_ActualColor==m_TextColor)	m_ActualColor=m_BlinkColor;

  00e81	8b 55 fc	 mov	 edx, DWORD PTR _this$[ebp]
  00e84	8b 45 fc	 mov	 eax, DWORD PTR _this$[ebp]
  00e87	8b 4a 64	 mov	 ecx, DWORD PTR [edx+100]
  00e8a	3b 48 60	 cmp	 ecx, DWORD PTR [eax+96]
  00e8d	75 0e		 jne	 SHORT $L198040
  00e8f	8b 55 fc	 mov	 edx, DWORD PTR _this$[ebp]
  00e92	8b 45 fc	 mov	 eax, DWORD PTR _this$[ebp]
  00e95	8b 48 5c	 mov	 ecx, DWORD PTR [eax+92]
  00e98	89 4a 64	 mov	 DWORD PTR [edx+100], ecx

; 300  : 		else	m_ActualColor=m_TextColor;

  00e9b	eb 0c		 jmp	 SHORT $L198041
$L198040:
  00e9d	8b 55 fc	 mov	 edx, DWORD PTR _this$[ebp]
  00ea0	8b 45 fc	 mov	 eax, DWORD PTR _this$[ebp]
  00ea3	8b 48 60	 mov	 ecx, DWORD PTR [eax+96]
  00ea6	89 4a 64	 mov	 DWORD PTR [edx+100], ecx
$L198041:

; 301  : 		Invalidate(0);

  00ea9	6a 00		 push	 0
  00eab	8b 4d fc	 mov	 ecx, DWORD PTR _this$[ebp]
  00eae	e8 00 00 00 00	 call	 ?Invalidate@CWnd@@QAEXH@Z ; CWnd::Invalidate
$L198036:

; 302  : 	}
; 303  : 	CStatic::OnTimer(nIDEvent);

  00eb3	8b 55 08	 mov	 edx, DWORD PTR _nIDEvent$[ebp]
  00eb6	52		 push	 edx
  00eb7	8b 4d fc	 mov	 ecx, DWORD PTR _this$[ebp]
  00eba	e8 00 00 00 00	 call	 ?OnTimer@CWnd@@IAEXI@Z	; CWnd::OnTimer

; 304  : }

  00ebf	8b e5		 mov	 esp, ebp
  00ec1	5d		 pop	 ebp
  00ec2	c2 04 00	 ret	 4
?OnTimer@CxStaticText@@IAEXI@Z ENDP			; CxStaticText::OnTimer
_TEXT	ENDS
PUBLIC	?SetSingleLine@CxStaticText@@QAEX_N@Z		; CxStaticText::SetSingleLine
; Function compile flags: /Odt
_TEXT	SEGMENT
_this$ = -4						; size = 4
_single$ = 8						; size = 1
?SetSingleLine@CxStaticText@@QAEX_N@Z PROC NEAR		; CxStaticText::SetSingleLine
; _this$ = ecx

; 308  : {

  00ed0	55		 push	 ebp
  00ed1	8b ec		 mov	 ebp, esp
  00ed3	51		 push	 ecx
  00ed4	89 4d fc	 mov	 DWORD PTR _this$[ebp], ecx

; 309  : 	m_SingleLine = single;

  00ed7	8b 45 fc	 mov	 eax, DWORD PTR _this$[ebp]
  00eda	8a 4d 08	 mov	 cl, BYTE PTR _single$[ebp]
  00edd	88 48 68	 mov	 BYTE PTR [eax+104], cl

; 310  : }

  00ee0	8b e5		 mov	 esp, ebp
  00ee2	5d		 pop	 ebp
  00ee3	c2 04 00	 ret	 4
?SetSingleLine@CxStaticText@@QAEX_N@Z ENDP		; CxStaticText::SetSingleLine
_TEXT	ENDS
PUBLIC	?SetUnderLine@CxStaticText@@QAEX_N@Z		; CxStaticText::SetUnderLine
; Function compile flags: /Odt
_TEXT	SEGMENT
_this$ = -4						; size = 4
_under$ = 8						; size = 1
?SetUnderLine@CxStaticText@@QAEX_N@Z PROC NEAR		; CxStaticText::SetUnderLine
; _this$ = ecx

; 315  : {

  00ef0	55		 push	 ebp
  00ef1	8b ec		 mov	 ebp, esp
  00ef3	51		 push	 ecx
  00ef4	89 4d fc	 mov	 DWORD PTR _this$[ebp], ecx

; 316  : 	m_UnderLine = under;

  00ef7	8b 45 fc	 mov	 eax, DWORD PTR _this$[ebp]
  00efa	8a 4d 08	 mov	 cl, BYTE PTR _under$[ebp]
  00efd	88 48 69	 mov	 BYTE PTR [eax+105], cl

; 317  : }

  00f00	8b e5		 mov	 esp, ebp
  00f02	5d		 pop	 ebp
  00f03	c2 04 00	 ret	 4
?SetUnderLine@CxStaticText@@QAEX_N@Z ENDP		; CxStaticText::SetUnderLine
_TEXT	ENDS
PUBLIC	?SetFontFace@CxStaticText@@QAEXABV?$CStringT@DV?$StrTraitMFC_DLL@DV?$ChTraitsCRT@D@ATL@@@@@ATL@@@Z ; CxStaticText::SetFontFace
EXTRN	__imp_??4?$CStringT@DV?$StrTraitMFC_DLL@DV?$ChTraitsCRT@D@ATL@@@@@ATL@@QAEAAV01@ABV01@@Z:NEAR
; Function compile flags: /Odt
_TEXT	SEGMENT
_this$ = -4						; size = 4
_face$ = 8						; size = 4
?SetFontFace@CxStaticText@@QAEXABV?$CStringT@DV?$StrTraitMFC_DLL@DV?$ChTraitsCRT@D@ATL@@@@@ATL@@@Z PROC NEAR ; CxStaticText::SetFontFace
; _this$ = ecx

; 321  : {

  00f10	55		 push	 ebp
  00f11	8b ec		 mov	 ebp, esp
  00f13	51		 push	 ecx
  00f14	89 4d fc	 mov	 DWORD PTR _this$[ebp], ecx

; 322  : 	m_FontFace = face;

  00f17	8b 45 08	 mov	 eax, DWORD PTR _face$[ebp]
  00f1a	50		 push	 eax
  00f1b	8b 4d fc	 mov	 ecx, DWORD PTR _this$[ebp]
  00f1e	83 c1 70	 add	 ecx, 112		; 00000070H
  00f21	ff 15 00 00 00
	00		 call	 DWORD PTR __imp_??4?$CStringT@DV?$StrTraitMFC_DLL@DV?$ChTraitsCRT@D@ATL@@@@@ATL@@QAEAAV01@ABV01@@Z

; 323  : }

  00f27	8b e5		 mov	 esp, ebp
  00f29	5d		 pop	 ebp
  00f2a	c2 04 00	 ret	 4
?SetFontFace@CxStaticText@@QAEXABV?$CStringT@DV?$StrTraitMFC_DLL@DV?$ChTraitsCRT@D@ATL@@@@@ATL@@@Z ENDP ; CxStaticText::SetFontFace
_TEXT	ENDS
PUBLIC	?SetFontSize@CxStaticText@@QAEXI@Z		; CxStaticText::SetFontSize
; Function compile flags: /Odt
_TEXT	SEGMENT
_this$ = -4						; size = 4
_size$ = 8						; size = 4
?SetFontSize@CxStaticText@@QAEXI@Z PROC NEAR		; CxStaticText::SetFontSize
; _this$ = ecx

; 327  : {

  00f30	55		 push	 ebp
  00f31	8b ec		 mov	 ebp, esp
  00f33	51		 push	 ecx
  00f34	89 4d fc	 mov	 DWORD PTR _this$[ebp], ecx

; 328  : 	m_FontSize = size;

  00f37	8b 45 fc	 mov	 eax, DWORD PTR _this$[ebp]
  00f3a	8b 4d 08	 mov	 ecx, DWORD PTR _size$[ebp]
  00f3d	89 48 74	 mov	 DWORD PTR [eax+116], ecx

; 329  : }

  00f40	8b e5		 mov	 esp, ebp
  00f42	5d		 pop	 ebp
  00f43	c2 04 00	 ret	 4
?SetFontSize@CxStaticText@@QAEXI@Z ENDP			; CxStaticText::SetFontSize
_TEXT	ENDS
PUBLIC	?EnableClick@CxStaticText@@QAEX_N@Z		; CxStaticText::EnableClick
; Function compile flags: /Odt
_TEXT	SEGMENT
_this$ = -4						; size = 4
_enable$ = 8						; size = 1
?EnableClick@CxStaticText@@QAEX_N@Z PROC NEAR		; CxStaticText::EnableClick
; _this$ = ecx

; 332  : {

  00f50	55		 push	 ebp
  00f51	8b ec		 mov	 ebp, esp
  00f53	51		 push	 ecx
  00f54	89 4d fc	 mov	 DWORD PTR _this$[ebp], ecx

; 333  : 	m_EnableClick = enable;

  00f57	8b 45 fc	 mov	 eax, DWORD PTR _this$[ebp]
  00f5a	8a 4d 08	 mov	 cl, BYTE PTR _enable$[ebp]
  00f5d	88 48 6a	 mov	 BYTE PTR [eax+106], cl

; 334  : }

  00f60	8b e5		 mov	 esp, ebp
  00f62	5d		 pop	 ebp
  00f63	c2 04 00	 ret	 4
?EnableClick@CxStaticText@@QAEX_N@Z ENDP		; CxStaticText::EnableClick
_TEXT	ENDS
PUBLIC	?GetWindowRect@CWnd@@QBEXPAUtagRECT@@@Z		; CWnd::GetWindowRect
PUBLIC	?InvalidateRect@CWnd@@QAEXPBUtagRECT@@H@Z	; CWnd::InvalidateRect
PUBLIC	?GetParent@CWnd@@QBEPAV1@XZ			; CWnd::GetParent
EXTRN	?ScreenToClient@CWnd@@QBEXPAUtagRECT@@@Z:NEAR	; CWnd::ScreenToClient
; Function compile flags: /Odt
_TEXT	SEGMENT
_this$ = -24						; size = 4
_rect$198067 = -20					; size = 16
_pParent$ = -4						; size = 4
?InvalidateParent@CxStaticText@@IAEXXZ PROC NEAR	; CxStaticText::InvalidateParent
; _this$ = ecx

; 338  : {

  00f70	55		 push	 ebp
  00f71	8b ec		 mov	 ebp, esp
  00f73	83 ec 18	 sub	 esp, 24			; 00000018H
  00f76	89 4d e8	 mov	 DWORD PTR _this$[ebp], ecx

; 339  : 	CWnd* pParent=GetParent();

  00f79	8b 4d e8	 mov	 ecx, DWORD PTR _this$[ebp]
  00f7c	e8 00 00 00 00	 call	 ?GetParent@CWnd@@QBEPAV1@XZ ; CWnd::GetParent
  00f81	89 45 fc	 mov	 DWORD PTR _pParent$[ebp], eax

; 340  : 	if (pParent){

  00f84	83 7d fc 00	 cmp	 DWORD PTR _pParent$[ebp], 0
  00f88	74 26		 je	 SHORT $L198064

; 341  : 		RECT rect;
; 342  : 		GetWindowRect(&rect);

  00f8a	8d 45 ec	 lea	 eax, DWORD PTR _rect$198067[ebp]
  00f8d	50		 push	 eax
  00f8e	8b 4d e8	 mov	 ecx, DWORD PTR _this$[ebp]
  00f91	e8 00 00 00 00	 call	 ?GetWindowRect@CWnd@@QBEXPAUtagRECT@@@Z ; CWnd::GetWindowRect

; 343  : 		pParent->ScreenToClient(&rect);

  00f96	8d 4d ec	 lea	 ecx, DWORD PTR _rect$198067[ebp]
  00f99	51		 push	 ecx
  00f9a	8b 4d fc	 mov	 ecx, DWORD PTR _pParent$[ebp]
  00f9d	e8 00 00 00 00	 call	 ?ScreenToClient@CWnd@@QBEXPAUtagRECT@@@Z ; CWnd::ScreenToClient

; 344  : 		pParent->InvalidateRect(&rect,0);

  00fa2	6a 00		 push	 0
  00fa4	8d 55 ec	 lea	 edx, DWORD PTR _rect$198067[ebp]
  00fa7	52		 push	 edx
  00fa8	8b 4d fc	 mov	 ecx, DWORD PTR _pParent$[ebp]
  00fab	e8 00 00 00 00	 call	 ?InvalidateRect@CWnd@@QAEXPBUtagRECT@@H@Z ; CWnd::InvalidateRect
$L198064:

; 345  : 	}
; 346  : }

  00fb0	8b e5		 mov	 esp, ebp
  00fb2	5d		 pop	 ebp
  00fb3	c3		 ret	 0
?InvalidateParent@CxStaticText@@IAEXXZ ENDP		; CxStaticText::InvalidateParent
_TEXT	ENDS
PUBLIC	?SetWindowTextA@CxStaticText@@QAEXPBD@Z		; CxStaticText::SetWindowTextA
PUBLIC	?SetToolTipText@CxStaticText@@IAEXV?$CStringT@DV?$StrTraitMFC_DLL@DV?$ChTraitsCRT@D@ATL@@@@@ATL@@@Z ; CxStaticText::SetToolTipText
; Function compile flags: /Odt
_TEXT	SEGMENT
tv88 = -12						; size = 4
_this$ = -8						; size = 4
$T199546 = -4						; size = 4
_lpszString$ = 8					; size = 4
?SetWindowTextA@CxStaticText@@QAEXPBD@Z PROC NEAR	; CxStaticText::SetWindowTextA
; _this$ = ecx

; 349  : {

  00fc0	55		 push	 ebp
  00fc1	8b ec		 mov	 ebp, esp
  00fc3	83 ec 0c	 sub	 esp, 12			; 0000000cH
  00fc6	89 4d f8	 mov	 DWORD PTR _this$[ebp], ecx

; 350  : 	//CStatic::SetWindowText(lpszString);
; 351  : 	m_strWindowText = lpszString;

  00fc9	8b 45 08	 mov	 eax, DWORD PTR _lpszString$[ebp]
  00fcc	50		 push	 eax
  00fcd	8b 4d f8	 mov	 ecx, DWORD PTR _this$[ebp]
  00fd0	83 c1 78	 add	 ecx, 120		; 00000078H
  00fd3	ff 15 00 00 00
	00		 call	 DWORD PTR __imp_??4?$CStringT@DV?$StrTraitMFC_DLL@DV?$ChTraitsCRT@D@ATL@@@@@ATL@@QAEAAV01@PBD@Z

; 352  : 	Invalidate(0);

  00fd9	6a 00		 push	 0
  00fdb	8b 4d f8	 mov	 ecx, DWORD PTR _this$[ebp]
  00fde	e8 00 00 00 00	 call	 ?Invalidate@CWnd@@QAEXH@Z ; CWnd::Invalidate

; 353  : 
; 354  : 	if (m_EnableToolTip)

  00fe3	8b 4d f8	 mov	 ecx, DWORD PTR _this$[ebp]
  00fe6	0f b6 51 7c	 movzx	 edx, BYTE PTR [ecx+124]
  00fea	85 d2		 test	 edx, edx
  00fec	74 1b		 je	 SHORT $L198071

; 355  : 	{
; 356  : 		SetToolTipText(lpszString);

  00fee	51		 push	 ecx
  00fef	8b cc		 mov	 ecx, esp
  00ff1	89 65 fc	 mov	 DWORD PTR $T199546[ebp], esp
  00ff4	8b 45 08	 mov	 eax, DWORD PTR _lpszString$[ebp]
  00ff7	50		 push	 eax
  00ff8	ff 15 00 00 00
	00		 call	 DWORD PTR __imp_??0?$CStringT@DV?$StrTraitMFC_DLL@DV?$ChTraitsCRT@D@ATL@@@@@ATL@@QAE@PBD@Z
  00ffe	89 45 f4	 mov	 DWORD PTR tv88[ebp], eax
  01001	8b 4d f8	 mov	 ecx, DWORD PTR _this$[ebp]
  01004	e8 00 00 00 00	 call	 ?SetToolTipText@CxStaticText@@IAEXV?$CStringT@DV?$StrTraitMFC_DLL@DV?$ChTraitsCRT@D@ATL@@@@@ATL@@@Z ; CxStaticText::SetToolTipText
$L198071:

; 357  : 	}
; 358  : 
; 359  : }

  01009	8b e5		 mov	 esp, ebp
  0100b	5d		 pop	 ebp
  0100c	c2 04 00	 ret	 4
?SetWindowTextA@CxStaticText@@QAEXPBD@Z ENDP		; CxStaticText::SetWindowTextA
_TEXT	ENDS
PUBLIC	?GetDC@CWnd@@QAEPAVCDC@@XZ			; CWnd::GetDC
PUBLIC	?SetSkin@CxStaticText@@QAEXPAVCDibBitmap@@0F@Z	; CxStaticText::SetSkin
PUBLIC	?CreateRgnFromBitmap@CxStaticText@@IAEPAUHRGN__@@PAVCDibBitmap@@K@Z ; CxStaticText::CreateRgnFromBitmap
PUBLIC	?GetBitmapWidth@CxStaticText@@IAEHPAVCDibBitmap@@@Z ; CxStaticText::GetBitmapWidth
PUBLIC	?GetBitmapHeight@CxStaticText@@IAEHPAVCDibBitmap@@@Z ; CxStaticText::GetBitmapHeight
PUBLIC	?SetWindowRgn@CWnd@@QAEHPAUHRGN__@@H@Z		; CWnd::SetWindowRgn
EXTRN	__imp__SelectClipRgn@8:NEAR
EXTRN	__imp__DeleteObject@4:NEAR
EXTRN	?SetWindowPos@CWnd@@QAEHPBV1@HHHHI@Z:NEAR	; CWnd::SetWindowPos
; Function compile flags: /Odt
_TEXT	SEGMENT
tv75 = -16						; size = 4
tv76 = -12						; size = 4
tv70 = -8						; size = 4
_this$ = -4						; size = 4
_abmpNormal$ = 8					; size = 4
_abmpMask$ = 12						; size = 4
_aiDrawmode$ = 16					; size = 2
?SetSkin@CxStaticText@@QAEXPAVCDibBitmap@@0F@Z PROC NEAR ; CxStaticText::SetSkin
; _this$ = ecx

; 362  : {

  01010	55		 push	 ebp
  01011	8b ec		 mov	 ebp, esp
  01013	83 ec 10	 sub	 esp, 16			; 00000010H
  01016	89 4d fc	 mov	 DWORD PTR _this$[ebp], ecx

; 363  : 	mpBmpNormal = abmpNormal;

  01019	8b 45 fc	 mov	 eax, DWORD PTR _this$[ebp]
  0101c	8b 4d 08	 mov	 ecx, DWORD PTR _abmpNormal$[ebp]
  0101f	89 88 88 00 00
	00		 mov	 DWORD PTR [eax+136], ecx

; 364  : 	mpBmpMask = abmpMask;

  01025	8b 55 fc	 mov	 edx, DWORD PTR _this$[ebp]
  01028	8b 45 0c	 mov	 eax, DWORD PTR _abmpMask$[ebp]
  0102b	89 82 8c 00 00
	00		 mov	 DWORD PTR [edx+140], eax

; 365  : 	m_DrawMode=max(0,min(aiDrawmode,2)); 

  01031	0f bf 4d 10	 movsx	 ecx, WORD PTR _aiDrawmode$[ebp]
  01035	83 f9 02	 cmp	 ecx, 2
  01038	7d 09		 jge	 SHORT $L199549
  0103a	0f bf 55 10	 movsx	 edx, WORD PTR _aiDrawmode$[ebp]
  0103e	89 55 f8	 mov	 DWORD PTR tv70[ebp], edx
  01041	eb 07		 jmp	 SHORT $L199550
$L199549:
  01043	c7 45 f8 02 00
	00 00		 mov	 DWORD PTR tv70[ebp], 2
$L199550:
  0104a	83 7d f8 00	 cmp	 DWORD PTR tv70[ebp], 0
  0104e	7d 09		 jge	 SHORT $L199553
  01050	c7 45 f4 00 00
	00 00		 mov	 DWORD PTR tv76[ebp], 0
  01057	eb 1f		 jmp	 SHORT $L199554
$L199553:
  01059	0f bf 45 10	 movsx	 eax, WORD PTR _aiDrawmode$[ebp]
  0105d	83 f8 02	 cmp	 eax, 2
  01060	7d 09		 jge	 SHORT $L199551
  01062	0f bf 4d 10	 movsx	 ecx, WORD PTR _aiDrawmode$[ebp]
  01066	89 4d f0	 mov	 DWORD PTR tv75[ebp], ecx
  01069	eb 07		 jmp	 SHORT $L199552
$L199551:
  0106b	c7 45 f0 02 00
	00 00		 mov	 DWORD PTR tv75[ebp], 2
$L199552:
  01072	8b 55 f0	 mov	 edx, DWORD PTR tv75[ebp]
  01075	89 55 f4	 mov	 DWORD PTR tv76[ebp], edx
$L199554:
  01078	8b 45 fc	 mov	 eax, DWORD PTR _this$[ebp]
  0107b	66 8b 4d f4	 mov	 cx, WORD PTR tv76[ebp]
  0107f	66 89 88 84 00
	00 00		 mov	 WORD PTR [eax+132], cx

; 366  : 	if (abmpMask!=0){		

  01086	83 7d 0c 00	 cmp	 DWORD PTR _abmpMask$[ebp], 0
  0108a	0f 84 a7 00 00
	00		 je	 $L198079

; 367  : 		if (hClipRgn) DeleteObject(hClipRgn);

  01090	8b 55 fc	 mov	 edx, DWORD PTR _this$[ebp]
  01093	83 ba 04 01 00
	00 00		 cmp	 DWORD PTR [edx+260], 0
  0109a	74 10		 je	 SHORT $L198081
  0109c	8b 45 fc	 mov	 eax, DWORD PTR _this$[ebp]
  0109f	8b 88 04 01 00
	00		 mov	 ecx, DWORD PTR [eax+260]
  010a5	51		 push	 ecx
  010a6	ff 15 00 00 00
	00		 call	 DWORD PTR __imp__DeleteObject@4
$L198081:

; 368  : 		hClipRgn = CreateRgnFromBitmap(abmpMask,RGB(255,255,255));

  010ac	68 ff ff ff 00	 push	 16777215		; 00ffffffH
  010b1	8b 55 0c	 mov	 edx, DWORD PTR _abmpMask$[ebp]
  010b4	52		 push	 edx
  010b5	8b 4d fc	 mov	 ecx, DWORD PTR _this$[ebp]
  010b8	e8 00 00 00 00	 call	 ?CreateRgnFromBitmap@CxStaticText@@IAEPAUHRGN__@@PAVCDibBitmap@@K@Z ; CxStaticText::CreateRgnFromBitmap
  010bd	8b 4d fc	 mov	 ecx, DWORD PTR _this$[ebp]
  010c0	89 81 04 01 00
	00		 mov	 DWORD PTR [ecx+260], eax

; 369  : 		if (hClipRgn){

  010c6	8b 55 fc	 mov	 edx, DWORD PTR _this$[ebp]
  010c9	83 ba 04 01 00
	00 00		 cmp	 DWORD PTR [edx+260], 0
  010d0	74 2d		 je	 SHORT $L198088

; 370  : 			SetWindowRgn(hClipRgn, TRUE);

  010d2	6a 01		 push	 1
  010d4	8b 45 fc	 mov	 eax, DWORD PTR _this$[ebp]
  010d7	8b 88 04 01 00
	00		 mov	 ecx, DWORD PTR [eax+260]
  010dd	51		 push	 ecx
  010de	8b 4d fc	 mov	 ecx, DWORD PTR _this$[ebp]
  010e1	e8 00 00 00 00	 call	 ?SetWindowRgn@CWnd@@QAEHPAUHRGN__@@H@Z ; CWnd::SetWindowRgn

; 371  : 			SelectClipRgn((HDC)GetDC(),hClipRgn);

  010e6	8b 55 fc	 mov	 edx, DWORD PTR _this$[ebp]
  010e9	8b 82 04 01 00
	00		 mov	 eax, DWORD PTR [edx+260]
  010ef	50		 push	 eax
  010f0	8b 4d fc	 mov	 ecx, DWORD PTR _this$[ebp]
  010f3	e8 00 00 00 00	 call	 ?GetDC@CWnd@@QAEPAVCDC@@XZ ; CWnd::GetDC
  010f8	50		 push	 eax
  010f9	ff 15 00 00 00
	00		 call	 DWORD PTR __imp__SelectClipRgn@8
$L198088:

; 372  : 		}
; 373  : 		if (m_DrawMode==0){

  010ff	8b 4d fc	 mov	 ecx, DWORD PTR _this$[ebp]
  01102	0f bf 91 84 00
	00 00		 movsx	 edx, WORD PTR [ecx+132]
  01109	85 d2		 test	 edx, edx
  0110b	75 2a		 jne	 SHORT $L198079

; 374  : 			SetWindowPos(NULL,0,0,GetBitmapWidth(abmpMask),
; 375  : 						GetBitmapHeight(abmpMask),SWP_NOZORDER|SWP_NOMOVE);

  0110d	6a 06		 push	 6
  0110f	8b 45 0c	 mov	 eax, DWORD PTR _abmpMask$[ebp]
  01112	50		 push	 eax
  01113	8b 4d fc	 mov	 ecx, DWORD PTR _this$[ebp]
  01116	e8 00 00 00 00	 call	 ?GetBitmapHeight@CxStaticText@@IAEHPAVCDibBitmap@@@Z ; CxStaticText::GetBitmapHeight
  0111b	50		 push	 eax
  0111c	8b 4d 0c	 mov	 ecx, DWORD PTR _abmpMask$[ebp]
  0111f	51		 push	 ecx
  01120	8b 4d fc	 mov	 ecx, DWORD PTR _this$[ebp]
  01123	e8 00 00 00 00	 call	 ?GetBitmapWidth@CxStaticText@@IAEHPAVCDibBitmap@@@Z ; CxStaticText::GetBitmapWidth
  01128	50		 push	 eax
  01129	6a 00		 push	 0
  0112b	6a 00		 push	 0
  0112d	6a 00		 push	 0
  0112f	8b 4d fc	 mov	 ecx, DWORD PTR _this$[ebp]
  01132	e8 00 00 00 00	 call	 ?SetWindowPos@CWnd@@QAEHPBV1@HHHHI@Z ; CWnd::SetWindowPos
$L198079:

; 376  : 		}
; 377  : 	}
; 378  : }

  01137	8b e5		 mov	 esp, ebp
  01139	5d		 pop	 ebp
  0113a	c2 0c 00	 ret	 12			; 0000000cH
?SetSkin@CxStaticText@@QAEXPAVCDibBitmap@@0F@Z ENDP	; CxStaticText::SetSkin
_TEXT	ENDS
PUBLIC	?CreateCompatibleDC@CDC@@QAEHPAV1@@Z		; CDC::CreateCompatibleDC
PUBLIC	?SelectObject@CDC@@QAEPAVCBitmap@@PAV2@@Z	; CDC::SelectObject
PUBLIC	??0CRect@@QAE@HHHH@Z				; CRect::CRect
PUBLIC	?GetPixel@CDC@@QBEKHH@Z				; CDC::GetPixel
PUBLIC	??0CBitmap@@QAE@XZ				; CBitmap::CBitmap
PUBLIC	?CreateCompatibleBitmap@CBitmap@@QAEHPAVCDC@@HH@Z ; CBitmap::CreateCompatibleBitmap
PUBLIC	??1CBitmap@@UAE@XZ				; CBitmap::~CBitmap
EXTRN	??0CDC@@QAE@XZ:NEAR				; CDC::CDC
EXTRN	?DeleteDC@CDC@@QAEHXZ:NEAR			; CDC::DeleteDC
EXTRN	??3@YAXPAX@Z:NEAR				; operator delete
EXTRN	__imp__CombineRgn@16:NEAR
EXTRN	?Draw@CDibBitmap@@QAEHPAVCDC@@HKH@Z:NEAR	; CDibBitmap::Draw
EXTRN	__imp__CreateRectRgn@16:NEAR
EXTRN	_memcpy:NEAR
EXTRN	??1CDC@@UAE@XZ:NEAR				; CDC::~CDC
xdata$x	SEGMENT
$T199567 DD	0ffffffffH
	DD	FLAT:$L199562
	DD	00H
	DD	FLAT:$L199563
$T199565 DD	019930520H
	DD	02H
	DD	FLAT:$T199567
	DD	2 DUP(00H)
	DD	2 DUP(00H)
; Function compile flags: /Odt
xdata$x	ENDS
_TEXT	SEGMENT
_this$ = -156						; size = 4
$T199561 = -152						; size = 4
$T199560 = -148						; size = 4
$T199559 = -144						; size = 4
$T199558 = -140						; size = 4
$T199557 = -136						; size = 16
$T199556 = -120						; size = 4
_hr$198148 = -116					; size = 4
_pRgnDataNew$198131 = -112				; size = 4
_c$198123 = -108					; size = 4
_j$ = -104						; size = 4
_RDHDR$ = -100						; size = 4
_ismask$ = -93						; size = 1
_cy$ = -92						; size = 4
_hBitmap$ = -88						; size = 8
_pRects$ = -80						; size = 4
_hRgn$ = -76						; size = 4
_cx$ = -72						; size = 4
_MAXBUF$ = -68						; size = 4
_i$ = -64						; size = 4
_wasfirst$ = -57					; size = 1
_rect$ = -56						; size = 16
_hdcMem$ = -40						; size = 16
_pRgnData$ = -24					; size = 4
_cBlocks$ = -20						; size = 4
_first$ = -16						; size = 4
__$EHRec$ = -12						; size = 12
_hBmp$ = 8						; size = 4
_color$ = 12						; size = 4
?CreateRgnFromBitmap@CxStaticText@@IAEPAUHRGN__@@PAVCDibBitmap@@K@Z PROC NEAR ; CxStaticText::CreateRgnFromBitmap
; _this$ = ecx

; 380  : {

  01140	55		 push	 ebp
  01141	8b ec		 mov	 ebp, esp
  01143	6a ff		 push	 -1
  01145	68 00 00 00 00	 push	 __ehhandler$?CreateRgnFromBitmap@CxStaticText@@IAEPAUHRGN__@@PAVCDibBitmap@@K@Z
  0114a	64 a1 00 00 00
	00		 mov	 eax, DWORD PTR fs:__except_list
  01150	50		 push	 eax
  01151	64 89 25 00 00
	00 00		 mov	 DWORD PTR fs:__except_list, esp
  01158	81 ec 90 00 00
	00		 sub	 esp, 144		; 00000090H
  0115e	89 8d 64 ff ff
	ff		 mov	 DWORD PTR _this$[ebp], ecx

; 381  : 	int cx = hBmp->m_lpBMIH->biWidth;

  01164	8b 45 08	 mov	 eax, DWORD PTR _hBmp$[ebp]
  01167	8b 48 04	 mov	 ecx, DWORD PTR [eax+4]
  0116a	8b 51 04	 mov	 edx, DWORD PTR [ecx+4]
  0116d	89 55 b8	 mov	 DWORD PTR _cx$[ebp], edx

; 382  : 	int cy = hBmp->m_lpBMIH->biHeight;

  01170	8b 45 08	 mov	 eax, DWORD PTR _hBmp$[ebp]
  01173	8b 48 04	 mov	 ecx, DWORD PTR [eax+4]
  01176	8b 51 08	 mov	 edx, DWORD PTR [ecx+8]
  01179	89 55 a4	 mov	 DWORD PTR _cy$[ebp], edx

; 383  : 	CDC hdcMem;

  0117c	8d 4d d8	 lea	 ecx, DWORD PTR _hdcMem$[ebp]
  0117f	e8 00 00 00 00	 call	 ??0CDC@@QAE@XZ		; CDC::CDC
  01184	c7 45 fc 00 00
	00 00		 mov	 DWORD PTR __$EHRec$[ebp+8], 0

; 384  : 	hdcMem.CreateCompatibleDC(NULL);

  0118b	6a 00		 push	 0
  0118d	8d 4d d8	 lea	 ecx, DWORD PTR _hdcMem$[ebp]
  01190	e8 00 00 00 00	 call	 ?CreateCompatibleDC@CDC@@QAEHPAV1@@Z ; CDC::CreateCompatibleDC

; 385  : 	CBitmap hBitmap;

  01195	8d 4d a8	 lea	 ecx, DWORD PTR _hBitmap$[ebp]
  01198	e8 00 00 00 00	 call	 ??0CBitmap@@QAE@XZ	; CBitmap::CBitmap
  0119d	c6 45 fc 01	 mov	 BYTE PTR __$EHRec$[ebp+8], 1

; 386  : 	hBitmap.CreateCompatibleBitmap(&hdcMem,cx,cy);//dc

  011a1	8b 45 a4	 mov	 eax, DWORD PTR _cy$[ebp]
  011a4	50		 push	 eax
  011a5	8b 4d b8	 mov	 ecx, DWORD PTR _cx$[ebp]
  011a8	51		 push	 ecx
  011a9	8d 55 d8	 lea	 edx, DWORD PTR _hdcMem$[ebp]
  011ac	52		 push	 edx
  011ad	8d 4d a8	 lea	 ecx, DWORD PTR _hBitmap$[ebp]
  011b0	e8 00 00 00 00	 call	 ?CreateCompatibleBitmap@CBitmap@@QAEHPAVCDC@@HH@Z ; CBitmap::CreateCompatibleBitmap

; 387  : 	hdcMem.SelectObject(&hBitmap);

  011b5	8d 45 a8	 lea	 eax, DWORD PTR _hBitmap$[ebp]
  011b8	50		 push	 eax
  011b9	8d 4d d8	 lea	 ecx, DWORD PTR _hdcMem$[ebp]
  011bc	e8 00 00 00 00	 call	 ?SelectObject@CDC@@QAEPAVCBitmap@@PAV2@@Z ; CDC::SelectObject

; 388  : 	CRect rect(0,0,cx,cy);	

  011c1	8b 4d a4	 mov	 ecx, DWORD PTR _cy$[ebp]
  011c4	51		 push	 ecx
  011c5	8b 55 b8	 mov	 edx, DWORD PTR _cx$[ebp]
  011c8	52		 push	 edx
  011c9	6a 00		 push	 0
  011cb	6a 00		 push	 0
  011cd	8d 4d c8	 lea	 ecx, DWORD PTR _rect$[ebp]
  011d0	e8 00 00 00 00	 call	 ??0CRect@@QAE@HHHH@Z	; CRect::CRect

; 389  : 	//this->Draw(&hdcMem,FALSE);
; 390  : 	//CDib::Draw(&hdcMem, CPoint(0,0), CSize(cx,cy),FALSE);	
; 391  : 	hBmp->Draw(&hdcMem,FALSE);

  011d5	6a 01		 push	 1
  011d7	6a 00		 push	 0
  011d9	6a 00		 push	 0
  011db	8d 45 d8	 lea	 eax, DWORD PTR _hdcMem$[ebp]
  011de	50		 push	 eax
  011df	8b 4d 08	 mov	 ecx, DWORD PTR _hBmp$[ebp]
  011e2	e8 00 00 00 00	 call	 ?Draw@CDibBitmap@@QAEHPAVCDC@@HKH@Z ; CDibBitmap::Draw

; 392  : 
; 393  : 	const DWORD RDHDR = sizeof(RGNDATAHEADER);

  011e7	c7 45 9c 20 00
	00 00		 mov	 DWORD PTR _RDHDR$[ebp], 32 ; 00000020H

; 394  : 	const DWORD MAXBUF = 40;		// size of one block in RECTs

  011ee	c7 45 bc 28 00
	00 00		 mov	 DWORD PTR _MAXBUF$[ebp], 40 ; 00000028H

; 395  : 									// (i.e. MAXBUF*sizeof(RECT) in bytes)
; 396  : 	LPRECT	pRects;								
; 397  : 	DWORD	cBlocks = 0;			// number of allocated blocks

  011f5	c7 45 ec 00 00
	00 00		 mov	 DWORD PTR _cBlocks$[ebp], 0

; 398  : 
; 399  : 	INT		i, j;					// current position in mask image
; 400  : 	INT		first = 0;				// left position of current scan line

  011fc	c7 45 f0 00 00
	00 00		 mov	 DWORD PTR _first$[ebp], 0

; 401  : 									// where mask was found
; 402  : 	bool	wasfirst = false;		// set when if mask was found in current scan line

  01203	c6 45 c7 00	 mov	 BYTE PTR _wasfirst$[ebp], 0

; 403  : 	bool	ismask;					// set when current color is mask color
; 404  : 
; 405  : 	// allocate memory for region data
; 406  : 	RGNDATAHEADER* pRgnData = (RGNDATAHEADER*)new BYTE[ RDHDR + ++cBlocks * MAXBUF * sizeof(RECT) ];

  01207	8b 4d ec	 mov	 ecx, DWORD PTR _cBlocks$[ebp]
  0120a	83 c1 01	 add	 ecx, 1
  0120d	89 4d ec	 mov	 DWORD PTR _cBlocks$[ebp], ecx
  01210	8b 55 ec	 mov	 edx, DWORD PTR _cBlocks$[ebp]
  01213	6b d2 28	 imul	 edx, 40			; 00000028H
  01216	c1 e2 04	 shl	 edx, 4
  01219	83 c2 20	 add	 edx, 32			; 00000020H
  0121c	52		 push	 edx
  0121d	e8 00 00 00 00	 call	 ??_U@YAPAXI@Z		; operator new[]
  01222	83 c4 04	 add	 esp, 4
  01225	89 45 88	 mov	 DWORD PTR $T199556[ebp], eax
  01228	8b 45 88	 mov	 eax, DWORD PTR $T199556[ebp]
  0122b	89 45 e8	 mov	 DWORD PTR _pRgnData$[ebp], eax

; 407  : 	memset( pRgnData, 0, RDHDR + cBlocks * MAXBUF * sizeof(RECT) );

  0122e	8b 4d ec	 mov	 ecx, DWORD PTR _cBlocks$[ebp]
  01231	6b c9 28	 imul	 ecx, 40			; 00000028H
  01234	c1 e1 04	 shl	 ecx, 4
  01237	83 c1 20	 add	 ecx, 32			; 00000020H
  0123a	51		 push	 ecx
  0123b	6a 00		 push	 0
  0123d	8b 55 e8	 mov	 edx, DWORD PTR _pRgnData$[ebp]
  01240	52		 push	 edx
  01241	e8 00 00 00 00	 call	 _memset
  01246	83 c4 0c	 add	 esp, 12			; 0000000cH

; 408  : 	// fill it by default
; 409  : 	pRgnData->dwSize	= RDHDR;

  01249	8b 45 e8	 mov	 eax, DWORD PTR _pRgnData$[ebp]
  0124c	c7 00 20 00 00
	00		 mov	 DWORD PTR [eax], 32	; 00000020H

; 410  : 	pRgnData->iType		= RDH_RECTANGLES;

  01252	8b 4d e8	 mov	 ecx, DWORD PTR _pRgnData$[ebp]
  01255	c7 41 04 01 00
	00 00		 mov	 DWORD PTR [ecx+4], 1

; 411  : 	pRgnData->nCount	= 0;

  0125c	8b 55 e8	 mov	 edx, DWORD PTR _pRgnData$[ebp]
  0125f	c7 42 08 00 00
	00 00		 mov	 DWORD PTR [edx+8], 0

; 412  : 	for ( i = 0; i < cy; i++ )

  01266	c7 45 c0 00 00
	00 00		 mov	 DWORD PTR _i$[ebp], 0
  0126d	eb 09		 jmp	 SHORT $L198117
$L198118:
  0126f	8b 45 c0	 mov	 eax, DWORD PTR _i$[ebp]
  01272	83 c0 01	 add	 eax, 1
  01275	89 45 c0	 mov	 DWORD PTR _i$[ebp], eax
$L198117:
  01278	8b 4d c0	 mov	 ecx, DWORD PTR _i$[ebp]
  0127b	3b 4d a4	 cmp	 ecx, DWORD PTR _cy$[ebp]
  0127e	0f 8d 9d 01 00
	00		 jge	 $L198119

; 413  : 	for ( j = 0; j < cx; j++ ){

  01284	c7 45 98 00 00
	00 00		 mov	 DWORD PTR _j$[ebp], 0
  0128b	eb 09		 jmp	 SHORT $L198120
$L198121:
  0128d	8b 55 98	 mov	 edx, DWORD PTR _j$[ebp]
  01290	83 c2 01	 add	 edx, 1
  01293	89 55 98	 mov	 DWORD PTR _j$[ebp], edx
$L198120:
  01296	8b 45 98	 mov	 eax, DWORD PTR _j$[ebp]
  01299	3b 45 b8	 cmp	 eax, DWORD PTR _cx$[ebp]
  0129c	0f 8d 7a 01 00
	00		 jge	 $L198122

; 414  : 		// get color
; 415  : 		COLORREF c =  hdcMem.GetPixel(j,cy-i-1);

  012a2	8b 4d a4	 mov	 ecx, DWORD PTR _cy$[ebp]
  012a5	2b 4d c0	 sub	 ecx, DWORD PTR _i$[ebp]
  012a8	83 e9 01	 sub	 ecx, 1
  012ab	51		 push	 ecx
  012ac	8b 55 98	 mov	 edx, DWORD PTR _j$[ebp]
  012af	52		 push	 edx
  012b0	8d 4d d8	 lea	 ecx, DWORD PTR _hdcMem$[ebp]
  012b3	e8 00 00 00 00	 call	 ?GetPixel@CDC@@QBEKHH@Z	; CDC::GetPixel
  012b8	89 45 94	 mov	 DWORD PTR _c$198123[ebp], eax

; 416  : 		ismask=(hdcMem.GetPixel(j,cy-i-1)!=color);

  012bb	8b 45 a4	 mov	 eax, DWORD PTR _cy$[ebp]
  012be	2b 45 c0	 sub	 eax, DWORD PTR _i$[ebp]
  012c1	83 e8 01	 sub	 eax, 1
  012c4	50		 push	 eax
  012c5	8b 4d 98	 mov	 ecx, DWORD PTR _j$[ebp]
  012c8	51		 push	 ecx
  012c9	8d 4d d8	 lea	 ecx, DWORD PTR _hdcMem$[ebp]
  012cc	e8 00 00 00 00	 call	 ?GetPixel@CDC@@QBEKHH@Z	; CDC::GetPixel
  012d1	33 d2		 xor	 edx, edx
  012d3	3b 45 0c	 cmp	 eax, DWORD PTR _color$[ebp]
  012d6	0f 95 c2	 setne	 dl
  012d9	88 55 a3	 mov	 BYTE PTR _ismask$[ebp], dl

; 417  : 		/*if(c)
; 418  : 		{
; 419  : 			c=0;
; 420  : 		}*/
; 421  : 		// place part of scan line as RECT region if transparent color found after mask color or
; 422  : 		// mask color found at the end of mask image
; 423  : 		if (wasfirst && ((ismask && (j==(cx-1)))||(ismask ^ (j<cx)))){

  012dc	0f b6 45 c7	 movzx	 eax, BYTE PTR _wasfirst$[ebp]
  012e0	85 c0		 test	 eax, eax
  012e2	0f 84 15 01 00
	00		 je	 $L198124
  012e8	0f b6 4d a3	 movzx	 ecx, BYTE PTR _ismask$[ebp]
  012ec	85 c9		 test	 ecx, ecx
  012ee	74 0b		 je	 SHORT $L198126
  012f0	8b 55 b8	 mov	 edx, DWORD PTR _cx$[ebp]
  012f3	83 ea 01	 sub	 edx, 1
  012f6	39 55 98	 cmp	 DWORD PTR _j$[ebp], edx
  012f9	74 17		 je	 SHORT $L198125
$L198126:
  012fb	0f b6 45 a3	 movzx	 eax, BYTE PTR _ismask$[ebp]
  012ff	8b 4d 98	 mov	 ecx, DWORD PTR _j$[ebp]
  01302	33 d2		 xor	 edx, edx
  01304	3b 4d b8	 cmp	 ecx, DWORD PTR _cx$[ebp]
  01307	0f 9c c2	 setl	 dl
  0130a	33 c2		 xor	 eax, edx
  0130c	0f 84 eb 00 00
	00		 je	 $L198124
$L198125:

; 424  : 			// get offset to RECT array if RGNDATA buffer
; 425  : 			pRects = (LPRECT)((LPBYTE)pRgnData + RDHDR);

  01312	8b 45 e8	 mov	 eax, DWORD PTR _pRgnData$[ebp]
  01315	83 c0 20	 add	 eax, 32			; 00000020H
  01318	89 45 b0	 mov	 DWORD PTR _pRects$[ebp], eax

; 426  : 			// save current RECT
; 427  : 			pRects[ pRgnData->nCount++ ] = CRect( first, cy - i - 1, j+(j==(cx-1)), cy - i );

  0131b	8b 4d a4	 mov	 ecx, DWORD PTR _cy$[ebp]
  0131e	2b 4d c0	 sub	 ecx, DWORD PTR _i$[ebp]
  01321	51		 push	 ecx
  01322	8b 55 b8	 mov	 edx, DWORD PTR _cx$[ebp]
  01325	83 ea 01	 sub	 edx, 1
  01328	33 c0		 xor	 eax, eax
  0132a	39 55 98	 cmp	 DWORD PTR _j$[ebp], edx
  0132d	0f 94 c0	 sete	 al
  01330	03 45 98	 add	 eax, DWORD PTR _j$[ebp]
  01333	50		 push	 eax
  01334	8b 4d a4	 mov	 ecx, DWORD PTR _cy$[ebp]
  01337	2b 4d c0	 sub	 ecx, DWORD PTR _i$[ebp]
  0133a	83 e9 01	 sub	 ecx, 1
  0133d	51		 push	 ecx
  0133e	8b 55 f0	 mov	 edx, DWORD PTR _first$[ebp]
  01341	52		 push	 edx
  01342	8d 8d 78 ff ff
	ff		 lea	 ecx, DWORD PTR $T199557[ebp]
  01348	e8 00 00 00 00	 call	 ??0CRect@@QAE@HHHH@Z	; CRect::CRect
  0134d	8b 4d e8	 mov	 ecx, DWORD PTR _pRgnData$[ebp]
  01350	8b 51 08	 mov	 edx, DWORD PTR [ecx+8]
  01353	c1 e2 04	 shl	 edx, 4
  01356	03 55 b0	 add	 edx, DWORD PTR _pRects$[ebp]
  01359	8b 08		 mov	 ecx, DWORD PTR [eax]
  0135b	89 0a		 mov	 DWORD PTR [edx], ecx
  0135d	8b 48 04	 mov	 ecx, DWORD PTR [eax+4]
  01360	89 4a 04	 mov	 DWORD PTR [edx+4], ecx
  01363	8b 48 08	 mov	 ecx, DWORD PTR [eax+8]
  01366	89 4a 08	 mov	 DWORD PTR [edx+8], ecx
  01369	8b 40 0c	 mov	 eax, DWORD PTR [eax+12]
  0136c	89 42 0c	 mov	 DWORD PTR [edx+12], eax
  0136f	8b 4d e8	 mov	 ecx, DWORD PTR _pRgnData$[ebp]
  01372	8b 51 08	 mov	 edx, DWORD PTR [ecx+8]
  01375	83 c2 01	 add	 edx, 1
  01378	8b 45 e8	 mov	 eax, DWORD PTR _pRgnData$[ebp]
  0137b	89 50 08	 mov	 DWORD PTR [eax+8], edx

; 428  : 			// if buffer full reallocate it
; 429  : 			if ( pRgnData->nCount >= cBlocks * MAXBUF ){

  0137e	8b 4d ec	 mov	 ecx, DWORD PTR _cBlocks$[ebp]
  01381	6b c9 28	 imul	 ecx, 40			; 00000028H
  01384	8b 55 e8	 mov	 edx, DWORD PTR _pRgnData$[ebp]
  01387	39 4a 08	 cmp	 DWORD PTR [edx+8], ecx
  0138a	72 6b		 jb	 SHORT $L198130

; 430  : 				LPBYTE pRgnDataNew = new BYTE[ RDHDR + ++cBlocks * MAXBUF * sizeof(RECT) ];

  0138c	8b 45 ec	 mov	 eax, DWORD PTR _cBlocks$[ebp]
  0138f	83 c0 01	 add	 eax, 1
  01392	89 45 ec	 mov	 DWORD PTR _cBlocks$[ebp], eax
  01395	8b 4d ec	 mov	 ecx, DWORD PTR _cBlocks$[ebp]
  01398	6b c9 28	 imul	 ecx, 40			; 00000028H
  0139b	c1 e1 04	 shl	 ecx, 4
  0139e	83 c1 20	 add	 ecx, 32			; 00000020H
  013a1	51		 push	 ecx
  013a2	e8 00 00 00 00	 call	 ??_U@YAPAXI@Z		; operator new[]
  013a7	83 c4 04	 add	 esp, 4
  013aa	89 85 74 ff ff
	ff		 mov	 DWORD PTR $T199558[ebp], eax
  013b0	8b 95 74 ff ff
	ff		 mov	 edx, DWORD PTR $T199558[ebp]
  013b6	89 55 90	 mov	 DWORD PTR _pRgnDataNew$198131[ebp], edx

; 431  : 				memcpy( pRgnDataNew, pRgnData, RDHDR + (cBlocks - 1) * MAXBUF * sizeof(RECT) );

  013b9	8b 45 ec	 mov	 eax, DWORD PTR _cBlocks$[ebp]
  013bc	83 e8 01	 sub	 eax, 1
  013bf	6b c0 28	 imul	 eax, 40			; 00000028H
  013c2	c1 e0 04	 shl	 eax, 4
  013c5	83 c0 20	 add	 eax, 32			; 00000020H
  013c8	50		 push	 eax
  013c9	8b 4d e8	 mov	 ecx, DWORD PTR _pRgnData$[ebp]
  013cc	51		 push	 ecx
  013cd	8b 55 90	 mov	 edx, DWORD PTR _pRgnDataNew$198131[ebp]
  013d0	52		 push	 edx
  013d1	e8 00 00 00 00	 call	 _memcpy
  013d6	83 c4 0c	 add	 esp, 12			; 0000000cH

; 432  : 				delete pRgnData;

  013d9	8b 45 e8	 mov	 eax, DWORD PTR _pRgnData$[ebp]
  013dc	89 85 70 ff ff
	ff		 mov	 DWORD PTR $T199559[ebp], eax
  013e2	8b 8d 70 ff ff
	ff		 mov	 ecx, DWORD PTR $T199559[ebp]
  013e8	51		 push	 ecx
  013e9	e8 00 00 00 00	 call	 ??3@YAXPAX@Z		; operator delete
  013ee	83 c4 04	 add	 esp, 4

; 433  : 				pRgnData = (RGNDATAHEADER*)pRgnDataNew;

  013f1	8b 55 90	 mov	 edx, DWORD PTR _pRgnDataNew$198131[ebp]
  013f4	89 55 e8	 mov	 DWORD PTR _pRgnData$[ebp], edx
$L198130:

; 434  : 			}
; 435  : 			wasfirst = false;

  013f7	c6 45 c7 00	 mov	 BYTE PTR _wasfirst$[ebp], 0

; 436  : 		} else if ( !wasfirst && ismask ){		// set wasfirst when mask is found

  013fb	eb 1a		 jmp	 SHORT $L198138
$L198124:
  013fd	0f b6 45 c7	 movzx	 eax, BYTE PTR _wasfirst$[ebp]
  01401	85 c0		 test	 eax, eax
  01403	75 12		 jne	 SHORT $L198138
  01405	0f b6 4d a3	 movzx	 ecx, BYTE PTR _ismask$[ebp]
  01409	85 c9		 test	 ecx, ecx
  0140b	74 0a		 je	 SHORT $L198138

; 437  : 			first = j;

  0140d	8b 55 98	 mov	 edx, DWORD PTR _j$[ebp]
  01410	89 55 f0	 mov	 DWORD PTR _first$[ebp], edx

; 438  : 			wasfirst = true;

  01413	c6 45 c7 01	 mov	 BYTE PTR _wasfirst$[ebp], 1
$L198138:

; 439  : 		}
; 440  : 	}

  01417	e9 71 fe ff ff	 jmp	 $L198121
$L198122:
  0141c	e9 4e fe ff ff	 jmp	 $L198118
$L198119:

; 441  : 
; 442  : 	hBitmap.DeleteObject();

  01421	8d 4d a8	 lea	 ecx, DWORD PTR _hBitmap$[ebp]
  01424	e8 00 00 00 00	 call	 ?DeleteObject@CGdiObject@@QAEHXZ ; CGdiObject::DeleteObject

; 443  : 	hdcMem.DeleteDC();	//release the bitmap

  01429	8d 4d d8	 lea	 ecx, DWORD PTR _hdcMem$[ebp]
  0142c	e8 00 00 00 00	 call	 ?DeleteDC@CDC@@QAEHXZ	; CDC::DeleteDC

; 444  : 	// create region
; 445  : /*  Under WinNT the ExtCreateRegion returns NULL (by Fable@aramszu.net) */
; 446  : //	HRGN hRgn = ExtCreateRegion( NULL, RDHDR + pRgnData->nCount * sizeof(RECT), (LPRGNDATA)pRgnData );
; 447  : /* ExtCreateRegion replacement { */
; 448  : 	HRGN hRgn=CreateRectRgn(0, 0, 0, 0);

  01431	6a 00		 push	 0
  01433	6a 00		 push	 0
  01435	6a 00		 push	 0
  01437	6a 00		 push	 0
  01439	ff 15 00 00 00
	00		 call	 DWORD PTR __imp__CreateRectRgn@16
  0143f	89 45 b4	 mov	 DWORD PTR _hRgn$[ebp], eax

; 449  : 	ASSERT( hRgn!=NULL );
; 450  : 	pRects = (LPRECT)((LPBYTE)pRgnData + RDHDR);

  01442	8b 45 e8	 mov	 eax, DWORD PTR _pRgnData$[ebp]
  01445	83 c0 20	 add	 eax, 32			; 00000020H
  01448	89 45 b0	 mov	 DWORD PTR _pRects$[ebp], eax

; 451  : 	for(i=0;i<(int)pRgnData->nCount;i++)

  0144b	c7 45 c0 00 00
	00 00		 mov	 DWORD PTR _i$[ebp], 0
  01452	eb 09		 jmp	 SHORT $L198145
$L198146:
  01454	8b 4d c0	 mov	 ecx, DWORD PTR _i$[ebp]
  01457	83 c1 01	 add	 ecx, 1
  0145a	89 4d c0	 mov	 DWORD PTR _i$[ebp], ecx
$L198145:
  0145d	8b 55 e8	 mov	 edx, DWORD PTR _pRgnData$[ebp]
  01460	8b 45 c0	 mov	 eax, DWORD PTR _i$[ebp]
  01463	3b 42 08	 cmp	 eax, DWORD PTR [edx+8]
  01466	7d 66		 jge	 SHORT $L198147

; 452  : 	{
; 453  : 		HRGN hr=CreateRectRgn(pRects[i].left, pRects[i].top, pRects[i].right, pRects[i].bottom);

  01468	8b 4d c0	 mov	 ecx, DWORD PTR _i$[ebp]
  0146b	c1 e1 04	 shl	 ecx, 4
  0146e	8b 55 b0	 mov	 edx, DWORD PTR _pRects$[ebp]
  01471	8b 44 0a 0c	 mov	 eax, DWORD PTR [edx+ecx+12]
  01475	50		 push	 eax
  01476	8b 4d c0	 mov	 ecx, DWORD PTR _i$[ebp]
  01479	c1 e1 04	 shl	 ecx, 4
  0147c	8b 55 b0	 mov	 edx, DWORD PTR _pRects$[ebp]
  0147f	8b 44 0a 08	 mov	 eax, DWORD PTR [edx+ecx+8]
  01483	50		 push	 eax
  01484	8b 4d c0	 mov	 ecx, DWORD PTR _i$[ebp]
  01487	c1 e1 04	 shl	 ecx, 4
  0148a	8b 55 b0	 mov	 edx, DWORD PTR _pRects$[ebp]
  0148d	8b 44 0a 04	 mov	 eax, DWORD PTR [edx+ecx+4]
  01491	50		 push	 eax
  01492	8b 4d c0	 mov	 ecx, DWORD PTR _i$[ebp]
  01495	c1 e1 04	 shl	 ecx, 4
  01498	8b 55 b0	 mov	 edx, DWORD PTR _pRects$[ebp]
  0149b	8b 04 0a	 mov	 eax, DWORD PTR [edx+ecx]
  0149e	50		 push	 eax
  0149f	ff 15 00 00 00
	00		 call	 DWORD PTR __imp__CreateRectRgn@16
  014a5	89 45 8c	 mov	 DWORD PTR _hr$198148[ebp], eax

; 454  : 		VERIFY(CombineRgn(hRgn, hRgn, hr, RGN_OR)!=ERROR);

  014a8	6a 02		 push	 2
  014aa	8b 4d 8c	 mov	 ecx, DWORD PTR _hr$198148[ebp]
  014ad	51		 push	 ecx
  014ae	8b 55 b4	 mov	 edx, DWORD PTR _hRgn$[ebp]
  014b1	52		 push	 edx
  014b2	8b 45 b4	 mov	 eax, DWORD PTR _hRgn$[ebp]
  014b5	50		 push	 eax
  014b6	ff 15 00 00 00
	00		 call	 DWORD PTR __imp__CombineRgn@16

; 455  : 		if (hr) DeleteObject(hr);

  014bc	83 7d 8c 00	 cmp	 DWORD PTR _hr$198148[ebp], 0
  014c0	74 0a		 je	 SHORT $L198150
  014c2	8b 4d 8c	 mov	 ecx, DWORD PTR _hr$198148[ebp]
  014c5	51		 push	 ecx
  014c6	ff 15 00 00 00
	00		 call	 DWORD PTR __imp__DeleteObject@4
$L198150:

; 456  : 	}

  014cc	eb 86		 jmp	 SHORT $L198146
$L198147:

; 457  : 	ASSERT( hRgn!=NULL );
; 458  : /* } ExtCreateRegion replacement */
; 459  : 
; 460  : 	delete pRgnData;

  014ce	8b 55 e8	 mov	 edx, DWORD PTR _pRgnData$[ebp]
  014d1	89 95 6c ff ff
	ff		 mov	 DWORD PTR $T199560[ebp], edx
  014d7	8b 85 6c ff ff
	ff		 mov	 eax, DWORD PTR $T199560[ebp]
  014dd	50		 push	 eax
  014de	e8 00 00 00 00	 call	 ??3@YAXPAX@Z		; operator delete
  014e3	83 c4 04	 add	 esp, 4

; 461  : 	return hRgn;

  014e6	8b 4d b4	 mov	 ecx, DWORD PTR _hRgn$[ebp]
  014e9	89 8d 68 ff ff
	ff		 mov	 DWORD PTR $T199561[ebp], ecx
  014ef	c6 45 fc 00	 mov	 BYTE PTR __$EHRec$[ebp+8], 0
  014f3	8d 4d a8	 lea	 ecx, DWORD PTR _hBitmap$[ebp]
  014f6	e8 00 00 00 00	 call	 ??1CBitmap@@UAE@XZ	; CBitmap::~CBitmap
  014fb	c7 45 fc ff ff
	ff ff		 mov	 DWORD PTR __$EHRec$[ebp+8], -1
  01502	8d 4d d8	 lea	 ecx, DWORD PTR _hdcMem$[ebp]
  01505	e8 00 00 00 00	 call	 ??1CDC@@UAE@XZ		; CDC::~CDC
  0150a	8b 85 68 ff ff
	ff		 mov	 eax, DWORD PTR $T199561[ebp]

; 462  : }

  01510	8b 4d f4	 mov	 ecx, DWORD PTR __$EHRec$[ebp]
  01513	64 89 0d 00 00
	00 00		 mov	 DWORD PTR fs:__except_list, ecx
  0151a	8b e5		 mov	 esp, ebp
  0151c	5d		 pop	 ebp
  0151d	c2 08 00	 ret	 8
_TEXT	ENDS
text$x	SEGMENT
$L199562:
  00106	8d 4d d8	 lea	 ecx, DWORD PTR _hdcMem$[ebp]
  00109	e9 00 00 00 00	 jmp	 ??1CDC@@UAE@XZ		; CDC::~CDC
$L199563:
  0010e	8d 4d a8	 lea	 ecx, DWORD PTR _hBitmap$[ebp]
  00111	e9 00 00 00 00	 jmp	 ??1CBitmap@@UAE@XZ	; CBitmap::~CBitmap
__ehhandler$?CreateRgnFromBitmap@CxStaticText@@IAEPAUHRGN__@@PAVCDibBitmap@@K@Z:
  00116	b8 00 00 00 00	 mov	 eax, OFFSET FLAT:$T199565
  0011b	e9 00 00 00 00	 jmp	 ___CxxFrameHandler
text$x	ENDS
?CreateRgnFromBitmap@CxStaticText@@IAEPAUHRGN__@@PAVCDibBitmap@@K@Z ENDP ; CxStaticText::CreateRgnFromBitmap
PUBLIC	?InterlockedExchangePointer@@YGPAXPAPAXPAX@Z	; InterlockedExchangePointer
PUBLIC	?_AtlGetThreadACPFake@ATL@@YGIXZ		; ATL::_AtlGetThreadACPFake
PUBLIC	?_AtlGetThreadACPReal@ATL@@YGIXZ		; ATL::_AtlGetThreadACPReal
EXTRN	__imp__GetVersionExA@4:NEAR
; Function compile flags: /Odt
; File d:\program files (x86)\microsoft visual studio .net 2003\vc7\atlmfc\include\atlconv.h
;	COMDAT ?_AtlGetThreadACPThunk@ATL@@YGIXZ
_TEXT	SEGMENT
_pfnGetThreadACP$ = -164				; size = 4
_ver$ = -160						; size = 148
__$ArrayPad$ = -4					; size = 4
__$ReturnAddr$ = 4					; size = 4
?_AtlGetThreadACPThunk@ATL@@YGIXZ PROC NEAR		; ATL::_AtlGetThreadACPThunk, COMDAT

; 134  : {

  00000	55		 push	 ebp
  00001	8b ec		 mov	 ebp, esp
  00003	81 ec a4 00 00
	00		 sub	 esp, 164		; 000000a4H
  00009	a1 00 00 00 00	 mov	 eax, DWORD PTR ___security_cookie
  0000e	89 45 fc	 mov	 DWORD PTR __$ArrayPad$[ebp], eax

; 135  : 	OSVERSIONINFO ver;
; 136  : 	ATLGETTHREADACP pfnGetThreadACP;
; 137  : 
; 138  : 	ver.dwOSVersionInfoSize = sizeof( ver );

  00011	c7 85 60 ff ff
	ff 94 00 00 00	 mov	 DWORD PTR _ver$[ebp], 148 ; 00000094H

; 139  : 	::GetVersionEx( &ver );

  0001b	8d 85 60 ff ff
	ff		 lea	 eax, DWORD PTR _ver$[ebp]
  00021	50		 push	 eax
  00022	ff 15 00 00 00
	00		 call	 DWORD PTR __imp__GetVersionExA@4

; 140  : 	if( (ver.dwPlatformId == VER_PLATFORM_WIN32_NT) && (ver.dwMajorVersion >= 5) )

  00028	83 bd 70 ff ff
	ff 02		 cmp	 DWORD PTR _ver$[ebp+16], 2
  0002f	75 15		 jne	 SHORT $L24173
  00031	83 bd 64 ff ff
	ff 05		 cmp	 DWORD PTR _ver$[ebp+4], 5
  00038	72 0c		 jb	 SHORT $L24173

; 141  : 	{
; 142  : 		// On Win2K, CP_THREAD_ACP is supported
; 143  : 		pfnGetThreadACP = _AtlGetThreadACPReal;

  0003a	c7 85 5c ff ff
	ff 00 00 00 00	 mov	 DWORD PTR _pfnGetThreadACP$[ebp], OFFSET FLAT:?_AtlGetThreadACPReal@ATL@@YGIXZ ; ATL::_AtlGetThreadACPReal

; 144  : 	}
; 145  : 	else

  00044	eb 0a		 jmp	 SHORT $L24174
$L24173:

; 146  : 	{
; 147  : 		pfnGetThreadACP = _AtlGetThreadACPFake;

  00046	c7 85 5c ff ff
	ff 00 00 00 00	 mov	 DWORD PTR _pfnGetThreadACP$[ebp], OFFSET FLAT:?_AtlGetThreadACPFake@ATL@@YGIXZ ; ATL::_AtlGetThreadACPFake
$L24174:

; 148  : 	}
; 149  : 	InterlockedExchangePointer( reinterpret_cast< void** >(&g_pfnGetThreadACP), pfnGetThreadACP );

  00050	8b 8d 5c ff ff
	ff		 mov	 ecx, DWORD PTR _pfnGetThreadACP$[ebp]
  00056	51		 push	 ecx
  00057	68 00 00 00 00	 push	 OFFSET FLAT:?g_pfnGetThreadACP@ATL@@3P6GIXZA ; ATL::g_pfnGetThreadACP
  0005c	e8 00 00 00 00	 call	 ?InterlockedExchangePointer@@YGPAXPAPAXPAX@Z ; InterlockedExchangePointer

; 150  : 
; 151  : 	return( g_pfnGetThreadACP() );

  00061	ff 15 00 00 00
	00		 call	 DWORD PTR ?g_pfnGetThreadACP@ATL@@3P6GIXZA ; ATL::g_pfnGetThreadACP

; 152  : }

  00067	8b 4d fc	 mov	 ecx, DWORD PTR __$ArrayPad$[ebp]
  0006a	e8 00 00 00 00	 call	 @__security_check_cookie@4
  0006f	8b e5		 mov	 esp, ebp
  00071	5d		 pop	 ebp
  00072	c3		 ret	 0
?_AtlGetThreadACPThunk@ATL@@YGIXZ ENDP			; ATL::_AtlGetThreadACPThunk
_TEXT	ENDS
EXTRN	__imp__InterlockedExchange@8:NEAR
; Function compile flags: /Odt
;	COMDAT ?InterlockedExchangePointer@@YGPAXPAPAXPAX@Z
_TEXT	SEGMENT
_pp$ = 8						; size = 4
_pNew$ = 12						; size = 4
?InterlockedExchangePointer@@YGPAXPAPAXPAX@Z PROC NEAR	; InterlockedExchangePointer, COMDAT

; 91   : {

  00000	55		 push	 ebp
  00001	8b ec		 mov	 ebp, esp

; 92   : 	return( reinterpret_cast<void*>(static_cast<LONG_PTR>(::InterlockedExchange(reinterpret_cast<LONG*>(pp), static_cast<LONG>(reinterpret_cast<LONG_PTR>(pNew))))) );

  00003	8b 45 0c	 mov	 eax, DWORD PTR _pNew$[ebp]
  00006	50		 push	 eax
  00007	8b 4d 08	 mov	 ecx, DWORD PTR _pp$[ebp]
  0000a	51		 push	 ecx
  0000b	ff 15 00 00 00
	00		 call	 DWORD PTR __imp__InterlockedExchange@8

; 93   : }

  00011	5d		 pop	 ebp
  00012	c2 08 00	 ret	 8
?InterlockedExchangePointer@@YGPAXPAPAXPAX@Z ENDP	; InterlockedExchangePointer
_TEXT	ENDS
EXTRN	__imp__GetACP@0:NEAR
EXTRN	__imp__GetLocaleInfoA@16:NEAR
EXTRN	__imp__GetThreadLocale@0:NEAR
; Function compile flags: /Odt
;	COMDAT ?_AtlGetThreadACPFake@ATL@@YGIXZ
_TEXT	SEGMENT
_pch$24161 = -24					; size = 4
_lcidThread$ = -20					; size = 4
_szACP$ = -16						; size = 7
__$ArrayPad$ = -8					; size = 4
_nACP$ = -4						; size = 4
__$ReturnAddr$ = 4					; size = 4
?_AtlGetThreadACPFake@ATL@@YGIXZ PROC NEAR		; ATL::_AtlGetThreadACPFake, COMDAT

; 101  : {

  00000	55		 push	 ebp
  00001	8b ec		 mov	 ebp, esp
  00003	83 ec 18	 sub	 esp, 24			; 00000018H
  00006	a1 00 00 00 00	 mov	 eax, DWORD PTR ___security_cookie
  0000b	89 45 f8	 mov	 DWORD PTR __$ArrayPad$[ebp], eax

; 102  : 	UINT nACP = 0;

  0000e	c7 45 fc 00 00
	00 00		 mov	 DWORD PTR _nACP$[ebp], 0

; 103  : 
; 104  : 	LCID lcidThread = ::GetThreadLocale();

  00015	ff 15 00 00 00
	00		 call	 DWORD PTR __imp__GetThreadLocale@0
  0001b	89 45 ec	 mov	 DWORD PTR _lcidThread$[ebp], eax

; 105  : 
; 106  : 	char szACP[7];
; 107  : 	// GetLocaleInfoA will fail for a Unicode-only LCID, but those are only supported on 
; 108  : 	// Windows 2000.  Since Windows 2000 supports CP_THREAD_ACP, this code path is never
; 109  : 	// executed on Windows 2000.
; 110  : 	if (::GetLocaleInfoA(lcidThread, LOCALE_IDEFAULTANSICODEPAGE, szACP, 7) != 0)

  0001e	6a 07		 push	 7
  00020	8d 45 f0	 lea	 eax, DWORD PTR _szACP$[ebp]
  00023	50		 push	 eax
  00024	68 04 10 00 00	 push	 4100			; 00001004H
  00029	8b 4d ec	 mov	 ecx, DWORD PTR _lcidThread$[ebp]
  0002c	51		 push	 ecx
  0002d	ff 15 00 00 00
	00		 call	 DWORD PTR __imp__GetLocaleInfoA@16
  00033	85 c0		 test	 eax, eax
  00035	74 34		 je	 SHORT $L24160

; 111  : 	{
; 112  : 		char* pch = szACP;

  00037	8d 55 f0	 lea	 edx, DWORD PTR _szACP$[ebp]
  0003a	89 55 e8	 mov	 DWORD PTR _pch$24161[ebp], edx
$L24163:

; 113  : 		while (*pch != '\0')

  0003d	8b 45 e8	 mov	 eax, DWORD PTR _pch$24161[ebp]
  00040	0f be 08	 movsx	 ecx, BYTE PTR [eax]
  00043	85 c9		 test	 ecx, ecx
  00045	74 24		 je	 SHORT $L24160

; 114  : 		{
; 115  : 			nACP *= 10;

  00047	8b 55 fc	 mov	 edx, DWORD PTR _nACP$[ebp]
  0004a	6b d2 0a	 imul	 edx, 10			; 0000000aH
  0004d	89 55 fc	 mov	 DWORD PTR _nACP$[ebp], edx

; 116  : 			nACP += *pch++ - '0';

  00050	8b 45 e8	 mov	 eax, DWORD PTR _pch$24161[ebp]
  00053	0f be 08	 movsx	 ecx, BYTE PTR [eax]
  00056	8b 55 fc	 mov	 edx, DWORD PTR _nACP$[ebp]
  00059	8d 44 0a d0	 lea	 eax, DWORD PTR [edx+ecx-48]
  0005d	89 45 fc	 mov	 DWORD PTR _nACP$[ebp], eax
  00060	8b 4d e8	 mov	 ecx, DWORD PTR _pch$24161[ebp]
  00063	83 c1 01	 add	 ecx, 1
  00066	89 4d e8	 mov	 DWORD PTR _pch$24161[ebp], ecx

; 117  : 		}

  00069	eb d2		 jmp	 SHORT $L24163
$L24160:

; 118  : 	}
; 119  : 	// Use the Default ANSI Code Page if we were unable to get the thread ACP or if one does not exist.
; 120  : 	if (nACP == 0)

  0006b	83 7d fc 00	 cmp	 DWORD PTR _nACP$[ebp], 0
  0006f	75 09		 jne	 SHORT $L24165

; 121  : 		nACP = ::GetACP();

  00071	ff 15 00 00 00
	00		 call	 DWORD PTR __imp__GetACP@0
  00077	89 45 fc	 mov	 DWORD PTR _nACP$[ebp], eax
$L24165:

; 122  : 
; 123  : 	return nACP;

  0007a	8b 45 fc	 mov	 eax, DWORD PTR _nACP$[ebp]

; 124  : }

  0007d	8b 4d f8	 mov	 ecx, DWORD PTR __$ArrayPad$[ebp]
  00080	e8 00 00 00 00	 call	 @__security_check_cookie@4
  00085	8b e5		 mov	 esp, ebp
  00087	5d		 pop	 ebp
  00088	c3		 ret	 0
?_AtlGetThreadACPFake@ATL@@YGIXZ ENDP			; ATL::_AtlGetThreadACPFake
; Function compile flags: /Odt
_TEXT	ENDS
;	COMDAT ?_AtlGetThreadACPReal@ATL@@YGIXZ
_TEXT	SEGMENT
?_AtlGetThreadACPReal@ATL@@YGIXZ PROC NEAR		; ATL::_AtlGetThreadACPReal, COMDAT

; 127  : {

  00000	55		 push	 ebp
  00001	8b ec		 mov	 ebp, esp

; 128  : 	return( CP_THREAD_ACP );

  00003	b8 03 00 00 00	 mov	 eax, 3

; 129  : }

  00008	5d		 pop	 ebp
  00009	c3		 ret	 0
?_AtlGetThreadACPReal@ATL@@YGIXZ ENDP			; ATL::_AtlGetThreadACPReal
_TEXT	ENDS
PUBLIC	??BCDC@@QBEPAUHDC__@@XZ				; CDC::operator HDC__ *
PUBLIC	?BitBlt@CDC@@QAEHHHHHPAV1@HHK@Z			; CDC::BitBlt
PUBLIC	?StretchBlt@CDC@@QAEHHHHHPAV1@HHHHK@Z		; CDC::StretchBlt
PUBLIC	??BCGdiObject@@QBEPAXXZ				; CGdiObject::operator void *
PUBLIC	?SelectObject@CDC@@QAEPAXPAX@Z			; CDC::SelectObject
PUBLIC	?FillWithBitmap@CxStaticText@@IAEXPAVCDC@@PAVCDibBitmap@@UtagRECT@@@Z ; CxStaticText::FillWithBitmap
EXTRN	?SetCDibRect@CDibBitmap@@QAEXVCRect@@@Z:NEAR	; CDibBitmap::SetCDibRect
EXTRN	__imp__DeleteDC@4:NEAR
xdata$x	SEGMENT
$T199592 DD	0ffffffffH
	DD	FLAT:$L199583
	DD	00H
	DD	FLAT:$L199584
	DD	01H
	DD	FLAT:$L199585
	DD	02H
	DD	FLAT:$L199586
	DD	03H
	DD	FLAT:$L199587
	DD	04H
	DD	FLAT:$L199588
$T199590 DD	019930520H
	DD	06H
	DD	FLAT:$T199592
	DD	2 DUP(00H)
	DD	2 DUP(00H)
; Function compile flags: /Odt
; File d:\boxgit\playbox\playbox\dev\prj\playbox\src\gui\commoncontrol\xstatictext.cpp
xdata$x	ENDS
_TEXT	SEGMENT
_this$ = -144						; size = 4
$T199582 = -140						; size = 16
$T199581 = -124						; size = 16
_by$198191 = -108					; size = 4
_bx$198190 = -104					; size = 4
_by$198181 = -100					; size = 4
_bx$198180 = -96					; size = 4
_hBitmapMask$198170 = -92				; size = 8
_hBitmap$198173 = -84					; size = 8
_hdcMem$198172 = -76					; size = 16
_cy$ = -60						; size = 4
_dcMask$ = -56						; size = 16
_dcBmp$ = -40						; size = 16
_hBitmapBmp$ = -24					; size = 8
_cx$ = -16						; size = 4
__$EHRec$ = -12						; size = 12
_dc$ = 8						; size = 4
_hbmp$ = 12						; size = 4
_r$ = 16						; size = 16
_DrawMode$ = 32						; size = 4
?DrawBitmap@CxStaticText@@IAEXPAVCDC@@PAVCDibBitmap@@UtagRECT@@H@Z PROC NEAR ; CxStaticText::DrawBitmap
; _this$ = ecx

; 464  : {

  01520	55		 push	 ebp
  01521	8b ec		 mov	 ebp, esp
  01523	6a ff		 push	 -1
  01525	68 00 00 00 00	 push	 __ehhandler$?DrawBitmap@CxStaticText@@IAEXPAVCDC@@PAVCDibBitmap@@UtagRECT@@H@Z
  0152a	64 a1 00 00 00
	00		 mov	 eax, DWORD PTR fs:__except_list
  01530	50		 push	 eax
  01531	64 89 25 00 00
	00 00		 mov	 DWORD PTR fs:__except_list, esp
  01538	81 ec 84 00 00
	00		 sub	 esp, 132		; 00000084H
  0153e	89 8d 70 ff ff
	ff		 mov	 DWORD PTR _this$[ebp], ecx

; 465  : //	DrawMode: 0=Normal; 1=stretch; 2=tiled fill
; 466  : 	if(DrawMode==2){

  01544	83 7d 20 02	 cmp	 DWORD PTR _DrawMode$[ebp], 2
  01548	75 34		 jne	 SHORT $L198161

; 467  : 		FillWithBitmap(dc,hbmp,r);

  0154a	83 ec 10	 sub	 esp, 16			; 00000010H
  0154d	8b c4		 mov	 eax, esp
  0154f	8b 4d 10	 mov	 ecx, DWORD PTR _r$[ebp]
  01552	89 08		 mov	 DWORD PTR [eax], ecx
  01554	8b 55 14	 mov	 edx, DWORD PTR _r$[ebp+4]
  01557	89 50 04	 mov	 DWORD PTR [eax+4], edx
  0155a	8b 4d 18	 mov	 ecx, DWORD PTR _r$[ebp+8]
  0155d	89 48 08	 mov	 DWORD PTR [eax+8], ecx
  01560	8b 55 1c	 mov	 edx, DWORD PTR _r$[ebp+12]
  01563	89 50 0c	 mov	 DWORD PTR [eax+12], edx
  01566	8b 45 0c	 mov	 eax, DWORD PTR _hbmp$[ebp]
  01569	50		 push	 eax
  0156a	8b 4d 08	 mov	 ecx, DWORD PTR _dc$[ebp]
  0156d	51		 push	 ecx
  0156e	8b 8d 70 ff ff
	ff		 mov	 ecx, DWORD PTR _this$[ebp]
  01574	e8 00 00 00 00	 call	 ?FillWithBitmap@CxStaticText@@IAEXPAVCDC@@PAVCDibBitmap@@UtagRECT@@@Z ; CxStaticText::FillWithBitmap

; 468  : 		return;

  01579	e9 77 04 00 00	 jmp	 $L198160
$L198161:

; 469  : 	}
; 470  : 	if(!hbmp) return;	//safe check

  0157e	83 7d 0c 00	 cmp	 DWORD PTR _hbmp$[ebp], 0
  01582	75 05		 jne	 SHORT $L198162
  01584	e9 6c 04 00 00	 jmp	 $L198160
$L198162:

; 471  : 
; 472  : 	int cx=r.right  - r.left;

  01589	8b 55 18	 mov	 edx, DWORD PTR _r$[ebp+8]
  0158c	2b 55 10	 sub	 edx, DWORD PTR _r$[ebp]
  0158f	89 55 f0	 mov	 DWORD PTR _cx$[ebp], edx

; 473  : 	int cy=r.bottom - r.top;

  01592	8b 45 1c	 mov	 eax, DWORD PTR _r$[ebp+12]
  01595	2b 45 14	 sub	 eax, DWORD PTR _r$[ebp+4]
  01598	89 45 c4	 mov	 DWORD PTR _cy$[ebp], eax

; 474  : 	CDC dcBmp,dcMask;

  0159b	8d 4d d8	 lea	 ecx, DWORD PTR _dcBmp$[ebp]
  0159e	e8 00 00 00 00	 call	 ??0CDC@@QAE@XZ		; CDC::CDC
  015a3	c7 45 fc 00 00
	00 00		 mov	 DWORD PTR __$EHRec$[ebp+8], 0
  015aa	8d 4d c8	 lea	 ecx, DWORD PTR _dcMask$[ebp]
  015ad	e8 00 00 00 00	 call	 ??0CDC@@QAE@XZ		; CDC::CDC
  015b2	c6 45 fc 01	 mov	 BYTE PTR __$EHRec$[ebp+8], 1

; 475  : 	dcBmp.CreateCompatibleDC(dc);

  015b6	8b 4d 08	 mov	 ecx, DWORD PTR _dc$[ebp]
  015b9	51		 push	 ecx
  015ba	8d 4d d8	 lea	 ecx, DWORD PTR _dcBmp$[ebp]
  015bd	e8 00 00 00 00	 call	 ?CreateCompatibleDC@CDC@@QAEHPAV1@@Z ; CDC::CreateCompatibleDC

; 476  : 	CBitmap hBitmapBmp;                     //

  015c2	8d 4d e8	 lea	 ecx, DWORD PTR _hBitmapBmp$[ebp]
  015c5	e8 00 00 00 00	 call	 ??0CBitmap@@QAE@XZ	; CBitmap::CBitmap
  015ca	c6 45 fc 02	 mov	 BYTE PTR __$EHRec$[ebp+8], 2

; 477  : 	hBitmapBmp.CreateCompatibleBitmap(dc,hbmp->m_lpBMIH->biWidth,hbmp->m_lpBMIH->biHeight);

  015ce	8b 55 0c	 mov	 edx, DWORD PTR _hbmp$[ebp]
  015d1	8b 42 04	 mov	 eax, DWORD PTR [edx+4]
  015d4	8b 48 08	 mov	 ecx, DWORD PTR [eax+8]
  015d7	51		 push	 ecx
  015d8	8b 55 0c	 mov	 edx, DWORD PTR _hbmp$[ebp]
  015db	8b 42 04	 mov	 eax, DWORD PTR [edx+4]
  015de	8b 48 04	 mov	 ecx, DWORD PTR [eax+4]
  015e1	51		 push	 ecx
  015e2	8b 55 08	 mov	 edx, DWORD PTR _dc$[ebp]
  015e5	52		 push	 edx
  015e6	8d 4d e8	 lea	 ecx, DWORD PTR _hBitmapBmp$[ebp]
  015e9	e8 00 00 00 00	 call	 ?CreateCompatibleBitmap@CBitmap@@QAEHPAVCDC@@HH@Z ; CBitmap::CreateCompatibleBitmap

; 478  : 	dcBmp.SelectObject(&hBitmapBmp);

  015ee	8d 45 e8	 lea	 eax, DWORD PTR _hBitmapBmp$[ebp]
  015f1	50		 push	 eax
  015f2	8d 4d d8	 lea	 ecx, DWORD PTR _dcBmp$[ebp]
  015f5	e8 00 00 00 00	 call	 ?SelectObject@CDC@@QAEPAVCBitmap@@PAV2@@Z ; CDC::SelectObject

; 479  : 	hbmp->SetCDibRect(CRect(0,0,hbmp->m_lpBMIH->biWidth,hbmp->m_lpBMIH->biHeight));

  015fa	8b 4d 0c	 mov	 ecx, DWORD PTR _hbmp$[ebp]
  015fd	8b 51 04	 mov	 edx, DWORD PTR [ecx+4]
  01600	8b 42 08	 mov	 eax, DWORD PTR [edx+8]
  01603	50		 push	 eax
  01604	8b 4d 0c	 mov	 ecx, DWORD PTR _hbmp$[ebp]
  01607	8b 51 04	 mov	 edx, DWORD PTR [ecx+4]
  0160a	8b 42 04	 mov	 eax, DWORD PTR [edx+4]
  0160d	50		 push	 eax
  0160e	6a 00		 push	 0
  01610	6a 00		 push	 0
  01612	8d 4d 84	 lea	 ecx, DWORD PTR $T199581[ebp]
  01615	e8 00 00 00 00	 call	 ??0CRect@@QAE@HHHH@Z	; CRect::CRect
  0161a	83 ec 10	 sub	 esp, 16			; 00000010H
  0161d	8b cc		 mov	 ecx, esp
  0161f	8b 10		 mov	 edx, DWORD PTR [eax]
  01621	89 11		 mov	 DWORD PTR [ecx], edx
  01623	8b 50 04	 mov	 edx, DWORD PTR [eax+4]
  01626	89 51 04	 mov	 DWORD PTR [ecx+4], edx
  01629	8b 50 08	 mov	 edx, DWORD PTR [eax+8]
  0162c	89 51 08	 mov	 DWORD PTR [ecx+8], edx
  0162f	8b 40 0c	 mov	 eax, DWORD PTR [eax+12]
  01632	89 41 0c	 mov	 DWORD PTR [ecx+12], eax
  01635	8b 4d 0c	 mov	 ecx, DWORD PTR _hbmp$[ebp]
  01638	e8 00 00 00 00	 call	 ?SetCDibRect@CDibBitmap@@QAEXVCRect@@@Z ; CDibBitmap::SetCDibRect

; 480  : 	hbmp->Draw(&dcBmp,FALSE);

  0163d	6a 01		 push	 1
  0163f	6a 00		 push	 0
  01641	6a 00		 push	 0
  01643	8d 4d d8	 lea	 ecx, DWORD PTR _dcBmp$[ebp]
  01646	51		 push	 ecx
  01647	8b 4d 0c	 mov	 ecx, DWORD PTR _hbmp$[ebp]
  0164a	e8 00 00 00 00	 call	 ?Draw@CDibBitmap@@QAEHPAVCDC@@HKH@Z ; CDibBitmap::Draw

; 481  : 	
; 482  : 	if (mpBmpMask!=NULL){

  0164f	8b 95 70 ff ff
	ff		 mov	 edx, DWORD PTR _this$[ebp]
  01655	83 ba 8c 00 00
	00 00		 cmp	 DWORD PTR [edx+140], 0
  0165c	0f 84 d7 02 00
	00		 je	 $L198169

; 483  : 
; 484  : 		dcMask.CreateCompatibleDC(dc);

  01662	8b 45 08	 mov	 eax, DWORD PTR _dc$[ebp]
  01665	50		 push	 eax
  01666	8d 4d c8	 lea	 ecx, DWORD PTR _dcMask$[ebp]
  01669	e8 00 00 00 00	 call	 ?CreateCompatibleDC@CDC@@QAEHPAV1@@Z ; CDC::CreateCompatibleDC

; 485  : 		CBitmap hBitmapMask;//		 

  0166e	8d 4d a4	 lea	 ecx, DWORD PTR _hBitmapMask$198170[ebp]
  01671	e8 00 00 00 00	 call	 ??0CBitmap@@QAE@XZ	; CBitmap::CBitmap
  01676	c6 45 fc 03	 mov	 BYTE PTR __$EHRec$[ebp+8], 3

; 486  : 		hBitmapMask.CreateCompatibleBitmap(dc,mpBmpMask->m_lpBMIH->biWidth,mpBmpMask->m_lpBMIH->biHeight);

  0167a	8b 8d 70 ff ff
	ff		 mov	 ecx, DWORD PTR _this$[ebp]
  01680	8b 91 8c 00 00
	00		 mov	 edx, DWORD PTR [ecx+140]
  01686	8b 42 04	 mov	 eax, DWORD PTR [edx+4]
  01689	8b 48 08	 mov	 ecx, DWORD PTR [eax+8]
  0168c	51		 push	 ecx
  0168d	8b 95 70 ff ff
	ff		 mov	 edx, DWORD PTR _this$[ebp]
  01693	8b 82 8c 00 00
	00		 mov	 eax, DWORD PTR [edx+140]
  01699	8b 48 04	 mov	 ecx, DWORD PTR [eax+4]
  0169c	8b 51 04	 mov	 edx, DWORD PTR [ecx+4]
  0169f	52		 push	 edx
  016a0	8b 45 08	 mov	 eax, DWORD PTR _dc$[ebp]
  016a3	50		 push	 eax
  016a4	8d 4d a4	 lea	 ecx, DWORD PTR _hBitmapMask$198170[ebp]
  016a7	e8 00 00 00 00	 call	 ?CreateCompatibleBitmap@CBitmap@@QAEHPAVCDC@@HH@Z ; CBitmap::CreateCompatibleBitmap

; 487  : 		dcMask.SelectObject(&hBitmapMask);

  016ac	8d 4d a4	 lea	 ecx, DWORD PTR _hBitmapMask$198170[ebp]
  016af	51		 push	 ecx
  016b0	8d 4d c8	 lea	 ecx, DWORD PTR _dcMask$[ebp]
  016b3	e8 00 00 00 00	 call	 ?SelectObject@CDC@@QAEPAVCBitmap@@PAV2@@Z ; CDC::SelectObject

; 488  : 		mpBmpMask->SetCDibRect(CRect(0,0,mpBmpMask->m_lpBMIH->biWidth,mpBmpMask->m_lpBMIH->biHeight));

  016b8	8b 95 70 ff ff
	ff		 mov	 edx, DWORD PTR _this$[ebp]
  016be	8b 82 8c 00 00
	00		 mov	 eax, DWORD PTR [edx+140]
  016c4	8b 48 04	 mov	 ecx, DWORD PTR [eax+4]
  016c7	8b 51 08	 mov	 edx, DWORD PTR [ecx+8]
  016ca	52		 push	 edx
  016cb	8b 85 70 ff ff
	ff		 mov	 eax, DWORD PTR _this$[ebp]
  016d1	8b 88 8c 00 00
	00		 mov	 ecx, DWORD PTR [eax+140]
  016d7	8b 51 04	 mov	 edx, DWORD PTR [ecx+4]
  016da	8b 42 04	 mov	 eax, DWORD PTR [edx+4]
  016dd	50		 push	 eax
  016de	6a 00		 push	 0
  016e0	6a 00		 push	 0
  016e2	8d 8d 74 ff ff
	ff		 lea	 ecx, DWORD PTR $T199582[ebp]
  016e8	e8 00 00 00 00	 call	 ??0CRect@@QAE@HHHH@Z	; CRect::CRect
  016ed	83 ec 10	 sub	 esp, 16			; 00000010H
  016f0	8b cc		 mov	 ecx, esp
  016f2	8b 10		 mov	 edx, DWORD PTR [eax]
  016f4	89 11		 mov	 DWORD PTR [ecx], edx
  016f6	8b 50 04	 mov	 edx, DWORD PTR [eax+4]
  016f9	89 51 04	 mov	 DWORD PTR [ecx+4], edx
  016fc	8b 50 08	 mov	 edx, DWORD PTR [eax+8]
  016ff	89 51 08	 mov	 DWORD PTR [ecx+8], edx
  01702	8b 40 0c	 mov	 eax, DWORD PTR [eax+12]
  01705	89 41 0c	 mov	 DWORD PTR [ecx+12], eax
  01708	8b 8d 70 ff ff
	ff		 mov	 ecx, DWORD PTR _this$[ebp]
  0170e	8b 89 8c 00 00
	00		 mov	 ecx, DWORD PTR [ecx+140]
  01714	e8 00 00 00 00	 call	 ?SetCDibRect@CDibBitmap@@QAEXVCRect@@@Z ; CDibBitmap::SetCDibRect

; 489  : 		mpBmpMask->Draw(&dcMask,FALSE);

  01719	6a 01		 push	 1
  0171b	6a 00		 push	 0
  0171d	6a 00		 push	 0
  0171f	8d 55 c8	 lea	 edx, DWORD PTR _dcMask$[ebp]
  01722	52		 push	 edx
  01723	8b 85 70 ff ff
	ff		 mov	 eax, DWORD PTR _this$[ebp]
  01729	8b 88 8c 00 00
	00		 mov	 ecx, DWORD PTR [eax+140]
  0172f	e8 00 00 00 00	 call	 ?Draw@CDibBitmap@@QAEHPAVCDC@@HKH@Z ; CDibBitmap::Draw

; 490  : 
; 491  : 		CDC hdcMem;

  01734	8d 4d b4	 lea	 ecx, DWORD PTR _hdcMem$198172[ebp]
  01737	e8 00 00 00 00	 call	 ??0CDC@@QAE@XZ		; CDC::CDC
  0173c	c6 45 fc 04	 mov	 BYTE PTR __$EHRec$[ebp+8], 4

; 492  : 		hdcMem.CreateCompatibleDC(dc);

  01740	8b 4d 08	 mov	 ecx, DWORD PTR _dc$[ebp]
  01743	51		 push	 ecx
  01744	8d 4d b4	 lea	 ecx, DWORD PTR _hdcMem$198172[ebp]
  01747	e8 00 00 00 00	 call	 ?CreateCompatibleDC@CDC@@QAEHPAV1@@Z ; CDC::CreateCompatibleDC

; 493  : 	    CBitmap hBitmap;

  0174c	8d 4d ac	 lea	 ecx, DWORD PTR _hBitmap$198173[ebp]
  0174f	e8 00 00 00 00	 call	 ??0CBitmap@@QAE@XZ	; CBitmap::CBitmap
  01754	c6 45 fc 05	 mov	 BYTE PTR __$EHRec$[ebp+8], 5

; 494  : 		hBitmap.CreateCompatibleBitmap(dc,cx,cy);

  01758	8b 55 c4	 mov	 edx, DWORD PTR _cy$[ebp]
  0175b	52		 push	 edx
  0175c	8b 45 f0	 mov	 eax, DWORD PTR _cx$[ebp]
  0175f	50		 push	 eax
  01760	8b 4d 08	 mov	 ecx, DWORD PTR _dc$[ebp]
  01763	51		 push	 ecx
  01764	8d 4d ac	 lea	 ecx, DWORD PTR _hBitmap$198173[ebp]
  01767	e8 00 00 00 00	 call	 ?CreateCompatibleBitmap@CBitmap@@QAEHPAVCDC@@HH@Z ; CBitmap::CreateCompatibleBitmap

; 495  : 	    hdcMem.SelectObject(hBitmap);		

  0176c	8d 4d ac	 lea	 ecx, DWORD PTR _hBitmap$198173[ebp]
  0176f	e8 00 00 00 00	 call	 ??BCGdiObject@@QBEPAXXZ	; CGdiObject::operator void *
  01774	50		 push	 eax
  01775	8d 4d b4	 lea	 ecx, DWORD PTR _hdcMem$198172[ebp]
  01778	e8 00 00 00 00	 call	 ?SelectObject@CDC@@QAEPAXPAX@Z ; CDC::SelectObject

; 496  :         hdcMem.BitBlt(r.left,r.top,cx,cy,dc,0,0,SRCCOPY);

  0177d	68 20 00 cc 00	 push	 13369376		; 00cc0020H
  01782	6a 00		 push	 0
  01784	6a 00		 push	 0
  01786	8b 55 08	 mov	 edx, DWORD PTR _dc$[ebp]
  01789	52		 push	 edx
  0178a	8b 45 c4	 mov	 eax, DWORD PTR _cy$[ebp]
  0178d	50		 push	 eax
  0178e	8b 4d f0	 mov	 ecx, DWORD PTR _cx$[ebp]
  01791	51		 push	 ecx
  01792	8b 55 14	 mov	 edx, DWORD PTR _r$[ebp+4]
  01795	52		 push	 edx
  01796	8b 45 10	 mov	 eax, DWORD PTR _r$[ebp]
  01799	50		 push	 eax
  0179a	8d 4d b4	 lea	 ecx, DWORD PTR _hdcMem$198172[ebp]
  0179d	e8 00 00 00 00	 call	 ?BitBlt@CDC@@QAEHHHHHPAV1@HHK@Z ; CDC::BitBlt

; 497  : 		if(!DrawMode){

  017a2	83 7d 20 00	 cmp	 DWORD PTR _DrawMode$[ebp], 0
  017a6	75 74		 jne	 SHORT $L198175

; 498  : 			hdcMem.BitBlt(r.left,r.top,cx,cy,&dcBmp,0,0,SRCINVERT);

  017a8	68 46 00 66 00	 push	 6684742			; 00660046H
  017ad	6a 00		 push	 0
  017af	6a 00		 push	 0
  017b1	8d 4d d8	 lea	 ecx, DWORD PTR _dcBmp$[ebp]
  017b4	51		 push	 ecx
  017b5	8b 55 c4	 mov	 edx, DWORD PTR _cy$[ebp]
  017b8	52		 push	 edx
  017b9	8b 45 f0	 mov	 eax, DWORD PTR _cx$[ebp]
  017bc	50		 push	 eax
  017bd	8b 4d 14	 mov	 ecx, DWORD PTR _r$[ebp+4]
  017c0	51		 push	 ecx
  017c1	8b 55 10	 mov	 edx, DWORD PTR _r$[ebp]
  017c4	52		 push	 edx
  017c5	8d 4d b4	 lea	 ecx, DWORD PTR _hdcMem$198172[ebp]
  017c8	e8 00 00 00 00	 call	 ?BitBlt@CDC@@QAEHHHHHPAV1@HHK@Z ; CDC::BitBlt

; 499  : 			hdcMem.BitBlt(r.left,r.top,cx,cy,&dcMask,0,0,SRCAND);

  017cd	68 c6 00 88 00	 push	 8913094			; 008800c6H
  017d2	6a 00		 push	 0
  017d4	6a 00		 push	 0
  017d6	8d 45 c8	 lea	 eax, DWORD PTR _dcMask$[ebp]
  017d9	50		 push	 eax
  017da	8b 4d c4	 mov	 ecx, DWORD PTR _cy$[ebp]
  017dd	51		 push	 ecx
  017de	8b 55 f0	 mov	 edx, DWORD PTR _cx$[ebp]
  017e1	52		 push	 edx
  017e2	8b 45 14	 mov	 eax, DWORD PTR _r$[ebp+4]
  017e5	50		 push	 eax
  017e6	8b 4d 10	 mov	 ecx, DWORD PTR _r$[ebp]
  017e9	51		 push	 ecx
  017ea	8d 4d b4	 lea	 ecx, DWORD PTR _hdcMem$198172[ebp]
  017ed	e8 00 00 00 00	 call	 ?BitBlt@CDC@@QAEHHHHHPAV1@HHK@Z ; CDC::BitBlt

; 500  : 			hdcMem.BitBlt(r.left,r.top,cx,cy,&dcBmp,0,0,SRCINVERT);

  017f2	68 46 00 66 00	 push	 6684742			; 00660046H
  017f7	6a 00		 push	 0
  017f9	6a 00		 push	 0
  017fb	8d 55 d8	 lea	 edx, DWORD PTR _dcBmp$[ebp]
  017fe	52		 push	 edx
  017ff	8b 45 c4	 mov	 eax, DWORD PTR _cy$[ebp]
  01802	50		 push	 eax
  01803	8b 4d f0	 mov	 ecx, DWORD PTR _cx$[ebp]
  01806	51		 push	 ecx
  01807	8b 55 14	 mov	 edx, DWORD PTR _r$[ebp+4]
  0180a	52		 push	 edx
  0180b	8b 45 10	 mov	 eax, DWORD PTR _r$[ebp]
  0180e	50		 push	 eax
  0180f	8d 4d b4	 lea	 ecx, DWORD PTR _hdcMem$198172[ebp]
  01812	e8 00 00 00 00	 call	 ?BitBlt@CDC@@QAEHHHHHPAV1@HHK@Z ; CDC::BitBlt

; 501  : 		} else {

  01817	e9 ab 00 00 00	 jmp	 $L198179
$L198175:

; 502  : 			int bx=GetBitmapWidth(hbmp);

  0181c	8b 4d 0c	 mov	 ecx, DWORD PTR _hbmp$[ebp]
  0181f	51		 push	 ecx
  01820	8b 8d 70 ff ff
	ff		 mov	 ecx, DWORD PTR _this$[ebp]
  01826	e8 00 00 00 00	 call	 ?GetBitmapWidth@CxStaticText@@IAEHPAVCDibBitmap@@@Z ; CxStaticText::GetBitmapWidth
  0182b	89 45 a0	 mov	 DWORD PTR _bx$198180[ebp], eax

; 503  : 			int by=GetBitmapHeight(hbmp);

  0182e	8b 55 0c	 mov	 edx, DWORD PTR _hbmp$[ebp]
  01831	52		 push	 edx
  01832	8b 8d 70 ff ff
	ff		 mov	 ecx, DWORD PTR _this$[ebp]
  01838	e8 00 00 00 00	 call	 ?GetBitmapHeight@CxStaticText@@IAEHPAVCDibBitmap@@@Z ; CxStaticText::GetBitmapHeight
  0183d	89 45 9c	 mov	 DWORD PTR _by$198181[ebp], eax

; 504  : 			hdcMem.StretchBlt(r.left,r.top,cx,cy,&dcBmp,0,0,bx,by,SRCINVERT);

  01840	68 46 00 66 00	 push	 6684742			; 00660046H
  01845	8b 45 9c	 mov	 eax, DWORD PTR _by$198181[ebp]
  01848	50		 push	 eax
  01849	8b 4d a0	 mov	 ecx, DWORD PTR _bx$198180[ebp]
  0184c	51		 push	 ecx
  0184d	6a 00		 push	 0
  0184f	6a 00		 push	 0
  01851	8d 55 d8	 lea	 edx, DWORD PTR _dcBmp$[ebp]
  01854	52		 push	 edx
  01855	8b 45 c4	 mov	 eax, DWORD PTR _cy$[ebp]
  01858	50		 push	 eax
  01859	8b 4d f0	 mov	 ecx, DWORD PTR _cx$[ebp]
  0185c	51		 push	 ecx
  0185d	8b 55 14	 mov	 edx, DWORD PTR _r$[ebp+4]
  01860	52		 push	 edx
  01861	8b 45 10	 mov	 eax, DWORD PTR _r$[ebp]
  01864	50		 push	 eax
  01865	8d 4d b4	 lea	 ecx, DWORD PTR _hdcMem$198172[ebp]
  01868	e8 00 00 00 00	 call	 ?StretchBlt@CDC@@QAEHHHHHPAV1@HHHHK@Z ; CDC::StretchBlt

; 505  : 			hdcMem.StretchBlt(r.left,r.top,cx,cy,&dcMask,0,0,bx,by,SRCAND);

  0186d	68 c6 00 88 00	 push	 8913094			; 008800c6H
  01872	8b 4d 9c	 mov	 ecx, DWORD PTR _by$198181[ebp]
  01875	51		 push	 ecx
  01876	8b 55 a0	 mov	 edx, DWORD PTR _bx$198180[ebp]
  01879	52		 push	 edx
  0187a	6a 00		 push	 0
  0187c	6a 00		 push	 0
  0187e	8d 45 c8	 lea	 eax, DWORD PTR _dcMask$[ebp]
  01881	50		 push	 eax
  01882	8b 4d c4	 mov	 ecx, DWORD PTR _cy$[ebp]
  01885	51		 push	 ecx
  01886	8b 55 f0	 mov	 edx, DWORD PTR _cx$[ebp]
  01889	52		 push	 edx
  0188a	8b 45 14	 mov	 eax, DWORD PTR _r$[ebp+4]
  0188d	50		 push	 eax
  0188e	8b 4d 10	 mov	 ecx, DWORD PTR _r$[ebp]
  01891	51		 push	 ecx
  01892	8d 4d b4	 lea	 ecx, DWORD PTR _hdcMem$198172[ebp]
  01895	e8 00 00 00 00	 call	 ?StretchBlt@CDC@@QAEHHHHHPAV1@HHHHK@Z ; CDC::StretchBlt

; 506  : 			hdcMem.StretchBlt(r.left,r.top,cx,cy,&dcBmp,0,0,bx,by,SRCINVERT);

  0189a	68 46 00 66 00	 push	 6684742			; 00660046H
  0189f	8b 55 9c	 mov	 edx, DWORD PTR _by$198181[ebp]
  018a2	52		 push	 edx
  018a3	8b 45 a0	 mov	 eax, DWORD PTR _bx$198180[ebp]
  018a6	50		 push	 eax
  018a7	6a 00		 push	 0
  018a9	6a 00		 push	 0
  018ab	8d 4d d8	 lea	 ecx, DWORD PTR _dcBmp$[ebp]
  018ae	51		 push	 ecx
  018af	8b 55 c4	 mov	 edx, DWORD PTR _cy$[ebp]
  018b2	52		 push	 edx
  018b3	8b 45 f0	 mov	 eax, DWORD PTR _cx$[ebp]
  018b6	50		 push	 eax
  018b7	8b 4d 14	 mov	 ecx, DWORD PTR _r$[ebp+4]
  018ba	51		 push	 ecx
  018bb	8b 55 10	 mov	 edx, DWORD PTR _r$[ebp]
  018be	52		 push	 edx
  018bf	8d 4d b4	 lea	 ecx, DWORD PTR _hdcMem$198172[ebp]
  018c2	e8 00 00 00 00	 call	 ?StretchBlt@CDC@@QAEHHHHHPAV1@HHHHK@Z ; CDC::StretchBlt
$L198179:

; 507  : 		}
; 508  :         dc->BitBlt(r.left,r.top,cx,cy,&hdcMem,0,0,SRCCOPY);

  018c7	68 20 00 cc 00	 push	 13369376		; 00cc0020H
  018cc	6a 00		 push	 0
  018ce	6a 00		 push	 0
  018d0	8d 45 b4	 lea	 eax, DWORD PTR _hdcMem$198172[ebp]
  018d3	50		 push	 eax
  018d4	8b 4d c4	 mov	 ecx, DWORD PTR _cy$[ebp]
  018d7	51		 push	 ecx
  018d8	8b 55 f0	 mov	 edx, DWORD PTR _cx$[ebp]
  018db	52		 push	 edx
  018dc	8b 45 14	 mov	 eax, DWORD PTR _r$[ebp+4]
  018df	50		 push	 eax
  018e0	8b 4d 10	 mov	 ecx, DWORD PTR _r$[ebp]
  018e3	51		 push	 ecx
  018e4	8b 4d 08	 mov	 ecx, DWORD PTR _dc$[ebp]
  018e7	e8 00 00 00 00	 call	 ?BitBlt@CDC@@QAEHHHHHPAV1@HHK@Z ; CDC::BitBlt

; 509  : 
; 510  : 
; 511  : 		hBitmap.DeleteObject();

  018ec	8d 4d ac	 lea	 ecx, DWORD PTR _hBitmap$198173[ebp]
  018ef	e8 00 00 00 00	 call	 ?DeleteObject@CGdiObject@@QAEHXZ ; CGdiObject::DeleteObject

; 512  : 		hBitmapMask.DeleteObject();

  018f4	8d 4d a4	 lea	 ecx, DWORD PTR _hBitmapMask$198170[ebp]
  018f7	e8 00 00 00 00	 call	 ?DeleteObject@CGdiObject@@QAEHXZ ; CGdiObject::DeleteObject

; 513  : 		hdcMem.DeleteDC();

  018fc	8d 4d b4	 lea	 ecx, DWORD PTR _hdcMem$198172[ebp]
  018ff	e8 00 00 00 00	 call	 ?DeleteDC@CDC@@QAEHXZ	; CDC::DeleteDC

; 514  : 		DeleteDC(dcMask);

  01904	8d 4d c8	 lea	 ecx, DWORD PTR _dcMask$[ebp]
  01907	e8 00 00 00 00	 call	 ??BCDC@@QBEPAUHDC__@@XZ	; CDC::operator HDC__ *
  0190c	50		 push	 eax
  0190d	ff 15 00 00 00
	00		 call	 DWORD PTR __imp__DeleteDC@4

; 515  : 	} else {

  01913	c6 45 fc 04	 mov	 BYTE PTR __$EHRec$[ebp+8], 4
  01917	8d 4d ac	 lea	 ecx, DWORD PTR _hBitmap$198173[ebp]
  0191a	e8 00 00 00 00	 call	 ??1CBitmap@@UAE@XZ	; CBitmap::~CBitmap
  0191f	c6 45 fc 03	 mov	 BYTE PTR __$EHRec$[ebp+8], 3
  01923	8d 4d b4	 lea	 ecx, DWORD PTR _hdcMem$198172[ebp]
  01926	e8 00 00 00 00	 call	 ??1CDC@@UAE@XZ		; CDC::~CDC
  0192b	c6 45 fc 02	 mov	 BYTE PTR __$EHRec$[ebp+8], 2
  0192f	8d 4d a4	 lea	 ecx, DWORD PTR _hBitmapMask$198170[ebp]
  01932	e8 00 00 00 00	 call	 ??1CBitmap@@UAE@XZ	; CBitmap::~CBitmap
  01937	eb 7e		 jmp	 SHORT $L198186
$L198169:

; 516  : 		if(!DrawMode){

  01939	83 7d 20 00	 cmp	 DWORD PTR _DrawMode$[ebp], 0
  0193d	75 27		 jne	 SHORT $L198187

; 517  : 			dc->BitBlt(r.left,r.top,cx,cy,&dcBmp,0,0,SRCCOPY);

  0193f	68 20 00 cc 00	 push	 13369376		; 00cc0020H
  01944	6a 00		 push	 0
  01946	6a 00		 push	 0
  01948	8d 55 d8	 lea	 edx, DWORD PTR _dcBmp$[ebp]
  0194b	52		 push	 edx
  0194c	8b 45 c4	 mov	 eax, DWORD PTR _cy$[ebp]
  0194f	50		 push	 eax
  01950	8b 4d f0	 mov	 ecx, DWORD PTR _cx$[ebp]
  01953	51		 push	 ecx
  01954	8b 55 14	 mov	 edx, DWORD PTR _r$[ebp+4]
  01957	52		 push	 edx
  01958	8b 45 10	 mov	 eax, DWORD PTR _r$[ebp]
  0195b	50		 push	 eax
  0195c	8b 4d 08	 mov	 ecx, DWORD PTR _dc$[ebp]
  0195f	e8 00 00 00 00	 call	 ?BitBlt@CDC@@QAEHHHHHPAV1@HHK@Z ; CDC::BitBlt

; 518  : 		} else {

  01964	eb 51		 jmp	 SHORT $L198186
$L198187:

; 519  : 			int bx=GetBitmapWidth(hbmp);

  01966	8b 4d 0c	 mov	 ecx, DWORD PTR _hbmp$[ebp]
  01969	51		 push	 ecx
  0196a	8b 8d 70 ff ff
	ff		 mov	 ecx, DWORD PTR _this$[ebp]
  01970	e8 00 00 00 00	 call	 ?GetBitmapWidth@CxStaticText@@IAEHPAVCDibBitmap@@@Z ; CxStaticText::GetBitmapWidth
  01975	89 45 98	 mov	 DWORD PTR _bx$198190[ebp], eax

; 520  : 			int by=GetBitmapHeight(hbmp);

  01978	8b 55 0c	 mov	 edx, DWORD PTR _hbmp$[ebp]
  0197b	52		 push	 edx
  0197c	8b 8d 70 ff ff
	ff		 mov	 ecx, DWORD PTR _this$[ebp]
  01982	e8 00 00 00 00	 call	 ?GetBitmapHeight@CxStaticText@@IAEHPAVCDibBitmap@@@Z ; CxStaticText::GetBitmapHeight
  01987	89 45 94	 mov	 DWORD PTR _by$198191[ebp], eax

; 521  : 			dc->StretchBlt(r.left,r.top,cx,cy,&dcBmp,0,0,bx,by,SRCCOPY);

  0198a	68 20 00 cc 00	 push	 13369376		; 00cc0020H
  0198f	8b 45 94	 mov	 eax, DWORD PTR _by$198191[ebp]
  01992	50		 push	 eax
  01993	8b 4d 98	 mov	 ecx, DWORD PTR _bx$198190[ebp]
  01996	51		 push	 ecx
  01997	6a 00		 push	 0
  01999	6a 00		 push	 0
  0199b	8d 55 d8	 lea	 edx, DWORD PTR _dcBmp$[ebp]
  0199e	52		 push	 edx
  0199f	8b 45 c4	 mov	 eax, DWORD PTR _cy$[ebp]
  019a2	50		 push	 eax
  019a3	8b 4d f0	 mov	 ecx, DWORD PTR _cx$[ebp]
  019a6	51		 push	 ecx
  019a7	8b 55 14	 mov	 edx, DWORD PTR _r$[ebp+4]
  019aa	52		 push	 edx
  019ab	8b 45 10	 mov	 eax, DWORD PTR _r$[ebp]
  019ae	50		 push	 eax
  019af	8b 4d 08	 mov	 ecx, DWORD PTR _dc$[ebp]
  019b2	e8 00 00 00 00	 call	 ?StretchBlt@CDC@@QAEHHHHHPAV1@HHHHK@Z ; CDC::StretchBlt
$L198186:

; 522  : 		}
; 523  : 	}
; 524  : 	hBitmapBmp.DeleteObject();

  019b7	8d 4d e8	 lea	 ecx, DWORD PTR _hBitmapBmp$[ebp]
  019ba	e8 00 00 00 00	 call	 ?DeleteObject@CGdiObject@@QAEHXZ ; CGdiObject::DeleteObject

; 525  : 	DeleteDC(dcBmp);

  019bf	8d 4d d8	 lea	 ecx, DWORD PTR _dcBmp$[ebp]
  019c2	e8 00 00 00 00	 call	 ??BCDC@@QBEPAUHDC__@@XZ	; CDC::operator HDC__ *
  019c7	50		 push	 eax
  019c8	ff 15 00 00 00
	00		 call	 DWORD PTR __imp__DeleteDC@4

; 526  : }

  019ce	c6 45 fc 01	 mov	 BYTE PTR __$EHRec$[ebp+8], 1
  019d2	8d 4d e8	 lea	 ecx, DWORD PTR _hBitmapBmp$[ebp]
  019d5	e8 00 00 00 00	 call	 ??1CBitmap@@UAE@XZ	; CBitmap::~CBitmap
  019da	c6 45 fc 00	 mov	 BYTE PTR __$EHRec$[ebp+8], 0
  019de	8d 4d c8	 lea	 ecx, DWORD PTR _dcMask$[ebp]
  019e1	e8 00 00 00 00	 call	 ??1CDC@@UAE@XZ		; CDC::~CDC
  019e6	c7 45 fc ff ff
	ff ff		 mov	 DWORD PTR __$EHRec$[ebp+8], -1
  019ed	8d 4d d8	 lea	 ecx, DWORD PTR _dcBmp$[ebp]
  019f0	e8 00 00 00 00	 call	 ??1CDC@@UAE@XZ		; CDC::~CDC
$L198160:
  019f5	8b 4d f4	 mov	 ecx, DWORD PTR __$EHRec$[ebp]
  019f8	64 89 0d 00 00
	00 00		 mov	 DWORD PTR fs:__except_list, ecx
  019ff	8b e5		 mov	 esp, ebp
  01a01	5d		 pop	 ebp
  01a02	c2 1c 00	 ret	 28			; 0000001cH
_TEXT	ENDS
text$x	SEGMENT
$L199583:
  00120	8d 4d d8	 lea	 ecx, DWORD PTR _dcBmp$[ebp]
  00123	e9 00 00 00 00	 jmp	 ??1CDC@@UAE@XZ		; CDC::~CDC
$L199584:
  00128	8d 4d c8	 lea	 ecx, DWORD PTR _dcMask$[ebp]
  0012b	e9 00 00 00 00	 jmp	 ??1CDC@@UAE@XZ		; CDC::~CDC
$L199585:
  00130	8d 4d e8	 lea	 ecx, DWORD PTR _hBitmapBmp$[ebp]
  00133	e9 00 00 00 00	 jmp	 ??1CBitmap@@UAE@XZ	; CBitmap::~CBitmap
$L199586:
  00138	8d 4d a4	 lea	 ecx, DWORD PTR _hBitmapMask$198170[ebp]
  0013b	e9 00 00 00 00	 jmp	 ??1CBitmap@@UAE@XZ	; CBitmap::~CBitmap
$L199587:
  00140	8d 4d b4	 lea	 ecx, DWORD PTR _hdcMem$198172[ebp]
  00143	e9 00 00 00 00	 jmp	 ??1CDC@@UAE@XZ		; CDC::~CDC
$L199588:
  00148	8d 4d ac	 lea	 ecx, DWORD PTR _hBitmap$198173[ebp]
  0014b	e9 00 00 00 00	 jmp	 ??1CBitmap@@UAE@XZ	; CBitmap::~CBitmap
__ehhandler$?DrawBitmap@CxStaticText@@IAEXPAVCDC@@PAVCDibBitmap@@UtagRECT@@H@Z:
  00150	b8 00 00 00 00	 mov	 eax, OFFSET FLAT:$T199590
  00155	e9 00 00 00 00	 jmp	 ___CxxFrameHandler
text$x	ENDS
?DrawBitmap@CxStaticText@@IAEXPAVCDC@@PAVCDibBitmap@@UtagRECT@@H@Z ENDP ; CxStaticText::DrawBitmap
; Function compile flags: /Odt
_TEXT	SEGMENT
_this$ = -4						; size = 4
_hBitmap$ = 8						; size = 4
?GetBitmapWidth@CxStaticText@@IAEHPAVCDibBitmap@@@Z PROC NEAR ; CxStaticText::GetBitmapWidth
; _this$ = ecx

; 528  : {

  01a10	55		 push	 ebp
  01a11	8b ec		 mov	 ebp, esp
  01a13	51		 push	 ecx
  01a14	89 4d fc	 mov	 DWORD PTR _this$[ebp], ecx

; 529  : 	return hBitmap->m_lpBMIH->biWidth;

  01a17	8b 45 08	 mov	 eax, DWORD PTR _hBitmap$[ebp]
  01a1a	8b 48 04	 mov	 ecx, DWORD PTR [eax+4]
  01a1d	8b 41 04	 mov	 eax, DWORD PTR [ecx+4]

; 530  : }

  01a20	8b e5		 mov	 esp, ebp
  01a22	5d		 pop	 ebp
  01a23	c2 04 00	 ret	 4
?GetBitmapWidth@CxStaticText@@IAEHPAVCDibBitmap@@@Z ENDP ; CxStaticText::GetBitmapWidth
; Function compile flags: /Odt
_this$ = -4						; size = 4
_hBitmap$ = 8						; size = 4
?GetBitmapHeight@CxStaticText@@IAEHPAVCDibBitmap@@@Z PROC NEAR ; CxStaticText::GetBitmapHeight
; _this$ = ecx

; 533  : {

  01a30	55		 push	 ebp
  01a31	8b ec		 mov	 ebp, esp
  01a33	51		 push	 ecx
  01a34	89 4d fc	 mov	 DWORD PTR _this$[ebp], ecx

; 534  : 	return hBitmap->m_lpBMIH->biHeight;

  01a37	8b 45 08	 mov	 eax, DWORD PTR _hBitmap$[ebp]
  01a3a	8b 48 04	 mov	 ecx, DWORD PTR [eax+4]
  01a3d	8b 41 08	 mov	 eax, DWORD PTR [ecx+8]

; 535  : }

  01a40	8b e5		 mov	 esp, ebp
  01a42	5d		 pop	 ebp
  01a43	c2 04 00	 ret	 4
?GetBitmapHeight@CxStaticText@@IAEHPAVCDibBitmap@@@Z ENDP ; CxStaticText::GetBitmapHeight
_TEXT	ENDS
xdata$x	SEGMENT
$T199602 DD	0ffffffffH
	DD	FLAT:$L199597
	DD	00H
	DD	FLAT:$L199598
$T199600 DD	019930520H
	DD	02H
	DD	FLAT:$T199602
	DD	2 DUP(00H)
	DD	2 DUP(00H)
; Function compile flags: /Odt
xdata$x	ENDS
_TEXT	SEGMENT
_this$ = -84						; size = 4
$T199596 = -80						; size = 16
_by$ = -64						; size = 4
_memdc$ = -60						; size = 16
_z$ = -44						; size = 4
_bx$ = -40						; size = 4
_hBitmapBmp$ = -36					; size = 8
_x$ = -28						; size = 4
_y$ = -24						; size = 4
_h$ = -20						; size = 4
_w$ = -16						; size = 4
__$EHRec$ = -12						; size = 12
_dc$ = 8						; size = 4
_hbmp$ = 12						; size = 4
_r$ = 16						; size = 16
?FillWithBitmap@CxStaticText@@IAEXPAVCDC@@PAVCDibBitmap@@UtagRECT@@@Z PROC NEAR ; CxStaticText::FillWithBitmap
; _this$ = ecx

; 537  : {

  01a50	55		 push	 ebp
  01a51	8b ec		 mov	 ebp, esp
  01a53	6a ff		 push	 -1
  01a55	68 00 00 00 00	 push	 __ehhandler$?FillWithBitmap@CxStaticText@@IAEXPAVCDC@@PAVCDibBitmap@@UtagRECT@@@Z
  01a5a	64 a1 00 00 00
	00		 mov	 eax, DWORD PTR fs:__except_list
  01a60	50		 push	 eax
  01a61	64 89 25 00 00
	00 00		 mov	 DWORD PTR fs:__except_list, esp
  01a68	83 ec 48	 sub	 esp, 72			; 00000048H
  01a6b	89 4d ac	 mov	 DWORD PTR _this$[ebp], ecx

; 538  : 	if(!hbmp) return;

  01a6e	83 7d 0c 00	 cmp	 DWORD PTR _hbmp$[ebp], 0
  01a72	75 05		 jne	 SHORT $L198207
  01a74	e9 96 01 00 00	 jmp	 $L198206
$L198207:

; 539  : 	CDC memdc;

  01a79	8d 4d c4	 lea	 ecx, DWORD PTR _memdc$[ebp]
  01a7c	e8 00 00 00 00	 call	 ??0CDC@@QAE@XZ		; CDC::CDC
  01a81	c7 45 fc 00 00
	00 00		 mov	 DWORD PTR __$EHRec$[ebp+8], 0

; 540  : 	memdc.CreateCompatibleDC(dc);

  01a88	8b 45 08	 mov	 eax, DWORD PTR _dc$[ebp]
  01a8b	50		 push	 eax
  01a8c	8d 4d c4	 lea	 ecx, DWORD PTR _memdc$[ebp]
  01a8f	e8 00 00 00 00	 call	 ?CreateCompatibleDC@CDC@@QAEHPAV1@@Z ; CDC::CreateCompatibleDC

; 541  : 	CBitmap hBitmapBmp;                     //

  01a94	8d 4d dc	 lea	 ecx, DWORD PTR _hBitmapBmp$[ebp]
  01a97	e8 00 00 00 00	 call	 ??0CBitmap@@QAE@XZ	; CBitmap::CBitmap
  01a9c	c6 45 fc 01	 mov	 BYTE PTR __$EHRec$[ebp+8], 1

; 542  : 	hBitmapBmp.CreateCompatibleBitmap(dc,hbmp->m_lpBMIH->biWidth,hbmp->m_lpBMIH->biHeight);

  01aa0	8b 4d 0c	 mov	 ecx, DWORD PTR _hbmp$[ebp]
  01aa3	8b 51 04	 mov	 edx, DWORD PTR [ecx+4]
  01aa6	8b 42 08	 mov	 eax, DWORD PTR [edx+8]
  01aa9	50		 push	 eax
  01aaa	8b 4d 0c	 mov	 ecx, DWORD PTR _hbmp$[ebp]
  01aad	8b 51 04	 mov	 edx, DWORD PTR [ecx+4]
  01ab0	8b 42 04	 mov	 eax, DWORD PTR [edx+4]
  01ab3	50		 push	 eax
  01ab4	8b 4d 08	 mov	 ecx, DWORD PTR _dc$[ebp]
  01ab7	51		 push	 ecx
  01ab8	8d 4d dc	 lea	 ecx, DWORD PTR _hBitmapBmp$[ebp]
  01abb	e8 00 00 00 00	 call	 ?CreateCompatibleBitmap@CBitmap@@QAEHPAVCDC@@HH@Z ; CBitmap::CreateCompatibleBitmap

; 543  : 	memdc.SelectObject(&hBitmapBmp);

  01ac0	8d 55 dc	 lea	 edx, DWORD PTR _hBitmapBmp$[ebp]
  01ac3	52		 push	 edx
  01ac4	8d 4d c4	 lea	 ecx, DWORD PTR _memdc$[ebp]
  01ac7	e8 00 00 00 00	 call	 ?SelectObject@CDC@@QAEPAVCBitmap@@PAV2@@Z ; CDC::SelectObject

; 544  : 	hbmp->SetCDibRect(CRect(0,0,hbmp->m_lpBMIH->biWidth,hbmp->m_lpBMIH->biHeight));

  01acc	8b 45 0c	 mov	 eax, DWORD PTR _hbmp$[ebp]
  01acf	8b 48 04	 mov	 ecx, DWORD PTR [eax+4]
  01ad2	8b 51 08	 mov	 edx, DWORD PTR [ecx+8]
  01ad5	52		 push	 edx
  01ad6	8b 45 0c	 mov	 eax, DWORD PTR _hbmp$[ebp]
  01ad9	8b 48 04	 mov	 ecx, DWORD PTR [eax+4]
  01adc	8b 51 04	 mov	 edx, DWORD PTR [ecx+4]
  01adf	52		 push	 edx
  01ae0	6a 00		 push	 0
  01ae2	6a 00		 push	 0
  01ae4	8d 4d b0	 lea	 ecx, DWORD PTR $T199596[ebp]
  01ae7	e8 00 00 00 00	 call	 ??0CRect@@QAE@HHHH@Z	; CRect::CRect
  01aec	83 ec 10	 sub	 esp, 16			; 00000010H
  01aef	8b cc		 mov	 ecx, esp
  01af1	8b 10		 mov	 edx, DWORD PTR [eax]
  01af3	89 11		 mov	 DWORD PTR [ecx], edx
  01af5	8b 50 04	 mov	 edx, DWORD PTR [eax+4]
  01af8	89 51 04	 mov	 DWORD PTR [ecx+4], edx
  01afb	8b 50 08	 mov	 edx, DWORD PTR [eax+8]
  01afe	89 51 08	 mov	 DWORD PTR [ecx+8], edx
  01b01	8b 40 0c	 mov	 eax, DWORD PTR [eax+12]
  01b04	89 41 0c	 mov	 DWORD PTR [ecx+12], eax
  01b07	8b 4d 0c	 mov	 ecx, DWORD PTR _hbmp$[ebp]
  01b0a	e8 00 00 00 00	 call	 ?SetCDibRect@CDibBitmap@@QAEXVCRect@@@Z ; CDibBitmap::SetCDibRect

; 545  : 	hbmp->Draw(&memdc,FALSE);

  01b0f	6a 01		 push	 1
  01b11	6a 00		 push	 0
  01b13	6a 00		 push	 0
  01b15	8d 4d c4	 lea	 ecx, DWORD PTR _memdc$[ebp]
  01b18	51		 push	 ecx
  01b19	8b 4d 0c	 mov	 ecx, DWORD PTR _hbmp$[ebp]
  01b1c	e8 00 00 00 00	 call	 ?Draw@CDibBitmap@@QAEHPAVCDC@@HKH@Z ; CDibBitmap::Draw

; 546  : 
; 547  : 	int w = r.right - r.left;

  01b21	8b 55 18	 mov	 edx, DWORD PTR _r$[ebp+8]
  01b24	2b 55 10	 sub	 edx, DWORD PTR _r$[ebp]
  01b27	89 55 f0	 mov	 DWORD PTR _w$[ebp], edx

; 548  : 	int	h = r.bottom - r.top;

  01b2a	8b 45 1c	 mov	 eax, DWORD PTR _r$[ebp+12]
  01b2d	2b 45 14	 sub	 eax, DWORD PTR _r$[ebp+4]
  01b30	89 45 ec	 mov	 DWORD PTR _h$[ebp], eax

; 549  : 	int x,y,z;
; 550  : 	int	bx=GetBitmapWidth(hbmp);

  01b33	8b 4d 0c	 mov	 ecx, DWORD PTR _hbmp$[ebp]
  01b36	51		 push	 ecx
  01b37	8b 4d ac	 mov	 ecx, DWORD PTR _this$[ebp]
  01b3a	e8 00 00 00 00	 call	 ?GetBitmapWidth@CxStaticText@@IAEHPAVCDibBitmap@@@Z ; CxStaticText::GetBitmapWidth
  01b3f	89 45 d8	 mov	 DWORD PTR _bx$[ebp], eax

; 551  : 	int	by=GetBitmapHeight(hbmp);

  01b42	8b 55 0c	 mov	 edx, DWORD PTR _hbmp$[ebp]
  01b45	52		 push	 edx
  01b46	8b 4d ac	 mov	 ecx, DWORD PTR _this$[ebp]
  01b49	e8 00 00 00 00	 call	 ?GetBitmapHeight@CxStaticText@@IAEHPAVCDibBitmap@@@Z ; CxStaticText::GetBitmapHeight
  01b4e	89 45 c0	 mov	 DWORD PTR _by$[ebp], eax

; 552  : 	for (y = r.top ; y < h ; y += by){

  01b51	8b 45 14	 mov	 eax, DWORD PTR _r$[ebp+4]
  01b54	89 45 e8	 mov	 DWORD PTR _y$[ebp], eax
  01b57	eb 09		 jmp	 SHORT $L198218
$L198219:
  01b59	8b 4d e8	 mov	 ecx, DWORD PTR _y$[ebp]
  01b5c	03 4d c0	 add	 ecx, DWORD PTR _by$[ebp]
  01b5f	89 4d e8	 mov	 DWORD PTR _y$[ebp], ecx
$L198218:
  01b62	8b 55 e8	 mov	 edx, DWORD PTR _y$[ebp]
  01b65	3b 55 ec	 cmp	 edx, DWORD PTR _h$[ebp]
  01b68	7d 73		 jge	 SHORT $L198220

; 553  : 		if ((y+by)>h) by=h-y;

  01b6a	8b 45 e8	 mov	 eax, DWORD PTR _y$[ebp]
  01b6d	03 45 c0	 add	 eax, DWORD PTR _by$[ebp]
  01b70	3b 45 ec	 cmp	 eax, DWORD PTR _h$[ebp]
  01b73	7e 09		 jle	 SHORT $L198221
  01b75	8b 4d ec	 mov	 ecx, DWORD PTR _h$[ebp]
  01b78	2b 4d e8	 sub	 ecx, DWORD PTR _y$[ebp]
  01b7b	89 4d c0	 mov	 DWORD PTR _by$[ebp], ecx
$L198221:

; 554  : 		z=bx;

  01b7e	8b 55 d8	 mov	 edx, DWORD PTR _bx$[ebp]
  01b81	89 55 d4	 mov	 DWORD PTR _z$[ebp], edx

; 555  : 		for (x = r.left ; x < w ; x += z){

  01b84	8b 45 10	 mov	 eax, DWORD PTR _r$[ebp]
  01b87	89 45 e4	 mov	 DWORD PTR _x$[ebp], eax
  01b8a	eb 09		 jmp	 SHORT $L198222
$L198223:
  01b8c	8b 4d e4	 mov	 ecx, DWORD PTR _x$[ebp]
  01b8f	03 4d d4	 add	 ecx, DWORD PTR _z$[ebp]
  01b92	89 4d e4	 mov	 DWORD PTR _x$[ebp], ecx
$L198222:
  01b95	8b 55 e4	 mov	 edx, DWORD PTR _x$[ebp]
  01b98	3b 55 f0	 cmp	 edx, DWORD PTR _w$[ebp]
  01b9b	7d 3b		 jge	 SHORT $L198224

; 556  : 			if ((x+z)>w) z=w-x;

  01b9d	8b 45 e4	 mov	 eax, DWORD PTR _x$[ebp]
  01ba0	03 45 d4	 add	 eax, DWORD PTR _z$[ebp]
  01ba3	3b 45 f0	 cmp	 eax, DWORD PTR _w$[ebp]
  01ba6	7e 09		 jle	 SHORT $L198225
  01ba8	8b 4d f0	 mov	 ecx, DWORD PTR _w$[ebp]
  01bab	2b 4d e4	 sub	 ecx, DWORD PTR _x$[ebp]
  01bae	89 4d d4	 mov	 DWORD PTR _z$[ebp], ecx
$L198225:

; 557  : 			dc->BitBlt(x, y, z, by, &memdc, 0, 0, SRCCOPY);

  01bb1	68 20 00 cc 00	 push	 13369376		; 00cc0020H
  01bb6	6a 00		 push	 0
  01bb8	6a 00		 push	 0
  01bba	8d 55 c4	 lea	 edx, DWORD PTR _memdc$[ebp]
  01bbd	52		 push	 edx
  01bbe	8b 45 c0	 mov	 eax, DWORD PTR _by$[ebp]
  01bc1	50		 push	 eax
  01bc2	8b 4d d4	 mov	 ecx, DWORD PTR _z$[ebp]
  01bc5	51		 push	 ecx
  01bc6	8b 55 e8	 mov	 edx, DWORD PTR _y$[ebp]
  01bc9	52		 push	 edx
  01bca	8b 45 e4	 mov	 eax, DWORD PTR _x$[ebp]
  01bcd	50		 push	 eax
  01bce	8b 4d 08	 mov	 ecx, DWORD PTR _dc$[ebp]
  01bd1	e8 00 00 00 00	 call	 ?BitBlt@CDC@@QAEHHHHHPAV1@HHK@Z ; CDC::BitBlt

; 558  : 		}

  01bd6	eb b4		 jmp	 SHORT $L198223
$L198224:

; 559  : 	}

  01bd8	e9 7c ff ff ff	 jmp	 $L198219
$L198220:

; 560  : 	hBitmapBmp.DeleteObject();

  01bdd	8d 4d dc	 lea	 ecx, DWORD PTR _hBitmapBmp$[ebp]
  01be0	e8 00 00 00 00	 call	 ?DeleteObject@CGdiObject@@QAEHXZ ; CGdiObject::DeleteObject

; 561  : 	DeleteDC(memdc);

  01be5	8d 4d c4	 lea	 ecx, DWORD PTR _memdc$[ebp]
  01be8	e8 00 00 00 00	 call	 ??BCDC@@QBEPAUHDC__@@XZ	; CDC::operator HDC__ *
  01bed	50		 push	 eax
  01bee	ff 15 00 00 00
	00		 call	 DWORD PTR __imp__DeleteDC@4

; 562  : }

  01bf4	c6 45 fc 00	 mov	 BYTE PTR __$EHRec$[ebp+8], 0
  01bf8	8d 4d dc	 lea	 ecx, DWORD PTR _hBitmapBmp$[ebp]
  01bfb	e8 00 00 00 00	 call	 ??1CBitmap@@UAE@XZ	; CBitmap::~CBitmap
  01c00	c7 45 fc ff ff
	ff ff		 mov	 DWORD PTR __$EHRec$[ebp+8], -1
  01c07	8d 4d c4	 lea	 ecx, DWORD PTR _memdc$[ebp]
  01c0a	e8 00 00 00 00	 call	 ??1CDC@@UAE@XZ		; CDC::~CDC
$L198206:
  01c0f	8b 4d f4	 mov	 ecx, DWORD PTR __$EHRec$[ebp]
  01c12	64 89 0d 00 00
	00 00		 mov	 DWORD PTR fs:__except_list, ecx
  01c19	8b e5		 mov	 esp, ebp
  01c1b	5d		 pop	 ebp
  01c1c	c2 18 00	 ret	 24			; 00000018H
_TEXT	ENDS
text$x	SEGMENT
$L199597:
  0015a	8d 4d c4	 lea	 ecx, DWORD PTR _memdc$[ebp]
  0015d	e9 00 00 00 00	 jmp	 ??1CDC@@UAE@XZ		; CDC::~CDC
$L199598:
  00162	8d 4d dc	 lea	 ecx, DWORD PTR _hBitmapBmp$[ebp]
  00165	e9 00 00 00 00	 jmp	 ??1CBitmap@@UAE@XZ	; CBitmap::~CBitmap
__ehhandler$?FillWithBitmap@CxStaticText@@IAEXPAVCDC@@PAVCDibBitmap@@UtagRECT@@@Z:
  0016a	b8 00 00 00 00	 mov	 eax, OFFSET FLAT:$T199600
  0016f	e9 00 00 00 00	 jmp	 ___CxxFrameHandler
text$x	ENDS
?FillWithBitmap@CxStaticText@@IAEXPAVCDC@@PAVCDibBitmap@@UtagRECT@@@Z ENDP ; CxStaticText::FillWithBitmap
PUBLIC	?RelayEvent@CxStaticText@@IAEXIIJ@Z		; CxStaticText::RelayEvent
PUBLIC	?OnLButtonDown@CWnd@@IAEXIVCPoint@@@Z		; CWnd::OnLButtonDown
EXTRN	__imp__SetCursor@4:NEAR
; Function compile flags: /Odt
_TEXT	SEGMENT
_this$ = -4						; size = 4
_nFlags$ = 8						; size = 4
_point$ = 12						; size = 8
?OnMouseMove@CxStaticText@@IAEXIVCPoint@@@Z PROC NEAR	; CxStaticText::OnMouseMove
; _this$ = ecx

; 565  : {

  01c20	55		 push	 ebp
  01c21	8b ec		 mov	 ebp, esp
  01c23	51		 push	 ecx
  01c24	89 4d fc	 mov	 DWORD PTR _this$[ebp], ecx

; 566  : 	// TODO: /
; 567  : 
; 568  : 	if(m_EnableClick)

  01c27	8b 45 fc	 mov	 eax, DWORD PTR _this$[ebp]
  01c2a	0f b6 48 6a	 movzx	 ecx, BYTE PTR [eax+106]
  01c2e	85 c9		 test	 ecx, ecx
  01c30	74 0d		 je	 SHORT $L198232

; 569  : 	{	
; 570  : 		::SetCursor(m_hCurFinger);

  01c32	8b 55 fc	 mov	 edx, DWORD PTR _this$[ebp]
  01c35	8b 42 6c	 mov	 eax, DWORD PTR [edx+108]
  01c38	50		 push	 eax
  01c39	ff 15 00 00 00
	00		 call	 DWORD PTR __imp__SetCursor@4
$L198232:

; 571  : 	}
; 572  : 
; 573  : 	if(m_EnableToolTip)

  01c3f	8b 4d fc	 mov	 ecx, DWORD PTR _this$[ebp]
  01c42	0f b6 51 7c	 movzx	 edx, BYTE PTR [ecx+124]
  01c46	85 d2		 test	 edx, edx
  01c48	74 3f		 je	 SHORT $L198233

; 574  : 	{
; 575  : 		RelayEvent(WM_MOUSEMOVE,(WPARAM)nFlags,MAKELPARAM(LOWORD(point.x),LOWORD(point.y)));

  01c4a	8b 45 0c	 mov	 eax, DWORD PTR _point$[ebp]
  01c4d	25 ff ff 00 00	 and	 eax, 65535		; 0000ffffH
  01c52	0f b7 c8	 movzx	 ecx, ax
  01c55	81 e1 ff ff 00
	00		 and	 ecx, 65535		; 0000ffffH
  01c5b	0f b7 d1	 movzx	 edx, cx
  01c5e	8b 45 10	 mov	 eax, DWORD PTR _point$[ebp+4]
  01c61	25 ff ff 00 00	 and	 eax, 65535		; 0000ffffH
  01c66	0f b7 c8	 movzx	 ecx, ax
  01c69	81 e1 ff ff 00
	00		 and	 ecx, 65535		; 0000ffffH
  01c6f	0f b7 c1	 movzx	 eax, cx
  01c72	c1 e0 10	 shl	 eax, 16			; 00000010H
  01c75	0b d0		 or	 edx, eax
  01c77	52		 push	 edx
  01c78	8b 4d 08	 mov	 ecx, DWORD PTR _nFlags$[ebp]
  01c7b	51		 push	 ecx
  01c7c	68 00 02 00 00	 push	 512			; 00000200H
  01c81	8b 4d fc	 mov	 ecx, DWORD PTR _this$[ebp]
  01c84	e8 00 00 00 00	 call	 ?RelayEvent@CxStaticText@@IAEXIIJ@Z ; CxStaticText::RelayEvent
$L198233:

; 576  : 	}
; 577  : 
; 578  : 	CStatic::OnLButtonDown(nFlags, point);

  01c89	8b 55 10	 mov	 edx, DWORD PTR _point$[ebp+4]
  01c8c	52		 push	 edx
  01c8d	8b 45 0c	 mov	 eax, DWORD PTR _point$[ebp]
  01c90	50		 push	 eax
  01c91	8b 4d 08	 mov	 ecx, DWORD PTR _nFlags$[ebp]
  01c94	51		 push	 ecx
  01c95	8b 4d fc	 mov	 ecx, DWORD PTR _this$[ebp]
  01c98	e8 00 00 00 00	 call	 ?OnLButtonDown@CWnd@@IAEXIVCPoint@@@Z ; CWnd::OnLButtonDown

; 579  : }

  01c9d	8b e5		 mov	 esp, ebp
  01c9f	5d		 pop	 ebp
  01ca0	c2 0c 00	 ret	 12			; 0000000cH
?OnMouseMove@CxStaticText@@IAEXIVCPoint@@@Z ENDP	; CxStaticText::OnMouseMove
_TEXT	ENDS
EXTRN	?ModifyStyle@CWnd@@QAEHKKI@Z:NEAR		; CWnd::ModifyStyle
EXTRN	?PreSubclassWindow@CWnd@@UAEXXZ:NEAR		; CWnd::PreSubclassWindow
; Function compile flags: /Odt
_TEXT	SEGMENT
_this$ = -4						; size = 4
?PreSubclassWindow@CxStaticText@@MAEXXZ PROC NEAR	; CxStaticText::PreSubclassWindow
; _this$ = ecx

; 582  : {

  01cb0	55		 push	 ebp
  01cb1	8b ec		 mov	 ebp, esp
  01cb3	51		 push	 ecx
  01cb4	89 4d fc	 mov	 DWORD PTR _this$[ebp], ecx

; 583  : 	// TODO: /
; 584  : 
; 585  : 	ModifyStyle(0,SS_NOTIFY);

  01cb7	6a 00		 push	 0
  01cb9	68 00 01 00 00	 push	 256			; 00000100H
  01cbe	6a 00		 push	 0
  01cc0	8b 4d fc	 mov	 ecx, DWORD PTR _this$[ebp]
  01cc3	e8 00 00 00 00	 call	 ?ModifyStyle@CWnd@@QAEHKKI@Z ; CWnd::ModifyStyle

; 586  : 
; 587  : 	CStatic::PreSubclassWindow();

  01cc8	8b 4d fc	 mov	 ecx, DWORD PTR _this$[ebp]
  01ccb	e8 00 00 00 00	 call	 ?PreSubclassWindow@CWnd@@UAEXXZ ; CWnd::PreSubclassWindow

; 588  : }

  01cd0	8b e5		 mov	 esp, ebp
  01cd2	5d		 pop	 ebp
  01cd3	c3		 ret	 0
?PreSubclassWindow@CxStaticText@@MAEXXZ ENDP		; CxStaticText::PreSubclassWindow
_TEXT	ENDS
PUBLIC	??HATL@@YA?AV?$CStringT@DV?$StrTraitMFC_DLL@DV?$ChTraitsCRT@D@ATL@@@@@0@ABV10@PBD@Z ; ATL::operator+
PUBLIC	?DrawTextA@CDC@@QAEHABV?$CStringT@DV?$StrTraitMFC_DLL@DV?$ChTraitsCRT@D@ATL@@@@@ATL@@PAUtagRECT@@I@Z ; CDC::DrawTextA
PUBLIC	?GetSingleLineTextRect@CxStaticText@@QAE?AVCRect@@XZ ; CxStaticText::GetSingleLineTextRect
xdata$x	SEGMENT
$T199615 DD	0ffffffffH
	DD	FLAT:$L199608
	DD	00H
	DD	FLAT:$L199609
	DD	01H
	DD	FLAT:$L199610
$T199612 DD	019930520H
	DD	03H
	DD	FLAT:$T199615
	DD	2 DUP(00H)
	DD	2 DUP(00H)
; Function compile flags: /Odt
xdata$x	ENDS
_TEXT	SEGMENT
tv147 = -212						; size = 4
tv91 = -208						; size = 4
_this$ = -204						; size = 4
$T199607 = -200						; size = 4
_oldFont$ = -196					; size = 4
_font$ = -192						; size = 8
_lf$ = -184						; size = 60
_dc$ = -124						; size = 84
__$ArrayPad$ = -32					; size = 4
_rc$ = -28						; size = 16
__$EHRec$ = -12						; size = 12
__$ReturnAddr$ = 4					; size = 4
___$ReturnUdt$ = 8					; size = 4
?GetSingleLineTextRect@CxStaticText@@QAE?AVCRect@@XZ PROC NEAR ; CxStaticText::GetSingleLineTextRect
; _this$ = ecx

; 592  : {

  01ce0	55		 push	 ebp
  01ce1	8b ec		 mov	 ebp, esp
  01ce3	6a ff		 push	 -1
  01ce5	68 00 00 00 00	 push	 __ehhandler$?GetSingleLineTextRect@CxStaticText@@QAE?AVCRect@@XZ
  01cea	64 a1 00 00 00
	00		 mov	 eax, DWORD PTR fs:__except_list
  01cf0	50		 push	 eax
  01cf1	64 89 25 00 00
	00 00		 mov	 DWORD PTR fs:__except_list, esp
  01cf8	81 ec c8 00 00
	00		 sub	 esp, 200		; 000000c8H
  01cfe	a1 00 00 00 00	 mov	 eax, DWORD PTR ___security_cookie
  01d03	89 45 e0	 mov	 DWORD PTR __$ArrayPad$[ebp], eax
  01d06	89 8d 34 ff ff
	ff		 mov	 DWORD PTR _this$[ebp], ecx

; 593  : 	CPaintDC dc(this);

  01d0c	8b 85 34 ff ff
	ff		 mov	 eax, DWORD PTR _this$[ebp]
  01d12	50		 push	 eax
  01d13	8d 4d 84	 lea	 ecx, DWORD PTR _dc$[ebp]
  01d16	e8 00 00 00 00	 call	 ??0CPaintDC@@QAE@PAVCWnd@@@Z ; CPaintDC::CPaintDC
  01d1b	c7 45 fc 00 00
	00 00		 mov	 DWORD PTR __$EHRec$[ebp+8], 0

; 594  : 
; 595  : 	CRect rc(0,0,0,0);

  01d22	6a 00		 push	 0
  01d24	6a 00		 push	 0
  01d26	6a 00		 push	 0
  01d28	6a 00		 push	 0
  01d2a	8d 4d e4	 lea	 ecx, DWORD PTR _rc$[ebp]
  01d2d	e8 00 00 00 00	 call	 ??0CRect@@QAE@HHHH@Z	; CRect::CRect

; 596  : 
; 597  : 	this->GetWindowRect(&rc);

  01d32	8d 4d e4	 lea	 ecx, DWORD PTR _rc$[ebp]
  01d35	51		 push	 ecx
  01d36	8b 8d 34 ff ff
	ff		 mov	 ecx, DWORD PTR _this$[ebp]
  01d3c	e8 00 00 00 00	 call	 ?GetWindowRect@CWnd@@QBEXPAUtagRECT@@@Z ; CWnd::GetWindowRect

; 598  : 	LOGFONT  lf;
; 599  : 	ZeroMemory(&lf,sizeof(lf));

  01d41	6a 3c		 push	 60			; 0000003cH
  01d43	6a 00		 push	 0
  01d45	8d 95 48 ff ff
	ff		 lea	 edx, DWORD PTR _lf$[ebp]
  01d4b	52		 push	 edx
  01d4c	e8 00 00 00 00	 call	 _memset
  01d51	83 c4 0c	 add	 esp, 12			; 0000000cH

; 600  : 	lf.lfHeight = m_FontSize; /*-MulDiv(m_FontSize,GetDeviceCaps(dc.m_hDC,LOGPIXELSY),72);*/

  01d54	8b 85 34 ff ff
	ff		 mov	 eax, DWORD PTR _this$[ebp]
  01d5a	8b 48 74	 mov	 ecx, DWORD PTR [eax+116]
  01d5d	89 8d 48 ff ff
	ff		 mov	 DWORD PTR _lf$[ebp], ecx

; 601  : 	lf.lfWeight = FW_NORMAL;

  01d63	c7 85 58 ff ff
	ff 90 01 00 00	 mov	 DWORD PTR _lf$[ebp+16], 400 ; 00000190H

; 602  : 	lf.lfWidth = 0;

  01d6d	c7 85 4c ff ff
	ff 00 00 00 00	 mov	 DWORD PTR _lf$[ebp+4], 0

; 603  : 	lf.lfCharSet = GB2312_CHARSET;

  01d77	c6 85 5f ff ff
	ff 86		 mov	 BYTE PTR _lf$[ebp+23], 134 ; 00000086H

; 604  : 	lf.lfStrikeOut = FALSE;

  01d7e	c6 85 5e ff ff
	ff 00		 mov	 BYTE PTR _lf$[ebp+22], 0

; 605  : 	lf.lfOutPrecision = OUT_DEFAULT_PRECIS;

  01d85	c6 85 60 ff ff
	ff 00		 mov	 BYTE PTR _lf$[ebp+24], 0

; 606  : 	lf.lfClipPrecision = CLIP_DEFAULT_PRECIS;

  01d8c	c6 85 61 ff ff
	ff 00		 mov	 BYTE PTR _lf$[ebp+25], 0

; 607  : 	lf.lfQuality = DEFAULT_QUALITY;

  01d93	c6 85 62 ff ff
	ff 00		 mov	 BYTE PTR _lf$[ebp+26], 0

; 608  : 	lf.lfPitchAndFamily = FF_DONTCARE | DEFAULT_PITCH;

  01d9a	c6 85 63 ff ff
	ff 00		 mov	 BYTE PTR _lf$[ebp+27], 0

; 609  : 	lf.lfUnderline = m_UnderLine;

  01da1	8b 95 34 ff ff
	ff		 mov	 edx, DWORD PTR _this$[ebp]
  01da7	8a 42 69	 mov	 al, BYTE PTR [edx+105]
  01daa	88 85 5d ff ff
	ff		 mov	 BYTE PTR _lf$[ebp+21], al

; 610  : 	if( m_FontFace.GetLength() != 0)

  01db0	8b 8d 34 ff ff
	ff		 mov	 ecx, DWORD PTR _this$[ebp]
  01db6	83 c1 70	 add	 ecx, 112		; 00000070H
  01db9	ff 15 00 00 00
	00		 call	 DWORD PTR __imp_?GetLength@?$CSimpleStringT@D$00@ATL@@QBEHXZ
  01dbf	85 c0		 test	 eax, eax
  01dc1	74 1f		 je	 SHORT $L198257

; 611  : 	{
; 612  : 		strcpy(lf.lfFaceName, m_FontFace);

  01dc3	8b 8d 34 ff ff
	ff		 mov	 ecx, DWORD PTR _this$[ebp]
  01dc9	83 c1 70	 add	 ecx, 112		; 00000070H
  01dcc	ff 15 00 00 00
	00		 call	 DWORD PTR __imp_??B?$CSimpleStringT@D$00@ATL@@QBEPBDXZ
  01dd2	50		 push	 eax
  01dd3	8d 8d 64 ff ff
	ff		 lea	 ecx, DWORD PTR _lf$[ebp+28]
  01dd9	51		 push	 ecx
  01dda	e8 00 00 00 00	 call	 _strcpy
  01ddf	83 c4 08	 add	 esp, 8
$L198257:

; 613  : 	}
; 614  : 
; 615  : 	CFont font;

  01de2	8d 8d 40 ff ff
	ff		 lea	 ecx, DWORD PTR _font$[ebp]
  01de8	e8 00 00 00 00	 call	 ??0CFont@@QAE@XZ	; CFont::CFont
  01ded	c6 45 fc 01	 mov	 BYTE PTR __$EHRec$[ebp+8], 1

; 616  : 	font.CreateFontIndirect(&lf);

  01df1	8d 95 48 ff ff
	ff		 lea	 edx, DWORD PTR _lf$[ebp]
  01df7	52		 push	 edx
  01df8	8d 8d 40 ff ff
	ff		 lea	 ecx, DWORD PTR _font$[ebp]
  01dfe	e8 00 00 00 00	 call	 ?CreateFontIndirectA@CFont@@QAEHPBUtagLOGFONTA@@@Z ; CFont::CreateFontIndirectA

; 617  : 	CFont* oldFont = (CFont*)dc.SelectObject(&font);

  01e03	8d 85 40 ff ff
	ff		 lea	 eax, DWORD PTR _font$[ebp]
  01e09	50		 push	 eax
  01e0a	8d 4d 84	 lea	 ecx, DWORD PTR _dc$[ebp]
  01e0d	e8 00 00 00 00	 call	 ?SelectObject@CDC@@UAEPAVCFont@@PAV2@@Z ; CDC::SelectObject
  01e12	89 85 3c ff ff
	ff		 mov	 DWORD PTR _oldFont$[ebp], eax

; 618  : 	dc.DrawText(m_strWindowText + " ", &rc, DT_CALCRECT);

  01e18	68 00 00 00 00	 push	 OFFSET FLAT:$SG198262
  01e1d	8b 8d 34 ff ff
	ff		 mov	 ecx, DWORD PTR _this$[ebp]
  01e23	83 c1 78	 add	 ecx, 120		; 00000078H
  01e26	51		 push	 ecx
  01e27	8d 95 38 ff ff
	ff		 lea	 edx, DWORD PTR $T199607[ebp]
  01e2d	52		 push	 edx
  01e2e	e8 00 00 00 00	 call	 ??HATL@@YA?AV?$CStringT@DV?$StrTraitMFC_DLL@DV?$ChTraitsCRT@D@ATL@@@@@0@ABV10@PBD@Z ; ATL::operator+
  01e33	83 c4 0c	 add	 esp, 12			; 0000000cH
  01e36	89 85 30 ff ff
	ff		 mov	 DWORD PTR tv91[ebp], eax
  01e3c	8b 85 30 ff ff
	ff		 mov	 eax, DWORD PTR tv91[ebp]
  01e42	89 85 2c ff ff
	ff		 mov	 DWORD PTR tv147[ebp], eax
  01e48	c6 45 fc 02	 mov	 BYTE PTR __$EHRec$[ebp+8], 2
  01e4c	68 00 04 00 00	 push	 1024			; 00000400H
  01e51	8d 4d e4	 lea	 ecx, DWORD PTR _rc$[ebp]
  01e54	51		 push	 ecx
  01e55	8b 95 2c ff ff
	ff		 mov	 edx, DWORD PTR tv147[ebp]
  01e5b	52		 push	 edx
  01e5c	8d 4d 84	 lea	 ecx, DWORD PTR _dc$[ebp]
  01e5f	e8 00 00 00 00	 call	 ?DrawTextA@CDC@@QAEHABV?$CStringT@DV?$StrTraitMFC_DLL@DV?$ChTraitsCRT@D@ATL@@@@@ATL@@PAUtagRECT@@I@Z ; CDC::DrawTextA
  01e64	c6 45 fc 01	 mov	 BYTE PTR __$EHRec$[ebp+8], 1
  01e68	8d 8d 38 ff ff
	ff		 lea	 ecx, DWORD PTR $T199607[ebp]
  01e6e	ff 15 00 00 00
	00		 call	 DWORD PTR __imp_??1?$CStringT@DV?$StrTraitMFC_DLL@DV?$ChTraitsCRT@D@ATL@@@@@ATL@@QAE@XZ

; 619  : 	dc.SelectObject(oldFont);

  01e74	8b 85 3c ff ff
	ff		 mov	 eax, DWORD PTR _oldFont$[ebp]
  01e7a	50		 push	 eax
  01e7b	8d 4d 84	 lea	 ecx, DWORD PTR _dc$[ebp]
  01e7e	e8 00 00 00 00	 call	 ?SelectObject@CDC@@UAEPAVCFont@@PAV2@@Z ; CDC::SelectObject

; 620  : 	font.DeleteObject();

  01e83	8d 8d 40 ff ff
	ff		 lea	 ecx, DWORD PTR _font$[ebp]
  01e89	e8 00 00 00 00	 call	 ?DeleteObject@CGdiObject@@QAEHXZ ; CGdiObject::DeleteObject

; 621  : 	return rc;

  01e8e	8b 4d 08	 mov	 ecx, DWORD PTR ___$ReturnUdt$[ebp]
  01e91	8b 55 e4	 mov	 edx, DWORD PTR _rc$[ebp]
  01e94	89 11		 mov	 DWORD PTR [ecx], edx
  01e96	8b 45 e8	 mov	 eax, DWORD PTR _rc$[ebp+4]
  01e99	89 41 04	 mov	 DWORD PTR [ecx+4], eax
  01e9c	8b 55 ec	 mov	 edx, DWORD PTR _rc$[ebp+8]
  01e9f	89 51 08	 mov	 DWORD PTR [ecx+8], edx
  01ea2	8b 45 f0	 mov	 eax, DWORD PTR _rc$[ebp+12]
  01ea5	89 41 0c	 mov	 DWORD PTR [ecx+12], eax
  01ea8	c6 45 fc 00	 mov	 BYTE PTR __$EHRec$[ebp+8], 0
  01eac	8d 8d 40 ff ff
	ff		 lea	 ecx, DWORD PTR _font$[ebp]
  01eb2	e8 00 00 00 00	 call	 ??1CFont@@UAE@XZ	; CFont::~CFont
  01eb7	c7 45 fc ff ff
	ff ff		 mov	 DWORD PTR __$EHRec$[ebp+8], -1
  01ebe	8d 4d 84	 lea	 ecx, DWORD PTR _dc$[ebp]
  01ec1	e8 00 00 00 00	 call	 ??1CPaintDC@@UAE@XZ	; CPaintDC::~CPaintDC
  01ec6	8b 45 08	 mov	 eax, DWORD PTR ___$ReturnUdt$[ebp]

; 622  : }

  01ec9	8b 4d f4	 mov	 ecx, DWORD PTR __$EHRec$[ebp]
  01ecc	64 89 0d 00 00
	00 00		 mov	 DWORD PTR fs:__except_list, ecx
  01ed3	8b 4d e0	 mov	 ecx, DWORD PTR __$ArrayPad$[ebp]
  01ed6	e8 00 00 00 00	 call	 @__security_check_cookie@4
  01edb	8b e5		 mov	 esp, ebp
  01edd	5d		 pop	 ebp
  01ede	c2 04 00	 ret	 4
_TEXT	ENDS
text$x	SEGMENT
$L199608:
  00174	8d 4d 84	 lea	 ecx, DWORD PTR _dc$[ebp]
  00177	e9 00 00 00 00	 jmp	 ??1CPaintDC@@UAE@XZ	; CPaintDC::~CPaintDC
$L199609:
  0017c	8d 8d 40 ff ff
	ff		 lea	 ecx, DWORD PTR _font$[ebp]
  00182	e9 00 00 00 00	 jmp	 ??1CFont@@UAE@XZ	; CFont::~CFont
$L199610:
  00187	8d 8d 38 ff ff
	ff		 lea	 ecx, DWORD PTR $T199607[ebp]
  0018d	ff 25 00 00 00
	00		 jmp	 DWORD PTR __imp_??1?$CStringT@DV?$StrTraitMFC_DLL@DV?$ChTraitsCRT@D@ATL@@@@@ATL@@QAE@XZ
__ehhandler$?GetSingleLineTextRect@CxStaticText@@QAE?AVCRect@@XZ:
  00193	b8 00 00 00 00	 mov	 eax, OFFSET FLAT:$T199612
  00198	e9 00 00 00 00	 jmp	 ___CxxFrameHandler
text$x	ENDS
?GetSingleLineTextRect@CxStaticText@@QAE?AVCRect@@XZ ENDP ; CxStaticText::GetSingleLineTextRect
PUBLIC	?SizeToTextRect@CxStaticText@@QAEXXZ		; CxStaticText::SizeToTextRect
PUBLIC	?MoveWindow@CWnd@@QAEXPBUtagRECT@@H@Z		; CWnd::MoveWindow
; Function compile flags: /Odt
_TEXT	SEGMENT
_this$ = -20						; size = 4
_rect$ = -16						; size = 16
?SizeToTextRect@CxStaticText@@QAEXXZ PROC NEAR		; CxStaticText::SizeToTextRect
; _this$ = ecx

; 625  : {

  01ef0	55		 push	 ebp
  01ef1	8b ec		 mov	 ebp, esp
  01ef3	83 ec 14	 sub	 esp, 20			; 00000014H
  01ef6	89 4d ec	 mov	 DWORD PTR _this$[ebp], ecx

; 626  : 	CRect rect = GetSingleLineTextRect();

  01ef9	8d 45 f0	 lea	 eax, DWORD PTR _rect$[ebp]
  01efc	50		 push	 eax
  01efd	8b 4d ec	 mov	 ecx, DWORD PTR _this$[ebp]
  01f00	e8 00 00 00 00	 call	 ?GetSingleLineTextRect@CxStaticText@@QAE?AVCRect@@XZ ; CxStaticText::GetSingleLineTextRect

; 627  : 	GetParent()->ScreenToClient(&rect);

  01f05	8d 4d f0	 lea	 ecx, DWORD PTR _rect$[ebp]
  01f08	51		 push	 ecx
  01f09	8b 4d ec	 mov	 ecx, DWORD PTR _this$[ebp]
  01f0c	e8 00 00 00 00	 call	 ?GetParent@CWnd@@QBEPAV1@XZ ; CWnd::GetParent
  01f11	8b c8		 mov	 ecx, eax
  01f13	e8 00 00 00 00	 call	 ?ScreenToClient@CWnd@@QBEXPAUtagRECT@@@Z ; CWnd::ScreenToClient

; 628  : 	MoveWindow(&rect);

  01f18	6a 01		 push	 1
  01f1a	8d 55 f0	 lea	 edx, DWORD PTR _rect$[ebp]
  01f1d	52		 push	 edx
  01f1e	8b 4d ec	 mov	 ecx, DWORD PTR _this$[ebp]
  01f21	e8 00 00 00 00	 call	 ?MoveWindow@CWnd@@QAEXPBUtagRECT@@H@Z ; CWnd::MoveWindow

; 629  : 
; 630  : 	Invalidate(TRUE);

  01f26	6a 01		 push	 1
  01f28	8b 4d ec	 mov	 ecx, DWORD PTR _this$[ebp]
  01f2b	e8 00 00 00 00	 call	 ?Invalidate@CWnd@@QAEXH@Z ; CWnd::Invalidate

; 631  : }

  01f30	8b e5		 mov	 esp, ebp
  01f32	5d		 pop	 ebp
  01f33	c3		 ret	 0
?SizeToTextRect@CxStaticText@@QAEXXZ ENDP		; CxStaticText::SizeToTextRect
_TEXT	ENDS
PUBLIC	?SendMessageA@CWnd@@QAEJIIJ@Z			; CWnd::SendMessageA
EXTRN	__imp__GetWindowLongA@8:NEAR
; Function compile flags: /Odt
_TEXT	SEGMENT
_this$ = -12						; size = 4
_pWnd$198273 = -8					; size = 4
_id$198272 = -4						; size = 4
?OnStnClicked@CxStaticText@@QAEXXZ PROC NEAR		; CxStaticText::OnStnClicked
; _this$ = ecx

; 634  : {

  01f40	55		 push	 ebp
  01f41	8b ec		 mov	 ebp, esp
  01f43	83 ec 0c	 sub	 esp, 12			; 0000000cH
  01f46	89 4d f4	 mov	 DWORD PTR _this$[ebp], ecx

; 635  : 	if (m_EnableClick)

  01f49	8b 45 f4	 mov	 eax, DWORD PTR _this$[ebp]
  01f4c	0f b6 48 6a	 movzx	 ecx, BYTE PTR [eax+106]
  01f50	85 c9		 test	 ecx, ecx
  01f52	74 30		 je	 SHORT $L198270

; 636  : 	{		
; 637  : 		long id = GetWindowLong(m_hWnd, GWL_ID);

  01f54	6a f4		 push	 -12			; fffffff4H
  01f56	8b 55 f4	 mov	 edx, DWORD PTR _this$[ebp]
  01f59	8b 42 20	 mov	 eax, DWORD PTR [edx+32]
  01f5c	50		 push	 eax
  01f5d	ff 15 00 00 00
	00		 call	 DWORD PTR __imp__GetWindowLongA@8
  01f63	89 45 fc	 mov	 DWORD PTR _id$198272[ebp], eax

; 638  : 
; 639  : 		CWnd* pWnd = GetParent();

  01f66	8b 4d f4	 mov	 ecx, DWORD PTR _this$[ebp]
  01f69	e8 00 00 00 00	 call	 ?GetParent@CWnd@@QBEPAV1@XZ ; CWnd::GetParent
  01f6e	89 45 f8	 mov	 DWORD PTR _pWnd$198273[ebp], eax

; 640  : 
; 641  : 		pWnd->SendMessage(WM_STATICCLICKED, (WPARAM)id, NULL);

  01f71	6a 00		 push	 0
  01f73	8b 4d fc	 mov	 ecx, DWORD PTR _id$198272[ebp]
  01f76	51		 push	 ecx
  01f77	68 64 04 00 00	 push	 1124			; 00000464H
  01f7c	8b 4d f8	 mov	 ecx, DWORD PTR _pWnd$198273[ebp]
  01f7f	e8 00 00 00 00	 call	 ?SendMessageA@CWnd@@QAEJIIJ@Z ; CWnd::SendMessageA
$L198270:

; 642  : 	}
; 643  : }

  01f84	8b e5		 mov	 esp, ebp
  01f86	5d		 pop	 ebp
  01f87	c3		 ret	 0
?OnStnClicked@CxStaticText@@QAEXXZ ENDP			; CxStaticText::OnStnClicked
_TEXT	ENDS
PUBLIC	?Activate@CToolTipCtrl@@QAEXH@Z			; CToolTipCtrl::Activate
EXTRN	?AddTool@CToolTipCtrl@@QAEHPAVCWnd@@PBDPBUtagRECT@@I@Z:NEAR ; CToolTipCtrl::AddTool
EXTRN	?UpdateTipText@CToolTipCtrl@@QAEXPBDPAVCWnd@@I@Z:NEAR ; CToolTipCtrl::UpdateTipText
xdata$x	SEGMENT
$T199623 DD	0ffffffffH
	DD	FLAT:$L199619
$T199621 DD	019930520H
	DD	01H
	DD	FLAT:$T199623
	DD	2 DUP(00H)
	DD	2 DUP(00H)
; Function compile flags: /Odt
xdata$x	ENDS
_TEXT	SEGMENT
_this$ = -16						; size = 4
__$EHRec$ = -12						; size = 12
_s$ = 8							; size = 4
?SetToolTipText@CxStaticText@@IAEXV?$CStringT@DV?$StrTraitMFC_DLL@DV?$ChTraitsCRT@D@ATL@@@@@ATL@@@Z PROC NEAR ; CxStaticText::SetToolTipText
; _this$ = ecx

; 648  : {

  01f90	55		 push	 ebp
  01f91	8b ec		 mov	 ebp, esp
  01f93	6a ff		 push	 -1
  01f95	68 00 00 00 00	 push	 __ehhandler$?SetToolTipText@CxStaticText@@IAEXV?$CStringT@DV?$StrTraitMFC_DLL@DV?$ChTraitsCRT@D@ATL@@@@@ATL@@@Z
  01f9a	64 a1 00 00 00
	00		 mov	 eax, DWORD PTR fs:__except_list
  01fa0	50		 push	 eax
  01fa1	64 89 25 00 00
	00 00		 mov	 DWORD PTR fs:__except_list, esp
  01fa8	51		 push	 ecx
  01fa9	89 4d f0	 mov	 DWORD PTR _this$[ebp], ecx
  01fac	c7 45 fc 00 00
	00 00		 mov	 DWORD PTR __$EHRec$[ebp+8], 0

; 649  : 	m_strToolTip = s;

  01fb3	8d 45 08	 lea	 eax, DWORD PTR _s$[ebp]
  01fb6	50		 push	 eax
  01fb7	8b 4d f0	 mov	 ecx, DWORD PTR _this$[ebp]
  01fba	81 c1 00 01 00
	00		 add	 ecx, 256		; 00000100H
  01fc0	ff 15 00 00 00
	00		 call	 DWORD PTR __imp_??4?$CStringT@DV?$StrTraitMFC_DLL@DV?$ChTraitsCRT@D@ATL@@@@@ATL@@QAEAAV01@ABV01@@Z

; 650  : 	if(m_tooltip.m_hWnd==NULL){

  01fc6	8b 4d f0	 mov	 ecx, DWORD PTR _this$[ebp]
  01fc9	83 b9 b0 00 00
	00 00		 cmp	 DWORD PTR [ecx+176], 0
  01fd0	75 58		 jne	 SHORT $L198279

; 651  : 		if(m_tooltip.Create(this))	//first assignment

  01fd2	6a 00		 push	 0
  01fd4	8b 55 f0	 mov	 edx, DWORD PTR _this$[ebp]
  01fd7	52		 push	 edx
  01fd8	8b 4d f0	 mov	 ecx, DWORD PTR _this$[ebp]
  01fdb	81 c1 90 00 00
	00		 add	 ecx, 144		; 00000090H
  01fe1	8b 45 f0	 mov	 eax, DWORD PTR _this$[ebp]
  01fe4	8b 90 90 00 00
	00		 mov	 edx, DWORD PTR [eax+144]
  01fea	ff 92 38 01 00
	00		 call	 DWORD PTR [edx+312]
  01ff0	85 c0		 test	 eax, eax
  01ff2	74 34		 je	 SHORT $L198280

; 652  : 			if(m_tooltip.AddTool(this, (LPCTSTR)s))

  01ff4	6a 00		 push	 0
  01ff6	6a 00		 push	 0
  01ff8	8d 4d 08	 lea	 ecx, DWORD PTR _s$[ebp]
  01ffb	ff 15 00 00 00
	00		 call	 DWORD PTR __imp_??B?$CSimpleStringT@D$00@ATL@@QBEPBDXZ
  02001	50		 push	 eax
  02002	8b 45 f0	 mov	 eax, DWORD PTR _this$[ebp]
  02005	50		 push	 eax
  02006	8b 4d f0	 mov	 ecx, DWORD PTR _this$[ebp]
  02009	81 c1 90 00 00
	00		 add	 ecx, 144		; 00000090H
  0200f	e8 00 00 00 00	 call	 ?AddTool@CToolTipCtrl@@QAEHPAVCWnd@@PBDPBUtagRECT@@I@Z ; CToolTipCtrl::AddTool
  02014	85 c0		 test	 eax, eax
  02016	74 10		 je	 SHORT $L198280

; 653  : 				m_tooltip.Activate(1);

  02018	6a 01		 push	 1
  0201a	8b 4d f0	 mov	 ecx, DWORD PTR _this$[ebp]
  0201d	81 c1 90 00 00
	00		 add	 ecx, 144		; 00000090H
  02023	e8 00 00 00 00	 call	 ?Activate@CToolTipCtrl@@QAEXH@Z ; CToolTipCtrl::Activate
$L198280:

; 654  : 	} else {

  02028	eb 1e		 jmp	 SHORT $L198283
$L198279:

; 655  : 		m_tooltip.UpdateTipText((LPCTSTR)s,this);

  0202a	6a 00		 push	 0
  0202c	8b 4d f0	 mov	 ecx, DWORD PTR _this$[ebp]
  0202f	51		 push	 ecx
  02030	8d 4d 08	 lea	 ecx, DWORD PTR _s$[ebp]
  02033	ff 15 00 00 00
	00		 call	 DWORD PTR __imp_??B?$CSimpleStringT@D$00@ATL@@QBEPBDXZ
  02039	50		 push	 eax
  0203a	8b 4d f0	 mov	 ecx, DWORD PTR _this$[ebp]
  0203d	81 c1 90 00 00
	00		 add	 ecx, 144		; 00000090H
  02043	e8 00 00 00 00	 call	 ?UpdateTipText@CToolTipCtrl@@QAEXPBDPAVCWnd@@I@Z ; CToolTipCtrl::UpdateTipText
$L198283:

; 656  : 	}
; 657  : }

  02048	c7 45 fc ff ff
	ff ff		 mov	 DWORD PTR __$EHRec$[ebp+8], -1
  0204f	8d 4d 08	 lea	 ecx, DWORD PTR _s$[ebp]
  02052	ff 15 00 00 00
	00		 call	 DWORD PTR __imp_??1?$CStringT@DV?$StrTraitMFC_DLL@DV?$ChTraitsCRT@D@ATL@@@@@ATL@@QAE@XZ
  02058	8b 4d f4	 mov	 ecx, DWORD PTR __$EHRec$[ebp]
  0205b	64 89 0d 00 00
	00 00		 mov	 DWORD PTR fs:__except_list, ecx
  02062	8b e5		 mov	 esp, ebp
  02064	5d		 pop	 ebp
  02065	c2 04 00	 ret	 4
_TEXT	ENDS
text$x	SEGMENT
$L199619:
  0019d	8d 4d 08	 lea	 ecx, DWORD PTR _s$[ebp]
  001a0	ff 25 00 00 00
	00		 jmp	 DWORD PTR __imp_??1?$CStringT@DV?$StrTraitMFC_DLL@DV?$ChTraitsCRT@D@ATL@@@@@ATL@@QAE@XZ
__ehhandler$?SetToolTipText@CxStaticText@@IAEXV?$CStringT@DV?$StrTraitMFC_DLL@DV?$ChTraitsCRT@D@ATL@@@@@ATL@@@Z:
  001a6	b8 00 00 00 00	 mov	 eax, OFFSET FLAT:$T199621
  001ab	e9 00 00 00 00	 jmp	 ___CxxFrameHandler
text$x	ENDS
?SetToolTipText@CxStaticText@@IAEXV?$CStringT@DV?$StrTraitMFC_DLL@DV?$ChTraitsCRT@D@ATL@@@@@ATL@@@Z ENDP ; CxStaticText::SetToolTipText
PUBLIC	?RelayEvent@CToolTipCtrl@@QAEXPAUtagMSG@@@Z	; CToolTipCtrl::RelayEvent
; Function compile flags: /Odt
_TEXT	SEGMENT
_this$ = -32						; size = 4
_msg$198292 = -28					; size = 28
_message$ = 8						; size = 4
_wParam$ = 12						; size = 4
_lParam$ = 16						; size = 4
?RelayEvent@CxStaticText@@IAEXIIJ@Z PROC NEAR		; CxStaticText::RelayEvent
; _this$ = ecx

; 660  : {

  02070	55		 push	 ebp
  02071	8b ec		 mov	 ebp, esp
  02073	83 ec 20	 sub	 esp, 32			; 00000020H
  02076	89 4d e0	 mov	 DWORD PTR _this$[ebp], ecx

; 661  : 	// This function will create a MSG structure, fill it in a pass it to
; 662  : 	// the ToolTip control, m_ttip.  Note that we ensure the point is in window
; 663  : 	// coordinates (relative to the control's window).
; 664  : 	if(NULL != m_tooltip.m_hWnd){

  02079	8b 45 e0	 mov	 eax, DWORD PTR _this$[ebp]
  0207c	83 b8 b0 00 00
	00 00		 cmp	 DWORD PTR [eax+176], 0
  02083	74 4e		 je	 SHORT $L198290

; 665  : 		MSG msg;
; 666  : 		msg.hwnd = m_hWnd;

  02085	8b 4d e0	 mov	 ecx, DWORD PTR _this$[ebp]
  02088	8b 51 20	 mov	 edx, DWORD PTR [ecx+32]
  0208b	89 55 e4	 mov	 DWORD PTR _msg$198292[ebp], edx

; 667  : 		msg.message = message;

  0208e	8b 45 08	 mov	 eax, DWORD PTR _message$[ebp]
  02091	89 45 e8	 mov	 DWORD PTR _msg$198292[ebp+4], eax

; 668  : 		msg.wParam = wParam;

  02094	8b 4d 0c	 mov	 ecx, DWORD PTR _wParam$[ebp]
  02097	89 4d ec	 mov	 DWORD PTR _msg$198292[ebp+8], ecx

; 669  : 		msg.lParam = lParam;

  0209a	8b 55 10	 mov	 edx, DWORD PTR _lParam$[ebp]
  0209d	89 55 f0	 mov	 DWORD PTR _msg$198292[ebp+12], edx

; 670  : 		msg.time = 0;

  020a0	c7 45 f4 00 00
	00 00		 mov	 DWORD PTR _msg$198292[ebp+16], 0

; 671  : 		msg.pt.x = LOWORD(lParam);

  020a7	8b 45 10	 mov	 eax, DWORD PTR _lParam$[ebp]
  020aa	25 ff ff 00 00	 and	 eax, 65535		; 0000ffffH
  020af	0f b7 c8	 movzx	 ecx, ax
  020b2	89 4d f8	 mov	 DWORD PTR _msg$198292[ebp+20], ecx

; 672  : 		msg.pt.y = HIWORD(lParam);

  020b5	8b 55 10	 mov	 edx, DWORD PTR _lParam$[ebp]
  020b8	c1 ea 10	 shr	 edx, 16			; 00000010H
  020bb	0f b7 c2	 movzx	 eax, dx
  020be	89 45 fc	 mov	 DWORD PTR _msg$198292[ebp+24], eax

; 673  : 
; 674  : 		m_tooltip.RelayEvent(&msg);

  020c1	8d 4d e4	 lea	 ecx, DWORD PTR _msg$198292[ebp]
  020c4	51		 push	 ecx
  020c5	8b 4d e0	 mov	 ecx, DWORD PTR _this$[ebp]
  020c8	81 c1 90 00 00
	00		 add	 ecx, 144		; 00000090H
  020ce	e8 00 00 00 00	 call	 ?RelayEvent@CToolTipCtrl@@QAEXPAUtagMSG@@@Z ; CToolTipCtrl::RelayEvent
$L198290:

; 675  : 	}
; 676  : }

  020d3	8b e5		 mov	 esp, ebp
  020d5	5d		 pop	 ebp
  020d6	c2 0c 00	 ret	 12			; 0000000cH
?RelayEvent@CxStaticText@@IAEXIIJ@Z ENDP		; CxStaticText::RelayEvent
_TEXT	ENDS
PUBLIC	?EnableToolTip@CxStaticText@@QAEX_N@Z		; CxStaticText::EnableToolTip
; Function compile flags: /Odt
_TEXT	SEGMENT
_this$ = -4						; size = 4
_enable$ = 8						; size = 1
?EnableToolTip@CxStaticText@@QAEX_N@Z PROC NEAR		; CxStaticText::EnableToolTip
; _this$ = ecx

; 679  : {

  020e0	55		 push	 ebp
  020e1	8b ec		 mov	 ebp, esp
  020e3	51		 push	 ecx
  020e4	89 4d fc	 mov	 DWORD PTR _this$[ebp], ecx

; 680  : 	m_EnableToolTip = enable;

  020e7	8b 45 fc	 mov	 eax, DWORD PTR _this$[ebp]
  020ea	8a 4d 08	 mov	 cl, BYTE PTR _enable$[ebp]
  020ed	88 48 7c	 mov	 BYTE PTR [eax+124], cl

; 681  : }

  020f0	8b e5		 mov	 esp, ebp
  020f2	5d		 pop	 ebp
  020f3	c2 04 00	 ret	 4
?EnableToolTip@CxStaticText@@QAEX_N@Z ENDP		; CxStaticText::EnableToolTip
_TEXT	ENDS
EXTRN	__imp_?GetManager@?$CSimpleStringT@D$00@ATL@@QBEPAUIAtlStringMgr@2@XZ:NEAR
EXTRN	__imp_?StringLength@?$CSimpleStringT@D$00@ATL@@SAHPBD@Z:NEAR
EXTRN	__imp_?Concatenate@?$CSimpleStringT@D$00@ATL@@KAXAAV12@PBDH1H@Z:NEAR
EXTRN	__imp_??0?$CStringT@DV?$StrTraitMFC_DLL@DV?$ChTraitsCRT@D@ATL@@@@@ATL@@QAE@PAUIAtlStringMgr@1@@Z:NEAR
EXTRN	__imp_??0?$CStringT@DV?$StrTraitMFC_DLL@DV?$ChTraitsCRT@D@ATL@@@@@ATL@@QAE@ABV01@@Z:NEAR
;	COMDAT xdata$x
; File d:\program files (x86)\microsoft visual studio .net 2003\vc7\atlmfc\include\cstringt.h
xdata$x	SEGMENT
$T199634 DD	0ffffffffH
	DD	FLAT:$L199627
$T199632 DD	019930520H
	DD	01H
	DD	FLAT:$T199634
	DD	2 DUP(00H)
	DD	2 DUP(00H)
; Function compile flags: /Odt
xdata$x	ENDS
;	COMDAT ??HATL@@YA?AV?$CStringT@DV?$StrTraitMFC_DLL@DV?$ChTraitsCRT@D@ATL@@@@@0@ABV10@PBD@Z
_TEXT	SEGMENT
$T199629 = -20						; size = 4
_strResult$ = -16					; size = 4
__$EHRec$ = -12						; size = 12
___$ReturnUdt$ = 8					; size = 4
_str1$ = 12						; size = 4
_psz2$ = 16						; size = 4
??HATL@@YA?AV?$CStringT@DV?$StrTraitMFC_DLL@DV?$ChTraitsCRT@D@ATL@@@@@0@ABV10@PBD@Z PROC NEAR ; ATL::operator+, COMDAT

; 2023 : 	{

  00000	55		 push	 ebp
  00001	8b ec		 mov	 ebp, esp
  00003	6a ff		 push	 -1
  00005	68 00 00 00 00	 push	 __ehhandler$??HATL@@YA?AV?$CStringT@DV?$StrTraitMFC_DLL@DV?$ChTraitsCRT@D@ATL@@@@@0@ABV10@PBD@Z
  0000a	64 a1 00 00 00
	00		 mov	 eax, DWORD PTR fs:__except_list
  00010	50		 push	 eax
  00011	64 89 25 00 00
	00 00		 mov	 DWORD PTR fs:__except_list, esp
  00018	83 ec 08	 sub	 esp, 8
  0001b	c7 45 ec 00 00
	00 00		 mov	 DWORD PTR $T199629[ebp], 0

; 2024 : 		CStringT strResult( str1.GetManager() );

  00022	8b 4d 0c	 mov	 ecx, DWORD PTR _str1$[ebp]
  00025	ff 15 00 00 00
	00		 call	 DWORD PTR __imp_?GetManager@?$CSimpleStringT@D$00@ATL@@QBEPAUIAtlStringMgr@2@XZ
  0002b	50		 push	 eax
  0002c	8d 4d f0	 lea	 ecx, DWORD PTR _strResult$[ebp]
  0002f	ff 15 00 00 00
	00		 call	 DWORD PTR __imp_??0?$CStringT@DV?$StrTraitMFC_DLL@DV?$ChTraitsCRT@D@ATL@@@@@ATL@@QAE@PAUIAtlStringMgr@1@@Z
  00035	c7 45 fc 00 00
	00 00		 mov	 DWORD PTR __$EHRec$[ebp+8], 0

; 2025 : 
; 2026 : 		Concatenate( strResult, str1, str1.GetLength(), psz2, StringLength( psz2 ) );

  0003c	8b 45 10	 mov	 eax, DWORD PTR _psz2$[ebp]
  0003f	50		 push	 eax
  00040	ff 15 00 00 00
	00		 call	 DWORD PTR __imp_?StringLength@?$CSimpleStringT@D$00@ATL@@SAHPBD@Z
  00046	83 c4 04	 add	 esp, 4
  00049	50		 push	 eax
  0004a	8b 4d 10	 mov	 ecx, DWORD PTR _psz2$[ebp]
  0004d	51		 push	 ecx
  0004e	8b 4d 0c	 mov	 ecx, DWORD PTR _str1$[ebp]
  00051	ff 15 00 00 00
	00		 call	 DWORD PTR __imp_?GetLength@?$CSimpleStringT@D$00@ATL@@QBEHXZ
  00057	50		 push	 eax
  00058	8b 4d 0c	 mov	 ecx, DWORD PTR _str1$[ebp]
  0005b	ff 15 00 00 00
	00		 call	 DWORD PTR __imp_??B?$CSimpleStringT@D$00@ATL@@QBEPBDXZ
  00061	50		 push	 eax
  00062	8d 55 f0	 lea	 edx, DWORD PTR _strResult$[ebp]
  00065	52		 push	 edx
  00066	ff 15 00 00 00
	00		 call	 DWORD PTR __imp_?Concatenate@?$CSimpleStringT@D$00@ATL@@KAXAAV12@PBDH1H@Z
  0006c	83 c4 14	 add	 esp, 20			; 00000014H

; 2027 : 
; 2028 : 		return( strResult );

  0006f	8d 45 f0	 lea	 eax, DWORD PTR _strResult$[ebp]
  00072	50		 push	 eax
  00073	8b 4d 08	 mov	 ecx, DWORD PTR ___$ReturnUdt$[ebp]
  00076	ff 15 00 00 00
	00		 call	 DWORD PTR __imp_??0?$CStringT@DV?$StrTraitMFC_DLL@DV?$ChTraitsCRT@D@ATL@@@@@ATL@@QAE@ABV01@@Z
  0007c	8b 4d ec	 mov	 ecx, DWORD PTR $T199629[ebp]
  0007f	83 c9 01	 or	 ecx, 1
  00082	89 4d ec	 mov	 DWORD PTR $T199629[ebp], ecx
  00085	c7 45 fc ff ff
	ff ff		 mov	 DWORD PTR __$EHRec$[ebp+8], -1
  0008c	8d 4d f0	 lea	 ecx, DWORD PTR _strResult$[ebp]
  0008f	ff 15 00 00 00
	00		 call	 DWORD PTR __imp_??1?$CStringT@DV?$StrTraitMFC_DLL@DV?$ChTraitsCRT@D@ATL@@@@@ATL@@QAE@XZ
  00095	8b 45 08	 mov	 eax, DWORD PTR ___$ReturnUdt$[ebp]

; 2029 : 	}

  00098	8b 4d f4	 mov	 ecx, DWORD PTR __$EHRec$[ebp]
  0009b	64 89 0d 00 00
	00 00		 mov	 DWORD PTR fs:__except_list, ecx
  000a2	8b e5		 mov	 esp, ebp
  000a4	5d		 pop	 ebp
  000a5	c3		 ret	 0
_TEXT	ENDS
;	COMDAT text$x
text$x	SEGMENT
$L199627:
  00000	8d 4d f0	 lea	 ecx, DWORD PTR _strResult$[ebp]
  00003	ff 25 00 00 00
	00		 jmp	 DWORD PTR __imp_??1?$CStringT@DV?$StrTraitMFC_DLL@DV?$ChTraitsCRT@D@ATL@@@@@ATL@@QAE@XZ
__ehhandler$??HATL@@YA?AV?$CStringT@DV?$StrTraitMFC_DLL@DV?$ChTraitsCRT@D@ATL@@@@@0@ABV10@PBD@Z:
  00009	b8 00 00 00 00	 mov	 eax, OFFSET FLAT:$T199632
  0000e	e9 00 00 00 00	 jmp	 ___CxxFrameHandler
text$x	ENDS
??HATL@@YA?AV?$CStringT@DV?$StrTraitMFC_DLL@DV?$ChTraitsCRT@D@ATL@@@@@0@ABV10@PBD@Z ENDP ; ATL::operator+
PUBLIC	??Dconst_iterator@?$basic_string@_WU?$char_traits@_W@std@@V?$allocator@_W@2@@std@@QBEAB_WXZ ; std::basic_string<wchar_t,std::char_traits<wchar_t>,std::allocator<wchar_t> >::const_iterator::operator*
; Function compile flags: /Odt
; File d:\program files (x86)\microsoft visual studio .net 2003\vc7\include\xstring
;	COMDAT ??Diterator@?$basic_string@_WU?$char_traits@_W@std@@V?$allocator@_W@2@@std@@QBEAA_WXZ
_TEXT	SEGMENT
_this$ = -4						; size = 4
??Diterator@?$basic_string@_WU?$char_traits@_W@std@@V?$allocator@_W@2@@std@@QBEAA_WXZ PROC NEAR ; std::basic_string<wchar_t,std::char_traits<wchar_t>,std::allocator<wchar_t> >::iterator::operator*, COMDAT
; _this$ = ecx

; 231  : 			{	// return designated object

  00000	55		 push	 ebp
  00001	8b ec		 mov	 ebp, esp
  00003	51		 push	 ecx
  00004	89 4d fc	 mov	 DWORD PTR _this$[ebp], ecx

; 232  : 			return ((reference)**(const_iterator *)this);

  00007	8b 4d fc	 mov	 ecx, DWORD PTR _this$[ebp]
  0000a	e8 00 00 00 00	 call	 ??Dconst_iterator@?$basic_string@_WU?$char_traits@_W@std@@V?$allocator@_W@2@@std@@QBEAB_WXZ ; std::basic_string<wchar_t,std::char_traits<wchar_t>,std::allocator<wchar_t> >::const_iterator::operator*

; 233  : 			}

  0000f	8b e5		 mov	 esp, ebp
  00011	5d		 pop	 ebp
  00012	c3		 ret	 0
??Diterator@?$basic_string@_WU?$char_traits@_W@std@@V?$allocator@_W@2@@std@@QBEAA_WXZ ENDP ; std::basic_string<wchar_t,std::char_traits<wchar_t>,std::allocator<wchar_t> >::iterator::operator*
; Function compile flags: /Odt
_TEXT	ENDS
;	COMDAT ??Fiterator@?$basic_string@_WU?$char_traits@_W@std@@V?$allocator@_W@2@@std@@QAEAAV012@XZ
_TEXT	SEGMENT
_this$ = -4						; size = 4
??Fiterator@?$basic_string@_WU?$char_traits@_W@std@@V?$allocator@_W@2@@std@@QAEAAV012@XZ PROC NEAR ; std::basic_string<wchar_t,std::char_traits<wchar_t>,std::allocator<wchar_t> >::iterator::operator--, COMDAT
; _this$ = ecx

; 254  : 			{	// predecrement

  00000	55		 push	 ebp
  00001	8b ec		 mov	 ebp, esp
  00003	51		 push	 ecx
  00004	89 4d fc	 mov	 DWORD PTR _this$[ebp], ecx

; 255  : 			--this->_Myptr;

  00007	8b 45 fc	 mov	 eax, DWORD PTR _this$[ebp]
  0000a	8b 08		 mov	 ecx, DWORD PTR [eax]
  0000c	83 e9 02	 sub	 ecx, 2
  0000f	8b 55 fc	 mov	 edx, DWORD PTR _this$[ebp]
  00012	89 0a		 mov	 DWORD PTR [edx], ecx

; 256  : 			return (*this);

  00014	8b 45 fc	 mov	 eax, DWORD PTR _this$[ebp]

; 257  : 			}

  00017	8b e5		 mov	 esp, ebp
  00019	5d		 pop	 ebp
  0001a	c3		 ret	 0
??Fiterator@?$basic_string@_WU?$char_traits@_W@std@@V?$allocator@_W@2@@std@@QAEAAV012@XZ ENDP ; std::basic_string<wchar_t,std::char_traits<wchar_t>,std::allocator<wchar_t> >::iterator::operator--
_TEXT	ENDS
PUBLIC	??Ziterator@?$basic_string@_WU?$char_traits@_W@std@@V?$allocator@_W@2@@std@@QAEAAV012@H@Z ; std::basic_string<wchar_t,std::char_traits<wchar_t>,std::allocator<wchar_t> >::iterator::operator-=
; Function compile flags: /Odt
;	COMDAT ??Giterator@?$basic_string@_WU?$char_traits@_W@std@@V?$allocator@_W@2@@std@@QBE?AV012@H@Z
_TEXT	SEGMENT
_this$ = -8						; size = 4
__Tmp$ = -4						; size = 4
___$ReturnUdt$ = 8					; size = 4
__Off$ = 12						; size = 4
??Giterator@?$basic_string@_WU?$char_traits@_W@std@@V?$allocator@_W@2@@std@@QBE?AV012@H@Z PROC NEAR ; std::basic_string<wchar_t,std::char_traits<wchar_t>,std::allocator<wchar_t> >::iterator::operator-, COMDAT
; _this$ = ecx

; 284  : 			{	// return this - integer

  00000	55		 push	 ebp
  00001	8b ec		 mov	 ebp, esp
  00003	83 ec 08	 sub	 esp, 8
  00006	89 4d f8	 mov	 DWORD PTR _this$[ebp], ecx

; 285  : 			iterator _Tmp = *this;

  00009	8b 45 f8	 mov	 eax, DWORD PTR _this$[ebp]
  0000c	8b 08		 mov	 ecx, DWORD PTR [eax]
  0000e	89 4d fc	 mov	 DWORD PTR __Tmp$[ebp], ecx

; 286  : 			return (_Tmp -= _Off);

  00011	8b 55 0c	 mov	 edx, DWORD PTR __Off$[ebp]
  00014	52		 push	 edx
  00015	8d 4d fc	 lea	 ecx, DWORD PTR __Tmp$[ebp]
  00018	e8 00 00 00 00	 call	 ??Ziterator@?$basic_string@_WU?$char_traits@_W@std@@V?$allocator@_W@2@@std@@QAEAAV012@H@Z ; std::basic_string<wchar_t,std::char_traits<wchar_t>,std::allocator<wchar_t> >::iterator::operator-=
  0001d	8b 00		 mov	 eax, DWORD PTR [eax]
  0001f	8b 4d 08	 mov	 ecx, DWORD PTR ___$ReturnUdt$[ebp]
  00022	89 01		 mov	 DWORD PTR [ecx], eax
  00024	8b 45 08	 mov	 eax, DWORD PTR ___$ReturnUdt$[ebp]

; 287  : 			}

  00027	8b e5		 mov	 esp, ebp
  00029	5d		 pop	 ebp
  0002a	c2 08 00	 ret	 8
??Giterator@?$basic_string@_WU?$char_traits@_W@std@@V?$allocator@_W@2@@std@@QBE?AV012@H@Z ENDP ; std::basic_string<wchar_t,std::char_traits<wchar_t>,std::allocator<wchar_t> >::iterator::operator-
; Function compile flags: /Odt
_TEXT	ENDS
;	COMDAT ??Dconst_iterator@?$basic_string@_WU?$char_traits@_W@std@@V?$allocator@_W@2@@std@@QBEAB_WXZ
_TEXT	SEGMENT
_this$ = -4						; size = 4
??Dconst_iterator@?$basic_string@_WU?$char_traits@_W@std@@V?$allocator@_W@2@@std@@QBEAB_WXZ PROC NEAR ; std::basic_string<wchar_t,std::char_traits<wchar_t>,std::allocator<wchar_t> >::const_iterator::operator*, COMDAT
; _this$ = ecx

; 90   : 			{	// return designated object

  00000	55		 push	 ebp
  00001	8b ec		 mov	 ebp, esp
  00003	51		 push	 ecx
  00004	89 4d fc	 mov	 DWORD PTR _this$[ebp], ecx

; 91   : 
; 92   : 
; 93   : 			return (*_Myptr);

  00007	8b 45 fc	 mov	 eax, DWORD PTR _this$[ebp]
  0000a	8b 00		 mov	 eax, DWORD PTR [eax]

; 94   : 			}

  0000c	8b e5		 mov	 esp, ebp
  0000e	5d		 pop	 ebp
  0000f	c3		 ret	 0
??Dconst_iterator@?$basic_string@_WU?$char_traits@_W@std@@V?$allocator@_W@2@@std@@QBEAB_WXZ ENDP ; std::basic_string<wchar_t,std::char_traits<wchar_t>,std::allocator<wchar_t> >::const_iterator::operator*
_TEXT	ENDS
PUBLIC	??Yiterator@?$basic_string@_WU?$char_traits@_W@std@@V?$allocator@_W@2@@std@@QAEAAV012@H@Z ; std::basic_string<wchar_t,std::char_traits<wchar_t>,std::allocator<wchar_t> >::iterator::operator+=
; Function compile flags: /Odt
;	COMDAT ??Ziterator@?$basic_string@_WU?$char_traits@_W@std@@V?$allocator@_W@2@@std@@QAEAAV012@H@Z
_TEXT	SEGMENT
_this$ = -4						; size = 4
__Off$ = 8						; size = 4
??Ziterator@?$basic_string@_WU?$char_traits@_W@std@@V?$allocator@_W@2@@std@@QAEAAV012@H@Z PROC NEAR ; std::basic_string<wchar_t,std::char_traits<wchar_t>,std::allocator<wchar_t> >::iterator::operator-=, COMDAT
; _this$ = ecx

; 279  : 			{	// decrement by integer

  00000	55		 push	 ebp
  00001	8b ec		 mov	 ebp, esp
  00003	51		 push	 ecx
  00004	89 4d fc	 mov	 DWORD PTR _this$[ebp], ecx

; 280  : 			return (*this += -_Off);

  00007	8b 45 08	 mov	 eax, DWORD PTR __Off$[ebp]
  0000a	f7 d8		 neg	 eax
  0000c	50		 push	 eax
  0000d	8b 4d fc	 mov	 ecx, DWORD PTR _this$[ebp]
  00010	e8 00 00 00 00	 call	 ??Yiterator@?$basic_string@_WU?$char_traits@_W@std@@V?$allocator@_W@2@@std@@QAEAAV012@H@Z ; std::basic_string<wchar_t,std::char_traits<wchar_t>,std::allocator<wchar_t> >::iterator::operator+=

; 281  : 			}

  00015	8b e5		 mov	 esp, ebp
  00017	5d		 pop	 ebp
  00018	c2 04 00	 ret	 4
??Ziterator@?$basic_string@_WU?$char_traits@_W@std@@V?$allocator@_W@2@@std@@QAEAAV012@H@Z ENDP ; std::basic_string<wchar_t,std::char_traits<wchar_t>,std::allocator<wchar_t> >::iterator::operator-=
; Function compile flags: /Odt
_TEXT	ENDS
;	COMDAT ??Yiterator@?$basic_string@_WU?$char_traits@_W@std@@V?$allocator@_W@2@@std@@QAEAAV012@H@Z
_TEXT	SEGMENT
_this$ = -4						; size = 4
__Off$ = 8						; size = 4
??Yiterator@?$basic_string@_WU?$char_traits@_W@std@@V?$allocator@_W@2@@std@@QAEAAV012@H@Z PROC NEAR ; std::basic_string<wchar_t,std::char_traits<wchar_t>,std::allocator<wchar_t> >::iterator::operator+=, COMDAT
; _this$ = ecx

; 267  : 			{	// increment by integer

  00000	55		 push	 ebp
  00001	8b ec		 mov	 ebp, esp
  00003	51		 push	 ecx
  00004	89 4d fc	 mov	 DWORD PTR _this$[ebp], ecx

; 268  : 			this->_Myptr += _Off;

  00007	8b 45 fc	 mov	 eax, DWORD PTR _this$[ebp]
  0000a	8b 08		 mov	 ecx, DWORD PTR [eax]
  0000c	8b 55 08	 mov	 edx, DWORD PTR __Off$[ebp]
  0000f	8d 04 51	 lea	 eax, DWORD PTR [ecx+edx*2]
  00012	8b 4d fc	 mov	 ecx, DWORD PTR _this$[ebp]
  00015	89 01		 mov	 DWORD PTR [ecx], eax

; 269  : 			return (*this);

  00017	8b 45 fc	 mov	 eax, DWORD PTR _this$[ebp]

; 270  : 			}

  0001a	8b e5		 mov	 esp, ebp
  0001c	5d		 pop	 ebp
  0001d	c2 04 00	 ret	 4
??Yiterator@?$basic_string@_WU?$char_traits@_W@std@@V?$allocator@_W@2@@std@@QAEAAV012@H@Z ENDP ; std::basic_string<wchar_t,std::char_traits<wchar_t>,std::allocator<wchar_t> >::iterator::operator+=
; Function compile flags: /Odt
; File d:\program files (x86)\microsoft visual studio .net 2003\vc7\atlmfc\include\atltypes.inl
_TEXT	ENDS
;	COMDAT ??0CRect@@QAE@HHHH@Z
_TEXT	SEGMENT
_this$ = -4						; size = 4
_l$ = 8							; size = 4
_t$ = 12						; size = 4
_r$ = 16						; size = 4
_b$ = 20						; size = 4
??0CRect@@QAE@HHHH@Z PROC NEAR				; CRect::CRect, COMDAT
; _this$ = ecx

; 112  : 	{ left = l; top = t; right = r; bottom = b; }

  00000	55		 push	 ebp
  00001	8b ec		 mov	 ebp, esp
  00003	51		 push	 ecx
  00004	89 4d fc	 mov	 DWORD PTR _this$[ebp], ecx
  00007	8b 45 fc	 mov	 eax, DWORD PTR _this$[ebp]
  0000a	8b 4d 08	 mov	 ecx, DWORD PTR _l$[ebp]
  0000d	89 08		 mov	 DWORD PTR [eax], ecx
  0000f	8b 55 fc	 mov	 edx, DWORD PTR _this$[ebp]
  00012	8b 45 0c	 mov	 eax, DWORD PTR _t$[ebp]
  00015	89 42 04	 mov	 DWORD PTR [edx+4], eax
  00018	8b 4d fc	 mov	 ecx, DWORD PTR _this$[ebp]
  0001b	8b 55 10	 mov	 edx, DWORD PTR _r$[ebp]
  0001e	89 51 08	 mov	 DWORD PTR [ecx+8], edx
  00021	8b 45 fc	 mov	 eax, DWORD PTR _this$[ebp]
  00024	8b 4d 14	 mov	 ecx, DWORD PTR _b$[ebp]
  00027	89 48 0c	 mov	 DWORD PTR [eax+12], ecx
  0002a	8b 45 fc	 mov	 eax, DWORD PTR _this$[ebp]
  0002d	8b e5		 mov	 esp, ebp
  0002f	5d		 pop	 ebp
  00030	c2 10 00	 ret	 16			; 00000010H
??0CRect@@QAE@HHHH@Z ENDP				; CRect::CRect
; Function compile flags: /Odt
; File d:\program files (x86)\microsoft visual studio .net 2003\vc7\atlmfc\include\afx.inl
_TEXT	ENDS
;	COMDAT ?Serialize@CObject@@UAEXAAVCArchive@@@Z
_TEXT	SEGMENT
_this$ = -4						; size = 4
___formal$ = 8						; size = 4
?Serialize@CObject@@UAEXAAVCArchive@@@Z PROC NEAR	; CObject::Serialize, COMDAT
; _this$ = ecx

; 25   : 	{ /* CObject does not serialize anything by default */ }

  00000	55		 push	 ebp
  00001	8b ec		 mov	 ebp, esp
  00003	51		 push	 ecx
  00004	89 4d fc	 mov	 DWORD PTR _this$[ebp], ecx
  00007	8b e5		 mov	 esp, ebp
  00009	5d		 pop	 ebp
  0000a	c2 04 00	 ret	 4
?Serialize@CObject@@UAEXAAVCArchive@@@Z ENDP		; CObject::Serialize
; Function compile flags: /Odt
_TEXT	ENDS
;	COMDAT ??3CObject@@SGXPAX@Z
_TEXT	SEGMENT
_p$ = 8							; size = 4
??3CObject@@SGXPAX@Z PROC NEAR				; CObject::operator delete, COMDAT

; 31   : 	{ ::operator delete(p); }

  00000	55		 push	 ebp
  00001	8b ec		 mov	 ebp, esp
  00003	8b 45 08	 mov	 eax, DWORD PTR _p$[ebp]
  00006	50		 push	 eax
  00007	e8 00 00 00 00	 call	 ??3@YAXPAX@Z		; operator delete
  0000c	83 c4 04	 add	 esp, 4
  0000f	5d		 pop	 ebp
  00010	c2 04 00	 ret	 4
??3CObject@@SGXPAX@Z ENDP				; CObject::operator delete
; Function compile flags: /Odt
_TEXT	ENDS
;	COMDAT ?AssertValid@CObject@@UBEXXZ
_TEXT	SEGMENT
_this$ = -4						; size = 4
?AssertValid@CObject@@UBEXXZ PROC NEAR			; CObject::AssertValid, COMDAT
; _this$ = ecx

; 41   : 	{ /* no asserts in release builds */ }

  00000	55		 push	 ebp
  00001	8b ec		 mov	 ebp, esp
  00003	51		 push	 ecx
  00004	89 4d fc	 mov	 DWORD PTR _this$[ebp], ecx
  00007	8b e5		 mov	 esp, ebp
  00009	5d		 pop	 ebp
  0000a	c3		 ret	 0
?AssertValid@CObject@@UBEXXZ ENDP			; CObject::AssertValid
; Function compile flags: /Odt
_TEXT	ENDS
;	COMDAT ?Dump@CObject@@UBEXAAVCDumpContext@@@Z
_TEXT	SEGMENT
_this$ = -4						; size = 4
___formal$ = 8						; size = 4
?Dump@CObject@@UBEXAAVCDumpContext@@@Z PROC NEAR	; CObject::Dump, COMDAT
; _this$ = ecx

; 43   : 	{ /* no dumping in release builds */ }

  00000	55		 push	 ebp
  00001	8b ec		 mov	 ebp, esp
  00003	51		 push	 ecx
  00004	89 4d fc	 mov	 DWORD PTR _this$[ebp], ecx
  00007	8b e5		 mov	 esp, ebp
  00009	5d		 pop	 ebp
  0000a	c2 04 00	 ret	 4
?Dump@CObject@@UBEXAAVCDumpContext@@@Z ENDP		; CObject::Dump
; Function compile flags: /Odt
; File d:\program files (x86)\microsoft visual studio .net 2003\vc7\atlmfc\include\afxwin1.inl
_TEXT	ENDS
;	COMDAT ??BCGdiObject@@QBEPAXXZ
_TEXT	SEGMENT
tv66 = -8						; size = 4
_this$ = -4						; size = 4
??BCGdiObject@@QBEPAXXZ PROC NEAR			; CGdiObject::operator void *, COMDAT
; _this$ = ecx

; 78   : 	{ return this == NULL ? NULL : m_hObject; }

  00000	55		 push	 ebp
  00001	8b ec		 mov	 ebp, esp
  00003	83 ec 08	 sub	 esp, 8
  00006	89 4d fc	 mov	 DWORD PTR _this$[ebp], ecx
  00009	83 7d fc 00	 cmp	 DWORD PTR _this$[ebp], 0
  0000d	75 09		 jne	 SHORT $L199661
  0000f	c7 45 f8 00 00
	00 00		 mov	 DWORD PTR tv66[ebp], 0
  00016	eb 09		 jmp	 SHORT $L199662
$L199661:
  00018	8b 45 fc	 mov	 eax, DWORD PTR _this$[ebp]
  0001b	8b 48 04	 mov	 ecx, DWORD PTR [eax+4]
  0001e	89 4d f8	 mov	 DWORD PTR tv66[ebp], ecx
$L199662:
  00021	8b 45 f8	 mov	 eax, DWORD PTR tv66[ebp]
  00024	8b e5		 mov	 esp, ebp
  00026	5d		 pop	 ebp
  00027	c3		 ret	 0
??BCGdiObject@@QBEPAXXZ ENDP				; CGdiObject::operator void *
_TEXT	ENDS
PUBLIC	??_R0?AVCGdiObject@@@8				; CGdiObject `RTTI Type Descriptor'
PUBLIC	??_R1A@?0A@A@CGdiObject@@8			; CGdiObject::`RTTI Base Class Descriptor at (0,-1,0,0)'
PUBLIC	??_R4CFont@@6B@					; CFont::`RTTI Complete Object Locator'
PUBLIC	??_R0?AVCFont@@@8				; CFont `RTTI Type Descriptor'
PUBLIC	??_R3CFont@@8					; CFont::`RTTI Class Hierarchy Descriptor'
PUBLIC	??_R2CFont@@8					; CFont::`RTTI Base Class Array'
PUBLIC	??_R1A@?0A@A@CFont@@8				; CFont::`RTTI Base Class Descriptor at (0,-1,0,0)'
PUBLIC	??0CGdiObject@@QAE@XZ				; CGdiObject::CGdiObject
PUBLIC	??_7CFont@@6B@					; CFont::`vftable'
PUBLIC	??_GCFont@@UAEPAXI@Z				; CFont::`scalar deleting destructor'
EXTRN	?GetRuntimeClass@CFont@@UBEPAUCRuntimeClass@@XZ:NEAR ; CFont::GetRuntimeClass
EXTRN	??_ECFont@@UAEPAXI@Z:NEAR			; CFont::`vector deleting destructor'
;	COMDAT ??_7CFont@@6B@
CONST	SEGMENT
??_7CFont@@6B@ DD FLAT:??_R4CFont@@6B@			; CFont::`vftable'
	DD	FLAT:?GetRuntimeClass@CFont@@UBEPAUCRuntimeClass@@XZ
	DD	FLAT:??_ECFont@@UAEPAXI@Z
	DD	FLAT:?Serialize@CObject@@UAEXAAVCArchive@@@Z
	DD	FLAT:?AssertValid@CObject@@UBEXXZ
	DD	FLAT:?Dump@CObject@@UBEXAAVCDumpContext@@@Z
CONST	ENDS
;	COMDAT ??_R4CFont@@6B@
rdata$r	SEGMENT
??_R4CFont@@6B@ DD 00H					; CFont::`RTTI Complete Object Locator'
	DD	00H
	DD	00H
	DD	FLAT:??_R0?AVCFont@@@8
	DD	FLAT:??_R3CFont@@8
rdata$r	ENDS
;	COMDAT ??_R0?AVCFont@@@8
_DATA	SEGMENT
??_R0?AVCFont@@@8 DD FLAT:??_7type_info@@6B@		; CFont `RTTI Type Descriptor'
	DD	00H
	DB	'.?AVCFont@@', 00H
_DATA	ENDS
;	COMDAT ??_R3CFont@@8
rdata$r	SEGMENT
??_R3CFont@@8 DD 00H					; CFont::`RTTI Class Hierarchy Descriptor'
	DD	00H
	DD	03H
	DD	FLAT:??_R2CFont@@8
rdata$r	ENDS
;	COMDAT ??_R2CFont@@8
rdata$r	SEGMENT
??_R2CFont@@8 DD FLAT:??_R1A@?0A@A@CFont@@8		; CFont::`RTTI Base Class Array'
	DD	FLAT:??_R1A@?0A@A@CGdiObject@@8
	DD	FLAT:??_R1A@?0A@A@CObject@@8
rdata$r	ENDS
;	COMDAT ??_R1A@?0A@A@CFont@@8
rdata$r	SEGMENT
??_R1A@?0A@A@CFont@@8 DD FLAT:??_R0?AVCFont@@@8		; CFont::`RTTI Base Class Descriptor at (0,-1,0,0)'
	DD	02H
	DD	00H
	DD	0ffffffffH
	DD	00H
	DD	00H
rdata$r	ENDS
;	COMDAT ??_R1A@?0A@A@CGdiObject@@8
rdata$r	SEGMENT
??_R1A@?0A@A@CGdiObject@@8 DD FLAT:??_R0?AVCGdiObject@@@8 ; CGdiObject::`RTTI Base Class Descriptor at (0,-1,0,0)'
	DD	01H
	DD	00H
	DD	0ffffffffH
	DD	00H
	DD	00H
rdata$r	ENDS
;	COMDAT ??_R0?AVCGdiObject@@@8
_DATA	SEGMENT
??_R0?AVCGdiObject@@@8 DD FLAT:??_7type_info@@6B@	; CGdiObject `RTTI Type Descriptor'
	DD	00H
	DB	'.?AVCGdiObject@@', 00H
; Function compile flags: /Odt
_DATA	ENDS
;	COMDAT ??0CFont@@QAE@XZ
_TEXT	SEGMENT
_this$ = -4						; size = 4
??0CFont@@QAE@XZ PROC NEAR				; CFont::CFont, COMDAT
; _this$ = ecx

; 153  : 	{ }

  00000	55		 push	 ebp
  00001	8b ec		 mov	 ebp, esp
  00003	51		 push	 ecx
  00004	89 4d fc	 mov	 DWORD PTR _this$[ebp], ecx
  00007	8b 4d fc	 mov	 ecx, DWORD PTR _this$[ebp]
  0000a	e8 00 00 00 00	 call	 ??0CGdiObject@@QAE@XZ	; CGdiObject::CGdiObject
  0000f	8b 45 fc	 mov	 eax, DWORD PTR _this$[ebp]
  00012	c7 00 00 00 00
	00		 mov	 DWORD PTR [eax], OFFSET FLAT:??_7CFont@@6B@
  00018	8b 45 fc	 mov	 eax, DWORD PTR _this$[ebp]
  0001b	8b e5		 mov	 esp, ebp
  0001d	5d		 pop	 ebp
  0001e	c3		 ret	 0
??0CFont@@QAE@XZ ENDP					; CFont::CFont
_TEXT	ENDS
PUBLIC	??_R4CGdiObject@@6B@				; CGdiObject::`RTTI Complete Object Locator'
PUBLIC	??_R3CGdiObject@@8				; CGdiObject::`RTTI Class Hierarchy Descriptor'
PUBLIC	??_R2CGdiObject@@8				; CGdiObject::`RTTI Base Class Array'
PUBLIC	??0CObject@@IAE@XZ				; CObject::CObject
PUBLIC	??_7CGdiObject@@6B@				; CGdiObject::`vftable'
PUBLIC	??_GCGdiObject@@UAEPAXI@Z			; CGdiObject::`scalar deleting destructor'
EXTRN	?GetRuntimeClass@CGdiObject@@UBEPAUCRuntimeClass@@XZ:NEAR ; CGdiObject::GetRuntimeClass
EXTRN	??_ECGdiObject@@UAEPAXI@Z:NEAR			; CGdiObject::`vector deleting destructor'
;	COMDAT ??_7CGdiObject@@6B@
CONST	SEGMENT
??_7CGdiObject@@6B@ DD FLAT:??_R4CGdiObject@@6B@	; CGdiObject::`vftable'
	DD	FLAT:?GetRuntimeClass@CGdiObject@@UBEPAUCRuntimeClass@@XZ
	DD	FLAT:??_ECGdiObject@@UAEPAXI@Z
	DD	FLAT:?Serialize@CObject@@UAEXAAVCArchive@@@Z
	DD	FLAT:?AssertValid@CObject@@UBEXXZ
	DD	FLAT:?Dump@CObject@@UBEXAAVCDumpContext@@@Z
CONST	ENDS
;	COMDAT ??_R4CGdiObject@@6B@
rdata$r	SEGMENT
??_R4CGdiObject@@6B@ DD 00H				; CGdiObject::`RTTI Complete Object Locator'
	DD	00H
	DD	00H
	DD	FLAT:??_R0?AVCGdiObject@@@8
	DD	FLAT:??_R3CGdiObject@@8
rdata$r	ENDS
;	COMDAT ??_R3CGdiObject@@8
rdata$r	SEGMENT
??_R3CGdiObject@@8 DD 00H				; CGdiObject::`RTTI Class Hierarchy Descriptor'
	DD	00H
	DD	02H
	DD	FLAT:??_R2CGdiObject@@8
rdata$r	ENDS
;	COMDAT ??_R2CGdiObject@@8
rdata$r	SEGMENT
??_R2CGdiObject@@8 DD FLAT:??_R1A@?0A@A@CGdiObject@@8	; CGdiObject::`RTTI Base Class Array'
	DD	FLAT:??_R1A@?0A@A@CObject@@8
; Function compile flags: /Odt
rdata$r	ENDS
;	COMDAT ??0CGdiObject@@QAE@XZ
_TEXT	SEGMENT
_this$ = -4						; size = 4
??0CGdiObject@@QAE@XZ PROC NEAR				; CGdiObject::CGdiObject, COMDAT
; _this$ = ecx

; 82   : 	{ m_hObject = NULL; }

  00000	55		 push	 ebp
  00001	8b ec		 mov	 ebp, esp
  00003	51		 push	 ecx
  00004	89 4d fc	 mov	 DWORD PTR _this$[ebp], ecx
  00007	8b 4d fc	 mov	 ecx, DWORD PTR _this$[ebp]
  0000a	e8 00 00 00 00	 call	 ??0CObject@@IAE@XZ	; CObject::CObject
  0000f	8b 45 fc	 mov	 eax, DWORD PTR _this$[ebp]
  00012	c7 00 00 00 00
	00		 mov	 DWORD PTR [eax], OFFSET FLAT:??_7CGdiObject@@6B@
  00018	8b 4d fc	 mov	 ecx, DWORD PTR _this$[ebp]
  0001b	c7 41 04 00 00
	00 00		 mov	 DWORD PTR [ecx+4], 0
  00022	8b 45 fc	 mov	 eax, DWORD PTR _this$[ebp]
  00025	8b e5		 mov	 esp, ebp
  00027	5d		 pop	 ebp
  00028	c3		 ret	 0
??0CGdiObject@@QAE@XZ ENDP				; CGdiObject::CGdiObject
; Function compile flags: /Odt
; File d:\program files (x86)\microsoft visual studio .net 2003\vc7\atlmfc\include\afx.inl
_TEXT	ENDS
;	COMDAT ??0CObject@@IAE@XZ
_TEXT	SEGMENT
_this$ = -4						; size = 4
??0CObject@@IAE@XZ PROC NEAR				; CObject::CObject, COMDAT
; _this$ = ecx

; 21   : 	{ }

  00000	55		 push	 ebp
  00001	8b ec		 mov	 ebp, esp
  00003	51		 push	 ecx
  00004	89 4d fc	 mov	 DWORD PTR _this$[ebp], ecx
  00007	8b 45 fc	 mov	 eax, DWORD PTR _this$[ebp]
  0000a	8b e5		 mov	 esp, ebp
  0000c	5d		 pop	 ebp
  0000d	c3		 ret	 0
??0CObject@@IAE@XZ ENDP					; CObject::CObject
_TEXT	ENDS
PUBLIC	??1CGdiObject@@UAE@XZ				; CGdiObject::~CGdiObject
; Function compile flags: /Odt
;	COMDAT ??_GCGdiObject@@UAEPAXI@Z
_TEXT	SEGMENT
_this$ = -4						; size = 4
___flags$ = 8						; size = 4
??_GCGdiObject@@UAEPAXI@Z PROC NEAR			; CGdiObject::`scalar deleting destructor', COMDAT
; _this$ = ecx
  00000	55		 push	 ebp
  00001	8b ec		 mov	 ebp, esp
  00003	51		 push	 ecx
  00004	89 4d fc	 mov	 DWORD PTR _this$[ebp], ecx
  00007	8b 4d fc	 mov	 ecx, DWORD PTR _this$[ebp]
  0000a	e8 00 00 00 00	 call	 ??1CGdiObject@@UAE@XZ	; CGdiObject::~CGdiObject
  0000f	8b 45 08	 mov	 eax, DWORD PTR ___flags$[ebp]
  00012	83 e0 01	 and	 eax, 1
  00015	74 09		 je	 SHORT $L41495
  00017	8b 4d fc	 mov	 ecx, DWORD PTR _this$[ebp]
  0001a	51		 push	 ecx
  0001b	e8 00 00 00 00	 call	 ??3CObject@@SGXPAX@Z	; CObject::operator delete
$L41495:
  00020	8b 45 fc	 mov	 eax, DWORD PTR _this$[ebp]
  00023	8b e5		 mov	 esp, ebp
  00025	5d		 pop	 ebp
  00026	c2 04 00	 ret	 4
??_GCGdiObject@@UAEPAXI@Z ENDP				; CGdiObject::`scalar deleting destructor'
_TEXT	ENDS
PUBLIC	??1CObject@@UAE@XZ				; CObject::~CObject
;	COMDAT xdata$x
; File d:\program files (x86)\microsoft visual studio .net 2003\vc7\atlmfc\include\afxwin1.inl
xdata$x	SEGMENT
$T199679 DD	0ffffffffH
	DD	FLAT:$L199675
$T199677 DD	019930520H
	DD	01H
	DD	FLAT:$T199679
	DD	2 DUP(00H)
	DD	2 DUP(00H)
; Function compile flags: /Odt
xdata$x	ENDS
;	COMDAT ??1CGdiObject@@UAE@XZ
_TEXT	SEGMENT
_this$ = -16						; size = 4
__$EHRec$ = -12						; size = 12
??1CGdiObject@@UAE@XZ PROC NEAR				; CGdiObject::~CGdiObject, COMDAT
; _this$ = ecx

; 84   : 	{ DeleteObject(); }

  00000	55		 push	 ebp
  00001	8b ec		 mov	 ebp, esp
  00003	6a ff		 push	 -1
  00005	68 00 00 00 00	 push	 __ehhandler$??1CGdiObject@@UAE@XZ
  0000a	64 a1 00 00 00
	00		 mov	 eax, DWORD PTR fs:__except_list
  00010	50		 push	 eax
  00011	64 89 25 00 00
	00 00		 mov	 DWORD PTR fs:__except_list, esp
  00018	51		 push	 ecx
  00019	89 4d f0	 mov	 DWORD PTR _this$[ebp], ecx
  0001c	8b 45 f0	 mov	 eax, DWORD PTR _this$[ebp]
  0001f	c7 00 00 00 00
	00		 mov	 DWORD PTR [eax], OFFSET FLAT:??_7CGdiObject@@6B@
  00025	c7 45 fc 00 00
	00 00		 mov	 DWORD PTR __$EHRec$[ebp+8], 0
  0002c	8b 4d f0	 mov	 ecx, DWORD PTR _this$[ebp]
  0002f	e8 00 00 00 00	 call	 ?DeleteObject@CGdiObject@@QAEHXZ ; CGdiObject::DeleteObject
  00034	c7 45 fc ff ff
	ff ff		 mov	 DWORD PTR __$EHRec$[ebp+8], -1
  0003b	8b 4d f0	 mov	 ecx, DWORD PTR _this$[ebp]
  0003e	e8 00 00 00 00	 call	 ??1CObject@@UAE@XZ	; CObject::~CObject
  00043	8b 4d f4	 mov	 ecx, DWORD PTR __$EHRec$[ebp]
  00046	64 89 0d 00 00
	00 00		 mov	 DWORD PTR fs:__except_list, ecx
  0004d	8b e5		 mov	 esp, ebp
  0004f	5d		 pop	 ebp
  00050	c3		 ret	 0
_TEXT	ENDS
;	COMDAT text$x
text$x	SEGMENT
$L199675:
  00000	8b 4d f0	 mov	 ecx, DWORD PTR _this$[ebp]
  00003	e9 00 00 00 00	 jmp	 ??1CObject@@UAE@XZ	; CObject::~CObject
__ehhandler$??1CGdiObject@@UAE@XZ:
  00008	b8 00 00 00 00	 mov	 eax, OFFSET FLAT:$T199677
  0000d	e9 00 00 00 00	 jmp	 ___CxxFrameHandler
text$x	ENDS
??1CGdiObject@@UAE@XZ ENDP				; CGdiObject::~CGdiObject
; Function compile flags: /Odt
; File d:\program files (x86)\microsoft visual studio .net 2003\vc7\atlmfc\include\afx.inl
;	COMDAT ??1CObject@@UAE@XZ
_TEXT	SEGMENT
_this$ = -4						; size = 4
??1CObject@@UAE@XZ PROC NEAR				; CObject::~CObject, COMDAT
; _this$ = ecx

; 23   : 	{ }

  00000	55		 push	 ebp
  00001	8b ec		 mov	 ebp, esp
  00003	51		 push	 ecx
  00004	89 4d fc	 mov	 DWORD PTR _this$[ebp], ecx
  00007	8b e5		 mov	 esp, ebp
  00009	5d		 pop	 ebp
  0000a	c3		 ret	 0
??1CObject@@UAE@XZ ENDP					; CObject::~CObject
; Function compile flags: /Odt
_TEXT	ENDS
;	COMDAT ??_GCFont@@UAEPAXI@Z
_TEXT	SEGMENT
_this$ = -4						; size = 4
___flags$ = 8						; size = 4
??_GCFont@@UAEPAXI@Z PROC NEAR				; CFont::`scalar deleting destructor', COMDAT
; _this$ = ecx
  00000	55		 push	 ebp
  00001	8b ec		 mov	 ebp, esp
  00003	51		 push	 ecx
  00004	89 4d fc	 mov	 DWORD PTR _this$[ebp], ecx
  00007	8b 4d fc	 mov	 ecx, DWORD PTR _this$[ebp]
  0000a	e8 00 00 00 00	 call	 ??1CFont@@UAE@XZ	; CFont::~CFont
  0000f	8b 45 08	 mov	 eax, DWORD PTR ___flags$[ebp]
  00012	83 e0 01	 and	 eax, 1
  00015	74 09		 je	 SHORT $L41640
  00017	8b 4d fc	 mov	 ecx, DWORD PTR _this$[ebp]
  0001a	51		 push	 ecx
  0001b	e8 00 00 00 00	 call	 ??3CObject@@SGXPAX@Z	; CObject::operator delete
$L41640:
  00020	8b 45 fc	 mov	 eax, DWORD PTR _this$[ebp]
  00023	8b e5		 mov	 esp, ebp
  00025	5d		 pop	 ebp
  00026	c2 04 00	 ret	 4
??_GCFont@@UAEPAXI@Z ENDP				; CFont::`scalar deleting destructor'
; Function compile flags: /Odt
; File d:\program files (x86)\microsoft visual studio .net 2003\vc7\atlmfc\include\afxwin1.inl
_TEXT	ENDS
;	COMDAT ??1CFont@@UAE@XZ
_TEXT	SEGMENT
_this$ = -4						; size = 4
??1CFont@@UAE@XZ PROC NEAR				; CFont::~CFont, COMDAT
; _this$ = ecx

; 155  : 	{ }

  00000	55		 push	 ebp
  00001	8b ec		 mov	 ebp, esp
  00003	51		 push	 ecx
  00004	89 4d fc	 mov	 DWORD PTR _this$[ebp], ecx
  00007	8b 45 fc	 mov	 eax, DWORD PTR _this$[ebp]
  0000a	c7 00 00 00 00
	00		 mov	 DWORD PTR [eax], OFFSET FLAT:??_7CFont@@6B@
  00010	8b 4d fc	 mov	 ecx, DWORD PTR _this$[ebp]
  00013	e8 00 00 00 00	 call	 ??1CGdiObject@@UAE@XZ	; CGdiObject::~CGdiObject
  00018	8b e5		 mov	 esp, ebp
  0001a	5d		 pop	 ebp
  0001b	c3		 ret	 0
??1CFont@@UAE@XZ ENDP					; CFont::~CFont
_TEXT	ENDS
EXTRN	__imp__CreateFontIndirectA@4:NEAR
EXTRN	?Attach@CGdiObject@@QAEHPAX@Z:NEAR		; CGdiObject::Attach
; Function compile flags: /Odt
;	COMDAT ?CreateFontIndirectA@CFont@@QAEHPBUtagLOGFONTA@@@Z
_TEXT	SEGMENT
_this$ = -4						; size = 4
_lpLogFont$ = 8						; size = 4
?CreateFontIndirectA@CFont@@QAEHPBUtagLOGFONTA@@@Z PROC NEAR ; CFont::CreateFontIndirectA, COMDAT
; _this$ = ecx

; 157  : 	{ return Attach(::CreateFontIndirect(lpLogFont)); }

  00000	55		 push	 ebp
  00001	8b ec		 mov	 ebp, esp
  00003	51		 push	 ecx
  00004	89 4d fc	 mov	 DWORD PTR _this$[ebp], ecx
  00007	8b 45 08	 mov	 eax, DWORD PTR _lpLogFont$[ebp]
  0000a	50		 push	 eax
  0000b	ff 15 00 00 00
	00		 call	 DWORD PTR __imp__CreateFontIndirectA@4
  00011	50		 push	 eax
  00012	8b 4d fc	 mov	 ecx, DWORD PTR _this$[ebp]
  00015	e8 00 00 00 00	 call	 ?Attach@CGdiObject@@QAEHPAX@Z ; CGdiObject::Attach
  0001a	8b e5		 mov	 esp, ebp
  0001c	5d		 pop	 ebp
  0001d	c2 04 00	 ret	 4
?CreateFontIndirectA@CFont@@QAEHPBUtagLOGFONTA@@@Z ENDP	; CFont::CreateFontIndirectA
_TEXT	ENDS
PUBLIC	??_R4CBitmap@@6B@				; CBitmap::`RTTI Complete Object Locator'
PUBLIC	??_R0?AVCBitmap@@@8				; CBitmap `RTTI Type Descriptor'
PUBLIC	??_R3CBitmap@@8					; CBitmap::`RTTI Class Hierarchy Descriptor'
PUBLIC	??_R2CBitmap@@8					; CBitmap::`RTTI Base Class Array'
PUBLIC	??_R1A@?0A@A@CBitmap@@8				; CBitmap::`RTTI Base Class Descriptor at (0,-1,0,0)'
PUBLIC	??_7CBitmap@@6B@				; CBitmap::`vftable'
PUBLIC	??_GCBitmap@@UAEPAXI@Z				; CBitmap::`scalar deleting destructor'
